; Listing generated by Microsoft (R) Optimizing Compiler Version 19.00.24247.2 

	TITLE	D:\!DIFFUSION 2020\source code 2022\client-server\client\achievement.cpp
	.686P
	.XMM
	include listing.inc
	.model	flat

INCLUDELIB LIBCMT
INCLUDELIB OLDNAMES

_BSS	SEGMENT
?y_direction@@3_NA DB 01H DUP (?)			; y_direction
_BSS	ENDS
PUBLIC	??_H@YGXPAXIIP6EPAX0@Z@Z			; `vector constructor iterator'
PUBLIC	??__G@YGXPAX0IIP6EPAX00@Z@Z			; `vector copy constructor iterator'
PUBLIC	___local_stdio_printf_options
PUBLIC	__vfprintf_l
PUBLIC	_fprintf
PUBLIC	??$__vcrt_va_start_verify_argument_type@QBD@@YAXXZ ; __vcrt_va_start_verify_argument_type<char const * const>
PUBLIC	__vsprintf_s_l
PUBLIC	_vsprintf_s
PUBLIC	?PlaySoundA@@YAXPADM@Z				; PlaySoundA
PUBLIC	?Init@CHudAchievement@@UAEHXZ			; CHudAchievement::Init
PUBLIC	?VidInit@CHudAchievement@@UAEHXZ		; CHudAchievement::VidInit
PUBLIC	?Draw@CHudAchievement@@UAEHM@Z			; CHudAchievement::Draw
PUBLIC	?MsgFunc_StatusIconAchievement@CHudAchievement@@QAEHPBDHPAX@Z ; CHudAchievement::MsgFunc_StatusIconAchievement
PUBLIC	?UserCmd_RefreshAchievementFile@CHudAchievement@@QAAXXZ ; CHudAchievement::UserCmd_RefreshAchievementFile
PUBLIC	?UserCmd_ResetAchievementFile@CHudAchievement@@QAAXXZ ; CHudAchievement::UserCmd_ResetAchievementFile
PUBLIC	?EnableAchievement@CHudAchievement@@QAEXPAD@Z	; CHudAchievement::EnableAchievement
PUBLIC	?LoadAchievementFile@CHudAchievement@@QAEXXZ	; CHudAchievement::LoadAchievementFile
PUBLIC	?SaveAchievementFile@CHudAchievement@@QAEXXZ	; CHudAchievement::SaveAchievementFile
PUBLIC	?ReportAchievementsToConsole@CHudAchievement@@QAEXXZ ; CHudAchievement::ReportAchievementsToConsole
PUBLIC	?CheckAchievement@CHudAchievement@@QAEXXZ	; CHudAchievement::CheckAchievement
PUBLIC	?CreateDefaultAchievementFile@CHudAchievement@@QAEXXZ ; CHudAchievement::CreateDefaultAchievementFile
PUBLIC	?GetSprite@CHud@@QAEHH@Z			; CHud::GetSprite
PUBLIC	?GetSpriteRect@CHud@@QAEAAUwrect_s@@H@Z		; CHud::GetSpriteRect
PUBLIC	?__MsgFunc_StatusIconAchievement@@YAHPBDHPAX@Z	; __MsgFunc_StatusIconAchievement
PUBLIC	?__CmdFunc_RefreshAchievementFile@@YAXXZ	; __CmdFunc_RefreshAchievementFile
PUBLIC	?__CmdFunc_ResetAchievementFile@@YAXXZ		; __CmdFunc_ResetAchievementFile
PUBLIC	??$sprintf_s@$0GE@@@YAHAAY0GE@DPBDZZ		; sprintf_s<100>
PUBLIC	??$sprintf_s@$04@@YAHAAY04DPBDZZ		; sprintf_s<5>
PUBLIC	??$__vcrt_va_start_verify_argument_type@PBD@@YAXXZ ; __vcrt_va_start_verify_argument_type<char const *>
PUBLIC	?_OptionsStorage@?1??__local_stdio_printf_options@@9@4_KA ; `__local_stdio_printf_options'::`2'::_OptionsStorage
PUBLIC	??_C@_0BG@DIKIKBA@StatusIconAchievement?$AA@	; `string'
PUBLIC	??_C@_0M@MBPLJDN@ach_refresh?$AA@		; `string'
PUBLIC	??_C@_09PKNAIJEK@ach_reset?$AA@			; `string'
PUBLIC	??_C@_0BA@BKJGOEMJ@ach_firebullets?$AA@		; `string'
PUBLIC	??_C@_08KJFIHPIJ@ach_jump?$AA@			; `string'
PUBLIC	??_C@_0P@NOFLKGAJ@ach_ammocrates?$AA@		; `string'
PUBLIC	??_C@_0L@LOIDOPIH@ach_disarm?$AA@		; `string'
PUBLIC	??_C@_0BA@DDLMCNIN@ach_killenemies?$AA@		; `string'
PUBLIC	??_C@_0BC@DMEBL@ach_inflictdamage?$AA@		; `string'
PUBLIC	??_C@_0BG@KJIAEFNL@ach_killenemiessniper?$AA@	; `string'
PUBLIC	??_C@_0N@PKLBIKL@ach_chapter1?$AA@		; `string'
PUBLIC	??_C@_0N@CEIGELGI@ach_chapter2?$AA@		; `string'
PUBLIC	??_C@_0N@DNJNHKCJ@ach_chapter3?$AA@		; `string'
PUBLIC	??_C@_0N@HCNMOMOO@ach_chapter4?$AA@		; `string'
PUBLIC	??_C@_0N@GLMHNNKP@ach_chapter5?$AA@		; `string'
PUBLIC	??_C@_0BB@MGEHGNO@ach_general30sec?$AA@		; `string'
PUBLIC	??_C@_0BB@KHILGGPA@ach_hpregenerate?$AA@	; `string'
PUBLIC	??_C@_0BC@HLOIADCH@ach_receivedamage?$AA@	; `string'
PUBLIC	??_C@_0N@NAPOGDLF@ach_overcook?$AA@		; `string'
PUBLIC	??_C@_0N@FGEEHMGF@ach_dronesec?$AA@		; `string'
PUBLIC	??_C@_0P@NIOIJKNG@ach_dronealien?$AA@		; `string'
PUBLIC	??_C@_0N@KJFBAALC@ach_crossbow?$AA@		; `string'
PUBLIC	??_C@_0N@DOHDPGJP@ach_tankball?$AA@		; `string'
PUBLIC	??_C@_08FNLABHAD@ach_dash?$AA@			; `string'
PUBLIC	??_C@_09BGOCPNHF@ach_notes?$AA@			; `string'
PUBLIC	??_C@_0M@DMABPFAP@ach_secrets?$AA@		; `string'
PUBLIC	??_C@_0BF@PGEAMBOC@ach_killenemiesballs?$AA@	; `string'
PUBLIC	??_C@_0P@PCDFOOEE@ach_reddweller?$AA@		; `string'
PUBLIC	??_C@_0BH@MMDKGJKH@ach_assembleblastlevel?$AA@	; `string'
PUBLIC	??_C@_0O@MBDOENLO@ach_brokencar?$AA@		; `string'
PUBLIC	??_C@_0BA@NENCIMNH@ach_cardistance?$AA@		; `string'
PUBLIC	??_C@_0BF@PNMMBLCJ@ach_waterjetdistance?$AA@	; `string'
PUBLIC	??_C@_0N@CLMFMKHO@ach_killbots?$AA@		; `string'
PUBLIC	??_C@_0P@FAGDKCHJ@ach_dwellerch3?$AA@		; `string'
PUBLIC	??_C@_0O@KJDKIOIF@ach_ch3_3mins?$AA@		; `string'
PUBLIC	??_C@_05KKCIMGE@error?$AA@			; `string'
PUBLIC	??_C@_0BF@DJBLAKLI@misc?1achievement?4wav?$AA@	; `string'
PUBLIC	??_C@_0BG@HIPDELKG@data?1achievements?4txt?$AA@	; `string'
PUBLIC	??_C@_0EI@GAMJOJJP@?$FO3Warning?3?$FO7?5Couldn?8t?5load?5achie@ ; `string'
PUBLIC	??_C@_0FO@BIDKDBFI@?$FO3Warning?3?$FO7?5Couldn?8t?5load?5achie@ ; `string'
PUBLIC	??_C@_0FC@EKANGLCN@?$FO3Error?3?$FO7?5achievement?5file?5has?5@ ; `string'
PUBLIC	??_C@_0FC@FJCFFCFO@?$FO3Error?3?$FO7?5achievement?5file?5has?5@ ; `string'
PUBLIC	??_C@_0FC@FHMCLKIP@?$FO3Error?3?$FO7?5achievement?5file?5has?5@ ; `string'
PUBLIC	??_C@_0CA@KNEBHDPH@diffusion?1data?1achievements?4txt?$AA@ ; `string'
PUBLIC	??_C@_01NOFIACDB@w?$AA@				; `string'
PUBLIC	??_C@_03JLNFKLOC@?$CFi?5?$AA@			; `string'
PUBLIC	??_C@_03PELOGHMK@?$CFi?6?$AA@			; `string'
PUBLIC	??_C@_0FB@CKIBGJGB@?9?5?9?5?9?5?9?5?9?5?9?5?9?5?9?5?9?5?9?5?9?5?9?5?9?5?9?5?9?5?9?5@ ; `string'
PUBLIC	??_C@_03IPHJCBHH@YES?$AA@			; `string'
PUBLIC	??_C@_02NFLNFON@NO?$AA@				; `string'
PUBLIC	??_C@_0DJ@GDNFEMNL@?$CFi?5Achievement?5?$CC?$CFs?$CC?0?5current?5?$CFi?0@ ; `string'
PUBLIC	??_C@_0BM@ENEMJMKO@ACHIEVEMENT?5?$CC?$CFs?$CC?5UNLOCKED?$CB?6?$AA@ ; `string'
PUBLIC	??_C@_02LBFBOHNP@0?5?$AA@			; `string'
PUBLIC	??_C@_02NODKCLPH@0?6?$AA@			; `string'
PUBLIC	??_C@_07JPEGFAJP@100000?5?$AA@			; `string'
PUBLIC	??_C@_05GBPOALEB@1000?5?$AA@			; `string'
PUBLIC	??_C@_04OEFIKAEH@100?5?$AA@			; `string'
PUBLIC	??_C@_03INMKLGJO@30?5?$AA@			; `string'
PUBLIC	??_C@_04BBNIAGIH@500?5?$AA@			; `string'
PUBLIC	??_C@_06IIBIAINP@10000?5?$AA@			; `string'
PUBLIC	??_C@_02LAJDINOI@1?5?$AA@			; `string'
PUBLIC	??_C@_04KGPBJPID@999?5?$AA@			; `string'
PUBLIC	??_C@_03CHMDHOBF@10?5?$AA@			; `string'
PUBLIC	??_C@_03KIKBOJEC@50?5?$AA@			; `string'
PUBLIC	??_C@_05PKGPEJFH@5000?5?$AA@			; `string'
PUBLIC	??_C@_02NPPIEBMA@1?6?$AA@			; `string'
PUBLIC	__real@00000000
PUBLIC	__real@0000000000000000
PUBLIC	__real@3f800000
PUBLIC	__real@4014000000000000
PUBLIC	__real@40e00000
PUBLIC	__real@42480000
PUBLIC	__real@442f0000
EXTRN	__imp__SetFileAttributesA@8:PROC
EXTRN	_atoi:PROC
EXTRN	_fclose:PROC
EXTRN	_fopen:PROC
EXTRN	___stdio_common_vfprintf:PROC
EXTRN	___stdio_common_vsprintf_s:PROC
EXTRN	?Q_strncpy@@YAIPADPBDI@Z:PROC			; Q_strncpy
EXTRN	?COM_ParseFileExt@@YAPADPAD0J_N@Z:PROC		; COM_ParseFileExt
EXTRN	?GetSpriteIndex@CHud@@QAEHPBD@Z:PROC		; CHud::GetSpriteIndex
EXTRN	?AddHudElem@CHud@@QAEXPAVCHudBase@@@Z:PROC	; CHud::AddHudElem
EXTRN	?ALERT@@YAXW4ALERT_TYPE@@PADZZ:PROC		; ALERT
EXTRN	?BEGIN_READ@@YAXPBDPAXH@Z:PROC			; BEGIN_READ
EXTRN	?END_READ@@YAXXZ:PROC				; END_READ
EXTRN	?READ_STRING@@YAPADXZ:PROC			; READ_STRING
EXTRN	@__security_check_cookie@4:PROC
EXTRN	?gEngfuncs@@3Ucl_enginefuncs_s@@A:BYTE		; gEngfuncs
EXTRN	?gHUD@@3VCHud@@A:BYTE				; gHUD
EXTRN	?g_fFrametime@@3MA:DWORD			; g_fFrametime
EXTRN	?cl_achievement_notify@@3PAUcvar_s@@A:DWORD	; cl_achievement_notify
EXTRN	?tr@@3Uref_globals_t@@A:BYTE			; tr
EXTRN	___security_cookie:DWORD
EXTRN	__fltused:DWORD
;	COMDAT ?_OptionsStorage@?1??__local_stdio_printf_options@@9@4_KA
_BSS	SEGMENT
?_OptionsStorage@?1??__local_stdio_printf_options@@9@4_KA DQ 01H DUP (?) ; `__local_stdio_printf_options'::`2'::_OptionsStorage
_BSS	ENDS
;	COMDAT __real@442f0000
CONST	SEGMENT
__real@442f0000 DD 0442f0000r			; 700
CONST	ENDS
;	COMDAT __real@42480000
CONST	SEGMENT
__real@42480000 DD 042480000r			; 50
CONST	ENDS
;	COMDAT __real@40e00000
CONST	SEGMENT
__real@40e00000 DD 040e00000r			; 7
CONST	ENDS
;	COMDAT __real@4014000000000000
CONST	SEGMENT
__real@4014000000000000 DQ 04014000000000000r	; 5
CONST	ENDS
;	COMDAT __real@3f800000
CONST	SEGMENT
__real@3f800000 DD 03f800000r			; 1
CONST	ENDS
;	COMDAT __real@0000000000000000
CONST	SEGMENT
__real@0000000000000000 DQ 00000000000000000r	; 0
CONST	ENDS
;	COMDAT __real@00000000
CONST	SEGMENT
__real@00000000 DD 000000000r			; 0
CONST	ENDS
;	COMDAT ??_C@_02NPPIEBMA@1?6?$AA@
CONST	SEGMENT
??_C@_02NPPIEBMA@1?6?$AA@ DB '1', 0aH, 00H		; `string'
CONST	ENDS
;	COMDAT ??_C@_05PKGPEJFH@5000?5?$AA@
CONST	SEGMENT
??_C@_05PKGPEJFH@5000?5?$AA@ DB '5000 ', 00H		; `string'
CONST	ENDS
;	COMDAT ??_C@_03KIKBOJEC@50?5?$AA@
CONST	SEGMENT
??_C@_03KIKBOJEC@50?5?$AA@ DB '50 ', 00H		; `string'
CONST	ENDS
;	COMDAT ??_C@_03CHMDHOBF@10?5?$AA@
CONST	SEGMENT
??_C@_03CHMDHOBF@10?5?$AA@ DB '10 ', 00H		; `string'
CONST	ENDS
;	COMDAT ??_C@_04KGPBJPID@999?5?$AA@
CONST	SEGMENT
??_C@_04KGPBJPID@999?5?$AA@ DB '999 ', 00H		; `string'
CONST	ENDS
;	COMDAT ??_C@_02LAJDINOI@1?5?$AA@
CONST	SEGMENT
??_C@_02LAJDINOI@1?5?$AA@ DB '1 ', 00H			; `string'
CONST	ENDS
;	COMDAT ??_C@_06IIBIAINP@10000?5?$AA@
CONST	SEGMENT
??_C@_06IIBIAINP@10000?5?$AA@ DB '10000 ', 00H		; `string'
CONST	ENDS
;	COMDAT ??_C@_04BBNIAGIH@500?5?$AA@
CONST	SEGMENT
??_C@_04BBNIAGIH@500?5?$AA@ DB '500 ', 00H		; `string'
CONST	ENDS
;	COMDAT ??_C@_03INMKLGJO@30?5?$AA@
CONST	SEGMENT
??_C@_03INMKLGJO@30?5?$AA@ DB '30 ', 00H		; `string'
CONST	ENDS
;	COMDAT ??_C@_04OEFIKAEH@100?5?$AA@
CONST	SEGMENT
??_C@_04OEFIKAEH@100?5?$AA@ DB '100 ', 00H		; `string'
CONST	ENDS
;	COMDAT ??_C@_05GBPOALEB@1000?5?$AA@
CONST	SEGMENT
??_C@_05GBPOALEB@1000?5?$AA@ DB '1000 ', 00H		; `string'
CONST	ENDS
;	COMDAT ??_C@_07JPEGFAJP@100000?5?$AA@
CONST	SEGMENT
??_C@_07JPEGFAJP@100000?5?$AA@ DB '100000 ', 00H	; `string'
CONST	ENDS
;	COMDAT ??_C@_02NODKCLPH@0?6?$AA@
CONST	SEGMENT
??_C@_02NODKCLPH@0?6?$AA@ DB '0', 0aH, 00H		; `string'
CONST	ENDS
;	COMDAT ??_C@_02LBFBOHNP@0?5?$AA@
CONST	SEGMENT
??_C@_02LBFBOHNP@0?5?$AA@ DB '0 ', 00H			; `string'
CONST	ENDS
;	COMDAT ??_C@_0BM@ENEMJMKO@ACHIEVEMENT?5?$CC?$CFs?$CC?5UNLOCKED?$CB?6?$AA@
CONST	SEGMENT
??_C@_0BM@ENEMJMKO@ACHIEVEMENT?5?$CC?$CFs?$CC?5UNLOCKED?$CB?6?$AA@ DB 'AC'
	DB	'HIEVEMENT "%s" UNLOCKED!', 0aH, 00H		; `string'
CONST	ENDS
;	COMDAT ??_C@_0DJ@GDNFEMNL@?$CFi?5Achievement?5?$CC?$CFs?$CC?0?5current?5?$CFi?0@
CONST	SEGMENT
??_C@_0DJ@GDNFEMNL@?$CFi?5Achievement?5?$CC?$CFs?$CC?0?5current?5?$CFi?0@ DB '%'
	DB	'i Achievement "%s", current %i, goal %i, Completed? %s', 0aH, 00H ; `string'
CONST	ENDS
;	COMDAT ??_C@_02NFLNFON@NO?$AA@
CONST	SEGMENT
??_C@_02NFLNFON@NO?$AA@ DB 'NO', 00H			; `string'
CONST	ENDS
;	COMDAT ??_C@_03IPHJCBHH@YES?$AA@
CONST	SEGMENT
??_C@_03IPHJCBHH@YES?$AA@ DB 'YES', 00H			; `string'
CONST	ENDS
;	COMDAT ??_C@_0FB@CKIBGJGB@?9?5?9?5?9?5?9?5?9?5?9?5?9?5?9?5?9?5?9?5?9?5?9?5?9?5?9?5?9?5?9?5@
CONST	SEGMENT
??_C@_0FB@CKIBGJGB@?9?5?9?5?9?5?9?5?9?5?9?5?9?5?9?5?9?5?9?5?9?5?9?5?9?5?9?5?9?5?9?5@ DB '-'
	DB	' - - - - - - - - - - - - - - - - - - -', 0aH, '- - - - - - - '
	DB	'- - - - - - - - - - - - -', 0aH, 00H	; `string'
CONST	ENDS
;	COMDAT ??_C@_03PELOGHMK@?$CFi?6?$AA@
CONST	SEGMENT
??_C@_03PELOGHMK@?$CFi?6?$AA@ DB '%i', 0aH, 00H		; `string'
CONST	ENDS
;	COMDAT ??_C@_03JLNFKLOC@?$CFi?5?$AA@
CONST	SEGMENT
??_C@_03JLNFKLOC@?$CFi?5?$AA@ DB '%i ', 00H		; `string'
CONST	ENDS
;	COMDAT ??_C@_01NOFIACDB@w?$AA@
CONST	SEGMENT
??_C@_01NOFIACDB@w?$AA@ DB 'w', 00H			; `string'
CONST	ENDS
;	COMDAT ??_C@_0CA@KNEBHDPH@diffusion?1data?1achievements?4txt?$AA@
CONST	SEGMENT
??_C@_0CA@KNEBHDPH@diffusion?1data?1achievements?4txt?$AA@ DB 'diffusion/'
	DB	'data/achievements.txt', 00H			; `string'
CONST	ENDS
;	COMDAT ??_C@_0FC@FHMCLKIP@?$FO3Error?3?$FO7?5achievement?5file?5has?5@
CONST	SEGMENT
??_C@_0FC@FHMCLKIP@?$FO3Error?3?$FO7?5achievement?5file?5has?5@ DB '^3Err'
	DB	'or:^7 achievement file has an incomplete line 3. Achievements'
	DB	' are disabled.', 0aH, 00H			; `string'
CONST	ENDS
;	COMDAT ??_C@_0FC@FJCFFCFO@?$FO3Error?3?$FO7?5achievement?5file?5has?5@
CONST	SEGMENT
??_C@_0FC@FJCFFCFO@?$FO3Error?3?$FO7?5achievement?5file?5has?5@ DB '^3Err'
	DB	'or:^7 achievement file has an incomplete line 2. Achievements'
	DB	' are disabled.', 0aH, 00H			; `string'
CONST	ENDS
;	COMDAT ??_C@_0FC@EKANGLCN@?$FO3Error?3?$FO7?5achievement?5file?5has?5@
CONST	SEGMENT
??_C@_0FC@EKANGLCN@?$FO3Error?3?$FO7?5achievement?5file?5has?5@ DB '^3Err'
	DB	'or:^7 achievement file has an incomplete line 1. Achievements'
	DB	' are disabled.', 0aH, 00H			; `string'
CONST	ENDS
;	COMDAT ??_C@_0FO@BIDKDBFI@?$FO3Warning?3?$FO7?5Couldn?8t?5load?5achie@
CONST	SEGMENT
??_C@_0FO@BIDKDBFI@?$FO3Warning?3?$FO7?5Couldn?8t?5load?5achie@ DB '^3War'
	DB	'ning:^7 Couldn''t load achievement file due to unknown error.'
	DB	' Achievements are disabled.', 0aH, 00H	; `string'
CONST	ENDS
;	COMDAT ??_C@_0EI@GAMJOJJP@?$FO3Warning?3?$FO7?5Couldn?8t?5load?5achie@
CONST	SEGMENT
??_C@_0EI@GAMJOJJP@?$FO3Warning?3?$FO7?5Couldn?8t?5load?5achie@ DB '^3War'
	DB	'ning:^7 Couldn''t load achievement file. Creating a default o'
	DB	'ne...', 0aH, 00H				; `string'
CONST	ENDS
;	COMDAT ??_C@_0BG@HIPDELKG@data?1achievements?4txt?$AA@
CONST	SEGMENT
??_C@_0BG@HIPDELKG@data?1achievements?4txt?$AA@ DB 'data/achievements.txt'
	DB	00H						; `string'
CONST	ENDS
;	COMDAT ??_C@_0BF@DJBLAKLI@misc?1achievement?4wav?$AA@
CONST	SEGMENT
??_C@_0BF@DJBLAKLI@misc?1achievement?4wav?$AA@ DB 'misc/achievement.wav', 00H ; `string'
CONST	ENDS
;	COMDAT ??_C@_05KKCIMGE@error?$AA@
CONST	SEGMENT
??_C@_05KKCIMGE@error?$AA@ DB 'error', 00H		; `string'
CONST	ENDS
;	COMDAT ??_C@_0O@KJDKIOIF@ach_ch3_3mins?$AA@
CONST	SEGMENT
??_C@_0O@KJDKIOIF@ach_ch3_3mins?$AA@ DB 'ach_ch3_3mins', 00H ; `string'
CONST	ENDS
;	COMDAT ??_C@_0P@FAGDKCHJ@ach_dwellerch3?$AA@
CONST	SEGMENT
??_C@_0P@FAGDKCHJ@ach_dwellerch3?$AA@ DB 'ach_dwellerch3', 00H ; `string'
CONST	ENDS
;	COMDAT ??_C@_0N@CLMFMKHO@ach_killbots?$AA@
CONST	SEGMENT
??_C@_0N@CLMFMKHO@ach_killbots?$AA@ DB 'ach_killbots', 00H ; `string'
CONST	ENDS
;	COMDAT ??_C@_0BF@PNMMBLCJ@ach_waterjetdistance?$AA@
CONST	SEGMENT
??_C@_0BF@PNMMBLCJ@ach_waterjetdistance?$AA@ DB 'ach_waterjetdistance', 00H ; `string'
CONST	ENDS
;	COMDAT ??_C@_0BA@NENCIMNH@ach_cardistance?$AA@
CONST	SEGMENT
??_C@_0BA@NENCIMNH@ach_cardistance?$AA@ DB 'ach_cardistance', 00H ; `string'
CONST	ENDS
;	COMDAT ??_C@_0O@MBDOENLO@ach_brokencar?$AA@
CONST	SEGMENT
??_C@_0O@MBDOENLO@ach_brokencar?$AA@ DB 'ach_brokencar', 00H ; `string'
CONST	ENDS
;	COMDAT ??_C@_0BH@MMDKGJKH@ach_assembleblastlevel?$AA@
CONST	SEGMENT
??_C@_0BH@MMDKGJKH@ach_assembleblastlevel?$AA@ DB 'ach_assembleblastlevel'
	DB	00H						; `string'
CONST	ENDS
;	COMDAT ??_C@_0P@PCDFOOEE@ach_reddweller?$AA@
CONST	SEGMENT
??_C@_0P@PCDFOOEE@ach_reddweller?$AA@ DB 'ach_reddweller', 00H ; `string'
CONST	ENDS
;	COMDAT ??_C@_0BF@PGEAMBOC@ach_killenemiesballs?$AA@
CONST	SEGMENT
??_C@_0BF@PGEAMBOC@ach_killenemiesballs?$AA@ DB 'ach_killenemiesballs', 00H ; `string'
CONST	ENDS
;	COMDAT ??_C@_0M@DMABPFAP@ach_secrets?$AA@
CONST	SEGMENT
??_C@_0M@DMABPFAP@ach_secrets?$AA@ DB 'ach_secrets', 00H ; `string'
CONST	ENDS
;	COMDAT ??_C@_09BGOCPNHF@ach_notes?$AA@
CONST	SEGMENT
??_C@_09BGOCPNHF@ach_notes?$AA@ DB 'ach_notes', 00H	; `string'
CONST	ENDS
;	COMDAT ??_C@_08FNLABHAD@ach_dash?$AA@
CONST	SEGMENT
??_C@_08FNLABHAD@ach_dash?$AA@ DB 'ach_dash', 00H	; `string'
CONST	ENDS
;	COMDAT ??_C@_0N@DOHDPGJP@ach_tankball?$AA@
CONST	SEGMENT
??_C@_0N@DOHDPGJP@ach_tankball?$AA@ DB 'ach_tankball', 00H ; `string'
CONST	ENDS
;	COMDAT ??_C@_0N@KJFBAALC@ach_crossbow?$AA@
CONST	SEGMENT
??_C@_0N@KJFBAALC@ach_crossbow?$AA@ DB 'ach_crossbow', 00H ; `string'
CONST	ENDS
;	COMDAT ??_C@_0P@NIOIJKNG@ach_dronealien?$AA@
CONST	SEGMENT
??_C@_0P@NIOIJKNG@ach_dronealien?$AA@ DB 'ach_dronealien', 00H ; `string'
CONST	ENDS
;	COMDAT ??_C@_0N@FGEEHMGF@ach_dronesec?$AA@
CONST	SEGMENT
??_C@_0N@FGEEHMGF@ach_dronesec?$AA@ DB 'ach_dronesec', 00H ; `string'
CONST	ENDS
;	COMDAT ??_C@_0N@NAPOGDLF@ach_overcook?$AA@
CONST	SEGMENT
??_C@_0N@NAPOGDLF@ach_overcook?$AA@ DB 'ach_overcook', 00H ; `string'
CONST	ENDS
;	COMDAT ??_C@_0BC@HLOIADCH@ach_receivedamage?$AA@
CONST	SEGMENT
??_C@_0BC@HLOIADCH@ach_receivedamage?$AA@ DB 'ach_receivedamage', 00H ; `string'
CONST	ENDS
;	COMDAT ??_C@_0BB@KHILGGPA@ach_hpregenerate?$AA@
CONST	SEGMENT
??_C@_0BB@KHILGGPA@ach_hpregenerate?$AA@ DB 'ach_hpregenerate', 00H ; `string'
CONST	ENDS
;	COMDAT ??_C@_0BB@MGEHGNO@ach_general30sec?$AA@
CONST	SEGMENT
??_C@_0BB@MGEHGNO@ach_general30sec?$AA@ DB 'ach_general30sec', 00H ; `string'
CONST	ENDS
;	COMDAT ??_C@_0N@GLMHNNKP@ach_chapter5?$AA@
CONST	SEGMENT
??_C@_0N@GLMHNNKP@ach_chapter5?$AA@ DB 'ach_chapter5', 00H ; `string'
CONST	ENDS
;	COMDAT ??_C@_0N@HCNMOMOO@ach_chapter4?$AA@
CONST	SEGMENT
??_C@_0N@HCNMOMOO@ach_chapter4?$AA@ DB 'ach_chapter4', 00H ; `string'
CONST	ENDS
;	COMDAT ??_C@_0N@DNJNHKCJ@ach_chapter3?$AA@
CONST	SEGMENT
??_C@_0N@DNJNHKCJ@ach_chapter3?$AA@ DB 'ach_chapter3', 00H ; `string'
CONST	ENDS
;	COMDAT ??_C@_0N@CEIGELGI@ach_chapter2?$AA@
CONST	SEGMENT
??_C@_0N@CEIGELGI@ach_chapter2?$AA@ DB 'ach_chapter2', 00H ; `string'
CONST	ENDS
;	COMDAT ??_C@_0N@PKLBIKL@ach_chapter1?$AA@
CONST	SEGMENT
??_C@_0N@PKLBIKL@ach_chapter1?$AA@ DB 'ach_chapter1', 00H ; `string'
CONST	ENDS
;	COMDAT ??_C@_0BG@KJIAEFNL@ach_killenemiessniper?$AA@
CONST	SEGMENT
??_C@_0BG@KJIAEFNL@ach_killenemiessniper?$AA@ DB 'ach_killenemiessniper', 00H ; `string'
CONST	ENDS
;	COMDAT ??_C@_0BC@DMEBL@ach_inflictdamage?$AA@
CONST	SEGMENT
??_C@_0BC@DMEBL@ach_inflictdamage?$AA@ DB 'ach_inflictdamage', 00H ; `string'
CONST	ENDS
;	COMDAT ??_C@_0BA@DDLMCNIN@ach_killenemies?$AA@
CONST	SEGMENT
??_C@_0BA@DDLMCNIN@ach_killenemies?$AA@ DB 'ach_killenemies', 00H ; `string'
CONST	ENDS
;	COMDAT ??_C@_0L@LOIDOPIH@ach_disarm?$AA@
CONST	SEGMENT
??_C@_0L@LOIDOPIH@ach_disarm?$AA@ DB 'ach_disarm', 00H	; `string'
CONST	ENDS
;	COMDAT ??_C@_0P@NOFLKGAJ@ach_ammocrates?$AA@
CONST	SEGMENT
??_C@_0P@NOFLKGAJ@ach_ammocrates?$AA@ DB 'ach_ammocrates', 00H ; `string'
CONST	ENDS
;	COMDAT ??_C@_08KJFIHPIJ@ach_jump?$AA@
CONST	SEGMENT
??_C@_08KJFIHPIJ@ach_jump?$AA@ DB 'ach_jump', 00H	; `string'
CONST	ENDS
;	COMDAT ??_C@_0BA@BKJGOEMJ@ach_firebullets?$AA@
CONST	SEGMENT
??_C@_0BA@BKJGOEMJ@ach_firebullets?$AA@ DB 'ach_firebullets', 00H ; `string'
CONST	ENDS
;	COMDAT ??_C@_09PKNAIJEK@ach_reset?$AA@
CONST	SEGMENT
??_C@_09PKNAIJEK@ach_reset?$AA@ DB 'ach_reset', 00H	; `string'
CONST	ENDS
;	COMDAT ??_C@_0M@MBPLJDN@ach_refresh?$AA@
CONST	SEGMENT
??_C@_0M@MBPLJDN@ach_refresh?$AA@ DB 'ach_refresh', 00H	; `string'
CONST	ENDS
;	COMDAT ??_C@_0BG@DIKIKBA@StatusIconAchievement?$AA@
CONST	SEGMENT
??_C@_0BG@DIKIKBA@StatusIconAchievement?$AA@ DB 'StatusIconAchievement', 00H ; `string'
CONST	ENDS
; Function compile flags: /Odtp /ZI
; File c:\program files (x86)\microsoft visual studio 14.0\vc\include\vadefs.h
;	COMDAT ??$__vcrt_va_start_verify_argument_type@PBD@@YAXXZ
_TEXT	SEGMENT
??$__vcrt_va_start_verify_argument_type@PBD@@YAXXZ PROC	; __vcrt_va_start_verify_argument_type<char const *>, COMDAT

; 144  :         {

	push	ebp
	mov	ebp, esp
	sub	esp, 64					; 00000040H
	push	ebx
	push	esi
	push	edi

; 145  :             static_assert(!__vcrt_va_list_is_reference<_Ty>::__the_value, "va_start argument must not have reference type and must not be parenthesized");
; 146  :         }

	pop	edi
	pop	esi
	pop	ebx
	mov	esp, ebp
	pop	ebp
	ret	0
??$__vcrt_va_start_verify_argument_type@PBD@@YAXXZ ENDP	; __vcrt_va_start_verify_argument_type<char const *>
_TEXT	ENDS
; Function compile flags: /Odtp /ZI
; File c:\program files (x86)\windows kits\10\include\10.0.10240.0\ucrt\stdio.h
;	COMDAT ??$sprintf_s@$04@@YAHAAY04DPBDZZ
_TEXT	SEGMENT
__ArgList$ = -4						; size = 4
__Buffer$ = 8						; size = 4
__Format$ = 12						; size = 4
??$sprintf_s@$04@@YAHAAY04DPBDZZ PROC			; sprintf_s<5>, COMDAT

; 1850 :     )

	push	ebp
	mov	ebp, esp
	sub	esp, 68					; 00000044H
	push	ebx
	push	esi
	push	edi

; 1846 : __DEFINE_CPP_OVERLOAD_SECURE_FUNC_0_1_ARGLIST(

	call	??$__vcrt_va_start_verify_argument_type@PBD@@YAXXZ ; __vcrt_va_start_verify_argument_type<char const *>
	lea	eax, DWORD PTR __Format$[ebp+4]
	mov	DWORD PTR __ArgList$[ebp], eax
	mov	eax, DWORD PTR __ArgList$[ebp]
	push	eax
	mov	ecx, DWORD PTR __Format$[ebp]
	push	ecx
	push	5
	mov	edx, DWORD PTR __Buffer$[ebp]
	push	edx
	call	_vsprintf_s
	add	esp, 16					; 00000010H
	pop	edi
	pop	esi
	pop	ebx
	mov	esp, ebp
	pop	ebp
	ret	0
??$sprintf_s@$04@@YAHAAY04DPBDZZ ENDP			; sprintf_s<5>
_TEXT	ENDS
; Function compile flags: /Odtp /ZI
; File c:\program files (x86)\windows kits\10\include\10.0.10240.0\ucrt\stdio.h
;	COMDAT ??$sprintf_s@$0GE@@@YAHAAY0GE@DPBDZZ
_TEXT	SEGMENT
__ArgList$ = -4						; size = 4
__Buffer$ = 8						; size = 4
__Format$ = 12						; size = 4
??$sprintf_s@$0GE@@@YAHAAY0GE@DPBDZZ PROC		; sprintf_s<100>, COMDAT

; 1850 :     )

	push	ebp
	mov	ebp, esp
	sub	esp, 68					; 00000044H
	push	ebx
	push	esi
	push	edi

; 1846 : __DEFINE_CPP_OVERLOAD_SECURE_FUNC_0_1_ARGLIST(

	call	??$__vcrt_va_start_verify_argument_type@PBD@@YAXXZ ; __vcrt_va_start_verify_argument_type<char const *>
	lea	eax, DWORD PTR __Format$[ebp+4]
	mov	DWORD PTR __ArgList$[ebp], eax
	mov	eax, DWORD PTR __ArgList$[ebp]
	push	eax
	mov	ecx, DWORD PTR __Format$[ebp]
	push	ecx
	push	100					; 00000064H
	mov	edx, DWORD PTR __Buffer$[ebp]
	push	edx
	call	_vsprintf_s
	add	esp, 16					; 00000010H
	pop	edi
	pop	esi
	pop	ebx
	mov	esp, ebp
	pop	ebp
	ret	0
??$sprintf_s@$0GE@@@YAHAAY0GE@DPBDZZ ENDP		; sprintf_s<100>
_TEXT	ENDS
; Function compile flags: /Odtp /ZI
; File d:\!diffusion 2020\source code 2022\client-server\client\achievement.cpp
;	COMDAT ?__CmdFunc_ResetAchievementFile@@YAXXZ
_TEXT	SEGMENT
?__CmdFunc_ResetAchievementFile@@YAXXZ PROC		; __CmdFunc_ResetAchievementFile, COMDAT

; 18   : DECLARE_COMMAND( m_StatusIconsAchievement, ResetAchievementFile );

	push	ebp
	mov	ebp, esp
	sub	esp, 64					; 00000040H
	push	ebx
	push	esi
	push	edi
	push	OFFSET ?gHUD@@3VCHud@@A+2004
	call	?UserCmd_ResetAchievementFile@CHudAchievement@@QAAXXZ ; CHudAchievement::UserCmd_ResetAchievementFile
	add	esp, 4
	pop	edi
	pop	esi
	pop	ebx
	mov	esp, ebp
	pop	ebp
	ret	0
?__CmdFunc_ResetAchievementFile@@YAXXZ ENDP		; __CmdFunc_ResetAchievementFile
_TEXT	ENDS
; Function compile flags: /Odtp /ZI
; File d:\!diffusion 2020\source code 2022\client-server\client\achievement.cpp
;	COMDAT ?__CmdFunc_RefreshAchievementFile@@YAXXZ
_TEXT	SEGMENT
?__CmdFunc_RefreshAchievementFile@@YAXXZ PROC		; __CmdFunc_RefreshAchievementFile, COMDAT

; 17   : DECLARE_COMMAND( m_StatusIconsAchievement, RefreshAchievementFile );

	push	ebp
	mov	ebp, esp
	sub	esp, 64					; 00000040H
	push	ebx
	push	esi
	push	edi
	push	OFFSET ?gHUD@@3VCHud@@A+2004
	call	?UserCmd_RefreshAchievementFile@CHudAchievement@@QAAXXZ ; CHudAchievement::UserCmd_RefreshAchievementFile
	add	esp, 4
	pop	edi
	pop	esi
	pop	ebx
	mov	esp, ebp
	pop	ebp
	ret	0
?__CmdFunc_RefreshAchievementFile@@YAXXZ ENDP		; __CmdFunc_RefreshAchievementFile
_TEXT	ENDS
; Function compile flags: /Odtp /ZI
; File d:\!diffusion 2020\source code 2022\client-server\client\achievement.cpp
;	COMDAT ?__MsgFunc_StatusIconAchievement@@YAHPBDHPAX@Z
_TEXT	SEGMENT
_pszName$ = 8						; size = 4
_iSize$ = 12						; size = 4
_pbuf$ = 16						; size = 4
?__MsgFunc_StatusIconAchievement@@YAHPBDHPAX@Z PROC	; __MsgFunc_StatusIconAchievement, COMDAT

; 16   : DECLARE_MESSAGE( m_StatusIconsAchievement, StatusIconAchievement );

	push	ebp
	mov	ebp, esp
	sub	esp, 64					; 00000040H
	push	ebx
	push	esi
	push	edi
	mov	eax, DWORD PTR _pbuf$[ebp]
	push	eax
	mov	ecx, DWORD PTR _iSize$[ebp]
	push	ecx
	mov	edx, DWORD PTR _pszName$[ebp]
	push	edx
	mov	ecx, OFFSET ?gHUD@@3VCHud@@A+2004
	call	?MsgFunc_StatusIconAchievement@CHudAchievement@@QAEHPBDHPAX@Z ; CHudAchievement::MsgFunc_StatusIconAchievement
	pop	edi
	pop	esi
	pop	ebx
	mov	esp, ebp
	pop	ebp
	ret	0
?__MsgFunc_StatusIconAchievement@@YAHPBDHPAX@Z ENDP	; __MsgFunc_StatusIconAchievement
_TEXT	ENDS
; Function compile flags: /Odtp /ZI
; File d:\!diffusion 2020\source code 2022\client-server\client\hud.h
;	COMDAT ?GetSpriteRect@CHud@@QAEAAUwrect_s@@H@Z
_TEXT	SEGMENT
_this$ = -4						; size = 4
_index$ = 8						; size = 4
?GetSpriteRect@CHud@@QAEAAUwrect_s@@H@Z PROC		; CHud::GetSpriteRect, COMDAT
; _this$ = ecx

; 952  : 	wrect_t& GetSpriteRect( int index ) { return m_rgrcRects[index]; }

	push	ebp
	mov	ebp, esp
	sub	esp, 68					; 00000044H
	push	ebx
	push	esi
	push	edi
	mov	DWORD PTR _this$[ebp], ecx
	mov	eax, DWORD PTR _index$[ebp]
	shl	eax, 4
	mov	ecx, DWORD PTR _this$[ebp]
	add	eax, DWORD PTR [ecx+232]
	pop	edi
	pop	esi
	pop	ebx
	mov	esp, ebp
	pop	ebp
	ret	4
?GetSpriteRect@CHud@@QAEAAUwrect_s@@H@Z ENDP		; CHud::GetSpriteRect
_TEXT	ENDS
; Function compile flags: /Odtp /ZI
; File d:\!diffusion 2020\source code 2022\client-server\client\hud.h
;	COMDAT ?GetSprite@CHud@@QAEHH@Z
_TEXT	SEGMENT
tv68 = -72						; size = 4
_this$ = -4						; size = 4
_index$ = 8						; size = 4
?GetSprite@CHud@@QAEHH@Z PROC				; CHud::GetSprite, COMDAT
; _this$ = ecx

; 951  : 	SpriteHandle GetSprite( int index ) { return (index < 0) ? 0 : m_rghSprites[index]; }

	push	ebp
	mov	ebp, esp
	sub	esp, 72					; 00000048H
	push	ebx
	push	esi
	push	edi
	mov	DWORD PTR _this$[ebp], ecx
	cmp	DWORD PTR _index$[ebp], 0
	jge	SHORT $LN3@GetSprite
	mov	DWORD PTR tv68[ebp], 0
	jmp	SHORT $LN4@GetSprite
$LN3@GetSprite:
	mov	eax, DWORD PTR _this$[ebp]
	mov	ecx, DWORD PTR [eax+228]
	mov	edx, DWORD PTR _index$[ebp]
	mov	eax, DWORD PTR [ecx+edx*4]
	mov	DWORD PTR tv68[ebp], eax
$LN4@GetSprite:
	mov	eax, DWORD PTR tv68[ebp]
	pop	edi
	pop	esi
	pop	ebx
	mov	esp, ebp
	pop	ebp
	ret	4
?GetSprite@CHud@@QAEHH@Z ENDP				; CHud::GetSprite
_TEXT	ENDS
; Function compile flags: /Odtp /ZI
; File d:\!diffusion 2020\source code 2022\client-server\client\achievement.cpp
;	COMDAT ?CreateDefaultAchievementFile@CHudAchievement@@QAEXXZ
_TEXT	SEGMENT
tv83 = -76						; size = 4
_i$ = -8						; size = 4
_this$ = -4						; size = 4
?CreateDefaultAchievementFile@CHudAchievement@@QAEXXZ PROC ; CHudAchievement::CreateDefaultAchievementFile, COMDAT
; _this$ = ecx

; 337  : {

	push	ebp
	mov	ebp, esp
	sub	esp, 76					; 0000004cH
	push	ebx
	push	esi
	push	edi
	mov	DWORD PTR _this$[ebp], ecx

; 338  : 	int i;
; 339  : 
; 340  : 	// I have to do this, otherwise I can't get the file if it exists and hidden (we are doing a reset)
; 341  : 	SetFileAttributes( "diffusion/data/achievements.txt", FILE_ATTRIBUTE_NORMAL );

	push	128					; 00000080H
	push	OFFSET ??_C@_0CA@KNEBHDPH@diffusion?1data?1achievements?4txt?$AA@
	call	DWORD PTR __imp__SetFileAttributesA@8

; 342  : 
; 343  : 	achStatsFile = fopen( "diffusion/data/achievements.txt", "w" ); // empty file

	push	OFFSET ??_C@_01NOFIACDB@w?$AA@
	push	OFFSET ??_C@_0CA@KNEBHDPH@diffusion?1data?1achievements?4txt?$AA@
	call	_fopen
	add	esp, 8
	mov	ecx, DWORD PTR _this$[ebp]
	mov	DWORD PTR [ecx+24], eax

; 344  : 	if( !achStatsFile )

	mov	eax, DWORD PTR _this$[ebp]
	cmp	DWORD PTR [eax+24], 0
	jne	SHORT $LN13@CreateDefa

; 345  : 		return;

	jmp	$LN1@CreateDefa
$LN13@CreateDefa:

; 346  : 	
; 347  : 	// first line is for current stats
; 348  : 	for( i = 0; i < TOTAL_ACHIEVEMENTS; i++ )

	mov	DWORD PTR _i$[ebp], 0
	jmp	SHORT $LN4@CreateDefa
$LN2@CreateDefa:
	mov	eax, DWORD PTR _i$[ebp]
	add	eax, 1
	mov	DWORD PTR _i$[ebp], eax
$LN4@CreateDefa:
	cmp	DWORD PTR _i$[ebp], 32			; 00000020H
	jge	SHORT $LN3@CreateDefa

; 349  : 	{
; 350  : 		if( i < TOTAL_ACHIEVEMENTS - 1 )

	cmp	DWORD PTR _i$[ebp], 31			; 0000001fH
	jge	SHORT $LN14@CreateDefa

; 351  : 			fprintf( achStatsFile, "0 " );

	push	OFFSET ??_C@_02LBFBOHNP@0?5?$AA@
	mov	eax, DWORD PTR _this$[ebp]
	mov	ecx, DWORD PTR [eax+24]
	push	ecx
	call	_fprintf
	add	esp, 8

; 352  : 		else

	jmp	SHORT $LN15@CreateDefa
$LN14@CreateDefa:

; 353  : 			fprintf( achStatsFile, "0\n" );

	push	OFFSET ??_C@_02NODKCLPH@0?6?$AA@
	mov	eax, DWORD PTR _this$[ebp]
	mov	ecx, DWORD PTR [eax+24]
	push	ecx
	call	_fprintf
	add	esp, 8
$LN15@CreateDefa:

; 354  : 	}

	jmp	SHORT $LN2@CreateDefa
$LN3@CreateDefa:

; 355  : 
; 356  : 	// second line is for goals
; 357  : 	for( i = 0; i < TOTAL_ACHIEVEMENTS; i++ )

	mov	DWORD PTR _i$[ebp], 0
	jmp	SHORT $LN7@CreateDefa
$LN5@CreateDefa:
	mov	eax, DWORD PTR _i$[ebp]
	add	eax, 1
	mov	DWORD PTR _i$[ebp], eax
$LN7@CreateDefa:
	cmp	DWORD PTR _i$[ebp], 32			; 00000020H
	jge	$LN6@CreateDefa

; 358  : 	{
; 359  : 		switch( i )

	mov	eax, DWORD PTR _i$[ebp]
	mov	DWORD PTR tv83[ebp], eax
	cmp	DWORD PTR tv83[ebp], 31			; 0000001fH
	ja	$LN48@CreateDefa
	mov	ecx, DWORD PTR tv83[ebp]
	jmp	DWORD PTR $LN52@CreateDefa[ecx*4]
$LN16@CreateDefa:

; 360  : 		{
; 361  : 		case ACH_BULLETSFIRED: fprintf( achStatsFile, "100000 " ); break;

	push	OFFSET ??_C@_07JPEGFAJP@100000?5?$AA@
	mov	eax, DWORD PTR _this$[ebp]
	mov	ecx, DWORD PTR [eax+24]
	push	ecx
	call	_fprintf
	add	esp, 8
	jmp	$LN8@CreateDefa
$LN17@CreateDefa:

; 362  : 		case ACH_JUMPS: fprintf( achStatsFile, "1000 " ); break;

	push	OFFSET ??_C@_05GBPOALEB@1000?5?$AA@
	mov	eax, DWORD PTR _this$[ebp]
	mov	ecx, DWORD PTR [eax+24]
	push	ecx
	call	_fprintf
	add	esp, 8
	jmp	$LN8@CreateDefa
$LN18@CreateDefa:

; 363  : 		case ACH_AMMOCRATES: fprintf( achStatsFile, "100 " ); break;

	push	OFFSET ??_C@_04OEFIKAEH@100?5?$AA@
	mov	eax, DWORD PTR _this$[ebp]
	mov	ecx, DWORD PTR [eax+24]
	push	ecx
	call	_fprintf
	add	esp, 8
	jmp	$LN8@CreateDefa
$LN19@CreateDefa:

; 364  : 		case ACH_DISARMEDMINES: fprintf( achStatsFile, "30 " ); break;

	push	OFFSET ??_C@_03INMKLGJO@30?5?$AA@
	mov	eax, DWORD PTR _this$[ebp]
	mov	ecx, DWORD PTR [eax+24]
	push	ecx
	call	_fprintf
	add	esp, 8
	jmp	$LN8@CreateDefa
$LN20@CreateDefa:

; 365  : 		case ACH_KILLENEMIES: fprintf( achStatsFile, "500 " ); break;

	push	OFFSET ??_C@_04BBNIAGIH@500?5?$AA@
	mov	eax, DWORD PTR _this$[ebp]
	mov	ecx, DWORD PTR [eax+24]
	push	ecx
	call	_fprintf
	add	esp, 8
	jmp	$LN8@CreateDefa
$LN21@CreateDefa:

; 366  : 		case ACH_INFLICTDAMAGE: fprintf( achStatsFile, "10000 " ); break;

	push	OFFSET ??_C@_06IIBIAINP@10000?5?$AA@
	mov	eax, DWORD PTR _this$[ebp]
	mov	ecx, DWORD PTR [eax+24]
	push	ecx
	call	_fprintf
	add	esp, 8
	jmp	$LN8@CreateDefa
$LN22@CreateDefa:

; 367  : 		case ACH_KILLENEMIESSNIPER: fprintf( achStatsFile, "100 " ); break;

	push	OFFSET ??_C@_04OEFIKAEH@100?5?$AA@
	mov	eax, DWORD PTR _this$[ebp]
	mov	ecx, DWORD PTR [eax+24]
	push	ecx
	call	_fprintf
	add	esp, 8
	jmp	$LN8@CreateDefa
$LN23@CreateDefa:

; 368  : 		case ACH_CH1: fprintf( achStatsFile, "1 " ); break;

	push	OFFSET ??_C@_02LAJDINOI@1?5?$AA@
	mov	eax, DWORD PTR _this$[ebp]
	mov	ecx, DWORD PTR [eax+24]
	push	ecx
	call	_fprintf
	add	esp, 8
	jmp	$LN8@CreateDefa
$LN24@CreateDefa:

; 369  : 		case ACH_CH2: fprintf( achStatsFile, "1 " ); break;

	push	OFFSET ??_C@_02LAJDINOI@1?5?$AA@
	mov	eax, DWORD PTR _this$[ebp]
	mov	ecx, DWORD PTR [eax+24]
	push	ecx
	call	_fprintf
	add	esp, 8
	jmp	$LN8@CreateDefa
$LN25@CreateDefa:

; 370  : 		case ACH_CH3: fprintf( achStatsFile, "1 " ); break;

	push	OFFSET ??_C@_02LAJDINOI@1?5?$AA@
	mov	eax, DWORD PTR _this$[ebp]
	mov	ecx, DWORD PTR [eax+24]
	push	ecx
	call	_fprintf
	add	esp, 8
	jmp	$LN8@CreateDefa
$LN26@CreateDefa:

; 371  : 		case ACH_CH4: fprintf( achStatsFile, "1 " ); break;

	push	OFFSET ??_C@_02LAJDINOI@1?5?$AA@
	mov	eax, DWORD PTR _this$[ebp]
	mov	ecx, DWORD PTR [eax+24]
	push	ecx
	call	_fprintf
	add	esp, 8
	jmp	$LN8@CreateDefa
$LN27@CreateDefa:

; 372  : 		case ACH_CH5: fprintf( achStatsFile, "1 " ); break;

	push	OFFSET ??_C@_02LAJDINOI@1?5?$AA@
	mov	eax, DWORD PTR _this$[ebp]
	mov	ecx, DWORD PTR [eax+24]
	push	ecx
	call	_fprintf
	add	esp, 8
	jmp	$LN8@CreateDefa
$LN28@CreateDefa:

; 373  : 		case ACH_GENERAL30SEC: fprintf( achStatsFile, "1 " ); break;

	push	OFFSET ??_C@_02LAJDINOI@1?5?$AA@
	mov	eax, DWORD PTR _this$[ebp]
	mov	ecx, DWORD PTR [eax+24]
	push	ecx
	call	_fprintf
	add	esp, 8
	jmp	$LN8@CreateDefa
$LN29@CreateDefa:

; 374  : 		case ACH_HPREGENERATE: fprintf( achStatsFile, "10000 " ); break;

	push	OFFSET ??_C@_06IIBIAINP@10000?5?$AA@
	mov	eax, DWORD PTR _this$[ebp]
	mov	ecx, DWORD PTR [eax+24]
	push	ecx
	call	_fprintf
	add	esp, 8
	jmp	$LN8@CreateDefa
$LN30@CreateDefa:

; 375  : 		case ACH_RECEIVEDAMAGE: fprintf( achStatsFile, "10000 " ); break;

	push	OFFSET ??_C@_06IIBIAINP@10000?5?$AA@
	mov	eax, DWORD PTR _this$[ebp]
	mov	ecx, DWORD PTR [eax+24]
	push	ecx
	call	_fprintf
	add	esp, 8
	jmp	$LN8@CreateDefa
$LN31@CreateDefa:

; 376  : 		case ACH_OVERCOOK: fprintf( achStatsFile, "1 " ); break;

	push	OFFSET ??_C@_02LAJDINOI@1?5?$AA@
	mov	eax, DWORD PTR _this$[ebp]
	mov	ecx, DWORD PTR [eax+24]
	push	ecx
	call	_fprintf
	add	esp, 8
	jmp	$LN8@CreateDefa
$LN32@CreateDefa:

; 377  : 		case ACH_DRONESEC: fprintf( achStatsFile, "999 " ); break;

	push	OFFSET ??_C@_04KGPBJPID@999?5?$AA@
	mov	eax, DWORD PTR _this$[ebp]
	mov	ecx, DWORD PTR [eax+24]
	push	ecx
	call	_fprintf
	add	esp, 8
	jmp	$LN8@CreateDefa
$LN33@CreateDefa:

; 378  : 		case ACH_DRONEALIEN: fprintf( achStatsFile, "999 " ); break;

	push	OFFSET ??_C@_04KGPBJPID@999?5?$AA@
	mov	eax, DWORD PTR _this$[ebp]
	mov	ecx, DWORD PTR [eax+24]
	push	ecx
	call	_fprintf
	add	esp, 8
	jmp	$LN8@CreateDefa
$LN34@CreateDefa:

; 379  : 		case ACH_CROSSBOW: fprintf( achStatsFile, "10 " ); break;

	push	OFFSET ??_C@_03CHMDHOBF@10?5?$AA@
	mov	eax, DWORD PTR _this$[ebp]
	mov	ecx, DWORD PTR [eax+24]
	push	ecx
	call	_fprintf
	add	esp, 8
	jmp	$LN8@CreateDefa
$LN35@CreateDefa:

; 380  : 		case ACH_TANKBALL: fprintf( achStatsFile, "999 " ); break;

	push	OFFSET ??_C@_04KGPBJPID@999?5?$AA@
	mov	eax, DWORD PTR _this$[ebp]
	mov	ecx, DWORD PTR [eax+24]
	push	ecx
	call	_fprintf
	add	esp, 8
	jmp	$LN8@CreateDefa
$LN36@CreateDefa:

; 381  : 		case ACH_DASH: fprintf( achStatsFile, "100 " ); break;

	push	OFFSET ??_C@_04OEFIKAEH@100?5?$AA@
	mov	eax, DWORD PTR _this$[ebp]
	mov	ecx, DWORD PTR [eax+24]
	push	ecx
	call	_fprintf
	add	esp, 8
	jmp	$LN8@CreateDefa
$LN37@CreateDefa:

; 382  : 		case ACH_NOTES: fprintf( achStatsFile, "50 " ); break;

	push	OFFSET ??_C@_03KIKBOJEC@50?5?$AA@
	mov	eax, DWORD PTR _this$[ebp]
	mov	ecx, DWORD PTR [eax+24]
	push	ecx
	call	_fprintf
	add	esp, 8
	jmp	$LN8@CreateDefa
$LN38@CreateDefa:

; 383  : 		case ACH_SECRETS: fprintf( achStatsFile, "999 " ); break;

	push	OFFSET ??_C@_04KGPBJPID@999?5?$AA@
	mov	eax, DWORD PTR _this$[ebp]
	mov	ecx, DWORD PTR [eax+24]
	push	ecx
	call	_fprintf
	add	esp, 8
	jmp	$LN8@CreateDefa
$LN39@CreateDefa:

; 384  : 		case ACH_KILLENEMIESBALLS: fprintf( achStatsFile, "999 " ); break;

	push	OFFSET ??_C@_04KGPBJPID@999?5?$AA@
	mov	eax, DWORD PTR _this$[ebp]
	mov	ecx, DWORD PTR [eax+24]
	push	ecx
	call	_fprintf
	add	esp, 8
	jmp	$LN8@CreateDefa
$LN40@CreateDefa:

; 385  : 		case ACH_REDDWELLER: fprintf( achStatsFile, "1 " ); break;

	push	OFFSET ??_C@_02LAJDINOI@1?5?$AA@
	mov	eax, DWORD PTR _this$[ebp]
	mov	ecx, DWORD PTR [eax+24]
	push	ecx
	call	_fprintf
	add	esp, 8
	jmp	$LN8@CreateDefa
$LN41@CreateDefa:

; 386  : 		case ACH_ASSEMBLEBLASTLEVEL: fprintf( achStatsFile, "1 " ); break;

	push	OFFSET ??_C@_02LAJDINOI@1?5?$AA@
	mov	eax, DWORD PTR _this$[ebp]
	mov	ecx, DWORD PTR [eax+24]
	push	ecx
	call	_fprintf
	add	esp, 8
	jmp	$LN8@CreateDefa
$LN42@CreateDefa:

; 387  : 		case ACH_BROKENCAR: fprintf( achStatsFile, "1 " ); break;

	push	OFFSET ??_C@_02LAJDINOI@1?5?$AA@
	mov	eax, DWORD PTR _this$[ebp]
	mov	ecx, DWORD PTR [eax+24]
	push	ecx
	call	_fprintf
	add	esp, 8
	jmp	$LN8@CreateDefa
$LN43@CreateDefa:

; 388  : 		case ACH_CARDISTANCE: fprintf( achStatsFile, "10000 " ); break;

	push	OFFSET ??_C@_06IIBIAINP@10000?5?$AA@
	mov	eax, DWORD PTR _this$[ebp]
	mov	ecx, DWORD PTR [eax+24]
	push	ecx
	call	_fprintf
	add	esp, 8
	jmp	SHORT $LN8@CreateDefa
$LN44@CreateDefa:

; 389  : 		case ACH_WATERJETDISTANCE: fprintf( achStatsFile, "5000 " ); break;

	push	OFFSET ??_C@_05PKGPEJFH@5000?5?$AA@
	mov	eax, DWORD PTR _this$[ebp]
	mov	ecx, DWORD PTR [eax+24]
	push	ecx
	call	_fprintf
	add	esp, 8
	jmp	SHORT $LN8@CreateDefa
$LN45@CreateDefa:

; 390  : 		case ACH_KILLBOTS: fprintf( achStatsFile, "1000 " ); break;

	push	OFFSET ??_C@_05GBPOALEB@1000?5?$AA@
	mov	eax, DWORD PTR _this$[ebp]
	mov	ecx, DWORD PTR [eax+24]
	push	ecx
	call	_fprintf
	add	esp, 8
	jmp	SHORT $LN8@CreateDefa
$LN46@CreateDefa:

; 391  : 		case ACH_CH3_NOKILLDW: fprintf( achStatsFile, "1 " ); break;

	push	OFFSET ??_C@_02LAJDINOI@1?5?$AA@
	mov	eax, DWORD PTR _this$[ebp]
	mov	ecx, DWORD PTR [eax+24]
	push	ecx
	call	_fprintf
	add	esp, 8
	jmp	SHORT $LN8@CreateDefa
$LN47@CreateDefa:

; 392  : 		case ACH_CH3_3MINS: fprintf( achStatsFile, "1\n" ); break;

	push	OFFSET ??_C@_02NPPIEBMA@1?6?$AA@
	mov	eax, DWORD PTR _this$[ebp]
	mov	ecx, DWORD PTR [eax+24]
	push	ecx
	call	_fprintf
	add	esp, 8
	jmp	SHORT $LN8@CreateDefa
$LN48@CreateDefa:

; 393  : 		default: fprintf( achStatsFile, "0 " ); break;

	push	OFFSET ??_C@_02LBFBOHNP@0?5?$AA@
	mov	eax, DWORD PTR _this$[ebp]
	mov	ecx, DWORD PTR [eax+24]
	push	ecx
	call	_fprintf
	add	esp, 8
$LN8@CreateDefa:

; 394  : 		}
; 395  : 	}

	jmp	$LN5@CreateDefa
$LN6@CreateDefa:

; 396  : 
; 397  : 	// third line is for completion marks (0/1)
; 398  : 	for( i = 0; i < TOTAL_ACHIEVEMENTS; i++ ) // mark them all as incomplete (print 0)

	mov	DWORD PTR _i$[ebp], 0
	jmp	SHORT $LN12@CreateDefa
$LN10@CreateDefa:
	mov	eax, DWORD PTR _i$[ebp]
	add	eax, 1
	mov	DWORD PTR _i$[ebp], eax
$LN12@CreateDefa:
	cmp	DWORD PTR _i$[ebp], 32			; 00000020H
	jge	SHORT $LN11@CreateDefa

; 399  : 	{
; 400  : 		if( i < TOTAL_ACHIEVEMENTS - 1 )

	cmp	DWORD PTR _i$[ebp], 31			; 0000001fH
	jge	SHORT $LN49@CreateDefa

; 401  : 			fprintf( achStatsFile, "0 " );

	push	OFFSET ??_C@_02LBFBOHNP@0?5?$AA@
	mov	eax, DWORD PTR _this$[ebp]
	mov	ecx, DWORD PTR [eax+24]
	push	ecx
	call	_fprintf
	add	esp, 8

; 402  : 		else

	jmp	SHORT $LN50@CreateDefa
$LN49@CreateDefa:

; 403  : 			fprintf( achStatsFile, "0\n" );

	push	OFFSET ??_C@_02NODKCLPH@0?6?$AA@
	mov	eax, DWORD PTR _this$[ebp]
	mov	ecx, DWORD PTR [eax+24]
	push	ecx
	call	_fprintf
	add	esp, 8
$LN50@CreateDefa:

; 404  : 	}

	jmp	SHORT $LN10@CreateDefa
$LN11@CreateDefa:

; 405  : 
; 406  : 	fclose( achStatsFile );

	mov	eax, DWORD PTR _this$[ebp]
	mov	ecx, DWORD PTR [eax+24]
	push	ecx
	call	_fclose
	add	esp, 4

; 407  : 
; 408  : 	SetFileAttributes( "diffusion/data/achievements.txt", FILE_ATTRIBUTE_HIDDEN );

	push	2
	push	OFFSET ??_C@_0CA@KNEBHDPH@diffusion?1data?1achievements?4txt?$AA@
	call	DWORD PTR __imp__SetFileAttributesA@8
$LN1@CreateDefa:

; 409  : }

	pop	edi
	pop	esi
	pop	ebx
	mov	esp, ebp
	pop	ebp
	ret	0
	npad	3
$LN52@CreateDefa:
	DD	$LN16@CreateDefa
	DD	$LN17@CreateDefa
	DD	$LN18@CreateDefa
	DD	$LN19@CreateDefa
	DD	$LN20@CreateDefa
	DD	$LN21@CreateDefa
	DD	$LN22@CreateDefa
	DD	$LN23@CreateDefa
	DD	$LN24@CreateDefa
	DD	$LN25@CreateDefa
	DD	$LN26@CreateDefa
	DD	$LN27@CreateDefa
	DD	$LN28@CreateDefa
	DD	$LN29@CreateDefa
	DD	$LN30@CreateDefa
	DD	$LN31@CreateDefa
	DD	$LN32@CreateDefa
	DD	$LN33@CreateDefa
	DD	$LN34@CreateDefa
	DD	$LN35@CreateDefa
	DD	$LN36@CreateDefa
	DD	$LN37@CreateDefa
	DD	$LN38@CreateDefa
	DD	$LN39@CreateDefa
	DD	$LN40@CreateDefa
	DD	$LN41@CreateDefa
	DD	$LN42@CreateDefa
	DD	$LN43@CreateDefa
	DD	$LN44@CreateDefa
	DD	$LN45@CreateDefa
	DD	$LN46@CreateDefa
	DD	$LN47@CreateDefa
?CreateDefaultAchievementFile@CHudAchievement@@QAEXXZ ENDP ; CHudAchievement::CreateDefaultAchievementFile
_TEXT	ENDS
; Function compile flags: /Odtp /ZI
; File d:\!diffusion 2020\source code 2022\client-server\client\achievement.cpp
;	COMDAT ?CheckAchievement@CHudAchievement@@QAEXXZ
_TEXT	SEGMENT
_i$1 = -8						; size = 4
_this$ = -4						; size = 4
?CheckAchievement@CHudAchievement@@QAEXXZ PROC		; CHudAchievement::CheckAchievement, COMDAT
; _this$ = ecx

; 288  : {

	push	ebp
	mov	ebp, esp
	sub	esp, 72					; 00000048H
	push	ebx
	push	esi
	push	edi
	mov	DWORD PTR _this$[ebp], ecx

; 289  : 	if( AchievementCheckTime > tr.time + ACHIEVEMENT_CHECK_TIME )

	mov	eax, DWORD PTR _this$[ebp]
	cvtss2sd xmm0, DWORD PTR [eax+3520]
	movsd	xmm1, QWORD PTR ?tr@@3Uref_globals_t@@A+8
	addsd	xmm1, QWORD PTR __real@4014000000000000
	comisd	xmm0, xmm1
	jbe	SHORT $LN5@CheckAchie

; 290  : 		AchievementCheckTime = tr.time + ACHIEVEMENT_CHECK_TIME;

	movsd	xmm0, QWORD PTR ?tr@@3Uref_globals_t@@A+8
	addsd	xmm0, QWORD PTR __real@4014000000000000
	cvtsd2ss xmm0, xmm0
	mov	eax, DWORD PTR _this$[ebp]
	movss	DWORD PTR [eax+3520], xmm0
$LN5@CheckAchie:

; 291  : 	
; 292  : 	if( tr.time < AchievementCheckTime )

	mov	eax, DWORD PTR _this$[ebp]
	cvtss2sd xmm0, DWORD PTR [eax+3520]
	comisd	xmm0, QWORD PTR ?tr@@3Uref_globals_t@@A+8
	jbe	SHORT $LN6@CheckAchie

; 293  : 		return;

	jmp	$LN1@CheckAchie
$LN6@CheckAchie:

; 294  : 
; 295  : 	for( int i = 0; i < TOTAL_ACHIEVEMENTS; i++ )

	mov	DWORD PTR _i$1[ebp], 0
	jmp	SHORT $LN4@CheckAchie
$LN2@CheckAchie:
	mov	eax, DWORD PTR _i$1[ebp]
	add	eax, 1
	mov	DWORD PTR _i$1[ebp], eax
$LN4@CheckAchie:
	cmp	DWORD PTR _i$1[ebp], 32			; 00000020H
	jge	$LN3@CheckAchie

; 296  : 	{
; 297  : 		if( (AchievementStats[i] >= AchievementGoal[i]) && !AchievementComplete[i] )

	mov	eax, DWORD PTR _i$1[ebp]
	mov	ecx, DWORD PTR _this$[ebp]
	mov	edx, DWORD PTR _i$1[ebp]
	mov	esi, DWORD PTR _this$[ebp]
	mov	eax, DWORD PTR [ecx+eax*4+32]
	cmp	eax, DWORD PTR [esi+edx*4+160]
	jl	SHORT $LN7@CheckAchie
	mov	eax, DWORD PTR _this$[ebp]
	add	eax, DWORD PTR _i$1[ebp]
	movzx	ecx, BYTE PTR [eax+288]
	test	ecx, ecx
	jne	SHORT $LN7@CheckAchie

; 298  : 		{
; 299  : 			AchievementComplete[i] = true;

	mov	eax, DWORD PTR _this$[ebp]
	add	eax, DWORD PTR _i$1[ebp]
	mov	BYTE PTR [eax+288], 1

; 300  : 			if( cl_achievement_notify->value )

	mov	eax, DWORD PTR ?cl_achievement_notify@@3PAUcvar_s@@A ; cl_achievement_notify
	movss	xmm0, DWORD PTR [eax+12]
	ucomiss	xmm0, DWORD PTR __real@00000000
	lahf
	test	ah, 68					; 00000044H
	jnp	SHORT $LN8@CheckAchie

; 301  : 			{
; 302  : 				EnableAchievement( AchievementName[i] );

	imul	eax, DWORD PTR _i$1[ebp], 100
	mov	ecx, DWORD PTR _this$[ebp]
	lea	edx, DWORD PTR [ecx+eax+320]
	push	edx
	mov	ecx, DWORD PTR _this$[ebp]
	call	?EnableAchievement@CHudAchievement@@QAEXPAD@Z ; CHudAchievement::EnableAchievement
$LN8@CheckAchie:

; 303  : 			}
; 304  : 
; 305  : 			ConPrintf( "ACHIEVEMENT \"%s\" UNLOCKED!\n", AchievementName[i] );

	imul	eax, DWORD PTR _i$1[ebp], 100
	mov	ecx, DWORD PTR _this$[ebp]
	lea	edx, DWORD PTR [ecx+eax+320]
	push	edx
	push	OFFSET ??_C@_0BM@ENEMJMKO@ACHIEVEMENT?5?$CC?$CFs?$CC?5UNLOCKED?$CB?6?$AA@
	call	DWORD PTR ?gEngfuncs@@3Ucl_enginefuncs_s@@A+160
	add	esp, 8

; 306  : 			break;

	jmp	SHORT $LN3@CheckAchie
$LN7@CheckAchie:

; 307  : 		}
; 308  : 	}

	jmp	$LN2@CheckAchie
$LN3@CheckAchie:

; 309  : 
; 310  : 	AchievementCheckTime = tr.time + ACHIEVEMENT_CHECK_TIME;

	movsd	xmm0, QWORD PTR ?tr@@3Uref_globals_t@@A+8
	addsd	xmm0, QWORD PTR __real@4014000000000000
	cvtsd2ss xmm0, xmm0
	mov	eax, DWORD PTR _this$[ebp]
	movss	DWORD PTR [eax+3520], xmm0
$LN1@CheckAchie:

; 311  : }

	pop	edi
	pop	esi
	pop	ebx
	mov	esp, ebp
	pop	ebp
	ret	0
?CheckAchievement@CHudAchievement@@QAEXXZ ENDP		; CHudAchievement::CheckAchievement
_TEXT	ENDS
; Function compile flags: /Odtp /ZI
; File d:\!diffusion 2020\source code 2022\client-server\client\achievement.cpp
;	COMDAT ?ReportAchievementsToConsole@CHudAchievement@@QAEXXZ
_TEXT	SEGMENT
_i$1 = -20						; size = 4
_Completed$ = -16					; size = 5
_this$ = -8						; size = 4
__$ArrayPad$ = -4					; size = 4
?ReportAchievementsToConsole@CHudAchievement@@QAEXXZ PROC ; CHudAchievement::ReportAchievementsToConsole, COMDAT
; _this$ = ecx

; 270  : {

	push	ebp
	mov	ebp, esp
	sub	esp, 84					; 00000054H
	mov	eax, DWORD PTR ___security_cookie
	xor	eax, ebp
	mov	DWORD PTR __$ArrayPad$[ebp], eax
	push	ebx
	push	esi
	push	edi
	mov	DWORD PTR _this$[ebp], ecx

; 271  : 	if( !bAchievements )

	mov	eax, DWORD PTR _this$[ebp]
	movzx	ecx, BYTE PTR [eax+28]
	test	ecx, ecx
	jne	SHORT $LN5@ReportAchi

; 272  : 		return;

	jmp	$LN1@ReportAchi
$LN5@ReportAchi:

; 273  : 	
; 274  : 	char Completed[5];
; 275  : 	ALERT( at_console, "- - - - - - - - - - - - - - - - - - - -\n- - - - - - - - - - - - - - - - - - - -\n" );

	push	OFFSET ??_C@_0FB@CKIBGJGB@?9?5?9?5?9?5?9?5?9?5?9?5?9?5?9?5?9?5?9?5?9?5?9?5?9?5?9?5?9?5?9?5@
	push	1
	call	?ALERT@@YAXW4ALERT_TYPE@@PADZZ		; ALERT
	add	esp, 8

; 276  : 	for( int i = 0; i < TOTAL_ACHIEVEMENTS; i++ )

	mov	DWORD PTR _i$1[ebp], 0
	jmp	SHORT $LN4@ReportAchi
$LN2@ReportAchi:
	mov	eax, DWORD PTR _i$1[ebp]
	add	eax, 1
	mov	DWORD PTR _i$1[ebp], eax
$LN4@ReportAchi:
	cmp	DWORD PTR _i$1[ebp], 32			; 00000020H
	jge	SHORT $LN3@ReportAchi

; 277  : 	{
; 278  : 		if( AchievementComplete[i] )

	mov	eax, DWORD PTR _this$[ebp]
	add	eax, DWORD PTR _i$1[ebp]
	movzx	ecx, BYTE PTR [eax+288]
	test	ecx, ecx
	je	SHORT $LN6@ReportAchi

; 279  : 			sprintf_s( Completed, "YES" );

	push	OFFSET ??_C@_03IPHJCBHH@YES?$AA@
	lea	eax, DWORD PTR _Completed$[ebp]
	push	eax
	call	??$sprintf_s@$04@@YAHAAY04DPBDZZ	; sprintf_s<5>
	add	esp, 8

; 280  : 		else

	jmp	SHORT $LN7@ReportAchi
$LN6@ReportAchi:

; 281  : 			sprintf_s( Completed, "NO" );

	push	OFFSET ??_C@_02NFLNFON@NO?$AA@
	lea	eax, DWORD PTR _Completed$[ebp]
	push	eax
	call	??$sprintf_s@$04@@YAHAAY04DPBDZZ	; sprintf_s<5>
	add	esp, 8
$LN7@ReportAchi:

; 282  : 		gEngfuncs.Con_Printf( "%i Achievement \"%s\", current %i, goal %i, Completed? %s\n", i, AchievementName[i], AchievementStats[i], AchievementGoal[i], Completed );

	lea	eax, DWORD PTR _Completed$[ebp]
	push	eax
	mov	ecx, DWORD PTR _i$1[ebp]
	mov	edx, DWORD PTR _this$[ebp]
	mov	eax, DWORD PTR [edx+ecx*4+160]
	push	eax
	mov	ecx, DWORD PTR _i$1[ebp]
	mov	edx, DWORD PTR _this$[ebp]
	mov	eax, DWORD PTR [edx+ecx*4+32]
	push	eax
	imul	ecx, DWORD PTR _i$1[ebp], 100
	mov	edx, DWORD PTR _this$[ebp]
	lea	eax, DWORD PTR [edx+ecx+320]
	push	eax
	mov	ecx, DWORD PTR _i$1[ebp]
	push	ecx
	push	OFFSET ??_C@_0DJ@GDNFEMNL@?$CFi?5Achievement?5?$CC?$CFs?$CC?0?5current?5?$CFi?0@
	call	DWORD PTR ?gEngfuncs@@3Ucl_enginefuncs_s@@A+160
	add	esp, 24					; 00000018H

; 283  : 	}

	jmp	$LN2@ReportAchi
$LN3@ReportAchi:

; 284  : 	ALERT( at_console, "- - - - - - - - - - - - - - - - - - - -\n- - - - - - - - - - - - - - - - - - - -\n" );

	push	OFFSET ??_C@_0FB@CKIBGJGB@?9?5?9?5?9?5?9?5?9?5?9?5?9?5?9?5?9?5?9?5?9?5?9?5?9?5?9?5?9?5?9?5@
	push	1
	call	?ALERT@@YAXW4ALERT_TYPE@@PADZZ		; ALERT
	add	esp, 8
$LN1@ReportAchi:

; 285  : }

	pop	edi
	pop	esi
	pop	ebx
	mov	ecx, DWORD PTR __$ArrayPad$[ebp]
	xor	ecx, ebp
	call	@__security_check_cookie@4
	mov	esp, ebp
	pop	ebp
	ret	0
?ReportAchievementsToConsole@CHudAchievement@@QAEXXZ ENDP ; CHudAchievement::ReportAchievementsToConsole
_TEXT	ENDS
; Function compile flags: /Odtp /ZI
; File d:\!diffusion 2020\source code 2022\client-server\client\achievement.cpp
;	COMDAT ?SaveAchievementFile@CHudAchievement@@QAEXXZ
_TEXT	SEGMENT
_i$1 = -16						; size = 4
_i$2 = -12						; size = 4
_i$3 = -8						; size = 4
_this$ = -4						; size = 4
?SaveAchievementFile@CHudAchievement@@QAEXXZ PROC	; CHudAchievement::SaveAchievementFile, COMDAT
; _this$ = ecx

; 230  : {

	push	ebp
	mov	ebp, esp
	sub	esp, 80					; 00000050H
	push	ebx
	push	esi
	push	edi
	mov	DWORD PTR _this$[ebp], ecx

; 231  : 	if( !bAchievements )

	mov	eax, DWORD PTR _this$[ebp]
	movzx	ecx, BYTE PTR [eax+28]
	test	ecx, ecx
	jne	SHORT $LN11@SaveAchiev

; 232  : 		return;

	jmp	$LN1@SaveAchiev
$LN11@SaveAchiev:

; 233  : 	
; 234  : 	// I have to do this, otherwise I can't get the file if it exists and hidden (we are doing a reset)
; 235  : 	SetFileAttributes( "diffusion/data/achievements.txt", FILE_ATTRIBUTE_NORMAL );

	push	128					; 00000080H
	push	OFFSET ??_C@_0CA@KNEBHDPH@diffusion?1data?1achievements?4txt?$AA@
	call	DWORD PTR __imp__SetFileAttributesA@8

; 236  : 
; 237  : 	achStatsFile = fopen( "diffusion/data/achievements.txt", "w" ); // empty the file

	push	OFFSET ??_C@_01NOFIACDB@w?$AA@
	push	OFFSET ??_C@_0CA@KNEBHDPH@diffusion?1data?1achievements?4txt?$AA@
	call	_fopen
	add	esp, 8
	mov	ecx, DWORD PTR _this$[ebp]
	mov	DWORD PTR [ecx+24], eax

; 238  : 	if( !achStatsFile )

	mov	eax, DWORD PTR _this$[ebp]
	cmp	DWORD PTR [eax+24], 0
	jne	SHORT $LN12@SaveAchiev

; 239  : 		return;

	jmp	$LN1@SaveAchiev
$LN12@SaveAchiev:

; 240  : 
; 241  : 	for( int i = 0; i < TOTAL_ACHIEVEMENTS; i++ ) // write new stuff

	mov	DWORD PTR _i$3[ebp], 0
	jmp	SHORT $LN4@SaveAchiev
$LN2@SaveAchiev:
	mov	eax, DWORD PTR _i$3[ebp]
	add	eax, 1
	mov	DWORD PTR _i$3[ebp], eax
$LN4@SaveAchiev:
	cmp	DWORD PTR _i$3[ebp], 32			; 00000020H
	jge	SHORT $LN3@SaveAchiev

; 242  : 	{
; 243  : 		if( i < TOTAL_ACHIEVEMENTS - 1 )

	cmp	DWORD PTR _i$3[ebp], 31			; 0000001fH
	jge	SHORT $LN13@SaveAchiev

; 244  : 			fprintf( achStatsFile, "%i ", AchievementStats[i] );

	mov	eax, DWORD PTR _i$3[ebp]
	mov	ecx, DWORD PTR _this$[ebp]
	mov	edx, DWORD PTR [ecx+eax*4+32]
	push	edx
	push	OFFSET ??_C@_03JLNFKLOC@?$CFi?5?$AA@
	mov	eax, DWORD PTR _this$[ebp]
	mov	ecx, DWORD PTR [eax+24]
	push	ecx
	call	_fprintf
	add	esp, 12					; 0000000cH

; 245  : 		else

	jmp	SHORT $LN14@SaveAchiev
$LN13@SaveAchiev:

; 246  : 			fprintf( achStatsFile, "%i\n", AchievementStats[i] );

	mov	eax, DWORD PTR _i$3[ebp]
	mov	ecx, DWORD PTR _this$[ebp]
	mov	edx, DWORD PTR [ecx+eax*4+32]
	push	edx
	push	OFFSET ??_C@_03PELOGHMK@?$CFi?6?$AA@
	mov	eax, DWORD PTR _this$[ebp]
	mov	ecx, DWORD PTR [eax+24]
	push	ecx
	call	_fprintf
	add	esp, 12					; 0000000cH
$LN14@SaveAchiev:

; 247  : 	}

	jmp	SHORT $LN2@SaveAchiev
$LN3@SaveAchiev:

; 248  : 
; 249  : 	for( int i = 0; i < TOTAL_ACHIEVEMENTS; i++ ) // write new stuff

	mov	DWORD PTR _i$2[ebp], 0
	jmp	SHORT $LN7@SaveAchiev
$LN5@SaveAchiev:
	mov	eax, DWORD PTR _i$2[ebp]
	add	eax, 1
	mov	DWORD PTR _i$2[ebp], eax
$LN7@SaveAchiev:
	cmp	DWORD PTR _i$2[ebp], 32			; 00000020H
	jge	SHORT $LN6@SaveAchiev

; 250  : 	{
; 251  : 		if( i < TOTAL_ACHIEVEMENTS - 1 )

	cmp	DWORD PTR _i$2[ebp], 31			; 0000001fH
	jge	SHORT $LN15@SaveAchiev

; 252  : 			fprintf( achStatsFile, "%i ", AchievementGoal[i] );

	mov	eax, DWORD PTR _i$2[ebp]
	mov	ecx, DWORD PTR _this$[ebp]
	mov	edx, DWORD PTR [ecx+eax*4+160]
	push	edx
	push	OFFSET ??_C@_03JLNFKLOC@?$CFi?5?$AA@
	mov	eax, DWORD PTR _this$[ebp]
	mov	ecx, DWORD PTR [eax+24]
	push	ecx
	call	_fprintf
	add	esp, 12					; 0000000cH

; 253  : 		else

	jmp	SHORT $LN16@SaveAchiev
$LN15@SaveAchiev:

; 254  : 			fprintf( achStatsFile, "%i\n", AchievementGoal[i] );

	mov	eax, DWORD PTR _i$2[ebp]
	mov	ecx, DWORD PTR _this$[ebp]
	mov	edx, DWORD PTR [ecx+eax*4+160]
	push	edx
	push	OFFSET ??_C@_03PELOGHMK@?$CFi?6?$AA@
	mov	eax, DWORD PTR _this$[ebp]
	mov	ecx, DWORD PTR [eax+24]
	push	ecx
	call	_fprintf
	add	esp, 12					; 0000000cH
$LN16@SaveAchiev:

; 255  : 	}

	jmp	SHORT $LN5@SaveAchiev
$LN6@SaveAchiev:

; 256  : 
; 257  : 	for( int i = 0; i < TOTAL_ACHIEVEMENTS; i++ ) // write new stuff

	mov	DWORD PTR _i$1[ebp], 0
	jmp	SHORT $LN10@SaveAchiev
$LN8@SaveAchiev:
	mov	eax, DWORD PTR _i$1[ebp]
	add	eax, 1
	mov	DWORD PTR _i$1[ebp], eax
$LN10@SaveAchiev:
	cmp	DWORD PTR _i$1[ebp], 32			; 00000020H
	jge	SHORT $LN9@SaveAchiev

; 258  : 	{
; 259  : 		if( i < TOTAL_ACHIEVEMENTS - 1 )

	cmp	DWORD PTR _i$1[ebp], 31			; 0000001fH
	jge	SHORT $LN17@SaveAchiev

; 260  : 			fprintf( achStatsFile, "%i ", AchievementComplete[i] );

	mov	eax, DWORD PTR _this$[ebp]
	add	eax, DWORD PTR _i$1[ebp]
	movzx	ecx, BYTE PTR [eax+288]
	push	ecx
	push	OFFSET ??_C@_03JLNFKLOC@?$CFi?5?$AA@
	mov	edx, DWORD PTR _this$[ebp]
	mov	eax, DWORD PTR [edx+24]
	push	eax
	call	_fprintf
	add	esp, 12					; 0000000cH

; 261  : 		else

	jmp	SHORT $LN18@SaveAchiev
$LN17@SaveAchiev:

; 262  : 			fprintf( achStatsFile, "%i\n", AchievementComplete[i] );

	mov	eax, DWORD PTR _this$[ebp]
	add	eax, DWORD PTR _i$1[ebp]
	movzx	ecx, BYTE PTR [eax+288]
	push	ecx
	push	OFFSET ??_C@_03PELOGHMK@?$CFi?6?$AA@
	mov	edx, DWORD PTR _this$[ebp]
	mov	eax, DWORD PTR [edx+24]
	push	eax
	call	_fprintf
	add	esp, 12					; 0000000cH
$LN18@SaveAchiev:

; 263  : 	}

	jmp	SHORT $LN8@SaveAchiev
$LN9@SaveAchiev:

; 264  : 	fclose( achStatsFile );

	mov	eax, DWORD PTR _this$[ebp]
	mov	ecx, DWORD PTR [eax+24]
	push	ecx
	call	_fclose
	add	esp, 4

; 265  : 
; 266  : 	SetFileAttributes( "diffusion/data/achievements.txt", FILE_ATTRIBUTE_HIDDEN );

	push	2
	push	OFFSET ??_C@_0CA@KNEBHDPH@diffusion?1data?1achievements?4txt?$AA@
	call	DWORD PTR __imp__SetFileAttributesA@8
$LN1@SaveAchiev:

; 267  : }

	pop	edi
	pop	esi
	pop	ebx
	mov	esp, ebp
	pop	ebp
	ret	0
?SaveAchievementFile@CHudAchievement@@QAEXXZ ENDP	; CHudAchievement::SaveAchievementFile
_TEXT	ENDS
; Function compile flags: /Odtp /ZI
; File d:\!diffusion 2020\source code 2022\client-server\client\achievement.cpp
;	COMDAT ?LoadAchievementFile@CHudAchievement@@QAEXXZ
_TEXT	SEGMENT
tv169 = -1240						; size = 4
_afile$ = -1044						; size = 4
_token$ = -1040						; size = 1024
_pfile$ = -16						; size = 4
_i$ = -12						; size = 4
_this$ = -8						; size = 4
__$ArrayPad$ = -4					; size = 4
?LoadAchievementFile@CHudAchievement@@QAEXXZ PROC	; CHudAchievement::LoadAchievementFile, COMDAT
; _this$ = ecx

; 153  : {

	push	ebp
	mov	ebp, esp
	sub	esp, 1240				; 000004d8H
	mov	eax, DWORD PTR ___security_cookie
	xor	eax, ebp
	mov	DWORD PTR __$ArrayPad$[ebp], eax
	push	ebx
	push	esi
	push	edi
	mov	DWORD PTR _this$[ebp], ecx

; 154  : 	bAchievements = true;

	mov	eax, DWORD PTR _this$[ebp]
	mov	BYTE PTR [eax+28], 1

; 155  : 
; 156  : 	int i;
; 157  : 	char *pfile;
; 158  : 	char token[1024];
; 159  : 	char *afile = (char *)gEngfuncs.COM_LoadFile( "data/achievements.txt", 5, NULL );

	push	0
	push	5
	push	OFFSET ??_C@_0BG@HIPDELKG@data?1achievements?4txt?$AA@
	call	DWORD PTR ?gEngfuncs@@3Ucl_enginefuncs_s@@A+316
	add	esp, 12					; 0000000cH
	mov	DWORD PTR _afile$[ebp], eax

; 160  : 	if( !afile )

	cmp	DWORD PTR _afile$[ebp], 0
	jne	SHORT $LN11@LoadAchiev

; 161  : 	{
; 162  : 		gEngfuncs.Con_Printf( "^3Warning:^7 Couldn't load achievement file. Creating a default one...\n" );

	push	OFFSET ??_C@_0EI@GAMJOJJP@?$FO3Warning?3?$FO7?5Couldn?8t?5load?5achie@
	call	DWORD PTR ?gEngfuncs@@3Ucl_enginefuncs_s@@A+160
	add	esp, 4

; 163  : 
; 164  : 		CreateDefaultAchievementFile();

	mov	ecx, DWORD PTR _this$[ebp]
	call	?CreateDefaultAchievementFile@CHudAchievement@@QAEXXZ ; CHudAchievement::CreateDefaultAchievementFile

; 165  : 
; 166  : 		// try again.
; 167  : 		afile = (char *)gEngfuncs.COM_LoadFile( "data/achievements.txt", 5, NULL );

	push	0
	push	5
	push	OFFSET ??_C@_0BG@HIPDELKG@data?1achievements?4txt?$AA@
	call	DWORD PTR ?gEngfuncs@@3Ucl_enginefuncs_s@@A+316
	add	esp, 12					; 0000000cH
	mov	DWORD PTR _afile$[ebp], eax

; 168  : 		if( !afile )

	cmp	DWORD PTR _afile$[ebp], 0
	jne	SHORT $LN11@LoadAchiev

; 169  : 		{
; 170  : 			gEngfuncs.Con_Printf( "^3Warning:^7 Couldn't load achievement file due to unknown error. Achievements are disabled.\n" );

	push	OFFSET ??_C@_0FO@BIDKDBFI@?$FO3Warning?3?$FO7?5Couldn?8t?5load?5achie@
	call	DWORD PTR ?gEngfuncs@@3Ucl_enginefuncs_s@@A+160
	add	esp, 4

; 171  : 			bAchievements = false;

	mov	eax, DWORD PTR _this$[ebp]
	mov	BYTE PTR [eax+28], 0

; 172  : 			return;

	jmp	$LN1@LoadAchiev
$LN11@LoadAchiev:

; 173  : 		}
; 174  : 	}
; 175  : 
; 176  : 	// file is found, parse it
; 177  : 	pfile = afile;

	mov	eax, DWORD PTR _afile$[ebp]
	mov	DWORD PTR _pfile$[ebp], eax

; 178  : 	for( i = 0; i < TOTAL_ACHIEVEMENTS; i++ )

	mov	DWORD PTR _i$[ebp], 0
	jmp	SHORT $LN4@LoadAchiev
$LN2@LoadAchiev:
	mov	eax, DWORD PTR _i$[ebp]
	add	eax, 1
	mov	DWORD PTR _i$[ebp], eax
$LN4@LoadAchiev:
	cmp	DWORD PTR _i$[ebp], 32			; 00000020H
	jge	SHORT $LN3@LoadAchiev

; 179  : 	{
; 180  : 		pfile = COM_ParseLine( pfile, token );

	push	0
	push	1024					; 00000400H
	lea	eax, DWORD PTR _token$[ebp]
	push	eax
	mov	ecx, DWORD PTR _pfile$[ebp]
	push	ecx
	call	?COM_ParseFileExt@@YAPADPAD0J_N@Z	; COM_ParseFileExt
	add	esp, 16					; 00000010H
	mov	DWORD PTR _pfile$[ebp], eax

; 181  : 		if( !pfile )

	cmp	DWORD PTR _pfile$[ebp], 0
	jne	SHORT $LN13@LoadAchiev

; 182  : 		{
; 183  : 			// line is incomplete
; 184  : 			gEngfuncs.Con_Printf( "^3Error:^7 achievement file has an incomplete line 1. Achievements are disabled.\n" );

	push	OFFSET ??_C@_0FC@EKANGLCN@?$FO3Error?3?$FO7?5achievement?5file?5has?5@
	call	DWORD PTR ?gEngfuncs@@3Ucl_enginefuncs_s@@A+160
	add	esp, 4

; 185  : 			bAchievements = false;

	mov	eax, DWORD PTR _this$[ebp]
	mov	BYTE PTR [eax+28], 0

; 186  : 			return;

	jmp	$LN1@LoadAchiev
$LN13@LoadAchiev:

; 187  : 		}
; 188  : 		AchievementStats[i] = atoi( token );

	lea	eax, DWORD PTR _token$[ebp]
	push	eax
	call	_atoi
	add	esp, 4
	mov	ecx, DWORD PTR _i$[ebp]
	mov	edx, DWORD PTR _this$[ebp]
	mov	DWORD PTR [edx+ecx*4+32], eax

; 189  : 		//	gEngfuncs.Con_Printf( "s %i %i\n", i, AchievementStats[i] );
; 190  : 	}

	jmp	SHORT $LN2@LoadAchiev
$LN3@LoadAchiev:

; 191  : 
; 192  : 	// second line is the goals
; 193  : 	pfile = COM_ParseFile( pfile, token );

	push	1
	push	1024					; 00000400H
	lea	eax, DWORD PTR _token$[ebp]
	push	eax
	mov	ecx, DWORD PTR _pfile$[ebp]
	push	ecx
	call	?COM_ParseFileExt@@YAPADPAD0J_N@Z	; COM_ParseFileExt
	add	esp, 16					; 00000010H
	mov	DWORD PTR _pfile$[ebp], eax

; 194  : 
; 195  : 	for( i = 0; i < TOTAL_ACHIEVEMENTS; i++ )

	mov	DWORD PTR _i$[ebp], 0
	jmp	SHORT $LN7@LoadAchiev
$LN5@LoadAchiev:
	mov	eax, DWORD PTR _i$[ebp]
	add	eax, 1
	mov	DWORD PTR _i$[ebp], eax
$LN7@LoadAchiev:
	cmp	DWORD PTR _i$[ebp], 32			; 00000020H
	jge	SHORT $LN6@LoadAchiev

; 196  : 	{
; 197  : 		if( i > 0 ) pfile = COM_ParseLine( pfile, token );

	cmp	DWORD PTR _i$[ebp], 0
	jle	SHORT $LN14@LoadAchiev
	push	0
	push	1024					; 00000400H
	lea	eax, DWORD PTR _token$[ebp]
	push	eax
	mov	ecx, DWORD PTR _pfile$[ebp]
	push	ecx
	call	?COM_ParseFileExt@@YAPADPAD0J_N@Z	; COM_ParseFileExt
	add	esp, 16					; 00000010H
	mov	DWORD PTR _pfile$[ebp], eax
$LN14@LoadAchiev:

; 198  : 		if( !pfile )

	cmp	DWORD PTR _pfile$[ebp], 0
	jne	SHORT $LN15@LoadAchiev

; 199  : 		{
; 200  : 			// line is incomplete
; 201  : 			gEngfuncs.Con_Printf( "^3Error:^7 achievement file has an incomplete line 2. Achievements are disabled.\n" );

	push	OFFSET ??_C@_0FC@FJCFFCFO@?$FO3Error?3?$FO7?5achievement?5file?5has?5@
	call	DWORD PTR ?gEngfuncs@@3Ucl_enginefuncs_s@@A+160
	add	esp, 4

; 202  : 			bAchievements = false;

	mov	eax, DWORD PTR _this$[ebp]
	mov	BYTE PTR [eax+28], 0

; 203  : 			return;

	jmp	$LN1@LoadAchiev
$LN15@LoadAchiev:

; 204  : 		}
; 205  : 		AchievementGoal[i] = atoi( token );

	lea	eax, DWORD PTR _token$[ebp]
	push	eax
	call	_atoi
	add	esp, 4
	mov	ecx, DWORD PTR _i$[ebp]
	mov	edx, DWORD PTR _this$[ebp]
	mov	DWORD PTR [edx+ecx*4+160], eax

; 206  : 		//	gEngfuncs.Con_Printf( "g %i %i\n", i, AchievementGoal[i] );
; 207  : 	}

	jmp	SHORT $LN5@LoadAchiev
$LN6@LoadAchiev:

; 208  : 
; 209  : 	// third line is the numbers, 0 or 1, checking if the achievement is completed
; 210  : 	pfile = COM_ParseFile( pfile, token );

	push	1
	push	1024					; 00000400H
	lea	eax, DWORD PTR _token$[ebp]
	push	eax
	mov	ecx, DWORD PTR _pfile$[ebp]
	push	ecx
	call	?COM_ParseFileExt@@YAPADPAD0J_N@Z	; COM_ParseFileExt
	add	esp, 16					; 00000010H
	mov	DWORD PTR _pfile$[ebp], eax

; 211  : 
; 212  : 	for( i = 0; i < TOTAL_ACHIEVEMENTS; i++ )

	mov	DWORD PTR _i$[ebp], 0
	jmp	SHORT $LN10@LoadAchiev
$LN8@LoadAchiev:
	mov	eax, DWORD PTR _i$[ebp]
	add	eax, 1
	mov	DWORD PTR _i$[ebp], eax
$LN10@LoadAchiev:
	cmp	DWORD PTR _i$[ebp], 32			; 00000020H
	jge	$LN9@LoadAchiev

; 213  : 	{
; 214  : 		if( i > 0 ) pfile = COM_ParseLine( pfile, token );

	cmp	DWORD PTR _i$[ebp], 0
	jle	SHORT $LN16@LoadAchiev
	push	0
	push	1024					; 00000400H
	lea	eax, DWORD PTR _token$[ebp]
	push	eax
	mov	ecx, DWORD PTR _pfile$[ebp]
	push	ecx
	call	?COM_ParseFileExt@@YAPADPAD0J_N@Z	; COM_ParseFileExt
	add	esp, 16					; 00000010H
	mov	DWORD PTR _pfile$[ebp], eax
$LN16@LoadAchiev:

; 215  : 		if( !pfile )

	cmp	DWORD PTR _pfile$[ebp], 0
	jne	SHORT $LN17@LoadAchiev

; 216  : 		{
; 217  : 			// line is incomplete
; 218  : 			gEngfuncs.Con_Printf( "^3Error:^7 achievement file has an incomplete line 3. Achievements are disabled.\n" );

	push	OFFSET ??_C@_0FC@FHMCLKIP@?$FO3Error?3?$FO7?5achievement?5file?5has?5@
	call	DWORD PTR ?gEngfuncs@@3Ucl_enginefuncs_s@@A+160
	add	esp, 4

; 219  : 			bAchievements = false;

	mov	eax, DWORD PTR _this$[ebp]
	mov	BYTE PTR [eax+28], 0

; 220  : 			return;

	jmp	SHORT $LN1@LoadAchiev
$LN17@LoadAchiev:

; 221  : 		}
; 222  : 		AchievementComplete[i] = (atoi( token ) > 0);

	lea	eax, DWORD PTR _token$[ebp]
	push	eax
	call	_atoi
	add	esp, 4
	test	eax, eax
	jle	SHORT $LN19@LoadAchiev
	mov	DWORD PTR tv169[ebp], 1
	jmp	SHORT $LN20@LoadAchiev
$LN19@LoadAchiev:
	mov	DWORD PTR tv169[ebp], 0
$LN20@LoadAchiev:
	mov	ecx, DWORD PTR _this$[ebp]
	add	ecx, DWORD PTR _i$[ebp]
	mov	dl, BYTE PTR tv169[ebp]
	mov	BYTE PTR [ecx+288], dl

; 223  : 		//	gEngfuncs.Con_Printf( "c %i %i\n", i, AchievementComplete[i] );
; 224  : 	}

	jmp	$LN8@LoadAchiev
$LN9@LoadAchiev:

; 225  : 
; 226  : 	gEngfuncs.COM_FreeFile( afile );

	mov	eax, DWORD PTR _afile$[ebp]
	push	eax
	call	DWORD PTR ?gEngfuncs@@3Ucl_enginefuncs_s@@A+324
	add	esp, 4
$LN1@LoadAchiev:

; 227  : }

	pop	edi
	pop	esi
	pop	ebx
	mov	ecx, DWORD PTR __$ArrayPad$[ebp]
	xor	ecx, ebp
	call	@__security_check_cookie@4
	mov	esp, ebp
	pop	ebp
	ret	0
?LoadAchievementFile@CHudAchievement@@QAEXXZ ENDP	; CHudAchievement::LoadAchievementFile
_TEXT	ENDS
; Function compile flags: /Odtp /ZI
; File d:\!diffusion 2020\source code 2022\client-server\client\achievement.cpp
;	COMDAT ?EnableAchievement@CHudAchievement@@QAEXPAD@Z
_TEXT	SEGMENT
_spr_index$ = -8					; size = 4
_this$ = -4						; size = 4
_pszIconName$ = 8					; size = 4
?EnableAchievement@CHudAchievement@@QAEXPAD@Z PROC	; CHudAchievement::EnableAchievement, COMDAT
; _this$ = ecx

; 129  : {

	push	ebp
	mov	ebp, esp
	sub	esp, 72					; 00000048H
	push	ebx
	push	esi
	push	edi
	mov	DWORD PTR _this$[ebp], ecx

; 130  : 	// the sprite must be listed in hud.txt
; 131  : 	int spr_index = gHUD.GetSpriteIndex( pszIconName );

	mov	eax, DWORD PTR _pszIconName$[ebp]
	push	eax
	mov	ecx, OFFSET ?gHUD@@3VCHud@@A		; gHUD
	call	?GetSpriteIndex@CHud@@QAEHPBD@Z		; CHud::GetSpriteIndex
	mov	DWORD PTR _spr_index$[ebp], eax

; 132  : 	m_AchievementSpr.spr = gHUD.GetSprite( spr_index );

	mov	eax, DWORD PTR _spr_index$[ebp]
	push	eax
	mov	ecx, OFFSET ?gHUD@@3VCHud@@A		; gHUD
	call	?GetSprite@CHud@@QAEHH@Z		; CHud::GetSprite
	mov	ecx, DWORD PTR _this$[ebp]
	mov	DWORD PTR [ecx+3556], eax

; 133  : 	if( !m_AchievementSpr.spr )

	mov	eax, DWORD PTR _this$[ebp]
	cmp	DWORD PTR [eax+3556], 0
	jne	SHORT $LN2@EnableAchi

; 134  : 	{
; 135  : 		spr_index = gHUD.GetSpriteIndex( "error" );

	push	OFFSET ??_C@_05KKCIMGE@error?$AA@
	mov	ecx, OFFSET ?gHUD@@3VCHud@@A		; gHUD
	call	?GetSpriteIndex@CHud@@QAEHPBD@Z		; CHud::GetSpriteIndex
	mov	DWORD PTR _spr_index$[ebp], eax

; 136  : 		m_AchievementSpr.spr = gHUD.GetSprite( spr_index );

	mov	eax, DWORD PTR _spr_index$[ebp]
	push	eax
	mov	ecx, OFFSET ?gHUD@@3VCHud@@A		; gHUD
	call	?GetSprite@CHud@@QAEHH@Z		; CHud::GetSprite
	mov	ecx, DWORD PTR _this$[ebp]
	mov	DWORD PTR [ecx+3556], eax
$LN2@EnableAchi:

; 137  : 	}
; 138  : 	m_AchievementSpr.rc = gHUD.GetSpriteRect( spr_index );

	mov	eax, DWORD PTR _spr_index$[ebp]
	push	eax
	mov	ecx, OFFSET ?gHUD@@3VCHud@@A		; gHUD
	call	?GetSpriteRect@CHud@@QAEAAUwrect_s@@H@Z	; CHud::GetSpriteRect
	mov	ecx, DWORD PTR _this$[ebp]
	add	ecx, 3560				; 00000de8H
	mov	edx, DWORD PTR [eax]
	mov	DWORD PTR [ecx], edx
	mov	edx, DWORD PTR [eax+4]
	mov	DWORD PTR [ecx+4], edx
	mov	edx, DWORD PTR [eax+8]
	mov	DWORD PTR [ecx+8], edx
	mov	eax, DWORD PTR [eax+12]
	mov	DWORD PTR [ecx+12], eax

; 139  : 	m_AchievementSpr.r = m_AchievementSpr.g = m_AchievementSpr.b = 255;

	mov	eax, DWORD PTR _this$[ebp]
	mov	BYTE PTR [eax+3578], 255		; 000000ffH
	mov	ecx, DWORD PTR _this$[ebp]
	mov	BYTE PTR [ecx+3577], 255		; 000000ffH
	mov	edx, DWORD PTR _this$[ebp]
	mov	BYTE PTR [edx+3576], 255		; 000000ffH

; 140  : 	Q_strcpy( m_AchievementSpr.szSpriteName, pszIconName );

	push	99999					; 0001869fH
	mov	eax, DWORD PTR _pszIconName$[ebp]
	push	eax
	mov	ecx, DWORD PTR _this$[ebp]
	add	ecx, 3524				; 00000dc4H
	push	ecx
	call	?Q_strncpy@@YAIPADPBDI@Z		; Q_strncpy
	add	esp, 12					; 0000000cH

; 141  : 
; 142  : 	y = ScreenHeight + 200; // starting position below the bottom of the screen

	mov	eax, DWORD PTR ?gHUD@@3VCHud@@A+8440
	add	eax, 200				; 000000c8H
	cvtsi2ss xmm0, eax
	mov	ecx, DWORD PTR _this$[ebp]
	movss	DWORD PTR [ecx+12], xmm0

; 143  : 	IsAchDrawing = true;

	mov	eax, DWORD PTR _this$[ebp]
	mov	BYTE PTR [eax+20], 1

; 144  : 	y_direction = false;

	mov	BYTE PTR ?y_direction@@3_NA, 0

; 145  : 	AchStartTime = gHUD.m_flTime;

	mov	eax, DWORD PTR _this$[ebp]
	movss	xmm0, DWORD PTR ?gHUD@@3VCHud@@A+32
	movss	DWORD PTR [eax+16], xmm0

; 146  : 
; 147  : 	PlaySound( "misc/achievement.wav", 1.0 );

	push	ecx
	movss	xmm0, DWORD PTR __real@3f800000
	movss	DWORD PTR [esp], xmm0
	push	OFFSET ??_C@_0BF@DJBLAKLI@misc?1achievement?4wav?$AA@
	call	?PlaySoundA@@YAXPADM@Z			; PlaySoundA
	add	esp, 8

; 148  : 
; 149  : 	m_iFlags |= HUD_ACTIVE;

	mov	eax, DWORD PTR _this$[ebp]
	mov	ecx, DWORD PTR [eax+4]
	or	ecx, 1
	mov	edx, DWORD PTR _this$[ebp]
	mov	DWORD PTR [edx+4], ecx

; 150  : }

	pop	edi
	pop	esi
	pop	ebx
	mov	esp, ebp
	pop	ebp
	ret	4
?EnableAchievement@CHudAchievement@@QAEXPAD@Z ENDP	; CHudAchievement::EnableAchievement
_TEXT	ENDS
; Function compile flags: /Odtp /ZI
; File d:\!diffusion 2020\source code 2022\client-server\client\achievement.cpp
;	COMDAT ?UserCmd_ResetAchievementFile@CHudAchievement@@QAAXXZ
_TEXT	SEGMENT
_i$1 = -4						; size = 4
_this$ = 8						; size = 4
?UserCmd_ResetAchievementFile@CHudAchievement@@QAAXXZ PROC ; CHudAchievement::UserCmd_ResetAchievementFile, COMDAT

; 319  : {

	push	ebp
	mov	ebp, esp
	sub	esp, 68					; 00000044H
	push	ebx
	push	esi
	push	edi

; 320  : 	// reset everything accumulated during this session
; 321  : 	for( int i = 0; i < TOTAL_ACHIEVEMENTS; i++)

	mov	DWORD PTR _i$1[ebp], 0
	jmp	SHORT $LN4@UserCmd_Re
$LN2@UserCmd_Re:
	mov	eax, DWORD PTR _i$1[ebp]
	add	eax, 1
	mov	DWORD PTR _i$1[ebp], eax
$LN4@UserCmd_Re:
	cmp	DWORD PTR _i$1[ebp], 32			; 00000020H
	jge	SHORT $LN3@UserCmd_Re

; 322  : 	{
; 323  : 		AchievementStats[i] = 0;

	mov	eax, DWORD PTR _i$1[ebp]
	mov	ecx, DWORD PTR _this$[ebp]
	mov	DWORD PTR [ecx+eax*4+32], 0

; 324  : 		AchievementComplete[i] = 0;

	mov	eax, DWORD PTR _this$[ebp]
	add	eax, DWORD PTR _i$1[ebp]
	mov	BYTE PTR [eax+288], 0

; 325  : 		AchievementGoal[i] = 0;

	mov	eax, DWORD PTR _i$1[ebp]
	mov	ecx, DWORD PTR _this$[ebp]
	mov	DWORD PTR [ecx+eax*4+160], 0

; 326  : 	}

	jmp	SHORT $LN2@UserCmd_Re
$LN3@UserCmd_Re:

; 327  : 	
; 328  : 	CreateDefaultAchievementFile();

	mov	ecx, DWORD PTR _this$[ebp]
	call	?CreateDefaultAchievementFile@CHudAchievement@@QAEXXZ ; CHudAchievement::CreateDefaultAchievementFile

; 329  : 
; 330  : 	LoadAchievementFile();

	mov	ecx, DWORD PTR _this$[ebp]
	call	?LoadAchievementFile@CHudAchievement@@QAEXXZ ; CHudAchievement::LoadAchievementFile

; 331  : }

	pop	edi
	pop	esi
	pop	ebx
	mov	esp, ebp
	pop	ebp
	ret	0
?UserCmd_ResetAchievementFile@CHudAchievement@@QAAXXZ ENDP ; CHudAchievement::UserCmd_ResetAchievementFile
_TEXT	ENDS
; Function compile flags: /Odtp /ZI
; File d:\!diffusion 2020\source code 2022\client-server\client\achievement.cpp
;	COMDAT ?UserCmd_RefreshAchievementFile@CHudAchievement@@QAAXXZ
_TEXT	SEGMENT
_this$ = 8						; size = 4
?UserCmd_RefreshAchievementFile@CHudAchievement@@QAAXXZ PROC ; CHudAchievement::UserCmd_RefreshAchievementFile, COMDAT

; 314  : {

	push	ebp
	mov	ebp, esp
	sub	esp, 64					; 00000040H
	push	ebx
	push	esi
	push	edi

; 315  : 	SaveAchievementFile();

	mov	ecx, DWORD PTR _this$[ebp]
	call	?SaveAchievementFile@CHudAchievement@@QAEXXZ ; CHudAchievement::SaveAchievementFile

; 316  : }

	pop	edi
	pop	esi
	pop	ebx
	mov	esp, ebp
	pop	ebp
	ret	0
?UserCmd_RefreshAchievementFile@CHudAchievement@@QAAXXZ ENDP ; CHudAchievement::UserCmd_RefreshAchievementFile
_TEXT	ENDS
; Function compile flags: /Odtp /ZI
; File d:\!diffusion 2020\source code 2022\client-server\client\achievement.cpp
;	COMDAT ?MsgFunc_StatusIconAchievement@CHudAchievement@@QAEHPBDHPAX@Z
_TEXT	SEGMENT
_pszIconName$ = -8					; size = 4
_this$ = -4						; size = 4
_pszName$ = 8						; size = 4
_iSize$ = 12						; size = 4
_pbuf$ = 16						; size = 4
?MsgFunc_StatusIconAchievement@CHudAchievement@@QAEHPBDHPAX@Z PROC ; CHudAchievement::MsgFunc_StatusIconAchievement, COMDAT
; _this$ = ecx

; 118  : {

	push	ebp
	mov	ebp, esp
	sub	esp, 72					; 00000048H
	push	ebx
	push	esi
	push	edi
	mov	DWORD PTR _this$[ebp], ecx

; 119  : 	BEGIN_READ( pszName, pbuf, iSize );

	mov	eax, DWORD PTR _iSize$[ebp]
	push	eax
	mov	ecx, DWORD PTR _pbuf$[ebp]
	push	ecx
	mov	edx, DWORD PTR _pszName$[ebp]
	push	edx
	call	?BEGIN_READ@@YAXPBDPAXH@Z		; BEGIN_READ
	add	esp, 12					; 0000000cH

; 120  : 	char *pszIconName = READ_STRING();

	call	?READ_STRING@@YAPADXZ			; READ_STRING
	mov	DWORD PTR _pszIconName$[ebp], eax

; 121  : 	END_READ();

	call	?END_READ@@YAXXZ			; END_READ

; 122  : 
; 123  : 	EnableAchievement( pszIconName );

	mov	eax, DWORD PTR _pszIconName$[ebp]
	push	eax
	mov	ecx, DWORD PTR _this$[ebp]
	call	?EnableAchievement@CHudAchievement@@QAEXPAD@Z ; CHudAchievement::EnableAchievement

; 124  : 
; 125  : 	return 1;

	mov	eax, 1

; 126  : }

	pop	edi
	pop	esi
	pop	ebx
	mov	esp, ebp
	pop	ebp
	ret	12					; 0000000cH
?MsgFunc_StatusIconAchievement@CHudAchievement@@QAEHPBDHPAX@Z ENDP ; CHudAchievement::MsgFunc_StatusIconAchievement
_TEXT	ENDS
; Function compile flags: /Odtp /ZI
; File d:\!diffusion 2020\source code 2022\client-server\client\achievement.cpp
;	COMDAT ?Draw@CHudAchievement@@UAEHM@Z
_TEXT	SEGMENT
_this$ = -4						; size = 4
_flTime$ = 8						; size = 4
?Draw@CHudAchievement@@UAEHM@Z PROC			; CHudAchievement::Draw, COMDAT
; _this$ = ecx

; 76   : {

	push	ebp
	mov	ebp, esp
	sub	esp, 68					; 00000044H
	push	ebx
	push	esi
	push	edi
	mov	DWORD PTR _this$[ebp], ecx

; 77   : 	if( gHUD.m_flTimeDelta == 0 ) // paused

	movsd	xmm0, QWORD PTR ?gHUD@@3VCHud@@A+40
	ucomisd	xmm0, QWORD PTR __real@0000000000000000
	lahf
	test	ah, 68					; 00000044H
	jp	SHORT $LN2@Draw

; 78   : 		return 0;

	xor	eax, eax
	jmp	$LN1@Draw
$LN2@Draw:

; 79   : 
; 80   : 	if( !IsAchDrawing )

	mov	eax, DWORD PTR _this$[ebp]
	movzx	ecx, BYTE PTR [eax+20]
	test	ecx, ecx
	jne	SHORT $LN3@Draw

; 81   : 		return 0;

	xor	eax, eax
	jmp	$LN1@Draw
$LN3@Draw:

; 82   : 
; 83   : 	if( gHUD.m_flTime > AchStartTime + SHOW_ACHIEVEMENT_TIME )

	mov	eax, DWORD PTR _this$[ebp]
	movss	xmm0, DWORD PTR [eax+16]
	addss	xmm0, DWORD PTR __real@40e00000
	movss	xmm1, DWORD PTR ?gHUD@@3VCHud@@A+32
	comiss	xmm1, xmm0
	jbe	SHORT $LN4@Draw

; 84   : 		y_direction = true;

	mov	BYTE PTR ?y_direction@@3_NA, 1
$LN4@Draw:

; 85   : 
; 86   : 	// screen center
; 87   : 	x = (ScreenWidth / 2) - ((m_AchievementSpr.rc.right - m_AchievementSpr.rc.left) / 2);

	mov	eax, DWORD PTR ?gHUD@@3VCHud@@A+8436
	cdq
	sub	eax, edx
	mov	ecx, eax
	sar	ecx, 1
	mov	edx, DWORD PTR _this$[ebp]
	mov	eax, DWORD PTR _this$[ebp]
	mov	edx, DWORD PTR [edx+3564]
	sub	edx, DWORD PTR [eax+3560]
	mov	eax, edx
	cdq
	sub	eax, edx
	sar	eax, 1
	sub	ecx, eax
	cvtsi2ss xmm0, ecx
	mov	eax, DWORD PTR _this$[ebp]
	movss	DWORD PTR [eax+8], xmm0

; 88   : 
; 89   : 	if( !y_direction ) // achievement sprite is now showing

	movzx	eax, BYTE PTR ?y_direction@@3_NA
	test	eax, eax
	jne	SHORT $LN5@Draw

; 90   : 	{
; 91   : 		if( y > ScreenHeight - 250 ) y -= 700 * g_fFrametime;

	mov	eax, DWORD PTR ?gHUD@@3VCHud@@A+8440
	sub	eax, 250				; 000000faH
	cvtsi2ss xmm0, eax
	mov	ecx, DWORD PTR _this$[ebp]
	movss	xmm1, DWORD PTR [ecx+12]
	comiss	xmm1, xmm0
	jbe	SHORT $LN7@Draw
	movss	xmm0, DWORD PTR __real@442f0000
	mulss	xmm0, DWORD PTR ?g_fFrametime@@3MA
	mov	eax, DWORD PTR _this$[ebp]
	movss	xmm1, DWORD PTR [eax+12]
	subss	xmm1, xmm0
	mov	ecx, DWORD PTR _this$[ebp]
	movss	DWORD PTR [ecx+12], xmm1
$LN7@Draw:

; 92   : 
; 93   : 		if( y < ScreenHeight - 250 ) y = ScreenHeight - 250;

	mov	eax, DWORD PTR ?gHUD@@3VCHud@@A+8440
	sub	eax, 250				; 000000faH
	cvtsi2ss xmm0, eax
	mov	ecx, DWORD PTR _this$[ebp]
	comiss	xmm0, DWORD PTR [ecx+12]
	jbe	SHORT $LN8@Draw
	mov	eax, DWORD PTR ?gHUD@@3VCHud@@A+8440
	sub	eax, 250				; 000000faH
	cvtsi2ss xmm0, eax
	mov	ecx, DWORD PTR _this$[ebp]
	movss	DWORD PTR [ecx+12], xmm0
$LN8@Draw:

; 94   : 	}
; 95   : 	else // hiding

	jmp	SHORT $LN9@Draw
$LN5@Draw:

; 96   : 	{
; 97   : 		y += 50 * g_fFrametime;

	movss	xmm0, DWORD PTR __real@42480000
	mulss	xmm0, DWORD PTR ?g_fFrametime@@3MA
	mov	eax, DWORD PTR _this$[ebp]
	addss	xmm0, DWORD PTR [eax+12]
	mov	ecx, DWORD PTR _this$[ebp]
	movss	DWORD PTR [ecx+12], xmm0

; 98   : 
; 99   : 		// fully hidden, finish up
; 100  : 		if( y > ScreenHeight )

	cvtsi2ss xmm0, DWORD PTR ?gHUD@@3VCHud@@A+8440
	mov	eax, DWORD PTR _this$[ebp]
	movss	xmm1, DWORD PTR [eax+12]
	comiss	xmm1, xmm0
	jbe	SHORT $LN9@Draw

; 101  : 		{
; 102  : 			IsAchDrawing = false;

	mov	eax, DWORD PTR _this$[ebp]
	mov	BYTE PTR [eax+20], 0

; 103  : 			m_iFlags &= ~HUD_ACTIVE;

	mov	eax, DWORD PTR _this$[ebp]
	mov	ecx, DWORD PTR [eax+4]
	and	ecx, -2					; fffffffeH
	mov	edx, DWORD PTR _this$[ebp]
	mov	DWORD PTR [edx+4], ecx

; 104  : 			return 0;

	xor	eax, eax
	jmp	SHORT $LN1@Draw
$LN9@Draw:

; 105  : 		}
; 106  : 	}
; 107  : 
; 108  : 	if( m_AchievementSpr.spr )

	mov	eax, DWORD PTR _this$[ebp]
	cmp	DWORD PTR [eax+3556], 0
	je	SHORT $LN10@Draw

; 109  : 	{
; 110  : 		SPR_Set( m_AchievementSpr.spr, m_AchievementSpr.r, m_AchievementSpr.g, m_AchievementSpr.b );	

	mov	eax, DWORD PTR _this$[ebp]
	movzx	ecx, BYTE PTR [eax+3578]
	push	ecx
	mov	edx, DWORD PTR _this$[ebp]
	movzx	eax, BYTE PTR [edx+3577]
	push	eax
	mov	ecx, DWORD PTR _this$[ebp]
	movzx	edx, BYTE PTR [ecx+3576]
	push	edx
	mov	eax, DWORD PTR _this$[ebp]
	mov	ecx, DWORD PTR [eax+3556]
	push	ecx
	call	DWORD PTR ?gEngfuncs@@3Ucl_enginefuncs_s@@A+16
	add	esp, 16					; 00000010H

; 111  : 		SPR_Draw( 0, x, y, &m_AchievementSpr.rc );

	mov	eax, DWORD PTR _this$[ebp]
	add	eax, 3560				; 00000de8H
	push	eax
	mov	ecx, DWORD PTR _this$[ebp]
	cvttss2si edx, DWORD PTR [ecx+12]
	push	edx
	mov	eax, DWORD PTR _this$[ebp]
	cvttss2si ecx, DWORD PTR [eax+8]
	push	ecx
	push	0
	call	DWORD PTR ?gEngfuncs@@3Ucl_enginefuncs_s@@A+20
	add	esp, 16					; 00000010H
$LN10@Draw:

; 112  : 	}
; 113  : 
; 114  : 	return 1;

	mov	eax, 1
$LN1@Draw:

; 115  : }

	pop	edi
	pop	esi
	pop	ebx
	mov	esp, ebp
	pop	ebp
	ret	4
?Draw@CHudAchievement@@UAEHM@Z ENDP			; CHudAchievement::Draw
_TEXT	ENDS
; Function compile flags: /Odtp /ZI
; File d:\!diffusion 2020\source code 2022\client-server\client\achievement.cpp
;	COMDAT ?VidInit@CHudAchievement@@UAEHXZ
_TEXT	SEGMENT
_this$ = -4						; size = 4
?VidInit@CHudAchievement@@UAEHXZ PROC			; CHudAchievement::VidInit, COMDAT
; _this$ = ecx

; 67   : {

	push	ebp
	mov	ebp, esp
	sub	esp, 68					; 00000044H
	push	ebx
	push	esi
	push	edi
	mov	DWORD PTR _this$[ebp], ecx

; 68   : 	AchStartTime = 0;

	mov	eax, DWORD PTR _this$[ebp]
	xorps	xmm0, xmm0
	movss	DWORD PTR [eax+16], xmm0

; 69   : 	IsAchDrawing = false;

	mov	eax, DWORD PTR _this$[ebp]
	mov	BYTE PTR [eax+20], 0

; 70   : 	AchievementCheckTime = tr.time + ACHIEVEMENT_CHECK_TIME;

	movsd	xmm0, QWORD PTR ?tr@@3Uref_globals_t@@A+8
	addsd	xmm0, QWORD PTR __real@4014000000000000
	cvtsd2ss xmm0, xmm0
	mov	eax, DWORD PTR _this$[ebp]
	movss	DWORD PTR [eax+3520], xmm0

; 71   : 	
; 72   : 	return 1;

	mov	eax, 1

; 73   : }

	pop	edi
	pop	esi
	pop	ebx
	mov	esp, ebp
	pop	ebp
	ret	0
?VidInit@CHudAchievement@@UAEHXZ ENDP			; CHudAchievement::VidInit
_TEXT	ENDS
; Function compile flags: /Odtp /ZI
; File d:\!diffusion 2020\source code 2022\client-server\client\achievement.cpp
;	COMDAT ?Init@CHudAchievement@@UAEHXZ
_TEXT	SEGMENT
_this$ = -4						; size = 4
?Init@CHudAchievement@@UAEHXZ PROC			; CHudAchievement::Init, COMDAT
; _this$ = ecx

; 23   : {

	push	ebp
	mov	ebp, esp
	sub	esp, 68					; 00000044H
	push	ebx
	push	esi
	push	edi
	mov	DWORD PTR _this$[ebp], ecx

; 24   : 	HOOK_MESSAGE( StatusIconAchievement );

	push	OFFSET ?__MsgFunc_StatusIconAchievement@@YAHPBDHPAX@Z ; __MsgFunc_StatusIconAchievement
	push	OFFSET ??_C@_0BG@DIKIKBA@StatusIconAchievement?$AA@
	call	DWORD PTR ?gEngfuncs@@3Ucl_enginefuncs_s@@A+72
	add	esp, 8

; 25   : 	HOOK_COMMAND( "ach_refresh", RefreshAchievementFile );

	push	OFFSET ?__CmdFunc_RefreshAchievementFile@@YAXXZ ; __CmdFunc_RefreshAchievementFile
	push	OFFSET ??_C@_0M@MBPLJDN@ach_refresh?$AA@
	call	DWORD PTR ?gEngfuncs@@3Ucl_enginefuncs_s@@A+68
	add	esp, 8

; 26   : 	HOOK_COMMAND( "ach_reset", ResetAchievementFile );

	push	OFFSET ?__CmdFunc_ResetAchievementFile@@YAXXZ ; __CmdFunc_ResetAchievementFile
	push	OFFSET ??_C@_09PKNAIJEK@ach_reset?$AA@
	call	DWORD PTR ?gEngfuncs@@3Ucl_enginefuncs_s@@A+68
	add	esp, 8

; 27   : 	gHUD.AddHudElem( this );

	mov	eax, DWORD PTR _this$[ebp]
	push	eax
	mov	ecx, OFFSET ?gHUD@@3VCHud@@A		; gHUD
	call	?AddHudElem@CHud@@QAEXPAVCHudBase@@@Z	; CHud::AddHudElem

; 28   : 	m_iFlags &= ~HUD_ACTIVE;

	mov	eax, DWORD PTR _this$[ebp]
	mov	ecx, DWORD PTR [eax+4]
	and	ecx, -2					; fffffffeH
	mov	edx, DWORD PTR _this$[ebp]
	mov	DWORD PTR [edx+4], ecx

; 29   : 
; 30   : 	sprintf_s( AchievementName[ACH_BULLETSFIRED], "ach_firebullets" );

	push	OFFSET ??_C@_0BA@BKJGOEMJ@ach_firebullets?$AA@
	mov	eax, 100				; 00000064H
	imul	ecx, eax, 0
	mov	edx, DWORD PTR _this$[ebp]
	lea	eax, DWORD PTR [edx+ecx+320]
	push	eax
	call	??$sprintf_s@$0GE@@@YAHAAY0GE@DPBDZZ	; sprintf_s<100>
	add	esp, 8

; 31   : 	sprintf_s( AchievementName[ACH_JUMPS], "ach_jump" );

	push	OFFSET ??_C@_08KJFIHPIJ@ach_jump?$AA@
	mov	eax, 100				; 00000064H
	shl	eax, 0
	mov	ecx, DWORD PTR _this$[ebp]
	lea	edx, DWORD PTR [ecx+eax+320]
	push	edx
	call	??$sprintf_s@$0GE@@@YAHAAY0GE@DPBDZZ	; sprintf_s<100>
	add	esp, 8

; 32   : 	sprintf_s( AchievementName[ACH_AMMOCRATES], "ach_ammocrates" );

	push	OFFSET ??_C@_0P@NOFLKGAJ@ach_ammocrates?$AA@
	mov	eax, 100				; 00000064H
	shl	eax, 1
	mov	ecx, DWORD PTR _this$[ebp]
	lea	edx, DWORD PTR [ecx+eax+320]
	push	edx
	call	??$sprintf_s@$0GE@@@YAHAAY0GE@DPBDZZ	; sprintf_s<100>
	add	esp, 8

; 33   : 	sprintf_s( AchievementName[ACH_DISARMEDMINES], "ach_disarm" );

	push	OFFSET ??_C@_0L@LOIDOPIH@ach_disarm?$AA@
	mov	eax, 100				; 00000064H
	imul	ecx, eax, 3
	mov	edx, DWORD PTR _this$[ebp]
	lea	eax, DWORD PTR [edx+ecx+320]
	push	eax
	call	??$sprintf_s@$0GE@@@YAHAAY0GE@DPBDZZ	; sprintf_s<100>
	add	esp, 8

; 34   : 	sprintf_s( AchievementName[ACH_KILLENEMIES], "ach_killenemies" );

	push	OFFSET ??_C@_0BA@DDLMCNIN@ach_killenemies?$AA@
	mov	eax, 100				; 00000064H
	shl	eax, 2
	mov	ecx, DWORD PTR _this$[ebp]
	lea	edx, DWORD PTR [ecx+eax+320]
	push	edx
	call	??$sprintf_s@$0GE@@@YAHAAY0GE@DPBDZZ	; sprintf_s<100>
	add	esp, 8

; 35   : 	sprintf_s( AchievementName[ACH_INFLICTDAMAGE], "ach_inflictdamage" );

	push	OFFSET ??_C@_0BC@DMEBL@ach_inflictdamage?$AA@
	mov	eax, 100				; 00000064H
	imul	ecx, eax, 5
	mov	edx, DWORD PTR _this$[ebp]
	lea	eax, DWORD PTR [edx+ecx+320]
	push	eax
	call	??$sprintf_s@$0GE@@@YAHAAY0GE@DPBDZZ	; sprintf_s<100>
	add	esp, 8

; 36   : 	sprintf_s( AchievementName[ACH_KILLENEMIESSNIPER], "ach_killenemiessniper" );

	push	OFFSET ??_C@_0BG@KJIAEFNL@ach_killenemiessniper?$AA@
	mov	eax, 100				; 00000064H
	imul	ecx, eax, 6
	mov	edx, DWORD PTR _this$[ebp]
	lea	eax, DWORD PTR [edx+ecx+320]
	push	eax
	call	??$sprintf_s@$0GE@@@YAHAAY0GE@DPBDZZ	; sprintf_s<100>
	add	esp, 8

; 37   : 	sprintf_s( AchievementName[ACH_CH1], "ach_chapter1" );

	push	OFFSET ??_C@_0N@PKLBIKL@ach_chapter1?$AA@
	mov	eax, 100				; 00000064H
	imul	ecx, eax, 7
	mov	edx, DWORD PTR _this$[ebp]
	lea	eax, DWORD PTR [edx+ecx+320]
	push	eax
	call	??$sprintf_s@$0GE@@@YAHAAY0GE@DPBDZZ	; sprintf_s<100>
	add	esp, 8

; 38   : 	sprintf_s( AchievementName[ACH_CH2], "ach_chapter2" );

	push	OFFSET ??_C@_0N@CEIGELGI@ach_chapter2?$AA@
	mov	eax, 100				; 00000064H
	shl	eax, 3
	mov	ecx, DWORD PTR _this$[ebp]
	lea	edx, DWORD PTR [ecx+eax+320]
	push	edx
	call	??$sprintf_s@$0GE@@@YAHAAY0GE@DPBDZZ	; sprintf_s<100>
	add	esp, 8

; 39   : 	sprintf_s( AchievementName[ACH_CH3], "ach_chapter3" );

	push	OFFSET ??_C@_0N@DNJNHKCJ@ach_chapter3?$AA@
	mov	eax, 100				; 00000064H
	imul	ecx, eax, 9
	mov	edx, DWORD PTR _this$[ebp]
	lea	eax, DWORD PTR [edx+ecx+320]
	push	eax
	call	??$sprintf_s@$0GE@@@YAHAAY0GE@DPBDZZ	; sprintf_s<100>
	add	esp, 8

; 40   : 	sprintf_s( AchievementName[ACH_CH4], "ach_chapter4" );

	push	OFFSET ??_C@_0N@HCNMOMOO@ach_chapter4?$AA@
	mov	eax, 100				; 00000064H
	imul	ecx, eax, 10
	mov	edx, DWORD PTR _this$[ebp]
	lea	eax, DWORD PTR [edx+ecx+320]
	push	eax
	call	??$sprintf_s@$0GE@@@YAHAAY0GE@DPBDZZ	; sprintf_s<100>
	add	esp, 8

; 41   : 	sprintf_s( AchievementName[ACH_CH5], "ach_chapter5" );

	push	OFFSET ??_C@_0N@GLMHNNKP@ach_chapter5?$AA@
	mov	eax, 100				; 00000064H
	imul	ecx, eax, 11
	mov	edx, DWORD PTR _this$[ebp]
	lea	eax, DWORD PTR [edx+ecx+320]
	push	eax
	call	??$sprintf_s@$0GE@@@YAHAAY0GE@DPBDZZ	; sprintf_s<100>
	add	esp, 8

; 42   : 	sprintf_s( AchievementName[ACH_GENERAL30SEC], "ach_general30sec" );

	push	OFFSET ??_C@_0BB@MGEHGNO@ach_general30sec?$AA@
	mov	eax, 100				; 00000064H
	imul	ecx, eax, 12
	mov	edx, DWORD PTR _this$[ebp]
	lea	eax, DWORD PTR [edx+ecx+320]
	push	eax
	call	??$sprintf_s@$0GE@@@YAHAAY0GE@DPBDZZ	; sprintf_s<100>
	add	esp, 8

; 43   : 	sprintf_s( AchievementName[ACH_HPREGENERATE], "ach_hpregenerate" );

	push	OFFSET ??_C@_0BB@KHILGGPA@ach_hpregenerate?$AA@
	mov	eax, 100				; 00000064H
	imul	ecx, eax, 13
	mov	edx, DWORD PTR _this$[ebp]
	lea	eax, DWORD PTR [edx+ecx+320]
	push	eax
	call	??$sprintf_s@$0GE@@@YAHAAY0GE@DPBDZZ	; sprintf_s<100>
	add	esp, 8

; 44   : 	sprintf_s( AchievementName[ACH_RECEIVEDAMAGE], "ach_receivedamage" );

	push	OFFSET ??_C@_0BC@HLOIADCH@ach_receivedamage?$AA@
	mov	eax, 100				; 00000064H
	imul	ecx, eax, 14
	mov	edx, DWORD PTR _this$[ebp]
	lea	eax, DWORD PTR [edx+ecx+320]
	push	eax
	call	??$sprintf_s@$0GE@@@YAHAAY0GE@DPBDZZ	; sprintf_s<100>
	add	esp, 8

; 45   : 	sprintf_s( AchievementName[ACH_OVERCOOK], "ach_overcook" );

	push	OFFSET ??_C@_0N@NAPOGDLF@ach_overcook?$AA@
	mov	eax, 100				; 00000064H
	imul	ecx, eax, 15
	mov	edx, DWORD PTR _this$[ebp]
	lea	eax, DWORD PTR [edx+ecx+320]
	push	eax
	call	??$sprintf_s@$0GE@@@YAHAAY0GE@DPBDZZ	; sprintf_s<100>
	add	esp, 8

; 46   : 	sprintf_s( AchievementName[ACH_DRONESEC], "ach_dronesec" );

	push	OFFSET ??_C@_0N@FGEEHMGF@ach_dronesec?$AA@
	mov	eax, 100				; 00000064H
	shl	eax, 4
	mov	ecx, DWORD PTR _this$[ebp]
	lea	edx, DWORD PTR [ecx+eax+320]
	push	edx
	call	??$sprintf_s@$0GE@@@YAHAAY0GE@DPBDZZ	; sprintf_s<100>
	add	esp, 8

; 47   : 	sprintf_s( AchievementName[ACH_DRONEALIEN], "ach_dronealien" );

	push	OFFSET ??_C@_0P@NIOIJKNG@ach_dronealien?$AA@
	mov	eax, 100				; 00000064H
	imul	ecx, eax, 17
	mov	edx, DWORD PTR _this$[ebp]
	lea	eax, DWORD PTR [edx+ecx+320]
	push	eax
	call	??$sprintf_s@$0GE@@@YAHAAY0GE@DPBDZZ	; sprintf_s<100>
	add	esp, 8

; 48   : 	sprintf_s( AchievementName[ACH_CROSSBOW], "ach_crossbow" );

	push	OFFSET ??_C@_0N@KJFBAALC@ach_crossbow?$AA@
	mov	eax, 100				; 00000064H
	imul	ecx, eax, 18
	mov	edx, DWORD PTR _this$[ebp]
	lea	eax, DWORD PTR [edx+ecx+320]
	push	eax
	call	??$sprintf_s@$0GE@@@YAHAAY0GE@DPBDZZ	; sprintf_s<100>
	add	esp, 8

; 49   : 	sprintf_s( AchievementName[ACH_TANKBALL], "ach_tankball" );

	push	OFFSET ??_C@_0N@DOHDPGJP@ach_tankball?$AA@
	mov	eax, 100				; 00000064H
	imul	ecx, eax, 19
	mov	edx, DWORD PTR _this$[ebp]
	lea	eax, DWORD PTR [edx+ecx+320]
	push	eax
	call	??$sprintf_s@$0GE@@@YAHAAY0GE@DPBDZZ	; sprintf_s<100>
	add	esp, 8

; 50   : 	sprintf_s( AchievementName[ACH_DASH], "ach_dash" );

	push	OFFSET ??_C@_08FNLABHAD@ach_dash?$AA@
	mov	eax, 100				; 00000064H
	imul	ecx, eax, 20
	mov	edx, DWORD PTR _this$[ebp]
	lea	eax, DWORD PTR [edx+ecx+320]
	push	eax
	call	??$sprintf_s@$0GE@@@YAHAAY0GE@DPBDZZ	; sprintf_s<100>
	add	esp, 8

; 51   : 	sprintf_s( AchievementName[ACH_NOTES], "ach_notes" );

	push	OFFSET ??_C@_09BGOCPNHF@ach_notes?$AA@
	mov	eax, 100				; 00000064H
	imul	ecx, eax, 21
	mov	edx, DWORD PTR _this$[ebp]
	lea	eax, DWORD PTR [edx+ecx+320]
	push	eax
	call	??$sprintf_s@$0GE@@@YAHAAY0GE@DPBDZZ	; sprintf_s<100>
	add	esp, 8

; 52   : 	sprintf_s( AchievementName[ACH_SECRETS], "ach_secrets" );

	push	OFFSET ??_C@_0M@DMABPFAP@ach_secrets?$AA@
	mov	eax, 100				; 00000064H
	imul	ecx, eax, 22
	mov	edx, DWORD PTR _this$[ebp]
	lea	eax, DWORD PTR [edx+ecx+320]
	push	eax
	call	??$sprintf_s@$0GE@@@YAHAAY0GE@DPBDZZ	; sprintf_s<100>
	add	esp, 8

; 53   : 	sprintf_s( AchievementName[ACH_KILLENEMIESBALLS], "ach_killenemiesballs" );

	push	OFFSET ??_C@_0BF@PGEAMBOC@ach_killenemiesballs?$AA@
	mov	eax, 100				; 00000064H
	imul	ecx, eax, 23
	mov	edx, DWORD PTR _this$[ebp]
	lea	eax, DWORD PTR [edx+ecx+320]
	push	eax
	call	??$sprintf_s@$0GE@@@YAHAAY0GE@DPBDZZ	; sprintf_s<100>
	add	esp, 8

; 54   : 	sprintf_s( AchievementName[ACH_REDDWELLER], "ach_reddweller" );

	push	OFFSET ??_C@_0P@PCDFOOEE@ach_reddweller?$AA@
	mov	eax, 100				; 00000064H
	imul	ecx, eax, 24
	mov	edx, DWORD PTR _this$[ebp]
	lea	eax, DWORD PTR [edx+ecx+320]
	push	eax
	call	??$sprintf_s@$0GE@@@YAHAAY0GE@DPBDZZ	; sprintf_s<100>
	add	esp, 8

; 55   : 	sprintf_s( AchievementName[ACH_ASSEMBLEBLASTLEVEL], "ach_assembleblastlevel" );

	push	OFFSET ??_C@_0BH@MMDKGJKH@ach_assembleblastlevel?$AA@
	mov	eax, 100				; 00000064H
	imul	ecx, eax, 25
	mov	edx, DWORD PTR _this$[ebp]
	lea	eax, DWORD PTR [edx+ecx+320]
	push	eax
	call	??$sprintf_s@$0GE@@@YAHAAY0GE@DPBDZZ	; sprintf_s<100>
	add	esp, 8

; 56   : 	sprintf_s( AchievementName[ACH_BROKENCAR], "ach_brokencar" );

	push	OFFSET ??_C@_0O@MBDOENLO@ach_brokencar?$AA@
	mov	eax, 100				; 00000064H
	imul	ecx, eax, 26
	mov	edx, DWORD PTR _this$[ebp]
	lea	eax, DWORD PTR [edx+ecx+320]
	push	eax
	call	??$sprintf_s@$0GE@@@YAHAAY0GE@DPBDZZ	; sprintf_s<100>
	add	esp, 8

; 57   : 	sprintf_s( AchievementName[ACH_CARDISTANCE], "ach_cardistance" );

	push	OFFSET ??_C@_0BA@NENCIMNH@ach_cardistance?$AA@
	mov	eax, 100				; 00000064H
	imul	ecx, eax, 27
	mov	edx, DWORD PTR _this$[ebp]
	lea	eax, DWORD PTR [edx+ecx+320]
	push	eax
	call	??$sprintf_s@$0GE@@@YAHAAY0GE@DPBDZZ	; sprintf_s<100>
	add	esp, 8

; 58   : 	sprintf_s( AchievementName[ACH_WATERJETDISTANCE], "ach_waterjetdistance" );

	push	OFFSET ??_C@_0BF@PNMMBLCJ@ach_waterjetdistance?$AA@
	mov	eax, 100				; 00000064H
	imul	ecx, eax, 28
	mov	edx, DWORD PTR _this$[ebp]
	lea	eax, DWORD PTR [edx+ecx+320]
	push	eax
	call	??$sprintf_s@$0GE@@@YAHAAY0GE@DPBDZZ	; sprintf_s<100>
	add	esp, 8

; 59   : 	sprintf_s( AchievementName[ACH_KILLBOTS], "ach_killbots" );

	push	OFFSET ??_C@_0N@CLMFMKHO@ach_killbots?$AA@
	mov	eax, 100				; 00000064H
	imul	ecx, eax, 29
	mov	edx, DWORD PTR _this$[ebp]
	lea	eax, DWORD PTR [edx+ecx+320]
	push	eax
	call	??$sprintf_s@$0GE@@@YAHAAY0GE@DPBDZZ	; sprintf_s<100>
	add	esp, 8

; 60   : 	sprintf_s( AchievementName[ACH_CH3_NOKILLDW], "ach_dwellerch3" );

	push	OFFSET ??_C@_0P@FAGDKCHJ@ach_dwellerch3?$AA@
	mov	eax, 100				; 00000064H
	imul	ecx, eax, 30
	mov	edx, DWORD PTR _this$[ebp]
	lea	eax, DWORD PTR [edx+ecx+320]
	push	eax
	call	??$sprintf_s@$0GE@@@YAHAAY0GE@DPBDZZ	; sprintf_s<100>
	add	esp, 8

; 61   : 	sprintf_s( AchievementName[ACH_CH3_3MINS], "ach_ch3_3mins" );

	push	OFFSET ??_C@_0O@KJDKIOIF@ach_ch3_3mins?$AA@
	mov	eax, 100				; 00000064H
	imul	ecx, eax, 31
	mov	edx, DWORD PTR _this$[ebp]
	lea	eax, DWORD PTR [edx+ecx+320]
	push	eax
	call	??$sprintf_s@$0GE@@@YAHAAY0GE@DPBDZZ	; sprintf_s<100>
	add	esp, 8

; 62   : 
; 63   : 	return 1;

	mov	eax, 1

; 64   : }

	pop	edi
	pop	esi
	pop	ebx
	mov	esp, ebp
	pop	ebp
	ret	0
?Init@CHudAchievement@@UAEHXZ ENDP			; CHudAchievement::Init
_TEXT	ENDS
; Function compile flags: /Odtp /ZI
; File d:\!diffusion 2020\source code 2022\client-server\client\enginecallback.h
;	COMDAT ?PlaySoundA@@YAXPADM@Z
_TEXT	SEGMENT
_szSound$ = 8						; size = 4
_vol$ = 12						; size = 4
?PlaySoundA@@YAXPADM@Z PROC				; PlaySoundA, COMDAT

; 75   : inline void PlaySound( char *szSound, float vol ) { gEngfuncs.pfnPlaySoundByName( szSound, vol ); }

	push	ebp
	mov	ebp, esp
	sub	esp, 64					; 00000040H
	push	ebx
	push	esi
	push	edi
	push	ecx
	movss	xmm0, DWORD PTR _vol$[ebp]
	movss	DWORD PTR [esp], xmm0
	mov	eax, DWORD PTR _szSound$[ebp]
	push	eax
	call	DWORD PTR ?gEngfuncs@@3Ucl_enginefuncs_s@@A+88
	add	esp, 8
	pop	edi
	pop	esi
	pop	ebx
	mov	esp, ebp
	pop	ebp
	ret	0
?PlaySoundA@@YAXPADM@Z ENDP				; PlaySoundA
_TEXT	ENDS
; Function compile flags: /Odtp /ZI
; File c:\program files (x86)\windows kits\10\include\10.0.10240.0\ucrt\stdio.h
;	COMDAT _vsprintf_s
_TEXT	SEGMENT
__Buffer$ = 8						; size = 4
__BufferCount$ = 12					; size = 4
__Format$ = 16						; size = 4
__ArgList$ = 20						; size = 4
_vsprintf_s PROC					; COMDAT

; 1515 :     {

	push	ebp
	mov	ebp, esp
	sub	esp, 64					; 00000040H
	push	ebx
	push	esi
	push	edi

; 1516 :         return _vsprintf_s_l(_Buffer, _BufferCount, _Format, NULL, _ArgList);

	mov	eax, DWORD PTR __ArgList$[ebp]
	push	eax
	push	0
	mov	ecx, DWORD PTR __Format$[ebp]
	push	ecx
	mov	edx, DWORD PTR __BufferCount$[ebp]
	push	edx
	mov	eax, DWORD PTR __Buffer$[ebp]
	push	eax
	call	__vsprintf_s_l
	add	esp, 20					; 00000014H

; 1517 :     }

	pop	edi
	pop	esi
	pop	ebx
	mov	esp, ebp
	pop	ebp
	ret	0
_vsprintf_s ENDP
_TEXT	ENDS
; Function compile flags: /Odtp /ZI
; File c:\program files (x86)\windows kits\10\include\10.0.10240.0\ucrt\stdio.h
;	COMDAT __vsprintf_s_l
_TEXT	SEGMENT
tv73 = -72						; size = 4
__Result$ = -4						; size = 4
__Buffer$ = 8						; size = 4
__BufferCount$ = 12					; size = 4
__Format$ = 16						; size = 4
__Locale$ = 20						; size = 4
__ArgList$ = 24						; size = 4
__vsprintf_s_l PROC					; COMDAT

; 1493 : {

	push	ebp
	mov	ebp, esp
	sub	esp, 72					; 00000048H
	push	ebx
	push	esi
	push	edi

; 1494 :     int const _Result = __stdio_common_vsprintf_s(

	mov	eax, DWORD PTR __ArgList$[ebp]
	push	eax
	mov	ecx, DWORD PTR __Locale$[ebp]
	push	ecx
	mov	edx, DWORD PTR __Format$[ebp]
	push	edx
	mov	eax, DWORD PTR __BufferCount$[ebp]
	push	eax
	mov	ecx, DWORD PTR __Buffer$[ebp]
	push	ecx
	call	___local_stdio_printf_options
	mov	edx, DWORD PTR [eax+4]
	push	edx
	mov	eax, DWORD PTR [eax]
	push	eax
	call	___stdio_common_vsprintf_s
	add	esp, 28					; 0000001cH
	mov	DWORD PTR __Result$[ebp], eax

; 1495 :         _CRT_INTERNAL_LOCAL_PRINTF_OPTIONS,
; 1496 :         _Buffer, _BufferCount, _Format, _Locale, _ArgList);
; 1497 : 
; 1498 :     return _Result < 0 ? -1 : _Result;

	cmp	DWORD PTR __Result$[ebp], 0
	jge	SHORT $LN3@vsprintf_s
	mov	DWORD PTR tv73[ebp], -1
	jmp	SHORT $LN4@vsprintf_s
$LN3@vsprintf_s:
	mov	eax, DWORD PTR __Result$[ebp]
	mov	DWORD PTR tv73[ebp], eax
$LN4@vsprintf_s:
	mov	eax, DWORD PTR tv73[ebp]

; 1499 : }

	pop	edi
	pop	esi
	pop	ebx
	mov	esp, ebp
	pop	ebp
	ret	0
__vsprintf_s_l ENDP
_TEXT	ENDS
; Function compile flags: /Odtp /ZI
; File c:\program files (x86)\microsoft visual studio 14.0\vc\include\vadefs.h
;	COMDAT ??$__vcrt_va_start_verify_argument_type@QBD@@YAXXZ
_TEXT	SEGMENT
??$__vcrt_va_start_verify_argument_type@QBD@@YAXXZ PROC	; __vcrt_va_start_verify_argument_type<char const * const>, COMDAT

; 144  :         {

	push	ebp
	mov	ebp, esp
	sub	esp, 64					; 00000040H
	push	ebx
	push	esi
	push	edi

; 145  :             static_assert(!__vcrt_va_list_is_reference<_Ty>::__the_value, "va_start argument must not have reference type and must not be parenthesized");
; 146  :         }

	pop	edi
	pop	esi
	pop	ebx
	mov	esp, ebp
	pop	ebp
	ret	0
??$__vcrt_va_start_verify_argument_type@QBD@@YAXXZ ENDP	; __vcrt_va_start_verify_argument_type<char const * const>
_TEXT	ENDS
; Function compile flags: /Odtp /ZI
; File c:\program files (x86)\windows kits\10\include\10.0.10240.0\ucrt\stdio.h
;	COMDAT _fprintf
_TEXT	SEGMENT
__ArgList$ = -8						; size = 4
__Result$ = -4						; size = 4
__Stream$ = 8						; size = 4
__Format$ = 12						; size = 4
_fprintf PROC						; COMDAT

; 831  : {

	push	ebp
	mov	ebp, esp
	sub	esp, 72					; 00000048H
	push	ebx
	push	esi
	push	edi

; 832  :     int _Result;
; 833  :     va_list _ArgList;
; 834  :     __crt_va_start(_ArgList, _Format);

	call	??$__vcrt_va_start_verify_argument_type@QBD@@YAXXZ ; __vcrt_va_start_verify_argument_type<char const * const>
	lea	eax, DWORD PTR __Format$[ebp+4]
	mov	DWORD PTR __ArgList$[ebp], eax

; 835  :     _Result = _vfprintf_l(_Stream, _Format, NULL, _ArgList);

	mov	eax, DWORD PTR __ArgList$[ebp]
	push	eax
	push	0
	mov	ecx, DWORD PTR __Format$[ebp]
	push	ecx
	mov	edx, DWORD PTR __Stream$[ebp]
	push	edx
	call	__vfprintf_l
	add	esp, 16					; 00000010H
	mov	DWORD PTR __Result$[ebp], eax

; 836  :     __crt_va_end(_ArgList);

	mov	DWORD PTR __ArgList$[ebp], 0

; 837  :     return _Result;

	mov	eax, DWORD PTR __Result$[ebp]

; 838  : }

	pop	edi
	pop	esi
	pop	ebx
	mov	esp, ebp
	pop	ebp
	ret	0
_fprintf ENDP
_TEXT	ENDS
; Function compile flags: /Odtp /ZI
; File c:\program files (x86)\windows kits\10\include\10.0.10240.0\ucrt\stdio.h
;	COMDAT __vfprintf_l
_TEXT	SEGMENT
__Stream$ = 8						; size = 4
__Format$ = 12						; size = 4
__Locale$ = 16						; size = 4
__ArgList$ = 20						; size = 4
__vfprintf_l PROC					; COMDAT

; 638  : {

	push	ebp
	mov	ebp, esp
	sub	esp, 64					; 00000040H
	push	ebx
	push	esi
	push	edi

; 639  :     return __stdio_common_vfprintf(_CRT_INTERNAL_LOCAL_PRINTF_OPTIONS, _Stream, _Format, _Locale, _ArgList);

	mov	eax, DWORD PTR __ArgList$[ebp]
	push	eax
	mov	ecx, DWORD PTR __Locale$[ebp]
	push	ecx
	mov	edx, DWORD PTR __Format$[ebp]
	push	edx
	mov	eax, DWORD PTR __Stream$[ebp]
	push	eax
	call	___local_stdio_printf_options
	mov	ecx, DWORD PTR [eax+4]
	push	ecx
	mov	edx, DWORD PTR [eax]
	push	edx
	call	___stdio_common_vfprintf
	add	esp, 24					; 00000018H

; 640  : }

	pop	edi
	pop	esi
	pop	ebx
	mov	esp, ebp
	pop	ebp
	ret	0
__vfprintf_l ENDP
_TEXT	ENDS
; Function compile flags: /Odtp /ZI
; File c:\program files (x86)\windows kits\10\include\10.0.10240.0\ucrt\corecrt_stdio_config.h
;	COMDAT ___local_stdio_printf_options
_TEXT	SEGMENT
___local_stdio_printf_options PROC			; COMDAT

; 73   : {

	push	ebp
	mov	ebp, esp
	sub	esp, 64					; 00000040H
	push	ebx
	push	esi
	push	edi

; 74   :     static unsigned __int64 _OptionsStorage;
; 75   :     return &_OptionsStorage;

	mov	eax, OFFSET ?_OptionsStorage@?1??__local_stdio_printf_options@@9@4_KA ; `__local_stdio_printf_options'::`2'::_OptionsStorage

; 76   : }

	pop	edi
	pop	esi
	pop	ebx
	mov	esp, ebp
	pop	ebp
	ret	0
___local_stdio_printf_options ENDP
_TEXT	ENDS
; Function compile flags: /Odtp /ZI
;	COMDAT ??__G@YGXPAX0IIP6EPAX00@Z@Z
_TEXT	SEGMENT
tv66 = -68						; size = 4
___t$ = 8						; size = 4
___u$ = 12						; size = 4
___s$ = 16						; size = 4
___n$ = 20						; size = 4
___f$ = 24						; size = 4
??__G@YGXPAX0IIP6EPAX00@Z@Z PROC			; `vector copy constructor iterator', COMDAT
	push	ebp
	mov	ebp, esp
	sub	esp, 68					; 00000044H
	push	ebx
	push	esi
	push	edi
$LN2@vector:
	mov	eax, DWORD PTR ___n$[ebp]
	mov	DWORD PTR tv66[ebp], eax
	mov	ecx, DWORD PTR ___n$[ebp]
	sub	ecx, 1
	mov	DWORD PTR ___n$[ebp], ecx
	cmp	DWORD PTR tv66[ebp], 0
	jbe	SHORT $LN1@vector
	mov	eax, DWORD PTR ___u$[ebp]
	push	eax
	mov	ecx, DWORD PTR ___t$[ebp]
	call	DWORD PTR ___f$[ebp]
	mov	eax, DWORD PTR ___t$[ebp]
	add	eax, DWORD PTR ___s$[ebp]
	mov	DWORD PTR ___t$[ebp], eax
	mov	eax, DWORD PTR ___u$[ebp]
	add	eax, DWORD PTR ___s$[ebp]
	mov	DWORD PTR ___u$[ebp], eax
	jmp	SHORT $LN2@vector
$LN1@vector:
	pop	edi
	pop	esi
	pop	ebx
	mov	esp, ebp
	pop	ebp
	ret	20					; 00000014H
??__G@YGXPAX0IIP6EPAX00@Z@Z ENDP			; `vector copy constructor iterator'
_TEXT	ENDS
; Function compile flags: /Odtp /ZI
;	COMDAT ??_H@YGXPAXIIP6EPAX0@Z@Z
_TEXT	SEGMENT
tv66 = -68						; size = 4
___t$ = 8						; size = 4
___s$ = 12						; size = 4
___n$ = 16						; size = 4
___f$ = 20						; size = 4
??_H@YGXPAXIIP6EPAX0@Z@Z PROC				; `vector constructor iterator', COMDAT
	push	ebp
	mov	ebp, esp
	sub	esp, 68					; 00000044H
	push	ebx
	push	esi
	push	edi
$LN2@vector:
	mov	eax, DWORD PTR ___n$[ebp]
	mov	DWORD PTR tv66[ebp], eax
	mov	ecx, DWORD PTR ___n$[ebp]
	sub	ecx, 1
	mov	DWORD PTR ___n$[ebp], ecx
	cmp	DWORD PTR tv66[ebp], 0
	jbe	SHORT $LN1@vector
	mov	ecx, DWORD PTR ___t$[ebp]
	call	DWORD PTR ___f$[ebp]
	mov	eax, DWORD PTR ___t$[ebp]
	add	eax, DWORD PTR ___s$[ebp]
	mov	DWORD PTR ___t$[ebp], eax
	jmp	SHORT $LN2@vector
$LN1@vector:
	pop	edi
	pop	esi
	pop	ebx
	mov	esp, ebp
	pop	ebp
	ret	16					; 00000010H
??_H@YGXPAXIIP6EPAX0@Z@Z ENDP				; `vector constructor iterator'
_TEXT	ENDS
END
