; Listing generated by Microsoft (R) Optimizing Compiler Version 19.00.24247.2 

	TITLE	D:\!DIFFUSION 2020\source code 2022\client-server\client\ammo_secondary.cpp
	.686P
	.XMM
	include listing.inc
	.model	flat

INCLUDELIB LIBCMT
INCLUDELIB OLDNAMES

PUBLIC	??_H@YGXPAXIIP6EPAX0@Z@Z			; `vector constructor iterator'
PUBLIC	??__G@YGXPAX0IIP6EPAX00@Z@Z			; `vector copy constructor iterator'
PUBLIC	?Init@CHudAmmoSecondary@@UAEHXZ			; CHudAmmoSecondary::Init
PUBLIC	?VidInit@CHudAmmoSecondary@@UAEHXZ		; CHudAmmoSecondary::VidInit
PUBLIC	?Reset@CHudAmmoSecondary@@UAEXXZ		; CHudAmmoSecondary::Reset
PUBLIC	?Draw@CHudAmmoSecondary@@UAEHM@Z		; CHudAmmoSecondary::Draw
PUBLIC	?MsgFunc_SecAmmoVal@CHudAmmoSecondary@@QAEHPBDHPAX@Z ; CHudAmmoSecondary::MsgFunc_SecAmmoVal
PUBLIC	?MsgFunc_SecAmmoIcon@CHudAmmoSecondary@@QAEHPBDHPAX@Z ; CHudAmmoSecondary::MsgFunc_SecAmmoIcon
PUBLIC	?GetSprite@CHud@@QAEHH@Z			; CHud::GetSprite
PUBLIC	?GetSpriteRect@CHud@@QAEAAUwrect_s@@H@Z		; CHud::GetSpriteRect
PUBLIC	?UnpackRGB@@YAXAAH00K@Z				; UnpackRGB
PUBLIC	?__MsgFunc_SecAmmoVal@@YAHPBDHPAX@Z		; __MsgFunc_SecAmmoVal
PUBLIC	?__MsgFunc_SecAmmoIcon@@YAHPBDHPAX@Z		; __MsgFunc_SecAmmoIcon
PUBLIC	??_C@_0L@OJGBEBOP@SecAmmoVal?$AA@		; `string'
PUBLIC	??_C@_0M@IBNNKOAA@SecAmmoIcon?$AA@		; `string'
PUBLIC	__real@00000000
PUBLIC	__real@4034000000000000
PUBLIC	__real@42c80000
PUBLIC	__real@43480000
EXTRN	?DrawHudNumber@CHud@@QAEHHHHHHHH@Z:PROC		; CHud::DrawHudNumber
EXTRN	?GetNumWidth@CHud@@QAEHHH@Z:PROC		; CHud::GetNumWidth
EXTRN	?GetSpriteIndex@CHud@@QAEHPBD@Z:PROC		; CHud::GetSpriteIndex
EXTRN	?AddHudElem@CHud@@QAEXPAVCHudBase@@@Z:PROC	; CHud::AddHudElem
EXTRN	?ScaleColors@@YAXAAH00H@Z:PROC			; ScaleColors
EXTRN	?BEGIN_READ@@YAXPBDPAXH@Z:PROC			; BEGIN_READ
EXTRN	?END_READ@@YAXXZ:PROC				; END_READ
EXTRN	?READ_BYTE@@YAHXZ:PROC				; READ_BYTE
EXTRN	?READ_STRING@@YAPADXZ:PROC			; READ_STRING
EXTRN	?gEngfuncs@@3Ucl_enginefuncs_s@@A:BYTE		; gEngfuncs
EXTRN	?gHUD@@3VCHud@@A:BYTE				; gHUD
EXTRN	?tr@@3Uref_globals_t@@A:BYTE			; tr
EXTRN	__fltused:DWORD
;	COMDAT __real@43480000
CONST	SEGMENT
__real@43480000 DD 043480000r			; 200
CONST	ENDS
;	COMDAT __real@42c80000
CONST	SEGMENT
__real@42c80000 DD 042c80000r			; 100
CONST	ENDS
;	COMDAT __real@4034000000000000
CONST	SEGMENT
__real@4034000000000000 DQ 04034000000000000r	; 20
CONST	ENDS
;	COMDAT __real@00000000
CONST	SEGMENT
__real@00000000 DD 000000000r			; 0
CONST	ENDS
;	COMDAT ??_C@_0M@IBNNKOAA@SecAmmoIcon?$AA@
CONST	SEGMENT
??_C@_0M@IBNNKOAA@SecAmmoIcon?$AA@ DB 'SecAmmoIcon', 00H ; `string'
CONST	ENDS
;	COMDAT ??_C@_0L@OJGBEBOP@SecAmmoVal?$AA@
CONST	SEGMENT
??_C@_0L@OJGBEBOP@SecAmmoVal?$AA@ DB 'SecAmmoVal', 00H	; `string'
CONST	ENDS
; Function compile flags: /Odtp /ZI
; File d:\!diffusion 2020\source code 2022\client-server\client\ammo_secondary.cpp
;	COMDAT ?__MsgFunc_SecAmmoIcon@@YAHPBDHPAX@Z
_TEXT	SEGMENT
_pszName$ = 8						; size = 4
_iSize$ = 12						; size = 4
_pbuf$ = 16						; size = 4
?__MsgFunc_SecAmmoIcon@@YAHPBDHPAX@Z PROC		; __MsgFunc_SecAmmoIcon, COMDAT

; 27   : DECLARE_MESSAGE( m_AmmoSecondary, SecAmmoIcon );

	push	ebp
	mov	ebp, esp
	sub	esp, 64					; 00000040H
	push	ebx
	push	esi
	push	edi
	mov	eax, DWORD PTR _pbuf$[ebp]
	push	eax
	mov	ecx, DWORD PTR _iSize$[ebp]
	push	ecx
	mov	edx, DWORD PTR _pszName$[ebp]
	push	edx
	mov	ecx, OFFSET ?gHUD@@3VCHud@@A+1424
	call	?MsgFunc_SecAmmoIcon@CHudAmmoSecondary@@QAEHPBDHPAX@Z ; CHudAmmoSecondary::MsgFunc_SecAmmoIcon
	pop	edi
	pop	esi
	pop	ebx
	mov	esp, ebp
	pop	ebp
	ret	0
?__MsgFunc_SecAmmoIcon@@YAHPBDHPAX@Z ENDP		; __MsgFunc_SecAmmoIcon
_TEXT	ENDS
; Function compile flags: /Odtp /ZI
; File d:\!diffusion 2020\source code 2022\client-server\client\ammo_secondary.cpp
;	COMDAT ?__MsgFunc_SecAmmoVal@@YAHPBDHPAX@Z
_TEXT	SEGMENT
_pszName$ = 8						; size = 4
_iSize$ = 12						; size = 4
_pbuf$ = 16						; size = 4
?__MsgFunc_SecAmmoVal@@YAHPBDHPAX@Z PROC		; __MsgFunc_SecAmmoVal, COMDAT

; 26   : DECLARE_MESSAGE( m_AmmoSecondary, SecAmmoVal );

	push	ebp
	mov	ebp, esp
	sub	esp, 64					; 00000040H
	push	ebx
	push	esi
	push	edi
	mov	eax, DWORD PTR _pbuf$[ebp]
	push	eax
	mov	ecx, DWORD PTR _iSize$[ebp]
	push	ecx
	mov	edx, DWORD PTR _pszName$[ebp]
	push	edx
	mov	ecx, OFFSET ?gHUD@@3VCHud@@A+1424
	call	?MsgFunc_SecAmmoVal@CHudAmmoSecondary@@QAEHPBDHPAX@Z ; CHudAmmoSecondary::MsgFunc_SecAmmoVal
	pop	edi
	pop	esi
	pop	ebx
	mov	esp, ebp
	pop	ebp
	ret	0
?__MsgFunc_SecAmmoVal@@YAHPBDHPAX@Z ENDP		; __MsgFunc_SecAmmoVal
_TEXT	ENDS
; Function compile flags: /Odtp /ZI
; File d:\!diffusion 2020\source code 2022\client-server\client\utils.h
;	COMDAT ?UnpackRGB@@YAXAAH00K@Z
_TEXT	SEGMENT
_r$ = 8							; size = 4
_g$ = 12						; size = 4
_b$ = 16						; size = 4
_ulRGB$ = 20						; size = 4
?UnpackRGB@@YAXAAH00K@Z PROC				; UnpackRGB, COMDAT

; 98   : {\

	push	ebp
	mov	ebp, esp
	sub	esp, 64					; 00000040H
	push	ebx
	push	esi
	push	edi

; 99   : 	r = (ulRGB & 0xFF0000) >>16;\

	mov	eax, DWORD PTR _ulRGB$[ebp]
	and	eax, 16711680				; 00ff0000H
	shr	eax, 16					; 00000010H
	mov	ecx, DWORD PTR _r$[ebp]
	mov	DWORD PTR [ecx], eax

; 100  : 	g = (ulRGB & 0xFF00) >> 8;\

	mov	eax, DWORD PTR _ulRGB$[ebp]
	and	eax, 65280				; 0000ff00H
	shr	eax, 8
	mov	ecx, DWORD PTR _g$[ebp]
	mov	DWORD PTR [ecx], eax

; 101  : 	b = ulRGB & 0xFF;\

	mov	eax, DWORD PTR _ulRGB$[ebp]
	and	eax, 255				; 000000ffH
	mov	ecx, DWORD PTR _b$[ebp]
	mov	DWORD PTR [ecx], eax

; 102  : }

	pop	edi
	pop	esi
	pop	ebx
	mov	esp, ebp
	pop	ebp
	ret	0
?UnpackRGB@@YAXAAH00K@Z ENDP				; UnpackRGB
_TEXT	ENDS
; Function compile flags: /Odtp /ZI
; File d:\!diffusion 2020\source code 2022\client-server\client\hud.h
;	COMDAT ?GetSpriteRect@CHud@@QAEAAUwrect_s@@H@Z
_TEXT	SEGMENT
_this$ = -4						; size = 4
_index$ = 8						; size = 4
?GetSpriteRect@CHud@@QAEAAUwrect_s@@H@Z PROC		; CHud::GetSpriteRect, COMDAT
; _this$ = ecx

; 952  : 	wrect_t& GetSpriteRect( int index ) { return m_rgrcRects[index]; }

	push	ebp
	mov	ebp, esp
	sub	esp, 68					; 00000044H
	push	ebx
	push	esi
	push	edi
	mov	DWORD PTR _this$[ebp], ecx
	mov	eax, DWORD PTR _index$[ebp]
	shl	eax, 4
	mov	ecx, DWORD PTR _this$[ebp]
	add	eax, DWORD PTR [ecx+232]
	pop	edi
	pop	esi
	pop	ebx
	mov	esp, ebp
	pop	ebp
	ret	4
?GetSpriteRect@CHud@@QAEAAUwrect_s@@H@Z ENDP		; CHud::GetSpriteRect
_TEXT	ENDS
; Function compile flags: /Odtp /ZI
; File d:\!diffusion 2020\source code 2022\client-server\client\hud.h
;	COMDAT ?GetSprite@CHud@@QAEHH@Z
_TEXT	SEGMENT
tv68 = -72						; size = 4
_this$ = -4						; size = 4
_index$ = 8						; size = 4
?GetSprite@CHud@@QAEHH@Z PROC				; CHud::GetSprite, COMDAT
; _this$ = ecx

; 951  : 	SpriteHandle GetSprite( int index ) { return (index < 0) ? 0 : m_rghSprites[index]; }

	push	ebp
	mov	ebp, esp
	sub	esp, 72					; 00000048H
	push	ebx
	push	esi
	push	edi
	mov	DWORD PTR _this$[ebp], ecx
	cmp	DWORD PTR _index$[ebp], 0
	jge	SHORT $LN3@GetSprite
	mov	DWORD PTR tv68[ebp], 0
	jmp	SHORT $LN4@GetSprite
$LN3@GetSprite:
	mov	eax, DWORD PTR _this$[ebp]
	mov	ecx, DWORD PTR [eax+228]
	mov	edx, DWORD PTR _index$[ebp]
	mov	eax, DWORD PTR [ecx+edx*4]
	mov	DWORD PTR tv68[ebp], eax
$LN4@GetSprite:
	mov	eax, DWORD PTR tv68[ebp]
	pop	edi
	pop	esi
	pop	ebx
	mov	esp, ebp
	pop	ebp
	ret	4
?GetSprite@CHud@@QAEHH@Z ENDP				; CHud::GetSprite
_TEXT	ENDS
; Function compile flags: /Odtp /ZI
; File d:\!diffusion 2020\source code 2022\client-server\client\ammo_secondary.cpp
;	COMDAT ?MsgFunc_SecAmmoIcon@CHudAmmoSecondary@@QAEHPBDHPAX@Z
_TEXT	SEGMENT
_this$ = -4						; size = 4
_pszName$ = 8						; size = 4
_iSize$ = 12						; size = 4
_pbuf$ = 16						; size = 4
?MsgFunc_SecAmmoIcon@CHudAmmoSecondary@@QAEHPBDHPAX@Z PROC ; CHudAmmoSecondary::MsgFunc_SecAmmoIcon, COMDAT
; _this$ = ecx

; 123  : {

	push	ebp
	mov	ebp, esp
	sub	esp, 68					; 00000044H
	push	ebx
	push	esi
	push	edi
	mov	DWORD PTR _this$[ebp], ecx

; 124  : 	BEGIN_READ( pszName, pbuf, iSize );

	mov	eax, DWORD PTR _iSize$[ebp]
	push	eax
	mov	ecx, DWORD PTR _pbuf$[ebp]
	push	ecx
	mov	edx, DWORD PTR _pszName$[ebp]
	push	edx
	call	?BEGIN_READ@@YAXPBDPAXH@Z		; BEGIN_READ
	add	esp, 12					; 0000000cH

; 125  : 
; 126  : 	m_HUD_ammoicon = gHUD.GetSpriteIndex( READ_STRING() );

	call	?READ_STRING@@YAPADXZ			; READ_STRING
	push	eax
	mov	ecx, OFFSET ?gHUD@@3VCHud@@A		; gHUD
	call	?GetSpriteIndex@CHud@@QAEHPBD@Z		; CHud::GetSpriteIndex
	mov	ecx, DWORD PTR _this$[ebp]
	mov	DWORD PTR [ecx+8], eax

; 127  : 
; 128  : 	END_READ();

	call	?END_READ@@YAXXZ			; END_READ

; 129  : 
; 130  : 	return 1;

	mov	eax, 1

; 131  : }

	pop	edi
	pop	esi
	pop	ebx
	mov	esp, ebp
	pop	ebp
	ret	12					; 0000000cH
?MsgFunc_SecAmmoIcon@CHudAmmoSecondary@@QAEHPBDHPAX@Z ENDP ; CHudAmmoSecondary::MsgFunc_SecAmmoIcon
_TEXT	ENDS
; Function compile flags: /Odtp /ZI
; File d:\!diffusion 2020\source code 2022\client-server\client\ammo_secondary.cpp
;	COMDAT ?MsgFunc_SecAmmoVal@CHudAmmoSecondary@@QAEHPBDHPAX@Z
_TEXT	SEGMENT
tv90 = -84						; size = 4
_i$1 = -16						; size = 4
_count$ = -12						; size = 4
_index$ = -8						; size = 4
_this$ = -4						; size = 4
_pszName$ = 8						; size = 4
_iSize$ = 12						; size = 4
_pbuf$ = 16						; size = 4
?MsgFunc_SecAmmoVal@CHudAmmoSecondary@@QAEHPBDHPAX@Z PROC ; CHudAmmoSecondary::MsgFunc_SecAmmoVal, COMDAT
; _this$ = ecx

; 139  : {

	push	ebp
	mov	ebp, esp
	sub	esp, 84					; 00000054H
	push	ebx
	push	esi
	push	edi
	mov	DWORD PTR _this$[ebp], ecx

; 140  : 	BEGIN_READ( pszName, pbuf, iSize );

	mov	eax, DWORD PTR _iSize$[ebp]
	push	eax
	mov	ecx, DWORD PTR _pbuf$[ebp]
	push	ecx
	mov	edx, DWORD PTR _pszName$[ebp]
	push	edx
	call	?BEGIN_READ@@YAXPBDPAXH@Z		; BEGIN_READ
	add	esp, 12					; 0000000cH

; 141  : 
; 142  : 	int index = READ_BYTE();

	call	?READ_BYTE@@YAHXZ			; READ_BYTE
	mov	DWORD PTR _index$[ebp], eax

; 143  : 
; 144  : 	if( index < 0 || index >= MAX_SEC_AMMO_VALUES )

	cmp	DWORD PTR _index$[ebp], 0
	jl	SHORT $LN6@MsgFunc_Se
	cmp	DWORD PTR _index$[ebp], 4
	jl	SHORT $LN5@MsgFunc_Se
$LN6@MsgFunc_Se:

; 145  : 		return 1;

	mov	eax, 1
	jmp	$LN1@MsgFunc_Se
$LN5@MsgFunc_Se:

; 146  : 
; 147  : 	m_iAmmoAmounts[index] = READ_BYTE();

	call	?READ_BYTE@@YAHXZ			; READ_BYTE
	mov	ecx, DWORD PTR _index$[ebp]
	mov	edx, DWORD PTR _this$[ebp]
	mov	DWORD PTR [edx+ecx*4+12], eax

; 148  : 	m_iFlags |= HUD_ACTIVE;

	mov	eax, DWORD PTR _this$[ebp]
	mov	ecx, DWORD PTR [eax+4]
	or	ecx, 1
	mov	edx, DWORD PTR _this$[ebp]
	mov	DWORD PTR [edx+4], ecx

; 149  : 
; 150  : 	// check to see if there is anything left to draw
; 151  : 	int count = 0;

	mov	DWORD PTR _count$[ebp], 0

; 152  : 
; 153  : 	for( int i = 0; i < MAX_SEC_AMMO_VALUES; i++ )

	mov	DWORD PTR _i$1[ebp], 0
	jmp	SHORT $LN4@MsgFunc_Se
$LN2@MsgFunc_Se:
	mov	eax, DWORD PTR _i$1[ebp]
	add	eax, 1
	mov	DWORD PTR _i$1[ebp], eax
$LN4@MsgFunc_Se:
	cmp	DWORD PTR _i$1[ebp], 4
	jge	SHORT $LN3@MsgFunc_Se

; 154  : 		count += max( 0, m_iAmmoAmounts[i] );

	mov	eax, DWORD PTR _i$1[ebp]
	mov	ecx, DWORD PTR _this$[ebp]
	cmp	DWORD PTR [ecx+eax*4+12], 0
	jge	SHORT $LN9@MsgFunc_Se
	mov	DWORD PTR tv90[ebp], 0
	jmp	SHORT $LN10@MsgFunc_Se
$LN9@MsgFunc_Se:
	mov	edx, DWORD PTR _i$1[ebp]
	mov	eax, DWORD PTR _this$[ebp]
	mov	ecx, DWORD PTR [eax+edx*4+12]
	mov	DWORD PTR tv90[ebp], ecx
$LN10@MsgFunc_Se:
	mov	edx, DWORD PTR _count$[ebp]
	add	edx, DWORD PTR tv90[ebp]
	mov	DWORD PTR _count$[ebp], edx
	jmp	SHORT $LN2@MsgFunc_Se
$LN3@MsgFunc_Se:

; 155  : 
; 156  : 	if( count == 0 ) 

	cmp	DWORD PTR _count$[ebp], 0
	jne	SHORT $LN7@MsgFunc_Se

; 157  : 	{
; 158  : 		// the ammo fields are all empty, so turn off this hud area
; 159  : 		m_iFlags &= ~HUD_ACTIVE;

	mov	eax, DWORD PTR _this$[ebp]
	mov	ecx, DWORD PTR [eax+4]
	and	ecx, -2					; fffffffeH
	mov	edx, DWORD PTR _this$[ebp]
	mov	DWORD PTR [edx+4], ecx

; 160  : 		return 1;

	mov	eax, 1
	jmp	SHORT $LN1@MsgFunc_Se
$LN7@MsgFunc_Se:

; 161  : 	}
; 162  : 
; 163  : 	// make the icons light up
; 164  : 	m_fFade = 200.0f;

	mov	eax, DWORD PTR _this$[ebp]
	movss	xmm0, DWORD PTR __real@43480000
	movss	DWORD PTR [eax+28], xmm0

; 165  : 
; 166  : 	END_READ();

	call	?END_READ@@YAXXZ			; END_READ

; 167  : 
; 168  : 	return 1;

	mov	eax, 1
$LN1@MsgFunc_Se:

; 169  : }

	pop	edi
	pop	esi
	pop	ebx
	mov	esp, ebp
	pop	ebp
	ret	12					; 0000000cH
?MsgFunc_SecAmmoVal@CHudAmmoSecondary@@QAEHPBDHPAX@Z ENDP ; CHudAmmoSecondary::MsgFunc_SecAmmoVal
_TEXT	ENDS
; Function compile flags: /Odtp /ZI
; File d:\!diffusion 2020\source code 2022\client-server\client\ammo_secondary.cpp
;	COMDAT ?Draw@CHudAmmoSecondary@@UAEHM@Z
_TEXT	SEGMENT
tv74 = -104						; size = 4
_i$1 = -36						; size = 4
_AmmoWidth$ = -32					; size = 4
_b$ = -28						; size = 4
_g$ = -24						; size = 4
_r$ = -20						; size = 4
_y$ = -16						; size = 4
_x$ = -12						; size = 4
_a$ = -8						; size = 4
_this$ = -4						; size = 4
_flTime$ = 8						; size = 4
?Draw@CHudAmmoSecondary@@UAEHM@Z PROC			; CHudAmmoSecondary::Draw, COMDAT
; _this$ = ecx

; 56   : {

	push	ebp
	mov	ebp, esp
	sub	esp, 104				; 00000068H
	push	ebx
	push	esi
	push	edi
	mov	DWORD PTR _this$[ebp], ecx

; 57   : 	if( gHUD.m_iHideHUDDisplay & ( HIDEHUD_WPNS | HIDEHUD_ALL | HIDEHUD_WPNS_HOLDABLEITEM | HIDEHUD_WPNS_CUSTOM))

	mov	eax, DWORD PTR ?gHUD@@3VCHud@@A+76
	and	eax, 53					; 00000035H
	je	SHORT $LN5@Draw

; 58   : 		return 1;

	mov	eax, 1
	jmp	$LN1@Draw
$LN5@Draw:

; 59   : 
; 60   : 	if( tr.time == tr.oldtime ) // paused

	movsd	xmm0, QWORD PTR ?tr@@3Uref_globals_t@@A+8
	ucomisd	xmm0, QWORD PTR ?tr@@3Uref_globals_t@@A+16
	lahf
	test	ah, 68					; 00000044H
	jp	SHORT $LN6@Draw

; 61   : 		return 1;

	mov	eax, 1
	jmp	$LN1@Draw
$LN6@Draw:

; 62   : 
; 63   : 	// draw secondary ammo icons above normal ammo readout
; 64   : 	int a, x, y, r, g, b, AmmoWidth;
; 65   : 
; 66   : 	UnpackRGB( r, g, b, gHUD.m_iHUDColor );

	mov	eax, DWORD PTR ?gHUD@@3VCHud@@A+108
	push	eax
	lea	ecx, DWORD PTR _b$[ebp]
	push	ecx
	lea	edx, DWORD PTR _g$[ebp]
	push	edx
	lea	eax, DWORD PTR _r$[ebp]
	push	eax
	call	?UnpackRGB@@YAXAAH00K@Z			; UnpackRGB
	add	esp, 16					; 00000010H

; 67   : 	a = (int)max( MIN_ALPHA, m_fFade );

	mov	eax, DWORD PTR _this$[ebp]
	movss	xmm0, DWORD PTR __real@42c80000
	comiss	xmm0, DWORD PTR [eax+28]
	jbe	SHORT $LN13@Draw
	movss	xmm0, DWORD PTR __real@42c80000
	movss	DWORD PTR tv74[ebp], xmm0
	jmp	SHORT $LN14@Draw
$LN13@Draw:
	mov	ecx, DWORD PTR _this$[ebp]
	movss	xmm0, DWORD PTR [ecx+28]
	movss	DWORD PTR tv74[ebp], xmm0
$LN14@Draw:
	cvttss2si edx, DWORD PTR tv74[ebp]
	mov	DWORD PTR _a$[ebp], edx

; 68   : 
; 69   : 	if( m_fFade > 0 )

	mov	eax, DWORD PTR _this$[ebp]
	movss	xmm0, DWORD PTR [eax+28]
	comiss	xmm0, DWORD PTR __real@00000000
	jbe	SHORT $LN7@Draw

; 70   : 		m_fFade -= (gHUD.m_flTimeDelta * 20);  // slowly lower alpha to fade out icons

	movsd	xmm0, QWORD PTR ?gHUD@@3VCHud@@A+40
	mulsd	xmm0, QWORD PTR __real@4034000000000000
	mov	eax, DWORD PTR _this$[ebp]
	cvtss2sd xmm1, DWORD PTR [eax+28]
	subsd	xmm1, xmm0
	cvtsd2ss xmm0, xmm1
	mov	ecx, DWORD PTR _this$[ebp]
	movss	DWORD PTR [ecx+28], xmm0
$LN7@Draw:

; 71   : 
; 72   : 	ScaleColors( r, g, b, a );

	mov	eax, DWORD PTR _a$[ebp]
	push	eax
	lea	ecx, DWORD PTR _b$[ebp]
	push	ecx
	lea	edx, DWORD PTR _g$[ebp]
	push	edx
	lea	eax, DWORD PTR _r$[ebp]
	push	eax
	call	?ScaleColors@@YAXAAH00H@Z		; ScaleColors
	add	esp, 16					; 00000010H

; 73   : 
; 74   : 	AmmoWidth = gHUD.GetSpriteRect( gHUD.m_HUD_number_0 ).right - gHUD.GetSpriteRect( gHUD.m_HUD_number_0 ).left;

	mov	eax, DWORD PTR ?gHUD@@3VCHud@@A+8980
	push	eax
	mov	ecx, OFFSET ?gHUD@@3VCHud@@A		; gHUD
	call	?GetSpriteRect@CHud@@QAEAAUwrect_s@@H@Z	; CHud::GetSpriteRect
	mov	esi, eax
	mov	ecx, DWORD PTR ?gHUD@@3VCHud@@A+8980
	push	ecx
	mov	ecx, OFFSET ?gHUD@@3VCHud@@A		; gHUD
	call	?GetSpriteRect@CHud@@QAEAAUwrect_s@@H@Z	; CHud::GetSpriteRect
	mov	edx, DWORD PTR [esi+4]
	sub	edx, DWORD PTR [eax]
	mov	DWORD PTR _AmmoWidth$[ebp], edx

; 75   : 
; 76   : 	y = ScreenHeight - (gHUD.m_iFontHeight * 4);  // this is one font height higher than the weapon ammo values

	mov	eax, DWORD PTR ?gHUD@@3VCHud@@A+104
	shl	eax, 2
	mov	ecx, DWORD PTR ?gHUD@@3VCHud@@A+8440
	sub	ecx, eax
	mov	DWORD PTR _y$[ebp], ecx

; 77   : 	x = ScreenWidth - AmmoWidth;

	mov	eax, DWORD PTR ?gHUD@@3VCHud@@A+8436
	sub	eax, DWORD PTR _AmmoWidth$[ebp]
	mov	DWORD PTR _x$[ebp], eax

; 78   : 
; 79   : 	if( m_HUD_ammoicon )

	mov	eax, DWORD PTR _this$[ebp]
	cmp	DWORD PTR [eax+8], 0
	je	$LN8@Draw

; 80   : 	{
; 81   : 		// Draw the ammo icon
; 82   : 		x -= (gHUD.GetSpriteRect( m_HUD_ammoicon ).right - gHUD.GetSpriteRect( m_HUD_ammoicon ).left);

	mov	eax, DWORD PTR _this$[ebp]
	mov	ecx, DWORD PTR [eax+8]
	push	ecx
	mov	ecx, OFFSET ?gHUD@@3VCHud@@A		; gHUD
	call	?GetSpriteRect@CHud@@QAEAAUwrect_s@@H@Z	; CHud::GetSpriteRect
	mov	esi, eax
	mov	edx, DWORD PTR _this$[ebp]
	mov	eax, DWORD PTR [edx+8]
	push	eax
	mov	ecx, OFFSET ?gHUD@@3VCHud@@A		; gHUD
	call	?GetSpriteRect@CHud@@QAEAAUwrect_s@@H@Z	; CHud::GetSpriteRect
	mov	ecx, DWORD PTR [esi+4]
	sub	ecx, DWORD PTR [eax]
	mov	edx, DWORD PTR _x$[ebp]
	sub	edx, ecx
	mov	DWORD PTR _x$[ebp], edx

; 83   : 		y -= (gHUD.GetSpriteRect( m_HUD_ammoicon ).top - gHUD.GetSpriteRect( m_HUD_ammoicon ).bottom);

	mov	eax, DWORD PTR _this$[ebp]
	mov	ecx, DWORD PTR [eax+8]
	push	ecx
	mov	ecx, OFFSET ?gHUD@@3VCHud@@A		; gHUD
	call	?GetSpriteRect@CHud@@QAEAAUwrect_s@@H@Z	; CHud::GetSpriteRect
	mov	esi, eax
	mov	edx, DWORD PTR _this$[ebp]
	mov	eax, DWORD PTR [edx+8]
	push	eax
	mov	ecx, OFFSET ?gHUD@@3VCHud@@A		; gHUD
	call	?GetSpriteRect@CHud@@QAEAAUwrect_s@@H@Z	; CHud::GetSpriteRect
	mov	ecx, DWORD PTR [esi+8]
	sub	ecx, DWORD PTR [eax+12]
	mov	edx, DWORD PTR _y$[ebp]
	sub	edx, ecx
	mov	DWORD PTR _y$[ebp], edx

; 84   : 
; 85   : 		SPR_Set( gHUD.GetSprite( m_HUD_ammoicon ), r, g, b );

	mov	eax, DWORD PTR _b$[ebp]
	push	eax
	mov	ecx, DWORD PTR _g$[ebp]
	push	ecx
	mov	edx, DWORD PTR _r$[ebp]
	push	edx
	mov	eax, DWORD PTR _this$[ebp]
	mov	ecx, DWORD PTR [eax+8]
	push	ecx
	mov	ecx, OFFSET ?gHUD@@3VCHud@@A		; gHUD
	call	?GetSprite@CHud@@QAEHH@Z		; CHud::GetSprite
	push	eax
	call	DWORD PTR ?gEngfuncs@@3Ucl_enginefuncs_s@@A+16
	add	esp, 16					; 00000010H

; 86   : 		SPR_DrawAdditive( 0, x, y, &gHUD.GetSpriteRect( m_HUD_ammoicon ));

	mov	eax, DWORD PTR _this$[ebp]
	mov	ecx, DWORD PTR [eax+8]
	push	ecx
	mov	ecx, OFFSET ?gHUD@@3VCHud@@A		; gHUD
	call	?GetSpriteRect@CHud@@QAEAAUwrect_s@@H@Z	; CHud::GetSpriteRect
	push	eax
	mov	edx, DWORD PTR _y$[ebp]
	push	edx
	mov	eax, DWORD PTR _x$[ebp]
	push	eax
	push	0
	call	DWORD PTR ?gEngfuncs@@3Ucl_enginefuncs_s@@A+28
	add	esp, 16					; 00000010H

; 87   : 	}
; 88   : 	else

	jmp	SHORT $LN9@Draw
$LN8@Draw:

; 89   : 	{
; 90   : 		// move the cursor by the '0' char instead, since we don't have an icon to work with
; 91   : 		x -= AmmoWidth;

	mov	eax, DWORD PTR _x$[ebp]
	sub	eax, DWORD PTR _AmmoWidth$[ebp]
	mov	DWORD PTR _x$[ebp], eax

; 92   : 		y -= (gHUD.GetSpriteRect( gHUD.m_HUD_number_0 ).top - gHUD.GetSpriteRect( gHUD.m_HUD_number_0 ).bottom);

	mov	eax, DWORD PTR ?gHUD@@3VCHud@@A+8980
	push	eax
	mov	ecx, OFFSET ?gHUD@@3VCHud@@A		; gHUD
	call	?GetSpriteRect@CHud@@QAEAAUwrect_s@@H@Z	; CHud::GetSpriteRect
	mov	esi, eax
	mov	ecx, DWORD PTR ?gHUD@@3VCHud@@A+8980
	push	ecx
	mov	ecx, OFFSET ?gHUD@@3VCHud@@A		; gHUD
	call	?GetSpriteRect@CHud@@QAEAAUwrect_s@@H@Z	; CHud::GetSpriteRect
	mov	edx, DWORD PTR [esi+8]
	sub	edx, DWORD PTR [eax+12]
	mov	eax, DWORD PTR _y$[ebp]
	sub	eax, edx
	mov	DWORD PTR _y$[ebp], eax
$LN9@Draw:

; 93   : 	}
; 94   : 
; 95   : 	// draw the ammo counts, in reverse order, from right to left
; 96   : 	for( int i = MAX_SEC_AMMO_VALUES-1; i >= 0; i-- )

	mov	DWORD PTR _i$1[ebp], 3
	jmp	SHORT $LN4@Draw
$LN2@Draw:
	mov	eax, DWORD PTR _i$1[ebp]
	sub	eax, 1
	mov	DWORD PTR _i$1[ebp], eax
$LN4@Draw:
	cmp	DWORD PTR _i$1[ebp], 0
	jl	$LN3@Draw

; 97   : 	{
; 98   : 		if( m_iAmmoAmounts[i] < 0 )

	mov	eax, DWORD PTR _i$1[ebp]
	mov	ecx, DWORD PTR _this$[ebp]
	cmp	DWORD PTR [ecx+eax*4+12], 0
	jge	SHORT $LN10@Draw

; 99   : 			continue; // negative ammo amounts imply that they shouldn't be drawn

	jmp	SHORT $LN2@Draw
$LN10@Draw:

; 100  : 
; 101  : 		// half a char gap between the ammo number and the previous pic
; 102  : 		x -= (AmmoWidth / 2);

	mov	eax, DWORD PTR _AmmoWidth$[ebp]
	cdq
	sub	eax, edx
	sar	eax, 1
	mov	ecx, DWORD PTR _x$[ebp]
	sub	ecx, eax
	mov	DWORD PTR _x$[ebp], ecx

; 103  : 
; 104  : 		// draw the number, right-aligned
; 105  : 		x -= (gHUD.GetNumWidth( m_iAmmoAmounts[i], DHN_DRAWZERO ) * AmmoWidth);

	push	1
	mov	eax, DWORD PTR _i$1[ebp]
	mov	ecx, DWORD PTR _this$[ebp]
	mov	edx, DWORD PTR [ecx+eax*4+12]
	push	edx
	mov	ecx, OFFSET ?gHUD@@3VCHud@@A		; gHUD
	call	?GetNumWidth@CHud@@QAEHHH@Z		; CHud::GetNumWidth
	imul	eax, DWORD PTR _AmmoWidth$[ebp]
	mov	ecx, DWORD PTR _x$[ebp]
	sub	ecx, eax
	mov	DWORD PTR _x$[ebp], ecx

; 106  : 		gHUD.DrawHudNumber( x, y, DHN_DRAWZERO, m_iAmmoAmounts[i], r, g, b );

	mov	eax, DWORD PTR _b$[ebp]
	push	eax
	mov	ecx, DWORD PTR _g$[ebp]
	push	ecx
	mov	edx, DWORD PTR _r$[ebp]
	push	edx
	mov	eax, DWORD PTR _i$1[ebp]
	mov	ecx, DWORD PTR _this$[ebp]
	mov	edx, DWORD PTR [ecx+eax*4+12]
	push	edx
	push	1
	mov	eax, DWORD PTR _y$[ebp]
	push	eax
	mov	ecx, DWORD PTR _x$[ebp]
	push	ecx
	mov	ecx, OFFSET ?gHUD@@3VCHud@@A		; gHUD
	call	?DrawHudNumber@CHud@@QAEHHHHHHHH@Z	; CHud::DrawHudNumber

; 107  : 
; 108  : 		if( i != 0 )

	cmp	DWORD PTR _i$1[ebp], 0
	je	SHORT $LN11@Draw

; 109  : 		{
; 110  : 			// draw the divider bar
; 111  : 			x -= (AmmoWidth / 2);

	mov	eax, DWORD PTR _AmmoWidth$[ebp]
	cdq
	sub	eax, edx
	sar	eax, 1
	mov	ecx, DWORD PTR _x$[ebp]
	sub	ecx, eax
	mov	DWORD PTR _x$[ebp], ecx

; 112  : 			FillRGBA( x, y, (AmmoWidth / 10), gHUD.m_iFontHeight, r, g, b, a );

	mov	eax, DWORD PTR _a$[ebp]
	push	eax
	mov	ecx, DWORD PTR _b$[ebp]
	push	ecx
	mov	edx, DWORD PTR _g$[ebp]
	push	edx
	mov	eax, DWORD PTR _r$[ebp]
	push	eax
	mov	ecx, DWORD PTR ?gHUD@@3VCHud@@A+104
	push	ecx
	mov	eax, DWORD PTR _AmmoWidth$[ebp]
	cdq
	mov	ecx, 10					; 0000000aH
	idiv	ecx
	push	eax
	mov	edx, DWORD PTR _y$[ebp]
	push	edx
	mov	eax, DWORD PTR _x$[ebp]
	push	eax
	call	DWORD PTR ?gEngfuncs@@3Ucl_enginefuncs_s@@A+44
	add	esp, 32					; 00000020H
$LN11@Draw:

; 113  : 		}
; 114  : 	}

	jmp	$LN2@Draw
$LN3@Draw:

; 115  : 
; 116  : 	return 1;

	mov	eax, 1
$LN1@Draw:

; 117  : }

	pop	edi
	pop	esi
	pop	ebx
	mov	esp, ebp
	pop	ebp
	ret	4
?Draw@CHudAmmoSecondary@@UAEHM@Z ENDP			; CHudAmmoSecondary::Draw
_TEXT	ENDS
; Function compile flags: /Odtp /ZI
; File d:\!diffusion 2020\source code 2022\client-server\client\ammo_secondary.cpp
;	COMDAT ?Reset@CHudAmmoSecondary@@UAEXXZ
_TEXT	SEGMENT
_this$ = -4						; size = 4
?Reset@CHudAmmoSecondary@@UAEXXZ PROC			; CHudAmmoSecondary::Reset, COMDAT
; _this$ = ecx

; 46   : {

	push	ebp
	mov	ebp, esp
	sub	esp, 68					; 00000044H
	push	ebx
	push	esi
	push	edi
	mov	DWORD PTR _this$[ebp], ecx

; 47   : 	m_fFade = 0;

	mov	eax, DWORD PTR _this$[ebp]
	xorps	xmm0, xmm0
	movss	DWORD PTR [eax+28], xmm0

; 48   : }

	pop	edi
	pop	esi
	pop	ebx
	mov	esp, ebp
	pop	ebp
	ret	0
?Reset@CHudAmmoSecondary@@UAEXXZ ENDP			; CHudAmmoSecondary::Reset
_TEXT	ENDS
; Function compile flags: /Odtp /ZI
; File d:\!diffusion 2020\source code 2022\client-server\client\ammo_secondary.cpp
;	COMDAT ?VidInit@CHudAmmoSecondary@@UAEHXZ
_TEXT	SEGMENT
_this$ = -4						; size = 4
?VidInit@CHudAmmoSecondary@@UAEHXZ PROC			; CHudAmmoSecondary::VidInit, COMDAT
; _this$ = ecx

; 51   : {

	push	ebp
	mov	ebp, esp
	sub	esp, 68					; 00000044H
	push	ebx
	push	esi
	push	edi
	mov	DWORD PTR _this$[ebp], ecx

; 52   : 	return 1;

	mov	eax, 1

; 53   : }

	pop	edi
	pop	esi
	pop	ebx
	mov	esp, ebp
	pop	ebp
	ret	0
?VidInit@CHudAmmoSecondary@@UAEHXZ ENDP			; CHudAmmoSecondary::VidInit
_TEXT	ENDS
; Function compile flags: /Odtp /ZI
; File d:\!diffusion 2020\source code 2022\client-server\client\ammo_secondary.cpp
;	COMDAT ?Init@CHudAmmoSecondary@@UAEHXZ
_TEXT	SEGMENT
_i$1 = -8						; size = 4
_this$ = -4						; size = 4
?Init@CHudAmmoSecondary@@UAEHXZ PROC			; CHudAmmoSecondary::Init, COMDAT
; _this$ = ecx

; 30   : {

	push	ebp
	mov	ebp, esp
	sub	esp, 72					; 00000048H
	push	ebx
	push	esi
	push	edi
	mov	DWORD PTR _this$[ebp], ecx

; 31   : 	HOOK_MESSAGE( SecAmmoVal );

	push	OFFSET ?__MsgFunc_SecAmmoVal@@YAHPBDHPAX@Z ; __MsgFunc_SecAmmoVal
	push	OFFSET ??_C@_0L@OJGBEBOP@SecAmmoVal?$AA@
	call	DWORD PTR ?gEngfuncs@@3Ucl_enginefuncs_s@@A+72
	add	esp, 8

; 32   : 	HOOK_MESSAGE( SecAmmoIcon );

	push	OFFSET ?__MsgFunc_SecAmmoIcon@@YAHPBDHPAX@Z ; __MsgFunc_SecAmmoIcon
	push	OFFSET ??_C@_0M@IBNNKOAA@SecAmmoIcon?$AA@
	call	DWORD PTR ?gEngfuncs@@3Ucl_enginefuncs_s@@A+72
	add	esp, 8

; 33   : 
; 34   : 	gHUD.AddHudElem( this );

	mov	eax, DWORD PTR _this$[ebp]
	push	eax
	mov	ecx, OFFSET ?gHUD@@3VCHud@@A		; gHUD
	call	?AddHudElem@CHud@@QAEXPAVCHudBase@@@Z	; CHud::AddHudElem

; 35   : 	m_HUD_ammoicon = 0;

	mov	eax, DWORD PTR _this$[ebp]
	mov	DWORD PTR [eax+8], 0

; 36   : 
; 37   : 	for( int i = 0; i < MAX_SEC_AMMO_VALUES; i++ )

	mov	DWORD PTR _i$1[ebp], 0
	jmp	SHORT $LN4@Init
$LN2@Init:
	mov	eax, DWORD PTR _i$1[ebp]
	add	eax, 1
	mov	DWORD PTR _i$1[ebp], eax
$LN4@Init:
	cmp	DWORD PTR _i$1[ebp], 4
	jge	SHORT $LN3@Init

; 38   : 		m_iAmmoAmounts[i] = -1;  // -1 means don't draw this value

	mov	eax, DWORD PTR _i$1[ebp]
	mov	ecx, DWORD PTR _this$[ebp]
	mov	DWORD PTR [ecx+eax*4+12], -1
	jmp	SHORT $LN2@Init
$LN3@Init:

; 39   : 
; 40   : 	Reset();

	mov	eax, DWORD PTR _this$[ebp]
	mov	edx, DWORD PTR [eax]
	mov	ecx, DWORD PTR _this$[ebp]
	mov	eax, DWORD PTR [edx+20]
	call	eax

; 41   : 
; 42   : 	return 1;

	mov	eax, 1

; 43   : }

	pop	edi
	pop	esi
	pop	ebx
	mov	esp, ebp
	pop	ebp
	ret	0
?Init@CHudAmmoSecondary@@UAEHXZ ENDP			; CHudAmmoSecondary::Init
_TEXT	ENDS
; Function compile flags: /Odtp /ZI
;	COMDAT ??__G@YGXPAX0IIP6EPAX00@Z@Z
_TEXT	SEGMENT
tv66 = -68						; size = 4
___t$ = 8						; size = 4
___u$ = 12						; size = 4
___s$ = 16						; size = 4
___n$ = 20						; size = 4
___f$ = 24						; size = 4
??__G@YGXPAX0IIP6EPAX00@Z@Z PROC			; `vector copy constructor iterator', COMDAT
	push	ebp
	mov	ebp, esp
	sub	esp, 68					; 00000044H
	push	ebx
	push	esi
	push	edi
$LN2@vector:
	mov	eax, DWORD PTR ___n$[ebp]
	mov	DWORD PTR tv66[ebp], eax
	mov	ecx, DWORD PTR ___n$[ebp]
	sub	ecx, 1
	mov	DWORD PTR ___n$[ebp], ecx
	cmp	DWORD PTR tv66[ebp], 0
	jbe	SHORT $LN1@vector
	mov	eax, DWORD PTR ___u$[ebp]
	push	eax
	mov	ecx, DWORD PTR ___t$[ebp]
	call	DWORD PTR ___f$[ebp]
	mov	eax, DWORD PTR ___t$[ebp]
	add	eax, DWORD PTR ___s$[ebp]
	mov	DWORD PTR ___t$[ebp], eax
	mov	eax, DWORD PTR ___u$[ebp]
	add	eax, DWORD PTR ___s$[ebp]
	mov	DWORD PTR ___u$[ebp], eax
	jmp	SHORT $LN2@vector
$LN1@vector:
	pop	edi
	pop	esi
	pop	ebx
	mov	esp, ebp
	pop	ebp
	ret	20					; 00000014H
??__G@YGXPAX0IIP6EPAX00@Z@Z ENDP			; `vector copy constructor iterator'
_TEXT	ENDS
; Function compile flags: /Odtp /ZI
;	COMDAT ??_H@YGXPAXIIP6EPAX0@Z@Z
_TEXT	SEGMENT
tv66 = -68						; size = 4
___t$ = 8						; size = 4
___s$ = 12						; size = 4
___n$ = 16						; size = 4
___f$ = 20						; size = 4
??_H@YGXPAXIIP6EPAX0@Z@Z PROC				; `vector constructor iterator', COMDAT
	push	ebp
	mov	ebp, esp
	sub	esp, 68					; 00000044H
	push	ebx
	push	esi
	push	edi
$LN2@vector:
	mov	eax, DWORD PTR ___n$[ebp]
	mov	DWORD PTR tv66[ebp], eax
	mov	ecx, DWORD PTR ___n$[ebp]
	sub	ecx, 1
	mov	DWORD PTR ___n$[ebp], ecx
	cmp	DWORD PTR tv66[ebp], 0
	jbe	SHORT $LN1@vector
	mov	ecx, DWORD PTR ___t$[ebp]
	call	DWORD PTR ___f$[ebp]
	mov	eax, DWORD PTR ___t$[ebp]
	add	eax, DWORD PTR ___s$[ebp]
	mov	DWORD PTR ___t$[ebp], eax
	jmp	SHORT $LN2@vector
$LN1@vector:
	pop	edi
	pop	esi
	pop	ebx
	mov	esp, ebp
	pop	ebp
	ret	16					; 00000010H
??_H@YGXPAXIIP6EPAX0@Z@Z ENDP				; `vector constructor iterator'
_TEXT	ENDS
END
