; Listing generated by Microsoft (R) Optimizing Compiler Version 19.00.24247.2 

	TITLE	D:\!DIFFUSION 2020\source code 2022\client-server\client\ammohistory.cpp
	.686P
	.XMM
	include listing.inc
	.model	flat

INCLUDELIB LIBCMT
INCLUDELIB OLDNAMES

PUBLIC	?gHR@@3VHistoryResource@@A			; gHR
PUBLIC	?HISTORY_DRAW_TIME@@3HA				; HISTORY_DRAW_TIME
_BSS	SEGMENT
?gHR@@3VHistoryResource@@A DB 0c8H DUP (?)		; gHR
_BSS	ENDS
_DATA	SEGMENT
?HISTORY_DRAW_TIME@@3HA DD 05H				; HISTORY_DRAW_TIME
_DATA	ENDS
PUBLIC	??_H@YGXPAXIIP6EPAX0@Z@Z			; `vector constructor iterator'
PUBLIC	??__G@YGXPAX0IIP6EPAX00@Z@Z			; `vector copy constructor iterator'
PUBLIC	?GetSprite@CHud@@QAEHH@Z			; CHud::GetSprite
PUBLIC	?GetSpriteRect@CHud@@QAEAAUwrect_s@@H@Z		; CHud::GetSpriteRect
PUBLIC	?UnpackRGB@@YAXAAH00K@Z				; UnpackRGB
PUBLIC	?GetWeapon@WeaponsResource@@QAEPAUWEAPON@@H@Z	; WeaponsResource::GetWeapon
PUBLIC	?AddToHistory@HistoryResource@@QAEXHHH@Z	; HistoryResource::AddToHistory
PUBLIC	?AddToHistory@HistoryResource@@QAEXHPBDH@Z	; HistoryResource::AddToHistory
PUBLIC	?CheckClearHistory@HistoryResource@@QAEXXZ	; HistoryResource::CheckClearHistory
PUBLIC	?DrawAmmoHistory@HistoryResource@@QAEHM@Z	; HistoryResource::DrawAmmoHistory
PUBLIC	??_C@_0BF@FCIGCOBI@hud_drawhistory_time?$AA@	; `string'
PUBLIC	__real@42a00000
PUBLIC	__real@437f0000
EXTRN	_memset:PROC
EXTRN	?DrawHudNumberString@CHud@@QAEHHHHHHHH@Z:PROC	; CHud::DrawHudNumberString
EXTRN	?GetSpriteIndex@CHud@@QAEHPBD@Z:PROC		; CHud::GetSpriteIndex
EXTRN	?ScaleColors@@YAXAAH00H@Z:PROC			; ScaleColors
EXTRN	?HasAmmo@WeaponsResource@@QAEHPAUWEAPON@@@Z:PROC ; WeaponsResource::HasAmmo
EXTRN	?GetAmmoPicFromWeapon@WeaponsResource@@QAEPAHHAAUwrect_s@@@Z:PROC ; WeaponsResource::GetAmmoPicFromWeapon
EXTRN	@__security_check_cookie@4:PROC
EXTRN	__ftol2_sse:PROC
EXTRN	?gEngfuncs@@3Ucl_enginefuncs_s@@A:BYTE		; gEngfuncs
EXTRN	?gHUD@@3VCHud@@A:BYTE				; gHUD
EXTRN	?gWR@@3VWeaponsResource@@A:BYTE			; gWR
EXTRN	___security_cookie:DWORD
EXTRN	__fltused:DWORD
;	COMDAT __real@437f0000
CONST	SEGMENT
__real@437f0000 DD 0437f0000r			; 255
CONST	ENDS
;	COMDAT __real@42a00000
CONST	SEGMENT
__real@42a00000 DD 042a00000r			; 80
CONST	ENDS
;	COMDAT ??_C@_0BF@FCIGCOBI@hud_drawhistory_time?$AA@
CONST	SEGMENT
??_C@_0BF@FCIGCOBI@hud_drawhistory_time?$AA@ DB 'hud_drawhistory_time', 00H ; `string'
CONST	ENDS
; Function compile flags: /Odtp /ZI
; File d:\!diffusion 2020\source code 2022\client-server\client\ammohistory.cpp
;	COMDAT ?DrawAmmoHistory@HistoryResource@@QAEHM@Z
_TEXT	SEGMENT
tv283 = -192						; size = 4
tv226 = -192						; size = 4
tv157 = -192						; size = 4
tv88 = -192						; size = 4
_xpos$1 = -124						; size = 4
_ypos$2 = -120						; size = 4
_scale$3 = -116						; size = 4
_rect$4 = -112						; size = 16
_b$5 = -96						; size = 4
_g$6 = -92						; size = 4
_r$7 = -88						; size = 4
_xpos$8 = -84						; size = 4
_ypos$9 = -80						; size = 4
_scale$10 = -76						; size = 4
_b$11 = -72						; size = 4
_g$12 = -68						; size = 4
_r$13 = -64						; size = 4
_weap$14 = -60						; size = 4
_xpos$15 = -56						; size = 4
_ypos$16 = -52						; size = 4
_scale$17 = -48						; size = 4
_b$18 = -44						; size = 4
_g$19 = -40						; size = 4
_r$20 = -36						; size = 4
_spr$21 = -32						; size = 4
_rcPic$22 = -28						; size = 16
_i$23 = -12						; size = 4
_this$ = -8						; size = 4
__$ArrayPad$ = -4					; size = 4
_flTime$ = 8						; size = 4
?DrawAmmoHistory@HistoryResource@@QAEHM@Z PROC		; HistoryResource::DrawAmmoHistory, COMDAT
; _this$ = ecx

; 104  : {

	push	ebp
	mov	ebp, esp
	sub	esp, 192				; 000000c0H
	mov	eax, DWORD PTR ___security_cookie
	xor	eax, ebp
	mov	DWORD PTR __$ArrayPad$[ebp], eax
	push	ebx
	push	esi
	push	edi
	mov	DWORD PTR _this$[ebp], ecx

; 105  : 	for( int i = 0; i < MAX_HISTORY; i++ )

	mov	DWORD PTR _i$23[ebp], 0
	jmp	SHORT $LN4@DrawAmmoHi
$LN2@DrawAmmoHi:
	mov	eax, DWORD PTR _i$23[ebp]
	add	eax, 1
	mov	DWORD PTR _i$23[ebp], eax
$LN4@DrawAmmoHi:
	cmp	DWORD PTR _i$23[ebp], 12		; 0000000cH
	jge	$LN3@DrawAmmoHi

; 106  : 	{
; 107  : 		if( rgAmmoHistory[i].type )

	mov	eax, DWORD PTR _i$23[ebp]
	shl	eax, 4
	mov	ecx, DWORD PTR _this$[ebp]
	cmp	DWORD PTR [ecx+eax], 0
	je	$LN15@DrawAmmoHi

; 108  : 		{
; 109  : 			rgAmmoHistory[i].DisplayTime = min( rgAmmoHistory[i].DisplayTime, gHUD.m_flTime + HISTORY_DRAW_TIME );

	mov	eax, DWORD PTR _i$23[ebp]
	shl	eax, 4
	cvtsi2ss xmm0, DWORD PTR ?HISTORY_DRAW_TIME@@3HA ; HISTORY_DRAW_TIME
	addss	xmm0, DWORD PTR ?gHUD@@3VCHud@@A+32
	mov	ecx, DWORD PTR _this$[ebp]
	comiss	xmm0, DWORD PTR [ecx+eax+4]
	jbe	SHORT $LN18@DrawAmmoHi
	mov	edx, DWORD PTR _i$23[ebp]
	shl	edx, 4
	mov	eax, DWORD PTR _this$[ebp]
	movss	xmm0, DWORD PTR [eax+edx+4]
	movss	DWORD PTR tv88[ebp], xmm0
	jmp	SHORT $LN19@DrawAmmoHi
$LN18@DrawAmmoHi:
	cvtsi2ss xmm0, DWORD PTR ?HISTORY_DRAW_TIME@@3HA ; HISTORY_DRAW_TIME
	addss	xmm0, DWORD PTR ?gHUD@@3VCHud@@A+32
	movss	DWORD PTR tv88[ebp], xmm0
$LN19@DrawAmmoHi:
	mov	ecx, DWORD PTR _i$23[ebp]
	shl	ecx, 4
	mov	edx, DWORD PTR _this$[ebp]
	movss	xmm0, DWORD PTR tv88[ebp]
	movss	DWORD PTR [edx+ecx+4], xmm0

; 110  : 
; 111  : 			if ( rgAmmoHistory[i].DisplayTime <= flTime )

	mov	eax, DWORD PTR _i$23[ebp]
	shl	eax, 4
	mov	ecx, DWORD PTR _this$[ebp]
	movss	xmm0, DWORD PTR _flTime$[ebp]
	comiss	xmm0, DWORD PTR [ecx+eax+4]
	jb	SHORT $LN6@DrawAmmoHi

; 112  : 			{ 
; 113  : 				// pic drawing time has expired
; 114  : 				memset( &rgAmmoHistory[i], 0, sizeof( HIST_ITEM ));

	push	16					; 00000010H
	push	0
	mov	eax, DWORD PTR _i$23[ebp]
	shl	eax, 4
	add	eax, DWORD PTR _this$[ebp]
	push	eax
	call	_memset
	add	esp, 12					; 0000000cH

; 115  : 				CheckClearHistory();

	mov	ecx, DWORD PTR _this$[ebp]
	call	?CheckClearHistory@HistoryResource@@QAEXXZ ; HistoryResource::CheckClearHistory
	jmp	$LN15@DrawAmmoHi
$LN6@DrawAmmoHi:

; 116  : 			}
; 117  : 			else if( rgAmmoHistory[i].type == HISTSLOT_AMMO )

	mov	eax, DWORD PTR _i$23[ebp]
	shl	eax, 4
	mov	ecx, DWORD PTR _this$[ebp]
	cmp	DWORD PTR [ecx+eax], 1
	jne	$LN8@DrawAmmoHi

; 118  : 			{
; 119  : 				wrect_t rcPic;
; 120  : 				SpriteHandle *spr = gWR.GetAmmoPicFromWeapon( rgAmmoHistory[i].iId, rcPic );

	lea	eax, DWORD PTR _rcPic$22[ebp]
	push	eax
	mov	ecx, DWORD PTR _i$23[ebp]
	shl	ecx, 4
	mov	edx, DWORD PTR _this$[ebp]
	mov	eax, DWORD PTR [edx+ecx+12]
	push	eax
	mov	ecx, OFFSET ?gWR@@3VWeaponsResource@@A	; gWR
	call	?GetAmmoPicFromWeapon@WeaponsResource@@QAEPAHHAAUwrect_s@@@Z ; WeaponsResource::GetAmmoPicFromWeapon
	mov	DWORD PTR _spr$21[ebp], eax

; 121  : 
; 122  : 				int r, g, b;
; 123  : 				UnpackRGB( r, g, b, gHUD.m_iHUDColor );

	mov	eax, DWORD PTR ?gHUD@@3VCHud@@A+108
	push	eax
	lea	ecx, DWORD PTR _b$18[ebp]
	push	ecx
	lea	edx, DWORD PTR _g$19[ebp]
	push	edx
	lea	eax, DWORD PTR _r$20[ebp]
	push	eax
	call	?UnpackRGB@@YAXAAH00K@Z			; UnpackRGB
	add	esp, 16					; 00000010H

; 124  : 				float scale = ( rgAmmoHistory[i].DisplayTime - flTime ) * 80;

	mov	eax, DWORD PTR _i$23[ebp]
	shl	eax, 4
	mov	ecx, DWORD PTR _this$[ebp]
	movss	xmm0, DWORD PTR [ecx+eax+4]
	subss	xmm0, DWORD PTR _flTime$[ebp]
	mulss	xmm0, DWORD PTR __real@42a00000
	movss	DWORD PTR _scale$17[ebp], xmm0

; 125  : 				ScaleColors(r, g, b, min( scale, 255 ));

	movss	xmm0, DWORD PTR __real@437f0000
	comiss	xmm0, DWORD PTR _scale$17[ebp]
	jbe	SHORT $LN20@DrawAmmoHi
	movss	xmm0, DWORD PTR _scale$17[ebp]
	movss	DWORD PTR tv157[ebp], xmm0
	jmp	SHORT $LN21@DrawAmmoHi
$LN20@DrawAmmoHi:
	movss	xmm0, DWORD PTR __real@437f0000
	movss	DWORD PTR tv157[ebp], xmm0
$LN21@DrawAmmoHi:
	cvttss2si eax, DWORD PTR tv157[ebp]
	push	eax
	lea	ecx, DWORD PTR _b$18[ebp]
	push	ecx
	lea	edx, DWORD PTR _g$19[ebp]
	push	edx
	lea	eax, DWORD PTR _r$20[ebp]
	push	eax
	call	?ScaleColors@@YAXAAH00H@Z		; ScaleColors
	add	esp, 16					; 00000010H

; 126  : 
; 127  : 				// Draw the pic
; 128  : 				int ypos = ScreenHeight - (AMMO_PICKUP_PICK_HEIGHT + (AMMO_PICKUP_GAP * i));

	mov	eax, DWORD PTR ?gHR@@3VHistoryResource@@A+192
	add	eax, 5
	imul	eax, DWORD PTR _i$23[ebp]
	mov	ecx, DWORD PTR ?gHR@@3VHistoryResource@@A+192
	lea	edx, DWORD PTR [eax+ecx*2+32]
	mov	eax, DWORD PTR ?gHUD@@3VCHud@@A+8440
	sub	eax, edx
	mov	DWORD PTR _ypos$16[ebp], eax

; 129  : 				int xpos = ScreenWidth - 24;

	mov	eax, DWORD PTR ?gHUD@@3VCHud@@A+8436
	sub	eax, 24					; 00000018H
	mov	DWORD PTR _xpos$15[ebp], eax

; 130  : 
; 131  : 				if( spr && *spr )

	cmp	DWORD PTR _spr$21[ebp], 0
	je	SHORT $LN10@DrawAmmoHi
	mov	eax, DWORD PTR _spr$21[ebp]
	cmp	DWORD PTR [eax], 0
	je	SHORT $LN10@DrawAmmoHi

; 132  : 				{
; 133  : 					// weapon isn't loaded yet so just don't draw the pic
; 134  : 					// the dll has to make sure it has sent info the weapons you need
; 135  : 					SPR_Set( *spr, r, g, b );

	mov	eax, DWORD PTR _b$18[ebp]
	push	eax
	mov	ecx, DWORD PTR _g$19[ebp]
	push	ecx
	mov	edx, DWORD PTR _r$20[ebp]
	push	edx
	mov	eax, DWORD PTR _spr$21[ebp]
	mov	ecx, DWORD PTR [eax]
	push	ecx
	call	DWORD PTR ?gEngfuncs@@3Ucl_enginefuncs_s@@A+16
	add	esp, 16					; 00000010H

; 136  : 					SPR_DrawAdditive( 0, xpos, ypos, &rcPic );

	lea	eax, DWORD PTR _rcPic$22[ebp]
	push	eax
	mov	ecx, DWORD PTR _ypos$16[ebp]
	push	ecx
	mov	edx, DWORD PTR _xpos$15[ebp]
	push	edx
	push	0
	call	DWORD PTR ?gEngfuncs@@3Ucl_enginefuncs_s@@A+28
	add	esp, 16					; 00000010H
$LN10@DrawAmmoHi:

; 137  : 				}
; 138  : 
; 139  : 				// Draw the number
; 140  : 				gHUD.DrawHudNumberString( xpos - 10, ypos, xpos - 100, rgAmmoHistory[i].iCount, r, g, b );

	mov	eax, DWORD PTR _b$18[ebp]
	push	eax
	mov	ecx, DWORD PTR _g$19[ebp]
	push	ecx
	mov	edx, DWORD PTR _r$20[ebp]
	push	edx
	mov	eax, DWORD PTR _i$23[ebp]
	shl	eax, 4
	mov	ecx, DWORD PTR _this$[ebp]
	mov	edx, DWORD PTR [ecx+eax+8]
	push	edx
	mov	eax, DWORD PTR _xpos$15[ebp]
	sub	eax, 100				; 00000064H
	push	eax
	mov	ecx, DWORD PTR _ypos$16[ebp]
	push	ecx
	mov	edx, DWORD PTR _xpos$15[ebp]
	sub	edx, 10					; 0000000aH
	push	edx
	mov	ecx, OFFSET ?gHUD@@3VCHud@@A		; gHUD
	call	?DrawHudNumberString@CHud@@QAEHHHHHHHH@Z ; CHud::DrawHudNumberString
	jmp	$LN15@DrawAmmoHi
$LN8@DrawAmmoHi:

; 141  : 			}
; 142  : 			else if( rgAmmoHistory[i].type == HISTSLOT_WEAP )

	mov	eax, DWORD PTR _i$23[ebp]
	shl	eax, 4
	mov	ecx, DWORD PTR _this$[ebp]
	cmp	DWORD PTR [ecx+eax], 2
	jne	$LN11@DrawAmmoHi

; 143  : 			{
; 144  : 				WEAPON *weap = gWR.GetWeapon( rgAmmoHistory[i].iId );

	mov	eax, DWORD PTR _i$23[ebp]
	shl	eax, 4
	mov	ecx, DWORD PTR _this$[ebp]
	mov	edx, DWORD PTR [ecx+eax+12]
	push	edx
	mov	ecx, OFFSET ?gWR@@3VWeaponsResource@@A	; gWR
	call	?GetWeapon@WeaponsResource@@QAEPAUWEAPON@@H@Z ; WeaponsResource::GetWeapon
	mov	DWORD PTR _weap$14[ebp], eax

; 145  : 
; 146  : 				if( !weap )

	cmp	DWORD PTR _weap$14[ebp], 0
	jne	SHORT $LN13@DrawAmmoHi

; 147  : 					return 1;  // we don't know about the weapon yet, so don't draw anything

	mov	eax, 1
	jmp	$LN1@DrawAmmoHi
$LN13@DrawAmmoHi:

; 148  : 
; 149  : 				int r, g, b;
; 150  : 				UnpackRGB( r,g,b, gHUD.m_iHUDColor );

	mov	eax, DWORD PTR ?gHUD@@3VCHud@@A+108
	push	eax
	lea	ecx, DWORD PTR _b$11[ebp]
	push	ecx
	lea	edx, DWORD PTR _g$12[ebp]
	push	edx
	lea	eax, DWORD PTR _r$13[ebp]
	push	eax
	call	?UnpackRGB@@YAXAAH00K@Z			; UnpackRGB
	add	esp, 16					; 00000010H

; 151  : 
; 152  : 				if( !gWR.HasAmmo( weap ))

	mov	eax, DWORD PTR _weap$14[ebp]
	push	eax
	mov	ecx, OFFSET ?gWR@@3VWeaponsResource@@A	; gWR
	call	?HasAmmo@WeaponsResource@@QAEHPAUWEAPON@@@Z ; WeaponsResource::HasAmmo
	test	eax, eax
	jne	SHORT $LN14@DrawAmmoHi

; 153  : 					UnpackRGB( r, g, b, RGB_REDISH ); // if the weapon doesn't have ammo, display it as red

	push	16715792				; 00ff1010H
	lea	eax, DWORD PTR _b$11[ebp]
	push	eax
	lea	ecx, DWORD PTR _g$12[ebp]
	push	ecx
	lea	edx, DWORD PTR _r$13[ebp]
	push	edx
	call	?UnpackRGB@@YAXAAH00K@Z			; UnpackRGB
	add	esp, 16					; 00000010H
$LN14@DrawAmmoHi:

; 154  : 
; 155  : 				float scale = (rgAmmoHistory[i].DisplayTime - flTime) * 80;

	mov	eax, DWORD PTR _i$23[ebp]
	shl	eax, 4
	mov	ecx, DWORD PTR _this$[ebp]
	movss	xmm0, DWORD PTR [ecx+eax+4]
	subss	xmm0, DWORD PTR _flTime$[ebp]
	mulss	xmm0, DWORD PTR __real@42a00000
	movss	DWORD PTR _scale$10[ebp], xmm0

; 156  : 				ScaleColors( r, g, b, min( scale, 255 ));

	movss	xmm0, DWORD PTR __real@437f0000
	comiss	xmm0, DWORD PTR _scale$10[ebp]
	jbe	SHORT $LN22@DrawAmmoHi
	movss	xmm0, DWORD PTR _scale$10[ebp]
	movss	DWORD PTR tv226[ebp], xmm0
	jmp	SHORT $LN23@DrawAmmoHi
$LN22@DrawAmmoHi:
	movss	xmm0, DWORD PTR __real@437f0000
	movss	DWORD PTR tv226[ebp], xmm0
$LN23@DrawAmmoHi:
	cvttss2si eax, DWORD PTR tv226[ebp]
	push	eax
	lea	ecx, DWORD PTR _b$11[ebp]
	push	ecx
	lea	edx, DWORD PTR _g$12[ebp]
	push	edx
	lea	eax, DWORD PTR _r$13[ebp]
	push	eax
	call	?ScaleColors@@YAXAAH00H@Z		; ScaleColors
	add	esp, 16					; 00000010H

; 157  : 
; 158  : 				int ypos = ScreenHeight - ( AMMO_PICKUP_PICK_HEIGHT + ( AMMO_PICKUP_GAP * i ));

	mov	eax, DWORD PTR ?gHR@@3VHistoryResource@@A+192
	add	eax, 5
	imul	eax, DWORD PTR _i$23[ebp]
	mov	ecx, DWORD PTR ?gHR@@3VHistoryResource@@A+192
	lea	edx, DWORD PTR [eax+ecx*2+32]
	mov	eax, DWORD PTR ?gHUD@@3VCHud@@A+8440
	sub	eax, edx
	mov	DWORD PTR _ypos$9[ebp], eax

; 159  : 				int xpos = ScreenWidth - ( weap->rcInactive.right - weap->rcInactive.left );

	mov	eax, DWORD PTR _weap$14[ebp]
	mov	ecx, DWORD PTR _weap$14[ebp]
	mov	edx, DWORD PTR [eax+196]
	sub	edx, DWORD PTR [ecx+192]
	mov	eax, DWORD PTR ?gHUD@@3VCHud@@A+8436
	sub	eax, edx
	mov	DWORD PTR _xpos$8[ebp], eax

; 160  : 				SPR_Set( weap->hInactive, r, g, b );

	mov	eax, DWORD PTR _b$11[ebp]
	push	eax
	mov	ecx, DWORD PTR _g$12[ebp]
	push	ecx
	mov	edx, DWORD PTR _r$13[ebp]
	push	edx
	mov	eax, DWORD PTR _weap$14[ebp]
	mov	ecx, DWORD PTR [eax+188]
	push	ecx
	call	DWORD PTR ?gEngfuncs@@3Ucl_enginefuncs_s@@A+16
	add	esp, 16					; 00000010H

; 161  : 				SPR_DrawAdditive( 0, xpos, ypos, &weap->rcInactive );

	mov	eax, DWORD PTR _weap$14[ebp]
	add	eax, 192				; 000000c0H
	push	eax
	mov	ecx, DWORD PTR _ypos$9[ebp]
	push	ecx
	mov	edx, DWORD PTR _xpos$8[ebp]
	push	edx
	push	0
	call	DWORD PTR ?gEngfuncs@@3Ucl_enginefuncs_s@@A+28
	add	esp, 16					; 00000010H
	jmp	$LN15@DrawAmmoHi
$LN11@DrawAmmoHi:

; 162  : 			}
; 163  : 			else if( rgAmmoHistory[i].type == HISTSLOT_ITEM )

	mov	eax, DWORD PTR _i$23[ebp]
	shl	eax, 4
	mov	ecx, DWORD PTR _this$[ebp]
	cmp	DWORD PTR [ecx+eax], 3
	jne	$LN15@DrawAmmoHi

; 164  : 			{
; 165  : 				int r, g, b;
; 166  : 
; 167  : 				if( !rgAmmoHistory[i].iId )

	mov	eax, DWORD PTR _i$23[ebp]
	shl	eax, 4
	mov	ecx, DWORD PTR _this$[ebp]
	cmp	DWORD PTR [ecx+eax+12], 0
	jne	SHORT $LN16@DrawAmmoHi

; 168  : 					continue;  // sprite not loaded

	jmp	$LN2@DrawAmmoHi
$LN16@DrawAmmoHi:

; 169  : 
; 170  : 				wrect_t rect = gHUD.GetSpriteRect( rgAmmoHistory[i].iId );

	mov	eax, DWORD PTR _i$23[ebp]
	shl	eax, 4
	mov	ecx, DWORD PTR _this$[ebp]
	mov	edx, DWORD PTR [ecx+eax+12]
	push	edx
	mov	ecx, OFFSET ?gHUD@@3VCHud@@A		; gHUD
	call	?GetSpriteRect@CHud@@QAEAAUwrect_s@@H@Z	; CHud::GetSpriteRect
	mov	ecx, DWORD PTR [eax]
	mov	DWORD PTR _rect$4[ebp], ecx
	mov	edx, DWORD PTR [eax+4]
	mov	DWORD PTR _rect$4[ebp+4], edx
	mov	ecx, DWORD PTR [eax+8]
	mov	DWORD PTR _rect$4[ebp+8], ecx
	mov	edx, DWORD PTR [eax+12]
	mov	DWORD PTR _rect$4[ebp+12], edx

; 171  : 
; 172  : 				UnpackRGB( r, g, b, gHUD.m_iHUDColor );

	mov	eax, DWORD PTR ?gHUD@@3VCHud@@A+108
	push	eax
	lea	ecx, DWORD PTR _b$5[ebp]
	push	ecx
	lea	edx, DWORD PTR _g$6[ebp]
	push	edx
	lea	eax, DWORD PTR _r$7[ebp]
	push	eax
	call	?UnpackRGB@@YAXAAH00K@Z			; UnpackRGB
	add	esp, 16					; 00000010H

; 173  : 				float scale = ( rgAmmoHistory[i].DisplayTime - flTime ) * 80;

	mov	eax, DWORD PTR _i$23[ebp]
	shl	eax, 4
	mov	ecx, DWORD PTR _this$[ebp]
	movss	xmm0, DWORD PTR [ecx+eax+4]
	subss	xmm0, DWORD PTR _flTime$[ebp]
	mulss	xmm0, DWORD PTR __real@42a00000
	movss	DWORD PTR _scale$3[ebp], xmm0

; 174  : 				ScaleColors( r, g, b, min( scale, 255 ));

	movss	xmm0, DWORD PTR __real@437f0000
	comiss	xmm0, DWORD PTR _scale$3[ebp]
	jbe	SHORT $LN24@DrawAmmoHi
	movss	xmm0, DWORD PTR _scale$3[ebp]
	movss	DWORD PTR tv283[ebp], xmm0
	jmp	SHORT $LN25@DrawAmmoHi
$LN24@DrawAmmoHi:
	movss	xmm0, DWORD PTR __real@437f0000
	movss	DWORD PTR tv283[ebp], xmm0
$LN25@DrawAmmoHi:
	cvttss2si eax, DWORD PTR tv283[ebp]
	push	eax
	lea	ecx, DWORD PTR _b$5[ebp]
	push	ecx
	lea	edx, DWORD PTR _g$6[ebp]
	push	edx
	lea	eax, DWORD PTR _r$7[ebp]
	push	eax
	call	?ScaleColors@@YAXAAH00H@Z		; ScaleColors
	add	esp, 16					; 00000010H

; 175  : 
; 176  : 				int ypos = ScreenHeight - ( AMMO_PICKUP_PICK_HEIGHT + ( AMMO_PICKUP_GAP * i ));

	mov	eax, DWORD PTR ?gHR@@3VHistoryResource@@A+192
	add	eax, 5
	imul	eax, DWORD PTR _i$23[ebp]
	mov	ecx, DWORD PTR ?gHR@@3VHistoryResource@@A+192
	lea	edx, DWORD PTR [eax+ecx*2+32]
	mov	eax, DWORD PTR ?gHUD@@3VCHud@@A+8440
	sub	eax, edx
	mov	DWORD PTR _ypos$2[ebp], eax

; 177  : 				int xpos = ScreenWidth - (rect.right - rect.left) - 10;

	mov	eax, DWORD PTR _rect$4[ebp+4]
	sub	eax, DWORD PTR _rect$4[ebp]
	mov	ecx, DWORD PTR ?gHUD@@3VCHud@@A+8436
	sub	ecx, eax
	sub	ecx, 10					; 0000000aH
	mov	DWORD PTR _xpos$1[ebp], ecx

; 178  : 
; 179  : 				SPR_Set( gHUD.GetSprite( rgAmmoHistory[i].iId ), r, g, b );

	mov	eax, DWORD PTR _b$5[ebp]
	push	eax
	mov	ecx, DWORD PTR _g$6[ebp]
	push	ecx
	mov	edx, DWORD PTR _r$7[ebp]
	push	edx
	mov	eax, DWORD PTR _i$23[ebp]
	shl	eax, 4
	mov	ecx, DWORD PTR _this$[ebp]
	mov	edx, DWORD PTR [ecx+eax+12]
	push	edx
	mov	ecx, OFFSET ?gHUD@@3VCHud@@A		; gHUD
	call	?GetSprite@CHud@@QAEHH@Z		; CHud::GetSprite
	push	eax
	call	DWORD PTR ?gEngfuncs@@3Ucl_enginefuncs_s@@A+16
	add	esp, 16					; 00000010H

; 180  : 				SPR_DrawAdditive( 0, xpos, ypos, &rect );

	lea	eax, DWORD PTR _rect$4[ebp]
	push	eax
	mov	ecx, DWORD PTR _ypos$2[ebp]
	push	ecx
	mov	edx, DWORD PTR _xpos$1[ebp]
	push	edx
	push	0
	call	DWORD PTR ?gEngfuncs@@3Ucl_enginefuncs_s@@A+28
	add	esp, 16					; 00000010H
$LN15@DrawAmmoHi:

; 181  : 			}
; 182  : 		}
; 183  : 	}

	jmp	$LN2@DrawAmmoHi
$LN3@DrawAmmoHi:

; 184  : 	return 1;

	mov	eax, 1
$LN1@DrawAmmoHi:

; 185  : }

	pop	edi
	pop	esi
	pop	ebx
	mov	ecx, DWORD PTR __$ArrayPad$[ebp]
	xor	ecx, ebp
	call	@__security_check_cookie@4
	mov	esp, ebp
	pop	ebp
	ret	4
?DrawAmmoHistory@HistoryResource@@QAEHM@Z ENDP		; HistoryResource::DrawAmmoHistory
_TEXT	ENDS
; Function compile flags: /Odtp /ZI
; File d:\!diffusion 2020\source code 2022\client-server\client\ammohistory.cpp
;	COMDAT ?CheckClearHistory@HistoryResource@@QAEXXZ
_TEXT	SEGMENT
_i$1 = -8						; size = 4
_this$ = -4						; size = 4
?CheckClearHistory@HistoryResource@@QAEXXZ PROC		; HistoryResource::CheckClearHistory, COMDAT
; _this$ = ecx

; 90   : {

	push	ebp
	mov	ebp, esp
	sub	esp, 72					; 00000048H
	push	ebx
	push	esi
	push	edi
	mov	DWORD PTR _this$[ebp], ecx

; 91   : 	for( int i = 0; i < MAX_HISTORY; i++ )

	mov	DWORD PTR _i$1[ebp], 0
	jmp	SHORT $LN4@CheckClear
$LN2@CheckClear:
	mov	eax, DWORD PTR _i$1[ebp]
	add	eax, 1
	mov	DWORD PTR _i$1[ebp], eax
$LN4@CheckClear:
	cmp	DWORD PTR _i$1[ebp], 12			; 0000000cH
	jge	SHORT $LN3@CheckClear

; 92   : 	{
; 93   : 		if( rgAmmoHistory[i].type )

	mov	eax, DWORD PTR _i$1[ebp]
	shl	eax, 4
	mov	ecx, DWORD PTR _this$[ebp]
	cmp	DWORD PTR [ecx+eax], 0
	je	SHORT $LN5@CheckClear

; 94   : 			return;

	jmp	SHORT $LN1@CheckClear
$LN5@CheckClear:

; 95   : 	}

	jmp	SHORT $LN2@CheckClear
$LN3@CheckClear:

; 96   : 
; 97   : 	iCurrentHistorySlot = 0;

	mov	eax, DWORD PTR _this$[ebp]
	mov	DWORD PTR [eax+196], 0
$LN1@CheckClear:

; 98   : }

	pop	edi
	pop	esi
	pop	ebx
	mov	esp, ebp
	pop	ebp
	ret	0
?CheckClearHistory@HistoryResource@@QAEXXZ ENDP		; HistoryResource::CheckClearHistory
_TEXT	ENDS
; Function compile flags: /Odtp /ZI
; File d:\!diffusion 2020\source code 2022\client-server\client\ammohistory.cpp
;	COMDAT ?AddToHistory@HistoryResource@@QAEXHPBDH@Z
_TEXT	SEGMENT
_i$ = -12						; size = 4
_freeslot$ = -8						; size = 4
_this$ = -4						; size = 4
_iType$ = 8						; size = 4
_szName$ = 12						; size = 4
_iCount$ = 16						; size = 4
?AddToHistory@HistoryResource@@QAEXHPBDH@Z PROC		; HistoryResource::AddToHistory, COMDAT
; _this$ = ecx

; 63   : {

	push	ebp
	mov	ebp, esp
	sub	esp, 76					; 0000004cH
	push	ebx
	push	esi
	push	edi
	mov	DWORD PTR _this$[ebp], ecx

; 64   : 	if( iType != HISTSLOT_ITEM )

	cmp	DWORD PTR _iType$[ebp], 3
	je	SHORT $LN2@AddToHisto

; 65   : 		return;

	jmp	$LN1@AddToHisto
$LN2@AddToHisto:

; 66   : 
; 67   : 	if(((( AMMO_PICKUP_GAP * iCurrentHistorySlot ) + AMMO_PICKUP_PICK_HEIGHT ) > AMMO_PICKUP_HEIGHT_MAX ) || ( iCurrentHistorySlot >= MAX_HISTORY ))

	mov	eax, DWORD PTR ?gHR@@3VHistoryResource@@A+192
	add	eax, 5
	mov	ecx, DWORD PTR _this$[ebp]
	imul	eax, DWORD PTR [ecx+196]
	mov	edx, DWORD PTR ?gHR@@3VHistoryResource@@A+192
	lea	eax, DWORD PTR [eax+edx*2+32]
	mov	ecx, DWORD PTR ?gHUD@@3VCHud@@A+8440
	sub	ecx, 100				; 00000064H
	cmp	eax, ecx
	jg	SHORT $LN4@AddToHisto
	mov	eax, DWORD PTR _this$[ebp]
	cmp	DWORD PTR [eax+196], 12			; 0000000cH
	jl	SHORT $LN3@AddToHisto
$LN4@AddToHisto:

; 68   : 	{	
; 69   : 		// the pic would have to be drawn too high
; 70   : 		// so start from the bottom
; 71   : 		iCurrentHistorySlot = 0;

	mov	eax, DWORD PTR _this$[ebp]
	mov	DWORD PTR [eax+196], 0
$LN3@AddToHisto:

; 72   : 	}
; 73   : 
; 74   : 	HIST_ITEM *freeslot = &rgAmmoHistory[iCurrentHistorySlot++];  // default to just writing to the first slot

	mov	eax, DWORD PTR _this$[ebp]
	mov	ecx, DWORD PTR [eax+196]
	shl	ecx, 4
	add	ecx, DWORD PTR _this$[ebp]
	mov	DWORD PTR _freeslot$[ebp], ecx
	mov	edx, DWORD PTR _this$[ebp]
	mov	eax, DWORD PTR [edx+196]
	add	eax, 1
	mov	ecx, DWORD PTR _this$[ebp]
	mov	DWORD PTR [ecx+196], eax

; 75   : 
; 76   : 	// I am really unhappy with all the code in this file
; 77   : 	int i = gHUD.GetSpriteIndex( szName );

	mov	eax, DWORD PTR _szName$[ebp]
	push	eax
	mov	ecx, OFFSET ?gHUD@@3VCHud@@A		; gHUD
	call	?GetSpriteIndex@CHud@@QAEHPBD@Z		; CHud::GetSpriteIndex
	mov	DWORD PTR _i$[ebp], eax

; 78   : 	if( i == -1 ) return;  // unknown sprite name, don't add it to history

	cmp	DWORD PTR _i$[ebp], -1
	jne	SHORT $LN5@AddToHisto
	jmp	SHORT $LN1@AddToHisto
$LN5@AddToHisto:

; 79   : 
; 80   : 	freeslot->iId = i;

	mov	eax, DWORD PTR _freeslot$[ebp]
	mov	ecx, DWORD PTR _i$[ebp]
	mov	DWORD PTR [eax+12], ecx

; 81   : 	freeslot->type = iType;

	mov	eax, DWORD PTR _freeslot$[ebp]
	mov	ecx, DWORD PTR _iType$[ebp]
	mov	DWORD PTR [eax], ecx

; 82   : 	freeslot->iCount = iCount;

	mov	eax, DWORD PTR _freeslot$[ebp]
	mov	ecx, DWORD PTR _iCount$[ebp]
	mov	DWORD PTR [eax+8], ecx

; 83   : 
; 84   : 	HISTORY_DRAW_TIME = CVAR_GET_FLOAT( "hud_drawhistory_time" );

	push	OFFSET ??_C@_0BF@FCIGCOBI@hud_drawhistory_time?$AA@
	call	DWORD PTR ?gEngfuncs@@3Ucl_enginefuncs_s@@A+60
	add	esp, 4
	call	__ftol2_sse
	mov	DWORD PTR ?HISTORY_DRAW_TIME@@3HA, eax	; HISTORY_DRAW_TIME

; 85   : 	freeslot->DisplayTime = gHUD.m_flTime + HISTORY_DRAW_TIME;

	cvtsi2ss xmm0, DWORD PTR ?HISTORY_DRAW_TIME@@3HA ; HISTORY_DRAW_TIME
	addss	xmm0, DWORD PTR ?gHUD@@3VCHud@@A+32
	mov	eax, DWORD PTR _freeslot$[ebp]
	movss	DWORD PTR [eax+4], xmm0
$LN1@AddToHisto:

; 86   : }

	pop	edi
	pop	esi
	pop	ebx
	mov	esp, ebp
	pop	ebp
	ret	12					; 0000000cH
?AddToHistory@HistoryResource@@QAEXHPBDH@Z ENDP		; HistoryResource::AddToHistory
_TEXT	ENDS
; Function compile flags: /Odtp /ZI
; File d:\!diffusion 2020\source code 2022\client-server\client\ammohistory.cpp
;	COMDAT ?AddToHistory@HistoryResource@@QAEXHHH@Z
_TEXT	SEGMENT
_freeslot$ = -8						; size = 4
_this$ = -4						; size = 4
_iType$ = 8						; size = 4
_iId$ = 12						; size = 4
_iCount$ = 16						; size = 4
?AddToHistory@HistoryResource@@QAEXHHH@Z PROC		; HistoryResource::AddToHistory, COMDAT
; _this$ = ecx

; 42   : {

	push	ebp
	mov	ebp, esp
	sub	esp, 72					; 00000048H
	push	ebx
	push	esi
	push	edi
	mov	DWORD PTR _this$[ebp], ecx

; 43   : 	if( iType == HISTSLOT_AMMO && !iCount )

	cmp	DWORD PTR _iType$[ebp], 1
	jne	SHORT $LN2@AddToHisto
	cmp	DWORD PTR _iCount$[ebp], 0
	jne	SHORT $LN2@AddToHisto

; 44   : 		return;  // no amount, so don't add

	jmp	$LN1@AddToHisto
$LN2@AddToHisto:

; 45   : 
; 46   : 	if(((( AMMO_PICKUP_GAP * iCurrentHistorySlot ) + AMMO_PICKUP_PICK_HEIGHT ) > AMMO_PICKUP_HEIGHT_MAX ) || ( iCurrentHistorySlot >= MAX_HISTORY ))

	mov	eax, DWORD PTR ?gHR@@3VHistoryResource@@A+192
	add	eax, 5
	mov	ecx, DWORD PTR _this$[ebp]
	imul	eax, DWORD PTR [ecx+196]
	mov	edx, DWORD PTR ?gHR@@3VHistoryResource@@A+192
	lea	eax, DWORD PTR [eax+edx*2+32]
	mov	ecx, DWORD PTR ?gHUD@@3VCHud@@A+8440
	sub	ecx, 100				; 00000064H
	cmp	eax, ecx
	jg	SHORT $LN4@AddToHisto
	mov	eax, DWORD PTR _this$[ebp]
	cmp	DWORD PTR [eax+196], 12			; 0000000cH
	jl	SHORT $LN3@AddToHisto
$LN4@AddToHisto:

; 47   : 	{	
; 48   : 		// the pic would have to be drawn too high
; 49   : 		// so start from the bottom
; 50   : 		iCurrentHistorySlot = 0;

	mov	eax, DWORD PTR _this$[ebp]
	mov	DWORD PTR [eax+196], 0
$LN3@AddToHisto:

; 51   : 	}
; 52   : 	
; 53   : 	HIST_ITEM *freeslot = &rgAmmoHistory[iCurrentHistorySlot++];  // default to just writing to the first slot

	mov	eax, DWORD PTR _this$[ebp]
	mov	ecx, DWORD PTR [eax+196]
	shl	ecx, 4
	add	ecx, DWORD PTR _this$[ebp]
	mov	DWORD PTR _freeslot$[ebp], ecx
	mov	edx, DWORD PTR _this$[ebp]
	mov	eax, DWORD PTR [edx+196]
	add	eax, 1
	mov	ecx, DWORD PTR _this$[ebp]
	mov	DWORD PTR [ecx+196], eax

; 54   : 	HISTORY_DRAW_TIME = CVAR_GET_FLOAT( "hud_drawhistory_time" );

	push	OFFSET ??_C@_0BF@FCIGCOBI@hud_drawhistory_time?$AA@
	call	DWORD PTR ?gEngfuncs@@3Ucl_enginefuncs_s@@A+60
	add	esp, 4
	call	__ftol2_sse
	mov	DWORD PTR ?HISTORY_DRAW_TIME@@3HA, eax	; HISTORY_DRAW_TIME

; 55   : 
; 56   : 	freeslot->type = iType;

	mov	eax, DWORD PTR _freeslot$[ebp]
	mov	ecx, DWORD PTR _iType$[ebp]
	mov	DWORD PTR [eax], ecx

; 57   : 	freeslot->iId = iId;

	mov	eax, DWORD PTR _freeslot$[ebp]
	mov	ecx, DWORD PTR _iId$[ebp]
	mov	DWORD PTR [eax+12], ecx

; 58   : 	freeslot->iCount = iCount;

	mov	eax, DWORD PTR _freeslot$[ebp]
	mov	ecx, DWORD PTR _iCount$[ebp]
	mov	DWORD PTR [eax+8], ecx

; 59   : 	freeslot->DisplayTime = gHUD.m_flTime + HISTORY_DRAW_TIME;

	cvtsi2ss xmm0, DWORD PTR ?HISTORY_DRAW_TIME@@3HA ; HISTORY_DRAW_TIME
	addss	xmm0, DWORD PTR ?gHUD@@3VCHud@@A+32
	mov	eax, DWORD PTR _freeslot$[ebp]
	movss	DWORD PTR [eax+4], xmm0
$LN1@AddToHisto:

; 60   : }

	pop	edi
	pop	esi
	pop	ebx
	mov	esp, ebp
	pop	ebp
	ret	12					; 0000000cH
?AddToHistory@HistoryResource@@QAEXHHH@Z ENDP		; HistoryResource::AddToHistory
_TEXT	ENDS
; Function compile flags: /Odtp /ZI
; File d:\!diffusion 2020\source code 2022\client-server\client\ammohistory.h
;	COMDAT ?GetWeapon@WeaponsResource@@QAEPAUWEAPON@@H@Z
_TEXT	SEGMENT
_this$ = -4						; size = 4
_iId$ = 8						; size = 4
?GetWeapon@WeaponsResource@@QAEPAUWEAPON@@H@Z PROC	; WeaponsResource::GetWeapon, COMDAT
; _this$ = ecx

; 59   : 	WEAPON *GetWeapon( int iId ) { return &rgWeapons[iId]; }

	push	ebp
	mov	ebp, esp
	sub	esp, 68					; 00000044H
	push	ebx
	push	esi
	push	edi
	mov	DWORD PTR _this$[ebp], ecx
	imul	eax, DWORD PTR _iId$[ebp], 328
	add	eax, DWORD PTR _this$[ebp]
	pop	edi
	pop	esi
	pop	ebx
	mov	esp, ebp
	pop	ebp
	ret	4
?GetWeapon@WeaponsResource@@QAEPAUWEAPON@@H@Z ENDP	; WeaponsResource::GetWeapon
_TEXT	ENDS
; Function compile flags: /Odtp /ZI
; File d:\!diffusion 2020\source code 2022\client-server\client\utils.h
;	COMDAT ?UnpackRGB@@YAXAAH00K@Z
_TEXT	SEGMENT
_r$ = 8							; size = 4
_g$ = 12						; size = 4
_b$ = 16						; size = 4
_ulRGB$ = 20						; size = 4
?UnpackRGB@@YAXAAH00K@Z PROC				; UnpackRGB, COMDAT

; 98   : {\

	push	ebp
	mov	ebp, esp
	sub	esp, 64					; 00000040H
	push	ebx
	push	esi
	push	edi

; 99   : 	r = (ulRGB & 0xFF0000) >>16;\

	mov	eax, DWORD PTR _ulRGB$[ebp]
	and	eax, 16711680				; 00ff0000H
	shr	eax, 16					; 00000010H
	mov	ecx, DWORD PTR _r$[ebp]
	mov	DWORD PTR [ecx], eax

; 100  : 	g = (ulRGB & 0xFF00) >> 8;\

	mov	eax, DWORD PTR _ulRGB$[ebp]
	and	eax, 65280				; 0000ff00H
	shr	eax, 8
	mov	ecx, DWORD PTR _g$[ebp]
	mov	DWORD PTR [ecx], eax

; 101  : 	b = ulRGB & 0xFF;\

	mov	eax, DWORD PTR _ulRGB$[ebp]
	and	eax, 255				; 000000ffH
	mov	ecx, DWORD PTR _b$[ebp]
	mov	DWORD PTR [ecx], eax

; 102  : }

	pop	edi
	pop	esi
	pop	ebx
	mov	esp, ebp
	pop	ebp
	ret	0
?UnpackRGB@@YAXAAH00K@Z ENDP				; UnpackRGB
_TEXT	ENDS
; Function compile flags: /Odtp /ZI
; File d:\!diffusion 2020\source code 2022\client-server\client\hud.h
;	COMDAT ?GetSpriteRect@CHud@@QAEAAUwrect_s@@H@Z
_TEXT	SEGMENT
_this$ = -4						; size = 4
_index$ = 8						; size = 4
?GetSpriteRect@CHud@@QAEAAUwrect_s@@H@Z PROC		; CHud::GetSpriteRect, COMDAT
; _this$ = ecx

; 952  : 	wrect_t& GetSpriteRect( int index ) { return m_rgrcRects[index]; }

	push	ebp
	mov	ebp, esp
	sub	esp, 68					; 00000044H
	push	ebx
	push	esi
	push	edi
	mov	DWORD PTR _this$[ebp], ecx
	mov	eax, DWORD PTR _index$[ebp]
	shl	eax, 4
	mov	ecx, DWORD PTR _this$[ebp]
	add	eax, DWORD PTR [ecx+232]
	pop	edi
	pop	esi
	pop	ebx
	mov	esp, ebp
	pop	ebp
	ret	4
?GetSpriteRect@CHud@@QAEAAUwrect_s@@H@Z ENDP		; CHud::GetSpriteRect
_TEXT	ENDS
; Function compile flags: /Odtp /ZI
; File d:\!diffusion 2020\source code 2022\client-server\client\hud.h
;	COMDAT ?GetSprite@CHud@@QAEHH@Z
_TEXT	SEGMENT
tv68 = -72						; size = 4
_this$ = -4						; size = 4
_index$ = 8						; size = 4
?GetSprite@CHud@@QAEHH@Z PROC				; CHud::GetSprite, COMDAT
; _this$ = ecx

; 951  : 	SpriteHandle GetSprite( int index ) { return (index < 0) ? 0 : m_rghSprites[index]; }

	push	ebp
	mov	ebp, esp
	sub	esp, 72					; 00000048H
	push	ebx
	push	esi
	push	edi
	mov	DWORD PTR _this$[ebp], ecx
	cmp	DWORD PTR _index$[ebp], 0
	jge	SHORT $LN3@GetSprite
	mov	DWORD PTR tv68[ebp], 0
	jmp	SHORT $LN4@GetSprite
$LN3@GetSprite:
	mov	eax, DWORD PTR _this$[ebp]
	mov	ecx, DWORD PTR [eax+228]
	mov	edx, DWORD PTR _index$[ebp]
	mov	eax, DWORD PTR [ecx+edx*4]
	mov	DWORD PTR tv68[ebp], eax
$LN4@GetSprite:
	mov	eax, DWORD PTR tv68[ebp]
	pop	edi
	pop	esi
	pop	ebx
	mov	esp, ebp
	pop	ebp
	ret	4
?GetSprite@CHud@@QAEHH@Z ENDP				; CHud::GetSprite
_TEXT	ENDS
; Function compile flags: /Odtp /ZI
;	COMDAT ??__G@YGXPAX0IIP6EPAX00@Z@Z
_TEXT	SEGMENT
tv66 = -68						; size = 4
___t$ = 8						; size = 4
___u$ = 12						; size = 4
___s$ = 16						; size = 4
___n$ = 20						; size = 4
___f$ = 24						; size = 4
??__G@YGXPAX0IIP6EPAX00@Z@Z PROC			; `vector copy constructor iterator', COMDAT
	push	ebp
	mov	ebp, esp
	sub	esp, 68					; 00000044H
	push	ebx
	push	esi
	push	edi
$LN2@vector:
	mov	eax, DWORD PTR ___n$[ebp]
	mov	DWORD PTR tv66[ebp], eax
	mov	ecx, DWORD PTR ___n$[ebp]
	sub	ecx, 1
	mov	DWORD PTR ___n$[ebp], ecx
	cmp	DWORD PTR tv66[ebp], 0
	jbe	SHORT $LN1@vector
	mov	eax, DWORD PTR ___u$[ebp]
	push	eax
	mov	ecx, DWORD PTR ___t$[ebp]
	call	DWORD PTR ___f$[ebp]
	mov	eax, DWORD PTR ___t$[ebp]
	add	eax, DWORD PTR ___s$[ebp]
	mov	DWORD PTR ___t$[ebp], eax
	mov	eax, DWORD PTR ___u$[ebp]
	add	eax, DWORD PTR ___s$[ebp]
	mov	DWORD PTR ___u$[ebp], eax
	jmp	SHORT $LN2@vector
$LN1@vector:
	pop	edi
	pop	esi
	pop	ebx
	mov	esp, ebp
	pop	ebp
	ret	20					; 00000014H
??__G@YGXPAX0IIP6EPAX00@Z@Z ENDP			; `vector copy constructor iterator'
_TEXT	ENDS
; Function compile flags: /Odtp /ZI
;	COMDAT ??_H@YGXPAXIIP6EPAX0@Z@Z
_TEXT	SEGMENT
tv66 = -68						; size = 4
___t$ = 8						; size = 4
___s$ = 12						; size = 4
___n$ = 16						; size = 4
___f$ = 20						; size = 4
??_H@YGXPAXIIP6EPAX0@Z@Z PROC				; `vector constructor iterator', COMDAT
	push	ebp
	mov	ebp, esp
	sub	esp, 68					; 00000044H
	push	ebx
	push	esi
	push	edi
$LN2@vector:
	mov	eax, DWORD PTR ___n$[ebp]
	mov	DWORD PTR tv66[ebp], eax
	mov	ecx, DWORD PTR ___n$[ebp]
	sub	ecx, 1
	mov	DWORD PTR ___n$[ebp], ecx
	cmp	DWORD PTR tv66[ebp], 0
	jbe	SHORT $LN1@vector
	mov	ecx, DWORD PTR ___t$[ebp]
	call	DWORD PTR ___f$[ebp]
	mov	eax, DWORD PTR ___t$[ebp]
	add	eax, DWORD PTR ___s$[ebp]
	mov	DWORD PTR ___t$[ebp], eax
	jmp	SHORT $LN2@vector
$LN1@vector:
	pop	edi
	pop	esi
	pop	ebx
	mov	esp, ebp
	pop	ebp
	ret	16					; 00000010H
??_H@YGXPAXIIP6EPAX0@Z@Z ENDP				; `vector constructor iterator'
_TEXT	ENDS
END
