; Listing generated by Microsoft (R) Optimizing Compiler Version 19.00.24247.2 

	TITLE	D:\!DIFFUSION 2020\source code 2022\client-server\client\ammo.cpp
	.686P
	.XMM
	include listing.inc
	.model	flat

INCLUDELIB LIBCMT
INCLUDELIB OLDNAMES

PUBLIC	?g_weaponselect@@3HA				; g_weaponselect
PUBLIC	?gWR@@3VWeaponsResource@@A			; gWR
PUBLIC	?gpActiveSel@@3PAUWEAPON@@A			; gpActiveSel
PUBLIC	?gpLastSel@@3PAUWEAPON@@A			; gpLastSel
PUBLIC	?giBucketHeight@@3HA				; giBucketHeight
PUBLIC	?giBucketWidth@@3HA				; giBucketWidth
PUBLIC	?giABHeight@@3HA				; giABHeight
PUBLIC	?giABWidth@@3HA					; giABWidth
PUBLIC	?ghsprBuckets@@3HA				; ghsprBuckets
_BSS	SEGMENT
?g_weaponselect@@3HA DD 01H DUP (?)			; g_weaponselect
?gWR@@3VWeaponsResource@@A DB 05370H DUP (?)		; gWR
?gpActiveSel@@3PAUWEAPON@@A DD 01H DUP (?)		; gpActiveSel
?gpLastSel@@3PAUWEAPON@@A DD 01H DUP (?)		; gpLastSel
?giBucketHeight@@3HA DD 01H DUP (?)			; giBucketHeight
?giBucketWidth@@3HA DD 01H DUP (?)			; giBucketWidth
?giABHeight@@3HA DD 01H DUP (?)				; giABHeight
?giABWidth@@3HA DD 01H DUP (?)				; giABWidth
?ghsprBuckets@@3HA DD 01H DUP (?)			; ghsprBuckets
_BSS	ENDS
PUBLIC	??_H@YGXPAXIIP6EPAX0@Z@Z			; `vector constructor iterator'
PUBLIC	??__G@YGXPAX0IIP6EPAX00@Z@Z			; `vector copy constructor iterator'
PUBLIC	?PlaySoundA@@YAXPADM@Z				; PlaySoundA
PUBLIC	?Init@CHudAmmo@@UAEHXZ				; CHudAmmo::Init
PUBLIC	?VidInit@CHudAmmo@@UAEHXZ			; CHudAmmo::VidInit
PUBLIC	?Draw@CHudAmmo@@UAEHM@Z				; CHudAmmo::Draw
PUBLIC	?Think@CHudAmmo@@UAEXXZ				; CHudAmmo::Think
PUBLIC	?Reset@CHudAmmo@@UAEXXZ				; CHudAmmo::Reset
PUBLIC	?DrawWList@CHudAmmo@@QAEHM@Z			; CHudAmmo::DrawWList
PUBLIC	?MsgFunc_CurWeapon@CHudAmmo@@QAEHPBDHPAX@Z	; CHudAmmo::MsgFunc_CurWeapon
PUBLIC	?MsgFunc_WeaponList@CHudAmmo@@QAEHPBDHPAX@Z	; CHudAmmo::MsgFunc_WeaponList
PUBLIC	?MsgFunc_AmmoPickup@CHudAmmo@@QAEHPBDHPAX@Z	; CHudAmmo::MsgFunc_AmmoPickup
PUBLIC	?MsgFunc_WeapPickup@CHudAmmo@@QAEHPBDHPAX@Z	; CHudAmmo::MsgFunc_WeapPickup
PUBLIC	?MsgFunc_ItemPickup@CHudAmmo@@QAEHPBDHPAX@Z	; CHudAmmo::MsgFunc_ItemPickup
PUBLIC	?MsgFunc_HideWeapon@CHudAmmo@@QAEHPBDHPAX@Z	; CHudAmmo::MsgFunc_HideWeapon
PUBLIC	?MsgFunc_AmmoX@CHudAmmo@@QAEHPBDHPAX@Z		; CHudAmmo::MsgFunc_AmmoX
PUBLIC	?SlotInput@CHudAmmo@@QAEXH@Z			; CHudAmmo::SlotInput
PUBLIC	?UserCmd_Slot1@CHudAmmo@@QAAXXZ			; CHudAmmo::UserCmd_Slot1
PUBLIC	?UserCmd_Slot2@CHudAmmo@@QAAXXZ			; CHudAmmo::UserCmd_Slot2
PUBLIC	?UserCmd_Slot3@CHudAmmo@@QAAXXZ			; CHudAmmo::UserCmd_Slot3
PUBLIC	?UserCmd_Slot4@CHudAmmo@@QAAXXZ			; CHudAmmo::UserCmd_Slot4
PUBLIC	?UserCmd_Slot5@CHudAmmo@@QAAXXZ			; CHudAmmo::UserCmd_Slot5
PUBLIC	?UserCmd_Slot6@CHudAmmo@@QAAXXZ			; CHudAmmo::UserCmd_Slot6
PUBLIC	?UserCmd_Slot7@CHudAmmo@@QAAXXZ			; CHudAmmo::UserCmd_Slot7
PUBLIC	?UserCmd_Slot8@CHudAmmo@@QAAXXZ			; CHudAmmo::UserCmd_Slot8
PUBLIC	?UserCmd_Slot9@CHudAmmo@@QAAXXZ			; CHudAmmo::UserCmd_Slot9
PUBLIC	?UserCmd_Slot10@CHudAmmo@@QAAXXZ		; CHudAmmo::UserCmd_Slot10
PUBLIC	?UserCmd_Close@CHudAmmo@@QAAXXZ			; CHudAmmo::UserCmd_Close
PUBLIC	?UserCmd_NextWeapon@CHudAmmo@@QAAXXZ		; CHudAmmo::UserCmd_NextWeapon
PUBLIC	?UserCmd_PrevWeapon@CHudAmmo@@QAAXXZ		; CHudAmmo::UserCmd_PrevWeapon
PUBLIC	?AmmoSetCrosshair@CHudAmmo@@QAEXHUwrect_s@@HHH@Z ; CHudAmmo::AmmoSetCrosshair
PUBLIC	?GetSprite@CHud@@QAEHH@Z			; CHud::GetSprite
PUBLIC	?GetSpriteRect@CHud@@QAEAAUwrect_s@@H@Z		; CHud::GetSpriteRect
PUBLIC	?HasWeapon@CHud@@QAEHH@Z			; CHud::HasWeapon
PUBLIC	?UnpackRGB@@YAXAAH00K@Z				; UnpackRGB
PUBLIC	?Init@WeaponsResource@@QAEXXZ			; WeaponsResource::Init
PUBLIC	?Reset@WeaponsResource@@QAEXXZ			; WeaponsResource::Reset
PUBLIC	?GetWeapon@WeaponsResource@@QAEPAUWEAPON@@H@Z	; WeaponsResource::GetWeapon
PUBLIC	?AddWeapon@WeaponsResource@@QAEXPAUWEAPON@@@Z	; WeaponsResource::AddWeapon
PUBLIC	?PickupWeapon@WeaponsResource@@QAEXPAUWEAPON@@@Z ; WeaponsResource::PickupWeapon
PUBLIC	?DropWeapon@WeaponsResource@@QAEXPAUWEAPON@@@Z	; WeaponsResource::DropWeapon
PUBLIC	?LoadAllWeaponSprites@WeaponsResource@@QAEXXZ	; WeaponsResource::LoadAllWeaponSprites
PUBLIC	?GetWeaponSlot@WeaponsResource@@QAEPAUWEAPON@@HH@Z ; WeaponsResource::GetWeaponSlot
PUBLIC	?LoadWeaponSprites@WeaponsResource@@QAEXPAUWEAPON@@@Z ; WeaponsResource::LoadWeaponSprites
PUBLIC	?GetFirstPos@WeaponsResource@@QAEPAUWEAPON@@H@Z	; WeaponsResource::GetFirstPos
PUBLIC	?SelectSlot@WeaponsResource@@QAEXHHH@Z		; WeaponsResource::SelectSlot
PUBLIC	?GetNextActivePos@WeaponsResource@@QAEPAUWEAPON@@HH@Z ; WeaponsResource::GetNextActivePos
PUBLIC	?HasAmmo@WeaponsResource@@QAEHPAUWEAPON@@@Z	; WeaponsResource::HasAmmo
PUBLIC	?SetAmmo@WeaponsResource@@QAEXHH@Z		; WeaponsResource::SetAmmo
PUBLIC	?GetAmmoPicFromWeapon@WeaponsResource@@QAEPAHHAAUwrect_s@@@Z ; WeaponsResource::GetAmmoPicFromWeapon
PUBLIC	?CountAmmo@WeaponsResource@@QAEHH@Z		; WeaponsResource::CountAmmo
PUBLIC	?Init@HistoryResource@@QAEXXZ			; HistoryResource::Init
PUBLIC	?Reset@HistoryResource@@QAEXXZ			; HistoryResource::Reset
PUBLIC	?__MsgFunc_CurWeapon@@YAHPBDHPAX@Z		; __MsgFunc_CurWeapon
PUBLIC	?__MsgFunc_WeaponList@@YAHPBDHPAX@Z		; __MsgFunc_WeaponList
PUBLIC	?__MsgFunc_AmmoX@@YAHPBDHPAX@Z			; __MsgFunc_AmmoX
PUBLIC	?__MsgFunc_AmmoPickup@@YAHPBDHPAX@Z		; __MsgFunc_AmmoPickup
PUBLIC	?__MsgFunc_WeapPickup@@YAHPBDHPAX@Z		; __MsgFunc_WeapPickup
PUBLIC	?__MsgFunc_HideWeapon@@YAHPBDHPAX@Z		; __MsgFunc_HideWeapon
PUBLIC	?__MsgFunc_ItemPickup@@YAHPBDHPAX@Z		; __MsgFunc_ItemPickup
PUBLIC	?__CmdFunc_Slot1@@YAXXZ				; __CmdFunc_Slot1
PUBLIC	?__CmdFunc_Slot2@@YAXXZ				; __CmdFunc_Slot2
PUBLIC	?__CmdFunc_Slot3@@YAXXZ				; __CmdFunc_Slot3
PUBLIC	?__CmdFunc_Slot4@@YAXXZ				; __CmdFunc_Slot4
PUBLIC	?__CmdFunc_Slot5@@YAXXZ				; __CmdFunc_Slot5
PUBLIC	?__CmdFunc_Slot6@@YAXXZ				; __CmdFunc_Slot6
PUBLIC	?__CmdFunc_Slot7@@YAXXZ				; __CmdFunc_Slot7
PUBLIC	?__CmdFunc_Slot8@@YAXXZ				; __CmdFunc_Slot8
PUBLIC	?__CmdFunc_Slot9@@YAXXZ				; __CmdFunc_Slot9
PUBLIC	?__CmdFunc_Slot10@@YAXXZ			; __CmdFunc_Slot10
PUBLIC	?__CmdFunc_Close@@YAXXZ				; __CmdFunc_Close
PUBLIC	?__CmdFunc_NextWeapon@@YAXXZ			; __CmdFunc_NextWeapon
PUBLIC	?__CmdFunc_PrevWeapon@@YAXXZ			; __CmdFunc_PrevWeapon
PUBLIC	?DrawBar@@YAHHHHHM@Z				; DrawBar
PUBLIC	?DrawAmmoBar@@YAXPAUWEAPON@@HHHH@Z		; DrawAmmoBar
PUBLIC	??_C@_0P@LBFCELJB@sprites?1?$CFs?4txt?$AA@	; `string'
PUBLIC	??_C@_09NBNKIDFG@crosshair?$AA@			; `string'
PUBLIC	??_C@_0P@HEMMIFBG@sprites?1?$CFs?4spr?$AA@	; `string'
PUBLIC	??_C@_07KHNCKFFH@autoaim?$AA@			; `string'
PUBLIC	??_C@_04HKCCIOCO@zoom?$AA@			; `string'
PUBLIC	??_C@_0N@FNDHLGPO@zoom_autoaim?$AA@		; `string'
PUBLIC	??_C@_06GEPNGEJI@weapon?$AA@			; `string'
PUBLIC	??_C@_08JALFICBG@weapon_s?$AA@			; `string'
PUBLIC	??_C@_04PGKJFGNK@ammo?$AA@			; `string'
PUBLIC	??_C@_05ILIAMGON@ammo2?$AA@			; `string'
PUBLIC	??_C@_09PEGKEGNI@CurWeapon?$AA@			; `string'
PUBLIC	??_C@_0L@JMLCHIOL@WeaponList?$AA@		; `string'
PUBLIC	??_C@_0L@EANOMKOP@AmmoPickup?$AA@		; `string'
PUBLIC	??_C@_0L@FGOFFEAA@WeapPickup?$AA@		; `string'
PUBLIC	??_C@_0L@NIFLCEON@ItemPickup?$AA@		; `string'
PUBLIC	??_C@_0L@IFFGJKPB@HideWeapon?$AA@		; `string'
PUBLIC	??_C@_05BDDOEAPG@AmmoX?$AA@			; `string'
PUBLIC	??_C@_05GJKJJLBE@slot1?$AA@			; `string'
PUBLIC	??_C@_05ECIEMINH@slot2?$AA@			; `string'
PUBLIC	??_C@_05FLJPPJJG@slot3?$AA@			; `string'
PUBLIC	??_C@_05BENOGPFB@slot4?$AA@			; `string'
PUBLIC	??_C@_05NMFFOBA@slot5?$AA@			; `string'
PUBLIC	??_C@_05CGOIANND@slot6?$AA@			; `string'
PUBLIC	??_C@_05DPPDDMJC@slot7?$AA@			; `string'
PUBLIC	??_C@_05LIGLCAFN@slot8?$AA@			; `string'
PUBLIC	??_C@_05KBHABBBM@slot9?$AA@			; `string'
PUBLIC	??_C@_06MFPFELBF@slot10?$AA@			; `string'
PUBLIC	??_C@_0N@INMGFMHB@cancelselect?$AA@		; `string'
PUBLIC	??_C@_07GIMAAJGF@invnext?$AA@			; `string'
PUBLIC	??_C@_07FMBGBNAB@invprev?$AA@			; `string'
PUBLIC	??_C@_01BMBHCPLG@5?$AA@				; `string'
PUBLIC	??_C@_0BF@FCIGCOBI@hud_drawhistory_time?$AA@	; `string'
PUBLIC	??_C@_01GBGANLPD@0?$AA@				; `string'
PUBLIC	??_C@_0P@HAOPMPEA@hud_fastswitch?$AA@		; `string'
PUBLIC	??_C@_07EPJMIDHL@bucket1?$AA@			; `string'
PUBLIC	??_C@_09DFNMPCAJ@selection?$AA@			; `string'
PUBLIC	??_C@_07HOFKAOOK@divider?$AA@			; `string'
PUBLIC	??_C@_0BH@NNKMIIKN@common?1wpn_select1?4wav?$AA@ ; `string'
PUBLIC	??_C@_0BH@FLDIPKAD@common?1wpn_select2?4wav?$AA@ ; `string'
PUBLIC	??_C@_0BH@JAGECJKG@common?1wpn_select3?4wav?$AA@ ; `string'
PUBLIC	??_C@_0BF@JMGAEGF@common?1wpn_hudon?4wav?$AA@	; `string'
PUBLIC	??_C@_0BK@JHOFLAAJ@common?1wpn_moveselect?4wav?$AA@ ; `string'
PUBLIC	??_C@_0BG@MNEIFLMJ@common?1wpn_hudoff?4wav?$AA@	; `string'
PUBLIC	??_C@_06CHNIFGOF@escape?$AA@			; `string'
PUBLIC	__real@00000000
PUBLIC	__real@3f800000
PUBLIC	__real@4034000000000000
PUBLIC	__real@42b40000
PUBLIC	__real@42c80000
PUBLIC	__real@43480000
EXTRN	_memcmp:PROC
EXTRN	_memcpy:PROC
EXTRN	_memset:PROC
EXTRN	_abs:PROC
EXTRN	?Q_strncpy@@YAIPADPBDI@Z:PROC			; Q_strncpy
EXTRN	?Q_snprintf@@YAHPADIPBDZZ:PROC			; Q_snprintf
EXTRN	?SelectMenuItem@CHudMenu@@QAEXH@Z:PROC		; CHudMenu::SelectMenuItem
EXTRN	?DisableCodeScreen@CHudCodeInput@@QAEXXZ:PROC	; CHudCodeInput::DisableCodeScreen
EXTRN	?EnterCode@CHudCodeInput@@QAEXH@Z:PROC		; CHudCodeInput::EnterCode
EXTRN	?DrawHudNumber@CHud@@QAEHHHHHHHH@Z:PROC		; CHud::DrawHudNumber
EXTRN	?GetSpriteIndex@CHud@@QAEHPBD@Z:PROC		; CHud::GetSpriteIndex
EXTRN	?AddHudElem@CHud@@QAEXPAVCHudBase@@@Z:PROC	; CHud::AddHudElem
EXTRN	?DrumsInput@CHud@@QAEXH@Z:PROC			; CHud::DrumsInput
EXTRN	?GetSpriteList@@YAPAUclient_sprite_s@@PAU1@PBDHH@Z:PROC ; GetSpriteList
EXTRN	?ScaleColors@@YAXAAH00H@Z:PROC			; ScaleColors
EXTRN	?BEGIN_READ@@YAXPBDPAXH@Z:PROC			; BEGIN_READ
EXTRN	?END_READ@@YAXXZ:PROC				; END_READ
EXTRN	?READ_CHAR@@YAHXZ:PROC				; READ_CHAR
EXTRN	?READ_BYTE@@YAHXZ:PROC				; READ_BYTE
EXTRN	?READ_STRING@@YAPADXZ:PROC			; READ_STRING
EXTRN	?AddToHistory@HistoryResource@@QAEXHHH@Z:PROC	; HistoryResource::AddToHistory
EXTRN	?AddToHistory@HistoryResource@@QAEXHPBDH@Z:PROC	; HistoryResource::AddToHistory
EXTRN	?DrawAmmoHistory@HistoryResource@@QAEHM@Z:PROC	; HistoryResource::DrawAmmoHistory
EXTRN	@__security_check_cookie@4:PROC
EXTRN	?gEngfuncs@@3Ucl_enginefuncs_s@@A:BYTE		; gEngfuncs
EXTRN	?gHUD@@3VCHud@@A:BYTE				; gHUD
EXTRN	?g_iUser1@@3HA:DWORD				; g_iUser1
EXTRN	?gHR@@3VHistoryResource@@A:BYTE			; gHR
EXTRN	?tr@@3Uref_globals_t@@A:BYTE			; tr
EXTRN	___security_cookie:DWORD
EXTRN	__fltused:DWORD
_BSS	SEGMENT
?nullRc@@3Uwrect_s@@A DB 010H DUP (?)			; nullRc
_BSS	ENDS
;	COMDAT __real@43480000
CONST	SEGMENT
__real@43480000 DD 043480000r			; 200
CONST	ENDS
;	COMDAT __real@42c80000
CONST	SEGMENT
__real@42c80000 DD 042c80000r			; 100
CONST	ENDS
;	COMDAT __real@42b40000
CONST	SEGMENT
__real@42b40000 DD 042b40000r			; 90
CONST	ENDS
;	COMDAT __real@4034000000000000
CONST	SEGMENT
__real@4034000000000000 DQ 04034000000000000r	; 20
CONST	ENDS
;	COMDAT __real@3f800000
CONST	SEGMENT
__real@3f800000 DD 03f800000r			; 1
CONST	ENDS
;	COMDAT __real@00000000
CONST	SEGMENT
__real@00000000 DD 000000000r			; 0
CONST	ENDS
;	COMDAT ??_C@_06CHNIFGOF@escape?$AA@
CONST	SEGMENT
??_C@_06CHNIFGOF@escape?$AA@ DB 'escape', 00H		; `string'
CONST	ENDS
;	COMDAT ??_C@_0BG@MNEIFLMJ@common?1wpn_hudoff?4wav?$AA@
CONST	SEGMENT
??_C@_0BG@MNEIFLMJ@common?1wpn_hudoff?4wav?$AA@ DB 'common/wpn_hudoff.wav'
	DB	00H						; `string'
CONST	ENDS
;	COMDAT ??_C@_0BK@JHOFLAAJ@common?1wpn_moveselect?4wav?$AA@
CONST	SEGMENT
??_C@_0BK@JHOFLAAJ@common?1wpn_moveselect?4wav?$AA@ DB 'common/wpn_movese'
	DB	'lect.wav', 00H				; `string'
CONST	ENDS
;	COMDAT ??_C@_0BF@JMGAEGF@common?1wpn_hudon?4wav?$AA@
CONST	SEGMENT
??_C@_0BF@JMGAEGF@common?1wpn_hudon?4wav?$AA@ DB 'common/wpn_hudon.wav', 00H ; `string'
CONST	ENDS
;	COMDAT ??_C@_0BH@JAGECJKG@common?1wpn_select3?4wav?$AA@
CONST	SEGMENT
??_C@_0BH@JAGECJKG@common?1wpn_select3?4wav?$AA@ DB 'common/wpn_select3.w'
	DB	'av', 00H					; `string'
CONST	ENDS
;	COMDAT ??_C@_0BH@FLDIPKAD@common?1wpn_select2?4wav?$AA@
CONST	SEGMENT
??_C@_0BH@FLDIPKAD@common?1wpn_select2?4wav?$AA@ DB 'common/wpn_select2.w'
	DB	'av', 00H					; `string'
CONST	ENDS
;	COMDAT ??_C@_0BH@NNKMIIKN@common?1wpn_select1?4wav?$AA@
CONST	SEGMENT
??_C@_0BH@NNKMIIKN@common?1wpn_select1?4wav?$AA@ DB 'common/wpn_select1.w'
	DB	'av', 00H					; `string'
CONST	ENDS
;	COMDAT ??_C@_07HOFKAOOK@divider?$AA@
CONST	SEGMENT
??_C@_07HOFKAOOK@divider?$AA@ DB 'divider', 00H		; `string'
CONST	ENDS
;	COMDAT ??_C@_09DFNMPCAJ@selection?$AA@
CONST	SEGMENT
??_C@_09DFNMPCAJ@selection?$AA@ DB 'selection', 00H	; `string'
CONST	ENDS
;	COMDAT ??_C@_07EPJMIDHL@bucket1?$AA@
CONST	SEGMENT
??_C@_07EPJMIDHL@bucket1?$AA@ DB 'bucket1', 00H		; `string'
CONST	ENDS
;	COMDAT ??_C@_0P@HAOPMPEA@hud_fastswitch?$AA@
CONST	SEGMENT
??_C@_0P@HAOPMPEA@hud_fastswitch?$AA@ DB 'hud_fastswitch', 00H ; `string'
CONST	ENDS
;	COMDAT ??_C@_01GBGANLPD@0?$AA@
CONST	SEGMENT
??_C@_01GBGANLPD@0?$AA@ DB '0', 00H			; `string'
CONST	ENDS
;	COMDAT ??_C@_0BF@FCIGCOBI@hud_drawhistory_time?$AA@
CONST	SEGMENT
??_C@_0BF@FCIGCOBI@hud_drawhistory_time?$AA@ DB 'hud_drawhistory_time', 00H ; `string'
CONST	ENDS
;	COMDAT ??_C@_01BMBHCPLG@5?$AA@
CONST	SEGMENT
??_C@_01BMBHCPLG@5?$AA@ DB '5', 00H			; `string'
CONST	ENDS
;	COMDAT ??_C@_07FMBGBNAB@invprev?$AA@
CONST	SEGMENT
??_C@_07FMBGBNAB@invprev?$AA@ DB 'invprev', 00H		; `string'
CONST	ENDS
;	COMDAT ??_C@_07GIMAAJGF@invnext?$AA@
CONST	SEGMENT
??_C@_07GIMAAJGF@invnext?$AA@ DB 'invnext', 00H		; `string'
CONST	ENDS
;	COMDAT ??_C@_0N@INMGFMHB@cancelselect?$AA@
CONST	SEGMENT
??_C@_0N@INMGFMHB@cancelselect?$AA@ DB 'cancelselect', 00H ; `string'
CONST	ENDS
;	COMDAT ??_C@_06MFPFELBF@slot10?$AA@
CONST	SEGMENT
??_C@_06MFPFELBF@slot10?$AA@ DB 'slot10', 00H		; `string'
CONST	ENDS
;	COMDAT ??_C@_05KBHABBBM@slot9?$AA@
CONST	SEGMENT
??_C@_05KBHABBBM@slot9?$AA@ DB 'slot9', 00H		; `string'
CONST	ENDS
;	COMDAT ??_C@_05LIGLCAFN@slot8?$AA@
CONST	SEGMENT
??_C@_05LIGLCAFN@slot8?$AA@ DB 'slot8', 00H		; `string'
CONST	ENDS
;	COMDAT ??_C@_05DPPDDMJC@slot7?$AA@
CONST	SEGMENT
??_C@_05DPPDDMJC@slot7?$AA@ DB 'slot7', 00H		; `string'
CONST	ENDS
;	COMDAT ??_C@_05CGOIANND@slot6?$AA@
CONST	SEGMENT
??_C@_05CGOIANND@slot6?$AA@ DB 'slot6', 00H		; `string'
CONST	ENDS
;	COMDAT ??_C@_05NMFFOBA@slot5?$AA@
CONST	SEGMENT
??_C@_05NMFFOBA@slot5?$AA@ DB 'slot5', 00H		; `string'
CONST	ENDS
;	COMDAT ??_C@_05BENOGPFB@slot4?$AA@
CONST	SEGMENT
??_C@_05BENOGPFB@slot4?$AA@ DB 'slot4', 00H		; `string'
CONST	ENDS
;	COMDAT ??_C@_05FLJPPJJG@slot3?$AA@
CONST	SEGMENT
??_C@_05FLJPPJJG@slot3?$AA@ DB 'slot3', 00H		; `string'
CONST	ENDS
;	COMDAT ??_C@_05ECIEMINH@slot2?$AA@
CONST	SEGMENT
??_C@_05ECIEMINH@slot2?$AA@ DB 'slot2', 00H		; `string'
CONST	ENDS
;	COMDAT ??_C@_05GJKJJLBE@slot1?$AA@
CONST	SEGMENT
??_C@_05GJKJJLBE@slot1?$AA@ DB 'slot1', 00H		; `string'
CONST	ENDS
;	COMDAT ??_C@_05BDDOEAPG@AmmoX?$AA@
CONST	SEGMENT
??_C@_05BDDOEAPG@AmmoX?$AA@ DB 'AmmoX', 00H		; `string'
CONST	ENDS
;	COMDAT ??_C@_0L@IFFGJKPB@HideWeapon?$AA@
CONST	SEGMENT
??_C@_0L@IFFGJKPB@HideWeapon?$AA@ DB 'HideWeapon', 00H	; `string'
CONST	ENDS
;	COMDAT ??_C@_0L@NIFLCEON@ItemPickup?$AA@
CONST	SEGMENT
??_C@_0L@NIFLCEON@ItemPickup?$AA@ DB 'ItemPickup', 00H	; `string'
CONST	ENDS
;	COMDAT ??_C@_0L@FGOFFEAA@WeapPickup?$AA@
CONST	SEGMENT
??_C@_0L@FGOFFEAA@WeapPickup?$AA@ DB 'WeapPickup', 00H	; `string'
CONST	ENDS
;	COMDAT ??_C@_0L@EANOMKOP@AmmoPickup?$AA@
CONST	SEGMENT
??_C@_0L@EANOMKOP@AmmoPickup?$AA@ DB 'AmmoPickup', 00H	; `string'
CONST	ENDS
;	COMDAT ??_C@_0L@JMLCHIOL@WeaponList?$AA@
CONST	SEGMENT
??_C@_0L@JMLCHIOL@WeaponList?$AA@ DB 'WeaponList', 00H	; `string'
CONST	ENDS
;	COMDAT ??_C@_09PEGKEGNI@CurWeapon?$AA@
CONST	SEGMENT
??_C@_09PEGKEGNI@CurWeapon?$AA@ DB 'CurWeapon', 00H	; `string'
CONST	ENDS
;	COMDAT ??_C@_05ILIAMGON@ammo2?$AA@
CONST	SEGMENT
??_C@_05ILIAMGON@ammo2?$AA@ DB 'ammo2', 00H		; `string'
CONST	ENDS
;	COMDAT ??_C@_04PGKJFGNK@ammo?$AA@
CONST	SEGMENT
??_C@_04PGKJFGNK@ammo?$AA@ DB 'ammo', 00H		; `string'
CONST	ENDS
;	COMDAT ??_C@_08JALFICBG@weapon_s?$AA@
CONST	SEGMENT
??_C@_08JALFICBG@weapon_s?$AA@ DB 'weapon_s', 00H	; `string'
CONST	ENDS
;	COMDAT ??_C@_06GEPNGEJI@weapon?$AA@
CONST	SEGMENT
??_C@_06GEPNGEJI@weapon?$AA@ DB 'weapon', 00H		; `string'
CONST	ENDS
;	COMDAT ??_C@_0N@FNDHLGPO@zoom_autoaim?$AA@
CONST	SEGMENT
??_C@_0N@FNDHLGPO@zoom_autoaim?$AA@ DB 'zoom_autoaim', 00H ; `string'
CONST	ENDS
;	COMDAT ??_C@_04HKCCIOCO@zoom?$AA@
CONST	SEGMENT
??_C@_04HKCCIOCO@zoom?$AA@ DB 'zoom', 00H		; `string'
CONST	ENDS
;	COMDAT ??_C@_07KHNCKFFH@autoaim?$AA@
CONST	SEGMENT
??_C@_07KHNCKFFH@autoaim?$AA@ DB 'autoaim', 00H		; `string'
CONST	ENDS
;	COMDAT ??_C@_0P@HEMMIFBG@sprites?1?$CFs?4spr?$AA@
CONST	SEGMENT
??_C@_0P@HEMMIFBG@sprites?1?$CFs?4spr?$AA@ DB 'sprites/%s.spr', 00H ; `string'
CONST	ENDS
;	COMDAT ??_C@_09NBNKIDFG@crosshair?$AA@
CONST	SEGMENT
??_C@_09NBNKIDFG@crosshair?$AA@ DB 'crosshair', 00H	; `string'
CONST	ENDS
;	COMDAT ??_C@_0P@LBFCELJB@sprites?1?$CFs?4txt?$AA@
CONST	SEGMENT
??_C@_0P@LBFCELJB@sprites?1?$CFs?4txt?$AA@ DB 'sprites/%s.txt', 00H ; `string'
CONST	ENDS
; Function compile flags: /Odtp /ZI
; File d:\!diffusion 2020\source code 2022\client-server\client\ammo.cpp
;	COMDAT ?DrawAmmoBar@@YAXPAUWEAPON@@HHHH@Z
_TEXT	SEGMENT
_f$1 = -4						; size = 4
_p$ = 8							; size = 4
_x$ = 12						; size = 4
_y$ = 16						; size = 4
_width$ = 20						; size = 4
_height$ = 24						; size = 4
?DrawAmmoBar@@YAXPAUWEAPON@@HHHH@Z PROC			; DrawAmmoBar, COMDAT

; 996  : {

	push	ebp
	mov	ebp, esp
	sub	esp, 68					; 00000044H
	push	ebx
	push	esi
	push	edi

; 997  : 	if( !p )

	cmp	DWORD PTR _p$[ebp], 0
	jne	SHORT $LN2@DrawAmmoBa

; 998  : 		return;

	jmp	$LN1@DrawAmmoBa
$LN2@DrawAmmoBa:

; 999  : 	
; 1000 : 	if( p->iAmmoType != -1 )

	mov	eax, DWORD PTR _p$[ebp]
	cmp	DWORD PTR [eax+128], -1
	je	$LN5@DrawAmmoBa

; 1001 : 	{
; 1002 : 		if( !gWR.CountAmmo( p->iAmmoType ))

	mov	eax, DWORD PTR _p$[ebp]
	mov	ecx, DWORD PTR [eax+128]
	push	ecx
	mov	ecx, OFFSET ?gWR@@3VWeaponsResource@@A	; gWR
	call	?CountAmmo@WeaponsResource@@QAEHH@Z	; WeaponsResource::CountAmmo
	test	eax, eax
	jne	SHORT $LN4@DrawAmmoBa

; 1003 : 			return;

	jmp	$LN1@DrawAmmoBa
$LN4@DrawAmmoBa:

; 1004 : 
; 1005 : 		float f = (float)gWR.CountAmmo(p->iAmmoType) / (float)p->iMax1;

	mov	eax, DWORD PTR _p$[ebp]
	mov	ecx, DWORD PTR [eax+128]
	push	ecx
	mov	ecx, OFFSET ?gWR@@3VWeaponsResource@@A	; gWR
	call	?CountAmmo@WeaponsResource@@QAEHH@Z	; WeaponsResource::CountAmmo
	cvtsi2ss xmm0, eax
	mov	edx, DWORD PTR _p$[ebp]
	cvtsi2ss xmm1, DWORD PTR [edx+136]
	divss	xmm0, xmm1
	movss	DWORD PTR _f$1[ebp], xmm0

; 1006 : 		
; 1007 : 		x = DrawBar( x, y, width, height, f );

	push	ecx
	movss	xmm0, DWORD PTR _f$1[ebp]
	movss	DWORD PTR [esp], xmm0
	mov	eax, DWORD PTR _height$[ebp]
	push	eax
	mov	ecx, DWORD PTR _width$[ebp]
	push	ecx
	mov	edx, DWORD PTR _y$[ebp]
	push	edx
	mov	eax, DWORD PTR _x$[ebp]
	push	eax
	call	?DrawBar@@YAHHHHHM@Z			; DrawBar
	add	esp, 20					; 00000014H
	mov	DWORD PTR _x$[ebp], eax

; 1008 : 
; 1009 : 		// Do we have secondary ammo too?
; 1010 : 		if( p->iAmmo2Type != -1 )

	mov	eax, DWORD PTR _p$[ebp]
	cmp	DWORD PTR [eax+132], -1
	je	SHORT $LN5@DrawAmmoBa

; 1011 : 		{
; 1012 : 			f = (float)gWR.CountAmmo(p->iAmmo2Type) / (float)p->iMax2;

	mov	eax, DWORD PTR _p$[ebp]
	mov	ecx, DWORD PTR [eax+132]
	push	ecx
	mov	ecx, OFFSET ?gWR@@3VWeaponsResource@@A	; gWR
	call	?CountAmmo@WeaponsResource@@QAEHH@Z	; WeaponsResource::CountAmmo
	cvtsi2ss xmm0, eax
	mov	edx, DWORD PTR _p$[ebp]
	cvtsi2ss xmm1, DWORD PTR [edx+140]
	divss	xmm0, xmm1
	movss	DWORD PTR _f$1[ebp], xmm0

; 1013 : 
; 1014 : 			x += 5; //!!!

	mov	eax, DWORD PTR _x$[ebp]
	add	eax, 5
	mov	DWORD PTR _x$[ebp], eax

; 1015 : 			DrawBar( x, y, width, height, f );

	push	ecx
	movss	xmm0, DWORD PTR _f$1[ebp]
	movss	DWORD PTR [esp], xmm0
	mov	eax, DWORD PTR _height$[ebp]
	push	eax
	mov	ecx, DWORD PTR _width$[ebp]
	push	ecx
	mov	edx, DWORD PTR _y$[ebp]
	push	edx
	mov	eax, DWORD PTR _x$[ebp]
	push	eax
	call	?DrawBar@@YAHHHHHM@Z			; DrawBar
	add	esp, 20					; 00000014H
$LN5@DrawAmmoBa:
$LN1@DrawAmmoBa:

; 1016 : 		}
; 1017 : 	}
; 1018 : }

	pop	edi
	pop	esi
	pop	ebx
	mov	esp, ebp
	pop	ebp
	ret	0
?DrawAmmoBar@@YAXPAUWEAPON@@HHHH@Z ENDP			; DrawAmmoBar
_TEXT	ENDS
; Function compile flags: /Odtp /ZI
; File d:\!diffusion 2020\source code 2022\client-server\client\ammo.cpp
;	COMDAT ?DrawBar@@YAHHHHHM@Z
_TEXT	SEGMENT
tv67 = -88						; size = 4
tv66 = -84						; size = 4
_w$1 = -16						; size = 4
_b$ = -12						; size = 4
_g$ = -8						; size = 4
_r$ = -4						; size = 4
_x$ = 8							; size = 4
_y$ = 12						; size = 4
_width$ = 16						; size = 4
_height$ = 20						; size = 4
_f$ = 24						; size = 4
?DrawBar@@YAHHHHHM@Z PROC				; DrawBar, COMDAT

; 970  : {

	push	ebp
	mov	ebp, esp
	sub	esp, 88					; 00000058H
	push	ebx
	push	esi
	push	edi

; 971  : 	int r, g, b;
; 972  : 
; 973  : 	f = bound( 0.0f, f, 1.0f );

	movss	xmm0, DWORD PTR _f$[ebp]
	comiss	xmm0, DWORD PTR __real@00000000
	jb	SHORT $LN7@DrawBar
	movss	xmm0, DWORD PTR __real@3f800000
	comiss	xmm0, DWORD PTR _f$[ebp]
	jbe	SHORT $LN5@DrawBar
	movss	xmm0, DWORD PTR _f$[ebp]
	movss	DWORD PTR tv66[ebp], xmm0
	jmp	SHORT $LN6@DrawBar
$LN5@DrawBar:
	movss	xmm0, DWORD PTR __real@3f800000
	movss	DWORD PTR tv66[ebp], xmm0
$LN6@DrawBar:
	movss	xmm0, DWORD PTR tv66[ebp]
	movss	DWORD PTR tv67[ebp], xmm0
	jmp	SHORT $LN8@DrawBar
$LN7@DrawBar:
	xorps	xmm0, xmm0
	movss	DWORD PTR tv67[ebp], xmm0
$LN8@DrawBar:
	movss	xmm0, DWORD PTR tv67[ebp]
	movss	DWORD PTR _f$[ebp], xmm0

; 974  : 
; 975  : 	if( f )

	movss	xmm0, DWORD PTR _f$[ebp]
	ucomiss	xmm0, DWORD PTR __real@00000000
	lahf
	test	ah, 68					; 00000044H
	jnp	SHORT $LN2@DrawBar

; 976  : 	{
; 977  : 		int w = f * width;

	cvtsi2ss xmm0, DWORD PTR _width$[ebp]
	mulss	xmm0, DWORD PTR _f$[ebp]
	cvttss2si eax, xmm0
	mov	DWORD PTR _w$1[ebp], eax

; 978  : 
; 979  : 		// Always show at least one pixel if we have ammo.
; 980  : 		if( w <= 0 ) w = 1;

	cmp	DWORD PTR _w$1[ebp], 0
	jg	SHORT $LN3@DrawBar
	mov	DWORD PTR _w$1[ebp], 1
$LN3@DrawBar:

; 981  : 
; 982  : 		UnpackRGB( r, g, b, RGB_GREENISH );

	push	40960					; 0000a000H
	lea	eax, DWORD PTR _b$[ebp]
	push	eax
	lea	ecx, DWORD PTR _g$[ebp]
	push	ecx
	lea	edx, DWORD PTR _r$[ebp]
	push	edx
	call	?UnpackRGB@@YAXAAH00K@Z			; UnpackRGB
	add	esp, 16					; 00000010H

; 983  : 		FillRGBA( x, y, w, height, r, g, b, 255 );

	push	255					; 000000ffH
	mov	eax, DWORD PTR _b$[ebp]
	push	eax
	mov	ecx, DWORD PTR _g$[ebp]
	push	ecx
	mov	edx, DWORD PTR _r$[ebp]
	push	edx
	mov	eax, DWORD PTR _height$[ebp]
	push	eax
	mov	ecx, DWORD PTR _w$1[ebp]
	push	ecx
	mov	edx, DWORD PTR _y$[ebp]
	push	edx
	mov	eax, DWORD PTR _x$[ebp]
	push	eax
	call	DWORD PTR ?gEngfuncs@@3Ucl_enginefuncs_s@@A+44
	add	esp, 32					; 00000020H

; 984  : 		x += w;

	mov	eax, DWORD PTR _x$[ebp]
	add	eax, DWORD PTR _w$1[ebp]
	mov	DWORD PTR _x$[ebp], eax

; 985  : 		width -= w;

	mov	eax, DWORD PTR _width$[ebp]
	sub	eax, DWORD PTR _w$1[ebp]
	mov	DWORD PTR _width$[ebp], eax
$LN2@DrawBar:

; 986  : 	}
; 987  : 
; 988  : 	UnpackRGB( r, g, b, gHUD.m_iHUDColor );

	mov	eax, DWORD PTR ?gHUD@@3VCHud@@A+108
	push	eax
	lea	ecx, DWORD PTR _b$[ebp]
	push	ecx
	lea	edx, DWORD PTR _g$[ebp]
	push	edx
	lea	eax, DWORD PTR _r$[ebp]
	push	eax
	call	?UnpackRGB@@YAXAAH00K@Z			; UnpackRGB
	add	esp, 16					; 00000010H

; 989  : 
; 990  : 	FillRGBA( x, y, width, height, r, g, b, 128 );

	push	128					; 00000080H
	mov	eax, DWORD PTR _b$[ebp]
	push	eax
	mov	ecx, DWORD PTR _g$[ebp]
	push	ecx
	mov	edx, DWORD PTR _r$[ebp]
	push	edx
	mov	eax, DWORD PTR _height$[ebp]
	push	eax
	mov	ecx, DWORD PTR _width$[ebp]
	push	ecx
	mov	edx, DWORD PTR _y$[ebp]
	push	edx
	mov	eax, DWORD PTR _x$[ebp]
	push	eax
	call	DWORD PTR ?gEngfuncs@@3Ucl_enginefuncs_s@@A+44
	add	esp, 32					; 00000020H

; 991  : 
; 992  : 	return (x + width);

	mov	eax, DWORD PTR _x$[ebp]
	add	eax, DWORD PTR _width$[ebp]

; 993  : }

	pop	edi
	pop	esi
	pop	ebx
	mov	esp, ebp
	pop	ebp
	ret	0
?DrawBar@@YAHHHHHM@Z ENDP				; DrawBar
_TEXT	ENDS
; Function compile flags: /Odtp /ZI
; File d:\!diffusion 2020\source code 2022\client-server\client\ammo.cpp
;	COMDAT ?__CmdFunc_PrevWeapon@@YAXXZ
_TEXT	SEGMENT
?__CmdFunc_PrevWeapon@@YAXXZ PROC			; __CmdFunc_PrevWeapon, COMDAT

; 230  : DECLARE_COMMAND( m_Ammo, PrevWeapon );

	push	ebp
	mov	ebp, esp
	sub	esp, 64					; 00000040H
	push	ebx
	push	esi
	push	edi
	push	OFFSET ?gHUD@@3VCHud@@A+240
	call	?UserCmd_PrevWeapon@CHudAmmo@@QAAXXZ	; CHudAmmo::UserCmd_PrevWeapon
	add	esp, 4
	pop	edi
	pop	esi
	pop	ebx
	mov	esp, ebp
	pop	ebp
	ret	0
?__CmdFunc_PrevWeapon@@YAXXZ ENDP			; __CmdFunc_PrevWeapon
_TEXT	ENDS
; Function compile flags: /Odtp /ZI
; File d:\!diffusion 2020\source code 2022\client-server\client\ammo.cpp
;	COMDAT ?__CmdFunc_NextWeapon@@YAXXZ
_TEXT	SEGMENT
?__CmdFunc_NextWeapon@@YAXXZ PROC			; __CmdFunc_NextWeapon, COMDAT

; 229  : DECLARE_COMMAND( m_Ammo, NextWeapon );

	push	ebp
	mov	ebp, esp
	sub	esp, 64					; 00000040H
	push	ebx
	push	esi
	push	edi
	push	OFFSET ?gHUD@@3VCHud@@A+240
	call	?UserCmd_NextWeapon@CHudAmmo@@QAAXXZ	; CHudAmmo::UserCmd_NextWeapon
	add	esp, 4
	pop	edi
	pop	esi
	pop	ebx
	mov	esp, ebp
	pop	ebp
	ret	0
?__CmdFunc_NextWeapon@@YAXXZ ENDP			; __CmdFunc_NextWeapon
_TEXT	ENDS
; Function compile flags: /Odtp /ZI
; File d:\!diffusion 2020\source code 2022\client-server\client\ammo.cpp
;	COMDAT ?__CmdFunc_Close@@YAXXZ
_TEXT	SEGMENT
?__CmdFunc_Close@@YAXXZ PROC				; __CmdFunc_Close, COMDAT

; 228  : DECLARE_COMMAND( m_Ammo, Close );

	push	ebp
	mov	ebp, esp
	sub	esp, 64					; 00000040H
	push	ebx
	push	esi
	push	edi
	push	OFFSET ?gHUD@@3VCHud@@A+240
	call	?UserCmd_Close@CHudAmmo@@QAAXXZ		; CHudAmmo::UserCmd_Close
	add	esp, 4
	pop	edi
	pop	esi
	pop	ebx
	mov	esp, ebp
	pop	ebp
	ret	0
?__CmdFunc_Close@@YAXXZ ENDP				; __CmdFunc_Close
_TEXT	ENDS
; Function compile flags: /Odtp /ZI
; File d:\!diffusion 2020\source code 2022\client-server\client\ammo.cpp
;	COMDAT ?__CmdFunc_Slot10@@YAXXZ
_TEXT	SEGMENT
?__CmdFunc_Slot10@@YAXXZ PROC				; __CmdFunc_Slot10, COMDAT

; 227  : DECLARE_COMMAND( m_Ammo, Slot10 );

	push	ebp
	mov	ebp, esp
	sub	esp, 64					; 00000040H
	push	ebx
	push	esi
	push	edi
	push	OFFSET ?gHUD@@3VCHud@@A+240
	call	?UserCmd_Slot10@CHudAmmo@@QAAXXZ	; CHudAmmo::UserCmd_Slot10
	add	esp, 4
	pop	edi
	pop	esi
	pop	ebx
	mov	esp, ebp
	pop	ebp
	ret	0
?__CmdFunc_Slot10@@YAXXZ ENDP				; __CmdFunc_Slot10
_TEXT	ENDS
; Function compile flags: /Odtp /ZI
; File d:\!diffusion 2020\source code 2022\client-server\client\ammo.cpp
;	COMDAT ?__CmdFunc_Slot9@@YAXXZ
_TEXT	SEGMENT
?__CmdFunc_Slot9@@YAXXZ PROC				; __CmdFunc_Slot9, COMDAT

; 226  : DECLARE_COMMAND( m_Ammo, Slot9 );

	push	ebp
	mov	ebp, esp
	sub	esp, 64					; 00000040H
	push	ebx
	push	esi
	push	edi
	push	OFFSET ?gHUD@@3VCHud@@A+240
	call	?UserCmd_Slot9@CHudAmmo@@QAAXXZ		; CHudAmmo::UserCmd_Slot9
	add	esp, 4
	pop	edi
	pop	esi
	pop	ebx
	mov	esp, ebp
	pop	ebp
	ret	0
?__CmdFunc_Slot9@@YAXXZ ENDP				; __CmdFunc_Slot9
_TEXT	ENDS
; Function compile flags: /Odtp /ZI
; File d:\!diffusion 2020\source code 2022\client-server\client\ammo.cpp
;	COMDAT ?__CmdFunc_Slot8@@YAXXZ
_TEXT	SEGMENT
?__CmdFunc_Slot8@@YAXXZ PROC				; __CmdFunc_Slot8, COMDAT

; 225  : DECLARE_COMMAND( m_Ammo, Slot8 );

	push	ebp
	mov	ebp, esp
	sub	esp, 64					; 00000040H
	push	ebx
	push	esi
	push	edi
	push	OFFSET ?gHUD@@3VCHud@@A+240
	call	?UserCmd_Slot8@CHudAmmo@@QAAXXZ		; CHudAmmo::UserCmd_Slot8
	add	esp, 4
	pop	edi
	pop	esi
	pop	ebx
	mov	esp, ebp
	pop	ebp
	ret	0
?__CmdFunc_Slot8@@YAXXZ ENDP				; __CmdFunc_Slot8
_TEXT	ENDS
; Function compile flags: /Odtp /ZI
; File d:\!diffusion 2020\source code 2022\client-server\client\ammo.cpp
;	COMDAT ?__CmdFunc_Slot7@@YAXXZ
_TEXT	SEGMENT
?__CmdFunc_Slot7@@YAXXZ PROC				; __CmdFunc_Slot7, COMDAT

; 224  : DECLARE_COMMAND( m_Ammo, Slot7 );

	push	ebp
	mov	ebp, esp
	sub	esp, 64					; 00000040H
	push	ebx
	push	esi
	push	edi
	push	OFFSET ?gHUD@@3VCHud@@A+240
	call	?UserCmd_Slot7@CHudAmmo@@QAAXXZ		; CHudAmmo::UserCmd_Slot7
	add	esp, 4
	pop	edi
	pop	esi
	pop	ebx
	mov	esp, ebp
	pop	ebp
	ret	0
?__CmdFunc_Slot7@@YAXXZ ENDP				; __CmdFunc_Slot7
_TEXT	ENDS
; Function compile flags: /Odtp /ZI
; File d:\!diffusion 2020\source code 2022\client-server\client\ammo.cpp
;	COMDAT ?__CmdFunc_Slot6@@YAXXZ
_TEXT	SEGMENT
?__CmdFunc_Slot6@@YAXXZ PROC				; __CmdFunc_Slot6, COMDAT

; 223  : DECLARE_COMMAND( m_Ammo, Slot6 );

	push	ebp
	mov	ebp, esp
	sub	esp, 64					; 00000040H
	push	ebx
	push	esi
	push	edi
	push	OFFSET ?gHUD@@3VCHud@@A+240
	call	?UserCmd_Slot6@CHudAmmo@@QAAXXZ		; CHudAmmo::UserCmd_Slot6
	add	esp, 4
	pop	edi
	pop	esi
	pop	ebx
	mov	esp, ebp
	pop	ebp
	ret	0
?__CmdFunc_Slot6@@YAXXZ ENDP				; __CmdFunc_Slot6
_TEXT	ENDS
; Function compile flags: /Odtp /ZI
; File d:\!diffusion 2020\source code 2022\client-server\client\ammo.cpp
;	COMDAT ?__CmdFunc_Slot5@@YAXXZ
_TEXT	SEGMENT
?__CmdFunc_Slot5@@YAXXZ PROC				; __CmdFunc_Slot5, COMDAT

; 222  : DECLARE_COMMAND( m_Ammo, Slot5 );

	push	ebp
	mov	ebp, esp
	sub	esp, 64					; 00000040H
	push	ebx
	push	esi
	push	edi
	push	OFFSET ?gHUD@@3VCHud@@A+240
	call	?UserCmd_Slot5@CHudAmmo@@QAAXXZ		; CHudAmmo::UserCmd_Slot5
	add	esp, 4
	pop	edi
	pop	esi
	pop	ebx
	mov	esp, ebp
	pop	ebp
	ret	0
?__CmdFunc_Slot5@@YAXXZ ENDP				; __CmdFunc_Slot5
_TEXT	ENDS
; Function compile flags: /Odtp /ZI
; File d:\!diffusion 2020\source code 2022\client-server\client\ammo.cpp
;	COMDAT ?__CmdFunc_Slot4@@YAXXZ
_TEXT	SEGMENT
?__CmdFunc_Slot4@@YAXXZ PROC				; __CmdFunc_Slot4, COMDAT

; 221  : DECLARE_COMMAND( m_Ammo, Slot4 );

	push	ebp
	mov	ebp, esp
	sub	esp, 64					; 00000040H
	push	ebx
	push	esi
	push	edi
	push	OFFSET ?gHUD@@3VCHud@@A+240
	call	?UserCmd_Slot4@CHudAmmo@@QAAXXZ		; CHudAmmo::UserCmd_Slot4
	add	esp, 4
	pop	edi
	pop	esi
	pop	ebx
	mov	esp, ebp
	pop	ebp
	ret	0
?__CmdFunc_Slot4@@YAXXZ ENDP				; __CmdFunc_Slot4
_TEXT	ENDS
; Function compile flags: /Odtp /ZI
; File d:\!diffusion 2020\source code 2022\client-server\client\ammo.cpp
;	COMDAT ?__CmdFunc_Slot3@@YAXXZ
_TEXT	SEGMENT
?__CmdFunc_Slot3@@YAXXZ PROC				; __CmdFunc_Slot3, COMDAT

; 220  : DECLARE_COMMAND( m_Ammo, Slot3 );

	push	ebp
	mov	ebp, esp
	sub	esp, 64					; 00000040H
	push	ebx
	push	esi
	push	edi
	push	OFFSET ?gHUD@@3VCHud@@A+240
	call	?UserCmd_Slot3@CHudAmmo@@QAAXXZ		; CHudAmmo::UserCmd_Slot3
	add	esp, 4
	pop	edi
	pop	esi
	pop	ebx
	mov	esp, ebp
	pop	ebp
	ret	0
?__CmdFunc_Slot3@@YAXXZ ENDP				; __CmdFunc_Slot3
_TEXT	ENDS
; Function compile flags: /Odtp /ZI
; File d:\!diffusion 2020\source code 2022\client-server\client\ammo.cpp
;	COMDAT ?__CmdFunc_Slot2@@YAXXZ
_TEXT	SEGMENT
?__CmdFunc_Slot2@@YAXXZ PROC				; __CmdFunc_Slot2, COMDAT

; 219  : DECLARE_COMMAND( m_Ammo, Slot2 );

	push	ebp
	mov	ebp, esp
	sub	esp, 64					; 00000040H
	push	ebx
	push	esi
	push	edi
	push	OFFSET ?gHUD@@3VCHud@@A+240
	call	?UserCmd_Slot2@CHudAmmo@@QAAXXZ		; CHudAmmo::UserCmd_Slot2
	add	esp, 4
	pop	edi
	pop	esi
	pop	ebx
	mov	esp, ebp
	pop	ebp
	ret	0
?__CmdFunc_Slot2@@YAXXZ ENDP				; __CmdFunc_Slot2
_TEXT	ENDS
; Function compile flags: /Odtp /ZI
; File d:\!diffusion 2020\source code 2022\client-server\client\ammo.cpp
;	COMDAT ?__CmdFunc_Slot1@@YAXXZ
_TEXT	SEGMENT
?__CmdFunc_Slot1@@YAXXZ PROC				; __CmdFunc_Slot1, COMDAT

; 218  : DECLARE_COMMAND( m_Ammo, Slot1 );

	push	ebp
	mov	ebp, esp
	sub	esp, 64					; 00000040H
	push	ebx
	push	esi
	push	edi
	push	OFFSET ?gHUD@@3VCHud@@A+240
	call	?UserCmd_Slot1@CHudAmmo@@QAAXXZ		; CHudAmmo::UserCmd_Slot1
	add	esp, 4
	pop	edi
	pop	esi
	pop	ebx
	mov	esp, ebp
	pop	ebp
	ret	0
?__CmdFunc_Slot1@@YAXXZ ENDP				; __CmdFunc_Slot1
_TEXT	ENDS
; Function compile flags: /Odtp /ZI
; File d:\!diffusion 2020\source code 2022\client-server\client\ammo.cpp
;	COMDAT ?__MsgFunc_ItemPickup@@YAHPBDHPAX@Z
_TEXT	SEGMENT
_pszName$ = 8						; size = 4
_iSize$ = 12						; size = 4
_pbuf$ = 16						; size = 4
?__MsgFunc_ItemPickup@@YAHPBDHPAX@Z PROC		; __MsgFunc_ItemPickup, COMDAT

; 216  : DECLARE_MESSAGE( m_Ammo, ItemPickup );

	push	ebp
	mov	ebp, esp
	sub	esp, 64					; 00000040H
	push	ebx
	push	esi
	push	edi
	mov	eax, DWORD PTR _pbuf$[ebp]
	push	eax
	mov	ecx, DWORD PTR _iSize$[ebp]
	push	ecx
	mov	edx, DWORD PTR _pszName$[ebp]
	push	edx
	mov	ecx, OFFSET ?gHUD@@3VCHud@@A+240
	call	?MsgFunc_ItemPickup@CHudAmmo@@QAEHPBDHPAX@Z ; CHudAmmo::MsgFunc_ItemPickup
	pop	edi
	pop	esi
	pop	ebx
	mov	esp, ebp
	pop	ebp
	ret	0
?__MsgFunc_ItemPickup@@YAHPBDHPAX@Z ENDP		; __MsgFunc_ItemPickup
_TEXT	ENDS
; Function compile flags: /Odtp /ZI
; File d:\!diffusion 2020\source code 2022\client-server\client\ammo.cpp
;	COMDAT ?__MsgFunc_HideWeapon@@YAHPBDHPAX@Z
_TEXT	SEGMENT
_pszName$ = 8						; size = 4
_iSize$ = 12						; size = 4
_pbuf$ = 16						; size = 4
?__MsgFunc_HideWeapon@@YAHPBDHPAX@Z PROC		; __MsgFunc_HideWeapon, COMDAT

; 215  : DECLARE_MESSAGE( m_Ammo, HideWeapon );	// hides the weapon, ammo, and crosshair displays temporarily

	push	ebp
	mov	ebp, esp
	sub	esp, 64					; 00000040H
	push	ebx
	push	esi
	push	edi
	mov	eax, DWORD PTR _pbuf$[ebp]
	push	eax
	mov	ecx, DWORD PTR _iSize$[ebp]
	push	ecx
	mov	edx, DWORD PTR _pszName$[ebp]
	push	edx
	mov	ecx, OFFSET ?gHUD@@3VCHud@@A+240
	call	?MsgFunc_HideWeapon@CHudAmmo@@QAEHPBDHPAX@Z ; CHudAmmo::MsgFunc_HideWeapon
	pop	edi
	pop	esi
	pop	ebx
	mov	esp, ebp
	pop	ebp
	ret	0
?__MsgFunc_HideWeapon@@YAHPBDHPAX@Z ENDP		; __MsgFunc_HideWeapon
_TEXT	ENDS
; Function compile flags: /Odtp /ZI
; File d:\!diffusion 2020\source code 2022\client-server\client\ammo.cpp
;	COMDAT ?__MsgFunc_WeapPickup@@YAHPBDHPAX@Z
_TEXT	SEGMENT
_pszName$ = 8						; size = 4
_iSize$ = 12						; size = 4
_pbuf$ = 16						; size = 4
?__MsgFunc_WeapPickup@@YAHPBDHPAX@Z PROC		; __MsgFunc_WeapPickup, COMDAT

; 214  : DECLARE_MESSAGE( m_Ammo, WeapPickup );	// flashes a weapon pickup record

	push	ebp
	mov	ebp, esp
	sub	esp, 64					; 00000040H
	push	ebx
	push	esi
	push	edi
	mov	eax, DWORD PTR _pbuf$[ebp]
	push	eax
	mov	ecx, DWORD PTR _iSize$[ebp]
	push	ecx
	mov	edx, DWORD PTR _pszName$[ebp]
	push	edx
	mov	ecx, OFFSET ?gHUD@@3VCHud@@A+240
	call	?MsgFunc_WeapPickup@CHudAmmo@@QAEHPBDHPAX@Z ; CHudAmmo::MsgFunc_WeapPickup
	pop	edi
	pop	esi
	pop	ebx
	mov	esp, ebp
	pop	ebp
	ret	0
?__MsgFunc_WeapPickup@@YAHPBDHPAX@Z ENDP		; __MsgFunc_WeapPickup
_TEXT	ENDS
; Function compile flags: /Odtp /ZI
; File d:\!diffusion 2020\source code 2022\client-server\client\ammo.cpp
;	COMDAT ?__MsgFunc_AmmoPickup@@YAHPBDHPAX@Z
_TEXT	SEGMENT
_pszName$ = 8						; size = 4
_iSize$ = 12						; size = 4
_pbuf$ = 16						; size = 4
?__MsgFunc_AmmoPickup@@YAHPBDHPAX@Z PROC		; __MsgFunc_AmmoPickup, COMDAT

; 213  : DECLARE_MESSAGE( m_Ammo, AmmoPickup );	// flashes an ammo pickup record

	push	ebp
	mov	ebp, esp
	sub	esp, 64					; 00000040H
	push	ebx
	push	esi
	push	edi
	mov	eax, DWORD PTR _pbuf$[ebp]
	push	eax
	mov	ecx, DWORD PTR _iSize$[ebp]
	push	ecx
	mov	edx, DWORD PTR _pszName$[ebp]
	push	edx
	mov	ecx, OFFSET ?gHUD@@3VCHud@@A+240
	call	?MsgFunc_AmmoPickup@CHudAmmo@@QAEHPBDHPAX@Z ; CHudAmmo::MsgFunc_AmmoPickup
	pop	edi
	pop	esi
	pop	ebx
	mov	esp, ebp
	pop	ebp
	ret	0
?__MsgFunc_AmmoPickup@@YAHPBDHPAX@Z ENDP		; __MsgFunc_AmmoPickup
_TEXT	ENDS
; Function compile flags: /Odtp /ZI
; File d:\!diffusion 2020\source code 2022\client-server\client\ammo.cpp
;	COMDAT ?__MsgFunc_AmmoX@@YAHPBDHPAX@Z
_TEXT	SEGMENT
_pszName$ = 8						; size = 4
_iSize$ = 12						; size = 4
_pbuf$ = 16						; size = 4
?__MsgFunc_AmmoX@@YAHPBDHPAX@Z PROC			; __MsgFunc_AmmoX, COMDAT

; 212  : DECLARE_MESSAGE( m_Ammo, AmmoX );	// update known ammo type's count

	push	ebp
	mov	ebp, esp
	sub	esp, 64					; 00000040H
	push	ebx
	push	esi
	push	edi
	mov	eax, DWORD PTR _pbuf$[ebp]
	push	eax
	mov	ecx, DWORD PTR _iSize$[ebp]
	push	ecx
	mov	edx, DWORD PTR _pszName$[ebp]
	push	edx
	mov	ecx, OFFSET ?gHUD@@3VCHud@@A+240
	call	?MsgFunc_AmmoX@CHudAmmo@@QAEHPBDHPAX@Z	; CHudAmmo::MsgFunc_AmmoX
	pop	edi
	pop	esi
	pop	ebx
	mov	esp, ebp
	pop	ebp
	ret	0
?__MsgFunc_AmmoX@@YAHPBDHPAX@Z ENDP			; __MsgFunc_AmmoX
_TEXT	ENDS
; Function compile flags: /Odtp /ZI
; File d:\!diffusion 2020\source code 2022\client-server\client\ammo.cpp
;	COMDAT ?__MsgFunc_WeaponList@@YAHPBDHPAX@Z
_TEXT	SEGMENT
_pszName$ = 8						; size = 4
_iSize$ = 12						; size = 4
_pbuf$ = 16						; size = 4
?__MsgFunc_WeaponList@@YAHPBDHPAX@Z PROC		; __MsgFunc_WeaponList, COMDAT

; 211  : DECLARE_MESSAGE( m_Ammo, WeaponList );	// new weapon type

	push	ebp
	mov	ebp, esp
	sub	esp, 64					; 00000040H
	push	ebx
	push	esi
	push	edi
	mov	eax, DWORD PTR _pbuf$[ebp]
	push	eax
	mov	ecx, DWORD PTR _iSize$[ebp]
	push	ecx
	mov	edx, DWORD PTR _pszName$[ebp]
	push	edx
	mov	ecx, OFFSET ?gHUD@@3VCHud@@A+240
	call	?MsgFunc_WeaponList@CHudAmmo@@QAEHPBDHPAX@Z ; CHudAmmo::MsgFunc_WeaponList
	pop	edi
	pop	esi
	pop	ebx
	mov	esp, ebp
	pop	ebp
	ret	0
?__MsgFunc_WeaponList@@YAHPBDHPAX@Z ENDP		; __MsgFunc_WeaponList
_TEXT	ENDS
; Function compile flags: /Odtp /ZI
; File d:\!diffusion 2020\source code 2022\client-server\client\ammo.cpp
;	COMDAT ?__MsgFunc_CurWeapon@@YAHPBDHPAX@Z
_TEXT	SEGMENT
_pszName$ = 8						; size = 4
_iSize$ = 12						; size = 4
_pbuf$ = 16						; size = 4
?__MsgFunc_CurWeapon@@YAHPBDHPAX@Z PROC			; __MsgFunc_CurWeapon, COMDAT

; 210  : DECLARE_MESSAGE( m_Ammo, CurWeapon  );	// Current weapon and clip

	push	ebp
	mov	ebp, esp
	sub	esp, 64					; 00000040H
	push	ebx
	push	esi
	push	edi
	mov	eax, DWORD PTR _pbuf$[ebp]
	push	eax
	mov	ecx, DWORD PTR _iSize$[ebp]
	push	ecx
	mov	edx, DWORD PTR _pszName$[ebp]
	push	edx
	mov	ecx, OFFSET ?gHUD@@3VCHud@@A+240
	call	?MsgFunc_CurWeapon@CHudAmmo@@QAEHPBDHPAX@Z ; CHudAmmo::MsgFunc_CurWeapon
	pop	edi
	pop	esi
	pop	ebx
	mov	esp, ebp
	pop	ebp
	ret	0
?__MsgFunc_CurWeapon@@YAHPBDHPAX@Z ENDP			; __MsgFunc_CurWeapon
_TEXT	ENDS
; Function compile flags: /Odtp /ZI
; File d:\!diffusion 2020\source code 2022\client-server\client\ammohistory.h
;	COMDAT ?Reset@HistoryResource@@QAEXXZ
_TEXT	SEGMENT
_this$ = -4						; size = 4
?Reset@HistoryResource@@QAEXXZ PROC			; HistoryResource::Reset, COMDAT
; _this$ = ecx

; 146  : 	{

	push	ebp
	mov	ebp, esp
	sub	esp, 68					; 00000044H
	push	ebx
	push	esi
	push	edi
	mov	DWORD PTR _this$[ebp], ecx

; 147  : 		memset( rgAmmoHistory, 0, sizeof rgAmmoHistory );

	push	192					; 000000c0H
	push	0
	mov	eax, DWORD PTR _this$[ebp]
	push	eax
	call	_memset
	add	esp, 12					; 0000000cH

; 148  : 	}

	pop	edi
	pop	esi
	pop	ebx
	mov	esp, ebp
	pop	ebp
	ret	0
?Reset@HistoryResource@@QAEXXZ ENDP			; HistoryResource::Reset
_TEXT	ENDS
; Function compile flags: /Odtp /ZI
; File d:\!diffusion 2020\source code 2022\client-server\client\ammohistory.h
;	COMDAT ?Init@HistoryResource@@QAEXXZ
_TEXT	SEGMENT
_this$ = -4						; size = 4
?Init@HistoryResource@@QAEXXZ PROC			; HistoryResource::Init, COMDAT
; _this$ = ecx

; 141  : 	{

	push	ebp
	mov	ebp, esp
	sub	esp, 68					; 00000044H
	push	ebx
	push	esi
	push	edi
	mov	DWORD PTR _this$[ebp], ecx

; 142  : 		Reset();

	mov	ecx, DWORD PTR _this$[ebp]
	call	?Reset@HistoryResource@@QAEXXZ		; HistoryResource::Reset

; 143  : 	}

	pop	edi
	pop	esi
	pop	ebx
	mov	esp, ebp
	pop	ebp
	ret	0
?Init@HistoryResource@@QAEXXZ ENDP			; HistoryResource::Init
_TEXT	ENDS
; Function compile flags: /Odtp /ZI
; File d:\!diffusion 2020\source code 2022\client-server\client\ammohistory.h
;	COMDAT ?CountAmmo@WeaponsResource@@QAEHH@Z
_TEXT	SEGMENT
_this$ = -4						; size = 4
_iId$ = 8						; size = 4
?CountAmmo@WeaponsResource@@QAEHH@Z PROC		; WeaponsResource::CountAmmo, COMDAT
; _this$ = ecx

; 109  : 	{

	push	ebp
	mov	ebp, esp
	sub	esp, 68					; 00000044H
	push	ebx
	push	esi
	push	edi
	mov	DWORD PTR _this$[ebp], ecx

; 110  : 		if( iId < 0 ) return 0;

	cmp	DWORD PTR _iId$[ebp], 0
	jge	SHORT $LN2@CountAmmo
	xor	eax, eax
	jmp	SHORT $LN1@CountAmmo
$LN2@CountAmmo:

; 111  : 		return riAmmo[iId];

	mov	eax, DWORD PTR _iId$[ebp]
	mov	ecx, DWORD PTR _this$[ebp]
	mov	eax, DWORD PTR [ecx+eax*4+21224]
$LN1@CountAmmo:

; 112  : 	}

	pop	edi
	pop	esi
	pop	ebx
	mov	esp, ebp
	pop	ebp
	ret	4
?CountAmmo@WeaponsResource@@QAEHH@Z ENDP		; WeaponsResource::CountAmmo
_TEXT	ENDS
; Function compile flags: /Odtp /ZI
; File d:\!diffusion 2020\source code 2022\client-server\client\ammo.cpp
;	COMDAT ?GetAmmoPicFromWeapon@WeaponsResource@@QAEPAHHAAUwrect_s@@@Z
_TEXT	SEGMENT
_i$1 = -8						; size = 4
_this$ = -4						; size = 4
_iAmmoId$ = 8						; size = 4
_rect$ = 12						; size = 4
?GetAmmoPicFromWeapon@WeaponsResource@@QAEPAHHAAUwrect_s@@@Z PROC ; WeaponsResource::GetAmmoPicFromWeapon, COMDAT
; _this$ = ecx

; 388  : {

	push	ebp
	mov	ebp, esp
	sub	esp, 72					; 00000048H
	push	ebx
	push	esi
	push	edi
	mov	DWORD PTR _this$[ebp], ecx

; 389  : 	for( int i = 0; i < MAX_WEAPONS; i++ )

	mov	DWORD PTR _i$1[ebp], 0
	jmp	SHORT $LN4@GetAmmoPic
$LN2@GetAmmoPic:
	mov	eax, DWORD PTR _i$1[ebp]
	add	eax, 1
	mov	DWORD PTR _i$1[ebp], eax
$LN4@GetAmmoPic:
	cmp	DWORD PTR _i$1[ebp], 64			; 00000040H
	jge	$LN3@GetAmmoPic

; 390  : 	{
; 391  : 		if( rgWeapons[i].iAmmoType == iAmmoId )

	imul	eax, DWORD PTR _i$1[ebp], 328
	mov	ecx, DWORD PTR _this$[ebp]
	mov	edx, DWORD PTR [ecx+eax+128]
	cmp	edx, DWORD PTR _iAmmoId$[ebp]
	jne	SHORT $LN5@GetAmmoPic

; 392  : 		{
; 393  : 			rect = rgWeapons[i].rcAmmo;

	imul	eax, DWORD PTR _i$1[ebp], 328
	mov	ecx, DWORD PTR _this$[ebp]
	lea	edx, DWORD PTR [ecx+eax+212]
	mov	eax, DWORD PTR _rect$[ebp]
	mov	ecx, DWORD PTR [edx]
	mov	DWORD PTR [eax], ecx
	mov	ecx, DWORD PTR [edx+4]
	mov	DWORD PTR [eax+4], ecx
	mov	ecx, DWORD PTR [edx+8]
	mov	DWORD PTR [eax+8], ecx
	mov	edx, DWORD PTR [edx+12]
	mov	DWORD PTR [eax+12], edx

; 394  : 			return &rgWeapons[i].hAmmo;

	imul	eax, DWORD PTR _i$1[ebp], 328
	mov	ecx, DWORD PTR _this$[ebp]
	lea	eax, DWORD PTR [ecx+eax+208]
	jmp	SHORT $LN1@GetAmmoPic
	jmp	SHORT $LN6@GetAmmoPic
$LN5@GetAmmoPic:

; 395  : 		}
; 396  : 		else if( rgWeapons[i].iAmmo2Type == iAmmoId )

	imul	eax, DWORD PTR _i$1[ebp], 328
	mov	ecx, DWORD PTR _this$[ebp]
	mov	edx, DWORD PTR [ecx+eax+132]
	cmp	edx, DWORD PTR _iAmmoId$[ebp]
	jne	SHORT $LN6@GetAmmoPic

; 397  : 		{
; 398  : 			rect = rgWeapons[i].rcAmmo2;

	imul	eax, DWORD PTR _i$1[ebp], 328
	mov	ecx, DWORD PTR _this$[ebp]
	lea	edx, DWORD PTR [ecx+eax+232]
	mov	eax, DWORD PTR _rect$[ebp]
	mov	ecx, DWORD PTR [edx]
	mov	DWORD PTR [eax], ecx
	mov	ecx, DWORD PTR [edx+4]
	mov	DWORD PTR [eax+4], ecx
	mov	ecx, DWORD PTR [edx+8]
	mov	DWORD PTR [eax+8], ecx
	mov	edx, DWORD PTR [edx+12]
	mov	DWORD PTR [eax+12], edx

; 399  : 			return &rgWeapons[i].hAmmo2;

	imul	eax, DWORD PTR _i$1[ebp], 328
	mov	ecx, DWORD PTR _this$[ebp]
	lea	eax, DWORD PTR [ecx+eax+228]
	jmp	SHORT $LN1@GetAmmoPic
$LN6@GetAmmoPic:

; 400  : 		}
; 401  : 	}

	jmp	$LN2@GetAmmoPic
$LN3@GetAmmoPic:

; 402  : 	return NULL;

	xor	eax, eax
$LN1@GetAmmoPic:

; 403  : }

	pop	edi
	pop	esi
	pop	ebx
	mov	esp, ebp
	pop	ebp
	ret	8
?GetAmmoPicFromWeapon@WeaponsResource@@QAEPAHHAAUwrect_s@@@Z ENDP ; WeaponsResource::GetAmmoPicFromWeapon
_TEXT	ENDS
; Function compile flags: /Odtp /ZI
; File d:\!diffusion 2020\source code 2022\client-server\client\ammohistory.h
;	COMDAT ?SetAmmo@WeaponsResource@@QAEXHH@Z
_TEXT	SEGMENT
_this$ = -4						; size = 4
_iId$ = 8						; size = 4
_iCount$ = 12						; size = 4
?SetAmmo@WeaponsResource@@QAEXHH@Z PROC			; WeaponsResource::SetAmmo, COMDAT
; _this$ = ecx

; 105  : 	void	SetAmmo( int iId, int iCount ) { riAmmo[ iId ] = iCount;	}

	push	ebp
	mov	ebp, esp
	sub	esp, 68					; 00000044H
	push	ebx
	push	esi
	push	edi
	mov	DWORD PTR _this$[ebp], ecx
	mov	eax, DWORD PTR _iId$[ebp]
	mov	ecx, DWORD PTR _this$[ebp]
	mov	edx, DWORD PTR _iCount$[ebp]
	mov	DWORD PTR [ecx+eax*4+21224], edx
	pop	edi
	pop	esi
	pop	ebx
	mov	esp, ebp
	pop	ebp
	ret	8
?SetAmmo@WeaponsResource@@QAEXHH@Z ENDP			; WeaponsResource::SetAmmo
_TEXT	ENDS
; Function compile flags: /Odtp /ZI
; File d:\!diffusion 2020\source code 2022\client-server\client\ammo.cpp
;	COMDAT ?HasAmmo@WeaponsResource@@QAEHPAUWEAPON@@@Z
_TEXT	SEGMENT
tv84 = -72						; size = 4
_this$ = -4						; size = 4
_p$ = 8							; size = 4
?HasAmmo@WeaponsResource@@QAEHPAUWEAPON@@@Z PROC	; WeaponsResource::HasAmmo, COMDAT
; _this$ = ecx

; 41   : {

	push	ebp
	mov	ebp, esp
	sub	esp, 72					; 00000048H
	push	ebx
	push	esi
	push	edi
	mov	DWORD PTR _this$[ebp], ecx

; 42   : 	if( !p )

	cmp	DWORD PTR _p$[ebp], 0
	jne	SHORT $LN2@HasAmmo

; 43   : 		return FALSE;

	xor	eax, eax
	jmp	SHORT $LN1@HasAmmo
$LN2@HasAmmo:

; 44   : 
; 45   : 	// weapons with no max ammo can always be selected
; 46   : 	if( p->iMax1 == -1 )

	mov	eax, DWORD PTR _p$[ebp]
	cmp	DWORD PTR [eax+136], -1
	jne	SHORT $LN3@HasAmmo

; 47   : 		return TRUE;

	mov	eax, 1
	jmp	SHORT $LN1@HasAmmo
$LN3@HasAmmo:

; 48   : 
; 49   : 	return (p->iAmmoType == -1) || p->iClip > 0 || CountAmmo( p->iAmmoType ) 

	mov	eax, DWORD PTR _p$[ebp]
	cmp	DWORD PTR [eax+128], -1
	je	SHORT $LN5@HasAmmo
	mov	ecx, DWORD PTR _p$[ebp]
	cmp	DWORD PTR [ecx+160], 0
	jg	SHORT $LN5@HasAmmo
	mov	edx, DWORD PTR _p$[ebp]
	mov	eax, DWORD PTR [edx+128]
	push	eax
	mov	ecx, DWORD PTR _this$[ebp]
	call	?CountAmmo@WeaponsResource@@QAEHH@Z	; WeaponsResource::CountAmmo
	test	eax, eax
	jne	SHORT $LN5@HasAmmo
	mov	ecx, DWORD PTR _p$[ebp]
	mov	edx, DWORD PTR [ecx+132]
	push	edx
	mov	ecx, DWORD PTR _this$[ebp]
	call	?CountAmmo@WeaponsResource@@QAEHH@Z	; WeaponsResource::CountAmmo
	test	eax, eax
	jne	SHORT $LN5@HasAmmo
	mov	eax, DWORD PTR _p$[ebp]
	mov	ecx, DWORD PTR [eax+152]
	and	ecx, 1
	jne	SHORT $LN5@HasAmmo
	mov	DWORD PTR tv84[ebp], 0
	jmp	SHORT $LN6@HasAmmo
$LN5@HasAmmo:
	mov	DWORD PTR tv84[ebp], 1
$LN6@HasAmmo:
	mov	eax, DWORD PTR tv84[ebp]
$LN1@HasAmmo:

; 50   : 		|| CountAmmo( p->iAmmo2Type ) || ( p->iFlags & WEAPON_FLAGS_SELECTONEMPTY );
; 51   : }

	pop	edi
	pop	esi
	pop	ebx
	mov	esp, ebp
	pop	ebp
	ret	4
?HasAmmo@WeaponsResource@@QAEHPAUWEAPON@@@Z ENDP	; WeaponsResource::HasAmmo
_TEXT	ENDS
; Function compile flags: /Odtp /ZI
; File d:\!diffusion 2020\source code 2022\client-server\client\ammo.cpp
;	COMDAT ?GetNextActivePos@WeaponsResource@@QAEPAUWEAPON@@HH@Z
_TEXT	SEGMENT
_p$ = -8						; size = 4
_this$ = -4						; size = 4
_iSlot$ = 8						; size = 4
_iSlotPos$ = 12						; size = 4
?GetNextActivePos@WeaponsResource@@QAEPAUWEAPON@@HH@Z PROC ; WeaponsResource::GetNextActivePos, COMDAT
; _this$ = ecx

; 191  : {

	push	ebp
	mov	ebp, esp
	sub	esp, 72					; 00000048H
	push	ebx
	push	esi
	push	edi
	mov	DWORD PTR _this$[ebp], ecx

; 192  : 	if( iSlotPos >= MAX_WEAPON_POSITIONS || iSlot >= MAX_WEAPON_SLOTS )

	cmp	DWORD PTR _iSlotPos$[ebp], 7
	jge	SHORT $LN3@GetNextAct
	cmp	DWORD PTR _iSlot$[ebp], 6
	jl	SHORT $LN2@GetNextAct
$LN3@GetNextAct:

; 193  : 		return NULL;

	xor	eax, eax
	jmp	SHORT $LN1@GetNextAct
$LN2@GetNextAct:

; 194  : 
; 195  : 	WEAPON *p = gWR.rgSlots[iSlot][iSlotPos+1];

	mov	eax, DWORD PTR _iSlot$[ebp]
	shl	eax, 5
	mov	ecx, DWORD PTR _iSlotPos$[ebp]
	mov	edx, DWORD PTR ?gWR@@3VWeaponsResource@@A[eax+ecx*4+21004]
	mov	DWORD PTR _p$[ebp], edx

; 196  : 	
; 197  : 	if( !p || (!gWR.HasAmmo(p) && !gHUD.CanSelectEmptyWeapon) )

	cmp	DWORD PTR _p$[ebp], 0
	je	SHORT $LN5@GetNextAct
	mov	eax, DWORD PTR _p$[ebp]
	push	eax
	mov	ecx, OFFSET ?gWR@@3VWeaponsResource@@A	; gWR
	call	?HasAmmo@WeaponsResource@@QAEHPAUWEAPON@@@Z ; WeaponsResource::HasAmmo
	test	eax, eax
	jne	SHORT $LN4@GetNextAct
	movzx	eax, BYTE PTR ?gHUD@@3VCHud@@A+119
	test	eax, eax
	jne	SHORT $LN4@GetNextAct
$LN5@GetNextAct:

; 198  : 		return GetNextActivePos( iSlot, iSlotPos + 1 );

	mov	eax, DWORD PTR _iSlotPos$[ebp]
	add	eax, 1
	push	eax
	mov	ecx, DWORD PTR _iSlot$[ebp]
	push	ecx
	mov	ecx, DWORD PTR _this$[ebp]
	call	?GetNextActivePos@WeaponsResource@@QAEPAUWEAPON@@HH@Z ; WeaponsResource::GetNextActivePos
	jmp	SHORT $LN1@GetNextAct
$LN4@GetNextAct:

; 199  : 
; 200  : 	return p;

	mov	eax, DWORD PTR _p$[ebp]
$LN1@GetNextAct:

; 201  : }

	pop	edi
	pop	esi
	pop	ebx
	mov	esp, ebp
	pop	ebp
	ret	8
?GetNextActivePos@WeaponsResource@@QAEPAUWEAPON@@HH@Z ENDP ; WeaponsResource::GetNextActivePos
_TEXT	ENDS
; Function compile flags: /Odtp /ZI
; File d:\!diffusion 2020\source code 2022\client-server\client\ammo.cpp
;	COMDAT ?SelectSlot@WeaponsResource@@QAEXHHH@Z
_TEXT	SEGMENT
tv87 = -88						; size = 4
tv167 = -84						; size = 4
_p2$1 = -16						; size = 4
_fastSwitch$ = -9					; size = 1
_p$ = -8						; size = 4
_this$ = -4						; size = 4
_iSlot$ = 8						; size = 4
_fAdvance$ = 12						; size = 4
_iDirection$ = 16					; size = 4
?SelectSlot@WeaponsResource@@QAEXHHH@Z PROC		; WeaponsResource::SelectSlot, COMDAT
; _this$ = ecx

; 408  : {

	push	ebp
	mov	ebp, esp
	sub	esp, 88					; 00000058H
	push	ebx
	push	esi
	push	edi
	mov	DWORD PTR _this$[ebp], ecx

; 409  : 	if( gHUD.m_Menu.m_fMenuDisplayed && ( fAdvance == FALSE ) && ( iDirection == 1 ))	

	cmp	DWORD PTR ?gHUD@@3VCHud@@A+1408, 0
	je	SHORT $LN2@SelectSlot
	cmp	DWORD PTR _fAdvance$[ebp], 0
	jne	SHORT $LN2@SelectSlot
	cmp	DWORD PTR _iDirection$[ebp], 1
	jne	SHORT $LN2@SelectSlot

; 410  : 	{
; 411  : 		// menu is overriding slot use commands
; 412  : 		gHUD.m_Menu.SelectMenuItem( iSlot + 1 );  // slots are one off the key numbers

	mov	eax, DWORD PTR _iSlot$[ebp]
	add	eax, 1
	push	eax
	mov	ecx, OFFSET ?gHUD@@3VCHud@@A+1400
	call	?SelectMenuItem@CHudMenu@@QAEXH@Z	; CHudMenu::SelectMenuItem

; 413  : 		return;

	jmp	$LN1@SelectSlot
$LN2@SelectSlot:

; 414  : 	}
; 415  : 
; 416  : 	if( iSlot > MAX_WEAPON_SLOTS )

	cmp	DWORD PTR _iSlot$[ebp], 6
	jle	SHORT $LN3@SelectSlot

; 417  : 		return;

	jmp	$LN1@SelectSlot
$LN3@SelectSlot:

; 418  : 
; 419  : 	if( gHUD.m_fPlayerDead || gHUD.m_iHideHUDDisplay & ( HIDEHUD_WPNS | HIDEHUD_ALL | HIDEHUD_WPNS_HOLDABLEITEM | HIDEHUD_WPNS_CUSTOM))

	cmp	DWORD PTR ?gHUD@@3VCHud@@A+8972, 0
	jne	SHORT $LN5@SelectSlot
	mov	eax, DWORD PTR ?gHUD@@3VCHud@@A+76
	and	eax, 53					; 00000035H
	je	SHORT $LN4@SelectSlot
$LN5@SelectSlot:

; 420  : 		return;

	jmp	$LN1@SelectSlot
$LN4@SelectSlot:

; 421  : 
; 422  : 	if( !gHUD.HasWeapon( WEAPON_SUIT ))

	push	63					; 0000003fH
	mov	ecx, OFFSET ?gHUD@@3VCHud@@A		; gHUD
	call	?HasWeapon@CHud@@QAEHH@Z		; CHud::HasWeapon
	test	eax, eax
	jne	SHORT $LN6@SelectSlot

; 423  : 		return;

	jmp	$LN1@SelectSlot
$LN6@SelectSlot:

; 424  : 
; 425  : 	if ( !memcmp( gHUD.m_iWeaponBits, nullbits, sizeof( gHUD.m_iWeaponBits )))

	push	8
	mov	eax, DWORD PTR _this$[ebp]
	add	eax, 20992				; 00005200H
	push	eax
	push	OFFSET ?gHUD@@3VCHud@@A+8964
	call	_memcmp
	add	esp, 12					; 0000000cH
	test	eax, eax
	jne	SHORT $LN7@SelectSlot

; 426  : 		return;

	jmp	$LN1@SelectSlot
$LN7@SelectSlot:

; 427  : 
; 428  : 	WEAPON *p = NULL;

	mov	DWORD PTR _p$[ebp], 0

; 429  : 	bool fastSwitch = CVAR_GET_FLOAT( "hud_fastswitch" ) != 0;

	push	OFFSET ??_C@_0P@HAOPMPEA@hud_fastswitch?$AA@
	call	DWORD PTR ?gEngfuncs@@3Ucl_enginefuncs_s@@A+60
	add	esp, 4
	fstp	DWORD PTR tv167[ebp]
	movss	xmm0, DWORD PTR tv167[ebp]
	ucomiss	xmm0, DWORD PTR __real@00000000
	lahf
	test	ah, 68					; 00000044H
	jnp	SHORT $LN20@SelectSlot
	mov	DWORD PTR tv87[ebp], 1
	jmp	SHORT $LN21@SelectSlot
$LN20@SelectSlot:
	mov	DWORD PTR tv87[ebp], 0
$LN21@SelectSlot:
	mov	al, BYTE PTR tv87[ebp]
	mov	BYTE PTR _fastSwitch$[ebp], al

; 430  : 
; 431  : 	if(( gpActiveSel == NULL ) || ( gpActiveSel == (WEAPON *)1 ) || ( iSlot != gpActiveSel->iSlot ))

	cmp	DWORD PTR ?gpActiveSel@@3PAUWEAPON@@A, 0 ; gpActiveSel
	je	SHORT $LN10@SelectSlot
	cmp	DWORD PTR ?gpActiveSel@@3PAUWEAPON@@A, 1 ; gpActiveSel
	je	SHORT $LN10@SelectSlot
	mov	eax, DWORD PTR ?gpActiveSel@@3PAUWEAPON@@A ; gpActiveSel
	mov	ecx, DWORD PTR _iSlot$[ebp]
	cmp	ecx, DWORD PTR [eax+144]
	je	$LN8@SelectSlot
$LN10@SelectSlot:

; 432  : 	{
; 433  : 		PlaySound( "common/wpn_hudon.wav", 1 );

	push	ecx
	movss	xmm0, DWORD PTR __real@3f800000
	movss	DWORD PTR [esp], xmm0
	push	OFFSET ??_C@_0BF@JMGAEGF@common?1wpn_hudon?4wav?$AA@
	call	?PlaySoundA@@YAXPADM@Z			; PlaySoundA
	add	esp, 8

; 434  : 		p = GetFirstPos( iSlot );

	mov	eax, DWORD PTR _iSlot$[ebp]
	push	eax
	mov	ecx, DWORD PTR _this$[ebp]
	call	?GetFirstPos@WeaponsResource@@QAEPAUWEAPON@@H@Z ; WeaponsResource::GetFirstPos
	mov	DWORD PTR _p$[ebp], eax

; 435  : 
; 436  : 		if( p && fastSwitch ) // check for fast weapon switch mode

	cmp	DWORD PTR _p$[ebp], 0
	je	SHORT $LN12@SelectSlot
	movzx	eax, BYTE PTR _fastSwitch$[ebp]
	test	eax, eax
	je	SHORT $LN12@SelectSlot

; 437  : 		{
; 438  : 			// if fast weapon switch is on, then weapons can be selected in a single keypress
; 439  : 			// but only if there is only one item in the bucket
; 440  : 			WEAPON *p2 = GetNextActivePos( p->iSlot, p->iSlotPos );

	mov	eax, DWORD PTR _p$[ebp]
	mov	ecx, DWORD PTR [eax+148]
	push	ecx
	mov	edx, DWORD PTR _p$[ebp]
	mov	eax, DWORD PTR [edx+144]
	push	eax
	mov	ecx, DWORD PTR _this$[ebp]
	call	?GetNextActivePos@WeaponsResource@@QAEPAUWEAPON@@HH@Z ; WeaponsResource::GetNextActivePos
	mov	DWORD PTR _p2$1[ebp], eax

; 441  : 
; 442  : 			if( !p2 )

	cmp	DWORD PTR _p2$1[ebp], 0
	jne	SHORT $LN12@SelectSlot

; 443  : 			{	
; 444  : 				// only one active item in bucket, so change directly to weapon
; 445  : 				ServerCmd( p->szName );

	mov	eax, DWORD PTR _p$[ebp]
	push	eax
	call	DWORD PTR ?gEngfuncs@@3Ucl_enginefuncs_s@@A+76
	add	esp, 4

; 446  : 				g_weaponselect = p->iId;

	mov	eax, DWORD PTR _p$[ebp]
	mov	ecx, DWORD PTR [eax+156]
	mov	DWORD PTR ?g_weaponselect@@3HA, ecx	; g_weaponselect

; 447  : 				return;

	jmp	$LN1@SelectSlot
$LN12@SelectSlot:

; 448  : 			}
; 449  : 
; 450  : 		}
; 451  : 	}
; 452  : 	else

	jmp	SHORT $LN14@SelectSlot
$LN8@SelectSlot:

; 453  : 	{
; 454  : 		PlaySound( "common/wpn_moveselect.wav", 1 );

	push	ecx
	movss	xmm0, DWORD PTR __real@3f800000
	movss	DWORD PTR [esp], xmm0
	push	OFFSET ??_C@_0BK@JHOFLAAJ@common?1wpn_moveselect?4wav?$AA@
	call	?PlaySoundA@@YAXPADM@Z			; PlaySoundA
	add	esp, 8

; 455  : 		if( gpActiveSel )

	cmp	DWORD PTR ?gpActiveSel@@3PAUWEAPON@@A, 0 ; gpActiveSel
	je	SHORT $LN13@SelectSlot

; 456  : 			p = GetNextActivePos( gpActiveSel->iSlot, gpActiveSel->iSlotPos );

	mov	eax, DWORD PTR ?gpActiveSel@@3PAUWEAPON@@A ; gpActiveSel
	mov	ecx, DWORD PTR [eax+148]
	push	ecx
	mov	edx, DWORD PTR ?gpActiveSel@@3PAUWEAPON@@A ; gpActiveSel
	mov	eax, DWORD PTR [edx+144]
	push	eax
	mov	ecx, DWORD PTR _this$[ebp]
	call	?GetNextActivePos@WeaponsResource@@QAEPAUWEAPON@@HH@Z ; WeaponsResource::GetNextActivePos
	mov	DWORD PTR _p$[ebp], eax
$LN13@SelectSlot:

; 457  : 		if( !p )

	cmp	DWORD PTR _p$[ebp], 0
	jne	SHORT $LN14@SelectSlot

; 458  : 			p = GetFirstPos( iSlot );

	mov	eax, DWORD PTR _iSlot$[ebp]
	push	eax
	mov	ecx, DWORD PTR _this$[ebp]
	call	?GetFirstPos@WeaponsResource@@QAEPAUWEAPON@@H@Z ; WeaponsResource::GetFirstPos
	mov	DWORD PTR _p$[ebp], eax
$LN14@SelectSlot:

; 459  : 	}
; 460  : 
; 461  : 	
; 462  : 	if( !p )  // no selection found

	cmp	DWORD PTR _p$[ebp], 0
	jne	SHORT $LN15@SelectSlot

; 463  : 	{
; 464  : 		// just display the weapon list, unless fastswitch is on just ignore it
; 465  : 		if( !fastSwitch )

	movzx	eax, BYTE PTR _fastSwitch$[ebp]
	test	eax, eax
	jne	SHORT $LN17@SelectSlot

; 466  : 			gpActiveSel = (WEAPON *)1;

	mov	DWORD PTR ?gpActiveSel@@3PAUWEAPON@@A, 1 ; gpActiveSel

; 467  : 		else

	jmp	SHORT $LN18@SelectSlot
$LN17@SelectSlot:

; 468  : 			gpActiveSel = NULL;

	mov	DWORD PTR ?gpActiveSel@@3PAUWEAPON@@A, 0 ; gpActiveSel
$LN18@SelectSlot:

; 469  : 	}
; 470  : 	else 

	jmp	SHORT $LN16@SelectSlot
$LN15@SelectSlot:

; 471  : 		gpActiveSel = p;

	mov	eax, DWORD PTR _p$[ebp]
	mov	DWORD PTR ?gpActiveSel@@3PAUWEAPON@@A, eax ; gpActiveSel
$LN16@SelectSlot:
$LN1@SelectSlot:

; 472  : }

	pop	edi
	pop	esi
	pop	ebx
	mov	esp, ebp
	pop	ebp
	ret	12					; 0000000cH
?SelectSlot@WeaponsResource@@QAEXHHH@Z ENDP		; WeaponsResource::SelectSlot
_TEXT	ENDS
; Function compile flags: /Odtp /ZI
; File d:\!diffusion 2020\source code 2022\client-server\client\ammo.cpp
;	COMDAT ?GetFirstPos@WeaponsResource@@QAEPAUWEAPON@@H@Z
_TEXT	SEGMENT
_i$1 = -12						; size = 4
_pret$ = -8						; size = 4
_this$ = -4						; size = 4
_iSlot$ = 8						; size = 4
?GetFirstPos@WeaponsResource@@QAEPAUWEAPON@@H@Z PROC	; WeaponsResource::GetFirstPos, COMDAT
; _this$ = ecx

; 176  : {

	push	ebp
	mov	ebp, esp
	sub	esp, 76					; 0000004cH
	push	ebx
	push	esi
	push	edi
	mov	DWORD PTR _this$[ebp], ecx

; 177  : 	WEAPON *pret = NULL;

	mov	DWORD PTR _pret$[ebp], 0

; 178  : 
; 179  : 	for( int i = 0; i < MAX_WEAPON_POSITIONS; i++ )

	mov	DWORD PTR _i$1[ebp], 0
	jmp	SHORT $LN4@GetFirstPo
$LN2@GetFirstPo:
	mov	eax, DWORD PTR _i$1[ebp]
	add	eax, 1
	mov	DWORD PTR _i$1[ebp], eax
$LN4@GetFirstPo:
	cmp	DWORD PTR _i$1[ebp], 7
	jge	SHORT $LN3@GetFirstPo

; 180  : 	{
; 181  : 		if( rgSlots[iSlot][i] && (HasAmmo( rgSlots[iSlot][i] ) || gHUD.CanSelectEmptyWeapon) )

	mov	eax, DWORD PTR _iSlot$[ebp]
	shl	eax, 5
	mov	ecx, DWORD PTR _this$[ebp]
	lea	edx, DWORD PTR [ecx+eax+21000]
	mov	eax, DWORD PTR _i$1[ebp]
	cmp	DWORD PTR [edx+eax*4], 0
	je	SHORT $LN5@GetFirstPo
	mov	eax, DWORD PTR _iSlot$[ebp]
	shl	eax, 5
	mov	ecx, DWORD PTR _this$[ebp]
	lea	edx, DWORD PTR [ecx+eax+21000]
	mov	eax, DWORD PTR _i$1[ebp]
	mov	ecx, DWORD PTR [edx+eax*4]
	push	ecx
	mov	ecx, DWORD PTR _this$[ebp]
	call	?HasAmmo@WeaponsResource@@QAEHPAUWEAPON@@@Z ; WeaponsResource::HasAmmo
	test	eax, eax
	jne	SHORT $LN6@GetFirstPo
	movzx	eax, BYTE PTR ?gHUD@@3VCHud@@A+119
	test	eax, eax
	je	SHORT $LN5@GetFirstPo
$LN6@GetFirstPo:

; 182  : 		{
; 183  : 			pret = rgSlots[iSlot][i];

	mov	eax, DWORD PTR _iSlot$[ebp]
	shl	eax, 5
	mov	ecx, DWORD PTR _this$[ebp]
	lea	edx, DWORD PTR [ecx+eax+21000]
	mov	eax, DWORD PTR _i$1[ebp]
	mov	ecx, DWORD PTR [edx+eax*4]
	mov	DWORD PTR _pret$[ebp], ecx

; 184  : 			break;

	jmp	SHORT $LN3@GetFirstPo
$LN5@GetFirstPo:

; 185  : 		}
; 186  : 	}

	jmp	SHORT $LN2@GetFirstPo
$LN3@GetFirstPo:

; 187  : 	return pret;

	mov	eax, DWORD PTR _pret$[ebp]

; 188  : }

	pop	edi
	pop	esi
	pop	ebx
	mov	esp, ebp
	pop	ebp
	ret	4
?GetFirstPos@WeaponsResource@@QAEPAUWEAPON@@H@Z ENDP	; WeaponsResource::GetFirstPos
_TEXT	ENDS
; Function compile flags: /Odtp /ZI
; File d:\!diffusion 2020\source code 2022\client-server\client\ammo.cpp
;	COMDAT ?LoadWeaponSprites@WeaponsResource@@QAEXPAUWEAPON@@@Z
_TEXT	SEGMENT
tv335 = -220						; size = 4
tv305 = -220						; size = 4
tv253 = -220						; size = 4
tv235 = -220						; size = 4
_p$ = -152						; size = 4
_pList$ = -148						; size = 4
_sz$ = -144						; size = 128
_iRes$ = -16						; size = 4
_i$ = -12						; size = 4
_this$ = -8						; size = 4
__$ArrayPad$ = -4					; size = 4
_pWeapon$ = 8						; size = 4
?LoadWeaponSprites@WeaponsResource@@QAEXPAUWEAPON@@@Z PROC ; WeaponsResource::LoadWeaponSprites, COMDAT
; _this$ = ecx

; 54   : {

	push	ebp
	mov	ebp, esp
	sub	esp, 220				; 000000dcH
	mov	eax, DWORD PTR ___security_cookie
	xor	eax, ebp
	mov	DWORD PTR __$ArrayPad$[ebp], eax
	push	ebx
	push	esi
	push	edi
	mov	DWORD PTR _this$[ebp], ecx

; 55   : 	int i, iRes;
; 56   : 	
; 57   : 	if( ScreenWidth < 640 )

	cmp	DWORD PTR ?gHUD@@3VCHud@@A+8436, 640	; 00000280H
	jge	SHORT $LN2@LoadWeapon

; 58   : 		iRes = 320;

	mov	DWORD PTR _iRes$[ebp], 320		; 00000140H
	jmp	SHORT $LN3@LoadWeapon
$LN2@LoadWeapon:

; 59   : 	else iRes = 640;

	mov	DWORD PTR _iRes$[ebp], 640		; 00000280H
$LN3@LoadWeapon:

; 60   : 
; 61   : 	char sz[128];
; 62   : 
; 63   : 	if ( !pWeapon ) return;

	cmp	DWORD PTR _pWeapon$[ebp], 0
	jne	SHORT $LN4@LoadWeapon
	jmp	$LN1@LoadWeapon
$LN4@LoadWeapon:

; 64   : 
; 65   : 	memset( &pWeapon->rcActive, 0, sizeof( wrect_t ));

	push	16					; 00000010H
	push	0
	mov	eax, DWORD PTR _pWeapon$[ebp]
	add	eax, 172				; 000000acH
	push	eax
	call	_memset
	add	esp, 12					; 0000000cH

; 66   : 	memset( &pWeapon->rcInactive, 0, sizeof( wrect_t ));

	push	16					; 00000010H
	push	0
	mov	eax, DWORD PTR _pWeapon$[ebp]
	add	eax, 192				; 000000c0H
	push	eax
	call	_memset
	add	esp, 12					; 0000000cH

; 67   : 	memset( &pWeapon->rcAmmo, 0, sizeof( wrect_t ));

	push	16					; 00000010H
	push	0
	mov	eax, DWORD PTR _pWeapon$[ebp]
	add	eax, 212				; 000000d4H
	push	eax
	call	_memset
	add	esp, 12					; 0000000cH

; 68   : 	memset( &pWeapon->rcAmmo2, 0, sizeof( wrect_t ));

	push	16					; 00000010H
	push	0
	mov	eax, DWORD PTR _pWeapon$[ebp]
	add	eax, 232				; 000000e8H
	push	eax
	call	_memset
	add	esp, 12					; 0000000cH

; 69   : 	pWeapon->hInactive = 0;

	mov	eax, DWORD PTR _pWeapon$[ebp]
	mov	DWORD PTR [eax+188], 0

; 70   : 	pWeapon->hActive = 0;

	mov	eax, DWORD PTR _pWeapon$[ebp]
	mov	DWORD PTR [eax+168], 0

; 71   : 	pWeapon->hAmmo = 0;

	mov	eax, DWORD PTR _pWeapon$[ebp]
	mov	DWORD PTR [eax+208], 0

; 72   : 	pWeapon->hAmmo2 = 0;

	mov	eax, DWORD PTR _pWeapon$[ebp]
	mov	DWORD PTR [eax+228], 0

; 73   : 	
; 74   : 	Q_snprintf( sz, sizeof( sz ), "sprites/%s.txt", pWeapon->szName );

	mov	eax, DWORD PTR _pWeapon$[ebp]
	push	eax
	push	OFFSET ??_C@_0P@LBFCELJB@sprites?1?$CFs?4txt?$AA@
	push	128					; 00000080H
	lea	ecx, DWORD PTR _sz$[ebp]
	push	ecx
	call	?Q_snprintf@@YAHPADIPBDZZ		; Q_snprintf
	add	esp, 16					; 00000010H

; 75   : 	client_sprite_t *pList = SPR_GetList( sz, &i );

	lea	eax, DWORD PTR _i$[ebp]
	push	eax
	lea	ecx, DWORD PTR _sz$[ebp]
	push	ecx
	call	DWORD PTR ?gEngfuncs@@3Ucl_enginefuncs_s@@A+40
	add	esp, 8
	mov	DWORD PTR _pList$[ebp], eax

; 76   : 
; 77   : 	if( !pList ) return;

	cmp	DWORD PTR _pList$[ebp], 0
	jne	SHORT $LN5@LoadWeapon
	jmp	$LN1@LoadWeapon
$LN5@LoadWeapon:

; 78   : 
; 79   : 	client_sprite_t *p;
; 80   : 	
; 81   : 	p = GetSpriteList( pList, "crosshair", iRes, i );

	mov	eax, DWORD PTR _i$[ebp]
	push	eax
	mov	ecx, DWORD PTR _iRes$[ebp]
	push	ecx
	push	OFFSET ??_C@_09NBNKIDFG@crosshair?$AA@
	mov	edx, DWORD PTR _pList$[ebp]
	push	edx
	call	?GetSpriteList@@YAPAUclient_sprite_s@@PAU1@PBDHH@Z ; GetSpriteList
	add	esp, 16					; 00000010H
	mov	DWORD PTR _p$[ebp], eax

; 82   : 	if( p )

	cmp	DWORD PTR _p$[ebp], 0
	je	SHORT $LN6@LoadWeapon

; 83   : 	{
; 84   : 		Q_snprintf( sz, sizeof( sz ), "sprites/%s.spr", p->szSprite );

	mov	eax, DWORD PTR _p$[ebp]
	add	eax, 64					; 00000040H
	push	eax
	push	OFFSET ??_C@_0P@HEMMIFBG@sprites?1?$CFs?4spr?$AA@
	push	128					; 00000080H
	lea	ecx, DWORD PTR _sz$[ebp]
	push	ecx
	call	?Q_snprintf@@YAHPADIPBDZZ		; Q_snprintf
	add	esp, 16					; 00000010H

; 85   : 		pWeapon->hCrosshair = SPR_Load( sz );

	lea	eax, DWORD PTR _sz$[ebp]
	push	eax
	call	DWORD PTR ?gEngfuncs@@3Ucl_enginefuncs_s@@A
	add	esp, 4
	mov	ecx, DWORD PTR _pWeapon$[ebp]
	mov	DWORD PTR [ecx+248], eax

; 86   : 		pWeapon->rcCrosshair = p->rc;

	mov	eax, DWORD PTR _p$[ebp]
	add	eax, 136				; 00000088H
	mov	ecx, DWORD PTR _pWeapon$[ebp]
	add	ecx, 252				; 000000fcH
	mov	edx, DWORD PTR [eax]
	mov	DWORD PTR [ecx], edx
	mov	edx, DWORD PTR [eax+4]
	mov	DWORD PTR [ecx+4], edx
	mov	edx, DWORD PTR [eax+8]
	mov	DWORD PTR [ecx+8], edx
	mov	eax, DWORD PTR [eax+12]
	mov	DWORD PTR [ecx+12], eax
	jmp	SHORT $LN7@LoadWeapon
$LN6@LoadWeapon:

; 87   : 	}
; 88   : 	else pWeapon->hCrosshair = 0;

	mov	eax, DWORD PTR _pWeapon$[ebp]
	mov	DWORD PTR [eax+248], 0
$LN7@LoadWeapon:

; 89   : 
; 90   : 	p = GetSpriteList( pList, "autoaim", iRes, i );

	mov	eax, DWORD PTR _i$[ebp]
	push	eax
	mov	ecx, DWORD PTR _iRes$[ebp]
	push	ecx
	push	OFFSET ??_C@_07KHNCKFFH@autoaim?$AA@
	mov	edx, DWORD PTR _pList$[ebp]
	push	edx
	call	?GetSpriteList@@YAPAUclient_sprite_s@@PAU1@PBDHH@Z ; GetSpriteList
	add	esp, 16					; 00000010H
	mov	DWORD PTR _p$[ebp], eax

; 91   : 	if( p )

	cmp	DWORD PTR _p$[ebp], 0
	je	SHORT $LN8@LoadWeapon

; 92   : 	{
; 93   : 		Q_snprintf( sz, sizeof( sz ), "sprites/%s.spr", p->szSprite );

	mov	eax, DWORD PTR _p$[ebp]
	add	eax, 64					; 00000040H
	push	eax
	push	OFFSET ??_C@_0P@HEMMIFBG@sprites?1?$CFs?4spr?$AA@
	push	128					; 00000080H
	lea	ecx, DWORD PTR _sz$[ebp]
	push	ecx
	call	?Q_snprintf@@YAHPADIPBDZZ		; Q_snprintf
	add	esp, 16					; 00000010H

; 94   : 		pWeapon->hAutoaim = SPR_Load( sz );

	lea	eax, DWORD PTR _sz$[ebp]
	push	eax
	call	DWORD PTR ?gEngfuncs@@3Ucl_enginefuncs_s@@A
	add	esp, 4
	mov	ecx, DWORD PTR _pWeapon$[ebp]
	mov	DWORD PTR [ecx+268], eax

; 95   : 		pWeapon->rcAutoaim = p->rc;

	mov	eax, DWORD PTR _p$[ebp]
	add	eax, 136				; 00000088H
	mov	ecx, DWORD PTR _pWeapon$[ebp]
	add	ecx, 272				; 00000110H
	mov	edx, DWORD PTR [eax]
	mov	DWORD PTR [ecx], edx
	mov	edx, DWORD PTR [eax+4]
	mov	DWORD PTR [ecx+4], edx
	mov	edx, DWORD PTR [eax+8]
	mov	DWORD PTR [ecx+8], edx
	mov	eax, DWORD PTR [eax+12]
	mov	DWORD PTR [ecx+12], eax
	jmp	SHORT $LN9@LoadWeapon
$LN8@LoadWeapon:

; 96   : 	}
; 97   : 	else pWeapon->hAutoaim = 0;

	mov	eax, DWORD PTR _pWeapon$[ebp]
	mov	DWORD PTR [eax+268], 0
$LN9@LoadWeapon:

; 98   : 
; 99   : 	p = GetSpriteList( pList, "zoom", iRes, i );

	mov	eax, DWORD PTR _i$[ebp]
	push	eax
	mov	ecx, DWORD PTR _iRes$[ebp]
	push	ecx
	push	OFFSET ??_C@_04HKCCIOCO@zoom?$AA@
	mov	edx, DWORD PTR _pList$[ebp]
	push	edx
	call	?GetSpriteList@@YAPAUclient_sprite_s@@PAU1@PBDHH@Z ; GetSpriteList
	add	esp, 16					; 00000010H
	mov	DWORD PTR _p$[ebp], eax

; 100  : 	if( p )

	cmp	DWORD PTR _p$[ebp], 0
	je	SHORT $LN10@LoadWeapon

; 101  : 	{
; 102  : 		Q_snprintf( sz, sizeof( sz ), "sprites/%s.spr", p->szSprite );

	mov	eax, DWORD PTR _p$[ebp]
	add	eax, 64					; 00000040H
	push	eax
	push	OFFSET ??_C@_0P@HEMMIFBG@sprites?1?$CFs?4spr?$AA@
	push	128					; 00000080H
	lea	ecx, DWORD PTR _sz$[ebp]
	push	ecx
	call	?Q_snprintf@@YAHPADIPBDZZ		; Q_snprintf
	add	esp, 16					; 00000010H

; 103  : 		pWeapon->hZoomedCrosshair = SPR_Load( sz );

	lea	eax, DWORD PTR _sz$[ebp]
	push	eax
	call	DWORD PTR ?gEngfuncs@@3Ucl_enginefuncs_s@@A
	add	esp, 4
	mov	ecx, DWORD PTR _pWeapon$[ebp]
	mov	DWORD PTR [ecx+288], eax

; 104  : 		pWeapon->rcZoomedCrosshair = p->rc;

	mov	eax, DWORD PTR _p$[ebp]
	add	eax, 136				; 00000088H
	mov	ecx, DWORD PTR _pWeapon$[ebp]
	add	ecx, 292				; 00000124H
	mov	edx, DWORD PTR [eax]
	mov	DWORD PTR [ecx], edx
	mov	edx, DWORD PTR [eax+4]
	mov	DWORD PTR [ecx+4], edx
	mov	edx, DWORD PTR [eax+8]
	mov	DWORD PTR [ecx+8], edx
	mov	eax, DWORD PTR [eax+12]
	mov	DWORD PTR [ecx+12], eax

; 105  : 	}
; 106  : 	else

	jmp	SHORT $LN11@LoadWeapon
$LN10@LoadWeapon:

; 107  : 	{
; 108  : 		pWeapon->hZoomedCrosshair = pWeapon->hCrosshair; // default to non-zoomed crosshair

	mov	eax, DWORD PTR _pWeapon$[ebp]
	mov	ecx, DWORD PTR _pWeapon$[ebp]
	mov	edx, DWORD PTR [ecx+248]
	mov	DWORD PTR [eax+288], edx

; 109  : 		pWeapon->rcZoomedCrosshair = pWeapon->rcCrosshair;

	mov	eax, DWORD PTR _pWeapon$[ebp]
	add	eax, 252				; 000000fcH
	mov	ecx, DWORD PTR _pWeapon$[ebp]
	add	ecx, 292				; 00000124H
	mov	edx, DWORD PTR [eax]
	mov	DWORD PTR [ecx], edx
	mov	edx, DWORD PTR [eax+4]
	mov	DWORD PTR [ecx+4], edx
	mov	edx, DWORD PTR [eax+8]
	mov	DWORD PTR [ecx+8], edx
	mov	eax, DWORD PTR [eax+12]
	mov	DWORD PTR [ecx+12], eax
$LN11@LoadWeapon:

; 110  : 	}
; 111  : 
; 112  : 	p = GetSpriteList( pList, "zoom_autoaim", iRes, i );

	mov	eax, DWORD PTR _i$[ebp]
	push	eax
	mov	ecx, DWORD PTR _iRes$[ebp]
	push	ecx
	push	OFFSET ??_C@_0N@FNDHLGPO@zoom_autoaim?$AA@
	mov	edx, DWORD PTR _pList$[ebp]
	push	edx
	call	?GetSpriteList@@YAPAUclient_sprite_s@@PAU1@PBDHH@Z ; GetSpriteList
	add	esp, 16					; 00000010H
	mov	DWORD PTR _p$[ebp], eax

; 113  : 	if( p )

	cmp	DWORD PTR _p$[ebp], 0
	je	SHORT $LN12@LoadWeapon

; 114  : 	{
; 115  : 		Q_snprintf( sz, sizeof( sz ), "sprites/%s.spr", p->szSprite );

	mov	eax, DWORD PTR _p$[ebp]
	add	eax, 64					; 00000040H
	push	eax
	push	OFFSET ??_C@_0P@HEMMIFBG@sprites?1?$CFs?4spr?$AA@
	push	128					; 00000080H
	lea	ecx, DWORD PTR _sz$[ebp]
	push	ecx
	call	?Q_snprintf@@YAHPADIPBDZZ		; Q_snprintf
	add	esp, 16					; 00000010H

; 116  : 		pWeapon->hZoomedAutoaim = SPR_Load( sz );

	lea	eax, DWORD PTR _sz$[ebp]
	push	eax
	call	DWORD PTR ?gEngfuncs@@3Ucl_enginefuncs_s@@A
	add	esp, 4
	mov	ecx, DWORD PTR _pWeapon$[ebp]
	mov	DWORD PTR [ecx+308], eax

; 117  : 		pWeapon->rcZoomedAutoaim = p->rc;

	mov	eax, DWORD PTR _p$[ebp]
	add	eax, 136				; 00000088H
	mov	ecx, DWORD PTR _pWeapon$[ebp]
	add	ecx, 312				; 00000138H
	mov	edx, DWORD PTR [eax]
	mov	DWORD PTR [ecx], edx
	mov	edx, DWORD PTR [eax+4]
	mov	DWORD PTR [ecx+4], edx
	mov	edx, DWORD PTR [eax+8]
	mov	DWORD PTR [ecx+8], edx
	mov	eax, DWORD PTR [eax+12]
	mov	DWORD PTR [ecx+12], eax

; 118  : 	}
; 119  : 	else

	jmp	SHORT $LN13@LoadWeapon
$LN12@LoadWeapon:

; 120  : 	{
; 121  : 		pWeapon->hZoomedAutoaim = pWeapon->hZoomedCrosshair;  // default to zoomed crosshair

	mov	eax, DWORD PTR _pWeapon$[ebp]
	mov	ecx, DWORD PTR _pWeapon$[ebp]
	mov	edx, DWORD PTR [ecx+288]
	mov	DWORD PTR [eax+308], edx

; 122  : 		pWeapon->rcZoomedAutoaim = pWeapon->rcZoomedCrosshair;

	mov	eax, DWORD PTR _pWeapon$[ebp]
	add	eax, 292				; 00000124H
	mov	ecx, DWORD PTR _pWeapon$[ebp]
	add	ecx, 312				; 00000138H
	mov	edx, DWORD PTR [eax]
	mov	DWORD PTR [ecx], edx
	mov	edx, DWORD PTR [eax+4]
	mov	DWORD PTR [ecx+4], edx
	mov	edx, DWORD PTR [eax+8]
	mov	DWORD PTR [ecx+8], edx
	mov	eax, DWORD PTR [eax+12]
	mov	DWORD PTR [ecx+12], eax
$LN13@LoadWeapon:

; 123  : 	}
; 124  : 
; 125  : 	p = GetSpriteList( pList, "weapon", iRes, i );

	mov	eax, DWORD PTR _i$[ebp]
	push	eax
	mov	ecx, DWORD PTR _iRes$[ebp]
	push	ecx
	push	OFFSET ??_C@_06GEPNGEJI@weapon?$AA@
	mov	edx, DWORD PTR _pList$[ebp]
	push	edx
	call	?GetSpriteList@@YAPAUclient_sprite_s@@PAU1@PBDHH@Z ; GetSpriteList
	add	esp, 16					; 00000010H
	mov	DWORD PTR _p$[ebp], eax

; 126  : 	if( p )

	cmp	DWORD PTR _p$[ebp], 0
	je	$LN14@LoadWeapon

; 127  : 	{
; 128  : 		Q_snprintf( sz, sizeof( sz ), "sprites/%s.spr", p->szSprite );

	mov	eax, DWORD PTR _p$[ebp]
	add	eax, 64					; 00000040H
	push	eax
	push	OFFSET ??_C@_0P@HEMMIFBG@sprites?1?$CFs?4spr?$AA@
	push	128					; 00000080H
	lea	ecx, DWORD PTR _sz$[ebp]
	push	ecx
	call	?Q_snprintf@@YAHPADIPBDZZ		; Q_snprintf
	add	esp, 16					; 00000010H

; 129  : 		pWeapon->hInactive = SPR_Load( sz );

	lea	eax, DWORD PTR _sz$[ebp]
	push	eax
	call	DWORD PTR ?gEngfuncs@@3Ucl_enginefuncs_s@@A
	add	esp, 4
	mov	ecx, DWORD PTR _pWeapon$[ebp]
	mov	DWORD PTR [ecx+188], eax

; 130  : 		pWeapon->rcInactive = p->rc;

	mov	eax, DWORD PTR _p$[ebp]
	add	eax, 136				; 00000088H
	mov	ecx, DWORD PTR _pWeapon$[ebp]
	add	ecx, 192				; 000000c0H
	mov	edx, DWORD PTR [eax]
	mov	DWORD PTR [ecx], edx
	mov	edx, DWORD PTR [eax+4]
	mov	DWORD PTR [ecx+4], edx
	mov	edx, DWORD PTR [eax+8]
	mov	DWORD PTR [ecx+8], edx
	mov	eax, DWORD PTR [eax+12]
	mov	DWORD PTR [ecx+12], eax

; 131  : 		gHR.iHistoryGap = max( gHR.iHistoryGap, pWeapon->rcActive.bottom - pWeapon->rcActive.top );

	mov	eax, DWORD PTR _pWeapon$[ebp]
	mov	ecx, DWORD PTR _pWeapon$[ebp]
	mov	edx, DWORD PTR [eax+184]
	sub	edx, DWORD PTR [ecx+180]
	cmp	DWORD PTR ?gHR@@3VHistoryResource@@A+192, edx
	jle	SHORT $LN23@LoadWeapon
	mov	eax, DWORD PTR ?gHR@@3VHistoryResource@@A+192
	mov	DWORD PTR tv235[ebp], eax
	jmp	SHORT $LN24@LoadWeapon
$LN23@LoadWeapon:
	mov	ecx, DWORD PTR _pWeapon$[ebp]
	mov	edx, DWORD PTR _pWeapon$[ebp]
	mov	eax, DWORD PTR [ecx+184]
	sub	eax, DWORD PTR [edx+180]
	mov	DWORD PTR tv235[ebp], eax
$LN24@LoadWeapon:
	mov	ecx, DWORD PTR tv235[ebp]
	mov	DWORD PTR ?gHR@@3VHistoryResource@@A+192, ecx

; 132  : 	}
; 133  : 	else

	jmp	$LN15@LoadWeapon
$LN14@LoadWeapon:

; 134  : 	{
; 135  : 		pWeapon->hInactive = gHUD.m_hHudError;

	mov	eax, DWORD PTR _pWeapon$[ebp]
	mov	ecx, DWORD PTR ?gHUD@@3VCHud@@A+8988
	mov	DWORD PTR [eax+188], ecx

; 136  : 		pWeapon->rcInactive = gHUD.GetSpriteRect( gHUD.m_HUD_error );

	mov	eax, DWORD PTR ?gHUD@@3VCHud@@A+8984
	push	eax
	mov	ecx, OFFSET ?gHUD@@3VCHud@@A		; gHUD
	call	?GetSpriteRect@CHud@@QAEAAUwrect_s@@H@Z	; CHud::GetSpriteRect
	mov	ecx, DWORD PTR _pWeapon$[ebp]
	add	ecx, 192				; 000000c0H
	mov	edx, DWORD PTR [eax]
	mov	DWORD PTR [ecx], edx
	mov	edx, DWORD PTR [eax+4]
	mov	DWORD PTR [ecx+4], edx
	mov	edx, DWORD PTR [eax+8]
	mov	DWORD PTR [ecx+8], edx
	mov	eax, DWORD PTR [eax+12]
	mov	DWORD PTR [ecx+12], eax

; 137  : 		gHR.iHistoryGap = max( gHR.iHistoryGap, pWeapon->rcActive.bottom - pWeapon->rcActive.top );

	mov	eax, DWORD PTR _pWeapon$[ebp]
	mov	ecx, DWORD PTR _pWeapon$[ebp]
	mov	edx, DWORD PTR [eax+184]
	sub	edx, DWORD PTR [ecx+180]
	cmp	DWORD PTR ?gHR@@3VHistoryResource@@A+192, edx
	jle	SHORT $LN25@LoadWeapon
	mov	eax, DWORD PTR ?gHR@@3VHistoryResource@@A+192
	mov	DWORD PTR tv253[ebp], eax
	jmp	SHORT $LN26@LoadWeapon
$LN25@LoadWeapon:
	mov	ecx, DWORD PTR _pWeapon$[ebp]
	mov	edx, DWORD PTR _pWeapon$[ebp]
	mov	eax, DWORD PTR [ecx+184]
	sub	eax, DWORD PTR [edx+180]
	mov	DWORD PTR tv253[ebp], eax
$LN26@LoadWeapon:
	mov	ecx, DWORD PTR tv253[ebp]
	mov	DWORD PTR ?gHR@@3VHistoryResource@@A+192, ecx
$LN15@LoadWeapon:

; 138  : 	}
; 139  : 
; 140  : 	p = GetSpriteList( pList, "weapon_s", iRes, i );

	mov	eax, DWORD PTR _i$[ebp]
	push	eax
	mov	ecx, DWORD PTR _iRes$[ebp]
	push	ecx
	push	OFFSET ??_C@_08JALFICBG@weapon_s?$AA@
	mov	edx, DWORD PTR _pList$[ebp]
	push	edx
	call	?GetSpriteList@@YAPAUclient_sprite_s@@PAU1@PBDHH@Z ; GetSpriteList
	add	esp, 16					; 00000010H
	mov	DWORD PTR _p$[ebp], eax

; 141  : 	if( p )

	cmp	DWORD PTR _p$[ebp], 0
	je	SHORT $LN16@LoadWeapon

; 142  : 	{
; 143  : 		Q_snprintf( sz, sizeof( sz ), "sprites/%s.spr", p->szSprite );

	mov	eax, DWORD PTR _p$[ebp]
	add	eax, 64					; 00000040H
	push	eax
	push	OFFSET ??_C@_0P@HEMMIFBG@sprites?1?$CFs?4spr?$AA@
	push	128					; 00000080H
	lea	ecx, DWORD PTR _sz$[ebp]
	push	ecx
	call	?Q_snprintf@@YAHPADIPBDZZ		; Q_snprintf
	add	esp, 16					; 00000010H

; 144  : 		pWeapon->hActive = SPR_Load( sz );

	lea	eax, DWORD PTR _sz$[ebp]
	push	eax
	call	DWORD PTR ?gEngfuncs@@3Ucl_enginefuncs_s@@A
	add	esp, 4
	mov	ecx, DWORD PTR _pWeapon$[ebp]
	mov	DWORD PTR [ecx+168], eax

; 145  : 		pWeapon->rcActive = p->rc;

	mov	eax, DWORD PTR _p$[ebp]
	add	eax, 136				; 00000088H
	mov	ecx, DWORD PTR _pWeapon$[ebp]
	add	ecx, 172				; 000000acH
	mov	edx, DWORD PTR [eax]
	mov	DWORD PTR [ecx], edx
	mov	edx, DWORD PTR [eax+4]
	mov	DWORD PTR [ecx+4], edx
	mov	edx, DWORD PTR [eax+8]
	mov	DWORD PTR [ecx+8], edx
	mov	eax, DWORD PTR [eax+12]
	mov	DWORD PTR [ecx+12], eax

; 146  : 	}
; 147  : 	else

	jmp	SHORT $LN17@LoadWeapon
$LN16@LoadWeapon:

; 148  : 	{
; 149  : 		pWeapon->hActive = gHUD.m_hHudError;

	mov	eax, DWORD PTR _pWeapon$[ebp]
	mov	ecx, DWORD PTR ?gHUD@@3VCHud@@A+8988
	mov	DWORD PTR [eax+168], ecx

; 150  : 		pWeapon->rcActive = gHUD.GetSpriteRect( gHUD.m_HUD_error );

	mov	eax, DWORD PTR ?gHUD@@3VCHud@@A+8984
	push	eax
	mov	ecx, OFFSET ?gHUD@@3VCHud@@A		; gHUD
	call	?GetSpriteRect@CHud@@QAEAAUwrect_s@@H@Z	; CHud::GetSpriteRect
	mov	ecx, DWORD PTR _pWeapon$[ebp]
	add	ecx, 172				; 000000acH
	mov	edx, DWORD PTR [eax]
	mov	DWORD PTR [ecx], edx
	mov	edx, DWORD PTR [eax+4]
	mov	DWORD PTR [ecx+4], edx
	mov	edx, DWORD PTR [eax+8]
	mov	DWORD PTR [ecx+8], edx
	mov	eax, DWORD PTR [eax+12]
	mov	DWORD PTR [ecx+12], eax
$LN17@LoadWeapon:

; 151  : 	}
; 152  : 
; 153  : 	p = GetSpriteList( pList, "ammo", iRes, i );

	mov	eax, DWORD PTR _i$[ebp]
	push	eax
	mov	ecx, DWORD PTR _iRes$[ebp]
	push	ecx
	push	OFFSET ??_C@_04PGKJFGNK@ammo?$AA@
	mov	edx, DWORD PTR _pList$[ebp]
	push	edx
	call	?GetSpriteList@@YAPAUclient_sprite_s@@PAU1@PBDHH@Z ; GetSpriteList
	add	esp, 16					; 00000010H
	mov	DWORD PTR _p$[ebp], eax

; 154  : 	if( p )

	cmp	DWORD PTR _p$[ebp], 0
	je	$LN18@LoadWeapon

; 155  : 	{
; 156  : 		Q_snprintf( sz, sizeof( sz ), "sprites/%s.spr", p->szSprite );

	mov	eax, DWORD PTR _p$[ebp]
	add	eax, 64					; 00000040H
	push	eax
	push	OFFSET ??_C@_0P@HEMMIFBG@sprites?1?$CFs?4spr?$AA@
	push	128					; 00000080H
	lea	ecx, DWORD PTR _sz$[ebp]
	push	ecx
	call	?Q_snprintf@@YAHPADIPBDZZ		; Q_snprintf
	add	esp, 16					; 00000010H

; 157  : 		pWeapon->hAmmo = SPR_Load( sz );

	lea	eax, DWORD PTR _sz$[ebp]
	push	eax
	call	DWORD PTR ?gEngfuncs@@3Ucl_enginefuncs_s@@A
	add	esp, 4
	mov	ecx, DWORD PTR _pWeapon$[ebp]
	mov	DWORD PTR [ecx+208], eax

; 158  : 		pWeapon->rcAmmo = p->rc;

	mov	eax, DWORD PTR _p$[ebp]
	add	eax, 136				; 00000088H
	mov	ecx, DWORD PTR _pWeapon$[ebp]
	add	ecx, 212				; 000000d4H
	mov	edx, DWORD PTR [eax]
	mov	DWORD PTR [ecx], edx
	mov	edx, DWORD PTR [eax+4]
	mov	DWORD PTR [ecx+4], edx
	mov	edx, DWORD PTR [eax+8]
	mov	DWORD PTR [ecx+8], edx
	mov	eax, DWORD PTR [eax+12]
	mov	DWORD PTR [ecx+12], eax

; 159  : 		gHR.iHistoryGap = max( gHR.iHistoryGap, pWeapon->rcActive.bottom - pWeapon->rcActive.top );

	mov	eax, DWORD PTR _pWeapon$[ebp]
	mov	ecx, DWORD PTR _pWeapon$[ebp]
	mov	edx, DWORD PTR [eax+184]
	sub	edx, DWORD PTR [ecx+180]
	cmp	DWORD PTR ?gHR@@3VHistoryResource@@A+192, edx
	jle	SHORT $LN27@LoadWeapon
	mov	eax, DWORD PTR ?gHR@@3VHistoryResource@@A+192
	mov	DWORD PTR tv305[ebp], eax
	jmp	SHORT $LN28@LoadWeapon
$LN27@LoadWeapon:
	mov	ecx, DWORD PTR _pWeapon$[ebp]
	mov	edx, DWORD PTR _pWeapon$[ebp]
	mov	eax, DWORD PTR [ecx+184]
	sub	eax, DWORD PTR [edx+180]
	mov	DWORD PTR tv305[ebp], eax
$LN28@LoadWeapon:
	mov	ecx, DWORD PTR tv305[ebp]
	mov	DWORD PTR ?gHR@@3VHistoryResource@@A+192, ecx
	jmp	SHORT $LN19@LoadWeapon
$LN18@LoadWeapon:

; 160  : 	}
; 161  : 	else pWeapon->hAmmo = 0;

	mov	eax, DWORD PTR _pWeapon$[ebp]
	mov	DWORD PTR [eax+208], 0
$LN19@LoadWeapon:

; 162  : 
; 163  : 	p = GetSpriteList( pList, "ammo2", iRes, i );

	mov	eax, DWORD PTR _i$[ebp]
	push	eax
	mov	ecx, DWORD PTR _iRes$[ebp]
	push	ecx
	push	OFFSET ??_C@_05ILIAMGON@ammo2?$AA@
	mov	edx, DWORD PTR _pList$[ebp]
	push	edx
	call	?GetSpriteList@@YAPAUclient_sprite_s@@PAU1@PBDHH@Z ; GetSpriteList
	add	esp, 16					; 00000010H
	mov	DWORD PTR _p$[ebp], eax

; 164  : 	if( p )

	cmp	DWORD PTR _p$[ebp], 0
	je	$LN20@LoadWeapon

; 165  : 	{
; 166  : 		Q_snprintf( sz, sizeof( sz ), "sprites/%s.spr", p->szSprite );

	mov	eax, DWORD PTR _p$[ebp]
	add	eax, 64					; 00000040H
	push	eax
	push	OFFSET ??_C@_0P@HEMMIFBG@sprites?1?$CFs?4spr?$AA@
	push	128					; 00000080H
	lea	ecx, DWORD PTR _sz$[ebp]
	push	ecx
	call	?Q_snprintf@@YAHPADIPBDZZ		; Q_snprintf
	add	esp, 16					; 00000010H

; 167  : 		pWeapon->hAmmo2 = SPR_Load( sz );

	lea	eax, DWORD PTR _sz$[ebp]
	push	eax
	call	DWORD PTR ?gEngfuncs@@3Ucl_enginefuncs_s@@A
	add	esp, 4
	mov	ecx, DWORD PTR _pWeapon$[ebp]
	mov	DWORD PTR [ecx+228], eax

; 168  : 		pWeapon->rcAmmo2 = p->rc;

	mov	eax, DWORD PTR _p$[ebp]
	add	eax, 136				; 00000088H
	mov	ecx, DWORD PTR _pWeapon$[ebp]
	add	ecx, 232				; 000000e8H
	mov	edx, DWORD PTR [eax]
	mov	DWORD PTR [ecx], edx
	mov	edx, DWORD PTR [eax+4]
	mov	DWORD PTR [ecx+4], edx
	mov	edx, DWORD PTR [eax+8]
	mov	DWORD PTR [ecx+8], edx
	mov	eax, DWORD PTR [eax+12]
	mov	DWORD PTR [ecx+12], eax

; 169  : 		gHR.iHistoryGap = max( gHR.iHistoryGap, pWeapon->rcActive.bottom - pWeapon->rcActive.top );

	mov	eax, DWORD PTR _pWeapon$[ebp]
	mov	ecx, DWORD PTR _pWeapon$[ebp]
	mov	edx, DWORD PTR [eax+184]
	sub	edx, DWORD PTR [ecx+180]
	cmp	DWORD PTR ?gHR@@3VHistoryResource@@A+192, edx
	jle	SHORT $LN29@LoadWeapon
	mov	eax, DWORD PTR ?gHR@@3VHistoryResource@@A+192
	mov	DWORD PTR tv335[ebp], eax
	jmp	SHORT $LN30@LoadWeapon
$LN29@LoadWeapon:
	mov	ecx, DWORD PTR _pWeapon$[ebp]
	mov	edx, DWORD PTR _pWeapon$[ebp]
	mov	eax, DWORD PTR [ecx+184]
	sub	eax, DWORD PTR [edx+180]
	mov	DWORD PTR tv335[ebp], eax
$LN30@LoadWeapon:
	mov	ecx, DWORD PTR tv335[ebp]
	mov	DWORD PTR ?gHR@@3VHistoryResource@@A+192, ecx
	jmp	SHORT $LN1@LoadWeapon
$LN20@LoadWeapon:

; 170  : 	}
; 171  : 	else pWeapon->hAmmo2 = 0;

	mov	eax, DWORD PTR _pWeapon$[ebp]
	mov	DWORD PTR [eax+228], 0
$LN1@LoadWeapon:

; 172  : }

	pop	edi
	pop	esi
	pop	ebx
	mov	ecx, DWORD PTR __$ArrayPad$[ebp]
	xor	ecx, ebp
	call	@__security_check_cookie@4
	mov	esp, ebp
	pop	ebp
	ret	4
?LoadWeaponSprites@WeaponsResource@@QAEXPAUWEAPON@@@Z ENDP ; WeaponsResource::LoadWeaponSprites
_TEXT	ENDS
; Function compile flags: /Odtp /ZI
; File d:\!diffusion 2020\source code 2022\client-server\client\ammohistory.h
;	COMDAT ?GetWeaponSlot@WeaponsResource@@QAEPAUWEAPON@@HH@Z
_TEXT	SEGMENT
_this$ = -4						; size = 4
_slot$ = 8						; size = 4
_pos$ = 12						; size = 4
?GetWeaponSlot@WeaponsResource@@QAEPAUWEAPON@@HH@Z PROC	; WeaponsResource::GetWeaponSlot, COMDAT
; _this$ = ecx

; 94   : 	WEAPON	*GetWeaponSlot( int slot, int pos ) { return rgSlots[slot][pos]; }

	push	ebp
	mov	ebp, esp
	sub	esp, 68					; 00000044H
	push	ebx
	push	esi
	push	edi
	mov	DWORD PTR _this$[ebp], ecx
	mov	eax, DWORD PTR _slot$[ebp]
	shl	eax, 5
	mov	ecx, DWORD PTR _this$[ebp]
	lea	edx, DWORD PTR [ecx+eax+21000]
	mov	eax, DWORD PTR _pos$[ebp]
	mov	eax, DWORD PTR [edx+eax*4]
	pop	edi
	pop	esi
	pop	ebx
	mov	esp, ebp
	pop	ebp
	ret	8
?GetWeaponSlot@WeaponsResource@@QAEPAUWEAPON@@HH@Z ENDP	; WeaponsResource::GetWeaponSlot
_TEXT	ENDS
; Function compile flags: /Odtp /ZI
; File d:\!diffusion 2020\source code 2022\client-server\client\ammohistory.h
;	COMDAT ?LoadAllWeaponSprites@WeaponsResource@@QAEXXZ
_TEXT	SEGMENT
_i$1 = -8						; size = 4
_this$ = -4						; size = 4
?LoadAllWeaponSprites@WeaponsResource@@QAEXXZ PROC	; WeaponsResource::LoadAllWeaponSprites, COMDAT
; _this$ = ecx

; 86   : 	{

	push	ebp
	mov	ebp, esp
	sub	esp, 72					; 00000048H
	push	ebx
	push	esi
	push	edi
	mov	DWORD PTR _this$[ebp], ecx

; 87   : 		for( int i = 0; i < MAX_WEAPONS; i++ )

	mov	DWORD PTR _i$1[ebp], 0
	jmp	SHORT $LN4@LoadAllWea
$LN2@LoadAllWea:
	mov	eax, DWORD PTR _i$1[ebp]
	add	eax, 1
	mov	DWORD PTR _i$1[ebp], eax
$LN4@LoadAllWea:
	cmp	DWORD PTR _i$1[ebp], 64			; 00000040H
	jge	SHORT $LN1@LoadAllWea

; 88   : 		{
; 89   : 			if( rgWeapons[i].iId )

	imul	eax, DWORD PTR _i$1[ebp], 328
	mov	ecx, DWORD PTR _this$[ebp]
	cmp	DWORD PTR [ecx+eax+156], 0
	je	SHORT $LN5@LoadAllWea

; 90   : 				LoadWeaponSprites( &rgWeapons[i] );

	imul	eax, DWORD PTR _i$1[ebp], 328
	add	eax, DWORD PTR _this$[ebp]
	push	eax
	mov	ecx, DWORD PTR _this$[ebp]
	call	?LoadWeaponSprites@WeaponsResource@@QAEXPAUWEAPON@@@Z ; WeaponsResource::LoadWeaponSprites
$LN5@LoadAllWea:

; 91   : 		}

	jmp	SHORT $LN2@LoadAllWea
$LN1@LoadAllWea:

; 92   : 	}

	pop	edi
	pop	esi
	pop	ebx
	mov	esp, ebp
	pop	ebp
	ret	0
?LoadAllWeaponSprites@WeaponsResource@@QAEXXZ ENDP	; WeaponsResource::LoadAllWeaponSprites
_TEXT	ENDS
; Function compile flags: /Odtp /ZI
; File d:\!diffusion 2020\source code 2022\client-server\client\ammohistory.h
;	COMDAT ?DropWeapon@WeaponsResource@@QAEXPAUWEAPON@@@Z
_TEXT	SEGMENT
_this$ = -4						; size = 4
_wp$ = 8						; size = 4
?DropWeapon@WeaponsResource@@QAEXPAUWEAPON@@@Z PROC	; WeaponsResource::DropWeapon, COMDAT
; _this$ = ecx

; 72   : 	{

	push	ebp
	mov	ebp, esp
	sub	esp, 68					; 00000044H
	push	ebx
	push	esi
	push	edi
	mov	DWORD PTR _this$[ebp], ecx

; 73   : 		rgSlots[wp->iSlot][wp->iSlotPos] = NULL;

	mov	eax, DWORD PTR _wp$[ebp]
	mov	ecx, DWORD PTR [eax+144]
	shl	ecx, 5
	mov	edx, DWORD PTR _this$[ebp]
	lea	eax, DWORD PTR [edx+ecx+21000]
	mov	ecx, DWORD PTR _wp$[ebp]
	mov	edx, DWORD PTR [ecx+148]
	mov	DWORD PTR [eax+edx*4], 0

; 74   : 	}

	pop	edi
	pop	esi
	pop	ebx
	mov	esp, ebp
	pop	ebp
	ret	4
?DropWeapon@WeaponsResource@@QAEXPAUWEAPON@@@Z ENDP	; WeaponsResource::DropWeapon
_TEXT	ENDS
; Function compile flags: /Odtp /ZI
; File d:\!diffusion 2020\source code 2022\client-server\client\ammohistory.h
;	COMDAT ?PickupWeapon@WeaponsResource@@QAEXPAUWEAPON@@@Z
_TEXT	SEGMENT
_this$ = -4						; size = 4
_wp$ = 8						; size = 4
?PickupWeapon@WeaponsResource@@QAEXPAUWEAPON@@@Z PROC	; WeaponsResource::PickupWeapon, COMDAT
; _this$ = ecx

; 67   : 	{

	push	ebp
	mov	ebp, esp
	sub	esp, 68					; 00000044H
	push	ebx
	push	esi
	push	edi
	mov	DWORD PTR _this$[ebp], ecx

; 68   : 		rgSlots[wp->iSlot][wp->iSlotPos] = wp;

	mov	eax, DWORD PTR _wp$[ebp]
	mov	ecx, DWORD PTR [eax+144]
	shl	ecx, 5
	mov	edx, DWORD PTR _this$[ebp]
	lea	eax, DWORD PTR [edx+ecx+21000]
	mov	ecx, DWORD PTR _wp$[ebp]
	mov	edx, DWORD PTR [ecx+148]
	mov	ecx, DWORD PTR _wp$[ebp]
	mov	DWORD PTR [eax+edx*4], ecx

; 69   : 	}

	pop	edi
	pop	esi
	pop	ebx
	mov	esp, ebp
	pop	ebp
	ret	4
?PickupWeapon@WeaponsResource@@QAEXPAUWEAPON@@@Z ENDP	; WeaponsResource::PickupWeapon
_TEXT	ENDS
; Function compile flags: /Odtp /ZI
; File d:\!diffusion 2020\source code 2022\client-server\client\ammohistory.h
;	COMDAT ?AddWeapon@WeaponsResource@@QAEXPAUWEAPON@@@Z
_TEXT	SEGMENT
_this$ = -4						; size = 4
_wp$ = 8						; size = 4
?AddWeapon@WeaponsResource@@QAEXPAUWEAPON@@@Z PROC	; WeaponsResource::AddWeapon, COMDAT
; _this$ = ecx

; 61   : 	{ 

	push	ebp
	mov	ebp, esp
	sub	esp, 68					; 00000044H
	push	ebx
	push	esi
	push	edi
	mov	DWORD PTR _this$[ebp], ecx

; 62   : 		rgWeapons[wp->iId] = *wp;	

	mov	eax, DWORD PTR _wp$[ebp]
	imul	edi, DWORD PTR [eax+156], 328
	add	edi, DWORD PTR _this$[ebp]
	mov	ecx, 82					; 00000052H
	mov	esi, DWORD PTR _wp$[ebp]
	rep movsd

; 63   : 		LoadWeaponSprites( &rgWeapons[ wp->iId ] );

	mov	eax, DWORD PTR _wp$[ebp]
	imul	ecx, DWORD PTR [eax+156], 328
	add	ecx, DWORD PTR _this$[ebp]
	push	ecx
	mov	ecx, DWORD PTR _this$[ebp]
	call	?LoadWeaponSprites@WeaponsResource@@QAEXPAUWEAPON@@@Z ; WeaponsResource::LoadWeaponSprites

; 64   : 	}

	pop	edi
	pop	esi
	pop	ebx
	mov	esp, ebp
	pop	ebp
	ret	4
?AddWeapon@WeaponsResource@@QAEXPAUWEAPON@@@Z ENDP	; WeaponsResource::AddWeapon
_TEXT	ENDS
; Function compile flags: /Odtp /ZI
; File d:\!diffusion 2020\source code 2022\client-server\client\ammohistory.h
;	COMDAT ?GetWeapon@WeaponsResource@@QAEPAUWEAPON@@H@Z
_TEXT	SEGMENT
_this$ = -4						; size = 4
_iId$ = 8						; size = 4
?GetWeapon@WeaponsResource@@QAEPAUWEAPON@@H@Z PROC	; WeaponsResource::GetWeapon, COMDAT
; _this$ = ecx

; 59   : 	WEAPON *GetWeapon( int iId ) { return &rgWeapons[iId]; }

	push	ebp
	mov	ebp, esp
	sub	esp, 68					; 00000044H
	push	ebx
	push	esi
	push	edi
	mov	DWORD PTR _this$[ebp], ecx
	imul	eax, DWORD PTR _iId$[ebp], 328
	add	eax, DWORD PTR _this$[ebp]
	pop	edi
	pop	esi
	pop	ebx
	mov	esp, ebp
	pop	ebp
	ret	4
?GetWeapon@WeaponsResource@@QAEPAUWEAPON@@H@Z ENDP	; WeaponsResource::GetWeapon
_TEXT	ENDS
; Function compile flags: /Odtp /ZI
; File d:\!diffusion 2020\source code 2022\client-server\client\ammohistory.h
;	COMDAT ?Reset@WeaponsResource@@QAEXXZ
_TEXT	SEGMENT
_this$ = -4						; size = 4
?Reset@WeaponsResource@@QAEXXZ PROC			; WeaponsResource::Reset, COMDAT
; _this$ = ecx

; 50   : 	{

	push	ebp
	mov	ebp, esp
	sub	esp, 68					; 00000044H
	push	ebx
	push	esi
	push	edi
	mov	DWORD PTR _this$[ebp], ecx

; 51   : 		memset( iOldWeaponBits, 0, MAX_WEAPON_BYTES );

	push	8
	push	0
	mov	eax, DWORD PTR _this$[ebp]
	add	eax, 21352				; 00005368H
	push	eax
	call	_memset
	add	esp, 12					; 0000000cH

; 52   : 		memset( rgSlots, 0, sizeof rgSlots );

	push	224					; 000000e0H
	push	0
	mov	eax, DWORD PTR _this$[ebp]
	add	eax, 21000				; 00005208H
	push	eax
	call	_memset
	add	esp, 12					; 0000000cH

; 53   : 		memset( riAmmo, 0, sizeof riAmmo );

	push	128					; 00000080H
	push	0
	mov	eax, DWORD PTR _this$[ebp]
	add	eax, 21224				; 000052e8H
	push	eax
	call	_memset
	add	esp, 12					; 0000000cH

; 54   : 	}

	pop	edi
	pop	esi
	pop	ebx
	mov	esp, ebp
	pop	ebp
	ret	0
?Reset@WeaponsResource@@QAEXXZ ENDP			; WeaponsResource::Reset
_TEXT	ENDS
; Function compile flags: /Odtp /ZI
; File d:\!diffusion 2020\source code 2022\client-server\client\ammohistory.h
;	COMDAT ?Init@WeaponsResource@@QAEXXZ
_TEXT	SEGMENT
_this$ = -4						; size = 4
?Init@WeaponsResource@@QAEXXZ PROC			; WeaponsResource::Init, COMDAT
; _this$ = ecx

; 42   : 	{

	push	ebp
	mov	ebp, esp
	sub	esp, 68					; 00000044H
	push	ebx
	push	esi
	push	edi
	mov	DWORD PTR _this$[ebp], ecx

; 43   : 		memset( rgWeapons, 0, sizeof rgWeapons );

	push	20992					; 00005200H
	push	0
	mov	eax, DWORD PTR _this$[ebp]
	push	eax
	call	_memset
	add	esp, 12					; 0000000cH

; 44   : 		memset( nullbits, 0, MAX_WEAPON_BYTES );

	push	8
	push	0
	mov	eax, DWORD PTR _this$[ebp]
	add	eax, 20992				; 00005200H
	push	eax
	call	_memset
	add	esp, 12					; 0000000cH

; 45   : 		SetBits( nullbits[WEAPON_SUIT >> 3], BIT( WEAPON_SUIT & 7 ));

	mov	eax, 1
	imul	ecx, eax, 7
	mov	edx, DWORD PTR _this$[ebp]
	movzx	eax, BYTE PTR [edx+ecx+20992]
	or	eax, 128				; 00000080H
	mov	ecx, 1
	imul	edx, ecx, 7
	mov	ecx, DWORD PTR _this$[ebp]
	mov	BYTE PTR [ecx+edx+20992], al

; 46   : 		Reset();

	mov	ecx, DWORD PTR _this$[ebp]
	call	?Reset@WeaponsResource@@QAEXXZ		; WeaponsResource::Reset

; 47   : 	}

	pop	edi
	pop	esi
	pop	ebx
	mov	esp, ebp
	pop	ebp
	ret	0
?Init@WeaponsResource@@QAEXXZ ENDP			; WeaponsResource::Init
_TEXT	ENDS
; Function compile flags: /Odtp /ZI
; File d:\!diffusion 2020\source code 2022\client-server\client\utils.h
;	COMDAT ?UnpackRGB@@YAXAAH00K@Z
_TEXT	SEGMENT
_r$ = 8							; size = 4
_g$ = 12						; size = 4
_b$ = 16						; size = 4
_ulRGB$ = 20						; size = 4
?UnpackRGB@@YAXAAH00K@Z PROC				; UnpackRGB, COMDAT

; 98   : {\

	push	ebp
	mov	ebp, esp
	sub	esp, 64					; 00000040H
	push	ebx
	push	esi
	push	edi

; 99   : 	r = (ulRGB & 0xFF0000) >>16;\

	mov	eax, DWORD PTR _ulRGB$[ebp]
	and	eax, 16711680				; 00ff0000H
	shr	eax, 16					; 00000010H
	mov	ecx, DWORD PTR _r$[ebp]
	mov	DWORD PTR [ecx], eax

; 100  : 	g = (ulRGB & 0xFF00) >> 8;\

	mov	eax, DWORD PTR _ulRGB$[ebp]
	and	eax, 65280				; 0000ff00H
	shr	eax, 8
	mov	ecx, DWORD PTR _g$[ebp]
	mov	DWORD PTR [ecx], eax

; 101  : 	b = ulRGB & 0xFF;\

	mov	eax, DWORD PTR _ulRGB$[ebp]
	and	eax, 255				; 000000ffH
	mov	ecx, DWORD PTR _b$[ebp]
	mov	DWORD PTR [ecx], eax

; 102  : }

	pop	edi
	pop	esi
	pop	ebx
	mov	esp, ebp
	pop	ebp
	ret	0
?UnpackRGB@@YAXAAH00K@Z ENDP				; UnpackRGB
_TEXT	ENDS
; Function compile flags: /Odtp /ZI
; File d:\!diffusion 2020\source code 2022\client-server\client\hud.h
;	COMDAT ?HasWeapon@CHud@@QAEHH@Z
_TEXT	SEGMENT
_this$ = -4						; size = 4
_weaponnum$ = 8						; size = 4
?HasWeapon@CHud@@QAEHH@Z PROC				; CHud::HasWeapon, COMDAT
; _this$ = ecx

; 1038 : 	BOOL HasWeapon( int weaponnum ) { return FBitSet( m_iWeaponBits[weaponnum >> 3], BIT( weaponnum & 7 )); }

	push	ebp
	mov	ebp, esp
	sub	esp, 68					; 00000044H
	push	ebx
	push	esi
	push	edi
	mov	DWORD PTR _this$[ebp], ecx
	mov	eax, DWORD PTR _weaponnum$[ebp]
	sar	eax, 3
	mov	ecx, DWORD PTR _this$[ebp]
	movzx	eax, BYTE PTR [ecx+eax+8964]
	mov	ecx, DWORD PTR _weaponnum$[ebp]
	and	ecx, 7
	mov	edx, 1
	shl	edx, cl
	and	eax, edx
	pop	edi
	pop	esi
	pop	ebx
	mov	esp, ebp
	pop	ebp
	ret	4
?HasWeapon@CHud@@QAEHH@Z ENDP				; CHud::HasWeapon
_TEXT	ENDS
; Function compile flags: /Odtp /ZI
; File d:\!diffusion 2020\source code 2022\client-server\client\hud.h
;	COMDAT ?GetSpriteRect@CHud@@QAEAAUwrect_s@@H@Z
_TEXT	SEGMENT
_this$ = -4						; size = 4
_index$ = 8						; size = 4
?GetSpriteRect@CHud@@QAEAAUwrect_s@@H@Z PROC		; CHud::GetSpriteRect, COMDAT
; _this$ = ecx

; 952  : 	wrect_t& GetSpriteRect( int index ) { return m_rgrcRects[index]; }

	push	ebp
	mov	ebp, esp
	sub	esp, 68					; 00000044H
	push	ebx
	push	esi
	push	edi
	mov	DWORD PTR _this$[ebp], ecx
	mov	eax, DWORD PTR _index$[ebp]
	shl	eax, 4
	mov	ecx, DWORD PTR _this$[ebp]
	add	eax, DWORD PTR [ecx+232]
	pop	edi
	pop	esi
	pop	ebx
	mov	esp, ebp
	pop	ebp
	ret	4
?GetSpriteRect@CHud@@QAEAAUwrect_s@@H@Z ENDP		; CHud::GetSpriteRect
_TEXT	ENDS
; Function compile flags: /Odtp /ZI
; File d:\!diffusion 2020\source code 2022\client-server\client\hud.h
;	COMDAT ?GetSprite@CHud@@QAEHH@Z
_TEXT	SEGMENT
tv68 = -72						; size = 4
_this$ = -4						; size = 4
_index$ = 8						; size = 4
?GetSprite@CHud@@QAEHH@Z PROC				; CHud::GetSprite, COMDAT
; _this$ = ecx

; 951  : 	SpriteHandle GetSprite( int index ) { return (index < 0) ? 0 : m_rghSprites[index]; }

	push	ebp
	mov	ebp, esp
	sub	esp, 72					; 00000048H
	push	ebx
	push	esi
	push	edi
	mov	DWORD PTR _this$[ebp], ecx
	cmp	DWORD PTR _index$[ebp], 0
	jge	SHORT $LN3@GetSprite
	mov	DWORD PTR tv68[ebp], 0
	jmp	SHORT $LN4@GetSprite
$LN3@GetSprite:
	mov	eax, DWORD PTR _this$[ebp]
	mov	ecx, DWORD PTR [eax+228]
	mov	edx, DWORD PTR _index$[ebp]
	mov	eax, DWORD PTR [ecx+edx*4]
	mov	DWORD PTR tv68[ebp], eax
$LN4@GetSprite:
	mov	eax, DWORD PTR tv68[ebp]
	pop	edi
	pop	esi
	pop	ebx
	mov	esp, ebp
	pop	ebp
	ret	4
?GetSprite@CHud@@QAEHH@Z ENDP				; CHud::GetSprite
_TEXT	ENDS
; Function compile flags: /Odtp /ZI
; File d:\!diffusion 2020\source code 2022\client-server\client\ammo.cpp
;	COMDAT ?AmmoSetCrosshair@CHudAmmo@@QAEXHUwrect_s@@HHH@Z
_TEXT	SEGMENT
tv75 = -72						; size = 4
_this$ = -4						; size = 4
_hspr$ = 8						; size = 4
_rc$ = 12						; size = 16
_r$ = 28						; size = 4
_g$ = 32						; size = 4
_b$ = 36						; size = 4
?AmmoSetCrosshair@CHudAmmo@@QAEXHUwrect_s@@HHH@Z PROC	; CHudAmmo::AmmoSetCrosshair, COMDAT
; _this$ = ecx

; 294  : {

	push	ebp
	mov	ebp, esp
	sub	esp, 72					; 00000048H
	push	ebx
	push	esi
	push	edi
	mov	DWORD PTR _this$[ebp], ecx

; 295  : 	if (CVAR_GET_FLOAT("crosshair") == 0)

	push	OFFSET ??_C@_09NBNKIDFG@crosshair?$AA@
	call	DWORD PTR ?gEngfuncs@@3Ucl_enginefuncs_s@@A+60
	add	esp, 4
	fstp	DWORD PTR tv75[ebp]
	movss	xmm0, DWORD PTR tv75[ebp]
	ucomiss	xmm0, DWORD PTR __real@00000000
	lahf
	test	ah, 68					; 00000044H
	jp	SHORT $LN2@AmmoSetCro

; 296  : 		return;

	jmp	SHORT $LN1@AmmoSetCro
$LN2@AmmoSetCro:

; 297  : 
; 298  : 	SetCrosshair(hspr, rc, r, g, b);

	mov	eax, DWORD PTR _b$[ebp]
	push	eax
	mov	ecx, DWORD PTR _g$[ebp]
	push	ecx
	mov	edx, DWORD PTR _r$[ebp]
	push	edx
	sub	esp, 16					; 00000010H
	mov	eax, esp
	mov	ecx, DWORD PTR _rc$[ebp]
	mov	DWORD PTR [eax], ecx
	mov	edx, DWORD PTR _rc$[ebp+4]
	mov	DWORD PTR [eax+4], edx
	mov	ecx, DWORD PTR _rc$[ebp+8]
	mov	DWORD PTR [eax+8], ecx
	mov	edx, DWORD PTR _rc$[ebp+12]
	mov	DWORD PTR [eax+12], edx
	mov	eax, DWORD PTR _hspr$[ebp]
	push	eax
	call	DWORD PTR ?gEngfuncs@@3Ucl_enginefuncs_s@@A+52
	add	esp, 32					; 00000020H
$LN1@AmmoSetCro:

; 299  : }

	pop	edi
	pop	esi
	pop	ebx
	mov	esp, ebp
	pop	ebp
	ret	32					; 00000020H
?AmmoSetCrosshair@CHudAmmo@@QAEXHUwrect_s@@HHH@Z ENDP	; CHudAmmo::AmmoSetCrosshair
_TEXT	ENDS
; Function compile flags: /Odtp /ZI
; File d:\!diffusion 2020\source code 2022\client-server\client\ammo.cpp
;	COMDAT ?UserCmd_PrevWeapon@CHudAmmo@@QAAXXZ
_TEXT	SEGMENT
_wsp$1 = -16						; size = 4
_loop$2 = -12						; size = 4
_slot$ = -8						; size = 4
_pos$ = -4						; size = 4
_this$ = 8						; size = 4
?UserCmd_PrevWeapon@CHudAmmo@@QAAXXZ PROC		; CHudAmmo::UserCmd_PrevWeapon, COMDAT

; 804  : {

	push	ebp
	mov	ebp, esp
	sub	esp, 80					; 00000050H
	push	ebx
	push	esi
	push	edi

; 805  : 	if( gHUD.m_fPlayerDead || ( gHUD.m_iHideHUDDisplay & ( HIDEHUD_WPNS | HIDEHUD_ALL | HIDEHUD_WPNS_HOLDABLEITEM | HIDEHUD_WPNS_CUSTOM)))

	cmp	DWORD PTR ?gHUD@@3VCHud@@A+8972, 0
	jne	SHORT $LN12@UserCmd_Pr
	mov	eax, DWORD PTR ?gHUD@@3VCHud@@A+76
	and	eax, 53					; 00000035H
	je	SHORT $LN11@UserCmd_Pr
$LN12@UserCmd_Pr:

; 806  : 		return;

	jmp	$LN1@UserCmd_Pr
$LN11@UserCmd_Pr:

; 807  : 
; 808  : 	if( !gpActiveSel || gpActiveSel == (WEAPON *)1 )

	cmp	DWORD PTR ?gpActiveSel@@3PAUWEAPON@@A, 0 ; gpActiveSel
	je	SHORT $LN14@UserCmd_Pr
	cmp	DWORD PTR ?gpActiveSel@@3PAUWEAPON@@A, 1 ; gpActiveSel
	jne	SHORT $LN13@UserCmd_Pr
$LN14@UserCmd_Pr:

; 809  : 		gpActiveSel = m_pWeapon;

	mov	eax, DWORD PTR _this$[ebp]
	mov	ecx, DWORD PTR [eax+12]
	mov	DWORD PTR ?gpActiveSel@@3PAUWEAPON@@A, ecx ; gpActiveSel
$LN13@UserCmd_Pr:

; 810  : 
; 811  : 	int pos = MAX_WEAPON_POSITIONS - 1;

	mov	DWORD PTR _pos$[ebp], 6

; 812  : 	int slot = MAX_WEAPON_SLOTS - 1;

	mov	DWORD PTR _slot$[ebp], 5

; 813  : 
; 814  : 	if( gpActiveSel )

	cmp	DWORD PTR ?gpActiveSel@@3PAUWEAPON@@A, 0 ; gpActiveSel
	je	SHORT $LN15@UserCmd_Pr

; 815  : 	{
; 816  : 		pos = gpActiveSel->iSlotPos - 1;

	mov	eax, DWORD PTR ?gpActiveSel@@3PAUWEAPON@@A ; gpActiveSel
	mov	ecx, DWORD PTR [eax+148]
	sub	ecx, 1
	mov	DWORD PTR _pos$[ebp], ecx

; 817  : 		slot = gpActiveSel->iSlot;

	mov	eax, DWORD PTR ?gpActiveSel@@3PAUWEAPON@@A ; gpActiveSel
	mov	ecx, DWORD PTR [eax+144]
	mov	DWORD PTR _slot$[ebp], ecx
$LN15@UserCmd_Pr:

; 818  : 	}
; 819  : 	
; 820  : 	for( int loop = 0; loop <= 1; loop++ )

	mov	DWORD PTR _loop$2[ebp], 0
	jmp	SHORT $LN4@UserCmd_Pr
$LN2@UserCmd_Pr:
	mov	eax, DWORD PTR _loop$2[ebp]
	add	eax, 1
	mov	DWORD PTR _loop$2[ebp], eax
$LN4@UserCmd_Pr:
	cmp	DWORD PTR _loop$2[ebp], 1
	jg	SHORT $LN3@UserCmd_Pr

; 821  : 	{
; 822  : 		for( ; slot >= 0; slot-- )

	jmp	SHORT $LN7@UserCmd_Pr
$LN5@UserCmd_Pr:
	mov	eax, DWORD PTR _slot$[ebp]
	sub	eax, 1
	mov	DWORD PTR _slot$[ebp], eax
$LN7@UserCmd_Pr:
	cmp	DWORD PTR _slot$[ebp], 0
	jl	SHORT $LN6@UserCmd_Pr

; 823  : 		{
; 824  : 			for( ; pos >= 0; pos-- )

	jmp	SHORT $LN10@UserCmd_Pr
$LN8@UserCmd_Pr:
	mov	eax, DWORD PTR _pos$[ebp]
	sub	eax, 1
	mov	DWORD PTR _pos$[ebp], eax
$LN10@UserCmd_Pr:
	cmp	DWORD PTR _pos$[ebp], 0
	jl	SHORT $LN9@UserCmd_Pr

; 825  : 			{
; 826  : 				WEAPON *wsp = gWR.GetWeaponSlot( slot, pos );

	mov	eax, DWORD PTR _pos$[ebp]
	push	eax
	mov	ecx, DWORD PTR _slot$[ebp]
	push	ecx
	mov	ecx, OFFSET ?gWR@@3VWeaponsResource@@A	; gWR
	call	?GetWeaponSlot@WeaponsResource@@QAEPAUWEAPON@@HH@Z ; WeaponsResource::GetWeaponSlot
	mov	DWORD PTR _wsp$1[ebp], eax

; 827  : 
; 828  : 				if( wsp && (gWR.HasAmmo( wsp ) || gHUD.CanSelectEmptyWeapon))

	cmp	DWORD PTR _wsp$1[ebp], 0
	je	SHORT $LN16@UserCmd_Pr
	mov	eax, DWORD PTR _wsp$1[ebp]
	push	eax
	mov	ecx, OFFSET ?gWR@@3VWeaponsResource@@A	; gWR
	call	?HasAmmo@WeaponsResource@@QAEHPAUWEAPON@@@Z ; WeaponsResource::HasAmmo
	test	eax, eax
	jne	SHORT $LN17@UserCmd_Pr
	movzx	eax, BYTE PTR ?gHUD@@3VCHud@@A+119
	test	eax, eax
	je	SHORT $LN16@UserCmd_Pr
$LN17@UserCmd_Pr:

; 829  : 				{
; 830  : 					gpActiveSel = wsp;

	mov	eax, DWORD PTR _wsp$1[ebp]
	mov	DWORD PTR ?gpActiveSel@@3PAUWEAPON@@A, eax ; gpActiveSel

; 831  : 					return;

	jmp	SHORT $LN1@UserCmd_Pr
$LN16@UserCmd_Pr:

; 832  : 				}
; 833  : 			}

	jmp	SHORT $LN8@UserCmd_Pr
$LN9@UserCmd_Pr:

; 834  : 
; 835  : 			pos = MAX_WEAPON_POSITIONS - 1;

	mov	DWORD PTR _pos$[ebp], 6

; 836  : 		}

	jmp	SHORT $LN5@UserCmd_Pr
$LN6@UserCmd_Pr:

; 837  : 		
; 838  : 		slot = MAX_WEAPON_SLOTS - 1;

	mov	DWORD PTR _slot$[ebp], 5

; 839  : 	}

	jmp	$LN2@UserCmd_Pr
$LN3@UserCmd_Pr:

; 840  : 
; 841  : 	gpActiveSel = NULL;

	mov	DWORD PTR ?gpActiveSel@@3PAUWEAPON@@A, 0 ; gpActiveSel
$LN1@UserCmd_Pr:

; 842  : }

	pop	edi
	pop	esi
	pop	ebx
	mov	esp, ebp
	pop	ebp
	ret	0
?UserCmd_PrevWeapon@CHudAmmo@@QAAXXZ ENDP		; CHudAmmo::UserCmd_PrevWeapon
_TEXT	ENDS
; Function compile flags: /Odtp /ZI
; File d:\!diffusion 2020\source code 2022\client-server\client\ammo.cpp
;	COMDAT ?UserCmd_NextWeapon@CHudAmmo@@QAAXXZ
_TEXT	SEGMENT
_wsp$1 = -16						; size = 4
_loop$2 = -12						; size = 4
_slot$ = -8						; size = 4
_pos$ = -4						; size = 4
_this$ = 8						; size = 4
?UserCmd_NextWeapon@CHudAmmo@@QAAXXZ PROC		; CHudAmmo::UserCmd_NextWeapon, COMDAT

; 762  : {

	push	ebp
	mov	ebp, esp
	sub	esp, 80					; 00000050H
	push	ebx
	push	esi
	push	edi

; 763  : 	if( gHUD.m_fPlayerDead || ( gHUD.m_iHideHUDDisplay & ( HIDEHUD_WPNS | HIDEHUD_ALL | HIDEHUD_WPNS_HOLDABLEITEM | HIDEHUD_WPNS_CUSTOM)))

	cmp	DWORD PTR ?gHUD@@3VCHud@@A+8972, 0
	jne	SHORT $LN12@UserCmd_Ne
	mov	eax, DWORD PTR ?gHUD@@3VCHud@@A+76
	and	eax, 53					; 00000035H
	je	SHORT $LN11@UserCmd_Ne
$LN12@UserCmd_Ne:

; 764  : 		return;

	jmp	$LN1@UserCmd_Ne
$LN11@UserCmd_Ne:

; 765  : 
; 766  : 	if( !gpActiveSel || gpActiveSel == (WEAPON *)1 )

	cmp	DWORD PTR ?gpActiveSel@@3PAUWEAPON@@A, 0 ; gpActiveSel
	je	SHORT $LN14@UserCmd_Ne
	cmp	DWORD PTR ?gpActiveSel@@3PAUWEAPON@@A, 1 ; gpActiveSel
	jne	SHORT $LN13@UserCmd_Ne
$LN14@UserCmd_Ne:

; 767  : 		gpActiveSel = m_pWeapon;

	mov	eax, DWORD PTR _this$[ebp]
	mov	ecx, DWORD PTR [eax+12]
	mov	DWORD PTR ?gpActiveSel@@3PAUWEAPON@@A, ecx ; gpActiveSel
$LN13@UserCmd_Ne:

; 768  : 
; 769  : 	int pos = 0;

	mov	DWORD PTR _pos$[ebp], 0

; 770  : 	int slot = 0;

	mov	DWORD PTR _slot$[ebp], 0

; 771  : 
; 772  : 	if( gpActiveSel )

	cmp	DWORD PTR ?gpActiveSel@@3PAUWEAPON@@A, 0 ; gpActiveSel
	je	SHORT $LN15@UserCmd_Ne

; 773  : 	{
; 774  : 		pos = gpActiveSel->iSlotPos + 1;

	mov	eax, DWORD PTR ?gpActiveSel@@3PAUWEAPON@@A ; gpActiveSel
	mov	ecx, DWORD PTR [eax+148]
	add	ecx, 1
	mov	DWORD PTR _pos$[ebp], ecx

; 775  : 		slot = gpActiveSel->iSlot;

	mov	eax, DWORD PTR ?gpActiveSel@@3PAUWEAPON@@A ; gpActiveSel
	mov	ecx, DWORD PTR [eax+144]
	mov	DWORD PTR _slot$[ebp], ecx
$LN15@UserCmd_Ne:

; 776  : 	}
; 777  : 
; 778  : 	for( int loop = 0; loop <= 1; loop++ )

	mov	DWORD PTR _loop$2[ebp], 0
	jmp	SHORT $LN4@UserCmd_Ne
$LN2@UserCmd_Ne:
	mov	eax, DWORD PTR _loop$2[ebp]
	add	eax, 1
	mov	DWORD PTR _loop$2[ebp], eax
$LN4@UserCmd_Ne:
	cmp	DWORD PTR _loop$2[ebp], 1
	jg	SHORT $LN3@UserCmd_Ne

; 779  : 	{
; 780  : 		for( ; slot < MAX_WEAPON_SLOTS; slot++ )

	jmp	SHORT $LN7@UserCmd_Ne
$LN5@UserCmd_Ne:
	mov	eax, DWORD PTR _slot$[ebp]
	add	eax, 1
	mov	DWORD PTR _slot$[ebp], eax
$LN7@UserCmd_Ne:
	cmp	DWORD PTR _slot$[ebp], 6
	jge	SHORT $LN6@UserCmd_Ne

; 781  : 		{
; 782  : 			for( ; pos < MAX_WEAPON_POSITIONS; pos++ )

	jmp	SHORT $LN10@UserCmd_Ne
$LN8@UserCmd_Ne:
	mov	eax, DWORD PTR _pos$[ebp]
	add	eax, 1
	mov	DWORD PTR _pos$[ebp], eax
$LN10@UserCmd_Ne:
	cmp	DWORD PTR _pos$[ebp], 7
	jge	SHORT $LN9@UserCmd_Ne

; 783  : 			{
; 784  : 				WEAPON *wsp = gWR.GetWeaponSlot( slot, pos );

	mov	eax, DWORD PTR _pos$[ebp]
	push	eax
	mov	ecx, DWORD PTR _slot$[ebp]
	push	ecx
	mov	ecx, OFFSET ?gWR@@3VWeaponsResource@@A	; gWR
	call	?GetWeaponSlot@WeaponsResource@@QAEPAUWEAPON@@HH@Z ; WeaponsResource::GetWeaponSlot
	mov	DWORD PTR _wsp$1[ebp], eax

; 785  : 
; 786  : 				if( wsp && (gWR.HasAmmo( wsp ) || gHUD.CanSelectEmptyWeapon))

	cmp	DWORD PTR _wsp$1[ebp], 0
	je	SHORT $LN16@UserCmd_Ne
	mov	eax, DWORD PTR _wsp$1[ebp]
	push	eax
	mov	ecx, OFFSET ?gWR@@3VWeaponsResource@@A	; gWR
	call	?HasAmmo@WeaponsResource@@QAEHPAUWEAPON@@@Z ; WeaponsResource::HasAmmo
	test	eax, eax
	jne	SHORT $LN17@UserCmd_Ne
	movzx	eax, BYTE PTR ?gHUD@@3VCHud@@A+119
	test	eax, eax
	je	SHORT $LN16@UserCmd_Ne
$LN17@UserCmd_Ne:

; 787  : 				{
; 788  : 					gpActiveSel = wsp;

	mov	eax, DWORD PTR _wsp$1[ebp]
	mov	DWORD PTR ?gpActiveSel@@3PAUWEAPON@@A, eax ; gpActiveSel

; 789  : 					return;

	jmp	SHORT $LN1@UserCmd_Ne
$LN16@UserCmd_Ne:

; 790  : 				}
; 791  : 			}

	jmp	SHORT $LN8@UserCmd_Ne
$LN9@UserCmd_Ne:

; 792  : 
; 793  : 			pos = 0;

	mov	DWORD PTR _pos$[ebp], 0

; 794  : 		}

	jmp	SHORT $LN5@UserCmd_Ne
$LN6@UserCmd_Ne:

; 795  : 
; 796  : 		slot = 0;  // start looking from the first slot again

	mov	DWORD PTR _slot$[ebp], 0

; 797  : 	}

	jmp	$LN2@UserCmd_Ne
$LN3@UserCmd_Ne:

; 798  : 
; 799  : 	gpActiveSel = NULL;

	mov	DWORD PTR ?gpActiveSel@@3PAUWEAPON@@A, 0 ; gpActiveSel
$LN1@UserCmd_Ne:

; 800  : }

	pop	edi
	pop	esi
	pop	ebx
	mov	esp, ebp
	pop	ebp
	ret	0
?UserCmd_NextWeapon@CHudAmmo@@QAAXXZ ENDP		; CHudAmmo::UserCmd_NextWeapon
_TEXT	ENDS
; Function compile flags: /Odtp /ZI
; File d:\!diffusion 2020\source code 2022\client-server\client\ammo.cpp
;	COMDAT ?UserCmd_Close@CHudAmmo@@QAAXXZ
_TEXT	SEGMENT
_this$ = 8						; size = 4
?UserCmd_Close@CHudAmmo@@QAAXXZ PROC			; CHudAmmo::UserCmd_Close, COMDAT

; 742  : {

	push	ebp
	mov	ebp, esp
	sub	esp, 64					; 00000040H
	push	ebx
	push	esi
	push	edi

; 743  : 	if( gHUD.m_CodeInput.CodeInputScreenIsOn )

	movzx	eax, BYTE PTR ?gHUD@@3VCHud@@A+8388
	test	eax, eax
	je	SHORT $LN2@UserCmd_Cl

; 744  : 	{
; 745  : 		gHUD.m_CodeInput.DisableCodeScreen();

	mov	ecx, OFFSET ?gHUD@@3VCHud@@A+8344
	call	?DisableCodeScreen@CHudCodeInput@@QAEXXZ ; CHudCodeInput::DisableCodeScreen

; 746  : 		return;

	jmp	SHORT $LN1@UserCmd_Cl
$LN2@UserCmd_Cl:

; 747  : 	}
; 748  : 	
; 749  : 	if( gpActiveSel )

	cmp	DWORD PTR ?gpActiveSel@@3PAUWEAPON@@A, 0 ; gpActiveSel
	je	SHORT $LN3@UserCmd_Cl

; 750  : 	{
; 751  : 		gpLastSel = gpActiveSel;

	mov	eax, DWORD PTR ?gpActiveSel@@3PAUWEAPON@@A ; gpActiveSel
	mov	DWORD PTR ?gpLastSel@@3PAUWEAPON@@A, eax ; gpLastSel

; 752  : 		gpActiveSel = NULL;

	mov	DWORD PTR ?gpActiveSel@@3PAUWEAPON@@A, 0 ; gpActiveSel

; 753  : 		PlaySound( "common/wpn_hudoff.wav", 1 );

	push	ecx
	movss	xmm0, DWORD PTR __real@3f800000
	movss	DWORD PTR [esp], xmm0
	push	OFFSET ??_C@_0BG@MNEIFLMJ@common?1wpn_hudoff?4wav?$AA@
	call	?PlaySoundA@@YAXPADM@Z			; PlaySoundA
	add	esp, 8

; 754  : 	}
; 755  : 	else

	jmp	SHORT $LN4@UserCmd_Cl
$LN3@UserCmd_Cl:

; 756  : 		ClientCmd( "escape" ); // go into menu

	push	OFFSET ??_C@_06CHNIFGOF@escape?$AA@
	call	DWORD PTR ?gEngfuncs@@3Ucl_enginefuncs_s@@A+80
	add	esp, 4
$LN4@UserCmd_Cl:
$LN1@UserCmd_Cl:

; 757  : }

	pop	edi
	pop	esi
	pop	ebx
	mov	esp, ebp
	pop	ebp
	ret	0
?UserCmd_Close@CHudAmmo@@QAAXXZ ENDP			; CHudAmmo::UserCmd_Close
_TEXT	ENDS
; Function compile flags: /Odtp /ZI
; File d:\!diffusion 2020\source code 2022\client-server\client\ammo.cpp
;	COMDAT ?UserCmd_Slot10@CHudAmmo@@QAAXXZ
_TEXT	SEGMENT
_this$ = 8						; size = 4
?UserCmd_Slot10@CHudAmmo@@QAAXXZ PROC			; CHudAmmo::UserCmd_Slot10, COMDAT

; 737  : {

	push	ebp
	mov	ebp, esp
	sub	esp, 64					; 00000040H
	push	ebx
	push	esi
	push	edi

; 738  : 	SlotInput( 9 );

	push	9
	mov	ecx, DWORD PTR _this$[ebp]
	call	?SlotInput@CHudAmmo@@QAEXH@Z		; CHudAmmo::SlotInput

; 739  : }

	pop	edi
	pop	esi
	pop	ebx
	mov	esp, ebp
	pop	ebp
	ret	0
?UserCmd_Slot10@CHudAmmo@@QAAXXZ ENDP			; CHudAmmo::UserCmd_Slot10
_TEXT	ENDS
; Function compile flags: /Odtp /ZI
; File d:\!diffusion 2020\source code 2022\client-server\client\ammo.cpp
;	COMDAT ?UserCmd_Slot9@CHudAmmo@@QAAXXZ
_TEXT	SEGMENT
_this$ = 8						; size = 4
?UserCmd_Slot9@CHudAmmo@@QAAXXZ PROC			; CHudAmmo::UserCmd_Slot9, COMDAT

; 732  : {

	push	ebp
	mov	ebp, esp
	sub	esp, 64					; 00000040H
	push	ebx
	push	esi
	push	edi

; 733  : 	SlotInput( 8 );

	push	8
	mov	ecx, DWORD PTR _this$[ebp]
	call	?SlotInput@CHudAmmo@@QAEXH@Z		; CHudAmmo::SlotInput

; 734  : }

	pop	edi
	pop	esi
	pop	ebx
	mov	esp, ebp
	pop	ebp
	ret	0
?UserCmd_Slot9@CHudAmmo@@QAAXXZ ENDP			; CHudAmmo::UserCmd_Slot9
_TEXT	ENDS
; Function compile flags: /Odtp /ZI
; File d:\!diffusion 2020\source code 2022\client-server\client\ammo.cpp
;	COMDAT ?UserCmd_Slot8@CHudAmmo@@QAAXXZ
_TEXT	SEGMENT
_this$ = 8						; size = 4
?UserCmd_Slot8@CHudAmmo@@QAAXXZ PROC			; CHudAmmo::UserCmd_Slot8, COMDAT

; 727  : {

	push	ebp
	mov	ebp, esp
	sub	esp, 64					; 00000040H
	push	ebx
	push	esi
	push	edi

; 728  : 	SlotInput( 7 );

	push	7
	mov	ecx, DWORD PTR _this$[ebp]
	call	?SlotInput@CHudAmmo@@QAEXH@Z		; CHudAmmo::SlotInput

; 729  : }

	pop	edi
	pop	esi
	pop	ebx
	mov	esp, ebp
	pop	ebp
	ret	0
?UserCmd_Slot8@CHudAmmo@@QAAXXZ ENDP			; CHudAmmo::UserCmd_Slot8
_TEXT	ENDS
; Function compile flags: /Odtp /ZI
; File d:\!diffusion 2020\source code 2022\client-server\client\ammo.cpp
;	COMDAT ?UserCmd_Slot7@CHudAmmo@@QAAXXZ
_TEXT	SEGMENT
_this$ = 8						; size = 4
?UserCmd_Slot7@CHudAmmo@@QAAXXZ PROC			; CHudAmmo::UserCmd_Slot7, COMDAT

; 722  : {

	push	ebp
	mov	ebp, esp
	sub	esp, 64					; 00000040H
	push	ebx
	push	esi
	push	edi

; 723  : 	SlotInput( 6 );

	push	6
	mov	ecx, DWORD PTR _this$[ebp]
	call	?SlotInput@CHudAmmo@@QAEXH@Z		; CHudAmmo::SlotInput

; 724  : }

	pop	edi
	pop	esi
	pop	ebx
	mov	esp, ebp
	pop	ebp
	ret	0
?UserCmd_Slot7@CHudAmmo@@QAAXXZ ENDP			; CHudAmmo::UserCmd_Slot7
_TEXT	ENDS
; Function compile flags: /Odtp /ZI
; File d:\!diffusion 2020\source code 2022\client-server\client\ammo.cpp
;	COMDAT ?UserCmd_Slot6@CHudAmmo@@QAAXXZ
_TEXT	SEGMENT
_this$ = 8						; size = 4
?UserCmd_Slot6@CHudAmmo@@QAAXXZ PROC			; CHudAmmo::UserCmd_Slot6, COMDAT

; 717  : {

	push	ebp
	mov	ebp, esp
	sub	esp, 64					; 00000040H
	push	ebx
	push	esi
	push	edi

; 718  : 	SlotInput( 5 );

	push	5
	mov	ecx, DWORD PTR _this$[ebp]
	call	?SlotInput@CHudAmmo@@QAEXH@Z		; CHudAmmo::SlotInput

; 719  : }

	pop	edi
	pop	esi
	pop	ebx
	mov	esp, ebp
	pop	ebp
	ret	0
?UserCmd_Slot6@CHudAmmo@@QAAXXZ ENDP			; CHudAmmo::UserCmd_Slot6
_TEXT	ENDS
; Function compile flags: /Odtp /ZI
; File d:\!diffusion 2020\source code 2022\client-server\client\ammo.cpp
;	COMDAT ?UserCmd_Slot5@CHudAmmo@@QAAXXZ
_TEXT	SEGMENT
_this$ = 8						; size = 4
?UserCmd_Slot5@CHudAmmo@@QAAXXZ PROC			; CHudAmmo::UserCmd_Slot5, COMDAT

; 712  : {

	push	ebp
	mov	ebp, esp
	sub	esp, 64					; 00000040H
	push	ebx
	push	esi
	push	edi

; 713  : 	SlotInput( 4 );

	push	4
	mov	ecx, DWORD PTR _this$[ebp]
	call	?SlotInput@CHudAmmo@@QAEXH@Z		; CHudAmmo::SlotInput

; 714  : }

	pop	edi
	pop	esi
	pop	ebx
	mov	esp, ebp
	pop	ebp
	ret	0
?UserCmd_Slot5@CHudAmmo@@QAAXXZ ENDP			; CHudAmmo::UserCmd_Slot5
_TEXT	ENDS
; Function compile flags: /Odtp /ZI
; File d:\!diffusion 2020\source code 2022\client-server\client\ammo.cpp
;	COMDAT ?UserCmd_Slot4@CHudAmmo@@QAAXXZ
_TEXT	SEGMENT
_this$ = 8						; size = 4
?UserCmd_Slot4@CHudAmmo@@QAAXXZ PROC			; CHudAmmo::UserCmd_Slot4, COMDAT

; 707  : {

	push	ebp
	mov	ebp, esp
	sub	esp, 64					; 00000040H
	push	ebx
	push	esi
	push	edi

; 708  : 	SlotInput( 3 );

	push	3
	mov	ecx, DWORD PTR _this$[ebp]
	call	?SlotInput@CHudAmmo@@QAEXH@Z		; CHudAmmo::SlotInput

; 709  : }

	pop	edi
	pop	esi
	pop	ebx
	mov	esp, ebp
	pop	ebp
	ret	0
?UserCmd_Slot4@CHudAmmo@@QAAXXZ ENDP			; CHudAmmo::UserCmd_Slot4
_TEXT	ENDS
; Function compile flags: /Odtp /ZI
; File d:\!diffusion 2020\source code 2022\client-server\client\ammo.cpp
;	COMDAT ?UserCmd_Slot3@CHudAmmo@@QAAXXZ
_TEXT	SEGMENT
_this$ = 8						; size = 4
?UserCmd_Slot3@CHudAmmo@@QAAXXZ PROC			; CHudAmmo::UserCmd_Slot3, COMDAT

; 702  : {

	push	ebp
	mov	ebp, esp
	sub	esp, 64					; 00000040H
	push	ebx
	push	esi
	push	edi

; 703  : 	SlotInput( 2 );

	push	2
	mov	ecx, DWORD PTR _this$[ebp]
	call	?SlotInput@CHudAmmo@@QAEXH@Z		; CHudAmmo::SlotInput

; 704  : }

	pop	edi
	pop	esi
	pop	ebx
	mov	esp, ebp
	pop	ebp
	ret	0
?UserCmd_Slot3@CHudAmmo@@QAAXXZ ENDP			; CHudAmmo::UserCmd_Slot3
_TEXT	ENDS
; Function compile flags: /Odtp /ZI
; File d:\!diffusion 2020\source code 2022\client-server\client\ammo.cpp
;	COMDAT ?UserCmd_Slot2@CHudAmmo@@QAAXXZ
_TEXT	SEGMENT
_this$ = 8						; size = 4
?UserCmd_Slot2@CHudAmmo@@QAAXXZ PROC			; CHudAmmo::UserCmd_Slot2, COMDAT

; 697  : {

	push	ebp
	mov	ebp, esp
	sub	esp, 64					; 00000040H
	push	ebx
	push	esi
	push	edi

; 698  : 	SlotInput( 1 );

	push	1
	mov	ecx, DWORD PTR _this$[ebp]
	call	?SlotInput@CHudAmmo@@QAEXH@Z		; CHudAmmo::SlotInput

; 699  : }

	pop	edi
	pop	esi
	pop	ebx
	mov	esp, ebp
	pop	ebp
	ret	0
?UserCmd_Slot2@CHudAmmo@@QAAXXZ ENDP			; CHudAmmo::UserCmd_Slot2
_TEXT	ENDS
; Function compile flags: /Odtp /ZI
; File d:\!diffusion 2020\source code 2022\client-server\client\ammo.cpp
;	COMDAT ?UserCmd_Slot1@CHudAmmo@@QAAXXZ
_TEXT	SEGMENT
_this$ = 8						; size = 4
?UserCmd_Slot1@CHudAmmo@@QAAXXZ PROC			; CHudAmmo::UserCmd_Slot1, COMDAT

; 692  : {

	push	ebp
	mov	ebp, esp
	sub	esp, 64					; 00000040H
	push	ebx
	push	esi
	push	edi

; 693  : 	SlotInput( 0 );

	push	0
	mov	ecx, DWORD PTR _this$[ebp]
	call	?SlotInput@CHudAmmo@@QAEXH@Z		; CHudAmmo::SlotInput

; 694  : }

	pop	edi
	pop	esi
	pop	ebx
	mov	esp, ebp
	pop	ebp
	ret	0
?UserCmd_Slot1@CHudAmmo@@QAAXXZ ENDP			; CHudAmmo::UserCmd_Slot1
_TEXT	ENDS
; Function compile flags: /Odtp /ZI
; File d:\!diffusion 2020\source code 2022\client-server\client\ammo.cpp
;	COMDAT ?SlotInput@CHudAmmo@@QAEXH@Z
_TEXT	SEGMENT
_this$ = -4						; size = 4
_iSlot$ = 8						; size = 4
?SlotInput@CHudAmmo@@QAEXH@Z PROC			; CHudAmmo::SlotInput, COMDAT
; _this$ = ecx

; 678  : {

	push	ebp
	mov	ebp, esp
	sub	esp, 68					; 00000044H
	push	ebx
	push	esi
	push	edi
	mov	DWORD PTR _this$[ebp], ecx

; 679  : 	if( gHUD.PlayingDrums )

	movzx	eax, BYTE PTR ?gHUD@@3VCHud@@A+121
	test	eax, eax
	je	SHORT $LN2@SlotInput

; 680  : 	{
; 681  : 		gHUD.DrumsInput( iSlot );

	mov	eax, DWORD PTR _iSlot$[ebp]
	push	eax
	mov	ecx, OFFSET ?gHUD@@3VCHud@@A		; gHUD
	call	?DrumsInput@CHud@@QAEXH@Z		; CHud::DrumsInput

; 682  : 		return;

	jmp	SHORT $LN1@SlotInput
$LN2@SlotInput:

; 683  : 	}
; 684  : 	
; 685  : 	if( gHUD.m_CodeInput.CodeInputScreenIsOn )

	movzx	eax, BYTE PTR ?gHUD@@3VCHud@@A+8388
	test	eax, eax
	je	SHORT $LN3@SlotInput

; 686  : 		gHUD.m_CodeInput.EnterCode( iSlot + 1 );

	mov	eax, DWORD PTR _iSlot$[ebp]
	add	eax, 1
	push	eax
	mov	ecx, OFFSET ?gHUD@@3VCHud@@A+8344
	call	?EnterCode@CHudCodeInput@@QAEXH@Z	; CHudCodeInput::EnterCode

; 687  : 	else

	jmp	SHORT $LN1@SlotInput
$LN3@SlotInput:

; 688  : 		gWR.SelectSlot( iSlot, FALSE, 1 );

	push	1
	push	0
	mov	eax, DWORD PTR _iSlot$[ebp]
	push	eax
	mov	ecx, OFFSET ?gWR@@3VWeaponsResource@@A	; gWR
	call	?SelectSlot@WeaponsResource@@QAEXHHH@Z	; WeaponsResource::SelectSlot
$LN1@SlotInput:

; 689  : }

	pop	edi
	pop	esi
	pop	ebx
	mov	esp, ebp
	pop	ebp
	ret	4
?SlotInput@CHudAmmo@@QAEXH@Z ENDP			; CHudAmmo::SlotInput
_TEXT	ENDS
; Function compile flags: /Odtp /ZI
; File d:\!diffusion 2020\source code 2022\client-server\client\ammo.cpp
;	COMDAT ?MsgFunc_AmmoX@CHudAmmo@@QAEHPBDHPAX@Z
_TEXT	SEGMENT
_iCount$ = -12						; size = 4
_iIndex$ = -8						; size = 4
_this$ = -4						; size = 4
_pszName$ = 8						; size = 4
_iSize$ = 12						; size = 4
_pbuf$ = 16						; size = 4
?MsgFunc_AmmoX@CHudAmmo@@QAEHPBDHPAX@Z PROC		; CHudAmmo::MsgFunc_AmmoX, COMDAT
; _this$ = ecx

; 482  : {

	push	ebp
	mov	ebp, esp
	sub	esp, 76					; 0000004cH
	push	ebx
	push	esi
	push	edi
	mov	DWORD PTR _this$[ebp], ecx

; 483  : 	BEGIN_READ( pszName, pbuf, iSize );

	mov	eax, DWORD PTR _iSize$[ebp]
	push	eax
	mov	ecx, DWORD PTR _pbuf$[ebp]
	push	ecx
	mov	edx, DWORD PTR _pszName$[ebp]
	push	edx
	call	?BEGIN_READ@@YAXPBDPAXH@Z		; BEGIN_READ
	add	esp, 12					; 0000000cH

; 484  : 
; 485  : 	int iIndex = READ_BYTE();

	call	?READ_BYTE@@YAHXZ			; READ_BYTE
	mov	DWORD PTR _iIndex$[ebp], eax

; 486  : 	int iCount = READ_BYTE();

	call	?READ_BYTE@@YAHXZ			; READ_BYTE
	mov	DWORD PTR _iCount$[ebp], eax

; 487  : 
; 488  : 	gWR.SetAmmo( iIndex, abs( iCount ));

	mov	eax, DWORD PTR _iCount$[ebp]
	push	eax
	call	_abs
	add	esp, 4
	push	eax
	mov	ecx, DWORD PTR _iIndex$[ebp]
	push	ecx
	mov	ecx, OFFSET ?gWR@@3VWeaponsResource@@A	; gWR
	call	?SetAmmo@WeaponsResource@@QAEXHH@Z	; WeaponsResource::SetAmmo

; 489  : 
; 490  : 	END_READ();

	call	?END_READ@@YAXXZ			; END_READ

; 491  : 
; 492  : 	return 1;

	mov	eax, 1

; 493  : }

	pop	edi
	pop	esi
	pop	ebx
	mov	esp, ebp
	pop	ebp
	ret	12					; 0000000cH
?MsgFunc_AmmoX@CHudAmmo@@QAEHPBDHPAX@Z ENDP		; CHudAmmo::MsgFunc_AmmoX
_TEXT	ENDS
; Function compile flags: /Odtp /ZI
; File d:\!diffusion 2020\source code 2022\client-server\client\ammo.cpp
;	COMDAT ?MsgFunc_HideWeapon@CHudAmmo@@QAEHPBDHPAX@Z
_TEXT	SEGMENT
_this$ = -4						; size = 4
_pszName$ = 8						; size = 4
_iSize$ = 12						; size = 4
_pbuf$ = 16						; size = 4
?MsgFunc_HideWeapon@CHudAmmo@@QAEHPBDHPAX@Z PROC	; CHudAmmo::MsgFunc_HideWeapon, COMDAT
; _this$ = ecx

; 536  : {

	push	ebp
	mov	ebp, esp
	sub	esp, 68					; 00000044H
	push	ebx
	push	esi
	push	edi
	mov	DWORD PTR _this$[ebp], ecx

; 537  : 	BEGIN_READ( pszName, pbuf, iSize );

	mov	eax, DWORD PTR _iSize$[ebp]
	push	eax
	mov	ecx, DWORD PTR _pbuf$[ebp]
	push	ecx
	mov	edx, DWORD PTR _pszName$[ebp]
	push	edx
	call	?BEGIN_READ@@YAXPBDPAXH@Z		; BEGIN_READ
	add	esp, 12					; 0000000cH

; 538  : 	
; 539  : 	gHUD.m_iHideHUDDisplay = READ_BYTE();

	call	?READ_BYTE@@YAHXZ			; READ_BYTE
	mov	DWORD PTR ?gHUD@@3VCHud@@A+76, eax

; 540  : 
; 541  : 	if (gEngfuncs.IsSpectateOnly())

	call	DWORD PTR ?gEngfuncs@@3Ucl_enginefuncs_s@@A+352
	test	eax, eax
	je	SHORT $LN2@MsgFunc_Hi

; 542  : 		return 1;

	mov	eax, 1
	jmp	$LN1@MsgFunc_Hi
$LN2@MsgFunc_Hi:

; 543  : 
; 544  : 	if(( m_pWeapon == NULL ) || ( gHUD.m_iHideHUDDisplay & ( HIDEHUD_WPNS | HIDEHUD_ALL | HIDEHUD_WPNS_HOLDABLEITEM | HIDEHUD_WPNS_CUSTOM)))

	mov	eax, DWORD PTR _this$[ebp]
	cmp	DWORD PTR [eax+12], 0
	je	SHORT $LN5@MsgFunc_Hi
	mov	eax, DWORD PTR ?gHUD@@3VCHud@@A+76
	and	eax, 53					; 00000035H
	je	SHORT $LN3@MsgFunc_Hi
$LN5@MsgFunc_Hi:

; 545  : 	{
; 546  : 		gpActiveSel = NULL;

	mov	DWORD PTR ?gpActiveSel@@3PAUWEAPON@@A, 0 ; gpActiveSel

; 547  : 		AmmoSetCrosshair( 0, nullRc, 0, 0, 0 );

	push	0
	push	0
	push	0
	sub	esp, 16					; 00000010H
	mov	eax, esp
	mov	ecx, DWORD PTR ?nullRc@@3Uwrect_s@@A
	mov	DWORD PTR [eax], ecx
	mov	edx, DWORD PTR ?nullRc@@3Uwrect_s@@A+4
	mov	DWORD PTR [eax+4], edx
	mov	ecx, DWORD PTR ?nullRc@@3Uwrect_s@@A+8
	mov	DWORD PTR [eax+8], ecx
	mov	edx, DWORD PTR ?nullRc@@3Uwrect_s@@A+12
	mov	DWORD PTR [eax+12], edx
	push	0
	mov	ecx, DWORD PTR _this$[ebp]
	call	?AmmoSetCrosshair@CHudAmmo@@QAEXHUwrect_s@@HHH@Z ; CHudAmmo::AmmoSetCrosshair

; 548  : 	}
; 549  : 	else

	jmp	SHORT $LN4@MsgFunc_Hi
$LN3@MsgFunc_Hi:

; 550  : 	{
; 551  : 		AmmoSetCrosshair( m_pWeapon->hCrosshair, m_pWeapon->rcCrosshair, 255, 255, 255 );

	push	255					; 000000ffH
	push	255					; 000000ffH
	push	255					; 000000ffH
	mov	eax, DWORD PTR _this$[ebp]
	mov	ecx, DWORD PTR [eax+12]
	add	ecx, 252				; 000000fcH
	sub	esp, 16					; 00000010H
	mov	edx, esp
	mov	eax, DWORD PTR [ecx]
	mov	DWORD PTR [edx], eax
	mov	eax, DWORD PTR [ecx+4]
	mov	DWORD PTR [edx+4], eax
	mov	eax, DWORD PTR [ecx+8]
	mov	DWORD PTR [edx+8], eax
	mov	ecx, DWORD PTR [ecx+12]
	mov	DWORD PTR [edx+12], ecx
	mov	edx, DWORD PTR _this$[ebp]
	mov	eax, DWORD PTR [edx+12]
	mov	ecx, DWORD PTR [eax+248]
	push	ecx
	mov	ecx, DWORD PTR _this$[ebp]
	call	?AmmoSetCrosshair@CHudAmmo@@QAEXHUwrect_s@@HHH@Z ; CHudAmmo::AmmoSetCrosshair
$LN4@MsgFunc_Hi:

; 552  : 	}
; 553  : 
; 554  : 	END_READ();

	call	?END_READ@@YAXXZ			; END_READ

; 555  : 
; 556  : 	return 1;

	mov	eax, 1
$LN1@MsgFunc_Hi:

; 557  : }

	pop	edi
	pop	esi
	pop	ebx
	mov	esp, ebp
	pop	ebp
	ret	12					; 0000000cH
?MsgFunc_HideWeapon@CHudAmmo@@QAEHPBDHPAX@Z ENDP	; CHudAmmo::MsgFunc_HideWeapon
_TEXT	ENDS
; Function compile flags: /Odtp /ZI
; File d:\!diffusion 2020\source code 2022\client-server\client\ammo.cpp
;	COMDAT ?MsgFunc_ItemPickup@CHudAmmo@@QAEHPBDHPAX@Z
_TEXT	SEGMENT
_szName$ = -8						; size = 4
_this$ = -4						; size = 4
_pszName$ = 8						; size = 4
_iSize$ = 12						; size = 4
_pbuf$ = 16						; size = 4
?MsgFunc_ItemPickup@CHudAmmo@@QAEHPBDHPAX@Z PROC	; CHudAmmo::MsgFunc_ItemPickup, COMDAT
; _this$ = ecx

; 523  : {

	push	ebp
	mov	ebp, esp
	sub	esp, 72					; 00000048H
	push	ebx
	push	esi
	push	edi
	mov	DWORD PTR _this$[ebp], ecx

; 524  : 	BEGIN_READ( pszName, pbuf, iSize );

	mov	eax, DWORD PTR _iSize$[ebp]
	push	eax
	mov	ecx, DWORD PTR _pbuf$[ebp]
	push	ecx
	mov	edx, DWORD PTR _pszName$[ebp]
	push	edx
	call	?BEGIN_READ@@YAXPBDPAXH@Z		; BEGIN_READ
	add	esp, 12					; 0000000cH

; 525  : 	const char *szName = READ_STRING();

	call	?READ_STRING@@YAPADXZ			; READ_STRING
	mov	DWORD PTR _szName$[ebp], eax

; 526  : 
; 527  : 	// Add the weapon to the history
; 528  : 	gHR.AddToHistory( HISTSLOT_ITEM, szName );

	push	0
	mov	eax, DWORD PTR _szName$[ebp]
	push	eax
	push	3
	mov	ecx, OFFSET ?gHR@@3VHistoryResource@@A	; gHR
	call	?AddToHistory@HistoryResource@@QAEXHPBDH@Z ; HistoryResource::AddToHistory

; 529  : 
; 530  : 	END_READ();

	call	?END_READ@@YAXXZ			; END_READ

; 531  : 
; 532  : 	return 1;

	mov	eax, 1

; 533  : }

	pop	edi
	pop	esi
	pop	ebx
	mov	esp, ebp
	pop	ebp
	ret	12					; 0000000cH
?MsgFunc_ItemPickup@CHudAmmo@@QAEHPBDHPAX@Z ENDP	; CHudAmmo::MsgFunc_ItemPickup
_TEXT	ENDS
; Function compile flags: /Odtp /ZI
; File d:\!diffusion 2020\source code 2022\client-server\client\ammo.cpp
;	COMDAT ?MsgFunc_WeapPickup@CHudAmmo@@QAEHPBDHPAX@Z
_TEXT	SEGMENT
_iIndex$ = -8						; size = 4
_this$ = -4						; size = 4
_pszName$ = 8						; size = 4
_iSize$ = 12						; size = 4
_pbuf$ = 16						; size = 4
?MsgFunc_WeapPickup@CHudAmmo@@QAEHPBDHPAX@Z PROC	; CHudAmmo::MsgFunc_WeapPickup, COMDAT
; _this$ = ecx

; 510  : {

	push	ebp
	mov	ebp, esp
	sub	esp, 72					; 00000048H
	push	ebx
	push	esi
	push	edi
	mov	DWORD PTR _this$[ebp], ecx

; 511  : 	BEGIN_READ( pszName, pbuf, iSize );

	mov	eax, DWORD PTR _iSize$[ebp]
	push	eax
	mov	ecx, DWORD PTR _pbuf$[ebp]
	push	ecx
	mov	edx, DWORD PTR _pszName$[ebp]
	push	edx
	call	?BEGIN_READ@@YAXPBDPAXH@Z		; BEGIN_READ
	add	esp, 12					; 0000000cH

; 512  : 	int iIndex = READ_BYTE();

	call	?READ_BYTE@@YAHXZ			; READ_BYTE
	mov	DWORD PTR _iIndex$[ebp], eax

; 513  : 
; 514  : 	// Add the weapon to the history
; 515  : 	gHR.AddToHistory( HISTSLOT_WEAP, iIndex );

	push	0
	mov	eax, DWORD PTR _iIndex$[ebp]
	push	eax
	push	2
	mov	ecx, OFFSET ?gHR@@3VHistoryResource@@A	; gHR
	call	?AddToHistory@HistoryResource@@QAEXHHH@Z ; HistoryResource::AddToHistory

; 516  : 
; 517  : 	END_READ();

	call	?END_READ@@YAXXZ			; END_READ

; 518  : 
; 519  : 	return 1;

	mov	eax, 1

; 520  : }

	pop	edi
	pop	esi
	pop	ebx
	mov	esp, ebp
	pop	ebp
	ret	12					; 0000000cH
?MsgFunc_WeapPickup@CHudAmmo@@QAEHPBDHPAX@Z ENDP	; CHudAmmo::MsgFunc_WeapPickup
_TEXT	ENDS
; Function compile flags: /Odtp /ZI
; File d:\!diffusion 2020\source code 2022\client-server\client\ammo.cpp
;	COMDAT ?MsgFunc_AmmoPickup@CHudAmmo@@QAEHPBDHPAX@Z
_TEXT	SEGMENT
_iCount$ = -12						; size = 4
_iIndex$ = -8						; size = 4
_this$ = -4						; size = 4
_pszName$ = 8						; size = 4
_iSize$ = 12						; size = 4
_pbuf$ = 16						; size = 4
?MsgFunc_AmmoPickup@CHudAmmo@@QAEHPBDHPAX@Z PROC	; CHudAmmo::MsgFunc_AmmoPickup, COMDAT
; _this$ = ecx

; 496  : {

	push	ebp
	mov	ebp, esp
	sub	esp, 76					; 0000004cH
	push	ebx
	push	esi
	push	edi
	mov	DWORD PTR _this$[ebp], ecx

; 497  : 	BEGIN_READ( pszName, pbuf, iSize );

	mov	eax, DWORD PTR _iSize$[ebp]
	push	eax
	mov	ecx, DWORD PTR _pbuf$[ebp]
	push	ecx
	mov	edx, DWORD PTR _pszName$[ebp]
	push	edx
	call	?BEGIN_READ@@YAXPBDPAXH@Z		; BEGIN_READ
	add	esp, 12					; 0000000cH

; 498  : 	int iIndex = READ_BYTE();

	call	?READ_BYTE@@YAHXZ			; READ_BYTE
	mov	DWORD PTR _iIndex$[ebp], eax

; 499  : 	int iCount = READ_BYTE();

	call	?READ_BYTE@@YAHXZ			; READ_BYTE
	mov	DWORD PTR _iCount$[ebp], eax

; 500  : 
; 501  : 	// Add ammo to the history
; 502  : 	gHR.AddToHistory( HISTSLOT_AMMO, iIndex, abs( iCount ));

	mov	eax, DWORD PTR _iCount$[ebp]
	push	eax
	call	_abs
	add	esp, 4
	push	eax
	mov	ecx, DWORD PTR _iIndex$[ebp]
	push	ecx
	push	1
	mov	ecx, OFFSET ?gHR@@3VHistoryResource@@A	; gHR
	call	?AddToHistory@HistoryResource@@QAEXHHH@Z ; HistoryResource::AddToHistory

; 503  : 
; 504  : 	END_READ();

	call	?END_READ@@YAXXZ			; END_READ

; 505  : 
; 506  : 	return 1;

	mov	eax, 1

; 507  : }

	pop	edi
	pop	esi
	pop	ebx
	mov	esp, ebp
	pop	ebp
	ret	12					; 0000000cH
?MsgFunc_AmmoPickup@CHudAmmo@@QAEHPBDHPAX@Z ENDP	; CHudAmmo::MsgFunc_AmmoPickup
_TEXT	ENDS
; Function compile flags: /Odtp /ZI
; File d:\!diffusion 2020\source code 2022\client-server\client\ammo.cpp
;	COMDAT ?MsgFunc_WeaponList@CHudAmmo@@QAEHPBDHPAX@Z
_TEXT	SEGMENT
_Weapon$ = -336						; size = 328
_this$ = -8						; size = 4
__$ArrayPad$ = -4					; size = 4
_pszName$ = 8						; size = 4
_iSize$ = 12						; size = 4
_pbuf$ = 16						; size = 4
?MsgFunc_WeaponList@CHudAmmo@@QAEHPBDHPAX@Z PROC	; CHudAmmo::MsgFunc_WeaponList, COMDAT
; _this$ = ecx

; 642  : {

	push	ebp
	mov	ebp, esp
	sub	esp, 400				; 00000190H
	mov	eax, DWORD PTR ___security_cookie
	xor	eax, ebp
	mov	DWORD PTR __$ArrayPad$[ebp], eax
	push	ebx
	push	esi
	push	edi
	mov	DWORD PTR _this$[ebp], ecx

; 643  : 	BEGIN_READ( pszName, pbuf, iSize );

	mov	eax, DWORD PTR _iSize$[ebp]
	push	eax
	mov	ecx, DWORD PTR _pbuf$[ebp]
	push	ecx
	mov	edx, DWORD PTR _pszName$[ebp]
	push	edx
	call	?BEGIN_READ@@YAXPBDPAXH@Z		; BEGIN_READ
	add	esp, 12					; 0000000cH

; 644  : 	
; 645  : 	WEAPON Weapon;
; 646  : 
; 647  : 	Q_strcpy( Weapon.szName, READ_STRING() );

	push	99999					; 0001869fH
	call	?READ_STRING@@YAPADXZ			; READ_STRING
	push	eax
	lea	eax, DWORD PTR _Weapon$[ebp]
	push	eax
	call	?Q_strncpy@@YAIPADPBDI@Z		; Q_strncpy
	add	esp, 12					; 0000000cH

; 648  : 	Weapon.iAmmoType = (int)READ_CHAR();	

	call	?READ_CHAR@@YAHXZ			; READ_CHAR
	mov	DWORD PTR _Weapon$[ebp+128], eax

; 649  : 	
; 650  : 	Weapon.iMax1 = READ_BYTE();

	call	?READ_BYTE@@YAHXZ			; READ_BYTE
	mov	DWORD PTR _Weapon$[ebp+136], eax

; 651  : 	if( Weapon.iMax1 == 255 )

	cmp	DWORD PTR _Weapon$[ebp+136], 255	; 000000ffH
	jne	SHORT $LN2@MsgFunc_We

; 652  : 		Weapon.iMax1 = -1;

	mov	DWORD PTR _Weapon$[ebp+136], -1
$LN2@MsgFunc_We:

; 653  : 
; 654  : 	Weapon.iAmmo2Type = READ_CHAR();

	call	?READ_CHAR@@YAHXZ			; READ_CHAR
	mov	DWORD PTR _Weapon$[ebp+132], eax

; 655  : 	Weapon.iMax2 = READ_BYTE();

	call	?READ_BYTE@@YAHXZ			; READ_BYTE
	mov	DWORD PTR _Weapon$[ebp+140], eax

; 656  : 	if( Weapon.iMax2 == 255 )

	cmp	DWORD PTR _Weapon$[ebp+140], 255	; 000000ffH
	jne	SHORT $LN3@MsgFunc_We

; 657  : 		Weapon.iMax2 = -1;

	mov	DWORD PTR _Weapon$[ebp+140], -1
$LN3@MsgFunc_We:

; 658  : 
; 659  : 	Weapon.iSlot = READ_CHAR();

	call	?READ_CHAR@@YAHXZ			; READ_CHAR
	mov	DWORD PTR _Weapon$[ebp+144], eax

; 660  : 	Weapon.iSlotPos = READ_CHAR();

	call	?READ_CHAR@@YAHXZ			; READ_CHAR
	mov	DWORD PTR _Weapon$[ebp+148], eax

; 661  : 	Weapon.iId = READ_CHAR();

	call	?READ_CHAR@@YAHXZ			; READ_CHAR
	mov	DWORD PTR _Weapon$[ebp+156], eax

; 662  : 	Weapon.iFlags = READ_BYTE();

	call	?READ_BYTE@@YAHXZ			; READ_BYTE
	mov	DWORD PTR _Weapon$[ebp+152], eax

; 663  : 	Weapon.iClip = 0;

	mov	DWORD PTR _Weapon$[ebp+160], 0

; 664  : 
; 665  : 	gWR.AddWeapon( &Weapon );

	lea	eax, DWORD PTR _Weapon$[ebp]
	push	eax
	mov	ecx, OFFSET ?gWR@@3VWeaponsResource@@A	; gWR
	call	?AddWeapon@WeaponsResource@@QAEXPAUWEAPON@@@Z ; WeaponsResource::AddWeapon

; 666  : 
; 667  : 	END_READ();

	call	?END_READ@@YAXXZ			; END_READ

; 668  : 
; 669  : 	return 1;

	mov	eax, 1

; 670  : 
; 671  : }

	pop	edi
	pop	esi
	pop	ebx
	mov	ecx, DWORD PTR __$ArrayPad$[ebp]
	xor	ecx, ebp
	call	@__security_check_cookie@4
	mov	esp, ebp
	pop	ebp
	ret	12					; 0000000cH
?MsgFunc_WeaponList@CHudAmmo@@QAEHPBDHPAX@Z ENDP	; CHudAmmo::MsgFunc_WeaponList
_TEXT	ENDS
; Function compile flags: /Odtp /ZI
; File d:\!diffusion 2020\source code 2022\client-server\client\ammo.cpp
;	COMDAT ?MsgFunc_CurWeapon@CHudAmmo@@QAEHPBDHPAX@Z
_TEXT	SEGMENT
_pWeapon$ = -20						; size = 4
_iClip$ = -16						; size = 4
_iState$ = -12						; size = 4
_fOnTarget$ = -8					; size = 4
_this$ = -4						; size = 4
_pszName$ = 8						; size = 4
_iSize$ = 12						; size = 4
_pbuf$ = 16						; size = 4
?MsgFunc_CurWeapon@CHudAmmo@@QAEHPBDHPAX@Z PROC		; CHudAmmo::MsgFunc_CurWeapon, COMDAT
; _this$ = ecx

; 565  : {	

	push	ebp
	mov	ebp, esp
	sub	esp, 84					; 00000054H
	push	ebx
	push	esi
	push	edi
	mov	DWORD PTR _this$[ebp], ecx

; 566  : 	int fOnTarget = FALSE;

	mov	DWORD PTR _fOnTarget$[ebp], 0

; 567  : 
; 568  : 	BEGIN_READ( pszName, pbuf, iSize );

	mov	eax, DWORD PTR _iSize$[ebp]
	push	eax
	mov	ecx, DWORD PTR _pbuf$[ebp]
	push	ecx
	mov	edx, DWORD PTR _pszName$[ebp]
	push	edx
	call	?BEGIN_READ@@YAXPBDPAXH@Z		; BEGIN_READ
	add	esp, 12					; 0000000cH

; 569  : 
; 570  : 	int iState = READ_BYTE();

	call	?READ_BYTE@@YAHXZ			; READ_BYTE
	mov	DWORD PTR _iState$[ebp], eax

; 571  : 	iId = READ_CHAR();

	call	?READ_CHAR@@YAHXZ			; READ_CHAR
	mov	ecx, DWORD PTR _this$[ebp]
	mov	DWORD PTR [ecx+32], eax

; 572  : 	int iClip = READ_CHAR();

	call	?READ_CHAR@@YAHXZ			; READ_CHAR
	mov	DWORD PTR _iClip$[ebp], eax

; 573  : 
; 574  : 	// detect if we're also on target
; 575  : 	if( iState > 1 )

	cmp	DWORD PTR _iState$[ebp], 1
	jle	SHORT $LN2@MsgFunc_Cu

; 576  : 		fOnTarget = TRUE;

	mov	DWORD PTR _fOnTarget$[ebp], 1
$LN2@MsgFunc_Cu:

; 577  : 
; 578  : 	if( iId < 1 )

	mov	eax, DWORD PTR _this$[ebp]
	cmp	DWORD PTR [eax+32], 1
	jge	SHORT $LN3@MsgFunc_Cu

; 579  : 	{
; 580  : 		AmmoSetCrosshair( 0, nullRc, 0, 0, 0 );

	push	0
	push	0
	push	0
	sub	esp, 16					; 00000010H
	mov	eax, esp
	mov	ecx, DWORD PTR ?nullRc@@3Uwrect_s@@A
	mov	DWORD PTR [eax], ecx
	mov	edx, DWORD PTR ?nullRc@@3Uwrect_s@@A+4
	mov	DWORD PTR [eax+4], edx
	mov	ecx, DWORD PTR ?nullRc@@3Uwrect_s@@A+8
	mov	DWORD PTR [eax+8], ecx
	mov	edx, DWORD PTR ?nullRc@@3Uwrect_s@@A+12
	mov	DWORD PTR [eax+12], edx
	push	0
	mov	ecx, DWORD PTR _this$[ebp]
	call	?AmmoSetCrosshair@CHudAmmo@@QAEXHUwrect_s@@HHH@Z ; CHudAmmo::AmmoSetCrosshair

; 581  : 		m_pWeapon = NULL;

	mov	eax, DWORD PTR _this$[ebp]
	mov	DWORD PTR [eax+12], 0

; 582  : 		return 0;

	xor	eax, eax
	jmp	$LN1@MsgFunc_Cu
$LN3@MsgFunc_Cu:

; 583  : 	}
; 584  : 
; 585  : 	if (g_iUser1 != OBS_IN_EYE)

	cmp	DWORD PTR ?g_iUser1@@3HA, 4		; g_iUser1
	je	SHORT $LN4@MsgFunc_Cu

; 586  : 	{
; 587  : 		// Is player dead???
; 588  : 		if ((iId == -1) && (iClip == -1))

	mov	eax, DWORD PTR _this$[ebp]
	cmp	DWORD PTR [eax+32], -1
	jne	SHORT $LN5@MsgFunc_Cu
	cmp	DWORD PTR _iClip$[ebp], -1
	jne	SHORT $LN5@MsgFunc_Cu

; 589  : 		{
; 590  : 			gHUD.m_fPlayerDead = TRUE;

	mov	DWORD PTR ?gHUD@@3VCHud@@A+8972, 1

; 591  : 			gpActiveSel = NULL;

	mov	DWORD PTR ?gpActiveSel@@3PAUWEAPON@@A, 0 ; gpActiveSel

; 592  : 			return 1;

	mov	eax, 1
	jmp	$LN1@MsgFunc_Cu
$LN5@MsgFunc_Cu:

; 593  : 		}
; 594  : 		gHUD.m_fPlayerDead = FALSE;

	mov	DWORD PTR ?gHUD@@3VCHud@@A+8972, 0
$LN4@MsgFunc_Cu:

; 595  : 	}
; 596  : 
; 597  : 	gHUD.m_fPlayerDead = FALSE;

	mov	DWORD PTR ?gHUD@@3VCHud@@A+8972, 0

; 598  : 
; 599  : 	WEAPON *pWeapon = gWR.GetWeapon( iId );

	mov	eax, DWORD PTR _this$[ebp]
	mov	ecx, DWORD PTR [eax+32]
	push	ecx
	mov	ecx, OFFSET ?gWR@@3VWeaponsResource@@A	; gWR
	call	?GetWeapon@WeaponsResource@@QAEPAUWEAPON@@H@Z ; WeaponsResource::GetWeapon
	mov	DWORD PTR _pWeapon$[ebp], eax

; 600  : 
; 601  : 	if( !pWeapon )

	cmp	DWORD PTR _pWeapon$[ebp], 0
	jne	SHORT $LN6@MsgFunc_Cu

; 602  : 		return 0;

	xor	eax, eax
	jmp	$LN1@MsgFunc_Cu
$LN6@MsgFunc_Cu:

; 603  : 
; 604  : 	if( iClip < -1 )

	cmp	DWORD PTR _iClip$[ebp], -1
	jge	SHORT $LN7@MsgFunc_Cu

; 605  : 		pWeapon->iClip = abs( iClip );

	mov	eax, DWORD PTR _iClip$[ebp]
	push	eax
	call	_abs
	add	esp, 4
	mov	ecx, DWORD PTR _pWeapon$[ebp]
	mov	DWORD PTR [ecx+160], eax

; 606  : 	else

	jmp	SHORT $LN8@MsgFunc_Cu
$LN7@MsgFunc_Cu:

; 607  : 		pWeapon->iClip = iClip;

	mov	eax, DWORD PTR _pWeapon$[ebp]
	mov	ecx, DWORD PTR _iClip$[ebp]
	mov	DWORD PTR [eax+160], ecx
$LN8@MsgFunc_Cu:

; 608  : 
; 609  : 	if( iState == 0 )	// we're not the current weapon, so update no more

	cmp	DWORD PTR _iState$[ebp], 0
	jne	SHORT $LN9@MsgFunc_Cu

; 610  : 		return 1;

	mov	eax, 1
	jmp	$LN1@MsgFunc_Cu
$LN9@MsgFunc_Cu:

; 611  : 
; 612  : 	m_pWeapon = pWeapon;

	mov	eax, DWORD PTR _this$[ebp]
	mov	ecx, DWORD PTR _pWeapon$[ebp]
	mov	DWORD PTR [eax+12], ecx

; 613  : 	WeaponID = m_pWeapon->iId; // local copy

	mov	eax, DWORD PTR _this$[ebp]
	mov	ecx, DWORD PTR [eax+12]
	mov	edx, DWORD PTR _this$[ebp]
	mov	eax, DWORD PTR [ecx+156]
	mov	DWORD PTR [edx+8], eax

; 614  : 
; 615  : 	if( gHUD.m_flFOV >= 90.0f )

	movss	xmm0, DWORD PTR ?gHUD@@3VCHud@@A+80
	comiss	xmm0, DWORD PTR __real@42b40000
	jb	$LN10@MsgFunc_Cu

; 616  : 	{ 
; 617  : 		// normal crosshairs
; 618  : 		if( fOnTarget && m_pWeapon->hAutoaim )

	cmp	DWORD PTR _fOnTarget$[ebp], 0
	je	SHORT $LN12@MsgFunc_Cu
	mov	eax, DWORD PTR _this$[ebp]
	mov	ecx, DWORD PTR [eax+12]
	cmp	DWORD PTR [ecx+268], 0
	je	SHORT $LN12@MsgFunc_Cu

; 619  : 			AmmoSetCrosshair( m_pWeapon->hAutoaim, m_pWeapon->rcAutoaim, 255, 255, 255 );

	push	255					; 000000ffH
	push	255					; 000000ffH
	push	255					; 000000ffH
	mov	eax, DWORD PTR _this$[ebp]
	mov	ecx, DWORD PTR [eax+12]
	add	ecx, 272				; 00000110H
	sub	esp, 16					; 00000010H
	mov	edx, esp
	mov	eax, DWORD PTR [ecx]
	mov	DWORD PTR [edx], eax
	mov	eax, DWORD PTR [ecx+4]
	mov	DWORD PTR [edx+4], eax
	mov	eax, DWORD PTR [ecx+8]
	mov	DWORD PTR [edx+8], eax
	mov	ecx, DWORD PTR [ecx+12]
	mov	DWORD PTR [edx+12], ecx
	mov	edx, DWORD PTR _this$[ebp]
	mov	eax, DWORD PTR [edx+12]
	mov	ecx, DWORD PTR [eax+268]
	push	ecx
	mov	ecx, DWORD PTR _this$[ebp]
	call	?AmmoSetCrosshair@CHudAmmo@@QAEXHUwrect_s@@HHH@Z ; CHudAmmo::AmmoSetCrosshair
	jmp	SHORT $LN13@MsgFunc_Cu
$LN12@MsgFunc_Cu:

; 620  : 		else AmmoSetCrosshair( m_pWeapon->hCrosshair, m_pWeapon->rcCrosshair, 255, 255, 255 );

	push	255					; 000000ffH
	push	255					; 000000ffH
	push	255					; 000000ffH
	mov	eax, DWORD PTR _this$[ebp]
	mov	ecx, DWORD PTR [eax+12]
	add	ecx, 252				; 000000fcH
	sub	esp, 16					; 00000010H
	mov	edx, esp
	mov	eax, DWORD PTR [ecx]
	mov	DWORD PTR [edx], eax
	mov	eax, DWORD PTR [ecx+4]
	mov	DWORD PTR [edx+4], eax
	mov	eax, DWORD PTR [ecx+8]
	mov	DWORD PTR [edx+8], eax
	mov	ecx, DWORD PTR [ecx+12]
	mov	DWORD PTR [edx+12], ecx
	mov	edx, DWORD PTR _this$[ebp]
	mov	eax, DWORD PTR [edx+12]
	mov	ecx, DWORD PTR [eax+248]
	push	ecx
	mov	ecx, DWORD PTR _this$[ebp]
	call	?AmmoSetCrosshair@CHudAmmo@@QAEXHUwrect_s@@HHH@Z ; CHudAmmo::AmmoSetCrosshair
$LN13@MsgFunc_Cu:

; 621  : 	}
; 622  : 	else

	jmp	$LN15@MsgFunc_Cu
$LN10@MsgFunc_Cu:

; 623  : 	{	// zoomed crosshairs
; 624  : 		if( fOnTarget && m_pWeapon->hZoomedAutoaim )

	cmp	DWORD PTR _fOnTarget$[ebp], 0
	je	SHORT $LN14@MsgFunc_Cu
	mov	eax, DWORD PTR _this$[ebp]
	mov	ecx, DWORD PTR [eax+12]
	cmp	DWORD PTR [ecx+308], 0
	je	SHORT $LN14@MsgFunc_Cu

; 625  : 			AmmoSetCrosshair( m_pWeapon->hZoomedAutoaim, m_pWeapon->rcZoomedAutoaim, 255, 255, 255 );

	push	255					; 000000ffH
	push	255					; 000000ffH
	push	255					; 000000ffH
	mov	eax, DWORD PTR _this$[ebp]
	mov	ecx, DWORD PTR [eax+12]
	add	ecx, 312				; 00000138H
	sub	esp, 16					; 00000010H
	mov	edx, esp
	mov	eax, DWORD PTR [ecx]
	mov	DWORD PTR [edx], eax
	mov	eax, DWORD PTR [ecx+4]
	mov	DWORD PTR [edx+4], eax
	mov	eax, DWORD PTR [ecx+8]
	mov	DWORD PTR [edx+8], eax
	mov	ecx, DWORD PTR [ecx+12]
	mov	DWORD PTR [edx+12], ecx
	mov	edx, DWORD PTR _this$[ebp]
	mov	eax, DWORD PTR [edx+12]
	mov	ecx, DWORD PTR [eax+308]
	push	ecx
	mov	ecx, DWORD PTR _this$[ebp]
	call	?AmmoSetCrosshair@CHudAmmo@@QAEXHUwrect_s@@HHH@Z ; CHudAmmo::AmmoSetCrosshair
	jmp	SHORT $LN15@MsgFunc_Cu
$LN14@MsgFunc_Cu:

; 626  : 		else AmmoSetCrosshair( m_pWeapon->hZoomedCrosshair, m_pWeapon->rcZoomedCrosshair, 255, 255, 255 );

	push	255					; 000000ffH
	push	255					; 000000ffH
	push	255					; 000000ffH
	mov	eax, DWORD PTR _this$[ebp]
	mov	ecx, DWORD PTR [eax+12]
	add	ecx, 292				; 00000124H
	sub	esp, 16					; 00000010H
	mov	edx, esp
	mov	eax, DWORD PTR [ecx]
	mov	DWORD PTR [edx], eax
	mov	eax, DWORD PTR [ecx+4]
	mov	DWORD PTR [edx+4], eax
	mov	eax, DWORD PTR [ecx+8]
	mov	DWORD PTR [edx+8], eax
	mov	ecx, DWORD PTR [ecx+12]
	mov	DWORD PTR [edx+12], ecx
	mov	edx, DWORD PTR _this$[ebp]
	mov	eax, DWORD PTR [edx+12]
	mov	ecx, DWORD PTR [eax+288]
	push	ecx
	mov	ecx, DWORD PTR _this$[ebp]
	call	?AmmoSetCrosshair@CHudAmmo@@QAEXHUwrect_s@@HHH@Z ; CHudAmmo::AmmoSetCrosshair
$LN15@MsgFunc_Cu:

; 627  : 
; 628  : 	}
; 629  : 
; 630  : 	m_fFade = 200.0f; //!!!

	mov	eax, DWORD PTR _this$[ebp]
	movss	xmm0, DWORD PTR __real@43480000
	movss	DWORD PTR [eax+16], xmm0

; 631  : 	m_iFlags |= HUD_ACTIVE;

	mov	eax, DWORD PTR _this$[ebp]
	mov	ecx, DWORD PTR [eax+4]
	or	ecx, 1
	mov	edx, DWORD PTR _this$[ebp]
	mov	DWORD PTR [edx+4], ecx

; 632  : 
; 633  : 	END_READ();

	call	?END_READ@@YAXXZ			; END_READ

; 634  : 	
; 635  : 	return 1;

	mov	eax, 1
$LN1@MsgFunc_Cu:

; 636  : }

	pop	edi
	pop	esi
	pop	ebx
	mov	esp, ebp
	pop	ebp
	ret	12					; 0000000cH
?MsgFunc_CurWeapon@CHudAmmo@@QAEHPBDHPAX@Z ENDP		; CHudAmmo::MsgFunc_CurWeapon
_TEXT	ENDS
; Function compile flags: /Odtp /ZI
; File d:\!diffusion 2020\source code 2022\client-server\client\ammo.cpp
;	COMDAT ?DrawWList@CHudAmmo@@QAEHM@Z
_TEXT	SEGMENT
_p$1 = -64						; size = 4
_iPos$2 = -60						; size = 4
_iPos$3 = -56						; size = 4
_iWidth$4 = -52						; size = 4
_p$5 = -48						; size = 4
_p$6 = -44						; size = 4
_iWidth$7 = -40						; size = 4
_iActiveSlot$ = -36					; size = 4
_i$ = -32						; size = 4
_y$ = -28						; size = 4
_x$ = -24						; size = 4
_a$ = -20						; size = 4
_b$ = -16						; size = 4
_g$ = -12						; size = 4
_r$ = -8						; size = 4
_this$ = -4						; size = 4
_flTime$ = 8						; size = 4
?DrawWList@CHudAmmo@@QAEHM@Z PROC			; CHudAmmo::DrawWList, COMDAT
; _this$ = ecx

; 1024 : {

	push	ebp
	mov	ebp, esp
	sub	esp, 128				; 00000080H
	push	ebx
	push	esi
	push	edi
	mov	DWORD PTR _this$[ebp], ecx

; 1025 : 	int r, g, b, a;
; 1026 : 	int x, y, i;
; 1027 : 
; 1028 : 	if( !gpActiveSel )

	cmp	DWORD PTR ?gpActiveSel@@3PAUWEAPON@@A, 0 ; gpActiveSel
	jne	SHORT $LN14@DrawWList

; 1029 : 		return 0;

	xor	eax, eax
	jmp	$LN1@DrawWList
$LN14@DrawWList:

; 1030 : 
; 1031 : 	int iActiveSlot;
; 1032 : 
; 1033 : 	if( gpActiveSel == (WEAPON *)1 )

	cmp	DWORD PTR ?gpActiveSel@@3PAUWEAPON@@A, 1 ; gpActiveSel
	jne	SHORT $LN15@DrawWList

; 1034 : 		iActiveSlot = -1;	// current slot has no weapons

	mov	DWORD PTR _iActiveSlot$[ebp], -1

; 1035 : 	else 

	jmp	SHORT $LN16@DrawWList
$LN15@DrawWList:

; 1036 : 		iActiveSlot = gpActiveSel->iSlot;

	mov	eax, DWORD PTR ?gpActiveSel@@3PAUWEAPON@@A ; gpActiveSel
	mov	ecx, DWORD PTR [eax+144]
	mov	DWORD PTR _iActiveSlot$[ebp], ecx
$LN16@DrawWList:

; 1037 : 
; 1038 : 	x = 10; //!!!

	mov	DWORD PTR _x$[ebp], 10			; 0000000aH

; 1039 : 	y = 10; //!!!

	mov	DWORD PTR _y$[ebp], 10			; 0000000aH

; 1040 : 
; 1041 : 	// Ensure that there are available choices in the active slot
; 1042 : 	if( iActiveSlot > 0 )

	cmp	DWORD PTR _iActiveSlot$[ebp], 0
	jle	SHORT $LN17@DrawWList

; 1043 : 	{
; 1044 : 		if( !gWR.GetFirstPos( iActiveSlot ))

	mov	eax, DWORD PTR _iActiveSlot$[ebp]
	push	eax
	mov	ecx, OFFSET ?gWR@@3VWeaponsResource@@A	; gWR
	call	?GetFirstPos@WeaponsResource@@QAEPAUWEAPON@@H@Z ; WeaponsResource::GetFirstPos
	test	eax, eax
	jne	SHORT $LN17@DrawWList

; 1045 : 		{
; 1046 : 			gpActiveSel = (WEAPON *)1;

	mov	DWORD PTR ?gpActiveSel@@3PAUWEAPON@@A, 1 ; gpActiveSel

; 1047 : 			iActiveSlot = -1;

	mov	DWORD PTR _iActiveSlot$[ebp], -1
$LN17@DrawWList:

; 1048 : 		}
; 1049 : 	}
; 1050 : 		
; 1051 : 	// Draw top line
; 1052 : 	for( i = 0; i < MAX_WEAPON_SLOTS; i++ )

	mov	DWORD PTR _i$[ebp], 0
	jmp	SHORT $LN4@DrawWList
$LN2@DrawWList:
	mov	eax, DWORD PTR _i$[ebp]
	add	eax, 1
	mov	DWORD PTR _i$[ebp], eax
$LN4@DrawWList:
	cmp	DWORD PTR _i$[ebp], 6
	jge	$LN3@DrawWList

; 1053 : 	{
; 1054 : 		int iWidth;
; 1055 : 
; 1056 : 		UnpackRGB( r, g, b, gHUD.m_iHUDColor );

	mov	eax, DWORD PTR ?gHUD@@3VCHud@@A+108
	push	eax
	lea	ecx, DWORD PTR _b$[ebp]
	push	ecx
	lea	edx, DWORD PTR _g$[ebp]
	push	edx
	lea	eax, DWORD PTR _r$[ebp]
	push	eax
	call	?UnpackRGB@@YAXAAH00K@Z			; UnpackRGB
	add	esp, 16					; 00000010H

; 1057 : 	
; 1058 : 		if( iActiveSlot == i )

	mov	eax, DWORD PTR _iActiveSlot$[ebp]
	cmp	eax, DWORD PTR _i$[ebp]
	jne	SHORT $LN19@DrawWList

; 1059 : 			a = 255;

	mov	DWORD PTR _a$[ebp], 255			; 000000ffH

; 1060 : 		else

	jmp	SHORT $LN20@DrawWList
$LN19@DrawWList:

; 1061 : 			a = 192;

	mov	DWORD PTR _a$[ebp], 192			; 000000c0H
$LN20@DrawWList:

; 1062 : 
; 1063 : 		ScaleColors( r, g, b, 255 );

	push	255					; 000000ffH
	lea	eax, DWORD PTR _b$[ebp]
	push	eax
	lea	ecx, DWORD PTR _g$[ebp]
	push	ecx
	lea	edx, DWORD PTR _r$[ebp]
	push	edx
	call	?ScaleColors@@YAXAAH00H@Z		; ScaleColors
	add	esp, 16					; 00000010H

; 1064 : 		SPR_Set( gHUD.GetSprite( m_HUD_bucket0 + i ), r, g, b );

	mov	eax, DWORD PTR _b$[ebp]
	push	eax
	mov	ecx, DWORD PTR _g$[ebp]
	push	ecx
	mov	edx, DWORD PTR _r$[ebp]
	push	edx
	mov	eax, DWORD PTR _this$[ebp]
	mov	ecx, DWORD PTR [eax+20]
	add	ecx, DWORD PTR _i$[ebp]
	push	ecx
	mov	ecx, OFFSET ?gHUD@@3VCHud@@A		; gHUD
	call	?GetSprite@CHud@@QAEHH@Z		; CHud::GetSprite
	push	eax
	call	DWORD PTR ?gEngfuncs@@3Ucl_enginefuncs_s@@A+16
	add	esp, 16					; 00000010H

; 1065 : 
; 1066 : 		// make active slot wide enough to accomodate gun pictures
; 1067 : 		if( i == iActiveSlot )

	mov	eax, DWORD PTR _i$[ebp]
	cmp	eax, DWORD PTR _iActiveSlot$[ebp]
	jne	SHORT $LN21@DrawWList

; 1068 : 		{
; 1069 : 			WEAPON *p = gWR.GetFirstPos(iActiveSlot);

	mov	eax, DWORD PTR _iActiveSlot$[ebp]
	push	eax
	mov	ecx, OFFSET ?gWR@@3VWeaponsResource@@A	; gWR
	call	?GetFirstPos@WeaponsResource@@QAEPAUWEAPON@@H@Z ; WeaponsResource::GetFirstPos
	mov	DWORD PTR _p$6[ebp], eax

; 1070 : 
; 1071 : 			if( p )

	cmp	DWORD PTR _p$6[ebp], 0
	je	SHORT $LN23@DrawWList

; 1072 : 				iWidth = p->rcActive.right - p->rcActive.left;

	mov	eax, DWORD PTR _p$6[ebp]
	mov	ecx, DWORD PTR _p$6[ebp]
	mov	edx, DWORD PTR [eax+176]
	sub	edx, DWORD PTR [ecx+172]
	mov	DWORD PTR _iWidth$7[ebp], edx

; 1073 : 			else

	jmp	SHORT $LN24@DrawWList
$LN23@DrawWList:

; 1074 : 				iWidth = giBucketWidth;

	mov	eax, DWORD PTR ?giBucketWidth@@3HA	; giBucketWidth
	mov	DWORD PTR _iWidth$7[ebp], eax
$LN24@DrawWList:

; 1075 : 		}
; 1076 : 		else

	jmp	SHORT $LN22@DrawWList
$LN21@DrawWList:

; 1077 : 			iWidth = giBucketWidth;

	mov	eax, DWORD PTR ?giBucketWidth@@3HA	; giBucketWidth
	mov	DWORD PTR _iWidth$7[ebp], eax
$LN22@DrawWList:

; 1078 : 
; 1079 : 		SPR_DrawAdditive( 0, x, y, &gHUD.GetSpriteRect( m_HUD_bucket0 + i ));

	mov	eax, DWORD PTR _this$[ebp]
	mov	ecx, DWORD PTR [eax+20]
	add	ecx, DWORD PTR _i$[ebp]
	push	ecx
	mov	ecx, OFFSET ?gHUD@@3VCHud@@A		; gHUD
	call	?GetSpriteRect@CHud@@QAEAAUwrect_s@@H@Z	; CHud::GetSpriteRect
	push	eax
	mov	edx, DWORD PTR _y$[ebp]
	push	edx
	mov	eax, DWORD PTR _x$[ebp]
	push	eax
	push	0
	call	DWORD PTR ?gEngfuncs@@3Ucl_enginefuncs_s@@A+28
	add	esp, 16					; 00000010H

; 1080 : 		
; 1081 : 		x += iWidth + 5;

	mov	eax, DWORD PTR _iWidth$7[ebp]
	mov	ecx, DWORD PTR _x$[ebp]
	lea	edx, DWORD PTR [ecx+eax+5]
	mov	DWORD PTR _x$[ebp], edx

; 1082 : 	}

	jmp	$LN2@DrawWList
$LN3@DrawWList:

; 1083 : 
; 1084 : 	a = 128; //!!!

	mov	DWORD PTR _a$[ebp], 128			; 00000080H

; 1085 : 	x = 10;

	mov	DWORD PTR _x$[ebp], 10			; 0000000aH

; 1086 : 
; 1087 : 	// Draw all of the buckets
; 1088 : 	for( i = 0; i < MAX_WEAPON_SLOTS; i++ )

	mov	DWORD PTR _i$[ebp], 0
	jmp	SHORT $LN7@DrawWList
$LN5@DrawWList:
	mov	eax, DWORD PTR _i$[ebp]
	add	eax, 1
	mov	DWORD PTR _i$[ebp], eax
$LN7@DrawWList:
	cmp	DWORD PTR _i$[ebp], 6
	jge	$LN6@DrawWList

; 1089 : 	{
; 1090 : 		y = giBucketHeight + 10;

	mov	eax, DWORD PTR ?giBucketHeight@@3HA	; giBucketHeight
	add	eax, 10					; 0000000aH
	mov	DWORD PTR _y$[ebp], eax

; 1091 : 
; 1092 : 		// If this is the active slot, draw the bigger pictures,
; 1093 : 		// otherwise just draw boxes
; 1094 : 		if( i == iActiveSlot )

	mov	eax, DWORD PTR _i$[ebp]
	cmp	eax, DWORD PTR _iActiveSlot$[ebp]
	jne	$LN25@DrawWList

; 1095 : 		{
; 1096 : 			WEAPON *p = gWR.GetFirstPos( i );

	mov	eax, DWORD PTR _i$[ebp]
	push	eax
	mov	ecx, OFFSET ?gWR@@3VWeaponsResource@@A	; gWR
	call	?GetFirstPos@WeaponsResource@@QAEPAUWEAPON@@H@Z ; WeaponsResource::GetFirstPos
	mov	DWORD PTR _p$5[ebp], eax

; 1097 : 			int iWidth = giBucketWidth;

	mov	eax, DWORD PTR ?giBucketWidth@@3HA	; giBucketWidth
	mov	DWORD PTR _iWidth$4[ebp], eax

; 1098 : 
; 1099 : 			if( p )

	cmp	DWORD PTR _p$5[ebp], 0
	je	SHORT $LN27@DrawWList

; 1100 : 				iWidth = p->rcActive.right - p->rcActive.left;

	mov	eax, DWORD PTR _p$5[ebp]
	mov	ecx, DWORD PTR _p$5[ebp]
	mov	edx, DWORD PTR [eax+176]
	sub	edx, DWORD PTR [ecx+172]
	mov	DWORD PTR _iWidth$4[ebp], edx
$LN27@DrawWList:

; 1101 : 
; 1102 : 			for( int iPos = 0; iPos < MAX_WEAPON_POSITIONS; iPos++ )

	mov	DWORD PTR _iPos$3[ebp], 0
	jmp	SHORT $LN10@DrawWList
$LN8@DrawWList:
	mov	eax, DWORD PTR _iPos$3[ebp]
	add	eax, 1
	mov	DWORD PTR _iPos$3[ebp], eax
$LN10@DrawWList:
	cmp	DWORD PTR _iPos$3[ebp], 7
	jge	$LN9@DrawWList

; 1103 : 			{
; 1104 : 				p = gWR.GetWeaponSlot( i, iPos );

	mov	eax, DWORD PTR _iPos$3[ebp]
	push	eax
	mov	ecx, DWORD PTR _i$[ebp]
	push	ecx
	mov	ecx, OFFSET ?gWR@@3VWeaponsResource@@A	; gWR
	call	?GetWeaponSlot@WeaponsResource@@QAEPAUWEAPON@@HH@Z ; WeaponsResource::GetWeaponSlot
	mov	DWORD PTR _p$5[ebp], eax

; 1105 : 
; 1106 : 				if( !p || !p->iId )

	cmp	DWORD PTR _p$5[ebp], 0
	je	SHORT $LN29@DrawWList
	mov	eax, DWORD PTR _p$5[ebp]
	cmp	DWORD PTR [eax+156], 0
	jne	SHORT $LN28@DrawWList
$LN29@DrawWList:

; 1107 : 					continue;

	jmp	SHORT $LN8@DrawWList
$LN28@DrawWList:

; 1108 : 
; 1109 : 				UnpackRGB( r, g, b, gHUD.m_iHUDColor );

	mov	eax, DWORD PTR ?gHUD@@3VCHud@@A+108
	push	eax
	lea	ecx, DWORD PTR _b$[ebp]
	push	ecx
	lea	edx, DWORD PTR _g$[ebp]
	push	edx
	lea	eax, DWORD PTR _r$[ebp]
	push	eax
	call	?UnpackRGB@@YAXAAH00K@Z			; UnpackRGB
	add	esp, 16					; 00000010H

; 1110 : 			
; 1111 : 				// if active, then we must have ammo.
; 1112 : 				if( gpActiveSel == p )

	mov	eax, DWORD PTR ?gpActiveSel@@3PAUWEAPON@@A ; gpActiveSel
	cmp	eax, DWORD PTR _p$5[ebp]
	jne	$LN30@DrawWList

; 1113 : 				{
; 1114 : 					// diffusion - except when we can select it
; 1115 : 					if( gHUD.CanSelectEmptyWeapon )

	movzx	eax, BYTE PTR ?gHUD@@3VCHud@@A+119
	test	eax, eax
	je	SHORT $LN32@DrawWList

; 1116 : 					{
; 1117 : 						if( !gWR.HasAmmo( p ) )

	mov	eax, DWORD PTR _p$5[ebp]
	push	eax
	mov	ecx, OFFSET ?gWR@@3VWeaponsResource@@A	; gWR
	call	?HasAmmo@WeaponsResource@@QAEHPAUWEAPON@@@Z ; WeaponsResource::HasAmmo
	test	eax, eax
	jne	SHORT $LN32@DrawWList

; 1118 : 						{
; 1119 : 							UnpackRGB( r, g, b, RGB_REDISH );

	push	16715792				; 00ff1010H
	lea	eax, DWORD PTR _b$[ebp]
	push	eax
	lea	ecx, DWORD PTR _g$[ebp]
	push	ecx
	lea	edx, DWORD PTR _r$[ebp]
	push	edx
	call	?UnpackRGB@@YAXAAH00K@Z			; UnpackRGB
	add	esp, 16					; 00000010H

; 1120 : 							ScaleColors( r, g, b, 128 );

	push	128					; 00000080H
	lea	eax, DWORD PTR _b$[ebp]
	push	eax
	lea	ecx, DWORD PTR _g$[ebp]
	push	ecx
	lea	edx, DWORD PTR _r$[ebp]
	push	edx
	call	?ScaleColors@@YAXAAH00H@Z		; ScaleColors
	add	esp, 16					; 00000010H
$LN32@DrawWList:

; 1121 : 						}
; 1122 : 					}
; 1123 : 					
; 1124 : 					SPR_Set( p->hActive, r, g, b );

	mov	eax, DWORD PTR _b$[ebp]
	push	eax
	mov	ecx, DWORD PTR _g$[ebp]
	push	ecx
	mov	edx, DWORD PTR _r$[ebp]
	push	edx
	mov	eax, DWORD PTR _p$5[ebp]
	mov	ecx, DWORD PTR [eax+168]
	push	ecx
	call	DWORD PTR ?gEngfuncs@@3Ucl_enginefuncs_s@@A+16
	add	esp, 16					; 00000010H

; 1125 : 					SPR_DrawAdditive( 0, x, y, &p->rcActive );

	mov	eax, DWORD PTR _p$5[ebp]
	add	eax, 172				; 000000acH
	push	eax
	mov	ecx, DWORD PTR _y$[ebp]
	push	ecx
	mov	edx, DWORD PTR _x$[ebp]
	push	edx
	push	0
	call	DWORD PTR ?gEngfuncs@@3Ucl_enginefuncs_s@@A+28
	add	esp, 16					; 00000010H

; 1126 : 
; 1127 : 					SPR_Set( gHUD.GetSprite( m_HUD_selection ), r, g, b );

	mov	eax, DWORD PTR _b$[ebp]
	push	eax
	mov	ecx, DWORD PTR _g$[ebp]
	push	ecx
	mov	edx, DWORD PTR _r$[ebp]
	push	edx
	mov	eax, DWORD PTR _this$[ebp]
	mov	ecx, DWORD PTR [eax+24]
	push	ecx
	mov	ecx, OFFSET ?gHUD@@3VCHud@@A		; gHUD
	call	?GetSprite@CHud@@QAEHH@Z		; CHud::GetSprite
	push	eax
	call	DWORD PTR ?gEngfuncs@@3Ucl_enginefuncs_s@@A+16
	add	esp, 16					; 00000010H

; 1128 : 					SPR_DrawAdditive( 0, x, y, &gHUD.GetSpriteRect( m_HUD_selection ));

	mov	eax, DWORD PTR _this$[ebp]
	mov	ecx, DWORD PTR [eax+24]
	push	ecx
	mov	ecx, OFFSET ?gHUD@@3VCHud@@A		; gHUD
	call	?GetSpriteRect@CHud@@QAEAAUwrect_s@@H@Z	; CHud::GetSpriteRect
	push	eax
	mov	edx, DWORD PTR _y$[ebp]
	push	edx
	mov	eax, DWORD PTR _x$[ebp]
	push	eax
	push	0
	call	DWORD PTR ?gEngfuncs@@3Ucl_enginefuncs_s@@A+28
	add	esp, 16					; 00000010H

; 1129 : 				}
; 1130 : 				else

	jmp	$LN31@DrawWList
$LN30@DrawWList:

; 1131 : 				{
; 1132 : 					// Draw Weapon as Red if no ammo
; 1133 : 					if( gWR.HasAmmo( p ))

	mov	eax, DWORD PTR _p$5[ebp]
	push	eax
	mov	ecx, OFFSET ?gWR@@3VWeaponsResource@@A	; gWR
	call	?HasAmmo@WeaponsResource@@QAEHPAUWEAPON@@@Z ; WeaponsResource::HasAmmo
	test	eax, eax
	je	SHORT $LN34@DrawWList

; 1134 : 					{
; 1135 : 						ScaleColors( r, g, b, 192 );

	push	192					; 000000c0H
	lea	eax, DWORD PTR _b$[ebp]
	push	eax
	lea	ecx, DWORD PTR _g$[ebp]
	push	ecx
	lea	edx, DWORD PTR _r$[ebp]
	push	edx
	call	?ScaleColors@@YAXAAH00H@Z		; ScaleColors
	add	esp, 16					; 00000010H

; 1136 : 					}
; 1137 : 					else

	jmp	SHORT $LN35@DrawWList
$LN34@DrawWList:

; 1138 : 					{
; 1139 : 						UnpackRGB( r, g, b, RGB_REDISH );

	push	16715792				; 00ff1010H
	lea	eax, DWORD PTR _b$[ebp]
	push	eax
	lea	ecx, DWORD PTR _g$[ebp]
	push	ecx
	lea	edx, DWORD PTR _r$[ebp]
	push	edx
	call	?UnpackRGB@@YAXAAH00K@Z			; UnpackRGB
	add	esp, 16					; 00000010H

; 1140 : 						ScaleColors( r, g, b, 128 );

	push	128					; 00000080H
	lea	eax, DWORD PTR _b$[ebp]
	push	eax
	lea	ecx, DWORD PTR _g$[ebp]
	push	ecx
	lea	edx, DWORD PTR _r$[ebp]
	push	edx
	call	?ScaleColors@@YAXAAH00H@Z		; ScaleColors
	add	esp, 16					; 00000010H
$LN35@DrawWList:

; 1141 : 					}
; 1142 : 
; 1143 : 					SPR_Set( p->hInactive, r, g, b );

	mov	eax, DWORD PTR _b$[ebp]
	push	eax
	mov	ecx, DWORD PTR _g$[ebp]
	push	ecx
	mov	edx, DWORD PTR _r$[ebp]
	push	edx
	mov	eax, DWORD PTR _p$5[ebp]
	mov	ecx, DWORD PTR [eax+188]
	push	ecx
	call	DWORD PTR ?gEngfuncs@@3Ucl_enginefuncs_s@@A+16
	add	esp, 16					; 00000010H

; 1144 : 					SPR_DrawAdditive( 0, x, y, &p->rcInactive );

	mov	eax, DWORD PTR _p$5[ebp]
	add	eax, 192				; 000000c0H
	push	eax
	mov	ecx, DWORD PTR _y$[ebp]
	push	ecx
	mov	edx, DWORD PTR _x$[ebp]
	push	edx
	push	0
	call	DWORD PTR ?gEngfuncs@@3Ucl_enginefuncs_s@@A+28
	add	esp, 16					; 00000010H
$LN31@DrawWList:

; 1145 : 				}
; 1146 : 
; 1147 : 				// Draw Ammo Bar
; 1148 : 				DrawAmmoBar( p, x + giABWidth / 2, y, giABWidth, giABHeight );

	mov	eax, DWORD PTR ?giABHeight@@3HA		; giABHeight
	push	eax
	mov	ecx, DWORD PTR ?giABWidth@@3HA		; giABWidth
	push	ecx
	mov	edx, DWORD PTR _y$[ebp]
	push	edx
	mov	eax, DWORD PTR ?giABWidth@@3HA		; giABWidth
	cdq
	sub	eax, edx
	sar	eax, 1
	add	eax, DWORD PTR _x$[ebp]
	push	eax
	mov	eax, DWORD PTR _p$5[ebp]
	push	eax
	call	?DrawAmmoBar@@YAXPAUWEAPON@@HHHH@Z	; DrawAmmoBar
	add	esp, 20					; 00000014H

; 1149 : 				y += p->rcActive.bottom - p->rcActive.top + 5;

	mov	eax, DWORD PTR _p$5[ebp]
	mov	ecx, DWORD PTR _p$5[ebp]
	mov	edx, DWORD PTR [eax+184]
	sub	edx, DWORD PTR [ecx+180]
	mov	eax, DWORD PTR _y$[ebp]
	lea	ecx, DWORD PTR [eax+edx+5]
	mov	DWORD PTR _y$[ebp], ecx

; 1150 : 			}

	jmp	$LN8@DrawWList
$LN9@DrawWList:

; 1151 : 
; 1152 : 			x += iWidth + 5;

	mov	eax, DWORD PTR _iWidth$4[ebp]
	mov	ecx, DWORD PTR _x$[ebp]
	lea	edx, DWORD PTR [ecx+eax+5]
	mov	DWORD PTR _x$[ebp], edx

; 1153 : 
; 1154 : 		}
; 1155 : 		else

	jmp	$LN26@DrawWList
$LN25@DrawWList:

; 1156 : 		{
; 1157 : 			// Draw Row of weapons.
; 1158 : 			UnpackRGB( r, g, b, gHUD.m_iHUDColor );

	mov	eax, DWORD PTR ?gHUD@@3VCHud@@A+108
	push	eax
	lea	ecx, DWORD PTR _b$[ebp]
	push	ecx
	lea	edx, DWORD PTR _g$[ebp]
	push	edx
	lea	eax, DWORD PTR _r$[ebp]
	push	eax
	call	?UnpackRGB@@YAXAAH00K@Z			; UnpackRGB
	add	esp, 16					; 00000010H

; 1159 : 
; 1160 : 			for( int iPos = 0; iPos < MAX_WEAPON_POSITIONS; iPos++ )

	mov	DWORD PTR _iPos$2[ebp], 0
	jmp	SHORT $LN13@DrawWList
$LN11@DrawWList:
	mov	eax, DWORD PTR _iPos$2[ebp]
	add	eax, 1
	mov	DWORD PTR _iPos$2[ebp], eax
$LN13@DrawWList:
	cmp	DWORD PTR _iPos$2[ebp], 7
	jge	$LN12@DrawWList

; 1161 : 			{
; 1162 : 				WEAPON *p = gWR.GetWeaponSlot( i, iPos );

	mov	eax, DWORD PTR _iPos$2[ebp]
	push	eax
	mov	ecx, DWORD PTR _i$[ebp]
	push	ecx
	mov	ecx, OFFSET ?gWR@@3VWeaponsResource@@A	; gWR
	call	?GetWeaponSlot@WeaponsResource@@QAEPAUWEAPON@@HH@Z ; WeaponsResource::GetWeaponSlot
	mov	DWORD PTR _p$1[ebp], eax

; 1163 : 				
; 1164 : 				if( !p || !p->iId )

	cmp	DWORD PTR _p$1[ebp], 0
	je	SHORT $LN37@DrawWList
	mov	eax, DWORD PTR _p$1[ebp]
	cmp	DWORD PTR [eax+156], 0
	jne	SHORT $LN36@DrawWList
$LN37@DrawWList:

; 1165 : 					continue;

	jmp	SHORT $LN11@DrawWList
$LN36@DrawWList:

; 1166 : 
; 1167 : 				if( gWR.HasAmmo( p ))

	mov	eax, DWORD PTR _p$1[ebp]
	push	eax
	mov	ecx, OFFSET ?gWR@@3VWeaponsResource@@A	; gWR
	call	?HasAmmo@WeaponsResource@@QAEHPAUWEAPON@@@Z ; WeaponsResource::HasAmmo
	test	eax, eax
	je	SHORT $LN38@DrawWList

; 1168 : 				{
; 1169 : 					UnpackRGB( r, g, b, gHUD.m_iHUDColor );

	mov	eax, DWORD PTR ?gHUD@@3VCHud@@A+108
	push	eax
	lea	ecx, DWORD PTR _b$[ebp]
	push	ecx
	lea	edx, DWORD PTR _g$[ebp]
	push	edx
	lea	eax, DWORD PTR _r$[ebp]
	push	eax
	call	?UnpackRGB@@YAXAAH00K@Z			; UnpackRGB
	add	esp, 16					; 00000010H

; 1170 : 					a = 128;

	mov	DWORD PTR _a$[ebp], 128			; 00000080H

; 1171 : 				}
; 1172 : 				else

	jmp	SHORT $LN39@DrawWList
$LN38@DrawWList:

; 1173 : 				{
; 1174 : 					UnpackRGB( r, g, b, RGB_REDISH );

	push	16715792				; 00ff1010H
	lea	eax, DWORD PTR _b$[ebp]
	push	eax
	lea	ecx, DWORD PTR _g$[ebp]
	push	ecx
	lea	edx, DWORD PTR _r$[ebp]
	push	edx
	call	?UnpackRGB@@YAXAAH00K@Z			; UnpackRGB
	add	esp, 16					; 00000010H

; 1175 : 					a = 96;

	mov	DWORD PTR _a$[ebp], 96			; 00000060H
$LN39@DrawWList:

; 1176 : 				}
; 1177 : 
; 1178 : 				FillRGBA( x, y, giBucketWidth, giBucketHeight, r, g, b, a );

	mov	eax, DWORD PTR _a$[ebp]
	push	eax
	mov	ecx, DWORD PTR _b$[ebp]
	push	ecx
	mov	edx, DWORD PTR _g$[ebp]
	push	edx
	mov	eax, DWORD PTR _r$[ebp]
	push	eax
	mov	ecx, DWORD PTR ?giBucketHeight@@3HA	; giBucketHeight
	push	ecx
	mov	edx, DWORD PTR ?giBucketWidth@@3HA	; giBucketWidth
	push	edx
	mov	eax, DWORD PTR _y$[ebp]
	push	eax
	mov	ecx, DWORD PTR _x$[ebp]
	push	ecx
	call	DWORD PTR ?gEngfuncs@@3Ucl_enginefuncs_s@@A+44
	add	esp, 32					; 00000020H

; 1179 : 				y += giBucketHeight + 5;

	mov	eax, DWORD PTR ?giBucketHeight@@3HA	; giBucketHeight
	mov	ecx, DWORD PTR _y$[ebp]
	lea	edx, DWORD PTR [ecx+eax+5]
	mov	DWORD PTR _y$[ebp], edx

; 1180 : 			}

	jmp	$LN11@DrawWList
$LN12@DrawWList:

; 1181 : 			x += giBucketWidth + 5;

	mov	eax, DWORD PTR ?giBucketWidth@@3HA	; giBucketWidth
	mov	ecx, DWORD PTR _x$[ebp]
	lea	edx, DWORD PTR [ecx+eax+5]
	mov	DWORD PTR _x$[ebp], edx
$LN26@DrawWList:

; 1182 : 		}
; 1183 : 	}	

	jmp	$LN5@DrawWList
$LN6@DrawWList:

; 1184 : 
; 1185 : 	return 1;

	mov	eax, 1
$LN1@DrawWList:

; 1186 : 
; 1187 : }

	pop	edi
	pop	esi
	pop	ebx
	mov	esp, ebp
	pop	ebp
	ret	4
?DrawWList@CHudAmmo@@QAEHM@Z ENDP			; CHudAmmo::DrawWList
_TEXT	ENDS
; Function compile flags: /Odtp /ZI
; File d:\!diffusion 2020\source code 2022\client-server\client\ammo.cpp
;	COMDAT ?Reset@CHudAmmo@@UAEXXZ
_TEXT	SEGMENT
_this$ = -4						; size = 4
?Reset@CHudAmmo@@UAEXXZ PROC				; CHudAmmo::Reset, COMDAT
; _this$ = ecx

; 279  : {

	push	ebp
	mov	ebp, esp
	sub	esp, 68					; 00000044H
	push	ebx
	push	esi
	push	edi
	mov	DWORD PTR _this$[ebp], ecx

; 280  : 	m_fFade = 0;

	mov	eax, DWORD PTR _this$[ebp]
	xorps	xmm0, xmm0
	movss	DWORD PTR [eax+16], xmm0

; 281  : 	m_iFlags |= HUD_ACTIVE; //!!!

	mov	eax, DWORD PTR _this$[ebp]
	mov	ecx, DWORD PTR [eax+4]
	or	ecx, 1
	mov	edx, DWORD PTR _this$[ebp]
	mov	DWORD PTR [edx+4], ecx

; 282  : 
; 283  : 	gpActiveSel = NULL;

	mov	DWORD PTR ?gpActiveSel@@3PAUWEAPON@@A, 0 ; gpActiveSel

; 284  : 	gHUD.m_iHideHUDDisplay = 0;

	mov	DWORD PTR ?gHUD@@3VCHud@@A+76, 0

; 285  : 
; 286  : 	gWR.Reset();

	mov	ecx, OFFSET ?gWR@@3VWeaponsResource@@A	; gWR
	call	?Reset@WeaponsResource@@QAEXXZ		; WeaponsResource::Reset

; 287  : 	gHR.Reset();

	mov	ecx, OFFSET ?gHR@@3VHistoryResource@@A	; gHR
	call	?Reset@HistoryResource@@QAEXXZ		; HistoryResource::Reset

; 288  : 
; 289  : 	AmmoSetCrosshair( 0, nullRc, 0, 0, 0 );	// reset crosshair

	push	0
	push	0
	push	0
	sub	esp, 16					; 00000010H
	mov	eax, esp
	mov	ecx, DWORD PTR ?nullRc@@3Uwrect_s@@A
	mov	DWORD PTR [eax], ecx
	mov	edx, DWORD PTR ?nullRc@@3Uwrect_s@@A+4
	mov	DWORD PTR [eax+4], edx
	mov	ecx, DWORD PTR ?nullRc@@3Uwrect_s@@A+8
	mov	DWORD PTR [eax+8], ecx
	mov	edx, DWORD PTR ?nullRc@@3Uwrect_s@@A+12
	mov	DWORD PTR [eax+12], edx
	push	0
	mov	ecx, DWORD PTR _this$[ebp]
	call	?AmmoSetCrosshair@CHudAmmo@@QAEXHUwrect_s@@HHH@Z ; CHudAmmo::AmmoSetCrosshair

; 290  : 	m_pWeapon = NULL;			// reset last weapon

	mov	eax, DWORD PTR _this$[ebp]
	mov	DWORD PTR [eax+12], 0

; 291  : }

	pop	edi
	pop	esi
	pop	ebx
	mov	esp, ebp
	pop	ebp
	ret	0
?Reset@CHudAmmo@@UAEXXZ ENDP				; CHudAmmo::Reset
_TEXT	ENDS
; Function compile flags: /Odtp /ZI
; File d:\!diffusion 2020\source code 2022\client-server\client\ammo.cpp
;	COMDAT ?Think@CHudAmmo@@UAEXXZ
_TEXT	SEGMENT
tv131 = -80						; size = 4
_p$1 = -12						; size = 4
_i$2 = -8						; size = 4
_this$ = -4						; size = 4
?Think@CHudAmmo@@UAEXXZ PROC				; CHudAmmo::Think, COMDAT
; _this$ = ecx

; 336  : {

	push	ebp
	mov	ebp, esp
	sub	esp, 80					; 00000050H
	push	ebx
	push	esi
	push	edi
	mov	DWORD PTR _this$[ebp], ecx

; 337  : 	if( gHUD.m_fPlayerDead )

	cmp	DWORD PTR ?gHUD@@3VCHud@@A+8972, 0
	je	SHORT $LN7@Think

; 338  : 		return;

	jmp	$LN1@Think
$LN7@Think:

; 339  : 
; 340  : 	if( memcmp( gHUD.m_iWeaponBits, gWR.iOldWeaponBits, MAX_WEAPON_BYTES ))

	push	8
	push	OFFSET ?gWR@@3VWeaponsResource@@A+21352
	push	OFFSET ?gHUD@@3VCHud@@A+8964
	call	_memcmp
	add	esp, 12					; 0000000cH
	test	eax, eax
	je	SHORT $LN3@Think

; 341  : 	{
; 342  : 		memcpy( gWR.iOldWeaponBits, gHUD.m_iWeaponBits, MAX_WEAPON_BYTES );

	push	8
	push	OFFSET ?gHUD@@3VCHud@@A+8964
	push	OFFSET ?gWR@@3VWeaponsResource@@A+21352
	call	_memcpy
	add	esp, 12					; 0000000cH

; 343  : 
; 344  : 		for( int i = MAX_WEAPONS - 1; i > 0; i-- )

	mov	DWORD PTR _i$2[ebp], 63			; 0000003fH
	jmp	SHORT $LN4@Think
$LN2@Think:
	mov	eax, DWORD PTR _i$2[ebp]
	sub	eax, 1
	mov	DWORD PTR _i$2[ebp], eax
$LN4@Think:
	cmp	DWORD PTR _i$2[ebp], 0
	jle	SHORT $LN3@Think

; 345  : 		{
; 346  : 			WEAPON *p = gWR.GetWeapon( i );

	mov	eax, DWORD PTR _i$2[ebp]
	push	eax
	mov	ecx, OFFSET ?gWR@@3VWeaponsResource@@A	; gWR
	call	?GetWeapon@WeaponsResource@@QAEPAUWEAPON@@H@Z ; WeaponsResource::GetWeapon
	mov	DWORD PTR _p$1[ebp], eax

; 347  : 
; 348  : 			if( p )

	cmp	DWORD PTR _p$1[ebp], 0
	je	SHORT $LN11@Think

; 349  : 			{
; 350  : 				if( gHUD.HasWeapon( p->iId ))

	mov	eax, DWORD PTR _p$1[ebp]
	mov	ecx, DWORD PTR [eax+156]
	push	ecx
	mov	ecx, OFFSET ?gHUD@@3VCHud@@A		; gHUD
	call	?HasWeapon@CHud@@QAEHH@Z		; CHud::HasWeapon
	test	eax, eax
	je	SHORT $LN10@Think

; 351  : 					gWR.PickupWeapon( p );

	mov	eax, DWORD PTR _p$1[ebp]
	push	eax
	mov	ecx, OFFSET ?gWR@@3VWeaponsResource@@A	; gWR
	call	?PickupWeapon@WeaponsResource@@QAEXPAUWEAPON@@@Z ; WeaponsResource::PickupWeapon

; 352  : 				else

	jmp	SHORT $LN11@Think
$LN10@Think:

; 353  : 					gWR.DropWeapon( p );

	mov	eax, DWORD PTR _p$1[ebp]
	push	eax
	mov	ecx, OFFSET ?gWR@@3VWeaponsResource@@A	; gWR
	call	?DropWeapon@WeaponsResource@@QAEXPAUWEAPON@@@Z ; WeaponsResource::DropWeapon
$LN11@Think:

; 354  : 			}
; 355  : 		}

	jmp	SHORT $LN2@Think
$LN3@Think:

; 356  : 	}
; 357  : 
; 358  : 	if( !gpActiveSel )

	cmp	DWORD PTR ?gpActiveSel@@3PAUWEAPON@@A, 0 ; gpActiveSel
	jne	SHORT $LN12@Think

; 359  : 		return;

	jmp	$LN1@Think
$LN12@Think:

; 360  : 
; 361  : 	// has the player selected one?
; 362  : 	if( gHUD.m_iKeyBits & IN_ATTACK )

	mov	eax, DWORD PTR ?gHUD@@3VCHud@@A+72
	and	eax, 1
	je	$LN5@Think

; 363  : 	{
; 364  : 		if( gpActiveSel != (WEAPON *)1 )

	cmp	DWORD PTR ?gpActiveSel@@3PAUWEAPON@@A, 1 ; gpActiveSel
	je	SHORT $LN14@Think

; 365  : 		{
; 366  : 			ServerCmd( gpActiveSel->szName );

	mov	eax, DWORD PTR ?gpActiveSel@@3PAUWEAPON@@A ; gpActiveSel
	push	eax
	call	DWORD PTR ?gEngfuncs@@3Ucl_enginefuncs_s@@A+76
	add	esp, 4

; 367  : 			g_weaponselect = gpActiveSel->iId;

	mov	eax, DWORD PTR ?gpActiveSel@@3PAUWEAPON@@A ; gpActiveSel
	mov	ecx, DWORD PTR [eax+156]
	mov	DWORD PTR ?g_weaponselect@@3HA, ecx	; g_weaponselect
$LN14@Think:

; 368  : 		}
; 369  : 
; 370  : 		gpLastSel = gpActiveSel;

	mov	eax, DWORD PTR ?gpActiveSel@@3PAUWEAPON@@A ; gpActiveSel
	mov	DWORD PTR ?gpLastSel@@3PAUWEAPON@@A, eax ; gpLastSel

; 371  : 		gpActiveSel = NULL;

	mov	DWORD PTR ?gpActiveSel@@3PAUWEAPON@@A, 0 ; gpActiveSel

; 372  : 		gHUD.m_iKeyBits &= ~IN_ATTACK;

	mov	eax, DWORD PTR ?gHUD@@3VCHud@@A+72
	and	eax, -2					; fffffffeH
	mov	DWORD PTR ?gHUD@@3VCHud@@A+72, eax

; 373  : 
; 374  : 		switch( RANDOM_LONG( 0, 2 ) ) // diffusion - more sounds

	push	2
	push	0
	call	DWORD PTR ?gEngfuncs@@3Ucl_enginefuncs_s@@A+272
	add	esp, 8
	mov	DWORD PTR tv131[ebp], eax
	cmp	DWORD PTR tv131[ebp], 0
	je	SHORT $LN15@Think
	cmp	DWORD PTR tv131[ebp], 1
	je	SHORT $LN16@Think
	cmp	DWORD PTR tv131[ebp], 2
	je	SHORT $LN17@Think
	jmp	SHORT $LN5@Think
$LN15@Think:

; 375  : 		{
; 376  : 		case 0: PlaySound( "common/wpn_select1.wav", 1 ); break;

	push	ecx
	movss	xmm0, DWORD PTR __real@3f800000
	movss	DWORD PTR [esp], xmm0
	push	OFFSET ??_C@_0BH@NNKMIIKN@common?1wpn_select1?4wav?$AA@
	call	?PlaySoundA@@YAXPADM@Z			; PlaySoundA
	add	esp, 8
	jmp	SHORT $LN5@Think
$LN16@Think:

; 377  : 		case 1: PlaySound( "common/wpn_select2.wav", 1 ); break;

	push	ecx
	movss	xmm0, DWORD PTR __real@3f800000
	movss	DWORD PTR [esp], xmm0
	push	OFFSET ??_C@_0BH@FLDIPKAD@common?1wpn_select2?4wav?$AA@
	call	?PlaySoundA@@YAXPADM@Z			; PlaySoundA
	add	esp, 8
	jmp	SHORT $LN5@Think
$LN17@Think:

; 378  : 		case 2: PlaySound( "common/wpn_select3.wav", 1 ); break;

	push	ecx
	movss	xmm0, DWORD PTR __real@3f800000
	movss	DWORD PTR [esp], xmm0
	push	OFFSET ??_C@_0BH@JAGECJKG@common?1wpn_select3?4wav?$AA@
	call	?PlaySoundA@@YAXPADM@Z			; PlaySoundA
	add	esp, 8
$LN5@Think:
$LN1@Think:

; 379  : 		}
; 380  : 	}
; 381  : 
; 382  : }

	pop	edi
	pop	esi
	pop	ebx
	mov	esp, ebp
	pop	ebp
	ret	0
?Think@CHudAmmo@@UAEXXZ ENDP				; CHudAmmo::Think
_TEXT	ENDS
; Function compile flags: /Odtp /ZI
; File d:\!diffusion 2020\source code 2022\client-server\client\ammo.cpp
;	COMDAT ?Draw@CHudAmmo@@UAEHM@Z
_TEXT	SEGMENT
tv133 = -148						; size = 4
_iOffset$1 = -80					; size = 4
_iIconWidth$2 = -76					; size = 4
_iOffset$3 = -72					; size = 4
_iBarWidth$4 = -68					; size = 4
_rc$5 = -64						; size = 16
_iIconWidth$6 = -48					; size = 4
_iFlags$ = -44						; size = 4
_pw$ = -40						; size = 4
_AmmoWidth$ = -36					; size = 4
_b$ = -32						; size = 4
_g$ = -28						; size = 4
_r$ = -24						; size = 4
_y$ = -20						; size = 4
_x$ = -16						; size = 4
_a$ = -12						; size = 4
_this$ = -8						; size = 4
__$ArrayPad$ = -4					; size = 4
_flTime$ = 8						; size = 4
?Draw@CHudAmmo@@UAEHM@Z PROC				; CHudAmmo::Draw, COMDAT
; _this$ = ecx

; 848  : {

	push	ebp
	mov	ebp, esp
	sub	esp, 148				; 00000094H
	mov	eax, DWORD PTR ___security_cookie
	xor	eax, ebp
	mov	DWORD PTR __$ArrayPad$[ebp], eax
	push	ebx
	push	esi
	push	edi
	mov	DWORD PTR _this$[ebp], ecx

; 849  : 	int a, x, y, r, g, b;
; 850  : 	int AmmoWidth;
; 851  : 
; 852  : 	if( tr.time == tr.oldtime ) // paused

	movsd	xmm0, QWORD PTR ?tr@@3Uref_globals_t@@A+8
	ucomisd	xmm0, QWORD PTR ?tr@@3Uref_globals_t@@A+16
	lahf
	test	ah, 68					; 00000044H
	jp	SHORT $LN2@Draw

; 853  : 		return 1;

	mov	eax, 1
	jmp	$LN1@Draw
$LN2@Draw:

; 854  : 
; 855  : 	if (!gHUD.HasWeapon( WEAPON_SUIT ))

	push	63					; 0000003fH
	mov	ecx, OFFSET ?gHUD@@3VCHud@@A		; gHUD
	call	?HasWeapon@CHud@@QAEHH@Z		; CHud::HasWeapon
	test	eax, eax
	jne	SHORT $LN3@Draw

; 856  : 		return 1;

	mov	eax, 1
	jmp	$LN1@Draw
$LN3@Draw:

; 857  : 
; 858  : 	if(( gHUD.m_iHideHUDDisplay & ( HIDEHUD_WPNS | HIDEHUD_ALL | HIDEHUD_WPNS_HOLDABLEITEM | HIDEHUD_WPNS_CUSTOM)))

	mov	eax, DWORD PTR ?gHUD@@3VCHud@@A+76
	and	eax, 53					; 00000035H
	je	SHORT $LN4@Draw

; 859  : 		return 1;

	mov	eax, 1
	jmp	$LN1@Draw
$LN4@Draw:

; 860  : 
; 861  : 	// Draw Weapon Menu
; 862  : 	DrawWList( flTime );

	push	ecx
	movss	xmm0, DWORD PTR _flTime$[ebp]
	movss	DWORD PTR [esp], xmm0
	mov	ecx, DWORD PTR _this$[ebp]
	call	?DrawWList@CHudAmmo@@QAEHM@Z		; CHudAmmo::DrawWList

; 863  : 
; 864  : 	// Draw ammo pickup history
; 865  : 	gHR.DrawAmmoHistory( flTime );

	push	ecx
	movss	xmm0, DWORD PTR _flTime$[ebp]
	movss	DWORD PTR [esp], xmm0
	mov	ecx, OFFSET ?gHR@@3VHistoryResource@@A	; gHR
	call	?DrawAmmoHistory@HistoryResource@@QAEHM@Z ; HistoryResource::DrawAmmoHistory

; 866  : 
; 867  : 	if( !( m_iFlags & HUD_ACTIVE ))

	mov	eax, DWORD PTR _this$[ebp]
	mov	ecx, DWORD PTR [eax+4]
	and	ecx, 1
	jne	SHORT $LN5@Draw

; 868  : 		return 0;

	xor	eax, eax
	jmp	$LN1@Draw
$LN5@Draw:

; 869  : 
; 870  : 	if( !m_pWeapon )

	mov	eax, DWORD PTR _this$[ebp]
	cmp	DWORD PTR [eax+12], 0
	jne	SHORT $LN6@Draw

; 871  : 		return 0;

	xor	eax, eax
	jmp	$LN1@Draw
$LN6@Draw:

; 872  : 
; 873  : 	WEAPON *pw = m_pWeapon; // shorthand

	mov	eax, DWORD PTR _this$[ebp]
	mov	ecx, DWORD PTR [eax+12]
	mov	DWORD PTR _pw$[ebp], ecx

; 874  : 
; 875  : 	// SPR_Draw Ammo
; 876  : 	if(( pw->iAmmoType < 0 ) && ( pw->iAmmo2Type < 0 ))

	mov	eax, DWORD PTR _pw$[ebp]
	cmp	DWORD PTR [eax+128], 0
	jge	SHORT $LN7@Draw
	mov	eax, DWORD PTR _pw$[ebp]
	cmp	DWORD PTR [eax+132], 0
	jge	SHORT $LN7@Draw

; 877  : 		return 0;

	xor	eax, eax
	jmp	$LN1@Draw
$LN7@Draw:

; 878  : 
; 879  : 	int iFlags = DHN_DRAWZERO; // draw 0 values

	mov	DWORD PTR _iFlags$[ebp], 1

; 880  : 
; 881  : 	AmmoWidth = gHUD.GetSpriteRect( gHUD.m_HUD_number_0 ).right - gHUD.GetSpriteRect( gHUD.m_HUD_number_0 ).left;

	mov	eax, DWORD PTR ?gHUD@@3VCHud@@A+8980
	push	eax
	mov	ecx, OFFSET ?gHUD@@3VCHud@@A		; gHUD
	call	?GetSpriteRect@CHud@@QAEAAUwrect_s@@H@Z	; CHud::GetSpriteRect
	mov	esi, eax
	mov	ecx, DWORD PTR ?gHUD@@3VCHud@@A+8980
	push	ecx
	mov	ecx, OFFSET ?gHUD@@3VCHud@@A		; gHUD
	call	?GetSpriteRect@CHud@@QAEAAUwrect_s@@H@Z	; CHud::GetSpriteRect
	mov	edx, DWORD PTR [esi+4]
	sub	edx, DWORD PTR [eax]
	mov	DWORD PTR _AmmoWidth$[ebp], edx

; 882  : 
; 883  : 	a = (int)max( MIN_ALPHA, m_fFade );

	mov	eax, DWORD PTR _this$[ebp]
	movss	xmm0, DWORD PTR __real@42c80000
	comiss	xmm0, DWORD PTR [eax+16]
	jbe	SHORT $LN15@Draw
	movss	xmm0, DWORD PTR __real@42c80000
	movss	DWORD PTR tv133[ebp], xmm0
	jmp	SHORT $LN16@Draw
$LN15@Draw:
	mov	ecx, DWORD PTR _this$[ebp]
	movss	xmm0, DWORD PTR [ecx+16]
	movss	DWORD PTR tv133[ebp], xmm0
$LN16@Draw:
	cvttss2si edx, DWORD PTR tv133[ebp]
	mov	DWORD PTR _a$[ebp], edx

; 884  : 
; 885  : 	if( m_fFade > 0 )

	mov	eax, DWORD PTR _this$[ebp]
	movss	xmm0, DWORD PTR [eax+16]
	comiss	xmm0, DWORD PTR __real@00000000
	jbe	SHORT $LN8@Draw

; 886  : 		m_fFade -= (gHUD.m_flTimeDelta * 20);

	movsd	xmm0, QWORD PTR ?gHUD@@3VCHud@@A+40
	mulsd	xmm0, QWORD PTR __real@4034000000000000
	mov	eax, DWORD PTR _this$[ebp]
	cvtss2sd xmm1, DWORD PTR [eax+16]
	subsd	xmm1, xmm0
	cvtsd2ss xmm0, xmm1
	mov	ecx, DWORD PTR _this$[ebp]
	movss	DWORD PTR [ecx+16], xmm0
$LN8@Draw:

; 887  : 
; 888  : 	UnpackRGB( r, g, b, gHUD.m_iHUDColor );

	mov	eax, DWORD PTR ?gHUD@@3VCHud@@A+108
	push	eax
	lea	ecx, DWORD PTR _b$[ebp]
	push	ecx
	lea	edx, DWORD PTR _g$[ebp]
	push	edx
	lea	eax, DWORD PTR _r$[ebp]
	push	eax
	call	?UnpackRGB@@YAXAAH00K@Z			; UnpackRGB
	add	esp, 16					; 00000010H

; 889  : 
; 890  : 	ScaleColors( r, g, b, a );

	mov	eax, DWORD PTR _a$[ebp]
	push	eax
	lea	ecx, DWORD PTR _b$[ebp]
	push	ecx
	lea	edx, DWORD PTR _g$[ebp]
	push	edx
	lea	eax, DWORD PTR _r$[ebp]
	push	eax
	call	?ScaleColors@@YAXAAH00H@Z		; ScaleColors
	add	esp, 16					; 00000010H

; 891  : 
; 892  : 	// Does this weapon have a clip?
; 893  : 	y = ScreenHeight - gHUD.m_iFontHeight - gHUD.m_iFontHeight / 2;

	mov	ecx, DWORD PTR ?gHUD@@3VCHud@@A+8440
	sub	ecx, DWORD PTR ?gHUD@@3VCHud@@A+104
	mov	eax, DWORD PTR ?gHUD@@3VCHud@@A+104
	cdq
	sub	eax, edx
	sar	eax, 1
	sub	ecx, eax
	mov	DWORD PTR _y$[ebp], ecx

; 894  : 
; 895  : 	// Does weapon have any ammo at all?
; 896  : 	if( m_pWeapon->iAmmoType > 0 )

	mov	eax, DWORD PTR _this$[ebp]
	mov	ecx, DWORD PTR [eax+12]
	cmp	DWORD PTR [ecx+128], 0
	jle	$LN9@Draw

; 897  : 	{
; 898  : 		int iIconWidth = m_pWeapon->rcAmmo.right - m_pWeapon->rcAmmo.left;

	mov	eax, DWORD PTR _this$[ebp]
	mov	ecx, DWORD PTR [eax+12]
	mov	edx, DWORD PTR _this$[ebp]
	mov	eax, DWORD PTR [edx+12]
	mov	ecx, DWORD PTR [ecx+216]
	sub	ecx, DWORD PTR [eax+212]
	mov	DWORD PTR _iIconWidth$6[ebp], ecx

; 899  : 		
; 900  : 		if( pw->iClip >= 0 )

	mov	eax, DWORD PTR _pw$[ebp]
	cmp	DWORD PTR [eax+160], 0
	jl	$LN10@Draw

; 901  : 		{
; 902  : 			// room for the number and the '|' and the current ammo
; 903  : 			x = ScreenWidth - ( 8 * AmmoWidth ) - iIconWidth;

	mov	eax, DWORD PTR _AmmoWidth$[ebp]
	shl	eax, 3
	mov	ecx, DWORD PTR ?gHUD@@3VCHud@@A+8436
	sub	ecx, eax
	sub	ecx, DWORD PTR _iIconWidth$6[ebp]
	mov	DWORD PTR _x$[ebp], ecx

; 904  : 			x = gHUD.DrawHudNumber( x, y, iFlags | DHN_3DIGITS, pw->iClip, r, g, b );

	mov	eax, DWORD PTR _b$[ebp]
	push	eax
	mov	ecx, DWORD PTR _g$[ebp]
	push	ecx
	mov	edx, DWORD PTR _r$[ebp]
	push	edx
	mov	eax, DWORD PTR _pw$[ebp]
	mov	ecx, DWORD PTR [eax+160]
	push	ecx
	mov	edx, DWORD PTR _iFlags$[ebp]
	or	edx, 4
	push	edx
	mov	eax, DWORD PTR _y$[ebp]
	push	eax
	mov	ecx, DWORD PTR _x$[ebp]
	push	ecx
	mov	ecx, OFFSET ?gHUD@@3VCHud@@A		; gHUD
	call	?DrawHudNumber@CHud@@QAEHHHHHHHH@Z	; CHud::DrawHudNumber
	mov	DWORD PTR _x$[ebp], eax

; 905  : 
; 906  : 			wrect_t rc;
; 907  : 			rc.top = 0;

	mov	DWORD PTR _rc$5[ebp+8], 0

; 908  : 			rc.left = 0;

	mov	DWORD PTR _rc$5[ebp], 0

; 909  : 			rc.right = AmmoWidth;

	mov	eax, DWORD PTR _AmmoWidth$[ebp]
	mov	DWORD PTR _rc$5[ebp+4], eax

; 910  : 			rc.bottom = 100;

	mov	DWORD PTR _rc$5[ebp+12], 100		; 00000064H

; 911  : 
; 912  : 			int iBarWidth =  AmmoWidth / 10;

	mov	eax, DWORD PTR _AmmoWidth$[ebp]
	cdq
	mov	ecx, 10					; 0000000aH
	idiv	ecx
	mov	DWORD PTR _iBarWidth$4[ebp], eax

; 913  : 
; 914  : 			x += AmmoWidth / 2;

	mov	eax, DWORD PTR _AmmoWidth$[ebp]
	cdq
	sub	eax, edx
	sar	eax, 1
	add	eax, DWORD PTR _x$[ebp]
	mov	DWORD PTR _x$[ebp], eax

; 915  : 
; 916  : 			UnpackRGB( r, g, b, gHUD.m_iHUDColor );

	mov	eax, DWORD PTR ?gHUD@@3VCHud@@A+108
	push	eax
	lea	ecx, DWORD PTR _b$[ebp]
	push	ecx
	lea	edx, DWORD PTR _g$[ebp]
	push	edx
	lea	eax, DWORD PTR _r$[ebp]
	push	eax
	call	?UnpackRGB@@YAXAAH00K@Z			; UnpackRGB
	add	esp, 16					; 00000010H

; 917  : 
; 918  : 			// draw the | bar
; 919  : 	//		FillRGBA( x, y, iBarWidth, gHUD.m_iFontHeight, r, g, b, a );
; 920  : 			ScaleColors( r, g, b, a );

	mov	eax, DWORD PTR _a$[ebp]
	push	eax
	lea	ecx, DWORD PTR _b$[ebp]
	push	ecx
	lea	edx, DWORD PTR _g$[ebp]
	push	edx
	lea	eax, DWORD PTR _r$[ebp]
	push	eax
	call	?ScaleColors@@YAXAAH00H@Z		; ScaleColors
	add	esp, 16					; 00000010H

; 921  : 			SPR_Set( gHUD.GetSprite( m_HUD_divider ), r, g, b );

	mov	eax, DWORD PTR _b$[ebp]
	push	eax
	mov	ecx, DWORD PTR _g$[ebp]
	push	ecx
	mov	edx, DWORD PTR _r$[ebp]
	push	edx
	mov	eax, DWORD PTR _this$[ebp]
	mov	ecx, DWORD PTR [eax+28]
	push	ecx
	mov	ecx, OFFSET ?gHUD@@3VCHud@@A		; gHUD
	call	?GetSprite@CHud@@QAEHH@Z		; CHud::GetSprite
	push	eax
	call	DWORD PTR ?gEngfuncs@@3Ucl_enginefuncs_s@@A+16
	add	esp, 16					; 00000010H

; 922  : 			SPR_DrawAdditive( 0, x, y, &gHUD.GetSpriteRect( m_HUD_divider ));

	mov	eax, DWORD PTR _this$[ebp]
	mov	ecx, DWORD PTR [eax+28]
	push	ecx
	mov	ecx, OFFSET ?gHUD@@3VCHud@@A		; gHUD
	call	?GetSpriteRect@CHud@@QAEAAUwrect_s@@H@Z	; CHud::GetSpriteRect
	push	eax
	mov	edx, DWORD PTR _y$[ebp]
	push	edx
	mov	eax, DWORD PTR _x$[ebp]
	push	eax
	push	0
	call	DWORD PTR ?gEngfuncs@@3Ucl_enginefuncs_s@@A+28
	add	esp, 16					; 00000010H

; 923  : 
; 924  : 			x += iBarWidth + AmmoWidth / 2;

	mov	eax, DWORD PTR _AmmoWidth$[ebp]
	cdq
	sub	eax, edx
	sar	eax, 1
	add	eax, DWORD PTR _iBarWidth$4[ebp]
	add	eax, DWORD PTR _x$[ebp]
	mov	DWORD PTR _x$[ebp], eax

; 925  : 
; 926  : 			x = gHUD.DrawHudNumber( x, y, iFlags | DHN_3DIGITS, gWR.CountAmmo( pw->iAmmoType ), r, g, b );		

	mov	eax, DWORD PTR _b$[ebp]
	push	eax
	mov	ecx, DWORD PTR _g$[ebp]
	push	ecx
	mov	edx, DWORD PTR _r$[ebp]
	push	edx
	mov	eax, DWORD PTR _pw$[ebp]
	mov	ecx, DWORD PTR [eax+128]
	push	ecx
	mov	ecx, OFFSET ?gWR@@3VWeaponsResource@@A	; gWR
	call	?CountAmmo@WeaponsResource@@QAEHH@Z	; WeaponsResource::CountAmmo
	push	eax
	mov	edx, DWORD PTR _iFlags$[ebp]
	or	edx, 4
	push	edx
	mov	eax, DWORD PTR _y$[ebp]
	push	eax
	mov	ecx, DWORD PTR _x$[ebp]
	push	ecx
	mov	ecx, OFFSET ?gHUD@@3VCHud@@A		; gHUD
	call	?DrawHudNumber@CHud@@QAEHHHHHHHH@Z	; CHud::DrawHudNumber
	mov	DWORD PTR _x$[ebp], eax

; 927  : 
; 928  : 
; 929  : 		}
; 930  : 		else

	jmp	SHORT $LN11@Draw
$LN10@Draw:

; 931  : 		{
; 932  : 			// SPR_Draw a bullets only line
; 933  : 			x = ScreenWidth - 4 * AmmoWidth - iIconWidth;

	mov	eax, DWORD PTR _AmmoWidth$[ebp]
	shl	eax, 2
	mov	ecx, DWORD PTR ?gHUD@@3VCHud@@A+8436
	sub	ecx, eax
	sub	ecx, DWORD PTR _iIconWidth$6[ebp]
	mov	DWORD PTR _x$[ebp], ecx

; 934  : 			x = gHUD.DrawHudNumber(x, y, iFlags | DHN_3DIGITS, gWR.CountAmmo( pw->iAmmoType ), r, g, b );

	mov	eax, DWORD PTR _b$[ebp]
	push	eax
	mov	ecx, DWORD PTR _g$[ebp]
	push	ecx
	mov	edx, DWORD PTR _r$[ebp]
	push	edx
	mov	eax, DWORD PTR _pw$[ebp]
	mov	ecx, DWORD PTR [eax+128]
	push	ecx
	mov	ecx, OFFSET ?gWR@@3VWeaponsResource@@A	; gWR
	call	?CountAmmo@WeaponsResource@@QAEHH@Z	; WeaponsResource::CountAmmo
	push	eax
	mov	edx, DWORD PTR _iFlags$[ebp]
	or	edx, 4
	push	edx
	mov	eax, DWORD PTR _y$[ebp]
	push	eax
	mov	ecx, DWORD PTR _x$[ebp]
	push	ecx
	mov	ecx, OFFSET ?gHUD@@3VCHud@@A		; gHUD
	call	?DrawHudNumber@CHud@@QAEHHHHHHHH@Z	; CHud::DrawHudNumber
	mov	DWORD PTR _x$[ebp], eax
$LN11@Draw:

; 935  : 		}
; 936  : 
; 937  : 		// Draw the ammo Icon
; 938  : 		int iOffset = ( m_pWeapon->rcAmmo.bottom - m_pWeapon->rcAmmo.top ) / 8;

	mov	eax, DWORD PTR _this$[ebp]
	mov	ecx, DWORD PTR [eax+12]
	mov	edx, DWORD PTR _this$[ebp]
	mov	eax, DWORD PTR [edx+12]
	mov	ecx, DWORD PTR [ecx+224]
	sub	ecx, DWORD PTR [eax+220]
	mov	eax, ecx
	cdq
	and	edx, 7
	add	eax, edx
	sar	eax, 3
	mov	DWORD PTR _iOffset$3[ebp], eax

; 939  : 		SPR_Set( m_pWeapon->hAmmo, r, g, b );

	mov	eax, DWORD PTR _b$[ebp]
	push	eax
	mov	ecx, DWORD PTR _g$[ebp]
	push	ecx
	mov	edx, DWORD PTR _r$[ebp]
	push	edx
	mov	eax, DWORD PTR _this$[ebp]
	mov	ecx, DWORD PTR [eax+12]
	mov	edx, DWORD PTR [ecx+208]
	push	edx
	call	DWORD PTR ?gEngfuncs@@3Ucl_enginefuncs_s@@A+16
	add	esp, 16					; 00000010H

; 940  : 		SPR_DrawAdditive( 0, x, y - iOffset, &m_pWeapon->rcAmmo );

	mov	eax, DWORD PTR _this$[ebp]
	mov	ecx, DWORD PTR [eax+12]
	add	ecx, 212				; 000000d4H
	push	ecx
	mov	edx, DWORD PTR _y$[ebp]
	sub	edx, DWORD PTR _iOffset$3[ebp]
	push	edx
	mov	eax, DWORD PTR _x$[ebp]
	push	eax
	push	0
	call	DWORD PTR ?gEngfuncs@@3Ucl_enginefuncs_s@@A+28
	add	esp, 16					; 00000010H
$LN9@Draw:

; 941  : 	}
; 942  : 
; 943  : 	// Does weapon have secondary ammo?
; 944  : 	if( pw->iAmmo2Type > 0 ) 

	mov	eax, DWORD PTR _pw$[ebp]
	cmp	DWORD PTR [eax+132], 0
	jle	$LN13@Draw

; 945  : 	{
; 946  : 		int iIconWidth = m_pWeapon->rcAmmo2.right - m_pWeapon->rcAmmo2.left;

	mov	eax, DWORD PTR _this$[ebp]
	mov	ecx, DWORD PTR [eax+12]
	mov	edx, DWORD PTR _this$[ebp]
	mov	eax, DWORD PTR [edx+12]
	mov	ecx, DWORD PTR [ecx+236]
	sub	ecx, DWORD PTR [eax+232]
	mov	DWORD PTR _iIconWidth$2[ebp], ecx

; 947  : 
; 948  : 		// Do we have secondary ammo?
; 949  : 		if(( pw->iAmmo2Type != 0 ) && ( gWR.CountAmmo(pw->iAmmo2Type ) > 0))

	mov	eax, DWORD PTR _pw$[ebp]
	cmp	DWORD PTR [eax+132], 0
	je	$LN13@Draw
	mov	eax, DWORD PTR _pw$[ebp]
	mov	ecx, DWORD PTR [eax+132]
	push	ecx
	mov	ecx, OFFSET ?gWR@@3VWeaponsResource@@A	; gWR
	call	?CountAmmo@WeaponsResource@@QAEHH@Z	; WeaponsResource::CountAmmo
	test	eax, eax
	jle	$LN13@Draw

; 950  : 		{
; 951  : 			y -= gHUD.m_iFontHeight + gHUD.m_iFontHeight / 4;

	mov	eax, DWORD PTR ?gHUD@@3VCHud@@A+104
	cdq
	and	edx, 3
	add	eax, edx
	sar	eax, 2
	add	eax, DWORD PTR ?gHUD@@3VCHud@@A+104
	mov	ecx, DWORD PTR _y$[ebp]
	sub	ecx, eax
	mov	DWORD PTR _y$[ebp], ecx

; 952  : 			x = ScreenWidth - 4 * AmmoWidth - iIconWidth;

	mov	eax, DWORD PTR _AmmoWidth$[ebp]
	shl	eax, 2
	mov	ecx, DWORD PTR ?gHUD@@3VCHud@@A+8436
	sub	ecx, eax
	sub	ecx, DWORD PTR _iIconWidth$2[ebp]
	mov	DWORD PTR _x$[ebp], ecx

; 953  : 			x = gHUD.DrawHudNumber( x, y, iFlags|DHN_3DIGITS, gWR.CountAmmo( pw->iAmmo2Type ), r, g, b );

	mov	eax, DWORD PTR _b$[ebp]
	push	eax
	mov	ecx, DWORD PTR _g$[ebp]
	push	ecx
	mov	edx, DWORD PTR _r$[ebp]
	push	edx
	mov	eax, DWORD PTR _pw$[ebp]
	mov	ecx, DWORD PTR [eax+132]
	push	ecx
	mov	ecx, OFFSET ?gWR@@3VWeaponsResource@@A	; gWR
	call	?CountAmmo@WeaponsResource@@QAEHH@Z	; WeaponsResource::CountAmmo
	push	eax
	mov	edx, DWORD PTR _iFlags$[ebp]
	or	edx, 4
	push	edx
	mov	eax, DWORD PTR _y$[ebp]
	push	eax
	mov	ecx, DWORD PTR _x$[ebp]
	push	ecx
	mov	ecx, OFFSET ?gHUD@@3VCHud@@A		; gHUD
	call	?DrawHudNumber@CHud@@QAEHHHHHHHH@Z	; CHud::DrawHudNumber
	mov	DWORD PTR _x$[ebp], eax

; 954  : 
; 955  : 			// Draw the ammo Icon
; 956  : 			SPR_Set( m_pWeapon->hAmmo2, r, g, b );

	mov	eax, DWORD PTR _b$[ebp]
	push	eax
	mov	ecx, DWORD PTR _g$[ebp]
	push	ecx
	mov	edx, DWORD PTR _r$[ebp]
	push	edx
	mov	eax, DWORD PTR _this$[ebp]
	mov	ecx, DWORD PTR [eax+12]
	mov	edx, DWORD PTR [ecx+228]
	push	edx
	call	DWORD PTR ?gEngfuncs@@3Ucl_enginefuncs_s@@A+16
	add	esp, 16					; 00000010H

; 957  : 			int iOffset = ( m_pWeapon->rcAmmo2.bottom - m_pWeapon->rcAmmo2.top ) / 8;

	mov	eax, DWORD PTR _this$[ebp]
	mov	ecx, DWORD PTR [eax+12]
	mov	edx, DWORD PTR _this$[ebp]
	mov	eax, DWORD PTR [edx+12]
	mov	ecx, DWORD PTR [ecx+244]
	sub	ecx, DWORD PTR [eax+240]
	mov	eax, ecx
	cdq
	and	edx, 7
	add	eax, edx
	sar	eax, 3
	mov	DWORD PTR _iOffset$1[ebp], eax

; 958  : 			SPR_DrawAdditive( 0, x, y - iOffset, &m_pWeapon->rcAmmo2 );

	mov	eax, DWORD PTR _this$[ebp]
	mov	ecx, DWORD PTR [eax+12]
	add	ecx, 232				; 000000e8H
	push	ecx
	mov	edx, DWORD PTR _y$[ebp]
	sub	edx, DWORD PTR _iOffset$1[ebp]
	push	edx
	mov	eax, DWORD PTR _x$[ebp]
	push	eax
	push	0
	call	DWORD PTR ?gEngfuncs@@3Ucl_enginefuncs_s@@A+28
	add	esp, 16					; 00000010H
$LN13@Draw:

; 959  : 		}
; 960  : 	}
; 961  : 	return 1;

	mov	eax, 1
$LN1@Draw:

; 962  : }

	pop	edi
	pop	esi
	pop	ebx
	mov	ecx, DWORD PTR __$ArrayPad$[ebp]
	xor	ecx, ebp
	call	@__security_check_cookie@4
	mov	esp, ebp
	pop	ebp
	ret	4
?Draw@CHudAmmo@@UAEHM@Z ENDP				; CHudAmmo::Draw
_TEXT	ENDS
; Function compile flags: /Odtp /ZI
; File d:\!diffusion 2020\source code 2022\client-server\client\ammo.cpp
;	COMDAT ?VidInit@CHudAmmo@@UAEHXZ
_TEXT	SEGMENT
tv157 = -72						; size = 4
_this$ = -4						; size = 4
?VidInit@CHudAmmo@@UAEHXZ PROC				; CHudAmmo::VidInit, COMDAT
; _this$ = ecx

; 302  : {

	push	ebp
	mov	ebp, esp
	sub	esp, 72					; 00000048H
	push	ebx
	push	esi
	push	edi
	mov	DWORD PTR _this$[ebp], ecx

; 303  : 	// Load sprites for buckets (top row of weapon menu)
; 304  : 	m_HUD_bucket0 = gHUD.GetSpriteIndex( "bucket1" );

	push	OFFSET ??_C@_07EPJMIDHL@bucket1?$AA@
	mov	ecx, OFFSET ?gHUD@@3VCHud@@A		; gHUD
	call	?GetSpriteIndex@CHud@@QAEHPBD@Z		; CHud::GetSpriteIndex
	mov	ecx, DWORD PTR _this$[ebp]
	mov	DWORD PTR [ecx+20], eax

; 305  : 	m_HUD_selection = gHUD.GetSpriteIndex( "selection" );

	push	OFFSET ??_C@_09DFNMPCAJ@selection?$AA@
	mov	ecx, OFFSET ?gHUD@@3VCHud@@A		; gHUD
	call	?GetSpriteIndex@CHud@@QAEHPBD@Z		; CHud::GetSpriteIndex
	mov	ecx, DWORD PTR _this$[ebp]
	mov	DWORD PTR [ecx+24], eax

; 306  : 	m_HUD_divider = gHUD.GetSpriteIndex( "divider" );

	push	OFFSET ??_C@_07HOFKAOOK@divider?$AA@
	mov	ecx, OFFSET ?gHUD@@3VCHud@@A		; gHUD
	call	?GetSpriteIndex@CHud@@QAEHPBD@Z		; CHud::GetSpriteIndex
	mov	ecx, DWORD PTR _this$[ebp]
	mov	DWORD PTR [ecx+28], eax

; 307  : 
; 308  : 	ghsprBuckets = gHUD.GetSprite( m_HUD_bucket0 );

	mov	eax, DWORD PTR _this$[ebp]
	mov	ecx, DWORD PTR [eax+20]
	push	ecx
	mov	ecx, OFFSET ?gHUD@@3VCHud@@A		; gHUD
	call	?GetSprite@CHud@@QAEHH@Z		; CHud::GetSprite
	mov	DWORD PTR ?ghsprBuckets@@3HA, eax	; ghsprBuckets

; 309  : 	giBucketWidth = gHUD.GetSpriteRect( m_HUD_bucket0 ).right - gHUD.GetSpriteRect( m_HUD_bucket0 ).left;

	mov	eax, DWORD PTR _this$[ebp]
	mov	ecx, DWORD PTR [eax+20]
	push	ecx
	mov	ecx, OFFSET ?gHUD@@3VCHud@@A		; gHUD
	call	?GetSpriteRect@CHud@@QAEAAUwrect_s@@H@Z	; CHud::GetSpriteRect
	mov	esi, eax
	mov	edx, DWORD PTR _this$[ebp]
	mov	eax, DWORD PTR [edx+20]
	push	eax
	mov	ecx, OFFSET ?gHUD@@3VCHud@@A		; gHUD
	call	?GetSpriteRect@CHud@@QAEAAUwrect_s@@H@Z	; CHud::GetSpriteRect
	mov	ecx, DWORD PTR [esi+4]
	sub	ecx, DWORD PTR [eax]
	mov	DWORD PTR ?giBucketWidth@@3HA, ecx	; giBucketWidth

; 310  : 	giBucketHeight = gHUD.GetSpriteRect( m_HUD_bucket0 ).bottom - gHUD.GetSpriteRect( m_HUD_bucket0 ).top;

	mov	eax, DWORD PTR _this$[ebp]
	mov	ecx, DWORD PTR [eax+20]
	push	ecx
	mov	ecx, OFFSET ?gHUD@@3VCHud@@A		; gHUD
	call	?GetSpriteRect@CHud@@QAEAAUwrect_s@@H@Z	; CHud::GetSpriteRect
	mov	esi, eax
	mov	edx, DWORD PTR _this$[ebp]
	mov	eax, DWORD PTR [edx+20]
	push	eax
	mov	ecx, OFFSET ?gHUD@@3VCHud@@A		; gHUD
	call	?GetSpriteRect@CHud@@QAEAAUwrect_s@@H@Z	; CHud::GetSpriteRect
	mov	ecx, DWORD PTR [esi+12]
	sub	ecx, DWORD PTR [eax+8]
	mov	DWORD PTR ?giBucketHeight@@3HA, ecx	; giBucketHeight

; 311  : 
; 312  : 	gHR.iHistoryGap = max( gHR.iHistoryGap, gHUD.GetSpriteRect( m_HUD_bucket0 ).bottom - gHUD.GetSpriteRect( m_HUD_bucket0 ).top );

	mov	eax, DWORD PTR _this$[ebp]
	mov	ecx, DWORD PTR [eax+20]
	push	ecx
	mov	ecx, OFFSET ?gHUD@@3VCHud@@A		; gHUD
	call	?GetSpriteRect@CHud@@QAEAAUwrect_s@@H@Z	; CHud::GetSpriteRect
	mov	esi, eax
	mov	edx, DWORD PTR _this$[ebp]
	mov	eax, DWORD PTR [edx+20]
	push	eax
	mov	ecx, OFFSET ?gHUD@@3VCHud@@A		; gHUD
	call	?GetSpriteRect@CHud@@QAEAAUwrect_s@@H@Z	; CHud::GetSpriteRect
	mov	ecx, DWORD PTR [esi+12]
	sub	ecx, DWORD PTR [eax+8]
	cmp	DWORD PTR ?gHR@@3VHistoryResource@@A+192, ecx
	jle	SHORT $LN5@VidInit
	mov	edx, DWORD PTR ?gHR@@3VHistoryResource@@A+192
	mov	DWORD PTR tv157[ebp], edx
	jmp	SHORT $LN6@VidInit
$LN5@VidInit:
	mov	eax, DWORD PTR _this$[ebp]
	mov	ecx, DWORD PTR [eax+20]
	push	ecx
	mov	ecx, OFFSET ?gHUD@@3VCHud@@A		; gHUD
	call	?GetSpriteRect@CHud@@QAEAAUwrect_s@@H@Z	; CHud::GetSpriteRect
	mov	esi, eax
	mov	edx, DWORD PTR _this$[ebp]
	mov	eax, DWORD PTR [edx+20]
	push	eax
	mov	ecx, OFFSET ?gHUD@@3VCHud@@A		; gHUD
	call	?GetSpriteRect@CHud@@QAEAAUwrect_s@@H@Z	; CHud::GetSpriteRect
	mov	ecx, DWORD PTR [esi+12]
	sub	ecx, DWORD PTR [eax+8]
	mov	DWORD PTR tv157[ebp], ecx
$LN6@VidInit:
	mov	edx, DWORD PTR tv157[ebp]
	mov	DWORD PTR ?gHR@@3VHistoryResource@@A+192, edx

; 313  : 
; 314  : 	// If we've already loaded weapons, let's get new sprites
; 315  : 	gWR.LoadAllWeaponSprites();

	mov	ecx, OFFSET ?gWR@@3VWeaponsResource@@A	; gWR
	call	?LoadAllWeaponSprites@WeaponsResource@@QAEXXZ ; WeaponsResource::LoadAllWeaponSprites

; 316  : 
; 317  : 	if( ScreenWidth >= 640 )

	cmp	DWORD PTR ?gHUD@@3VCHud@@A+8436, 640	; 00000280H
	jl	SHORT $LN2@VidInit

; 318  : 	{
; 319  : 		giABWidth = 20;

	mov	DWORD PTR ?giABWidth@@3HA, 20		; giABWidth, 00000014H

; 320  : 		giABHeight = 4;

	mov	DWORD PTR ?giABHeight@@3HA, 4		; giABHeight

; 321  : 	}
; 322  : 	else

	jmp	SHORT $LN3@VidInit
$LN2@VidInit:

; 323  : 	{
; 324  : 		giABWidth = 10;

	mov	DWORD PTR ?giABWidth@@3HA, 10		; giABWidth, 0000000aH

; 325  : 		giABHeight = 2;

	mov	DWORD PTR ?giABHeight@@3HA, 2		; giABHeight
$LN3@VidInit:

; 326  : 	}
; 327  : 
; 328  : 	return 1;

	mov	eax, 1

; 329  : }

	pop	edi
	pop	esi
	pop	ebx
	mov	esp, ebp
	pop	ebp
	ret	0
?VidInit@CHudAmmo@@UAEHXZ ENDP				; CHudAmmo::VidInit
_TEXT	ENDS
; Function compile flags: /Odtp /ZI
; File d:\!diffusion 2020\source code 2022\client-server\client\ammo.cpp
;	COMDAT ?Init@CHudAmmo@@UAEHXZ
_TEXT	SEGMENT
_this$ = -4						; size = 4
?Init@CHudAmmo@@UAEHXZ PROC				; CHudAmmo::Init, COMDAT
; _this$ = ecx

; 238  : {

	push	ebp
	mov	ebp, esp
	sub	esp, 68					; 00000044H
	push	ebx
	push	esi
	push	edi
	mov	DWORD PTR _this$[ebp], ecx

; 239  : 	gHUD.AddHudElem( this );

	mov	eax, DWORD PTR _this$[ebp]
	push	eax
	mov	ecx, OFFSET ?gHUD@@3VCHud@@A		; gHUD
	call	?AddHudElem@CHud@@QAEXPAVCHudBase@@@Z	; CHud::AddHudElem

; 240  : 
; 241  : 	HOOK_MESSAGE( CurWeapon );

	push	OFFSET ?__MsgFunc_CurWeapon@@YAHPBDHPAX@Z ; __MsgFunc_CurWeapon
	push	OFFSET ??_C@_09PEGKEGNI@CurWeapon?$AA@
	call	DWORD PTR ?gEngfuncs@@3Ucl_enginefuncs_s@@A+72
	add	esp, 8

; 242  : 	HOOK_MESSAGE( WeaponList );

	push	OFFSET ?__MsgFunc_WeaponList@@YAHPBDHPAX@Z ; __MsgFunc_WeaponList
	push	OFFSET ??_C@_0L@JMLCHIOL@WeaponList?$AA@
	call	DWORD PTR ?gEngfuncs@@3Ucl_enginefuncs_s@@A+72
	add	esp, 8

; 243  : 	HOOK_MESSAGE( AmmoPickup );

	push	OFFSET ?__MsgFunc_AmmoPickup@@YAHPBDHPAX@Z ; __MsgFunc_AmmoPickup
	push	OFFSET ??_C@_0L@EANOMKOP@AmmoPickup?$AA@
	call	DWORD PTR ?gEngfuncs@@3Ucl_enginefuncs_s@@A+72
	add	esp, 8

; 244  : 	HOOK_MESSAGE( WeapPickup );

	push	OFFSET ?__MsgFunc_WeapPickup@@YAHPBDHPAX@Z ; __MsgFunc_WeapPickup
	push	OFFSET ??_C@_0L@FGOFFEAA@WeapPickup?$AA@
	call	DWORD PTR ?gEngfuncs@@3Ucl_enginefuncs_s@@A+72
	add	esp, 8

; 245  : 	HOOK_MESSAGE( ItemPickup );

	push	OFFSET ?__MsgFunc_ItemPickup@@YAHPBDHPAX@Z ; __MsgFunc_ItemPickup
	push	OFFSET ??_C@_0L@NIFLCEON@ItemPickup?$AA@
	call	DWORD PTR ?gEngfuncs@@3Ucl_enginefuncs_s@@A+72
	add	esp, 8

; 246  : 	HOOK_MESSAGE( HideWeapon );

	push	OFFSET ?__MsgFunc_HideWeapon@@YAHPBDHPAX@Z ; __MsgFunc_HideWeapon
	push	OFFSET ??_C@_0L@IFFGJKPB@HideWeapon?$AA@
	call	DWORD PTR ?gEngfuncs@@3Ucl_enginefuncs_s@@A+72
	add	esp, 8

; 247  : 	HOOK_MESSAGE( AmmoX );

	push	OFFSET ?__MsgFunc_AmmoX@@YAHPBDHPAX@Z	; __MsgFunc_AmmoX
	push	OFFSET ??_C@_05BDDOEAPG@AmmoX?$AA@
	call	DWORD PTR ?gEngfuncs@@3Ucl_enginefuncs_s@@A+72
	add	esp, 8

; 248  : 
; 249  : 	HOOK_COMMAND( "slot1", Slot1 );

	push	OFFSET ?__CmdFunc_Slot1@@YAXXZ		; __CmdFunc_Slot1
	push	OFFSET ??_C@_05GJKJJLBE@slot1?$AA@
	call	DWORD PTR ?gEngfuncs@@3Ucl_enginefuncs_s@@A+68
	add	esp, 8

; 250  : 	HOOK_COMMAND( "slot2", Slot2 );

	push	OFFSET ?__CmdFunc_Slot2@@YAXXZ		; __CmdFunc_Slot2
	push	OFFSET ??_C@_05ECIEMINH@slot2?$AA@
	call	DWORD PTR ?gEngfuncs@@3Ucl_enginefuncs_s@@A+68
	add	esp, 8

; 251  : 	HOOK_COMMAND( "slot3", Slot3 );

	push	OFFSET ?__CmdFunc_Slot3@@YAXXZ		; __CmdFunc_Slot3
	push	OFFSET ??_C@_05FLJPPJJG@slot3?$AA@
	call	DWORD PTR ?gEngfuncs@@3Ucl_enginefuncs_s@@A+68
	add	esp, 8

; 252  : 	HOOK_COMMAND( "slot4", Slot4 );

	push	OFFSET ?__CmdFunc_Slot4@@YAXXZ		; __CmdFunc_Slot4
	push	OFFSET ??_C@_05BENOGPFB@slot4?$AA@
	call	DWORD PTR ?gEngfuncs@@3Ucl_enginefuncs_s@@A+68
	add	esp, 8

; 253  : 	HOOK_COMMAND( "slot5", Slot5 );

	push	OFFSET ?__CmdFunc_Slot5@@YAXXZ		; __CmdFunc_Slot5
	push	OFFSET ??_C@_05NMFFOBA@slot5?$AA@
	call	DWORD PTR ?gEngfuncs@@3Ucl_enginefuncs_s@@A+68
	add	esp, 8

; 254  : 	HOOK_COMMAND( "slot6", Slot6 );

	push	OFFSET ?__CmdFunc_Slot6@@YAXXZ		; __CmdFunc_Slot6
	push	OFFSET ??_C@_05CGOIANND@slot6?$AA@
	call	DWORD PTR ?gEngfuncs@@3Ucl_enginefuncs_s@@A+68
	add	esp, 8

; 255  : 	HOOK_COMMAND( "slot7", Slot7 );

	push	OFFSET ?__CmdFunc_Slot7@@YAXXZ		; __CmdFunc_Slot7
	push	OFFSET ??_C@_05DPPDDMJC@slot7?$AA@
	call	DWORD PTR ?gEngfuncs@@3Ucl_enginefuncs_s@@A+68
	add	esp, 8

; 256  : 	HOOK_COMMAND( "slot8", Slot8 );

	push	OFFSET ?__CmdFunc_Slot8@@YAXXZ		; __CmdFunc_Slot8
	push	OFFSET ??_C@_05LIGLCAFN@slot8?$AA@
	call	DWORD PTR ?gEngfuncs@@3Ucl_enginefuncs_s@@A+68
	add	esp, 8

; 257  : 	HOOK_COMMAND( "slot9", Slot9 );

	push	OFFSET ?__CmdFunc_Slot9@@YAXXZ		; __CmdFunc_Slot9
	push	OFFSET ??_C@_05KBHABBBM@slot9?$AA@
	call	DWORD PTR ?gEngfuncs@@3Ucl_enginefuncs_s@@A+68
	add	esp, 8

; 258  : 	HOOK_COMMAND( "slot10", Slot10 );

	push	OFFSET ?__CmdFunc_Slot10@@YAXXZ		; __CmdFunc_Slot10
	push	OFFSET ??_C@_06MFPFELBF@slot10?$AA@
	call	DWORD PTR ?gEngfuncs@@3Ucl_enginefuncs_s@@A+68
	add	esp, 8

; 259  : 	HOOK_COMMAND( "cancelselect", Close );

	push	OFFSET ?__CmdFunc_Close@@YAXXZ		; __CmdFunc_Close
	push	OFFSET ??_C@_0N@INMGFMHB@cancelselect?$AA@
	call	DWORD PTR ?gEngfuncs@@3Ucl_enginefuncs_s@@A+68
	add	esp, 8

; 260  : 	HOOK_COMMAND( "invnext", NextWeapon );

	push	OFFSET ?__CmdFunc_NextWeapon@@YAXXZ	; __CmdFunc_NextWeapon
	push	OFFSET ??_C@_07GIMAAJGF@invnext?$AA@
	call	DWORD PTR ?gEngfuncs@@3Ucl_enginefuncs_s@@A+68
	add	esp, 8

; 261  : 	HOOK_COMMAND( "invprev", PrevWeapon );

	push	OFFSET ?__CmdFunc_PrevWeapon@@YAXXZ	; __CmdFunc_PrevWeapon
	push	OFFSET ??_C@_07FMBGBNAB@invprev?$AA@
	call	DWORD PTR ?gEngfuncs@@3Ucl_enginefuncs_s@@A+68
	add	esp, 8

; 262  : 
; 263  : 	Reset();

	mov	eax, DWORD PTR _this$[ebp]
	mov	edx, DWORD PTR [eax]
	mov	ecx, DWORD PTR _this$[ebp]
	mov	eax, DWORD PTR [edx+20]
	call	eax

; 264  : 
; 265  : 	CVAR_REGISTER( "hud_drawhistory_time", HISTORY_DRAW_TIME, 0 );

	push	0
	push	OFFSET ??_C@_01BMBHCPLG@5?$AA@
	push	OFFSET ??_C@_0BF@FCIGCOBI@hud_drawhistory_time?$AA@
	call	DWORD PTR ?gEngfuncs@@3Ucl_enginefuncs_s@@A+56
	add	esp, 12					; 0000000cH

; 266  : 
; 267  : 	// controls whether or not weapons can be selected in one keypress
; 268  : 	CVAR_REGISTER( "hud_fastswitch", "0", FCVAR_ARCHIVE );

	push	1
	push	OFFSET ??_C@_01GBGANLPD@0?$AA@
	push	OFFSET ??_C@_0P@HAOPMPEA@hud_fastswitch?$AA@
	call	DWORD PTR ?gEngfuncs@@3Ucl_enginefuncs_s@@A+56
	add	esp, 12					; 0000000cH

; 269  : 
; 270  : 	m_iFlags |= HUD_ACTIVE; //!!!

	mov	eax, DWORD PTR _this$[ebp]
	mov	ecx, DWORD PTR [eax+4]
	or	ecx, 1
	mov	edx, DWORD PTR _this$[ebp]
	mov	DWORD PTR [edx+4], ecx

; 271  : 
; 272  : 	gWR.Init();

	mov	ecx, OFFSET ?gWR@@3VWeaponsResource@@A	; gWR
	call	?Init@WeaponsResource@@QAEXXZ		; WeaponsResource::Init

; 273  : 	gHR.Init();

	mov	ecx, OFFSET ?gHR@@3VHistoryResource@@A	; gHR
	call	?Init@HistoryResource@@QAEXXZ		; HistoryResource::Init

; 274  : 
; 275  : 	return 1;

	mov	eax, 1

; 276  : }

	pop	edi
	pop	esi
	pop	ebx
	mov	esp, ebp
	pop	ebp
	ret	0
?Init@CHudAmmo@@UAEHXZ ENDP				; CHudAmmo::Init
_TEXT	ENDS
; Function compile flags: /Odtp /ZI
; File d:\!diffusion 2020\source code 2022\client-server\client\enginecallback.h
;	COMDAT ?PlaySoundA@@YAXPADM@Z
_TEXT	SEGMENT
_szSound$ = 8						; size = 4
_vol$ = 12						; size = 4
?PlaySoundA@@YAXPADM@Z PROC				; PlaySoundA, COMDAT

; 75   : inline void PlaySound( char *szSound, float vol ) { gEngfuncs.pfnPlaySoundByName( szSound, vol ); }

	push	ebp
	mov	ebp, esp
	sub	esp, 64					; 00000040H
	push	ebx
	push	esi
	push	edi
	push	ecx
	movss	xmm0, DWORD PTR _vol$[ebp]
	movss	DWORD PTR [esp], xmm0
	mov	eax, DWORD PTR _szSound$[ebp]
	push	eax
	call	DWORD PTR ?gEngfuncs@@3Ucl_enginefuncs_s@@A+88
	add	esp, 8
	pop	edi
	pop	esi
	pop	ebx
	mov	esp, ebp
	pop	ebp
	ret	0
?PlaySoundA@@YAXPADM@Z ENDP				; PlaySoundA
_TEXT	ENDS
; Function compile flags: /Odtp /ZI
;	COMDAT ??__G@YGXPAX0IIP6EPAX00@Z@Z
_TEXT	SEGMENT
tv66 = -68						; size = 4
___t$ = 8						; size = 4
___u$ = 12						; size = 4
___s$ = 16						; size = 4
___n$ = 20						; size = 4
___f$ = 24						; size = 4
??__G@YGXPAX0IIP6EPAX00@Z@Z PROC			; `vector copy constructor iterator', COMDAT
	push	ebp
	mov	ebp, esp
	sub	esp, 68					; 00000044H
	push	ebx
	push	esi
	push	edi
$LN2@vector:
	mov	eax, DWORD PTR ___n$[ebp]
	mov	DWORD PTR tv66[ebp], eax
	mov	ecx, DWORD PTR ___n$[ebp]
	sub	ecx, 1
	mov	DWORD PTR ___n$[ebp], ecx
	cmp	DWORD PTR tv66[ebp], 0
	jbe	SHORT $LN1@vector
	mov	eax, DWORD PTR ___u$[ebp]
	push	eax
	mov	ecx, DWORD PTR ___t$[ebp]
	call	DWORD PTR ___f$[ebp]
	mov	eax, DWORD PTR ___t$[ebp]
	add	eax, DWORD PTR ___s$[ebp]
	mov	DWORD PTR ___t$[ebp], eax
	mov	eax, DWORD PTR ___u$[ebp]
	add	eax, DWORD PTR ___s$[ebp]
	mov	DWORD PTR ___u$[ebp], eax
	jmp	SHORT $LN2@vector
$LN1@vector:
	pop	edi
	pop	esi
	pop	ebx
	mov	esp, ebp
	pop	ebp
	ret	20					; 00000014H
??__G@YGXPAX0IIP6EPAX00@Z@Z ENDP			; `vector copy constructor iterator'
_TEXT	ENDS
; Function compile flags: /Odtp /ZI
;	COMDAT ??_H@YGXPAXIIP6EPAX0@Z@Z
_TEXT	SEGMENT
tv66 = -68						; size = 4
___t$ = 8						; size = 4
___s$ = 12						; size = 4
___n$ = 16						; size = 4
___f$ = 20						; size = 4
??_H@YGXPAXIIP6EPAX0@Z@Z PROC				; `vector constructor iterator', COMDAT
	push	ebp
	mov	ebp, esp
	sub	esp, 68					; 00000044H
	push	ebx
	push	esi
	push	edi
$LN2@vector:
	mov	eax, DWORD PTR ___n$[ebp]
	mov	DWORD PTR tv66[ebp], eax
	mov	ecx, DWORD PTR ___n$[ebp]
	sub	ecx, 1
	mov	DWORD PTR ___n$[ebp], ecx
	cmp	DWORD PTR tv66[ebp], 0
	jbe	SHORT $LN1@vector
	mov	ecx, DWORD PTR ___t$[ebp]
	call	DWORD PTR ___f$[ebp]
	mov	eax, DWORD PTR ___t$[ebp]
	add	eax, DWORD PTR ___s$[ebp]
	mov	DWORD PTR ___t$[ebp], eax
	jmp	SHORT $LN2@vector
$LN1@vector:
	pop	edi
	pop	esi
	pop	ebx
	mov	esp, ebp
	pop	ebp
	ret	16					; 00000010H
??_H@YGXPAXIIP6EPAX0@Z@Z ENDP				; `vector constructor iterator'
_TEXT	ENDS
END
