; Listing generated by Microsoft (R) Optimizing Compiler Version 19.00.24247.2 

	TITLE	D:\!DIFFUSION 2020\source code 2022\client-server\game_shared\bone_setup.cpp
	.686P
	.XMM
	include listing.inc
	.model	flat

INCLUDELIB LIBCMT
INCLUDELIB OLDNAMES

PUBLIC	??_H@YGXPAXIIP6EPAX0@Z@Z			; `vector constructor iterator'
PUBLIC	??__G@YGXPAX0IIP6EPAX00@Z@Z			; `vector copy constructor iterator'
PUBLIC	??0Vector@@QAE@XZ				; Vector::Vector
PUBLIC	??0Vector@@QAE@MMM@Z				; Vector::Vector
PUBLIC	??0Vector@@QAE@ABV0@@Z				; Vector::Vector
PUBLIC	??0Vector@@QAE@QAM@Z				; Vector::Vector
PUBLIC	?Init@Vector@@QAEXMMM@Z				; Vector::Init
PUBLIC	??8Vector@@QBEHABV0@@Z				; Vector::operator==
PUBLIC	??9Vector@@QBEHABV0@@Z				; Vector::operator!=
PUBLIC	??HVector@@QBE?AV0@ABV0@@Z			; Vector::operator+
PUBLIC	??GVector@@QBE?AV0@ABV0@@Z			; Vector::operator-
PUBLIC	??DVector@@QBE?AV0@M@Z				; Vector::operator*
PUBLIC	??XVector@@QAEAAV0@M@Z				; Vector::operator*=
PUBLIC	?Length@Vector@@QBEMXZ				; Vector::Length
PUBLIC	?LengthSqr@Vector@@QBEMXZ			; Vector::LengthSqr
PUBLIC	??BVector@@QAEPAMXZ				; Vector::operator float *
PUBLIC	??BVector@@QBEPBMXZ				; Vector::operator float const *
PUBLIC	?Normalize@Vector@@QBE?AV1@XZ			; Vector::Normalize
PUBLIC	??D@YA?AVVector@@MABV0@@Z			; operator*
PUBLIC	?CrossProduct@@YA?AVVector@@ABV1@0@Z		; CrossProduct
PUBLIC	??0Vector4D@@QAE@XZ				; Vector4D::Vector4D
PUBLIC	??0Vector4D@@QAE@MMMM@Z				; Vector4D::Vector4D
PUBLIC	??0Vector4D@@QAE@ABV0@@Z			; Vector4D::Vector4D
PUBLIC	?Init@Vector4D@@QAEXMMMM@Z			; Vector4D::Init
PUBLIC	?Length@Vector4D@@QBEMXZ			; Vector4D::Length
PUBLIC	?Normalize@Vector4D@@QBE?AV1@XZ			; Vector4D::Normalize
PUBLIC	??0Radian@@QAE@XZ				; Radian::Radian
PUBLIC	??0Radian@@QAE@MMM@Z				; Radian::Radian
PUBLIC	?Init@Radian@@QAEXMMM@Z				; Radian::Init
PUBLIC	??BRadian@@QAEPAMXZ				; Radian::operator float *
PUBLIC	??8Radian@@QBEHABV0@@Z				; Radian::operator==
PUBLIC	??9Radian@@QBEHABV0@@Z				; Radian::operator!=
PUBLIC	??0matrix3x4@@QAE@ABVVector@@ABVVector4D@@@Z	; matrix3x4::matrix3x4
PUBLIC	??Amatrix3x4@@QAEPAMH@Z				; matrix3x4::operator[]
PUBLIC	?GetUp@matrix3x4@@QBE?AVVector@@XZ		; matrix3x4::GetUp
PUBLIC	?GetOrigin@matrix3x4@@QBE?AVVector@@XZ		; matrix3x4::GetOrigin
PUBLIC	?SetForward@matrix3x4@@QAEXABVVector@@@Z	; matrix3x4::SetForward
PUBLIC	?SetRight@matrix3x4@@QAEXABVVector@@@Z		; matrix3x4::SetRight
PUBLIC	?SetUp@matrix3x4@@QAEXABVVector@@@Z		; matrix3x4::SetUp
PUBLIC	??0matrix3x4@@QAE@ABV0@@Z			; matrix3x4::matrix3x4
PUBLIC	?SimpleSpline@@YAMM@Z				; SimpleSpline
PUBLIC	?pAnimvalue@CStudioBoneSetup@@QAEPBTmstudioanimvalue_t@@PBUmstudioanim_t@@H@Z ; CStudioBoneSetup::pAnimvalue
PUBLIC	?pAnimvalue@CStudioBoneSetup@@QAEPBTmstudioanimvalue_t@@PBUmstudioikerror_t@@H@Z ; CStudioBoneSetup::pAnimvalue
PUBLIC	?pMovement@CStudioBoneSetup@@QAEPBUmstudiomovement_t@@PBUmstudioanimdesc_t@@H@Z ; CStudioBoneSetup::pMovement
PUBLIC	?pIKRule@CStudioBoneSetup@@QAEPBUmstudioikrule_t@@PBUmstudioanimdesc_t@@H@Z ; CStudioBoneSetup::pIKRule
PUBLIC	?pIKLink@CStudioBoneSetup@@QAEPBUmstudioiklink_t@@PBUmstudioikchain_t@@H@Z ; CStudioBoneSetup::pIKLink
PUBLIC	?pCompressedError@CStudioBoneSetup@@QAEPBUmstudioikerror_t@@PBUmstudioikrule_t@@@Z ; CStudioBoneSetup::pCompressedError
PUBLIC	?pBoneweight@CStudioBoneSetup@@QAEPBMPBUmstudioseqdesc_t@@@Z ; CStudioBoneSetup::pBoneweight
PUBLIC	?pPoseParameter@CStudioBoneSetup@@QAEPBUmstudioposeparamdesc_t@@H@Z ; CStudioBoneSetup::pPoseParameter
PUBLIC	?CountPoseParameters@CStudioBoneSetup@@QAEHXZ	; CStudioBoneSetup::CountPoseParameters
PUBLIC	?flPoseKey@CStudioBoneSetup@@QAE?BMPBUmstudioseqdesc_t@@HH@Z ; CStudioBoneSetup::flPoseKey
PUBLIC	?iAnimBlend@CStudioBoneSetup@@QAEHPBUmstudioseqdesc_t@@HH@Z ; CStudioBoneSetup::iAnimBlend
PUBLIC	?IsBoneUsed@CStudioBoneSetup@@QAE_NPAUmstudiobone_t@@@Z ; CStudioBoneSetup::IsBoneUsed
PUBLIC	?IsBoneUsed@CStudioBoneSetup@@QAE_NH@Z		; CStudioBoneSetup::IsBoneUsed
PUBLIC	?ExtractAnimValue@CStudioBoneSetup@@AAEXHPBTmstudioanimvalue_t@@MAAM1@Z ; CStudioBoneSetup::ExtractAnimValue
PUBLIC	?ExtractAnimValue@CStudioBoneSetup@@AAEXHPBTmstudioanimvalue_t@@MAAM@Z ; CStudioBoneSetup::ExtractAnimValue
PUBLIC	?CalcBoneQuaternion@CStudioBoneSetup@@AAE?AVVector4D@@HMHPAUmstudiobone_t@@PAUmstudioboneinfo_t@@PAUmstudioanim_t@@@Z ; CStudioBoneSetup::CalcBoneQuaternion
PUBLIC	?CalcBonePosition@CStudioBoneSetup@@AAE?AVVector@@HMHPAUmstudiobone_t@@PAUmstudioanim_t@@@Z ; CStudioBoneSetup::CalcBonePosition
PUBLIC	?AdjustBoneAngles@CStudioBoneSetup@@AAEXPAUmstudiobone_t@@AAVRadian@@1@Z ; CStudioBoneSetup::AdjustBoneAngles
PUBLIC	?AdjustBoneOrigin@CStudioBoneSetup@@AAEXPAUmstudiobone_t@@AAVVector@@@Z ; CStudioBoneSetup::AdjustBoneOrigin
PUBLIC	?CalcIKError@CStudioBoneSetup@@AAEXPBUmstudioikerror_t@@HMAAVVector@@AAVVector4D@@@Z ; CStudioBoneSetup::CalcIKError
PUBLIC	?FetchAnimation@CStudioBoneSetup@@AAEPAUmstudioanim_t@@PAUmstudioseqdesc_t@@H@Z ; CStudioBoneSetup::FetchAnimation
PUBLIC	?FetchAnimDesc@CStudioBoneSetup@@AAEPAUmstudioanimdesc_t@@PAUmstudioseqdesc_t@@H@Z ; CStudioBoneSetup::FetchAnimDesc
PUBLIC	?CalcAnimation@CStudioBoneSetup@@AAEXQAVVector@@QAVVector4D@@PAUmstudioseqdesc_t@@HM@Z ; CStudioBoneSetup::CalcAnimation
PUBLIC	?BlendBones@CStudioBoneSetup@@AAEXQAVVector4D@@QAVVector@@PAUmstudioseqdesc_t@@QBV2@QBV3@M@Z ; CStudioBoneSetup::BlendBones
PUBLIC	?SlerpBones@CStudioBoneSetup@@AAEXQAVVector4D@@QAVVector@@PAUmstudioseqdesc_t@@QBV2@QBV3@M@Z ; CStudioBoneSetup::SlerpBones
PUBLIC	?BuildBoneChain@CStudioBoneSetup@@AAEXABVmatrix3x4@@QBVVector@@QBVVector4D@@HPAV2@PAE@Z ; CStudioBoneSetup::BuildBoneChain
PUBLIC	?WorldSpaceSlerp@CStudioBoneSetup@@AAEXQAVVector4D@@QAVVector@@PAUmstudioseqdesc_t@@QBV2@QBV3@M@Z ; CStudioBoneSetup::WorldSpaceSlerp
PUBLIC	?Calc9WayBlendIndices@CStudioBoneSetup@@AAEXHHMMPBUmstudioseqdesc_t@@PAHPAM@Z ; CStudioBoneSetup::Calc9WayBlendIndices
PUBLIC	?AddSequenceLayers@CStudioBoneSetup@@AAEXPAVCIKContext@@QAVVector@@QAVVector4D@@HMM@Z ; CStudioBoneSetup::AddSequenceLayers
PUBLIC	?AddLocalLayers@CStudioBoneSetup@@AAEXPAVCIKContext@@QAVVector@@QAVVector4D@@HMM@Z ; CStudioBoneSetup::AddLocalLayers
PUBLIC	?SolveBone@CStudioBoneSetup@@AAEXHPAVmatrix3x4@@QAVVector@@QAVVector4D@@@Z ; CStudioBoneSetup::SolveBone
PUBLIC	?SolveIK@CStudioBoneSetup@@AAE_NPBUmstudioikchain_t@@AAVVector@@PAVmatrix3x4@@@Z ; CStudioBoneSetup::SolveIK
PUBLIC	?SolveIK@CStudioBoneSetup@@AAE_NHHHAAVVector@@PAVmatrix3x4@@@Z ; CStudioBoneSetup::SolveIK
PUBLIC	?SolveIK@CStudioBoneSetup@@AAE_NHHHAAVVector@@00PAVmatrix3x4@@@Z ; CStudioBoneSetup::SolveIK
PUBLIC	?CalcPoseSingle@CStudioBoneSetup@@AAEXQAVVector@@QAVVector4D@@HM@Z ; CStudioBoneSetup::CalcPoseSingle
PUBLIC	?AlignIKMatrix@CStudioBoneSetup@@AAEXAAVmatrix3x4@@ABVVector@@@Z ; CStudioBoneSetup::AlignIKMatrix
PUBLIC	?LocalPoseParameter@CStudioBoneSetup@@AAEXPAUmstudioseqdesc_t@@HAAMAAH@Z ; CStudioBoneSetup::LocalPoseParameter
PUBLIC	?IKAnimError@CStudioBoneSetup@@AAE_NPBUmstudioikrule_t@@PAUmstudioanimdesc_t@@MAAVVector@@AAVVector4D@@AAM@Z ; CStudioBoneSetup::IKAnimError
PUBLIC	?IKTail@CStudioBoneSetup@@AAEMPAUikcontextikrule_t@@M@Z ; CStudioBoneSetup::IKTail
PUBLIC	?IKSequenceError@CStudioBoneSetup@@AAE_NHMHQAPAUmstudioanimdesc_t@@QAMPAUikcontextikrule_t@@@Z ; CStudioBoneSetup::IKSequenceError
PUBLIC	?IKRuleWeight@CStudioBoneSetup@@AAEMPBUmstudioikrule_t@@PBUmstudioanimdesc_t@@MAAHAAM@Z ; CStudioBoneSetup::IKRuleWeight
PUBLIC	?IKRuleWeight@CStudioBoneSetup@@AAEMPAUikcontextikrule_t@@M@Z ; CStudioBoneSetup::IKRuleWeight
PUBLIC	?IKShouldLatch@CStudioBoneSetup@@AAE_NPAUikcontextikrule_t@@M@Z ; CStudioBoneSetup::IKShouldLatch
PUBLIC	?GetAnimSourceData@CStudioBoneSetup@@UAEPAUmstudioanim_t@@PAUmstudioseqdesc_t@@@Z ; CStudioBoneSetup::GetAnimSourceData
PUBLIC	?InitPose@CStudioBoneSetup@@QAEXQAVVector@@QAVVector4D@@@Z ; CStudioBoneSetup::InitPose
PUBLIC	?AccumulatePose@CStudioBoneSetup@@QAEXPAVCIKContext@@QAVVector@@QAVVector4D@@HMM@Z ; CStudioBoneSetup::AccumulatePose
PUBLIC	?CalcBoneAdj@CStudioBoneSetup@@QAEXQAVVector@@QAVVector4D@@QBEE@Z ; CStudioBoneSetup::CalcBoneAdj
PUBLIC	?CalcBoneAdj@CStudioBoneSetup@@QAEXQAMQBEE@Z	; CStudioBoneSetup::CalcBoneAdj
PUBLIC	?CalcAutoplaySequences@CStudioBoneSetup@@QAEXPAVCIKContext@@QAVVector@@QAVVector4D@@@Z ; CStudioBoneSetup::CalcAutoplaySequences
PUBLIC	?SetBoneControllers@CStudioBoneSetup@@QAEXPAM@Z	; CStudioBoneSetup::SetBoneControllers
PUBLIC	?CalcDefaultPoseParameters@CStudioBoneSetup@@QAEXQAM@Z ; CStudioBoneSetup::CalcDefaultPoseParameters
PUBLIC	?GetController@CStudioBoneSetup@@QAEMHM@Z	; CStudioBoneSetup::GetController
PUBLIC	?SetController@CStudioBoneSetup@@QAEMHMAAM@Z	; CStudioBoneSetup::SetController
PUBLIC	?GetPoseParameter@CStudioBoneSetup@@QAEMHM@Z	; CStudioBoneSetup::GetPoseParameter
PUBLIC	?SetPoseParameter@CStudioBoneSetup@@QAEMHMAAM@Z	; CStudioBoneSetup::SetPoseParameter
PUBLIC	?LocalSeqAnims@CStudioBoneSetup@@QAEXHQAPAUmstudioanimdesc_t@@PAM@Z ; CStudioBoneSetup::LocalSeqAnims
PUBLIC	?LocalMaxFrame@CStudioBoneSetup@@QAEHH@Z	; CStudioBoneSetup::LocalMaxFrame
PUBLIC	?LocalDuration@CStudioBoneSetup@@QAEMH@Z	; CStudioBoneSetup::LocalDuration
PUBLIC	?LocalFPS@CStudioBoneSetup@@QAEMH@Z		; CStudioBoneSetup::LocalFPS
PUBLIC	?LocalCPS@CStudioBoneSetup@@QAEMH@Z		; CStudioBoneSetup::LocalCPS
PUBLIC	?AnimPosition@CStudioBoneSetup@@QAE_NPAUmstudioanimdesc_t@@MAAVVector@@1@Z ; CStudioBoneSetup::AnimPosition
PUBLIC	?AnimVelocity@CStudioBoneSetup@@QAE_NPAUmstudioanimdesc_t@@MAAVVector@@@Z ; CStudioBoneSetup::AnimVelocity
PUBLIC	?AnimMovement@CStudioBoneSetup@@QAE_NPAUmstudioanimdesc_t@@MMAAVVector@@1@Z ; CStudioBoneSetup::AnimMovement
PUBLIC	?FindAnimDistance@CStudioBoneSetup@@QAEMPAUmstudioanimdesc_t@@M@Z ; CStudioBoneSetup::FindAnimDistance
PUBLIC	?SeqMovement@CStudioBoneSetup@@QAE_NHMMAAVVector@@0@Z ; CStudioBoneSetup::SeqMovement
PUBLIC	?SeqVelocity@CStudioBoneSetup@@QAE_NHMAAVVector@@@Z ; CStudioBoneSetup::SeqVelocity
PUBLIC	?FindSeqDistance@CStudioBoneSetup@@QAEMHM@Z	; CStudioBoneSetup::FindSeqDistance
PUBLIC	??1?$CUtlArray@VCIKTarget@@V?$CUtlMemoryFixed@VCIKTarget@@$0M@$0A@@@@@QAE@XZ ; CUtlArray<CIKTarget,CUtlMemoryFixed<CIKTarget,12,0> >::~CUtlArray<CIKTarget,CUtlMemoryFixed<CIKTarget,12,0> >
PUBLIC	?Element@?$CUtlArray@VCIKTarget@@V?$CUtlMemoryFixed@VCIKTarget@@$0M@$0A@@@@@QAEAAVCIKTarget@@H@Z ; CUtlArray<CIKTarget,CUtlMemoryFixed<CIKTarget,12,0> >::Element
PUBLIC	?Base@?$CUtlArray@VCIKTarget@@V?$CUtlMemoryFixed@VCIKTarget@@$0M@$0A@@@@@QAEPAVCIKTarget@@XZ ; CUtlArray<CIKTarget,CUtlMemoryFixed<CIKTarget,12,0> >::Base
PUBLIC	?RemoveAll@?$CUtlArray@VCIKTarget@@V?$CUtlMemoryFixed@VCIKTarget@@$0M@$0A@@@@@QAEXXZ ; CUtlArray<CIKTarget,CUtlMemoryFixed<CIKTarget,12,0> >::RemoveAll
PUBLIC	?Purge@?$CUtlArray@VCIKTarget@@V?$CUtlMemoryFixed@VCIKTarget@@$0M@$0A@@@@@QAEXXZ ; CUtlArray<CIKTarget,CUtlMemoryFixed<CIKTarget,12,0> >::Purge
PUBLIC	?IsIdxValid@?$CUtlMemoryFixed@VCIKTarget@@$0M@$0A@@@QBE_NH@Z ; CUtlMemoryFixed<CIKTarget,12,0>::IsIdxValid
PUBLIC	?Base@?$CUtlMemoryFixed@VCIKTarget@@$0M@$0A@@@QAEPAVCIKTarget@@XZ ; CUtlMemoryFixed<CIKTarget,12,0>::Base
PUBLIC	??A?$CUtlMemoryFixed@VCIKTarget@@$0M@$0A@@@QAEAAVCIKTarget@@H@Z ; CUtlMemoryFixed<CIKTarget,12,0>::operator[]
PUBLIC	?Purge@?$CUtlMemoryFixed@VCIKTarget@@$0M@$0A@@@QAEXXZ ; CUtlMemoryFixed<CIKTarget,12,0>::Purge
PUBLIC	?ResetDbgInfo@?$CUtlArray@VCIKTarget@@V?$CUtlMemoryFixed@VCIKTarget@@$0M@$0A@@@@@IAEXXZ ; CUtlArray<CIKTarget,CUtlMemoryFixed<CIKTarget,12,0> >::ResetDbgInfo
PUBLIC	??1?$CUtlArrayFixed@VCIKTarget@@$0M@@@QAE@XZ	; CUtlArrayFixed<CIKTarget,12>::~CUtlArrayFixed<CIKTarget,12>
PUBLIC	??1?$CUtlArray@V?$CUtlArray@Uikcontextikrule_t@@V?$CUtlMemory@Uikcontextikrule_t@@H@@@@V?$CUtlMemory@V?$CUtlArray@Uikcontextikrule_t@@V?$CUtlMemory@Uikcontextikrule_t@@H@@@@H@@@@QAE@XZ ; CUtlArray<CUtlArray<ikcontextikrule_t,CUtlMemory<ikcontextikrule_t,int> >,CUtlMemory<CUtlArray<ikcontextikrule_t,CUtlMemory<ikcontextikrule_t,int> >,int> >::~CUtlArray<CUtlArray<ikcontextikrule_t,CUtlMemory<ikcontextikrule_t,int> >,CUtlMemory<CUtlArray<ikcontextikrule_t,CUtlMemory<ikcontextikrule_t,int> >,int> >
PUBLIC	?Element@?$CUtlArray@V?$CUtlArray@Uikcontextikrule_t@@V?$CUtlMemory@Uikcontextikrule_t@@H@@@@V?$CUtlMemory@V?$CUtlArray@Uikcontextikrule_t@@V?$CUtlMemory@Uikcontextikrule_t@@H@@@@H@@@@QAEAAV?$CUtlArray@Uikcontextikrule_t@@V?$CUtlMemory@Uikcontextikrule_t@@H@@@@H@Z ; CUtlArray<CUtlArray<ikcontextikrule_t,CUtlMemory<ikcontextikrule_t,int> >,CUtlMemory<CUtlArray<ikcontextikrule_t,CUtlMemory<ikcontextikrule_t,int> >,int> >::Element
PUBLIC	?Base@?$CUtlArray@V?$CUtlArray@Uikcontextikrule_t@@V?$CUtlMemory@Uikcontextikrule_t@@H@@@@V?$CUtlMemory@V?$CUtlArray@Uikcontextikrule_t@@V?$CUtlMemory@Uikcontextikrule_t@@H@@@@H@@@@QAEPAV?$CUtlArray@Uikcontextikrule_t@@V?$CUtlMemory@Uikcontextikrule_t@@H@@@@XZ ; CUtlArray<CUtlArray<ikcontextikrule_t,CUtlMemory<ikcontextikrule_t,int> >,CUtlMemory<CUtlArray<ikcontextikrule_t,CUtlMemory<ikcontextikrule_t,int> >,int> >::Base
PUBLIC	?RemoveAll@?$CUtlArray@V?$CUtlArray@Uikcontextikrule_t@@V?$CUtlMemory@Uikcontextikrule_t@@H@@@@V?$CUtlMemory@V?$CUtlArray@Uikcontextikrule_t@@V?$CUtlMemory@Uikcontextikrule_t@@H@@@@H@@@@QAEXXZ ; CUtlArray<CUtlArray<ikcontextikrule_t,CUtlMemory<ikcontextikrule_t,int> >,CUtlMemory<CUtlArray<ikcontextikrule_t,CUtlMemory<ikcontextikrule_t,int> >,int> >::RemoveAll
PUBLIC	?Purge@?$CUtlArray@V?$CUtlArray@Uikcontextikrule_t@@V?$CUtlMemory@Uikcontextikrule_t@@H@@@@V?$CUtlMemory@V?$CUtlArray@Uikcontextikrule_t@@V?$CUtlMemory@Uikcontextikrule_t@@H@@@@H@@@@QAEXXZ ; CUtlArray<CUtlArray<ikcontextikrule_t,CUtlMemory<ikcontextikrule_t,int> >,CUtlMemory<CUtlArray<ikcontextikrule_t,CUtlMemory<ikcontextikrule_t,int> >,int> >::Purge
PUBLIC	??1?$CUtlMemory@V?$CUtlArray@Uikcontextikrule_t@@V?$CUtlMemory@Uikcontextikrule_t@@H@@@@H@@QAE@XZ ; CUtlMemory<CUtlArray<ikcontextikrule_t,CUtlMemory<ikcontextikrule_t,int> >,int>::~CUtlMemory<CUtlArray<ikcontextikrule_t,CUtlMemory<ikcontextikrule_t,int> >,int>
PUBLIC	??A?$CUtlMemory@V?$CUtlArray@Uikcontextikrule_t@@V?$CUtlMemory@Uikcontextikrule_t@@H@@@@H@@QAEAAV?$CUtlArray@Uikcontextikrule_t@@V?$CUtlMemory@Uikcontextikrule_t@@H@@@@H@Z ; CUtlMemory<CUtlArray<ikcontextikrule_t,CUtlMemory<ikcontextikrule_t,int> >,int>::operator[]
PUBLIC	?IsIdxValid@?$CUtlMemory@V?$CUtlArray@Uikcontextikrule_t@@V?$CUtlMemory@Uikcontextikrule_t@@H@@@@H@@QBE_NH@Z ; CUtlMemory<CUtlArray<ikcontextikrule_t,CUtlMemory<ikcontextikrule_t,int> >,int>::IsIdxValid
PUBLIC	?Base@?$CUtlMemory@V?$CUtlArray@Uikcontextikrule_t@@V?$CUtlMemory@Uikcontextikrule_t@@H@@@@H@@QAEPAV?$CUtlArray@Uikcontextikrule_t@@V?$CUtlMemory@Uikcontextikrule_t@@H@@@@XZ ; CUtlMemory<CUtlArray<ikcontextikrule_t,CUtlMemory<ikcontextikrule_t,int> >,int>::Base
PUBLIC	?Purge@?$CUtlMemory@V?$CUtlArray@Uikcontextikrule_t@@V?$CUtlMemory@Uikcontextikrule_t@@H@@@@H@@QAEXXZ ; CUtlMemory<CUtlArray<ikcontextikrule_t,CUtlMemory<ikcontextikrule_t,int> >,int>::Purge
PUBLIC	?IsExternallyAllocated@?$CUtlMemory@V?$CUtlArray@Uikcontextikrule_t@@V?$CUtlMemory@Uikcontextikrule_t@@H@@@@H@@QBE_NXZ ; CUtlMemory<CUtlArray<ikcontextikrule_t,CUtlMemory<ikcontextikrule_t,int> >,int>::IsExternallyAllocated
PUBLIC	?IsReadOnly@?$CUtlMemory@V?$CUtlArray@Uikcontextikrule_t@@V?$CUtlMemory@Uikcontextikrule_t@@H@@@@H@@QBE_NXZ ; CUtlMemory<CUtlArray<ikcontextikrule_t,CUtlMemory<ikcontextikrule_t,int> >,int>::IsReadOnly
PUBLIC	?ResetDbgInfo@?$CUtlArray@V?$CUtlArray@Uikcontextikrule_t@@V?$CUtlMemory@Uikcontextikrule_t@@H@@@@V?$CUtlMemory@V?$CUtlArray@Uikcontextikrule_t@@V?$CUtlMemory@Uikcontextikrule_t@@H@@@@H@@@@IAEXXZ ; CUtlArray<CUtlArray<ikcontextikrule_t,CUtlMemory<ikcontextikrule_t,int> >,CUtlMemory<CUtlArray<ikcontextikrule_t,CUtlMemory<ikcontextikrule_t,int> >,int> >::ResetDbgInfo
PUBLIC	??1?$CUtlArray@Uikcontextikrule_t@@V?$CUtlMemory@Uikcontextikrule_t@@H@@@@QAE@XZ ; CUtlArray<ikcontextikrule_t,CUtlMemory<ikcontextikrule_t,int> >::~CUtlArray<ikcontextikrule_t,CUtlMemory<ikcontextikrule_t,int> >
PUBLIC	?Element@?$CUtlArray@Uikcontextikrule_t@@V?$CUtlMemory@Uikcontextikrule_t@@H@@@@QAEAAUikcontextikrule_t@@H@Z ; CUtlArray<ikcontextikrule_t,CUtlMemory<ikcontextikrule_t,int> >::Element
PUBLIC	?Base@?$CUtlArray@Uikcontextikrule_t@@V?$CUtlMemory@Uikcontextikrule_t@@H@@@@QAEPAUikcontextikrule_t@@XZ ; CUtlArray<ikcontextikrule_t,CUtlMemory<ikcontextikrule_t,int> >::Base
PUBLIC	?RemoveAll@?$CUtlArray@Uikcontextikrule_t@@V?$CUtlMemory@Uikcontextikrule_t@@H@@@@QAEXXZ ; CUtlArray<ikcontextikrule_t,CUtlMemory<ikcontextikrule_t,int> >::RemoveAll
PUBLIC	?Purge@?$CUtlArray@Uikcontextikrule_t@@V?$CUtlMemory@Uikcontextikrule_t@@H@@@@QAEXXZ ; CUtlArray<ikcontextikrule_t,CUtlMemory<ikcontextikrule_t,int> >::Purge
PUBLIC	??1?$CUtlMemory@Uikcontextikrule_t@@H@@QAE@XZ	; CUtlMemory<ikcontextikrule_t,int>::~CUtlMemory<ikcontextikrule_t,int>
PUBLIC	??A?$CUtlMemory@Uikcontextikrule_t@@H@@QAEAAUikcontextikrule_t@@H@Z ; CUtlMemory<ikcontextikrule_t,int>::operator[]
PUBLIC	?IsIdxValid@?$CUtlMemory@Uikcontextikrule_t@@H@@QBE_NH@Z ; CUtlMemory<ikcontextikrule_t,int>::IsIdxValid
PUBLIC	?Base@?$CUtlMemory@Uikcontextikrule_t@@H@@QAEPAUikcontextikrule_t@@XZ ; CUtlMemory<ikcontextikrule_t,int>::Base
PUBLIC	?Purge@?$CUtlMemory@Uikcontextikrule_t@@H@@QAEXXZ ; CUtlMemory<ikcontextikrule_t,int>::Purge
PUBLIC	?IsExternallyAllocated@?$CUtlMemory@Uikcontextikrule_t@@H@@QBE_NXZ ; CUtlMemory<ikcontextikrule_t,int>::IsExternallyAllocated
PUBLIC	?IsReadOnly@?$CUtlMemory@Uikcontextikrule_t@@H@@QBE_NXZ ; CUtlMemory<ikcontextikrule_t,int>::IsReadOnly
PUBLIC	?ResetDbgInfo@?$CUtlArray@Uikcontextikrule_t@@V?$CUtlMemory@Uikcontextikrule_t@@H@@@@IAEXXZ ; CUtlArray<ikcontextikrule_t,CUtlMemory<ikcontextikrule_t,int> >::ResetDbgInfo
PUBLIC	??_G?$CUtlArray@Uikcontextikrule_t@@V?$CUtlMemory@Uikcontextikrule_t@@H@@@@QAEPAXI@Z ; CUtlArray<ikcontextikrule_t,CUtlMemory<ikcontextikrule_t,int> >::`scalar deleting destructor'
PUBLIC	??1CIKContext@@QAE@XZ				; CIKContext::~CIKContext
PUBLIC	?dot@CIKSolver@@SAMQBM0@Z			; CIKSolver::dot
PUBLIC	?length@CIKSolver@@SAMQBM@Z			; CIKSolver::length
PUBLIC	?normalize@CIKSolver@@SAXQAM@Z			; CIKSolver::normalize
PUBLIC	?findD@CIKSolver@@SAMMMM@Z			; CIKSolver::findD
PUBLIC	?findE@CIKSolver@@SAMMM@Z			; CIKSolver::findE
PUBLIC	?cross@CIKSolver@@SAXQBM0QAM@Z			; CIKSolver::cross
PUBLIC	?rot@CIKSolver@@SAXQAY02$$CBMQBMQAM@Z		; CIKSolver::rot
PUBLIC	?defineM@CIKSolver@@QAEXQBM0@Z			; CIKSolver::defineM
PUBLIC	?solve@CIKSolver@@QAE_NMMQBM0QAM@Z		; CIKSolver::solve
PUBLIC	??$AlignValue@PAD@@YAPADPADI@Z			; AlignValue<char *>
PUBLIC	??$Destruct@VCIKTarget@@@@YAXPAVCIKTarget@@@Z	; Destruct<CIKTarget>
PUBLIC	??$Destruct@Uikcontextikrule_t@@@@YAXPAUikcontextikrule_t@@@Z ; Destruct<ikcontextikrule_t>
PUBLIC	??$Destruct@V?$CUtlArray@Uikcontextikrule_t@@V?$CUtlMemory@Uikcontextikrule_t@@H@@@@@@YAXPAV?$CUtlArray@Uikcontextikrule_t@@V?$CUtlMemory@Uikcontextikrule_t@@H@@@@@Z ; Destruct<CUtlArray<ikcontextikrule_t,CUtlMemory<ikcontextikrule_t,int> > >
PUBLIC	??_C@_0CO@ENFFJEEG@?$FO3Error?3?$FO7?5ExtractAnimValue?3?5num@ ; `string'
PUBLIC	??_C@_0DH@PCJLMLLD@?$FO2Warning?3?$FO7?5sequence?5?$CFi?1?$CFi?5out?5@ ; `string'
PUBLIC	??_C@_1JE@CIIIAKCN@?$AAd?$AA?3?$AA?2?$AA?$CB?$AAd?$AAi?$AAf?$AAf?$AAu?$AAs?$AAi?$AAo?$AAn?$AA?5?$AA2?$AA0?$AA2?$AA0?$AA?2?$AAs?$AAo?$AAu?$AAr?$AAc?$AAe?$AA?5?$AAc?$AAo?$AAd?$AAe?$AA?5?$AA2@ ; `string'
PUBLIC	??_C@_1BM@PFNFCCHH@?$AA?$CB?$AAI?$AAs?$AAR?$AAe?$AAa?$AAd?$AAO?$AAn?$AAl?$AAy?$AA?$CI?$AA?$CJ?$AA?$AA@ ; `string'
PUBLIC	??_C@_1BM@CKILBAKK@?$AAI?$AAs?$AAI?$AAd?$AAx?$AAV?$AAa?$AAl?$AAi?$AAd?$AA?$CI?$AAi?$AA?$CJ?$AA?$AA@ ; `string'
PUBLIC	__real@00000000
PUBLIC	__real@38d1b717
PUBLIC	__real@3a83126f
PUBLIC	__real@3c8efa35
PUBLIC	__real@3e19999a
PUBLIC	__real@3f000000
PUBLIC	__real@3f400000
PUBLIC	__real@3f7fbe77
PUBLIC	__real@3f7ff2e5
PUBLIC	__real@3f800000
PUBLIC	__real@3f847ae147ae147b
PUBLIC	__real@3fe0000000000000
PUBLIC	__real@3ff0000000000000
PUBLIC	__real@3ff2666660000000
PUBLIC	__real@40000000
PUBLIC	__real@4000000000000000
PUBLIC	__real@40400000
PUBLIC	__real@42800000
PUBLIC	__real@42c80000
PUBLIC	__real@43340000
PUBLIC	__real@437f0000
PUBLIC	__real@43b38000
PUBLIC	__real@43b40000
PUBLIC	__real@bf000000
PUBLIC	__real@bf800000
PUBLIC	__real@c3b40000
PUBLIC	__xmm@80000000800000008000000080000000
EXTRN	??3@YAXPAXI@Z:PROC				; operator delete
EXTRN	__Init_thread_header:PROC
EXTRN	__Init_thread_abort:PROC
EXTRN	__Init_thread_footer:PROC
EXTRN	_fabs:PROC
EXTRN	_sqrt:PROC
EXTRN	_floor:PROC
EXTRN	_free:PROC
EXTRN	?AngleQuaternion@@YAXABVRadian@@AAVVector4D@@@Z:PROC ; AngleQuaternion
EXTRN	??0matrix3x4@@QAE@XZ:PROC			; matrix3x4::matrix3x4
EXTRN	?Identity@matrix3x4@@QAEXXZ:PROC		; matrix3x4::Identity
EXTRN	?GetQuaternion@matrix3x4@@QAE?AVVector4D@@XZ:PROC ; matrix3x4::GetQuaternion
EXTRN	?VectorRotate@matrix3x4@@QBE?AVVector@@ABV2@@Z:PROC ; matrix3x4::VectorRotate
EXTRN	?Invert@matrix3x4@@QBE?AV1@XZ:PROC		; matrix3x4::Invert
EXTRN	?ConcatTransforms@matrix3x4@@QAE?AV1@V1@@Z:PROC	; matrix3x4::ConcatTransforms
EXTRN	?ConcatTransforms@matrix3x4@@QBE?AV1@V1@@Z:PROC	; matrix3x4::ConcatTransforms
EXTRN	?QuaternionAlign@@YAXABVVector4D@@0AAV1@@Z:PROC	; QuaternionAlign
EXTRN	?QuaternionSlerp@@YAXABVVector4D@@0MAAV1@@Z:PROC ; QuaternionSlerp
EXTRN	?QuaternionBlend@@YAXABVVector4D@@0MAAV1@@Z:PROC ; QuaternionBlend
EXTRN	?QuaternionSlerpNoAlign@@YAXABVVector4D@@0MAAV1@@Z:PROC ; QuaternionSlerpNoAlign
EXTRN	?QuaternionBlendNoAlign@@YAXABVVector4D@@0MAAV1@@Z:PROC ; QuaternionBlendNoAlign
EXTRN	?QuaternionSM@@YAXMABVVector4D@@0AAV1@@Z:PROC	; QuaternionSM
EXTRN	?QuaternionMA@@YAXABVVector4D@@M0AAV1@@Z:PROC	; QuaternionMA
EXTRN	?QuaternionAccumulate@@YAXABVVector4D@@M0AAV1@@Z:PROC ; QuaternionAccumulate
EXTRN	?QuaternionScale@@YAXABVVector4D@@MAAV1@@Z:PROC	; QuaternionScale
EXTRN	?InterpolateOrigin@@YAXABVVector@@0AAV1@M_N@Z:PROC ; InterpolateOrigin
EXTRN	?SolveQuadratic@@YA_NMMMAAM0@Z:PROC		; SolveQuadratic
EXTRN	?VectorYawRotate@@YA?AVVector@@ABV1@M@Z:PROC	; VectorYawRotate
EXTRN	_memset:PROC
EXTRN	?Q_strncpy@@YAIPADPBDI@Z:PROC			; Q_strncpy
EXTRN	__wassert:PROC
EXTRN	??0CIKContext@@QAE@XZ:PROC			; CIKContext::CIKContext
EXTRN	?Init@CIKContext@@QAEXPBVCStudioBoneSetup@@ABVVector@@1MH@Z:PROC ; CIKContext::Init
EXTRN	?AddDependencies@CIKContext@@QAEXPAUmstudioseqdesc_t@@HMM@Z:PROC ; CIKContext::AddDependencies
EXTRN	?AddAutoplayLocks@CIKContext@@QAEXQAVVector@@QAVVector4D@@@Z:PROC ; CIKContext::AddAutoplayLocks
EXTRN	?SolveAutoplayLocks@CIKContext@@QAEXQAVVector@@QAVVector4D@@@Z:PROC ; CIKContext::SolveAutoplayLocks
EXTRN	?AddSequenceLocks@CIKContext@@QAEXPAUmstudioseqdesc_t@@QAVVector@@QAVVector4D@@@Z:PROC ; CIKContext::AddSequenceLocks
EXTRN	?SolveSequenceLocks@CIKContext@@QAEXPAUmstudioseqdesc_t@@QAVVector@@QAVVector4D@@@Z:PROC ; CIKContext::SolveSequenceLocks
EXTRN	@__security_check_cookie@4:PROC
EXTRN	___CxxFrameHandler3:PROC
EXTRN	__chkstk:PROC
EXTRN	__Init_thread_epoch:DWORD
EXTRN	?g_vecZero@@3VVector@@B:BYTE			; g_vecZero
EXTRN	?g_radZero@@3VRadian@@B:BYTE			; g_radZero
EXTRN	___security_cookie:DWORD
EXTRN	__fltused:DWORD
EXTRN	__tls_array:DWORD
EXTRN	__tls_index:DWORD
_BSS	SEGMENT
?baseDesc@?1??FetchAnimDesc@CStudioBoneSetup@@AAEPAUmstudioanimdesc_t@@PAUmstudioseqdesc_t@@H@Z@4U3@A DB 05cH DUP (?) ; `CStudioBoneSetup::FetchAnimDesc'::`2'::baseDesc
?pos2@?1??CalcPoseSingle@CStudioBoneSetup@@AAEXQAVVector@@QAVVector4D@@HM@Z@4PAV3@A DB 0600H DUP (?) ; `CStudioBoneSetup::CalcPoseSingle'::`2'::pos2
?$TSS0@?1??CalcPoseSingle@CStudioBoneSetup@@AAEXQAVVector@@QAVVector4D@@HM@Z@4HA DD 01H DUP (?) ; `CStudioBoneSetup::CalcPoseSingle'::`2'::$TSS0
?q2@?1??CalcPoseSingle@CStudioBoneSetup@@AAEXQAVVector@@QAVVector4D@@HM@Z@4PAV4@A DB 0800H DUP (?) ; `CStudioBoneSetup::CalcPoseSingle'::`2'::q2
?$TSS1@?1??CalcPoseSingle@CStudioBoneSetup@@AAEXQAVVector@@QAVVector4D@@HM@Z@4HA DD 01H DUP (?) ; `CStudioBoneSetup::CalcPoseSingle'::`2'::$TSS1
?pos3@?1??CalcPoseSingle@CStudioBoneSetup@@AAEXQAVVector@@QAVVector4D@@HM@Z@4PAV3@A DB 0600H DUP (?) ; `CStudioBoneSetup::CalcPoseSingle'::`2'::pos3
?$TSS2@?1??CalcPoseSingle@CStudioBoneSetup@@AAEXQAVVector@@QAVVector4D@@HM@Z@4HA DD 01H DUP (?) ; `CStudioBoneSetup::CalcPoseSingle'::`2'::$TSS2
?q3@?1??CalcPoseSingle@CStudioBoneSetup@@AAEXQAVVector@@QAVVector4D@@HM@Z@4PAV4@A DB 0800H DUP (?) ; `CStudioBoneSetup::CalcPoseSingle'::`2'::q3
?$TSS3@?1??CalcPoseSingle@CStudioBoneSetup@@AAEXQAVVector@@QAVVector4D@@HM@Z@4HA DD 01H DUP (?) ; `CStudioBoneSetup::CalcPoseSingle'::`2'::$TSS3
?pos4@?1??CalcPoseSingle@CStudioBoneSetup@@AAEXQAVVector@@QAVVector4D@@HM@Z@4PAV3@A DB 0600H DUP (?) ; `CStudioBoneSetup::CalcPoseSingle'::`2'::pos4
?$TSS4@?1??CalcPoseSingle@CStudioBoneSetup@@AAEXQAVVector@@QAVVector4D@@HM@Z@4HA DD 01H DUP (?) ; `CStudioBoneSetup::CalcPoseSingle'::`2'::$TSS4
?q4@?1??CalcPoseSingle@CStudioBoneSetup@@AAEXQAVVector@@QAVVector4D@@HM@Z@4PAV4@A DB 0800H DUP (?) ; `CStudioBoneSetup::CalcPoseSingle'::`2'::q4
?$TSS5@?1??CalcPoseSingle@CStudioBoneSetup@@AAEXQAVVector@@QAVVector4D@@HM@Z@4HA DD 01H DUP (?) ; `CStudioBoneSetup::CalcPoseSingle'::`2'::$TSS5
_BSS	ENDS
;	COMDAT __xmm@80000000800000008000000080000000
CONST	SEGMENT
__xmm@80000000800000008000000080000000 DB 00H, 00H, 00H, 080H, 00H, 00H, 00H
	DB	080H, 00H, 00H, 00H, 080H, 00H, 00H, 00H, 080H
CONST	ENDS
;	COMDAT __real@c3b40000
CONST	SEGMENT
__real@c3b40000 DD 0c3b40000r			; -360
CONST	ENDS
;	COMDAT __real@bf800000
CONST	SEGMENT
__real@bf800000 DD 0bf800000r			; -1
CONST	ENDS
;	COMDAT __real@bf000000
CONST	SEGMENT
__real@bf000000 DD 0bf000000r			; -0.5
CONST	ENDS
;	COMDAT __real@43b40000
CONST	SEGMENT
__real@43b40000 DD 043b40000r			; 360
CONST	ENDS
;	COMDAT __real@43b38000
CONST	SEGMENT
__real@43b38000 DD 043b38000r			; 359
CONST	ENDS
;	COMDAT __real@437f0000
CONST	SEGMENT
__real@437f0000 DD 0437f0000r			; 255
CONST	ENDS
;	COMDAT __real@43340000
CONST	SEGMENT
__real@43340000 DD 043340000r			; 180
CONST	ENDS
;	COMDAT __real@42c80000
CONST	SEGMENT
__real@42c80000 DD 042c80000r			; 100
CONST	ENDS
;	COMDAT __real@42800000
CONST	SEGMENT
__real@42800000 DD 042800000r			; 64
CONST	ENDS
;	COMDAT __real@40400000
CONST	SEGMENT
__real@40400000 DD 040400000r			; 3
CONST	ENDS
;	COMDAT __real@4000000000000000
CONST	SEGMENT
__real@4000000000000000 DQ 04000000000000000r	; 2
CONST	ENDS
;	COMDAT __real@40000000
CONST	SEGMENT
__real@40000000 DD 040000000r			; 2
CONST	ENDS
;	COMDAT __real@3ff2666660000000
CONST	SEGMENT
__real@3ff2666660000000 DQ 03ff2666660000000r	; 1.15
CONST	ENDS
;	COMDAT __real@3ff0000000000000
CONST	SEGMENT
__real@3ff0000000000000 DQ 03ff0000000000000r	; 1
CONST	ENDS
;	COMDAT __real@3fe0000000000000
CONST	SEGMENT
__real@3fe0000000000000 DQ 03fe0000000000000r	; 0.5
CONST	ENDS
;	COMDAT __real@3f847ae147ae147b
CONST	SEGMENT
__real@3f847ae147ae147b DQ 03f847ae147ae147br	; 0.01
CONST	ENDS
;	COMDAT __real@3f800000
CONST	SEGMENT
__real@3f800000 DD 03f800000r			; 1
CONST	ENDS
;	COMDAT __real@3f7ff2e5
CONST	SEGMENT
__real@3f7ff2e5 DD 03f7ff2e5r			; 0.9998
CONST	ENDS
;	COMDAT __real@3f7fbe77
CONST	SEGMENT
__real@3f7fbe77 DD 03f7fbe77r			; 0.999
CONST	ENDS
;	COMDAT __real@3f400000
CONST	SEGMENT
__real@3f400000 DD 03f400000r			; 0.75
CONST	ENDS
;	COMDAT __real@3f000000
CONST	SEGMENT
__real@3f000000 DD 03f000000r			; 0.5
CONST	ENDS
;	COMDAT __real@3e19999a
CONST	SEGMENT
__real@3e19999a DD 03e19999ar			; 0.15
CONST	ENDS
;	COMDAT __real@3c8efa35
CONST	SEGMENT
__real@3c8efa35 DD 03c8efa35r			; 0.0174533
CONST	ENDS
;	COMDAT __real@3a83126f
CONST	SEGMENT
__real@3a83126f DD 03a83126fr			; 0.001
CONST	ENDS
;	COMDAT __real@38d1b717
CONST	SEGMENT
__real@38d1b717 DD 038d1b717r			; 0.0001
CONST	ENDS
;	COMDAT __real@00000000
CONST	SEGMENT
__real@00000000 DD 000000000r			; 0
CONST	ENDS
;	COMDAT ??_C@_1BM@CKILBAKK@?$AAI?$AAs?$AAI?$AAd?$AAx?$AAV?$AAa?$AAl?$AAi?$AAd?$AA?$CI?$AAi?$AA?$CJ?$AA?$AA@
CONST	SEGMENT
??_C@_1BM@CKILBAKK@?$AAI?$AAs?$AAI?$AAd?$AAx?$AAV?$AAa?$AAl?$AAi?$AAd?$AA?$CI?$AAi?$AA?$CJ?$AA?$AA@ DB 'I'
	DB	00H, 's', 00H, 'I', 00H, 'd', 00H, 'x', 00H, 'V', 00H, 'a', 00H
	DB	'l', 00H, 'i', 00H, 'd', 00H, '(', 00H, 'i', 00H, ')', 00H, 00H
	DB	00H						; `string'
CONST	ENDS
;	COMDAT ??_C@_1BM@PFNFCCHH@?$AA?$CB?$AAI?$AAs?$AAR?$AAe?$AAa?$AAd?$AAO?$AAn?$AAl?$AAy?$AA?$CI?$AA?$CJ?$AA?$AA@
CONST	SEGMENT
??_C@_1BM@PFNFCCHH@?$AA?$CB?$AAI?$AAs?$AAR?$AAe?$AAa?$AAd?$AAO?$AAn?$AAl?$AAy?$AA?$CI?$AA?$CJ?$AA?$AA@ DB '!'
	DB	00H, 'I', 00H, 's', 00H, 'R', 00H, 'e', 00H, 'a', 00H, 'd', 00H
	DB	'O', 00H, 'n', 00H, 'l', 00H, 'y', 00H, '(', 00H, ')', 00H, 00H
	DB	00H						; `string'
CONST	ENDS
;	COMDAT ??_C@_1JE@CIIIAKCN@?$AAd?$AA?3?$AA?2?$AA?$CB?$AAd?$AAi?$AAf?$AAf?$AAu?$AAs?$AAi?$AAo?$AAn?$AA?5?$AA2?$AA0?$AA2?$AA0?$AA?2?$AAs?$AAo?$AAu?$AAr?$AAc?$AAe?$AA?5?$AAc?$AAo?$AAd?$AAe?$AA?5?$AA2@
CONST	SEGMENT
??_C@_1JE@CIIIAKCN@?$AAd?$AA?3?$AA?2?$AA?$CB?$AAd?$AAi?$AAf?$AAf?$AAu?$AAs?$AAi?$AAo?$AAn?$AA?5?$AA2?$AA0?$AA2?$AA0?$AA?2?$AAs?$AAo?$AAu?$AAr?$AAc?$AAe?$AA?5?$AAc?$AAo?$AAd?$AAe?$AA?5?$AA2@ DB 'd'
	DB	00H, ':', 00H, '\', 00H, '!', 00H, 'd', 00H, 'i', 00H, 'f', 00H
	DB	'f', 00H, 'u', 00H, 's', 00H, 'i', 00H, 'o', 00H, 'n', 00H, ' '
	DB	00H, '2', 00H, '0', 00H, '2', 00H, '0', 00H, '\', 00H, 's', 00H
	DB	'o', 00H, 'u', 00H, 'r', 00H, 'c', 00H, 'e', 00H, ' ', 00H, 'c'
	DB	00H, 'o', 00H, 'd', 00H, 'e', 00H, ' ', 00H, '2', 00H, '0', 00H
	DB	'2', 00H, '2', 00H, '\', 00H, 'c', 00H, 'l', 00H, 'i', 00H, 'e'
	DB	00H, 'n', 00H, 't', 00H, '-', 00H, 's', 00H, 'e', 00H, 'r', 00H
	DB	'v', 00H, 'e', 00H, 'r', 00H, '\', 00H, 'g', 00H, 'a', 00H, 'm'
	DB	00H, 'e', 00H, '_', 00H, 's', 00H, 'h', 00H, 'a', 00H, 'r', 00H
	DB	'e', 00H, 'd', 00H, '\', 00H, 'u', 00H, 't', 00H, 'l', 00H, 'm'
	DB	00H, 'e', 00H, 'm', 00H, 'o', 00H, 'r', 00H, 'y', 00H, '.', 00H
	DB	'h', 00H, 00H, 00H				; `string'
CONST	ENDS
;	COMDAT ??_C@_0DH@PCJLMLLD@?$FO2Warning?3?$FO7?5sequence?5?$CFi?1?$CFi?5out?5@
CONST	SEGMENT
??_C@_0DH@PCJLMLLD@?$FO2Warning?3?$FO7?5sequence?5?$CFi?1?$CFi?5out?5@ DB '^'
	DB	'2Warning:^7 sequence %i/%i out of range for model %s', 0aH, 00H ; `string'
CONST	ENDS
;	COMDAT ??_C@_0CO@ENFFJEEG@?$FO3Error?3?$FO7?5ExtractAnimValue?3?5num@
CONST	SEGMENT
??_C@_0CO@ENFFJEEG@?$FO3Error?3?$FO7?5ExtractAnimValue?3?5num@ DB '^3Erro'
	DB	'r:^7 ExtractAnimValue: num.total == 0!', 0aH, 00H ; `string'
CONST	ENDS
;	COMDAT xdata$x
xdata$x	SEGMENT
__ehfuncinfo$??1?$CUtlMemory@Uikcontextikrule_t@@H@@QAE@XZ DD 019930522H
	DD	00H
	DD	00H
	DD	2 DUP(00H)
	DD	2 DUP(00H)
	DD	00H
	DD	05H
xdata$x	ENDS
;	COMDAT xdata$x
xdata$x	SEGMENT
__ehfuncinfo$??1?$CUtlArray@Uikcontextikrule_t@@V?$CUtlMemory@Uikcontextikrule_t@@H@@@@QAE@XZ DD 019930522H
	DD	00H
	DD	00H
	DD	2 DUP(00H)
	DD	2 DUP(00H)
	DD	00H
	DD	05H
xdata$x	ENDS
;	COMDAT xdata$x
xdata$x	SEGMENT
__ehfuncinfo$??1?$CUtlMemory@V?$CUtlArray@Uikcontextikrule_t@@V?$CUtlMemory@Uikcontextikrule_t@@H@@@@H@@QAE@XZ DD 019930522H
	DD	00H
	DD	00H
	DD	2 DUP(00H)
	DD	2 DUP(00H)
	DD	00H
	DD	05H
xdata$x	ENDS
;	COMDAT xdata$x
xdata$x	SEGMENT
__ehfuncinfo$??1?$CUtlArray@V?$CUtlArray@Uikcontextikrule_t@@V?$CUtlMemory@Uikcontextikrule_t@@H@@@@V?$CUtlMemory@V?$CUtlArray@Uikcontextikrule_t@@V?$CUtlMemory@Uikcontextikrule_t@@H@@@@H@@@@QAE@XZ DD 019930522H
	DD	00H
	DD	00H
	DD	2 DUP(00H)
	DD	2 DUP(00H)
	DD	00H
	DD	05H
xdata$x	ENDS
;	COMDAT xdata$x
xdata$x	SEGMENT
__ehfuncinfo$??1?$CUtlArray@VCIKTarget@@V?$CUtlMemoryFixed@VCIKTarget@@$0M@$0A@@@@@QAE@XZ DD 019930522H
	DD	00H
	DD	00H
	DD	2 DUP(00H)
	DD	2 DUP(00H)
	DD	00H
	DD	05H
xdata$x	ENDS
;	COMDAT xdata$x
xdata$x	SEGMENT
__unwindtable$?AccumulatePose@CStudioBoneSetup@@QAEXPAVCIKContext@@QAVVector@@QAVVector4D@@HMM@Z DD 0ffffffffH
	DD	FLAT:__unwindfunclet$?AccumulatePose@CStudioBoneSetup@@QAEXPAVCIKContext@@QAVVector@@QAVVector4D@@HMM@Z$0
__ehfuncinfo$?AccumulatePose@CStudioBoneSetup@@QAEXPAVCIKContext@@QAVVector@@QAVVector4D@@HMM@Z DD 019930522H
	DD	01H
	DD	FLAT:__unwindtable$?AccumulatePose@CStudioBoneSetup@@QAEXPAVCIKContext@@QAVVector@@QAVVector4D@@HMM@Z
	DD	2 DUP(00H)
	DD	2 DUP(00H)
	DD	00H
	DD	01H
xdata$x	ENDS
;	COMDAT xdata$x
xdata$x	SEGMENT
__ehfuncinfo$?CalcPoseSingle@CStudioBoneSetup@@AAEXQAVVector@@QAVVector4D@@HM@Z DD 019930522H
	DD	06H
	DD	FLAT:__unwindtable$?CalcPoseSingle@CStudioBoneSetup@@AAEXQAVVector@@QAVVector4D@@HM@Z
	DD	2 DUP(00H)
	DD	2 DUP(00H)
	DD	00H
	DD	01H
__unwindtable$?CalcPoseSingle@CStudioBoneSetup@@AAEXQAVVector@@QAVVector4D@@HM@Z DD 0ffffffffH
	DD	FLAT:__unwindfunclet$?CalcPoseSingle@CStudioBoneSetup@@AAEXQAVVector@@QAVVector4D@@HM@Z$0
	DD	0ffffffffH
	DD	FLAT:__unwindfunclet$?CalcPoseSingle@CStudioBoneSetup@@AAEXQAVVector@@QAVVector4D@@HM@Z$1
	DD	0ffffffffH
	DD	FLAT:__unwindfunclet$?CalcPoseSingle@CStudioBoneSetup@@AAEXQAVVector@@QAVVector4D@@HM@Z$2
	DD	0ffffffffH
	DD	FLAT:__unwindfunclet$?CalcPoseSingle@CStudioBoneSetup@@AAEXQAVVector@@QAVVector4D@@HM@Z$3
	DD	0ffffffffH
	DD	FLAT:__unwindfunclet$?CalcPoseSingle@CStudioBoneSetup@@AAEXQAVVector@@QAVVector4D@@HM@Z$4
	DD	0ffffffffH
	DD	FLAT:__unwindfunclet$?CalcPoseSingle@CStudioBoneSetup@@AAEXQAVVector@@QAVVector4D@@HM@Z$5
xdata$x	ENDS
; Function compile flags: /Odtp /ZI
; File d:\!diffusion 2020\source code 2022\client-server\game_shared\utlmemory.h
;	COMDAT ??$Destruct@V?$CUtlArray@Uikcontextikrule_t@@V?$CUtlMemory@Uikcontextikrule_t@@H@@@@@@YAXPAV?$CUtlArray@Uikcontextikrule_t@@V?$CUtlMemory@Uikcontextikrule_t@@H@@@@@Z
_TEXT	SEGMENT
_pMemory$ = 8						; size = 4
??$Destruct@V?$CUtlArray@Uikcontextikrule_t@@V?$CUtlMemory@Uikcontextikrule_t@@H@@@@@@YAXPAV?$CUtlArray@Uikcontextikrule_t@@V?$CUtlMemory@Uikcontextikrule_t@@H@@@@@Z PROC ; Destruct<CUtlArray<ikcontextikrule_t,CUtlMemory<ikcontextikrule_t,int> > >, COMDAT

; 49   : {

	push	ebp
	mov	ebp, esp
	sub	esp, 64					; 00000040H
	push	ebx
	push	esi
	push	edi

; 50   : 	pMemory->~T();

	push	0
	mov	ecx, DWORD PTR _pMemory$[ebp]
	call	??_G?$CUtlArray@Uikcontextikrule_t@@V?$CUtlMemory@Uikcontextikrule_t@@H@@@@QAEPAXI@Z

; 51   : 
; 52   : #ifdef _DEBUG
; 53   : 	memset( pMemory, 0xDD, sizeof(T) );

	push	20					; 00000014H
	push	221					; 000000ddH
	mov	eax, DWORD PTR _pMemory$[ebp]
	push	eax
	call	_memset
	add	esp, 12					; 0000000cH

; 54   : #endif
; 55   : }

	pop	edi
	pop	esi
	pop	ebx
	mov	esp, ebp
	pop	ebp
	ret	0
??$Destruct@V?$CUtlArray@Uikcontextikrule_t@@V?$CUtlMemory@Uikcontextikrule_t@@H@@@@@@YAXPAV?$CUtlArray@Uikcontextikrule_t@@V?$CUtlMemory@Uikcontextikrule_t@@H@@@@@Z ENDP ; Destruct<CUtlArray<ikcontextikrule_t,CUtlMemory<ikcontextikrule_t,int> > >
_TEXT	ENDS
; Function compile flags: /Odtp /ZI
; File d:\!diffusion 2020\source code 2022\client-server\game_shared\utlmemory.h
;	COMDAT ??$Destruct@Uikcontextikrule_t@@@@YAXPAUikcontextikrule_t@@@Z
_TEXT	SEGMENT
_pMemory$ = 8						; size = 4
??$Destruct@Uikcontextikrule_t@@@@YAXPAUikcontextikrule_t@@@Z PROC ; Destruct<ikcontextikrule_t>, COMDAT

; 49   : {

	push	ebp
	mov	ebp, esp
	sub	esp, 64					; 00000040H
	push	ebx
	push	esi
	push	edi

; 50   : 	pMemory->~T();
; 51   : 
; 52   : #ifdef _DEBUG
; 53   : 	memset( pMemory, 0xDD, sizeof(T) );

	push	132					; 00000084H
	push	221					; 000000ddH
	mov	eax, DWORD PTR _pMemory$[ebp]
	push	eax
	call	_memset
	add	esp, 12					; 0000000cH

; 54   : #endif
; 55   : }

	pop	edi
	pop	esi
	pop	ebx
	mov	esp, ebp
	pop	ebp
	ret	0
??$Destruct@Uikcontextikrule_t@@@@YAXPAUikcontextikrule_t@@@Z ENDP ; Destruct<ikcontextikrule_t>
_TEXT	ENDS
; Function compile flags: /Odtp /ZI
; File d:\!diffusion 2020\source code 2022\client-server\game_shared\utlmemory.h
;	COMDAT ??$Destruct@VCIKTarget@@@@YAXPAVCIKTarget@@@Z
_TEXT	SEGMENT
_pMemory$ = 8						; size = 4
??$Destruct@VCIKTarget@@@@YAXPAVCIKTarget@@@Z PROC	; Destruct<CIKTarget>, COMDAT

; 49   : {

	push	ebp
	mov	ebp, esp
	sub	esp, 64					; 00000040H
	push	ebx
	push	esi
	push	edi

; 50   : 	pMemory->~T();
; 51   : 
; 52   : #ifdef _DEBUG
; 53   : 	memset( pMemory, 0xDD, sizeof(T) );

	push	336					; 00000150H
	push	221					; 000000ddH
	mov	eax, DWORD PTR _pMemory$[ebp]
	push	eax
	call	_memset
	add	esp, 12					; 0000000cH

; 54   : #endif
; 55   : }

	pop	edi
	pop	esi
	pop	ebx
	mov	esp, ebp
	pop	ebp
	ret	0
??$Destruct@VCIKTarget@@@@YAXPAVCIKTarget@@@Z ENDP	; Destruct<CIKTarget>
_TEXT	ENDS
; Function compile flags: /Odtp /ZI
; File d:\!diffusion 2020\source code 2022\client-server\game_shared\utlmemory.h
;	COMDAT ??$AlignValue@PAD@@YAPADPADI@Z
_TEXT	SEGMENT
_val$ = 8						; size = 4
_alignment$ = 12					; size = 4
??$AlignValue@PAD@@YAPADPADI@Z PROC			; AlignValue<char *>, COMDAT

; 27   : {

	push	ebp
	mov	ebp, esp
	sub	esp, 64					; 00000040H
	push	ebx
	push	esi
	push	edi

; 28   : 	return (T)( ( (unsigned int)val + alignment - 1 ) & ~( alignment - 1 ) );

	mov	eax, DWORD PTR _alignment$[ebp]
	mov	ecx, DWORD PTR _val$[ebp]
	lea	eax, DWORD PTR [ecx+eax-1]
	mov	edx, DWORD PTR _alignment$[ebp]
	sub	edx, 1
	not	edx
	and	eax, edx

; 29   : }

	pop	edi
	pop	esi
	pop	ebx
	mov	esp, ebp
	pop	ebp
	ret	0
??$AlignValue@PAD@@YAPADPADI@Z ENDP			; AlignValue<char *>
_TEXT	ENDS
; Function compile flags: /Odtp /ZI
; File d:\!diffusion 2020\source code 2022\client-server\game_shared\iksolver.h
;	COMDAT ?solve@CIKSolver@@QAE_NMMQBM0QAM@Z
_TEXT	SEGMENT
tv87 = -112						; size = 4
_S$ = -44						; size = 12
_e$ = -32						; size = 4
_d$ = -28						; size = 4
_r$ = -24						; size = 4
_R$ = -20						; size = 12
_this$ = -8						; size = 4
__$ArrayPad$ = -4					; size = 4
_A$ = 8							; size = 4
_B$ = 12						; size = 4
_P$ = 16						; size = 4
_D$ = 20						; size = 4
_Q$ = 24						; size = 4
?solve@CIKSolver@@QAE_NMMQBM0QAM@Z PROC			; CIKSolver::solve, COMDAT
; _this$ = ecx

; 72   : 	{

	push	ebp
	mov	ebp, esp
	sub	esp, 112				; 00000070H
	mov	eax, DWORD PTR ___security_cookie
	xor	eax, ebp
	mov	DWORD PTR __$ArrayPad$[ebp], eax
	push	ebx
	push	esi
	push	edi
	mov	DWORD PTR _this$[ebp], ecx

; 73   : 		float	R[3];
; 74   : 
; 75   : 		defineM( P, D );

	mov	eax, DWORD PTR _D$[ebp]
	push	eax
	mov	ecx, DWORD PTR _P$[ebp]
	push	ecx
	mov	ecx, DWORD PTR _this$[ebp]
	call	?defineM@CIKSolver@@QAEXQBM0@Z		; CIKSolver::defineM

; 76   : 		rot( Minv, P, R );

	lea	eax, DWORD PTR _R$[ebp]
	push	eax
	mov	ecx, DWORD PTR _P$[ebp]
	push	ecx
	mov	edx, DWORD PTR _this$[ebp]
	add	edx, 36					; 00000024H
	push	edx
	call	?rot@CIKSolver@@SAXQAY02$$CBMQBMQAM@Z	; CIKSolver::rot
	add	esp, 12					; 0000000cH

; 77   : 		float r = length( R );

	lea	eax, DWORD PTR _R$[ebp]
	push	eax
	call	?length@CIKSolver@@SAMQBM@Z		; CIKSolver::length
	add	esp, 4
	fstp	DWORD PTR _r$[ebp]

; 78   : 		float d = findD( A, B, r );

	push	ecx
	movss	xmm0, DWORD PTR _r$[ebp]
	movss	DWORD PTR [esp], xmm0
	push	ecx
	movss	xmm0, DWORD PTR _B$[ebp]
	movss	DWORD PTR [esp], xmm0
	push	ecx
	movss	xmm0, DWORD PTR _A$[ebp]
	movss	DWORD PTR [esp], xmm0
	call	?findD@CIKSolver@@SAMMMM@Z		; CIKSolver::findD
	add	esp, 12					; 0000000cH
	fstp	DWORD PTR _d$[ebp]

; 79   : 		float e = findE( A, d );

	push	ecx
	movss	xmm0, DWORD PTR _d$[ebp]
	movss	DWORD PTR [esp], xmm0
	push	ecx
	movss	xmm0, DWORD PTR _A$[ebp]
	movss	DWORD PTR [esp], xmm0
	call	?findE@CIKSolver@@SAMMM@Z		; CIKSolver::findE
	add	esp, 8
	fstp	DWORD PTR _e$[ebp]

; 80   : 		float S[3] = { d, e, 0 };

	movss	xmm0, DWORD PTR _d$[ebp]
	movss	DWORD PTR _S$[ebp], xmm0
	movss	xmm0, DWORD PTR _e$[ebp]
	movss	DWORD PTR _S$[ebp+4], xmm0
	xorps	xmm0, xmm0
	movss	DWORD PTR _S$[ebp+8], xmm0

; 81   : 		rot( Mfwd, S, Q );

	mov	eax, DWORD PTR _Q$[ebp]
	push	eax
	lea	ecx, DWORD PTR _S$[ebp]
	push	ecx
	mov	edx, DWORD PTR _this$[ebp]
	push	edx
	call	?rot@CIKSolver@@SAXQAY02$$CBMQBMQAM@Z	; CIKSolver::rot
	add	esp, 12					; 0000000cH

; 82   : 		return d > (r - B) && d < A;

	movss	xmm0, DWORD PTR _r$[ebp]
	subss	xmm0, DWORD PTR _B$[ebp]
	movss	xmm1, DWORD PTR _d$[ebp]
	comiss	xmm1, xmm0
	jbe	SHORT $LN3@solve
	movss	xmm0, DWORD PTR _A$[ebp]
	comiss	xmm0, DWORD PTR _d$[ebp]
	jbe	SHORT $LN3@solve
	mov	DWORD PTR tv87[ebp], 1
	jmp	SHORT $LN4@solve
$LN3@solve:
	mov	DWORD PTR tv87[ebp], 0
$LN4@solve:
	mov	al, BYTE PTR tv87[ebp]

; 83   : 	}

	pop	edi
	pop	esi
	pop	ebx
	mov	ecx, DWORD PTR __$ArrayPad$[ebp]
	xor	ecx, ebp
	call	@__security_check_cookie@4
	mov	esp, ebp
	pop	ebp
	ret	20					; 00000014H
?solve@CIKSolver@@QAE_NMMQBM0QAM@Z ENDP			; CIKSolver::solve
_TEXT	ENDS
; Function compile flags: /Odtp /ZI
; File d:\!diffusion 2020\source code 2022\client-server\game_shared\iksolver.h
;	COMDAT ?defineM@CIKSolver@@QAEXQBM0@Z
_TEXT	SEGMENT
_dDOTx$ = -24						; size = 4
_i$ = -20						; size = 4
_Z$ = -16						; size = 4
_Y$ = -12						; size = 4
_X$ = -8						; size = 4
_this$ = -4						; size = 4
_P$ = 8							; size = 4
_D$ = 12						; size = 4
?defineM@CIKSolver@@QAEXQBM0@Z PROC			; CIKSolver::defineM, COMDAT
; _this$ = ecx

; 44   : 	{

	push	ebp
	mov	ebp, esp
	sub	esp, 88					; 00000058H
	push	ebx
	push	esi
	push	edi
	mov	DWORD PTR _this$[ebp], ecx

; 45   : 		float *X = Minv[0], *Y = Minv[1], *Z = Minv[2];

	mov	eax, 12					; 0000000cH
	imul	ecx, eax, 0
	mov	edx, DWORD PTR _this$[ebp]
	lea	eax, DWORD PTR [edx+ecx+36]
	mov	DWORD PTR _X$[ebp], eax
	mov	eax, 12					; 0000000cH
	shl	eax, 0
	mov	ecx, DWORD PTR _this$[ebp]
	lea	edx, DWORD PTR [ecx+eax+36]
	mov	DWORD PTR _Y$[ebp], edx
	mov	eax, 12					; 0000000cH
	shl	eax, 1
	mov	ecx, DWORD PTR _this$[ebp]
	lea	edx, DWORD PTR [ecx+eax+36]
	mov	DWORD PTR _Z$[ebp], edx

; 46   : 		int i;
; 47   : 
; 48   : 		for( i = 0; i < 3; i++ )

	mov	DWORD PTR _i$[ebp], 0
	jmp	SHORT $LN4@defineM
$LN2@defineM:
	mov	eax, DWORD PTR _i$[ebp]
	add	eax, 1
	mov	DWORD PTR _i$[ebp], eax
$LN4@defineM:
	cmp	DWORD PTR _i$[ebp], 3
	jge	SHORT $LN3@defineM

; 49   : 			X[i] = P[i];

	mov	eax, DWORD PTR _i$[ebp]
	mov	ecx, DWORD PTR _X$[ebp]
	mov	edx, DWORD PTR _i$[ebp]
	mov	esi, DWORD PTR _P$[ebp]
	mov	edx, DWORD PTR [esi+edx*4]
	mov	DWORD PTR [ecx+eax*4], edx
	jmp	SHORT $LN2@defineM
$LN3@defineM:

; 50   : 		normalize( X );

	mov	eax, DWORD PTR _X$[ebp]
	push	eax
	call	?normalize@CIKSolver@@SAXQAM@Z		; CIKSolver::normalize
	add	esp, 4

; 51   : 
; 52   : 		// Its y axis is perpendicular to P, so Y = unit( E - X(E·X) ).
; 53   : 		float dDOTx = dot( D, X );

	mov	eax, DWORD PTR _X$[ebp]
	push	eax
	mov	ecx, DWORD PTR _D$[ebp]
	push	ecx
	call	?dot@CIKSolver@@SAMQBM0@Z		; CIKSolver::dot
	add	esp, 8
	fstp	DWORD PTR _dDOTx$[ebp]

; 54   : 
; 55   : 		for( i = 0; i < 3; i++ )

	mov	DWORD PTR _i$[ebp], 0
	jmp	SHORT $LN7@defineM
$LN5@defineM:
	mov	eax, DWORD PTR _i$[ebp]
	add	eax, 1
	mov	DWORD PTR _i$[ebp], eax
$LN7@defineM:
	cmp	DWORD PTR _i$[ebp], 3
	jge	SHORT $LN6@defineM

; 56   : 			Y[i] = D[i] - dDOTx * X[i];

	mov	eax, DWORD PTR _i$[ebp]
	mov	ecx, DWORD PTR _X$[ebp]
	movss	xmm0, DWORD PTR _dDOTx$[ebp]
	mulss	xmm0, DWORD PTR [ecx+eax*4]
	mov	edx, DWORD PTR _i$[ebp]
	mov	eax, DWORD PTR _D$[ebp]
	movss	xmm1, DWORD PTR [eax+edx*4]
	subss	xmm1, xmm0
	mov	ecx, DWORD PTR _i$[ebp]
	mov	edx, DWORD PTR _Y$[ebp]
	movss	DWORD PTR [edx+ecx*4], xmm1
	jmp	SHORT $LN5@defineM
$LN6@defineM:

; 57   : 		normalize( Y );

	mov	eax, DWORD PTR _Y$[ebp]
	push	eax
	call	?normalize@CIKSolver@@SAXQAM@Z		; CIKSolver::normalize
	add	esp, 4

; 58   : 
; 59   : 		// Its z axis is perpendicular to both X and Y, so Z = X×Y.
; 60   : 		cross( X, Y, Z );

	mov	eax, DWORD PTR _Z$[ebp]
	push	eax
	mov	ecx, DWORD PTR _Y$[ebp]
	push	ecx
	mov	edx, DWORD PTR _X$[ebp]
	push	edx
	call	?cross@CIKSolver@@SAXQBM0QAM@Z		; CIKSolver::cross
	add	esp, 12					; 0000000cH

; 61   : 
; 62   : 		// Mfwd = (Minv)T, since transposing inverts a rotation matrix.
; 63   : 		for( i = 0; i < 3; i++ )

	mov	DWORD PTR _i$[ebp], 0
	jmp	SHORT $LN10@defineM
$LN8@defineM:
	mov	eax, DWORD PTR _i$[ebp]
	add	eax, 1
	mov	DWORD PTR _i$[ebp], eax
$LN10@defineM:
	cmp	DWORD PTR _i$[ebp], 3
	jge	SHORT $LN9@defineM

; 64   : 		{
; 65   : 			Mfwd[i][0] = Minv[0][i];

	mov	eax, 12					; 0000000cH
	imul	ecx, eax, 0
	mov	edx, DWORD PTR _this$[ebp]
	lea	eax, DWORD PTR [edx+ecx+36]
	imul	ecx, DWORD PTR _i$[ebp], 12
	add	ecx, DWORD PTR _this$[ebp]
	mov	edx, 4
	imul	edx, edx, 0
	mov	esi, DWORD PTR _i$[ebp]
	mov	eax, DWORD PTR [eax+esi*4]
	mov	DWORD PTR [ecx+edx], eax

; 66   : 			Mfwd[i][1] = Minv[1][i];

	mov	eax, 12					; 0000000cH
	shl	eax, 0
	mov	ecx, DWORD PTR _this$[ebp]
	lea	edx, DWORD PTR [ecx+eax+36]
	imul	eax, DWORD PTR _i$[ebp], 12
	add	eax, DWORD PTR _this$[ebp]
	mov	ecx, 4
	shl	ecx, 0
	mov	esi, DWORD PTR _i$[ebp]
	mov	edx, DWORD PTR [edx+esi*4]
	mov	DWORD PTR [eax+ecx], edx

; 67   : 			Mfwd[i][2] = Minv[2][i];

	mov	eax, 12					; 0000000cH
	shl	eax, 1
	mov	ecx, DWORD PTR _this$[ebp]
	lea	edx, DWORD PTR [ecx+eax+36]
	imul	eax, DWORD PTR _i$[ebp], 12
	add	eax, DWORD PTR _this$[ebp]
	mov	ecx, 4
	shl	ecx, 1
	mov	esi, DWORD PTR _i$[ebp]
	mov	edx, DWORD PTR [edx+esi*4]
	mov	DWORD PTR [eax+ecx], edx

; 68   : 		}

	jmp	$LN8@defineM
$LN9@defineM:

; 69   : 	}

	pop	edi
	pop	esi
	pop	ebx
	mov	esp, ebp
	pop	ebp
	ret	8
?defineM@CIKSolver@@QAEXQBM0@Z ENDP			; CIKSolver::defineM
_TEXT	ENDS
; Function compile flags: /Odtp /ZI
; File d:\!diffusion 2020\source code 2022\client-server\game_shared\iksolver.h
;	COMDAT ?rot@CIKSolver@@SAXQAY02$$CBMQBMQAM@Z
_TEXT	SEGMENT
_M$ = 8							; size = 4
_src$ = 12						; size = 4
_dst$ = 16						; size = 4
?rot@CIKSolver@@SAXQAY02$$CBMQBMQAM@Z PROC		; CIKSolver::rot, COMDAT

; 37   : 	{

	push	ebp
	mov	ebp, esp
	sub	esp, 64					; 00000040H
	push	ebx
	push	esi
	push	edi

; 38   : 		dst[0] = dot( M[0], src );

	mov	eax, DWORD PTR _src$[ebp]
	push	eax
	mov	ecx, 12					; 0000000cH
	imul	edx, ecx, 0
	add	edx, DWORD PTR _M$[ebp]
	push	edx
	call	?dot@CIKSolver@@SAMQBM0@Z		; CIKSolver::dot
	add	esp, 8
	mov	eax, 4
	imul	ecx, eax, 0
	mov	edx, DWORD PTR _dst$[ebp]
	fstp	DWORD PTR [edx+ecx]

; 39   : 		dst[1] = dot( M[1], src );

	mov	eax, DWORD PTR _src$[ebp]
	push	eax
	mov	ecx, 12					; 0000000cH
	shl	ecx, 0
	add	ecx, DWORD PTR _M$[ebp]
	push	ecx
	call	?dot@CIKSolver@@SAMQBM0@Z		; CIKSolver::dot
	add	esp, 8
	mov	edx, 4
	shl	edx, 0
	mov	eax, DWORD PTR _dst$[ebp]
	fstp	DWORD PTR [eax+edx]

; 40   : 		dst[2] = dot( M[2], src );

	mov	eax, DWORD PTR _src$[ebp]
	push	eax
	mov	ecx, 12					; 0000000cH
	shl	ecx, 1
	add	ecx, DWORD PTR _M$[ebp]
	push	ecx
	call	?dot@CIKSolver@@SAMQBM0@Z		; CIKSolver::dot
	add	esp, 8
	mov	edx, 4
	shl	edx, 1
	mov	eax, DWORD PTR _dst$[ebp]
	fstp	DWORD PTR [eax+edx]

; 41   : 	}

	pop	edi
	pop	esi
	pop	ebx
	mov	esp, ebp
	pop	ebp
	ret	0
?rot@CIKSolver@@SAXQAY02$$CBMQBMQAM@Z ENDP		; CIKSolver::rot
_TEXT	ENDS
; Function compile flags: /Odtp /ZI
; File d:\!diffusion 2020\source code 2022\client-server\game_shared\iksolver.h
;	COMDAT ?cross@CIKSolver@@SAXQBM0QAM@Z
_TEXT	SEGMENT
_a$ = 8							; size = 4
_b$ = 12						; size = 4
_c$ = 16						; size = 4
?cross@CIKSolver@@SAXQBM0QAM@Z PROC			; CIKSolver::cross, COMDAT

; 30   : 	{

	push	ebp
	mov	ebp, esp
	sub	esp, 64					; 00000040H
	push	ebx
	push	esi
	push	edi

; 31   : 		c[0] = a[1] * b[2] - a[2] * b[1];

	mov	eax, 4
	shl	eax, 0
	mov	ecx, 4
	shl	ecx, 1
	mov	edx, DWORD PTR _a$[ebp]
	mov	esi, DWORD PTR _b$[ebp]
	movss	xmm0, DWORD PTR [edx+eax]
	mulss	xmm0, DWORD PTR [esi+ecx]
	mov	eax, 4
	shl	eax, 1
	mov	ecx, 4
	shl	ecx, 0
	mov	edx, DWORD PTR _a$[ebp]
	mov	esi, DWORD PTR _b$[ebp]
	movss	xmm1, DWORD PTR [edx+eax]
	mulss	xmm1, DWORD PTR [esi+ecx]
	subss	xmm0, xmm1
	mov	eax, 4
	imul	ecx, eax, 0
	mov	edx, DWORD PTR _c$[ebp]
	movss	DWORD PTR [edx+ecx], xmm0

; 32   : 		c[1] = a[2] * b[0] - a[0] * b[2];

	mov	eax, 4
	shl	eax, 1
	mov	ecx, 4
	imul	edx, ecx, 0
	mov	ecx, DWORD PTR _a$[ebp]
	mov	esi, DWORD PTR _b$[ebp]
	movss	xmm0, DWORD PTR [ecx+eax]
	mulss	xmm0, DWORD PTR [esi+edx]
	mov	edx, 4
	imul	eax, edx, 0
	mov	ecx, 4
	shl	ecx, 1
	mov	edx, DWORD PTR _a$[ebp]
	mov	esi, DWORD PTR _b$[ebp]
	movss	xmm1, DWORD PTR [edx+eax]
	mulss	xmm1, DWORD PTR [esi+ecx]
	subss	xmm0, xmm1
	mov	eax, 4
	shl	eax, 0
	mov	ecx, DWORD PTR _c$[ebp]
	movss	DWORD PTR [ecx+eax], xmm0

; 33   : 		c[2] = a[0] * b[1] - a[1] * b[0];

	mov	eax, 4
	imul	ecx, eax, 0
	mov	edx, 4
	shl	edx, 0
	mov	eax, DWORD PTR _a$[ebp]
	mov	esi, DWORD PTR _b$[ebp]
	movss	xmm0, DWORD PTR [eax+ecx]
	mulss	xmm0, DWORD PTR [esi+edx]
	mov	ecx, 4
	shl	ecx, 0
	mov	edx, 4
	imul	eax, edx, 0
	mov	edx, DWORD PTR _a$[ebp]
	mov	esi, DWORD PTR _b$[ebp]
	movss	xmm1, DWORD PTR [edx+ecx]
	mulss	xmm1, DWORD PTR [esi+eax]
	subss	xmm0, xmm1
	mov	eax, 4
	shl	eax, 1
	mov	ecx, DWORD PTR _c$[ebp]
	movss	DWORD PTR [ecx+eax], xmm0

; 34   : 	}

	pop	edi
	pop	esi
	pop	ebx
	mov	esp, ebp
	pop	ebp
	ret	0
?cross@CIKSolver@@SAXQBM0QAM@Z ENDP			; CIKSolver::cross
_TEXT	ENDS
; Function compile flags: /Odtp /ZI
; File d:\!diffusion 2020\source code 2022\client-server\game_shared\iksolver.h
;	COMDAT ?findE@CIKSolver@@SAMMM@Z
_TEXT	SEGMENT
tv76 = -68						; size = 4
_a$ = 8							; size = 4
_d$ = 12						; size = 4
?findE@CIKSolver@@SAMMM@Z PROC				; CIKSolver::findE, COMDAT

; 27   : 	static float findE( float a, float d ) { return sqrt(a * a - d * d); }

	push	ebp
	mov	ebp, esp
	sub	esp, 68					; 00000044H
	push	ebx
	push	esi
	push	edi
	movss	xmm0, DWORD PTR _a$[ebp]
	mulss	xmm0, DWORD PTR _a$[ebp]
	movss	xmm1, DWORD PTR _d$[ebp]
	mulss	xmm1, DWORD PTR _d$[ebp]
	subss	xmm0, xmm1
	cvtss2sd xmm0, xmm0
	sub	esp, 8
	movsd	QWORD PTR [esp], xmm0
	call	_sqrt
	add	esp, 8
	fstp	DWORD PTR tv76[ebp]
	fld	DWORD PTR tv76[ebp]
	pop	edi
	pop	esi
	pop	ebx
	mov	esp, ebp
	pop	ebp
	ret	0
?findE@CIKSolver@@SAMMM@Z ENDP				; CIKSolver::findE
_TEXT	ENDS
; Function compile flags: /Odtp /ZI
; File d:\!diffusion 2020\source code 2022\client-server\game_shared\iksolver.h
;	COMDAT ?findD@CIKSolver@@SAMMMM@Z
_TEXT	SEGMENT
tv74 = -68						; size = 4
_a$ = 8							; size = 4
_b$ = 12						; size = 4
_c$ = 16						; size = 4
?findD@CIKSolver@@SAMMMM@Z PROC				; CIKSolver::findD, COMDAT

; 26   : 	static float findD( float a, float b, float c ) { return (c + (a * a - b * b) / c) / 2; }

	push	ebp
	mov	ebp, esp
	sub	esp, 68					; 00000044H
	push	ebx
	push	esi
	push	edi
	movss	xmm0, DWORD PTR _a$[ebp]
	mulss	xmm0, DWORD PTR _a$[ebp]
	movss	xmm1, DWORD PTR _b$[ebp]
	mulss	xmm1, DWORD PTR _b$[ebp]
	subss	xmm0, xmm1
	divss	xmm0, DWORD PTR _c$[ebp]
	addss	xmm0, DWORD PTR _c$[ebp]
	divss	xmm0, DWORD PTR __real@40000000
	movss	DWORD PTR tv74[ebp], xmm0
	fld	DWORD PTR tv74[ebp]
	pop	edi
	pop	esi
	pop	ebx
	mov	esp, ebp
	pop	ebp
	ret	0
?findD@CIKSolver@@SAMMMM@Z ENDP				; CIKSolver::findD
_TEXT	ENDS
; Function compile flags: /Odtp /ZI
; File d:\!diffusion 2020\source code 2022\client-server\game_shared\iksolver.h
;	COMDAT ?normalize@CIKSolver@@SAXQAM@Z
_TEXT	SEGMENT
_norm$ = -4						; size = 4
_v$ = 8							; size = 4
?normalize@CIKSolver@@SAXQAM@Z PROC			; CIKSolver::normalize, COMDAT

; 25   : 	static void normalize( float v[] ) { float norm = length( v ); v[0] /= norm; v[1] /= norm; v[2] /= norm; }

	push	ebp
	mov	ebp, esp
	sub	esp, 68					; 00000044H
	push	ebx
	push	esi
	push	edi
	mov	eax, DWORD PTR _v$[ebp]
	push	eax
	call	?length@CIKSolver@@SAMQBM@Z		; CIKSolver::length
	add	esp, 4
	fstp	DWORD PTR _norm$[ebp]
	mov	eax, 4
	imul	ecx, eax, 0
	mov	edx, DWORD PTR _v$[ebp]
	movss	xmm0, DWORD PTR [edx+ecx]
	divss	xmm0, DWORD PTR _norm$[ebp]
	mov	eax, 4
	imul	ecx, eax, 0
	mov	edx, DWORD PTR _v$[ebp]
	movss	DWORD PTR [edx+ecx], xmm0
	mov	eax, 4
	shl	eax, 0
	mov	ecx, DWORD PTR _v$[ebp]
	movss	xmm0, DWORD PTR [ecx+eax]
	divss	xmm0, DWORD PTR _norm$[ebp]
	mov	edx, 4
	shl	edx, 0
	mov	eax, DWORD PTR _v$[ebp]
	movss	DWORD PTR [eax+edx], xmm0
	mov	eax, 4
	shl	eax, 1
	mov	ecx, DWORD PTR _v$[ebp]
	movss	xmm0, DWORD PTR [ecx+eax]
	divss	xmm0, DWORD PTR _norm$[ebp]
	mov	edx, 4
	shl	edx, 1
	mov	eax, DWORD PTR _v$[ebp]
	movss	DWORD PTR [eax+edx], xmm0
	pop	edi
	pop	esi
	pop	ebx
	mov	esp, ebp
	pop	ebp
	ret	0
?normalize@CIKSolver@@SAXQAM@Z ENDP			; CIKSolver::normalize
_TEXT	ENDS
; Function compile flags: /Odtp /ZI
; File d:\!diffusion 2020\source code 2022\client-server\game_shared\iksolver.h
;	COMDAT ?length@CIKSolver@@SAMQBM@Z
_TEXT	SEGMENT
tv80 = -68						; size = 4
_v$ = 8							; size = 4
?length@CIKSolver@@SAMQBM@Z PROC			; CIKSolver::length, COMDAT

; 24   : 	static float length( float const v[] ) { return sqrt( dot( v, v )); }

	push	ebp
	mov	ebp, esp
	sub	esp, 68					; 00000044H
	push	ebx
	push	esi
	push	edi
	mov	eax, DWORD PTR _v$[ebp]
	push	eax
	mov	ecx, DWORD PTR _v$[ebp]
	push	ecx
	call	?dot@CIKSolver@@SAMQBM0@Z		; CIKSolver::dot
	fstp	QWORD PTR [esp]
	call	_sqrt
	add	esp, 8
	fstp	DWORD PTR tv80[ebp]
	fld	DWORD PTR tv80[ebp]
	pop	edi
	pop	esi
	pop	ebx
	mov	esp, ebp
	pop	ebp
	ret	0
?length@CIKSolver@@SAMQBM@Z ENDP			; CIKSolver::length
_TEXT	ENDS
; Function compile flags: /Odtp /ZI
; File d:\!diffusion 2020\source code 2022\client-server\game_shared\iksolver.h
;	COMDAT ?dot@CIKSolver@@SAMQBM0@Z
_TEXT	SEGMENT
tv129 = -68						; size = 4
_a$ = 8							; size = 4
_b$ = 12						; size = 4
?dot@CIKSolver@@SAMQBM0@Z PROC				; CIKSolver::dot, COMDAT

; 23   : 	static float dot( float const a[], float const b[] ) { return a[0] * b[0] + a[1] * b[1] + a[2] * b[2]; }

	push	ebp
	mov	ebp, esp
	sub	esp, 68					; 00000044H
	push	ebx
	push	esi
	push	edi
	mov	eax, 4
	imul	ecx, eax, 0
	mov	edx, 4
	imul	eax, edx, 0
	mov	edx, DWORD PTR _a$[ebp]
	mov	esi, DWORD PTR _b$[ebp]
	movss	xmm0, DWORD PTR [edx+ecx]
	mulss	xmm0, DWORD PTR [esi+eax]
	mov	eax, 4
	shl	eax, 0
	mov	ecx, 4
	shl	ecx, 0
	mov	edx, DWORD PTR _a$[ebp]
	mov	esi, DWORD PTR _b$[ebp]
	movss	xmm1, DWORD PTR [edx+eax]
	mulss	xmm1, DWORD PTR [esi+ecx]
	addss	xmm0, xmm1
	mov	eax, 4
	shl	eax, 1
	mov	ecx, 4
	shl	ecx, 1
	mov	edx, DWORD PTR _a$[ebp]
	mov	esi, DWORD PTR _b$[ebp]
	movss	xmm1, DWORD PTR [edx+eax]
	mulss	xmm1, DWORD PTR [esi+ecx]
	addss	xmm0, xmm1
	movss	DWORD PTR tv129[ebp], xmm0
	fld	DWORD PTR tv129[ebp]
	pop	edi
	pop	esi
	pop	ebx
	mov	esp, ebp
	pop	ebp
	ret	0
?dot@CIKSolver@@SAMQBM0@Z ENDP				; CIKSolver::dot
_TEXT	ENDS
; Function compile flags: /Odtp /ZI
;	COMDAT ??1CIKContext@@QAE@XZ
_TEXT	SEGMENT
_this$ = -4						; size = 4
??1CIKContext@@QAE@XZ PROC				; CIKContext::~CIKContext, COMDAT
; _this$ = ecx
	push	ebp
	mov	ebp, esp
	sub	esp, 68					; 00000044H
	push	ebx
	push	esi
	push	edi
	mov	DWORD PTR _this$[ebp], ecx
	mov	ecx, DWORD PTR _this$[ebp]
	add	ecx, 4064				; 00000fe0H
	call	??1?$CUtlArray@Uikcontextikrule_t@@V?$CUtlMemory@Uikcontextikrule_t@@H@@@@QAE@XZ ; CUtlArray<ikcontextikrule_t,CUtlMemory<ikcontextikrule_t,int> >::~CUtlArray<ikcontextikrule_t,CUtlMemory<ikcontextikrule_t,int> >
	mov	ecx, DWORD PTR _this$[ebp]
	add	ecx, 4044				; 00000fccH
	call	??1?$CUtlArray@V?$CUtlArray@Uikcontextikrule_t@@V?$CUtlMemory@Uikcontextikrule_t@@H@@@@V?$CUtlMemory@V?$CUtlArray@Uikcontextikrule_t@@V?$CUtlMemory@Uikcontextikrule_t@@H@@@@H@@@@QAE@XZ ; CUtlArray<CUtlArray<ikcontextikrule_t,CUtlMemory<ikcontextikrule_t,int> >,CUtlMemory<CUtlArray<ikcontextikrule_t,CUtlMemory<ikcontextikrule_t,int> >,int> >::~CUtlArray<CUtlArray<ikcontextikrule_t,CUtlMemory<ikcontextikrule_t,int> >,CUtlMemory<CUtlArray<ikcontextikrule_t,CUtlMemory<ikcontextikrule_t,int> >,int> >
	mov	ecx, DWORD PTR _this$[ebp]
	call	??1?$CUtlArrayFixed@VCIKTarget@@$0M@@@QAE@XZ
	pop	edi
	pop	esi
	pop	ebx
	mov	esp, ebp
	pop	ebp
	ret	0
??1CIKContext@@QAE@XZ ENDP				; CIKContext::~CIKContext
_TEXT	ENDS
; Function compile flags: /Odtp /ZI
;	COMDAT ??_G?$CUtlArray@Uikcontextikrule_t@@V?$CUtlMemory@Uikcontextikrule_t@@H@@@@QAEPAXI@Z
_TEXT	SEGMENT
_this$ = -4						; size = 4
___flags$ = 8						; size = 4
??_G?$CUtlArray@Uikcontextikrule_t@@V?$CUtlMemory@Uikcontextikrule_t@@H@@@@QAEPAXI@Z PROC ; CUtlArray<ikcontextikrule_t,CUtlMemory<ikcontextikrule_t,int> >::`scalar deleting destructor', COMDAT
; _this$ = ecx
	push	ebp
	mov	ebp, esp
	sub	esp, 68					; 00000044H
	push	ebx
	push	esi
	push	edi
	mov	DWORD PTR _this$[ebp], ecx
	mov	ecx, DWORD PTR _this$[ebp]
	call	??1?$CUtlArray@Uikcontextikrule_t@@V?$CUtlMemory@Uikcontextikrule_t@@H@@@@QAE@XZ ; CUtlArray<ikcontextikrule_t,CUtlMemory<ikcontextikrule_t,int> >::~CUtlArray<ikcontextikrule_t,CUtlMemory<ikcontextikrule_t,int> >
	mov	eax, DWORD PTR ___flags$[ebp]
	and	eax, 1
	je	SHORT $LN2@scalar
	push	20					; 00000014H
	mov	eax, DWORD PTR _this$[ebp]
	push	eax
	call	??3@YAXPAXI@Z				; operator delete
	add	esp, 8
$LN2@scalar:
	mov	eax, DWORD PTR _this$[ebp]
	pop	edi
	pop	esi
	pop	ebx
	mov	esp, ebp
	pop	ebp
	ret	4
??_G?$CUtlArray@Uikcontextikrule_t@@V?$CUtlMemory@Uikcontextikrule_t@@H@@@@QAEPAXI@Z ENDP ; CUtlArray<ikcontextikrule_t,CUtlMemory<ikcontextikrule_t,int> >::`scalar deleting destructor'
_TEXT	ENDS
; Function compile flags: /Odtp /ZI
; File d:\!diffusion 2020\source code 2022\client-server\game_shared\utlarray.h
;	COMDAT ?ResetDbgInfo@?$CUtlArray@Uikcontextikrule_t@@V?$CUtlMemory@Uikcontextikrule_t@@H@@@@IAEXXZ
_TEXT	SEGMENT
_this$ = -4						; size = 4
?ResetDbgInfo@?$CUtlArray@Uikcontextikrule_t@@V?$CUtlMemory@Uikcontextikrule_t@@H@@@@IAEXXZ PROC ; CUtlArray<ikcontextikrule_t,CUtlMemory<ikcontextikrule_t,int> >::ResetDbgInfo, COMDAT
; _this$ = ecx

; 160  : 	{

	push	ebp
	mov	ebp, esp
	sub	esp, 68					; 00000044H
	push	ebx
	push	esi
	push	edi
	mov	DWORD PTR _this$[ebp], ecx

; 161  : 		m_pElements = Base();

	mov	ecx, DWORD PTR _this$[ebp]
	call	?Base@?$CUtlArray@Uikcontextikrule_t@@V?$CUtlMemory@Uikcontextikrule_t@@H@@@@QAEPAUikcontextikrule_t@@XZ ; CUtlArray<ikcontextikrule_t,CUtlMemory<ikcontextikrule_t,int> >::Base
	mov	ecx, DWORD PTR _this$[ebp]
	mov	DWORD PTR [ecx+16], eax

; 162  : 	}

	pop	edi
	pop	esi
	pop	ebx
	mov	esp, ebp
	pop	ebp
	ret	0
?ResetDbgInfo@?$CUtlArray@Uikcontextikrule_t@@V?$CUtlMemory@Uikcontextikrule_t@@H@@@@IAEXXZ ENDP ; CUtlArray<ikcontextikrule_t,CUtlMemory<ikcontextikrule_t,int> >::ResetDbgInfo
_TEXT	ENDS
; Function compile flags: /Odtp /ZI
; File d:\!diffusion 2020\source code 2022\client-server\game_shared\utlmemory.h
;	COMDAT ?IsReadOnly@?$CUtlMemory@Uikcontextikrule_t@@H@@QBE_NXZ
_TEXT	SEGMENT
tv66 = -72						; size = 4
_this$ = -4						; size = 4
?IsReadOnly@?$CUtlMemory@Uikcontextikrule_t@@H@@QBE_NXZ PROC ; CUtlMemory<ikcontextikrule_t,int>::IsReadOnly, COMDAT
; _this$ = ecx

; 467  : {

	push	ebp
	mov	ebp, esp
	sub	esp, 72					; 00000048H
	push	ebx
	push	esi
	push	edi
	mov	DWORD PTR _this$[ebp], ecx

; 468  : 	return (m_nGrowSize == EXTERNAL_CONST_BUFFER_MARKER);

	mov	eax, DWORD PTR _this$[ebp]
	cmp	DWORD PTR [eax+8], -2			; fffffffeH
	jne	SHORT $LN3@IsReadOnly
	mov	DWORD PTR tv66[ebp], 1
	jmp	SHORT $LN4@IsReadOnly
$LN3@IsReadOnly:
	mov	DWORD PTR tv66[ebp], 0
$LN4@IsReadOnly:
	mov	al, BYTE PTR tv66[ebp]

; 469  : }

	pop	edi
	pop	esi
	pop	ebx
	mov	esp, ebp
	pop	ebp
	ret	0
?IsReadOnly@?$CUtlMemory@Uikcontextikrule_t@@H@@QBE_NXZ ENDP ; CUtlMemory<ikcontextikrule_t,int>::IsReadOnly
_TEXT	ENDS
; Function compile flags: /Odtp /ZI
; File d:\!diffusion 2020\source code 2022\client-server\game_shared\utlmemory.h
;	COMDAT ?IsExternallyAllocated@?$CUtlMemory@Uikcontextikrule_t@@H@@QBE_NXZ
_TEXT	SEGMENT
tv66 = -72						; size = 4
_this$ = -4						; size = 4
?IsExternallyAllocated@?$CUtlMemory@Uikcontextikrule_t@@H@@QBE_NXZ PROC ; CUtlMemory<ikcontextikrule_t,int>::IsExternallyAllocated, COMDAT
; _this$ = ecx

; 457  : {

	push	ebp
	mov	ebp, esp
	sub	esp, 72					; 00000048H
	push	ebx
	push	esi
	push	edi
	mov	DWORD PTR _this$[ebp], ecx

; 458  : 	return (m_nGrowSize < 0);

	mov	eax, DWORD PTR _this$[ebp]
	cmp	DWORD PTR [eax+8], 0
	jge	SHORT $LN3@IsExternal
	mov	DWORD PTR tv66[ebp], 1
	jmp	SHORT $LN4@IsExternal
$LN3@IsExternal:
	mov	DWORD PTR tv66[ebp], 0
$LN4@IsExternal:
	mov	al, BYTE PTR tv66[ebp]

; 459  : }

	pop	edi
	pop	esi
	pop	ebx
	mov	esp, ebp
	pop	ebp
	ret	0
?IsExternallyAllocated@?$CUtlMemory@Uikcontextikrule_t@@H@@QBE_NXZ ENDP ; CUtlMemory<ikcontextikrule_t,int>::IsExternallyAllocated
_TEXT	ENDS
; Function compile flags: /Odtp /ZI
; File d:\!diffusion 2020\source code 2022\client-server\game_shared\utlmemory.h
;	COMDAT ?Purge@?$CUtlMemory@Uikcontextikrule_t@@H@@QAEXXZ
_TEXT	SEGMENT
_this$ = -4						; size = 4
?Purge@?$CUtlMemory@Uikcontextikrule_t@@H@@QAEXXZ PROC	; CUtlMemory<ikcontextikrule_t,int>::Purge, COMDAT
; _this$ = ecx

; 645  : {

	push	ebp
	mov	ebp, esp
	sub	esp, 68					; 00000044H
	push	ebx
	push	esi
	push	edi
	mov	DWORD PTR _this$[ebp], ecx

; 646  : 	if ( !IsExternallyAllocated() )

	mov	ecx, DWORD PTR _this$[ebp]
	call	?IsExternallyAllocated@?$CUtlMemory@Uikcontextikrule_t@@H@@QBE_NXZ ; CUtlMemory<ikcontextikrule_t,int>::IsExternallyAllocated
	movzx	eax, al
	test	eax, eax
	jne	SHORT $LN1@Purge

; 647  : 	{
; 648  : 		if (m_pMemory)

	mov	eax, DWORD PTR _this$[ebp]
	cmp	DWORD PTR [eax], 0
	je	SHORT $LN3@Purge

; 649  : 		{
; 650  : 			free( (void*)m_pMemory );

	mov	eax, DWORD PTR _this$[ebp]
	mov	ecx, DWORD PTR [eax]
	push	ecx
	call	_free
	add	esp, 4

; 651  : 			m_pMemory = 0;

	mov	eax, DWORD PTR _this$[ebp]
	mov	DWORD PTR [eax], 0
$LN3@Purge:

; 652  : 		}
; 653  : 		m_nAllocationCount = 0;

	mov	eax, DWORD PTR _this$[ebp]
	mov	DWORD PTR [eax+4], 0
$LN1@Purge:

; 654  : 	}
; 655  : }

	pop	edi
	pop	esi
	pop	ebx
	mov	esp, ebp
	pop	ebp
	ret	0
?Purge@?$CUtlMemory@Uikcontextikrule_t@@H@@QAEXXZ ENDP	; CUtlMemory<ikcontextikrule_t,int>::Purge
_TEXT	ENDS
; Function compile flags: /Odtp /ZI
; File d:\!diffusion 2020\source code 2022\client-server\game_shared\utlmemory.h
;	COMDAT ?Base@?$CUtlMemory@Uikcontextikrule_t@@H@@QAEPAUikcontextikrule_t@@XZ
_TEXT	SEGMENT
_this$ = -4						; size = 4
?Base@?$CUtlMemory@Uikcontextikrule_t@@H@@QAEPAUikcontextikrule_t@@XZ PROC ; CUtlMemory<ikcontextikrule_t,int>::Base, COMDAT
; _this$ = ecx

; 487  : {

	push	ebp
	mov	ebp, esp
	sub	esp, 68					; 00000044H
	push	ebx
	push	esi
	push	edi
	mov	DWORD PTR _this$[ebp], ecx

; 488  : 	assert( !IsReadOnly() );

	mov	ecx, DWORD PTR _this$[ebp]
	call	?IsReadOnly@?$CUtlMemory@Uikcontextikrule_t@@H@@QBE_NXZ ; CUtlMemory<ikcontextikrule_t,int>::IsReadOnly
	movzx	eax, al
	test	eax, eax
	je	SHORT $LN3@Base
	push	488					; 000001e8H
	push	OFFSET ??_C@_1JE@CIIIAKCN@?$AAd?$AA?3?$AA?2?$AA?$CB?$AAd?$AAi?$AAf?$AAf?$AAu?$AAs?$AAi?$AAo?$AAn?$AA?5?$AA2?$AA0?$AA2?$AA0?$AA?2?$AAs?$AAo?$AAu?$AAr?$AAc?$AAe?$AA?5?$AAc?$AAo?$AAd?$AAe?$AA?5?$AA2@
	push	OFFSET ??_C@_1BM@PFNFCCHH@?$AA?$CB?$AAI?$AAs?$AAR?$AAe?$AAa?$AAd?$AAO?$AAn?$AAl?$AAy?$AA?$CI?$AA?$CJ?$AA?$AA@
	call	__wassert
	add	esp, 12					; 0000000cH
$LN3@Base:

; 489  : 	return m_pMemory;

	mov	eax, DWORD PTR _this$[ebp]
	mov	eax, DWORD PTR [eax]

; 490  : }

	pop	edi
	pop	esi
	pop	ebx
	mov	esp, ebp
	pop	ebp
	ret	0
?Base@?$CUtlMemory@Uikcontextikrule_t@@H@@QAEPAUikcontextikrule_t@@XZ ENDP ; CUtlMemory<ikcontextikrule_t,int>::Base
_TEXT	ENDS
; Function compile flags: /Odtp /ZI
; File d:\!diffusion 2020\source code 2022\client-server\game_shared\utlmemory.h
;	COMDAT ?IsIdxValid@?$CUtlMemory@Uikcontextikrule_t@@H@@QBE_NH@Z
_TEXT	SEGMENT
tv67 = -72						; size = 4
_this$ = -4						; size = 4
_i$ = 8							; size = 4
?IsIdxValid@?$CUtlMemory@Uikcontextikrule_t@@H@@QBE_NH@Z PROC ; CUtlMemory<ikcontextikrule_t,int>::IsIdxValid, COMDAT
; _this$ = ecx

; 520  : {

	push	ebp
	mov	ebp, esp
	sub	esp, 72					; 00000048H
	push	ebx
	push	esi
	push	edi
	mov	DWORD PTR _this$[ebp], ecx

; 521  : 	return ( ((int) i) >= 0 ) && ( ((int) i) < m_nAllocationCount );

	cmp	DWORD PTR _i$[ebp], 0
	jl	SHORT $LN3@IsIdxValid
	mov	eax, DWORD PTR _this$[ebp]
	mov	ecx, DWORD PTR _i$[ebp]
	cmp	ecx, DWORD PTR [eax+4]
	jge	SHORT $LN3@IsIdxValid
	mov	DWORD PTR tv67[ebp], 1
	jmp	SHORT $LN4@IsIdxValid
$LN3@IsIdxValid:
	mov	DWORD PTR tv67[ebp], 0
$LN4@IsIdxValid:
	mov	al, BYTE PTR tv67[ebp]

; 522  : }

	pop	edi
	pop	esi
	pop	ebx
	mov	esp, ebp
	pop	ebp
	ret	4
?IsIdxValid@?$CUtlMemory@Uikcontextikrule_t@@H@@QBE_NH@Z ENDP ; CUtlMemory<ikcontextikrule_t,int>::IsIdxValid
_TEXT	ENDS
; Function compile flags: /Odtp /ZI
; File d:\!diffusion 2020\source code 2022\client-server\game_shared\utlmemory.h
;	COMDAT ??A?$CUtlMemory@Uikcontextikrule_t@@H@@QAEAAUikcontextikrule_t@@H@Z
_TEXT	SEGMENT
_this$ = -4						; size = 4
_i$ = 8							; size = 4
??A?$CUtlMemory@Uikcontextikrule_t@@H@@QAEAAUikcontextikrule_t@@H@Z PROC ; CUtlMemory<ikcontextikrule_t,int>::operator[], COMDAT
; _this$ = ecx

; 423  : {

	push	ebp
	mov	ebp, esp
	sub	esp, 68					; 00000044H
	push	ebx
	push	esi
	push	edi
	mov	DWORD PTR _this$[ebp], ecx

; 424  : 	assert( !IsReadOnly() );

	mov	ecx, DWORD PTR _this$[ebp]
	call	?IsReadOnly@?$CUtlMemory@Uikcontextikrule_t@@H@@QBE_NXZ ; CUtlMemory<ikcontextikrule_t,int>::IsReadOnly
	movzx	eax, al
	test	eax, eax
	je	SHORT $LN3@operator
	push	424					; 000001a8H
	push	OFFSET ??_C@_1JE@CIIIAKCN@?$AAd?$AA?3?$AA?2?$AA?$CB?$AAd?$AAi?$AAf?$AAf?$AAu?$AAs?$AAi?$AAo?$AAn?$AA?5?$AA2?$AA0?$AA2?$AA0?$AA?2?$AAs?$AAo?$AAu?$AAr?$AAc?$AAe?$AA?5?$AAc?$AAo?$AAd?$AAe?$AA?5?$AA2@
	push	OFFSET ??_C@_1BM@PFNFCCHH@?$AA?$CB?$AAI?$AAs?$AAR?$AAe?$AAa?$AAd?$AAO?$AAn?$AAl?$AAy?$AA?$CI?$AA?$CJ?$AA?$AA@
	call	__wassert
	add	esp, 12					; 0000000cH
$LN3@operator:

; 425  : 	assert( IsIdxValid(i) );

	mov	eax, DWORD PTR _i$[ebp]
	push	eax
	mov	ecx, DWORD PTR _this$[ebp]
	call	?IsIdxValid@?$CUtlMemory@Uikcontextikrule_t@@H@@QBE_NH@Z ; CUtlMemory<ikcontextikrule_t,int>::IsIdxValid
	movzx	ecx, al
	test	ecx, ecx
	jne	SHORT $LN4@operator
	push	425					; 000001a9H
	push	OFFSET ??_C@_1JE@CIIIAKCN@?$AAd?$AA?3?$AA?2?$AA?$CB?$AAd?$AAi?$AAf?$AAf?$AAu?$AAs?$AAi?$AAo?$AAn?$AA?5?$AA2?$AA0?$AA2?$AA0?$AA?2?$AAs?$AAo?$AAu?$AAr?$AAc?$AAe?$AA?5?$AAc?$AAo?$AAd?$AAe?$AA?5?$AA2@
	push	OFFSET ??_C@_1BM@CKILBAKK@?$AAI?$AAs?$AAI?$AAd?$AAx?$AAV?$AAa?$AAl?$AAi?$AAd?$AA?$CI?$AAi?$AA?$CJ?$AA?$AA@
	call	__wassert
	add	esp, 12					; 0000000cH
$LN4@operator:

; 426  : 	return m_pMemory[i];

	imul	eax, DWORD PTR _i$[ebp], 132
	mov	ecx, DWORD PTR _this$[ebp]
	add	eax, DWORD PTR [ecx]

; 427  : }

	pop	edi
	pop	esi
	pop	ebx
	mov	esp, ebp
	pop	ebp
	ret	4
??A?$CUtlMemory@Uikcontextikrule_t@@H@@QAEAAUikcontextikrule_t@@H@Z ENDP ; CUtlMemory<ikcontextikrule_t,int>::operator[]
_TEXT	ENDS
; Function compile flags: /Odtp /ZI
; File d:\!diffusion 2020\source code 2022\client-server\game_shared\utlmemory.h
;	COMDAT ??1?$CUtlMemory@Uikcontextikrule_t@@H@@QAE@XZ
_TEXT	SEGMENT
_this$ = -16						; size = 4
__$EHRec$ = -12						; size = 12
??1?$CUtlMemory@Uikcontextikrule_t@@H@@QAE@XZ PROC	; CUtlMemory<ikcontextikrule_t,int>::~CUtlMemory<ikcontextikrule_t,int>, COMDAT
; _this$ = ecx

; 322  : {

	push	ebp
	mov	ebp, esp
	push	-1
	push	__ehhandler$??1?$CUtlMemory@Uikcontextikrule_t@@H@@QAE@XZ
	mov	eax, DWORD PTR fs:0
	push	eax
	sub	esp, 68					; 00000044H
	push	ebx
	push	esi
	push	edi
	mov	eax, DWORD PTR ___security_cookie
	xor	eax, ebp
	push	eax
	lea	eax, DWORD PTR __$EHRec$[ebp]
	mov	DWORD PTR fs:0, eax
	mov	DWORD PTR _this$[ebp], ecx

; 323  : 	Purge();

	mov	ecx, DWORD PTR _this$[ebp]
	call	?Purge@?$CUtlMemory@Uikcontextikrule_t@@H@@QAEXXZ ; CUtlMemory<ikcontextikrule_t,int>::Purge

; 324  : }

	mov	ecx, DWORD PTR __$EHRec$[ebp]
	mov	DWORD PTR fs:0, ecx
	pop	ecx
	pop	edi
	pop	esi
	pop	ebx
	mov	esp, ebp
	pop	ebp
	ret	0
_TEXT	ENDS
;	COMDAT text$x
text$x	SEGMENT
__ehhandler$??1?$CUtlMemory@Uikcontextikrule_t@@H@@QAE@XZ:
	mov	edx, DWORD PTR [esp+8]
	lea	eax, DWORD PTR [edx+12]
	mov	ecx, DWORD PTR [edx-84]
	xor	ecx, eax
	call	@__security_check_cookie@4
	mov	eax, OFFSET __ehfuncinfo$??1?$CUtlMemory@Uikcontextikrule_t@@H@@QAE@XZ
	jmp	___CxxFrameHandler3
text$x	ENDS
??1?$CUtlMemory@Uikcontextikrule_t@@H@@QAE@XZ ENDP	; CUtlMemory<ikcontextikrule_t,int>::~CUtlMemory<ikcontextikrule_t,int>
; Function compile flags: /Odtp /ZI
; File d:\!diffusion 2020\source code 2022\client-server\game_shared\utlarray.h
;	COMDAT ?Purge@?$CUtlArray@Uikcontextikrule_t@@V?$CUtlMemory@Uikcontextikrule_t@@H@@@@QAEXXZ
_TEXT	SEGMENT
_this$ = -4						; size = 4
?Purge@?$CUtlArray@Uikcontextikrule_t@@V?$CUtlMemory@Uikcontextikrule_t@@H@@@@QAEXXZ PROC ; CUtlArray<ikcontextikrule_t,CUtlMemory<ikcontextikrule_t,int> >::Purge, COMDAT
; _this$ = ecx

; 742  : {

	push	ebp
	mov	ebp, esp
	sub	esp, 68					; 00000044H
	push	ebx
	push	esi
	push	edi
	mov	DWORD PTR _this$[ebp], ecx

; 743  : 	RemoveAll();

	mov	ecx, DWORD PTR _this$[ebp]
	call	?RemoveAll@?$CUtlArray@Uikcontextikrule_t@@V?$CUtlMemory@Uikcontextikrule_t@@H@@@@QAEXXZ ; CUtlArray<ikcontextikrule_t,CUtlMemory<ikcontextikrule_t,int> >::RemoveAll

; 744  : 	m_Memory.Purge();

	mov	ecx, DWORD PTR _this$[ebp]
	call	?Purge@?$CUtlMemory@Uikcontextikrule_t@@H@@QAEXXZ ; CUtlMemory<ikcontextikrule_t,int>::Purge

; 745  : 	ResetDbgInfo();

	mov	ecx, DWORD PTR _this$[ebp]
	call	?ResetDbgInfo@?$CUtlArray@Uikcontextikrule_t@@V?$CUtlMemory@Uikcontextikrule_t@@H@@@@IAEXXZ ; CUtlArray<ikcontextikrule_t,CUtlMemory<ikcontextikrule_t,int> >::ResetDbgInfo

; 746  : }

	pop	edi
	pop	esi
	pop	ebx
	mov	esp, ebp
	pop	ebp
	ret	0
?Purge@?$CUtlArray@Uikcontextikrule_t@@V?$CUtlMemory@Uikcontextikrule_t@@H@@@@QAEXXZ ENDP ; CUtlArray<ikcontextikrule_t,CUtlMemory<ikcontextikrule_t,int> >::Purge
_TEXT	ENDS
; Function compile flags: /Odtp /ZI
; File d:\!diffusion 2020\source code 2022\client-server\game_shared\utlarray.h
;	COMDAT ?RemoveAll@?$CUtlArray@Uikcontextikrule_t@@V?$CUtlMemory@Uikcontextikrule_t@@H@@@@QAEXXZ
_TEXT	SEGMENT
_i$1 = -8						; size = 4
_this$ = -4						; size = 4
?RemoveAll@?$CUtlArray@Uikcontextikrule_t@@V?$CUtlMemory@Uikcontextikrule_t@@H@@@@QAEXXZ PROC ; CUtlArray<ikcontextikrule_t,CUtlMemory<ikcontextikrule_t,int> >::RemoveAll, COMDAT
; _this$ = ecx

; 726  : {

	push	ebp
	mov	ebp, esp
	sub	esp, 72					; 00000048H
	push	ebx
	push	esi
	push	edi
	mov	DWORD PTR _this$[ebp], ecx

; 727  : 	for (int i = m_Size; --i >= 0; )

	mov	eax, DWORD PTR _this$[ebp]
	mov	ecx, DWORD PTR [eax+12]
	mov	DWORD PTR _i$1[ebp], ecx
$LN4@RemoveAll:
	mov	eax, DWORD PTR _i$1[ebp]
	sub	eax, 1
	mov	DWORD PTR _i$1[ebp], eax
	js	SHORT $LN3@RemoveAll

; 728  : 	{
; 729  : 		Destruct(&Element(i));

	mov	eax, DWORD PTR _i$1[ebp]
	push	eax
	mov	ecx, DWORD PTR _this$[ebp]
	call	?Element@?$CUtlArray@Uikcontextikrule_t@@V?$CUtlMemory@Uikcontextikrule_t@@H@@@@QAEAAUikcontextikrule_t@@H@Z ; CUtlArray<ikcontextikrule_t,CUtlMemory<ikcontextikrule_t,int> >::Element
	push	eax
	call	??$Destruct@Uikcontextikrule_t@@@@YAXPAUikcontextikrule_t@@@Z ; Destruct<ikcontextikrule_t>
	add	esp, 4

; 730  : 	}

	jmp	SHORT $LN4@RemoveAll
$LN3@RemoveAll:

; 731  : 
; 732  : 	m_Size = 0;

	mov	eax, DWORD PTR _this$[ebp]
	mov	DWORD PTR [eax+12], 0

; 733  : }

	pop	edi
	pop	esi
	pop	ebx
	mov	esp, ebp
	pop	ebp
	ret	0
?RemoveAll@?$CUtlArray@Uikcontextikrule_t@@V?$CUtlMemory@Uikcontextikrule_t@@H@@@@QAEXXZ ENDP ; CUtlArray<ikcontextikrule_t,CUtlMemory<ikcontextikrule_t,int> >::RemoveAll
_TEXT	ENDS
; Function compile flags: /Odtp /ZI
; File d:\!diffusion 2020\source code 2022\client-server\game_shared\utlarray.h
;	COMDAT ?Base@?$CUtlArray@Uikcontextikrule_t@@V?$CUtlMemory@Uikcontextikrule_t@@H@@@@QAEPAUikcontextikrule_t@@XZ
_TEXT	SEGMENT
_this$ = -4						; size = 4
?Base@?$CUtlArray@Uikcontextikrule_t@@V?$CUtlMemory@Uikcontextikrule_t@@H@@@@QAEPAUikcontextikrule_t@@XZ PROC ; CUtlArray<ikcontextikrule_t,CUtlMemory<ikcontextikrule_t,int> >::Base, COMDAT
; _this$ = ecx

; 60   : 	T* Base()								{ return m_Memory.Base(); }

	push	ebp
	mov	ebp, esp
	sub	esp, 68					; 00000044H
	push	ebx
	push	esi
	push	edi
	mov	DWORD PTR _this$[ebp], ecx
	mov	ecx, DWORD PTR _this$[ebp]
	call	?Base@?$CUtlMemory@Uikcontextikrule_t@@H@@QAEPAUikcontextikrule_t@@XZ ; CUtlMemory<ikcontextikrule_t,int>::Base
	pop	edi
	pop	esi
	pop	ebx
	mov	esp, ebp
	pop	ebp
	ret	0
?Base@?$CUtlArray@Uikcontextikrule_t@@V?$CUtlMemory@Uikcontextikrule_t@@H@@@@QAEPAUikcontextikrule_t@@XZ ENDP ; CUtlArray<ikcontextikrule_t,CUtlMemory<ikcontextikrule_t,int> >::Base
_TEXT	ENDS
; Function compile flags: /Odtp /ZI
; File d:\!diffusion 2020\source code 2022\client-server\game_shared\utlarray.h
;	COMDAT ?Element@?$CUtlArray@Uikcontextikrule_t@@V?$CUtlMemory@Uikcontextikrule_t@@H@@@@QAEAAUikcontextikrule_t@@H@Z
_TEXT	SEGMENT
_this$ = -4						; size = 4
_i$ = 8							; size = 4
?Element@?$CUtlArray@Uikcontextikrule_t@@V?$CUtlMemory@Uikcontextikrule_t@@H@@@@QAEAAUikcontextikrule_t@@H@Z PROC ; CUtlArray<ikcontextikrule_t,CUtlMemory<ikcontextikrule_t,int> >::Element, COMDAT
; _this$ = ecx

; 294  : {

	push	ebp
	mov	ebp, esp
	sub	esp, 68					; 00000044H
	push	ebx
	push	esi
	push	edi
	mov	DWORD PTR _this$[ebp], ecx

; 295  : 	return m_Memory[ i ];

	mov	eax, DWORD PTR _i$[ebp]
	push	eax
	mov	ecx, DWORD PTR _this$[ebp]
	call	??A?$CUtlMemory@Uikcontextikrule_t@@H@@QAEAAUikcontextikrule_t@@H@Z ; CUtlMemory<ikcontextikrule_t,int>::operator[]

; 296  : }

	pop	edi
	pop	esi
	pop	ebx
	mov	esp, ebp
	pop	ebp
	ret	4
?Element@?$CUtlArray@Uikcontextikrule_t@@V?$CUtlMemory@Uikcontextikrule_t@@H@@@@QAEAAUikcontextikrule_t@@H@Z ENDP ; CUtlArray<ikcontextikrule_t,CUtlMemory<ikcontextikrule_t,int> >::Element
_TEXT	ENDS
; Function compile flags: /Odtp /ZI
; File d:\!diffusion 2020\source code 2022\client-server\game_shared\utlarray.h
;	COMDAT ??1?$CUtlArray@Uikcontextikrule_t@@V?$CUtlMemory@Uikcontextikrule_t@@H@@@@QAE@XZ
_TEXT	SEGMENT
_this$ = -16						; size = 4
__$EHRec$ = -12						; size = 12
??1?$CUtlArray@Uikcontextikrule_t@@V?$CUtlMemory@Uikcontextikrule_t@@H@@@@QAE@XZ PROC ; CUtlArray<ikcontextikrule_t,CUtlMemory<ikcontextikrule_t,int> >::~CUtlArray<ikcontextikrule_t,CUtlMemory<ikcontextikrule_t,int> >, COMDAT
; _this$ = ecx

; 260  : {

	push	ebp
	mov	ebp, esp
	push	-1
	push	__ehhandler$??1?$CUtlArray@Uikcontextikrule_t@@V?$CUtlMemory@Uikcontextikrule_t@@H@@@@QAE@XZ
	mov	eax, DWORD PTR fs:0
	push	eax
	sub	esp, 68					; 00000044H
	push	ebx
	push	esi
	push	edi
	mov	eax, DWORD PTR ___security_cookie
	xor	eax, ebp
	push	eax
	lea	eax, DWORD PTR __$EHRec$[ebp]
	mov	DWORD PTR fs:0, eax
	mov	DWORD PTR _this$[ebp], ecx

; 261  : 	Purge();

	mov	ecx, DWORD PTR _this$[ebp]
	call	?Purge@?$CUtlArray@Uikcontextikrule_t@@V?$CUtlMemory@Uikcontextikrule_t@@H@@@@QAEXXZ ; CUtlArray<ikcontextikrule_t,CUtlMemory<ikcontextikrule_t,int> >::Purge

; 262  : }

	mov	ecx, DWORD PTR _this$[ebp]
	call	??1?$CUtlMemory@Uikcontextikrule_t@@H@@QAE@XZ ; CUtlMemory<ikcontextikrule_t,int>::~CUtlMemory<ikcontextikrule_t,int>
	mov	ecx, DWORD PTR __$EHRec$[ebp]
	mov	DWORD PTR fs:0, ecx
	pop	ecx
	pop	edi
	pop	esi
	pop	ebx
	mov	esp, ebp
	pop	ebp
	ret	0
_TEXT	ENDS
;	COMDAT text$x
text$x	SEGMENT
__ehhandler$??1?$CUtlArray@Uikcontextikrule_t@@V?$CUtlMemory@Uikcontextikrule_t@@H@@@@QAE@XZ:
	mov	edx, DWORD PTR [esp+8]
	lea	eax, DWORD PTR [edx+12]
	mov	ecx, DWORD PTR [edx-84]
	xor	ecx, eax
	call	@__security_check_cookie@4
	mov	eax, OFFSET __ehfuncinfo$??1?$CUtlArray@Uikcontextikrule_t@@V?$CUtlMemory@Uikcontextikrule_t@@H@@@@QAE@XZ
	jmp	___CxxFrameHandler3
text$x	ENDS
??1?$CUtlArray@Uikcontextikrule_t@@V?$CUtlMemory@Uikcontextikrule_t@@H@@@@QAE@XZ ENDP ; CUtlArray<ikcontextikrule_t,CUtlMemory<ikcontextikrule_t,int> >::~CUtlArray<ikcontextikrule_t,CUtlMemory<ikcontextikrule_t,int> >
; Function compile flags: /Odtp /ZI
; File d:\!diffusion 2020\source code 2022\client-server\game_shared\utlarray.h
;	COMDAT ?ResetDbgInfo@?$CUtlArray@V?$CUtlArray@Uikcontextikrule_t@@V?$CUtlMemory@Uikcontextikrule_t@@H@@@@V?$CUtlMemory@V?$CUtlArray@Uikcontextikrule_t@@V?$CUtlMemory@Uikcontextikrule_t@@H@@@@H@@@@IAEXXZ
_TEXT	SEGMENT
_this$ = -4						; size = 4
?ResetDbgInfo@?$CUtlArray@V?$CUtlArray@Uikcontextikrule_t@@V?$CUtlMemory@Uikcontextikrule_t@@H@@@@V?$CUtlMemory@V?$CUtlArray@Uikcontextikrule_t@@V?$CUtlMemory@Uikcontextikrule_t@@H@@@@H@@@@IAEXXZ PROC ; CUtlArray<CUtlArray<ikcontextikrule_t,CUtlMemory<ikcontextikrule_t,int> >,CUtlMemory<CUtlArray<ikcontextikrule_t,CUtlMemory<ikcontextikrule_t,int> >,int> >::ResetDbgInfo, COMDAT
; _this$ = ecx

; 160  : 	{

	push	ebp
	mov	ebp, esp
	sub	esp, 68					; 00000044H
	push	ebx
	push	esi
	push	edi
	mov	DWORD PTR _this$[ebp], ecx

; 161  : 		m_pElements = Base();

	mov	ecx, DWORD PTR _this$[ebp]
	call	?Base@?$CUtlArray@V?$CUtlArray@Uikcontextikrule_t@@V?$CUtlMemory@Uikcontextikrule_t@@H@@@@V?$CUtlMemory@V?$CUtlArray@Uikcontextikrule_t@@V?$CUtlMemory@Uikcontextikrule_t@@H@@@@H@@@@QAEPAV?$CUtlArray@Uikcontextikrule_t@@V?$CUtlMemory@Uikcontextikrule_t@@H@@@@XZ ; CUtlArray<CUtlArray<ikcontextikrule_t,CUtlMemory<ikcontextikrule_t,int> >,CUtlMemory<CUtlArray<ikcontextikrule_t,CUtlMemory<ikcontextikrule_t,int> >,int> >::Base
	mov	ecx, DWORD PTR _this$[ebp]
	mov	DWORD PTR [ecx+16], eax

; 162  : 	}

	pop	edi
	pop	esi
	pop	ebx
	mov	esp, ebp
	pop	ebp
	ret	0
?ResetDbgInfo@?$CUtlArray@V?$CUtlArray@Uikcontextikrule_t@@V?$CUtlMemory@Uikcontextikrule_t@@H@@@@V?$CUtlMemory@V?$CUtlArray@Uikcontextikrule_t@@V?$CUtlMemory@Uikcontextikrule_t@@H@@@@H@@@@IAEXXZ ENDP ; CUtlArray<CUtlArray<ikcontextikrule_t,CUtlMemory<ikcontextikrule_t,int> >,CUtlMemory<CUtlArray<ikcontextikrule_t,CUtlMemory<ikcontextikrule_t,int> >,int> >::ResetDbgInfo
_TEXT	ENDS
; Function compile flags: /Odtp /ZI
; File d:\!diffusion 2020\source code 2022\client-server\game_shared\utlmemory.h
;	COMDAT ?IsReadOnly@?$CUtlMemory@V?$CUtlArray@Uikcontextikrule_t@@V?$CUtlMemory@Uikcontextikrule_t@@H@@@@H@@QBE_NXZ
_TEXT	SEGMENT
tv66 = -72						; size = 4
_this$ = -4						; size = 4
?IsReadOnly@?$CUtlMemory@V?$CUtlArray@Uikcontextikrule_t@@V?$CUtlMemory@Uikcontextikrule_t@@H@@@@H@@QBE_NXZ PROC ; CUtlMemory<CUtlArray<ikcontextikrule_t,CUtlMemory<ikcontextikrule_t,int> >,int>::IsReadOnly, COMDAT
; _this$ = ecx

; 467  : {

	push	ebp
	mov	ebp, esp
	sub	esp, 72					; 00000048H
	push	ebx
	push	esi
	push	edi
	mov	DWORD PTR _this$[ebp], ecx

; 468  : 	return (m_nGrowSize == EXTERNAL_CONST_BUFFER_MARKER);

	mov	eax, DWORD PTR _this$[ebp]
	cmp	DWORD PTR [eax+8], -2			; fffffffeH
	jne	SHORT $LN3@IsReadOnly
	mov	DWORD PTR tv66[ebp], 1
	jmp	SHORT $LN4@IsReadOnly
$LN3@IsReadOnly:
	mov	DWORD PTR tv66[ebp], 0
$LN4@IsReadOnly:
	mov	al, BYTE PTR tv66[ebp]

; 469  : }

	pop	edi
	pop	esi
	pop	ebx
	mov	esp, ebp
	pop	ebp
	ret	0
?IsReadOnly@?$CUtlMemory@V?$CUtlArray@Uikcontextikrule_t@@V?$CUtlMemory@Uikcontextikrule_t@@H@@@@H@@QBE_NXZ ENDP ; CUtlMemory<CUtlArray<ikcontextikrule_t,CUtlMemory<ikcontextikrule_t,int> >,int>::IsReadOnly
_TEXT	ENDS
; Function compile flags: /Odtp /ZI
; File d:\!diffusion 2020\source code 2022\client-server\game_shared\utlmemory.h
;	COMDAT ?IsExternallyAllocated@?$CUtlMemory@V?$CUtlArray@Uikcontextikrule_t@@V?$CUtlMemory@Uikcontextikrule_t@@H@@@@H@@QBE_NXZ
_TEXT	SEGMENT
tv66 = -72						; size = 4
_this$ = -4						; size = 4
?IsExternallyAllocated@?$CUtlMemory@V?$CUtlArray@Uikcontextikrule_t@@V?$CUtlMemory@Uikcontextikrule_t@@H@@@@H@@QBE_NXZ PROC ; CUtlMemory<CUtlArray<ikcontextikrule_t,CUtlMemory<ikcontextikrule_t,int> >,int>::IsExternallyAllocated, COMDAT
; _this$ = ecx

; 457  : {

	push	ebp
	mov	ebp, esp
	sub	esp, 72					; 00000048H
	push	ebx
	push	esi
	push	edi
	mov	DWORD PTR _this$[ebp], ecx

; 458  : 	return (m_nGrowSize < 0);

	mov	eax, DWORD PTR _this$[ebp]
	cmp	DWORD PTR [eax+8], 0
	jge	SHORT $LN3@IsExternal
	mov	DWORD PTR tv66[ebp], 1
	jmp	SHORT $LN4@IsExternal
$LN3@IsExternal:
	mov	DWORD PTR tv66[ebp], 0
$LN4@IsExternal:
	mov	al, BYTE PTR tv66[ebp]

; 459  : }

	pop	edi
	pop	esi
	pop	ebx
	mov	esp, ebp
	pop	ebp
	ret	0
?IsExternallyAllocated@?$CUtlMemory@V?$CUtlArray@Uikcontextikrule_t@@V?$CUtlMemory@Uikcontextikrule_t@@H@@@@H@@QBE_NXZ ENDP ; CUtlMemory<CUtlArray<ikcontextikrule_t,CUtlMemory<ikcontextikrule_t,int> >,int>::IsExternallyAllocated
_TEXT	ENDS
; Function compile flags: /Odtp /ZI
; File d:\!diffusion 2020\source code 2022\client-server\game_shared\utlmemory.h
;	COMDAT ?Purge@?$CUtlMemory@V?$CUtlArray@Uikcontextikrule_t@@V?$CUtlMemory@Uikcontextikrule_t@@H@@@@H@@QAEXXZ
_TEXT	SEGMENT
_this$ = -4						; size = 4
?Purge@?$CUtlMemory@V?$CUtlArray@Uikcontextikrule_t@@V?$CUtlMemory@Uikcontextikrule_t@@H@@@@H@@QAEXXZ PROC ; CUtlMemory<CUtlArray<ikcontextikrule_t,CUtlMemory<ikcontextikrule_t,int> >,int>::Purge, COMDAT
; _this$ = ecx

; 645  : {

	push	ebp
	mov	ebp, esp
	sub	esp, 68					; 00000044H
	push	ebx
	push	esi
	push	edi
	mov	DWORD PTR _this$[ebp], ecx

; 646  : 	if ( !IsExternallyAllocated() )

	mov	ecx, DWORD PTR _this$[ebp]
	call	?IsExternallyAllocated@?$CUtlMemory@V?$CUtlArray@Uikcontextikrule_t@@V?$CUtlMemory@Uikcontextikrule_t@@H@@@@H@@QBE_NXZ ; CUtlMemory<CUtlArray<ikcontextikrule_t,CUtlMemory<ikcontextikrule_t,int> >,int>::IsExternallyAllocated
	movzx	eax, al
	test	eax, eax
	jne	SHORT $LN1@Purge

; 647  : 	{
; 648  : 		if (m_pMemory)

	mov	eax, DWORD PTR _this$[ebp]
	cmp	DWORD PTR [eax], 0
	je	SHORT $LN3@Purge

; 649  : 		{
; 650  : 			free( (void*)m_pMemory );

	mov	eax, DWORD PTR _this$[ebp]
	mov	ecx, DWORD PTR [eax]
	push	ecx
	call	_free
	add	esp, 4

; 651  : 			m_pMemory = 0;

	mov	eax, DWORD PTR _this$[ebp]
	mov	DWORD PTR [eax], 0
$LN3@Purge:

; 652  : 		}
; 653  : 		m_nAllocationCount = 0;

	mov	eax, DWORD PTR _this$[ebp]
	mov	DWORD PTR [eax+4], 0
$LN1@Purge:

; 654  : 	}
; 655  : }

	pop	edi
	pop	esi
	pop	ebx
	mov	esp, ebp
	pop	ebp
	ret	0
?Purge@?$CUtlMemory@V?$CUtlArray@Uikcontextikrule_t@@V?$CUtlMemory@Uikcontextikrule_t@@H@@@@H@@QAEXXZ ENDP ; CUtlMemory<CUtlArray<ikcontextikrule_t,CUtlMemory<ikcontextikrule_t,int> >,int>::Purge
_TEXT	ENDS
; Function compile flags: /Odtp /ZI
; File d:\!diffusion 2020\source code 2022\client-server\game_shared\utlmemory.h
;	COMDAT ?Base@?$CUtlMemory@V?$CUtlArray@Uikcontextikrule_t@@V?$CUtlMemory@Uikcontextikrule_t@@H@@@@H@@QAEPAV?$CUtlArray@Uikcontextikrule_t@@V?$CUtlMemory@Uikcontextikrule_t@@H@@@@XZ
_TEXT	SEGMENT
_this$ = -4						; size = 4
?Base@?$CUtlMemory@V?$CUtlArray@Uikcontextikrule_t@@V?$CUtlMemory@Uikcontextikrule_t@@H@@@@H@@QAEPAV?$CUtlArray@Uikcontextikrule_t@@V?$CUtlMemory@Uikcontextikrule_t@@H@@@@XZ PROC ; CUtlMemory<CUtlArray<ikcontextikrule_t,CUtlMemory<ikcontextikrule_t,int> >,int>::Base, COMDAT
; _this$ = ecx

; 487  : {

	push	ebp
	mov	ebp, esp
	sub	esp, 68					; 00000044H
	push	ebx
	push	esi
	push	edi
	mov	DWORD PTR _this$[ebp], ecx

; 488  : 	assert( !IsReadOnly() );

	mov	ecx, DWORD PTR _this$[ebp]
	call	?IsReadOnly@?$CUtlMemory@V?$CUtlArray@Uikcontextikrule_t@@V?$CUtlMemory@Uikcontextikrule_t@@H@@@@H@@QBE_NXZ ; CUtlMemory<CUtlArray<ikcontextikrule_t,CUtlMemory<ikcontextikrule_t,int> >,int>::IsReadOnly
	movzx	eax, al
	test	eax, eax
	je	SHORT $LN3@Base
	push	488					; 000001e8H
	push	OFFSET ??_C@_1JE@CIIIAKCN@?$AAd?$AA?3?$AA?2?$AA?$CB?$AAd?$AAi?$AAf?$AAf?$AAu?$AAs?$AAi?$AAo?$AAn?$AA?5?$AA2?$AA0?$AA2?$AA0?$AA?2?$AAs?$AAo?$AAu?$AAr?$AAc?$AAe?$AA?5?$AAc?$AAo?$AAd?$AAe?$AA?5?$AA2@
	push	OFFSET ??_C@_1BM@PFNFCCHH@?$AA?$CB?$AAI?$AAs?$AAR?$AAe?$AAa?$AAd?$AAO?$AAn?$AAl?$AAy?$AA?$CI?$AA?$CJ?$AA?$AA@
	call	__wassert
	add	esp, 12					; 0000000cH
$LN3@Base:

; 489  : 	return m_pMemory;

	mov	eax, DWORD PTR _this$[ebp]
	mov	eax, DWORD PTR [eax]

; 490  : }

	pop	edi
	pop	esi
	pop	ebx
	mov	esp, ebp
	pop	ebp
	ret	0
?Base@?$CUtlMemory@V?$CUtlArray@Uikcontextikrule_t@@V?$CUtlMemory@Uikcontextikrule_t@@H@@@@H@@QAEPAV?$CUtlArray@Uikcontextikrule_t@@V?$CUtlMemory@Uikcontextikrule_t@@H@@@@XZ ENDP ; CUtlMemory<CUtlArray<ikcontextikrule_t,CUtlMemory<ikcontextikrule_t,int> >,int>::Base
_TEXT	ENDS
; Function compile flags: /Odtp /ZI
; File d:\!diffusion 2020\source code 2022\client-server\game_shared\utlmemory.h
;	COMDAT ?IsIdxValid@?$CUtlMemory@V?$CUtlArray@Uikcontextikrule_t@@V?$CUtlMemory@Uikcontextikrule_t@@H@@@@H@@QBE_NH@Z
_TEXT	SEGMENT
tv67 = -72						; size = 4
_this$ = -4						; size = 4
_i$ = 8							; size = 4
?IsIdxValid@?$CUtlMemory@V?$CUtlArray@Uikcontextikrule_t@@V?$CUtlMemory@Uikcontextikrule_t@@H@@@@H@@QBE_NH@Z PROC ; CUtlMemory<CUtlArray<ikcontextikrule_t,CUtlMemory<ikcontextikrule_t,int> >,int>::IsIdxValid, COMDAT
; _this$ = ecx

; 520  : {

	push	ebp
	mov	ebp, esp
	sub	esp, 72					; 00000048H
	push	ebx
	push	esi
	push	edi
	mov	DWORD PTR _this$[ebp], ecx

; 521  : 	return ( ((int) i) >= 0 ) && ( ((int) i) < m_nAllocationCount );

	cmp	DWORD PTR _i$[ebp], 0
	jl	SHORT $LN3@IsIdxValid
	mov	eax, DWORD PTR _this$[ebp]
	mov	ecx, DWORD PTR _i$[ebp]
	cmp	ecx, DWORD PTR [eax+4]
	jge	SHORT $LN3@IsIdxValid
	mov	DWORD PTR tv67[ebp], 1
	jmp	SHORT $LN4@IsIdxValid
$LN3@IsIdxValid:
	mov	DWORD PTR tv67[ebp], 0
$LN4@IsIdxValid:
	mov	al, BYTE PTR tv67[ebp]

; 522  : }

	pop	edi
	pop	esi
	pop	ebx
	mov	esp, ebp
	pop	ebp
	ret	4
?IsIdxValid@?$CUtlMemory@V?$CUtlArray@Uikcontextikrule_t@@V?$CUtlMemory@Uikcontextikrule_t@@H@@@@H@@QBE_NH@Z ENDP ; CUtlMemory<CUtlArray<ikcontextikrule_t,CUtlMemory<ikcontextikrule_t,int> >,int>::IsIdxValid
_TEXT	ENDS
; Function compile flags: /Odtp /ZI
; File d:\!diffusion 2020\source code 2022\client-server\game_shared\utlmemory.h
;	COMDAT ??A?$CUtlMemory@V?$CUtlArray@Uikcontextikrule_t@@V?$CUtlMemory@Uikcontextikrule_t@@H@@@@H@@QAEAAV?$CUtlArray@Uikcontextikrule_t@@V?$CUtlMemory@Uikcontextikrule_t@@H@@@@H@Z
_TEXT	SEGMENT
_this$ = -4						; size = 4
_i$ = 8							; size = 4
??A?$CUtlMemory@V?$CUtlArray@Uikcontextikrule_t@@V?$CUtlMemory@Uikcontextikrule_t@@H@@@@H@@QAEAAV?$CUtlArray@Uikcontextikrule_t@@V?$CUtlMemory@Uikcontextikrule_t@@H@@@@H@Z PROC ; CUtlMemory<CUtlArray<ikcontextikrule_t,CUtlMemory<ikcontextikrule_t,int> >,int>::operator[], COMDAT
; _this$ = ecx

; 423  : {

	push	ebp
	mov	ebp, esp
	sub	esp, 68					; 00000044H
	push	ebx
	push	esi
	push	edi
	mov	DWORD PTR _this$[ebp], ecx

; 424  : 	assert( !IsReadOnly() );

	mov	ecx, DWORD PTR _this$[ebp]
	call	?IsReadOnly@?$CUtlMemory@V?$CUtlArray@Uikcontextikrule_t@@V?$CUtlMemory@Uikcontextikrule_t@@H@@@@H@@QBE_NXZ ; CUtlMemory<CUtlArray<ikcontextikrule_t,CUtlMemory<ikcontextikrule_t,int> >,int>::IsReadOnly
	movzx	eax, al
	test	eax, eax
	je	SHORT $LN3@operator
	push	424					; 000001a8H
	push	OFFSET ??_C@_1JE@CIIIAKCN@?$AAd?$AA?3?$AA?2?$AA?$CB?$AAd?$AAi?$AAf?$AAf?$AAu?$AAs?$AAi?$AAo?$AAn?$AA?5?$AA2?$AA0?$AA2?$AA0?$AA?2?$AAs?$AAo?$AAu?$AAr?$AAc?$AAe?$AA?5?$AAc?$AAo?$AAd?$AAe?$AA?5?$AA2@
	push	OFFSET ??_C@_1BM@PFNFCCHH@?$AA?$CB?$AAI?$AAs?$AAR?$AAe?$AAa?$AAd?$AAO?$AAn?$AAl?$AAy?$AA?$CI?$AA?$CJ?$AA?$AA@
	call	__wassert
	add	esp, 12					; 0000000cH
$LN3@operator:

; 425  : 	assert( IsIdxValid(i) );

	mov	eax, DWORD PTR _i$[ebp]
	push	eax
	mov	ecx, DWORD PTR _this$[ebp]
	call	?IsIdxValid@?$CUtlMemory@V?$CUtlArray@Uikcontextikrule_t@@V?$CUtlMemory@Uikcontextikrule_t@@H@@@@H@@QBE_NH@Z ; CUtlMemory<CUtlArray<ikcontextikrule_t,CUtlMemory<ikcontextikrule_t,int> >,int>::IsIdxValid
	movzx	ecx, al
	test	ecx, ecx
	jne	SHORT $LN4@operator
	push	425					; 000001a9H
	push	OFFSET ??_C@_1JE@CIIIAKCN@?$AAd?$AA?3?$AA?2?$AA?$CB?$AAd?$AAi?$AAf?$AAf?$AAu?$AAs?$AAi?$AAo?$AAn?$AA?5?$AA2?$AA0?$AA2?$AA0?$AA?2?$AAs?$AAo?$AAu?$AAr?$AAc?$AAe?$AA?5?$AAc?$AAo?$AAd?$AAe?$AA?5?$AA2@
	push	OFFSET ??_C@_1BM@CKILBAKK@?$AAI?$AAs?$AAI?$AAd?$AAx?$AAV?$AAa?$AAl?$AAi?$AAd?$AA?$CI?$AAi?$AA?$CJ?$AA?$AA@
	call	__wassert
	add	esp, 12					; 0000000cH
$LN4@operator:

; 426  : 	return m_pMemory[i];

	imul	eax, DWORD PTR _i$[ebp], 20
	mov	ecx, DWORD PTR _this$[ebp]
	add	eax, DWORD PTR [ecx]

; 427  : }

	pop	edi
	pop	esi
	pop	ebx
	mov	esp, ebp
	pop	ebp
	ret	4
??A?$CUtlMemory@V?$CUtlArray@Uikcontextikrule_t@@V?$CUtlMemory@Uikcontextikrule_t@@H@@@@H@@QAEAAV?$CUtlArray@Uikcontextikrule_t@@V?$CUtlMemory@Uikcontextikrule_t@@H@@@@H@Z ENDP ; CUtlMemory<CUtlArray<ikcontextikrule_t,CUtlMemory<ikcontextikrule_t,int> >,int>::operator[]
_TEXT	ENDS
; Function compile flags: /Odtp /ZI
; File d:\!diffusion 2020\source code 2022\client-server\game_shared\utlmemory.h
;	COMDAT ??1?$CUtlMemory@V?$CUtlArray@Uikcontextikrule_t@@V?$CUtlMemory@Uikcontextikrule_t@@H@@@@H@@QAE@XZ
_TEXT	SEGMENT
_this$ = -16						; size = 4
__$EHRec$ = -12						; size = 12
??1?$CUtlMemory@V?$CUtlArray@Uikcontextikrule_t@@V?$CUtlMemory@Uikcontextikrule_t@@H@@@@H@@QAE@XZ PROC ; CUtlMemory<CUtlArray<ikcontextikrule_t,CUtlMemory<ikcontextikrule_t,int> >,int>::~CUtlMemory<CUtlArray<ikcontextikrule_t,CUtlMemory<ikcontextikrule_t,int> >,int>, COMDAT
; _this$ = ecx

; 322  : {

	push	ebp
	mov	ebp, esp
	push	-1
	push	__ehhandler$??1?$CUtlMemory@V?$CUtlArray@Uikcontextikrule_t@@V?$CUtlMemory@Uikcontextikrule_t@@H@@@@H@@QAE@XZ
	mov	eax, DWORD PTR fs:0
	push	eax
	sub	esp, 68					; 00000044H
	push	ebx
	push	esi
	push	edi
	mov	eax, DWORD PTR ___security_cookie
	xor	eax, ebp
	push	eax
	lea	eax, DWORD PTR __$EHRec$[ebp]
	mov	DWORD PTR fs:0, eax
	mov	DWORD PTR _this$[ebp], ecx

; 323  : 	Purge();

	mov	ecx, DWORD PTR _this$[ebp]
	call	?Purge@?$CUtlMemory@V?$CUtlArray@Uikcontextikrule_t@@V?$CUtlMemory@Uikcontextikrule_t@@H@@@@H@@QAEXXZ ; CUtlMemory<CUtlArray<ikcontextikrule_t,CUtlMemory<ikcontextikrule_t,int> >,int>::Purge

; 324  : }

	mov	ecx, DWORD PTR __$EHRec$[ebp]
	mov	DWORD PTR fs:0, ecx
	pop	ecx
	pop	edi
	pop	esi
	pop	ebx
	mov	esp, ebp
	pop	ebp
	ret	0
_TEXT	ENDS
;	COMDAT text$x
text$x	SEGMENT
__ehhandler$??1?$CUtlMemory@V?$CUtlArray@Uikcontextikrule_t@@V?$CUtlMemory@Uikcontextikrule_t@@H@@@@H@@QAE@XZ:
	mov	edx, DWORD PTR [esp+8]
	lea	eax, DWORD PTR [edx+12]
	mov	ecx, DWORD PTR [edx-84]
	xor	ecx, eax
	call	@__security_check_cookie@4
	mov	eax, OFFSET __ehfuncinfo$??1?$CUtlMemory@V?$CUtlArray@Uikcontextikrule_t@@V?$CUtlMemory@Uikcontextikrule_t@@H@@@@H@@QAE@XZ
	jmp	___CxxFrameHandler3
text$x	ENDS
??1?$CUtlMemory@V?$CUtlArray@Uikcontextikrule_t@@V?$CUtlMemory@Uikcontextikrule_t@@H@@@@H@@QAE@XZ ENDP ; CUtlMemory<CUtlArray<ikcontextikrule_t,CUtlMemory<ikcontextikrule_t,int> >,int>::~CUtlMemory<CUtlArray<ikcontextikrule_t,CUtlMemory<ikcontextikrule_t,int> >,int>
; Function compile flags: /Odtp /ZI
; File d:\!diffusion 2020\source code 2022\client-server\game_shared\utlarray.h
;	COMDAT ?Purge@?$CUtlArray@V?$CUtlArray@Uikcontextikrule_t@@V?$CUtlMemory@Uikcontextikrule_t@@H@@@@V?$CUtlMemory@V?$CUtlArray@Uikcontextikrule_t@@V?$CUtlMemory@Uikcontextikrule_t@@H@@@@H@@@@QAEXXZ
_TEXT	SEGMENT
_this$ = -4						; size = 4
?Purge@?$CUtlArray@V?$CUtlArray@Uikcontextikrule_t@@V?$CUtlMemory@Uikcontextikrule_t@@H@@@@V?$CUtlMemory@V?$CUtlArray@Uikcontextikrule_t@@V?$CUtlMemory@Uikcontextikrule_t@@H@@@@H@@@@QAEXXZ PROC ; CUtlArray<CUtlArray<ikcontextikrule_t,CUtlMemory<ikcontextikrule_t,int> >,CUtlMemory<CUtlArray<ikcontextikrule_t,CUtlMemory<ikcontextikrule_t,int> >,int> >::Purge, COMDAT
; _this$ = ecx

; 742  : {

	push	ebp
	mov	ebp, esp
	sub	esp, 68					; 00000044H
	push	ebx
	push	esi
	push	edi
	mov	DWORD PTR _this$[ebp], ecx

; 743  : 	RemoveAll();

	mov	ecx, DWORD PTR _this$[ebp]
	call	?RemoveAll@?$CUtlArray@V?$CUtlArray@Uikcontextikrule_t@@V?$CUtlMemory@Uikcontextikrule_t@@H@@@@V?$CUtlMemory@V?$CUtlArray@Uikcontextikrule_t@@V?$CUtlMemory@Uikcontextikrule_t@@H@@@@H@@@@QAEXXZ ; CUtlArray<CUtlArray<ikcontextikrule_t,CUtlMemory<ikcontextikrule_t,int> >,CUtlMemory<CUtlArray<ikcontextikrule_t,CUtlMemory<ikcontextikrule_t,int> >,int> >::RemoveAll

; 744  : 	m_Memory.Purge();

	mov	ecx, DWORD PTR _this$[ebp]
	call	?Purge@?$CUtlMemory@V?$CUtlArray@Uikcontextikrule_t@@V?$CUtlMemory@Uikcontextikrule_t@@H@@@@H@@QAEXXZ ; CUtlMemory<CUtlArray<ikcontextikrule_t,CUtlMemory<ikcontextikrule_t,int> >,int>::Purge

; 745  : 	ResetDbgInfo();

	mov	ecx, DWORD PTR _this$[ebp]
	call	?ResetDbgInfo@?$CUtlArray@V?$CUtlArray@Uikcontextikrule_t@@V?$CUtlMemory@Uikcontextikrule_t@@H@@@@V?$CUtlMemory@V?$CUtlArray@Uikcontextikrule_t@@V?$CUtlMemory@Uikcontextikrule_t@@H@@@@H@@@@IAEXXZ ; CUtlArray<CUtlArray<ikcontextikrule_t,CUtlMemory<ikcontextikrule_t,int> >,CUtlMemory<CUtlArray<ikcontextikrule_t,CUtlMemory<ikcontextikrule_t,int> >,int> >::ResetDbgInfo

; 746  : }

	pop	edi
	pop	esi
	pop	ebx
	mov	esp, ebp
	pop	ebp
	ret	0
?Purge@?$CUtlArray@V?$CUtlArray@Uikcontextikrule_t@@V?$CUtlMemory@Uikcontextikrule_t@@H@@@@V?$CUtlMemory@V?$CUtlArray@Uikcontextikrule_t@@V?$CUtlMemory@Uikcontextikrule_t@@H@@@@H@@@@QAEXXZ ENDP ; CUtlArray<CUtlArray<ikcontextikrule_t,CUtlMemory<ikcontextikrule_t,int> >,CUtlMemory<CUtlArray<ikcontextikrule_t,CUtlMemory<ikcontextikrule_t,int> >,int> >::Purge
_TEXT	ENDS
; Function compile flags: /Odtp /ZI
; File d:\!diffusion 2020\source code 2022\client-server\game_shared\utlarray.h
;	COMDAT ?RemoveAll@?$CUtlArray@V?$CUtlArray@Uikcontextikrule_t@@V?$CUtlMemory@Uikcontextikrule_t@@H@@@@V?$CUtlMemory@V?$CUtlArray@Uikcontextikrule_t@@V?$CUtlMemory@Uikcontextikrule_t@@H@@@@H@@@@QAEXXZ
_TEXT	SEGMENT
_i$1 = -8						; size = 4
_this$ = -4						; size = 4
?RemoveAll@?$CUtlArray@V?$CUtlArray@Uikcontextikrule_t@@V?$CUtlMemory@Uikcontextikrule_t@@H@@@@V?$CUtlMemory@V?$CUtlArray@Uikcontextikrule_t@@V?$CUtlMemory@Uikcontextikrule_t@@H@@@@H@@@@QAEXXZ PROC ; CUtlArray<CUtlArray<ikcontextikrule_t,CUtlMemory<ikcontextikrule_t,int> >,CUtlMemory<CUtlArray<ikcontextikrule_t,CUtlMemory<ikcontextikrule_t,int> >,int> >::RemoveAll, COMDAT
; _this$ = ecx

; 726  : {

	push	ebp
	mov	ebp, esp
	sub	esp, 72					; 00000048H
	push	ebx
	push	esi
	push	edi
	mov	DWORD PTR _this$[ebp], ecx

; 727  : 	for (int i = m_Size; --i >= 0; )

	mov	eax, DWORD PTR _this$[ebp]
	mov	ecx, DWORD PTR [eax+12]
	mov	DWORD PTR _i$1[ebp], ecx
$LN4@RemoveAll:
	mov	eax, DWORD PTR _i$1[ebp]
	sub	eax, 1
	mov	DWORD PTR _i$1[ebp], eax
	js	SHORT $LN3@RemoveAll

; 728  : 	{
; 729  : 		Destruct(&Element(i));

	mov	eax, DWORD PTR _i$1[ebp]
	push	eax
	mov	ecx, DWORD PTR _this$[ebp]
	call	?Element@?$CUtlArray@V?$CUtlArray@Uikcontextikrule_t@@V?$CUtlMemory@Uikcontextikrule_t@@H@@@@V?$CUtlMemory@V?$CUtlArray@Uikcontextikrule_t@@V?$CUtlMemory@Uikcontextikrule_t@@H@@@@H@@@@QAEAAV?$CUtlArray@Uikcontextikrule_t@@V?$CUtlMemory@Uikcontextikrule_t@@H@@@@H@Z ; CUtlArray<CUtlArray<ikcontextikrule_t,CUtlMemory<ikcontextikrule_t,int> >,CUtlMemory<CUtlArray<ikcontextikrule_t,CUtlMemory<ikcontextikrule_t,int> >,int> >::Element
	push	eax
	call	??$Destruct@V?$CUtlArray@Uikcontextikrule_t@@V?$CUtlMemory@Uikcontextikrule_t@@H@@@@@@YAXPAV?$CUtlArray@Uikcontextikrule_t@@V?$CUtlMemory@Uikcontextikrule_t@@H@@@@@Z ; Destruct<CUtlArray<ikcontextikrule_t,CUtlMemory<ikcontextikrule_t,int> > >
	add	esp, 4

; 730  : 	}

	jmp	SHORT $LN4@RemoveAll
$LN3@RemoveAll:

; 731  : 
; 732  : 	m_Size = 0;

	mov	eax, DWORD PTR _this$[ebp]
	mov	DWORD PTR [eax+12], 0

; 733  : }

	pop	edi
	pop	esi
	pop	ebx
	mov	esp, ebp
	pop	ebp
	ret	0
?RemoveAll@?$CUtlArray@V?$CUtlArray@Uikcontextikrule_t@@V?$CUtlMemory@Uikcontextikrule_t@@H@@@@V?$CUtlMemory@V?$CUtlArray@Uikcontextikrule_t@@V?$CUtlMemory@Uikcontextikrule_t@@H@@@@H@@@@QAEXXZ ENDP ; CUtlArray<CUtlArray<ikcontextikrule_t,CUtlMemory<ikcontextikrule_t,int> >,CUtlMemory<CUtlArray<ikcontextikrule_t,CUtlMemory<ikcontextikrule_t,int> >,int> >::RemoveAll
_TEXT	ENDS
; Function compile flags: /Odtp /ZI
; File d:\!diffusion 2020\source code 2022\client-server\game_shared\utlarray.h
;	COMDAT ?Base@?$CUtlArray@V?$CUtlArray@Uikcontextikrule_t@@V?$CUtlMemory@Uikcontextikrule_t@@H@@@@V?$CUtlMemory@V?$CUtlArray@Uikcontextikrule_t@@V?$CUtlMemory@Uikcontextikrule_t@@H@@@@H@@@@QAEPAV?$CUtlArray@Uikcontextikrule_t@@V?$CUtlMemory@Uikcontextikrule_t@@H@@@@XZ
_TEXT	SEGMENT
_this$ = -4						; size = 4
?Base@?$CUtlArray@V?$CUtlArray@Uikcontextikrule_t@@V?$CUtlMemory@Uikcontextikrule_t@@H@@@@V?$CUtlMemory@V?$CUtlArray@Uikcontextikrule_t@@V?$CUtlMemory@Uikcontextikrule_t@@H@@@@H@@@@QAEPAV?$CUtlArray@Uikcontextikrule_t@@V?$CUtlMemory@Uikcontextikrule_t@@H@@@@XZ PROC ; CUtlArray<CUtlArray<ikcontextikrule_t,CUtlMemory<ikcontextikrule_t,int> >,CUtlMemory<CUtlArray<ikcontextikrule_t,CUtlMemory<ikcontextikrule_t,int> >,int> >::Base, COMDAT
; _this$ = ecx

; 60   : 	T* Base()								{ return m_Memory.Base(); }

	push	ebp
	mov	ebp, esp
	sub	esp, 68					; 00000044H
	push	ebx
	push	esi
	push	edi
	mov	DWORD PTR _this$[ebp], ecx
	mov	ecx, DWORD PTR _this$[ebp]
	call	?Base@?$CUtlMemory@V?$CUtlArray@Uikcontextikrule_t@@V?$CUtlMemory@Uikcontextikrule_t@@H@@@@H@@QAEPAV?$CUtlArray@Uikcontextikrule_t@@V?$CUtlMemory@Uikcontextikrule_t@@H@@@@XZ ; CUtlMemory<CUtlArray<ikcontextikrule_t,CUtlMemory<ikcontextikrule_t,int> >,int>::Base
	pop	edi
	pop	esi
	pop	ebx
	mov	esp, ebp
	pop	ebp
	ret	0
?Base@?$CUtlArray@V?$CUtlArray@Uikcontextikrule_t@@V?$CUtlMemory@Uikcontextikrule_t@@H@@@@V?$CUtlMemory@V?$CUtlArray@Uikcontextikrule_t@@V?$CUtlMemory@Uikcontextikrule_t@@H@@@@H@@@@QAEPAV?$CUtlArray@Uikcontextikrule_t@@V?$CUtlMemory@Uikcontextikrule_t@@H@@@@XZ ENDP ; CUtlArray<CUtlArray<ikcontextikrule_t,CUtlMemory<ikcontextikrule_t,int> >,CUtlMemory<CUtlArray<ikcontextikrule_t,CUtlMemory<ikcontextikrule_t,int> >,int> >::Base
_TEXT	ENDS
; Function compile flags: /Odtp /ZI
; File d:\!diffusion 2020\source code 2022\client-server\game_shared\utlarray.h
;	COMDAT ?Element@?$CUtlArray@V?$CUtlArray@Uikcontextikrule_t@@V?$CUtlMemory@Uikcontextikrule_t@@H@@@@V?$CUtlMemory@V?$CUtlArray@Uikcontextikrule_t@@V?$CUtlMemory@Uikcontextikrule_t@@H@@@@H@@@@QAEAAV?$CUtlArray@Uikcontextikrule_t@@V?$CUtlMemory@Uikcontextikrule_t@@H@@@@H@Z
_TEXT	SEGMENT
_this$ = -4						; size = 4
_i$ = 8							; size = 4
?Element@?$CUtlArray@V?$CUtlArray@Uikcontextikrule_t@@V?$CUtlMemory@Uikcontextikrule_t@@H@@@@V?$CUtlMemory@V?$CUtlArray@Uikcontextikrule_t@@V?$CUtlMemory@Uikcontextikrule_t@@H@@@@H@@@@QAEAAV?$CUtlArray@Uikcontextikrule_t@@V?$CUtlMemory@Uikcontextikrule_t@@H@@@@H@Z PROC ; CUtlArray<CUtlArray<ikcontextikrule_t,CUtlMemory<ikcontextikrule_t,int> >,CUtlMemory<CUtlArray<ikcontextikrule_t,CUtlMemory<ikcontextikrule_t,int> >,int> >::Element, COMDAT
; _this$ = ecx

; 294  : {

	push	ebp
	mov	ebp, esp
	sub	esp, 68					; 00000044H
	push	ebx
	push	esi
	push	edi
	mov	DWORD PTR _this$[ebp], ecx

; 295  : 	return m_Memory[ i ];

	mov	eax, DWORD PTR _i$[ebp]
	push	eax
	mov	ecx, DWORD PTR _this$[ebp]
	call	??A?$CUtlMemory@V?$CUtlArray@Uikcontextikrule_t@@V?$CUtlMemory@Uikcontextikrule_t@@H@@@@H@@QAEAAV?$CUtlArray@Uikcontextikrule_t@@V?$CUtlMemory@Uikcontextikrule_t@@H@@@@H@Z ; CUtlMemory<CUtlArray<ikcontextikrule_t,CUtlMemory<ikcontextikrule_t,int> >,int>::operator[]

; 296  : }

	pop	edi
	pop	esi
	pop	ebx
	mov	esp, ebp
	pop	ebp
	ret	4
?Element@?$CUtlArray@V?$CUtlArray@Uikcontextikrule_t@@V?$CUtlMemory@Uikcontextikrule_t@@H@@@@V?$CUtlMemory@V?$CUtlArray@Uikcontextikrule_t@@V?$CUtlMemory@Uikcontextikrule_t@@H@@@@H@@@@QAEAAV?$CUtlArray@Uikcontextikrule_t@@V?$CUtlMemory@Uikcontextikrule_t@@H@@@@H@Z ENDP ; CUtlArray<CUtlArray<ikcontextikrule_t,CUtlMemory<ikcontextikrule_t,int> >,CUtlMemory<CUtlArray<ikcontextikrule_t,CUtlMemory<ikcontextikrule_t,int> >,int> >::Element
_TEXT	ENDS
; Function compile flags: /Odtp /ZI
; File d:\!diffusion 2020\source code 2022\client-server\game_shared\utlarray.h
;	COMDAT ??1?$CUtlArray@V?$CUtlArray@Uikcontextikrule_t@@V?$CUtlMemory@Uikcontextikrule_t@@H@@@@V?$CUtlMemory@V?$CUtlArray@Uikcontextikrule_t@@V?$CUtlMemory@Uikcontextikrule_t@@H@@@@H@@@@QAE@XZ
_TEXT	SEGMENT
_this$ = -16						; size = 4
__$EHRec$ = -12						; size = 12
??1?$CUtlArray@V?$CUtlArray@Uikcontextikrule_t@@V?$CUtlMemory@Uikcontextikrule_t@@H@@@@V?$CUtlMemory@V?$CUtlArray@Uikcontextikrule_t@@V?$CUtlMemory@Uikcontextikrule_t@@H@@@@H@@@@QAE@XZ PROC ; CUtlArray<CUtlArray<ikcontextikrule_t,CUtlMemory<ikcontextikrule_t,int> >,CUtlMemory<CUtlArray<ikcontextikrule_t,CUtlMemory<ikcontextikrule_t,int> >,int> >::~CUtlArray<CUtlArray<ikcontextikrule_t,CUtlMemory<ikcontextikrule_t,int> >,CUtlMemory<CUtlArray<ikcontextikrule_t,CUtlMemory<ikcontextikrule_t,int> >,int> >, COMDAT
; _this$ = ecx

; 260  : {

	push	ebp
	mov	ebp, esp
	push	-1
	push	__ehhandler$??1?$CUtlArray@V?$CUtlArray@Uikcontextikrule_t@@V?$CUtlMemory@Uikcontextikrule_t@@H@@@@V?$CUtlMemory@V?$CUtlArray@Uikcontextikrule_t@@V?$CUtlMemory@Uikcontextikrule_t@@H@@@@H@@@@QAE@XZ
	mov	eax, DWORD PTR fs:0
	push	eax
	sub	esp, 68					; 00000044H
	push	ebx
	push	esi
	push	edi
	mov	eax, DWORD PTR ___security_cookie
	xor	eax, ebp
	push	eax
	lea	eax, DWORD PTR __$EHRec$[ebp]
	mov	DWORD PTR fs:0, eax
	mov	DWORD PTR _this$[ebp], ecx

; 261  : 	Purge();

	mov	ecx, DWORD PTR _this$[ebp]
	call	?Purge@?$CUtlArray@V?$CUtlArray@Uikcontextikrule_t@@V?$CUtlMemory@Uikcontextikrule_t@@H@@@@V?$CUtlMemory@V?$CUtlArray@Uikcontextikrule_t@@V?$CUtlMemory@Uikcontextikrule_t@@H@@@@H@@@@QAEXXZ ; CUtlArray<CUtlArray<ikcontextikrule_t,CUtlMemory<ikcontextikrule_t,int> >,CUtlMemory<CUtlArray<ikcontextikrule_t,CUtlMemory<ikcontextikrule_t,int> >,int> >::Purge

; 262  : }

	mov	ecx, DWORD PTR _this$[ebp]
	call	??1?$CUtlMemory@V?$CUtlArray@Uikcontextikrule_t@@V?$CUtlMemory@Uikcontextikrule_t@@H@@@@H@@QAE@XZ ; CUtlMemory<CUtlArray<ikcontextikrule_t,CUtlMemory<ikcontextikrule_t,int> >,int>::~CUtlMemory<CUtlArray<ikcontextikrule_t,CUtlMemory<ikcontextikrule_t,int> >,int>
	mov	ecx, DWORD PTR __$EHRec$[ebp]
	mov	DWORD PTR fs:0, ecx
	pop	ecx
	pop	edi
	pop	esi
	pop	ebx
	mov	esp, ebp
	pop	ebp
	ret	0
_TEXT	ENDS
;	COMDAT text$x
text$x	SEGMENT
__ehhandler$??1?$CUtlArray@V?$CUtlArray@Uikcontextikrule_t@@V?$CUtlMemory@Uikcontextikrule_t@@H@@@@V?$CUtlMemory@V?$CUtlArray@Uikcontextikrule_t@@V?$CUtlMemory@Uikcontextikrule_t@@H@@@@H@@@@QAE@XZ:
	mov	edx, DWORD PTR [esp+8]
	lea	eax, DWORD PTR [edx+12]
	mov	ecx, DWORD PTR [edx-84]
	xor	ecx, eax
	call	@__security_check_cookie@4
	mov	eax, OFFSET __ehfuncinfo$??1?$CUtlArray@V?$CUtlArray@Uikcontextikrule_t@@V?$CUtlMemory@Uikcontextikrule_t@@H@@@@V?$CUtlMemory@V?$CUtlArray@Uikcontextikrule_t@@V?$CUtlMemory@Uikcontextikrule_t@@H@@@@H@@@@QAE@XZ
	jmp	___CxxFrameHandler3
text$x	ENDS
??1?$CUtlArray@V?$CUtlArray@Uikcontextikrule_t@@V?$CUtlMemory@Uikcontextikrule_t@@H@@@@V?$CUtlMemory@V?$CUtlArray@Uikcontextikrule_t@@V?$CUtlMemory@Uikcontextikrule_t@@H@@@@H@@@@QAE@XZ ENDP ; CUtlArray<CUtlArray<ikcontextikrule_t,CUtlMemory<ikcontextikrule_t,int> >,CUtlMemory<CUtlArray<ikcontextikrule_t,CUtlMemory<ikcontextikrule_t,int> >,int> >::~CUtlArray<CUtlArray<ikcontextikrule_t,CUtlMemory<ikcontextikrule_t,int> >,CUtlMemory<CUtlArray<ikcontextikrule_t,CUtlMemory<ikcontextikrule_t,int> >,int> >
; Function compile flags: /Odtp /ZI
;	COMDAT ??1?$CUtlArrayFixed@VCIKTarget@@$0M@@@QAE@XZ
_TEXT	SEGMENT
_this$ = -4						; size = 4
??1?$CUtlArrayFixed@VCIKTarget@@$0M@@@QAE@XZ PROC	; CUtlArrayFixed<CIKTarget,12>::~CUtlArrayFixed<CIKTarget,12>, COMDAT
; _this$ = ecx
	push	ebp
	mov	ebp, esp
	sub	esp, 68					; 00000044H
	push	ebx
	push	esi
	push	edi
	mov	DWORD PTR _this$[ebp], ecx
	mov	ecx, DWORD PTR _this$[ebp]
	call	??1?$CUtlArray@VCIKTarget@@V?$CUtlMemoryFixed@VCIKTarget@@$0M@$0A@@@@@QAE@XZ ; CUtlArray<CIKTarget,CUtlMemoryFixed<CIKTarget,12,0> >::~CUtlArray<CIKTarget,CUtlMemoryFixed<CIKTarget,12,0> >
	pop	edi
	pop	esi
	pop	ebx
	mov	esp, ebp
	pop	ebp
	ret	0
??1?$CUtlArrayFixed@VCIKTarget@@$0M@@@QAE@XZ ENDP	; CUtlArrayFixed<CIKTarget,12>::~CUtlArrayFixed<CIKTarget,12>
_TEXT	ENDS
; Function compile flags: /Odtp /ZI
; File d:\!diffusion 2020\source code 2022\client-server\game_shared\utlarray.h
;	COMDAT ?ResetDbgInfo@?$CUtlArray@VCIKTarget@@V?$CUtlMemoryFixed@VCIKTarget@@$0M@$0A@@@@@IAEXXZ
_TEXT	SEGMENT
_this$ = -4						; size = 4
?ResetDbgInfo@?$CUtlArray@VCIKTarget@@V?$CUtlMemoryFixed@VCIKTarget@@$0M@$0A@@@@@IAEXXZ PROC ; CUtlArray<CIKTarget,CUtlMemoryFixed<CIKTarget,12,0> >::ResetDbgInfo, COMDAT
; _this$ = ecx

; 160  : 	{

	push	ebp
	mov	ebp, esp
	sub	esp, 68					; 00000044H
	push	ebx
	push	esi
	push	edi
	mov	DWORD PTR _this$[ebp], ecx

; 161  : 		m_pElements = Base();

	mov	ecx, DWORD PTR _this$[ebp]
	call	?Base@?$CUtlArray@VCIKTarget@@V?$CUtlMemoryFixed@VCIKTarget@@$0M@$0A@@@@@QAEPAVCIKTarget@@XZ ; CUtlArray<CIKTarget,CUtlMemoryFixed<CIKTarget,12,0> >::Base
	mov	ecx, DWORD PTR _this$[ebp]
	mov	DWORD PTR [ecx+4036], eax

; 162  : 	}

	pop	edi
	pop	esi
	pop	ebx
	mov	esp, ebp
	pop	ebp
	ret	0
?ResetDbgInfo@?$CUtlArray@VCIKTarget@@V?$CUtlMemoryFixed@VCIKTarget@@$0M@$0A@@@@@IAEXXZ ENDP ; CUtlArray<CIKTarget,CUtlMemoryFixed<CIKTarget,12,0> >::ResetDbgInfo
_TEXT	ENDS
; Function compile flags: /Odtp /ZI
; File d:\!diffusion 2020\source code 2022\client-server\game_shared\utlmemory.h
;	COMDAT ?Purge@?$CUtlMemoryFixed@VCIKTarget@@$0M@$0A@@@QAEXXZ
_TEXT	SEGMENT
_this$ = -4						; size = 4
?Purge@?$CUtlMemoryFixed@VCIKTarget@@$0M@$0A@@@QAEXXZ PROC ; CUtlMemoryFixed<CIKTarget,12,0>::Purge, COMDAT
; _this$ = ecx

; 258  : 	void Purge()											{}

	push	ebp
	mov	ebp, esp
	sub	esp, 68					; 00000044H
	push	ebx
	push	esi
	push	edi
	mov	DWORD PTR _this$[ebp], ecx
	pop	edi
	pop	esi
	pop	ebx
	mov	esp, ebp
	pop	ebp
	ret	0
?Purge@?$CUtlMemoryFixed@VCIKTarget@@$0M@$0A@@@QAEXXZ ENDP ; CUtlMemoryFixed<CIKTarget,12,0>::Purge
_TEXT	ENDS
; Function compile flags: /Odtp /ZI
; File d:\!diffusion 2020\source code 2022\client-server\game_shared\utlmemory.h
;	COMDAT ??A?$CUtlMemoryFixed@VCIKTarget@@$0M@$0A@@@QAEAAVCIKTarget@@H@Z
_TEXT	SEGMENT
_this$ = -4						; size = 4
_i$ = 8							; size = 4
??A?$CUtlMemoryFixed@VCIKTarget@@$0M@$0A@@@QAEAAVCIKTarget@@H@Z PROC ; CUtlMemoryFixed<CIKTarget,12,0>::operator[], COMDAT
; _this$ = ecx

; 239  : 	T& operator[]( int i )									{ assert( IsIdxValid(i) ); return Base()[i];	}

	push	ebp
	mov	ebp, esp
	sub	esp, 68					; 00000044H
	push	ebx
	push	esi
	push	edi
	mov	DWORD PTR _this$[ebp], ecx
	mov	eax, DWORD PTR _i$[ebp]
	push	eax
	mov	ecx, DWORD PTR _this$[ebp]
	call	?IsIdxValid@?$CUtlMemoryFixed@VCIKTarget@@$0M@$0A@@@QBE_NH@Z ; CUtlMemoryFixed<CIKTarget,12,0>::IsIdxValid
	movzx	ecx, al
	test	ecx, ecx
	jne	SHORT $LN3@operator
	push	239					; 000000efH
	push	OFFSET ??_C@_1JE@CIIIAKCN@?$AAd?$AA?3?$AA?2?$AA?$CB?$AAd?$AAi?$AAf?$AAf?$AAu?$AAs?$AAi?$AAo?$AAn?$AA?5?$AA2?$AA0?$AA2?$AA0?$AA?2?$AAs?$AAo?$AAu?$AAr?$AAc?$AAe?$AA?5?$AAc?$AAo?$AAd?$AAe?$AA?5?$AA2@
	push	OFFSET ??_C@_1BM@CKILBAKK@?$AAI?$AAs?$AAI?$AAd?$AAx?$AAV?$AAa?$AAl?$AAi?$AAd?$AA?$CI?$AAi?$AA?$CJ?$AA?$AA@
	call	__wassert
	add	esp, 12					; 0000000cH
$LN3@operator:
	mov	ecx, DWORD PTR _this$[ebp]
	call	?Base@?$CUtlMemoryFixed@VCIKTarget@@$0M@$0A@@@QAEPAVCIKTarget@@XZ ; CUtlMemoryFixed<CIKTarget,12,0>::Base
	imul	ecx, DWORD PTR _i$[ebp], 336
	add	eax, ecx
	pop	edi
	pop	esi
	pop	ebx
	mov	esp, ebp
	pop	ebp
	ret	4
??A?$CUtlMemoryFixed@VCIKTarget@@$0M@$0A@@@QAEAAVCIKTarget@@H@Z ENDP ; CUtlMemoryFixed<CIKTarget,12,0>::operator[]
_TEXT	ENDS
; Function compile flags: /Odtp /ZI
; File d:\!diffusion 2020\source code 2022\client-server\game_shared\utlmemory.h
;	COMDAT ?Base@?$CUtlMemoryFixed@VCIKTarget@@$0M@$0A@@@QAEPAVCIKTarget@@XZ
_TEXT	SEGMENT
_this$ = -4						; size = 4
?Base@?$CUtlMemoryFixed@VCIKTarget@@$0M@$0A@@@QAEPAVCIKTarget@@XZ PROC ; CUtlMemoryFixed<CIKTarget,12,0>::Base, COMDAT
; _this$ = ecx

; 235  : 	T* Base()												{ if ( nAlignment == 0 ) return (T*)(&m_Memory[0]); else return (T*)AlignValue( &m_Memory[0], nAlignment ); }

	push	ebp
	mov	ebp, esp
	sub	esp, 68					; 00000044H
	push	ebx
	push	esi
	push	edi
	mov	DWORD PTR _this$[ebp], ecx
	mov	eax, 1
	test	eax, eax
	je	SHORT $LN2@Base
	mov	eax, 1
	imul	eax, eax, 0
	add	eax, DWORD PTR _this$[ebp]
	jmp	SHORT $LN1@Base
	jmp	SHORT $LN1@Base
$LN2@Base:
	push	0
	mov	eax, 1
	imul	ecx, eax, 0
	add	ecx, DWORD PTR _this$[ebp]
	push	ecx
	call	??$AlignValue@PAD@@YAPADPADI@Z		; AlignValue<char *>
	add	esp, 8
$LN1@Base:
	pop	edi
	pop	esi
	pop	ebx
	mov	esp, ebp
	pop	ebp
	ret	0
?Base@?$CUtlMemoryFixed@VCIKTarget@@$0M@$0A@@@QAEPAVCIKTarget@@XZ ENDP ; CUtlMemoryFixed<CIKTarget,12,0>::Base
_TEXT	ENDS
; Function compile flags: /Odtp /ZI
; File d:\!diffusion 2020\source code 2022\client-server\game_shared\utlmemory.h
;	COMDAT ?IsIdxValid@?$CUtlMemoryFixed@VCIKTarget@@$0M@$0A@@@QBE_NH@Z
_TEXT	SEGMENT
tv66 = -72						; size = 4
_this$ = -4						; size = 4
_i$ = 8							; size = 4
?IsIdxValid@?$CUtlMemoryFixed@VCIKTarget@@$0M@$0A@@@QBE_NH@Z PROC ; CUtlMemoryFixed<CIKTarget,12,0>::IsIdxValid, COMDAT
; _this$ = ecx

; 231  : 	bool IsIdxValid( int i ) const							{ return (i >= 0) && (i < SIZE); }

	push	ebp
	mov	ebp, esp
	sub	esp, 72					; 00000048H
	push	ebx
	push	esi
	push	edi
	mov	DWORD PTR _this$[ebp], ecx
	cmp	DWORD PTR _i$[ebp], 0
	jl	SHORT $LN3@IsIdxValid
	cmp	DWORD PTR _i$[ebp], 12			; 0000000cH
	jae	SHORT $LN3@IsIdxValid
	mov	DWORD PTR tv66[ebp], 1
	jmp	SHORT $LN4@IsIdxValid
$LN3@IsIdxValid:
	mov	DWORD PTR tv66[ebp], 0
$LN4@IsIdxValid:
	mov	al, BYTE PTR tv66[ebp]
	pop	edi
	pop	esi
	pop	ebx
	mov	esp, ebp
	pop	ebp
	ret	4
?IsIdxValid@?$CUtlMemoryFixed@VCIKTarget@@$0M@$0A@@@QBE_NH@Z ENDP ; CUtlMemoryFixed<CIKTarget,12,0>::IsIdxValid
_TEXT	ENDS
; Function compile flags: /Odtp /ZI
; File d:\!diffusion 2020\source code 2022\client-server\game_shared\utlarray.h
;	COMDAT ?Purge@?$CUtlArray@VCIKTarget@@V?$CUtlMemoryFixed@VCIKTarget@@$0M@$0A@@@@@QAEXXZ
_TEXT	SEGMENT
_this$ = -4						; size = 4
?Purge@?$CUtlArray@VCIKTarget@@V?$CUtlMemoryFixed@VCIKTarget@@$0M@$0A@@@@@QAEXXZ PROC ; CUtlArray<CIKTarget,CUtlMemoryFixed<CIKTarget,12,0> >::Purge, COMDAT
; _this$ = ecx

; 742  : {

	push	ebp
	mov	ebp, esp
	sub	esp, 68					; 00000044H
	push	ebx
	push	esi
	push	edi
	mov	DWORD PTR _this$[ebp], ecx

; 743  : 	RemoveAll();

	mov	ecx, DWORD PTR _this$[ebp]
	call	?RemoveAll@?$CUtlArray@VCIKTarget@@V?$CUtlMemoryFixed@VCIKTarget@@$0M@$0A@@@@@QAEXXZ ; CUtlArray<CIKTarget,CUtlMemoryFixed<CIKTarget,12,0> >::RemoveAll

; 744  : 	m_Memory.Purge();

	mov	ecx, DWORD PTR _this$[ebp]
	call	?Purge@?$CUtlMemoryFixed@VCIKTarget@@$0M@$0A@@@QAEXXZ ; CUtlMemoryFixed<CIKTarget,12,0>::Purge

; 745  : 	ResetDbgInfo();

	mov	ecx, DWORD PTR _this$[ebp]
	call	?ResetDbgInfo@?$CUtlArray@VCIKTarget@@V?$CUtlMemoryFixed@VCIKTarget@@$0M@$0A@@@@@IAEXXZ ; CUtlArray<CIKTarget,CUtlMemoryFixed<CIKTarget,12,0> >::ResetDbgInfo

; 746  : }

	pop	edi
	pop	esi
	pop	ebx
	mov	esp, ebp
	pop	ebp
	ret	0
?Purge@?$CUtlArray@VCIKTarget@@V?$CUtlMemoryFixed@VCIKTarget@@$0M@$0A@@@@@QAEXXZ ENDP ; CUtlArray<CIKTarget,CUtlMemoryFixed<CIKTarget,12,0> >::Purge
_TEXT	ENDS
; Function compile flags: /Odtp /ZI
; File d:\!diffusion 2020\source code 2022\client-server\game_shared\utlarray.h
;	COMDAT ?RemoveAll@?$CUtlArray@VCIKTarget@@V?$CUtlMemoryFixed@VCIKTarget@@$0M@$0A@@@@@QAEXXZ
_TEXT	SEGMENT
_i$1 = -8						; size = 4
_this$ = -4						; size = 4
?RemoveAll@?$CUtlArray@VCIKTarget@@V?$CUtlMemoryFixed@VCIKTarget@@$0M@$0A@@@@@QAEXXZ PROC ; CUtlArray<CIKTarget,CUtlMemoryFixed<CIKTarget,12,0> >::RemoveAll, COMDAT
; _this$ = ecx

; 726  : {

	push	ebp
	mov	ebp, esp
	sub	esp, 72					; 00000048H
	push	ebx
	push	esi
	push	edi
	mov	DWORD PTR _this$[ebp], ecx

; 727  : 	for (int i = m_Size; --i >= 0; )

	mov	eax, DWORD PTR _this$[ebp]
	mov	ecx, DWORD PTR [eax+4032]
	mov	DWORD PTR _i$1[ebp], ecx
$LN4@RemoveAll:
	mov	eax, DWORD PTR _i$1[ebp]
	sub	eax, 1
	mov	DWORD PTR _i$1[ebp], eax
	js	SHORT $LN3@RemoveAll

; 728  : 	{
; 729  : 		Destruct(&Element(i));

	mov	eax, DWORD PTR _i$1[ebp]
	push	eax
	mov	ecx, DWORD PTR _this$[ebp]
	call	?Element@?$CUtlArray@VCIKTarget@@V?$CUtlMemoryFixed@VCIKTarget@@$0M@$0A@@@@@QAEAAVCIKTarget@@H@Z ; CUtlArray<CIKTarget,CUtlMemoryFixed<CIKTarget,12,0> >::Element
	push	eax
	call	??$Destruct@VCIKTarget@@@@YAXPAVCIKTarget@@@Z ; Destruct<CIKTarget>
	add	esp, 4

; 730  : 	}

	jmp	SHORT $LN4@RemoveAll
$LN3@RemoveAll:

; 731  : 
; 732  : 	m_Size = 0;

	mov	eax, DWORD PTR _this$[ebp]
	mov	DWORD PTR [eax+4032], 0

; 733  : }

	pop	edi
	pop	esi
	pop	ebx
	mov	esp, ebp
	pop	ebp
	ret	0
?RemoveAll@?$CUtlArray@VCIKTarget@@V?$CUtlMemoryFixed@VCIKTarget@@$0M@$0A@@@@@QAEXXZ ENDP ; CUtlArray<CIKTarget,CUtlMemoryFixed<CIKTarget,12,0> >::RemoveAll
_TEXT	ENDS
; Function compile flags: /Odtp /ZI
; File d:\!diffusion 2020\source code 2022\client-server\game_shared\utlarray.h
;	COMDAT ?Base@?$CUtlArray@VCIKTarget@@V?$CUtlMemoryFixed@VCIKTarget@@$0M@$0A@@@@@QAEPAVCIKTarget@@XZ
_TEXT	SEGMENT
_this$ = -4						; size = 4
?Base@?$CUtlArray@VCIKTarget@@V?$CUtlMemoryFixed@VCIKTarget@@$0M@$0A@@@@@QAEPAVCIKTarget@@XZ PROC ; CUtlArray<CIKTarget,CUtlMemoryFixed<CIKTarget,12,0> >::Base, COMDAT
; _this$ = ecx

; 60   : 	T* Base()								{ return m_Memory.Base(); }

	push	ebp
	mov	ebp, esp
	sub	esp, 68					; 00000044H
	push	ebx
	push	esi
	push	edi
	mov	DWORD PTR _this$[ebp], ecx
	mov	ecx, DWORD PTR _this$[ebp]
	call	?Base@?$CUtlMemoryFixed@VCIKTarget@@$0M@$0A@@@QAEPAVCIKTarget@@XZ ; CUtlMemoryFixed<CIKTarget,12,0>::Base
	pop	edi
	pop	esi
	pop	ebx
	mov	esp, ebp
	pop	ebp
	ret	0
?Base@?$CUtlArray@VCIKTarget@@V?$CUtlMemoryFixed@VCIKTarget@@$0M@$0A@@@@@QAEPAVCIKTarget@@XZ ENDP ; CUtlArray<CIKTarget,CUtlMemoryFixed<CIKTarget,12,0> >::Base
_TEXT	ENDS
; Function compile flags: /Odtp /ZI
; File d:\!diffusion 2020\source code 2022\client-server\game_shared\utlarray.h
;	COMDAT ?Element@?$CUtlArray@VCIKTarget@@V?$CUtlMemoryFixed@VCIKTarget@@$0M@$0A@@@@@QAEAAVCIKTarget@@H@Z
_TEXT	SEGMENT
_this$ = -4						; size = 4
_i$ = 8							; size = 4
?Element@?$CUtlArray@VCIKTarget@@V?$CUtlMemoryFixed@VCIKTarget@@$0M@$0A@@@@@QAEAAVCIKTarget@@H@Z PROC ; CUtlArray<CIKTarget,CUtlMemoryFixed<CIKTarget,12,0> >::Element, COMDAT
; _this$ = ecx

; 294  : {

	push	ebp
	mov	ebp, esp
	sub	esp, 68					; 00000044H
	push	ebx
	push	esi
	push	edi
	mov	DWORD PTR _this$[ebp], ecx

; 295  : 	return m_Memory[ i ];

	mov	eax, DWORD PTR _i$[ebp]
	push	eax
	mov	ecx, DWORD PTR _this$[ebp]
	call	??A?$CUtlMemoryFixed@VCIKTarget@@$0M@$0A@@@QAEAAVCIKTarget@@H@Z ; CUtlMemoryFixed<CIKTarget,12,0>::operator[]

; 296  : }

	pop	edi
	pop	esi
	pop	ebx
	mov	esp, ebp
	pop	ebp
	ret	4
?Element@?$CUtlArray@VCIKTarget@@V?$CUtlMemoryFixed@VCIKTarget@@$0M@$0A@@@@@QAEAAVCIKTarget@@H@Z ENDP ; CUtlArray<CIKTarget,CUtlMemoryFixed<CIKTarget,12,0> >::Element
_TEXT	ENDS
; Function compile flags: /Odtp /ZI
; File d:\!diffusion 2020\source code 2022\client-server\game_shared\utlarray.h
;	COMDAT ??1?$CUtlArray@VCIKTarget@@V?$CUtlMemoryFixed@VCIKTarget@@$0M@$0A@@@@@QAE@XZ
_TEXT	SEGMENT
_this$ = -16						; size = 4
__$EHRec$ = -12						; size = 12
??1?$CUtlArray@VCIKTarget@@V?$CUtlMemoryFixed@VCIKTarget@@$0M@$0A@@@@@QAE@XZ PROC ; CUtlArray<CIKTarget,CUtlMemoryFixed<CIKTarget,12,0> >::~CUtlArray<CIKTarget,CUtlMemoryFixed<CIKTarget,12,0> >, COMDAT
; _this$ = ecx

; 260  : {

	push	ebp
	mov	ebp, esp
	push	-1
	push	__ehhandler$??1?$CUtlArray@VCIKTarget@@V?$CUtlMemoryFixed@VCIKTarget@@$0M@$0A@@@@@QAE@XZ
	mov	eax, DWORD PTR fs:0
	push	eax
	sub	esp, 68					; 00000044H
	push	ebx
	push	esi
	push	edi
	mov	eax, DWORD PTR ___security_cookie
	xor	eax, ebp
	push	eax
	lea	eax, DWORD PTR __$EHRec$[ebp]
	mov	DWORD PTR fs:0, eax
	mov	DWORD PTR _this$[ebp], ecx

; 261  : 	Purge();

	mov	ecx, DWORD PTR _this$[ebp]
	call	?Purge@?$CUtlArray@VCIKTarget@@V?$CUtlMemoryFixed@VCIKTarget@@$0M@$0A@@@@@QAEXXZ ; CUtlArray<CIKTarget,CUtlMemoryFixed<CIKTarget,12,0> >::Purge

; 262  : }

	mov	ecx, DWORD PTR __$EHRec$[ebp]
	mov	DWORD PTR fs:0, ecx
	pop	ecx
	pop	edi
	pop	esi
	pop	ebx
	mov	esp, ebp
	pop	ebp
	ret	0
_TEXT	ENDS
;	COMDAT text$x
text$x	SEGMENT
__ehhandler$??1?$CUtlArray@VCIKTarget@@V?$CUtlMemoryFixed@VCIKTarget@@$0M@$0A@@@@@QAE@XZ:
	mov	edx, DWORD PTR [esp+8]
	lea	eax, DWORD PTR [edx+12]
	mov	ecx, DWORD PTR [edx-84]
	xor	ecx, eax
	call	@__security_check_cookie@4
	mov	eax, OFFSET __ehfuncinfo$??1?$CUtlArray@VCIKTarget@@V?$CUtlMemoryFixed@VCIKTarget@@$0M@$0A@@@@@QAE@XZ
	jmp	___CxxFrameHandler3
text$x	ENDS
??1?$CUtlArray@VCIKTarget@@V?$CUtlMemoryFixed@VCIKTarget@@$0M@$0A@@@@@QAE@XZ ENDP ; CUtlArray<CIKTarget,CUtlMemoryFixed<CIKTarget,12,0> >::~CUtlArray<CIKTarget,CUtlMemoryFixed<CIKTarget,12,0> >
; Function compile flags: /Odtp /ZI
; File d:\!diffusion 2020\source code 2022\client-server\game_shared\bone_setup.cpp
;	COMDAT ?FindSeqDistance@CStudioBoneSetup@@QAEMHM@Z
_TEXT	SEGMENT
_flLocalCycle$1 = -52					; size = 4
_i$2 = -48						; size = 4
_flCycle$ = -44						; size = 4
_weight$ = -40						; size = 16
_panim$ = -24						; size = 16
_this$ = -8						; size = 4
__$ArrayPad$ = -4					; size = 4
_sequence$ = 8						; size = 4
_flDist$ = 12						; size = 4
?FindSeqDistance@CStudioBoneSetup@@QAEMHM@Z PROC	; CStudioBoneSetup::FindSeqDistance, COMDAT
; _this$ = ecx

; 1491 : {

	push	ebp
	mov	ebp, esp
	sub	esp, 116				; 00000074H
	mov	eax, DWORD PTR ___security_cookie
	xor	eax, ebp
	mov	DWORD PTR __$ArrayPad$[ebp], eax
	push	ebx
	push	esi
	push	edi
	mov	DWORD PTR _this$[ebp], ecx

; 1492 : 	mstudioanimdesc_t	*panim[4];
; 1493 : 	float		weight[4];
; 1494 : 
; 1495 : 	LocalSeqAnims( sequence, panim, weight );

	lea	eax, DWORD PTR _weight$[ebp]
	push	eax
	lea	ecx, DWORD PTR _panim$[ebp]
	push	ecx
	mov	edx, DWORD PTR _sequence$[ebp]
	push	edx
	mov	ecx, DWORD PTR _this$[ebp]
	call	?LocalSeqAnims@CStudioBoneSetup@@QAEXHQAPAUmstudioanimdesc_t@@PAM@Z ; CStudioBoneSetup::LocalSeqAnims

; 1496 : 	
; 1497 : 	float flCycle = 0;

	xorps	xmm0, xmm0
	movss	DWORD PTR _flCycle$[ebp], xmm0

; 1498 : 
; 1499 : 	for( int i = 0; i < 4; i++ )

	mov	DWORD PTR _i$2[ebp], 0
	jmp	SHORT $LN4@FindSeqDis
$LN2@FindSeqDis:
	mov	eax, DWORD PTR _i$2[ebp]
	add	eax, 1
	mov	DWORD PTR _i$2[ebp], eax
$LN4@FindSeqDis:
	cmp	DWORD PTR _i$2[ebp], 4
	jge	SHORT $LN3@FindSeqDis

; 1500 : 	{
; 1501 : 		if( weight[i] )

	mov	eax, DWORD PTR _i$2[ebp]
	movss	xmm0, DWORD PTR _weight$[ebp+eax*4]
	ucomiss	xmm0, DWORD PTR __real@00000000
	lahf
	test	ah, 68					; 00000044H
	jnp	SHORT $LN5@FindSeqDis

; 1502 : 		{
; 1503 : 			float flLocalCycle = FindAnimDistance( panim[i], flDist );

	push	ecx
	movss	xmm0, DWORD PTR _flDist$[ebp]
	movss	DWORD PTR [esp], xmm0
	mov	eax, DWORD PTR _i$2[ebp]
	mov	ecx, DWORD PTR _panim$[ebp+eax*4]
	push	ecx
	mov	ecx, DWORD PTR _this$[ebp]
	call	?FindAnimDistance@CStudioBoneSetup@@QAEMPAUmstudioanimdesc_t@@M@Z ; CStudioBoneSetup::FindAnimDistance
	fstp	DWORD PTR _flLocalCycle$1[ebp]

; 1504 : 			flCycle = flCycle + flLocalCycle * weight[i];

	mov	eax, DWORD PTR _i$2[ebp]
	movss	xmm0, DWORD PTR _flLocalCycle$1[ebp]
	mulss	xmm0, DWORD PTR _weight$[ebp+eax*4]
	addss	xmm0, DWORD PTR _flCycle$[ebp]
	movss	DWORD PTR _flCycle$[ebp], xmm0
$LN5@FindSeqDis:

; 1505 : 		}
; 1506 : 	}

	jmp	SHORT $LN2@FindSeqDis
$LN3@FindSeqDis:

; 1507 : 
; 1508 : 	return flCycle;

	fld	DWORD PTR _flCycle$[ebp]

; 1509 : }

	pop	edi
	pop	esi
	pop	ebx
	mov	ecx, DWORD PTR __$ArrayPad$[ebp]
	xor	ecx, ebp
	call	@__security_check_cookie@4
	mov	esp, ebp
	pop	ebp
	ret	8
?FindSeqDistance@CStudioBoneSetup@@QAEMHM@Z ENDP	; CStudioBoneSetup::FindSeqDistance
_TEXT	ENDS
; Function compile flags: /Odtp /ZI
; File d:\!diffusion 2020\source code 2022\client-server\game_shared\bone_setup.cpp
;	COMDAT ?SeqVelocity@CStudioBoneSetup@@QAE_NHMAAVVector@@@Z
_TEXT	SEGMENT
$T1 = -148						; size = 12
$T2 = -136						; size = 12
_vecLocalVelocity$3 = -60				; size = 12
_i$4 = -48						; size = 4
_found$ = -41						; size = 1
_weight$ = -40						; size = 16
_panim$ = -24						; size = 16
_this$ = -8						; size = 4
__$ArrayPad$ = -4					; size = 4
_sequence$ = 8						; size = 4
_flCycle$ = 12						; size = 4
_vecVelocity$ = 16					; size = 4
?SeqVelocity@CStudioBoneSetup@@QAE_NHMAAVVector@@@Z PROC ; CStudioBoneSetup::SeqVelocity, COMDAT
; _this$ = ecx

; 1461 : {

	push	ebp
	mov	ebp, esp
	sub	esp, 148				; 00000094H
	mov	eax, DWORD PTR ___security_cookie
	xor	eax, ebp
	mov	DWORD PTR __$ArrayPad$[ebp], eax
	push	ebx
	push	esi
	push	edi
	mov	DWORD PTR _this$[ebp], ecx

; 1462 : 	mstudioanimdesc_t	*panim[4];
; 1463 : 	float		weight[4];
; 1464 : 
; 1465 : 	LocalSeqAnims( sequence, panim, weight );

	lea	eax, DWORD PTR _weight$[ebp]
	push	eax
	lea	ecx, DWORD PTR _panim$[ebp]
	push	ecx
	mov	edx, DWORD PTR _sequence$[ebp]
	push	edx
	mov	ecx, DWORD PTR _this$[ebp]
	call	?LocalSeqAnims@CStudioBoneSetup@@QAEXHQAPAUmstudioanimdesc_t@@PAM@Z ; CStudioBoneSetup::LocalSeqAnims

; 1466 : 	
; 1467 : 	vecVelocity = g_vecZero;

	mov	eax, DWORD PTR _vecVelocity$[ebp]
	mov	ecx, DWORD PTR ?g_vecZero@@3VVector@@B
	mov	DWORD PTR [eax], ecx
	mov	edx, DWORD PTR ?g_vecZero@@3VVector@@B+4
	mov	DWORD PTR [eax+4], edx
	mov	ecx, DWORD PTR ?g_vecZero@@3VVector@@B+8
	mov	DWORD PTR [eax+8], ecx

; 1468 : 	bool found = false;

	mov	BYTE PTR _found$[ebp], 0

; 1469 : 
; 1470 : 	for( int i = 0; i < 4; i++ )

	mov	DWORD PTR _i$4[ebp], 0
	jmp	SHORT $LN4@SeqVelocit
$LN2@SeqVelocit:
	mov	eax, DWORD PTR _i$4[ebp]
	add	eax, 1
	mov	DWORD PTR _i$4[ebp], eax
$LN4@SeqVelocit:
	cmp	DWORD PTR _i$4[ebp], 4
	jge	$LN3@SeqVelocit

; 1471 : 	{
; 1472 : 		if( weight[i] )

	mov	eax, DWORD PTR _i$4[ebp]
	movss	xmm0, DWORD PTR _weight$[ebp+eax*4]
	ucomiss	xmm0, DWORD PTR __real@00000000
	lahf
	test	ah, 68					; 00000044H
	jnp	SHORT $LN6@SeqVelocit

; 1473 : 		{
; 1474 : 			Vector	vecLocalVelocity;

	lea	ecx, DWORD PTR _vecLocalVelocity$3[ebp]
	call	??0Vector@@QAE@XZ			; Vector::Vector

; 1475 : 
; 1476 : 			if( AnimVelocity( panim[i], flCycle, vecLocalVelocity ))

	lea	eax, DWORD PTR _vecLocalVelocity$3[ebp]
	push	eax
	push	ecx
	movss	xmm0, DWORD PTR _flCycle$[ebp]
	movss	DWORD PTR [esp], xmm0
	mov	ecx, DWORD PTR _i$4[ebp]
	mov	edx, DWORD PTR _panim$[ebp+ecx*4]
	push	edx
	mov	ecx, DWORD PTR _this$[ebp]
	call	?AnimVelocity@CStudioBoneSetup@@QAE_NPAUmstudioanimdesc_t@@MAAVVector@@@Z ; CStudioBoneSetup::AnimVelocity
	movzx	eax, al
	test	eax, eax
	je	SHORT $LN6@SeqVelocit

; 1477 : 			{
; 1478 : 				vecVelocity = vecVelocity + vecLocalVelocity * weight[i];

	mov	eax, DWORD PTR _i$4[ebp]
	push	ecx
	movss	xmm0, DWORD PTR _weight$[ebp+eax*4]
	movss	DWORD PTR [esp], xmm0
	lea	ecx, DWORD PTR $T2[ebp]
	push	ecx
	lea	ecx, DWORD PTR _vecLocalVelocity$3[ebp]
	call	??DVector@@QBE?AV0@M@Z			; Vector::operator*
	push	eax
	lea	edx, DWORD PTR $T1[ebp]
	push	edx
	mov	ecx, DWORD PTR _vecVelocity$[ebp]
	call	??HVector@@QBE?AV0@ABV0@@Z		; Vector::operator+
	mov	ecx, DWORD PTR _vecVelocity$[ebp]
	mov	edx, DWORD PTR [eax]
	mov	DWORD PTR [ecx], edx
	mov	edx, DWORD PTR [eax+4]
	mov	DWORD PTR [ecx+4], edx
	mov	eax, DWORD PTR [eax+8]
	mov	DWORD PTR [ecx+8], eax

; 1479 : 				found = true;

	mov	BYTE PTR _found$[ebp], 1
$LN6@SeqVelocit:

; 1480 : 			}
; 1481 : 		}
; 1482 : 	}

	jmp	$LN2@SeqVelocit
$LN3@SeqVelocit:

; 1483 : 
; 1484 : 	return found;

	mov	al, BYTE PTR _found$[ebp]

; 1485 : }

	pop	edi
	pop	esi
	pop	ebx
	mov	ecx, DWORD PTR __$ArrayPad$[ebp]
	xor	ecx, ebp
	call	@__security_check_cookie@4
	mov	esp, ebp
	pop	ebp
	ret	12					; 0000000cH
?SeqVelocity@CStudioBoneSetup@@QAE_NHMAAVVector@@@Z ENDP ; CStudioBoneSetup::SeqVelocity
_TEXT	ENDS
; Function compile flags: /Odtp /ZI
; File d:\!diffusion 2020\source code 2022\client-server\game_shared\bone_setup.cpp
;	COMDAT ?SeqMovement@CStudioBoneSetup@@QAE_NHMMAAVVector@@0@Z
_TEXT	SEGMENT
$T1 = -228						; size = 12
$T2 = -216						; size = 12
$T3 = -204						; size = 12
$T4 = -192						; size = 12
$T5 = -180						; size = 12
_endPos$6 = -104					; size = 12
_startPos$7 = -92					; size = 12
_pweight$8 = -80					; size = 4
_localAngles$9 = -76					; size = 12
_localPos$10 = -64					; size = 12
_i$11 = -52						; size = 4
_found$ = -45						; size = 1
_weight$ = -44						; size = 16
_panim$ = -28						; size = 16
_pseqdesc$ = -12					; size = 4
_this$ = -8						; size = 4
__$ArrayPad$ = -4					; size = 4
_sequence$ = 8						; size = 4
_flCycleFrom$ = 12					; size = 4
_flCycleTo$ = 16					; size = 4
_deltaPos$ = 20						; size = 4
_deltaAngles$ = 24					; size = 4
?SeqMovement@CStudioBoneSetup@@QAE_NHMMAAVVector@@0@Z PROC ; CStudioBoneSetup::SeqMovement, COMDAT
; _this$ = ecx

; 1407 : {

	push	ebp
	mov	ebp, esp
	sub	esp, 228				; 000000e4H
	mov	eax, DWORD PTR ___security_cookie
	xor	eax, ebp
	mov	DWORD PTR __$ArrayPad$[ebp], eax
	push	ebx
	push	esi
	push	edi
	mov	DWORD PTR _this$[ebp], ecx

; 1408 : 	mstudioseqdesc_t	*pseqdesc = (mstudioseqdesc_t *)((byte *)m_pStudioHeader + m_pStudioHeader->seqindex) + sequence;

	mov	eax, DWORD PTR _this$[ebp]
	mov	ecx, DWORD PTR [eax+18968]
	mov	edx, DWORD PTR _this$[ebp]
	mov	eax, DWORD PTR [edx+18968]
	add	eax, DWORD PTR [ecx+168]
	imul	ecx, DWORD PTR _sequence$[ebp], 176
	add	eax, ecx
	mov	DWORD PTR _pseqdesc$[ebp], eax

; 1409 : 	mstudioanimdesc_t	*panim[4];
; 1410 : 	float		weight[4];
; 1411 : 
; 1412 : 	LocalSeqAnims( sequence, panim, weight );

	lea	eax, DWORD PTR _weight$[ebp]
	push	eax
	lea	ecx, DWORD PTR _panim$[ebp]
	push	ecx
	mov	edx, DWORD PTR _sequence$[ebp]
	push	edx
	mov	ecx, DWORD PTR _this$[ebp]
	call	?LocalSeqAnims@CStudioBoneSetup@@QAEXHQAPAUmstudioanimdesc_t@@PAM@Z ; CStudioBoneSetup::LocalSeqAnims

; 1413 : 
; 1414 : 	deltaPos = g_vecZero;

	mov	eax, DWORD PTR _deltaPos$[ebp]
	mov	ecx, DWORD PTR ?g_vecZero@@3VVector@@B
	mov	DWORD PTR [eax], ecx
	mov	edx, DWORD PTR ?g_vecZero@@3VVector@@B+4
	mov	DWORD PTR [eax+4], edx
	mov	ecx, DWORD PTR ?g_vecZero@@3VVector@@B+8
	mov	DWORD PTR [eax+8], ecx

; 1415 : 	deltaAngles = g_vecZero;

	mov	eax, DWORD PTR _deltaAngles$[ebp]
	mov	ecx, DWORD PTR ?g_vecZero@@3VVector@@B
	mov	DWORD PTR [eax], ecx
	mov	edx, DWORD PTR ?g_vecZero@@3VVector@@B+4
	mov	DWORD PTR [eax+4], edx
	mov	ecx, DWORD PTR ?g_vecZero@@3VVector@@B+8
	mov	DWORD PTR [eax+8], ecx

; 1416 : 
; 1417 : 	bool found = false;

	mov	BYTE PTR _found$[ebp], 0

; 1418 : 
; 1419 : 	for( int i = 0; i < 4; i++ )

	mov	DWORD PTR _i$11[ebp], 0
	jmp	SHORT $LN4@SeqMovemen
$LN2@SeqMovemen:
	mov	eax, DWORD PTR _i$11[ebp]
	add	eax, 1
	mov	DWORD PTR _i$11[ebp], eax
$LN4@SeqMovemen:
	cmp	DWORD PTR _i$11[ebp], 4
	jge	$LN3@SeqMovemen

; 1420 : 	{
; 1421 : 		if( weight[i] )

	mov	eax, DWORD PTR _i$11[ebp]
	movss	xmm0, DWORD PTR _weight$[ebp+eax*4]
	ucomiss	xmm0, DWORD PTR __real@00000000
	lahf
	test	ah, 68					; 00000044H
	jnp	$LN8@SeqMovemen

; 1422 : 		{
; 1423 : 			Vector localPos = g_vecZero;

	push	OFFSET ?g_vecZero@@3VVector@@B		; g_vecZero
	lea	ecx, DWORD PTR _localPos$10[ebp]
	call	??0Vector@@QAE@ABV0@@Z			; Vector::Vector

; 1424 : 			Vector localAngles = g_vecZero;

	push	OFFSET ?g_vecZero@@3VVector@@B		; g_vecZero
	lea	ecx, DWORD PTR _localAngles$9[ebp]
	call	??0Vector@@QAE@ABV0@@Z			; Vector::Vector

; 1425 : 
; 1426 : 			const float *pweight = pBoneweight( pseqdesc );

	mov	eax, DWORD PTR _pseqdesc$[ebp]
	push	eax
	mov	ecx, DWORD PTR _this$[ebp]
	call	?pBoneweight@CStudioBoneSetup@@QAEPBMPBUmstudioseqdesc_t@@@Z ; CStudioBoneSetup::pBoneweight
	mov	DWORD PTR _pweight$8[ebp], eax

; 1427 : 
; 1428 : 			if( AnimMovement( panim[i], flCycleFrom, flCycleTo, localPos, localAngles ))

	lea	eax, DWORD PTR _localAngles$9[ebp]
	push	eax
	lea	ecx, DWORD PTR _localPos$10[ebp]
	push	ecx
	push	ecx
	movss	xmm0, DWORD PTR _flCycleTo$[ebp]
	movss	DWORD PTR [esp], xmm0
	push	ecx
	movss	xmm0, DWORD PTR _flCycleFrom$[ebp]
	movss	DWORD PTR [esp], xmm0
	mov	edx, DWORD PTR _i$11[ebp]
	mov	eax, DWORD PTR _panim$[ebp+edx*4]
	push	eax
	mov	ecx, DWORD PTR _this$[ebp]
	call	?AnimMovement@CStudioBoneSetup@@QAE_NPAUmstudioanimdesc_t@@MMAAVVector@@1@Z ; CStudioBoneSetup::AnimMovement
	movzx	ecx, al
	test	ecx, ecx
	je	$LN6@SeqMovemen

; 1429 : 			{
; 1430 : 				found = true;

	mov	BYTE PTR _found$[ebp], 1

; 1431 : 				deltaPos = deltaPos + localPos * weight[i];

	mov	eax, DWORD PTR _i$11[ebp]
	push	ecx
	movss	xmm0, DWORD PTR _weight$[ebp+eax*4]
	movss	DWORD PTR [esp], xmm0
	lea	ecx, DWORD PTR $T5[ebp]
	push	ecx
	lea	ecx, DWORD PTR _localPos$10[ebp]
	call	??DVector@@QBE?AV0@M@Z			; Vector::operator*
	push	eax
	lea	edx, DWORD PTR $T4[ebp]
	push	edx
	mov	ecx, DWORD PTR _deltaPos$[ebp]
	call	??HVector@@QBE?AV0@ABV0@@Z		; Vector::operator+
	mov	ecx, DWORD PTR _deltaPos$[ebp]
	mov	edx, DWORD PTR [eax]
	mov	DWORD PTR [ecx], edx
	mov	edx, DWORD PTR [eax+4]
	mov	DWORD PTR [ecx+4], edx
	mov	eax, DWORD PTR [eax+8]
	mov	DWORD PTR [ecx+8], eax

; 1432 : 				// FIXME: this makes no sense
; 1433 : 				deltaAngles = deltaAngles + localAngles * weight[i];

	mov	eax, DWORD PTR _i$11[ebp]
	push	ecx
	movss	xmm0, DWORD PTR _weight$[ebp+eax*4]
	movss	DWORD PTR [esp], xmm0
	lea	ecx, DWORD PTR $T3[ebp]
	push	ecx
	lea	ecx, DWORD PTR _localAngles$9[ebp]
	call	??DVector@@QBE?AV0@M@Z			; Vector::operator*
	push	eax
	lea	edx, DWORD PTR $T2[ebp]
	push	edx
	mov	ecx, DWORD PTR _deltaAngles$[ebp]
	call	??HVector@@QBE?AV0@ABV0@@Z		; Vector::operator+
	mov	ecx, DWORD PTR _deltaAngles$[ebp]
	mov	edx, DWORD PTR [eax]
	mov	DWORD PTR [ecx], edx
	mov	edx, DWORD PTR [eax+4]
	mov	DWORD PTR [ecx+4], edx
	mov	eax, DWORD PTR [eax+8]
	mov	DWORD PTR [ecx+8], eax
$LN6@SeqMovemen:
$LN8@SeqMovemen:

; 1434 : 			}
; 1435 : 			else if( !FBitSet( panim[i]->flags, STUDIO_DELTA ) && panim[i]->nummovements == 0 && pweight[0] > 0.0f )
; 1436 : 			{
; 1437 : //				found = true;
; 1438 : 			}
; 1439 : 		}
; 1440 : 	}

	jmp	$LN2@SeqMovemen
$LN3@SeqMovemen:

; 1441 : 
; 1442 : 	// simple movement from GoldSource
; 1443 : 	if( !found && pseqdesc->linearmovement != g_vecZero )

	movzx	eax, BYTE PTR _found$[ebp]
	test	eax, eax
	jne	SHORT $LN9@SeqMovemen
	push	OFFSET ?g_vecZero@@3VVector@@B		; g_vecZero
	mov	ecx, DWORD PTR _pseqdesc$[ebp]
	add	ecx, 76					; 0000004cH
	call	??9Vector@@QBEHABV0@@Z			; Vector::operator!=
	test	eax, eax
	je	SHORT $LN9@SeqMovemen

; 1444 : 	{
; 1445 : 		Vector startPos = pseqdesc->linearmovement * flCycleFrom;

	push	ecx
	movss	xmm0, DWORD PTR _flCycleFrom$[ebp]
	movss	DWORD PTR [esp], xmm0
	lea	eax, DWORD PTR _startPos$7[ebp]
	push	eax
	mov	ecx, DWORD PTR _pseqdesc$[ebp]
	add	ecx, 76					; 0000004cH
	call	??DVector@@QBE?AV0@M@Z			; Vector::operator*

; 1446 : 		Vector endPos = pseqdesc->linearmovement * flCycleTo;

	push	ecx
	movss	xmm0, DWORD PTR _flCycleTo$[ebp]
	movss	DWORD PTR [esp], xmm0
	lea	eax, DWORD PTR _endPos$6[ebp]
	push	eax
	mov	ecx, DWORD PTR _pseqdesc$[ebp]
	add	ecx, 76					; 0000004cH
	call	??DVector@@QBE?AV0@M@Z			; Vector::operator*

; 1447 : 
; 1448 : 		deltaPos = endPos - startPos;

	lea	eax, DWORD PTR _startPos$7[ebp]
	push	eax
	lea	ecx, DWORD PTR $T1[ebp]
	push	ecx
	lea	ecx, DWORD PTR _endPos$6[ebp]
	call	??GVector@@QBE?AV0@ABV0@@Z		; Vector::operator-
	mov	edx, DWORD PTR _deltaPos$[ebp]
	mov	ecx, DWORD PTR [eax]
	mov	DWORD PTR [edx], ecx
	mov	ecx, DWORD PTR [eax+4]
	mov	DWORD PTR [edx+4], ecx
	mov	eax, DWORD PTR [eax+8]
	mov	DWORD PTR [edx+8], eax

; 1449 : 		found = true;

	mov	BYTE PTR _found$[ebp], 1
$LN9@SeqMovemen:

; 1450 : 	}
; 1451 : 
; 1452 : 	return found;

	mov	al, BYTE PTR _found$[ebp]

; 1453 : }

	pop	edi
	pop	esi
	pop	ebx
	mov	ecx, DWORD PTR __$ArrayPad$[ebp]
	xor	ecx, ebp
	call	@__security_check_cookie@4
	mov	esp, ebp
	pop	ebp
	ret	20					; 00000014H
?SeqMovement@CStudioBoneSetup@@QAE_NHMMAAVVector@@0@Z ENDP ; CStudioBoneSetup::SeqMovement
_TEXT	ENDS
; Function compile flags: /Odtp /ZI
; File d:\!diffusion 2020\source code 2022\client-server\game_shared\bone_setup.cpp
;	COMDAT ?FindAnimDistance@CStudioBoneSetup@@QAEMPAUmstudioanimdesc_t@@M@Z
_TEXT	SEGMENT
tv169 = -100						; size = 4
_cpf$1 = -32						; size = 4
_root2$2 = -28						; size = 4
_root1$3 = -24						; size = 4
_flMove$4 = -20						; size = 4
_pmove$5 = -16						; size = 4
_i$6 = -12						; size = 4
_prevframe$ = -8					; size = 4
_this$ = -4						; size = 4
_panim$ = 8						; size = 4
_flDist$ = 12						; size = 4
?FindAnimDistance@CStudioBoneSetup@@QAEMPAUmstudioanimdesc_t@@M@Z PROC ; CStudioBoneSetup::FindAnimDistance, COMDAT
; _this$ = ecx

; 1368 : {

	push	ebp
	mov	ebp, esp
	sub	esp, 100				; 00000064H
	push	ebx
	push	esi
	push	edi
	mov	DWORD PTR _this$[ebp], ecx

; 1369 : 	float	prevframe = 0;

	xorps	xmm0, xmm0
	movss	DWORD PTR _prevframe$[ebp], xmm0

; 1370 : 
; 1371 : 	if( flDist <= 0 )

	xorps	xmm0, xmm0
	comiss	xmm0, DWORD PTR _flDist$[ebp]
	jb	SHORT $LN5@FindAnimDi

; 1372 : 		return 0.0;

	fldz
	jmp	$LN1@FindAnimDi
$LN5@FindAnimDi:

; 1373 : 
; 1374 : 	for( int i = 0; i < panim->nummovements; i++ )

	mov	DWORD PTR _i$6[ebp], 0
	jmp	SHORT $LN4@FindAnimDi
$LN2@FindAnimDi:
	mov	eax, DWORD PTR _i$6[ebp]
	add	eax, 1
	mov	DWORD PTR _i$6[ebp], eax
$LN4@FindAnimDi:
	mov	eax, DWORD PTR _panim$[ebp]
	mov	ecx, DWORD PTR _i$6[ebp]
	cmp	ecx, DWORD PTR [eax+44]
	jge	$LN3@FindAnimDi

; 1375 : 	{
; 1376 : 		const mstudiomovement_t *pmove = pMovement( panim, i );

	mov	eax, DWORD PTR _i$6[ebp]
	push	eax
	mov	ecx, DWORD PTR _panim$[ebp]
	push	ecx
	mov	ecx, DWORD PTR _this$[ebp]
	call	?pMovement@CStudioBoneSetup@@QAEPBUmstudiomovement_t@@PBUmstudioanimdesc_t@@H@Z ; CStudioBoneSetup::pMovement
	mov	DWORD PTR _pmove$5[ebp], eax

; 1377 : 		float flMove = (pmove->v0 + pmove->v1) * 0.5f;

	mov	eax, DWORD PTR _pmove$5[ebp]
	mov	ecx, DWORD PTR _pmove$5[ebp]
	movss	xmm0, DWORD PTR [eax+8]
	addss	xmm0, DWORD PTR [ecx+12]
	mulss	xmm0, DWORD PTR __real@3f000000
	movss	DWORD PTR _flMove$4[ebp], xmm0

; 1378 : 
; 1379 : 		if( flMove >= flDist )

	movss	xmm0, DWORD PTR _flMove$4[ebp]
	comiss	xmm0, DWORD PTR _flDist$[ebp]
	jb	$LN6@FindAnimDi

; 1380 : 		{
; 1381 : 			float root1, root2;
; 1382 : 
; 1383 : 			// d = V0 * t + 1/2 (V1-V0) * t^2
; 1384 : 			if( SolveQuadratic( 0.5f * ( pmove->v1 - pmove->v0 ), pmove->v0, -flDist, root1, root2 ))

	lea	eax, DWORD PTR _root2$2[ebp]
	push	eax
	lea	ecx, DWORD PTR _root1$3[ebp]
	push	ecx
	movss	xmm0, DWORD PTR _flDist$[ebp]
	xorps	xmm0, DWORD PTR __xmm@80000000800000008000000080000000
	push	ecx
	movss	DWORD PTR [esp], xmm0
	mov	edx, DWORD PTR _pmove$5[ebp]
	push	ecx
	movss	xmm0, DWORD PTR [edx+8]
	movss	DWORD PTR [esp], xmm0
	mov	eax, DWORD PTR _pmove$5[ebp]
	mov	ecx, DWORD PTR _pmove$5[ebp]
	movss	xmm0, DWORD PTR [eax+12]
	subss	xmm0, DWORD PTR [ecx+8]
	mulss	xmm0, DWORD PTR __real@3f000000
	push	ecx
	movss	DWORD PTR [esp], xmm0
	call	?SolveQuadratic@@YA_NMMMAAM0@Z		; SolveQuadratic
	add	esp, 20					; 00000014H
	movzx	edx, al
	test	edx, edx
	je	SHORT $LN8@FindAnimDi

; 1385 : 			{
; 1386 : 				float cpf = 1.0f / (panim->numframes - 1);  // cycles per frame

	mov	eax, DWORD PTR _panim$[ebp]
	mov	ecx, DWORD PTR [eax+40]
	sub	ecx, 1
	cvtsi2ss xmm0, ecx
	movss	xmm1, DWORD PTR __real@3f800000
	divss	xmm1, xmm0
	movss	DWORD PTR _cpf$1[ebp], xmm1

; 1387 : 				return (prevframe + root1 * (pmove->endframe - prevframe)) * cpf;

	mov	eax, DWORD PTR _pmove$5[ebp]
	cvtsi2ss xmm0, DWORD PTR [eax]
	subss	xmm0, DWORD PTR _prevframe$[ebp]
	mulss	xmm0, DWORD PTR _root1$3[ebp]
	addss	xmm0, DWORD PTR _prevframe$[ebp]
	mulss	xmm0, DWORD PTR _cpf$1[ebp]
	movss	DWORD PTR tv169[ebp], xmm0
	fld	DWORD PTR tv169[ebp]
	jmp	SHORT $LN1@FindAnimDi
$LN8@FindAnimDi:

; 1388 : 			}
; 1389 : 			return 0.0f;

	fldz
	jmp	SHORT $LN1@FindAnimDi

; 1390 : 		}
; 1391 : 		else

	jmp	SHORT $LN7@FindAnimDi
$LN6@FindAnimDi:

; 1392 : 		{
; 1393 : 			flDist -= flMove;

	movss	xmm0, DWORD PTR _flDist$[ebp]
	subss	xmm0, DWORD PTR _flMove$4[ebp]
	movss	DWORD PTR _flDist$[ebp], xmm0

; 1394 : 			prevframe = pmove->endframe;

	mov	eax, DWORD PTR _pmove$5[ebp]
	cvtsi2ss xmm0, DWORD PTR [eax]
	movss	DWORD PTR _prevframe$[ebp], xmm0
$LN7@FindAnimDi:

; 1395 : 		}
; 1396 : 	}

	jmp	$LN2@FindAnimDi
$LN3@FindAnimDi:

; 1397 : 
; 1398 : 	return 1.0f;

	fld1
$LN1@FindAnimDi:

; 1399 : }

	pop	edi
	pop	esi
	pop	ebx
	mov	esp, ebp
	pop	ebp
	ret	8
?FindAnimDistance@CStudioBoneSetup@@QAEMPAUmstudioanimdesc_t@@M@Z ENDP ; CStudioBoneSetup::FindAnimDistance
_TEXT	ENDS
; Function compile flags: /Odtp /ZI
; File d:\!diffusion 2020\source code 2022\client-server\game_shared\bone_setup.cpp
;	COMDAT ?AnimMovement@CStudioBoneSetup@@QAE_NPAUmstudioanimdesc_t@@MMAAVVector@@1@Z
_TEXT	SEGMENT
$T1 = -140						; size = 12
_tmp$ = -64						; size = 12
_endA$ = -52						; size = 12
_endPos$ = -40						; size = 12
_startA$ = -28						; size = 12
_startPos$ = -16					; size = 12
_this$ = -4						; size = 4
_panim$ = 8						; size = 4
_flCycleFrom$ = 12					; size = 4
_flCycleTo$ = 16					; size = 4
_deltaPos$ = 20						; size = 4
_deltaAngle$ = 24					; size = 4
?AnimMovement@CStudioBoneSetup@@QAE_NPAUmstudioanimdesc_t@@MMAAVVector@@1@Z PROC ; CStudioBoneSetup::AnimMovement, COMDAT
; _this$ = ecx

; 1342 : {

	push	ebp
	mov	ebp, esp
	sub	esp, 140				; 0000008cH
	push	ebx
	push	esi
	push	edi
	mov	DWORD PTR _this$[ebp], ecx

; 1343 : 	if( panim->nummovements == 0 )

	mov	eax, DWORD PTR _panim$[ebp]
	cmp	DWORD PTR [eax+44], 0
	jne	SHORT $LN2@AnimMoveme

; 1344 : 		return false;

	xor	al, al
	jmp	$LN1@AnimMoveme
$LN2@AnimMoveme:

; 1345 : 
; 1346 : 	Vector startPos;

	lea	ecx, DWORD PTR _startPos$[ebp]
	call	??0Vector@@QAE@XZ			; Vector::Vector

; 1347 : 	Vector startA;

	lea	ecx, DWORD PTR _startA$[ebp]
	call	??0Vector@@QAE@XZ			; Vector::Vector

; 1348 : 
; 1349 : 	AnimPosition( panim, flCycleFrom, startPos, startA );

	lea	eax, DWORD PTR _startA$[ebp]
	push	eax
	lea	ecx, DWORD PTR _startPos$[ebp]
	push	ecx
	push	ecx
	movss	xmm0, DWORD PTR _flCycleFrom$[ebp]
	movss	DWORD PTR [esp], xmm0
	mov	edx, DWORD PTR _panim$[ebp]
	push	edx
	mov	ecx, DWORD PTR _this$[ebp]
	call	?AnimPosition@CStudioBoneSetup@@QAE_NPAUmstudioanimdesc_t@@MAAVVector@@1@Z ; CStudioBoneSetup::AnimPosition

; 1350 : 
; 1351 : 	Vector endPos;

	lea	ecx, DWORD PTR _endPos$[ebp]
	call	??0Vector@@QAE@XZ			; Vector::Vector

; 1352 : 	Vector endA;

	lea	ecx, DWORD PTR _endA$[ebp]
	call	??0Vector@@QAE@XZ			; Vector::Vector

; 1353 : 
; 1354 : 	AnimPosition( panim, flCycleTo, endPos, endA );

	lea	eax, DWORD PTR _endA$[ebp]
	push	eax
	lea	ecx, DWORD PTR _endPos$[ebp]
	push	ecx
	push	ecx
	movss	xmm0, DWORD PTR _flCycleTo$[ebp]
	movss	DWORD PTR [esp], xmm0
	mov	edx, DWORD PTR _panim$[ebp]
	push	edx
	mov	ecx, DWORD PTR _this$[ebp]
	call	?AnimPosition@CStudioBoneSetup@@QAE_NPAUmstudioanimdesc_t@@MAAVVector@@1@Z ; CStudioBoneSetup::AnimPosition

; 1355 : 
; 1356 : 	Vector tmp = endPos - startPos;

	lea	eax, DWORD PTR _startPos$[ebp]
	push	eax
	lea	ecx, DWORD PTR _tmp$[ebp]
	push	ecx
	lea	ecx, DWORD PTR _endPos$[ebp]
	call	??GVector@@QBE?AV0@ABV0@@Z		; Vector::operator-

; 1357 : 	deltaAngle.y = endA.y - startA.y;

	movss	xmm0, DWORD PTR _endA$[ebp+4]
	subss	xmm0, DWORD PTR _startA$[ebp+4]
	mov	eax, DWORD PTR _deltaAngle$[ebp]
	movss	DWORD PTR [eax+4], xmm0

; 1358 : 
; 1359 : 	deltaPos = VectorYawRotate( tmp, -startA.y );

	movss	xmm0, DWORD PTR _startA$[ebp+4]
	xorps	xmm0, DWORD PTR __xmm@80000000800000008000000080000000
	push	ecx
	movss	DWORD PTR [esp], xmm0
	lea	eax, DWORD PTR _tmp$[ebp]
	push	eax
	lea	ecx, DWORD PTR $T1[ebp]
	push	ecx
	call	?VectorYawRotate@@YA?AVVector@@ABV1@M@Z	; VectorYawRotate
	add	esp, 12					; 0000000cH
	mov	edx, DWORD PTR _deltaPos$[ebp]
	mov	ecx, DWORD PTR [eax]
	mov	DWORD PTR [edx], ecx
	mov	ecx, DWORD PTR [eax+4]
	mov	DWORD PTR [edx+4], ecx
	mov	eax, DWORD PTR [eax+8]
	mov	DWORD PTR [edx+8], eax

; 1360 : 
; 1361 : 	return true;

	mov	al, 1
$LN1@AnimMoveme:

; 1362 : }

	pop	edi
	pop	esi
	pop	ebx
	mov	esp, ebp
	pop	ebp
	ret	20					; 00000014H
?AnimMovement@CStudioBoneSetup@@QAE_NPAUmstudioanimdesc_t@@MMAAVVector@@1@Z ENDP ; CStudioBoneSetup::AnimMovement
_TEXT	ENDS
; Function compile flags: /Odtp /ZI
; File d:\!diffusion 2020\source code 2022\client-server\game_shared\bone_setup.cpp
;	COMDAT ?AnimVelocity@CStudioBoneSetup@@QAE_NPAUmstudioanimdesc_t@@MAAVVector@@@Z
_TEXT	SEGMENT
$T1 = -104						; size = 12
_vel$2 = -28						; size = 4
_f$3 = -24						; size = 4
_pmove$4 = -20						; size = 4
_i$5 = -16						; size = 4
_prevframe$ = -12					; size = 4
_flFrame$ = -8						; size = 4
_this$ = -4						; size = 4
_panim$ = 8						; size = 4
_flCycle$ = 12						; size = 4
_vecVelocity$ = 16					; size = 4
?AnimVelocity@CStudioBoneSetup@@QAE_NPAUmstudioanimdesc_t@@MAAVVector@@@Z PROC ; CStudioBoneSetup::AnimVelocity, COMDAT
; _this$ = ecx

; 1306 : {

	push	ebp
	mov	ebp, esp
	sub	esp, 104				; 00000068H
	push	ebx
	push	esi
	push	edi
	mov	DWORD PTR _this$[ebp], ecx

; 1307 : 	float	flFrame = flCycle * (panim->numframes - 1);

	mov	eax, DWORD PTR _panim$[ebp]
	mov	ecx, DWORD PTR [eax+40]
	sub	ecx, 1
	cvtsi2ss xmm0, ecx
	mulss	xmm0, DWORD PTR _flCycle$[ebp]
	movss	DWORD PTR _flFrame$[ebp], xmm0

; 1308 : 	float	prevframe = 0.0f;

	xorps	xmm0, xmm0
	movss	DWORD PTR _prevframe$[ebp], xmm0

; 1309 : 	
; 1310 : 	flFrame = flFrame - (int)(flFrame / (panim->numframes - 1));

	mov	eax, DWORD PTR _panim$[ebp]
	mov	ecx, DWORD PTR [eax+40]
	sub	ecx, 1
	cvtsi2ss xmm0, ecx
	movss	xmm1, DWORD PTR _flFrame$[ebp]
	divss	xmm1, xmm0
	cvttss2si edx, xmm1
	cvtsi2ss xmm0, edx
	movss	xmm1, DWORD PTR _flFrame$[ebp]
	subss	xmm1, xmm0
	movss	DWORD PTR _flFrame$[ebp], xmm1

; 1311 : 
; 1312 : 	for( int i = 0; i < panim->nummovements; i++ )

	mov	DWORD PTR _i$5[ebp], 0
	jmp	SHORT $LN4@AnimVeloci
$LN2@AnimVeloci:
	mov	eax, DWORD PTR _i$5[ebp]
	add	eax, 1
	mov	DWORD PTR _i$5[ebp], eax
$LN4@AnimVeloci:
	mov	eax, DWORD PTR _panim$[ebp]
	mov	ecx, DWORD PTR _i$5[ebp]
	cmp	ecx, DWORD PTR [eax+44]
	jge	$LN3@AnimVeloci

; 1313 : 	{
; 1314 : 		const mstudiomovement_t *pmove = pMovement( panim, i );

	mov	eax, DWORD PTR _i$5[ebp]
	push	eax
	mov	ecx, DWORD PTR _panim$[ebp]
	push	ecx
	mov	ecx, DWORD PTR _this$[ebp]
	call	?pMovement@CStudioBoneSetup@@QAEPBUmstudiomovement_t@@PBUmstudioanimdesc_t@@H@Z ; CStudioBoneSetup::pMovement
	mov	DWORD PTR _pmove$4[ebp], eax

; 1315 : 
; 1316 : 		if( pmove->endframe >= flFrame )

	mov	eax, DWORD PTR _pmove$4[ebp]
	cvtsi2ss xmm0, DWORD PTR [eax]
	comiss	xmm0, DWORD PTR _flFrame$[ebp]
	jb	$LN5@AnimVeloci

; 1317 : 		{
; 1318 : 			float f = (flFrame - prevframe) / (pmove->endframe - prevframe);

	movss	xmm0, DWORD PTR _flFrame$[ebp]
	subss	xmm0, DWORD PTR _prevframe$[ebp]
	mov	eax, DWORD PTR _pmove$4[ebp]
	cvtsi2ss xmm1, DWORD PTR [eax]
	subss	xmm1, DWORD PTR _prevframe$[ebp]
	divss	xmm0, xmm1
	movss	DWORD PTR _f$3[ebp], xmm0

; 1319 : 			float vel = pmove->v0 * (1 - f) + pmove->v1 * f;

	movss	xmm0, DWORD PTR __real@3f800000
	subss	xmm0, DWORD PTR _f$3[ebp]
	mov	eax, DWORD PTR _pmove$4[ebp]
	mulss	xmm0, DWORD PTR [eax+8]
	mov	ecx, DWORD PTR _pmove$4[ebp]
	movss	xmm1, DWORD PTR [ecx+12]
	mulss	xmm1, DWORD PTR _f$3[ebp]
	addss	xmm0, xmm1
	movss	DWORD PTR _vel$2[ebp], xmm0

; 1320 : 
; 1321 : 			// scale from per block to per sec velocity
; 1322 : 			vel = vel * panim->fps / (pmove->endframe - prevframe);

	mov	eax, DWORD PTR _panim$[ebp]
	movss	xmm0, DWORD PTR _vel$2[ebp]
	mulss	xmm0, DWORD PTR [eax+32]
	mov	ecx, DWORD PTR _pmove$4[ebp]
	cvtsi2ss xmm1, DWORD PTR [ecx]
	subss	xmm1, DWORD PTR _prevframe$[ebp]
	divss	xmm0, xmm1
	movss	DWORD PTR _vel$2[ebp], xmm0

; 1323 : 			vecVelocity = pmove->vector * vel;

	push	ecx
	movss	xmm0, DWORD PTR _vel$2[ebp]
	movss	DWORD PTR [esp], xmm0
	lea	eax, DWORD PTR $T1[ebp]
	push	eax
	mov	ecx, DWORD PTR _pmove$4[ebp]
	add	ecx, 20					; 00000014H
	call	??DVector@@QBE?AV0@M@Z			; Vector::operator*
	mov	ecx, DWORD PTR _vecVelocity$[ebp]
	mov	edx, DWORD PTR [eax]
	mov	DWORD PTR [ecx], edx
	mov	edx, DWORD PTR [eax+4]
	mov	DWORD PTR [ecx+4], edx
	mov	eax, DWORD PTR [eax+8]
	mov	DWORD PTR [ecx+8], eax

; 1324 : 
; 1325 : 			return true;

	mov	al, 1
	jmp	SHORT $LN1@AnimVeloci

; 1326 : 		}
; 1327 : 		else

	jmp	SHORT $LN6@AnimVeloci
$LN5@AnimVeloci:

; 1328 : 		{
; 1329 : 			prevframe = pmove->endframe;

	mov	eax, DWORD PTR _pmove$4[ebp]
	cvtsi2ss xmm0, DWORD PTR [eax]
	movss	DWORD PTR _prevframe$[ebp], xmm0
$LN6@AnimVeloci:

; 1330 : 		}
; 1331 : 	}

	jmp	$LN2@AnimVeloci
$LN3@AnimVeloci:

; 1332 : 
; 1333 : 	return false;

	xor	al, al
$LN1@AnimVeloci:

; 1334 : }

	pop	edi
	pop	esi
	pop	ebx
	mov	esp, ebp
	pop	ebp
	ret	12					; 0000000cH
?AnimVelocity@CStudioBoneSetup@@QAE_NPAUmstudioanimdesc_t@@MAAVVector@@@Z ENDP ; CStudioBoneSetup::AnimVelocity
_TEXT	ENDS
; Function compile flags: /Odtp /ZI
; File d:\!diffusion 2020\source code 2022\client-server\game_shared\bone_setup.cpp
;	COMDAT ?AnimPosition@CStudioBoneSetup@@QAE_NPAUmstudioanimdesc_t@@MAAVVector@@1@Z
_TEXT	SEGMENT
$T1 = -148						; size = 12
$T2 = -136						; size = 12
$T3 = -124						; size = 12
$T4 = -112						; size = 12
_pmove$5 = -36						; size = 4
_d$6 = -32						; size = 4
_f$7 = -28						; size = 4
_pmove$8 = -24						; size = 4
_i$9 = -20						; size = 4
_flFrame$ = -16						; size = 4
_iLoops$ = -12						; size = 4
_prevframe$ = -8					; size = 4
_this$ = -4						; size = 4
_panim$ = 8						; size = 4
_flCycle$ = 12						; size = 4
_vecPos$ = 16						; size = 4
_vecAngle$ = 20						; size = 4
?AnimPosition@CStudioBoneSetup@@QAE_NPAUmstudioanimdesc_t@@MAAVVector@@1@Z PROC ; CStudioBoneSetup::AnimPosition, COMDAT
; _this$ = ecx

; 1249 : {

	push	ebp
	mov	ebp, esp
	sub	esp, 148				; 00000094H
	push	ebx
	push	esi
	push	edi
	mov	DWORD PTR _this$[ebp], ecx

; 1250 : 	float	prevframe = 0;

	xorps	xmm0, xmm0
	movss	DWORD PTR _prevframe$[ebp], xmm0

; 1251 : 	int	iLoops = 0;

	mov	DWORD PTR _iLoops$[ebp], 0

; 1252 : 
; 1253 : 	vecPos.Init( );

	push	ecx
	xorps	xmm0, xmm0
	movss	DWORD PTR [esp], xmm0
	push	ecx
	xorps	xmm0, xmm0
	movss	DWORD PTR [esp], xmm0
	push	ecx
	xorps	xmm0, xmm0
	movss	DWORD PTR [esp], xmm0
	mov	ecx, DWORD PTR _vecPos$[ebp]
	call	?Init@Vector@@QAEXMMM@Z			; Vector::Init

; 1254 : 	vecAngle.Init( );

	push	ecx
	xorps	xmm0, xmm0
	movss	DWORD PTR [esp], xmm0
	push	ecx
	xorps	xmm0, xmm0
	movss	DWORD PTR [esp], xmm0
	push	ecx
	xorps	xmm0, xmm0
	movss	DWORD PTR [esp], xmm0
	mov	ecx, DWORD PTR _vecAngle$[ebp]
	call	?Init@Vector@@QAEXMMM@Z			; Vector::Init

; 1255 : 
; 1256 : 	if( panim->nummovements == 0 )

	mov	eax, DWORD PTR _panim$[ebp]
	cmp	DWORD PTR [eax+44], 0
	jne	SHORT $LN5@AnimPositi

; 1257 : 		return false;

	xor	al, al
	jmp	$LN1@AnimPositi
$LN5@AnimPositi:

; 1258 : 
; 1259 : 	if( flCycle > 1.0f )

	movss	xmm0, DWORD PTR _flCycle$[ebp]
	comiss	xmm0, DWORD PTR __real@3f800000
	jbe	SHORT $LN6@AnimPositi

; 1260 : 		iLoops = (int)flCycle;

	cvttss2si eax, DWORD PTR _flCycle$[ebp]
	mov	DWORD PTR _iLoops$[ebp], eax
	jmp	SHORT $LN8@AnimPositi
$LN6@AnimPositi:

; 1261 : 	else if( flCycle < 0.0f )

	xorps	xmm0, xmm0
	comiss	xmm0, DWORD PTR _flCycle$[ebp]
	jbe	SHORT $LN8@AnimPositi

; 1262 : 		iLoops = (int)flCycle - 1;

	cvttss2si eax, DWORD PTR _flCycle$[ebp]
	sub	eax, 1
	mov	DWORD PTR _iLoops$[ebp], eax
$LN8@AnimPositi:

; 1263 : 
; 1264 : 	flCycle = flCycle - iLoops;

	cvtsi2ss xmm0, DWORD PTR _iLoops$[ebp]
	movss	xmm1, DWORD PTR _flCycle$[ebp]
	subss	xmm1, xmm0
	movss	DWORD PTR _flCycle$[ebp], xmm1

; 1265 : 
; 1266 : 	float flFrame = flCycle * (panim->numframes - 1);

	mov	eax, DWORD PTR _panim$[ebp]
	mov	ecx, DWORD PTR [eax+40]
	sub	ecx, 1
	cvtsi2ss xmm0, ecx
	mulss	xmm0, DWORD PTR _flCycle$[ebp]
	movss	DWORD PTR _flFrame$[ebp], xmm0

; 1267 : 
; 1268 : 	for( int i = 0; i < panim->nummovements; i++ )

	mov	DWORD PTR _i$9[ebp], 0
	jmp	SHORT $LN4@AnimPositi
$LN2@AnimPositi:
	mov	eax, DWORD PTR _i$9[ebp]
	add	eax, 1
	mov	DWORD PTR _i$9[ebp], eax
$LN4@AnimPositi:
	mov	eax, DWORD PTR _panim$[ebp]
	mov	ecx, DWORD PTR _i$9[ebp]
	cmp	ecx, DWORD PTR [eax+44]
	jge	$LN3@AnimPositi

; 1269 : 	{
; 1270 : 		const mstudiomovement_t *pmove = pMovement( panim, i );

	mov	eax, DWORD PTR _i$9[ebp]
	push	eax
	mov	ecx, DWORD PTR _panim$[ebp]
	push	ecx
	mov	ecx, DWORD PTR _this$[ebp]
	call	?pMovement@CStudioBoneSetup@@QAEPBUmstudiomovement_t@@PBUmstudioanimdesc_t@@H@Z ; CStudioBoneSetup::pMovement
	mov	DWORD PTR _pmove$8[ebp], eax

; 1271 : 
; 1272 : 		if( pmove->endframe >= flFrame )

	mov	eax, DWORD PTR _pmove$8[ebp]
	cvtsi2ss xmm0, DWORD PTR [eax]
	comiss	xmm0, DWORD PTR _flFrame$[ebp]
	jb	$LN9@AnimPositi

; 1273 : 		{
; 1274 : 			float f = (flFrame - prevframe) / (pmove->endframe - prevframe);

	movss	xmm0, DWORD PTR _flFrame$[ebp]
	subss	xmm0, DWORD PTR _prevframe$[ebp]
	mov	eax, DWORD PTR _pmove$8[ebp]
	cvtsi2ss xmm1, DWORD PTR [eax]
	subss	xmm1, DWORD PTR _prevframe$[ebp]
	divss	xmm0, xmm1
	movss	DWORD PTR _f$7[ebp], xmm0

; 1275 : 			float d = pmove->v0 * f + 0.5 * (pmove->v1 - pmove->v0) * f * f;

	mov	eax, DWORD PTR _pmove$8[ebp]
	movss	xmm0, DWORD PTR [eax+8]
	mulss	xmm0, DWORD PTR _f$7[ebp]
	cvtss2sd xmm0, xmm0
	mov	ecx, DWORD PTR _pmove$8[ebp]
	mov	edx, DWORD PTR _pmove$8[ebp]
	movss	xmm1, DWORD PTR [ecx+12]
	subss	xmm1, DWORD PTR [edx+8]
	cvtss2sd xmm1, xmm1
	mulsd	xmm1, QWORD PTR __real@3fe0000000000000
	cvtss2sd xmm2, DWORD PTR _f$7[ebp]
	mulsd	xmm1, xmm2
	cvtss2sd xmm2, DWORD PTR _f$7[ebp]
	mulsd	xmm1, xmm2
	addsd	xmm0, xmm1
	cvtsd2ss xmm0, xmm0
	movss	DWORD PTR _d$6[ebp], xmm0

; 1276 : 
; 1277 : 			vecPos = vecPos + d * pmove->vector;

	mov	eax, DWORD PTR _pmove$8[ebp]
	add	eax, 20					; 00000014H
	push	eax
	push	ecx
	movss	xmm0, DWORD PTR _d$6[ebp]
	movss	DWORD PTR [esp], xmm0
	lea	ecx, DWORD PTR $T4[ebp]
	push	ecx
	call	??D@YA?AVVector@@MABV0@@Z		; operator*
	add	esp, 12					; 0000000cH
	push	eax
	lea	edx, DWORD PTR $T3[ebp]
	push	edx
	mov	ecx, DWORD PTR _vecPos$[ebp]
	call	??HVector@@QBE?AV0@ABV0@@Z		; Vector::operator+
	mov	ecx, DWORD PTR _vecPos$[ebp]
	mov	edx, DWORD PTR [eax]
	mov	DWORD PTR [ecx], edx
	mov	edx, DWORD PTR [eax+4]
	mov	DWORD PTR [ecx+4], edx
	mov	eax, DWORD PTR [eax+8]
	mov	DWORD PTR [ecx+8], eax

; 1278 : 			vecAngle.y = vecAngle.y * (1.0f - f) + pmove->angle * f;

	movss	xmm0, DWORD PTR __real@3f800000
	subss	xmm0, DWORD PTR _f$7[ebp]
	mov	eax, DWORD PTR _vecAngle$[ebp]
	mulss	xmm0, DWORD PTR [eax+4]
	mov	ecx, DWORD PTR _pmove$8[ebp]
	movss	xmm1, DWORD PTR [ecx+16]
	mulss	xmm1, DWORD PTR _f$7[ebp]
	addss	xmm0, xmm1
	mov	edx, DWORD PTR _vecAngle$[ebp]
	movss	DWORD PTR [edx+4], xmm0

; 1279 : 
; 1280 : 			if( iLoops != 0 )

	cmp	DWORD PTR _iLoops$[ebp], 0
	je	SHORT $LN11@AnimPositi

; 1281 : 			{
; 1282 : 				const mstudiomovement_t *pmove = pMovement( panim, panim->nummovements - 1 );

	mov	eax, DWORD PTR _panim$[ebp]
	mov	ecx, DWORD PTR [eax+44]
	sub	ecx, 1
	push	ecx
	mov	edx, DWORD PTR _panim$[ebp]
	push	edx
	mov	ecx, DWORD PTR _this$[ebp]
	call	?pMovement@CStudioBoneSetup@@QAEPBUmstudiomovement_t@@PBUmstudioanimdesc_t@@H@Z ; CStudioBoneSetup::pMovement
	mov	DWORD PTR _pmove$5[ebp], eax

; 1283 : 				vecPos = vecPos + iLoops * pmove->position; 

	mov	eax, DWORD PTR _pmove$5[ebp]
	add	eax, 32					; 00000020H
	push	eax
	cvtsi2ss xmm0, DWORD PTR _iLoops$[ebp]
	push	ecx
	movss	DWORD PTR [esp], xmm0
	lea	ecx, DWORD PTR $T2[ebp]
	push	ecx
	call	??D@YA?AVVector@@MABV0@@Z		; operator*
	add	esp, 12					; 0000000cH
	push	eax
	lea	edx, DWORD PTR $T1[ebp]
	push	edx
	mov	ecx, DWORD PTR _vecPos$[ebp]
	call	??HVector@@QBE?AV0@ABV0@@Z		; Vector::operator+
	mov	ecx, DWORD PTR _vecPos$[ebp]
	mov	edx, DWORD PTR [eax]
	mov	DWORD PTR [ecx], edx
	mov	edx, DWORD PTR [eax+4]
	mov	DWORD PTR [ecx+4], edx
	mov	eax, DWORD PTR [eax+8]
	mov	DWORD PTR [ecx+8], eax

; 1284 : 				vecAngle.y = vecAngle.y + iLoops * pmove->angle; 

	cvtsi2ss xmm0, DWORD PTR _iLoops$[ebp]
	mov	eax, DWORD PTR _pmove$5[ebp]
	mulss	xmm0, DWORD PTR [eax+16]
	mov	ecx, DWORD PTR _vecAngle$[ebp]
	addss	xmm0, DWORD PTR [ecx+4]
	mov	edx, DWORD PTR _vecAngle$[ebp]
	movss	DWORD PTR [edx+4], xmm0
$LN11@AnimPositi:

; 1285 : 			}
; 1286 : 			return true;

	mov	al, 1
	jmp	SHORT $LN1@AnimPositi

; 1287 : 		}
; 1288 : 		else

	jmp	SHORT $LN10@AnimPositi
$LN9@AnimPositi:

; 1289 : 		{
; 1290 : 			prevframe = pmove->endframe;

	mov	eax, DWORD PTR _pmove$8[ebp]
	cvtsi2ss xmm0, DWORD PTR [eax]
	movss	DWORD PTR _prevframe$[ebp], xmm0

; 1291 : 			vecPos = pmove->position;

	mov	eax, DWORD PTR _pmove$8[ebp]
	add	eax, 32					; 00000020H
	mov	ecx, DWORD PTR _vecPos$[ebp]
	mov	edx, DWORD PTR [eax]
	mov	DWORD PTR [ecx], edx
	mov	edx, DWORD PTR [eax+4]
	mov	DWORD PTR [ecx+4], edx
	mov	eax, DWORD PTR [eax+8]
	mov	DWORD PTR [ecx+8], eax

; 1292 : 			vecAngle.y = pmove->angle;

	mov	eax, DWORD PTR _vecAngle$[ebp]
	mov	ecx, DWORD PTR _pmove$8[ebp]
	mov	edx, DWORD PTR [ecx+16]
	mov	DWORD PTR [eax+4], edx
$LN10@AnimPositi:

; 1293 : 		}
; 1294 : 	}

	jmp	$LN2@AnimPositi
$LN3@AnimPositi:

; 1295 : 
; 1296 : 	return false;

	xor	al, al
$LN1@AnimPositi:

; 1297 : }

	pop	edi
	pop	esi
	pop	ebx
	mov	esp, ebp
	pop	ebp
	ret	16					; 00000010H
?AnimPosition@CStudioBoneSetup@@QAE_NPAUmstudioanimdesc_t@@MAAVVector@@1@Z ENDP ; CStudioBoneSetup::AnimPosition
_TEXT	ENDS
; Function compile flags: /Odtp /ZI
; File d:\!diffusion 2020\source code 2022\client-server\game_shared\bone_setup.cpp
;	COMDAT ?LocalCPS@CStudioBoneSetup@@QAEMH@Z
_TEXT	SEGMENT
_i$1 = -48						; size = 4
_t$ = -44						; size = 4
_weight$ = -40						; size = 16
_panim$ = -24						; size = 16
_this$ = -8						; size = 4
__$ArrayPad$ = -4					; size = 4
_sequence$ = 8						; size = 4
?LocalCPS@CStudioBoneSetup@@QAEMH@Z PROC		; CStudioBoneSetup::LocalCPS, COMDAT
; _this$ = ecx

; 1081 : {

	push	ebp
	mov	ebp, esp
	sub	esp, 112				; 00000070H
	mov	eax, DWORD PTR ___security_cookie
	xor	eax, ebp
	mov	DWORD PTR __$ArrayPad$[ebp], eax
	push	ebx
	push	esi
	push	edi
	mov	DWORD PTR _this$[ebp], ecx

; 1082 : 	mstudioanimdesc_t	*panim[4];
; 1083 : 	float		weight[4];
; 1084 : 	float		t = 0.0f;

	xorps	xmm0, xmm0
	movss	DWORD PTR _t$[ebp], xmm0

; 1085 : 
; 1086 : 	LocalSeqAnims( sequence, panim, weight );

	lea	eax, DWORD PTR _weight$[ebp]
	push	eax
	lea	ecx, DWORD PTR _panim$[ebp]
	push	ecx
	mov	edx, DWORD PTR _sequence$[ebp]
	push	edx
	mov	ecx, DWORD PTR _this$[ebp]
	call	?LocalSeqAnims@CStudioBoneSetup@@QAEXHQAPAUmstudioanimdesc_t@@PAM@Z ; CStudioBoneSetup::LocalSeqAnims

; 1087 : 
; 1088 : 	for( int i = 0; i < 4; i++ )

	mov	DWORD PTR _i$1[ebp], 0
	jmp	SHORT $LN4@LocalCPS
$LN2@LocalCPS:
	mov	eax, DWORD PTR _i$1[ebp]
	add	eax, 1
	mov	DWORD PTR _i$1[ebp], eax
$LN4@LocalCPS:
	cmp	DWORD PTR _i$1[ebp], 4
	jge	SHORT $LN3@LocalCPS

; 1089 : 	{
; 1090 : 		if( weight[i] > 0.0f && panim[i]->numframes > 1 )

	mov	eax, DWORD PTR _i$1[ebp]
	movss	xmm0, DWORD PTR _weight$[ebp+eax*4]
	comiss	xmm0, DWORD PTR __real@00000000
	jbe	SHORT $LN5@LocalCPS
	mov	eax, DWORD PTR _i$1[ebp]
	mov	ecx, DWORD PTR _panim$[ebp+eax*4]
	cmp	DWORD PTR [ecx+40], 1
	jle	SHORT $LN5@LocalCPS

; 1091 : 		{
; 1092 : 			t += (panim[i]->fps / (panim[i]->numframes - 1)) * weight[i];

	mov	eax, DWORD PTR _i$1[ebp]
	mov	ecx, DWORD PTR _panim$[ebp+eax*4]
	mov	edx, DWORD PTR _i$1[ebp]
	mov	eax, DWORD PTR _panim$[ebp+edx*4]
	mov	edx, DWORD PTR [eax+40]
	sub	edx, 1
	cvtsi2ss xmm0, edx
	movss	xmm1, DWORD PTR [ecx+32]
	divss	xmm1, xmm0
	mov	eax, DWORD PTR _i$1[ebp]
	mulss	xmm1, DWORD PTR _weight$[ebp+eax*4]
	addss	xmm1, DWORD PTR _t$[ebp]
	movss	DWORD PTR _t$[ebp], xmm1
$LN5@LocalCPS:

; 1093 : 		}
; 1094 : 	}

	jmp	SHORT $LN2@LocalCPS
$LN3@LocalCPS:

; 1095 : 
; 1096 : 	return t;

	fld	DWORD PTR _t$[ebp]

; 1097 : }

	pop	edi
	pop	esi
	pop	ebx
	mov	ecx, DWORD PTR __$ArrayPad$[ebp]
	xor	ecx, ebp
	call	@__security_check_cookie@4
	mov	esp, ebp
	pop	ebp
	ret	4
?LocalCPS@CStudioBoneSetup@@QAEMH@Z ENDP		; CStudioBoneSetup::LocalCPS
_TEXT	ENDS
; Function compile flags: /Odtp /ZI
; File d:\!diffusion 2020\source code 2022\client-server\game_shared\bone_setup.cpp
;	COMDAT ?LocalFPS@CStudioBoneSetup@@QAEMH@Z
_TEXT	SEGMENT
_i$1 = -48						; size = 4
_t$ = -44						; size = 4
_weight$ = -40						; size = 16
_panim$ = -24						; size = 16
_this$ = -8						; size = 4
__$ArrayPad$ = -4					; size = 4
_sequence$ = 8						; size = 4
?LocalFPS@CStudioBoneSetup@@QAEMH@Z PROC		; CStudioBoneSetup::LocalFPS, COMDAT
; _this$ = ecx

; 1059 : {

	push	ebp
	mov	ebp, esp
	sub	esp, 112				; 00000070H
	mov	eax, DWORD PTR ___security_cookie
	xor	eax, ebp
	mov	DWORD PTR __$ArrayPad$[ebp], eax
	push	ebx
	push	esi
	push	edi
	mov	DWORD PTR _this$[ebp], ecx

; 1060 : 	mstudioanimdesc_t	*panim[4];
; 1061 : 	float		weight[4];
; 1062 : 	float		t = 0.0f;

	xorps	xmm0, xmm0
	movss	DWORD PTR _t$[ebp], xmm0

; 1063 : 
; 1064 : 	LocalSeqAnims( sequence, panim, weight );

	lea	eax, DWORD PTR _weight$[ebp]
	push	eax
	lea	ecx, DWORD PTR _panim$[ebp]
	push	ecx
	mov	edx, DWORD PTR _sequence$[ebp]
	push	edx
	mov	ecx, DWORD PTR _this$[ebp]
	call	?LocalSeqAnims@CStudioBoneSetup@@QAEXHQAPAUmstudioanimdesc_t@@PAM@Z ; CStudioBoneSetup::LocalSeqAnims

; 1065 : 
; 1066 : 	for( int i = 0; i < 4; i++ )

	mov	DWORD PTR _i$1[ebp], 0
	jmp	SHORT $LN4@LocalFPS
$LN2@LocalFPS:
	mov	eax, DWORD PTR _i$1[ebp]
	add	eax, 1
	mov	DWORD PTR _i$1[ebp], eax
$LN4@LocalFPS:
	cmp	DWORD PTR _i$1[ebp], 4
	jge	SHORT $LN3@LocalFPS

; 1067 : 	{
; 1068 : 		if( weight[i] > 0.0f )

	mov	eax, DWORD PTR _i$1[ebp]
	movss	xmm0, DWORD PTR _weight$[ebp+eax*4]
	comiss	xmm0, DWORD PTR __real@00000000
	jbe	SHORT $LN5@LocalFPS

; 1069 : 		{
; 1070 : 			t += panim[i]->fps * weight[i];

	mov	eax, DWORD PTR _i$1[ebp]
	mov	ecx, DWORD PTR _panim$[ebp+eax*4]
	mov	edx, DWORD PTR _i$1[ebp]
	movss	xmm0, DWORD PTR [ecx+32]
	mulss	xmm0, DWORD PTR _weight$[ebp+edx*4]
	addss	xmm0, DWORD PTR _t$[ebp]
	movss	DWORD PTR _t$[ebp], xmm0
$LN5@LocalFPS:

; 1071 : 		}
; 1072 : 	}

	jmp	SHORT $LN2@LocalFPS
$LN3@LocalFPS:

; 1073 : 
; 1074 : 	return t;

	fld	DWORD PTR _t$[ebp]

; 1075 : }

	pop	edi
	pop	esi
	pop	ebx
	mov	ecx, DWORD PTR __$ArrayPad$[ebp]
	xor	ecx, ebp
	call	@__security_check_cookie@4
	mov	esp, ebp
	pop	ebp
	ret	4
?LocalFPS@CStudioBoneSetup@@QAEMH@Z ENDP		; CStudioBoneSetup::LocalFPS
_TEXT	ENDS
; Function compile flags: /Odtp /ZI
; File d:\!diffusion 2020\source code 2022\client-server\game_shared\bone_setup.cpp
;	COMDAT ?LocalDuration@CStudioBoneSetup@@QAEMH@Z
_TEXT	SEGMENT
tv78 = -76						; size = 4
_cps$ = -8						; size = 4
_this$ = -4						; size = 4
_sequence$ = 8						; size = 4
?LocalDuration@CStudioBoneSetup@@QAEMH@Z PROC		; CStudioBoneSetup::LocalDuration, COMDAT
; _this$ = ecx

; 1235 : {

	push	ebp
	mov	ebp, esp
	sub	esp, 76					; 0000004cH
	push	ebx
	push	esi
	push	edi
	mov	DWORD PTR _this$[ebp], ecx

; 1236 : 	float cps = LocalCPS( sequence );

	mov	eax, DWORD PTR _sequence$[ebp]
	push	eax
	mov	ecx, DWORD PTR _this$[ebp]
	call	?LocalCPS@CStudioBoneSetup@@QAEMH@Z	; CStudioBoneSetup::LocalCPS
	fstp	DWORD PTR _cps$[ebp]

; 1237 : 
; 1238 : 	if( cps == 0.0f )

	movss	xmm0, DWORD PTR _cps$[ebp]
	ucomiss	xmm0, DWORD PTR __real@00000000
	lahf
	test	ah, 68					; 00000044H
	jp	SHORT $LN2@LocalDurat

; 1239 : 		return 0.0f;

	fldz
	jmp	SHORT $LN1@LocalDurat
$LN2@LocalDurat:

; 1240 : 	return 1.0f / cps;

	movss	xmm0, DWORD PTR __real@3f800000
	divss	xmm0, DWORD PTR _cps$[ebp]
	movss	DWORD PTR tv78[ebp], xmm0
	fld	DWORD PTR tv78[ebp]
$LN1@LocalDurat:

; 1241 : }

	pop	edi
	pop	esi
	pop	ebx
	mov	esp, ebp
	pop	ebp
	ret	4
?LocalDuration@CStudioBoneSetup@@QAEMH@Z ENDP		; CStudioBoneSetup::LocalDuration
_TEXT	ENDS
; Function compile flags: /Odtp /ZI
; File d:\!diffusion 2020\source code 2022\client-server\game_shared\bone_setup.cpp
;	COMDAT ?LocalMaxFrame@CStudioBoneSetup@@QAEHH@Z
_TEXT	SEGMENT
_i$1 = -48						; size = 4
_maxFrame$ = -44					; size = 4
_weight$ = -40						; size = 16
_panim$ = -24						; size = 16
_this$ = -8						; size = 4
__$ArrayPad$ = -4					; size = 4
_sequence$ = 8						; size = 4
?LocalMaxFrame@CStudioBoneSetup@@QAEHH@Z PROC		; CStudioBoneSetup::LocalMaxFrame, COMDAT
; _this$ = ecx

; 1033 : {

	push	ebp
	mov	ebp, esp
	sub	esp, 112				; 00000070H
	mov	eax, DWORD PTR ___security_cookie
	xor	eax, ebp
	mov	DWORD PTR __$ArrayPad$[ebp], eax
	push	ebx
	push	esi
	push	edi
	mov	DWORD PTR _this$[ebp], ecx

; 1034 : 	mstudioanimdesc_t	*panim[4];
; 1035 : 	float		weight[4];
; 1036 : 	float		maxFrame = 0;

	xorps	xmm0, xmm0
	movss	DWORD PTR _maxFrame$[ebp], xmm0

; 1037 : 
; 1038 : 	LocalSeqAnims( sequence, panim, weight );

	lea	eax, DWORD PTR _weight$[ebp]
	push	eax
	lea	ecx, DWORD PTR _panim$[ebp]
	push	ecx
	mov	edx, DWORD PTR _sequence$[ebp]
	push	edx
	mov	ecx, DWORD PTR _this$[ebp]
	call	?LocalSeqAnims@CStudioBoneSetup@@QAEXHQAPAUmstudioanimdesc_t@@PAM@Z ; CStudioBoneSetup::LocalSeqAnims

; 1039 : 
; 1040 : 	for( int i = 0; i < 4; i++ )

	mov	DWORD PTR _i$1[ebp], 0
	jmp	SHORT $LN4@LocalMaxFr
$LN2@LocalMaxFr:
	mov	eax, DWORD PTR _i$1[ebp]
	add	eax, 1
	mov	DWORD PTR _i$1[ebp], eax
$LN4@LocalMaxFr:
	cmp	DWORD PTR _i$1[ebp], 4
	jge	SHORT $LN3@LocalMaxFr

; 1041 : 	{
; 1042 : 		if( weight[i] > 0.0f )

	mov	eax, DWORD PTR _i$1[ebp]
	movss	xmm0, DWORD PTR _weight$[ebp+eax*4]
	comiss	xmm0, DWORD PTR __real@00000000
	jbe	SHORT $LN5@LocalMaxFr

; 1043 : 		{
; 1044 : 			maxFrame += panim[i]->numframes * weight[i];

	mov	eax, DWORD PTR _i$1[ebp]
	mov	ecx, DWORD PTR _panim$[ebp+eax*4]
	cvtsi2ss xmm0, DWORD PTR [ecx+40]
	mov	edx, DWORD PTR _i$1[ebp]
	mulss	xmm0, DWORD PTR _weight$[ebp+edx*4]
	addss	xmm0, DWORD PTR _maxFrame$[ebp]
	movss	DWORD PTR _maxFrame$[ebp], xmm0
$LN5@LocalMaxFr:

; 1045 : 		}
; 1046 : 	}

	jmp	SHORT $LN2@LocalMaxFr
$LN3@LocalMaxFr:

; 1047 : 
; 1048 : 	if( maxFrame > 1 )

	movss	xmm0, DWORD PTR _maxFrame$[ebp]
	comiss	xmm0, DWORD PTR __real@3f800000
	jbe	SHORT $LN6@LocalMaxFr

; 1049 : 		maxFrame -= 1;

	movss	xmm0, DWORD PTR _maxFrame$[ebp]
	subss	xmm0, DWORD PTR __real@3f800000
	movss	DWORD PTR _maxFrame$[ebp], xmm0
$LN6@LocalMaxFr:

; 1050 : 
; 1051 : 	// FIXME: why does the weights sometimes not exactly add it 1.0 and this sometimes rounds down?
; 1052 : 	return (maxFrame + 0.01);

	cvtss2sd xmm0, DWORD PTR _maxFrame$[ebp]
	addsd	xmm0, QWORD PTR __real@3f847ae147ae147b
	cvttsd2si eax, xmm0

; 1053 : }

	pop	edi
	pop	esi
	pop	ebx
	mov	ecx, DWORD PTR __$ArrayPad$[ebp]
	xor	ecx, ebp
	call	@__security_check_cookie@4
	mov	esp, ebp
	pop	ebp
	ret	4
?LocalMaxFrame@CStudioBoneSetup@@QAEHH@Z ENDP		; CStudioBoneSetup::LocalMaxFrame
_TEXT	ENDS
; Function compile flags: /Odtp /ZI
; File d:\!diffusion 2020\source code 2022\client-server\game_shared\bone_setup.cpp
;	COMDAT ?LocalSeqAnims@CStudioBoneSetup@@QAEXHQAPAUmstudioanimdesc_t@@PAM@Z
_TEXT	SEGMENT
_i1$ = -24						; size = 4
_i0$ = -20						; size = 4
_s1$ = -16						; size = 4
_s0$ = -12						; size = 4
_pseqdesc$ = -8						; size = 4
_this$ = -4						; size = 4
_sequence$ = 8						; size = 4
_panim$ = 12						; size = 4
_weight$ = 16						; size = 4
?LocalSeqAnims@CStudioBoneSetup@@QAEXHQAPAUmstudioanimdesc_t@@PAM@Z PROC ; CStudioBoneSetup::LocalSeqAnims, COMDAT
; _this$ = ecx

; 1001 : {

	push	ebp
	mov	ebp, esp
	sub	esp, 88					; 00000058H
	push	ebx
	push	esi
	push	edi
	mov	DWORD PTR _this$[ebp], ecx

; 1002 : 	if( !m_pStudioHeader || sequence < 0 || sequence >= m_pStudioHeader->numseq ) 

	mov	eax, DWORD PTR _this$[ebp]
	cmp	DWORD PTR [eax+18968], 0
	je	SHORT $LN3@LocalSeqAn
	cmp	DWORD PTR _sequence$[ebp], 0
	jl	SHORT $LN3@LocalSeqAn
	mov	eax, DWORD PTR _this$[ebp]
	mov	ecx, DWORD PTR [eax+18968]
	mov	edx, DWORD PTR _sequence$[ebp]
	cmp	edx, DWORD PTR [ecx+164]
	jl	SHORT $LN2@LocalSeqAn
$LN3@LocalSeqAn:

; 1003 : 	{
; 1004 : 		weight[0] = weight[1] = 0.0f;

	mov	eax, 4
	shl	eax, 0
	mov	ecx, DWORD PTR _weight$[ebp]
	xorps	xmm0, xmm0
	movss	DWORD PTR [ecx+eax], xmm0
	mov	edx, 4
	imul	eax, edx, 0
	mov	ecx, DWORD PTR _weight$[ebp]
	xorps	xmm0, xmm0
	movss	DWORD PTR [ecx+eax], xmm0

; 1005 : 		weight[2] = weight[3] = 0.0f;

	mov	eax, 4
	imul	ecx, eax, 3
	mov	edx, DWORD PTR _weight$[ebp]
	xorps	xmm0, xmm0
	movss	DWORD PTR [edx+ecx], xmm0
	mov	eax, 4
	shl	eax, 1
	mov	ecx, DWORD PTR _weight$[ebp]
	xorps	xmm0, xmm0
	movss	DWORD PTR [ecx+eax], xmm0

; 1006 : 		return;

	jmp	$LN1@LocalSeqAn
$LN2@LocalSeqAn:

; 1007 : 	}
; 1008 : 
; 1009 : 	mstudioseqdesc_t *pseqdesc = (mstudioseqdesc_t *)((byte *)m_pStudioHeader + m_pStudioHeader->seqindex) + sequence;

	mov	eax, DWORD PTR _this$[ebp]
	mov	ecx, DWORD PTR [eax+18968]
	mov	edx, DWORD PTR _this$[ebp]
	mov	eax, DWORD PTR [edx+18968]
	add	eax, DWORD PTR [ecx+168]
	imul	ecx, DWORD PTR _sequence$[ebp], 176
	add	eax, ecx
	mov	DWORD PTR _pseqdesc$[ebp], eax

; 1010 : 	float s0 = 0.0f, s1 = 0.0f;

	xorps	xmm0, xmm0
	movss	DWORD PTR _s0$[ebp], xmm0
	xorps	xmm0, xmm0
	movss	DWORD PTR _s1$[ebp], xmm0

; 1011 : 	int i0 = 0, i1 = 0;	

	mov	DWORD PTR _i0$[ebp], 0
	mov	DWORD PTR _i1$[ebp], 0

; 1012 : 
; 1013 : 	LocalPoseParameter( pseqdesc, 0, s0, i0 );

	lea	eax, DWORD PTR _i0$[ebp]
	push	eax
	lea	ecx, DWORD PTR _s0$[ebp]
	push	ecx
	push	0
	mov	edx, DWORD PTR _pseqdesc$[ebp]
	push	edx
	mov	ecx, DWORD PTR _this$[ebp]
	call	?LocalPoseParameter@CStudioBoneSetup@@AAEXPAUmstudioseqdesc_t@@HAAMAAH@Z ; CStudioBoneSetup::LocalPoseParameter

; 1014 : 	LocalPoseParameter( pseqdesc, 1, s1, i1 );

	lea	eax, DWORD PTR _i1$[ebp]
	push	eax
	lea	ecx, DWORD PTR _s1$[ebp]
	push	ecx
	push	1
	mov	edx, DWORD PTR _pseqdesc$[ebp]
	push	edx
	mov	ecx, DWORD PTR _this$[ebp]
	call	?LocalPoseParameter@CStudioBoneSetup@@AAEXPAUmstudioseqdesc_t@@HAAMAAH@Z ; CStudioBoneSetup::LocalPoseParameter

; 1015 : 
; 1016 : 	panim[0] = FetchAnimDesc( pseqdesc, iAnimBlend( pseqdesc, i0+0, i1+0 ));

	mov	eax, DWORD PTR _i1$[ebp]
	push	eax
	mov	ecx, DWORD PTR _i0$[ebp]
	push	ecx
	mov	edx, DWORD PTR _pseqdesc$[ebp]
	push	edx
	mov	ecx, DWORD PTR _this$[ebp]
	call	?iAnimBlend@CStudioBoneSetup@@QAEHPBUmstudioseqdesc_t@@HH@Z ; CStudioBoneSetup::iAnimBlend
	push	eax
	mov	eax, DWORD PTR _pseqdesc$[ebp]
	push	eax
	mov	ecx, DWORD PTR _this$[ebp]
	call	?FetchAnimDesc@CStudioBoneSetup@@AAEPAUmstudioanimdesc_t@@PAUmstudioseqdesc_t@@H@Z ; CStudioBoneSetup::FetchAnimDesc
	mov	ecx, 4
	imul	edx, ecx, 0
	mov	ecx, DWORD PTR _panim$[ebp]
	mov	DWORD PTR [ecx+edx], eax

; 1017 : 	weight[0] = (1.0f - s0) * (1.0f - s1);

	movss	xmm0, DWORD PTR __real@3f800000
	subss	xmm0, DWORD PTR _s0$[ebp]
	movss	xmm1, DWORD PTR __real@3f800000
	subss	xmm1, DWORD PTR _s1$[ebp]
	mulss	xmm0, xmm1
	mov	eax, 4
	imul	ecx, eax, 0
	mov	edx, DWORD PTR _weight$[ebp]
	movss	DWORD PTR [edx+ecx], xmm0

; 1018 : 
; 1019 : 	panim[1] = FetchAnimDesc( pseqdesc, iAnimBlend( pseqdesc, i0+1, i1+0 ));

	mov	eax, DWORD PTR _i1$[ebp]
	push	eax
	mov	ecx, DWORD PTR _i0$[ebp]
	add	ecx, 1
	push	ecx
	mov	edx, DWORD PTR _pseqdesc$[ebp]
	push	edx
	mov	ecx, DWORD PTR _this$[ebp]
	call	?iAnimBlend@CStudioBoneSetup@@QAEHPBUmstudioseqdesc_t@@HH@Z ; CStudioBoneSetup::iAnimBlend
	push	eax
	mov	eax, DWORD PTR _pseqdesc$[ebp]
	push	eax
	mov	ecx, DWORD PTR _this$[ebp]
	call	?FetchAnimDesc@CStudioBoneSetup@@AAEPAUmstudioanimdesc_t@@PAUmstudioseqdesc_t@@H@Z ; CStudioBoneSetup::FetchAnimDesc
	mov	ecx, 4
	shl	ecx, 0
	mov	edx, DWORD PTR _panim$[ebp]
	mov	DWORD PTR [edx+ecx], eax

; 1020 : 	weight[1] = (s0) * (1.0f - s1);

	movss	xmm0, DWORD PTR __real@3f800000
	subss	xmm0, DWORD PTR _s1$[ebp]
	mulss	xmm0, DWORD PTR _s0$[ebp]
	mov	eax, 4
	shl	eax, 0
	mov	ecx, DWORD PTR _weight$[ebp]
	movss	DWORD PTR [ecx+eax], xmm0

; 1021 : 
; 1022 : 	panim[2] = FetchAnimDesc( pseqdesc, iAnimBlend( pseqdesc, i0+0, i1+1 ));

	mov	eax, DWORD PTR _i1$[ebp]
	add	eax, 1
	push	eax
	mov	ecx, DWORD PTR _i0$[ebp]
	push	ecx
	mov	edx, DWORD PTR _pseqdesc$[ebp]
	push	edx
	mov	ecx, DWORD PTR _this$[ebp]
	call	?iAnimBlend@CStudioBoneSetup@@QAEHPBUmstudioseqdesc_t@@HH@Z ; CStudioBoneSetup::iAnimBlend
	push	eax
	mov	eax, DWORD PTR _pseqdesc$[ebp]
	push	eax
	mov	ecx, DWORD PTR _this$[ebp]
	call	?FetchAnimDesc@CStudioBoneSetup@@AAEPAUmstudioanimdesc_t@@PAUmstudioseqdesc_t@@H@Z ; CStudioBoneSetup::FetchAnimDesc
	mov	ecx, 4
	shl	ecx, 1
	mov	edx, DWORD PTR _panim$[ebp]
	mov	DWORD PTR [edx+ecx], eax

; 1023 : 	weight[2] = (1.0f - s0) * (s1);

	movss	xmm0, DWORD PTR __real@3f800000
	subss	xmm0, DWORD PTR _s0$[ebp]
	mulss	xmm0, DWORD PTR _s1$[ebp]
	mov	eax, 4
	shl	eax, 1
	mov	ecx, DWORD PTR _weight$[ebp]
	movss	DWORD PTR [ecx+eax], xmm0

; 1024 : 
; 1025 : 	panim[3] = FetchAnimDesc( pseqdesc, iAnimBlend( pseqdesc, i0+1, i1+1 ));

	mov	eax, DWORD PTR _i1$[ebp]
	add	eax, 1
	push	eax
	mov	ecx, DWORD PTR _i0$[ebp]
	add	ecx, 1
	push	ecx
	mov	edx, DWORD PTR _pseqdesc$[ebp]
	push	edx
	mov	ecx, DWORD PTR _this$[ebp]
	call	?iAnimBlend@CStudioBoneSetup@@QAEHPBUmstudioseqdesc_t@@HH@Z ; CStudioBoneSetup::iAnimBlend
	push	eax
	mov	eax, DWORD PTR _pseqdesc$[ebp]
	push	eax
	mov	ecx, DWORD PTR _this$[ebp]
	call	?FetchAnimDesc@CStudioBoneSetup@@AAEPAUmstudioanimdesc_t@@PAUmstudioseqdesc_t@@H@Z ; CStudioBoneSetup::FetchAnimDesc
	mov	ecx, 4
	imul	edx, ecx, 3
	mov	ecx, DWORD PTR _panim$[ebp]
	mov	DWORD PTR [ecx+edx], eax

; 1026 : 	weight[3] = (s0) * (s1);

	movss	xmm0, DWORD PTR _s0$[ebp]
	mulss	xmm0, DWORD PTR _s1$[ebp]
	mov	eax, 4
	imul	ecx, eax, 3
	mov	edx, DWORD PTR _weight$[ebp]
	movss	DWORD PTR [edx+ecx], xmm0
$LN1@LocalSeqAn:

; 1027 : }

	pop	edi
	pop	esi
	pop	ebx
	mov	esp, ebp
	pop	ebp
	ret	12					; 0000000cH
?LocalSeqAnims@CStudioBoneSetup@@QAEXHQAPAUmstudioanimdesc_t@@PAM@Z ENDP ; CStudioBoneSetup::LocalSeqAnims
_TEXT	ENDS
; Function compile flags: /Odtp /ZI
; File d:\!diffusion 2020\source code 2022\client-server\game_shared\bone_setup.cpp
;	COMDAT ?SetPoseParameter@CStudioBoneSetup@@QAEMHMAAM@Z
_TEXT	SEGMENT
tv167 = -104						; size = 8
tv198 = -96						; size = 8
tv196 = -88						; size = 8
tv135 = -88						; size = 4
tv192 = -84						; size = 4
tv134 = -84						; size = 4
_shift$1 = -16						; size = 4
_wrap$2 = -12						; size = 4
_pPose$ = -8						; size = 4
_this$ = -4						; size = 4
_iParameter$ = 8					; size = 4
_flValue$ = 12						; size = 4
_ctlValue$ = 16						; size = 4
?SetPoseParameter@CStudioBoneSetup@@QAEMHMAAM@Z PROC	; CStudioBoneSetup::SetPoseParameter, COMDAT
; _this$ = ecx

; 1197 : {

	push	ebp
	mov	ebp, esp
	sub	esp, 104				; 00000068H
	push	ebx
	push	esi
	push	edi
	mov	DWORD PTR _this$[ebp], ecx

; 1198 : 	if( iParameter < 0 || iParameter >= CountPoseParameters( ))

	cmp	DWORD PTR _iParameter$[ebp], 0
	jl	SHORT $LN3@SetPosePar
	mov	ecx, DWORD PTR _this$[ebp]
	call	?CountPoseParameters@CStudioBoneSetup@@QAEHXZ ; CStudioBoneSetup::CountPoseParameters
	cmp	DWORD PTR _iParameter$[ebp], eax
	jl	SHORT $LN2@SetPosePar
$LN3@SetPosePar:

; 1199 : 		return 0.0f;

	fldz
	jmp	$LN1@SetPosePar
$LN2@SetPosePar:

; 1200 : 
; 1201 : 	const mstudioposeparamdesc_t *pPose = pPoseParameter( iParameter );

	mov	eax, DWORD PTR _iParameter$[ebp]
	push	eax
	mov	ecx, DWORD PTR _this$[ebp]
	call	?pPoseParameter@CStudioBoneSetup@@QAEPBUmstudioposeparamdesc_t@@H@Z ; CStudioBoneSetup::pPoseParameter
	mov	DWORD PTR _pPose$[ebp], eax

; 1202 : 
; 1203 : 	if( pPose->loop )

	mov	eax, DWORD PTR _pPose$[ebp]
	movss	xmm0, DWORD PTR [eax+44]
	ucomiss	xmm0, DWORD PTR __real@00000000
	lahf
	test	ah, 68					; 00000044H
	jnp	$LN4@SetPosePar

; 1204 : 	{
; 1205 : 		float wrap = (pPose->start + pPose->end) / 2.0f + pPose->loop / 2.0f;

	mov	eax, DWORD PTR _pPose$[ebp]
	mov	ecx, DWORD PTR _pPose$[ebp]
	movss	xmm0, DWORD PTR [eax+36]
	addss	xmm0, DWORD PTR [ecx+40]
	divss	xmm0, DWORD PTR __real@40000000
	mov	edx, DWORD PTR _pPose$[ebp]
	movss	xmm1, DWORD PTR [edx+44]
	divss	xmm1, DWORD PTR __real@40000000
	addss	xmm0, xmm1
	movss	DWORD PTR _wrap$2[ebp], xmm0

; 1206 : 		float shift = pPose->loop - wrap;

	mov	eax, DWORD PTR _pPose$[ebp]
	movss	xmm0, DWORD PTR [eax+44]
	subss	xmm0, DWORD PTR _wrap$2[ebp]
	movss	DWORD PTR _shift$1[ebp], xmm0

; 1207 : 		flValue = flValue - pPose->loop * floor(( flValue + shift ) / pPose->loop );

	cvtss2sd xmm0, DWORD PTR _flValue$[ebp]
	mov	eax, DWORD PTR _pPose$[ebp]
	cvtss2sd xmm1, DWORD PTR [eax+44]
	movss	xmm2, DWORD PTR _flValue$[ebp]
	addss	xmm2, DWORD PTR _shift$1[ebp]
	mov	ecx, DWORD PTR _pPose$[ebp]
	divss	xmm2, DWORD PTR [ecx+44]
	cvtss2sd xmm2, xmm2
	sub	esp, 8
	movsd	QWORD PTR [esp], xmm2
	movsd	QWORD PTR tv196[ebp], xmm0
	movsd	QWORD PTR tv198[ebp], xmm1
	call	_floor
	add	esp, 8
	fstp	QWORD PTR tv167[ebp]
	movsd	xmm0, QWORD PTR tv198[ebp]
	mulsd	xmm0, QWORD PTR tv167[ebp]
	movsd	xmm1, QWORD PTR tv196[ebp]
	subsd	xmm1, xmm0
	cvtsd2ss xmm0, xmm1
	movss	DWORD PTR _flValue$[ebp], xmm0
$LN4@SetPosePar:

; 1208 : 	}
; 1209 : 
; 1210 : 	ctlValue = (flValue - pPose->start) / (pPose->end - pPose->start);

	mov	eax, DWORD PTR _pPose$[ebp]
	movss	xmm0, DWORD PTR _flValue$[ebp]
	subss	xmm0, DWORD PTR [eax+36]
	mov	ecx, DWORD PTR _pPose$[ebp]
	mov	edx, DWORD PTR _pPose$[ebp]
	movss	xmm1, DWORD PTR [ecx+40]
	subss	xmm1, DWORD PTR [edx+36]
	divss	xmm0, xmm1
	mov	eax, DWORD PTR _ctlValue$[ebp]
	movss	DWORD PTR [eax], xmm0

; 1211 : 	ctlValue = bound( 0.0f, ctlValue, 1.0f );

	mov	eax, DWORD PTR _ctlValue$[ebp]
	movss	xmm0, DWORD PTR [eax]
	comiss	xmm0, DWORD PTR __real@00000000
	jb	SHORT $LN8@SetPosePar
	mov	ecx, DWORD PTR _ctlValue$[ebp]
	movss	xmm0, DWORD PTR __real@3f800000
	comiss	xmm0, DWORD PTR [ecx]
	jbe	SHORT $LN6@SetPosePar
	mov	edx, DWORD PTR _ctlValue$[ebp]
	movss	xmm0, DWORD PTR [edx]
	movss	DWORD PTR tv134[ebp], xmm0
	jmp	SHORT $LN7@SetPosePar
$LN6@SetPosePar:
	movss	xmm0, DWORD PTR __real@3f800000
	movss	DWORD PTR tv134[ebp], xmm0
$LN7@SetPosePar:
	movss	xmm0, DWORD PTR tv134[ebp]
	movss	DWORD PTR tv135[ebp], xmm0
	jmp	SHORT $LN9@SetPosePar
$LN8@SetPosePar:
	xorps	xmm0, xmm0
	movss	DWORD PTR tv135[ebp], xmm0
$LN9@SetPosePar:
	mov	eax, DWORD PTR _ctlValue$[ebp]
	movss	xmm0, DWORD PTR tv135[ebp]
	movss	DWORD PTR [eax], xmm0

; 1212 : 
; 1213 : 	return ctlValue * (pPose->end - pPose->start) + pPose->start;

	mov	eax, DWORD PTR _pPose$[ebp]
	mov	ecx, DWORD PTR _pPose$[ebp]
	movss	xmm0, DWORD PTR [eax+40]
	subss	xmm0, DWORD PTR [ecx+36]
	mov	edx, DWORD PTR _ctlValue$[ebp]
	mulss	xmm0, DWORD PTR [edx]
	mov	eax, DWORD PTR _pPose$[ebp]
	addss	xmm0, DWORD PTR [eax+36]
	movss	DWORD PTR tv192[ebp], xmm0
	fld	DWORD PTR tv192[ebp]
$LN1@SetPosePar:

; 1214 : }

	pop	edi
	pop	esi
	pop	ebx
	mov	esp, ebp
	pop	ebp
	ret	12					; 0000000cH
?SetPoseParameter@CStudioBoneSetup@@QAEMHMAAM@Z ENDP	; CStudioBoneSetup::SetPoseParameter
_TEXT	ENDS
; Function compile flags: /Odtp /ZI
; File d:\!diffusion 2020\source code 2022\client-server\game_shared\bone_setup.cpp
;	COMDAT ?GetPoseParameter@CStudioBoneSetup@@QAEMHM@Z
_TEXT	SEGMENT
tv87 = -76						; size = 4
_pPose$ = -8						; size = 4
_this$ = -4						; size = 4
_iParameter$ = 8					; size = 4
_ctlValue$ = 12						; size = 4
?GetPoseParameter@CStudioBoneSetup@@QAEMHM@Z PROC	; CStudioBoneSetup::GetPoseParameter, COMDAT
; _this$ = ecx

; 1222 : {

	push	ebp
	mov	ebp, esp
	sub	esp, 76					; 0000004cH
	push	ebx
	push	esi
	push	edi
	mov	DWORD PTR _this$[ebp], ecx

; 1223 : 	if( iParameter < 0 || iParameter >= CountPoseParameters( ))

	cmp	DWORD PTR _iParameter$[ebp], 0
	jl	SHORT $LN3@GetPosePar
	mov	ecx, DWORD PTR _this$[ebp]
	call	?CountPoseParameters@CStudioBoneSetup@@QAEHXZ ; CStudioBoneSetup::CountPoseParameters
	cmp	DWORD PTR _iParameter$[ebp], eax
	jl	SHORT $LN2@GetPosePar
$LN3@GetPosePar:

; 1224 : 		return 0.0f;

	fldz
	jmp	SHORT $LN1@GetPosePar
$LN2@GetPosePar:

; 1225 : 
; 1226 : 	const mstudioposeparamdesc_t *pPose = pPoseParameter( iParameter );

	mov	eax, DWORD PTR _iParameter$[ebp]
	push	eax
	mov	ecx, DWORD PTR _this$[ebp]
	call	?pPoseParameter@CStudioBoneSetup@@QAEPBUmstudioposeparamdesc_t@@H@Z ; CStudioBoneSetup::pPoseParameter
	mov	DWORD PTR _pPose$[ebp], eax

; 1227 : 
; 1228 : 	return ctlValue * (pPose->end - pPose->start) + pPose->start;

	mov	eax, DWORD PTR _pPose$[ebp]
	mov	ecx, DWORD PTR _pPose$[ebp]
	movss	xmm0, DWORD PTR [eax+40]
	subss	xmm0, DWORD PTR [ecx+36]
	mulss	xmm0, DWORD PTR _ctlValue$[ebp]
	mov	edx, DWORD PTR _pPose$[ebp]
	addss	xmm0, DWORD PTR [edx+36]
	movss	DWORD PTR tv87[ebp], xmm0
	fld	DWORD PTR tv87[ebp]
$LN1@GetPosePar:

; 1229 : }

	pop	edi
	pop	esi
	pop	ebx
	mov	esp, ebp
	pop	ebp
	ret	8
?GetPoseParameter@CStudioBoneSetup@@QAEMHM@Z ENDP	; CStudioBoneSetup::GetPoseParameter
_TEXT	ENDS
; Function compile flags: /Odtp /ZI
; File d:\!diffusion 2020\source code 2022\client-server\game_shared\bone_setup.cpp
;	COMDAT ?SetController@CStudioBoneSetup@@QAEMHMAAM@Z
_TEXT	SEGMENT
tv161 = -88						; size = 4
tv160 = -84						; size = 4
_flReturnVal$ = -16					; size = 4
_i$ = -12						; size = 4
_pbonecontroller$ = -8					; size = 4
_this$ = -4						; size = 4
_iController$ = 8					; size = 4
_flValue$ = 12						; size = 4
_ctlValue$ = 16						; size = 4
?SetController@CStudioBoneSetup@@QAEMHMAAM@Z PROC	; CStudioBoneSetup::SetController, COMDAT
; _this$ = ecx

; 1105 : {

	push	ebp
	mov	ebp, esp
	sub	esp, 88					; 00000058H
	push	ebx
	push	esi
	push	edi
	mov	DWORD PTR _this$[ebp], ecx

; 1106 : 	if( !m_pStudioHeader )

	mov	eax, DWORD PTR _this$[ebp]
	cmp	DWORD PTR [eax+18968], 0
	jne	SHORT $LN5@SetControl

; 1107 : 		return flValue;

	fld	DWORD PTR _flValue$[ebp]
	jmp	$LN1@SetControl
$LN5@SetControl:

; 1108 : 
; 1109 : 	mstudiobonecontroller_t *pbonecontroller = (mstudiobonecontroller_t *)((byte *)m_pStudioHeader + m_pStudioHeader->bonecontrollerindex);

	mov	eax, DWORD PTR _this$[ebp]
	mov	ecx, DWORD PTR [eax+18968]
	mov	edx, DWORD PTR _this$[ebp]
	mov	eax, DWORD PTR [edx+18968]
	add	eax, DWORD PTR [ecx+152]
	mov	DWORD PTR _pbonecontroller$[ebp], eax

; 1110 : 
; 1111 : 	int i;
; 1112 : 
; 1113 : 	// find first controller that matches the index
; 1114 : 	for( i = 0; i < m_pStudioHeader->numbonecontrollers; i++, pbonecontroller++ )

	mov	DWORD PTR _i$[ebp], 0
	jmp	SHORT $LN4@SetControl
$LN2@SetControl:
	mov	eax, DWORD PTR _i$[ebp]
	add	eax, 1
	mov	DWORD PTR _i$[ebp], eax
	mov	ecx, DWORD PTR _pbonecontroller$[ebp]
	add	ecx, 24					; 00000018H
	mov	DWORD PTR _pbonecontroller$[ebp], ecx
$LN4@SetControl:
	mov	eax, DWORD PTR _this$[ebp]
	mov	ecx, DWORD PTR [eax+18968]
	mov	edx, DWORD PTR _i$[ebp]
	cmp	edx, DWORD PTR [ecx+148]
	jge	SHORT $LN3@SetControl

; 1115 : 	{
; 1116 : 		if( pbonecontroller->index == iController )

	mov	eax, DWORD PTR _pbonecontroller$[ebp]
	mov	ecx, DWORD PTR [eax+20]
	cmp	ecx, DWORD PTR _iController$[ebp]
	jne	SHORT $LN6@SetControl

; 1117 : 			break;

	jmp	SHORT $LN3@SetControl
$LN6@SetControl:

; 1118 : 	}

	jmp	SHORT $LN2@SetControl
$LN3@SetControl:

; 1119 : 
; 1120 : 	if( i >= m_pStudioHeader->numbonecontrollers )

	mov	eax, DWORD PTR _this$[ebp]
	mov	ecx, DWORD PTR [eax+18968]
	mov	edx, DWORD PTR _i$[ebp]
	cmp	edx, DWORD PTR [ecx+148]
	jl	SHORT $LN7@SetControl

; 1121 : 	{
; 1122 : 		ctlValue = 0.0f;

	mov	eax, DWORD PTR _ctlValue$[ebp]
	xorps	xmm0, xmm0
	movss	DWORD PTR [eax], xmm0

; 1123 : 		return flValue;

	fld	DWORD PTR _flValue$[ebp]
	jmp	$LN1@SetControl
$LN7@SetControl:

; 1124 : 	}
; 1125 : 
; 1126 : 	// wrap 0..360 if it's a rotational controller
; 1127 : 	if( FBitSet( pbonecontroller->type, STUDIO_XR|STUDIO_YR|STUDIO_ZR ))

	mov	eax, DWORD PTR _pbonecontroller$[ebp]
	mov	ecx, DWORD PTR [eax+4]
	and	ecx, 56					; 00000038H
	je	$LN16@SetControl

; 1128 : 	{
; 1129 : 		// ugly hack, invert value if end < start
; 1130 : 		if( pbonecontroller->end < pbonecontroller->start )

	mov	eax, DWORD PTR _pbonecontroller$[ebp]
	mov	ecx, DWORD PTR _pbonecontroller$[ebp]
	movss	xmm0, DWORD PTR [eax+8]
	comiss	xmm0, DWORD PTR [ecx+12]
	jbe	SHORT $LN9@SetControl

; 1131 : 			flValue = -flValue;

	movss	xmm0, DWORD PTR _flValue$[ebp]
	xorps	xmm0, DWORD PTR __xmm@80000000800000008000000080000000
	movss	DWORD PTR _flValue$[ebp], xmm0
$LN9@SetControl:

; 1132 : 
; 1133 : 		// does the controller not wrap?
; 1134 : 		if( pbonecontroller->start + 359.0f >= pbonecontroller->end )

	mov	eax, DWORD PTR _pbonecontroller$[ebp]
	movss	xmm0, DWORD PTR [eax+8]
	addss	xmm0, DWORD PTR __real@43b38000
	mov	ecx, DWORD PTR _pbonecontroller$[ebp]
	comiss	xmm0, DWORD PTR [ecx+12]
	jb	SHORT $LN10@SetControl

; 1135 : 		{
; 1136 : 			if( flValue > (( pbonecontroller->start + pbonecontroller->end) / 2.0f ) + 180.0f )

	mov	eax, DWORD PTR _pbonecontroller$[ebp]
	mov	ecx, DWORD PTR _pbonecontroller$[ebp]
	movss	xmm0, DWORD PTR [eax+8]
	addss	xmm0, DWORD PTR [ecx+12]
	divss	xmm0, DWORD PTR __real@40000000
	addss	xmm0, DWORD PTR __real@43340000
	movss	xmm1, DWORD PTR _flValue$[ebp]
	comiss	xmm1, xmm0
	jbe	SHORT $LN12@SetControl

; 1137 : 				flValue = flValue - 360.0f;

	movss	xmm0, DWORD PTR _flValue$[ebp]
	subss	xmm0, DWORD PTR __real@43b40000
	movss	DWORD PTR _flValue$[ebp], xmm0
$LN12@SetControl:

; 1138 : 			if( flValue < (( pbonecontroller->start + pbonecontroller->end) / 2.0f ) - 180.0f )

	mov	eax, DWORD PTR _pbonecontroller$[ebp]
	mov	ecx, DWORD PTR _pbonecontroller$[ebp]
	movss	xmm0, DWORD PTR [eax+8]
	addss	xmm0, DWORD PTR [ecx+12]
	divss	xmm0, DWORD PTR __real@40000000
	subss	xmm0, DWORD PTR __real@43340000
	comiss	xmm0, DWORD PTR _flValue$[ebp]
	jbe	SHORT $LN13@SetControl

; 1139 : 				flValue = flValue + 360.0f;

	movss	xmm0, DWORD PTR _flValue$[ebp]
	addss	xmm0, DWORD PTR __real@43b40000
	movss	DWORD PTR _flValue$[ebp], xmm0
$LN13@SetControl:

; 1140 : 		}
; 1141 : 		else

	jmp	SHORT $LN16@SetControl
$LN10@SetControl:

; 1142 : 		{
; 1143 : 			if( flValue > 360.0f )

	movss	xmm0, DWORD PTR _flValue$[ebp]
	comiss	xmm0, DWORD PTR __real@43b40000
	jbe	SHORT $LN14@SetControl

; 1144 : 				flValue = flValue - (int)(flValue / 360.0f) * 360.0f;

	movss	xmm0, DWORD PTR _flValue$[ebp]
	divss	xmm0, DWORD PTR __real@43b40000
	cvttss2si eax, xmm0
	cvtsi2ss xmm0, eax
	mulss	xmm0, DWORD PTR __real@43b40000
	movss	xmm1, DWORD PTR _flValue$[ebp]
	subss	xmm1, xmm0
	movss	DWORD PTR _flValue$[ebp], xmm1
	jmp	SHORT $LN16@SetControl
$LN14@SetControl:

; 1145 : 			else if( flValue < 0.0f )

	xorps	xmm0, xmm0
	comiss	xmm0, DWORD PTR _flValue$[ebp]
	jbe	SHORT $LN16@SetControl

; 1146 : 				flValue = flValue + (int)((flValue / -360.0f) + 1.0f) * 360.0f;

	movss	xmm0, DWORD PTR _flValue$[ebp]
	divss	xmm0, DWORD PTR __real@c3b40000
	addss	xmm0, DWORD PTR __real@3f800000
	cvttss2si eax, xmm0
	cvtsi2ss xmm0, eax
	mulss	xmm0, DWORD PTR __real@43b40000
	addss	xmm0, DWORD PTR _flValue$[ebp]
	movss	DWORD PTR _flValue$[ebp], xmm0
$LN16@SetControl:

; 1147 : 		}
; 1148 : 	}
; 1149 : 
; 1150 : 	ctlValue = (flValue - pbonecontroller->start) / (pbonecontroller->end - pbonecontroller->start);

	mov	eax, DWORD PTR _pbonecontroller$[ebp]
	movss	xmm0, DWORD PTR _flValue$[ebp]
	subss	xmm0, DWORD PTR [eax+8]
	mov	ecx, DWORD PTR _pbonecontroller$[ebp]
	mov	edx, DWORD PTR _pbonecontroller$[ebp]
	movss	xmm1, DWORD PTR [ecx+12]
	subss	xmm1, DWORD PTR [edx+8]
	divss	xmm0, xmm1
	mov	eax, DWORD PTR _ctlValue$[ebp]
	movss	DWORD PTR [eax], xmm0

; 1151 : 	ctlValue = bound( 0.0f, ctlValue, 1.0f );

	mov	eax, DWORD PTR _ctlValue$[ebp]
	movss	xmm0, DWORD PTR [eax]
	comiss	xmm0, DWORD PTR __real@00000000
	jb	SHORT $LN21@SetControl
	mov	ecx, DWORD PTR _ctlValue$[ebp]
	movss	xmm0, DWORD PTR __real@3f800000
	comiss	xmm0, DWORD PTR [ecx]
	jbe	SHORT $LN19@SetControl
	mov	edx, DWORD PTR _ctlValue$[ebp]
	movss	xmm0, DWORD PTR [edx]
	movss	DWORD PTR tv160[ebp], xmm0
	jmp	SHORT $LN20@SetControl
$LN19@SetControl:
	movss	xmm0, DWORD PTR __real@3f800000
	movss	DWORD PTR tv160[ebp], xmm0
$LN20@SetControl:
	movss	xmm0, DWORD PTR tv160[ebp]
	movss	DWORD PTR tv161[ebp], xmm0
	jmp	SHORT $LN22@SetControl
$LN21@SetControl:
	xorps	xmm0, xmm0
	movss	DWORD PTR tv161[ebp], xmm0
$LN22@SetControl:
	mov	eax, DWORD PTR _ctlValue$[ebp]
	movss	xmm0, DWORD PTR tv161[ebp]
	movss	DWORD PTR [eax], xmm0

; 1152 : 
; 1153 : 	float flReturnVal = ((1.0f - ctlValue) * pbonecontroller->start + ctlValue * pbonecontroller->end);

	mov	eax, DWORD PTR _ctlValue$[ebp]
	movss	xmm0, DWORD PTR __real@3f800000
	subss	xmm0, DWORD PTR [eax]
	mov	ecx, DWORD PTR _pbonecontroller$[ebp]
	mulss	xmm0, DWORD PTR [ecx+8]
	mov	edx, DWORD PTR _ctlValue$[ebp]
	mov	eax, DWORD PTR _pbonecontroller$[ebp]
	movss	xmm1, DWORD PTR [edx]
	mulss	xmm1, DWORD PTR [eax+12]
	addss	xmm0, xmm1
	movss	DWORD PTR _flReturnVal$[ebp], xmm0

; 1154 : 
; 1155 : 	// ugly hack, invert value if a rotational controller and end < start
; 1156 : 	if( FBitSet( pbonecontroller->type, STUDIO_XR | STUDIO_YR | STUDIO_ZR ) && pbonecontroller->end < pbonecontroller->start )

	mov	eax, DWORD PTR _pbonecontroller$[ebp]
	mov	ecx, DWORD PTR [eax+4]
	and	ecx, 56					; 00000038H
	je	SHORT $LN17@SetControl
	mov	eax, DWORD PTR _pbonecontroller$[ebp]
	mov	ecx, DWORD PTR _pbonecontroller$[ebp]
	movss	xmm0, DWORD PTR [eax+8]
	comiss	xmm0, DWORD PTR [ecx+12]
	jbe	SHORT $LN17@SetControl

; 1157 : 	{
; 1158 : 		flReturnVal *= -1.0f;

	movss	xmm0, DWORD PTR _flReturnVal$[ebp]
	mulss	xmm0, DWORD PTR __real@bf800000
	movss	DWORD PTR _flReturnVal$[ebp], xmm0
$LN17@SetControl:

; 1159 : 	}
; 1160 : 	
; 1161 : 	return flReturnVal;

	fld	DWORD PTR _flReturnVal$[ebp]
$LN1@SetControl:

; 1162 : }

	pop	edi
	pop	esi
	pop	ebx
	mov	esp, ebp
	pop	ebp
	ret	12					; 0000000cH
?SetController@CStudioBoneSetup@@QAEMHMAAM@Z ENDP	; CStudioBoneSetup::SetController
_TEXT	ENDS
; Function compile flags: /Odtp /ZI
; File d:\!diffusion 2020\source code 2022\client-server\game_shared\bone_setup.cpp
;	COMDAT ?GetController@CStudioBoneSetup@@QAEMHM@Z
_TEXT	SEGMENT
tv142 = -80						; size = 4
_i$ = -12						; size = 4
_pbonecontroller$ = -8					; size = 4
_this$ = -4						; size = 4
_iController$ = 8					; size = 4
_ctlValue$ = 12						; size = 4
?GetController@CStudioBoneSetup@@QAEMHM@Z PROC		; CStudioBoneSetup::GetController, COMDAT
; _this$ = ecx

; 1169 : {

	push	ebp
	mov	ebp, esp
	sub	esp, 80					; 00000050H
	push	ebx
	push	esi
	push	edi
	mov	DWORD PTR _this$[ebp], ecx

; 1170 : 	if( !m_pStudioHeader )

	mov	eax, DWORD PTR _this$[ebp]
	cmp	DWORD PTR [eax+18968], 0
	jne	SHORT $LN5@GetControl

; 1171 : 		return 0.0f;

	fldz
	jmp	$LN1@GetControl
$LN5@GetControl:

; 1172 : 
; 1173 : 	mstudiobonecontroller_t *pbonecontroller = (mstudiobonecontroller_t *)((byte *)m_pStudioHeader + m_pStudioHeader->bonecontrollerindex);

	mov	eax, DWORD PTR _this$[ebp]
	mov	ecx, DWORD PTR [eax+18968]
	mov	edx, DWORD PTR _this$[ebp]
	mov	eax, DWORD PTR [edx+18968]
	add	eax, DWORD PTR [ecx+152]
	mov	DWORD PTR _pbonecontroller$[ebp], eax

; 1174 : 
; 1175 : 	int i;
; 1176 : 
; 1177 : 	// find first controller that matches the index
; 1178 : 	for( i = 0; i < m_pStudioHeader->numbonecontrollers; i++, pbonecontroller++ )

	mov	DWORD PTR _i$[ebp], 0
	jmp	SHORT $LN4@GetControl
$LN2@GetControl:
	mov	eax, DWORD PTR _i$[ebp]
	add	eax, 1
	mov	DWORD PTR _i$[ebp], eax
	mov	ecx, DWORD PTR _pbonecontroller$[ebp]
	add	ecx, 24					; 00000018H
	mov	DWORD PTR _pbonecontroller$[ebp], ecx
$LN4@GetControl:
	mov	eax, DWORD PTR _this$[ebp]
	mov	ecx, DWORD PTR [eax+18968]
	mov	edx, DWORD PTR _i$[ebp]
	cmp	edx, DWORD PTR [ecx+148]
	jge	SHORT $LN3@GetControl

; 1179 : 	{
; 1180 : 		if( pbonecontroller->index == iController )

	mov	eax, DWORD PTR _pbonecontroller$[ebp]
	mov	ecx, DWORD PTR [eax+20]
	cmp	ecx, DWORD PTR _iController$[ebp]
	jne	SHORT $LN6@GetControl

; 1181 : 			break;

	jmp	SHORT $LN3@GetControl
$LN6@GetControl:

; 1182 : 	}

	jmp	SHORT $LN2@GetControl
$LN3@GetControl:

; 1183 : 
; 1184 : 	if( i >= m_pStudioHeader->numbonecontrollers )

	mov	eax, DWORD PTR _this$[ebp]
	mov	ecx, DWORD PTR [eax+18968]
	mov	edx, DWORD PTR _i$[ebp]
	cmp	edx, DWORD PTR [ecx+148]
	jl	SHORT $LN7@GetControl

; 1185 : 		return 0.0f;

	fldz
	jmp	SHORT $LN1@GetControl
$LN7@GetControl:

; 1186 : 
; 1187 : 	return ctlValue * (pbonecontroller->end - pbonecontroller->start) + pbonecontroller->start;

	mov	eax, DWORD PTR _pbonecontroller$[ebp]
	mov	ecx, DWORD PTR _pbonecontroller$[ebp]
	movss	xmm0, DWORD PTR [eax+12]
	subss	xmm0, DWORD PTR [ecx+8]
	mulss	xmm0, DWORD PTR _ctlValue$[ebp]
	mov	edx, DWORD PTR _pbonecontroller$[ebp]
	addss	xmm0, DWORD PTR [edx+8]
	movss	DWORD PTR tv142[ebp], xmm0
	fld	DWORD PTR tv142[ebp]
$LN1@GetControl:

; 1188 : }

	pop	edi
	pop	esi
	pop	ebx
	mov	esp, ebp
	pop	ebp
	ret	8
?GetController@CStudioBoneSetup@@QAEMHM@Z ENDP		; CStudioBoneSetup::GetController
_TEXT	ENDS
; Function compile flags: /Odtp /ZI
; File d:\!diffusion 2020\source code 2022\client-server\game_shared\bone_setup.cpp
;	COMDAT ?CalcDefaultPoseParameters@CStudioBoneSetup@@QAEXQAM@Z
_TEXT	SEGMENT
_flPoseDelta$1 = -20					; size = 4
_pPose$2 = -16						; size = 4
_i$3 = -12						; size = 4
_nPoseCount$ = -8					; size = 4
_this$ = -4						; size = 4
_flPoseParams$ = 8					; size = 4
?CalcDefaultPoseParameters@CStudioBoneSetup@@QAEXQAM@Z PROC ; CStudioBoneSetup::CalcDefaultPoseParameters, COMDAT
; _this$ = ecx

; 887  : {

	push	ebp
	mov	ebp, esp
	sub	esp, 84					; 00000054H
	push	ebx
	push	esi
	push	edi
	mov	DWORD PTR _this$[ebp], ecx

; 888  : 	int nPoseCount = CountPoseParameters();

	mov	ecx, DWORD PTR _this$[ebp]
	call	?CountPoseParameters@CStudioBoneSetup@@QAEHXZ ; CStudioBoneSetup::CountPoseParameters
	mov	DWORD PTR _nPoseCount$[ebp], eax

; 889  : 
; 890  : 	for( int i = 0; i < MAXSTUDIOPOSEPARAM; i++ )

	mov	DWORD PTR _i$3[ebp], 0
	jmp	SHORT $LN4@CalcDefaul
$LN2@CalcDefaul:
	mov	eax, DWORD PTR _i$3[ebp]
	add	eax, 1
	mov	DWORD PTR _i$3[ebp], eax
$LN4@CalcDefaul:
	cmp	DWORD PTR _i$3[ebp], 24			; 00000018H
	jge	$LN3@CalcDefaul

; 891  : 	{
; 892  : 		// default to middle of the pose parameter range
; 893  : 		flPoseParams[i] = 0.5f;

	mov	eax, DWORD PTR _i$3[ebp]
	mov	ecx, DWORD PTR _flPoseParams$[ebp]
	movss	xmm0, DWORD PTR __real@3f000000
	movss	DWORD PTR [ecx+eax*4], xmm0

; 894  : 
; 895  : 		if( i < nPoseCount )

	mov	eax, DWORD PTR _i$3[ebp]
	cmp	eax, DWORD PTR _nPoseCount$[ebp]
	jge	SHORT $LN6@CalcDefaul

; 896  : 		{
; 897  : 			const mstudioposeparamdesc_t *pPose = pPoseParameter( i );

	mov	eax, DWORD PTR _i$3[ebp]
	push	eax
	mov	ecx, DWORD PTR _this$[ebp]
	call	?pPoseParameter@CStudioBoneSetup@@QAEPBUmstudioposeparamdesc_t@@H@Z ; CStudioBoneSetup::pPoseParameter
	mov	DWORD PTR _pPose$2[ebp], eax

; 898  : 
; 899  : 			// want to try for a zero state. If one doesn't exist set it to .5 by default.
; 900  : 			if( pPose->start < 0.0f && pPose->end > 0.0f )

	mov	eax, DWORD PTR _pPose$2[ebp]
	xorps	xmm0, xmm0
	comiss	xmm0, DWORD PTR [eax+36]
	jbe	SHORT $LN6@CalcDefaul
	mov	eax, DWORD PTR _pPose$2[ebp]
	movss	xmm0, DWORD PTR [eax+40]
	comiss	xmm0, DWORD PTR __real@00000000
	jbe	SHORT $LN6@CalcDefaul

; 901  : 			{
; 902  : 				float flPoseDelta = pPose->end - pPose->start;

	mov	eax, DWORD PTR _pPose$2[ebp]
	mov	ecx, DWORD PTR _pPose$2[ebp]
	movss	xmm0, DWORD PTR [eax+40]
	subss	xmm0, DWORD PTR [ecx+36]
	movss	DWORD PTR _flPoseDelta$1[ebp], xmm0

; 903  : 				flPoseParams[i] = -pPose->start / flPoseDelta;

	mov	eax, DWORD PTR _pPose$2[ebp]
	movss	xmm0, DWORD PTR [eax+36]
	xorps	xmm0, DWORD PTR __xmm@80000000800000008000000080000000
	divss	xmm0, DWORD PTR _flPoseDelta$1[ebp]
	mov	ecx, DWORD PTR _i$3[ebp]
	mov	edx, DWORD PTR _flPoseParams$[ebp]
	movss	DWORD PTR [edx+ecx*4], xmm0
$LN6@CalcDefaul:

; 904  : 			}
; 905  : 		}
; 906  : 	}

	jmp	$LN2@CalcDefaul
$LN3@CalcDefaul:

; 907  : }

	pop	edi
	pop	esi
	pop	ebx
	mov	esp, ebp
	pop	ebp
	ret	4
?CalcDefaultPoseParameters@CStudioBoneSetup@@QAEXQAM@Z ENDP ; CStudioBoneSetup::CalcDefaultPoseParameters
_TEXT	ENDS
; Function compile flags: /Odtp /ZI
; File d:\!diffusion 2020\source code 2022\client-server\game_shared\bs_defs.h
;	COMDAT ?SetBoneControllers@CStudioBoneSetup@@QAEXPAM@Z
_TEXT	SEGMENT
_this$ = -4						; size = 4
_pNewList$ = 8						; size = 4
?SetBoneControllers@CStudioBoneSetup@@QAEXPAM@Z PROC	; CStudioBoneSetup::SetBoneControllers, COMDAT
; _this$ = ecx

; 348  : 	void SetBoneControllers( float *pNewList ) { m_flBoneControllers = pNewList; }

	push	ebp
	mov	ebp, esp
	sub	esp, 68					; 00000044H
	push	ebx
	push	esi
	push	edi
	mov	DWORD PTR _this$[ebp], ecx
	mov	eax, DWORD PTR _this$[ebp]
	mov	ecx, DWORD PTR _pNewList$[ebp]
	mov	DWORD PTR [eax+520], ecx
	pop	edi
	pop	esi
	pop	ebx
	mov	esp, ebp
	pop	ebp
	ret	4
?SetBoneControllers@CStudioBoneSetup@@QAEXPAM@Z ENDP	; CStudioBoneSetup::SetBoneControllers
_TEXT	ENDS
; Function compile flags: /Odtp /ZI
; File d:\!diffusion 2020\source code 2022\client-server\game_shared\bone_setup.cpp
;	COMDAT ?CalcAutoplaySequences@CStudioBoneSetup@@QAEXPAVCIKContext@@QAVVector@@QAVVector4D@@@Z
_TEXT	SEGMENT
_cycle$1 = -20						; size = 4
_cps$2 = -16						; size = 4
_pseqdesc$3 = -12					; size = 4
_i$4 = -8						; size = 4
_this$ = -4						; size = 4
_pIKContext$ = 8					; size = 4
_pos$ = 12						; size = 4
_q$ = 16						; size = 4
?CalcAutoplaySequences@CStudioBoneSetup@@QAEXPAVCIKContext@@QAVVector@@QAVVector4D@@@Z PROC ; CStudioBoneSetup::CalcAutoplaySequences, COMDAT
; _this$ = ecx

; 2343 : {

	push	ebp
	mov	ebp, esp
	sub	esp, 84					; 00000054H
	push	ebx
	push	esi
	push	edi
	mov	DWORD PTR _this$[ebp], ecx

; 2344 : 	if( pIKContext )

	cmp	DWORD PTR _pIKContext$[ebp], 0
	je	SHORT $LN5@CalcAutopl

; 2345 : 	{
; 2346 : 		pIKContext->AddAutoplayLocks( pos, q );

	mov	eax, DWORD PTR _q$[ebp]
	push	eax
	mov	ecx, DWORD PTR _pos$[ebp]
	push	ecx
	mov	ecx, DWORD PTR _pIKContext$[ebp]
	call	?AddAutoplayLocks@CIKContext@@QAEXQAVVector@@QAVVector4D@@@Z ; CIKContext::AddAutoplayLocks
$LN5@CalcAutopl:

; 2347 : 	}
; 2348 : 
; 2349 : 	for( int i = 0; i < m_pStudioHeader->numseq; i++ )

	mov	DWORD PTR _i$4[ebp], 0
	jmp	SHORT $LN4@CalcAutopl
$LN2@CalcAutopl:
	mov	eax, DWORD PTR _i$4[ebp]
	add	eax, 1
	mov	DWORD PTR _i$4[ebp], eax
$LN4@CalcAutopl:
	mov	eax, DWORD PTR _this$[ebp]
	mov	ecx, DWORD PTR [eax+18968]
	mov	edx, DWORD PTR _i$4[ebp]
	cmp	edx, DWORD PTR [ecx+164]
	jge	$LN3@CalcAutopl

; 2350 : 	{
; 2351 : 		mstudioseqdesc_t *pseqdesc = (mstudioseqdesc_t *)((byte *)m_pStudioHeader + m_pStudioHeader->seqindex) + i;

	mov	eax, DWORD PTR _this$[ebp]
	mov	ecx, DWORD PTR [eax+18968]
	mov	edx, DWORD PTR _this$[ebp]
	mov	eax, DWORD PTR [edx+18968]
	add	eax, DWORD PTR [ecx+168]
	imul	ecx, DWORD PTR _i$4[ebp], 176
	add	eax, ecx
	mov	DWORD PTR _pseqdesc$3[ebp], eax

; 2352 : 
; 2353 : 		if( !FBitSet( pseqdesc->flags, STUDIO_AUTOPLAY ))

	mov	eax, DWORD PTR _pseqdesc$3[ebp]
	mov	ecx, DWORD PTR [eax+36]
	and	ecx, 8
	jne	SHORT $LN6@CalcAutopl

; 2354 : 			continue;

	jmp	SHORT $LN2@CalcAutopl
$LN6@CalcAutopl:

; 2355 : 
; 2356 : 		float cps = LocalCPS( i );

	mov	eax, DWORD PTR _i$4[ebp]
	push	eax
	mov	ecx, DWORD PTR _this$[ebp]
	call	?LocalCPS@CStudioBoneSetup@@QAEMH@Z	; CStudioBoneSetup::LocalCPS
	fstp	DWORD PTR _cps$2[ebp]

; 2357 : 		float cycle = m_flTime * cps;

	mov	eax, DWORD PTR _this$[ebp]
	movss	xmm0, DWORD PTR [eax+532]
	mulss	xmm0, DWORD PTR _cps$2[ebp]
	movss	DWORD PTR _cycle$1[ebp], xmm0

; 2358 : 		cycle = cycle - (int)cycle;

	cvttss2si eax, DWORD PTR _cycle$1[ebp]
	cvtsi2ss xmm0, eax
	movss	xmm1, DWORD PTR _cycle$1[ebp]
	subss	xmm1, xmm0
	movss	DWORD PTR _cycle$1[ebp], xmm1

; 2359 : 
; 2360 : 		AccumulatePose( NULL, pos, q, i, cycle, 1.0 );

	push	ecx
	movss	xmm0, DWORD PTR __real@3f800000
	movss	DWORD PTR [esp], xmm0
	push	ecx
	movss	xmm0, DWORD PTR _cycle$1[ebp]
	movss	DWORD PTR [esp], xmm0
	mov	eax, DWORD PTR _i$4[ebp]
	push	eax
	mov	ecx, DWORD PTR _q$[ebp]
	push	ecx
	mov	edx, DWORD PTR _pos$[ebp]
	push	edx
	push	0
	mov	ecx, DWORD PTR _this$[ebp]
	call	?AccumulatePose@CStudioBoneSetup@@QAEXPAVCIKContext@@QAVVector@@QAVVector4D@@HMM@Z ; CStudioBoneSetup::AccumulatePose

; 2361 : 	}

	jmp	$LN2@CalcAutopl
$LN3@CalcAutopl:

; 2362 : 
; 2363 : 	if( pIKContext )

	cmp	DWORD PTR _pIKContext$[ebp], 0
	je	SHORT $LN7@CalcAutopl

; 2364 : 	{
; 2365 : 		pIKContext->SolveAutoplayLocks( pos, q );

	mov	eax, DWORD PTR _q$[ebp]
	push	eax
	mov	ecx, DWORD PTR _pos$[ebp]
	push	ecx
	mov	ecx, DWORD PTR _pIKContext$[ebp]
	call	?SolveAutoplayLocks@CIKContext@@QAEXQAVVector@@QAVVector4D@@@Z ; CIKContext::SolveAutoplayLocks
$LN7@CalcAutopl:

; 2366 : 	}
; 2367 : }

	pop	edi
	pop	esi
	pop	ebx
	mov	esp, ebp
	pop	ebp
	ret	12					; 0000000cH
?CalcAutoplaySequences@CStudioBoneSetup@@QAEXPAVCIKContext@@QAVVector@@QAVVector4D@@@Z ENDP ; CStudioBoneSetup::CalcAutoplaySequences
_TEXT	ENDS
; Function compile flags: /Odtp /ZI
; File d:\!diffusion 2020\source code 2022\client-server\game_shared\bone_setup.cpp
;	COMDAT ?CalcBoneAdj@CStudioBoneSetup@@QAEXQAMQBEE@Z
_TEXT	SEGMENT
tv151 = -136						; size = 4
tv132 = -136						; size = 4
tv160 = -132						; size = 4
tv150 = -132						; size = 4
tv131 = -132						; size = 4
_q0$ = -64						; size = 16
_a0$ = -48						; size = 12
_p0$ = -36						; size = 12
_value$ = -24						; size = 4
_k$ = -20						; size = 4
_j$ = -16						; size = 4
_i$ = -12						; size = 4
_pbonecontroller$ = -8					; size = 4
_this$ = -4						; size = 4
_adj$ = 8						; size = 4
_controllers$ = 12					; size = 4
_mouthopen$ = 16					; size = 1
?CalcBoneAdj@CStudioBoneSetup@@QAEXQAMQBEE@Z PROC	; CStudioBoneSetup::CalcBoneAdj, COMDAT
; _this$ = ecx

; 2297 : {

	push	ebp
	mov	ebp, esp
	sub	esp, 136				; 00000088H
	push	ebx
	push	esi
	push	edi
	mov	DWORD PTR _this$[ebp], ecx

; 2298 : 	mstudiobonecontroller_t	*pbonecontroller;
; 2299 : 	int			i, j, k;
; 2300 : 	float			value;
; 2301 : 	Vector			p0;

	lea	ecx, DWORD PTR _p0$[ebp]
	call	??0Vector@@QAE@XZ			; Vector::Vector

; 2302 : 	Radian			a0;

	lea	ecx, DWORD PTR _a0$[ebp]
	call	??0Radian@@QAE@XZ			; Radian::Radian

; 2303 : 	Vector4D			q0;

	lea	ecx, DWORD PTR _q0$[ebp]
	call	??0Vector4D@@QAE@XZ			; Vector4D::Vector4D

; 2304 : 	
; 2305 : 	for( j = 0; j < m_pStudioHeader->numbonecontrollers; j++ )

	mov	DWORD PTR _j$[ebp], 0
	jmp	SHORT $LN4@CalcBoneAd
$LN2@CalcBoneAd:
	mov	eax, DWORD PTR _j$[ebp]
	add	eax, 1
	mov	DWORD PTR _j$[ebp], eax
$LN4@CalcBoneAd:
	mov	eax, DWORD PTR _this$[ebp]
	mov	ecx, DWORD PTR [eax+18968]
	mov	edx, DWORD PTR _j$[ebp]
	cmp	edx, DWORD PTR [ecx+148]
	jge	$LN3@CalcBoneAd

; 2306 : 	{
; 2307 : 		pbonecontroller = (mstudiobonecontroller_t *)((byte *)m_pStudioHeader + m_pStudioHeader->bonecontrollerindex) + j;

	mov	eax, DWORD PTR _this$[ebp]
	mov	ecx, DWORD PTR [eax+18968]
	mov	edx, DWORD PTR _this$[ebp]
	mov	eax, DWORD PTR [edx+18968]
	add	eax, DWORD PTR [ecx+152]
	imul	ecx, DWORD PTR _j$[ebp], 24
	add	eax, ecx
	mov	DWORD PTR _pbonecontroller$[ebp], eax

; 2308 : 		k = pbonecontroller->bone;

	mov	eax, DWORD PTR _pbonecontroller$[ebp]
	mov	ecx, DWORD PTR [eax]
	mov	DWORD PTR _k$[ebp], ecx

; 2309 : 
; 2310 : 		if( IsBoneUsed( k ))

	mov	eax, DWORD PTR _k$[ebp]
	push	eax
	mov	ecx, DWORD PTR _this$[ebp]
	call	?IsBoneUsed@CStudioBoneSetup@@QAE_NH@Z	; CStudioBoneSetup::IsBoneUsed
	movzx	ecx, al
	test	ecx, ecx
	je	$LN5@CalcBoneAd

; 2311 : 		{
; 2312 : 			i = pbonecontroller->index;

	mov	eax, DWORD PTR _pbonecontroller$[ebp]
	mov	ecx, DWORD PTR [eax+20]
	mov	DWORD PTR _i$[ebp], ecx

; 2313 : 
; 2314 : 			if( i == STUDIO_MOUTH )

	cmp	DWORD PTR _i$[ebp], 4
	jne	$LN8@CalcBoneAd

; 2315 : 				value = bound( 0.0f, ( mouthopen / 64.0f ), 1.0f );				

	movzx	eax, BYTE PTR _mouthopen$[ebp]
	cvtsi2ss xmm0, eax
	divss	xmm0, DWORD PTR __real@42800000
	comiss	xmm0, DWORD PTR __real@00000000
	jb	SHORT $LN15@CalcBoneAd
	movzx	ecx, BYTE PTR _mouthopen$[ebp]
	cvtsi2ss xmm0, ecx
	divss	xmm0, DWORD PTR __real@42800000
	movss	xmm1, DWORD PTR __real@3f800000
	comiss	xmm1, xmm0
	jbe	SHORT $LN13@CalcBoneAd
	movzx	edx, BYTE PTR _mouthopen$[ebp]
	cvtsi2ss xmm0, edx
	divss	xmm0, DWORD PTR __real@42800000
	movss	DWORD PTR tv131[ebp], xmm0
	jmp	SHORT $LN14@CalcBoneAd
$LN13@CalcBoneAd:
	movss	xmm0, DWORD PTR __real@3f800000
	movss	DWORD PTR tv131[ebp], xmm0
$LN14@CalcBoneAd:
	movss	xmm0, DWORD PTR tv131[ebp]
	movss	DWORD PTR tv132[ebp], xmm0
	jmp	SHORT $LN16@CalcBoneAd
$LN15@CalcBoneAd:
	xorps	xmm0, xmm0
	movss	DWORD PTR tv132[ebp], xmm0
$LN16@CalcBoneAd:
	movss	xmm0, DWORD PTR tv132[ebp]
	movss	DWORD PTR _value$[ebp], xmm0
	jmp	$LN9@CalcBoneAd
$LN8@CalcBoneAd:

; 2316 : 			else value = bound( 0.0f, (float)controllers[i] / 255.0f, 1.0f );

	mov	eax, DWORD PTR _controllers$[ebp]
	add	eax, DWORD PTR _i$[ebp]
	movzx	ecx, BYTE PTR [eax]
	cvtsi2ss xmm0, ecx
	divss	xmm0, DWORD PTR __real@437f0000
	comiss	xmm0, DWORD PTR __real@00000000
	jb	SHORT $LN19@CalcBoneAd
	mov	edx, DWORD PTR _controllers$[ebp]
	add	edx, DWORD PTR _i$[ebp]
	movzx	eax, BYTE PTR [edx]
	cvtsi2ss xmm0, eax
	divss	xmm0, DWORD PTR __real@437f0000
	movss	xmm1, DWORD PTR __real@3f800000
	comiss	xmm1, xmm0
	jbe	SHORT $LN17@CalcBoneAd
	mov	ecx, DWORD PTR _controllers$[ebp]
	add	ecx, DWORD PTR _i$[ebp]
	movzx	edx, BYTE PTR [ecx]
	cvtsi2ss xmm0, edx
	divss	xmm0, DWORD PTR __real@437f0000
	movss	DWORD PTR tv150[ebp], xmm0
	jmp	SHORT $LN18@CalcBoneAd
$LN17@CalcBoneAd:
	movss	xmm0, DWORD PTR __real@3f800000
	movss	DWORD PTR tv150[ebp], xmm0
$LN18@CalcBoneAd:
	movss	xmm0, DWORD PTR tv150[ebp]
	movss	DWORD PTR tv151[ebp], xmm0
	jmp	SHORT $LN20@CalcBoneAd
$LN19@CalcBoneAd:
	xorps	xmm0, xmm0
	movss	DWORD PTR tv151[ebp], xmm0
$LN20@CalcBoneAd:
	movss	xmm0, DWORD PTR tv151[ebp]
	movss	DWORD PTR _value$[ebp], xmm0
$LN9@CalcBoneAd:

; 2317 : 			value = (1.0f - value) * pbonecontroller->start + value * pbonecontroller->end;

	movss	xmm0, DWORD PTR __real@3f800000
	subss	xmm0, DWORD PTR _value$[ebp]
	mov	eax, DWORD PTR _pbonecontroller$[ebp]
	mulss	xmm0, DWORD PTR [eax+8]
	mov	ecx, DWORD PTR _pbonecontroller$[ebp]
	movss	xmm1, DWORD PTR _value$[ebp]
	mulss	xmm1, DWORD PTR [ecx+12]
	addss	xmm0, xmm1
	movss	DWORD PTR _value$[ebp], xmm0

; 2318 : 
; 2319 : 			switch( pbonecontroller->type & STUDIO_TYPES )

	mov	eax, DWORD PTR _pbonecontroller$[ebp]
	mov	ecx, DWORD PTR [eax+4]
	and	ecx, 32767				; 00007fffH
	mov	DWORD PTR tv160[ebp], ecx
	mov	edx, DWORD PTR tv160[ebp]
	sub	edx, 1
	mov	DWORD PTR tv160[ebp], edx
	cmp	DWORD PTR tv160[ebp], 31		; 0000001fH
	ja	SHORT $LN5@CalcBoneAd
	mov	eax, DWORD PTR tv160[ebp]
	movzx	ecx, BYTE PTR $LN21@CalcBoneAd[eax]
	jmp	DWORD PTR $LN22@CalcBoneAd[ecx*4]
$LN10@CalcBoneAd:

; 2320 : 			{
; 2321 : 			case STUDIO_YR: 
; 2322 : 			case STUDIO_ZR: 
; 2323 : 			case STUDIO_XR: 
; 2324 : 				adj[j] = DEG2RAD( value ); 

	movss	xmm0, DWORD PTR _value$[ebp]
	mulss	xmm0, DWORD PTR __real@3c8efa35
	mov	eax, DWORD PTR _j$[ebp]
	mov	ecx, DWORD PTR _adj$[ebp]
	movss	DWORD PTR [ecx+eax*4], xmm0

; 2325 : 				break;

	jmp	SHORT $LN5@CalcBoneAd
$LN11@CalcBoneAd:

; 2326 : 			case STUDIO_X:	
; 2327 : 			case STUDIO_Y:
; 2328 : 			case STUDIO_Z:
; 2329 : 				adj[j] = value;

	mov	eax, DWORD PTR _j$[ebp]
	mov	ecx, DWORD PTR _adj$[ebp]
	movss	xmm0, DWORD PTR _value$[ebp]
	movss	DWORD PTR [ecx+eax*4], xmm0
$LN5@CalcBoneAd:

; 2330 : 				break;
; 2331 : 			}
; 2332 : 		}
; 2333 : 	}

	jmp	$LN2@CalcBoneAd
$LN3@CalcBoneAd:

; 2334 : 
; 2335 : 	// list is installed
; 2336 : 	SetBoneControllers( adj );

	mov	eax, DWORD PTR _adj$[ebp]
	push	eax
	mov	ecx, DWORD PTR _this$[ebp]
	call	?SetBoneControllers@CStudioBoneSetup@@QAEXPAM@Z ; CStudioBoneSetup::SetBoneControllers

; 2337 : }

	pop	edi
	pop	esi
	pop	ebx
	mov	esp, ebp
	pop	ebp
	ret	12					; 0000000cH
	npad	3
$LN22@CalcBoneAd:
	DD	$LN11@CalcBoneAd
	DD	$LN10@CalcBoneAd
	DD	$LN5@CalcBoneAd
$LN21@CalcBoneAd:
	DB	0
	DB	0
	DB	2
	DB	0
	DB	2
	DB	2
	DB	2
	DB	1
	DB	2
	DB	2
	DB	2
	DB	2
	DB	2
	DB	2
	DB	2
	DB	1
	DB	2
	DB	2
	DB	2
	DB	2
	DB	2
	DB	2
	DB	2
	DB	2
	DB	2
	DB	2
	DB	2
	DB	2
	DB	2
	DB	2
	DB	2
	DB	1
?CalcBoneAdj@CStudioBoneSetup@@QAEXQAMQBEE@Z ENDP	; CStudioBoneSetup::CalcBoneAdj
_TEXT	ENDS
; Function compile flags: /Odtp /ZI
; File d:\!diffusion 2020\source code 2022\client-server\game_shared\bone_setup.cpp
;	COMDAT ?CalcBoneAdj@CStudioBoneSetup@@QAEXQAVVector@@QAVVector4D@@QBEE@Z
_TEXT	SEGMENT
tv151 = -136						; size = 4
tv132 = -136						; size = 4
tv160 = -132						; size = 4
tv150 = -132						; size = 4
tv131 = -132						; size = 4
_q0$ = -64						; size = 16
_a0$ = -48						; size = 12
_p0$ = -36						; size = 12
_value$ = -24						; size = 4
_k$ = -20						; size = 4
_j$ = -16						; size = 4
_i$ = -12						; size = 4
_pbonecontroller$ = -8					; size = 4
_this$ = -4						; size = 4
_pos$ = 8						; size = 4
_q$ = 12						; size = 4
_controllers$ = 16					; size = 4
_mouthopen$ = 20					; size = 1
?CalcBoneAdj@CStudioBoneSetup@@QAEXQAVVector@@QAVVector4D@@QBEE@Z PROC ; CStudioBoneSetup::CalcBoneAdj, COMDAT
; _this$ = ecx

; 2243 : {

	push	ebp
	mov	ebp, esp
	sub	esp, 136				; 00000088H
	push	ebx
	push	esi
	push	edi
	mov	DWORD PTR _this$[ebp], ecx

; 2244 : 	mstudiobonecontroller_t	*pbonecontroller;
; 2245 : 	int			i, j, k;
; 2246 : 	float			value;
; 2247 : 	Vector			p0;

	lea	ecx, DWORD PTR _p0$[ebp]
	call	??0Vector@@QAE@XZ			; Vector::Vector

; 2248 : 	Radian			a0;

	lea	ecx, DWORD PTR _a0$[ebp]
	call	??0Radian@@QAE@XZ			; Radian::Radian

; 2249 : 	Vector4D			q0;

	lea	ecx, DWORD PTR _q0$[ebp]
	call	??0Vector4D@@QAE@XZ			; Vector4D::Vector4D

; 2250 : 	
; 2251 : 	for( j = 0; j < m_pStudioHeader->numbonecontrollers; j++ )

	mov	DWORD PTR _j$[ebp], 0
	jmp	SHORT $LN4@CalcBoneAd
$LN2@CalcBoneAd:
	mov	eax, DWORD PTR _j$[ebp]
	add	eax, 1
	mov	DWORD PTR _j$[ebp], eax
$LN4@CalcBoneAd:
	mov	eax, DWORD PTR _this$[ebp]
	mov	ecx, DWORD PTR [eax+18968]
	mov	edx, DWORD PTR _j$[ebp]
	cmp	edx, DWORD PTR [ecx+148]
	jge	$LN3@CalcBoneAd

; 2252 : 	{
; 2253 : 		pbonecontroller = (mstudiobonecontroller_t *)((byte *)m_pStudioHeader + m_pStudioHeader->bonecontrollerindex) + j;

	mov	eax, DWORD PTR _this$[ebp]
	mov	ecx, DWORD PTR [eax+18968]
	mov	edx, DWORD PTR _this$[ebp]
	mov	eax, DWORD PTR [edx+18968]
	add	eax, DWORD PTR [ecx+152]
	imul	ecx, DWORD PTR _j$[ebp], 24
	add	eax, ecx
	mov	DWORD PTR _pbonecontroller$[ebp], eax

; 2254 : 		k = pbonecontroller->bone;

	mov	eax, DWORD PTR _pbonecontroller$[ebp]
	mov	ecx, DWORD PTR [eax]
	mov	DWORD PTR _k$[ebp], ecx

; 2255 : 
; 2256 : 		if( IsBoneUsed( k ))

	mov	eax, DWORD PTR _k$[ebp]
	push	eax
	mov	ecx, DWORD PTR _this$[ebp]
	call	?IsBoneUsed@CStudioBoneSetup@@QAE_NH@Z	; CStudioBoneSetup::IsBoneUsed
	movzx	ecx, al
	test	ecx, ecx
	je	$LN5@CalcBoneAd

; 2257 : 		{
; 2258 : 			i = pbonecontroller->index;

	mov	eax, DWORD PTR _pbonecontroller$[ebp]
	mov	ecx, DWORD PTR [eax+20]
	mov	DWORD PTR _i$[ebp], ecx

; 2259 : 
; 2260 : 			if( i == STUDIO_MOUTH )

	cmp	DWORD PTR _i$[ebp], 4
	jne	$LN8@CalcBoneAd

; 2261 : 				value = bound( 0.0f, ( mouthopen / 64.0f ), 1.0f );				

	movzx	eax, BYTE PTR _mouthopen$[ebp]
	cvtsi2ss xmm0, eax
	divss	xmm0, DWORD PTR __real@42800000
	comiss	xmm0, DWORD PTR __real@00000000
	jb	SHORT $LN19@CalcBoneAd
	movzx	ecx, BYTE PTR _mouthopen$[ebp]
	cvtsi2ss xmm0, ecx
	divss	xmm0, DWORD PTR __real@42800000
	movss	xmm1, DWORD PTR __real@3f800000
	comiss	xmm1, xmm0
	jbe	SHORT $LN17@CalcBoneAd
	movzx	edx, BYTE PTR _mouthopen$[ebp]
	cvtsi2ss xmm0, edx
	divss	xmm0, DWORD PTR __real@42800000
	movss	DWORD PTR tv131[ebp], xmm0
	jmp	SHORT $LN18@CalcBoneAd
$LN17@CalcBoneAd:
	movss	xmm0, DWORD PTR __real@3f800000
	movss	DWORD PTR tv131[ebp], xmm0
$LN18@CalcBoneAd:
	movss	xmm0, DWORD PTR tv131[ebp]
	movss	DWORD PTR tv132[ebp], xmm0
	jmp	SHORT $LN20@CalcBoneAd
$LN19@CalcBoneAd:
	xorps	xmm0, xmm0
	movss	DWORD PTR tv132[ebp], xmm0
$LN20@CalcBoneAd:
	movss	xmm0, DWORD PTR tv132[ebp]
	movss	DWORD PTR _value$[ebp], xmm0
	jmp	$LN9@CalcBoneAd
$LN8@CalcBoneAd:

; 2262 : 			else value = bound( 0.0f, (float)controllers[i] / 255.0f, 1.0f );

	mov	eax, DWORD PTR _controllers$[ebp]
	add	eax, DWORD PTR _i$[ebp]
	movzx	ecx, BYTE PTR [eax]
	cvtsi2ss xmm0, ecx
	divss	xmm0, DWORD PTR __real@437f0000
	comiss	xmm0, DWORD PTR __real@00000000
	jb	SHORT $LN23@CalcBoneAd
	mov	edx, DWORD PTR _controllers$[ebp]
	add	edx, DWORD PTR _i$[ebp]
	movzx	eax, BYTE PTR [edx]
	cvtsi2ss xmm0, eax
	divss	xmm0, DWORD PTR __real@437f0000
	movss	xmm1, DWORD PTR __real@3f800000
	comiss	xmm1, xmm0
	jbe	SHORT $LN21@CalcBoneAd
	mov	ecx, DWORD PTR _controllers$[ebp]
	add	ecx, DWORD PTR _i$[ebp]
	movzx	edx, BYTE PTR [ecx]
	cvtsi2ss xmm0, edx
	divss	xmm0, DWORD PTR __real@437f0000
	movss	DWORD PTR tv150[ebp], xmm0
	jmp	SHORT $LN22@CalcBoneAd
$LN21@CalcBoneAd:
	movss	xmm0, DWORD PTR __real@3f800000
	movss	DWORD PTR tv150[ebp], xmm0
$LN22@CalcBoneAd:
	movss	xmm0, DWORD PTR tv150[ebp]
	movss	DWORD PTR tv151[ebp], xmm0
	jmp	SHORT $LN24@CalcBoneAd
$LN23@CalcBoneAd:
	xorps	xmm0, xmm0
	movss	DWORD PTR tv151[ebp], xmm0
$LN24@CalcBoneAd:
	movss	xmm0, DWORD PTR tv151[ebp]
	movss	DWORD PTR _value$[ebp], xmm0
$LN9@CalcBoneAd:

; 2263 : 			value = (1.0f - value) * pbonecontroller->start + value * pbonecontroller->end;

	movss	xmm0, DWORD PTR __real@3f800000
	subss	xmm0, DWORD PTR _value$[ebp]
	mov	eax, DWORD PTR _pbonecontroller$[ebp]
	mulss	xmm0, DWORD PTR [eax+8]
	mov	ecx, DWORD PTR _pbonecontroller$[ebp]
	movss	xmm1, DWORD PTR _value$[ebp]
	mulss	xmm1, DWORD PTR [ecx+12]
	addss	xmm0, xmm1
	movss	DWORD PTR _value$[ebp], xmm0

; 2264 : 
; 2265 : 			switch( pbonecontroller->type & STUDIO_TYPES )

	mov	eax, DWORD PTR _pbonecontroller$[ebp]
	mov	ecx, DWORD PTR [eax+4]
	and	ecx, 32767				; 00007fffH
	mov	DWORD PTR tv160[ebp], ecx
	mov	edx, DWORD PTR tv160[ebp]
	sub	edx, 1
	mov	DWORD PTR tv160[ebp], edx
	cmp	DWORD PTR tv160[ebp], 31		; 0000001fH
	ja	$LN5@CalcBoneAd
	mov	eax, DWORD PTR tv160[ebp]
	movzx	ecx, BYTE PTR $LN25@CalcBoneAd[eax]
	jmp	DWORD PTR $LN26@CalcBoneAd[ecx*4]
$LN10@CalcBoneAd:

; 2266 : 			{
; 2267 : 			case STUDIO_XR: 
; 2268 : 				a0.Init( DEG2RAD( value ), 0.0f, 0.0f ); 

	push	ecx
	xorps	xmm0, xmm0
	movss	DWORD PTR [esp], xmm0
	push	ecx
	xorps	xmm0, xmm0
	movss	DWORD PTR [esp], xmm0
	movss	xmm0, DWORD PTR _value$[ebp]
	mulss	xmm0, DWORD PTR __real@3c8efa35
	push	ecx
	movss	DWORD PTR [esp], xmm0
	lea	ecx, DWORD PTR _a0$[ebp]
	call	?Init@Radian@@QAEXMMM@Z			; Radian::Init

; 2269 : 				AngleQuaternion( a0, q0 );

	lea	eax, DWORD PTR _q0$[ebp]
	push	eax
	lea	ecx, DWORD PTR _a0$[ebp]
	push	ecx
	call	?AngleQuaternion@@YAXABVRadian@@AAVVector4D@@@Z ; AngleQuaternion
	add	esp, 8

; 2270 : 				QuaternionSM( 1.0f, q0, q[k], q[k] );

	mov	eax, DWORD PTR _k$[ebp]
	shl	eax, 4
	add	eax, DWORD PTR _q$[ebp]
	push	eax
	mov	ecx, DWORD PTR _k$[ebp]
	shl	ecx, 4
	add	ecx, DWORD PTR _q$[ebp]
	push	ecx
	lea	edx, DWORD PTR _q0$[ebp]
	push	edx
	push	ecx
	movss	xmm0, DWORD PTR __real@3f800000
	movss	DWORD PTR [esp], xmm0
	call	?QuaternionSM@@YAXMABVVector4D@@0AAV1@@Z ; QuaternionSM
	add	esp, 16					; 00000010H

; 2271 : 				break;

	jmp	$LN5@CalcBoneAd
$LN11@CalcBoneAd:

; 2272 : 			case STUDIO_YR: 
; 2273 : 				a0.Init( 0.0f, DEG2RAD( value ), 0.0f ); 

	push	ecx
	xorps	xmm0, xmm0
	movss	DWORD PTR [esp], xmm0
	movss	xmm0, DWORD PTR _value$[ebp]
	mulss	xmm0, DWORD PTR __real@3c8efa35
	push	ecx
	movss	DWORD PTR [esp], xmm0
	push	ecx
	xorps	xmm0, xmm0
	movss	DWORD PTR [esp], xmm0
	lea	ecx, DWORD PTR _a0$[ebp]
	call	?Init@Radian@@QAEXMMM@Z			; Radian::Init

; 2274 : 				AngleQuaternion( a0, q0 );

	lea	eax, DWORD PTR _q0$[ebp]
	push	eax
	lea	ecx, DWORD PTR _a0$[ebp]
	push	ecx
	call	?AngleQuaternion@@YAXABVRadian@@AAVVector4D@@@Z ; AngleQuaternion
	add	esp, 8

; 2275 : 				QuaternionSM( 1.0f, q0, q[k], q[k] );

	mov	eax, DWORD PTR _k$[ebp]
	shl	eax, 4
	add	eax, DWORD PTR _q$[ebp]
	push	eax
	mov	ecx, DWORD PTR _k$[ebp]
	shl	ecx, 4
	add	ecx, DWORD PTR _q$[ebp]
	push	ecx
	lea	edx, DWORD PTR _q0$[ebp]
	push	edx
	push	ecx
	movss	xmm0, DWORD PTR __real@3f800000
	movss	DWORD PTR [esp], xmm0
	call	?QuaternionSM@@YAXMABVVector4D@@0AAV1@@Z ; QuaternionSM
	add	esp, 16					; 00000010H

; 2276 : 				break;

	jmp	$LN5@CalcBoneAd
$LN12@CalcBoneAd:

; 2277 : 			case STUDIO_ZR: 
; 2278 : 				a0.Init( 0.0f, 0.0f, DEG2RAD( value )); 

	movss	xmm0, DWORD PTR _value$[ebp]
	mulss	xmm0, DWORD PTR __real@3c8efa35
	push	ecx
	movss	DWORD PTR [esp], xmm0
	push	ecx
	xorps	xmm0, xmm0
	movss	DWORD PTR [esp], xmm0
	push	ecx
	xorps	xmm0, xmm0
	movss	DWORD PTR [esp], xmm0
	lea	ecx, DWORD PTR _a0$[ebp]
	call	?Init@Radian@@QAEXMMM@Z			; Radian::Init

; 2279 : 				AngleQuaternion( a0, q0 );

	lea	eax, DWORD PTR _q0$[ebp]
	push	eax
	lea	ecx, DWORD PTR _a0$[ebp]
	push	ecx
	call	?AngleQuaternion@@YAXABVRadian@@AAVVector4D@@@Z ; AngleQuaternion
	add	esp, 8

; 2280 : 				QuaternionSM( 1.0f, q0, q[k], q[k] );

	mov	eax, DWORD PTR _k$[ebp]
	shl	eax, 4
	add	eax, DWORD PTR _q$[ebp]
	push	eax
	mov	ecx, DWORD PTR _k$[ebp]
	shl	ecx, 4
	add	ecx, DWORD PTR _q$[ebp]
	push	ecx
	lea	edx, DWORD PTR _q0$[ebp]
	push	edx
	push	ecx
	movss	xmm0, DWORD PTR __real@3f800000
	movss	DWORD PTR [esp], xmm0
	call	?QuaternionSM@@YAXMABVVector4D@@0AAV1@@Z ; QuaternionSM
	add	esp, 16					; 00000010H

; 2281 : 				break;

	jmp	SHORT $LN5@CalcBoneAd
$LN13@CalcBoneAd:

; 2282 : 			case STUDIO_X:	
; 2283 : 				pos[k].x += value;

	imul	eax, DWORD PTR _k$[ebp], 12
	mov	ecx, DWORD PTR _pos$[ebp]
	movss	xmm0, DWORD PTR [ecx+eax]
	addss	xmm0, DWORD PTR _value$[ebp]
	imul	edx, DWORD PTR _k$[ebp], 12
	mov	eax, DWORD PTR _pos$[ebp]
	movss	DWORD PTR [eax+edx], xmm0

; 2284 : 				break;

	jmp	SHORT $LN5@CalcBoneAd
$LN14@CalcBoneAd:

; 2285 : 			case STUDIO_Y:
; 2286 : 				pos[k].y += value;

	imul	eax, DWORD PTR _k$[ebp], 12
	mov	ecx, DWORD PTR _pos$[ebp]
	movss	xmm0, DWORD PTR [ecx+eax+4]
	addss	xmm0, DWORD PTR _value$[ebp]
	imul	edx, DWORD PTR _k$[ebp], 12
	mov	eax, DWORD PTR _pos$[ebp]
	movss	DWORD PTR [eax+edx+4], xmm0

; 2287 : 				break;

	jmp	SHORT $LN5@CalcBoneAd
$LN15@CalcBoneAd:

; 2288 : 			case STUDIO_Z:
; 2289 : 				pos[k].z += value;

	imul	eax, DWORD PTR _k$[ebp], 12
	mov	ecx, DWORD PTR _pos$[ebp]
	movss	xmm0, DWORD PTR [ecx+eax+8]
	addss	xmm0, DWORD PTR _value$[ebp]
	imul	edx, DWORD PTR _k$[ebp], 12
	mov	eax, DWORD PTR _pos$[ebp]
	movss	DWORD PTR [eax+edx+8], xmm0
$LN5@CalcBoneAd:

; 2290 : 				break;
; 2291 : 			}
; 2292 : 		}
; 2293 : 	}

	jmp	$LN2@CalcBoneAd
$LN3@CalcBoneAd:

; 2294 : }

	pop	edi
	pop	esi
	pop	ebx
	mov	esp, ebp
	pop	ebp
	ret	16					; 00000010H
	npad	1
$LN26@CalcBoneAd:
	DD	$LN13@CalcBoneAd
	DD	$LN14@CalcBoneAd
	DD	$LN15@CalcBoneAd
	DD	$LN10@CalcBoneAd
	DD	$LN11@CalcBoneAd
	DD	$LN12@CalcBoneAd
	DD	$LN5@CalcBoneAd
$LN25@CalcBoneAd:
	DB	0
	DB	1
	DB	6
	DB	2
	DB	6
	DB	6
	DB	6
	DB	3
	DB	6
	DB	6
	DB	6
	DB	6
	DB	6
	DB	6
	DB	6
	DB	4
	DB	6
	DB	6
	DB	6
	DB	6
	DB	6
	DB	6
	DB	6
	DB	6
	DB	6
	DB	6
	DB	6
	DB	6
	DB	6
	DB	6
	DB	6
	DB	5
?CalcBoneAdj@CStudioBoneSetup@@QAEXQAVVector@@QAVVector4D@@QBEE@Z ENDP ; CStudioBoneSetup::CalcBoneAdj
_TEXT	ENDS
; Function compile flags: /Odtp /ZI
; File d:\!diffusion 2020\source code 2022\client-server\game_shared\bone_setup.cpp
;	COMDAT ?AccumulatePose@CStudioBoneSetup@@QAEXPAVCIKContext@@QAVVector@@QAVVector4D@@HMM@Z
_TEXT	SEGMENT
tv75 = -8268						; size = 4
tv74 = -8264						; size = 4
_seq_ik$ = -7748					; size = 4140
_pseqdesc$ = -3608					; size = 4
_q2$ = -3604						; size = 2048
_pos2$ = -1556						; size = 1536
_this$ = -20						; size = 4
__$ArrayPad$ = -16					; size = 4
__$EHRec$ = -12						; size = 12
_pIKContext$ = 8					; size = 4
_pos$ = 12						; size = 4
_q$ = 16						; size = 4
_sequence$ = 20						; size = 4
_cycle$ = 24						; size = 4
_flWeight$ = 28						; size = 4
?AccumulatePose@CStudioBoneSetup@@QAEXPAVCIKContext@@QAVVector@@QAVVector4D@@HMM@Z PROC ; CStudioBoneSetup::AccumulatePose, COMDAT
; _this$ = ecx

; 2201 : {

	push	ebp
	mov	ebp, esp
	push	-1
	push	__ehhandler$?AccumulatePose@CStudioBoneSetup@@QAEXPAVCIKContext@@QAVVector@@QAVVector4D@@HMM@Z
	mov	eax, DWORD PTR fs:0
	push	eax
	mov	eax, 8256				; 00002040H
	call	__chkstk
	mov	eax, DWORD PTR ___security_cookie
	xor	eax, ebp
	mov	DWORD PTR __$ArrayPad$[ebp], eax
	push	ebx
	push	esi
	push	edi
	push	eax
	lea	eax, DWORD PTR __$EHRec$[ebp]
	mov	DWORD PTR fs:0, eax
	mov	DWORD PTR _this$[ebp], ecx

; 2202 : 	Vector	pos2[MAXSTUDIOBONES];

	push	OFFSET ??0Vector@@QAE@XZ		; Vector::Vector
	push	128					; 00000080H
	push	12					; 0000000cH
	lea	eax, DWORD PTR _pos2$[ebp]
	push	eax
	call	??_H@YGXPAXIIP6EPAX0@Z@Z

; 2203 : 	Vector4D	q2[MAXSTUDIOBONES];

	push	OFFSET ??0Vector4D@@QAE@XZ		; Vector4D::Vector4D
	push	128					; 00000080H
	push	16					; 00000010H
	lea	eax, DWORD PTR _q2$[ebp]
	push	eax
	call	??_H@YGXPAXIIP6EPAX0@Z@Z

; 2204 : 
; 2205 : 	flWeight = bound( 0.0f, flWeight, 1.0f );

	movss	xmm0, DWORD PTR _flWeight$[ebp]
	comiss	xmm0, DWORD PTR __real@00000000
	jb	SHORT $LN10@Accumulate
	movss	xmm0, DWORD PTR __real@3f800000
	comiss	xmm0, DWORD PTR _flWeight$[ebp]
	jbe	SHORT $LN8@Accumulate
	movss	xmm0, DWORD PTR _flWeight$[ebp]
	movss	DWORD PTR tv74[ebp], xmm0
	jmp	SHORT $LN9@Accumulate
$LN8@Accumulate:
	movss	xmm0, DWORD PTR __real@3f800000
	movss	DWORD PTR tv74[ebp], xmm0
$LN9@Accumulate:
	movss	xmm0, DWORD PTR tv74[ebp]
	movss	DWORD PTR tv75[ebp], xmm0
	jmp	SHORT $LN11@Accumulate
$LN10@Accumulate:
	xorps	xmm0, xmm0
	movss	DWORD PTR tv75[ebp], xmm0
$LN11@Accumulate:
	movss	xmm0, DWORD PTR tv75[ebp]
	movss	DWORD PTR _flWeight$[ebp], xmm0

; 2206 : 	if( sequence < 0 ) return;

	cmp	DWORD PTR _sequence$[ebp], 0
	jge	SHORT $LN2@Accumulate
	jmp	$LN1@Accumulate
$LN2@Accumulate:

; 2207 : 
; 2208 : 	mstudioseqdesc_t *pseqdesc = (mstudioseqdesc_t *)((byte *)m_pStudioHeader + m_pStudioHeader->seqindex) + sequence;

	mov	eax, DWORD PTR _this$[ebp]
	mov	ecx, DWORD PTR [eax+18968]
	mov	edx, DWORD PTR _this$[ebp]
	mov	eax, DWORD PTR [edx+18968]
	add	eax, DWORD PTR [ecx+168]
	imul	ecx, DWORD PTR _sequence$[ebp], 176
	add	eax, ecx
	mov	DWORD PTR _pseqdesc$[ebp], eax

; 2209 : 
; 2210 : 	// add any IK locks to prevent extremities from moving
; 2211 : 	CIKContext seq_ik;

	lea	ecx, DWORD PTR _seq_ik$[ebp]
	call	??0CIKContext@@QAE@XZ			; CIKContext::CIKContext
	mov	DWORD PTR __$EHRec$[ebp+8], 0

; 2212 : 
; 2213 : 	if( pseqdesc->numiklocks )

	mov	eax, DWORD PTR _pseqdesc$[ebp]
	movzx	ecx, BYTE PTR [eax+155]
	test	ecx, ecx
	je	SHORT $LN3@Accumulate

; 2214 : 	{
; 2215 : 		// local space relative so absolute position doesn't mater
; 2216 : 		seq_ik.Init( this, g_vecZero, g_vecZero, 0.0f, 0 );

	push	0
	push	ecx
	xorps	xmm0, xmm0
	movss	DWORD PTR [esp], xmm0
	push	OFFSET ?g_vecZero@@3VVector@@B		; g_vecZero
	push	OFFSET ?g_vecZero@@3VVector@@B		; g_vecZero
	mov	eax, DWORD PTR _this$[ebp]
	push	eax
	lea	ecx, DWORD PTR _seq_ik$[ebp]
	call	?Init@CIKContext@@QAEXPBVCStudioBoneSetup@@ABVVector@@1MH@Z ; CIKContext::Init

; 2217 : 		seq_ik.AddSequenceLocks( pseqdesc, pos, q );

	mov	eax, DWORD PTR _q$[ebp]
	push	eax
	mov	ecx, DWORD PTR _pos$[ebp]
	push	ecx
	mov	edx, DWORD PTR _pseqdesc$[ebp]
	push	edx
	lea	ecx, DWORD PTR _seq_ik$[ebp]
	call	?AddSequenceLocks@CIKContext@@QAEXPAUmstudioseqdesc_t@@QAVVector@@QAVVector4D@@@Z ; CIKContext::AddSequenceLocks
$LN3@Accumulate:

; 2218 : 	}
; 2219 : 
; 2220 : 	if( FBitSet( pseqdesc->flags, STUDIO_LOCAL ))

	mov	eax, DWORD PTR _pseqdesc$[ebp]
	mov	ecx, DWORD PTR [eax+36]
	and	ecx, 512				; 00000200H
	je	SHORT $LN4@Accumulate

; 2221 : 		InitPose( pos2, q2 );

	lea	eax, DWORD PTR _q2$[ebp]
	push	eax
	lea	ecx, DWORD PTR _pos2$[ebp]
	push	ecx
	mov	ecx, DWORD PTR _this$[ebp]
	call	?InitPose@CStudioBoneSetup@@QAEXQAVVector@@QAVVector4D@@@Z ; CStudioBoneSetup::InitPose
$LN4@Accumulate:

; 2222 : 
; 2223 : 	CalcPoseSingle( pos2, q2, sequence, cycle );

	push	ecx
	movss	xmm0, DWORD PTR _cycle$[ebp]
	movss	DWORD PTR [esp], xmm0
	mov	eax, DWORD PTR _sequence$[ebp]
	push	eax
	lea	ecx, DWORD PTR _q2$[ebp]
	push	ecx
	lea	edx, DWORD PTR _pos2$[ebp]
	push	edx
	mov	ecx, DWORD PTR _this$[ebp]
	call	?CalcPoseSingle@CStudioBoneSetup@@AAEXQAVVector@@QAVVector4D@@HM@Z ; CStudioBoneSetup::CalcPoseSingle

; 2224 : 
; 2225 : 	// this weight is wrong, the IK rules won't composite at the correct intensity
; 2226 : 	AddLocalLayers( pIKContext, pos2, q2, sequence, cycle, 1.0 );

	push	ecx
	movss	xmm0, DWORD PTR __real@3f800000
	movss	DWORD PTR [esp], xmm0
	push	ecx
	movss	xmm0, DWORD PTR _cycle$[ebp]
	movss	DWORD PTR [esp], xmm0
	mov	eax, DWORD PTR _sequence$[ebp]
	push	eax
	lea	ecx, DWORD PTR _q2$[ebp]
	push	ecx
	lea	edx, DWORD PTR _pos2$[ebp]
	push	edx
	mov	eax, DWORD PTR _pIKContext$[ebp]
	push	eax
	mov	ecx, DWORD PTR _this$[ebp]
	call	?AddLocalLayers@CStudioBoneSetup@@AAEXPAVCIKContext@@QAVVector@@QAVVector4D@@HMM@Z ; CStudioBoneSetup::AddLocalLayers

; 2227 : 	SlerpBones( q, pos, pseqdesc, q2, pos2, flWeight );

	push	ecx
	movss	xmm0, DWORD PTR _flWeight$[ebp]
	movss	DWORD PTR [esp], xmm0
	lea	eax, DWORD PTR _pos2$[ebp]
	push	eax
	lea	ecx, DWORD PTR _q2$[ebp]
	push	ecx
	mov	edx, DWORD PTR _pseqdesc$[ebp]
	push	edx
	mov	eax, DWORD PTR _pos$[ebp]
	push	eax
	mov	ecx, DWORD PTR _q$[ebp]
	push	ecx
	mov	ecx, DWORD PTR _this$[ebp]
	call	?SlerpBones@CStudioBoneSetup@@AAEXQAVVector4D@@QAVVector@@PAUmstudioseqdesc_t@@QBV2@QBV3@M@Z ; CStudioBoneSetup::SlerpBones

; 2228 : 
; 2229 : 	if( pIKContext )

	cmp	DWORD PTR _pIKContext$[ebp], 0
	je	SHORT $LN5@Accumulate

; 2230 : 		pIKContext->AddDependencies( pseqdesc, sequence, cycle, flWeight );

	push	ecx
	movss	xmm0, DWORD PTR _flWeight$[ebp]
	movss	DWORD PTR [esp], xmm0
	push	ecx
	movss	xmm0, DWORD PTR _cycle$[ebp]
	movss	DWORD PTR [esp], xmm0
	mov	eax, DWORD PTR _sequence$[ebp]
	push	eax
	mov	ecx, DWORD PTR _pseqdesc$[ebp]
	push	ecx
	mov	ecx, DWORD PTR _pIKContext$[ebp]
	call	?AddDependencies@CIKContext@@QAEXPAUmstudioseqdesc_t@@HMM@Z ; CIKContext::AddDependencies
$LN5@Accumulate:

; 2231 : 
; 2232 : 	AddSequenceLayers( pIKContext, pos, q, sequence, cycle, flWeight );

	push	ecx
	movss	xmm0, DWORD PTR _flWeight$[ebp]
	movss	DWORD PTR [esp], xmm0
	push	ecx
	movss	xmm0, DWORD PTR _cycle$[ebp]
	movss	DWORD PTR [esp], xmm0
	mov	eax, DWORD PTR _sequence$[ebp]
	push	eax
	mov	ecx, DWORD PTR _q$[ebp]
	push	ecx
	mov	edx, DWORD PTR _pos$[ebp]
	push	edx
	mov	eax, DWORD PTR _pIKContext$[ebp]
	push	eax
	mov	ecx, DWORD PTR _this$[ebp]
	call	?AddSequenceLayers@CStudioBoneSetup@@AAEXPAVCIKContext@@QAVVector@@QAVVector4D@@HMM@Z ; CStudioBoneSetup::AddSequenceLayers

; 2233 : 
; 2234 : 	if( pseqdesc->numiklocks )

	mov	eax, DWORD PTR _pseqdesc$[ebp]
	movzx	ecx, BYTE PTR [eax+155]
	test	ecx, ecx
	je	SHORT $LN6@Accumulate

; 2235 : 		seq_ik.SolveSequenceLocks( pseqdesc, pos, q );

	mov	eax, DWORD PTR _q$[ebp]
	push	eax
	mov	ecx, DWORD PTR _pos$[ebp]
	push	ecx
	mov	edx, DWORD PTR _pseqdesc$[ebp]
	push	edx
	lea	ecx, DWORD PTR _seq_ik$[ebp]
	call	?SolveSequenceLocks@CIKContext@@QAEXPAUmstudioseqdesc_t@@QAVVector@@QAVVector4D@@@Z ; CIKContext::SolveSequenceLocks
$LN6@Accumulate:

; 2236 : }

	mov	DWORD PTR __$EHRec$[ebp+8], -1
	lea	ecx, DWORD PTR _seq_ik$[ebp]
	call	??1CIKContext@@QAE@XZ
$LN1@Accumulate:
	mov	ecx, DWORD PTR __$EHRec$[ebp]
	mov	DWORD PTR fs:0, ecx
	pop	ecx
	pop	edi
	pop	esi
	pop	ebx
	mov	ecx, DWORD PTR __$ArrayPad$[ebp]
	xor	ecx, ebp
	call	@__security_check_cookie@4
	mov	esp, ebp
	pop	ebp
	ret	24					; 00000018H
_TEXT	ENDS
;	COMDAT text$x
text$x	SEGMENT
__unwindfunclet$?AccumulatePose@CStudioBoneSetup@@QAEXPAVCIKContext@@QAVVector@@QAVVector4D@@HMM@Z$0:
	lea	ecx, DWORD PTR _seq_ik$[ebp]
	jmp	??1CIKContext@@QAE@XZ
__ehhandler$?AccumulatePose@CStudioBoneSetup@@QAEXPAVCIKContext@@QAVVector@@QAVVector4D@@HMM@Z:
	mov	edx, DWORD PTR [esp+8]
	lea	eax, DWORD PTR [edx+12]
	mov	ecx, DWORD PTR [edx-8272]
	xor	ecx, eax
	call	@__security_check_cookie@4
	mov	ecx, DWORD PTR [edx-4]
	xor	ecx, eax
	call	@__security_check_cookie@4
	mov	eax, OFFSET __ehfuncinfo$?AccumulatePose@CStudioBoneSetup@@QAEXPAVCIKContext@@QAVVector@@QAVVector4D@@HMM@Z
	jmp	___CxxFrameHandler3
text$x	ENDS
?AccumulatePose@CStudioBoneSetup@@QAEXPAVCIKContext@@QAVVector@@QAVVector4D@@HMM@Z ENDP ; CStudioBoneSetup::AccumulatePose
; Function compile flags: /Odtp /ZI
; File d:\!diffusion 2020\source code 2022\client-server\game_shared\bone_setup.cpp
;	COMDAT ?InitPose@CStudioBoneSetup@@QAEXQAVVector@@QAVVector4D@@@Z
_TEXT	SEGMENT
$T1 = -104						; size = 12
$T2 = -92						; size = 12
_i$3 = -16						; size = 4
_pboneinfo$ = -12					; size = 4
_pbone$ = -8						; size = 4
_this$ = -4						; size = 4
_pos$ = 8						; size = 4
_q$ = 12						; size = 4
?InitPose@CStudioBoneSetup@@QAEXQAVVector@@QAVVector4D@@@Z PROC ; CStudioBoneSetup::InitPose, COMDAT
; _this$ = ecx

; 794  : {

	push	ebp
	mov	ebp, esp
	sub	esp, 104				; 00000068H
	push	ebx
	push	esi
	push	edi
	mov	DWORD PTR _this$[ebp], ecx

; 795  : 	mstudiobone_t	*pbone = (mstudiobone_t *)((byte *)m_pStudioHeader + m_pStudioHeader->boneindex);

	mov	eax, DWORD PTR _this$[ebp]
	mov	ecx, DWORD PTR [eax+18968]
	mov	edx, DWORD PTR _this$[ebp]
	mov	eax, DWORD PTR [edx+18968]
	add	eax, DWORD PTR [ecx+144]
	mov	DWORD PTR _pbone$[ebp], eax

; 796  : 	mstudioboneinfo_t	*pboneinfo = (mstudioboneinfo_t *)((byte *)pbone + m_pStudioHeader->numbones * sizeof( mstudiobone_t ));

	mov	eax, DWORD PTR _this$[ebp]
	mov	ecx, DWORD PTR [eax+18968]
	imul	edx, DWORD PTR [ecx+140], 112
	add	edx, DWORD PTR _pbone$[ebp]
	mov	DWORD PTR _pboneinfo$[ebp], edx

; 797  : 
; 798  : 	for( int i = 0; i < m_pStudioHeader->numbones; i++, pbone++ )

	mov	DWORD PTR _i$3[ebp], 0
	jmp	SHORT $LN4@InitPose
$LN2@InitPose:
	mov	eax, DWORD PTR _i$3[ebp]
	add	eax, 1
	mov	DWORD PTR _i$3[ebp], eax
	mov	ecx, DWORD PTR _pbone$[ebp]
	add	ecx, 112				; 00000070H
	mov	DWORD PTR _pbone$[ebp], ecx
$LN4@InitPose:
	mov	eax, DWORD PTR _this$[ebp]
	mov	ecx, DWORD PTR [eax+18968]
	mov	edx, DWORD PTR _i$3[ebp]
	cmp	edx, DWORD PTR [ecx+140]
	jge	$LN3@InitPose

; 799  : 	{
; 800  : 		// skip unused bones
; 801  : 		if( !IsBoneUsed( pbone + i ))

	imul	eax, DWORD PTR _i$3[ebp], 112
	add	eax, DWORD PTR _pbone$[ebp]
	push	eax
	mov	ecx, DWORD PTR _this$[ebp]
	call	?IsBoneUsed@CStudioBoneSetup@@QAE_NPAUmstudiobone_t@@@Z ; CStudioBoneSetup::IsBoneUsed
	movzx	ecx, al
	test	ecx, ecx
	jne	SHORT $LN5@InitPose

; 802  : 			continue;

	jmp	SHORT $LN2@InitPose
$LN5@InitPose:

; 803  : 
; 804  : 		// check if we can use aligned quaternion instead of euler angles
; 805  : 		if( FBitSet( m_pStudioHeader->flags, STUDIO_HAS_BONEINFO )) q[i] = pboneinfo[i].quat;

	mov	eax, DWORD PTR _this$[ebp]
	mov	ecx, DWORD PTR [eax+18968]
	mov	edx, DWORD PTR [ecx+136]
	and	edx, 1073741824				; 40000000H
	je	SHORT $LN6@InitPose
	mov	eax, DWORD PTR _i$3[ebp]
	shl	eax, 7
	mov	ecx, DWORD PTR _pboneinfo$[ebp]
	lea	edx, DWORD PTR [ecx+eax+72]
	mov	eax, DWORD PTR _i$3[ebp]
	shl	eax, 4
	add	eax, DWORD PTR _q$[ebp]
	mov	ecx, DWORD PTR [edx]
	mov	DWORD PTR [eax], ecx
	mov	ecx, DWORD PTR [edx+4]
	mov	DWORD PTR [eax+4], ecx
	mov	ecx, DWORD PTR [edx+8]
	mov	DWORD PTR [eax+8], ecx
	mov	edx, DWORD PTR [edx+12]
	mov	DWORD PTR [eax+12], edx
	jmp	SHORT $LN7@InitPose
$LN6@InitPose:

; 806  : 		else AngleQuaternion( Radian( pbone->value[3], pbone->value[4], pbone->value[5] ), q[i] );

	mov	eax, DWORD PTR _i$3[ebp]
	shl	eax, 4
	add	eax, DWORD PTR _q$[ebp]
	push	eax
	mov	ecx, 4
	imul	edx, ecx, 5
	mov	eax, DWORD PTR _pbone$[ebp]
	push	ecx
	movss	xmm0, DWORD PTR [eax+edx+64]
	movss	DWORD PTR [esp], xmm0
	mov	ecx, 4
	shl	ecx, 2
	mov	edx, DWORD PTR _pbone$[ebp]
	push	ecx
	movss	xmm0, DWORD PTR [edx+ecx+64]
	movss	DWORD PTR [esp], xmm0
	mov	eax, 4
	imul	ecx, eax, 3
	mov	edx, DWORD PTR _pbone$[ebp]
	push	ecx
	movss	xmm0, DWORD PTR [edx+ecx+64]
	movss	DWORD PTR [esp], xmm0
	lea	ecx, DWORD PTR $T2[ebp]
	call	??0Radian@@QAE@MMM@Z			; Radian::Radian
	push	eax
	call	?AngleQuaternion@@YAXABVRadian@@AAVVector4D@@@Z ; AngleQuaternion
	add	esp, 8
$LN7@InitPose:

; 807  : 		pos[i] = Vector( pbone->value ); // grab three first values

	mov	eax, DWORD PTR _pbone$[ebp]
	add	eax, 64					; 00000040H
	push	eax
	lea	ecx, DWORD PTR $T1[ebp]
	call	??0Vector@@QAE@QAM@Z			; Vector::Vector
	imul	ecx, DWORD PTR _i$3[ebp], 12
	add	ecx, DWORD PTR _pos$[ebp]
	mov	edx, DWORD PTR [eax]
	mov	DWORD PTR [ecx], edx
	mov	edx, DWORD PTR [eax+4]
	mov	DWORD PTR [ecx+4], edx
	mov	eax, DWORD PTR [eax+8]
	mov	DWORD PTR [ecx+8], eax

; 808  : 	}

	jmp	$LN2@InitPose
$LN3@InitPose:

; 809  : }

	pop	edi
	pop	esi
	pop	ebx
	mov	esp, ebp
	pop	ebp
	ret	8
?InitPose@CStudioBoneSetup@@QAEXQAVVector@@QAVVector4D@@@Z ENDP ; CStudioBoneSetup::InitPose
_TEXT	ENDS
; Function compile flags: /Odtp /ZI
; File d:\!diffusion 2020\source code 2022\client-server\game_shared\bone_setup.cpp
;	COMDAT ?GetAnimSourceData@CStudioBoneSetup@@UAEPAUmstudioanim_t@@PAUmstudioseqdesc_t@@@Z
_TEXT	SEGMENT
_pseqgroup$ = -8					; size = 4
_this$ = -4						; size = 4
_pseqdesc$ = 8						; size = 4
?GetAnimSourceData@CStudioBoneSetup@@UAEPAUmstudioanim_t@@PAUmstudioseqdesc_t@@@Z PROC ; CStudioBoneSetup::GetAnimSourceData, COMDAT
; _this$ = ecx

; 311  : {

	push	ebp
	mov	ebp, esp
	sub	esp, 72					; 00000048H
	push	ebx
	push	esi
	push	edi
	mov	DWORD PTR _this$[ebp], ecx

; 312  : 	mstudioseqgroup_t *pseqgroup = (mstudioseqgroup_t *)((byte *)m_pStudioHeader + m_pStudioHeader->seqgroupindex) + pseqdesc->seqgroup;

	mov	eax, DWORD PTR _this$[ebp]
	mov	ecx, DWORD PTR [eax+18968]
	mov	edx, DWORD PTR _this$[ebp]
	mov	eax, DWORD PTR [edx+18968]
	add	eax, DWORD PTR [ecx+176]
	mov	ecx, DWORD PTR _pseqdesc$[ebp]
	imul	edx, DWORD PTR [ecx+156], 104
	add	eax, edx
	mov	DWORD PTR _pseqgroup$[ebp], eax

; 313  : 
; 314  : 	if( pseqdesc->seqgroup == 0 )

	mov	eax, DWORD PTR _pseqdesc$[ebp]
	cmp	DWORD PTR [eax+156], 0
	jne	SHORT $LN2@GetAnimSou

; 315  : 		return (mstudioanim_t *)((byte *)m_pStudioHeader + pseqgroup->data + pseqdesc->animindex);

	mov	eax, DWORD PTR _this$[ebp]
	mov	eax, DWORD PTR [eax+18968]
	mov	ecx, DWORD PTR _pseqgroup$[ebp]
	add	eax, DWORD PTR [ecx+100]
	mov	edx, DWORD PTR _pseqdesc$[ebp]
	add	eax, DWORD PTR [edx+124]
	jmp	SHORT $LN1@GetAnimSou
$LN2@GetAnimSou:

; 316  : 
; 317  : 	return NULL; // base implementation can't lookup for sequence groups

	xor	eax, eax
$LN1@GetAnimSou:

; 318  : }

	pop	edi
	pop	esi
	pop	ebx
	mov	esp, ebp
	pop	ebp
	ret	4
?GetAnimSourceData@CStudioBoneSetup@@UAEPAUmstudioanim_t@@PAUmstudioseqdesc_t@@@Z ENDP ; CStudioBoneSetup::GetAnimSourceData
_TEXT	ENDS
; Function compile flags: /Odtp /ZI
; File d:\!diffusion 2020\source code 2022\client-server\game_shared\bone_setup.cpp
;	COMDAT ?IKShouldLatch@CStudioBoneSetup@@AAE_NPAUikcontextikrule_t@@M@Z
_TEXT	SEGMENT
_this$ = -4						; size = 4
_ikRule$ = 8						; size = 4
_flCycle$ = 12						; size = 4
?IKShouldLatch@CStudioBoneSetup@@AAE_NPAUikcontextikrule_t@@M@Z PROC ; CStudioBoneSetup::IKShouldLatch, COMDAT
; _this$ = ecx

; 1590 : {

	push	ebp
	mov	ebp, esp
	sub	esp, 68					; 00000044H
	push	ebx
	push	esi
	push	edi
	mov	DWORD PTR _this$[ebp], ecx

; 1591 : 	if( ikRule->end > 1.0f && flCycle < ikRule->start )

	mov	eax, DWORD PTR _ikRule$[ebp]
	movss	xmm0, DWORD PTR [eax+72]
	comiss	xmm0, DWORD PTR __real@3f800000
	jbe	SHORT $LN2@IKShouldLa
	mov	eax, DWORD PTR _ikRule$[ebp]
	movss	xmm0, DWORD PTR [eax+60]
	comiss	xmm0, DWORD PTR _flCycle$[ebp]
	jbe	SHORT $LN2@IKShouldLa

; 1592 : 	{
; 1593 : 		flCycle = flCycle + 1.0f;

	movss	xmm0, DWORD PTR _flCycle$[ebp]
	addss	xmm0, DWORD PTR __real@3f800000
	movss	DWORD PTR _flCycle$[ebp], xmm0
$LN2@IKShouldLa:

; 1594 : 	}
; 1595 : 
; 1596 : 	if( flCycle < ikRule->peak )

	mov	eax, DWORD PTR _ikRule$[ebp]
	movss	xmm0, DWORD PTR [eax+64]
	comiss	xmm0, DWORD PTR _flCycle$[ebp]
	jbe	SHORT $LN3@IKShouldLa

; 1597 : 	{
; 1598 : 		return false;

	xor	al, al
	jmp	SHORT $LN1@IKShouldLa
	jmp	SHORT $LN5@IKShouldLa
$LN3@IKShouldLa:

; 1599 : 	}
; 1600 : 	else if( flCycle < ikRule->end )

	mov	eax, DWORD PTR _ikRule$[ebp]
	movss	xmm0, DWORD PTR [eax+72]
	comiss	xmm0, DWORD PTR _flCycle$[ebp]
	jbe	SHORT $LN5@IKShouldLa

; 1601 : 	{
; 1602 : 		return true;

	mov	al, 1
	jmp	SHORT $LN1@IKShouldLa
$LN5@IKShouldLa:

; 1603 : 	}
; 1604 : 
; 1605 : 	return false;

	xor	al, al
$LN1@IKShouldLa:

; 1606 : }

	pop	edi
	pop	esi
	pop	ebx
	mov	esp, ebp
	pop	ebp
	ret	8
?IKShouldLatch@CStudioBoneSetup@@AAE_NPAUikcontextikrule_t@@M@Z ENDP ; CStudioBoneSetup::IKShouldLatch
_TEXT	ENDS
; Function compile flags: /Odtp /ZI
; File d:\!diffusion 2020\source code 2022\client-server\game_shared\bone_setup.cpp
;	COMDAT ?IKRuleWeight@CStudioBoneSetup@@AAEMPAUikcontextikrule_t@@M@Z
_TEXT	SEGMENT
_value$ = -8						; size = 4
_this$ = -4						; size = 4
_ikRule$ = 8						; size = 4
_flCycle$ = 12						; size = 4
?IKRuleWeight@CStudioBoneSetup@@AAEMPAUikcontextikrule_t@@M@Z PROC ; CStudioBoneSetup::IKRuleWeight, COMDAT
; _this$ = ecx

; 1558 : {

	push	ebp
	mov	ebp, esp
	sub	esp, 72					; 00000048H
	push	ebx
	push	esi
	push	edi
	mov	DWORD PTR _this$[ebp], ecx

; 1559 : 	if( ikRule->end > 1.0f && flCycle < ikRule->start )

	mov	eax, DWORD PTR _ikRule$[ebp]
	movss	xmm0, DWORD PTR [eax+72]
	comiss	xmm0, DWORD PTR __real@3f800000
	jbe	SHORT $LN2@IKRuleWeig
	mov	eax, DWORD PTR _ikRule$[ebp]
	movss	xmm0, DWORD PTR [eax+60]
	comiss	xmm0, DWORD PTR _flCycle$[ebp]
	jbe	SHORT $LN2@IKRuleWeig

; 1560 : 	{
; 1561 : 		flCycle = flCycle + 1.0f;

	movss	xmm0, DWORD PTR _flCycle$[ebp]
	addss	xmm0, DWORD PTR __real@3f800000
	movss	DWORD PTR _flCycle$[ebp], xmm0
$LN2@IKRuleWeig:

; 1562 : 	}
; 1563 : 
; 1564 : 	float value = 0.0f;

	xorps	xmm0, xmm0
	movss	DWORD PTR _value$[ebp], xmm0

; 1565 : 
; 1566 : 	if( flCycle < ikRule->start )

	mov	eax, DWORD PTR _ikRule$[ebp]
	movss	xmm0, DWORD PTR [eax+60]
	comiss	xmm0, DWORD PTR _flCycle$[ebp]
	jbe	SHORT $LN3@IKRuleWeig

; 1567 : 	{
; 1568 : 		return 0.0f;

	fldz
	jmp	$LN1@IKRuleWeig
	jmp	$LN9@IKRuleWeig
$LN3@IKRuleWeig:

; 1569 : 	}
; 1570 : 	else if( flCycle < ikRule->peak )

	mov	eax, DWORD PTR _ikRule$[ebp]
	movss	xmm0, DWORD PTR [eax+64]
	comiss	xmm0, DWORD PTR _flCycle$[ebp]
	jbe	SHORT $LN5@IKRuleWeig

; 1571 : 	{
; 1572 : 		value = ( flCycle - ikRule->start ) / ( ikRule->peak - ikRule->start );

	mov	eax, DWORD PTR _ikRule$[ebp]
	movss	xmm0, DWORD PTR _flCycle$[ebp]
	subss	xmm0, DWORD PTR [eax+60]
	mov	ecx, DWORD PTR _ikRule$[ebp]
	mov	edx, DWORD PTR _ikRule$[ebp]
	movss	xmm1, DWORD PTR [ecx+64]
	subss	xmm1, DWORD PTR [edx+60]
	divss	xmm0, xmm1
	movss	DWORD PTR _value$[ebp], xmm0
	jmp	SHORT $LN9@IKRuleWeig
$LN5@IKRuleWeig:

; 1573 : 	}
; 1574 : 	else if( flCycle < ikRule->tail )

	mov	eax, DWORD PTR _ikRule$[ebp]
	movss	xmm0, DWORD PTR [eax+68]
	comiss	xmm0, DWORD PTR _flCycle$[ebp]
	jbe	SHORT $LN7@IKRuleWeig

; 1575 : 	{
; 1576 : 		return 1.0f;

	fld1
	jmp	SHORT $LN1@IKRuleWeig
	jmp	SHORT $LN9@IKRuleWeig
$LN7@IKRuleWeig:

; 1577 : 	}
; 1578 : 	else if( flCycle < ikRule->end )

	mov	eax, DWORD PTR _ikRule$[ebp]
	movss	xmm0, DWORD PTR [eax+72]
	comiss	xmm0, DWORD PTR _flCycle$[ebp]
	jbe	SHORT $LN9@IKRuleWeig

; 1579 : 	{
; 1580 : 		value = 1.0f - ((flCycle - ikRule->tail) / (ikRule->end - ikRule->tail));

	mov	eax, DWORD PTR _ikRule$[ebp]
	movss	xmm0, DWORD PTR _flCycle$[ebp]
	subss	xmm0, DWORD PTR [eax+68]
	mov	ecx, DWORD PTR _ikRule$[ebp]
	mov	edx, DWORD PTR _ikRule$[ebp]
	movss	xmm1, DWORD PTR [ecx+72]
	subss	xmm1, DWORD PTR [edx+68]
	divss	xmm0, xmm1
	movss	xmm1, DWORD PTR __real@3f800000
	subss	xmm1, xmm0
	movss	DWORD PTR _value$[ebp], xmm1
$LN9@IKRuleWeig:

; 1581 : 	}
; 1582 : 
; 1583 : 	return SimpleSpline( value );

	push	ecx
	movss	xmm0, DWORD PTR _value$[ebp]
	movss	DWORD PTR [esp], xmm0
	call	?SimpleSpline@@YAMM@Z			; SimpleSpline
	add	esp, 4
$LN1@IKRuleWeig:

; 1584 : }

	pop	edi
	pop	esi
	pop	ebx
	mov	esp, ebp
	pop	ebp
	ret	8
?IKRuleWeight@CStudioBoneSetup@@AAEMPAUikcontextikrule_t@@M@Z ENDP ; CStudioBoneSetup::IKRuleWeight
_TEXT	ENDS
; Function compile flags: /Odtp /ZI
; File d:\!diffusion 2020\source code 2022\client-server\game_shared\bone_setup.cpp
;	COMDAT ?IKRuleWeight@CStudioBoneSetup@@AAEMPBUmstudioikrule_t@@PBUmstudioanimdesc_t@@MAAHAAM@Z
_TEXT	SEGMENT
_value$ = -8						; size = 4
_this$ = -4						; size = 4
_ikRule$ = 8						; size = 4
_panim$ = 12						; size = 4
_flCycle$ = 16						; size = 4
_iFrame$ = 20						; size = 4
_fraq$ = 24						; size = 4
?IKRuleWeight@CStudioBoneSetup@@AAEMPBUmstudioikrule_t@@PBUmstudioanimdesc_t@@MAAHAAM@Z PROC ; CStudioBoneSetup::IKRuleWeight, COMDAT
; _this$ = ecx

; 1515 : {

	push	ebp
	mov	ebp, esp
	sub	esp, 72					; 00000048H
	push	ebx
	push	esi
	push	edi
	mov	DWORD PTR _this$[ebp], ecx

; 1516 : 	if( ikRule->end > 1.0f && flCycle < ikRule->start )

	mov	eax, DWORD PTR _ikRule$[ebp]
	movss	xmm0, DWORD PTR [eax+84]
	comiss	xmm0, DWORD PTR __real@3f800000
	jbe	SHORT $LN2@IKRuleWeig
	mov	eax, DWORD PTR _ikRule$[ebp]
	movss	xmm0, DWORD PTR [eax+72]
	comiss	xmm0, DWORD PTR _flCycle$[ebp]
	jbe	SHORT $LN2@IKRuleWeig

; 1517 : 	{
; 1518 : 		flCycle = flCycle + 1.0f;

	movss	xmm0, DWORD PTR _flCycle$[ebp]
	addss	xmm0, DWORD PTR __real@3f800000
	movss	DWORD PTR _flCycle$[ebp], xmm0
$LN2@IKRuleWeig:

; 1519 : 	}
; 1520 : 
; 1521 : 	float value = 0.0f;

	xorps	xmm0, xmm0
	movss	DWORD PTR _value$[ebp], xmm0

; 1522 : 	fraq = (panim->numframes - 1) * (flCycle - ikRule->start) + ikRule->iStart;

	mov	eax, DWORD PTR _panim$[ebp]
	mov	ecx, DWORD PTR [eax+40]
	sub	ecx, 1
	cvtsi2ss xmm0, ecx
	mov	edx, DWORD PTR _ikRule$[ebp]
	movss	xmm1, DWORD PTR _flCycle$[ebp]
	subss	xmm1, DWORD PTR [edx+72]
	mulss	xmm0, xmm1
	mov	eax, DWORD PTR _ikRule$[ebp]
	cvtsi2ss xmm1, DWORD PTR [eax+68]
	addss	xmm0, xmm1
	mov	ecx, DWORD PTR _fraq$[ebp]
	movss	DWORD PTR [ecx], xmm0

; 1523 : 	iFrame = (int)fraq;

	mov	eax, DWORD PTR _fraq$[ebp]
	cvttss2si ecx, DWORD PTR [eax]
	mov	edx, DWORD PTR _iFrame$[ebp]
	mov	DWORD PTR [edx], ecx

; 1524 : 	fraq = fraq - iFrame;

	mov	eax, DWORD PTR _iFrame$[ebp]
	cvtsi2ss xmm0, DWORD PTR [eax]
	mov	ecx, DWORD PTR _fraq$[ebp]
	movss	xmm1, DWORD PTR [ecx]
	subss	xmm1, xmm0
	mov	edx, DWORD PTR _fraq$[ebp]
	movss	DWORD PTR [edx], xmm1

; 1525 : 
; 1526 : 	if( flCycle < ikRule->start )

	mov	eax, DWORD PTR _ikRule$[ebp]
	movss	xmm0, DWORD PTR [eax+72]
	comiss	xmm0, DWORD PTR _flCycle$[ebp]
	jbe	SHORT $LN3@IKRuleWeig

; 1527 : 	{
; 1528 : 		iFrame = ikRule->iStart;

	mov	eax, DWORD PTR _iFrame$[ebp]
	mov	ecx, DWORD PTR _ikRule$[ebp]
	mov	edx, DWORD PTR [ecx+68]
	mov	DWORD PTR [eax], edx

; 1529 : 		fraq = 0.0f;

	mov	eax, DWORD PTR _fraq$[ebp]
	xorps	xmm0, xmm0
	movss	DWORD PTR [eax], xmm0

; 1530 : 		return 0.0f;

	fldz
	jmp	$LN1@IKRuleWeig
	jmp	$LN10@IKRuleWeig
$LN3@IKRuleWeig:

; 1531 : 	}
; 1532 : 	else if( flCycle < ikRule->peak )

	mov	eax, DWORD PTR _ikRule$[ebp]
	movss	xmm0, DWORD PTR [eax+76]
	comiss	xmm0, DWORD PTR _flCycle$[ebp]
	jbe	SHORT $LN5@IKRuleWeig

; 1533 : 	{
; 1534 : 		value = ( flCycle - ikRule->start ) / ( ikRule->peak - ikRule->start );

	mov	eax, DWORD PTR _ikRule$[ebp]
	movss	xmm0, DWORD PTR _flCycle$[ebp]
	subss	xmm0, DWORD PTR [eax+72]
	mov	ecx, DWORD PTR _ikRule$[ebp]
	mov	edx, DWORD PTR _ikRule$[ebp]
	movss	xmm1, DWORD PTR [ecx+76]
	subss	xmm1, DWORD PTR [edx+72]
	divss	xmm0, xmm1
	movss	DWORD PTR _value$[ebp], xmm0
	jmp	$LN10@IKRuleWeig
$LN5@IKRuleWeig:

; 1535 : 	}
; 1536 : 	else if( flCycle < ikRule->tail )

	mov	eax, DWORD PTR _ikRule$[ebp]
	movss	xmm0, DWORD PTR [eax+80]
	comiss	xmm0, DWORD PTR _flCycle$[ebp]
	jbe	SHORT $LN7@IKRuleWeig

; 1537 : 	{
; 1538 : 		return 1.0f;

	fld1
	jmp	$LN1@IKRuleWeig
	jmp	$LN10@IKRuleWeig
$LN7@IKRuleWeig:

; 1539 : 	}
; 1540 : 	else if( flCycle < ikRule->end )

	mov	eax, DWORD PTR _ikRule$[ebp]
	movss	xmm0, DWORD PTR [eax+84]
	comiss	xmm0, DWORD PTR _flCycle$[ebp]
	jbe	SHORT $LN9@IKRuleWeig

; 1541 : 	{
; 1542 : 		value = 1.0f - (( flCycle - ikRule->tail ) / ( ikRule->end - ikRule->tail ));

	mov	eax, DWORD PTR _ikRule$[ebp]
	movss	xmm0, DWORD PTR _flCycle$[ebp]
	subss	xmm0, DWORD PTR [eax+80]
	mov	ecx, DWORD PTR _ikRule$[ebp]
	mov	edx, DWORD PTR _ikRule$[ebp]
	movss	xmm1, DWORD PTR [ecx+84]
	subss	xmm1, DWORD PTR [edx+80]
	divss	xmm0, xmm1
	movss	xmm1, DWORD PTR __real@3f800000
	subss	xmm1, xmm0
	movss	DWORD PTR _value$[ebp], xmm1

; 1543 : 	}
; 1544 : 	else

	jmp	SHORT $LN10@IKRuleWeig
$LN9@IKRuleWeig:

; 1545 : 	{
; 1546 : 		fraq = (panim->numframes - 1) * (ikRule->end - ikRule->start) + ikRule->iStart;

	mov	eax, DWORD PTR _panim$[ebp]
	mov	ecx, DWORD PTR [eax+40]
	sub	ecx, 1
	cvtsi2ss xmm0, ecx
	mov	edx, DWORD PTR _ikRule$[ebp]
	mov	eax, DWORD PTR _ikRule$[ebp]
	movss	xmm1, DWORD PTR [edx+84]
	subss	xmm1, DWORD PTR [eax+72]
	mulss	xmm0, xmm1
	mov	ecx, DWORD PTR _ikRule$[ebp]
	cvtsi2ss xmm1, DWORD PTR [ecx+68]
	addss	xmm0, xmm1
	mov	edx, DWORD PTR _fraq$[ebp]
	movss	DWORD PTR [edx], xmm0

; 1547 : 		iFrame = (int)fraq;

	mov	eax, DWORD PTR _fraq$[ebp]
	cvttss2si ecx, DWORD PTR [eax]
	mov	edx, DWORD PTR _iFrame$[ebp]
	mov	DWORD PTR [edx], ecx

; 1548 : 		fraq = fraq - iFrame;

	mov	eax, DWORD PTR _iFrame$[ebp]
	cvtsi2ss xmm0, DWORD PTR [eax]
	mov	ecx, DWORD PTR _fraq$[ebp]
	movss	xmm1, DWORD PTR [ecx]
	subss	xmm1, xmm0
	mov	edx, DWORD PTR _fraq$[ebp]
	movss	DWORD PTR [edx], xmm1
$LN10@IKRuleWeig:

; 1549 : 	}
; 1550 : 
; 1551 : 	return SimpleSpline( value );

	push	ecx
	movss	xmm0, DWORD PTR _value$[ebp]
	movss	DWORD PTR [esp], xmm0
	call	?SimpleSpline@@YAMM@Z			; SimpleSpline
	add	esp, 4
$LN1@IKRuleWeig:

; 1552 : }

	pop	edi
	pop	esi
	pop	ebx
	mov	esp, ebp
	pop	ebp
	ret	20					; 00000014H
?IKRuleWeight@CStudioBoneSetup@@AAEMPBUmstudioikrule_t@@PBUmstudioanimdesc_t@@MAAHAAM@Z ENDP ; CStudioBoneSetup::IKRuleWeight
_TEXT	ENDS
; Function compile flags: /Odtp /ZI
; File d:\!diffusion 2020\source code 2022\client-server\game_shared\bone_setup.cpp
;	COMDAT ?IKSequenceError@CStudioBoneSetup@@AAE_NHMHQAPAUmstudioanimdesc_t@@QAMPAUikcontextikrule_t@@@Z
_TEXT	SEGMENT
tv596 = -168						; size = 4
tv308 = -168						; size = 4
$T1 = -164						; size = 16
$T2 = -148						; size = 12
$T3 = -136						; size = 12
_pRule$4 = -60						; size = 4
_w$5 = -56						; size = 4
_q1$6 = -52						; size = 16
_pos1$7 = -36						; size = 12
_total$ = -24						; size = 4
_dt$8 = -20						; size = 4
_pRule$9 = -16						; size = 4
_prevRule$ = -12					; size = 4
_i$ = -8						; size = 4
_this$ = -4						; size = 4
_iSeq$ = 8						; size = 4
_flCycle$ = 12						; size = 4
_iRule$ = 16						; size = 4
_panim$ = 20						; size = 4
_weight$ = 24						; size = 4
_ikRule$ = 28						; size = 4
?IKSequenceError@CStudioBoneSetup@@AAE_NHMHQAPAUmstudioanimdesc_t@@QAMPAUikcontextikrule_t@@@Z PROC ; CStudioBoneSetup::IKSequenceError, COMDAT
; _this$ = ecx

; 1663 : {

	push	ebp
	mov	ebp, esp
	sub	esp, 168				; 000000a8H
	push	ebx
	push	esi
	push	edi
	mov	DWORD PTR _this$[ebp], ecx

; 1664 : 	int	i;
; 1665 : 
; 1666 : 	memset( ikRule, 0, sizeof( ikcontextikrule_t ));

	push	132					; 00000084H
	push	0
	mov	eax, DWORD PTR _ikRule$[ebp]
	push	eax
	call	_memset
	add	esp, 12					; 0000000cH

; 1667 : 	ikRule->start = ikRule->peak = ikRule->tail = ikRule->end = 0;

	mov	eax, DWORD PTR _ikRule$[ebp]
	xorps	xmm0, xmm0
	movss	DWORD PTR [eax+72], xmm0
	mov	ecx, DWORD PTR _ikRule$[ebp]
	xorps	xmm0, xmm0
	movss	DWORD PTR [ecx+68], xmm0
	mov	edx, DWORD PTR _ikRule$[ebp]
	xorps	xmm0, xmm0
	movss	DWORD PTR [edx+64], xmm0
	mov	eax, DWORD PTR _ikRule$[ebp]
	xorps	xmm0, xmm0
	movss	DWORD PTR [eax+60], xmm0

; 1668 : 
; 1669 : 	const mstudioikrule_t *prevRule = NULL;

	mov	DWORD PTR _prevRule$[ebp], 0

; 1670 : 
; 1671 : 	// find overall influence
; 1672 : 	for( i = 0; i < 4; i++ )

	mov	DWORD PTR _i$[ebp], 0
	jmp	SHORT $LN4@IKSequence
$LN2@IKSequence:
	mov	eax, DWORD PTR _i$[ebp]
	add	eax, 1
	mov	DWORD PTR _i$[ebp], eax
$LN4@IKSequence:
	cmp	DWORD PTR _i$[ebp], 4
	jge	$LN3@IKSequence

; 1673 : 	{
; 1674 : 		if( weight[i] )

	mov	eax, DWORD PTR _i$[ebp]
	mov	ecx, DWORD PTR _weight$[ebp]
	movss	xmm0, DWORD PTR [ecx+eax*4]
	ucomiss	xmm0, DWORD PTR __real@00000000
	lahf
	test	ah, 68					; 00000044H
	jnp	$LN10@IKSequence

; 1675 : 		{
; 1676 : 			if( iRule >= panim[i]->numikrules || panim[i]->numikrules != panim[0]->numikrules )

	mov	eax, DWORD PTR _i$[ebp]
	mov	ecx, DWORD PTR _panim$[ebp]
	mov	edx, DWORD PTR [ecx+eax*4]
	mov	eax, DWORD PTR _iRule$[ebp]
	cmp	eax, DWORD PTR [edx+52]
	jge	SHORT $LN12@IKSequence
	mov	eax, DWORD PTR _i$[ebp]
	mov	ecx, DWORD PTR _panim$[ebp]
	mov	edx, DWORD PTR [ecx+eax*4]
	mov	eax, 4
	imul	ecx, eax, 0
	mov	eax, DWORD PTR _panim$[ebp]
	mov	ecx, DWORD PTR [eax+ecx]
	mov	edx, DWORD PTR [edx+52]
	cmp	edx, DWORD PTR [ecx+52]
	je	SHORT $LN11@IKSequence
$LN12@IKSequence:

; 1677 : 				return false;

	xor	al, al
	jmp	$LN1@IKSequence
$LN11@IKSequence:

; 1678 : 
; 1679 : 			const mstudioikrule_t *pRule = pIKRule( panim[i], iRule );

	mov	eax, DWORD PTR _iRule$[ebp]
	push	eax
	mov	ecx, DWORD PTR _i$[ebp]
	mov	edx, DWORD PTR _panim$[ebp]
	mov	eax, DWORD PTR [edx+ecx*4]
	push	eax
	mov	ecx, DWORD PTR _this$[ebp]
	call	?pIKRule@CStudioBoneSetup@@QAEPBUmstudioikrule_t@@PBUmstudioanimdesc_t@@H@Z ; CStudioBoneSetup::pIKRule
	mov	DWORD PTR _pRule$9[ebp], eax

; 1680 : 
; 1681 : 			if( pRule == NULL )

	cmp	DWORD PTR _pRule$9[ebp], 0
	jne	SHORT $LN13@IKSequence

; 1682 : 				return false;

	xor	al, al
	jmp	$LN1@IKSequence
$LN13@IKSequence:

; 1683 : 
; 1684 : 			float dt = 0.0f;

	xorps	xmm0, xmm0
	movss	DWORD PTR _dt$8[ebp], xmm0

; 1685 : 
; 1686 : 			if( prevRule != NULL )

	cmp	DWORD PTR _prevRule$[ebp], 0
	je	SHORT $LN14@IKSequence

; 1687 : 			{
; 1688 : 				if( pRule->start - prevRule->start > 0.5f )

	mov	eax, DWORD PTR _pRule$9[ebp]
	mov	ecx, DWORD PTR _prevRule$[ebp]
	movss	xmm0, DWORD PTR [eax+72]
	subss	xmm0, DWORD PTR [ecx+72]
	comiss	xmm0, DWORD PTR __real@3f000000
	jbe	SHORT $LN16@IKSequence

; 1689 : 				{
; 1690 : 					dt = -1.0f;

	movss	xmm0, DWORD PTR __real@bf800000
	movss	DWORD PTR _dt$8[ebp], xmm0
	jmp	SHORT $LN18@IKSequence
$LN16@IKSequence:

; 1691 : 				}
; 1692 : 				else if( pRule->start - prevRule->start < -0.5f )

	mov	eax, DWORD PTR _pRule$9[ebp]
	mov	ecx, DWORD PTR _prevRule$[ebp]
	movss	xmm0, DWORD PTR [eax+72]
	subss	xmm0, DWORD PTR [ecx+72]
	movss	xmm1, DWORD PTR __real@bf000000
	comiss	xmm1, xmm0
	jbe	SHORT $LN18@IKSequence

; 1693 : 				{
; 1694 : 					dt = 1.0;

	movss	xmm0, DWORD PTR __real@3f800000
	movss	DWORD PTR _dt$8[ebp], xmm0
$LN18@IKSequence:

; 1695 : 				}
; 1696 : 			}
; 1697 : 			else

	jmp	SHORT $LN15@IKSequence
$LN14@IKSequence:

; 1698 : 			{
; 1699 : 				prevRule = pRule;

	mov	eax, DWORD PTR _pRule$9[ebp]
	mov	DWORD PTR _prevRule$[ebp], eax
$LN15@IKSequence:

; 1700 : 			}
; 1701 : 
; 1702 : 			ikRule->start += (pRule->start + dt) * weight[i];

	mov	eax, DWORD PTR _pRule$9[ebp]
	movss	xmm0, DWORD PTR [eax+72]
	addss	xmm0, DWORD PTR _dt$8[ebp]
	mov	ecx, DWORD PTR _i$[ebp]
	mov	edx, DWORD PTR _weight$[ebp]
	mulss	xmm0, DWORD PTR [edx+ecx*4]
	mov	eax, DWORD PTR _ikRule$[ebp]
	addss	xmm0, DWORD PTR [eax+60]
	mov	ecx, DWORD PTR _ikRule$[ebp]
	movss	DWORD PTR [ecx+60], xmm0

; 1703 : 			ikRule->peak += (pRule->peak + dt) * weight[i];

	mov	eax, DWORD PTR _pRule$9[ebp]
	movss	xmm0, DWORD PTR [eax+76]
	addss	xmm0, DWORD PTR _dt$8[ebp]
	mov	ecx, DWORD PTR _i$[ebp]
	mov	edx, DWORD PTR _weight$[ebp]
	mulss	xmm0, DWORD PTR [edx+ecx*4]
	mov	eax, DWORD PTR _ikRule$[ebp]
	addss	xmm0, DWORD PTR [eax+64]
	mov	ecx, DWORD PTR _ikRule$[ebp]
	movss	DWORD PTR [ecx+64], xmm0

; 1704 : 			ikRule->tail += (pRule->tail + dt) * weight[i];

	mov	eax, DWORD PTR _pRule$9[ebp]
	movss	xmm0, DWORD PTR [eax+80]
	addss	xmm0, DWORD PTR _dt$8[ebp]
	mov	ecx, DWORD PTR _i$[ebp]
	mov	edx, DWORD PTR _weight$[ebp]
	mulss	xmm0, DWORD PTR [edx+ecx*4]
	mov	eax, DWORD PTR _ikRule$[ebp]
	addss	xmm0, DWORD PTR [eax+68]
	mov	ecx, DWORD PTR _ikRule$[ebp]
	movss	DWORD PTR [ecx+68], xmm0

; 1705 : 			ikRule->end += (pRule->end + dt) * weight[i];

	mov	eax, DWORD PTR _pRule$9[ebp]
	movss	xmm0, DWORD PTR [eax+84]
	addss	xmm0, DWORD PTR _dt$8[ebp]
	mov	ecx, DWORD PTR _i$[ebp]
	mov	edx, DWORD PTR _weight$[ebp]
	mulss	xmm0, DWORD PTR [edx+ecx*4]
	mov	eax, DWORD PTR _ikRule$[ebp]
	addss	xmm0, DWORD PTR [eax+72]
	mov	ecx, DWORD PTR _ikRule$[ebp]
	movss	DWORD PTR [ecx+72], xmm0
$LN10@IKSequence:

; 1706 : 		}
; 1707 : 	}

	jmp	$LN2@IKSequence
$LN3@IKSequence:

; 1708 : 
; 1709 : 	if( ikRule->start > 1.0f )

	mov	eax, DWORD PTR _ikRule$[ebp]
	movss	xmm0, DWORD PTR [eax+60]
	comiss	xmm0, DWORD PTR __real@3f800000
	jbe	SHORT $LN19@IKSequence

; 1710 : 	{
; 1711 : 		ikRule->start -= 1.0f;

	mov	eax, DWORD PTR _ikRule$[ebp]
	movss	xmm0, DWORD PTR [eax+60]
	subss	xmm0, DWORD PTR __real@3f800000
	mov	ecx, DWORD PTR _ikRule$[ebp]
	movss	DWORD PTR [ecx+60], xmm0

; 1712 : 		ikRule->peak -= 1.0f;

	mov	eax, DWORD PTR _ikRule$[ebp]
	movss	xmm0, DWORD PTR [eax+64]
	subss	xmm0, DWORD PTR __real@3f800000
	mov	ecx, DWORD PTR _ikRule$[ebp]
	movss	DWORD PTR [ecx+64], xmm0

; 1713 : 		ikRule->tail -= 1.0f;

	mov	eax, DWORD PTR _ikRule$[ebp]
	movss	xmm0, DWORD PTR [eax+68]
	subss	xmm0, DWORD PTR __real@3f800000
	mov	ecx, DWORD PTR _ikRule$[ebp]
	movss	DWORD PTR [ecx+68], xmm0

; 1714 : 		ikRule->end -= 1.0f;

	mov	eax, DWORD PTR _ikRule$[ebp]
	movss	xmm0, DWORD PTR [eax+72]
	subss	xmm0, DWORD PTR __real@3f800000
	mov	ecx, DWORD PTR _ikRule$[ebp]
	movss	DWORD PTR [ecx+72], xmm0
	jmp	SHORT $LN21@IKSequence
$LN19@IKSequence:

; 1715 : 	}
; 1716 : 	else if( ikRule->start < 0.0f )

	mov	eax, DWORD PTR _ikRule$[ebp]
	xorps	xmm0, xmm0
	comiss	xmm0, DWORD PTR [eax+60]
	jbe	SHORT $LN21@IKSequence

; 1717 : 	{
; 1718 : 		ikRule->start += 1.0f;

	mov	eax, DWORD PTR _ikRule$[ebp]
	movss	xmm0, DWORD PTR [eax+60]
	addss	xmm0, DWORD PTR __real@3f800000
	mov	ecx, DWORD PTR _ikRule$[ebp]
	movss	DWORD PTR [ecx+60], xmm0

; 1719 : 		ikRule->peak += 1.0f;

	mov	eax, DWORD PTR _ikRule$[ebp]
	movss	xmm0, DWORD PTR [eax+64]
	addss	xmm0, DWORD PTR __real@3f800000
	mov	ecx, DWORD PTR _ikRule$[ebp]
	movss	DWORD PTR [ecx+64], xmm0

; 1720 : 		ikRule->tail += 1.0f;

	mov	eax, DWORD PTR _ikRule$[ebp]
	movss	xmm0, DWORD PTR [eax+68]
	addss	xmm0, DWORD PTR __real@3f800000
	mov	ecx, DWORD PTR _ikRule$[ebp]
	movss	DWORD PTR [ecx+68], xmm0

; 1721 : 		ikRule->end += 1.0f;

	mov	eax, DWORD PTR _ikRule$[ebp]
	movss	xmm0, DWORD PTR [eax+72]
	addss	xmm0, DWORD PTR __real@3f800000
	mov	ecx, DWORD PTR _ikRule$[ebp]
	movss	DWORD PTR [ecx+72], xmm0
$LN21@IKSequence:

; 1722 : 	}
; 1723 : 
; 1724 : 	ikRule->flWeight = IKRuleWeight( ikRule, flCycle );

	push	ecx
	movss	xmm0, DWORD PTR _flCycle$[ebp]
	movss	DWORD PTR [esp], xmm0
	mov	eax, DWORD PTR _ikRule$[ebp]
	push	eax
	mov	ecx, DWORD PTR _this$[ebp]
	call	?IKRuleWeight@CStudioBoneSetup@@AAEMPAUikcontextikrule_t@@M@Z ; CStudioBoneSetup::IKRuleWeight
	mov	ecx, DWORD PTR _ikRule$[ebp]
	fstp	DWORD PTR [ecx+92]

; 1725 : 
; 1726 : 	if( ikRule->flWeight <= 0.001f )

	mov	eax, DWORD PTR _ikRule$[ebp]
	movss	xmm0, DWORD PTR __real@3a83126f
	comiss	xmm0, DWORD PTR [eax+92]
	jb	$LN25@IKSequence

; 1727 : 	{
; 1728 : 		// go ahead and allow IK_GROUND rules a virtual looping section
; 1729 : 		if( pIKRule( panim[0], iRule ) == NULL ) 

	mov	eax, DWORD PTR _iRule$[ebp]
	push	eax
	mov	ecx, 4
	imul	edx, ecx, 0
	mov	eax, DWORD PTR _panim$[ebp]
	mov	ecx, DWORD PTR [eax+edx]
	push	ecx
	mov	ecx, DWORD PTR _this$[ebp]
	call	?pIKRule@CStudioBoneSetup@@QAEPBUmstudioikrule_t@@PBUmstudioanimdesc_t@@H@Z ; CStudioBoneSetup::pIKRule
	test	eax, eax
	jne	SHORT $LN23@IKSequence

; 1730 : 			return false;

	xor	al, al
	jmp	$LN1@IKSequence
$LN23@IKSequence:

; 1731 : 
; 1732 : 		if(( panim[0]->flags & STUDIO_LOOPING ) && pIKRule( panim[0], iRule )->type == IK_GROUND && ikRule->end - ikRule->start > 0.75f )

	mov	eax, 4
	imul	ecx, eax, 0
	mov	edx, DWORD PTR _panim$[ebp]
	mov	eax, DWORD PTR [edx+ecx]
	mov	ecx, DWORD PTR [eax+36]
	and	ecx, 1
	je	SHORT $LN24@IKSequence
	mov	eax, DWORD PTR _iRule$[ebp]
	push	eax
	mov	ecx, 4
	imul	edx, ecx, 0
	mov	eax, DWORD PTR _panim$[ebp]
	mov	ecx, DWORD PTR [eax+edx]
	push	ecx
	mov	ecx, DWORD PTR _this$[ebp]
	call	?pIKRule@CStudioBoneSetup@@QAEPBUmstudioikrule_t@@PBUmstudioanimdesc_t@@H@Z ; CStudioBoneSetup::pIKRule
	cmp	DWORD PTR [eax+4], 3
	jne	SHORT $LN24@IKSequence
	mov	eax, DWORD PTR _ikRule$[ebp]
	mov	ecx, DWORD PTR _ikRule$[ebp]
	movss	xmm0, DWORD PTR [eax+72]
	subss	xmm0, DWORD PTR [ecx+60]
	comiss	xmm0, DWORD PTR __real@3f400000
	jbe	SHORT $LN24@IKSequence

; 1733 : 		{
; 1734 : 			ikRule->flWeight = 0.001f;

	mov	eax, DWORD PTR _ikRule$[ebp]
	movss	xmm0, DWORD PTR __real@3a83126f
	movss	DWORD PTR [eax+92], xmm0

; 1735 : 			flCycle = ikRule->end - 0.001f;

	mov	eax, DWORD PTR _ikRule$[ebp]
	movss	xmm0, DWORD PTR [eax+72]
	subss	xmm0, DWORD PTR __real@3a83126f
	movss	DWORD PTR _flCycle$[ebp], xmm0

; 1736 : 		}
; 1737 : 		else

	jmp	SHORT $LN25@IKSequence
$LN24@IKSequence:

; 1738 : 		{
; 1739 : 			return false;

	xor	al, al
	jmp	$LN1@IKSequence
$LN25@IKSequence:

; 1740 : 		}
; 1741 : 	}
; 1742 : 
; 1743 : 	ikRule->pos.Init();

	push	ecx
	xorps	xmm0, xmm0
	movss	DWORD PTR [esp], xmm0
	push	ecx
	xorps	xmm0, xmm0
	movss	DWORD PTR [esp], xmm0
	push	ecx
	xorps	xmm0, xmm0
	movss	DWORD PTR [esp], xmm0
	mov	ecx, DWORD PTR _ikRule$[ebp]
	add	ecx, 32					; 00000020H
	call	?Init@Vector@@QAEXMMM@Z			; Vector::Init

; 1744 : 	ikRule->q.Init();

	push	ecx
	xorps	xmm0, xmm0
	movss	DWORD PTR [esp], xmm0
	push	ecx
	xorps	xmm0, xmm0
	movss	DWORD PTR [esp], xmm0
	push	ecx
	xorps	xmm0, xmm0
	movss	DWORD PTR [esp], xmm0
	push	ecx
	xorps	xmm0, xmm0
	movss	DWORD PTR [esp], xmm0
	mov	ecx, DWORD PTR _ikRule$[ebp]
	add	ecx, 44					; 0000002cH
	call	?Init@Vector4D@@QAEXMMMM@Z		; Vector4D::Init

; 1745 : 
; 1746 : 	// find target error
; 1747 : 	float total = 0.0f;

	xorps	xmm0, xmm0
	movss	DWORD PTR _total$[ebp], xmm0

; 1748 : 	for( i = 0; i < 4; i++ )

	mov	DWORD PTR _i$[ebp], 0
	jmp	SHORT $LN7@IKSequence
$LN5@IKSequence:
	mov	eax, DWORD PTR _i$[ebp]
	add	eax, 1
	mov	DWORD PTR _i$[ebp], eax
$LN7@IKSequence:
	cmp	DWORD PTR _i$[ebp], 4
	jge	$LN6@IKSequence

; 1749 : 	{
; 1750 : 		if( weight[i] )

	mov	eax, DWORD PTR _i$[ebp]
	mov	ecx, DWORD PTR _weight$[ebp]
	movss	xmm0, DWORD PTR [ecx+eax*4]
	ucomiss	xmm0, DWORD PTR __real@00000000
	lahf
	test	ah, 68					; 00000044H
	jnp	$LN31@IKSequence

; 1751 : 		{
; 1752 : 			Vector	pos1;

	lea	ecx, DWORD PTR _pos1$7[ebp]
	call	??0Vector@@QAE@XZ			; Vector::Vector

; 1753 : 			Vector4D	q1;

	lea	ecx, DWORD PTR _q1$6[ebp]
	call	??0Vector4D@@QAE@XZ			; Vector4D::Vector4D

; 1754 : 			float	w;
; 1755 : 
; 1756 : 			const mstudioikrule_t *pRule = pIKRule( panim[i], iRule );

	mov	eax, DWORD PTR _iRule$[ebp]
	push	eax
	mov	ecx, DWORD PTR _i$[ebp]
	mov	edx, DWORD PTR _panim$[ebp]
	mov	eax, DWORD PTR [edx+ecx*4]
	push	eax
	mov	ecx, DWORD PTR _this$[ebp]
