; Listing generated by Microsoft (R) Optimizing Compiler Version 19.00.24247.2 

	TITLE	D:\!DIFFUSION 2020\source code 2022\client-server\client\cdll_int.cpp
	.686P
	.XMM
	include listing.inc
	.model	flat

INCLUDELIB LIBCMT
INCLUDELIB OLDNAMES

PUBLIC	?HUD_GetHullBounds@@YAHHPAM0@Z			; HUD_GetHullBounds
PUBLIC	?HUD_ConnectionlessPacket@@YAHPBUnetadr_s@@PBDPADPAH@Z ; HUD_ConnectionlessPacket
PUBLIC	?HUD_PlayerMoveInit@@YAXPAUplayermove_s@@@Z	; HUD_PlayerMoveInit
PUBLIC	?gEngfuncs@@3Ucl_enginefuncs_s@@A		; gEngfuncs
PUBLIC	?gRenderfuncs@@3Urender_api_s@@A		; gRenderfuncs
PUBLIC	?HUD_PlayerMoveTexture@@YADPAD@Z		; HUD_PlayerMoveTexture
PUBLIC	?HUD_PlayerMove@@YAXPAUplayermove_s@@H@Z	; HUD_PlayerMove
PUBLIC	?Initialize@@YAHPAUcl_enginefuncs_s@@H@Z	; Initialize
PUBLIC	?HUD_VidInit@@YAHXZ				; HUD_VidInit
PUBLIC	?developer_level@@3HA				; developer_level
PUBLIC	?g_iXashEngineBuildNumber@@3HA			; g_iXashEngineBuildNumber
PUBLIC	?HUD_Init@@YAXXZ				; HUD_Init
PUBLIC	?HUD_Shutdown@@YAXXZ				; HUD_Shutdown
PUBLIC	?HUD_Redraw@@YAHMH@Z				; HUD_Redraw
PUBLIC	?HUD_UpdateClientData@@YAHPAUclient_data_s@@M@Z	; HUD_UpdateClientData
PUBLIC	?HUD_Reset@@YAXXZ				; HUD_Reset
PUBLIC	?HUD_Frame@@YAXN@Z				; HUD_Frame
PUBLIC	?HUD_Key_Event@@YAHHHPBD@Z			; HUD_Key_Event
PUBLIC	?HUD_PostRunCmd@@YAXPAUlocal_state_s@@0PAUusercmd_s@@HNI@Z ; HUD_PostRunCmd
PUBLIC	?HUD_VoiceStatus@@YAXHH@Z			; HUD_VoiceStatus
PUBLIC	?HUD_DirectorMessage@@YAXHPAX@Z			; HUD_DirectorMessage
PUBLIC	?Demo_ReadBuffer@@YAXHPAE@Z			; Demo_ReadBuffer
PUBLIC	?HUD_GetUserEntity@@YAPAUcl_entity_s@@H@Z	; HUD_GetUserEntity
PUBLIC	?cldll_func@@3Ucldll_func_s@@A			; cldll_func
EXTRN	?IN_ActivateMouse@@YAXXZ:PROC			; IN_ActivateMouse
EXTRN	?IN_DeactivateMouse@@YAXXZ:PROC			; IN_DeactivateMouse
EXTRN	?IN_MouseEvent@@YAXH@Z:PROC			; IN_MouseEvent
EXTRN	?IN_Accumulate@@YAXXZ:PROC			; IN_Accumulate
EXTRN	?IN_ClearStates@@YAXXZ:PROC			; IN_ClearStates
EXTRN	?KB_Find@@YAPAXPBD@Z:PROC			; KB_Find
EXTRN	?CL_CreateMove@@YAXMPAUusercmd_s@@H@Z:PROC	; CL_CreateMove
EXTRN	?HUD_GetRenderInterface@@YAHHPAUrender_api_s@@PAUrender_interface_s@@@Z:PROC ; HUD_GetRenderInterface
EXTRN	?HUD_GetStudioModelInterface@@YAHHPAPAUr_studio_interface_s@@PAUengine_studio_api_s@@@Z:PROC ; HUD_GetStudioModelInterface
EXTRN	?HUD_DrawNormalTriangles@@YAXXZ:PROC		; HUD_DrawNormalTriangles
EXTRN	?HUD_DrawTransparentTriangles@@YAXXZ:PROC	; HUD_DrawTransparentTriangles
EXTRN	?V_CalcRefdef@@YAXPAUref_params_s@@@Z:PROC	; V_CalcRefdef
EXTRN	?CAM_Think@@YAXXZ:PROC				; CAM_Think
EXTRN	?CL_CameraOffset@@YAXPAM@Z:PROC			; CL_CameraOffset
EXTRN	?CL_IsThirdPerson@@YAHXZ:PROC			; CL_IsThirdPerson
EXTRN	?HUD_StudioEvent@@YAXPBUmstudioevent_s@@PBUcl_entity_s@@@Z:PROC ; HUD_StudioEvent
EXTRN	?HUD_TempEntUpdate@@YAXNNNPAPAUtempent_s@@0P6AHPAUcl_entity_s@@@ZP6AXPAU1@M@Z@Z:PROC ; HUD_TempEntUpdate
EXTRN	?HUD_AddEntity@@YAHHPAUcl_entity_s@@PBD@Z:PROC	; HUD_AddEntity
EXTRN	?HUD_TxferLocalOverrides@@YAXPAUentity_state_s@@PBUclientdata_s@@@Z:PROC ; HUD_TxferLocalOverrides
EXTRN	?HUD_ProcessPlayerState@@YAXPAUentity_state_s@@PBU1@@Z:PROC ; HUD_ProcessPlayerState
EXTRN	?HUD_TxferPredictionData@@YAXPAUentity_state_s@@PBU1@PAUclientdata_s@@PBU2@PAUweapon_data_s@@PBU3@@Z:PROC ; HUD_TxferPredictionData
EXTRN	?HUD_CreateEntities@@YAXXZ:PROC			; HUD_CreateEntities
_BSS	SEGMENT
?gEngfuncs@@3Ucl_enginefuncs_s@@A DB 0218H DUP (?)	; gEngfuncs
?gRenderfuncs@@3Urender_api_s@@A DB 0104H DUP (?)	; gRenderfuncs
?developer_level@@3HA DD 01H DUP (?)			; developer_level
?g_iXashEngineBuildNumber@@3HA DD 01H DUP (?)		; g_iXashEngineBuildNumber
_BSS	ENDS
_DATA	SEGMENT
?cldll_func@@3Ucldll_func_s@@A DD FLAT:?Initialize@@YAHPAUcl_enginefuncs_s@@H@Z ; cldll_func
	DD	FLAT:?HUD_Init@@YAXXZ
	DD	FLAT:?HUD_VidInit@@YAHXZ
	DD	FLAT:?HUD_Redraw@@YAHMH@Z
	DD	FLAT:?HUD_UpdateClientData@@YAHPAUclient_data_s@@M@Z
	DD	FLAT:?HUD_Reset@@YAXXZ
	DD	FLAT:?HUD_PlayerMove@@YAXPAUplayermove_s@@H@Z
	DD	FLAT:?HUD_PlayerMoveInit@@YAXPAUplayermove_s@@@Z
	DD	FLAT:?HUD_PlayerMoveTexture@@YADPAD@Z
	DD	FLAT:?IN_ActivateMouse@@YAXXZ
	DD	FLAT:?IN_DeactivateMouse@@YAXXZ
	DD	FLAT:?IN_MouseEvent@@YAXH@Z
	DD	FLAT:?IN_ClearStates@@YAXXZ
	DD	FLAT:?IN_Accumulate@@YAXXZ
	DD	FLAT:?CL_CreateMove@@YAXMPAUusercmd_s@@H@Z
	DD	FLAT:?CL_IsThirdPerson@@YAHXZ
	DD	FLAT:?CL_CameraOffset@@YAXPAM@Z
	DD	FLAT:?KB_Find@@YAPAXPBD@Z
	DD	FLAT:?CAM_Think@@YAXXZ
	DD	FLAT:?V_CalcRefdef@@YAXPAUref_params_s@@@Z
	DD	FLAT:?HUD_AddEntity@@YAHHPAUcl_entity_s@@PBD@Z
	DD	FLAT:?HUD_CreateEntities@@YAXXZ
	DD	FLAT:?HUD_DrawNormalTriangles@@YAXXZ
	DD	FLAT:?HUD_DrawTransparentTriangles@@YAXXZ
	DD	FLAT:?HUD_StudioEvent@@YAXPBUmstudioevent_s@@PBUcl_entity_s@@@Z
	DD	FLAT:?HUD_PostRunCmd@@YAXPAUlocal_state_s@@0PAUusercmd_s@@HNI@Z
	DD	FLAT:?HUD_Shutdown@@YAXXZ
	DD	FLAT:?HUD_TxferLocalOverrides@@YAXPAUentity_state_s@@PBUclientdata_s@@@Z
	DD	FLAT:?HUD_ProcessPlayerState@@YAXPAUentity_state_s@@PBU1@@Z
	DD	FLAT:?HUD_TxferPredictionData@@YAXPAUentity_state_s@@PBU1@PAUclientdata_s@@PBU2@PAUweapon_data_s@@PBU3@@Z
	DD	FLAT:?Demo_ReadBuffer@@YAXHPAE@Z
	DD	FLAT:?HUD_ConnectionlessPacket@@YAHPBUnetadr_s@@PBDPADPAH@Z
	DD	FLAT:?HUD_GetHullBounds@@YAHHPAM0@Z
	DD	FLAT:?HUD_Frame@@YAXN@Z
	DD	FLAT:?HUD_Key_Event@@YAHHHPBD@Z
	DD	FLAT:?HUD_TempEntUpdate@@YAXNNNPAPAUtempent_s@@0P6AHPAUcl_entity_s@@@ZP6AXPAU1@M@Z@Z
	DD	FLAT:?HUD_GetUserEntity@@YAPAUcl_entity_s@@H@Z
	DD	FLAT:?HUD_VoiceStatus@@YAXHH@Z
	DD	FLAT:?HUD_DirectorMessage@@YAXHPAX@Z
	DD	FLAT:?HUD_GetStudioModelInterface@@YAHHPAPAUr_studio_interface_s@@PAUengine_studio_api_s@@@Z
	DD	00H
	DD	FLAT:?HUD_GetRenderInterface@@YAHHPAUrender_api_s@@PAUrender_interface_s@@@Z
	DD	00H
_DATA	ENDS
PUBLIC	??_H@YGXPAXIIP6EPAX0@Z@Z			; `vector constructor iterator'
PUBLIC	??__G@YGXPAX0IIP6EPAX00@Z@Z			; `vector copy constructor iterator'
PUBLIC	??0Vector2D@@QAE@XZ				; Vector2D::Vector2D
PUBLIC	??0Vector@@QAE@XZ				; Vector::Vector
PUBLIC	??0Vector@@QAE@MMM@Z				; Vector::Vector
PUBLIC	?CopyToArray@Vector@@QBEXPAM@Z			; Vector::CopyToArray
PUBLIC	??1CHudBase@@UAE@XZ				; CHudBase::~CHudBase
PUBLIC	?Init@CHudBase@@UAEHXZ				; CHudBase::Init
PUBLIC	?VidInit@CHudBase@@UAEHXZ			; CHudBase::VidInit
PUBLIC	?Draw@CHudBase@@UAEHM@Z				; CHudBase::Draw
PUBLIC	?Think@CHudBase@@UAEXXZ				; CHudBase::Think
PUBLIC	?Reset@CHudBase@@UAEXXZ				; CHudBase::Reset
PUBLIC	?InitHUDData@CHudBase@@UAEXXZ			; CHudBase::InitHUDData
PUBLIC	??0CHudBase@@QAE@XZ				; CHudBase::CHudBase
PUBLIC	??_GCHudBase@@UAEPAXI@Z				; CHudBase::`scalar deleting destructor'
PUBLIC	??0CHudAmmo@@QAE@XZ				; CHudAmmo::CHudAmmo
PUBLIC	??1CHudAmmo@@UAE@XZ				; CHudAmmo::~CHudAmmo
PUBLIC	??_GCHudAmmo@@UAEPAXI@Z				; CHudAmmo::`scalar deleting destructor'
PUBLIC	??0CHudAmmoSecondary@@QAE@XZ			; CHudAmmoSecondary::CHudAmmoSecondary
PUBLIC	??1CHudAmmoSecondary@@UAE@XZ			; CHudAmmoSecondary::~CHudAmmoSecondary
PUBLIC	??_GCHudAmmoSecondary@@UAEPAXI@Z		; CHudAmmoSecondary::`scalar deleting destructor'
PUBLIC	??0CHudHealth@@QAE@XZ				; CHudHealth::CHudHealth
PUBLIC	??1CHudHealth@@UAE@XZ				; CHudHealth::~CHudHealth
PUBLIC	??_GCHudHealth@@UAEPAXI@Z			; CHudHealth::`scalar deleting destructor'
PUBLIC	??0CHudGeiger@@QAE@XZ				; CHudGeiger::CHudGeiger
PUBLIC	??1CHudGeiger@@UAE@XZ				; CHudGeiger::~CHudGeiger
PUBLIC	??_GCHudGeiger@@UAEPAXI@Z			; CHudGeiger::`scalar deleting destructor'
PUBLIC	??0CHudLensflare@@QAE@XZ			; CHudLensflare::CHudLensflare
PUBLIC	??1CHudLensflare@@UAE@XZ			; CHudLensflare::~CHudLensflare
PUBLIC	??_GCHudLensflare@@UAEPAXI@Z			; CHudLensflare::`scalar deleting destructor'
PUBLIC	??0CHudTrain@@QAE@XZ				; CHudTrain::CHudTrain
PUBLIC	??1CHudTrain@@UAE@XZ				; CHudTrain::~CHudTrain
PUBLIC	??_GCHudTrain@@UAEPAXI@Z			; CHudTrain::`scalar deleting destructor'
PUBLIC	??0CHudMOTD@@QAE@XZ				; CHudMOTD::CHudMOTD
PUBLIC	??1CHudMOTD@@UAE@XZ				; CHudMOTD::~CHudMOTD
PUBLIC	??_GCHudMOTD@@UAEPAXI@Z				; CHudMOTD::`scalar deleting destructor'
PUBLIC	??0CHudScoreboard@@QAE@XZ			; CHudScoreboard::CHudScoreboard
PUBLIC	??1CHudScoreboard@@UAE@XZ			; CHudScoreboard::~CHudScoreboard
PUBLIC	??_GCHudScoreboard@@UAEPAXI@Z			; CHudScoreboard::`scalar deleting destructor'
PUBLIC	??0CHudStatusBar@@QAE@XZ			; CHudStatusBar::CHudStatusBar
PUBLIC	??1CHudStatusBar@@UAE@XZ			; CHudStatusBar::~CHudStatusBar
PUBLIC	??_GCHudStatusBar@@UAEPAXI@Z			; CHudStatusBar::`scalar deleting destructor'
PUBLIC	??0CHudDeathNotice@@QAE@XZ			; CHudDeathNotice::CHudDeathNotice
PUBLIC	??1CHudDeathNotice@@UAE@XZ			; CHudDeathNotice::~CHudDeathNotice
PUBLIC	??_GCHudDeathNotice@@UAEPAXI@Z			; CHudDeathNotice::`scalar deleting destructor'
PUBLIC	??0CHudMenu@@QAE@XZ				; CHudMenu::CHudMenu
PUBLIC	??1CHudMenu@@UAE@XZ				; CHudMenu::~CHudMenu
PUBLIC	??_GCHudMenu@@UAEPAXI@Z				; CHudMenu::`scalar deleting destructor'
PUBLIC	??0CHudSayText@@QAE@XZ				; CHudSayText::CHudSayText
PUBLIC	??1CHudSayText@@UAE@XZ				; CHudSayText::~CHudSayText
PUBLIC	??_GCHudSayText@@UAEPAXI@Z			; CHudSayText::`scalar deleting destructor'
PUBLIC	??0CHudFlashlight@@QAE@XZ			; CHudFlashlight::CHudFlashlight
PUBLIC	??1CHudFlashlight@@UAE@XZ			; CHudFlashlight::~CHudFlashlight
PUBLIC	??_GCHudFlashlight@@UAEPAXI@Z			; CHudFlashlight::`scalar deleting destructor'
PUBLIC	??0CHudStamina@@QAE@XZ				; CHudStamina::CHudStamina
PUBLIC	??1CHudStamina@@UAE@XZ				; CHudStamina::~CHudStamina
PUBLIC	??_GCHudStamina@@UAEPAXI@Z			; CHudStamina::`scalar deleting destructor'
PUBLIC	??0CHudHealthVisual@@QAE@XZ			; CHudHealthVisual::CHudHealthVisual
PUBLIC	??1CHudHealthVisual@@UAE@XZ			; CHudHealthVisual::~CHudHealthVisual
PUBLIC	??_GCHudHealthVisual@@UAEPAXI@Z			; CHudHealthVisual::`scalar deleting destructor'
PUBLIC	??0CHudTextMessage@@QAE@XZ			; CHudTextMessage::CHudTextMessage
PUBLIC	??1CHudTextMessage@@UAE@XZ			; CHudTextMessage::~CHudTextMessage
PUBLIC	??_GCHudTextMessage@@UAEPAXI@Z			; CHudTextMessage::`scalar deleting destructor'
PUBLIC	??0CHudMessage@@QAE@XZ				; CHudMessage::CHudMessage
PUBLIC	??1CHudMessage@@UAE@XZ				; CHudMessage::~CHudMessage
PUBLIC	??_GCHudMessage@@UAEPAXI@Z			; CHudMessage::`scalar deleting destructor'
PUBLIC	??0CHudStatusIcons@@QAE@XZ			; CHudStatusIcons::CHudStatusIcons
PUBLIC	??1CHudStatusIcons@@UAE@XZ			; CHudStatusIcons::~CHudStatusIcons
PUBLIC	??_GCHudStatusIcons@@UAEPAXI@Z			; CHudStatusIcons::`scalar deleting destructor'
PUBLIC	??0CHudTutorial@@QAE@XZ				; CHudTutorial::CHudTutorial
PUBLIC	??1CHudTutorial@@UAE@XZ				; CHudTutorial::~CHudTutorial
PUBLIC	??_GCHudTutorial@@UAEPAXI@Z			; CHudTutorial::`scalar deleting destructor'
PUBLIC	??0CHudAchievement@@QAE@XZ			; CHudAchievement::CHudAchievement
PUBLIC	??1CHudAchievement@@UAE@XZ			; CHudAchievement::~CHudAchievement
PUBLIC	??_GCHudAchievement@@UAEPAXI@Z			; CHudAchievement::`scalar deleting destructor'
PUBLIC	??0CHudCrosshairStatic@@QAE@XZ			; CHudCrosshairStatic::CHudCrosshairStatic
PUBLIC	??1CHudCrosshairStatic@@UAE@XZ			; CHudCrosshairStatic::~CHudCrosshairStatic
PUBLIC	??_GCHudCrosshairStatic@@UAEPAXI@Z		; CHudCrosshairStatic::`scalar deleting destructor'
PUBLIC	??0CZoom@@QAE@XZ				; CZoom::CZoom
PUBLIC	??1CZoom@@UAE@XZ				; CZoom::~CZoom
PUBLIC	??_GCZoom@@UAEPAXI@Z				; CZoom::`scalar deleting destructor'
PUBLIC	??0CHudBlastIcons@@QAE@XZ			; CHudBlastIcons::CHudBlastIcons
PUBLIC	??1CHudBlastIcons@@UAE@XZ			; CHudBlastIcons::~CHudBlastIcons
PUBLIC	??_GCHudBlastIcons@@UAEPAXI@Z			; CHudBlastIcons::`scalar deleting destructor'
PUBLIC	??0CHudCodeInput@@QAE@XZ			; CHudCodeInput::CHudCodeInput
PUBLIC	??1CHudCodeInput@@UAE@XZ			; CHudCodeInput::~CHudCodeInput
PUBLIC	??_GCHudCodeInput@@UAEPAXI@Z			; CHudCodeInput::`scalar deleting destructor'
PUBLIC	??0CScreenEffects@@QAE@XZ			; CScreenEffects::CScreenEffects
PUBLIC	??1CScreenEffects@@UAE@XZ			; CScreenEffects::~CScreenEffects
PUBLIC	??_GCScreenEffects@@UAEPAXI@Z			; CScreenEffects::`scalar deleting destructor'
PUBLIC	??0CHealthbars@@QAE@XZ				; CHealthbars::CHealthbars
PUBLIC	??1CHealthbars@@UAE@XZ				; CHealthbars::~CHealthbars
PUBLIC	??_GCHealthbars@@UAEPAXI@Z			; CHealthbars::`scalar deleting destructor'
PUBLIC	??0CUseIcon@@QAE@XZ				; CUseIcon::CUseIcon
PUBLIC	??1CUseIcon@@UAE@XZ				; CUseIcon::~CUseIcon
PUBLIC	??_GCUseIcon@@UAEPAXI@Z				; CUseIcon::`scalar deleting destructor'
PUBLIC	??0screen_shake_t@CHud@@QAE@XZ			; CHud::screen_shake_t::screen_shake_t
PUBLIC	??0CHud@@QAE@XZ					; CHud::CHud
PUBLIC	??_GCParticleSystemManager@@QAEPAXI@Z		; CParticleSystemManager::`scalar deleting destructor'
PUBLIC	_GetClientAPI
PUBLIC	??_7CHudBase@@6B@				; CHudBase::`vftable'
PUBLIC	??_7CHudAmmo@@6B@				; CHudAmmo::`vftable'
PUBLIC	??_7CHudAmmoSecondary@@6B@			; CHudAmmoSecondary::`vftable'
PUBLIC	??_7CHudHealth@@6B@				; CHudHealth::`vftable'
PUBLIC	??_7CHudGeiger@@6B@				; CHudGeiger::`vftable'
PUBLIC	??_7CHudLensflare@@6B@				; CHudLensflare::`vftable'
PUBLIC	??_7CHudTrain@@6B@				; CHudTrain::`vftable'
PUBLIC	??_7CHudMOTD@@6B@				; CHudMOTD::`vftable'
PUBLIC	??_7CHudScoreboard@@6B@				; CHudScoreboard::`vftable'
PUBLIC	??_7CHudStatusBar@@6B@				; CHudStatusBar::`vftable'
PUBLIC	??_7CHudDeathNotice@@6B@			; CHudDeathNotice::`vftable'
PUBLIC	??_7CHudMenu@@6B@				; CHudMenu::`vftable'
PUBLIC	??_7CHudSayText@@6B@				; CHudSayText::`vftable'
PUBLIC	??_7CHudFlashlight@@6B@				; CHudFlashlight::`vftable'
PUBLIC	??_7CHudStamina@@6B@				; CHudStamina::`vftable'
PUBLIC	??_7CHudHealthVisual@@6B@			; CHudHealthVisual::`vftable'
PUBLIC	??_7CHudTextMessage@@6B@			; CHudTextMessage::`vftable'
PUBLIC	??_7CHudMessage@@6B@				; CHudMessage::`vftable'
PUBLIC	??_7CHudStatusIcons@@6B@			; CHudStatusIcons::`vftable'
PUBLIC	??_7CHudTutorial@@6B@				; CHudTutorial::`vftable'
PUBLIC	??_7CHudAchievement@@6B@			; CHudAchievement::`vftable'
PUBLIC	??_7CHudCrosshairStatic@@6B@			; CHudCrosshairStatic::`vftable'
PUBLIC	??_7CZoom@@6B@					; CZoom::`vftable'
PUBLIC	??_7CHudBlastIcons@@6B@				; CHudBlastIcons::`vftable'
PUBLIC	??_7CHudCodeInput@@6B@				; CHudCodeInput::`vftable'
PUBLIC	??_7CScreenEffects@@6B@				; CScreenEffects::`vftable'
PUBLIC	??_7CHealthbars@@6B@				; CHealthbars::`vftable'
PUBLIC	??_7CUseIcon@@6B@				; CUseIcon::`vftable'
PUBLIC	?gHUD@@3VCHud@@A				; gHUD
PUBLIC	??_C@_09DNECJBKD@developer?$AA@			; `string'
PUBLIC	??_C@_0BC@CKKMCGJ@host_clientloaded?$AA@	; `string'
PUBLIC	??_C@_05DMEBLLNM@build?$AA@			; `string'
PUBLIC	??_C@_08NLOJPFHM@buildnum?$AA@			; `string'
PUBLIC	??_C@_0BE@MIINDMFA@exec?5diffusion?4cfg?6?$AA@	; `string'
PUBLIC	??_R4CHudBase@@6B@				; CHudBase::`RTTI Complete Object Locator'
PUBLIC	??_R0?AVCHudBase@@@8				; CHudBase `RTTI Type Descriptor'
PUBLIC	??_R3CHudBase@@8				; CHudBase::`RTTI Class Hierarchy Descriptor'
PUBLIC	??_R2CHudBase@@8				; CHudBase::`RTTI Base Class Array'
PUBLIC	??_R1A@?0A@EA@CHudBase@@8			; CHudBase::`RTTI Base Class Descriptor at (0,-1,0,64)'
PUBLIC	??_R4CHudAmmo@@6B@				; CHudAmmo::`RTTI Complete Object Locator'
PUBLIC	??_R0?AVCHudAmmo@@@8				; CHudAmmo `RTTI Type Descriptor'
PUBLIC	??_R3CHudAmmo@@8				; CHudAmmo::`RTTI Class Hierarchy Descriptor'
PUBLIC	??_R2CHudAmmo@@8				; CHudAmmo::`RTTI Base Class Array'
PUBLIC	??_R1A@?0A@EA@CHudAmmo@@8			; CHudAmmo::`RTTI Base Class Descriptor at (0,-1,0,64)'
PUBLIC	??_R4CHudAmmoSecondary@@6B@			; CHudAmmoSecondary::`RTTI Complete Object Locator'
PUBLIC	??_R0?AVCHudAmmoSecondary@@@8			; CHudAmmoSecondary `RTTI Type Descriptor'
PUBLIC	??_R3CHudAmmoSecondary@@8			; CHudAmmoSecondary::`RTTI Class Hierarchy Descriptor'
PUBLIC	??_R2CHudAmmoSecondary@@8			; CHudAmmoSecondary::`RTTI Base Class Array'
PUBLIC	??_R1A@?0A@EA@CHudAmmoSecondary@@8		; CHudAmmoSecondary::`RTTI Base Class Descriptor at (0,-1,0,64)'
PUBLIC	??_R4CHudHealth@@6B@				; CHudHealth::`RTTI Complete Object Locator'
PUBLIC	??_R0?AVCHudHealth@@@8				; CHudHealth `RTTI Type Descriptor'
PUBLIC	??_R3CHudHealth@@8				; CHudHealth::`RTTI Class Hierarchy Descriptor'
PUBLIC	??_R2CHudHealth@@8				; CHudHealth::`RTTI Base Class Array'
PUBLIC	??_R1A@?0A@EA@CHudHealth@@8			; CHudHealth::`RTTI Base Class Descriptor at (0,-1,0,64)'
PUBLIC	??_R4CHudGeiger@@6B@				; CHudGeiger::`RTTI Complete Object Locator'
PUBLIC	??_R0?AVCHudGeiger@@@8				; CHudGeiger `RTTI Type Descriptor'
PUBLIC	??_R3CHudGeiger@@8				; CHudGeiger::`RTTI Class Hierarchy Descriptor'
PUBLIC	??_R2CHudGeiger@@8				; CHudGeiger::`RTTI Base Class Array'
PUBLIC	??_R1A@?0A@EA@CHudGeiger@@8			; CHudGeiger::`RTTI Base Class Descriptor at (0,-1,0,64)'
PUBLIC	??_R4CHudLensflare@@6B@				; CHudLensflare::`RTTI Complete Object Locator'
PUBLIC	??_R0?AVCHudLensflare@@@8			; CHudLensflare `RTTI Type Descriptor'
PUBLIC	??_R3CHudLensflare@@8				; CHudLensflare::`RTTI Class Hierarchy Descriptor'
PUBLIC	??_R2CHudLensflare@@8				; CHudLensflare::`RTTI Base Class Array'
PUBLIC	??_R1A@?0A@EA@CHudLensflare@@8			; CHudLensflare::`RTTI Base Class Descriptor at (0,-1,0,64)'
PUBLIC	??_R4CHudTrain@@6B@				; CHudTrain::`RTTI Complete Object Locator'
PUBLIC	??_R0?AVCHudTrain@@@8				; CHudTrain `RTTI Type Descriptor'
PUBLIC	??_R3CHudTrain@@8				; CHudTrain::`RTTI Class Hierarchy Descriptor'
PUBLIC	??_R2CHudTrain@@8				; CHudTrain::`RTTI Base Class Array'
PUBLIC	??_R1A@?0A@EA@CHudTrain@@8			; CHudTrain::`RTTI Base Class Descriptor at (0,-1,0,64)'
PUBLIC	??_R4CHudMOTD@@6B@				; CHudMOTD::`RTTI Complete Object Locator'
PUBLIC	??_R0?AVCHudMOTD@@@8				; CHudMOTD `RTTI Type Descriptor'
PUBLIC	??_R3CHudMOTD@@8				; CHudMOTD::`RTTI Class Hierarchy Descriptor'
PUBLIC	??_R2CHudMOTD@@8				; CHudMOTD::`RTTI Base Class Array'
PUBLIC	??_R1A@?0A@EA@CHudMOTD@@8			; CHudMOTD::`RTTI Base Class Descriptor at (0,-1,0,64)'
PUBLIC	??_R4CHudScoreboard@@6B@			; CHudScoreboard::`RTTI Complete Object Locator'
PUBLIC	??_R0?AVCHudScoreboard@@@8			; CHudScoreboard `RTTI Type Descriptor'
PUBLIC	??_R3CHudScoreboard@@8				; CHudScoreboard::`RTTI Class Hierarchy Descriptor'
PUBLIC	??_R2CHudScoreboard@@8				; CHudScoreboard::`RTTI Base Class Array'
PUBLIC	??_R1A@?0A@EA@CHudScoreboard@@8			; CHudScoreboard::`RTTI Base Class Descriptor at (0,-1,0,64)'
PUBLIC	??_R4CHudStatusBar@@6B@				; CHudStatusBar::`RTTI Complete Object Locator'
PUBLIC	??_R0?AVCHudStatusBar@@@8			; CHudStatusBar `RTTI Type Descriptor'
PUBLIC	??_R3CHudStatusBar@@8				; CHudStatusBar::`RTTI Class Hierarchy Descriptor'
PUBLIC	??_R2CHudStatusBar@@8				; CHudStatusBar::`RTTI Base Class Array'
PUBLIC	??_R1A@?0A@EA@CHudStatusBar@@8			; CHudStatusBar::`RTTI Base Class Descriptor at (0,-1,0,64)'
PUBLIC	??_R4CHudDeathNotice@@6B@			; CHudDeathNotice::`RTTI Complete Object Locator'
PUBLIC	??_R0?AVCHudDeathNotice@@@8			; CHudDeathNotice `RTTI Type Descriptor'
PUBLIC	??_R3CHudDeathNotice@@8				; CHudDeathNotice::`RTTI Class Hierarchy Descriptor'
PUBLIC	??_R2CHudDeathNotice@@8				; CHudDeathNotice::`RTTI Base Class Array'
PUBLIC	??_R1A@?0A@EA@CHudDeathNotice@@8		; CHudDeathNotice::`RTTI Base Class Descriptor at (0,-1,0,64)'
PUBLIC	??_R4CHudMenu@@6B@				; CHudMenu::`RTTI Complete Object Locator'
PUBLIC	??_R0?AVCHudMenu@@@8				; CHudMenu `RTTI Type Descriptor'
PUBLIC	??_R3CHudMenu@@8				; CHudMenu::`RTTI Class Hierarchy Descriptor'
PUBLIC	??_R2CHudMenu@@8				; CHudMenu::`RTTI Base Class Array'
PUBLIC	??_R1A@?0A@EA@CHudMenu@@8			; CHudMenu::`RTTI Base Class Descriptor at (0,-1,0,64)'
PUBLIC	??_R4CHudSayText@@6B@				; CHudSayText::`RTTI Complete Object Locator'
PUBLIC	??_R0?AVCHudSayText@@@8				; CHudSayText `RTTI Type Descriptor'
PUBLIC	??_R3CHudSayText@@8				; CHudSayText::`RTTI Class Hierarchy Descriptor'
PUBLIC	??_R2CHudSayText@@8				; CHudSayText::`RTTI Base Class Array'
PUBLIC	??_R1A@?0A@EA@CHudSayText@@8			; CHudSayText::`RTTI Base Class Descriptor at (0,-1,0,64)'
PUBLIC	??_R4CHudFlashlight@@6B@			; CHudFlashlight::`RTTI Complete Object Locator'
PUBLIC	??_R0?AVCHudFlashlight@@@8			; CHudFlashlight `RTTI Type Descriptor'
PUBLIC	??_R3CHudFlashlight@@8				; CHudFlashlight::`RTTI Class Hierarchy Descriptor'
PUBLIC	??_R2CHudFlashlight@@8				; CHudFlashlight::`RTTI Base Class Array'
PUBLIC	??_R1A@?0A@EA@CHudFlashlight@@8			; CHudFlashlight::`RTTI Base Class Descriptor at (0,-1,0,64)'
PUBLIC	??_R4CHudStamina@@6B@				; CHudStamina::`RTTI Complete Object Locator'
PUBLIC	??_R0?AVCHudStamina@@@8				; CHudStamina `RTTI Type Descriptor'
PUBLIC	??_R3CHudStamina@@8				; CHudStamina::`RTTI Class Hierarchy Descriptor'
PUBLIC	??_R2CHudStamina@@8				; CHudStamina::`RTTI Base Class Array'
PUBLIC	??_R1A@?0A@EA@CHudStamina@@8			; CHudStamina::`RTTI Base Class Descriptor at (0,-1,0,64)'
PUBLIC	??_R4CHudHealthVisual@@6B@			; CHudHealthVisual::`RTTI Complete Object Locator'
PUBLIC	??_R0?AVCHudHealthVisual@@@8			; CHudHealthVisual `RTTI Type Descriptor'
PUBLIC	??_R3CHudHealthVisual@@8			; CHudHealthVisual::`RTTI Class Hierarchy Descriptor'
PUBLIC	??_R2CHudHealthVisual@@8			; CHudHealthVisual::`RTTI Base Class Array'
PUBLIC	??_R1A@?0A@EA@CHudHealthVisual@@8		; CHudHealthVisual::`RTTI Base Class Descriptor at (0,-1,0,64)'
PUBLIC	??_R4CHudTextMessage@@6B@			; CHudTextMessage::`RTTI Complete Object Locator'
PUBLIC	??_R0?AVCHudTextMessage@@@8			; CHudTextMessage `RTTI Type Descriptor'
PUBLIC	??_R3CHudTextMessage@@8				; CHudTextMessage::`RTTI Class Hierarchy Descriptor'
PUBLIC	??_R2CHudTextMessage@@8				; CHudTextMessage::`RTTI Base Class Array'
PUBLIC	??_R1A@?0A@EA@CHudTextMessage@@8		; CHudTextMessage::`RTTI Base Class Descriptor at (0,-1,0,64)'
PUBLIC	??_R4CHudMessage@@6B@				; CHudMessage::`RTTI Complete Object Locator'
PUBLIC	??_R0?AVCHudMessage@@@8				; CHudMessage `RTTI Type Descriptor'
PUBLIC	??_R3CHudMessage@@8				; CHudMessage::`RTTI Class Hierarchy Descriptor'
PUBLIC	??_R2CHudMessage@@8				; CHudMessage::`RTTI Base Class Array'
PUBLIC	??_R1A@?0A@EA@CHudMessage@@8			; CHudMessage::`RTTI Base Class Descriptor at (0,-1,0,64)'
PUBLIC	??_R4CHudStatusIcons@@6B@			; CHudStatusIcons::`RTTI Complete Object Locator'
PUBLIC	??_R0?AVCHudStatusIcons@@@8			; CHudStatusIcons `RTTI Type Descriptor'
PUBLIC	??_R3CHudStatusIcons@@8				; CHudStatusIcons::`RTTI Class Hierarchy Descriptor'
PUBLIC	??_R2CHudStatusIcons@@8				; CHudStatusIcons::`RTTI Base Class Array'
PUBLIC	??_R1A@?0A@EA@CHudStatusIcons@@8		; CHudStatusIcons::`RTTI Base Class Descriptor at (0,-1,0,64)'
PUBLIC	??_R4CHudTutorial@@6B@				; CHudTutorial::`RTTI Complete Object Locator'
PUBLIC	??_R0?AVCHudTutorial@@@8			; CHudTutorial `RTTI Type Descriptor'
PUBLIC	??_R3CHudTutorial@@8				; CHudTutorial::`RTTI Class Hierarchy Descriptor'
PUBLIC	??_R2CHudTutorial@@8				; CHudTutorial::`RTTI Base Class Array'
PUBLIC	??_R1A@?0A@EA@CHudTutorial@@8			; CHudTutorial::`RTTI Base Class Descriptor at (0,-1,0,64)'
PUBLIC	??_R4CHudAchievement@@6B@			; CHudAchievement::`RTTI Complete Object Locator'
PUBLIC	??_R0?AVCHudAchievement@@@8			; CHudAchievement `RTTI Type Descriptor'
PUBLIC	??_R3CHudAchievement@@8				; CHudAchievement::`RTTI Class Hierarchy Descriptor'
PUBLIC	??_R2CHudAchievement@@8				; CHudAchievement::`RTTI Base Class Array'
PUBLIC	??_R1A@?0A@EA@CHudAchievement@@8		; CHudAchievement::`RTTI Base Class Descriptor at (0,-1,0,64)'
PUBLIC	??_R4CHudCrosshairStatic@@6B@			; CHudCrosshairStatic::`RTTI Complete Object Locator'
PUBLIC	??_R0?AVCHudCrosshairStatic@@@8			; CHudCrosshairStatic `RTTI Type Descriptor'
PUBLIC	??_R3CHudCrosshairStatic@@8			; CHudCrosshairStatic::`RTTI Class Hierarchy Descriptor'
PUBLIC	??_R2CHudCrosshairStatic@@8			; CHudCrosshairStatic::`RTTI Base Class Array'
PUBLIC	??_R1A@?0A@EA@CHudCrosshairStatic@@8		; CHudCrosshairStatic::`RTTI Base Class Descriptor at (0,-1,0,64)'
PUBLIC	??_R4CZoom@@6B@					; CZoom::`RTTI Complete Object Locator'
PUBLIC	??_R0?AVCZoom@@@8				; CZoom `RTTI Type Descriptor'
PUBLIC	??_R3CZoom@@8					; CZoom::`RTTI Class Hierarchy Descriptor'
PUBLIC	??_R2CZoom@@8					; CZoom::`RTTI Base Class Array'
PUBLIC	??_R1A@?0A@EA@CZoom@@8				; CZoom::`RTTI Base Class Descriptor at (0,-1,0,64)'
PUBLIC	??_R4CHudBlastIcons@@6B@			; CHudBlastIcons::`RTTI Complete Object Locator'
PUBLIC	??_R0?AVCHudBlastIcons@@@8			; CHudBlastIcons `RTTI Type Descriptor'
PUBLIC	??_R3CHudBlastIcons@@8				; CHudBlastIcons::`RTTI Class Hierarchy Descriptor'
PUBLIC	??_R2CHudBlastIcons@@8				; CHudBlastIcons::`RTTI Base Class Array'
PUBLIC	??_R1A@?0A@EA@CHudBlastIcons@@8			; CHudBlastIcons::`RTTI Base Class Descriptor at (0,-1,0,64)'
PUBLIC	??_R4CHudCodeInput@@6B@				; CHudCodeInput::`RTTI Complete Object Locator'
PUBLIC	??_R0?AVCHudCodeInput@@@8			; CHudCodeInput `RTTI Type Descriptor'
PUBLIC	??_R3CHudCodeInput@@8				; CHudCodeInput::`RTTI Class Hierarchy Descriptor'
PUBLIC	??_R2CHudCodeInput@@8				; CHudCodeInput::`RTTI Base Class Array'
PUBLIC	??_R1A@?0A@EA@CHudCodeInput@@8			; CHudCodeInput::`RTTI Base Class Descriptor at (0,-1,0,64)'
PUBLIC	??_R4CScreenEffects@@6B@			; CScreenEffects::`RTTI Complete Object Locator'
PUBLIC	??_R0?AVCScreenEffects@@@8			; CScreenEffects `RTTI Type Descriptor'
PUBLIC	??_R3CScreenEffects@@8				; CScreenEffects::`RTTI Class Hierarchy Descriptor'
PUBLIC	??_R2CScreenEffects@@8				; CScreenEffects::`RTTI Base Class Array'
PUBLIC	??_R1A@?0A@EA@CScreenEffects@@8			; CScreenEffects::`RTTI Base Class Descriptor at (0,-1,0,64)'
PUBLIC	??_R4CHealthbars@@6B@				; CHealthbars::`RTTI Complete Object Locator'
PUBLIC	??_R0?AVCHealthbars@@@8				; CHealthbars `RTTI Type Descriptor'
PUBLIC	??_R3CHealthbars@@8				; CHealthbars::`RTTI Class Hierarchy Descriptor'
PUBLIC	??_R2CHealthbars@@8				; CHealthbars::`RTTI Base Class Array'
PUBLIC	??_R1A@?0A@EA@CHealthbars@@8			; CHealthbars::`RTTI Base Class Descriptor at (0,-1,0,64)'
PUBLIC	??_R4CUseIcon@@6B@				; CUseIcon::`RTTI Complete Object Locator'
PUBLIC	??_R0?AVCUseIcon@@@8				; CUseIcon `RTTI Type Descriptor'
PUBLIC	??_R3CUseIcon@@8				; CUseIcon::`RTTI Class Hierarchy Descriptor'
PUBLIC	??_R2CUseIcon@@8				; CUseIcon::`RTTI Base Class Array'
PUBLIC	??_R1A@?0A@EA@CUseIcon@@8			; CUseIcon::`RTTI Base Class Descriptor at (0,-1,0,64)'
PUBLIC	__real@41800000
PUBLIC	__real@41900000
PUBLIC	__real@42100000
PUBLIC	__real@c1800000
PUBLIC	__real@c1900000
PUBLIC	__real@c2100000
EXTRN	??2@YAPAXI@Z:PROC				; operator new
EXTRN	??3@YAXPAXI@Z:PROC				; operator delete
EXTRN	_atexit:PROC
EXTRN	_memcpy:PROC
EXTRN	__imp__GetActiveWindow@0:PROC
EXTRN	__imp__GetWindowRect@8:PROC
EXTRN	??_ECHudBase@@UAEPAXI@Z:PROC			; CHudBase::`vector deleting destructor'
EXTRN	?Init@CHudAmmo@@UAEHXZ:PROC			; CHudAmmo::Init
EXTRN	?VidInit@CHudAmmo@@UAEHXZ:PROC			; CHudAmmo::VidInit
EXTRN	?Draw@CHudAmmo@@UAEHM@Z:PROC			; CHudAmmo::Draw
EXTRN	?Think@CHudAmmo@@UAEXXZ:PROC			; CHudAmmo::Think
EXTRN	?Reset@CHudAmmo@@UAEXXZ:PROC			; CHudAmmo::Reset
EXTRN	??_ECHudAmmo@@UAEPAXI@Z:PROC			; CHudAmmo::`vector deleting destructor'
EXTRN	?Init@CHudAmmoSecondary@@UAEHXZ:PROC		; CHudAmmoSecondary::Init
EXTRN	?VidInit@CHudAmmoSecondary@@UAEHXZ:PROC		; CHudAmmoSecondary::VidInit
EXTRN	?Reset@CHudAmmoSecondary@@UAEXXZ:PROC		; CHudAmmoSecondary::Reset
EXTRN	?Draw@CHudAmmoSecondary@@UAEHM@Z:PROC		; CHudAmmoSecondary::Draw
EXTRN	??_ECHudAmmoSecondary@@UAEPAXI@Z:PROC		; CHudAmmoSecondary::`vector deleting destructor'
EXTRN	?Init@CHudHealth@@UAEHXZ:PROC			; CHudHealth::Init
EXTRN	?VidInit@CHudHealth@@UAEHXZ:PROC		; CHudHealth::VidInit
EXTRN	?Draw@CHudHealth@@UAEHM@Z:PROC			; CHudHealth::Draw
EXTRN	?Reset@CHudHealth@@UAEXXZ:PROC			; CHudHealth::Reset
EXTRN	??_ECHudHealth@@UAEPAXI@Z:PROC			; CHudHealth::`vector deleting destructor'
EXTRN	?Init@CHudGeiger@@UAEHXZ:PROC			; CHudGeiger::Init
EXTRN	?VidInit@CHudGeiger@@UAEHXZ:PROC		; CHudGeiger::VidInit
EXTRN	?Draw@CHudGeiger@@UAEHM@Z:PROC			; CHudGeiger::Draw
EXTRN	??_ECHudGeiger@@UAEPAXI@Z:PROC			; CHudGeiger::`vector deleting destructor'
EXTRN	?Init@CHudLensflare@@UAEHXZ:PROC		; CHudLensflare::Init
EXTRN	?VidInit@CHudLensflare@@UAEHXZ:PROC		; CHudLensflare::VidInit
EXTRN	?Draw@CHudLensflare@@UAEHM@Z:PROC		; CHudLensflare::Draw
EXTRN	??_ECHudLensflare@@UAEPAXI@Z:PROC		; CHudLensflare::`vector deleting destructor'
EXTRN	?Init@CHudTrain@@UAEHXZ:PROC			; CHudTrain::Init
EXTRN	?VidInit@CHudTrain@@UAEHXZ:PROC			; CHudTrain::VidInit
EXTRN	?Draw@CHudTrain@@UAEHM@Z:PROC			; CHudTrain::Draw
EXTRN	??_ECHudTrain@@UAEPAXI@Z:PROC			; CHudTrain::`vector deleting destructor'
EXTRN	?Init@CHudMOTD@@UAEHXZ:PROC			; CHudMOTD::Init
EXTRN	?VidInit@CHudMOTD@@UAEHXZ:PROC			; CHudMOTD::VidInit
EXTRN	?Draw@CHudMOTD@@UAEHM@Z:PROC			; CHudMOTD::Draw
EXTRN	?Reset@CHudMOTD@@UAEXXZ:PROC			; CHudMOTD::Reset
EXTRN	??_ECHudMOTD@@UAEPAXI@Z:PROC			; CHudMOTD::`vector deleting destructor'
EXTRN	?Init@CHudScoreboard@@UAEHXZ:PROC		; CHudScoreboard::Init
EXTRN	?InitHUDData@CHudScoreboard@@UAEXXZ:PROC	; CHudScoreboard::InitHUDData
EXTRN	?VidInit@CHudScoreboard@@UAEHXZ:PROC		; CHudScoreboard::VidInit
EXTRN	?Draw@CHudScoreboard@@UAEHM@Z:PROC		; CHudScoreboard::Draw
EXTRN	??_ECHudScoreboard@@UAEPAXI@Z:PROC		; CHudScoreboard::`vector deleting destructor'
EXTRN	?Init@CHudStatusBar@@UAEHXZ:PROC		; CHudStatusBar::Init
EXTRN	?VidInit@CHudStatusBar@@UAEHXZ:PROC		; CHudStatusBar::VidInit
EXTRN	?Draw@CHudStatusBar@@UAEHM@Z:PROC		; CHudStatusBar::Draw
EXTRN	?Reset@CHudStatusBar@@UAEXXZ:PROC		; CHudStatusBar::Reset
EXTRN	??_ECHudStatusBar@@UAEPAXI@Z:PROC		; CHudStatusBar::`vector deleting destructor'
EXTRN	?Init@CHudDeathNotice@@UAEHXZ:PROC		; CHudDeathNotice::Init
EXTRN	?InitHUDData@CHudDeathNotice@@UAEXXZ:PROC	; CHudDeathNotice::InitHUDData
EXTRN	?VidInit@CHudDeathNotice@@UAEHXZ:PROC		; CHudDeathNotice::VidInit
EXTRN	?Draw@CHudDeathNotice@@UAEHM@Z:PROC		; CHudDeathNotice::Draw
EXTRN	??_ECHudDeathNotice@@UAEPAXI@Z:PROC		; CHudDeathNotice::`vector deleting destructor'
EXTRN	?Init@CHudMenu@@UAEHXZ:PROC			; CHudMenu::Init
EXTRN	?InitHUDData@CHudMenu@@UAEXXZ:PROC		; CHudMenu::InitHUDData
EXTRN	?VidInit@CHudMenu@@UAEHXZ:PROC			; CHudMenu::VidInit
EXTRN	?Reset@CHudMenu@@UAEXXZ:PROC			; CHudMenu::Reset
EXTRN	?Draw@CHudMenu@@UAEHM@Z:PROC			; CHudMenu::Draw
EXTRN	??_ECHudMenu@@UAEPAXI@Z:PROC			; CHudMenu::`vector deleting destructor'
EXTRN	?Init@CHudSayText@@UAEHXZ:PROC			; CHudSayText::Init
EXTRN	?InitHUDData@CHudSayText@@UAEXXZ:PROC		; CHudSayText::InitHUDData
EXTRN	?VidInit@CHudSayText@@UAEHXZ:PROC		; CHudSayText::VidInit
EXTRN	?Draw@CHudSayText@@UAEHM@Z:PROC			; CHudSayText::Draw
EXTRN	??_ECHudSayText@@UAEPAXI@Z:PROC			; CHudSayText::`vector deleting destructor'
EXTRN	?Init@CHudFlashlight@@UAEHXZ:PROC		; CHudFlashlight::Init
EXTRN	?VidInit@CHudFlashlight@@UAEHXZ:PROC		; CHudFlashlight::VidInit
EXTRN	?Draw@CHudFlashlight@@UAEHM@Z:PROC		; CHudFlashlight::Draw
EXTRN	?Reset@CHudFlashlight@@UAEXXZ:PROC		; CHudFlashlight::Reset
EXTRN	??_ECHudFlashlight@@UAEPAXI@Z:PROC		; CHudFlashlight::`vector deleting destructor'
EXTRN	?Init@CHudStamina@@UAEHXZ:PROC			; CHudStamina::Init
EXTRN	?VidInit@CHudStamina@@UAEHXZ:PROC		; CHudStamina::VidInit
EXTRN	?Draw@CHudStamina@@UAEHM@Z:PROC			; CHudStamina::Draw
EXTRN	??_ECHudStamina@@UAEPAXI@Z:PROC			; CHudStamina::`vector deleting destructor'
EXTRN	?Init@CHudHealthVisual@@UAEHXZ:PROC		; CHudHealthVisual::Init
EXTRN	?VidInit@CHudHealthVisual@@UAEHXZ:PROC		; CHudHealthVisual::VidInit
EXTRN	?Draw@CHudHealthVisual@@UAEHM@Z:PROC		; CHudHealthVisual::Draw
EXTRN	??_ECHudHealthVisual@@UAEPAXI@Z:PROC		; CHudHealthVisual::`vector deleting destructor'
EXTRN	?Init@CHudTextMessage@@UAEHXZ:PROC		; CHudTextMessage::Init
EXTRN	??_ECHudTextMessage@@UAEPAXI@Z:PROC		; CHudTextMessage::`vector deleting destructor'
EXTRN	?Init@CHudMessage@@UAEHXZ:PROC			; CHudMessage::Init
EXTRN	?VidInit@CHudMessage@@UAEHXZ:PROC		; CHudMessage::VidInit
EXTRN	?Draw@CHudMessage@@UAEHM@Z:PROC			; CHudMessage::Draw
EXTRN	?Reset@CHudMessage@@UAEXXZ:PROC			; CHudMessage::Reset
EXTRN	??_ECHudMessage@@UAEPAXI@Z:PROC			; CHudMessage::`vector deleting destructor'
EXTRN	?Init@CHudStatusIcons@@UAEHXZ:PROC		; CHudStatusIcons::Init
EXTRN	?VidInit@CHudStatusIcons@@UAEHXZ:PROC		; CHudStatusIcons::VidInit
EXTRN	?Reset@CHudStatusIcons@@UAEXXZ:PROC		; CHudStatusIcons::Reset
EXTRN	?Draw@CHudStatusIcons@@UAEHM@Z:PROC		; CHudStatusIcons::Draw
EXTRN	??_ECHudStatusIcons@@UAEPAXI@Z:PROC		; CHudStatusIcons::`vector deleting destructor'
EXTRN	?Init@CHudTutorial@@UAEHXZ:PROC			; CHudTutorial::Init
EXTRN	?VidInit@CHudTutorial@@UAEHXZ:PROC		; CHudTutorial::VidInit
EXTRN	?Draw@CHudTutorial@@UAEHM@Z:PROC		; CHudTutorial::Draw
EXTRN	??_ECHudTutorial@@UAEPAXI@Z:PROC		; CHudTutorial::`vector deleting destructor'
EXTRN	?Init@CHudAchievement@@UAEHXZ:PROC		; CHudAchievement::Init
EXTRN	?VidInit@CHudAchievement@@UAEHXZ:PROC		; CHudAchievement::VidInit
EXTRN	?Draw@CHudAchievement@@UAEHM@Z:PROC		; CHudAchievement::Draw
EXTRN	?LoadAchievementFile@CHudAchievement@@QAEXXZ:PROC ; CHudAchievement::LoadAchievementFile
EXTRN	?SaveAchievementFile@CHudAchievement@@QAEXXZ:PROC ; CHudAchievement::SaveAchievementFile
EXTRN	??_ECHudAchievement@@UAEPAXI@Z:PROC		; CHudAchievement::`vector deleting destructor'
EXTRN	?Init@CHudCrosshairStatic@@UAEHXZ:PROC		; CHudCrosshairStatic::Init
EXTRN	?VidInit@CHudCrosshairStatic@@UAEHXZ:PROC	; CHudCrosshairStatic::VidInit
EXTRN	?Draw@CHudCrosshairStatic@@UAEHM@Z:PROC		; CHudCrosshairStatic::Draw
EXTRN	?Reset@CHudCrosshairStatic@@UAEXXZ:PROC		; CHudCrosshairStatic::Reset
EXTRN	??_ECHudCrosshairStatic@@UAEPAXI@Z:PROC		; CHudCrosshairStatic::`vector deleting destructor'
EXTRN	?Init@CZoom@@UAEHXZ:PROC			; CZoom::Init
EXTRN	?Think@CZoom@@UAEXXZ:PROC			; CZoom::Think
EXTRN	??_ECZoom@@UAEPAXI@Z:PROC			; CZoom::`vector deleting destructor'
EXTRN	?Init@CHudBlastIcons@@UAEHXZ:PROC		; CHudBlastIcons::Init
EXTRN	?VidInit@CHudBlastIcons@@UAEHXZ:PROC		; CHudBlastIcons::VidInit
EXTRN	?Draw@CHudBlastIcons@@UAEHM@Z:PROC		; CHudBlastIcons::Draw
EXTRN	??_ECHudBlastIcons@@UAEPAXI@Z:PROC		; CHudBlastIcons::`vector deleting destructor'
EXTRN	?Init@CHudCodeInput@@UAEHXZ:PROC		; CHudCodeInput::Init
EXTRN	?VidInit@CHudCodeInput@@UAEHXZ:PROC		; CHudCodeInput::VidInit
EXTRN	?Draw@CHudCodeInput@@UAEHM@Z:PROC		; CHudCodeInput::Draw
EXTRN	??_ECHudCodeInput@@UAEPAXI@Z:PROC		; CHudCodeInput::`vector deleting destructor'
EXTRN	?Init@CScreenEffects@@UAEHXZ:PROC		; CScreenEffects::Init
EXTRN	?VidInit@CScreenEffects@@UAEHXZ:PROC		; CScreenEffects::VidInit
EXTRN	?Draw@CScreenEffects@@UAEHM@Z:PROC		; CScreenEffects::Draw
EXTRN	??_ECScreenEffects@@UAEPAXI@Z:PROC		; CScreenEffects::`vector deleting destructor'
EXTRN	?Init@CHealthbars@@UAEHXZ:PROC			; CHealthbars::Init
EXTRN	?VidInit@CHealthbars@@UAEHXZ:PROC		; CHealthbars::VidInit
EXTRN	?Draw@CHealthbars@@UAEHM@Z:PROC			; CHealthbars::Draw
EXTRN	??_ECHealthbars@@UAEPAXI@Z:PROC			; CHealthbars::`vector deleting destructor'
EXTRN	?Init@CUseIcon@@UAEHXZ:PROC			; CUseIcon::Init
EXTRN	?VidInit@CUseIcon@@UAEHXZ:PROC			; CUseIcon::VidInit
EXTRN	?Draw@CUseIcon@@UAEHM@Z:PROC			; CUseIcon::Draw
EXTRN	??_ECUseIcon@@UAEPAXI@Z:PROC			; CUseIcon::`vector deleting destructor'
EXTRN	?Init@CHud@@QAEXXZ:PROC				; CHud::Init
EXTRN	?VidInit@CHud@@QAEXXZ:PROC			; CHud::VidInit
EXTRN	?Redraw@CHud@@QAEHMH@Z:PROC			; CHud::Redraw
EXTRN	?UpdateClientData@CHud@@QAEHPAUclient_data_s@@M@Z:PROC ; CHud::UpdateClientData
EXTRN	??1CHud@@QAE@XZ:PROC				; CHud::~CHud
EXTRN	?InitInput@@YAXXZ:PROC				; InitInput
EXTRN	?ShutdownInput@@YAXXZ:PROC			; ShutdownInput
EXTRN	?IN_ResetMouse@@YAXXZ:PROC			; IN_ResetMouse
EXTRN	?PM_Init@@YAXPAUplayermove_s@@@Z:PROC		; PM_Init
EXTRN	?PM_Move@@YAXPAUplayermove_s@@H@Z:PROC		; PM_Move
EXTRN	?PM_FindTextureType@@YADPAD@Z:PROC		; PM_FindTextureType
EXTRN	?R_Init@@YA_NXZ:PROC				; R_Init
EXTRN	?R_VidInit@@YAXXZ:PROC				; R_VidInit
EXTRN	?R_Shutdown@@YAXXZ:PROC				; R_Shutdown
EXTRN	??0CParticleSystemManager@@QAE@XZ:PROC		; CParticleSystemManager::CParticleSystemManager
EXTRN	??1CParticleSystemManager@@QAE@XZ:PROC		; CParticleSystemManager::~CParticleSystemManager
EXTRN	@__security_check_cookie@4:PROC
EXTRN	___CxxFrameHandler3:PROC
EXTRN	__ftol2_sse:PROC
EXTRN	?g_vecZero@@3VVector@@B:BYTE			; g_vecZero
EXTRN	?g_fRenderInitialized@@3HA:DWORD		; g_fRenderInitialized
EXTRN	?g_pParticleSystems@@3PAVCParticleSystemManager@@A:DWORD ; g_pParticleSystems
EXTRN	??_7type_info@@6B@:QWORD			; type_info::`vftable'
EXTRN	___security_cookie:DWORD
EXTRN	__fltused:DWORD
_BSS	SEGMENT
?gHUD@@3VCHud@@A DB 02320H DUP (?)			; gHUD
?extent@?1??VGUI_GetRect@@YAPAHXZ@4PAHA DD 04H DUP (?)	; `VGUI_GetRect'::`2'::extent
_BSS	ENDS
CRT$XCU	SEGMENT
?gHUD$initializer$@@3P6AXXZA DD FLAT:??__EgHUD@@YAXXZ	; gHUD$initializer$
CRT$XCU	ENDS
;	COMDAT __real@c2100000
CONST	SEGMENT
__real@c2100000 DD 0c2100000r			; -36
CONST	ENDS
;	COMDAT __real@c1900000
CONST	SEGMENT
__real@c1900000 DD 0c1900000r			; -18
CONST	ENDS
;	COMDAT __real@c1800000
CONST	SEGMENT
__real@c1800000 DD 0c1800000r			; -16
CONST	ENDS
;	COMDAT __real@42100000
CONST	SEGMENT
__real@42100000 DD 042100000r			; 36
CONST	ENDS
;	COMDAT __real@41900000
CONST	SEGMENT
__real@41900000 DD 041900000r			; 18
CONST	ENDS
;	COMDAT __real@41800000
CONST	SEGMENT
__real@41800000 DD 041800000r			; 16
CONST	ENDS
;	COMDAT ??_R1A@?0A@EA@CUseIcon@@8
rdata$r	SEGMENT
??_R1A@?0A@EA@CUseIcon@@8 DD FLAT:??_R0?AVCUseIcon@@@8	; CUseIcon::`RTTI Base Class Descriptor at (0,-1,0,64)'
	DD	01H
	DD	00H
	DD	0ffffffffH
	DD	00H
	DD	040H
	DD	FLAT:??_R3CUseIcon@@8
rdata$r	ENDS
;	COMDAT ??_R2CUseIcon@@8
rdata$r	SEGMENT
??_R2CUseIcon@@8 DD FLAT:??_R1A@?0A@EA@CUseIcon@@8	; CUseIcon::`RTTI Base Class Array'
	DD	FLAT:??_R1A@?0A@EA@CHudBase@@8
rdata$r	ENDS
;	COMDAT ??_R3CUseIcon@@8
rdata$r	SEGMENT
??_R3CUseIcon@@8 DD 00H					; CUseIcon::`RTTI Class Hierarchy Descriptor'
	DD	00H
	DD	02H
	DD	FLAT:??_R2CUseIcon@@8
rdata$r	ENDS
;	COMDAT ??_R0?AVCUseIcon@@@8
data$r	SEGMENT
??_R0?AVCUseIcon@@@8 DD FLAT:??_7type_info@@6B@		; CUseIcon `RTTI Type Descriptor'
	DD	00H
	DB	'.?AVCUseIcon@@', 00H
data$r	ENDS
;	COMDAT ??_R4CUseIcon@@6B@
rdata$r	SEGMENT
??_R4CUseIcon@@6B@ DD 00H				; CUseIcon::`RTTI Complete Object Locator'
	DD	00H
	DD	00H
	DD	FLAT:??_R0?AVCUseIcon@@@8
	DD	FLAT:??_R3CUseIcon@@8
rdata$r	ENDS
;	COMDAT ??_R1A@?0A@EA@CHealthbars@@8
rdata$r	SEGMENT
??_R1A@?0A@EA@CHealthbars@@8 DD FLAT:??_R0?AVCHealthbars@@@8 ; CHealthbars::`RTTI Base Class Descriptor at (0,-1,0,64)'
	DD	01H
	DD	00H
	DD	0ffffffffH
	DD	00H
	DD	040H
	DD	FLAT:??_R3CHealthbars@@8
rdata$r	ENDS
;	COMDAT ??_R2CHealthbars@@8
rdata$r	SEGMENT
??_R2CHealthbars@@8 DD FLAT:??_R1A@?0A@EA@CHealthbars@@8 ; CHealthbars::`RTTI Base Class Array'
	DD	FLAT:??_R1A@?0A@EA@CHudBase@@8
rdata$r	ENDS
;	COMDAT ??_R3CHealthbars@@8
rdata$r	SEGMENT
??_R3CHealthbars@@8 DD 00H				; CHealthbars::`RTTI Class Hierarchy Descriptor'
	DD	00H
	DD	02H
	DD	FLAT:??_R2CHealthbars@@8
rdata$r	ENDS
;	COMDAT ??_R0?AVCHealthbars@@@8
data$r	SEGMENT
??_R0?AVCHealthbars@@@8 DD FLAT:??_7type_info@@6B@	; CHealthbars `RTTI Type Descriptor'
	DD	00H
	DB	'.?AVCHealthbars@@', 00H
data$r	ENDS
;	COMDAT ??_R4CHealthbars@@6B@
rdata$r	SEGMENT
??_R4CHealthbars@@6B@ DD 00H				; CHealthbars::`RTTI Complete Object Locator'
	DD	00H
	DD	00H
	DD	FLAT:??_R0?AVCHealthbars@@@8
	DD	FLAT:??_R3CHealthbars@@8
rdata$r	ENDS
;	COMDAT ??_R1A@?0A@EA@CScreenEffects@@8
rdata$r	SEGMENT
??_R1A@?0A@EA@CScreenEffects@@8 DD FLAT:??_R0?AVCScreenEffects@@@8 ; CScreenEffects::`RTTI Base Class Descriptor at (0,-1,0,64)'
	DD	01H
	DD	00H
	DD	0ffffffffH
	DD	00H
	DD	040H
	DD	FLAT:??_R3CScreenEffects@@8
rdata$r	ENDS
;	COMDAT ??_R2CScreenEffects@@8
rdata$r	SEGMENT
??_R2CScreenEffects@@8 DD FLAT:??_R1A@?0A@EA@CScreenEffects@@8 ; CScreenEffects::`RTTI Base Class Array'
	DD	FLAT:??_R1A@?0A@EA@CHudBase@@8
rdata$r	ENDS
;	COMDAT ??_R3CScreenEffects@@8
rdata$r	SEGMENT
??_R3CScreenEffects@@8 DD 00H				; CScreenEffects::`RTTI Class Hierarchy Descriptor'
	DD	00H
	DD	02H
	DD	FLAT:??_R2CScreenEffects@@8
rdata$r	ENDS
;	COMDAT ??_R0?AVCScreenEffects@@@8
data$r	SEGMENT
??_R0?AVCScreenEffects@@@8 DD FLAT:??_7type_info@@6B@	; CScreenEffects `RTTI Type Descriptor'
	DD	00H
	DB	'.?AVCScreenEffects@@', 00H
data$r	ENDS
;	COMDAT ??_R4CScreenEffects@@6B@
rdata$r	SEGMENT
??_R4CScreenEffects@@6B@ DD 00H				; CScreenEffects::`RTTI Complete Object Locator'
	DD	00H
	DD	00H
	DD	FLAT:??_R0?AVCScreenEffects@@@8
	DD	FLAT:??_R3CScreenEffects@@8
rdata$r	ENDS
;	COMDAT ??_R1A@?0A@EA@CHudCodeInput@@8
rdata$r	SEGMENT
??_R1A@?0A@EA@CHudCodeInput@@8 DD FLAT:??_R0?AVCHudCodeInput@@@8 ; CHudCodeInput::`RTTI Base Class Descriptor at (0,-1,0,64)'
	DD	01H
	DD	00H
	DD	0ffffffffH
	DD	00H
	DD	040H
	DD	FLAT:??_R3CHudCodeInput@@8
rdata$r	ENDS
;	COMDAT ??_R2CHudCodeInput@@8
rdata$r	SEGMENT
??_R2CHudCodeInput@@8 DD FLAT:??_R1A@?0A@EA@CHudCodeInput@@8 ; CHudCodeInput::`RTTI Base Class Array'
	DD	FLAT:??_R1A@?0A@EA@CHudBase@@8
rdata$r	ENDS
;	COMDAT ??_R3CHudCodeInput@@8
rdata$r	SEGMENT
??_R3CHudCodeInput@@8 DD 00H				; CHudCodeInput::`RTTI Class Hierarchy Descriptor'
	DD	00H
	DD	02H
	DD	FLAT:??_R2CHudCodeInput@@8
rdata$r	ENDS
;	COMDAT ??_R0?AVCHudCodeInput@@@8
data$r	SEGMENT
??_R0?AVCHudCodeInput@@@8 DD FLAT:??_7type_info@@6B@	; CHudCodeInput `RTTI Type Descriptor'
	DD	00H
	DB	'.?AVCHudCodeInput@@', 00H
data$r	ENDS
;	COMDAT ??_R4CHudCodeInput@@6B@
rdata$r	SEGMENT
??_R4CHudCodeInput@@6B@ DD 00H				; CHudCodeInput::`RTTI Complete Object Locator'
	DD	00H
	DD	00H
	DD	FLAT:??_R0?AVCHudCodeInput@@@8
	DD	FLAT:??_R3CHudCodeInput@@8
rdata$r	ENDS
;	COMDAT ??_R1A@?0A@EA@CHudBlastIcons@@8
rdata$r	SEGMENT
??_R1A@?0A@EA@CHudBlastIcons@@8 DD FLAT:??_R0?AVCHudBlastIcons@@@8 ; CHudBlastIcons::`RTTI Base Class Descriptor at (0,-1,0,64)'
	DD	01H
	DD	00H
	DD	0ffffffffH
	DD	00H
	DD	040H
	DD	FLAT:??_R3CHudBlastIcons@@8
rdata$r	ENDS
;	COMDAT ??_R2CHudBlastIcons@@8
rdata$r	SEGMENT
??_R2CHudBlastIcons@@8 DD FLAT:??_R1A@?0A@EA@CHudBlastIcons@@8 ; CHudBlastIcons::`RTTI Base Class Array'
	DD	FLAT:??_R1A@?0A@EA@CHudBase@@8
rdata$r	ENDS
;	COMDAT ??_R3CHudBlastIcons@@8
rdata$r	SEGMENT
??_R3CHudBlastIcons@@8 DD 00H				; CHudBlastIcons::`RTTI Class Hierarchy Descriptor'
	DD	00H
	DD	02H
	DD	FLAT:??_R2CHudBlastIcons@@8
rdata$r	ENDS
;	COMDAT ??_R0?AVCHudBlastIcons@@@8
data$r	SEGMENT
??_R0?AVCHudBlastIcons@@@8 DD FLAT:??_7type_info@@6B@	; CHudBlastIcons `RTTI Type Descriptor'
	DD	00H
	DB	'.?AVCHudBlastIcons@@', 00H
data$r	ENDS
;	COMDAT ??_R4CHudBlastIcons@@6B@
rdata$r	SEGMENT
??_R4CHudBlastIcons@@6B@ DD 00H				; CHudBlastIcons::`RTTI Complete Object Locator'
	DD	00H
	DD	00H
	DD	FLAT:??_R0?AVCHudBlastIcons@@@8
	DD	FLAT:??_R3CHudBlastIcons@@8
rdata$r	ENDS
;	COMDAT ??_R1A@?0A@EA@CZoom@@8
rdata$r	SEGMENT
??_R1A@?0A@EA@CZoom@@8 DD FLAT:??_R0?AVCZoom@@@8	; CZoom::`RTTI Base Class Descriptor at (0,-1,0,64)'
	DD	01H
	DD	00H
	DD	0ffffffffH
	DD	00H
	DD	040H
	DD	FLAT:??_R3CZoom@@8
rdata$r	ENDS
;	COMDAT ??_R2CZoom@@8
rdata$r	SEGMENT
??_R2CZoom@@8 DD FLAT:??_R1A@?0A@EA@CZoom@@8		; CZoom::`RTTI Base Class Array'
	DD	FLAT:??_R1A@?0A@EA@CHudBase@@8
rdata$r	ENDS
;	COMDAT ??_R3CZoom@@8
rdata$r	SEGMENT
??_R3CZoom@@8 DD 00H					; CZoom::`RTTI Class Hierarchy Descriptor'
	DD	00H
	DD	02H
	DD	FLAT:??_R2CZoom@@8
rdata$r	ENDS
;	COMDAT ??_R0?AVCZoom@@@8
data$r	SEGMENT
??_R0?AVCZoom@@@8 DD FLAT:??_7type_info@@6B@		; CZoom `RTTI Type Descriptor'
	DD	00H
	DB	'.?AVCZoom@@', 00H
data$r	ENDS
;	COMDAT ??_R4CZoom@@6B@
rdata$r	SEGMENT
??_R4CZoom@@6B@ DD 00H					; CZoom::`RTTI Complete Object Locator'
	DD	00H
	DD	00H
	DD	FLAT:??_R0?AVCZoom@@@8
	DD	FLAT:??_R3CZoom@@8
rdata$r	ENDS
;	COMDAT ??_R1A@?0A@EA@CHudCrosshairStatic@@8
rdata$r	SEGMENT
??_R1A@?0A@EA@CHudCrosshairStatic@@8 DD FLAT:??_R0?AVCHudCrosshairStatic@@@8 ; CHudCrosshairStatic::`RTTI Base Class Descriptor at (0,-1,0,64)'
	DD	01H
	DD	00H
	DD	0ffffffffH
	DD	00H
	DD	040H
	DD	FLAT:??_R3CHudCrosshairStatic@@8
rdata$r	ENDS
;	COMDAT ??_R2CHudCrosshairStatic@@8
rdata$r	SEGMENT
??_R2CHudCrosshairStatic@@8 DD FLAT:??_R1A@?0A@EA@CHudCrosshairStatic@@8 ; CHudCrosshairStatic::`RTTI Base Class Array'
	DD	FLAT:??_R1A@?0A@EA@CHudBase@@8
rdata$r	ENDS
;	COMDAT ??_R3CHudCrosshairStatic@@8
rdata$r	SEGMENT
??_R3CHudCrosshairStatic@@8 DD 00H			; CHudCrosshairStatic::`RTTI Class Hierarchy Descriptor'
	DD	00H
	DD	02H
	DD	FLAT:??_R2CHudCrosshairStatic@@8
rdata$r	ENDS
;	COMDAT ??_R0?AVCHudCrosshairStatic@@@8
data$r	SEGMENT
??_R0?AVCHudCrosshairStatic@@@8 DD FLAT:??_7type_info@@6B@ ; CHudCrosshairStatic `RTTI Type Descriptor'
	DD	00H
	DB	'.?AVCHudCrosshairStatic@@', 00H
data$r	ENDS
;	COMDAT ??_R4CHudCrosshairStatic@@6B@
rdata$r	SEGMENT
??_R4CHudCrosshairStatic@@6B@ DD 00H			; CHudCrosshairStatic::`RTTI Complete Object Locator'
	DD	00H
	DD	00H
	DD	FLAT:??_R0?AVCHudCrosshairStatic@@@8
	DD	FLAT:??_R3CHudCrosshairStatic@@8
rdata$r	ENDS
;	COMDAT ??_R1A@?0A@EA@CHudAchievement@@8
rdata$r	SEGMENT
??_R1A@?0A@EA@CHudAchievement@@8 DD FLAT:??_R0?AVCHudAchievement@@@8 ; CHudAchievement::`RTTI Base Class Descriptor at (0,-1,0,64)'
	DD	01H
	DD	00H
	DD	0ffffffffH
	DD	00H
	DD	040H
	DD	FLAT:??_R3CHudAchievement@@8
rdata$r	ENDS
;	COMDAT ??_R2CHudAchievement@@8
rdata$r	SEGMENT
??_R2CHudAchievement@@8 DD FLAT:??_R1A@?0A@EA@CHudAchievement@@8 ; CHudAchievement::`RTTI Base Class Array'
	DD	FLAT:??_R1A@?0A@EA@CHudBase@@8
rdata$r	ENDS
;	COMDAT ??_R3CHudAchievement@@8
rdata$r	SEGMENT
??_R3CHudAchievement@@8 DD 00H				; CHudAchievement::`RTTI Class Hierarchy Descriptor'
	DD	00H
	DD	02H
	DD	FLAT:??_R2CHudAchievement@@8
rdata$r	ENDS
;	COMDAT ??_R0?AVCHudAchievement@@@8
data$r	SEGMENT
??_R0?AVCHudAchievement@@@8 DD FLAT:??_7type_info@@6B@	; CHudAchievement `RTTI Type Descriptor'
	DD	00H
	DB	'.?AVCHudAchievement@@', 00H
data$r	ENDS
;	COMDAT ??_R4CHudAchievement@@6B@
rdata$r	SEGMENT
??_R4CHudAchievement@@6B@ DD 00H			; CHudAchievement::`RTTI Complete Object Locator'
	DD	00H
	DD	00H
	DD	FLAT:??_R0?AVCHudAchievement@@@8
	DD	FLAT:??_R3CHudAchievement@@8
rdata$r	ENDS
;	COMDAT ??_R1A@?0A@EA@CHudTutorial@@8
rdata$r	SEGMENT
??_R1A@?0A@EA@CHudTutorial@@8 DD FLAT:??_R0?AVCHudTutorial@@@8 ; CHudTutorial::`RTTI Base Class Descriptor at (0,-1,0,64)'
	DD	01H
	DD	00H
	DD	0ffffffffH
	DD	00H
	DD	040H
	DD	FLAT:??_R3CHudTutorial@@8
rdata$r	ENDS
;	COMDAT ??_R2CHudTutorial@@8
rdata$r	SEGMENT
??_R2CHudTutorial@@8 DD FLAT:??_R1A@?0A@EA@CHudTutorial@@8 ; CHudTutorial::`RTTI Base Class Array'
	DD	FLAT:??_R1A@?0A@EA@CHudBase@@8
rdata$r	ENDS
;	COMDAT ??_R3CHudTutorial@@8
rdata$r	SEGMENT
??_R3CHudTutorial@@8 DD 00H				; CHudTutorial::`RTTI Class Hierarchy Descriptor'
	DD	00H
	DD	02H
	DD	FLAT:??_R2CHudTutorial@@8
rdata$r	ENDS
;	COMDAT ??_R0?AVCHudTutorial@@@8
data$r	SEGMENT
??_R0?AVCHudTutorial@@@8 DD FLAT:??_7type_info@@6B@	; CHudTutorial `RTTI Type Descriptor'
	DD	00H
	DB	'.?AVCHudTutorial@@', 00H
data$r	ENDS
;	COMDAT ??_R4CHudTutorial@@6B@
rdata$r	SEGMENT
??_R4CHudTutorial@@6B@ DD 00H				; CHudTutorial::`RTTI Complete Object Locator'
	DD	00H
	DD	00H
	DD	FLAT:??_R0?AVCHudTutorial@@@8
	DD	FLAT:??_R3CHudTutorial@@8
rdata$r	ENDS
;	COMDAT ??_R1A@?0A@EA@CHudStatusIcons@@8
rdata$r	SEGMENT
??_R1A@?0A@EA@CHudStatusIcons@@8 DD FLAT:??_R0?AVCHudStatusIcons@@@8 ; CHudStatusIcons::`RTTI Base Class Descriptor at (0,-1,0,64)'
	DD	01H
	DD	00H
	DD	0ffffffffH
	DD	00H
	DD	040H
	DD	FLAT:??_R3CHudStatusIcons@@8
rdata$r	ENDS
;	COMDAT ??_R2CHudStatusIcons@@8
rdata$r	SEGMENT
??_R2CHudStatusIcons@@8 DD FLAT:??_R1A@?0A@EA@CHudStatusIcons@@8 ; CHudStatusIcons::`RTTI Base Class Array'
	DD	FLAT:??_R1A@?0A@EA@CHudBase@@8
rdata$r	ENDS
;	COMDAT ??_R3CHudStatusIcons@@8
rdata$r	SEGMENT
??_R3CHudStatusIcons@@8 DD 00H				; CHudStatusIcons::`RTTI Class Hierarchy Descriptor'
	DD	00H
	DD	02H
	DD	FLAT:??_R2CHudStatusIcons@@8
rdata$r	ENDS
;	COMDAT ??_R0?AVCHudStatusIcons@@@8
data$r	SEGMENT
??_R0?AVCHudStatusIcons@@@8 DD FLAT:??_7type_info@@6B@	; CHudStatusIcons `RTTI Type Descriptor'
	DD	00H
	DB	'.?AVCHudStatusIcons@@', 00H
data$r	ENDS
;	COMDAT ??_R4CHudStatusIcons@@6B@
rdata$r	SEGMENT
??_R4CHudStatusIcons@@6B@ DD 00H			; CHudStatusIcons::`RTTI Complete Object Locator'
	DD	00H
	DD	00H
	DD	FLAT:??_R0?AVCHudStatusIcons@@@8
	DD	FLAT:??_R3CHudStatusIcons@@8
rdata$r	ENDS
;	COMDAT ??_R1A@?0A@EA@CHudMessage@@8
rdata$r	SEGMENT
??_R1A@?0A@EA@CHudMessage@@8 DD FLAT:??_R0?AVCHudMessage@@@8 ; CHudMessage::`RTTI Base Class Descriptor at (0,-1,0,64)'
	DD	01H
	DD	00H
	DD	0ffffffffH
	DD	00H
	DD	040H
	DD	FLAT:??_R3CHudMessage@@8
rdata$r	ENDS
;	COMDAT ??_R2CHudMessage@@8
rdata$r	SEGMENT
??_R2CHudMessage@@8 DD FLAT:??_R1A@?0A@EA@CHudMessage@@8 ; CHudMessage::`RTTI Base Class Array'
	DD	FLAT:??_R1A@?0A@EA@CHudBase@@8
rdata$r	ENDS
;	COMDAT ??_R3CHudMessage@@8
rdata$r	SEGMENT
??_R3CHudMessage@@8 DD 00H				; CHudMessage::`RTTI Class Hierarchy Descriptor'
	DD	00H
	DD	02H
	DD	FLAT:??_R2CHudMessage@@8
rdata$r	ENDS
;	COMDAT ??_R0?AVCHudMessage@@@8
data$r	SEGMENT
??_R0?AVCHudMessage@@@8 DD FLAT:??_7type_info@@6B@	; CHudMessage `RTTI Type Descriptor'
	DD	00H
	DB	'.?AVCHudMessage@@', 00H
data$r	ENDS
;	COMDAT ??_R4CHudMessage@@6B@
rdata$r	SEGMENT
??_R4CHudMessage@@6B@ DD 00H				; CHudMessage::`RTTI Complete Object Locator'
	DD	00H
	DD	00H
	DD	FLAT:??_R0?AVCHudMessage@@@8
	DD	FLAT:??_R3CHudMessage@@8
rdata$r	ENDS
;	COMDAT ??_R1A@?0A@EA@CHudTextMessage@@8
rdata$r	SEGMENT
??_R1A@?0A@EA@CHudTextMessage@@8 DD FLAT:??_R0?AVCHudTextMessage@@@8 ; CHudTextMessage::`RTTI Base Class Descriptor at (0,-1,0,64)'
	DD	01H
	DD	00H
	DD	0ffffffffH
	DD	00H
	DD	040H
	DD	FLAT:??_R3CHudTextMessage@@8
rdata$r	ENDS
;	COMDAT ??_R2CHudTextMessage@@8
rdata$r	SEGMENT
??_R2CHudTextMessage@@8 DD FLAT:??_R1A@?0A@EA@CHudTextMessage@@8 ; CHudTextMessage::`RTTI Base Class Array'
	DD	FLAT:??_R1A@?0A@EA@CHudBase@@8
rdata$r	ENDS
;	COMDAT ??_R3CHudTextMessage@@8
rdata$r	SEGMENT
??_R3CHudTextMessage@@8 DD 00H				; CHudTextMessage::`RTTI Class Hierarchy Descriptor'
	DD	00H
	DD	02H
	DD	FLAT:??_R2CHudTextMessage@@8
rdata$r	ENDS
;	COMDAT ??_R0?AVCHudTextMessage@@@8
data$r	SEGMENT
??_R0?AVCHudTextMessage@@@8 DD FLAT:??_7type_info@@6B@	; CHudTextMessage `RTTI Type Descriptor'
	DD	00H
	DB	'.?AVCHudTextMessage@@', 00H
data$r	ENDS
;	COMDAT ??_R4CHudTextMessage@@6B@
rdata$r	SEGMENT
??_R4CHudTextMessage@@6B@ DD 00H			; CHudTextMessage::`RTTI Complete Object Locator'
	DD	00H
	DD	00H
	DD	FLAT:??_R0?AVCHudTextMessage@@@8
	DD	FLAT:??_R3CHudTextMessage@@8
rdata$r	ENDS
;	COMDAT ??_R1A@?0A@EA@CHudHealthVisual@@8
rdata$r	SEGMENT
??_R1A@?0A@EA@CHudHealthVisual@@8 DD FLAT:??_R0?AVCHudHealthVisual@@@8 ; CHudHealthVisual::`RTTI Base Class Descriptor at (0,-1,0,64)'
	DD	01H
	DD	00H
	DD	0ffffffffH
	DD	00H
	DD	040H
	DD	FLAT:??_R3CHudHealthVisual@@8
rdata$r	ENDS
;	COMDAT ??_R2CHudHealthVisual@@8
rdata$r	SEGMENT
??_R2CHudHealthVisual@@8 DD FLAT:??_R1A@?0A@EA@CHudHealthVisual@@8 ; CHudHealthVisual::`RTTI Base Class Array'
	DD	FLAT:??_R1A@?0A@EA@CHudBase@@8
rdata$r	ENDS
;	COMDAT ??_R3CHudHealthVisual@@8
rdata$r	SEGMENT
??_R3CHudHealthVisual@@8 DD 00H				; CHudHealthVisual::`RTTI Class Hierarchy Descriptor'
	DD	00H
	DD	02H
	DD	FLAT:??_R2CHudHealthVisual@@8
rdata$r	ENDS
;	COMDAT ??_R0?AVCHudHealthVisual@@@8
data$r	SEGMENT
??_R0?AVCHudHealthVisual@@@8 DD FLAT:??_7type_info@@6B@	; CHudHealthVisual `RTTI Type Descriptor'
	DD	00H
	DB	'.?AVCHudHealthVisual@@', 00H
data$r	ENDS
;	COMDAT ??_R4CHudHealthVisual@@6B@
rdata$r	SEGMENT
??_R4CHudHealthVisual@@6B@ DD 00H			; CHudHealthVisual::`RTTI Complete Object Locator'
	DD	00H
	DD	00H
	DD	FLAT:??_R0?AVCHudHealthVisual@@@8
	DD	FLAT:??_R3CHudHealthVisual@@8
rdata$r	ENDS
;	COMDAT ??_R1A@?0A@EA@CHudStamina@@8
rdata$r	SEGMENT
??_R1A@?0A@EA@CHudStamina@@8 DD FLAT:??_R0?AVCHudStamina@@@8 ; CHudStamina::`RTTI Base Class Descriptor at (0,-1,0,64)'
	DD	01H
	DD	00H
	DD	0ffffffffH
	DD	00H
	DD	040H
	DD	FLAT:??_R3CHudStamina@@8
rdata$r	ENDS
;	COMDAT ??_R2CHudStamina@@8
rdata$r	SEGMENT
??_R2CHudStamina@@8 DD FLAT:??_R1A@?0A@EA@CHudStamina@@8 ; CHudStamina::`RTTI Base Class Array'
	DD	FLAT:??_R1A@?0A@EA@CHudBase@@8
rdata$r	ENDS
;	COMDAT ??_R3CHudStamina@@8
rdata$r	SEGMENT
??_R3CHudStamina@@8 DD 00H				; CHudStamina::`RTTI Class Hierarchy Descriptor'
	DD	00H
	DD	02H
	DD	FLAT:??_R2CHudStamina@@8
rdata$r	ENDS
;	COMDAT ??_R0?AVCHudStamina@@@8
data$r	SEGMENT
??_R0?AVCHudStamina@@@8 DD FLAT:??_7type_info@@6B@	; CHudStamina `RTTI Type Descriptor'
	DD	00H
	DB	'.?AVCHudStamina@@', 00H
data$r	ENDS
;	COMDAT ??_R4CHudStamina@@6B@
rdata$r	SEGMENT
??_R4CHudStamina@@6B@ DD 00H				; CHudStamina::`RTTI Complete Object Locator'
	DD	00H
	DD	00H
	DD	FLAT:??_R0?AVCHudStamina@@@8
	DD	FLAT:??_R3CHudStamina@@8
rdata$r	ENDS
;	COMDAT ??_R1A@?0A@EA@CHudFlashlight@@8
rdata$r	SEGMENT
??_R1A@?0A@EA@CHudFlashlight@@8 DD FLAT:??_R0?AVCHudFlashlight@@@8 ; CHudFlashlight::`RTTI Base Class Descriptor at (0,-1,0,64)'
	DD	01H
	DD	00H
	DD	0ffffffffH
	DD	00H
	DD	040H
	DD	FLAT:??_R3CHudFlashlight@@8
rdata$r	ENDS
;	COMDAT ??_R2CHudFlashlight@@8
rdata$r	SEGMENT
??_R2CHudFlashlight@@8 DD FLAT:??_R1A@?0A@EA@CHudFlashlight@@8 ; CHudFlashlight::`RTTI Base Class Array'
	DD	FLAT:??_R1A@?0A@EA@CHudBase@@8
rdata$r	ENDS
;	COMDAT ??_R3CHudFlashlight@@8
rdata$r	SEGMENT
??_R3CHudFlashlight@@8 DD 00H				; CHudFlashlight::`RTTI Class Hierarchy Descriptor'
	DD	00H
	DD	02H
	DD	FLAT:??_R2CHudFlashlight@@8
rdata$r	ENDS
;	COMDAT ??_R0?AVCHudFlashlight@@@8
data$r	SEGMENT
??_R0?AVCHudFlashlight@@@8 DD FLAT:??_7type_info@@6B@	; CHudFlashlight `RTTI Type Descriptor'
	DD	00H
	DB	'.?AVCHudFlashlight@@', 00H
data$r	ENDS
;	COMDAT ??_R4CHudFlashlight@@6B@
rdata$r	SEGMENT
??_R4CHudFlashlight@@6B@ DD 00H				; CHudFlashlight::`RTTI Complete Object Locator'
	DD	00H
	DD	00H
	DD	FLAT:??_R0?AVCHudFlashlight@@@8
	DD	FLAT:??_R3CHudFlashlight@@8
rdata$r	ENDS
;	COMDAT ??_R1A@?0A@EA@CHudSayText@@8
rdata$r	SEGMENT
??_R1A@?0A@EA@CHudSayText@@8 DD FLAT:??_R0?AVCHudSayText@@@8 ; CHudSayText::`RTTI Base Class Descriptor at (0,-1,0,64)'
	DD	01H
	DD	00H
	DD	0ffffffffH
	DD	00H
	DD	040H
	DD	FLAT:??_R3CHudSayText@@8
rdata$r	ENDS
;	COMDAT ??_R2CHudSayText@@8
rdata$r	SEGMENT
??_R2CHudSayText@@8 DD FLAT:??_R1A@?0A@EA@CHudSayText@@8 ; CHudSayText::`RTTI Base Class Array'
	DD	FLAT:??_R1A@?0A@EA@CHudBase@@8
rdata$r	ENDS
;	COMDAT ??_R3CHudSayText@@8
rdata$r	SEGMENT
??_R3CHudSayText@@8 DD 00H				; CHudSayText::`RTTI Class Hierarchy Descriptor'
	DD	00H
	DD	02H
	DD	FLAT:??_R2CHudSayText@@8
rdata$r	ENDS
;	COMDAT ??_R0?AVCHudSayText@@@8
data$r	SEGMENT
??_R0?AVCHudSayText@@@8 DD FLAT:??_7type_info@@6B@	; CHudSayText `RTTI Type Descriptor'
	DD	00H
	DB	'.?AVCHudSayText@@', 00H
data$r	ENDS
;	COMDAT ??_R4CHudSayText@@6B@
rdata$r	SEGMENT
??_R4CHudSayText@@6B@ DD 00H				; CHudSayText::`RTTI Complete Object Locator'
	DD	00H
	DD	00H
	DD	FLAT:??_R0?AVCHudSayText@@@8
	DD	FLAT:??_R3CHudSayText@@8
rdata$r	ENDS
;	COMDAT ??_R1A@?0A@EA@CHudMenu@@8
rdata$r	SEGMENT
??_R1A@?0A@EA@CHudMenu@@8 DD FLAT:??_R0?AVCHudMenu@@@8	; CHudMenu::`RTTI Base Class Descriptor at (0,-1,0,64)'
	DD	01H
	DD	00H
	DD	0ffffffffH
	DD	00H
	DD	040H
	DD	FLAT:??_R3CHudMenu@@8
rdata$r	ENDS
;	COMDAT ??_R2CHudMenu@@8
rdata$r	SEGMENT
??_R2CHudMenu@@8 DD FLAT:??_R1A@?0A@EA@CHudMenu@@8	; CHudMenu::`RTTI Base Class Array'
	DD	FLAT:??_R1A@?0A@EA@CHudBase@@8
rdata$r	ENDS
;	COMDAT ??_R3CHudMenu@@8
rdata$r	SEGMENT
??_R3CHudMenu@@8 DD 00H					; CHudMenu::`RTTI Class Hierarchy Descriptor'
	DD	00H
	DD	02H
	DD	FLAT:??_R2CHudMenu@@8
rdata$r	ENDS
;	COMDAT ??_R0?AVCHudMenu@@@8
data$r	SEGMENT
??_R0?AVCHudMenu@@@8 DD FLAT:??_7type_info@@6B@		; CHudMenu `RTTI Type Descriptor'
	DD	00H
	DB	'.?AVCHudMenu@@', 00H
data$r	ENDS
;	COMDAT ??_R4CHudMenu@@6B@
rdata$r	SEGMENT
??_R4CHudMenu@@6B@ DD 00H				; CHudMenu::`RTTI Complete Object Locator'
	DD	00H
	DD	00H
	DD	FLAT:??_R0?AVCHudMenu@@@8
	DD	FLAT:??_R3CHudMenu@@8
rdata$r	ENDS
;	COMDAT ??_R1A@?0A@EA@CHudDeathNotice@@8
rdata$r	SEGMENT
??_R1A@?0A@EA@CHudDeathNotice@@8 DD FLAT:??_R0?AVCHudDeathNotice@@@8 ; CHudDeathNotice::`RTTI Base Class Descriptor at (0,-1,0,64)'
	DD	01H
	DD	00H
	DD	0ffffffffH
	DD	00H
	DD	040H
	DD	FLAT:??_R3CHudDeathNotice@@8
rdata$r	ENDS
;	COMDAT ??_R2CHudDeathNotice@@8
rdata$r	SEGMENT
??_R2CHudDeathNotice@@8 DD FLAT:??_R1A@?0A@EA@CHudDeathNotice@@8 ; CHudDeathNotice::`RTTI Base Class Array'
	DD	FLAT:??_R1A@?0A@EA@CHudBase@@8
rdata$r	ENDS
;	COMDAT ??_R3CHudDeathNotice@@8
rdata$r	SEGMENT
??_R3CHudDeathNotice@@8 DD 00H				; CHudDeathNotice::`RTTI Class Hierarchy Descriptor'
	DD	00H
	DD	02H
	DD	FLAT:??_R2CHudDeathNotice@@8
rdata$r	ENDS
;	COMDAT ??_R0?AVCHudDeathNotice@@@8
data$r	SEGMENT
??_R0?AVCHudDeathNotice@@@8 DD FLAT:??_7type_info@@6B@	; CHudDeathNotice `RTTI Type Descriptor'
	DD	00H
	DB	'.?AVCHudDeathNotice@@', 00H
data$r	ENDS
;	COMDAT ??_R4CHudDeathNotice@@6B@
rdata$r	SEGMENT
??_R4CHudDeathNotice@@6B@ DD 00H			; CHudDeathNotice::`RTTI Complete Object Locator'
	DD	00H
	DD	00H
	DD	FLAT:??_R0?AVCHudDeathNotice@@@8
	DD	FLAT:??_R3CHudDeathNotice@@8
rdata$r	ENDS
;	COMDAT ??_R1A@?0A@EA@CHudStatusBar@@8
rdata$r	SEGMENT
??_R1A@?0A@EA@CHudStatusBar@@8 DD FLAT:??_R0?AVCHudStatusBar@@@8 ; CHudStatusBar::`RTTI Base Class Descriptor at (0,-1,0,64)'
	DD	01H
	DD	00H
	DD	0ffffffffH
	DD	00H
	DD	040H
	DD	FLAT:??_R3CHudStatusBar@@8
rdata$r	ENDS
;	COMDAT ??_R2CHudStatusBar@@8
rdata$r	SEGMENT
??_R2CHudStatusBar@@8 DD FLAT:??_R1A@?0A@EA@CHudStatusBar@@8 ; CHudStatusBar::`RTTI Base Class Array'
	DD	FLAT:??_R1A@?0A@EA@CHudBase@@8
rdata$r	ENDS
;	COMDAT ??_R3CHudStatusBar@@8
rdata$r	SEGMENT
??_R3CHudStatusBar@@8 DD 00H				; CHudStatusBar::`RTTI Class Hierarchy Descriptor'
	DD	00H
	DD	02H
	DD	FLAT:??_R2CHudStatusBar@@8
rdata$r	ENDS
;	COMDAT ??_R0?AVCHudStatusBar@@@8
data$r	SEGMENT
??_R0?AVCHudStatusBar@@@8 DD FLAT:??_7type_info@@6B@	; CHudStatusBar `RTTI Type Descriptor'
	DD	00H
	DB	'.?AVCHudStatusBar@@', 00H
data$r	ENDS
;	COMDAT ??_R4CHudStatusBar@@6B@
rdata$r	SEGMENT
??_R4CHudStatusBar@@6B@ DD 00H				; CHudStatusBar::`RTTI Complete Object Locator'
	DD	00H
	DD	00H
	DD	FLAT:??_R0?AVCHudStatusBar@@@8
	DD	FLAT:??_R3CHudStatusBar@@8
rdata$r	ENDS
;	COMDAT ??_R1A@?0A@EA@CHudScoreboard@@8
rdata$r	SEGMENT
??_R1A@?0A@EA@CHudScoreboard@@8 DD FLAT:??_R0?AVCHudScoreboard@@@8 ; CHudScoreboard::`RTTI Base Class Descriptor at (0,-1,0,64)'
	DD	01H
	DD	00H
	DD	0ffffffffH
	DD	00H
	DD	040H
	DD	FLAT:??_R3CHudScoreboard@@8
rdata$r	ENDS
;	COMDAT ??_R2CHudScoreboard@@8
rdata$r	SEGMENT
??_R2CHudScoreboard@@8 DD FLAT:??_R1A@?0A@EA@CHudScoreboard@@8 ; CHudScoreboard::`RTTI Base Class Array'
	DD	FLAT:??_R1A@?0A@EA@CHudBase@@8
rdata$r	ENDS
;	COMDAT ??_R3CHudScoreboard@@8
rdata$r	SEGMENT
??_R3CHudScoreboard@@8 DD 00H				; CHudScoreboard::`RTTI Class Hierarchy Descriptor'
	DD	00H
	DD	02H
	DD	FLAT:??_R2CHudScoreboard@@8
rdata$r	ENDS
;	COMDAT ??_R0?AVCHudScoreboard@@@8
data$r	SEGMENT
??_R0?AVCHudScoreboard@@@8 DD FLAT:??_7type_info@@6B@	; CHudScoreboard `RTTI Type Descriptor'
	DD	00H
	DB	'.?AVCHudScoreboard@@', 00H
data$r	ENDS
;	COMDAT ??_R4CHudScoreboard@@6B@
rdata$r	SEGMENT
??_R4CHudScoreboard@@6B@ DD 00H				; CHudScoreboard::`RTTI Complete Object Locator'
	DD	00H
	DD	00H
	DD	FLAT:??_R0?AVCHudScoreboard@@@8
	DD	FLAT:??_R3CHudScoreboard@@8
rdata$r	ENDS
;	COMDAT ??_R1A@?0A@EA@CHudMOTD@@8
rdata$r	SEGMENT
??_R1A@?0A@EA@CHudMOTD@@8 DD FLAT:??_R0?AVCHudMOTD@@@8	; CHudMOTD::`RTTI Base Class Descriptor at (0,-1,0,64)'
	DD	01H
	DD	00H
	DD	0ffffffffH
	DD	00H
	DD	040H
	DD	FLAT:??_R3CHudMOTD@@8
rdata$r	ENDS
;	COMDAT ??_R2CHudMOTD@@8
rdata$r	SEGMENT
??_R2CHudMOTD@@8 DD FLAT:??_R1A@?0A@EA@CHudMOTD@@8	; CHudMOTD::`RTTI Base Class Array'
	DD	FLAT:??_R1A@?0A@EA@CHudBase@@8
rdata$r	ENDS
;	COMDAT ??_R3CHudMOTD@@8
rdata$r	SEGMENT
??_R3CHudMOTD@@8 DD 00H					; CHudMOTD::`RTTI Class Hierarchy Descriptor'
	DD	00H
	DD	02H
	DD	FLAT:??_R2CHudMOTD@@8
rdata$r	ENDS
;	COMDAT ??_R0?AVCHudMOTD@@@8
data$r	SEGMENT
??_R0?AVCHudMOTD@@@8 DD FLAT:??_7type_info@@6B@		; CHudMOTD `RTTI Type Descriptor'
	DD	00H
	DB	'.?AVCHudMOTD@@', 00H
data$r	ENDS
;	COMDAT ??_R4CHudMOTD@@6B@
rdata$r	SEGMENT
??_R4CHudMOTD@@6B@ DD 00H				; CHudMOTD::`RTTI Complete Object Locator'
	DD	00H
	DD	00H
	DD	FLAT:??_R0?AVCHudMOTD@@@8
	DD	FLAT:??_R3CHudMOTD@@8
rdata$r	ENDS
;	COMDAT ??_R1A@?0A@EA@CHudTrain@@8
rdata$r	SEGMENT
??_R1A@?0A@EA@CHudTrain@@8 DD FLAT:??_R0?AVCHudTrain@@@8 ; CHudTrain::`RTTI Base Class Descriptor at (0,-1,0,64)'
	DD	01H
	DD	00H
	DD	0ffffffffH
	DD	00H
	DD	040H
	DD	FLAT:??_R3CHudTrain@@8
rdata$r	ENDS
;	COMDAT ??_R2CHudTrain@@8
rdata$r	SEGMENT
??_R2CHudTrain@@8 DD FLAT:??_R1A@?0A@EA@CHudTrain@@8	; CHudTrain::`RTTI Base Class Array'
	DD	FLAT:??_R1A@?0A@EA@CHudBase@@8
rdata$r	ENDS
;	COMDAT ??_R3CHudTrain@@8
rdata$r	SEGMENT
??_R3CHudTrain@@8 DD 00H				; CHudTrain::`RTTI Class Hierarchy Descriptor'
	DD	00H
	DD	02H
	DD	FLAT:??_R2CHudTrain@@8
rdata$r	ENDS
;	COMDAT ??_R0?AVCHudTrain@@@8
data$r	SEGMENT
??_R0?AVCHudTrain@@@8 DD FLAT:??_7type_info@@6B@	; CHudTrain `RTTI Type Descriptor'
	DD	00H
	DB	'.?AVCHudTrain@@', 00H
data$r	ENDS
;	COMDAT ??_R4CHudTrain@@6B@
rdata$r	SEGMENT
??_R4CHudTrain@@6B@ DD 00H				; CHudTrain::`RTTI Complete Object Locator'
	DD	00H
	DD	00H
	DD	FLAT:??_R0?AVCHudTrain@@@8
	DD	FLAT:??_R3CHudTrain@@8
rdata$r	ENDS
;	COMDAT ??_R1A@?0A@EA@CHudLensflare@@8
rdata$r	SEGMENT
??_R1A@?0A@EA@CHudLensflare@@8 DD FLAT:??_R0?AVCHudLensflare@@@8 ; CHudLensflare::`RTTI Base Class Descriptor at (0,-1,0,64)'
	DD	01H
	DD	00H
	DD	0ffffffffH
	DD	00H
	DD	040H
	DD	FLAT:??_R3CHudLensflare@@8
rdata$r	ENDS
;	COMDAT ??_R2CHudLensflare@@8
rdata$r	SEGMENT
??_R2CHudLensflare@@8 DD FLAT:??_R1A@?0A@EA@CHudLensflare@@8 ; CHudLensflare::`RTTI Base Class Array'
	DD	FLAT:??_R1A@?0A@EA@CHudBase@@8
rdata$r	ENDS
;	COMDAT ??_R3CHudLensflare@@8
rdata$r	SEGMENT
??_R3CHudLensflare@@8 DD 00H				; CHudLensflare::`RTTI Class Hierarchy Descriptor'
	DD	00H
	DD	02H
	DD	FLAT:??_R2CHudLensflare@@8
rdata$r	ENDS
;	COMDAT ??_R0?AVCHudLensflare@@@8
data$r	SEGMENT
??_R0?AVCHudLensflare@@@8 DD FLAT:??_7type_info@@6B@	; CHudLensflare `RTTI Type Descriptor'
	DD	00H
	DB	'.?AVCHudLensflare@@', 00H
data$r	ENDS
;	COMDAT ??_R4CHudLensflare@@6B@
rdata$r	SEGMENT
??_R4CHudLensflare@@6B@ DD 00H				; CHudLensflare::`RTTI Complete Object Locator'
	DD	00H
	DD	00H
	DD	FLAT:??_R0?AVCHudLensflare@@@8
	DD	FLAT:??_R3CHudLensflare@@8
rdata$r	ENDS
;	COMDAT ??_R1A@?0A@EA@CHudGeiger@@8
rdata$r	SEGMENT
??_R1A@?0A@EA@CHudGeiger@@8 DD FLAT:??_R0?AVCHudGeiger@@@8 ; CHudGeiger::`RTTI Base Class Descriptor at (0,-1,0,64)'
	DD	01H
	DD	00H
	DD	0ffffffffH
	DD	00H
	DD	040H
	DD	FLAT:??_R3CHudGeiger@@8
rdata$r	ENDS
;	COMDAT ??_R2CHudGeiger@@8
rdata$r	SEGMENT
??_R2CHudGeiger@@8 DD FLAT:??_R1A@?0A@EA@CHudGeiger@@8	; CHudGeiger::`RTTI Base Class Array'
	DD	FLAT:??_R1A@?0A@EA@CHudBase@@8
rdata$r	ENDS
;	COMDAT ??_R3CHudGeiger@@8
rdata$r	SEGMENT
??_R3CHudGeiger@@8 DD 00H				; CHudGeiger::`RTTI Class Hierarchy Descriptor'
	DD	00H
	DD	02H
	DD	FLAT:??_R2CHudGeiger@@8
rdata$r	ENDS
;	COMDAT ??_R0?AVCHudGeiger@@@8
data$r	SEGMENT
??_R0?AVCHudGeiger@@@8 DD FLAT:??_7type_info@@6B@	; CHudGeiger `RTTI Type Descriptor'
	DD	00H
	DB	'.?AVCHudGeiger@@', 00H
data$r	ENDS
;	COMDAT ??_R4CHudGeiger@@6B@
rdata$r	SEGMENT
??_R4CHudGeiger@@6B@ DD 00H				; CHudGeiger::`RTTI Complete Object Locator'
	DD	00H
	DD	00H
	DD	FLAT:??_R0?AVCHudGeiger@@@8
	DD	FLAT:??_R3CHudGeiger@@8
rdata$r	ENDS
;	COMDAT ??_R1A@?0A@EA@CHudHealth@@8
rdata$r	SEGMENT
??_R1A@?0A@EA@CHudHealth@@8 DD FLAT:??_R0?AVCHudHealth@@@8 ; CHudHealth::`RTTI Base Class Descriptor at (0,-1,0,64)'
	DD	01H
	DD	00H
	DD	0ffffffffH
	DD	00H
	DD	040H
	DD	FLAT:??_R3CHudHealth@@8
rdata$r	ENDS
;	COMDAT ??_R2CHudHealth@@8
rdata$r	SEGMENT
??_R2CHudHealth@@8 DD FLAT:??_R1A@?0A@EA@CHudHealth@@8	; CHudHealth::`RTTI Base Class Array'
	DD	FLAT:??_R1A@?0A@EA@CHudBase@@8
rdata$r	ENDS
;	COMDAT ??_R3CHudHealth@@8
rdata$r	SEGMENT
??_R3CHudHealth@@8 DD 00H				; CHudHealth::`RTTI Class Hierarchy Descriptor'
	DD	00H
	DD	02H
	DD	FLAT:??_R2CHudHealth@@8
rdata$r	ENDS
;	COMDAT ??_R0?AVCHudHealth@@@8
data$r	SEGMENT
??_R0?AVCHudHealth@@@8 DD FLAT:??_7type_info@@6B@	; CHudHealth `RTTI Type Descriptor'
	DD	00H
	DB	'.?AVCHudHealth@@', 00H
data$r	ENDS
;	COMDAT ??_R4CHudHealth@@6B@
rdata$r	SEGMENT
??_R4CHudHealth@@6B@ DD 00H				; CHudHealth::`RTTI Complete Object Locator'
	DD	00H
	DD	00H
	DD	FLAT:??_R0?AVCHudHealth@@@8
	DD	FLAT:??_R3CHudHealth@@8
rdata$r	ENDS
;	COMDAT ??_R1A@?0A@EA@CHudAmmoSecondary@@8
rdata$r	SEGMENT
??_R1A@?0A@EA@CHudAmmoSecondary@@8 DD FLAT:??_R0?AVCHudAmmoSecondary@@@8 ; CHudAmmoSecondary::`RTTI Base Class Descriptor at (0,-1,0,64)'
	DD	01H
	DD	00H
	DD	0ffffffffH
	DD	00H
	DD	040H
	DD	FLAT:??_R3CHudAmmoSecondary@@8
rdata$r	ENDS
;	COMDAT ??_R2CHudAmmoSecondary@@8
rdata$r	SEGMENT
??_R2CHudAmmoSecondary@@8 DD FLAT:??_R1A@?0A@EA@CHudAmmoSecondary@@8 ; CHudAmmoSecondary::`RTTI Base Class Array'
	DD	FLAT:??_R1A@?0A@EA@CHudBase@@8
rdata$r	ENDS
;	COMDAT ??_R3CHudAmmoSecondary@@8
rdata$r	SEGMENT
??_R3CHudAmmoSecondary@@8 DD 00H			; CHudAmmoSecondary::`RTTI Class Hierarchy Descriptor'
	DD	00H
	DD	02H
	DD	FLAT:??_R2CHudAmmoSecondary@@8
rdata$r	ENDS
;	COMDAT ??_R0?AVCHudAmmoSecondary@@@8
data$r	SEGMENT
??_R0?AVCHudAmmoSecondary@@@8 DD FLAT:??_7type_info@@6B@ ; CHudAmmoSecondary `RTTI Type Descriptor'
	DD	00H
	DB	'.?AVCHudAmmoSecondary@@', 00H
data$r	ENDS
;	COMDAT ??_R4CHudAmmoSecondary@@6B@
rdata$r	SEGMENT
??_R4CHudAmmoSecondary@@6B@ DD 00H			; CHudAmmoSecondary::`RTTI Complete Object Locator'
	DD	00H
	DD	00H
	DD	FLAT:??_R0?AVCHudAmmoSecondary@@@8
	DD	FLAT:??_R3CHudAmmoSecondary@@8
rdata$r	ENDS
;	COMDAT ??_R1A@?0A@EA@CHudAmmo@@8
rdata$r	SEGMENT
??_R1A@?0A@EA@CHudAmmo@@8 DD FLAT:??_R0?AVCHudAmmo@@@8	; CHudAmmo::`RTTI Base Class Descriptor at (0,-1,0,64)'
	DD	01H
	DD	00H
	DD	0ffffffffH
	DD	00H
	DD	040H
	DD	FLAT:??_R3CHudAmmo@@8
rdata$r	ENDS
;	COMDAT ??_R2CHudAmmo@@8
rdata$r	SEGMENT
??_R2CHudAmmo@@8 DD FLAT:??_R1A@?0A@EA@CHudAmmo@@8	; CHudAmmo::`RTTI Base Class Array'
	DD	FLAT:??_R1A@?0A@EA@CHudBase@@8
rdata$r	ENDS
;	COMDAT ??_R3CHudAmmo@@8
rdata$r	SEGMENT
??_R3CHudAmmo@@8 DD 00H					; CHudAmmo::`RTTI Class Hierarchy Descriptor'
	DD	00H
	DD	02H
	DD	FLAT:??_R2CHudAmmo@@8
rdata$r	ENDS
;	COMDAT ??_R0?AVCHudAmmo@@@8
data$r	SEGMENT
??_R0?AVCHudAmmo@@@8 DD FLAT:??_7type_info@@6B@		; CHudAmmo `RTTI Type Descriptor'
	DD	00H
	DB	'.?AVCHudAmmo@@', 00H
data$r	ENDS
;	COMDAT ??_R4CHudAmmo@@6B@
rdata$r	SEGMENT
??_R4CHudAmmo@@6B@ DD 00H				; CHudAmmo::`RTTI Complete Object Locator'
	DD	00H
	DD	00H
	DD	FLAT:??_R0?AVCHudAmmo@@@8
	DD	FLAT:??_R3CHudAmmo@@8
rdata$r	ENDS
;	COMDAT ??_R1A@?0A@EA@CHudBase@@8
rdata$r	SEGMENT
??_R1A@?0A@EA@CHudBase@@8 DD FLAT:??_R0?AVCHudBase@@@8	; CHudBase::`RTTI Base Class Descriptor at (0,-1,0,64)'
	DD	00H
	DD	00H
	DD	0ffffffffH
	DD	00H
	DD	040H
	DD	FLAT:??_R3CHudBase@@8
rdata$r	ENDS
;	COMDAT ??_R2CHudBase@@8
rdata$r	SEGMENT
??_R2CHudBase@@8 DD FLAT:??_R1A@?0A@EA@CHudBase@@8	; CHudBase::`RTTI Base Class Array'
rdata$r	ENDS
;	COMDAT ??_R3CHudBase@@8
rdata$r	SEGMENT
??_R3CHudBase@@8 DD 00H					; CHudBase::`RTTI Class Hierarchy Descriptor'
	DD	00H
	DD	01H
	DD	FLAT:??_R2CHudBase@@8
rdata$r	ENDS
;	COMDAT ??_R0?AVCHudBase@@@8
data$r	SEGMENT
??_R0?AVCHudBase@@@8 DD FLAT:??_7type_info@@6B@		; CHudBase `RTTI Type Descriptor'
	DD	00H
	DB	'.?AVCHudBase@@', 00H
data$r	ENDS
;	COMDAT ??_R4CHudBase@@6B@
rdata$r	SEGMENT
??_R4CHudBase@@6B@ DD 00H				; CHudBase::`RTTI Complete Object Locator'
	DD	00H
	DD	00H
	DD	FLAT:??_R0?AVCHudBase@@@8
	DD	FLAT:??_R3CHudBase@@8
rdata$r	ENDS
;	COMDAT ??_C@_0BE@MIINDMFA@exec?5diffusion?4cfg?6?$AA@
CONST	SEGMENT
??_C@_0BE@MIINDMFA@exec?5diffusion?4cfg?6?$AA@ DB 'exec diffusion.cfg', 0aH
	DB	00H						; `string'
CONST	ENDS
;	COMDAT ??_C@_08NLOJPFHM@buildnum?$AA@
CONST	SEGMENT
??_C@_08NLOJPFHM@buildnum?$AA@ DB 'buildnum', 00H	; `string'
CONST	ENDS
;	COMDAT ??_C@_05DMEBLLNM@build?$AA@
CONST	SEGMENT
??_C@_05DMEBLLNM@build?$AA@ DB 'build', 00H		; `string'
CONST	ENDS
;	COMDAT ??_C@_0BC@CKKMCGJ@host_clientloaded?$AA@
CONST	SEGMENT
??_C@_0BC@CKKMCGJ@host_clientloaded?$AA@ DB 'host_clientloaded', 00H ; `string'
CONST	ENDS
;	COMDAT ??_C@_09DNECJBKD@developer?$AA@
CONST	SEGMENT
??_C@_09DNECJBKD@developer?$AA@ DB 'developer', 00H	; `string'
CONST	ENDS
;	COMDAT ??_7CUseIcon@@6B@
CONST	SEGMENT
??_7CUseIcon@@6B@ DD FLAT:??_R4CUseIcon@@6B@		; CUseIcon::`vftable'
	DD	FLAT:??_ECUseIcon@@UAEPAXI@Z
	DD	FLAT:?Init@CUseIcon@@UAEHXZ
	DD	FLAT:?VidInit@CUseIcon@@UAEHXZ
	DD	FLAT:?Draw@CUseIcon@@UAEHM@Z
	DD	FLAT:?Think@CHudBase@@UAEXXZ
	DD	FLAT:?Reset@CHudBase@@UAEXXZ
	DD	FLAT:?InitHUDData@CHudBase@@UAEXXZ
CONST	ENDS
;	COMDAT ??_7CHealthbars@@6B@
CONST	SEGMENT
??_7CHealthbars@@6B@ DD FLAT:??_R4CHealthbars@@6B@	; CHealthbars::`vftable'
	DD	FLAT:??_ECHealthbars@@UAEPAXI@Z
	DD	FLAT:?Init@CHealthbars@@UAEHXZ
	DD	FLAT:?VidInit@CHealthbars@@UAEHXZ
	DD	FLAT:?Draw@CHealthbars@@UAEHM@Z
	DD	FLAT:?Think@CHudBase@@UAEXXZ
	DD	FLAT:?Reset@CHudBase@@UAEXXZ
	DD	FLAT:?InitHUDData@CHudBase@@UAEXXZ
CONST	ENDS
;	COMDAT ??_7CScreenEffects@@6B@
CONST	SEGMENT
??_7CScreenEffects@@6B@ DD FLAT:??_R4CScreenEffects@@6B@ ; CScreenEffects::`vftable'
	DD	FLAT:??_ECScreenEffects@@UAEPAXI@Z
	DD	FLAT:?Init@CScreenEffects@@UAEHXZ
	DD	FLAT:?VidInit@CScreenEffects@@UAEHXZ
	DD	FLAT:?Draw@CScreenEffects@@UAEHM@Z
	DD	FLAT:?Think@CHudBase@@UAEXXZ
	DD	FLAT:?Reset@CHudBase@@UAEXXZ
	DD	FLAT:?InitHUDData@CHudBase@@UAEXXZ
CONST	ENDS
;	COMDAT ??_7CHudCodeInput@@6B@
CONST	SEGMENT
??_7CHudCodeInput@@6B@ DD FLAT:??_R4CHudCodeInput@@6B@	; CHudCodeInput::`vftable'
	DD	FLAT:??_ECHudCodeInput@@UAEPAXI@Z
	DD	FLAT:?Init@CHudCodeInput@@UAEHXZ
	DD	FLAT:?VidInit@CHudCodeInput@@UAEHXZ
	DD	FLAT:?Draw@CHudCodeInput@@UAEHM@Z
	DD	FLAT:?Think@CHudBase@@UAEXXZ
	DD	FLAT:?Reset@CHudBase@@UAEXXZ
	DD	FLAT:?InitHUDData@CHudBase@@UAEXXZ
CONST	ENDS
;	COMDAT ??_7CHudBlastIcons@@6B@
CONST	SEGMENT
??_7CHudBlastIcons@@6B@ DD FLAT:??_R4CHudBlastIcons@@6B@ ; CHudBlastIcons::`vftable'
	DD	FLAT:??_ECHudBlastIcons@@UAEPAXI@Z
	DD	FLAT:?Init@CHudBlastIcons@@UAEHXZ
	DD	FLAT:?VidInit@CHudBlastIcons@@UAEHXZ
	DD	FLAT:?Draw@CHudBlastIcons@@UAEHM@Z
	DD	FLAT:?Think@CHudBase@@UAEXXZ
	DD	FLAT:?Reset@CHudBase@@UAEXXZ
	DD	FLAT:?InitHUDData@CHudBase@@UAEXXZ
CONST	ENDS
;	COMDAT ??_7CZoom@@6B@
CONST	SEGMENT
??_7CZoom@@6B@ DD FLAT:??_R4CZoom@@6B@			; CZoom::`vftable'
	DD	FLAT:??_ECZoom@@UAEPAXI@Z
	DD	FLAT:?Init@CZoom@@UAEHXZ
	DD	FLAT:?VidInit@CHudBase@@UAEHXZ
	DD	FLAT:?Draw@CHudBase@@UAEHM@Z
	DD	FLAT:?Think@CZoom@@UAEXXZ
	DD	FLAT:?Reset@CHudBase@@UAEXXZ
	DD	FLAT:?InitHUDData@CHudBase@@UAEXXZ
CONST	ENDS
;	COMDAT ??_7CHudCrosshairStatic@@6B@
CONST	SEGMENT
??_7CHudCrosshairStatic@@6B@ DD FLAT:??_R4CHudCrosshairStatic@@6B@ ; CHudCrosshairStatic::`vftable'
	DD	FLAT:??_ECHudCrosshairStatic@@UAEPAXI@Z
	DD	FLAT:?Init@CHudCrosshairStatic@@UAEHXZ
	DD	FLAT:?VidInit@CHudCrosshairStatic@@UAEHXZ
	DD	FLAT:?Draw@CHudCrosshairStatic@@UAEHM@Z
	DD	FLAT:?Think@CHudBase@@UAEXXZ
	DD	FLAT:?Reset@CHudCrosshairStatic@@UAEXXZ
	DD	FLAT:?InitHUDData@CHudBase@@UAEXXZ
CONST	ENDS
;	COMDAT ??_7CHudAchievement@@6B@
CONST	SEGMENT
??_7CHudAchievement@@6B@ DD FLAT:??_R4CHudAchievement@@6B@ ; CHudAchievement::`vftable'
	DD	FLAT:??_ECHudAchievement@@UAEPAXI@Z
	DD	FLAT:?Init@CHudAchievement@@UAEHXZ
	DD	FLAT:?VidInit@CHudAchievement@@UAEHXZ
	DD	FLAT:?Draw@CHudAchievement@@UAEHM@Z
	DD	FLAT:?Think@CHudBase@@UAEXXZ
	DD	FLAT:?Reset@CHudBase@@UAEXXZ
	DD	FLAT:?InitHUDData@CHudBase@@UAEXXZ
CONST	ENDS
;	COMDAT ??_7CHudTutorial@@6B@
CONST	SEGMENT
??_7CHudTutorial@@6B@ DD FLAT:??_R4CHudTutorial@@6B@	; CHudTutorial::`vftable'
	DD	FLAT:??_ECHudTutorial@@UAEPAXI@Z
	DD	FLAT:?Init@CHudTutorial@@UAEHXZ
	DD	FLAT:?VidInit@CHudTutorial@@UAEHXZ
	DD	FLAT:?Draw@CHudTutorial@@UAEHM@Z
	DD	FLAT:?Think@CHudBase@@UAEXXZ
	DD	FLAT:?Reset@CHudBase@@UAEXXZ
	DD	FLAT:?InitHUDData@CHudBase@@UAEXXZ
CONST	ENDS
;	COMDAT ??_7CHudStatusIcons@@6B@
CONST	SEGMENT
??_7CHudStatusIcons@@6B@ DD FLAT:??_R4CHudStatusIcons@@6B@ ; CHudStatusIcons::`vftable'
	DD	FLAT:??_ECHudStatusIcons@@UAEPAXI@Z
	DD	FLAT:?Init@CHudStatusIcons@@UAEHXZ
	DD	FLAT:?VidInit@CHudStatusIcons@@UAEHXZ
	DD	FLAT:?Draw@CHudStatusIcons@@UAEHM@Z
	DD	FLAT:?Think@CHudBase@@UAEXXZ
	DD	FLAT:?Reset@CHudStatusIcons@@UAEXXZ
	DD	FLAT:?InitHUDData@CHudBase@@UAEXXZ
CONST	ENDS
;	COMDAT ??_7CHudMessage@@6B@
CONST	SEGMENT
??_7CHudMessage@@6B@ DD FLAT:??_R4CHudMessage@@6B@	; CHudMessage::`vftable'
	DD	FLAT:??_ECHudMessage@@UAEPAXI@Z
	DD	FLAT:?Init@CHudMessage@@UAEHXZ
	DD	FLAT:?VidInit@CHudMessage@@UAEHXZ
	DD	FLAT:?Draw@CHudMessage@@UAEHM@Z
	DD	FLAT:?Think@CHudBase@@UAEXXZ
	DD	FLAT:?Reset@CHudMessage@@UAEXXZ
	DD	FLAT:?InitHUDData@CHudBase@@UAEXXZ
CONST	ENDS
;	COMDAT ??_7CHudTextMessage@@6B@
CONST	SEGMENT
??_7CHudTextMessage@@6B@ DD FLAT:??_R4CHudTextMessage@@6B@ ; CHudTextMessage::`vftable'
	DD	FLAT:??_ECHudTextMessage@@UAEPAXI@Z
	DD	FLAT:?Init@CHudTextMessage@@UAEHXZ
	DD	FLAT:?VidInit@CHudBase@@UAEHXZ
	DD	FLAT:?Draw@CHudBase@@UAEHM@Z
	DD	FLAT:?Think@CHudBase@@UAEXXZ
	DD	FLAT:?Reset@CHudBase@@UAEXXZ
	DD	FLAT:?InitHUDData@CHudBase@@UAEXXZ
CONST	ENDS
;	COMDAT ??_7CHudHealthVisual@@6B@
CONST	SEGMENT
??_7CHudHealthVisual@@6B@ DD FLAT:??_R4CHudHealthVisual@@6B@ ; CHudHealthVisual::`vftable'
	DD	FLAT:??_ECHudHealthVisual@@UAEPAXI@Z
	DD	FLAT:?Init@CHudHealthVisual@@UAEHXZ
	DD	FLAT:?VidInit@CHudHealthVisual@@UAEHXZ
	DD	FLAT:?Draw@CHudHealthVisual@@UAEHM@Z
	DD	FLAT:?Think@CHudBase@@UAEXXZ
	DD	FLAT:?Reset@CHudBase@@UAEXXZ
	DD	FLAT:?InitHUDData@CHudBase@@UAEXXZ
CONST	ENDS
;	COMDAT ??_7CHudStamina@@6B@
CONST	SEGMENT
??_7CHudStamina@@6B@ DD FLAT:??_R4CHudStamina@@6B@	; CHudStamina::`vftable'
	DD	FLAT:??_ECHudStamina@@UAEPAXI@Z
	DD	FLAT:?Init@CHudStamina@@UAEHXZ
	DD	FLAT:?VidInit@CHudStamina@@UAEHXZ
	DD	FLAT:?Draw@CHudStamina@@UAEHM@Z
	DD	FLAT:?Think@CHudBase@@UAEXXZ
	DD	FLAT:?Reset@CHudBase@@UAEXXZ
	DD	FLAT:?InitHUDData@CHudBase@@UAEXXZ
CONST	ENDS
;	COMDAT ??_7CHudFlashlight@@6B@
CONST	SEGMENT
??_7CHudFlashlight@@6B@ DD FLAT:??_R4CHudFlashlight@@6B@ ; CHudFlashlight::`vftable'
	DD	FLAT:??_ECHudFlashlight@@UAEPAXI@Z
	DD	FLAT:?Init@CHudFlashlight@@UAEHXZ
	DD	FLAT:?VidInit@CHudFlashlight@@UAEHXZ
	DD	FLAT:?Draw@CHudFlashlight@@UAEHM@Z
	DD	FLAT:?Think@CHudBase@@UAEXXZ
	DD	FLAT:?Reset@CHudFlashlight@@UAEXXZ
	DD	FLAT:?InitHUDData@CHudBase@@UAEXXZ
CONST	ENDS
;	COMDAT ??_7CHudSayText@@6B@
CONST	SEGMENT
??_7CHudSayText@@6B@ DD FLAT:??_R4CHudSayText@@6B@	; CHudSayText::`vftable'
	DD	FLAT:??_ECHudSayText@@UAEPAXI@Z
	DD	FLAT:?Init@CHudSayText@@UAEHXZ
	DD	FLAT:?VidInit@CHudSayText@@UAEHXZ
	DD	FLAT:?Draw@CHudSayText@@UAEHM@Z
	DD	FLAT:?Think@CHudBase@@UAEXXZ
	DD	FLAT:?Reset@CHudBase@@UAEXXZ
	DD	FLAT:?InitHUDData@CHudSayText@@UAEXXZ
CONST	ENDS
;	COMDAT ??_7CHudMenu@@6B@
CONST	SEGMENT
??_7CHudMenu@@6B@ DD FLAT:??_R4CHudMenu@@6B@		; CHudMenu::`vftable'
	DD	FLAT:??_ECHudMenu@@UAEPAXI@Z
	DD	FLAT:?Init@CHudMenu@@UAEHXZ
	DD	FLAT:?VidInit@CHudMenu@@UAEHXZ
	DD	FLAT:?Draw@CHudMenu@@UAEHM@Z
	DD	FLAT:?Think@CHudBase@@UAEXXZ
	DD	FLAT:?Reset@CHudMenu@@UAEXXZ
	DD	FLAT:?InitHUDData@CHudMenu@@UAEXXZ
CONST	ENDS
;	COMDAT ??_7CHudDeathNotice@@6B@
CONST	SEGMENT
??_7CHudDeathNotice@@6B@ DD FLAT:??_R4CHudDeathNotice@@6B@ ; CHudDeathNotice::`vftable'
	DD	FLAT:??_ECHudDeathNotice@@UAEPAXI@Z
	DD	FLAT:?Init@CHudDeathNotice@@UAEHXZ
	DD	FLAT:?VidInit@CHudDeathNotice@@UAEHXZ
	DD	FLAT:?Draw@CHudDeathNotice@@UAEHM@Z
	DD	FLAT:?Think@CHudBase@@UAEXXZ
	DD	FLAT:?Reset@CHudBase@@UAEXXZ
	DD	FLAT:?InitHUDData@CHudDeathNotice@@UAEXXZ
CONST	ENDS
;	COMDAT ??_7CHudStatusBar@@6B@
CONST	SEGMENT
??_7CHudStatusBar@@6B@ DD FLAT:??_R4CHudStatusBar@@6B@	; CHudStatusBar::`vftable'
	DD	FLAT:??_ECHudStatusBar@@UAEPAXI@Z
	DD	FLAT:?Init@CHudStatusBar@@UAEHXZ
	DD	FLAT:?VidInit@CHudStatusBar@@UAEHXZ
	DD	FLAT:?Draw@CHudStatusBar@@UAEHM@Z
	DD	FLAT:?Think@CHudBase@@UAEXXZ
	DD	FLAT:?Reset@CHudStatusBar@@UAEXXZ
	DD	FLAT:?InitHUDData@CHudBase@@UAEXXZ
CONST	ENDS
;	COMDAT ??_7CHudScoreboard@@6B@
CONST	SEGMENT
??_7CHudScoreboard@@6B@ DD FLAT:??_R4CHudScoreboard@@6B@ ; CHudScoreboard::`vftable'
	DD	FLAT:??_ECHudScoreboard@@UAEPAXI@Z
	DD	FLAT:?Init@CHudScoreboard@@UAEHXZ
	DD	FLAT:?VidInit@CHudScoreboard@@UAEHXZ
	DD	FLAT:?Draw@CHudScoreboard@@UAEHM@Z
	DD	FLAT:?Think@CHudBase@@UAEXXZ
	DD	FLAT:?Reset@CHudBase@@UAEXXZ
	DD	FLAT:?InitHUDData@CHudScoreboard@@UAEXXZ
CONST	ENDS
;	COMDAT ??_7CHudMOTD@@6B@
CONST	SEGMENT
??_7CHudMOTD@@6B@ DD FLAT:??_R4CHudMOTD@@6B@		; CHudMOTD::`vftable'
	DD	FLAT:??_ECHudMOTD@@UAEPAXI@Z
	DD	FLAT:?Init@CHudMOTD@@UAEHXZ
	DD	FLAT:?VidInit@CHudMOTD@@UAEHXZ
	DD	FLAT:?Draw@CHudMOTD@@UAEHM@Z
	DD	FLAT:?Think@CHudBase@@UAEXXZ
	DD	FLAT:?Reset@CHudMOTD@@UAEXXZ
	DD	FLAT:?InitHUDData@CHudBase@@UAEXXZ
CONST	ENDS
;	COMDAT ??_7CHudTrain@@6B@
CONST	SEGMENT
??_7CHudTrain@@6B@ DD FLAT:??_R4CHudTrain@@6B@		; CHudTrain::`vftable'
	DD	FLAT:??_ECHudTrain@@UAEPAXI@Z
	DD	FLAT:?Init@CHudTrain@@UAEHXZ
	DD	FLAT:?VidInit@CHudTrain@@UAEHXZ
	DD	FLAT:?Draw@CHudTrain@@UAEHM@Z
	DD	FLAT:?Think@CHudBase@@UAEXXZ
	DD	FLAT:?Reset@CHudBase@@UAEXXZ
	DD	FLAT:?InitHUDData@CHudBase@@UAEXXZ
CONST	ENDS
;	COMDAT ??_7CHudLensflare@@6B@
CONST	SEGMENT
??_7CHudLensflare@@6B@ DD FLAT:??_R4CHudLensflare@@6B@	; CHudLensflare::`vftable'
	DD	FLAT:??_ECHudLensflare@@UAEPAXI@Z
	DD	FLAT:?Init@CHudLensflare@@UAEHXZ
	DD	FLAT:?VidInit@CHudLensflare@@UAEHXZ
	DD	FLAT:?Draw@CHudLensflare@@UAEHM@Z
	DD	FLAT:?Think@CHudBase@@UAEXXZ
	DD	FLAT:?Reset@CHudBase@@UAEXXZ
	DD	FLAT:?InitHUDData@CHudBase@@UAEXXZ
CONST	ENDS
;	COMDAT ??_7CHudGeiger@@6B@
CONST	SEGMENT
??_7CHudGeiger@@6B@ DD FLAT:??_R4CHudGeiger@@6B@	; CHudGeiger::`vftable'
	DD	FLAT:??_ECHudGeiger@@UAEPAXI@Z
	DD	FLAT:?Init@CHudGeiger@@UAEHXZ
	DD	FLAT:?VidInit@CHudGeiger@@UAEHXZ
	DD	FLAT:?Draw@CHudGeiger@@UAEHM@Z
	DD	FLAT:?Think@CHudBase@@UAEXXZ
	DD	FLAT:?Reset@CHudBase@@UAEXXZ
	DD	FLAT:?InitHUDData@CHudBase@@UAEXXZ
CONST	ENDS
;	COMDAT ??_7CHudHealth@@6B@
CONST	SEGMENT
??_7CHudHealth@@6B@ DD FLAT:??_R4CHudHealth@@6B@	; CHudHealth::`vftable'
	DD	FLAT:??_ECHudHealth@@UAEPAXI@Z
	DD	FLAT:?Init@CHudHealth@@UAEHXZ
	DD	FLAT:?VidInit@CHudHealth@@UAEHXZ
	DD	FLAT:?Draw@CHudHealth@@UAEHM@Z
	DD	FLAT:?Think@CHudBase@@UAEXXZ
	DD	FLAT:?Reset@CHudHealth@@UAEXXZ
	DD	FLAT:?InitHUDData@CHudBase@@UAEXXZ
CONST	ENDS
;	COMDAT ??_7CHudAmmoSecondary@@6B@
CONST	SEGMENT
??_7CHudAmmoSecondary@@6B@ DD FLAT:??_R4CHudAmmoSecondary@@6B@ ; CHudAmmoSecondary::`vftable'
	DD	FLAT:??_ECHudAmmoSecondary@@UAEPAXI@Z
	DD	FLAT:?Init@CHudAmmoSecondary@@UAEHXZ
	DD	FLAT:?VidInit@CHudAmmoSecondary@@UAEHXZ
	DD	FLAT:?Draw@CHudAmmoSecondary@@UAEHM@Z
	DD	FLAT:?Think@CHudBase@@UAEXXZ
	DD	FLAT:?Reset@CHudAmmoSecondary@@UAEXXZ
	DD	FLAT:?InitHUDData@CHudBase@@UAEXXZ
CONST	ENDS
;	COMDAT ??_7CHudAmmo@@6B@
CONST	SEGMENT
??_7CHudAmmo@@6B@ DD FLAT:??_R4CHudAmmo@@6B@		; CHudAmmo::`vftable'
	DD	FLAT:??_ECHudAmmo@@UAEPAXI@Z
	DD	FLAT:?Init@CHudAmmo@@UAEHXZ
	DD	FLAT:?VidInit@CHudAmmo@@UAEHXZ
	DD	FLAT:?Draw@CHudAmmo@@UAEHM@Z
	DD	FLAT:?Think@CHudAmmo@@UAEXXZ
	DD	FLAT:?Reset@CHudAmmo@@UAEXXZ
	DD	FLAT:?InitHUDData@CHudBase@@UAEXXZ
CONST	ENDS
;	COMDAT ??_7CHudBase@@6B@
CONST	SEGMENT
??_7CHudBase@@6B@ DD FLAT:??_R4CHudBase@@6B@		; CHudBase::`vftable'
	DD	FLAT:??_ECHudBase@@UAEPAXI@Z
	DD	FLAT:?Init@CHudBase@@UAEHXZ
	DD	FLAT:?VidInit@CHudBase@@UAEHXZ
	DD	FLAT:?Draw@CHudBase@@UAEHM@Z
	DD	FLAT:?Think@CHudBase@@UAEXXZ
	DD	FLAT:?Reset@CHudBase@@UAEXXZ
	DD	FLAT:?InitHUDData@CHudBase@@UAEXXZ
CONST	ENDS
;	COMDAT xdata$x
xdata$x	SEGMENT
__unwindtable$?HUD_Init@@YAXXZ DD 0ffffffffH
	DD	FLAT:__unwindfunclet$?HUD_Init@@YAXXZ$0
__ehfuncinfo$?HUD_Init@@YAXXZ DD 019930522H
	DD	01H
	DD	FLAT:__unwindtable$?HUD_Init@@YAXXZ
	DD	2 DUP(00H)
	DD	2 DUP(00H)
	DD	00H
	DD	01H
xdata$x	ENDS
;	COMDAT xdata$x
xdata$x	SEGMENT
__ehfuncinfo$??0CHud@@QAE@XZ DD 019930522H
	DD	01bH
	DD	FLAT:__unwindtable$??0CHud@@QAE@XZ
	DD	2 DUP(00H)
	DD	2 DUP(00H)
	DD	00H
	DD	01H
__unwindtable$??0CHud@@QAE@XZ DD 0ffffffffH
	DD	FLAT:__unwindfunclet$??0CHud@@QAE@XZ$0
	DD	00H
	DD	FLAT:__unwindfunclet$??0CHud@@QAE@XZ$1
	DD	01H
	DD	FLAT:__unwindfunclet$??0CHud@@QAE@XZ$2
	DD	02H
	DD	FLAT:__unwindfunclet$??0CHud@@QAE@XZ$3
	DD	03H
	DD	FLAT:__unwindfunclet$??0CHud@@QAE@XZ$4
	DD	04H
	DD	FLAT:__unwindfunclet$??0CHud@@QAE@XZ$5
	DD	05H
	DD	FLAT:__unwindfunclet$??0CHud@@QAE@XZ$6
	DD	06H
	DD	FLAT:__unwindfunclet$??0CHud@@QAE@XZ$7
	DD	07H
	DD	FLAT:__unwindfunclet$??0CHud@@QAE@XZ$8
	DD	08H
	DD	FLAT:__unwindfunclet$??0CHud@@QAE@XZ$9
	DD	09H
	DD	FLAT:__unwindfunclet$??0CHud@@QAE@XZ$10
	DD	0aH
	DD	FLAT:__unwindfunclet$??0CHud@@QAE@XZ$11
	DD	0bH
	DD	FLAT:__unwindfunclet$??0CHud@@QAE@XZ$12
	DD	0cH
	DD	FLAT:__unwindfunclet$??0CHud@@QAE@XZ$13
	DD	0dH
	DD	FLAT:__unwindfunclet$??0CHud@@QAE@XZ$14
	DD	0eH
	DD	FLAT:__unwindfunclet$??0CHud@@QAE@XZ$15
	DD	0fH
	DD	FLAT:__unwindfunclet$??0CHud@@QAE@XZ$16
	DD	010H
	DD	FLAT:__unwindfunclet$??0CHud@@QAE@XZ$17
	DD	011H
	DD	FLAT:__unwindfunclet$??0CHud@@QAE@XZ$18
	DD	012H
	DD	FLAT:__unwindfunclet$??0CHud@@QAE@XZ$19
	DD	013H
	DD	FLAT:__unwindfunclet$??0CHud@@QAE@XZ$20
	DD	014H
	DD	FLAT:__unwindfunclet$??0CHud@@QAE@XZ$21
	DD	015H
	DD	FLAT:__unwindfunclet$??0CHud@@QAE@XZ$22
	DD	016H
	DD	FLAT:__unwindfunclet$??0CHud@@QAE@XZ$23
	DD	017H
	DD	FLAT:__unwindfunclet$??0CHud@@QAE@XZ$24
	DD	018H
	DD	FLAT:__unwindfunclet$??0CHud@@QAE@XZ$25
	DD	019H
	DD	FLAT:__unwindfunclet$??0CHud@@QAE@XZ$26
xdata$x	ENDS
;	COMDAT xdata$x
xdata$x	SEGMENT
__unwindtable$??0CScreenEffects@@QAE@XZ DD 0ffffffffH
	DD	FLAT:__unwindfunclet$??0CScreenEffects@@QAE@XZ$0
__ehfuncinfo$??0CScreenEffects@@QAE@XZ DD 019930522H
	DD	01H
	DD	FLAT:__unwindtable$??0CScreenEffects@@QAE@XZ
	DD	2 DUP(00H)
	DD	2 DUP(00H)
	DD	00H
	DD	01H
xdata$x	ENDS
;	COMDAT xdata$x
xdata$x	SEGMENT
__unwindtable$??0CHudCodeInput@@QAE@XZ DD 0ffffffffH
	DD	FLAT:__unwindfunclet$??0CHudCodeInput@@QAE@XZ$0
__ehfuncinfo$??0CHudCodeInput@@QAE@XZ DD 019930522H
	DD	01H
	DD	FLAT:__unwindtable$??0CHudCodeInput@@QAE@XZ
	DD	2 DUP(00H)
	DD	2 DUP(00H)
	DD	00H
	DD	01H
xdata$x	ENDS
; Function compile flags: /Odtp /ZI
; File d:\!diffusion 2020\source code 2022\client-server\client\cdll_int.cpp
;	COMDAT _GetClientAPI
_TEXT	SEGMENT
_pcldll_func$ = -4					; size = 4
_pv$ = 8						; size = 4
_GetClientAPI PROC					; COMDAT

; 357  : {

	push	ebp
	mov	ebp, esp
	sub	esp, 68					; 00000044H
	push	ebx
	push	esi
	push	edi

; 358  : 	cldll_func_t *pcldll_func = (cldll_func_t *)pv;

	mov	eax, DWORD PTR _pv$[ebp]
	mov	DWORD PTR _pcldll_func$[ebp], eax

; 359  : 	*pcldll_func = cldll_func;

	mov	ecx, 43					; 0000002bH
	mov	esi, OFFSET ?cldll_func@@3Ucldll_func_s@@A ; cldll_func
	mov	edi, DWORD PTR _pcldll_func$[ebp]
	rep movsd

; 360  : }

	pop	edi
	pop	esi
	pop	ebx
	mov	esp, ebp
	pop	ebp
	ret	0
_GetClientAPI ENDP
_TEXT	ENDS
; Function compile flags: /Odtp /ZI
; File d:\!diffusion 2020\source code 2022\client-server\client\cdll_int.cpp
;	COMDAT ?HUD_GetUserEntity@@YAPAUcl_entity_s@@H@Z
_TEXT	SEGMENT
_index$ = 8						; size = 4
?HUD_GetUserEntity@@YAPAUcl_entity_s@@H@Z PROC		; HUD_GetUserEntity, COMDAT

; 305  : {

	push	ebp
	mov	ebp, esp
	sub	esp, 64					; 00000040H
	push	ebx
	push	esi
	push	edi

; 306  : 	return NULL;

	xor	eax, eax

; 307  : }

	pop	edi
	pop	esi
	pop	ebx
	mov	esp, ebp
	pop	ebp
	ret	0
?HUD_GetUserEntity@@YAPAUcl_entity_s@@H@Z ENDP		; HUD_GetUserEntity
_TEXT	ENDS
; Function compile flags: /Odtp /ZI
; File d:\!diffusion 2020\source code 2022\client-server\client\cdll_int.cpp
;	COMDAT ?Demo_ReadBuffer@@YAXHPAE@Z
_TEXT	SEGMENT
_size$ = 8						; size = 4
_buffer$ = 12						; size = 4
?Demo_ReadBuffer@@YAXHPAE@Z PROC			; Demo_ReadBuffer, COMDAT

; 301  : {

	push	ebp
	mov	ebp, esp
	sub	esp, 64					; 00000040H
	push	ebx
	push	esi
	push	edi

; 302  : }

	pop	edi
	pop	esi
	pop	ebx
	mov	esp, ebp
	pop	ebp
	ret	0
?Demo_ReadBuffer@@YAXHPAE@Z ENDP			; Demo_ReadBuffer
_TEXT	ENDS
; Function compile flags: /Odtp /ZI
; File d:\!diffusion 2020\source code 2022\client-server\client\cdll_int.cpp
;	COMDAT ?HUD_DirectorMessage@@YAXHPAX@Z
_TEXT	SEGMENT
_iSize$ = 8						; size = 4
_pbuf$ = 12						; size = 4
?HUD_DirectorMessage@@YAXHPAX@Z PROC			; HUD_DirectorMessage, COMDAT

; 297  : {

	push	ebp
	mov	ebp, esp
	sub	esp, 64					; 00000040H
	push	ebx
	push	esi
	push	edi

; 298  : }

	pop	edi
	pop	esi
	pop	ebx
	mov	esp, ebp
	pop	ebp
	ret	0
?HUD_DirectorMessage@@YAXHPAX@Z ENDP			; HUD_DirectorMessage
_TEXT	ENDS
; Function compile flags: /Odtp /ZI
; File d:\!diffusion 2020\source code 2022\client-server\client\cdll_int.cpp
;	COMDAT ?HUD_VoiceStatus@@YAXHH@Z
_TEXT	SEGMENT
_entindex$ = 8						; size = 4
_bTalking$ = 12						; size = 4
?HUD_VoiceStatus@@YAXHH@Z PROC				; HUD_VoiceStatus, COMDAT

; 293  : {

	push	ebp
	mov	ebp, esp
	sub	esp, 64					; 00000040H
	push	ebx
	push	esi
	push	edi

; 294  : }

	pop	edi
	pop	esi
	pop	ebx
	mov	esp, ebp
	pop	ebp
	ret	0
?HUD_VoiceStatus@@YAXHH@Z ENDP				; HUD_VoiceStatus
_TEXT	ENDS
; Function compile flags: /Odtp /ZI
; File d:\!diffusion 2020\source code 2022\client-server\client\cdll_int.cpp
;	COMDAT ?HUD_PostRunCmd@@YAXPAUlocal_state_s@@0PAUusercmd_s@@HNI@Z
_TEXT	SEGMENT
___formal$ = 8						; size = 4
___formal$ = 12						; size = 4
___formal$ = 16						; size = 4
___formal$ = 20						; size = 4
___formal$ = 24						; size = 8
___formal$ = 32						; size = 4
?HUD_PostRunCmd@@YAXPAUlocal_state_s@@0PAUusercmd_s@@HNI@Z PROC ; HUD_PostRunCmd, COMDAT

; 289  : {

	push	ebp
	mov	ebp, esp
	sub	esp, 64					; 00000040H
	push	ebx
	push	esi
	push	edi

; 290  : }

	pop	edi
	pop	esi
	pop	ebx
	mov	esp, ebp
	pop	ebp
	ret	0
?HUD_PostRunCmd@@YAXPAUlocal_state_s@@0PAUusercmd_s@@HNI@Z ENDP ; HUD_PostRunCmd
_TEXT	ENDS
; Function compile flags: /Odtp /ZI
; File d:\!diffusion 2020\source code 2022\client-server\client\cdll_int.cpp
;	COMDAT ?HUD_Key_Event@@YAHHHPBD@Z
_TEXT	SEGMENT
_eventcode$ = 8						; size = 4
_keynum$ = 12						; size = 4
_pszCurrentBinding$ = 16				; size = 4
?HUD_Key_Event@@YAHHHPBD@Z PROC				; HUD_Key_Event, COMDAT

; 284  : {

	push	ebp
	mov	ebp, esp
	sub	esp, 64					; 00000040H
	push	ebx
	push	esi
	push	edi

; 285  : 	return 1;

	mov	eax, 1

; 286  : }

	pop	edi
	pop	esi
	pop	ebx
	mov	esp, ebp
	pop	ebp
	ret	0
?HUD_Key_Event@@YAHHHPBD@Z ENDP				; HUD_Key_Event
_TEXT	ENDS
; Function compile flags: /Odtp /ZI
; File d:\!diffusion 2020\source code 2022\client-server\client\cdll_int.cpp
;	COMDAT ?HUD_Frame@@YAXN@Z
_TEXT	SEGMENT
_time$ = 8						; size = 8
?HUD_Frame@@YAXN@Z PROC					; HUD_Frame, COMDAT

; 278  : {

	push	ebp
	mov	ebp, esp
	sub	esp, 64					; 00000040H
	push	ebx
	push	esi
	push	edi

; 279  : 	// run anti (_-=ZhekA=-_) system for Xash3D engine
; 280  : 	gEngfuncs.VGui_ViewportPaintBackground( VGUI_GetRect( ));

	call	?VGUI_GetRect@@YAPAHXZ			; VGUI_GetRect
	push	eax
	call	DWORD PTR ?gEngfuncs@@3Ucl_enginefuncs_s@@A+312
	add	esp, 4

; 281  : }

	pop	edi
	pop	esi
	pop	ebx
	mov	esp, ebp
	pop	ebp
	ret	0
?HUD_Frame@@YAXN@Z ENDP					; HUD_Frame
_TEXT	ENDS
; Function compile flags: /Odtp /ZI
; File d:\!diffusion 2020\source code 2022\client-server\client\cdll_int.cpp
;	COMDAT ?VGUI_GetRect@@YAPAHXZ
_TEXT	SEGMENT
_wrect$ = -20						; size = 16
__$ArrayPad$ = -4					; size = 4
?VGUI_GetRect@@YAPAHXZ PROC				; VGUI_GetRect, COMDAT

; 244  : {

	push	ebp
	mov	ebp, esp
	sub	esp, 84					; 00000054H
	mov	eax, DWORD PTR ___security_cookie
	xor	eax, ebp
	mov	DWORD PTR __$ArrayPad$[ebp], eax
	push	ebx
	push	esi
	push	edi

; 245  : 	static int extent[4];
; 246  : 	RECT wrect;
; 247  : 
; 248  : 	if( GetWindowRect( GetActiveWindow(), &wrect ))

	lea	eax, DWORD PTR _wrect$[ebp]
	push	eax
	call	DWORD PTR __imp__GetActiveWindow@0
	push	eax
	call	DWORD PTR __imp__GetWindowRect@8
	test	eax, eax
	je	$LN2@VGUI_GetRe

; 249  :           {
; 250  : 		if( !wrect.left )

	cmp	DWORD PTR _wrect$[ebp], 0
	jne	SHORT $LN3@VGUI_GetRe

; 251  : 		{
; 252  : 			// fullscreen
; 253  : 			extent[0] = wrect.left;

	mov	eax, 4
	imul	ecx, eax, 0
	mov	edx, DWORD PTR _wrect$[ebp]
	mov	DWORD PTR ?extent@?1??VGUI_GetRect@@YAPAHXZ@4PAHA[ecx], edx

; 254  : 			extent[1] = wrect.top;

	mov	eax, 4
	shl	eax, 0
	mov	ecx, DWORD PTR _wrect$[ebp+4]
	mov	DWORD PTR ?extent@?1??VGUI_GetRect@@YAPAHXZ@4PAHA[eax], ecx

; 255  : 			extent[2] = wrect.right;

	mov	eax, 4
	shl	eax, 1
	mov	ecx, DWORD PTR _wrect$[ebp+8]
	mov	DWORD PTR ?extent@?1??VGUI_GetRect@@YAPAHXZ@4PAHA[eax], ecx

; 256  : 			extent[3] = wrect.bottom;

	mov	eax, 4
	imul	ecx, eax, 3
	mov	edx, DWORD PTR _wrect$[ebp+12]
	mov	DWORD PTR ?extent@?1??VGUI_GetRect@@YAPAHXZ@4PAHA[ecx], edx

; 257  : 		}
; 258  : 		else

	jmp	SHORT $LN2@VGUI_GetRe
$LN3@VGUI_GetRe:

; 259  : 		{
; 260  : 			// window
; 261  : 			extent[0] = wrect.left + 4;

	mov	eax, DWORD PTR _wrect$[ebp]
	add	eax, 4
	mov	ecx, 4
	imul	edx, ecx, 0
	mov	DWORD PTR ?extent@?1??VGUI_GetRect@@YAPAHXZ@4PAHA[edx], eax

; 262  : 			extent[1] = wrect.top + 30;

	mov	eax, DWORD PTR _wrect$[ebp+4]
	add	eax, 30					; 0000001eH
	mov	ecx, 4
	shl	ecx, 0
	mov	DWORD PTR ?extent@?1??VGUI_GetRect@@YAPAHXZ@4PAHA[ecx], eax

; 263  : 			extent[2] = wrect.right - 4;

	mov	eax, DWORD PTR _wrect$[ebp+8]
	sub	eax, 4
	mov	ecx, 4
	shl	ecx, 1
	mov	DWORD PTR ?extent@?1??VGUI_GetRect@@YAPAHXZ@4PAHA[ecx], eax

; 264  : 			extent[3] = wrect.bottom - 4;

	mov	eax, DWORD PTR _wrect$[ebp+12]
	sub	eax, 4
	mov	ecx, 4
	imul	edx, ecx, 3
	mov	DWORD PTR ?extent@?1??VGUI_GetRect@@YAPAHXZ@4PAHA[edx], eax
$LN2@VGUI_GetRe:

; 265  : 		}
; 266  : 	}
; 267  : 	return extent;	

	mov	eax, OFFSET ?extent@?1??VGUI_GetRect@@YAPAHXZ@4PAHA

; 268  : }

	pop	edi
	pop	esi
	pop	ebx
	mov	ecx, DWORD PTR __$ArrayPad$[ebp]
	xor	ecx, ebp
	call	@__security_check_cookie@4
	mov	esp, ebp
	pop	ebp
	ret	0
?VGUI_GetRect@@YAPAHXZ ENDP				; VGUI_GetRect
_TEXT	ENDS
; Function compile flags: /Odtp /ZI
; File d:\!diffusion 2020\source code 2022\client-server\client\cdll_int.cpp
;	COMDAT ?HUD_Reset@@YAXXZ
_TEXT	SEGMENT
?HUD_Reset@@YAXXZ PROC					; HUD_Reset, COMDAT

; 239  : {

	push	ebp
	mov	ebp, esp
	sub	esp, 64					; 00000040H
	push	ebx
	push	esi
	push	edi

; 240  : 	gHUD.VidInit();

	mov	ecx, OFFSET ?gHUD@@3VCHud@@A		; gHUD
	call	?VidInit@CHud@@QAEXXZ			; CHud::VidInit

; 241  : }

	pop	edi
	pop	esi
	pop	ebx
	mov	esp, ebp
	pop	ebp
	ret	0
?HUD_Reset@@YAXXZ ENDP					; HUD_Reset
_TEXT	ENDS
; Function compile flags: /Odtp /ZI
; File d:\!diffusion 2020\source code 2022\client-server\client\cdll_int.cpp
;	COMDAT ?HUD_UpdateClientData@@YAHPAUclient_data_s@@M@Z
_TEXT	SEGMENT
_pcldata$ = 8						; size = 4
_flTime$ = 12						; size = 4
?HUD_UpdateClientData@@YAHPAUclient_data_s@@M@Z PROC	; HUD_UpdateClientData, COMDAT

; 227  : {

	push	ebp
	mov	ebp, esp
	sub	esp, 64					; 00000040H
	push	ebx
	push	esi
	push	edi

; 228  : 	return gHUD.UpdateClientData( pcldata, flTime );

	push	ecx
	movss	xmm0, DWORD PTR _flTime$[ebp]
	movss	DWORD PTR [esp], xmm0
	mov	eax, DWORD PTR _pcldata$[ebp]
	push	eax
	mov	ecx, OFFSET ?gHUD@@3VCHud@@A		; gHUD
	call	?UpdateClientData@CHud@@QAEHPAUclient_data_s@@M@Z ; CHud::UpdateClientData

; 229  : }

	pop	edi
	pop	esi
	pop	ebx
	mov	esp, ebp
	pop	ebp
	ret	0
?HUD_UpdateClientData@@YAHPAUclient_data_s@@M@Z ENDP	; HUD_UpdateClientData
_TEXT	ENDS
; Function compile flags: /Odtp /ZI
; File d:\!diffusion 2020\source code 2022\client-server\client\cdll_int.cpp
;	COMDAT ?HUD_Redraw@@YAHMH@Z
_TEXT	SEGMENT
_time$ = 8						; size = 4
_intermission$ = 12					; size = 4
?HUD_Redraw@@YAHMH@Z PROC				; HUD_Redraw, COMDAT

; 210  : {

	push	ebp
	mov	ebp, esp
	sub	esp, 64					; 00000040H
	push	ebx
	push	esi
	push	edi

; 211  : 	return gHUD.Redraw( time, intermission );

	mov	eax, DWORD PTR _intermission$[ebp]
	push	eax
	push	ecx
	movss	xmm0, DWORD PTR _time$[ebp]
	movss	DWORD PTR [esp], xmm0
	mov	ecx, OFFSET ?gHUD@@3VCHud@@A		; gHUD
	call	?Redraw@CHud@@QAEHMH@Z			; CHud::Redraw

; 212  : }

	pop	edi
	pop	esi
	pop	ebx
	mov	esp, ebp
	pop	ebp
	ret	0
?HUD_Redraw@@YAHMH@Z ENDP				; HUD_Redraw
_TEXT	ENDS
; Function compile flags: /Odtp /ZI
; File d:\!diffusion 2020\source code 2022\client-server\client\cdll_int.cpp
;	COMDAT ?HUD_Shutdown@@YAXXZ
_TEXT	SEGMENT
tv71 = -76						; size = 4
$T1 = -72						; size = 4
$T2 = -68						; size = 4
?HUD_Shutdown@@YAXXZ PROC				; HUD_Shutdown, COMDAT

; 185  : {

	push	ebp
	mov	ebp, esp
	sub	esp, 76					; 0000004cH
	push	ebx
	push	esi
	push	edi

; 186  : 	// diffusion - save achievement stats
; 187  : 	gHUD.m_StatusIconsAchievement.SaveAchievementFile();

	mov	ecx, OFFSET ?gHUD@@3VCHud@@A+2004
	call	?SaveAchievementFile@CHudAchievement@@QAEXXZ ; CHudAchievement::SaveAchievementFile

; 188  : 	
; 189  : 	ShutdownInput();

	call	?ShutdownInput@@YAXXZ			; ShutdownInput

; 190  : 
; 191  : 	if( g_fRenderInitialized )

	cmp	DWORD PTR ?g_fRenderInitialized@@3HA, 0	; g_fRenderInitialized
	je	SHORT $LN2@HUD_Shutdo

; 192  : 		R_Shutdown();

	call	?R_Shutdown@@YAXXZ			; R_Shutdown
$LN2@HUD_Shutdo:

; 193  : 
; 194  : 	if( g_pParticleSystems )

	cmp	DWORD PTR ?g_pParticleSystems@@3PAVCParticleSystemManager@@A, 0 ; g_pParticleSystems
	je	SHORT $LN1@HUD_Shutdo

; 195  : 	{
; 196  : 		delete g_pParticleSystems;

	mov	eax, DWORD PTR ?g_pParticleSystems@@3PAVCParticleSystemManager@@A ; g_pParticleSystems
	mov	DWORD PTR $T1[ebp], eax
	mov	ecx, DWORD PTR $T1[ebp]
	mov	DWORD PTR $T2[ebp], ecx
	cmp	DWORD PTR $T2[ebp], 0
	je	SHORT $LN5@HUD_Shutdo
	push	1
	mov	ecx, DWORD PTR $T2[ebp]
	call	??_GCParticleSystemManager@@QAEPAXI@Z
	mov	DWORD PTR tv71[ebp], eax
	jmp	SHORT $LN6@HUD_Shutdo
$LN5@HUD_Shutdo:
	mov	DWORD PTR tv71[ebp], 0
$LN6@HUD_Shutdo:

; 197  : 		g_pParticleSystems = NULL;

	mov	DWORD PTR ?g_pParticleSystems@@3PAVCParticleSystemManager@@A, 0 ; g_pParticleSystems
$LN1@HUD_Shutdo:

; 198  : 	}
; 199  : }

	pop	edi
	pop	esi
	pop	ebx
	mov	esp, ebp
	pop	ebp
	ret	0
?HUD_Shutdown@@YAXXZ ENDP				; HUD_Shutdown
_TEXT	ENDS
; Function compile flags: /Odtp /ZI
; File d:\!diffusion 2020\source code 2022\client-server\client\cdll_int.cpp
;	COMDAT ?HUD_Init@@YAXXZ
_TEXT	SEGMENT
tv77 = -88						; size = 4
$T2 = -84						; size = 4
$T3 = -80						; size = 4
__$EHRec$ = -12						; size = 12
?HUD_Init@@YAXXZ PROC					; HUD_Init, COMDAT

; 170  : {

	push	ebp
	mov	ebp, esp
	push	-1
	push	__ehhandler$?HUD_Init@@YAXXZ
	mov	eax, DWORD PTR fs:0
	push	eax
	sub	esp, 76					; 0000004cH
	push	ebx
	push	esi
	push	edi
	mov	eax, DWORD PTR ___security_cookie
	xor	eax, ebp
	push	eax
	lea	eax, DWORD PTR __$EHRec$[ebp]
	mov	DWORD PTR fs:0, eax

; 171  : 	InitInput();

	call	?InitInput@@YAXXZ			; InitInput

; 172  : 	gHUD.Init();

	mov	ecx, OFFSET ?gHUD@@3VCHud@@A		; gHUD
	call	?Init@CHud@@QAEXXZ			; CHud::Init

; 173  : 
; 174  : 	if( g_fRenderInitialized )

	cmp	DWORD PTR ?g_fRenderInitialized@@3HA, 0	; g_fRenderInitialized
	je	SHORT $LN2@HUD_Init

; 175  : 		R_Init();

	call	?R_Init@@YA_NXZ				; R_Init
$LN2@HUD_Init:

; 176  : 
; 177  : 	// particles allowed in anyway
; 178  : 	g_pParticleSystems = new CParticleSystemManager();

	push	4
	call	??2@YAPAXI@Z				; operator new
	add	esp, 4
	mov	DWORD PTR $T2[ebp], eax
	mov	DWORD PTR __$EHRec$[ebp+8], 0
	cmp	DWORD PTR $T2[ebp], 0
	je	SHORT $LN4@HUD_Init
	mov	ecx, DWORD PTR $T2[ebp]
	call	??0CParticleSystemManager@@QAE@XZ	; CParticleSystemManager::CParticleSystemManager
	mov	DWORD PTR tv77[ebp], eax
	jmp	SHORT $LN5@HUD_Init
$LN4@HUD_Init:
	mov	DWORD PTR tv77[ebp], 0
$LN5@HUD_Init:
	mov	eax, DWORD PTR tv77[ebp]
	mov	DWORD PTR $T3[ebp], eax
	mov	DWORD PTR __$EHRec$[ebp+8], -1
	mov	ecx, DWORD PTR $T3[ebp]
	mov	DWORD PTR ?g_pParticleSystems@@3PAVCParticleSystemManager@@A, ecx ; g_pParticleSystems

; 179  : 
; 180  : 	// diffusion - load achievement stats
; 181  : 	gHUD.m_StatusIconsAchievement.LoadAchievementFile();

	mov	ecx, OFFSET ?gHUD@@3VCHud@@A+2004
	call	?LoadAchievementFile@CHudAchievement@@QAEXXZ ; CHudAchievement::LoadAchievementFile

; 182  : }

	mov	ecx, DWORD PTR __$EHRec$[ebp]
	mov	DWORD PTR fs:0, ecx
	pop	ecx
	pop	edi
	pop	esi
	pop	ebx
	mov	esp, ebp
	pop	ebp
	ret	0
_TEXT	ENDS
;	COMDAT text$x
text$x	SEGMENT
__unwindfunclet$?HUD_Init@@YAXXZ$0:
	push	4
	mov	eax, DWORD PTR $T2[ebp]
	push	eax
	call	??3@YAXPAXI@Z				; operator delete
	add	esp, 8
	ret	0
__ehhandler$?HUD_Init@@YAXXZ:
	mov	edx, DWORD PTR [esp+8]
	lea	eax, DWORD PTR [edx+12]
	mov	ecx, DWORD PTR [edx-92]
	xor	ecx, eax
	call	@__security_check_cookie@4
	mov	eax, OFFSET __ehfuncinfo$?HUD_Init@@YAXXZ
	jmp	___CxxFrameHandler3
text$x	ENDS
?HUD_Init@@YAXXZ ENDP					; HUD_Init
; Function compile flags: /Odtp /ZI
; File d:\!diffusion 2020\source code 2022\client-server\client\cdll_int.cpp
;	COMDAT ?HUD_VidInit@@YAHXZ
_TEXT	SEGMENT
?HUD_VidInit@@YAHXZ PROC				; HUD_VidInit, COMDAT

; 150  : {

	push	ebp
	mov	ebp, esp
	sub	esp, 64					; 00000040H
	push	ebx
	push	esi
	push	edi

; 151  : 	IN_ResetMouse(); // diffusion - don't mess with the spawn angles the first frame

	call	?IN_ResetMouse@@YAXXZ			; IN_ResetMouse

; 152  : 	
; 153  : 	gHUD.VidInit();

	mov	ecx, OFFSET ?gHUD@@3VCHud@@A		; gHUD
	call	?VidInit@CHud@@QAEXXZ			; CHud::VidInit

; 154  : 
; 155  : 	R_VidInit();

	call	?R_VidInit@@YAXXZ			; R_VidInit

; 156  : 
; 157  : 	return 1;

	mov	eax, 1

; 158  : }

	pop	edi
	pop	esi
	pop	ebx
	mov	esp, ebp
	pop	ebp
	ret	0
?HUD_VidInit@@YAHXZ ENDP				; HUD_VidInit
_TEXT	ENDS
; Function compile flags: /Odtp /ZI
; File d:\!diffusion 2020\source code 2022\client-server\client\cdll_int.cpp
;	COMDAT ?Initialize@@YAHPAUcl_enginefuncs_s@@H@Z
_TEXT	SEGMENT
_pEnginefuncs$ = 8					; size = 4
_iVersion$ = 12						; size = 4
?Initialize@@YAHPAUcl_enginefuncs_s@@H@Z PROC		; Initialize, COMDAT

; 114  : {

	push	ebp
	mov	ebp, esp
	sub	esp, 64					; 00000040H
	push	ebx
	push	esi
	push	edi

; 115  : 	gEngfuncs = *pEnginefuncs;

	mov	ecx, 134				; 00000086H
	mov	esi, DWORD PTR _pEnginefuncs$[ebp]
	mov	edi, OFFSET ?gEngfuncs@@3Ucl_enginefuncs_s@@A ; gEngfuncs
	rep movsd

; 116  : 
; 117  : 	if( iVersion != CLDLL_INTERFACE_VERSION )

	cmp	DWORD PTR _iVersion$[ebp], 7
	je	SHORT $LN2@Initialize

; 118  : 		return 0;

	xor	eax, eax
	jmp	$LN1@Initialize
$LN2@Initialize:

; 119  : 
; 120  : 	memcpy( &gEngfuncs, pEnginefuncs, sizeof( cl_enginefunc_t ));

	push	536					; 00000218H
	mov	eax, DWORD PTR _pEnginefuncs$[ebp]
	push	eax
	push	OFFSET ?gEngfuncs@@3Ucl_enginefuncs_s@@A ; gEngfuncs
	call	_memcpy
	add	esp, 12					; 0000000cH

; 121  : 
; 122  : 	// get developer level
; 123  : 	developer_level = (int)CVAR_GET_FLOAT( "developer" );

	push	OFFSET ??_C@_09DNECJBKD@developer?$AA@
	call	DWORD PTR ?gEngfuncs@@3Ucl_enginefuncs_s@@A+60
	add	esp, 4
	call	__ftol2_sse
	mov	DWORD PTR ?developer_level@@3HA, eax	; developer_level

; 124  : 
; 125  : 	if( !CVAR_GET_POINTER( "host_clientloaded" ))

	push	OFFSET ??_C@_0BC@CKKMCGJ@host_clientloaded?$AA@
	call	DWORD PTR ?gEngfuncs@@3Ucl_enginefuncs_s@@A+288
	add	esp, 4
	test	eax, eax
	jne	SHORT $LN3@Initialize

; 126  : 		return 0;	// Not a Xash3D engine

	xor	eax, eax
	jmp	SHORT $LN1@Initialize
$LN3@Initialize:

; 127  : 
; 128  : 	g_iXashEngineBuildNumber = (int)CVAR_GET_FLOAT( "build" ); // 0 for old builds or GoldSrc

	push	OFFSET ??_C@_05DMEBLLNM@build?$AA@
	call	DWORD PTR ?gEngfuncs@@3Ucl_enginefuncs_s@@A+60
	add	esp, 4
	call	__ftol2_sse
	mov	DWORD PTR ?g_iXashEngineBuildNumber@@3HA, eax ; g_iXashEngineBuildNumber

; 129  : 	if( g_iXashEngineBuildNumber <= 0 )

	cmp	DWORD PTR ?g_iXashEngineBuildNumber@@3HA, 0 ; g_iXashEngineBuildNumber
	jg	SHORT $LN4@Initialize

; 130  : 		g_iXashEngineBuildNumber = (int)CVAR_GET_FLOAT( "buildnum" );

	push	OFFSET ??_C@_08NLOJPFHM@buildnum?$AA@
	call	DWORD PTR ?gEngfuncs@@3Ucl_enginefuncs_s@@A+60
	add	esp, 4
	call	__ftol2_sse
	mov	DWORD PTR ?g_iXashEngineBuildNumber@@3HA, eax ; g_iXashEngineBuildNumber
$LN4@Initialize:

; 131  : 
; 132  : 	// diffusion - execute mod-specific stuff
; 133  : 	ClientCmd( "exec diffusion.cfg\n" );

	push	OFFSET ??_C@_0BE@MIINDMFA@exec?5diffusion?4cfg?6?$AA@
	call	DWORD PTR ?gEngfuncs@@3Ucl_enginefuncs_s@@A+80
	add	esp, 4

; 134  : 
; 135  : 	// diffusion - check name
; 136  : 
; 137  : 	return 1;

	mov	eax, 1
$LN1@Initialize:

; 138  : }

	pop	edi
	pop	esi
	pop	ebx
	mov	esp, ebp
	pop	ebp
	ret	0
?Initialize@@YAHPAUcl_enginefuncs_s@@H@Z ENDP		; Initialize
_TEXT	ENDS
; Function compile flags: /Odtp /ZI
; File d:\!diffusion 2020\source code 2022\client-server\client\cdll_int.cpp
;	COMDAT ?HUD_PlayerMove@@YAXPAUplayermove_s@@H@Z
_TEXT	SEGMENT
_ppmove$ = 8						; size = 4
_server$ = 12						; size = 4
?HUD_PlayerMove@@YAXPAUplayermove_s@@H@Z PROC		; HUD_PlayerMove, COMDAT

; 109  : {

	push	ebp
	mov	ebp, esp
	sub	esp, 64					; 00000040H
	push	ebx
	push	esi
	push	edi

; 110  : 	PM_Move( ppmove, server );

	mov	eax, DWORD PTR _server$[ebp]
	push	eax
	mov	ecx, DWORD PTR _ppmove$[ebp]
	push	ecx
	call	?PM_Move@@YAXPAUplayermove_s@@H@Z	; PM_Move
	add	esp, 8

; 111  : }

	pop	edi
	pop	esi
	pop	ebx
	mov	esp, ebp
	pop	ebp
	ret	0
?HUD_PlayerMove@@YAXPAUplayermove_s@@H@Z ENDP		; HUD_PlayerMove
_TEXT	ENDS
; Function compile flags: /Odtp /ZI
; File d:\!diffusion 2020\source code 2022\client-server\client\cdll_int.cpp
;	COMDAT ?HUD_PlayerMoveTexture@@YADPAD@Z
_TEXT	SEGMENT
_name$ = 8						; size = 4
?HUD_PlayerMoveTexture@@YADPAD@Z PROC			; HUD_PlayerMoveTexture, COMDAT

; 104  : {

	push	ebp
	mov	ebp, esp
	sub	esp, 64					; 00000040H
	push	ebx
	push	esi
	push	edi

; 105  : 	return PM_FindTextureType( name );

	mov	eax, DWORD PTR _name$[ebp]
	push	eax
	call	?PM_FindTextureType@@YADPAD@Z		; PM_FindTextureType
	add	esp, 4

; 106  : }

	pop	edi
	pop	esi
	pop	ebx
	mov	esp, ebp
	pop	ebp
	ret	0
?HUD_PlayerMoveTexture@@YADPAD@Z ENDP			; HUD_PlayerMoveTexture
_TEXT	ENDS
; Function compile flags: /Odtp /ZI
; File d:\!diffusion 2020\source code 2022\client-server\client\cdll_int.cpp
;	COMDAT ?HUD_PlayerMoveInit@@YAXPAUplayermove_s@@@Z
_TEXT	SEGMENT
_ppmove$ = 8						; size = 4
?HUD_PlayerMoveInit@@YAXPAUplayermove_s@@@Z PROC	; HUD_PlayerMoveInit, COMDAT

; 99   : {

	push	ebp
	mov	ebp, esp
	sub	esp, 64					; 00000040H
	push	ebx
	push	esi
	push	edi

; 100  : 	PM_Init( ppmove );

	mov	eax, DWORD PTR _ppmove$[ebp]
	push	eax
	call	?PM_Init@@YAXPAUplayermove_s@@@Z	; PM_Init
	add	esp, 4

; 101  : }

	pop	edi
	pop	esi
	pop	ebx
	mov	esp, ebp
	pop	ebp
	ret	0
?HUD_PlayerMoveInit@@YAXPAUplayermove_s@@@Z ENDP	; HUD_PlayerMoveInit
_TEXT	ENDS
; Function compile flags: /Odtp /ZI
; File d:\!diffusion 2020\source code 2022\client-server\client\cdll_int.cpp
;	COMDAT ?HUD_ConnectionlessPacket@@YAHPBUnetadr_s@@PBDPADPAH@Z
_TEXT	SEGMENT
_max_buffer_size$ = -4					; size = 4
___formal$ = 8						; size = 4
___formal$ = 12						; size = 4
___formal$ = 16						; size = 4
_response_buffer_size$ = 20				; size = 4
?HUD_ConnectionlessPacket@@YAHPBUnetadr_s@@PBDPADPAH@Z PROC ; HUD_ConnectionlessPacket, COMDAT

; 85   : {

	push	ebp
	mov	ebp, esp
	sub	esp, 68					; 00000044H
	push	ebx
	push	esi
	push	edi

; 86   : 	// Parse stuff from args
; 87   : 	int max_buffer_size = *response_buffer_size;

	mov	eax, DWORD PTR _response_buffer_size$[ebp]
	mov	ecx, DWORD PTR [eax]
	mov	DWORD PTR _max_buffer_size$[ebp], ecx

; 88   : 
; 89   : 	// Zero it out since we aren't going to respond.
; 90   : 	// If we wanted to response, we'd write data into response_buffer
; 91   : 	*response_buffer_size = 0;

	mov	eax, DWORD PTR _response_buffer_size$[ebp]
	mov	DWORD PTR [eax], 0

; 92   : 
; 93   : 	// Since we don't listen for anything here, just respond that it's a bogus message
; 94   : 	// If we didn't reject the message, we'd return 1 for success instead.
; 95   : 	return 0;

	xor	eax, eax

; 96   : }

	pop	edi
	pop	esi
	pop	ebx
	mov	esp, ebp
	pop	ebp
	ret	0
?HUD_ConnectionlessPacket@@YAHPBUnetadr_s@@PBDPADPAH@Z ENDP ; HUD_ConnectionlessPacket
_TEXT	ENDS
; Function compile flags: /Odtp /ZI
; File d:\!diffusion 2020\source code 2022\client-server\client\cdll_int.cpp
;	COMDAT ?HUD_GetHullBounds@@YAHHPAM0@Z
_TEXT	SEGMENT
tv64 = -120						; size = 4
$T1 = -116						; size = 12
$T2 = -104						; size = 12
$T3 = -92						; size = 12
$T4 = -80						; size = 12
_iret$ = -4						; size = 4
_hullnumber$ = 8					; size = 4
_mins$ = 12						; size = 4
_maxs$ = 16						; size = 4
?HUD_GetHullBounds@@YAHHPAM0@Z PROC			; HUD_GetHullBounds, COMDAT

; 52   : {

	push	ebp
	mov	ebp, esp
	sub	esp, 120				; 00000078H
	push	ebx
	push	esi
	push	edi

; 53   : 	int iret = 0;

	mov	DWORD PTR _iret$[ebp], 0

; 54   : 
; 55   : 	switch( hullnumber )

	mov	eax, DWORD PTR _hullnumber$[ebp]
	mov	DWORD PTR tv64[ebp], eax
	cmp	DWORD PTR tv64[ebp], 0
	je	SHORT $LN4@HUD_GetHul
	cmp	DWORD PTR tv64[ebp], 1
	je	$LN5@HUD_GetHul
	cmp	DWORD PTR tv64[ebp], 2
	je	$LN6@HUD_GetHul
	jmp	$LN2@HUD_GetHul
$LN4@HUD_GetHul:

; 56   : 	{
; 57   : 	case 0:	// Normal player
; 58   : 		Vector( -16, -16, -36 ).CopyToArray( mins );

	mov	eax, DWORD PTR _mins$[ebp]
	push	eax
	push	ecx
	movss	xmm0, DWORD PTR __real@c2100000
	movss	DWORD PTR [esp], xmm0
	push	ecx
	movss	xmm0, DWORD PTR __real@c1800000
	movss	DWORD PTR [esp], xmm0
	push	ecx
	movss	xmm0, DWORD PTR __real@c1800000
	movss	DWORD PTR [esp], xmm0
	lea	ecx, DWORD PTR $T4[ebp]
	call	??0Vector@@QAE@MMM@Z			; Vector::Vector
	mov	ecx, eax
	call	?CopyToArray@Vector@@QBEXPAM@Z		; Vector::CopyToArray

; 59   : 		Vector(  16,  16,  36 ).CopyToArray( maxs );

	mov	eax, DWORD PTR _maxs$[ebp]
	push	eax
	push	ecx
	movss	xmm0, DWORD PTR __real@42100000
	movss	DWORD PTR [esp], xmm0
	push	ecx
	movss	xmm0, DWORD PTR __real@41800000
	movss	DWORD PTR [esp], xmm0
	push	ecx
	movss	xmm0, DWORD PTR __real@41800000
	movss	DWORD PTR [esp], xmm0
	lea	ecx, DWORD PTR $T3[ebp]
	call	??0Vector@@QAE@MMM@Z			; Vector::Vector
	mov	ecx, eax
	call	?CopyToArray@Vector@@QBEXPAM@Z		; Vector::CopyToArray

; 60   : 		iret = 1;

	mov	DWORD PTR _iret$[ebp], 1

; 61   : 		break;

	jmp	$LN2@HUD_GetHul
$LN5@HUD_GetHul:

; 62   : 	case 1:	// Crouched player
; 63   : 		Vector( -16, -16, -18 ).CopyToArray( mins );

	mov	eax, DWORD PTR _mins$[ebp]
	push	eax
	push	ecx
	movss	xmm0, DWORD PTR __real@c1900000
	movss	DWORD PTR [esp], xmm0
	push	ecx
	movss	xmm0, DWORD PTR __real@c1800000
	movss	DWORD PTR [esp], xmm0
	push	ecx
	movss	xmm0, DWORD PTR __real@c1800000
	movss	DWORD PTR [esp], xmm0
	lea	ecx, DWORD PTR $T2[ebp]
	call	??0Vector@@QAE@MMM@Z			; Vector::Vector
	mov	ecx, eax
	call	?CopyToArray@Vector@@QBEXPAM@Z		; Vector::CopyToArray

; 64   : 		Vector(  16,  16,  18 ).CopyToArray( maxs );

	mov	eax, DWORD PTR _maxs$[ebp]
	push	eax
	push	ecx
	movss	xmm0, DWORD PTR __real@41900000
	movss	DWORD PTR [esp], xmm0
	push	ecx
	movss	xmm0, DWORD PTR __real@41800000
	movss	DWORD PTR [esp], xmm0
	push	ecx
	movss	xmm0, DWORD PTR __real@41800000
	movss	DWORD PTR [esp], xmm0
	lea	ecx, DWORD PTR $T1[ebp]
	call	??0Vector@@QAE@MMM@Z			; Vector::Vector
	mov	ecx, eax
	call	?CopyToArray@Vector@@QBEXPAM@Z		; Vector::CopyToArray

; 65   : 		iret = 1;

	mov	DWORD PTR _iret$[ebp], 1

; 66   : 		break;

	jmp	SHORT $LN2@HUD_GetHul
$LN6@HUD_GetHul:

; 67   : 	case 2:	// Point based hull
; 68   : 		g_vecZero.CopyToArray( mins );

	mov	eax, DWORD PTR _mins$[ebp]
	push	eax
	mov	ecx, OFFSET ?g_vecZero@@3VVector@@B	; g_vecZero
	call	?CopyToArray@Vector@@QBEXPAM@Z		; Vector::CopyToArray

; 69   : 		g_vecZero.CopyToArray( maxs );

	mov	eax, DWORD PTR _maxs$[ebp]
	push	eax
	mov	ecx, OFFSET ?g_vecZero@@3VVector@@B	; g_vecZero
	call	?CopyToArray@Vector@@QBEXPAM@Z		; Vector::CopyToArray

; 70   : 		iret = 1;

	mov	DWORD PTR _iret$[ebp], 1
$LN2@HUD_GetHul:

; 71   : 		break;
; 72   : 	}
; 73   : 	return iret;

	mov	eax, DWORD PTR _iret$[ebp]

; 74   : }

	pop	edi
	pop	esi
	pop	ebx
	mov	esp, ebp
	pop	ebp
	ret	0
?HUD_GetHullBounds@@YAHHPAM0@Z ENDP			; HUD_GetHullBounds
_TEXT	ENDS
; Function compile flags: /Odtp /ZI
;	COMDAT ??__FgHUD@@YAXXZ
text$yd	SEGMENT
??__FgHUD@@YAXXZ PROC					; `dynamic atexit destructor for 'gHUD'', COMDAT
	push	ebp
	mov	ebp, esp
	sub	esp, 64					; 00000040H
	push	ebx
	push	esi
	push	edi
	mov	ecx, OFFSET ?gHUD@@3VCHud@@A		; gHUD
	call	??1CHud@@QAE@XZ				; CHud::~CHud
	pop	edi
	pop	esi
	pop	ebx
	mov	esp, ebp
	pop	ebp
	ret	0
??__FgHUD@@YAXXZ ENDP					; `dynamic atexit destructor for 'gHUD''
text$yd	ENDS
; Function compile flags: /Odtp /ZI
; File d:\!diffusion 2020\source code 2022\client-server\client\cdll_int.cpp
;	COMDAT ??__EgHUD@@YAXXZ
text$di	SEGMENT
??__EgHUD@@YAXXZ PROC					; `dynamic initializer for 'gHUD'', COMDAT

; 35   : CHud gHUD;

	push	ebp
	mov	ebp, esp
	sub	esp, 64					; 00000040H
	push	ebx
	push	esi
	push	edi
	mov	ecx, OFFSET ?gHUD@@3VCHud@@A		; gHUD
	call	??0CHud@@QAE@XZ				; CHud::CHud
	push	OFFSET ??__FgHUD@@YAXXZ			; `dynamic atexit destructor for 'gHUD''
	call	_atexit
	add	esp, 4
	pop	edi
	pop	esi
	pop	ebx
	mov	esp, ebp
	pop	ebp
	ret	0
??__EgHUD@@YAXXZ ENDP					; `dynamic initializer for 'gHUD''
text$di	ENDS
; Function compile flags: /Odtp /ZI
;	COMDAT ??_GCParticleSystemManager@@QAEPAXI@Z
_TEXT	SEGMENT
_this$ = -4						; size = 4
___flags$ = 8						; size = 4
??_GCParticleSystemManager@@QAEPAXI@Z PROC		; CParticleSystemManager::`scalar deleting destructor', COMDAT
; _this$ = ecx
	push	ebp
	mov	ebp, esp
	sub	esp, 68					; 00000044H
	push	ebx
	push	esi
	push	edi
	mov	DWORD PTR _this$[ebp], ecx
	mov	ecx, DWORD PTR _this$[ebp]
	call	??1CParticleSystemManager@@QAE@XZ	; CParticleSystemManager::~CParticleSystemManager
	mov	eax, DWORD PTR ___flags$[ebp]
	and	eax, 1
	je	SHORT $LN2@scalar
	push	4
	mov	eax, DWORD PTR _this$[ebp]
	push	eax
	call	??3@YAXPAXI@Z				; operator delete
	add	esp, 8
$LN2@scalar:
	mov	eax, DWORD PTR _this$[ebp]
	pop	edi
	pop	esi
	pop	ebx
	mov	esp, ebp
	pop	ebp
	ret	4
??_GCParticleSystemManager@@QAEPAXI@Z ENDP		; CParticleSystemManager::`scalar deleting destructor'
_TEXT	ENDS
; Function compile flags: /Odtp /ZI
; File d:\!diffusion 2020\source code 2022\client-server\client\hud.h
;	COMDAT ??0CHud@@QAE@XZ
_TEXT	SEGMENT
_this$ = -16						; size = 4
__$EHRec$ = -12						; size = 12
??0CHud@@QAE@XZ PROC					; CHud::CHud, COMDAT
; _this$ = ecx

; 995  : 	CHud() : m_iSpriteCount(0), m_pHudList(NULL) {}

	push	ebp
	mov	ebp, esp
	push	-1
	push	__ehhandler$??0CHud@@QAE@XZ
	mov	eax, DWORD PTR fs:0
	push	eax
	sub	esp, 68					; 00000044H
	push	ebx
	push	esi
	push	edi
	mov	eax, DWORD PTR ___security_cookie
	xor	eax, ebp
	push	eax
	lea	eax, DWORD PTR __$EHRec$[ebp]
	mov	DWORD PTR fs:0, eax
	mov	DWORD PTR _this$[ebp], ecx
	mov	eax, DWORD PTR _this$[ebp]
	mov	DWORD PTR [eax], 0
	mov	eax, DWORD PTR _this$[ebp]
	mov	DWORD PTR [eax+8], 0
	mov	ecx, DWORD PTR _this$[ebp]
	add	ecx, 48					; 00000030H
	call	??0Vector@@QAE@XZ			; Vector::Vector
	mov	ecx, DWORD PTR _this$[ebp]
	add	ecx, 60					; 0000003cH
	call	??0Vector@@QAE@XZ			; Vector::Vector
	mov	ecx, DWORD PTR _this$[ebp]
	add	ecx, 144				; 00000090H
	call	??0Vector2D@@QAE@XZ			; Vector2D::Vector2D
	mov	ecx, DWORD PTR _this$[ebp]
	add	ecx, 176				; 000000b0H
	call	??0screen_shake_t@CHud@@QAE@XZ
	mov	ecx, DWORD PTR _this$[ebp]
	add	ecx, 240				; 000000f0H
	call	??0CHudAmmo@@QAE@XZ
	mov	DWORD PTR __$EHRec$[ebp+8], 0
	mov	ecx, DWORD PTR _this$[ebp]
	add	ecx, 276				; 00000114H
	call	??0CHudHealth@@QAE@XZ
	mov	BYTE PTR __$EHRec$[ebp+8], 1
	mov	ecx, DWORD PTR _this$[ebp]
	add	ecx, 476				; 000001dcH
	call	??0CHudGeiger@@QAE@XZ
	mov	BYTE PTR __$EHRec$[ebp+8], 2
	mov	ecx, DWORD PTR _this$[ebp]
	add	ecx, 488				; 000001e8H
	call	??0CHudTrain@@QAE@XZ
	mov	BYTE PTR __$EHRec$[ebp+8], 3
	mov	ecx, DWORD PTR _this$[ebp]
	add	ecx, 504				; 000001f8H
	call	??0CHudFlashlight@@QAE@XZ
	mov	BYTE PTR __$EHRec$[ebp+8], 4
	mov	ecx, DWORD PTR _this$[ebp]
	add	ecx, 552				; 00000228H
	call	??0CHudMessage@@QAE@XZ
	mov	BYTE PTR __$EHRec$[ebp+8], 5
	mov	ecx, DWORD PTR _this$[ebp]
	add	ecx, 772				; 00000304H
	call	??0CHudScoreboard@@QAE@XZ
	mov	BYTE PTR __$EHRec$[ebp+8], 6
	mov	ecx, DWORD PTR _this$[ebp]
	add	ecx, 808				; 00000328H
	call	??0CHudStatusBar@@QAE@XZ
	mov	BYTE PTR __$EHRec$[ebp+8], 7
	mov	ecx, DWORD PTR _this$[ebp]
	add	ecx, 1372				; 0000055cH
	call	??0CHudDeathNotice@@QAE@XZ
	mov	BYTE PTR __$EHRec$[ebp+8], 8
	mov	ecx, DWORD PTR _this$[ebp]
	add	ecx, 1384				; 00000568H
	call	??0CHudSayText@@QAE@XZ
	mov	BYTE PTR __$EHRec$[ebp+8], 9
	mov	ecx, DWORD PTR _this$[ebp]
	add	ecx, 1400				; 00000578H
	call	??0CHudMenu@@QAE@XZ
	mov	BYTE PTR __$EHRec$[ebp+8], 10		; 0000000aH
	mov	ecx, DWORD PTR _this$[ebp]
	add	ecx, 1424				; 00000590H
	call	??0CHudAmmoSecondary@@QAE@XZ
	mov	BYTE PTR __$EHRec$[ebp+8], 11		; 0000000bH
	mov	ecx, DWORD PTR _this$[ebp]
	add	ecx, 1456				; 000005b0H
	call	??0CHudTextMessage@@QAE@XZ
	mov	BYTE PTR __$EHRec$[ebp+8], 12		; 0000000cH
	mov	ecx, DWORD PTR _this$[ebp]
	add	ecx, 1464				; 000005b8H
	call	??0CHudStatusIcons@@QAE@XZ
	mov	BYTE PTR __$EHRec$[ebp+8], 13		; 0000000dH
	mov	ecx, DWORD PTR _this$[ebp]
	add	ecx, 1924				; 00000784H
	call	??0CHudTutorial@@QAE@XZ
	mov	BYTE PTR __$EHRec$[ebp+8], 14		; 0000000eH
	mov	ecx, DWORD PTR _this$[ebp]
	add	ecx, 2004				; 000007d4H
	call	??0CHudAchievement@@QAE@XZ
	mov	BYTE PTR __$EHRec$[ebp+8], 15		; 0000000fH
	mov	ecx, DWORD PTR _this$[ebp]
	add	ecx, 5584				; 000015d0H
	call	??0CHudMOTD@@QAE@XZ
	mov	BYTE PTR __$EHRec$[ebp+8], 16		; 00000010H
	mov	ecx, DWORD PTR _this$[ebp]
	add	ecx, 7140				; 00001be4H
	call	??0CHudStamina@@QAE@XZ
	mov	BYTE PTR __$EHRec$[ebp+8], 17		; 00000011H
	mov	ecx, DWORD PTR _this$[ebp]
	add	ecx, 7180				; 00001c0cH
	call	??0CHudHealthVisual@@QAE@XZ
	mov	BYTE PTR __$EHRec$[ebp+8], 18		; 00000012H
	mov	ecx, DWORD PTR _this$[ebp]
	add	ecx, 7236				; 00001c44H
	call	??0CHudCrosshairStatic@@QAE@XZ
	mov	BYTE PTR __$EHRec$[ebp+8], 19		; 00000013H
	mov	ecx, DWORD PTR _this$[ebp]
	add	ecx, 7456				; 00001d20H
	call	??0CHudCrosshairStatic@@QAE@XZ
	mov	BYTE PTR __$EHRec$[ebp+8], 20		; 00000014H
	mov	ecx, DWORD PTR _this$[ebp]
	add	ecx, 7676				; 00001dfcH
	call	??0CZoom@@QAE@XZ
	mov	BYTE PTR __$EHRec$[ebp+8], 21		; 00000015H
	mov	ecx, DWORD PTR _this$[ebp]
	add	ecx, 7692				; 00001e0cH
	call	??0CUseIcon@@QAE@XZ
	mov	BYTE PTR __$EHRec$[ebp+8], 22		; 00000016H
	mov	ecx, DWORD PTR _this$[ebp]
	add	ecx, 7780				; 00001e64H
	call	??0CScreenEffects@@QAE@XZ
	mov	BYTE PTR __$EHRec$[ebp+8], 23		; 00000017H
	mov	ecx, DWORD PTR _this$[ebp]
	add	ecx, 7856				; 00001eb0H
	call	??0CHudBlastIcons@@QAE@XZ
	mov	BYTE PTR __$EHRec$[ebp+8], 24		; 00000018H
	mov	ecx, DWORD PTR _this$[ebp]
	add	ecx, 7912				; 00001ee8H
	call	??0CHudLensflare@@QAE@XZ
	mov	BYTE PTR __$EHRec$[ebp+8], 25		; 00000019H
	mov	ecx, DWORD PTR _this$[ebp]
	add	ecx, 8292				; 00002064H
	call	??0CHealthbars@@QAE@XZ
	mov	BYTE PTR __$EHRec$[ebp+8], 26		; 0000001aH
	mov	ecx, DWORD PTR _this$[ebp]
	add	ecx, 8344				; 00002098H
	call	??0CHudCodeInput@@QAE@XZ
	mov	DWORD PTR __$EHRec$[ebp+8], -1
	mov	eax, DWORD PTR _this$[ebp]
	mov	ecx, DWORD PTR __$EHRec$[ebp]
	mov	DWORD PTR fs:0, ecx
	pop	ecx
	pop	edi
	pop	esi
	pop	ebx
	mov	esp, ebp
	pop	ebp
	ret	0
_TEXT	ENDS
;	COMDAT text$x
text$x	SEGMENT
__unwindfunclet$??0CHud@@QAE@XZ$0:
	mov	ecx, DWORD PTR _this$[ebp]
	add	ecx, 240				; 000000f0H
	jmp	??1CHudAmmo@@UAE@XZ
__unwindfunclet$??0CHud@@QAE@XZ$1:
	mov	ecx, DWORD PTR _this$[ebp]
	add	ecx, 276				; 00000114H
	jmp	??1CHudHealth@@UAE@XZ
__unwindfunclet$??0CHud@@QAE@XZ$2:
	mov	ecx, DWORD PTR _this$[ebp]
	add	ecx, 476				; 000001dcH
	jmp	??1CHudGeiger@@UAE@XZ
__unwindfunclet$??0CHud@@QAE@XZ$3:
	mov	ecx, DWORD PTR _this$[ebp]
	add	ecx, 488				; 000001e8H
	jmp	??1CHudTrain@@UAE@XZ
__unwindfunclet$??0CHud@@QAE@XZ$4:
	mov	ecx, DWORD PTR _this$[ebp]
	add	ecx, 504				; 000001f8H
	jmp	??1CHudFlashlight@@UAE@XZ
__unwindfunclet$??0CHud@@QAE@XZ$5:
	mov	ecx, DWORD PTR _this$[ebp]
	add	ecx, 552				; 00000228H
	jmp	??1CHudMessage@@UAE@XZ
__unwindfunclet$??0CHud@@QAE@XZ$6:
	mov	ecx, DWORD PTR _this$[ebp]
	add	ecx, 772				; 00000304H
	jmp	??1CHudScoreboard@@UAE@XZ
__unwindfunclet$??0CHud@@QAE@XZ$7:
	mov	ecx, DWORD PTR _this$[ebp]
	add	ecx, 808				; 00000328H
	jmp	??1CHudStatusBar@@UAE@XZ
__unwindfunclet$??0CHud@@QAE@XZ$8:
	mov	ecx, DWORD PTR _this$[ebp]
	add	ecx, 1372				; 0000055cH
	jmp	??1CHudDeathNotice@@UAE@XZ
__unwindfunclet$??0CHud@@QAE@XZ$9:
	mov	ecx, DWORD PTR _this$[ebp]
	add	ecx, 1384				; 00000568H
	jmp	??1CHudSayText@@UAE@XZ
__unwindfunclet$??0CHud@@QAE@XZ$10:
	mov	ecx, DWORD PTR _this$[ebp]
	add	ecx, 1400				; 00000578H
	jmp	??1CHudMenu@@UAE@XZ
__unwindfunclet$??0CHud@@QAE@XZ$11:
	mov	ecx, DWORD PTR _this$[ebp]
	add	ecx, 1424				; 00000590H
	jmp	??1CHudAmmoSecondary@@UAE@XZ
__unwindfunclet$??0CHud@@QAE@XZ$12:
	mov	ecx, DWORD PTR _this$[ebp]
	add	ecx, 1456				; 000005b0H
	jmp	??1CHudTextMessage@@UAE@XZ
__unwindfunclet$??0CHud@@QAE@XZ$13:
	mov	ecx, DWORD PTR _this$[ebp]
	add	ecx, 1464				; 000005b8H
	jmp	??1CHudStatusIcons@@UAE@XZ
__unwindfunclet$??0CHud@@QAE@XZ$14:
	mov	ecx, DWORD PTR _this$[ebp]
	add	ecx, 1924				; 00000784H
	jmp	??1CHudTutorial@@UAE@XZ
__unwindfunclet$??0CHud@@QAE@XZ$15:
	mov	ecx, DWORD PTR _this$[ebp]
	add	ecx, 2004				; 000007d4H
	jmp	??1CHudAchievement@@UAE@XZ
__unwindfunclet$??0CHud@@QAE@XZ$16:
	mov	ecx, DWORD PTR _this$[ebp]
	add	ecx, 5584				; 000015d0H
	jmp	??1CHudMOTD@@UAE@XZ
__unwindfunclet$??0CHud@@QAE@XZ$17:
	mov	ecx, DWORD PTR _this$[ebp]
	add	ecx, 7140				; 00001be4H
	jmp	??1CHudStamina@@UAE@XZ
__unwindfunclet$??0CHud@@QAE@XZ$18:
	mov	ecx, DWORD PTR _this$[ebp]
	add	ecx, 7180				; 00001c0cH
	jmp	??1CHudHealthVisual@@UAE@XZ
__unwindfunclet$??0CHud@@QAE@XZ$19:
	mov	ecx, DWORD PTR _this$[ebp]
	add	ecx, 7236				; 00001c44H
	jmp	??1CHudCrosshairStatic@@UAE@XZ
__unwindfunclet$??0CHud@@QAE@XZ$20:
	mov	ecx, DWORD PTR _this$[ebp]
	add	ecx, 7456				; 00001d20H
	jmp	??1CHudCrosshairStatic@@UAE@XZ
__unwindfunclet$??0CHud@@QAE@XZ$21:
	mov	ecx, DWORD PTR _this$[ebp]
	add	ecx, 7676				; 00001dfcH
	jmp	??1CZoom@@UAE@XZ
__unwindfunclet$??0CHud@@QAE@XZ$22:
	mov	ecx, DWORD PTR _this$[ebp]
	add	ecx, 7692				; 00001e0cH
	jmp	??1CUseIcon@@UAE@XZ
__unwindfunclet$??0CHud@@QAE@XZ$23:
	mov	ecx, DWORD PTR _this$[ebp]
	add	ecx, 7780				; 00001e64H
	jmp	??1CScreenEffects@@UAE@XZ
__unwindfunclet$??0CHud@@QAE@XZ$24:
	mov	ecx, DWORD PTR _this$[ebp]
	add	ecx, 7856				; 00001eb0H
	jmp	??1CHudBlastIcons@@UAE@XZ
__unwindfunclet$??0CHud@@QAE@XZ$25:
	mov	ecx, DWORD PTR _this$[ebp]
	add	ecx, 7912				; 00001ee8H
	jmp	??1CHudLensflare@@UAE@XZ
__unwindfunclet$??0CHud@@QAE@XZ$26:
	mov	ecx, DWORD PTR _this$[ebp]
	add	ecx, 8292				; 00002064H
	jmp	??1CHealthbars@@UAE@XZ
__ehhandler$??0CHud@@QAE@XZ:
	mov	edx, DWORD PTR [esp+8]
	lea	eax, DWORD PTR [edx+12]
	mov	ecx, DWORD PTR [edx-84]
	xor	ecx, eax
	call	@__security_check_cookie@4
	mov	eax, OFFSET __ehfuncinfo$??0CHud@@QAE@XZ
	jmp	___CxxFrameHandler3
text$x	ENDS
??0CHud@@QAE@XZ ENDP					; CHud::CHud
; Function compile flags: /Odtp /ZI
;	COMDAT ??0screen_shake_t@CHud@@QAE@XZ
_TEXT	SEGMENT
_this$ = -4						; size = 4
??0screen_shake_t@CHud@@QAE@XZ PROC			; CHud::screen_shake_t::screen_shake_t, COMDAT
; _this$ = ecx
	push	ebp
	mov	ebp, esp
	sub	esp, 68					; 00000044H
	push	ebx
	push	esi
	push	edi
	mov	DWORD PTR _this$[ebp], ecx
	mov	ecx, DWORD PTR _this$[ebp]
	add	ecx, 20					; 00000014H
	call	??0Vector@@QAE@XZ			; Vector::Vector
	mov	ecx, DWORD PTR _this$[ebp]
	add	ecx, 36					; 00000024H
	call	??0Vector@@QAE@XZ			; Vector::Vector
	mov	eax, DWORD PTR _this$[ebp]
	pop	edi
	pop	esi
	pop	ebx
	mov	esp, ebp
	pop	ebp
	ret	0
??0screen_shake_t@CHud@@QAE@XZ ENDP			; CHud::screen_shake_t::screen_shake_t
_TEXT	ENDS
; Function compile flags: /Odtp /ZI
;	COMDAT ??_GCUseIcon@@UAEPAXI@Z
_TEXT	SEGMENT
_this$ = -4						; size = 4
___flags$ = 8						; size = 4
??_GCUseIcon@@UAEPAXI@Z PROC				; CUseIcon::`scalar deleting destructor', COMDAT
; _this$ = ecx
	push	ebp
	mov	ebp, esp
	sub	esp, 68					; 00000044H
	push	ebx
	push	esi
	push	edi
	mov	DWORD PTR _this$[ebp], ecx
	mov	ecx, DWORD PTR _this$[ebp]
	call	??1CUseIcon@@UAE@XZ
	mov	eax, DWORD PTR ___flags$[ebp]
	and	eax, 1
	je	SHORT $LN2@scalar
	push	88					; 00000058H
	mov	eax, DWORD PTR _this$[ebp]
	push	eax
	call	??3@YAXPAXI@Z				; operator delete
	add	esp, 8
$LN2@scalar:
	mov	eax, DWORD PTR _this$[ebp]
	pop	edi
	pop	esi
	pop	ebx
	mov	esp, ebp
	pop	ebp
	ret	4
??_GCUseIcon@@UAEPAXI@Z ENDP				; CUseIcon::`scalar deleting destructor'
_TEXT	ENDS
; Function compile flags: /Odtp /ZI
;	COMDAT ??1CUseIcon@@UAE@XZ
_TEXT	SEGMENT
_this$ = -4						; size = 4
??1CUseIcon@@UAE@XZ PROC				; CUseIcon::~CUseIcon, COMDAT
; _this$ = ecx
	push	ebp
	mov	ebp, esp
	sub	esp, 68					; 00000044H
	push	ebx
	push	esi
	push	edi
	mov	DWORD PTR _this$[ebp], ecx
	mov	ecx, DWORD PTR _this$[ebp]
	call	??1CHudBase@@UAE@XZ			; CHudBase::~CHudBase
	pop	edi
	pop	esi
	pop	ebx
	mov	esp, ebp
	pop	ebp
	ret	0
??1CUseIcon@@UAE@XZ ENDP				; CUseIcon::~CUseIcon
_TEXT	ENDS
; Function compile flags: /Odtp /ZI
;	COMDAT ??0CUseIcon@@QAE@XZ
_TEXT	SEGMENT
_this$ = -4						; size = 4
??0CUseIcon@@QAE@XZ PROC				; CUseIcon::CUseIcon, COMDAT
; _this$ = ecx
	push	ebp
	mov	ebp, esp
	sub	esp, 68					; 00000044H
	push	ebx
	push	esi
	push	edi
	mov	DWORD PTR _this$[ebp], ecx
	mov	ecx, DWORD PTR _this$[ebp]
	call	??0CHudBase@@QAE@XZ
	mov	eax, DWORD PTR _this$[ebp]
	mov	DWORD PTR [eax], OFFSET ??_7CUseIcon@@6B@
	mov	eax, DWORD PTR _this$[ebp]
	pop	edi
	pop	esi
	pop	ebx
	mov	esp, ebp
	pop	ebp
	ret	0
??0CUseIcon@@QAE@XZ ENDP				; CUseIcon::CUseIcon
_TEXT	ENDS
; Function compile flags: /Odtp /ZI
;	COMDAT ??_GCHealthbars@@UAEPAXI@Z
_TEXT	SEGMENT
_this$ = -4						; size = 4
___flags$ = 8						; size = 4
??_GCHealthbars@@UAEPAXI@Z PROC				; CHealthbars::`scalar deleting destructor', COMDAT
; _this$ = ecx
	push	ebp
	mov	ebp, esp
	sub	esp, 68					; 00000044H
	push	ebx
	push	esi
	push	edi
	mov	DWORD PTR _this$[ebp], ecx
	mov	ecx, DWORD PTR _this$[ebp]
	call	??1CHealthbars@@UAE@XZ
	mov	eax, DWORD PTR ___flags$[ebp]
	and	eax, 1
	je	SHORT $LN2@scalar
	push	52					; 00000034H
	mov	eax, DWORD PTR _this$[ebp]
	push	eax
	call	??3@YAXPAXI@Z				; operator delete
	add	esp, 8
$LN2@scalar:
	mov	eax, DWORD PTR _this$[ebp]
	pop	edi
	pop	esi
	pop	ebx
	mov	esp, ebp
	pop	ebp
	ret	4
??_GCHealthbars@@UAEPAXI@Z ENDP				; CHealthbars::`scalar deleting destructor'
_TEXT	ENDS
; Function compile flags: /Odtp /ZI
;	COMDAT ??1CHealthbars@@UAE@XZ
_TEXT	SEGMENT
_this$ = -4						; size = 4
??1CHealthbars@@UAE@XZ PROC				; CHealthbars::~CHealthbars, COMDAT
; _this$ = ecx
	push	ebp
	mov	ebp, esp
	sub	esp, 68					; 00000044H
	push	ebx
	push	esi
	push	edi
	mov	DWORD PTR _this$[ebp], ecx
	mov	ecx, DWORD PTR _this$[ebp]
	call	??1CHudBase@@UAE@XZ			; CHudBase::~CHudBase
	pop	edi
	pop	esi
	pop	ebx
	mov	esp, ebp
	pop	ebp
	ret	0
??1CHealthbars@@UAE@XZ ENDP				; CHealthbars::~CHealthbars
_TEXT	ENDS
; Function compile flags: /Odtp /ZI
;	COMDAT ??0CHealthbars@@QAE@XZ
_TEXT	SEGMENT
_this$ = -4						; size = 4
??0CHealthbars@@QAE@XZ PROC				; CHealthbars::CHealthbars, COMDAT
; _this$ = ecx
	push	ebp
	mov	ebp, esp
	sub	esp, 68					; 00000044H
	push	ebx
	push	esi
	push	edi
	mov	DWORD PTR _this$[ebp], ecx
	mov	ecx, DWORD PTR _this$[ebp]
	call	??0CHudBase@@QAE@XZ
	mov	eax, DWORD PTR _this$[ebp]
	mov	DWORD PTR [eax], OFFSET ??_7CHealthbars@@6B@
	mov	eax, DWORD PTR _this$[ebp]
	pop	edi
	pop	esi
	pop	ebx
	mov	esp, ebp
	pop	ebp
	ret	0
??0CHealthbars@@QAE@XZ ENDP				; CHealthbars::CHealthbars
_TEXT	ENDS
; Function compile flags: /Odtp /ZI
;	COMDAT ??_GCScreenEffects@@UAEPAXI@Z
_TEXT	SEGMENT
_this$ = -4						; size = 4
___flags$ = 8						; size = 4
??_GCScreenEffects@@UAEPAXI@Z PROC			; CScreenEffects::`scalar deleting destructor', COMDAT
; _this$ = ecx
	push	ebp
	mov	ebp, esp
	sub	esp, 68					; 00000044H
	push	ebx
	push	esi
	push	edi
	mov	DWORD PTR _this$[ebp], ecx
	mov	ecx, DWORD PTR _this$[ebp]
	call	??1CScreenEffects@@UAE@XZ
	mov	eax, DWORD PTR ___flags$[ebp]
	and	eax, 1
	je	SHORT $LN2@scalar
	push	76					; 0000004cH
	mov	eax, DWORD PTR _this$[ebp]
	push	eax
	call	??3@YAXPAXI@Z				; operator delete
	add	esp, 8
$LN2@scalar:
	mov	eax, DWORD PTR _this$[ebp]
	pop	edi
	pop	esi
	pop	ebx
	mov	esp, ebp
	pop	ebp
	ret	4
??_GCScreenEffects@@UAEPAXI@Z ENDP			; CScreenEffects::`scalar deleting destructor'
_TEXT	ENDS
; Function compile flags: /Odtp /ZI
;	COMDAT ??1CScreenEffects@@UAE@XZ
_TEXT	SEGMENT
_this$ = -4						; size = 4
??1CScreenEffects@@UAE@XZ PROC				; CScreenEffects::~CScreenEffects, COMDAT
; _this$ = ecx
	push	ebp
	mov	ebp, esp
	sub	esp, 68					; 00000044H
	push	ebx
	push	esi
	push	edi
	mov	DWORD PTR _this$[ebp], ecx
	mov	ecx, DWORD PTR _this$[ebp]
	call	??1CHudBase@@UAE@XZ			; CHudBase::~CHudBase
	pop	edi
	pop	esi
	pop	ebx
	mov	esp, ebp
	pop	ebp
	ret	0
??1CScreenEffects@@UAE@XZ ENDP				; CScreenEffects::~CScreenEffects
_TEXT	ENDS
; Function compile flags: /Odtp /ZI
;	COMDAT ??0CScreenEffects@@QAE@XZ
_TEXT	SEGMENT
_this$ = -16						; size = 4
__$EHRec$ = -12						; size = 12
??0CScreenEffects@@QAE@XZ PROC				; CScreenEffects::CScreenEffects, COMDAT
; _this$ = ecx
	push	ebp
	mov	ebp, esp
	push	-1
	push	__ehhandler$??0CScreenEffects@@QAE@XZ
	mov	eax, DWORD PTR fs:0
	push	eax
	sub	esp, 68					; 00000044H
	push	ebx
	push	esi
	push	edi
	mov	eax, DWORD PTR ___security_cookie
	xor	eax, ebp
	push	eax
	lea	eax, DWORD PTR __$EHRec$[ebp]
	mov	DWORD PTR fs:0, eax
	mov	DWORD PTR _this$[ebp], ecx
	mov	ecx, DWORD PTR _this$[ebp]
	call	??0CHudBase@@QAE@XZ
	mov	DWORD PTR __$EHRec$[ebp+8], 0
	mov	eax, DWORD PTR _this$[ebp]
	mov	DWORD PTR [eax], OFFSET ??_7CScreenEffects@@6B@
	mov	ecx, DWORD PTR _this$[ebp]
	add	ecx, 64					; 00000040H
	call	??0Vector@@QAE@XZ			; Vector::Vector
	mov	DWORD PTR __$EHRec$[ebp+8], -1
	mov	eax, DWORD PTR _this$[ebp]
	mov	ecx, DWORD PTR __$EHRec$[ebp]
	mov	DWORD PTR fs:0, ecx
	pop	ecx
	pop	edi
	pop	esi
	pop	ebx
	mov	esp, ebp
	pop	ebp
	ret	0
_TEXT	ENDS
;	COMDAT text$x
text$x	SEGMENT
__unwindfunclet$??0CScreenEffects@@QAE@XZ$0:
	mov	ecx, DWORD PTR _this$[ebp]
	jmp	??1CHudBase@@UAE@XZ			; CHudBase::~CHudBase
__ehhandler$??0CScreenEffects@@QAE@XZ:
	mov	edx, DWORD PTR [esp+8]
	lea	eax, DWORD PTR [edx+12]
	mov	ecx, DWORD PTR [edx-84]
	xor	ecx, eax
	call	@__security_check_cookie@4
	mov	eax, OFFSET __ehfuncinfo$??0CScreenEffects@@QAE@XZ
	jmp	___CxxFrameHandler3
text$x	ENDS
??0CScreenEffects@@QAE@XZ ENDP				; CScreenEffects::CScreenEffects
; Function compile flags: /Odtp /ZI
;	COMDAT ??_GCHudCodeInput@@UAEPAXI@Z
_TEXT	SEGMENT
_this$ = -4						; size = 4
___flags$ = 8						; size = 4
??_GCHudCodeInput@@UAEPAXI@Z PROC			; CHudCodeInput::`scalar deleting destructor', COMDAT
; _this$ = ecx
	push	ebp
	mov	ebp, esp
	sub	esp, 68					; 00000044H
	push	ebx
	push	esi
	push	edi
	mov	DWORD PTR _this$[ebp], ecx
	mov	ecx, DWORD PTR _this$[ebp]
	call	??1CHudCodeInput@@UAE@XZ
	mov	eax, DWORD PTR ___flags$[ebp]
	and	eax, 1
	je	SHORT $LN2@scalar
	push	88					; 00000058H
	mov	eax, DWORD PTR _this$[ebp]
	push	eax
	call	??3@YAXPAXI@Z				; operator delete
	add	esp, 8
$LN2@scalar:
	mov	eax, DWORD PTR _this$[ebp]
	pop	edi
	pop	esi
	pop	ebx
	mov	esp, ebp
	pop	ebp
	ret	4
??_GCHudCodeInput@@UAEPAXI@Z ENDP			; CHudCodeInput::`scalar deleting destructor'
_TEXT	ENDS
; Function compile flags: /Odtp /ZI
;	COMDAT ??1CHudCodeInput@@UAE@XZ
_TEXT	SEGMENT
_this$ = -4						; size = 4
??1CHudCodeInput@@UAE@XZ PROC				; CHudCodeInput::~CHudCodeInput, COMDAT
; _this$ = ecx
	push	ebp
	mov	ebp, esp
	sub	esp, 68					; 00000044H
	push	ebx
	push	esi
	push	edi
	mov	DWORD PTR _this$[ebp], ecx
	mov	ecx, DWORD PTR _this$[ebp]
	call	??1CHudBase@@UAE@XZ			; CHudBase::~CHudBase
	pop	edi
	pop	esi
	pop	ebx
	mov	esp, ebp
	pop	ebp
	ret	0
??1CHudCodeInput@@UAE@XZ ENDP				; CHudCodeInput::~CHudCodeInput
_TEXT	ENDS
; Function compile flags: /Odtp /ZI
;	COMDAT ??0CHudCodeInput@@QAE@XZ
_TEXT	SEGMENT
_this$ = -16						; size = 4
__$EHRec$ = -12						; size = 12
??0CHudCodeInput@@QAE@XZ PROC				; CHudCodeInput::CHudCodeInput, COMDAT
; _this$ = ecx
	push	ebp
	mov	ebp, esp
	push	-1
	push	__ehhandler$??0CHudCodeInput@@QAE@XZ
	mov	eax, DWORD PTR fs:0
	push	eax
	sub	esp, 68					; 00000044H
	push	ebx
	push	esi
	push	edi
	mov	eax, DWORD PTR ___security_cookie
	xor	eax, ebp
	push	eax
	lea	eax, DWORD PTR __$EHRec$[ebp]
	mov	DWORD PTR fs:0, eax
	mov	DWORD PTR _this$[ebp], ecx
	mov	ecx, DWORD PTR _this$[ebp]
	call	??0CHudBase@@QAE@XZ
	mov	DWORD PTR __$EHRec$[ebp+8], 0
	mov	eax, DWORD PTR _this$[ebp]
	mov	DWORD PTR [eax], OFFSET ??_7CHudCodeInput@@6B@
	mov	ecx, DWORD PTR _this$[ebp]
	add	ecx, 60					; 0000003cH
	call	??0Vector@@QAE@XZ			; Vector::Vector
	mov	DWORD PTR __$EHRec$[ebp+8], -1
	mov	eax, DWORD PTR _this$[ebp]
	mov	ecx, DWORD PTR __$EHRec$[ebp]
	mov	DWORD PTR fs:0, ecx
	pop	ecx
	pop	edi
	pop	esi
	pop	ebx
	mov	esp, ebp
	pop	ebp
	ret	0
_TEXT	ENDS
;	COMDAT text$x
text$x	SEGMENT
__unwindfunclet$??0CHudCodeInput@@QAE@XZ$0:
	mov	ecx, DWORD PTR _this$[ebp]
	jmp	??1CHudBase@@UAE@XZ			; CHudBase::~CHudBase
__ehhandler$??0CHudCodeInput@@QAE@XZ:
	mov	edx, DWORD PTR [esp+8]
	lea	eax, DWORD PTR [edx+12]
	mov	ecx, DWORD PTR [edx-84]
	xor	ecx, eax
	call	@__security_check_cookie@4
	mov	eax, OFFSET __ehfuncinfo$??0CHudCodeInput@@QAE@XZ
	jmp	___CxxFrameHandler3
text$x	ENDS
??0CHudCodeInput@@QAE@XZ ENDP				; CHudCodeInput::CHudCodeInput
; Function compile flags: /Odtp /ZI
;	COMDAT ??_GCHudBlastIcons@@UAEPAXI@Z
_TEXT	SEGMENT
_this$ = -4						; size = 4
___flags$ = 8						; size = 4
??_GCHudBlastIcons@@UAEPAXI@Z PROC			; CHudBlastIcons::`scalar deleting destructor', COMDAT
; _this$ = ecx
	push	ebp
	mov	ebp, esp
	sub	esp, 68					; 00000044H
	push	ebx
	push	esi
	push	edi
	mov	DWORD PTR _this$[ebp], ecx
	mov	ecx, DWORD PTR _this$[ebp]
	call	??1CHudBlastIcons@@UAE@XZ
	mov	eax, DWORD PTR ___flags$[ebp]
	and	eax, 1
	je	SHORT $LN2@scalar
	push	56					; 00000038H
	mov	eax, DWORD PTR _this$[ebp]
	push	eax
	call	??3@YAXPAXI@Z				; operator delete
	add	esp, 8
$LN2@scalar:
	mov	eax, DWORD PTR _this$[ebp]
	pop	edi
	pop	esi
	pop	ebx
	mov	esp, ebp
	pop	ebp
	ret	4
??_GCHudBlastIcons@@UAEPAXI@Z ENDP			; CHudBlastIcons::`scalar deleting destructor'
_TEXT	ENDS
; Function compile flags: /Odtp /ZI
;	COMDAT ??1CHudBlastIcons@@UAE@XZ
_TEXT	SEGMENT
_this$ = -4						; size = 4
??1CHudBlastIcons@@UAE@XZ PROC				; CHudBlastIcons::~CHudBlastIcons, COMDAT
; _this$ = ecx
	push	ebp
	mov	ebp, esp
	sub	esp, 68					; 00000044H
	push	ebx
	push	esi
	push	edi
	mov	DWORD PTR _this$[ebp], ecx
	mov	ecx, DWORD PTR _this$[ebp]
	call	??1CHudBase@@UAE@XZ			; CHudBase::~CHudBase
	pop	edi
	pop	esi
	pop	ebx
	mov	esp, ebp
	pop	ebp
	ret	0
??1CHudBlastIcons@@UAE@XZ ENDP				; CHudBlastIcons::~CHudBlastIcons
_TEXT	ENDS
; Function compile flags: /Odtp /ZI
;	COMDAT ??0CHudBlastIcons@@QAE@XZ
_TEXT	SEGMENT
_this$ = -4						; size = 4
??0CHudBlastIcons@@QAE@XZ PROC				; CHudBlastIcons::CHudBlastIcons, COMDAT
; _this$ = ecx
	push	ebp
	mov	ebp, esp
	sub	esp, 68					; 00000044H
	push	ebx
	push	esi
	push	edi
	mov	DWORD PTR _this$[ebp], ecx
	mov	ecx, DWORD PTR _this$[ebp]
	call	??0CHudBase@@QAE@XZ
	mov	eax, DWORD PTR _this$[ebp]
	mov	DWORD PTR [eax], OFFSET ??_7CHudBlastIcons@@6B@
	mov	eax, DWORD PTR _this$[ebp]
	pop	edi
	pop	esi
	pop	ebx
	mov	esp, ebp
	pop	ebp
	ret	0
??0CHudBlastIcons@@QAE@XZ ENDP				; CHudBlastIcons::CHudBlastIcons
_TEXT	ENDS
; Function compile flags: /Odtp /ZI
;	COMDAT ??_GCZoom@@UAEPAXI@Z
_TEXT	SEGMENT
_this$ = -4						; size = 4
___flags$ = 8						; size = 4
??_GCZoom@@UAEPAXI@Z PROC				; CZoom::`scalar deleting destructor', COMDAT
; _this$ = ecx
	push	ebp
	mov	ebp, esp
	sub	esp, 68					; 00000044H
	push	ebx
	push	esi
	push	edi
	mov	DWORD PTR _this$[ebp], ecx
	mov	ecx, DWORD PTR _this$[ebp]
	call	??1CZoom@@UAE@XZ
	mov	eax, DWORD PTR ___flags$[ebp]
	and	eax, 1
	je	SHORT $LN2@scalar
	push	16					; 00000010H
	mov	eax, DWORD PTR _this$[ebp]
	push	eax
	call	??3@YAXPAXI@Z				; operator delete
	add	esp, 8
$LN2@scalar:
	mov	eax, DWORD PTR _this$[ebp]
	pop	edi
	pop	esi
	pop	ebx
	mov	esp, ebp
	pop	ebp
	ret	4
??_GCZoom@@UAEPAXI@Z ENDP				; CZoom::`scalar deleting destructor'
_TEXT	ENDS
; Function compile flags: /Odtp /ZI
;	COMDAT ??1CZoom@@UAE@XZ
_TEXT	SEGMENT
_this$ = -4						; size = 4
??1CZoom@@UAE@XZ PROC					; CZoom::~CZoom, COMDAT
; _this$ = ecx
	push	ebp
	mov	ebp, esp
	sub	esp, 68					; 00000044H
	push	ebx
	push	esi
	push	edi
	mov	DWORD PTR _this$[ebp], ecx
	mov	ecx, DWORD PTR _this$[ebp]
	call	??1CHudBase@@UAE@XZ			; CHudBase::~CHudBase
	pop	edi
	pop	esi
	pop	ebx
	mov	esp, ebp
	pop	ebp
	ret	0
??1CZoom@@UAE@XZ ENDP					; CZoom::~CZoom
_TEXT	ENDS
; Function compile flags: /Odtp /ZI
;	COMDAT ??0CZoom@@QAE@XZ
_TEXT	SEGMENT
_this$ = -4						; size = 4
??0CZoom@@QAE@XZ PROC					; CZoom::CZoom, COMDAT
; _this$ = ecx
	push	ebp
	mov	ebp, esp
	sub	esp, 68					; 00000044H
	push	ebx
	push	esi
	push	edi
	mov	DWORD PTR _this$[ebp], ecx
	mov	ecx, DWORD PTR _this$[ebp]
	call	??0CHudBase@@QAE@XZ
	mov	eax, DWORD PTR _this$[ebp]
	mov	DWORD PTR [eax], OFFSET ??_7CZoom@@6B@
	mov	eax, DWORD PTR _this$[ebp]
	pop	edi
	pop	esi
	pop	ebx
	mov	esp, ebp
	pop	ebp
	ret	0
??0CZoom@@QAE@XZ ENDP					; CZoom::CZoom
_TEXT	ENDS
; Function compile flags: /Odtp /ZI
;	COMDAT ??_GCHudCrosshairStatic@@UAEPAXI@Z
_TEXT	SEGMENT
_this$ = -4						; size = 4
___flags$ = 8						; size = 4
??_GCHudCrosshairStatic@@UAEPAXI@Z PROC			; CHudCrosshairStatic::`scalar deleting destructor', COMDAT
; _this$ = ecx
	push	ebp
	mov	ebp, esp
	sub	esp, 68					; 00000044H
	push	ebx
	push	esi
	push	edi
	mov	DWORD PTR _this$[ebp], ecx
	mov	ecx, DWORD PTR _this$[ebp]
	call	??1CHudCrosshairStatic@@UAE@XZ
	mov	eax, DWORD PTR ___flags$[ebp]
	and	eax, 1
	je	SHORT $LN2@scalar
	push	220					; 000000dcH
	mov	eax, DWORD PTR _this$[ebp]
	push	eax
	call	??3@YAXPAXI@Z				; operator delete
	add	esp, 8
$LN2@scalar:
	mov	eax, DWORD PTR _this$[ebp]
	pop	edi
	pop	esi
	pop	ebx
	mov	esp, ebp
	pop	ebp
	ret	4
??_GCHudCrosshairStatic@@UAEPAXI@Z ENDP			; CHudCrosshairStatic::`scalar deleting destructor'
_TEXT	ENDS
; Function compile flags: /Odtp /ZI
;	COMDAT ??1CHudCrosshairStatic@@UAE@XZ
_TEXT	SEGMENT
_this$ = -4						; size = 4
??1CHudCrosshairStatic@@UAE@XZ PROC			; CHudCrosshairStatic::~CHudCrosshairStatic, COMDAT
; _this$ = ecx
	push	ebp
	mov	ebp, esp
	sub	esp, 68					; 00000044H
	push	ebx
	push	esi
	push	edi
	mov	DWORD PTR _this$[ebp], ecx
	mov	ecx, DWORD PTR _this$[ebp]
	call	??1CHudBase@@UAE@XZ			; CHudBase::~CHudBase
	pop	edi
	pop	esi
	pop	ebx
	mov	esp, ebp
	pop	ebp
	ret	0
??1CHudCrosshairStatic@@UAE@XZ ENDP			; CHudCrosshairStatic::~CHudCrosshairStatic
_TEXT	ENDS
; Function compile flags: /Odtp /ZI
;	COMDAT ??0CHudCrosshairStatic@@QAE@XZ
_TEXT	SEGMENT
_this$ = -4						; size = 4
??0CHudCrosshairStatic@@QAE@XZ PROC			; CHudCrosshairStatic::CHudCrosshairStatic, COMDAT
; _this$ = ecx
	push	ebp
	mov	ebp, esp
	sub	esp, 68					; 00000044H
	push	ebx
	push	esi
	push	edi
	mov	DWORD PTR _this$[ebp], ecx
	mov	ecx, DWORD PTR _this$[ebp]
	call	??0CHudBase@@QAE@XZ
	mov	eax, DWORD PTR _this$[ebp]
	mov	DWORD PTR [eax], OFFSET ??_7CHudCrosshairStatic@@6B@
	mov	eax, DWORD PTR _this$[ebp]
	pop	edi
	pop	esi
	pop	ebx
	mov	esp, ebp
	pop	ebp
	ret	0
??0CHudCrosshairStatic@@QAE@XZ ENDP			; CHudCrosshairStatic::CHudCrosshairStatic
_TEXT	ENDS
; Function compile flags: /Odtp /ZI
;	COMDAT ??_GCHudAchievement@@UAEPAXI@Z
_TEXT	SEGMENT
_this$ = -4						; size = 4
___flags$ = 8						; size = 4
??_GCHudAchievement@@UAEPAXI@Z PROC			; CHudAchievement::`scalar deleting destructor', COMDAT
; _this$ = ecx
	push	ebp
	mov	ebp, esp
	sub	esp, 68					; 00000044H
	push	ebx
	push	esi
	push	edi
	mov	DWORD PTR _this$[ebp], ecx
	mov	ecx, DWORD PTR _this$[ebp]
	call	??1CHudAchievement@@UAE@XZ
	mov	eax, DWORD PTR ___flags$[ebp]
	and	eax, 1
	je	SHORT $LN2@scalar
	push	3580					; 00000dfcH
	mov	eax, DWORD PTR _this$[ebp]
	push	eax
	call	??3@YAXPAXI@Z				; operator delete
	add	esp, 8
$LN2@scalar:
	mov	eax, DWORD PTR _this$[ebp]
	pop	edi
	pop	esi
	pop	ebx
	mov	esp, ebp
	pop	ebp
	ret	4
??_GCHudAchievement@@UAEPAXI@Z ENDP			; CHudAchievement::`scalar deleting destructor'
_TEXT	ENDS
; Function compile flags: /Odtp /ZI
;	COMDAT ??1CHudAchievement@@UAE@XZ
_TEXT	SEGMENT
_this$ = -4						; size = 4
??1CHudAchievement@@UAE@XZ PROC				; CHudAchievement::~CHudAchievement, COMDAT
; _this$ = ecx
	push	ebp
	mov	ebp, esp
	sub	esp, 68					; 00000044H
	push	ebx
	push	esi
	push	edi
	mov	DWORD PTR _this$[ebp], ecx
	mov	ecx, DWORD PTR _this$[ebp]
	call	??1CHudBase@@UAE@XZ			; CHudBase::~CHudBase
	pop	edi
	pop	esi
	pop	ebx
	mov	esp, ebp
	pop	ebp
	ret	0
??1CHudAchievement@@UAE@XZ ENDP				; CHudAchievement::~CHudAchievement
_TEXT	ENDS
; Function compile flags: /Odtp /ZI
;	COMDAT ??0CHudAchievement@@QAE@XZ
_TEXT	SEGMENT
_this$ = -4						; size = 4
??0CHudAchievement@@QAE@XZ PROC				; CHudAchievement::CHudAchievement, COMDAT
; _this$ = ecx
	push	ebp
	mov	ebp, esp
	sub	esp, 68					; 00000044H
	push	ebx
	push	esi
	push	edi
	mov	DWORD PTR _this$[ebp], ecx
	mov	ecx, DWORD PTR _this$[ebp]
	call	??0CHudBase@@QAE@XZ
	mov	eax, DWORD PTR _this$[ebp]
	mov	DWORD PTR [eax], OFFSET ??_7CHudAchievement@@6B@
	mov	eax, DWORD PTR _this$[ebp]
	pop	edi
	pop	esi
	pop	ebx
	mov	esp, ebp
	pop	ebp
	ret	0
??0CHudAchievement@@QAE@XZ ENDP				; CHudAchievement::CHudAchievement
_TEXT	ENDS
; Function compile flags: /Odtp /ZI
;	COMDAT ??_GCHudTutorial@@UAEPAXI@Z
_TEXT	SEGMENT
_this$ = -4						; size = 4
___flags$ = 8						; size = 4
??_GCHudTutorial@@UAEPAXI@Z PROC			; CHudTutorial::`scalar deleting destructor', COMDAT
; _this$ = ecx
	push	ebp
	mov	ebp, esp
	sub	esp, 68					; 00000044H
	push	ebx
	push	esi
	push	edi
	mov	DWORD PTR _this$[ebp], ecx
	mov	ecx, DWORD PTR _this$[ebp]
	call	??1CHudTutorial@@UAE@XZ
	mov	eax, DWORD PTR ___flags$[ebp]
	and	eax, 1
	je	SHORT $LN2@scalar
	push	80					; 00000050H
	mov	eax, DWORD PTR _this$[ebp]
	push	eax
	call	??3@YAXPAXI@Z				; operator delete
	add	esp, 8
$LN2@scalar:
	mov	eax, DWORD PTR _this$[ebp]
	pop	edi
	pop	esi
	pop	ebx
	mov	esp, ebp
	pop	ebp
	ret	4
??_GCHudTutorial@@UAEPAXI@Z ENDP			; CHudTutorial::`scalar deleting destructor'
_TEXT	ENDS
; Function compile flags: /Odtp /ZI
;	COMDAT ??1CHudTutorial@@UAE@XZ
_TEXT	SEGMENT
_this$ = -4						; size = 4
??1CHudTutorial@@UAE@XZ PROC				; CHudTutorial::~CHudTutorial, COMDAT
; _this$ = ecx
	push	ebp
	mov	ebp, esp
	sub	esp, 68					; 00000044H
	push	ebx
	push	esi
	push	edi
	mov	DWORD PTR _this$[ebp], ecx
	mov	ecx, DWORD PTR _this$[ebp]
	call	??1CHudBase@@UAE@XZ			; CHudBase::~CHudBase
	pop	edi
	pop	esi
	pop	ebx
	mov	esp, ebp
	pop	ebp
	ret	0
??1CHudTutorial@@UAE@XZ ENDP				; CHudTutorial::~CHudTutorial
_TEXT	ENDS
; Function compile flags: /Odtp /ZI
;	COMDAT ??0CHudTutorial@@QAE@XZ
_TEXT	SEGMENT
_this$ = -4						; size = 4
??0CHudTutorial@@QAE@XZ PROC				; CHudTutorial::CHudTutorial, COMDAT
; _this$ = ecx
	push	ebp
	mov	ebp, esp
	sub	esp, 68					; 00000044H
	push	ebx
	push	esi
	push	edi
	mov	DWORD PTR _this$[ebp], ecx
	mov	ecx, DWORD PTR _this$[ebp]
	call	??0CHudBase@@QAE@XZ
	mov	eax, DWORD PTR _this$[ebp]
	mov	DWORD PTR [eax], OFFSET ??_7CHudTutorial@@6B@
	mov	eax, DWORD PTR _this$[ebp]
	pop	edi
	pop	esi
	pop	ebx
	mov	esp, ebp
	pop	ebp
	ret	0
??0CHudTutorial@@QAE@XZ ENDP				; CHudTutorial::CHudTutorial
_TEXT	ENDS
; Function compile flags: /Odtp /ZI
;	COMDAT ??_GCHudStatusIcons@@UAEPAXI@Z
_TEXT	SEGMENT
_this$ = -4						; size = 4
___flags$ = 8						; size = 4
??_GCHudStatusIcons@@UAEPAXI@Z PROC			; CHudStatusIcons::`scalar deleting destructor', COMDAT
; _this$ = ecx
	push	ebp
	mov	ebp, esp
	sub	esp, 68					; 00000044H
	push	ebx
	push	esi
	push	edi
	mov	DWORD PTR _this$[ebp], ecx
	mov	ecx, DWORD PTR _this$[ebp]
	call	??1CHudStatusIcons@@UAE@XZ
	mov	eax, DWORD PTR ___flags$[ebp]
	and	eax, 1
	je	SHORT $LN2@scalar
	push	460					; 000001ccH
	mov	eax, DWORD PTR _this$[ebp]
	push	eax
	call	??3@YAXPAXI@Z				; operator delete
	add	esp, 8
$LN2@scalar:
	mov	eax, DWORD PTR _this$[ebp]
	pop	edi
	pop	esi
	pop	ebx
	mov	esp, ebp
	pop	ebp
	ret	4
??_GCHudStatusIcons@@UAEPAXI@Z ENDP			; CHudStatusIcons::`scalar deleting destructor'
_TEXT	ENDS
; Function compile flags: /Odtp /ZI
;	COMDAT ??1CHudStatusIcons@@UAE@XZ
_TEXT	SEGMENT
_this$ = -4						; size = 4
??1CHudStatusIcons@@UAE@XZ PROC				; CHudStatusIcons::~CHudStatusIcons, COMDAT
; _this$ = ecx
	push	ebp
	mov	ebp, esp
	sub	esp, 68					; 00000044H
	push	ebx
	push	esi
	push	edi
	mov	DWORD PTR _this$[ebp], ecx
	mov	ecx, DWORD PTR _this$[ebp]
	call	??1CHudBase@@UAE@XZ			; CHudBase::~CHudBase
	pop	edi
	pop	esi
	pop	ebx
	mov	esp, ebp
	pop	ebp
	ret	0
??1CHudStatusIcons@@UAE@XZ ENDP				; CHudStatusIcons::~CHudStatusIcons
_TEXT	ENDS
; Function compile flags: /Odtp /ZI
;	COMDAT ??0CHudStatusIcons@@QAE@XZ
_TEXT	SEGMENT
_this$ = -4						; size = 4
??0CHudStatusIcons@@QAE@XZ PROC				; CHudStatusIcons::CHudStatusIcons, COMDAT
; _this$ = ecx
	push	ebp
	mov	ebp, esp
	sub	esp, 68					; 00000044H
	push	ebx
	push	esi
	push	edi
	mov	DWORD PTR _this$[ebp], ecx
	mov	ecx, DWORD PTR _this$[ebp]
	call	??0CHudBase@@QAE@XZ
	mov	eax, DWORD PTR _this$[ebp]
	mov	DWORD PTR [eax], OFFSET ??_7CHudStatusIcons@@6B@
	mov	eax, DWORD PTR _this$[ebp]
	pop	edi
	pop	esi
	pop	ebx
	mov	esp, ebp
	pop	ebp
	ret	0
??0CHudStatusIcons@@QAE@XZ ENDP				; CHudStatusIcons::CHudStatusIcons
_TEXT	ENDS
; Function compile flags: /Odtp /ZI
;	COMDAT ??_GCHudMessage@@UAEPAXI@Z
_TEXT	SEGMENT
_this$ = -4						; size = 4
___flags$ = 8						; size = 4
??_GCHudMessage@@UAEPAXI@Z PROC				; CHudMessage::`scalar deleting destructor', COMDAT
; _this$ = ecx
	push	ebp
	mov	ebp, esp
	sub	esp, 68					; 00000044H
	push	ebx
	push	esi
	push	edi
	mov	DWORD PTR _this$[ebp], ecx
	mov	ecx, DWORD PTR _this$[ebp]
	call	??1CHudMessage@@UAE@XZ
	mov	eax, DWORD PTR ___flags$[ebp]
	and	eax, 1
	je	SHORT $LN2@scalar
	push	220					; 000000dcH
	mov	eax, DWORD PTR _this$[ebp]
	push	eax
	call	??3@YAXPAXI@Z				; operator delete
	add	esp, 8
$LN2@scalar:
	mov	eax, DWORD PTR _this$[ebp]
	pop	edi
	pop	esi
	pop	ebx
	mov	esp, ebp
	pop	ebp
	ret	4
??_GCHudMessage@@UAEPAXI@Z ENDP				; CHudMessage::`scalar deleting destructor'
_TEXT	ENDS
; Function compile flags: /Odtp /ZI
;	COMDAT ??1CHudMessage@@UAE@XZ
_TEXT	SEGMENT
_this$ = -4						; size = 4
??1CHudMessage@@UAE@XZ PROC				; CHudMessage::~CHudMessage, COMDAT
; _this$ = ecx
	push	ebp
	mov	ebp, esp
	sub	esp, 68					; 00000044H
	push	ebx
	push	esi
	push	edi
	mov	DWORD PTR _this$[ebp], ecx
	mov	ecx, DWORD PTR _this$[ebp]
	call	??1CHudBase@@UAE@XZ			; CHudBase::~CHudBase
	pop	edi
	pop	esi
	pop	ebx
	mov	esp, ebp
	pop	ebp
	ret	0
??1CHudMessage@@UAE@XZ ENDP				; CHudMessage::~CHudMessage
_TEXT	ENDS
; Function compile flags: /Odtp /ZI
;	COMDAT ??0CHudMessage@@QAE@XZ
_TEXT	SEGMENT
_this$ = -4						; size = 4
??0CHudMessage@@QAE@XZ PROC				; CHudMessage::CHudMessage, COMDAT
; _this$ = ecx
	push	ebp
	mov	ebp, esp
	sub	esp, 68					; 00000044H
	push	ebx
	push	esi
	push	edi
	mov	DWORD PTR _this$[ebp], ecx
	mov	ecx, DWORD PTR _this$[ebp]
	call	??0CHudBase@@QAE@XZ
	mov	eax, DWORD PTR _this$[ebp]
	mov	DWORD PTR [eax], OFFSET ??_7CHudMessage@@6B@
	mov	eax, DWORD PTR _this$[ebp]
	pop	edi
	pop	esi
	pop	ebx
	mov	esp, ebp
	pop	ebp
	ret	0
??0CHudMessage@@QAE@XZ ENDP				; CHudMessage::CHudMessage
_TEXT	ENDS
; Function compile flags: /Odtp /ZI
;	COMDAT ??_GCHudTextMessage@@UAEPAXI@Z
_TEXT	SEGMENT
_this$ = -4						; size = 4
___flags$ = 8						; size = 4
??_GCHudTextMessage@@UAEPAXI@Z PROC			; CHudTextMessage::`scalar deleting destructor', COMDAT
; _this$ = ecx
	push	ebp
	mov	ebp, esp
	sub	esp, 68					; 00000044H
	push	ebx
	push	esi
	push	edi
	mov	DWORD PTR _this$[ebp], ecx
	mov	ecx, DWORD PTR _this$[ebp]
	call	??1CHudTextMessage@@UAE@XZ
	mov	eax, DWORD PTR ___flags$[ebp]
	and	eax, 1
	je	SHORT $LN2@scalar
	push	8
	mov	eax, DWORD PTR _this$[ebp]
	push	eax
	call	??3@YAXPAXI@Z				; operator delete
	add	esp, 8
$LN2@scalar:
	mov	eax, DWORD PTR _this$[ebp]
	pop	edi
	pop	esi
	pop	ebx
	mov	esp, ebp
	pop	ebp
	ret	4
??_GCHudTextMessage@@UAEPAXI@Z ENDP			; CHudTextMessage::`scalar deleting destructor'
_TEXT	ENDS
; Function compile flags: /Odtp /ZI
;	COMDAT ??1CHudTextMessage@@UAE@XZ
_TEXT	SEGMENT
_this$ = -4						; size = 4
??1CHudTextMessage@@UAE@XZ PROC				; CHudTextMessage::~CHudTextMessage, COMDAT
; _this$ = ecx
	push	ebp
	mov	ebp, esp
	sub	esp, 68					; 00000044H
	push	ebx
	push	esi
	push	edi
	mov	DWORD PTR _this$[ebp], ecx
	mov	ecx, DWORD PTR _this$[ebp]
	call	??1CHudBase@@UAE@XZ			; CHudBase::~CHudBase
	pop	edi
	pop	esi
	pop	ebx
	mov	esp, ebp
	pop	ebp
	ret	0
??1CHudTextMessage@@UAE@XZ ENDP				; CHudTextMessage::~CHudTextMessage
_TEXT	ENDS
; Function compile flags: /Odtp /ZI
;	COMDAT ??0CHudTextMessage@@QAE@XZ
_TEXT	SEGMENT
_this$ = -4						; size = 4
??0CHudTextMessage@@QAE@XZ PROC				; CHudTextMessage::CHudTextMessage, COMDAT
; _this$ = ecx
	push	ebp
	mov	ebp, esp
	sub	esp, 68					; 00000044H
	push	ebx
	push	esi
	push	edi
	mov	DWORD PTR _this$[ebp], ecx
	mov	ecx, DWORD PTR _this$[ebp]
	call	??0CHudBase@@QAE@XZ
	mov	eax, DWORD PTR _this$[ebp]
	mov	DWORD PTR [eax], OFFSET ??_7CHudTextMessage@@6B@
	mov	eax, DWORD PTR _this$[ebp]
	pop	edi
	pop	esi
	pop	ebx
	mov	esp, ebp
	pop	ebp
	ret	0
??0CHudTextMessage@@QAE@XZ ENDP				; CHudTextMessage::CHudTextMessage
_TEXT	ENDS
; Function compile flags: /Odtp /ZI
;	COMDAT ??_GCHudHealthVisual@@UAEPAXI@Z
_TEXT	SEGMENT
_this$ = -4						; size = 4
___flags$ = 8						; size = 4
??_GCHudHealthVisual@@UAEPAXI@Z PROC			; CHudHealthVisual::`scalar deleting destructor', COMDAT
; _this$ = ecx
	push	ebp
	mov	ebp, esp
	sub	esp, 68					; 00000044H
	push	ebx
	push	esi
	push	edi
	mov	DWORD PTR _this$[ebp], ecx
	mov	ecx, DWORD PTR _this$[ebp]
	call	??1CHudHealthVisual@@UAE@XZ
	mov	eax, DWORD PTR ___flags$[ebp]
	and	eax, 1
	je	SHORT $LN2@scalar
	push	56					; 00000038H
	mov	eax, DWORD PTR _this$[ebp]
	push	eax
	call	??3@YAXPAXI@Z				; operator delete
	add	esp, 8
$LN2@scalar:
	mov	eax, DWORD PTR _this$[ebp]
	pop	edi
	pop	esi
	pop	ebx
	mov	esp, ebp
	pop	ebp
	ret	4
??_GCHudHealthVisual@@UAEPAXI@Z ENDP			; CHudHealthVisual::`scalar deleting destructor'
_TEXT	ENDS
; Function compile flags: /Odtp /ZI
;	COMDAT ??1CHudHealthVisual@@UAE@XZ
_TEXT	SEGMENT
_this$ = -4						; size = 4
??1CHudHealthVisual@@UAE@XZ PROC			; CHudHealthVisual::~CHudHealthVisual, COMDAT
; _this$ = ecx
	push	ebp
	mov	ebp, esp
	sub	esp, 68					; 00000044H
	push	ebx
	push	esi
	push	edi
	mov	DWORD PTR _this$[ebp], ecx
	mov	ecx, DWORD PTR _this$[ebp]
	call	??1CHudBase@@UAE@XZ			; CHudBase::~CHudBase
	pop	edi
	pop	esi
	pop	ebx
	mov	esp, ebp
	pop	ebp
	ret	0
??1CHudHealthVisual@@UAE@XZ ENDP			; CHudHealthVisual::~CHudHealthVisual
_TEXT	ENDS
; Function compile flags: /Odtp /ZI
;	COMDAT ??0CHudHealthVisual@@QAE@XZ
_TEXT	SEGMENT
_this$ = -4						; size = 4
??0CHudHealthVisual@@QAE@XZ PROC			; CHudHealthVisual::CHudHealthVisual, COMDAT
; _this$ = ecx
	push	ebp
	mov	ebp, esp
	sub	esp, 68					; 00000044H
	push	ebx
	push	esi
	push	edi
	mov	DWORD PTR _this$[ebp], ecx
	mov	ecx, DWORD PTR _this$[ebp]
	call	??0CHudBase@@QAE@XZ
	mov	eax, DWORD PTR _this$[ebp]
	mov	DWORD PTR [eax], OFFSET ??_7CHudHealthVisual@@6B@
	mov	eax, DWORD PTR _this$[ebp]
	pop	edi
	pop	esi
	pop	ebx
	mov	esp, ebp
	pop	ebp
	ret	0
??0CHudHealthVisual@@QAE@XZ ENDP			; CHudHealthVisual::CHudHealthVisual
_TEXT	ENDS
; Function compile flags: /Odtp /ZI
;	COMDAT ??_GCHudStamina@@UAEPAXI@Z
_TEXT	SEGMENT
_this$ = -4						; size = 4
___flags$ = 8						; size = 4
??_GCHudStamina@@UAEPAXI@Z PROC				; CHudStamina::`scalar deleting destructor', COMDAT
; _this$ = ecx
	push	ebp
	mov	ebp, esp
	sub	esp, 68					; 00000044H
	push	ebx
	push	esi
	push	edi
	mov	DWORD PTR _this$[ebp], ecx
	mov	ecx, DWORD PTR _this$[ebp]
	call	??1CHudStamina@@UAE@XZ
	mov	eax, DWORD PTR ___flags$[ebp]
	and	eax, 1
	je	SHORT $LN2@scalar
	push	40					; 00000028H
	mov	eax, DWORD PTR _this$[ebp]
	push	eax
	call	??3@YAXPAXI@Z				; operator delete
	add	esp, 8
$LN2@scalar:
	mov	eax, DWORD PTR _this$[ebp]
	pop	edi
	pop	esi
	pop	ebx
	mov	esp, ebp
	pop	ebp
	ret	4
??_GCHudStamina@@UAEPAXI@Z ENDP				; CHudStamina::`scalar deleting destructor'
_TEXT	ENDS
; Function compile flags: /Odtp /ZI
;	COMDAT ??1CHudStamina@@UAE@XZ
_TEXT	SEGMENT
_this$ = -4						; size = 4
??1CHudStamina@@UAE@XZ PROC				; CHudStamina::~CHudStamina, COMDAT
; _this$ = ecx
	push	ebp
	mov	ebp, esp
	sub	esp, 68					; 00000044H
	push	ebx
	push	esi
	push	edi
	mov	DWORD PTR _this$[ebp], ecx
	mov	ecx, DWORD PTR _this$[ebp]
	call	??1CHudBase@@UAE@XZ			; CHudBase::~CHudBase
	pop	edi
	pop	esi
	pop	ebx
	mov	esp, ebp
	pop	ebp
	ret	0
??1CHudStamina@@UAE@XZ ENDP				; CHudStamina::~CHudStamina
_TEXT	ENDS
; Function compile flags: /Odtp /ZI
;	COMDAT ??0CHudStamina@@QAE@XZ
_TEXT	SEGMENT
_this$ = -4						; size = 4
??0CHudStamina@@QAE@XZ PROC				; CHudStamina::CHudStamina, COMDAT
; _this$ = ecx
	push	ebp
	mov	ebp, esp
	sub	esp, 68					; 00000044H
	push	ebx
	push	esi
	push	edi
	mov	DWORD PTR _this$[ebp], ecx
	mov	ecx, DWORD PTR _this$[ebp]
	call	??0CHudBase@@QAE@XZ
	mov	eax, DWORD PTR _this$[ebp]
	mov	DWORD PTR [eax], OFFSET ??_7CHudStamina@@6B@
	mov	eax, DWORD PTR _this$[ebp]
	pop	edi
	pop	esi
	pop	ebx
	mov	esp, ebp
	pop	ebp
	ret	0
??0CHudStamina@@QAE@XZ ENDP				; CHudStamina::CHudStamina
_TEXT	ENDS
; Function compile flags: /Odtp /ZI
;	COMDAT ??_GCHudFlashlight@@UAEPAXI@Z
_TEXT	SEGMENT
_this$ = -4						; size = 4
___flags$ = 8						; size = 4
??_GCHudFlashlight@@UAEPAXI@Z PROC			; CHudFlashlight::`scalar deleting destructor', COMDAT
; _this$ = ecx
	push	ebp
	mov	ebp, esp
	sub	esp, 68					; 00000044H
	push	ebx
	push	esi
	push	edi
	mov	DWORD PTR _this$[ebp], ecx
	mov	ecx, DWORD PTR _this$[ebp]
	call	??1CHudFlashlight@@UAE@XZ
	mov	eax, DWORD PTR ___flags$[ebp]
	and	eax, 1
	je	SHORT $LN2@scalar
	push	48					; 00000030H
	mov	eax, DWORD PTR _this$[ebp]
	push	eax
	call	??3@YAXPAXI@Z				; operator delete
	add	esp, 8
$LN2@scalar:
	mov	eax, DWORD PTR _this$[ebp]
	pop	edi
	pop	esi
	pop	ebx
	mov	esp, ebp
	pop	ebp
	ret	4
??_GCHudFlashlight@@UAEPAXI@Z ENDP			; CHudFlashlight::`scalar deleting destructor'
_TEXT	ENDS
; Function compile flags: /Odtp /ZI
;	COMDAT ??1CHudFlashlight@@UAE@XZ
_TEXT	SEGMENT
_this$ = -4						; size = 4
??1CHudFlashlight@@UAE@XZ PROC				; CHudFlashlight::~CHudFlashlight, COMDAT
; _this$ = ecx
	push	ebp
	mov	ebp, esp
	sub	esp, 68					; 00000044H
	push	ebx
	push	esi
	push	edi
	mov	DWORD PTR _this$[ebp], ecx
	mov	ecx, DWORD PTR _this$[ebp]
	call	??1CHudBase@@UAE@XZ			; CHudBase::~CHudBase
	pop	edi
	pop	esi
	pop	ebx
	mov	esp, ebp
	pop	ebp
	ret	0
??1CHudFlashlight@@UAE@XZ ENDP				; CHudFlashlight::~CHudFlashlight
_TEXT	ENDS
; Function compile flags: /Odtp /ZI
;	COMDAT ??0CHudFlashlight@@QAE@XZ
_TEXT	SEGMENT
_this$ = -4						; size = 4
??0CHudFlashlight@@QAE@XZ PROC				; CHudFlashlight::CHudFlashlight, COMDAT
; _this$ = ecx
	push	ebp
	mov	ebp, esp
	sub	esp, 68					; 00000044H
	push	ebx
	push	esi
	push	edi
	mov	DWORD PTR _this$[ebp], ecx
	mov	ecx, DWORD PTR _this$[ebp]
	call	??0CHudBase@@QAE@XZ
	mov	eax, DWORD PTR _this$[ebp]
	mov	DWORD PTR [eax], OFFSET ??_7CHudFlashlight@@6B@
	mov	eax, DWORD PTR _this$[ebp]
	pop	edi
	pop	esi
	pop	ebx
	mov	esp, ebp
	pop	ebp
	ret	0
??0CHudFlashlight@@QAE@XZ ENDP				; CHudFlashlight::CHudFlashlight
_TEXT	ENDS
; Function compile flags: /Odtp /ZI
;	COMDAT ??_GCHudSayText@@UAEPAXI@Z
_TEXT	SEGMENT
_this$ = -4						; size = 4
___flags$ = 8						; size = 4
??_GCHudSayText@@UAEPAXI@Z PROC				; CHudSayText::`scalar deleting destructor', COMDAT
; _this$ = ecx
	push	ebp
	mov	ebp, esp
	sub	esp, 68					; 00000044H
	push	ebx
	push	esi
	push	edi
	mov	DWORD PTR _this$[ebp], ecx
	mov	ecx, DWORD PTR _this$[ebp]
	call	??1CHudSayText@@UAE@XZ
	mov	eax, DWORD PTR ___flags$[ebp]
	and	eax, 1
	je	SHORT $LN2@scalar
	push	16					; 00000010H
	mov	eax, DWORD PTR _this$[ebp]
	push	eax
	call	??3@YAXPAXI@Z				; operator delete
	add	esp, 8
$LN2@scalar:
	mov	eax, DWORD PTR _this$[ebp]
	pop	edi
	pop	esi
	pop	ebx
	mov	esp, ebp
	pop	ebp
	ret	4
??_GCHudSayText@@UAEPAXI@Z ENDP				; CHudSayText::`scalar deleting destructor'
_TEXT	ENDS
; Function compile flags: /Odtp /ZI
;	COMDAT ??1CHudSayText@@UAE@XZ
_TEXT	SEGMENT
_this$ = -4						; size = 4
??1CHudSayText@@UAE@XZ PROC				; CHudSayText::~CHudSayText, COMDAT
; _this$ = ecx
	push	ebp
	mov	ebp, esp
	sub	esp, 68					; 00000044H
	push	ebx
	push	esi
	push	edi
	mov	DWORD PTR _this$[ebp], ecx
	mov	ecx, DWORD PTR _this$[ebp]
	call	??1CHudBase@@UAE@XZ			; CHudBase::~CHudBase
	pop	edi
	pop	esi
	pop	ebx
	mov	esp, ebp
	pop	ebp
	ret	0
??1CHudSayText@@UAE@XZ ENDP				; CHudSayText::~CHudSayText
_TEXT	ENDS
; Function compile flags: /Odtp /ZI
;	COMDAT ??0CHudSayText@@QAE@XZ
_TEXT	SEGMENT
_this$ = -4						; size = 4
??0CHudSayText@@QAE@XZ PROC				; CHudSayText::CHudSayText, COMDAT
; _this$ = ecx
	push	ebp
	mov	ebp, esp
	sub	esp, 68					; 00000044H
	push	ebx
	push	esi
	push	edi
	mov	DWORD PTR _this$[ebp], ecx
	mov	ecx, DWORD PTR _this$[ebp]
	call	??0CHudBase@@QAE@XZ
	mov	eax, DWORD PTR _this$[ebp]
	mov	DWORD PTR [eax], OFFSET ??_7CHudSayText@@6B@
	mov	eax, DWORD PTR _this$[ebp]
	pop	edi
	pop	esi
	pop	ebx
	mov	esp, ebp
	pop	ebp
	ret	0
??0CHudSayText@@QAE@XZ ENDP				; CHudSayText::CHudSayText
_TEXT	ENDS
; Function compile flags: /Odtp /ZI
;	COMDAT ??_GCHudMenu@@UAEPAXI@Z
_TEXT	SEGMENT
_this$ = -4						; size = 4
___flags$ = 8						; size = 4
??_GCHudMenu@@UAEPAXI@Z PROC				; CHudMenu::`scalar deleting destructor', COMDAT
; _this$ = ecx
	push	ebp
	mov	ebp, esp
	sub	esp, 68					; 00000044H
	push	ebx
	push	esi
	push	edi
	mov	DWORD PTR _this$[ebp], ecx
	mov	ecx, DWORD PTR _this$[ebp]
	call	??1CHudMenu@@UAE@XZ
	mov	eax, DWORD PTR ___flags$[ebp]
	and	eax, 1
	je	SHORT $LN2@scalar
	push	24					; 00000018H
	mov	eax, DWORD PTR _this$[ebp]
	push	eax
	call	??3@YAXPAXI@Z				; operator delete
	add	esp, 8
$LN2@scalar:
	mov	eax, DWORD PTR _this$[ebp]
	pop	edi
	pop	esi
	pop	ebx
	mov	esp, ebp
	pop	ebp
	ret	4
??_GCHudMenu@@UAEPAXI@Z ENDP				; CHudMenu::`scalar deleting destructor'
_TEXT	ENDS
; Function compile flags: /Odtp /ZI
;	COMDAT ??1CHudMenu@@UAE@XZ
_TEXT	SEGMENT
_this$ = -4						; size = 4
??1CHudMenu@@UAE@XZ PROC				; CHudMenu::~CHudMenu, COMDAT
; _this$ = ecx
	push	ebp
	mov	ebp, esp
	sub	esp, 68					; 00000044H
	push	ebx
	push	esi
	push	edi
	mov	DWORD PTR _this$[ebp], ecx
	mov	ecx, DWORD PTR _this$[ebp]
	call	??1CHudBase@@UAE@XZ			; CHudBase::~CHudBase
	pop	edi
	pop	esi
	pop	ebx
	mov	esp, ebp
	pop	ebp
	ret	0
??1CHudMenu@@UAE@XZ ENDP				; CHudMenu::~CHudMenu
_TEXT	ENDS
; Function compile flags: /Odtp /ZI
;	COMDAT ??0CHudMenu@@QAE@XZ
_TEXT	SEGMENT
_this$ = -4						; size = 4
??0CHudMenu@@QAE@XZ PROC				; CHudMenu::CHudMenu, COMDAT
; _this$ = ecx
	push	ebp
	mov	ebp, esp
	sub	esp, 68					; 00000044H
	push	ebx
	push	esi
	push	edi
	mov	DWORD PTR _this$[ebp], ecx
	mov	ecx, DWORD PTR _this$[ebp]
	call	??0CHudBase@@QAE@XZ
	mov	eax, DWORD PTR _this$[ebp]
	mov	DWORD PTR [eax], OFFSET ??_7CHudMenu@@6B@
	mov	eax, DWORD PTR _this$[ebp]
	pop	edi
	pop	esi
	pop	ebx
	mov	esp, ebp
	pop	ebp
	ret	0
??0CHudMenu@@QAE@XZ ENDP				; CHudMenu::CHudMenu
_TEXT	ENDS
; Function compile flags: /Odtp /ZI
;	COMDAT ??_GCHudDeathNotice@@UAEPAXI@Z
_TEXT	SEGMENT
_this$ = -4						; size = 4
___flags$ = 8						; size = 4
??_GCHudDeathNotice@@UAEPAXI@Z PROC			; CHudDeathNotice::`scalar deleting destructor', COMDAT
; _this$ = ecx
	push	ebp
	mov	ebp, esp
	sub	esp, 68					; 00000044H
	push	ebx
	push	esi
	push	edi
	mov	DWORD PTR _this$[ebp], ecx
	mov	ecx, DWORD PTR _this$[ebp]
	call	??1CHudDeathNotice@@UAE@XZ
	mov	eax, DWORD PTR ___flags$[ebp]
	and	eax, 1
	je	SHORT $LN2@scalar
	push	12					; 0000000cH
	mov	eax, DWORD PTR _this$[ebp]
	push	eax
	call	??3@YAXPAXI@Z				; operator delete
	add	esp, 8
$LN2@scalar:
	mov	eax, DWORD PTR _this$[ebp]
	pop	edi
	pop	esi
	pop	ebx
	mov	esp, ebp
	pop	ebp
	ret	4
??_GCHudDeathNotice@@UAEPAXI@Z ENDP			; CHudDeathNotice::`scalar deleting destructor'
_TEXT	ENDS
; Function compile flags: /Odtp /ZI
;	COMDAT ??1CHudDeathNotice@@UAE@XZ
_TEXT	SEGMENT
_this$ = -4						; size = 4
??1CHudDeathNotice@@UAE@XZ PROC				; CHudDeathNotice::~CHudDeathNotice, COMDAT
; _this$ = ecx
	push	ebp
	mov	ebp, esp
	sub	esp, 68					; 00000044H
	push	ebx
	push	esi
	push	edi
	mov	DWORD PTR _this$[ebp], ecx
	mov	ecx, DWORD PTR _this$[ebp]
	call	??1CHudBase@@UAE@XZ			; CHudBase::~CHudBase
	pop	edi
	pop	esi
	pop	ebx
	mov	esp, ebp
	pop	ebp
	ret	0
??1CHudDeathNotice@@UAE@XZ ENDP				; CHudDeathNotice::~CHudDeathNotice
_TEXT	ENDS
; Function compile flags: /Odtp /ZI
;	COMDAT ??0CHudDeathNotice@@QAE@XZ
_TEXT	SEGMENT
_this$ = -4						; size = 4
??0CHudDeathNotice@@QAE@XZ PROC				; CHudDeathNotice::CHudDeathNotice, COMDAT
; _this$ = ecx
	push	ebp
	mov	ebp, esp
	sub	esp, 68					; 00000044H
	push	ebx
	push	esi
	push	edi
	mov	DWORD PTR _this$[ebp], ecx
	mov	ecx, DWORD PTR _this$[ebp]
	call	??0CHudBase@@QAE@XZ
	mov	eax, DWORD PTR _this$[ebp]
	mov	DWORD PTR [eax], OFFSET ??_7CHudDeathNotice@@6B@
	mov	eax, DWORD PTR _this$[ebp]
	pop	edi
	pop	esi
	pop	ebx
	mov	esp, ebp
	pop	ebp
	ret	0
??0CHudDeathNotice@@QAE@XZ ENDP				; CHudDeathNotice::CHudDeathNotice
_TEXT	ENDS
; Function compile flags: /Odtp /ZI
;	COMDAT ??_GCHudStatusBar@@UAEPAXI@Z
_TEXT	SEGMENT
_this$ = -4						; size = 4
___flags$ = 8						; size = 4
??_GCHudStatusBar@@UAEPAXI@Z PROC			; CHudStatusBar::`scalar deleting destructor', COMDAT
; _this$ = ecx
	push	ebp
	mov	ebp, esp
	sub	esp, 68					; 00000044H
	push	ebx
	push	esi
	push	edi
	mov	DWORD PTR _this$[ebp], ecx
	mov	ecx, DWORD PTR _this$[ebp]
	call	??1CHudStatusBar@@UAE@XZ
	mov	eax, DWORD PTR ___flags$[ebp]
	and	eax, 1
	je	SHORT $LN2@scalar
	push	564					; 00000234H
	mov	eax, DWORD PTR _this$[ebp]
	push	eax
	call	??3@YAXPAXI@Z				; operator delete
	add	esp, 8
$LN2@scalar:
	mov	eax, DWORD PTR _this$[ebp]
	pop	edi
	pop	esi
	pop	ebx
	mov	esp, ebp
	pop	ebp
	ret	4
??_GCHudStatusBar@@UAEPAXI@Z ENDP			; CHudStatusBar::`scalar deleting destructor'
_TEXT	ENDS
; Function compile flags: /Odtp /ZI
;	COMDAT ??1CHudStatusBar@@UAE@XZ
_TEXT	SEGMENT
_this$ = -4						; size = 4
??1CHudStatusBar@@UAE@XZ PROC				; CHudStatusBar::~CHudStatusBar, COMDAT
; _this$ = ecx
	push	ebp
	mov	ebp, esp
	sub	esp, 68					; 00000044H
	push	ebx
	push	esi
	push	edi
	mov	DWORD PTR _this$[ebp], ecx
	mov	ecx, DWORD PTR _this$[ebp]
	call	??1CHudBase@@UAE@XZ			; CHudBase::~CHudBase
	pop	edi
	pop	esi
	pop	ebx
	mov	esp, ebp
	pop	ebp
	ret	0
??1CHudStatusBar@@UAE@XZ ENDP				; CHudStatusBar::~CHudStatusBar
_TEXT	ENDS
; Function compile flags: /Odtp /ZI
;	COMDAT ??0CHudStatusBar@@QAE@XZ
_TEXT	SEGMENT
_this$ = -4						; size = 4
??0CHudStatusBar@@QAE@XZ PROC				; CHudStatusBar::CHudStatusBar, COMDAT
; _this$ = ecx
	push	ebp
	mov	ebp, esp
	sub	esp, 68					; 00000044H
	push	ebx
	push	esi
	push	edi
	mov	DWORD PTR _this$[ebp], ecx
	mov	ecx, DWORD PTR _this$[ebp]
	call	??0CHudBase@@QAE@XZ
	mov	eax, DWORD PTR _this$[ebp]
	mov	DWORD PTR [eax], OFFSET ??_7CHudStatusBar@@6B@
	mov	eax, DWORD PTR _this$[ebp]
	pop	edi
	pop	esi
	pop	ebx
	mov	esp, ebp
	pop	ebp
	ret	0
??0CHudStatusBar@@QAE@XZ ENDP				; CHudStatusBar::CHudStatusBar
_TEXT	ENDS
; Function compile flags: /Odtp /ZI
;	COMDAT ??_GCHudScoreboard@@UAEPAXI@Z
_TEXT	SEGMENT
_this$ = -4						; size = 4
___flags$ = 8						; size = 4
??_GCHudScoreboard@@UAEPAXI@Z PROC			; CHudScoreboard::`scalar deleting destructor', COMDAT
; _this$ = ecx
	push	ebp
	mov	ebp, esp
	sub	esp, 68					; 00000044H
	push	ebx
	push	esi
	push	edi
	mov	DWORD PTR _this$[ebp], ecx
	mov	ecx, DWORD PTR _this$[ebp]
	call	??1CHudScoreboard@@UAE@XZ
	mov	eax, DWORD PTR ___flags$[ebp]
	and	eax, 1
	je	SHORT $LN2@scalar
	push	36					; 00000024H
	mov	eax, DWORD PTR _this$[ebp]
	push	eax
	call	??3@YAXPAXI@Z				; operator delete
	add	esp, 8
$LN2@scalar:
	mov	eax, DWORD PTR _this$[ebp]
	pop	edi
	pop	esi
	pop	ebx
	mov	esp, ebp
	pop	ebp
	ret	4
??_GCHudScoreboard@@UAEPAXI@Z ENDP			; CHudScoreboard::`scalar deleting destructor'
_TEXT	ENDS
; Function compile flags: /Odtp /ZI
;	COMDAT ??1CHudScoreboard@@UAE@XZ
_TEXT	SEGMENT
_this$ = -4						; size = 4
??1CHudScoreboard@@UAE@XZ PROC				; CHudScoreboard::~CHudScoreboard, COMDAT
; _this$ = ecx
	push	ebp
	mov	ebp, esp
	sub	esp, 68					; 00000044H
	push	ebx
	push	esi
	push	edi
	mov	DWORD PTR _this$[ebp], ecx
	mov	ecx, DWORD PTR _this$[ebp]
	call	??1CHudBase@@UAE@XZ			; CHudBase::~CHudBase
	pop	edi
	pop	esi
	pop	ebx
	mov	esp, ebp
	pop	ebp
	ret	0
??1CHudScoreboard@@UAE@XZ ENDP				; CHudScoreboard::~CHudScoreboard
_TEXT	ENDS
; Function compile flags: /Odtp /ZI
;	COMDAT ??0CHudScoreboard@@QAE@XZ
_TEXT	SEGMENT
_this$ = -4						; size = 4
??0CHudScoreboard@@QAE@XZ PROC				; CHudScoreboard::CHudScoreboard, COMDAT
; _this$ = ecx
	push	ebp
	mov	ebp, esp
	sub	esp, 68					; 00000044H
	push	ebx
	push	esi
	push	edi
	mov	DWORD PTR _this$[ebp], ecx
	mov	ecx, DWORD PTR _this$[ebp]
	call	??0CHudBase@@QAE@XZ
	mov	eax, DWORD PTR _this$[ebp]
	mov	DWORD PTR [eax], OFFSET ??_7CHudScoreboard@@6B@
	mov	eax, DWORD PTR _this$[ebp]
	pop	edi
	pop	esi
	pop	ebx
	mov	esp, ebp
	pop	ebp
	ret	0
??0CHudScoreboard@@QAE@XZ ENDP				; CHudScoreboard::CHudScoreboard
_TEXT	ENDS
; Function compile flags: /Odtp /ZI
;	COMDAT ??_GCHudMOTD@@UAEPAXI@Z
_TEXT	SEGMENT
_this$ = -4						; size = 4
___flags$ = 8						; size = 4
??_GCHudMOTD@@UAEPAXI@Z PROC				; CHudMOTD::`scalar deleting destructor', COMDAT
; _this$ = ecx
	push	ebp
	mov	ebp, esp
	sub	esp, 68					; 00000044H
	push	ebx
	push	esi
	push	edi
	mov	DWORD PTR _this$[ebp], ecx
	mov	ecx, DWORD PTR _this$[ebp]
	call	??1CHudMOTD@@UAE@XZ
	mov	eax, DWORD PTR ___flags$[ebp]
	and	eax, 1
	je	SHORT $LN2@scalar
	push	1556					; 00000614H
	mov	eax, DWORD PTR _this$[ebp]
	push	eax
	call	??3@YAXPAXI@Z				; operator delete
	add	esp, 8
$LN2@scalar:
	mov	eax, DWORD PTR _this$[ebp]
	pop	edi
	pop	esi
	pop	ebx
	mov	esp, ebp
	pop	ebp
	ret	4
??_GCHudMOTD@@UAEPAXI@Z ENDP				; CHudMOTD::`scalar deleting destructor'
_TEXT	ENDS
; Function compile flags: /Odtp /ZI
;	COMDAT ??1CHudMOTD@@UAE@XZ
_TEXT	SEGMENT
_this$ = -4						; size = 4
??1CHudMOTD@@UAE@XZ PROC				; CHudMOTD::~CHudMOTD, COMDAT
; _this$ = ecx
	push	ebp
	mov	ebp, esp
	sub	esp, 68					; 00000044H
	push	ebx
	push	esi
	push	edi
	mov	DWORD PTR _this$[ebp], ecx
	mov	ecx, DWORD PTR _this$[ebp]
	call	??1CHudBase@@UAE@XZ			; CHudBase::~CHudBase
	pop	edi
	pop	esi
	pop	ebx
	mov	esp, ebp
	pop	ebp
	ret	0
??1CHudMOTD@@UAE@XZ ENDP				; CHudMOTD::~CHudMOTD
_TEXT	ENDS
; Function compile flags: /Odtp /ZI
;	COMDAT ??0CHudMOTD@@QAE@XZ
_TEXT	SEGMENT
_this$ = -4						; size = 4
??0CHudMOTD@@QAE@XZ PROC				; CHudMOTD::CHudMOTD, COMDAT
; _this$ = ecx
	push	ebp
	mov	ebp, esp
	sub	esp, 68					; 00000044H
	push	ebx
	push	esi
	push	edi
	mov	DWORD PTR _this$[ebp], ecx
	mov	ecx, DWORD PTR _this$[ebp]
	call	??0CHudBase@@QAE@XZ
	mov	eax, DWORD PTR _this$[ebp]
	mov	DWORD PTR [eax], OFFSET ??_7CHudMOTD@@6B@
	mov	eax, DWORD PTR _this$[ebp]
	pop	edi
	pop	esi
	pop	ebx
	mov	esp, ebp
	pop	ebp
	ret	0
??0CHudMOTD@@QAE@XZ ENDP				; CHudMOTD::CHudMOTD
_TEXT	ENDS
; Function compile flags: /Odtp /ZI
;	COMDAT ??_GCHudTrain@@UAEPAXI@Z
_TEXT	SEGMENT
_this$ = -4						; size = 4
___flags$ = 8						; size = 4
??_GCHudTrain@@UAEPAXI@Z PROC				; CHudTrain::`scalar deleting destructor', COMDAT
; _this$ = ecx
	push	ebp
	mov	ebp, esp
	sub	esp, 68					; 00000044H
	push	ebx
	push	esi
	push	edi
	mov	DWORD PTR _this$[ebp], ecx
	mov	ecx, DWORD PTR _this$[ebp]
	call	??1CHudTrain@@UAE@XZ
	mov	eax, DWORD PTR ___flags$[ebp]
	and	eax, 1
	je	SHORT $LN2@scalar
	push	16					; 00000010H
	mov	eax, DWORD PTR _this$[ebp]
	push	eax
	call	??3@YAXPAXI@Z				; operator delete
	add	esp, 8
$LN2@scalar:
	mov	eax, DWORD PTR _this$[ebp]
	pop	edi
	pop	esi
	pop	ebx
	mov	esp, ebp
	pop	ebp
	ret	4
??_GCHudTrain@@UAEPAXI@Z ENDP				; CHudTrain::`scalar deleting destructor'
_TEXT	ENDS
; Function compile flags: /Odtp /ZI
;	COMDAT ??1CHudTrain@@UAE@XZ
_TEXT	SEGMENT
_this$ = -4						; size = 4
??1CHudTrain@@UAE@XZ PROC				; CHudTrain::~CHudTrain, COMDAT
; _this$ = ecx
	push	ebp
	mov	ebp, esp
	sub	esp, 68					; 00000044H
	push	ebx
	push	esi
	push	edi
	mov	DWORD PTR _this$[ebp], ecx
	mov	ecx, DWORD PTR _this$[ebp]
	call	??1CHudBase@@UAE@XZ			; CHudBase::~CHudBase
	pop	edi
	pop	esi
	pop	ebx
	mov	esp, ebp
	pop	ebp
	ret	0
??1CHudTrain@@UAE@XZ ENDP				; CHudTrain::~CHudTrain
_TEXT	ENDS
; Function compile flags: /Odtp /ZI
;	COMDAT ??0CHudTrain@@QAE@XZ
_TEXT	SEGMENT
_this$ = -4						; size = 4
??0CHudTrain@@QAE@XZ PROC				; CHudTrain::CHudTrain, COMDAT
; _this$ = ecx
	push	ebp
	mov	ebp, esp
	sub	esp, 68					; 00000044H
	push	ebx
	push	esi
	push	edi
	mov	DWORD PTR _this$[ebp], ecx
	mov	ecx, DWORD PTR _this$[ebp]
	call	??0CHudBase@@QAE@XZ
	mov	eax, DWORD PTR _this$[ebp]
	mov	DWORD PTR [eax], OFFSET ??_7CHudTrain@@6B@
	mov	eax, DWORD PTR _this$[ebp]
	pop	edi
	pop	esi
	pop	ebx
	mov	esp, ebp
	pop	ebp
	ret	0
??0CHudTrain@@QAE@XZ ENDP				; CHudTrain::CHudTrain
_TEXT	ENDS
; Function compile flags: /Odtp /ZI
;	COMDAT ??_GCHudLensflare@@UAEPAXI@Z
_TEXT	SEGMENT
_this$ = -4						; size = 4
___flags$ = 8						; size = 4
??_GCHudLensflare@@UAEPAXI@Z PROC			; CHudLensflare::`scalar deleting destructor', COMDAT
; _this$ = ecx
	push	ebp
	mov	ebp, esp
	sub	esp, 68					; 00000044H
	push	ebx
	push	esi
	push	edi
	mov	DWORD PTR _this$[ebp], ecx
	mov	ecx, DWORD PTR _this$[ebp]
	call	??1CHudLensflare@@UAE@XZ
	mov	eax, DWORD PTR ___flags$[ebp]
	and	eax, 1
	je	SHORT $LN2@scalar
	push	380					; 0000017cH
	mov	eax, DWORD PTR _this$[ebp]
	push	eax
	call	??3@YAXPAXI@Z				; operator delete
	add	esp, 8
$LN2@scalar:
	mov	eax, DWORD PTR _this$[ebp]
	pop	edi
	pop	esi
	pop	ebx
	mov	esp, ebp
	pop	ebp
	ret	4
??_GCHudLensflare@@UAEPAXI@Z ENDP			; CHudLensflare::`scalar deleting destructor'
_TEXT	ENDS
; Function compile flags: /Odtp /ZI
;	COMDAT ??1CHudLensflare@@UAE@XZ
_TEXT	SEGMENT
_this$ = -4						; size = 4
??1CHudLensflare@@UAE@XZ PROC				; CHudLensflare::~CHudLensflare, COMDAT
; _this$ = ecx
	push	ebp
	mov	ebp, esp
	sub	esp, 68					; 00000044H
	push	ebx
	push	esi
	push	edi
	mov	DWORD PTR _this$[ebp], ecx
	mov	ecx, DWORD PTR _this$[ebp]
	call	??1CHudBase@@UAE@XZ			; CHudBase::~CHudBase
	pop	edi
	pop	esi
	pop	ebx
	mov	esp, ebp
	pop	ebp
	ret	0
??1CHudLensflare@@UAE@XZ ENDP				; CHudLensflare::~CHudLensflare
_TEXT	ENDS
; Function compile flags: /Odtp /ZI
;	COMDAT ??0CHudLensflare@@QAE@XZ
_TEXT	SEGMENT
_this$ = -4						; size = 4
??0CHudLensflare@@QAE@XZ PROC				; CHudLensflare::CHudLensflare, COMDAT
; _this$ = ecx
	push	ebp
	mov	ebp, esp
	sub	esp, 68					; 00000044H
	push	ebx
	push	esi
	push	edi
	mov	DWORD PTR _this$[ebp], ecx
	mov	ecx, DWORD PTR _this$[ebp]
	call	??0CHudBase@@QAE@XZ
	mov	eax, DWORD PTR _this$[ebp]
	mov	DWORD PTR [eax], OFFSET ??_7CHudLensflare@@6B@
	mov	eax, DWORD PTR _this$[ebp]
	pop	edi
	pop	esi
	pop	ebx
	mov	esp, ebp
	pop	ebp
	ret	0
??0CHudLensflare@@QAE@XZ ENDP				; CHudLensflare::CHudLensflare
_TEXT	ENDS
; Function compile flags: /Odtp /ZI
;	COMDAT ??_GCHudGeiger@@UAEPAXI@Z
_TEXT	SEGMENT
_this$ = -4						; size = 4
___flags$ = 8						; size = 4
??_GCHudGeiger@@UAEPAXI@Z PROC				; CHudGeiger::`scalar deleting destructor', COMDAT
; _this$ = ecx
	push	ebp
	mov	ebp, esp
	sub	esp, 68					; 00000044H
	push	ebx
	push	esi
	push	edi
	mov	DWORD PTR _this$[ebp], ecx
	mov	ecx, DWORD PTR _this$[ebp]
	call	??1CHudGeiger@@UAE@XZ
	mov	eax, DWORD PTR ___flags$[ebp]
	and	eax, 1
	je	SHORT $LN2@scalar
	push	12					; 0000000cH
	mov	eax, DWORD PTR _this$[ebp]
	push	eax
	call	??3@YAXPAXI@Z				; operator delete
	add	esp, 8
$LN2@scalar:
	mov	eax, DWORD PTR _this$[ebp]
	pop	edi
	pop	esi
	pop	ebx
	mov	esp, ebp
	pop	ebp
	ret	4
??_GCHudGeiger@@UAEPAXI@Z ENDP				; CHudGeiger::`scalar deleting destructor'
_TEXT	ENDS
; Function compile flags: /Odtp /ZI
;	COMDAT ??1CHudGeiger@@UAE@XZ
_TEXT	SEGMENT
_this$ = -4						; size = 4
??1CHudGeiger@@UAE@XZ PROC				; CHudGeiger::~CHudGeiger, COMDAT
; _this$ = ecx
	push	ebp
	mov	ebp, esp
	sub	esp, 68					; 00000044H
	push	ebx
	push	esi
	push	edi
	mov	DWORD PTR _this$[ebp], ecx
	mov	ecx, DWORD PTR _this$[ebp]
	call	??1CHudBase@@UAE@XZ			; CHudBase::~CHudBase
	pop	edi
	pop	esi
	pop	ebx
	mov	esp, ebp
	pop	ebp
	ret	0
??1CHudGeiger@@UAE@XZ ENDP				; CHudGeiger::~CHudGeiger
_TEXT	ENDS
; Function compile flags: /Odtp /ZI
;	COMDAT ??0CHudGeiger@@QAE@XZ
_TEXT	SEGMENT
_this$ = -4						; size = 4
??0CHudGeiger@@QAE@XZ PROC				; CHudGeiger::CHudGeiger, COMDAT
; _this$ = ecx
	push	ebp
	mov	ebp, esp
	sub	esp, 68					; 00000044H
	push	ebx
	push	esi
	push	edi
	mov	DWORD PTR _this$[ebp], ecx
	mov	ecx, DWORD PTR _this$[ebp]
	call	??0CHudBase@@QAE@XZ
	mov	eax, DWORD PTR _this$[ebp]
	mov	DWORD PTR [eax], OFFSET ??_7CHudGeiger@@6B@
	mov	eax, DWORD PTR _this$[ebp]
	pop	edi
	pop	esi
	pop	ebx
	mov	esp, ebp
	pop	ebp
	ret	0
??0CHudGeiger@@QAE@XZ ENDP				; CHudGeiger::CHudGeiger
_TEXT	ENDS
; Function compile flags: /Odtp /ZI
;	COMDAT ??_GCHudHealth@@UAEPAXI@Z
_TEXT	SEGMENT
_this$ = -4						; size = 4
___flags$ = 8						; size = 4
??_GCHudHealth@@UAEPAXI@Z PROC				; CHudHealth::`scalar deleting destructor', COMDAT
; _this$ = ecx
	push	ebp
	mov	ebp, esp
	sub	esp, 68					; 00000044H
	push	ebx
	push	esi
	push	edi
	mov	DWORD PTR _this$[ebp], ecx
	mov	ecx, DWORD PTR _this$[ebp]
	call	??1CHudHealth@@UAE@XZ
	mov	eax, DWORD PTR ___flags$[ebp]
	and	eax, 1
	je	SHORT $LN2@scalar
	push	200					; 000000c8H
	mov	eax, DWORD PTR _this$[ebp]
	push	eax
	call	??3@YAXPAXI@Z				; operator delete
	add	esp, 8
$LN2@scalar:
	mov	eax, DWORD PTR _this$[ebp]
	pop	edi
	pop	esi
	pop	ebx
	mov	esp, ebp
	pop	ebp
	ret	4
??_GCHudHealth@@UAEPAXI@Z ENDP				; CHudHealth::`scalar deleting destructor'
_TEXT	ENDS
; Function compile flags: /Odtp /ZI
;	COMDAT ??1CHudHealth@@UAE@XZ
_TEXT	SEGMENT
_this$ = -4						; size = 4
??1CHudHealth@@UAE@XZ PROC				; CHudHealth::~CHudHealth, COMDAT
; _this$ = ecx
	push	ebp
	mov	ebp, esp
	sub	esp, 68					; 00000044H
	push	ebx
	push	esi
	push	edi
	mov	DWORD PTR _this$[ebp], ecx
	mov	ecx, DWORD PTR _this$[ebp]
	call	??1CHudBase@@UAE@XZ			; CHudBase::~CHudBase
	pop	edi
	pop	esi
	pop	ebx
	mov	esp, ebp
	pop	ebp
	ret	0
??1CHudHealth@@UAE@XZ ENDP				; CHudHealth::~CHudHealth
_TEXT	ENDS
; Function compile flags: /Odtp /ZI
;	COMDAT ??0CHudHealth@@QAE@XZ
_TEXT	SEGMENT
_this$ = -4						; size = 4
??0CHudHealth@@QAE@XZ PROC				; CHudHealth::CHudHealth, COMDAT
; _this$ = ecx
	push	ebp
	mov	ebp, esp
	sub	esp, 68					; 00000044H
	push	ebx
	push	esi
	push	edi
	mov	DWORD PTR _this$[ebp], ecx
	mov	ecx, DWORD PTR _this$[ebp]
	call	??0CHudBase@@QAE@XZ
	mov	eax, DWORD PTR _this$[ebp]
	mov	DWORD PTR [eax], OFFSET ??_7CHudHealth@@6B@
	mov	eax, DWORD PTR _this$[ebp]
	pop	edi
	pop	esi
	pop	ebx
	mov	esp, ebp
	pop	ebp
	ret	0
??0CHudHealth@@QAE@XZ ENDP				; CHudHealth::CHudHealth
_TEXT	ENDS
; Function compile flags: /Odtp /ZI
;	COMDAT ??_GCHudAmmoSecondary@@UAEPAXI@Z
_TEXT	SEGMENT
_this$ = -4						; size = 4
___flags$ = 8						; size = 4
??_GCHudAmmoSecondary@@UAEPAXI@Z PROC			; CHudAmmoSecondary::`scalar deleting destructor', COMDAT
; _this$ = ecx
	push	ebp
	mov	ebp, esp
	sub	esp, 68					; 00000044H
	push	ebx
	push	esi
	push	edi
	mov	DWORD PTR _this$[ebp], ecx
	mov	ecx, DWORD PTR _this$[ebp]
	call	??1CHudAmmoSecondary@@UAE@XZ
	mov	eax, DWORD PTR ___flags$[ebp]
	and	eax, 1
	je	SHORT $LN2@scalar
	push	32					; 00000020H
	mov	eax, DWORD PTR _this$[ebp]
	push	eax
	call	??3@YAXPAXI@Z				; operator delete
	add	esp, 8
$LN2@scalar:
	mov	eax, DWORD PTR _this$[ebp]
	pop	edi
	pop	esi
	pop	ebx
	mov	esp, ebp
	pop	ebp
	ret	4
??_GCHudAmmoSecondary@@UAEPAXI@Z ENDP			; CHudAmmoSecondary::`scalar deleting destructor'
_TEXT	ENDS
; Function compile flags: /Odtp /ZI
;	COMDAT ??1CHudAmmoSecondary@@UAE@XZ
_TEXT	SEGMENT
_this$ = -4						; size = 4
??1CHudAmmoSecondary@@UAE@XZ PROC			; CHudAmmoSecondary::~CHudAmmoSecondary, COMDAT
; _this$ = ecx
	push	ebp
	mov	ebp, esp
	sub	esp, 68					; 00000044H
	push	ebx
	push	esi
	push	edi
	mov	DWORD PTR _this$[ebp], ecx
	mov	ecx, DWORD PTR _this$[ebp]
	call	??1CHudBase@@UAE@XZ			; CHudBase::~CHudBase
	pop	edi
	pop	esi
	pop	ebx
	mov	esp, ebp
	pop	ebp
	ret	0
??1CHudAmmoSecondary@@UAE@XZ ENDP			; CHudAmmoSecondary::~CHudAmmoSecondary
_TEXT	ENDS
; Function compile flags: /Odtp /ZI
;	COMDAT ??0CHudAmmoSecondary@@QAE@XZ
_TEXT	SEGMENT
_this$ = -4						; size = 4
??0CHudAmmoSecondary@@QAE@XZ PROC			; CHudAmmoSecondary::CHudAmmoSecondary, COMDAT
; _this$ = ecx
	push	ebp
	mov	ebp, esp
	sub	esp, 68					; 00000044H
	push	ebx
	push	esi
	push	edi
	mov	DWORD PTR _this$[ebp], ecx
	mov	ecx, DWORD PTR _this$[ebp]
	call	??0CHudBase@@QAE@XZ
	mov	eax, DWORD PTR _this$[ebp]
	mov	DWORD PTR [eax], OFFSET ??_7CHudAmmoSecondary@@6B@
	mov	eax, DWORD PTR _this$[ebp]
	pop	edi
	pop	esi
	pop	ebx
	mov	esp, ebp
	pop	ebp
	ret	0
??0CHudAmmoSecondary@@QAE@XZ ENDP			; CHudAmmoSecondary::CHudAmmoSecondary
_TEXT	ENDS
; Function compile flags: /Odtp /ZI
;	COMDAT ??_GCHudAmmo@@UAEPAXI@Z
_TEXT	SEGMENT
_this$ = -4						; size = 4
___flags$ = 8						; size = 4
??_GCHudAmmo@@UAEPAXI@Z PROC				; CHudAmmo::`scalar deleting destructor', COMDAT
; _this$ = ecx
	push	ebp
	mov	ebp, esp
	sub	esp, 68					; 00000044H
	push	ebx
	push	esi
	push	edi
	mov	DWORD PTR _this$[ebp], ecx
	mov	ecx, DWORD PTR _this$[ebp]
	call	??1CHudAmmo@@UAE@XZ
	mov	eax, DWORD PTR ___flags$[ebp]
	and	eax, 1
	je	SHORT $LN2@scalar
	push	36					; 00000024H
	mov	eax, DWORD PTR _this$[ebp]
	push	eax
	call	??3@YAXPAXI@Z				; operator delete
	add	esp, 8
$LN2@scalar:
	mov	eax, DWORD PTR _this$[ebp]
	pop	edi
	pop	esi
	pop	ebx
	mov	esp, ebp
	pop	ebp
	ret	4
??_GCHudAmmo@@UAEPAXI@Z ENDP				; CHudAmmo::`scalar deleting destructor'
_TEXT	ENDS
; Function compile flags: /Odtp /ZI
;	COMDAT ??1CHudAmmo@@UAE@XZ
_TEXT	SEGMENT
_this$ = -4						; size = 4
??1CHudAmmo@@UAE@XZ PROC				; CHudAmmo::~CHudAmmo, COMDAT
; _this$ = ecx
	push	ebp
	mov	ebp, esp
	sub	esp, 68					; 00000044H
	push	ebx
	push	esi
	push	edi
	mov	DWORD PTR _this$[ebp], ecx
	mov	ecx, DWORD PTR _this$[ebp]
	call	??1CHudBase@@UAE@XZ			; CHudBase::~CHudBase
	pop	edi
	pop	esi
	pop	ebx
	mov	esp, ebp
	pop	ebp
	ret	0
??1CHudAmmo@@UAE@XZ ENDP				; CHudAmmo::~CHudAmmo
_TEXT	ENDS
; Function compile flags: /Odtp /ZI
;	COMDAT ??0CHudAmmo@@QAE@XZ
_TEXT	SEGMENT
_this$ = -4						; size = 4
??0CHudAmmo@@QAE@XZ PROC				; CHudAmmo::CHudAmmo, COMDAT
; _this$ = ecx
	push	ebp
	mov	ebp, esp
	sub	esp, 68					; 00000044H
	push	ebx
	push	esi
	push	edi
	mov	DWORD PTR _this$[ebp], ecx
	mov	ecx, DWORD PTR _this$[ebp]
	call	??0CHudBase@@QAE@XZ
	mov	eax, DWORD PTR _this$[ebp]
	mov	DWORD PTR [eax], OFFSET ??_7CHudAmmo@@6B@
	mov	eax, DWORD PTR _this$[ebp]
	pop	edi
	pop	esi
	pop	ebx
	mov	esp, ebp
	pop	ebp
	ret	0
??0CHudAmmo@@QAE@XZ ENDP				; CHudAmmo::CHudAmmo
_TEXT	ENDS
; Function compile flags: /Odtp /ZI
;	COMDAT ??_GCHudBase@@UAEPAXI@Z
_TEXT	SEGMENT
_this$ = -4						; size = 4
___flags$ = 8						; size = 4
??_GCHudBase@@UAEPAXI@Z PROC				; CHudBase::`scalar deleting destructor', COMDAT
; _this$ = ecx
	push	ebp
	mov	ebp, esp
	sub	esp, 68					; 00000044H
	push	ebx
	push	esi
	push	edi
	mov	DWORD PTR _this$[ebp], ecx
	mov	ecx, DWORD PTR _this$[ebp]
	call	??1CHudBase@@UAE@XZ			; CHudBase::~CHudBase
	mov	eax, DWORD PTR ___flags$[ebp]
	and	eax, 1
	je	SHORT $LN2@scalar
	push	8
	mov	eax, DWORD PTR _this$[ebp]
	push	eax
	call	??3@YAXPAXI@Z				; operator delete
	add	esp, 8
$LN2@scalar:
	mov	eax, DWORD PTR _this$[ebp]
	pop	edi
	pop	esi
	pop	ebx
	mov	esp, ebp
	pop	ebp
	ret	4
??_GCHudBase@@UAEPAXI@Z ENDP				; CHudBase::`scalar deleting destructor'
_TEXT	ENDS
; Function compile flags: /Odtp /ZI
;	COMDAT ??0CHudBase@@QAE@XZ
_TEXT	SEGMENT
_this$ = -4						; size = 4
??0CHudBase@@QAE@XZ PROC				; CHudBase::CHudBase, COMDAT
; _this$ = ecx
	push	ebp
	mov	ebp, esp
	sub	esp, 68					; 00000044H
	push	ebx
	push	esi
	push	edi
	mov	DWORD PTR _this$[ebp], ecx
	mov	eax, DWORD PTR _this$[ebp]
	mov	DWORD PTR [eax], OFFSET ??_7CHudBase@@6B@
	mov	eax, DWORD PTR _this$[ebp]
	pop	edi
	pop	esi
	pop	ebx
	mov	esp, ebp
	pop	ebp
	ret	0
??0CHudBase@@QAE@XZ ENDP				; CHudBase::CHudBase
_TEXT	ENDS
; Function compile flags: /Odtp /ZI
; File d:\!diffusion 2020\source code 2022\client-server\client\hud.h
;	COMDAT ?InitHUDData@CHudBase@@UAEXXZ
_TEXT	SEGMENT
_this$ = -4						; size = 4
?InitHUDData@CHudBase@@UAEXXZ PROC			; CHudBase::InitHUDData, COMDAT
; _this$ = ecx

; 79   : 	virtual void InitHUDData( void ) {} // called every time a server is connected to

	push	ebp
	mov	ebp, esp
	sub	esp, 68					; 00000044H
	push	ebx
	push	esi
	push	edi
	mov	DWORD PTR _this$[ebp], ecx
	pop	edi
	pop	esi
	pop	ebx
	mov	esp, ebp
	pop	ebp
	ret	0
?InitHUDData@CHudBase@@UAEXXZ ENDP			; CHudBase::InitHUDData
_TEXT	ENDS
; Function compile flags: /Odtp /ZI
; File d:\!diffusion 2020\source code 2022\client-server\client\hud.h
;	COMDAT ?Reset@CHudBase@@UAEXXZ
_TEXT	SEGMENT
_this$ = -4						; size = 4
?Reset@CHudBase@@UAEXXZ PROC				; CHudBase::Reset, COMDAT
; _this$ = ecx

; 78   : 	virtual void Reset(void) {}

	push	ebp
	mov	ebp, esp
	sub	esp, 68					; 00000044H
	push	ebx
	push	esi
	push	edi
	mov	DWORD PTR _this$[ebp], ecx
	pop	edi
	pop	esi
	pop	ebx
	mov	esp, ebp
	pop	ebp
	ret	0
?Reset@CHudBase@@UAEXXZ ENDP				; CHudBase::Reset
_TEXT	ENDS
; Function compile flags: /Odtp /ZI
; File d:\!diffusion 2020\source code 2022\client-server\client\hud.h
;	COMDAT ?Think@CHudBase@@UAEXXZ
_TEXT	SEGMENT
_this$ = -4						; size = 4
?Think@CHudBase@@UAEXXZ PROC				; CHudBase::Think, COMDAT
; _this$ = ecx

; 77   : 	virtual void Think(void) {}

	push	ebp
	mov	ebp, esp
	sub	esp, 68					; 00000044H
	push	ebx
	push	esi
	push	edi
	mov	DWORD PTR _this$[ebp], ecx
	pop	edi
	pop	esi
	pop	ebx
	mov	esp, ebp
	pop	ebp
	ret	0
?Think@CHudBase@@UAEXXZ ENDP				; CHudBase::Think
_TEXT	ENDS
; Function compile flags: /Odtp /ZI
; File d:\!diffusion 2020\source code 2022\client-server\client\hud.h
;	COMDAT ?Draw@CHudBase@@UAEHM@Z
_TEXT	SEGMENT
_this$ = -4						; size = 4
_flTime$ = 8						; size = 4
?Draw@CHudBase@@UAEHM@Z PROC				; CHudBase::Draw, COMDAT
; _this$ = ecx

; 76   : 	virtual int Draw(float flTime) { return 0; }

	push	ebp
	mov	ebp, esp
	sub	esp, 68					; 00000044H
	push	ebx
	push	esi
	push	edi
	mov	DWORD PTR _this$[ebp], ecx
	xor	eax, eax
	pop	edi
	pop	esi
	pop	ebx
	mov	esp, ebp
	pop	ebp
	ret	4
?Draw@CHudBase@@UAEHM@Z ENDP				; CHudBase::Draw
_TEXT	ENDS
; Function compile flags: /Odtp /ZI
; File d:\!diffusion 2020\source code 2022\client-server\client\hud.h
;	COMDAT ?VidInit@CHudBase@@UAEHXZ
_TEXT	SEGMENT
_this$ = -4						; size = 4
?VidInit@CHudBase@@UAEHXZ PROC				; CHudBase::VidInit, COMDAT
; _this$ = ecx

; 75   : 	virtual int VidInit( void ) { return 0; }

	push	ebp
	mov	ebp, esp
	sub	esp, 68					; 00000044H
	push	ebx
	push	esi
	push	edi
	mov	DWORD PTR _this$[ebp], ecx
	xor	eax, eax
	pop	edi
	pop	esi
	pop	ebx
	mov	esp, ebp
	pop	ebp
	ret	0
?VidInit@CHudBase@@UAEHXZ ENDP				; CHudBase::VidInit
_TEXT	ENDS
; Function compile flags: /Odtp /ZI
; File d:\!diffusion 2020\source code 2022\client-server\client\hud.h
;	COMDAT ?Init@CHudBase@@UAEHXZ
_TEXT	SEGMENT
_this$ = -4						; size = 4
?Init@CHudBase@@UAEHXZ PROC				; CHudBase::Init, COMDAT
; _this$ = ecx

; 74   : 	virtual int Init( void ) { return 0; }

	push	ebp
	mov	ebp, esp
	sub	esp, 68					; 00000044H
	push	ebx
	push	esi
	push	edi
	mov	DWORD PTR _this$[ebp], ecx
	xor	eax, eax
	pop	edi
	pop	esi
	pop	ebx
	mov	esp, ebp
	pop	ebp
	ret	0
?Init@CHudBase@@UAEHXZ ENDP				; CHudBase::Init
_TEXT	ENDS
; Function compile flags: /Odtp /ZI
; File d:\!diffusion 2020\source code 2022\client-server\client\hud.h
;	COMDAT ??1CHudBase@@UAE@XZ
_TEXT	SEGMENT
_this$ = -4						; size = 4
??1CHudBase@@UAE@XZ PROC				; CHudBase::~CHudBase, COMDAT
; _this$ = ecx

; 73   : 	virtual ~CHudBase() {}

	push	ebp
	mov	ebp, esp
	sub	esp, 68					; 00000044H
	push	ebx
	push	esi
	push	edi
	mov	DWORD PTR _this$[ebp], ecx
	mov	eax, DWORD PTR _this$[ebp]
	mov	DWORD PTR [eax], OFFSET ??_7CHudBase@@6B@
	pop	edi
	pop	esi
	pop	ebx
	mov	esp, ebp
	pop	ebp
	ret	0
??1CHudBase@@UAE@XZ ENDP				; CHudBase::~CHudBase
_TEXT	ENDS
; Function compile flags: /Odtp /ZI
; File d:\!diffusion 2020\source code 2022\client-server\game_shared\vector.h
;	COMDAT ?CopyToArray@Vector@@QBEXPAM@Z
_TEXT	SEGMENT
_this$ = -4						; size = 4
_rgfl$ = 8						; size = 4
?CopyToArray@Vector@@QBEXPAM@Z PROC			; Vector::CopyToArray, COMDAT
; _this$ = ecx

; 244  : 	inline void CopyToArray( float *rgfl ) const	{ rgfl[0] = x, rgfl[1] = y, rgfl[2] = z; }

	push	ebp
	mov	ebp, esp
	sub	esp, 68					; 00000044H
	push	ebx
	push	esi
	push	edi
	mov	DWORD PTR _this$[ebp], ecx
	mov	eax, 4
	imul	ecx, eax, 0
	mov	edx, DWORD PTR _rgfl$[ebp]
	mov	eax, DWORD PTR _this$[ebp]
	mov	eax, DWORD PTR [eax]
	mov	DWORD PTR [edx+ecx], eax
	mov	ecx, 4
	shl	ecx, 0
	mov	edx, DWORD PTR _rgfl$[ebp]
	mov	eax, DWORD PTR _this$[ebp]
	mov	eax, DWORD PTR [eax+4]
	mov	DWORD PTR [edx+ecx], eax
	mov	ecx, 4
	shl	ecx, 1
	mov	edx, DWORD PTR _rgfl$[ebp]
	mov	eax, DWORD PTR _this$[ebp]
	mov	eax, DWORD PTR [eax+8]
	mov	DWORD PTR [edx+ecx], eax
	pop	edi
	pop	esi
	pop	ebx
	mov	esp, ebp
	pop	ebp
	ret	4
?CopyToArray@Vector@@QBEXPAM@Z ENDP			; Vector::CopyToArray
_TEXT	ENDS
; Function compile flags: /Odtp /ZI
; File d:\!diffusion 2020\source code 2022\client-server\game_shared\vector.h
;	COMDAT ??0Vector@@QAE@MMM@Z
_TEXT	SEGMENT
_this$ = -4						; size = 4
_X$ = 8							; size = 4
_Y$ = 12						; size = 4
_Z$ = 16						; size = 4
??0Vector@@QAE@MMM@Z PROC				; Vector::Vector, COMDAT
; _this$ = ecx

; 144  : 	inline Vector(float X, float Y, float Z)	{ x = X; y = Y; z = Z;                     }

	push	ebp
	mov	ebp, esp
	sub	esp, 68					; 00000044H
	push	ebx
	push	esi
	push	edi
	mov	DWORD PTR _this$[ebp], ecx
	mov	eax, DWORD PTR _this$[ebp]
	movss	xmm0, DWORD PTR _X$[ebp]
	movss	DWORD PTR [eax], xmm0
	mov	eax, DWORD PTR _this$[ebp]
	movss	xmm0, DWORD PTR _Y$[ebp]
	movss	DWORD PTR [eax+4], xmm0
	mov	eax, DWORD PTR _this$[ebp]
	movss	xmm0, DWORD PTR _Z$[ebp]
	movss	DWORD PTR [eax+8], xmm0
	mov	eax, DWORD PTR _this$[ebp]
	pop	edi
	pop	esi
	pop	ebx
	mov	esp, ebp
	pop	ebp
	ret	12					; 0000000cH
??0Vector@@QAE@MMM@Z ENDP				; Vector::Vector
_TEXT	ENDS
; Function compile flags: /Odtp /ZI
; File d:\!diffusion 2020\source code 2022\client-server\game_shared\vector.h
;	COMDAT ??0Vector@@QAE@XZ
_TEXT	SEGMENT
_this$ = -4						; size = 4
??0Vector@@QAE@XZ PROC					; Vector::Vector, COMDAT
; _this$ = ecx

; 143  : 	inline Vector(void)				{ }

	push	ebp
	mov	ebp, esp
	sub	esp, 68					; 00000044H
	push	ebx
	push	esi
	push	edi
	mov	DWORD PTR _this$[ebp], ecx
	mov	eax, DWORD PTR _this$[ebp]
	pop	edi
	pop	esi
	pop	ebx
	mov	esp, ebp
	pop	ebp
	ret	0
??0Vector@@QAE@XZ ENDP					; Vector::Vector
_TEXT	ENDS
; Function compile flags: /Odtp /ZI
; File d:\!diffusion 2020\source code 2022\client-server\game_shared\vector.h
;	COMDAT ??0Vector2D@@QAE@XZ
_TEXT	SEGMENT
_this$ = -4						; size = 4
??0Vector2D@@QAE@XZ PROC				; Vector2D::Vector2D, COMDAT
; _this$ = ecx

; 60   : 	inline Vector2D(void) { }

	push	ebp
	mov	ebp, esp
	sub	esp, 68					; 00000044H
	push	ebx
	push	esi
	push	edi
	mov	DWORD PTR _this$[ebp], ecx
	mov	eax, DWORD PTR _this$[ebp]
	pop	edi
	pop	esi
	pop	ebx
	mov	esp, ebp
	pop	ebp
	ret	0
??0Vector2D@@QAE@XZ ENDP				; Vector2D::Vector2D
_TEXT	ENDS
; Function compile flags: /Odtp /ZI
;	COMDAT ??__G@YGXPAX0IIP6EPAX00@Z@Z
_TEXT	SEGMENT
tv66 = -68						; size = 4
___t$ = 8						; size = 4
___u$ = 12						; size = 4
___s$ = 16						; size = 4
___n$ = 20						; size = 4
___f$ = 24						; size = 4
??__G@YGXPAX0IIP6EPAX00@Z@Z PROC			; `vector copy constructor iterator', COMDAT
	push	ebp
	mov	ebp, esp
	sub	esp, 68					; 00000044H
	push	ebx
	push	esi
	push	edi
$LN2@vector:
	mov	eax, DWORD PTR ___n$[ebp]
	mov	DWORD PTR tv66[ebp], eax
	mov	ecx, DWORD PTR ___n$[ebp]
	sub	ecx, 1
	mov	DWORD PTR ___n$[ebp], ecx
	cmp	DWORD PTR tv66[ebp], 0
	jbe	SHORT $LN1@vector
	mov	eax, DWORD PTR ___u$[ebp]
	push	eax
	mov	ecx, DWORD PTR ___t$[ebp]
	call	DWORD PTR ___f$[ebp]
	mov	eax, DWORD PTR ___t$[ebp]
	add	eax, DWORD PTR ___s$[ebp]
	mov	DWORD PTR ___t$[ebp], eax
	mov	eax, DWORD PTR ___u$[ebp]
	add	eax, DWORD PTR ___s$[ebp]
	mov	DWORD PTR ___u$[ebp], eax
	jmp	SHORT $LN2@vector
$LN1@vector:
	pop	edi
	pop	esi
	pop	ebx
	mov	esp, ebp
	pop	ebp
	ret	20					; 00000014H
??__G@YGXPAX0IIP6EPAX00@Z@Z ENDP			; `vector copy constructor iterator'
_TEXT	ENDS
; Function compile flags: /Odtp /ZI
;	COMDAT ??_H@YGXPAXIIP6EPAX0@Z@Z
_TEXT	SEGMENT
tv66 = -68						; size = 4
___t$ = 8						; size = 4
___s$ = 12						; size = 4
___n$ = 16						; size = 4
___f$ = 20						; size = 4
??_H@YGXPAXIIP6EPAX0@Z@Z PROC				; `vector constructor iterator', COMDAT
	push	ebp
	mov	ebp, esp
	sub	esp, 68					; 00000044H
	push	ebx
	push	esi
	push	edi
$LN2@vector:
	mov	eax, DWORD PTR ___n$[ebp]
	mov	DWORD PTR tv66[ebp], eax
	mov	ecx, DWORD PTR ___n$[ebp]
	sub	ecx, 1
	mov	DWORD PTR ___n$[ebp], ecx
	cmp	DWORD PTR tv66[ebp], 0
	jbe	SHORT $LN1@vector
	mov	ecx, DWORD PTR ___t$[ebp]
	call	DWORD PTR ___f$[ebp]
	mov	eax, DWORD PTR ___t$[ebp]
	add	eax, DWORD PTR ___s$[ebp]
	mov	DWORD PTR ___t$[ebp], eax
	jmp	SHORT $LN2@vector
$LN1@vector:
	pop	edi
	pop	esi
	pop	ebx
	mov	esp, ebp
	pop	ebp
	ret	16					; 00000010H
??_H@YGXPAXIIP6EPAX0@Z@Z ENDP				; `vector constructor iterator'
_TEXT	ENDS
END
