; Listing generated by Microsoft (R) Optimizing Compiler Version 19.00.24247.2 

	TITLE	D:\!DIFFUSION 2020\source code 2022\client-server\client\crosshair.cpp
	.686P
	.XMM
	include listing.inc
	.model	flat

INCLUDELIB LIBCMT
INCLUDELIB OLDNAMES

_BSS	SEGMENT
?GaussParticleTime@?1??DrawGaussZoomedHUD@CHudCrosshairStatic@@QAEXXZ@4MA DD 01H DUP (?) ; `CHudCrosshairStatic::DrawGaussZoomedHUD'::`2'::GaussParticleTime
_BSS	ENDS
PUBLIC	??_H@YGXPAXIIP6EPAX0@Z@Z			; `vector constructor iterator'
PUBLIC	??__G@YGXPAX0IIP6EPAX00@Z@Z			; `vector copy constructor iterator'
PUBLIC	??0Vector@@QAE@MMM@Z				; Vector::Vector
PUBLIC	??0Vector@@QAE@QAM@Z				; Vector::Vector
PUBLIC	??GVector@@QBE?AV0@ABV0@@Z			; Vector::operator-
PUBLIC	?Length@Vector@@QBEMXZ				; Vector::Length
PUBLIC	??BVector@@QAEPAMXZ				; Vector::operator float *
PUBLIC	?Init@CHudCrosshairStatic@@UAEHXZ		; CHudCrosshairStatic::Init
PUBLIC	?VidInit@CHudCrosshairStatic@@UAEHXZ		; CHudCrosshairStatic::VidInit
PUBLIC	?Draw@CHudCrosshairStatic@@UAEHM@Z		; CHudCrosshairStatic::Draw
PUBLIC	?MsgFunc_CrosshairStatic@CHudCrosshairStatic@@QAEHPBDHPAX@Z ; CHudCrosshairStatic::MsgFunc_CrosshairStatic
PUBLIC	?MsgFunc_GaussHUD@CHudCrosshairStatic@@QAEHPBDHPAX@Z ; CHudCrosshairStatic::MsgFunc_GaussHUD
PUBLIC	?Reset@CHudCrosshairStatic@@UAEXXZ		; CHudCrosshairStatic::Reset
PUBLIC	?LoadCrosshairForWeapon@CHudCrosshairStatic@@QAEXH@Z ; CHudCrosshairStatic::LoadCrosshairForWeapon
PUBLIC	?DrawGaussZoomedHUD@CHudCrosshairStatic@@QAEXXZ	; CHudCrosshairStatic::DrawGaussZoomedHUD
PUBLIC	?GetSprite@CHud@@QAEHH@Z			; CHud::GetSprite
PUBLIC	?GetSpriteRect@CHud@@QAEAAUwrect_s@@H@Z		; CHud::GetSpriteRect
PUBLIC	?UnpackRGB@@YAXAAH00K@Z				; UnpackRGB
PUBLIC	?__MsgFunc_CrosshairStatic@@YAHPBDHPAX@Z	; __MsgFunc_CrosshairStatic
PUBLIC	?__MsgFunc_GaussHUD@@YAHPBDHPAX@Z		; __MsgFunc_GaussHUD
PUBLIC	??_C@_0BA@DFFLEBCP@CrosshairStatic?$AA@		; `string'
PUBLIC	??_C@_08JCBCCJMO@GaussHUD?$AA@			; `string'
PUBLIC	??_C@_0BJ@PCOMPMEP@sprites?1scope_sniper?4dds?$AA@ ; `string'
PUBLIC	??_C@_0BL@CNGDAKNJ@sprites?1scope_crossbow?4dds?$AA@ ; `string'
PUBLIC	??_C@_0BI@BJLFAFCJ@sprites?1scope_alien?4dds?$AA@ ; `string'
PUBLIC	??_C@_0BH@EFDOPODF@sprites?1scope_g36c?4dds?$AA@ ; `string'
PUBLIC	??_C@_0BE@IFMHMJLE@hud_gausniper_frame?$AA@	; `string'
PUBLIC	??_C@_0BF@CPIILCED@hud_gausniper_charge?$AA@	; `string'
PUBLIC	??_C@_0BD@BOFHPJLK@hud_gausniper_ammo?$AA@	; `string'
PUBLIC	??_C@_0BD@FNGABMON@misc?1hitmarker?4wav?$AA@	; `string'
PUBLIC	??_C@_0BI@JCCDNIA@misc?1hitmarker_kill?4wav?$AA@ ; `string'
PUBLIC	??_C@_09NBNKIDFG@crosshair?$AA@			; `string'
PUBLIC	??_C@_0L@PKGCAAAL@crossy_rpg?$AA@		; `string'
PUBLIC	??_C@_0M@MAFBNAEK@crossy_nade?$AA@		; `string'
PUBLIC	??_C@_0M@EJOFICLE@crossy_xbow?$AA@		; `string'
PUBLIC	??_C@_0M@IDFKMMCJ@crossy_sgun?$AA@		; `string'
PUBLIC	??_C@_0L@HMIGIFAF@crossy_ar2?$AA@		; `string'
PUBLIC	??_C@_0N@NDMMMAGI@crossy_drone?$AA@		; `string'
PUBLIC	??_C@_0N@FJMCPKM@crossy_empty?$AA@		; `string'
PUBLIC	??_C@_06FEIFCBGL@crossy?$AA@			; `string'
PUBLIC	??_C@_09KHAINFGI@crossyhit?$AA@			; `string'
PUBLIC	__real@00000000
PUBLIC	__real@3dcccccd
PUBLIC	__real@3f000000
PUBLIC	__real@3f40624dd2f1a9fc
PUBLIC	__real@3f800000
PUBLIC	__real@3fb999999999999a
PUBLIC	__real@3fe3333333333333
PUBLIC	__real@41200000
PUBLIC	__real@41a00000
PUBLIC	__real@42480000
PUBLIC	__real@43160000
PUBLIC	__real@437f0000
PUBLIC	__real@43960000
EXTRN	_sqrt:PROC
EXTRN	?Q_strncpy@@YAIPADPBDI@Z:PROC			; Q_strncpy
EXTRN	?GetSpriteIndex@CHud@@QAEHPBD@Z:PROC		; CHud::GetSpriteIndex
EXTRN	?AddHudElem@CHud@@QAEXPAVCHudBase@@@Z:PROC	; CHud::AddHudElem
EXTRN	?DrawQuad@@YAXMMMM@Z:PROC			; DrawQuad
EXTRN	?ScaleColors@@YAXAAH00H@Z:PROC			; ScaleColors
EXTRN	?BEGIN_READ@@YAXPBDPAXH@Z:PROC			; BEGIN_READ
EXTRN	?END_READ@@YAXXZ:PROC				; END_READ
EXTRN	?READ_BYTE@@YAHXZ:PROC				; READ_BYTE
EXTRN	?SmokeParticles@CQuakePartSystem@@QAEXHABVVector@@HMM@Z:PROC ; CQuakePartSystem::SmokeParticles
EXTRN	@__security_check_cookie@4:PROC
EXTRN	?gEngfuncs@@3Ucl_enginefuncs_s@@A:BYTE		; gEngfuncs
EXTRN	?gRenderfuncs@@3Urender_api_s@@A:BYTE		; gRenderfuncs
EXTRN	?gHUD@@3VCHud@@A:BYTE				; gHUD
EXTRN	?g_fFrametime@@3MA:DWORD			; g_fFrametime
EXTRN	?cl_hitsound@@3PAUcvar_s@@A:DWORD		; cl_hitsound
EXTRN	?ui_is_active@@3PAUcvar_s@@A:DWORD		; ui_is_active
EXTRN	?PrevViewAngles@@3VVector@@A:BYTE		; PrevViewAngles
EXTRN	?tr@@3Uref_globals_t@@A:BYTE			; tr
EXTRN	?g_pParticles@@3VCQuakePartSystem@@A:BYTE	; g_pParticles
EXTRN	___security_cookie:DWORD
EXTRN	__fltused:DWORD
;	COMDAT __real@43960000
CONST	SEGMENT
__real@43960000 DD 043960000r			; 300
CONST	ENDS
;	COMDAT __real@437f0000
CONST	SEGMENT
__real@437f0000 DD 0437f0000r			; 255
CONST	ENDS
;	COMDAT __real@43160000
CONST	SEGMENT
__real@43160000 DD 043160000r			; 150
CONST	ENDS
;	COMDAT __real@42480000
CONST	SEGMENT
__real@42480000 DD 042480000r			; 50
CONST	ENDS
;	COMDAT __real@41a00000
CONST	SEGMENT
__real@41a00000 DD 041a00000r			; 20
CONST	ENDS
;	COMDAT __real@41200000
CONST	SEGMENT
__real@41200000 DD 041200000r			; 10
CONST	ENDS
;	COMDAT __real@3fe3333333333333
CONST	SEGMENT
__real@3fe3333333333333 DQ 03fe3333333333333r	; 0.6
CONST	ENDS
;	COMDAT __real@3fb999999999999a
CONST	SEGMENT
__real@3fb999999999999a DQ 03fb999999999999ar	; 0.1
CONST	ENDS
;	COMDAT __real@3f800000
CONST	SEGMENT
__real@3f800000 DD 03f800000r			; 1
CONST	ENDS
;	COMDAT __real@3f40624dd2f1a9fc
CONST	SEGMENT
__real@3f40624dd2f1a9fc DQ 03f40624dd2f1a9fcr	; 0.0005
CONST	ENDS
;	COMDAT __real@3f000000
CONST	SEGMENT
__real@3f000000 DD 03f000000r			; 0.5
CONST	ENDS
;	COMDAT __real@3dcccccd
CONST	SEGMENT
__real@3dcccccd DD 03dcccccdr			; 0.1
CONST	ENDS
;	COMDAT __real@00000000
CONST	SEGMENT
__real@00000000 DD 000000000r			; 0
CONST	ENDS
;	COMDAT ??_C@_09KHAINFGI@crossyhit?$AA@
CONST	SEGMENT
??_C@_09KHAINFGI@crossyhit?$AA@ DB 'crossyhit', 00H	; `string'
CONST	ENDS
;	COMDAT ??_C@_06FEIFCBGL@crossy?$AA@
CONST	SEGMENT
??_C@_06FEIFCBGL@crossy?$AA@ DB 'crossy', 00H		; `string'
CONST	ENDS
;	COMDAT ??_C@_0N@FJMCPKM@crossy_empty?$AA@
CONST	SEGMENT
??_C@_0N@FJMCPKM@crossy_empty?$AA@ DB 'crossy_empty', 00H ; `string'
CONST	ENDS
;	COMDAT ??_C@_0N@NDMMMAGI@crossy_drone?$AA@
CONST	SEGMENT
??_C@_0N@NDMMMAGI@crossy_drone?$AA@ DB 'crossy_drone', 00H ; `string'
CONST	ENDS
;	COMDAT ??_C@_0L@HMIGIFAF@crossy_ar2?$AA@
CONST	SEGMENT
??_C@_0L@HMIGIFAF@crossy_ar2?$AA@ DB 'crossy_ar2', 00H	; `string'
CONST	ENDS
;	COMDAT ??_C@_0M@IDFKMMCJ@crossy_sgun?$AA@
CONST	SEGMENT
??_C@_0M@IDFKMMCJ@crossy_sgun?$AA@ DB 'crossy_sgun', 00H ; `string'
CONST	ENDS
;	COMDAT ??_C@_0M@EJOFICLE@crossy_xbow?$AA@
CONST	SEGMENT
??_C@_0M@EJOFICLE@crossy_xbow?$AA@ DB 'crossy_xbow', 00H ; `string'
CONST	ENDS
;	COMDAT ??_C@_0M@MAFBNAEK@crossy_nade?$AA@
CONST	SEGMENT
??_C@_0M@MAFBNAEK@crossy_nade?$AA@ DB 'crossy_nade', 00H ; `string'
CONST	ENDS
;	COMDAT ??_C@_0L@PKGCAAAL@crossy_rpg?$AA@
CONST	SEGMENT
??_C@_0L@PKGCAAAL@crossy_rpg?$AA@ DB 'crossy_rpg', 00H	; `string'
CONST	ENDS
;	COMDAT ??_C@_09NBNKIDFG@crosshair?$AA@
CONST	SEGMENT
??_C@_09NBNKIDFG@crosshair?$AA@ DB 'crosshair', 00H	; `string'
CONST	ENDS
;	COMDAT ??_C@_0BI@JCCDNIA@misc?1hitmarker_kill?4wav?$AA@
CONST	SEGMENT
??_C@_0BI@JCCDNIA@misc?1hitmarker_kill?4wav?$AA@ DB 'misc/hitmarker_kill.'
	DB	'wav', 00H					; `string'
CONST	ENDS
;	COMDAT ??_C@_0BD@FNGABMON@misc?1hitmarker?4wav?$AA@
CONST	SEGMENT
??_C@_0BD@FNGABMON@misc?1hitmarker?4wav?$AA@ DB 'misc/hitmarker.wav', 00H ; `string'
CONST	ENDS
;	COMDAT ??_C@_0BD@BOFHPJLK@hud_gausniper_ammo?$AA@
CONST	SEGMENT
??_C@_0BD@BOFHPJLK@hud_gausniper_ammo?$AA@ DB 'hud_gausniper_ammo', 00H ; `string'
CONST	ENDS
;	COMDAT ??_C@_0BF@CPIILCED@hud_gausniper_charge?$AA@
CONST	SEGMENT
??_C@_0BF@CPIILCED@hud_gausniper_charge?$AA@ DB 'hud_gausniper_charge', 00H ; `string'
CONST	ENDS
;	COMDAT ??_C@_0BE@IFMHMJLE@hud_gausniper_frame?$AA@
CONST	SEGMENT
??_C@_0BE@IFMHMJLE@hud_gausniper_frame?$AA@ DB 'hud_gausniper_frame', 00H ; `string'
CONST	ENDS
;	COMDAT ??_C@_0BH@EFDOPODF@sprites?1scope_g36c?4dds?$AA@
CONST	SEGMENT
??_C@_0BH@EFDOPODF@sprites?1scope_g36c?4dds?$AA@ DB 'sprites/scope_g36c.d'
	DB	'ds', 00H					; `string'
CONST	ENDS
;	COMDAT ??_C@_0BI@BJLFAFCJ@sprites?1scope_alien?4dds?$AA@
CONST	SEGMENT
??_C@_0BI@BJLFAFCJ@sprites?1scope_alien?4dds?$AA@ DB 'sprites/scope_alien'
	DB	'.dds', 00H					; `string'
CONST	ENDS
;	COMDAT ??_C@_0BL@CNGDAKNJ@sprites?1scope_crossbow?4dds?$AA@
CONST	SEGMENT
??_C@_0BL@CNGDAKNJ@sprites?1scope_crossbow?4dds?$AA@ DB 'sprites/scope_cr'
	DB	'ossbow.dds', 00H				; `string'
CONST	ENDS
;	COMDAT ??_C@_0BJ@PCOMPMEP@sprites?1scope_sniper?4dds?$AA@
CONST	SEGMENT
??_C@_0BJ@PCOMPMEP@sprites?1scope_sniper?4dds?$AA@ DB 'sprites/scope_snip'
	DB	'er.dds', 00H				; `string'
CONST	ENDS
;	COMDAT ??_C@_08JCBCCJMO@GaussHUD?$AA@
CONST	SEGMENT
??_C@_08JCBCCJMO@GaussHUD?$AA@ DB 'GaussHUD', 00H	; `string'
CONST	ENDS
;	COMDAT ??_C@_0BA@DFFLEBCP@CrosshairStatic?$AA@
CONST	SEGMENT
??_C@_0BA@DFFLEBCP@CrosshairStatic?$AA@ DB 'CrosshairStatic', 00H ; `string'
CONST	ENDS
; Function compile flags: /Odtp /ZI
; File d:\!diffusion 2020\source code 2022\client-server\client\crosshair.cpp
;	COMDAT ?__MsgFunc_GaussHUD@@YAHPBDHPAX@Z
_TEXT	SEGMENT
_pszName$ = 8						; size = 4
_iSize$ = 12						; size = 4
_pbuf$ = 16						; size = 4
?__MsgFunc_GaussHUD@@YAHPBDHPAX@Z PROC			; __MsgFunc_GaussHUD, COMDAT

; 19   : DECLARE_MESSAGE( m_CrosshairStatic, GaussHUD );

	push	ebp
	mov	ebp, esp
	sub	esp, 64					; 00000040H
	push	ebx
	push	esi
	push	edi
	mov	eax, DWORD PTR _pbuf$[ebp]
	push	eax
	mov	ecx, DWORD PTR _iSize$[ebp]
	push	ecx
	mov	edx, DWORD PTR _pszName$[ebp]
	push	edx
	mov	ecx, OFFSET ?gHUD@@3VCHud@@A+7236
	call	?MsgFunc_GaussHUD@CHudCrosshairStatic@@QAEHPBDHPAX@Z ; CHudCrosshairStatic::MsgFunc_GaussHUD
	pop	edi
	pop	esi
	pop	ebx
	mov	esp, ebp
	pop	ebp
	ret	0
?__MsgFunc_GaussHUD@@YAHPBDHPAX@Z ENDP			; __MsgFunc_GaussHUD
_TEXT	ENDS
; Function compile flags: /Odtp /ZI
; File d:\!diffusion 2020\source code 2022\client-server\client\crosshair.cpp
;	COMDAT ?__MsgFunc_CrosshairStatic@@YAHPBDHPAX@Z
_TEXT	SEGMENT
_pszName$ = 8						; size = 4
_iSize$ = 12						; size = 4
_pbuf$ = 16						; size = 4
?__MsgFunc_CrosshairStatic@@YAHPBDHPAX@Z PROC		; __MsgFunc_CrosshairStatic, COMDAT

; 18   : DECLARE_MESSAGE( m_CrosshairStatic, CrosshairStatic );

	push	ebp
	mov	ebp, esp
	sub	esp, 64					; 00000040H
	push	ebx
	push	esi
	push	edi
	mov	eax, DWORD PTR _pbuf$[ebp]
	push	eax
	mov	ecx, DWORD PTR _iSize$[ebp]
	push	ecx
	mov	edx, DWORD PTR _pszName$[ebp]
	push	edx
	mov	ecx, OFFSET ?gHUD@@3VCHud@@A+7236
	call	?MsgFunc_CrosshairStatic@CHudCrosshairStatic@@QAEHPBDHPAX@Z ; CHudCrosshairStatic::MsgFunc_CrosshairStatic
	pop	edi
	pop	esi
	pop	ebx
	mov	esp, ebp
	pop	ebp
	ret	0
?__MsgFunc_CrosshairStatic@@YAHPBDHPAX@Z ENDP		; __MsgFunc_CrosshairStatic
_TEXT	ENDS
; Function compile flags: /Odtp /ZI
; File d:\!diffusion 2020\source code 2022\client-server\client\utils.h
;	COMDAT ?UnpackRGB@@YAXAAH00K@Z
_TEXT	SEGMENT
_r$ = 8							; size = 4
_g$ = 12						; size = 4
_b$ = 16						; size = 4
_ulRGB$ = 20						; size = 4
?UnpackRGB@@YAXAAH00K@Z PROC				; UnpackRGB, COMDAT

; 98   : {\

	push	ebp
	mov	ebp, esp
	sub	esp, 64					; 00000040H
	push	ebx
	push	esi
	push	edi

; 99   : 	r = (ulRGB & 0xFF0000) >>16;\

	mov	eax, DWORD PTR _ulRGB$[ebp]
	and	eax, 16711680				; 00ff0000H
	shr	eax, 16					; 00000010H
	mov	ecx, DWORD PTR _r$[ebp]
	mov	DWORD PTR [ecx], eax

; 100  : 	g = (ulRGB & 0xFF00) >> 8;\

	mov	eax, DWORD PTR _ulRGB$[ebp]
	and	eax, 65280				; 0000ff00H
	shr	eax, 8
	mov	ecx, DWORD PTR _g$[ebp]
	mov	DWORD PTR [ecx], eax

; 101  : 	b = ulRGB & 0xFF;\

	mov	eax, DWORD PTR _ulRGB$[ebp]
	and	eax, 255				; 000000ffH
	mov	ecx, DWORD PTR _b$[ebp]
	mov	DWORD PTR [ecx], eax

; 102  : }

	pop	edi
	pop	esi
	pop	ebx
	mov	esp, ebp
	pop	ebp
	ret	0
?UnpackRGB@@YAXAAH00K@Z ENDP				; UnpackRGB
_TEXT	ENDS
; Function compile flags: /Odtp /ZI
; File d:\!diffusion 2020\source code 2022\client-server\client\hud.h
;	COMDAT ?GetSpriteRect@CHud@@QAEAAUwrect_s@@H@Z
_TEXT	SEGMENT
_this$ = -4						; size = 4
_index$ = 8						; size = 4
?GetSpriteRect@CHud@@QAEAAUwrect_s@@H@Z PROC		; CHud::GetSpriteRect, COMDAT
; _this$ = ecx

; 952  : 	wrect_t& GetSpriteRect( int index ) { return m_rgrcRects[index]; }

	push	ebp
	mov	ebp, esp
	sub	esp, 68					; 00000044H
	push	ebx
	push	esi
	push	edi
	mov	DWORD PTR _this$[ebp], ecx
	mov	eax, DWORD PTR _index$[ebp]
	shl	eax, 4
	mov	ecx, DWORD PTR _this$[ebp]
	add	eax, DWORD PTR [ecx+232]
	pop	edi
	pop	esi
	pop	ebx
	mov	esp, ebp
	pop	ebp
	ret	4
?GetSpriteRect@CHud@@QAEAAUwrect_s@@H@Z ENDP		; CHud::GetSpriteRect
_TEXT	ENDS
; Function compile flags: /Odtp /ZI
; File d:\!diffusion 2020\source code 2022\client-server\client\hud.h
;	COMDAT ?GetSprite@CHud@@QAEHH@Z
_TEXT	SEGMENT
tv68 = -72						; size = 4
_this$ = -4						; size = 4
_index$ = 8						; size = 4
?GetSprite@CHud@@QAEHH@Z PROC				; CHud::GetSprite, COMDAT
; _this$ = ecx

; 951  : 	SpriteHandle GetSprite( int index ) { return (index < 0) ? 0 : m_rghSprites[index]; }

	push	ebp
	mov	ebp, esp
	sub	esp, 72					; 00000048H
	push	ebx
	push	esi
	push	edi
	mov	DWORD PTR _this$[ebp], ecx
	cmp	DWORD PTR _index$[ebp], 0
	jge	SHORT $LN3@GetSprite
	mov	DWORD PTR tv68[ebp], 0
	jmp	SHORT $LN4@GetSprite
$LN3@GetSprite:
	mov	eax, DWORD PTR _this$[ebp]
	mov	ecx, DWORD PTR [eax+228]
	mov	edx, DWORD PTR _index$[ebp]
	mov	eax, DWORD PTR [ecx+edx*4]
	mov	DWORD PTR tv68[ebp], eax
$LN4@GetSprite:
	mov	eax, DWORD PTR tv68[ebp]
	pop	edi
	pop	esi
	pop	ebx
	mov	esp, ebp
	pop	ebp
	ret	4
?GetSprite@CHud@@QAEHH@Z ENDP				; CHud::GetSprite
_TEXT	ENDS
; Function compile flags: /Odtp /ZI
; File d:\!diffusion 2020\source code 2022\client-server\client\crosshair.cpp
;	COMDAT ?DrawGaussZoomedHUD@CHudCrosshairStatic@@QAEXXZ
_TEXT	SEGMENT
$T1 = -144						; size = 12
_offs$ = -68						; size = 4
_rc$ = -64						; size = 16
_offss$ = -48						; size = 4
_rcammo$ = -44						; size = 16
_y$ = -28						; size = 4
_x$ = -24						; size = 4
_b$ = -20						; size = 4
_g$ = -16						; size = 4
_r$ = -12						; size = 4
_this$ = -8						; size = 4
__$ArrayPad$ = -4					; size = 4
?DrawGaussZoomedHUD@CHudCrosshairStatic@@QAEXXZ PROC	; CHudCrosshairStatic::DrawGaussZoomedHUD, COMDAT
; _this$ = ecx

; 271  : {

	push	ebp
	mov	ebp, esp
	sub	esp, 144				; 00000090H
	mov	eax, DWORD PTR ___security_cookie
	xor	eax, ebp
	mov	DWORD PTR __$ArrayPad$[ebp], eax
	push	ebx
	push	esi
	push	edi
	mov	DWORD PTR _this$[ebp], ecx

; 272  : 	// change weapon skin while charging
; 273  : 	GET_VIEWMODEL()->curstate.skin = 9 - GaussCharge;

	mov	eax, DWORD PTR _this$[ebp]
	mov	esi, 9
	sub	esi, DWORD PTR [eax+96]
	call	DWORD PTR ?gEngfuncs@@3Ucl_enginefuncs_s@@A+208
	mov	WORD PTR [eax+744], si

; 274  : 
; 275  : 	// throw smokes when overcharged
; 276  : 	static float GaussParticleTime = 0;
; 277  : 	if( GaussWarning )

	mov	eax, DWORD PTR _this$[ebp]
	movzx	ecx, BYTE PTR [eax+100]
	test	ecx, ecx
	je	$LN4@DrawGaussZ

; 278  : 	{
; 279  : 		if( GaussParticleTime > gHUD.m_flTime )

	movss	xmm0, DWORD PTR ?GaussParticleTime@?1??DrawGaussZoomedHUD@CHudCrosshairStatic@@QAEXXZ@4MA
	comiss	xmm0, DWORD PTR ?gHUD@@3VCHud@@A+32
	jbe	SHORT $LN3@DrawGaussZ

; 280  : 			GaussParticleTime = 0;

	xorps	xmm0, xmm0
	movss	DWORD PTR ?GaussParticleTime@?1??DrawGaussZoomedHUD@CHudCrosshairStatic@@QAEXXZ@4MA, xmm0
$LN3@DrawGaussZ:

; 281  : 		if( gHUD.m_flTime > GaussParticleTime + 0.1 )

	cvtss2sd xmm0, DWORD PTR ?gHUD@@3VCHud@@A+32
	cvtss2sd xmm1, DWORD PTR ?GaussParticleTime@?1??DrawGaussZoomedHUD@CHudCrosshairStatic@@QAEXXZ@4MA
	addsd	xmm1, QWORD PTR __real@3fb999999999999a
	comisd	xmm0, xmm1
	jbe	SHORT $LN4@DrawGaussZ

; 282  : 		{
; 283  : 			g_pParticles.SmokeParticles( 0, (float *)&GET_VIEWMODEL()->attachment[0], 1, 0.5, 10 );

	call	DWORD PTR ?gEngfuncs@@3Ucl_enginefuncs_s@@A+208
	mov	ecx, 12					; 0000000cH
	imul	edx, ecx, 0
	lea	eax, DWORD PTR [eax+edx+2912]
	push	eax
	lea	ecx, DWORD PTR $T1[ebp]
	call	??0Vector@@QAE@QAM@Z			; Vector::Vector
	push	ecx
	movss	xmm0, DWORD PTR __real@41200000
	movss	DWORD PTR [esp], xmm0
	push	ecx
	movss	xmm0, DWORD PTR __real@3f000000
	movss	DWORD PTR [esp], xmm0
	push	1
	lea	ecx, DWORD PTR $T1[ebp]
	push	ecx
	push	0
	mov	ecx, OFFSET ?g_pParticles@@3VCQuakePartSystem@@A ; g_pParticles
	call	?SmokeParticles@CQuakePartSystem@@QAEXHABVVector@@HMM@Z ; CQuakePartSystem::SmokeParticles

; 284  : 			GaussParticleTime = gHUD.m_flTime;

	movss	xmm0, DWORD PTR ?gHUD@@3VCHud@@A+32
	movss	DWORD PTR ?GaussParticleTime@?1??DrawGaussZoomedHUD@CHudCrosshairStatic@@QAEXXZ@4MA, xmm0
$LN4@DrawGaussZ:

; 285  : 		}
; 286  : 	}
; 287  : 
; 288  : 	if( !gHUD.IsZoomed )

	movzx	eax, BYTE PTR ?gHUD@@3VCHud@@A+113
	test	eax, eax
	jne	SHORT $LN5@DrawGaussZ

; 289  : 		return; // this HUD is visible only when zoomed

	jmp	$LN1@DrawGaussZ
$LN5@DrawGaussZ:

; 290  : 
; 291  : 	int r, g, b, x, y = 0;

	mov	DWORD PTR _y$[ebp], 0

; 292  : 
; 293  : 	// main color
; 294  : 	UnpackRGB( r, g, b, 0x0046A9FF ); // 70,169,255 for Diffusion

	push	4631039					; 0046a9ffH
	lea	eax, DWORD PTR _b$[ebp]
	push	eax
	lea	ecx, DWORD PTR _g$[ebp]
	push	ecx
	lea	edx, DWORD PTR _r$[ebp]
	push	edx
	call	?UnpackRGB@@YAXAAH00K@Z			; UnpackRGB
	add	esp, 16					; 00000010H

; 295  : 
; 296  : 	// draw the frame
; 297  : 	x = (ScreenWidth / 2) - (m_prc_Gframe->right / 2);

	mov	eax, DWORD PTR ?gHUD@@3VCHud@@A+8436
	cdq
	sub	eax, edx
	mov	ecx, eax
	sar	ecx, 1
	mov	edx, DWORD PTR _this$[ebp]
	mov	eax, DWORD PTR [edx+88]
	mov	eax, DWORD PTR [eax+4]
	cdq
	sub	eax, edx
	sar	eax, 1
	sub	ecx, eax
	mov	DWORD PTR _x$[ebp], ecx

; 298  : 	y = ScreenHeight - 120;

	mov	eax, DWORD PTR ?gHUD@@3VCHud@@A+8440
	sub	eax, 120				; 00000078H
	mov	DWORD PTR _y$[ebp], eax

; 299  : 	SPR_Set( m_hGFrame, r, g, b );

	mov	eax, DWORD PTR _b$[ebp]
	push	eax
	mov	ecx, DWORD PTR _g$[ebp]
	push	ecx
	mov	edx, DWORD PTR _r$[ebp]
	push	edx
	mov	eax, DWORD PTR _this$[ebp]
	mov	ecx, DWORD PTR [eax+76]
	push	ecx
	call	DWORD PTR ?gEngfuncs@@3Ucl_enginefuncs_s@@A+16
	add	esp, 16					; 00000010H

; 300  : 	SPR_DrawAdditive( 0, x, y, m_prc_Gframe );

	mov	eax, DWORD PTR _this$[ebp]
	mov	ecx, DWORD PTR [eax+88]
	push	ecx
	mov	edx, DWORD PTR _y$[ebp]
	push	edx
	mov	eax, DWORD PTR _x$[ebp]
	push	eax
	push	0
	call	DWORD PTR ?gEngfuncs@@3Ucl_enginefuncs_s@@A+28
	add	esp, 16					; 00000010H

; 301  : 
; 302  : 	// draw the ammo
; 303  : 	x = (ScreenWidth / 2) - (m_prc_Gammo->right / 2);

	mov	eax, DWORD PTR ?gHUD@@3VCHud@@A+8436
	cdq
	sub	eax, edx
	mov	ecx, eax
	sar	ecx, 1
	mov	edx, DWORD PTR _this$[ebp]
	mov	eax, DWORD PTR [edx+84]
	mov	eax, DWORD PTR [eax+4]
	cdq
	sub	eax, edx
	sar	eax, 1
	sub	ecx, eax
	mov	DWORD PTR _x$[ebp], ecx

; 304  : 	y = ScreenHeight - 103;

	mov	eax, DWORD PTR ?gHUD@@3VCHud@@A+8440
	sub	eax, 103				; 00000067H
	mov	DWORD PTR _y$[ebp], eax

; 305  : 	wrect_t rcammo = *m_prc_Gammo;

	mov	eax, DWORD PTR _this$[ebp]
	mov	ecx, DWORD PTR [eax+84]
	mov	edx, DWORD PTR [ecx]
	mov	DWORD PTR _rcammo$[ebp], edx
	mov	eax, DWORD PTR [ecx+4]
	mov	DWORD PTR _rcammo$[ebp+4], eax
	mov	edx, DWORD PTR [ecx+8]
	mov	DWORD PTR _rcammo$[ebp+8], edx
	mov	eax, DWORD PTR [ecx+12]
	mov	DWORD PTR _rcammo$[ebp+12], eax

; 306  : 	int offss = 100 - GaussAmmo; // 100 is maximum gauss ammo!!!

	mov	eax, DWORD PTR _this$[ebp]
	mov	ecx, 100				; 00000064H
	sub	ecx, DWORD PTR [eax+92]
	mov	DWORD PTR _offss$[ebp], ecx

; 307  : 	rcammo.top += offss;

	mov	eax, DWORD PTR _rcammo$[ebp+8]
	add	eax, DWORD PTR _offss$[ebp]
	mov	DWORD PTR _rcammo$[ebp+8], eax

; 308  : 	SPR_Set( m_hGAmmo, r, g, b );

	mov	eax, DWORD PTR _b$[ebp]
	push	eax
	mov	ecx, DWORD PTR _g$[ebp]
	push	ecx
	mov	edx, DWORD PTR _r$[ebp]
	push	edx
	mov	eax, DWORD PTR _this$[ebp]
	mov	ecx, DWORD PTR [eax+68]
	push	ecx
	call	DWORD PTR ?gEngfuncs@@3Ucl_enginefuncs_s@@A+16
	add	esp, 16					; 00000010H

; 309  : 	SPR_DrawAdditive( 0, x, y + offss, &rcammo );

	lea	eax, DWORD PTR _rcammo$[ebp]
	push	eax
	mov	ecx, DWORD PTR _y$[ebp]
	add	ecx, DWORD PTR _offss$[ebp]
	push	ecx
	mov	edx, DWORD PTR _x$[ebp]
	push	edx
	push	0
	call	DWORD PTR ?gEngfuncs@@3Ucl_enginefuncs_s@@A+28
	add	esp, 16					; 00000010H

; 310  : 
; 311  : 	// draw the charge
; 312  : 	x = (ScreenWidth / 2) - (m_prc_Gcharge->right / 2);

	mov	eax, DWORD PTR ?gHUD@@3VCHud@@A+8436
	cdq
	sub	eax, edx
	mov	ecx, eax
	sar	ecx, 1
	mov	edx, DWORD PTR _this$[ebp]
	mov	eax, DWORD PTR [edx+80]
	mov	eax, DWORD PTR [eax+4]
	cdq
	sub	eax, edx
	sar	eax, 1
	sub	ecx, eax
	mov	DWORD PTR _x$[ebp], ecx

; 313  : 	y = ScreenHeight - 80;

	mov	eax, DWORD PTR ?gHUD@@3VCHud@@A+8440
	sub	eax, 80					; 00000050H
	mov	DWORD PTR _y$[ebp], eax

; 314  : 	
; 315  : 	wrect_t rc = *m_prc_Gcharge;

	mov	eax, DWORD PTR _this$[ebp]
	mov	ecx, DWORD PTR [eax+80]
	mov	edx, DWORD PTR [ecx]
	mov	DWORD PTR _rc$[ebp], edx
	mov	eax, DWORD PTR [ecx+4]
	mov	DWORD PTR _rc$[ebp+4], eax
	mov	edx, DWORD PTR [ecx+8]
	mov	DWORD PTR _rc$[ebp+8], edx
	mov	eax, DWORD PTR [ecx+12]
	mov	DWORD PTR _rc$[ebp+12], eax

; 316  : 	int offs = 200 - GaussCharge * 20; // GaussCharge is locked at 9 max

	mov	eax, DWORD PTR _this$[ebp]
	imul	ecx, DWORD PTR [eax+96], 20
	mov	edx, 200				; 000000c8H
	sub	edx, ecx
	mov	DWORD PTR _offs$[ebp], edx

; 317  : 	rc.right -= offs;

	mov	eax, DWORD PTR _rc$[ebp+4]
	sub	eax, DWORD PTR _offs$[ebp]
	mov	DWORD PTR _rc$[ebp+4], eax

; 318  : 	rc.left += offs;

	mov	eax, DWORD PTR _rc$[ebp]
	add	eax, DWORD PTR _offs$[ebp]
	mov	DWORD PTR _rc$[ebp], eax

; 319  : 	if( GaussWarning )

	mov	eax, DWORD PTR _this$[ebp]
	movzx	ecx, BYTE PTR [eax+100]
	test	ecx, ecx
	je	SHORT $LN6@DrawGaussZ

; 320  : 		UnpackRGB( r, g, b, 0x00FF1919 ); // 255 25 25

	push	16718105				; 00ff1919H
	lea	eax, DWORD PTR _b$[ebp]
	push	eax
	lea	ecx, DWORD PTR _g$[ebp]
	push	ecx
	lea	edx, DWORD PTR _r$[ebp]
	push	edx
	call	?UnpackRGB@@YAXAAH00K@Z			; UnpackRGB
	add	esp, 16					; 00000010H
$LN6@DrawGaussZ:

; 321  : 	SPR_Set( m_hGCharge, r, g, b );

	mov	eax, DWORD PTR _b$[ebp]
	push	eax
	mov	ecx, DWORD PTR _g$[ebp]
	push	ecx
	mov	edx, DWORD PTR _r$[ebp]
	push	edx
	mov	eax, DWORD PTR _this$[ebp]
	mov	ecx, DWORD PTR [eax+72]
	push	ecx
	call	DWORD PTR ?gEngfuncs@@3Ucl_enginefuncs_s@@A+16
	add	esp, 16					; 00000010H

; 322  : 	SPR_DrawAdditive( 0, x + offs, y, &rc );

	lea	eax, DWORD PTR _rc$[ebp]
	push	eax
	mov	ecx, DWORD PTR _y$[ebp]
	push	ecx
	mov	edx, DWORD PTR _x$[ebp]
	add	edx, DWORD PTR _offs$[ebp]
	push	edx
	push	0
	call	DWORD PTR ?gEngfuncs@@3Ucl_enginefuncs_s@@A+28
	add	esp, 16					; 00000010H
$LN1@DrawGaussZ:

; 323  : }

	pop	edi
	pop	esi
	pop	ebx
	mov	ecx, DWORD PTR __$ArrayPad$[ebp]
	xor	ecx, ebp
	call	@__security_check_cookie@4
	mov	esp, ebp
	pop	ebp
	ret	0
?DrawGaussZoomedHUD@CHudCrosshairStatic@@QAEXXZ ENDP	; CHudCrosshairStatic::DrawGaussZoomedHUD
_TEXT	ENDS
; Function compile flags: /Odtp /ZI
; File d:\!diffusion 2020\source code 2022\client-server\client\crosshair.cpp
;	COMDAT ?LoadCrosshairForWeapon@CHudCrosshairStatic@@QAEXH@Z
_TEXT	SEGMENT
tv64 = -76						; size = 4
_pszCrosshair$ = -8					; size = 4
_this$ = -4						; size = 4
_WeaponID$ = 8						; size = 4
?LoadCrosshairForWeapon@CHudCrosshairStatic@@QAEXH@Z PROC ; CHudCrosshairStatic::LoadCrosshairForWeapon, COMDAT
; _this$ = ecx

; 222  : {

	push	ebp
	mov	ebp, esp
	sub	esp, 76					; 0000004cH
	push	ebx
	push	esi
	push	edi
	mov	DWORD PTR _this$[ebp], ecx

; 223  : 	char* pszCrosshair;
; 224  : 
; 225  : 	switch (WeaponID)

	mov	eax, DWORD PTR _WeaponID$[ebp]
	mov	DWORD PTR tv64[ebp], eax
	mov	ecx, DWORD PTR tv64[ebp]
	sub	ecx, 1
	mov	DWORD PTR tv64[ebp], ecx
	cmp	DWORD PTR tv64[ebp], 21			; 00000015H
	ja	SHORT $LN14@LoadCrossh
	mov	edx, DWORD PTR tv64[ebp]
	movzx	eax, BYTE PTR $LN16@LoadCrossh[edx]
	jmp	DWORD PTR $LN17@LoadCrossh[eax*4]
$LN4@LoadCrossh:

; 226  : 	{
; 227  : 	case WEAPON_RPG:		pszCrosshair = (char *)("crossy_rpg");		break;

	mov	DWORD PTR _pszCrosshair$[ebp], OFFSET ??_C@_0L@PKGCAAAL@crossy_rpg?$AA@
	jmp	SHORT $LN2@LoadCrossh
$LN5@LoadCrossh:

; 228  : 	case WEAPON_TRIPMINE:	pszCrosshair = (char*)("crossy_nade");		break;

	mov	DWORD PTR _pszCrosshair$[ebp], OFFSET ??_C@_0M@MAFBNAEK@crossy_nade?$AA@
	jmp	SHORT $LN2@LoadCrossh
$LN6@LoadCrossh:

; 229  : 	case WEAPON_KNIFE:	pszCrosshair = (char*)("crossy_nade");		break;

	mov	DWORD PTR _pszCrosshair$[ebp], OFFSET ??_C@_0M@MAFBNAEK@crossy_nade?$AA@
	jmp	SHORT $LN2@LoadCrossh
$LN7@LoadCrossh:

; 230  : 	case WEAPON_CROSSBOW:	pszCrosshair = (char*)("crossy_xbow");		break;

	mov	DWORD PTR _pszCrosshair$[ebp], OFFSET ??_C@_0M@EJOFICLE@crossy_xbow?$AA@
	jmp	SHORT $LN2@LoadCrossh
$LN8@LoadCrossh:

; 231  : 	case WEAPON_SHOTGUN_XM:
; 232  : 	case WEAPON_SHOTGUN:	pszCrosshair = (char*)("crossy_sgun");		break;

	mov	DWORD PTR _pszCrosshair$[ebp], OFFSET ??_C@_0M@IDFKMMCJ@crossy_sgun?$AA@
	jmp	SHORT $LN2@LoadCrossh
$LN9@LoadCrossh:

; 233  : 	case WEAPON_AR2:		pszCrosshair = (char*)("crossy_ar2");		break;

	mov	DWORD PTR _pszCrosshair$[ebp], OFFSET ??_C@_0L@HMIGIFAF@crossy_ar2?$AA@
	jmp	SHORT $LN2@LoadCrossh
$LN10@LoadCrossh:

; 234  : 	case WEAPON_DRONE:
; 235  : 					{
; 236  : 						if( DroneControl )

	mov	eax, DWORD PTR _this$[ebp]
	movzx	ecx, BYTE PTR [eax+28]
	test	ecx, ecx
	je	SHORT $LN11@LoadCrossh

; 237  : 							pszCrosshair = (char *)("crossy_drone");

	mov	DWORD PTR _pszCrosshair$[ebp], OFFSET ??_C@_0N@NDMMMAGI@crossy_drone?$AA@

; 238  : 						else

	jmp	SHORT $LN12@LoadCrossh
$LN11@LoadCrossh:

; 239  : 							pszCrosshair = (char *)("crossy_empty");

	mov	DWORD PTR _pszCrosshair$[ebp], OFFSET ??_C@_0N@FJMCPKM@crossy_empty?$AA@
$LN12@LoadCrossh:

; 240  : 					} break;

	jmp	SHORT $LN2@LoadCrossh
$LN13@LoadCrossh:

; 241  : 	
; 242  : 	case WEAPON_SNIPER:
; 243  : 	case WEAPON_HANDGRENADE:
; 244  : 	case WEAPON_SATCHEL:
; 245  : 	case WEAPON_SENTRY:
; 246  : 	case WEAPON_GAUSS:
; 247  : 		pszCrosshair = (char*)("crossy_empty");	

	mov	DWORD PTR _pszCrosshair$[ebp], OFFSET ??_C@_0N@FJMCPKM@crossy_empty?$AA@

; 248  : 		break; // no crosshair for those weapons, but we need to set an empty one to display a hitmarker

	jmp	SHORT $LN2@LoadCrossh
$LN14@LoadCrossh:

; 249  : 
; 250  : 	default: pszCrosshair = (char*)("crossy"); break; // default crosshair

	mov	DWORD PTR _pszCrosshair$[ebp], OFFSET ??_C@_06FEIFCBGL@crossy?$AA@
$LN2@LoadCrossh:

; 251  : 	}
; 252  : 	
; 253  : 	// the sprite must be listed in hud.txt
; 254  : 	CrosshairSprite = gHUD.GetSpriteIndex(pszCrosshair);

	mov	eax, DWORD PTR _pszCrosshair$[ebp]
	push	eax
	mov	ecx, OFFSET ?gHUD@@3VCHud@@A		; gHUD
	call	?GetSpriteIndex@CHud@@QAEHPBD@Z		; CHud::GetSpriteIndex
	mov	ecx, DWORD PTR _this$[ebp]
	mov	DWORD PTR [ecx+20], eax

; 255  : 	m_CrosshairStatic.spr = gHUD.GetSprite( CrosshairSprite );

	mov	eax, DWORD PTR _this$[ebp]
	mov	ecx, DWORD PTR [eax+20]
	push	ecx
	mov	ecx, OFFSET ?gHUD@@3VCHud@@A		; gHUD
	call	?GetSprite@CHud@@QAEHH@Z		; CHud::GetSprite
	mov	edx, DWORD PTR _this$[ebp]
	mov	DWORD PTR [edx+140], eax

; 256  : 	m_CrosshairStatic.rc = gHUD.GetSpriteRect( CrosshairSprite );

	mov	eax, DWORD PTR _this$[ebp]
	mov	ecx, DWORD PTR [eax+20]
	push	ecx
	mov	ecx, OFFSET ?gHUD@@3VCHud@@A		; gHUD
	call	?GetSpriteRect@CHud@@QAEAAUwrect_s@@H@Z	; CHud::GetSpriteRect
	mov	edx, DWORD PTR _this$[ebp]
	add	edx, 144				; 00000090H
	mov	ecx, DWORD PTR [eax]
	mov	DWORD PTR [edx], ecx
	mov	ecx, DWORD PTR [eax+4]
	mov	DWORD PTR [edx+4], ecx
	mov	ecx, DWORD PTR [eax+8]
	mov	DWORD PTR [edx+8], ecx
	mov	eax, DWORD PTR [eax+12]
	mov	DWORD PTR [edx+12], eax

; 257  : 	Q_strcpy( m_CrosshairStatic.szSpriteName, pszCrosshair);

	push	99999					; 0001869fH
	mov	eax, DWORD PTR _pszCrosshair$[ebp]
	push	eax
	mov	ecx, DWORD PTR _this$[ebp]
	add	ecx, 108				; 0000006cH
	push	ecx
	call	?Q_strncpy@@YAIPADPBDI@Z		; Q_strncpy
	add	esp, 12					; 0000000cH

; 258  : 
; 259  : 	HMSprite = gHUD.GetSpriteIndex( "crossyhit" );

	push	OFFSET ??_C@_09KHAINFGI@crossyhit?$AA@
	mov	ecx, OFFSET ?gHUD@@3VCHud@@A		; gHUD
	call	?GetSpriteIndex@CHud@@QAEHPBD@Z		; CHud::GetSpriteIndex
	mov	ecx, DWORD PTR _this$[ebp]
	mov	DWORD PTR [ecx+56], eax

; 260  : 	m_HM.spr = gHUD.GetSprite( HMSprite );

	mov	eax, DWORD PTR _this$[ebp]
	mov	ecx, DWORD PTR [eax+56]
	push	ecx
	mov	ecx, OFFSET ?gHUD@@3VCHud@@A		; gHUD
	call	?GetSprite@CHud@@QAEHH@Z		; CHud::GetSprite
	mov	edx, DWORD PTR _this$[ebp]
	mov	DWORD PTR [edx+196], eax

; 261  : 	m_HM.rc = gHUD.GetSpriteRect( HMSprite );

	mov	eax, DWORD PTR _this$[ebp]
	mov	ecx, DWORD PTR [eax+56]
	push	ecx
	mov	ecx, OFFSET ?gHUD@@3VCHud@@A		; gHUD
	call	?GetSpriteRect@CHud@@QAEAAUwrect_s@@H@Z	; CHud::GetSpriteRect
	mov	edx, DWORD PTR _this$[ebp]
	add	edx, 200				; 000000c8H
	mov	ecx, DWORD PTR [eax]
	mov	DWORD PTR [edx], ecx
	mov	ecx, DWORD PTR [eax+4]
	mov	DWORD PTR [edx+4], ecx
	mov	ecx, DWORD PTR [eax+8]
	mov	DWORD PTR [edx+8], ecx
	mov	eax, DWORD PTR [eax+12]
	mov	DWORD PTR [edx+12], eax

; 262  : 	Q_strcpy( m_HM.szSpriteName, "crossyhit" );

	push	99999					; 0001869fH
	push	OFFSET ??_C@_09KHAINFGI@crossyhit?$AA@
	mov	eax, DWORD PTR _this$[ebp]
	add	eax, 164				; 000000a4H
	push	eax
	call	?Q_strncpy@@YAIPADPBDI@Z		; Q_strncpy
	add	esp, 12					; 0000000cH

; 263  : }

	pop	edi
	pop	esi
	pop	ebx
	mov	esp, ebp
	pop	ebp
	ret	4
	npad	2
$LN17@LoadCrossh:
	DD	$LN6@LoadCrossh
	DD	$LN7@LoadCrossh
	DD	$LN8@LoadCrossh
	DD	$LN4@LoadCrossh
	DD	$LN13@LoadCrossh
	DD	$LN5@LoadCrossh
	DD	$LN9@LoadCrossh
	DD	$LN10@LoadCrossh
	DD	$LN14@LoadCrossh
$LN16@LoadCrossh:
	DB	0
	DB	8
	DB	8
	DB	8
	DB	8
	DB	1
	DB	2
	DB	3
	DB	4
	DB	8
	DB	8
	DB	4
	DB	5
	DB	4
	DB	8
	DB	6
	DB	7
	DB	4
	DB	8
	DB	8
	DB	4
	DB	2
?LoadCrosshairForWeapon@CHudCrosshairStatic@@QAEXH@Z ENDP ; CHudCrosshairStatic::LoadCrosshairForWeapon
_TEXT	ENDS
; Function compile flags: /Odtp /ZI
; File d:\!diffusion 2020\source code 2022\client-server\client\crosshair.cpp
;	COMDAT ?Reset@CHudCrosshairStatic@@UAEXXZ
_TEXT	SEGMENT
_this$ = -4						; size = 4
?Reset@CHudCrosshairStatic@@UAEXXZ PROC			; CHudCrosshairStatic::Reset, COMDAT
; _this$ = ecx

; 55   : {

	push	ebp
	mov	ebp, esp
	sub	esp, 68					; 00000044H
	push	ebx
	push	esi
	push	edi
	mov	DWORD PTR _this$[ebp], ecx

; 56   : 	m_iFlags &= ~HUD_ACTIVE;

	mov	eax, DWORD PTR _this$[ebp]
	mov	ecx, DWORD PTR [eax+4]
	and	ecx, -2					; fffffffeH
	mov	edx, DWORD PTR _this$[ebp]
	mov	DWORD PTR [edx+4], ecx

; 57   : }

	pop	edi
	pop	esi
	pop	ebx
	mov	esp, ebp
	pop	ebp
	ret	0
?Reset@CHudCrosshairStatic@@UAEXXZ ENDP			; CHudCrosshairStatic::Reset
_TEXT	ENDS
; Function compile flags: /Odtp /ZI
; File d:\!diffusion 2020\source code 2022\client-server\client\crosshair.cpp
;	COMDAT ?MsgFunc_GaussHUD@CHudCrosshairStatic@@QAEHPBDHPAX@Z
_TEXT	SEGMENT
tv74 = -72						; size = 4
_this$ = -4						; size = 4
_pszName$ = 8						; size = 4
_iSize$ = 12						; size = 4
_pbuf$ = 16						; size = 4
?MsgFunc_GaussHUD@CHudCrosshairStatic@@QAEHPBDHPAX@Z PROC ; CHudCrosshairStatic::MsgFunc_GaussHUD, COMDAT
; _this$ = ecx

; 98   : {

	push	ebp
	mov	ebp, esp
	sub	esp, 72					; 00000048H
	push	ebx
	push	esi
	push	edi
	mov	DWORD PTR _this$[ebp], ecx

; 99   : 	BEGIN_READ( pszName, pbuf, iSize );

	mov	eax, DWORD PTR _iSize$[ebp]
	push	eax
	mov	ecx, DWORD PTR _pbuf$[ebp]
	push	ecx
	mov	edx, DWORD PTR _pszName$[ebp]
	push	edx
	call	?BEGIN_READ@@YAXPBDPAXH@Z		; BEGIN_READ
	add	esp, 12					; 0000000cH

; 100  : 	GaussAmmo = READ_BYTE();

	call	?READ_BYTE@@YAHXZ			; READ_BYTE
	mov	ecx, DWORD PTR _this$[ebp]
	mov	DWORD PTR [ecx+92], eax

; 101  : 	GaussCharge = READ_BYTE();

	call	?READ_BYTE@@YAHXZ			; READ_BYTE
	mov	ecx, DWORD PTR _this$[ebp]
	mov	DWORD PTR [ecx+96], eax

; 102  : 	GaussWarning = (READ_BYTE() > 0);

	call	?READ_BYTE@@YAHXZ			; READ_BYTE
	test	eax, eax
	jle	SHORT $LN3@MsgFunc_Ga
	mov	DWORD PTR tv74[ebp], 1
	jmp	SHORT $LN4@MsgFunc_Ga
$LN3@MsgFunc_Ga:
	mov	DWORD PTR tv74[ebp], 0
$LN4@MsgFunc_Ga:
	mov	eax, DWORD PTR _this$[ebp]
	mov	cl, BYTE PTR tv74[ebp]
	mov	BYTE PTR [eax+100], cl

; 103  : 	END_READ();

	call	?END_READ@@YAXXZ			; END_READ

; 104  : 
; 105  : 	return 1;

	mov	eax, 1

; 106  : }

	pop	edi
	pop	esi
	pop	ebx
	mov	esp, ebp
	pop	ebp
	ret	12					; 0000000cH
?MsgFunc_GaussHUD@CHudCrosshairStatic@@QAEHPBDHPAX@Z ENDP ; CHudCrosshairStatic::MsgFunc_GaussHUD
_TEXT	ENDS
; Function compile flags: /Odtp /ZI
; File d:\!diffusion 2020\source code 2022\client-server\client\crosshair.cpp
;	COMDAT ?MsgFunc_CrosshairStatic@CHudCrosshairStatic@@QAEHPBDHPAX@Z
_TEXT	SEGMENT
tv131 = -100						; size = 4
tv76 = -100						; size = 4
tv95 = -97						; size = 1
$T1 = -96						; size = 12
$T2 = -84						; size = 12
_ShouldEnable$ = -8					; size = 4
_this$ = -4						; size = 4
_pszName$ = 8						; size = 4
_iSize$ = 12						; size = 4
_pbuf$ = 16						; size = 4
?MsgFunc_CrosshairStatic@CHudCrosshairStatic@@QAEHPBDHPAX@Z PROC ; CHudCrosshairStatic::MsgFunc_CrosshairStatic, COMDAT
; _this$ = ecx

; 60   : {

	push	ebp
	mov	ebp, esp
	sub	esp, 100				; 00000064H
	push	ebx
	push	esi
	push	edi
	mov	DWORD PTR _this$[ebp], ecx

; 61   : 	int ShouldEnable;
; 62   : 
; 63   : 	BEGIN_READ( pszName, pbuf, iSize );

	mov	eax, DWORD PTR _iSize$[ebp]
	push	eax
	mov	ecx, DWORD PTR _pbuf$[ebp]
	push	ecx
	mov	edx, DWORD PTR _pszName$[ebp]
	push	edx
	call	?BEGIN_READ@@YAXPBDPAXH@Z		; BEGIN_READ
	add	esp, 12					; 0000000cH

; 64   : 
; 65   : 	ShouldEnable = READ_BYTE();

	call	?READ_BYTE@@YAHXZ			; READ_BYTE
	mov	DWORD PTR _ShouldEnable$[ebp], eax

; 66   : 
; 67   : 	if( ShouldEnable > 0 )

	cmp	DWORD PTR _ShouldEnable$[ebp], 0
	jle	$LN4@MsgFunc_Cr

; 68   : 	{
; 69   : 		WeaponID = READ_BYTE();

	call	?READ_BYTE@@YAHXZ			; READ_BYTE
	mov	ecx, DWORD PTR _this$[ebp]
	mov	DWORD PTR [ecx+24], eax

; 70   : 		ConfirmedHit = READ_BYTE();

	call	?READ_BYTE@@YAHXZ			; READ_BYTE
	mov	ecx, DWORD PTR _this$[ebp]
	mov	DWORD PTR [ecx+64], eax

; 71   : 		DroneControl = (READ_BYTE() > 0);

	call	?READ_BYTE@@YAHXZ			; READ_BYTE
	test	eax, eax
	jle	SHORT $LN11@MsgFunc_Cr
	mov	DWORD PTR tv76[ebp], 1
	jmp	SHORT $LN12@MsgFunc_Cr
$LN11@MsgFunc_Cr:
	mov	DWORD PTR tv76[ebp], 0
$LN12@MsgFunc_Cr:
	mov	eax, DWORD PTR _this$[ebp]
	mov	cl, BYTE PTR tv76[ebp]
	mov	BYTE PTR [eax+28], cl

; 72   : 		LoadCrosshairForWeapon( WeaponID );

	mov	eax, DWORD PTR _this$[ebp]
	mov	ecx, DWORD PTR [eax+24]
	push	ecx
	mov	ecx, DWORD PTR _this$[ebp]
	call	?LoadCrosshairForWeapon@CHudCrosshairStatic@@QAEXH@Z ; CHudCrosshairStatic::LoadCrosshairForWeapon

; 73   : 		m_iFlags |= HUD_ACTIVE;

	mov	eax, DWORD PTR _this$[ebp]
	mov	ecx, DWORD PTR [eax+4]
	or	ecx, 1
	mov	edx, DWORD PTR _this$[ebp]
	mov	DWORD PTR [edx+4], ecx

; 74   : 		if( ConfirmedHit > 0 )

	mov	eax, DWORD PTR _this$[ebp]
	cmp	DWORD PTR [eax+64], 0
	jle	$LN2@MsgFunc_Cr

; 75   : 		{
; 76   : 			EnableHitMarker = true;

	mov	eax, DWORD PTR _this$[ebp]
	mov	BYTE PTR [eax+52], 1

; 77   : 			HMTransparency = 255;

	mov	eax, DWORD PTR _this$[ebp]
	movss	xmm0, DWORD PTR __real@437f0000
	movss	DWORD PTR [eax+60], xmm0

; 78   : 			// play hitmarker sound, if set
; 79   : 			if( CVAR_TO_BOOL(cl_hitsound) )

	cmp	DWORD PTR ?cl_hitsound@@3PAUcvar_s@@A, 0 ; cl_hitsound
	je	SHORT $LN13@MsgFunc_Cr
	mov	eax, DWORD PTR ?cl_hitsound@@3PAUcvar_s@@A ; cl_hitsound
	movss	xmm0, DWORD PTR [eax+12]
	ucomiss	xmm0, DWORD PTR __real@00000000
	lahf
	test	ah, 68					; 00000044H
	jnp	SHORT $LN13@MsgFunc_Cr
	mov	BYTE PTR tv95[ebp], 1
	jmp	SHORT $LN14@MsgFunc_Cr
$LN13@MsgFunc_Cr:
	mov	BYTE PTR tv95[ebp], 0
$LN14@MsgFunc_Cr:
	movzx	ecx, BYTE PTR tv95[ebp]
	test	ecx, ecx
	je	$LN2@MsgFunc_Cr

; 80   : 			{
; 81   : 				switch( ConfirmedHit )

	mov	eax, DWORD PTR _this$[ebp]
	mov	ecx, DWORD PTR [eax+64]
	mov	DWORD PTR tv131[ebp], ecx
	cmp	DWORD PTR tv131[ebp], 1
	je	SHORT $LN8@MsgFunc_Cr
	cmp	DWORD PTR tv131[ebp], 2
	je	SHORT $LN9@MsgFunc_Cr
	jmp	$LN2@MsgFunc_Cr
$LN8@MsgFunc_Cr:

; 82   : 				{
; 83   : 				case 1: gEngfuncs.pEventAPI->EV_PlaySound( 0, Vector(0,0,0), CHAN_STATIC, "misc/hitmarker.wav", 1.0, 0, 0, 100 ); break;

	push	100					; 00000064H
	push	0
	push	ecx
	xorps	xmm0, xmm0
	movss	DWORD PTR [esp], xmm0
	push	ecx
	movss	xmm0, DWORD PTR __real@3f800000
	movss	DWORD PTR [esp], xmm0
	push	OFFSET ??_C@_0BD@FNGABMON@misc?1hitmarker?4wav?$AA@
	push	6
	push	ecx
	xorps	xmm0, xmm0
	movss	DWORD PTR [esp], xmm0
	push	ecx
	xorps	xmm0, xmm0
	movss	DWORD PTR [esp], xmm0
	push	ecx
	xorps	xmm0, xmm0
	movss	DWORD PTR [esp], xmm0
	lea	ecx, DWORD PTR $T2[ebp]
	call	??0Vector@@QAE@MMM@Z			; Vector::Vector
	mov	ecx, eax
	call	??BVector@@QAEPAMXZ			; Vector::operator float *
	push	eax
	push	0
	mov	eax, DWORD PTR ?gEngfuncs@@3Ucl_enginefuncs_s@@A+336
	mov	ecx, DWORD PTR [eax+4]
	call	ecx
	add	esp, 32					; 00000020H
	jmp	SHORT $LN2@MsgFunc_Cr
$LN9@MsgFunc_Cr:

; 84   : 				case 2: gEngfuncs.pEventAPI->EV_PlaySound( 0, Vector(0,0,0), CHAN_STATIC, "misc/hitmarker_kill.wav", 1.0, 0, 0, 100 ); break;

	push	100					; 00000064H
	push	0
	push	ecx
	xorps	xmm0, xmm0
	movss	DWORD PTR [esp], xmm0
	push	ecx
	movss	xmm0, DWORD PTR __real@3f800000
	movss	DWORD PTR [esp], xmm0
	push	OFFSET ??_C@_0BI@JCCDNIA@misc?1hitmarker_kill?4wav?$AA@
	push	6
	push	ecx
	xorps	xmm0, xmm0
	movss	DWORD PTR [esp], xmm0
	push	ecx
	xorps	xmm0, xmm0
	movss	DWORD PTR [esp], xmm0
	push	ecx
	xorps	xmm0, xmm0
	movss	DWORD PTR [esp], xmm0
	lea	ecx, DWORD PTR $T1[ebp]
	call	??0Vector@@QAE@MMM@Z			; Vector::Vector
	mov	ecx, eax
	call	??BVector@@QAEPAMXZ			; Vector::operator float *
	push	eax
	push	0
	mov	eax, DWORD PTR ?gEngfuncs@@3Ucl_enginefuncs_s@@A+336
	mov	ecx, DWORD PTR [eax+4]
	call	ecx
	add	esp, 32					; 00000020H
$LN2@MsgFunc_Cr:

; 85   : 				}
; 86   : 			}
; 87   : 		}
; 88   : 	}
; 89   : 	else

	jmp	SHORT $LN5@MsgFunc_Cr
$LN4@MsgFunc_Cr:

; 90   : 		m_iFlags &= ~HUD_ACTIVE;

	mov	eax, DWORD PTR _this$[ebp]
	mov	ecx, DWORD PTR [eax+4]
	and	ecx, -2					; fffffffeH
	mov	edx, DWORD PTR _this$[ebp]
	mov	DWORD PTR [edx+4], ecx
$LN5@MsgFunc_Cr:

; 91   : 
; 92   : 	END_READ();

	call	?END_READ@@YAXXZ			; END_READ

; 93   : 
; 94   : 	return 1;

	mov	eax, 1

; 95   : }

	pop	edi
	pop	esi
	pop	ebx
	mov	esp, ebp
	pop	ebp
	ret	12					; 0000000cH
?MsgFunc_CrosshairStatic@CHudCrosshairStatic@@QAEHPBDHPAX@Z ENDP ; CHudCrosshairStatic::MsgFunc_CrosshairStatic
_TEXT	ENDS
; Function compile flags: /Odtp /ZI
; File d:\!diffusion 2020\source code 2022\client-server\client\crosshair.cpp
;	COMDAT ?Draw@CHudCrosshairStatic@@UAEHM@Z
_TEXT	SEGMENT
tv208 = -108						; size = 4
tv435 = -104						; size = 4
tv359 = -104						; size = 4
tv207 = -104						; size = 4
tv165 = -101						; size = 1
$T1 = -100						; size = 12
_Velocity$2 = -24					; size = 4
_YawSpeed$3 = -20					; size = 4
_b$ = -16						; size = 4
_g$ = -12						; size = 4
_r$ = -8						; size = 4
_this$ = -4						; size = 4
_flTime$ = 8						; size = 4
?Draw@CHudCrosshairStatic@@UAEHM@Z PROC			; CHudCrosshairStatic::Draw, COMDAT
; _this$ = ecx

; 109  : {

	push	ebp
	mov	ebp, esp
	sub	esp, 108				; 0000006cH
	push	ebx
	push	esi
	push	edi
	mov	DWORD PTR _this$[ebp], ecx

; 110  : 	// using default half-life crosshairs?
; 111  : 	// UNDONE no way to disable the new ones
; 112  : 	// make a cvar!
; 113  : 	if( CVAR_GET_FLOAT( "crosshair" ) == 1 )

	push	OFFSET ??_C@_09NBNKIDFG@crosshair?$AA@
	call	DWORD PTR ?gEngfuncs@@3Ucl_enginefuncs_s@@A+60
	add	esp, 4
	fstp	DWORD PTR tv359[ebp]
	movss	xmm0, DWORD PTR tv359[ebp]
	ucomiss	xmm0, DWORD PTR __real@3f800000
	lahf
	test	ah, 68					; 00000044H
	jp	SHORT $LN2@Draw

; 114  : 		return 0;

	xor	eax, eax
	jmp	$LN1@Draw
$LN2@Draw:

; 115  : 
; 116  : 	int r, g, b;
; 117  : 
; 118  : 	// hitmarker is allowed at all times
; 119  : 	if( EnableHitMarker == true )

	mov	eax, DWORD PTR _this$[ebp]
	movzx	ecx, BYTE PTR [eax+52]
	cmp	ecx, 1
	jne	$LN8@Draw

; 120  : 	{
; 121  : 		x = (ScreenWidth / 2) - (m_HM.rc.right / 2);

	mov	eax, DWORD PTR ?gHUD@@3VCHud@@A+8436
	cdq
	sub	eax, edx
	mov	ecx, eax
	sar	ecx, 1
	mov	edx, DWORD PTR _this$[ebp]
	mov	eax, DWORD PTR [edx+204]
	cdq
	sub	eax, edx
	sar	eax, 1
	sub	ecx, eax
	mov	eax, DWORD PTR _this$[ebp]
	mov	DWORD PTR [eax+8], ecx

; 122  : 		y = (ScreenHeight / 2) - (m_HM.rc.bottom / 2);

	mov	eax, DWORD PTR ?gHUD@@3VCHud@@A+8440
	cdq
	sub	eax, edx
	mov	ecx, eax
	sar	ecx, 1
	mov	edx, DWORD PTR _this$[ebp]
	mov	eax, DWORD PTR [edx+212]
	cdq
	sub	eax, edx
	sar	eax, 1
	sub	ecx, eax
	mov	eax, DWORD PTR _this$[ebp]
	mov	DWORD PTR [eax+12], ecx

; 123  : 
; 124  : 		if( ConfirmedHit == 1 )

	mov	eax, DWORD PTR _this$[ebp]
	cmp	DWORD PTR [eax+64], 1
	jne	SHORT $LN4@Draw

; 125  : 		{
; 126  : 			UnpackRGB( r, g, b, 0x00FFFFFF );

	push	16777215				; 00ffffffH
	lea	eax, DWORD PTR _b$[ebp]
	push	eax
	lea	ecx, DWORD PTR _g$[ebp]
	push	ecx
	lea	edx, DWORD PTR _r$[ebp]
	push	edx
	call	?UnpackRGB@@YAXAAH00K@Z			; UnpackRGB
	add	esp, 16					; 00000010H

; 127  : 			HMTransparency -= 300 * g_fFrametime;

	movss	xmm0, DWORD PTR __real@43960000
	mulss	xmm0, DWORD PTR ?g_fFrametime@@3MA
	mov	eax, DWORD PTR _this$[ebp]
	movss	xmm1, DWORD PTR [eax+60]
	subss	xmm1, xmm0
	mov	ecx, DWORD PTR _this$[ebp]
	movss	DWORD PTR [ecx+60], xmm1
	jmp	SHORT $LN7@Draw
$LN4@Draw:

; 128  : 		}
; 129  : 		else if( ConfirmedHit == 2 )

	mov	eax, DWORD PTR _this$[ebp]
	cmp	DWORD PTR [eax+64], 2
	jne	SHORT $LN6@Draw

; 130  : 		{
; 131  : 			UnpackRGB( r, g, b, 0x00FF0000 );

	push	16711680				; 00ff0000H
	lea	eax, DWORD PTR _b$[ebp]
	push	eax
	lea	ecx, DWORD PTR _g$[ebp]
	push	ecx
	lea	edx, DWORD PTR _r$[ebp]
	push	edx
	call	?UnpackRGB@@YAXAAH00K@Z			; UnpackRGB
	add	esp, 16					; 00000010H

; 132  : 			HMTransparency -= 150 * g_fFrametime;

	movss	xmm0, DWORD PTR __real@43160000
	mulss	xmm0, DWORD PTR ?g_fFrametime@@3MA
	mov	eax, DWORD PTR _this$[ebp]
	movss	xmm1, DWORD PTR [eax+60]
	subss	xmm1, xmm0
	mov	ecx, DWORD PTR _this$[ebp]
	movss	DWORD PTR [ecx+60], xmm1

; 133  : 		}
; 134  : 		else // FIXME weapon changed while hitmarker was still visible, causing it to update (changing color and not being removed from screen)

	jmp	SHORT $LN7@Draw
$LN6@Draw:

; 135  : 			HMTransparency = 0;

	mov	eax, DWORD PTR _this$[ebp]
	xorps	xmm0, xmm0
	movss	DWORD PTR [eax+60], xmm0
$LN7@Draw:

; 136  : 
; 137  : 		ScaleColors( r, g, b, HMTransparency );

	mov	eax, DWORD PTR _this$[ebp]
	cvttss2si ecx, DWORD PTR [eax+60]
	push	ecx
	lea	edx, DWORD PTR _b$[ebp]
	push	edx
	lea	eax, DWORD PTR _g$[ebp]
	push	eax
	lea	ecx, DWORD PTR _r$[ebp]
	push	ecx
	call	?ScaleColors@@YAXAAH00H@Z		; ScaleColors
	add	esp, 16					; 00000010H

; 138  : 		SPR_Set( m_HM.spr, r, g, b );

	mov	eax, DWORD PTR _b$[ebp]
	push	eax
	mov	ecx, DWORD PTR _g$[ebp]
	push	ecx
	mov	edx, DWORD PTR _r$[ebp]
	push	edx
	mov	eax, DWORD PTR _this$[ebp]
	mov	ecx, DWORD PTR [eax+196]
	push	ecx
	call	DWORD PTR ?gEngfuncs@@3Ucl_enginefuncs_s@@A+16
	add	esp, 16					; 00000010H

; 139  : 		SPR_DrawAdditive( 0, x, y, &m_HM.rc );

	mov	eax, DWORD PTR _this$[ebp]
	add	eax, 200				; 000000c8H
	push	eax
	mov	ecx, DWORD PTR _this$[ebp]
	mov	edx, DWORD PTR [ecx+12]
	push	edx
	mov	eax, DWORD PTR _this$[ebp]
	mov	ecx, DWORD PTR [eax+8]
	push	ecx
	push	0
	call	DWORD PTR ?gEngfuncs@@3Ucl_enginefuncs_s@@A+28
	add	esp, 16					; 00000010H

; 140  : 		if( HMTransparency <= 0 )

	mov	eax, DWORD PTR _this$[ebp]
	xorps	xmm0, xmm0
	comiss	xmm0, DWORD PTR [eax+60]
	jb	SHORT $LN8@Draw

; 141  : 			EnableHitMarker = false;

	mov	eax, DWORD PTR _this$[ebp]
	mov	BYTE PTR [eax+52], 0
$LN8@Draw:

; 142  : 	}
; 143  : 	
; 144  : 	if(( gHUD.m_iHideHUDDisplay & ( HIDEHUD_WPNS | HIDEHUD_ALL | HIDEHUD_HEALTH | HIDEHUD_WPNS_HOLDABLEITEM | HIDEHUD_WPNS_CUSTOM)))

	mov	eax, DWORD PTR ?gHUD@@3VCHud@@A+76
	and	eax, 61					; 0000003dH
	je	SHORT $LN9@Draw

; 145  : 		return 1;

	mov	eax, 1
	jmp	$LN1@Draw
$LN9@Draw:

; 146  : 
; 147  : 	if( CVAR_TO_BOOL( ui_is_active ) )

	cmp	DWORD PTR ?ui_is_active@@3PAUcvar_s@@A, 0 ; ui_is_active
	je	SHORT $LN29@Draw
	mov	eax, DWORD PTR ?ui_is_active@@3PAUcvar_s@@A ; ui_is_active
	movss	xmm0, DWORD PTR [eax+12]
	ucomiss	xmm0, DWORD PTR __real@00000000
	lahf
	test	ah, 68					; 00000044H
	jnp	SHORT $LN29@Draw
	mov	BYTE PTR tv165[ebp], 1
	jmp	SHORT $LN30@Draw
$LN29@Draw:
	mov	BYTE PTR tv165[ebp], 0
$LN30@Draw:
	movzx	ecx, BYTE PTR tv165[ebp]
	test	ecx, ecx
	je	SHORT $LN10@Draw

; 148  : 		return 0;

	xor	eax, eax
	jmp	$LN1@Draw
$LN10@Draw:

; 149  : 	
; 150  : 	if( gHUD.IsZoomed == true ) // draw sniper scope

	movzx	eax, BYTE PTR ?gHUD@@3VCHud@@A+113
	cmp	eax, 1
	jne	$LN11@Draw

; 151  : 	{
; 152  : 		float YawSpeed = (PrevViewAngles - tr.viewparams.viewangles).Length() / g_fFrametime;

	push	OFFSET ?tr@@3Uref_globals_t@@A+5830668
	lea	eax, DWORD PTR $T1[ebp]
	push	eax
	mov	ecx, OFFSET ?PrevViewAngles@@3VVector@@A ; PrevViewAngles
	call	??GVector@@QBE?AV0@ABV0@@Z		; Vector::operator-
	mov	ecx, eax
	call	?Length@Vector@@QBEMXZ			; Vector::Length
	fstp	DWORD PTR tv435[ebp]
	movss	xmm0, DWORD PTR tv435[ebp]
	divss	xmm0, DWORD PTR ?g_fFrametime@@3MA
	movss	DWORD PTR _YawSpeed$3[ebp], xmm0

; 153  : 		float Velocity = gEngfuncs.GetLocalPlayer()->curstate.velocity.Length();

	call	DWORD PTR ?gEngfuncs@@3Ucl_enginefuncs_s@@A+204
	add	eax, 800				; 00000320H
	mov	ecx, eax
	call	?Length@Vector@@QBEMXZ			; Vector::Length
	fstp	DWORD PTR _Velocity$2[ebp]

; 154  : 		if( gHUD.IsZooming )

	movzx	eax, BYTE PTR ?gHUD@@3VCHud@@A+112
	test	eax, eax
	je	SHORT $LN13@Draw

; 155  : 		//	ZoomBlur += 5 * g_fFrametime;
; 156  : 			ZoomBlur = 0.1f;

	mov	eax, DWORD PTR _this$[ebp]
	movss	xmm0, DWORD PTR __real@3dcccccd
	movss	DWORD PTR [eax+32], xmm0

; 157  : 		else

	jmp	SHORT $LN16@Draw
$LN13@Draw:

; 158  : 		{
; 159  : 			// we are standing still but moving mouse
; 160  : 			if( Velocity < 50 )

	movss	xmm0, DWORD PTR __real@42480000
	comiss	xmm0, DWORD PTR _Velocity$2[ebp]
	jbe	SHORT $LN15@Draw

; 161  : 			{
; 162  : 				if( YawSpeed > 20 )

	movss	xmm0, DWORD PTR _YawSpeed$3[ebp]
	comiss	xmm0, DWORD PTR __real@41a00000
	jbe	SHORT $LN17@Draw

; 163  : 					ZoomBlur += 0.6 * g_fFrametime;

	cvtss2sd xmm0, DWORD PTR ?g_fFrametime@@3MA
	mulsd	xmm0, QWORD PTR __real@3fe3333333333333
	mov	eax, DWORD PTR _this$[ebp]
	cvtss2sd xmm1, DWORD PTR [eax+32]
	addsd	xmm1, xmm0
	cvtsd2ss xmm0, xmm1
	mov	ecx, DWORD PTR _this$[ebp]
	movss	DWORD PTR [ecx+32], xmm0

; 164  : 				else

	jmp	SHORT $LN18@Draw
$LN17@Draw:

; 165  : 					ZoomBlur -= g_fFrametime;

	mov	eax, DWORD PTR _this$[ebp]
	movss	xmm0, DWORD PTR [eax+32]
	subss	xmm0, DWORD PTR ?g_fFrametime@@3MA
	mov	ecx, DWORD PTR _this$[ebp]
	movss	DWORD PTR [ecx+32], xmm0
$LN18@Draw:

; 166  : 			}
; 167  : 			else

	jmp	SHORT $LN16@Draw
$LN15@Draw:

; 168  : 				ZoomBlur = Velocity * 0.0005;

	cvtss2sd xmm0, DWORD PTR _Velocity$2[ebp]
	mulsd	xmm0, QWORD PTR __real@3f40624dd2f1a9fc
	cvtsd2ss xmm0, xmm0
	mov	eax, DWORD PTR _this$[ebp]
	movss	DWORD PTR [eax+32], xmm0
$LN16@Draw:

; 169  : 		}
; 170  : 		ZoomBlur = bound( 0.0f, ZoomBlur, 0.1f );

	mov	eax, DWORD PTR _this$[ebp]
	movss	xmm0, DWORD PTR [eax+32]
	comiss	xmm0, DWORD PTR __real@00000000
	jb	SHORT $LN33@Draw
	mov	ecx, DWORD PTR _this$[ebp]
	movss	xmm0, DWORD PTR __real@3dcccccd
	comiss	xmm0, DWORD PTR [ecx+32]
	jbe	SHORT $LN31@Draw
	mov	edx, DWORD PTR _this$[ebp]
	movss	xmm0, DWORD PTR [edx+32]
	movss	DWORD PTR tv207[ebp], xmm0
	jmp	SHORT $LN32@Draw
$LN31@Draw:
	movss	xmm0, DWORD PTR __real@3dcccccd
	movss	DWORD PTR tv207[ebp], xmm0
$LN32@Draw:
	movss	xmm0, DWORD PTR tv207[ebp]
	movss	DWORD PTR tv208[ebp], xmm0
	jmp	SHORT $LN34@Draw
$LN33@Draw:
	xorps	xmm0, xmm0
	movss	DWORD PTR tv208[ebp], xmm0
$LN34@Draw:
	mov	eax, DWORD PTR _this$[ebp]
	movss	xmm0, DWORD PTR tv208[ebp]
	movss	DWORD PTR [eax+32], xmm0

; 171  : 		
; 172  : 		gEngfuncs.pTriAPI->RenderMode( kRenderTransAlpha );

	push	4
	mov	eax, DWORD PTR ?gEngfuncs@@3Ucl_enginefuncs_s@@A+328
	mov	ecx, DWORD PTR [eax+4]
	call	ecx
	add	esp, 4

; 173  : 		gEngfuncs.pTriAPI->Brightness( 1.0f );

	push	ecx
	movss	xmm0, DWORD PTR __real@3f800000
	movss	DWORD PTR [esp], xmm0
	mov	eax, DWORD PTR ?gEngfuncs@@3Ucl_enginefuncs_s@@A+328
	mov	ecx, DWORD PTR [eax+36]
	call	ecx
	add	esp, 4

; 174  : 		gEngfuncs.pTriAPI->Color4f( 1, 1, 1, 1.0f );

	push	ecx
	movss	xmm0, DWORD PTR __real@3f800000
	movss	DWORD PTR [esp], xmm0
	push	ecx
	movss	xmm0, DWORD PTR __real@3f800000
	movss	DWORD PTR [esp], xmm0
	push	ecx
	movss	xmm0, DWORD PTR __real@3f800000
	movss	DWORD PTR [esp], xmm0
	push	ecx
	movss	xmm0, DWORD PTR __real@3f800000
	movss	DWORD PTR [esp], xmm0
	mov	eax, DWORD PTR ?gEngfuncs@@3Ucl_enginefuncs_s@@A+328
	mov	ecx, DWORD PTR [eax+16]
	call	ecx
	add	esp, 16					; 00000010H

; 175  : 		gEngfuncs.pTriAPI->CullFace( TRI_NONE );

	push	1
	mov	eax, DWORD PTR ?gEngfuncs@@3Ucl_enginefuncs_s@@A+328
	mov	ecx, DWORD PTR [eax+40]
	call	ecx
	add	esp, 4

; 176  : 
; 177  : 		GL_SelectTexture( 0 );

	push	0
	call	DWORD PTR ?gRenderfuncs@@3Urender_api_s@@A+136
	add	esp, 4

; 178  : 
; 179  : 		if( WeaponID == WEAPON_CROSSBOW )

	mov	eax, DWORD PTR _this$[ebp]
	cmp	DWORD PTR [eax+24], 6
	jne	SHORT $LN19@Draw

; 180  : 			GL_Bind( 0, CrossbowCrosshairImage );

	mov	eax, DWORD PTR _this$[ebp]
	mov	ecx, DWORD PTR [eax+40]
	push	ecx
	push	0
	call	DWORD PTR ?gRenderfuncs@@3Urender_api_s@@A+132
	add	esp, 8
	jmp	SHORT $LN25@Draw
$LN19@Draw:

; 181  : 		else if( WeaponID == WEAPON_SNIPER )

	mov	eax, DWORD PTR _this$[ebp]
	cmp	DWORD PTR [eax+24], 21			; 00000015H
	jne	SHORT $LN21@Draw

; 182  : 			GL_Bind( 0, SniperCrosshairImage );

	mov	eax, DWORD PTR _this$[ebp]
	mov	ecx, DWORD PTR [eax+36]
	push	ecx
	push	0
	call	DWORD PTR ?gRenderfuncs@@3Urender_api_s@@A+132
	add	esp, 8
	jmp	SHORT $LN25@Draw
$LN21@Draw:

; 183  : 		else if( WeaponID == WEAPON_GAUSS )

	mov	eax, DWORD PTR _this$[ebp]
	cmp	DWORD PTR [eax+24], 9
	jne	SHORT $LN23@Draw

; 184  : 			GL_Bind( 0, AlienCrosshairImage );

	mov	eax, DWORD PTR _this$[ebp]
	mov	ecx, DWORD PTR [eax+44]
	push	ecx
	push	0
	call	DWORD PTR ?gRenderfuncs@@3Urender_api_s@@A+132
	add	esp, 8
	jmp	SHORT $LN25@Draw
$LN23@Draw:

; 185  : 		else if( WeaponID == WEAPON_G36C )

	mov	eax, DWORD PTR _this$[ebp]
	cmp	DWORD PTR [eax+24], 23			; 00000017H
	jne	SHORT $LN25@Draw

; 186  : 			GL_Bind( 0, G36CCrosshairImage );

	mov	eax, DWORD PTR _this$[ebp]
	mov	ecx, DWORD PTR [eax+48]
	push	ecx
	push	0
	call	DWORD PTR ?gRenderfuncs@@3Urender_api_s@@A+132
	add	esp, 8
$LN25@Draw:

; 187  : 
; 188  : 		// draw a square image with the scope crosshair
; 189  : 		gEngfuncs.pTriAPI->Begin( TRI_QUADS );

	push	2
	mov	eax, DWORD PTR ?gEngfuncs@@3Ucl_enginefuncs_s@@A+328
	mov	ecx, DWORD PTR [eax+8]
	call	ecx
	add	esp, 4

; 190  : 		DrawQuad( (ScreenWidth / 2) - (ScreenHeight / 2), 0, (ScreenWidth / 2) + (ScreenHeight / 2), ScreenHeight );

	cvtsi2ss xmm0, DWORD PTR ?gHUD@@3VCHud@@A+8440
	push	ecx
	movss	DWORD PTR [esp], xmm0
	mov	eax, DWORD PTR ?gHUD@@3VCHud@@A+8436
	cdq
	sub	eax, edx
	mov	ecx, eax
	sar	ecx, 1
	mov	eax, DWORD PTR ?gHUD@@3VCHud@@A+8440
	cdq
	sub	eax, edx
	sar	eax, 1
	add	ecx, eax
	cvtsi2ss xmm0, ecx
	push	ecx
	movss	DWORD PTR [esp], xmm0
	push	ecx
	xorps	xmm0, xmm0
	movss	DWORD PTR [esp], xmm0
	mov	eax, DWORD PTR ?gHUD@@3VCHud@@A+8436
	cdq
	sub	eax, edx
	mov	ecx, eax
	sar	ecx, 1
	mov	eax, DWORD PTR ?gHUD@@3VCHud@@A+8440
	cdq
	sub	eax, edx
	sar	eax, 1
	sub	ecx, eax
	cvtsi2ss xmm0, ecx
	push	ecx
	movss	DWORD PTR [esp], xmm0
	call	?DrawQuad@@YAXMMMM@Z			; DrawQuad
	add	esp, 16					; 00000010H

; 191  : 		gEngfuncs.pTriAPI->End();

	mov	eax, DWORD PTR ?gEngfuncs@@3Ucl_enginefuncs_s@@A+328
	mov	ecx, DWORD PTR [eax+12]
	call	ecx

; 192  : 
; 193  : 		// draw blackness to the left
; 194  : 		gEngfuncs.pfnFillRGBABlend( 0, 0, (ScreenWidth - ScreenHeight) / 2, ScreenHeight, 0, 0, 0, 255 );

	push	255					; 000000ffH
	push	0
	push	0
	push	0
	mov	eax, DWORD PTR ?gHUD@@3VCHud@@A+8440
	push	eax
	mov	eax, DWORD PTR ?gHUD@@3VCHud@@A+8436
	sub	eax, DWORD PTR ?gHUD@@3VCHud@@A+8440
	cdq
	sub	eax, edx
	sar	eax, 1
	push	eax
	push	0
	push	0
	call	DWORD PTR ?gEngfuncs@@3Ucl_enginefuncs_s@@A+520
	add	esp, 32					; 00000020H

; 195  : 
; 196  : 		// draw blackness to the right
; 197  : 		gEngfuncs.pfnFillRGBABlend( (ScreenWidth / 2) + (ScreenHeight / 2), 0, (ScreenWidth - ScreenHeight) / 2, ScreenHeight, 0, 0, 0, 255 );

	push	255					; 000000ffH
	push	0
	push	0
	push	0
	mov	eax, DWORD PTR ?gHUD@@3VCHud@@A+8440
	push	eax
	mov	eax, DWORD PTR ?gHUD@@3VCHud@@A+8436
	sub	eax, DWORD PTR ?gHUD@@3VCHud@@A+8440
	cdq
	sub	eax, edx
	sar	eax, 1
	push	eax
	push	0
	mov	eax, DWORD PTR ?gHUD@@3VCHud@@A+8436
	cdq
	sub	eax, edx
	mov	ecx, eax
	sar	ecx, 1
	mov	eax, DWORD PTR ?gHUD@@3VCHud@@A+8440
	cdq
	sub	eax, edx
	sar	eax, 1
	add	ecx, eax
	push	ecx
	call	DWORD PTR ?gEngfuncs@@3Ucl_enginefuncs_s@@A+520
	add	esp, 32					; 00000020H

; 198  : 	}
; 199  : 	else // draw normal crosshairs

	jmp	$LN12@Draw
$LN11@Draw:

; 200  : 	{
; 201  : 		if( tr.time == tr.oldtime ) // paused

	movsd	xmm0, QWORD PTR ?tr@@3Uref_globals_t@@A+8
	ucomisd	xmm0, QWORD PTR ?tr@@3Uref_globals_t@@A+16
	lahf
	test	ah, 68					; 00000044H
	jp	SHORT $LN26@Draw

; 202  : 			return 1;

	mov	eax, 1
	jmp	$LN1@Draw
$LN26@Draw:

; 203  : 
; 204  : 		ZoomBlur = 0.0f; // reset blur

	mov	eax, DWORD PTR _this$[ebp]
	xorps	xmm0, xmm0
	movss	DWORD PTR [eax+32], xmm0

; 205  : 
; 206  : 		x = (ScreenWidth / 2) - (m_CrosshairStatic.rc.right / 2);

	mov	eax, DWORD PTR ?gHUD@@3VCHud@@A+8436
	cdq
	sub	eax, edx
	mov	ecx, eax
	sar	ecx, 1
	mov	edx, DWORD PTR _this$[ebp]
	mov	eax, DWORD PTR [edx+148]
	cdq
	sub	eax, edx
	sar	eax, 1
	sub	ecx, eax
	mov	eax, DWORD PTR _this$[ebp]
	mov	DWORD PTR [eax+8], ecx

; 207  : 		y = (ScreenHeight / 2) - (m_CrosshairStatic.rc.bottom / 2);

	mov	eax, DWORD PTR ?gHUD@@3VCHud@@A+8440
	cdq
	sub	eax, edx
	mov	ecx, eax
	sar	ecx, 1
	mov	edx, DWORD PTR _this$[ebp]
	mov	eax, DWORD PTR [edx+156]
	cdq
	sub	eax, edx
	sar	eax, 1
	sub	ecx, eax
	mov	eax, DWORD PTR _this$[ebp]
	mov	DWORD PTR [eax+12], ecx

; 208  : 		UnpackRGB( r, g, b, 0x0046A9FF );

	push	4631039					; 0046a9ffH
	lea	eax, DWORD PTR _b$[ebp]
	push	eax
	lea	ecx, DWORD PTR _g$[ebp]
	push	ecx
	lea	edx, DWORD PTR _r$[ebp]
	push	edx
	call	?UnpackRGB@@YAXAAH00K@Z			; UnpackRGB
	add	esp, 16					; 00000010H

; 209  : 		ScaleColors( r, g, b, 150 );

	push	150					; 00000096H
	lea	eax, DWORD PTR _b$[ebp]
	push	eax
	lea	ecx, DWORD PTR _g$[ebp]
	push	ecx
	lea	edx, DWORD PTR _r$[ebp]
	push	edx
	call	?ScaleColors@@YAXAAH00H@Z		; ScaleColors
	add	esp, 16					; 00000010H

; 210  : 
; 211  : 		SPR_Set( m_CrosshairStatic.spr, r, g, b );

	mov	eax, DWORD PTR _b$[ebp]
	push	eax
	mov	ecx, DWORD PTR _g$[ebp]
	push	ecx
	mov	edx, DWORD PTR _r$[ebp]
	push	edx
	mov	eax, DWORD PTR _this$[ebp]
	mov	ecx, DWORD PTR [eax+140]
	push	ecx
	call	DWORD PTR ?gEngfuncs@@3Ucl_enginefuncs_s@@A+16
	add	esp, 16					; 00000010H

; 212  : 		SPR_DrawAdditive( 0, x, y, &m_CrosshairStatic.rc );

	mov	eax, DWORD PTR _this$[ebp]
	add	eax, 144				; 00000090H
	push	eax
	mov	ecx, DWORD PTR _this$[ebp]
	mov	edx, DWORD PTR [ecx+12]
	push	edx
	mov	eax, DWORD PTR _this$[ebp]
	mov	ecx, DWORD PTR [eax+8]
	push	ecx
	push	0
	call	DWORD PTR ?gEngfuncs@@3Ucl_enginefuncs_s@@A+28
	add	esp, 16					; 00000010H
$LN12@Draw:

; 213  : 	}
; 214  : 
; 215  : 	if( WeaponID == WEAPON_GAUSS )

	mov	eax, DWORD PTR _this$[ebp]
	cmp	DWORD PTR [eax+24], 9
	jne	SHORT $LN27@Draw

; 216  : 		DrawGaussZoomedHUD();

	mov	ecx, DWORD PTR _this$[ebp]
	call	?DrawGaussZoomedHUD@CHudCrosshairStatic@@QAEXXZ ; CHudCrosshairStatic::DrawGaussZoomedHUD
$LN27@Draw:

; 217  : 
; 218  : 	return 1;

	mov	eax, 1
$LN1@Draw:

; 219  : }

	pop	edi
	pop	esi
	pop	ebx
	mov	esp, ebp
	pop	ebp
	ret	4
?Draw@CHudCrosshairStatic@@UAEHM@Z ENDP			; CHudCrosshairStatic::Draw
_TEXT	ENDS
; Function compile flags: /Odtp /ZI
; File d:\!diffusion 2020\source code 2022\client-server\client\crosshair.cpp
;	COMDAT ?VidInit@CHudCrosshairStatic@@UAEHXZ
_TEXT	SEGMENT
_Gammo$ = -16						; size = 4
_Gcharge$ = -12						; size = 4
_Gframe$ = -8						; size = 4
_this$ = -4						; size = 4
?VidInit@CHudCrosshairStatic@@UAEHXZ PROC		; CHudCrosshairStatic::VidInit, COMDAT
; _this$ = ecx

; 34   : {

	push	ebp
	mov	ebp, esp
	sub	esp, 80					; 00000050H
	push	ebx
	push	esi
	push	edi
	mov	DWORD PTR _this$[ebp], ecx

; 35   : 	SniperCrosshairImage = LOAD_TEXTURE( "sprites/scope_sniper.dds", NULL, 0, 0 );

	push	0
	push	0
	push	0
	push	OFFSET ??_C@_0BJ@PCOMPMEP@sprites?1scope_sniper?4dds?$AA@
	call	DWORD PTR ?gRenderfuncs@@3Urender_api_s@@A+60
	add	esp, 16					; 00000010H
	mov	ecx, DWORD PTR _this$[ebp]
	mov	DWORD PTR [ecx+36], eax

; 36   : 	CrossbowCrosshairImage = LOAD_TEXTURE( "sprites/scope_crossbow.dds", NULL, 0, 0 );

	push	0
	push	0
	push	0
	push	OFFSET ??_C@_0BL@CNGDAKNJ@sprites?1scope_crossbow?4dds?$AA@
	call	DWORD PTR ?gRenderfuncs@@3Urender_api_s@@A+60
	add	esp, 16					; 00000010H
	mov	ecx, DWORD PTR _this$[ebp]
	mov	DWORD PTR [ecx+40], eax

; 37   : 	AlienCrosshairImage = LOAD_TEXTURE( "sprites/scope_alien.dds", NULL, 0, 0 );

	push	0
	push	0
	push	0
	push	OFFSET ??_C@_0BI@BJLFAFCJ@sprites?1scope_alien?4dds?$AA@
	call	DWORD PTR ?gRenderfuncs@@3Urender_api_s@@A+60
	add	esp, 16					; 00000010H
	mov	ecx, DWORD PTR _this$[ebp]
	mov	DWORD PTR [ecx+44], eax

; 38   : 	G36CCrosshairImage = LOAD_TEXTURE( "sprites/scope_g36c.dds", NULL, 0, 0 );

	push	0
	push	0
	push	0
	push	OFFSET ??_C@_0BH@EFDOPODF@sprites?1scope_g36c?4dds?$AA@
	call	DWORD PTR ?gRenderfuncs@@3Urender_api_s@@A+60
	add	esp, 16					; 00000010H
	mov	ecx, DWORD PTR _this$[ebp]
	mov	DWORD PTR [ecx+48], eax

; 39   : 	ZoomBlur = 0.0f;

	mov	eax, DWORD PTR _this$[ebp]
	xorps	xmm0, xmm0
	movss	DWORD PTR [eax+32], xmm0

; 40   : 
; 41   : 	// gauss-specific
; 42   : 	int Gframe = gHUD.GetSpriteIndex( "hud_gausniper_frame" );

	push	OFFSET ??_C@_0BE@IFMHMJLE@hud_gausniper_frame?$AA@
	mov	ecx, OFFSET ?gHUD@@3VCHud@@A		; gHUD
	call	?GetSpriteIndex@CHud@@QAEHPBD@Z		; CHud::GetSpriteIndex
	mov	DWORD PTR _Gframe$[ebp], eax

; 43   : 	int Gcharge = gHUD.GetSpriteIndex( "hud_gausniper_charge" );

	push	OFFSET ??_C@_0BF@CPIILCED@hud_gausniper_charge?$AA@
	mov	ecx, OFFSET ?gHUD@@3VCHud@@A		; gHUD
	call	?GetSpriteIndex@CHud@@QAEHPBD@Z		; CHud::GetSpriteIndex
	mov	DWORD PTR _Gcharge$[ebp], eax

; 44   : 	int Gammo = gHUD.GetSpriteIndex( "hud_gausniper_ammo" );

	push	OFFSET ??_C@_0BD@BOFHPJLK@hud_gausniper_ammo?$AA@
	mov	ecx, OFFSET ?gHUD@@3VCHud@@A		; gHUD
	call	?GetSpriteIndex@CHud@@QAEHPBD@Z		; CHud::GetSpriteIndex
	mov	DWORD PTR _Gammo$[ebp], eax

; 45   : 	m_hGFrame = gHUD.GetSprite( Gframe );

	mov	eax, DWORD PTR _Gframe$[ebp]
	push	eax
	mov	ecx, OFFSET ?gHUD@@3VCHud@@A		; gHUD
	call	?GetSprite@CHud@@QAEHH@Z		; CHud::GetSprite
	mov	ecx, DWORD PTR _this$[ebp]
	mov	DWORD PTR [ecx+76], eax

; 46   : 	m_hGCharge = gHUD.GetSprite( Gcharge );

	mov	eax, DWORD PTR _Gcharge$[ebp]
	push	eax
	mov	ecx, OFFSET ?gHUD@@3VCHud@@A		; gHUD
	call	?GetSprite@CHud@@QAEHH@Z		; CHud::GetSprite
	mov	ecx, DWORD PTR _this$[ebp]
	mov	DWORD PTR [ecx+72], eax

; 47   : 	m_hGAmmo = gHUD.GetSprite( Gammo );

	mov	eax, DWORD PTR _Gammo$[ebp]
	push	eax
	mov	ecx, OFFSET ?gHUD@@3VCHud@@A		; gHUD
	call	?GetSprite@CHud@@QAEHH@Z		; CHud::GetSprite
	mov	ecx, DWORD PTR _this$[ebp]
	mov	DWORD PTR [ecx+68], eax

; 48   : 	m_prc_Gframe = &gHUD.GetSpriteRect( Gframe );

	mov	eax, DWORD PTR _Gframe$[ebp]
	push	eax
	mov	ecx, OFFSET ?gHUD@@3VCHud@@A		; gHUD
	call	?GetSpriteRect@CHud@@QAEAAUwrect_s@@H@Z	; CHud::GetSpriteRect
	mov	ecx, DWORD PTR _this$[ebp]
	mov	DWORD PTR [ecx+88], eax

; 49   : 	m_prc_Gcharge = &gHUD.GetSpriteRect( Gcharge );

	mov	eax, DWORD PTR _Gcharge$[ebp]
	push	eax
	mov	ecx, OFFSET ?gHUD@@3VCHud@@A		; gHUD
	call	?GetSpriteRect@CHud@@QAEAAUwrect_s@@H@Z	; CHud::GetSpriteRect
	mov	ecx, DWORD PTR _this$[ebp]
	mov	DWORD PTR [ecx+80], eax

; 50   : 	m_prc_Gammo = &gHUD.GetSpriteRect( Gammo );

	mov	eax, DWORD PTR _Gammo$[ebp]
	push	eax
	mov	ecx, OFFSET ?gHUD@@3VCHud@@A		; gHUD
	call	?GetSpriteRect@CHud@@QAEAAUwrect_s@@H@Z	; CHud::GetSpriteRect
	mov	ecx, DWORD PTR _this$[ebp]
	mov	DWORD PTR [ecx+84], eax

; 51   : 	return 1;

	mov	eax, 1

; 52   : }

	pop	edi
	pop	esi
	pop	ebx
	mov	esp, ebp
	pop	ebp
	ret	0
?VidInit@CHudCrosshairStatic@@UAEHXZ ENDP		; CHudCrosshairStatic::VidInit
_TEXT	ENDS
; Function compile flags: /Odtp /ZI
; File d:\!diffusion 2020\source code 2022\client-server\client\crosshair.cpp
;	COMDAT ?Init@CHudCrosshairStatic@@UAEHXZ
_TEXT	SEGMENT
_this$ = -4						; size = 4
?Init@CHudCrosshairStatic@@UAEHXZ PROC			; CHudCrosshairStatic::Init, COMDAT
; _this$ = ecx

; 22   : {

	push	ebp
	mov	ebp, esp
	sub	esp, 68					; 00000044H
	push	ebx
	push	esi
	push	edi
	mov	DWORD PTR _this$[ebp], ecx

; 23   : 	HOOK_MESSAGE( CrosshairStatic );

	push	OFFSET ?__MsgFunc_CrosshairStatic@@YAHPBDHPAX@Z ; __MsgFunc_CrosshairStatic
	push	OFFSET ??_C@_0BA@DFFLEBCP@CrosshairStatic?$AA@
	call	DWORD PTR ?gEngfuncs@@3Ucl_enginefuncs_s@@A+72
	add	esp, 8

; 24   : 	HOOK_MESSAGE( GaussHUD );

	push	OFFSET ?__MsgFunc_GaussHUD@@YAHPBDHPAX@Z ; __MsgFunc_GaussHUD
	push	OFFSET ??_C@_08JCBCCJMO@GaussHUD?$AA@
	call	DWORD PTR ?gEngfuncs@@3Ucl_enginefuncs_s@@A+72
	add	esp, 8

; 25   : 	gHUD.AddHudElem( this );

	mov	eax, DWORD PTR _this$[ebp]
	push	eax
	mov	ecx, OFFSET ?gHUD@@3VCHud@@A		; gHUD
	call	?AddHudElem@CHud@@QAEXPAVCHudBase@@@Z	; CHud::AddHudElem

; 26   : 	SniperCrosshairImage = 0;

	mov	eax, DWORD PTR _this$[ebp]
	mov	DWORD PTR [eax+36], 0

; 27   : 	CrossbowCrosshairImage = 0;

	mov	eax, DWORD PTR _this$[ebp]
	mov	DWORD PTR [eax+40], 0

; 28   : 	AlienCrosshairImage = 0;

	mov	eax, DWORD PTR _this$[ebp]
	mov	DWORD PTR [eax+44], 0

; 29   : 	Reset();

	mov	eax, DWORD PTR _this$[ebp]
	mov	edx, DWORD PTR [eax]
	mov	ecx, DWORD PTR _this$[ebp]
	mov	eax, DWORD PTR [edx+20]
	call	eax

; 30   : 	return 1;

	mov	eax, 1

; 31   : }

	pop	edi
	pop	esi
	pop	ebx
	mov	esp, ebp
	pop	ebp
	ret	0
?Init@CHudCrosshairStatic@@UAEHXZ ENDP			; CHudCrosshairStatic::Init
_TEXT	ENDS
; Function compile flags: /Odtp /ZI
; File d:\!diffusion 2020\source code 2022\client-server\game_shared\vector.h
;	COMDAT ??BVector@@QAEPAMXZ
_TEXT	SEGMENT
_this$ = -4						; size = 4
??BVector@@QAEPAMXZ PROC				; Vector::operator float *, COMDAT
; _this$ = ecx

; 247  : 	operator float *()				{ return &x; } // Vectors will now automatically convert to float * when needed

	push	ebp
	mov	ebp, esp
	sub	esp, 68					; 00000044H
	push	ebx
	push	esi
	push	edi
	mov	DWORD PTR _this$[ebp], ecx
	mov	eax, DWORD PTR _this$[ebp]
	pop	edi
	pop	esi
	pop	ebx
	mov	esp, ebp
	pop	ebp
	ret	0
??BVector@@QAEPAMXZ ENDP				; Vector::operator float *
_TEXT	ENDS
; Function compile flags: /Odtp /ZI
; File d:\!diffusion 2020\source code 2022\client-server\game_shared\vector.h
;	COMDAT ?Length@Vector@@QBEMXZ
_TEXT	SEGMENT
tv91 = -72						; size = 4
_this$ = -4						; size = 4
?Length@Vector@@QBEMXZ PROC				; Vector::Length, COMDAT
; _this$ = ecx

; 245  : 	inline float Length(void) const		{ return sqrt( x*x + y*y + z*z ); }

	push	ebp
	mov	ebp, esp
	sub	esp, 72					; 00000048H
	push	ebx
	push	esi
	push	edi
	mov	DWORD PTR _this$[ebp], ecx
	mov	eax, DWORD PTR _this$[ebp]
	mov	ecx, DWORD PTR _this$[ebp]
	movss	xmm0, DWORD PTR [eax]
	mulss	xmm0, DWORD PTR [ecx]
	mov	edx, DWORD PTR _this$[ebp]
	mov	eax, DWORD PTR _this$[ebp]
	movss	xmm1, DWORD PTR [edx+4]
	mulss	xmm1, DWORD PTR [eax+4]
	addss	xmm0, xmm1
	mov	ecx, DWORD PTR _this$[ebp]
	mov	edx, DWORD PTR _this$[ebp]
	movss	xmm1, DWORD PTR [ecx+8]
	mulss	xmm1, DWORD PTR [edx+8]
	addss	xmm0, xmm1
	cvtss2sd xmm0, xmm0
	sub	esp, 8
	movsd	QWORD PTR [esp], xmm0
	call	_sqrt
	add	esp, 8
	fstp	DWORD PTR tv91[ebp]
	fld	DWORD PTR tv91[ebp]
	pop	edi
	pop	esi
	pop	ebx
	mov	esp, ebp
	pop	ebp
	ret	0
?Length@Vector@@QBEMXZ ENDP				; Vector::Length
_TEXT	ENDS
; Function compile flags: /Odtp /ZI
; File d:\!diffusion 2020\source code 2022\client-server\game_shared\vector.h
;	COMDAT ??GVector@@QBE?AV0@ABV0@@Z
_TEXT	SEGMENT
_this$ = -4						; size = 4
___$ReturnUdt$ = 8					; size = 4
_v$ = 12						; size = 4
??GVector@@QBE?AV0@ABV0@@Z PROC				; Vector::operator-, COMDAT
; _this$ = ecx

; 159  : 	inline Vector operator-(const Vector& v) const	{ return Vector(x-v.x, y-v.y, z-v.z);	   }

	push	ebp
	mov	ebp, esp
	sub	esp, 68					; 00000044H
	push	ebx
	push	esi
	push	edi
	mov	DWORD PTR _this$[ebp], ecx
	mov	eax, DWORD PTR _this$[ebp]
	mov	ecx, DWORD PTR _v$[ebp]
	movss	xmm0, DWORD PTR [eax+8]
	subss	xmm0, DWORD PTR [ecx+8]
	push	ecx
	movss	DWORD PTR [esp], xmm0
	mov	edx, DWORD PTR _this$[ebp]
	mov	eax, DWORD PTR _v$[ebp]
	movss	xmm0, DWORD PTR [edx+4]
	subss	xmm0, DWORD PTR [eax+4]
	push	ecx
	movss	DWORD PTR [esp], xmm0
	mov	ecx, DWORD PTR _this$[ebp]
	mov	edx, DWORD PTR _v$[ebp]
	movss	xmm0, DWORD PTR [ecx]
	subss	xmm0, DWORD PTR [edx]
	push	ecx
	movss	DWORD PTR [esp], xmm0
	mov	ecx, DWORD PTR ___$ReturnUdt$[ebp]
	call	??0Vector@@QAE@MMM@Z			; Vector::Vector
	mov	eax, DWORD PTR ___$ReturnUdt$[ebp]
	pop	edi
	pop	esi
	pop	ebx
	mov	esp, ebp
	pop	ebp
	ret	8
??GVector@@QBE?AV0@ABV0@@Z ENDP				; Vector::operator-
_TEXT	ENDS
; Function compile flags: /Odtp /ZI
; File d:\!diffusion 2020\source code 2022\client-server\game_shared\vector.h
;	COMDAT ??0Vector@@QAE@QAM@Z
_TEXT	SEGMENT
_this$ = -4						; size = 4
_rgfl$ = 8						; size = 4
??0Vector@@QAE@QAM@Z PROC				; Vector::Vector, COMDAT
; _this$ = ecx

; 147  : 	inline Vector(float rgfl[3])			{ x = rgfl[0]; y = rgfl[1]; z = rgfl[2];   }

	push	ebp
	mov	ebp, esp
	sub	esp, 68					; 00000044H
	push	ebx
	push	esi
	push	edi
	mov	DWORD PTR _this$[ebp], ecx
	mov	eax, 4
	imul	ecx, eax, 0
	mov	edx, DWORD PTR _this$[ebp]
	mov	eax, DWORD PTR _rgfl$[ebp]
	mov	ecx, DWORD PTR [eax+ecx]
	mov	DWORD PTR [edx], ecx
	mov	eax, 4
	shl	eax, 0
	mov	ecx, DWORD PTR _this$[ebp]
	mov	edx, DWORD PTR _rgfl$[ebp]
	mov	eax, DWORD PTR [edx+eax]
	mov	DWORD PTR [ecx+4], eax
	mov	eax, 4
	shl	eax, 1
	mov	ecx, DWORD PTR _this$[ebp]
	mov	edx, DWORD PTR _rgfl$[ebp]
	mov	eax, DWORD PTR [edx+eax]
	mov	DWORD PTR [ecx+8], eax
	mov	eax, DWORD PTR _this$[ebp]
	pop	edi
	pop	esi
	pop	ebx
	mov	esp, ebp
	pop	ebp
	ret	4
??0Vector@@QAE@QAM@Z ENDP				; Vector::Vector
_TEXT	ENDS
; Function compile flags: /Odtp /ZI
; File d:\!diffusion 2020\source code 2022\client-server\game_shared\vector.h
;	COMDAT ??0Vector@@QAE@MMM@Z
_TEXT	SEGMENT
_this$ = -4						; size = 4
_X$ = 8							; size = 4
_Y$ = 12						; size = 4
_Z$ = 16						; size = 4
??0Vector@@QAE@MMM@Z PROC				; Vector::Vector, COMDAT
; _this$ = ecx

; 144  : 	inline Vector(float X, float Y, float Z)	{ x = X; y = Y; z = Z;                     }

	push	ebp
	mov	ebp, esp
	sub	esp, 68					; 00000044H
	push	ebx
	push	esi
	push	edi
	mov	DWORD PTR _this$[ebp], ecx
	mov	eax, DWORD PTR _this$[ebp]
	movss	xmm0, DWORD PTR _X$[ebp]
	movss	DWORD PTR [eax], xmm0
	mov	eax, DWORD PTR _this$[ebp]
	movss	xmm0, DWORD PTR _Y$[ebp]
	movss	DWORD PTR [eax+4], xmm0
	mov	eax, DWORD PTR _this$[ebp]
	movss	xmm0, DWORD PTR _Z$[ebp]
	movss	DWORD PTR [eax+8], xmm0
	mov	eax, DWORD PTR _this$[ebp]
	pop	edi
	pop	esi
	pop	ebx
	mov	esp, ebp
	pop	ebp
	ret	12					; 0000000cH
??0Vector@@QAE@MMM@Z ENDP				; Vector::Vector
_TEXT	ENDS
; Function compile flags: /Odtp /ZI
;	COMDAT ??__G@YGXPAX0IIP6EPAX00@Z@Z
_TEXT	SEGMENT
tv66 = -68						; size = 4
___t$ = 8						; size = 4
___u$ = 12						; size = 4
___s$ = 16						; size = 4
___n$ = 20						; size = 4
___f$ = 24						; size = 4
??__G@YGXPAX0IIP6EPAX00@Z@Z PROC			; `vector copy constructor iterator', COMDAT
	push	ebp
	mov	ebp, esp
	sub	esp, 68					; 00000044H
	push	ebx
	push	esi
	push	edi
$LN2@vector:
	mov	eax, DWORD PTR ___n$[ebp]
	mov	DWORD PTR tv66[ebp], eax
	mov	ecx, DWORD PTR ___n$[ebp]
	sub	ecx, 1
	mov	DWORD PTR ___n$[ebp], ecx
	cmp	DWORD PTR tv66[ebp], 0
	jbe	SHORT $LN1@vector
	mov	eax, DWORD PTR ___u$[ebp]
	push	eax
	mov	ecx, DWORD PTR ___t$[ebp]
	call	DWORD PTR ___f$[ebp]
	mov	eax, DWORD PTR ___t$[ebp]
	add	eax, DWORD PTR ___s$[ebp]
	mov	DWORD PTR ___t$[ebp], eax
	mov	eax, DWORD PTR ___u$[ebp]
	add	eax, DWORD PTR ___s$[ebp]
	mov	DWORD PTR ___u$[ebp], eax
	jmp	SHORT $LN2@vector
$LN1@vector:
	pop	edi
	pop	esi
	pop	ebx
	mov	esp, ebp
	pop	ebp
	ret	20					; 00000014H
??__G@YGXPAX0IIP6EPAX00@Z@Z ENDP			; `vector copy constructor iterator'
_TEXT	ENDS
; Function compile flags: /Odtp /ZI
;	COMDAT ??_H@YGXPAXIIP6EPAX0@Z@Z
_TEXT	SEGMENT
tv66 = -68						; size = 4
___t$ = 8						; size = 4
___s$ = 12						; size = 4
___n$ = 16						; size = 4
___f$ = 20						; size = 4
??_H@YGXPAXIIP6EPAX0@Z@Z PROC				; `vector constructor iterator', COMDAT
	push	ebp
	mov	ebp, esp
	sub	esp, 68					; 00000044H
	push	ebx
	push	esi
	push	edi
$LN2@vector:
	mov	eax, DWORD PTR ___n$[ebp]
	mov	DWORD PTR tv66[ebp], eax
	mov	ecx, DWORD PTR ___n$[ebp]
	sub	ecx, 1
	mov	DWORD PTR ___n$[ebp], ecx
	cmp	DWORD PTR tv66[ebp], 0
	jbe	SHORT $LN1@vector
	mov	ecx, DWORD PTR ___t$[ebp]
	call	DWORD PTR ___f$[ebp]
	mov	eax, DWORD PTR ___t$[ebp]
	add	eax, DWORD PTR ___s$[ebp]
	mov	DWORD PTR ___t$[ebp], eax
	jmp	SHORT $LN2@vector
$LN1@vector:
	pop	edi
	pop	esi
	pop	ebx
	mov	esp, ebp
	pop	ebp
	ret	16					; 00000010H
??_H@YGXPAXIIP6EPAX0@Z@Z ENDP				; `vector constructor iterator'
_TEXT	ENDS
END
