; Listing generated by Microsoft (R) Optimizing Compiler Version 19.00.24247.2 

	TITLE	D:\!DIFFUSION 2020\source code 2022\client-server\client\death.cpp
	.686P
	.XMM
	include listing.inc
	.model	flat

INCLUDELIB LIBCMT
INCLUDELIB OLDNAMES

PUBLIC	?rgDeathNoticeList@@3PAUDeathNoticeItem@@A	; rgDeathNoticeList
PUBLIC	?g_ColorBlue@@3PAMA				; g_ColorBlue
PUBLIC	?g_ColorRed@@3PAMA				; g_ColorRed
PUBLIC	?g_ColorGreen@@3PAMA				; g_ColorGreen
PUBLIC	?g_ColorYellow@@3PAMA				; g_ColorYellow
PUBLIC	?g_ColorGrey@@3PAMA				; g_ColorGrey
_BSS	SEGMENT
?rgDeathNoticeList@@3PAUDeathNoticeItem@@A DB 030cH DUP (?) ; rgDeathNoticeList
_BSS	ENDS
_DATA	SEGMENT
?DEATHNOTICE_DISPLAY_TIME@@3HA DD 06H			; DEATHNOTICE_DISPLAY_TIME
?g_ColorBlue@@3PAMA DD 03f19999ar		; 0.6	; g_ColorBlue
	DD	03f4ccccdr			; 0.8
	DD	03f800000r			; 1
?g_ColorRed@@3PAMA DD 03f800000r		; 1	; g_ColorRed
	DD	03e800000r			; 0.25
	DD	03e800000r			; 0.25
?g_ColorGreen@@3PAMA DD 03f19999ar		; 0.6	; g_ColorGreen
	DD	03f800000r			; 1
	DD	03f19999ar			; 0.6
?g_ColorYellow@@3PAMA DD 03f800000r		; 1	; g_ColorYellow
	DD	03f333333r			; 0.7
	DD	000000000r			; 0
?g_ColorGrey@@3PAMA DD 03f4ccccdr		; 0.8	; g_ColorGrey
	DD	03f4ccccdr			; 0.8
	DD	03f4ccccdr			; 0.8
_DATA	ENDS
PUBLIC	??_H@YGXPAXIIP6EPAX0@Z@Z			; `vector constructor iterator'
PUBLIC	??__G@YGXPAX0IIP6EPAX00@Z@Z			; `vector copy constructor iterator'
PUBLIC	?Init@CHudDeathNotice@@UAEHXZ			; CHudDeathNotice::Init
PUBLIC	?InitHUDData@CHudDeathNotice@@UAEXXZ		; CHudDeathNotice::InitHUDData
PUBLIC	?VidInit@CHudDeathNotice@@UAEHXZ		; CHudDeathNotice::VidInit
PUBLIC	?Draw@CHudDeathNotice@@UAEHM@Z			; CHudDeathNotice::Draw
PUBLIC	?MsgFunc_DeathMsg@CHudDeathNotice@@QAEHPBDHPAX@Z ; CHudDeathNotice::MsgFunc_DeathMsg
PUBLIC	?GetSprite@CHud@@QAEHH@Z			; CHud::GetSprite
PUBLIC	?GetSpriteRect@CHud@@QAEAAUwrect_s@@H@Z		; CHud::GetSpriteRect
PUBLIC	?ConsoleStringLen@@YAHPBD@Z			; ConsoleStringLen
PUBLIC	?GetClientColor@@YAPAMH@Z			; GetClientColor
PUBLIC	?__MsgFunc_DeathMsg@@YAHPBDHPAX@Z		; __MsgFunc_DeathMsg
PUBLIC	??_C@_08DMGIIAG@DeathMsg?$AA@			; `string'
PUBLIC	??_C@_01DHDKHMHF@6?$AA@				; `string'
PUBLIC	??_C@_0BF@IGDIMMCO@hud_deathnotice_time?$AA@	; `string'
PUBLIC	??_C@_07KMNBGIPL@d_skull?$AA@			; `string'
PUBLIC	??_C@_02HCEDAEIK@d_?$AA@			; `string'
PUBLIC	??_C@_00CNPNBAHC@?$AA@				; `string'
PUBLIC	??_C@_0L@DJMPGNEL@d_teammate?$AA@		; `string'
PUBLIC	??_C@_0L@EIFJPPDG@?5killed?5a?5?$AA@		; `string'
PUBLIC	??_C@_01EEMJAFIK@?6?$AA@			; `string'
PUBLIC	??_C@_07JHMODOJM@d_world?$AA@			; `string'
PUBLIC	??_C@_05CMIAJFAG@?5died?$AA@			; `string'
PUBLIC	??_C@_0N@GAJOKECJ@?5killed?5self?$AA@		; `string'
PUBLIC	??_C@_0BG@HEJMPEDM@?5killed?5his?5teammate?5?$AA@ ; `string'
PUBLIC	??_C@_08PNPOMJCL@?5killed?5?$AA@		; `string'
PUBLIC	??_C@_06BIDGLIKJ@?5with?5?$AA@			; `string'
PUBLIC	??_C@_04HGALPFFB@egon?$AA@			; `string'
PUBLIC	??_C@_0M@KIJAOLEC@d_gluon?5gun?$AA@		; `string'
PUBLIC	??_C@_05PBNKJDNB@gauss?$AA@			; `string'
PUBLIC	??_C@_0N@HPEKGPJE@d_tau?5cannon?$AA@		; `string'
EXTRN	_memmove:PROC
EXTRN	_memset:PROC
EXTRN	?Q_strncat@@YAIPADPBDI@Z:PROC			; Q_strncat
EXTRN	?Q_strncpy@@YAIPADPBDI@Z:PROC			; Q_strncpy
EXTRN	?Q_strncmp@@YAHPBD0H@Z:PROC			; Q_strncmp
EXTRN	?DeathMsg@CHudScoreboard@@QAEXHH@Z:PROC		; CHudScoreboard::DeathMsg
EXTRN	?GetAllPlayersInfo@CHudScoreboard@@QAEXXZ:PROC	; CHudScoreboard::GetAllPlayersInfo
EXTRN	?GetSpriteIndex@CHud@@QAEHPBD@Z:PROC		; CHud::GetSpriteIndex
EXTRN	?AddHudElem@CHud@@QAEXPAVCHudBase@@@Z:PROC	; CHud::AddHudElem
EXTRN	?BEGIN_READ@@YAXPBDPAXH@Z:PROC			; BEGIN_READ
EXTRN	?END_READ@@YAXXZ:PROC				; END_READ
EXTRN	?READ_BYTE@@YAHXZ:PROC				; READ_BYTE
EXTRN	?READ_STRING@@YAPADXZ:PROC			; READ_STRING
EXTRN	@__security_check_cookie@4:PROC
EXTRN	__ftol2_sse:PROC
EXTRN	?gEngfuncs@@3Ucl_enginefuncs_s@@A:BYTE		; gEngfuncs
EXTRN	?gHUD@@3VCHud@@A:BYTE				; gHUD
EXTRN	?g_PlayerInfoList@@3PAUhud_player_info_s@@A:BYTE ; g_PlayerInfoList
EXTRN	?g_PlayerExtraInfo@@3PAUextra_player_info_t@@A:BYTE ; g_PlayerExtraInfo
EXTRN	___security_cookie:DWORD
EXTRN	__fltused:DWORD
;	COMDAT ??_C@_0N@HPEKGPJE@d_tau?5cannon?$AA@
CONST	SEGMENT
??_C@_0N@HPEKGPJE@d_tau?5cannon?$AA@ DB 'd_tau cannon', 00H ; `string'
CONST	ENDS
;	COMDAT ??_C@_05PBNKJDNB@gauss?$AA@
CONST	SEGMENT
??_C@_05PBNKJDNB@gauss?$AA@ DB 'gauss', 00H		; `string'
CONST	ENDS
;	COMDAT ??_C@_0M@KIJAOLEC@d_gluon?5gun?$AA@
CONST	SEGMENT
??_C@_0M@KIJAOLEC@d_gluon?5gun?$AA@ DB 'd_gluon gun', 00H ; `string'
CONST	ENDS
;	COMDAT ??_C@_04HGALPFFB@egon?$AA@
CONST	SEGMENT
??_C@_04HGALPFFB@egon?$AA@ DB 'egon', 00H		; `string'
CONST	ENDS
;	COMDAT ??_C@_06BIDGLIKJ@?5with?5?$AA@
CONST	SEGMENT
??_C@_06BIDGLIKJ@?5with?5?$AA@ DB ' with ', 00H		; `string'
CONST	ENDS
;	COMDAT ??_C@_08PNPOMJCL@?5killed?5?$AA@
CONST	SEGMENT
??_C@_08PNPOMJCL@?5killed?5?$AA@ DB ' killed ', 00H	; `string'
CONST	ENDS
;	COMDAT ??_C@_0BG@HEJMPEDM@?5killed?5his?5teammate?5?$AA@
CONST	SEGMENT
??_C@_0BG@HEJMPEDM@?5killed?5his?5teammate?5?$AA@ DB ' killed his teammat'
	DB	'e ', 00H					; `string'
CONST	ENDS
;	COMDAT ??_C@_0N@GAJOKECJ@?5killed?5self?$AA@
CONST	SEGMENT
??_C@_0N@GAJOKECJ@?5killed?5self?$AA@ DB ' killed self', 00H ; `string'
CONST	ENDS
;	COMDAT ??_C@_05CMIAJFAG@?5died?$AA@
CONST	SEGMENT
??_C@_05CMIAJFAG@?5died?$AA@ DB ' died', 00H		; `string'
CONST	ENDS
;	COMDAT ??_C@_07JHMODOJM@d_world?$AA@
CONST	SEGMENT
??_C@_07JHMODOJM@d_world?$AA@ DB 'd_world', 00H		; `string'
CONST	ENDS
;	COMDAT ??_C@_01EEMJAFIK@?6?$AA@
CONST	SEGMENT
??_C@_01EEMJAFIK@?6?$AA@ DB 0aH, 00H			; `string'
CONST	ENDS
;	COMDAT ??_C@_0L@EIFJPPDG@?5killed?5a?5?$AA@
CONST	SEGMENT
??_C@_0L@EIFJPPDG@?5killed?5a?5?$AA@ DB ' killed a ', 00H ; `string'
CONST	ENDS
;	COMDAT ??_C@_0L@DJMPGNEL@d_teammate?$AA@
CONST	SEGMENT
??_C@_0L@DJMPGNEL@d_teammate?$AA@ DB 'd_teammate', 00H	; `string'
CONST	ENDS
;	COMDAT ??_C@_00CNPNBAHC@?$AA@
CONST	SEGMENT
??_C@_00CNPNBAHC@?$AA@ DB 00H				; `string'
CONST	ENDS
;	COMDAT ??_C@_02HCEDAEIK@d_?$AA@
CONST	SEGMENT
??_C@_02HCEDAEIK@d_?$AA@ DB 'd_', 00H			; `string'
CONST	ENDS
;	COMDAT ??_C@_07KMNBGIPL@d_skull?$AA@
CONST	SEGMENT
??_C@_07KMNBGIPL@d_skull?$AA@ DB 'd_skull', 00H		; `string'
CONST	ENDS
;	COMDAT ??_C@_0BF@IGDIMMCO@hud_deathnotice_time?$AA@
CONST	SEGMENT
??_C@_0BF@IGDIMMCO@hud_deathnotice_time?$AA@ DB 'hud_deathnotice_time', 00H ; `string'
CONST	ENDS
;	COMDAT ??_C@_01DHDKHMHF@6?$AA@
CONST	SEGMENT
??_C@_01DHDKHMHF@6?$AA@ DB '6', 00H			; `string'
CONST	ENDS
;	COMDAT ??_C@_08DMGIIAG@DeathMsg?$AA@
CONST	SEGMENT
??_C@_08DMGIIAG@DeathMsg?$AA@ DB 'DeathMsg', 00H	; `string'
CONST	ENDS
; Function compile flags: /Odtp /ZI
; File d:\!diffusion 2020\source code 2022\client-server\client\death.cpp
;	COMDAT ?__MsgFunc_DeathMsg@@YAHPBDHPAX@Z
_TEXT	SEGMENT
_pszName$ = 8						; size = 4
_iSize$ = 12						; size = 4
_pbuf$ = 16						; size = 4
?__MsgFunc_DeathMsg@@YAHPBDHPAX@Z PROC			; __MsgFunc_DeathMsg, COMDAT

; 61   : DECLARE_MESSAGE( m_DeathNotice, DeathMsg );

	push	ebp
	mov	ebp, esp
	sub	esp, 64					; 00000040H
	push	ebx
	push	esi
	push	edi
	mov	eax, DWORD PTR _pbuf$[ebp]
	push	eax
	mov	ecx, DWORD PTR _iSize$[ebp]
	push	ecx
	mov	edx, DWORD PTR _pszName$[ebp]
	push	edx
	mov	ecx, OFFSET ?gHUD@@3VCHud@@A+1372
	call	?MsgFunc_DeathMsg@CHudDeathNotice@@QAEHPBDHPAX@Z ; CHudDeathNotice::MsgFunc_DeathMsg
	pop	edi
	pop	esi
	pop	ebx
	mov	esp, ebp
	pop	ebp
	ret	0
?__MsgFunc_DeathMsg@@YAHPBDHPAX@Z ENDP			; __MsgFunc_DeathMsg
_TEXT	ENDS
; Function compile flags: /Odtp /ZI
; File d:\!diffusion 2020\source code 2022\client-server\client\death.cpp
;	COMDAT ?GetClientColor@@YAPAMH@Z
_TEXT	SEGMENT
tv68 = -68						; size = 4
_clientIndex$ = 8					; size = 4
?GetClientColor@@YAPAMH@Z PROC				; GetClientColor, COMDAT

; 48   : {

	push	ebp
	mov	ebp, esp
	sub	esp, 68					; 00000044H
	push	ebx
	push	esi
	push	edi

; 49   : 	switch( g_PlayerExtraInfo[clientIndex].teamnumber )

	imul	eax, DWORD PTR _clientIndex$[ebp], 26
	movsx	ecx, WORD PTR ?g_PlayerExtraInfo@@3PAUextra_player_info_t@@A[eax+6]
	mov	DWORD PTR tv68[ebp], ecx
	cmp	DWORD PTR tv68[ebp], 4
	ja	SHORT $LN9@GetClientC
	mov	edx, DWORD PTR tv68[ebp]
	jmp	DWORD PTR $LN11@GetClientC[edx*4]
$LN4@GetClientC:

; 50   : 	{
; 51   : 	case 1: return g_ColorBlue;

	mov	eax, OFFSET ?g_ColorBlue@@3PAMA		; g_ColorBlue
	jmp	SHORT $LN1@GetClientC
$LN5@GetClientC:

; 52   : 	case 2: return g_ColorRed;

	mov	eax, OFFSET ?g_ColorRed@@3PAMA		; g_ColorRed
	jmp	SHORT $LN1@GetClientC
$LN6@GetClientC:

; 53   : 	case 3: return g_ColorYellow;

	mov	eax, OFFSET ?g_ColorYellow@@3PAMA	; g_ColorYellow
	jmp	SHORT $LN1@GetClientC
$LN7@GetClientC:

; 54   : 	case 4: return g_ColorGreen;

	mov	eax, OFFSET ?g_ColorGreen@@3PAMA	; g_ColorGreen
	jmp	SHORT $LN1@GetClientC
$LN8@GetClientC:

; 55   : 	case 0: return g_ColorYellow;

	mov	eax, OFFSET ?g_ColorYellow@@3PAMA	; g_ColorYellow
	jmp	SHORT $LN1@GetClientC
$LN9@GetClientC:

; 56   : 	default: return g_ColorGrey;

	mov	eax, OFFSET ?g_ColorGrey@@3PAMA		; g_ColorGrey
	jmp	SHORT $LN1@GetClientC

; 57   : 	}
; 58   : 	return NULL;

	xor	eax, eax
$LN1@GetClientC:

; 59   : }

	pop	edi
	pop	esi
	pop	ebx
	mov	esp, ebp
	pop	ebp
	ret	0
	npad	2
$LN11@GetClientC:
	DD	$LN8@GetClientC
	DD	$LN4@GetClientC
	DD	$LN5@GetClientC
	DD	$LN6@GetClientC
	DD	$LN7@GetClientC
?GetClientColor@@YAPAMH@Z ENDP				; GetClientColor
_TEXT	ENDS
; Function compile flags: /Odtp /ZI
; File d:\!diffusion 2020\source code 2022\client-server\client\utils.h
;	COMDAT ?ConsoleStringLen@@YAHPBD@Z
_TEXT	SEGMENT
__height$ = -8						; size = 4
__width$ = -4						; size = 4
_string$ = 8						; size = 4
?ConsoleStringLen@@YAHPBD@Z PROC			; ConsoleStringLen, COMDAT

; 87   : {

	push	ebp
	mov	ebp, esp
	sub	esp, 72					; 00000048H
	push	ebx
	push	esi
	push	edi

; 88   : 	int _width, _height;
; 89   : 	GetConsoleStringSize( string, &_width, &_height );

	lea	eax, DWORD PTR __height$[ebp]
	push	eax
	lea	ecx, DWORD PTR __width$[ebp]
	push	ecx
	mov	edx, DWORD PTR _string$[ebp]
	push	edx
	call	DWORD PTR ?gEngfuncs@@3Ucl_enginefuncs_s@@A+116
	add	esp, 12					; 0000000cH

; 90   : 	return _width;

	mov	eax, DWORD PTR __width$[ebp]

; 91   : }

	pop	edi
	pop	esi
	pop	ebx
	mov	esp, ebp
	pop	ebp
	ret	0
?ConsoleStringLen@@YAHPBD@Z ENDP			; ConsoleStringLen
_TEXT	ENDS
; Function compile flags: /Odtp /ZI
; File d:\!diffusion 2020\source code 2022\client-server\client\hud.h
;	COMDAT ?GetSpriteRect@CHud@@QAEAAUwrect_s@@H@Z
_TEXT	SEGMENT
_this$ = -4						; size = 4
_index$ = 8						; size = 4
?GetSpriteRect@CHud@@QAEAAUwrect_s@@H@Z PROC		; CHud::GetSpriteRect, COMDAT
; _this$ = ecx

; 952  : 	wrect_t& GetSpriteRect( int index ) { return m_rgrcRects[index]; }

	push	ebp
	mov	ebp, esp
	sub	esp, 68					; 00000044H
	push	ebx
	push	esi
	push	edi
	mov	DWORD PTR _this$[ebp], ecx
	mov	eax, DWORD PTR _index$[ebp]
	shl	eax, 4
	mov	ecx, DWORD PTR _this$[ebp]
	add	eax, DWORD PTR [ecx+232]
	pop	edi
	pop	esi
	pop	ebx
	mov	esp, ebp
	pop	ebp
	ret	4
?GetSpriteRect@CHud@@QAEAAUwrect_s@@H@Z ENDP		; CHud::GetSpriteRect
_TEXT	ENDS
; Function compile flags: /Odtp /ZI
; File d:\!diffusion 2020\source code 2022\client-server\client\hud.h
;	COMDAT ?GetSprite@CHud@@QAEHH@Z
_TEXT	SEGMENT
tv68 = -72						; size = 4
_this$ = -4						; size = 4
_index$ = 8						; size = 4
?GetSprite@CHud@@QAEHH@Z PROC				; CHud::GetSprite, COMDAT
; _this$ = ecx

; 951  : 	SpriteHandle GetSprite( int index ) { return (index < 0) ? 0 : m_rghSprites[index]; }

	push	ebp
	mov	ebp, esp
	sub	esp, 72					; 00000048H
	push	ebx
	push	esi
	push	edi
	mov	DWORD PTR _this$[ebp], ecx
	cmp	DWORD PTR _index$[ebp], 0
	jge	SHORT $LN3@GetSprite
	mov	DWORD PTR tv68[ebp], 0
	jmp	SHORT $LN4@GetSprite
$LN3@GetSprite:
	mov	eax, DWORD PTR _this$[ebp]
	mov	ecx, DWORD PTR [eax+228]
	mov	edx, DWORD PTR _index$[ebp]
	mov	eax, DWORD PTR [ecx+edx*4]
	mov	DWORD PTR tv68[ebp], eax
$LN4@GetSprite:
	mov	eax, DWORD PTR tv68[ebp]
	pop	edi
	pop	esi
	pop	ebx
	mov	esp, ebp
	pop	ebp
	ret	4
?GetSprite@CHud@@QAEHH@Z ENDP				; CHud::GetSprite
_TEXT	ENDS
; Function compile flags: /Odtp /ZI
; File d:\!diffusion 2020\source code 2022\client-server\client\death.cpp
;	COMDAT ?MsgFunc_DeathMsg@CHudDeathNotice@@QAEHPBDHPAX@Z
_TEXT	SEGMENT
_spr$ = -64						; size = 4
_victim_name$ = -60					; size = 4
_killer_name$ = -56					; size = 4
_i$ = -52						; size = 4
_killedwith$ = -48					; size = 32
_victim$ = -16						; size = 4
_killer$ = -12						; size = 4
_this$ = -8						; size = 4
__$ArrayPad$ = -4					; size = 4
_pszName$ = 8						; size = 4
_iSize$ = 12						; size = 4
_pbuf$ = 16						; size = 4
?MsgFunc_DeathMsg@CHudDeathNotice@@QAEHPBDHPAX@Z PROC	; CHudDeathNotice::MsgFunc_DeathMsg, COMDAT
; _this$ = ecx

; 147  : {

	push	ebp
	mov	ebp, esp
	sub	esp, 128				; 00000080H
	mov	eax, DWORD PTR ___security_cookie
	xor	eax, ebp
	mov	DWORD PTR __$ArrayPad$[ebp], eax
	push	ebx
	push	esi
	push	edi
	mov	DWORD PTR _this$[ebp], ecx

; 148  : 	m_iFlags |= HUD_ACTIVE;

	mov	eax, DWORD PTR _this$[ebp]
	mov	ecx, DWORD PTR [eax+4]
	or	ecx, 1
	mov	edx, DWORD PTR _this$[ebp]
	mov	DWORD PTR [edx+4], ecx

; 149  : 
; 150  : 	BEGIN_READ( pszName, pbuf, iSize );

	mov	eax, DWORD PTR _iSize$[ebp]
	push	eax
	mov	ecx, DWORD PTR _pbuf$[ebp]
	push	ecx
	mov	edx, DWORD PTR _pszName$[ebp]
	push	edx
	call	?BEGIN_READ@@YAXPBDPAXH@Z		; BEGIN_READ
	add	esp, 12					; 0000000cH

; 151  : 
; 152  : 	int killer = READ_BYTE();

	call	?READ_BYTE@@YAHXZ			; READ_BYTE
	mov	DWORD PTR _killer$[ebp], eax

; 153  : 	int victim = READ_BYTE();

	call	?READ_BYTE@@YAHXZ			; READ_BYTE
	mov	DWORD PTR _victim$[ebp], eax

; 154  : 
; 155  : 	char killedwith[32];
; 156  : 
; 157  : 	Q_strcpy( killedwith, "d_" );

	push	99999					; 0001869fH
	push	OFFSET ??_C@_02HCEDAEIK@d_?$AA@
	lea	eax, DWORD PTR _killedwith$[ebp]
	push	eax
	call	?Q_strncpy@@YAIPADPBDI@Z		; Q_strncpy
	add	esp, 12					; 0000000cH

; 158  : 	Q_strncat( killedwith, READ_STRING(), 32 );

	push	32					; 00000020H
	call	?READ_STRING@@YAPADXZ			; READ_STRING
	push	eax
	lea	eax, DWORD PTR _killedwith$[ebp]
	push	eax
	call	?Q_strncat@@YAIPADPBDI@Z		; Q_strncat
	add	esp, 12					; 0000000cH

; 159  : 
; 160  : 	gHUD.m_Scoreboard.DeathMsg( killer, victim );

	mov	eax, DWORD PTR _victim$[ebp]
	push	eax
	mov	ecx, DWORD PTR _killer$[ebp]
	push	ecx
	mov	ecx, OFFSET ?gHUD@@3VCHud@@A+772
	call	?DeathMsg@CHudScoreboard@@QAEXHH@Z	; CHudScoreboard::DeathMsg

; 161  : 
; 162  : 	int i;
; 163  : 	for( i = 0; i < MAX_DEATHNOTICES; i++ )

	mov	DWORD PTR _i$[ebp], 0
	jmp	SHORT $LN4@MsgFunc_De
$LN2@MsgFunc_De:
	mov	eax, DWORD PTR _i$[ebp]
	add	eax, 1
	mov	DWORD PTR _i$[ebp], eax
$LN4@MsgFunc_De:
	cmp	DWORD PTR _i$[ebp], 4
	jge	SHORT $LN3@MsgFunc_De

; 164  : 	{
; 165  : 		if( rgDeathNoticeList[i].iId == 0 )

	imul	eax, DWORD PTR _i$[ebp], 156
	cmp	DWORD PTR ?rgDeathNoticeList@@3PAUDeathNoticeItem@@A[eax+128], 0
	jne	SHORT $LN5@MsgFunc_De

; 166  : 			break;

	jmp	SHORT $LN3@MsgFunc_De
$LN5@MsgFunc_De:

; 167  : 	}

	jmp	SHORT $LN2@MsgFunc_De
$LN3@MsgFunc_De:

; 168  : 
; 169  : 	if( i == MAX_DEATHNOTICES )

	cmp	DWORD PTR _i$[ebp], 4
	jne	SHORT $LN6@MsgFunc_De

; 170  : 	{
; 171  : 		// move the rest of the list forward to make room for this item
; 172  : 		memmove( rgDeathNoticeList, rgDeathNoticeList + 1, sizeof( DeathNoticeItem ) * MAX_DEATHNOTICES );

	push	624					; 00000270H
	push	OFFSET ?rgDeathNoticeList@@3PAUDeathNoticeItem@@A+156
	push	OFFSET ?rgDeathNoticeList@@3PAUDeathNoticeItem@@A
	call	_memmove
	add	esp, 12					; 0000000cH

; 173  : 		i = MAX_DEATHNOTICES - 1;

	mov	DWORD PTR _i$[ebp], 3
$LN6@MsgFunc_De:

; 174  : 	}
; 175  : 
; 176  : 	gHUD.m_Scoreboard.GetAllPlayersInfo();

	mov	ecx, OFFSET ?gHUD@@3VCHud@@A+772
	call	?GetAllPlayersInfo@CHudScoreboard@@QAEXXZ ; CHudScoreboard::GetAllPlayersInfo

; 177  : 
; 178  : 	// Get the Killer's name
; 179  : 	char *killer_name = g_PlayerInfoList[killer].name;

	imul	eax, DWORD PTR _killer$[ebp], 20
	mov	ecx, DWORD PTR ?g_PlayerInfoList@@3PAUhud_player_info_s@@A[eax]
	mov	DWORD PTR _killer_name$[ebp], ecx

; 180  : 
; 181  : 	if( !killer_name )

	cmp	DWORD PTR _killer_name$[ebp], 0
	jne	SHORT $LN7@MsgFunc_De

; 182  : 	{
; 183  : 		killer_name = "";

	mov	DWORD PTR _killer_name$[ebp], OFFSET ??_C@_00CNPNBAHC@?$AA@

; 184  : 		rgDeathNoticeList[i].szKiller[0] = 0;

	imul	eax, DWORD PTR _i$[ebp], 156
	mov	ecx, 1
	imul	edx, ecx, 0
	mov	BYTE PTR ?rgDeathNoticeList@@3PAUDeathNoticeItem@@A[eax+edx], 0

; 185  : 	}
; 186  : 	else

	jmp	SHORT $LN8@MsgFunc_De
$LN7@MsgFunc_De:

; 187  : 	{
; 188  : 		rgDeathNoticeList[i].KillerColor = GetClientColor( killer );

	mov	eax, DWORD PTR _killer$[ebp]
	push	eax
	call	?GetClientColor@@YAPAMH@Z		; GetClientColor
	add	esp, 4
	imul	ecx, DWORD PTR _i$[ebp], 156
	mov	DWORD PTR ?rgDeathNoticeList@@3PAUDeathNoticeItem@@A[ecx+148], eax

; 189  : 		Q_strncpy( rgDeathNoticeList[i].szKiller, killer_name, MAX_PLAYER_NAME_LENGTH );

	push	32					; 00000020H
	mov	eax, DWORD PTR _killer_name$[ebp]
	push	eax
	imul	ecx, DWORD PTR _i$[ebp], 156
	add	ecx, OFFSET ?rgDeathNoticeList@@3PAUDeathNoticeItem@@A
	push	ecx
	call	?Q_strncpy@@YAIPADPBDI@Z		; Q_strncpy
	add	esp, 12					; 0000000cH

; 190  : 		rgDeathNoticeList[i].szKiller[MAX_PLAYER_NAME_LENGTH-1] = 0;

	imul	eax, DWORD PTR _i$[ebp], 156
	mov	ecx, 1
	imul	edx, ecx, 31
	mov	BYTE PTR ?rgDeathNoticeList@@3PAUDeathNoticeItem@@A[eax+edx], 0
$LN8@MsgFunc_De:

; 191  : 	}
; 192  : 
; 193  : 	// Get the Victim's name
; 194  : 	char *victim_name = NULL;

	mov	DWORD PTR _victim_name$[ebp], 0

; 195  : 
; 196  : 	// If victim is -1, the killer killed a specific, non-player object (like a sentrygun)
; 197  : 	if((( char )victim) != -1 )

	movsx	eax, BYTE PTR _victim$[ebp]
	cmp	eax, -1
	je	SHORT $LN9@MsgFunc_De

; 198  : 		victim_name = g_PlayerInfoList[victim].name;

	imul	eax, DWORD PTR _victim$[ebp], 20
	mov	ecx, DWORD PTR ?g_PlayerInfoList@@3PAUhud_player_info_s@@A[eax]
	mov	DWORD PTR _victim_name$[ebp], ecx
$LN9@MsgFunc_De:

; 199  : 
; 200  : 	if( !victim_name )

	cmp	DWORD PTR _victim_name$[ebp], 0
	jne	SHORT $LN10@MsgFunc_De

; 201  : 	{
; 202  : 		victim_name = "";

	mov	DWORD PTR _victim_name$[ebp], OFFSET ??_C@_00CNPNBAHC@?$AA@

; 203  : 		rgDeathNoticeList[i].szVictim[0] = 0;

	imul	eax, DWORD PTR _i$[ebp], 156
	mov	ecx, 1
	imul	edx, ecx, 0
	mov	BYTE PTR ?rgDeathNoticeList@@3PAUDeathNoticeItem@@A[eax+edx+64], 0

; 204  : 	}
; 205  : 	else

	jmp	SHORT $LN11@MsgFunc_De
$LN10@MsgFunc_De:

; 206  : 	{
; 207  : 		rgDeathNoticeList[i].VictimColor = GetClientColor( victim );

	mov	eax, DWORD PTR _victim$[ebp]
	push	eax
	call	?GetClientColor@@YAPAMH@Z		; GetClientColor
	add	esp, 4
	imul	ecx, DWORD PTR _i$[ebp], 156
	mov	DWORD PTR ?rgDeathNoticeList@@3PAUDeathNoticeItem@@A[ecx+152], eax

; 208  : 		Q_strncpy( rgDeathNoticeList[i].szVictim, victim_name, MAX_PLAYER_NAME_LENGTH );

	push	32					; 00000020H
	mov	eax, DWORD PTR _victim_name$[ebp]
	push	eax
	imul	ecx, DWORD PTR _i$[ebp], 156
	add	ecx, OFFSET ?rgDeathNoticeList@@3PAUDeathNoticeItem@@A+64
	push	ecx
	call	?Q_strncpy@@YAIPADPBDI@Z		; Q_strncpy
	add	esp, 12					; 0000000cH

; 209  : 		rgDeathNoticeList[i].szVictim[MAX_PLAYER_NAME_LENGTH-1] = 0;

	imul	eax, DWORD PTR _i$[ebp], 156
	mov	ecx, 1
	imul	edx, ecx, 31
	mov	BYTE PTR ?rgDeathNoticeList@@3PAUDeathNoticeItem@@A[eax+edx+64], 0
$LN11@MsgFunc_De:

; 210  : 	}
; 211  : 
; 212  : 	// Is it a non-player object kill?
; 213  : 	if( ((char)victim) == -1 )

	movsx	eax, BYTE PTR _victim$[ebp]
	cmp	eax, -1
	jne	SHORT $LN12@MsgFunc_De

; 214  : 	{
; 215  : 		rgDeathNoticeList[i].iNonPlayerKill = TRUE;

	imul	eax, DWORD PTR _i$[ebp], 156
	mov	DWORD PTR ?rgDeathNoticeList@@3PAUDeathNoticeItem@@A[eax+140], 1

; 216  : 
; 217  : 		// Store the object's name in the Victim slot (skip the d_ bit)
; 218  : 		Q_strcpy( rgDeathNoticeList[i].szVictim, killedwith+2 );

	push	99999					; 0001869fH
	lea	eax, DWORD PTR _killedwith$[ebp+2]
	push	eax
	imul	ecx, DWORD PTR _i$[ebp], 156
	add	ecx, OFFSET ?rgDeathNoticeList@@3PAUDeathNoticeItem@@A+64
	push	ecx
	call	?Q_strncpy@@YAIPADPBDI@Z		; Q_strncpy
	add	esp, 12					; 0000000cH

; 219  : 	}
; 220  : 	else

	jmp	SHORT $LN16@MsgFunc_De
$LN12@MsgFunc_De:

; 221  : 	{
; 222  : 		if( killer == victim || killer == 0 )

	mov	eax, DWORD PTR _killer$[ebp]
	cmp	eax, DWORD PTR _victim$[ebp]
	je	SHORT $LN15@MsgFunc_De
	cmp	DWORD PTR _killer$[ebp], 0
	jne	SHORT $LN14@MsgFunc_De
$LN15@MsgFunc_De:

; 223  : 			rgDeathNoticeList[i].iSuicide = TRUE;

	imul	eax, DWORD PTR _i$[ebp], 156
	mov	DWORD PTR ?rgDeathNoticeList@@3PAUDeathNoticeItem@@A[eax+132], 1
$LN14@MsgFunc_De:

; 224  : 
; 225  : 		if( !Q_strcmp( killedwith, "d_teammate" ))

	push	99999					; 0001869fH
	push	OFFSET ??_C@_0L@DJMPGNEL@d_teammate?$AA@
	lea	eax, DWORD PTR _killedwith$[ebp]
	push	eax
	call	?Q_strncmp@@YAHPBD0H@Z			; Q_strncmp
	add	esp, 12					; 0000000cH
	test	eax, eax
	jne	SHORT $LN16@MsgFunc_De

; 226  : 			rgDeathNoticeList[i].iTeamKill = TRUE;

	imul	eax, DWORD PTR _i$[ebp], 156
	mov	DWORD PTR ?rgDeathNoticeList@@3PAUDeathNoticeItem@@A[eax+136], 1
$LN16@MsgFunc_De:

; 227  : 	}
; 228  : 
; 229  : 	// Find the sprite in the list
; 230  : 	int spr = gHUD.GetSpriteIndex( killedwith );

	lea	eax, DWORD PTR _killedwith$[ebp]
	push	eax
	mov	ecx, OFFSET ?gHUD@@3VCHud@@A		; gHUD
	call	?GetSpriteIndex@CHud@@QAEHPBD@Z		; CHud::GetSpriteIndex
	mov	DWORD PTR _spr$[ebp], eax

; 231  : 
; 232  : 	rgDeathNoticeList[i].iId = spr;

	imul	eax, DWORD PTR _i$[ebp], 156
	mov	ecx, DWORD PTR _spr$[ebp]
	mov	DWORD PTR ?rgDeathNoticeList@@3PAUDeathNoticeItem@@A[eax+128], ecx

; 233  : 
; 234  : 	DEATHNOTICE_DISPLAY_TIME = CVAR_GET_FLOAT( "hud_deathnotice_time" );

	push	OFFSET ??_C@_0BF@IGDIMMCO@hud_deathnotice_time?$AA@
	call	DWORD PTR ?gEngfuncs@@3Ucl_enginefuncs_s@@A+60
	add	esp, 4
	call	__ftol2_sse
	mov	DWORD PTR ?DEATHNOTICE_DISPLAY_TIME@@3HA, eax

; 235  : 	rgDeathNoticeList[i].flDisplayTime = gHUD.m_flTime + DEATHNOTICE_DISPLAY_TIME;

	cvtsi2ss xmm0, DWORD PTR ?DEATHNOTICE_DISPLAY_TIME@@3HA
	addss	xmm0, DWORD PTR ?gHUD@@3VCHud@@A+32
	imul	eax, DWORD PTR _i$[ebp], 156
	movss	DWORD PTR ?rgDeathNoticeList@@3PAUDeathNoticeItem@@A[eax+144], xmm0

; 236  : 
; 237  : 	if( rgDeathNoticeList[i].iNonPlayerKill )

	imul	eax, DWORD PTR _i$[ebp], 156
	cmp	DWORD PTR ?rgDeathNoticeList@@3PAUDeathNoticeItem@@A[eax+140], 0
	je	SHORT $LN17@MsgFunc_De

; 238  : 	{
; 239  : 		ConsolePrint( rgDeathNoticeList[i].szKiller );

	imul	eax, DWORD PTR _i$[ebp], 156
	add	eax, OFFSET ?rgDeathNoticeList@@3PAUDeathNoticeItem@@A
	push	eax
	call	DWORD PTR ?gEngfuncs@@3Ucl_enginefuncs_s@@A+120
	add	esp, 4

; 240  : 		ConsolePrint( " killed a " );

	push	OFFSET ??_C@_0L@EIFJPPDG@?5killed?5a?5?$AA@
	call	DWORD PTR ?gEngfuncs@@3Ucl_enginefuncs_s@@A+120
	add	esp, 4

; 241  : 		ConsolePrint( rgDeathNoticeList[i].szVictim );

	imul	eax, DWORD PTR _i$[ebp], 156
	add	eax, OFFSET ?rgDeathNoticeList@@3PAUDeathNoticeItem@@A+64
	push	eax
	call	DWORD PTR ?gEngfuncs@@3Ucl_enginefuncs_s@@A+120
	add	esp, 4

; 242  : 		ConsolePrint( "\n" );

	push	OFFSET ??_C@_01EEMJAFIK@?6?$AA@
	call	DWORD PTR ?gEngfuncs@@3Ucl_enginefuncs_s@@A+120
	add	esp, 4

; 243  : 	}
; 244  : 	else

	jmp	$LN18@MsgFunc_De
$LN17@MsgFunc_De:

; 245  : 	{
; 246  : 		// record the death notice in the console
; 247  : 		if( rgDeathNoticeList[i].iSuicide )

	imul	eax, DWORD PTR _i$[ebp], 156
	cmp	DWORD PTR ?rgDeathNoticeList@@3PAUDeathNoticeItem@@A[eax+132], 0
	je	SHORT $LN19@MsgFunc_De

; 248  : 		{
; 249  : 			ConsolePrint( rgDeathNoticeList[i].szVictim );

	imul	eax, DWORD PTR _i$[ebp], 156
	add	eax, OFFSET ?rgDeathNoticeList@@3PAUDeathNoticeItem@@A+64
	push	eax
	call	DWORD PTR ?gEngfuncs@@3Ucl_enginefuncs_s@@A+120
	add	esp, 4

; 250  : 
; 251  : 			if( !Q_strcmp( killedwith, "d_world" ))

	push	99999					; 0001869fH
	push	OFFSET ??_C@_07JHMODOJM@d_world?$AA@
	lea	eax, DWORD PTR _killedwith$[ebp]
	push	eax
	call	?Q_strncmp@@YAHPBD0H@Z			; Q_strncmp
	add	esp, 12					; 0000000cH
	test	eax, eax
	jne	SHORT $LN21@MsgFunc_De

; 252  : 			{
; 253  : 				ConsolePrint( " died" );

	push	OFFSET ??_C@_05CMIAJFAG@?5died?$AA@
	call	DWORD PTR ?gEngfuncs@@3Ucl_enginefuncs_s@@A+120
	add	esp, 4

; 254  : 			}
; 255  : 			else

	jmp	SHORT $LN22@MsgFunc_De
$LN21@MsgFunc_De:

; 256  : 			{
; 257  : 				ConsolePrint( " killed self" );

	push	OFFSET ??_C@_0N@GAJOKECJ@?5killed?5self?$AA@
	call	DWORD PTR ?gEngfuncs@@3Ucl_enginefuncs_s@@A+120
	add	esp, 4
$LN22@MsgFunc_De:

; 258  : 			}

	jmp	$LN24@MsgFunc_De
$LN19@MsgFunc_De:

; 259  : 		}
; 260  : 		else if( rgDeathNoticeList[i].iTeamKill )

	imul	eax, DWORD PTR _i$[ebp], 156
	cmp	DWORD PTR ?rgDeathNoticeList@@3PAUDeathNoticeItem@@A[eax+136], 0
	je	SHORT $LN23@MsgFunc_De

; 261  : 		{
; 262  : 			ConsolePrint( rgDeathNoticeList[i].szKiller );

	imul	eax, DWORD PTR _i$[ebp], 156
	add	eax, OFFSET ?rgDeathNoticeList@@3PAUDeathNoticeItem@@A
	push	eax
	call	DWORD PTR ?gEngfuncs@@3Ucl_enginefuncs_s@@A+120
	add	esp, 4

; 263  : 			ConsolePrint( " killed his teammate " );

	push	OFFSET ??_C@_0BG@HEJMPEDM@?5killed?5his?5teammate?5?$AA@
	call	DWORD PTR ?gEngfuncs@@3Ucl_enginefuncs_s@@A+120
	add	esp, 4

; 264  : 			ConsolePrint( rgDeathNoticeList[i].szVictim );

	imul	eax, DWORD PTR _i$[ebp], 156
	add	eax, OFFSET ?rgDeathNoticeList@@3PAUDeathNoticeItem@@A+64
	push	eax
	call	DWORD PTR ?gEngfuncs@@3Ucl_enginefuncs_s@@A+120
	add	esp, 4

; 265  : 		}
; 266  : 		else

	jmp	SHORT $LN24@MsgFunc_De
$LN23@MsgFunc_De:

; 267  : 		{
; 268  : 			ConsolePrint( rgDeathNoticeList[i].szKiller );

	imul	eax, DWORD PTR _i$[ebp], 156
	add	eax, OFFSET ?rgDeathNoticeList@@3PAUDeathNoticeItem@@A
	push	eax
	call	DWORD PTR ?gEngfuncs@@3Ucl_enginefuncs_s@@A+120
	add	esp, 4

; 269  : 			ConsolePrint( " killed " );

	push	OFFSET ??_C@_08PNPOMJCL@?5killed?5?$AA@
	call	DWORD PTR ?gEngfuncs@@3Ucl_enginefuncs_s@@A+120
	add	esp, 4

; 270  : 			ConsolePrint( rgDeathNoticeList[i].szVictim );

	imul	eax, DWORD PTR _i$[ebp], 156
	add	eax, OFFSET ?rgDeathNoticeList@@3PAUDeathNoticeItem@@A+64
	push	eax
	call	DWORD PTR ?gEngfuncs@@3Ucl_enginefuncs_s@@A+120
	add	esp, 4
$LN24@MsgFunc_De:

; 271  : 		}
; 272  : 
; 273  : 		if( killedwith && *killedwith && (*killedwith > 13 ) && Q_strcmp( killedwith, "d_world" ) && !rgDeathNoticeList[i].iTeamKill )

	lea	eax, DWORD PTR _killedwith$[ebp]
	test	eax, eax
	je	$LN25@MsgFunc_De
	mov	eax, 1
	imul	ecx, eax, 0
	movsx	edx, BYTE PTR _killedwith$[ebp+ecx]
	test	edx, edx
	je	$LN25@MsgFunc_De
	mov	eax, 1
	imul	ecx, eax, 0
	movsx	edx, BYTE PTR _killedwith$[ebp+ecx]
	cmp	edx, 13					; 0000000dH
	jle	$LN25@MsgFunc_De
	push	99999					; 0001869fH
	push	OFFSET ??_C@_07JHMODOJM@d_world?$AA@
	lea	eax, DWORD PTR _killedwith$[ebp]
	push	eax
	call	?Q_strncmp@@YAHPBD0H@Z			; Q_strncmp
	add	esp, 12					; 0000000cH
	test	eax, eax
	je	$LN25@MsgFunc_De
	imul	eax, DWORD PTR _i$[ebp], 156
	cmp	DWORD PTR ?rgDeathNoticeList@@3PAUDeathNoticeItem@@A[eax+136], 0
	jne	SHORT $LN25@MsgFunc_De

; 274  : 		{
; 275  : 			ConsolePrint( " with " );

	push	OFFSET ??_C@_06BIDGLIKJ@?5with?5?$AA@
	call	DWORD PTR ?gEngfuncs@@3Ucl_enginefuncs_s@@A+120
	add	esp, 4

; 276  : 
; 277  : 			// replace the code names with the 'real' names
; 278  : 			if( !Q_strcmp( killedwith+2, "egon" ))

	push	99999					; 0001869fH
	push	OFFSET ??_C@_04HGALPFFB@egon?$AA@
	lea	eax, DWORD PTR _killedwith$[ebp+2]
	push	eax
	call	?Q_strncmp@@YAHPBD0H@Z			; Q_strncmp
	add	esp, 12					; 0000000cH
	test	eax, eax
	jne	SHORT $LN26@MsgFunc_De

; 279  : 				Q_strcpy( killedwith, "d_gluon gun" );

	push	99999					; 0001869fH
	push	OFFSET ??_C@_0M@KIJAOLEC@d_gluon?5gun?$AA@
	lea	eax, DWORD PTR _killedwith$[ebp]
	push	eax
	call	?Q_strncpy@@YAIPADPBDI@Z		; Q_strncpy
	add	esp, 12					; 0000000cH
$LN26@MsgFunc_De:

; 280  : 			if( !Q_strcmp( killedwith+2, "gauss" ))

	push	99999					; 0001869fH
	push	OFFSET ??_C@_05PBNKJDNB@gauss?$AA@
	lea	eax, DWORD PTR _killedwith$[ebp+2]
	push	eax
	call	?Q_strncmp@@YAHPBD0H@Z			; Q_strncmp
	add	esp, 12					; 0000000cH
	test	eax, eax
	jne	SHORT $LN27@MsgFunc_De

; 281  : 				Q_strcpy( killedwith, "d_tau cannon" );

	push	99999					; 0001869fH
	push	OFFSET ??_C@_0N@HPEKGPJE@d_tau?5cannon?$AA@
	lea	eax, DWORD PTR _killedwith$[ebp]
	push	eax
	call	?Q_strncpy@@YAIPADPBDI@Z		; Q_strncpy
	add	esp, 12					; 0000000cH
$LN27@MsgFunc_De:

; 282  : 
; 283  : 			ConsolePrint( killedwith+2 ); // skip over the "d_" part

	lea	eax, DWORD PTR _killedwith$[ebp+2]
	push	eax
	call	DWORD PTR ?gEngfuncs@@3Ucl_enginefuncs_s@@A+120
	add	esp, 4
$LN25@MsgFunc_De:

; 284  : 		}
; 285  : 		ConsolePrint( "\n" );

	push	OFFSET ??_C@_01EEMJAFIK@?6?$AA@
	call	DWORD PTR ?gEngfuncs@@3Ucl_enginefuncs_s@@A+120
	add	esp, 4
$LN18@MsgFunc_De:

; 286  : 	}
; 287  : 
; 288  : 	END_READ();

	call	?END_READ@@YAXXZ			; END_READ

; 289  : 
; 290  : 	return 1;

	mov	eax, 1

; 291  : }

	pop	edi
	pop	esi
	pop	ebx
	mov	ecx, DWORD PTR __$ArrayPad$[ebp]
	xor	ecx, ebp
	call	@__security_check_cookie@4
	mov	esp, ebp
	pop	ebp
	ret	12					; 0000000cH
?MsgFunc_DeathMsg@CHudDeathNotice@@QAEHPBDHPAX@Z ENDP	; CHudDeathNotice::MsgFunc_DeathMsg
_TEXT	ENDS
; Function compile flags: /Odtp /ZI
; File d:\!diffusion 2020\source code 2022\client-server\client\death.cpp
;	COMDAT ?Draw@CHudDeathNotice@@UAEHM@Z
_TEXT	SEGMENT
tv142 = -100						; size = 4
tv131 = -100						; size = 4
_id$1 = -32						; size = 4
_i$2 = -28						; size = 4
_b$ = -24						; size = 4
_g$ = -20						; size = 4
_r$ = -16						; size = 4
_y$ = -12						; size = 4
_x$ = -8						; size = 4
_this$ = -4						; size = 4
_flTime$ = 8						; size = 4
?Draw@CHudDeathNotice@@UAEHM@Z PROC			; CHudDeathNotice::Draw, COMDAT
; _this$ = ecx

; 87   : {

	push	ebp
	mov	ebp, esp
	sub	esp, 100				; 00000064H
	push	ebx
	push	esi
	push	edi
	mov	DWORD PTR _this$[ebp], ecx

; 88   : 	int x, y, r, g, b;
; 89   : 
; 90   : 	for( int i = 0; i < MAX_DEATHNOTICES; i++ )

	mov	DWORD PTR _i$2[ebp], 0
	jmp	SHORT $LN4@Draw
$LN2@Draw:
	mov	eax, DWORD PTR _i$2[ebp]
	add	eax, 1
	mov	DWORD PTR _i$2[ebp], eax
$LN4@Draw:
	cmp	DWORD PTR _i$2[ebp], 4
	jge	$LN3@Draw

; 91   : 	{
; 92   : 		if( rgDeathNoticeList[i].iId == 0 )

	imul	eax, DWORD PTR _i$2[ebp], 156
	cmp	DWORD PTR ?rgDeathNoticeList@@3PAUDeathNoticeItem@@A[eax+128], 0
	jne	SHORT $LN5@Draw

; 93   : 			break; // we've gone through them all

	jmp	$LN3@Draw
$LN5@Draw:

; 94   : 
; 95   : 		if( rgDeathNoticeList[i].flDisplayTime < flTime )

	imul	eax, DWORD PTR _i$2[ebp], 156
	movss	xmm0, DWORD PTR _flTime$[ebp]
	comiss	xmm0, DWORD PTR ?rgDeathNoticeList@@3PAUDeathNoticeItem@@A[eax+144]
	jbe	SHORT $LN6@Draw

; 96   : 		{
; 97   : 			// display time has expired
; 98   : 			// remove the current item from the list
; 99   : 			memmove( &rgDeathNoticeList[i], &rgDeathNoticeList[i+1], sizeof( DeathNoticeItem ) * ( MAX_DEATHNOTICES - i ));

	mov	eax, 4
	sub	eax, DWORD PTR _i$2[ebp]
	imul	ecx, eax, 156
	push	ecx
	mov	edx, DWORD PTR _i$2[ebp]
	add	edx, 1
	imul	eax, edx, 156
	add	eax, OFFSET ?rgDeathNoticeList@@3PAUDeathNoticeItem@@A
	push	eax
	imul	ecx, DWORD PTR _i$2[ebp], 156
	add	ecx, OFFSET ?rgDeathNoticeList@@3PAUDeathNoticeItem@@A
	push	ecx
	call	_memmove
	add	esp, 12					; 0000000cH

; 100  : 			i--;  // continue on the next item;  stop the counter getting incremented

	mov	eax, DWORD PTR _i$2[ebp]
	sub	eax, 1
	mov	DWORD PTR _i$2[ebp], eax

; 101  : 			continue;

	jmp	SHORT $LN2@Draw
$LN6@Draw:

; 102  : 		}
; 103  : 
; 104  : 		rgDeathNoticeList[i].flDisplayTime = min( rgDeathNoticeList[i].flDisplayTime, gHUD.m_flTime + DEATHNOTICE_DISPLAY_TIME );

	imul	eax, DWORD PTR _i$2[ebp], 156
	cvtsi2ss xmm0, DWORD PTR ?DEATHNOTICE_DISPLAY_TIME@@3HA
	addss	xmm0, DWORD PTR ?gHUD@@3VCHud@@A+32
	comiss	xmm0, DWORD PTR ?rgDeathNoticeList@@3PAUDeathNoticeItem@@A[eax+144]
	jbe	SHORT $LN10@Draw
	imul	ecx, DWORD PTR _i$2[ebp], 156
	movss	xmm0, DWORD PTR ?rgDeathNoticeList@@3PAUDeathNoticeItem@@A[ecx+144]
	movss	DWORD PTR tv131[ebp], xmm0
	jmp	SHORT $LN11@Draw
$LN10@Draw:
	cvtsi2ss xmm0, DWORD PTR ?DEATHNOTICE_DISPLAY_TIME@@3HA
	addss	xmm0, DWORD PTR ?gHUD@@3VCHud@@A+32
	movss	DWORD PTR tv131[ebp], xmm0
$LN11@Draw:
	imul	edx, DWORD PTR _i$2[ebp], 156
	movss	xmm0, DWORD PTR tv131[ebp]
	movss	DWORD PTR ?rgDeathNoticeList@@3PAUDeathNoticeItem@@A[edx+144], xmm0

; 105  : 
; 106  : 		// Draw the death notice
; 107  : 		y = DEATHNOTICE_TOP + (20 * i);  //!!!

	imul	eax, DWORD PTR _i$2[ebp], 20
	add	eax, 32					; 00000020H
	mov	DWORD PTR _y$[ebp], eax

; 108  : 
; 109  : 		int id = (rgDeathNoticeList[i].iId == -1) ? m_HUD_d_skull : rgDeathNoticeList[i].iId;

	imul	eax, DWORD PTR _i$2[ebp], 156
	cmp	DWORD PTR ?rgDeathNoticeList@@3PAUDeathNoticeItem@@A[eax+128], -1
	jne	SHORT $LN12@Draw
	mov	ecx, DWORD PTR _this$[ebp]
	mov	edx, DWORD PTR [ecx+8]
	mov	DWORD PTR tv142[ebp], edx
	jmp	SHORT $LN13@Draw
$LN12@Draw:
	imul	eax, DWORD PTR _i$2[ebp], 156
	mov	ecx, DWORD PTR ?rgDeathNoticeList@@3PAUDeathNoticeItem@@A[eax+128]
	mov	DWORD PTR tv142[ebp], ecx
$LN13@Draw:
	mov	edx, DWORD PTR tv142[ebp]
	mov	DWORD PTR _id$1[ebp], edx

; 110  : 		x = ScreenWidth - ConsoleStringLen( rgDeathNoticeList[i].szVictim ) - ( gHUD.GetSpriteRect( id ).right - gHUD.GetSpriteRect( id ).left );

	imul	eax, DWORD PTR _i$2[ebp], 156
	add	eax, OFFSET ?rgDeathNoticeList@@3PAUDeathNoticeItem@@A+64
	push	eax
	call	?ConsoleStringLen@@YAHPBD@Z		; ConsoleStringLen
	add	esp, 4
	mov	esi, DWORD PTR ?gHUD@@3VCHud@@A+8436
	sub	esi, eax
	mov	ecx, DWORD PTR _id$1[ebp]
	push	ecx
	mov	ecx, OFFSET ?gHUD@@3VCHud@@A		; gHUD
	call	?GetSpriteRect@CHud@@QAEAAUwrect_s@@H@Z	; CHud::GetSpriteRect
	mov	edi, eax
	mov	edx, DWORD PTR _id$1[ebp]
	push	edx
	mov	ecx, OFFSET ?gHUD@@3VCHud@@A		; gHUD
	call	?GetSpriteRect@CHud@@QAEAAUwrect_s@@H@Z	; CHud::GetSpriteRect
	mov	ecx, DWORD PTR [edi+4]
	sub	ecx, DWORD PTR [eax]
	sub	esi, ecx
	mov	DWORD PTR _x$[ebp], esi

; 111  : 
; 112  : 		if( !rgDeathNoticeList[i].iSuicide )

	imul	eax, DWORD PTR _i$2[ebp], 156
	cmp	DWORD PTR ?rgDeathNoticeList@@3PAUDeathNoticeItem@@A[eax+132], 0
	jne	SHORT $LN7@Draw

; 113  : 		{
; 114  : 			x -= (5 + ConsoleStringLen( rgDeathNoticeList[i].szKiller ));

	imul	eax, DWORD PTR _i$2[ebp], 156
	add	eax, OFFSET ?rgDeathNoticeList@@3PAUDeathNoticeItem@@A
	push	eax
	call	?ConsoleStringLen@@YAHPBD@Z		; ConsoleStringLen
	add	esp, 4
	add	eax, 5
	mov	ecx, DWORD PTR _x$[ebp]
	sub	ecx, eax
	mov	DWORD PTR _x$[ebp], ecx

; 115  : 
; 116  : 			// Draw killers name
; 117  : 			x = 5 + DrawConsoleString( x, y, rgDeathNoticeList[i].szKiller );

	imul	eax, DWORD PTR _i$2[ebp], 156
	add	eax, OFFSET ?rgDeathNoticeList@@3PAUDeathNoticeItem@@A
	push	eax
	mov	ecx, DWORD PTR _y$[ebp]
	push	ecx
	mov	edx, DWORD PTR _x$[ebp]
	push	edx
	call	DWORD PTR ?gEngfuncs@@3Ucl_enginefuncs_s@@A+108
	add	esp, 12					; 0000000cH
	add	eax, 5
	mov	DWORD PTR _x$[ebp], eax
$LN7@Draw:

; 118  : 		}
; 119  : 
; 120  : 		r = 255;

	mov	DWORD PTR _r$[ebp], 255			; 000000ffH

; 121  : 		g = 80;

	mov	DWORD PTR _g$[ebp], 80			; 00000050H

; 122  : 		b = 0;

	mov	DWORD PTR _b$[ebp], 0

; 123  : 
; 124  : 		if( rgDeathNoticeList[i].iTeamKill )

	imul	eax, DWORD PTR _i$2[ebp], 156
	cmp	DWORD PTR ?rgDeathNoticeList@@3PAUDeathNoticeItem@@A[eax+136], 0
	je	SHORT $LN8@Draw

; 125  : 		{
; 126  : 			// display it in sickly green
; 127  : 			r = 10;

	mov	DWORD PTR _r$[ebp], 10			; 0000000aH

; 128  : 			g = 240;

	mov	DWORD PTR _g$[ebp], 240			; 000000f0H

; 129  : 			b = 10;

	mov	DWORD PTR _b$[ebp], 10			; 0000000aH
$LN8@Draw:

; 130  : 		}
; 131  : 
; 132  : 		// Draw death weapon
; 133  : 		SPR_Set( gHUD.GetSprite( id ), r, g, b );

	mov	eax, DWORD PTR _b$[ebp]
	push	eax
	mov	ecx, DWORD PTR _g$[ebp]
	push	ecx
	mov	edx, DWORD PTR _r$[ebp]
	push	edx
	mov	eax, DWORD PTR _id$1[ebp]
	push	eax
	mov	ecx, OFFSET ?gHUD@@3VCHud@@A		; gHUD
	call	?GetSprite@CHud@@QAEHH@Z		; CHud::GetSprite
	push	eax
	call	DWORD PTR ?gEngfuncs@@3Ucl_enginefuncs_s@@A+16
	add	esp, 16					; 00000010H

; 134  : 		SPR_DrawAdditive( 0, x, y, &gHUD.GetSpriteRect( id ));

	mov	eax, DWORD PTR _id$1[ebp]
	push	eax
	mov	ecx, OFFSET ?gHUD@@3VCHud@@A		; gHUD
	call	?GetSpriteRect@CHud@@QAEAAUwrect_s@@H@Z	; CHud::GetSpriteRect
	push	eax
	mov	ecx, DWORD PTR _y$[ebp]
	push	ecx
	mov	edx, DWORD PTR _x$[ebp]
	push	edx
	push	0
	call	DWORD PTR ?gEngfuncs@@3Ucl_enginefuncs_s@@A+28
	add	esp, 16					; 00000010H

; 135  : 
; 136  : 		x += (gHUD.GetSpriteRect( id ).right - gHUD.GetSpriteRect( id ).left );

	mov	eax, DWORD PTR _id$1[ebp]
	push	eax
	mov	ecx, OFFSET ?gHUD@@3VCHud@@A		; gHUD
	call	?GetSpriteRect@CHud@@QAEAAUwrect_s@@H@Z	; CHud::GetSpriteRect
	mov	esi, eax
	mov	ecx, DWORD PTR _id$1[ebp]
	push	ecx
	mov	ecx, OFFSET ?gHUD@@3VCHud@@A		; gHUD
	call	?GetSpriteRect@CHud@@QAEAAUwrect_s@@H@Z	; CHud::GetSpriteRect
	mov	edx, DWORD PTR [esi+4]
	sub	edx, DWORD PTR [eax]
	add	edx, DWORD PTR _x$[ebp]
	mov	DWORD PTR _x$[ebp], edx

; 137  : 
; 138  : 		// Draw victims name
; 139  : 		x = DrawConsoleString( x, y, rgDeathNoticeList[i].szVictim );

	imul	eax, DWORD PTR _i$2[ebp], 156
	add	eax, OFFSET ?rgDeathNoticeList@@3PAUDeathNoticeItem@@A+64
	push	eax
	mov	ecx, DWORD PTR _y$[ebp]
	push	ecx
	mov	edx, DWORD PTR _x$[ebp]
	push	edx
	call	DWORD PTR ?gEngfuncs@@3Ucl_enginefuncs_s@@A+108
	add	esp, 12					; 0000000cH
	mov	DWORD PTR _x$[ebp], eax

; 140  : 	}

	jmp	$LN2@Draw
$LN3@Draw:

; 141  : 
; 142  : 	return 1;

	mov	eax, 1

; 143  : }

	pop	edi
	pop	esi
	pop	ebx
	mov	esp, ebp
	pop	ebp
	ret	4
?Draw@CHudDeathNotice@@UAEHM@Z ENDP			; CHudDeathNotice::Draw
_TEXT	ENDS
; Function compile flags: /Odtp /ZI
; File d:\!diffusion 2020\source code 2022\client-server\client\death.cpp
;	COMDAT ?VidInit@CHudDeathNotice@@UAEHXZ
_TEXT	SEGMENT
_this$ = -4						; size = 4
?VidInit@CHudDeathNotice@@UAEHXZ PROC			; CHudDeathNotice::VidInit, COMDAT
; _this$ = ecx

; 80   : {

	push	ebp
	mov	ebp, esp
	sub	esp, 68					; 00000044H
	push	ebx
	push	esi
	push	edi
	mov	DWORD PTR _this$[ebp], ecx

; 81   : 	m_HUD_d_skull = gHUD.GetSpriteIndex( "d_skull" );

	push	OFFSET ??_C@_07KMNBGIPL@d_skull?$AA@
	mov	ecx, OFFSET ?gHUD@@3VCHud@@A		; gHUD
	call	?GetSpriteIndex@CHud@@QAEHPBD@Z		; CHud::GetSpriteIndex
	mov	ecx, DWORD PTR _this$[ebp]
	mov	DWORD PTR [ecx+8], eax

; 82   : 
; 83   : 	return 1;

	mov	eax, 1

; 84   : }

	pop	edi
	pop	esi
	pop	ebx
	mov	esp, ebp
	pop	ebp
	ret	0
?VidInit@CHudDeathNotice@@UAEHXZ ENDP			; CHudDeathNotice::VidInit
_TEXT	ENDS
; Function compile flags: /Odtp /ZI
; File d:\!diffusion 2020\source code 2022\client-server\client\death.cpp
;	COMDAT ?InitHUDData@CHudDeathNotice@@UAEXXZ
_TEXT	SEGMENT
_this$ = -4						; size = 4
?InitHUDData@CHudDeathNotice@@UAEXXZ PROC		; CHudDeathNotice::InitHUDData, COMDAT
; _this$ = ecx

; 75   : {

	push	ebp
	mov	ebp, esp
	sub	esp, 68					; 00000044H
	push	ebx
	push	esi
	push	edi
	mov	DWORD PTR _this$[ebp], ecx

; 76   : 	memset( rgDeathNoticeList, 0, sizeof(rgDeathNoticeList) );

	push	780					; 0000030cH
	push	0
	push	OFFSET ?rgDeathNoticeList@@3PAUDeathNoticeItem@@A ; rgDeathNoticeList
	call	_memset
	add	esp, 12					; 0000000cH

; 77   : }

	pop	edi
	pop	esi
	pop	ebx
	mov	esp, ebp
	pop	ebp
	ret	0
?InitHUDData@CHudDeathNotice@@UAEXXZ ENDP		; CHudDeathNotice::InitHUDData
_TEXT	ENDS
; Function compile flags: /Odtp /ZI
; File d:\!diffusion 2020\source code 2022\client-server\client\death.cpp
;	COMDAT ?Init@CHudDeathNotice@@UAEHXZ
_TEXT	SEGMENT
_this$ = -4						; size = 4
?Init@CHudDeathNotice@@UAEHXZ PROC			; CHudDeathNotice::Init, COMDAT
; _this$ = ecx

; 64   : {

	push	ebp
	mov	ebp, esp
	sub	esp, 68					; 00000044H
	push	ebx
	push	esi
	push	edi
	mov	DWORD PTR _this$[ebp], ecx

; 65   : 	gHUD.AddHudElem( this );

	mov	eax, DWORD PTR _this$[ebp]
	push	eax
	mov	ecx, OFFSET ?gHUD@@3VCHud@@A		; gHUD
	call	?AddHudElem@CHud@@QAEXPAVCHudBase@@@Z	; CHud::AddHudElem

; 66   : 
; 67   : 	HOOK_MESSAGE( DeathMsg );

	push	OFFSET ?__MsgFunc_DeathMsg@@YAHPBDHPAX@Z ; __MsgFunc_DeathMsg
	push	OFFSET ??_C@_08DMGIIAG@DeathMsg?$AA@
	call	DWORD PTR ?gEngfuncs@@3Ucl_enginefuncs_s@@A+72
	add	esp, 8

; 68   : 
; 69   : 	CVAR_REGISTER( "hud_deathnotice_time", "6", 0 );

	push	0
	push	OFFSET ??_C@_01DHDKHMHF@6?$AA@
	push	OFFSET ??_C@_0BF@IGDIMMCO@hud_deathnotice_time?$AA@
	call	DWORD PTR ?gEngfuncs@@3Ucl_enginefuncs_s@@A+56
	add	esp, 12					; 0000000cH

; 70   : 
; 71   : 	return 1;

	mov	eax, 1

; 72   : }

	pop	edi
	pop	esi
	pop	ebx
	mov	esp, ebp
	pop	ebp
	ret	0
?Init@CHudDeathNotice@@UAEHXZ ENDP			; CHudDeathNotice::Init
_TEXT	ENDS
; Function compile flags: /Odtp /ZI
;	COMDAT ??__G@YGXPAX0IIP6EPAX00@Z@Z
_TEXT	SEGMENT
tv66 = -68						; size = 4
___t$ = 8						; size = 4
___u$ = 12						; size = 4
___s$ = 16						; size = 4
___n$ = 20						; size = 4
___f$ = 24						; size = 4
??__G@YGXPAX0IIP6EPAX00@Z@Z PROC			; `vector copy constructor iterator', COMDAT
	push	ebp
	mov	ebp, esp
	sub	esp, 68					; 00000044H
	push	ebx
	push	esi
	push	edi
$LN2@vector:
	mov	eax, DWORD PTR ___n$[ebp]
	mov	DWORD PTR tv66[ebp], eax
	mov	ecx, DWORD PTR ___n$[ebp]
	sub	ecx, 1
	mov	DWORD PTR ___n$[ebp], ecx
	cmp	DWORD PTR tv66[ebp], 0
	jbe	SHORT $LN1@vector
	mov	eax, DWORD PTR ___u$[ebp]
	push	eax
	mov	ecx, DWORD PTR ___t$[ebp]
	call	DWORD PTR ___f$[ebp]
	mov	eax, DWORD PTR ___t$[ebp]
	add	eax, DWORD PTR ___s$[ebp]
	mov	DWORD PTR ___t$[ebp], eax
	mov	eax, DWORD PTR ___u$[ebp]
	add	eax, DWORD PTR ___s$[ebp]
	mov	DWORD PTR ___u$[ebp], eax
	jmp	SHORT $LN2@vector
$LN1@vector:
	pop	edi
	pop	esi
	pop	ebx
	mov	esp, ebp
	pop	ebp
	ret	20					; 00000014H
??__G@YGXPAX0IIP6EPAX00@Z@Z ENDP			; `vector copy constructor iterator'
_TEXT	ENDS
; Function compile flags: /Odtp /ZI
;	COMDAT ??_H@YGXPAXIIP6EPAX0@Z@Z
_TEXT	SEGMENT
tv66 = -68						; size = 4
___t$ = 8						; size = 4
___s$ = 12						; size = 4
___n$ = 16						; size = 4
___f$ = 20						; size = 4
??_H@YGXPAXIIP6EPAX0@Z@Z PROC				; `vector constructor iterator', COMDAT
	push	ebp
	mov	ebp, esp
	sub	esp, 68					; 00000044H
	push	ebx
	push	esi
	push	edi
$LN2@vector:
	mov	eax, DWORD PTR ___n$[ebp]
	mov	DWORD PTR tv66[ebp], eax
	mov	ecx, DWORD PTR ___n$[ebp]
	sub	ecx, 1
	mov	DWORD PTR ___n$[ebp], ecx
	cmp	DWORD PTR tv66[ebp], 0
	jbe	SHORT $LN1@vector
	mov	ecx, DWORD PTR ___t$[ebp]
	call	DWORD PTR ___f$[ebp]
	mov	eax, DWORD PTR ___t$[ebp]
	add	eax, DWORD PTR ___s$[ebp]
	mov	DWORD PTR ___t$[ebp], eax
	jmp	SHORT $LN2@vector
$LN1@vector:
	pop	edi
	pop	esi
	pop	ebx
	mov	esp, ebp
	pop	ebp
	ret	16					; 00000010H
??_H@YGXPAXIIP6EPAX0@Z@Z ENDP				; `vector constructor iterator'
_TEXT	ENDS
END
