; Listing generated by Microsoft (R) Optimizing Compiler Version 19.00.24247.2 

	TITLE	D:\!DIFFUSION 2020\source code 2022\client-server\client\geiger.cpp
	.686P
	.XMM
	include listing.inc
	.model	flat

INCLUDELIB LIBCMT
INCLUDELIB OLDNAMES

PUBLIC	??_H@YGXPAXIIP6EPAX0@Z@Z			; `vector constructor iterator'
PUBLIC	??__G@YGXPAX0IIP6EPAX00@Z@Z			; `vector copy constructor iterator'
PUBLIC	?PlaySoundA@@YAXPADM@Z				; PlaySoundA
PUBLIC	?Init@CHudGeiger@@UAEHXZ			; CHudGeiger::Init
PUBLIC	?VidInit@CHudGeiger@@UAEHXZ			; CHudGeiger::VidInit
PUBLIC	?Draw@CHudGeiger@@UAEHM@Z			; CHudGeiger::Draw
PUBLIC	?MsgFunc_Geiger@CHudGeiger@@QAEHPBDHPAX@Z	; CHudGeiger::MsgFunc_Geiger
PUBLIC	?__MsgFunc_Geiger@@YAHPBDHPAX@Z			; __MsgFunc_Geiger
PUBLIC	??_C@_06NKMADNKG@Geiger?$AA@			; `string'
PUBLIC	??_C@_0BE@FKNPHJHA@player?1geiger?$CFd?4wav?$AA@ ; `string'
PUBLIC	__real@3e4ccccd
PUBLIC	__real@3e800000
PUBLIC	__real@3ecccccd
PUBLIC	__real@3f000000
PUBLIC	__real@3f19999a
PUBLIC	__real@3f333333
PUBLIC	__real@3f47ae14
PUBLIC	__real@3f4ccccd
PUBLIC	__real@3f59999a
PUBLIC	__real@3f666666
PUBLIC	__real@3f733333
PUBLIC	__real@3f800000
EXTRN	?Q_snprintf@@YAHPADIPBDZZ:PROC			; Q_snprintf
EXTRN	?AddHudElem@CHud@@QAEXPAVCHudBase@@@Z:PROC	; CHud::AddHudElem
EXTRN	?BEGIN_READ@@YAXPBDPAXH@Z:PROC			; BEGIN_READ
EXTRN	?END_READ@@YAXXZ:PROC				; END_READ
EXTRN	?READ_BYTE@@YAHXZ:PROC				; READ_BYTE
EXTRN	@__security_check_cookie@4:PROC
EXTRN	?gEngfuncs@@3Ucl_enginefuncs_s@@A:BYTE		; gEngfuncs
EXTRN	?gHUD@@3VCHud@@A:BYTE				; gHUD
EXTRN	___security_cookie:DWORD
EXTRN	__fltused:DWORD
;	COMDAT __real@3f800000
CONST	SEGMENT
__real@3f800000 DD 03f800000r			; 1
CONST	ENDS
;	COMDAT __real@3f733333
CONST	SEGMENT
__real@3f733333 DD 03f733333r			; 0.95
CONST	ENDS
;	COMDAT __real@3f666666
CONST	SEGMENT
__real@3f666666 DD 03f666666r			; 0.9
CONST	ENDS
;	COMDAT __real@3f59999a
CONST	SEGMENT
__real@3f59999a DD 03f59999ar			; 0.85
CONST	ENDS
;	COMDAT __real@3f4ccccd
CONST	SEGMENT
__real@3f4ccccd DD 03f4ccccdr			; 0.8
CONST	ENDS
;	COMDAT __real@3f47ae14
CONST	SEGMENT
__real@3f47ae14 DD 03f47ae14r			; 0.78
CONST	ENDS
;	COMDAT __real@3f333333
CONST	SEGMENT
__real@3f333333 DD 03f333333r			; 0.7
CONST	ENDS
;	COMDAT __real@3f19999a
CONST	SEGMENT
__real@3f19999a DD 03f19999ar			; 0.6
CONST	ENDS
;	COMDAT __real@3f000000
CONST	SEGMENT
__real@3f000000 DD 03f000000r			; 0.5
CONST	ENDS
;	COMDAT __real@3ecccccd
CONST	SEGMENT
__real@3ecccccd DD 03ecccccdr			; 0.4
CONST	ENDS
;	COMDAT __real@3e800000
CONST	SEGMENT
__real@3e800000 DD 03e800000r			; 0.25
CONST	ENDS
;	COMDAT __real@3e4ccccd
CONST	SEGMENT
__real@3e4ccccd DD 03e4ccccdr			; 0.2
CONST	ENDS
;	COMDAT ??_C@_0BE@FKNPHJHA@player?1geiger?$CFd?4wav?$AA@
CONST	SEGMENT
??_C@_0BE@FKNPHJHA@player?1geiger?$CFd?4wav?$AA@ DB 'player/geiger%d.wav', 00H ; `string'
CONST	ENDS
;	COMDAT ??_C@_06NKMADNKG@Geiger?$AA@
CONST	SEGMENT
??_C@_06NKMADNKG@Geiger?$AA@ DB 'Geiger', 00H		; `string'
CONST	ENDS
; Function compile flags: /Odtp /ZI
; File d:\!diffusion 2020\source code 2022\client-server\client\geiger.cpp
;	COMDAT ?__MsgFunc_Geiger@@YAHPBDHPAX@Z
_TEXT	SEGMENT
_pszName$ = 8						; size = 4
_iSize$ = 12						; size = 4
_pbuf$ = 16						; size = 4
?__MsgFunc_Geiger@@YAHPBDHPAX@Z PROC			; __MsgFunc_Geiger, COMDAT

; 25   : DECLARE_MESSAGE( m_Geiger, Geiger )

	push	ebp
	mov	ebp, esp
	sub	esp, 64					; 00000040H
	push	ebx
	push	esi
	push	edi
	mov	eax, DWORD PTR _pbuf$[ebp]
	push	eax
	mov	ecx, DWORD PTR _iSize$[ebp]
	push	ecx
	mov	edx, DWORD PTR _pszName$[ebp]
	push	edx
	mov	ecx, OFFSET ?gHUD@@3VCHud@@A+476
	call	?MsgFunc_Geiger@CHudGeiger@@QAEHPBDHPAX@Z ; CHudGeiger::MsgFunc_Geiger
	pop	edi
	pop	esi
	pop	ebx
	mov	esp, ebp
	pop	ebp
	ret	0
?__MsgFunc_Geiger@@YAHPBDHPAX@Z ENDP			; __MsgFunc_Geiger
_TEXT	ENDS
; Function compile flags: /Odtp /ZI
; File d:\!diffusion 2020\source code 2022\client-server\client\geiger.cpp
;	COMDAT ?MsgFunc_Geiger@CHudGeiger@@QAEHPBDHPAX@Z
_TEXT	SEGMENT
_this$ = -4						; size = 4
_pszName$ = 8						; size = 4
_iSize$ = 12						; size = 4
_pbuf$ = 16						; size = 4
?MsgFunc_Geiger@CHudGeiger@@QAEHPBDHPAX@Z PROC		; CHudGeiger::MsgFunc_Geiger, COMDAT
; _this$ = ecx

; 45   : {

	push	ebp
	mov	ebp, esp
	sub	esp, 68					; 00000044H
	push	ebx
	push	esi
	push	edi
	mov	DWORD PTR _this$[ebp], ecx

; 46   : 	BEGIN_READ( pszName, pbuf, iSize );

	mov	eax, DWORD PTR _iSize$[ebp]
	push	eax
	mov	ecx, DWORD PTR _pbuf$[ebp]
	push	ecx
	mov	edx, DWORD PTR _pszName$[ebp]
	push	edx
	call	?BEGIN_READ@@YAXPBDPAXH@Z		; BEGIN_READ
	add	esp, 12					; 0000000cH

; 47   : 
; 48   : 	// update geiger data
; 49   : 	m_iGeigerRange = READ_BYTE();

	call	?READ_BYTE@@YAHXZ			; READ_BYTE
	mov	ecx, DWORD PTR _this$[ebp]
	mov	DWORD PTR [ecx+8], eax

; 50   : 	m_iGeigerRange = m_iGeigerRange << 2;

	mov	eax, DWORD PTR _this$[ebp]
	mov	ecx, DWORD PTR [eax+8]
	shl	ecx, 2
	mov	edx, DWORD PTR _this$[ebp]
	mov	DWORD PTR [edx+8], ecx

; 51   : 	
; 52   : 	m_iFlags |= HUD_ACTIVE;

	mov	eax, DWORD PTR _this$[ebp]
	mov	ecx, DWORD PTR [eax+4]
	or	ecx, 1
	mov	edx, DWORD PTR _this$[ebp]
	mov	DWORD PTR [edx+4], ecx

; 53   : 
; 54   : 	END_READ();

	call	?END_READ@@YAXXZ			; END_READ

; 55   : 
; 56   : 	return 1;

	mov	eax, 1

; 57   : }

	pop	edi
	pop	esi
	pop	ebx
	mov	esp, ebp
	pop	ebp
	ret	12					; 0000000cH
?MsgFunc_Geiger@CHudGeiger@@QAEHPBDHPAX@Z ENDP		; CHudGeiger::MsgFunc_Geiger
_TEXT	ENDS
; Function compile flags: /Odtp /ZI
; File d:\!diffusion 2020\source code 2022\client-server\client\geiger.cpp
;	COMDAT ?Draw@CHudGeiger@@UAEHM@Z
_TEXT	SEGMENT
tv164 = -344						; size = 4
_sz$1 = -276						; size = 256
_pct$2 = -20						; size = 4
_i$3 = -16						; size = 4
_flvol$4 = -12						; size = 4
_this$ = -8						; size = 4
__$ArrayPad$ = -4					; size = 4
_flTime$ = 8						; size = 4
?Draw@CHudGeiger@@UAEHM@Z PROC				; CHudGeiger::Draw, COMDAT
; _this$ = ecx

; 60   : {

	push	ebp
	mov	ebp, esp
	sub	esp, 344				; 00000158H
	mov	eax, DWORD PTR ___security_cookie
	xor	eax, ebp
	mov	DWORD PTR __$ArrayPad$[ebp], eax
	push	ebx
	push	esi
	push	edi
	mov	DWORD PTR _this$[ebp], ecx

; 61   : 	if( m_iGeigerRange < 1000 && m_iGeigerRange > 0 )

	mov	eax, DWORD PTR _this$[ebp]
	cmp	DWORD PTR [eax+8], 1000			; 000003e8H
	jge	$LN23@Draw
	mov	eax, DWORD PTR _this$[ebp]
	cmp	DWORD PTR [eax+8], 0
	jle	$LN23@Draw

; 62   : 	{
; 63   : 		float flvol;
; 64   : 		int i, pct;
; 65   : 
; 66   : 		// peicewise linear is better than continuous formula for this
; 67   : 		if( m_iGeigerRange > 800 )

	mov	eax, DWORD PTR _this$[ebp]
	cmp	DWORD PTR [eax+8], 800			; 00000320H
	jle	SHORT $LN3@Draw

; 68   : 		{
; 69   : 			pct = 1;

	mov	DWORD PTR _pct$2[ebp], 1

; 70   : 			flvol = 0.2;

	movss	xmm0, DWORD PTR __real@3e4ccccd
	movss	DWORD PTR _flvol$4[ebp], xmm0

; 71   : 			i = 1;

	mov	DWORD PTR _i$3[ebp], 1
	jmp	$LN22@Draw
$LN3@Draw:

; 72   : 		}
; 73   : 		else if( m_iGeigerRange > 600 )

	mov	eax, DWORD PTR _this$[ebp]
	cmp	DWORD PTR [eax+8], 600			; 00000258H
	jle	SHORT $LN5@Draw

; 74   : 		{
; 75   : 			pct = 2;

	mov	DWORD PTR _pct$2[ebp], 2

; 76   : 			flvol = 0.4;

	movss	xmm0, DWORD PTR __real@3ecccccd
	movss	DWORD PTR _flvol$4[ebp], xmm0

; 77   : 			i = 1;

	mov	DWORD PTR _i$3[ebp], 1
	jmp	$LN22@Draw
$LN5@Draw:

; 78   : 		}
; 79   : 		else if( m_iGeigerRange > 500 )

	mov	eax, DWORD PTR _this$[ebp]
	cmp	DWORD PTR [eax+8], 500			; 000001f4H
	jle	SHORT $LN7@Draw

; 80   : 		{
; 81   : 			pct = 4;

	mov	DWORD PTR _pct$2[ebp], 4

; 82   : 			flvol = 0.5;

	movss	xmm0, DWORD PTR __real@3f000000
	movss	DWORD PTR _flvol$4[ebp], xmm0

; 83   : 			i = 2;

	mov	DWORD PTR _i$3[ebp], 2
	jmp	$LN22@Draw
$LN7@Draw:

; 84   : 		}
; 85   : 		else if( m_iGeigerRange > 400 )

	mov	eax, DWORD PTR _this$[ebp]
	cmp	DWORD PTR [eax+8], 400			; 00000190H
	jle	SHORT $LN9@Draw

; 86   : 		{
; 87   : 			pct = 8;

	mov	DWORD PTR _pct$2[ebp], 8

; 88   : 			flvol = 0.6;

	movss	xmm0, DWORD PTR __real@3f19999a
	movss	DWORD PTR _flvol$4[ebp], xmm0

; 89   : 			i = 2;

	mov	DWORD PTR _i$3[ebp], 2
	jmp	$LN22@Draw
$LN9@Draw:

; 90   : 		}
; 91   : 		else if( m_iGeigerRange > 300 )

	mov	eax, DWORD PTR _this$[ebp]
	cmp	DWORD PTR [eax+8], 300			; 0000012cH
	jle	SHORT $LN11@Draw

; 92   : 		{
; 93   : 			pct = 16;

	mov	DWORD PTR _pct$2[ebp], 16		; 00000010H

; 94   : 			flvol = 0.7;

	movss	xmm0, DWORD PTR __real@3f333333
	movss	DWORD PTR _flvol$4[ebp], xmm0

; 95   : 			i = 3;

	mov	DWORD PTR _i$3[ebp], 3
	jmp	$LN22@Draw
$LN11@Draw:

; 96   : 		}
; 97   : 		else if( m_iGeigerRange > 200 )

	mov	eax, DWORD PTR _this$[ebp]
	cmp	DWORD PTR [eax+8], 200			; 000000c8H
	jle	SHORT $LN13@Draw

; 98   : 		{
; 99   : 			pct = 28;

	mov	DWORD PTR _pct$2[ebp], 28		; 0000001cH

; 100  : 			flvol = 0.78;

	movss	xmm0, DWORD PTR __real@3f47ae14
	movss	DWORD PTR _flvol$4[ebp], xmm0

; 101  : 			i = 3;

	mov	DWORD PTR _i$3[ebp], 3
	jmp	$LN22@Draw
$LN13@Draw:

; 102  : 		}
; 103  : 		else if( m_iGeigerRange > 150 )

	mov	eax, DWORD PTR _this$[ebp]
	cmp	DWORD PTR [eax+8], 150			; 00000096H
	jle	SHORT $LN15@Draw

; 104  : 		{
; 105  : 			pct = 40;

	mov	DWORD PTR _pct$2[ebp], 40		; 00000028H

; 106  : 			flvol = 0.80;

	movss	xmm0, DWORD PTR __real@3f4ccccd
	movss	DWORD PTR _flvol$4[ebp], xmm0

; 107  : 			i = 4;

	mov	DWORD PTR _i$3[ebp], 4
	jmp	$LN22@Draw
$LN15@Draw:

; 108  : 		}
; 109  : 		else if( m_iGeigerRange > 100 )

	mov	eax, DWORD PTR _this$[ebp]
	cmp	DWORD PTR [eax+8], 100			; 00000064H
	jle	SHORT $LN17@Draw

; 110  : 		{
; 111  : 			pct = 60;

	mov	DWORD PTR _pct$2[ebp], 60		; 0000003cH

; 112  : 			flvol = 0.85;

	movss	xmm0, DWORD PTR __real@3f59999a
	movss	DWORD PTR _flvol$4[ebp], xmm0

; 113  : 			i = 4;

	mov	DWORD PTR _i$3[ebp], 4
	jmp	SHORT $LN22@Draw
$LN17@Draw:

; 114  : 		}
; 115  : 		else if( m_iGeigerRange > 75 )

	mov	eax, DWORD PTR _this$[ebp]
	cmp	DWORD PTR [eax+8], 75			; 0000004bH
	jle	SHORT $LN19@Draw

; 116  : 		{
; 117  : 			pct = 80;

	mov	DWORD PTR _pct$2[ebp], 80		; 00000050H

; 118  : 			flvol = 0.9;

	movss	xmm0, DWORD PTR __real@3f666666
	movss	DWORD PTR _flvol$4[ebp], xmm0

; 119  : 			i = 5;

	mov	DWORD PTR _i$3[ebp], 5
	jmp	SHORT $LN22@Draw
$LN19@Draw:

; 120  : 		}
; 121  : 		else if( m_iGeigerRange > 50 )

	mov	eax, DWORD PTR _this$[ebp]
	cmp	DWORD PTR [eax+8], 50			; 00000032H
	jle	SHORT $LN21@Draw

; 122  : 		{
; 123  : 			pct = 90;

	mov	DWORD PTR _pct$2[ebp], 90		; 0000005aH

; 124  : 			flvol = 0.95;

	movss	xmm0, DWORD PTR __real@3f733333
	movss	DWORD PTR _flvol$4[ebp], xmm0

; 125  : 			i = 5;

	mov	DWORD PTR _i$3[ebp], 5

; 126  : 		}
; 127  : 		else

	jmp	SHORT $LN22@Draw
$LN21@Draw:

; 128  : 		{
; 129  : 			pct = 95;

	mov	DWORD PTR _pct$2[ebp], 95		; 0000005fH

; 130  : 			flvol = 1.0;

	movss	xmm0, DWORD PTR __real@3f800000
	movss	DWORD PTR _flvol$4[ebp], xmm0

; 131  : 			i = 6;

	mov	DWORD PTR _i$3[ebp], 6
$LN22@Draw:

; 132  : 		}
; 133  : 
; 134  : 		flvol = flvol * RANDOM_FLOAT( 0.25f, 0.5f );

	push	ecx
	movss	xmm0, DWORD PTR __real@3f000000
	movss	DWORD PTR [esp], xmm0
	push	ecx
	movss	xmm0, DWORD PTR __real@3e800000
	movss	DWORD PTR [esp], xmm0
	call	DWORD PTR ?gEngfuncs@@3Ucl_enginefuncs_s@@A+268
	add	esp, 8
	fstp	DWORD PTR tv164[ebp]
	movss	xmm0, DWORD PTR tv164[ebp]
	mulss	xmm0, DWORD PTR _flvol$4[ebp]
	movss	DWORD PTR _flvol$4[ebp], xmm0

; 135  : 
; 136  : 		if( RANDOM_LONG( 0, 100 ) < pct )

	push	100					; 00000064H
	push	0
	call	DWORD PTR ?gEngfuncs@@3Ucl_enginefuncs_s@@A+272
	add	esp, 8
	cmp	eax, DWORD PTR _pct$2[ebp]
	jge	SHORT $LN23@Draw

; 137  : 		{
; 138  : 			char sz[256];
; 139  : 			Q_snprintf( sz, sizeof( sz ), "player/geiger%d.wav", i );

	mov	eax, DWORD PTR _i$3[ebp]
	push	eax
	push	OFFSET ??_C@_0BE@FKNPHJHA@player?1geiger?$CFd?4wav?$AA@
	push	256					; 00000100H
	lea	ecx, DWORD PTR _sz$1[ebp]
	push	ecx
	call	?Q_snprintf@@YAHPADIPBDZZ		; Q_snprintf
	add	esp, 16					; 00000010H

; 140  : 			PlaySound( sz, flvol );

	push	ecx
	movss	xmm0, DWORD PTR _flvol$4[ebp]
	movss	DWORD PTR [esp], xmm0
	lea	eax, DWORD PTR _sz$1[ebp]
	push	eax
	call	?PlaySoundA@@YAXPADM@Z			; PlaySoundA
	add	esp, 8
$LN23@Draw:

; 141  : 		}
; 142  : 	}
; 143  : 
; 144  : 	return 1;

	mov	eax, 1

; 145  : }

	pop	edi
	pop	esi
	pop	ebx
	mov	ecx, DWORD PTR __$ArrayPad$[ebp]
	xor	ecx, ebp
	call	@__security_check_cookie@4
	mov	esp, ebp
	pop	ebp
	ret	4
?Draw@CHudGeiger@@UAEHM@Z ENDP				; CHudGeiger::Draw
_TEXT	ENDS
; Function compile flags: /Odtp /ZI
; File d:\!diffusion 2020\source code 2022\client-server\client\geiger.cpp
;	COMDAT ?VidInit@CHudGeiger@@UAEHXZ
_TEXT	SEGMENT
_this$ = -4						; size = 4
?VidInit@CHudGeiger@@UAEHXZ PROC			; CHudGeiger::VidInit, COMDAT
; _this$ = ecx

; 40   : {

	push	ebp
	mov	ebp, esp
	sub	esp, 68					; 00000044H
	push	ebx
	push	esi
	push	edi
	mov	DWORD PTR _this$[ebp], ecx

; 41   : 	return 1;

	mov	eax, 1

; 42   : }

	pop	edi
	pop	esi
	pop	ebx
	mov	esp, ebp
	pop	ebp
	ret	0
?VidInit@CHudGeiger@@UAEHXZ ENDP			; CHudGeiger::VidInit
_TEXT	ENDS
; Function compile flags: /Odtp /ZI
; File d:\!diffusion 2020\source code 2022\client-server\client\geiger.cpp
;	COMDAT ?Init@CHudGeiger@@UAEHXZ
_TEXT	SEGMENT
_this$ = -4						; size = 4
?Init@CHudGeiger@@UAEHXZ PROC				; CHudGeiger::Init, COMDAT
; _this$ = ecx

; 28   : {

	push	ebp
	mov	ebp, esp
	sub	esp, 68					; 00000044H
	push	ebx
	push	esi
	push	edi
	mov	DWORD PTR _this$[ebp], ecx

; 29   : 	HOOK_MESSAGE( Geiger );

	push	OFFSET ?__MsgFunc_Geiger@@YAHPBDHPAX@Z	; __MsgFunc_Geiger
	push	OFFSET ??_C@_06NKMADNKG@Geiger?$AA@
	call	DWORD PTR ?gEngfuncs@@3Ucl_enginefuncs_s@@A+72
	add	esp, 8

; 30   : 
; 31   : 	m_iGeigerRange = 0;

	mov	eax, DWORD PTR _this$[ebp]
	mov	DWORD PTR [eax+8], 0

; 32   : 	m_iFlags = 0;

	mov	eax, DWORD PTR _this$[ebp]
	mov	DWORD PTR [eax+4], 0

; 33   : 
; 34   : 	gHUD.AddHudElem( this );

	mov	eax, DWORD PTR _this$[ebp]
	push	eax
	mov	ecx, OFFSET ?gHUD@@3VCHud@@A		; gHUD
	call	?AddHudElem@CHud@@QAEXPAVCHudBase@@@Z	; CHud::AddHudElem

; 35   : 
; 36   : 	return 1;

	mov	eax, 1

; 37   : }

	pop	edi
	pop	esi
	pop	ebx
	mov	esp, ebp
	pop	ebp
	ret	0
?Init@CHudGeiger@@UAEHXZ ENDP				; CHudGeiger::Init
_TEXT	ENDS
; Function compile flags: /Odtp /ZI
; File d:\!diffusion 2020\source code 2022\client-server\client\enginecallback.h
;	COMDAT ?PlaySoundA@@YAXPADM@Z
_TEXT	SEGMENT
_szSound$ = 8						; size = 4
_vol$ = 12						; size = 4
?PlaySoundA@@YAXPADM@Z PROC				; PlaySoundA, COMDAT

; 75   : inline void PlaySound( char *szSound, float vol ) { gEngfuncs.pfnPlaySoundByName( szSound, vol ); }

	push	ebp
	mov	ebp, esp
	sub	esp, 64					; 00000040H
	push	ebx
	push	esi
	push	edi
	push	ecx
	movss	xmm0, DWORD PTR _vol$[ebp]
	movss	DWORD PTR [esp], xmm0
	mov	eax, DWORD PTR _szSound$[ebp]
	push	eax
	call	DWORD PTR ?gEngfuncs@@3Ucl_enginefuncs_s@@A+88
	add	esp, 8
	pop	edi
	pop	esi
	pop	ebx
	mov	esp, ebp
	pop	ebp
	ret	0
?PlaySoundA@@YAXPADM@Z ENDP				; PlaySoundA
_TEXT	ENDS
; Function compile flags: /Odtp /ZI
;	COMDAT ??__G@YGXPAX0IIP6EPAX00@Z@Z
_TEXT	SEGMENT
tv66 = -68						; size = 4
___t$ = 8						; size = 4
___u$ = 12						; size = 4
___s$ = 16						; size = 4
___n$ = 20						; size = 4
___f$ = 24						; size = 4
??__G@YGXPAX0IIP6EPAX00@Z@Z PROC			; `vector copy constructor iterator', COMDAT
	push	ebp
	mov	ebp, esp
	sub	esp, 68					; 00000044H
	push	ebx
	push	esi
	push	edi
$LN2@vector:
	mov	eax, DWORD PTR ___n$[ebp]
	mov	DWORD PTR tv66[ebp], eax
	mov	ecx, DWORD PTR ___n$[ebp]
	sub	ecx, 1
	mov	DWORD PTR ___n$[ebp], ecx
	cmp	DWORD PTR tv66[ebp], 0
	jbe	SHORT $LN1@vector
	mov	eax, DWORD PTR ___u$[ebp]
	push	eax
	mov	ecx, DWORD PTR ___t$[ebp]
	call	DWORD PTR ___f$[ebp]
	mov	eax, DWORD PTR ___t$[ebp]
	add	eax, DWORD PTR ___s$[ebp]
	mov	DWORD PTR ___t$[ebp], eax
	mov	eax, DWORD PTR ___u$[ebp]
	add	eax, DWORD PTR ___s$[ebp]
	mov	DWORD PTR ___u$[ebp], eax
	jmp	SHORT $LN2@vector
$LN1@vector:
	pop	edi
	pop	esi
	pop	ebx
	mov	esp, ebp
	pop	ebp
	ret	20					; 00000014H
??__G@YGXPAX0IIP6EPAX00@Z@Z ENDP			; `vector copy constructor iterator'
_TEXT	ENDS
; Function compile flags: /Odtp /ZI
;	COMDAT ??_H@YGXPAXIIP6EPAX0@Z@Z
_TEXT	SEGMENT
tv66 = -68						; size = 4
___t$ = 8						; size = 4
___s$ = 12						; size = 4
___n$ = 16						; size = 4
___f$ = 20						; size = 4
??_H@YGXPAXIIP6EPAX0@Z@Z PROC				; `vector constructor iterator', COMDAT
	push	ebp
	mov	ebp, esp
	sub	esp, 68					; 00000044H
	push	ebx
	push	esi
	push	edi
$LN2@vector:
	mov	eax, DWORD PTR ___n$[ebp]
	mov	DWORD PTR tv66[ebp], eax
	mov	ecx, DWORD PTR ___n$[ebp]
	sub	ecx, 1
	mov	DWORD PTR ___n$[ebp], ecx
	cmp	DWORD PTR tv66[ebp], 0
	jbe	SHORT $LN1@vector
	mov	ecx, DWORD PTR ___t$[ebp]
	call	DWORD PTR ___f$[ebp]
	mov	eax, DWORD PTR ___t$[ebp]
	add	eax, DWORD PTR ___s$[ebp]
	mov	DWORD PTR ___t$[ebp], eax
	jmp	SHORT $LN2@vector
$LN1@vector:
	pop	edi
	pop	esi
	pop	ebx
	mov	esp, ebp
	pop	ebp
	ret	16					; 00000010H
??_H@YGXPAXIIP6EPAX0@Z@Z ENDP				; `vector constructor iterator'
_TEXT	ENDS
END
