; Listing generated by Microsoft (R) Optimizing Compiler Version 19.00.24247.2 

	TITLE	D:\!DIFFUSION 2020\source code 2022\client-server\client\healthbars.cpp
	.686P
	.XMM
	include listing.inc
	.model	flat

INCLUDELIB LIBCMT
INCLUDELIB OLDNAMES

PUBLIC	??_H@YGXPAXIIP6EPAX0@Z@Z			; `vector constructor iterator'
PUBLIC	??__G@YGXPAX0IIP6EPAX00@Z@Z			; `vector copy constructor iterator'
PUBLIC	??0Vector@@QAE@XZ				; Vector::Vector
PUBLIC	??0Vector@@QAE@MMM@Z				; Vector::Vector
PUBLIC	??HVector@@QBE?AV0@ABV0@@Z			; Vector::operator+
PUBLIC	??GVector@@QBE?AV0@ABV0@@Z			; Vector::operator-
PUBLIC	??KVector@@QBE?AV0@M@Z				; Vector::operator/
PUBLIC	?Length@Vector@@QBEMXZ				; Vector::Length
PUBLIC	??BVector@@QAEPAMXZ				; Vector::operator float *
PUBLIC	?Init@CHealthbars@@UAEHXZ			; CHealthbars::Init
PUBLIC	?VidInit@CHealthbars@@UAEHXZ			; CHealthbars::VidInit
PUBLIC	?Draw@CHealthbars@@UAEHM@Z			; CHealthbars::Draw
PUBLIC	?MsgFunc_Healthbars@CHealthbars@@QAEHPBDHPAX@Z	; CHealthbars::MsgFunc_Healthbars
PUBLIC	?GetSprite@CHud@@QAEHH@Z			; CHud::GetSprite
PUBLIC	?GetSpriteRect@CHud@@QAEAAUwrect_s@@H@Z		; CHud::GetSpriteRect
PUBLIC	?__MsgFunc_Healthbars@@YAHPBDHPAX@Z		; __MsgFunc_Healthbars
PUBLIC	??_C@_0L@MMOOACNB@Healthbars?$AA@		; `string'
PUBLIC	??_C@_0N@MKHGDJGD@health_empty?$AA@		; `string'
PUBLIC	??_C@_0M@KAAIOHIE@health_full?$AA@		; `string'
PUBLIC	??_C@_0BH@JNFPOLNH@sprites?1healthbar1?4dds?$AA@ ; `string'
PUBLIC	??_C@_0BH@BLMLJJHJ@sprites?1healthbar2?4dds?$AA@ ; `string'
PUBLIC	??_C@_0BH@NAJHEKNM@sprites?1healthbar3?4dds?$AA@ ; `string'
PUBLIC	??_C@_0BH@MNJCHKGE@sprites?1healthbar4?4dds?$AA@ ; `string'
PUBLIC	??_C@_0BH@GMOKJMB@sprites?1healthbar5?4dds?$AA@	; `string'
PUBLIC	??_C@_0BH@IAFKNLGP@sprites?1healthbar6?4dds?$AA@ ; `string'
PUBLIC	__real@00000000
PUBLIC	__real@3e8c8c8d
PUBLIC	__real@3f000000
PUBLIC	__real@3f29a9aa
PUBLIC	__real@3f800000
PUBLIC	__real@3fb999999999999a
PUBLIC	__real@40000000
PUBLIC	__real@40200000
PUBLIC	__real@40400000
PUBLIC	__real@41c80000
PUBLIC	__real@42a00000
PUBLIC	__real@42c80000
PUBLIC	__real@437f0000
PUBLIC	__real@43fa0000
PUBLIC	__real@443cc000
EXTRN	_sqrt:PROC
EXTRN	?GetSpriteIndex@CHud@@QAEHPBD@Z:PROC		; CHud::GetSpriteIndex
EXTRN	?AddHudElem@CHud@@QAEXPAVCHudBase@@@Z:PROC	; CHud::AddHudElem
EXTRN	?DrawQuad@@YAXMMMM@Z:PROC			; DrawQuad
EXTRN	?CL_IsDead@@YAHXZ:PROC				; CL_IsDead
EXTRN	?BEGIN_READ@@YAXPBDPAXH@Z:PROC			; BEGIN_READ
EXTRN	?END_READ@@YAXXZ:PROC				; END_READ
EXTRN	?READ_BYTE@@YAHXZ:PROC				; READ_BYTE
EXTRN	?READ_SHORT@@YAHXZ:PROC				; READ_SHORT
EXTRN	?R_WorldToScreen@@YAHABVVector@@AAV1@@Z:PROC	; R_WorldToScreen
EXTRN	?gEngfuncs@@3Ucl_enginefuncs_s@@A:BYTE		; gEngfuncs
EXTRN	?gRenderfuncs@@3Urender_api_s@@A:BYTE		; gRenderfuncs
EXTRN	?gHUD@@3VCHud@@A:BYTE				; gHUD
EXTRN	?cl_showhealthbars@@3PAUcvar_s@@A:DWORD		; cl_showhealthbars
EXTRN	?tr@@3Uref_globals_t@@A:BYTE			; tr
EXTRN	__fltused:DWORD
;	COMDAT __real@443cc000
CONST	SEGMENT
__real@443cc000 DD 0443cc000r			; 755
CONST	ENDS
;	COMDAT __real@43fa0000
CONST	SEGMENT
__real@43fa0000 DD 043fa0000r			; 500
CONST	ENDS
;	COMDAT __real@437f0000
CONST	SEGMENT
__real@437f0000 DD 0437f0000r			; 255
CONST	ENDS
;	COMDAT __real@42c80000
CONST	SEGMENT
__real@42c80000 DD 042c80000r			; 100
CONST	ENDS
;	COMDAT __real@42a00000
CONST	SEGMENT
__real@42a00000 DD 042a00000r			; 80
CONST	ENDS
;	COMDAT __real@41c80000
CONST	SEGMENT
__real@41c80000 DD 041c80000r			; 25
CONST	ENDS
;	COMDAT __real@40400000
CONST	SEGMENT
__real@40400000 DD 040400000r			; 3
CONST	ENDS
;	COMDAT __real@40200000
CONST	SEGMENT
__real@40200000 DD 040200000r			; 2.5
CONST	ENDS
;	COMDAT __real@40000000
CONST	SEGMENT
__real@40000000 DD 040000000r			; 2
CONST	ENDS
;	COMDAT __real@3fb999999999999a
CONST	SEGMENT
__real@3fb999999999999a DQ 03fb999999999999ar	; 0.1
CONST	ENDS
;	COMDAT __real@3f800000
CONST	SEGMENT
__real@3f800000 DD 03f800000r			; 1
CONST	ENDS
;	COMDAT __real@3f29a9aa
CONST	SEGMENT
__real@3f29a9aa DD 03f29a9aar			; 0.662745
CONST	ENDS
;	COMDAT __real@3f000000
CONST	SEGMENT
__real@3f000000 DD 03f000000r			; 0.5
CONST	ENDS
;	COMDAT __real@3e8c8c8d
CONST	SEGMENT
__real@3e8c8c8d DD 03e8c8c8dr			; 0.27451
CONST	ENDS
;	COMDAT __real@00000000
CONST	SEGMENT
__real@00000000 DD 000000000r			; 0
CONST	ENDS
;	COMDAT ??_C@_0BH@IAFKNLGP@sprites?1healthbar6?4dds?$AA@
CONST	SEGMENT
??_C@_0BH@IAFKNLGP@sprites?1healthbar6?4dds?$AA@ DB 'sprites/healthbar6.d'
	DB	'ds', 00H					; `string'
CONST	ENDS
;	COMDAT ??_C@_0BH@GMOKJMB@sprites?1healthbar5?4dds?$AA@
CONST	SEGMENT
??_C@_0BH@GMOKJMB@sprites?1healthbar5?4dds?$AA@ DB 'sprites/healthbar5.dd'
	DB	's', 00H					; `string'
CONST	ENDS
;	COMDAT ??_C@_0BH@MNJCHKGE@sprites?1healthbar4?4dds?$AA@
CONST	SEGMENT
??_C@_0BH@MNJCHKGE@sprites?1healthbar4?4dds?$AA@ DB 'sprites/healthbar4.d'
	DB	'ds', 00H					; `string'
CONST	ENDS
;	COMDAT ??_C@_0BH@NAJHEKNM@sprites?1healthbar3?4dds?$AA@
CONST	SEGMENT
??_C@_0BH@NAJHEKNM@sprites?1healthbar3?4dds?$AA@ DB 'sprites/healthbar3.d'
	DB	'ds', 00H					; `string'
CONST	ENDS
;	COMDAT ??_C@_0BH@BLMLJJHJ@sprites?1healthbar2?4dds?$AA@
CONST	SEGMENT
??_C@_0BH@BLMLJJHJ@sprites?1healthbar2?4dds?$AA@ DB 'sprites/healthbar2.d'
	DB	'ds', 00H					; `string'
CONST	ENDS
;	COMDAT ??_C@_0BH@JNFPOLNH@sprites?1healthbar1?4dds?$AA@
CONST	SEGMENT
??_C@_0BH@JNFPOLNH@sprites?1healthbar1?4dds?$AA@ DB 'sprites/healthbar1.d'
	DB	'ds', 00H					; `string'
CONST	ENDS
;	COMDAT ??_C@_0M@KAAIOHIE@health_full?$AA@
CONST	SEGMENT
??_C@_0M@KAAIOHIE@health_full?$AA@ DB 'health_full', 00H ; `string'
CONST	ENDS
;	COMDAT ??_C@_0N@MKHGDJGD@health_empty?$AA@
CONST	SEGMENT
??_C@_0N@MKHGDJGD@health_empty?$AA@ DB 'health_empty', 00H ; `string'
CONST	ENDS
;	COMDAT ??_C@_0L@MMOOACNB@Healthbars?$AA@
CONST	SEGMENT
??_C@_0L@MMOOACNB@Healthbars?$AA@ DB 'Healthbars', 00H	; `string'
CONST	ENDS
; Function compile flags: /Odtp /ZI
; File d:\!diffusion 2020\source code 2022\client-server\client\healthbars.cpp
;	COMDAT ?__MsgFunc_Healthbars@@YAHPBDHPAX@Z
_TEXT	SEGMENT
_pszName$ = 8						; size = 4
_iSize$ = 12						; size = 4
_pbuf$ = 16						; size = 4
?__MsgFunc_Healthbars@@YAHPBDHPAX@Z PROC		; __MsgFunc_Healthbars, COMDAT

; 16   : DECLARE_MESSAGE( m_Healthbars, Healthbars );

	push	ebp
	mov	ebp, esp
	sub	esp, 64					; 00000040H
	push	ebx
	push	esi
	push	edi
	mov	eax, DWORD PTR _pbuf$[ebp]
	push	eax
	mov	ecx, DWORD PTR _iSize$[ebp]
	push	ecx
	mov	edx, DWORD PTR _pszName$[ebp]
	push	edx
	mov	ecx, OFFSET ?gHUD@@3VCHud@@A+8292
	call	?MsgFunc_Healthbars@CHealthbars@@QAEHPBDHPAX@Z ; CHealthbars::MsgFunc_Healthbars
	pop	edi
	pop	esi
	pop	ebx
	mov	esp, ebp
	pop	ebp
	ret	0
?__MsgFunc_Healthbars@@YAHPBDHPAX@Z ENDP		; __MsgFunc_Healthbars
_TEXT	ENDS
; Function compile flags: /Odtp /ZI
; File d:\!diffusion 2020\source code 2022\client-server\client\hud.h
;	COMDAT ?GetSpriteRect@CHud@@QAEAAUwrect_s@@H@Z
_TEXT	SEGMENT
_this$ = -4						; size = 4
_index$ = 8						; size = 4
?GetSpriteRect@CHud@@QAEAAUwrect_s@@H@Z PROC		; CHud::GetSpriteRect, COMDAT
; _this$ = ecx

; 952  : 	wrect_t& GetSpriteRect( int index ) { return m_rgrcRects[index]; }

	push	ebp
	mov	ebp, esp
	sub	esp, 68					; 00000044H
	push	ebx
	push	esi
	push	edi
	mov	DWORD PTR _this$[ebp], ecx
	mov	eax, DWORD PTR _index$[ebp]
	shl	eax, 4
	mov	ecx, DWORD PTR _this$[ebp]
	add	eax, DWORD PTR [ecx+232]
	pop	edi
	pop	esi
	pop	ebx
	mov	esp, ebp
	pop	ebp
	ret	4
?GetSpriteRect@CHud@@QAEAAUwrect_s@@H@Z ENDP		; CHud::GetSpriteRect
_TEXT	ENDS
; Function compile flags: /Odtp /ZI
; File d:\!diffusion 2020\source code 2022\client-server\client\hud.h
;	COMDAT ?GetSprite@CHud@@QAEHH@Z
_TEXT	SEGMENT
tv68 = -72						; size = 4
_this$ = -4						; size = 4
_index$ = 8						; size = 4
?GetSprite@CHud@@QAEHH@Z PROC				; CHud::GetSprite, COMDAT
; _this$ = ecx

; 951  : 	SpriteHandle GetSprite( int index ) { return (index < 0) ? 0 : m_rghSprites[index]; }

	push	ebp
	mov	ebp, esp
	sub	esp, 72					; 00000048H
	push	ebx
	push	esi
	push	edi
	mov	DWORD PTR _this$[ebp], ecx
	cmp	DWORD PTR _index$[ebp], 0
	jge	SHORT $LN3@GetSprite
	mov	DWORD PTR tv68[ebp], 0
	jmp	SHORT $LN4@GetSprite
$LN3@GetSprite:
	mov	eax, DWORD PTR _this$[ebp]
	mov	ecx, DWORD PTR [eax+228]
	mov	edx, DWORD PTR _index$[ebp]
	mov	eax, DWORD PTR [ecx+edx*4]
	mov	DWORD PTR tv68[ebp], eax
$LN4@GetSprite:
	mov	eax, DWORD PTR tv68[ebp]
	pop	edi
	pop	esi
	pop	ebx
	mov	esp, ebp
	pop	ebp
	ret	4
?GetSprite@CHud@@QAEHH@Z ENDP				; CHud::GetSprite
_TEXT	ENDS
; Function compile flags: /Odtp /ZI
; File d:\!diffusion 2020\source code 2022\client-server\client\healthbars.cpp
;	COMDAT ?MsgFunc_Healthbars@CHealthbars@@QAEHPBDHPAX@Z
_TEXT	SEGMENT
_this$ = -4						; size = 4
_pszName$ = 8						; size = 4
_iSize$ = 12						; size = 4
_pbuf$ = 16						; size = 4
?MsgFunc_Healthbars@CHealthbars@@QAEHPBDHPAX@Z PROC	; CHealthbars::MsgFunc_Healthbars, COMDAT
; _this$ = ecx

; 40   : {

	push	ebp
	mov	ebp, esp
	sub	esp, 68					; 00000044H
	push	ebx
	push	esi
	push	edi
	mov	DWORD PTR _this$[ebp], ecx

; 41   : 	BEGIN_READ( pszName, pbuf, iSize );

	mov	eax, DWORD PTR _iSize$[ebp]
	push	eax
	mov	ecx, DWORD PTR _pbuf$[ebp]
	push	ecx
	mov	edx, DWORD PTR _pszName$[ebp]
	push	edx
	call	?BEGIN_READ@@YAXPBDPAXH@Z		; BEGIN_READ
	add	esp, 12					; 0000000cH

; 42   : 
; 43   : 	health = READ_BYTE(); // % - bounded at 200 on server

	call	?READ_BYTE@@YAHXZ			; READ_BYTE
	mov	ecx, DWORD PTR _this$[ebp]
	mov	DWORD PTR [ecx+8], eax

; 44   : 	barsize = READ_BYTE();

	call	?READ_BYTE@@YAHXZ			; READ_BYTE
	mov	ecx, DWORD PTR _this$[ebp]
	mov	DWORD PTR [ecx+12], eax

; 45   : 	entindex = READ_SHORT();

	call	?READ_SHORT@@YAHXZ			; READ_SHORT
	mov	ecx, DWORD PTR _this$[ebp]
	mov	DWORD PTR [ecx+16], eax

; 46   : 
; 47   : 	END_READ();

	call	?END_READ@@YAXXZ			; END_READ

; 48   : 
; 49   : 	if( entindex == 0 )

	mov	eax, DWORD PTR _this$[ebp]
	cmp	DWORD PTR [eax+16], 0
	jne	SHORT $LN2@MsgFunc_He

; 50   : 	{
; 51   : 		m_iFlags &= ~HUD_ACTIVE;

	mov	eax, DWORD PTR _this$[ebp]
	mov	ecx, DWORD PTR [eax+4]
	and	ecx, -2					; fffffffeH
	mov	edx, DWORD PTR _this$[ebp]
	mov	DWORD PTR [edx+4], ecx

; 52   : 		return 1;

	mov	eax, 1
	jmp	SHORT $LN1@MsgFunc_He

; 53   : 	}
; 54   : 	else

	jmp	SHORT $LN3@MsgFunc_He
$LN2@MsgFunc_He:

; 55   : 		m_iFlags |= HUD_ACTIVE;

	mov	eax, DWORD PTR _this$[ebp]
	mov	ecx, DWORD PTR [eax+4]
	or	ecx, 1
	mov	edx, DWORD PTR _this$[ebp]
	mov	DWORD PTR [edx+4], ecx
$LN3@MsgFunc_He:

; 56   : 
; 57   : 	if( barsize > 2 )

	mov	eax, DWORD PTR _this$[ebp]
	cmp	DWORD PTR [eax+12], 2
	jle	SHORT $LN4@MsgFunc_He

; 58   : 	{
; 59   : 		bCentered = true;

	mov	eax, DWORD PTR _this$[ebp]
	mov	BYTE PTR [eax+28], 1

; 60   : 		barsize -= 3;

	mov	eax, DWORD PTR _this$[ebp]
	mov	ecx, DWORD PTR [eax+12]
	sub	ecx, 3
	mov	edx, DWORD PTR _this$[ebp]
	mov	DWORD PTR [edx+12], ecx

; 61   : 	}
; 62   : 	else

	jmp	SHORT $LN5@MsgFunc_He
$LN4@MsgFunc_He:

; 63   : 		bCentered = false;

	mov	eax, DWORD PTR _this$[ebp]
	mov	BYTE PTR [eax+28], 0
$LN5@MsgFunc_He:

; 64   : 
; 65   : 	return 1;

	mov	eax, 1
$LN1@MsgFunc_He:

; 66   : }

	pop	edi
	pop	esi
	pop	ebx
	mov	esp, ebp
	pop	ebp
	ret	12					; 0000000cH
?MsgFunc_Healthbars@CHealthbars@@QAEHPBDHPAX@Z ENDP	; CHealthbars::MsgFunc_Healthbars
_TEXT	ENDS
; Function compile flags: /Odtp /ZI
; File d:\!diffusion 2020\source code 2022\client-server\client\healthbars.cpp
;	COMDAT ?Draw@CHealthbars@@UAEHM@Z
_TEXT	SEGMENT
tv184 = -228						; size = 8
tv378 = -224						; size = 4
tv318 = -224						; size = 4
tv516 = -220						; size = 4
tv377 = -220						; size = 4
tv317 = -220						; size = 4
tv195 = -220						; size = 4
tv182 = -220						; size = 4
$T1 = -216						; size = 12
$T2 = -204						; size = 12
$T3 = -192						; size = 12
$T4 = -180						; size = 12
_hp2$5 = -104						; size = 4
_ymax$ = -100						; size = 4
_xmax$ = -96						; size = 4
_ymin$ = -92						; size = 4
_xmin$ = -88						; size = 4
_newwidth$ = -84					; size = 4
_hp1$ = -80						; size = 4
_Denom$ = -76						; size = 4
_height$ = -72						; size = 4
_width$ = -68						; size = 4
_fov_mult$ = -64					; size = 4
_dist_mult$ = -60					; size = 4
_y$ = -56						; size = 4
_x$ = -52						; size = 4
_DisappearStartDist$ = -48				; size = 4
_DistanceToEnt$ = -44					; size = 4
_current_fov$ = -40					; size = 4
_Transparency$ = -36					; size = 4
_org$ = -32						; size = 12
_ent$ = -20						; size = 4
_screen$ = -16						; size = 12
_this$ = -4						; size = 4
_flTime$ = 8						; size = 4
?Draw@CHealthbars@@UAEHM@Z PROC				; CHealthbars::Draw, COMDAT
; _this$ = ecx

; 69   : {	

	push	ebp
	mov	ebp, esp
	sub	esp, 228				; 000000e4H
	push	ebx
	push	esi
	push	edi
	mov	DWORD PTR _this$[ebp], ecx

; 70   : 	if( !cl_showhealthbars->value )

	mov	eax, DWORD PTR ?cl_showhealthbars@@3PAUcvar_s@@A ; cl_showhealthbars
	movss	xmm0, DWORD PTR [eax+12]
	ucomiss	xmm0, DWORD PTR __real@00000000
	lahf
	test	ah, 68					; 00000044H
	jp	SHORT $LN4@Draw

; 71   : 		return 1;

	mov	eax, 1
	jmp	$LN1@Draw
$LN4@Draw:

; 72   : 	
; 73   : 	if( entindex == 0 )

	mov	eax, DWORD PTR _this$[ebp]
	cmp	DWORD PTR [eax+16], 0
	jne	SHORT $LN5@Draw

; 74   : 		return 1;

	mov	eax, 1
	jmp	$LN1@Draw
$LN5@Draw:

; 75   : 
; 76   : 	if( tr.time == tr.oldtime ) // not in paused

	movsd	xmm0, QWORD PTR ?tr@@3Uref_globals_t@@A+8
	ucomisd	xmm0, QWORD PTR ?tr@@3Uref_globals_t@@A+16
	lahf
	test	ah, 68					; 00000044H
	jp	SHORT $LN6@Draw

; 77   : 		return 1;

	mov	eax, 1
	jmp	$LN1@Draw
$LN6@Draw:

; 78   : 
; 79   : 	if( CL_IsDead() )

	call	?CL_IsDead@@YAHXZ			; CL_IsDead
	test	eax, eax
	je	SHORT $LN7@Draw

; 80   : 	{
; 81   : 		entindex = 0;

	mov	eax, DWORD PTR _this$[ebp]
	mov	DWORD PTR [eax+16], 0

; 82   : 		return 1;

	mov	eax, 1
	jmp	$LN1@Draw
$LN7@Draw:

; 83   : 	}
; 84   : 
; 85   : 	Vector screen;

	lea	ecx, DWORD PTR _screen$[ebp]
	call	??0Vector@@QAE@XZ			; Vector::Vector

; 86   : 
; 87   : 	cl_entity_t *ent = GET_ENTITY( entindex );

	mov	eax, DWORD PTR _this$[ebp]
	mov	ecx, DWORD PTR [eax+16]
	push	ecx
	call	DWORD PTR ?gEngfuncs@@3Ucl_enginefuncs_s@@A+212
	add	esp, 4
	mov	DWORD PTR _ent$[ebp], eax

; 88   : 	if( !ent )

	cmp	DWORD PTR _ent$[ebp], 0
	jne	SHORT $LN8@Draw

; 89   : 		return 1;

	mov	eax, 1
	jmp	$LN1@Draw
$LN8@Draw:

; 90   : 
; 91   : 	Vector org = ent->origin + ((ent->curstate.mins + ent->curstate.maxs) / 2.f);

	push	ecx
	movss	xmm0, DWORD PTR __real@40000000
	movss	DWORD PTR [esp], xmm0
	lea	eax, DWORD PTR $T3[ebp]
	push	eax
	mov	ecx, DWORD PTR _ent$[ebp]
	add	ecx, 824				; 00000338H
	push	ecx
	lea	edx, DWORD PTR $T4[ebp]
	push	edx
	mov	ecx, DWORD PTR _ent$[ebp]
	add	ecx, 812				; 0000032cH
	call	??HVector@@QBE?AV0@ABV0@@Z		; Vector::operator+
	mov	ecx, eax
	call	??KVector@@QBE?AV0@M@Z			; Vector::operator/
	push	eax
	lea	eax, DWORD PTR _org$[ebp]
	push	eax
	mov	ecx, DWORD PTR _ent$[ebp]
	add	ecx, 2888				; 00000b48H
	call	??HVector@@QBE?AV0@ABV0@@Z		; Vector::operator+

; 92   : 	if( !bCentered )

	mov	eax, DWORD PTR _this$[ebp]
	movzx	ecx, BYTE PTR [eax+28]
	test	ecx, ecx
	jne	SHORT $LN9@Draw

; 93   : 		org.z += (ent->curstate.mins - ent->curstate.maxs).Length() * 0.5f;

	mov	eax, DWORD PTR _ent$[ebp]
	add	eax, 824				; 00000338H
	push	eax
	lea	ecx, DWORD PTR $T2[ebp]
	push	ecx
	mov	ecx, DWORD PTR _ent$[ebp]
	add	ecx, 812				; 0000032cH
	call	??GVector@@QBE?AV0@ABV0@@Z		; Vector::operator-
	mov	ecx, eax
	call	?Length@Vector@@QBEMXZ			; Vector::Length
	fstp	DWORD PTR tv516[ebp]
	movss	xmm0, DWORD PTR tv516[ebp]
	mulss	xmm0, DWORD PTR __real@3f000000
	addss	xmm0, DWORD PTR _org$[ebp+8]
	movss	DWORD PTR _org$[ebp+8], xmm0
$LN9@Draw:

; 94   : 
; 95   : 	float Transparency = 255.0f;

	movss	xmm0, DWORD PTR __real@437f0000
	movss	DWORD PTR _Transparency$[ebp], xmm0

; 96   : 
; 97   : 	float current_fov = gHUD.m_flFOV;

	movss	xmm0, DWORD PTR ?gHUD@@3VCHud@@A+80
	movss	DWORD PTR _current_fov$[ebp], xmm0

; 98   : 	if( current_fov == 0.0f )

	movss	xmm0, DWORD PTR _current_fov$[ebp]
	ucomiss	xmm0, DWORD PTR __real@00000000
	lahf
	test	ah, 68					; 00000044H
	jp	SHORT $LN10@Draw

; 99   : 		current_fov = 80.0f;

	movss	xmm0, DWORD PTR __real@42a00000
	movss	DWORD PTR _current_fov$[ebp], xmm0
$LN10@Draw:

; 100  : 
; 101  : 	float DistanceToEnt = (tr.viewparams.vieworg - org).Length();

	lea	eax, DWORD PTR _org$[ebp]
	push	eax
	lea	ecx, DWORD PTR $T1[ebp]
	push	ecx
	mov	ecx, OFFSET ?tr@@3Uref_globals_t@@A+5830656
	call	??GVector@@QBE?AV0@ABV0@@Z		; Vector::operator-
	mov	ecx, eax
	call	?Length@Vector@@QBEMXZ			; Vector::Length
	fstp	DWORD PTR _DistanceToEnt$[ebp]

; 102  : 	float DisappearStartDist = DISAPPEAR_START_DIST * (80 / current_fov) * (barsize + 1) * 3;

	movss	xmm0, DWORD PTR __real@42a00000
	divss	xmm0, DWORD PTR _current_fov$[ebp]
	mulss	xmm0, DWORD PTR __real@43fa0000
	mov	eax, DWORD PTR _this$[ebp]
	mov	ecx, DWORD PTR [eax+12]
	add	ecx, 1
	cvtsi2ss xmm1, ecx
	mulss	xmm0, xmm1
	mulss	xmm0, DWORD PTR __real@40400000
	movss	DWORD PTR _DisappearStartDist$[ebp], xmm0

; 103  : 	if( DistanceToEnt > DisappearStartDist )

	movss	xmm0, DWORD PTR _DistanceToEnt$[ebp]
	comiss	xmm0, DWORD PTR _DisappearStartDist$[ebp]
	jbe	SHORT $LN12@Draw

; 104  : 	{
; 105  : 		Transparency -= DistanceToEnt - DisappearStartDist;

	movss	xmm0, DWORD PTR _DistanceToEnt$[ebp]
	subss	xmm0, DWORD PTR _DisappearStartDist$[ebp]
	movss	xmm1, DWORD PTR _Transparency$[ebp]
	subss	xmm1, xmm0
	movss	DWORD PTR _Transparency$[ebp], xmm1

; 106  : 		if( Transparency <= 0 )

	xorps	xmm0, xmm0
	comiss	xmm0, DWORD PTR _Transparency$[ebp]
	jb	SHORT $LN12@Draw

; 107  : 			return 1;

	mov	eax, 1
	jmp	$LN1@Draw
$LN12@Draw:

; 108  : 	}
; 109  : 
; 110  : 	R_WorldToScreen( org, screen );

	lea	eax, DWORD PTR _screen$[ebp]
	push	eax
	lea	ecx, DWORD PTR _org$[ebp]
	push	ecx
	call	?R_WorldToScreen@@YAHABVVector@@AAV1@@Z	; R_WorldToScreen
	add	esp, 8

; 111  : 	int x = XPROJECT( screen[0] );

	lea	ecx, DWORD PTR _screen$[ebp]
	call	??BVector@@QAEPAMXZ			; Vector::operator float *
	mov	ecx, 4
	imul	edx, ecx, 0
	movss	xmm0, DWORD PTR __real@3f800000
	addss	xmm0, DWORD PTR [eax+edx]
	cvtsi2ss xmm1, DWORD PTR ?gHUD@@3VCHud@@A+8436
	mulss	xmm0, xmm1
	mulss	xmm0, DWORD PTR __real@3f000000
	cvttss2si eax, xmm0
	mov	DWORD PTR _x$[ebp], eax

; 112  : 	int y = YPROJECT( screen[1] );

	lea	ecx, DWORD PTR _screen$[ebp]
	call	??BVector@@QAEPAMXZ			; Vector::operator float *
	mov	ecx, 4
	shl	ecx, 0
	movss	xmm0, DWORD PTR __real@3f800000
	subss	xmm0, DWORD PTR [eax+ecx]
	cvtsi2ss xmm1, DWORD PTR ?gHUD@@3VCHud@@A+8440
	mulss	xmm0, xmm1
	mulss	xmm0, DWORD PTR __real@3f000000
	cvttss2si edx, xmm0
	mov	DWORD PTR _y$[ebp], edx

; 113  : 
; 114  : 	// total distance
; 115  : 	float dist_mult = DistanceToEnt / (DISAPPEAR_START_DIST + 255);

	movss	xmm0, DWORD PTR _DistanceToEnt$[ebp]
	divss	xmm0, DWORD PTR __real@443cc000
	movss	DWORD PTR _dist_mult$[ebp], xmm0

; 116  : 	dist_mult = bound( 0.1, dist_mult, 1 );

	cvtss2sd xmm0, DWORD PTR _dist_mult$[ebp]
	comisd	xmm0, QWORD PTR __real@3fb999999999999a
	jb	SHORT $LN21@Draw
	movss	xmm0, DWORD PTR __real@3f800000
	comiss	xmm0, DWORD PTR _dist_mult$[ebp]
	jbe	SHORT $LN19@Draw
	movss	xmm0, DWORD PTR _dist_mult$[ebp]
	movss	DWORD PTR tv182[ebp], xmm0
	jmp	SHORT $LN20@Draw
$LN19@Draw:
	movss	xmm0, DWORD PTR __real@3f800000
	movss	DWORD PTR tv182[ebp], xmm0
$LN20@Draw:
	cvtss2sd xmm0, DWORD PTR tv182[ebp]
	movsd	QWORD PTR tv184[ebp], xmm0
	jmp	SHORT $LN22@Draw
$LN21@Draw:
	movsd	xmm0, QWORD PTR __real@3fb999999999999a
	movsd	QWORD PTR tv184[ebp], xmm0
$LN22@Draw:
	cvtsd2ss xmm0, QWORD PTR tv184[ebp]
	movss	DWORD PTR _dist_mult$[ebp], xmm0

; 117  : 	// also scale by fov, taking 80 fov as default
; 118  : 
; 119  : 	float fov_mult = current_fov / 80.0f;

	movss	xmm0, DWORD PTR _current_fov$[ebp]
	divss	xmm0, DWORD PTR __real@42a00000
	movss	DWORD PTR _fov_mult$[ebp], xmm0

; 120  : 	dist_mult *= fov_mult;

	movss	xmm0, DWORD PTR _dist_mult$[ebp]
	mulss	xmm0, DWORD PTR _fov_mult$[ebp]
	movss	DWORD PTR _dist_mult$[ebp], xmm0

; 121  : 
; 122  : 	float width = (BAR_SCALE * 10 * (barsize+1)) / dist_mult;

	mov	eax, DWORD PTR _this$[ebp]
	mov	ecx, DWORD PTR [eax+12]
	add	ecx, 1
	cvtsi2ss xmm0, ecx
	mulss	xmm0, DWORD PTR __real@41c80000
	divss	xmm0, DWORD PTR _dist_mult$[ebp]
	movss	DWORD PTR _width$[ebp], xmm0

; 123  : 	float height = BAR_SCALE / dist_mult;

	movss	xmm0, DWORD PTR __real@40200000
	divss	xmm0, DWORD PTR _dist_mult$[ebp]
	movss	DWORD PTR _height$[ebp], xmm0

; 124  : 
; 125  : 	switch( barsize )

	mov	eax, DWORD PTR _this$[ebp]
	mov	ecx, DWORD PTR [eax+12]
	mov	DWORD PTR tv195[ebp], ecx
	cmp	DWORD PTR tv195[ebp], 0
	je	SHORT $LN13@Draw
	cmp	DWORD PTR tv195[ebp], 1
	je	SHORT $LN14@Draw
	cmp	DWORD PTR tv195[ebp], 2
	je	SHORT $LN15@Draw
	jmp	$LN2@Draw
$LN13@Draw:

; 126  : 	{
; 127  : 	case 0:
; 128  : 		hptex = LOAD_TEXTURE( "sprites/healthbar1.dds", NULL, 0, 0 );

	push	0
	push	0
	push	0
	push	OFFSET ??_C@_0BH@JNFPOLNH@sprites?1healthbar1?4dds?$AA@
	call	DWORD PTR ?gRenderfuncs@@3Urender_api_s@@A+60
	add	esp, 16					; 00000010H
	mov	ecx, DWORD PTR _this$[ebp]
	mov	DWORD PTR [ecx+20], eax

; 129  : 		hptex2 = LOAD_TEXTURE( "sprites/healthbar2.dds", NULL, 0, 0 );

	push	0
	push	0
	push	0
	push	OFFSET ??_C@_0BH@BLMLJJHJ@sprites?1healthbar2?4dds?$AA@
	call	DWORD PTR ?gRenderfuncs@@3Urender_api_s@@A+60
	add	esp, 16					; 00000010H
	mov	ecx, DWORD PTR _this$[ebp]
	mov	DWORD PTR [ecx+24], eax

; 130  : 		break;

	jmp	SHORT $LN2@Draw
$LN14@Draw:

; 131  : 	case 1:
; 132  : 		hptex = LOAD_TEXTURE( "sprites/healthbar3.dds", NULL, 0, 0 );

	push	0
	push	0
	push	0
	push	OFFSET ??_C@_0BH@NAJHEKNM@sprites?1healthbar3?4dds?$AA@
	call	DWORD PTR ?gRenderfuncs@@3Urender_api_s@@A+60
	add	esp, 16					; 00000010H
	mov	ecx, DWORD PTR _this$[ebp]
	mov	DWORD PTR [ecx+20], eax

; 133  : 		hptex2 = LOAD_TEXTURE( "sprites/healthbar4.dds", NULL, 0, 0 );

	push	0
	push	0
	push	0
	push	OFFSET ??_C@_0BH@MNJCHKGE@sprites?1healthbar4?4dds?$AA@
	call	DWORD PTR ?gRenderfuncs@@3Urender_api_s@@A+60
	add	esp, 16					; 00000010H
	mov	ecx, DWORD PTR _this$[ebp]
	mov	DWORD PTR [ecx+24], eax

; 134  : 		break;

	jmp	SHORT $LN2@Draw
$LN15@Draw:

; 135  : 	case 2:
; 136  : 		hptex = LOAD_TEXTURE( "sprites/healthbar5.dds", NULL, 0, 0 );

	push	0
	push	0
	push	0
	push	OFFSET ??_C@_0BH@GMOKJMB@sprites?1healthbar5?4dds?$AA@
	call	DWORD PTR ?gRenderfuncs@@3Urender_api_s@@A+60
	add	esp, 16					; 00000010H
	mov	ecx, DWORD PTR _this$[ebp]
	mov	DWORD PTR [ecx+20], eax

; 137  : 		hptex2 = LOAD_TEXTURE( "sprites/healthbar6.dds", NULL, 0, 0 );

	push	0
	push	0
	push	0
	push	OFFSET ??_C@_0BH@IAFKNLGP@sprites?1healthbar6?4dds?$AA@
	call	DWORD PTR ?gRenderfuncs@@3Urender_api_s@@A+60
	add	esp, 16					; 00000010H
	mov	ecx, DWORD PTR _this$[ebp]
	mov	DWORD PTR [ecx+24], eax
$LN2@Draw:

; 138  : 		break;
; 139  : 	}
; 140  : 
; 141  : 	// draw the background texture
; 142  : 	gEngfuncs.pTriAPI->RenderMode( kRenderTransAdd );

	push	5
	mov	eax, DWORD PTR ?gEngfuncs@@3Ucl_enginefuncs_s@@A+328
	mov	ecx, DWORD PTR [eax+4]
	call	ecx
	add	esp, 4

; 143  : 	gEngfuncs.pTriAPI->Color4f( 70 / 255.0f, 169 / 255.0f, 1.0f, Transparency / 255.0f );

	movss	xmm0, DWORD PTR _Transparency$[ebp]
	divss	xmm0, DWORD PTR __real@437f0000
	push	ecx
	movss	DWORD PTR [esp], xmm0
	push	ecx
	movss	xmm0, DWORD PTR __real@3f800000
	movss	DWORD PTR [esp], xmm0
	push	ecx
	movss	xmm0, DWORD PTR __real@3f29a9aa
	movss	DWORD PTR [esp], xmm0
	push	ecx
	movss	xmm0, DWORD PTR __real@3e8c8c8d
	movss	DWORD PTR [esp], xmm0
	mov	eax, DWORD PTR ?gEngfuncs@@3Ucl_enginefuncs_s@@A+328
	mov	ecx, DWORD PTR [eax+16]
	call	ecx
	add	esp, 16					; 00000010H

; 144  : 	gEngfuncs.pTriAPI->CullFace( TRI_NONE );

	push	1
	mov	eax, DWORD PTR ?gEngfuncs@@3Ucl_enginefuncs_s@@A+328
	mov	ecx, DWORD PTR [eax+40]
	call	ecx
	add	esp, 4

; 145  : 	GL_SelectTexture( 0 );

	push	0
	call	DWORD PTR ?gRenderfuncs@@3Urender_api_s@@A+136
	add	esp, 4

; 146  : 	GL_Bind( 0, hptex );

	mov	eax, DWORD PTR _this$[ebp]
	mov	ecx, DWORD PTR [eax+20]
	push	ecx
	push	0
	call	DWORD PTR ?gRenderfuncs@@3Urender_api_s@@A+132
	add	esp, 8

; 147  : 	gEngfuncs.pTriAPI->Begin( TRI_QUADS );

	push	2
	mov	eax, DWORD PTR ?gEngfuncs@@3Ucl_enginefuncs_s@@A+328
	mov	ecx, DWORD PTR [eax+8]
	call	ecx
	add	esp, 4

; 148  : 	DrawQuad( x - width, y - height, x + width, y + height );

	cvtsi2ss xmm0, DWORD PTR _y$[ebp]
	addss	xmm0, DWORD PTR _height$[ebp]
	push	ecx
	movss	DWORD PTR [esp], xmm0
	cvtsi2ss xmm0, DWORD PTR _x$[ebp]
	addss	xmm0, DWORD PTR _width$[ebp]
	push	ecx
	movss	DWORD PTR [esp], xmm0
	cvtsi2ss xmm0, DWORD PTR _y$[ebp]
	subss	xmm0, DWORD PTR _height$[ebp]
	push	ecx
	movss	DWORD PTR [esp], xmm0
	cvtsi2ss xmm0, DWORD PTR _x$[ebp]
	subss	xmm0, DWORD PTR _width$[ebp]
	push	ecx
	movss	DWORD PTR [esp], xmm0
	call	?DrawQuad@@YAXMMMM@Z			; DrawQuad
	add	esp, 16					; 00000010H

; 149  : 	gEngfuncs.pTriAPI->End();

	mov	eax, DWORD PTR ?gEngfuncs@@3Ucl_enginefuncs_s@@A+328
	mov	ecx, DWORD PTR [eax+12]
	call	ecx

; 150  : 
; 151  : 	// draw the red health bar on top
; 152  : 	float Denom = 255.0f;

	movss	xmm0, DWORD PTR __real@437f0000
	movss	DWORD PTR _Denom$[ebp], xmm0

; 153  : 	if( health > 100 )

	mov	eax, DWORD PTR _this$[ebp]
	cmp	DWORD PTR [eax+8], 100			; 00000064H
	jle	SHORT $LN16@Draw

; 154  : 		Denom = 500.0f; // make it less brighter so second bar would be more visible

	movss	xmm0, DWORD PTR __real@43fa0000
	movss	DWORD PTR _Denom$[ebp], xmm0
$LN16@Draw:

; 155  : 	gEngfuncs.pTriAPI->RenderMode( kRenderTransAdd );

	push	5
	mov	eax, DWORD PTR ?gEngfuncs@@3Ucl_enginefuncs_s@@A+328
	mov	ecx, DWORD PTR [eax+4]
	call	ecx
	add	esp, 4

; 156  : 	gEngfuncs.pTriAPI->Color4f( 1.0f, 1.0f, 1.0f, Transparency / Denom );

	movss	xmm0, DWORD PTR _Transparency$[ebp]
	divss	xmm0, DWORD PTR _Denom$[ebp]
	push	ecx
	movss	DWORD PTR [esp], xmm0
	push	ecx
	movss	xmm0, DWORD PTR __real@3f800000
	movss	DWORD PTR [esp], xmm0
	push	ecx
	movss	xmm0, DWORD PTR __real@3f800000
	movss	DWORD PTR [esp], xmm0
	push	ecx
	movss	xmm0, DWORD PTR __real@3f800000
	movss	DWORD PTR [esp], xmm0
	mov	eax, DWORD PTR ?gEngfuncs@@3Ucl_enginefuncs_s@@A+328
	mov	ecx, DWORD PTR [eax+16]
	call	ecx
	add	esp, 16					; 00000010H

; 157  : 	gEngfuncs.pTriAPI->CullFace( TRI_NONE );

	push	1
	mov	eax, DWORD PTR ?gEngfuncs@@3Ucl_enginefuncs_s@@A+328
	mov	ecx, DWORD PTR [eax+40]
	call	ecx
	add	esp, 4

; 158  : 	GL_SelectTexture( 0 );

	push	0
	call	DWORD PTR ?gRenderfuncs@@3Urender_api_s@@A+136
	add	esp, 4

; 159  : 	GL_Bind( 0, hptex2 );

	mov	eax, DWORD PTR _this$[ebp]
	mov	ecx, DWORD PTR [eax+24]
	push	ecx
	push	0
	call	DWORD PTR ?gRenderfuncs@@3Urender_api_s@@A+132
	add	esp, 8

; 160  : 
; 161  : 	float hp1 = bound( 0, health, 100 );

	mov	eax, DWORD PTR _this$[ebp]
	cmp	DWORD PTR [eax+8], 0
	jl	SHORT $LN25@Draw
	mov	ecx, DWORD PTR _this$[ebp]
	cmp	DWORD PTR [ecx+8], 100			; 00000064H
	jge	SHORT $LN23@Draw
	mov	edx, DWORD PTR _this$[ebp]
	mov	eax, DWORD PTR [edx+8]
	mov	DWORD PTR tv317[ebp], eax
	jmp	SHORT $LN24@Draw
$LN23@Draw:
	mov	DWORD PTR tv317[ebp], 100		; 00000064H
$LN24@Draw:
	mov	ecx, DWORD PTR tv317[ebp]
	mov	DWORD PTR tv318[ebp], ecx
	jmp	SHORT $LN26@Draw
$LN25@Draw:
	mov	DWORD PTR tv318[ebp], 0
$LN26@Draw:
	cvtsi2ss xmm0, DWORD PTR tv318[ebp]
	movss	DWORD PTR _hp1$[ebp], xmm0

; 162  : 	float newwidth = width * ( hp1 / 100.0f) * 2; // no idea how but it works

	movss	xmm0, DWORD PTR _hp1$[ebp]
	divss	xmm0, DWORD PTR __real@42c80000
	mulss	xmm0, DWORD PTR _width$[ebp]
	mulss	xmm0, DWORD PTR __real@40000000
	movss	DWORD PTR _newwidth$[ebp], xmm0

; 163  : 	float xmin = x - width;

	cvtsi2ss xmm0, DWORD PTR _x$[ebp]
	subss	xmm0, DWORD PTR _width$[ebp]
	movss	DWORD PTR _xmin$[ebp], xmm0

; 164  : 	float ymin = y - height;

	cvtsi2ss xmm0, DWORD PTR _y$[ebp]
	subss	xmm0, DWORD PTR _height$[ebp]
	movss	DWORD PTR _ymin$[ebp], xmm0

; 165  : 	float xmax = x - width + newwidth;

	cvtsi2ss xmm0, DWORD PTR _x$[ebp]
	subss	xmm0, DWORD PTR _width$[ebp]
	addss	xmm0, DWORD PTR _newwidth$[ebp]
	movss	DWORD PTR _xmax$[ebp], xmm0

; 166  : 	float ymax = y + height;

	cvtsi2ss xmm0, DWORD PTR _y$[ebp]
	addss	xmm0, DWORD PTR _height$[ebp]
	movss	DWORD PTR _ymax$[ebp], xmm0

; 167  : 	gEngfuncs.pTriAPI->Begin( TRI_QUADS );

	push	2
	mov	eax, DWORD PTR ?gEngfuncs@@3Ucl_enginefuncs_s@@A+328
	mov	ecx, DWORD PTR [eax+8]
	call	ecx
	add	esp, 4

; 168  : 	// top left
; 169  : 	gEngfuncs.pTriAPI->TexCoord2f( 0, 0 ); gEngfuncs.pTriAPI->Vertex3f( xmin, ymin, 0 );

	push	ecx
	xorps	xmm0, xmm0
	movss	DWORD PTR [esp], xmm0
	push	ecx
	xorps	xmm0, xmm0
	movss	DWORD PTR [esp], xmm0
	mov	eax, DWORD PTR ?gEngfuncs@@3Ucl_enginefuncs_s@@A+328
	mov	ecx, DWORD PTR [eax+24]
	call	ecx
	add	esp, 8
	push	ecx
	xorps	xmm0, xmm0
	movss	DWORD PTR [esp], xmm0
	push	ecx
	movss	xmm0, DWORD PTR _ymin$[ebp]
	movss	DWORD PTR [esp], xmm0
	push	ecx
	movss	xmm0, DWORD PTR _xmin$[ebp]
	movss	DWORD PTR [esp], xmm0
	mov	eax, DWORD PTR ?gEngfuncs@@3Ucl_enginefuncs_s@@A+328
	mov	ecx, DWORD PTR [eax+32]
	call	ecx
	add	esp, 12					; 0000000cH

; 170  : 	// bottom left
; 171  : 	gEngfuncs.pTriAPI->TexCoord2f( 0, 1 ); gEngfuncs.pTriAPI->Vertex3f( xmin, ymax, 0 );

	push	ecx
	movss	xmm0, DWORD PTR __real@3f800000
	movss	DWORD PTR [esp], xmm0
	push	ecx
	xorps	xmm0, xmm0
	movss	DWORD PTR [esp], xmm0
	mov	eax, DWORD PTR ?gEngfuncs@@3Ucl_enginefuncs_s@@A+328
	mov	ecx, DWORD PTR [eax+24]
	call	ecx
	add	esp, 8
	push	ecx
	xorps	xmm0, xmm0
	movss	DWORD PTR [esp], xmm0
	push	ecx
	movss	xmm0, DWORD PTR _ymax$[ebp]
	movss	DWORD PTR [esp], xmm0
	push	ecx
	movss	xmm0, DWORD PTR _xmin$[ebp]
	movss	DWORD PTR [esp], xmm0
	mov	eax, DWORD PTR ?gEngfuncs@@3Ucl_enginefuncs_s@@A+328
	mov	ecx, DWORD PTR [eax+32]
	call	ecx
	add	esp, 12					; 0000000cH

; 172  : 	// bottom right
; 173  : 	gEngfuncs.pTriAPI->TexCoord2f( (hp1 / 100.0f), 1 ); gEngfuncs.pTriAPI->Vertex3f( xmax, ymax, 0 );

	push	ecx
	movss	xmm0, DWORD PTR __real@3f800000
	movss	DWORD PTR [esp], xmm0
	movss	xmm0, DWORD PTR _hp1$[ebp]
	divss	xmm0, DWORD PTR __real@42c80000
	push	ecx
	movss	DWORD PTR [esp], xmm0
	mov	eax, DWORD PTR ?gEngfuncs@@3Ucl_enginefuncs_s@@A+328
	mov	ecx, DWORD PTR [eax+24]
	call	ecx
	add	esp, 8
	push	ecx
	xorps	xmm0, xmm0
	movss	DWORD PTR [esp], xmm0
	push	ecx
	movss	xmm0, DWORD PTR _ymax$[ebp]
	movss	DWORD PTR [esp], xmm0
	push	ecx
	movss	xmm0, DWORD PTR _xmax$[ebp]
	movss	DWORD PTR [esp], xmm0
	mov	eax, DWORD PTR ?gEngfuncs@@3Ucl_enginefuncs_s@@A+328
	mov	ecx, DWORD PTR [eax+32]
	call	ecx
	add	esp, 12					; 0000000cH

; 174  : 	// top right
; 175  : 	gEngfuncs.pTriAPI->TexCoord2f( (hp1 / 100.0f), 0 ); gEngfuncs.pTriAPI->Vertex3f( xmax, ymin, 0 );

	push	ecx
	xorps	xmm0, xmm0
	movss	DWORD PTR [esp], xmm0
	movss	xmm0, DWORD PTR _hp1$[ebp]
	divss	xmm0, DWORD PTR __real@42c80000
	push	ecx
	movss	DWORD PTR [esp], xmm0
	mov	eax, DWORD PTR ?gEngfuncs@@3Ucl_enginefuncs_s@@A+328
	mov	ecx, DWORD PTR [eax+24]
	call	ecx
	add	esp, 8
	push	ecx
	xorps	xmm0, xmm0
	movss	DWORD PTR [esp], xmm0
	push	ecx
	movss	xmm0, DWORD PTR _ymin$[ebp]
	movss	DWORD PTR [esp], xmm0
	push	ecx
	movss	xmm0, DWORD PTR _xmax$[ebp]
	movss	DWORD PTR [esp], xmm0
	mov	eax, DWORD PTR ?gEngfuncs@@3Ucl_enginefuncs_s@@A+328
	mov	ecx, DWORD PTR [eax+32]
	call	ecx
	add	esp, 12					; 0000000cH

; 176  : 	gEngfuncs.pTriAPI->End();

	mov	eax, DWORD PTR ?gEngfuncs@@3Ucl_enginefuncs_s@@A+328
	mov	ecx, DWORD PTR [eax+12]
	call	ecx

; 177  : 
; 178  : 	// draw same red bar on top
; 179  : 	if( health > 100 )

	mov	eax, DWORD PTR _this$[ebp]
	cmp	DWORD PTR [eax+8], 100			; 00000064H
	jle	$LN17@Draw

; 180  : 	{
; 181  : 		float hp2 = bound( 0, health - 100, 100 );

	mov	eax, DWORD PTR _this$[ebp]
	mov	ecx, DWORD PTR [eax+8]
	sub	ecx, 100				; 00000064H
	js	SHORT $LN29@Draw
	mov	edx, DWORD PTR _this$[ebp]
	mov	eax, DWORD PTR [edx+8]
	sub	eax, 100				; 00000064H
	cmp	eax, 100				; 00000064H
	jge	SHORT $LN27@Draw
	mov	ecx, DWORD PTR _this$[ebp]
	mov	edx, DWORD PTR [ecx+8]
	sub	edx, 100				; 00000064H
	mov	DWORD PTR tv377[ebp], edx
	jmp	SHORT $LN28@Draw
$LN27@Draw:
	mov	DWORD PTR tv377[ebp], 100		; 00000064H
$LN28@Draw:
	mov	eax, DWORD PTR tv377[ebp]
	mov	DWORD PTR tv378[ebp], eax
	jmp	SHORT $LN30@Draw
$LN29@Draw:
	mov	DWORD PTR tv378[ebp], 0
$LN30@Draw:
	cvtsi2ss xmm0, DWORD PTR tv378[ebp]
	movss	DWORD PTR _hp2$5[ebp], xmm0

; 182  : 		newwidth = width * (hp2 / 100.0f) * 2;

	movss	xmm0, DWORD PTR _hp2$5[ebp]
	divss	xmm0, DWORD PTR __real@42c80000
	mulss	xmm0, DWORD PTR _width$[ebp]
	mulss	xmm0, DWORD PTR __real@40000000
	movss	DWORD PTR _newwidth$[ebp], xmm0

; 183  : 		xmin = x - width;

	cvtsi2ss xmm0, DWORD PTR _x$[ebp]
	subss	xmm0, DWORD PTR _width$[ebp]
	movss	DWORD PTR _xmin$[ebp], xmm0

; 184  : 		ymin = y - height;

	cvtsi2ss xmm0, DWORD PTR _y$[ebp]
	subss	xmm0, DWORD PTR _height$[ebp]
	movss	DWORD PTR _ymin$[ebp], xmm0

; 185  : 		xmax = x - width + newwidth;

	cvtsi2ss xmm0, DWORD PTR _x$[ebp]
	subss	xmm0, DWORD PTR _width$[ebp]
	addss	xmm0, DWORD PTR _newwidth$[ebp]
	movss	DWORD PTR _xmax$[ebp], xmm0

; 186  : 		ymax = y + height;

	cvtsi2ss xmm0, DWORD PTR _y$[ebp]
	addss	xmm0, DWORD PTR _height$[ebp]
	movss	DWORD PTR _ymax$[ebp], xmm0

; 187  : 
; 188  : 		// draw the red health bar on top
; 189  : 		gEngfuncs.pTriAPI->RenderMode( kRenderTransAdd );

	push	5
	mov	eax, DWORD PTR ?gEngfuncs@@3Ucl_enginefuncs_s@@A+328
	mov	ecx, DWORD PTR [eax+4]
	call	ecx
	add	esp, 4

; 190  : 		gEngfuncs.pTriAPI->Color4f( 1.0f, 1.0f, 1.0f, Transparency / 255.0f );

	movss	xmm0, DWORD PTR _Transparency$[ebp]
	divss	xmm0, DWORD PTR __real@437f0000
	push	ecx
	movss	DWORD PTR [esp], xmm0
	push	ecx
	movss	xmm0, DWORD PTR __real@3f800000
	movss	DWORD PTR [esp], xmm0
	push	ecx
	movss	xmm0, DWORD PTR __real@3f800000
	movss	DWORD PTR [esp], xmm0
	push	ecx
	movss	xmm0, DWORD PTR __real@3f800000
	movss	DWORD PTR [esp], xmm0
	mov	eax, DWORD PTR ?gEngfuncs@@3Ucl_enginefuncs_s@@A+328
	mov	ecx, DWORD PTR [eax+16]
	call	ecx
	add	esp, 16					; 00000010H

; 191  : 		gEngfuncs.pTriAPI->CullFace( TRI_NONE );

	push	1
	mov	eax, DWORD PTR ?gEngfuncs@@3Ucl_enginefuncs_s@@A+328
	mov	ecx, DWORD PTR [eax+40]
	call	ecx
	add	esp, 4

; 192  : 		GL_SelectTexture( 0 );

	push	0
	call	DWORD PTR ?gRenderfuncs@@3Urender_api_s@@A+136
	add	esp, 4

; 193  : 		GL_Bind( 0, hptex2 );

	mov	eax, DWORD PTR _this$[ebp]
	mov	ecx, DWORD PTR [eax+24]
	push	ecx
	push	0
	call	DWORD PTR ?gRenderfuncs@@3Urender_api_s@@A+132
	add	esp, 8

; 194  : 
; 195  : 		
; 196  : 		gEngfuncs.pTriAPI->Begin( TRI_QUADS );

	push	2
	mov	eax, DWORD PTR ?gEngfuncs@@3Ucl_enginefuncs_s@@A+328
	mov	ecx, DWORD PTR [eax+8]
	call	ecx
	add	esp, 4

; 197  : 		// top left
; 198  : 		gEngfuncs.pTriAPI->TexCoord2f( 0, 0 ); gEngfuncs.pTriAPI->Vertex3f( xmin, ymin, 0 );

	push	ecx
	xorps	xmm0, xmm0
	movss	DWORD PTR [esp], xmm0
	push	ecx
	xorps	xmm0, xmm0
	movss	DWORD PTR [esp], xmm0
	mov	eax, DWORD PTR ?gEngfuncs@@3Ucl_enginefuncs_s@@A+328
	mov	ecx, DWORD PTR [eax+24]
	call	ecx
	add	esp, 8
	push	ecx
	xorps	xmm0, xmm0
	movss	DWORD PTR [esp], xmm0
	push	ecx
	movss	xmm0, DWORD PTR _ymin$[ebp]
	movss	DWORD PTR [esp], xmm0
	push	ecx
	movss	xmm0, DWORD PTR _xmin$[ebp]
	movss	DWORD PTR [esp], xmm0
	mov	eax, DWORD PTR ?gEngfuncs@@3Ucl_enginefuncs_s@@A+328
	mov	ecx, DWORD PTR [eax+32]
	call	ecx
	add	esp, 12					; 0000000cH

; 199  : 		// bottom left
; 200  : 		gEngfuncs.pTriAPI->TexCoord2f( 0, 1 ); gEngfuncs.pTriAPI->Vertex3f( xmin, ymax, 0 );

	push	ecx
	movss	xmm0, DWORD PTR __real@3f800000
	movss	DWORD PTR [esp], xmm0
	push	ecx
	xorps	xmm0, xmm0
	movss	DWORD PTR [esp], xmm0
	mov	eax, DWORD PTR ?gEngfuncs@@3Ucl_enginefuncs_s@@A+328
	mov	ecx, DWORD PTR [eax+24]
	call	ecx
	add	esp, 8
	push	ecx
	xorps	xmm0, xmm0
	movss	DWORD PTR [esp], xmm0
	push	ecx
	movss	xmm0, DWORD PTR _ymax$[ebp]
	movss	DWORD PTR [esp], xmm0
	push	ecx
	movss	xmm0, DWORD PTR _xmin$[ebp]
	movss	DWORD PTR [esp], xmm0
	mov	eax, DWORD PTR ?gEngfuncs@@3Ucl_enginefuncs_s@@A+328
	mov	ecx, DWORD PTR [eax+32]
	call	ecx
	add	esp, 12					; 0000000cH

; 201  : 		// bottom right
; 202  : 		gEngfuncs.pTriAPI->TexCoord2f( (hp2 / 100.0f), 1 ); gEngfuncs.pTriAPI->Vertex3f( xmax, ymax, 0 );

	push	ecx
	movss	xmm0, DWORD PTR __real@3f800000
	movss	DWORD PTR [esp], xmm0
	movss	xmm0, DWORD PTR _hp2$5[ebp]
	divss	xmm0, DWORD PTR __real@42c80000
	push	ecx
	movss	DWORD PTR [esp], xmm0
	mov	eax, DWORD PTR ?gEngfuncs@@3Ucl_enginefuncs_s@@A+328
	mov	ecx, DWORD PTR [eax+24]
	call	ecx
	add	esp, 8
	push	ecx
	xorps	xmm0, xmm0
	movss	DWORD PTR [esp], xmm0
	push	ecx
	movss	xmm0, DWORD PTR _ymax$[ebp]
	movss	DWORD PTR [esp], xmm0
	push	ecx
	movss	xmm0, DWORD PTR _xmax$[ebp]
	movss	DWORD PTR [esp], xmm0
	mov	eax, DWORD PTR ?gEngfuncs@@3Ucl_enginefuncs_s@@A+328
	mov	ecx, DWORD PTR [eax+32]
	call	ecx
	add	esp, 12					; 0000000cH

; 203  : 		// top right
; 204  : 		gEngfuncs.pTriAPI->TexCoord2f( (hp2 / 100.0f), 0 ); gEngfuncs.pTriAPI->Vertex3f( xmax, ymin, 0 );

	push	ecx
	xorps	xmm0, xmm0
	movss	DWORD PTR [esp], xmm0
	movss	xmm0, DWORD PTR _hp2$5[ebp]
	divss	xmm0, DWORD PTR __real@42c80000
	push	ecx
	movss	DWORD PTR [esp], xmm0
	mov	eax, DWORD PTR ?gEngfuncs@@3Ucl_enginefuncs_s@@A+328
	mov	ecx, DWORD PTR [eax+24]
	call	ecx
	add	esp, 8
	push	ecx
	xorps	xmm0, xmm0
	movss	DWORD PTR [esp], xmm0
	push	ecx
	movss	xmm0, DWORD PTR _ymin$[ebp]
	movss	DWORD PTR [esp], xmm0
	push	ecx
	movss	xmm0, DWORD PTR _xmax$[ebp]
	movss	DWORD PTR [esp], xmm0
	mov	eax, DWORD PTR ?gEngfuncs@@3Ucl_enginefuncs_s@@A+328
	mov	ecx, DWORD PTR [eax+32]
	call	ecx
	add	esp, 12					; 0000000cH

; 205  : 		gEngfuncs.pTriAPI->End();

	mov	eax, DWORD PTR ?gEngfuncs@@3Ucl_enginefuncs_s@@A+328
	mov	ecx, DWORD PTR [eax+12]
	call	ecx
$LN17@Draw:

; 206  : 	}
; 207  : 
; 208  : 	return 1;

	mov	eax, 1
$LN1@Draw:

; 209  : }

	pop	edi
	pop	esi
	pop	ebx
	mov	esp, ebp
	pop	ebp
	ret	4
?Draw@CHealthbars@@UAEHM@Z ENDP				; CHealthbars::Draw
_TEXT	ENDS
; Function compile flags: /Odtp /ZI
; File d:\!diffusion 2020\source code 2022\client-server\client\healthbars.cpp
;	COMDAT ?VidInit@CHealthbars@@UAEHXZ
_TEXT	SEGMENT
_bar_fullh$ = -12					; size = 4
_bar_emptyh$ = -8					; size = 4
_this$ = -4						; size = 4
?VidInit@CHealthbars@@UAEHXZ PROC			; CHealthbars::VidInit, COMDAT
; _this$ = ecx

; 26   : {

	push	ebp
	mov	ebp, esp
	sub	esp, 76					; 0000004cH
	push	ebx
	push	esi
	push	edi
	mov	DWORD PTR _this$[ebp], ecx

; 27   : 	int bar_emptyh = gHUD.GetSpriteIndex( "health_empty" );

	push	OFFSET ??_C@_0N@MKHGDJGD@health_empty?$AA@
	mov	ecx, OFFSET ?gHUD@@3VCHud@@A		; gHUD
	call	?GetSpriteIndex@CHud@@QAEHPBD@Z		; CHud::GetSpriteIndex
	mov	DWORD PTR _bar_emptyh$[ebp], eax

; 28   : 	int bar_fullh = gHUD.GetSpriteIndex( "health_full" );

	push	OFFSET ??_C@_0M@KAAIOHIE@health_full?$AA@
	mov	ecx, OFFSET ?gHUD@@3VCHud@@A		; gHUD
	call	?GetSpriteIndex@CHud@@QAEHPBD@Z		; CHud::GetSpriteIndex
	mov	DWORD PTR _bar_fullh$[ebp], eax

; 29   : 	m_hBarEmpty = gHUD.GetSprite( bar_emptyh );

	mov	eax, DWORD PTR _bar_emptyh$[ebp]
	push	eax
	mov	ecx, OFFSET ?gHUD@@3VCHud@@A		; gHUD
	call	?GetSprite@CHud@@QAEHH@Z		; CHud::GetSprite
	mov	ecx, DWORD PTR _this$[ebp]
	mov	DWORD PTR [ecx+32], eax

; 30   : 	m_hBarFull = gHUD.GetSprite( bar_fullh );

	mov	eax, DWORD PTR _bar_fullh$[ebp]
	push	eax
	mov	ecx, OFFSET ?gHUD@@3VCHud@@A		; gHUD
	call	?GetSprite@CHud@@QAEHH@Z		; CHud::GetSprite
	mov	ecx, DWORD PTR _this$[ebp]
	mov	DWORD PTR [ecx+36], eax

; 31   : 	m_prc_emp = &gHUD.GetSpriteRect( bar_emptyh );

	mov	eax, DWORD PTR _bar_emptyh$[ebp]
	push	eax
	mov	ecx, OFFSET ?gHUD@@3VCHud@@A		; gHUD
	call	?GetSpriteRect@CHud@@QAEAAUwrect_s@@H@Z	; CHud::GetSpriteRect
	mov	ecx, DWORD PTR _this$[ebp]
	mov	DWORD PTR [ecx+40], eax

; 32   : 	m_prc_full = &gHUD.GetSpriteRect( bar_fullh );

	mov	eax, DWORD PTR _bar_fullh$[ebp]
	push	eax
	mov	ecx, OFFSET ?gHUD@@3VCHud@@A		; gHUD
	call	?GetSpriteRect@CHud@@QAEAAUwrect_s@@H@Z	; CHud::GetSpriteRect
	mov	ecx, DWORD PTR _this$[ebp]
	mov	DWORD PTR [ecx+44], eax

; 33   : 	m_iBarWidth = m_prc_full->right - m_prc_full->left;

	mov	eax, DWORD PTR _this$[ebp]
	mov	ecx, DWORD PTR [eax+44]
	mov	edx, DWORD PTR _this$[ebp]
	mov	eax, DWORD PTR [edx+44]
	mov	ecx, DWORD PTR [ecx+4]
	sub	ecx, DWORD PTR [eax]
	mov	edx, DWORD PTR _this$[ebp]
	mov	DWORD PTR [edx+48], ecx

; 34   : 	entindex = 0;

	mov	eax, DWORD PTR _this$[ebp]
	mov	DWORD PTR [eax+16], 0

; 35   : 	
; 36   : 	return 1;

	mov	eax, 1

; 37   : }

	pop	edi
	pop	esi
	pop	ebx
	mov	esp, ebp
	pop	ebp
	ret	0
?VidInit@CHealthbars@@UAEHXZ ENDP			; CHealthbars::VidInit
_TEXT	ENDS
; Function compile flags: /Odtp /ZI
; File d:\!diffusion 2020\source code 2022\client-server\client\healthbars.cpp
;	COMDAT ?Init@CHealthbars@@UAEHXZ
_TEXT	SEGMENT
_this$ = -4						; size = 4
?Init@CHealthbars@@UAEHXZ PROC				; CHealthbars::Init, COMDAT
; _this$ = ecx

; 19   : {

	push	ebp
	mov	ebp, esp
	sub	esp, 68					; 00000044H
	push	ebx
	push	esi
	push	edi
	mov	DWORD PTR _this$[ebp], ecx

; 20   : 	HOOK_MESSAGE( Healthbars );

	push	OFFSET ?__MsgFunc_Healthbars@@YAHPBDHPAX@Z ; __MsgFunc_Healthbars
	push	OFFSET ??_C@_0L@MMOOACNB@Healthbars?$AA@
	call	DWORD PTR ?gEngfuncs@@3Ucl_enginefuncs_s@@A+72
	add	esp, 8

; 21   : 	gHUD.AddHudElem( this );

	mov	eax, DWORD PTR _this$[ebp]
	push	eax
	mov	ecx, OFFSET ?gHUD@@3VCHud@@A		; gHUD
	call	?AddHudElem@CHud@@QAEXPAVCHudBase@@@Z	; CHud::AddHudElem

; 22   : 	return 1;

	mov	eax, 1

; 23   : }

	pop	edi
	pop	esi
	pop	ebx
	mov	esp, ebp
	pop	ebp
	ret	0
?Init@CHealthbars@@UAEHXZ ENDP				; CHealthbars::Init
_TEXT	ENDS
; Function compile flags: /Odtp /ZI
; File d:\!diffusion 2020\source code 2022\client-server\game_shared\vector.h
;	COMDAT ??BVector@@QAEPAMXZ
_TEXT	SEGMENT
_this$ = -4						; size = 4
??BVector@@QAEPAMXZ PROC				; Vector::operator float *, COMDAT
; _this$ = ecx

; 247  : 	operator float *()				{ return &x; } // Vectors will now automatically convert to float * when needed

	push	ebp
	mov	ebp, esp
	sub	esp, 68					; 00000044H
	push	ebx
	push	esi
	push	edi
	mov	DWORD PTR _this$[ebp], ecx
	mov	eax, DWORD PTR _this$[ebp]
	pop	edi
	pop	esi
	pop	ebx
	mov	esp, ebp
	pop	ebp
	ret	0
??BVector@@QAEPAMXZ ENDP				; Vector::operator float *
_TEXT	ENDS
; Function compile flags: /Odtp /ZI
; File d:\!diffusion 2020\source code 2022\client-server\game_shared\vector.h
;	COMDAT ?Length@Vector@@QBEMXZ
_TEXT	SEGMENT
tv91 = -72						; size = 4
_this$ = -4						; size = 4
?Length@Vector@@QBEMXZ PROC				; Vector::Length, COMDAT
; _this$ = ecx

; 245  : 	inline float Length(void) const		{ return sqrt( x*x + y*y + z*z ); }

	push	ebp
	mov	ebp, esp
	sub	esp, 72					; 00000048H
	push	ebx
	push	esi
	push	edi
	mov	DWORD PTR _this$[ebp], ecx
	mov	eax, DWORD PTR _this$[ebp]
	mov	ecx, DWORD PTR _this$[ebp]
	movss	xmm0, DWORD PTR [eax]
	mulss	xmm0, DWORD PTR [ecx]
	mov	edx, DWORD PTR _this$[ebp]
	mov	eax, DWORD PTR _this$[ebp]
	movss	xmm1, DWORD PTR [edx+4]
	mulss	xmm1, DWORD PTR [eax+4]
	addss	xmm0, xmm1
	mov	ecx, DWORD PTR _this$[ebp]
	mov	edx, DWORD PTR _this$[ebp]
	movss	xmm1, DWORD PTR [ecx+8]
	mulss	xmm1, DWORD PTR [edx+8]
	addss	xmm0, xmm1
	cvtss2sd xmm0, xmm0
	sub	esp, 8
	movsd	QWORD PTR [esp], xmm0
	call	_sqrt
	add	esp, 8
	fstp	DWORD PTR tv91[ebp]
	fld	DWORD PTR tv91[ebp]
	pop	edi
	pop	esi
	pop	ebx
	mov	esp, ebp
	pop	ebp
	ret	0
?Length@Vector@@QBEMXZ ENDP				; Vector::Length
_TEXT	ENDS
; Function compile flags: /Odtp /ZI
; File d:\!diffusion 2020\source code 2022\client-server\game_shared\vector.h
;	COMDAT ??KVector@@QBE?AV0@M@Z
_TEXT	SEGMENT
_this$ = -4						; size = 4
___$ReturnUdt$ = 8					; size = 4
_fl$ = 12						; size = 4
??KVector@@QBE?AV0@M@Z PROC				; Vector::operator/, COMDAT
; _this$ = ecx

; 163  : 	inline Vector operator/(float fl) const		{ return Vector(x/fl, y/fl, z/fl);	   }

	push	ebp
	mov	ebp, esp
	sub	esp, 68					; 00000044H
	push	ebx
	push	esi
	push	edi
	mov	DWORD PTR _this$[ebp], ecx
	mov	eax, DWORD PTR _this$[ebp]
	movss	xmm0, DWORD PTR [eax+8]
	divss	xmm0, DWORD PTR _fl$[ebp]
	push	ecx
	movss	DWORD PTR [esp], xmm0
	mov	ecx, DWORD PTR _this$[ebp]
	movss	xmm0, DWORD PTR [ecx+4]
	divss	xmm0, DWORD PTR _fl$[ebp]
	push	ecx
	movss	DWORD PTR [esp], xmm0
	mov	edx, DWORD PTR _this$[ebp]
	movss	xmm0, DWORD PTR [edx]
	divss	xmm0, DWORD PTR _fl$[ebp]
	push	ecx
	movss	DWORD PTR [esp], xmm0
	mov	ecx, DWORD PTR ___$ReturnUdt$[ebp]
	call	??0Vector@@QAE@MMM@Z			; Vector::Vector
	mov	eax, DWORD PTR ___$ReturnUdt$[ebp]
	pop	edi
	pop	esi
	pop	ebx
	mov	esp, ebp
	pop	ebp
	ret	8
??KVector@@QBE?AV0@M@Z ENDP				; Vector::operator/
_TEXT	ENDS
; Function compile flags: /Odtp /ZI
; File d:\!diffusion 2020\source code 2022\client-server\game_shared\vector.h
;	COMDAT ??GVector@@QBE?AV0@ABV0@@Z
_TEXT	SEGMENT
_this$ = -4						; size = 4
___$ReturnUdt$ = 8					; size = 4
_v$ = 12						; size = 4
??GVector@@QBE?AV0@ABV0@@Z PROC				; Vector::operator-, COMDAT
; _this$ = ecx

; 159  : 	inline Vector operator-(const Vector& v) const	{ return Vector(x-v.x, y-v.y, z-v.z);	   }

	push	ebp
	mov	ebp, esp
	sub	esp, 68					; 00000044H
	push	ebx
	push	esi
	push	edi
	mov	DWORD PTR _this$[ebp], ecx
	mov	eax, DWORD PTR _this$[ebp]
	mov	ecx, DWORD PTR _v$[ebp]
	movss	xmm0, DWORD PTR [eax+8]
	subss	xmm0, DWORD PTR [ecx+8]
	push	ecx
	movss	DWORD PTR [esp], xmm0
	mov	edx, DWORD PTR _this$[ebp]
	mov	eax, DWORD PTR _v$[ebp]
	movss	xmm0, DWORD PTR [edx+4]
	subss	xmm0, DWORD PTR [eax+4]
	push	ecx
	movss	DWORD PTR [esp], xmm0
	mov	ecx, DWORD PTR _this$[ebp]
	mov	edx, DWORD PTR _v$[ebp]
	movss	xmm0, DWORD PTR [ecx]
	subss	xmm0, DWORD PTR [edx]
	push	ecx
	movss	DWORD PTR [esp], xmm0
	mov	ecx, DWORD PTR ___$ReturnUdt$[ebp]
	call	??0Vector@@QAE@MMM@Z			; Vector::Vector
	mov	eax, DWORD PTR ___$ReturnUdt$[ebp]
	pop	edi
	pop	esi
	pop	ebx
	mov	esp, ebp
	pop	ebp
	ret	8
??GVector@@QBE?AV0@ABV0@@Z ENDP				; Vector::operator-
_TEXT	ENDS
; Function compile flags: /Odtp /ZI
; File d:\!diffusion 2020\source code 2022\client-server\game_shared\vector.h
;	COMDAT ??HVector@@QBE?AV0@ABV0@@Z
_TEXT	SEGMENT
_this$ = -4						; size = 4
___$ReturnUdt$ = 8					; size = 4
_v$ = 12						; size = 4
??HVector@@QBE?AV0@ABV0@@Z PROC				; Vector::operator+, COMDAT
; _this$ = ecx

; 158  : 	inline Vector operator+(const Vector& v) const	{ return Vector(x+v.x, y+v.y, z+v.z);	   }

	push	ebp
	mov	ebp, esp
	sub	esp, 68					; 00000044H
	push	ebx
	push	esi
	push	edi
	mov	DWORD PTR _this$[ebp], ecx
	mov	eax, DWORD PTR _this$[ebp]
	mov	ecx, DWORD PTR _v$[ebp]
	movss	xmm0, DWORD PTR [eax+8]
	addss	xmm0, DWORD PTR [ecx+8]
	push	ecx
	movss	DWORD PTR [esp], xmm0
	mov	edx, DWORD PTR _this$[ebp]
	mov	eax, DWORD PTR _v$[ebp]
	movss	xmm0, DWORD PTR [edx+4]
	addss	xmm0, DWORD PTR [eax+4]
	push	ecx
	movss	DWORD PTR [esp], xmm0
	mov	ecx, DWORD PTR _this$[ebp]
	mov	edx, DWORD PTR _v$[ebp]
	movss	xmm0, DWORD PTR [ecx]
	addss	xmm0, DWORD PTR [edx]
	push	ecx
	movss	DWORD PTR [esp], xmm0
	mov	ecx, DWORD PTR ___$ReturnUdt$[ebp]
	call	??0Vector@@QAE@MMM@Z			; Vector::Vector
	mov	eax, DWORD PTR ___$ReturnUdt$[ebp]
	pop	edi
	pop	esi
	pop	ebx
	mov	esp, ebp
	pop	ebp
	ret	8
??HVector@@QBE?AV0@ABV0@@Z ENDP				; Vector::operator+
_TEXT	ENDS
; Function compile flags: /Odtp /ZI
; File d:\!diffusion 2020\source code 2022\client-server\game_shared\vector.h
;	COMDAT ??0Vector@@QAE@MMM@Z
_TEXT	SEGMENT
_this$ = -4						; size = 4
_X$ = 8							; size = 4
_Y$ = 12						; size = 4
_Z$ = 16						; size = 4
??0Vector@@QAE@MMM@Z PROC				; Vector::Vector, COMDAT
; _this$ = ecx

; 144  : 	inline Vector(float X, float Y, float Z)	{ x = X; y = Y; z = Z;                     }

	push	ebp
	mov	ebp, esp
	sub	esp, 68					; 00000044H
	push	ebx
	push	esi
	push	edi
	mov	DWORD PTR _this$[ebp], ecx
	mov	eax, DWORD PTR _this$[ebp]
	movss	xmm0, DWORD PTR _X$[ebp]
	movss	DWORD PTR [eax], xmm0
	mov	eax, DWORD PTR _this$[ebp]
	movss	xmm0, DWORD PTR _Y$[ebp]
	movss	DWORD PTR [eax+4], xmm0
	mov	eax, DWORD PTR _this$[ebp]
	movss	xmm0, DWORD PTR _Z$[ebp]
	movss	DWORD PTR [eax+8], xmm0
	mov	eax, DWORD PTR _this$[ebp]
	pop	edi
	pop	esi
	pop	ebx
	mov	esp, ebp
	pop	ebp
	ret	12					; 0000000cH
??0Vector@@QAE@MMM@Z ENDP				; Vector::Vector
_TEXT	ENDS
; Function compile flags: /Odtp /ZI
; File d:\!diffusion 2020\source code 2022\client-server\game_shared\vector.h
;	COMDAT ??0Vector@@QAE@XZ
_TEXT	SEGMENT
_this$ = -4						; size = 4
??0Vector@@QAE@XZ PROC					; Vector::Vector, COMDAT
; _this$ = ecx

; 143  : 	inline Vector(void)				{ }

	push	ebp
	mov	ebp, esp
	sub	esp, 68					; 00000044H
	push	ebx
	push	esi
	push	edi
	mov	DWORD PTR _this$[ebp], ecx
	mov	eax, DWORD PTR _this$[ebp]
	pop	edi
	pop	esi
	pop	ebx
	mov	esp, ebp
	pop	ebp
	ret	0
??0Vector@@QAE@XZ ENDP					; Vector::Vector
_TEXT	ENDS
; Function compile flags: /Odtp /ZI
;	COMDAT ??__G@YGXPAX0IIP6EPAX00@Z@Z
_TEXT	SEGMENT
tv66 = -68						; size = 4
___t$ = 8						; size = 4
___u$ = 12						; size = 4
___s$ = 16						; size = 4
___n$ = 20						; size = 4
___f$ = 24						; size = 4
??__G@YGXPAX0IIP6EPAX00@Z@Z PROC			; `vector copy constructor iterator', COMDAT
	push	ebp
	mov	ebp, esp
	sub	esp, 68					; 00000044H
	push	ebx
	push	esi
	push	edi
$LN2@vector:
	mov	eax, DWORD PTR ___n$[ebp]
	mov	DWORD PTR tv66[ebp], eax
	mov	ecx, DWORD PTR ___n$[ebp]
	sub	ecx, 1
	mov	DWORD PTR ___n$[ebp], ecx
	cmp	DWORD PTR tv66[ebp], 0
	jbe	SHORT $LN1@vector
	mov	eax, DWORD PTR ___u$[ebp]
	push	eax
	mov	ecx, DWORD PTR ___t$[ebp]
	call	DWORD PTR ___f$[ebp]
	mov	eax, DWORD PTR ___t$[ebp]
	add	eax, DWORD PTR ___s$[ebp]
	mov	DWORD PTR ___t$[ebp], eax
	mov	eax, DWORD PTR ___u$[ebp]
	add	eax, DWORD PTR ___s$[ebp]
	mov	DWORD PTR ___u$[ebp], eax
	jmp	SHORT $LN2@vector
$LN1@vector:
	pop	edi
	pop	esi
	pop	ebx
	mov	esp, ebp
	pop	ebp
	ret	20					; 00000014H
??__G@YGXPAX0IIP6EPAX00@Z@Z ENDP			; `vector copy constructor iterator'
_TEXT	ENDS
; Function compile flags: /Odtp /ZI
;	COMDAT ??_H@YGXPAXIIP6EPAX0@Z@Z
_TEXT	SEGMENT
tv66 = -68						; size = 4
___t$ = 8						; size = 4
___s$ = 12						; size = 4
___n$ = 16						; size = 4
___f$ = 20						; size = 4
??_H@YGXPAXIIP6EPAX0@Z@Z PROC				; `vector constructor iterator', COMDAT
	push	ebp
	mov	ebp, esp
	sub	esp, 68					; 00000044H
	push	ebx
	push	esi
	push	edi
$LN2@vector:
	mov	eax, DWORD PTR ___n$[ebp]
	mov	DWORD PTR tv66[ebp], eax
	mov	ecx, DWORD PTR ___n$[ebp]
	sub	ecx, 1
	mov	DWORD PTR ___n$[ebp], ecx
	cmp	DWORD PTR tv66[ebp], 0
	jbe	SHORT $LN1@vector
	mov	ecx, DWORD PTR ___t$[ebp]
	call	DWORD PTR ___f$[ebp]
	mov	eax, DWORD PTR ___t$[ebp]
	add	eax, DWORD PTR ___s$[ebp]
	mov	DWORD PTR ___t$[ebp], eax
	jmp	SHORT $LN2@vector
$LN1@vector:
	pop	edi
	pop	esi
	pop	ebx
	mov	esp, ebp
	pop	ebp
	ret	16					; 00000010H
??_H@YGXPAXIIP6EPAX0@Z@Z ENDP				; `vector constructor iterator'
_TEXT	ENDS
END
