; Listing generated by Microsoft (R) Optimizing Compiler Version 19.00.24247.2 

	TITLE	D:\!DIFFUSION 2020\source code 2022\client-server\client\hud.cpp
	.686P
	.XMM
	include listing.inc
	.model	flat

INCLUDELIB LIBCMT
INCLUDELIB OLDNAMES

PUBLIC	?g_bDuckToggled@@3_NA				; g_bDuckToggled
_BSS	SEGMENT
?g_bDuckToggled@@3_NA DB 01H DUP (?)			; g_bDuckToggled
_BSS	ENDS
PUBLIC	??_H@YGXPAXIIP6EPAX0@Z@Z			; `vector constructor iterator'
PUBLIC	??__G@YGXPAX0IIP6EPAX00@Z@Z			; `vector copy constructor iterator'
PUBLIC	??1CHudBase@@UAE@XZ				; CHudBase::~CHudBase
PUBLIC	?Init@CHudBase@@UAEHXZ				; CHudBase::Init
PUBLIC	?VidInit@CHudBase@@UAEHXZ			; CHudBase::VidInit
PUBLIC	?Draw@CHudBase@@UAEHM@Z				; CHudBase::Draw
PUBLIC	?Think@CHudBase@@UAEXXZ				; CHudBase::Think
PUBLIC	?Reset@CHudBase@@UAEXXZ				; CHudBase::Reset
PUBLIC	?InitHUDData@CHudBase@@UAEXXZ			; CHudBase::InitHUDData
PUBLIC	??_GCHudBase@@UAEPAXI@Z				; CHudBase::`scalar deleting destructor'
PUBLIC	??1CHudAmmo@@UAE@XZ				; CHudAmmo::~CHudAmmo
PUBLIC	??1CHudAmmoSecondary@@UAE@XZ			; CHudAmmoSecondary::~CHudAmmoSecondary
PUBLIC	??1CHudHealth@@UAE@XZ				; CHudHealth::~CHudHealth
PUBLIC	??1CHudGeiger@@UAE@XZ				; CHudGeiger::~CHudGeiger
PUBLIC	??1CHudLensflare@@UAE@XZ			; CHudLensflare::~CHudLensflare
PUBLIC	??1CHudTrain@@UAE@XZ				; CHudTrain::~CHudTrain
PUBLIC	??1CHudMOTD@@UAE@XZ				; CHudMOTD::~CHudMOTD
PUBLIC	??1CHudScoreboard@@UAE@XZ			; CHudScoreboard::~CHudScoreboard
PUBLIC	??1CHudStatusBar@@UAE@XZ			; CHudStatusBar::~CHudStatusBar
PUBLIC	??1CHudDeathNotice@@UAE@XZ			; CHudDeathNotice::~CHudDeathNotice
PUBLIC	??1CHudMenu@@UAE@XZ				; CHudMenu::~CHudMenu
PUBLIC	??1CHudSayText@@UAE@XZ				; CHudSayText::~CHudSayText
PUBLIC	??1CHudFlashlight@@UAE@XZ			; CHudFlashlight::~CHudFlashlight
PUBLIC	??1CHudStamina@@UAE@XZ				; CHudStamina::~CHudStamina
PUBLIC	??1CHudHealthVisual@@UAE@XZ			; CHudHealthVisual::~CHudHealthVisual
PUBLIC	??1CHudTextMessage@@UAE@XZ			; CHudTextMessage::~CHudTextMessage
PUBLIC	??1CHudMessage@@UAE@XZ				; CHudMessage::~CHudMessage
PUBLIC	??1CHudStatusIcons@@UAE@XZ			; CHudStatusIcons::~CHudStatusIcons
PUBLIC	??1CHudTutorial@@UAE@XZ				; CHudTutorial::~CHudTutorial
PUBLIC	??1CHudAchievement@@UAE@XZ			; CHudAchievement::~CHudAchievement
PUBLIC	??1CHudCrosshairStatic@@UAE@XZ			; CHudCrosshairStatic::~CHudCrosshairStatic
PUBLIC	??1CZoom@@UAE@XZ				; CZoom::~CZoom
PUBLIC	??1CHudBlastIcons@@UAE@XZ			; CHudBlastIcons::~CHudBlastIcons
PUBLIC	??1CHudCodeInput@@UAE@XZ			; CHudCodeInput::~CHudCodeInput
PUBLIC	??1CScreenEffects@@UAE@XZ			; CScreenEffects::~CScreenEffects
PUBLIC	??1CHealthbars@@UAE@XZ				; CHealthbars::~CHealthbars
PUBLIC	??1CUseIcon@@UAE@XZ				; CUseIcon::~CUseIcon
PUBLIC	?GetSprite@CHud@@QAEHH@Z			; CHud::GetSprite
PUBLIC	?GetSpriteIndex@CHud@@QAEHPBD@Z			; CHud::GetSpriteIndex
PUBLIC	?Init@CHud@@QAEXXZ				; CHud::Init
PUBLIC	?VidInit@CHud@@QAEXXZ				; CHud::VidInit
PUBLIC	??1CHud@@QAE@XZ					; CHud::~CHud
PUBLIC	?AddHudElem@CHud@@QAEXPAVCHudBase@@@Z		; CHud::AddHudElem
PUBLIC	??_7CHudBase@@6B@				; CHudBase::`vftable'
PUBLIC	??_C@_0BA@ICAOBHNB@sprites?1hud?4txt?$AA@	; `string'
PUBLIC	??_C@_0P@HEMMIFBG@sprites?1?$CFs?4spr?$AA@	; `string'
PUBLIC	??_C@_0BH@GIMMKEAM@hud?4txt?5couldn?8t?5load?6?$AA@ ; `string'
PUBLIC	??_C@_08OOPIGCLD@number_0?$AA@			; `string'
PUBLIC	??_C@_05KKCIMGE@error?$AA@			; `string'
PUBLIC	??_R4CHudBase@@6B@				; CHudBase::`RTTI Complete Object Locator'
PUBLIC	??_R0?AVCHudBase@@@8				; CHudBase `RTTI Type Descriptor'
PUBLIC	??_R3CHudBase@@8				; CHudBase::`RTTI Class Hierarchy Descriptor'
PUBLIC	??_R2CHudBase@@8				; CHudBase::`RTTI Base Class Array'
PUBLIC	??_R1A@?0A@EA@CHudBase@@8			; CHudBase::`RTTI Base Class Descriptor at (0,-1,0,64)'
EXTRN	??3@YAXPAXI@Z:PROC				; operator delete
EXTRN	??_U@YAPAXI@Z:PROC				; operator new[]
EXTRN	??_V@YAXPAX@Z:PROC				; operator delete[]
EXTRN	_memset:PROC
EXTRN	_free:PROC
EXTRN	_malloc:PROC
EXTRN	?Q_strncpy@@YAIPADPBDI@Z:PROC			; Q_strncpy
EXTRN	?Q_strncmp@@YAHPBD0H@Z:PROC			; Q_strncmp
EXTRN	?Q_snprintf@@YAHPADIPBDZZ:PROC			; Q_snprintf
EXTRN	??_ECHudBase@@UAEPAXI@Z:PROC			; CHudBase::`vector deleting destructor'
EXTRN	?InitHUDMessages@CHud@@QAEHXZ:PROC		; CHud::InitHUDMessages
EXTRN	?ALERT@@YAXW4ALERT_TYPE@@PADZZ:PROC		; ALERT
EXTRN	@__security_check_cookie@4:PROC
EXTRN	?gEngfuncs@@3Ucl_enginefuncs_s@@A:BYTE		; gEngfuncs
EXTRN	?gHUD@@3VCHud@@A:BYTE				; gHUD
EXTRN	??_7type_info@@6B@:QWORD			; type_info::`vftable'
EXTRN	___security_cookie:DWORD
EXTRN	__fltused:DWORD
;	COMDAT ??_R1A@?0A@EA@CHudBase@@8
rdata$r	SEGMENT
??_R1A@?0A@EA@CHudBase@@8 DD FLAT:??_R0?AVCHudBase@@@8	; CHudBase::`RTTI Base Class Descriptor at (0,-1,0,64)'
	DD	00H
	DD	00H
	DD	0ffffffffH
	DD	00H
	DD	040H
	DD	FLAT:??_R3CHudBase@@8
rdata$r	ENDS
;	COMDAT ??_R2CHudBase@@8
rdata$r	SEGMENT
??_R2CHudBase@@8 DD FLAT:??_R1A@?0A@EA@CHudBase@@8	; CHudBase::`RTTI Base Class Array'
rdata$r	ENDS
;	COMDAT ??_R3CHudBase@@8
rdata$r	SEGMENT
??_R3CHudBase@@8 DD 00H					; CHudBase::`RTTI Class Hierarchy Descriptor'
	DD	00H
	DD	01H
	DD	FLAT:??_R2CHudBase@@8
rdata$r	ENDS
;	COMDAT ??_R0?AVCHudBase@@@8
data$r	SEGMENT
??_R0?AVCHudBase@@@8 DD FLAT:??_7type_info@@6B@		; CHudBase `RTTI Type Descriptor'
	DD	00H
	DB	'.?AVCHudBase@@', 00H
data$r	ENDS
;	COMDAT ??_R4CHudBase@@6B@
rdata$r	SEGMENT
??_R4CHudBase@@6B@ DD 00H				; CHudBase::`RTTI Complete Object Locator'
	DD	00H
	DD	00H
	DD	FLAT:??_R0?AVCHudBase@@@8
	DD	FLAT:??_R3CHudBase@@8
rdata$r	ENDS
;	COMDAT ??_C@_05KKCIMGE@error?$AA@
CONST	SEGMENT
??_C@_05KKCIMGE@error?$AA@ DB 'error', 00H		; `string'
CONST	ENDS
;	COMDAT ??_C@_08OOPIGCLD@number_0?$AA@
CONST	SEGMENT
??_C@_08OOPIGCLD@number_0?$AA@ DB 'number_0', 00H	; `string'
CONST	ENDS
;	COMDAT ??_C@_0BH@GIMMKEAM@hud?4txt?5couldn?8t?5load?6?$AA@
CONST	SEGMENT
??_C@_0BH@GIMMKEAM@hud?4txt?5couldn?8t?5load?6?$AA@ DB 'hud.txt couldn''t'
	DB	' load', 0aH, 00H				; `string'
CONST	ENDS
;	COMDAT ??_C@_0P@HEMMIFBG@sprites?1?$CFs?4spr?$AA@
CONST	SEGMENT
??_C@_0P@HEMMIFBG@sprites?1?$CFs?4spr?$AA@ DB 'sprites/%s.spr', 00H ; `string'
CONST	ENDS
;	COMDAT ??_C@_0BA@ICAOBHNB@sprites?1hud?4txt?$AA@
CONST	SEGMENT
??_C@_0BA@ICAOBHNB@sprites?1hud?4txt?$AA@ DB 'sprites/hud.txt', 00H ; `string'
CONST	ENDS
;	COMDAT ??_7CHudBase@@6B@
CONST	SEGMENT
??_7CHudBase@@6B@ DD FLAT:??_R4CHudBase@@6B@		; CHudBase::`vftable'
	DD	FLAT:??_ECHudBase@@UAEPAXI@Z
	DD	FLAT:?Init@CHudBase@@UAEHXZ
	DD	FLAT:?VidInit@CHudBase@@UAEHXZ
	DD	FLAT:?Draw@CHudBase@@UAEHM@Z
	DD	FLAT:?Think@CHudBase@@UAEXXZ
	DD	FLAT:?Reset@CHudBase@@UAEXXZ
	DD	FLAT:?InitHUDData@CHudBase@@UAEXXZ
CONST	ENDS
; Function compile flags: /Odtp /ZI
; File d:\!diffusion 2020\source code 2022\client-server\client\hud.cpp
;	COMDAT ?AddHudElem@CHud@@QAEXPAVCHudBase@@@Z
_TEXT	SEGMENT
_ptemp$ = -12						; size = 4
_pdl$ = -8						; size = 4
_this$ = -4						; size = 4
_phudelem$ = 8						; size = 4
?AddHudElem@CHud@@QAEXPAVCHudBase@@@Z PROC		; CHud::AddHudElem, COMDAT
; _this$ = ecx

; 211  : {

	push	ebp
	mov	ebp, esp
	sub	esp, 76					; 0000004cH
	push	ebx
	push	esi
	push	edi
	mov	DWORD PTR _this$[ebp], ecx

; 212  : 	HUDLIST *pdl, *ptemp;
; 213  : 
; 214  : 	if( !phudelem ) return;

	cmp	DWORD PTR _phudelem$[ebp], 0
	jne	SHORT $LN4@AddHudElem
	jmp	SHORT $LN1@AddHudElem
$LN4@AddHudElem:

; 215  : 
; 216  : 	pdl = (HUDLIST *)malloc( sizeof( HUDLIST ));

	push	8
	call	_malloc
	add	esp, 4
	mov	DWORD PTR _pdl$[ebp], eax

; 217  : 	if( !pdl ) return;

	cmp	DWORD PTR _pdl$[ebp], 0
	jne	SHORT $LN5@AddHudElem
	jmp	SHORT $LN1@AddHudElem
$LN5@AddHudElem:

; 218  : 
; 219  : 	memset( pdl, 0, sizeof( HUDLIST ));

	push	8
	push	0
	mov	eax, DWORD PTR _pdl$[ebp]
	push	eax
	call	_memset
	add	esp, 12					; 0000000cH

; 220  : 	pdl->p = phudelem;

	mov	eax, DWORD PTR _pdl$[ebp]
	mov	ecx, DWORD PTR _phudelem$[ebp]
	mov	DWORD PTR [eax], ecx

; 221  : 
; 222  : 	if( !m_pHudList )

	mov	eax, DWORD PTR _this$[ebp]
	cmp	DWORD PTR [eax], 0
	jne	SHORT $LN6@AddHudElem

; 223  : 	{
; 224  : 		m_pHudList = pdl;

	mov	eax, DWORD PTR _this$[ebp]
	mov	ecx, DWORD PTR _pdl$[ebp]
	mov	DWORD PTR [eax], ecx

; 225  : 		return;

	jmp	SHORT $LN1@AddHudElem
$LN6@AddHudElem:

; 226  : 	}
; 227  : 
; 228  : 	ptemp = m_pHudList;

	mov	eax, DWORD PTR _this$[ebp]
	mov	ecx, DWORD PTR [eax]
	mov	DWORD PTR _ptemp$[ebp], ecx
$LN2@AddHudElem:

; 229  : 
; 230  : 	while( ptemp->pNext )

	mov	eax, DWORD PTR _ptemp$[ebp]
	cmp	DWORD PTR [eax+4], 0
	je	SHORT $LN3@AddHudElem

; 231  : 		ptemp = ptemp->pNext;

	mov	eax, DWORD PTR _ptemp$[ebp]
	mov	ecx, DWORD PTR [eax+4]
	mov	DWORD PTR _ptemp$[ebp], ecx
	jmp	SHORT $LN2@AddHudElem
$LN3@AddHudElem:

; 232  : 
; 233  : 	ptemp->pNext = pdl;

	mov	eax, DWORD PTR _ptemp$[ebp]
	mov	ecx, DWORD PTR _pdl$[ebp]
	mov	DWORD PTR [eax+4], ecx
$LN1@AddHudElem:

; 234  : }

	pop	edi
	pop	esi
	pop	ebx
	mov	esp, ebp
	pop	ebp
	ret	4
?AddHudElem@CHud@@QAEXPAVCHudBase@@@Z ENDP		; CHud::AddHudElem
_TEXT	ENDS
; Function compile flags: /Odtp /ZI
; File d:\!diffusion 2020\source code 2022\client-server\client\hud.cpp
;	COMDAT ??1CHud@@QAE@XZ
_TEXT	SEGMENT
$T1 = -84						; size = 4
$T2 = -80						; size = 4
$T3 = -76						; size = 4
_pList$4 = -8						; size = 4
_this$ = -4						; size = 4
??1CHud@@QAE@XZ PROC					; CHud::~CHud, COMDAT
; _this$ = ecx

; 52   : {

	push	ebp
	mov	ebp, esp
	sub	esp, 84					; 00000054H
	push	ebx
	push	esi
	push	edi
	mov	DWORD PTR _this$[ebp], ecx

; 53   : 	delete [] m_rghSprites;

	mov	eax, DWORD PTR _this$[ebp]
	mov	ecx, DWORD PTR [eax+228]
	mov	DWORD PTR $T3[ebp], ecx
	mov	edx, DWORD PTR $T3[ebp]
	push	edx
	call	??_V@YAXPAX@Z				; operator delete[]
	add	esp, 4

; 54   : 	delete [] m_rgrcRects;

	mov	eax, DWORD PTR _this$[ebp]
	mov	ecx, DWORD PTR [eax+232]
	mov	DWORD PTR $T2[ebp], ecx
	mov	edx, DWORD PTR $T2[ebp]
	push	edx
	call	??_V@YAXPAX@Z				; operator delete[]
	add	esp, 4

; 55   : 	delete [] m_rgszSpriteNames;

	mov	eax, DWORD PTR _this$[ebp]
	mov	ecx, DWORD PTR [eax+236]
	mov	DWORD PTR $T1[ebp], ecx
	mov	edx, DWORD PTR $T1[ebp]
	push	edx
	call	??_V@YAXPAX@Z				; operator delete[]
	add	esp, 4

; 56   : 
; 57   : 	if( m_pHudList )

	mov	eax, DWORD PTR _this$[ebp]
	cmp	DWORD PTR [eax], 0
	je	SHORT $LN1@CHud
$LN2@CHud:

; 58   : 	{
; 59   : 		HUDLIST *pList;
; 60   : 		while( m_pHudList )

	mov	eax, DWORD PTR _this$[ebp]
	cmp	DWORD PTR [eax], 0
	je	SHORT $LN3@CHud

; 61   : 		{
; 62   : 			pList = m_pHudList;

	mov	eax, DWORD PTR _this$[ebp]
	mov	ecx, DWORD PTR [eax]
	mov	DWORD PTR _pList$4[ebp], ecx

; 63   : 			m_pHudList = m_pHudList->pNext;

	mov	eax, DWORD PTR _this$[ebp]
	mov	ecx, DWORD PTR [eax]
	mov	edx, DWORD PTR _this$[ebp]
	mov	eax, DWORD PTR [ecx+4]
	mov	DWORD PTR [edx], eax

; 64   : 			free( pList );

	mov	eax, DWORD PTR _pList$4[ebp]
	push	eax
	call	_free
	add	esp, 4

; 65   : 		}

	jmp	SHORT $LN2@CHud
$LN3@CHud:

; 66   : 		m_pHudList = NULL;

	mov	eax, DWORD PTR _this$[ebp]
	mov	DWORD PTR [eax], 0
$LN1@CHud:

; 67   : 	}
; 68   : }

	mov	ecx, DWORD PTR _this$[ebp]
	add	ecx, 8344				; 00002098H
	call	??1CHudCodeInput@@UAE@XZ
	mov	ecx, DWORD PTR _this$[ebp]
	add	ecx, 8292				; 00002064H
	call	??1CHealthbars@@UAE@XZ
	mov	ecx, DWORD PTR _this$[ebp]
	add	ecx, 7912				; 00001ee8H
	call	??1CHudLensflare@@UAE@XZ
	mov	ecx, DWORD PTR _this$[ebp]
	add	ecx, 7856				; 00001eb0H
	call	??1CHudBlastIcons@@UAE@XZ
	mov	ecx, DWORD PTR _this$[ebp]
	add	ecx, 7780				; 00001e64H
	call	??1CScreenEffects@@UAE@XZ
	mov	ecx, DWORD PTR _this$[ebp]
	add	ecx, 7692				; 00001e0cH
	call	??1CUseIcon@@UAE@XZ
	mov	ecx, DWORD PTR _this$[ebp]
	add	ecx, 7676				; 00001dfcH
	call	??1CZoom@@UAE@XZ
	mov	ecx, DWORD PTR _this$[ebp]
	add	ecx, 7456				; 00001d20H
	call	??1CHudCrosshairStatic@@UAE@XZ
	mov	ecx, DWORD PTR _this$[ebp]
	add	ecx, 7236				; 00001c44H
	call	??1CHudCrosshairStatic@@UAE@XZ
	mov	ecx, DWORD PTR _this$[ebp]
	add	ecx, 7180				; 00001c0cH
	call	??1CHudHealthVisual@@UAE@XZ
	mov	ecx, DWORD PTR _this$[ebp]
	add	ecx, 7140				; 00001be4H
	call	??1CHudStamina@@UAE@XZ
	mov	ecx, DWORD PTR _this$[ebp]
	add	ecx, 5584				; 000015d0H
	call	??1CHudMOTD@@UAE@XZ
	mov	ecx, DWORD PTR _this$[ebp]
	add	ecx, 2004				; 000007d4H
	call	??1CHudAchievement@@UAE@XZ
	mov	ecx, DWORD PTR _this$[ebp]
	add	ecx, 1924				; 00000784H
	call	??1CHudTutorial@@UAE@XZ
	mov	ecx, DWORD PTR _this$[ebp]
	add	ecx, 1464				; 000005b8H
	call	??1CHudStatusIcons@@UAE@XZ
	mov	ecx, DWORD PTR _this$[ebp]
	add	ecx, 1456				; 000005b0H
	call	??1CHudTextMessage@@UAE@XZ
	mov	ecx, DWORD PTR _this$[ebp]
	add	ecx, 1424				; 00000590H
	call	??1CHudAmmoSecondary@@UAE@XZ
	mov	ecx, DWORD PTR _this$[ebp]
	add	ecx, 1400				; 00000578H
	call	??1CHudMenu@@UAE@XZ
	mov	ecx, DWORD PTR _this$[ebp]
	add	ecx, 1384				; 00000568H
	call	??1CHudSayText@@UAE@XZ
	mov	ecx, DWORD PTR _this$[ebp]
	add	ecx, 1372				; 0000055cH
	call	??1CHudDeathNotice@@UAE@XZ
	mov	ecx, DWORD PTR _this$[ebp]
	add	ecx, 808				; 00000328H
	call	??1CHudStatusBar@@UAE@XZ
	mov	ecx, DWORD PTR _this$[ebp]
	add	ecx, 772				; 00000304H
	call	??1CHudScoreboard@@UAE@XZ
	mov	ecx, DWORD PTR _this$[ebp]
	add	ecx, 552				; 00000228H
	call	??1CHudMessage@@UAE@XZ
	mov	ecx, DWORD PTR _this$[ebp]
	add	ecx, 504				; 000001f8H
	call	??1CHudFlashlight@@UAE@XZ
	mov	ecx, DWORD PTR _this$[ebp]
	add	ecx, 488				; 000001e8H
	call	??1CHudTrain@@UAE@XZ
	mov	ecx, DWORD PTR _this$[ebp]
	add	ecx, 476				; 000001dcH
	call	??1CHudGeiger@@UAE@XZ
	mov	ecx, DWORD PTR _this$[ebp]
	add	ecx, 276				; 00000114H
	call	??1CHudHealth@@UAE@XZ
	mov	ecx, DWORD PTR _this$[ebp]
	add	ecx, 240				; 000000f0H
	call	??1CHudAmmo@@UAE@XZ
	pop	edi
	pop	esi
	pop	ebx
	mov	esp, ebp
	pop	ebp
	ret	0
??1CHud@@QAE@XZ ENDP					; CHud::~CHud
_TEXT	ENDS
; Function compile flags: /Odtp /ZI
; File d:\!diffusion 2020\source code 2022\client-server\client\hud.cpp
;	COMDAT ?VidInit@CHud@@QAEXXZ
_TEXT	SEGMENT
$T1 = -684						; size = 4
$T2 = -680						; size = 4
$T3 = -676						; size = 4
_sz$4 = -544						; size = 256
_index$5 = -288						; size = 4
_j$6 = -284						; size = 4
_p$7 = -280						; size = 4
_sz$8 = -276						; size = 256
_index$9 = -20						; size = 4
_j$10 = -16						; size = 4
_p$11 = -12						; size = 4
_this$ = -8						; size = 4
__$ArrayPad$ = -4					; size = 4
?VidInit@CHud@@QAEXXZ PROC				; CHud::VidInit, COMDAT
; _this$ = ecx

; 86   : {

	push	ebp
	mov	ebp, esp
	sub	esp, 684				; 000002acH
	mov	eax, DWORD PTR ___security_cookie
	xor	eax, ebp
	mov	DWORD PTR __$ArrayPad$[ebp], eax
	push	ebx
	push	esi
	push	edi
	mov	DWORD PTR _this$[ebp], ecx

; 87   : 	m_scrinfo.iSize = sizeof( m_scrinfo );

	mov	eax, DWORD PTR _this$[ebp]
	mov	DWORD PTR [eax+8432], 532		; 00000214H

; 88   : 	GetScreenInfo( &m_scrinfo );

	mov	eax, DWORD PTR _this$[ebp]
	add	eax, 8432				; 000020f0H
	push	eax
	call	DWORD PTR ?gEngfuncs@@3Ucl_enginefuncs_s@@A+48
	add	esp, 4

; 89   : 
; 90   : 	// ----------
; 91   : 	// Load Sprites
; 92   : 	// ---------
; 93   : 
; 94   : 	m_hHudError = 0;

	mov	eax, DWORD PTR _this$[ebp]
	mov	DWORD PTR [eax+8988], 0

; 95   : 	
; 96   : 	if( ScreenWidth < 640 )

	cmp	DWORD PTR ?gHUD@@3VCHud@@A+8436, 640	; 00000280H
	jge	SHORT $LN11@VidInit

; 97   : 		m_iRes = 320;

	mov	eax, DWORD PTR _this$[ebp]
	mov	DWORD PTR [eax+88], 320			; 00000140H
	jmp	SHORT $LN12@VidInit
$LN11@VidInit:

; 98   : 	else m_iRes = 640;

	mov	eax, DWORD PTR _this$[ebp]
	mov	DWORD PTR [eax+88], 640			; 00000280H
$LN12@VidInit:

; 99   : 	
; 100  : 	// Only load this once
; 101  : 	if( !m_pSpriteList )

	mov	eax, DWORD PTR _this$[ebp]
	cmp	DWORD PTR [eax+4], 0
	jne	$LN13@VidInit

; 102  : 	{
; 103  : 		// we need to load the hud.txt, and all sprites within
; 104  : 		m_pSpriteList = SPR_GetList( "sprites/hud.txt", &m_iSpriteCountAllRes );

	mov	eax, DWORD PTR _this$[ebp]
	add	eax, 12					; 0000000cH
	push	eax
	push	OFFSET ??_C@_0BA@ICAOBHNB@sprites?1hud?4txt?$AA@
	call	DWORD PTR ?gEngfuncs@@3Ucl_enginefuncs_s@@A+40
	add	esp, 8
	mov	ecx, DWORD PTR _this$[ebp]
	mov	DWORD PTR [ecx+4], eax

; 105  : 
; 106  : 		if( m_pSpriteList )

	mov	eax, DWORD PTR _this$[ebp]
	cmp	DWORD PTR [eax+4], 0
	je	$LN15@VidInit

; 107  : 		{
; 108  : 			// count the number of sprites of the appropriate res
; 109  : 			client_sprite_t *p = m_pSpriteList;

	mov	eax, DWORD PTR _this$[ebp]
	mov	ecx, DWORD PTR [eax+4]
	mov	DWORD PTR _p$11[ebp], ecx

; 110  : 			m_iSpriteCount = 0;

	mov	eax, DWORD PTR _this$[ebp]
	mov	DWORD PTR [eax+8], 0

; 111  : 
; 112  : 			int j;
; 113  : 			for( j = 0; j < m_iSpriteCountAllRes; j++ )

	mov	DWORD PTR _j$10[ebp], 0
	jmp	SHORT $LN4@VidInit
$LN2@VidInit:
	mov	eax, DWORD PTR _j$10[ebp]
	add	eax, 1
	mov	DWORD PTR _j$10[ebp], eax
$LN4@VidInit:
	mov	eax, DWORD PTR _this$[ebp]
	mov	ecx, DWORD PTR _j$10[ebp]
	cmp	ecx, DWORD PTR [eax+12]
	jge	SHORT $LN3@VidInit

; 114  : 			{
; 115  : 				if( p->iRes == m_iRes )

	mov	eax, DWORD PTR _p$11[ebp]
	mov	ecx, DWORD PTR _this$[ebp]
	mov	edx, DWORD PTR [eax+132]
	cmp	edx, DWORD PTR [ecx+88]
	jne	SHORT $LN17@VidInit

; 116  : 					m_iSpriteCount++;

	mov	eax, DWORD PTR _this$[ebp]
	mov	ecx, DWORD PTR [eax+8]
	add	ecx, 1
	mov	edx, DWORD PTR _this$[ebp]
	mov	DWORD PTR [edx+8], ecx
$LN17@VidInit:

; 117  : 				p++;

	mov	eax, DWORD PTR _p$11[ebp]
	add	eax, 152				; 00000098H
	mov	DWORD PTR _p$11[ebp], eax

; 118  : 			}

	jmp	SHORT $LN2@VidInit
$LN3@VidInit:

; 119  : 
; 120  : 			// allocated memory for sprite handle arrays
; 121  :  			m_rghSprites = new SpriteHandle[m_iSpriteCount];

	xor	ecx, ecx
	mov	edx, DWORD PTR _this$[ebp]
	mov	eax, DWORD PTR [edx+8]
	mov	edx, 4
	mul	edx
	seto	cl
	neg	ecx
	or	ecx, eax
	push	ecx
	call	??_U@YAPAXI@Z				; operator new[]
	add	esp, 4
	mov	DWORD PTR $T3[ebp], eax
	mov	eax, DWORD PTR _this$[ebp]
	mov	ecx, DWORD PTR $T3[ebp]
	mov	DWORD PTR [eax+228], ecx

; 122  : 			m_rgrcRects = new wrect_t[m_iSpriteCount];

	xor	ecx, ecx
	mov	edx, DWORD PTR _this$[ebp]
	mov	eax, DWORD PTR [edx+8]
	mov	edx, 16					; 00000010H
	mul	edx
	seto	cl
	neg	ecx
	or	ecx, eax
	push	ecx
	call	??_U@YAPAXI@Z				; operator new[]
	add	esp, 4
	mov	DWORD PTR $T2[ebp], eax
	mov	eax, DWORD PTR _this$[ebp]
	mov	ecx, DWORD PTR $T2[ebp]
	mov	DWORD PTR [eax+232], ecx

; 123  : 			m_rgszSpriteNames = new char[m_iSpriteCount * MAX_SPRITE_NAME_LENGTH];

	mov	eax, DWORD PTR _this$[ebp]
	mov	ecx, DWORD PTR [eax+8]
	shl	ecx, 5
	push	ecx
	call	??_U@YAPAXI@Z				; operator new[]
	add	esp, 4
	mov	DWORD PTR $T1[ebp], eax
	mov	edx, DWORD PTR _this$[ebp]
	mov	eax, DWORD PTR $T1[ebp]
	mov	DWORD PTR [edx+236], eax

; 124  : 
; 125  : 			p = m_pSpriteList;

	mov	eax, DWORD PTR _this$[ebp]
	mov	ecx, DWORD PTR [eax+4]
	mov	DWORD PTR _p$11[ebp], ecx

; 126  : 			int index = 0;

	mov	DWORD PTR _index$9[ebp], 0

; 127  : 
; 128  : 			for( j = 0; j < m_iSpriteCountAllRes; j++ )

	mov	DWORD PTR _j$10[ebp], 0
	jmp	SHORT $LN7@VidInit
$LN5@VidInit:
	mov	eax, DWORD PTR _j$10[ebp]
	add	eax, 1
	mov	DWORD PTR _j$10[ebp], eax
$LN7@VidInit:
	mov	eax, DWORD PTR _this$[ebp]
	mov	ecx, DWORD PTR _j$10[ebp]
	cmp	ecx, DWORD PTR [eax+12]
	jge	$LN6@VidInit

; 129  : 			{
; 130  : 				if( p->iRes == m_iRes )

	mov	eax, DWORD PTR _p$11[ebp]
	mov	ecx, DWORD PTR _this$[ebp]
	mov	edx, DWORD PTR [eax+132]
	cmp	edx, DWORD PTR [ecx+88]
	jne	$LN18@VidInit

; 131  : 				{
; 132  : 					char sz[256];
; 133  : 					Q_snprintf( sz, sizeof( sz ), "sprites/%s.spr", p->szSprite );

	mov	eax, DWORD PTR _p$11[ebp]
	add	eax, 64					; 00000040H
	push	eax
	push	OFFSET ??_C@_0P@HEMMIFBG@sprites?1?$CFs?4spr?$AA@
	push	256					; 00000100H
	lea	ecx, DWORD PTR _sz$8[ebp]
	push	ecx
	call	?Q_snprintf@@YAHPADIPBDZZ		; Q_snprintf
	add	esp, 16					; 00000010H

; 134  : 					m_rghSprites[index] = SPR_Load( sz );

	lea	eax, DWORD PTR _sz$8[ebp]
	push	eax
	call	DWORD PTR ?gEngfuncs@@3Ucl_enginefuncs_s@@A
	add	esp, 4
	mov	ecx, DWORD PTR _this$[ebp]
	mov	edx, DWORD PTR [ecx+228]
	mov	ecx, DWORD PTR _index$9[ebp]
	mov	DWORD PTR [edx+ecx*4], eax

; 135  : 					m_rgrcRects[index] = p->rc;

	mov	eax, DWORD PTR _p$11[ebp]
	add	eax, 136				; 00000088H
	mov	ecx, DWORD PTR _index$9[ebp]
	shl	ecx, 4
	mov	edx, DWORD PTR _this$[ebp]
	mov	edx, DWORD PTR [edx+232]
	add	edx, ecx
	mov	ecx, DWORD PTR [eax]
	mov	DWORD PTR [edx], ecx
	mov	ecx, DWORD PTR [eax+4]
	mov	DWORD PTR [edx+4], ecx
	mov	ecx, DWORD PTR [eax+8]
	mov	DWORD PTR [edx+8], ecx
	mov	eax, DWORD PTR [eax+12]
	mov	DWORD PTR [edx+12], eax

; 136  : 					Q_strncpy( &m_rgszSpriteNames[index * MAX_SPRITE_NAME_LENGTH], p->szName, MAX_SPRITE_NAME_LENGTH );

	push	32					; 00000020H
	mov	eax, DWORD PTR _p$11[ebp]
	push	eax
	mov	ecx, DWORD PTR _index$9[ebp]
	shl	ecx, 5
	mov	edx, DWORD PTR _this$[ebp]
	mov	eax, DWORD PTR [edx+236]
	add	eax, ecx
	push	eax
	call	?Q_strncpy@@YAIPADPBDI@Z		; Q_strncpy
	add	esp, 12					; 0000000cH

; 137  : 
; 138  : 					index++;

	mov	eax, DWORD PTR _index$9[ebp]
	add	eax, 1
	mov	DWORD PTR _index$9[ebp], eax
$LN18@VidInit:

; 139  : 				}
; 140  : 				p++;

	mov	eax, DWORD PTR _p$11[ebp]
	add	eax, 152				; 00000098H
	mov	DWORD PTR _p$11[ebp], eax

; 141  : 			}

	jmp	$LN5@VidInit
$LN6@VidInit:

; 142  : 		}
; 143  : 		else

	jmp	SHORT $LN16@VidInit
$LN15@VidInit:

; 144  : 		{
; 145  : 			ALERT( at_warning, "hud.txt couldn't load\n");

	push	OFFSET ??_C@_0BH@GIMMKEAM@hud?4txt?5couldn?8t?5load?6?$AA@
	push	3
	call	?ALERT@@YAXW4ALERT_TYPE@@PADZZ		; ALERT
	add	esp, 8

; 146  : 			m_pCvarDraw->value = 0;

	mov	eax, DWORD PTR _this$[ebp]
	mov	ecx, DWORD PTR [eax+92]
	xorps	xmm0, xmm0
	movss	DWORD PTR [ecx+12], xmm0

; 147  : 			return;

	jmp	$LN1@VidInit
$LN16@VidInit:

; 148  : 		}
; 149  : 	}
; 150  : 	else

	jmp	$LN9@VidInit
$LN13@VidInit:

; 151  : 	{
; 152  : 		// we have already have loaded the sprite reference from hud.txt, but
; 153  : 		// we need to make sure all the sprites have been loaded (we've gone through a transition, or loaded a save game)
; 154  : 		client_sprite_t *p = m_pSpriteList;

	mov	eax, DWORD PTR _this$[ebp]
	mov	ecx, DWORD PTR [eax+4]
	mov	DWORD PTR _p$7[ebp], ecx

; 155  : 
; 156  : 		for( int j = 0, index = 0; j < m_iSpriteCountAllRes; j++ )

	mov	DWORD PTR _j$6[ebp], 0
	mov	DWORD PTR _index$5[ebp], 0
	jmp	SHORT $LN10@VidInit
$LN8@VidInit:
	mov	eax, DWORD PTR _j$6[ebp]
	add	eax, 1
	mov	DWORD PTR _j$6[ebp], eax
$LN10@VidInit:
	mov	eax, DWORD PTR _this$[ebp]
	mov	ecx, DWORD PTR _j$6[ebp]
	cmp	ecx, DWORD PTR [eax+12]
	jge	SHORT $LN9@VidInit

; 157  : 		{
; 158  : 			if( p->iRes == m_iRes )

	mov	eax, DWORD PTR _p$7[ebp]
	mov	ecx, DWORD PTR _this$[ebp]
	mov	edx, DWORD PTR [eax+132]
	cmp	edx, DWORD PTR [ecx+88]
	jne	SHORT $LN19@VidInit

; 159  : 			{
; 160  : 				char sz[256];
; 161  : 				Q_snprintf( sz, sizeof( sz ), "sprites/%s.spr", p->szSprite );

	mov	eax, DWORD PTR _p$7[ebp]
	add	eax, 64					; 00000040H
	push	eax
	push	OFFSET ??_C@_0P@HEMMIFBG@sprites?1?$CFs?4spr?$AA@
	push	256					; 00000100H
	lea	ecx, DWORD PTR _sz$4[ebp]
	push	ecx
	call	?Q_snprintf@@YAHPADIPBDZZ		; Q_snprintf
	add	esp, 16					; 00000010H

; 162  : 				m_rghSprites[index] = SPR_Load( sz );

	lea	eax, DWORD PTR _sz$4[ebp]
	push	eax
	call	DWORD PTR ?gEngfuncs@@3Ucl_enginefuncs_s@@A
	add	esp, 4
	mov	ecx, DWORD PTR _this$[ebp]
	mov	edx, DWORD PTR [ecx+228]
	mov	ecx, DWORD PTR _index$5[ebp]
	mov	DWORD PTR [edx+ecx*4], eax

; 163  : 				index++;

	mov	eax, DWORD PTR _index$5[ebp]
	add	eax, 1
	mov	DWORD PTR _index$5[ebp], eax
$LN19@VidInit:

; 164  : 			}
; 165  : 			p++;

	mov	eax, DWORD PTR _p$7[ebp]
	add	eax, 152				; 00000098H
	mov	DWORD PTR _p$7[ebp], eax

; 166  : 		}

	jmp	$LN8@VidInit
$LN9@VidInit:

; 167  : 	}
; 168  : 
; 169  : 	// assumption: number_1, number_2, etc, are all listed and loaded sequentially
; 170  : 	m_HUD_number_0 = GetSpriteIndex( "number_0" );

	push	OFFSET ??_C@_08OOPIGCLD@number_0?$AA@
	mov	ecx, DWORD PTR _this$[ebp]
	call	?GetSpriteIndex@CHud@@QAEHPBD@Z		; CHud::GetSpriteIndex
	mov	ecx, DWORD PTR _this$[ebp]
	mov	DWORD PTR [ecx+8980], eax

; 171  : 	m_iFontHeight = m_rgrcRects[m_HUD_number_0].bottom - m_rgrcRects[m_HUD_number_0].top;

	mov	eax, DWORD PTR _this$[ebp]
	mov	ecx, DWORD PTR [eax+8980]
	shl	ecx, 4
	mov	edx, DWORD PTR _this$[ebp]
	mov	eax, DWORD PTR [edx+232]
	mov	edx, DWORD PTR _this$[ebp]
	mov	edx, DWORD PTR [edx+8980]
	shl	edx, 4
	mov	esi, DWORD PTR _this$[ebp]
	mov	esi, DWORD PTR [esi+232]
	mov	eax, DWORD PTR [eax+ecx+12]
	sub	eax, DWORD PTR [esi+edx+8]
	mov	ecx, DWORD PTR _this$[ebp]
	mov	DWORD PTR [ecx+104], eax

; 172  : 	
; 173  : 	// loading error sprite
; 174  : 	m_HUD_error = GetSpriteIndex( "error" );

	push	OFFSET ??_C@_05KKCIMGE@error?$AA@
	mov	ecx, DWORD PTR _this$[ebp]
	call	?GetSpriteIndex@CHud@@QAEHPBD@Z		; CHud::GetSpriteIndex
	mov	ecx, DWORD PTR _this$[ebp]
	mov	DWORD PTR [ecx+8984], eax

; 175  : 	m_hHudError = GetSprite( m_HUD_error );

	mov	eax, DWORD PTR _this$[ebp]
	mov	ecx, DWORD PTR [eax+8984]
	push	ecx
	mov	ecx, DWORD PTR _this$[ebp]
	call	?GetSprite@CHud@@QAEHH@Z		; CHud::GetSprite
	mov	edx, DWORD PTR _this$[ebp]
	mov	DWORD PTR [edx+8988], eax

; 176  : 	
; 177  : 	m_Ammo.VidInit();

	mov	ecx, DWORD PTR _this$[ebp]
	add	ecx, 240				; 000000f0H
	mov	eax, DWORD PTR _this$[ebp]
	mov	edx, DWORD PTR [eax+240]
	mov	eax, DWORD PTR [edx+8]
	call	eax

; 178  : 	m_Health.VidInit();

	mov	ecx, DWORD PTR _this$[ebp]
	add	ecx, 276				; 00000114H
	mov	eax, DWORD PTR _this$[ebp]
	mov	edx, DWORD PTR [eax+276]
	mov	eax, DWORD PTR [edx+8]
	call	eax

; 179  : 	m_Geiger.VidInit();

	mov	ecx, DWORD PTR _this$[ebp]
	add	ecx, 476				; 000001dcH
	mov	eax, DWORD PTR _this$[ebp]
	mov	edx, DWORD PTR [eax+476]
	mov	eax, DWORD PTR [edx+8]
	call	eax

; 180  : 	m_Train.VidInit();

	mov	ecx, DWORD PTR _this$[ebp]
	add	ecx, 488				; 000001e8H
	mov	eax, DWORD PTR _this$[ebp]
	mov	edx, DWORD PTR [eax+488]
	mov	eax, DWORD PTR [edx+8]
	call	eax

; 181  : //	m_Battery.VidInit(); // diffusion - no battery in game
; 182  : 	m_Flash.VidInit();

	mov	ecx, DWORD PTR _this$[ebp]
	add	ecx, 504				; 000001f8H
	mov	eax, DWORD PTR _this$[ebp]
	mov	edx, DWORD PTR [eax+504]
	mov	eax, DWORD PTR [edx+8]
	call	eax

; 183  : 	m_MOTD.VidInit();

	mov	ecx, DWORD PTR _this$[ebp]
	add	ecx, 5584				; 000015d0H
	mov	eax, DWORD PTR _this$[ebp]
	mov	edx, DWORD PTR [eax+5584]
	mov	eax, DWORD PTR [edx+8]
	call	eax

; 184  : 	m_Scoreboard.VidInit();

	mov	ecx, DWORD PTR _this$[ebp]
	add	ecx, 772				; 00000304H
	mov	eax, DWORD PTR _this$[ebp]
	mov	edx, DWORD PTR [eax+772]
	mov	eax, DWORD PTR [edx+8]
	call	eax

; 185  : 	m_StatusBar.VidInit();

	mov	ecx, DWORD PTR _this$[ebp]
	add	ecx, 808				; 00000328H
	mov	eax, DWORD PTR _this$[ebp]
	mov	edx, DWORD PTR [eax+808]
	mov	eax, DWORD PTR [edx+8]
	call	eax

; 186  : 	m_DeathNotice.VidInit();

	mov	ecx, DWORD PTR _this$[ebp]
	add	ecx, 1372				; 0000055cH
	mov	eax, DWORD PTR _this$[ebp]
	mov	edx, DWORD PTR [eax+1372]
	mov	eax, DWORD PTR [edx+8]
	call	eax

; 187  : 	m_SayText.VidInit();

	mov	ecx, DWORD PTR _this$[ebp]
	add	ecx, 1384				; 00000568H
	mov	eax, DWORD PTR _this$[ebp]
	mov	edx, DWORD PTR [eax+1384]
	mov	eax, DWORD PTR [edx+8]
	call	eax

; 188  : 	m_Menu.VidInit();

	mov	ecx, DWORD PTR _this$[ebp]
	add	ecx, 1400				; 00000578H
	mov	eax, DWORD PTR _this$[ebp]
	mov	edx, DWORD PTR [eax+1400]
	mov	eax, DWORD PTR [edx+8]
	call	eax

; 189  : 	m_AmmoSecondary.VidInit();

	mov	ecx, DWORD PTR _this$[ebp]
	add	ecx, 1424				; 00000590H
	mov	eax, DWORD PTR _this$[ebp]
	mov	edx, DWORD PTR [eax+1424]
	mov	eax, DWORD PTR [edx+8]
	call	eax

; 190  : 	m_TextMessage.VidInit();

	mov	ecx, DWORD PTR _this$[ebp]
	add	ecx, 1456				; 000005b0H
	mov	eax, DWORD PTR _this$[ebp]
	mov	edx, DWORD PTR [eax+1456]
	mov	eax, DWORD PTR [edx+8]
	call	eax

; 191  : 	m_StatusIcons.VidInit();

	mov	ecx, DWORD PTR _this$[ebp]
	add	ecx, 1464				; 000005b8H
	mov	eax, DWORD PTR _this$[ebp]
	mov	edx, DWORD PTR [eax+1464]
	mov	eax, DWORD PTR [edx+8]
	call	eax

; 192  : 	m_StatusIconsTutor.VidInit();

	mov	ecx, DWORD PTR _this$[ebp]
	add	ecx, 1924				; 00000784H
	mov	eax, DWORD PTR _this$[ebp]
	mov	edx, DWORD PTR [eax+1924]
	mov	eax, DWORD PTR [edx+8]
	call	eax

; 193  : 	m_StatusIconsAchievement.VidInit();

	mov	ecx, DWORD PTR _this$[ebp]
	add	ecx, 2004				; 000007d4H
	mov	eax, DWORD PTR _this$[ebp]
	mov	edx, DWORD PTR [eax+2004]
	mov	eax, DWORD PTR [edx+8]
	call	eax

; 194  : 	m_Stamina.VidInit();   //DiffusionSprint

	mov	ecx, DWORD PTR _this$[ebp]
	add	ecx, 7140				; 00001be4H
	mov	eax, DWORD PTR _this$[ebp]
	mov	edx, DWORD PTR [eax+7140]
	mov	eax, DWORD PTR [edx+8]
	call	eax

; 195  : 	m_HealthVisual.VidInit(); // diffusion health visual

	mov	ecx, DWORD PTR _this$[ebp]
	add	ecx, 7180				; 00001c0cH
	mov	eax, DWORD PTR _this$[ebp]
	mov	edx, DWORD PTR [eax+7180]
	mov	eax, DWORD PTR [edx+8]
	call	eax

; 196  : 	m_UseIcon.VidInit();  // use icons

	mov	ecx, DWORD PTR _this$[ebp]
	add	ecx, 7692				; 00001e0cH
	mov	eax, DWORD PTR _this$[ebp]
	mov	edx, DWORD PTR [eax+7692]
	mov	eax, DWORD PTR [edx+8]
	call	eax

; 197  : 	m_BlastIcons.VidInit(); // electro-blast icons

	mov	ecx, DWORD PTR _this$[ebp]
	add	ecx, 7856				; 00001eb0H
	mov	eax, DWORD PTR _this$[ebp]
	mov	edx, DWORD PTR [eax+7856]
	mov	eax, DWORD PTR [edx+8]
	call	eax

; 198  : 	m_Healthbars.VidInit();

	mov	ecx, DWORD PTR _this$[ebp]
	add	ecx, 8292				; 00002064H
	mov	eax, DWORD PTR _this$[ebp]
	mov	edx, DWORD PTR [eax+8292]
	mov	eax, DWORD PTR [edx+8]
	call	eax

; 199  : 	m_CrosshairStatic.VidInit(); // new simple crosshairs

	mov	ecx, DWORD PTR _this$[ebp]
	add	ecx, 7236				; 00001c44H
	mov	eax, DWORD PTR _this$[ebp]
	mov	edx, DWORD PTR [eax+7236]
	mov	eax, DWORD PTR [edx+8]
	call	eax

; 200  : 	m_CodeInput.VidInit();

	mov	ecx, DWORD PTR _this$[ebp]
	add	ecx, 8344				; 00002098H
	mov	eax, DWORD PTR _this$[ebp]
	mov	edx, DWORD PTR [eax+8344]
	mov	eax, DWORD PTR [edx+8]
	call	eax

; 201  : 	m_ScreenEffects.VidInit();

	mov	ecx, DWORD PTR _this$[ebp]
	add	ecx, 7780				; 00001e64H
	mov	eax, DWORD PTR _this$[ebp]
	mov	edx, DWORD PTR [eax+7780]
	mov	eax, DWORD PTR [edx+8]
	call	eax

; 202  : 	m_Lensflare.VidInit();

	mov	ecx, DWORD PTR _this$[ebp]
	add	ecx, 7912				; 00001ee8H
	mov	eax, DWORD PTR _this$[ebp]
	mov	edx, DWORD PTR [eax+7912]
	mov	eax, DWORD PTR [edx+8]
	call	eax

; 203  : 	m_Message.VidInit();

	mov	ecx, DWORD PTR _this$[ebp]
	add	ecx, 552				; 00000228H
	mov	eax, DWORD PTR _this$[ebp]
	mov	edx, DWORD PTR [eax+552]
	mov	eax, DWORD PTR [edx+8]
	call	eax

; 204  : 
; 205  : 	memset( &gHUD.shake, 0.0f, sizeof( gHUD.shake ) ); // diffusion - reset screen shake

	push	52					; 00000034H
	push	0
	push	OFFSET ?gHUD@@3VCHud@@A+176
	call	_memset
	add	esp, 12					; 0000000cH

; 206  : 
; 207  : 	gHUD.GlitchAmount = 0.0f;

	xorps	xmm0, xmm0
	movss	DWORD PTR ?gHUD@@3VCHud@@A+172, xmm0
$LN1@VidInit:

; 208  : }

	pop	edi
	pop	esi
	pop	ebx
	mov	ecx, DWORD PTR __$ArrayPad$[ebp]
	xor	ecx, ebp
	call	@__security_check_cookie@4
	mov	esp, ebp
	pop	ebp
	ret	0
?VidInit@CHud@@QAEXXZ ENDP				; CHud::VidInit
_TEXT	ENDS
; Function compile flags: /Odtp /ZI
; File d:\!diffusion 2020\source code 2022\client-server\client\hud.cpp
;	COMDAT ?Init@CHud@@QAEXXZ
_TEXT	SEGMENT
_this$ = -4						; size = 4
?Init@CHud@@QAEXXZ PROC					; CHud::Init, COMDAT
; _this$ = ecx

; 13   : {

	push	ebp
	mov	ebp, esp
	sub	esp, 68					; 00000044H
	push	ebx
	push	esi
	push	edi
	mov	DWORD PTR _this$[ebp], ecx

; 14   : 	InitHUDMessages();

	mov	ecx, DWORD PTR _this$[ebp]
	call	?InitHUDMessages@CHud@@QAEHXZ		; CHud::InitHUDMessages

; 15   : 
; 16   : 	// NOTENOTE - ordering here directly affects the rendering order: last will be on top
; 17   : 	m_Ammo.Init();

	mov	ecx, DWORD PTR _this$[ebp]
	add	ecx, 240				; 000000f0H
	mov	eax, DWORD PTR _this$[ebp]
	mov	edx, DWORD PTR [eax+240]
	mov	eax, DWORD PTR [edx+4]
	call	eax

; 18   : 	m_Health.Init();

	mov	ecx, DWORD PTR _this$[ebp]
	add	ecx, 276				; 00000114H
	mov	eax, DWORD PTR _this$[ebp]
	mov	edx, DWORD PTR [eax+276]
	mov	eax, DWORD PTR [edx+4]
	call	eax

; 19   : 	m_Geiger.Init();

	mov	ecx, DWORD PTR _this$[ebp]
	add	ecx, 476				; 000001dcH
	mov	eax, DWORD PTR _this$[ebp]
	mov	edx, DWORD PTR [eax+476]
	mov	eax, DWORD PTR [edx+4]
	call	eax

; 20   : 	m_Train.Init();

	mov	ecx, DWORD PTR _this$[ebp]
	add	ecx, 488				; 000001e8H
	mov	eax, DWORD PTR _this$[ebp]
	mov	edx, DWORD PTR [eax+488]
	mov	eax, DWORD PTR [edx+4]
	call	eax

; 21   : //	m_Battery.Init(); // diffusion - no battery in game
; 22   : 	m_Flash.Init();

	mov	ecx, DWORD PTR _this$[ebp]
	add	ecx, 504				; 000001f8H
	mov	eax, DWORD PTR _this$[ebp]
	mov	edx, DWORD PTR [eax+504]
	mov	eax, DWORD PTR [edx+4]
	call	eax

; 23   : 	m_Scoreboard.Init();

	mov	ecx, DWORD PTR _this$[ebp]
	add	ecx, 772				; 00000304H
	mov	eax, DWORD PTR _this$[ebp]
	mov	edx, DWORD PTR [eax+772]
	mov	eax, DWORD PTR [edx+4]
	call	eax

; 24   : 	m_StatusBar.Init();

	mov	ecx, DWORD PTR _this$[ebp]
	add	ecx, 808				; 00000328H
	mov	eax, DWORD PTR _this$[ebp]
	mov	edx, DWORD PTR [eax+808]
	mov	eax, DWORD PTR [edx+4]
	call	eax

; 25   : 	m_DeathNotice.Init();

	mov	ecx, DWORD PTR _this$[ebp]
	add	ecx, 1372				; 0000055cH
	mov	eax, DWORD PTR _this$[ebp]
	mov	edx, DWORD PTR [eax+1372]
	mov	eax, DWORD PTR [edx+4]
	call	eax

; 26   : 	m_AmmoSecondary.Init();

	mov	ecx, DWORD PTR _this$[ebp]
	add	ecx, 1424				; 00000590H
	mov	eax, DWORD PTR _this$[ebp]
	mov	edx, DWORD PTR [eax+1424]
	mov	eax, DWORD PTR [edx+4]
	call	eax

; 27   : 	m_TextMessage.Init();

	mov	ecx, DWORD PTR _this$[ebp]
	add	ecx, 1456				; 000005b0H
	mov	eax, DWORD PTR _this$[ebp]
	mov	edx, DWORD PTR [eax+1456]
	mov	eax, DWORD PTR [edx+4]
	call	eax

; 28   : 	m_StatusIcons.Init();

	mov	ecx, DWORD PTR _this$[ebp]
	add	ecx, 1464				; 000005b8H
	mov	eax, DWORD PTR _this$[ebp]
	mov	edx, DWORD PTR [eax+1464]
	mov	eax, DWORD PTR [edx+4]
	call	eax

; 29   : 	m_StatusIconsTutor.Init(); // diffusion

	mov	ecx, DWORD PTR _this$[ebp]
	add	ecx, 1924				; 00000784H
	mov	eax, DWORD PTR _this$[ebp]
	mov	edx, DWORD PTR [eax+1924]
	mov	eax, DWORD PTR [edx+4]
	call	eax

; 30   : 	m_StatusIconsAchievement.Init();

	mov	ecx, DWORD PTR _this$[ebp]
	add	ecx, 2004				; 000007d4H
	mov	eax, DWORD PTR _this$[ebp]
	mov	edx, DWORD PTR [eax+2004]
	mov	eax, DWORD PTR [edx+4]
	call	eax

; 31   :  	m_SayText.Init();

	mov	ecx, DWORD PTR _this$[ebp]
	add	ecx, 1384				; 00000568H
	mov	eax, DWORD PTR _this$[ebp]
	mov	edx, DWORD PTR [eax+1384]
	mov	eax, DWORD PTR [edx+4]
	call	eax

; 32   : 	m_Menu.Init();

	mov	ecx, DWORD PTR _this$[ebp]
	add	ecx, 1400				; 00000578H
	mov	eax, DWORD PTR _this$[ebp]
	mov	edx, DWORD PTR [eax+1400]
	mov	eax, DWORD PTR [edx+4]
	call	eax

; 33   : 	m_MOTD.Init();

	mov	ecx, DWORD PTR _this$[ebp]
	add	ecx, 5584				; 000015d0H
	mov	eax, DWORD PTR _this$[ebp]
	mov	edx, DWORD PTR [eax+5584]
	mov	eax, DWORD PTR [edx+4]
	call	eax

; 34   : 	m_Stamina.Init();  //DiffusionSprint

	mov	ecx, DWORD PTR _this$[ebp]
	add	ecx, 7140				; 00001be4H
	mov	eax, DWORD PTR _this$[ebp]
	mov	edx, DWORD PTR [eax+7140]
	mov	eax, DWORD PTR [edx+4]
	call	eax

; 35   : 	m_HealthVisual.Init(); // diffusion health visual

	mov	ecx, DWORD PTR _this$[ebp]
	add	ecx, 7180				; 00001c0cH
	mov	eax, DWORD PTR _this$[ebp]
	mov	edx, DWORD PTR [eax+7180]
	mov	eax, DWORD PTR [edx+4]
	call	eax

; 36   : 	m_BlastIcons.Init();

	mov	ecx, DWORD PTR _this$[ebp]
	add	ecx, 7856				; 00001eb0H
	mov	eax, DWORD PTR _this$[ebp]
	mov	edx, DWORD PTR [eax+7856]
	mov	eax, DWORD PTR [edx+4]
	call	eax

; 37   : 	m_UseIcon.Init();

	mov	ecx, DWORD PTR _this$[ebp]
	add	ecx, 7692				; 00001e0cH
	mov	eax, DWORD PTR _this$[ebp]
	mov	edx, DWORD PTR [eax+7692]
	mov	eax, DWORD PTR [edx+4]
	call	eax

; 38   : 	m_Zoom.Init();

	mov	ecx, DWORD PTR _this$[ebp]
	add	ecx, 7676				; 00001dfcH
	mov	eax, DWORD PTR _this$[ebp]
	mov	edx, DWORD PTR [eax+7676]
	mov	eax, DWORD PTR [edx+4]
	call	eax

; 39   : 	m_Healthbars.Init();

	mov	ecx, DWORD PTR _this$[ebp]
	add	ecx, 8292				; 00002064H
	mov	eax, DWORD PTR _this$[ebp]
	mov	edx, DWORD PTR [eax+8292]
	mov	eax, DWORD PTR [edx+4]
	call	eax

; 40   : 	m_CrosshairStatic.Init();

	mov	ecx, DWORD PTR _this$[ebp]
	add	ecx, 7236				; 00001c44H
	mov	eax, DWORD PTR _this$[ebp]
	mov	edx, DWORD PTR [eax+7236]
	mov	eax, DWORD PTR [edx+4]
	call	eax

; 41   : 	m_Lensflare.Init();

	mov	ecx, DWORD PTR _this$[ebp]
	add	ecx, 7912				; 00001ee8H
	mov	eax, DWORD PTR _this$[ebp]
	mov	edx, DWORD PTR [eax+7912]
	mov	eax, DWORD PTR [edx+4]
	call	eax

; 42   : 	m_CodeInput.Init();

	mov	ecx, DWORD PTR _this$[ebp]
	add	ecx, 8344				; 00002098H
	mov	eax, DWORD PTR _this$[ebp]
	mov	edx, DWORD PTR [eax+8344]
	mov	eax, DWORD PTR [edx+4]
	call	eax

; 43   : 	m_ScreenEffects.Init();

	mov	ecx, DWORD PTR _this$[ebp]
	add	ecx, 7780				; 00001e64H
	mov	eax, DWORD PTR _this$[ebp]
	mov	edx, DWORD PTR [eax+7780]
	mov	eax, DWORD PTR [edx+4]
	call	eax

; 44   : 	m_Message.Init(); // hud text messages (like subtitles) go last - always visible

	mov	ecx, DWORD PTR _this$[ebp]
	add	ecx, 552				; 00000228H
	mov	eax, DWORD PTR _this$[ebp]
	mov	edx, DWORD PTR [eax+552]
	mov	eax, DWORD PTR [edx+4]
	call	eax

; 45   : 		
; 46   : //	MsgFunc_ResetHUD( 0, 0, NULL ); // diffusion - now server does this
; 47   : 
; 48   : 	g_bDuckToggled = false;

	mov	BYTE PTR ?g_bDuckToggled@@3_NA, 0	; g_bDuckToggled

; 49   : }

	pop	edi
	pop	esi
	pop	ebx
	mov	esp, ebp
	pop	ebp
	ret	0
?Init@CHud@@QAEXXZ ENDP					; CHud::Init
_TEXT	ENDS
; Function compile flags: /Odtp /ZI
; File d:\!diffusion 2020\source code 2022\client-server\client\hud.cpp
;	COMDAT ?GetSpriteIndex@CHud@@QAEHPBD@Z
_TEXT	SEGMENT
_i$1 = -8						; size = 4
_this$ = -4						; size = 4
_SpriteName$ = 8					; size = 4
?GetSpriteIndex@CHud@@QAEHPBD@Z PROC			; CHud::GetSpriteIndex, COMDAT
; _this$ = ecx

; 75   : {

	push	ebp
	mov	ebp, esp
	sub	esp, 72					; 00000048H
	push	ebx
	push	esi
	push	edi
	mov	DWORD PTR _this$[ebp], ecx

; 76   : 	// look through the loaded sprite name list for SpriteName
; 77   : 	for( int i = 0; i < m_iSpriteCount; i++ )

	mov	DWORD PTR _i$1[ebp], 0
	jmp	SHORT $LN4@GetSpriteI
$LN2@GetSpriteI:
	mov	eax, DWORD PTR _i$1[ebp]
	add	eax, 1
	mov	DWORD PTR _i$1[ebp], eax
$LN4@GetSpriteI:
	mov	eax, DWORD PTR _this$[ebp]
	mov	ecx, DWORD PTR _i$1[ebp]
	cmp	ecx, DWORD PTR [eax+8]
	jge	SHORT $LN3@GetSpriteI

; 78   : 	{
; 79   : 		if( !Q_strncmp( SpriteName, m_rgszSpriteNames + ( i * MAX_SPRITE_NAME_LENGTH ), MAX_SPRITE_NAME_LENGTH ))

	push	32					; 00000020H
	mov	eax, DWORD PTR _i$1[ebp]
	shl	eax, 5
	mov	ecx, DWORD PTR _this$[ebp]
	add	eax, DWORD PTR [ecx+236]
	push	eax
	mov	edx, DWORD PTR _SpriteName$[ebp]
	push	edx
	call	?Q_strncmp@@YAHPBD0H@Z			; Q_strncmp
	add	esp, 12					; 0000000cH
	test	eax, eax
	jne	SHORT $LN5@GetSpriteI

; 80   : 			return i;

	mov	eax, DWORD PTR _i$1[ebp]
	jmp	SHORT $LN1@GetSpriteI
$LN5@GetSpriteI:

; 81   : 	}

	jmp	SHORT $LN2@GetSpriteI
$LN3@GetSpriteI:

; 82   : 	return -1; // invalid sprite

	or	eax, -1
$LN1@GetSpriteI:

; 83   : }

	pop	edi
	pop	esi
	pop	ebx
	mov	esp, ebp
	pop	ebp
	ret	4
?GetSpriteIndex@CHud@@QAEHPBD@Z ENDP			; CHud::GetSpriteIndex
_TEXT	ENDS
; Function compile flags: /Odtp /ZI
; File d:\!diffusion 2020\source code 2022\client-server\client\hud.h
;	COMDAT ?GetSprite@CHud@@QAEHH@Z
_TEXT	SEGMENT
tv68 = -72						; size = 4
_this$ = -4						; size = 4
_index$ = 8						; size = 4
?GetSprite@CHud@@QAEHH@Z PROC				; CHud::GetSprite, COMDAT
; _this$ = ecx

; 951  : 	SpriteHandle GetSprite( int index ) { return (index < 0) ? 0 : m_rghSprites[index]; }

	push	ebp
	mov	ebp, esp
	sub	esp, 72					; 00000048H
	push	ebx
	push	esi
	push	edi
	mov	DWORD PTR _this$[ebp], ecx
	cmp	DWORD PTR _index$[ebp], 0
	jge	SHORT $LN3@GetSprite
	mov	DWORD PTR tv68[ebp], 0
	jmp	SHORT $LN4@GetSprite
$LN3@GetSprite:
	mov	eax, DWORD PTR _this$[ebp]
	mov	ecx, DWORD PTR [eax+228]
	mov	edx, DWORD PTR _index$[ebp]
	mov	eax, DWORD PTR [ecx+edx*4]
	mov	DWORD PTR tv68[ebp], eax
$LN4@GetSprite:
	mov	eax, DWORD PTR tv68[ebp]
	pop	edi
	pop	esi
	pop	ebx
	mov	esp, ebp
	pop	ebp
	ret	4
?GetSprite@CHud@@QAEHH@Z ENDP				; CHud::GetSprite
_TEXT	ENDS
; Function compile flags: /Odtp /ZI
;	COMDAT ??1CUseIcon@@UAE@XZ
_TEXT	SEGMENT
_this$ = -4						; size = 4
??1CUseIcon@@UAE@XZ PROC				; CUseIcon::~CUseIcon, COMDAT
; _this$ = ecx
	push	ebp
	mov	ebp, esp
	sub	esp, 68					; 00000044H
	push	ebx
	push	esi
	push	edi
	mov	DWORD PTR _this$[ebp], ecx
	mov	ecx, DWORD PTR _this$[ebp]
	call	??1CHudBase@@UAE@XZ			; CHudBase::~CHudBase
	pop	edi
	pop	esi
	pop	ebx
	mov	esp, ebp
	pop	ebp
	ret	0
??1CUseIcon@@UAE@XZ ENDP				; CUseIcon::~CUseIcon
_TEXT	ENDS
; Function compile flags: /Odtp /ZI
;	COMDAT ??1CHealthbars@@UAE@XZ
_TEXT	SEGMENT
_this$ = -4						; size = 4
??1CHealthbars@@UAE@XZ PROC				; CHealthbars::~CHealthbars, COMDAT
; _this$ = ecx
	push	ebp
	mov	ebp, esp
	sub	esp, 68					; 00000044H
	push	ebx
	push	esi
	push	edi
	mov	DWORD PTR _this$[ebp], ecx
	mov	ecx, DWORD PTR _this$[ebp]
	call	??1CHudBase@@UAE@XZ			; CHudBase::~CHudBase
	pop	edi
	pop	esi
	pop	ebx
	mov	esp, ebp
	pop	ebp
	ret	0
??1CHealthbars@@UAE@XZ ENDP				; CHealthbars::~CHealthbars
_TEXT	ENDS
; Function compile flags: /Odtp /ZI
;	COMDAT ??1CScreenEffects@@UAE@XZ
_TEXT	SEGMENT
_this$ = -4						; size = 4
??1CScreenEffects@@UAE@XZ PROC				; CScreenEffects::~CScreenEffects, COMDAT
; _this$ = ecx
	push	ebp
	mov	ebp, esp
	sub	esp, 68					; 00000044H
	push	ebx
	push	esi
	push	edi
	mov	DWORD PTR _this$[ebp], ecx
	mov	ecx, DWORD PTR _this$[ebp]
	call	??1CHudBase@@UAE@XZ			; CHudBase::~CHudBase
	pop	edi
	pop	esi
	pop	ebx
	mov	esp, ebp
	pop	ebp
	ret	0
??1CScreenEffects@@UAE@XZ ENDP				; CScreenEffects::~CScreenEffects
_TEXT	ENDS
; Function compile flags: /Odtp /ZI
;	COMDAT ??1CHudCodeInput@@UAE@XZ
_TEXT	SEGMENT
_this$ = -4						; size = 4
??1CHudCodeInput@@UAE@XZ PROC				; CHudCodeInput::~CHudCodeInput, COMDAT
; _this$ = ecx
	push	ebp
	mov	ebp, esp
	sub	esp, 68					; 00000044H
	push	ebx
	push	esi
	push	edi
	mov	DWORD PTR _this$[ebp], ecx
	mov	ecx, DWORD PTR _this$[ebp]
	call	??1CHudBase@@UAE@XZ			; CHudBase::~CHudBase
	pop	edi
	pop	esi
	pop	ebx
	mov	esp, ebp
	pop	ebp
	ret	0
??1CHudCodeInput@@UAE@XZ ENDP				; CHudCodeInput::~CHudCodeInput
_TEXT	ENDS
; Function compile flags: /Odtp /ZI
;	COMDAT ??1CHudBlastIcons@@UAE@XZ
_TEXT	SEGMENT
_this$ = -4						; size = 4
??1CHudBlastIcons@@UAE@XZ PROC				; CHudBlastIcons::~CHudBlastIcons, COMDAT
; _this$ = ecx
	push	ebp
	mov	ebp, esp
	sub	esp, 68					; 00000044H
	push	ebx
	push	esi
	push	edi
	mov	DWORD PTR _this$[ebp], ecx
	mov	ecx, DWORD PTR _this$[ebp]
	call	??1CHudBase@@UAE@XZ			; CHudBase::~CHudBase
	pop	edi
	pop	esi
	pop	ebx
	mov	esp, ebp
	pop	ebp
	ret	0
??1CHudBlastIcons@@UAE@XZ ENDP				; CHudBlastIcons::~CHudBlastIcons
_TEXT	ENDS
; Function compile flags: /Odtp /ZI
;	COMDAT ??1CZoom@@UAE@XZ
_TEXT	SEGMENT
_this$ = -4						; size = 4
??1CZoom@@UAE@XZ PROC					; CZoom::~CZoom, COMDAT
; _this$ = ecx
	push	ebp
	mov	ebp, esp
	sub	esp, 68					; 00000044H
	push	ebx
	push	esi
	push	edi
	mov	DWORD PTR _this$[ebp], ecx
	mov	ecx, DWORD PTR _this$[ebp]
	call	??1CHudBase@@UAE@XZ			; CHudBase::~CHudBase
	pop	edi
	pop	esi
	pop	ebx
	mov	esp, ebp
	pop	ebp
	ret	0
??1CZoom@@UAE@XZ ENDP					; CZoom::~CZoom
_TEXT	ENDS
; Function compile flags: /Odtp /ZI
;	COMDAT ??1CHudCrosshairStatic@@UAE@XZ
_TEXT	SEGMENT
_this$ = -4						; size = 4
??1CHudCrosshairStatic@@UAE@XZ PROC			; CHudCrosshairStatic::~CHudCrosshairStatic, COMDAT
; _this$ = ecx
	push	ebp
	mov	ebp, esp
	sub	esp, 68					; 00000044H
	push	ebx
	push	esi
	push	edi
	mov	DWORD PTR _this$[ebp], ecx
	mov	ecx, DWORD PTR _this$[ebp]
	call	??1CHudBase@@UAE@XZ			; CHudBase::~CHudBase
	pop	edi
	pop	esi
	pop	ebx
	mov	esp, ebp
	pop	ebp
	ret	0
??1CHudCrosshairStatic@@UAE@XZ ENDP			; CHudCrosshairStatic::~CHudCrosshairStatic
_TEXT	ENDS
; Function compile flags: /Odtp /ZI
;	COMDAT ??1CHudAchievement@@UAE@XZ
_TEXT	SEGMENT
_this$ = -4						; size = 4
??1CHudAchievement@@UAE@XZ PROC				; CHudAchievement::~CHudAchievement, COMDAT
; _this$ = ecx
	push	ebp
	mov	ebp, esp
	sub	esp, 68					; 00000044H
	push	ebx
	push	esi
	push	edi
	mov	DWORD PTR _this$[ebp], ecx
	mov	ecx, DWORD PTR _this$[ebp]
	call	??1CHudBase@@UAE@XZ			; CHudBase::~CHudBase
	pop	edi
	pop	esi
	pop	ebx
	mov	esp, ebp
	pop	ebp
	ret	0
??1CHudAchievement@@UAE@XZ ENDP				; CHudAchievement::~CHudAchievement
_TEXT	ENDS
; Function compile flags: /Odtp /ZI
;	COMDAT ??1CHudTutorial@@UAE@XZ
_TEXT	SEGMENT
_this$ = -4						; size = 4
??1CHudTutorial@@UAE@XZ PROC				; CHudTutorial::~CHudTutorial, COMDAT
; _this$ = ecx
	push	ebp
	mov	ebp, esp
	sub	esp, 68					; 00000044H
	push	ebx
	push	esi
	push	edi
	mov	DWORD PTR _this$[ebp], ecx
	mov	ecx, DWORD PTR _this$[ebp]
	call	??1CHudBase@@UAE@XZ			; CHudBase::~CHudBase
	pop	edi
	pop	esi
	pop	ebx
	mov	esp, ebp
	pop	ebp
	ret	0
??1CHudTutorial@@UAE@XZ ENDP				; CHudTutorial::~CHudTutorial
_TEXT	ENDS
; Function compile flags: /Odtp /ZI
;	COMDAT ??1CHudStatusIcons@@UAE@XZ
_TEXT	SEGMENT
_this$ = -4						; size = 4
??1CHudStatusIcons@@UAE@XZ PROC				; CHudStatusIcons::~CHudStatusIcons, COMDAT
; _this$ = ecx
	push	ebp
	mov	ebp, esp
	sub	esp, 68					; 00000044H
	push	ebx
	push	esi
	push	edi
	mov	DWORD PTR _this$[ebp], ecx
	mov	ecx, DWORD PTR _this$[ebp]
	call	??1CHudBase@@UAE@XZ			; CHudBase::~CHudBase
	pop	edi
	pop	esi
	pop	ebx
	mov	esp, ebp
	pop	ebp
	ret	0
??1CHudStatusIcons@@UAE@XZ ENDP				; CHudStatusIcons::~CHudStatusIcons
_TEXT	ENDS
; Function compile flags: /Odtp /ZI
;	COMDAT ??1CHudMessage@@UAE@XZ
_TEXT	SEGMENT
_this$ = -4						; size = 4
??1CHudMessage@@UAE@XZ PROC				; CHudMessage::~CHudMessage, COMDAT
; _this$ = ecx
	push	ebp
	mov	ebp, esp
	sub	esp, 68					; 00000044H
	push	ebx
	push	esi
	push	edi
	mov	DWORD PTR _this$[ebp], ecx
	mov	ecx, DWORD PTR _this$[ebp]
	call	??1CHudBase@@UAE@XZ			; CHudBase::~CHudBase
	pop	edi
	pop	esi
	pop	ebx
	mov	esp, ebp
	pop	ebp
	ret	0
??1CHudMessage@@UAE@XZ ENDP				; CHudMessage::~CHudMessage
_TEXT	ENDS
; Function compile flags: /Odtp /ZI
;	COMDAT ??1CHudTextMessage@@UAE@XZ
_TEXT	SEGMENT
_this$ = -4						; size = 4
??1CHudTextMessage@@UAE@XZ PROC				; CHudTextMessage::~CHudTextMessage, COMDAT
; _this$ = ecx
	push	ebp
	mov	ebp, esp
	sub	esp, 68					; 00000044H
	push	ebx
	push	esi
	push	edi
	mov	DWORD PTR _this$[ebp], ecx
	mov	ecx, DWORD PTR _this$[ebp]
	call	??1CHudBase@@UAE@XZ			; CHudBase::~CHudBase
	pop	edi
	pop	esi
	pop	ebx
	mov	esp, ebp
	pop	ebp
	ret	0
??1CHudTextMessage@@UAE@XZ ENDP				; CHudTextMessage::~CHudTextMessage
_TEXT	ENDS
; Function compile flags: /Odtp /ZI
;	COMDAT ??1CHudHealthVisual@@UAE@XZ
_TEXT	SEGMENT
_this$ = -4						; size = 4
??1CHudHealthVisual@@UAE@XZ PROC			; CHudHealthVisual::~CHudHealthVisual, COMDAT
; _this$ = ecx
	push	ebp
	mov	ebp, esp
	sub	esp, 68					; 00000044H
	push	ebx
	push	esi
	push	edi
	mov	DWORD PTR _this$[ebp], ecx
	mov	ecx, DWORD PTR _this$[ebp]
	call	??1CHudBase@@UAE@XZ			; CHudBase::~CHudBase
	pop	edi
	pop	esi
	pop	ebx
	mov	esp, ebp
	pop	ebp
	ret	0
??1CHudHealthVisual@@UAE@XZ ENDP			; CHudHealthVisual::~CHudHealthVisual
_TEXT	ENDS
; Function compile flags: /Odtp /ZI
;	COMDAT ??1CHudStamina@@UAE@XZ
_TEXT	SEGMENT
_this$ = -4						; size = 4
??1CHudStamina@@UAE@XZ PROC				; CHudStamina::~CHudStamina, COMDAT
; _this$ = ecx
	push	ebp
	mov	ebp, esp
	sub	esp, 68					; 00000044H
	push	ebx
	push	esi
	push	edi
	mov	DWORD PTR _this$[ebp], ecx
	mov	ecx, DWORD PTR _this$[ebp]
	call	??1CHudBase@@UAE@XZ			; CHudBase::~CHudBase
	pop	edi
	pop	esi
	pop	ebx
	mov	esp, ebp
	pop	ebp
	ret	0
??1CHudStamina@@UAE@XZ ENDP				; CHudStamina::~CHudStamina
_TEXT	ENDS
; Function compile flags: /Odtp /ZI
;	COMDAT ??1CHudFlashlight@@UAE@XZ
_TEXT	SEGMENT
_this$ = -4						; size = 4
??1CHudFlashlight@@UAE@XZ PROC				; CHudFlashlight::~CHudFlashlight, COMDAT
; _this$ = ecx
	push	ebp
	mov	ebp, esp
	sub	esp, 68					; 00000044H
	push	ebx
	push	esi
	push	edi
	mov	DWORD PTR _this$[ebp], ecx
	mov	ecx, DWORD PTR _this$[ebp]
	call	??1CHudBase@@UAE@XZ			; CHudBase::~CHudBase
	pop	edi
	pop	esi
	pop	ebx
	mov	esp, ebp
	pop	ebp
	ret	0
??1CHudFlashlight@@UAE@XZ ENDP				; CHudFlashlight::~CHudFlashlight
_TEXT	ENDS
; Function compile flags: /Odtp /ZI
;	COMDAT ??1CHudSayText@@UAE@XZ
_TEXT	SEGMENT
_this$ = -4						; size = 4
??1CHudSayText@@UAE@XZ PROC				; CHudSayText::~CHudSayText, COMDAT
; _this$ = ecx
	push	ebp
	mov	ebp, esp
	sub	esp, 68					; 00000044H
	push	ebx
	push	esi
	push	edi
	mov	DWORD PTR _this$[ebp], ecx
	mov	ecx, DWORD PTR _this$[ebp]
	call	??1CHudBase@@UAE@XZ			; CHudBase::~CHudBase
	pop	edi
	pop	esi
	pop	ebx
	mov	esp, ebp
	pop	ebp
	ret	0
??1CHudSayText@@UAE@XZ ENDP				; CHudSayText::~CHudSayText
_TEXT	ENDS
; Function compile flags: /Odtp /ZI
;	COMDAT ??1CHudMenu@@UAE@XZ
_TEXT	SEGMENT
_this$ = -4						; size = 4
??1CHudMenu@@UAE@XZ PROC				; CHudMenu::~CHudMenu, COMDAT
; _this$ = ecx
	push	ebp
	mov	ebp, esp
	sub	esp, 68					; 00000044H
	push	ebx
	push	esi
	push	edi
	mov	DWORD PTR _this$[ebp], ecx
	mov	ecx, DWORD PTR _this$[ebp]
	call	??1CHudBase@@UAE@XZ			; CHudBase::~CHudBase
	pop	edi
	pop	esi
	pop	ebx
	mov	esp, ebp
	pop	ebp
	ret	0
??1CHudMenu@@UAE@XZ ENDP				; CHudMenu::~CHudMenu
_TEXT	ENDS
; Function compile flags: /Odtp /ZI
;	COMDAT ??1CHudDeathNotice@@UAE@XZ
_TEXT	SEGMENT
_this$ = -4						; size = 4
??1CHudDeathNotice@@UAE@XZ PROC				; CHudDeathNotice::~CHudDeathNotice, COMDAT
; _this$ = ecx
	push	ebp
	mov	ebp, esp
	sub	esp, 68					; 00000044H
	push	ebx
	push	esi
	push	edi
	mov	DWORD PTR _this$[ebp], ecx
	mov	ecx, DWORD PTR _this$[ebp]
	call	??1CHudBase@@UAE@XZ			; CHudBase::~CHudBase
	pop	edi
	pop	esi
	pop	ebx
	mov	esp, ebp
	pop	ebp
	ret	0
??1CHudDeathNotice@@UAE@XZ ENDP				; CHudDeathNotice::~CHudDeathNotice
_TEXT	ENDS
; Function compile flags: /Odtp /ZI
;	COMDAT ??1CHudStatusBar@@UAE@XZ
_TEXT	SEGMENT
_this$ = -4						; size = 4
??1CHudStatusBar@@UAE@XZ PROC				; CHudStatusBar::~CHudStatusBar, COMDAT
; _this$ = ecx
	push	ebp
	mov	ebp, esp
	sub	esp, 68					; 00000044H
	push	ebx
	push	esi
	push	edi
	mov	DWORD PTR _this$[ebp], ecx
	mov	ecx, DWORD PTR _this$[ebp]
	call	??1CHudBase@@UAE@XZ			; CHudBase::~CHudBase
	pop	edi
	pop	esi
	pop	ebx
	mov	esp, ebp
	pop	ebp
	ret	0
??1CHudStatusBar@@UAE@XZ ENDP				; CHudStatusBar::~CHudStatusBar
_TEXT	ENDS
; Function compile flags: /Odtp /ZI
;	COMDAT ??1CHudScoreboard@@UAE@XZ
_TEXT	SEGMENT
_this$ = -4						; size = 4
??1CHudScoreboard@@UAE@XZ PROC				; CHudScoreboard::~CHudScoreboard, COMDAT
; _this$ = ecx
	push	ebp
	mov	ebp, esp
	sub	esp, 68					; 00000044H
	push	ebx
	push	esi
	push	edi
	mov	DWORD PTR _this$[ebp], ecx
	mov	ecx, DWORD PTR _this$[ebp]
	call	??1CHudBase@@UAE@XZ			; CHudBase::~CHudBase
	pop	edi
	pop	esi
	pop	ebx
	mov	esp, ebp
	pop	ebp
	ret	0
??1CHudScoreboard@@UAE@XZ ENDP				; CHudScoreboard::~CHudScoreboard
_TEXT	ENDS
; Function compile flags: /Odtp /ZI
;	COMDAT ??1CHudMOTD@@UAE@XZ
_TEXT	SEGMENT
_this$ = -4						; size = 4
??1CHudMOTD@@UAE@XZ PROC				; CHudMOTD::~CHudMOTD, COMDAT
; _this$ = ecx
	push	ebp
	mov	ebp, esp
	sub	esp, 68					; 00000044H
	push	ebx
	push	esi
	push	edi
	mov	DWORD PTR _this$[ebp], ecx
	mov	ecx, DWORD PTR _this$[ebp]
	call	??1CHudBase@@UAE@XZ			; CHudBase::~CHudBase
	pop	edi
	pop	esi
	pop	ebx
	mov	esp, ebp
	pop	ebp
	ret	0
??1CHudMOTD@@UAE@XZ ENDP				; CHudMOTD::~CHudMOTD
_TEXT	ENDS
; Function compile flags: /Odtp /ZI
;	COMDAT ??1CHudTrain@@UAE@XZ
_TEXT	SEGMENT
_this$ = -4						; size = 4
??1CHudTrain@@UAE@XZ PROC				; CHudTrain::~CHudTrain, COMDAT
; _this$ = ecx
	push	ebp
	mov	ebp, esp
	sub	esp, 68					; 00000044H
	push	ebx
	push	esi
	push	edi
	mov	DWORD PTR _this$[ebp], ecx
	mov	ecx, DWORD PTR _this$[ebp]
	call	??1CHudBase@@UAE@XZ			; CHudBase::~CHudBase
	pop	edi
	pop	esi
	pop	ebx
	mov	esp, ebp
	pop	ebp
	ret	0
??1CHudTrain@@UAE@XZ ENDP				; CHudTrain::~CHudTrain
_TEXT	ENDS
; Function compile flags: /Odtp /ZI
;	COMDAT ??1CHudLensflare@@UAE@XZ
_TEXT	SEGMENT
_this$ = -4						; size = 4
??1CHudLensflare@@UAE@XZ PROC				; CHudLensflare::~CHudLensflare, COMDAT
; _this$ = ecx
	push	ebp
	mov	ebp, esp
	sub	esp, 68					; 00000044H
	push	ebx
	push	esi
	push	edi
	mov	DWORD PTR _this$[ebp], ecx
	mov	ecx, DWORD PTR _this$[ebp]
	call	??1CHudBase@@UAE@XZ			; CHudBase::~CHudBase
	pop	edi
	pop	esi
	pop	ebx
	mov	esp, ebp
	pop	ebp
	ret	0
??1CHudLensflare@@UAE@XZ ENDP				; CHudLensflare::~CHudLensflare
_TEXT	ENDS
; Function compile flags: /Odtp /ZI
;	COMDAT ??1CHudGeiger@@UAE@XZ
_TEXT	SEGMENT
_this$ = -4						; size = 4
??1CHudGeiger@@UAE@XZ PROC				; CHudGeiger::~CHudGeiger, COMDAT
; _this$ = ecx
	push	ebp
	mov	ebp, esp
	sub	esp, 68					; 00000044H
	push	ebx
	push	esi
	push	edi
	mov	DWORD PTR _this$[ebp], ecx
	mov	ecx, DWORD PTR _this$[ebp]
	call	??1CHudBase@@UAE@XZ			; CHudBase::~CHudBase
	pop	edi
	pop	esi
	pop	ebx
	mov	esp, ebp
	pop	ebp
	ret	0
??1CHudGeiger@@UAE@XZ ENDP				; CHudGeiger::~CHudGeiger
_TEXT	ENDS
; Function compile flags: /Odtp /ZI
;	COMDAT ??1CHudHealth@@UAE@XZ
_TEXT	SEGMENT
_this$ = -4						; size = 4
??1CHudHealth@@UAE@XZ PROC				; CHudHealth::~CHudHealth, COMDAT
; _this$ = ecx
	push	ebp
	mov	ebp, esp
	sub	esp, 68					; 00000044H
	push	ebx
	push	esi
	push	edi
	mov	DWORD PTR _this$[ebp], ecx
	mov	ecx, DWORD PTR _this$[ebp]
	call	??1CHudBase@@UAE@XZ			; CHudBase::~CHudBase
	pop	edi
	pop	esi
	pop	ebx
	mov	esp, ebp
	pop	ebp
	ret	0
??1CHudHealth@@UAE@XZ ENDP				; CHudHealth::~CHudHealth
_TEXT	ENDS
; Function compile flags: /Odtp /ZI
;	COMDAT ??1CHudAmmoSecondary@@UAE@XZ
_TEXT	SEGMENT
_this$ = -4						; size = 4
??1CHudAmmoSecondary@@UAE@XZ PROC			; CHudAmmoSecondary::~CHudAmmoSecondary, COMDAT
; _this$ = ecx
	push	ebp
	mov	ebp, esp
	sub	esp, 68					; 00000044H
	push	ebx
	push	esi
	push	edi
	mov	DWORD PTR _this$[ebp], ecx
	mov	ecx, DWORD PTR _this$[ebp]
	call	??1CHudBase@@UAE@XZ			; CHudBase::~CHudBase
	pop	edi
	pop	esi
	pop	ebx
	mov	esp, ebp
	pop	ebp
	ret	0
??1CHudAmmoSecondary@@UAE@XZ ENDP			; CHudAmmoSecondary::~CHudAmmoSecondary
_TEXT	ENDS
; Function compile flags: /Odtp /ZI
;	COMDAT ??1CHudAmmo@@UAE@XZ
_TEXT	SEGMENT
_this$ = -4						; size = 4
??1CHudAmmo@@UAE@XZ PROC				; CHudAmmo::~CHudAmmo, COMDAT
; _this$ = ecx
	push	ebp
	mov	ebp, esp
	sub	esp, 68					; 00000044H
	push	ebx
	push	esi
	push	edi
	mov	DWORD PTR _this$[ebp], ecx
	mov	ecx, DWORD PTR _this$[ebp]
	call	??1CHudBase@@UAE@XZ			; CHudBase::~CHudBase
	pop	edi
	pop	esi
	pop	ebx
	mov	esp, ebp
	pop	ebp
	ret	0
??1CHudAmmo@@UAE@XZ ENDP				; CHudAmmo::~CHudAmmo
_TEXT	ENDS
; Function compile flags: /Odtp /ZI
;	COMDAT ??_GCHudBase@@UAEPAXI@Z
_TEXT	SEGMENT
_this$ = -4						; size = 4
___flags$ = 8						; size = 4
??_GCHudBase@@UAEPAXI@Z PROC				; CHudBase::`scalar deleting destructor', COMDAT
; _this$ = ecx
	push	ebp
	mov	ebp, esp
	sub	esp, 68					; 00000044H
	push	ebx
	push	esi
	push	edi
	mov	DWORD PTR _this$[ebp], ecx
	mov	ecx, DWORD PTR _this$[ebp]
	call	??1CHudBase@@UAE@XZ			; CHudBase::~CHudBase
	mov	eax, DWORD PTR ___flags$[ebp]
	and	eax, 1
	je	SHORT $LN2@scalar
	push	8
	mov	eax, DWORD PTR _this$[ebp]
	push	eax
	call	??3@YAXPAXI@Z				; operator delete
	add	esp, 8
$LN2@scalar:
	mov	eax, DWORD PTR _this$[ebp]
	pop	edi
	pop	esi
	pop	ebx
	mov	esp, ebp
	pop	ebp
	ret	4
??_GCHudBase@@UAEPAXI@Z ENDP				; CHudBase::`scalar deleting destructor'
_TEXT	ENDS
; Function compile flags: /Odtp /ZI
; File d:\!diffusion 2020\source code 2022\client-server\client\hud.h
;	COMDAT ?InitHUDData@CHudBase@@UAEXXZ
_TEXT	SEGMENT
_this$ = -4						; size = 4
?InitHUDData@CHudBase@@UAEXXZ PROC			; CHudBase::InitHUDData, COMDAT
; _this$ = ecx

; 79   : 	virtual void InitHUDData( void ) {} // called every time a server is connected to

	push	ebp
	mov	ebp, esp
	sub	esp, 68					; 00000044H
	push	ebx
	push	esi
	push	edi
	mov	DWORD PTR _this$[ebp], ecx
	pop	edi
	pop	esi
	pop	ebx
	mov	esp, ebp
	pop	ebp
	ret	0
?InitHUDData@CHudBase@@UAEXXZ ENDP			; CHudBase::InitHUDData
_TEXT	ENDS
; Function compile flags: /Odtp /ZI
; File d:\!diffusion 2020\source code 2022\client-server\client\hud.h
;	COMDAT ?Reset@CHudBase@@UAEXXZ
_TEXT	SEGMENT
_this$ = -4						; size = 4
?Reset@CHudBase@@UAEXXZ PROC				; CHudBase::Reset, COMDAT
; _this$ = ecx

; 78   : 	virtual void Reset(void) {}

	push	ebp
	mov	ebp, esp
	sub	esp, 68					; 00000044H
	push	ebx
	push	esi
	push	edi
	mov	DWORD PTR _this$[ebp], ecx
	pop	edi
	pop	esi
	pop	ebx
	mov	esp, ebp
	pop	ebp
	ret	0
?Reset@CHudBase@@UAEXXZ ENDP				; CHudBase::Reset
_TEXT	ENDS
; Function compile flags: /Odtp /ZI
; File d:\!diffusion 2020\source code 2022\client-server\client\hud.h
;	COMDAT ?Think@CHudBase@@UAEXXZ
_TEXT	SEGMENT
_this$ = -4						; size = 4
?Think@CHudBase@@UAEXXZ PROC				; CHudBase::Think, COMDAT
; _this$ = ecx

; 77   : 	virtual void Think(void) {}

	push	ebp
	mov	ebp, esp
	sub	esp, 68					; 00000044H
	push	ebx
	push	esi
	push	edi
	mov	DWORD PTR _this$[ebp], ecx
	pop	edi
	pop	esi
	pop	ebx
	mov	esp, ebp
	pop	ebp
	ret	0
?Think@CHudBase@@UAEXXZ ENDP				; CHudBase::Think
_TEXT	ENDS
; Function compile flags: /Odtp /ZI
; File d:\!diffusion 2020\source code 2022\client-server\client\hud.h
;	COMDAT ?Draw@CHudBase@@UAEHM@Z
_TEXT	SEGMENT
_this$ = -4						; size = 4
_flTime$ = 8						; size = 4
?Draw@CHudBase@@UAEHM@Z PROC				; CHudBase::Draw, COMDAT
; _this$ = ecx

; 76   : 	virtual int Draw(float flTime) { return 0; }

	push	ebp
	mov	ebp, esp
	sub	esp, 68					; 00000044H
	push	ebx
	push	esi
	push	edi
	mov	DWORD PTR _this$[ebp], ecx
	xor	eax, eax
	pop	edi
	pop	esi
	pop	ebx
	mov	esp, ebp
	pop	ebp
	ret	4
?Draw@CHudBase@@UAEHM@Z ENDP				; CHudBase::Draw
_TEXT	ENDS
; Function compile flags: /Odtp /ZI
; File d:\!diffusion 2020\source code 2022\client-server\client\hud.h
;	COMDAT ?VidInit@CHudBase@@UAEHXZ
_TEXT	SEGMENT
_this$ = -4						; size = 4
?VidInit@CHudBase@@UAEHXZ PROC				; CHudBase::VidInit, COMDAT
; _this$ = ecx

; 75   : 	virtual int VidInit( void ) { return 0; }

	push	ebp
	mov	ebp, esp
	sub	esp, 68					; 00000044H
	push	ebx
	push	esi
	push	edi
	mov	DWORD PTR _this$[ebp], ecx
	xor	eax, eax
	pop	edi
	pop	esi
	pop	ebx
	mov	esp, ebp
	pop	ebp
	ret	0
?VidInit@CHudBase@@UAEHXZ ENDP				; CHudBase::VidInit
_TEXT	ENDS
; Function compile flags: /Odtp /ZI
; File d:\!diffusion 2020\source code 2022\client-server\client\hud.h
;	COMDAT ?Init@CHudBase@@UAEHXZ
_TEXT	SEGMENT
_this$ = -4						; size = 4
?Init@CHudBase@@UAEHXZ PROC				; CHudBase::Init, COMDAT
; _this$ = ecx

; 74   : 	virtual int Init( void ) { return 0; }

	push	ebp
	mov	ebp, esp
	sub	esp, 68					; 00000044H
	push	ebx
	push	esi
	push	edi
	mov	DWORD PTR _this$[ebp], ecx
	xor	eax, eax
	pop	edi
	pop	esi
	pop	ebx
	mov	esp, ebp
	pop	ebp
	ret	0
?Init@CHudBase@@UAEHXZ ENDP				; CHudBase::Init
_TEXT	ENDS
; Function compile flags: /Odtp /ZI
; File d:\!diffusion 2020\source code 2022\client-server\client\hud.h
;	COMDAT ??1CHudBase@@UAE@XZ
_TEXT	SEGMENT
_this$ = -4						; size = 4
??1CHudBase@@UAE@XZ PROC				; CHudBase::~CHudBase, COMDAT
; _this$ = ecx

; 73   : 	virtual ~CHudBase() {}

	push	ebp
	mov	ebp, esp
	sub	esp, 68					; 00000044H
	push	ebx
	push	esi
	push	edi
	mov	DWORD PTR _this$[ebp], ecx
	mov	eax, DWORD PTR _this$[ebp]
	mov	DWORD PTR [eax], OFFSET ??_7CHudBase@@6B@
	pop	edi
	pop	esi
	pop	ebx
	mov	esp, ebp
	pop	ebp
	ret	0
??1CHudBase@@UAE@XZ ENDP				; CHudBase::~CHudBase
_TEXT	ENDS
; Function compile flags: /Odtp /ZI
;	COMDAT ??__G@YGXPAX0IIP6EPAX00@Z@Z
_TEXT	SEGMENT
tv66 = -68						; size = 4
___t$ = 8						; size = 4
___u$ = 12						; size = 4
___s$ = 16						; size = 4
___n$ = 20						; size = 4
___f$ = 24						; size = 4
??__G@YGXPAX0IIP6EPAX00@Z@Z PROC			; `vector copy constructor iterator', COMDAT
	push	ebp
	mov	ebp, esp
	sub	esp, 68					; 00000044H
	push	ebx
	push	esi
	push	edi
$LN2@vector:
	mov	eax, DWORD PTR ___n$[ebp]
	mov	DWORD PTR tv66[ebp], eax
	mov	ecx, DWORD PTR ___n$[ebp]
	sub	ecx, 1
	mov	DWORD PTR ___n$[ebp], ecx
	cmp	DWORD PTR tv66[ebp], 0
	jbe	SHORT $LN1@vector
	mov	eax, DWORD PTR ___u$[ebp]
	push	eax
	mov	ecx, DWORD PTR ___t$[ebp]
	call	DWORD PTR ___f$[ebp]
	mov	eax, DWORD PTR ___t$[ebp]
	add	eax, DWORD PTR ___s$[ebp]
	mov	DWORD PTR ___t$[ebp], eax
	mov	eax, DWORD PTR ___u$[ebp]
	add	eax, DWORD PTR ___s$[ebp]
	mov	DWORD PTR ___u$[ebp], eax
	jmp	SHORT $LN2@vector
$LN1@vector:
	pop	edi
	pop	esi
	pop	ebx
	mov	esp, ebp
	pop	ebp
	ret	20					; 00000014H
??__G@YGXPAX0IIP6EPAX00@Z@Z ENDP			; `vector copy constructor iterator'
_TEXT	ENDS
; Function compile flags: /Odtp /ZI
;	COMDAT ??_H@YGXPAXIIP6EPAX0@Z@Z
_TEXT	SEGMENT
tv66 = -68						; size = 4
___t$ = 8						; size = 4
___s$ = 12						; size = 4
___n$ = 16						; size = 4
___f$ = 20						; size = 4
??_H@YGXPAXIIP6EPAX0@Z@Z PROC				; `vector constructor iterator', COMDAT
	push	ebp
	mov	ebp, esp
	sub	esp, 68					; 00000044H
	push	ebx
	push	esi
	push	edi
$LN2@vector:
	mov	eax, DWORD PTR ___n$[ebp]
	mov	DWORD PTR tv66[ebp], eax
	mov	ecx, DWORD PTR ___n$[ebp]
	sub	ecx, 1
	mov	DWORD PTR ___n$[ebp], ecx
	cmp	DWORD PTR tv66[ebp], 0
	jbe	SHORT $LN1@vector
	mov	ecx, DWORD PTR ___t$[ebp]
	call	DWORD PTR ___f$[ebp]
	mov	eax, DWORD PTR ___t$[ebp]
	add	eax, DWORD PTR ___s$[ebp]
	mov	DWORD PTR ___t$[ebp], eax
	jmp	SHORT $LN2@vector
$LN1@vector:
	pop	edi
	pop	esi
	pop	ebx
	mov	esp, ebp
	pop	ebp
	ret	16					; 00000010H
??_H@YGXPAXIIP6EPAX0@Z@Z ENDP				; `vector constructor iterator'
_TEXT	ENDS
END
