; Listing generated by Microsoft (R) Optimizing Compiler Version 19.00.24247.2 

	TITLE	D:\!DIFFUSION 2020\source code 2022\client-server\client\hud_flashlight.cpp
	.686P
	.XMM
	include listing.inc
	.model	flat

INCLUDELIB LIBCMT
INCLUDELIB OLDNAMES

PUBLIC	??_H@YGXPAXIIP6EPAX0@Z@Z			; `vector constructor iterator'
PUBLIC	??__G@YGXPAX0IIP6EPAX00@Z@Z			; `vector copy constructor iterator'
PUBLIC	?Init@CHudFlashlight@@UAEHXZ			; CHudFlashlight::Init
PUBLIC	?VidInit@CHudFlashlight@@UAEHXZ			; CHudFlashlight::VidInit
PUBLIC	?Draw@CHudFlashlight@@UAEHM@Z			; CHudFlashlight::Draw
PUBLIC	?Reset@CHudFlashlight@@UAEXXZ			; CHudFlashlight::Reset
PUBLIC	?MsgFunc_Flashlight@CHudFlashlight@@QAEHPBDHPAX@Z ; CHudFlashlight::MsgFunc_Flashlight
PUBLIC	?GetSprite@CHud@@QAEHH@Z			; CHud::GetSprite
PUBLIC	?GetSpriteRect@CHud@@QAEAAUwrect_s@@H@Z		; CHud::GetSpriteRect
PUBLIC	?HasWeapon@CHud@@QAEHH@Z			; CHud::HasWeapon
PUBLIC	?UnpackRGB@@YAXAAH00K@Z				; UnpackRGB
PUBLIC	?__MsgFunc_Flashlight@@YAHPBDHPAX@Z		; __MsgFunc_Flashlight
PUBLIC	??_C@_0L@PALCELJK@Flashlight?$AA@		; `string'
PUBLIC	??_C@_0P@LAAMKLF@newflash_empty?$AA@		; `string'
PUBLIC	??_C@_0O@LHOGJKLK@newflash_full?$AA@		; `string'
PUBLIC	__real@00000000
PUBLIC	__real@3c23d70a
PUBLIC	__real@3e800000
PUBLIC	__real@3f800000
PUBLIC	__real@40800000
PUBLIC	__real@42480000
PUBLIC	__real@42c80000
EXTRN	?GetSpriteIndex@CHud@@QAEHPBD@Z:PROC		; CHud::GetSpriteIndex
EXTRN	?AddHudElem@CHud@@QAEXPAVCHudBase@@@Z:PROC	; CHud::AddHudElem
EXTRN	?ScaleColors@@YAXAAH00H@Z:PROC			; ScaleColors
EXTRN	?BEGIN_READ@@YAXPBDPAXH@Z:PROC			; BEGIN_READ
EXTRN	?END_READ@@YAXXZ:PROC				; END_READ
EXTRN	?READ_BYTE@@YAHXZ:PROC				; READ_BYTE
EXTRN	@__security_check_cookie@4:PROC
EXTRN	?gEngfuncs@@3Ucl_enginefuncs_s@@A:BYTE		; gEngfuncs
EXTRN	?gHUD@@3VCHud@@A:BYTE				; gHUD
EXTRN	?g_fFrametime@@3MA:DWORD			; g_fFrametime
EXTRN	?tr@@3Uref_globals_t@@A:BYTE			; tr
EXTRN	___security_cookie:DWORD
EXTRN	__fltused:DWORD
;	COMDAT __real@42c80000
CONST	SEGMENT
__real@42c80000 DD 042c80000r			; 100
CONST	ENDS
;	COMDAT __real@42480000
CONST	SEGMENT
__real@42480000 DD 042480000r			; 50
CONST	ENDS
;	COMDAT __real@40800000
CONST	SEGMENT
__real@40800000 DD 040800000r			; 4
CONST	ENDS
;	COMDAT __real@3f800000
CONST	SEGMENT
__real@3f800000 DD 03f800000r			; 1
CONST	ENDS
;	COMDAT __real@3e800000
CONST	SEGMENT
__real@3e800000 DD 03e800000r			; 0.25
CONST	ENDS
;	COMDAT __real@3c23d70a
CONST	SEGMENT
__real@3c23d70a DD 03c23d70ar			; 0.01
CONST	ENDS
;	COMDAT __real@00000000
CONST	SEGMENT
__real@00000000 DD 000000000r			; 0
CONST	ENDS
;	COMDAT ??_C@_0O@LHOGJKLK@newflash_full?$AA@
CONST	SEGMENT
??_C@_0O@LHOGJKLK@newflash_full?$AA@ DB 'newflash_full', 00H ; `string'
CONST	ENDS
;	COMDAT ??_C@_0P@LAAMKLF@newflash_empty?$AA@
CONST	SEGMENT
??_C@_0P@LAAMKLF@newflash_empty?$AA@ DB 'newflash_empty', 00H ; `string'
CONST	ENDS
;	COMDAT ??_C@_0L@PALCELJK@Flashlight?$AA@
CONST	SEGMENT
??_C@_0L@PALCELJK@Flashlight?$AA@ DB 'Flashlight', 00H	; `string'
CONST	ENDS
; Function compile flags: /Odtp /ZI
; File d:\!diffusion 2020\source code 2022\client-server\client\hud_flashlight.cpp
;	COMDAT ?__MsgFunc_Flashlight@@YAHPBDHPAX@Z
_TEXT	SEGMENT
_pszName$ = 8						; size = 4
_iSize$ = 12						; size = 4
_pbuf$ = 16						; size = 4
?__MsgFunc_Flashlight@@YAHPBDHPAX@Z PROC		; __MsgFunc_Flashlight, COMDAT

; 6    : DECLARE_MESSAGE( m_Flash, Flashlight )

	push	ebp
	mov	ebp, esp
	sub	esp, 64					; 00000040H
	push	ebx
	push	esi
	push	edi
	mov	eax, DWORD PTR _pbuf$[ebp]
	push	eax
	mov	ecx, DWORD PTR _iSize$[ebp]
	push	ecx
	mov	edx, DWORD PTR _pszName$[ebp]
	push	edx
	mov	ecx, OFFSET ?gHUD@@3VCHud@@A+504
	call	?MsgFunc_Flashlight@CHudFlashlight@@QAEHPBDHPAX@Z ; CHudFlashlight::MsgFunc_Flashlight
	pop	edi
	pop	esi
	pop	ebx
	mov	esp, ebp
	pop	ebp
	ret	0
?__MsgFunc_Flashlight@@YAHPBDHPAX@Z ENDP		; __MsgFunc_Flashlight
_TEXT	ENDS
; Function compile flags: /Odtp /ZI
; File d:\!diffusion 2020\source code 2022\client-server\client\utils.h
;	COMDAT ?UnpackRGB@@YAXAAH00K@Z
_TEXT	SEGMENT
_r$ = 8							; size = 4
_g$ = 12						; size = 4
_b$ = 16						; size = 4
_ulRGB$ = 20						; size = 4
?UnpackRGB@@YAXAAH00K@Z PROC				; UnpackRGB, COMDAT

; 98   : {\

	push	ebp
	mov	ebp, esp
	sub	esp, 64					; 00000040H
	push	ebx
	push	esi
	push	edi

; 99   : 	r = (ulRGB & 0xFF0000) >>16;\

	mov	eax, DWORD PTR _ulRGB$[ebp]
	and	eax, 16711680				; 00ff0000H
	shr	eax, 16					; 00000010H
	mov	ecx, DWORD PTR _r$[ebp]
	mov	DWORD PTR [ecx], eax

; 100  : 	g = (ulRGB & 0xFF00) >> 8;\

	mov	eax, DWORD PTR _ulRGB$[ebp]
	and	eax, 65280				; 0000ff00H
	shr	eax, 8
	mov	ecx, DWORD PTR _g$[ebp]
	mov	DWORD PTR [ecx], eax

; 101  : 	b = ulRGB & 0xFF;\

	mov	eax, DWORD PTR _ulRGB$[ebp]
	and	eax, 255				; 000000ffH
	mov	ecx, DWORD PTR _b$[ebp]
	mov	DWORD PTR [ecx], eax

; 102  : }

	pop	edi
	pop	esi
	pop	ebx
	mov	esp, ebp
	pop	ebp
	ret	0
?UnpackRGB@@YAXAAH00K@Z ENDP				; UnpackRGB
_TEXT	ENDS
; Function compile flags: /Odtp /ZI
; File d:\!diffusion 2020\source code 2022\client-server\client\hud.h
;	COMDAT ?HasWeapon@CHud@@QAEHH@Z
_TEXT	SEGMENT
_this$ = -4						; size = 4
_weaponnum$ = 8						; size = 4
?HasWeapon@CHud@@QAEHH@Z PROC				; CHud::HasWeapon, COMDAT
; _this$ = ecx

; 1038 : 	BOOL HasWeapon( int weaponnum ) { return FBitSet( m_iWeaponBits[weaponnum >> 3], BIT( weaponnum & 7 )); }

	push	ebp
	mov	ebp, esp
	sub	esp, 68					; 00000044H
	push	ebx
	push	esi
	push	edi
	mov	DWORD PTR _this$[ebp], ecx
	mov	eax, DWORD PTR _weaponnum$[ebp]
	sar	eax, 3
	mov	ecx, DWORD PTR _this$[ebp]
	movzx	eax, BYTE PTR [ecx+eax+8964]
	mov	ecx, DWORD PTR _weaponnum$[ebp]
	and	ecx, 7
	mov	edx, 1
	shl	edx, cl
	and	eax, edx
	pop	edi
	pop	esi
	pop	ebx
	mov	esp, ebp
	pop	ebp
	ret	4
?HasWeapon@CHud@@QAEHH@Z ENDP				; CHud::HasWeapon
_TEXT	ENDS
; Function compile flags: /Odtp /ZI
; File d:\!diffusion 2020\source code 2022\client-server\client\hud.h
;	COMDAT ?GetSpriteRect@CHud@@QAEAAUwrect_s@@H@Z
_TEXT	SEGMENT
_this$ = -4						; size = 4
_index$ = 8						; size = 4
?GetSpriteRect@CHud@@QAEAAUwrect_s@@H@Z PROC		; CHud::GetSpriteRect, COMDAT
; _this$ = ecx

; 952  : 	wrect_t& GetSpriteRect( int index ) { return m_rgrcRects[index]; }

	push	ebp
	mov	ebp, esp
	sub	esp, 68					; 00000044H
	push	ebx
	push	esi
	push	edi
	mov	DWORD PTR _this$[ebp], ecx
	mov	eax, DWORD PTR _index$[ebp]
	shl	eax, 4
	mov	ecx, DWORD PTR _this$[ebp]
	add	eax, DWORD PTR [ecx+232]
	pop	edi
	pop	esi
	pop	ebx
	mov	esp, ebp
	pop	ebp
	ret	4
?GetSpriteRect@CHud@@QAEAAUwrect_s@@H@Z ENDP		; CHud::GetSpriteRect
_TEXT	ENDS
; Function compile flags: /Odtp /ZI
; File d:\!diffusion 2020\source code 2022\client-server\client\hud.h
;	COMDAT ?GetSprite@CHud@@QAEHH@Z
_TEXT	SEGMENT
tv68 = -72						; size = 4
_this$ = -4						; size = 4
_index$ = 8						; size = 4
?GetSprite@CHud@@QAEHH@Z PROC				; CHud::GetSprite, COMDAT
; _this$ = ecx

; 951  : 	SpriteHandle GetSprite( int index ) { return (index < 0) ? 0 : m_rghSprites[index]; }

	push	ebp
	mov	ebp, esp
	sub	esp, 72					; 00000048H
	push	ebx
	push	esi
	push	edi
	mov	DWORD PTR _this$[ebp], ecx
	cmp	DWORD PTR _index$[ebp], 0
	jge	SHORT $LN3@GetSprite
	mov	DWORD PTR tv68[ebp], 0
	jmp	SHORT $LN4@GetSprite
$LN3@GetSprite:
	mov	eax, DWORD PTR _this$[ebp]
	mov	ecx, DWORD PTR [eax+228]
	mov	edx, DWORD PTR _index$[ebp]
	mov	eax, DWORD PTR [ecx+edx*4]
	mov	DWORD PTR tv68[ebp], eax
$LN4@GetSprite:
	mov	eax, DWORD PTR tv68[ebp]
	pop	edi
	pop	esi
	pop	ebx
	mov	esp, ebp
	pop	ebp
	ret	4
?GetSprite@CHud@@QAEHH@Z ENDP				; CHud::GetSprite
_TEXT	ENDS
; Function compile flags: /Odtp /ZI
; File d:\!diffusion 2020\source code 2022\client-server\client\hud_flashlight.cpp
;	COMDAT ?MsgFunc_Flashlight@CHudFlashlight@@QAEHPBDHPAX@Z
_TEXT	SEGMENT
_this$ = -4						; size = 4
_pszName$ = 8						; size = 4
_iSize$ = 12						; size = 4
_pbuf$ = 16						; size = 4
?MsgFunc_Flashlight@CHudFlashlight@@QAEHPBDHPAX@Z PROC	; CHudFlashlight::MsgFunc_Flashlight, COMDAT
; _this$ = ecx

; 42   : {

	push	ebp
	mov	ebp, esp
	sub	esp, 68					; 00000044H
	push	ebx
	push	esi
	push	edi
	mov	DWORD PTR _this$[ebp], ecx

; 43   : 	BEGIN_READ( pszName, pbuf, iSize );

	mov	eax, DWORD PTR _iSize$[ebp]
	push	eax
	mov	ecx, DWORD PTR _pbuf$[ebp]
	push	ecx
	mov	edx, DWORD PTR _pszName$[ebp]
	push	edx
	call	?BEGIN_READ@@YAXPBDPAXH@Z		; BEGIN_READ
	add	esp, 12					; 0000000cH

; 44   : 	m_fOn = READ_BYTE();

	call	?READ_BYTE@@YAHXZ			; READ_BYTE
	mov	ecx, DWORD PTR _this$[ebp]
	mov	DWORD PTR [ecx+36], eax

; 45   : 	m_iBat = READ_BYTE();

	call	?READ_BYTE@@YAHXZ			; READ_BYTE
	mov	ecx, DWORD PTR _this$[ebp]
	mov	DWORD PTR [ecx+32], eax

; 46   : 	END_READ();

	call	?END_READ@@YAXXZ			; END_READ

; 47   : 
; 48   : 	m_flBat = ((float)m_iBat) / 100.0f;

	mov	eax, DWORD PTR _this$[ebp]
	cvtsi2ss xmm0, DWORD PTR [eax+32]
	divss	xmm0, DWORD PTR __real@42c80000
	mov	ecx, DWORD PTR _this$[ebp]
	movss	DWORD PTR [ecx+8], xmm0

; 49   : 
; 50   : 	return 1;

	mov	eax, 1

; 51   : }

	pop	edi
	pop	esi
	pop	ebx
	mov	esp, ebp
	pop	ebp
	ret	12					; 0000000cH
?MsgFunc_Flashlight@CHudFlashlight@@QAEHPBDHPAX@Z ENDP	; CHudFlashlight::MsgFunc_Flashlight
_TEXT	ENDS
; Function compile flags: /Odtp /ZI
; File d:\!diffusion 2020\source code 2022\client-server\client\hud_flashlight.cpp
;	COMDAT ?Reset@CHudFlashlight@@UAEXXZ
_TEXT	SEGMENT
_this$ = -4						; size = 4
?Reset@CHudFlashlight@@UAEXXZ PROC			; CHudFlashlight::Reset, COMDAT
; _this$ = ecx

; 23   : {

	push	ebp
	mov	ebp, esp
	sub	esp, 68					; 00000044H
	push	ebx
	push	esi
	push	edi
	mov	DWORD PTR _this$[ebp], ecx

; 24   : 	m_fOn = 0;

	mov	eax, DWORD PTR _this$[ebp]
	mov	DWORD PTR [eax+36], 0

; 25   : 	m_flTurnOn = 0.01f;

	mov	eax, DWORD PTR _this$[ebp]
	movss	xmm0, DWORD PTR __real@3c23d70a
	movss	DWORD PTR [eax+12], xmm0

; 26   : }

	pop	edi
	pop	esi
	pop	ebx
	mov	esp, ebp
	pop	ebp
	ret	0
?Reset@CHudFlashlight@@UAEXXZ ENDP			; CHudFlashlight::Reset
_TEXT	ENDS
; Function compile flags: /Odtp /ZI
; File d:\!diffusion 2020\source code 2022\client-server\client\hud_flashlight.cpp
;	COMDAT ?Draw@CHudFlashlight@@UAEHM@Z
_TEXT	SEGMENT
tv143 = -124						; size = 4
tv142 = -120						; size = 4
_iOffset$ = -52						; size = 4
_rc$ = -48						; size = 16
_a$ = -32						; size = 4
_y$ = -28						; size = 4
_x$ = -24						; size = 4
_b$ = -20						; size = 4
_g$ = -16						; size = 4
_r$ = -12						; size = 4
_this$ = -8						; size = 4
__$ArrayPad$ = -4					; size = 4
_flTime$ = 8						; size = 4
?Draw@CHudFlashlight@@UAEHM@Z PROC			; CHudFlashlight::Draw, COMDAT
; _this$ = ecx

; 54   : {

	push	ebp
	mov	ebp, esp
	sub	esp, 124				; 0000007cH
	mov	eax, DWORD PTR ___security_cookie
	xor	eax, ebp
	mov	DWORD PTR __$ArrayPad$[ebp], eax
	push	ebx
	push	esi
	push	edi
	mov	DWORD PTR _this$[ebp], ecx

; 55   : 	if( gHUD.m_iHideHUDDisplay & ( HIDEHUD_FLASHLIGHT|HIDEHUD_ALL ))

	mov	eax, DWORD PTR ?gHUD@@3VCHud@@A+76
	and	eax, 6
	je	SHORT $LN2@Draw

; 56   : 		return 1;

	mov	eax, 1
	jmp	$LN1@Draw
$LN2@Draw:

; 57   : 
; 58   : 	if (!gHUD.HasWeapon( WEAPON_SUIT ))

	push	63					; 0000003fH
	mov	ecx, OFFSET ?gHUD@@3VCHud@@A		; gHUD
	call	?HasWeapon@CHud@@QAEHH@Z		; CHud::HasWeapon
	test	eax, eax
	jne	SHORT $LN3@Draw

; 59   : 		return 1;

	mov	eax, 1
	jmp	$LN1@Draw
$LN3@Draw:

; 60   : 
; 61   : 	if( tr.time == tr.oldtime ) // paused

	movsd	xmm0, QWORD PTR ?tr@@3Uref_globals_t@@A+8
	ucomisd	xmm0, QWORD PTR ?tr@@3Uref_globals_t@@A+16
	lahf
	test	ah, 68					; 00000044H
	jp	SHORT $LN4@Draw

; 62   : 		return 1;

	mov	eax, 1
	jmp	$LN1@Draw
$LN4@Draw:

; 63   : 
; 64   : 	// diffusion - for smooth turning on, see SetupFlashlight function
; 65   : 	if( !m_fOn )

	mov	eax, DWORD PTR _this$[ebp]
	cmp	DWORD PTR [eax+36], 0
	jne	SHORT $LN5@Draw

; 66   : 	{
; 67   : 	//	if( m_flTurnOn > 0.01f )
; 68   : 	//		m_flTurnOn -= 0.5 * g_fFrametime;
; 69   : 
; 70   : 	//	if( m_flTurnOn < 0.01f ) // gotta keep it this way, otherwise if 0 the light will be bright as 1.0 in the first frame
; 71   : 			m_flTurnOn = 0.01f;

	mov	eax, DWORD PTR _this$[ebp]
	movss	xmm0, DWORD PTR __real@3c23d70a
	movss	DWORD PTR [eax+12], xmm0
	jmp	SHORT $LN9@Draw
$LN5@Draw:

; 72   : 	}
; 73   : 	else if( m_flTurnOn < 1.0f )

	mov	eax, DWORD PTR _this$[ebp]
	movss	xmm0, DWORD PTR __real@3f800000
	comiss	xmm0, DWORD PTR [eax+12]
	jbe	SHORT $LN7@Draw

; 74   : 		m_flTurnOn += 4 * g_fFrametime;

	movss	xmm0, DWORD PTR __real@40800000
	mulss	xmm0, DWORD PTR ?g_fFrametime@@3MA
	mov	eax, DWORD PTR _this$[ebp]
	addss	xmm0, DWORD PTR [eax+12]
	mov	ecx, DWORD PTR _this$[ebp]
	movss	DWORD PTR [ecx+12], xmm0
	jmp	SHORT $LN9@Draw
$LN7@Draw:

; 75   : 	else if( m_flTurnOn > 1.0f )

	mov	eax, DWORD PTR _this$[ebp]
	movss	xmm0, DWORD PTR [eax+12]
	comiss	xmm0, DWORD PTR __real@3f800000
	jbe	SHORT $LN9@Draw

; 76   : 		m_flTurnOn = 1.0f;

	mov	eax, DWORD PTR _this$[ebp]
	movss	xmm0, DWORD PTR __real@3f800000
	movss	DWORD PTR [eax+12], xmm0
$LN9@Draw:

; 77   : 
; 78   : 	if( !m_fOn && (m_flBat == 1.0f) && (MainAlpha <= 0.0f) )

	mov	eax, DWORD PTR _this$[ebp]
	cmp	DWORD PTR [eax+36], 0
	jne	SHORT $LN10@Draw
	mov	eax, DWORD PTR _this$[ebp]
	movss	xmm0, DWORD PTR [eax+8]
	ucomiss	xmm0, DWORD PTR __real@3f800000
	lahf
	test	ah, 68					; 00000044H
	jp	SHORT $LN10@Draw
	mov	eax, DWORD PTR _this$[ebp]
	xorps	xmm0, xmm0
	comiss	xmm0, DWORD PTR [eax+44]
	jb	SHORT $LN10@Draw

; 79   : 		return 0;

	xor	eax, eax
	jmp	$LN1@Draw
$LN10@Draw:

; 80   : 
; 81   : 	int r, g, b, x, y, a;
; 82   : 	wrect_t rc;
; 83   : 
; 84   : 	// draw main case
; 85   : 	x = (ScreenWidth / 32) - 35;

	mov	eax, DWORD PTR ?gHUD@@3VCHud@@A+8436
	cdq
	and	edx, 31					; 0000001fH
	add	eax, edx
	sar	eax, 5
	sub	eax, 35					; 00000023H
	mov	DWORD PTR _x$[ebp], eax

; 86   : 	y = ScreenHeight - 200;

	mov	eax, DWORD PTR ?gHUD@@3VCHud@@A+8440
	sub	eax, 200				; 000000c8H
	mov	DWORD PTR _y$[ebp], eax

; 87   : 
; 88   : 	rc = *m_prc1;

	mov	eax, DWORD PTR _this$[ebp]
	mov	ecx, DWORD PTR [eax+24]
	mov	edx, DWORD PTR [ecx]
	mov	DWORD PTR _rc$[ebp], edx
	mov	eax, DWORD PTR [ecx+4]
	mov	DWORD PTR _rc$[ebp+4], eax
	mov	edx, DWORD PTR [ecx+8]
	mov	DWORD PTR _rc$[ebp+8], edx
	mov	eax, DWORD PTR [ecx+12]
	mov	DWORD PTR _rc$[ebp+12], eax

; 89   : 
; 90   : 	// when not used and fully charged, slowly fade out the icon
; 91   : 	if( m_flBat == 1.0f )

	mov	eax, DWORD PTR _this$[ebp]
	movss	xmm0, DWORD PTR [eax+8]
	ucomiss	xmm0, DWORD PTR __real@3f800000
	lahf
	test	ah, 68					; 00000044H
	jp	SHORT $LN11@Draw

; 92   : 		MainAlpha -= 50 * g_fFrametime;

	movss	xmm0, DWORD PTR __real@42480000
	mulss	xmm0, DWORD PTR ?g_fFrametime@@3MA
	mov	eax, DWORD PTR _this$[ebp]
	movss	xmm1, DWORD PTR [eax+44]
	subss	xmm1, xmm0
	mov	ecx, DWORD PTR _this$[ebp]
	movss	DWORD PTR [ecx+44], xmm1
	jmp	SHORT $LN13@Draw
$LN11@Draw:

; 93   : 	else if( m_fOn )

	mov	eax, DWORD PTR _this$[ebp]
	cmp	DWORD PTR [eax+36], 0
	je	SHORT $LN13@Draw

; 94   : 		MainAlpha = MIN_ALPHA;

	mov	eax, DWORD PTR _this$[ebp]
	movss	xmm0, DWORD PTR __real@42c80000
	movss	DWORD PTR [eax+44], xmm0
$LN13@Draw:

; 95   : 
; 96   : 	MainAlpha = bound( 0, MainAlpha, 100 );

	mov	eax, DWORD PTR _this$[ebp]
	movss	xmm0, DWORD PTR [eax+44]
	comiss	xmm0, DWORD PTR __real@00000000
	jb	SHORT $LN23@Draw
	mov	ecx, DWORD PTR _this$[ebp]
	movss	xmm0, DWORD PTR __real@42c80000
	comiss	xmm0, DWORD PTR [ecx+44]
	jbe	SHORT $LN21@Draw
	mov	edx, DWORD PTR _this$[ebp]
	movss	xmm0, DWORD PTR [edx+44]
	movss	DWORD PTR tv142[ebp], xmm0
	jmp	SHORT $LN22@Draw
$LN21@Draw:
	movss	xmm0, DWORD PTR __real@42c80000
	movss	DWORD PTR tv142[ebp], xmm0
$LN22@Draw:
	movss	xmm0, DWORD PTR tv142[ebp]
	movss	DWORD PTR tv143[ebp], xmm0
	jmp	SHORT $LN24@Draw
$LN23@Draw:
	xorps	xmm0, xmm0
	movss	DWORD PTR tv143[ebp], xmm0
$LN24@Draw:
	mov	eax, DWORD PTR _this$[ebp]
	movss	xmm0, DWORD PTR tv143[ebp]
	movss	DWORD PTR [eax+44], xmm0

; 97   : 
; 98   : 	if( m_fOn )

	mov	eax, DWORD PTR _this$[ebp]
	cmp	DWORD PTR [eax+36], 0
	je	SHORT $LN14@Draw

; 99   : 		a = 150;

	mov	DWORD PTR _a$[ebp], 150			; 00000096H

; 100  : 	else

	jmp	SHORT $LN15@Draw
$LN14@Draw:

; 101  : 	{
; 102  : 		a = MainAlpha;

	mov	eax, DWORD PTR _this$[ebp]
	cvttss2si ecx, DWORD PTR [eax+44]
	mov	DWORD PTR _a$[ebp], ecx

; 103  : 		rc.top += 20;

	mov	eax, DWORD PTR _rc$[ebp+8]
	add	eax, 20					; 00000014H
	mov	DWORD PTR _rc$[ebp+8], eax

; 104  : 		y += 20;

	mov	eax, DWORD PTR _y$[ebp]
	add	eax, 20					; 00000014H
	mov	DWORD PTR _y$[ebp], eax
$LN15@Draw:

; 105  : 	}
; 106  : 
; 107  : 	r = g = b = 255;

	mov	DWORD PTR _b$[ebp], 255			; 000000ffH
	mov	eax, DWORD PTR _b$[ebp]
	mov	DWORD PTR _g$[ebp], eax
	mov	ecx, DWORD PTR _g$[ebp]
	mov	DWORD PTR _r$[ebp], ecx

; 108  : 	ScaleColors( r, g, b, a );

	mov	eax, DWORD PTR _a$[ebp]
	push	eax
	lea	ecx, DWORD PTR _b$[ebp]
	push	ecx
	lea	edx, DWORD PTR _g$[ebp]
	push	edx
	lea	eax, DWORD PTR _r$[ebp]
	push	eax
	call	?ScaleColors@@YAXAAH00H@Z		; ScaleColors
	add	esp, 16					; 00000010H

; 109  : 	
; 110  : 	SPR_Set( m_hSprite1, r, g, b );

	mov	eax, DWORD PTR _b$[ebp]
	push	eax
	mov	ecx, DWORD PTR _g$[ebp]
	push	ecx
	mov	edx, DWORD PTR _r$[ebp]
	push	edx
	mov	eax, DWORD PTR _this$[ebp]
	mov	ecx, DWORD PTR [eax+16]
	push	ecx
	call	DWORD PTR ?gEngfuncs@@3Ucl_enginefuncs_s@@A+16
	add	esp, 16					; 00000010H

; 111  : 	SPR_DrawAdditive( 0, x, y, &rc );

	lea	eax, DWORD PTR _rc$[ebp]
	push	eax
	mov	ecx, DWORD PTR _y$[ebp]
	push	ecx
	mov	edx, DWORD PTR _x$[ebp]
	push	edx
	push	0
	call	DWORD PTR ?gEngfuncs@@3Ucl_enginefuncs_s@@A+28
	add	esp, 16					; 00000010H

; 112  : 
; 113  : 	// draw bar
; 114  : 	int iOffset = m_iHeight * (1.0f - m_flBat);

	mov	eax, DWORD PTR _this$[ebp]
	cvtsi2ss xmm0, DWORD PTR [eax+40]
	mov	ecx, DWORD PTR _this$[ebp]
	movss	xmm1, DWORD PTR __real@3f800000
	subss	xmm1, DWORD PTR [ecx+8]
	mulss	xmm0, xmm1
	cvttss2si edx, xmm0
	mov	DWORD PTR _iOffset$[ebp], edx

; 115  : 	rc = *m_prc2;

	mov	eax, DWORD PTR _this$[ebp]
	mov	ecx, DWORD PTR [eax+28]
	mov	edx, DWORD PTR [ecx]
	mov	DWORD PTR _rc$[ebp], edx
	mov	eax, DWORD PTR [ecx+4]
	mov	DWORD PTR _rc$[ebp+4], eax
	mov	edx, DWORD PTR [ecx+8]
	mov	DWORD PTR _rc$[ebp+8], edx
	mov	eax, DWORD PTR [ecx+12]
	mov	DWORD PTR _rc$[ebp+12], eax

; 116  : 	x += 17;

	mov	eax, DWORD PTR _x$[ebp]
	add	eax, 17					; 00000011H
	mov	DWORD PTR _x$[ebp], eax

; 117  : 	if( m_fOn )

	mov	eax, DWORD PTR _this$[ebp]
	cmp	DWORD PTR [eax+36], 0
	je	SHORT $LN16@Draw

; 118  : 		y += 45;

	mov	eax, DWORD PTR _y$[ebp]
	add	eax, 45					; 0000002dH
	mov	DWORD PTR _y$[ebp], eax

; 119  : 	else

	jmp	SHORT $LN17@Draw
$LN16@Draw:

; 120  : 		y += 25;

	mov	eax, DWORD PTR _y$[ebp]
	add	eax, 25					; 00000019H
	mov	DWORD PTR _y$[ebp], eax
$LN17@Draw:

; 121  : 
; 122  : 	rc.bottom -= iOffset;

	mov	eax, DWORD PTR _rc$[ebp+12]
	sub	eax, DWORD PTR _iOffset$[ebp]
	mov	DWORD PTR _rc$[ebp+12], eax

; 123  : 	if( rc.bottom < 1 )

	cmp	DWORD PTR _rc$[ebp+12], 1
	jge	SHORT $LN18@Draw

; 124  : 		rc.bottom = 1;

	mov	DWORD PTR _rc$[ebp+12], 1
$LN18@Draw:

; 125  : 	r = 255;

	mov	DWORD PTR _r$[ebp], 255			; 000000ffH

; 126  : 	g = 255;

	mov	DWORD PTR _g$[ebp], 255			; 000000ffH

; 127  : 	b = 255;

	mov	DWORD PTR _b$[ebp], 255			; 000000ffH

; 128  : 
; 129  : 	if( m_flBat < 0.25f )

	mov	eax, DWORD PTR _this$[ebp]
	movss	xmm0, DWORD PTR __real@3e800000
	comiss	xmm0, DWORD PTR [eax+8]
	jbe	SHORT $LN19@Draw

; 130  : 		UnpackRGB( r, g, b, RGB_REDISH );

	push	16715792				; 00ff1010H
	lea	eax, DWORD PTR _b$[ebp]
	push	eax
	lea	ecx, DWORD PTR _g$[ebp]
	push	ecx
	lea	edx, DWORD PTR _r$[ebp]
	push	edx
	call	?UnpackRGB@@YAXAAH00K@Z			; UnpackRGB
	add	esp, 16					; 00000010H
$LN19@Draw:

; 131  : 
; 132  : 	ScaleColors( r, g, b, a );

	mov	eax, DWORD PTR _a$[ebp]
	push	eax
	lea	ecx, DWORD PTR _b$[ebp]
	push	ecx
	lea	edx, DWORD PTR _g$[ebp]
	push	edx
	lea	eax, DWORD PTR _r$[ebp]
	push	eax
	call	?ScaleColors@@YAXAAH00H@Z		; ScaleColors
	add	esp, 16					; 00000010H

; 133  : 	SPR_Set( m_hSprite2, r, g, b );

	mov	eax, DWORD PTR _b$[ebp]
	push	eax
	mov	ecx, DWORD PTR _g$[ebp]
	push	ecx
	mov	edx, DWORD PTR _r$[ebp]
	push	edx
	mov	eax, DWORD PTR _this$[ebp]
	mov	ecx, DWORD PTR [eax+20]
	push	ecx
	call	DWORD PTR ?gEngfuncs@@3Ucl_enginefuncs_s@@A+16
	add	esp, 16					; 00000010H

; 134  : 	SPR_DrawAdditive( 0, x, y + iOffset, &rc );

	lea	eax, DWORD PTR _rc$[ebp]
	push	eax
	mov	ecx, DWORD PTR _y$[ebp]
	add	ecx, DWORD PTR _iOffset$[ebp]
	push	ecx
	mov	edx, DWORD PTR _x$[ebp]
	push	edx
	push	0
	call	DWORD PTR ?gEngfuncs@@3Ucl_enginefuncs_s@@A+28
	add	esp, 16					; 00000010H

; 135  : 
; 136  : 	return 1;

	mov	eax, 1
$LN1@Draw:

; 137  : }

	pop	edi
	pop	esi
	pop	ebx
	mov	ecx, DWORD PTR __$ArrayPad$[ebp]
	xor	ecx, ebp
	call	@__security_check_cookie@4
	mov	esp, ebp
	pop	ebp
	ret	4
?Draw@CHudFlashlight@@UAEHM@Z ENDP			; CHudFlashlight::Draw
_TEXT	ENDS
; Function compile flags: /Odtp /ZI
; File d:\!diffusion 2020\source code 2022\client-server\client\hud_flashlight.cpp
;	COMDAT ?VidInit@CHudFlashlight@@UAEHXZ
_TEXT	SEGMENT
_HUD_flash_full$ = -12					; size = 4
_HUD_flash_empty$ = -8					; size = 4
_this$ = -4						; size = 4
?VidInit@CHudFlashlight@@UAEHXZ PROC			; CHudFlashlight::VidInit, COMDAT
; _this$ = ecx

; 29   : {

	push	ebp
	mov	ebp, esp
	sub	esp, 76					; 0000004cH
	push	ebx
	push	esi
	push	edi
	mov	DWORD PTR _this$[ebp], ecx

; 30   : 	int HUD_flash_empty = gHUD.GetSpriteIndex( "newflash_empty" );

	push	OFFSET ??_C@_0P@LAAMKLF@newflash_empty?$AA@
	mov	ecx, OFFSET ?gHUD@@3VCHud@@A		; gHUD
	call	?GetSpriteIndex@CHud@@QAEHPBD@Z		; CHud::GetSpriteIndex
	mov	DWORD PTR _HUD_flash_empty$[ebp], eax

; 31   : 	int HUD_flash_full = gHUD.GetSpriteIndex( "newflash_full" );

	push	OFFSET ??_C@_0O@LHOGJKLK@newflash_full?$AA@
	mov	ecx, OFFSET ?gHUD@@3VCHud@@A		; gHUD
	call	?GetSpriteIndex@CHud@@QAEHPBD@Z		; CHud::GetSpriteIndex
	mov	DWORD PTR _HUD_flash_full$[ebp], eax

; 32   : 	m_hSprite1 = gHUD.GetSprite( HUD_flash_empty );

	mov	eax, DWORD PTR _HUD_flash_empty$[ebp]
	push	eax
	mov	ecx, OFFSET ?gHUD@@3VCHud@@A		; gHUD
	call	?GetSprite@CHud@@QAEHH@Z		; CHud::GetSprite
	mov	ecx, DWORD PTR _this$[ebp]
	mov	DWORD PTR [ecx+16], eax

; 33   : 	m_hSprite2 = gHUD.GetSprite( HUD_flash_full );

	mov	eax, DWORD PTR _HUD_flash_full$[ebp]
	push	eax
	mov	ecx, OFFSET ?gHUD@@3VCHud@@A		; gHUD
	call	?GetSprite@CHud@@QAEHH@Z		; CHud::GetSprite
	mov	ecx, DWORD PTR _this$[ebp]
	mov	DWORD PTR [ecx+20], eax

; 34   : 	m_prc1 = &gHUD.GetSpriteRect( HUD_flash_empty );

	mov	eax, DWORD PTR _HUD_flash_empty$[ebp]
	push	eax
	mov	ecx, OFFSET ?gHUD@@3VCHud@@A		; gHUD
	call	?GetSpriteRect@CHud@@QAEAAUwrect_s@@H@Z	; CHud::GetSpriteRect
	mov	ecx, DWORD PTR _this$[ebp]
	mov	DWORD PTR [ecx+24], eax

; 35   : 	m_prc2 = &gHUD.GetSpriteRect( HUD_flash_full );

	mov	eax, DWORD PTR _HUD_flash_full$[ebp]
	push	eax
	mov	ecx, OFFSET ?gHUD@@3VCHud@@A		; gHUD
	call	?GetSpriteRect@CHud@@QAEAAUwrect_s@@H@Z	; CHud::GetSpriteRect
	mov	ecx, DWORD PTR _this$[ebp]
	mov	DWORD PTR [ecx+28], eax

; 36   : 	m_iHeight = m_prc2->bottom - m_prc2->top;

	mov	eax, DWORD PTR _this$[ebp]
	mov	ecx, DWORD PTR [eax+28]
	mov	edx, DWORD PTR _this$[ebp]
	mov	eax, DWORD PTR [edx+28]
	mov	ecx, DWORD PTR [ecx+12]
	sub	ecx, DWORD PTR [eax+8]
	mov	edx, DWORD PTR _this$[ebp]
	mov	DWORD PTR [edx+40], ecx

; 37   : 
; 38   : 	return 1;

	mov	eax, 1

; 39   : }

	pop	edi
	pop	esi
	pop	ebx
	mov	esp, ebp
	pop	ebp
	ret	0
?VidInit@CHudFlashlight@@UAEHXZ ENDP			; CHudFlashlight::VidInit
_TEXT	ENDS
; Function compile flags: /Odtp /ZI
; File d:\!diffusion 2020\source code 2022\client-server\client\hud_flashlight.cpp
;	COMDAT ?Init@CHudFlashlight@@UAEHXZ
_TEXT	SEGMENT
_this$ = -4						; size = 4
?Init@CHudFlashlight@@UAEHXZ PROC			; CHudFlashlight::Init, COMDAT
; _this$ = ecx

; 9    : {

	push	ebp
	mov	ebp, esp
	sub	esp, 68					; 00000044H
	push	ebx
	push	esi
	push	edi
	mov	DWORD PTR _this$[ebp], ecx

; 10   : 	m_fOn = 0;

	mov	eax, DWORD PTR _this$[ebp]
	mov	DWORD PTR [eax+36], 0

; 11   : 	m_flTurnOn = 0.01f;

	mov	eax, DWORD PTR _this$[ebp]
	movss	xmm0, DWORD PTR __real@3c23d70a
	movss	DWORD PTR [eax+12], xmm0

; 12   : 
; 13   : 	HOOK_MESSAGE( Flashlight );

	push	OFFSET ?__MsgFunc_Flashlight@@YAHPBDHPAX@Z ; __MsgFunc_Flashlight
	push	OFFSET ??_C@_0L@PALCELJK@Flashlight?$AA@
	call	DWORD PTR ?gEngfuncs@@3Ucl_enginefuncs_s@@A+72
	add	esp, 8

; 14   : 
; 15   : 	m_iFlags |= HUD_ACTIVE;

	mov	eax, DWORD PTR _this$[ebp]
	mov	ecx, DWORD PTR [eax+4]
	or	ecx, 1
	mov	edx, DWORD PTR _this$[ebp]
	mov	DWORD PTR [edx+4], ecx

; 16   : 
; 17   : 	gHUD.AddHudElem( this );

	mov	eax, DWORD PTR _this$[ebp]
	push	eax
	mov	ecx, OFFSET ?gHUD@@3VCHud@@A		; gHUD
	call	?AddHudElem@CHud@@QAEXPAVCHudBase@@@Z	; CHud::AddHudElem

; 18   : 
; 19   : 	return 1;

	mov	eax, 1

; 20   : }

	pop	edi
	pop	esi
	pop	ebx
	mov	esp, ebp
	pop	ebp
	ret	0
?Init@CHudFlashlight@@UAEHXZ ENDP			; CHudFlashlight::Init
_TEXT	ENDS
; Function compile flags: /Odtp /ZI
;	COMDAT ??__G@YGXPAX0IIP6EPAX00@Z@Z
_TEXT	SEGMENT
tv66 = -68						; size = 4
___t$ = 8						; size = 4
___u$ = 12						; size = 4
___s$ = 16						; size = 4
___n$ = 20						; size = 4
___f$ = 24						; size = 4
??__G@YGXPAX0IIP6EPAX00@Z@Z PROC			; `vector copy constructor iterator', COMDAT
	push	ebp
	mov	ebp, esp
	sub	esp, 68					; 00000044H
	push	ebx
	push	esi
	push	edi
$LN2@vector:
	mov	eax, DWORD PTR ___n$[ebp]
	mov	DWORD PTR tv66[ebp], eax
	mov	ecx, DWORD PTR ___n$[ebp]
	sub	ecx, 1
	mov	DWORD PTR ___n$[ebp], ecx
	cmp	DWORD PTR tv66[ebp], 0
	jbe	SHORT $LN1@vector
	mov	eax, DWORD PTR ___u$[ebp]
	push	eax
	mov	ecx, DWORD PTR ___t$[ebp]
	call	DWORD PTR ___f$[ebp]
	mov	eax, DWORD PTR ___t$[ebp]
	add	eax, DWORD PTR ___s$[ebp]
	mov	DWORD PTR ___t$[ebp], eax
	mov	eax, DWORD PTR ___u$[ebp]
	add	eax, DWORD PTR ___s$[ebp]
	mov	DWORD PTR ___u$[ebp], eax
	jmp	SHORT $LN2@vector
$LN1@vector:
	pop	edi
	pop	esi
	pop	ebx
	mov	esp, ebp
	pop	ebp
	ret	20					; 00000014H
??__G@YGXPAX0IIP6EPAX00@Z@Z ENDP			; `vector copy constructor iterator'
_TEXT	ENDS
; Function compile flags: /Odtp /ZI
;	COMDAT ??_H@YGXPAXIIP6EPAX0@Z@Z
_TEXT	SEGMENT
tv66 = -68						; size = 4
___t$ = 8						; size = 4
___s$ = 12						; size = 4
___n$ = 16						; size = 4
___f$ = 20						; size = 4
??_H@YGXPAXIIP6EPAX0@Z@Z PROC				; `vector constructor iterator', COMDAT
	push	ebp
	mov	ebp, esp
	sub	esp, 68					; 00000044H
	push	ebx
	push	esi
	push	edi
$LN2@vector:
	mov	eax, DWORD PTR ___n$[ebp]
	mov	DWORD PTR tv66[ebp], eax
	mov	ecx, DWORD PTR ___n$[ebp]
	sub	ecx, 1
	mov	DWORD PTR ___n$[ebp], ecx
	cmp	DWORD PTR tv66[ebp], 0
	jbe	SHORT $LN1@vector
	mov	ecx, DWORD PTR ___t$[ebp]
	call	DWORD PTR ___f$[ebp]
	mov	eax, DWORD PTR ___t$[ebp]
	add	eax, DWORD PTR ___s$[ebp]
	mov	DWORD PTR ___t$[ebp], eax
	jmp	SHORT $LN2@vector
$LN1@vector:
	pop	edi
	pop	esi
	pop	ebx
	mov	esp, ebp
	pop	ebp
	ret	16					; 00000010H
??_H@YGXPAXIIP6EPAX0@Z@Z ENDP				; `vector constructor iterator'
_TEXT	ENDS
END
