; Listing generated by Microsoft (R) Optimizing Compiler Version 19.00.24247.2 

	TITLE	D:\!DIFFUSION 2020\source code 2022\client-server\client\hud_msg.cpp
	.686P
	.XMM
	include listing.inc
	.model	flat

INCLUDELIB LIBCMT
INCLUDELIB OLDNAMES

PUBLIC	??_H@YGXPAXIIP6EPAX0@Z@Z			; `vector constructor iterator'
PUBLIC	??__G@YGXPAX0IIP6EPAX00@Z@Z			; `vector copy constructor iterator'
PUBLIC	??0Vector@@QAE@XZ				; Vector::Vector
PUBLIC	??0Vector@@QAE@MMM@Z				; Vector::Vector
PUBLIC	??0Vector@@QAE@ABV0@@Z				; Vector::Vector
PUBLIC	??0Vector@@QAE@QAM@Z				; Vector::Vector
PUBLIC	??HVector@@QBE?AV0@ABV0@@Z			; Vector::operator+
PUBLIC	??GVector@@QBE?AV0@ABV0@@Z			; Vector::operator-
PUBLIC	??DVector@@QBE?AV0@M@Z				; Vector::operator*
PUBLIC	?Length@Vector@@QBEMXZ				; Vector::Length
PUBLIC	??BVector@@QAEPAMXZ				; Vector::operator float *
PUBLIC	??0Radian@@QAE@XZ				; Radian::Radian
PUBLIC	??0entity_state_s@@QAE@ABU0@@Z			; entity_state_s::entity_state_s
PUBLIC	?InitHUDMessages@CHud@@QAEHXZ			; CHud::InitHUDMessages
PUBLIC	?SetFOV@CHud@@QAEXH@Z				; CHud::SetFOV
PUBLIC	?MsgFunc_Damage@CHud@@QAAHPBDHPAX@Z		; CHud::MsgFunc_Damage
PUBLIC	?MsgFunc_GameMode@CHud@@QAAHPBDHPAX@Z		; CHud::MsgFunc_GameMode
PUBLIC	?MsgFunc_Logo@CHud@@QAAHPBDHPAX@Z		; CHud::MsgFunc_Logo
PUBLIC	?MsgFunc_ResetHUD@CHud@@QAAHPBDHPAX@Z		; CHud::MsgFunc_ResetHUD
PUBLIC	?MsgFunc_InitHUD@CHud@@QAAHPBDHPAX@Z		; CHud::MsgFunc_InitHUD
PUBLIC	?MsgFunc_ViewMode@CHud@@QAAHPBDHPAX@Z		; CHud::MsgFunc_ViewMode
PUBLIC	?MsgFunc_SetFOV@CHud@@QAAHPBDHPAX@Z		; CHud::MsgFunc_SetFOV
PUBLIC	?MsgFunc_Concuss@CHud@@QAAHPBDHPAX@Z		; CHud::MsgFunc_Concuss
PUBLIC	?MsgFunc_RainData@CHud@@QAAHPBDHPAX@Z		; CHud::MsgFunc_RainData
PUBLIC	?MsgFunc_HUDColor@CHud@@QAAHPBDHPAX@Z		; CHud::MsgFunc_HUDColor
PUBLIC	?MsgFunc_SetBody@CHud@@QAAHPBDHPAX@Z		; CHud::MsgFunc_SetBody
PUBLIC	?MsgFunc_SetSkin@CHud@@QAAHPBDHPAX@Z		; CHud::MsgFunc_SetSkin
PUBLIC	?MsgFunc_Particle@CHud@@QAAHPBDHPAX@Z		; CHud::MsgFunc_Particle
PUBLIC	?MsgFunc_KillPart@CHud@@QAAHPBDHPAX@Z		; CHud::MsgFunc_KillPart
PUBLIC	?MsgFunc_KillDecals@CHud@@QAAHPBDHPAX@Z		; CHud::MsgFunc_KillDecals
PUBLIC	?MsgFunc_WeaponAnim@CHud@@QAAHPBDHPAX@Z		; CHud::MsgFunc_WeaponAnim
PUBLIC	?MsgFunc_MusicFade@CHud@@QAAHPBDHPAX@Z		; CHud::MsgFunc_MusicFade
PUBLIC	?MsgFunc_Weapons@CHud@@QAAHPBDHPAX@Z		; CHud::MsgFunc_Weapons
PUBLIC	?MsgFunc_StudioDecal@CHud@@QAAHPBDHPAX@Z	; CHud::MsgFunc_StudioDecal
PUBLIC	?MsgFunc_SetupBones@CHud@@QAAHPBDHPAX@Z		; CHud::MsgFunc_SetupBones
PUBLIC	?MsgFunc_TempEnt@CHud@@QAAHPBDHPAX@Z		; CHud::MsgFunc_TempEnt
PUBLIC	?MsgFunc_WaterSplash@CHud@@QAAHPBDHPAX@Z	; CHud::MsgFunc_WaterSplash
PUBLIC	??0pmplane_t@@QAE@XZ				; pmplane_t::pmplane_t
PUBLIC	??0pmtrace_s@@QAE@XZ				; pmtrace_s::pmtrace_s
PUBLIC	?R_StudioDecalShoot@@YAXHPAUcl_entity_s@@PBM1HPAUmodelstate_s@@@Z ; R_StudioDecalShoot
PUBLIC	?R_StudioSetBonesExternal@@YAXPBUcl_entity_s@@QBVVector@@QBVRadian@@@Z ; R_StudioSetBonesExternal
PUBLIC	??0CQuakePart@@QAE@XZ				; CQuakePart::CQuakePart
PUBLIC	?__MsgFunc_Logo@@YAHPBDHPAX@Z			; __MsgFunc_Logo
PUBLIC	?__MsgFunc_HUDColor@@YAHPBDHPAX@Z		; __MsgFunc_HUDColor
PUBLIC	?__MsgFunc_Weapons@@YAHPBDHPAX@Z		; __MsgFunc_Weapons
PUBLIC	?__MsgFunc_RainData@@YAHPBDHPAX@Z		; __MsgFunc_RainData
PUBLIC	?__MsgFunc_SetBody@@YAHPBDHPAX@Z		; __MsgFunc_SetBody
PUBLIC	?__MsgFunc_SetSkin@@YAHPBDHPAX@Z		; __MsgFunc_SetSkin
PUBLIC	?__MsgFunc_ResetHUD@@YAHPBDHPAX@Z		; __MsgFunc_ResetHUD
PUBLIC	?__MsgFunc_InitHUD@@YAHPBDHPAX@Z		; __MsgFunc_InitHUD
PUBLIC	?__MsgFunc_ViewMode@@YAHPBDHPAX@Z		; __MsgFunc_ViewMode
PUBLIC	?__MsgFunc_Particle@@YAHPBDHPAX@Z		; __MsgFunc_Particle
PUBLIC	?__MsgFunc_KillPart@@YAHPBDHPAX@Z		; __MsgFunc_KillPart
PUBLIC	?__MsgFunc_SetFOV@@YAHPBDHPAX@Z			; __MsgFunc_SetFOV
PUBLIC	?__MsgFunc_Concuss@@YAHPBDHPAX@Z		; __MsgFunc_Concuss
PUBLIC	?__MsgFunc_GameMode@@YAHPBDHPAX@Z		; __MsgFunc_GameMode
PUBLIC	?__MsgFunc_MusicFade@@YAHPBDHPAX@Z		; __MsgFunc_MusicFade
PUBLIC	?__MsgFunc_WeaponAnim@@YAHPBDHPAX@Z		; __MsgFunc_WeaponAnim
PUBLIC	?__MsgFunc_KillDecals@@YAHPBDHPAX@Z		; __MsgFunc_KillDecals
PUBLIC	?__MsgFunc_StudioDecal@@YAHPBDHPAX@Z		; __MsgFunc_StudioDecal
PUBLIC	?__MsgFunc_SetupBones@@YAHPBDHPAX@Z		; __MsgFunc_SetupBones
PUBLIC	?__MsgFunc_TempEnt@@YAHPBDHPAX@Z		; __MsgFunc_TempEnt
PUBLIC	?__MsgFunc_WaterSplash@@YAHPBDHPAX@Z		; __MsgFunc_WaterSplash
PUBLIC	?CheckForLocalWeaponShootAnimation@@YA_NH@Z	; CheckForLocalWeaponShootAnimation
PUBLIC	?DCL@@YAXH@Z					; DCL
PUBLIC	??$strcpy_s@$0EA@@@YAHAAY0EA@DPBD@Z		; strcpy_s<64>
PUBLIC	??_C@_04GIGGPADC@Logo?$AA@			; `string'
PUBLIC	??_C@_08PEHACIKG@ResetHUD?$AA@			; `string'
PUBLIC	??_C@_08JJGOBBMF@GameMode?$AA@			; `string'
PUBLIC	??_C@_07PEONMAPN@InitHUD?$AA@			; `string'
PUBLIC	??_C@_08IMMBLBLF@ViewMode?$AA@			; `string'
PUBLIC	??_C@_06NJNDMID@SetFOV?$AA@			; `string'
PUBLIC	??_C@_07KCBJBGLB@Concuss?$AA@			; `string'
PUBLIC	??_C@_07DNEKOHB@Weapons?$AA@			; `string'
PUBLIC	??_C@_08GMOCKBAK@HUDColor?$AA@			; `string'
PUBLIC	??_C@_08HIFHGEKA@Particle?$AA@			; `string'
PUBLIC	??_C@_08BOBKHLMK@KillPart?$AA@			; `string'
PUBLIC	??_C@_08HEDELBBN@RainData?$AA@			; `string'
PUBLIC	??_C@_07PIBMLFBJ@SetBody?$AA@			; `string'
PUBLIC	??_C@_07CHKFILLJ@SetSkin?$AA@			; `string'
PUBLIC	??_C@_09HMOJLOCD@MusicFade?$AA@			; `string'
PUBLIC	??_C@_0L@HDEEALFN@WeaponAnim?$AA@		; `string'
PUBLIC	??_C@_0L@IBFKHCEP@KillDecals?$AA@		; `string'
PUBLIC	??_C@_0M@EOFEOEOD@StudioDecal?$AA@		; `string'
PUBLIC	??_C@_0L@CPHIAPDB@SetupBones?$AA@		; `string'
PUBLIC	??_C@_07HKFHLAHE@TempEnt?$AA@			; `string'
PUBLIC	??_C@_0M@GHGEHHGI@WaterSplash?$AA@		; `string'
PUBLIC	??_C@_03EJIPIALM@1?42?$AA@			; `string'
PUBLIC	??_C@_0BH@EHIOFMDB@zoom_sensitivity_ratio?$AA@	; `string'
PUBLIC	??_C@_02PEECMOAB@90?$AA@			; `string'
PUBLIC	??_C@_0M@LPOJOBFH@default_fov?$AA@		; `string'
PUBLIC	??_C@_01HIHLOKLC@1?$AA@				; `string'
PUBLIC	??_C@_08BMDDHCHB@hud_draw?$AA@			; `string'
PUBLIC	??_C@_0M@JFLMCFNC@sensitivity?$AA@		; `string'
PUBLIC	??_C@_0M@GLFMHAAH@dmg_concuss?$AA@		; `string'
PUBLIC	??_C@_04ILIFLICO@?4aur?$AA@			; `string'
PUBLIC	??_C@_0BK@IKHONLAJ@StudioDecal?3?5ent?5?$DN?$DN?5NULL?6?$AA@ ; `string'
PUBLIC	??_C@_0BJ@KFJKELA@SetupBones?3?5ent?5?$DN?$DN?5NULL?6?$AA@ ; `string'
PUBLIC	??_C@_0BF@DHMMJAO@player?1shield_on?4wav?$AA@	; `string'
PUBLIC	??_C@_0BK@NNEEBMBE@weapons?1smoke_grenade?4wav?$AA@ ; `string'
PUBLIC	??_C@_0BA@GHCACEMJ@env_spark?4part1?$AA@	; `string'
PUBLIC	??_C@_0BA@EMANHHAK@env_spark?4part2?$AA@	; `string'
PUBLIC	??_C@_0BP@OKEFMAFH@sprites?1effects?1watertrail?4spr?$AA@ ; `string'
PUBLIC	??_C@_0BO@KNFHGGOH@server?1spree_killingspree?4wav?$AA@ ; `string'
PUBLIC	??_C@_0BM@PLIGJAPL@server?1spree_dominating?4wav?$AA@ ; `string'
PUBLIC	??_C@_0BJ@MLNBEADI@server?1spree_rampage?4wav?$AA@ ; `string'
PUBLIC	??_C@_0BJ@KPLIBKLM@server?1spree_godlike?4wav?$AA@ ; `string'
PUBLIC	??_C@_0BM@PHPKDMCG@server?1spree_wickedsick?4wav?$AA@ ; `string'
PUBLIC	??_C@_0BI@CCGJGALK@server?1snd_headshot?4wav?$AA@ ; `string'
PUBLIC	??_C@_0BL@IPJENCPG@server?1snd_spree_ended?4wav?$AA@ ; `string'
PUBLIC	??_C@_0BK@MFJBJAAJ@server?1snd_doublekill?4wav?$AA@ ; `string'
PUBLIC	??_C@_0BK@JOCFCPDD@server?1snd_triplekill?4wav?$AA@ ; `string'
PUBLIC	??_C@_0BJ@NCNJKNLB@server?1snd_multikill?4wav?$AA@ ; `string'
PUBLIC	??_C@_0BI@DEAFKIDC@server?1snd_megakill?4wav?$AA@ ; `string'
PUBLIC	??_C@_0BJ@EFNGDCGM@server?1snd_ultrakill?4wav?$AA@ ; `string'
PUBLIC	??_C@_0BL@DBCNCNON@server?1snd_monsterkill?4wav?$AA@ ; `string'
PUBLIC	??_C@_0BC@KOLGDOKE@very_small_splash?$AA@	; `string'
PUBLIC	??_C@_0N@NPPBAAPG@small_splash?$AA@		; `string'
PUBLIC	??_C@_0L@PHFPLJKM@big_splash?$AA@		; `string'
PUBLIC	??_C@_0CF@BNBCFGKI@items?1water_splash?1water_splash1@ ; `string'
PUBLIC	??_C@_0CF@JLIGCEAG@items?1water_splash?1water_splash2@ ; `string'
PUBLIC	??_C@_0CF@FANKPHKD@items?1water_splash?1water_splash3@ ; `string'
PUBLIC	__real@00000000
PUBLIC	__real@39800000
PUBLIC	__real@3b000000
PUBLIC	__real@3b800000
PUBLIC	__real@3c000000
PUBLIC	__real@3c23d70a
PUBLIC	__real@3d4ccccd
PUBLIC	__real@3dcccccd
PUBLIC	__real@3e000000
PUBLIC	__real@3f000000
PUBLIC	__real@3f333333
PUBLIC	__real@3f400000
PUBLIC	__real@3f4ccccd
PUBLIC	__real@3f747ae147ae147b
PUBLIC	__real@3f800000
PUBLIC	__real@3f847ae147ae147b
PUBLIC	__real@3fb999999999999a
PUBLIC	__real@3fd0000000000000
PUBLIC	__real@3fe0000000000000
PUBLIC	__real@3fe6666666666666
PUBLIC	__real@3fe999999999999a
PUBLIC	__real@3ff0000000000000
PUBLIC	__real@3ff199999999999a
PUBLIC	__real@3ff8000000000000
PUBLIC	__real@3ffa666666666666
PUBLIC	__real@3ffccccccccccccd
PUBLIC	__real@40000000
PUBLIC	__real@4000000000000000
PUBLIC	__real@4002cccccccccccd
PUBLIC	__real@4004000000000000
PUBLIC	__real@4008000000000000
PUBLIC	__real@4012000000000000
PUBLIC	__real@40400000
PUBLIC	__real@40e00000
PUBLIC	__real@41200000
PUBLIC	__real@41c80000
PUBLIC	__real@41f00000
PUBLIC	__real@42200000
PUBLIC	__real@42b40000
PUBLIC	__real@42c80000
PUBLIC	__real@43480000
PUBLIC	__real@437f0000
PUBLIC	__real@447a0000
PUBLIC	__real@bf400000
PUBLIC	__real@bfc00000
EXTRN	___report_rangecheckfailure:PROC
EXTRN	__Init_thread_header:PROC
EXTRN	__Init_thread_abort:PROC
EXTRN	__Init_thread_footer:PROC
EXTRN	_strcpy_s:PROC
EXTRN	_free:PROC
EXTRN	_sqrt:PROC
EXTRN	?COM_DefaultExtension@@YAXPADPBD@Z:PROC		; COM_DefaultExtension
EXTRN	?EnableIcon@CHudStatusIcons@@QAEXPADEEE@Z:PROC	; CHudStatusIcons::EnableIcon
EXTRN	?DisableIcon@CHudStatusIcons@@QAEXPAD@Z:PROC	; CHudStatusIcons::DisableIcon
EXTRN	?ReportAchievementsToConsole@CHudAchievement@@QAEXXZ:PROC ; CHudAchievement::ReportAchievementsToConsole
EXTRN	?ALERT@@YAXW4ALERT_TYPE@@PADZZ:PROC		; ALERT
EXTRN	?PM_FindTextureType@@YADPAD@Z:PROC		; PM_FindTextureType
EXTRN	?UTIL_CreateAurora@@YAXPAUcl_entity_s@@PBDHM@Z:PROC ; UTIL_CreateAurora
EXTRN	?UTIL_RemoveAurora@@YAXPAUcl_entity_s@@@Z:PROC	; UTIL_RemoveAurora
EXTRN	?BEGIN_READ@@YAXPBDPAXH@Z:PROC			; BEGIN_READ
EXTRN	?END_READ@@YAXXZ:PROC				; END_READ
EXTRN	?READ_BYTE@@YAHXZ:PROC				; READ_BYTE
EXTRN	?READ_SHORT@@YAHXZ:PROC				; READ_SHORT
EXTRN	?READ_LONG@@YAHXZ:PROC				; READ_LONG
EXTRN	?READ_STRING@@YAPADXZ:PROC			; READ_STRING
EXTRN	?READ_COORD@@YAMXZ:PROC				; READ_COORD
EXTRN	?READ_BYTES@@YAXPAEH@Z:PROC			; READ_BYTES
EXTRN	?StudioDecalShoot@CStudioModelRenderer@@QAEXABVVector@@0HPAUcl_entity_s@@HPAUmodelstate_s@@@Z:PROC ; CStudioModelRenderer::StudioDecalShoot
EXTRN	?StudioSetBonesExternal@CStudioModelRenderer@@QAEXPBUcl_entity_s@@QBVVector@@QBVRadian@@@Z:PROC ; CStudioModelRenderer::StudioSetBonesExternal
EXTRN	?R_SetupLightProjection@@YAXPAUplight_s@@ABVVector@@1MM@Z:PROC ; R_SetupLightProjection
EXTRN	?R_SetupLightAttenuationTexture@@YAXPAUplight_s@@H@Z:PROC ; R_SetupLightAttenuationTexture
EXTRN	?CL_AllocPlight@@YAPAUplight_s@@H@Z:PROC	; CL_AllocPlight
EXTRN	?R_Sprite_Smoke@@YAXPAUtempent_s@@MH@Z:PROC	; R_Sprite_Smoke
EXTRN	?R_Explosion@@YAXVVector@@HMMH@Z:PROC		; R_Explosion
EXTRN	?R_ClientSound@@YAXVVector@@HHHH@Z:PROC		; R_ClientSound
EXTRN	?R_MakeWeaponShake@@YAXHH_N@Z:PROC		; R_MakeWeaponShake
EXTRN	?LocalWeaponAnims@@YA_NXZ:PROC			; LocalWeaponAnims
EXTRN	?R_ParseRainMessage@@YAXXZ:PROC			; R_ParseRainMessage
EXTRN	?AddParticle@CQuakePartSystem@@QAE_NPAVCQuakePart@@HH@Z:PROC ; CQuakePartSystem::AddParticle
EXTRN	?CreateEffect@CQuakePartSystem@@QAEXHPBDABVVector@@1@Z:PROC ; CQuakePartSystem::CreateEffect
EXTRN	?BulletParticles@CQuakePartSystem@@QAEXHABVVector@@0@Z:PROC ; CQuakePartSystem::BulletParticles
EXTRN	?SmokeParticles@CQuakePartSystem@@QAEXHABVVector@@HMM@Z:PROC ; CQuakePartSystem::SmokeParticles
EXTRN	?Smoke@CQuakePartSystem@@QAEXHHABVVector@@0HMMMMV2@MM@Z:PROC ; CQuakePartSystem::Smoke
EXTRN	?WaterSplashParticle@CQuakePartSystem@@QAEXHABVVector@@@Z:PROC ; CQuakePartSystem::WaterSplashParticle
EXTRN	?BloodParticle@CQuakePartSystem@@QAEXHABVVector@@MV2@1@Z:PROC ; CQuakePartSystem::BloodParticle
EXTRN	@__security_check_cookie@4:PROC
EXTRN	___CxxFrameHandler3:PROC
EXTRN	__Init_thread_epoch:DWORD
EXTRN	?g_vecZero@@3VVector@@B:BYTE			; g_vecZero
EXTRN	?gEngfuncs@@3Ucl_enginefuncs_s@@A:BYTE		; gEngfuncs
EXTRN	?gRenderfuncs@@3Urender_api_s@@A:BYTE		; gRenderfuncs
EXTRN	?gHUD@@3VCHud@@A:BYTE				; gHUD
EXTRN	?localanim_NextPAttackTime@@3MA:DWORD		; localanim_NextPAttackTime
EXTRN	?localanim_NextSAttackTime@@3MA:DWORD		; localanim_NextSAttackTime
EXTRN	?localanim_WeaponID@@3HA:DWORD			; localanim_WeaponID
EXTRN	?localanim_AllowRpgShoot@@3_NA:BYTE		; localanim_AllowRpgShoot
EXTRN	?g_fRenderInitialized@@3HA:DWORD		; g_fRenderInitialized
EXTRN	?g_StudioRenderer@@3VCStudioModelRenderer@@A:BYTE ; g_StudioRenderer
EXTRN	?IEngineStudio@@3Uengine_studio_api_s@@A:BYTE	; IEngineStudio
EXTRN	?tr@@3Uref_globals_t@@A:BYTE			; tr
EXTRN	?g_pParticles@@3VCQuakePartSystem@@A:BYTE	; g_pParticles
EXTRN	?g_bDuckToggled@@3_NA:BYTE			; g_bDuckToggled
EXTRN	___security_cookie:DWORD
EXTRN	__fltused:DWORD
EXTRN	__tls_array:DWORD
EXTRN	__tls_index:DWORD
_BSS	SEGMENT
?pos@?1??MsgFunc_SetupBones@CHud@@QAAHPBDHPAX@Z@4PAVVector@@A DB 0600H DUP (?) ; `CHud::MsgFunc_SetupBones'::`2'::pos
?$TSS0@?1??MsgFunc_SetupBones@CHud@@QAAHPBDHPAX@Z@4HA DD 01H DUP (?) ; `CHud::MsgFunc_SetupBones'::`2'::$TSS0
?ang@?1??MsgFunc_SetupBones@CHud@@QAAHPBDHPAX@Z@4PAVRadian@@A DB 0600H DUP (?) ; `CHud::MsgFunc_SetupBones'::`2'::ang
?$TSS1@?1??MsgFunc_SetupBones@CHud@@QAAHPBDHPAX@Z@4HA DD 01H DUP (?) ; `CHud::MsgFunc_SetupBones'::`2'::$TSS1
_BSS	ENDS
;	COMDAT __real@bfc00000
CONST	SEGMENT
__real@bfc00000 DD 0bfc00000r			; -1.5
CONST	ENDS
;	COMDAT __real@bf400000
CONST	SEGMENT
__real@bf400000 DD 0bf400000r			; -0.75
CONST	ENDS
;	COMDAT __real@447a0000
CONST	SEGMENT
__real@447a0000 DD 0447a0000r			; 1000
CONST	ENDS
;	COMDAT __real@437f0000
CONST	SEGMENT
__real@437f0000 DD 0437f0000r			; 255
CONST	ENDS
;	COMDAT __real@43480000
CONST	SEGMENT
__real@43480000 DD 043480000r			; 200
CONST	ENDS
;	COMDAT __real@42c80000
CONST	SEGMENT
__real@42c80000 DD 042c80000r			; 100
CONST	ENDS
;	COMDAT __real@42b40000
CONST	SEGMENT
__real@42b40000 DD 042b40000r			; 90
CONST	ENDS
;	COMDAT __real@42200000
CONST	SEGMENT
__real@42200000 DD 042200000r			; 40
CONST	ENDS
;	COMDAT __real@41f00000
CONST	SEGMENT
__real@41f00000 DD 041f00000r			; 30
CONST	ENDS
;	COMDAT __real@41c80000
CONST	SEGMENT
__real@41c80000 DD 041c80000r			; 25
CONST	ENDS
;	COMDAT __real@41200000
CONST	SEGMENT
__real@41200000 DD 041200000r			; 10
CONST	ENDS
;	COMDAT __real@40e00000
CONST	SEGMENT
__real@40e00000 DD 040e00000r			; 7
CONST	ENDS
;	COMDAT __real@40400000
CONST	SEGMENT
__real@40400000 DD 040400000r			; 3
CONST	ENDS
;	COMDAT __real@4012000000000000
CONST	SEGMENT
__real@4012000000000000 DQ 04012000000000000r	; 4.5
CONST	ENDS
;	COMDAT __real@4008000000000000
CONST	SEGMENT
__real@4008000000000000 DQ 04008000000000000r	; 3
CONST	ENDS
;	COMDAT __real@4004000000000000
CONST	SEGMENT
__real@4004000000000000 DQ 04004000000000000r	; 2.5
CONST	ENDS
;	COMDAT __real@4002cccccccccccd
CONST	SEGMENT
__real@4002cccccccccccd DQ 04002cccccccccccdr	; 2.35
CONST	ENDS
;	COMDAT __real@4000000000000000
CONST	SEGMENT
__real@4000000000000000 DQ 04000000000000000r	; 2
CONST	ENDS
;	COMDAT __real@40000000
CONST	SEGMENT
__real@40000000 DD 040000000r			; 2
CONST	ENDS
;	COMDAT __real@3ffccccccccccccd
CONST	SEGMENT
__real@3ffccccccccccccd DQ 03ffccccccccccccdr	; 1.8
CONST	ENDS
;	COMDAT __real@3ffa666666666666
CONST	SEGMENT
__real@3ffa666666666666 DQ 03ffa666666666666r	; 1.65
CONST	ENDS
;	COMDAT __real@3ff8000000000000
CONST	SEGMENT
__real@3ff8000000000000 DQ 03ff8000000000000r	; 1.5
CONST	ENDS
;	COMDAT __real@3ff199999999999a
CONST	SEGMENT
__real@3ff199999999999a DQ 03ff199999999999ar	; 1.1
CONST	ENDS
;	COMDAT __real@3ff0000000000000
CONST	SEGMENT
__real@3ff0000000000000 DQ 03ff0000000000000r	; 1
CONST	ENDS
;	COMDAT __real@3fe999999999999a
CONST	SEGMENT
__real@3fe999999999999a DQ 03fe999999999999ar	; 0.8
CONST	ENDS
;	COMDAT __real@3fe6666666666666
CONST	SEGMENT
__real@3fe6666666666666 DQ 03fe6666666666666r	; 0.7
CONST	ENDS
;	COMDAT __real@3fe0000000000000
CONST	SEGMENT
__real@3fe0000000000000 DQ 03fe0000000000000r	; 0.5
CONST	ENDS
;	COMDAT __real@3fd0000000000000
CONST	SEGMENT
__real@3fd0000000000000 DQ 03fd0000000000000r	; 0.25
CONST	ENDS
;	COMDAT __real@3fb999999999999a
CONST	SEGMENT
__real@3fb999999999999a DQ 03fb999999999999ar	; 0.1
CONST	ENDS
;	COMDAT __real@3f847ae147ae147b
CONST	SEGMENT
__real@3f847ae147ae147b DQ 03f847ae147ae147br	; 0.01
CONST	ENDS
;	COMDAT __real@3f800000
CONST	SEGMENT
__real@3f800000 DD 03f800000r			; 1
CONST	ENDS
;	COMDAT __real@3f747ae147ae147b
CONST	SEGMENT
__real@3f747ae147ae147b DQ 03f747ae147ae147br	; 0.005
CONST	ENDS
;	COMDAT __real@3f4ccccd
CONST	SEGMENT
__real@3f4ccccd DD 03f4ccccdr			; 0.8
CONST	ENDS
;	COMDAT __real@3f400000
CONST	SEGMENT
__real@3f400000 DD 03f400000r			; 0.75
CONST	ENDS
;	COMDAT __real@3f333333
CONST	SEGMENT
__real@3f333333 DD 03f333333r			; 0.7
CONST	ENDS
;	COMDAT __real@3f000000
CONST	SEGMENT
__real@3f000000 DD 03f000000r			; 0.5
CONST	ENDS
;	COMDAT __real@3e000000
CONST	SEGMENT
__real@3e000000 DD 03e000000r			; 0.125
CONST	ENDS
;	COMDAT __real@3dcccccd
CONST	SEGMENT
__real@3dcccccd DD 03dcccccdr			; 0.1
CONST	ENDS
;	COMDAT __real@3d4ccccd
CONST	SEGMENT
__real@3d4ccccd DD 03d4ccccdr			; 0.05
CONST	ENDS
;	COMDAT __real@3c23d70a
CONST	SEGMENT
__real@3c23d70a DD 03c23d70ar			; 0.01
CONST	ENDS
;	COMDAT __real@3c000000
CONST	SEGMENT
__real@3c000000 DD 03c000000r			; 0.0078125
CONST	ENDS
;	COMDAT __real@3b800000
CONST	SEGMENT
__real@3b800000 DD 03b800000r			; 0.00390625
CONST	ENDS
;	COMDAT __real@3b000000
CONST	SEGMENT
__real@3b000000 DD 03b000000r			; 0.00195313
CONST	ENDS
;	COMDAT __real@39800000
CONST	SEGMENT
__real@39800000 DD 039800000r			; 0.000244141
CONST	ENDS
;	COMDAT __real@00000000
CONST	SEGMENT
__real@00000000 DD 000000000r			; 0
CONST	ENDS
;	COMDAT ??_C@_0CF@FANKPHKD@items?1water_splash?1water_splash3@
CONST	SEGMENT
??_C@_0CF@FANKPHKD@items?1water_splash?1water_splash3@ DB 'items/water_sp'
	DB	'lash/water_splash3.wav', 00H		; `string'
CONST	ENDS
;	COMDAT ??_C@_0CF@JLIGCEAG@items?1water_splash?1water_splash2@
CONST	SEGMENT
??_C@_0CF@JLIGCEAG@items?1water_splash?1water_splash2@ DB 'items/water_sp'
	DB	'lash/water_splash2.wav', 00H		; `string'
CONST	ENDS
;	COMDAT ??_C@_0CF@BNBCFGKI@items?1water_splash?1water_splash1@
CONST	SEGMENT
??_C@_0CF@BNBCFGKI@items?1water_splash?1water_splash1@ DB 'items/water_sp'
	DB	'lash/water_splash1.wav', 00H		; `string'
CONST	ENDS
;	COMDAT ??_C@_0L@PHFPLJKM@big_splash?$AA@
CONST	SEGMENT
??_C@_0L@PHFPLJKM@big_splash?$AA@ DB 'big_splash', 00H	; `string'
CONST	ENDS
;	COMDAT ??_C@_0N@NPPBAAPG@small_splash?$AA@
CONST	SEGMENT
??_C@_0N@NPPBAAPG@small_splash?$AA@ DB 'small_splash', 00H ; `string'
CONST	ENDS
;	COMDAT ??_C@_0BC@KOLGDOKE@very_small_splash?$AA@
CONST	SEGMENT
??_C@_0BC@KOLGDOKE@very_small_splash?$AA@ DB 'very_small_splash', 00H ; `string'
CONST	ENDS
;	COMDAT ??_C@_0BL@DBCNCNON@server?1snd_monsterkill?4wav?$AA@
CONST	SEGMENT
??_C@_0BL@DBCNCNON@server?1snd_monsterkill?4wav?$AA@ DB 'server/snd_monst'
	DB	'erkill.wav', 00H				; `string'
CONST	ENDS
;	COMDAT ??_C@_0BJ@EFNGDCGM@server?1snd_ultrakill?4wav?$AA@
CONST	SEGMENT
??_C@_0BJ@EFNGDCGM@server?1snd_ultrakill?4wav?$AA@ DB 'server/snd_ultraki'
	DB	'll.wav', 00H				; `string'
CONST	ENDS
;	COMDAT ??_C@_0BI@DEAFKIDC@server?1snd_megakill?4wav?$AA@
CONST	SEGMENT
??_C@_0BI@DEAFKIDC@server?1snd_megakill?4wav?$AA@ DB 'server/snd_megakill'
	DB	'.wav', 00H					; `string'
CONST	ENDS
;	COMDAT ??_C@_0BJ@NCNJKNLB@server?1snd_multikill?4wav?$AA@
CONST	SEGMENT
??_C@_0BJ@NCNJKNLB@server?1snd_multikill?4wav?$AA@ DB 'server/snd_multiki'
	DB	'll.wav', 00H				; `string'
CONST	ENDS
;	COMDAT ??_C@_0BK@JOCFCPDD@server?1snd_triplekill?4wav?$AA@
CONST	SEGMENT
??_C@_0BK@JOCFCPDD@server?1snd_triplekill?4wav?$AA@ DB 'server/snd_triple'
	DB	'kill.wav', 00H				; `string'
CONST	ENDS
;	COMDAT ??_C@_0BK@MFJBJAAJ@server?1snd_doublekill?4wav?$AA@
CONST	SEGMENT
??_C@_0BK@MFJBJAAJ@server?1snd_doublekill?4wav?$AA@ DB 'server/snd_double'
	DB	'kill.wav', 00H				; `string'
CONST	ENDS
;	COMDAT ??_C@_0BL@IPJENCPG@server?1snd_spree_ended?4wav?$AA@
CONST	SEGMENT
??_C@_0BL@IPJENCPG@server?1snd_spree_ended?4wav?$AA@ DB 'server/snd_spree'
	DB	'_ended.wav', 00H				; `string'
CONST	ENDS
;	COMDAT ??_C@_0BI@CCGJGALK@server?1snd_headshot?4wav?$AA@
CONST	SEGMENT
??_C@_0BI@CCGJGALK@server?1snd_headshot?4wav?$AA@ DB 'server/snd_headshot'
	DB	'.wav', 00H					; `string'
CONST	ENDS
;	COMDAT ??_C@_0BM@PHPKDMCG@server?1spree_wickedsick?4wav?$AA@
CONST	SEGMENT
??_C@_0BM@PHPKDMCG@server?1spree_wickedsick?4wav?$AA@ DB 'server/spree_wi'
	DB	'ckedsick.wav', 00H				; `string'
CONST	ENDS
;	COMDAT ??_C@_0BJ@KPLIBKLM@server?1spree_godlike?4wav?$AA@
CONST	SEGMENT
??_C@_0BJ@KPLIBKLM@server?1spree_godlike?4wav?$AA@ DB 'server/spree_godli'
	DB	'ke.wav', 00H				; `string'
CONST	ENDS
;	COMDAT ??_C@_0BJ@MLNBEADI@server?1spree_rampage?4wav?$AA@
CONST	SEGMENT
??_C@_0BJ@MLNBEADI@server?1spree_rampage?4wav?$AA@ DB 'server/spree_rampa'
	DB	'ge.wav', 00H				; `string'
CONST	ENDS
;	COMDAT ??_C@_0BM@PLIGJAPL@server?1spree_dominating?4wav?$AA@
CONST	SEGMENT
??_C@_0BM@PLIGJAPL@server?1spree_dominating?4wav?$AA@ DB 'server/spree_do'
	DB	'minating.wav', 00H				; `string'
CONST	ENDS
;	COMDAT ??_C@_0BO@KNFHGGOH@server?1spree_killingspree?4wav?$AA@
CONST	SEGMENT
??_C@_0BO@KNFHGGOH@server?1spree_killingspree?4wav?$AA@ DB 'server/spree_'
	DB	'killingspree.wav', 00H			; `string'
CONST	ENDS
;	COMDAT ??_C@_0BP@OKEFMAFH@sprites?1effects?1watertrail?4spr?$AA@
CONST	SEGMENT
??_C@_0BP@OKEFMAFH@sprites?1effects?1watertrail?4spr?$AA@ DB 'sprites/eff'
	DB	'ects/watertrail.spr', 00H			; `string'
CONST	ENDS
;	COMDAT ??_C@_0BA@EMANHHAK@env_spark?4part2?$AA@
CONST	SEGMENT
??_C@_0BA@EMANHHAK@env_spark?4part2?$AA@ DB 'env_spark.part2', 00H ; `string'
CONST	ENDS
;	COMDAT ??_C@_0BA@GHCACEMJ@env_spark?4part1?$AA@
CONST	SEGMENT
??_C@_0BA@GHCACEMJ@env_spark?4part1?$AA@ DB 'env_spark.part1', 00H ; `string'
CONST	ENDS
;	COMDAT ??_C@_0BK@NNEEBMBE@weapons?1smoke_grenade?4wav?$AA@
CONST	SEGMENT
??_C@_0BK@NNEEBMBE@weapons?1smoke_grenade?4wav?$AA@ DB 'weapons/smoke_gre'
	DB	'nade.wav', 00H				; `string'
CONST	ENDS
;	COMDAT ??_C@_0BF@DHMMJAO@player?1shield_on?4wav?$AA@
CONST	SEGMENT
??_C@_0BF@DHMMJAO@player?1shield_on?4wav?$AA@ DB 'player/shield_on.wav', 00H ; `string'
CONST	ENDS
;	COMDAT ??_C@_0BJ@KFJKELA@SetupBones?3?5ent?5?$DN?$DN?5NULL?6?$AA@
CONST	SEGMENT
??_C@_0BJ@KFJKELA@SetupBones?3?5ent?5?$DN?$DN?5NULL?6?$AA@ DB 'SetupBones'
	DB	': ent == NULL', 0aH, 00H			; `string'
CONST	ENDS
;	COMDAT ??_C@_0BK@IKHONLAJ@StudioDecal?3?5ent?5?$DN?$DN?5NULL?6?$AA@
CONST	SEGMENT
??_C@_0BK@IKHONLAJ@StudioDecal?3?5ent?5?$DN?$DN?5NULL?6?$AA@ DB 'StudioDe'
	DB	'cal: ent == NULL', 0aH, 00H			; `string'
CONST	ENDS
;	COMDAT ??_C@_04ILIFLICO@?4aur?$AA@
CONST	SEGMENT
??_C@_04ILIFLICO@?4aur?$AA@ DB '.aur', 00H		; `string'
CONST	ENDS
;	COMDAT ??_C@_0M@GLFMHAAH@dmg_concuss?$AA@
CONST	SEGMENT
??_C@_0M@GLFMHAAH@dmg_concuss?$AA@ DB 'dmg_concuss', 00H ; `string'
CONST	ENDS
;	COMDAT ??_C@_0M@JFLMCFNC@sensitivity?$AA@
CONST	SEGMENT
??_C@_0M@JFLMCFNC@sensitivity?$AA@ DB 'sensitivity', 00H ; `string'
CONST	ENDS
;	COMDAT ??_C@_08BMDDHCHB@hud_draw?$AA@
CONST	SEGMENT
??_C@_08BMDDHCHB@hud_draw?$AA@ DB 'hud_draw', 00H	; `string'
CONST	ENDS
;	COMDAT ??_C@_01HIHLOKLC@1?$AA@
CONST	SEGMENT
??_C@_01HIHLOKLC@1?$AA@ DB '1', 00H			; `string'
CONST	ENDS
;	COMDAT ??_C@_0M@LPOJOBFH@default_fov?$AA@
CONST	SEGMENT
??_C@_0M@LPOJOBFH@default_fov?$AA@ DB 'default_fov', 00H ; `string'
CONST	ENDS
;	COMDAT ??_C@_02PEECMOAB@90?$AA@
CONST	SEGMENT
??_C@_02PEECMOAB@90?$AA@ DB '90', 00H			; `string'
CONST	ENDS
;	COMDAT ??_C@_0BH@EHIOFMDB@zoom_sensitivity_ratio?$AA@
CONST	SEGMENT
??_C@_0BH@EHIOFMDB@zoom_sensitivity_ratio?$AA@ DB 'zoom_sensitivity_ratio'
	DB	00H						; `string'
CONST	ENDS
;	COMDAT ??_C@_03EJIPIALM@1?42?$AA@
CONST	SEGMENT
??_C@_03EJIPIALM@1?42?$AA@ DB '1.2', 00H		; `string'
CONST	ENDS
;	COMDAT ??_C@_0M@GHGEHHGI@WaterSplash?$AA@
CONST	SEGMENT
??_C@_0M@GHGEHHGI@WaterSplash?$AA@ DB 'WaterSplash', 00H ; `string'
CONST	ENDS
;	COMDAT ??_C@_07HKFHLAHE@TempEnt?$AA@
CONST	SEGMENT
??_C@_07HKFHLAHE@TempEnt?$AA@ DB 'TempEnt', 00H		; `string'
CONST	ENDS
;	COMDAT ??_C@_0L@CPHIAPDB@SetupBones?$AA@
CONST	SEGMENT
??_C@_0L@CPHIAPDB@SetupBones?$AA@ DB 'SetupBones', 00H	; `string'
CONST	ENDS
;	COMDAT ??_C@_0M@EOFEOEOD@StudioDecal?$AA@
CONST	SEGMENT
??_C@_0M@EOFEOEOD@StudioDecal?$AA@ DB 'StudioDecal', 00H ; `string'
CONST	ENDS
;	COMDAT ??_C@_0L@IBFKHCEP@KillDecals?$AA@
CONST	SEGMENT
??_C@_0L@IBFKHCEP@KillDecals?$AA@ DB 'KillDecals', 00H	; `string'
CONST	ENDS
;	COMDAT ??_C@_0L@HDEEALFN@WeaponAnim?$AA@
CONST	SEGMENT
??_C@_0L@HDEEALFN@WeaponAnim?$AA@ DB 'WeaponAnim', 00H	; `string'
CONST	ENDS
;	COMDAT ??_C@_09HMOJLOCD@MusicFade?$AA@
CONST	SEGMENT
??_C@_09HMOJLOCD@MusicFade?$AA@ DB 'MusicFade', 00H	; `string'
CONST	ENDS
;	COMDAT ??_C@_07CHKFILLJ@SetSkin?$AA@
CONST	SEGMENT
??_C@_07CHKFILLJ@SetSkin?$AA@ DB 'SetSkin', 00H		; `string'
CONST	ENDS
;	COMDAT ??_C@_07PIBMLFBJ@SetBody?$AA@
CONST	SEGMENT
??_C@_07PIBMLFBJ@SetBody?$AA@ DB 'SetBody', 00H		; `string'
CONST	ENDS
;	COMDAT ??_C@_08HEDELBBN@RainData?$AA@
CONST	SEGMENT
??_C@_08HEDELBBN@RainData?$AA@ DB 'RainData', 00H	; `string'
CONST	ENDS
;	COMDAT ??_C@_08BOBKHLMK@KillPart?$AA@
CONST	SEGMENT
??_C@_08BOBKHLMK@KillPart?$AA@ DB 'KillPart', 00H	; `string'
CONST	ENDS
;	COMDAT ??_C@_08HIFHGEKA@Particle?$AA@
CONST	SEGMENT
??_C@_08HIFHGEKA@Particle?$AA@ DB 'Particle', 00H	; `string'
CONST	ENDS
;	COMDAT ??_C@_08GMOCKBAK@HUDColor?$AA@
CONST	SEGMENT
??_C@_08GMOCKBAK@HUDColor?$AA@ DB 'HUDColor', 00H	; `string'
CONST	ENDS
;	COMDAT ??_C@_07DNEKOHB@Weapons?$AA@
CONST	SEGMENT
??_C@_07DNEKOHB@Weapons?$AA@ DB 'Weapons', 00H		; `string'
CONST	ENDS
;	COMDAT ??_C@_07KCBJBGLB@Concuss?$AA@
CONST	SEGMENT
??_C@_07KCBJBGLB@Concuss?$AA@ DB 'Concuss', 00H		; `string'
CONST	ENDS
;	COMDAT ??_C@_06NJNDMID@SetFOV?$AA@
CONST	SEGMENT
??_C@_06NJNDMID@SetFOV?$AA@ DB 'SetFOV', 00H		; `string'
CONST	ENDS
;	COMDAT ??_C@_08IMMBLBLF@ViewMode?$AA@
CONST	SEGMENT
??_C@_08IMMBLBLF@ViewMode?$AA@ DB 'ViewMode', 00H	; `string'
CONST	ENDS
;	COMDAT ??_C@_07PEONMAPN@InitHUD?$AA@
CONST	SEGMENT
??_C@_07PEONMAPN@InitHUD?$AA@ DB 'InitHUD', 00H		; `string'
CONST	ENDS
;	COMDAT ??_C@_08JJGOBBMF@GameMode?$AA@
CONST	SEGMENT
??_C@_08JJGOBBMF@GameMode?$AA@ DB 'GameMode', 00H	; `string'
CONST	ENDS
;	COMDAT ??_C@_08PEHACIKG@ResetHUD?$AA@
CONST	SEGMENT
??_C@_08PEHACIKG@ResetHUD?$AA@ DB 'ResetHUD', 00H	; `string'
CONST	ENDS
;	COMDAT ??_C@_04GIGGPADC@Logo?$AA@
CONST	SEGMENT
??_C@_04GIGGPADC@Logo?$AA@ DB 'Logo', 00H		; `string'
CONST	ENDS
;	COMDAT xdata$x
xdata$x	SEGMENT
__unwindtable$?MsgFunc_SetupBones@CHud@@QAAHPBDHPAX@Z DD 0ffffffffH
	DD	FLAT:__unwindfunclet$?MsgFunc_SetupBones@CHud@@QAAHPBDHPAX@Z$0
	DD	0ffffffffH
	DD	FLAT:__unwindfunclet$?MsgFunc_SetupBones@CHud@@QAAHPBDHPAX@Z$1
__ehfuncinfo$?MsgFunc_SetupBones@CHud@@QAAHPBDHPAX@Z DD 019930522H
	DD	02H
	DD	FLAT:__unwindtable$?MsgFunc_SetupBones@CHud@@QAAHPBDHPAX@Z
	DD	2 DUP(00H)
	DD	2 DUP(00H)
	DD	00H
	DD	01H
xdata$x	ENDS
; Function compile flags: /Odtp /ZI
; File c:\program files (x86)\windows kits\10\include\10.0.10240.0\ucrt\string.h
;	COMDAT ??$strcpy_s@$0EA@@@YAHAAY0EA@DPBD@Z
_TEXT	SEGMENT
__Destination$ = 8					; size = 4
__Source$ = 12						; size = 4
??$strcpy_s@$0EA@@@YAHAAY0EA@DPBD@Z PROC		; strcpy_s<64>, COMDAT

; 128  :     )

	push	ebp
	mov	ebp, esp
	sub	esp, 64					; 00000040H
	push	ebx
	push	esi
	push	edi

; 124  : __DEFINE_CPP_OVERLOAD_SECURE_FUNC_0_1(

	mov	eax, DWORD PTR __Source$[ebp]
	push	eax
	push	64					; 00000040H
	mov	ecx, DWORD PTR __Destination$[ebp]
	push	ecx
	call	_strcpy_s
	add	esp, 12					; 0000000cH
	pop	edi
	pop	esi
	pop	ebx
	mov	esp, ebp
	pop	ebp
	ret	0
??$strcpy_s@$0EA@@@YAHAAY0EA@DPBD@Z ENDP		; strcpy_s<64>
_TEXT	ENDS
; Function compile flags: /Odtp /ZI
; File d:\!diffusion 2020\source code 2022\client-server\client\hud_msg.cpp
;	COMDAT ?DCL@@YAXH@Z
_TEXT	SEGMENT
_index$ = 8						; size = 4
?DCL@@YAXH@Z PROC					; DCL, COMDAT

; 692  : {

	push	ebp
	mov	ebp, esp
	sub	esp, 64					; 00000040H
	push	ebx
	push	esi
	push	edi

; 693  : 
; 694  : }

	pop	edi
	pop	esi
	pop	ebx
	mov	esp, ebp
	pop	ebp
	ret	0
?DCL@@YAXH@Z ENDP					; DCL
_TEXT	ENDS
; Function compile flags: /Odtp /ZI
; File d:\!diffusion 2020\source code 2022\client-server\client\hud_msg.cpp
;	COMDAT ?CheckForLocalWeaponShootAnimation@@YA_NH@Z
_TEXT	SEGMENT
tv67 = -68						; size = 4
_seq$ = 8						; size = 4
?CheckForLocalWeaponShootAnimation@@YA_NH@Z PROC	; CheckForLocalWeaponShootAnimation, COMDAT

; 295  : {

	push	ebp
	mov	ebp, esp
	sub	esp, 68					; 00000044H
	push	ebx
	push	esi
	push	edi

; 296  : 	if( !LocalWeaponAnims() )

	call	?LocalWeaponAnims@@YA_NXZ		; LocalWeaponAnims
	movzx	eax, al
	test	eax, eax
	jne	SHORT $LN4@CheckForLo

; 297  : 		return false;

	xor	al, al
	jmp	$LN1@CheckForLo
$LN4@CheckForLo:

; 298  : 
; 299  : 	// check if it's an attack animation!
; 300  : 	switch( localanim_WeaponID )

	mov	eax, DWORD PTR ?localanim_WeaponID@@3HA	; localanim_WeaponID
	mov	DWORD PTR tv67[ebp], eax
	mov	ecx, DWORD PTR tv67[ebp]
	sub	ecx, 1
	mov	DWORD PTR tv67[ebp], ecx
	cmp	DWORD PTR tv67[ebp], 22			; 00000016H
	ja	$LN2@CheckForLo
	mov	edx, DWORD PTR tv67[ebp]
	movzx	eax, BYTE PTR $LN95@CheckForLo[edx]
	jmp	DWORD PTR $LN96@CheckForLo[eax*4]
$LN5@CheckForLo:

; 301  : 	{
; 302  : 	case WEAPON_HKMP5:
; 303  : 		if( seq == 1 ) // caught reload anim!

	cmp	DWORD PTR _seq$[ebp], 1
	jne	SHORT $LN6@CheckForLo

; 304  : 			localanim_NextPAttackTime = tr.time + 2.5;

	movsd	xmm0, QWORD PTR ?tr@@3Uref_globals_t@@A+8
	addsd	xmm0, QWORD PTR __real@4004000000000000
	cvtsd2ss xmm0, xmm0
	movss	DWORD PTR ?localanim_NextPAttackTime@@3MA, xmm0
	jmp	SHORT $LN10@CheckForLo
$LN6@CheckForLo:

; 305  : 		else if( seq == 2 ) // caught reload_noshot anim!

	cmp	DWORD PTR _seq$[ebp], 2
	jne	SHORT $LN8@CheckForLo

; 306  : 			localanim_NextPAttackTime = tr.time + 2.0;

	movsd	xmm0, QWORD PTR ?tr@@3Uref_globals_t@@A+8
	addsd	xmm0, QWORD PTR __real@4000000000000000
	cvtsd2ss xmm0, xmm0
	movss	DWORD PTR ?localanim_NextPAttackTime@@3MA, xmm0
	jmp	SHORT $LN10@CheckForLo
$LN8@CheckForLo:

; 307  : 		else if( seq == 3 ) // caught deploy anim!

	cmp	DWORD PTR _seq$[ebp], 3
	jne	SHORT $LN10@CheckForLo

; 308  : 			localanim_NextPAttackTime = tr.time + 1.0;

	movsd	xmm0, QWORD PTR ?tr@@3Uref_globals_t@@A+8
	addsd	xmm0, QWORD PTR __real@3ff0000000000000
	cvtsd2ss xmm0, xmm0
	movss	DWORD PTR ?localanim_NextPAttackTime@@3MA, xmm0
$LN10@CheckForLo:

; 309  : 
; 310  : 		if( seq < 4 ) // only interested in FIRE animations

	cmp	DWORD PTR _seq$[ebp], 4
	jge	SHORT $LN11@CheckForLo

; 311  : 			return false;

	xor	al, al
	jmp	$LN1@CheckForLo

; 312  : 		else

	jmp	SHORT $LN12@CheckForLo
$LN11@CheckForLo:

; 313  : 			return true;

	mov	al, 1
	jmp	$LN1@CheckForLo
$LN12@CheckForLo:

; 314  : 	break;

	jmp	$LN2@CheckForLo
$LN13@CheckForLo:

; 315  : 	case WEAPON_MRC:
; 316  : 		if( seq == 3 ) // caught reload anim!

	cmp	DWORD PTR _seq$[ebp], 3
	jne	SHORT $LN14@CheckForLo

; 317  : 			localanim_NextPAttackTime = tr.time + 2.0;

	movsd	xmm0, QWORD PTR ?tr@@3Uref_globals_t@@A+8
	addsd	xmm0, QWORD PTR __real@4000000000000000
	cvtsd2ss xmm0, xmm0
	movss	DWORD PTR ?localanim_NextPAttackTime@@3MA, xmm0
	jmp	SHORT $LN16@CheckForLo
$LN14@CheckForLo:

; 318  : 		else if( seq == 4 ) // caught deploy anim!

	cmp	DWORD PTR _seq$[ebp], 4
	jne	SHORT $LN16@CheckForLo

; 319  : 			localanim_NextPAttackTime = localanim_NextSAttackTime = tr.time + 1.0;

	movsd	xmm0, QWORD PTR ?tr@@3Uref_globals_t@@A+8
	addsd	xmm0, QWORD PTR __real@3ff0000000000000
	cvtsd2ss xmm0, xmm0
	movss	DWORD PTR ?localanim_NextSAttackTime@@3MA, xmm0
	movss	xmm0, DWORD PTR ?localanim_NextSAttackTime@@3MA
	movss	DWORD PTR ?localanim_NextPAttackTime@@3MA, xmm0
$LN16@CheckForLo:

; 320  : 
; 321  : 		if( seq < 5 && seq != 2 ) // only interested in FIRE animations

	cmp	DWORD PTR _seq$[ebp], 5
	jge	SHORT $LN17@CheckForLo
	cmp	DWORD PTR _seq$[ebp], 2
	je	SHORT $LN17@CheckForLo

; 322  : 			return false;

	xor	al, al
	jmp	$LN1@CheckForLo

; 323  : 		else

	jmp	SHORT $LN18@CheckForLo
$LN17@CheckForLo:

; 324  : 			return true;

	mov	al, 1
	jmp	$LN1@CheckForLo
$LN18@CheckForLo:

; 325  : 	break;

	jmp	$LN2@CheckForLo
$LN19@CheckForLo:

; 326  : 	case WEAPON_GLOCK:
; 327  : 		if( seq == 5 || seq == 6 ) // caught reload anim!

	cmp	DWORD PTR _seq$[ebp], 5
	je	SHORT $LN22@CheckForLo
	cmp	DWORD PTR _seq$[ebp], 6
	jne	SHORT $LN20@CheckForLo
$LN22@CheckForLo:

; 328  : 			localanim_NextPAttackTime = localanim_NextSAttackTime = tr.time + 1.5;

	movsd	xmm0, QWORD PTR ?tr@@3Uref_globals_t@@A+8
	addsd	xmm0, QWORD PTR __real@3ff8000000000000
	cvtsd2ss xmm0, xmm0
	movss	DWORD PTR ?localanim_NextSAttackTime@@3MA, xmm0
	movss	xmm0, DWORD PTR ?localanim_NextSAttackTime@@3MA
	movss	DWORD PTR ?localanim_NextPAttackTime@@3MA, xmm0
	jmp	SHORT $LN23@CheckForLo
$LN20@CheckForLo:

; 329  : 		else if( seq == 7 ) // caught deploy anim!

	cmp	DWORD PTR _seq$[ebp], 7
	jne	SHORT $LN23@CheckForLo

; 330  : 			localanim_NextPAttackTime = localanim_NextSAttackTime = tr.time + 1.0;

	movsd	xmm0, QWORD PTR ?tr@@3Uref_globals_t@@A+8
	addsd	xmm0, QWORD PTR __real@3ff0000000000000
	cvtsd2ss xmm0, xmm0
	movss	DWORD PTR ?localanim_NextSAttackTime@@3MA, xmm0
	movss	xmm0, DWORD PTR ?localanim_NextSAttackTime@@3MA
	movss	DWORD PTR ?localanim_NextPAttackTime@@3MA, xmm0
$LN23@CheckForLo:

; 331  : 
; 332  : 		if( seq != 3 ) // only interested in FIRE animations

	cmp	DWORD PTR _seq$[ebp], 3
	je	SHORT $LN24@CheckForLo

; 333  : 			return false;

	xor	al, al
	jmp	$LN1@CheckForLo

; 334  : 		else

	jmp	SHORT $LN25@CheckForLo
$LN24@CheckForLo:

; 335  : 			return true;

	mov	al, 1
	jmp	$LN1@CheckForLo
$LN25@CheckForLo:

; 336  : 	break;

	jmp	$LN2@CheckForLo
$LN26@CheckForLo:

; 337  : 	case WEAPON_AR2:
; 338  : 		if( seq == 2 ) // caught deploy anim!

	cmp	DWORD PTR _seq$[ebp], 2
	jne	SHORT $LN27@CheckForLo

; 339  : 			localanim_NextPAttackTime = localanim_NextSAttackTime = tr.time + 0.5;

	movsd	xmm0, QWORD PTR ?tr@@3Uref_globals_t@@A+8
	addsd	xmm0, QWORD PTR __real@3fe0000000000000
	cvtsd2ss xmm0, xmm0
	movss	DWORD PTR ?localanim_NextSAttackTime@@3MA, xmm0
	movss	xmm0, DWORD PTR ?localanim_NextSAttackTime@@3MA
	movss	DWORD PTR ?localanim_NextPAttackTime@@3MA, xmm0
$LN27@CheckForLo:

; 340  : 
; 341  : 		if( seq != 1 && seq != 3 ) // only interested in FIRE animations

	cmp	DWORD PTR _seq$[ebp], 1
	je	SHORT $LN28@CheckForLo
	cmp	DWORD PTR _seq$[ebp], 3
	je	SHORT $LN28@CheckForLo

; 342  : 			return false;

	xor	al, al
	jmp	$LN1@CheckForLo

; 343  : 		else

	jmp	SHORT $LN29@CheckForLo
$LN28@CheckForLo:

; 344  : 			return true;

	mov	al, 1
	jmp	$LN1@CheckForLo
$LN29@CheckForLo:

; 345  : 	break;

	jmp	$LN2@CheckForLo
$LN30@CheckForLo:

; 346  : 	case WEAPON_CROSSBOW:
; 347  : 		if( seq == 7 ) // caught reload anim!

	cmp	DWORD PTR _seq$[ebp], 7
	jne	SHORT $LN31@CheckForLo

; 348  : 			localanim_NextPAttackTime = tr.time + 4.5;

	movsd	xmm0, QWORD PTR ?tr@@3Uref_globals_t@@A+8
	addsd	xmm0, QWORD PTR __real@4012000000000000
	cvtsd2ss xmm0, xmm0
	movss	DWORD PTR ?localanim_NextPAttackTime@@3MA, xmm0
	jmp	SHORT $LN33@CheckForLo
$LN31@CheckForLo:

; 349  : 		else if( seq == 8 || seq == 9 ) // caught deploy anim!

	cmp	DWORD PTR _seq$[ebp], 8
	je	SHORT $LN34@CheckForLo
	cmp	DWORD PTR _seq$[ebp], 9
	jne	SHORT $LN33@CheckForLo
$LN34@CheckForLo:

; 350  : 			localanim_NextPAttackTime = tr.time + 0.5;

	movsd	xmm0, QWORD PTR ?tr@@3Uref_globals_t@@A+8
	addsd	xmm0, QWORD PTR __real@3fe0000000000000
	cvtsd2ss xmm0, xmm0
	movss	DWORD PTR ?localanim_NextPAttackTime@@3MA, xmm0
$LN33@CheckForLo:

; 351  : 
; 352  : 		if( seq != 4 && seq != 6 ) // only interested in FIRE animations

	cmp	DWORD PTR _seq$[ebp], 4
	je	SHORT $LN35@CheckForLo
	cmp	DWORD PTR _seq$[ebp], 6
	je	SHORT $LN35@CheckForLo

; 353  : 			return false;

	xor	al, al
	jmp	$LN1@CheckForLo

; 354  : 		else

	jmp	SHORT $LN36@CheckForLo
$LN35@CheckForLo:

; 355  : 			return true;

	mov	al, 1
	jmp	$LN1@CheckForLo
$LN36@CheckForLo:

; 356  : 	break;

	jmp	$LN2@CheckForLo
$LN37@CheckForLo:

; 357  : 	case WEAPON_DEAGLE:
; 358  : 		if( seq == 3 ) // caught reload anim!

	cmp	DWORD PTR _seq$[ebp], 3
	jne	SHORT $LN38@CheckForLo

; 359  : 			localanim_NextPAttackTime = tr.time + 2.0;

	movsd	xmm0, QWORD PTR ?tr@@3Uref_globals_t@@A+8
	addsd	xmm0, QWORD PTR __real@4000000000000000
	cvtsd2ss xmm0, xmm0
	movss	DWORD PTR ?localanim_NextPAttackTime@@3MA, xmm0
	jmp	SHORT $LN42@CheckForLo
$LN38@CheckForLo:

; 360  : 		else if( seq == 4 ) // caught reload_noshot anim!

	cmp	DWORD PTR _seq$[ebp], 4
	jne	SHORT $LN40@CheckForLo

; 361  : 			localanim_NextPAttackTime = tr.time + 1.8;

	movsd	xmm0, QWORD PTR ?tr@@3Uref_globals_t@@A+8
	addsd	xmm0, QWORD PTR __real@3ffccccccccccccd
	cvtsd2ss xmm0, xmm0
	movss	DWORD PTR ?localanim_NextPAttackTime@@3MA, xmm0
	jmp	SHORT $LN42@CheckForLo
$LN40@CheckForLo:

; 362  : 		else if( seq == 5 ) // caught deploy anim!

	cmp	DWORD PTR _seq$[ebp], 5
	jne	SHORT $LN42@CheckForLo

; 363  : 			localanim_NextPAttackTime = tr.time + 1.0;

	movsd	xmm0, QWORD PTR ?tr@@3Uref_globals_t@@A+8
	addsd	xmm0, QWORD PTR __real@3ff0000000000000
	cvtsd2ss xmm0, xmm0
	movss	DWORD PTR ?localanim_NextPAttackTime@@3MA, xmm0
$LN42@CheckForLo:

; 364  : 
; 365  : 		if( seq != 2 ) // only interested in FIRE animations

	cmp	DWORD PTR _seq$[ebp], 2
	je	SHORT $LN43@CheckForLo

; 366  : 			return false;

	xor	al, al
	jmp	$LN1@CheckForLo

; 367  : 		else

	jmp	SHORT $LN44@CheckForLo
$LN43@CheckForLo:

; 368  : 			return true;

	mov	al, 1
	jmp	$LN1@CheckForLo
$LN44@CheckForLo:

; 369  : 	break;

	jmp	$LN2@CheckForLo
$LN45@CheckForLo:

; 370  : 	case WEAPON_FIVESEVEN:
; 371  : 		if( seq == 4 ) // caught reload anim!

	cmp	DWORD PTR _seq$[ebp], 4
	jne	SHORT $LN46@CheckForLo

; 372  : 			localanim_NextPAttackTime = tr.time + 3.0;

	movsd	xmm0, QWORD PTR ?tr@@3Uref_globals_t@@A+8
	addsd	xmm0, QWORD PTR __real@4008000000000000
	cvtsd2ss xmm0, xmm0
	movss	DWORD PTR ?localanim_NextPAttackTime@@3MA, xmm0
	jmp	SHORT $LN48@CheckForLo
$LN46@CheckForLo:

; 373  : 		else if( seq == 5 ) // caught deploy anim!

	cmp	DWORD PTR _seq$[ebp], 5
	jne	SHORT $LN48@CheckForLo

; 374  : 			localanim_NextPAttackTime = tr.time + 1.0;

	movsd	xmm0, QWORD PTR ?tr@@3Uref_globals_t@@A+8
	addsd	xmm0, QWORD PTR __real@3ff0000000000000
	cvtsd2ss xmm0, xmm0
	movss	DWORD PTR ?localanim_NextPAttackTime@@3MA, xmm0
$LN48@CheckForLo:

; 375  : 
; 376  : 		if( seq != 1 && seq != 3 ) // only interested in FIRE animations

	cmp	DWORD PTR _seq$[ebp], 1
	je	SHORT $LN49@CheckForLo
	cmp	DWORD PTR _seq$[ebp], 3
	je	SHORT $LN49@CheckForLo

; 377  : 			return false;

	xor	al, al
	jmp	$LN1@CheckForLo

; 378  : 		else

	jmp	SHORT $LN50@CheckForLo
$LN49@CheckForLo:

; 379  : 			return true;

	mov	al, 1
	jmp	$LN1@CheckForLo
$LN50@CheckForLo:

; 380  : 	break;

	jmp	$LN2@CheckForLo
$LN51@CheckForLo:

; 381  : 	case WEAPON_G36C:
; 382  : 		if( seq == 1 ) // caught reload anim!

	cmp	DWORD PTR _seq$[ebp], 1
	jne	SHORT $LN52@CheckForLo

; 383  : 			localanim_NextPAttackTime = tr.time + 1.65;

	movsd	xmm0, QWORD PTR ?tr@@3Uref_globals_t@@A+8
	addsd	xmm0, QWORD PTR __real@3ffa666666666666
	cvtsd2ss xmm0, xmm0
	movss	DWORD PTR ?localanim_NextPAttackTime@@3MA, xmm0
	jmp	SHORT $LN54@CheckForLo
$LN52@CheckForLo:

; 384  : 		else if( seq == 2 ) // caught deploy anim!

	cmp	DWORD PTR _seq$[ebp], 2
	jne	SHORT $LN54@CheckForLo

; 385  : 			localanim_NextPAttackTime = tr.time + 0.25;

	movsd	xmm0, QWORD PTR ?tr@@3Uref_globals_t@@A+8
	addsd	xmm0, QWORD PTR __real@3fd0000000000000
	cvtsd2ss xmm0, xmm0
	movss	DWORD PTR ?localanim_NextPAttackTime@@3MA, xmm0
$LN54@CheckForLo:

; 386  : 
; 387  : 		if( seq != 3 ) // only interested in FIRE animations

	cmp	DWORD PTR _seq$[ebp], 3
	je	SHORT $LN55@CheckForLo

; 388  : 			return false;

	xor	al, al
	jmp	$LN1@CheckForLo

; 389  : 		else

	jmp	SHORT $LN56@CheckForLo
$LN55@CheckForLo:

; 390  : 			return true;

	mov	al, 1
	jmp	$LN1@CheckForLo
$LN56@CheckForLo:

; 391  : 	break;

	jmp	$LN2@CheckForLo
$LN57@CheckForLo:

; 392  : 	case WEAPON_KNIFE:
; 393  : 		if( seq == 1 ) // caught deploy anim!

	cmp	DWORD PTR _seq$[ebp], 1
	jne	SHORT $LN58@CheckForLo

; 394  : 			localanim_NextPAttackTime = localanim_NextSAttackTime = tr.time + 1.1;

	movsd	xmm0, QWORD PTR ?tr@@3Uref_globals_t@@A+8
	addsd	xmm0, QWORD PTR __real@3ff199999999999a
	cvtsd2ss xmm0, xmm0
	movss	DWORD PTR ?localanim_NextSAttackTime@@3MA, xmm0
	movss	xmm0, DWORD PTR ?localanim_NextSAttackTime@@3MA
	movss	DWORD PTR ?localanim_NextPAttackTime@@3MA, xmm0
$LN58@CheckForLo:

; 395  : 
; 396  : 		if( seq != 3 && seq != 6 ) // only interested in FIRE animations

	cmp	DWORD PTR _seq$[ebp], 3
	je	SHORT $LN59@CheckForLo
	cmp	DWORD PTR _seq$[ebp], 6
	je	SHORT $LN59@CheckForLo

; 397  : 			return false;

	xor	al, al
	jmp	$LN1@CheckForLo

; 398  : 		else

	jmp	SHORT $LN60@CheckForLo
$LN59@CheckForLo:

; 399  : 			return true;

	mov	al, 1
	jmp	$LN1@CheckForLo
$LN60@CheckForLo:

; 400  : 	break;

	jmp	$LN2@CheckForLo
$LN61@CheckForLo:

; 401  : 	case WEAPON_RPG:
; 402  : 		if( seq == 2 ) // caught reload anim!

	cmp	DWORD PTR _seq$[ebp], 2
	jne	SHORT $LN62@CheckForLo

; 403  : 		{
; 404  : 			localanim_NextPAttackTime = tr.time + 2.0;

	movsd	xmm0, QWORD PTR ?tr@@3Uref_globals_t@@A+8
	addsd	xmm0, QWORD PTR __real@4000000000000000
	cvtsd2ss xmm0, xmm0
	movss	DWORD PTR ?localanim_NextPAttackTime@@3MA, xmm0

; 405  : 			localanim_AllowRpgShoot = true;

	mov	BYTE PTR ?localanim_AllowRpgShoot@@3_NA, 1 ; localanim_AllowRpgShoot
	jmp	SHORT $LN64@CheckForLo
$LN62@CheckForLo:

; 406  : 		}
; 407  : 		else if( seq == 7 || seq == 5 ) // caught deploy anim!

	cmp	DWORD PTR _seq$[ebp], 7
	je	SHORT $LN65@CheckForLo
	cmp	DWORD PTR _seq$[ebp], 5
	jne	SHORT $LN64@CheckForLo
$LN65@CheckForLo:

; 408  : 		{
; 409  : 			localanim_NextPAttackTime = tr.time + 0.5;

	movsd	xmm0, QWORD PTR ?tr@@3Uref_globals_t@@A+8
	addsd	xmm0, QWORD PTR __real@3fe0000000000000
	cvtsd2ss xmm0, xmm0
	movss	DWORD PTR ?localanim_NextPAttackTime@@3MA, xmm0

; 410  : 			localanim_AllowRpgShoot = true;

	mov	BYTE PTR ?localanim_AllowRpgShoot@@3_NA, 1 ; localanim_AllowRpgShoot
$LN64@CheckForLo:

; 411  : 		}
; 412  : 
; 413  : 		if( seq != 3 ) // only interested in FIRE animations

	cmp	DWORD PTR _seq$[ebp], 3
	je	SHORT $LN66@CheckForLo

; 414  : 			return false;

	xor	al, al
	jmp	$LN1@CheckForLo

; 415  : 		else

	jmp	SHORT $LN67@CheckForLo
$LN66@CheckForLo:

; 416  : 			return true;

	mov	al, 1
	jmp	$LN1@CheckForLo
$LN67@CheckForLo:

; 417  : 	break;

	jmp	$LN2@CheckForLo
$LN68@CheckForLo:

; 418  : 	case WEAPON_SHOTGUN:
; 419  : 		if( seq == 5 || seq == 3) // caught reload anim!

	cmp	DWORD PTR _seq$[ebp], 5
	je	SHORT $LN71@CheckForLo
	cmp	DWORD PTR _seq$[ebp], 3
	jne	SHORT $LN69@CheckForLo
$LN71@CheckForLo:

; 420  : 			localanim_NextPAttackTime = localanim_NextSAttackTime = tr.time + 1.5; // !!! slightly pushed forward...

	movsd	xmm0, QWORD PTR ?tr@@3Uref_globals_t@@A+8
	addsd	xmm0, QWORD PTR __real@3ff8000000000000
	cvtsd2ss xmm0, xmm0
	movss	DWORD PTR ?localanim_NextSAttackTime@@3MA, xmm0
	movss	xmm0, DWORD PTR ?localanim_NextSAttackTime@@3MA
	movss	DWORD PTR ?localanim_NextPAttackTime@@3MA, xmm0
	jmp	SHORT $LN74@CheckForLo
$LN69@CheckForLo:

; 421  : 		else if( seq == 6 ) // caught deploy anim!

	cmp	DWORD PTR _seq$[ebp], 6
	jne	SHORT $LN72@CheckForLo

; 422  : 			localanim_NextPAttackTime = localanim_NextSAttackTime = tr.time + 0.5;

	movsd	xmm0, QWORD PTR ?tr@@3Uref_globals_t@@A+8
	addsd	xmm0, QWORD PTR __real@3fe0000000000000
	cvtsd2ss xmm0, xmm0
	movss	DWORD PTR ?localanim_NextSAttackTime@@3MA, xmm0
	movss	xmm0, DWORD PTR ?localanim_NextSAttackTime@@3MA
	movss	DWORD PTR ?localanim_NextPAttackTime@@3MA, xmm0
	jmp	SHORT $LN74@CheckForLo
$LN72@CheckForLo:

; 423  : 		else if( seq == 4 ) // caught finish reload anim!

	cmp	DWORD PTR _seq$[ebp], 4
	jne	SHORT $LN74@CheckForLo

; 424  : 			localanim_NextPAttackTime = localanim_NextSAttackTime = tr.time + 0.7;

	movsd	xmm0, QWORD PTR ?tr@@3Uref_globals_t@@A+8
	addsd	xmm0, QWORD PTR __real@3fe6666666666666
	cvtsd2ss xmm0, xmm0
	movss	DWORD PTR ?localanim_NextSAttackTime@@3MA, xmm0
	movss	xmm0, DWORD PTR ?localanim_NextSAttackTime@@3MA
	movss	DWORD PTR ?localanim_NextPAttackTime@@3MA, xmm0
$LN74@CheckForLo:

; 425  : 
; 426  : 		if( seq != 1 && seq != 2 ) // only interested in FIRE animations

	cmp	DWORD PTR _seq$[ebp], 1
	je	SHORT $LN75@CheckForLo
	cmp	DWORD PTR _seq$[ebp], 2
	je	SHORT $LN75@CheckForLo

; 427  : 			return false;

	xor	al, al
	jmp	$LN1@CheckForLo

; 428  : 		else

	jmp	SHORT $LN76@CheckForLo
$LN75@CheckForLo:

; 429  : 			return true;

	mov	al, 1
	jmp	$LN1@CheckForLo
$LN76@CheckForLo:

; 430  : 	break;

	jmp	$LN2@CheckForLo
$LN77@CheckForLo:

; 431  : 	case WEAPON_SHOTGUN_XM:
; 432  : 		if( seq == 5 || seq == 3 ) // caught reload anim!

	cmp	DWORD PTR _seq$[ebp], 5
	je	SHORT $LN80@CheckForLo
	cmp	DWORD PTR _seq$[ebp], 3
	jne	SHORT $LN78@CheckForLo
$LN80@CheckForLo:

; 433  : 			localanim_NextPAttackTime = localanim_NextSAttackTime = tr.time + 1.5; // !!! slightly pushed forward...

	movsd	xmm0, QWORD PTR ?tr@@3Uref_globals_t@@A+8
	addsd	xmm0, QWORD PTR __real@3ff8000000000000
	cvtsd2ss xmm0, xmm0
	movss	DWORD PTR ?localanim_NextSAttackTime@@3MA, xmm0
	movss	xmm0, DWORD PTR ?localanim_NextSAttackTime@@3MA
	movss	DWORD PTR ?localanim_NextPAttackTime@@3MA, xmm0
	jmp	SHORT $LN83@CheckForLo
$LN78@CheckForLo:

; 434  : 		else if( seq == 6 ) // caught deploy anim!

	cmp	DWORD PTR _seq$[ebp], 6
	jne	SHORT $LN81@CheckForLo

; 435  : 			localanim_NextPAttackTime = localanim_NextSAttackTime = tr.time + 0.5;

	movsd	xmm0, QWORD PTR ?tr@@3Uref_globals_t@@A+8
	addsd	xmm0, QWORD PTR __real@3fe0000000000000
	cvtsd2ss xmm0, xmm0
	movss	DWORD PTR ?localanim_NextSAttackTime@@3MA, xmm0
	movss	xmm0, DWORD PTR ?localanim_NextSAttackTime@@3MA
	movss	DWORD PTR ?localanim_NextPAttackTime@@3MA, xmm0
	jmp	SHORT $LN83@CheckForLo
$LN81@CheckForLo:

; 436  : 		else if( seq == 4 ) // caught finish reload anim!

	cmp	DWORD PTR _seq$[ebp], 4
	jne	SHORT $LN83@CheckForLo

; 437  : 			localanim_NextPAttackTime = localanim_NextSAttackTime = tr.time + 0.8;

	movsd	xmm0, QWORD PTR ?tr@@3Uref_globals_t@@A+8
	addsd	xmm0, QWORD PTR __real@3fe999999999999a
	cvtsd2ss xmm0, xmm0
	movss	DWORD PTR ?localanim_NextSAttackTime@@3MA, xmm0
	movss	xmm0, DWORD PTR ?localanim_NextSAttackTime@@3MA
	movss	DWORD PTR ?localanim_NextPAttackTime@@3MA, xmm0
$LN83@CheckForLo:

; 438  : 
; 439  : 		if( seq != 1 ) // only interested in FIRE animations

	cmp	DWORD PTR _seq$[ebp], 1
	je	SHORT $LN84@CheckForLo

; 440  : 			return false;

	xor	al, al
	jmp	$LN1@CheckForLo

; 441  : 		else

	jmp	SHORT $LN85@CheckForLo
$LN84@CheckForLo:

; 442  : 			return true;

	mov	al, 1
	jmp	$LN1@CheckForLo
$LN85@CheckForLo:

; 443  : 	break;

	jmp	$LN2@CheckForLo
$LN86@CheckForLo:

; 444  : 	case WEAPON_SNIPER:
; 445  : 		if( seq == 3 ) // caught reload anim!

	cmp	DWORD PTR _seq$[ebp], 3
	jne	SHORT $LN87@CheckForLo

; 446  : 			localanim_NextPAttackTime = localanim_NextSAttackTime = tr.time + 3.0;

	movsd	xmm0, QWORD PTR ?tr@@3Uref_globals_t@@A+8
	addsd	xmm0, QWORD PTR __real@4008000000000000
	cvtsd2ss xmm0, xmm0
	movss	DWORD PTR ?localanim_NextSAttackTime@@3MA, xmm0
	movss	xmm0, DWORD PTR ?localanim_NextSAttackTime@@3MA
	movss	DWORD PTR ?localanim_NextPAttackTime@@3MA, xmm0
	jmp	SHORT $LN91@CheckForLo
$LN87@CheckForLo:

; 447  : 		else if( seq == 4 ) // caught reload_noshot anim!

	cmp	DWORD PTR _seq$[ebp], 4
	jne	SHORT $LN89@CheckForLo

; 448  : 			localanim_NextPAttackTime = localanim_NextSAttackTime = tr.time + 2.35;

	movsd	xmm0, QWORD PTR ?tr@@3Uref_globals_t@@A+8
	addsd	xmm0, QWORD PTR __real@4002cccccccccccd
	cvtsd2ss xmm0, xmm0
	movss	DWORD PTR ?localanim_NextSAttackTime@@3MA, xmm0
	movss	xmm0, DWORD PTR ?localanim_NextSAttackTime@@3MA
	movss	DWORD PTR ?localanim_NextPAttackTime@@3MA, xmm0
	jmp	SHORT $LN91@CheckForLo
$LN89@CheckForLo:

; 449  : 		else if( seq == 0 ) // caught deploy anim!

	cmp	DWORD PTR _seq$[ebp], 0
	jne	SHORT $LN91@CheckForLo

; 450  : 			localanim_NextPAttackTime = localanim_NextSAttackTime = tr.time + 2.0;

	movsd	xmm0, QWORD PTR ?tr@@3Uref_globals_t@@A+8
	addsd	xmm0, QWORD PTR __real@4000000000000000
	cvtsd2ss xmm0, xmm0
	movss	DWORD PTR ?localanim_NextSAttackTime@@3MA, xmm0
	movss	xmm0, DWORD PTR ?localanim_NextSAttackTime@@3MA
	movss	DWORD PTR ?localanim_NextPAttackTime@@3MA, xmm0
$LN91@CheckForLo:

; 451  : 
; 452  : 		if( seq != 2 ) // only interested in FIRE animations

	cmp	DWORD PTR _seq$[ebp], 2
	je	SHORT $LN92@CheckForLo

; 453  : 			return false;

	xor	al, al
	jmp	SHORT $LN1@CheckForLo

; 454  : 		else

	jmp	SHORT $LN93@CheckForLo
$LN92@CheckForLo:

; 455  : 			return true;

	mov	al, 1
	jmp	SHORT $LN1@CheckForLo
$LN93@CheckForLo:
$LN2@CheckForLo:

; 456  : 	break;
; 457  : 	}
; 458  : 
; 459  : 	return false;

	xor	al, al
$LN1@CheckForLo:

; 460  : }

	pop	edi
	pop	esi
	pop	ebx
	mov	esp, ebp
	pop	ebp
	ret	0
	npad	1
$LN96@CheckForLo:
	DD	$LN57@CheckForLo
	DD	$LN19@CheckForLo
	DD	$LN37@CheckForLo
	DD	$LN13@CheckForLo
	DD	$LN30@CheckForLo
	DD	$LN68@CheckForLo
	DD	$LN61@CheckForLo
	DD	$LN26@CheckForLo
	DD	$LN5@CheckForLo
	DD	$LN45@CheckForLo
	DD	$LN86@CheckForLo
	DD	$LN77@CheckForLo
	DD	$LN51@CheckForLo
	DD	$LN2@CheckForLo
$LN95@CheckForLo:
	DB	0
	DB	1
	DB	2
	DB	3
	DB	13					; 0000000dH
	DB	4
	DB	5
	DB	6
	DB	13					; 0000000dH
	DB	13					; 0000000dH
	DB	13					; 0000000dH
	DB	13					; 0000000dH
	DB	13					; 0000000dH
	DB	13					; 0000000dH
	DB	13					; 0000000dH
	DB	7
	DB	13					; 0000000dH
	DB	13					; 0000000dH
	DB	8
	DB	9
	DB	10					; 0000000aH
	DB	11					; 0000000bH
	DB	12					; 0000000cH
?CheckForLocalWeaponShootAnimation@@YA_NH@Z ENDP	; CheckForLocalWeaponShootAnimation
_TEXT	ENDS
; Function compile flags: /Odtp /ZI
; File d:\!diffusion 2020\source code 2022\client-server\client\hud_msg.cpp
;	COMDAT ?__MsgFunc_WaterSplash@@YAHPBDHPAX@Z
_TEXT	SEGMENT
_pszName$ = 8						; size = 4
_iSize$ = 12						; size = 4
_pbuf$ = 16						; size = 4
?__MsgFunc_WaterSplash@@YAHPBDHPAX@Z PROC		; __MsgFunc_WaterSplash, COMDAT

; 52   : DECLARE_HUDMESSAGE( WaterSplash );

	push	ebp
	mov	ebp, esp
	sub	esp, 64					; 00000040H
	push	ebx
	push	esi
	push	edi
	mov	eax, DWORD PTR _pbuf$[ebp]
	push	eax
	mov	ecx, DWORD PTR _iSize$[ebp]
	push	ecx
	mov	edx, DWORD PTR _pszName$[ebp]
	push	edx
	push	OFFSET ?gHUD@@3VCHud@@A			; gHUD
	call	?MsgFunc_WaterSplash@CHud@@QAAHPBDHPAX@Z ; CHud::MsgFunc_WaterSplash
	add	esp, 16					; 00000010H
	pop	edi
	pop	esi
	pop	ebx
	mov	esp, ebp
	pop	ebp
	ret	0
?__MsgFunc_WaterSplash@@YAHPBDHPAX@Z ENDP		; __MsgFunc_WaterSplash
_TEXT	ENDS
; Function compile flags: /Odtp /ZI
; File d:\!diffusion 2020\source code 2022\client-server\client\hud_msg.cpp
;	COMDAT ?__MsgFunc_TempEnt@@YAHPBDHPAX@Z
_TEXT	SEGMENT
_pszName$ = 8						; size = 4
_iSize$ = 12						; size = 4
_pbuf$ = 16						; size = 4
?__MsgFunc_TempEnt@@YAHPBDHPAX@Z PROC			; __MsgFunc_TempEnt, COMDAT

; 51   : DECLARE_HUDMESSAGE( TempEnt );

	push	ebp
	mov	ebp, esp
	sub	esp, 64					; 00000040H
	push	ebx
	push	esi
	push	edi
	mov	eax, DWORD PTR _pbuf$[ebp]
	push	eax
	mov	ecx, DWORD PTR _iSize$[ebp]
	push	ecx
	mov	edx, DWORD PTR _pszName$[ebp]
	push	edx
	push	OFFSET ?gHUD@@3VCHud@@A			; gHUD
	call	?MsgFunc_TempEnt@CHud@@QAAHPBDHPAX@Z	; CHud::MsgFunc_TempEnt
	add	esp, 16					; 00000010H
	pop	edi
	pop	esi
	pop	ebx
	mov	esp, ebp
	pop	ebp
	ret	0
?__MsgFunc_TempEnt@@YAHPBDHPAX@Z ENDP			; __MsgFunc_TempEnt
_TEXT	ENDS
; Function compile flags: /Odtp /ZI
; File d:\!diffusion 2020\source code 2022\client-server\client\hud_msg.cpp
;	COMDAT ?__MsgFunc_SetupBones@@YAHPBDHPAX@Z
_TEXT	SEGMENT
_pszName$ = 8						; size = 4
_iSize$ = 12						; size = 4
_pbuf$ = 16						; size = 4
?__MsgFunc_SetupBones@@YAHPBDHPAX@Z PROC		; __MsgFunc_SetupBones, COMDAT

; 50   : DECLARE_HUDMESSAGE( SetupBones );

	push	ebp
	mov	ebp, esp
	sub	esp, 64					; 00000040H
	push	ebx
	push	esi
	push	edi
	mov	eax, DWORD PTR _pbuf$[ebp]
	push	eax
	mov	ecx, DWORD PTR _iSize$[ebp]
	push	ecx
	mov	edx, DWORD PTR _pszName$[ebp]
	push	edx
	push	OFFSET ?gHUD@@3VCHud@@A			; gHUD
	call	?MsgFunc_SetupBones@CHud@@QAAHPBDHPAX@Z	; CHud::MsgFunc_SetupBones
	add	esp, 16					; 00000010H
	pop	edi
	pop	esi
	pop	ebx
	mov	esp, ebp
	pop	ebp
	ret	0
?__MsgFunc_SetupBones@@YAHPBDHPAX@Z ENDP		; __MsgFunc_SetupBones
_TEXT	ENDS
; Function compile flags: /Odtp /ZI
; File d:\!diffusion 2020\source code 2022\client-server\client\hud_msg.cpp
;	COMDAT ?__MsgFunc_StudioDecal@@YAHPBDHPAX@Z
_TEXT	SEGMENT
_pszName$ = 8						; size = 4
_iSize$ = 12						; size = 4
_pbuf$ = 16						; size = 4
?__MsgFunc_StudioDecal@@YAHPBDHPAX@Z PROC		; __MsgFunc_StudioDecal, COMDAT

; 49   : DECLARE_HUDMESSAGE( StudioDecal );

	push	ebp
	mov	ebp, esp
	sub	esp, 64					; 00000040H
	push	ebx
	push	esi
	push	edi
	mov	eax, DWORD PTR _pbuf$[ebp]
	push	eax
	mov	ecx, DWORD PTR _iSize$[ebp]
	push	ecx
	mov	edx, DWORD PTR _pszName$[ebp]
	push	edx
	push	OFFSET ?gHUD@@3VCHud@@A			; gHUD
	call	?MsgFunc_StudioDecal@CHud@@QAAHPBDHPAX@Z ; CHud::MsgFunc_StudioDecal
	add	esp, 16					; 00000010H
	pop	edi
	pop	esi
	pop	ebx
	mov	esp, ebp
	pop	ebp
	ret	0
?__MsgFunc_StudioDecal@@YAHPBDHPAX@Z ENDP		; __MsgFunc_StudioDecal
_TEXT	ENDS
; Function compile flags: /Odtp /ZI
; File d:\!diffusion 2020\source code 2022\client-server\client\hud_msg.cpp
;	COMDAT ?__MsgFunc_KillDecals@@YAHPBDHPAX@Z
_TEXT	SEGMENT
_pszName$ = 8						; size = 4
_iSize$ = 12						; size = 4
_pbuf$ = 16						; size = 4
?__MsgFunc_KillDecals@@YAHPBDHPAX@Z PROC		; __MsgFunc_KillDecals, COMDAT

; 48   : DECLARE_HUDMESSAGE( KillDecals );

	push	ebp
	mov	ebp, esp
	sub	esp, 64					; 00000040H
	push	ebx
	push	esi
	push	edi
	mov	eax, DWORD PTR _pbuf$[ebp]
	push	eax
	mov	ecx, DWORD PTR _iSize$[ebp]
	push	ecx
	mov	edx, DWORD PTR _pszName$[ebp]
	push	edx
	push	OFFSET ?gHUD@@3VCHud@@A			; gHUD
	call	?MsgFunc_KillDecals@CHud@@QAAHPBDHPAX@Z	; CHud::MsgFunc_KillDecals
	add	esp, 16					; 00000010H
	pop	edi
	pop	esi
	pop	ebx
	mov	esp, ebp
	pop	ebp
	ret	0
?__MsgFunc_KillDecals@@YAHPBDHPAX@Z ENDP		; __MsgFunc_KillDecals
_TEXT	ENDS
; Function compile flags: /Odtp /ZI
; File d:\!diffusion 2020\source code 2022\client-server\client\hud_msg.cpp
;	COMDAT ?__MsgFunc_WeaponAnim@@YAHPBDHPAX@Z
_TEXT	SEGMENT
_pszName$ = 8						; size = 4
_iSize$ = 12						; size = 4
_pbuf$ = 16						; size = 4
?__MsgFunc_WeaponAnim@@YAHPBDHPAX@Z PROC		; __MsgFunc_WeaponAnim, COMDAT

; 47   : DECLARE_HUDMESSAGE( WeaponAnim );

	push	ebp
	mov	ebp, esp
	sub	esp, 64					; 00000040H
	push	ebx
	push	esi
	push	edi
	mov	eax, DWORD PTR _pbuf$[ebp]
	push	eax
	mov	ecx, DWORD PTR _iSize$[ebp]
	push	ecx
	mov	edx, DWORD PTR _pszName$[ebp]
	push	edx
	push	OFFSET ?gHUD@@3VCHud@@A			; gHUD
	call	?MsgFunc_WeaponAnim@CHud@@QAAHPBDHPAX@Z	; CHud::MsgFunc_WeaponAnim
	add	esp, 16					; 00000010H
	pop	edi
	pop	esi
	pop	ebx
	mov	esp, ebp
	pop	ebp
	ret	0
?__MsgFunc_WeaponAnim@@YAHPBDHPAX@Z ENDP		; __MsgFunc_WeaponAnim
_TEXT	ENDS
; Function compile flags: /Odtp /ZI
; File d:\!diffusion 2020\source code 2022\client-server\client\hud_msg.cpp
;	COMDAT ?__MsgFunc_MusicFade@@YAHPBDHPAX@Z
_TEXT	SEGMENT
_pszName$ = 8						; size = 4
_iSize$ = 12						; size = 4
_pbuf$ = 16						; size = 4
?__MsgFunc_MusicFade@@YAHPBDHPAX@Z PROC			; __MsgFunc_MusicFade, COMDAT

; 46   : DECLARE_HUDMESSAGE( MusicFade );

	push	ebp
	mov	ebp, esp
	sub	esp, 64					; 00000040H
	push	ebx
	push	esi
	push	edi
	mov	eax, DWORD PTR _pbuf$[ebp]
	push	eax
	mov	ecx, DWORD PTR _iSize$[ebp]
	push	ecx
	mov	edx, DWORD PTR _pszName$[ebp]
	push	edx
	push	OFFSET ?gHUD@@3VCHud@@A			; gHUD
	call	?MsgFunc_MusicFade@CHud@@QAAHPBDHPAX@Z	; CHud::MsgFunc_MusicFade
	add	esp, 16					; 00000010H
	pop	edi
	pop	esi
	pop	ebx
	mov	esp, ebp
	pop	ebp
	ret	0
?__MsgFunc_MusicFade@@YAHPBDHPAX@Z ENDP			; __MsgFunc_MusicFade
_TEXT	ENDS
; Function compile flags: /Odtp /ZI
; File d:\!diffusion 2020\source code 2022\client-server\client\hud_msg.cpp
;	COMDAT ?__MsgFunc_GameMode@@YAHPBDHPAX@Z
_TEXT	SEGMENT
_pszName$ = 8						; size = 4
_iSize$ = 12						; size = 4
_pbuf$ = 16						; size = 4
?__MsgFunc_GameMode@@YAHPBDHPAX@Z PROC			; __MsgFunc_GameMode, COMDAT

; 45   : DECLARE_HUDMESSAGE( GameMode );

	push	ebp
	mov	ebp, esp
	sub	esp, 64					; 00000040H
	push	ebx
	push	esi
	push	edi
	mov	eax, DWORD PTR _pbuf$[ebp]
	push	eax
	mov	ecx, DWORD PTR _iSize$[ebp]
	push	ecx
	mov	edx, DWORD PTR _pszName$[ebp]
	push	edx
	push	OFFSET ?gHUD@@3VCHud@@A			; gHUD
	call	?MsgFunc_GameMode@CHud@@QAAHPBDHPAX@Z	; CHud::MsgFunc_GameMode
	add	esp, 16					; 00000010H
	pop	edi
	pop	esi
	pop	ebx
	mov	esp, ebp
	pop	ebp
	ret	0
?__MsgFunc_GameMode@@YAHPBDHPAX@Z ENDP			; __MsgFunc_GameMode
_TEXT	ENDS
; Function compile flags: /Odtp /ZI
; File d:\!diffusion 2020\source code 2022\client-server\client\hud_msg.cpp
;	COMDAT ?__MsgFunc_Concuss@@YAHPBDHPAX@Z
_TEXT	SEGMENT
_pszName$ = 8						; size = 4
_iSize$ = 12						; size = 4
_pbuf$ = 16						; size = 4
?__MsgFunc_Concuss@@YAHPBDHPAX@Z PROC			; __MsgFunc_Concuss, COMDAT

; 44   : DECLARE_HUDMESSAGE( Concuss );

	push	ebp
	mov	ebp, esp
	sub	esp, 64					; 00000040H
	push	ebx
	push	esi
	push	edi
	mov	eax, DWORD PTR _pbuf$[ebp]
	push	eax
	mov	ecx, DWORD PTR _iSize$[ebp]
	push	ecx
	mov	edx, DWORD PTR _pszName$[ebp]
	push	edx
	push	OFFSET ?gHUD@@3VCHud@@A			; gHUD
	call	?MsgFunc_Concuss@CHud@@QAAHPBDHPAX@Z	; CHud::MsgFunc_Concuss
	add	esp, 16					; 00000010H
	pop	edi
	pop	esi
	pop	ebx
	mov	esp, ebp
	pop	ebp
	ret	0
?__MsgFunc_Concuss@@YAHPBDHPAX@Z ENDP			; __MsgFunc_Concuss
_TEXT	ENDS
; Function compile flags: /Odtp /ZI
; File d:\!diffusion 2020\source code 2022\client-server\client\hud_msg.cpp
;	COMDAT ?__MsgFunc_SetFOV@@YAHPBDHPAX@Z
_TEXT	SEGMENT
_pszName$ = 8						; size = 4
_iSize$ = 12						; size = 4
_pbuf$ = 16						; size = 4
?__MsgFunc_SetFOV@@YAHPBDHPAX@Z PROC			; __MsgFunc_SetFOV, COMDAT

; 43   : DECLARE_HUDMESSAGE( SetFOV );

	push	ebp
	mov	ebp, esp
	sub	esp, 64					; 00000040H
	push	ebx
	push	esi
	push	edi
	mov	eax, DWORD PTR _pbuf$[ebp]
	push	eax
	mov	ecx, DWORD PTR _iSize$[ebp]
	push	ecx
	mov	edx, DWORD PTR _pszName$[ebp]
	push	edx
	push	OFFSET ?gHUD@@3VCHud@@A			; gHUD
	call	?MsgFunc_SetFOV@CHud@@QAAHPBDHPAX@Z	; CHud::MsgFunc_SetFOV
	add	esp, 16					; 00000010H
	pop	edi
	pop	esi
	pop	ebx
	mov	esp, ebp
	pop	ebp
	ret	0
?__MsgFunc_SetFOV@@YAHPBDHPAX@Z ENDP			; __MsgFunc_SetFOV
_TEXT	ENDS
; Function compile flags: /Odtp /ZI
; File d:\!diffusion 2020\source code 2022\client-server\client\hud_msg.cpp
;	COMDAT ?__MsgFunc_KillPart@@YAHPBDHPAX@Z
_TEXT	SEGMENT
_pszName$ = 8						; size = 4
_iSize$ = 12						; size = 4
_pbuf$ = 16						; size = 4
?__MsgFunc_KillPart@@YAHPBDHPAX@Z PROC			; __MsgFunc_KillPart, COMDAT

; 42   : DECLARE_HUDMESSAGE( KillPart );

	push	ebp
	mov	ebp, esp
	sub	esp, 64					; 00000040H
	push	ebx
	push	esi
	push	edi
	mov	eax, DWORD PTR _pbuf$[ebp]
	push	eax
	mov	ecx, DWORD PTR _iSize$[ebp]
	push	ecx
	mov	edx, DWORD PTR _pszName$[ebp]
	push	edx
	push	OFFSET ?gHUD@@3VCHud@@A			; gHUD
	call	?MsgFunc_KillPart@CHud@@QAAHPBDHPAX@Z	; CHud::MsgFunc_KillPart
	add	esp, 16					; 00000010H
	pop	edi
	pop	esi
	pop	ebx
	mov	esp, ebp
	pop	ebp
	ret	0
?__MsgFunc_KillPart@@YAHPBDHPAX@Z ENDP			; __MsgFunc_KillPart
_TEXT	ENDS
; Function compile flags: /Odtp /ZI
; File d:\!diffusion 2020\source code 2022\client-server\client\hud_msg.cpp
;	COMDAT ?__MsgFunc_Particle@@YAHPBDHPAX@Z
_TEXT	SEGMENT
_pszName$ = 8						; size = 4
_iSize$ = 12						; size = 4
_pbuf$ = 16						; size = 4
?__MsgFunc_Particle@@YAHPBDHPAX@Z PROC			; __MsgFunc_Particle, COMDAT

; 41   : DECLARE_HUDMESSAGE( Particle );

	push	ebp
	mov	ebp, esp
	sub	esp, 64					; 00000040H
	push	ebx
	push	esi
	push	edi
	mov	eax, DWORD PTR _pbuf$[ebp]
	push	eax
	mov	ecx, DWORD PTR _iSize$[ebp]
	push	ecx
	mov	edx, DWORD PTR _pszName$[ebp]
	push	edx
	push	OFFSET ?gHUD@@3VCHud@@A			; gHUD
	call	?MsgFunc_Particle@CHud@@QAAHPBDHPAX@Z	; CHud::MsgFunc_Particle
	add	esp, 16					; 00000010H
	pop	edi
	pop	esi
	pop	ebx
	mov	esp, ebp
	pop	ebp
	ret	0
?__MsgFunc_Particle@@YAHPBDHPAX@Z ENDP			; __MsgFunc_Particle
_TEXT	ENDS
; Function compile flags: /Odtp /ZI
; File d:\!diffusion 2020\source code 2022\client-server\client\hud_msg.cpp
;	COMDAT ?__MsgFunc_ViewMode@@YAHPBDHPAX@Z
_TEXT	SEGMENT
_pszName$ = 8						; size = 4
_iSize$ = 12						; size = 4
_pbuf$ = 16						; size = 4
?__MsgFunc_ViewMode@@YAHPBDHPAX@Z PROC			; __MsgFunc_ViewMode, COMDAT

; 40   : DECLARE_HUDMESSAGE( ViewMode );

	push	ebp
	mov	ebp, esp
	sub	esp, 64					; 00000040H
	push	ebx
	push	esi
	push	edi
	mov	eax, DWORD PTR _pbuf$[ebp]
	push	eax
	mov	ecx, DWORD PTR _iSize$[ebp]
	push	ecx
	mov	edx, DWORD PTR _pszName$[ebp]
	push	edx
	push	OFFSET ?gHUD@@3VCHud@@A			; gHUD
	call	?MsgFunc_ViewMode@CHud@@QAAHPBDHPAX@Z	; CHud::MsgFunc_ViewMode
	add	esp, 16					; 00000010H
	pop	edi
	pop	esi
	pop	ebx
	mov	esp, ebp
	pop	ebp
	ret	0
?__MsgFunc_ViewMode@@YAHPBDHPAX@Z ENDP			; __MsgFunc_ViewMode
_TEXT	ENDS
; Function compile flags: /Odtp /ZI
; File d:\!diffusion 2020\source code 2022\client-server\client\hud_msg.cpp
;	COMDAT ?__MsgFunc_InitHUD@@YAHPBDHPAX@Z
_TEXT	SEGMENT
_pszName$ = 8						; size = 4
_iSize$ = 12						; size = 4
_pbuf$ = 16						; size = 4
?__MsgFunc_InitHUD@@YAHPBDHPAX@Z PROC			; __MsgFunc_InitHUD, COMDAT

; 39   : DECLARE_HUDMESSAGE( InitHUD );

	push	ebp
	mov	ebp, esp
	sub	esp, 64					; 00000040H
	push	ebx
	push	esi
	push	edi
	mov	eax, DWORD PTR _pbuf$[ebp]
	push	eax
	mov	ecx, DWORD PTR _iSize$[ebp]
	push	ecx
	mov	edx, DWORD PTR _pszName$[ebp]
	push	edx
	push	OFFSET ?gHUD@@3VCHud@@A			; gHUD
	call	?MsgFunc_InitHUD@CHud@@QAAHPBDHPAX@Z	; CHud::MsgFunc_InitHUD
	add	esp, 16					; 00000010H
	pop	edi
	pop	esi
	pop	ebx
	mov	esp, ebp
	pop	ebp
	ret	0
?__MsgFunc_InitHUD@@YAHPBDHPAX@Z ENDP			; __MsgFunc_InitHUD
_TEXT	ENDS
; Function compile flags: /Odtp /ZI
; File d:\!diffusion 2020\source code 2022\client-server\client\hud_msg.cpp
;	COMDAT ?__MsgFunc_ResetHUD@@YAHPBDHPAX@Z
_TEXT	SEGMENT
_pszName$ = 8						; size = 4
_iSize$ = 12						; size = 4
_pbuf$ = 16						; size = 4
?__MsgFunc_ResetHUD@@YAHPBDHPAX@Z PROC			; __MsgFunc_ResetHUD, COMDAT

; 38   : DECLARE_HUDMESSAGE( ResetHUD );

	push	ebp
	mov	ebp, esp
	sub	esp, 64					; 00000040H
	push	ebx
	push	esi
	push	edi
	mov	eax, DWORD PTR _pbuf$[ebp]
	push	eax
	mov	ecx, DWORD PTR _iSize$[ebp]
	push	ecx
	mov	edx, DWORD PTR _pszName$[ebp]
	push	edx
	push	OFFSET ?gHUD@@3VCHud@@A			; gHUD
	call	?MsgFunc_ResetHUD@CHud@@QAAHPBDHPAX@Z	; CHud::MsgFunc_ResetHUD
	add	esp, 16					; 00000010H
	pop	edi
	pop	esi
	pop	ebx
	mov	esp, ebp
	pop	ebp
	ret	0
?__MsgFunc_ResetHUD@@YAHPBDHPAX@Z ENDP			; __MsgFunc_ResetHUD
_TEXT	ENDS
; Function compile flags: /Odtp /ZI
; File d:\!diffusion 2020\source code 2022\client-server\client\hud_msg.cpp
;	COMDAT ?__MsgFunc_SetSkin@@YAHPBDHPAX@Z
_TEXT	SEGMENT
_pszName$ = 8						; size = 4
_iSize$ = 12						; size = 4
_pbuf$ = 16						; size = 4
?__MsgFunc_SetSkin@@YAHPBDHPAX@Z PROC			; __MsgFunc_SetSkin, COMDAT

; 37   : DECLARE_HUDMESSAGE( SetSkin );

	push	ebp
	mov	ebp, esp
	sub	esp, 64					; 00000040H
	push	ebx
	push	esi
	push	edi
	mov	eax, DWORD PTR _pbuf$[ebp]
	push	eax
	mov	ecx, DWORD PTR _iSize$[ebp]
	push	ecx
	mov	edx, DWORD PTR _pszName$[ebp]
	push	edx
	push	OFFSET ?gHUD@@3VCHud@@A			; gHUD
	call	?MsgFunc_SetSkin@CHud@@QAAHPBDHPAX@Z	; CHud::MsgFunc_SetSkin
	add	esp, 16					; 00000010H
	pop	edi
	pop	esi
	pop	ebx
	mov	esp, ebp
	pop	ebp
	ret	0
?__MsgFunc_SetSkin@@YAHPBDHPAX@Z ENDP			; __MsgFunc_SetSkin
_TEXT	ENDS
; Function compile flags: /Odtp /ZI
; File d:\!diffusion 2020\source code 2022\client-server\client\hud_msg.cpp
;	COMDAT ?__MsgFunc_SetBody@@YAHPBDHPAX@Z
_TEXT	SEGMENT
_pszName$ = 8						; size = 4
_iSize$ = 12						; size = 4
_pbuf$ = 16						; size = 4
?__MsgFunc_SetBody@@YAHPBDHPAX@Z PROC			; __MsgFunc_SetBody, COMDAT

; 36   : DECLARE_HUDMESSAGE( SetBody );

	push	ebp
	mov	ebp, esp
	sub	esp, 64					; 00000040H
	push	ebx
	push	esi
	push	edi
	mov	eax, DWORD PTR _pbuf$[ebp]
	push	eax
	mov	ecx, DWORD PTR _iSize$[ebp]
	push	ecx
	mov	edx, DWORD PTR _pszName$[ebp]
	push	edx
	push	OFFSET ?gHUD@@3VCHud@@A			; gHUD
	call	?MsgFunc_SetBody@CHud@@QAAHPBDHPAX@Z	; CHud::MsgFunc_SetBody
	add	esp, 16					; 00000010H
	pop	edi
	pop	esi
	pop	ebx
	mov	esp, ebp
	pop	ebp
	ret	0
?__MsgFunc_SetBody@@YAHPBDHPAX@Z ENDP			; __MsgFunc_SetBody
_TEXT	ENDS
; Function compile flags: /Odtp /ZI
; File d:\!diffusion 2020\source code 2022\client-server\client\hud_msg.cpp
;	COMDAT ?__MsgFunc_RainData@@YAHPBDHPAX@Z
_TEXT	SEGMENT
_pszName$ = 8						; size = 4
_iSize$ = 12						; size = 4
_pbuf$ = 16						; size = 4
?__MsgFunc_RainData@@YAHPBDHPAX@Z PROC			; __MsgFunc_RainData, COMDAT

; 35   : DECLARE_HUDMESSAGE( RainData );

	push	ebp
	mov	ebp, esp
	sub	esp, 64					; 00000040H
	push	ebx
	push	esi
	push	edi
	mov	eax, DWORD PTR _pbuf$[ebp]
	push	eax
	mov	ecx, DWORD PTR _iSize$[ebp]
	push	ecx
	mov	edx, DWORD PTR _pszName$[ebp]
	push	edx
	push	OFFSET ?gHUD@@3VCHud@@A			; gHUD
	call	?MsgFunc_RainData@CHud@@QAAHPBDHPAX@Z	; CHud::MsgFunc_RainData
	add	esp, 16					; 00000010H
	pop	edi
	pop	esi
	pop	ebx
	mov	esp, ebp
	pop	ebp
	ret	0
?__MsgFunc_RainData@@YAHPBDHPAX@Z ENDP			; __MsgFunc_RainData
_TEXT	ENDS
; Function compile flags: /Odtp /ZI
; File d:\!diffusion 2020\source code 2022\client-server\client\hud_msg.cpp
;	COMDAT ?__MsgFunc_Weapons@@YAHPBDHPAX@Z
_TEXT	SEGMENT
_pszName$ = 8						; size = 4
_iSize$ = 12						; size = 4
_pbuf$ = 16						; size = 4
?__MsgFunc_Weapons@@YAHPBDHPAX@Z PROC			; __MsgFunc_Weapons, COMDAT

; 34   : DECLARE_HUDMESSAGE( Weapons );

	push	ebp
	mov	ebp, esp
	sub	esp, 64					; 00000040H
	push	ebx
	push	esi
	push	edi
	mov	eax, DWORD PTR _pbuf$[ebp]
	push	eax
	mov	ecx, DWORD PTR _iSize$[ebp]
	push	ecx
	mov	edx, DWORD PTR _pszName$[ebp]
	push	edx
	push	OFFSET ?gHUD@@3VCHud@@A			; gHUD
	call	?MsgFunc_Weapons@CHud@@QAAHPBDHPAX@Z	; CHud::MsgFunc_Weapons
	add	esp, 16					; 00000010H
	pop	edi
	pop	esi
	pop	ebx
	mov	esp, ebp
	pop	ebp
	ret	0
?__MsgFunc_Weapons@@YAHPBDHPAX@Z ENDP			; __MsgFunc_Weapons
_TEXT	ENDS
; Function compile flags: /Odtp /ZI
; File d:\!diffusion 2020\source code 2022\client-server\client\hud_msg.cpp
;	COMDAT ?__MsgFunc_HUDColor@@YAHPBDHPAX@Z
_TEXT	SEGMENT
_pszName$ = 8						; size = 4
_iSize$ = 12						; size = 4
_pbuf$ = 16						; size = 4
?__MsgFunc_HUDColor@@YAHPBDHPAX@Z PROC			; __MsgFunc_HUDColor, COMDAT

; 33   : DECLARE_HUDMESSAGE( HUDColor );

	push	ebp
	mov	ebp, esp
	sub	esp, 64					; 00000040H
	push	ebx
	push	esi
	push	edi
	mov	eax, DWORD PTR _pbuf$[ebp]
	push	eax
	mov	ecx, DWORD PTR _iSize$[ebp]
	push	ecx
	mov	edx, DWORD PTR _pszName$[ebp]
	push	edx
	push	OFFSET ?gHUD@@3VCHud@@A			; gHUD
	call	?MsgFunc_HUDColor@CHud@@QAAHPBDHPAX@Z	; CHud::MsgFunc_HUDColor
	add	esp, 16					; 00000010H
	pop	edi
	pop	esi
	pop	ebx
	mov	esp, ebp
	pop	ebp
	ret	0
?__MsgFunc_HUDColor@@YAHPBDHPAX@Z ENDP			; __MsgFunc_HUDColor
_TEXT	ENDS
; Function compile flags: /Odtp /ZI
; File d:\!diffusion 2020\source code 2022\client-server\client\hud_msg.cpp
;	COMDAT ?__MsgFunc_Logo@@YAHPBDHPAX@Z
_TEXT	SEGMENT
_pszName$ = 8						; size = 4
_iSize$ = 12						; size = 4
_pbuf$ = 16						; size = 4
?__MsgFunc_Logo@@YAHPBDHPAX@Z PROC			; __MsgFunc_Logo, COMDAT

; 32   : DECLARE_HUDMESSAGE( Logo );

	push	ebp
	mov	ebp, esp
	sub	esp, 64					; 00000040H
	push	ebx
	push	esi
	push	edi
	mov	eax, DWORD PTR _pbuf$[ebp]
	push	eax
	mov	ecx, DWORD PTR _iSize$[ebp]
	push	ecx
	mov	edx, DWORD PTR _pszName$[ebp]
	push	edx
	push	OFFSET ?gHUD@@3VCHud@@A			; gHUD
	call	?MsgFunc_Logo@CHud@@QAAHPBDHPAX@Z	; CHud::MsgFunc_Logo
	add	esp, 16					; 00000010H
	pop	edi
	pop	esi
	pop	ebx
	mov	esp, ebp
	pop	ebp
	ret	0
?__MsgFunc_Logo@@YAHPBDHPAX@Z ENDP			; __MsgFunc_Logo
_TEXT	ENDS
; Function compile flags: /Odtp /ZI
;	COMDAT ??0CQuakePart@@QAE@XZ
_TEXT	SEGMENT
_this$ = -4						; size = 4
??0CQuakePart@@QAE@XZ PROC				; CQuakePart::CQuakePart, COMDAT
; _this$ = ecx
	push	ebp
	mov	ebp, esp
	sub	esp, 68					; 00000044H
	push	ebx
	push	esi
	push	edi
	mov	DWORD PTR _this$[ebp], ecx
	mov	ecx, DWORD PTR _this$[ebp]
	call	??0Vector@@QAE@XZ			; Vector::Vector
	mov	ecx, DWORD PTR _this$[ebp]
	add	ecx, 12					; 0000000cH
	call	??0Vector@@QAE@XZ			; Vector::Vector
	mov	ecx, DWORD PTR _this$[ebp]
	add	ecx, 24					; 00000018H
	call	??0Vector@@QAE@XZ			; Vector::Vector
	mov	ecx, DWORD PTR _this$[ebp]
	add	ecx, 36					; 00000024H
	call	??0Vector@@QAE@XZ			; Vector::Vector
	mov	ecx, DWORD PTR _this$[ebp]
	add	ecx, 48					; 00000030H
	call	??0Vector@@QAE@XZ			; Vector::Vector
	mov	ecx, DWORD PTR _this$[ebp]
	add	ecx, 60					; 0000003cH
	call	??0Vector@@QAE@XZ			; Vector::Vector
	mov	ecx, DWORD PTR _this$[ebp]
	add	ecx, 116				; 00000074H
	call	??0Vector@@QAE@XZ			; Vector::Vector
	mov	ecx, DWORD PTR _this$[ebp]
	add	ecx, 156				; 0000009cH
	call	??0Vector@@QAE@XZ			; Vector::Vector
	mov	eax, DWORD PTR _this$[ebp]
	pop	edi
	pop	esi
	pop	ebx
	mov	esp, ebp
	pop	ebp
	ret	0
??0CQuakePart@@QAE@XZ ENDP				; CQuakePart::CQuakePart
_TEXT	ENDS
; Function compile flags: /Odtp /ZI
; File d:\!diffusion 2020\source code 2022\client-server\client\render\r_studio.h
;	COMDAT ?R_StudioSetBonesExternal@@YAXPBUcl_entity_s@@QBVVector@@QBVRadian@@@Z
_TEXT	SEGMENT
_ent$ = 8						; size = 4
_pos$ = 12						; size = 4
_ang$ = 16						; size = 4
?R_StudioSetBonesExternal@@YAXPBUcl_entity_s@@QBVVector@@QBVRadian@@@Z PROC ; R_StudioSetBonesExternal, COMDAT

; 773  : {

	push	ebp
	mov	ebp, esp
	sub	esp, 64					; 00000040H
	push	ebx
	push	esi
	push	edi

; 774  : 	g_StudioRenderer.StudioSetBonesExternal( ent, pos, ang );

	mov	eax, DWORD PTR _ang$[ebp]
	push	eax
	mov	ecx, DWORD PTR _pos$[ebp]
	push	ecx
	mov	edx, DWORD PTR _ent$[ebp]
	push	edx
	mov	ecx, OFFSET ?g_StudioRenderer@@3VCStudioModelRenderer@@A ; g_StudioRenderer
	call	?StudioSetBonesExternal@CStudioModelRenderer@@QAEXPBUcl_entity_s@@QBVVector@@QBVRadian@@@Z ; CStudioModelRenderer::StudioSetBonesExternal

; 775  : }

	pop	edi
	pop	esi
	pop	ebx
	mov	esp, ebp
	pop	ebp
	ret	0
?R_StudioSetBonesExternal@@YAXPBUcl_entity_s@@QBVVector@@QBVRadian@@@Z ENDP ; R_StudioSetBonesExternal
_TEXT	ENDS
; Function compile flags: /Odtp /ZI
; File d:\!diffusion 2020\source code 2022\client-server\client\render\r_studio.h
;	COMDAT ?R_StudioDecalShoot@@YAXHPAUcl_entity_s@@PBM1HPAUmodelstate_s@@@Z
_TEXT	SEGMENT
$T1 = -88						; size = 12
$T2 = -76						; size = 12
_decalTexture$ = 8					; size = 4
_ent$ = 12						; size = 4
_start$ = 16						; size = 4
_pos$ = 20						; size = 4
_flags$ = 24						; size = 4
_state$ = 28						; size = 4
?R_StudioDecalShoot@@YAXHPAUcl_entity_s@@PBM1HPAUmodelstate_s@@@Z PROC ; R_StudioDecalShoot, COMDAT

; 714  : {

	push	ebp
	mov	ebp, esp
	sub	esp, 88					; 00000058H
	push	ebx
	push	esi
	push	edi

; 715  : 	g_StudioRenderer.StudioDecalShoot((float *)start, (float *)pos, decalTexture, ent, flags, state );

	mov	eax, DWORD PTR _pos$[ebp]
	push	eax
	lea	ecx, DWORD PTR $T2[ebp]
	call	??0Vector@@QAE@QAM@Z			; Vector::Vector
	mov	ecx, DWORD PTR _start$[ebp]
	push	ecx
	lea	ecx, DWORD PTR $T1[ebp]
	call	??0Vector@@QAE@QAM@Z			; Vector::Vector
	mov	edx, DWORD PTR _state$[ebp]
	push	edx
	mov	eax, DWORD PTR _flags$[ebp]
	push	eax
	mov	ecx, DWORD PTR _ent$[ebp]
	push	ecx
	mov	edx, DWORD PTR _decalTexture$[ebp]
	push	edx
	lea	eax, DWORD PTR $T2[ebp]
	push	eax
	lea	ecx, DWORD PTR $T1[ebp]
	push	ecx
	mov	ecx, OFFSET ?g_StudioRenderer@@3VCStudioModelRenderer@@A ; g_StudioRenderer
	call	?StudioDecalShoot@CStudioModelRenderer@@QAEXABVVector@@0HPAUcl_entity_s@@HPAUmodelstate_s@@@Z ; CStudioModelRenderer::StudioDecalShoot

; 716  : }

	pop	edi
	pop	esi
	pop	ebx
	mov	esp, ebp
	pop	ebp
	ret	0
?R_StudioDecalShoot@@YAXHPAUcl_entity_s@@PBM1HPAUmodelstate_s@@@Z ENDP ; R_StudioDecalShoot
_TEXT	ENDS
; Function compile flags: /Odtp /ZI
;	COMDAT ??0pmtrace_s@@QAE@XZ
_TEXT	SEGMENT
_this$ = -4						; size = 4
??0pmtrace_s@@QAE@XZ PROC				; pmtrace_s::pmtrace_s, COMDAT
; _this$ = ecx
	push	ebp
	mov	ebp, esp
	sub	esp, 68					; 00000044H
	push	ebx
	push	esi
	push	edi
	mov	DWORD PTR _this$[ebp], ecx
	mov	ecx, DWORD PTR _this$[ebp]
	add	ecx, 20					; 00000014H
	call	??0Vector@@QAE@XZ			; Vector::Vector
	mov	ecx, DWORD PTR _this$[ebp]
	add	ecx, 32					; 00000020H
	call	??0pmplane_t@@QAE@XZ
	mov	ecx, DWORD PTR _this$[ebp]
	add	ecx, 52					; 00000034H
	call	??0Vector@@QAE@XZ			; Vector::Vector
	mov	eax, DWORD PTR _this$[ebp]
	pop	edi
	pop	esi
	pop	ebx
	mov	esp, ebp
	pop	ebp
	ret	0
??0pmtrace_s@@QAE@XZ ENDP				; pmtrace_s::pmtrace_s
_TEXT	ENDS
; Function compile flags: /Odtp /ZI
;	COMDAT ??0pmplane_t@@QAE@XZ
_TEXT	SEGMENT
_this$ = -4						; size = 4
??0pmplane_t@@QAE@XZ PROC				; pmplane_t::pmplane_t, COMDAT
; _this$ = ecx
	push	ebp
	mov	ebp, esp
	sub	esp, 68					; 00000044H
	push	ebx
	push	esi
	push	edi
	mov	DWORD PTR _this$[ebp], ecx
	mov	ecx, DWORD PTR _this$[ebp]
	call	??0Vector@@QAE@XZ			; Vector::Vector
	mov	eax, DWORD PTR _this$[ebp]
	pop	edi
	pop	esi
	pop	ebx
	mov	esp, ebp
	pop	ebp
	ret	0
??0pmplane_t@@QAE@XZ ENDP				; pmplane_t::pmplane_t
_TEXT	ENDS
; Function compile flags: /Odtp /ZI
; File d:\!diffusion 2020\source code 2022\client-server\client\hud_msg.cpp
;	COMDAT ?MsgFunc_WaterSplash@CHud@@QAAHPBDHPAX@Z
_TEXT	SEGMENT
tv235 = -108						; size = 4
tv220 = -108						; size = 4
tv152 = -108						; size = 4
tv75 = -108						; size = 4
$T1 = -104						; size = 12
$T2 = -92						; size = 12
_Type$ = -16						; size = 4
_pos$ = -12						; size = 12
_this$ = 8						; size = 4
_pszName$ = 12						; size = 4
_iSize$ = 16						; size = 4
_pbuf$ = 20						; size = 4
?MsgFunc_WaterSplash@CHud@@QAAHPBDHPAX@Z PROC		; CHud::MsgFunc_WaterSplash, COMDAT

; 1091 : {

	push	ebp
	mov	ebp, esp
	sub	esp, 108				; 0000006cH
	push	ebx
	push	esi
	push	edi

; 1092 : 	Vector pos;

	lea	ecx, DWORD PTR _pos$[ebp]
	call	??0Vector@@QAE@XZ			; Vector::Vector

; 1093 : 	int Type = 0;

	mov	DWORD PTR _Type$[ebp], 0

; 1094 : 	
; 1095 : 	BEGIN_READ( pszName, pbuf, iSize );

	mov	eax, DWORD PTR _iSize$[ebp]
	push	eax
	mov	ecx, DWORD PTR _pbuf$[ebp]
	push	ecx
	mov	edx, DWORD PTR _pszName$[ebp]
	push	edx
	call	?BEGIN_READ@@YAXPBDPAXH@Z		; BEGIN_READ
	add	esp, 12					; 0000000cH

; 1096 : 	pos.x = READ_COORD();

	call	?READ_COORD@@YAMXZ			; READ_COORD
	fstp	DWORD PTR _pos$[ebp]

; 1097 : 	pos.y = READ_COORD();

	call	?READ_COORD@@YAMXZ			; READ_COORD
	fstp	DWORD PTR _pos$[ebp+4]

; 1098 : 	pos.z = READ_COORD();

	call	?READ_COORD@@YAMXZ			; READ_COORD
	fstp	DWORD PTR _pos$[ebp+8]

; 1099 : 	Type = READ_BYTE();

	call	?READ_BYTE@@YAHXZ			; READ_BYTE
	mov	DWORD PTR _Type$[ebp], eax

; 1100 : 	END_READ();

	call	?END_READ@@YAXXZ			; END_READ

; 1101 : 
; 1102 : 	g_pParticles.WaterSplashParticle( 0, pos );

	lea	eax, DWORD PTR _pos$[ebp]
	push	eax
	push	0
	mov	ecx, OFFSET ?g_pParticles@@3VCQuakePartSystem@@A ; g_pParticles
	call	?WaterSplashParticle@CQuakePartSystem@@QAEXHABVVector@@@Z ; CQuakePartSystem::WaterSplashParticle

; 1103 : 
; 1104 : 	switch( Type )

	mov	eax, DWORD PTR _Type$[ebp]
	mov	DWORD PTR tv75[ebp], eax
	cmp	DWORD PTR tv75[ebp], 1
	je	SHORT $LN7@MsgFunc_Wa
	cmp	DWORD PTR tv75[ebp], 2
	je	SHORT $LN8@MsgFunc_Wa

; 1105 : 	{
; 1106 : 	default:
; 1107 : 	case 0:
; 1108 : 		g_pParticles.CreateEffect( 0, "very_small_splash", pos, g_vecZero );

	push	OFFSET ?g_vecZero@@3VVector@@B		; g_vecZero
	lea	eax, DWORD PTR _pos$[ebp]
	push	eax
	push	OFFSET ??_C@_0BC@KOLGDOKE@very_small_splash?$AA@
	push	0
	mov	ecx, OFFSET ?g_pParticles@@3VCQuakePartSystem@@A ; g_pParticles
	call	?CreateEffect@CQuakePartSystem@@QAEXHPBDABVVector@@1@Z ; CQuakePartSystem::CreateEffect

; 1109 : 		break;

	jmp	SHORT $LN2@MsgFunc_Wa
$LN7@MsgFunc_Wa:

; 1110 : 	case 1:
; 1111 : 		g_pParticles.CreateEffect( 0, "small_splash", pos, g_vecZero );

	push	OFFSET ?g_vecZero@@3VVector@@B		; g_vecZero
	lea	eax, DWORD PTR _pos$[ebp]
	push	eax
	push	OFFSET ??_C@_0N@NPPBAAPG@small_splash?$AA@
	push	0
	mov	ecx, OFFSET ?g_pParticles@@3VCQuakePartSystem@@A ; g_pParticles
	call	?CreateEffect@CQuakePartSystem@@QAEXHPBDABVVector@@1@Z ; CQuakePartSystem::CreateEffect

; 1112 : 		break;

	jmp	SHORT $LN2@MsgFunc_Wa
$LN8@MsgFunc_Wa:

; 1113 : 	case 2:
; 1114 : 		g_pParticles.CreateEffect( 0, "big_splash", pos, g_vecZero );

	push	OFFSET ?g_vecZero@@3VVector@@B		; g_vecZero
	lea	eax, DWORD PTR _pos$[ebp]
	push	eax
	push	OFFSET ??_C@_0L@PHFPLJKM@big_splash?$AA@
	push	0
	mov	ecx, OFFSET ?g_pParticles@@3VCQuakePartSystem@@A ; g_pParticles
	call	?CreateEffect@CQuakePartSystem@@QAEXHPBDABVVector@@1@Z ; CQuakePartSystem::CreateEffect
$LN2@MsgFunc_Wa:

; 1115 : 		break;
; 1116 : 	}
; 1117 : 
; 1118 : 	if( Type == 1 )

	cmp	DWORD PTR _Type$[ebp], 1
	jne	SHORT $LN9@MsgFunc_Wa

; 1119 : 	{
; 1120 : 		if( (tr.viewparams.vieworg - pos).Length() < 100 )

	lea	eax, DWORD PTR _pos$[ebp]
	push	eax
	lea	ecx, DWORD PTR $T2[ebp]
	push	ecx
	mov	ecx, OFFSET ?tr@@3Uref_globals_t@@A+5830656
	call	??GVector@@QBE?AV0@ABV0@@Z		; Vector::operator-
	mov	ecx, eax
	call	?Length@Vector@@QBEMXZ			; Vector::Length
	fstp	DWORD PTR tv220[ebp]
	movss	xmm0, DWORD PTR __real@42c80000
	comiss	xmm0, DWORD PTR tv220[ebp]
	jbe	SHORT $LN11@MsgFunc_Wa

; 1121 : 		{
; 1122 : 			ScreenDrips_OverrideTime = tr.time + 1;

	movsd	xmm0, QWORD PTR ?tr@@3Uref_globals_t@@A+8
	addsd	xmm0, QWORD PTR __real@3ff0000000000000
	cvtsd2ss xmm0, xmm0
	mov	eax, DWORD PTR _this$[ebp]
	movss	DWORD PTR [eax+168], xmm0

; 1123 : 			ScreenDrips_CurVisibility = 0.5f;

	mov	eax, DWORD PTR _this$[ebp]
	movss	xmm0, DWORD PTR __real@3f000000
	movss	DWORD PTR [eax+156], xmm0

; 1124 : 			ScreenDrips_DripIntensity = 0.5f;

	mov	eax, DWORD PTR _this$[ebp]
	movss	xmm0, DWORD PTR __real@3f000000
	movss	DWORD PTR [eax+164], xmm0

; 1125 : 			ScreenDrips_Visible = true;

	mov	eax, DWORD PTR _this$[ebp]
	mov	BYTE PTR [eax+160], 1
$LN11@MsgFunc_Wa:

; 1126 : 		}
; 1127 : 	}

	jmp	SHORT $LN13@MsgFunc_Wa
$LN9@MsgFunc_Wa:

; 1128 : 	else if( Type == 2 )

	cmp	DWORD PTR _Type$[ebp], 2
	jne	SHORT $LN13@MsgFunc_Wa

; 1129 : 	{
; 1130 : 		if( (tr.viewparams.vieworg - pos).Length() < 200 )

	lea	eax, DWORD PTR _pos$[ebp]
	push	eax
	lea	ecx, DWORD PTR $T1[ebp]
	push	ecx
	mov	ecx, OFFSET ?tr@@3Uref_globals_t@@A+5830656
	call	??GVector@@QBE?AV0@ABV0@@Z		; Vector::operator-
	mov	ecx, eax
	call	?Length@Vector@@QBEMXZ			; Vector::Length
	fstp	DWORD PTR tv235[ebp]
	movss	xmm0, DWORD PTR __real@43480000
	comiss	xmm0, DWORD PTR tv235[ebp]
	jbe	SHORT $LN13@MsgFunc_Wa

; 1131 : 		{
; 1132 : 			gHUD.ScreenDrips_OverrideTime = tr.time + 2;

	movsd	xmm0, QWORD PTR ?tr@@3Uref_globals_t@@A+8
	addsd	xmm0, QWORD PTR __real@4000000000000000
	cvtsd2ss xmm0, xmm0
	movss	DWORD PTR ?gHUD@@3VCHud@@A+168, xmm0

; 1133 : 			gHUD.ScreenDrips_CurVisibility = 1.0f;

	movss	xmm0, DWORD PTR __real@3f800000
	movss	DWORD PTR ?gHUD@@3VCHud@@A+156, xmm0

; 1134 : 			gHUD.ScreenDrips_DripIntensity = 0.75f;

	movss	xmm0, DWORD PTR __real@3f400000
	movss	DWORD PTR ?gHUD@@3VCHud@@A+164, xmm0

; 1135 : 			gHUD.ScreenDrips_Visible = true;

	mov	BYTE PTR ?gHUD@@3VCHud@@A+160, 1
$LN13@MsgFunc_Wa:

; 1136 : 		}
; 1137 : 	}
; 1138 : 
; 1139 : 	switch( RANDOM_LONG( 0, 2 ) )

	push	2
	push	0
	call	DWORD PTR ?gEngfuncs@@3Ucl_enginefuncs_s@@A+272
	add	esp, 8
	mov	DWORD PTR tv152[ebp], eax
	cmp	DWORD PTR tv152[ebp], 0
	je	SHORT $LN14@MsgFunc_Wa
	cmp	DWORD PTR tv152[ebp], 1
	je	SHORT $LN15@MsgFunc_Wa
	cmp	DWORD PTR tv152[ebp], 2
	je	$LN16@MsgFunc_Wa
	jmp	$LN4@MsgFunc_Wa
$LN14@MsgFunc_Wa:

; 1140 : 	{
; 1141 : 	case 0: gEngfuncs.pEventAPI->EV_PlaySound( 0, pos, CHAN_STATIC, "items/water_splash/water_splash1.wav", 0.7, 0.8, 0, RANDOM_LONG( 95, 110 ) ); break;

	push	110					; 0000006eH
	push	95					; 0000005fH
	call	DWORD PTR ?gEngfuncs@@3Ucl_enginefuncs_s@@A+272
	add	esp, 8
	push	eax
	push	0
	push	ecx
	movss	xmm0, DWORD PTR __real@3f4ccccd
	movss	DWORD PTR [esp], xmm0
	push	ecx
	movss	xmm0, DWORD PTR __real@3f333333
	movss	DWORD PTR [esp], xmm0
	push	OFFSET ??_C@_0CF@BNBCFGKI@items?1water_splash?1water_splash1@
	push	6
	lea	ecx, DWORD PTR _pos$[ebp]
	call	??BVector@@QAEPAMXZ			; Vector::operator float *
	push	eax
	push	0
	mov	eax, DWORD PTR ?gEngfuncs@@3Ucl_enginefuncs_s@@A+336
	mov	ecx, DWORD PTR [eax+4]
	call	ecx
	add	esp, 32					; 00000020H
	jmp	$LN4@MsgFunc_Wa
$LN15@MsgFunc_Wa:

; 1142 : 	case 1: gEngfuncs.pEventAPI->EV_PlaySound( 0, pos, CHAN_STATIC, "items/water_splash/water_splash2.wav", 0.7, 0.8, 0, RANDOM_LONG( 95, 110 ) ); break;

	push	110					; 0000006eH
	push	95					; 0000005fH
	call	DWORD PTR ?gEngfuncs@@3Ucl_enginefuncs_s@@A+272
	add	esp, 8
	push	eax
	push	0
	push	ecx
	movss	xmm0, DWORD PTR __real@3f4ccccd
	movss	DWORD PTR [esp], xmm0
	push	ecx
	movss	xmm0, DWORD PTR __real@3f333333
	movss	DWORD PTR [esp], xmm0
	push	OFFSET ??_C@_0CF@JLIGCEAG@items?1water_splash?1water_splash2@
	push	6
	lea	ecx, DWORD PTR _pos$[ebp]
	call	??BVector@@QAEPAMXZ			; Vector::operator float *
	push	eax
	push	0
	mov	eax, DWORD PTR ?gEngfuncs@@3Ucl_enginefuncs_s@@A+336
	mov	ecx, DWORD PTR [eax+4]
	call	ecx
	add	esp, 32					; 00000020H
	jmp	SHORT $LN4@MsgFunc_Wa
$LN16@MsgFunc_Wa:

; 1143 : 	case 2: gEngfuncs.pEventAPI->EV_PlaySound( 0, pos, CHAN_STATIC, "items/water_splash/water_splash3.wav", 0.7, 0.8, 0, RANDOM_LONG( 95, 110 ) ); break;

	push	110					; 0000006eH
	push	95					; 0000005fH
	call	DWORD PTR ?gEngfuncs@@3Ucl_enginefuncs_s@@A+272
	add	esp, 8
	push	eax
	push	0
	push	ecx
	movss	xmm0, DWORD PTR __real@3f4ccccd
	movss	DWORD PTR [esp], xmm0
	push	ecx
	movss	xmm0, DWORD PTR __real@3f333333
	movss	DWORD PTR [esp], xmm0
	push	OFFSET ??_C@_0CF@FANKPHKD@items?1water_splash?1water_splash3@
	push	6
	lea	ecx, DWORD PTR _pos$[ebp]
	call	??BVector@@QAEPAMXZ			; Vector::operator float *
	push	eax
	push	0
	mov	eax, DWORD PTR ?gEngfuncs@@3Ucl_enginefuncs_s@@A+336
	mov	ecx, DWORD PTR [eax+4]
	call	ecx
	add	esp, 32					; 00000020H
$LN4@MsgFunc_Wa:

; 1144 : 	}
; 1145 : 
; 1146 : 	/* ONeiLL
; 1147 : 	int iWaterSplash;
; 1148 : 	TEMPENTITY *pTemp;
; 1149 : 	iWaterSplash = gEngfuncs.pEventAPI->EV_FindModelIndex(  "sprites/effects/waterring2.spr" ); // horizontal splash
; 1150 : 	pTemp = gEngfuncs.pEfxAPI->R_TempSprite( Vector(x,y,z), Vector( 0, 0, 0 ), RANDOM_FLOAT( 1, 1.5 ), iWaterSplash, kRenderTransAdd, 0, 1.0, 2, FTENT_SPRANIMATE );
; 1151 : 
; 1152 : 	if( pTemp )
; 1153 : 	{
; 1154 : 		pTemp->fadeSpeed = 60.0;
; 1155 : 		pTemp->entity.curstate.framerate = RANDOM_FLOAT( 45, 65 );
; 1156 : 		pTemp->entity.curstate.renderamt = 150;
; 1157 : 		pTemp->entity.curstate.rendercolor.r = 255;
; 1158 : 		pTemp->entity.curstate.rendercolor.g = 255;
; 1159 : 		pTemp->entity.curstate.rendercolor.b = 255;
; 1160 : 		pTemp->entity.angles = Vector( 90, 0, 0 );
; 1161 : 	}
; 1162 : 
; 1163 : 	iWaterSplash = gEngfuncs.pEventAPI->EV_FindModelIndex( "sprites/effects/wsplash3.spr" ); // drops
; 1164 : 	pTemp = gEngfuncs.pEfxAPI->R_TempSprite( Vector( x, y, z ), Vector( 0, 0, 0 ), RANDOM_FLOAT( 0.5, 1.0 ), iWaterSplash, kRenderTransAdd, 0, 1.0, 1, FTENT_SPRANIMATE );
; 1165 : 	if( pTemp )
; 1166 : 	{
; 1167 : 		pTemp->fadeSpeed = 60.0;
; 1168 : 		pTemp->entity.curstate.framerate = RANDOM_FLOAT( 40,55 );
; 1169 : 		pTemp->entity.curstate.renderamt = 150;
; 1170 : 		pTemp->entity.curstate.rendercolor.r = 255;
; 1171 : 		pTemp->entity.curstate.rendercolor.g = 255;
; 1172 : 		pTemp->entity.curstate.rendercolor.b = 255;
; 1173 : 	}*/
; 1174 : 	
; 1175 : 	return 1;

	mov	eax, 1

; 1176 : }

	pop	edi
	pop	esi
	pop	ebx
	mov	esp, ebp
	pop	ebp
	ret	0
?MsgFunc_WaterSplash@CHud@@QAAHPBDHPAX@Z ENDP		; CHud::MsgFunc_WaterSplash
_TEXT	ENDS
; Function compile flags: /Odtp /ZI
; File d:\!diffusion 2020\source code 2022\client-server\client\hud_msg.cpp
;	COMDAT ?MsgFunc_TempEnt@CHud@@QAAHPBDHPAX@Z
_TEXT	SEGMENT
tv824 = -672						; size = 4
tv806 = -672						; size = 4
tv726 = -672						; size = 4
tv561 = -672						; size = 4
tv423 = -672						; size = 4
tv172 = -672						; size = 4
tv168 = -672						; size = 4
tv164 = -672						; size = 4
tv160 = -672						; size = 4
tv156 = -672						; size = 4
tv152 = -672						; size = 4
tv148 = -672						; size = 4
tv144 = -672						; size = 4
tv140 = -672						; size = 4
tv136 = -672						; size = 4
tv132 = -672						; size = 4
tv128 = -672						; size = 4
tv72 = -672						; size = 4
$T1 = -668						; size = 12
$T2 = -656						; size = 12
$T3 = -644						; size = 12
$T4 = -632						; size = 12
$T5 = -620						; size = 4
$T6 = -616						; size = 12
$T7 = -604						; size = 12
_ach_number$8 = -444					; size = 4
_WaterTrail$9 = -440					; size = 4
_bullet_p$10 = -436					; size = 172
_gunshot_particle$11 = -264				; size = 4
_szbuffer$12 = -260					; size = 64
_chTextureType$13 = -193				; size = 1
_decal_tex$14 = -192					; size = 4
_Shadows$15 = -185					; size = 1
_dietime$16 = -184					; size = 4
_dl$17 = -180						; size = 4
_posRand$18 = -176					; size = 4
_Speed$19 = -172					; size = 4
_Count$20 = -168					; size = 4
_snd$21 = -164						; size = 4
_trace$ = -160						; size = 68
_Life$ = -92						; size = 4
_Framerate$ = -88					; size = 4
_Scale$ = -84						; size = 4
_Weapon$ = -80						; size = 4
_Flags$ = -76						; size = 4
_Mode$ = -72						; size = 4
_pTemp$ = -68						; size = 4
_decalIndex$ = -64					; size = 4
_entityIndex$ = -60					; size = 4
_Value$ = -56						; size = 4
_Color$ = -52						; size = 4
_Model$ = -48						; size = 4
_Message$ = -44						; size = 4
_pos3$ = -40						; size = 12
_pos2$ = -28						; size = 12
_pos$ = -16						; size = 12
__$ArrayPad$ = -4					; size = 4
_this$ = 8						; size = 4
_pszName$ = 12						; size = 4
_iSize$ = 16						; size = 4
_pbuf$ = 20						; size = 4
?MsgFunc_TempEnt@CHud@@QAAHPBDHPAX@Z PROC		; CHud::MsgFunc_TempEnt, COMDAT

; 700  : {

	push	ebp
	mov	ebp, esp
	sub	esp, 672				; 000002a0H
	mov	eax, DWORD PTR ___security_cookie
	xor	eax, ebp
	mov	DWORD PTR __$ArrayPad$[ebp], eax
	push	ebx
	push	esi
	push	edi

; 701  : 	Vector pos, pos2, pos3;

	lea	ecx, DWORD PTR _pos$[ebp]
	call	??0Vector@@QAE@XZ			; Vector::Vector
	lea	ecx, DWORD PTR _pos2$[ebp]
	call	??0Vector@@QAE@XZ			; Vector::Vector
	lea	ecx, DWORD PTR _pos3$[ebp]
	call	??0Vector@@QAE@XZ			; Vector::Vector

; 702  : 	int Message, Model, Color, Value;
; 703  : 	int entityIndex, decalIndex;
; 704  : 	TEMPENTITY *pTemp;
; 705  : 	int Mode, Flags, Weapon;
; 706  : 	float Scale, Framerate, Life;
; 707  : 	pmtrace_t trace;

	lea	ecx, DWORD PTR _trace$[ebp]
	call	??0pmtrace_s@@QAE@XZ

; 708  : 	
; 709  : 	BEGIN_READ( pszName, pbuf, iSize );

	mov	eax, DWORD PTR _iSize$[ebp]
	push	eax
	mov	ecx, DWORD PTR _pbuf$[ebp]
	push	ecx
	mov	edx, DWORD PTR _pszName$[ebp]
	push	edx
	call	?BEGIN_READ@@YAXPBDPAXH@Z		; BEGIN_READ
	add	esp, 12					; 0000000cH

; 710  : 
; 711  : 	Message = READ_BYTE();

	call	?READ_BYTE@@YAHXZ			; READ_BYTE
	mov	DWORD PTR _Message$[ebp], eax

; 712  : 
; 713  : 	switch( Message )

	mov	eax, DWORD PTR _Message$[ebp]
	mov	DWORD PTR tv72[ebp], eax
	mov	ecx, DWORD PTR tv72[ebp]
	sub	ecx, 3
	mov	DWORD PTR tv72[ebp], ecx
	cmp	DWORD PTR tv72[ebp], 134		; 00000086H
	ja	$LN2@MsgFunc_Te
	mov	edx, DWORD PTR tv72[ebp]
	movzx	eax, BYTE PTR $LN95@MsgFunc_Te[edx]
	jmp	DWORD PTR $LN97@MsgFunc_Te[eax*4]
$LN10@MsgFunc_Te:

; 714  : 	{
; 715  : 	case TE_CLIENTSOUND:
; 716  : 	{
; 717  : 		pos.x = READ_COORD();

	call	?READ_COORD@@YAMXZ			; READ_COORD
	fstp	DWORD PTR _pos$[ebp]

; 718  : 		pos.y = READ_COORD();

	call	?READ_COORD@@YAMXZ			; READ_COORD
	fstp	DWORD PTR _pos$[ebp+4]

; 719  : 		pos.z = READ_COORD();

	call	?READ_COORD@@YAMXZ			; READ_COORD
	fstp	DWORD PTR _pos$[ebp+8]

; 720  : 		entityIndex = READ_SHORT();

	call	?READ_SHORT@@YAHXZ			; READ_SHORT
	mov	DWORD PTR _entityIndex$[ebp], eax

; 721  : 		int snd = READ_BYTE();

	call	?READ_BYTE@@YAHXZ			; READ_BYTE
	mov	DWORD PTR _snd$21[ebp], eax

; 722  : 		Mode = READ_BYTE();

	call	?READ_BYTE@@YAHXZ			; READ_BYTE
	mov	DWORD PTR _Mode$[ebp], eax

; 723  : 		Flags = READ_BYTE(); // low ammo volume

	call	?READ_BYTE@@YAHXZ			; READ_BYTE
	mov	DWORD PTR _Flags$[ebp], eax

; 724  : 		R_ClientSound( pos, entityIndex, snd, Mode, Flags );

	mov	eax, DWORD PTR _Flags$[ebp]
	push	eax
	mov	ecx, DWORD PTR _Mode$[ebp]
	push	ecx
	mov	edx, DWORD PTR _snd$21[ebp]
	push	edx
	mov	eax, DWORD PTR _entityIndex$[ebp]
	push	eax
	sub	esp, 12					; 0000000cH
	mov	ecx, esp
	lea	edx, DWORD PTR _pos$[ebp]
	push	edx
	call	??0Vector@@QAE@ABV0@@Z			; Vector::Vector
	call	?R_ClientSound@@YAXVVector@@HHHH@Z	; R_ClientSound
	add	esp, 28					; 0000001cH

; 725  : 	}
; 726  : 	break;

	jmp	$LN2@MsgFunc_Te
$LN11@MsgFunc_Te:

; 727  : 
; 728  : 	case TE_PLAYERPARAMS: // hack to avoid creating new message :)
; 729  : 	{
; 730  : 		gHUD.CanJump = (READ_BYTE() > 0);

	call	?READ_BYTE@@YAHXZ			; READ_BYTE
	test	eax, eax
	jle	SHORT $LN65@MsgFunc_Te
	mov	DWORD PTR tv128[ebp], 1
	jmp	SHORT $LN66@MsgFunc_Te
$LN65@MsgFunc_Te:
	mov	DWORD PTR tv128[ebp], 0
$LN66@MsgFunc_Te:
	mov	al, BYTE PTR tv128[ebp]
	mov	BYTE PTR ?gHUD@@3VCHud@@A+115, al

; 731  : 		gHUD.CanSprint = (READ_BYTE() > 0);

	call	?READ_BYTE@@YAHXZ			; READ_BYTE
	test	eax, eax
	jle	SHORT $LN67@MsgFunc_Te
	mov	DWORD PTR tv132[ebp], 1
	jmp	SHORT $LN68@MsgFunc_Te
$LN67@MsgFunc_Te:
	mov	DWORD PTR tv132[ebp], 0
$LN68@MsgFunc_Te:
	mov	al, BYTE PTR tv132[ebp]
	mov	BYTE PTR ?gHUD@@3VCHud@@A+116, al

; 732  : 		gHUD.CanMove = (READ_BYTE() > 0);

	call	?READ_BYTE@@YAHXZ			; READ_BYTE
	test	eax, eax
	jle	SHORT $LN69@MsgFunc_Te
	mov	DWORD PTR tv136[ebp], 1
	jmp	SHORT $LN70@MsgFunc_Te
$LN69@MsgFunc_Te:
	mov	DWORD PTR tv136[ebp], 0
$LN70@MsgFunc_Te:
	mov	al, BYTE PTR tv136[ebp]
	mov	BYTE PTR ?gHUD@@3VCHud@@A+117, al

; 733  : 		gHUD.HUDSuitOffline = (READ_BYTE() > 0);

	call	?READ_BYTE@@YAHXZ			; READ_BYTE
	test	eax, eax
	jle	SHORT $LN71@MsgFunc_Te
	mov	DWORD PTR tv140[ebp], 1
	jmp	SHORT $LN72@MsgFunc_Te
$LN71@MsgFunc_Te:
	mov	DWORD PTR tv140[ebp], 0
$LN72@MsgFunc_Te:
	mov	al, BYTE PTR tv140[ebp]
	mov	BYTE PTR ?gHUD@@3VCHud@@A+118, al

; 734  : 		gHUD.CanSelectEmptyWeapon = (READ_BYTE() > 0);

	call	?READ_BYTE@@YAHXZ			; READ_BYTE
	test	eax, eax
	jle	SHORT $LN73@MsgFunc_Te
	mov	DWORD PTR tv144[ebp], 1
	jmp	SHORT $LN74@MsgFunc_Te
$LN73@MsgFunc_Te:
	mov	DWORD PTR tv144[ebp], 0
$LN74@MsgFunc_Te:
	mov	al, BYTE PTR tv144[ebp]
	mov	BYTE PTR ?gHUD@@3VCHud@@A+119, al

; 735  : 		gHUD.InCar = (READ_BYTE() > 0);

	call	?READ_BYTE@@YAHXZ			; READ_BYTE
	test	eax, eax
	jle	SHORT $LN75@MsgFunc_Te
	mov	DWORD PTR tv148[ebp], 1
	jmp	SHORT $LN76@MsgFunc_Te
$LN75@MsgFunc_Te:
	mov	DWORD PTR tv148[ebp], 0
$LN76@MsgFunc_Te:
	mov	al, BYTE PTR tv148[ebp]
	mov	BYTE PTR ?gHUD@@3VCHud@@A+120, al

; 736  : 		gHUD.BreathingEffect = (READ_BYTE() > 0);

	call	?READ_BYTE@@YAHXZ			; READ_BYTE
	test	eax, eax
	jle	SHORT $LN77@MsgFunc_Te
	mov	DWORD PTR tv152[ebp], 1
	jmp	SHORT $LN78@MsgFunc_Te
$LN77@MsgFunc_Te:
	mov	DWORD PTR tv152[ebp], 0
$LN78@MsgFunc_Te:
	mov	al, BYTE PTR tv152[ebp]
	mov	BYTE PTR ?gHUD@@3VCHud@@A+136, al

; 737  : 		gHUD.WigglingEffect = (READ_BYTE() > 0);

	call	?READ_BYTE@@YAHXZ			; READ_BYTE
	test	eax, eax
	jle	SHORT $LN79@MsgFunc_Te
	mov	DWORD PTR tv156[ebp], 1
	jmp	SHORT $LN80@MsgFunc_Te
$LN79@MsgFunc_Te:
	mov	DWORD PTR tv156[ebp], 0
$LN80@MsgFunc_Te:
	mov	al, BYTE PTR tv156[ebp]
	mov	BYTE PTR ?gHUD@@3VCHud@@A+137, al

; 738  : 		gHUD.ShieldOn = (READ_BYTE() > 0);

	call	?READ_BYTE@@YAHXZ			; READ_BYTE
	test	eax, eax
	jle	SHORT $LN81@MsgFunc_Te
	mov	DWORD PTR tv160[ebp], 1
	jmp	SHORT $LN82@MsgFunc_Te
$LN81@MsgFunc_Te:
	mov	DWORD PTR tv160[ebp], 0
$LN82@MsgFunc_Te:
	mov	al, BYTE PTR tv160[ebp]
	mov	BYTE PTR ?gHUD@@3VCHud@@A+138, al

; 739  : 		gHUD.PlayingDrums = (READ_BYTE() > 0);

	call	?READ_BYTE@@YAHXZ			; READ_BYTE
	test	eax, eax
	jle	SHORT $LN83@MsgFunc_Te
	mov	DWORD PTR tv164[ebp], 1
	jmp	SHORT $LN84@MsgFunc_Te
$LN83@MsgFunc_Te:
	mov	DWORD PTR tv164[ebp], 0
$LN84@MsgFunc_Te:
	mov	al, BYTE PTR tv164[ebp]
	mov	BYTE PTR ?gHUD@@3VCHud@@A+121, al

; 740  : 		gHUD.WeaponLowered = (READ_BYTE() > 0);

	call	?READ_BYTE@@YAHXZ			; READ_BYTE
	test	eax, eax
	jle	SHORT $LN85@MsgFunc_Te
	mov	DWORD PTR tv168[ebp], 1
	jmp	SHORT $LN86@MsgFunc_Te
$LN85@MsgFunc_Te:
	mov	DWORD PTR tv168[ebp], 0
$LN86@MsgFunc_Te:
	mov	al, BYTE PTR tv168[ebp]
	mov	BYTE PTR ?gHUD@@3VCHud@@A+122, al

; 741  : 		gHUD.CanShoot = (READ_BYTE() > 0);

	call	?READ_BYTE@@YAHXZ			; READ_BYTE
	test	eax, eax
	jle	SHORT $LN87@MsgFunc_Te
	mov	DWORD PTR tv172[ebp], 1
	jmp	SHORT $LN88@MsgFunc_Te
$LN87@MsgFunc_Te:
	mov	DWORD PTR tv172[ebp], 0
$LN88@MsgFunc_Te:
	mov	al, BYTE PTR tv172[ebp]
	mov	BYTE PTR ?gHUD@@3VCHud@@A+128, al

; 742  : 		gHUD.DrunkLevel = READ_BYTE();

	call	?READ_BYTE@@YAHXZ			; READ_BYTE
	mov	DWORD PTR ?gHUD@@3VCHud@@A+124, eax

; 743  : 
; 744  : 		if( gHUD.ShieldOn ) // play turn on sound

	movzx	eax, BYTE PTR ?gHUD@@3VCHud@@A+138
	test	eax, eax
	je	SHORT $LN12@MsgFunc_Te

; 745  : 			gEngfuncs.pEventAPI->EV_PlaySound( gEngfuncs.GetLocalPlayer()->index, NULL, CHAN_STATIC, "player/shield_on.wav", VOL_NORM, 0, 0, PITCH_NORM );

	push	100					; 00000064H
	push	0
	push	ecx
	xorps	xmm0, xmm0
	movss	DWORD PTR [esp], xmm0
	push	ecx
	movss	xmm0, DWORD PTR __real@3f800000
	movss	DWORD PTR [esp], xmm0
	push	OFFSET ??_C@_0BF@DHMMJAO@player?1shield_on?4wav?$AA@
	push	6
	push	0
	call	DWORD PTR ?gEngfuncs@@3Ucl_enginefuncs_s@@A+204
	mov	eax, DWORD PTR [eax]
	push	eax
	mov	ecx, DWORD PTR ?gEngfuncs@@3Ucl_enginefuncs_s@@A+336
	mov	edx, DWORD PTR [ecx+4]
	call	edx
	add	esp, 32					; 00000020H
$LN12@MsgFunc_Te:

; 746  : 	}
; 747  : 	break;

	jmp	$LN2@MsgFunc_Te
$LN13@MsgFunc_Te:

; 748  : 
; 749  : 	case TE_BLOODSPRITE:
; 750  : 	{
; 751  : 		pos.x = READ_COORD();

	call	?READ_COORD@@YAMXZ			; READ_COORD
	fstp	DWORD PTR _pos$[ebp]

; 752  : 		pos.y = READ_COORD();

	call	?READ_COORD@@YAMXZ			; READ_COORD
	fstp	DWORD PTR _pos$[ebp+4]

; 753  : 		pos.z = READ_COORD();

	call	?READ_COORD@@YAMXZ			; READ_COORD
	fstp	DWORD PTR _pos$[ebp+8]

; 754  : 		pos2.x = READ_BYTE(); // color

	call	?READ_BYTE@@YAHXZ			; READ_BYTE
	cvtsi2ss xmm0, eax
	movss	DWORD PTR _pos2$[ebp], xmm0

; 755  : 		pos2.y = READ_BYTE();

	call	?READ_BYTE@@YAHXZ			; READ_BYTE
	cvtsi2ss xmm0, eax
	movss	DWORD PTR _pos2$[ebp+4], xmm0

; 756  : 		pos2.z = READ_BYTE();

	call	?READ_BYTE@@YAHXZ			; READ_BYTE
	cvtsi2ss xmm0, eax
	movss	DWORD PTR _pos2$[ebp+8], xmm0

; 757  : 		pos3.x = READ_COORD(); // direction

	call	?READ_COORD@@YAMXZ			; READ_COORD
	fstp	DWORD PTR _pos3$[ebp]

; 758  : 		pos3.y = READ_COORD();

	call	?READ_COORD@@YAMXZ			; READ_COORD
	fstp	DWORD PTR _pos3$[ebp+4]

; 759  : 		pos3.z = READ_COORD();

	call	?READ_COORD@@YAMXZ			; READ_COORD
	fstp	DWORD PTR _pos3$[ebp+8]

; 760  : 		Scale = READ_BYTE();

	call	?READ_BYTE@@YAHXZ			; READ_BYTE
	cvtsi2ss xmm0, eax
	movss	DWORD PTR _Scale$[ebp], xmm0

; 761  : 		g_pParticles.BloodParticle( 0, pos, Scale, pos2, pos3 );

	sub	esp, 12					; 0000000cH
	mov	ecx, esp
	lea	eax, DWORD PTR _pos3$[ebp]
	push	eax
	call	??0Vector@@QAE@ABV0@@Z			; Vector::Vector
	sub	esp, 12					; 0000000cH
	mov	ecx, esp
	lea	edx, DWORD PTR _pos2$[ebp]
	push	edx
	call	??0Vector@@QAE@ABV0@@Z			; Vector::Vector
	push	ecx
	movss	xmm0, DWORD PTR _Scale$[ebp]
	movss	DWORD PTR [esp], xmm0
	lea	eax, DWORD PTR _pos$[ebp]
	push	eax
	push	0
	mov	ecx, OFFSET ?g_pParticles@@3VCQuakePartSystem@@A ; g_pParticles
	call	?BloodParticle@CQuakePartSystem@@QAEXHABVVector@@MV2@1@Z ; CQuakePartSystem::BloodParticle

; 762  : 	}
; 763  : 	break;

	jmp	$LN2@MsgFunc_Te
$LN14@MsgFunc_Te:

; 764  : 
; 765  : 	case TE_CARPARAMS:
; 766  : 	{
; 767  : 		gHUD.m_ScreenEffects.Gear = READ_BYTE();

	call	?READ_BYTE@@YAHXZ			; READ_BYTE
	mov	DWORD PTR ?gHUD@@3VCHud@@A+7792, eax

; 768  : 	}
; 769  : 	break;

	jmp	$LN2@MsgFunc_Te
$LN15@MsgFunc_Te:

; 770  : 
; 771  : 	case TE_SMOKE:
; 772  : 	{
; 773  : 		pos.x = READ_COORD();

	call	?READ_COORD@@YAMXZ			; READ_COORD
	fstp	DWORD PTR _pos$[ebp]

; 774  : 		pos.y = READ_COORD();

	call	?READ_COORD@@YAMXZ			; READ_COORD
	fstp	DWORD PTR _pos$[ebp+4]

; 775  : 		pos.z = READ_COORD();

	call	?READ_COORD@@YAMXZ			; READ_COORD
	fstp	DWORD PTR _pos$[ebp+8]

; 776  : 		Model = READ_SHORT();

	call	?READ_SHORT@@YAHXZ			; READ_SHORT
	mov	DWORD PTR _Model$[ebp], eax

; 777  : 		Scale = READ_BYTE() * 0.1;

	call	?READ_BYTE@@YAHXZ			; READ_BYTE
	cvtsi2sd xmm0, eax
	mulsd	xmm0, QWORD PTR __real@3fb999999999999a
	cvtsd2ss xmm0, xmm0
	movss	DWORD PTR _Scale$[ebp], xmm0

; 778  : 		Framerate = READ_BYTE();

	call	?READ_BYTE@@YAHXZ			; READ_BYTE
	cvtsi2ss xmm0, eax
	movss	DWORD PTR _Framerate$[ebp], xmm0

; 779  : 		g_pParticles.SmokeParticles( 0, pos, 1, 0, Scale * 2 );

	movss	xmm0, DWORD PTR _Scale$[ebp]
	mulss	xmm0, DWORD PTR __real@40000000
	push	ecx
	movss	DWORD PTR [esp], xmm0
	push	ecx
	xorps	xmm0, xmm0
	movss	DWORD PTR [esp], xmm0
	push	1
	lea	eax, DWORD PTR _pos$[ebp]
	push	eax
	push	0
	mov	ecx, OFFSET ?g_pParticles@@3VCQuakePartSystem@@A ; g_pParticles
	call	?SmokeParticles@CQuakePartSystem@@QAEXHABVVector@@HMM@Z ; CQuakePartSystem::SmokeParticles

; 780  : 		// old
; 781  : 	//	pTemp = gEngfuncs.pEfxAPI->R_DefaultSprite( pos, Model, Framerate );
; 782  : 	//	R_Sprite_Smoke( pTemp, Scale, 0 );
; 783  : 	}
; 784  : 	break;

	jmp	$LN2@MsgFunc_Te
$LN16@MsgFunc_Te:

; 785  : 
; 786  : 	case TE_SMOKEGRENADE:
; 787  : 	{
; 788  : 		pos.x = READ_COORD();

	call	?READ_COORD@@YAMXZ			; READ_COORD
	fstp	DWORD PTR _pos$[ebp]

; 789  : 		pos.y = READ_COORD();

	call	?READ_COORD@@YAMXZ			; READ_COORD
	fstp	DWORD PTR _pos$[ebp+4]

; 790  : 		pos.z = READ_COORD();

	call	?READ_COORD@@YAMXZ			; READ_COORD
	fstp	DWORD PTR _pos$[ebp+8]

; 791  : 		int Count = READ_BYTE();

	call	?READ_BYTE@@YAHXZ			; READ_BYTE
	mov	DWORD PTR _Count$20[ebp], eax

; 792  : 		float Speed = READ_BYTE() * 0.01; // speed

	call	?READ_BYTE@@YAHXZ			; READ_BYTE
	cvtsi2sd xmm0, eax
	mulsd	xmm0, QWORD PTR __real@3f847ae147ae147b
	cvtsd2ss xmm0, xmm0
	movss	DWORD PTR _Speed$19[ebp], xmm0

; 793  : 		Scale = READ_BYTE();

	call	?READ_BYTE@@YAHXZ			; READ_BYTE
	cvtsi2ss xmm0, eax
	movss	DWORD PTR _Scale$[ebp], xmm0

; 794  : 		int posRand = READ_BYTE();

	call	?READ_BYTE@@YAHXZ			; READ_BYTE
	mov	DWORD PTR _posRand$18[ebp], eax

; 795  : 		g_pParticles.Smoke( 0, 0, pos, g_vecZero, Count, Speed, Scale, posRand );

	push	ecx
	movss	xmm0, DWORD PTR __real@3f000000
	movss	DWORD PTR [esp], xmm0
	push	ecx
	xorps	xmm0, xmm0
	movss	DWORD PTR [esp], xmm0
	sub	esp, 12					; 0000000cH
	mov	ecx, esp
	push	ecx
	movss	xmm0, DWORD PTR __real@3f800000
	movss	DWORD PTR [esp], xmm0
	push	ecx
	movss	xmm0, DWORD PTR __real@3f800000
	movss	DWORD PTR [esp], xmm0
	push	ecx
	movss	xmm0, DWORD PTR __real@3f800000
	movss	DWORD PTR [esp], xmm0
	call	??0Vector@@QAE@MMM@Z			; Vector::Vector
	push	ecx
	xorps	xmm0, xmm0
	movss	DWORD PTR [esp], xmm0
	cvtsi2ss xmm0, DWORD PTR _posRand$18[ebp]
	push	ecx
	movss	DWORD PTR [esp], xmm0
	push	ecx
	movss	xmm0, DWORD PTR _Scale$[ebp]
	movss	DWORD PTR [esp], xmm0
	push	ecx
	movss	xmm0, DWORD PTR _Speed$19[ebp]
	movss	DWORD PTR [esp], xmm0
	mov	eax, DWORD PTR _Count$20[ebp]
	push	eax
	push	OFFSET ?g_vecZero@@3VVector@@B		; g_vecZero
	lea	ecx, DWORD PTR _pos$[ebp]
	push	ecx
	push	0
	push	0
	mov	ecx, OFFSET ?g_pParticles@@3VCQuakePartSystem@@A ; g_pParticles
	call	?Smoke@CQuakePartSystem@@QAEXHHABVVector@@0HMMMMV2@MM@Z ; CQuakePartSystem::Smoke

; 796  : 		gEngfuncs.pEventAPI->EV_PlaySound( 0, pos, CHAN_STATIC, "weapons/smoke_grenade.wav", 1, ATTN_NORM, 0, PITCH_NORM );

	push	100					; 00000064H
	push	0
	push	ecx
	movss	xmm0, DWORD PTR __real@3f4ccccd
	movss	DWORD PTR [esp], xmm0
	push	ecx
	movss	xmm0, DWORD PTR __real@3f800000
	movss	DWORD PTR [esp], xmm0
	push	OFFSET ??_C@_0BK@NNEEBMBE@weapons?1smoke_grenade?4wav?$AA@
	push	6
	lea	ecx, DWORD PTR _pos$[ebp]
	call	??BVector@@QAEPAMXZ			; Vector::operator float *
	push	eax
	push	0
	mov	eax, DWORD PTR ?gEngfuncs@@3Ucl_enginefuncs_s@@A+336
	mov	ecx, DWORD PTR [eax+4]
	call	ecx
	add	esp, 32					; 00000020H

; 797  : 	}
; 798  : 	break;

	jmp	$LN2@MsgFunc_Te
$LN17@MsgFunc_Te:

; 799  : 
; 800  : 	case TE_FIRE:
; 801  : 	{
; 802  : 		pos.x = READ_COORD();

	call	?READ_COORD@@YAMXZ			; READ_COORD
	fstp	DWORD PTR _pos$[ebp]

; 803  : 		pos.y = READ_COORD();

	call	?READ_COORD@@YAMXZ			; READ_COORD
	fstp	DWORD PTR _pos$[ebp+4]

; 804  : 		pos.z = READ_COORD();

	call	?READ_COORD@@YAMXZ			; READ_COORD
	fstp	DWORD PTR _pos$[ebp+8]

; 805  : 		Model = READ_SHORT();

	call	?READ_SHORT@@YAHXZ			; READ_SHORT
	mov	DWORD PTR _Model$[ebp], eax

; 806  : 		Scale = READ_BYTE() * 0.1;

	call	?READ_BYTE@@YAHXZ			; READ_BYTE
	cvtsi2sd xmm0, eax
	mulsd	xmm0, QWORD PTR __real@3fb999999999999a
	cvtsd2ss xmm0, xmm0
	movss	DWORD PTR _Scale$[ebp], xmm0

; 807  : 		Framerate = READ_BYTE();

	call	?READ_BYTE@@YAHXZ			; READ_BYTE
	cvtsi2ss xmm0, eax
	movss	DWORD PTR _Framerate$[ebp], xmm0

; 808  : 		pTemp = gEngfuncs.pEfxAPI->R_DefaultSprite( pos, Model, Framerate );

	push	ecx
	movss	xmm0, DWORD PTR _Framerate$[ebp]
	movss	DWORD PTR [esp], xmm0
	mov	eax, DWORD PTR _Model$[ebp]
	push	eax
	lea	ecx, DWORD PTR _pos$[ebp]
	call	??BVector@@QAEPAMXZ			; Vector::operator float *
	push	eax
	mov	ecx, DWORD PTR ?gEngfuncs@@3Ucl_enginefuncs_s@@A+332
	mov	edx, DWORD PTR [ecx+196]
	call	edx
	add	esp, 12					; 0000000cH
	mov	DWORD PTR _pTemp$[ebp], eax

; 809  : 		R_Sprite_Smoke( pTemp, Scale, 1 );

	push	1
	push	ecx
	movss	xmm0, DWORD PTR _Scale$[ebp]
	movss	DWORD PTR [esp], xmm0
	mov	eax, DWORD PTR _pTemp$[ebp]
	push	eax
	call	?R_Sprite_Smoke@@YAXPAUtempent_s@@MH@Z	; R_Sprite_Smoke
	add	esp, 12					; 0000000cH

; 810  : 	//	if( g_pParticles.m_pAllowParticles->value > 0 )
; 811  : 			g_pParticles.SmokeParticles( 0, pos, 1, 0.5 ); // doing smoke anyway, too :)

	push	ecx
	xorps	xmm0, xmm0
	movss	DWORD PTR [esp], xmm0
	push	ecx
	movss	xmm0, DWORD PTR __real@3f000000
	movss	DWORD PTR [esp], xmm0
	push	1
	lea	eax, DWORD PTR _pos$[ebp]
	push	eax
	push	0
	mov	ecx, OFFSET ?g_pParticles@@3VCQuakePartSystem@@A ; g_pParticles
	call	?SmokeParticles@CQuakePartSystem@@QAEXHABVVector@@HMM@Z ; CQuakePartSystem::SmokeParticles

; 812  : 	}
; 813  : 	break;

	jmp	$LN2@MsgFunc_Te
$LN18@MsgFunc_Te:

; 814  : 
; 815  : 	case TE_DLIGHT:
; 816  : 	{
; 817  : 		plight_t *dl = CL_AllocPlight( 0 );

	push	0
	call	?CL_AllocPlight@@YAPAUplight_s@@H@Z	; CL_AllocPlight
	add	esp, 4
	mov	DWORD PTR _dl$17[ebp], eax

; 818  : 
; 819  : 		pos.x = READ_COORD();

	call	?READ_COORD@@YAMXZ			; READ_COORD
	fstp	DWORD PTR _pos$[ebp]

; 820  : 		pos.y = READ_COORD();

	call	?READ_COORD@@YAMXZ			; READ_COORD
	fstp	DWORD PTR _pos$[ebp+4]

; 821  : 		pos.z = READ_COORD();

	call	?READ_COORD@@YAMXZ			; READ_COORD
	fstp	DWORD PTR _pos$[ebp+8]

; 822  : 
; 823  : 		dl->radius = (float)(READ_BYTE() * 10.0f);

	call	?READ_BYTE@@YAHXZ			; READ_BYTE
	cvtsi2ss xmm0, eax
	mulss	xmm0, DWORD PTR __real@41200000
	mov	eax, DWORD PTR _dl$17[ebp]
	movss	DWORD PTR [eax+24], xmm0

; 824  : 
; 825  : 		dl->color.r = READ_BYTE();

	call	?READ_BYTE@@YAHXZ			; READ_BYTE
	mov	ecx, DWORD PTR _dl$17[ebp]
	mov	BYTE PTR [ecx+28], al

; 826  : 		dl->color.g = READ_BYTE();

	call	?READ_BYTE@@YAHXZ			; READ_BYTE
	mov	ecx, DWORD PTR _dl$17[ebp]
	mov	BYTE PTR [ecx+29], al

; 827  : 		dl->color.b = READ_BYTE();

	call	?READ_BYTE@@YAHXZ			; READ_BYTE
	mov	ecx, DWORD PTR _dl$17[ebp]
	mov	BYTE PTR [ecx+30], al

; 828  : 
; 829  : 		float dietime = (float)(READ_BYTE() * 0.1f);

	call	?READ_BYTE@@YAHXZ			; READ_BYTE
	cvtsi2ss xmm0, eax
	mulss	xmm0, DWORD PTR __real@3dcccccd
	movss	DWORD PTR _dietime$16[ebp], xmm0

; 830  : 		if( dietime == 0.0f ) // diffusion - HACKHACK if we receive 0

	movss	xmm0, DWORD PTR _dietime$16[ebp]
	ucomiss	xmm0, DWORD PTR __real@00000000
	lahf
	test	ah, 68					; 00000044H
	jp	SHORT $LN19@MsgFunc_Te

; 831  : 			dietime = 0.05;

	movss	xmm0, DWORD PTR __real@3d4ccccd
	movss	DWORD PTR _dietime$16[ebp], xmm0
$LN19@MsgFunc_Te:

; 832  : 		dl->die = tr.time + dietime;

	cvtss2sd xmm0, DWORD PTR _dietime$16[ebp]
	addsd	xmm0, QWORD PTR ?tr@@3Uref_globals_t@@A+8
	cvtsd2ss xmm0, xmm0
	mov	eax, DWORD PTR _dl$17[ebp]
	movss	DWORD PTR [eax+32], xmm0

; 833  : 
; 834  : 		dl->decay = (float)(READ_BYTE() * 10.0f);

	call	?READ_BYTE@@YAHXZ			; READ_BYTE
	cvtsi2ss xmm0, eax
	mulss	xmm0, DWORD PTR __real@41200000
	mov	eax, DWORD PTR _dl$17[ebp]
	movss	DWORD PTR [eax+36], xmm0

; 835  : 		dl->brightness = READ_BYTE() * 0.01f;

	call	?READ_BYTE@@YAHXZ			; READ_BYTE
	cvtsi2ss xmm0, eax
	mulss	xmm0, DWORD PTR __real@3c23d70a
	mov	eax, DWORD PTR _dl$17[ebp]
	movss	DWORD PTR [eax+764], xmm0

; 836  : 
; 837  : 		bool Shadows = (READ_BYTE() > 0);

	call	?READ_BYTE@@YAHXZ			; READ_BYTE
	test	eax, eax
	jle	SHORT $LN89@MsgFunc_Te
	mov	DWORD PTR tv423[ebp], 1
	jmp	SHORT $LN90@MsgFunc_Te
$LN89@MsgFunc_Te:
	mov	DWORD PTR tv423[ebp], 0
$LN90@MsgFunc_Te:
	mov	al, BYTE PTR tv423[ebp]
	mov	BYTE PTR _Shadows$15[ebp], al

; 838  : 		if( !Shadows )

	movzx	eax, BYTE PTR _Shadows$15[ebp]
	test	eax, eax
	jne	SHORT $LN20@MsgFunc_Te

; 839  : 			dl->flags |= CF_NOSHADOWS;

	mov	eax, DWORD PTR _dl$17[ebp]
	mov	ecx, DWORD PTR [eax+744]
	or	ecx, 1024				; 00000400H
	mov	edx, DWORD PTR _dl$17[ebp]
	mov	DWORD PTR [edx+744], ecx
$LN20@MsgFunc_Te:

; 840  : 
; 841  : 		dl->pointlight = true;

	mov	eax, DWORD PTR _dl$17[ebp]
	mov	BYTE PTR [eax+44], 1

; 842  : 		dl->projectionTexture = tr.whiteCubeTexture;

	mov	eax, DWORD PTR _dl$17[ebp]
	mov	ecx, DWORD PTR ?tr@@3Uref_globals_t@@A+5724
	mov	DWORD PTR [eax+452], ecx

; 843  : 
; 844  : 		R_SetupLightProjection( dl, pos, g_vecZero, dl->radius, 90.0f );

	push	ecx
	movss	xmm0, DWORD PTR __real@42b40000
	movss	DWORD PTR [esp], xmm0
	mov	eax, DWORD PTR _dl$17[ebp]
	push	ecx
	movss	xmm0, DWORD PTR [eax+24]
	movss	DWORD PTR [esp], xmm0
	push	OFFSET ?g_vecZero@@3VVector@@B		; g_vecZero
	lea	ecx, DWORD PTR _pos$[ebp]
	push	ecx
	mov	edx, DWORD PTR _dl$17[ebp]
	push	edx
	call	?R_SetupLightProjection@@YAXPAUplight_s@@ABVVector@@1MM@Z ; R_SetupLightProjection
	add	esp, 20					; 00000014H

; 845  : 		R_SetupLightAttenuationTexture( dl );

	push	-1
	mov	eax, DWORD PTR _dl$17[ebp]
	push	eax
	call	?R_SetupLightAttenuationTexture@@YAXPAUplight_s@@H@Z ; R_SetupLightAttenuationTexture
	add	esp, 8

; 846  : 	}
; 847  : 	break;

	jmp	$LN2@MsgFunc_Te
$LN21@MsgFunc_Te:

; 848  : 
; 849  : 	case TE_SPARKS:
; 850  : 	{
; 851  : 		pos.x = READ_COORD();

	call	?READ_COORD@@YAMXZ			; READ_COORD
	fstp	DWORD PTR _pos$[ebp]

; 852  : 		pos.y = READ_COORD();

	call	?READ_COORD@@YAMXZ			; READ_COORD
	fstp	DWORD PTR _pos$[ebp+4]

; 853  : 		pos.z = READ_COORD();

	call	?READ_COORD@@YAMXZ			; READ_COORD
	fstp	DWORD PTR _pos$[ebp+8]

; 854  : 	//	gEngfuncs.pEfxAPI->R_SparkShower( pos );
; 855  : 		g_pParticles.CreateEffect( 0, "env_spark.part1", pos, g_vecZero );

	push	OFFSET ?g_vecZero@@3VVector@@B		; g_vecZero
	lea	eax, DWORD PTR _pos$[ebp]
	push	eax
	push	OFFSET ??_C@_0BA@GHCACEMJ@env_spark?4part1?$AA@
	push	0
	mov	ecx, OFFSET ?g_pParticles@@3VCQuakePartSystem@@A ; g_pParticles
	call	?CreateEffect@CQuakePartSystem@@QAEXHPBDABVVector@@1@Z ; CQuakePartSystem::CreateEffect

; 856  : 		g_pParticles.CreateEffect( 0, "env_spark.part2", pos, g_vecZero );

	push	OFFSET ?g_vecZero@@3VVector@@B		; g_vecZero
	lea	eax, DWORD PTR _pos$[ebp]
	push	eax
	push	OFFSET ??_C@_0BA@EMANHHAK@env_spark?4part2?$AA@
	push	0
	mov	ecx, OFFSET ?g_pParticles@@3VCQuakePartSystem@@A ; g_pParticles
	call	?CreateEffect@CQuakePartSystem@@QAEXHPBDABVVector@@1@Z ; CQuakePartSystem::CreateEffect

; 857  : 	}
; 858  : 	break;

	jmp	$LN2@MsgFunc_Te
$LN22@MsgFunc_Te:

; 859  : 
; 860  : 	case TE_EXPLOSION:
; 861  : 	{
; 862  : 		pos.x = READ_COORD();

	call	?READ_COORD@@YAMXZ			; READ_COORD
	fstp	DWORD PTR _pos$[ebp]

; 863  : 		pos.y = READ_COORD();

	call	?READ_COORD@@YAMXZ			; READ_COORD
	fstp	DWORD PTR _pos$[ebp+4]

; 864  : 		pos.z = READ_COORD();

	call	?READ_COORD@@YAMXZ			; READ_COORD
	fstp	DWORD PTR _pos$[ebp+8]

; 865  : 		Model = READ_SHORT();

	call	?READ_SHORT@@YAHXZ			; READ_SHORT
	mov	DWORD PTR _Model$[ebp], eax

; 866  : 		Scale = READ_BYTE() * 0.1;

	call	?READ_BYTE@@YAHXZ			; READ_BYTE
	cvtsi2sd xmm0, eax
	mulsd	xmm0, QWORD PTR __real@3fb999999999999a
	cvtsd2ss xmm0, xmm0
	movss	DWORD PTR _Scale$[ebp], xmm0

; 867  : 		Framerate = READ_BYTE();

	call	?READ_BYTE@@YAHXZ			; READ_BYTE
	cvtsi2ss xmm0, eax
	movss	DWORD PTR _Framerate$[ebp], xmm0

; 868  : 		Flags = READ_BYTE();

	call	?READ_BYTE@@YAHXZ			; READ_BYTE
	mov	DWORD PTR _Flags$[ebp], eax

; 869  : 		R_Explosion( pos, Model, Scale, Framerate, Flags );

	mov	eax, DWORD PTR _Flags$[ebp]
	push	eax
	push	ecx
	movss	xmm0, DWORD PTR _Framerate$[ebp]
	movss	DWORD PTR [esp], xmm0
	push	ecx
	movss	xmm0, DWORD PTR _Scale$[ebp]
	movss	DWORD PTR [esp], xmm0
	mov	ecx, DWORD PTR _Model$[ebp]
	push	ecx
	sub	esp, 12					; 0000000cH
	mov	ecx, esp
	lea	edx, DWORD PTR _pos$[ebp]
	push	edx
	call	??0Vector@@QAE@ABV0@@Z			; Vector::Vector
	call	?R_Explosion@@YAXVVector@@HMMH@Z	; R_Explosion
	add	esp, 28					; 0000001cH

; 870  : 	//	g_pParticles.ExplosionOrg = pos;
; 871  : 	}
; 872  : 	break;

	jmp	$LN2@MsgFunc_Te
$LN23@MsgFunc_Te:

; 873  : 
; 874  : 	case TE_GUNSHOTDECAL:
; 875  : 	{
; 876  : 		pos.x = READ_COORD();

	call	?READ_COORD@@YAMXZ			; READ_COORD
	fstp	DWORD PTR _pos$[ebp]

; 877  : 		pos.y = READ_COORD();

	call	?READ_COORD@@YAMXZ			; READ_COORD
	fstp	DWORD PTR _pos$[ebp+4]

; 878  : 		pos.z = READ_COORD();

	call	?READ_COORD@@YAMXZ			; READ_COORD
	fstp	DWORD PTR _pos$[ebp+8]

; 879  : 		entityIndex = READ_SHORT();

	call	?READ_SHORT@@YAHXZ			; READ_SHORT
	mov	DWORD PTR _entityIndex$[ebp], eax

; 880  : 		decalIndex = READ_BYTE();

	call	?READ_BYTE@@YAHXZ			; READ_BYTE
	mov	DWORD PTR _decalIndex$[ebp], eax

; 881  : 		Scale = 3.0f; // scale is inverted

	movss	xmm0, DWORD PTR __real@40400000
	movss	DWORD PTR _Scale$[ebp], xmm0

; 882  : 		if( decalIndex == 185 ) // DECAL_GUNSHOT5 - knife

	cmp	DWORD PTR _decalIndex$[ebp], 185	; 000000b9H
	jne	SHORT $LN24@MsgFunc_Te

; 883  : 			Scale = 7.0f;

	movss	xmm0, DWORD PTR __real@40e00000
	movss	DWORD PTR _Scale$[ebp], xmm0
$LN24@MsgFunc_Te:

; 884  : 
; 885  : 		if( decalIndex == 185 ) // DECAL_GUNSHOT5 - knife

	cmp	DWORD PTR _decalIndex$[ebp], 185	; 000000b9H
	jne	SHORT $LN25@MsgFunc_Te

; 886  : 			gEngfuncs.pEfxAPI->R_FireCustomDecal( gEngfuncs.pEfxAPI->Draw_DecalIndex( decalIndex), entityIndex, 0, pos, 0, Scale );

	push	ecx
	movss	xmm0, DWORD PTR _Scale$[ebp]
	movss	DWORD PTR [esp], xmm0
	push	0
	lea	ecx, DWORD PTR _pos$[ebp]
	call	??BVector@@QAEPAMXZ			; Vector::operator float *
	push	eax
	push	0
	mov	eax, DWORD PTR _entityIndex$[ebp]
	push	eax
	mov	ecx, DWORD PTR _decalIndex$[ebp]
	push	ecx
	mov	edx, DWORD PTR ?gEngfuncs@@3Ucl_enginefuncs_s@@A+332
	mov	eax, DWORD PTR [edx+204]
	call	eax
	add	esp, 4
	push	eax
	mov	ecx, DWORD PTR ?gEngfuncs@@3Ucl_enginefuncs_s@@A+332
	mov	edx, DWORD PTR [ecx+292]
	call	edx
	add	esp, 24					; 00000018H

; 887  : 		else

	jmp	$LN37@MsgFunc_Te
$LN25@MsgFunc_Te:

; 888  : 		{
; 889  : 			/*
; 890  : 			int bulletdecal = 0; 
; 891  : 			switch( RANDOM_LONG(0,3) )
; 892  : 			{
; 893  : 			case 0: bulletdecal = LOAD_TEXTURE( "gfx/decals/bullethole1.dds", NULL, 0, 0 ); break;
; 894  : 			case 1: bulletdecal = LOAD_TEXTURE( "gfx/decals/bullethole2.dds", NULL, 0, 0 ); break;
; 895  : 			case 2: bulletdecal = LOAD_TEXTURE( "gfx/decals/bullethole3.dds", NULL, 0, 0 ); break;
; 896  : 			case 3: bulletdecal = LOAD_TEXTURE( "gfx/decals/bullethole4.dds", NULL, 0, 0 ); break;
; 897  : 			}
; 898  : 			gEngfuncs.pEfxAPI->R_FireCustomDecal( bulletdecal, entityIndex, 0, pos, 0, 100.0f );
; 899  : 			*/
; 900  : 			gEngfuncs.pEfxAPI->R_FireCustomDecal( gEngfuncs.pEfxAPI->Draw_DecalIndex( decalIndex ), entityIndex, 0, pos, 0, Scale );

	push	ecx
	movss	xmm0, DWORD PTR _Scale$[ebp]
	movss	DWORD PTR [esp], xmm0
	push	0
	lea	ecx, DWORD PTR _pos$[ebp]
	call	??BVector@@QAEPAMXZ			; Vector::operator float *
	push	eax
	push	0
	mov	eax, DWORD PTR _entityIndex$[ebp]
	push	eax
	mov	ecx, DWORD PTR _decalIndex$[ebp]
	push	ecx
	mov	edx, DWORD PTR ?gEngfuncs@@3Ucl_enginefuncs_s@@A+332
	mov	eax, DWORD PTR [edx+204]
	call	eax
	add	esp, 4
	push	eax
	mov	ecx, DWORD PTR ?gEngfuncs@@3Ucl_enginefuncs_s@@A+332
	mov	edx, DWORD PTR [ecx+292]
	call	edx
	add	esp, 24					; 00000018H

; 901  : 
; 902  : 			// particle
; 903  : 			gEngfuncs.pEventAPI->EV_SetTraceHull( 1 );

	push	1
	mov	eax, DWORD PTR ?gEngfuncs@@3Ucl_enginefuncs_s@@A+336
	mov	ecx, DWORD PTR [eax+56]
	call	ecx
	add	esp, 4

; 904  : 			gEngfuncs.pEventAPI->EV_PlayerTrace( tr.viewparams.vieworg, pos, 0, -1, &trace );

	lea	eax, DWORD PTR _trace$[ebp]
	push	eax
	push	-1
	push	0
	lea	ecx, DWORD PTR _pos$[ebp]
	call	??BVector@@QAEPAMXZ			; Vector::operator float *
	push	eax
	mov	ecx, OFFSET ?tr@@3Uref_globals_t@@A+5830656
	call	??BVector@@QAEPAMXZ			; Vector::operator float *
	push	eax
	mov	ecx, DWORD PTR ?gEngfuncs@@3Ucl_enginefuncs_s@@A+336
	mov	edx, DWORD PTR [ecx+60]
	call	edx
	add	esp, 20					; 00000014H

; 905  : 			const char *decal_tex = gEngfuncs.pEventAPI->EV_TraceTexture( trace.ent, pos + trace.plane.normal, pos - trace.plane.normal );

	lea	eax, DWORD PTR _trace$[ebp+32]
	push	eax
	lea	ecx, DWORD PTR $T7[ebp]
	push	ecx
	lea	ecx, DWORD PTR _pos$[ebp]
	call	??GVector@@QBE?AV0@ABV0@@Z		; Vector::operator-
	mov	ecx, eax
	call	??BVector@@QAEPAMXZ			; Vector::operator float *
	push	eax
	lea	edx, DWORD PTR _trace$[ebp+32]
	push	edx
	lea	eax, DWORD PTR $T6[ebp]
	push	eax
	lea	ecx, DWORD PTR _pos$[ebp]
	call	??HVector@@QBE?AV0@ABV0@@Z		; Vector::operator+
	mov	ecx, eax
	call	??BVector@@QAEPAMXZ			; Vector::operator float *
	push	eax
	mov	ecx, DWORD PTR _trace$[ebp+48]
	push	ecx
	mov	edx, DWORD PTR ?gEngfuncs@@3Ucl_enginefuncs_s@@A+336
	mov	eax, DWORD PTR [edx+76]
	call	eax
	add	esp, 12					; 0000000cH
	mov	DWORD PTR _decal_tex$14[ebp], eax

; 906  : 			char chTextureType = CHAR_TEX_NONE;

	mov	BYTE PTR _chTextureType$13[ebp], 78	; 0000004eH

; 907  : 			char szbuffer[64];
; 908  : 
; 909  : 			if( decal_tex )

	cmp	DWORD PTR _decal_tex$14[ebp], 0
	je	$LN27@MsgFunc_Te

; 910  : 			{
; 911  : 				// strip leading '-0' or '+0~' or '{' or '!'
; 912  : 				if( *decal_tex == '-' || *decal_tex == '+' )

	mov	eax, DWORD PTR _decal_tex$14[ebp]
	movsx	ecx, BYTE PTR [eax]
	cmp	ecx, 45					; 0000002dH
	je	SHORT $LN29@MsgFunc_Te
	mov	eax, DWORD PTR _decal_tex$14[ebp]
	movsx	ecx, BYTE PTR [eax]
	cmp	ecx, 43					; 0000002bH
	jne	SHORT $LN28@MsgFunc_Te
$LN29@MsgFunc_Te:

; 913  : 					decal_tex += 2;

	mov	eax, DWORD PTR _decal_tex$14[ebp]
	add	eax, 2
	mov	DWORD PTR _decal_tex$14[ebp], eax
$LN28@MsgFunc_Te:

; 914  : 
; 915  : 				if( *decal_tex == '{' || *decal_tex == '!' || *decal_tex == '~' || *decal_tex == ' ' )

	mov	eax, DWORD PTR _decal_tex$14[ebp]
	movsx	ecx, BYTE PTR [eax]
	cmp	ecx, 123				; 0000007bH
	je	SHORT $LN31@MsgFunc_Te
	mov	eax, DWORD PTR _decal_tex$14[ebp]
	movsx	ecx, BYTE PTR [eax]
	cmp	ecx, 33					; 00000021H
	je	SHORT $LN31@MsgFunc_Te
	mov	eax, DWORD PTR _decal_tex$14[ebp]
	movsx	ecx, BYTE PTR [eax]
	cmp	ecx, 126				; 0000007eH
	je	SHORT $LN31@MsgFunc_Te
	mov	eax, DWORD PTR _decal_tex$14[ebp]
	movsx	ecx, BYTE PTR [eax]
	cmp	ecx, 32					; 00000020H
	jne	SHORT $LN30@MsgFunc_Te
$LN31@MsgFunc_Te:

; 916  : 					decal_tex++;

	mov	eax, DWORD PTR _decal_tex$14[ebp]
	add	eax, 1
	mov	DWORD PTR _decal_tex$14[ebp], eax
$LN30@MsgFunc_Te:

; 917  : 				// '}}'
; 918  : 				strcpy_s( szbuffer, decal_tex );

	mov	eax, DWORD PTR _decal_tex$14[ebp]
	push	eax
	lea	ecx, DWORD PTR _szbuffer$12[ebp]
	push	ecx
	call	??$strcpy_s@$0EA@@@YAHAAY0EA@DPBD@Z	; strcpy_s<64>
	add	esp, 8

; 919  : 				szbuffer[CBTEXTURENAMEMAX - 1] = 0;

	mov	eax, 1
	imul	ecx, eax, 23
	mov	DWORD PTR $T5[ebp], ecx
	cmp	DWORD PTR $T5[ebp], 64			; 00000040H
	jae	SHORT $LN91@MsgFunc_Te
	jmp	SHORT $LN92@MsgFunc_Te
$LN91@MsgFunc_Te:
	call	___report_rangecheckfailure
$LN92@MsgFunc_Te:
	mov	edx, DWORD PTR $T5[ebp]
	mov	BYTE PTR _szbuffer$12[ebp+edx], 0

; 920  : 
; 921  : 				// get texture type
; 922  : 				chTextureType = PM_FindTextureType( szbuffer );

	lea	eax, DWORD PTR _szbuffer$12[ebp]
	push	eax
	call	?PM_FindTextureType@@YADPAD@Z		; PM_FindTextureType
	add	esp, 4
	mov	BYTE PTR _chTextureType$13[ebp], al
$LN27@MsgFunc_Te:

; 923  : 			//	gEngfuncs.Con_Printf( "%c\n", chTextureType );
; 924  : 			}
; 925  : 
; 926  : 			int gunshot_particle = 1; // 1 - dust, 2 - metal sparks

	mov	DWORD PTR _gunshot_particle$11[ebp], 1

; 927  : 			switch( chTextureType )

	movsx	eax, BYTE PTR _chTextureType$13[ebp]
	mov	DWORD PTR tv561[ebp], eax
	mov	ecx, DWORD PTR tv561[ebp]
	sub	ecx, 70					; 00000046H
	mov	DWORD PTR tv561[ebp], ecx
	cmp	DWORD PTR tv561[ebp], 19		; 00000013H
	ja	SHORT $LN4@MsgFunc_Te
	mov	edx, DWORD PTR tv561[ebp]
	movzx	eax, BYTE PTR $LN96@MsgFunc_Te[edx]
	jmp	DWORD PTR $LN98@MsgFunc_Te[eax*4]
$LN32@MsgFunc_Te:

; 928  : 			{
; 929  : 			case CHAR_TEX_GLASS:
; 930  : 			case CHAR_TEX_FLESH:
; 931  : 			case CHAR_TEX_VENT:
; 932  : 			case CHAR_TEX_NONE:
; 933  : 				gunshot_particle = 0;

	mov	DWORD PTR _gunshot_particle$11[ebp], 0

; 934  : 				break;

	jmp	SHORT $LN4@MsgFunc_Te
$LN33@MsgFunc_Te:

; 935  : 			case CHAR_TEX_COMPUTER:
; 936  : 			case CHAR_TEX_METAL:
; 937  : 				gunshot_particle = 2;

	mov	DWORD PTR _gunshot_particle$11[ebp], 2
$LN4@MsgFunc_Te:

; 938  : 				break;
; 939  : 			}
; 940  : 
; 941  : 			if( gunshot_particle > 0 )

	cmp	DWORD PTR _gunshot_particle$11[ebp], 0
	jle	$LN37@MsgFunc_Te

; 942  : 			{
; 943  : 				CQuakePart bullet_p;

	lea	ecx, DWORD PTR _bullet_p$10[ebp]
	call	??0CQuakePart@@QAE@XZ

; 944  : 				if( gunshot_particle == 1 )

	cmp	DWORD PTR _gunshot_particle$11[ebp], 1
	jne	$LN35@MsgFunc_Te

; 945  : 				{
; 946  : 					bullet_p.m_vecOrigin = pos;

	mov	eax, DWORD PTR _pos$[ebp]
	mov	DWORD PTR _bullet_p$10[ebp], eax
	mov	ecx, DWORD PTR _pos$[ebp+4]
	mov	DWORD PTR _bullet_p$10[ebp+4], ecx
	mov	edx, DWORD PTR _pos$[ebp+8]
	mov	DWORD PTR _bullet_p$10[ebp+8], edx

; 947  : 					bullet_p.m_vecVelocity = trace.plane.normal * 40;

	push	ecx
	movss	xmm0, DWORD PTR __real@42200000
	movss	DWORD PTR [esp], xmm0
	lea	eax, DWORD PTR $T4[ebp]
	push	eax
	lea	ecx, DWORD PTR _trace$[ebp+32]
	call	??DVector@@QBE?AV0@M@Z			; Vector::operator*
	mov	ecx, DWORD PTR [eax]
	mov	DWORD PTR _bullet_p$10[ebp+24], ecx
	mov	edx, DWORD PTR [eax+4]
	mov	DWORD PTR _bullet_p$10[ebp+28], edx
	mov	eax, DWORD PTR [eax+8]
	mov	DWORD PTR _bullet_p$10[ebp+32], eax

; 948  : 					bullet_p.m_vecAccel = g_vecZero;

	mov	eax, DWORD PTR ?g_vecZero@@3VVector@@B
	mov	DWORD PTR _bullet_p$10[ebp+36], eax
	mov	ecx, DWORD PTR ?g_vecZero@@3VVector@@B+4
	mov	DWORD PTR _bullet_p$10[ebp+40], ecx
	mov	edx, DWORD PTR ?g_vecZero@@3VVector@@B+8
	mov	DWORD PTR _bullet_p$10[ebp+44], edx

; 949  : 					bullet_p.m_vecColor = Vector( 0.5, 0.5, 0.5 );

	push	ecx
	movss	xmm0, DWORD PTR __real@3f000000
	movss	DWORD PTR [esp], xmm0
	push	ecx
	movss	xmm0, DWORD PTR __real@3f000000
	movss	DWORD PTR [esp], xmm0
	push	ecx
	movss	xmm0, DWORD PTR __real@3f000000
	movss	DWORD PTR [esp], xmm0
	lea	ecx, DWORD PTR $T3[ebp]
	call	??0Vector@@QAE@MMM@Z			; Vector::Vector
	mov	ecx, DWORD PTR [eax]
	mov	DWORD PTR _bullet_p$10[ebp+48], ecx
	mov	edx, DWORD PTR [eax+4]
	mov	DWORD PTR _bullet_p$10[ebp+52], edx
	mov	eax, DWORD PTR [eax+8]
	mov	DWORD PTR _bullet_p$10[ebp+56], eax

; 950  : 					bullet_p.m_vecColorVelocity = g_vecZero;

	mov	eax, DWORD PTR ?g_vecZero@@3VVector@@B
	mov	DWORD PTR _bullet_p$10[ebp+60], eax
	mov	ecx, DWORD PTR ?g_vecZero@@3VVector@@B+4
	mov	DWORD PTR _bullet_p$10[ebp+64], ecx
	mov	edx, DWORD PTR ?g_vecZero@@3VVector@@B+8
	mov	DWORD PTR _bullet_p$10[ebp+68], edx

; 951  : 					bullet_p.m_flAlpha = 1.0;

	movss	xmm0, DWORD PTR __real@3f800000
	movss	DWORD PTR _bullet_p$10[ebp+72], xmm0

; 952  : 					bullet_p.m_flAlphaVelocity = RANDOM_FLOAT( -1.5f, -0.75f );

	push	ecx
	movss	xmm0, DWORD PTR __real@bf400000
	movss	DWORD PTR [esp], xmm0
	push	ecx
	movss	xmm0, DWORD PTR __real@bfc00000
	movss	DWORD PTR [esp], xmm0
	call	DWORD PTR ?gEngfuncs@@3Ucl_enginefuncs_s@@A+268
	add	esp, 8
	fstp	DWORD PTR _bullet_p$10[ebp+76]

; 953  : 					bullet_p.m_flRadius = 2;

	movss	xmm0, DWORD PTR __real@40000000
	movss	DWORD PTR _bullet_p$10[ebp+80], xmm0

; 954  : 					bullet_p.m_flRadiusVelocity = 30;

	movss	xmm0, DWORD PTR __real@41f00000
	movss	DWORD PTR _bullet_p$10[ebp+84], xmm0

; 955  : 					bullet_p.m_flLength = 1;

	movss	xmm0, DWORD PTR __real@3f800000
	movss	DWORD PTR _bullet_p$10[ebp+88], xmm0

; 956  : 					bullet_p.m_flLengthVelocity = 0;

	xorps	xmm0, xmm0
	movss	DWORD PTR _bullet_p$10[ebp+92], xmm0

; 957  : 					bullet_p.m_flRotation = RANDOM_LONG( 0, 360 );

	push	360					; 00000168H
	push	0
	call	DWORD PTR ?gEngfuncs@@3Ucl_enginefuncs_s@@A+272
	add	esp, 8
	cvtsi2ss xmm0, eax
	movss	DWORD PTR _bullet_p$10[ebp+96], xmm0

; 958  : 					bullet_p.m_flRotationVelocity = 25;

	movss	xmm0, DWORD PTR __real@41c80000
	movss	DWORD PTR _bullet_p$10[ebp+100], xmm0

; 959  : 					bullet_p.m_flDistance = 1000;

	movss	xmm0, DWORD PTR __real@447a0000
	movss	DWORD PTR _bullet_p$10[ebp+108], xmm0

; 960  : 					bullet_p.ParticleType = TYPE_SMOKE_NOTINWATER;

	mov	DWORD PTR _bullet_p$10[ebp+144], 4

; 961  : 					bullet_p.EntIndex = 0;

	mov	DWORD PTR _bullet_p$10[ebp+168], 0

; 962  : 					g_pParticles.AddParticle( &bullet_p, g_pParticles.m_hSmoke, FPART_NOTWATER | FPART_VERTEXLIGHT );

	push	132					; 00000084H
	mov	eax, DWORD PTR ?g_pParticles@@3VCQuakePartSystem@@A+2911252
	push	eax
	lea	ecx, DWORD PTR _bullet_p$10[ebp]
	push	ecx
	mov	ecx, OFFSET ?g_pParticles@@3VCQuakePartSystem@@A ; g_pParticles
	call	?AddParticle@CQuakePartSystem@@QAE_NPAVCQuakePart@@HH@Z ; CQuakePartSystem::AddParticle
	jmp	SHORT $LN37@MsgFunc_Te
$LN35@MsgFunc_Te:

; 963  : 				}
; 964  : 				else if( gunshot_particle == 2 )

	cmp	DWORD PTR _gunshot_particle$11[ebp], 2
	jne	SHORT $LN37@MsgFunc_Te

; 965  : 				{
; 966  : 					g_pParticles.BulletParticles( 0, pos, trace.plane.normal );

	lea	eax, DWORD PTR _trace$[ebp+32]
	push	eax
	lea	ecx, DWORD PTR _pos$[ebp]
	push	ecx
	push	0
	mov	ecx, OFFSET ?g_pParticles@@3VCQuakePartSystem@@A ; g_pParticles
	call	?BulletParticles@CQuakePartSystem@@QAEXHABVVector@@0@Z ; CQuakePartSystem::BulletParticles
$LN37@MsgFunc_Te:

; 967  : 				}
; 968  : 			}
; 969  : 		}
; 970  : 	}
; 971  : 	break;

	jmp	$LN2@MsgFunc_Te
$LN38@MsgFunc_Te:

; 972  : 
; 973  : 	case TE_USERTRACER:
; 974  : 	{
; 975  : 		pos.x = READ_COORD();

	call	?READ_COORD@@YAMXZ			; READ_COORD
	fstp	DWORD PTR _pos$[ebp]

; 976  : 		pos.y = READ_COORD();

	call	?READ_COORD@@YAMXZ			; READ_COORD
	fstp	DWORD PTR _pos$[ebp+4]

; 977  : 		pos.z = READ_COORD();

	call	?READ_COORD@@YAMXZ			; READ_COORD
	fstp	DWORD PTR _pos$[ebp+8]

; 978  : 		pos2.x = READ_COORD(); // velocity vector

	call	?READ_COORD@@YAMXZ			; READ_COORD
	fstp	DWORD PTR _pos2$[ebp]

; 979  : 		pos2.y = READ_COORD();

	call	?READ_COORD@@YAMXZ			; READ_COORD
	fstp	DWORD PTR _pos2$[ebp+4]

; 980  : 		pos2.z = READ_COORD();

	call	?READ_COORD@@YAMXZ			; READ_COORD
	fstp	DWORD PTR _pos2$[ebp+8]

; 981  : 		Life = READ_BYTE() * 0.1;

	call	?READ_BYTE@@YAHXZ			; READ_BYTE
	cvtsi2sd xmm0, eax
	mulsd	xmm0, QWORD PTR __real@3fb999999999999a
	cvtsd2ss xmm0, xmm0
	movss	DWORD PTR _Life$[ebp], xmm0

; 982  : 		Color = READ_BYTE();

	call	?READ_BYTE@@YAHXZ			; READ_BYTE
	mov	DWORD PTR _Color$[ebp], eax

; 983  : 		Scale = READ_BYTE() * 0.1;

	call	?READ_BYTE@@YAHXZ			; READ_BYTE
	cvtsi2sd xmm0, eax
	mulsd	xmm0, QWORD PTR __real@3fb999999999999a
	cvtsd2ss xmm0, xmm0
	movss	DWORD PTR _Scale$[ebp], xmm0

; 984  : 		gEngfuncs.pEfxAPI->R_UserTracerParticle( pos, pos2, Life, Color, Scale, 0, NULL );

	push	0
	push	0
	push	ecx
	movss	xmm0, DWORD PTR _Scale$[ebp]
	movss	DWORD PTR [esp], xmm0
	mov	eax, DWORD PTR _Color$[ebp]
	push	eax
	push	ecx
	movss	xmm0, DWORD PTR _Life$[ebp]
	movss	DWORD PTR [esp], xmm0
	lea	ecx, DWORD PTR _pos2$[ebp]
	call	??BVector@@QAEPAMXZ			; Vector::operator float *
	push	eax
	lea	ecx, DWORD PTR _pos$[ebp]
	call	??BVector@@QAEPAMXZ			; Vector::operator float *
	push	eax
	mov	ecx, DWORD PTR ?gEngfuncs@@3Ucl_enginefuncs_s@@A+332
	mov	edx, DWORD PTR [ecx+176]
	call	edx
	add	esp, 28					; 0000001cH

; 985  : 	}
; 986  : 	break;

	jmp	$LN2@MsgFunc_Te
$LN39@MsgFunc_Te:

; 987  : 
; 988  : 	case TE_BOAT_TRAIL:
; 989  : 	{
; 990  : 		pos.x = READ_COORD();

	call	?READ_COORD@@YAMXZ			; READ_COORD
	fstp	DWORD PTR _pos$[ebp]

; 991  : 		pos.y = READ_COORD();

	call	?READ_COORD@@YAMXZ			; READ_COORD
	fstp	DWORD PTR _pos$[ebp+4]

; 992  : 		pos.z = READ_COORD();

	call	?READ_COORD@@YAMXZ			; READ_COORD
	fstp	DWORD PTR _pos$[ebp+8]

; 993  : 		pos2.y = READ_COORD(); // angle

	call	?READ_COORD@@YAMXZ			; READ_COORD
	fstp	DWORD PTR _pos2$[ebp+4]

; 994  : 		Scale = READ_BYTE() * 0.005;

	call	?READ_BYTE@@YAHXZ			; READ_BYTE
	cvtsi2sd xmm0, eax
	mulsd	xmm0, QWORD PTR __real@3f747ae147ae147b
	cvtsd2ss xmm0, xmm0
	movss	DWORD PTR _Scale$[ebp], xmm0

; 995  : 		Framerate = READ_BYTE(); // boat speed 0-255

	call	?READ_BYTE@@YAHXZ			; READ_BYTE
	cvtsi2ss xmm0, eax
	movss	DWORD PTR _Framerate$[ebp], xmm0

; 996  : 
; 997  : 		int WaterTrail = gEngfuncs.pEventAPI->EV_FindModelIndex( "sprites/effects/watertrail.spr" );

	push	OFFSET ??_C@_0BP@OKEFMAFH@sprites?1effects?1watertrail?4spr?$AA@
	mov	eax, DWORD PTR ?gEngfuncs@@3Ucl_enginefuncs_s@@A+336
	mov	ecx, DWORD PTR [eax+12]
	call	ecx
	add	esp, 4
	mov	DWORD PTR _WaterTrail$9[ebp], eax

; 998  : 
; 999  : 		pTemp = gEngfuncs.pEfxAPI->R_TempSprite( pos, Vector( 0, 0, 0 ), Scale, WaterTrail, kRenderTransAdd, 0, (Framerate / 255), 0.1, FTENT_FADEOUT );

	push	128					; 00000080H
	push	ecx
	movss	xmm0, DWORD PTR __real@3dcccccd
	movss	DWORD PTR [esp], xmm0
	movss	xmm0, DWORD PTR _Framerate$[ebp]
	divss	xmm0, DWORD PTR __real@437f0000
	push	ecx
	movss	DWORD PTR [esp], xmm0
	push	0
	push	5
	mov	eax, DWORD PTR _WaterTrail$9[ebp]
	push	eax
	push	ecx
	movss	xmm0, DWORD PTR _Scale$[ebp]
	movss	DWORD PTR [esp], xmm0
	push	ecx
	xorps	xmm0, xmm0
	movss	DWORD PTR [esp], xmm0
	push	ecx
	xorps	xmm0, xmm0
	movss	DWORD PTR [esp], xmm0
	push	ecx
	xorps	xmm0, xmm0
	movss	DWORD PTR [esp], xmm0
	lea	ecx, DWORD PTR $T2[ebp]
	call	??0Vector@@QAE@MMM@Z			; Vector::Vector
	mov	ecx, eax
	call	??BVector@@QAEPAMXZ			; Vector::operator float *
	push	eax
	lea	ecx, DWORD PTR _pos$[ebp]
	call	??BVector@@QAEPAMXZ			; Vector::operator float *
	push	eax
	mov	ecx, DWORD PTR ?gEngfuncs@@3Ucl_enginefuncs_s@@A+332
	mov	edx, DWORD PTR [ecx+200]
	call	edx
	add	esp, 36					; 00000024H
	mov	DWORD PTR _pTemp$[ebp], eax

; 1000 : 
; 1001 : 		if( pTemp )

	cmp	DWORD PTR _pTemp$[ebp], 0
	je	SHORT $LN40@MsgFunc_Te

; 1002 : 		{
; 1003 : 			pTemp->fadeSpeed = 1.0;

	mov	eax, DWORD PTR _pTemp$[ebp]
	movss	xmm0, DWORD PTR __real@3f800000
	movss	DWORD PTR [eax+24], xmm0

; 1004 : 			pTemp->entity.curstate.rendercolor.r = 255;

	mov	eax, DWORD PTR _pTemp$[ebp]
	mov	BYTE PTR [eax+836], 255			; 000000ffH

; 1005 : 			pTemp->entity.curstate.rendercolor.g = 255;

	mov	eax, DWORD PTR _pTemp$[ebp]
	mov	BYTE PTR [eax+837], 255			; 000000ffH

; 1006 : 			pTemp->entity.curstate.rendercolor.b = 255;

	mov	eax, DWORD PTR _pTemp$[ebp]
	mov	BYTE PTR [eax+838], 255			; 000000ffH

; 1007 : 			pTemp->entity.angles = Vector( 90, pos2.y, 0 );

	push	ecx
	xorps	xmm0, xmm0
	movss	DWORD PTR [esp], xmm0
	push	ecx
	movss	xmm0, DWORD PTR _pos2$[ebp+4]
	movss	DWORD PTR [esp], xmm0
	push	ecx
	movss	xmm0, DWORD PTR __real@42b40000
	movss	DWORD PTR [esp], xmm0
	lea	ecx, DWORD PTR $T1[ebp]
	call	??0Vector@@QAE@MMM@Z			; Vector::Vector
	mov	ecx, DWORD PTR _pTemp$[ebp]
	add	ecx, 2968				; 00000b98H
	mov	edx, DWORD PTR [eax]
	mov	DWORD PTR [ecx], edx
	mov	edx, DWORD PTR [eax+4]
	mov	DWORD PTR [ecx+4], edx
	mov	eax, DWORD PTR [eax+8]
	mov	DWORD PTR [ecx+8], eax
$LN40@MsgFunc_Te:

; 1008 : 		}
; 1009 : 	}
; 1010 : 	break;

	jmp	$LN2@MsgFunc_Te
$LN41@MsgFunc_Te:

; 1011 : 
; 1012 : 	case TE_SCREENSHAKE:
; 1013 : 	{
; 1014 : 		gHUD.shake.amplitude = (float)(word)READ_SHORT() * (1.0f / 4096.0f);

	call	?READ_SHORT@@YAHXZ			; READ_SHORT
	movzx	eax, ax
	cvtsi2ss xmm0, eax
	mulss	xmm0, DWORD PTR __real@39800000
	movss	DWORD PTR ?gHUD@@3VCHud@@A+184, xmm0

; 1015 : 		gHUD.shake.duration = (float)(word)READ_SHORT() * (1.0f / 4096.0f);

	call	?READ_SHORT@@YAHXZ			; READ_SHORT
	movzx	eax, ax
	cvtsi2ss xmm0, eax
	mulss	xmm0, DWORD PTR __real@39800000
	movss	DWORD PTR ?gHUD@@3VCHud@@A+180, xmm0

; 1016 : 		gHUD.shake.frequency = (float)(word)READ_SHORT() * (1.0f / 256.0f);

	call	?READ_SHORT@@YAHXZ			; READ_SHORT
	movzx	eax, ax
	cvtsi2ss xmm0, eax
	mulss	xmm0, DWORD PTR __real@3b800000
	movss	DWORD PTR ?gHUD@@3VCHud@@A+188, xmm0

; 1017 : 		gHUD.shake.time = tr.time + Q_max( gHUD.shake.duration, 0.01f );

	movss	xmm0, DWORD PTR ?gHUD@@3VCHud@@A+180
	comiss	xmm0, DWORD PTR __real@3c23d70a
	jbe	SHORT $LN93@MsgFunc_Te
	movss	xmm0, DWORD PTR ?gHUD@@3VCHud@@A+180
	movss	DWORD PTR tv726[ebp], xmm0
	jmp	SHORT $LN94@MsgFunc_Te
$LN93@MsgFunc_Te:
	movss	xmm0, DWORD PTR __real@3c23d70a
	movss	DWORD PTR tv726[ebp], xmm0
$LN94@MsgFunc_Te:
	cvtss2sd xmm0, DWORD PTR tv726[ebp]
	addsd	xmm0, QWORD PTR ?tr@@3Uref_globals_t@@A+8
	cvtsd2ss xmm0, xmm0
	movss	DWORD PTR ?gHUD@@3VCHud@@A+176, xmm0

; 1018 : 		gHUD.shake.next_shake = 0.0f; // apply immediately

	xorps	xmm0, xmm0
	movss	DWORD PTR ?gHUD@@3VCHud@@A+192, xmm0

; 1019 : 	}
; 1020 : 	break;

	jmp	$LN2@MsgFunc_Te
$LN42@MsgFunc_Te:

; 1021 : 
; 1022 : 	case TE_WEAPONSHAKE:
; 1023 : 	{
; 1024 : 		Weapon = READ_BYTE();

	call	?READ_BYTE@@YAHXZ			; READ_BYTE
	mov	DWORD PTR _Weapon$[ebp], eax

; 1025 : 		Mode = READ_BYTE(); // primary or secondary attack?

	call	?READ_BYTE@@YAHXZ			; READ_BYTE
	mov	DWORD PTR _Mode$[ebp], eax

; 1026 : 		R_MakeWeaponShake( Weapon, Mode );

	push	0
	mov	eax, DWORD PTR _Mode$[ebp]
	push	eax
	mov	ecx, DWORD PTR _Weapon$[ebp]
	push	ecx
	call	?R_MakeWeaponShake@@YAXHH_N@Z		; R_MakeWeaponShake
	add	esp, 12					; 0000000cH

; 1027 : 	}
; 1028 : 	break;

	jmp	$LN2@MsgFunc_Te
$LN43@MsgFunc_Te:

; 1029 : 
; 1030 : 	case TE_ACHIEVEMENT:
; 1031 : 	{
; 1032 : 		int ach_number = READ_BYTE();

	call	?READ_BYTE@@YAHXZ			; READ_BYTE
	mov	DWORD PTR _ach_number$8[ebp], eax

; 1033 : 		if( ach_number == 255 )

	cmp	DWORD PTR _ach_number$8[ebp], 255	; 000000ffH
	jne	SHORT $LN44@MsgFunc_Te

; 1034 : 		{
; 1035 : 			gHUD.m_StatusIconsAchievement.ReportAchievementsToConsole();

	mov	ecx, OFFSET ?gHUD@@3VCHud@@A+2004
	call	?ReportAchievementsToConsole@CHudAchievement@@QAEXXZ ; CHudAchievement::ReportAchievementsToConsole

; 1036 : 			break;

	jmp	$LN2@MsgFunc_Te
$LN44@MsgFunc_Te:

; 1037 : 		}
; 1038 : 		Value = READ_LONG();

	call	?READ_LONG@@YAHXZ			; READ_LONG
	mov	DWORD PTR _Value$[ebp], eax

; 1039 : 		Mode = READ_BYTE();

	call	?READ_BYTE@@YAHXZ			; READ_BYTE
	mov	DWORD PTR _Mode$[ebp], eax

; 1040 : 		if( gHUD.m_StatusIconsAchievement.bAchievements )

	movzx	eax, BYTE PTR ?gHUD@@3VCHud@@A+2032
	test	eax, eax
	je	SHORT $LN6@MsgFunc_Te

; 1041 : 		{
; 1042 : 			switch( Mode )

	mov	eax, DWORD PTR _Mode$[ebp]
	mov	DWORD PTR tv806[ebp], eax
	cmp	DWORD PTR tv806[ebp], 0
	je	SHORT $LN46@MsgFunc_Te
	cmp	DWORD PTR tv806[ebp], 1
	je	SHORT $LN47@MsgFunc_Te
	cmp	DWORD PTR tv806[ebp], 2
	je	SHORT $LN48@MsgFunc_Te
	jmp	SHORT $LN6@MsgFunc_Te
$LN46@MsgFunc_Te:

; 1043 : 			{
; 1044 : 			case 0: gHUD.m_StatusIconsAchievement.AchievementStats[ach_number] += Value; break;

	mov	eax, DWORD PTR _ach_number$8[ebp]
	mov	ecx, DWORD PTR ?gHUD@@3VCHud@@A[eax*4+2036]
	add	ecx, DWORD PTR _Value$[ebp]
	mov	edx, DWORD PTR _ach_number$8[ebp]
	mov	DWORD PTR ?gHUD@@3VCHud@@A[edx*4+2036], ecx
	jmp	SHORT $LN6@MsgFunc_Te
$LN47@MsgFunc_Te:

; 1045 : 			case 1: gHUD.m_StatusIconsAchievement.AchievementStats[ach_number] -= Value; break;

	mov	eax, DWORD PTR _ach_number$8[ebp]
	mov	ecx, DWORD PTR ?gHUD@@3VCHud@@A[eax*4+2036]
	sub	ecx, DWORD PTR _Value$[ebp]
	mov	edx, DWORD PTR _ach_number$8[ebp]
	mov	DWORD PTR ?gHUD@@3VCHud@@A[edx*4+2036], ecx
	jmp	SHORT $LN6@MsgFunc_Te
$LN48@MsgFunc_Te:

; 1046 : 			case 2: gHUD.m_StatusIconsAchievement.AchievementStats[ach_number] = Value; break;

	mov	eax, DWORD PTR _ach_number$8[ebp]
	mov	ecx, DWORD PTR _Value$[ebp]
	mov	DWORD PTR ?gHUD@@3VCHud@@A[eax*4+2036], ecx
$LN6@MsgFunc_Te:

; 1047 : 			}
; 1048 : 		//	ConPrintf( "Achievement received: %i, value received: %i\n", ach_number, Value );
; 1049 : 		}
; 1050 : 	//	else
; 1051 : 	//		ConPrintf( "Achievement received: %i, value received: %i. NOT ALLOWED\n", ach_number, Value );
; 1052 : 	}
; 1053 : 	break;

	jmp	$LN2@MsgFunc_Te
$LN49@MsgFunc_Te:

; 1054 : 
; 1055 : 	case TE_UNREALSOUND:
; 1056 : 	{
; 1057 : 		Mode = READ_BYTE();

	call	?READ_BYTE@@YAHXZ			; READ_BYTE
	mov	DWORD PTR _Mode$[ebp], eax

; 1058 : 		if( 1 ) // TODO - add cvar

	mov	eax, 1
	test	eax, eax
	je	$LN8@MsgFunc_Te

; 1059 : 		{
; 1060 : 			switch( Mode )

	mov	eax, DWORD PTR _Mode$[ebp]
	mov	DWORD PTR tv824[ebp], eax
	mov	ecx, DWORD PTR tv824[ebp]
	sub	ecx, 1
	mov	DWORD PTR tv824[ebp], ecx
	cmp	DWORD PTR tv824[ebp], 12		; 0000000cH
	ja	$LN8@MsgFunc_Te
	mov	edx, DWORD PTR tv824[ebp]
	jmp	DWORD PTR $LN99@MsgFunc_Te[edx*4]
$LN51@MsgFunc_Te:

; 1061 : 			{
; 1062 : 			case 1: gEngfuncs.pEventAPI->EV_PlaySound( 0, NULL, CHAN_STATIC, "server/spree_killingspree.wav", VOL_NORM, 0, 0, PITCH_NORM ); break;

	push	100					; 00000064H
	push	0
	push	ecx
	xorps	xmm0, xmm0
	movss	DWORD PTR [esp], xmm0
	push	ecx
	movss	xmm0, DWORD PTR __real@3f800000
	movss	DWORD PTR [esp], xmm0
	push	OFFSET ??_C@_0BO@KNFHGGOH@server?1spree_killingspree?4wav?$AA@
	push	6
	push	0
	push	0
	mov	eax, DWORD PTR ?gEngfuncs@@3Ucl_enginefuncs_s@@A+336
	mov	ecx, DWORD PTR [eax+4]
	call	ecx
	add	esp, 32					; 00000020H
	jmp	$LN8@MsgFunc_Te
$LN52@MsgFunc_Te:

; 1063 : 			case 2: gEngfuncs.pEventAPI->EV_PlaySound( 0, NULL, CHAN_STATIC, "server/spree_dominating.wav", VOL_NORM, 0, 0, PITCH_NORM ); break;

	push	100					; 00000064H
	push	0
	push	ecx
	xorps	xmm0, xmm0
	movss	DWORD PTR [esp], xmm0
	push	ecx
	movss	xmm0, DWORD PTR __real@3f800000
	movss	DWORD PTR [esp], xmm0
	push	OFFSET ??_C@_0BM@PLIGJAPL@server?1spree_dominating?4wav?$AA@
	push	6
	push	0
	push	0
	mov	eax, DWORD PTR ?gEngfuncs@@3Ucl_enginefuncs_s@@A+336
	mov	ecx, DWORD PTR [eax+4]
	call	ecx
	add	esp, 32					; 00000020H
	jmp	$LN8@MsgFunc_Te
$LN53@MsgFunc_Te:

; 1064 : 			case 3: gEngfuncs.pEventAPI->EV_PlaySound( 0, NULL, CHAN_STATIC, "server/spree_rampage.wav", VOL_NORM, 0, 0, PITCH_NORM ); break;

	push	100					; 00000064H
	push	0
	push	ecx
	xorps	xmm0, xmm0
	movss	DWORD PTR [esp], xmm0
	push	ecx
	movss	xmm0, DWORD PTR __real@3f800000
	movss	DWORD PTR [esp], xmm0
	push	OFFSET ??_C@_0BJ@MLNBEADI@server?1spree_rampage?4wav?$AA@
	push	6
	push	0
	push	0
	mov	eax, DWORD PTR ?gEngfuncs@@3Ucl_enginefuncs_s@@A+336
	mov	ecx, DWORD PTR [eax+4]
	call	ecx
	add	esp, 32					; 00000020H
	jmp	$LN8@MsgFunc_Te
$LN54@MsgFunc_Te:

; 1065 : 			case 4: gEngfuncs.pEventAPI->EV_PlaySound( 0, NULL, CHAN_STATIC, "server/spree_godlike.wav", VOL_NORM, 0, 0, PITCH_NORM ); break;

	push	100					; 00000064H
	push	0
	push	ecx
	xorps	xmm0, xmm0
	movss	DWORD PTR [esp], xmm0
	push	ecx
	movss	xmm0, DWORD PTR __real@3f800000
	movss	DWORD PTR [esp], xmm0
	push	OFFSET ??_C@_0BJ@KPLIBKLM@server?1spree_godlike?4wav?$AA@
	push	6
	push	0
	push	0
	mov	eax, DWORD PTR ?gEngfuncs@@3Ucl_enginefuncs_s@@A+336
	mov	ecx, DWORD PTR [eax+4]
	call	ecx
	add	esp, 32					; 00000020H
	jmp	$LN8@MsgFunc_Te
$LN55@MsgFunc_Te:

; 1066 : 			case 5: gEngfuncs.pEventAPI->EV_PlaySound( 0, NULL, CHAN_STATIC, "server/spree_wickedsick.wav", VOL_NORM, 0, 0, PITCH_NORM ); break;

	push	100					; 00000064H
	push	0
	push	ecx
	xorps	xmm0, xmm0
	movss	DWORD PTR [esp], xmm0
	push	ecx
	movss	xmm0, DWORD PTR __real@3f800000
	movss	DWORD PTR [esp], xmm0
	push	OFFSET ??_C@_0BM@PHPKDMCG@server?1spree_wickedsick?4wav?$AA@
	push	6
	push	0
	push	0
	mov	eax, DWORD PTR ?gEngfuncs@@3Ucl_enginefuncs_s@@A+336
	mov	ecx, DWORD PTR [eax+4]
	call	ecx
	add	esp, 32					; 00000020H
	jmp	$LN8@MsgFunc_Te
$LN56@MsgFunc_Te:

; 1067 : 			case 6: gEngfuncs.pEventAPI->EV_PlaySound( 0, NULL, CHAN_STATIC, "server/snd_headshot.wav", VOL_NORM, 0, 0, PITCH_NORM ); break;

	push	100					; 00000064H
	push	0
	push	ecx
	xorps	xmm0, xmm0
	movss	DWORD PTR [esp], xmm0
	push	ecx
	movss	xmm0, DWORD PTR __real@3f800000
	movss	DWORD PTR [esp], xmm0
	push	OFFSET ??_C@_0BI@CCGJGALK@server?1snd_headshot?4wav?$AA@
	push	6
	push	0
	push	0
	mov	eax, DWORD PTR ?gEngfuncs@@3Ucl_enginefuncs_s@@A+336
	mov	ecx, DWORD PTR [eax+4]
	call	ecx
	add	esp, 32					; 00000020H
	jmp	$LN8@MsgFunc_Te
$LN57@MsgFunc_Te:

; 1068 : 			case 7: gEngfuncs.pEventAPI->EV_PlaySound( 0, NULL, CHAN_STATIC, "server/snd_spree_ended.wav", VOL_NORM, 0, 0, PITCH_NORM ); break;

	push	100					; 00000064H
	push	0
	push	ecx
	xorps	xmm0, xmm0
	movss	DWORD PTR [esp], xmm0
	push	ecx
	movss	xmm0, DWORD PTR __real@3f800000
	movss	DWORD PTR [esp], xmm0
	push	OFFSET ??_C@_0BL@IPJENCPG@server?1snd_spree_ended?4wav?$AA@
	push	6
	push	0
	push	0
	mov	eax, DWORD PTR ?gEngfuncs@@3Ucl_enginefuncs_s@@A+336
	mov	ecx, DWORD PTR [eax+4]
	call	ecx
	add	esp, 32					; 00000020H
	jmp	$LN8@MsgFunc_Te
$LN58@MsgFunc_Te:

; 1069 : 			case 8: gEngfuncs.pEventAPI->EV_PlaySound( 0, NULL, CHAN_STATIC, "server/snd_doublekill.wav", VOL_NORM, 0, 0, PITCH_NORM ); break;

	push	100					; 00000064H
	push	0
	push	ecx
	xorps	xmm0, xmm0
	movss	DWORD PTR [esp], xmm0
	push	ecx
	movss	xmm0, DWORD PTR __real@3f800000
	movss	DWORD PTR [esp], xmm0
	push	OFFSET ??_C@_0BK@MFJBJAAJ@server?1snd_doublekill?4wav?$AA@
	push	6
	push	0
	push	0
	mov	eax, DWORD PTR ?gEngfuncs@@3Ucl_enginefuncs_s@@A+336
	mov	ecx, DWORD PTR [eax+4]
	call	ecx
	add	esp, 32					; 00000020H
	jmp	$LN8@MsgFunc_Te
$LN59@MsgFunc_Te:

; 1070 : 			case 9: gEngfuncs.pEventAPI->EV_PlaySound( 0, NULL, CHAN_STATIC, "server/snd_triplekill.wav", VOL_NORM, 0, 0, PITCH_NORM ); break;

	push	100					; 00000064H
	push	0
	push	ecx
	xorps	xmm0, xmm0
	movss	DWORD PTR [esp], xmm0
	push	ecx
	movss	xmm0, DWORD PTR __real@3f800000
	movss	DWORD PTR [esp], xmm0
	push	OFFSET ??_C@_0BK@JOCFCPDD@server?1snd_triplekill?4wav?$AA@
	push	6
	push	0
	push	0
	mov	eax, DWORD PTR ?gEngfuncs@@3Ucl_enginefuncs_s@@A+336
	mov	ecx, DWORD PTR [eax+4]
	call	ecx
	add	esp, 32					; 00000020H
	jmp	$LN8@MsgFunc_Te
$LN60@MsgFunc_Te:

; 1071 : 			case 10: gEngfuncs.pEventAPI->EV_PlaySound( 0, NULL, CHAN_STATIC, "server/snd_multikill.wav", VOL_NORM, 0, 0, PITCH_NORM ); break;

	push	100					; 00000064H
	push	0
	push	ecx
	xorps	xmm0, xmm0
	movss	DWORD PTR [esp], xmm0
	push	ecx
	movss	xmm0, DWORD PTR __real@3f800000
	movss	DWORD PTR [esp], xmm0
	push	OFFSET ??_C@_0BJ@NCNJKNLB@server?1snd_multikill?4wav?$AA@
	push	6
	push	0
	push	0
	mov	eax, DWORD PTR ?gEngfuncs@@3Ucl_enginefuncs_s@@A+336
	mov	ecx, DWORD PTR [eax+4]
	call	ecx
	add	esp, 32					; 00000020H
	jmp	$LN8@MsgFunc_Te
$LN61@MsgFunc_Te:

; 1072 : 			case 11: gEngfuncs.pEventAPI->EV_PlaySound( 0, NULL, CHAN_STATIC, "server/snd_megakill.wav", VOL_NORM, 0, 0, PITCH_NORM ); break;

	push	100					; 00000064H
	push	0
	push	ecx
	xorps	xmm0, xmm0
	movss	DWORD PTR [esp], xmm0
	push	ecx
	movss	xmm0, DWORD PTR __real@3f800000
	movss	DWORD PTR [esp], xmm0
	push	OFFSET ??_C@_0BI@DEAFKIDC@server?1snd_megakill?4wav?$AA@
	push	6
	push	0
	push	0
	mov	eax, DWORD PTR ?gEngfuncs@@3Ucl_enginefuncs_s@@A+336
	mov	ecx, DWORD PTR [eax+4]
	call	ecx
	add	esp, 32					; 00000020H
	jmp	SHORT $LN8@MsgFunc_Te
$LN62@MsgFunc_Te:

; 1073 : 			case 12: gEngfuncs.pEventAPI->EV_PlaySound( 0, NULL, CHAN_STATIC, "server/snd_ultrakill.wav", VOL_NORM, 0, 0, PITCH_NORM ); break;

	push	100					; 00000064H
	push	0
	push	ecx
	xorps	xmm0, xmm0
	movss	DWORD PTR [esp], xmm0
	push	ecx
	movss	xmm0, DWORD PTR __real@3f800000
	movss	DWORD PTR [esp], xmm0
	push	OFFSET ??_C@_0BJ@EFNGDCGM@server?1snd_ultrakill?4wav?$AA@
	push	6
	push	0
	push	0
	mov	eax, DWORD PTR ?gEngfuncs@@3Ucl_enginefuncs_s@@A+336
	mov	ecx, DWORD PTR [eax+4]
	call	ecx
	add	esp, 32					; 00000020H
	jmp	SHORT $LN8@MsgFunc_Te
$LN63@MsgFunc_Te:

; 1074 : 			case 13: gEngfuncs.pEventAPI->EV_PlaySound( 0, NULL, CHAN_STATIC, "server/snd_monsterkill.wav", VOL_NORM, 0, 0, PITCH_NORM ); break;

	push	100					; 00000064H
	push	0
	push	ecx
	xorps	xmm0, xmm0
	movss	DWORD PTR [esp], xmm0
	push	ecx
	movss	xmm0, DWORD PTR __real@3f800000
	movss	DWORD PTR [esp], xmm0
	push	OFFSET ??_C@_0BL@DBCNCNON@server?1snd_monsterkill?4wav?$AA@
	push	6
	push	0
	push	0
	mov	eax, DWORD PTR ?gEngfuncs@@3Ucl_enginefuncs_s@@A+336
	mov	ecx, DWORD PTR [eax+4]
	call	ecx
	add	esp, 32					; 00000020H
$LN8@MsgFunc_Te:
$LN2@MsgFunc_Te:

; 1075 : 			}
; 1076 : 		}
; 1077 : 	}
; 1078 : 	break;
; 1079 : 
; 1080 : 	}
; 1081 : 
; 1082 : 	END_READ();

	call	?END_READ@@YAXXZ			; END_READ

; 1083 : 	
; 1084 : 	return 1;

	mov	eax, 1
$LN1@MsgFunc_Te:

; 1085 : }

	pop	edi
	pop	esi
	pop	ebx
	mov	ecx, DWORD PTR __$ArrayPad$[ebp]
	xor	ecx, ebp
	call	@__security_check_cookie@4
	mov	esp, ebp
	pop	ebp
	ret	0
	npad	1
$LN97@MsgFunc_Te:
	DD	$LN22@MsgFunc_Te
	DD	$LN15@MsgFunc_Te
	DD	$LN21@MsgFunc_Te
	DD	$LN18@MsgFunc_Te
	DD	$LN23@MsgFunc_Te
	DD	$LN13@MsgFunc_Te
	DD	$LN38@MsgFunc_Te
	DD	$LN17@MsgFunc_Te
	DD	$LN11@MsgFunc_Te
	DD	$LN10@MsgFunc_Te
	DD	$LN16@MsgFunc_Te
	DD	$LN39@MsgFunc_Te
	DD	$LN14@MsgFunc_Te
	DD	$LN41@MsgFunc_Te
	DD	$LN42@MsgFunc_Te
	DD	$LN43@MsgFunc_Te
	DD	$LN49@MsgFunc_Te
	DD	$LN2@MsgFunc_Te
$LN95@MsgFunc_Te:
	DB	0
	DB	17					; 00000011H
	DB	1
	DB	17					; 00000011H
	DB	17					; 00000011H
	DB	17					; 00000011H
	DB	2
	DB	17					; 00000011H
	DB	17					; 00000011H
	DB	17					; 00000011H
	DB	17					; 00000011H
	DB	17					; 00000011H
	DB	17					; 00000011H
	DB	17					; 00000011H
	DB	17					; 00000011H
	DB	17					; 00000011H
	DB	17					; 00000011H
	DB	17					; 00000011H
	DB	17					; 00000011H
	DB	17					; 00000011H
	DB	17					; 00000011H
	DB	17					; 00000011H
	DB	17					; 00000011H
	DB	17					; 00000011H
	DB	3
	DB	17					; 00000011H
	DB	17					; 00000011H
	DB	17					; 00000011H
	DB	17					; 00000011H
	DB	17					; 00000011H
	DB	17					; 00000011H
	DB	17					; 00000011H
	DB	17					; 00000011H
	DB	17					; 00000011H
	DB	17					; 00000011H
	DB	17					; 00000011H
	DB	17					; 00000011H
	DB	17					; 00000011H
	DB	17					; 00000011H
	DB	17					; 00000011H
	DB	17					; 00000011H
	DB	17					; 00000011H
	DB	17					; 00000011H
	DB	17					; 00000011H
	DB	17					; 00000011H
	DB	17					; 00000011H
	DB	17					; 00000011H
	DB	17					; 00000011H
	DB	17					; 00000011H
	DB	17					; 00000011H
	DB	17					; 00000011H
	DB	17					; 00000011H
	DB	17					; 00000011H
	DB	17					; 00000011H
	DB	17					; 00000011H
	DB	17					; 00000011H
	DB	17					; 00000011H
	DB	17					; 00000011H
	DB	17					; 00000011H
	DB	17					; 00000011H
	DB	17					; 00000011H
	DB	17					; 00000011H
	DB	17					; 00000011H
	DB	17					; 00000011H
	DB	17					; 00000011H
	DB	17					; 00000011H
	DB	17					; 00000011H
	DB	17					; 00000011H
	DB	17					; 00000011H
	DB	17					; 00000011H
	DB	17					; 00000011H
	DB	17					; 00000011H
	DB	17					; 00000011H
	DB	17					; 00000011H
	DB	17					; 00000011H
	DB	17					; 00000011H
	DB	17					; 00000011H
	DB	17					; 00000011H
	DB	17					; 00000011H
	DB	17					; 00000011H
	DB	17					; 00000011H
	DB	17					; 00000011H
	DB	17					; 00000011H
	DB	17					; 00000011H
	DB	17					; 00000011H
	DB	17					; 00000011H
	DB	17					; 00000011H
	DB	17					; 00000011H
	DB	17					; 00000011H
	DB	17					; 00000011H
	DB	17					; 00000011H
	DB	17					; 00000011H
	DB	17					; 00000011H
	DB	17					; 00000011H
	DB	17					; 00000011H
	DB	17					; 00000011H
	DB	17					; 00000011H
	DB	17					; 00000011H
	DB	17					; 00000011H
	DB	17					; 00000011H
	DB	17					; 00000011H
	DB	17					; 00000011H
	DB	17					; 00000011H
	DB	17					; 00000011H
	DB	17					; 00000011H
	DB	17					; 00000011H
	DB	4
	DB	17					; 00000011H
	DB	17					; 00000011H
	DB	17					; 00000011H
	DB	17					; 00000011H
	DB	17					; 00000011H
	DB	5
	DB	17					; 00000011H
	DB	17					; 00000011H
	DB	17					; 00000011H
	DB	17					; 00000011H
	DB	17					; 00000011H
	DB	17					; 00000011H
	DB	17					; 00000011H
	DB	17					; 00000011H
	DB	17					; 00000011H
	DB	17					; 00000011H
	DB	17					; 00000011H
	DB	6
	DB	7
	DB	8
	DB	9
	DB	10					; 0000000aH
	DB	11					; 0000000bH
	DB	12					; 0000000cH
	DB	13					; 0000000dH
	DB	14					; 0000000eH
	DB	15					; 0000000fH
	DB	16					; 00000010H
	npad	1
$LN98@MsgFunc_Te:
	DD	$LN32@MsgFunc_Te
	DD	$LN33@MsgFunc_Te
	DD	$LN4@MsgFunc_Te
$LN96@MsgFunc_Te:
	DB	0
	DB	2
	DB	2
	DB	2
	DB	2
	DB	2
	DB	2
	DB	1
	DB	0
	DB	2
	DB	1
	DB	2
	DB	2
	DB	2
	DB	2
	DB	2
	DB	0
	DB	2
	DB	2
	DB	0
$LN99@MsgFunc_Te:
	DD	$LN51@MsgFunc_Te
	DD	$LN52@MsgFunc_Te
	DD	$LN53@MsgFunc_Te
	DD	$LN54@MsgFunc_Te
	DD	$LN55@MsgFunc_Te
	DD	$LN56@MsgFunc_Te
	DD	$LN57@MsgFunc_Te
	DD	$LN58@MsgFunc_Te
	DD	$LN59@MsgFunc_Te
	DD	$LN60@MsgFunc_Te
	DD	$LN61@MsgFunc_Te
	DD	$LN62@MsgFunc_Te
	DD	$LN63@MsgFunc_Te
?MsgFunc_TempEnt@CHud@@QAAHPBDHPAX@Z ENDP		; CHud::MsgFunc_TempEnt
_TEXT	ENDS
; Function compile flags: /Odtp /ZI
; File d:\!diffusion 2020\source code 2022\client-server\client\hud_msg.cpp
;	COMDAT ?MsgFunc_SetupBones@CHud@@QAAHPBDHPAX@Z
_TEXT	SEGMENT
_ent$ = -28						; size = 4
_i$2 = -24						; size = 4
_boneCount$ = -20					; size = 4
_entityIndex$ = -16					; size = 4
__$EHRec$ = -12						; size = 12
_this$ = 8						; size = 4
_pszName$ = 12						; size = 4
_iSize$ = 16						; size = 4
_pbuf$ = 20						; size = 4
?MsgFunc_SetupBones@CHud@@QAAHPBDHPAX@Z PROC		; CHud::MsgFunc_SetupBones, COMDAT

; 634  : {

	push	ebp
	mov	ebp, esp
	push	-1
	push	__ehhandler$?MsgFunc_SetupBones@CHud@@QAAHPBDHPAX@Z
	mov	eax, DWORD PTR fs:0
	push	eax
	sub	esp, 80					; 00000050H
	push	ebx
	push	esi
	push	edi
	mov	eax, DWORD PTR ___security_cookie
	xor	eax, ebp
	push	eax
	lea	eax, DWORD PTR __$EHRec$[ebp]
	mov	DWORD PTR fs:0, eax

; 635  : 	static Vector pos[MAXSTUDIOBONES];

	mov	eax, DWORD PTR __tls_index
	mov	ecx, DWORD PTR fs:__tls_array
	mov	edx, DWORD PTR [ecx+eax*4]
	mov	eax, DWORD PTR ?$TSS0@?1??MsgFunc_SetupBones@CHud@@QAAHPBDHPAX@Z@4HA
	cmp	eax, DWORD PTR __Init_thread_epoch[edx]
	jle	SHORT $LN2@MsgFunc_Se
	push	OFFSET ?$TSS0@?1??MsgFunc_SetupBones@CHud@@QAAHPBDHPAX@Z@4HA
	call	__Init_thread_header
	add	esp, 4
	cmp	DWORD PTR ?$TSS0@?1??MsgFunc_SetupBones@CHud@@QAAHPBDHPAX@Z@4HA, -1
	jne	SHORT $LN2@MsgFunc_Se
	mov	DWORD PTR __$EHRec$[ebp+8], 0
	push	OFFSET ??0Vector@@QAE@XZ		; Vector::Vector
	push	128					; 00000080H
	push	12					; 0000000cH
	push	OFFSET ?pos@?1??MsgFunc_SetupBones@CHud@@QAAHPBDHPAX@Z@4PAVVector@@A
	call	??_H@YGXPAXIIP6EPAX0@Z@Z
	mov	DWORD PTR __$EHRec$[ebp+8], -1
	push	OFFSET ?$TSS0@?1??MsgFunc_SetupBones@CHud@@QAAHPBDHPAX@Z@4HA
	call	__Init_thread_footer
	add	esp, 4
$LN2@MsgFunc_Se:

; 636  : 	static Radian ang[MAXSTUDIOBONES];

	mov	eax, DWORD PTR __tls_index
	mov	ecx, DWORD PTR fs:__tls_array
	mov	edx, DWORD PTR [ecx+eax*4]
	mov	eax, DWORD PTR ?$TSS1@?1??MsgFunc_SetupBones@CHud@@QAAHPBDHPAX@Z@4HA
	cmp	eax, DWORD PTR __Init_thread_epoch[edx]
	jle	SHORT $LN3@MsgFunc_Se
	push	OFFSET ?$TSS1@?1??MsgFunc_SetupBones@CHud@@QAAHPBDHPAX@Z@4HA
	call	__Init_thread_header
	add	esp, 4
	cmp	DWORD PTR ?$TSS1@?1??MsgFunc_SetupBones@CHud@@QAAHPBDHPAX@Z@4HA, -1
	jne	SHORT $LN3@MsgFunc_Se
	mov	DWORD PTR __$EHRec$[ebp+8], 1
	push	OFFSET ??0Radian@@QAE@XZ		; Radian::Radian
	push	128					; 00000080H
	push	12					; 0000000cH
	push	OFFSET ?ang@?1??MsgFunc_SetupBones@CHud@@QAAHPBDHPAX@Z@4PAVRadian@@A
	call	??_H@YGXPAXIIP6EPAX0@Z@Z
	mov	DWORD PTR __$EHRec$[ebp+8], -1
	push	OFFSET ?$TSS1@?1??MsgFunc_SetupBones@CHud@@QAAHPBDHPAX@Z@4HA
	call	__Init_thread_footer
	add	esp, 4
$LN3@MsgFunc_Se:

; 637  : 
; 638  : 	BEGIN_READ( pszName, pbuf, iSize );

	mov	eax, DWORD PTR _iSize$[ebp]
	push	eax
	mov	ecx, DWORD PTR _pbuf$[ebp]
	push	ecx
	mov	edx, DWORD PTR _pszName$[ebp]
	push	edx
	call	?BEGIN_READ@@YAXPBDPAXH@Z		; BEGIN_READ
	add	esp, 12					; 0000000cH

; 639  : 		int entityIndex = READ_SHORT();

	call	?READ_SHORT@@YAHXZ			; READ_SHORT
	mov	DWORD PTR _entityIndex$[ebp], eax

; 640  : 		int boneCount = READ_BYTE();

	call	?READ_BYTE@@YAHXZ			; READ_BYTE
	mov	DWORD PTR _boneCount$[ebp], eax

; 641  : 		for( int i = 0; i < boneCount; i++ )

	mov	DWORD PTR _i$2[ebp], 0
	jmp	SHORT $LN6@MsgFunc_Se
$LN4@MsgFunc_Se:
	mov	eax, DWORD PTR _i$2[ebp]
	add	eax, 1
	mov	DWORD PTR _i$2[ebp], eax
$LN6@MsgFunc_Se:
	mov	eax, DWORD PTR _i$2[ebp]
	cmp	eax, DWORD PTR _boneCount$[ebp]
	jge	$LN5@MsgFunc_Se

; 642  : 		{
; 643  : 			pos[i].x = (float)READ_SHORT() * (1.0f/128.0f);

	call	?READ_SHORT@@YAHXZ			; READ_SHORT
	cvtsi2ss xmm0, eax
	mulss	xmm0, DWORD PTR __real@3c000000
	imul	eax, DWORD PTR _i$2[ebp], 12
	movss	DWORD PTR ?pos@?1??MsgFunc_SetupBones@CHud@@QAAHPBDHPAX@Z@4PAVVector@@A[eax], xmm0

; 644  : 			pos[i].y = (float)READ_SHORT() * (1.0f/128.0f);

	call	?READ_SHORT@@YAHXZ			; READ_SHORT
	cvtsi2ss xmm0, eax
	mulss	xmm0, DWORD PTR __real@3c000000
	imul	eax, DWORD PTR _i$2[ebp], 12
	movss	DWORD PTR ?pos@?1??MsgFunc_SetupBones@CHud@@QAAHPBDHPAX@Z@4PAVVector@@A[eax+4], xmm0

; 645  : 			pos[i].z = (float)READ_SHORT() * (1.0f/128.0f);

	call	?READ_SHORT@@YAHXZ			; READ_SHORT
	cvtsi2ss xmm0, eax
	mulss	xmm0, DWORD PTR __real@3c000000
	imul	eax, DWORD PTR _i$2[ebp], 12
	movss	DWORD PTR ?pos@?1??MsgFunc_SetupBones@CHud@@QAAHPBDHPAX@Z@4PAVVector@@A[eax+8], xmm0

; 646  : 			ang[i].x = (float)READ_SHORT() * (1.0f/512.0f);

	call	?READ_SHORT@@YAHXZ			; READ_SHORT
	cvtsi2ss xmm0, eax
	mulss	xmm0, DWORD PTR __real@3b000000
	imul	eax, DWORD PTR _i$2[ebp], 12
	movss	DWORD PTR ?ang@?1??MsgFunc_SetupBones@CHud@@QAAHPBDHPAX@Z@4PAVRadian@@A[eax], xmm0

; 647  : 			ang[i].y = (float)READ_SHORT() * (1.0f/512.0f);

	call	?READ_SHORT@@YAHXZ			; READ_SHORT
	cvtsi2ss xmm0, eax
	mulss	xmm0, DWORD PTR __real@3b000000
	imul	eax, DWORD PTR _i$2[ebp], 12
	movss	DWORD PTR ?ang@?1??MsgFunc_SetupBones@CHud@@QAAHPBDHPAX@Z@4PAVRadian@@A[eax+4], xmm0

; 648  : 			ang[i].z = (float)READ_SHORT() * (1.0f/512.0f);

	call	?READ_SHORT@@YAHXZ			; READ_SHORT
	cvtsi2ss xmm0, eax
	mulss	xmm0, DWORD PTR __real@3b000000
	imul	eax, DWORD PTR _i$2[ebp], 12
	movss	DWORD PTR ?ang@?1??MsgFunc_SetupBones@CHud@@QAAHPBDHPAX@Z@4PAVRadian@@A[eax+8], xmm0

; 649  : 		}

	jmp	$LN4@MsgFunc_Se
$LN5@MsgFunc_Se:

; 650  : 	END_READ();	

	call	?END_READ@@YAXXZ			; END_READ

; 651  : 
; 652  : 	cl_entity_t *ent = GET_ENTITY( entityIndex );

	mov	eax, DWORD PTR _entityIndex$[ebp]
	push	eax
	call	DWORD PTR ?gEngfuncs@@3Ucl_enginefuncs_s@@A+212
	add	esp, 4
	mov	DWORD PTR _ent$[ebp], eax

; 653  : 
; 654  : 	if( !ent )

	cmp	DWORD PTR _ent$[ebp], 0
	jne	SHORT $LN7@MsgFunc_Se

; 655  : 	{
; 656  : 		// something very bad happens...
; 657  : 		ALERT( at_error, "SetupBones: ent == NULL\n" );

	push	OFFSET ??_C@_0BJ@KFJKELA@SetupBones?3?5ent?5?$DN?$DN?5NULL?6?$AA@
	push	4
	call	?ALERT@@YAXW4ALERT_TYPE@@PADZZ		; ALERT
	add	esp, 8

; 658  : 
; 659  : 		return 1;

	mov	eax, 1
	jmp	SHORT $LN1@MsgFunc_Se
$LN7@MsgFunc_Se:

; 660  : 	}
; 661  : 
; 662  : 	R_StudioSetBonesExternal( ent, pos, ang );

	push	OFFSET ?ang@?1??MsgFunc_SetupBones@CHud@@QAAHPBDHPAX@Z@4PAVRadian@@A
	push	OFFSET ?pos@?1??MsgFunc_SetupBones@CHud@@QAAHPBDHPAX@Z@4PAVVector@@A
	mov	eax, DWORD PTR _ent$[ebp]
	push	eax
	call	?R_StudioSetBonesExternal@@YAXPBUcl_entity_s@@QBVVector@@QBVRadian@@@Z ; R_StudioSetBonesExternal
	add	esp, 12					; 0000000cH

; 663  : 
; 664  : 	return 1;

	mov	eax, 1
$LN1@MsgFunc_Se:

; 665  : }

	mov	ecx, DWORD PTR __$EHRec$[ebp]
	mov	DWORD PTR fs:0, ecx
	pop	ecx
	pop	edi
	pop	esi
	pop	ebx
	mov	esp, ebp
	pop	ebp
	ret	0
_TEXT	ENDS
;	COMDAT text$x
text$x	SEGMENT
__unwindfunclet$?MsgFunc_SetupBones@CHud@@QAAHPBDHPAX@Z$0:
	push	OFFSET ?$TSS0@?1??MsgFunc_SetupBones@CHud@@QAAHPBDHPAX@Z@4HA
	call	__Init_thread_abort
	pop	ecx
	ret	0
__unwindfunclet$?MsgFunc_SetupBones@CHud@@QAAHPBDHPAX@Z$1:
	push	OFFSET ?$TSS1@?1??MsgFunc_SetupBones@CHud@@QAAHPBDHPAX@Z@4HA
	call	__Init_thread_abort
	pop	ecx
	ret	0
__ehhandler$?MsgFunc_SetupBones@CHud@@QAAHPBDHPAX@Z:
	mov	edx, DWORD PTR [esp+8]
	lea	eax, DWORD PTR [edx+12]
	mov	ecx, DWORD PTR [edx-96]
	xor	ecx, eax
	call	@__security_check_cookie@4
	mov	eax, OFFSET __ehfuncinfo$?MsgFunc_SetupBones@CHud@@QAAHPBDHPAX@Z
	jmp	___CxxFrameHandler3
text$x	ENDS
?MsgFunc_SetupBones@CHud@@QAAHPBDHPAX@Z ENDP		; CHud::MsgFunc_SetupBones
; Function compile flags: /Odtp /ZI
; File d:\!diffusion 2020\source code 2022\client-server\client\hud_msg.cpp
;	COMDAT ?MsgFunc_StudioDecal@CHud@@QAAHPBDHPAX@Z
_TEXT	SEGMENT
_decalTexture$ = -452					; size = 4
_angles$ = -448						; size = 12
_origin$ = -436						; size = 12
_savestate$ = -424					; size = 340
_ent$ = -84						; size = 4
_cacheID$ = -80						; size = 4
_state$ = -76						; size = 30
_flags$ = -44						; size = 4
_modelIndex$ = -40					; size = 4
_entityIndex$ = -36					; size = 4
_decalIndex$ = -32					; size = 4
_vecSrc$ = -28						; size = 12
_vecEnd$ = -16						; size = 12
__$ArrayPad$ = -4					; size = 4
_this$ = 8						; size = 4
_pszName$ = 12						; size = 4
_iSize$ = 16						; size = 4
_pbuf$ = 20						; size = 4
?MsgFunc_StudioDecal@CHud@@QAAHPBDHPAX@Z PROC		; CHud::MsgFunc_StudioDecal, COMDAT

; 545  : {

	push	ebp
	mov	ebp, esp
	sub	esp, 516				; 00000204H
	mov	eax, DWORD PTR ___security_cookie
	xor	eax, ebp
	mov	DWORD PTR __$ArrayPad$[ebp], eax
	push	ebx
	push	esi
	push	edi

; 546  : 	return 1; // diffusion - studiodecalsfpslossissue

	mov	eax, 1
	jmp	$LN1@MsgFunc_St

; 547  : 	
; 548  : 	Vector vecEnd, vecSrc;

	lea	ecx, DWORD PTR _vecEnd$[ebp]
	call	??0Vector@@QAE@XZ			; Vector::Vector
	lea	ecx, DWORD PTR _vecSrc$[ebp]
	call	??0Vector@@QAE@XZ			; Vector::Vector

; 549  : 
; 550  : 	if( !g_fRenderInitialized )

	cmp	DWORD PTR ?g_fRenderInitialized@@3HA, 0	; g_fRenderInitialized
	jne	SHORT $LN2@MsgFunc_St

; 551  : 		return 1;

	mov	eax, 1
	jmp	$LN1@MsgFunc_St
$LN2@MsgFunc_St:

; 552  : 
; 553  : 	BEGIN_READ( pszName, pbuf, iSize );

	mov	eax, DWORD PTR _iSize$[ebp]
	push	eax
	mov	ecx, DWORD PTR _pbuf$[ebp]
	push	ecx
	mov	edx, DWORD PTR _pszName$[ebp]
	push	edx
	call	?BEGIN_READ@@YAXPBDPAXH@Z		; BEGIN_READ
	add	esp, 12					; 0000000cH

; 554  : 
; 555  : 	vecEnd.x = READ_COORD();

	call	?READ_COORD@@YAMXZ			; READ_COORD
	fstp	DWORD PTR _vecEnd$[ebp]

; 556  : 	vecEnd.y = READ_COORD();

	call	?READ_COORD@@YAMXZ			; READ_COORD
	fstp	DWORD PTR _vecEnd$[ebp+4]

; 557  : 	vecEnd.z = READ_COORD();

	call	?READ_COORD@@YAMXZ			; READ_COORD
	fstp	DWORD PTR _vecEnd$[ebp+8]

; 558  : 	vecSrc.x = READ_COORD();

	call	?READ_COORD@@YAMXZ			; READ_COORD
	fstp	DWORD PTR _vecSrc$[ebp]

; 559  : 	vecSrc.y = READ_COORD();

	call	?READ_COORD@@YAMXZ			; READ_COORD
	fstp	DWORD PTR _vecSrc$[ebp+4]

; 560  : 	vecSrc.z = READ_COORD();

	call	?READ_COORD@@YAMXZ			; READ_COORD
	fstp	DWORD PTR _vecSrc$[ebp+8]

; 561  : 	int decalIndex = READ_SHORT();

	call	?READ_SHORT@@YAHXZ			; READ_SHORT
	mov	DWORD PTR _decalIndex$[ebp], eax

; 562  : 	int entityIndex = READ_SHORT();

	call	?READ_SHORT@@YAHXZ			; READ_SHORT
	mov	DWORD PTR _entityIndex$[ebp], eax

; 563  : 	int modelIndex = READ_SHORT();

	call	?READ_SHORT@@YAHXZ			; READ_SHORT
	mov	DWORD PTR _modelIndex$[ebp], eax

; 564  : 	int flags = READ_BYTE();

	call	?READ_BYTE@@YAHXZ			; READ_BYTE
	mov	DWORD PTR _flags$[ebp], eax

; 565  : 
; 566  : 	modelstate_t state;
; 567  : 	state.sequence = READ_SHORT();

	call	?READ_SHORT@@YAHXZ			; READ_SHORT
	mov	WORD PTR _state$[ebp], ax

; 568  : 	state.frame = READ_SHORT();

	call	?READ_SHORT@@YAHXZ			; READ_SHORT
	mov	WORD PTR _state$[ebp+2], ax

; 569  : 	state.blending[0] = READ_BYTE();

	call	?READ_BYTE@@YAHXZ			; READ_BYTE
	mov	ecx, 1
	imul	edx, ecx, 0
	mov	BYTE PTR _state$[ebp+edx+4], al

; 570  : 	state.blending[1] = READ_BYTE();

	call	?READ_BYTE@@YAHXZ			; READ_BYTE
	mov	ecx, 1
	shl	ecx, 0
	mov	BYTE PTR _state$[ebp+ecx+4], al

; 571  : 	state.controller[0] = READ_BYTE();

	call	?READ_BYTE@@YAHXZ			; READ_BYTE
	mov	ecx, 1
	imul	edx, ecx, 0
	mov	BYTE PTR _state$[ebp+edx+6], al

; 572  : 	state.controller[1] = READ_BYTE();

	call	?READ_BYTE@@YAHXZ			; READ_BYTE
	mov	ecx, 1
	shl	ecx, 0
	mov	BYTE PTR _state$[ebp+ecx+6], al

; 573  : 	state.controller[2] = READ_BYTE();

	call	?READ_BYTE@@YAHXZ			; READ_BYTE
	mov	ecx, 1
	shl	ecx, 1
	mov	BYTE PTR _state$[ebp+ecx+6], al

; 574  : 	state.controller[3] = READ_BYTE();

	call	?READ_BYTE@@YAHXZ			; READ_BYTE
	mov	ecx, 1
	imul	edx, ecx, 3
	mov	BYTE PTR _state$[ebp+edx+6], al

; 575  : 	state.body = READ_BYTE();

	call	?READ_BYTE@@YAHXZ			; READ_BYTE
	mov	BYTE PTR _state$[ebp+26], al

; 576  : 	state.skin = READ_BYTE();

	call	?READ_BYTE@@YAHXZ			; READ_BYTE
	mov	BYTE PTR _state$[ebp+27], al

; 577  : 	int cacheID = READ_SHORT();

	call	?READ_SHORT@@YAHXZ			; READ_SHORT
	mov	DWORD PTR _cacheID$[ebp], eax

; 578  : 
; 579  : 	cl_entity_t *ent = GET_ENTITY( entityIndex );

	mov	eax, DWORD PTR _entityIndex$[ebp]
	push	eax
	call	DWORD PTR ?gEngfuncs@@3Ucl_enginefuncs_s@@A+212
	add	esp, 4
	mov	DWORD PTR _ent$[ebp], eax

; 580  : 
; 581  : 	if( !ent )

	cmp	DWORD PTR _ent$[ebp], 0
	jne	SHORT $LN3@MsgFunc_St

; 582  : 	{
; 583  : 		// something very bad happens...
; 584  : 		ALERT( at_error, "StudioDecal: ent == NULL\n" );

	push	OFFSET ??_C@_0BK@IKHONLAJ@StudioDecal?3?5ent?5?$DN?$DN?5NULL?6?$AA@
	push	4
	call	?ALERT@@YAXW4ALERT_TYPE@@PADZZ		; ALERT
	add	esp, 8

; 585  : 		END_READ();

	call	?END_READ@@YAXXZ			; END_READ

; 586  : 
; 587  : 		return 1;

	mov	eax, 1
	jmp	$LN1@MsgFunc_St
$LN3@MsgFunc_St:

; 588  : 	}
; 589  : 
; 590  : 	entity_state_t savestate = ent->curstate;

	mov	eax, DWORD PTR _ent$[ebp]
	add	eax, 688				; 000002b0H
	push	eax
	lea	ecx, DWORD PTR _savestate$[ebp]
	call	??0entity_state_s@@QAE@ABU0@@Z

; 591  : 	Vector origin = ent->origin;

	mov	eax, DWORD PTR _ent$[ebp]
	add	eax, 2888				; 00000b48H
	push	eax
	lea	ecx, DWORD PTR _origin$[ebp]
	call	??0Vector@@QAE@ABV0@@Z			; Vector::Vector

; 592  : 	Vector angles = ent->angles;

	mov	eax, DWORD PTR _ent$[ebp]
	add	eax, 2900				; 00000b54H
	push	eax
	lea	ecx, DWORD PTR _angles$[ebp]
	call	??0Vector@@QAE@ABV0@@Z			; Vector::Vector

; 593  : 
; 594  : 	int decalTexture = gEngfuncs.pEfxAPI->Draw_DecalIndex( decalIndex );

	mov	eax, DWORD PTR _decalIndex$[ebp]
	push	eax
	mov	ecx, DWORD PTR ?gEngfuncs@@3Ucl_enginefuncs_s@@A+332
	mov	edx, DWORD PTR [ecx+204]
	call	edx
	add	esp, 4
	mov	DWORD PTR _decalTexture$[ebp], eax

; 595  : 	if( !ent->model && modelIndex != 0 )

	mov	eax, DWORD PTR _ent$[ebp]
	cmp	DWORD PTR [eax+2964], 0
	jne	SHORT $LN4@MsgFunc_St
	cmp	DWORD PTR _modelIndex$[ebp], 0
	je	SHORT $LN4@MsgFunc_St

; 596  : 		ent->model = IEngineStudio.GetModelByIndex( modelIndex );

	mov	eax, DWORD PTR _modelIndex$[ebp]
	push	eax
	call	DWORD PTR ?IEngineStudio@@3Uengine_studio_api_s@@A+20
	add	esp, 4
	mov	ecx, DWORD PTR _ent$[ebp]
	mov	DWORD PTR [ecx+2964], eax
$LN4@MsgFunc_St:

; 597  : 
; 598  : 	// setup model pose for decal shooting
; 599  : 	ent->curstate.sequence = state.sequence;

	movsx	eax, WORD PTR _state$[ebp]
	mov	ecx, DWORD PTR _ent$[ebp]
	mov	DWORD PTR [ecx+732], eax

; 600  : 	ent->curstate.frame = (float)state.frame * (1.0f / 8.0f);

	movsx	eax, WORD PTR _state$[ebp+2]
	cvtsi2ss xmm0, eax
	mulss	xmm0, DWORD PTR __real@3e000000
	mov	ecx, DWORD PTR _ent$[ebp]
	movss	DWORD PTR [ecx+736], xmm0

; 601  : 	ent->curstate.blending[0] = state.blending[0];

	mov	eax, 1
	imul	ecx, eax, 0
	mov	edx, 1
	imul	eax, edx, 0
	mov	edx, DWORD PTR _ent$[ebp]
	mov	cl, BYTE PTR _state$[ebp+ecx+4]
	mov	BYTE PTR [edx+eax+796], cl

; 602  : 	ent->curstate.blending[1] = state.blending[1];

	mov	eax, 1
	shl	eax, 0
	mov	ecx, 1
	shl	ecx, 0
	mov	edx, DWORD PTR _ent$[ebp]
	mov	al, BYTE PTR _state$[ebp+eax+4]
	mov	BYTE PTR [edx+ecx+796], al

; 603  : 	ent->curstate.controller[0] = state.controller[0];

	mov	eax, 1
	imul	ecx, eax, 0
	mov	edx, 1
	imul	eax, edx, 0
	mov	edx, DWORD PTR _ent$[ebp]
	mov	cl, BYTE PTR _state$[ebp+ecx+6]
	mov	BYTE PTR [edx+eax+792], cl

; 604  : 	ent->curstate.controller[1] = state.controller[1];

	mov	eax, 1
	shl	eax, 0
	mov	ecx, 1
	shl	ecx, 0
	mov	edx, DWORD PTR _ent$[ebp]
	mov	al, BYTE PTR _state$[ebp+eax+6]
	mov	BYTE PTR [edx+ecx+792], al

; 605  : 	ent->curstate.controller[2] = state.controller[2];

	mov	eax, 1
	shl	eax, 1
	mov	ecx, 1
	shl	ecx, 1
	mov	edx, DWORD PTR _ent$[ebp]
	mov	al, BYTE PTR _state$[ebp+eax+6]
	mov	BYTE PTR [edx+ecx+792], al

; 606  : 	ent->curstate.controller[3] = state.controller[3];

	mov	eax, 1
	imul	ecx, eax, 3
	mov	edx, 1
	imul	eax, edx, 3
	mov	edx, DWORD PTR _ent$[ebp]
	mov	cl, BYTE PTR _state$[ebp+ecx+6]
	mov	BYTE PTR [edx+eax+792], cl

; 607  : 	ent->curstate.body = state.body;

	movzx	eax, BYTE PTR _state$[ebp+26]
	mov	ecx, DWORD PTR _ent$[ebp]
	mov	DWORD PTR [ecx+788], eax

; 608  : 	ent->curstate.skin = state.skin;

	movzx	ax, BYTE PTR _state$[ebp+27]
	mov	ecx, DWORD PTR _ent$[ebp]
	mov	WORD PTR [ecx+744], ax

; 609  : 
; 610  : 	if( cacheID )

	cmp	DWORD PTR _cacheID$[ebp], 0
	je	SHORT $LN5@MsgFunc_St

; 611  : 	{
; 612  : 		// tell the code about vertex lighting
; 613  : 		SetBits( ent->curstate.iuser1, CF_STATIC_ENTITY );

	mov	eax, DWORD PTR _ent$[ebp]
	mov	ecx, DWORD PTR [eax+948]
	or	ecx, 64					; 00000040H
	mov	edx, DWORD PTR _ent$[ebp]
	mov	DWORD PTR [edx+948], ecx

; 614  : 		ent->curstate.iuser3 = cacheID;

	mov	eax, DWORD PTR _ent$[ebp]
	mov	ecx, DWORD PTR _cacheID$[ebp]
	mov	DWORD PTR [eax+956], ecx
$LN5@MsgFunc_St:

; 615  : 	}
; 616  : 
; 617  : //	double start = Sys_DoubleTime();
; 618  : 
; 619  : 	R_StudioDecalShoot( decalTexture, ent, vecSrc, vecEnd, flags, &state );

	lea	eax, DWORD PTR _state$[ebp]
	push	eax
	mov	ecx, DWORD PTR _flags$[ebp]
	push	ecx
	lea	ecx, DWORD PTR _vecEnd$[ebp]
	call	??BVector@@QAEPAMXZ			; Vector::operator float *
	push	eax
	lea	ecx, DWORD PTR _vecSrc$[ebp]
	call	??BVector@@QAEPAMXZ			; Vector::operator float *
	push	eax
	mov	edx, DWORD PTR _ent$[ebp]
	push	edx
	mov	eax, DWORD PTR _decalTexture$[ebp]
	push	eax
	call	?R_StudioDecalShoot@@YAXHPAUcl_entity_s@@PBM1HPAUmodelstate_s@@@Z ; R_StudioDecalShoot
	add	esp, 24					; 00000018H

; 620  : 
; 621  : //	ALERT( at_console, "ShootDecal: buildtime %g\n", Sys_DoubleTime() - start );
; 622  : 
; 623  : 	// restore original state
; 624  : 	ent->curstate = savestate;

	mov	edi, DWORD PTR _ent$[ebp]
	add	edi, 688				; 000002b0H
	mov	ecx, 85					; 00000055H
	lea	esi, DWORD PTR _savestate$[ebp]
	rep movsd

; 625  : 	ent->origin = origin;

	mov	eax, DWORD PTR _ent$[ebp]
	add	eax, 2888				; 00000b48H
	mov	ecx, DWORD PTR _origin$[ebp]
	mov	DWORD PTR [eax], ecx
	mov	edx, DWORD PTR _origin$[ebp+4]
	mov	DWORD PTR [eax+4], edx
	mov	ecx, DWORD PTR _origin$[ebp+8]
	mov	DWORD PTR [eax+8], ecx

; 626  : 	ent->angles = angles;

	mov	eax, DWORD PTR _ent$[ebp]
	add	eax, 2900				; 00000b54H
	mov	ecx, DWORD PTR _angles$[ebp]
	mov	DWORD PTR [eax], ecx
	mov	edx, DWORD PTR _angles$[ebp+4]
	mov	DWORD PTR [eax+4], edx
	mov	ecx, DWORD PTR _angles$[ebp+8]
	mov	DWORD PTR [eax+8], ecx

; 627  : 
; 628  : 	END_READ();

	call	?END_READ@@YAXXZ			; END_READ

; 629  : 
; 630  : 	return 1;

	mov	eax, 1
$LN1@MsgFunc_St:

; 631  : }

	pop	edi
	pop	esi
	pop	ebx
	mov	ecx, DWORD PTR __$ArrayPad$[ebp]
	xor	ecx, ebp
	call	@__security_check_cookie@4
	mov	esp, ebp
	pop	ebp
	ret	0
?MsgFunc_StudioDecal@CHud@@QAAHPBDHPAX@Z ENDP		; CHud::MsgFunc_StudioDecal
_TEXT	ENDS
; Function compile flags: /Odtp /ZI
; File d:\!diffusion 2020\source code 2022\client-server\client\hud_msg.cpp
;	COMDAT ?MsgFunc_Weapons@CHud@@QAAHPBDHPAX@Z
_TEXT	SEGMENT
_this$ = 8						; size = 4
_pszName$ = 12						; size = 4
_iSize$ = 16						; size = 4
_pbuf$ = 20						; size = 4
?MsgFunc_Weapons@CHud@@QAAHPBDHPAX@Z PROC		; CHud::MsgFunc_Weapons, COMDAT

; 148  : {

	push	ebp
	mov	ebp, esp
	sub	esp, 64					; 00000040H
	push	ebx
	push	esi
	push	edi

; 149  : 	BEGIN_READ( pszName, pbuf, iSize );

	mov	eax, DWORD PTR _iSize$[ebp]
	push	eax
	mov	ecx, DWORD PTR _pbuf$[ebp]
	push	ecx
	mov	edx, DWORD PTR _pszName$[ebp]
	push	edx
	call	?BEGIN_READ@@YAXPBDPAXH@Z		; BEGIN_READ
	add	esp, 12					; 0000000cH

; 150  : 
; 151  : 	// update weapon bits
; 152  : 	READ_BYTES( m_iWeaponBits, MAX_WEAPON_BYTES );

	push	8
	mov	eax, DWORD PTR _this$[ebp]
	add	eax, 8964				; 00002304H
	push	eax
	call	?READ_BYTES@@YAXPAEH@Z			; READ_BYTES
	add	esp, 8

; 153  : 
; 154  : 	END_READ();

	call	?END_READ@@YAXXZ			; END_READ

; 155  : 
; 156  : 	return 1;

	mov	eax, 1

; 157  : }

	pop	edi
	pop	esi
	pop	ebx
	mov	esp, ebp
	pop	ebp
	ret	0
?MsgFunc_Weapons@CHud@@QAAHPBDHPAX@Z ENDP		; CHud::MsgFunc_Weapons
_TEXT	ENDS
; Function compile flags: /Odtp /ZI
; File d:\!diffusion 2020\source code 2022\client-server\client\hud_msg.cpp
;	COMDAT ?MsgFunc_MusicFade@CHud@@QAAHPBDHPAX@Z
_TEXT	SEGMENT
_this$ = 8						; size = 4
_pszName$ = 12						; size = 4
_iSize$ = 16						; size = 4
_pbuf$ = 20						; size = 4
?MsgFunc_MusicFade@CHud@@QAAHPBDHPAX@Z PROC		; CHud::MsgFunc_MusicFade, COMDAT

; 680  : {

	push	ebp
	mov	ebp, esp
	sub	esp, 64					; 00000040H
	push	ebx
	push	esi
	push	edi

; 681  : 	BEGIN_READ( pszName, pbuf, iSize );

	mov	eax, DWORD PTR _iSize$[ebp]
	push	eax
	mov	ecx, DWORD PTR _pbuf$[ebp]
	push	ecx
	mov	edx, DWORD PTR _pszName$[ebp]
	push	edx
	call	?BEGIN_READ@@YAXPBDPAXH@Z		; BEGIN_READ
	add	esp, 12					; 0000000cH

; 682  : 
; 683  : 	if( g_fRenderInitialized )

	cmp	DWORD PTR ?g_fRenderInitialized@@3HA, 0	; g_fRenderInitialized
	je	SHORT $LN2@MsgFunc_Mu

; 684  : 		MUSIC_FADE_VOLUME( (float)READ_SHORT() / 100.0f );

	call	?READ_SHORT@@YAHXZ			; READ_SHORT
	cvtsi2ss xmm0, eax
	divss	xmm0, DWORD PTR __real@42c80000
	push	ecx
	movss	DWORD PTR [esp], xmm0
	call	DWORD PTR ?gRenderfuncs@@3Urender_api_s@@A+252
	add	esp, 4
$LN2@MsgFunc_Mu:

; 685  : 
; 686  : 	END_READ();

	call	?END_READ@@YAXXZ			; END_READ

; 687  : 
; 688  : 	return 1;

	mov	eax, 1

; 689  : }

	pop	edi
	pop	esi
	pop	ebx
	mov	esp, ebp
	pop	ebp
	ret	0
?MsgFunc_MusicFade@CHud@@QAAHPBDHPAX@Z ENDP		; CHud::MsgFunc_MusicFade
_TEXT	ENDS
; Function compile flags: /Odtp /ZI
; File d:\!diffusion 2020\source code 2022\client-server\client\hud_msg.cpp
;	COMDAT ?MsgFunc_WeaponAnim@CHud@@QAAHPBDHPAX@Z
_TEXT	SEGMENT
_view$ = -16						; size = 4
_framerate$ = -12					; size = 4
_body$ = -8						; size = 4
_sequence$ = -4						; size = 4
_this$ = 8						; size = 4
_pszName$ = 12						; size = 4
_iSize$ = 16						; size = 4
_pbuf$ = 20						; size = 4
?MsgFunc_WeaponAnim@CHud@@QAAHPBDHPAX@Z PROC		; CHud::MsgFunc_WeaponAnim, COMDAT

; 463  : {

	push	ebp
	mov	ebp, esp
	sub	esp, 80					; 00000050H
	push	ebx
	push	esi
	push	edi

; 464  : 	BEGIN_READ( pszName, pbuf, iSize );

	mov	eax, DWORD PTR _iSize$[ebp]
	push	eax
	mov	ecx, DWORD PTR _pbuf$[ebp]
	push	ecx
	mov	edx, DWORD PTR _pszName$[ebp]
	push	edx
	call	?BEGIN_READ@@YAXPBDPAXH@Z		; BEGIN_READ
	add	esp, 12					; 0000000cH

; 465  : 
; 466  : 	int sequence = READ_BYTE();

	call	?READ_BYTE@@YAHXZ			; READ_BYTE
	mov	DWORD PTR _sequence$[ebp], eax

; 467  : 	int body = READ_BYTE();

	call	?READ_BYTE@@YAHXZ			; READ_BYTE
	mov	DWORD PTR _body$[ebp], eax

; 468  : 	float framerate = 1.0f;// READ_BYTE() * 0.125f;

	movss	xmm0, DWORD PTR __real@3f800000
	movss	DWORD PTR _framerate$[ebp], xmm0

; 469  : 	localanim_WeaponID = READ_BYTE();

	call	?READ_BYTE@@YAHXZ			; READ_BYTE
	mov	DWORD PTR ?localanim_WeaponID@@3HA, eax	; localanim_WeaponID

; 470  : 
; 471  : 	END_READ();

	call	?END_READ@@YAXXZ			; END_READ

; 472  : 
; 473  : 	cl_entity_t *view = GET_VIEWMODEL();

	call	DWORD PTR ?gEngfuncs@@3Ucl_enginefuncs_s@@A+208
	mov	DWORD PTR _view$[ebp], eax

; 474  : 
; 475  : 	// call weaponanim with same body
; 476  : 	// diffusion - check if the animation can be played local (kind of a prediction)
; 477  : 	// if it can, then we already played it, so skip it.
; 478  : 	if( !CheckForLocalWeaponShootAnimation( sequence ) )

	mov	eax, DWORD PTR _sequence$[ebp]
	push	eax
	call	?CheckForLocalWeaponShootAnimation@@YA_NH@Z ; CheckForLocalWeaponShootAnimation
	add	esp, 4
	movzx	ecx, al
	test	ecx, ecx
	jne	SHORT $LN2@MsgFunc_We

; 479  : 		gEngfuncs.pfnWeaponAnim( sequence, body );

	mov	eax, DWORD PTR _body$[ebp]
	push	eax
	mov	ecx, DWORD PTR _sequence$[ebp]
	push	ecx
	call	DWORD PTR ?gEngfuncs@@3Ucl_enginefuncs_s@@A+264
	add	esp, 8
$LN2@MsgFunc_We:

; 480  : 
; 481  : 	if( framerate > 0.0f )

	movss	xmm0, DWORD PTR _framerate$[ebp]
	comiss	xmm0, DWORD PTR __real@00000000
	jbe	SHORT $LN3@MsgFunc_We

; 482  : 		view->curstate.framerate = framerate;

	mov	eax, DWORD PTR _view$[ebp]
	movss	xmm0, DWORD PTR _framerate$[ebp]
	movss	DWORD PTR [eax+784], xmm0
	jmp	SHORT $LN4@MsgFunc_We
$LN3@MsgFunc_We:

; 483  : 	else view->curstate.framerate = 1.0f;

	mov	eax, DWORD PTR _view$[ebp]
	movss	xmm0, DWORD PTR __real@3f800000
	movss	DWORD PTR [eax+784], xmm0
$LN4@MsgFunc_We:

; 484  : #if 0
; 485  : 	// just for test Glow Shell effect
; 486  : 	view->curstate.renderfx = kRenderFxGlowShell;
; 487  : 	view->curstate.rendercolor.r = 255;
; 488  : 	view->curstate.rendercolor.g = 255;
; 489  : 	view->curstate.rendercolor.b = 255;
; 490  : 	view->curstate.renderamt = 100;
; 491  : #endif	
; 492  : 	return 1;

	mov	eax, 1

; 493  : }

	pop	edi
	pop	esi
	pop	ebx
	mov	esp, ebp
	pop	ebp
	ret	0
?MsgFunc_WeaponAnim@CHud@@QAAHPBDHPAX@Z ENDP		; CHud::MsgFunc_WeaponAnim
_TEXT	ENDS
; Function compile flags: /Odtp /ZI
; File d:\!diffusion 2020\source code 2022\client-server\client\hud_msg.cpp
;	COMDAT ?MsgFunc_KillDecals@CHud@@QAAHPBDHPAX@Z
_TEXT	SEGMENT
_ent$ = -8						; size = 4
_entityIndex$ = -4					; size = 4
_this$ = 8						; size = 4
_pszName$ = 12						; size = 4
_iSize$ = 16						; size = 4
_pbuf$ = 20						; size = 4
?MsgFunc_KillDecals@CHud@@QAAHPBDHPAX@Z PROC		; CHud::MsgFunc_KillDecals, COMDAT

; 525  : {

	push	ebp
	mov	ebp, esp
	sub	esp, 72					; 00000048H
	push	ebx
	push	esi
	push	edi

; 526  : 	BEGIN_READ( pszName, pbuf, iSize );

	mov	eax, DWORD PTR _iSize$[ebp]
	push	eax
	mov	ecx, DWORD PTR _pbuf$[ebp]
	push	ecx
	mov	edx, DWORD PTR _pszName$[ebp]
	push	edx
	call	?BEGIN_READ@@YAXPBDPAXH@Z		; BEGIN_READ
	add	esp, 12					; 0000000cH

; 527  : 
; 528  : 	int entityIndex = READ_SHORT();

	call	?READ_SHORT@@YAHXZ			; READ_SHORT
	mov	DWORD PTR _entityIndex$[ebp], eax

; 529  : 
; 530  : 	// diffusion - studiodecalsfpslossissue
; 531  : //	if( g_fRenderInitialized )
; 532  : //		g_StudioRenderer.RemoveAllDecals( entityIndex );
; 533  : 
; 534  : 	cl_entity_t *ent = gEngfuncs.GetEntityByIndex( entityIndex );

	mov	eax, DWORD PTR _entityIndex$[ebp]
	push	eax
	call	DWORD PTR ?gEngfuncs@@3Ucl_enginefuncs_s@@A+212
	add	esp, 4
	mov	DWORD PTR _ent$[ebp], eax

; 535  : 
; 536  : 	if( g_fRenderInitialized && ent->model && ent->model->type == mod_brush )

	cmp	DWORD PTR ?g_fRenderInitialized@@3HA, 0	; g_fRenderInitialized
	je	SHORT $LN2@MsgFunc_Ki
	mov	eax, DWORD PTR _ent$[ebp]
	cmp	DWORD PTR [eax+2964], 0
	je	SHORT $LN2@MsgFunc_Ki
	mov	eax, DWORD PTR _ent$[ebp]
	mov	ecx, DWORD PTR [eax+2964]
	cmp	DWORD PTR [ecx+68], 0
	jne	SHORT $LN2@MsgFunc_Ki

; 537  : 		REMOVE_BSP_DECALS( ent->model );

	mov	eax, DWORD PTR _ent$[ebp]
	mov	ecx, DWORD PTR [eax+2964]
	push	ecx
	call	DWORD PTR ?gRenderfuncs@@3Urender_api_s@@A+88
	add	esp, 4
$LN2@MsgFunc_Ki:

; 538  : 
; 539  : 	END_READ();

	call	?END_READ@@YAXXZ			; END_READ

; 540  : 	
; 541  : 	return 1;

	mov	eax, 1

; 542  : }

	pop	edi
	pop	esi
	pop	ebx
	mov	esp, ebp
	pop	ebp
	ret	0
?MsgFunc_KillDecals@CHud@@QAAHPBDHPAX@Z ENDP		; CHud::MsgFunc_KillDecals
_TEXT	ENDS
; Function compile flags: /Odtp /ZI
; File d:\!diffusion 2020\source code 2022\client-server\client\hud_msg.cpp
;	COMDAT ?MsgFunc_KillPart@CHud@@QAAHPBDHPAX@Z
_TEXT	SEGMENT
_entindex$ = -4						; size = 4
_this$ = 8						; size = 4
_pszName$ = 12						; size = 4
_iSize$ = 16						; size = 4
_pbuf$ = 20						; size = 4
?MsgFunc_KillPart@CHud@@QAAHPBDHPAX@Z PROC		; CHud::MsgFunc_KillPart, COMDAT

; 513  : {

	push	ebp
	mov	ebp, esp
	sub	esp, 68					; 00000044H
	push	ebx
	push	esi
	push	edi

; 514  : 	BEGIN_READ( pszName, pbuf, iSize );

	mov	eax, DWORD PTR _iSize$[ebp]
	push	eax
	mov	ecx, DWORD PTR _pbuf$[ebp]
	push	ecx
	mov	edx, DWORD PTR _pszName$[ebp]
	push	edx
	call	?BEGIN_READ@@YAXPBDPAXH@Z		; BEGIN_READ
	add	esp, 12					; 0000000cH

; 515  : 	int entindex = READ_SHORT();

	call	?READ_SHORT@@YAHXZ			; READ_SHORT
	mov	DWORD PTR _entindex$[ebp], eax

; 516  : 
; 517  : 	UTIL_RemoveAurora( GET_ENTITY( entindex ));

	mov	eax, DWORD PTR _entindex$[ebp]
	push	eax
	call	DWORD PTR ?gEngfuncs@@3Ucl_enginefuncs_s@@A+212
	add	esp, 4
	push	eax
	call	?UTIL_RemoveAurora@@YAXPAUcl_entity_s@@@Z ; UTIL_RemoveAurora
	add	esp, 4

; 518  : 
; 519  : 	END_READ();

	call	?END_READ@@YAXXZ			; END_READ

; 520  : 	
; 521  : 	return 1;

	mov	eax, 1

; 522  : }

	pop	edi
	pop	esi
	pop	ebx
	mov	esp, ebp
	pop	ebp
	ret	0
?MsgFunc_KillPart@CHud@@QAAHPBDHPAX@Z ENDP		; CHud::MsgFunc_KillPart
_TEXT	ENDS
; Function compile flags: /Odtp /ZI
; File d:\!diffusion 2020\source code 2022\client-server\client\hud_msg.cpp
;	COMDAT ?MsgFunc_Particle@CHud@@QAAHPBDHPAX@Z
_TEXT	SEGMENT
_attachment$ = -12					; size = 4
_sz$ = -8						; size = 4
_entindex$ = -4						; size = 4
_this$ = 8						; size = 4
_pszName$ = 12						; size = 4
_iSize$ = 16						; size = 4
_pbuf$ = 20						; size = 4
?MsgFunc_Particle@CHud@@QAAHPBDHPAX@Z PROC		; CHud::MsgFunc_Particle, COMDAT

; 496  : {

	push	ebp
	mov	ebp, esp
	sub	esp, 76					; 0000004cH
	push	ebx
	push	esi
	push	edi

; 497  : 	BEGIN_READ( pszName, pbuf, iSize );

	mov	eax, DWORD PTR _iSize$[ebp]
	push	eax
	mov	ecx, DWORD PTR _pbuf$[ebp]
	push	ecx
	mov	edx, DWORD PTR _pszName$[ebp]
	push	edx
	call	?BEGIN_READ@@YAXPBDPAXH@Z		; BEGIN_READ
	add	esp, 12					; 0000000cH

; 498  : 
; 499  : 	int entindex = READ_SHORT();

	call	?READ_SHORT@@YAHXZ			; READ_SHORT
	mov	DWORD PTR _entindex$[ebp], eax

; 500  : 	char *sz = READ_STRING();

	call	?READ_STRING@@YAPADXZ			; READ_STRING
	mov	DWORD PTR _sz$[ebp], eax

; 501  : 	int attachment = READ_BYTE();

	call	?READ_BYTE@@YAHXZ			; READ_BYTE
	mov	DWORD PTR _attachment$[ebp], eax

; 502  : 
; 503  : 	COM_DefaultExtension( sz, ".aur" );

	push	OFFSET ??_C@_04ILIFLICO@?4aur?$AA@
	mov	eax, DWORD PTR _sz$[ebp]
	push	eax
	call	?COM_DefaultExtension@@YAXPADPBD@Z	; COM_DefaultExtension
	add	esp, 8

; 504  : 
; 505  : 	UTIL_CreateAurora( GET_ENTITY( entindex ), sz, attachment );

	push	ecx
	xorps	xmm0, xmm0
	movss	DWORD PTR [esp], xmm0
	mov	eax, DWORD PTR _attachment$[ebp]
	push	eax
	mov	ecx, DWORD PTR _sz$[ebp]
	push	ecx
	mov	edx, DWORD PTR _entindex$[ebp]
	push	edx
	call	DWORD PTR ?gEngfuncs@@3Ucl_enginefuncs_s@@A+212
	add	esp, 4
	push	eax
	call	?UTIL_CreateAurora@@YAXPAUcl_entity_s@@PBDHM@Z ; UTIL_CreateAurora
	add	esp, 16					; 00000010H

; 506  : 
; 507  : 	END_READ();

	call	?END_READ@@YAXXZ			; END_READ

; 508  : 	
; 509  : 	return 1;

	mov	eax, 1

; 510  : }

	pop	edi
	pop	esi
	pop	ebx
	mov	esp, ebp
	pop	ebp
	ret	0
?MsgFunc_Particle@CHud@@QAAHPBDHPAX@Z ENDP		; CHud::MsgFunc_Particle
_TEXT	ENDS
; Function compile flags: /Odtp /ZI
; File d:\!diffusion 2020\source code 2022\client-server\client\hud_msg.cpp
;	COMDAT ?MsgFunc_SetSkin@CHud@@QAAHPBDHPAX@Z
_TEXT	SEGMENT
_this$ = 8						; size = 4
_pszName$ = 12						; size = 4
_iSize$ = 16						; size = 4
_pbuf$ = 20						; size = 4
?MsgFunc_SetSkin@CHud@@QAAHPBDHPAX@Z PROC		; CHud::MsgFunc_SetSkin, COMDAT

; 280  : {

	push	ebp
	mov	ebp, esp
	sub	esp, 64					; 00000040H
	push	ebx
	push	esi
	push	edi

; 281  : 	BEGIN_READ( pszName, pbuf, iSize );

	mov	eax, DWORD PTR _iSize$[ebp]
	push	eax
	mov	ecx, DWORD PTR _pbuf$[ebp]
	push	ecx
	mov	edx, DWORD PTR _pszName$[ebp]
	push	edx
	call	?BEGIN_READ@@YAXPBDPAXH@Z		; BEGIN_READ
	add	esp, 12					; 0000000cH

; 282  : 
; 283  : 	gEngfuncs.GetViewModel()->curstate.skin = READ_BYTE();

	call	?READ_BYTE@@YAHXZ			; READ_BYTE
	mov	esi, eax
	call	DWORD PTR ?gEngfuncs@@3Ucl_enginefuncs_s@@A+208
	mov	WORD PTR [eax+744], si

; 284  : 
; 285  : 	END_READ();

	call	?END_READ@@YAXXZ			; END_READ

; 286  : 	
; 287  : 	return 1;

	mov	eax, 1

; 288  : }

	pop	edi
	pop	esi
	pop	ebx
	mov	esp, ebp
	pop	ebp
	ret	0
?MsgFunc_SetSkin@CHud@@QAAHPBDHPAX@Z ENDP		; CHud::MsgFunc_SetSkin
_TEXT	ENDS
; Function compile flags: /Odtp /ZI
; File d:\!diffusion 2020\source code 2022\client-server\client\hud_msg.cpp
;	COMDAT ?MsgFunc_SetBody@CHud@@QAAHPBDHPAX@Z
_TEXT	SEGMENT
_this$ = 8						; size = 4
_pszName$ = 12						; size = 4
_iSize$ = 16						; size = 4
_pbuf$ = 20						; size = 4
?MsgFunc_SetBody@CHud@@QAAHPBDHPAX@Z PROC		; CHud::MsgFunc_SetBody, COMDAT

; 269  : {

	push	ebp
	mov	ebp, esp
	sub	esp, 64					; 00000040H
	push	ebx
	push	esi
	push	edi

; 270  : 	BEGIN_READ( pszName, pbuf, iSize );

	mov	eax, DWORD PTR _iSize$[ebp]
	push	eax
	mov	ecx, DWORD PTR _pbuf$[ebp]
	push	ecx
	mov	edx, DWORD PTR _pszName$[ebp]
	push	edx
	call	?BEGIN_READ@@YAXPBDPAXH@Z		; BEGIN_READ
	add	esp, 12					; 0000000cH

; 271  : 
; 272  : 	gEngfuncs.GetViewModel()->curstate.body = READ_BYTE();

	call	?READ_BYTE@@YAHXZ			; READ_BYTE
	mov	esi, eax
	call	DWORD PTR ?gEngfuncs@@3Ucl_enginefuncs_s@@A+208
	mov	DWORD PTR [eax+788], esi

; 273  : 
; 274  : 	END_READ();

	call	?END_READ@@YAXXZ			; END_READ

; 275  : 	
; 276  : 	return 1;

	mov	eax, 1

; 277  : }

	pop	edi
	pop	esi
	pop	ebx
	mov	esp, ebp
	pop	ebp
	ret	0
?MsgFunc_SetBody@CHud@@QAAHPBDHPAX@Z ENDP		; CHud::MsgFunc_SetBody
_TEXT	ENDS
; Function compile flags: /Odtp /ZI
; File d:\!diffusion 2020\source code 2022\client-server\client\hud_msg.cpp
;	COMDAT ?MsgFunc_HUDColor@CHud@@QAAHPBDHPAX@Z
_TEXT	SEGMENT
_this$ = 8						; size = 4
_pszName$ = 12						; size = 4
_iSize$ = 16						; size = 4
_pbuf$ = 20						; size = 4
?MsgFunc_HUDColor@CHud@@QAAHPBDHPAX@Z PROC		; CHud::MsgFunc_HUDColor, COMDAT

; 212  : {

	push	ebp
	mov	ebp, esp
	sub	esp, 64					; 00000040H
	push	ebx
	push	esi
	push	edi

; 213  : 	BEGIN_READ( pszName, pbuf, iSize );

	mov	eax, DWORD PTR _iSize$[ebp]
	push	eax
	mov	ecx, DWORD PTR _pbuf$[ebp]
	push	ecx
	mov	edx, DWORD PTR _pszName$[ebp]
	push	edx
	call	?BEGIN_READ@@YAXPBDPAXH@Z		; BEGIN_READ
	add	esp, 12					; 0000000cH

; 214  : 	m_iHUDColor = READ_LONG();

	call	?READ_LONG@@YAHXZ			; READ_LONG
	mov	ecx, DWORD PTR _this$[ebp]
	mov	DWORD PTR [ecx+108], eax

; 215  : 	END_READ();

	call	?END_READ@@YAXXZ			; END_READ

; 216  : 	
; 217  : 	return 1;

	mov	eax, 1

; 218  : }

	pop	edi
	pop	esi
	pop	ebx
	mov	esp, ebp
	pop	ebp
	ret	0
?MsgFunc_HUDColor@CHud@@QAAHPBDHPAX@Z ENDP		; CHud::MsgFunc_HUDColor
_TEXT	ENDS
; Function compile flags: /Odtp /ZI
; File d:\!diffusion 2020\source code 2022\client-server\client\hud_msg.cpp
;	COMDAT ?MsgFunc_RainData@CHud@@QAAHPBDHPAX@Z
_TEXT	SEGMENT
_this$ = 8						; size = 4
_pszName$ = 12						; size = 4
_iSize$ = 16						; size = 4
_pbuf$ = 20						; size = 4
?MsgFunc_RainData@CHud@@QAAHPBDHPAX@Z PROC		; CHud::MsgFunc_RainData, COMDAT

; 668  : {

	push	ebp
	mov	ebp, esp
	sub	esp, 64					; 00000040H
	push	ebx
	push	esi
	push	edi

; 669  : 	BEGIN_READ( pszName, pbuf, iSize );

	mov	eax, DWORD PTR _iSize$[ebp]
	push	eax
	mov	ecx, DWORD PTR _pbuf$[ebp]
	push	ecx
	mov	edx, DWORD PTR _pszName$[ebp]
	push	edx
	call	?BEGIN_READ@@YAXPBDPAXH@Z		; BEGIN_READ
	add	esp, 12					; 0000000cH

; 670  : 
; 671  : 	if( g_fRenderInitialized )

	cmp	DWORD PTR ?g_fRenderInitialized@@3HA, 0	; g_fRenderInitialized
	je	SHORT $LN2@MsgFunc_Ra

; 672  : 		R_ParseRainMessage();

	call	?R_ParseRainMessage@@YAXXZ		; R_ParseRainMessage
$LN2@MsgFunc_Ra:

; 673  : 
; 674  : 	END_READ();	

	call	?END_READ@@YAXXZ			; END_READ

; 675  : 
; 676  : 	return 1;

	mov	eax, 1

; 677  : }

	pop	edi
	pop	esi
	pop	ebx
	mov	esp, ebp
	pop	ebp
	ret	0
?MsgFunc_RainData@CHud@@QAAHPBDHPAX@Z ENDP		; CHud::MsgFunc_RainData
_TEXT	ENDS
; Function compile flags: /Odtp /ZI
; File d:\!diffusion 2020\source code 2022\client-server\client\hud_msg.cpp
;	COMDAT ?MsgFunc_Concuss@CHud@@QAAHPBDHPAX@Z
_TEXT	SEGMENT
_this$ = 8						; size = 4
_pszName$ = 12						; size = 4
_iSize$ = 16						; size = 4
_pbuf$ = 20						; size = 4
?MsgFunc_Concuss@CHud@@QAAHPBDHPAX@Z PROC		; CHud::MsgFunc_Concuss, COMDAT

; 254  : {

	push	ebp
	mov	ebp, esp
	sub	esp, 64					; 00000040H
	push	ebx
	push	esi
	push	edi

; 255  : 	BEGIN_READ( pszName, pbuf, iSize );

	mov	eax, DWORD PTR _iSize$[ebp]
	push	eax
	mov	ecx, DWORD PTR _pbuf$[ebp]
	push	ecx
	mov	edx, DWORD PTR _pszName$[ebp]
	push	edx
	call	?BEGIN_READ@@YAXPBDPAXH@Z		; BEGIN_READ
	add	esp, 12					; 0000000cH

; 256  : 
; 257  : 	m_iConcussionEffect = READ_BYTE();

	call	?READ_BYTE@@YAHXZ			; READ_BYTE
	mov	ecx, DWORD PTR _this$[ebp]
	mov	DWORD PTR [ecx+20], eax

; 258  : 
; 259  : 	if( m_iConcussionEffect )

	mov	eax, DWORD PTR _this$[ebp]
	cmp	DWORD PTR [eax+20], 0
	je	SHORT $LN2@MsgFunc_Co

; 260  : 		m_StatusIcons.EnableIcon("dmg_concuss", 255, 160, 0 );

	push	0
	push	160					; 000000a0H
	push	255					; 000000ffH
	push	OFFSET ??_C@_0M@GLFMHAAH@dmg_concuss?$AA@
	mov	ecx, DWORD PTR _this$[ebp]
	add	ecx, 1464				; 000005b8H
	call	?EnableIcon@CHudStatusIcons@@QAEXPADEEE@Z ; CHudStatusIcons::EnableIcon
	jmp	SHORT $LN3@MsgFunc_Co
$LN2@MsgFunc_Co:

; 261  : 	else m_StatusIcons.DisableIcon( "dmg_concuss" );

	push	OFFSET ??_C@_0M@GLFMHAAH@dmg_concuss?$AA@
	mov	ecx, DWORD PTR _this$[ebp]
	add	ecx, 1464				; 000005b8H
	call	?DisableIcon@CHudStatusIcons@@QAEXPAD@Z	; CHudStatusIcons::DisableIcon
$LN3@MsgFunc_Co:

; 262  : 
; 263  : 	END_READ();

	call	?END_READ@@YAXXZ			; END_READ

; 264  : 
; 265  : 	return 1;

	mov	eax, 1

; 266  : }

	pop	edi
	pop	esi
	pop	ebx
	mov	esp, ebp
	pop	ebp
	ret	0
?MsgFunc_Concuss@CHud@@QAAHPBDHPAX@Z ENDP		; CHud::MsgFunc_Concuss
_TEXT	ENDS
; Function compile flags: /Odtp /ZI
; File d:\!diffusion 2020\source code 2022\client-server\client\hud_msg.cpp
;	COMDAT ?MsgFunc_SetFOV@CHud@@QAAHPBDHPAX@Z
_TEXT	SEGMENT
_newfov$ = -4						; size = 4
_this$ = 8						; size = 4
_pszName$ = 12						; size = 4
_iSize$ = 16						; size = 4
_pbuf$ = 20						; size = 4
?MsgFunc_SetFOV@CHud@@QAAHPBDHPAX@Z PROC		; CHud::MsgFunc_SetFOV, COMDAT

; 180  : {

	push	ebp
	mov	ebp, esp
	sub	esp, 68					; 00000044H
	push	ebx
	push	esi
	push	edi

; 181  : 	BEGIN_READ( pszName, pbuf, iSize );

	mov	eax, DWORD PTR _iSize$[ebp]
	push	eax
	mov	ecx, DWORD PTR _pbuf$[ebp]
	push	ecx
	mov	edx, DWORD PTR _pszName$[ebp]
	push	edx
	call	?BEGIN_READ@@YAXPBDPAXH@Z		; BEGIN_READ
	add	esp, 12					; 0000000cH

; 182  : 	int newfov = READ_BYTE();

	call	?READ_BYTE@@YAHXZ			; READ_BYTE
	mov	DWORD PTR _newfov$[ebp], eax

; 183  : 	SetFOV( newfov );

	mov	eax, DWORD PTR _newfov$[ebp]
	push	eax
	mov	ecx, DWORD PTR _this$[ebp]
	call	?SetFOV@CHud@@QAEXH@Z			; CHud::SetFOV

; 184  : 	END_READ();

	call	?END_READ@@YAXXZ			; END_READ

; 185  : 	return 1;

	mov	eax, 1

; 186  : }

	pop	edi
	pop	esi
	pop	ebx
	mov	esp, ebp
	pop	ebp
	ret	0
?MsgFunc_SetFOV@CHud@@QAAHPBDHPAX@Z ENDP		; CHud::MsgFunc_SetFOV
_TEXT	ENDS
; Function compile flags: /Odtp /ZI
; File d:\!diffusion 2020\source code 2022\client-server\client\hud_msg.cpp
;	COMDAT ?MsgFunc_ViewMode@CHud@@QAAHPBDHPAX@Z
_TEXT	SEGMENT
_this$ = 8						; size = 4
_pszName$ = 12						; size = 4
_iSize$ = 16						; size = 4
_pbuf$ = 20						; size = 4
?MsgFunc_ViewMode@CHud@@QAAHPBDHPAX@Z PROC		; CHud::MsgFunc_ViewMode, COMDAT

; 160  : {

	push	ebp
	mov	ebp, esp
	sub	esp, 64					; 00000040H
	push	ebx
	push	esi
	push	edi

; 161  : 	return 1;

	mov	eax, 1

; 162  : }

	pop	edi
	pop	esi
	pop	ebx
	mov	esp, ebp
	pop	ebp
	ret	0
?MsgFunc_ViewMode@CHud@@QAAHPBDHPAX@Z ENDP		; CHud::MsgFunc_ViewMode
_TEXT	ENDS
; Function compile flags: /Odtp /ZI
; File d:\!diffusion 2020\source code 2022\client-server\client\hud_msg.cpp
;	COMDAT ?MsgFunc_InitHUD@CHud@@QAAHPBDHPAX@Z
_TEXT	SEGMENT
_pList$ = -4						; size = 4
_this$ = 8						; size = 4
_pszName$ = 12						; size = 4
_iSize$ = 16						; size = 4
_pbuf$ = 20						; size = 4
?MsgFunc_InitHUD@CHud@@QAAHPBDHPAX@Z PROC		; CHud::MsgFunc_InitHUD, COMDAT

; 165  : {

	push	ebp
	mov	ebp, esp
	sub	esp, 68					; 00000044H
	push	ebx
	push	esi
	push	edi

; 166  : 	// prepare all hud data
; 167  : 	HUDLIST *pList = m_pHudList;

	mov	eax, DWORD PTR _this$[ebp]
	mov	ecx, DWORD PTR [eax]
	mov	DWORD PTR _pList$[ebp], ecx
$LN2@MsgFunc_In:

; 168  : 
; 169  : 	while( pList )

	cmp	DWORD PTR _pList$[ebp], 0
	je	SHORT $LN3@MsgFunc_In

; 170  : 	{
; 171  : 		if( pList->p )

	mov	eax, DWORD PTR _pList$[ebp]
	cmp	DWORD PTR [eax], 0
	je	SHORT $LN4@MsgFunc_In

; 172  : 			pList->p->InitHUDData();

	mov	eax, DWORD PTR _pList$[ebp]
	mov	ecx, DWORD PTR [eax]
	mov	edx, DWORD PTR _pList$[ebp]
	mov	eax, DWORD PTR [ecx]
	mov	ecx, DWORD PTR [edx]
	mov	edx, DWORD PTR [eax+24]
	call	edx
$LN4@MsgFunc_In:

; 173  : 		pList = pList->pNext;

	mov	eax, DWORD PTR _pList$[ebp]
	mov	ecx, DWORD PTR [eax+4]
	mov	DWORD PTR _pList$[ebp], ecx

; 174  : 	}

	jmp	SHORT $LN2@MsgFunc_In
$LN3@MsgFunc_In:

; 175  : 
; 176  : 	return 1;

	mov	eax, 1

; 177  : }

	pop	edi
	pop	esi
	pop	ebx
	mov	esp, ebp
	pop	ebp
	ret	0
?MsgFunc_InitHUD@CHud@@QAAHPBDHPAX@Z ENDP		; CHud::MsgFunc_InitHUD
_TEXT	ENDS
; Function compile flags: /Odtp /ZI
; File d:\!diffusion 2020\source code 2022\client-server\client\hud_msg.cpp
;	COMDAT ?MsgFunc_ResetHUD@CHud@@QAAHPBDHPAX@Z
_TEXT	SEGMENT
tv69 = -76						; size = 4
_pList$ = -8						; size = 4
_ResetHUD$ = -1						; size = 1
_this$ = 8						; size = 4
_pszName$ = 12						; size = 4
_iSize$ = 16						; size = 4
_pbuf$ = 20						; size = 4
?MsgFunc_ResetHUD@CHud@@QAAHPBDHPAX@Z PROC		; CHud::MsgFunc_ResetHUD, COMDAT

; 106  : {

	push	ebp
	mov	ebp, esp
	sub	esp, 76					; 0000004cH
	push	ebx
	push	esi
	push	edi

; 107  : 	BEGIN_READ( pszName, pbuf, iSize );

	mov	eax, DWORD PTR _iSize$[ebp]
	push	eax
	mov	ecx, DWORD PTR _pbuf$[ebp]
	push	ecx
	mov	edx, DWORD PTR _pszName$[ebp]
	push	edx
	call	?BEGIN_READ@@YAXPBDPAXH@Z		; BEGIN_READ
	add	esp, 12					; 0000000cH

; 108  : 	bool ResetHUD = (READ_BYTE() > 0);

	call	?READ_BYTE@@YAHXZ			; READ_BYTE
	test	eax, eax
	jle	SHORT $LN7@MsgFunc_Re
	mov	DWORD PTR tv69[ebp], 1
	jmp	SHORT $LN8@MsgFunc_Re
$LN7@MsgFunc_Re:
	mov	DWORD PTR tv69[ebp], 0
$LN8@MsgFunc_Re:
	mov	al, BYTE PTR tv69[ebp]
	mov	BYTE PTR _ResetHUD$[ebp], al

; 109  : 	END_READ();

	call	?END_READ@@YAXXZ			; END_READ

; 110  : 
; 111  : 	if( !ResetHUD )

	movzx	eax, BYTE PTR _ResetHUD$[ebp]
	test	eax, eax
	jne	SHORT $LN4@MsgFunc_Re

; 112  : 		return 1;

	mov	eax, 1
	jmp	SHORT $LN1@MsgFunc_Re
$LN4@MsgFunc_Re:

; 113  : 	
; 114  : 	// clear all hud data
; 115  : 	HUDLIST *pList = m_pHudList;

	mov	eax, DWORD PTR _this$[ebp]
	mov	ecx, DWORD PTR [eax]
	mov	DWORD PTR _pList$[ebp], ecx
$LN2@MsgFunc_Re:

; 116  : 
; 117  : 	while( pList )

	cmp	DWORD PTR _pList$[ebp], 0
	je	SHORT $LN3@MsgFunc_Re

; 118  : 	{
; 119  : 		if( pList->p )

	mov	eax, DWORD PTR _pList$[ebp]
	cmp	DWORD PTR [eax], 0
	je	SHORT $LN5@MsgFunc_Re

; 120  : 			pList->p->Reset();

	mov	eax, DWORD PTR _pList$[ebp]
	mov	ecx, DWORD PTR [eax]
	mov	edx, DWORD PTR _pList$[ebp]
	mov	eax, DWORD PTR [ecx]
	mov	ecx, DWORD PTR [edx]
	mov	edx, DWORD PTR [eax+20]
	call	edx
$LN5@MsgFunc_Re:

; 121  : 		pList = pList->pNext;

	mov	eax, DWORD PTR _pList$[ebp]
	mov	ecx, DWORD PTR [eax+4]
	mov	DWORD PTR _pList$[ebp], ecx

; 122  : 	}

	jmp	SHORT $LN2@MsgFunc_Re
$LN3@MsgFunc_Re:

; 123  : 
; 124  : 	// reset sensitivity
; 125  : 	m_flMouseSensitivity = 0;

	mov	eax, DWORD PTR _this$[ebp]
	xorps	xmm0, xmm0
	movss	DWORD PTR [eax+16], xmm0

; 126  : 
; 127  : 	// reset concussion effect
; 128  : 	m_iConcussionEffect = 0;

	mov	eax, DWORD PTR _this$[ebp]
	mov	DWORD PTR [eax+20], 0

; 129  : 
; 130  : 	g_bDuckToggled = false;

	mov	BYTE PTR ?g_bDuckToggled@@3_NA, 0	; g_bDuckToggled

; 131  : 	
; 132  : 	return 1;

	mov	eax, 1
$LN1@MsgFunc_Re:

; 133  : }

	pop	edi
	pop	esi
	pop	ebx
	mov	esp, ebp
	pop	ebp
	ret	0
?MsgFunc_ResetHUD@CHud@@QAAHPBDHPAX@Z ENDP		; CHud::MsgFunc_ResetHUD
_TEXT	ENDS
; Function compile flags: /Odtp /ZI
; File d:\!diffusion 2020\source code 2022\client-server\client\hud_msg.cpp
;	COMDAT ?MsgFunc_Logo@CHud@@QAAHPBDHPAX@Z
_TEXT	SEGMENT
_this$ = 8						; size = 4
_pszName$ = 12						; size = 4
_iSize$ = 16						; size = 4
_pbuf$ = 20						; size = 4
?MsgFunc_Logo@CHud@@QAAHPBDHPAX@Z PROC			; CHud::MsgFunc_Logo, COMDAT

; 136  : {

	push	ebp
	mov	ebp, esp
	sub	esp, 64					; 00000040H
	push	ebx
	push	esi
	push	edi

; 137  : 	BEGIN_READ( pszName, pbuf, iSize );

	mov	eax, DWORD PTR _iSize$[ebp]
	push	eax
	mov	ecx, DWORD PTR _pbuf$[ebp]
	push	ecx
	mov	edx, DWORD PTR _pszName$[ebp]
	push	edx
	call	?BEGIN_READ@@YAXPBDPAXH@Z		; BEGIN_READ
	add	esp, 12					; 0000000cH

; 138  : 
; 139  : 	// update logo data
; 140  : 	m_iLogo = READ_BYTE();

	call	?READ_BYTE@@YAHXZ			; READ_BYTE
	mov	ecx, DWORD PTR _this$[ebp]
	mov	DWORD PTR [ecx+28], eax

; 141  : 
; 142  : 	END_READ();

	call	?END_READ@@YAXXZ			; END_READ

; 143  : 
; 144  : 	return 1;

	mov	eax, 1

; 145  : }

	pop	edi
	pop	esi
	pop	ebx
	mov	esp, ebp
	pop	ebp
	ret	0
?MsgFunc_Logo@CHud@@QAAHPBDHPAX@Z ENDP			; CHud::MsgFunc_Logo
_TEXT	ENDS
; Function compile flags: /Odtp /ZI
; File d:\!diffusion 2020\source code 2022\client-server\client\hud_msg.cpp
;	COMDAT ?MsgFunc_GameMode@CHud@@QAAHPBDHPAX@Z
_TEXT	SEGMENT
_this$ = 8						; size = 4
_pszName$ = 12						; size = 4
_iSize$ = 16						; size = 4
_pbuf$ = 20						; size = 4
?MsgFunc_GameMode@CHud@@QAAHPBDHPAX@Z PROC		; CHud::MsgFunc_GameMode, COMDAT

; 221  : {

	push	ebp
	mov	ebp, esp
	sub	esp, 64					; 00000040H
	push	ebx
	push	esi
	push	edi

; 222  : 	BEGIN_READ( pszName, pbuf, iSize );

	mov	eax, DWORD PTR _iSize$[ebp]
	push	eax
	mov	ecx, DWORD PTR _pbuf$[ebp]
	push	ecx
	mov	edx, DWORD PTR _pszName$[ebp]
	push	edx
	call	?BEGIN_READ@@YAXPBDPAXH@Z		; BEGIN_READ
	add	esp, 12					; 0000000cH

; 223  : 
; 224  : 	m_Teamplay = READ_BYTE();

	call	?READ_BYTE@@YAHXZ			; READ_BYTE
	mov	ecx, DWORD PTR _this$[ebp]
	mov	DWORD PTR [ecx+84], eax

; 225  : 
; 226  : 	END_READ();

	call	?END_READ@@YAXXZ			; END_READ

; 227  : 	
; 228  : 	return 1;

	mov	eax, 1

; 229  : }

	pop	edi
	pop	esi
	pop	ebx
	mov	esp, ebp
	pop	ebp
	ret	0
?MsgFunc_GameMode@CHud@@QAAHPBDHPAX@Z ENDP		; CHud::MsgFunc_GameMode
_TEXT	ENDS
; Function compile flags: /Odtp /ZI
; File d:\!diffusion 2020\source code 2022\client-server\client\hud_msg.cpp
;	COMDAT ?MsgFunc_Damage@CHud@@QAAHPBDHPAX@Z
_TEXT	SEGMENT
tv128 = -96						; size = 4
_i$1 = -28						; size = 4
_count$ = -24						; size = 4
_from$ = -20						; size = 12
_blood$ = -8						; size = 4
_armor$ = -4						; size = 4
_this$ = 8						; size = 4
_pszName$ = 12						; size = 4
_iSize$ = 16						; size = 4
_pbuf$ = 20						; size = 4
?MsgFunc_Damage@CHud@@QAAHPBDHPAX@Z PROC		; CHud::MsgFunc_Damage, COMDAT

; 232  : {

	push	ebp
	mov	ebp, esp
	sub	esp, 96					; 00000060H
	push	ebx
	push	esi
	push	edi

; 233  : 	int	armor, blood;
; 234  : 	Vector	from;

	lea	ecx, DWORD PTR _from$[ebp]
	call	??0Vector@@QAE@XZ			; Vector::Vector

; 235  : 	float	count;
; 236  : 
; 237  : 	BEGIN_READ( pszName, pbuf, iSize );

	mov	eax, DWORD PTR _iSize$[ebp]
	push	eax
	mov	ecx, DWORD PTR _pbuf$[ebp]
	push	ecx
	mov	edx, DWORD PTR _pszName$[ebp]
	push	edx
	call	?BEGIN_READ@@YAXPBDPAXH@Z		; BEGIN_READ
	add	esp, 12					; 0000000cH

; 238  : 
; 239  : 	armor = READ_BYTE();

	call	?READ_BYTE@@YAHXZ			; READ_BYTE
	mov	DWORD PTR _armor$[ebp], eax

; 240  : 	blood = READ_BYTE();

	call	?READ_BYTE@@YAHXZ			; READ_BYTE
	mov	DWORD PTR _blood$[ebp], eax

; 241  : 
; 242  : 	for( int i = 0; i < 3; i++ )

	mov	DWORD PTR _i$1[ebp], 0
	jmp	SHORT $LN4@MsgFunc_Da
$LN2@MsgFunc_Da:
	mov	eax, DWORD PTR _i$1[ebp]
	add	eax, 1
	mov	DWORD PTR _i$1[ebp], eax
$LN4@MsgFunc_Da:
	cmp	DWORD PTR _i$1[ebp], 3
	jge	SHORT $LN3@MsgFunc_Da

; 243  : 		from[i] = READ_COORD();

	call	?READ_COORD@@YAMXZ			; READ_COORD
	lea	ecx, DWORD PTR _from$[ebp]
	fstp	DWORD PTR tv128[ebp]
	call	??BVector@@QAEPAMXZ			; Vector::operator float *
	mov	ecx, DWORD PTR _i$1[ebp]
	fld	DWORD PTR tv128[ebp]
	fstp	DWORD PTR [eax+ecx*4]
	jmp	SHORT $LN2@MsgFunc_Da
$LN3@MsgFunc_Da:

; 244  : 
; 245  : 	count = (blood * 0.5f) + (armor * 0.5f);

	cvtsi2ss xmm0, DWORD PTR _blood$[ebp]
	mulss	xmm0, DWORD PTR __real@3f000000
	cvtsi2ss xmm1, DWORD PTR _armor$[ebp]
	mulss	xmm1, DWORD PTR __real@3f000000
	addss	xmm0, xmm1
	movss	DWORD PTR _count$[ebp], xmm0

; 246  : 	if( count < 10 ) count = 10;

	movss	xmm0, DWORD PTR __real@41200000
	comiss	xmm0, DWORD PTR _count$[ebp]
	jbe	SHORT $LN5@MsgFunc_Da
	movss	xmm0, DWORD PTR __real@41200000
	movss	DWORD PTR _count$[ebp], xmm0
$LN5@MsgFunc_Da:

; 247  : 
; 248  : 	END_READ();

	call	?END_READ@@YAXXZ			; END_READ

; 249  : 
; 250  : 	return 1;

	mov	eax, 1

; 251  : }

	pop	edi
	pop	esi
	pop	ebx
	mov	esp, ebp
	pop	ebp
	ret	0
?MsgFunc_Damage@CHud@@QAAHPBDHPAX@Z ENDP		; CHud::MsgFunc_Damage
_TEXT	ENDS
; Function compile flags: /Odtp /ZI
; File d:\!diffusion 2020\source code 2022\client-server\client\hud_msg.cpp
;	COMDAT ?SetFOV@CHud@@QAEXH@Z
_TEXT	SEGMENT
tv137 = -80						; size = 4
tv143 = -76						; size = 4
_def_fov$ = -8						; size = 4
_this$ = -4						; size = 4
_newfov$ = 8						; size = 4
?SetFOV@CHud@@QAEXH@Z PROC				; CHud::SetFOV, COMDAT
; _this$ = ecx

; 189  : {

	push	ebp
	mov	ebp, esp
	sub	esp, 80					; 00000050H
	push	ebx
	push	esi
	push	edi
	mov	DWORD PTR _this$[ebp], ecx

; 190  : 	float def_fov = CVAR_GET_FLOAT( "default_fov" );

	push	OFFSET ??_C@_0M@LPOJOBFH@default_fov?$AA@
	call	DWORD PTR ?gEngfuncs@@3Ucl_enginefuncs_s@@A+60
	add	esp, 4
	fstp	DWORD PTR _def_fov$[ebp]

; 191  : 
; 192  : 	if( !IsZooming ) // FIXME not sure about this condition, but zooming only works this way

	mov	eax, DWORD PTR _this$[ebp]
	movzx	ecx, BYTE PTR [eax+112]
	test	ecx, ecx
	jne	SHORT $LN4@SetFOV

; 193  : 	{
; 194  : 		if( newfov == 0 )

	cmp	DWORD PTR _newfov$[ebp], 0
	jne	SHORT $LN3@SetFOV

; 195  : 			m_flFOV = def_fov;

	mov	eax, DWORD PTR _this$[ebp]
	movss	xmm0, DWORD PTR _def_fov$[ebp]
	movss	DWORD PTR [eax+80], xmm0

; 196  : 		else

	jmp	SHORT $LN4@SetFOV
$LN3@SetFOV:

; 197  : 			m_flFOV = newfov;

	cvtsi2ss xmm0, DWORD PTR _newfov$[ebp]
	mov	eax, DWORD PTR _this$[ebp]
	movss	DWORD PTR [eax+80], xmm0
$LN4@SetFOV:

; 198  : 	}
; 199  : 
; 200  : 	if( m_flFOV == def_fov )

	mov	eax, DWORD PTR _this$[ebp]
	movss	xmm0, DWORD PTR [eax+80]
	ucomiss	xmm0, DWORD PTR _def_fov$[ebp]
	lahf
	test	ah, 68					; 00000044H
	jp	SHORT $LN5@SetFOV

; 201  : 		m_flMouseSensitivity = 0; // reset to saved sensitivity

	mov	eax, DWORD PTR _this$[ebp]
	xorps	xmm0, xmm0
	movss	DWORD PTR [eax+16], xmm0

; 202  : 	else

	jmp	SHORT $LN6@SetFOV
$LN5@SetFOV:

; 203  : 	{
; 204  : 		m_flMouseSensitivity = CVAR_GET_FLOAT( "sensitivity" );

	push	OFFSET ??_C@_0M@JFLMCFNC@sensitivity?$AA@
	call	DWORD PTR ?gEngfuncs@@3Ucl_enginefuncs_s@@A+60
	add	esp, 4
	mov	eax, DWORD PTR _this$[ebp]
	fstp	DWORD PTR [eax+16]

; 205  : 
; 206  : 		// scale by zoom ratio
; 207  : 		m_flMouseSensitivity *= ((float)newfov / def_fov) * CVAR_GET_FLOAT( "zoom_sensitivity_ratio" );

	cvtsi2ss xmm0, DWORD PTR _newfov$[ebp]
	divss	xmm0, DWORD PTR _def_fov$[ebp]
	push	OFFSET ??_C@_0BH@EHIOFMDB@zoom_sensitivity_ratio?$AA@
	movss	DWORD PTR tv143[ebp], xmm0
	call	DWORD PTR ?gEngfuncs@@3Ucl_enginefuncs_s@@A+60
	add	esp, 4
	fstp	DWORD PTR tv137[ebp]
	movss	xmm0, DWORD PTR tv143[ebp]
	mulss	xmm0, DWORD PTR tv137[ebp]
	mov	eax, DWORD PTR _this$[ebp]
	mulss	xmm0, DWORD PTR [eax+16]
	mov	ecx, DWORD PTR _this$[ebp]
	movss	DWORD PTR [ecx+16], xmm0
$LN6@SetFOV:

; 208  : 	}
; 209  : }

	pop	edi
	pop	esi
	pop	ebx
	mov	esp, ebp
	pop	ebp
	ret	4
?SetFOV@CHud@@QAEXH@Z ENDP				; CHud::SetFOV
_TEXT	ENDS
; Function compile flags: /Odtp /ZI
; File d:\!diffusion 2020\source code 2022\client-server\client\hud_msg.cpp
;	COMDAT ?InitHUDMessages@CHud@@QAEHXZ
_TEXT	SEGMENT
_pList$1 = -8						; size = 4
_this$ = -4						; size = 4
?InitHUDMessages@CHud@@QAEHXZ PROC			; CHud::InitHUDMessages, COMDAT
; _this$ = ecx

; 55   : {

	push	ebp
	mov	ebp, esp
	sub	esp, 72					; 00000048H
	push	ebx
	push	esi
	push	edi
	mov	DWORD PTR _this$[ebp], ecx

; 56   : 	HOOK_MESSAGE( Logo );

	push	OFFSET ?__MsgFunc_Logo@@YAHPBDHPAX@Z	; __MsgFunc_Logo
	push	OFFSET ??_C@_04GIGGPADC@Logo?$AA@
	call	DWORD PTR ?gEngfuncs@@3Ucl_enginefuncs_s@@A+72
	add	esp, 8

; 57   : 	HOOK_MESSAGE( ResetHUD );

	push	OFFSET ?__MsgFunc_ResetHUD@@YAHPBDHPAX@Z ; __MsgFunc_ResetHUD
	push	OFFSET ??_C@_08PEHACIKG@ResetHUD?$AA@
	call	DWORD PTR ?gEngfuncs@@3Ucl_enginefuncs_s@@A+72
	add	esp, 8

; 58   : 	HOOK_MESSAGE( GameMode );

	push	OFFSET ?__MsgFunc_GameMode@@YAHPBDHPAX@Z ; __MsgFunc_GameMode
	push	OFFSET ??_C@_08JJGOBBMF@GameMode?$AA@
	call	DWORD PTR ?gEngfuncs@@3Ucl_enginefuncs_s@@A+72
	add	esp, 8

; 59   : 	HOOK_MESSAGE( InitHUD );

	push	OFFSET ?__MsgFunc_InitHUD@@YAHPBDHPAX@Z	; __MsgFunc_InitHUD
	push	OFFSET ??_C@_07PEONMAPN@InitHUD?$AA@
	call	DWORD PTR ?gEngfuncs@@3Ucl_enginefuncs_s@@A+72
	add	esp, 8

; 60   : 	HOOK_MESSAGE( ViewMode );

	push	OFFSET ?__MsgFunc_ViewMode@@YAHPBDHPAX@Z ; __MsgFunc_ViewMode
	push	OFFSET ??_C@_08IMMBLBLF@ViewMode?$AA@
	call	DWORD PTR ?gEngfuncs@@3Ucl_enginefuncs_s@@A+72
	add	esp, 8

; 61   : 	HOOK_MESSAGE( SetFOV );

	push	OFFSET ?__MsgFunc_SetFOV@@YAHPBDHPAX@Z	; __MsgFunc_SetFOV
	push	OFFSET ??_C@_06NJNDMID@SetFOV?$AA@
	call	DWORD PTR ?gEngfuncs@@3Ucl_enginefuncs_s@@A+72
	add	esp, 8

; 62   : 	HOOK_MESSAGE( Concuss );

	push	OFFSET ?__MsgFunc_Concuss@@YAHPBDHPAX@Z	; __MsgFunc_Concuss
	push	OFFSET ??_C@_07KCBJBGLB@Concuss?$AA@
	call	DWORD PTR ?gEngfuncs@@3Ucl_enginefuncs_s@@A+72
	add	esp, 8

; 63   : 	HOOK_MESSAGE( Weapons );

	push	OFFSET ?__MsgFunc_Weapons@@YAHPBDHPAX@Z	; __MsgFunc_Weapons
	push	OFFSET ??_C@_07DNEKOHB@Weapons?$AA@
	call	DWORD PTR ?gEngfuncs@@3Ucl_enginefuncs_s@@A+72
	add	esp, 8

; 64   : 	HOOK_MESSAGE( HUDColor );

	push	OFFSET ?__MsgFunc_HUDColor@@YAHPBDHPAX@Z ; __MsgFunc_HUDColor
	push	OFFSET ??_C@_08GMOCKBAK@HUDColor?$AA@
	call	DWORD PTR ?gEngfuncs@@3Ucl_enginefuncs_s@@A+72
	add	esp, 8

; 65   : 	HOOK_MESSAGE( Particle );

	push	OFFSET ?__MsgFunc_Particle@@YAHPBDHPAX@Z ; __MsgFunc_Particle
	push	OFFSET ??_C@_08HIFHGEKA@Particle?$AA@
	call	DWORD PTR ?gEngfuncs@@3Ucl_enginefuncs_s@@A+72
	add	esp, 8

; 66   : 	HOOK_MESSAGE( KillPart );

	push	OFFSET ?__MsgFunc_KillPart@@YAHPBDHPAX@Z ; __MsgFunc_KillPart
	push	OFFSET ??_C@_08BOBKHLMK@KillPart?$AA@
	call	DWORD PTR ?gEngfuncs@@3Ucl_enginefuncs_s@@A+72
	add	esp, 8

; 67   : 	HOOK_MESSAGE( RainData ); 

	push	OFFSET ?__MsgFunc_RainData@@YAHPBDHPAX@Z ; __MsgFunc_RainData
	push	OFFSET ??_C@_08HEDELBBN@RainData?$AA@
	call	DWORD PTR ?gEngfuncs@@3Ucl_enginefuncs_s@@A+72
	add	esp, 8

; 68   : 	HOOK_MESSAGE( SetBody );

	push	OFFSET ?__MsgFunc_SetBody@@YAHPBDHPAX@Z	; __MsgFunc_SetBody
	push	OFFSET ??_C@_07PIBMLFBJ@SetBody?$AA@
	call	DWORD PTR ?gEngfuncs@@3Ucl_enginefuncs_s@@A+72
	add	esp, 8

; 69   : 	HOOK_MESSAGE( SetSkin );

	push	OFFSET ?__MsgFunc_SetSkin@@YAHPBDHPAX@Z	; __MsgFunc_SetSkin
	push	OFFSET ??_C@_07CHKFILLJ@SetSkin?$AA@
	call	DWORD PTR ?gEngfuncs@@3Ucl_enginefuncs_s@@A+72
	add	esp, 8

; 70   : 	HOOK_MESSAGE( MusicFade );

	push	OFFSET ?__MsgFunc_MusicFade@@YAHPBDHPAX@Z ; __MsgFunc_MusicFade
	push	OFFSET ??_C@_09HMOJLOCD@MusicFade?$AA@
	call	DWORD PTR ?gEngfuncs@@3Ucl_enginefuncs_s@@A+72
	add	esp, 8

; 71   : 	HOOK_MESSAGE( WeaponAnim );

	push	OFFSET ?__MsgFunc_WeaponAnim@@YAHPBDHPAX@Z ; __MsgFunc_WeaponAnim
	push	OFFSET ??_C@_0L@HDEEALFN@WeaponAnim?$AA@
	call	DWORD PTR ?gEngfuncs@@3Ucl_enginefuncs_s@@A+72
	add	esp, 8

; 72   : 	HOOK_MESSAGE( KillDecals );

	push	OFFSET ?__MsgFunc_KillDecals@@YAHPBDHPAX@Z ; __MsgFunc_KillDecals
	push	OFFSET ??_C@_0L@IBFKHCEP@KillDecals?$AA@
	call	DWORD PTR ?gEngfuncs@@3Ucl_enginefuncs_s@@A+72
	add	esp, 8

; 73   : 	HOOK_MESSAGE( StudioDecal );

	push	OFFSET ?__MsgFunc_StudioDecal@@YAHPBDHPAX@Z ; __MsgFunc_StudioDecal
	push	OFFSET ??_C@_0M@EOFEOEOD@StudioDecal?$AA@
	call	DWORD PTR ?gEngfuncs@@3Ucl_enginefuncs_s@@A+72
	add	esp, 8

; 74   : 	HOOK_MESSAGE( SetupBones );

	push	OFFSET ?__MsgFunc_SetupBones@@YAHPBDHPAX@Z ; __MsgFunc_SetupBones
	push	OFFSET ??_C@_0L@CPHIAPDB@SetupBones?$AA@
	call	DWORD PTR ?gEngfuncs@@3Ucl_enginefuncs_s@@A+72
	add	esp, 8

; 75   : 	HOOK_MESSAGE( TempEnt );

	push	OFFSET ?__MsgFunc_TempEnt@@YAHPBDHPAX@Z	; __MsgFunc_TempEnt
	push	OFFSET ??_C@_07HKFHLAHE@TempEnt?$AA@
	call	DWORD PTR ?gEngfuncs@@3Ucl_enginefuncs_s@@A+72
	add	esp, 8

; 76   : 	HOOK_MESSAGE( WaterSplash );

	push	OFFSET ?__MsgFunc_WaterSplash@@YAHPBDHPAX@Z ; __MsgFunc_WaterSplash
	push	OFFSET ??_C@_0M@GHGEHHGI@WaterSplash?$AA@
	call	DWORD PTR ?gEngfuncs@@3Ucl_enginefuncs_s@@A+72
	add	esp, 8

; 77   : 
; 78   : 	m_flFOV = 0.0f;

	mov	eax, DWORD PTR _this$[ebp]
	xorps	xmm0, xmm0
	movss	DWORD PTR [eax+80], xmm0

; 79   : 	m_iHUDColor = 0x0046A9FF; // 70,169,255 for Diffusion

	mov	eax, DWORD PTR _this$[ebp]
	mov	DWORD PTR [eax+108], 4631039		; 0046a9ffH

; 80   : 	
; 81   : 	CVAR_REGISTER( "zoom_sensitivity_ratio", "1.2", 0 );

	push	0
	push	OFFSET ??_C@_03EJIPIALM@1?42?$AA@
	push	OFFSET ??_C@_0BH@EHIOFMDB@zoom_sensitivity_ratio?$AA@
	call	DWORD PTR ?gEngfuncs@@3Ucl_enginefuncs_s@@A+56
	add	esp, 12					; 0000000cH

; 82   : 	default_fov = CVAR_REGISTER( "default_fov", "90", 0 );

	push	0
	push	OFFSET ??_C@_02PEECMOAB@90?$AA@
	push	OFFSET ??_C@_0M@LPOJOBFH@default_fov?$AA@
	call	DWORD PTR ?gEngfuncs@@3Ucl_enginefuncs_s@@A+56
	add	esp, 12					; 0000000cH
	mov	ecx, DWORD PTR _this$[ebp]
	mov	DWORD PTR [ecx+96], eax

; 83   : 	m_pCvarDraw = CVAR_REGISTER( "hud_draw", "1", FCVAR_ARCHIVE );

	push	1
	push	OFFSET ??_C@_01HIHLOKLC@1?$AA@
	push	OFFSET ??_C@_08BMDDHCHB@hud_draw?$AA@
	call	DWORD PTR ?gEngfuncs@@3Ucl_enginefuncs_s@@A+56
	add	esp, 12					; 0000000cH
	mov	ecx, DWORD PTR _this$[ebp]
	mov	DWORD PTR [ecx+92], eax

; 84   : 	m_pSpriteList = NULL;

	mov	eax, DWORD PTR _this$[ebp]
	mov	DWORD PTR [eax+4], 0

; 85   : 
; 86   : 	// clear any old HUD list
; 87   : 	if( m_pHudList )

	mov	eax, DWORD PTR _this$[ebp]
	cmp	DWORD PTR [eax], 0
	je	SHORT $LN4@InitHUDMes
$LN2@InitHUDMes:

; 88   : 	{
; 89   : 		HUDLIST *pList;
; 90   : 
; 91   : 		while( m_pHudList )

	mov	eax, DWORD PTR _this$[ebp]
	cmp	DWORD PTR [eax], 0
	je	SHORT $LN3@InitHUDMes

; 92   : 		{
; 93   : 			pList = m_pHudList;

	mov	eax, DWORD PTR _this$[ebp]
	mov	ecx, DWORD PTR [eax]
	mov	DWORD PTR _pList$1[ebp], ecx

; 94   : 			m_pHudList = m_pHudList->pNext;

	mov	eax, DWORD PTR _this$[ebp]
	mov	ecx, DWORD PTR [eax]
	mov	edx, DWORD PTR _this$[ebp]
	mov	eax, DWORD PTR [ecx+4]
	mov	DWORD PTR [edx], eax

; 95   : 			free( pList );

	mov	eax, DWORD PTR _pList$1[ebp]
	push	eax
	call	_free
	add	esp, 4

; 96   : 		}

	jmp	SHORT $LN2@InitHUDMes
$LN3@InitHUDMes:

; 97   : 		m_pHudList = NULL;

	mov	eax, DWORD PTR _this$[ebp]
	mov	DWORD PTR [eax], 0
$LN4@InitHUDMes:

; 98   : 	}
; 99   : 
; 100  : 	m_flTime = 1.0;

	mov	eax, DWORD PTR _this$[ebp]
	movss	xmm0, DWORD PTR __real@3f800000
	movss	DWORD PTR [eax+32], xmm0

; 101  : 
; 102  : 	return 1;

	mov	eax, 1

; 103  : }

	pop	edi
	pop	esi
	pop	ebx
	mov	esp, ebp
	pop	ebp
	ret	0
?InitHUDMessages@CHud@@QAEHXZ ENDP			; CHud::InitHUDMessages
_TEXT	ENDS
; Function compile flags: /Odtp /ZI
;	COMDAT ??0entity_state_s@@QAE@ABU0@@Z
_TEXT	SEGMENT
_this$ = -4						; size = 4
___that$ = 8						; size = 4
??0entity_state_s@@QAE@ABU0@@Z PROC			; entity_state_s::entity_state_s, COMDAT
; _this$ = ecx
	push	ebp
	mov	ebp, esp
	sub	esp, 68					; 00000044H
	push	ebx
	push	esi
	push	edi
	mov	DWORD PTR _this$[ebp], ecx
	mov	eax, DWORD PTR _this$[ebp]
	mov	ecx, DWORD PTR ___that$[ebp]
	mov	edx, DWORD PTR [ecx]
	mov	DWORD PTR [eax], edx
	mov	eax, DWORD PTR _this$[ebp]
	mov	ecx, DWORD PTR ___that$[ebp]
	mov	edx, DWORD PTR [ecx+4]
	mov	DWORD PTR [eax+4], edx
	mov	eax, DWORD PTR _this$[ebp]
	mov	ecx, DWORD PTR ___that$[ebp]
	mov	edx, DWORD PTR [ecx+8]
	mov	DWORD PTR [eax+8], edx
	mov	eax, DWORD PTR _this$[ebp]
	mov	ecx, DWORD PTR ___that$[ebp]
	mov	edx, DWORD PTR [ecx+12]
	mov	DWORD PTR [eax+12], edx
	mov	eax, DWORD PTR ___that$[ebp]
	add	eax, 16					; 00000010H
	push	eax
	mov	ecx, DWORD PTR _this$[ebp]
	add	ecx, 16					; 00000010H
	call	??0Vector@@QAE@ABV0@@Z			; Vector::Vector
	mov	eax, DWORD PTR ___that$[ebp]
	add	eax, 28					; 0000001cH
	push	eax
	mov	ecx, DWORD PTR _this$[ebp]
	add	ecx, 28					; 0000001cH
	call	??0Vector@@QAE@ABV0@@Z			; Vector::Vector
	mov	eax, DWORD PTR _this$[ebp]
	mov	ecx, DWORD PTR ___that$[ebp]
	mov	edx, DWORD PTR [ecx+40]
	mov	DWORD PTR [eax+40], edx
	mov	eax, DWORD PTR _this$[ebp]
	mov	ecx, DWORD PTR ___that$[ebp]
	mov	edx, DWORD PTR [ecx+44]
	mov	DWORD PTR [eax+44], edx
	mov	eax, DWORD PTR _this$[ebp]
	mov	ecx, DWORD PTR ___that$[ebp]
	mov	edx, DWORD PTR [ecx+48]
	mov	DWORD PTR [eax+48], edx
	mov	eax, DWORD PTR _this$[ebp]
	mov	ecx, DWORD PTR ___that$[ebp]
	mov	edx, DWORD PTR [ecx+52]
	mov	DWORD PTR [eax+52], edx
	mov	eax, DWORD PTR _this$[ebp]
	mov	ecx, DWORD PTR ___that$[ebp]
	mov	dx, WORD PTR [ecx+56]
	mov	WORD PTR [eax+56], dx
	mov	eax, DWORD PTR _this$[ebp]
	mov	ecx, DWORD PTR ___that$[ebp]
	mov	dx, WORD PTR [ecx+58]
	mov	WORD PTR [eax+58], dx
	mov	eax, DWORD PTR _this$[ebp]
	mov	ecx, DWORD PTR ___that$[ebp]
	mov	edx, DWORD PTR [ecx+60]
	mov	DWORD PTR [eax+60], edx
	mov	eax, DWORD PTR _this$[ebp]
	mov	ecx, DWORD PTR ___that$[ebp]
	mov	edx, DWORD PTR [ecx+64]
	mov	DWORD PTR [eax+64], edx
	mov	eax, DWORD PTR _this$[ebp]
	mov	ecx, DWORD PTR ___that$[ebp]
	mov	dl, BYTE PTR [ecx+68]
	mov	BYTE PTR [eax+68], dl
	mov	eax, DWORD PTR _this$[ebp]
	mov	ecx, DWORD PTR ___that$[ebp]
	mov	edx, DWORD PTR [ecx+72]
	mov	DWORD PTR [eax+72], edx
	mov	eax, DWORD PTR _this$[ebp]
	mov	ecx, DWORD PTR ___that$[ebp]
	mov	edx, DWORD PTR [ecx+76]
	mov	DWORD PTR [eax+76], edx
	mov	eax, DWORD PTR ___that$[ebp]
	add	eax, 80					; 00000050H
	mov	ecx, DWORD PTR _this$[ebp]
	add	ecx, 80					; 00000050H
	mov	dx, WORD PTR [eax]
	mov	WORD PTR [ecx], dx
	mov	al, BYTE PTR [eax+2]
	mov	BYTE PTR [ecx+2], al
	mov	eax, DWORD PTR _this$[ebp]
	mov	ecx, DWORD PTR ___that$[ebp]
	mov	edx, DWORD PTR [ecx+84]
	mov	DWORD PTR [eax+84], edx
	mov	eax, DWORD PTR _this$[ebp]
	mov	ecx, DWORD PTR ___that$[ebp]
	mov	edx, DWORD PTR [ecx+88]
	mov	DWORD PTR [eax+88], edx
	mov	eax, DWORD PTR _this$[ebp]
	mov	ecx, DWORD PTR ___that$[ebp]
	mov	edx, DWORD PTR [ecx+92]
	mov	DWORD PTR [eax+92], edx
	mov	eax, DWORD PTR _this$[ebp]
	mov	ecx, DWORD PTR ___that$[ebp]
	mov	edx, DWORD PTR [ecx+96]
	mov	DWORD PTR [eax+96], edx
	mov	eax, DWORD PTR _this$[ebp]
	mov	ecx, DWORD PTR ___that$[ebp]
	mov	edx, DWORD PTR [ecx+100]
	mov	DWORD PTR [eax+100], edx
	mov	eax, DWORD PTR _this$[ebp]
	mov	ecx, DWORD PTR ___that$[ebp]
	mov	edx, DWORD PTR [ecx+104]
	mov	DWORD PTR [eax+104], edx
	mov	eax, DWORD PTR _this$[ebp]
	mov	ecx, DWORD PTR ___that$[ebp]
	mov	edx, DWORD PTR [ecx+108]
	mov	DWORD PTR [eax+108], edx
	mov	eax, DWORD PTR ___that$[ebp]
	add	eax, 112				; 00000070H
	push	eax
	mov	ecx, DWORD PTR _this$[ebp]
	add	ecx, 112				; 00000070H
	call	??0Vector@@QAE@ABV0@@Z			; Vector::Vector
	mov	eax, DWORD PTR ___that$[ebp]
	add	eax, 124				; 0000007cH
	push	eax
	mov	ecx, DWORD PTR _this$[ebp]
	add	ecx, 124				; 0000007cH
	call	??0Vector@@QAE@ABV0@@Z			; Vector::Vector
	mov	eax, DWORD PTR ___that$[ebp]
	add	eax, 136				; 00000088H
	push	eax
	mov	ecx, DWORD PTR _this$[ebp]
	add	ecx, 136				; 00000088H
	call	??0Vector@@QAE@ABV0@@Z			; Vector::Vector
	mov	eax, DWORD PTR _this$[ebp]
	mov	ecx, DWORD PTR ___that$[ebp]
	mov	edx, DWORD PTR [ecx+148]
	mov	DWORD PTR [eax+148], edx
	mov	eax, DWORD PTR _this$[ebp]
	mov	ecx, DWORD PTR ___that$[ebp]
	mov	edx, DWORD PTR [ecx+152]
	mov	DWORD PTR [eax+152], edx
	mov	eax, DWORD PTR _this$[ebp]
	mov	ecx, DWORD PTR ___that$[ebp]
	mov	edx, DWORD PTR [ecx+156]
	mov	DWORD PTR [eax+156], edx
	mov	eax, DWORD PTR _this$[ebp]
	mov	ecx, DWORD PTR ___that$[ebp]
	mov	edx, DWORD PTR [ecx+160]
	mov	DWORD PTR [eax+160], edx
	mov	eax, DWORD PTR _this$[ebp]
	mov	ecx, DWORD PTR ___that$[ebp]
	mov	edx, DWORD PTR [ecx+164]
	mov	DWORD PTR [eax+164], edx
	mov	eax, DWORD PTR _this$[ebp]
	mov	ecx, DWORD PTR ___that$[ebp]
	mov	edx, DWORD PTR [ecx+168]
	mov	DWORD PTR [eax+168], edx
	mov	eax, DWORD PTR _this$[ebp]
	mov	ecx, DWORD PTR ___that$[ebp]
	mov	edx, DWORD PTR [ecx+172]
	mov	DWORD PTR [eax+172], edx
	mov	eax, DWORD PTR _this$[ebp]
	mov	ecx, DWORD PTR ___that$[ebp]
	mov	edx, DWORD PTR [ecx+176]
	mov	DWORD PTR [eax+176], edx
	mov	eax, DWORD PTR _this$[ebp]
	mov	ecx, DWORD PTR ___that$[ebp]
	mov	edx, DWORD PTR [ecx+180]
	mov	DWORD PTR [eax+180], edx
	mov	eax, DWORD PTR _this$[ebp]
	mov	ecx, DWORD PTR ___that$[ebp]
	mov	edx, DWORD PTR [ecx+184]
	mov	DWORD PTR [eax+184], edx
	mov	eax, DWORD PTR ___that$[ebp]
	add	eax, 188				; 000000bcH
	push	eax
	mov	ecx, DWORD PTR _this$[ebp]
	add	ecx, 188				; 000000bcH
	call	??0Vector@@QAE@ABV0@@Z			; Vector::Vector
	mov	eax, DWORD PTR _this$[ebp]
	mov	ecx, DWORD PTR ___that$[ebp]
	mov	edx, DWORD PTR [ecx+200]
	mov	DWORD PTR [eax+200], edx
	mov	eax, DWORD PTR _this$[ebp]
	mov	ecx, DWORD PTR ___that$[ebp]
	mov	edx, DWORD PTR [ecx+204]
	mov	DWORD PTR [eax+204], edx
	mov	eax, DWORD PTR _this$[ebp]
	mov	ecx, DWORD PTR ___that$[ebp]
	mov	edx, DWORD PTR [ecx+208]
	mov	DWORD PTR [eax+208], edx
	mov	eax, DWORD PTR _this$[ebp]
	mov	ecx, DWORD PTR ___that$[ebp]
	mov	edx, DWORD PTR [ecx+212]
	mov	DWORD PTR [eax+212], edx
	mov	eax, DWORD PTR _this$[ebp]
	mov	ecx, DWORD PTR ___that$[ebp]
	mov	edx, DWORD PTR [ecx+216]
	mov	DWORD PTR [eax+216], edx
	mov	eax, DWORD PTR _this$[ebp]
	mov	ecx, DWORD PTR ___that$[ebp]
	mov	edx, DWORD PTR [ecx+220]
	mov	DWORD PTR [eax+220], edx
	mov	eax, DWORD PTR _this$[ebp]
	mov	ecx, DWORD PTR ___that$[ebp]
	mov	edx, DWORD PTR [ecx+224]
	mov	DWORD PTR [eax+224], edx
	mov	eax, DWORD PTR ___that$[ebp]
	add	eax, 228				; 000000e4H
	push	eax
	mov	ecx, DWORD PTR _this$[ebp]
	add	ecx, 228				; 000000e4H
	call	??0Vector@@QAE@ABV0@@Z			; Vector::Vector
	mov	eax, DWORD PTR ___that$[ebp]
	add	eax, 240				; 000000f0H
	push	eax
	mov	ecx, DWORD PTR _this$[ebp]
	add	ecx, 240				; 000000f0H
	call	??0Vector@@QAE@ABV0@@Z			; Vector::Vector
	mov	eax, DWORD PTR _this$[ebp]
	mov	ecx, DWORD PTR ___that$[ebp]
	mov	edx, DWORD PTR [ecx+252]
	mov	DWORD PTR [eax+252], edx
	mov	eax, DWORD PTR _this$[ebp]
	mov	ecx, DWORD PTR ___that$[ebp]
	mov	edx, DWORD PTR [ecx+256]
	mov	DWORD PTR [eax+256], edx
	mov	eax, DWORD PTR _this$[ebp]
	mov	ecx, DWORD PTR ___that$[ebp]
	mov	edx, DWORD PTR [ecx+260]
	mov	DWORD PTR [eax+260], edx
	mov	eax, DWORD PTR _this$[ebp]
	mov	ecx, DWORD PTR ___that$[ebp]
	mov	edx, DWORD PTR [ecx+264]
	mov	DWORD PTR [eax+264], edx
	mov	eax, DWORD PTR _this$[ebp]
	mov	ecx, DWORD PTR ___that$[ebp]
	mov	edx, DWORD PTR [ecx+268]
	mov	DWORD PTR [eax+268], edx
	mov	eax, DWORD PTR _this$[ebp]
	mov	ecx, DWORD PTR ___that$[ebp]
	mov	edx, DWORD PTR [ecx+272]
	mov	DWORD PTR [eax+272], edx
	mov	eax, DWORD PTR _this$[ebp]
	mov	ecx, DWORD PTR ___that$[ebp]
	mov	edx, DWORD PTR [ecx+276]
	mov	DWORD PTR [eax+276], edx
	mov	eax, DWORD PTR _this$[ebp]
	mov	ecx, DWORD PTR ___that$[ebp]
	mov	edx, DWORD PTR [ecx+280]
	mov	DWORD PTR [eax+280], edx
	mov	eax, DWORD PTR _this$[ebp]
	mov	ecx, DWORD PTR ___that$[ebp]
	mov	edx, DWORD PTR [ecx+284]
	mov	DWORD PTR [eax+284], edx
	mov	eax, DWORD PTR _this$[ebp]
	mov	ecx, DWORD PTR ___that$[ebp]
	mov	edx, DWORD PTR [ecx+288]
	mov	DWORD PTR [eax+288], edx
	mov	eax, DWORD PTR ___that$[ebp]
	add	eax, 292				; 00000124H
	push	eax
	mov	ecx, DWORD PTR _this$[ebp]
	add	ecx, 292				; 00000124H
	call	??0Vector@@QAE@ABV0@@Z			; Vector::Vector
	mov	eax, DWORD PTR ___that$[ebp]
	add	eax, 304				; 00000130H
	push	eax
	mov	ecx, DWORD PTR _this$[ebp]
	add	ecx, 304				; 00000130H
	call	??0Vector@@QAE@ABV0@@Z			; Vector::Vector
	mov	eax, DWORD PTR ___that$[ebp]
	add	eax, 316				; 0000013cH
	push	eax
	mov	ecx, DWORD PTR _this$[ebp]
	add	ecx, 316				; 0000013cH
	call	??0Vector@@QAE@ABV0@@Z			; Vector::Vector
	mov	eax, DWORD PTR ___that$[ebp]
	add	eax, 328				; 00000148H
	push	eax
	mov	ecx, DWORD PTR _this$[ebp]
	add	ecx, 328				; 00000148H
	call	??0Vector@@QAE@ABV0@@Z			; Vector::Vector
	mov	eax, DWORD PTR _this$[ebp]
	pop	edi
	pop	esi
	pop	ebx
	mov	esp, ebp
	pop	ebp
	ret	4
??0entity_state_s@@QAE@ABU0@@Z ENDP			; entity_state_s::entity_state_s
_TEXT	ENDS
; Function compile flags: /Odtp /ZI
; File d:\!diffusion 2020\source code 2022\client-server\game_shared\vector.h
;	COMDAT ??0Radian@@QAE@XZ
_TEXT	SEGMENT
_this$ = -4						; size = 4
??0Radian@@QAE@XZ PROC					; Radian::Radian, COMDAT
; _this$ = ecx

; 381  : 	inline Radian( void ) { }

	push	ebp
	mov	ebp, esp
	sub	esp, 68					; 00000044H
	push	ebx
	push	esi
	push	edi
	mov	DWORD PTR _this$[ebp], ecx
	mov	eax, DWORD PTR _this$[ebp]
	pop	edi
	pop	esi
	pop	ebx
	mov	esp, ebp
	pop	ebp
	ret	0
??0Radian@@QAE@XZ ENDP					; Radian::Radian
_TEXT	ENDS
; Function compile flags: /Odtp /ZI
; File d:\!diffusion 2020\source code 2022\client-server\game_shared\vector.h
;	COMDAT ??BVector@@QAEPAMXZ
_TEXT	SEGMENT
_this$ = -4						; size = 4
??BVector@@QAEPAMXZ PROC				; Vector::operator float *, COMDAT
; _this$ = ecx

; 247  : 	operator float *()				{ return &x; } // Vectors will now automatically convert to float * when needed

	push	ebp
	mov	ebp, esp
	sub	esp, 68					; 00000044H
	push	ebx
	push	esi
	push	edi
	mov	DWORD PTR _this$[ebp], ecx
	mov	eax, DWORD PTR _this$[ebp]
	pop	edi
	pop	esi
	pop	ebx
	mov	esp, ebp
	pop	ebp
	ret	0
??BVector@@QAEPAMXZ ENDP				; Vector::operator float *
_TEXT	ENDS
; Function compile flags: /Odtp /ZI
; File d:\!diffusion 2020\source code 2022\client-server\game_shared\vector.h
;	COMDAT ?Length@Vector@@QBEMXZ
_TEXT	SEGMENT
tv91 = -72						; size = 4
_this$ = -4						; size = 4
?Length@Vector@@QBEMXZ PROC				; Vector::Length, COMDAT
; _this$ = ecx

; 245  : 	inline float Length(void) const		{ return sqrt( x*x + y*y + z*z ); }

	push	ebp
	mov	ebp, esp
	sub	esp, 72					; 00000048H
	push	ebx
	push	esi
	push	edi
	mov	DWORD PTR _this$[ebp], ecx
	mov	eax, DWORD PTR _this$[ebp]
	mov	ecx, DWORD PTR _this$[ebp]
	movss	xmm0, DWORD PTR [eax]
	mulss	xmm0, DWORD PTR [ecx]
	mov	edx, DWORD PTR _this$[ebp]
	mov	eax, DWORD PTR _this$[ebp]
	movss	xmm1, DWORD PTR [edx+4]
	mulss	xmm1, DWORD PTR [eax+4]
	addss	xmm0, xmm1
	mov	ecx, DWORD PTR _this$[ebp]
	mov	edx, DWORD PTR _this$[ebp]
	movss	xmm1, DWORD PTR [ecx+8]
	mulss	xmm1, DWORD PTR [edx+8]
	addss	xmm0, xmm1
	cvtss2sd xmm0, xmm0
	sub	esp, 8
	movsd	QWORD PTR [esp], xmm0
	call	_sqrt
	add	esp, 8
	fstp	DWORD PTR tv91[ebp]
	fld	DWORD PTR tv91[ebp]
	pop	edi
	pop	esi
	pop	ebx
	mov	esp, ebp
	pop	ebp
	ret	0
?Length@Vector@@QBEMXZ ENDP				; Vector::Length
_TEXT	ENDS
; Function compile flags: /Odtp /ZI
; File d:\!diffusion 2020\source code 2022\client-server\game_shared\vector.h
;	COMDAT ??DVector@@QBE?AV0@M@Z
_TEXT	SEGMENT
_this$ = -4						; size = 4
___$ReturnUdt$ = 8					; size = 4
_fl$ = 12						; size = 4
??DVector@@QBE?AV0@M@Z PROC				; Vector::operator*, COMDAT
; _this$ = ecx

; 162  : 	inline Vector operator*(float fl) const		{ return Vector(x*fl, y*fl, z*fl);	   }

	push	ebp
	mov	ebp, esp
	sub	esp, 68					; 00000044H
	push	ebx
	push	esi
	push	edi
	mov	DWORD PTR _this$[ebp], ecx
	mov	eax, DWORD PTR _this$[ebp]
	movss	xmm0, DWORD PTR [eax+8]
	mulss	xmm0, DWORD PTR _fl$[ebp]
	push	ecx
	movss	DWORD PTR [esp], xmm0
	mov	ecx, DWORD PTR _this$[ebp]
	movss	xmm0, DWORD PTR [ecx+4]
	mulss	xmm0, DWORD PTR _fl$[ebp]
	push	ecx
	movss	DWORD PTR [esp], xmm0
	mov	edx, DWORD PTR _this$[ebp]
	movss	xmm0, DWORD PTR [edx]
	mulss	xmm0, DWORD PTR _fl$[ebp]
	push	ecx
	movss	DWORD PTR [esp], xmm0
	mov	ecx, DWORD PTR ___$ReturnUdt$[ebp]
	call	??0Vector@@QAE@MMM@Z			; Vector::Vector
	mov	eax, DWORD PTR ___$ReturnUdt$[ebp]
	pop	edi
	pop	esi
	pop	ebx
	mov	esp, ebp
	pop	ebp
	ret	8
??DVector@@QBE?AV0@M@Z ENDP				; Vector::operator*
_TEXT	ENDS
; Function compile flags: /Odtp /ZI
; File d:\!diffusion 2020\source code 2022\client-server\game_shared\vector.h
;	COMDAT ??GVector@@QBE?AV0@ABV0@@Z
_TEXT	SEGMENT
_this$ = -4						; size = 4
___$ReturnUdt$ = 8					; size = 4
_v$ = 12						; size = 4
??GVector@@QBE?AV0@ABV0@@Z PROC				; Vector::operator-, COMDAT
; _this$ = ecx

; 159  : 	inline Vector operator-(const Vector& v) const	{ return Vector(x-v.x, y-v.y, z-v.z);	   }

	push	ebp
	mov	ebp, esp
	sub	esp, 68					; 00000044H
	push	ebx
	push	esi
	push	edi
	mov	DWORD PTR _this$[ebp], ecx
	mov	eax, DWORD PTR _this$[ebp]
	mov	ecx, DWORD PTR _v$[ebp]
	movss	xmm0, DWORD PTR [eax+8]
	subss	xmm0, DWORD PTR [ecx+8]
	push	ecx
	movss	DWORD PTR [esp], xmm0
	mov	edx, DWORD PTR _this$[ebp]
	mov	eax, DWORD PTR _v$[ebp]
	movss	xmm0, DWORD PTR [edx+4]
	subss	xmm0, DWORD PTR [eax+4]
	push	ecx
	movss	DWORD PTR [esp], xmm0
	mov	ecx, DWORD PTR _this$[ebp]
	mov	edx, DWORD PTR _v$[ebp]
	movss	xmm0, DWORD PTR [ecx]
	subss	xmm0, DWORD PTR [edx]
	push	ecx
	movss	DWORD PTR [esp], xmm0
	mov	ecx, DWORD PTR ___$ReturnUdt$[ebp]
	call	??0Vector@@QAE@MMM@Z			; Vector::Vector
	mov	eax, DWORD PTR ___$ReturnUdt$[ebp]
	pop	edi
	pop	esi
	pop	ebx
	mov	esp, ebp
	pop	ebp
	ret	8
??GVector@@QBE?AV0@ABV0@@Z ENDP				; Vector::operator-
_TEXT	ENDS
; Function compile flags: /Odtp /ZI
; File d:\!diffusion 2020\source code 2022\client-server\game_shared\vector.h
;	COMDAT ??HVector@@QBE?AV0@ABV0@@Z
_TEXT	SEGMENT
_this$ = -4						; size = 4
___$ReturnUdt$ = 8					; size = 4
_v$ = 12						; size = 4
??HVector@@QBE?AV0@ABV0@@Z PROC				; Vector::operator+, COMDAT
; _this$ = ecx

; 158  : 	inline Vector operator+(const Vector& v) const	{ return Vector(x+v.x, y+v.y, z+v.z);	   }

	push	ebp
	mov	ebp, esp
	sub	esp, 68					; 00000044H
	push	ebx
	push	esi
	push	edi
	mov	DWORD PTR _this$[ebp], ecx
	mov	eax, DWORD PTR _this$[ebp]
	mov	ecx, DWORD PTR _v$[ebp]
	movss	xmm0, DWORD PTR [eax+8]
	addss	xmm0, DWORD PTR [ecx+8]
	push	ecx
	movss	DWORD PTR [esp], xmm0
	mov	edx, DWORD PTR _this$[ebp]
	mov	eax, DWORD PTR _v$[ebp]
	movss	xmm0, DWORD PTR [edx+4]
	addss	xmm0, DWORD PTR [eax+4]
	push	ecx
	movss	DWORD PTR [esp], xmm0
	mov	ecx, DWORD PTR _this$[ebp]
	mov	edx, DWORD PTR _v$[ebp]
	movss	xmm0, DWORD PTR [ecx]
	addss	xmm0, DWORD PTR [edx]
	push	ecx
	movss	DWORD PTR [esp], xmm0
	mov	ecx, DWORD PTR ___$ReturnUdt$[ebp]
	call	??0Vector@@QAE@MMM@Z			; Vector::Vector
	mov	eax, DWORD PTR ___$ReturnUdt$[ebp]
	pop	edi
	pop	esi
	pop	ebx
	mov	esp, ebp
	pop	ebp
	ret	8
??HVector@@QBE?AV0@ABV0@@Z ENDP				; Vector::operator+
_TEXT	ENDS
; Function compile flags: /Odtp /ZI
; File d:\!diffusion 2020\source code 2022\client-server\game_shared\vector.h
;	COMDAT ??0Vector@@QAE@QAM@Z
_TEXT	SEGMENT
_this$ = -4						; size = 4
_rgfl$ = 8						; size = 4
??0Vector@@QAE@QAM@Z PROC				; Vector::Vector, COMDAT
; _this$ = ecx

; 147  : 	inline Vector(float rgfl[3])			{ x = rgfl[0]; y = rgfl[1]; z = rgfl[2];   }

	push	ebp
	mov	ebp, esp
	sub	esp, 68					; 00000044H
	push	ebx
	push	esi
	push	edi
	mov	DWORD PTR _this$[ebp], ecx
	mov	eax, 4
	imul	ecx, eax, 0
	mov	edx, DWORD PTR _this$[ebp]
	mov	eax, DWORD PTR _rgfl$[ebp]
	mov	ecx, DWORD PTR [eax+ecx]
	mov	DWORD PTR [edx], ecx
	mov	eax, 4
	shl	eax, 0
	mov	ecx, DWORD PTR _this$[ebp]
	mov	edx, DWORD PTR _rgfl$[ebp]
	mov	eax, DWORD PTR [edx+eax]
	mov	DWORD PTR [ecx+4], eax
	mov	eax, 4
	shl	eax, 1
	mov	ecx, DWORD PTR _this$[ebp]
	mov	edx, DWORD PTR _rgfl$[ebp]
	mov	eax, DWORD PTR [edx+eax]
	mov	DWORD PTR [ecx+8], eax
	mov	eax, DWORD PTR _this$[ebp]
	pop	edi
	pop	esi
	pop	ebx
	mov	esp, ebp
	pop	ebp
	ret	4
??0Vector@@QAE@QAM@Z ENDP				; Vector::Vector
_TEXT	ENDS
; Function compile flags: /Odtp /ZI
; File d:\!diffusion 2020\source code 2022\client-server\game_shared\vector.h
;	COMDAT ??0Vector@@QAE@ABV0@@Z
_TEXT	SEGMENT
_this$ = -4						; size = 4
_v$ = 8							; size = 4
??0Vector@@QAE@ABV0@@Z PROC				; Vector::Vector, COMDAT
; _this$ = ecx

; 145  : 	inline Vector(const Vector& v)		{ x = v.x; y = v.y; z = v.z;		   }

	push	ebp
	mov	ebp, esp
	sub	esp, 68					; 00000044H
	push	ebx
	push	esi
	push	edi
	mov	DWORD PTR _this$[ebp], ecx
	mov	eax, DWORD PTR _this$[ebp]
	mov	ecx, DWORD PTR _v$[ebp]
	mov	edx, DWORD PTR [ecx]
	mov	DWORD PTR [eax], edx
	mov	eax, DWORD PTR _this$[ebp]
	mov	ecx, DWORD PTR _v$[ebp]
	mov	edx, DWORD PTR [ecx+4]
	mov	DWORD PTR [eax+4], edx
	mov	eax, DWORD PTR _this$[ebp]
	mov	ecx, DWORD PTR _v$[ebp]
	mov	edx, DWORD PTR [ecx+8]
	mov	DWORD PTR [eax+8], edx
	mov	eax, DWORD PTR _this$[ebp]
	pop	edi
	pop	esi
	pop	ebx
	mov	esp, ebp
	pop	ebp
	ret	4
??0Vector@@QAE@ABV0@@Z ENDP				; Vector::Vector
_TEXT	ENDS
; Function compile flags: /Odtp /ZI
; File d:\!diffusion 2020\source code 2022\client-server\game_shared\vector.h
;	COMDAT ??0Vector@@QAE@MMM@Z
_TEXT	SEGMENT
_this$ = -4						; size = 4
_X$ = 8							; size = 4
_Y$ = 12						; size = 4
_Z$ = 16						; size = 4
??0Vector@@QAE@MMM@Z PROC				; Vector::Vector, COMDAT
; _this$ = ecx

; 144  : 	inline Vector(float X, float Y, float Z)	{ x = X; y = Y; z = Z;                     }

	push	ebp
	mov	ebp, esp
	sub	esp, 68					; 00000044H
	push	ebx
	push	esi
	push	edi
	mov	DWORD PTR _this$[ebp], ecx
	mov	eax, DWORD PTR _this$[ebp]
	movss	xmm0, DWORD PTR _X$[ebp]
	movss	DWORD PTR [eax], xmm0
	mov	eax, DWORD PTR _this$[ebp]
	movss	xmm0, DWORD PTR _Y$[ebp]
	movss	DWORD PTR [eax+4], xmm0
	mov	eax, DWORD PTR _this$[ebp]
	movss	xmm0, DWORD PTR _Z$[ebp]
	movss	DWORD PTR [eax+8], xmm0
	mov	eax, DWORD PTR _this$[ebp]
	pop	edi
	pop	esi
	pop	ebx
	mov	esp, ebp
	pop	ebp
	ret	12					; 0000000cH
??0Vector@@QAE@MMM@Z ENDP				; Vector::Vector
_TEXT	ENDS
; Function compile flags: /Odtp /ZI
; File d:\!diffusion 2020\source code 2022\client-server\game_shared\vector.h
;	COMDAT ??0Vector@@QAE@XZ
_TEXT	SEGMENT
_this$ = -4						; size = 4
??0Vector@@QAE@XZ PROC					; Vector::Vector, COMDAT
; _this$ = ecx

; 143  : 	inline Vector(void)				{ }

	push	ebp
	mov	ebp, esp
	sub	esp, 68					; 00000044H
	push	ebx
	push	esi
	push	edi
	mov	DWORD PTR _this$[ebp], ecx
	mov	eax, DWORD PTR _this$[ebp]
	pop	edi
	pop	esi
	pop	ebx
	mov	esp, ebp
	pop	ebp
	ret	0
??0Vector@@QAE@XZ ENDP					; Vector::Vector
_TEXT	ENDS
; Function compile flags: /Odtp /ZI
;	COMDAT ??__G@YGXPAX0IIP6EPAX00@Z@Z
_TEXT	SEGMENT
tv66 = -68						; size = 4
___t$ = 8						; size = 4
___u$ = 12						; size = 4
___s$ = 16						; size = 4
___n$ = 20						; size = 4
___f$ = 24						; size = 4
??__G@YGXPAX0IIP6EPAX00@Z@Z PROC			; `vector copy constructor iterator', COMDAT
	push	ebp
	mov	ebp, esp
	sub	esp, 68					; 00000044H
	push	ebx
	push	esi
	push	edi
$LN2@vector:
	mov	eax, DWORD PTR ___n$[ebp]
	mov	DWORD PTR tv66[ebp], eax
	mov	ecx, DWORD PTR ___n$[ebp]
	sub	ecx, 1
	mov	DWORD PTR ___n$[ebp], ecx
	cmp	DWORD PTR tv66[ebp], 0
	jbe	SHORT $LN1@vector
	mov	eax, DWORD PTR ___u$[ebp]
	push	eax
	mov	ecx, DWORD PTR ___t$[ebp]
	call	DWORD PTR ___f$[ebp]
	mov	eax, DWORD PTR ___t$[ebp]
	add	eax, DWORD PTR ___s$[ebp]
	mov	DWORD PTR ___t$[ebp], eax
	mov	eax, DWORD PTR ___u$[ebp]
	add	eax, DWORD PTR ___s$[ebp]
	mov	DWORD PTR ___u$[ebp], eax
	jmp	SHORT $LN2@vector
$LN1@vector:
	pop	edi
	pop	esi
	pop	ebx
	mov	esp, ebp
	pop	ebp
	ret	20					; 00000014H
??__G@YGXPAX0IIP6EPAX00@Z@Z ENDP			; `vector copy constructor iterator'
_TEXT	ENDS
; Function compile flags: /Odtp /ZI
;	COMDAT ??_H@YGXPAXIIP6EPAX0@Z@Z
_TEXT	SEGMENT
tv66 = -68						; size = 4
___t$ = 8						; size = 4
___s$ = 12						; size = 4
___n$ = 16						; size = 4
___f$ = 20						; size = 4
??_H@YGXPAXIIP6EPAX0@Z@Z PROC				; `vector constructor iterator', COMDAT
	push	ebp
	mov	ebp, esp
	sub	esp, 68					; 00000044H
	push	ebx
	push	esi
	push	edi
$LN2@vector:
	mov	eax, DWORD PTR ___n$[ebp]
	mov	DWORD PTR tv66[ebp], eax
	mov	ecx, DWORD PTR ___n$[ebp]
	sub	ecx, 1
	mov	DWORD PTR ___n$[ebp], ecx
	cmp	DWORD PTR tv66[ebp], 0
	jbe	SHORT $LN1@vector
	mov	ecx, DWORD PTR ___t$[ebp]
	call	DWORD PTR ___f$[ebp]
	mov	eax, DWORD PTR ___t$[ebp]
	add	eax, DWORD PTR ___s$[ebp]
	mov	DWORD PTR ___t$[ebp], eax
	jmp	SHORT $LN2@vector
$LN1@vector:
	pop	edi
	pop	esi
	pop	ebx
	mov	esp, ebp
	pop	ebp
	ret	16					; 00000010H
??_H@YGXPAXIIP6EPAX0@Z@Z ENDP				; `vector constructor iterator'
_TEXT	ENDS
END
