; Listing generated by Microsoft (R) Optimizing Compiler Version 19.00.24247.2 

	TITLE	D:\!DIFFUSION 2020\source code 2022\client-server\client\hud_update.cpp
	.686P
	.XMM
	include listing.inc
	.model	flat

INCLUDELIB LIBCMT
INCLUDELIB OLDNAMES

_BSS	SEGMENT
?AddFov@?1??UpdateClientData@CHud@@QAEHPAUclient_data_s@@M@Z@4MA DD 01H DUP (?) ; `CHud::UpdateClientData'::`2'::AddFov
_BSS	ENDS
PUBLIC	??_H@YGXPAXIIP6EPAX0@Z@Z			; `vector constructor iterator'
PUBLIC	??__G@YGXPAX0IIP6EPAX00@Z@Z			; `vector copy constructor iterator'
PUBLIC	?UpdateClientData@CHud@@QAEHPAUclient_data_s@@M@Z ; CHud::UpdateClientData
PUBLIC	__real@00000000
PUBLIC	__real@3eb33333
PUBLIC	__real@3f400000
PUBLIC	__real@41200000
PUBLIC	__real@41f00000
EXTRN	?Think@CHud@@QAEXXZ:PROC			; CHud::Think
EXTRN	?CL_UTIL_Approach@@YAMMMM@Z:PROC		; CL_UTIL_Approach
EXTRN	?CL_ButtonBits@@YAHH@Z:PROC			; CL_ButtonBits
EXTRN	?CL_ResetButtonBits@@YAXH@Z:PROC		; CL_ResetButtonBits
EXTRN	?gHUD@@3VCHud@@A:BYTE				; gHUD
EXTRN	?g_fFrametime@@3MA:DWORD			; g_fFrametime
EXTRN	?v_idlescale@@3MA:DWORD				; v_idlescale
EXTRN	__fltused:DWORD
;	COMDAT __real@41f00000
CONST	SEGMENT
__real@41f00000 DD 041f00000r			; 30
CONST	ENDS
;	COMDAT __real@41200000
CONST	SEGMENT
__real@41200000 DD 041200000r			; 10
CONST	ENDS
;	COMDAT __real@3f400000
CONST	SEGMENT
__real@3f400000 DD 03f400000r			; 0.75
CONST	ENDS
;	COMDAT __real@3eb33333
CONST	SEGMENT
__real@3eb33333 DD 03eb33333r			; 0.35
CONST	ENDS
;	COMDAT __real@00000000
CONST	SEGMENT
__real@00000000 DD 000000000r			; 0
CONST	ENDS
; Function compile flags: /Odtp /ZI
; File d:\!diffusion 2020\source code 2022\client-server\client\hud_update.cpp
;	COMDAT ?UpdateClientData@CHud@@QAEHPAUclient_data_s@@M@Z
_TEXT	SEGMENT
tv85 = -76						; size = 4
tv84 = -72						; size = 4
_this$ = -4						; size = 4
_cdata$ = 8						; size = 4
_time$ = 12						; size = 4
?UpdateClientData@CHud@@QAEHPAUclient_data_s@@M@Z PROC	; CHud::UpdateClientData, COMDAT
; _this$ = ecx

; 20   : {

	push	ebp
	mov	ebp, esp
	sub	esp, 76					; 0000004cH
	push	ebx
	push	esi
	push	edi
	mov	DWORD PTR _this$[ebp], ecx

; 21   : 	m_vecOrigin = cdata->origin;

	mov	eax, DWORD PTR _this$[ebp]
	add	eax, 48					; 00000030H
	mov	ecx, DWORD PTR _cdata$[ebp]
	mov	edx, DWORD PTR [ecx]
	mov	DWORD PTR [eax], edx
	mov	edx, DWORD PTR [ecx+4]
	mov	DWORD PTR [eax+4], edx
	mov	ecx, DWORD PTR [ecx+8]
	mov	DWORD PTR [eax+8], ecx

; 22   : 	m_vecAngles = cdata->viewangles;

	mov	eax, DWORD PTR _cdata$[ebp]
	add	eax, 12					; 0000000cH
	mov	ecx, DWORD PTR _this$[ebp]
	add	ecx, 60					; 0000003cH
	mov	edx, DWORD PTR [eax]
	mov	DWORD PTR [ecx], edx
	mov	edx, DWORD PTR [eax+4]
	mov	DWORD PTR [ecx+4], edx
	mov	eax, DWORD PTR [eax+8]
	mov	DWORD PTR [ecx+8], eax

; 23   : 	m_iKeyBits = CL_ButtonBits( 0 );

	push	0
	call	?CL_ButtonBits@@YAHH@Z			; CL_ButtonBits
	add	esp, 4
	mov	ecx, DWORD PTR _this$[ebp]
	mov	DWORD PTR [ecx+72], eax

; 24   : //	m_iWeaponBits = cdata->iWeaponBits;
; 25   : 
; 26   : 	Think();

	mov	ecx, DWORD PTR _this$[ebp]
	call	?Think@CHud@@QAEXXZ			; CHud::Think

; 27   : 
; 28   : 	static float AddFov = 0.0f;
; 29   : 	if( gHUD.InCar )

	movzx	eax, BYTE PTR ?gHUD@@3VCHud@@A+120
	test	eax, eax
	je	$LN2@UpdateClie

; 30   : 	{
; 31   : 		AddFov = CL_UTIL_Approach( gHUD.CarSpeed * 0.35f, AddFov, 10 * g_fFrametime ); // just for smoothing

	movss	xmm0, DWORD PTR __real@41200000
	mulss	xmm0, DWORD PTR ?g_fFrametime@@3MA
	push	ecx
	movss	DWORD PTR [esp], xmm0
	push	ecx
	movss	xmm0, DWORD PTR ?AddFov@?1??UpdateClientData@CHud@@QAEHPAUclient_data_s@@M@Z@4MA
	movss	DWORD PTR [esp], xmm0
	movss	xmm0, DWORD PTR ?gHUD@@3VCHud@@A+132
	mulss	xmm0, DWORD PTR __real@3eb33333
	push	ecx
	movss	DWORD PTR [esp], xmm0
	call	?CL_UTIL_Approach@@YAMMMM@Z		; CL_UTIL_Approach
	add	esp, 12					; 0000000cH
	fstp	DWORD PTR ?AddFov@?1??UpdateClientData@CHud@@QAEHPAUclient_data_s@@M@Z@4MA

; 32   : 		AddFov = bound( 0, AddFov, 30 );

	movss	xmm0, DWORD PTR ?AddFov@?1??UpdateClientData@CHud@@QAEHPAUclient_data_s@@M@Z@4MA
	comiss	xmm0, DWORD PTR __real@00000000
	jb	SHORT $LN7@UpdateClie
	movss	xmm0, DWORD PTR __real@41f00000
	comiss	xmm0, DWORD PTR ?AddFov@?1??UpdateClientData@CHud@@QAEHPAUclient_data_s@@M@Z@4MA
	jbe	SHORT $LN5@UpdateClie
	movss	xmm0, DWORD PTR ?AddFov@?1??UpdateClientData@CHud@@QAEHPAUclient_data_s@@M@Z@4MA
	movss	DWORD PTR tv84[ebp], xmm0
	jmp	SHORT $LN6@UpdateClie
$LN5@UpdateClie:
	movss	xmm0, DWORD PTR __real@41f00000
	movss	DWORD PTR tv84[ebp], xmm0
$LN6@UpdateClie:
	movss	xmm0, DWORD PTR tv84[ebp]
	movss	DWORD PTR tv85[ebp], xmm0
	jmp	SHORT $LN8@UpdateClie
$LN7@UpdateClie:
	xorps	xmm0, xmm0
	movss	DWORD PTR tv85[ebp], xmm0
$LN8@UpdateClie:
	movss	xmm0, DWORD PTR tv85[ebp]
	movss	DWORD PTR ?AddFov@?1??UpdateClientData@CHud@@QAEHPAUclient_data_s@@M@Z@4MA, xmm0

; 33   : 		cdata->fov = (m_flFOV * 0.75f) + AddFov;

	mov	eax, DWORD PTR _this$[ebp]
	movss	xmm0, DWORD PTR [eax+80]
	mulss	xmm0, DWORD PTR __real@3f400000
	addss	xmm0, DWORD PTR ?AddFov@?1??UpdateClientData@CHud@@QAEHPAUclient_data_s@@M@Z@4MA
	mov	ecx, DWORD PTR _cdata$[ebp]
	movss	DWORD PTR [ecx+28], xmm0

; 34   : 	}
; 35   : 	else

	jmp	SHORT $LN3@UpdateClie
$LN2@UpdateClie:

; 36   : 	{
; 37   : 		AddFov = 0.0f;

	xorps	xmm0, xmm0
	movss	DWORD PTR ?AddFov@?1??UpdateClientData@CHud@@QAEHPAUclient_data_s@@M@Z@4MA, xmm0

; 38   : 		cdata->fov = m_flFOV;

	mov	eax, DWORD PTR _cdata$[ebp]
	mov	ecx, DWORD PTR _this$[ebp]
	mov	edx, DWORD PTR [ecx+80]
	mov	DWORD PTR [eax+28], edx
$LN3@UpdateClie:

; 39   : 	}
; 40   : 
; 41   : 	v_idlescale = m_iConcussionEffect;

	mov	eax, DWORD PTR _this$[ebp]
	cvtsi2ss xmm0, DWORD PTR [eax+20]
	movss	DWORD PTR ?v_idlescale@@3MA, xmm0

; 42   : 	CL_ResetButtonBits( m_iKeyBits );

	mov	eax, DWORD PTR _this$[ebp]
	mov	ecx, DWORD PTR [eax+72]
	push	ecx
	call	?CL_ResetButtonBits@@YAXH@Z		; CL_ResetButtonBits
	add	esp, 4

; 43   : 
; 44   : 	// return 1 if in anything in the client_data struct has been changed, 0 otherwise
; 45   : 	return 1;

	mov	eax, 1

; 46   : }

	pop	edi
	pop	esi
	pop	ebx
	mov	esp, ebp
	pop	ebp
	ret	8
?UpdateClientData@CHud@@QAEHPAUclient_data_s@@M@Z ENDP	; CHud::UpdateClientData
_TEXT	ENDS
; Function compile flags: /Odtp /ZI
;	COMDAT ??__G@YGXPAX0IIP6EPAX00@Z@Z
_TEXT	SEGMENT
tv66 = -68						; size = 4
___t$ = 8						; size = 4
___u$ = 12						; size = 4
___s$ = 16						; size = 4
___n$ = 20						; size = 4
___f$ = 24						; size = 4
??__G@YGXPAX0IIP6EPAX00@Z@Z PROC			; `vector copy constructor iterator', COMDAT
	push	ebp
	mov	ebp, esp
	sub	esp, 68					; 00000044H
	push	ebx
	push	esi
	push	edi
$LN2@vector:
	mov	eax, DWORD PTR ___n$[ebp]
	mov	DWORD PTR tv66[ebp], eax
	mov	ecx, DWORD PTR ___n$[ebp]
	sub	ecx, 1
	mov	DWORD PTR ___n$[ebp], ecx
	cmp	DWORD PTR tv66[ebp], 0
	jbe	SHORT $LN1@vector
	mov	eax, DWORD PTR ___u$[ebp]
	push	eax
	mov	ecx, DWORD PTR ___t$[ebp]
	call	DWORD PTR ___f$[ebp]
	mov	eax, DWORD PTR ___t$[ebp]
	add	eax, DWORD PTR ___s$[ebp]
	mov	DWORD PTR ___t$[ebp], eax
	mov	eax, DWORD PTR ___u$[ebp]
	add	eax, DWORD PTR ___s$[ebp]
	mov	DWORD PTR ___u$[ebp], eax
	jmp	SHORT $LN2@vector
$LN1@vector:
	pop	edi
	pop	esi
	pop	ebx
	mov	esp, ebp
	pop	ebp
	ret	20					; 00000014H
??__G@YGXPAX0IIP6EPAX00@Z@Z ENDP			; `vector copy constructor iterator'
_TEXT	ENDS
; Function compile flags: /Odtp /ZI
;	COMDAT ??_H@YGXPAXIIP6EPAX0@Z@Z
_TEXT	SEGMENT
tv66 = -68						; size = 4
___t$ = 8						; size = 4
___s$ = 12						; size = 4
___n$ = 16						; size = 4
___f$ = 20						; size = 4
??_H@YGXPAXIIP6EPAX0@Z@Z PROC				; `vector constructor iterator', COMDAT
	push	ebp
	mov	ebp, esp
	sub	esp, 68					; 00000044H
	push	ebx
	push	esi
	push	edi
$LN2@vector:
	mov	eax, DWORD PTR ___n$[ebp]
	mov	DWORD PTR tv66[ebp], eax
	mov	ecx, DWORD PTR ___n$[ebp]
	sub	ecx, 1
	mov	DWORD PTR ___n$[ebp], ecx
	cmp	DWORD PTR tv66[ebp], 0
	jbe	SHORT $LN1@vector
	mov	ecx, DWORD PTR ___t$[ebp]
	call	DWORD PTR ___f$[ebp]
	mov	eax, DWORD PTR ___t$[ebp]
	add	eax, DWORD PTR ___s$[ebp]
	mov	DWORD PTR ___t$[ebp], eax
	jmp	SHORT $LN2@vector
$LN1@vector:
	pop	edi
	pop	esi
	pop	ebx
	mov	esp, ebp
	pop	ebp
	ret	16					; 00000010H
??_H@YGXPAXIIP6EPAX0@Z@Z ENDP				; `vector constructor iterator'
_TEXT	ENDS
END
