; Listing generated by Microsoft (R) Optimizing Compiler Version 19.00.24247.2 

	TITLE	D:\!DIFFUSION 2020\source code 2022\client-server\client\hud_effects.cpp
	.686P
	.XMM
	include listing.inc
	.model	flat

INCLUDELIB LIBCMT
INCLUDELIB OLDNAMES

PUBLIC	??_H@YGXPAXIIP6EPAX0@Z@Z			; `vector constructor iterator'
PUBLIC	??__G@YGXPAX0IIP6EPAX00@Z@Z			; `vector copy constructor iterator'
PUBLIC	??0Vector@@QAE@MMM@Z				; Vector::Vector
PUBLIC	??GVector@@QBE?AV0@ABV0@@Z			; Vector::operator-
PUBLIC	?Length@Vector@@QBEMXZ				; Vector::Length
PUBLIC	?Init@CScreenEffects@@UAEHXZ			; CScreenEffects::Init
PUBLIC	?VidInit@CScreenEffects@@UAEHXZ			; CScreenEffects::VidInit
PUBLIC	?Draw@CScreenEffects@@UAEHM@Z			; CScreenEffects::Draw
PUBLIC	?DrawVignette@CScreenEffects@@QAEXXZ		; CScreenEffects::DrawVignette
PUBLIC	?DrawCinematicBorder@CScreenEffects@@QAEXXZ	; CScreenEffects::DrawCinematicBorder
PUBLIC	?DrawDroneScreen@CScreenEffects@@QAEXXZ		; CScreenEffects::DrawDroneScreen
PUBLIC	?DrawSpeedometer@CScreenEffects@@QAEXXZ		; CScreenEffects::DrawSpeedometer
PUBLIC	?DrawShieldVignette@CScreenEffects@@QAEXXZ	; CScreenEffects::DrawShieldVignette
PUBLIC	?DrawGameSaved@CScreenEffects@@QAEXXZ		; CScreenEffects::DrawGameSaved
PUBLIC	??_C@_0BI@BCGMDOPM@sprites?1ef_vignette?4dds?$AA@ ; `string'
PUBLIC	??_C@_0BL@BJKPPEPG@sprites?1ef_dronescreen?4dds?$AA@ ; `string'
PUBLIC	??_C@_0CC@COEGKLNJ@sprites?1diffusion?1speedometer?4dd@ ; `string'
PUBLIC	??_C@_0CD@OEFAMJKG@sprites?1diffusion?1speed_arrows?4s@ ; `string'
PUBLIC	??_C@_0CC@IDIKGLGN@sprites?1diffusion?1speed_gears?4sp@ ; `string'
PUBLIC	??_C@_0CA@FMJGPKAC@sprites?1diffusion?1gamesaved?4spr?$AA@ ; `string'
PUBLIC	??_C@_0BP@OGINHKGA@sprites?1ef_vignette_shield?4dds?$AA@ ; `string'
PUBLIC	__real@00000000
PUBLIC	__real@3a83126f
PUBLIC	__real@3c9c0ebf
PUBLIC	__real@3e8c8c8d
PUBLIC	__real@3f000000
PUBLIC	__real@3f29a9aa
PUBLIC	__real@3f800000
PUBLIC	__real@40000000
PUBLIC	__real@40400000
PUBLIC	__real@41c80000
PUBLIC	__real@42c80000
PUBLIC	__real@42f00000
PUBLIC	__real@437f0000
PUBLIC	__real@43960000
PUBLIC	__real@43af0000
PUBLIC	__real@45610000
EXTRN	_sqrt:PROC
EXTRN	?AddHudElem@CHud@@QAEXPAVCHudBase@@@Z:PROC	; CHud::AddHudElem
EXTRN	?DrawQuad@@YAXMMMM@Z:PROC			; DrawQuad
EXTRN	?LoadSprite@@YAHPBD@Z:PROC			; LoadSprite
EXTRN	?CL_UTIL_Approach@@YAMMMM@Z:PROC		; CL_UTIL_Approach
EXTRN	?g_vecZero@@3VVector@@B:BYTE			; g_vecZero
EXTRN	?gEngfuncs@@3Ucl_enginefuncs_s@@A:BYTE		; gEngfuncs
EXTRN	?gRenderfuncs@@3Urender_api_s@@A:BYTE		; gRenderfuncs
EXTRN	?gHUD@@3VCHud@@A:BYTE				; gHUD
EXTRN	?g_iUser1@@3HA:DWORD				; g_iUser1
EXTRN	?g_bDucked@@3_NA:BYTE				; g_bDucked
EXTRN	?g_fFrametime@@3MA:DWORD			; g_fFrametime
EXTRN	?tr@@3Uref_globals_t@@A:BYTE			; tr
EXTRN	__fltused:DWORD
;	COMDAT __real@45610000
CONST	SEGMENT
__real@45610000 DD 045610000r			; 3600
CONST	ENDS
;	COMDAT __real@43af0000
CONST	SEGMENT
__real@43af0000 DD 043af0000r			; 350
CONST	ENDS
;	COMDAT __real@43960000
CONST	SEGMENT
__real@43960000 DD 043960000r			; 300
CONST	ENDS
;	COMDAT __real@437f0000
CONST	SEGMENT
__real@437f0000 DD 0437f0000r			; 255
CONST	ENDS
;	COMDAT __real@42f00000
CONST	SEGMENT
__real@42f00000 DD 042f00000r			; 120
CONST	ENDS
;	COMDAT __real@42c80000
CONST	SEGMENT
__real@42c80000 DD 042c80000r			; 100
CONST	ENDS
;	COMDAT __real@41c80000
CONST	SEGMENT
__real@41c80000 DD 041c80000r			; 25
CONST	ENDS
;	COMDAT __real@40400000
CONST	SEGMENT
__real@40400000 DD 040400000r			; 3
CONST	ENDS
;	COMDAT __real@40000000
CONST	SEGMENT
__real@40000000 DD 040000000r			; 2
CONST	ENDS
;	COMDAT __real@3f800000
CONST	SEGMENT
__real@3f800000 DD 03f800000r			; 1
CONST	ENDS
;	COMDAT __real@3f29a9aa
CONST	SEGMENT
__real@3f29a9aa DD 03f29a9aar			; 0.662745
CONST	ENDS
;	COMDAT __real@3f000000
CONST	SEGMENT
__real@3f000000 DD 03f000000r			; 0.5
CONST	ENDS
;	COMDAT __real@3e8c8c8d
CONST	SEGMENT
__real@3e8c8c8d DD 03e8c8c8dr			; 0.27451
CONST	ENDS
;	COMDAT __real@3c9c0ebf
CONST	SEGMENT
__real@3c9c0ebf DD 03c9c0ebfr			; 0.01905
CONST	ENDS
;	COMDAT __real@3a83126f
CONST	SEGMENT
__real@3a83126f DD 03a83126fr			; 0.001
CONST	ENDS
;	COMDAT __real@00000000
CONST	SEGMENT
__real@00000000 DD 000000000r			; 0
CONST	ENDS
;	COMDAT ??_C@_0BP@OGINHKGA@sprites?1ef_vignette_shield?4dds?$AA@
CONST	SEGMENT
??_C@_0BP@OGINHKGA@sprites?1ef_vignette_shield?4dds?$AA@ DB 'sprites/ef_v'
	DB	'ignette_shield.dds', 00H			; `string'
CONST	ENDS
;	COMDAT ??_C@_0CA@FMJGPKAC@sprites?1diffusion?1gamesaved?4spr?$AA@
CONST	SEGMENT
??_C@_0CA@FMJGPKAC@sprites?1diffusion?1gamesaved?4spr?$AA@ DB 'sprites/di'
	DB	'ffusion/gamesaved.spr', 00H			; `string'
CONST	ENDS
;	COMDAT ??_C@_0CC@IDIKGLGN@sprites?1diffusion?1speed_gears?4sp@
CONST	SEGMENT
??_C@_0CC@IDIKGLGN@sprites?1diffusion?1speed_gears?4sp@ DB 'sprites/diffu'
	DB	'sion/speed_gears.spr', 00H			; `string'
CONST	ENDS
;	COMDAT ??_C@_0CD@OEFAMJKG@sprites?1diffusion?1speed_arrows?4s@
CONST	SEGMENT
??_C@_0CD@OEFAMJKG@sprites?1diffusion?1speed_arrows?4s@ DB 'sprites/diffu'
	DB	'sion/speed_arrows.spr', 00H			; `string'
CONST	ENDS
;	COMDAT ??_C@_0CC@COEGKLNJ@sprites?1diffusion?1speedometer?4dd@
CONST	SEGMENT
??_C@_0CC@COEGKLNJ@sprites?1diffusion?1speedometer?4dd@ DB 'sprites/diffu'
	DB	'sion/speedometer.dds', 00H			; `string'
CONST	ENDS
;	COMDAT ??_C@_0BL@BJKPPEPG@sprites?1ef_dronescreen?4dds?$AA@
CONST	SEGMENT
??_C@_0BL@BJKPPEPG@sprites?1ef_dronescreen?4dds?$AA@ DB 'sprites/ef_drone'
	DB	'screen.dds', 00H				; `string'
CONST	ENDS
;	COMDAT ??_C@_0BI@BCGMDOPM@sprites?1ef_vignette?4dds?$AA@
CONST	SEGMENT
??_C@_0BI@BCGMDOPM@sprites?1ef_vignette?4dds?$AA@ DB 'sprites/ef_vignette'
	DB	'.dds', 00H					; `string'
CONST	ENDS
; Function compile flags: /Odtp /ZI
; File d:\!diffusion 2020\source code 2022\client-server\client\hud_effects.cpp
;	COMDAT ?DrawGameSaved@CScreenEffects@@QAEXXZ
_TEXT	SEGMENT
_SQUARE_SIZE$ = -16					; size = 4
_total_frames$ = -12					; size = 4
_pSaveIcon$ = -8					; size = 4
_this$ = -4						; size = 4
?DrawGameSaved@CScreenEffects@@QAEXXZ PROC		; CScreenEffects::DrawGameSaved, COMDAT
; _this$ = ecx

; 55   : {

	push	ebp
	mov	ebp, esp
	sub	esp, 80					; 00000050H
	push	ebx
	push	esi
	push	edi
	mov	DWORD PTR _this$[ebp], ecx

; 56   : 	if( SaveIcon_Reset )

	mov	eax, DWORD PTR _this$[ebp]
	movzx	ecx, BYTE PTR [eax+9]
	test	ecx, ecx
	je	SHORT $LN2@DrawGameSa

; 57   : 	{
; 58   : 		SaveIcon_Frame = 0;

	mov	eax, DWORD PTR _this$[ebp]
	xorps	xmm0, xmm0
	movss	DWORD PTR [eax+40], xmm0

; 59   : 		SaveIcon_Brightness = 0.0f;

	mov	eax, DWORD PTR _this$[ebp]
	xorps	xmm0, xmm0
	movss	DWORD PTR [eax+44], xmm0

; 60   : 		SaveIcon_Reset = false;

	mov	eax, DWORD PTR _this$[ebp]
	mov	BYTE PTR [eax+9], 0
$LN2@DrawGameSa:

; 61   : 	}
; 62   : 	
; 63   : 	if( !ShouldDrawGameSaved )

	mov	eax, DWORD PTR _this$[ebp]
	movzx	ecx, BYTE PTR [eax+8]
	test	ecx, ecx
	jne	SHORT $LN3@DrawGameSa

; 64   : 		return;

	jmp	$LN1@DrawGameSa
$LN3@DrawGameSa:

; 65   : 
; 66   : 	if( tr.time == tr.oldtime ) // not in paused

	movsd	xmm0, QWORD PTR ?tr@@3Uref_globals_t@@A+8
	ucomisd	xmm0, QWORD PTR ?tr@@3Uref_globals_t@@A+16
	lahf
	test	ah, 68					; 00000044H
	jp	SHORT $LN4@DrawGameSa

; 67   : 		return;

	jmp	$LN1@DrawGameSa
$LN4@DrawGameSa:

; 68   : 
; 69   : 	const model_s *pSaveIcon = gEngfuncs.GetSpritePointer( SaveIcon );

	mov	eax, DWORD PTR _this$[ebp]
	mov	ecx, DWORD PTR [eax+36]
	push	ecx
	call	DWORD PTR ?gEngfuncs@@3Ucl_enginefuncs_s@@A+248
	add	esp, 4
	mov	DWORD PTR _pSaveIcon$[ebp], eax

; 70   : 	int total_frames = SPR_Frames( SaveIcon );

	mov	eax, DWORD PTR _this$[ebp]
	mov	ecx, DWORD PTR [eax+36]
	push	ecx
	call	DWORD PTR ?gEngfuncs@@3Ucl_enginefuncs_s@@A+4
	add	esp, 4
	mov	DWORD PTR _total_frames$[ebp], eax

; 71   : 	if( SaveIcon_Frame >= total_frames - 1 )

	mov	eax, DWORD PTR _total_frames$[ebp]
	sub	eax, 1
	cvtsi2ss xmm0, eax
	mov	ecx, DWORD PTR _this$[ebp]
	movss	xmm1, DWORD PTR [ecx+40]
	comiss	xmm1, xmm0
	jb	SHORT $LN5@DrawGameSa

; 72   : 	{
; 73   : 		SaveIcon_Frame = total_frames - 1;

	mov	eax, DWORD PTR _total_frames$[ebp]
	sub	eax, 1
	cvtsi2ss xmm0, eax
	mov	ecx, DWORD PTR _this$[ebp]
	movss	DWORD PTR [ecx+40], xmm0

; 74   : 		if( SaveIcon_Brightness > 0.0f )

	mov	eax, DWORD PTR _this$[ebp]
	movss	xmm0, DWORD PTR [eax+44]
	comiss	xmm0, DWORD PTR __real@00000000
	jbe	SHORT $LN7@DrawGameSa

; 75   : 			SaveIcon_Brightness -= 300 * g_fFrametime;

	movss	xmm0, DWORD PTR __real@43960000
	mulss	xmm0, DWORD PTR ?g_fFrametime@@3MA
	mov	eax, DWORD PTR _this$[ebp]
	movss	xmm1, DWORD PTR [eax+44]
	subss	xmm1, xmm0
	mov	ecx, DWORD PTR _this$[ebp]
	movss	DWORD PTR [ecx+44], xmm1
$LN7@DrawGameSa:

; 76   : 
; 77   : 		if( SaveIcon_Brightness <= 0.0f )

	mov	eax, DWORD PTR _this$[ebp]
	xorps	xmm0, xmm0
	comiss	xmm0, DWORD PTR [eax+44]
	jb	SHORT $LN8@DrawGameSa

; 78   : 		{
; 79   : 			ShouldDrawGameSaved = false;

	mov	eax, DWORD PTR _this$[ebp]
	mov	BYTE PTR [eax+8], 0

; 80   : 			SaveIcon_Frame = 0;

	mov	eax, DWORD PTR _this$[ebp]
	xorps	xmm0, xmm0
	movss	DWORD PTR [eax+40], xmm0

; 81   : 			SaveIcon_Brightness = 0.0f;

	mov	eax, DWORD PTR _this$[ebp]
	xorps	xmm0, xmm0
	movss	DWORD PTR [eax+44], xmm0

; 82   : 			return;

	jmp	$LN1@DrawGameSa
$LN8@DrawGameSa:

; 83   : 		}
; 84   : 	}
; 85   : 	else

	jmp	SHORT $LN6@DrawGameSa
$LN5@DrawGameSa:

; 86   : 	{
; 87   : 		if( SaveIcon_Brightness < 255.0f )

	mov	eax, DWORD PTR _this$[ebp]
	movss	xmm0, DWORD PTR __real@437f0000
	comiss	xmm0, DWORD PTR [eax+44]
	jbe	SHORT $LN9@DrawGameSa

; 88   : 			SaveIcon_Brightness += 350 * g_fFrametime;

	movss	xmm0, DWORD PTR __real@43af0000
	mulss	xmm0, DWORD PTR ?g_fFrametime@@3MA
	mov	eax, DWORD PTR _this$[ebp]
	addss	xmm0, DWORD PTR [eax+44]
	mov	ecx, DWORD PTR _this$[ebp]
	movss	DWORD PTR [ecx+44], xmm0
$LN9@DrawGameSa:

; 89   : 
; 90   : 		SaveIcon_Frame += 100 * g_fFrametime;

	movss	xmm0, DWORD PTR __real@42c80000
	mulss	xmm0, DWORD PTR ?g_fFrametime@@3MA
	mov	eax, DWORD PTR _this$[ebp]
	addss	xmm0, DWORD PTR [eax+40]
	mov	ecx, DWORD PTR _this$[ebp]
	movss	DWORD PTR [ecx+40], xmm0
$LN6@DrawGameSa:

; 91   : 	}
; 92   : 
; 93   : 	if( !gEngfuncs.pTriAPI->SpriteTexture( (struct model_s *)pSaveIcon, (int)SaveIcon_Frame ) )

	mov	eax, DWORD PTR _this$[ebp]
	cvttss2si ecx, DWORD PTR [eax+40]
	push	ecx
	mov	edx, DWORD PTR _pSaveIcon$[ebp]
	push	edx
	mov	eax, DWORD PTR ?gEngfuncs@@3Ucl_enginefuncs_s@@A+328
	mov	ecx, DWORD PTR [eax+44]
	call	ecx
	add	esp, 8
	test	eax, eax
	jne	SHORT $LN10@DrawGameSa

; 94   : 		return;

	jmp	$LN1@DrawGameSa
$LN10@DrawGameSa:

; 95   : 
; 96   : 	int SQUARE_SIZE = 150;

	mov	DWORD PTR _SQUARE_SIZE$[ebp], 150	; 00000096H

; 97   : 
; 98   : 	gEngfuncs.pTriAPI->RenderMode( kRenderTransAdd );

	push	5
	mov	eax, DWORD PTR ?gEngfuncs@@3Ucl_enginefuncs_s@@A+328
	mov	ecx, DWORD PTR [eax+4]
	call	ecx
	add	esp, 4

; 99   : 	gEngfuncs.pTriAPI->Color4f( 1.0, 1.0, 1.0, SaveIcon_Brightness / 255.0f );

	mov	eax, DWORD PTR _this$[ebp]
	movss	xmm0, DWORD PTR [eax+44]
	divss	xmm0, DWORD PTR __real@437f0000
	push	ecx
	movss	DWORD PTR [esp], xmm0
	push	ecx
	movss	xmm0, DWORD PTR __real@3f800000
	movss	DWORD PTR [esp], xmm0
	push	ecx
	movss	xmm0, DWORD PTR __real@3f800000
	movss	DWORD PTR [esp], xmm0
	push	ecx
	movss	xmm0, DWORD PTR __real@3f800000
	movss	DWORD PTR [esp], xmm0
	mov	ecx, DWORD PTR ?gEngfuncs@@3Ucl_enginefuncs_s@@A+328
	mov	edx, DWORD PTR [ecx+16]
	call	edx
	add	esp, 16					; 00000010H

; 100  : 	gEngfuncs.pTriAPI->Begin( TRI_QUADS );

	push	2
	mov	eax, DWORD PTR ?gEngfuncs@@3Ucl_enginefuncs_s@@A+328
	mov	ecx, DWORD PTR [eax+8]
	call	ecx
	add	esp, 4

; 101  : 	DrawQuad( (ScreenWidth * 0.5f) - (SQUARE_SIZE/2), ScreenHeight - 75 - SQUARE_SIZE, (ScreenWidth * 0.5f) + (SQUARE_SIZE/2), ScreenHeight - 75 );

	mov	eax, DWORD PTR ?gHUD@@3VCHud@@A+8440
	sub	eax, 75					; 0000004bH
	cvtsi2ss xmm0, eax
	push	ecx
	movss	DWORD PTR [esp], xmm0
	cvtsi2ss xmm0, DWORD PTR ?gHUD@@3VCHud@@A+8436
	mulss	xmm0, DWORD PTR __real@3f000000
	mov	eax, DWORD PTR _SQUARE_SIZE$[ebp]
	cdq
	sub	eax, edx
	sar	eax, 1
	cvtsi2ss xmm1, eax
	addss	xmm0, xmm1
	push	ecx
	movss	DWORD PTR [esp], xmm0
	mov	ecx, DWORD PTR ?gHUD@@3VCHud@@A+8440
	sub	ecx, 75					; 0000004bH
	sub	ecx, DWORD PTR _SQUARE_SIZE$[ebp]
	cvtsi2ss xmm0, ecx
	push	ecx
	movss	DWORD PTR [esp], xmm0
	cvtsi2ss xmm0, DWORD PTR ?gHUD@@3VCHud@@A+8436
	mulss	xmm0, DWORD PTR __real@3f000000
	mov	eax, DWORD PTR _SQUARE_SIZE$[ebp]
	cdq
	sub	eax, edx
	sar	eax, 1
	cvtsi2ss xmm1, eax
	subss	xmm0, xmm1
	push	ecx
	movss	DWORD PTR [esp], xmm0
	call	?DrawQuad@@YAXMMMM@Z			; DrawQuad
	add	esp, 16					; 00000010H

; 102  : 	gEngfuncs.pTriAPI->End();

	mov	eax, DWORD PTR ?gEngfuncs@@3Ucl_enginefuncs_s@@A+328
	mov	ecx, DWORD PTR [eax+12]
	call	ecx
$LN1@DrawGameSa:

; 103  : }

	pop	edi
	pop	esi
	pop	ebx
	mov	esp, ebp
	pop	ebp
	ret	0
?DrawGameSaved@CScreenEffects@@QAEXXZ ENDP		; CScreenEffects::DrawGameSaved
_TEXT	ENDS
; Function compile flags: /Odtp /ZI
; File d:\!diffusion 2020\source code 2022\client-server\client\hud_effects.cpp
;	COMDAT ?DrawShieldVignette@CScreenEffects@@QAEXXZ
_TEXT	SEGMENT
tv90 = -76						; size = 4
tv89 = -72						; size = 4
_this$ = -4						; size = 4
?DrawShieldVignette@CScreenEffects@@QAEXXZ PROC		; CScreenEffects::DrawShieldVignette, COMDAT
; _this$ = ecx

; 248  : {

	push	ebp
	mov	ebp, esp
	sub	esp, 76					; 0000004cH
	push	ebx
	push	esi
	push	edi
	mov	DWORD PTR _this$[ebp], ecx

; 249  : 	if( !gHUD.ShieldOn )

	movzx	eax, BYTE PTR ?gHUD@@3VCHud@@A+138
	test	eax, eax
	jne	SHORT $LN2@DrawShield

; 250  : 	{
; 251  : 		if( ShieldAlpha == 0.0f )

	mov	eax, DWORD PTR _this$[ebp]
	movss	xmm0, DWORD PTR [eax+52]
	ucomiss	xmm0, DWORD PTR __real@00000000
	lahf
	test	ah, 68					; 00000044H
	jp	SHORT $LN4@DrawShield

; 252  : 			return;

	jmp	$LN1@DrawShield
$LN4@DrawShield:

; 253  : 		
; 254  : 		if( ShieldAlpha > 0 )

	mov	eax, DWORD PTR _this$[ebp]
	movss	xmm0, DWORD PTR [eax+52]
	comiss	xmm0, DWORD PTR __real@00000000
	jbe	SHORT $LN6@DrawShield

; 255  : 		{
; 256  : 			ShieldAlpha -= 3 * g_fFrametime;

	movss	xmm0, DWORD PTR __real@40400000
	mulss	xmm0, DWORD PTR ?g_fFrametime@@3MA
	mov	eax, DWORD PTR _this$[ebp]
	movss	xmm1, DWORD PTR [eax+52]
	subss	xmm1, xmm0
	mov	ecx, DWORD PTR _this$[ebp]
	movss	DWORD PTR [ecx+52], xmm1

; 257  : 			if( ShieldAlpha <= 0 )

	mov	eax, DWORD PTR _this$[ebp]
	xorps	xmm0, xmm0
	comiss	xmm0, DWORD PTR [eax+52]
	jb	SHORT $LN6@DrawShield

; 258  : 				ShieldAlpha = 0;

	mov	eax, DWORD PTR _this$[ebp]
	xorps	xmm0, xmm0
	movss	DWORD PTR [eax+52], xmm0
$LN6@DrawShield:

; 259  : 		}
; 260  : 	}
; 261  : 	else

	jmp	SHORT $LN7@DrawShield
$LN2@DrawShield:

; 262  : 	{
; 263  : 		if( ShieldAlpha < 1 )

	mov	eax, DWORD PTR _this$[ebp]
	movss	xmm0, DWORD PTR __real@3f800000
	comiss	xmm0, DWORD PTR [eax+52]
	jbe	SHORT $LN7@DrawShield

; 264  : 			ShieldAlpha += 3 * g_fFrametime;

	movss	xmm0, DWORD PTR __real@40400000
	mulss	xmm0, DWORD PTR ?g_fFrametime@@3MA
	mov	eax, DWORD PTR _this$[ebp]
	addss	xmm0, DWORD PTR [eax+52]
	mov	ecx, DWORD PTR _this$[ebp]
	movss	DWORD PTR [ecx+52], xmm0
$LN7@DrawShield:

; 265  : 	}
; 266  : 
; 267  : 	ShieldAlpha = bound( 0, ShieldAlpha, 1 );

	mov	eax, DWORD PTR _this$[ebp]
	movss	xmm0, DWORD PTR [eax+52]
	comiss	xmm0, DWORD PTR __real@00000000
	jb	SHORT $LN12@DrawShield
	mov	ecx, DWORD PTR _this$[ebp]
	movss	xmm0, DWORD PTR __real@3f800000
	comiss	xmm0, DWORD PTR [ecx+52]
	jbe	SHORT $LN10@DrawShield
	mov	edx, DWORD PTR _this$[ebp]
	movss	xmm0, DWORD PTR [edx+52]
	movss	DWORD PTR tv89[ebp], xmm0
	jmp	SHORT $LN11@DrawShield
$LN10@DrawShield:
	movss	xmm0, DWORD PTR __real@3f800000
	movss	DWORD PTR tv89[ebp], xmm0
$LN11@DrawShield:
	movss	xmm0, DWORD PTR tv89[ebp]
	movss	DWORD PTR tv90[ebp], xmm0
	jmp	SHORT $LN13@DrawShield
$LN12@DrawShield:
	xorps	xmm0, xmm0
	movss	DWORD PTR tv90[ebp], xmm0
$LN13@DrawShield:
	mov	eax, DWORD PTR _this$[ebp]
	movss	xmm0, DWORD PTR tv90[ebp]
	movss	DWORD PTR [eax+52], xmm0

; 268  : 
; 269  : 	if( ShieldAlpha > 0 )

	mov	eax, DWORD PTR _this$[ebp]
	movss	xmm0, DWORD PTR [eax+52]
	comiss	xmm0, DWORD PTR __real@00000000
	jbe	$LN8@DrawShield

; 270  : 	{
; 271  : 		gEngfuncs.pTriAPI->RenderMode( kRenderTransAlpha );

	push	4
	mov	eax, DWORD PTR ?gEngfuncs@@3Ucl_enginefuncs_s@@A+328
	mov	ecx, DWORD PTR [eax+4]
	call	ecx
	add	esp, 4

; 272  : 		gEngfuncs.pTriAPI->Color4f( 70 / 255.0f, 169 / 255.0f, 1.0f, ShieldAlpha );

	mov	eax, DWORD PTR _this$[ebp]
	push	ecx
	movss	xmm0, DWORD PTR [eax+52]
	movss	DWORD PTR [esp], xmm0
	push	ecx
	movss	xmm0, DWORD PTR __real@3f800000
	movss	DWORD PTR [esp], xmm0
	push	ecx
	movss	xmm0, DWORD PTR __real@3f29a9aa
	movss	DWORD PTR [esp], xmm0
	push	ecx
	movss	xmm0, DWORD PTR __real@3e8c8c8d
	movss	DWORD PTR [esp], xmm0
	mov	ecx, DWORD PTR ?gEngfuncs@@3Ucl_enginefuncs_s@@A+328
	mov	edx, DWORD PTR [ecx+16]
	call	edx
	add	esp, 16					; 00000010H

; 273  : 		gEngfuncs.pTriAPI->CullFace( TRI_NONE );

	push	1
	mov	eax, DWORD PTR ?gEngfuncs@@3Ucl_enginefuncs_s@@A+328
	mov	ecx, DWORD PTR [eax+40]
	call	ecx
	add	esp, 4

; 274  : 
; 275  : 		GL_SelectTexture( 0 );

	push	0
	call	DWORD PTR ?gRenderfuncs@@3Urender_api_s@@A+136
	add	esp, 4

; 276  : 
; 277  : 		GL_Bind( 0, LOAD_TEXTURE( "sprites/ef_vignette_shield.dds", NULL, 0, 0 ) );

	push	0
	push	0
	push	0
	push	OFFSET ??_C@_0BP@OGINHKGA@sprites?1ef_vignette_shield?4dds?$AA@
	call	DWORD PTR ?gRenderfuncs@@3Urender_api_s@@A+60
	add	esp, 16					; 00000010H
	push	eax
	push	0
	call	DWORD PTR ?gRenderfuncs@@3Urender_api_s@@A+132
	add	esp, 8

; 278  : 
; 279  : 		gEngfuncs.pTriAPI->Begin( TRI_QUADS );

	push	2
	mov	eax, DWORD PTR ?gEngfuncs@@3Ucl_enginefuncs_s@@A+328
	mov	ecx, DWORD PTR [eax+8]
	call	ecx
	add	esp, 4

; 280  : 		DrawQuad( 0, 0, ScreenWidth, ScreenHeight );

	cvtsi2ss xmm0, DWORD PTR ?gHUD@@3VCHud@@A+8440
	push	ecx
	movss	DWORD PTR [esp], xmm0
	cvtsi2ss xmm0, DWORD PTR ?gHUD@@3VCHud@@A+8436
	push	ecx
	movss	DWORD PTR [esp], xmm0
	push	ecx
	xorps	xmm0, xmm0
	movss	DWORD PTR [esp], xmm0
	push	ecx
	xorps	xmm0, xmm0
	movss	DWORD PTR [esp], xmm0
	call	?DrawQuad@@YAXMMMM@Z			; DrawQuad
	add	esp, 16					; 00000010H

; 281  : 		gEngfuncs.pTriAPI->End();

	mov	eax, DWORD PTR ?gEngfuncs@@3Ucl_enginefuncs_s@@A+328
	mov	ecx, DWORD PTR [eax+12]
	call	ecx
$LN8@DrawShield:
$LN1@DrawShield:

; 282  : 	}
; 283  : }

	pop	edi
	pop	esi
	pop	ebx
	mov	esp, ebp
	pop	ebp
	ret	0
?DrawShieldVignette@CScreenEffects@@QAEXXZ ENDP		; CScreenEffects::DrawShieldVignette
_TEXT	ENDS
; Function compile flags: /Odtp /ZI
; File d:\!diffusion 2020\source code 2022\client-server\client\hud_effects.cpp
;	COMDAT ?DrawSpeedometer@CScreenEffects@@QAEXXZ
_TEXT	SEGMENT
tv205 = -108						; size = 4
tv171 = -108						; size = 4
tv305 = -104						; size = 4
tv204 = -104						; size = 4
tv170 = -104						; size = 4
$T1 = -100						; size = 12
_GearFrame$ = -24					; size = 4
_pGears$ = -20						; size = 4
_pArrows$ = -16						; size = 4
_timedelta$ = -12					; size = 4
_Distance$ = -8						; size = 4
_this$ = -4						; size = 4
?DrawSpeedometer@CScreenEffects@@QAEXXZ PROC		; CScreenEffects::DrawSpeedometer, COMDAT
; _this$ = ecx

; 109  : {	

	push	ebp
	mov	ebp, esp
	sub	esp, 108				; 0000006cH
	push	ebx
	push	esi
	push	edi
	mov	DWORD PTR _this$[ebp], ecx

; 110  : 	if( !gHUD.InCar )

	movzx	eax, BYTE PTR ?gHUD@@3VCHud@@A+120
	test	eax, eax
	jne	SHORT $LN2@DrawSpeedo

; 111  : 	{
; 112  : 		gHUD.CarSpeed = 0.0f;

	xorps	xmm0, xmm0
	movss	DWORD PTR ?gHUD@@3VCHud@@A+132, xmm0

; 113  : 		if( SpeedArrowFrame > 0 )

	mov	eax, DWORD PTR _this$[ebp]
	movss	xmm0, DWORD PTR [eax+56]
	comiss	xmm0, DWORD PTR __real@00000000
	jbe	SHORT $LN3@DrawSpeedo

; 114  : 			SpeedArrowFrame = 0;

	mov	eax, DWORD PTR _this$[ebp]
	xorps	xmm0, xmm0
	movss	DWORD PTR [eax+56], xmm0
$LN3@DrawSpeedo:

; 115  : 		return;

	jmp	$LN1@DrawSpeedo
$LN2@DrawSpeedo:

; 116  : 	}
; 117  : 
; 118  : 	if( tr.time == tr.oldtime ) // not in paused

	movsd	xmm0, QWORD PTR ?tr@@3Uref_globals_t@@A+8
	ucomisd	xmm0, QWORD PTR ?tr@@3Uref_globals_t@@A+16
	lahf
	test	ah, 68					; 00000044H
	jp	SHORT $LN4@DrawSpeedo

; 119  : 		return;

	jmp	$LN1@DrawSpeedo
$LN4@DrawSpeedo:

; 120  : 	
; 121  : 	gEngfuncs.pTriAPI->RenderMode( kRenderTransAlpha );

	push	4
	mov	eax, DWORD PTR ?gEngfuncs@@3Ucl_enginefuncs_s@@A+328
	mov	ecx, DWORD PTR [eax+4]
	call	ecx
	add	esp, 4

; 122  : 	gEngfuncs.pTriAPI->Color4f( 1.0f, 1.0f, 1.0f, 1.0f );

	push	ecx
	movss	xmm0, DWORD PTR __real@3f800000
	movss	DWORD PTR [esp], xmm0
	push	ecx
	movss	xmm0, DWORD PTR __real@3f800000
	movss	DWORD PTR [esp], xmm0
	push	ecx
	movss	xmm0, DWORD PTR __real@3f800000
	movss	DWORD PTR [esp], xmm0
	push	ecx
	movss	xmm0, DWORD PTR __real@3f800000
	movss	DWORD PTR [esp], xmm0
	mov	eax, DWORD PTR ?gEngfuncs@@3Ucl_enginefuncs_s@@A+328
	mov	ecx, DWORD PTR [eax+16]
	call	ecx
	add	esp, 16					; 00000010H

; 123  : 	GL_SelectTexture( 0 );

	push	0
	call	DWORD PTR ?gRenderfuncs@@3Urender_api_s@@A+136
	add	esp, 4

; 124  : 	GL_Bind( 0, Speedometer );

	mov	eax, DWORD PTR _this$[ebp]
	mov	ecx, DWORD PTR [eax+24]
	push	ecx
	push	0
	call	DWORD PTR ?gRenderfuncs@@3Urender_api_s@@A+132
	add	esp, 8

; 125  : 	gEngfuncs.pTriAPI->Begin( TRI_QUADS );

	push	2
	mov	eax, DWORD PTR ?gEngfuncs@@3Ucl_enginefuncs_s@@A+328
	mov	ecx, DWORD PTR [eax+8]
	call	ecx
	add	esp, 4

; 126  : 	DrawQuad( ScreenWidth - 320, ScreenHeight - 320, ScreenWidth - 20, ScreenHeight - 20 );

	mov	eax, DWORD PTR ?gHUD@@3VCHud@@A+8440
	sub	eax, 20					; 00000014H
	cvtsi2ss xmm0, eax
	push	ecx
	movss	DWORD PTR [esp], xmm0
	mov	ecx, DWORD PTR ?gHUD@@3VCHud@@A+8436
	sub	ecx, 20					; 00000014H
	cvtsi2ss xmm0, ecx
	push	ecx
	movss	DWORD PTR [esp], xmm0
	mov	edx, DWORD PTR ?gHUD@@3VCHud@@A+8440
	sub	edx, 320				; 00000140H
	cvtsi2ss xmm0, edx
	push	ecx
	movss	DWORD PTR [esp], xmm0
	mov	eax, DWORD PTR ?gHUD@@3VCHud@@A+8436
	sub	eax, 320				; 00000140H
	cvtsi2ss xmm0, eax
	push	ecx
	movss	DWORD PTR [esp], xmm0
	call	?DrawQuad@@YAXMMMM@Z			; DrawQuad
	add	esp, 16					; 00000010H

; 127  : 	gEngfuncs.pTriAPI->End();

	mov	eax, DWORD PTR ?gEngfuncs@@3Ucl_enginefuncs_s@@A+328
	mov	ecx, DWORD PTR [eax+12]
	call	ecx

; 128  : 
; 129  : 	// kilometers
; 130  : 	float Distance = (gEngfuncs.GetLocalPlayer()->prevstate.origin - gEngfuncs.GetLocalPlayer()->curstate.origin).Length() * 0.01905f * 0.001f;

	call	DWORD PTR ?gEngfuncs@@3Ucl_enginefuncs_s@@A+204
	add	eax, 704				; 000002c0H
	push	eax
	lea	eax, DWORD PTR $T1[ebp]
	push	eax
	call	DWORD PTR ?gEngfuncs@@3Ucl_enginefuncs_s@@A+204
	add	eax, 364				; 0000016cH
	mov	ecx, eax
	call	??GVector@@QBE?AV0@ABV0@@Z		; Vector::operator-
	mov	ecx, eax
	call	?Length@Vector@@QBEMXZ			; Vector::Length
	fstp	DWORD PTR tv305[ebp]
	movss	xmm0, DWORD PTR tv305[ebp]
	mulss	xmm0, DWORD PTR __real@3c9c0ebf
	mulss	xmm0, DWORD PTR __real@3a83126f
	movss	DWORD PTR _Distance$[ebp], xmm0

; 131  : 	float timedelta = g_fFrametime;

	movss	xmm0, DWORD PTR ?g_fFrametime@@3MA
	movss	DWORD PTR _timedelta$[ebp], xmm0

; 132  : 	if( GET_MAX_CLIENTS() > 1 )

	call	DWORD PTR ?gEngfuncs@@3Ucl_enginefuncs_s@@A+144
	cmp	eax, 1
	jle	SHORT $LN5@DrawSpeedo

; 133  : 		timedelta = gEngfuncs.GetLocalPlayer()->curstate.msg_time - gEngfuncs.GetLocalPlayer()->prevstate.msg_time;

	call	DWORD PTR ?gEngfuncs@@3Ucl_enginefuncs_s@@A+204
	mov	esi, eax
	call	DWORD PTR ?gEngfuncs@@3Ucl_enginefuncs_s@@A+204
	movss	xmm0, DWORD PTR [esi+696]
	subss	xmm0, DWORD PTR [eax+356]
	movss	DWORD PTR _timedelta$[ebp], xmm0
$LN5@DrawSpeedo:

; 134  : 	
; 135  : 	gHUD.CarSpeed = Distance / (timedelta / 3600.0f);

	movss	xmm0, DWORD PTR _timedelta$[ebp]
	divss	xmm0, DWORD PTR __real@45610000
	movss	xmm1, DWORD PTR _Distance$[ebp]
	divss	xmm1, xmm0
	movss	DWORD PTR ?gHUD@@3VCHud@@A+132, xmm1

; 136  : //	gEngfuncs.Con_NPrintf( 1,"%i\n", (int)kph );
; 137  : 
; 138  : 	const model_s *pArrows = gEngfuncs.GetSpritePointer( SpeedometerArrows );

	mov	eax, DWORD PTR _this$[ebp]
	mov	ecx, DWORD PTR [eax+28]
	push	ecx
	call	DWORD PTR ?gEngfuncs@@3Ucl_enginefuncs_s@@A+248
	add	esp, 4
	mov	DWORD PTR _pArrows$[ebp], eax

; 139  : 	// choose arrow frame, each step equals 2 kph
; 140  : 	SpeedArrowFrame = CL_UTIL_Approach( gHUD.CarSpeed / SPEED_ARROW_STEP, SpeedArrowFrame, 25 * g_fFrametime );

	movss	xmm0, DWORD PTR __real@41c80000
	mulss	xmm0, DWORD PTR ?g_fFrametime@@3MA
	push	ecx
	movss	DWORD PTR [esp], xmm0
	mov	eax, DWORD PTR _this$[ebp]
	push	ecx
	movss	xmm0, DWORD PTR [eax+56]
	movss	DWORD PTR [esp], xmm0
	movss	xmm0, DWORD PTR ?gHUD@@3VCHud@@A+132
	divss	xmm0, DWORD PTR __real@40000000
	push	ecx
	movss	DWORD PTR [esp], xmm0
	call	?CL_UTIL_Approach@@YAMMMM@Z		; CL_UTIL_Approach
	add	esp, 12					; 0000000cH
	mov	ecx, DWORD PTR _this$[ebp]
	fstp	DWORD PTR [ecx+56]

; 141  : 	SpeedArrowFrame = bound( 0, SpeedArrowFrame, SPEED_ARROW_FRAMES - 1  );

	mov	eax, DWORD PTR _this$[ebp]
	movss	xmm0, DWORD PTR [eax+56]
	comiss	xmm0, DWORD PTR __real@00000000
	jb	SHORT $LN11@DrawSpeedo
	mov	ecx, DWORD PTR _this$[ebp]
	movss	xmm0, DWORD PTR __real@42f00000
	comiss	xmm0, DWORD PTR [ecx+56]
	jbe	SHORT $LN9@DrawSpeedo
	mov	edx, DWORD PTR _this$[ebp]
	movss	xmm0, DWORD PTR [edx+56]
	movss	DWORD PTR tv170[ebp], xmm0
	jmp	SHORT $LN10@DrawSpeedo
$LN9@DrawSpeedo:
	movss	xmm0, DWORD PTR __real@42f00000
	movss	DWORD PTR tv170[ebp], xmm0
$LN10@DrawSpeedo:
	movss	xmm0, DWORD PTR tv170[ebp]
	movss	DWORD PTR tv171[ebp], xmm0
	jmp	SHORT $LN12@DrawSpeedo
$LN11@DrawSpeedo:
	xorps	xmm0, xmm0
	movss	DWORD PTR tv171[ebp], xmm0
$LN12@DrawSpeedo:
	mov	eax, DWORD PTR _this$[ebp]
	movss	xmm0, DWORD PTR tv171[ebp]
	movss	DWORD PTR [eax+56], xmm0

; 142  : 	if( !gEngfuncs.pTriAPI->SpriteTexture( (struct model_s *)pArrows, (int)SpeedArrowFrame ) )

	mov	eax, DWORD PTR _this$[ebp]
	cvttss2si ecx, DWORD PTR [eax+56]
	push	ecx
	mov	edx, DWORD PTR _pArrows$[ebp]
	push	edx
	mov	eax, DWORD PTR ?gEngfuncs@@3Ucl_enginefuncs_s@@A+328
	mov	ecx, DWORD PTR [eax+44]
	call	ecx
	add	esp, 8
	test	eax, eax
	jne	SHORT $LN6@DrawSpeedo

; 143  : 		return;

	jmp	$LN1@DrawSpeedo
$LN6@DrawSpeedo:

; 144  : 
; 145  : 	gEngfuncs.pTriAPI->RenderMode( kRenderTransAdd );

	push	5
	mov	eax, DWORD PTR ?gEngfuncs@@3Ucl_enginefuncs_s@@A+328
	mov	ecx, DWORD PTR [eax+4]
	call	ecx
	add	esp, 4

; 146  : 	gEngfuncs.pTriAPI->Begin( TRI_QUADS );

	push	2
	mov	eax, DWORD PTR ?gEngfuncs@@3Ucl_enginefuncs_s@@A+328
	mov	ecx, DWORD PTR [eax+8]
	call	ecx
	add	esp, 4

; 147  : 	DrawQuad( ScreenWidth - 320, ScreenHeight - 320 - SPEEDOMETER_Y_OFFSET, ScreenWidth - 20, ScreenHeight - 20 - SPEEDOMETER_Y_OFFSET );

	mov	eax, DWORD PTR ?gHUD@@3VCHud@@A+8440
	sub	eax, 25					; 00000019H
	cvtsi2ss xmm0, eax
	push	ecx
	movss	DWORD PTR [esp], xmm0
	mov	ecx, DWORD PTR ?gHUD@@3VCHud@@A+8436
	sub	ecx, 20					; 00000014H
	cvtsi2ss xmm0, ecx
	push	ecx
	movss	DWORD PTR [esp], xmm0
	mov	edx, DWORD PTR ?gHUD@@3VCHud@@A+8440
	sub	edx, 325				; 00000145H
	cvtsi2ss xmm0, edx
	push	ecx
	movss	DWORD PTR [esp], xmm0
	mov	eax, DWORD PTR ?gHUD@@3VCHud@@A+8436
	sub	eax, 320				; 00000140H
	cvtsi2ss xmm0, eax
	push	ecx
	movss	DWORD PTR [esp], xmm0
	call	?DrawQuad@@YAXMMMM@Z			; DrawQuad
	add	esp, 16					; 00000010H

; 148  : 	gEngfuncs.pTriAPI->End();

	mov	eax, DWORD PTR ?gEngfuncs@@3Ucl_enginefuncs_s@@A+328
	mov	ecx, DWORD PTR [eax+12]
	call	ecx

; 149  : 
; 150  : 	// draw gears
; 151  : 	const model_s *pGears = gEngfuncs.GetSpritePointer( SpeedometerGears );

	mov	eax, DWORD PTR _this$[ebp]
	mov	ecx, DWORD PTR [eax+32]
	push	ecx
	call	DWORD PTR ?gEngfuncs@@3Ucl_enginefuncs_s@@A+248
	add	esp, 4
	mov	DWORD PTR _pGears$[ebp], eax

; 152  : 	// 9 frames in total (EMPTY-1-2-3-4-5-6-7-R)
; 153  : 	int GearFrame = Gear;

	mov	eax, DWORD PTR _this$[ebp]
	mov	ecx, DWORD PTR [eax+12]
	mov	DWORD PTR _GearFrame$[ebp], ecx

; 154  : 	GearFrame = bound( 0, GearFrame, 9 );

	cmp	DWORD PTR _GearFrame$[ebp], 0
	jl	SHORT $LN15@DrawSpeedo
	cmp	DWORD PTR _GearFrame$[ebp], 9
	jge	SHORT $LN13@DrawSpeedo
	mov	eax, DWORD PTR _GearFrame$[ebp]
	mov	DWORD PTR tv204[ebp], eax
	jmp	SHORT $LN14@DrawSpeedo
$LN13@DrawSpeedo:
	mov	DWORD PTR tv204[ebp], 9
$LN14@DrawSpeedo:
	mov	ecx, DWORD PTR tv204[ebp]
	mov	DWORD PTR tv205[ebp], ecx
	jmp	SHORT $LN16@DrawSpeedo
$LN15@DrawSpeedo:
	mov	DWORD PTR tv205[ebp], 0
$LN16@DrawSpeedo:
	mov	edx, DWORD PTR tv205[ebp]
	mov	DWORD PTR _GearFrame$[ebp], edx

; 155  : 	if( !gEngfuncs.pTriAPI->SpriteTexture( (struct model_s *)pGears, GearFrame ) )

	mov	eax, DWORD PTR _GearFrame$[ebp]
	push	eax
	mov	ecx, DWORD PTR _pGears$[ebp]
	push	ecx
	mov	edx, DWORD PTR ?gEngfuncs@@3Ucl_enginefuncs_s@@A+328
	mov	eax, DWORD PTR [edx+44]
	call	eax
	add	esp, 8
	test	eax, eax
	jne	SHORT $LN7@DrawSpeedo

; 156  : 		return;

	jmp	SHORT $LN1@DrawSpeedo
$LN7@DrawSpeedo:

; 157  : 
; 158  : 	gEngfuncs.pTriAPI->RenderMode( kRenderTransAdd );

	push	5
	mov	eax, DWORD PTR ?gEngfuncs@@3Ucl_enginefuncs_s@@A+328
	mov	ecx, DWORD PTR [eax+4]
	call	ecx
	add	esp, 4

; 159  : 	gEngfuncs.pTriAPI->Begin( TRI_QUADS );

	push	2
	mov	eax, DWORD PTR ?gEngfuncs@@3Ucl_enginefuncs_s@@A+328
	mov	ecx, DWORD PTR [eax+8]
	call	ecx
	add	esp, 4

; 160  : 	DrawQuad( ScreenWidth - 320, ScreenHeight - 320 - SPEEDOMETER_Y_OFFSET, ScreenWidth - 20, ScreenHeight - 20 - SPEEDOMETER_Y_OFFSET );

	mov	eax, DWORD PTR ?gHUD@@3VCHud@@A+8440
	sub	eax, 25					; 00000019H
	cvtsi2ss xmm0, eax
	push	ecx
	movss	DWORD PTR [esp], xmm0
	mov	ecx, DWORD PTR ?gHUD@@3VCHud@@A+8436
	sub	ecx, 20					; 00000014H
	cvtsi2ss xmm0, ecx
	push	ecx
	movss	DWORD PTR [esp], xmm0
	mov	edx, DWORD PTR ?gHUD@@3VCHud@@A+8440
	sub	edx, 325				; 00000145H
	cvtsi2ss xmm0, edx
	push	ecx
	movss	DWORD PTR [esp], xmm0
	mov	eax, DWORD PTR ?gHUD@@3VCHud@@A+8436
	sub	eax, 320				; 00000140H
	cvtsi2ss xmm0, eax
	push	ecx
	movss	DWORD PTR [esp], xmm0
	call	?DrawQuad@@YAXMMMM@Z			; DrawQuad
	add	esp, 16					; 00000010H

; 161  : 	gEngfuncs.pTriAPI->End();

	mov	eax, DWORD PTR ?gEngfuncs@@3Ucl_enginefuncs_s@@A+328
	mov	ecx, DWORD PTR [eax+12]
	call	ecx
$LN1@DrawSpeedo:

; 162  : }

	pop	edi
	pop	esi
	pop	ebx
	mov	esp, ebp
	pop	ebp
	ret	0
?DrawSpeedometer@CScreenEffects@@QAEXXZ ENDP		; CScreenEffects::DrawSpeedometer
_TEXT	ENDS
; Function compile flags: /Odtp /ZI
; File d:\!diffusion 2020\source code 2022\client-server\client\hud_effects.cpp
;	COMDAT ?DrawDroneScreen@CScreenEffects@@QAEXXZ
_TEXT	SEGMENT
_this$ = -4						; size = 4
?DrawDroneScreen@CScreenEffects@@QAEXXZ PROC		; CScreenEffects::DrawDroneScreen, COMDAT
; _this$ = ecx

; 228  : {

	push	ebp
	mov	ebp, esp
	sub	esp, 68					; 00000044H
	push	ebx
	push	esi
	push	edi
	mov	DWORD PTR _this$[ebp], ecx

; 229  : 	if( !(gEngfuncs.GetLocalPlayer()->curstate.effects & EF_PLAYERDRONECONTROL) )

	call	DWORD PTR ?gEngfuncs@@3Ucl_enginefuncs_s@@A+204
	mov	eax, DWORD PTR [eax+748]
	and	eax, 524288				; 00080000H
	jne	SHORT $LN2@DrawDroneS

; 230  : 		return;

	jmp	$LN1@DrawDroneS
$LN2@DrawDroneS:

; 231  : 
; 232  : 	if( gEngfuncs.GetLocalPlayer()->curstate.effects & EF_PLAYERUSINGCAMERA )

	call	DWORD PTR ?gEngfuncs@@3Ucl_enginefuncs_s@@A+204
	mov	eax, DWORD PTR [eax+748]
	and	eax, 131072				; 00020000H
	je	SHORT $LN3@DrawDroneS

; 233  : 		return;

	jmp	$LN1@DrawDroneS
$LN3@DrawDroneS:

; 234  : 
; 235  : 	gEngfuncs.pTriAPI->RenderMode( kRenderTransAlpha );

	push	4
	mov	eax, DWORD PTR ?gEngfuncs@@3Ucl_enginefuncs_s@@A+328
	mov	ecx, DWORD PTR [eax+4]
	call	ecx
	add	esp, 4

; 236  : 	gEngfuncs.pTriAPI->Color4f( 1.0f, 1.0f, 1.0f, 1.0f );

	push	ecx
	movss	xmm0, DWORD PTR __real@3f800000
	movss	DWORD PTR [esp], xmm0
	push	ecx
	movss	xmm0, DWORD PTR __real@3f800000
	movss	DWORD PTR [esp], xmm0
	push	ecx
	movss	xmm0, DWORD PTR __real@3f800000
	movss	DWORD PTR [esp], xmm0
	push	ecx
	movss	xmm0, DWORD PTR __real@3f800000
	movss	DWORD PTR [esp], xmm0
	mov	eax, DWORD PTR ?gEngfuncs@@3Ucl_enginefuncs_s@@A+328
	mov	ecx, DWORD PTR [eax+16]
	call	ecx
	add	esp, 16					; 00000010H

; 237  : 
; 238  : 	GL_SelectTexture( 0 );

	push	0
	call	DWORD PTR ?gRenderfuncs@@3Urender_api_s@@A+136
	add	esp, 4

; 239  : 
; 240  : 	GL_Bind( 0, DroneScreen );

	mov	eax, DWORD PTR _this$[ebp]
	mov	ecx, DWORD PTR [eax+20]
	push	ecx
	push	0
	call	DWORD PTR ?gRenderfuncs@@3Urender_api_s@@A+132
	add	esp, 8

; 241  : 
; 242  : 	gEngfuncs.pTriAPI->Begin( TRI_QUADS );

	push	2
	mov	eax, DWORD PTR ?gEngfuncs@@3Ucl_enginefuncs_s@@A+328
	mov	ecx, DWORD PTR [eax+8]
	call	ecx
	add	esp, 4

; 243  : 	DrawQuad( 0, 0, ScreenWidth, ScreenHeight );

	cvtsi2ss xmm0, DWORD PTR ?gHUD@@3VCHud@@A+8440
	push	ecx
	movss	DWORD PTR [esp], xmm0
	cvtsi2ss xmm0, DWORD PTR ?gHUD@@3VCHud@@A+8436
	push	ecx
	movss	DWORD PTR [esp], xmm0
	push	ecx
	xorps	xmm0, xmm0
	movss	DWORD PTR [esp], xmm0
	push	ecx
	xorps	xmm0, xmm0
	movss	DWORD PTR [esp], xmm0
	call	?DrawQuad@@YAXMMMM@Z			; DrawQuad
	add	esp, 16					; 00000010H

; 244  : 	gEngfuncs.pTriAPI->End();

	mov	eax, DWORD PTR ?gEngfuncs@@3Ucl_enginefuncs_s@@A+328
	mov	ecx, DWORD PTR [eax+12]
	call	ecx
$LN1@DrawDroneS:

; 245  : }

	pop	edi
	pop	esi
	pop	ebx
	mov	esp, ebp
	pop	ebp
	ret	0
?DrawDroneScreen@CScreenEffects@@QAEXXZ ENDP		; CScreenEffects::DrawDroneScreen
_TEXT	ENDS
; Function compile flags: /Odtp /ZI
; File d:\!diffusion 2020\source code 2022\client-server\client\hud_effects.cpp
;	COMDAT ?DrawCinematicBorder@CScreenEffects@@QAEXXZ
_TEXT	SEGMENT
_BorderTransparency$ = -8				; size = 4
_this$ = -4						; size = 4
?DrawCinematicBorder@CScreenEffects@@QAEXXZ PROC	; CScreenEffects::DrawCinematicBorder, COMDAT
; _this$ = ecx

; 168  : {

	push	ebp
	mov	ebp, esp
	sub	esp, 72					; 00000048H
	push	ebx
	push	esi
	push	edi
	mov	DWORD PTR _this$[ebp], ecx

; 169  : //	if( tr.time == tr.oldtime ) // paused
; 170  : //		return;
; 171  : 
; 172  : 	int BorderTransparency = 0;

	mov	DWORD PTR _BorderTransparency$[ebp], 0

; 173  : 
; 174  : 	if( g_iUser1 )

	cmp	DWORD PTR ?g_iUser1@@3HA, 0		; g_iUser1
	je	SHORT $LN2@DrawCinema

; 175  : 		BorderTransparency = 125;

	mov	DWORD PTR _BorderTransparency$[ebp], 125 ; 0000007dH
$LN2@DrawCinema:

; 176  : 
; 177  : 	if( gEngfuncs.GetLocalPlayer()->curstate.effects & EF_PLAYERUSINGCAMERA )

	call	DWORD PTR ?gEngfuncs@@3Ucl_enginefuncs_s@@A+204
	mov	eax, DWORD PTR [eax+748]
	and	eax, 131072				; 00020000H
	je	SHORT $LN3@DrawCinema

; 178  : 		BorderTransparency = 200;

	mov	DWORD PTR _BorderTransparency$[ebp], 200 ; 000000c8H
$LN3@DrawCinema:

; 179  : 
; 180  : 	if( BorderTransparency > 0 )

	cmp	DWORD PTR _BorderTransparency$[ebp], 0
	jle	SHORT $LN1@DrawCinema

; 181  : 	{
; 182  : 		gEngfuncs.pfnFillRGBABlend( 0, ScreenHeight - (ScreenHeight / 10), ScreenWidth, ScreenHeight / 10, 0, 0, 0, BorderTransparency ); // bottom border

	mov	eax, DWORD PTR _BorderTransparency$[ebp]
	push	eax
	push	0
	push	0
	push	0
	mov	eax, DWORD PTR ?gHUD@@3VCHud@@A+8440
	cdq
	mov	ecx, 10					; 0000000aH
	idiv	ecx
	push	eax
	mov	edx, DWORD PTR ?gHUD@@3VCHud@@A+8436
	push	edx
	mov	eax, DWORD PTR ?gHUD@@3VCHud@@A+8440
	cdq
	mov	ecx, 10					; 0000000aH
	idiv	ecx
	mov	edx, DWORD PTR ?gHUD@@3VCHud@@A+8440
	sub	edx, eax
	push	edx
	push	0
	call	DWORD PTR ?gEngfuncs@@3Ucl_enginefuncs_s@@A+520
	add	esp, 32					; 00000020H

; 183  : 		gEngfuncs.pfnFillRGBABlend( 0, 0, ScreenWidth, ScreenHeight / 10, 0, 0, 0, BorderTransparency ); // top border

	mov	eax, DWORD PTR _BorderTransparency$[ebp]
	push	eax
	push	0
	push	0
	push	0
	mov	eax, DWORD PTR ?gHUD@@3VCHud@@A+8440
	cdq
	mov	ecx, 10					; 0000000aH
	idiv	ecx
	push	eax
	mov	edx, DWORD PTR ?gHUD@@3VCHud@@A+8436
	push	edx
	push	0
	push	0
	call	DWORD PTR ?gEngfuncs@@3Ucl_enginefuncs_s@@A+520
	add	esp, 32					; 00000020H
$LN1@DrawCinema:

; 184  : 	}
; 185  : }

	pop	edi
	pop	esi
	pop	ebx
	mov	esp, ebp
	pop	ebp
	ret	0
?DrawCinematicBorder@CScreenEffects@@QAEXXZ ENDP	; CScreenEffects::DrawCinematicBorder
_TEXT	ENDS
; Function compile flags: /Odtp /ZI
; File d:\!diffusion 2020\source code 2022\client-server\client\hud_effects.cpp
;	COMDAT ?DrawVignette@CScreenEffects@@QAEXXZ
_TEXT	SEGMENT
tv87 = -76						; size = 4
tv86 = -72						; size = 4
_this$ = -4						; size = 4
?DrawVignette@CScreenEffects@@QAEXXZ PROC		; CScreenEffects::DrawVignette, COMDAT
; _this$ = ecx

; 191  : {

	push	ebp
	mov	ebp, esp
	sub	esp, 76					; 0000004cH
	push	ebx
	push	esi
	push	edi
	mov	DWORD PTR _this$[ebp], ecx

; 192  : 	if( (g_bDucked && tr.viewparams.onground) || (tr.time == tr.oldtime) )

	movzx	eax, BYTE PTR ?g_bDucked@@3_NA		; g_bDucked
	test	eax, eax
	je	SHORT $LN5@DrawVignet
	cmp	DWORD PTR ?tr@@3Uref_globals_t@@A+5830736, 0
	jne	SHORT $LN4@DrawVignet
$LN5@DrawVignet:
	movsd	xmm0, QWORD PTR ?tr@@3Uref_globals_t@@A+8
	ucomisd	xmm0, QWORD PTR ?tr@@3Uref_globals_t@@A+16
	lahf
	test	ah, 68					; 00000044H
	jp	SHORT $LN2@DrawVignet
$LN4@DrawVignet:

; 193  : 	{
; 194  : 		if( VignetteAlpha < 1 )

	mov	eax, DWORD PTR _this$[ebp]
	movss	xmm0, DWORD PTR __real@3f800000
	comiss	xmm0, DWORD PTR [eax+48]
	jbe	SHORT $LN6@DrawVignet

; 195  : 			VignetteAlpha += 2 * g_fFrametime;

	movss	xmm0, DWORD PTR __real@40000000
	mulss	xmm0, DWORD PTR ?g_fFrametime@@3MA
	mov	eax, DWORD PTR _this$[ebp]
	addss	xmm0, DWORD PTR [eax+48]
	mov	ecx, DWORD PTR _this$[ebp]
	movss	DWORD PTR [ecx+48], xmm0
$LN6@DrawVignet:

; 196  : 	}
; 197  : 	else

	jmp	SHORT $LN7@DrawVignet
$LN2@DrawVignet:

; 198  : 	{
; 199  : 		if( VignetteAlpha > 0 )

	mov	eax, DWORD PTR _this$[ebp]
	movss	xmm0, DWORD PTR [eax+48]
	comiss	xmm0, DWORD PTR __real@00000000
	jbe	SHORT $LN7@DrawVignet

; 200  : 			VignetteAlpha -= 2 * g_fFrametime;

	movss	xmm0, DWORD PTR __real@40000000
	mulss	xmm0, DWORD PTR ?g_fFrametime@@3MA
	mov	eax, DWORD PTR _this$[ebp]
	movss	xmm1, DWORD PTR [eax+48]
	subss	xmm1, xmm0
	mov	ecx, DWORD PTR _this$[ebp]
	movss	DWORD PTR [ecx+48], xmm1
$LN7@DrawVignet:

; 201  : 	}
; 202  : 
; 203  : 	VignetteAlpha = bound( 0, VignetteAlpha, 1 );

	mov	eax, DWORD PTR _this$[ebp]
	movss	xmm0, DWORD PTR [eax+48]
	comiss	xmm0, DWORD PTR __real@00000000
	jb	SHORT $LN13@DrawVignet
	mov	ecx, DWORD PTR _this$[ebp]
	movss	xmm0, DWORD PTR __real@3f800000
	comiss	xmm0, DWORD PTR [ecx+48]
	jbe	SHORT $LN11@DrawVignet
	mov	edx, DWORD PTR _this$[ebp]
	movss	xmm0, DWORD PTR [edx+48]
	movss	DWORD PTR tv86[ebp], xmm0
	jmp	SHORT $LN12@DrawVignet
$LN11@DrawVignet:
	movss	xmm0, DWORD PTR __real@3f800000
	movss	DWORD PTR tv86[ebp], xmm0
$LN12@DrawVignet:
	movss	xmm0, DWORD PTR tv86[ebp]
	movss	DWORD PTR tv87[ebp], xmm0
	jmp	SHORT $LN14@DrawVignet
$LN13@DrawVignet:
	xorps	xmm0, xmm0
	movss	DWORD PTR tv87[ebp], xmm0
$LN14@DrawVignet:
	mov	eax, DWORD PTR _this$[ebp]
	movss	xmm0, DWORD PTR tv87[ebp]
	movss	DWORD PTR [eax+48], xmm0

; 204  : 
; 205  : 	if( gEngfuncs.GetLocalPlayer()->curstate.effects & EF_PLAYERDRONECONTROL )

	call	DWORD PTR ?gEngfuncs@@3Ucl_enginefuncs_s@@A+204
	mov	eax, DWORD PTR [eax+748]
	and	eax, 524288				; 00080000H
	je	SHORT $LN8@DrawVignet

; 206  : 		return;

	jmp	$LN1@DrawVignet
$LN8@DrawVignet:

; 207  : 
; 208  : 	if( VignetteAlpha > 0 )

	mov	eax, DWORD PTR _this$[ebp]
	movss	xmm0, DWORD PTR [eax+48]
	comiss	xmm0, DWORD PTR __real@00000000
	jbe	$LN9@DrawVignet

; 209  : 	{
; 210  : 		gEngfuncs.pTriAPI->RenderMode( kRenderTransAlpha );

	push	4
	mov	eax, DWORD PTR ?gEngfuncs@@3Ucl_enginefuncs_s@@A+328
	mov	ecx, DWORD PTR [eax+4]
	call	ecx
	add	esp, 4

; 211  : 		gEngfuncs.pTriAPI->Color4f( 1.0f, 1.0f, 1.0f, VignetteAlpha );

	mov	eax, DWORD PTR _this$[ebp]
	push	ecx
	movss	xmm0, DWORD PTR [eax+48]
	movss	DWORD PTR [esp], xmm0
	push	ecx
	movss	xmm0, DWORD PTR __real@3f800000
	movss	DWORD PTR [esp], xmm0
	push	ecx
	movss	xmm0, DWORD PTR __real@3f800000
	movss	DWORD PTR [esp], xmm0
	push	ecx
	movss	xmm0, DWORD PTR __real@3f800000
	movss	DWORD PTR [esp], xmm0
	mov	ecx, DWORD PTR ?gEngfuncs@@3Ucl_enginefuncs_s@@A+328
	mov	edx, DWORD PTR [ecx+16]
	call	edx
	add	esp, 16					; 00000010H

; 212  : 		gEngfuncs.pTriAPI->CullFace( TRI_NONE );

	push	1
	mov	eax, DWORD PTR ?gEngfuncs@@3Ucl_enginefuncs_s@@A+328
	mov	ecx, DWORD PTR [eax+40]
	call	ecx
	add	esp, 4

; 213  : 
; 214  : 		GL_SelectTexture( 0 );

	push	0
	call	DWORD PTR ?gRenderfuncs@@3Urender_api_s@@A+136
	add	esp, 4

; 215  : 
; 216  : 		GL_Bind( 0, Vignette );

	mov	eax, DWORD PTR _this$[ebp]
	mov	ecx, DWORD PTR [eax+16]
	push	ecx
	push	0
	call	DWORD PTR ?gRenderfuncs@@3Urender_api_s@@A+132
	add	esp, 8

; 217  : 
; 218  : 		gEngfuncs.pTriAPI->Begin( TRI_QUADS );

	push	2
	mov	eax, DWORD PTR ?gEngfuncs@@3Ucl_enginefuncs_s@@A+328
	mov	ecx, DWORD PTR [eax+8]
	call	ecx
	add	esp, 4

; 219  : 		DrawQuad( 0, 0, ScreenWidth, ScreenHeight );

	cvtsi2ss xmm0, DWORD PTR ?gHUD@@3VCHud@@A+8440
	push	ecx
	movss	DWORD PTR [esp], xmm0
	cvtsi2ss xmm0, DWORD PTR ?gHUD@@3VCHud@@A+8436
	push	ecx
	movss	DWORD PTR [esp], xmm0
	push	ecx
	xorps	xmm0, xmm0
	movss	DWORD PTR [esp], xmm0
	push	ecx
	xorps	xmm0, xmm0
	movss	DWORD PTR [esp], xmm0
	call	?DrawQuad@@YAXMMMM@Z			; DrawQuad
	add	esp, 16					; 00000010H

; 220  : 		gEngfuncs.pTriAPI->End();

	mov	eax, DWORD PTR ?gEngfuncs@@3Ucl_enginefuncs_s@@A+328
	mov	ecx, DWORD PTR [eax+12]
	call	ecx
$LN9@DrawVignet:
$LN1@DrawVignet:

; 221  : 	}
; 222  : }

	pop	edi
	pop	esi
	pop	ebx
	mov	esp, ebp
	pop	ebp
	ret	0
?DrawVignette@CScreenEffects@@QAEXXZ ENDP		; CScreenEffects::DrawVignette
_TEXT	ENDS
; Function compile flags: /Odtp /ZI
; File d:\!diffusion 2020\source code 2022\client-server\client\hud_effects.cpp
;	COMDAT ?Draw@CScreenEffects@@UAEHM@Z
_TEXT	SEGMENT
_this$ = -4						; size = 4
_flTime$ = 8						; size = 4
?Draw@CScreenEffects@@UAEHM@Z PROC			; CScreenEffects::Draw, COMDAT
; _this$ = ecx

; 40   : {

	push	ebp
	mov	ebp, esp
	sub	esp, 68					; 00000044H
	push	ebx
	push	esi
	push	edi
	mov	DWORD PTR _this$[ebp], ecx

; 41   : 	DrawSpeedometer();

	mov	ecx, DWORD PTR _this$[ebp]
	call	?DrawSpeedometer@CScreenEffects@@QAEXXZ	; CScreenEffects::DrawSpeedometer

; 42   : 	DrawShieldVignette();

	mov	ecx, DWORD PTR _this$[ebp]
	call	?DrawShieldVignette@CScreenEffects@@QAEXXZ ; CScreenEffects::DrawShieldVignette

; 43   : 	DrawVignette();

	mov	ecx, DWORD PTR _this$[ebp]
	call	?DrawVignette@CScreenEffects@@QAEXXZ	; CScreenEffects::DrawVignette

; 44   : 	DrawCinematicBorder();

	mov	ecx, DWORD PTR _this$[ebp]
	call	?DrawCinematicBorder@CScreenEffects@@QAEXXZ ; CScreenEffects::DrawCinematicBorder

; 45   : 	DrawDroneScreen();

	mov	ecx, DWORD PTR _this$[ebp]
	call	?DrawDroneScreen@CScreenEffects@@QAEXXZ	; CScreenEffects::DrawDroneScreen

; 46   : 	DrawGameSaved();

	mov	ecx, DWORD PTR _this$[ebp]
	call	?DrawGameSaved@CScreenEffects@@QAEXXZ	; CScreenEffects::DrawGameSaved

; 47   : 
; 48   : 	return 1;

	mov	eax, 1

; 49   : }

	pop	edi
	pop	esi
	pop	ebx
	mov	esp, ebp
	pop	ebp
	ret	4
?Draw@CScreenEffects@@UAEHM@Z ENDP			; CScreenEffects::Draw
_TEXT	ENDS
; Function compile flags: /Odtp /ZI
; File d:\!diffusion 2020\source code 2022\client-server\client\hud_effects.cpp
;	COMDAT ?VidInit@CScreenEffects@@UAEHXZ
_TEXT	SEGMENT
_this$ = -4						; size = 4
?VidInit@CScreenEffects@@UAEHXZ PROC			; CScreenEffects::VidInit, COMDAT
; _this$ = ecx

; 28   : {

	push	ebp
	mov	ebp, esp
	sub	esp, 68					; 00000044H
	push	ebx
	push	esi
	push	edi
	mov	DWORD PTR _this$[ebp], ecx

; 29   : 	Vignette = LOAD_TEXTURE( "sprites/ef_vignette.dds", NULL, 0, 0 );

	push	0
	push	0
	push	0
	push	OFFSET ??_C@_0BI@BCGMDOPM@sprites?1ef_vignette?4dds?$AA@
	call	DWORD PTR ?gRenderfuncs@@3Urender_api_s@@A+60
	add	esp, 16					; 00000010H
	mov	ecx, DWORD PTR _this$[ebp]
	mov	DWORD PTR [ecx+16], eax

; 30   : 	DroneScreen = LOAD_TEXTURE( "sprites/ef_dronescreen.dds", NULL, 0, 0 );

	push	0
	push	0
	push	0
	push	OFFSET ??_C@_0BL@BJKPPEPG@sprites?1ef_dronescreen?4dds?$AA@
	call	DWORD PTR ?gRenderfuncs@@3Urender_api_s@@A+60
	add	esp, 16					; 00000010H
	mov	ecx, DWORD PTR _this$[ebp]
	mov	DWORD PTR [ecx+20], eax

; 31   : 	Speedometer = LOAD_TEXTURE( "sprites/diffusion/speedometer.dds", NULL, 0, 0 );

	push	0
	push	0
	push	0
	push	OFFSET ??_C@_0CC@COEGKLNJ@sprites?1diffusion?1speedometer?4dd@
	call	DWORD PTR ?gRenderfuncs@@3Urender_api_s@@A+60
	add	esp, 16					; 00000010H
	mov	ecx, DWORD PTR _this$[ebp]
	mov	DWORD PTR [ecx+24], eax

; 32   : 	SpeedometerArrows = LoadSprite( "sprites/diffusion/speed_arrows.spr" );

	push	OFFSET ??_C@_0CD@OEFAMJKG@sprites?1diffusion?1speed_arrows?4s@
	call	?LoadSprite@@YAHPBD@Z			; LoadSprite
	add	esp, 4
	mov	ecx, DWORD PTR _this$[ebp]
	mov	DWORD PTR [ecx+28], eax

; 33   : 	SpeedometerGears = LoadSprite( "sprites/diffusion/speed_gears.spr" );

	push	OFFSET ??_C@_0CC@IDIKGLGN@sprites?1diffusion?1speed_gears?4sp@
	call	?LoadSprite@@YAHPBD@Z			; LoadSprite
	add	esp, 4
	mov	ecx, DWORD PTR _this$[ebp]
	mov	DWORD PTR [ecx+32], eax

; 34   : 	LastOrigin = g_vecZero;

	mov	eax, DWORD PTR _this$[ebp]
	add	eax, 64					; 00000040H
	mov	ecx, DWORD PTR ?g_vecZero@@3VVector@@B
	mov	DWORD PTR [eax], ecx
	mov	edx, DWORD PTR ?g_vecZero@@3VVector@@B+4
	mov	DWORD PTR [eax+4], edx
	mov	ecx, DWORD PTR ?g_vecZero@@3VVector@@B+8
	mov	DWORD PTR [eax+8], ecx

; 35   : 	SaveIcon = LoadSprite( "sprites/diffusion/gamesaved.spr" );

	push	OFFSET ??_C@_0CA@FMJGPKAC@sprites?1diffusion?1gamesaved?4spr?$AA@
	call	?LoadSprite@@YAHPBD@Z			; LoadSprite
	add	esp, 4
	mov	ecx, DWORD PTR _this$[ebp]
	mov	DWORD PTR [ecx+36], eax

; 36   : 	return 1;

	mov	eax, 1

; 37   : }

	pop	edi
	pop	esi
	pop	ebx
	mov	esp, ebp
	pop	ebp
	ret	0
?VidInit@CScreenEffects@@UAEHXZ ENDP			; CScreenEffects::VidInit
_TEXT	ENDS
; Function compile flags: /Odtp /ZI
; File d:\!diffusion 2020\source code 2022\client-server\client\hud_effects.cpp
;	COMDAT ?Init@CScreenEffects@@UAEHXZ
_TEXT	SEGMENT
_this$ = -4						; size = 4
?Init@CScreenEffects@@UAEHXZ PROC			; CScreenEffects::Init, COMDAT
; _this$ = ecx

; 21   : {

	push	ebp
	mov	ebp, esp
	sub	esp, 68					; 00000044H
	push	ebx
	push	esi
	push	edi
	mov	DWORD PTR _this$[ebp], ecx

; 22   : 	gHUD.AddHudElem( this );

	mov	eax, DWORD PTR _this$[ebp]
	push	eax
	mov	ecx, OFFSET ?gHUD@@3VCHud@@A		; gHUD
	call	?AddHudElem@CHud@@QAEXPAVCHudBase@@@Z	; CHud::AddHudElem

; 23   : 	m_iFlags |= HUD_ACTIVE; // always active

	mov	eax, DWORD PTR _this$[ebp]
	mov	ecx, DWORD PTR [eax+4]
	or	ecx, 1
	mov	edx, DWORD PTR _this$[ebp]
	mov	DWORD PTR [edx+4], ecx

; 24   : 	return 1;

	mov	eax, 1

; 25   : }

	pop	edi
	pop	esi
	pop	ebx
	mov	esp, ebp
	pop	ebp
	ret	0
?Init@CScreenEffects@@UAEHXZ ENDP			; CScreenEffects::Init
_TEXT	ENDS
; Function compile flags: /Odtp /ZI
; File d:\!diffusion 2020\source code 2022\client-server\game_shared\vector.h
;	COMDAT ?Length@Vector@@QBEMXZ
_TEXT	SEGMENT
tv91 = -72						; size = 4
_this$ = -4						; size = 4
?Length@Vector@@QBEMXZ PROC				; Vector::Length, COMDAT
; _this$ = ecx

; 245  : 	inline float Length(void) const		{ return sqrt( x*x + y*y + z*z ); }

	push	ebp
	mov	ebp, esp
	sub	esp, 72					; 00000048H
	push	ebx
	push	esi
	push	edi
	mov	DWORD PTR _this$[ebp], ecx
	mov	eax, DWORD PTR _this$[ebp]
	mov	ecx, DWORD PTR _this$[ebp]
	movss	xmm0, DWORD PTR [eax]
	mulss	xmm0, DWORD PTR [ecx]
	mov	edx, DWORD PTR _this$[ebp]
	mov	eax, DWORD PTR _this$[ebp]
	movss	xmm1, DWORD PTR [edx+4]
	mulss	xmm1, DWORD PTR [eax+4]
	addss	xmm0, xmm1
	mov	ecx, DWORD PTR _this$[ebp]
	mov	edx, DWORD PTR _this$[ebp]
	movss	xmm1, DWORD PTR [ecx+8]
	mulss	xmm1, DWORD PTR [edx+8]
	addss	xmm0, xmm1
	cvtss2sd xmm0, xmm0
	sub	esp, 8
	movsd	QWORD PTR [esp], xmm0
	call	_sqrt
	add	esp, 8
	fstp	DWORD PTR tv91[ebp]
	fld	DWORD PTR tv91[ebp]
	pop	edi
	pop	esi
	pop	ebx
	mov	esp, ebp
	pop	ebp
	ret	0
?Length@Vector@@QBEMXZ ENDP				; Vector::Length
_TEXT	ENDS
; Function compile flags: /Odtp /ZI
; File d:\!diffusion 2020\source code 2022\client-server\game_shared\vector.h
;	COMDAT ??GVector@@QBE?AV0@ABV0@@Z
_TEXT	SEGMENT
_this$ = -4						; size = 4
___$ReturnUdt$ = 8					; size = 4
_v$ = 12						; size = 4
??GVector@@QBE?AV0@ABV0@@Z PROC				; Vector::operator-, COMDAT
; _this$ = ecx

; 159  : 	inline Vector operator-(const Vector& v) const	{ return Vector(x-v.x, y-v.y, z-v.z);	   }

	push	ebp
	mov	ebp, esp
	sub	esp, 68					; 00000044H
	push	ebx
	push	esi
	push	edi
	mov	DWORD PTR _this$[ebp], ecx
	mov	eax, DWORD PTR _this$[ebp]
	mov	ecx, DWORD PTR _v$[ebp]
	movss	xmm0, DWORD PTR [eax+8]
	subss	xmm0, DWORD PTR [ecx+8]
	push	ecx
	movss	DWORD PTR [esp], xmm0
	mov	edx, DWORD PTR _this$[ebp]
	mov	eax, DWORD PTR _v$[ebp]
	movss	xmm0, DWORD PTR [edx+4]
	subss	xmm0, DWORD PTR [eax+4]
	push	ecx
	movss	DWORD PTR [esp], xmm0
	mov	ecx, DWORD PTR _this$[ebp]
	mov	edx, DWORD PTR _v$[ebp]
	movss	xmm0, DWORD PTR [ecx]
	subss	xmm0, DWORD PTR [edx]
	push	ecx
	movss	DWORD PTR [esp], xmm0
	mov	ecx, DWORD PTR ___$ReturnUdt$[ebp]
	call	??0Vector@@QAE@MMM@Z			; Vector::Vector
	mov	eax, DWORD PTR ___$ReturnUdt$[ebp]
	pop	edi
	pop	esi
	pop	ebx
	mov	esp, ebp
	pop	ebp
	ret	8
??GVector@@QBE?AV0@ABV0@@Z ENDP				; Vector::operator-
_TEXT	ENDS
; Function compile flags: /Odtp /ZI
; File d:\!diffusion 2020\source code 2022\client-server\game_shared\vector.h
;	COMDAT ??0Vector@@QAE@MMM@Z
_TEXT	SEGMENT
_this$ = -4						; size = 4
_X$ = 8							; size = 4
_Y$ = 12						; size = 4
_Z$ = 16						; size = 4
??0Vector@@QAE@MMM@Z PROC				; Vector::Vector, COMDAT
; _this$ = ecx

; 144  : 	inline Vector(float X, float Y, float Z)	{ x = X; y = Y; z = Z;                     }

	push	ebp
	mov	ebp, esp
	sub	esp, 68					; 00000044H
	push	ebx
	push	esi
	push	edi
	mov	DWORD PTR _this$[ebp], ecx
	mov	eax, DWORD PTR _this$[ebp]
	movss	xmm0, DWORD PTR _X$[ebp]
	movss	DWORD PTR [eax], xmm0
	mov	eax, DWORD PTR _this$[ebp]
	movss	xmm0, DWORD PTR _Y$[ebp]
	movss	DWORD PTR [eax+4], xmm0
	mov	eax, DWORD PTR _this$[ebp]
	movss	xmm0, DWORD PTR _Z$[ebp]
	movss	DWORD PTR [eax+8], xmm0
	mov	eax, DWORD PTR _this$[ebp]
	pop	edi
	pop	esi
	pop	ebx
	mov	esp, ebp
	pop	ebp
	ret	12					; 0000000cH
??0Vector@@QAE@MMM@Z ENDP				; Vector::Vector
_TEXT	ENDS
; Function compile flags: /Odtp /ZI
;	COMDAT ??__G@YGXPAX0IIP6EPAX00@Z@Z
_TEXT	SEGMENT
tv66 = -68						; size = 4
___t$ = 8						; size = 4
___u$ = 12						; size = 4
___s$ = 16						; size = 4
___n$ = 20						; size = 4
___f$ = 24						; size = 4
??__G@YGXPAX0IIP6EPAX00@Z@Z PROC			; `vector copy constructor iterator', COMDAT
	push	ebp
	mov	ebp, esp
	sub	esp, 68					; 00000044H
	push	ebx
	push	esi
	push	edi
$LN2@vector:
	mov	eax, DWORD PTR ___n$[ebp]
	mov	DWORD PTR tv66[ebp], eax
	mov	ecx, DWORD PTR ___n$[ebp]
	sub	ecx, 1
	mov	DWORD PTR ___n$[ebp], ecx
	cmp	DWORD PTR tv66[ebp], 0
	jbe	SHORT $LN1@vector
	mov	eax, DWORD PTR ___u$[ebp]
	push	eax
	mov	ecx, DWORD PTR ___t$[ebp]
	call	DWORD PTR ___f$[ebp]
	mov	eax, DWORD PTR ___t$[ebp]
	add	eax, DWORD PTR ___s$[ebp]
	mov	DWORD PTR ___t$[ebp], eax
	mov	eax, DWORD PTR ___u$[ebp]
	add	eax, DWORD PTR ___s$[ebp]
	mov	DWORD PTR ___u$[ebp], eax
	jmp	SHORT $LN2@vector
$LN1@vector:
	pop	edi
	pop	esi
	pop	ebx
	mov	esp, ebp
	pop	ebp
	ret	20					; 00000014H
??__G@YGXPAX0IIP6EPAX00@Z@Z ENDP			; `vector copy constructor iterator'
_TEXT	ENDS
; Function compile flags: /Odtp /ZI
;	COMDAT ??_H@YGXPAXIIP6EPAX0@Z@Z
_TEXT	SEGMENT
tv66 = -68						; size = 4
___t$ = 8						; size = 4
___s$ = 12						; size = 4
___n$ = 16						; size = 4
___f$ = 20						; size = 4
??_H@YGXPAXIIP6EPAX0@Z@Z PROC				; `vector constructor iterator', COMDAT
	push	ebp
	mov	ebp, esp
	sub	esp, 68					; 00000044H
	push	ebx
	push	esi
	push	edi
$LN2@vector:
	mov	eax, DWORD PTR ___n$[ebp]
	mov	DWORD PTR tv66[ebp], eax
	mov	ecx, DWORD PTR ___n$[ebp]
	sub	ecx, 1
	mov	DWORD PTR ___n$[ebp], ecx
	cmp	DWORD PTR tv66[ebp], 0
	jbe	SHORT $LN1@vector
	mov	ecx, DWORD PTR ___t$[ebp]
	call	DWORD PTR ___f$[ebp]
	mov	eax, DWORD PTR ___t$[ebp]
	add	eax, DWORD PTR ___s$[ebp]
	mov	DWORD PTR ___t$[ebp], eax
	jmp	SHORT $LN2@vector
$LN1@vector:
	pop	edi
	pop	esi
	pop	ebx
	mov	esp, ebp
	pop	ebp
	ret	16					; 00000010H
??_H@YGXPAXIIP6EPAX0@Z@Z ENDP				; `vector constructor iterator'
_TEXT	ENDS
END
