; Listing generated by Microsoft (R) Optimizing Compiler Version 19.00.24247.2 

	TITLE	D:\!DIFFUSION 2020\source code 2022\client-server\client\hud_health.cpp
	.686P
	.XMM
	include listing.inc
	.model	flat

INCLUDELIB LIBCMT
INCLUDELIB OLDNAMES

PUBLIC	?OFFLINEFlashAlphaH@@3MA			; OFFLINEFlashAlphaH
_BSS	SEGMENT
?OFFLINEFlashAlphaH@@3MA DD 01H DUP (?)			; OFFLINEFlashAlphaH
?health_val@?1??Draw@CHudHealthVisual@@UAEHM@Z@4MA DD 01H DUP (?) ; `CHudHealthVisual::Draw'::`2'::health_val
_BSS	ENDS
PUBLIC	??_H@YGXPAXIIP6EPAX0@Z@Z			; `vector constructor iterator'
PUBLIC	??__G@YGXPAX0IIP6EPAX00@Z@Z			; `vector copy constructor iterator'
PUBLIC	?Init@CHudHealthVisual@@UAEHXZ			; CHudHealthVisual::Init
PUBLIC	?VidInit@CHudHealthVisual@@UAEHXZ		; CHudHealthVisual::VidInit
PUBLIC	?Draw@CHudHealthVisual@@UAEHM@Z			; CHudHealthVisual::Draw
PUBLIC	?MsgFunc_HealthVisual@CHudHealthVisual@@QAEHPBDHPAX@Z ; CHudHealthVisual::MsgFunc_HealthVisual
PUBLIC	?DrawOfflineBar@CHudHealthVisual@@QAEXHH@Z	; CHudHealthVisual::DrawOfflineBar
PUBLIC	?GetSprite@CHud@@QAEHH@Z			; CHud::GetSprite
PUBLIC	?GetSpriteRect@CHud@@QAEAAUwrect_s@@H@Z		; CHud::GetSpriteRect
PUBLIC	?HasWeapon@CHud@@QAEHH@Z			; CHud::HasWeapon
PUBLIC	?UnpackRGB@@YAXAAH00K@Z				; UnpackRGB
PUBLIC	?__MsgFunc_HealthVisual@@YAHPBDHPAX@Z		; __MsgFunc_HealthVisual
PUBLIC	??_C@_0N@FOAEKJGA@HealthVisual?$AA@		; `string'
PUBLIC	??_C@_0N@MKHGDJGD@health_empty?$AA@		; `string'
PUBLIC	??_C@_0M@KAAIOHIE@health_full?$AA@		; `string'
PUBLIC	??_C@_0P@NNHCBLK@health_offline?$AA@		; `string'
PUBLIC	__real@00000000
PUBLIC	__real@4008000000000000
PUBLIC	__real@4059000000000000
PUBLIC	__real@4060000000000000
PUBLIC	__real@42480000
PUBLIC	__real@42c80000
PUBLIC	__real@43000000
PUBLIC	__real@43160000
PUBLIC	__real@437f0000
PUBLIC	__real@43fa0000
EXTRN	_fabs:PROC
EXTRN	_sin:PROC
EXTRN	?GetSpriteIndex@CHud@@QAEHPBD@Z:PROC		; CHud::GetSpriteIndex
EXTRN	?AddHudElem@CHud@@QAEXPAVCHudBase@@@Z:PROC	; CHud::AddHudElem
EXTRN	?ScaleColors@@YAXAAH00H@Z:PROC			; ScaleColors
EXTRN	?CL_UTIL_Approach@@YAMMMM@Z:PROC		; CL_UTIL_Approach
EXTRN	?CL_IsDead@@YAHXZ:PROC				; CL_IsDead
EXTRN	?BEGIN_READ@@YAXPBDPAXH@Z:PROC			; BEGIN_READ
EXTRN	?END_READ@@YAXXZ:PROC				; END_READ
EXTRN	?READ_BYTE@@YAHXZ:PROC				; READ_BYTE
EXTRN	@__security_check_cookie@4:PROC
EXTRN	?gEngfuncs@@3Ucl_enginefuncs_s@@A:BYTE		; gEngfuncs
EXTRN	?gHUD@@3VCHud@@A:BYTE				; gHUD
EXTRN	?g_fFrametime@@3MA:DWORD			; g_fFrametime
EXTRN	?ui_is_active@@3PAUcvar_s@@A:DWORD		; ui_is_active
EXTRN	?tr@@3Uref_globals_t@@A:BYTE			; tr
EXTRN	___security_cookie:DWORD
EXTRN	__fltused:DWORD
;	COMDAT __real@43fa0000
CONST	SEGMENT
__real@43fa0000 DD 043fa0000r			; 500
CONST	ENDS
;	COMDAT __real@437f0000
CONST	SEGMENT
__real@437f0000 DD 0437f0000r			; 255
CONST	ENDS
;	COMDAT __real@43160000
CONST	SEGMENT
__real@43160000 DD 043160000r			; 150
CONST	ENDS
;	COMDAT __real@43000000
CONST	SEGMENT
__real@43000000 DD 043000000r			; 128
CONST	ENDS
;	COMDAT __real@42c80000
CONST	SEGMENT
__real@42c80000 DD 042c80000r			; 100
CONST	ENDS
;	COMDAT __real@42480000
CONST	SEGMENT
__real@42480000 DD 042480000r			; 50
CONST	ENDS
;	COMDAT __real@4060000000000000
CONST	SEGMENT
__real@4060000000000000 DQ 04060000000000000r	; 128
CONST	ENDS
;	COMDAT __real@4059000000000000
CONST	SEGMENT
__real@4059000000000000 DQ 04059000000000000r	; 100
CONST	ENDS
;	COMDAT __real@4008000000000000
CONST	SEGMENT
__real@4008000000000000 DQ 04008000000000000r	; 3
CONST	ENDS
;	COMDAT __real@00000000
CONST	SEGMENT
__real@00000000 DD 000000000r			; 0
CONST	ENDS
;	COMDAT ??_C@_0P@NNHCBLK@health_offline?$AA@
CONST	SEGMENT
??_C@_0P@NNHCBLK@health_offline?$AA@ DB 'health_offline', 00H ; `string'
CONST	ENDS
;	COMDAT ??_C@_0M@KAAIOHIE@health_full?$AA@
CONST	SEGMENT
??_C@_0M@KAAIOHIE@health_full?$AA@ DB 'health_full', 00H ; `string'
CONST	ENDS
;	COMDAT ??_C@_0N@MKHGDJGD@health_empty?$AA@
CONST	SEGMENT
??_C@_0N@MKHGDJGD@health_empty?$AA@ DB 'health_empty', 00H ; `string'
CONST	ENDS
;	COMDAT ??_C@_0N@FOAEKJGA@HealthVisual?$AA@
CONST	SEGMENT
??_C@_0N@FOAEKJGA@HealthVisual?$AA@ DB 'HealthVisual', 00H ; `string'
CONST	ENDS
; Function compile flags: /Odtp /ZI
; File d:\!diffusion 2020\source code 2022\client-server\client\hud_health.cpp
;	COMDAT ?__MsgFunc_HealthVisual@@YAHPBDHPAX@Z
_TEXT	SEGMENT
_pszName$ = 8						; size = 4
_iSize$ = 12						; size = 4
_pbuf$ = 16						; size = 4
?__MsgFunc_HealthVisual@@YAHPBDHPAX@Z PROC		; __MsgFunc_HealthVisual, COMDAT

; 8    : DECLARE_MESSAGE( m_HealthVisual, HealthVisual )

	push	ebp
	mov	ebp, esp
	sub	esp, 64					; 00000040H
	push	ebx
	push	esi
	push	edi
	mov	eax, DWORD PTR _pbuf$[ebp]
	push	eax
	mov	ecx, DWORD PTR _iSize$[ebp]
	push	ecx
	mov	edx, DWORD PTR _pszName$[ebp]
	push	edx
	mov	ecx, OFFSET ?gHUD@@3VCHud@@A+7180
	call	?MsgFunc_HealthVisual@CHudHealthVisual@@QAEHPBDHPAX@Z ; CHudHealthVisual::MsgFunc_HealthVisual
	pop	edi
	pop	esi
	pop	ebx
	mov	esp, ebp
	pop	ebp
	ret	0
?__MsgFunc_HealthVisual@@YAHPBDHPAX@Z ENDP		; __MsgFunc_HealthVisual
_TEXT	ENDS
; Function compile flags: /Odtp /ZI
; File d:\!diffusion 2020\source code 2022\client-server\client\utils.h
;	COMDAT ?UnpackRGB@@YAXAAH00K@Z
_TEXT	SEGMENT
_r$ = 8							; size = 4
_g$ = 12						; size = 4
_b$ = 16						; size = 4
_ulRGB$ = 20						; size = 4
?UnpackRGB@@YAXAAH00K@Z PROC				; UnpackRGB, COMDAT

; 98   : {\

	push	ebp
	mov	ebp, esp
	sub	esp, 64					; 00000040H
	push	ebx
	push	esi
	push	edi

; 99   : 	r = (ulRGB & 0xFF0000) >>16;\

	mov	eax, DWORD PTR _ulRGB$[ebp]
	and	eax, 16711680				; 00ff0000H
	shr	eax, 16					; 00000010H
	mov	ecx, DWORD PTR _r$[ebp]
	mov	DWORD PTR [ecx], eax

; 100  : 	g = (ulRGB & 0xFF00) >> 8;\

	mov	eax, DWORD PTR _ulRGB$[ebp]
	and	eax, 65280				; 0000ff00H
	shr	eax, 8
	mov	ecx, DWORD PTR _g$[ebp]
	mov	DWORD PTR [ecx], eax

; 101  : 	b = ulRGB & 0xFF;\

	mov	eax, DWORD PTR _ulRGB$[ebp]
	and	eax, 255				; 000000ffH
	mov	ecx, DWORD PTR _b$[ebp]
	mov	DWORD PTR [ecx], eax

; 102  : }

	pop	edi
	pop	esi
	pop	ebx
	mov	esp, ebp
	pop	ebp
	ret	0
?UnpackRGB@@YAXAAH00K@Z ENDP				; UnpackRGB
_TEXT	ENDS
; Function compile flags: /Odtp /ZI
; File d:\!diffusion 2020\source code 2022\client-server\client\hud.h
;	COMDAT ?HasWeapon@CHud@@QAEHH@Z
_TEXT	SEGMENT
_this$ = -4						; size = 4
_weaponnum$ = 8						; size = 4
?HasWeapon@CHud@@QAEHH@Z PROC				; CHud::HasWeapon, COMDAT
; _this$ = ecx

; 1038 : 	BOOL HasWeapon( int weaponnum ) { return FBitSet( m_iWeaponBits[weaponnum >> 3], BIT( weaponnum & 7 )); }

	push	ebp
	mov	ebp, esp
	sub	esp, 68					; 00000044H
	push	ebx
	push	esi
	push	edi
	mov	DWORD PTR _this$[ebp], ecx
	mov	eax, DWORD PTR _weaponnum$[ebp]
	sar	eax, 3
	mov	ecx, DWORD PTR _this$[ebp]
	movzx	eax, BYTE PTR [ecx+eax+8964]
	mov	ecx, DWORD PTR _weaponnum$[ebp]
	and	ecx, 7
	mov	edx, 1
	shl	edx, cl
	and	eax, edx
	pop	edi
	pop	esi
	pop	ebx
	mov	esp, ebp
	pop	ebp
	ret	4
?HasWeapon@CHud@@QAEHH@Z ENDP				; CHud::HasWeapon
_TEXT	ENDS
; Function compile flags: /Odtp /ZI
; File d:\!diffusion 2020\source code 2022\client-server\client\hud.h
;	COMDAT ?GetSpriteRect@CHud@@QAEAAUwrect_s@@H@Z
_TEXT	SEGMENT
_this$ = -4						; size = 4
_index$ = 8						; size = 4
?GetSpriteRect@CHud@@QAEAAUwrect_s@@H@Z PROC		; CHud::GetSpriteRect, COMDAT
; _this$ = ecx

; 952  : 	wrect_t& GetSpriteRect( int index ) { return m_rgrcRects[index]; }

	push	ebp
	mov	ebp, esp
	sub	esp, 68					; 00000044H
	push	ebx
	push	esi
	push	edi
	mov	DWORD PTR _this$[ebp], ecx
	mov	eax, DWORD PTR _index$[ebp]
	shl	eax, 4
	mov	ecx, DWORD PTR _this$[ebp]
	add	eax, DWORD PTR [ecx+232]
	pop	edi
	pop	esi
	pop	ebx
	mov	esp, ebp
	pop	ebp
	ret	4
?GetSpriteRect@CHud@@QAEAAUwrect_s@@H@Z ENDP		; CHud::GetSpriteRect
_TEXT	ENDS
; Function compile flags: /Odtp /ZI
; File d:\!diffusion 2020\source code 2022\client-server\client\hud.h
;	COMDAT ?GetSprite@CHud@@QAEHH@Z
_TEXT	SEGMENT
tv68 = -72						; size = 4
_this$ = -4						; size = 4
_index$ = 8						; size = 4
?GetSprite@CHud@@QAEHH@Z PROC				; CHud::GetSprite, COMDAT
; _this$ = ecx

; 951  : 	SpriteHandle GetSprite( int index ) { return (index < 0) ? 0 : m_rghSprites[index]; }

	push	ebp
	mov	ebp, esp
	sub	esp, 72					; 00000048H
	push	ebx
	push	esi
	push	edi
	mov	DWORD PTR _this$[ebp], ecx
	cmp	DWORD PTR _index$[ebp], 0
	jge	SHORT $LN3@GetSprite
	mov	DWORD PTR tv68[ebp], 0
	jmp	SHORT $LN4@GetSprite
$LN3@GetSprite:
	mov	eax, DWORD PTR _this$[ebp]
	mov	ecx, DWORD PTR [eax+228]
	mov	edx, DWORD PTR _index$[ebp]
	mov	eax, DWORD PTR [ecx+edx*4]
	mov	DWORD PTR tv68[ebp], eax
$LN4@GetSprite:
	mov	eax, DWORD PTR tv68[ebp]
	pop	edi
	pop	esi
	pop	ebx
	mov	esp, ebp
	pop	ebp
	ret	4
?GetSprite@CHud@@QAEHH@Z ENDP				; CHud::GetSprite
_TEXT	ENDS
; Function compile flags: /Odtp /ZI
; File d:\!diffusion 2020\source code 2022\client-server\client\hud_health.cpp
;	COMDAT ?DrawOfflineBar@CHudHealthVisual@@QAEXHH@Z
_TEXT	SEGMENT
tv134 = -88						; size = 8
tv75 = -88						; size = 4
tv74 = -84						; size = 4
_b$ = -16						; size = 4
_g$ = -12						; size = 4
_r$ = -8						; size = 4
_this$ = -4						; size = 4
_x$ = 8							; size = 4
_y$ = 12						; size = 4
?DrawOfflineBar@CHudHealthVisual@@QAEXHH@Z PROC		; CHudHealthVisual::DrawOfflineBar, COMDAT
; _this$ = ecx

; 150  : {

	push	ebp
	mov	ebp, esp
	sub	esp, 88					; 00000058H
	push	ebx
	push	esi
	push	edi
	mov	DWORD PTR _this$[ebp], ecx

; 151  : 	int r = 255;

	mov	DWORD PTR _r$[ebp], 255			; 000000ffH

; 152  : 	int g, b = 0;

	mov	DWORD PTR _b$[ebp], 0

; 153  : 		
; 154  : 	OFFLINEFlashAlphaH = 128 + (fabs( sin( tr.time * 3 ) ) * 128);

	movsd	xmm0, QWORD PTR ?tr@@3Uref_globals_t@@A+8
	mulsd	xmm0, QWORD PTR __real@4008000000000000
	sub	esp, 8
	movsd	QWORD PTR [esp], xmm0
	call	_sin
	fstp	QWORD PTR [esp]
	call	_fabs
	add	esp, 8
	fstp	QWORD PTR tv134[ebp]
	movsd	xmm0, QWORD PTR tv134[ebp]
	mulsd	xmm0, QWORD PTR __real@4060000000000000
	addsd	xmm0, QWORD PTR __real@4060000000000000
	cvtsd2ss xmm0, xmm0
	movss	DWORD PTR ?OFFLINEFlashAlphaH@@3MA, xmm0

; 155  : 	OFFLINEFlashAlphaH = bound( 128, OFFLINEFlashAlphaH, 255 );

	movss	xmm0, DWORD PTR ?OFFLINEFlashAlphaH@@3MA
	comiss	xmm0, DWORD PTR __real@43000000
	jb	SHORT $LN5@DrawOfflin
	movss	xmm0, DWORD PTR __real@437f0000
	comiss	xmm0, DWORD PTR ?OFFLINEFlashAlphaH@@3MA
	jbe	SHORT $LN3@DrawOfflin
	movss	xmm0, DWORD PTR ?OFFLINEFlashAlphaH@@3MA
	movss	DWORD PTR tv74[ebp], xmm0
	jmp	SHORT $LN4@DrawOfflin
$LN3@DrawOfflin:
	movss	xmm0, DWORD PTR __real@437f0000
	movss	DWORD PTR tv74[ebp], xmm0
$LN4@DrawOfflin:
	movss	xmm0, DWORD PTR tv74[ebp]
	movss	DWORD PTR tv75[ebp], xmm0
	jmp	SHORT $LN6@DrawOfflin
$LN5@DrawOfflin:
	movss	xmm0, DWORD PTR __real@43000000
	movss	DWORD PTR tv75[ebp], xmm0
$LN6@DrawOfflin:
	movss	xmm0, DWORD PTR tv75[ebp]
	movss	DWORD PTR ?OFFLINEFlashAlphaH@@3MA, xmm0

; 156  : 
; 157  : 	ScaleColors( r, g, b, (int)OFFLINEFlashAlphaH );

	cvttss2si eax, DWORD PTR ?OFFLINEFlashAlphaH@@3MA
	push	eax
	lea	ecx, DWORD PTR _b$[ebp]
	push	ecx
	lea	edx, DWORD PTR _g$[ebp]
	push	edx
	lea	eax, DWORD PTR _r$[ebp]
	push	eax
	call	?ScaleColors@@YAXAAH00H@Z		; ScaleColors
	add	esp, 16					; 00000010H

; 158  : 
; 159  : 	SPR_Set( m_hBarOffline, r, g, b );

	mov	eax, DWORD PTR _b$[ebp]
	push	eax
	mov	ecx, DWORD PTR _g$[ebp]
	push	ecx
	mov	edx, DWORD PTR _r$[ebp]
	push	edx
	mov	eax, DWORD PTR _this$[ebp]
	mov	ecx, DWORD PTR [eax+36]
	push	ecx
	call	DWORD PTR ?gEngfuncs@@3Ucl_enginefuncs_s@@A+16
	add	esp, 16					; 00000010H

; 160  : 	SPR_DrawAdditive( 0, x, y, m_prc_offline );

	mov	eax, DWORD PTR _this$[ebp]
	mov	ecx, DWORD PTR [eax+48]
	push	ecx
	mov	edx, DWORD PTR _y$[ebp]
	push	edx
	mov	eax, DWORD PTR _x$[ebp]
	push	eax
	push	0
	call	DWORD PTR ?gEngfuncs@@3Ucl_enginefuncs_s@@A+28
	add	esp, 16					; 00000010H

; 161  : }

	pop	edi
	pop	esi
	pop	ebx
	mov	esp, ebp
	pop	ebp
	ret	8
?DrawOfflineBar@CHudHealthVisual@@QAEXHH@Z ENDP		; CHudHealthVisual::DrawOfflineBar
_TEXT	ENDS
; Function compile flags: /Odtp /ZI
; File d:\!diffusion 2020\source code 2022\client-server\client\hud_health.cpp
;	COMDAT ?MsgFunc_HealthVisual@CHudHealthVisual@@QAEHPBDHPAX@Z
_TEXT	SEGMENT
_this$ = -4						; size = 4
_pszName$ = 8						; size = 4
_iSize$ = 12						; size = 4
_pbuf$ = 16						; size = 4
?MsgFunc_HealthVisual@CHudHealthVisual@@QAEHPBDHPAX@Z PROC ; CHudHealthVisual::MsgFunc_HealthVisual, COMDAT
; _this$ = ecx

; 39   : {

	push	ebp
	mov	ebp, esp
	sub	esp, 68					; 00000044H
	push	ebx
	push	esi
	push	edi
	mov	DWORD PTR _this$[ebp], ecx

; 40   : 	BEGIN_READ( pszName, pbuf, iSize );

	mov	eax, DWORD PTR _iSize$[ebp]
	push	eax
	mov	ecx, DWORD PTR _pbuf$[ebp]
	push	ecx
	mov	edx, DWORD PTR _pszName$[ebp]
	push	edx
	call	?BEGIN_READ@@YAXPBDPAXH@Z		; BEGIN_READ
	add	esp, 12					; 0000000cH

; 41   : 	GotHit = READ_BYTE();

	call	?READ_BYTE@@YAHXZ			; READ_BYTE
	mov	ecx, DWORD PTR _this$[ebp]
	mov	DWORD PTR [ecx+12], eax

; 42   : 	m_iHealthVisual = READ_BYTE();

	call	?READ_BYTE@@YAHXZ			; READ_BYTE
	mov	ecx, DWORD PTR _this$[ebp]
	mov	DWORD PTR [ecx+8], eax

; 43   : 	END_READ();

	call	?END_READ@@YAXXZ			; END_READ

; 44   : 
; 45   : 	return 1;

	mov	eax, 1

; 46   : }

	pop	edi
	pop	esi
	pop	ebx
	mov	esp, ebp
	pop	ebp
	ret	12					; 0000000cH
?MsgFunc_HealthVisual@CHudHealthVisual@@QAEHPBDHPAX@Z ENDP ; CHudHealthVisual::MsgFunc_HealthVisual
_TEXT	ENDS
; Function compile flags: /Odtp /ZI
; File d:\!diffusion 2020\source code 2022\client-server\client\hud_health.cpp
;	COMDAT ?Draw@CHudHealthVisual@@UAEHM@Z
_TEXT	SEGMENT
tv74 = -137						; size = 1
_iOffset2$1 = -72					; size = 4
_rc2$2 = -68						; size = 16
_megahealth_val$3 = -52					; size = 4
_rc$4 = -48						; size = 16
_iOffset$ = -32						; size = 4
_y$ = -28						; size = 4
_x$ = -24						; size = 4
_b$ = -20						; size = 4
_g$ = -16						; size = 4
_r$ = -12						; size = 4
_this$ = -8						; size = 4
__$ArrayPad$ = -4					; size = 4
_flTime$ = 8						; size = 4
?Draw@CHudHealthVisual@@UAEHM@Z PROC			; CHudHealthVisual::Draw, COMDAT
; _this$ = ecx

; 49   : {

	push	ebp
	mov	ebp, esp
	sub	esp, 140				; 0000008cH
	mov	eax, DWORD PTR ___security_cookie
	xor	eax, ebp
	mov	DWORD PTR __$ArrayPad$[ebp], eax
	push	ebx
	push	esi
	push	edi
	mov	DWORD PTR _this$[ebp], ecx

; 50   : 	if( gHUD.m_iHideHUDDisplay & HIDEHUD_HEALTH )

	mov	eax, DWORD PTR ?gHUD@@3VCHud@@A+76
	and	eax, 8
	je	SHORT $LN2@Draw

; 51   : 		return 1;

	mov	eax, 1
	jmp	$LN1@Draw
$LN2@Draw:

; 52   : 
; 53   : 	if( !gHUD.HasWeapon( WEAPON_SUIT ) )

	push	63					; 0000003fH
	mov	ecx, OFFSET ?gHUD@@3VCHud@@A		; gHUD
	call	?HasWeapon@CHud@@QAEHH@Z		; CHud::HasWeapon
	test	eax, eax
	jne	SHORT $LN3@Draw

; 54   : 		return 1;

	mov	eax, 1
	jmp	$LN1@Draw
$LN3@Draw:

; 55   : 
; 56   : 	if( tr.time == tr.oldtime ) // paused

	movsd	xmm0, QWORD PTR ?tr@@3Uref_globals_t@@A+8
	ucomisd	xmm0, QWORD PTR ?tr@@3Uref_globals_t@@A+16
	lahf
	test	ah, 68					; 00000044H
	jp	SHORT $LN4@Draw

; 57   : 		return 1;

	mov	eax, 1
	jmp	$LN1@Draw
$LN4@Draw:

; 58   : 
; 59   : 	if( CVAR_TO_BOOL( ui_is_active ) )

	cmp	DWORD PTR ?ui_is_active@@3PAUcvar_s@@A, 0 ; ui_is_active
	je	SHORT $LN21@Draw
	mov	eax, DWORD PTR ?ui_is_active@@3PAUcvar_s@@A ; ui_is_active
	movss	xmm0, DWORD PTR [eax+12]
	ucomiss	xmm0, DWORD PTR __real@00000000
	lahf
	test	ah, 68					; 00000044H
	jnp	SHORT $LN21@Draw
	mov	BYTE PTR tv74[ebp], 1
	jmp	SHORT $LN22@Draw
$LN21@Draw:
	mov	BYTE PTR tv74[ebp], 0
$LN22@Draw:
	movzx	ecx, BYTE PTR tv74[ebp]
	test	ecx, ecx
	je	SHORT $LN5@Draw

; 60   : 		return 0;

	xor	eax, eax
	jmp	$LN1@Draw
$LN5@Draw:

; 61   : 
; 62   : //	int health_val = m_iHealthVisual;
; 63   : 	static float health_val = 0.0f;
; 64   : 	health_val = CL_UTIL_Approach( m_iHealthVisual, health_val, g_fFrametime * 500 );

	movss	xmm0, DWORD PTR ?g_fFrametime@@3MA
	mulss	xmm0, DWORD PTR __real@43fa0000
	push	ecx
	movss	DWORD PTR [esp], xmm0
	push	ecx
	movss	xmm0, DWORD PTR ?health_val@?1??Draw@CHudHealthVisual@@UAEHM@Z@4MA
	movss	DWORD PTR [esp], xmm0
	mov	eax, DWORD PTR _this$[ebp]
	cvtsi2ss xmm0, DWORD PTR [eax+8]
	push	ecx
	movss	DWORD PTR [esp], xmm0
	call	?CL_UTIL_Approach@@YAMMMM@Z		; CL_UTIL_Approach
	add	esp, 12					; 0000000cH
	fstp	DWORD PTR ?health_val@?1??Draw@CHudHealthVisual@@UAEHM@Z@4MA

; 65   : 
; 66   : 	int r, g, b, x, y = 255;

	mov	DWORD PTR _y$[ebp], 255			; 000000ffH

; 67   : 
; 68   : 	UnpackRGB( r, g, b, 0x0046A9FF ); // 70,169,255 for Diffusion

	push	4631039					; 0046a9ffH
	lea	eax, DWORD PTR _b$[ebp]
	push	eax
	lea	ecx, DWORD PTR _g$[ebp]
	push	ecx
	lea	edx, DWORD PTR _r$[ebp]
	push	edx
	call	?UnpackRGB@@YAXAAH00K@Z			; UnpackRGB
	add	esp, 16					; 00000010H

; 69   : 
; 70   : 	x = (ScreenWidth / 32) - 30;

	mov	eax, DWORD PTR ?gHUD@@3VCHud@@A+8436
	cdq
	and	edx, 31					; 0000001fH
	add	eax, edx
	sar	eax, 5
	sub	eax, 30					; 0000001eH
	mov	DWORD PTR _x$[ebp], eax

; 71   : 	y = ScreenHeight - 75;

	mov	eax, DWORD PTR ?gHUD@@3VCHud@@A+8440
	sub	eax, 75					; 0000004bH
	mov	DWORD PTR _y$[ebp], eax

; 72   : 	SPR_Set(m_hBarEmpty, r, g, b );

	mov	eax, DWORD PTR _b$[ebp]
	push	eax
	mov	ecx, DWORD PTR _g$[ebp]
	push	ecx
	mov	edx, DWORD PTR _r$[ebp]
	push	edx
	mov	eax, DWORD PTR _this$[ebp]
	mov	ecx, DWORD PTR [eax+28]
	push	ecx
	call	DWORD PTR ?gEngfuncs@@3Ucl_enginefuncs_s@@A+16
	add	esp, 16					; 00000010H

; 73   : 	SPR_DrawAdditive( 0, x, y, m_prc_emp);

	mov	eax, DWORD PTR _this$[ebp]
	mov	ecx, DWORD PTR [eax+40]
	push	ecx
	mov	edx, DWORD PTR _y$[ebp]
	push	edx
	mov	eax, DWORD PTR _x$[ebp]
	push	eax
	push	0
	call	DWORD PTR ?gEngfuncs@@3Ucl_enginefuncs_s@@A+28
	add	esp, 16					; 00000010H

; 74   : 
; 75   : 	if( gHUD.IsDrawingOfflineHUD || CL_IsDead() || gHUD.HUDSuitOffline )

	movzx	eax, BYTE PTR ?gHUD@@3VCHud@@A+114
	test	eax, eax
	jne	SHORT $LN7@Draw
	call	?CL_IsDead@@YAHXZ			; CL_IsDead
	test	eax, eax
	jne	SHORT $LN7@Draw
	movzx	eax, BYTE PTR ?gHUD@@3VCHud@@A+118
	test	eax, eax
	je	SHORT $LN6@Draw
$LN7@Draw:

; 76   : 	{
; 77   : 		DrawOfflineBar( x, y );

	mov	eax, DWORD PTR _y$[ebp]
	push	eax
	mov	ecx, DWORD PTR _x$[ebp]
	push	ecx
	mov	ecx, DWORD PTR _this$[ebp]
	call	?DrawOfflineBar@CHudHealthVisual@@QAEXHH@Z ; CHudHealthVisual::DrawOfflineBar

; 78   : 		return 1;

	mov	eax, 1
	jmp	$LN1@Draw
$LN6@Draw:

; 79   : 	}
; 80   : 
; 81   : 	int iOffset = m_iBarWidth * (100.0 - health_val) / 100;

	mov	eax, DWORD PTR _this$[ebp]
	cvtsi2sd xmm0, DWORD PTR [eax+52]
	cvtss2sd xmm1, DWORD PTR ?health_val@?1??Draw@CHudHealthVisual@@UAEHM@Z@4MA
	movsd	xmm2, QWORD PTR __real@4059000000000000
	subsd	xmm2, xmm1
	mulsd	xmm0, xmm2
	divsd	xmm0, QWORD PTR __real@4059000000000000
	cvttsd2si ecx, xmm0
	mov	DWORD PTR _iOffset$[ebp], ecx

; 82   : 
; 83   : 	if( UpdateTime > gHUD.m_flTime )

	mov	eax, DWORD PTR _this$[ebp]
	movss	xmm0, DWORD PTR [eax+24]
	comiss	xmm0, DWORD PTR ?gHUD@@3VCHud@@A+32
	jbe	SHORT $LN8@Draw

; 84   : 	{
; 85   : 		UpdateTime = 0;

	mov	eax, DWORD PTR _this$[ebp]
	xorps	xmm0, xmm0
	movss	DWORD PTR [eax+24], xmm0

; 86   : 		FlashingMode = false;

	mov	eax, DWORD PTR _this$[ebp]
	mov	BYTE PTR [eax+20], 0

; 87   : 		Transparency = 150;

	mov	eax, DWORD PTR _this$[ebp]
	movss	xmm0, DWORD PTR __real@43160000
	movss	DWORD PTR [eax+16], xmm0

; 88   : 		GotHit = 0;

	mov	eax, DWORD PTR _this$[ebp]
	mov	DWORD PTR [eax+12], 0
$LN8@Draw:

; 89   : 	}
; 90   : 
; 91   : 	if( GotHit == 1 )

	mov	eax, DWORD PTR _this$[ebp]
	cmp	DWORD PTR [eax+12], 1
	jne	SHORT $LN9@Draw

; 92   : 	{
; 93   : 		if( health_val <= 100 )

	movss	xmm0, DWORD PTR __real@42c80000
	comiss	xmm0, DWORD PTR ?health_val@?1??Draw@CHudHealthVisual@@UAEHM@Z@4MA
	jb	SHORT $LN10@Draw

; 94   : 		{
; 95   : 			FlashingMode = true;

	mov	eax, DWORD PTR _this$[ebp]
	mov	BYTE PTR [eax+20], 1

; 96   : 			Transparency = 255;

	mov	eax, DWORD PTR _this$[ebp]
	movss	xmm0, DWORD PTR __real@437f0000
	movss	DWORD PTR [eax+16], xmm0

; 97   : 		}
; 98   : 		else

	jmp	SHORT $LN11@Draw
$LN10@Draw:

; 99   : 			Transparency = 150;

	mov	eax, DWORD PTR _this$[ebp]
	movss	xmm0, DWORD PTR __real@43160000
	movss	DWORD PTR [eax+16], xmm0
$LN11@Draw:

; 100  : 
; 101  : 		GotHit = 0;

	mov	eax, DWORD PTR _this$[ebp]
	mov	DWORD PTR [eax+12], 0
$LN9@Draw:

; 102  : 	}
; 103  : 
; 104  : 	if( FlashingMode == true )

	mov	eax, DWORD PTR _this$[ebp]
	movzx	ecx, BYTE PTR [eax+20]
	cmp	ecx, 1
	jne	$LN12@Draw

; 105  : 	{
; 106  : 		if( gHUD.m_flTime > UpdateTime )

	mov	eax, DWORD PTR _this$[ebp]
	movss	xmm0, DWORD PTR ?gHUD@@3VCHud@@A+32
	comiss	xmm0, DWORD PTR [eax+24]
	jbe	SHORT $LN14@Draw

; 107  : 		{
; 108  : 			if( Transparency > 150 )

	mov	eax, DWORD PTR _this$[ebp]
	movss	xmm0, DWORD PTR [eax+16]
	comiss	xmm0, DWORD PTR __real@43160000
	jbe	SHORT $LN16@Draw

; 109  : 				Transparency -= 50 * g_fFrametime;

	movss	xmm0, DWORD PTR __real@42480000
	mulss	xmm0, DWORD PTR ?g_fFrametime@@3MA
	mov	eax, DWORD PTR _this$[ebp]
	movss	xmm1, DWORD PTR [eax+16]
	subss	xmm1, xmm0
	mov	ecx, DWORD PTR _this$[ebp]
	movss	DWORD PTR [ecx+16], xmm1
$LN16@Draw:

; 110  : 
; 111  : 			UpdateTime = gHUD.m_flTime;

	mov	eax, DWORD PTR _this$[ebp]
	movss	xmm0, DWORD PTR ?gHUD@@3VCHud@@A+32
	movss	DWORD PTR [eax+24], xmm0
	jmp	SHORT $LN17@Draw
$LN14@Draw:

; 112  : 		}
; 113  : 		else if( Transparency <= 150 )

	mov	eax, DWORD PTR _this$[ebp]
	movss	xmm0, DWORD PTR __real@43160000
	comiss	xmm0, DWORD PTR [eax+16]
	jb	SHORT $LN17@Draw

; 114  : 		{
; 115  : 			FlashingMode = false;

	mov	eax, DWORD PTR _this$[ebp]
	mov	BYTE PTR [eax+20], 0

; 116  : 			Transparency = 150;

	mov	eax, DWORD PTR _this$[ebp]
	movss	xmm0, DWORD PTR __real@43160000
	movss	DWORD PTR [eax+16], xmm0
$LN17@Draw:

; 117  : 		}
; 118  : 	}
; 119  : 	else

	jmp	SHORT $LN13@Draw
$LN12@Draw:

; 120  : 		Transparency = 150;

	mov	eax, DWORD PTR _this$[ebp]
	movss	xmm0, DWORD PTR __real@43160000
	movss	DWORD PTR [eax+16], xmm0
$LN13@Draw:

; 121  : 
; 122  : 	if( iOffset < m_iBarWidth )

	mov	eax, DWORD PTR _this$[ebp]
	mov	ecx, DWORD PTR _iOffset$[ebp]
	cmp	ecx, DWORD PTR [eax+52]
	jge	$LN18@Draw

; 123  : 	{
; 124  : 		wrect_t rc = *m_prc_full;

	mov	eax, DWORD PTR _this$[ebp]
	mov	ecx, DWORD PTR [eax+44]
	mov	edx, DWORD PTR [ecx]
	mov	DWORD PTR _rc$4[ebp], edx
	mov	eax, DWORD PTR [ecx+4]
	mov	DWORD PTR _rc$4[ebp+4], eax
	mov	edx, DWORD PTR [ecx+8]
	mov	DWORD PTR _rc$4[ebp+8], edx
	mov	eax, DWORD PTR [ecx+12]
	mov	DWORD PTR _rc$4[ebp+12], eax

; 125  : 		rc.right -= iOffset;

	mov	eax, DWORD PTR _rc$4[ebp+4]
	sub	eax, DWORD PTR _iOffset$[ebp]
	mov	DWORD PTR _rc$4[ebp+4], eax

; 126  : 		UnpackRGB( r, g, b, 0x00EB4034 ); // 235 64 52

	push	15417396				; 00eb4034H
	lea	eax, DWORD PTR _b$[ebp]
	push	eax
	lea	ecx, DWORD PTR _g$[ebp]
	push	ecx
	lea	edx, DWORD PTR _r$[ebp]
	push	edx
	call	?UnpackRGB@@YAXAAH00K@Z			; UnpackRGB
	add	esp, 16					; 00000010H

; 127  : 		ScaleColors( r, g, b, Transparency );

	mov	eax, DWORD PTR _this$[ebp]
	cvttss2si ecx, DWORD PTR [eax+16]
	push	ecx
	lea	edx, DWORD PTR _b$[ebp]
	push	edx
	lea	eax, DWORD PTR _g$[ebp]
	push	eax
	lea	ecx, DWORD PTR _r$[ebp]
	push	ecx
	call	?ScaleColors@@YAXAAH00H@Z		; ScaleColors
	add	esp, 16					; 00000010H

; 128  : 		SPR_Set( m_hBarFull, r, g, b );

	mov	eax, DWORD PTR _b$[ebp]
	push	eax
	mov	ecx, DWORD PTR _g$[ebp]
	push	ecx
	mov	edx, DWORD PTR _r$[ebp]
	push	edx
	mov	eax, DWORD PTR _this$[ebp]
	mov	ecx, DWORD PTR [eax+32]
	push	ecx
	call	DWORD PTR ?gEngfuncs@@3Ucl_enginefuncs_s@@A+16
	add	esp, 16					; 00000010H

; 129  : 		//		SPR_DrawAdditive( 0, x + iOffset, y, &rc);  // try to uncomment this for cool effect?
; 130  : 		SPR_DrawAdditive( 0, x, y, &rc );

	lea	eax, DWORD PTR _rc$4[ebp]
	push	eax
	mov	ecx, DWORD PTR _y$[ebp]
	push	ecx
	mov	edx, DWORD PTR _x$[ebp]
	push	edx
	push	0
	call	DWORD PTR ?gEngfuncs@@3Ucl_enginefuncs_s@@A+28
	add	esp, 16					; 00000010H
$LN18@Draw:

; 131  : 	}
; 132  : 
; 133  : 	// for megahealth, just draw the same stuff on top
; 134  : 	if( health_val > 100 )

	movss	xmm0, DWORD PTR ?health_val@?1??Draw@CHudHealthVisual@@UAEHM@Z@4MA
	comiss	xmm0, DWORD PTR __real@42c80000
	jbe	$LN19@Draw

; 135  : 	{
; 136  : 		int megahealth_val = health_val - 100;

	movss	xmm0, DWORD PTR ?health_val@?1??Draw@CHudHealthVisual@@UAEHM@Z@4MA
	subss	xmm0, DWORD PTR __real@42c80000
	cvttss2si eax, xmm0
	mov	DWORD PTR _megahealth_val$3[ebp], eax

; 137  : 		wrect_t rc2 = *m_prc_full;

	mov	eax, DWORD PTR _this$[ebp]
	mov	ecx, DWORD PTR [eax+44]
	mov	edx, DWORD PTR [ecx]
	mov	DWORD PTR _rc2$2[ebp], edx
	mov	eax, DWORD PTR [ecx+4]
	mov	DWORD PTR _rc2$2[ebp+4], eax
	mov	edx, DWORD PTR [ecx+8]
	mov	DWORD PTR _rc2$2[ebp+8], edx
	mov	eax, DWORD PTR [ecx+12]
	mov	DWORD PTR _rc2$2[ebp+12], eax

; 138  : 		int iOffset2 = m_iBarWidth * (100.0 - megahealth_val) / 100;

	mov	eax, DWORD PTR _this$[ebp]
	cvtsi2sd xmm0, DWORD PTR [eax+52]
	cvtsi2sd xmm1, DWORD PTR _megahealth_val$3[ebp]
	movsd	xmm2, QWORD PTR __real@4059000000000000
	subsd	xmm2, xmm1
	mulsd	xmm0, xmm2
	divsd	xmm0, QWORD PTR __real@4059000000000000
	cvttsd2si ecx, xmm0
	mov	DWORD PTR _iOffset2$1[ebp], ecx

; 139  : 		rc2.right -= iOffset2;

	mov	eax, DWORD PTR _rc2$2[ebp+4]
	sub	eax, DWORD PTR _iOffset2$1[ebp]
	mov	DWORD PTR _rc2$2[ebp+4], eax

; 140  : 		UnpackRGB( r, g, b, 0x00EB4034 ); // 235 64 52

	push	15417396				; 00eb4034H
	lea	eax, DWORD PTR _b$[ebp]
	push	eax
	lea	ecx, DWORD PTR _g$[ebp]
	push	ecx
	lea	edx, DWORD PTR _r$[ebp]
	push	edx
	call	?UnpackRGB@@YAXAAH00K@Z			; UnpackRGB
	add	esp, 16					; 00000010H

; 141  : 		ScaleColors( r, g, b, 150 );

	push	150					; 00000096H
	lea	eax, DWORD PTR _b$[ebp]
	push	eax
	lea	ecx, DWORD PTR _g$[ebp]
	push	ecx
	lea	edx, DWORD PTR _r$[ebp]
	push	edx
	call	?ScaleColors@@YAXAAH00H@Z		; ScaleColors
	add	esp, 16					; 00000010H

; 142  : 		SPR_Set( m_hBarFull, r, g, b );

	mov	eax, DWORD PTR _b$[ebp]
	push	eax
	mov	ecx, DWORD PTR _g$[ebp]
	push	ecx
	mov	edx, DWORD PTR _r$[ebp]
	push	edx
	mov	eax, DWORD PTR _this$[ebp]
	mov	ecx, DWORD PTR [eax+32]
	push	ecx
	call	DWORD PTR ?gEngfuncs@@3Ucl_enginefuncs_s@@A+16
	add	esp, 16					; 00000010H

; 143  : 		SPR_DrawAdditive( 0, x, y, &rc2 );

	lea	eax, DWORD PTR _rc2$2[ebp]
	push	eax
	mov	ecx, DWORD PTR _y$[ebp]
	push	ecx
	mov	edx, DWORD PTR _x$[ebp]
	push	edx
	push	0
	call	DWORD PTR ?gEngfuncs@@3Ucl_enginefuncs_s@@A+28
	add	esp, 16					; 00000010H
$LN19@Draw:

; 144  : 	}
; 145  : 
; 146  : 	return 1;

	mov	eax, 1
$LN1@Draw:

; 147  : }

	pop	edi
	pop	esi
	pop	ebx
	mov	ecx, DWORD PTR __$ArrayPad$[ebp]
	xor	ecx, ebp
	call	@__security_check_cookie@4
	mov	esp, ebp
	pop	ebp
	ret	4
?Draw@CHudHealthVisual@@UAEHM@Z ENDP			; CHudHealthVisual::Draw
_TEXT	ENDS
; Function compile flags: /Odtp /ZI
; File d:\!diffusion 2020\source code 2022\client-server\client\hud_health.cpp
;	COMDAT ?VidInit@CHudHealthVisual@@UAEHXZ
_TEXT	SEGMENT
_bar_offline$ = -16					; size = 4
_bar_fullh$ = -12					; size = 4
_bar_emptyh$ = -8					; size = 4
_this$ = -4						; size = 4
?VidInit@CHudHealthVisual@@UAEHXZ PROC			; CHudHealthVisual::VidInit, COMDAT
; _this$ = ecx

; 23   : {

	push	ebp
	mov	ebp, esp
	sub	esp, 80					; 00000050H
	push	ebx
	push	esi
	push	edi
	mov	DWORD PTR _this$[ebp], ecx

; 24   : 	int bar_emptyh = gHUD.GetSpriteIndex( "health_empty" );

	push	OFFSET ??_C@_0N@MKHGDJGD@health_empty?$AA@
	mov	ecx, OFFSET ?gHUD@@3VCHud@@A		; gHUD
	call	?GetSpriteIndex@CHud@@QAEHPBD@Z		; CHud::GetSpriteIndex
	mov	DWORD PTR _bar_emptyh$[ebp], eax

; 25   : 	int bar_fullh = gHUD.GetSpriteIndex( "health_full" );

	push	OFFSET ??_C@_0M@KAAIOHIE@health_full?$AA@
	mov	ecx, OFFSET ?gHUD@@3VCHud@@A		; gHUD
	call	?GetSpriteIndex@CHud@@QAEHPBD@Z		; CHud::GetSpriteIndex
	mov	DWORD PTR _bar_fullh$[ebp], eax

; 26   : 	int bar_offline = gHUD.GetSpriteIndex( "health_offline" );

	push	OFFSET ??_C@_0P@NNHCBLK@health_offline?$AA@
	mov	ecx, OFFSET ?gHUD@@3VCHud@@A		; gHUD
	call	?GetSpriteIndex@CHud@@QAEHPBD@Z		; CHud::GetSpriteIndex
	mov	DWORD PTR _bar_offline$[ebp], eax

; 27   : 	m_hBarEmpty = gHUD.GetSprite( bar_emptyh );

	mov	eax, DWORD PTR _bar_emptyh$[ebp]
	push	eax
	mov	ecx, OFFSET ?gHUD@@3VCHud@@A		; gHUD
	call	?GetSprite@CHud@@QAEHH@Z		; CHud::GetSprite
	mov	ecx, DWORD PTR _this$[ebp]
	mov	DWORD PTR [ecx+28], eax

; 28   : 	m_hBarFull = gHUD.GetSprite( bar_fullh );

	mov	eax, DWORD PTR _bar_fullh$[ebp]
	push	eax
	mov	ecx, OFFSET ?gHUD@@3VCHud@@A		; gHUD
	call	?GetSprite@CHud@@QAEHH@Z		; CHud::GetSprite
	mov	ecx, DWORD PTR _this$[ebp]
	mov	DWORD PTR [ecx+32], eax

; 29   : 	m_hBarOffline = gHUD.GetSprite( bar_offline );

	mov	eax, DWORD PTR _bar_offline$[ebp]
	push	eax
	mov	ecx, OFFSET ?gHUD@@3VCHud@@A		; gHUD
	call	?GetSprite@CHud@@QAEHH@Z		; CHud::GetSprite
	mov	ecx, DWORD PTR _this$[ebp]
	mov	DWORD PTR [ecx+36], eax

; 30   : 	m_prc_emp = &gHUD.GetSpriteRect( bar_emptyh );

	mov	eax, DWORD PTR _bar_emptyh$[ebp]
	push	eax
	mov	ecx, OFFSET ?gHUD@@3VCHud@@A		; gHUD
	call	?GetSpriteRect@CHud@@QAEAAUwrect_s@@H@Z	; CHud::GetSpriteRect
	mov	ecx, DWORD PTR _this$[ebp]
	mov	DWORD PTR [ecx+40], eax

; 31   : 	m_prc_full = &gHUD.GetSpriteRect( bar_fullh );

	mov	eax, DWORD PTR _bar_fullh$[ebp]
	push	eax
	mov	ecx, OFFSET ?gHUD@@3VCHud@@A		; gHUD
	call	?GetSpriteRect@CHud@@QAEAAUwrect_s@@H@Z	; CHud::GetSpriteRect
	mov	ecx, DWORD PTR _this$[ebp]
	mov	DWORD PTR [ecx+44], eax

; 32   : 	m_prc_offline = &gHUD.GetSpriteRect( bar_offline );

	mov	eax, DWORD PTR _bar_offline$[ebp]
	push	eax
	mov	ecx, OFFSET ?gHUD@@3VCHud@@A		; gHUD
	call	?GetSpriteRect@CHud@@QAEAAUwrect_s@@H@Z	; CHud::GetSpriteRect
	mov	ecx, DWORD PTR _this$[ebp]
	mov	DWORD PTR [ecx+48], eax

; 33   : 	m_iBarWidth = m_prc_full->right - m_prc_full->left;

	mov	eax, DWORD PTR _this$[ebp]
	mov	ecx, DWORD PTR [eax+44]
	mov	edx, DWORD PTR _this$[ebp]
	mov	eax, DWORD PTR [edx+44]
	mov	ecx, DWORD PTR [ecx+4]
	sub	ecx, DWORD PTR [eax]
	mov	edx, DWORD PTR _this$[ebp]
	mov	DWORD PTR [edx+52], ecx

; 34   : 
; 35   : 	return 1;

	mov	eax, 1

; 36   : };

	pop	edi
	pop	esi
	pop	ebx
	mov	esp, ebp
	pop	ebp
	ret	0
?VidInit@CHudHealthVisual@@UAEHXZ ENDP			; CHudHealthVisual::VidInit
_TEXT	ENDS
; Function compile flags: /Odtp /ZI
; File d:\!diffusion 2020\source code 2022\client-server\client\hud_health.cpp
;	COMDAT ?Init@CHudHealthVisual@@UAEHXZ
_TEXT	SEGMENT
_this$ = -4						; size = 4
?Init@CHudHealthVisual@@UAEHXZ PROC			; CHudHealthVisual::Init, COMDAT
; _this$ = ecx

; 13   : {

	push	ebp
	mov	ebp, esp
	sub	esp, 68					; 00000044H
	push	ebx
	push	esi
	push	edi
	mov	DWORD PTR _this$[ebp], ecx

; 14   : 	m_iFlags |= HUD_ACTIVE;

	mov	eax, DWORD PTR _this$[ebp]
	mov	ecx, DWORD PTR [eax+4]
	or	ecx, 1
	mov	edx, DWORD PTR _this$[ebp]
	mov	DWORD PTR [edx+4], ecx

; 15   : 
; 16   : 	HOOK_MESSAGE( HealthVisual );

	push	OFFSET ?__MsgFunc_HealthVisual@@YAHPBDHPAX@Z ; __MsgFunc_HealthVisual
	push	OFFSET ??_C@_0N@FOAEKJGA@HealthVisual?$AA@
	call	DWORD PTR ?gEngfuncs@@3Ucl_enginefuncs_s@@A+72
	add	esp, 8

; 17   : 
; 18   : 	gHUD.AddHudElem(this);

	mov	eax, DWORD PTR _this$[ebp]
	push	eax
	mov	ecx, OFFSET ?gHUD@@3VCHud@@A		; gHUD
	call	?AddHudElem@CHud@@QAEXPAVCHudBase@@@Z	; CHud::AddHudElem

; 19   : 	return 1;

	mov	eax, 1

; 20   : };

	pop	edi
	pop	esi
	pop	ebx
	mov	esp, ebp
	pop	ebp
	ret	0
?Init@CHudHealthVisual@@UAEHXZ ENDP			; CHudHealthVisual::Init
_TEXT	ENDS
; Function compile flags: /Odtp /ZI
;	COMDAT ??__G@YGXPAX0IIP6EPAX00@Z@Z
_TEXT	SEGMENT
tv66 = -68						; size = 4
___t$ = 8						; size = 4
___u$ = 12						; size = 4
___s$ = 16						; size = 4
___n$ = 20						; size = 4
___f$ = 24						; size = 4
??__G@YGXPAX0IIP6EPAX00@Z@Z PROC			; `vector copy constructor iterator', COMDAT
	push	ebp
	mov	ebp, esp
	sub	esp, 68					; 00000044H
	push	ebx
	push	esi
	push	edi
$LN2@vector:
	mov	eax, DWORD PTR ___n$[ebp]
	mov	DWORD PTR tv66[ebp], eax
	mov	ecx, DWORD PTR ___n$[ebp]
	sub	ecx, 1
	mov	DWORD PTR ___n$[ebp], ecx
	cmp	DWORD PTR tv66[ebp], 0
	jbe	SHORT $LN1@vector
	mov	eax, DWORD PTR ___u$[ebp]
	push	eax
	mov	ecx, DWORD PTR ___t$[ebp]
	call	DWORD PTR ___f$[ebp]
	mov	eax, DWORD PTR ___t$[ebp]
	add	eax, DWORD PTR ___s$[ebp]
	mov	DWORD PTR ___t$[ebp], eax
	mov	eax, DWORD PTR ___u$[ebp]
	add	eax, DWORD PTR ___s$[ebp]
	mov	DWORD PTR ___u$[ebp], eax
	jmp	SHORT $LN2@vector
$LN1@vector:
	pop	edi
	pop	esi
	pop	ebx
	mov	esp, ebp
	pop	ebp
	ret	20					; 00000014H
??__G@YGXPAX0IIP6EPAX00@Z@Z ENDP			; `vector copy constructor iterator'
_TEXT	ENDS
; Function compile flags: /Odtp /ZI
;	COMDAT ??_H@YGXPAXIIP6EPAX0@Z@Z
_TEXT	SEGMENT
tv66 = -68						; size = 4
___t$ = 8						; size = 4
___s$ = 12						; size = 4
___n$ = 16						; size = 4
___f$ = 20						; size = 4
??_H@YGXPAXIIP6EPAX0@Z@Z PROC				; `vector constructor iterator', COMDAT
	push	ebp
	mov	ebp, esp
	sub	esp, 68					; 00000044H
	push	ebx
	push	esi
	push	edi
$LN2@vector:
	mov	eax, DWORD PTR ___n$[ebp]
	mov	DWORD PTR tv66[ebp], eax
	mov	ecx, DWORD PTR ___n$[ebp]
	sub	ecx, 1
	mov	DWORD PTR ___n$[ebp], ecx
	cmp	DWORD PTR tv66[ebp], 0
	jbe	SHORT $LN1@vector
	mov	ecx, DWORD PTR ___t$[ebp]
	call	DWORD PTR ___f$[ebp]
	mov	eax, DWORD PTR ___t$[ebp]
	add	eax, DWORD PTR ___s$[ebp]
	mov	DWORD PTR ___t$[ebp], eax
	jmp	SHORT $LN2@vector
$LN1@vector:
	pop	edi
	pop	esi
	pop	ebx
	mov	esp, ebp
	pop	ebp
	ret	16					; 00000010H
??_H@YGXPAXIIP6EPAX0@Z@Z ENDP				; `vector constructor iterator'
_TEXT	ENDS
END
