; Listing generated by Microsoft (R) Optimizing Compiler Version 19.00.24247.2 

	TITLE	D:\!DIFFUSION 2020\source code 2022\client-server\client\hud_stamina.cpp
	.686P
	.XMM
	include listing.inc
	.model	flat

INCLUDELIB LIBCMT
INCLUDELIB OLDNAMES

PUBLIC	?OFFLINEFlashAlpha@@3MA				; OFFLINEFlashAlpha
PUBLIC	?StaminaLowSoundTime@@3MA			; StaminaLowSoundTime
_BSS	SEGMENT
?OFFLINEFlashAlpha@@3MA DD 01H DUP (?)			; OFFLINEFlashAlpha
?StaminaLowSoundTime@@3MA DD 01H DUP (?)		; StaminaLowSoundTime
_BSS	ENDS
PUBLIC	??_H@YGXPAXIIP6EPAX0@Z@Z			; `vector constructor iterator'
PUBLIC	??__G@YGXPAX0IIP6EPAX00@Z@Z			; `vector copy constructor iterator'
PUBLIC	?Init@CHudStamina@@UAEHXZ			; CHudStamina::Init
PUBLIC	?VidInit@CHudStamina@@UAEHXZ			; CHudStamina::VidInit
PUBLIC	?Draw@CHudStamina@@UAEHM@Z			; CHudStamina::Draw
PUBLIC	?MsgFunc_Stamina@CHudStamina@@QAEHPBDHPAX@Z	; CHudStamina::MsgFunc_Stamina
PUBLIC	?DrawOfflineBar@CHudStamina@@QAEXHH@Z		; CHudStamina::DrawOfflineBar
PUBLIC	?GetSprite@CHud@@QAEHH@Z			; CHud::GetSprite
PUBLIC	?GetSpriteRect@CHud@@QAEAAUwrect_s@@H@Z		; CHud::GetSpriteRect
PUBLIC	?HasWeapon@CHud@@QAEHH@Z			; CHud::HasWeapon
PUBLIC	?UnpackRGB@@YAXAAH00K@Z				; UnpackRGB
PUBLIC	?__MsgFunc_Stamina@@YAHPBDHPAX@Z		; __MsgFunc_Stamina
PUBLIC	??_C@_07IDNIELMN@Stamina?$AA@			; `string'
PUBLIC	??_C@_0O@GFJODOKB@stamina_empty?$AA@		; `string'
PUBLIC	??_C@_0N@ECBEGJCN@stamina_full?$AA@		; `string'
PUBLIC	??_C@_0BA@GKHPKODN@stamina_offline?$AA@		; `string'
PUBLIC	??_C@_0BH@MEMHFMPB@player?1stamina_low?4wav?$AA@ ; `string'
PUBLIC	__real@00000000
PUBLIC	__real@3f800000
PUBLIC	__real@40000000
PUBLIC	__real@4008000000000000
PUBLIC	__real@4059000000000000
PUBLIC	__real@4060000000000000
PUBLIC	__real@43000000
PUBLIC	__real@437f0000
EXTRN	_fabs:PROC
EXTRN	_sin:PROC
EXTRN	?GetSpriteIndex@CHud@@QAEHPBD@Z:PROC		; CHud::GetSpriteIndex
EXTRN	?AddHudElem@CHud@@QAEXPAVCHudBase@@@Z:PROC	; CHud::AddHudElem
EXTRN	?ScaleColors@@YAXAAH00H@Z:PROC			; ScaleColors
EXTRN	?CL_IsDead@@YAHXZ:PROC				; CL_IsDead
EXTRN	?BEGIN_READ@@YAXPBDPAXH@Z:PROC			; BEGIN_READ
EXTRN	?END_READ@@YAXXZ:PROC				; END_READ
EXTRN	?READ_BYTE@@YAHXZ:PROC				; READ_BYTE
EXTRN	@__security_check_cookie@4:PROC
EXTRN	?gEngfuncs@@3Ucl_enginefuncs_s@@A:BYTE		; gEngfuncs
EXTRN	?gHUD@@3VCHud@@A:BYTE				; gHUD
EXTRN	?ui_is_active@@3PAUcvar_s@@A:DWORD		; ui_is_active
EXTRN	?tr@@3Uref_globals_t@@A:BYTE			; tr
EXTRN	___security_cookie:DWORD
EXTRN	__fltused:DWORD
;	COMDAT __real@437f0000
CONST	SEGMENT
__real@437f0000 DD 0437f0000r			; 255
CONST	ENDS
;	COMDAT __real@43000000
CONST	SEGMENT
__real@43000000 DD 043000000r			; 128
CONST	ENDS
;	COMDAT __real@4060000000000000
CONST	SEGMENT
__real@4060000000000000 DQ 04060000000000000r	; 128
CONST	ENDS
;	COMDAT __real@4059000000000000
CONST	SEGMENT
__real@4059000000000000 DQ 04059000000000000r	; 100
CONST	ENDS
;	COMDAT __real@4008000000000000
CONST	SEGMENT
__real@4008000000000000 DQ 04008000000000000r	; 3
CONST	ENDS
;	COMDAT __real@40000000
CONST	SEGMENT
__real@40000000 DD 040000000r			; 2
CONST	ENDS
;	COMDAT __real@3f800000
CONST	SEGMENT
__real@3f800000 DD 03f800000r			; 1
CONST	ENDS
;	COMDAT __real@00000000
CONST	SEGMENT
__real@00000000 DD 000000000r			; 0
CONST	ENDS
;	COMDAT ??_C@_0BH@MEMHFMPB@player?1stamina_low?4wav?$AA@
CONST	SEGMENT
??_C@_0BH@MEMHFMPB@player?1stamina_low?4wav?$AA@ DB 'player/stamina_low.w'
	DB	'av', 00H					; `string'
CONST	ENDS
;	COMDAT ??_C@_0BA@GKHPKODN@stamina_offline?$AA@
CONST	SEGMENT
??_C@_0BA@GKHPKODN@stamina_offline?$AA@ DB 'stamina_offline', 00H ; `string'
CONST	ENDS
;	COMDAT ??_C@_0N@ECBEGJCN@stamina_full?$AA@
CONST	SEGMENT
??_C@_0N@ECBEGJCN@stamina_full?$AA@ DB 'stamina_full', 00H ; `string'
CONST	ENDS
;	COMDAT ??_C@_0O@GFJODOKB@stamina_empty?$AA@
CONST	SEGMENT
??_C@_0O@GFJODOKB@stamina_empty?$AA@ DB 'stamina_empty', 00H ; `string'
CONST	ENDS
;	COMDAT ??_C@_07IDNIELMN@Stamina?$AA@
CONST	SEGMENT
??_C@_07IDNIELMN@Stamina?$AA@ DB 'Stamina', 00H		; `string'
CONST	ENDS
; Function compile flags: /Odtp /ZI
; File d:\!diffusion 2020\source code 2022\client-server\client\hud_stamina.cpp
;	COMDAT ?__MsgFunc_Stamina@@YAHPBDHPAX@Z
_TEXT	SEGMENT
_pszName$ = 8						; size = 4
_iSize$ = 12						; size = 4
_pbuf$ = 16						; size = 4
?__MsgFunc_Stamina@@YAHPBDHPAX@Z PROC			; __MsgFunc_Stamina, COMDAT

; 13   : DECLARE_MESSAGE( m_Stamina, Stamina )

	push	ebp
	mov	ebp, esp
	sub	esp, 64					; 00000040H
	push	ebx
	push	esi
	push	edi
	mov	eax, DWORD PTR _pbuf$[ebp]
	push	eax
	mov	ecx, DWORD PTR _iSize$[ebp]
	push	ecx
	mov	edx, DWORD PTR _pszName$[ebp]
	push	edx
	mov	ecx, OFFSET ?gHUD@@3VCHud@@A+7140
	call	?MsgFunc_Stamina@CHudStamina@@QAEHPBDHPAX@Z ; CHudStamina::MsgFunc_Stamina
	pop	edi
	pop	esi
	pop	ebx
	mov	esp, ebp
	pop	ebp
	ret	0
?__MsgFunc_Stamina@@YAHPBDHPAX@Z ENDP			; __MsgFunc_Stamina
_TEXT	ENDS
; Function compile flags: /Odtp /ZI
; File d:\!diffusion 2020\source code 2022\client-server\client\utils.h
;	COMDAT ?UnpackRGB@@YAXAAH00K@Z
_TEXT	SEGMENT
_r$ = 8							; size = 4
_g$ = 12						; size = 4
_b$ = 16						; size = 4
_ulRGB$ = 20						; size = 4
?UnpackRGB@@YAXAAH00K@Z PROC				; UnpackRGB, COMDAT

; 98   : {\

	push	ebp
	mov	ebp, esp
	sub	esp, 64					; 00000040H
	push	ebx
	push	esi
	push	edi

; 99   : 	r = (ulRGB & 0xFF0000) >>16;\

	mov	eax, DWORD PTR _ulRGB$[ebp]
	and	eax, 16711680				; 00ff0000H
	shr	eax, 16					; 00000010H
	mov	ecx, DWORD PTR _r$[ebp]
	mov	DWORD PTR [ecx], eax

; 100  : 	g = (ulRGB & 0xFF00) >> 8;\

	mov	eax, DWORD PTR _ulRGB$[ebp]
	and	eax, 65280				; 0000ff00H
	shr	eax, 8
	mov	ecx, DWORD PTR _g$[ebp]
	mov	DWORD PTR [ecx], eax

; 101  : 	b = ulRGB & 0xFF;\

	mov	eax, DWORD PTR _ulRGB$[ebp]
	and	eax, 255				; 000000ffH
	mov	ecx, DWORD PTR _b$[ebp]
	mov	DWORD PTR [ecx], eax

; 102  : }

	pop	edi
	pop	esi
	pop	ebx
	mov	esp, ebp
	pop	ebp
	ret	0
?UnpackRGB@@YAXAAH00K@Z ENDP				; UnpackRGB
_TEXT	ENDS
; Function compile flags: /Odtp /ZI
; File d:\!diffusion 2020\source code 2022\client-server\client\hud.h
;	COMDAT ?HasWeapon@CHud@@QAEHH@Z
_TEXT	SEGMENT
_this$ = -4						; size = 4
_weaponnum$ = 8						; size = 4
?HasWeapon@CHud@@QAEHH@Z PROC				; CHud::HasWeapon, COMDAT
; _this$ = ecx

; 1038 : 	BOOL HasWeapon( int weaponnum ) { return FBitSet( m_iWeaponBits[weaponnum >> 3], BIT( weaponnum & 7 )); }

	push	ebp
	mov	ebp, esp
	sub	esp, 68					; 00000044H
	push	ebx
	push	esi
	push	edi
	mov	DWORD PTR _this$[ebp], ecx
	mov	eax, DWORD PTR _weaponnum$[ebp]
	sar	eax, 3
	mov	ecx, DWORD PTR _this$[ebp]
	movzx	eax, BYTE PTR [ecx+eax+8964]
	mov	ecx, DWORD PTR _weaponnum$[ebp]
	and	ecx, 7
	mov	edx, 1
	shl	edx, cl
	and	eax, edx
	pop	edi
	pop	esi
	pop	ebx
	mov	esp, ebp
	pop	ebp
	ret	4
?HasWeapon@CHud@@QAEHH@Z ENDP				; CHud::HasWeapon
_TEXT	ENDS
; Function compile flags: /Odtp /ZI
; File d:\!diffusion 2020\source code 2022\client-server\client\hud.h
;	COMDAT ?GetSpriteRect@CHud@@QAEAAUwrect_s@@H@Z
_TEXT	SEGMENT
_this$ = -4						; size = 4
_index$ = 8						; size = 4
?GetSpriteRect@CHud@@QAEAAUwrect_s@@H@Z PROC		; CHud::GetSpriteRect, COMDAT
; _this$ = ecx

; 952  : 	wrect_t& GetSpriteRect( int index ) { return m_rgrcRects[index]; }

	push	ebp
	mov	ebp, esp
	sub	esp, 68					; 00000044H
	push	ebx
	push	esi
	push	edi
	mov	DWORD PTR _this$[ebp], ecx
	mov	eax, DWORD PTR _index$[ebp]
	shl	eax, 4
	mov	ecx, DWORD PTR _this$[ebp]
	add	eax, DWORD PTR [ecx+232]
	pop	edi
	pop	esi
	pop	ebx
	mov	esp, ebp
	pop	ebp
	ret	4
?GetSpriteRect@CHud@@QAEAAUwrect_s@@H@Z ENDP		; CHud::GetSpriteRect
_TEXT	ENDS
; Function compile flags: /Odtp /ZI
; File d:\!diffusion 2020\source code 2022\client-server\client\hud.h
;	COMDAT ?GetSprite@CHud@@QAEHH@Z
_TEXT	SEGMENT
tv68 = -72						; size = 4
_this$ = -4						; size = 4
_index$ = 8						; size = 4
?GetSprite@CHud@@QAEHH@Z PROC				; CHud::GetSprite, COMDAT
; _this$ = ecx

; 951  : 	SpriteHandle GetSprite( int index ) { return (index < 0) ? 0 : m_rghSprites[index]; }

	push	ebp
	mov	ebp, esp
	sub	esp, 72					; 00000048H
	push	ebx
	push	esi
	push	edi
	mov	DWORD PTR _this$[ebp], ecx
	cmp	DWORD PTR _index$[ebp], 0
	jge	SHORT $LN3@GetSprite
	mov	DWORD PTR tv68[ebp], 0
	jmp	SHORT $LN4@GetSprite
$LN3@GetSprite:
	mov	eax, DWORD PTR _this$[ebp]
	mov	ecx, DWORD PTR [eax+228]
	mov	edx, DWORD PTR _index$[ebp]
	mov	eax, DWORD PTR [ecx+edx*4]
	mov	DWORD PTR tv68[ebp], eax
$LN4@GetSprite:
	mov	eax, DWORD PTR tv68[ebp]
	pop	edi
	pop	esi
	pop	ebx
	mov	esp, ebp
	pop	ebp
	ret	4
?GetSprite@CHud@@QAEHH@Z ENDP				; CHud::GetSprite
_TEXT	ENDS
; Function compile flags: /Odtp /ZI
; File d:\!diffusion 2020\source code 2022\client-server\client\hud_stamina.cpp
;	COMDAT ?DrawOfflineBar@CHudStamina@@QAEXHH@Z
_TEXT	SEGMENT
tv134 = -88						; size = 8
tv75 = -88						; size = 4
tv74 = -84						; size = 4
_b$ = -16						; size = 4
_g$ = -12						; size = 4
_r$ = -8						; size = 4
_this$ = -4						; size = 4
_x$ = 8							; size = 4
_y$ = 12						; size = 4
?DrawOfflineBar@CHudStamina@@QAEXHH@Z PROC		; CHudStamina::DrawOfflineBar, COMDAT
; _this$ = ecx

; 106  : {	

	push	ebp
	mov	ebp, esp
	sub	esp, 88					; 00000058H
	push	ebx
	push	esi
	push	edi
	mov	DWORD PTR _this$[ebp], ecx

; 107  : 	int r = 255;

	mov	DWORD PTR _r$[ebp], 255			; 000000ffH

; 108  : 	int g, b = 0;

	mov	DWORD PTR _b$[ebp], 0

; 109  : 		
; 110  : 	OFFLINEFlashAlpha = 128 + (fabs( sin( tr.time * 3 ) ) * 128 );

	movsd	xmm0, QWORD PTR ?tr@@3Uref_globals_t@@A+8
	mulsd	xmm0, QWORD PTR __real@4008000000000000
	sub	esp, 8
	movsd	QWORD PTR [esp], xmm0
	call	_sin
	fstp	QWORD PTR [esp]
	call	_fabs
	add	esp, 8
	fstp	QWORD PTR tv134[ebp]
	movsd	xmm0, QWORD PTR tv134[ebp]
	mulsd	xmm0, QWORD PTR __real@4060000000000000
	addsd	xmm0, QWORD PTR __real@4060000000000000
	cvtsd2ss xmm0, xmm0
	movss	DWORD PTR ?OFFLINEFlashAlpha@@3MA, xmm0

; 111  : 	OFFLINEFlashAlpha = bound( 128, OFFLINEFlashAlpha, 255 );

	movss	xmm0, DWORD PTR ?OFFLINEFlashAlpha@@3MA
	comiss	xmm0, DWORD PTR __real@43000000
	jb	SHORT $LN5@DrawOfflin
	movss	xmm0, DWORD PTR __real@437f0000
	comiss	xmm0, DWORD PTR ?OFFLINEFlashAlpha@@3MA
	jbe	SHORT $LN3@DrawOfflin
	movss	xmm0, DWORD PTR ?OFFLINEFlashAlpha@@3MA
	movss	DWORD PTR tv74[ebp], xmm0
	jmp	SHORT $LN4@DrawOfflin
$LN3@DrawOfflin:
	movss	xmm0, DWORD PTR __real@437f0000
	movss	DWORD PTR tv74[ebp], xmm0
$LN4@DrawOfflin:
	movss	xmm0, DWORD PTR tv74[ebp]
	movss	DWORD PTR tv75[ebp], xmm0
	jmp	SHORT $LN6@DrawOfflin
$LN5@DrawOfflin:
	movss	xmm0, DWORD PTR __real@43000000
	movss	DWORD PTR tv75[ebp], xmm0
$LN6@DrawOfflin:
	movss	xmm0, DWORD PTR tv75[ebp]
	movss	DWORD PTR ?OFFLINEFlashAlpha@@3MA, xmm0

; 112  : 
; 113  : 	ScaleColors( r, g, b, (int)OFFLINEFlashAlpha );

	cvttss2si eax, DWORD PTR ?OFFLINEFlashAlpha@@3MA
	push	eax
	lea	ecx, DWORD PTR _b$[ebp]
	push	ecx
	lea	edx, DWORD PTR _g$[ebp]
	push	edx
	lea	eax, DWORD PTR _r$[ebp]
	push	eax
	call	?ScaleColors@@YAXAAH00H@Z		; ScaleColors
	add	esp, 16					; 00000010H

; 114  : 
; 115  : 	SPR_Set( m_hBarOffline, r, g, b );

	mov	eax, DWORD PTR _b$[ebp]
	push	eax
	mov	ecx, DWORD PTR _g$[ebp]
	push	ecx
	mov	edx, DWORD PTR _r$[ebp]
	push	edx
	mov	eax, DWORD PTR _this$[ebp]
	mov	ecx, DWORD PTR [eax+20]
	push	ecx
	call	DWORD PTR ?gEngfuncs@@3Ucl_enginefuncs_s@@A+16
	add	esp, 16					; 00000010H

; 116  : 	SPR_DrawAdditive( 0, x, y, m_prc_offline );

	mov	eax, DWORD PTR _this$[ebp]
	mov	ecx, DWORD PTR [eax+32]
	push	ecx
	mov	edx, DWORD PTR _y$[ebp]
	push	edx
	mov	eax, DWORD PTR _x$[ebp]
	push	eax
	push	0
	call	DWORD PTR ?gEngfuncs@@3Ucl_enginefuncs_s@@A+28
	add	esp, 16					; 00000010H

; 117  : }

	pop	edi
	pop	esi
	pop	ebx
	mov	esp, ebp
	pop	ebp
	ret	8
?DrawOfflineBar@CHudStamina@@QAEXHH@Z ENDP		; CHudStamina::DrawOfflineBar
_TEXT	ENDS
; Function compile flags: /Odtp /ZI
; File d:\!diffusion 2020\source code 2022\client-server\client\hud_stamina.cpp
;	COMDAT ?MsgFunc_Stamina@CHudStamina@@QAEHPBDHPAX@Z
_TEXT	SEGMENT
_this$ = -4						; size = 4
_pszName$ = 8						; size = 4
_iSize$ = 12						; size = 4
_pbuf$ = 16						; size = 4
?MsgFunc_Stamina@CHudStamina@@QAEHPBDHPAX@Z PROC	; CHudStamina::MsgFunc_Stamina, COMDAT
; _this$ = ecx

; 24   : {

	push	ebp
	mov	ebp, esp
	sub	esp, 68					; 00000044H
	push	ebx
	push	esi
	push	edi
	mov	DWORD PTR _this$[ebp], ecx

; 25   : 	BEGIN_READ( pszName, pbuf, iSize );

	mov	eax, DWORD PTR _iSize$[ebp]
	push	eax
	mov	ecx, DWORD PTR _pbuf$[ebp]
	push	ecx
	mov	edx, DWORD PTR _pszName$[ebp]
	push	edx
	call	?BEGIN_READ@@YAXPBDPAXH@Z		; BEGIN_READ
	add	esp, 12					; 0000000cH

; 26   : 	m_iStaminaValue = READ_BYTE();

	call	?READ_BYTE@@YAHXZ			; READ_BYTE
	mov	ecx, DWORD PTR _this$[ebp]
	mov	DWORD PTR [ecx+8], eax

; 27   : 	END_READ();

	call	?END_READ@@YAXXZ			; END_READ

; 28   : 
; 29   : 	return 1;

	mov	eax, 1

; 30   : }

	pop	edi
	pop	esi
	pop	ebx
	mov	esp, ebp
	pop	ebp
	ret	12					; 0000000cH
?MsgFunc_Stamina@CHudStamina@@QAEHPBDHPAX@Z ENDP	; CHudStamina::MsgFunc_Stamina
_TEXT	ENDS
; Function compile flags: /Odtp /ZI
; File d:\!diffusion 2020\source code 2022\client-server\client\hud_stamina.cpp
;	COMDAT ?Draw@CHudStamina@@UAEHM@Z
_TEXT	SEGMENT
tv74 = -117						; size = 1
_rc$1 = -52						; size = 16
_iOffset$ = -36						; size = 4
_y$ = -32						; size = 4
_x$ = -28						; size = 4
_b$ = -24						; size = 4
_g$ = -20						; size = 4
_r$ = -16						; size = 4
_stamina_val$ = -12					; size = 4
_this$ = -8						; size = 4
__$ArrayPad$ = -4					; size = 4
_flTime$ = 8						; size = 4
?Draw@CHudStamina@@UAEHM@Z PROC				; CHudStamina::Draw, COMDAT
; _this$ = ecx

; 49   : {

	push	ebp
	mov	ebp, esp
	sub	esp, 120				; 00000078H
	mov	eax, DWORD PTR ___security_cookie
	xor	eax, ebp
	mov	DWORD PTR __$ArrayPad$[ebp], eax
	push	ebx
	push	esi
	push	edi
	mov	DWORD PTR _this$[ebp], ecx

; 50   : 	if ( gHUD.m_iHideHUDDisplay & HIDEHUD_HEALTH )

	mov	eax, DWORD PTR ?gHUD@@3VCHud@@A+76
	and	eax, 8
	je	SHORT $LN2@Draw

; 51   : 		return 0;

	xor	eax, eax
	jmp	$LN1@Draw
$LN2@Draw:

; 52   : 
; 53   : 	if (!gHUD.HasWeapon( WEAPON_SUIT ))

	push	63					; 0000003fH
	mov	ecx, OFFSET ?gHUD@@3VCHud@@A		; gHUD
	call	?HasWeapon@CHud@@QAEHH@Z		; CHud::HasWeapon
	test	eax, eax
	jne	SHORT $LN3@Draw

; 54   : 		return 1;

	mov	eax, 1
	jmp	$LN1@Draw
$LN3@Draw:

; 55   : 
; 56   : 	if( tr.time == tr.oldtime ) // paused

	movsd	xmm0, QWORD PTR ?tr@@3Uref_globals_t@@A+8
	ucomisd	xmm0, QWORD PTR ?tr@@3Uref_globals_t@@A+16
	lahf
	test	ah, 68					; 00000044H
	jp	SHORT $LN4@Draw

; 57   : 		return 1;

	mov	eax, 1
	jmp	$LN1@Draw
$LN4@Draw:

; 58   : 
; 59   : 	if( CVAR_TO_BOOL( ui_is_active ) )

	cmp	DWORD PTR ?ui_is_active@@3PAUcvar_s@@A, 0 ; ui_is_active
	je	SHORT $LN13@Draw
	mov	eax, DWORD PTR ?ui_is_active@@3PAUcvar_s@@A ; ui_is_active
	movss	xmm0, DWORD PTR [eax+12]
	ucomiss	xmm0, DWORD PTR __real@00000000
	lahf
	test	ah, 68					; 00000044H
	jnp	SHORT $LN13@Draw
	mov	BYTE PTR tv74[ebp], 1
	jmp	SHORT $LN14@Draw
$LN13@Draw:
	mov	BYTE PTR tv74[ebp], 0
$LN14@Draw:
	movzx	ecx, BYTE PTR tv74[ebp]
	test	ecx, ecx
	je	SHORT $LN5@Draw

; 60   : 		return 0;

	xor	eax, eax
	jmp	$LN1@Draw
$LN5@Draw:

; 61   : 
; 62   : 	int stamina_val = m_iStaminaValue;

	mov	eax, DWORD PTR _this$[ebp]
	mov	ecx, DWORD PTR [eax+8]
	mov	DWORD PTR _stamina_val$[ebp], ecx

; 63   : 	int r, g, b, x, y = 255;

	mov	DWORD PTR _y$[ebp], 255			; 000000ffH

; 64   : 	
; 65   : 	UnpackRGB( r, g, b, 0x0046A9FF ); // 70,169,255 for Diffusion

	push	4631039					; 0046a9ffH
	lea	eax, DWORD PTR _b$[ebp]
	push	eax
	lea	ecx, DWORD PTR _g$[ebp]
	push	ecx
	lea	edx, DWORD PTR _r$[ebp]
	push	edx
	call	?UnpackRGB@@YAXAAH00K@Z			; UnpackRGB
	add	esp, 16					; 00000010H

; 66   : 
; 67   : 	x = (ScreenWidth / 32) - 30;

	mov	eax, DWORD PTR ?gHUD@@3VCHud@@A+8436
	cdq
	and	edx, 31					; 0000001fH
	add	eax, edx
	sar	eax, 5
	sub	eax, 30					; 0000001eH
	mov	DWORD PTR _x$[ebp], eax

; 68   : 	y = ScreenHeight - 40;

	mov	eax, DWORD PTR ?gHUD@@3VCHud@@A+8440
	sub	eax, 40					; 00000028H
	mov	DWORD PTR _y$[ebp], eax

; 69   : 	SPR_Set(m_hBarEmpty, r, g, b );

	mov	eax, DWORD PTR _b$[ebp]
	push	eax
	mov	ecx, DWORD PTR _g$[ebp]
	push	ecx
	mov	edx, DWORD PTR _r$[ebp]
	push	edx
	mov	eax, DWORD PTR _this$[ebp]
	mov	ecx, DWORD PTR [eax+12]
	push	ecx
	call	DWORD PTR ?gEngfuncs@@3Ucl_enginefuncs_s@@A+16
	add	esp, 16					; 00000010H

; 70   : 	SPR_DrawAdditive( 0,  x, y, m_prc_emp);

	mov	eax, DWORD PTR _this$[ebp]
	mov	ecx, DWORD PTR [eax+24]
	push	ecx
	mov	edx, DWORD PTR _y$[ebp]
	push	edx
	mov	eax, DWORD PTR _x$[ebp]
	push	eax
	push	0
	call	DWORD PTR ?gEngfuncs@@3Ucl_enginefuncs_s@@A+28
	add	esp, 16					; 00000010H

; 71   : 
; 72   : 	if( gHUD.IsDrawingOfflineHUD || CL_IsDead() || gHUD.HUDSuitOffline )

	movzx	eax, BYTE PTR ?gHUD@@3VCHud@@A+114
	test	eax, eax
	jne	SHORT $LN7@Draw
	call	?CL_IsDead@@YAHXZ			; CL_IsDead
	test	eax, eax
	jne	SHORT $LN7@Draw
	movzx	eax, BYTE PTR ?gHUD@@3VCHud@@A+118
	test	eax, eax
	je	SHORT $LN6@Draw
$LN7@Draw:

; 73   : 	{
; 74   : 		DrawOfflineBar( x, y );

	mov	eax, DWORD PTR _y$[ebp]
	push	eax
	mov	ecx, DWORD PTR _x$[ebp]
	push	ecx
	mov	ecx, DWORD PTR _this$[ebp]
	call	?DrawOfflineBar@CHudStamina@@QAEXHH@Z	; CHudStamina::DrawOfflineBar

; 75   : 		return 1;

	mov	eax, 1
	jmp	$LN1@Draw
$LN6@Draw:

; 76   : 	}
; 77   : 	
; 78   : 	if( stamina_val < 25 )

	cmp	DWORD PTR _stamina_val$[ebp], 25	; 00000019H
	jge	SHORT $LN8@Draw

; 79   : 		UnpackRGB( r, g, b, 0x00FF4242 );

	push	16728642				; 00ff4242H
	lea	eax, DWORD PTR _b$[ebp]
	push	eax
	lea	ecx, DWORD PTR _g$[ebp]
	push	ecx
	lea	edx, DWORD PTR _r$[ebp]
	push	edx
	call	?UnpackRGB@@YAXAAH00K@Z			; UnpackRGB
	add	esp, 16					; 00000010H
$LN8@Draw:

; 80   : 		
; 81   : 	int iOffset = m_iBarWidth * (100.0 - stamina_val) / 100;

	mov	eax, DWORD PTR _this$[ebp]
	cvtss2sd xmm0, DWORD PTR [eax+36]
	cvtsi2sd xmm1, DWORD PTR _stamina_val$[ebp]
	movsd	xmm2, QWORD PTR __real@4059000000000000
	subsd	xmm2, xmm1
	mulsd	xmm0, xmm2
	divsd	xmm0, QWORD PTR __real@4059000000000000
	cvttsd2si ecx, xmm0
	mov	DWORD PTR _iOffset$[ebp], ecx

; 82   : 	if( iOffset < m_iBarWidth )

	cvtsi2ss xmm0, DWORD PTR _iOffset$[ebp]
	mov	eax, DWORD PTR _this$[ebp]
	movss	xmm1, DWORD PTR [eax+36]
	comiss	xmm1, xmm0
	jbe	SHORT $LN9@Draw

; 83   : 	{
; 84   : 		wrect_t rc = *m_prc_full;

	mov	eax, DWORD PTR _this$[ebp]
	mov	ecx, DWORD PTR [eax+28]
	mov	edx, DWORD PTR [ecx]
	mov	DWORD PTR _rc$1[ebp], edx
	mov	eax, DWORD PTR [ecx+4]
	mov	DWORD PTR _rc$1[ebp+4], eax
	mov	edx, DWORD PTR [ecx+8]
	mov	DWORD PTR _rc$1[ebp+8], edx
	mov	eax, DWORD PTR [ecx+12]
	mov	DWORD PTR _rc$1[ebp+12], eax

; 85   : 		rc.right -= iOffset;

	mov	eax, DWORD PTR _rc$1[ebp+4]
	sub	eax, DWORD PTR _iOffset$[ebp]
	mov	DWORD PTR _rc$1[ebp+4], eax

; 86   : 		ScaleColors( r, g, b, 150 );

	push	150					; 00000096H
	lea	eax, DWORD PTR _b$[ebp]
	push	eax
	lea	ecx, DWORD PTR _g$[ebp]
	push	ecx
	lea	edx, DWORD PTR _r$[ebp]
	push	edx
	call	?ScaleColors@@YAXAAH00H@Z		; ScaleColors
	add	esp, 16					; 00000010H

; 87   : 		SPR_Set( m_hBarFull, r, g, b );

	mov	eax, DWORD PTR _b$[ebp]
	push	eax
	mov	ecx, DWORD PTR _g$[ebp]
	push	ecx
	mov	edx, DWORD PTR _r$[ebp]
	push	edx
	mov	eax, DWORD PTR _this$[ebp]
	mov	ecx, DWORD PTR [eax+16]
	push	ecx
	call	DWORD PTR ?gEngfuncs@@3Ucl_enginefuncs_s@@A+16
	add	esp, 16					; 00000010H

; 88   : 		//		SPR_DrawAdditive( 0, x + iOffset, y, &rc);  // try to uncomment this for cool effect?
; 89   : 		SPR_DrawAdditive( 0, x, y, &rc );

	lea	eax, DWORD PTR _rc$1[ebp]
	push	eax
	mov	ecx, DWORD PTR _y$[ebp]
	push	ecx
	mov	edx, DWORD PTR _x$[ebp]
	push	edx
	push	0
	call	DWORD PTR ?gEngfuncs@@3Ucl_enginefuncs_s@@A+28
	add	esp, 16					; 00000010H
$LN9@Draw:

; 90   : 	}
; 91   : 
; 92   : 	// play sound
; 93   : 	if( StaminaLowSoundTime > gHUD.m_flTime )

	movss	xmm0, DWORD PTR ?StaminaLowSoundTime@@3MA
	comiss	xmm0, DWORD PTR ?gHUD@@3VCHud@@A+32
	jbe	SHORT $LN10@Draw

; 94   : 		StaminaLowSoundTime = 0; // possible saverestore issues...

	xorps	xmm0, xmm0
	movss	DWORD PTR ?StaminaLowSoundTime@@3MA, xmm0
$LN10@Draw:

; 95   : 
; 96   : 	if( (stamina_val < 1) && (gHUD.m_flTime > StaminaLowSoundTime + 2) )

	cmp	DWORD PTR _stamina_val$[ebp], 1
	jge	SHORT $LN11@Draw
	movss	xmm0, DWORD PTR ?StaminaLowSoundTime@@3MA
	addss	xmm0, DWORD PTR __real@40000000
	movss	xmm1, DWORD PTR ?gHUD@@3VCHud@@A+32
	comiss	xmm1, xmm0
	jbe	SHORT $LN11@Draw

; 97   : 	{
; 98   : 		gEngfuncs.pEventAPI->EV_PlaySound( gEngfuncs.GetLocalPlayer()->index, NULL, CHAN_STATIC, "player/stamina_low.wav", 1, 0, 0, 100 );

	push	100					; 00000064H
	push	0
	push	ecx
	xorps	xmm0, xmm0
	movss	DWORD PTR [esp], xmm0
	push	ecx
	movss	xmm0, DWORD PTR __real@3f800000
	movss	DWORD PTR [esp], xmm0
	push	OFFSET ??_C@_0BH@MEMHFMPB@player?1stamina_low?4wav?$AA@
	push	6
	push	0
	call	DWORD PTR ?gEngfuncs@@3Ucl_enginefuncs_s@@A+204
	mov	eax, DWORD PTR [eax]
	push	eax
	mov	ecx, DWORD PTR ?gEngfuncs@@3Ucl_enginefuncs_s@@A+336
	mov	edx, DWORD PTR [ecx+4]
	call	edx
	add	esp, 32					; 00000020H

; 99   : 		StaminaLowSoundTime = gHUD.m_flTime;

	movss	xmm0, DWORD PTR ?gHUD@@3VCHud@@A+32
	movss	DWORD PTR ?StaminaLowSoundTime@@3MA, xmm0
$LN11@Draw:

; 100  : 	}
; 101  : 
; 102  : 	return 1;

	mov	eax, 1
$LN1@Draw:

; 103  : }

	pop	edi
	pop	esi
	pop	ebx
	mov	ecx, DWORD PTR __$ArrayPad$[ebp]
	xor	ecx, ebp
	call	@__security_check_cookie@4
	mov	esp, ebp
	pop	ebp
	ret	4
?Draw@CHudStamina@@UAEHM@Z ENDP				; CHudStamina::Draw
_TEXT	ENDS
; Function compile flags: /Odtp /ZI
; File d:\!diffusion 2020\source code 2022\client-server\client\hud_stamina.cpp
;	COMDAT ?VidInit@CHudStamina@@UAEHXZ
_TEXT	SEGMENT
_bar_offline$ = -16					; size = 4
_bar_full$ = -12					; size = 4
_bar_empty$ = -8					; size = 4
_this$ = -4						; size = 4
?VidInit@CHudStamina@@UAEHXZ PROC			; CHudStamina::VidInit, COMDAT
; _this$ = ecx

; 33   : {

	push	ebp
	mov	ebp, esp
	sub	esp, 80					; 00000050H
	push	ebx
	push	esi
	push	edi
	mov	DWORD PTR _this$[ebp], ecx

; 34   : 	int bar_empty = gHUD.GetSpriteIndex( "stamina_empty" );

	push	OFFSET ??_C@_0O@GFJODOKB@stamina_empty?$AA@
	mov	ecx, OFFSET ?gHUD@@3VCHud@@A		; gHUD
	call	?GetSpriteIndex@CHud@@QAEHPBD@Z		; CHud::GetSpriteIndex
	mov	DWORD PTR _bar_empty$[ebp], eax

; 35   : 	int bar_full = gHUD.GetSpriteIndex( "stamina_full" );

	push	OFFSET ??_C@_0N@ECBEGJCN@stamina_full?$AA@
	mov	ecx, OFFSET ?gHUD@@3VCHud@@A		; gHUD
	call	?GetSpriteIndex@CHud@@QAEHPBD@Z		; CHud::GetSpriteIndex
	mov	DWORD PTR _bar_full$[ebp], eax

; 36   : 	int bar_offline = gHUD.GetSpriteIndex( "stamina_offline" );

	push	OFFSET ??_C@_0BA@GKHPKODN@stamina_offline?$AA@
	mov	ecx, OFFSET ?gHUD@@3VCHud@@A		; gHUD
	call	?GetSpriteIndex@CHud@@QAEHPBD@Z		; CHud::GetSpriteIndex
	mov	DWORD PTR _bar_offline$[ebp], eax

; 37   : 	m_hBarEmpty = gHUD.GetSprite( bar_empty );

	mov	eax, DWORD PTR _bar_empty$[ebp]
	push	eax
	mov	ecx, OFFSET ?gHUD@@3VCHud@@A		; gHUD
	call	?GetSprite@CHud@@QAEHH@Z		; CHud::GetSprite
	mov	ecx, DWORD PTR _this$[ebp]
	mov	DWORD PTR [ecx+12], eax

; 38   : 	m_hBarFull = gHUD.GetSprite( bar_full );

	mov	eax, DWORD PTR _bar_full$[ebp]
	push	eax
	mov	ecx, OFFSET ?gHUD@@3VCHud@@A		; gHUD
	call	?GetSprite@CHud@@QAEHH@Z		; CHud::GetSprite
	mov	ecx, DWORD PTR _this$[ebp]
	mov	DWORD PTR [ecx+16], eax

; 39   : 	m_hBarOffline = gHUD.GetSprite( bar_offline );

	mov	eax, DWORD PTR _bar_offline$[ebp]
	push	eax
	mov	ecx, OFFSET ?gHUD@@3VCHud@@A		; gHUD
	call	?GetSprite@CHud@@QAEHH@Z		; CHud::GetSprite
	mov	ecx, DWORD PTR _this$[ebp]
	mov	DWORD PTR [ecx+20], eax

; 40   : 	m_prc_emp = &gHUD.GetSpriteRect( bar_empty );

	mov	eax, DWORD PTR _bar_empty$[ebp]
	push	eax
	mov	ecx, OFFSET ?gHUD@@3VCHud@@A		; gHUD
	call	?GetSpriteRect@CHud@@QAEAAUwrect_s@@H@Z	; CHud::GetSpriteRect
	mov	ecx, DWORD PTR _this$[ebp]
	mov	DWORD PTR [ecx+24], eax

; 41   : 	m_prc_full = &gHUD.GetSpriteRect( bar_full );

	mov	eax, DWORD PTR _bar_full$[ebp]
	push	eax
	mov	ecx, OFFSET ?gHUD@@3VCHud@@A		; gHUD
	call	?GetSpriteRect@CHud@@QAEAAUwrect_s@@H@Z	; CHud::GetSpriteRect
	mov	ecx, DWORD PTR _this$[ebp]
	mov	DWORD PTR [ecx+28], eax

; 42   : 	m_prc_offline = &gHUD.GetSpriteRect( bar_offline );

	mov	eax, DWORD PTR _bar_offline$[ebp]
	push	eax
	mov	ecx, OFFSET ?gHUD@@3VCHud@@A		; gHUD
	call	?GetSpriteRect@CHud@@QAEAAUwrect_s@@H@Z	; CHud::GetSpriteRect
	mov	ecx, DWORD PTR _this$[ebp]
	mov	DWORD PTR [ecx+32], eax

; 43   : 	m_iBarWidth = m_prc_full->right - m_prc_full->left;

	mov	eax, DWORD PTR _this$[ebp]
	mov	ecx, DWORD PTR [eax+28]
	mov	edx, DWORD PTR _this$[ebp]
	mov	eax, DWORD PTR [edx+28]
	mov	ecx, DWORD PTR [ecx+4]
	sub	ecx, DWORD PTR [eax]
	cvtsi2ss xmm0, ecx
	mov	edx, DWORD PTR _this$[ebp]
	movss	DWORD PTR [edx+36], xmm0

; 44   : 
; 45   : 	return 1;

	mov	eax, 1

; 46   : };

	pop	edi
	pop	esi
	pop	ebx
	mov	esp, ebp
	pop	ebp
	ret	0
?VidInit@CHudStamina@@UAEHXZ ENDP			; CHudStamina::VidInit
_TEXT	ENDS
; Function compile flags: /Odtp /ZI
; File d:\!diffusion 2020\source code 2022\client-server\client\hud_stamina.cpp
;	COMDAT ?Init@CHudStamina@@UAEHXZ
_TEXT	SEGMENT
_this$ = -4						; size = 4
?Init@CHudStamina@@UAEHXZ PROC				; CHudStamina::Init, COMDAT
; _this$ = ecx

; 16   : {

	push	ebp
	mov	ebp, esp
	sub	esp, 68					; 00000044H
	push	ebx
	push	esi
	push	edi
	mov	DWORD PTR _this$[ebp], ecx

; 17   : 	m_iFlags |= HUD_ACTIVE;

	mov	eax, DWORD PTR _this$[ebp]
	mov	ecx, DWORD PTR [eax+4]
	or	ecx, 1
	mov	edx, DWORD PTR _this$[ebp]
	mov	DWORD PTR [edx+4], ecx

; 18   : 	HOOK_MESSAGE( Stamina );

	push	OFFSET ?__MsgFunc_Stamina@@YAHPBDHPAX@Z	; __MsgFunc_Stamina
	push	OFFSET ??_C@_07IDNIELMN@Stamina?$AA@
	call	DWORD PTR ?gEngfuncs@@3Ucl_enginefuncs_s@@A+72
	add	esp, 8

; 19   : 	gHUD.AddHudElem(this);

	mov	eax, DWORD PTR _this$[ebp]
	push	eax
	mov	ecx, OFFSET ?gHUD@@3VCHud@@A		; gHUD
	call	?AddHudElem@CHud@@QAEXPAVCHudBase@@@Z	; CHud::AddHudElem

; 20   : 	return 1;

	mov	eax, 1

; 21   : };

	pop	edi
	pop	esi
	pop	ebx
	mov	esp, ebp
	pop	ebp
	ret	0
?Init@CHudStamina@@UAEHXZ ENDP				; CHudStamina::Init
_TEXT	ENDS
; Function compile flags: /Odtp /ZI
;	COMDAT ??__G@YGXPAX0IIP6EPAX00@Z@Z
_TEXT	SEGMENT
tv66 = -68						; size = 4
___t$ = 8						; size = 4
___u$ = 12						; size = 4
___s$ = 16						; size = 4
___n$ = 20						; size = 4
___f$ = 24						; size = 4
??__G@YGXPAX0IIP6EPAX00@Z@Z PROC			; `vector copy constructor iterator', COMDAT
	push	ebp
	mov	ebp, esp
	sub	esp, 68					; 00000044H
	push	ebx
	push	esi
	push	edi
$LN2@vector:
	mov	eax, DWORD PTR ___n$[ebp]
	mov	DWORD PTR tv66[ebp], eax
	mov	ecx, DWORD PTR ___n$[ebp]
	sub	ecx, 1
	mov	DWORD PTR ___n$[ebp], ecx
	cmp	DWORD PTR tv66[ebp], 0
	jbe	SHORT $LN1@vector
	mov	eax, DWORD PTR ___u$[ebp]
	push	eax
	mov	ecx, DWORD PTR ___t$[ebp]
	call	DWORD PTR ___f$[ebp]
	mov	eax, DWORD PTR ___t$[ebp]
	add	eax, DWORD PTR ___s$[ebp]
	mov	DWORD PTR ___t$[ebp], eax
	mov	eax, DWORD PTR ___u$[ebp]
	add	eax, DWORD PTR ___s$[ebp]
	mov	DWORD PTR ___u$[ebp], eax
	jmp	SHORT $LN2@vector
$LN1@vector:
	pop	edi
	pop	esi
	pop	ebx
	mov	esp, ebp
	pop	ebp
	ret	20					; 00000014H
??__G@YGXPAX0IIP6EPAX00@Z@Z ENDP			; `vector copy constructor iterator'
_TEXT	ENDS
; Function compile flags: /Odtp /ZI
;	COMDAT ??_H@YGXPAXIIP6EPAX0@Z@Z
_TEXT	SEGMENT
tv66 = -68						; size = 4
___t$ = 8						; size = 4
___s$ = 12						; size = 4
___n$ = 16						; size = 4
___f$ = 20						; size = 4
??_H@YGXPAXIIP6EPAX0@Z@Z PROC				; `vector constructor iterator', COMDAT
	push	ebp
	mov	ebp, esp
	sub	esp, 68					; 00000044H
	push	ebx
	push	esi
	push	edi
$LN2@vector:
	mov	eax, DWORD PTR ___n$[ebp]
	mov	DWORD PTR tv66[ebp], eax
	mov	ecx, DWORD PTR ___n$[ebp]
	sub	ecx, 1
	mov	DWORD PTR ___n$[ebp], ecx
	cmp	DWORD PTR tv66[ebp], 0
	jbe	SHORT $LN1@vector
	mov	ecx, DWORD PTR ___t$[ebp]
	call	DWORD PTR ___f$[ebp]
	mov	eax, DWORD PTR ___t$[ebp]
	add	eax, DWORD PTR ___s$[ebp]
	mov	DWORD PTR ___t$[ebp], eax
	jmp	SHORT $LN2@vector
$LN1@vector:
	pop	edi
	pop	esi
	pop	ebx
	mov	esp, ebp
	pop	ebp
	ret	16					; 00000010H
??_H@YGXPAXIIP6EPAX0@Z@Z ENDP				; `vector constructor iterator'
_TEXT	ENDS
END
