; Listing generated by Microsoft (R) Optimizing Compiler Version 19.00.24247.2 

	TITLE	D:\!DIFFUSION 2020\source code 2022\client-server\client\hud_redraw.cpp
	.686P
	.XMM
	include listing.inc
	.model	flat

INCLUDELIB LIBCMT
INCLUDELIB OLDNAMES

PUBLIC	?grgLogoFrame@@3PAHA				; grgLogoFrame
_BSS	SEGMENT
?lastbreathtime@?1??Think@CHud@@QAEXXZ@4MA DD 01H DUP (?) ; `CHud::Think'::`2'::lastbreathtime
_BSS	ENDS
_DATA	SEGMENT
?grgLogoFrame@@3PAHA DD 01H				; grgLogoFrame
	DD	02H
	DD	03H
	DD	04H
	DD	05H
	DD	06H
	DD	07H
	DD	08H
	DD	09H
	DD	0aH
	DD	0bH
	DD	0cH
	DD	0dH
	DD	0dH
	DD	0dH
	DD	0dH
	DD	0dH
	DD	0dH
	DD	0cH
	DD	0bH
	DD	0aH
	DD	09H
	DD	08H
	DD	0eH
	DD	0fH
	DD	010H
	DD	011H
	DD	012H
	DD	013H
	DD	014H
	DD	014H
	DD	014H
	DD	014H
	DD	014H
	DD	014H
	DD	015H
	DD	016H
	DD	017H
	DD	018H
	DD	019H
	DD	01aH
	DD	01bH
	DD	01cH
	DD	01dH
	DD	01dH
	DD	01dH
	DD	01dH
	DD	01dH
	DD	01dH
	DD	01cH
	DD	01bH
	DD	01aH
	DD	019H
	DD	018H
	DD	01eH
	DD	01fH
_DATA	ENDS
PUBLIC	??_H@YGXPAXIIP6EPAX0@Z@Z			; `vector constructor iterator'
PUBLIC	??__G@YGXPAX0IIP6EPAX00@Z@Z			; `vector copy constructor iterator'
PUBLIC	??0Vector@@QAE@XZ				; Vector::Vector
PUBLIC	??0Vector@@QAE@MMM@Z				; Vector::Vector
PUBLIC	??0Vector@@QAE@ABV0@@Z				; Vector::Vector
PUBLIC	??HVector@@QBE?AV0@ABV0@@Z			; Vector::operator+
PUBLIC	??DVector@@QBE?AV0@M@Z				; Vector::operator*
PUBLIC	??BVector@@QAEPAMXZ				; Vector::operator float *
PUBLIC	?DrawHudNumber@CHud@@QAEHHHHHHHH@Z		; CHud::DrawHudNumber
PUBLIC	?DrawHudString@CHud@@QAEHHHHPADHHH@Z		; CHud::DrawHudString
PUBLIC	?DrawHudStringReverse@CHud@@QAEHHHHPADHHH@Z	; CHud::DrawHudStringReverse
PUBLIC	?DrawHudNumberString@CHud@@QAEHHHHHHHH@Z	; CHud::DrawHudNumberString
PUBLIC	?GetNumWidth@CHud@@QAEHHH@Z			; CHud::GetNumWidth
PUBLIC	?GetSprite@CHud@@QAEHH@Z			; CHud::GetSprite
PUBLIC	?GetSpriteRect@CHud@@QAEAAUwrect_s@@H@Z		; CHud::GetSpriteRect
PUBLIC	?Think@CHud@@QAEXXZ				; CHud::Think
PUBLIC	?Redraw@CHud@@QAEHMH@Z				; CHud::Redraw
PUBLIC	?DrumsInput@CHud@@QAEXH@Z			; CHud::DrumsInput
PUBLIC	??0CQuakePart@@QAE@XZ				; CQuakePart::CQuakePart
PUBLIC	??_C@_0P@FCEJBOIB@drums?1kick?4wav?$AA@		; `string'
PUBLIC	??_C@_0BA@DPHELMMO@drums?1snare?4wav?$AA@	; `string'
PUBLIC	??_C@_0BB@JKJDPNLG@drums?1tomlow?4wav?$AA@	; `string'
PUBLIC	??_C@_0BB@HHALNCFD@drums?1tommed?4wav?$AA@	; `string'
PUBLIC	??_C@_0BC@CHLJGGAM@drums?1tomhigh?4wav?$AA@	; `string'
PUBLIC	??_C@_0P@KNIHLFFF@drums?1ride?4wav?$AA@		; `string'
PUBLIC	??_C@_0BA@FKIOHFO@drums?1hihat?4wav?$AA@	; `string'
PUBLIC	??_C@_0BA@EIMHJECJ@drums?1crash?4wav?$AA@	; `string'
PUBLIC	??_C@_0BE@CMKCIFOB@sprites?1?$CFd_logo?4spr?$AA@ ; `string'
PUBLIC	??_C@_02DPKJAMEF@?$CFd?$AA@			; `string'
PUBLIC	__real@00000000
PUBLIC	__real@3dcccccd
PUBLIC	__real@3e800000
PUBLIC	__real@3f400000
PUBLIC	__real@3f800000
PUBLIC	__real@40400000
PUBLIC	__real@40a00000
PUBLIC	__real@41a00000
PUBLIC	__real@41c80000
PUBLIC	__real@42200000
PUBLIC	__real@be800000
EXTRN	?Q_snprintf@@YAHPADIPBDZZ:PROC			; Q_snprintf
EXTRN	?CheckAchievement@CHudAchievement@@QAEXXZ:PROC	; CHudAchievement::CheckAchievement
EXTRN	?LoadSprite@@YAHPBD@Z:PROC			; LoadSprite
EXTRN	?AddParticle@CQuakePartSystem@@QAE_NPAVCQuakePart@@HH@Z:PROC ; CQuakePartSystem::AddParticle
EXTRN	@__security_check_cookie@4:PROC
EXTRN	?g_vecZero@@3VVector@@B:BYTE			; g_vecZero
EXTRN	?gEngfuncs@@3Ucl_enginefuncs_s@@A:BYTE		; gEngfuncs
EXTRN	?gHUD@@3VCHud@@A:BYTE				; gHUD
EXTRN	?tr@@3Uref_globals_t@@A:BYTE			; tr
EXTRN	?g_pParticles@@3VCQuakePartSystem@@A:BYTE	; g_pParticles
EXTRN	___security_cookie:DWORD
EXTRN	__fltused:DWORD
;	COMDAT __real@be800000
CONST	SEGMENT
__real@be800000 DD 0be800000r			; -0.25
CONST	ENDS
;	COMDAT __real@42200000
CONST	SEGMENT
__real@42200000 DD 042200000r			; 40
CONST	ENDS
;	COMDAT __real@41c80000
CONST	SEGMENT
__real@41c80000 DD 041c80000r			; 25
CONST	ENDS
;	COMDAT __real@41a00000
CONST	SEGMENT
__real@41a00000 DD 041a00000r			; 20
CONST	ENDS
;	COMDAT __real@40a00000
CONST	SEGMENT
__real@40a00000 DD 040a00000r			; 5
CONST	ENDS
;	COMDAT __real@40400000
CONST	SEGMENT
__real@40400000 DD 040400000r			; 3
CONST	ENDS
;	COMDAT __real@3f800000
CONST	SEGMENT
__real@3f800000 DD 03f800000r			; 1
CONST	ENDS
;	COMDAT __real@3f400000
CONST	SEGMENT
__real@3f400000 DD 03f400000r			; 0.75
CONST	ENDS
;	COMDAT __real@3e800000
CONST	SEGMENT
__real@3e800000 DD 03e800000r			; 0.25
CONST	ENDS
;	COMDAT __real@3dcccccd
CONST	SEGMENT
__real@3dcccccd DD 03dcccccdr			; 0.1
CONST	ENDS
;	COMDAT __real@00000000
CONST	SEGMENT
__real@00000000 DD 000000000r			; 0
CONST	ENDS
;	COMDAT ??_C@_02DPKJAMEF@?$CFd?$AA@
CONST	SEGMENT
??_C@_02DPKJAMEF@?$CFd?$AA@ DB '%d', 00H		; `string'
CONST	ENDS
;	COMDAT ??_C@_0BE@CMKCIFOB@sprites?1?$CFd_logo?4spr?$AA@
CONST	SEGMENT
??_C@_0BE@CMKCIFOB@sprites?1?$CFd_logo?4spr?$AA@ DB 'sprites/%d_logo.spr', 00H ; `string'
CONST	ENDS
;	COMDAT ??_C@_0BA@EIMHJECJ@drums?1crash?4wav?$AA@
CONST	SEGMENT
??_C@_0BA@EIMHJECJ@drums?1crash?4wav?$AA@ DB 'drums/crash.wav', 00H ; `string'
CONST	ENDS
;	COMDAT ??_C@_0BA@FKIOHFO@drums?1hihat?4wav?$AA@
CONST	SEGMENT
??_C@_0BA@FKIOHFO@drums?1hihat?4wav?$AA@ DB 'drums/hihat.wav', 00H ; `string'
CONST	ENDS
;	COMDAT ??_C@_0P@KNIHLFFF@drums?1ride?4wav?$AA@
CONST	SEGMENT
??_C@_0P@KNIHLFFF@drums?1ride?4wav?$AA@ DB 'drums/ride.wav', 00H ; `string'
CONST	ENDS
;	COMDAT ??_C@_0BC@CHLJGGAM@drums?1tomhigh?4wav?$AA@
CONST	SEGMENT
??_C@_0BC@CHLJGGAM@drums?1tomhigh?4wav?$AA@ DB 'drums/tomhigh.wav', 00H ; `string'
CONST	ENDS
;	COMDAT ??_C@_0BB@HHALNCFD@drums?1tommed?4wav?$AA@
CONST	SEGMENT
??_C@_0BB@HHALNCFD@drums?1tommed?4wav?$AA@ DB 'drums/tommed.wav', 00H ; `string'
CONST	ENDS
;	COMDAT ??_C@_0BB@JKJDPNLG@drums?1tomlow?4wav?$AA@
CONST	SEGMENT
??_C@_0BB@JKJDPNLG@drums?1tomlow?4wav?$AA@ DB 'drums/tomlow.wav', 00H ; `string'
CONST	ENDS
;	COMDAT ??_C@_0BA@DPHELMMO@drums?1snare?4wav?$AA@
CONST	SEGMENT
??_C@_0BA@DPHELMMO@drums?1snare?4wav?$AA@ DB 'drums/snare.wav', 00H ; `string'
CONST	ENDS
;	COMDAT ??_C@_0P@FCEJBOIB@drums?1kick?4wav?$AA@
CONST	SEGMENT
??_C@_0P@FCEJBOIB@drums?1kick?4wav?$AA@ DB 'drums/kick.wav', 00H ; `string'
CONST	ENDS
; Function compile flags: /Odtp /ZI
; File d:\!diffusion 2020\source code 2022\client-server\client\hud_redraw.cpp
;	COMDAT ?SuitIsOffline@@YAXXZ
_TEXT	SEGMENT
?SuitIsOffline@@YAXXZ PROC				; SuitIsOffline, COMDAT

; 36   : {	

	push	ebp
	mov	ebp, esp
	sub	esp, 64					; 00000040H
	push	ebx
	push	esi
	push	edi

; 37   : 	if( gHUD.m_Health.m_bitsDamage & 256 ) // got DMG_SHOCK

	mov	eax, DWORD PTR ?gHUD@@3VCHud@@A+316
	and	eax, 256				; 00000100H
	je	SHORT $LN3@SuitIsOffl

; 38   : 	{
; 39   : 		if( !gHUD.IsDrawingOfflineHUD && (gHUD.m_flTime > gHUD.NextDrawingOfflineHUDTime) ) // make sure it's not already set

	movzx	eax, BYTE PTR ?gHUD@@3VCHud@@A+114
	test	eax, eax
	jne	SHORT $LN3@SuitIsOffl
	movss	xmm0, DWORD PTR ?gHUD@@3VCHud@@A+32
	comiss	xmm0, DWORD PTR ?gHUD@@3VCHud@@A+140
	jbe	SHORT $LN3@SuitIsOffl

; 40   : 		{
; 41   : 			gHUD.IsDrawingOfflineHUD = true;

	mov	BYTE PTR ?gHUD@@3VCHud@@A+114, 1

; 42   : 			gHUD.NextDrawingOfflineHUDTime = gHUD.m_flTime + SUIT_OFFLINE_TIME + 5;

	movss	xmm0, DWORD PTR ?gHUD@@3VCHud@@A+32
	addss	xmm0, DWORD PTR __real@42200000
	addss	xmm0, DWORD PTR __real@40a00000
	movss	DWORD PTR ?gHUD@@3VCHud@@A+140, xmm0
$LN3@SuitIsOffl:

; 43   : 		}
; 44   : 	}
; 45   : 
; 46   : 	if( gHUD.IsDrawingOfflineHUD )

	movzx	eax, BYTE PTR ?gHUD@@3VCHud@@A+114
	test	eax, eax
	je	SHORT $LN5@SuitIsOffl

; 47   : 	{
; 48   : 		if( gHUD.m_flTime > gHUD.NextDrawingOfflineHUDTime - SUIT_OFFLINE_TIME - 3 )

	movss	xmm0, DWORD PTR ?gHUD@@3VCHud@@A+140
	subss	xmm0, DWORD PTR __real@42200000
	subss	xmm0, DWORD PTR __real@40400000
	movss	xmm1, DWORD PTR ?gHUD@@3VCHud@@A+32
	comiss	xmm1, xmm0
	jbe	SHORT $LN5@SuitIsOffl

; 49   : 			gHUD.IsDrawingOfflineHUD = false;

	mov	BYTE PTR ?gHUD@@3VCHud@@A+114, 0
$LN5@SuitIsOffl:

; 50   : 	}
; 51   : }

	pop	edi
	pop	esi
	pop	ebx
	mov	esp, ebp
	pop	ebp
	ret	0
?SuitIsOffline@@YAXXZ ENDP				; SuitIsOffline
_TEXT	ENDS
; Function compile flags: /Odtp /ZI
;	COMDAT ??0CQuakePart@@QAE@XZ
_TEXT	SEGMENT
_this$ = -4						; size = 4
??0CQuakePart@@QAE@XZ PROC				; CQuakePart::CQuakePart, COMDAT
; _this$ = ecx
	push	ebp
	mov	ebp, esp
	sub	esp, 68					; 00000044H
	push	ebx
	push	esi
	push	edi
	mov	DWORD PTR _this$[ebp], ecx
	mov	ecx, DWORD PTR _this$[ebp]
	call	??0Vector@@QAE@XZ			; Vector::Vector
	mov	ecx, DWORD PTR _this$[ebp]
	add	ecx, 12					; 0000000cH
	call	??0Vector@@QAE@XZ			; Vector::Vector
	mov	ecx, DWORD PTR _this$[ebp]
	add	ecx, 24					; 00000018H
	call	??0Vector@@QAE@XZ			; Vector::Vector
	mov	ecx, DWORD PTR _this$[ebp]
	add	ecx, 36					; 00000024H
	call	??0Vector@@QAE@XZ			; Vector::Vector
	mov	ecx, DWORD PTR _this$[ebp]
	add	ecx, 48					; 00000030H
	call	??0Vector@@QAE@XZ			; Vector::Vector
	mov	ecx, DWORD PTR _this$[ebp]
	add	ecx, 60					; 0000003cH
	call	??0Vector@@QAE@XZ			; Vector::Vector
	mov	ecx, DWORD PTR _this$[ebp]
	add	ecx, 116				; 00000074H
	call	??0Vector@@QAE@XZ			; Vector::Vector
	mov	ecx, DWORD PTR _this$[ebp]
	add	ecx, 156				; 0000009cH
	call	??0Vector@@QAE@XZ			; Vector::Vector
	mov	eax, DWORD PTR _this$[ebp]
	pop	edi
	pop	esi
	pop	ebx
	mov	esp, ebp
	pop	ebp
	ret	0
??0CQuakePart@@QAE@XZ ENDP				; CQuakePart::CQuakePart
_TEXT	ENDS
; Function compile flags: /Odtp /ZI
; File d:\!diffusion 2020\source code 2022\client-server\client\hud_redraw.cpp
;	COMDAT ?DrumsInput@CHud@@QAEXH@Z
_TEXT	SEGMENT
tv64 = -204						; size = 4
_sample$ = -136						; size = 128
_this$ = -8						; size = 4
__$ArrayPad$ = -4					; size = 4
_Slot$ = 8						; size = 4
?DrumsInput@CHud@@QAEXH@Z PROC				; CHud::DrumsInput, COMDAT
; _this$ = ecx

; 54   : {

	push	ebp
	mov	ebp, esp
	sub	esp, 204				; 000000ccH
	mov	eax, DWORD PTR ___security_cookie
	xor	eax, ebp
	mov	DWORD PTR __$ArrayPad$[ebp], eax
	push	ebx
	push	esi
	push	edi
	mov	DWORD PTR _this$[ebp], ecx

; 55   : 	char sample[128];
; 56   : 
; 57   : 	switch( Slot )

	mov	eax, DWORD PTR _Slot$[ebp]
	mov	DWORD PTR tv64[ebp], eax
	cmp	DWORD PTR tv64[ebp], 7
	ja	$LN2@DrumsInput
	mov	ecx, DWORD PTR tv64[ebp]
	jmp	DWORD PTR $LN14@DrumsInput[ecx*4]
$LN4@DrumsInput:

; 58   : 	{
; 59   : 	case 4: Q_snprintf( sample, sizeof( sample ), "drums/kick.wav" ); break;

	push	OFFSET ??_C@_0P@FCEJBOIB@drums?1kick?4wav?$AA@
	push	128					; 00000080H
	lea	eax, DWORD PTR _sample$[ebp]
	push	eax
	call	?Q_snprintf@@YAHPADIPBDZZ		; Q_snprintf
	add	esp, 12					; 0000000cH
	jmp	$LN2@DrumsInput
$LN5@DrumsInput:

; 60   : 	case 3: Q_snprintf( sample, sizeof( sample ), "drums/snare.wav" ); break;

	push	OFFSET ??_C@_0BA@DPHELMMO@drums?1snare?4wav?$AA@
	push	128					; 00000080H
	lea	eax, DWORD PTR _sample$[ebp]
	push	eax
	call	?Q_snprintf@@YAHPADIPBDZZ		; Q_snprintf
	add	esp, 12					; 0000000cH
	jmp	$LN2@DrumsInput
$LN6@DrumsInput:

; 61   : 	case 2: Q_snprintf( sample, sizeof( sample ), "drums/tomlow.wav" ); break;

	push	OFFSET ??_C@_0BB@JKJDPNLG@drums?1tomlow?4wav?$AA@
	push	128					; 00000080H
	lea	eax, DWORD PTR _sample$[ebp]
	push	eax
	call	?Q_snprintf@@YAHPADIPBDZZ		; Q_snprintf
	add	esp, 12					; 0000000cH
	jmp	$LN2@DrumsInput
$LN7@DrumsInput:

; 62   : 	case 1: Q_snprintf( sample, sizeof( sample ), "drums/tommed.wav" ); break;

	push	OFFSET ??_C@_0BB@HHALNCFD@drums?1tommed?4wav?$AA@
	push	128					; 00000080H
	lea	eax, DWORD PTR _sample$[ebp]
	push	eax
	call	?Q_snprintf@@YAHPADIPBDZZ		; Q_snprintf
	add	esp, 12					; 0000000cH
	jmp	SHORT $LN2@DrumsInput
$LN8@DrumsInput:

; 63   : 	case 0: Q_snprintf( sample, sizeof( sample ), "drums/tomhigh.wav" ); break;

	push	OFFSET ??_C@_0BC@CHLJGGAM@drums?1tomhigh?4wav?$AA@
	push	128					; 00000080H
	lea	eax, DWORD PTR _sample$[ebp]
	push	eax
	call	?Q_snprintf@@YAHPADIPBDZZ		; Q_snprintf
	add	esp, 12					; 0000000cH
	jmp	SHORT $LN2@DrumsInput
$LN9@DrumsInput:

; 64   : 	// cymbals
; 65   : 	case 5: Q_snprintf( sample, sizeof( sample ), "drums/ride.wav" ); break;

	push	OFFSET ??_C@_0P@KNIHLFFF@drums?1ride?4wav?$AA@
	push	128					; 00000080H
	lea	eax, DWORD PTR _sample$[ebp]
	push	eax
	call	?Q_snprintf@@YAHPADIPBDZZ		; Q_snprintf
	add	esp, 12					; 0000000cH
	jmp	SHORT $LN2@DrumsInput
$LN10@DrumsInput:

; 66   : 	case 6: Q_snprintf( sample, sizeof( sample ), "drums/hihat.wav" ); break;

	push	OFFSET ??_C@_0BA@FKIOHFO@drums?1hihat?4wav?$AA@
	push	128					; 00000080H
	lea	eax, DWORD PTR _sample$[ebp]
	push	eax
	call	?Q_snprintf@@YAHPADIPBDZZ		; Q_snprintf
	add	esp, 12					; 0000000cH
	jmp	SHORT $LN2@DrumsInput
$LN11@DrumsInput:

; 67   : 	case 7: Q_snprintf( sample, sizeof( sample ), "drums/crash.wav" ); break;

	push	OFFSET ??_C@_0BA@EIMHJECJ@drums?1crash?4wav?$AA@
	push	128					; 00000080H
	lea	eax, DWORD PTR _sample$[ebp]
	push	eax
	call	?Q_snprintf@@YAHPADIPBDZZ		; Q_snprintf
	add	esp, 12					; 0000000cH
$LN2@DrumsInput:

; 68   : 	}
; 69   : 
; 70   : 	if( sample[0] != NULL )

	mov	eax, 1
	imul	ecx, eax, 0
	movsx	edx, BYTE PTR _sample$[ebp+ecx]
	test	edx, edx
	je	SHORT $LN12@DrumsInput

; 71   : 		gEngfuncs.pEventAPI->EV_PlaySound( gEngfuncs.GetLocalPlayer()->index, gEngfuncs.GetLocalPlayer()->origin, CHAN_STATIC, sample, 1.0, 1.0, 0, 100 );

	push	100					; 00000064H
	push	0
	push	ecx
	movss	xmm0, DWORD PTR __real@3f800000
	movss	DWORD PTR [esp], xmm0
	push	ecx
	movss	xmm0, DWORD PTR __real@3f800000
	movss	DWORD PTR [esp], xmm0
	lea	eax, DWORD PTR _sample$[ebp]
	push	eax
	push	6
	call	DWORD PTR ?gEngfuncs@@3Ucl_enginefuncs_s@@A+204
	add	eax, 2888				; 00000b48H
	mov	ecx, eax
	call	??BVector@@QAEPAMXZ			; Vector::operator float *
	push	eax
	call	DWORD PTR ?gEngfuncs@@3Ucl_enginefuncs_s@@A+204
	mov	ecx, DWORD PTR [eax]
	push	ecx
	mov	edx, DWORD PTR ?gEngfuncs@@3Ucl_enginefuncs_s@@A+336
	mov	eax, DWORD PTR [edx+4]
	call	eax
	add	esp, 32					; 00000020H
$LN12@DrumsInput:

; 72   : }

	pop	edi
	pop	esi
	pop	ebx
	mov	ecx, DWORD PTR __$ArrayPad$[ebp]
	xor	ecx, ebp
	call	@__security_check_cookie@4
	mov	esp, ebp
	pop	ebp
	ret	4
	npad	3
$LN14@DrumsInput:
	DD	$LN8@DrumsInput
	DD	$LN7@DrumsInput
	DD	$LN6@DrumsInput
	DD	$LN5@DrumsInput
	DD	$LN4@DrumsInput
	DD	$LN9@DrumsInput
	DD	$LN10@DrumsInput
	DD	$LN11@DrumsInput
?DrumsInput@CHud@@QAEXH@Z ENDP				; CHud::DrumsInput
_TEXT	ENDS
; Function compile flags: /Odtp /ZI
; File d:\!diffusion 2020\source code 2022\client-server\client\hud_redraw.cpp
;	COMDAT ?Redraw@CHud@@QAEHMH@Z
_TEXT	SEGMENT
_iFrame$1 = -24						; size = 4
_i$2 = -20						; size = 4
_y$3 = -16						; size = 4
_x$4 = -12						; size = 4
_pList$5 = -8						; size = 4
_this$ = -4						; size = 4
_flTime$ = 8						; size = 4
_intermission$ = 12					; size = 4
?Redraw@CHud@@QAEHMH@Z PROC				; CHud::Redraw, COMDAT
; _this$ = ecx

; 137  : {

	push	ebp
	mov	ebp, esp
	sub	esp, 88					; 00000058H
	push	ebx
	push	esi
	push	edi
	mov	DWORD PTR _this$[ebp], ecx

; 138  : 	m_fOldTime = m_flTime;	// save time of previous redraw

	mov	eax, DWORD PTR _this$[ebp]
	mov	ecx, DWORD PTR _this$[ebp]
	mov	edx, DWORD PTR [ecx+32]
	mov	DWORD PTR [eax+36], edx

; 139  : 	m_flTime = flTime;

	mov	eax, DWORD PTR _this$[ebp]
	movss	xmm0, DWORD PTR _flTime$[ebp]
	movss	DWORD PTR [eax+32], xmm0

; 140  : 	m_flTimeDelta = (double)m_flTime - m_fOldTime;

	mov	eax, DWORD PTR _this$[ebp]
	cvtss2sd xmm0, DWORD PTR [eax+32]
	mov	ecx, DWORD PTR _this$[ebp]
	cvtss2sd xmm1, DWORD PTR [ecx+36]
	subsd	xmm0, xmm1
	mov	edx, DWORD PTR _this$[ebp]
	movsd	QWORD PTR [edx+40], xmm0

; 141  : 
; 142  : 	// Clock was reset, reset delta
; 143  : 	if( m_flTimeDelta < 0 ) m_flTimeDelta = 0;

	mov	eax, DWORD PTR _this$[ebp]
	xorps	xmm0, xmm0
	comisd	xmm0, QWORD PTR [eax+40]
	jbe	SHORT $LN4@Redraw
	mov	eax, DWORD PTR _this$[ebp]
	xorps	xmm0, xmm0
	movsd	QWORD PTR [eax+40], xmm0
$LN4@Redraw:

; 144  : 
; 145  : 	m_iIntermission = intermission;

	mov	eax, DWORD PTR _this$[ebp]
	mov	ecx, DWORD PTR _intermission$[ebp]
	mov	DWORD PTR [eax+8976], ecx

; 146  : 
; 147  : 	if( m_pCvarDraw->value )

	mov	eax, DWORD PTR _this$[ebp]
	mov	ecx, DWORD PTR [eax+92]
	movss	xmm0, DWORD PTR [ecx+12]
	ucomiss	xmm0, DWORD PTR __real@00000000
	lahf
	test	ah, 68					; 00000044H
	jnp	SHORT $LN3@Redraw

; 148  : 	{
; 149  : 		HUDLIST *pList = m_pHudList;

	mov	eax, DWORD PTR _this$[ebp]
	mov	ecx, DWORD PTR [eax]
	mov	DWORD PTR _pList$5[ebp], ecx
$LN2@Redraw:

; 150  : 
; 151  : 		while( pList )

	cmp	DWORD PTR _pList$5[ebp], 0
	je	SHORT $LN3@Redraw

; 152  : 		{
; 153  : 			if( !intermission )

	cmp	DWORD PTR _intermission$[ebp], 0
	jne	SHORT $LN6@Redraw

; 154  : 			{
; 155  : 				if(( pList->p->m_iFlags & HUD_ACTIVE ) && !( m_iHideHUDDisplay & HIDEHUD_ALL ) )

	mov	eax, DWORD PTR _pList$5[ebp]
	mov	ecx, DWORD PTR [eax]
	mov	edx, DWORD PTR [ecx+4]
	and	edx, 1
	je	SHORT $LN8@Redraw
	mov	eax, DWORD PTR _this$[ebp]
	mov	ecx, DWORD PTR [eax+76]
	and	ecx, 4
	jne	SHORT $LN8@Redraw

; 156  : 					pList->p->Draw( flTime );

	push	ecx
	movss	xmm0, DWORD PTR _flTime$[ebp]
	movss	DWORD PTR [esp], xmm0
	mov	eax, DWORD PTR _pList$5[ebp]
	mov	ecx, DWORD PTR [eax]
	mov	edx, DWORD PTR _pList$5[ebp]
	mov	eax, DWORD PTR [ecx]
	mov	ecx, DWORD PTR [edx]
	mov	edx, DWORD PTR [eax+12]
	call	edx
$LN8@Redraw:

; 157  : 			}
; 158  : 			else

	jmp	SHORT $LN9@Redraw
$LN6@Redraw:

; 159  : 			{
; 160  : 				// it's an intermission, so only draw hud elements that are set
; 161  : 				// to draw during intermissions
; 162  : 				if( pList->p->m_iFlags & HUD_INTERMISSION )

	mov	eax, DWORD PTR _pList$5[ebp]
	mov	ecx, DWORD PTR [eax]
	mov	edx, DWORD PTR [ecx+4]
	and	edx, 2
	je	SHORT $LN9@Redraw

; 163  : 					pList->p->Draw( flTime );

	push	ecx
	movss	xmm0, DWORD PTR _flTime$[ebp]
	movss	DWORD PTR [esp], xmm0
	mov	eax, DWORD PTR _pList$5[ebp]
	mov	ecx, DWORD PTR [eax]
	mov	edx, DWORD PTR _pList$5[ebp]
	mov	eax, DWORD PTR [ecx]
	mov	ecx, DWORD PTR [edx]
	mov	edx, DWORD PTR [eax+12]
	call	edx
$LN9@Redraw:

; 164  : 			}
; 165  : 
; 166  : 			pList = pList->pNext;

	mov	eax, DWORD PTR _pList$5[ebp]
	mov	ecx, DWORD PTR [eax+4]
	mov	DWORD PTR _pList$5[ebp], ecx

; 167  : 		}

	jmp	SHORT $LN2@Redraw
$LN3@Redraw:

; 168  : 	}
; 169  : 
; 170  : 	// diffusion: HUD is hidden, but show anyway( i.e. text messages )
; 171  : 	if( m_iHideHUDDisplay & HIDEHUD_ALL )

	mov	eax, DWORD PTR _this$[ebp]
	mov	ecx, DWORD PTR [eax+76]
	and	ecx, 4
	je	$LN10@Redraw

; 172  : 	{
; 173  : 		m_Lensflare.Draw( flTime );

	push	ecx
	movss	xmm0, DWORD PTR _flTime$[ebp]
	movss	DWORD PTR [esp], xmm0
	mov	ecx, DWORD PTR _this$[ebp]
	add	ecx, 7912				; 00001ee8H
	mov	eax, DWORD PTR _this$[ebp]
	mov	edx, DWORD PTR [eax+7912]
	mov	eax, DWORD PTR [edx+12]
	call	eax

; 174  : 		m_ScreenEffects.Draw( flTime );

	push	ecx
	movss	xmm0, DWORD PTR _flTime$[ebp]
	movss	DWORD PTR [esp], xmm0
	mov	ecx, DWORD PTR _this$[ebp]
	add	ecx, 7780				; 00001e64H
	mov	eax, DWORD PTR _this$[ebp]
	mov	edx, DWORD PTR [eax+7780]
	mov	eax, DWORD PTR [edx+12]
	call	eax

; 175  : 		m_StatusIconsAchievement.Draw( flTime );

	push	ecx
	movss	xmm0, DWORD PTR _flTime$[ebp]
	movss	DWORD PTR [esp], xmm0
	mov	ecx, DWORD PTR _this$[ebp]
	add	ecx, 2004				; 000007d4H
	mov	eax, DWORD PTR _this$[ebp]
	mov	edx, DWORD PTR [eax+2004]
	mov	eax, DWORD PTR [edx+12]
	call	eax

; 176  : 		m_Message.Draw( flTime );

	push	ecx
	movss	xmm0, DWORD PTR _flTime$[ebp]
	movss	DWORD PTR [esp], xmm0
	mov	ecx, DWORD PTR _this$[ebp]
	add	ecx, 552				; 00000228H
	mov	eax, DWORD PTR _this$[ebp]
	mov	edx, DWORD PTR [eax+552]
	mov	eax, DWORD PTR [edx+12]
	call	eax
$LN10@Redraw:

; 177  : 	}
; 178  : 
; 179  : 	// are we in demo mode? do we need to draw the logo in the top corner?
; 180  : 	if( m_iLogo )

	mov	eax, DWORD PTR _this$[ebp]
	cmp	DWORD PTR [eax+28], 0
	je	$LN11@Redraw

; 181  : 	{
; 182  : 		int x, y, i;
; 183  : 
; 184  : 		if( m_hsprLogo == 0 )

	mov	eax, DWORD PTR _this$[ebp]
	cmp	DWORD PTR [eax+24], 0
	jne	SHORT $LN12@Redraw

; 185  : 			m_hsprLogo = LoadSprite( "sprites/%d_logo.spr" );

	push	OFFSET ??_C@_0BE@CMKCIFOB@sprites?1?$CFd_logo?4spr?$AA@
	call	?LoadSprite@@YAHPBD@Z			; LoadSprite
	add	esp, 4
	mov	ecx, DWORD PTR _this$[ebp]
	mov	DWORD PTR [ecx+24], eax
$LN12@Redraw:

; 186  : 
; 187  : 		SPR_Set( m_hsprLogo, 250, 250, 250 );

	push	250					; 000000faH
	push	250					; 000000faH
	push	250					; 000000faH
	mov	eax, DWORD PTR _this$[ebp]
	mov	ecx, DWORD PTR [eax+24]
	push	ecx
	call	DWORD PTR ?gEngfuncs@@3Ucl_enginefuncs_s@@A+16
	add	esp, 16					; 00000010H

; 188  : 		
; 189  : 		x = SPR_Width( m_hsprLogo, 0 );

	push	0
	mov	eax, DWORD PTR _this$[ebp]
	mov	ecx, DWORD PTR [eax+24]
	push	ecx
	call	DWORD PTR ?gEngfuncs@@3Ucl_enginefuncs_s@@A+12
	add	esp, 8
	mov	DWORD PTR _x$4[ebp], eax

; 190  : 		x = ScreenWidth - x;

	mov	eax, DWORD PTR ?gHUD@@3VCHud@@A+8436
	sub	eax, DWORD PTR _x$4[ebp]
	mov	DWORD PTR _x$4[ebp], eax

; 191  : 		y = SPR_Height(m_hsprLogo, 0) / 2;

	push	0
	mov	eax, DWORD PTR _this$[ebp]
	mov	ecx, DWORD PTR [eax+24]
	push	ecx
	call	DWORD PTR ?gEngfuncs@@3Ucl_enginefuncs_s@@A+8
	add	esp, 8
	cdq
	sub	eax, edx
	sar	eax, 1
	mov	DWORD PTR _y$3[ebp], eax

; 192  : 
; 193  : 		// Draw the logo at 20 fps
; 194  : 		int iFrame = (int)(flTime * 20) % MAX_LOGO_FRAMES;

	movss	xmm0, DWORD PTR _flTime$[ebp]
	mulss	xmm0, DWORD PTR __real@41a00000
	cvttss2si eax, xmm0
	cdq
	mov	ecx, 56					; 00000038H
	idiv	ecx
	mov	DWORD PTR _iFrame$1[ebp], edx

; 195  : 		i = grgLogoFrame[iFrame] - 1;

	mov	eax, DWORD PTR _iFrame$1[ebp]
	mov	ecx, DWORD PTR ?grgLogoFrame@@3PAHA[eax*4]
	sub	ecx, 1
	mov	DWORD PTR _i$2[ebp], ecx

; 196  : 
; 197  : 		SPR_DrawAdditive( i, x, y, NULL );

	push	0
	mov	eax, DWORD PTR _y$3[ebp]
	push	eax
	mov	ecx, DWORD PTR _x$4[ebp]
	push	ecx
	mov	edx, DWORD PTR _i$2[ebp]
	push	edx
	call	DWORD PTR ?gEngfuncs@@3Ucl_enginefuncs_s@@A+28
	add	esp, 16					; 00000010H
$LN11@Redraw:

; 198  : 	}
; 199  : 
; 200  :  	return 1;

	mov	eax, 1

; 201  : }

	pop	edi
	pop	esi
	pop	ebx
	mov	esp, ebp
	pop	ebp
	ret	8
?Redraw@CHud@@QAEHMH@Z ENDP				; CHud::Redraw
_TEXT	ENDS
; Function compile flags: /Odtp /ZI
; File d:\!diffusion 2020\source code 2022\client-server\client\hud_redraw.cpp
;	COMDAT ?Think@CHud@@QAEXXZ
_TEXT	SEGMENT
$T1 = -388						; size = 12
$T2 = -376						; size = 12
$T3 = -364						; size = 12
$T4 = -352						; size = 12
$T5 = -340						; size = 12
$T6 = -328						; size = 12
$T7 = -316						; size = 12
$T8 = -304						; size = 12
$T9 = -292						; size = 12
_breath$10 = -216					; size = 172
_BreathOrg$11 = -44					; size = 12
_forw$12 = -32						; size = 12
_PlayerAng$13 = -20					; size = 12
_pList$ = -8						; size = 4
_this$ = -4						; size = 4
?Think@CHud@@QAEXXZ PROC				; CHud::Think, COMDAT
; _this$ = ecx

; 75   : {

	push	ebp
	mov	ebp, esp
	sub	esp, 388				; 00000184H
	push	ebx
	push	esi
	push	edi
	mov	DWORD PTR _this$[ebp], ecx

; 76   : 	// diffusion - hud_fontscale quick change support
; 77   : 	m_scrinfo.iSize = sizeof( m_scrinfo );

	mov	eax, DWORD PTR _this$[ebp]
	mov	DWORD PTR [eax+8432], 532		; 00000214H

; 78   : 	GetScreenInfo( &m_scrinfo );

	mov	eax, DWORD PTR _this$[ebp]
	add	eax, 8432				; 000020f0H
	push	eax
	call	DWORD PTR ?gEngfuncs@@3Ucl_enginefuncs_s@@A+48
	add	esp, 4

; 79   : 	
; 80   : 	HUDLIST *pList = m_pHudList;

	mov	eax, DWORD PTR _this$[ebp]
	mov	ecx, DWORD PTR [eax]
	mov	DWORD PTR _pList$[ebp], ecx
$LN2@Think:

; 81   : 
; 82   : 	while( pList )

	cmp	DWORD PTR _pList$[ebp], 0
	je	SHORT $LN3@Think

; 83   : 	{
; 84   : 		if( pList->p->m_iFlags & HUD_ACTIVE )

	mov	eax, DWORD PTR _pList$[ebp]
	mov	ecx, DWORD PTR [eax]
	mov	edx, DWORD PTR [ecx+4]
	and	edx, 1
	je	SHORT $LN4@Think

; 85   : 			pList->p->Think();

	mov	eax, DWORD PTR _pList$[ebp]
	mov	ecx, DWORD PTR [eax]
	mov	edx, DWORD PTR _pList$[ebp]
	mov	eax, DWORD PTR [ecx]
	mov	ecx, DWORD PTR [edx]
	mov	edx, DWORD PTR [eax+16]
	call	edx
$LN4@Think:

; 86   : 		pList = pList->pNext;

	mov	eax, DWORD PTR _pList$[ebp]
	mov	ecx, DWORD PTR [eax+4]
	mov	DWORD PTR _pList$[ebp], ecx

; 87   : 	}

	jmp	SHORT $LN2@Think
$LN3@Think:

; 88   : 
; 89   : 	// think about default fov
; 90   : 	if( m_flFOV == 0.0f )

	mov	eax, DWORD PTR _this$[ebp]
	movss	xmm0, DWORD PTR [eax+80]
	ucomiss	xmm0, DWORD PTR __real@00000000
	lahf
	test	ah, 68					; 00000044H
	jp	SHORT $LN5@Think

; 91   : 	{
; 92   : 		// only let players adjust up in fov,  and only if they are not overriden by something else
; 93   : //		m_iFOV = max( default_fov->value, 90 );  
; 94   : 		m_flFOV = default_fov->value;

	mov	eax, DWORD PTR _this$[ebp]
	mov	ecx, DWORD PTR [eax+96]
	mov	edx, DWORD PTR _this$[ebp]
	mov	eax, DWORD PTR [ecx+12]
	mov	DWORD PTR [edx+80], eax
$LN5@Think:

; 95   : 	}
; 96   : 
; 97   : 	SuitIsOffline();

	call	?SuitIsOffline@@YAXXZ			; SuitIsOffline

; 98   : 
; 99   : 	if( m_StatusIconsAchievement.bAchievements )

	mov	eax, DWORD PTR _this$[ebp]
	movzx	ecx, BYTE PTR [eax+2032]
	test	ecx, ecx
	je	SHORT $LN6@Think

; 100  : 		m_StatusIconsAchievement.CheckAchievement();

	mov	ecx, DWORD PTR _this$[ebp]
	add	ecx, 2004				; 000007d4H
	call	?CheckAchievement@CHudAchievement@@QAEXXZ ; CHudAchievement::CheckAchievement
$LN6@Think:

; 101  : 
; 102  : 	// make breathing effect
; 103  : 	static float lastbreathtime = 0;
; 104  : 	if( lastbreathtime > tr.time )

	cvtss2sd xmm0, DWORD PTR ?lastbreathtime@?1??Think@CHud@@QAEXXZ@4MA
	comisd	xmm0, QWORD PTR ?tr@@3Uref_globals_t@@A+8
	jbe	SHORT $LN7@Think

; 105  : 		lastbreathtime = tr.time;

	cvtsd2ss xmm0, QWORD PTR ?tr@@3Uref_globals_t@@A+8
	movss	DWORD PTR ?lastbreathtime@?1??Think@CHud@@QAEXXZ@4MA, xmm0
$LN7@Think:

; 106  : 	if( gHUD.BreathingEffect && (tr.time != tr.oldtime) && (tr.time > lastbreathtime + 3) )

	movzx	eax, BYTE PTR ?gHUD@@3VCHud@@A+136
	test	eax, eax
	je	$LN8@Think
	movsd	xmm0, QWORD PTR ?tr@@3Uref_globals_t@@A+8
	ucomisd	xmm0, QWORD PTR ?tr@@3Uref_globals_t@@A+16
	lahf
	test	ah, 68					; 00000044H
	jnp	$LN8@Think
	movss	xmm0, DWORD PTR ?lastbreathtime@?1??Think@CHud@@QAEXXZ@4MA
	addss	xmm0, DWORD PTR __real@40400000
	cvtss2sd xmm0, xmm0
	movsd	xmm1, QWORD PTR ?tr@@3Uref_globals_t@@A+8
	comisd	xmm1, xmm0
	jbe	$LN8@Think

; 107  : 	{
; 108  : 		Vector PlayerAng = tr.viewparams.viewangles;

	push	OFFSET ?tr@@3Uref_globals_t@@A+5830668
	lea	ecx, DWORD PTR _PlayerAng$13[ebp]
	call	??0Vector@@QAE@ABV0@@Z			; Vector::Vector

; 109  : 		Vector forw;

	lea	ecx, DWORD PTR _forw$12[ebp]
	call	??0Vector@@QAE@XZ			; Vector::Vector

; 110  : 		gEngfuncs.pfnAngleVectors( PlayerAng, forw, NULL, NULL );

	push	0
	push	0
	lea	ecx, DWORD PTR _forw$12[ebp]
	call	??BVector@@QAEPAMXZ			; Vector::operator float *
	push	eax
	lea	ecx, DWORD PTR _PlayerAng$13[ebp]
	call	??BVector@@QAEPAMXZ			; Vector::operator float *
	push	eax
	call	DWORD PTR ?gEngfuncs@@3Ucl_enginefuncs_s@@A+96
	add	esp, 16					; 00000010H

; 111  : 		Vector BreathOrg = gEngfuncs.GetLocalPlayer()->origin + Vector(0,0,20) + forw * 20;

	push	ecx
	movss	xmm0, DWORD PTR __real@41a00000
	movss	DWORD PTR [esp], xmm0
	lea	eax, DWORD PTR $T7[ebp]
	push	eax
	lea	ecx, DWORD PTR _forw$12[ebp]
	call	??DVector@@QBE?AV0@M@Z			; Vector::operator*
	push	eax
	lea	ecx, DWORD PTR _BreathOrg$11[ebp]
	push	ecx
	push	ecx
	movss	xmm0, DWORD PTR __real@41a00000
	movss	DWORD PTR [esp], xmm0
	push	ecx
	xorps	xmm0, xmm0
	movss	DWORD PTR [esp], xmm0
	push	ecx
	xorps	xmm0, xmm0
	movss	DWORD PTR [esp], xmm0
	lea	ecx, DWORD PTR $T9[ebp]
	call	??0Vector@@QAE@MMM@Z			; Vector::Vector
	push	eax
	lea	edx, DWORD PTR $T8[ebp]
	push	edx
	call	DWORD PTR ?gEngfuncs@@3Ucl_enginefuncs_s@@A+204
	add	eax, 2888				; 00000b48H
	mov	ecx, eax
	call	??HVector@@QBE?AV0@ABV0@@Z		; Vector::operator+
	mov	ecx, eax
	call	??HVector@@QBE?AV0@ABV0@@Z		; Vector::operator+

; 112  : 
; 113  : 		CQuakePart breath;

	lea	ecx, DWORD PTR _breath$10[ebp]
	call	??0CQuakePart@@QAE@XZ

; 114  : 		breath.m_vecOrigin = BreathOrg;

	mov	eax, DWORD PTR _BreathOrg$11[ebp]
	mov	DWORD PTR _breath$10[ebp], eax
	mov	ecx, DWORD PTR _BreathOrg$11[ebp+4]
	mov	DWORD PTR _breath$10[ebp+4], ecx
	mov	edx, DWORD PTR _BreathOrg$11[ebp+8]
	mov	DWORD PTR _breath$10[ebp+8], edx

; 115  : 		breath.m_vecVelocity = gEngfuncs.GetLocalPlayer()->curstate.basevelocity * 0.75 + gEngfuncs.GetLocalPlayer()->curstate.velocity * 0.75 + Vector(0,0,5);

	push	ecx
	movss	xmm0, DWORD PTR __real@40a00000
	movss	DWORD PTR [esp], xmm0
	push	ecx
	xorps	xmm0, xmm0
	movss	DWORD PTR [esp], xmm0
	push	ecx
	xorps	xmm0, xmm0
	movss	DWORD PTR [esp], xmm0
	lea	ecx, DWORD PTR $T3[ebp]
	call	??0Vector@@QAE@MMM@Z			; Vector::Vector
	push	eax
	lea	eax, DWORD PTR $T2[ebp]
	push	eax
	push	ecx
	movss	xmm0, DWORD PTR __real@3f400000
	movss	DWORD PTR [esp], xmm0
	lea	ecx, DWORD PTR $T5[ebp]
	push	ecx
	call	DWORD PTR ?gEngfuncs@@3Ucl_enginefuncs_s@@A+204
	add	eax, 800				; 00000320H
	mov	ecx, eax
	call	??DVector@@QBE?AV0@M@Z			; Vector::operator*
	push	eax
	lea	edx, DWORD PTR $T4[ebp]
	push	edx
	push	ecx
	movss	xmm0, DWORD PTR __real@3f400000
	movss	DWORD PTR [esp], xmm0
	lea	eax, DWORD PTR $T6[ebp]
	push	eax
	call	DWORD PTR ?gEngfuncs@@3Ucl_enginefuncs_s@@A+204
	add	eax, 876				; 0000036cH
	mov	ecx, eax
	call	??DVector@@QBE?AV0@M@Z			; Vector::operator*
	mov	ecx, eax
	call	??HVector@@QBE?AV0@ABV0@@Z		; Vector::operator+
	mov	ecx, eax
	call	??HVector@@QBE?AV0@ABV0@@Z		; Vector::operator+
	mov	ecx, DWORD PTR [eax]
	mov	DWORD PTR _breath$10[ebp+24], ecx
	mov	edx, DWORD PTR [eax+4]
	mov	DWORD PTR _breath$10[ebp+28], edx
	mov	eax, DWORD PTR [eax+8]
	mov	DWORD PTR _breath$10[ebp+32], eax

; 116  : 		breath.m_vecAccel = g_vecZero;

	mov	eax, DWORD PTR ?g_vecZero@@3VVector@@B
	mov	DWORD PTR _breath$10[ebp+36], eax
	mov	ecx, DWORD PTR ?g_vecZero@@3VVector@@B+4
	mov	DWORD PTR _breath$10[ebp+40], ecx
	mov	edx, DWORD PTR ?g_vecZero@@3VVector@@B+8
	mov	DWORD PTR _breath$10[ebp+44], edx

; 117  : 		breath.m_vecColor = Vector(1,1,1);

	push	ecx
	movss	xmm0, DWORD PTR __real@3f800000
	movss	DWORD PTR [esp], xmm0
	push	ecx
	movss	xmm0, DWORD PTR __real@3f800000
	movss	DWORD PTR [esp], xmm0
	push	ecx
	movss	xmm0, DWORD PTR __real@3f800000
	movss	DWORD PTR [esp], xmm0
	lea	ecx, DWORD PTR $T1[ebp]
	call	??0Vector@@QAE@MMM@Z			; Vector::Vector
	mov	ecx, DWORD PTR [eax]
	mov	DWORD PTR _breath$10[ebp+48], ecx
	mov	edx, DWORD PTR [eax+4]
	mov	DWORD PTR _breath$10[ebp+52], edx
	mov	eax, DWORD PTR [eax+8]
	mov	DWORD PTR _breath$10[ebp+56], eax

; 118  : 		breath.m_vecColorVelocity = g_vecZero;

	mov	eax, DWORD PTR ?g_vecZero@@3VVector@@B
	mov	DWORD PTR _breath$10[ebp+60], eax
	mov	ecx, DWORD PTR ?g_vecZero@@3VVector@@B+4
	mov	DWORD PTR _breath$10[ebp+64], ecx
	mov	edx, DWORD PTR ?g_vecZero@@3VVector@@B+8
	mov	DWORD PTR _breath$10[ebp+68], edx

; 119  : 		breath.m_flAlpha = 0.25;

	movss	xmm0, DWORD PTR __real@3e800000
	movss	DWORD PTR _breath$10[ebp+72], xmm0

; 120  : 		breath.m_flAlphaVelocity = -0.25;

	movss	xmm0, DWORD PTR __real@be800000
	movss	DWORD PTR _breath$10[ebp+76], xmm0

; 121  : 		breath.m_flRadius = 25;

	movss	xmm0, DWORD PTR __real@41c80000
	movss	DWORD PTR _breath$10[ebp+80], xmm0

; 122  : 		breath.m_flRadiusVelocity = 0.1;

	movss	xmm0, DWORD PTR __real@3dcccccd
	movss	DWORD PTR _breath$10[ebp+84], xmm0

; 123  : 		breath.m_flLength = 1;

	movss	xmm0, DWORD PTR __real@3f800000
	movss	DWORD PTR _breath$10[ebp+88], xmm0

; 124  : 		breath.m_flLengthVelocity = 0;

	xorps	xmm0, xmm0
	movss	DWORD PTR _breath$10[ebp+92], xmm0

; 125  : 		breath.m_flRotation = RANDOM_LONG( 0, 360 );

	push	360					; 00000168H
	push	0
	call	DWORD PTR ?gEngfuncs@@3Ucl_enginefuncs_s@@A+272
	add	esp, 8
	cvtsi2ss xmm0, eax
	movss	DWORD PTR _breath$10[ebp+96], xmm0

; 126  : 		breath.m_flRotationVelocity = RANDOM_LONG(-50,50);

	push	50					; 00000032H
	push	-50					; ffffffceH
	call	DWORD PTR ?gEngfuncs@@3Ucl_enginefuncs_s@@A+272
	add	esp, 8
	cvtsi2ss xmm0, eax
	movss	DWORD PTR _breath$10[ebp+100], xmm0

; 127  : 		breath.m_flDistance = 0;

	xorps	xmm0, xmm0
	movss	DWORD PTR _breath$10[ebp+108], xmm0

; 128  : 		breath.ParticleType = TYPE_SMOKE;

	mov	DWORD PTR _breath$10[ebp+144], 3

; 129  : 		breath.EntIndex = 0;

	mov	DWORD PTR _breath$10[ebp+168], 0

; 130  : 		g_pParticles.AddParticle( &breath, g_pParticles.m_hSmoke, FPART_NOTWATER );

	push	128					; 00000080H
	mov	eax, DWORD PTR ?g_pParticles@@3VCQuakePartSystem@@A+2911252
	push	eax
	lea	ecx, DWORD PTR _breath$10[ebp]
	push	ecx
	mov	ecx, OFFSET ?g_pParticles@@3VCQuakePartSystem@@A ; g_pParticles
	call	?AddParticle@CQuakePartSystem@@QAE_NPAVCQuakePart@@HH@Z ; CQuakePartSystem::AddParticle

; 131  : 
; 132  : 		lastbreathtime = tr.time;

	cvtsd2ss xmm0, QWORD PTR ?tr@@3Uref_globals_t@@A+8
	movss	DWORD PTR ?lastbreathtime@?1??Think@CHud@@QAEXXZ@4MA, xmm0
$LN8@Think:

; 133  : 	}
; 134  : }

	pop	edi
	pop	esi
	pop	ebx
	mov	esp, ebp
	pop	ebp
	ret	0
?Think@CHud@@QAEXXZ ENDP				; CHud::Think
_TEXT	ENDS
; Function compile flags: /Odtp /ZI
; File d:\!diffusion 2020\source code 2022\client-server\client\hud.h
;	COMDAT ?GetSpriteRect@CHud@@QAEAAUwrect_s@@H@Z
_TEXT	SEGMENT
_this$ = -4						; size = 4
_index$ = 8						; size = 4
?GetSpriteRect@CHud@@QAEAAUwrect_s@@H@Z PROC		; CHud::GetSpriteRect, COMDAT
; _this$ = ecx

; 952  : 	wrect_t& GetSpriteRect( int index ) { return m_rgrcRects[index]; }

	push	ebp
	mov	ebp, esp
	sub	esp, 68					; 00000044H
	push	ebx
	push	esi
	push	edi
	mov	DWORD PTR _this$[ebp], ecx
	mov	eax, DWORD PTR _index$[ebp]
	shl	eax, 4
	mov	ecx, DWORD PTR _this$[ebp]
	add	eax, DWORD PTR [ecx+232]
	pop	edi
	pop	esi
	pop	ebx
	mov	esp, ebp
	pop	ebp
	ret	4
?GetSpriteRect@CHud@@QAEAAUwrect_s@@H@Z ENDP		; CHud::GetSpriteRect
_TEXT	ENDS
; Function compile flags: /Odtp /ZI
; File d:\!diffusion 2020\source code 2022\client-server\client\hud.h
;	COMDAT ?GetSprite@CHud@@QAEHH@Z
_TEXT	SEGMENT
tv68 = -72						; size = 4
_this$ = -4						; size = 4
_index$ = 8						; size = 4
?GetSprite@CHud@@QAEHH@Z PROC				; CHud::GetSprite, COMDAT
; _this$ = ecx

; 951  : 	SpriteHandle GetSprite( int index ) { return (index < 0) ? 0 : m_rghSprites[index]; }

	push	ebp
	mov	ebp, esp
	sub	esp, 72					; 00000048H
	push	ebx
	push	esi
	push	edi
	mov	DWORD PTR _this$[ebp], ecx
	cmp	DWORD PTR _index$[ebp], 0
	jge	SHORT $LN3@GetSprite
	mov	DWORD PTR tv68[ebp], 0
	jmp	SHORT $LN4@GetSprite
$LN3@GetSprite:
	mov	eax, DWORD PTR _this$[ebp]
	mov	ecx, DWORD PTR [eax+228]
	mov	edx, DWORD PTR _index$[ebp]
	mov	eax, DWORD PTR [ecx+edx*4]
	mov	DWORD PTR tv68[ebp], eax
$LN4@GetSprite:
	mov	eax, DWORD PTR tv68[ebp]
	pop	edi
	pop	esi
	pop	ebx
	mov	esp, ebp
	pop	ebp
	ret	4
?GetSprite@CHud@@QAEHH@Z ENDP				; CHud::GetSprite
_TEXT	ENDS
; Function compile flags: /Odtp /ZI
; File d:\!diffusion 2020\source code 2022\client-server\client\hud_redraw.cpp
;	COMDAT ?GetNumWidth@CHud@@QAEHHH@Z
_TEXT	SEGMENT
_this$ = -4						; size = 4
_iNumber$ = 8						; size = 4
_iFlags$ = 12						; size = 4
?GetNumWidth@CHud@@QAEHHH@Z PROC			; CHud::GetNumWidth, COMDAT
; _this$ = ecx

; 308  : {

	push	ebp
	mov	ebp, esp
	sub	esp, 68					; 00000044H
	push	ebx
	push	esi
	push	edi
	mov	DWORD PTR _this$[ebp], ecx

; 309  : 	if( iFlags & ( DHN_3DIGITS ))

	mov	eax, DWORD PTR _iFlags$[ebp]
	and	eax, 4
	je	SHORT $LN2@GetNumWidt

; 310  : 		return 3;

	mov	eax, 3
	jmp	SHORT $LN1@GetNumWidt
$LN2@GetNumWidt:

; 311  : 
; 312  : 	if( iFlags & ( DHN_2DIGITS ))

	mov	eax, DWORD PTR _iFlags$[ebp]
	and	eax, 2
	je	SHORT $LN3@GetNumWidt

; 313  : 		return 2;

	mov	eax, 2
	jmp	SHORT $LN1@GetNumWidt
$LN3@GetNumWidt:

; 314  : 
; 315  : 	if( iNumber <= 0 )

	cmp	DWORD PTR _iNumber$[ebp], 0
	jg	SHORT $LN4@GetNumWidt

; 316  : 	{
; 317  : 		if( iFlags & ( DHN_DRAWZERO ))

	mov	eax, DWORD PTR _iFlags$[ebp]
	and	eax, 1
	je	SHORT $LN5@GetNumWidt

; 318  : 			return 1;

	mov	eax, 1
	jmp	SHORT $LN1@GetNumWidt
$LN5@GetNumWidt:

; 319  : 		return 0;

	xor	eax, eax
	jmp	SHORT $LN1@GetNumWidt
$LN4@GetNumWidt:

; 320  : 	}
; 321  : 
; 322  : 	if( iNumber < 10 )

	cmp	DWORD PTR _iNumber$[ebp], 10		; 0000000aH
	jge	SHORT $LN6@GetNumWidt

; 323  : 		return 1;

	mov	eax, 1
	jmp	SHORT $LN1@GetNumWidt
$LN6@GetNumWidt:

; 324  : 
; 325  : 	if( iNumber < 100 )

	cmp	DWORD PTR _iNumber$[ebp], 100		; 00000064H
	jge	SHORT $LN7@GetNumWidt

; 326  : 		return 2;

	mov	eax, 2
	jmp	SHORT $LN1@GetNumWidt
$LN7@GetNumWidt:

; 327  : 
; 328  : 	return 3;

	mov	eax, 3
$LN1@GetNumWidt:

; 329  : }

	pop	edi
	pop	esi
	pop	ebx
	mov	esp, ebp
	pop	ebp
	ret	8
?GetNumWidth@CHud@@QAEHHH@Z ENDP			; CHud::GetNumWidth
_TEXT	ENDS
; Function compile flags: /Odtp /ZI
; File d:\!diffusion 2020\source code 2022\client-server\client\hud_redraw.cpp
;	COMDAT ?DrawHudNumberString@CHud@@QAEHHHHHHHH@Z
_TEXT	SEGMENT
_szString$ = -40					; size = 32
_this$ = -8						; size = 4
__$ArrayPad$ = -4					; size = 4
_xpos$ = 8						; size = 4
_ypos$ = 12						; size = 4
_iMinX$ = 16						; size = 4
_iNumber$ = 20						; size = 4
_r$ = 24						; size = 4
_g$ = 28						; size = 4
_b$ = 32						; size = 4
?DrawHudNumberString@CHud@@QAEHHHHHHHH@Z PROC		; CHud::DrawHudNumberString, COMDAT
; _this$ = ecx

; 219  : {

	push	ebp
	mov	ebp, esp
	sub	esp, 104				; 00000068H
	mov	eax, DWORD PTR ___security_cookie
	xor	eax, ebp
	mov	DWORD PTR __$ArrayPad$[ebp], eax
	push	ebx
	push	esi
	push	edi
	mov	DWORD PTR _this$[ebp], ecx

; 220  : 	char szString[32];
; 221  : 
; 222  : 	Q_snprintf( szString, sizeof( szString ), "%d", iNumber );

	mov	eax, DWORD PTR _iNumber$[ebp]
	push	eax
	push	OFFSET ??_C@_02DPKJAMEF@?$CFd?$AA@
	push	32					; 00000020H
	lea	ecx, DWORD PTR _szString$[ebp]
	push	ecx
	call	?Q_snprintf@@YAHPADIPBDZZ		; Q_snprintf
	add	esp, 16					; 00000010H

; 223  : 	return DrawHudStringReverse( xpos, ypos, iMinX, szString, r, g, b );

	mov	eax, DWORD PTR _b$[ebp]
	push	eax
	mov	ecx, DWORD PTR _g$[ebp]
	push	ecx
	mov	edx, DWORD PTR _r$[ebp]
	push	edx
	lea	eax, DWORD PTR _szString$[ebp]
	push	eax
	mov	ecx, DWORD PTR _iMinX$[ebp]
	push	ecx
	mov	edx, DWORD PTR _ypos$[ebp]
	push	edx
	mov	eax, DWORD PTR _xpos$[ebp]
	push	eax
	mov	ecx, DWORD PTR _this$[ebp]
	call	?DrawHudStringReverse@CHud@@QAEHHHHPADHHH@Z ; CHud::DrawHudStringReverse

; 224  : 
; 225  : }

	pop	edi
	pop	esi
	pop	ebx
	mov	ecx, DWORD PTR __$ArrayPad$[ebp]
	xor	ecx, ebp
	call	@__security_check_cookie@4
	mov	esp, ebp
	pop	ebp
	ret	28					; 0000001cH
?DrawHudNumberString@CHud@@QAEHHHHHHHH@Z ENDP		; CHud::DrawHudNumberString
_TEXT	ENDS
; Function compile flags: /Odtp /ZI
; File d:\!diffusion 2020\source code 2022\client-server\client\hud_redraw.cpp
;	COMDAT ?DrawHudStringReverse@CHud@@QAEHHHHPADHHH@Z
_TEXT	SEGMENT
_next$1 = -12						; size = 4
_szIt$ = -8						; size = 4
_this$ = -4						; size = 4
_xpos$ = 8						; size = 4
_ypos$ = 12						; size = 4
_iMinX$ = 16						; size = 4
_szString$ = 20						; size = 4
_r$ = 24						; size = 4
_g$ = 28						; size = 4
_b$ = 32						; size = 4
?DrawHudStringReverse@CHud@@QAEHHHHPADHHH@Z PROC	; CHud::DrawHudStringReverse, COMDAT
; _this$ = ecx

; 228  : {

	push	ebp
	mov	ebp, esp
	sub	esp, 76					; 0000004cH
	push	ebx
	push	esi
	push	edi
	mov	DWORD PTR _this$[ebp], ecx

; 229  : 	// find the end of the string
; 230  : 	byte *szIt;
; 231  : 	for( szIt = (byte *)szString; *szIt != 0; szIt++ )

	mov	eax, DWORD PTR _szString$[ebp]
	mov	DWORD PTR _szIt$[ebp], eax
	jmp	SHORT $LN4@DrawHudStr
$LN2@DrawHudStr:
	mov	eax, DWORD PTR _szIt$[ebp]
	add	eax, 1
	mov	DWORD PTR _szIt$[ebp], eax
$LN4@DrawHudStr:
	mov	eax, DWORD PTR _szIt$[ebp]
	movzx	ecx, BYTE PTR [eax]
	test	ecx, ecx
	je	SHORT $LN3@DrawHudStr

; 232  : 	{
; 233  : 		// we should count the length?		
; 234  : 	}

	jmp	SHORT $LN2@DrawHudStr
$LN3@DrawHudStr:

; 235  : 
; 236  : 	// iterate throug the string in reverse
; 237  : 	for( szIt--; szIt != (byte *)(szString - 1); szIt-- )	

	mov	eax, DWORD PTR _szIt$[ebp]
	sub	eax, 1
	mov	DWORD PTR _szIt$[ebp], eax
	jmp	SHORT $LN7@DrawHudStr
$LN5@DrawHudStr:
	mov	eax, DWORD PTR _szIt$[ebp]
	sub	eax, 1
	mov	DWORD PTR _szIt$[ebp], eax
$LN7@DrawHudStr:
	mov	eax, DWORD PTR _szString$[ebp]
	sub	eax, 1
	cmp	DWORD PTR _szIt$[ebp], eax
	je	SHORT $LN6@DrawHudStr

; 238  : 	{
; 239  : 		int next = xpos - gHUD.m_scrinfo.charWidths[*szIt]; // variable-width fonts look cool

	mov	eax, DWORD PTR _szIt$[ebp]
	movzx	ecx, BYTE PTR [eax]
	movsx	edx, WORD PTR ?gHUD@@3VCHud@@A[ecx*2+8452]
	mov	eax, DWORD PTR _xpos$[ebp]
	sub	eax, edx
	mov	DWORD PTR _next$1[ebp], eax

; 240  : 		if( next < iMinX )

	mov	eax, DWORD PTR _next$1[ebp]
	cmp	eax, DWORD PTR _iMinX$[ebp]
	jge	SHORT $LN8@DrawHudStr

; 241  : 			return xpos;

	mov	eax, DWORD PTR _xpos$[ebp]
	jmp	SHORT $LN1@DrawHudStr
$LN8@DrawHudStr:

; 242  : 		xpos = next;

	mov	eax, DWORD PTR _next$1[ebp]
	mov	DWORD PTR _xpos$[ebp], eax

; 243  : 
; 244  : 		TextMessageDrawChar( xpos, ypos, *szIt, r, g, b );

	mov	eax, DWORD PTR _b$[ebp]
	push	eax
	mov	ecx, DWORD PTR _g$[ebp]
	push	ecx
	mov	edx, DWORD PTR _r$[ebp]
	push	edx
	mov	eax, DWORD PTR _szIt$[ebp]
	movzx	ecx, BYTE PTR [eax]
	push	ecx
	mov	edx, DWORD PTR _ypos$[ebp]
	push	edx
	mov	eax, DWORD PTR _xpos$[ebp]
	push	eax
	call	DWORD PTR ?gEngfuncs@@3Ucl_enginefuncs_s@@A+104
	add	esp, 24					; 00000018H

; 245  : 	}

	jmp	SHORT $LN5@DrawHudStr
$LN6@DrawHudStr:

; 246  : 	return xpos;

	mov	eax, DWORD PTR _xpos$[ebp]
$LN1@DrawHudStr:

; 247  : }

	pop	edi
	pop	esi
	pop	ebx
	mov	esp, ebp
	pop	ebp
	ret	28					; 0000001cH
?DrawHudStringReverse@CHud@@QAEHHHHPADHHH@Z ENDP	; CHud::DrawHudStringReverse
_TEXT	ENDS
; Function compile flags: /Odtp /ZI
; File d:\!diffusion 2020\source code 2022\client-server\client\hud_redraw.cpp
;	COMDAT ?DrawHudString@CHud@@QAEHHHHPADHHH@Z
_TEXT	SEGMENT
_next$1 = -12						; size = 4
_szIt$2 = -8						; size = 4
_this$ = -4						; size = 4
_xpos$ = 8						; size = 4
_ypos$ = 12						; size = 4
_iMaxX$ = 16						; size = 4
_szString$ = 20						; size = 4
_r$ = 24						; size = 4
_g$ = 28						; size = 4
_b$ = 32						; size = 4
?DrawHudString@CHud@@QAEHHHHPADHHH@Z PROC		; CHud::DrawHudString, COMDAT
; _this$ = ecx

; 204  : {

	push	ebp
	mov	ebp, esp
	sub	esp, 76					; 0000004cH
	push	ebx
	push	esi
	push	edi
	mov	DWORD PTR _this$[ebp], ecx

; 205  : 	// draw the string until we hit the null character or a newline character
; 206  : 	for( byte *szIt = (byte *)szString; *szIt != 0 && *szIt != '\n'; szIt++ )

	mov	eax, DWORD PTR _szString$[ebp]
	mov	DWORD PTR _szIt$2[ebp], eax
	jmp	SHORT $LN4@DrawHudStr
$LN2@DrawHudStr:
	mov	eax, DWORD PTR _szIt$2[ebp]
	add	eax, 1
	mov	DWORD PTR _szIt$2[ebp], eax
$LN4@DrawHudStr:
	mov	eax, DWORD PTR _szIt$2[ebp]
	movzx	ecx, BYTE PTR [eax]
	test	ecx, ecx
	je	SHORT $LN3@DrawHudStr
	mov	eax, DWORD PTR _szIt$2[ebp]
	movzx	ecx, BYTE PTR [eax]
	cmp	ecx, 10					; 0000000aH
	je	SHORT $LN3@DrawHudStr

; 207  : 	{
; 208  : 		int next = xpos + gHUD.m_scrinfo.charWidths[*szIt]; // variable-width fonts look cool

	mov	eax, DWORD PTR _szIt$2[ebp]
	movzx	ecx, BYTE PTR [eax]
	movsx	edx, WORD PTR ?gHUD@@3VCHud@@A[ecx*2+8452]
	add	edx, DWORD PTR _xpos$[ebp]
	mov	DWORD PTR _next$1[ebp], edx

; 209  : 		if( next > iMaxX )

	mov	eax, DWORD PTR _next$1[ebp]
	cmp	eax, DWORD PTR _iMaxX$[ebp]
	jle	SHORT $LN5@DrawHudStr

; 210  : 			return xpos;

	mov	eax, DWORD PTR _xpos$[ebp]
	jmp	SHORT $LN1@DrawHudStr
$LN5@DrawHudStr:

; 211  : 
; 212  : 		TextMessageDrawChar( xpos, ypos, *szIt, r, g, b );

	mov	eax, DWORD PTR _b$[ebp]
	push	eax
	mov	ecx, DWORD PTR _g$[ebp]
	push	ecx
	mov	edx, DWORD PTR _r$[ebp]
	push	edx
	mov	eax, DWORD PTR _szIt$2[ebp]
	movzx	ecx, BYTE PTR [eax]
	push	ecx
	mov	edx, DWORD PTR _ypos$[ebp]
	push	edx
	mov	eax, DWORD PTR _xpos$[ebp]
	push	eax
	call	DWORD PTR ?gEngfuncs@@3Ucl_enginefuncs_s@@A+104
	add	esp, 24					; 00000018H

; 213  : 		xpos = next;		

	mov	eax, DWORD PTR _next$1[ebp]
	mov	DWORD PTR _xpos$[ebp], eax

; 214  : 	}

	jmp	SHORT $LN2@DrawHudStr
$LN3@DrawHudStr:

; 215  : 	return xpos;

	mov	eax, DWORD PTR _xpos$[ebp]
$LN1@DrawHudStr:

; 216  : }

	pop	edi
	pop	esi
	pop	ebx
	mov	esp, ebp
	pop	ebp
	ret	28					; 0000001cH
?DrawHudString@CHud@@QAEHHHHPADHHH@Z ENDP		; CHud::DrawHudString
_TEXT	ENDS
; Function compile flags: /Odtp /ZI
; File d:\!diffusion 2020\source code 2022\client-server\client\hud_redraw.cpp
;	COMDAT ?DrawHudNumber@CHud@@QAEHHHHHHHH@Z
_TEXT	SEGMENT
_k$ = -12						; size = 4
_iWidth$ = -8						; size = 4
_this$ = -4						; size = 4
_x$ = 8							; size = 4
_y$ = 12						; size = 4
_iFlags$ = 16						; size = 4
_iNumber$ = 20						; size = 4
_r$ = 24						; size = 4
_g$ = 28						; size = 4
_b$ = 32						; size = 4
?DrawHudNumber@CHud@@QAEHHHHHHHH@Z PROC			; CHud::DrawHudNumber, COMDAT
; _this$ = ecx

; 250  : {

	push	ebp
	mov	ebp, esp
	sub	esp, 76					; 0000004cH
	push	ebx
	push	esi
	push	edi
	mov	DWORD PTR _this$[ebp], ecx

; 251  : 	int iWidth = GetSpriteRect( m_HUD_number_0 ).right - GetSpriteRect( m_HUD_number_0 ).left;

	mov	eax, DWORD PTR _this$[ebp]
	mov	ecx, DWORD PTR [eax+8980]
	push	ecx
	mov	ecx, DWORD PTR _this$[ebp]
	call	?GetSpriteRect@CHud@@QAEAAUwrect_s@@H@Z	; CHud::GetSpriteRect
	mov	esi, eax
	mov	edx, DWORD PTR _this$[ebp]
	mov	eax, DWORD PTR [edx+8980]
	push	eax
	mov	ecx, DWORD PTR _this$[ebp]
	call	?GetSpriteRect@CHud@@QAEAAUwrect_s@@H@Z	; CHud::GetSpriteRect
	mov	ecx, DWORD PTR [esi+4]
	sub	ecx, DWORD PTR [eax]
	mov	DWORD PTR _iWidth$[ebp], ecx

; 252  : 	int k;
; 253  : 	
; 254  : 	if( iNumber > 0 )

	cmp	DWORD PTR _iNumber$[ebp], 0
	jle	$LN2@DrawHudNum

; 255  : 	{
; 256  : 		// SPR_Draw 100's
; 257  : 		if( iNumber >= 100 )

	cmp	DWORD PTR _iNumber$[ebp], 100		; 00000064H
	jl	SHORT $LN4@DrawHudNum

; 258  : 		{
; 259  : 			k = iNumber/100;

	mov	eax, DWORD PTR _iNumber$[ebp]
	cdq
	mov	ecx, 100				; 00000064H
	idiv	ecx
	mov	DWORD PTR _k$[ebp], eax

; 260  : 			SPR_Set( GetSprite( m_HUD_number_0 + k ), r, g, b );

	mov	eax, DWORD PTR _b$[ebp]
	push	eax
	mov	ecx, DWORD PTR _g$[ebp]
	push	ecx
	mov	edx, DWORD PTR _r$[ebp]
	push	edx
	mov	eax, DWORD PTR _this$[ebp]
	mov	ecx, DWORD PTR [eax+8980]
	add	ecx, DWORD PTR _k$[ebp]
	push	ecx
	mov	ecx, DWORD PTR _this$[ebp]
	call	?GetSprite@CHud@@QAEHH@Z		; CHud::GetSprite
	push	eax
	call	DWORD PTR ?gEngfuncs@@3Ucl_enginefuncs_s@@A+16
	add	esp, 16					; 00000010H

; 261  : 			SPR_DrawAdditive( 0, x, y, &GetSpriteRect( m_HUD_number_0 + k ));

	mov	eax, DWORD PTR _this$[ebp]
	mov	ecx, DWORD PTR [eax+8980]
	add	ecx, DWORD PTR _k$[ebp]
	push	ecx
	mov	ecx, DWORD PTR _this$[ebp]
	call	?GetSpriteRect@CHud@@QAEAAUwrect_s@@H@Z	; CHud::GetSpriteRect
	push	eax
	mov	edx, DWORD PTR _y$[ebp]
	push	edx
	mov	eax, DWORD PTR _x$[ebp]
	push	eax
	push	0
	call	DWORD PTR ?gEngfuncs@@3Ucl_enginefuncs_s@@A+28
	add	esp, 16					; 00000010H

; 262  : 			x += iWidth;

	mov	eax, DWORD PTR _x$[ebp]
	add	eax, DWORD PTR _iWidth$[ebp]
	mov	DWORD PTR _x$[ebp], eax
	jmp	SHORT $LN5@DrawHudNum
$LN4@DrawHudNum:

; 263  : 		}
; 264  : 		else if( iFlags & ( DHN_3DIGITS ))

	mov	eax, DWORD PTR _iFlags$[ebp]
	and	eax, 4
	je	SHORT $LN5@DrawHudNum

; 265  : 		{
; 266  : 			x += iWidth;

	mov	eax, DWORD PTR _x$[ebp]
	add	eax, DWORD PTR _iWidth$[ebp]
	mov	DWORD PTR _x$[ebp], eax
$LN5@DrawHudNum:

; 267  : 		}
; 268  : 
; 269  : 		// SPR_Draw 10's
; 270  : 		if( iNumber >= 10 )

	cmp	DWORD PTR _iNumber$[ebp], 10		; 0000000aH
	jl	SHORT $LN7@DrawHudNum

; 271  : 		{
; 272  : 			k = (iNumber % 100) / 10;

	mov	eax, DWORD PTR _iNumber$[ebp]
	cdq
	mov	ecx, 100				; 00000064H
	idiv	ecx
	mov	eax, edx
	cdq
	mov	ecx, 10					; 0000000aH
	idiv	ecx
	mov	DWORD PTR _k$[ebp], eax

; 273  : 			SPR_Set( GetSprite( m_HUD_number_0 + k ), r, g, b );

	mov	eax, DWORD PTR _b$[ebp]
	push	eax
	mov	ecx, DWORD PTR _g$[ebp]
	push	ecx
	mov	edx, DWORD PTR _r$[ebp]
	push	edx
	mov	eax, DWORD PTR _this$[ebp]
	mov	ecx, DWORD PTR [eax+8980]
	add	ecx, DWORD PTR _k$[ebp]
	push	ecx
	mov	ecx, DWORD PTR _this$[ebp]
	call	?GetSprite@CHud@@QAEHH@Z		; CHud::GetSprite
	push	eax
	call	DWORD PTR ?gEngfuncs@@3Ucl_enginefuncs_s@@A+16
	add	esp, 16					; 00000010H

; 274  : 			SPR_DrawAdditive( 0, x, y, &GetSpriteRect( m_HUD_number_0 + k ));

	mov	eax, DWORD PTR _this$[ebp]
	mov	ecx, DWORD PTR [eax+8980]
	add	ecx, DWORD PTR _k$[ebp]
	push	ecx
	mov	ecx, DWORD PTR _this$[ebp]
	call	?GetSpriteRect@CHud@@QAEAAUwrect_s@@H@Z	; CHud::GetSpriteRect
	push	eax
	mov	edx, DWORD PTR _y$[ebp]
	push	edx
	mov	eax, DWORD PTR _x$[ebp]
	push	eax
	push	0
	call	DWORD PTR ?gEngfuncs@@3Ucl_enginefuncs_s@@A+28
	add	esp, 16					; 00000010H

; 275  : 			x += iWidth;

	mov	eax, DWORD PTR _x$[ebp]
	add	eax, DWORD PTR _iWidth$[ebp]
	mov	DWORD PTR _x$[ebp], eax
	jmp	SHORT $LN8@DrawHudNum
$LN7@DrawHudNum:

; 276  : 		}
; 277  : 		else if( iFlags & ( DHN_3DIGITS | DHN_2DIGITS ))

	mov	eax, DWORD PTR _iFlags$[ebp]
	and	eax, 6
	je	SHORT $LN8@DrawHudNum

; 278  : 		{
; 279  : 			x += iWidth;

	mov	eax, DWORD PTR _x$[ebp]
	add	eax, DWORD PTR _iWidth$[ebp]
	mov	DWORD PTR _x$[ebp], eax
$LN8@DrawHudNum:

; 280  : 		}
; 281  : 
; 282  : 		// SPR_Draw ones
; 283  : 		k = iNumber % 10;

	mov	eax, DWORD PTR _iNumber$[ebp]
	cdq
	mov	ecx, 10					; 0000000aH
	idiv	ecx
	mov	DWORD PTR _k$[ebp], edx

; 284  : 		SPR_Set( GetSprite( m_HUD_number_0 + k ), r, g, b );

	mov	eax, DWORD PTR _b$[ebp]
	push	eax
	mov	ecx, DWORD PTR _g$[ebp]
	push	ecx
	mov	edx, DWORD PTR _r$[ebp]
	push	edx
	mov	eax, DWORD PTR _this$[ebp]
	mov	ecx, DWORD PTR [eax+8980]
	add	ecx, DWORD PTR _k$[ebp]
	push	ecx
	mov	ecx, DWORD PTR _this$[ebp]
	call	?GetSprite@CHud@@QAEHH@Z		; CHud::GetSprite
	push	eax
	call	DWORD PTR ?gEngfuncs@@3Ucl_enginefuncs_s@@A+16
	add	esp, 16					; 00000010H

; 285  : 		SPR_DrawAdditive( 0,  x, y, &GetSpriteRect( m_HUD_number_0 + k ));

	mov	eax, DWORD PTR _this$[ebp]
	mov	ecx, DWORD PTR [eax+8980]
	add	ecx, DWORD PTR _k$[ebp]
	push	ecx
	mov	ecx, DWORD PTR _this$[ebp]
	call	?GetSpriteRect@CHud@@QAEAAUwrect_s@@H@Z	; CHud::GetSpriteRect
	push	eax
	mov	edx, DWORD PTR _y$[ebp]
	push	edx
	mov	eax, DWORD PTR _x$[ebp]
	push	eax
	push	0
	call	DWORD PTR ?gEngfuncs@@3Ucl_enginefuncs_s@@A+28
	add	esp, 16					; 00000010H

; 286  : 		x += iWidth;

	mov	eax, DWORD PTR _x$[ebp]
	add	eax, DWORD PTR _iWidth$[ebp]
	mov	DWORD PTR _x$[ebp], eax
	jmp	$LN3@DrawHudNum
$LN2@DrawHudNum:

; 287  : 	} 
; 288  : 	else if( iFlags & DHN_DRAWZERO ) 

	mov	eax, DWORD PTR _iFlags$[ebp]
	and	eax, 1
	je	SHORT $LN3@DrawHudNum

; 289  : 	{
; 290  : 		SPR_Set( GetSprite( m_HUD_number_0 ), r, g, b );

	mov	eax, DWORD PTR _b$[ebp]
	push	eax
	mov	ecx, DWORD PTR _g$[ebp]
	push	ecx
	mov	edx, DWORD PTR _r$[ebp]
	push	edx
	mov	eax, DWORD PTR _this$[ebp]
	mov	ecx, DWORD PTR [eax+8980]
	push	ecx
	mov	ecx, DWORD PTR _this$[ebp]
	call	?GetSprite@CHud@@QAEHH@Z		; CHud::GetSprite
	push	eax
	call	DWORD PTR ?gEngfuncs@@3Ucl_enginefuncs_s@@A+16
	add	esp, 16					; 00000010H

; 291  : 
; 292  : 		// SPR_Draw 100's
; 293  : 		if( iFlags & ( DHN_3DIGITS ))

	mov	eax, DWORD PTR _iFlags$[ebp]
	and	eax, 4
	je	SHORT $LN11@DrawHudNum

; 294  : 		{
; 295  : 			x += iWidth;

	mov	eax, DWORD PTR _x$[ebp]
	add	eax, DWORD PTR _iWidth$[ebp]
	mov	DWORD PTR _x$[ebp], eax
$LN11@DrawHudNum:

; 296  : 		}
; 297  : 
; 298  : 		if( iFlags & ( DHN_3DIGITS|DHN_2DIGITS ))

	mov	eax, DWORD PTR _iFlags$[ebp]
	and	eax, 6
	je	SHORT $LN12@DrawHudNum

; 299  : 			x += iWidth;

	mov	eax, DWORD PTR _x$[ebp]
	add	eax, DWORD PTR _iWidth$[ebp]
	mov	DWORD PTR _x$[ebp], eax
$LN12@DrawHudNum:

; 300  : 
; 301  : 		SPR_DrawAdditive( 0,  x, y, &GetSpriteRect( m_HUD_number_0 ));

	mov	eax, DWORD PTR _this$[ebp]
	mov	ecx, DWORD PTR [eax+8980]
	push	ecx
	mov	ecx, DWORD PTR _this$[ebp]
	call	?GetSpriteRect@CHud@@QAEAAUwrect_s@@H@Z	; CHud::GetSpriteRect
	push	eax
	mov	edx, DWORD PTR _y$[ebp]
	push	edx
	mov	eax, DWORD PTR _x$[ebp]
	push	eax
	push	0
	call	DWORD PTR ?gEngfuncs@@3Ucl_enginefuncs_s@@A+28
	add	esp, 16					; 00000010H

; 302  : 		x += iWidth;

	mov	eax, DWORD PTR _x$[ebp]
	add	eax, DWORD PTR _iWidth$[ebp]
	mov	DWORD PTR _x$[ebp], eax
$LN3@DrawHudNum:

; 303  : 	}
; 304  : 	return x;

	mov	eax, DWORD PTR _x$[ebp]

; 305  : }

	pop	edi
	pop	esi
	pop	ebx
	mov	esp, ebp
	pop	ebp
	ret	28					; 0000001cH
?DrawHudNumber@CHud@@QAEHHHHHHHH@Z ENDP			; CHud::DrawHudNumber
_TEXT	ENDS
; Function compile flags: /Odtp /ZI
; File d:\!diffusion 2020\source code 2022\client-server\game_shared\vector.h
;	COMDAT ??BVector@@QAEPAMXZ
_TEXT	SEGMENT
_this$ = -4						; size = 4
??BVector@@QAEPAMXZ PROC				; Vector::operator float *, COMDAT
; _this$ = ecx

; 247  : 	operator float *()				{ return &x; } // Vectors will now automatically convert to float * when needed

	push	ebp
	mov	ebp, esp
	sub	esp, 68					; 00000044H
	push	ebx
	push	esi
	push	edi
	mov	DWORD PTR _this$[ebp], ecx
	mov	eax, DWORD PTR _this$[ebp]
	pop	edi
	pop	esi
	pop	ebx
	mov	esp, ebp
	pop	ebp
	ret	0
??BVector@@QAEPAMXZ ENDP				; Vector::operator float *
_TEXT	ENDS
; Function compile flags: /Odtp /ZI
; File d:\!diffusion 2020\source code 2022\client-server\game_shared\vector.h
;	COMDAT ??DVector@@QBE?AV0@M@Z
_TEXT	SEGMENT
_this$ = -4						; size = 4
___$ReturnUdt$ = 8					; size = 4
_fl$ = 12						; size = 4
??DVector@@QBE?AV0@M@Z PROC				; Vector::operator*, COMDAT
; _this$ = ecx

; 162  : 	inline Vector operator*(float fl) const		{ return Vector(x*fl, y*fl, z*fl);	   }

	push	ebp
	mov	ebp, esp
	sub	esp, 68					; 00000044H
	push	ebx
	push	esi
	push	edi
	mov	DWORD PTR _this$[ebp], ecx
	mov	eax, DWORD PTR _this$[ebp]
	movss	xmm0, DWORD PTR [eax+8]
	mulss	xmm0, DWORD PTR _fl$[ebp]
	push	ecx
	movss	DWORD PTR [esp], xmm0
	mov	ecx, DWORD PTR _this$[ebp]
	movss	xmm0, DWORD PTR [ecx+4]
	mulss	xmm0, DWORD PTR _fl$[ebp]
	push	ecx
	movss	DWORD PTR [esp], xmm0
	mov	edx, DWORD PTR _this$[ebp]
	movss	xmm0, DWORD PTR [edx]
	mulss	xmm0, DWORD PTR _fl$[ebp]
	push	ecx
	movss	DWORD PTR [esp], xmm0
	mov	ecx, DWORD PTR ___$ReturnUdt$[ebp]
	call	??0Vector@@QAE@MMM@Z			; Vector::Vector
	mov	eax, DWORD PTR ___$ReturnUdt$[ebp]
	pop	edi
	pop	esi
	pop	ebx
	mov	esp, ebp
	pop	ebp
	ret	8
??DVector@@QBE?AV0@M@Z ENDP				; Vector::operator*
_TEXT	ENDS
; Function compile flags: /Odtp /ZI
; File d:\!diffusion 2020\source code 2022\client-server\game_shared\vector.h
;	COMDAT ??HVector@@QBE?AV0@ABV0@@Z
_TEXT	SEGMENT
_this$ = -4						; size = 4
___$ReturnUdt$ = 8					; size = 4
_v$ = 12						; size = 4
??HVector@@QBE?AV0@ABV0@@Z PROC				; Vector::operator+, COMDAT
; _this$ = ecx

; 158  : 	inline Vector operator+(const Vector& v) const	{ return Vector(x+v.x, y+v.y, z+v.z);	   }

	push	ebp
	mov	ebp, esp
	sub	esp, 68					; 00000044H
	push	ebx
	push	esi
	push	edi
	mov	DWORD PTR _this$[ebp], ecx
	mov	eax, DWORD PTR _this$[ebp]
	mov	ecx, DWORD PTR _v$[ebp]
	movss	xmm0, DWORD PTR [eax+8]
	addss	xmm0, DWORD PTR [ecx+8]
	push	ecx
	movss	DWORD PTR [esp], xmm0
	mov	edx, DWORD PTR _this$[ebp]
	mov	eax, DWORD PTR _v$[ebp]
	movss	xmm0, DWORD PTR [edx+4]
	addss	xmm0, DWORD PTR [eax+4]
	push	ecx
	movss	DWORD PTR [esp], xmm0
	mov	ecx, DWORD PTR _this$[ebp]
	mov	edx, DWORD PTR _v$[ebp]
	movss	xmm0, DWORD PTR [ecx]
	addss	xmm0, DWORD PTR [edx]
	push	ecx
	movss	DWORD PTR [esp], xmm0
	mov	ecx, DWORD PTR ___$ReturnUdt$[ebp]
	call	??0Vector@@QAE@MMM@Z			; Vector::Vector
	mov	eax, DWORD PTR ___$ReturnUdt$[ebp]
	pop	edi
	pop	esi
	pop	ebx
	mov	esp, ebp
	pop	ebp
	ret	8
??HVector@@QBE?AV0@ABV0@@Z ENDP				; Vector::operator+
_TEXT	ENDS
; Function compile flags: /Odtp /ZI
; File d:\!diffusion 2020\source code 2022\client-server\game_shared\vector.h
;	COMDAT ??0Vector@@QAE@ABV0@@Z
_TEXT	SEGMENT
_this$ = -4						; size = 4
_v$ = 8							; size = 4
??0Vector@@QAE@ABV0@@Z PROC				; Vector::Vector, COMDAT
; _this$ = ecx

; 145  : 	inline Vector(const Vector& v)		{ x = v.x; y = v.y; z = v.z;		   }

	push	ebp
	mov	ebp, esp
	sub	esp, 68					; 00000044H
	push	ebx
	push	esi
	push	edi
	mov	DWORD PTR _this$[ebp], ecx
	mov	eax, DWORD PTR _this$[ebp]
	mov	ecx, DWORD PTR _v$[ebp]
	mov	edx, DWORD PTR [ecx]
	mov	DWORD PTR [eax], edx
	mov	eax, DWORD PTR _this$[ebp]
	mov	ecx, DWORD PTR _v$[ebp]
	mov	edx, DWORD PTR [ecx+4]
	mov	DWORD PTR [eax+4], edx
	mov	eax, DWORD PTR _this$[ebp]
	mov	ecx, DWORD PTR _v$[ebp]
	mov	edx, DWORD PTR [ecx+8]
	mov	DWORD PTR [eax+8], edx
	mov	eax, DWORD PTR _this$[ebp]
	pop	edi
	pop	esi
	pop	ebx
	mov	esp, ebp
	pop	ebp
	ret	4
??0Vector@@QAE@ABV0@@Z ENDP				; Vector::Vector
_TEXT	ENDS
; Function compile flags: /Odtp /ZI
; File d:\!diffusion 2020\source code 2022\client-server\game_shared\vector.h
;	COMDAT ??0Vector@@QAE@MMM@Z
_TEXT	SEGMENT
_this$ = -4						; size = 4
_X$ = 8							; size = 4
_Y$ = 12						; size = 4
_Z$ = 16						; size = 4
??0Vector@@QAE@MMM@Z PROC				; Vector::Vector, COMDAT
; _this$ = ecx

; 144  : 	inline Vector(float X, float Y, float Z)	{ x = X; y = Y; z = Z;                     }

	push	ebp
	mov	ebp, esp
	sub	esp, 68					; 00000044H
	push	ebx
	push	esi
	push	edi
	mov	DWORD PTR _this$[ebp], ecx
	mov	eax, DWORD PTR _this$[ebp]
	movss	xmm0, DWORD PTR _X$[ebp]
	movss	DWORD PTR [eax], xmm0
	mov	eax, DWORD PTR _this$[ebp]
	movss	xmm0, DWORD PTR _Y$[ebp]
	movss	DWORD PTR [eax+4], xmm0
	mov	eax, DWORD PTR _this$[ebp]
	movss	xmm0, DWORD PTR _Z$[ebp]
	movss	DWORD PTR [eax+8], xmm0
	mov	eax, DWORD PTR _this$[ebp]
	pop	edi
	pop	esi
	pop	ebx
	mov	esp, ebp
	pop	ebp
	ret	12					; 0000000cH
??0Vector@@QAE@MMM@Z ENDP				; Vector::Vector
_TEXT	ENDS
; Function compile flags: /Odtp /ZI
; File d:\!diffusion 2020\source code 2022\client-server\game_shared\vector.h
;	COMDAT ??0Vector@@QAE@XZ
_TEXT	SEGMENT
_this$ = -4						; size = 4
??0Vector@@QAE@XZ PROC					; Vector::Vector, COMDAT
; _this$ = ecx

; 143  : 	inline Vector(void)				{ }

	push	ebp
	mov	ebp, esp
	sub	esp, 68					; 00000044H
	push	ebx
	push	esi
	push	edi
	mov	DWORD PTR _this$[ebp], ecx
	mov	eax, DWORD PTR _this$[ebp]
	pop	edi
	pop	esi
	pop	ebx
	mov	esp, ebp
	pop	ebp
	ret	0
??0Vector@@QAE@XZ ENDP					; Vector::Vector
_TEXT	ENDS
; Function compile flags: /Odtp /ZI
;	COMDAT ??__G@YGXPAX0IIP6EPAX00@Z@Z
_TEXT	SEGMENT
tv66 = -68						; size = 4
___t$ = 8						; size = 4
___u$ = 12						; size = 4
___s$ = 16						; size = 4
___n$ = 20						; size = 4
___f$ = 24						; size = 4
??__G@YGXPAX0IIP6EPAX00@Z@Z PROC			; `vector copy constructor iterator', COMDAT
	push	ebp
	mov	ebp, esp
	sub	esp, 68					; 00000044H
	push	ebx
	push	esi
	push	edi
$LN2@vector:
	mov	eax, DWORD PTR ___n$[ebp]
	mov	DWORD PTR tv66[ebp], eax
	mov	ecx, DWORD PTR ___n$[ebp]
	sub	ecx, 1
	mov	DWORD PTR ___n$[ebp], ecx
	cmp	DWORD PTR tv66[ebp], 0
	jbe	SHORT $LN1@vector
	mov	eax, DWORD PTR ___u$[ebp]
	push	eax
	mov	ecx, DWORD PTR ___t$[ebp]
	call	DWORD PTR ___f$[ebp]
	mov	eax, DWORD PTR ___t$[ebp]
	add	eax, DWORD PTR ___s$[ebp]
	mov	DWORD PTR ___t$[ebp], eax
	mov	eax, DWORD PTR ___u$[ebp]
	add	eax, DWORD PTR ___s$[ebp]
	mov	DWORD PTR ___u$[ebp], eax
	jmp	SHORT $LN2@vector
$LN1@vector:
	pop	edi
	pop	esi
	pop	ebx
	mov	esp, ebp
	pop	ebp
	ret	20					; 00000014H
??__G@YGXPAX0IIP6EPAX00@Z@Z ENDP			; `vector copy constructor iterator'
_TEXT	ENDS
; Function compile flags: /Odtp /ZI
;	COMDAT ??_H@YGXPAXIIP6EPAX0@Z@Z
_TEXT	SEGMENT
tv66 = -68						; size = 4
___t$ = 8						; size = 4
___s$ = 12						; size = 4
___n$ = 16						; size = 4
___f$ = 20						; size = 4
??_H@YGXPAXIIP6EPAX0@Z@Z PROC				; `vector constructor iterator', COMDAT
	push	ebp
	mov	ebp, esp
	sub	esp, 68					; 00000044H
	push	ebx
	push	esi
	push	edi
$LN2@vector:
	mov	eax, DWORD PTR ___n$[ebp]
	mov	DWORD PTR tv66[ebp], eax
	mov	ecx, DWORD PTR ___n$[ebp]
	sub	ecx, 1
	mov	DWORD PTR ___n$[ebp], ecx
	cmp	DWORD PTR tv66[ebp], 0
	jbe	SHORT $LN1@vector
	mov	ecx, DWORD PTR ___t$[ebp]
	call	DWORD PTR ___f$[ebp]
	mov	eax, DWORD PTR ___t$[ebp]
	add	eax, DWORD PTR ___s$[ebp]
	mov	DWORD PTR ___t$[ebp], eax
	jmp	SHORT $LN2@vector
$LN1@vector:
	pop	edi
	pop	esi
	pop	ebx
	mov	esp, ebp
	pop	ebp
	ret	16					; 00000010H
??_H@YGXPAXIIP6EPAX0@Z@Z ENDP				; `vector constructor iterator'
_TEXT	ENDS
END
