; Listing generated by Microsoft (R) Optimizing Compiler Version 19.00.24247.2 

	TITLE	D:\!DIFFUSION 2020\source code 2022\client-server\client\hud_codeinput.cpp
	.686P
	.XMM
	include listing.inc
	.model	flat

INCLUDELIB LIBCMT
INCLUDELIB OLDNAMES

PUBLIC	??_H@YGXPAXIIP6EPAX0@Z@Z			; `vector constructor iterator'
PUBLIC	??__G@YGXPAX0IIP6EPAX00@Z@Z			; `vector copy constructor iterator'
PUBLIC	___local_stdio_printf_options
PUBLIC	__vsprintf_s_l
PUBLIC	_vsprintf_s
PUBLIC	??0Vector@@QAE@MMM@Z				; Vector::Vector
PUBLIC	??GVector@@QBE?AV0@ABV0@@Z			; Vector::operator-
PUBLIC	?Length@Vector@@QBEMXZ				; Vector::Length
PUBLIC	??BVector@@QAEPAMXZ				; Vector::operator float *
PUBLIC	?Init@CHudCodeInput@@UAEHXZ			; CHudCodeInput::Init
PUBLIC	?VidInit@CHudCodeInput@@UAEHXZ			; CHudCodeInput::VidInit
PUBLIC	?MsgFunc_CodeInput@CHudCodeInput@@QAEHPBDHPAX@Z	; CHudCodeInput::MsgFunc_CodeInput
PUBLIC	?Draw@CHudCodeInput@@UAEHM@Z			; CHudCodeInput::Draw
PUBLIC	?DisableCodeScreen@CHudCodeInput@@QAEXXZ	; CHudCodeInput::DisableCodeScreen
PUBLIC	?EnterCode@CHudCodeInput@@QAEXH@Z		; CHudCodeInput::EnterCode
PUBLIC	?__MsgFunc_CodeInput@@YAHPBDHPAX@Z		; __MsgFunc_CodeInput
PUBLIC	??$sprintf_s@$0CA@@@YAHAAY0CA@DPBDZZ		; sprintf_s<32>
PUBLIC	??$__vcrt_va_start_verify_argument_type@PBD@@YAXXZ ; __vcrt_va_start_verify_argument_type<char const *>
PUBLIC	?_OptionsStorage@?1??__local_stdio_printf_options@@9@4_KA ; `__local_stdio_printf_options'::`2'::_OptionsStorage
PUBLIC	??_C@_09BLAOIMAB@CodeInput?$AA@			; `string'
PUBLIC	??_C@_0CA@GPCHAKBK@sprites?1diffusion?1codeinput?4spr?$AA@ ; `string'
PUBLIC	??_C@_0BD@JDNIMFHJ@misc?1code_push?4wav?$AA@	; `string'
PUBLIC	??_C@_0BC@NGAKOCH@code?5?$CFd?5?$CFd?$CFd?$CFd?$CFd?6?$AA@ ; `string'
PUBLIC	__real@3dcccccd
PUBLIC	__real@3f800000
PUBLIC	__real@3ff0000000000000
PUBLIC	__real@42c80000
EXTRN	_memset:PROC
EXTRN	_sqrt:PROC
EXTRN	___stdio_common_vsprintf_s:PROC
EXTRN	?AddHudElem@CHud@@QAEXPAVCHudBase@@@Z:PROC	; CHud::AddHudElem
EXTRN	?DrawQuad@@YAXMMMM@Z:PROC			; DrawQuad
EXTRN	?LoadSprite@@YAHPBD@Z:PROC			; LoadSprite
EXTRN	?BEGIN_READ@@YAXPBDPAXH@Z:PROC			; BEGIN_READ
EXTRN	?END_READ@@YAXXZ:PROC				; END_READ
EXTRN	?READ_BYTE@@YAHXZ:PROC				; READ_BYTE
EXTRN	?READ_SHORT@@YAHXZ:PROC				; READ_SHORT
EXTRN	@__security_check_cookie@4:PROC
EXTRN	?gEngfuncs@@3Ucl_enginefuncs_s@@A:BYTE		; gEngfuncs
EXTRN	?gHUD@@3VCHud@@A:BYTE				; gHUD
EXTRN	?tr@@3Uref_globals_t@@A:BYTE			; tr
EXTRN	___security_cookie:DWORD
EXTRN	__fltused:DWORD
;	COMDAT ?_OptionsStorage@?1??__local_stdio_printf_options@@9@4_KA
_BSS	SEGMENT
?_OptionsStorage@?1??__local_stdio_printf_options@@9@4_KA DQ 01H DUP (?) ; `__local_stdio_printf_options'::`2'::_OptionsStorage
_BSS	ENDS
;	COMDAT __real@42c80000
CONST	SEGMENT
__real@42c80000 DD 042c80000r			; 100
CONST	ENDS
;	COMDAT __real@3ff0000000000000
CONST	SEGMENT
__real@3ff0000000000000 DQ 03ff0000000000000r	; 1
CONST	ENDS
;	COMDAT __real@3f800000
CONST	SEGMENT
__real@3f800000 DD 03f800000r			; 1
CONST	ENDS
;	COMDAT __real@3dcccccd
CONST	SEGMENT
__real@3dcccccd DD 03dcccccdr			; 0.1
CONST	ENDS
;	COMDAT ??_C@_0BC@NGAKOCH@code?5?$CFd?5?$CFd?$CFd?$CFd?$CFd?6?$AA@
CONST	SEGMENT
??_C@_0BC@NGAKOCH@code?5?$CFd?5?$CFd?$CFd?$CFd?$CFd?6?$AA@ DB 'code %d %d'
	DB	'%d%d%d', 0aH, 00H				; `string'
CONST	ENDS
;	COMDAT ??_C@_0BD@JDNIMFHJ@misc?1code_push?4wav?$AA@
CONST	SEGMENT
??_C@_0BD@JDNIMFHJ@misc?1code_push?4wav?$AA@ DB 'misc/code_push.wav', 00H ; `string'
CONST	ENDS
;	COMDAT ??_C@_0CA@GPCHAKBK@sprites?1diffusion?1codeinput?4spr?$AA@
CONST	SEGMENT
??_C@_0CA@GPCHAKBK@sprites?1diffusion?1codeinput?4spr?$AA@ DB 'sprites/di'
	DB	'ffusion/codeinput.spr', 00H			; `string'
CONST	ENDS
;	COMDAT ??_C@_09BLAOIMAB@CodeInput?$AA@
CONST	SEGMENT
??_C@_09BLAOIMAB@CodeInput?$AA@ DB 'CodeInput', 00H	; `string'
CONST	ENDS
; Function compile flags: /Odtp /ZI
; File c:\program files (x86)\microsoft visual studio 14.0\vc\include\vadefs.h
;	COMDAT ??$__vcrt_va_start_verify_argument_type@PBD@@YAXXZ
_TEXT	SEGMENT
??$__vcrt_va_start_verify_argument_type@PBD@@YAXXZ PROC	; __vcrt_va_start_verify_argument_type<char const *>, COMDAT

; 144  :         {

	push	ebp
	mov	ebp, esp
	sub	esp, 64					; 00000040H
	push	ebx
	push	esi
	push	edi

; 145  :             static_assert(!__vcrt_va_list_is_reference<_Ty>::__the_value, "va_start argument must not have reference type and must not be parenthesized");
; 146  :         }

	pop	edi
	pop	esi
	pop	ebx
	mov	esp, ebp
	pop	ebp
	ret	0
??$__vcrt_va_start_verify_argument_type@PBD@@YAXXZ ENDP	; __vcrt_va_start_verify_argument_type<char const *>
_TEXT	ENDS
; Function compile flags: /Odtp /ZI
; File c:\program files (x86)\windows kits\10\include\10.0.10240.0\ucrt\stdio.h
;	COMDAT ??$sprintf_s@$0CA@@@YAHAAY0CA@DPBDZZ
_TEXT	SEGMENT
__ArgList$ = -4						; size = 4
__Buffer$ = 8						; size = 4
__Format$ = 12						; size = 4
??$sprintf_s@$0CA@@@YAHAAY0CA@DPBDZZ PROC		; sprintf_s<32>, COMDAT

; 1850 :     )

	push	ebp
	mov	ebp, esp
	sub	esp, 68					; 00000044H
	push	ebx
	push	esi
	push	edi

; 1846 : __DEFINE_CPP_OVERLOAD_SECURE_FUNC_0_1_ARGLIST(

	call	??$__vcrt_va_start_verify_argument_type@PBD@@YAXXZ ; __vcrt_va_start_verify_argument_type<char const *>
	lea	eax, DWORD PTR __Format$[ebp+4]
	mov	DWORD PTR __ArgList$[ebp], eax
	mov	eax, DWORD PTR __ArgList$[ebp]
	push	eax
	mov	ecx, DWORD PTR __Format$[ebp]
	push	ecx
	push	32					; 00000020H
	mov	edx, DWORD PTR __Buffer$[ebp]
	push	edx
	call	_vsprintf_s
	add	esp, 16					; 00000010H
	pop	edi
	pop	esi
	pop	ebx
	mov	esp, ebp
	pop	ebp
	ret	0
??$sprintf_s@$0CA@@@YAHAAY0CA@DPBDZZ ENDP		; sprintf_s<32>
_TEXT	ENDS
; Function compile flags: /Odtp /ZI
; File d:\!diffusion 2020\source code 2022\client-server\client\hud_codeinput.cpp
;	COMDAT ?__MsgFunc_CodeInput@@YAHPBDHPAX@Z
_TEXT	SEGMENT
_pszName$ = 8						; size = 4
_iSize$ = 12						; size = 4
_pbuf$ = 16						; size = 4
?__MsgFunc_CodeInput@@YAHPBDHPAX@Z PROC			; __MsgFunc_CodeInput, COMDAT

; 17   : DECLARE_MESSAGE( m_CodeInput, CodeInput );

	push	ebp
	mov	ebp, esp
	sub	esp, 64					; 00000040H
	push	ebx
	push	esi
	push	edi
	mov	eax, DWORD PTR _pbuf$[ebp]
	push	eax
	mov	ecx, DWORD PTR _iSize$[ebp]
	push	ecx
	mov	edx, DWORD PTR _pszName$[ebp]
	push	edx
	mov	ecx, OFFSET ?gHUD@@3VCHud@@A+8344
	call	?MsgFunc_CodeInput@CHudCodeInput@@QAEHPBDHPAX@Z ; CHudCodeInput::MsgFunc_CodeInput
	pop	edi
	pop	esi
	pop	ebx
	mov	esp, ebp
	pop	ebp
	ret	0
?__MsgFunc_CodeInput@@YAHPBDHPAX@Z ENDP			; __MsgFunc_CodeInput
_TEXT	ENDS
; Function compile flags: /Odtp /ZI
; File d:\!diffusion 2020\source code 2022\client-server\client\hud_codeinput.cpp
;	COMDAT ?EnterCode@CHudCodeInput@@QAEXH@Z
_TEXT	SEGMENT
_this$ = -4						; size = 4
_num$ = 8						; size = 4
?EnterCode@CHudCodeInput@@QAEXH@Z PROC			; CHudCodeInput::EnterCode, COMDAT
; _this$ = ecx

; 46   : {

	push	ebp
	mov	ebp, esp
	sub	esp, 68					; 00000044H
	push	ebx
	push	esi
	push	edi
	mov	DWORD PTR _this$[ebp], ecx

; 47   : 	if( InputStep == 5 )

	mov	eax, DWORD PTR _this$[ebp]
	cmp	DWORD PTR [eax+48], 5
	jne	SHORT $LN2@EnterCode

; 48   : 		return;

	jmp	$LN1@EnterCode
$LN2@EnterCode:

; 49   : 	
; 50   : 	if( num == 10 )

	cmp	DWORD PTR _num$[ebp], 10		; 0000000aH
	jne	SHORT $LN3@EnterCode

; 51   : 		num = 0; // :)

	mov	DWORD PTR _num$[ebp], 0
$LN3@EnterCode:

; 52   : 
; 53   : 	if( InputStep < 4 )

	mov	eax, DWORD PTR _this$[ebp]
	cmp	DWORD PTR [eax+48], 4
	jge	SHORT $LN4@EnterCode

; 54   : 		num_user[InputStep] = num;

	mov	eax, DWORD PTR _this$[ebp]
	mov	ecx, DWORD PTR [eax+48]
	mov	edx, DWORD PTR _this$[ebp]
	mov	eax, DWORD PTR _num$[ebp]
	mov	DWORD PTR [edx+ecx*4+24], eax
$LN4@EnterCode:

; 55   : 
; 56   : 	InputStep++;

	mov	eax, DWORD PTR _this$[ebp]
	mov	ecx, DWORD PTR [eax+48]
	add	ecx, 1
	mov	edx, DWORD PTR _this$[ebp]
	mov	DWORD PTR [edx+48], ecx

; 57   : 
; 58   : 	gEngfuncs.pEventAPI->EV_PlaySound( gEngfuncs.GetLocalPlayer()->index, gEngfuncs.GetLocalPlayer()->origin, CHAN_ITEM, "misc/code_push.wav", 1.0, 0, 0, PITCH_NORM );

	push	100					; 00000064H
	push	0
	push	ecx
	xorps	xmm0, xmm0
	movss	DWORD PTR [esp], xmm0
	push	ecx
	movss	xmm0, DWORD PTR __real@3f800000
	movss	DWORD PTR [esp], xmm0
	push	OFFSET ??_C@_0BD@JDNIMFHJ@misc?1code_push?4wav?$AA@
	push	3
	call	DWORD PTR ?gEngfuncs@@3Ucl_enginefuncs_s@@A+204
	add	eax, 2888				; 00000b48H
	mov	ecx, eax
	call	??BVector@@QAEPAMXZ			; Vector::operator float *
	push	eax
	call	DWORD PTR ?gEngfuncs@@3Ucl_enginefuncs_s@@A+204
	mov	eax, DWORD PTR [eax]
	push	eax
	mov	ecx, DWORD PTR ?gEngfuncs@@3Ucl_enginefuncs_s@@A+336
	mov	edx, DWORD PTR [ecx+4]
	call	edx
	add	esp, 32					; 00000020H
$LN1@EnterCode:

; 59   : }

	pop	edi
	pop	esi
	pop	ebx
	mov	esp, ebp
	pop	ebp
	ret	4
?EnterCode@CHudCodeInput@@QAEXH@Z ENDP			; CHudCodeInput::EnterCode
_TEXT	ENDS
; Function compile flags: /Odtp /ZI
; File d:\!diffusion 2020\source code 2022\client-server\client\hud_codeinput.cpp
;	COMDAT ?DisableCodeScreen@CHudCodeInput@@QAEXXZ
_TEXT	SEGMENT
_this$ = -4						; size = 4
?DisableCodeScreen@CHudCodeInput@@QAEXXZ PROC		; CHudCodeInput::DisableCodeScreen, COMDAT
; _this$ = ecx

; 35   : {

	push	ebp
	mov	ebp, esp
	sub	esp, 68					; 00000044H
	push	ebx
	push	esi
	push	edi
	mov	DWORD PTR _this$[ebp], ecx

; 36   : 	// reset everything on a new map or saverestore
; 37   : 	CodeInputScreenIsOn = false;

	mov	eax, DWORD PTR _this$[ebp]
	mov	BYTE PTR [eax+44], 0

; 38   : 	InputStep = 0;

	mov	eax, DWORD PTR _this$[ebp]
	mov	DWORD PTR [eax+48], 0

; 39   : 	memset( num, 0, sizeof( num ) );

	push	16					; 00000010H
	push	0
	mov	eax, DWORD PTR _this$[ebp]
	add	eax, 8
	push	eax
	call	_memset
	add	esp, 12					; 0000000cH

; 40   : 	memset( num_user, 0, sizeof( num_user ) );

	push	16					; 00000010H
	push	0
	mov	eax, DWORD PTR _this$[ebp]
	add	eax, 24					; 00000018H
	push	eax
	call	_memset
	add	esp, 12					; 0000000cH

; 41   : 	CloseTime = 0.0f;

	mov	eax, DWORD PTR _this$[ebp]
	xorps	xmm0, xmm0
	movss	DWORD PTR [eax+72], xmm0

; 42   : 	CodeSuccess = false;

	mov	eax, DWORD PTR _this$[ebp]
	mov	BYTE PTR [eax+52], 0

; 43   : }

	pop	edi
	pop	esi
	pop	ebx
	mov	esp, ebp
	pop	ebp
	ret	0
?DisableCodeScreen@CHudCodeInput@@QAEXXZ ENDP		; CHudCodeInput::DisableCodeScreen
_TEXT	ENDS
; Function compile flags: /Odtp /ZI
; File d:\!diffusion 2020\source code 2022\client-server\client\hud_codeinput.cpp
;	COMDAT ?Draw@CHudCodeInput@@UAEHM@Z
_TEXT	SEGMENT
tv224 = -144						; size = 4
$T1 = -140						; size = 12
_pSpr$ = -64						; size = 4
_ymax$ = -60						; size = 4
_xmax$ = -56						; size = 4
_y$ = -52						; size = 4
_x$ = -48						; size = 4
_szbuf$2 = -44						; size = 32
_i$3 = -12						; size = 4
_this$ = -8						; size = 4
__$ArrayPad$ = -4					; size = 4
_flTime$ = 8						; size = 4
?Draw@CHudCodeInput@@UAEHM@Z PROC			; CHudCodeInput::Draw, COMDAT
; _this$ = ecx

; 87   : {

	push	ebp
	mov	ebp, esp
	sub	esp, 144				; 00000090H
	mov	eax, DWORD PTR ___security_cookie
	xor	eax, ebp
	mov	DWORD PTR __$ArrayPad$[ebp], eax
	push	ebx
	push	esi
	push	edi
	mov	DWORD PTR _this$[ebp], ecx

; 88   : 	// player's view isn't near the code object
; 89   : 	if( (tr.viewparams.vieworg - InputOrigin).Length() > 100 )

	mov	eax, DWORD PTR _this$[ebp]
	add	eax, 60					; 0000003cH
	push	eax
	lea	ecx, DWORD PTR $T1[ebp]
	push	ecx
	mov	ecx, OFFSET ?tr@@3Uref_globals_t@@A+5830656
	call	??GVector@@QBE?AV0@ABV0@@Z		; Vector::operator-
	mov	ecx, eax
	call	?Length@Vector@@QBEMXZ			; Vector::Length
	fstp	DWORD PTR tv224[ebp]
	movss	xmm0, DWORD PTR tv224[ebp]
	comiss	xmm0, DWORD PTR __real@42c80000
	jbe	SHORT $LN5@Draw

; 90   : 	{
; 91   : 		DisableCodeScreen();

	mov	ecx, DWORD PTR _this$[ebp]
	call	?DisableCodeScreen@CHudCodeInput@@QAEXXZ ; CHudCodeInput::DisableCodeScreen
$LN5@Draw:

; 92   : 	}
; 93   : 	
; 94   : 	if( tr.time == tr.oldtime ) // paused

	movsd	xmm0, QWORD PTR ?tr@@3Uref_globals_t@@A+8
	ucomisd	xmm0, QWORD PTR ?tr@@3Uref_globals_t@@A+16
	lahf
	test	ah, 68					; 00000044H
	jp	SHORT $LN6@Draw

; 95   : 		return 1;

	mov	eax, 1
	jmp	$LN1@Draw
$LN6@Draw:

; 96   : 
; 97   : 	if( InputStep == 4 ) // time to check the code

	mov	eax, DWORD PTR _this$[ebp]
	cmp	DWORD PTR [eax+48], 4
	jne	$LN7@Draw

; 98   : 	{
; 99   : 		CodeSuccess = true;

	mov	eax, DWORD PTR _this$[ebp]
	mov	BYTE PTR [eax+52], 1

; 100  : 		for( int i = 0; i < 4; i++ )

	mov	DWORD PTR _i$3[ebp], 0
	jmp	SHORT $LN4@Draw
$LN2@Draw:
	mov	eax, DWORD PTR _i$3[ebp]
	add	eax, 1
	mov	DWORD PTR _i$3[ebp], eax
$LN4@Draw:
	cmp	DWORD PTR _i$3[ebp], 4
	jge	SHORT $LN3@Draw

; 101  : 		{
; 102  : 			if( num[i] != num_user[i] )

	mov	eax, DWORD PTR _i$3[ebp]
	mov	ecx, DWORD PTR _this$[ebp]
	mov	edx, DWORD PTR _i$3[ebp]
	mov	esi, DWORD PTR _this$[ebp]
	mov	eax, DWORD PTR [ecx+eax*4+8]
	cmp	eax, DWORD PTR [esi+edx*4+24]
	je	SHORT $LN8@Draw

; 103  : 			{
; 104  : 				CodeSuccess = false;

	mov	eax, DWORD PTR _this$[ebp]
	mov	BYTE PTR [eax+52], 0

; 105  : 				break;

	jmp	SHORT $LN3@Draw
$LN8@Draw:

; 106  : 			}
; 107  : 		}

	jmp	SHORT $LN2@Draw
$LN3@Draw:

; 108  : 
; 109  : 		if( CodeSuccess )

	mov	eax, DWORD PTR _this$[ebp]
	movzx	ecx, BYTE PTR [eax+52]
	test	ecx, ecx
	je	$LN9@Draw

; 110  : 		{
; 111  : 		//	ConPrintf( "CODE SUCCESS!\n" );
; 112  : 			r = 0.1f;

	mov	eax, DWORD PTR _this$[ebp]
	movss	xmm0, DWORD PTR __real@3dcccccd
	movss	DWORD PTR [eax+76], xmm0

; 113  : 			g = 1.0f;

	mov	eax, DWORD PTR _this$[ebp]
	movss	xmm0, DWORD PTR __real@3f800000
	movss	DWORD PTR [eax+80], xmm0

; 114  : 			b = 0.1f;

	mov	eax, DWORD PTR _this$[ebp]
	movss	xmm0, DWORD PTR __real@3dcccccd
	movss	DWORD PTR [eax+84], xmm0

; 115  : 			char szbuf[32];
; 116  : 			sprintf_s( szbuf, "code %d %d%d%d%d\n", entindex, num[0], num[1], num[2], num[3] );

	mov	eax, 4
	imul	ecx, eax, 3
	mov	edx, DWORD PTR _this$[ebp]
	mov	eax, DWORD PTR [edx+ecx+8]
	push	eax
	mov	ecx, 4
	shl	ecx, 1
	mov	edx, DWORD PTR _this$[ebp]
	mov	eax, DWORD PTR [edx+ecx+8]
	push	eax
	mov	ecx, 4
	shl	ecx, 0
	mov	edx, DWORD PTR _this$[ebp]
	mov	eax, DWORD PTR [edx+ecx+8]
	push	eax
	mov	ecx, 4
	imul	edx, ecx, 0
	mov	eax, DWORD PTR _this$[ebp]
	mov	ecx, DWORD PTR [eax+edx+8]
	push	ecx
	mov	edx, DWORD PTR _this$[ebp]
	mov	eax, DWORD PTR [edx+40]
	push	eax
	push	OFFSET ??_C@_0BC@NGAKOCH@code?5?$CFd?5?$CFd?$CFd?$CFd?$CFd?6?$AA@
	lea	ecx, DWORD PTR _szbuf$2[ebp]
	push	ecx
	call	??$sprintf_s@$0CA@@@YAHAAY0CA@DPBDZZ	; sprintf_s<32>
	add	esp, 28					; 0000001cH

; 117  : 			ClientCmd( szbuf );

	lea	eax, DWORD PTR _szbuf$2[ebp]
	push	eax
	call	DWORD PTR ?gEngfuncs@@3Ucl_enginefuncs_s@@A+80
	add	esp, 4

; 118  : 		}
; 119  : 		else

	jmp	SHORT $LN10@Draw
$LN9@Draw:

; 120  : 		{
; 121  : 		//	ConPrintf( "CODE FAIL!\n" );
; 122  : 			r = 1.0f;

	mov	eax, DWORD PTR _this$[ebp]
	movss	xmm0, DWORD PTR __real@3f800000
	movss	DWORD PTR [eax+76], xmm0

; 123  : 			g = 0.1f;

	mov	eax, DWORD PTR _this$[ebp]
	movss	xmm0, DWORD PTR __real@3dcccccd
	movss	DWORD PTR [eax+80], xmm0

; 124  : 			b = 0.1f;

	mov	eax, DWORD PTR _this$[ebp]
	movss	xmm0, DWORD PTR __real@3dcccccd
	movss	DWORD PTR [eax+84], xmm0
$LN10@Draw:

; 125  : 		}
; 126  : 
; 127  : 		InputStep = 5;

	mov	eax, DWORD PTR _this$[ebp]
	mov	DWORD PTR [eax+48], 5

; 128  : 		CloseTime = tr.time + 1;

	movsd	xmm0, QWORD PTR ?tr@@3Uref_globals_t@@A+8
	addsd	xmm0, QWORD PTR __real@3ff0000000000000
	cvtsd2ss xmm0, xmm0
	mov	eax, DWORD PTR _this$[ebp]
	movss	DWORD PTR [eax+72], xmm0
$LN7@Draw:

; 129  : 	}
; 130  : 
; 131  : 	if( !CodeInputScreenIsOn )

	mov	eax, DWORD PTR _this$[ebp]
	movzx	ecx, BYTE PTR [eax+44]
	test	ecx, ecx
	jne	SHORT $LN11@Draw

; 132  : 		return 1;

	mov	eax, 1
	jmp	$LN1@Draw
$LN11@Draw:

; 133  : 
; 134  : 	// slightly blacken the screen
; 135  : 	gEngfuncs.pfnFillRGBABlend( 0, 0, ScreenWidth, ScreenHeight, 0, 0, 0, 150 );

	push	150					; 00000096H
	push	0
	push	0
	push	0
	mov	eax, DWORD PTR ?gHUD@@3VCHud@@A+8440
	push	eax
	mov	ecx, DWORD PTR ?gHUD@@3VCHud@@A+8436
	push	ecx
	push	0
	push	0
	call	DWORD PTR ?gEngfuncs@@3Ucl_enginefuncs_s@@A+520
	add	esp, 32					; 00000020H

; 136  : 
; 137  : 	// draw user inputs
; 138  : 	int x = (ScreenWidth / 2) - (SPR_WIDTH / 2);

	mov	eax, DWORD PTR ?gHUD@@3VCHud@@A+8436
	cdq
	sub	eax, edx
	sar	eax, 1
	sub	eax, 250				; 000000faH
	mov	DWORD PTR _x$[ebp], eax

; 139  : 	int y = (ScreenHeight / 2) - (SPR_HEIGHT / 2);

	mov	eax, DWORD PTR ?gHUD@@3VCHud@@A+8440
	cdq
	sub	eax, edx
	sar	eax, 1
	sub	eax, 150				; 00000096H
	mov	DWORD PTR _y$[ebp], eax

; 140  : 	int xmax = (ScreenWidth / 2) + (SPR_WIDTH / 2);

	mov	eax, DWORD PTR ?gHUD@@3VCHud@@A+8436
	cdq
	sub	eax, edx
	sar	eax, 1
	add	eax, 250				; 000000faH
	mov	DWORD PTR _xmax$[ebp], eax

; 141  : 	int ymax = (ScreenHeight / 2) + (SPR_HEIGHT / 2);

	mov	eax, DWORD PTR ?gHUD@@3VCHud@@A+8440
	cdq
	sub	eax, edx
	sar	eax, 1
	add	eax, 150				; 00000096H
	mov	DWORD PTR _ymax$[ebp], eax

; 142  : 
; 143  : 	const model_s *pSpr = gEngfuncs.GetSpritePointer( CodeInputSpr );

	mov	eax, DWORD PTR _this$[ebp]
	mov	ecx, DWORD PTR [eax+56]
	push	ecx
	call	DWORD PTR ?gEngfuncs@@3Ucl_enginefuncs_s@@A+248
	add	esp, 4
	mov	DWORD PTR _pSpr$[ebp], eax

; 144  : 	if( !gEngfuncs.pTriAPI->SpriteTexture( (struct model_s *)pSpr, InputStep ) )

	mov	eax, DWORD PTR _this$[ebp]
	mov	ecx, DWORD PTR [eax+48]
	push	ecx
	mov	edx, DWORD PTR _pSpr$[ebp]
	push	edx
	mov	eax, DWORD PTR ?gEngfuncs@@3Ucl_enginefuncs_s@@A+328
	mov	ecx, DWORD PTR [eax+44]
	call	ecx
	add	esp, 8
	test	eax, eax
	jne	SHORT $LN12@Draw

; 145  : 		return 1;

	mov	eax, 1
	jmp	$LN1@Draw
$LN12@Draw:

; 146  : 	
; 147  : 	gEngfuncs.pTriAPI->RenderMode( kRenderTransAdd );

	push	5
	mov	eax, DWORD PTR ?gEngfuncs@@3Ucl_enginefuncs_s@@A+328
	mov	ecx, DWORD PTR [eax+4]
	call	ecx
	add	esp, 4

; 148  : 	gEngfuncs.pTriAPI->Begin( TRI_QUADS );

	push	2
	mov	eax, DWORD PTR ?gEngfuncs@@3Ucl_enginefuncs_s@@A+328
	mov	ecx, DWORD PTR [eax+8]
	call	ecx
	add	esp, 4

; 149  : 	gEngfuncs.pTriAPI->Color4f( r, g, b, 1.0f );

	push	ecx
	movss	xmm0, DWORD PTR __real@3f800000
	movss	DWORD PTR [esp], xmm0
	mov	eax, DWORD PTR _this$[ebp]
	push	ecx
	movss	xmm0, DWORD PTR [eax+84]
	movss	DWORD PTR [esp], xmm0
	mov	ecx, DWORD PTR _this$[ebp]
	push	ecx
	movss	xmm0, DWORD PTR [ecx+80]
	movss	DWORD PTR [esp], xmm0
	mov	edx, DWORD PTR _this$[ebp]
	push	ecx
	movss	xmm0, DWORD PTR [edx+76]
	movss	DWORD PTR [esp], xmm0
	mov	eax, DWORD PTR ?gEngfuncs@@3Ucl_enginefuncs_s@@A+328
	mov	ecx, DWORD PTR [eax+16]
	call	ecx
	add	esp, 16					; 00000010H

; 150  : 	DrawQuad( x, y, xmax, ymax );

	cvtsi2ss xmm0, DWORD PTR _ymax$[ebp]
	push	ecx
	movss	DWORD PTR [esp], xmm0
	cvtsi2ss xmm0, DWORD PTR _xmax$[ebp]
	push	ecx
	movss	DWORD PTR [esp], xmm0
	cvtsi2ss xmm0, DWORD PTR _y$[ebp]
	push	ecx
	movss	DWORD PTR [esp], xmm0
	cvtsi2ss xmm0, DWORD PTR _x$[ebp]
	push	ecx
	movss	DWORD PTR [esp], xmm0
	call	?DrawQuad@@YAXMMMM@Z			; DrawQuad
	add	esp, 16					; 00000010H

; 151  : 	gEngfuncs.pTriAPI->End();

	mov	eax, DWORD PTR ?gEngfuncs@@3Ucl_enginefuncs_s@@A+328
	mov	ecx, DWORD PTR [eax+12]
	call	ecx

; 152  : 
; 153  : 	if( InputStep == 5 )

	mov	eax, DWORD PTR _this$[ebp]
	cmp	DWORD PTR [eax+48], 5
	jne	$LN16@Draw

; 154  : 	{
; 155  : 		if( CloseTime > 0.1f && tr.time > CloseTime )

	mov	eax, DWORD PTR _this$[ebp]
	movss	xmm0, DWORD PTR [eax+72]
	comiss	xmm0, DWORD PTR __real@3dcccccd
	jbe	SHORT $LN16@Draw
	mov	eax, DWORD PTR _this$[ebp]
	cvtss2sd xmm0, DWORD PTR [eax+72]
	movsd	xmm1, QWORD PTR ?tr@@3Uref_globals_t@@A+8
	comisd	xmm1, xmm0
	jbe	SHORT $LN16@Draw

; 156  : 		{
; 157  : 			if( CodeSuccess )

	mov	eax, DWORD PTR _this$[ebp]
	movzx	ecx, BYTE PTR [eax+52]
	test	ecx, ecx
	je	SHORT $LN15@Draw

; 158  : 			{
; 159  : 				DisableCodeScreen();

	mov	ecx, DWORD PTR _this$[ebp]
	call	?DisableCodeScreen@CHudCodeInput@@QAEXXZ ; CHudCodeInput::DisableCodeScreen

; 160  : 			}
; 161  : 			else

	jmp	SHORT $LN16@Draw
$LN15@Draw:

; 162  : 			{
; 163  : 				InputStep = 0;

	mov	eax, DWORD PTR _this$[ebp]
	mov	DWORD PTR [eax+48], 0

; 164  : 				CloseTime = 0.0f;

	mov	eax, DWORD PTR _this$[ebp]
	xorps	xmm0, xmm0
	movss	DWORD PTR [eax+72], xmm0

; 165  : 				r = 1.0f;

	mov	eax, DWORD PTR _this$[ebp]
	movss	xmm0, DWORD PTR __real@3f800000
	movss	DWORD PTR [eax+76], xmm0

; 166  : 				g = 1.0f;

	mov	eax, DWORD PTR _this$[ebp]
	movss	xmm0, DWORD PTR __real@3f800000
	movss	DWORD PTR [eax+80], xmm0

; 167  : 				b = 1.0f;

	mov	eax, DWORD PTR _this$[ebp]
	movss	xmm0, DWORD PTR __real@3f800000
	movss	DWORD PTR [eax+84], xmm0
$LN16@Draw:

; 168  : 			}
; 169  : 		}
; 170  : 	}
; 171  : 
; 172  : 	return 1;

	mov	eax, 1
$LN1@Draw:

; 173  : }

	pop	edi
	pop	esi
	pop	ebx
	mov	ecx, DWORD PTR __$ArrayPad$[ebp]
	xor	ecx, ebp
	call	@__security_check_cookie@4
	mov	esp, ebp
	pop	ebp
	ret	4
?Draw@CHudCodeInput@@UAEHM@Z ENDP			; CHudCodeInput::Draw
_TEXT	ENDS
; Function compile flags: /Odtp /ZI
; File d:\!diffusion 2020\source code 2022\client-server\client\hud_codeinput.cpp
;	COMDAT ?MsgFunc_CodeInput@CHudCodeInput@@QAEHPBDHPAX@Z
_TEXT	SEGMENT
_this$ = -4						; size = 4
_pszName$ = 8						; size = 4
_iSize$ = 12						; size = 4
_pbuf$ = 16						; size = 4
?MsgFunc_CodeInput@CHudCodeInput@@QAEHPBDHPAX@Z PROC	; CHudCodeInput::MsgFunc_CodeInput, COMDAT
; _this$ = ecx

; 62   : {

	push	ebp
	mov	ebp, esp
	sub	esp, 68					; 00000044H
	push	ebx
	push	esi
	push	edi
	mov	DWORD PTR _this$[ebp], ecx

; 63   : 	// when a code is received, it means we start to render the code screen
; 64   : 	// and awaiting the user inputs
; 65   : 	BEGIN_READ( pszName, pbuf, iSize );

	mov	eax, DWORD PTR _iSize$[ebp]
	push	eax
	mov	ecx, DWORD PTR _pbuf$[ebp]
	push	ecx
	mov	edx, DWORD PTR _pszName$[ebp]
	push	edx
	call	?BEGIN_READ@@YAXPBDPAXH@Z		; BEGIN_READ
	add	esp, 12					; 0000000cH

; 66   : 	entindex = READ_SHORT();

	call	?READ_SHORT@@YAHXZ			; READ_SHORT
	mov	ecx, DWORD PTR _this$[ebp]
	mov	DWORD PTR [ecx+40], eax

; 67   : 	num[0] = READ_BYTE();

	call	?READ_BYTE@@YAHXZ			; READ_BYTE
	mov	ecx, 4
	imul	edx, ecx, 0
	mov	ecx, DWORD PTR _this$[ebp]
	mov	DWORD PTR [ecx+edx+8], eax

; 68   : 	num[1] = READ_BYTE();

	call	?READ_BYTE@@YAHXZ			; READ_BYTE
	mov	ecx, 4
	shl	ecx, 0
	mov	edx, DWORD PTR _this$[ebp]
	mov	DWORD PTR [edx+ecx+8], eax

; 69   : 	num[2] = READ_BYTE();

	call	?READ_BYTE@@YAHXZ			; READ_BYTE
	mov	ecx, 4
	shl	ecx, 1
	mov	edx, DWORD PTR _this$[ebp]
	mov	DWORD PTR [edx+ecx+8], eax

; 70   : 	num[3] = READ_BYTE();

	call	?READ_BYTE@@YAHXZ			; READ_BYTE
	mov	ecx, 4
	imul	edx, ecx, 3
	mov	ecx, DWORD PTR _this$[ebp]
	mov	DWORD PTR [ecx+edx+8], eax

; 71   : 	END_READ();

	call	?END_READ@@YAXXZ			; END_READ

; 72   : 
; 73   : 	InputOrigin = tr.viewparams.vieworg;

	mov	eax, DWORD PTR _this$[ebp]
	add	eax, 60					; 0000003cH
	mov	ecx, DWORD PTR ?tr@@3Uref_globals_t@@A+5830656
	mov	DWORD PTR [eax], ecx
	mov	edx, DWORD PTR ?tr@@3Uref_globals_t@@A+5830660
	mov	DWORD PTR [eax+4], edx
	mov	ecx, DWORD PTR ?tr@@3Uref_globals_t@@A+5830664
	mov	DWORD PTR [eax+8], ecx

; 74   : 
; 75   : 	CodeInputScreenIsOn = true;

	mov	eax, DWORD PTR _this$[ebp]
	mov	BYTE PTR [eax+44], 1

; 76   : 	InputStep = 0; // user didn't enter anything yet

	mov	eax, DWORD PTR _this$[ebp]
	mov	DWORD PTR [eax+48], 0

; 77   : 	CodeSuccess = false;

	mov	eax, DWORD PTR _this$[ebp]
	mov	BYTE PTR [eax+52], 0

; 78   : 	r = 1.0f;

	mov	eax, DWORD PTR _this$[ebp]
	movss	xmm0, DWORD PTR __real@3f800000
	movss	DWORD PTR [eax+76], xmm0

; 79   : 	g = 1.0f;

	mov	eax, DWORD PTR _this$[ebp]
	movss	xmm0, DWORD PTR __real@3f800000
	movss	DWORD PTR [eax+80], xmm0

; 80   : 	b = 1.0f;

	mov	eax, DWORD PTR _this$[ebp]
	movss	xmm0, DWORD PTR __real@3f800000
	movss	DWORD PTR [eax+84], xmm0

; 81   : 	memset( num_user, 0, sizeof( num_user ) );

	push	16					; 00000010H
	push	0
	mov	eax, DWORD PTR _this$[ebp]
	add	eax, 24					; 00000018H
	push	eax
	call	_memset
	add	esp, 12					; 0000000cH

; 82   : 
; 83   : 	return 1;

	mov	eax, 1

; 84   : }

	pop	edi
	pop	esi
	pop	ebx
	mov	esp, ebp
	pop	ebp
	ret	12					; 0000000cH
?MsgFunc_CodeInput@CHudCodeInput@@QAEHPBDHPAX@Z ENDP	; CHudCodeInput::MsgFunc_CodeInput
_TEXT	ENDS
; Function compile flags: /Odtp /ZI
; File d:\!diffusion 2020\source code 2022\client-server\client\hud_codeinput.cpp
;	COMDAT ?VidInit@CHudCodeInput@@UAEHXZ
_TEXT	SEGMENT
_this$ = -4						; size = 4
?VidInit@CHudCodeInput@@UAEHXZ PROC			; CHudCodeInput::VidInit, COMDAT
; _this$ = ecx

; 28   : {

	push	ebp
	mov	ebp, esp
	sub	esp, 68					; 00000044H
	push	ebx
	push	esi
	push	edi
	mov	DWORD PTR _this$[ebp], ecx

; 29   : 	DisableCodeScreen();

	mov	ecx, DWORD PTR _this$[ebp]
	call	?DisableCodeScreen@CHudCodeInput@@QAEXXZ ; CHudCodeInput::DisableCodeScreen

; 30   : 	CodeInputSpr = LoadSprite( "sprites/diffusion/codeinput.spr" );

	push	OFFSET ??_C@_0CA@GPCHAKBK@sprites?1diffusion?1codeinput?4spr?$AA@
	call	?LoadSprite@@YAHPBD@Z			; LoadSprite
	add	esp, 4
	mov	ecx, DWORD PTR _this$[ebp]
	mov	DWORD PTR [ecx+56], eax

; 31   : 	return 1;

	mov	eax, 1

; 32   : }

	pop	edi
	pop	esi
	pop	ebx
	mov	esp, ebp
	pop	ebp
	ret	0
?VidInit@CHudCodeInput@@UAEHXZ ENDP			; CHudCodeInput::VidInit
_TEXT	ENDS
; Function compile flags: /Odtp /ZI
; File d:\!diffusion 2020\source code 2022\client-server\client\hud_codeinput.cpp
;	COMDAT ?Init@CHudCodeInput@@UAEHXZ
_TEXT	SEGMENT
_this$ = -4						; size = 4
?Init@CHudCodeInput@@UAEHXZ PROC			; CHudCodeInput::Init, COMDAT
; _this$ = ecx

; 20   : {

	push	ebp
	mov	ebp, esp
	sub	esp, 68					; 00000044H
	push	ebx
	push	esi
	push	edi
	mov	DWORD PTR _this$[ebp], ecx

; 21   : 	HOOK_MESSAGE( CodeInput );

	push	OFFSET ?__MsgFunc_CodeInput@@YAHPBDHPAX@Z ; __MsgFunc_CodeInput
	push	OFFSET ??_C@_09BLAOIMAB@CodeInput?$AA@
	call	DWORD PTR ?gEngfuncs@@3Ucl_enginefuncs_s@@A+72
	add	esp, 8

; 22   : 	gHUD.AddHudElem( this );

	mov	eax, DWORD PTR _this$[ebp]
	push	eax
	mov	ecx, OFFSET ?gHUD@@3VCHud@@A		; gHUD
	call	?AddHudElem@CHud@@QAEXPAVCHudBase@@@Z	; CHud::AddHudElem

; 23   : 	m_iFlags |= HUD_ACTIVE;

	mov	eax, DWORD PTR _this$[ebp]
	mov	ecx, DWORD PTR [eax+4]
	or	ecx, 1
	mov	edx, DWORD PTR _this$[ebp]
	mov	DWORD PTR [edx+4], ecx

; 24   : 	return 1;

	mov	eax, 1

; 25   : }

	pop	edi
	pop	esi
	pop	ebx
	mov	esp, ebp
	pop	ebp
	ret	0
?Init@CHudCodeInput@@UAEHXZ ENDP			; CHudCodeInput::Init
_TEXT	ENDS
; Function compile flags: /Odtp /ZI
; File d:\!diffusion 2020\source code 2022\client-server\game_shared\vector.h
;	COMDAT ??BVector@@QAEPAMXZ
_TEXT	SEGMENT
_this$ = -4						; size = 4
??BVector@@QAEPAMXZ PROC				; Vector::operator float *, COMDAT
; _this$ = ecx

; 247  : 	operator float *()				{ return &x; } // Vectors will now automatically convert to float * when needed

	push	ebp
	mov	ebp, esp
	sub	esp, 68					; 00000044H
	push	ebx
	push	esi
	push	edi
	mov	DWORD PTR _this$[ebp], ecx
	mov	eax, DWORD PTR _this$[ebp]
	pop	edi
	pop	esi
	pop	ebx
	mov	esp, ebp
	pop	ebp
	ret	0
??BVector@@QAEPAMXZ ENDP				; Vector::operator float *
_TEXT	ENDS
; Function compile flags: /Odtp /ZI
; File d:\!diffusion 2020\source code 2022\client-server\game_shared\vector.h
;	COMDAT ?Length@Vector@@QBEMXZ
_TEXT	SEGMENT
tv91 = -72						; size = 4
_this$ = -4						; size = 4
?Length@Vector@@QBEMXZ PROC				; Vector::Length, COMDAT
; _this$ = ecx

; 245  : 	inline float Length(void) const		{ return sqrt( x*x + y*y + z*z ); }

	push	ebp
	mov	ebp, esp
	sub	esp, 72					; 00000048H
	push	ebx
	push	esi
	push	edi
	mov	DWORD PTR _this$[ebp], ecx
	mov	eax, DWORD PTR _this$[ebp]
	mov	ecx, DWORD PTR _this$[ebp]
	movss	xmm0, DWORD PTR [eax]
	mulss	xmm0, DWORD PTR [ecx]
	mov	edx, DWORD PTR _this$[ebp]
	mov	eax, DWORD PTR _this$[ebp]
	movss	xmm1, DWORD PTR [edx+4]
	mulss	xmm1, DWORD PTR [eax+4]
	addss	xmm0, xmm1
	mov	ecx, DWORD PTR _this$[ebp]
	mov	edx, DWORD PTR _this$[ebp]
	movss	xmm1, DWORD PTR [ecx+8]
	mulss	xmm1, DWORD PTR [edx+8]
	addss	xmm0, xmm1
	cvtss2sd xmm0, xmm0
	sub	esp, 8
	movsd	QWORD PTR [esp], xmm0
	call	_sqrt
	add	esp, 8
	fstp	DWORD PTR tv91[ebp]
	fld	DWORD PTR tv91[ebp]
	pop	edi
	pop	esi
	pop	ebx
	mov	esp, ebp
	pop	ebp
	ret	0
?Length@Vector@@QBEMXZ ENDP				; Vector::Length
_TEXT	ENDS
; Function compile flags: /Odtp /ZI
; File d:\!diffusion 2020\source code 2022\client-server\game_shared\vector.h
;	COMDAT ??GVector@@QBE?AV0@ABV0@@Z
_TEXT	SEGMENT
_this$ = -4						; size = 4
___$ReturnUdt$ = 8					; size = 4
_v$ = 12						; size = 4
??GVector@@QBE?AV0@ABV0@@Z PROC				; Vector::operator-, COMDAT
; _this$ = ecx

; 159  : 	inline Vector operator-(const Vector& v) const	{ return Vector(x-v.x, y-v.y, z-v.z);	   }

	push	ebp
	mov	ebp, esp
	sub	esp, 68					; 00000044H
	push	ebx
	push	esi
	push	edi
	mov	DWORD PTR _this$[ebp], ecx
	mov	eax, DWORD PTR _this$[ebp]
	mov	ecx, DWORD PTR _v$[ebp]
	movss	xmm0, DWORD PTR [eax+8]
	subss	xmm0, DWORD PTR [ecx+8]
	push	ecx
	movss	DWORD PTR [esp], xmm0
	mov	edx, DWORD PTR _this$[ebp]
	mov	eax, DWORD PTR _v$[ebp]
	movss	xmm0, DWORD PTR [edx+4]
	subss	xmm0, DWORD PTR [eax+4]
	push	ecx
	movss	DWORD PTR [esp], xmm0
	mov	ecx, DWORD PTR _this$[ebp]
	mov	edx, DWORD PTR _v$[ebp]
	movss	xmm0, DWORD PTR [ecx]
	subss	xmm0, DWORD PTR [edx]
	push	ecx
	movss	DWORD PTR [esp], xmm0
	mov	ecx, DWORD PTR ___$ReturnUdt$[ebp]
	call	??0Vector@@QAE@MMM@Z			; Vector::Vector
	mov	eax, DWORD PTR ___$ReturnUdt$[ebp]
	pop	edi
	pop	esi
	pop	ebx
	mov	esp, ebp
	pop	ebp
	ret	8
??GVector@@QBE?AV0@ABV0@@Z ENDP				; Vector::operator-
_TEXT	ENDS
; Function compile flags: /Odtp /ZI
; File d:\!diffusion 2020\source code 2022\client-server\game_shared\vector.h
;	COMDAT ??0Vector@@QAE@MMM@Z
_TEXT	SEGMENT
_this$ = -4						; size = 4
_X$ = 8							; size = 4
_Y$ = 12						; size = 4
_Z$ = 16						; size = 4
??0Vector@@QAE@MMM@Z PROC				; Vector::Vector, COMDAT
; _this$ = ecx

; 144  : 	inline Vector(float X, float Y, float Z)	{ x = X; y = Y; z = Z;                     }

	push	ebp
	mov	ebp, esp
	sub	esp, 68					; 00000044H
	push	ebx
	push	esi
	push	edi
	mov	DWORD PTR _this$[ebp], ecx
	mov	eax, DWORD PTR _this$[ebp]
	movss	xmm0, DWORD PTR _X$[ebp]
	movss	DWORD PTR [eax], xmm0
	mov	eax, DWORD PTR _this$[ebp]
	movss	xmm0, DWORD PTR _Y$[ebp]
	movss	DWORD PTR [eax+4], xmm0
	mov	eax, DWORD PTR _this$[ebp]
	movss	xmm0, DWORD PTR _Z$[ebp]
	movss	DWORD PTR [eax+8], xmm0
	mov	eax, DWORD PTR _this$[ebp]
	pop	edi
	pop	esi
	pop	ebx
	mov	esp, ebp
	pop	ebp
	ret	12					; 0000000cH
??0Vector@@QAE@MMM@Z ENDP				; Vector::Vector
_TEXT	ENDS
; Function compile flags: /Odtp /ZI
; File c:\program files (x86)\windows kits\10\include\10.0.10240.0\ucrt\stdio.h
;	COMDAT _vsprintf_s
_TEXT	SEGMENT
__Buffer$ = 8						; size = 4
__BufferCount$ = 12					; size = 4
__Format$ = 16						; size = 4
__ArgList$ = 20						; size = 4
_vsprintf_s PROC					; COMDAT

; 1515 :     {

	push	ebp
	mov	ebp, esp
	sub	esp, 64					; 00000040H
	push	ebx
	push	esi
	push	edi

; 1516 :         return _vsprintf_s_l(_Buffer, _BufferCount, _Format, NULL, _ArgList);

	mov	eax, DWORD PTR __ArgList$[ebp]
	push	eax
	push	0
	mov	ecx, DWORD PTR __Format$[ebp]
	push	ecx
	mov	edx, DWORD PTR __BufferCount$[ebp]
	push	edx
	mov	eax, DWORD PTR __Buffer$[ebp]
	push	eax
	call	__vsprintf_s_l
	add	esp, 20					; 00000014H

; 1517 :     }

	pop	edi
	pop	esi
	pop	ebx
	mov	esp, ebp
	pop	ebp
	ret	0
_vsprintf_s ENDP
_TEXT	ENDS
; Function compile flags: /Odtp /ZI
; File c:\program files (x86)\windows kits\10\include\10.0.10240.0\ucrt\stdio.h
;	COMDAT __vsprintf_s_l
_TEXT	SEGMENT
tv73 = -72						; size = 4
__Result$ = -4						; size = 4
__Buffer$ = 8						; size = 4
__BufferCount$ = 12					; size = 4
__Format$ = 16						; size = 4
__Locale$ = 20						; size = 4
__ArgList$ = 24						; size = 4
__vsprintf_s_l PROC					; COMDAT

; 1493 : {

	push	ebp
	mov	ebp, esp
	sub	esp, 72					; 00000048H
	push	ebx
	push	esi
	push	edi

; 1494 :     int const _Result = __stdio_common_vsprintf_s(

	mov	eax, DWORD PTR __ArgList$[ebp]
	push	eax
	mov	ecx, DWORD PTR __Locale$[ebp]
	push	ecx
	mov	edx, DWORD PTR __Format$[ebp]
	push	edx
	mov	eax, DWORD PTR __BufferCount$[ebp]
	push	eax
	mov	ecx, DWORD PTR __Buffer$[ebp]
	push	ecx
	call	___local_stdio_printf_options
	mov	edx, DWORD PTR [eax+4]
	push	edx
	mov	eax, DWORD PTR [eax]
	push	eax
	call	___stdio_common_vsprintf_s
	add	esp, 28					; 0000001cH
	mov	DWORD PTR __Result$[ebp], eax

; 1495 :         _CRT_INTERNAL_LOCAL_PRINTF_OPTIONS,
; 1496 :         _Buffer, _BufferCount, _Format, _Locale, _ArgList);
; 1497 : 
; 1498 :     return _Result < 0 ? -1 : _Result;

	cmp	DWORD PTR __Result$[ebp], 0
	jge	SHORT $LN3@vsprintf_s
	mov	DWORD PTR tv73[ebp], -1
	jmp	SHORT $LN4@vsprintf_s
$LN3@vsprintf_s:
	mov	eax, DWORD PTR __Result$[ebp]
	mov	DWORD PTR tv73[ebp], eax
$LN4@vsprintf_s:
	mov	eax, DWORD PTR tv73[ebp]

; 1499 : }

	pop	edi
	pop	esi
	pop	ebx
	mov	esp, ebp
	pop	ebp
	ret	0
__vsprintf_s_l ENDP
_TEXT	ENDS
; Function compile flags: /Odtp /ZI
; File c:\program files (x86)\windows kits\10\include\10.0.10240.0\ucrt\corecrt_stdio_config.h
;	COMDAT ___local_stdio_printf_options
_TEXT	SEGMENT
___local_stdio_printf_options PROC			; COMDAT

; 73   : {

	push	ebp
	mov	ebp, esp
	sub	esp, 64					; 00000040H
	push	ebx
	push	esi
	push	edi

; 74   :     static unsigned __int64 _OptionsStorage;
; 75   :     return &_OptionsStorage;

	mov	eax, OFFSET ?_OptionsStorage@?1??__local_stdio_printf_options@@9@4_KA ; `__local_stdio_printf_options'::`2'::_OptionsStorage

; 76   : }

	pop	edi
	pop	esi
	pop	ebx
	mov	esp, ebp
	pop	ebp
	ret	0
___local_stdio_printf_options ENDP
_TEXT	ENDS
; Function compile flags: /Odtp /ZI
;	COMDAT ??__G@YGXPAX0IIP6EPAX00@Z@Z
_TEXT	SEGMENT
tv66 = -68						; size = 4
___t$ = 8						; size = 4
___u$ = 12						; size = 4
___s$ = 16						; size = 4
___n$ = 20						; size = 4
___f$ = 24						; size = 4
??__G@YGXPAX0IIP6EPAX00@Z@Z PROC			; `vector copy constructor iterator', COMDAT
	push	ebp
	mov	ebp, esp
	sub	esp, 68					; 00000044H
	push	ebx
	push	esi
	push	edi
$LN2@vector:
	mov	eax, DWORD PTR ___n$[ebp]
	mov	DWORD PTR tv66[ebp], eax
	mov	ecx, DWORD PTR ___n$[ebp]
	sub	ecx, 1
	mov	DWORD PTR ___n$[ebp], ecx
	cmp	DWORD PTR tv66[ebp], 0
	jbe	SHORT $LN1@vector
	mov	eax, DWORD PTR ___u$[ebp]
	push	eax
	mov	ecx, DWORD PTR ___t$[ebp]
	call	DWORD PTR ___f$[ebp]
	mov	eax, DWORD PTR ___t$[ebp]
	add	eax, DWORD PTR ___s$[ebp]
	mov	DWORD PTR ___t$[ebp], eax
	mov	eax, DWORD PTR ___u$[ebp]
	add	eax, DWORD PTR ___s$[ebp]
	mov	DWORD PTR ___u$[ebp], eax
	jmp	SHORT $LN2@vector
$LN1@vector:
	pop	edi
	pop	esi
	pop	ebx
	mov	esp, ebp
	pop	ebp
	ret	20					; 00000014H
??__G@YGXPAX0IIP6EPAX00@Z@Z ENDP			; `vector copy constructor iterator'
_TEXT	ENDS
; Function compile flags: /Odtp /ZI
;	COMDAT ??_H@YGXPAXIIP6EPAX0@Z@Z
_TEXT	SEGMENT
tv66 = -68						; size = 4
___t$ = 8						; size = 4
___s$ = 12						; size = 4
___n$ = 16						; size = 4
___f$ = 20						; size = 4
??_H@YGXPAXIIP6EPAX0@Z@Z PROC				; `vector constructor iterator', COMDAT
	push	ebp
	mov	ebp, esp
	sub	esp, 68					; 00000044H
	push	ebx
	push	esi
	push	edi
$LN2@vector:
	mov	eax, DWORD PTR ___n$[ebp]
	mov	DWORD PTR tv66[ebp], eax
	mov	ecx, DWORD PTR ___n$[ebp]
	sub	ecx, 1
	mov	DWORD PTR ___n$[ebp], ecx
	cmp	DWORD PTR tv66[ebp], 0
	jbe	SHORT $LN1@vector
	mov	ecx, DWORD PTR ___t$[ebp]
	call	DWORD PTR ___f$[ebp]
	mov	eax, DWORD PTR ___t$[ebp]
	add	eax, DWORD PTR ___s$[ebp]
	mov	DWORD PTR ___t$[ebp], eax
	jmp	SHORT $LN2@vector
$LN1@vector:
	pop	edi
	pop	esi
	pop	ebx
	mov	esp, ebp
	pop	ebp
	ret	16					; 00000010H
??_H@YGXPAXIIP6EPAX0@Z@Z ENDP				; `vector constructor iterator'
_TEXT	ENDS
END
