; Listing generated by Microsoft (R) Optimizing Compiler Version 19.00.24247.2 

	TITLE	D:\!DIFFUSION 2020\source code 2022\client-server\client\hud_blasticon.cpp
	.686P
	.XMM
	include listing.inc
	.model	flat

INCLUDELIB LIBCMT
INCLUDELIB OLDNAMES

PUBLIC	??_H@YGXPAXIIP6EPAX0@Z@Z			; `vector constructor iterator'
PUBLIC	??__G@YGXPAX0IIP6EPAX00@Z@Z			; `vector copy constructor iterator'
PUBLIC	?Init@CHudBlastIcons@@UAEHXZ			; CHudBlastIcons::Init
PUBLIC	?VidInit@CHudBlastIcons@@UAEHXZ			; CHudBlastIcons::VidInit
PUBLIC	?MsgFunc_BlastIcons@CHudBlastIcons@@QAEHPBDHPAX@Z ; CHudBlastIcons::MsgFunc_BlastIcons
PUBLIC	?Draw@CHudBlastIcons@@UAEHM@Z			; CHudBlastIcons::Draw
PUBLIC	?GetSprite@CHud@@QAEHH@Z			; CHud::GetSprite
PUBLIC	?GetSpriteRect@CHud@@QAEAAUwrect_s@@H@Z		; CHud::GetSpriteRect
PUBLIC	?HasWeapon@CHud@@QAEHH@Z			; CHud::HasWeapon
PUBLIC	?UnpackRGB@@YAXAAH00K@Z				; UnpackRGB
PUBLIC	?__MsgFunc_BlastIcons@@YAHPBDHPAX@Z		; __MsgFunc_BlastIcons
PUBLIC	??_C@_0L@HDLMIABM@BlastIcons?$AA@		; `string'
PUBLIC	??_C@_0BB@CDJEBMED@hud_electroblast?$AA@	; `string'
PUBLIC	__real@00000000
PUBLIC	__real@43160000
PUBLIC	__real@437a0000
PUBLIC	__real@437f0000
EXTRN	?GetSpriteIndex@CHud@@QAEHPBD@Z:PROC		; CHud::GetSpriteIndex
EXTRN	?AddHudElem@CHud@@QAEXPAVCHudBase@@@Z:PROC	; CHud::AddHudElem
EXTRN	?ScaleColors@@YAXAAH00H@Z:PROC			; ScaleColors
EXTRN	?BEGIN_READ@@YAXPBDPAXH@Z:PROC			; BEGIN_READ
EXTRN	?END_READ@@YAXXZ:PROC				; END_READ
EXTRN	?READ_BYTE@@YAHXZ:PROC				; READ_BYTE
EXTRN	?gEngfuncs@@3Ucl_enginefuncs_s@@A:BYTE		; gEngfuncs
EXTRN	?gHUD@@3VCHud@@A:BYTE				; gHUD
EXTRN	?g_fFrametime@@3MA:DWORD			; g_fFrametime
EXTRN	?ui_is_active@@3PAUcvar_s@@A:DWORD		; ui_is_active
EXTRN	?tr@@3Uref_globals_t@@A:BYTE			; tr
EXTRN	__fltused:DWORD
;	COMDAT __real@437f0000
CONST	SEGMENT
__real@437f0000 DD 0437f0000r			; 255
CONST	ENDS
;	COMDAT __real@437a0000
CONST	SEGMENT
__real@437a0000 DD 0437a0000r			; 250
CONST	ENDS
;	COMDAT __real@43160000
CONST	SEGMENT
__real@43160000 DD 043160000r			; 150
CONST	ENDS
;	COMDAT __real@00000000
CONST	SEGMENT
__real@00000000 DD 000000000r			; 0
CONST	ENDS
;	COMDAT ??_C@_0BB@CDJEBMED@hud_electroblast?$AA@
CONST	SEGMENT
??_C@_0BB@CDJEBMED@hud_electroblast?$AA@ DB 'hud_electroblast', 00H ; `string'
CONST	ENDS
;	COMDAT ??_C@_0L@HDLMIABM@BlastIcons?$AA@
CONST	SEGMENT
??_C@_0L@HDLMIABM@BlastIcons?$AA@ DB 'BlastIcons', 00H	; `string'
CONST	ENDS
; Function compile flags: /Odtp /ZI
; File d:\!diffusion 2020\source code 2022\client-server\client\hud_blasticon.cpp
;	COMDAT ?__MsgFunc_BlastIcons@@YAHPBDHPAX@Z
_TEXT	SEGMENT
_pszName$ = 8						; size = 4
_iSize$ = 12						; size = 4
_pbuf$ = 16						; size = 4
?__MsgFunc_BlastIcons@@YAHPBDHPAX@Z PROC		; __MsgFunc_BlastIcons, COMDAT

; 10   : DECLARE_MESSAGE( m_BlastIcons, BlastIcons );

	push	ebp
	mov	ebp, esp
	sub	esp, 64					; 00000040H
	push	ebx
	push	esi
	push	edi
	mov	eax, DWORD PTR _pbuf$[ebp]
	push	eax
	mov	ecx, DWORD PTR _iSize$[ebp]
	push	ecx
	mov	edx, DWORD PTR _pszName$[ebp]
	push	edx
	mov	ecx, OFFSET ?gHUD@@3VCHud@@A+7856
	call	?MsgFunc_BlastIcons@CHudBlastIcons@@QAEHPBDHPAX@Z ; CHudBlastIcons::MsgFunc_BlastIcons
	pop	edi
	pop	esi
	pop	ebx
	mov	esp, ebp
	pop	ebp
	ret	0
?__MsgFunc_BlastIcons@@YAHPBDHPAX@Z ENDP		; __MsgFunc_BlastIcons
_TEXT	ENDS
; Function compile flags: /Odtp /ZI
; File d:\!diffusion 2020\source code 2022\client-server\client\utils.h
;	COMDAT ?UnpackRGB@@YAXAAH00K@Z
_TEXT	SEGMENT
_r$ = 8							; size = 4
_g$ = 12						; size = 4
_b$ = 16						; size = 4
_ulRGB$ = 20						; size = 4
?UnpackRGB@@YAXAAH00K@Z PROC				; UnpackRGB, COMDAT

; 98   : {\

	push	ebp
	mov	ebp, esp
	sub	esp, 64					; 00000040H
	push	ebx
	push	esi
	push	edi

; 99   : 	r = (ulRGB & 0xFF0000) >>16;\

	mov	eax, DWORD PTR _ulRGB$[ebp]
	and	eax, 16711680				; 00ff0000H
	shr	eax, 16					; 00000010H
	mov	ecx, DWORD PTR _r$[ebp]
	mov	DWORD PTR [ecx], eax

; 100  : 	g = (ulRGB & 0xFF00) >> 8;\

	mov	eax, DWORD PTR _ulRGB$[ebp]
	and	eax, 65280				; 0000ff00H
	shr	eax, 8
	mov	ecx, DWORD PTR _g$[ebp]
	mov	DWORD PTR [ecx], eax

; 101  : 	b = ulRGB & 0xFF;\

	mov	eax, DWORD PTR _ulRGB$[ebp]
	and	eax, 255				; 000000ffH
	mov	ecx, DWORD PTR _b$[ebp]
	mov	DWORD PTR [ecx], eax

; 102  : }

	pop	edi
	pop	esi
	pop	ebx
	mov	esp, ebp
	pop	ebp
	ret	0
?UnpackRGB@@YAXAAH00K@Z ENDP				; UnpackRGB
_TEXT	ENDS
; Function compile flags: /Odtp /ZI
; File d:\!diffusion 2020\source code 2022\client-server\client\hud.h
;	COMDAT ?HasWeapon@CHud@@QAEHH@Z
_TEXT	SEGMENT
_this$ = -4						; size = 4
_weaponnum$ = 8						; size = 4
?HasWeapon@CHud@@QAEHH@Z PROC				; CHud::HasWeapon, COMDAT
; _this$ = ecx

; 1038 : 	BOOL HasWeapon( int weaponnum ) { return FBitSet( m_iWeaponBits[weaponnum >> 3], BIT( weaponnum & 7 )); }

	push	ebp
	mov	ebp, esp
	sub	esp, 68					; 00000044H
	push	ebx
	push	esi
	push	edi
	mov	DWORD PTR _this$[ebp], ecx
	mov	eax, DWORD PTR _weaponnum$[ebp]
	sar	eax, 3
	mov	ecx, DWORD PTR _this$[ebp]
	movzx	eax, BYTE PTR [ecx+eax+8964]
	mov	ecx, DWORD PTR _weaponnum$[ebp]
	and	ecx, 7
	mov	edx, 1
	shl	edx, cl
	and	eax, edx
	pop	edi
	pop	esi
	pop	ebx
	mov	esp, ebp
	pop	ebp
	ret	4
?HasWeapon@CHud@@QAEHH@Z ENDP				; CHud::HasWeapon
_TEXT	ENDS
; Function compile flags: /Odtp /ZI
; File d:\!diffusion 2020\source code 2022\client-server\client\hud.h
;	COMDAT ?GetSpriteRect@CHud@@QAEAAUwrect_s@@H@Z
_TEXT	SEGMENT
_this$ = -4						; size = 4
_index$ = 8						; size = 4
?GetSpriteRect@CHud@@QAEAAUwrect_s@@H@Z PROC		; CHud::GetSpriteRect, COMDAT
; _this$ = ecx

; 952  : 	wrect_t& GetSpriteRect( int index ) { return m_rgrcRects[index]; }

	push	ebp
	mov	ebp, esp
	sub	esp, 68					; 00000044H
	push	ebx
	push	esi
	push	edi
	mov	DWORD PTR _this$[ebp], ecx
	mov	eax, DWORD PTR _index$[ebp]
	shl	eax, 4
	mov	ecx, DWORD PTR _this$[ebp]
	add	eax, DWORD PTR [ecx+232]
	pop	edi
	pop	esi
	pop	ebx
	mov	esp, ebp
	pop	ebp
	ret	4
?GetSpriteRect@CHud@@QAEAAUwrect_s@@H@Z ENDP		; CHud::GetSpriteRect
_TEXT	ENDS
; Function compile flags: /Odtp /ZI
; File d:\!diffusion 2020\source code 2022\client-server\client\hud.h
;	COMDAT ?GetSprite@CHud@@QAEHH@Z
_TEXT	SEGMENT
tv68 = -72						; size = 4
_this$ = -4						; size = 4
_index$ = 8						; size = 4
?GetSprite@CHud@@QAEHH@Z PROC				; CHud::GetSprite, COMDAT
; _this$ = ecx

; 951  : 	SpriteHandle GetSprite( int index ) { return (index < 0) ? 0 : m_rghSprites[index]; }

	push	ebp
	mov	ebp, esp
	sub	esp, 72					; 00000048H
	push	ebx
	push	esi
	push	edi
	mov	DWORD PTR _this$[ebp], ecx
	cmp	DWORD PTR _index$[ebp], 0
	jge	SHORT $LN3@GetSprite
	mov	DWORD PTR tv68[ebp], 0
	jmp	SHORT $LN4@GetSprite
$LN3@GetSprite:
	mov	eax, DWORD PTR _this$[ebp]
	mov	ecx, DWORD PTR [eax+228]
	mov	edx, DWORD PTR _index$[ebp]
	mov	eax, DWORD PTR [ecx+edx*4]
	mov	DWORD PTR tv68[ebp], eax
$LN4@GetSprite:
	mov	eax, DWORD PTR tv68[ebp]
	pop	edi
	pop	esi
	pop	ebx
	mov	esp, ebp
	pop	ebp
	ret	4
?GetSprite@CHud@@QAEHH@Z ENDP				; CHud::GetSprite
_TEXT	ENDS
; Function compile flags: /Odtp /ZI
; File d:\!diffusion 2020\source code 2022\client-server\client\hud_blasticon.cpp
;	COMDAT ?Draw@CHudBlastIcons@@UAEHM@Z
_TEXT	SEGMENT
tv288 = -140						; size = 4
tv222 = -140						; size = 4
tv157 = -140						; size = 4
tv287 = -136						; size = 4
tv221 = -136						; size = 4
tv156 = -136						; size = 4
tv74 = -133						; size = 1
_IconWidth$ = -68					; size = 4
_y3$ = -64						; size = 4
_x3$ = -60						; size = 4
_b3$ = -56						; size = 4
_g3$ = -52						; size = 4
_r3$ = -48						; size = 4
_y2$ = -44						; size = 4
_x2$ = -40						; size = 4
_b2$ = -36						; size = 4
_g2$ = -32						; size = 4
_r2$ = -28						; size = 4
_y1$ = -24						; size = 4
_x1$ = -20						; size = 4
_b1$ = -16						; size = 4
_g1$ = -12						; size = 4
_r1$ = -8						; size = 4
_this$ = -4						; size = 4
_flTime$ = 8						; size = 4
?Draw@CHudBlastIcons@@UAEHM@Z PROC			; CHudBlastIcons::Draw, COMDAT
; _this$ = ecx

; 48   : {

	push	ebp
	mov	ebp, esp
	sub	esp, 140				; 0000008cH
	push	ebx
	push	esi
	push	edi
	mov	DWORD PTR _this$[ebp], ecx

; 49   : 	if( gHUD.m_iHideHUDDisplay & (HIDEHUD_HEALTH | HIDEHUD_ALL) )

	mov	eax, DWORD PTR ?gHUD@@3VCHud@@A+76
	and	eax, 12					; 0000000cH
	je	SHORT $LN2@Draw

; 50   : 		return 1;

	mov	eax, 1
	jmp	$LN1@Draw
$LN2@Draw:

; 51   : 
; 52   : 	if( !gHUD.HasWeapon( WEAPON_SUIT ) )

	push	63					; 0000003fH
	mov	ecx, OFFSET ?gHUD@@3VCHud@@A		; gHUD
	call	?HasWeapon@CHud@@QAEHH@Z		; CHud::HasWeapon
	test	eax, eax
	jne	SHORT $LN3@Draw

; 53   : 		return 1;

	mov	eax, 1
	jmp	$LN1@Draw
$LN3@Draw:

; 54   : 
; 55   : 	if( tr.time == tr.oldtime ) // paused

	movsd	xmm0, QWORD PTR ?tr@@3Uref_globals_t@@A+8
	ucomisd	xmm0, QWORD PTR ?tr@@3Uref_globals_t@@A+16
	lahf
	test	ah, 68					; 00000044H
	jp	SHORT $LN4@Draw

; 56   : 		return 1;

	mov	eax, 1
	jmp	$LN1@Draw
$LN4@Draw:

; 57   : 
; 58   : 	if( CVAR_TO_BOOL( ui_is_active ) )

	cmp	DWORD PTR ?ui_is_active@@3PAUcvar_s@@A, 0 ; ui_is_active
	je	SHORT $LN34@Draw
	mov	eax, DWORD PTR ?ui_is_active@@3PAUcvar_s@@A ; ui_is_active
	movss	xmm0, DWORD PTR [eax+12]
	ucomiss	xmm0, DWORD PTR __real@00000000
	lahf
	test	ah, 68					; 00000044H
	jnp	SHORT $LN34@Draw
	mov	BYTE PTR tv74[ebp], 1
	jmp	SHORT $LN35@Draw
$LN34@Draw:
	mov	BYTE PTR tv74[ebp], 0
$LN35@Draw:
	movzx	ecx, BYTE PTR tv74[ebp]
	test	ecx, ecx
	je	SHORT $LN5@Draw

; 59   : 		return 0;

	xor	eax, eax
	jmp	$LN1@Draw
$LN5@Draw:

; 60   : 
; 61   : 	int r1, g1, b1, x1, y1 = 0;

	mov	DWORD PTR _y1$[ebp], 0

; 62   : 	int r2, g2, b2, x2, y2 = 0;

	mov	DWORD PTR _y2$[ebp], 0

; 63   : 	int r3, g3, b3, x3, y3 = 0;

	mov	DWORD PTR _y3$[ebp], 0

; 64   : 	int IconWidth = 54; // 48 + offset

	mov	DWORD PTR _IconWidth$[ebp], 54		; 00000036H

; 65   : 
; 66   : 	y1 = y2 = y3 = ScreenHeight - 75;

	mov	eax, DWORD PTR ?gHUD@@3VCHud@@A+8440
	sub	eax, 75					; 0000004bH
	mov	DWORD PTR _y3$[ebp], eax
	mov	ecx, DWORD PTR _y3$[ebp]
	mov	DWORD PTR _y2$[ebp], ecx
	mov	edx, DWORD PTR _y2$[ebp]
	mov	DWORD PTR _y1$[ebp], edx

; 67   : 
; 68   : 	//====================
; 69   : 	// first icon
; 70   : 	//====================
; 71   : 	if( BlastAbilityLVL > 0 )

	mov	eax, DWORD PTR _this$[ebp]
	cmp	DWORD PTR [eax+8], 0
	jle	$LN6@Draw

; 72   : 	{
; 73   : 		x1 = (ScreenWidth / 32) + 270;

	mov	eax, DWORD PTR ?gHUD@@3VCHud@@A+8436
	cdq
	and	edx, 31					; 0000001fH
	add	eax, edx
	sar	eax, 5
	add	eax, 270				; 0000010eH
	mov	DWORD PTR _x1$[ebp], eax

; 74   : 
; 75   : 		if( BlastChargesReady > 0 )

	mov	eax, DWORD PTR _this$[ebp]
	cmp	DWORD PTR [eax+12], 0
	jle	SHORT $LN7@Draw

; 76   : 		{
; 77   : 			if( CanElectroBlast )

	mov	eax, DWORD PTR _this$[ebp]
	movzx	ecx, BYTE PTR [eax+16]
	test	ecx, ecx
	je	SHORT $LN9@Draw

; 78   : 				UnpackRGB( r1, g1, b1, gHUD.m_iHUDColor );

	mov	eax, DWORD PTR ?gHUD@@3VCHud@@A+108
	push	eax
	lea	ecx, DWORD PTR _b1$[ebp]
	push	ecx
	lea	edx, DWORD PTR _g1$[ebp]
	push	edx
	lea	eax, DWORD PTR _r1$[ebp]
	push	eax
	call	?UnpackRGB@@YAXAAH00K@Z			; UnpackRGB
	add	esp, 16					; 00000010H

; 79   : 			else

	jmp	SHORT $LN10@Draw
$LN9@Draw:

; 80   : 				UnpackRGB( r1, g1, b1, RGB_GREY ); // grey

	push	7829367					; 00777777H
	lea	eax, DWORD PTR _b1$[ebp]
	push	eax
	lea	ecx, DWORD PTR _g1$[ebp]
	push	ecx
	lea	edx, DWORD PTR _r1$[ebp]
	push	edx
	call	?UnpackRGB@@YAXAAH00K@Z			; UnpackRGB
	add	esp, 16					; 00000010H
$LN10@Draw:

; 81   : 
; 82   : 			if( AlphaFade1 < 255 )

	mov	eax, DWORD PTR _this$[ebp]
	movss	xmm0, DWORD PTR __real@437f0000
	comiss	xmm0, DWORD PTR [eax+44]
	jbe	SHORT $LN11@Draw

; 83   : 				AlphaFade1 += 150 * g_fFrametime;

	movss	xmm0, DWORD PTR __real@43160000
	mulss	xmm0, DWORD PTR ?g_fFrametime@@3MA
	mov	eax, DWORD PTR _this$[ebp]
	addss	xmm0, DWORD PTR [eax+44]
	mov	ecx, DWORD PTR _this$[ebp]
	movss	DWORD PTR [ecx+44], xmm0
$LN11@Draw:

; 84   : 		}
; 85   : 		else

	jmp	SHORT $LN14@Draw
$LN7@Draw:

; 86   : 		{
; 87   : 			if( CanElectroBlast )

	mov	eax, DWORD PTR _this$[ebp]
	movzx	ecx, BYTE PTR [eax+16]
	test	ecx, ecx
	je	SHORT $LN12@Draw

; 88   : 				UnpackRGB( r1, g1, b1, RGB_RED );

	push	16724530				; 00ff3232H
	lea	eax, DWORD PTR _b1$[ebp]
	push	eax
	lea	ecx, DWORD PTR _g1$[ebp]
	push	ecx
	lea	edx, DWORD PTR _r1$[ebp]
	push	edx
	call	?UnpackRGB@@YAXAAH00K@Z			; UnpackRGB
	add	esp, 16					; 00000010H

; 89   : 			else

	jmp	SHORT $LN13@Draw
$LN12@Draw:

; 90   : 				UnpackRGB( r1, g1, b1, RGB_GREY );

	push	7829367					; 00777777H
	lea	eax, DWORD PTR _b1$[ebp]
	push	eax
	lea	ecx, DWORD PTR _g1$[ebp]
	push	ecx
	lea	edx, DWORD PTR _r1$[ebp]
	push	edx
	call	?UnpackRGB@@YAXAAH00K@Z			; UnpackRGB
	add	esp, 16					; 00000010H
$LN13@Draw:

; 91   : 
; 92   : 			if( AlphaFade1 > 0 )

	mov	eax, DWORD PTR _this$[ebp]
	movss	xmm0, DWORD PTR [eax+44]
	comiss	xmm0, DWORD PTR __real@00000000
	jbe	SHORT $LN14@Draw

; 93   : 				AlphaFade1 -= 250 * g_fFrametime;

	movss	xmm0, DWORD PTR __real@437a0000
	mulss	xmm0, DWORD PTR ?g_fFrametime@@3MA
	mov	eax, DWORD PTR _this$[ebp]
	movss	xmm1, DWORD PTR [eax+44]
	subss	xmm1, xmm0
	mov	ecx, DWORD PTR _this$[ebp]
	movss	DWORD PTR [ecx+44], xmm1
$LN14@Draw:

; 94   : 		}
; 95   : 
; 96   : 		AlphaFade1 = bound( 0, AlphaFade1, 255 );

	mov	eax, DWORD PTR _this$[ebp]
	movss	xmm0, DWORD PTR [eax+44]
	comiss	xmm0, DWORD PTR __real@00000000
	jb	SHORT $LN38@Draw
	mov	ecx, DWORD PTR _this$[ebp]
	movss	xmm0, DWORD PTR __real@437f0000
	comiss	xmm0, DWORD PTR [ecx+44]
	jbe	SHORT $LN36@Draw
	mov	edx, DWORD PTR _this$[ebp]
	movss	xmm0, DWORD PTR [edx+44]
	movss	DWORD PTR tv156[ebp], xmm0
	jmp	SHORT $LN37@Draw
$LN36@Draw:
	movss	xmm0, DWORD PTR __real@437f0000
	movss	DWORD PTR tv156[ebp], xmm0
$LN37@Draw:
	movss	xmm0, DWORD PTR tv156[ebp]
	movss	DWORD PTR tv157[ebp], xmm0
	jmp	SHORT $LN39@Draw
$LN38@Draw:
	xorps	xmm0, xmm0
	movss	DWORD PTR tv157[ebp], xmm0
$LN39@Draw:
	mov	eax, DWORD PTR _this$[ebp]
	movss	xmm0, DWORD PTR tv157[ebp]
	movss	DWORD PTR [eax+44], xmm0

; 97   : 		ScaleColors( r1, g1, b1, (int)AlphaFade1 );

	mov	eax, DWORD PTR _this$[ebp]
	cvttss2si ecx, DWORD PTR [eax+44]
	push	ecx
	lea	edx, DWORD PTR _b1$[ebp]
	push	edx
	lea	eax, DWORD PTR _g1$[ebp]
	push	eax
	lea	ecx, DWORD PTR _r1$[ebp]
	push	ecx
	call	?ScaleColors@@YAXAAH00H@Z		; ScaleColors
	add	esp, 16					; 00000010H

; 98   : 
; 99   : 		SPR_Set( m_hBlastIcon1, r1, g1, b1 );

	mov	eax, DWORD PTR _b1$[ebp]
	push	eax
	mov	ecx, DWORD PTR _g1$[ebp]
	push	ecx
	mov	edx, DWORD PTR _r1$[ebp]
	push	edx
	mov	eax, DWORD PTR _this$[ebp]
	mov	ecx, DWORD PTR [eax+20]
	push	ecx
	call	DWORD PTR ?gEngfuncs@@3Ucl_enginefuncs_s@@A+16
	add	esp, 16					; 00000010H

; 100  : 		SPR_DrawAdditive( 0, x1, y1, rc1 );

	mov	eax, DWORD PTR _this$[ebp]
	mov	ecx, DWORD PTR [eax+32]
	push	ecx
	mov	edx, DWORD PTR _y1$[ebp]
	push	edx
	mov	eax, DWORD PTR _x1$[ebp]
	push	eax
	push	0
	call	DWORD PTR ?gEngfuncs@@3Ucl_enginefuncs_s@@A+28
	add	esp, 16					; 00000010H
$LN6@Draw:

; 101  : 	}
; 102  : 
; 103  : 	//====================
; 104  : 	// second icon
; 105  : 	//====================
; 106  : 	if( BlastAbilityLVL > 1 )

	mov	eax, DWORD PTR _this$[ebp]
	cmp	DWORD PTR [eax+8], 1
	jle	$LN15@Draw

; 107  : 	{
; 108  : 		x2 = (ScreenWidth / 32) + 270 + IconWidth;

	mov	eax, DWORD PTR ?gHUD@@3VCHud@@A+8436
	cdq
	and	edx, 31					; 0000001fH
	add	eax, edx
	sar	eax, 5
	mov	ecx, DWORD PTR _IconWidth$[ebp]
	lea	edx, DWORD PTR [eax+ecx+270]
	mov	DWORD PTR _x2$[ebp], edx

; 109  : 
; 110  : 		if( BlastChargesReady > 1 )

	mov	eax, DWORD PTR _this$[ebp]
	cmp	DWORD PTR [eax+12], 1
	jle	SHORT $LN16@Draw

; 111  : 		{
; 112  : 			if( CanElectroBlast )

	mov	eax, DWORD PTR _this$[ebp]
	movzx	ecx, BYTE PTR [eax+16]
	test	ecx, ecx
	je	SHORT $LN18@Draw

; 113  : 				UnpackRGB( r2, g2, b2, gHUD.m_iHUDColor );

	mov	eax, DWORD PTR ?gHUD@@3VCHud@@A+108
	push	eax
	lea	ecx, DWORD PTR _b2$[ebp]
	push	ecx
	lea	edx, DWORD PTR _g2$[ebp]
	push	edx
	lea	eax, DWORD PTR _r2$[ebp]
	push	eax
	call	?UnpackRGB@@YAXAAH00K@Z			; UnpackRGB
	add	esp, 16					; 00000010H

; 114  : 			else

	jmp	SHORT $LN19@Draw
$LN18@Draw:

; 115  : 				UnpackRGB( r2, g2, b2, RGB_GREY ); // grey

	push	7829367					; 00777777H
	lea	eax, DWORD PTR _b2$[ebp]
	push	eax
	lea	ecx, DWORD PTR _g2$[ebp]
	push	ecx
	lea	edx, DWORD PTR _r2$[ebp]
	push	edx
	call	?UnpackRGB@@YAXAAH00K@Z			; UnpackRGB
	add	esp, 16					; 00000010H
$LN19@Draw:

; 116  : 
; 117  : 			if( AlphaFade2 < 255 )

	mov	eax, DWORD PTR _this$[ebp]
	movss	xmm0, DWORD PTR __real@437f0000
	comiss	xmm0, DWORD PTR [eax+48]
	jbe	SHORT $LN20@Draw

; 118  : 				AlphaFade2 += 150 * g_fFrametime;

	movss	xmm0, DWORD PTR __real@43160000
	mulss	xmm0, DWORD PTR ?g_fFrametime@@3MA
	mov	eax, DWORD PTR _this$[ebp]
	addss	xmm0, DWORD PTR [eax+48]
	mov	ecx, DWORD PTR _this$[ebp]
	movss	DWORD PTR [ecx+48], xmm0
$LN20@Draw:

; 119  : 		}
; 120  : 		else

	jmp	SHORT $LN23@Draw
$LN16@Draw:

; 121  : 		{
; 122  : 			if( CanElectroBlast )

	mov	eax, DWORD PTR _this$[ebp]
	movzx	ecx, BYTE PTR [eax+16]
	test	ecx, ecx
	je	SHORT $LN21@Draw

; 123  : 				UnpackRGB( r2, g2, b2, RGB_RED );

	push	16724530				; 00ff3232H
	lea	eax, DWORD PTR _b2$[ebp]
	push	eax
	lea	ecx, DWORD PTR _g2$[ebp]
	push	ecx
	lea	edx, DWORD PTR _r2$[ebp]
	push	edx
	call	?UnpackRGB@@YAXAAH00K@Z			; UnpackRGB
	add	esp, 16					; 00000010H

; 124  : 			else

	jmp	SHORT $LN22@Draw
$LN21@Draw:

; 125  : 				UnpackRGB( r2, g2, b2, RGB_GREY ); // grey

	push	7829367					; 00777777H
	lea	eax, DWORD PTR _b2$[ebp]
	push	eax
	lea	ecx, DWORD PTR _g2$[ebp]
	push	ecx
	lea	edx, DWORD PTR _r2$[ebp]
	push	edx
	call	?UnpackRGB@@YAXAAH00K@Z			; UnpackRGB
	add	esp, 16					; 00000010H
$LN22@Draw:

; 126  : 
; 127  : 			if( AlphaFade2 > 0 )

	mov	eax, DWORD PTR _this$[ebp]
	movss	xmm0, DWORD PTR [eax+48]
	comiss	xmm0, DWORD PTR __real@00000000
	jbe	SHORT $LN23@Draw

; 128  : 				AlphaFade2 -= 250 * g_fFrametime;

	movss	xmm0, DWORD PTR __real@437a0000
	mulss	xmm0, DWORD PTR ?g_fFrametime@@3MA
	mov	eax, DWORD PTR _this$[ebp]
	movss	xmm1, DWORD PTR [eax+48]
	subss	xmm1, xmm0
	mov	ecx, DWORD PTR _this$[ebp]
	movss	DWORD PTR [ecx+48], xmm1
$LN23@Draw:

; 129  : 		}
; 130  : 
; 131  : 		AlphaFade2 = bound( 0, AlphaFade2, 255 );

	mov	eax, DWORD PTR _this$[ebp]
	movss	xmm0, DWORD PTR [eax+48]
	comiss	xmm0, DWORD PTR __real@00000000
	jb	SHORT $LN42@Draw
	mov	ecx, DWORD PTR _this$[ebp]
	movss	xmm0, DWORD PTR __real@437f0000
	comiss	xmm0, DWORD PTR [ecx+48]
	jbe	SHORT $LN40@Draw
	mov	edx, DWORD PTR _this$[ebp]
	movss	xmm0, DWORD PTR [edx+48]
	movss	DWORD PTR tv221[ebp], xmm0
	jmp	SHORT $LN41@Draw
$LN40@Draw:
	movss	xmm0, DWORD PTR __real@437f0000
	movss	DWORD PTR tv221[ebp], xmm0
$LN41@Draw:
	movss	xmm0, DWORD PTR tv221[ebp]
	movss	DWORD PTR tv222[ebp], xmm0
	jmp	SHORT $LN43@Draw
$LN42@Draw:
	xorps	xmm0, xmm0
	movss	DWORD PTR tv222[ebp], xmm0
$LN43@Draw:
	mov	eax, DWORD PTR _this$[ebp]
	movss	xmm0, DWORD PTR tv222[ebp]
	movss	DWORD PTR [eax+48], xmm0

; 132  : 		ScaleColors( r2, g2, b2, (int)AlphaFade2 );

	mov	eax, DWORD PTR _this$[ebp]
	cvttss2si ecx, DWORD PTR [eax+48]
	push	ecx
	lea	edx, DWORD PTR _b2$[ebp]
	push	edx
	lea	eax, DWORD PTR _g2$[ebp]
	push	eax
	lea	ecx, DWORD PTR _r2$[ebp]
	push	ecx
	call	?ScaleColors@@YAXAAH00H@Z		; ScaleColors
	add	esp, 16					; 00000010H

; 133  : 
; 134  : 		SPR_Set( m_hBlastIcon2, r2, g2, b2 );

	mov	eax, DWORD PTR _b2$[ebp]
	push	eax
	mov	ecx, DWORD PTR _g2$[ebp]
	push	ecx
	mov	edx, DWORD PTR _r2$[ebp]
	push	edx
	mov	eax, DWORD PTR _this$[ebp]
	mov	ecx, DWORD PTR [eax+24]
	push	ecx
	call	DWORD PTR ?gEngfuncs@@3Ucl_enginefuncs_s@@A+16
	add	esp, 16					; 00000010H

; 135  : 		SPR_DrawAdditive( 0, x2, y2, rc2 );

	mov	eax, DWORD PTR _this$[ebp]
	mov	ecx, DWORD PTR [eax+36]
	push	ecx
	mov	edx, DWORD PTR _y2$[ebp]
	push	edx
	mov	eax, DWORD PTR _x2$[ebp]
	push	eax
	push	0
	call	DWORD PTR ?gEngfuncs@@3Ucl_enginefuncs_s@@A+28
	add	esp, 16					; 00000010H
$LN15@Draw:

; 136  : 	}
; 137  : 
; 138  : 	//====================
; 139  : 	// third icon
; 140  : 	//====================
; 141  : 	if( BlastAbilityLVL > 2 )

	mov	eax, DWORD PTR _this$[ebp]
	cmp	DWORD PTR [eax+8], 2
	jle	$LN24@Draw

; 142  : 	{
; 143  : 		x3 = (ScreenWidth / 32) + 270 + IconWidth + IconWidth;

	mov	eax, DWORD PTR ?gHUD@@3VCHud@@A+8436
	cdq
	and	edx, 31					; 0000001fH
	add	eax, edx
	sar	eax, 5
	mov	ecx, DWORD PTR _IconWidth$[ebp]
	lea	edx, DWORD PTR [eax+ecx+270]
	add	edx, DWORD PTR _IconWidth$[ebp]
	mov	DWORD PTR _x3$[ebp], edx

; 144  : 
; 145  : 		if( BlastChargesReady > 2 )

	mov	eax, DWORD PTR _this$[ebp]
	cmp	DWORD PTR [eax+12], 2
	jle	SHORT $LN25@Draw

; 146  : 		{
; 147  : 			if( CanElectroBlast )

	mov	eax, DWORD PTR _this$[ebp]
	movzx	ecx, BYTE PTR [eax+16]
	test	ecx, ecx
	je	SHORT $LN27@Draw

; 148  : 				UnpackRGB( r3, g3, b3, gHUD.m_iHUDColor );

	mov	eax, DWORD PTR ?gHUD@@3VCHud@@A+108
	push	eax
	lea	ecx, DWORD PTR _b3$[ebp]
	push	ecx
	lea	edx, DWORD PTR _g3$[ebp]
	push	edx
	lea	eax, DWORD PTR _r3$[ebp]
	push	eax
	call	?UnpackRGB@@YAXAAH00K@Z			; UnpackRGB
	add	esp, 16					; 00000010H

; 149  : 			else

	jmp	SHORT $LN28@Draw
$LN27@Draw:

; 150  : 				UnpackRGB( r3, g3, b3, RGB_GREY ); // grey

	push	7829367					; 00777777H
	lea	eax, DWORD PTR _b3$[ebp]
	push	eax
	lea	ecx, DWORD PTR _g3$[ebp]
	push	ecx
	lea	edx, DWORD PTR _r3$[ebp]
	push	edx
	call	?UnpackRGB@@YAXAAH00K@Z			; UnpackRGB
	add	esp, 16					; 00000010H
$LN28@Draw:

; 151  : 
; 152  : 			if( AlphaFade3 < 255 )

	mov	eax, DWORD PTR _this$[ebp]
	movss	xmm0, DWORD PTR __real@437f0000
	comiss	xmm0, DWORD PTR [eax+52]
	jbe	SHORT $LN29@Draw

; 153  : 				AlphaFade3 += 150 * g_fFrametime;

	movss	xmm0, DWORD PTR __real@43160000
	mulss	xmm0, DWORD PTR ?g_fFrametime@@3MA
	mov	eax, DWORD PTR _this$[ebp]
	addss	xmm0, DWORD PTR [eax+52]
	mov	ecx, DWORD PTR _this$[ebp]
	movss	DWORD PTR [ecx+52], xmm0
$LN29@Draw:

; 154  : 		}
; 155  : 		else

	jmp	SHORT $LN32@Draw
$LN25@Draw:

; 156  : 		{
; 157  : 			if( CanElectroBlast )

	mov	eax, DWORD PTR _this$[ebp]
	movzx	ecx, BYTE PTR [eax+16]
	test	ecx, ecx
	je	SHORT $LN30@Draw

; 158  : 				UnpackRGB( r3, g3, b3, RGB_RED );

	push	16724530				; 00ff3232H
	lea	eax, DWORD PTR _b3$[ebp]
	push	eax
	lea	ecx, DWORD PTR _g3$[ebp]
	push	ecx
	lea	edx, DWORD PTR _r3$[ebp]
	push	edx
	call	?UnpackRGB@@YAXAAH00K@Z			; UnpackRGB
	add	esp, 16					; 00000010H

; 159  : 			else

	jmp	SHORT $LN31@Draw
$LN30@Draw:

; 160  : 				UnpackRGB( r3, g3, b3, RGB_GREY ); // grey

	push	7829367					; 00777777H
	lea	eax, DWORD PTR _b3$[ebp]
	push	eax
	lea	ecx, DWORD PTR _g3$[ebp]
	push	ecx
	lea	edx, DWORD PTR _r3$[ebp]
	push	edx
	call	?UnpackRGB@@YAXAAH00K@Z			; UnpackRGB
	add	esp, 16					; 00000010H
$LN31@Draw:

; 161  : 
; 162  : 			if( AlphaFade3 > 0 )

	mov	eax, DWORD PTR _this$[ebp]
	movss	xmm0, DWORD PTR [eax+52]
	comiss	xmm0, DWORD PTR __real@00000000
	jbe	SHORT $LN32@Draw

; 163  : 				AlphaFade3 -= 250 * g_fFrametime;

	movss	xmm0, DWORD PTR __real@437a0000
	mulss	xmm0, DWORD PTR ?g_fFrametime@@3MA
	mov	eax, DWORD PTR _this$[ebp]
	movss	xmm1, DWORD PTR [eax+52]
	subss	xmm1, xmm0
	mov	ecx, DWORD PTR _this$[ebp]
	movss	DWORD PTR [ecx+52], xmm1
$LN32@Draw:

; 164  : 		}
; 165  : 
; 166  : 		AlphaFade3 = bound( 0, AlphaFade3, 255 );

	mov	eax, DWORD PTR _this$[ebp]
	movss	xmm0, DWORD PTR [eax+52]
	comiss	xmm0, DWORD PTR __real@00000000
	jb	SHORT $LN46@Draw
	mov	ecx, DWORD PTR _this$[ebp]
	movss	xmm0, DWORD PTR __real@437f0000
	comiss	xmm0, DWORD PTR [ecx+52]
	jbe	SHORT $LN44@Draw
	mov	edx, DWORD PTR _this$[ebp]
	movss	xmm0, DWORD PTR [edx+52]
	movss	DWORD PTR tv287[ebp], xmm0
	jmp	SHORT $LN45@Draw
$LN44@Draw:
	movss	xmm0, DWORD PTR __real@437f0000
	movss	DWORD PTR tv287[ebp], xmm0
$LN45@Draw:
	movss	xmm0, DWORD PTR tv287[ebp]
	movss	DWORD PTR tv288[ebp], xmm0
	jmp	SHORT $LN47@Draw
$LN46@Draw:
	xorps	xmm0, xmm0
	movss	DWORD PTR tv288[ebp], xmm0
$LN47@Draw:
	mov	eax, DWORD PTR _this$[ebp]
	movss	xmm0, DWORD PTR tv288[ebp]
	movss	DWORD PTR [eax+52], xmm0

; 167  : 		ScaleColors( r3, g3, b3, (int)AlphaFade3 );

	mov	eax, DWORD PTR _this$[ebp]
	cvttss2si ecx, DWORD PTR [eax+52]
	push	ecx
	lea	edx, DWORD PTR _b3$[ebp]
	push	edx
	lea	eax, DWORD PTR _g3$[ebp]
	push	eax
	lea	ecx, DWORD PTR _r3$[ebp]
	push	ecx
	call	?ScaleColors@@YAXAAH00H@Z		; ScaleColors
	add	esp, 16					; 00000010H

; 168  : 
; 169  : 		SPR_Set( m_hBlastIcon3, r3, g3, b3 );

	mov	eax, DWORD PTR _b3$[ebp]
	push	eax
	mov	ecx, DWORD PTR _g3$[ebp]
	push	ecx
	mov	edx, DWORD PTR _r3$[ebp]
	push	edx
	mov	eax, DWORD PTR _this$[ebp]
	mov	ecx, DWORD PTR [eax+28]
	push	ecx
	call	DWORD PTR ?gEngfuncs@@3Ucl_enginefuncs_s@@A+16
	add	esp, 16					; 00000010H

; 170  : 		SPR_DrawAdditive( 0, x3, y3, rc3 );

	mov	eax, DWORD PTR _this$[ebp]
	mov	ecx, DWORD PTR [eax+40]
	push	ecx
	mov	edx, DWORD PTR _y3$[ebp]
	push	edx
	mov	eax, DWORD PTR _x3$[ebp]
	push	eax
	push	0
	call	DWORD PTR ?gEngfuncs@@3Ucl_enginefuncs_s@@A+28
	add	esp, 16					; 00000010H
$LN24@Draw:

; 171  : 	}
; 172  : 
; 173  : 
; 174  : 	return 1;

	mov	eax, 1
$LN1@Draw:

; 175  : }

	pop	edi
	pop	esi
	pop	ebx
	mov	esp, ebp
	pop	ebp
	ret	4
?Draw@CHudBlastIcons@@UAEHM@Z ENDP			; CHudBlastIcons::Draw
_TEXT	ENDS
; Function compile flags: /Odtp /ZI
; File d:\!diffusion 2020\source code 2022\client-server\client\hud_blasticon.cpp
;	COMDAT ?MsgFunc_BlastIcons@CHudBlastIcons@@QAEHPBDHPAX@Z
_TEXT	SEGMENT
tv74 = -72						; size = 4
_this$ = -4						; size = 4
_pszName$ = 8						; size = 4
_iSize$ = 12						; size = 4
_pbuf$ = 16						; size = 4
?MsgFunc_BlastIcons@CHudBlastIcons@@QAEHPBDHPAX@Z PROC	; CHudBlastIcons::MsgFunc_BlastIcons, COMDAT
; _this$ = ecx

; 32   : {

	push	ebp
	mov	ebp, esp
	sub	esp, 72					; 00000048H
	push	ebx
	push	esi
	push	edi
	mov	DWORD PTR _this$[ebp], ecx

; 33   : 	BEGIN_READ( pszName, pbuf, iSize );

	mov	eax, DWORD PTR _iSize$[ebp]
	push	eax
	mov	ecx, DWORD PTR _pbuf$[ebp]
	push	ecx
	mov	edx, DWORD PTR _pszName$[ebp]
	push	edx
	call	?BEGIN_READ@@YAXPBDPAXH@Z		; BEGIN_READ
	add	esp, 12					; 0000000cH

; 34   : 	BlastAbilityLVL = READ_BYTE(); // this determines the number of icons (0-3)

	call	?READ_BYTE@@YAHXZ			; READ_BYTE
	mov	ecx, DWORD PTR _this$[ebp]
	mov	DWORD PTR [ecx+8], eax

; 35   : 	BlastChargesReady = READ_BYTE(); // ready charge is blue, not ready - red

	call	?READ_BYTE@@YAHXZ			; READ_BYTE
	mov	ecx, DWORD PTR _this$[ebp]
	mov	DWORD PTR [ecx+12], eax

; 36   : 	CanElectroBlast = (READ_BYTE() > 0); // suspended by script - can't use, draw grey icons

	call	?READ_BYTE@@YAHXZ			; READ_BYTE
	test	eax, eax
	jle	SHORT $LN5@MsgFunc_Bl
	mov	DWORD PTR tv74[ebp], 1
	jmp	SHORT $LN6@MsgFunc_Bl
$LN5@MsgFunc_Bl:
	mov	DWORD PTR tv74[ebp], 0
$LN6@MsgFunc_Bl:
	mov	eax, DWORD PTR _this$[ebp]
	mov	cl, BYTE PTR tv74[ebp]
	mov	BYTE PTR [eax+16], cl

; 37   : 	END_READ();

	call	?END_READ@@YAXXZ			; END_READ

; 38   : 
; 39   : 	if( BlastAbilityLVL > 0)

	mov	eax, DWORD PTR _this$[ebp]
	cmp	DWORD PTR [eax+8], 0
	jle	SHORT $LN2@MsgFunc_Bl

; 40   : 		m_iFlags |= HUD_ACTIVE;

	mov	eax, DWORD PTR _this$[ebp]
	mov	ecx, DWORD PTR [eax+4]
	or	ecx, 1
	mov	edx, DWORD PTR _this$[ebp]
	mov	DWORD PTR [edx+4], ecx

; 41   : 	else

	jmp	SHORT $LN3@MsgFunc_Bl
$LN2@MsgFunc_Bl:

; 42   : 		m_iFlags &= ~HUD_ACTIVE;

	mov	eax, DWORD PTR _this$[ebp]
	mov	ecx, DWORD PTR [eax+4]
	and	ecx, -2					; fffffffeH
	mov	edx, DWORD PTR _this$[ebp]
	mov	DWORD PTR [edx+4], ecx
$LN3@MsgFunc_Bl:

; 43   : 
; 44   : 	return 1;

	mov	eax, 1

; 45   : }

	pop	edi
	pop	esi
	pop	ebx
	mov	esp, ebp
	pop	ebp
	ret	12					; 0000000cH
?MsgFunc_BlastIcons@CHudBlastIcons@@QAEHPBDHPAX@Z ENDP	; CHudBlastIcons::MsgFunc_BlastIcons
_TEXT	ENDS
; Function compile flags: /Odtp /ZI
; File d:\!diffusion 2020\source code 2022\client-server\client\hud_blasticon.cpp
;	COMDAT ?VidInit@CHudBlastIcons@@UAEHXZ
_TEXT	SEGMENT
_spr$ = -8						; size = 4
_this$ = -4						; size = 4
?VidInit@CHudBlastIcons@@UAEHXZ PROC			; CHudBlastIcons::VidInit, COMDAT
; _this$ = ecx

; 20   : {

	push	ebp
	mov	ebp, esp
	sub	esp, 72					; 00000048H
	push	ebx
	push	esi
	push	edi
	mov	DWORD PTR _this$[ebp], ecx

; 21   : 	int spr = gHUD.GetSpriteIndex( "hud_electroblast" );

	push	OFFSET ??_C@_0BB@CDJEBMED@hud_electroblast?$AA@
	mov	ecx, OFFSET ?gHUD@@3VCHud@@A		; gHUD
	call	?GetSpriteIndex@CHud@@QAEHPBD@Z		; CHud::GetSpriteIndex
	mov	DWORD PTR _spr$[ebp], eax

; 22   : 	m_hBlastIcon1 = gHUD.GetSprite( spr );

	mov	eax, DWORD PTR _spr$[ebp]
	push	eax
	mov	ecx, OFFSET ?gHUD@@3VCHud@@A		; gHUD
	call	?GetSprite@CHud@@QAEHH@Z		; CHud::GetSprite
	mov	ecx, DWORD PTR _this$[ebp]
	mov	DWORD PTR [ecx+20], eax

; 23   : 	rc1 = &gHUD.GetSpriteRect( spr );

	mov	eax, DWORD PTR _spr$[ebp]
	push	eax
	mov	ecx, OFFSET ?gHUD@@3VCHud@@A		; gHUD
	call	?GetSpriteRect@CHud@@QAEAAUwrect_s@@H@Z	; CHud::GetSpriteRect
	mov	ecx, DWORD PTR _this$[ebp]
	mov	DWORD PTR [ecx+32], eax

; 24   : 	m_hBlastIcon3 = m_hBlastIcon2 = m_hBlastIcon1;

	mov	eax, DWORD PTR _this$[ebp]
	mov	ecx, DWORD PTR _this$[ebp]
	mov	edx, DWORD PTR [ecx+20]
	mov	DWORD PTR [eax+24], edx
	mov	eax, DWORD PTR _this$[ebp]
	mov	ecx, DWORD PTR _this$[ebp]
	mov	edx, DWORD PTR [ecx+24]
	mov	DWORD PTR [eax+28], edx

; 25   : 	rc3 = rc2 = rc1;

	mov	eax, DWORD PTR _this$[ebp]
	mov	ecx, DWORD PTR _this$[ebp]
	mov	edx, DWORD PTR [ecx+32]
	mov	DWORD PTR [eax+36], edx
	mov	eax, DWORD PTR _this$[ebp]
	mov	ecx, DWORD PTR _this$[ebp]
	mov	edx, DWORD PTR [ecx+36]
	mov	DWORD PTR [eax+40], edx

; 26   : 	AlphaFade1 = AlphaFade2 = AlphaFade3 = 0.0f;

	mov	eax, DWORD PTR _this$[ebp]
	xorps	xmm0, xmm0
	movss	DWORD PTR [eax+52], xmm0
	mov	ecx, DWORD PTR _this$[ebp]
	xorps	xmm0, xmm0
	movss	DWORD PTR [ecx+48], xmm0
	mov	edx, DWORD PTR _this$[ebp]
	xorps	xmm0, xmm0
	movss	DWORD PTR [edx+44], xmm0

; 27   : 
; 28   : 	return 1;

	mov	eax, 1

; 29   : }

	pop	edi
	pop	esi
	pop	ebx
	mov	esp, ebp
	pop	ebp
	ret	0
?VidInit@CHudBlastIcons@@UAEHXZ ENDP			; CHudBlastIcons::VidInit
_TEXT	ENDS
; Function compile flags: /Odtp /ZI
; File d:\!diffusion 2020\source code 2022\client-server\client\hud_blasticon.cpp
;	COMDAT ?Init@CHudBlastIcons@@UAEHXZ
_TEXT	SEGMENT
_this$ = -4						; size = 4
?Init@CHudBlastIcons@@UAEHXZ PROC			; CHudBlastIcons::Init, COMDAT
; _this$ = ecx

; 13   : {

	push	ebp
	mov	ebp, esp
	sub	esp, 68					; 00000044H
	push	ebx
	push	esi
	push	edi
	mov	DWORD PTR _this$[ebp], ecx

; 14   : 	HOOK_MESSAGE( BlastIcons );

	push	OFFSET ?__MsgFunc_BlastIcons@@YAHPBDHPAX@Z ; __MsgFunc_BlastIcons
	push	OFFSET ??_C@_0L@HDLMIABM@BlastIcons?$AA@
	call	DWORD PTR ?gEngfuncs@@3Ucl_enginefuncs_s@@A+72
	add	esp, 8

; 15   : 	gHUD.AddHudElem( this );

	mov	eax, DWORD PTR _this$[ebp]
	push	eax
	mov	ecx, OFFSET ?gHUD@@3VCHud@@A		; gHUD
	call	?AddHudElem@CHud@@QAEXPAVCHudBase@@@Z	; CHud::AddHudElem

; 16   : 	return 1;

	mov	eax, 1

; 17   : }

	pop	edi
	pop	esi
	pop	ebx
	mov	esp, ebp
	pop	ebp
	ret	0
?Init@CHudBlastIcons@@UAEHXZ ENDP			; CHudBlastIcons::Init
_TEXT	ENDS
; Function compile flags: /Odtp /ZI
;	COMDAT ??__G@YGXPAX0IIP6EPAX00@Z@Z
_TEXT	SEGMENT
tv66 = -68						; size = 4
___t$ = 8						; size = 4
___u$ = 12						; size = 4
___s$ = 16						; size = 4
___n$ = 20						; size = 4
___f$ = 24						; size = 4
??__G@YGXPAX0IIP6EPAX00@Z@Z PROC			; `vector copy constructor iterator', COMDAT
	push	ebp
	mov	ebp, esp
	sub	esp, 68					; 00000044H
	push	ebx
	push	esi
	push	edi
$LN2@vector:
	mov	eax, DWORD PTR ___n$[ebp]
	mov	DWORD PTR tv66[ebp], eax
	mov	ecx, DWORD PTR ___n$[ebp]
	sub	ecx, 1
	mov	DWORD PTR ___n$[ebp], ecx
	cmp	DWORD PTR tv66[ebp], 0
	jbe	SHORT $LN1@vector
	mov	eax, DWORD PTR ___u$[ebp]
	push	eax
	mov	ecx, DWORD PTR ___t$[ebp]
	call	DWORD PTR ___f$[ebp]
	mov	eax, DWORD PTR ___t$[ebp]
	add	eax, DWORD PTR ___s$[ebp]
	mov	DWORD PTR ___t$[ebp], eax
	mov	eax, DWORD PTR ___u$[ebp]
	add	eax, DWORD PTR ___s$[ebp]
	mov	DWORD PTR ___u$[ebp], eax
	jmp	SHORT $LN2@vector
$LN1@vector:
	pop	edi
	pop	esi
	pop	ebx
	mov	esp, ebp
	pop	ebp
	ret	20					; 00000014H
??__G@YGXPAX0IIP6EPAX00@Z@Z ENDP			; `vector copy constructor iterator'
_TEXT	ENDS
; Function compile flags: /Odtp /ZI
;	COMDAT ??_H@YGXPAXIIP6EPAX0@Z@Z
_TEXT	SEGMENT
tv66 = -68						; size = 4
___t$ = 8						; size = 4
___s$ = 12						; size = 4
___n$ = 16						; size = 4
___f$ = 20						; size = 4
??_H@YGXPAXIIP6EPAX0@Z@Z PROC				; `vector constructor iterator', COMDAT
	push	ebp
	mov	ebp, esp
	sub	esp, 68					; 00000044H
	push	ebx
	push	esi
	push	edi
$LN2@vector:
	mov	eax, DWORD PTR ___n$[ebp]
	mov	DWORD PTR tv66[ebp], eax
	mov	ecx, DWORD PTR ___n$[ebp]
	sub	ecx, 1
	mov	DWORD PTR ___n$[ebp], ecx
	cmp	DWORD PTR tv66[ebp], 0
	jbe	SHORT $LN1@vector
	mov	ecx, DWORD PTR ___t$[ebp]
	call	DWORD PTR ___f$[ebp]
	mov	eax, DWORD PTR ___t$[ebp]
	add	eax, DWORD PTR ___s$[ebp]
	mov	DWORD PTR ___t$[ebp], eax
	jmp	SHORT $LN2@vector
$LN1@vector:
	pop	edi
	pop	esi
	pop	ebx
	mov	esp, ebp
	pop	ebp
	ret	16					; 00000010H
??_H@YGXPAXIIP6EPAX0@Z@Z ENDP				; `vector constructor iterator'
_TEXT	ENDS
END
