; Listing generated by Microsoft (R) Optimizing Compiler Version 19.00.24247.2 

	TITLE	D:\!DIFFUSION 2020\source code 2022\client-server\client\hud_pain.cpp
	.686P
	.XMM
	include listing.inc
	.model	flat

INCLUDELIB LIBCMT
INCLUDELIB OLDNAMES

PUBLIC	?giDmgHeight@@3HA				; giDmgHeight
PUBLIC	?giDmgWidth@@3HA				; giDmgWidth
PUBLIC	?giDmgFlags@@3PAHA				; giDmgFlags
_BSS	SEGMENT
?giDmgHeight@@3HA DD 01H DUP (?)			; giDmgHeight
?giDmgWidth@@3HA DD 01H DUP (?)				; giDmgWidth
_BSS	ENDS
_DATA	SEGMENT
?giDmgFlags@@3PAHA DD 020000H				; giDmgFlags
	DD	0100000H
	DD	0400010H
	DD	04000H
	DD	0200008H
	DD	010000H
	DD	040000H
	DD	0100H
	DD	0800000H
_DATA	ENDS
PUBLIC	??_H@YGXPAXIIP6EPAX0@Z@Z			; `vector constructor iterator'
PUBLIC	??__G@YGXPAX0IIP6EPAX00@Z@Z			; `vector copy constructor iterator'
PUBLIC	??0Vector@@QAE@XZ				; Vector::Vector
PUBLIC	??0Vector@@QAE@MMM@Z				; Vector::Vector
PUBLIC	??0Vector@@QAE@ABV0@@Z				; Vector::Vector
PUBLIC	??8Vector@@QBEHABV0@@Z				; Vector::operator==
PUBLIC	??ZVector@@QAEAAV0@ABV0@@Z			; Vector::operator-=
PUBLIC	?Length@Vector@@QBEMXZ				; Vector::Length
PUBLIC	??BVector@@QAEPAMXZ				; Vector::operator float *
PUBLIC	?Normalize@Vector@@QBE?AV1@XZ			; Vector::Normalize
PUBLIC	?DotProduct@@YAMABVVector@@0@Z			; DotProduct
PUBLIC	?Init@CHudHealth@@UAEHXZ			; CHudHealth::Init
PUBLIC	?VidInit@CHudHealth@@UAEHXZ			; CHudHealth::VidInit
PUBLIC	?Draw@CHudHealth@@UAEHM@Z			; CHudHealth::Draw
PUBLIC	?Reset@CHudHealth@@UAEXXZ			; CHudHealth::Reset
PUBLIC	?MsgFunc_Health@CHudHealth@@QAEHPBDHPAX@Z	; CHudHealth::MsgFunc_Health
PUBLIC	?MsgFunc_Damage@CHudHealth@@QAEHPBDHPAX@Z	; CHudHealth::MsgFunc_Damage
PUBLIC	?GetPainColor@CHudHealth@@QAEXAAH00@Z		; CHudHealth::GetPainColor
PUBLIC	?DrawPain@CHudHealth@@AAEHM@Z			; CHudHealth::DrawPain
PUBLIC	?DrawDamage@CHudHealth@@AAEHM@Z			; CHudHealth::DrawDamage
PUBLIC	?CalcDamageDirection@CHudHealth@@AAEXVVector@@@Z ; CHudHealth::CalcDamageDirection
PUBLIC	?UpdateTiles@CHudHealth@@AAEXMJ@Z		; CHudHealth::UpdateTiles
PUBLIC	?GetSprite@CHud@@QAEHH@Z			; CHud::GetSprite
PUBLIC	?GetSpriteRect@CHud@@QAEAAUwrect_s@@H@Z		; CHud::GetSpriteRect
PUBLIC	?UnpackRGB@@YAXAAH00K@Z				; UnpackRGB
PUBLIC	?__MsgFunc_Health@@YAHPBDHPAX@Z			; __MsgFunc_Health
PUBLIC	?__MsgFunc_Damage@@YAHPBDHPAX@Z			; __MsgFunc_Damage
PUBLIC	??_C@_06GGDALCBD@Health?$AA@			; `string'
PUBLIC	??_C@_06KGFFMMMJ@Damage?$AA@			; `string'
PUBLIC	??_C@_07LPODHMEF@dmg_bio?$AA@			; `string'
PUBLIC	??_C@_05HCKPILGO@cross?$AA@			; `string'
PUBLIC	??_C@_0BF@LHFKGLEJ@sprites?1640_pain?4spr?$AA@	; `string'
PUBLIC	__real@00000000
PUBLIC	__real@3e99999a
PUBLIC	__real@3ecccccd
PUBLIC	__real@3f000000
PUBLIC	__real@3f800000
PUBLIC	__real@40000000
PUBLIC	__real@4000000000000000
PUBLIC	__real@4070000000000000
PUBLIC	__real@42480000
PUBLIC	__real@42c80000
EXTRN	_memset:PROC
EXTRN	_fabs:PROC
EXTRN	_sin:PROC
EXTRN	_sqrt:PROC
EXTRN	?GetSpriteIndex@CHud@@QAEHPBD@Z:PROC		; CHud::GetSpriteIndex
EXTRN	?AddHudElem@CHud@@QAEXPAVCHudBase@@@Z:PROC	; CHud::AddHudElem
EXTRN	?ScaleColors@@YAXAAH00H@Z:PROC			; ScaleColors
EXTRN	?LoadSprite@@YAHPBD@Z:PROC			; LoadSprite
EXTRN	?BEGIN_READ@@YAXPBDPAXH@Z:PROC			; BEGIN_READ
EXTRN	?END_READ@@YAXXZ:PROC				; END_READ
EXTRN	?READ_BYTE@@YAHXZ:PROC				; READ_BYTE
EXTRN	?READ_LONG@@YAHXZ:PROC				; READ_LONG
EXTRN	?READ_COORD@@YAMXZ:PROC				; READ_COORD
EXTRN	?g_vecZero@@3VVector@@B:BYTE			; g_vecZero
EXTRN	?gEngfuncs@@3Ucl_enginefuncs_s@@A:BYTE		; gEngfuncs
EXTRN	?gHUD@@3VCHud@@A:BYTE				; gHUD
EXTRN	?g_iUser1@@3HA:DWORD				; g_iUser1
EXTRN	?ApplyGaussBlur@@3_NA:BYTE			; ApplyGaussBlur
EXTRN	?ApplyDamageMonochrome@@3_NA:BYTE		; ApplyDamageMonochrome
EXTRN	?tr@@3Uref_globals_t@@A:BYTE			; tr
EXTRN	__fltused:DWORD
;	COMDAT __real@42c80000
CONST	SEGMENT
__real@42c80000 DD 042c80000r			; 100
CONST	ENDS
;	COMDAT __real@42480000
CONST	SEGMENT
__real@42480000 DD 042480000r			; 50
CONST	ENDS
;	COMDAT __real@4070000000000000
CONST	SEGMENT
__real@4070000000000000 DQ 04070000000000000r	; 256
CONST	ENDS
;	COMDAT __real@4000000000000000
CONST	SEGMENT
__real@4000000000000000 DQ 04000000000000000r	; 2
CONST	ENDS
;	COMDAT __real@40000000
CONST	SEGMENT
__real@40000000 DD 040000000r			; 2
CONST	ENDS
;	COMDAT __real@3f800000
CONST	SEGMENT
__real@3f800000 DD 03f800000r			; 1
CONST	ENDS
;	COMDAT __real@3f000000
CONST	SEGMENT
__real@3f000000 DD 03f000000r			; 0.5
CONST	ENDS
;	COMDAT __real@3ecccccd
CONST	SEGMENT
__real@3ecccccd DD 03ecccccdr			; 0.4
CONST	ENDS
;	COMDAT __real@3e99999a
CONST	SEGMENT
__real@3e99999a DD 03e99999ar			; 0.3
CONST	ENDS
;	COMDAT __real@00000000
CONST	SEGMENT
__real@00000000 DD 000000000r			; 0
CONST	ENDS
;	COMDAT ??_C@_0BF@LHFKGLEJ@sprites?1640_pain?4spr?$AA@
CONST	SEGMENT
??_C@_0BF@LHFKGLEJ@sprites?1640_pain?4spr?$AA@ DB 'sprites/640_pain.spr', 00H ; `string'
CONST	ENDS
;	COMDAT ??_C@_05HCKPILGO@cross?$AA@
CONST	SEGMENT
??_C@_05HCKPILGO@cross?$AA@ DB 'cross', 00H		; `string'
CONST	ENDS
;	COMDAT ??_C@_07LPODHMEF@dmg_bio?$AA@
CONST	SEGMENT
??_C@_07LPODHMEF@dmg_bio?$AA@ DB 'dmg_bio', 00H		; `string'
CONST	ENDS
;	COMDAT ??_C@_06KGFFMMMJ@Damage?$AA@
CONST	SEGMENT
??_C@_06KGFFMMMJ@Damage?$AA@ DB 'Damage', 00H		; `string'
CONST	ENDS
;	COMDAT ??_C@_06GGDALCBD@Health?$AA@
CONST	SEGMENT
??_C@_06GGDALCBD@Health?$AA@ DB 'Health', 00H		; `string'
CONST	ENDS
; Function compile flags: /Odtp /ZI
; File d:\!diffusion 2020\source code 2022\client-server\client\hud_pain.cpp
;	COMDAT ?__MsgFunc_Damage@@YAHPBDHPAX@Z
_TEXT	SEGMENT
_pszName$ = 8						; size = 4
_iSize$ = 12						; size = 4
_pbuf$ = 16						; size = 4
?__MsgFunc_Damage@@YAHPBDHPAX@Z PROC			; __MsgFunc_Damage, COMDAT

; 27   : DECLARE_MESSAGE( m_Health, Damage )

	push	ebp
	mov	ebp, esp
	sub	esp, 64					; 00000040H
	push	ebx
	push	esi
	push	edi
	mov	eax, DWORD PTR _pbuf$[ebp]
	push	eax
	mov	ecx, DWORD PTR _iSize$[ebp]
	push	ecx
	mov	edx, DWORD PTR _pszName$[ebp]
	push	edx
	mov	ecx, OFFSET ?gHUD@@3VCHud@@A+276
	call	?MsgFunc_Damage@CHudHealth@@QAEHPBDHPAX@Z ; CHudHealth::MsgFunc_Damage
	pop	edi
	pop	esi
	pop	ebx
	mov	esp, ebp
	pop	ebp
	ret	0
?__MsgFunc_Damage@@YAHPBDHPAX@Z ENDP			; __MsgFunc_Damage
_TEXT	ENDS
; Function compile flags: /Odtp /ZI
; File d:\!diffusion 2020\source code 2022\client-server\client\hud_pain.cpp
;	COMDAT ?__MsgFunc_Health@@YAHPBDHPAX@Z
_TEXT	SEGMENT
_pszName$ = 8						; size = 4
_iSize$ = 12						; size = 4
_pbuf$ = 16						; size = 4
?__MsgFunc_Health@@YAHPBDHPAX@Z PROC			; __MsgFunc_Health, COMDAT

; 26   : DECLARE_MESSAGE( m_Health, Health )

	push	ebp
	mov	ebp, esp
	sub	esp, 64					; 00000040H
	push	ebx
	push	esi
	push	edi
	mov	eax, DWORD PTR _pbuf$[ebp]
	push	eax
	mov	ecx, DWORD PTR _iSize$[ebp]
	push	ecx
	mov	edx, DWORD PTR _pszName$[ebp]
	push	edx
	mov	ecx, OFFSET ?gHUD@@3VCHud@@A+276
	call	?MsgFunc_Health@CHudHealth@@QAEHPBDHPAX@Z ; CHudHealth::MsgFunc_Health
	pop	edi
	pop	esi
	pop	ebx
	mov	esp, ebp
	pop	ebp
	ret	0
?__MsgFunc_Health@@YAHPBDHPAX@Z ENDP			; __MsgFunc_Health
_TEXT	ENDS
; Function compile flags: /Odtp /ZI
; File d:\!diffusion 2020\source code 2022\client-server\client\utils.h
;	COMDAT ?UnpackRGB@@YAXAAH00K@Z
_TEXT	SEGMENT
_r$ = 8							; size = 4
_g$ = 12						; size = 4
_b$ = 16						; size = 4
_ulRGB$ = 20						; size = 4
?UnpackRGB@@YAXAAH00K@Z PROC				; UnpackRGB, COMDAT

; 98   : {\

	push	ebp
	mov	ebp, esp
	sub	esp, 64					; 00000040H
	push	ebx
	push	esi
	push	edi

; 99   : 	r = (ulRGB & 0xFF0000) >>16;\

	mov	eax, DWORD PTR _ulRGB$[ebp]
	and	eax, 16711680				; 00ff0000H
	shr	eax, 16					; 00000010H
	mov	ecx, DWORD PTR _r$[ebp]
	mov	DWORD PTR [ecx], eax

; 100  : 	g = (ulRGB & 0xFF00) >> 8;\

	mov	eax, DWORD PTR _ulRGB$[ebp]
	and	eax, 65280				; 0000ff00H
	shr	eax, 8
	mov	ecx, DWORD PTR _g$[ebp]
	mov	DWORD PTR [ecx], eax

; 101  : 	b = ulRGB & 0xFF;\

	mov	eax, DWORD PTR _ulRGB$[ebp]
	and	eax, 255				; 000000ffH
	mov	ecx, DWORD PTR _b$[ebp]
	mov	DWORD PTR [ecx], eax

; 102  : }

	pop	edi
	pop	esi
	pop	ebx
	mov	esp, ebp
	pop	ebp
	ret	0
?UnpackRGB@@YAXAAH00K@Z ENDP				; UnpackRGB
_TEXT	ENDS
; Function compile flags: /Odtp /ZI
; File d:\!diffusion 2020\source code 2022\client-server\client\hud.h
;	COMDAT ?GetSpriteRect@CHud@@QAEAAUwrect_s@@H@Z
_TEXT	SEGMENT
_this$ = -4						; size = 4
_index$ = 8						; size = 4
?GetSpriteRect@CHud@@QAEAAUwrect_s@@H@Z PROC		; CHud::GetSpriteRect, COMDAT
; _this$ = ecx

; 952  : 	wrect_t& GetSpriteRect( int index ) { return m_rgrcRects[index]; }

	push	ebp
	mov	ebp, esp
	sub	esp, 68					; 00000044H
	push	ebx
	push	esi
	push	edi
	mov	DWORD PTR _this$[ebp], ecx
	mov	eax, DWORD PTR _index$[ebp]
	shl	eax, 4
	mov	ecx, DWORD PTR _this$[ebp]
	add	eax, DWORD PTR [ecx+232]
	pop	edi
	pop	esi
	pop	ebx
	mov	esp, ebp
	pop	ebp
	ret	4
?GetSpriteRect@CHud@@QAEAAUwrect_s@@H@Z ENDP		; CHud::GetSpriteRect
_TEXT	ENDS
; Function compile flags: /Odtp /ZI
; File d:\!diffusion 2020\source code 2022\client-server\client\hud.h
;	COMDAT ?GetSprite@CHud@@QAEHH@Z
_TEXT	SEGMENT
tv68 = -72						; size = 4
_this$ = -4						; size = 4
_index$ = 8						; size = 4
?GetSprite@CHud@@QAEHH@Z PROC				; CHud::GetSprite, COMDAT
; _this$ = ecx

; 951  : 	SpriteHandle GetSprite( int index ) { return (index < 0) ? 0 : m_rghSprites[index]; }

	push	ebp
	mov	ebp, esp
	sub	esp, 72					; 00000048H
	push	ebx
	push	esi
	push	edi
	mov	DWORD PTR _this$[ebp], ecx
	cmp	DWORD PTR _index$[ebp], 0
	jge	SHORT $LN3@GetSprite
	mov	DWORD PTR tv68[ebp], 0
	jmp	SHORT $LN4@GetSprite
$LN3@GetSprite:
	mov	eax, DWORD PTR _this$[ebp]
	mov	ecx, DWORD PTR [eax+228]
	mov	edx, DWORD PTR _index$[ebp]
	mov	eax, DWORD PTR [ecx+edx*4]
	mov	DWORD PTR tv68[ebp], eax
$LN4@GetSprite:
	mov	eax, DWORD PTR tv68[ebp]
	pop	edi
	pop	esi
	pop	ebx
	mov	esp, ebp
	pop	ebp
	ret	4
?GetSprite@CHud@@QAEHH@Z ENDP				; CHud::GetSprite
_TEXT	ENDS
; Function compile flags: /Odtp /ZI
; File d:\!diffusion 2020\source code 2022\client-server\client\hud_pain.cpp
;	COMDAT ?UpdateTiles@CHudHealth@@AAEXMJ@Z
_TEXT	SEGMENT
_j$1 = -20						; size = 4
_i$2 = -16						; size = 4
_bitsOn$ = -12						; size = 4
_pdmg$ = -8						; size = 4
_this$ = -4						; size = 4
_flTime$ = 8						; size = 4
_bitsDamage$ = 12					; size = 4
?UpdateTiles@CHudHealth@@AAEXMJ@Z PROC			; CHudHealth::UpdateTiles, COMDAT
; _this$ = ecx

; 438  : {	

	push	ebp
	mov	ebp, esp
	sub	esp, 84					; 00000054H
	push	ebx
	push	esi
	push	edi
	mov	DWORD PTR _this$[ebp], ecx

; 439  : 	DAMAGE_IMAGE *pdmg;
; 440  : 
; 441  : 	// Which types are new?
; 442  : 	long bitsOn = ~m_bitsDamage & bitsDamage;

	mov	eax, DWORD PTR _this$[ebp]
	mov	ecx, DWORD PTR [eax+40]
	not	ecx
	and	ecx, DWORD PTR _bitsDamage$[ebp]
	mov	DWORD PTR _bitsOn$[ebp], ecx

; 443  : 	
; 444  : 	for( int i = 0; i < NUM_DMG_TYPES; i++)

	mov	DWORD PTR _i$2[ebp], 0
	jmp	SHORT $LN4@UpdateTile
$LN2@UpdateTile:
	mov	eax, DWORD PTR _i$2[ebp]
	add	eax, 1
	mov	DWORD PTR _i$2[ebp], eax
$LN4@UpdateTile:
	cmp	DWORD PTR _i$2[ebp], 9
	jge	$LN3@UpdateTile

; 445  : 	{
; 446  : 		pdmg = &m_dmg[i];

	mov	eax, DWORD PTR _i$2[ebp]
	shl	eax, 4
	mov	ecx, DWORD PTR _this$[ebp]
	lea	edx, DWORD PTR [ecx+eax+56]
	mov	DWORD PTR _pdmg$[ebp], edx

; 447  : 
; 448  : 		// Is this one already on?
; 449  : 		if( m_bitsDamage & giDmgFlags[i] )

	mov	eax, DWORD PTR _this$[ebp]
	mov	ecx, DWORD PTR _i$2[ebp]
	mov	edx, DWORD PTR [eax+40]
	and	edx, DWORD PTR ?giDmgFlags@@3PAHA[ecx*4]
	je	SHORT $LN9@UpdateTile

; 450  : 		{
; 451  : 			pdmg->fExpire = flTime + DMG_IMAGE_LIFE; // extend the duration

	movss	xmm0, DWORD PTR _flTime$[ebp]
	addss	xmm0, DWORD PTR __real@40000000
	mov	eax, DWORD PTR _pdmg$[ebp]
	movss	DWORD PTR [eax], xmm0

; 452  : 			if( !pdmg->fBaseline )

	mov	eax, DWORD PTR _pdmg$[ebp]
	movss	xmm0, DWORD PTR [eax+4]
	ucomiss	xmm0, DWORD PTR __real@00000000
	lahf
	test	ah, 68					; 00000044H
	jp	SHORT $LN9@UpdateTile

; 453  : 				pdmg->fBaseline = flTime;

	mov	eax, DWORD PTR _pdmg$[ebp]
	movss	xmm0, DWORD PTR _flTime$[ebp]
	movss	DWORD PTR [eax+4], xmm0
$LN9@UpdateTile:

; 454  : 		}
; 455  : 
; 456  : 		// Are we just turning it on?
; 457  : 		if( bitsOn & giDmgFlags[i] )

	mov	eax, DWORD PTR _i$2[ebp]
	mov	ecx, DWORD PTR _bitsOn$[ebp]
	and	ecx, DWORD PTR ?giDmgFlags@@3PAHA[eax*4]
	je	$LN10@UpdateTile

; 458  : 		{
; 459  : 			// put this one at the bottom
; 460  : 			pdmg->x = giDmgWidth / 8;

	mov	eax, DWORD PTR ?giDmgWidth@@3HA		; giDmgWidth
	cdq
	and	edx, 7
	add	eax, edx
	sar	eax, 3
	mov	ecx, DWORD PTR _pdmg$[ebp]
	mov	DWORD PTR [ecx+8], eax

; 461  : 			pdmg->y = ScreenHeight - giDmgHeight * 2 - 200; // diffusion - added 200 to put icons higher

	mov	eax, DWORD PTR ?giDmgHeight@@3HA	; giDmgHeight
	shl	eax, 1
	mov	ecx, DWORD PTR ?gHUD@@3VCHud@@A+8440
	sub	ecx, eax
	sub	ecx, 200				; 000000c8H
	mov	edx, DWORD PTR _pdmg$[ebp]
	mov	DWORD PTR [edx+12], ecx

; 462  : 			pdmg->fExpire=flTime + DMG_IMAGE_LIFE;

	movss	xmm0, DWORD PTR _flTime$[ebp]
	addss	xmm0, DWORD PTR __real@40000000
	mov	eax, DWORD PTR _pdmg$[ebp]
	movss	DWORD PTR [eax], xmm0

; 463  : 			
; 464  : 			// move everyone else up
; 465  : 			for( int j = 0; j < NUM_DMG_TYPES; j++ )

	mov	DWORD PTR _j$1[ebp], 0
	jmp	SHORT $LN7@UpdateTile
$LN5@UpdateTile:
	mov	eax, DWORD PTR _j$1[ebp]
	add	eax, 1
	mov	DWORD PTR _j$1[ebp], eax
$LN7@UpdateTile:
	cmp	DWORD PTR _j$1[ebp], 9
	jge	SHORT $LN6@UpdateTile

; 466  : 			{
; 467  : 				if( j == i )

	mov	eax, DWORD PTR _j$1[ebp]
	cmp	eax, DWORD PTR _i$2[ebp]
	jne	SHORT $LN11@UpdateTile

; 468  : 					continue;

	jmp	SHORT $LN5@UpdateTile
$LN11@UpdateTile:

; 469  : 
; 470  : 				pdmg = &m_dmg[j];

	mov	eax, DWORD PTR _j$1[ebp]
	shl	eax, 4
	mov	ecx, DWORD PTR _this$[ebp]
	lea	edx, DWORD PTR [ecx+eax+56]
	mov	DWORD PTR _pdmg$[ebp], edx

; 471  : 				if( pdmg->y )

	mov	eax, DWORD PTR _pdmg$[ebp]
	cmp	DWORD PTR [eax+12], 0
	je	SHORT $LN12@UpdateTile

; 472  : 					pdmg->y -= giDmgHeight;

	mov	eax, DWORD PTR _pdmg$[ebp]
	mov	ecx, DWORD PTR [eax+12]
	sub	ecx, DWORD PTR ?giDmgHeight@@3HA	; giDmgHeight
	mov	edx, DWORD PTR _pdmg$[ebp]
	mov	DWORD PTR [edx+12], ecx
$LN12@UpdateTile:

; 473  : 
; 474  : 			}

	jmp	SHORT $LN5@UpdateTile
$LN6@UpdateTile:

; 475  : 
; 476  : 			pdmg = &m_dmg[i];

	mov	eax, DWORD PTR _i$2[ebp]
	shl	eax, 4
	mov	ecx, DWORD PTR _this$[ebp]
	lea	edx, DWORD PTR [ecx+eax+56]
	mov	DWORD PTR _pdmg$[ebp], edx
$LN10@UpdateTile:

; 477  : 		}	
; 478  : 	}	

	jmp	$LN2@UpdateTile
$LN3@UpdateTile:

; 479  : 
; 480  : 	// damage bits are only turned on here;  they are turned off when the draw time has expired (in DrawDamage())
; 481  : 	m_bitsDamage |= bitsDamage;

	mov	eax, DWORD PTR _this$[ebp]
	mov	ecx, DWORD PTR [eax+40]
	or	ecx, DWORD PTR _bitsDamage$[ebp]
	mov	edx, DWORD PTR _this$[ebp]
	mov	DWORD PTR [edx+40], ecx

; 482  : }

	pop	edi
	pop	esi
	pop	ebx
	mov	esp, ebp
	pop	ebp
	ret	8
?UpdateTiles@CHudHealth@@AAEXMJ@Z ENDP			; CHudHealth::UpdateTiles
_TEXT	ENDS
; Function compile flags: /Odtp /ZI
; File d:\!diffusion 2020\source code 2022\client-server\client\hud_pain.cpp
;	COMDAT ?CalcDamageDirection@CHudHealth@@AAEXVVector@@@Z
_TEXT	SEGMENT
tv173 = -164						; size = 4
tv163 = -164						; size = 4
tv156 = -164						; size = 4
tv146 = -164						; size = 4
$T1 = -160						; size = 12
_f$2 = -84						; size = 4
_f$3 = -80						; size = 4
_flDistToTarget$ = -76					; size = 4
_vecAngles$ = -72					; size = 12
_vecOrigin$ = -60					; size = 12
_front$ = -48						; size = 4
_side$ = -44						; size = 4
_up$ = -40						; size = 12
_right$ = -28						; size = 12
_forward$ = -16						; size = 12
_this$ = -4						; size = 4
_vecFrom$ = 8						; size = 12
?CalcDamageDirection@CHudHealth@@AAEXVVector@@@Z PROC	; CHudHealth::CalcDamageDirection, COMDAT
; _this$ = ecx

; 243  : {

	push	ebp
	mov	ebp, esp
	sub	esp, 164				; 000000a4H
	push	ebx
	push	esi
	push	edi
	mov	DWORD PTR _this$[ebp], ecx

; 244  : 	Vector	forward, right, up;

	lea	ecx, DWORD PTR _forward$[ebp]
	call	??0Vector@@QAE@XZ			; Vector::Vector
	lea	ecx, DWORD PTR _right$[ebp]
	call	??0Vector@@QAE@XZ			; Vector::Vector
	lea	ecx, DWORD PTR _up$[ebp]
	call	??0Vector@@QAE@XZ			; Vector::Vector

; 245  : 	float	side, front;
; 246  : 	Vector	vecOrigin, vecAngles;

	lea	ecx, DWORD PTR _vecOrigin$[ebp]
	call	??0Vector@@QAE@XZ			; Vector::Vector
	lea	ecx, DWORD PTR _vecAngles$[ebp]
	call	??0Vector@@QAE@XZ			; Vector::Vector

; 247  : 
; 248  : 	if( vecFrom == g_vecZero )

	push	OFFSET ?g_vecZero@@3VVector@@B		; g_vecZero
	lea	ecx, DWORD PTR _vecFrom$[ebp]
	call	??8Vector@@QBEHABV0@@Z			; Vector::operator==
	test	eax, eax
	je	SHORT $LN2@CalcDamage

; 249  : 	{
; 250  : 		m_fAttackFront = m_fAttackRear = m_fAttackRight = m_fAttackLeft = 0;

	mov	eax, DWORD PTR _this$[ebp]
	xorps	xmm0, xmm0
	movss	DWORD PTR [eax+16], xmm0
	mov	ecx, DWORD PTR _this$[ebp]
	xorps	xmm0, xmm0
	movss	DWORD PTR [ecx+20], xmm0
	mov	edx, DWORD PTR _this$[ebp]
	xorps	xmm0, xmm0
	movss	DWORD PTR [edx+12], xmm0
	mov	eax, DWORD PTR _this$[ebp]
	xorps	xmm0, xmm0
	movss	DWORD PTR [eax+8], xmm0

; 251  : 		return;

	jmp	$LN1@CalcDamage
$LN2@CalcDamage:

; 252  : 	}
; 253  : 	
; 254  : 	vecOrigin = gHUD.m_vecOrigin;

	mov	eax, DWORD PTR ?gHUD@@3VCHud@@A+48
	mov	DWORD PTR _vecOrigin$[ebp], eax
	mov	ecx, DWORD PTR ?gHUD@@3VCHud@@A+52
	mov	DWORD PTR _vecOrigin$[ebp+4], ecx
	mov	edx, DWORD PTR ?gHUD@@3VCHud@@A+56
	mov	DWORD PTR _vecOrigin$[ebp+8], edx

; 255  : 	vecAngles = gHUD.m_vecAngles;

	mov	eax, DWORD PTR ?gHUD@@3VCHud@@A+60
	mov	DWORD PTR _vecAngles$[ebp], eax
	mov	ecx, DWORD PTR ?gHUD@@3VCHud@@A+64
	mov	DWORD PTR _vecAngles$[ebp+4], ecx
	mov	edx, DWORD PTR ?gHUD@@3VCHud@@A+68
	mov	DWORD PTR _vecAngles$[ebp+8], edx

; 256  : 
; 257  : 	vecFrom -= vecOrigin;

	lea	eax, DWORD PTR _vecOrigin$[ebp]
	push	eax
	lea	ecx, DWORD PTR _vecFrom$[ebp]
	call	??ZVector@@QAEAAV0@ABV0@@Z		; Vector::operator-=

; 258  : 
; 259  : 	float flDistToTarget = vecFrom.Length();

	lea	ecx, DWORD PTR _vecFrom$[ebp]
	call	?Length@Vector@@QBEMXZ			; Vector::Length
	fstp	DWORD PTR _flDistToTarget$[ebp]

; 260  : 
; 261  : 	vecFrom = vecFrom.Normalize();

	lea	eax, DWORD PTR $T1[ebp]
	push	eax
	lea	ecx, DWORD PTR _vecFrom$[ebp]
	call	?Normalize@Vector@@QBE?AV1@XZ		; Vector::Normalize
	mov	ecx, DWORD PTR [eax]
	mov	DWORD PTR _vecFrom$[ebp], ecx
	mov	edx, DWORD PTR [eax+4]
	mov	DWORD PTR _vecFrom$[ebp+4], edx
	mov	eax, DWORD PTR [eax+8]
	mov	DWORD PTR _vecFrom$[ebp+8], eax

; 262  : 	AngleVectors( vecAngles, forward, right, up );

	lea	ecx, DWORD PTR _up$[ebp]
	call	??BVector@@QAEPAMXZ			; Vector::operator float *
	push	eax
	lea	ecx, DWORD PTR _right$[ebp]
	call	??BVector@@QAEPAMXZ			; Vector::operator float *
	push	eax
	lea	ecx, DWORD PTR _forward$[ebp]
	call	??BVector@@QAEPAMXZ			; Vector::operator float *
	push	eax
	lea	ecx, DWORD PTR _vecAngles$[ebp]
	call	??BVector@@QAEPAMXZ			; Vector::operator float *
	push	eax
	call	DWORD PTR ?gEngfuncs@@3Ucl_enginefuncs_s@@A+96
	add	esp, 16					; 00000010H

; 263  : 
; 264  : 	front = DotProduct( vecFrom, right );

	lea	eax, DWORD PTR _right$[ebp]
	push	eax
	lea	ecx, DWORD PTR _vecFrom$[ebp]
	push	ecx
	call	?DotProduct@@YAMABVVector@@0@Z		; DotProduct
	add	esp, 8
	fstp	DWORD PTR _front$[ebp]

; 265  : 	side = DotProduct( vecFrom, forward );

	lea	eax, DWORD PTR _forward$[ebp]
	push	eax
	lea	ecx, DWORD PTR _vecFrom$[ebp]
	push	ecx
	call	?DotProduct@@YAMABVVector@@0@Z		; DotProduct
	add	esp, 8
	fstp	DWORD PTR _side$[ebp]

; 266  : 
; 267  : 	if( flDistToTarget <= 50.0f )

	movss	xmm0, DWORD PTR __real@42480000
	comiss	xmm0, DWORD PTR _flDistToTarget$[ebp]
	jb	SHORT $LN3@CalcDamage

; 268  : 	{
; 269  : 		m_fAttackFront = m_fAttackRear = m_fAttackRight = m_fAttackLeft = 1;

	mov	eax, DWORD PTR _this$[ebp]
	movss	xmm0, DWORD PTR __real@3f800000
	movss	DWORD PTR [eax+16], xmm0
	mov	ecx, DWORD PTR _this$[ebp]
	movss	xmm0, DWORD PTR __real@3f800000
	movss	DWORD PTR [ecx+20], xmm0
	mov	edx, DWORD PTR _this$[ebp]
	movss	xmm0, DWORD PTR __real@3f800000
	movss	DWORD PTR [edx+12], xmm0
	mov	eax, DWORD PTR _this$[ebp]
	movss	xmm0, DWORD PTR __real@3f800000
	movss	DWORD PTR [eax+8], xmm0

; 270  : 	}
; 271  : 	else 

	jmp	$LN12@CalcDamage
$LN3@CalcDamage:

; 272  : 	{
; 273  : 		if( side > 0.0f )

	movss	xmm0, DWORD PTR _side$[ebp]
	comiss	xmm0, DWORD PTR __real@00000000
	jbe	SHORT $LN5@CalcDamage

; 274  : 		{
; 275  : 			if( side > 0.3f )

	movss	xmm0, DWORD PTR _side$[ebp]
	comiss	xmm0, DWORD PTR __real@3e99999a
	jbe	SHORT $LN7@CalcDamage

; 276  : 				m_fAttackFront = max( m_fAttackFront, side );

	mov	eax, DWORD PTR _this$[ebp]
	movss	xmm0, DWORD PTR [eax+8]
	comiss	xmm0, DWORD PTR _side$[ebp]
	jbe	SHORT $LN14@CalcDamage
	mov	ecx, DWORD PTR _this$[ebp]
	movss	xmm0, DWORD PTR [ecx+8]
	movss	DWORD PTR tv146[ebp], xmm0
	jmp	SHORT $LN15@CalcDamage
$LN14@CalcDamage:
	movss	xmm0, DWORD PTR _side$[ebp]
	movss	DWORD PTR tv146[ebp], xmm0
$LN15@CalcDamage:
	mov	edx, DWORD PTR _this$[ebp]
	movss	xmm0, DWORD PTR tv146[ebp]
	movss	DWORD PTR [edx+8], xmm0
$LN7@CalcDamage:

; 277  : 		}
; 278  : 		else

	jmp	SHORT $LN8@CalcDamage
$LN5@CalcDamage:

; 279  : 		{
; 280  : 			float f = fabs( side );

	cvtss2sd xmm0, DWORD PTR _side$[ebp]
	sub	esp, 8
	movsd	QWORD PTR [esp], xmm0
	call	_fabs
	add	esp, 8
	fstp	DWORD PTR _f$3[ebp]

; 281  : 			if( f > 0.3f )

	movss	xmm0, DWORD PTR _f$3[ebp]
	comiss	xmm0, DWORD PTR __real@3e99999a
	jbe	SHORT $LN8@CalcDamage

; 282  : 				m_fAttackRear = max( m_fAttackRear, f );

	mov	eax, DWORD PTR _this$[ebp]
	movss	xmm0, DWORD PTR [eax+12]
	comiss	xmm0, DWORD PTR _f$3[ebp]
	jbe	SHORT $LN16@CalcDamage
	mov	ecx, DWORD PTR _this$[ebp]
	movss	xmm0, DWORD PTR [ecx+12]
	movss	DWORD PTR tv156[ebp], xmm0
	jmp	SHORT $LN17@CalcDamage
$LN16@CalcDamage:
	movss	xmm0, DWORD PTR _f$3[ebp]
	movss	DWORD PTR tv156[ebp], xmm0
$LN17@CalcDamage:
	mov	edx, DWORD PTR _this$[ebp]
	movss	xmm0, DWORD PTR tv156[ebp]
	movss	DWORD PTR [edx+12], xmm0
$LN8@CalcDamage:

; 283  : 		}
; 284  : 
; 285  : 		if( front > 0.0f )

	movss	xmm0, DWORD PTR _front$[ebp]
	comiss	xmm0, DWORD PTR __real@00000000
	jbe	SHORT $LN9@CalcDamage

; 286  : 		{
; 287  : 			if( front > 0.3f )

	movss	xmm0, DWORD PTR _front$[ebp]
	comiss	xmm0, DWORD PTR __real@3e99999a
	jbe	SHORT $LN11@CalcDamage

; 288  : 				m_fAttackRight = max( m_fAttackRight, front );

	mov	eax, DWORD PTR _this$[ebp]
	movss	xmm0, DWORD PTR [eax+20]
	comiss	xmm0, DWORD PTR _front$[ebp]
	jbe	SHORT $LN18@CalcDamage
	mov	ecx, DWORD PTR _this$[ebp]
	movss	xmm0, DWORD PTR [ecx+20]
	movss	DWORD PTR tv163[ebp], xmm0
	jmp	SHORT $LN19@CalcDamage
$LN18@CalcDamage:
	movss	xmm0, DWORD PTR _front$[ebp]
	movss	DWORD PTR tv163[ebp], xmm0
$LN19@CalcDamage:
	mov	edx, DWORD PTR _this$[ebp]
	movss	xmm0, DWORD PTR tv163[ebp]
	movss	DWORD PTR [edx+20], xmm0
$LN11@CalcDamage:

; 289  : 		}
; 290  : 		else

	jmp	SHORT $LN12@CalcDamage
$LN9@CalcDamage:

; 291  : 		{
; 292  : 			float f = fabs( front );

	cvtss2sd xmm0, DWORD PTR _front$[ebp]
	sub	esp, 8
	movsd	QWORD PTR [esp], xmm0
	call	_fabs
	add	esp, 8
	fstp	DWORD PTR _f$2[ebp]

; 293  : 			if( f > 0.3f )

	movss	xmm0, DWORD PTR _f$2[ebp]
	comiss	xmm0, DWORD PTR __real@3e99999a
	jbe	SHORT $LN12@CalcDamage

; 294  : 				m_fAttackLeft = max( m_fAttackLeft, f );

	mov	eax, DWORD PTR _this$[ebp]
	movss	xmm0, DWORD PTR [eax+16]
	comiss	xmm0, DWORD PTR _f$2[ebp]
	jbe	SHORT $LN20@CalcDamage
	mov	ecx, DWORD PTR _this$[ebp]
	movss	xmm0, DWORD PTR [ecx+16]
	movss	DWORD PTR tv173[ebp], xmm0
	jmp	SHORT $LN21@CalcDamage
$LN20@CalcDamage:
	movss	xmm0, DWORD PTR _f$2[ebp]
	movss	DWORD PTR tv173[ebp], xmm0
$LN21@CalcDamage:
	mov	edx, DWORD PTR _this$[ebp]
	movss	xmm0, DWORD PTR tv173[ebp]
	movss	DWORD PTR [edx+16], xmm0
$LN12@CalcDamage:
$LN1@CalcDamage:

; 295  : 		}
; 296  : 	}
; 297  : }

	pop	edi
	pop	esi
	pop	ebx
	mov	esp, ebp
	pop	ebp
	ret	12					; 0000000cH
?CalcDamageDirection@CHudHealth@@AAEXVVector@@@Z ENDP	; CHudHealth::CalcDamageDirection
_TEXT	ENDS
; Function compile flags: /Odtp /ZI
; File d:\!diffusion 2020\source code 2022\client-server\client\hud_pain.cpp
;	COMDAT ?DrawDamage@CHudHealth@@AAEHM@Z
_TEXT	SEGMENT
tv206 = -112						; size = 8
tv161 = -108						; size = 4
_j$1 = -40						; size = 4
_y$2 = -36						; size = 4
_pdmg$3 = -32						; size = 4
_i$ = -28						; size = 4
_pdmg$ = -24						; size = 4
_a$ = -20						; size = 4
_b$ = -16						; size = 4
_g$ = -12						; size = 4
_r$ = -8						; size = 4
_this$ = -4						; size = 4
_flTime$ = 8						; size = 4
?DrawDamage@CHudHealth@@AAEHM@Z PROC			; CHudHealth::DrawDamage, COMDAT
; _this$ = ecx

; 378  : {

	push	ebp
	mov	ebp, esp
	sub	esp, 112				; 00000070H
	push	ebx
	push	esi
	push	edi
	mov	DWORD PTR _this$[ebp], ecx

; 379  : 	int r, g, b, a;
; 380  : 	DAMAGE_IMAGE *pdmg;
; 381  : 	
; 382  : 	if( !m_bitsDamage )

	mov	eax, DWORD PTR _this$[ebp]
	cmp	DWORD PTR [eax+40], 0
	jne	SHORT $LN11@DrawDamage

; 383  : 		return 1;

	mov	eax, 1
	jmp	$LN1@DrawDamage
$LN11@DrawDamage:

; 384  : 
; 385  : 	UnpackRGB( r, g, b, gHUD.m_iHUDColor );

	mov	eax, DWORD PTR ?gHUD@@3VCHud@@A+108
	push	eax
	lea	ecx, DWORD PTR _b$[ebp]
	push	ecx
	lea	edx, DWORD PTR _g$[ebp]
	push	edx
	lea	eax, DWORD PTR _r$[ebp]
	push	eax
	call	?UnpackRGB@@YAXAAH00K@Z			; UnpackRGB
	add	esp, 16					; 00000010H

; 386  : 	
; 387  : 	a = (int)( fabs( sin( flTime * 2 )) * 256.0f );

	movss	xmm0, DWORD PTR _flTime$[ebp]
	mulss	xmm0, DWORD PTR __real@40000000
	cvtss2sd xmm0, xmm0
	sub	esp, 8
	movsd	QWORD PTR [esp], xmm0
	call	_sin
	fstp	QWORD PTR [esp]
	call	_fabs
	add	esp, 8
	fstp	QWORD PTR tv206[ebp]
	movsd	xmm0, QWORD PTR tv206[ebp]
	mulsd	xmm0, QWORD PTR __real@4070000000000000
	cvttsd2si eax, xmm0
	mov	DWORD PTR _a$[ebp], eax

; 388  : 
; 389  : 	ScaleColors( r, g, b, a );

	mov	eax, DWORD PTR _a$[ebp]
	push	eax
	lea	ecx, DWORD PTR _b$[ebp]
	push	ecx
	lea	edx, DWORD PTR _g$[ebp]
	push	edx
	lea	eax, DWORD PTR _r$[ebp]
	push	eax
	call	?ScaleColors@@YAXAAH00H@Z		; ScaleColors
	add	esp, 16					; 00000010H

; 390  : 
; 391  : 	// Draw all the items
; 392  : 	int i;
; 393  : 	for( i = 0; i < NUM_DMG_TYPES; i++ )

	mov	DWORD PTR _i$[ebp], 0
	jmp	SHORT $LN4@DrawDamage
$LN2@DrawDamage:
	mov	eax, DWORD PTR _i$[ebp]
	add	eax, 1
	mov	DWORD PTR _i$[ebp], eax
$LN4@DrawDamage:
	cmp	DWORD PTR _i$[ebp], 9
	jge	SHORT $LN3@DrawDamage

; 394  : 	{
; 395  : 		if( m_bitsDamage & giDmgFlags[i] )

	mov	eax, DWORD PTR _this$[ebp]
	mov	ecx, DWORD PTR _i$[ebp]
	mov	edx, DWORD PTR [eax+40]
	and	edx, DWORD PTR ?giDmgFlags@@3PAHA[ecx*4]
	je	SHORT $LN12@DrawDamage

; 396  : 		{
; 397  : 			pdmg = &m_dmg[i];

	mov	eax, DWORD PTR _i$[ebp]
	shl	eax, 4
	mov	ecx, DWORD PTR _this$[ebp]
	lea	edx, DWORD PTR [ecx+eax+56]
	mov	DWORD PTR _pdmg$[ebp], edx

; 398  : 			SPR_Set( gHUD.GetSprite( m_HUD_dmg_bio + i ), r, g, b );

	mov	eax, DWORD PTR _b$[ebp]
	push	eax
	mov	ecx, DWORD PTR _g$[ebp]
	push	ecx
	mov	edx, DWORD PTR _r$[ebp]
	push	edx
	mov	eax, DWORD PTR _this$[ebp]
	mov	ecx, DWORD PTR [eax+32]
	add	ecx, DWORD PTR _i$[ebp]
	push	ecx
	mov	ecx, OFFSET ?gHUD@@3VCHud@@A		; gHUD
	call	?GetSprite@CHud@@QAEHH@Z		; CHud::GetSprite
	push	eax
	call	DWORD PTR ?gEngfuncs@@3Ucl_enginefuncs_s@@A+16
	add	esp, 16					; 00000010H

; 399  : 			SPR_DrawAdditive( 0, pdmg->x, pdmg->y, &gHUD.GetSpriteRect( m_HUD_dmg_bio + i ));

	mov	eax, DWORD PTR _this$[ebp]
	mov	ecx, DWORD PTR [eax+32]
	add	ecx, DWORD PTR _i$[ebp]
	push	ecx
	mov	ecx, OFFSET ?gHUD@@3VCHud@@A		; gHUD
	call	?GetSpriteRect@CHud@@QAEAAUwrect_s@@H@Z	; CHud::GetSpriteRect
	push	eax
	mov	edx, DWORD PTR _pdmg$[ebp]
	mov	eax, DWORD PTR [edx+12]
	push	eax
	mov	ecx, DWORD PTR _pdmg$[ebp]
	mov	edx, DWORD PTR [ecx+8]
	push	edx
	push	0
	call	DWORD PTR ?gEngfuncs@@3Ucl_enginefuncs_s@@A+28
	add	esp, 16					; 00000010H
$LN12@DrawDamage:

; 400  : 		}
; 401  : 	}

	jmp	$LN2@DrawDamage
$LN3@DrawDamage:

; 402  : 	
; 403  : 	// check for bits that should be expired
; 404  : 	for( i = 0; i < NUM_DMG_TYPES; i++ )

	mov	DWORD PTR _i$[ebp], 0
	jmp	SHORT $LN7@DrawDamage
$LN5@DrawDamage:
	mov	eax, DWORD PTR _i$[ebp]
	add	eax, 1
	mov	DWORD PTR _i$[ebp], eax
$LN7@DrawDamage:
	cmp	DWORD PTR _i$[ebp], 9
	jge	$LN6@DrawDamage

; 405  : 	{
; 406  : 		DAMAGE_IMAGE *pdmg = &m_dmg[i];

	mov	eax, DWORD PTR _i$[ebp]
	shl	eax, 4
	mov	ecx, DWORD PTR _this$[ebp]
	lea	edx, DWORD PTR [ecx+eax+56]
	mov	DWORD PTR _pdmg$3[ebp], edx

; 407  : 
; 408  : 		if( m_bitsDamage & giDmgFlags[i] )

	mov	eax, DWORD PTR _this$[ebp]
	mov	ecx, DWORD PTR _i$[ebp]
	mov	edx, DWORD PTR [eax+40]
	and	edx, DWORD PTR ?giDmgFlags@@3PAHA[ecx*4]
	je	$LN14@DrawDamage

; 409  : 		{
; 410  : 			pdmg->fExpire = min( flTime + DMG_IMAGE_LIFE, pdmg->fExpire );

	movss	xmm0, DWORD PTR _flTime$[ebp]
	addss	xmm0, DWORD PTR __real@40000000
	mov	eax, DWORD PTR _pdmg$3[ebp]
	movss	xmm1, DWORD PTR [eax]
	comiss	xmm1, xmm0
	jbe	SHORT $LN17@DrawDamage
	movss	xmm0, DWORD PTR _flTime$[ebp]
	addss	xmm0, DWORD PTR __real@40000000
	movss	DWORD PTR tv161[ebp], xmm0
	jmp	SHORT $LN18@DrawDamage
$LN17@DrawDamage:
	mov	ecx, DWORD PTR _pdmg$3[ebp]
	movss	xmm0, DWORD PTR [ecx]
	movss	DWORD PTR tv161[ebp], xmm0
$LN18@DrawDamage:
	mov	edx, DWORD PTR _pdmg$3[ebp]
	movss	xmm0, DWORD PTR tv161[ebp]
	movss	DWORD PTR [edx], xmm0

; 411  : 
; 412  : 			if ( pdmg->fExpire <= flTime		// when the time has expired
; 413  : 				&& a < 40 )		// and the flash is at the low point of the cycle

	mov	eax, DWORD PTR _pdmg$3[ebp]
	movss	xmm0, DWORD PTR _flTime$[ebp]
	comiss	xmm0, DWORD PTR [eax]
	jb	$LN14@DrawDamage
	cmp	DWORD PTR _a$[ebp], 40			; 00000028H
	jge	$LN14@DrawDamage

; 414  : 			{
; 415  : 				pdmg->fExpire = 0;

	mov	eax, DWORD PTR _pdmg$3[ebp]
	xorps	xmm0, xmm0
	movss	DWORD PTR [eax], xmm0

; 416  : 
; 417  : 				int y = pdmg->y;

	mov	eax, DWORD PTR _pdmg$3[ebp]
	mov	ecx, DWORD PTR [eax+12]
	mov	DWORD PTR _y$2[ebp], ecx

; 418  : 				pdmg->x = pdmg->y = 0;

	mov	eax, DWORD PTR _pdmg$3[ebp]
	mov	DWORD PTR [eax+12], 0
	mov	ecx, DWORD PTR _pdmg$3[ebp]
	mov	DWORD PTR [ecx+8], 0

; 419  : 
; 420  : 				// move everyone above down
; 421  : 				for( int j = 0; j < NUM_DMG_TYPES; j++ )

	mov	DWORD PTR _j$1[ebp], 0
	jmp	SHORT $LN10@DrawDamage
$LN8@DrawDamage:
	mov	eax, DWORD PTR _j$1[ebp]
	add	eax, 1
	mov	DWORD PTR _j$1[ebp], eax
$LN10@DrawDamage:
	cmp	DWORD PTR _j$1[ebp], 9
	jge	SHORT $LN9@DrawDamage

; 422  : 				{
; 423  : 					pdmg = &m_dmg[j];

	mov	eax, DWORD PTR _j$1[ebp]
	shl	eax, 4
	mov	ecx, DWORD PTR _this$[ebp]
	lea	edx, DWORD PTR [ecx+eax+56]
	mov	DWORD PTR _pdmg$3[ebp], edx

; 424  : 					if(( pdmg->y ) && ( pdmg->y < y ))

	mov	eax, DWORD PTR _pdmg$3[ebp]
	cmp	DWORD PTR [eax+12], 0
	je	SHORT $LN15@DrawDamage
	mov	eax, DWORD PTR _pdmg$3[ebp]
	mov	ecx, DWORD PTR [eax+12]
	cmp	ecx, DWORD PTR _y$2[ebp]
	jge	SHORT $LN15@DrawDamage

; 425  : 						pdmg->y += giDmgHeight;

	mov	eax, DWORD PTR _pdmg$3[ebp]
	mov	ecx, DWORD PTR [eax+12]
	add	ecx, DWORD PTR ?giDmgHeight@@3HA	; giDmgHeight
	mov	edx, DWORD PTR _pdmg$3[ebp]
	mov	DWORD PTR [edx+12], ecx
$LN15@DrawDamage:

; 426  : 				}

	jmp	SHORT $LN8@DrawDamage
$LN9@DrawDamage:

; 427  : 
; 428  : 				m_bitsDamage &= ~giDmgFlags[i];  // clear the bits

	mov	eax, DWORD PTR _i$[ebp]
	mov	ecx, DWORD PTR ?giDmgFlags@@3PAHA[eax*4]
	not	ecx
	mov	edx, DWORD PTR _this$[ebp]
	and	ecx, DWORD PTR [edx+40]
	mov	eax, DWORD PTR _this$[ebp]
	mov	DWORD PTR [eax+40], ecx
$LN14@DrawDamage:

; 429  : 			}
; 430  : 		}
; 431  : 	}

	jmp	$LN5@DrawDamage
$LN6@DrawDamage:

; 432  : 
; 433  : 	return 1;

	mov	eax, 1
$LN1@DrawDamage:

; 434  : }

	pop	edi
	pop	esi
	pop	ebx
	mov	esp, ebp
	pop	ebp
	ret	4
?DrawDamage@CHudHealth@@AAEHM@Z ENDP			; CHudHealth::DrawDamage
_TEXT	ENDS
; Function compile flags: /Odtp /ZI
; File d:\!diffusion 2020\source code 2022\client-server\client\hud_pain.cpp
;	COMDAT ?DrawPain@CHudHealth@@AAEHM@Z
_TEXT	SEGMENT
tv296 = -104						; size = 4
tv260 = -104						; size = 4
tv248 = -104						; size = 4
tv212 = -104						; size = 4
tv200 = -104						; size = 4
tv164 = -104						; size = 4
tv152 = -104						; size = 4
tv84 = -104						; size = 4
_fFade$ = -36						; size = 4
_shade$ = -32						; size = 4
_a$ = -28						; size = 4
_y$ = -24						; size = 4
_x$ = -20						; size = 4
_b$ = -16						; size = 4
_g$ = -12						; size = 4
_r$ = -8						; size = 4
_this$ = -4						; size = 4
_flTime$ = 8						; size = 4
?DrawPain@CHudHealth@@AAEHM@Z PROC			; CHudHealth::DrawPain, COMDAT
; _this$ = ecx

; 300  : {

	push	ebp
	mov	ebp, esp
	sub	esp, 104				; 00000068H
	push	ebx
	push	esi
	push	edi
	mov	DWORD PTR _this$[ebp], ecx

; 301  : 	if( !( m_fAttackFront || m_fAttackRear || m_fAttackLeft || m_fAttackRight ))

	mov	eax, DWORD PTR _this$[ebp]
	movss	xmm0, DWORD PTR [eax+8]
	ucomiss	xmm0, DWORD PTR __real@00000000
	lahf
	test	ah, 68					; 00000044H
	jp	SHORT $LN2@DrawPain
	mov	eax, DWORD PTR _this$[ebp]
	movss	xmm0, DWORD PTR [eax+12]
	ucomiss	xmm0, DWORD PTR __real@00000000
	lahf
	test	ah, 68					; 00000044H
	jp	SHORT $LN2@DrawPain
	mov	eax, DWORD PTR _this$[ebp]
	movss	xmm0, DWORD PTR [eax+16]
	ucomiss	xmm0, DWORD PTR __real@00000000
	lahf
	test	ah, 68					; 00000044H
	jp	SHORT $LN2@DrawPain
	mov	eax, DWORD PTR _this$[ebp]
	movss	xmm0, DWORD PTR [eax+20]
	ucomiss	xmm0, DWORD PTR __real@00000000
	lahf
	test	ah, 68					; 00000044H
	jp	SHORT $LN2@DrawPain

; 302  : 		return 1;

	mov	eax, 1
	jmp	$LN1@DrawPain
$LN2@DrawPain:

; 303  : 
; 304  : 	int r, g, b;
; 305  : 	int x, y, a, shade;
; 306  : 
; 307  : 	// TODO:  get the shift value of the health
; 308  : 	a = 255;	// max brightness until then

	mov	DWORD PTR _a$[ebp], 255			; 000000ffH

; 309  : 
; 310  : 	float fFade = gHUD.m_flTimeDelta * 2;

	movsd	xmm0, QWORD PTR ?gHUD@@3VCHud@@A+40
	mulsd	xmm0, QWORD PTR __real@4000000000000000
	cvtsd2ss xmm0, xmm0
	movss	DWORD PTR _fFade$[ebp], xmm0

; 311  : 	
; 312  : 	// SPR_Draw top
; 313  : 	if( m_fAttackFront > 0.4f )

	mov	eax, DWORD PTR _this$[ebp]
	movss	xmm0, DWORD PTR [eax+8]
	comiss	xmm0, DWORD PTR __real@3ecccccd
	jbe	$LN3@DrawPain

; 314  : 	{
; 315  : 		GetPainColor( r, g, b );

	lea	eax, DWORD PTR _b$[ebp]
	push	eax
	lea	ecx, DWORD PTR _g$[ebp]
	push	ecx
	lea	edx, DWORD PTR _r$[ebp]
	push	edx
	mov	ecx, DWORD PTR _this$[ebp]
	call	?GetPainColor@CHudHealth@@QAEXAAH00@Z	; CHudHealth::GetPainColor

; 316  : 		shade = a * max( m_fAttackFront, 0.5f );

	mov	eax, DWORD PTR _this$[ebp]
	movss	xmm0, DWORD PTR [eax+8]
	comiss	xmm0, DWORD PTR __real@3f000000
	jbe	SHORT $LN12@DrawPain
	mov	ecx, DWORD PTR _this$[ebp]
	movss	xmm0, DWORD PTR [ecx+8]
	movss	DWORD PTR tv84[ebp], xmm0
	jmp	SHORT $LN13@DrawPain
$LN12@DrawPain:
	movss	xmm0, DWORD PTR __real@3f000000
	movss	DWORD PTR tv84[ebp], xmm0
$LN13@DrawPain:
	cvtsi2ss xmm0, DWORD PTR _a$[ebp]
	mulss	xmm0, DWORD PTR tv84[ebp]
	cvttss2si edx, xmm0
	mov	DWORD PTR _shade$[ebp], edx

; 317  : 		ScaleColors( r, g, b, shade );

	mov	eax, DWORD PTR _shade$[ebp]
	push	eax
	lea	ecx, DWORD PTR _b$[ebp]
	push	ecx
	lea	edx, DWORD PTR _g$[ebp]
	push	edx
	lea	eax, DWORD PTR _r$[ebp]
	push	eax
	call	?ScaleColors@@YAXAAH00H@Z		; ScaleColors
	add	esp, 16					; 00000010H

; 318  : 		SPR_Set( m_hSprite, r, g, b );

	mov	eax, DWORD PTR _b$[ebp]
	push	eax
	mov	ecx, DWORD PTR _g$[ebp]
	push	ecx
	mov	edx, DWORD PTR _r$[ebp]
	push	edx
	mov	eax, DWORD PTR _this$[ebp]
	mov	ecx, DWORD PTR [eax+48]
	push	ecx
	call	DWORD PTR ?gEngfuncs@@3Ucl_enginefuncs_s@@A+16
	add	esp, 16					; 00000010H

; 319  : 		
; 320  : 		x = ScreenWidth / 2 - SPR_Width( m_hSprite, 0 ) / 2;

	mov	eax, DWORD PTR ?gHUD@@3VCHud@@A+8436
	cdq
	sub	eax, edx
	mov	esi, eax
	sar	esi, 1
	push	0
	mov	eax, DWORD PTR _this$[ebp]
	mov	ecx, DWORD PTR [eax+48]
	push	ecx
	call	DWORD PTR ?gEngfuncs@@3Ucl_enginefuncs_s@@A+12
	add	esp, 8
	cdq
	sub	eax, edx
	sar	eax, 1
	sub	esi, eax
	mov	DWORD PTR _x$[ebp], esi

; 321  : 		y = ScreenHeight / 2 - SPR_Height( m_hSprite, 0 ) * 3;

	mov	eax, DWORD PTR ?gHUD@@3VCHud@@A+8440
	cdq
	sub	eax, edx
	mov	esi, eax
	sar	esi, 1
	push	0
	mov	eax, DWORD PTR _this$[ebp]
	mov	ecx, DWORD PTR [eax+48]
	push	ecx
	call	DWORD PTR ?gEngfuncs@@3Ucl_enginefuncs_s@@A+8
	add	esp, 8
	imul	edx, eax, 3
	sub	esi, edx
	mov	DWORD PTR _y$[ebp], esi

; 322  : 		SPR_DrawAdditive( 0, x, y, NULL );

	push	0
	mov	eax, DWORD PTR _y$[ebp]
	push	eax
	mov	ecx, DWORD PTR _x$[ebp]
	push	ecx
	push	0
	call	DWORD PTR ?gEngfuncs@@3Ucl_enginefuncs_s@@A+28
	add	esp, 16					; 00000010H

; 323  : 		m_fAttackFront = max( 0, m_fAttackFront - fFade );

	mov	eax, DWORD PTR _this$[ebp]
	movss	xmm0, DWORD PTR [eax+8]
	subss	xmm0, DWORD PTR _fFade$[ebp]
	xorps	xmm1, xmm1
	comiss	xmm1, xmm0
	jbe	SHORT $LN14@DrawPain
	xorps	xmm0, xmm0
	movss	DWORD PTR tv152[ebp], xmm0
	jmp	SHORT $LN15@DrawPain
$LN14@DrawPain:
	mov	ecx, DWORD PTR _this$[ebp]
	movss	xmm0, DWORD PTR [ecx+8]
	subss	xmm0, DWORD PTR _fFade$[ebp]
	movss	DWORD PTR tv152[ebp], xmm0
$LN15@DrawPain:
	mov	edx, DWORD PTR _this$[ebp]
	movss	xmm0, DWORD PTR tv152[ebp]
	movss	DWORD PTR [edx+8], xmm0

; 324  : 	}
; 325  : 	else

	jmp	SHORT $LN4@DrawPain
$LN3@DrawPain:

; 326  : 		m_fAttackFront = 0;

	mov	eax, DWORD PTR _this$[ebp]
	xorps	xmm0, xmm0
	movss	DWORD PTR [eax+8], xmm0
$LN4@DrawPain:

; 327  : 
; 328  : 	if( m_fAttackRight > 0.4f )

	mov	eax, DWORD PTR _this$[ebp]
	movss	xmm0, DWORD PTR [eax+20]
	comiss	xmm0, DWORD PTR __real@3ecccccd
	jbe	$LN5@DrawPain

; 329  : 	{
; 330  : 		GetPainColor( r, g, b );

	lea	eax, DWORD PTR _b$[ebp]
	push	eax
	lea	ecx, DWORD PTR _g$[ebp]
	push	ecx
	lea	edx, DWORD PTR _r$[ebp]
	push	edx
	mov	ecx, DWORD PTR _this$[ebp]
	call	?GetPainColor@CHudHealth@@QAEXAAH00@Z	; CHudHealth::GetPainColor

; 331  : 		shade = a * max( m_fAttackRight, 0.5f );

	mov	eax, DWORD PTR _this$[ebp]
	movss	xmm0, DWORD PTR [eax+20]
	comiss	xmm0, DWORD PTR __real@3f000000
	jbe	SHORT $LN16@DrawPain
	mov	ecx, DWORD PTR _this$[ebp]
	movss	xmm0, DWORD PTR [ecx+20]
	movss	DWORD PTR tv164[ebp], xmm0
	jmp	SHORT $LN17@DrawPain
$LN16@DrawPain:
	movss	xmm0, DWORD PTR __real@3f000000
	movss	DWORD PTR tv164[ebp], xmm0
$LN17@DrawPain:
	cvtsi2ss xmm0, DWORD PTR _a$[ebp]
	mulss	xmm0, DWORD PTR tv164[ebp]
	cvttss2si edx, xmm0
	mov	DWORD PTR _shade$[ebp], edx

; 332  : 		ScaleColors( r, g, b, shade );

	mov	eax, DWORD PTR _shade$[ebp]
	push	eax
	lea	ecx, DWORD PTR _b$[ebp]
	push	ecx
	lea	edx, DWORD PTR _g$[ebp]
	push	edx
	lea	eax, DWORD PTR _r$[ebp]
	push	eax
	call	?ScaleColors@@YAXAAH00H@Z		; ScaleColors
	add	esp, 16					; 00000010H

; 333  : 		SPR_Set( m_hSprite, r, g, b );

	mov	eax, DWORD PTR _b$[ebp]
	push	eax
	mov	ecx, DWORD PTR _g$[ebp]
	push	ecx
	mov	edx, DWORD PTR _r$[ebp]
	push	edx
	mov	eax, DWORD PTR _this$[ebp]
	mov	ecx, DWORD PTR [eax+48]
	push	ecx
	call	DWORD PTR ?gEngfuncs@@3Ucl_enginefuncs_s@@A+16
	add	esp, 16					; 00000010H

; 334  : 
; 335  : 		x = ScreenWidth / 2 + SPR_Width( m_hSprite, 1 ) * 2;

	mov	eax, DWORD PTR ?gHUD@@3VCHud@@A+8436
	cdq
	sub	eax, edx
	mov	esi, eax
	sar	esi, 1
	push	1
	mov	eax, DWORD PTR _this$[ebp]
	mov	ecx, DWORD PTR [eax+48]
	push	ecx
	call	DWORD PTR ?gEngfuncs@@3Ucl_enginefuncs_s@@A+12
	add	esp, 8
	lea	edx, DWORD PTR [esi+eax*2]
	mov	DWORD PTR _x$[ebp], edx

; 336  : 		y = ScreenHeight / 2 - SPR_Height( m_hSprite, 1 ) / 2;

	mov	eax, DWORD PTR ?gHUD@@3VCHud@@A+8440
	cdq
	sub	eax, edx
	mov	esi, eax
	sar	esi, 1
	push	1
	mov	eax, DWORD PTR _this$[ebp]
	mov	ecx, DWORD PTR [eax+48]
	push	ecx
	call	DWORD PTR ?gEngfuncs@@3Ucl_enginefuncs_s@@A+8
	add	esp, 8
	cdq
	sub	eax, edx
	sar	eax, 1
	sub	esi, eax
	mov	DWORD PTR _y$[ebp], esi

; 337  : 		SPR_DrawAdditive( 1, x, y, NULL );

	push	0
	mov	eax, DWORD PTR _y$[ebp]
	push	eax
	mov	ecx, DWORD PTR _x$[ebp]
	push	ecx
	push	1
	call	DWORD PTR ?gEngfuncs@@3Ucl_enginefuncs_s@@A+28
	add	esp, 16					; 00000010H

; 338  : 		m_fAttackRight = max( 0, m_fAttackRight - fFade );

	mov	eax, DWORD PTR _this$[ebp]
	movss	xmm0, DWORD PTR [eax+20]
	subss	xmm0, DWORD PTR _fFade$[ebp]
	xorps	xmm1, xmm1
	comiss	xmm1, xmm0
	jbe	SHORT $LN18@DrawPain
	xorps	xmm0, xmm0
	movss	DWORD PTR tv200[ebp], xmm0
	jmp	SHORT $LN19@DrawPain
$LN18@DrawPain:
	mov	ecx, DWORD PTR _this$[ebp]
	movss	xmm0, DWORD PTR [ecx+20]
	subss	xmm0, DWORD PTR _fFade$[ebp]
	movss	DWORD PTR tv200[ebp], xmm0
$LN19@DrawPain:
	mov	edx, DWORD PTR _this$[ebp]
	movss	xmm0, DWORD PTR tv200[ebp]
	movss	DWORD PTR [edx+20], xmm0

; 339  : 	}
; 340  : 	else

	jmp	SHORT $LN6@DrawPain
$LN5@DrawPain:

; 341  : 		m_fAttackRight = 0;

	mov	eax, DWORD PTR _this$[ebp]
	xorps	xmm0, xmm0
	movss	DWORD PTR [eax+20], xmm0
$LN6@DrawPain:

; 342  : 
; 343  : 	if( m_fAttackRear > 0.4f )

	mov	eax, DWORD PTR _this$[ebp]
	movss	xmm0, DWORD PTR [eax+12]
	comiss	xmm0, DWORD PTR __real@3ecccccd
	jbe	$LN7@DrawPain

; 344  : 	{
; 345  : 		GetPainColor( r, g, b );

	lea	eax, DWORD PTR _b$[ebp]
	push	eax
	lea	ecx, DWORD PTR _g$[ebp]
	push	ecx
	lea	edx, DWORD PTR _r$[ebp]
	push	edx
	mov	ecx, DWORD PTR _this$[ebp]
	call	?GetPainColor@CHudHealth@@QAEXAAH00@Z	; CHudHealth::GetPainColor

; 346  : 		shade = a * max( m_fAttackRear, 0.5f );

	mov	eax, DWORD PTR _this$[ebp]
	movss	xmm0, DWORD PTR [eax+12]
	comiss	xmm0, DWORD PTR __real@3f000000
	jbe	SHORT $LN20@DrawPain
	mov	ecx, DWORD PTR _this$[ebp]
	movss	xmm0, DWORD PTR [ecx+12]
	movss	DWORD PTR tv212[ebp], xmm0
	jmp	SHORT $LN21@DrawPain
$LN20@DrawPain:
	movss	xmm0, DWORD PTR __real@3f000000
	movss	DWORD PTR tv212[ebp], xmm0
$LN21@DrawPain:
	cvtsi2ss xmm0, DWORD PTR _a$[ebp]
	mulss	xmm0, DWORD PTR tv212[ebp]
	cvttss2si edx, xmm0
	mov	DWORD PTR _shade$[ebp], edx

; 347  : 		ScaleColors( r, g, b, shade );

	mov	eax, DWORD PTR _shade$[ebp]
	push	eax
	lea	ecx, DWORD PTR _b$[ebp]
	push	ecx
	lea	edx, DWORD PTR _g$[ebp]
	push	edx
	lea	eax, DWORD PTR _r$[ebp]
	push	eax
	call	?ScaleColors@@YAXAAH00H@Z		; ScaleColors
	add	esp, 16					; 00000010H

; 348  : 		SPR_Set( m_hSprite, r, g, b );

	mov	eax, DWORD PTR _b$[ebp]
	push	eax
	mov	ecx, DWORD PTR _g$[ebp]
	push	ecx
	mov	edx, DWORD PTR _r$[ebp]
	push	edx
	mov	eax, DWORD PTR _this$[ebp]
	mov	ecx, DWORD PTR [eax+48]
	push	ecx
	call	DWORD PTR ?gEngfuncs@@3Ucl_enginefuncs_s@@A+16
	add	esp, 16					; 00000010H

; 349  : 
; 350  : 		x = ScreenWidth / 2 - SPR_Width( m_hSprite, 2 ) / 2;

	mov	eax, DWORD PTR ?gHUD@@3VCHud@@A+8436
	cdq
	sub	eax, edx
	mov	esi, eax
	sar	esi, 1
	push	2
	mov	eax, DWORD PTR _this$[ebp]
	mov	ecx, DWORD PTR [eax+48]
	push	ecx
	call	DWORD PTR ?gEngfuncs@@3Ucl_enginefuncs_s@@A+12
	add	esp, 8
	cdq
	sub	eax, edx
	sar	eax, 1
	sub	esi, eax
	mov	DWORD PTR _x$[ebp], esi

; 351  : 		y = ScreenHeight / 2 + SPR_Height( m_hSprite, 2 ) * 2;

	mov	eax, DWORD PTR ?gHUD@@3VCHud@@A+8440
	cdq
	sub	eax, edx
	mov	esi, eax
	sar	esi, 1
	push	2
	mov	eax, DWORD PTR _this$[ebp]
	mov	ecx, DWORD PTR [eax+48]
	push	ecx
	call	DWORD PTR ?gEngfuncs@@3Ucl_enginefuncs_s@@A+8
	add	esp, 8
	lea	edx, DWORD PTR [esi+eax*2]
	mov	DWORD PTR _y$[ebp], edx

; 352  : 		SPR_DrawAdditive( 2, x, y, NULL );

	push	0
	mov	eax, DWORD PTR _y$[ebp]
	push	eax
	mov	ecx, DWORD PTR _x$[ebp]
	push	ecx
	push	2
	call	DWORD PTR ?gEngfuncs@@3Ucl_enginefuncs_s@@A+28
	add	esp, 16					; 00000010H

; 353  : 		m_fAttackRear = max( 0, m_fAttackRear - fFade );

	mov	eax, DWORD PTR _this$[ebp]
	movss	xmm0, DWORD PTR [eax+12]
	subss	xmm0, DWORD PTR _fFade$[ebp]
	xorps	xmm1, xmm1
	comiss	xmm1, xmm0
	jbe	SHORT $LN22@DrawPain
	xorps	xmm0, xmm0
	movss	DWORD PTR tv248[ebp], xmm0
	jmp	SHORT $LN23@DrawPain
$LN22@DrawPain:
	mov	ecx, DWORD PTR _this$[ebp]
	movss	xmm0, DWORD PTR [ecx+12]
	subss	xmm0, DWORD PTR _fFade$[ebp]
	movss	DWORD PTR tv248[ebp], xmm0
$LN23@DrawPain:
	mov	edx, DWORD PTR _this$[ebp]
	movss	xmm0, DWORD PTR tv248[ebp]
	movss	DWORD PTR [edx+12], xmm0

; 354  : 	}
; 355  : 	else

	jmp	SHORT $LN8@DrawPain
$LN7@DrawPain:

; 356  : 		m_fAttackRear = 0;

	mov	eax, DWORD PTR _this$[ebp]
	xorps	xmm0, xmm0
	movss	DWORD PTR [eax+12], xmm0
$LN8@DrawPain:

; 357  : 
; 358  : 	if( m_fAttackLeft > 0.4f )

	mov	eax, DWORD PTR _this$[ebp]
	movss	xmm0, DWORD PTR [eax+16]
	comiss	xmm0, DWORD PTR __real@3ecccccd
	jbe	$LN9@DrawPain

; 359  : 	{
; 360  : 		GetPainColor( r, g, b );

	lea	eax, DWORD PTR _b$[ebp]
	push	eax
	lea	ecx, DWORD PTR _g$[ebp]
	push	ecx
	lea	edx, DWORD PTR _r$[ebp]
	push	edx
	mov	ecx, DWORD PTR _this$[ebp]
	call	?GetPainColor@CHudHealth@@QAEXAAH00@Z	; CHudHealth::GetPainColor

; 361  : 		shade = a * max( m_fAttackLeft, 0.5f );

	mov	eax, DWORD PTR _this$[ebp]
	movss	xmm0, DWORD PTR [eax+16]
	comiss	xmm0, DWORD PTR __real@3f000000
	jbe	SHORT $LN24@DrawPain
	mov	ecx, DWORD PTR _this$[ebp]
	movss	xmm0, DWORD PTR [ecx+16]
	movss	DWORD PTR tv260[ebp], xmm0
	jmp	SHORT $LN25@DrawPain
$LN24@DrawPain:
	movss	xmm0, DWORD PTR __real@3f000000
	movss	DWORD PTR tv260[ebp], xmm0
$LN25@DrawPain:
	cvtsi2ss xmm0, DWORD PTR _a$[ebp]
	mulss	xmm0, DWORD PTR tv260[ebp]
	cvttss2si edx, xmm0
	mov	DWORD PTR _shade$[ebp], edx

; 362  : 		ScaleColors( r, g, b, shade );

	mov	eax, DWORD PTR _shade$[ebp]
	push	eax
	lea	ecx, DWORD PTR _b$[ebp]
	push	ecx
	lea	edx, DWORD PTR _g$[ebp]
	push	edx
	lea	eax, DWORD PTR _r$[ebp]
	push	eax
	call	?ScaleColors@@YAXAAH00H@Z		; ScaleColors
	add	esp, 16					; 00000010H

; 363  : 		SPR_Set( m_hSprite, r, g, b );

	mov	eax, DWORD PTR _b$[ebp]
	push	eax
	mov	ecx, DWORD PTR _g$[ebp]
	push	ecx
	mov	edx, DWORD PTR _r$[ebp]
	push	edx
	mov	eax, DWORD PTR _this$[ebp]
	mov	ecx, DWORD PTR [eax+48]
	push	ecx
	call	DWORD PTR ?gEngfuncs@@3Ucl_enginefuncs_s@@A+16
	add	esp, 16					; 00000010H

; 364  : 
; 365  : 		x = ScreenWidth / 2 - SPR_Width( m_hSprite, 3 ) * 3;

	mov	eax, DWORD PTR ?gHUD@@3VCHud@@A+8436
	cdq
	sub	eax, edx
	mov	esi, eax
	sar	esi, 1
	push	3
	mov	eax, DWORD PTR _this$[ebp]
	mov	ecx, DWORD PTR [eax+48]
	push	ecx
	call	DWORD PTR ?gEngfuncs@@3Ucl_enginefuncs_s@@A+12
	add	esp, 8
	imul	edx, eax, 3
	sub	esi, edx
	mov	DWORD PTR _x$[ebp], esi

; 366  : 		y = ScreenHeight / 2 - SPR_Height( m_hSprite, 3 ) / 2;

	mov	eax, DWORD PTR ?gHUD@@3VCHud@@A+8440
	cdq
	sub	eax, edx
	mov	esi, eax
	sar	esi, 1
	push	3
	mov	eax, DWORD PTR _this$[ebp]
	mov	ecx, DWORD PTR [eax+48]
	push	ecx
	call	DWORD PTR ?gEngfuncs@@3Ucl_enginefuncs_s@@A+8
	add	esp, 8
	cdq
	sub	eax, edx
	sar	eax, 1
	sub	esi, eax
	mov	DWORD PTR _y$[ebp], esi

; 367  : 		SPR_DrawAdditive( 3, x, y, NULL );

	push	0
	mov	eax, DWORD PTR _y$[ebp]
	push	eax
	mov	ecx, DWORD PTR _x$[ebp]
	push	ecx
	push	3
	call	DWORD PTR ?gEngfuncs@@3Ucl_enginefuncs_s@@A+28
	add	esp, 16					; 00000010H

; 368  : 
; 369  : 		m_fAttackLeft = max( 0, m_fAttackLeft - fFade );

	mov	eax, DWORD PTR _this$[ebp]
	movss	xmm0, DWORD PTR [eax+16]
	subss	xmm0, DWORD PTR _fFade$[ebp]
	xorps	xmm1, xmm1
	comiss	xmm1, xmm0
	jbe	SHORT $LN26@DrawPain
	xorps	xmm0, xmm0
	movss	DWORD PTR tv296[ebp], xmm0
	jmp	SHORT $LN27@DrawPain
$LN26@DrawPain:
	mov	ecx, DWORD PTR _this$[ebp]
	movss	xmm0, DWORD PTR [ecx+16]
	subss	xmm0, DWORD PTR _fFade$[ebp]
	movss	DWORD PTR tv296[ebp], xmm0
$LN27@DrawPain:
	mov	edx, DWORD PTR _this$[ebp]
	movss	xmm0, DWORD PTR tv296[ebp]
	movss	DWORD PTR [edx+16], xmm0

; 370  : 	}
; 371  : 	else

	jmp	SHORT $LN10@DrawPain
$LN9@DrawPain:

; 372  : 		m_fAttackLeft = 0;

	mov	eax, DWORD PTR _this$[ebp]
	xorps	xmm0, xmm0
	movss	DWORD PTR [eax+16], xmm0
$LN10@DrawPain:

; 373  : 
; 374  : 	return 1;

	mov	eax, 1
$LN1@DrawPain:

; 375  : }

	pop	edi
	pop	esi
	pop	ebx
	mov	esp, ebp
	pop	ebp
	ret	4
?DrawPain@CHudHealth@@AAEHM@Z ENDP			; CHudHealth::DrawPain
_TEXT	ENDS
; Function compile flags: /Odtp /ZI
; File d:\!diffusion 2020\source code 2022\client-server\client\hud_pain.cpp
;	COMDAT ?GetPainColor@CHudHealth@@QAEXAAH00@Z
_TEXT	SEGMENT
_iHealth$ = -8						; size = 4
_this$ = -4						; size = 4
_r$ = 8							; size = 4
_g$ = 12						; size = 4
_b$ = 16						; size = 4
?GetPainColor@CHudHealth@@QAEXAAH00@Z PROC		; CHudHealth::GetPainColor, COMDAT
; _this$ = ecx

; 152  : {

	push	ebp
	mov	ebp, esp
	sub	esp, 72					; 00000048H
	push	ebx
	push	esi
	push	edi
	mov	DWORD PTR _this$[ebp], ecx

; 153  : 	int iHealth = m_iHealth;

	mov	eax, DWORD PTR _this$[ebp]
	mov	ecx, DWORD PTR [eax+28]
	mov	DWORD PTR _iHealth$[ebp], ecx

; 154  : 
; 155  : 	if( iHealth > 25)

	cmp	DWORD PTR _iHealth$[ebp], 25		; 00000019H
	jle	SHORT $LN2@GetPainCol

; 156  : 		iHealth -= 25;

	mov	eax, DWORD PTR _iHealth$[ebp]
	sub	eax, 25					; 00000019H
	mov	DWORD PTR _iHealth$[ebp], eax
	jmp	SHORT $LN3@GetPainCol
$LN2@GetPainCol:

; 157  : 	else if( iHealth < 0 )

	cmp	DWORD PTR _iHealth$[ebp], 0
	jge	SHORT $LN3@GetPainCol

; 158  : 		iHealth = 0;

	mov	DWORD PTR _iHealth$[ebp], 0
$LN3@GetPainCol:

; 159  : 
; 160  : 	if( m_iHealth > 25 )

	mov	eax, DWORD PTR _this$[ebp]
	cmp	DWORD PTR [eax+28], 25			; 00000019H
	jle	SHORT $LN5@GetPainCol

; 161  : 		UnpackRGB( r, g, b, gHUD.m_iHUDColor );

	mov	eax, DWORD PTR ?gHUD@@3VCHud@@A+108
	push	eax
	mov	ecx, DWORD PTR _b$[ebp]
	push	ecx
	mov	edx, DWORD PTR _g$[ebp]
	push	edx
	mov	eax, DWORD PTR _r$[ebp]
	push	eax
	call	?UnpackRGB@@YAXAAH00K@Z			; UnpackRGB
	add	esp, 16					; 00000010H

; 162  : 	else

	jmp	SHORT $LN1@GetPainCol
$LN5@GetPainCol:

; 163  : 	{
; 164  : 		r = 250;

	mov	eax, DWORD PTR _r$[ebp]
	mov	DWORD PTR [eax], 250			; 000000faH

; 165  : 		g = 0;

	mov	eax, DWORD PTR _g$[ebp]
	mov	DWORD PTR [eax], 0

; 166  : 		b = 0;

	mov	eax, DWORD PTR _b$[ebp]
	mov	DWORD PTR [eax], 0
$LN1@GetPainCol:

; 167  : 	}
; 168  : }

	pop	edi
	pop	esi
	pop	ebx
	mov	esp, ebp
	pop	ebp
	ret	12					; 0000000cH
?GetPainColor@CHudHealth@@QAEXAAH00@Z ENDP		; CHudHealth::GetPainColor
_TEXT	ENDS
; Function compile flags: /Odtp /ZI
; File d:\!diffusion 2020\source code 2022\client-server\client\hud_pain.cpp
;	COMDAT ?MsgFunc_Damage@CHudHealth@@QAEHPBDHPAX@Z
_TEXT	SEGMENT
tv155 = -100						; size = 4
_i$1 = -28						; size = 4
_vecFrom$ = -24						; size = 12
_bitsDamage$ = -12					; size = 4
_armor$ = -8						; size = 4
_this$ = -4						; size = 4
_pszName$ = 8						; size = 4
_iSize$ = 12						; size = 4
_pbuf$ = 16						; size = 4
?MsgFunc_Damage@CHudHealth@@QAEHPBDHPAX@Z PROC		; CHudHealth::MsgFunc_Damage, COMDAT
; _this$ = ecx

; 117  : {

	push	ebp
	mov	ebp, esp
	sub	esp, 100				; 00000064H
	push	ebx
	push	esi
	push	edi
	mov	DWORD PTR _this$[ebp], ecx

; 118  : 	BEGIN_READ( pszName, pbuf, iSize );

	mov	eax, DWORD PTR _iSize$[ebp]
	push	eax
	mov	ecx, DWORD PTR _pbuf$[ebp]
	push	ecx
	mov	edx, DWORD PTR _pszName$[ebp]
	push	edx
	call	?BEGIN_READ@@YAXPBDPAXH@Z		; BEGIN_READ
	add	esp, 12					; 0000000cH

; 119  : 
; 120  : 	int armor = READ_BYTE();	// armor

	call	?READ_BYTE@@YAHXZ			; READ_BYTE
	mov	DWORD PTR _armor$[ebp], eax

; 121  : 	damageTaken = READ_BYTE();// health

	call	?READ_BYTE@@YAHXZ			; READ_BYTE
	mov	ecx, DWORD PTR _this$[ebp]
	mov	DWORD PTR [ecx+44], eax

; 122  : 	long bitsDamage = READ_LONG();// damage bits

	call	?READ_LONG@@YAHXZ			; READ_LONG
	mov	DWORD PTR _bitsDamage$[ebp], eax

; 123  : 
; 124  : 	Vector vecFrom;

	lea	ecx, DWORD PTR _vecFrom$[ebp]
	call	??0Vector@@QAE@XZ			; Vector::Vector

; 125  : 
; 126  : 	for( int i = 0 ; i < 3 ; i++)

	mov	DWORD PTR _i$1[ebp], 0
	jmp	SHORT $LN4@MsgFunc_Da
$LN2@MsgFunc_Da:
	mov	eax, DWORD PTR _i$1[ebp]
	add	eax, 1
	mov	DWORD PTR _i$1[ebp], eax
$LN4@MsgFunc_Da:
	cmp	DWORD PTR _i$1[ebp], 3
	jge	SHORT $LN3@MsgFunc_Da

; 127  : 		vecFrom[i] = READ_COORD();

	call	?READ_COORD@@YAMXZ			; READ_COORD
	lea	ecx, DWORD PTR _vecFrom$[ebp]
	fstp	DWORD PTR tv155[ebp]
	call	??BVector@@QAEPAMXZ			; Vector::operator float *
	mov	ecx, DWORD PTR _i$1[ebp]
	fld	DWORD PTR tv155[ebp]
	fstp	DWORD PTR [eax+ecx*4]
	jmp	SHORT $LN2@MsgFunc_Da
$LN3@MsgFunc_Da:

; 128  : 
; 129  : 	UpdateTiles( gHUD.m_flTime, bitsDamage );

	mov	eax, DWORD PTR _bitsDamage$[ebp]
	push	eax
	push	ecx
	movss	xmm0, DWORD PTR ?gHUD@@3VCHud@@A+32
	movss	DWORD PTR [esp], xmm0
	mov	ecx, DWORD PTR _this$[ebp]
	call	?UpdateTiles@CHudHealth@@AAEXMJ@Z	; CHudHealth::UpdateTiles

; 130  : 
; 131  : 	// Actually took damage?
; 132  : 	if( damageTaken > 0 || armor > 0 )

	mov	eax, DWORD PTR _this$[ebp]
	cmp	DWORD PTR [eax+44], 0
	jg	SHORT $LN6@MsgFunc_Da
	cmp	DWORD PTR _armor$[ebp], 0
	jle	SHORT $LN5@MsgFunc_Da
$LN6@MsgFunc_Da:

; 133  : 		CalcDamageDirection( vecFrom );

	sub	esp, 12					; 0000000cH
	mov	ecx, esp
	lea	eax, DWORD PTR _vecFrom$[ebp]
	push	eax
	call	??0Vector@@QAE@ABV0@@Z			; Vector::Vector
	mov	ecx, DWORD PTR _this$[ebp]
	call	?CalcDamageDirection@CHudHealth@@AAEXVVector@@@Z ; CHudHealth::CalcDamageDirection
$LN5@MsgFunc_Da:

; 134  : 
; 135  : 	END_READ();

	call	?END_READ@@YAXXZ			; END_READ

; 136  : 
; 137  : 	if( !g_iUser1 ) // not when in spectator

	cmp	DWORD PTR ?g_iUser1@@3HA, 0		; g_iUser1
	jne	SHORT $LN9@MsgFunc_Da

; 138  : 	{
; 139  : 		if( damageTaken > 25 )

	mov	eax, DWORD PTR _this$[ebp]
	cmp	DWORD PTR [eax+44], 25			; 00000019H
	jle	SHORT $LN8@MsgFunc_Da

; 140  : 			ApplyGaussBlur = true;

	mov	BYTE PTR ?ApplyGaussBlur@@3_NA, 1	; ApplyGaussBlur
$LN8@MsgFunc_Da:

; 141  : 
; 142  : 		if( damageTaken > 15 )

	mov	eax, DWORD PTR _this$[ebp]
	cmp	DWORD PTR [eax+44], 15			; 0000000fH
	jle	SHORT $LN9@MsgFunc_Da

; 143  : 			ApplyDamageMonochrome = true;

	mov	BYTE PTR ?ApplyDamageMonochrome@@3_NA, 1 ; ApplyDamageMonochrome
$LN9@MsgFunc_Da:

; 144  : 	}
; 145  : 
; 146  : 	return 1;

	mov	eax, 1

; 147  : }

	pop	edi
	pop	esi
	pop	ebx
	mov	esp, ebp
	pop	ebp
	ret	12					; 0000000cH
?MsgFunc_Damage@CHudHealth@@QAEHPBDHPAX@Z ENDP		; CHudHealth::MsgFunc_Damage
_TEXT	ENDS
; Function compile flags: /Odtp /ZI
; File d:\!diffusion 2020\source code 2022\client-server\client\hud_pain.cpp
;	COMDAT ?MsgFunc_Health@CHudHealth@@QAEHPBDHPAX@Z
_TEXT	SEGMENT
_x$ = -8						; size = 4
_this$ = -4						; size = 4
_pszName$ = 8						; size = 4
_iSize$ = 12						; size = 4
_pbuf$ = 16						; size = 4
?MsgFunc_Health@CHudHealth@@QAEHPBDHPAX@Z PROC		; CHudHealth::MsgFunc_Health, COMDAT
; _this$ = ecx

; 97   : {

	push	ebp
	mov	ebp, esp
	sub	esp, 72					; 00000048H
	push	ebx
	push	esi
	push	edi
	mov	DWORD PTR _this$[ebp], ecx

; 98   : 	// TODO: update local health data
; 99   : 	BEGIN_READ( pszName, pbuf, iSize );

	mov	eax, DWORD PTR _iSize$[ebp]
	push	eax
	mov	ecx, DWORD PTR _pbuf$[ebp]
	push	ecx
	mov	edx, DWORD PTR _pszName$[ebp]
	push	edx
	call	?BEGIN_READ@@YAXPBDPAXH@Z		; BEGIN_READ
	add	esp, 12					; 0000000cH

; 100  : 
; 101  : 	int x = READ_BYTE();

	call	?READ_BYTE@@YAHXZ			; READ_BYTE
	mov	DWORD PTR _x$[ebp], eax

; 102  : 	m_iFlags |= HUD_ACTIVE;

	mov	eax, DWORD PTR _this$[ebp]
	mov	ecx, DWORD PTR [eax+4]
	or	ecx, 1
	mov	edx, DWORD PTR _this$[ebp]
	mov	DWORD PTR [edx+4], ecx

; 103  : 
; 104  : 	// Only update the fade if we've changed health
; 105  : 	if( x != m_iHealth )

	mov	eax, DWORD PTR _this$[ebp]
	mov	ecx, DWORD PTR _x$[ebp]
	cmp	ecx, DWORD PTR [eax+28]
	je	SHORT $LN2@MsgFunc_He

; 106  : 	{
; 107  : 		m_fFade = FADE_TIME;

	mov	eax, DWORD PTR _this$[ebp]
	movss	xmm0, DWORD PTR __real@42c80000
	movss	DWORD PTR [eax+24], xmm0

; 108  : 		m_iHealth = x;

	mov	eax, DWORD PTR _this$[ebp]
	mov	ecx, DWORD PTR _x$[ebp]
	mov	DWORD PTR [eax+28], ecx
$LN2@MsgFunc_He:

; 109  : 	}
; 110  : 
; 111  : 	END_READ();

	call	?END_READ@@YAXXZ			; END_READ

; 112  : 
; 113  : 	return 1;

	mov	eax, 1

; 114  : }

	pop	edi
	pop	esi
	pop	ebx
	mov	esp, ebp
	pop	ebp
	ret	12					; 0000000cH
?MsgFunc_Health@CHudHealth@@QAEHPBDHPAX@Z ENDP		; CHudHealth::MsgFunc_Health
_TEXT	ENDS
; Function compile flags: /Odtp /ZI
; File d:\!diffusion 2020\source code 2022\client-server\client\hud_pain.cpp
;	COMDAT ?Reset@CHudHealth@@UAEXXZ
_TEXT	SEGMENT
_i$1 = -8						; size = 4
_this$ = -4						; size = 4
?Reset@CHudHealth@@UAEXXZ PROC				; CHudHealth::Reset, COMDAT
; _this$ = ecx

; 67   : {

	push	ebp
	mov	ebp, esp
	sub	esp, 72					; 00000048H
	push	ebx
	push	esi
	push	edi
	mov	DWORD PTR _this$[ebp], ecx

; 68   : 	// make sure the pain compass is cleared when the player respawns
; 69   : 	m_fAttackFront = m_fAttackRear = m_fAttackRight = m_fAttackLeft = 0;

	mov	eax, DWORD PTR _this$[ebp]
	xorps	xmm0, xmm0
	movss	DWORD PTR [eax+16], xmm0
	mov	ecx, DWORD PTR _this$[ebp]
	xorps	xmm0, xmm0
	movss	DWORD PTR [ecx+20], xmm0
	mov	edx, DWORD PTR _this$[ebp]
	xorps	xmm0, xmm0
	movss	DWORD PTR [edx+12], xmm0
	mov	eax, DWORD PTR _this$[ebp]
	xorps	xmm0, xmm0
	movss	DWORD PTR [eax+8], xmm0

; 70   : 
; 71   : 	// force all the flashing damage icons to expire
; 72   : 	m_bitsDamage = 0;

	mov	eax, DWORD PTR _this$[ebp]
	mov	DWORD PTR [eax+40], 0

; 73   : 
; 74   : 	for( int i = 0; i < NUM_DMG_TYPES; i++ )

	mov	DWORD PTR _i$1[ebp], 0
	jmp	SHORT $LN4@Reset
$LN2@Reset:
	mov	eax, DWORD PTR _i$1[ebp]
	add	eax, 1
	mov	DWORD PTR _i$1[ebp], eax
$LN4@Reset:
	cmp	DWORD PTR _i$1[ebp], 9
	jge	SHORT $LN3@Reset

; 75   : 	{
; 76   : 		m_dmg[i].fExpire = 0;

	mov	eax, DWORD PTR _i$1[ebp]
	shl	eax, 4
	mov	ecx, DWORD PTR _this$[ebp]
	xorps	xmm0, xmm0
	movss	DWORD PTR [ecx+eax+56], xmm0

; 77   : 	}

	jmp	SHORT $LN2@Reset
$LN3@Reset:

; 78   : }

	pop	edi
	pop	esi
	pop	ebx
	mov	esp, ebp
	pop	ebp
	ret	0
?Reset@CHudHealth@@UAEXXZ ENDP				; CHudHealth::Reset
_TEXT	ENDS
; Function compile flags: /Odtp /ZI
; File d:\!diffusion 2020\source code 2022\client-server\client\hud_pain.cpp
;	COMDAT ?Draw@CHudHealth@@UAEHM@Z
_TEXT	SEGMENT
_this$ = -4						; size = 4
_flTime$ = 8						; size = 4
?Draw@CHudHealth@@UAEHM@Z PROC				; CHudHealth::Draw, COMDAT
; _this$ = ecx

; 171  : {

	push	ebp
	mov	ebp, esp
	sub	esp, 68					; 00000044H
	push	ebx
	push	esi
	push	edi
	mov	DWORD PTR _this$[ebp], ecx

; 172  : 	if(( gHUD.m_iHideHUDDisplay & HIDEHUD_HEALTH ) || gEngfuncs.IsSpectateOnly() )

	mov	eax, DWORD PTR ?gHUD@@3VCHud@@A+76
	and	eax, 8
	jne	SHORT $LN3@Draw
	call	DWORD PTR ?gEngfuncs@@3Ucl_enginefuncs_s@@A+352
	test	eax, eax
	je	SHORT $LN2@Draw
$LN3@Draw:

; 173  : 		return 1;

	mov	eax, 1
	jmp	SHORT $LN1@Draw
$LN2@Draw:

; 174  : 	
; 175  : 	if( !m_hSprite )

	mov	eax, DWORD PTR _this$[ebp]
	cmp	DWORD PTR [eax+48], 0
	jne	SHORT $LN4@Draw

; 176  : 		m_hSprite = LoadSprite( PAIN_NAME );

	push	OFFSET ??_C@_0BF@LHFKGLEJ@sprites?1640_pain?4spr?$AA@
	call	?LoadSprite@@YAHPBD@Z			; LoadSprite
	add	esp, 4
	mov	ecx, DWORD PTR _this$[ebp]
	mov	DWORD PTR [ecx+48], eax
$LN4@Draw:

; 177  : 
; 178  : 	if( tr.time == tr.oldtime ) // paused

	movsd	xmm0, QWORD PTR ?tr@@3Uref_globals_t@@A+8
	ucomisd	xmm0, QWORD PTR ?tr@@3Uref_globals_t@@A+16
	lahf
	test	ah, 68					; 00000044H
	jp	SHORT $LN5@Draw

; 179  : 		return 1;

	mov	eax, 1
	jmp	SHORT $LN1@Draw
$LN5@Draw:

; 180  : 
; 181  : 	// diffusion - old HL health with numbers
; 182  : /*	
; 183  : 	int r, g, b;
; 184  : 	int a = 0, x, y;
; 185  : 	int HealthWidth;	
; 186  : 	
; 187  : 	// Has health changed? Flash the health #
; 188  : 	if( m_fFade )
; 189  : 	{
; 190  : 		m_fFade -= (gHUD.m_flTimeDelta * 20);
; 191  : 		if( m_fFade <= 0 )
; 192  : 		{
; 193  : 			a = MIN_ALPHA;
; 194  : 			m_fFade = 0;
; 195  : 		}
; 196  : 
; 197  : 		// Fade the health number back to dim
; 198  : 		a = MIN_ALPHA +  (m_fFade/FADE_TIME) * 128;
; 199  : 
; 200  : 	}
; 201  : 	else
; 202  : 	{
; 203  : 		a = MIN_ALPHA;
; 204  : 	}
; 205  : 	
; 206  : 	// If health is getting low, make it bright red
; 207  : 	if( m_iHealth <= 20 )
; 208  : 		a = 255;
; 209  : 		
; 210  : 	GetPainColor( r, g, b );
; 211  : 	ScaleColors( r, g, b, a );
; 212  : 
; 213  : 	// Only draw health if we have the suit.
; 214  : 	if (gHUD.HasWeapon( WEAPON_SUIT ))
; 215  : 	{
; 216  : 		HealthWidth = gHUD.GetSpriteRect( gHUD.m_HUD_number_0 ).right - gHUD.GetSpriteRect( gHUD.m_HUD_number_0 ).left;
; 217  : 		int CrossWidth = gHUD.GetSpriteRect( m_HUD_cross ).right - gHUD.GetSpriteRect( m_HUD_cross ).left;
; 218  : 
; 219  : 		y = ScreenHeight - gHUD.m_iFontHeight - gHUD.m_iFontHeight / 2;
; 220  : 		x = CrossWidth /2;
; 221  : 
; 222  : 		SPR_Set( gHUD.GetSprite(m_HUD_cross ), r, g, b );
; 223  : 		SPR_DrawAdditive( 0, x, y, &gHUD.GetSpriteRect( m_HUD_crocss ));
; 224  : 
; 225  : 		x = CrossWidth + HealthWidth / 2;
; 226  : 
; 227  : 		x = gHUD.DrawHudNumber( x, y, DHN_3DIGITS | DHN_DRAWZERO, m_iHealth, r, g, b );
; 228  : 
; 229  : 		x += HealthWidth / 2;
; 230  : 
; 231  : 		int iHeight = gHUD.m_iFontHeight;
; 232  : 		int iWidth = HealthWidth / 10;
; 233  : 
; 234  : 		UnpackRGB( r, g, b, gHUD.m_iHUDColor );
; 235  : 		FillRGBA( x, y, iWidth, iHeight, r, g, b, a );
; 236  : 	}
; 237  : */
; 238  : 	DrawDamage( flTime );

	push	ecx
	movss	xmm0, DWORD PTR _flTime$[ebp]
	movss	DWORD PTR [esp], xmm0
	mov	ecx, DWORD PTR _this$[ebp]
	call	?DrawDamage@CHudHealth@@AAEHM@Z		; CHudHealth::DrawDamage

; 239  : 	return DrawPain( flTime );

	push	ecx
	movss	xmm0, DWORD PTR _flTime$[ebp]
	movss	DWORD PTR [esp], xmm0
	mov	ecx, DWORD PTR _this$[ebp]
	call	?DrawPain@CHudHealth@@AAEHM@Z		; CHudHealth::DrawPain
$LN1@Draw:

; 240  : }

	pop	edi
	pop	esi
	pop	ebx
	mov	esp, ebp
	pop	ebp
	ret	4
?Draw@CHudHealth@@UAEHM@Z ENDP				; CHudHealth::Draw
_TEXT	ENDS
; Function compile flags: /Odtp /ZI
; File d:\!diffusion 2020\source code 2022\client-server\client\hud_pain.cpp
;	COMDAT ?VidInit@CHudHealth@@UAEHXZ
_TEXT	SEGMENT
_this$ = -4						; size = 4
?VidInit@CHudHealth@@UAEHXZ PROC			; CHudHealth::VidInit, COMDAT
; _this$ = ecx

; 81   : {

	push	ebp
	mov	ebp, esp
	sub	esp, 68					; 00000044H
	push	ebx
	push	esi
	push	edi
	mov	DWORD PTR _this$[ebp], ecx

; 82   : 	m_hSprite = 0;

	mov	eax, DWORD PTR _this$[ebp]
	mov	DWORD PTR [eax+48], 0

; 83   : 
; 84   : 	m_HUD_dmg_bio = gHUD.GetSpriteIndex( "dmg_bio" ) + 1;

	push	OFFSET ??_C@_07LPODHMEF@dmg_bio?$AA@
	mov	ecx, OFFSET ?gHUD@@3VCHud@@A		; gHUD
	call	?GetSpriteIndex@CHud@@QAEHPBD@Z		; CHud::GetSpriteIndex
	add	eax, 1
	mov	ecx, DWORD PTR _this$[ebp]
	mov	DWORD PTR [ecx+32], eax

; 85   : 	m_HUD_cross = gHUD.GetSpriteIndex( "cross" );

	push	OFFSET ??_C@_05HCKPILGO@cross?$AA@
	mov	ecx, OFFSET ?gHUD@@3VCHud@@A		; gHUD
	call	?GetSpriteIndex@CHud@@QAEHPBD@Z		; CHud::GetSpriteIndex
	mov	ecx, DWORD PTR _this$[ebp]
	mov	DWORD PTR [ecx+36], eax

; 86   : 
; 87   : 	giDmgHeight = gHUD.GetSpriteRect( m_HUD_dmg_bio ).right - gHUD.GetSpriteRect( m_HUD_dmg_bio ).left;

	mov	eax, DWORD PTR _this$[ebp]
	mov	ecx, DWORD PTR [eax+32]
	push	ecx
	mov	ecx, OFFSET ?gHUD@@3VCHud@@A		; gHUD
	call	?GetSpriteRect@CHud@@QAEAAUwrect_s@@H@Z	; CHud::GetSpriteRect
	mov	esi, eax
	mov	edx, DWORD PTR _this$[ebp]
	mov	eax, DWORD PTR [edx+32]
	push	eax
	mov	ecx, OFFSET ?gHUD@@3VCHud@@A		; gHUD
	call	?GetSpriteRect@CHud@@QAEAAUwrect_s@@H@Z	; CHud::GetSpriteRect
	mov	ecx, DWORD PTR [esi+4]
	sub	ecx, DWORD PTR [eax]
	mov	DWORD PTR ?giDmgHeight@@3HA, ecx	; giDmgHeight

; 88   : 	giDmgWidth = gHUD.GetSpriteRect( m_HUD_dmg_bio ).bottom - gHUD.GetSpriteRect( m_HUD_dmg_bio ).top;

	mov	eax, DWORD PTR _this$[ebp]
	mov	ecx, DWORD PTR [eax+32]
	push	ecx
	mov	ecx, OFFSET ?gHUD@@3VCHud@@A		; gHUD
	call	?GetSpriteRect@CHud@@QAEAAUwrect_s@@H@Z	; CHud::GetSpriteRect
	mov	esi, eax
	mov	edx, DWORD PTR _this$[ebp]
	mov	eax, DWORD PTR [edx+32]
	push	eax
	mov	ecx, OFFSET ?gHUD@@3VCHud@@A		; gHUD
	call	?GetSpriteRect@CHud@@QAEAAUwrect_s@@H@Z	; CHud::GetSpriteRect
	mov	ecx, DWORD PTR [esi+12]
	sub	ecx, DWORD PTR [eax+8]
	mov	DWORD PTR ?giDmgWidth@@3HA, ecx		; giDmgWidth

; 89   : 
; 90   : 	// diffusion - reset "offline", saverestore issues again...
; 91   : 	gHUD.NextDrawingOfflineHUDTime = 0;

	xorps	xmm0, xmm0
	movss	DWORD PTR ?gHUD@@3VCHud@@A+140, xmm0

; 92   : 	gHUD.IsDrawingOfflineHUD = false;

	mov	BYTE PTR ?gHUD@@3VCHud@@A+114, 0

; 93   : 	return 1;

	mov	eax, 1

; 94   : }

	pop	edi
	pop	esi
	pop	ebx
	mov	esp, ebp
	pop	ebp
	ret	0
?VidInit@CHudHealth@@UAEHXZ ENDP			; CHudHealth::VidInit
_TEXT	ENDS
; Function compile flags: /Odtp /ZI
; File d:\!diffusion 2020\source code 2022\client-server\client\hud_pain.cpp
;	COMDAT ?Init@CHudHealth@@UAEHXZ
_TEXT	SEGMENT
_this$ = -4						; size = 4
?Init@CHudHealth@@UAEHXZ PROC				; CHudHealth::Init, COMDAT
; _this$ = ecx

; 48   : {

	push	ebp
	mov	ebp, esp
	sub	esp, 68					; 00000044H
	push	ebx
	push	esi
	push	edi
	mov	DWORD PTR _this$[ebp], ecx

; 49   : 	HOOK_MESSAGE( Health );

	push	OFFSET ?__MsgFunc_Health@@YAHPBDHPAX@Z	; __MsgFunc_Health
	push	OFFSET ??_C@_06GGDALCBD@Health?$AA@
	call	DWORD PTR ?gEngfuncs@@3Ucl_enginefuncs_s@@A+72
	add	esp, 8

; 50   : 	HOOK_MESSAGE( Damage );

	push	OFFSET ?__MsgFunc_Damage@@YAHPBDHPAX@Z	; __MsgFunc_Damage
	push	OFFSET ??_C@_06KGFFMMMJ@Damage?$AA@
	call	DWORD PTR ?gEngfuncs@@3Ucl_enginefuncs_s@@A+72
	add	esp, 8

; 51   : 	m_iHealth = 100;

	mov	eax, DWORD PTR _this$[ebp]
	mov	DWORD PTR [eax+28], 100			; 00000064H

; 52   : 	m_fFade = 0;

	mov	eax, DWORD PTR _this$[ebp]
	xorps	xmm0, xmm0
	movss	DWORD PTR [eax+24], xmm0

; 53   : 	m_iFlags = 0;

	mov	eax, DWORD PTR _this$[ebp]
	mov	DWORD PTR [eax+4], 0

; 54   : 	m_bitsDamage = 0;

	mov	eax, DWORD PTR _this$[ebp]
	mov	DWORD PTR [eax+40], 0

; 55   : 	m_fAttackFront = m_fAttackRear = m_fAttackRight = m_fAttackLeft = 0;

	mov	eax, DWORD PTR _this$[ebp]
	xorps	xmm0, xmm0
	movss	DWORD PTR [eax+16], xmm0
	mov	ecx, DWORD PTR _this$[ebp]
	xorps	xmm0, xmm0
	movss	DWORD PTR [ecx+20], xmm0
	mov	edx, DWORD PTR _this$[ebp]
	xorps	xmm0, xmm0
	movss	DWORD PTR [edx+12], xmm0
	mov	eax, DWORD PTR _this$[ebp]
	xorps	xmm0, xmm0
	movss	DWORD PTR [eax+8], xmm0

; 56   : 	giDmgHeight = 0;

	mov	DWORD PTR ?giDmgHeight@@3HA, 0		; giDmgHeight

; 57   : 	giDmgWidth = 0;

	mov	DWORD PTR ?giDmgWidth@@3HA, 0		; giDmgWidth

; 58   : 
; 59   : 	memset( m_dmg, 0, sizeof( m_dmg ));

	push	144					; 00000090H
	push	0
	mov	eax, DWORD PTR _this$[ebp]
	add	eax, 56					; 00000038H
	push	eax
	call	_memset
	add	esp, 12					; 0000000cH

; 60   : 
; 61   : 	gHUD.AddHudElem( this );

	mov	eax, DWORD PTR _this$[ebp]
	push	eax
	mov	ecx, OFFSET ?gHUD@@3VCHud@@A		; gHUD
	call	?AddHudElem@CHud@@QAEXPAVCHudBase@@@Z	; CHud::AddHudElem

; 62   : 
; 63   : 	return 1;

	mov	eax, 1

; 64   : }

	pop	edi
	pop	esi
	pop	ebx
	mov	esp, ebp
	pop	ebp
	ret	0
?Init@CHudHealth@@UAEHXZ ENDP				; CHudHealth::Init
_TEXT	ENDS
; Function compile flags: /Odtp /ZI
; File d:\!diffusion 2020\source code 2022\client-server\game_shared\vector.h
;	COMDAT ?DotProduct@@YAMABVVector@@0@Z
_TEXT	SEGMENT
tv86 = -68						; size = 4
_a$ = 8							; size = 4
_b$ = 12						; size = 4
?DotProduct@@YAMABVVector@@0@Z PROC			; DotProduct, COMDAT

; 308  : inline float DotProduct(const Vector& a, const Vector& b ) { return( a.x * b.x + a.y * b.y + a.z * b.z ); }

	push	ebp
	mov	ebp, esp
	sub	esp, 68					; 00000044H
	push	ebx
	push	esi
	push	edi
	mov	eax, DWORD PTR _a$[ebp]
	mov	ecx, DWORD PTR _b$[ebp]
	movss	xmm0, DWORD PTR [eax]
	mulss	xmm0, DWORD PTR [ecx]
	mov	edx, DWORD PTR _a$[ebp]
	mov	eax, DWORD PTR _b$[ebp]
	movss	xmm1, DWORD PTR [edx+4]
	mulss	xmm1, DWORD PTR [eax+4]
	addss	xmm0, xmm1
	mov	ecx, DWORD PTR _a$[ebp]
	mov	edx, DWORD PTR _b$[ebp]
	movss	xmm1, DWORD PTR [ecx+8]
	mulss	xmm1, DWORD PTR [edx+8]
	addss	xmm0, xmm1
	movss	DWORD PTR tv86[ebp], xmm0
	fld	DWORD PTR tv86[ebp]
	pop	edi
	pop	esi
	pop	ebx
	mov	esp, ebp
	pop	ebp
	ret	0
?DotProduct@@YAMABVVector@@0@Z ENDP			; DotProduct
_TEXT	ENDS
; Function compile flags: /Odtp /ZI
; File d:\!diffusion 2020\source code 2022\client-server\game_shared\vector.h
;	COMDAT ?Normalize@Vector@@QBE?AV1@XZ
_TEXT	SEGMENT
_flLen$ = -8						; size = 4
_this$ = -4						; size = 4
___$ReturnUdt$ = 8					; size = 4
?Normalize@Vector@@QBE?AV1@XZ PROC			; Vector::Normalize, COMDAT
; _this$ = ecx

; 251  : 	{

	push	ebp
	mov	ebp, esp
	sub	esp, 72					; 00000048H
	push	ebx
	push	esi
	push	edi
	mov	DWORD PTR _this$[ebp], ecx

; 252  : 		float flLen = Length();

	mov	ecx, DWORD PTR _this$[ebp]
	call	?Length@Vector@@QBEMXZ			; Vector::Length
	fstp	DWORD PTR _flLen$[ebp]

; 253  : 
; 254  : 		if( flLen )

	movss	xmm0, DWORD PTR _flLen$[ebp]
	ucomiss	xmm0, DWORD PTR __real@00000000
	lahf
	test	ah, 68					; 00000044H
	jnp	SHORT $LN2@Normalize

; 255  : 		{
; 256  : 			flLen = 1.0f / flLen;

	movss	xmm0, DWORD PTR __real@3f800000
	divss	xmm0, DWORD PTR _flLen$[ebp]
	movss	DWORD PTR _flLen$[ebp], xmm0

; 257  : 			return Vector( x * flLen, y * flLen, z * flLen );

	mov	eax, DWORD PTR _this$[ebp]
	movss	xmm0, DWORD PTR [eax+8]
	mulss	xmm0, DWORD PTR _flLen$[ebp]
	push	ecx
	movss	DWORD PTR [esp], xmm0
	mov	ecx, DWORD PTR _this$[ebp]
	movss	xmm0, DWORD PTR [ecx+4]
	mulss	xmm0, DWORD PTR _flLen$[ebp]
	push	ecx
	movss	DWORD PTR [esp], xmm0
	mov	edx, DWORD PTR _this$[ebp]
	movss	xmm0, DWORD PTR [edx]
	mulss	xmm0, DWORD PTR _flLen$[ebp]
	push	ecx
	movss	DWORD PTR [esp], xmm0
	mov	ecx, DWORD PTR ___$ReturnUdt$[ebp]
	call	??0Vector@@QAE@MMM@Z			; Vector::Vector
	mov	eax, DWORD PTR ___$ReturnUdt$[ebp]
	jmp	SHORT $LN1@Normalize
$LN2@Normalize:

; 258  : 		}
; 259  : 
; 260  : 		return *this; // can't normalize

	mov	eax, DWORD PTR _this$[ebp]
	push	eax
	mov	ecx, DWORD PTR ___$ReturnUdt$[ebp]
	call	??0Vector@@QAE@ABV0@@Z			; Vector::Vector
	mov	eax, DWORD PTR ___$ReturnUdt$[ebp]
$LN1@Normalize:

; 261  : 	}

	pop	edi
	pop	esi
	pop	ebx
	mov	esp, ebp
	pop	ebp
	ret	4
?Normalize@Vector@@QBE?AV1@XZ ENDP			; Vector::Normalize
_TEXT	ENDS
; Function compile flags: /Odtp /ZI
; File d:\!diffusion 2020\source code 2022\client-server\game_shared\vector.h
;	COMDAT ??BVector@@QAEPAMXZ
_TEXT	SEGMENT
_this$ = -4						; size = 4
??BVector@@QAEPAMXZ PROC				; Vector::operator float *, COMDAT
; _this$ = ecx

; 247  : 	operator float *()				{ return &x; } // Vectors will now automatically convert to float * when needed

	push	ebp
	mov	ebp, esp
	sub	esp, 68					; 00000044H
	push	ebx
	push	esi
	push	edi
	mov	DWORD PTR _this$[ebp], ecx
	mov	eax, DWORD PTR _this$[ebp]
	pop	edi
	pop	esi
	pop	ebx
	mov	esp, ebp
	pop	ebp
	ret	0
??BVector@@QAEPAMXZ ENDP				; Vector::operator float *
_TEXT	ENDS
; Function compile flags: /Odtp /ZI
; File d:\!diffusion 2020\source code 2022\client-server\game_shared\vector.h
;	COMDAT ?Length@Vector@@QBEMXZ
_TEXT	SEGMENT
tv91 = -72						; size = 4
_this$ = -4						; size = 4
?Length@Vector@@QBEMXZ PROC				; Vector::Length, COMDAT
; _this$ = ecx

; 245  : 	inline float Length(void) const		{ return sqrt( x*x + y*y + z*z ); }

	push	ebp
	mov	ebp, esp
	sub	esp, 72					; 00000048H
	push	ebx
	push	esi
	push	edi
	mov	DWORD PTR _this$[ebp], ecx
	mov	eax, DWORD PTR _this$[ebp]
	mov	ecx, DWORD PTR _this$[ebp]
	movss	xmm0, DWORD PTR [eax]
	mulss	xmm0, DWORD PTR [ecx]
	mov	edx, DWORD PTR _this$[ebp]
	mov	eax, DWORD PTR _this$[ebp]
	movss	xmm1, DWORD PTR [edx+4]
	mulss	xmm1, DWORD PTR [eax+4]
	addss	xmm0, xmm1
	mov	ecx, DWORD PTR _this$[ebp]
	mov	edx, DWORD PTR _this$[ebp]
	movss	xmm1, DWORD PTR [ecx+8]
	mulss	xmm1, DWORD PTR [edx+8]
	addss	xmm0, xmm1
	cvtss2sd xmm0, xmm0
	sub	esp, 8
	movsd	QWORD PTR [esp], xmm0
	call	_sqrt
	add	esp, 8
	fstp	DWORD PTR tv91[ebp]
	fld	DWORD PTR tv91[ebp]
	pop	edi
	pop	esi
	pop	ebx
	mov	esp, ebp
	pop	ebp
	ret	0
?Length@Vector@@QBEMXZ ENDP				; Vector::Length
_TEXT	ENDS
; Function compile flags: /Odtp /ZI
; File d:\!diffusion 2020\source code 2022\client-server\game_shared\vector.h
;	COMDAT ??ZVector@@QAEAAV0@ABV0@@Z
_TEXT	SEGMENT
_this$ = -4						; size = 4
_v$ = 8							; size = 4
??ZVector@@QAEAAV0@ABV0@@Z PROC				; Vector::operator-=, COMDAT
; _this$ = ecx

; 173  : 	{

	push	ebp
	mov	ebp, esp
	sub	esp, 68					; 00000044H
	push	ebx
	push	esi
	push	edi
	mov	DWORD PTR _this$[ebp], ecx

; 174  : 		x-=v.x; y-=v.y; z -= v.z;	

	mov	eax, DWORD PTR _this$[ebp]
	mov	ecx, DWORD PTR _v$[ebp]
	movss	xmm0, DWORD PTR [eax]
	subss	xmm0, DWORD PTR [ecx]
	mov	edx, DWORD PTR _this$[ebp]
	movss	DWORD PTR [edx], xmm0
	mov	eax, DWORD PTR _this$[ebp]
	mov	ecx, DWORD PTR _v$[ebp]
	movss	xmm0, DWORD PTR [eax+4]
	subss	xmm0, DWORD PTR [ecx+4]
	mov	edx, DWORD PTR _this$[ebp]
	movss	DWORD PTR [edx+4], xmm0
	mov	eax, DWORD PTR _this$[ebp]
	mov	ecx, DWORD PTR _v$[ebp]
	movss	xmm0, DWORD PTR [eax+8]
	subss	xmm0, DWORD PTR [ecx+8]
	mov	edx, DWORD PTR _this$[ebp]
	movss	DWORD PTR [edx+8], xmm0

; 175  : 		return *this;

	mov	eax, DWORD PTR _this$[ebp]

; 176  : 	}		

	pop	edi
	pop	esi
	pop	ebx
	mov	esp, ebp
	pop	ebp
	ret	4
??ZVector@@QAEAAV0@ABV0@@Z ENDP				; Vector::operator-=
_TEXT	ENDS
; Function compile flags: /Odtp /ZI
; File d:\!diffusion 2020\source code 2022\client-server\game_shared\vector.h
;	COMDAT ??8Vector@@QBEHABV0@@Z
_TEXT	SEGMENT
tv73 = -72						; size = 4
_this$ = -4						; size = 4
_v$ = 8							; size = 4
??8Vector@@QBEHABV0@@Z PROC				; Vector::operator==, COMDAT
; _this$ = ecx

; 156  : 	inline int operator==(const Vector& v) const	{ return x==v.x && y==v.y && z==v.z;	   }

	push	ebp
	mov	ebp, esp
	sub	esp, 72					; 00000048H
	push	ebx
	push	esi
	push	edi
	mov	DWORD PTR _this$[ebp], ecx
	mov	eax, DWORD PTR _this$[ebp]
	mov	ecx, DWORD PTR _v$[ebp]
	movss	xmm0, DWORD PTR [eax]
	ucomiss	xmm0, DWORD PTR [ecx]
	lahf
	test	ah, 68					; 00000044H
	jp	SHORT $LN3@operator
	mov	edx, DWORD PTR _this$[ebp]
	mov	eax, DWORD PTR _v$[ebp]
	movss	xmm0, DWORD PTR [edx+4]
	ucomiss	xmm0, DWORD PTR [eax+4]
	lahf
	test	ah, 68					; 00000044H
	jp	SHORT $LN3@operator
	mov	ecx, DWORD PTR _this$[ebp]
	mov	edx, DWORD PTR _v$[ebp]
	movss	xmm0, DWORD PTR [ecx+8]
	ucomiss	xmm0, DWORD PTR [edx+8]
	lahf
	test	ah, 68					; 00000044H
	jp	SHORT $LN3@operator
	mov	DWORD PTR tv73[ebp], 1
	jmp	SHORT $LN4@operator
$LN3@operator:
	mov	DWORD PTR tv73[ebp], 0
$LN4@operator:
	mov	eax, DWORD PTR tv73[ebp]
	pop	edi
	pop	esi
	pop	ebx
	mov	esp, ebp
	pop	ebp
	ret	4
??8Vector@@QBEHABV0@@Z ENDP				; Vector::operator==
_TEXT	ENDS
; Function compile flags: /Odtp /ZI
; File d:\!diffusion 2020\source code 2022\client-server\game_shared\vector.h
;	COMDAT ??0Vector@@QAE@ABV0@@Z
_TEXT	SEGMENT
_this$ = -4						; size = 4
_v$ = 8							; size = 4
??0Vector@@QAE@ABV0@@Z PROC				; Vector::Vector, COMDAT
; _this$ = ecx

; 145  : 	inline Vector(const Vector& v)		{ x = v.x; y = v.y; z = v.z;		   }

	push	ebp
	mov	ebp, esp
	sub	esp, 68					; 00000044H
	push	ebx
	push	esi
	push	edi
	mov	DWORD PTR _this$[ebp], ecx
	mov	eax, DWORD PTR _this$[ebp]
	mov	ecx, DWORD PTR _v$[ebp]
	mov	edx, DWORD PTR [ecx]
	mov	DWORD PTR [eax], edx
	mov	eax, DWORD PTR _this$[ebp]
	mov	ecx, DWORD PTR _v$[ebp]
	mov	edx, DWORD PTR [ecx+4]
	mov	DWORD PTR [eax+4], edx
	mov	eax, DWORD PTR _this$[ebp]
	mov	ecx, DWORD PTR _v$[ebp]
	mov	edx, DWORD PTR [ecx+8]
	mov	DWORD PTR [eax+8], edx
	mov	eax, DWORD PTR _this$[ebp]
	pop	edi
	pop	esi
	pop	ebx
	mov	esp, ebp
	pop	ebp
	ret	4
??0Vector@@QAE@ABV0@@Z ENDP				; Vector::Vector
_TEXT	ENDS
; Function compile flags: /Odtp /ZI
; File d:\!diffusion 2020\source code 2022\client-server\game_shared\vector.h
;	COMDAT ??0Vector@@QAE@MMM@Z
_TEXT	SEGMENT
_this$ = -4						; size = 4
_X$ = 8							; size = 4
_Y$ = 12						; size = 4
_Z$ = 16						; size = 4
??0Vector@@QAE@MMM@Z PROC				; Vector::Vector, COMDAT
; _this$ = ecx

; 144  : 	inline Vector(float X, float Y, float Z)	{ x = X; y = Y; z = Z;                     }

	push	ebp
	mov	ebp, esp
	sub	esp, 68					; 00000044H
	push	ebx
	push	esi
	push	edi
	mov	DWORD PTR _this$[ebp], ecx
	mov	eax, DWORD PTR _this$[ebp]
	movss	xmm0, DWORD PTR _X$[ebp]
	movss	DWORD PTR [eax], xmm0
	mov	eax, DWORD PTR _this$[ebp]
	movss	xmm0, DWORD PTR _Y$[ebp]
	movss	DWORD PTR [eax+4], xmm0
	mov	eax, DWORD PTR _this$[ebp]
	movss	xmm0, DWORD PTR _Z$[ebp]
	movss	DWORD PTR [eax+8], xmm0
	mov	eax, DWORD PTR _this$[ebp]
	pop	edi
	pop	esi
	pop	ebx
	mov	esp, ebp
	pop	ebp
	ret	12					; 0000000cH
??0Vector@@QAE@MMM@Z ENDP				; Vector::Vector
_TEXT	ENDS
; Function compile flags: /Odtp /ZI
; File d:\!diffusion 2020\source code 2022\client-server\game_shared\vector.h
;	COMDAT ??0Vector@@QAE@XZ
_TEXT	SEGMENT
_this$ = -4						; size = 4
??0Vector@@QAE@XZ PROC					; Vector::Vector, COMDAT
; _this$ = ecx

; 143  : 	inline Vector(void)				{ }

	push	ebp
	mov	ebp, esp
	sub	esp, 68					; 00000044H
	push	ebx
	push	esi
	push	edi
	mov	DWORD PTR _this$[ebp], ecx
	mov	eax, DWORD PTR _this$[ebp]
	pop	edi
	pop	esi
	pop	ebx
	mov	esp, ebp
	pop	ebp
	ret	0
??0Vector@@QAE@XZ ENDP					; Vector::Vector
_TEXT	ENDS
; Function compile flags: /Odtp /ZI
;	COMDAT ??__G@YGXPAX0IIP6EPAX00@Z@Z
_TEXT	SEGMENT
tv66 = -68						; size = 4
___t$ = 8						; size = 4
___u$ = 12						; size = 4
___s$ = 16						; size = 4
___n$ = 20						; size = 4
___f$ = 24						; size = 4
??__G@YGXPAX0IIP6EPAX00@Z@Z PROC			; `vector copy constructor iterator', COMDAT
	push	ebp
	mov	ebp, esp
	sub	esp, 68					; 00000044H
	push	ebx
	push	esi
	push	edi
$LN2@vector:
	mov	eax, DWORD PTR ___n$[ebp]
	mov	DWORD PTR tv66[ebp], eax
	mov	ecx, DWORD PTR ___n$[ebp]
	sub	ecx, 1
	mov	DWORD PTR ___n$[ebp], ecx
	cmp	DWORD PTR tv66[ebp], 0
	jbe	SHORT $LN1@vector
	mov	eax, DWORD PTR ___u$[ebp]
	push	eax
	mov	ecx, DWORD PTR ___t$[ebp]
	call	DWORD PTR ___f$[ebp]
	mov	eax, DWORD PTR ___t$[ebp]
	add	eax, DWORD PTR ___s$[ebp]
	mov	DWORD PTR ___t$[ebp], eax
	mov	eax, DWORD PTR ___u$[ebp]
	add	eax, DWORD PTR ___s$[ebp]
	mov	DWORD PTR ___u$[ebp], eax
	jmp	SHORT $LN2@vector
$LN1@vector:
	pop	edi
	pop	esi
	pop	ebx
	mov	esp, ebp
	pop	ebp
	ret	20					; 00000014H
??__G@YGXPAX0IIP6EPAX00@Z@Z ENDP			; `vector copy constructor iterator'
_TEXT	ENDS
; Function compile flags: /Odtp /ZI
;	COMDAT ??_H@YGXPAXIIP6EPAX0@Z@Z
_TEXT	SEGMENT
tv66 = -68						; size = 4
___t$ = 8						; size = 4
___s$ = 12						; size = 4
___n$ = 16						; size = 4
___f$ = 20						; size = 4
??_H@YGXPAXIIP6EPAX0@Z@Z PROC				; `vector constructor iterator', COMDAT
	push	ebp
	mov	ebp, esp
	sub	esp, 68					; 00000044H
	push	ebx
	push	esi
	push	edi
$LN2@vector:
	mov	eax, DWORD PTR ___n$[ebp]
	mov	DWORD PTR tv66[ebp], eax
	mov	ecx, DWORD PTR ___n$[ebp]
	sub	ecx, 1
	mov	DWORD PTR ___n$[ebp], ecx
	cmp	DWORD PTR tv66[ebp], 0
	jbe	SHORT $LN1@vector
	mov	ecx, DWORD PTR ___t$[ebp]
	call	DWORD PTR ___f$[ebp]
	mov	eax, DWORD PTR ___t$[ebp]
	add	eax, DWORD PTR ___s$[ebp]
	mov	DWORD PTR ___t$[ebp], eax
	jmp	SHORT $LN2@vector
$LN1@vector:
	pop	edi
	pop	esi
	pop	ebx
	mov	esp, ebp
	pop	ebp
	ret	16					; 00000010H
??_H@YGXPAXIIP6EPAX0@Z@Z ENDP				; `vector constructor iterator'
_TEXT	ENDS
END
