; Listing generated by Microsoft (R) Optimizing Compiler Version 19.00.24247.2 

	TITLE	D:\!DIFFUSION 2020\source code 2022\client-server\client\inputw32.cpp
	.686P
	.XMM
	include listing.inc
	.model	flat

INCLUDELIB LIBCMT
INCLUDELIB OLDNAMES

PUBLIC	?MouseSpeed@@3MA				; MouseSpeed
PUBLIC	?m_filter@@3PAUcvar_s@@A			; m_filter
PUBLIC	?sensitivity@@3PAUcvar_s@@A			; sensitivity
PUBLIC	?mouse_buttons@@3HA				; mouse_buttons
PUBLIC	?mouse_oldbuttonstate@@3HA			; mouse_oldbuttonstate
PUBLIC	?current_pos@@3UtagPOINT@@A			; current_pos
PUBLIC	?mouse_x@@3MA					; mouse_x
PUBLIC	?mouse_y@@3MA					; mouse_y
PUBLIC	?old_mouse_x@@3MA				; old_mouse_x
PUBLIC	?old_mouse_y@@3MA				; old_mouse_y
PUBLIC	?mx_accum@@3MA					; mx_accum
PUBLIC	?my_accum@@3MA					; my_accum
_BSS	SEGMENT
?MouseSpeed@@3MA DD 01H DUP (?)				; MouseSpeed
?m_filter@@3PAUcvar_s@@A DD 01H DUP (?)			; m_filter
?sensitivity@@3PAUcvar_s@@A DD 01H DUP (?)		; sensitivity
?mouse_buttons@@3HA DD 01H DUP (?)			; mouse_buttons
?mouse_oldbuttonstate@@3HA DD 01H DUP (?)		; mouse_oldbuttonstate
?current_pos@@3UtagPOINT@@A DQ 01H DUP (?)		; current_pos
?mouse_x@@3MA DD 01H DUP (?)				; mouse_x
?mouse_y@@3MA DD 01H DUP (?)				; mouse_y
?old_mouse_x@@3MA DD 01H DUP (?)			; old_mouse_x
?old_mouse_y@@3MA DD 01H DUP (?)			; old_mouse_y
?mx_accum@@3MA DD 01H DUP (?)				; mx_accum
?my_accum@@3MA DD 01H DUP (?)				; my_accum
?mouseactive@@3HA DD 01H DUP (?)			; mouseactive
_BSS	ENDS
_DATA	SEGMENT
?newmouseparms@@3PAHA DD 00H				; newmouseparms
	DD	00H
	DD	01H
_DATA	ENDS
PUBLIC	??_H@YGXPAXIIP6EPAX0@Z@Z			; `vector constructor iterator'
PUBLIC	??__G@YGXPAX0IIP6EPAX00@Z@Z			; `vector copy constructor iterator'
PUBLIC	??0Vector2D@@QAE@MM@Z				; Vector2D::Vector2D
PUBLIC	??GVector2D@@QBE?AV0@ABV0@@Z			; Vector2D::operator-
PUBLIC	?Length@Vector2D@@QBEMXZ			; Vector2D::Length
PUBLIC	??0Vector@@QAE@XZ				; Vector::Vector
PUBLIC	?CopyToArray@Vector@@QBEXPAM@Z			; Vector::CopyToArray
PUBLIC	??BVector@@QAEPAMXZ				; Vector::operator float *
PUBLIC	?GetSensitivity@CHud@@QAEMXZ			; CHud::GetSensitivity
PUBLIC	?IN_Init@@YAXXZ					; IN_Init
PUBLIC	?IN_Move@@YAXMPAUusercmd_s@@@Z			; IN_Move
PUBLIC	?IN_Shutdown@@YAXXZ				; IN_Shutdown
PUBLIC	?IN_ResetMouse@@YAXXZ				; IN_ResetMouse
PUBLIC	?IN_ActivateMouse@@YAXXZ			; IN_ActivateMouse
PUBLIC	?IN_DeactivateMouse@@YAXXZ			; IN_DeactivateMouse
PUBLIC	?IN_MouseEvent@@YAXH@Z				; IN_MouseEvent
PUBLIC	?IN_Accumulate@@YAXXZ				; IN_Accumulate
PUBLIC	?IN_ClearStates@@YAXXZ				; IN_ClearStates
PUBLIC	?Force_CenterView_f@@YAXXZ			; Force_CenterView_f
PUBLIC	?IN_StartupMouse@@YAXXZ				; IN_StartupMouse
PUBLIC	?IN_GetMousePos@@YAXPAH0@Z			; IN_GetMousePos
PUBLIC	?IN_MouseMove@@YAXMPAUusercmd_s@@@Z		; IN_MouseMove
PUBLIC	??_C@_08GPADOFHN@?9nomouse?$AA@			; `string'
PUBLIC	??_C@_0N@BIOPFBFN@?9noforcemspd?$AA@		; `string'
PUBLIC	??_C@_0P@GAKEABIP@?9noforcemaccel?$AA@		; `string'
PUBLIC	??_C@_0P@PJACOMAN@?9noforcemparms?$AA@		; `string'
PUBLIC	??_C@_01GBGANLPD@0?$AA@				; `string'
PUBLIC	??_C@_08BEMLPELN@m_filter?$AA@			; `string'
PUBLIC	??_C@_01EKENIIDA@3?$AA@				; `string'
PUBLIC	??_C@_0M@JFLMCFNC@sensitivity?$AA@		; `string'
PUBLIC	??_C@_0BB@JFMGBHMD@force_centerview?$AA@	; `string'
PUBLIC	__real@00000000
PUBLIC	__real@3f000000
PUBLIC	__xmm@80000000800000008000000080000000
EXTRN	__imp__SetCursorPos@8:PROC
EXTRN	__imp__GetCursorPos@4:PROC
EXTRN	__imp__SystemParametersInfoA@16:PROC
EXTRN	_sqrt:PROC
EXTRN	?V_StopPitchDrift@@YAXXZ:PROC			; V_StopPitchDrift
EXTRN	@__security_check_cookie@4:PROC
EXTRN	?gEngfuncs@@3Ucl_enginefuncs_s@@A:BYTE		; gEngfuncs
EXTRN	?gHUD@@3VCHud@@A:BYTE				; gHUD
EXTRN	?in_strafe@@3Ukbutton_s@@A:BYTE			; in_strafe
EXTRN	?in_mlook@@3Ukbutton_s@@A:BYTE			; in_mlook
EXTRN	?m_pitch@@3PAUcvar_s@@A:DWORD			; m_pitch
EXTRN	?m_yaw@@3PAUcvar_s@@A:DWORD			; m_yaw
EXTRN	?m_forward@@3PAUcvar_s@@A:DWORD			; m_forward
EXTRN	?m_side@@3PAUcvar_s@@A:DWORD			; m_side
EXTRN	?lookstrafe@@3PAUcvar_s@@A:DWORD		; lookstrafe
EXTRN	?cl_pitchdown@@3PAUcvar_s@@A:DWORD		; cl_pitchdown
EXTRN	?cl_pitchup@@3PAUcvar_s@@A:DWORD		; cl_pitchup
EXTRN	___security_cookie:DWORD
EXTRN	__fltused:DWORD
_BSS	SEGMENT
?restore_spi@@3HA DD 01H DUP (?)			; restore_spi
?originalmouseparms@@3PAHA DD 03H DUP (?)		; originalmouseparms
?mouseinitialized@@3HA DD 01H DUP (?)			; mouseinitialized
?mouseparmsvalid@@3HA DD 01H DUP (?)			; mouseparmsvalid
_BSS	ENDS
;	COMDAT __xmm@80000000800000008000000080000000
CONST	SEGMENT
__xmm@80000000800000008000000080000000 DB 00H, 00H, 00H, 080H, 00H, 00H, 00H
	DB	080H, 00H, 00H, 00H, 080H, 00H, 00H, 00H, 080H
CONST	ENDS
;	COMDAT __real@3f000000
CONST	SEGMENT
__real@3f000000 DD 03f000000r			; 0.5
CONST	ENDS
;	COMDAT __real@00000000
CONST	SEGMENT
__real@00000000 DD 000000000r			; 0
CONST	ENDS
;	COMDAT ??_C@_0BB@JFMGBHMD@force_centerview?$AA@
CONST	SEGMENT
??_C@_0BB@JFMGBHMD@force_centerview?$AA@ DB 'force_centerview', 00H ; `string'
CONST	ENDS
;	COMDAT ??_C@_0M@JFLMCFNC@sensitivity?$AA@
CONST	SEGMENT
??_C@_0M@JFLMCFNC@sensitivity?$AA@ DB 'sensitivity', 00H ; `string'
CONST	ENDS
;	COMDAT ??_C@_01EKENIIDA@3?$AA@
CONST	SEGMENT
??_C@_01EKENIIDA@3?$AA@ DB '3', 00H			; `string'
CONST	ENDS
;	COMDAT ??_C@_08BEMLPELN@m_filter?$AA@
CONST	SEGMENT
??_C@_08BEMLPELN@m_filter?$AA@ DB 'm_filter', 00H	; `string'
CONST	ENDS
;	COMDAT ??_C@_01GBGANLPD@0?$AA@
CONST	SEGMENT
??_C@_01GBGANLPD@0?$AA@ DB '0', 00H			; `string'
CONST	ENDS
;	COMDAT ??_C@_0P@PJACOMAN@?9noforcemparms?$AA@
CONST	SEGMENT
??_C@_0P@PJACOMAN@?9noforcemparms?$AA@ DB '-noforcemparms', 00H ; `string'
CONST	ENDS
;	COMDAT ??_C@_0P@GAKEABIP@?9noforcemaccel?$AA@
CONST	SEGMENT
??_C@_0P@GAKEABIP@?9noforcemaccel?$AA@ DB '-noforcemaccel', 00H ; `string'
CONST	ENDS
;	COMDAT ??_C@_0N@BIOPFBFN@?9noforcemspd?$AA@
CONST	SEGMENT
??_C@_0N@BIOPFBFN@?9noforcemspd?$AA@ DB '-noforcemspd', 00H ; `string'
CONST	ENDS
;	COMDAT ??_C@_08GPADOFHN@?9nomouse?$AA@
CONST	SEGMENT
??_C@_08GPADOFHN@?9nomouse?$AA@ DB '-nomouse', 00H	; `string'
CONST	ENDS
; Function compile flags: /Odtp /ZI
; File d:\!diffusion 2020\source code 2022\client-server\client\inputw32.cpp
;	COMDAT ?IN_MouseMove@@YAXMPAUusercmd_s@@@Z
_TEXT	SEGMENT
tv256 = -148						; size = 4
tv331 = -144						; size = 4
tv326 = -144						; size = 4
tv320 = -144						; size = 4
tv250 = -144						; size = 4
tv214 = -144						; size = 4
tv202 = -144						; size = 4
$T1 = -140						; size = 8
$T2 = -132						; size = 8
$T3 = -124						; size = 8
$T4 = -116						; size = 8
_rgfl$ = -44						; size = 12
_upside_down_pitch$5 = -32				; size = 4
_upside_down$6 = -28					; size = 4
_viewangles$ = -24					; size = 12
_my$ = -12						; size = 4
_mx$ = -8						; size = 4
__$ArrayPad$ = -4					; size = 4
_frametime$ = 8						; size = 4
_cmd$ = 12						; size = 4
?IN_MouseMove@@YAXMPAUusercmd_s@@@Z PROC		; IN_MouseMove, COMDAT

; 208  : {

	push	ebp
	mov	ebp, esp
	sub	esp, 148				; 00000094H
	mov	eax, DWORD PTR ___security_cookie
	xor	eax, ebp
	mov	DWORD PTR __$ArrayPad$[ebp], eax
	push	ebx
	push	esi
	push	edi

; 209  : 	float   mx, my;
; 210  : 	Vector viewangles;

	lea	ecx, DWORD PTR _viewangles$[ebp]
	call	??0Vector@@QAE@XZ			; Vector::Vector

; 211  : 
; 212  : 	if( !mouseactive ) return;

	cmp	DWORD PTR ?mouseactive@@3HA, 0
	jne	SHORT $LN2@IN_MouseMo
	jmp	$LN1@IN_MouseMo
$LN2@IN_MouseMo:

; 213  : 
; 214  : 	gEngfuncs.GetViewAngles( viewangles );

	lea	ecx, DWORD PTR _viewangles$[ebp]
	call	??BVector@@QAEPAMXZ			; Vector::operator float *
	push	eax
	call	DWORD PTR ?gEngfuncs@@3Ucl_enginefuncs_s@@A+136
	add	esp, 4

; 215  : 
; 216  : 	if( in_mlook.state & 1 )

	mov	eax, DWORD PTR ?in_mlook@@3Ukbutton_s@@A+8
	and	eax, 1
	je	SHORT $LN3@IN_MouseMo

; 217  : 		V_StopPitchDrift();

	call	?V_StopPitchDrift@@YAXXZ		; V_StopPitchDrift
$LN3@IN_MouseMo:

; 218  : 
; 219  : 	// jjb - this disables normal mouse control if the user is trying to 
; 220  : 	// move the camera, or if the mouse cursor is visible or if we're in intermission
; 221  : 	if( !gHUD.m_iIntermission )

	cmp	DWORD PTR ?gHUD@@3VCHud@@A+8976, 0
	jne	$LN4@IN_MouseMo

; 222  : 	{
; 223  : 		GetCursorPos( &current_pos );

	push	OFFSET ?current_pos@@3UtagPOINT@@A	; current_pos
	call	DWORD PTR __imp__GetCursorPos@4

; 224  : 		
; 225  : 		mx = current_pos.x - gEngfuncs.GetWindowCenterX() + mx_accum;

	call	DWORD PTR ?gEngfuncs@@3Ucl_enginefuncs_s@@A+128
	mov	ecx, DWORD PTR ?current_pos@@3UtagPOINT@@A
	sub	ecx, eax
	cvtsi2ss xmm0, ecx
	addss	xmm0, DWORD PTR ?mx_accum@@3MA
	movss	DWORD PTR _mx$[ebp], xmm0

; 226  : 		my = current_pos.y - gEngfuncs.GetWindowCenterY() + my_accum;

	call	DWORD PTR ?gEngfuncs@@3Ucl_enginefuncs_s@@A+132
	mov	ecx, DWORD PTR ?current_pos@@3UtagPOINT@@A+4
	sub	ecx, eax
	cvtsi2ss xmm0, ecx
	addss	xmm0, DWORD PTR ?my_accum@@3MA
	movss	DWORD PTR _my$[ebp], xmm0

; 227  : 
; 228  : 		mx_accum = 0;

	xorps	xmm0, xmm0
	movss	DWORD PTR ?mx_accum@@3MA, xmm0

; 229  : 		my_accum = 0;

	xorps	xmm0, xmm0
	movss	DWORD PTR ?my_accum@@3MA, xmm0

; 230  : 
; 231  : 		if( m_filter->value )

	mov	eax, DWORD PTR ?m_filter@@3PAUcvar_s@@A	; m_filter
	movss	xmm0, DWORD PTR [eax+12]
	ucomiss	xmm0, DWORD PTR __real@00000000
	lahf
	test	ah, 68					; 00000044H
	jnp	SHORT $LN6@IN_MouseMo

; 232  : 		{
; 233  : 			mouse_x = (mx + old_mouse_x) * 0.5f;

	movss	xmm0, DWORD PTR _mx$[ebp]
	addss	xmm0, DWORD PTR ?old_mouse_x@@3MA
	mulss	xmm0, DWORD PTR __real@3f000000
	movss	DWORD PTR ?mouse_x@@3MA, xmm0

; 234  : 			mouse_y = (my + old_mouse_y) * 0.5f;

	movss	xmm0, DWORD PTR _my$[ebp]
	addss	xmm0, DWORD PTR ?old_mouse_y@@3MA
	mulss	xmm0, DWORD PTR __real@3f000000
	movss	DWORD PTR ?mouse_y@@3MA, xmm0

; 235  : 		}
; 236  : 		else

	jmp	SHORT $LN7@IN_MouseMo
$LN6@IN_MouseMo:

; 237  : 		{
; 238  : 			mouse_x = mx;

	movss	xmm0, DWORD PTR _mx$[ebp]
	movss	DWORD PTR ?mouse_x@@3MA, xmm0

; 239  : 			mouse_y = my;

	movss	xmm0, DWORD PTR _my$[ebp]
	movss	DWORD PTR ?mouse_y@@3MA, xmm0
$LN7@IN_MouseMo:

; 240  : 		}
; 241  : 
; 242  : 		MouseSpeed = (Vector2D( mx, my ) - Vector2D( old_mouse_x, old_mouse_y )).Length();

	push	ecx
	movss	xmm0, DWORD PTR ?old_mouse_y@@3MA
	movss	DWORD PTR [esp], xmm0
	push	ecx
	movss	xmm0, DWORD PTR ?old_mouse_x@@3MA
	movss	DWORD PTR [esp], xmm0
	lea	ecx, DWORD PTR $T3[ebp]
	call	??0Vector2D@@QAE@MM@Z			; Vector2D::Vector2D
	push	eax
	lea	eax, DWORD PTR $T2[ebp]
	push	eax
	push	ecx
	movss	xmm0, DWORD PTR _my$[ebp]
	movss	DWORD PTR [esp], xmm0
	push	ecx
	movss	xmm0, DWORD PTR _mx$[ebp]
	movss	DWORD PTR [esp], xmm0
	lea	ecx, DWORD PTR $T4[ebp]
	call	??0Vector2D@@QAE@MM@Z			; Vector2D::Vector2D
	mov	ecx, eax
	call	??GVector2D@@QBE?AV0@ABV0@@Z		; Vector2D::operator-
	mov	ecx, eax
	call	?Length@Vector2D@@QBEMXZ		; Vector2D::Length
	fstp	DWORD PTR ?MouseSpeed@@3MA		; MouseSpeed

; 243  : 
; 244  : 		old_mouse_x = mx;

	movss	xmm0, DWORD PTR _mx$[ebp]
	movss	DWORD PTR ?old_mouse_x@@3MA, xmm0

; 245  : 		old_mouse_y = my;

	movss	xmm0, DWORD PTR _my$[ebp]
	movss	DWORD PTR ?old_mouse_y@@3MA, xmm0

; 246  : 
; 247  : 		if( gHUD.GetSensitivity() != 0 )

	mov	ecx, OFFSET ?gHUD@@3VCHud@@A		; gHUD
	call	?GetSensitivity@CHud@@QAEMXZ		; CHud::GetSensitivity
	fstp	DWORD PTR tv320[ebp]
	movss	xmm0, DWORD PTR tv320[ebp]
	ucomiss	xmm0, DWORD PTR __real@00000000
	lahf
	test	ah, 68					; 00000044H
	jnp	SHORT $LN8@IN_MouseMo

; 248  : 		{
; 249  : 			mouse_x *= gHUD.GetSensitivity();

	mov	ecx, OFFSET ?gHUD@@3VCHud@@A		; gHUD
	call	?GetSensitivity@CHud@@QAEMXZ		; CHud::GetSensitivity
	fstp	DWORD PTR tv326[ebp]
	movss	xmm0, DWORD PTR tv326[ebp]
	mulss	xmm0, DWORD PTR ?mouse_x@@3MA
	movss	DWORD PTR ?mouse_x@@3MA, xmm0

; 250  : 			mouse_y *= gHUD.GetSensitivity();

	mov	ecx, OFFSET ?gHUD@@3VCHud@@A		; gHUD
	call	?GetSensitivity@CHud@@QAEMXZ		; CHud::GetSensitivity
	fstp	DWORD PTR tv331[ebp]
	movss	xmm0, DWORD PTR tv331[ebp]
	mulss	xmm0, DWORD PTR ?mouse_y@@3MA
	movss	DWORD PTR ?mouse_y@@3MA, xmm0

; 251  : 		}
; 252  : 		else

	jmp	SHORT $LN9@IN_MouseMo
$LN8@IN_MouseMo:

; 253  : 		{
; 254  : 			mouse_x *= sensitivity->value;

	mov	eax, DWORD PTR ?sensitivity@@3PAUcvar_s@@A ; sensitivity
	movss	xmm0, DWORD PTR ?mouse_x@@3MA
	mulss	xmm0, DWORD PTR [eax+12]
	movss	DWORD PTR ?mouse_x@@3MA, xmm0

; 255  : 			mouse_y *= sensitivity->value;

	mov	eax, DWORD PTR ?sensitivity@@3PAUcvar_s@@A ; sensitivity
	movss	xmm0, DWORD PTR ?mouse_y@@3MA
	mulss	xmm0, DWORD PTR [eax+12]
	movss	DWORD PTR ?mouse_y@@3MA, xmm0
$LN9@IN_MouseMo:

; 256  : 		}
; 257  : 
; 258  : 		int upside_down = 1;

	mov	DWORD PTR _upside_down$6[ebp], 1

; 259  : 		if( gEngfuncs.GetLocalPlayer()->curstate.effects & EF_UPSIDEDOWN )

	call	DWORD PTR ?gEngfuncs@@3Ucl_enginefuncs_s@@A+204
	mov	eax, DWORD PTR [eax+748]
	and	eax, 4194304				; 00400000H
	je	SHORT $LN10@IN_MouseMo

; 260  : 			upside_down = -1;

	mov	DWORD PTR _upside_down$6[ebp], -1
$LN10@IN_MouseMo:

; 261  : 
; 262  : 		// add mouse X/Y movement to cmd
; 263  : 		if(( in_strafe.state & 1 ) || ( lookstrafe->value && ( in_mlook.state & 1 )))

	mov	eax, DWORD PTR ?in_strafe@@3Ukbutton_s@@A+8
	and	eax, 1
	jne	SHORT $LN13@IN_MouseMo
	mov	eax, DWORD PTR ?lookstrafe@@3PAUcvar_s@@A ; lookstrafe
	movss	xmm0, DWORD PTR [eax+12]
	ucomiss	xmm0, DWORD PTR __real@00000000
	lahf
	test	ah, 68					; 00000044H
	jnp	SHORT $LN11@IN_MouseMo
	mov	eax, DWORD PTR ?in_mlook@@3Ukbutton_s@@A+8
	and	eax, 1
	je	SHORT $LN11@IN_MouseMo
$LN13@IN_MouseMo:

; 264  : 			cmd->sidemove += m_side->value * mouse_x;

	mov	eax, DWORD PTR ?m_side@@3PAUcvar_s@@A	; m_side
	movss	xmm0, DWORD PTR [eax+12]
	mulss	xmm0, DWORD PTR ?mouse_x@@3MA
	mov	ecx, DWORD PTR _cmd$[ebp]
	addss	xmm0, DWORD PTR [ecx+20]
	mov	edx, DWORD PTR _cmd$[ebp]
	movss	DWORD PTR [edx+20], xmm0

; 265  : 		else

	jmp	SHORT $LN12@IN_MouseMo
$LN11@IN_MouseMo:

; 266  : 			viewangles[YAW] -= upside_down * m_yaw->value * mouse_x;

	lea	ecx, DWORD PTR _viewangles$[ebp]
	call	??BVector@@QAEPAMXZ			; Vector::operator float *
	mov	ecx, 4
	shl	ecx, 0
	add	eax, ecx
	mov	DWORD PTR tv202[ebp], eax
	cvtsi2ss xmm0, DWORD PTR _upside_down$6[ebp]
	mov	edx, DWORD PTR ?m_yaw@@3PAUcvar_s@@A	; m_yaw
	mulss	xmm0, DWORD PTR [edx+12]
	mulss	xmm0, DWORD PTR ?mouse_x@@3MA
	mov	eax, DWORD PTR tv202[ebp]
	movss	xmm1, DWORD PTR [eax]
	subss	xmm1, xmm0
	mov	ecx, DWORD PTR tv202[ebp]
	movss	DWORD PTR [ecx], xmm1
$LN12@IN_MouseMo:

; 267  : 
; 268  : 		if(( in_mlook.state & 1 ) && !( in_strafe.state & 1 ))

	mov	eax, DWORD PTR ?in_mlook@@3Ukbutton_s@@A+8
	and	eax, 1
	je	$LN14@IN_MouseMo
	mov	eax, DWORD PTR ?in_strafe@@3Ukbutton_s@@A+8
	and	eax, 1
	jne	$LN14@IN_MouseMo

; 269  : 		{
; 270  : 			viewangles[PITCH] += m_pitch->value * mouse_y;

	lea	ecx, DWORD PTR _viewangles$[ebp]
	call	??BVector@@QAEPAMXZ			; Vector::operator float *
	mov	ecx, 4
	imul	edx, ecx, 0
	add	eax, edx
	mov	DWORD PTR tv214[ebp], eax
	mov	eax, DWORD PTR ?m_pitch@@3PAUcvar_s@@A	; m_pitch
	movss	xmm0, DWORD PTR [eax+12]
	mulss	xmm0, DWORD PTR ?mouse_y@@3MA
	mov	ecx, DWORD PTR tv214[ebp]
	addss	xmm0, DWORD PTR [ecx]
	mov	edx, DWORD PTR tv214[ebp]
	movss	DWORD PTR [edx], xmm0

; 271  : 			int upside_down_pitch = 0;

	mov	DWORD PTR _upside_down_pitch$5[ebp], 0

; 272  : 			if( gEngfuncs.GetLocalPlayer()->curstate.effects & EF_UPSIDEDOWN )

	call	DWORD PTR ?gEngfuncs@@3Ucl_enginefuncs_s@@A+204
	mov	eax, DWORD PTR [eax+748]
	and	eax, 4194304				; 00400000H
	je	SHORT $LN16@IN_MouseMo

; 273  : 				upside_down_pitch = 180;

	mov	DWORD PTR _upside_down_pitch$5[ebp], 180 ; 000000b4H
$LN16@IN_MouseMo:

; 274  : 			viewangles[PITCH] = bound( -(cl_pitchup->value + upside_down_pitch), viewangles[PITCH], cl_pitchdown->value - upside_down_pitch );

	lea	ecx, DWORD PTR _viewangles$[ebp]
	call	??BVector@@QAEPAMXZ			; Vector::operator float *
	mov	ecx, 4
	imul	edx, ecx, 0
	cvtsi2ss xmm0, DWORD PTR _upside_down_pitch$5[ebp]
	mov	ecx, DWORD PTR ?cl_pitchup@@3PAUcvar_s@@A ; cl_pitchup
	addss	xmm0, DWORD PTR [ecx+12]
	xorps	xmm0, DWORD PTR __xmm@80000000800000008000000080000000
	movss	xmm1, DWORD PTR [eax+edx]
	comiss	xmm1, xmm0
	jb	SHORT $LN24@IN_MouseMo
	lea	ecx, DWORD PTR _viewangles$[ebp]
	call	??BVector@@QAEPAMXZ			; Vector::operator float *
	mov	edx, 4
	imul	ecx, edx, 0
	cvtsi2ss xmm0, DWORD PTR _upside_down_pitch$5[ebp]
	mov	edx, DWORD PTR ?cl_pitchdown@@3PAUcvar_s@@A ; cl_pitchdown
	movss	xmm1, DWORD PTR [edx+12]
	subss	xmm1, xmm0
	comiss	xmm1, DWORD PTR [eax+ecx]
	jbe	SHORT $LN22@IN_MouseMo
	lea	ecx, DWORD PTR _viewangles$[ebp]
	call	??BVector@@QAEPAMXZ			; Vector::operator float *
	mov	ecx, 4
	imul	edx, ecx, 0
	movss	xmm0, DWORD PTR [eax+edx]
	movss	DWORD PTR tv250[ebp], xmm0
	jmp	SHORT $LN23@IN_MouseMo
$LN22@IN_MouseMo:
	cvtsi2ss xmm0, DWORD PTR _upside_down_pitch$5[ebp]
	mov	eax, DWORD PTR ?cl_pitchdown@@3PAUcvar_s@@A ; cl_pitchdown
	movss	xmm1, DWORD PTR [eax+12]
	subss	xmm1, xmm0
	movss	DWORD PTR tv250[ebp], xmm1
$LN23@IN_MouseMo:
	movss	xmm0, DWORD PTR tv250[ebp]
	movss	DWORD PTR tv256[ebp], xmm0
	jmp	SHORT $LN25@IN_MouseMo
$LN24@IN_MouseMo:
	cvtsi2ss xmm0, DWORD PTR _upside_down_pitch$5[ebp]
	mov	ecx, DWORD PTR ?cl_pitchup@@3PAUcvar_s@@A ; cl_pitchup
	addss	xmm0, DWORD PTR [ecx+12]
	xorps	xmm0, DWORD PTR __xmm@80000000800000008000000080000000
	movss	DWORD PTR tv256[ebp], xmm0
$LN25@IN_MouseMo:
	lea	ecx, DWORD PTR _viewangles$[ebp]
	call	??BVector@@QAEPAMXZ			; Vector::operator float *
	mov	edx, 4
	imul	ecx, edx, 0
	movss	xmm0, DWORD PTR tv256[ebp]
	movss	DWORD PTR [eax+ecx], xmm0

; 275  : 		}
; 276  : 		else

	jmp	SHORT $LN18@IN_MouseMo
$LN14@IN_MouseMo:

; 277  : 		{
; 278  : 			if(( in_strafe.state & 1 ) && gEngfuncs.IsNoClipping( ))

	mov	eax, DWORD PTR ?in_strafe@@3Ukbutton_s@@A+8
	and	eax, 1
	je	SHORT $LN17@IN_MouseMo
	call	DWORD PTR ?gEngfuncs@@3Ucl_enginefuncs_s@@A+200
	test	eax, eax
	je	SHORT $LN17@IN_MouseMo

; 279  : 				cmd->upmove -= m_forward->value * mouse_y;

	mov	eax, DWORD PTR ?m_forward@@3PAUcvar_s@@A ; m_forward
	movss	xmm0, DWORD PTR [eax+12]
	mulss	xmm0, DWORD PTR ?mouse_y@@3MA
	mov	ecx, DWORD PTR _cmd$[ebp]
	movss	xmm1, DWORD PTR [ecx+24]
	subss	xmm1, xmm0
	mov	edx, DWORD PTR _cmd$[ebp]
	movss	DWORD PTR [edx+24], xmm1

; 280  : 			else

	jmp	SHORT $LN18@IN_MouseMo
$LN17@IN_MouseMo:

; 281  : 				cmd->forwardmove -= m_forward->value * mouse_y;

	mov	eax, DWORD PTR ?m_forward@@3PAUcvar_s@@A ; m_forward
	movss	xmm0, DWORD PTR [eax+12]
	mulss	xmm0, DWORD PTR ?mouse_y@@3MA
	mov	ecx, DWORD PTR _cmd$[ebp]
	movss	xmm1, DWORD PTR [ecx+16]
	subss	xmm1, xmm0
	mov	edx, DWORD PTR _cmd$[ebp]
	movss	DWORD PTR [edx+16], xmm1
$LN18@IN_MouseMo:

; 282  : 		}
; 283  : 
; 284  : 		gHUD.MxMy = Vector2D( mx, my );

	push	ecx
	movss	xmm0, DWORD PTR _my$[ebp]
	movss	DWORD PTR [esp], xmm0
	push	ecx
	movss	xmm0, DWORD PTR _mx$[ebp]
	movss	DWORD PTR [esp], xmm0
	lea	ecx, DWORD PTR $T1[ebp]
	call	??0Vector2D@@QAE@MM@Z			; Vector2D::Vector2D
	mov	ecx, DWORD PTR [eax]
	mov	edx, DWORD PTR [eax+4]
	mov	DWORD PTR ?gHUD@@3VCHud@@A+144, ecx
	mov	DWORD PTR ?gHUD@@3VCHud@@A+148, edx

; 285  : 
; 286  : 		// if the mouse has moved, force it to the center, so there's room to move
; 287  : 		if( mx || my )

	movss	xmm0, DWORD PTR _mx$[ebp]
	ucomiss	xmm0, DWORD PTR __real@00000000
	lahf
	test	ah, 68					; 00000044H
	jp	SHORT $LN20@IN_MouseMo
	movss	xmm0, DWORD PTR _my$[ebp]
	ucomiss	xmm0, DWORD PTR __real@00000000
	lahf
	test	ah, 68					; 00000044H
	jnp	SHORT $LN19@IN_MouseMo
$LN20@IN_MouseMo:

; 288  : 			IN_ResetMouse();

	call	?IN_ResetMouse@@YAXXZ			; IN_ResetMouse
$LN19@IN_MouseMo:

; 289  : 	}
; 290  : 	else

	jmp	SHORT $LN5@IN_MouseMo
$LN4@IN_MouseMo:

; 291  : 	{
; 292  : 		mx_accum = 0;

	xorps	xmm0, xmm0
	movss	DWORD PTR ?mx_accum@@3MA, xmm0

; 293  : 		my_accum = 0;

	xorps	xmm0, xmm0
	movss	DWORD PTR ?my_accum@@3MA, xmm0

; 294  : 		old_mouse_x = 0;

	xorps	xmm0, xmm0
	movss	DWORD PTR ?old_mouse_x@@3MA, xmm0

; 295  : 		old_mouse_y = 0;

	xorps	xmm0, xmm0
	movss	DWORD PTR ?old_mouse_y@@3MA, xmm0

; 296  : 		mouse_y = 0;

	xorps	xmm0, xmm0
	movss	DWORD PTR ?mouse_y@@3MA, xmm0

; 297  : 		mouse_x = 0;

	xorps	xmm0, xmm0
	movss	DWORD PTR ?mouse_x@@3MA, xmm0
$LN5@IN_MouseMo:

; 298  : 	}
; 299  : 
; 300  : 	float rgfl[3];
; 301  : 	viewangles.CopyToArray( rgfl );

	lea	eax, DWORD PTR _rgfl$[ebp]
	push	eax
	lea	ecx, DWORD PTR _viewangles$[ebp]
	call	?CopyToArray@Vector@@QBEXPAM@Z		; Vector::CopyToArray

; 302  : 	gEngfuncs.SetViewAngles( rgfl );

	lea	eax, DWORD PTR _rgfl$[ebp]
	push	eax
	call	DWORD PTR ?gEngfuncs@@3Ucl_enginefuncs_s@@A+140
	add	esp, 4
$LN1@IN_MouseMo:

; 303  : }

	pop	edi
	pop	esi
	pop	ebx
	mov	ecx, DWORD PTR __$ArrayPad$[ebp]
	xor	ecx, ebp
	call	@__security_check_cookie@4
	mov	esp, ebp
	pop	ebp
	ret	0
?IN_MouseMove@@YAXMPAUusercmd_s@@@Z ENDP		; IN_MouseMove
_TEXT	ENDS
; Function compile flags: /Odtp /ZI
; File d:\!diffusion 2020\source code 2022\client-server\client\inputw32.cpp
;	COMDAT ?IN_GetMousePos@@YAXPAH0@Z
_TEXT	SEGMENT
_mx$ = 8						; size = 4
_my$ = 12						; size = 4
?IN_GetMousePos@@YAXPAH0@Z PROC				; IN_GetMousePos, COMDAT

; 183  : {

	push	ebp
	mov	ebp, esp
	sub	esp, 64					; 00000040H
	push	ebx
	push	esi
	push	edi

; 184  : 	gEngfuncs.GetMousePosition( mx, my );

	mov	eax, DWORD PTR _my$[ebp]
	push	eax
	mov	ecx, DWORD PTR _mx$[ebp]
	push	ecx
	call	DWORD PTR ?gEngfuncs@@3Ucl_enginefuncs_s@@A+196
	add	esp, 8

; 185  : }

	pop	edi
	pop	esi
	pop	ebx
	mov	esp, ebp
	pop	ebp
	ret	0
?IN_GetMousePos@@YAXPAH0@Z ENDP				; IN_GetMousePos
_TEXT	ENDS
; Function compile flags: /Odtp /ZI
; File d:\!diffusion 2020\source code 2022\client-server\client\inputw32.cpp
;	COMDAT ?IN_StartupMouse@@YAXXZ
_TEXT	SEGMENT
?IN_StartupMouse@@YAXXZ PROC				; IN_StartupMouse, COMDAT

; 136  : {

	push	ebp
	mov	ebp, esp
	sub	esp, 64					; 00000040H
	push	ebx
	push	esi
	push	edi

; 137  : 	if( gEngfuncs.CheckParm( "-nomouse", NULL ) )

	push	0
	push	OFFSET ??_C@_08GPADOFHN@?9nomouse?$AA@
	call	DWORD PTR ?gEngfuncs@@3Ucl_enginefuncs_s@@A+188
	add	esp, 8
	test	eax, eax
	je	SHORT $LN2@IN_Startup

; 138  : 		return;

	jmp	$LN1@IN_Startup
$LN2@IN_Startup:

; 139  : 
; 140  : 	mouseinitialized = 1;

	mov	DWORD PTR ?mouseinitialized@@3HA, 1

; 141  : 	mouseparmsvalid = SystemParametersInfo( SPI_GETMOUSE, 0, originalmouseparms, 0 );

	push	0
	push	OFFSET ?originalmouseparms@@3PAHA
	push	0
	push	3
	call	DWORD PTR __imp__SystemParametersInfoA@16
	mov	DWORD PTR ?mouseparmsvalid@@3HA, eax

; 142  : 
; 143  : 	if( mouseparmsvalid )

	cmp	DWORD PTR ?mouseparmsvalid@@3HA, 0
	je	$LN3@IN_Startup

; 144  : 	{
; 145  : 		if( gEngfuncs.CheckParm( "-noforcemspd", NULL ) )

	push	0
	push	OFFSET ??_C@_0N@BIOPFBFN@?9noforcemspd?$AA@
	call	DWORD PTR ?gEngfuncs@@3Ucl_enginefuncs_s@@A+188
	add	esp, 8
	test	eax, eax
	je	SHORT $LN4@IN_Startup

; 146  : 			newmouseparms[2] = originalmouseparms[2];

	mov	eax, 4
	shl	eax, 1
	mov	ecx, 4
	shl	ecx, 1
	mov	edx, DWORD PTR ?originalmouseparms@@3PAHA[eax]
	mov	DWORD PTR ?newmouseparms@@3PAHA[ecx], edx
$LN4@IN_Startup:

; 147  : 
; 148  : 		if( gEngfuncs.CheckParm( "-noforcemaccel", NULL ) )

	push	0
	push	OFFSET ??_C@_0P@GAKEABIP@?9noforcemaccel?$AA@
	call	DWORD PTR ?gEngfuncs@@3Ucl_enginefuncs_s@@A+188
	add	esp, 8
	test	eax, eax
	je	SHORT $LN5@IN_Startup

; 149  : 		{
; 150  : 			newmouseparms[0] = originalmouseparms[0];

	mov	eax, 4
	imul	ecx, eax, 0
	mov	edx, 4
	imul	eax, edx, 0
	mov	ecx, DWORD PTR ?originalmouseparms@@3PAHA[ecx]
	mov	DWORD PTR ?newmouseparms@@3PAHA[eax], ecx

; 151  : 			newmouseparms[1] = originalmouseparms[1];

	mov	eax, 4
	shl	eax, 0
	mov	ecx, 4
	shl	ecx, 0
	mov	edx, DWORD PTR ?originalmouseparms@@3PAHA[eax]
	mov	DWORD PTR ?newmouseparms@@3PAHA[ecx], edx
$LN5@IN_Startup:

; 152  : 		}
; 153  : 
; 154  : 		if( gEngfuncs.CheckParm( "-noforcemparms", NULL ) )

	push	0
	push	OFFSET ??_C@_0P@PJACOMAN@?9noforcemparms?$AA@
	call	DWORD PTR ?gEngfuncs@@3Ucl_enginefuncs_s@@A+188
	add	esp, 8
	test	eax, eax
	je	SHORT $LN3@IN_Startup

; 155  : 		{
; 156  : 			newmouseparms[0] = originalmouseparms[0];

	mov	eax, 4
	imul	ecx, eax, 0
	mov	edx, 4
	imul	eax, edx, 0
	mov	ecx, DWORD PTR ?originalmouseparms@@3PAHA[ecx]
	mov	DWORD PTR ?newmouseparms@@3PAHA[eax], ecx

; 157  : 			newmouseparms[1] = originalmouseparms[1];

	mov	eax, 4
	shl	eax, 0
	mov	ecx, 4
	shl	ecx, 0
	mov	edx, DWORD PTR ?originalmouseparms@@3PAHA[eax]
	mov	DWORD PTR ?newmouseparms@@3PAHA[ecx], edx

; 158  : 			newmouseparms[2] = originalmouseparms[2];

	mov	eax, 4
	shl	eax, 1
	mov	ecx, 4
	shl	ecx, 1
	mov	edx, DWORD PTR ?originalmouseparms@@3PAHA[eax]
	mov	DWORD PTR ?newmouseparms@@3PAHA[ecx], edx
$LN3@IN_Startup:

; 159  : 		}
; 160  : 	}
; 161  : 
; 162  : 	mouse_buttons = MOUSE_BUTTON_COUNT;

	mov	DWORD PTR ?mouse_buttons@@3HA, 5	; mouse_buttons
$LN1@IN_Startup:

; 163  : }

	pop	edi
	pop	esi
	pop	ebx
	mov	esp, ebp
	pop	ebp
	ret	0
?IN_StartupMouse@@YAXXZ ENDP				; IN_StartupMouse
_TEXT	ENDS
; Function compile flags: /Odtp /ZI
; File d:\!diffusion 2020\source code 2022\client-server\client\inputw32.cpp
;	COMDAT ?Force_CenterView_f@@YAXXZ
_TEXT	SEGMENT
_rgfl$ = -28						; size = 12
_viewangles$ = -16					; size = 12
__$ArrayPad$ = -4					; size = 4
?Force_CenterView_f@@YAXXZ PROC				; Force_CenterView_f, COMDAT

; 87   : {

	push	ebp
	mov	ebp, esp
	sub	esp, 92					; 0000005cH
	mov	eax, DWORD PTR ___security_cookie
	xor	eax, ebp
	mov	DWORD PTR __$ArrayPad$[ebp], eax
	push	ebx
	push	esi
	push	edi

; 88   : 	Vector viewangles;

	lea	ecx, DWORD PTR _viewangles$[ebp]
	call	??0Vector@@QAE@XZ			; Vector::Vector

; 89   : 
; 90   : 	gEngfuncs.GetViewAngles( viewangles );

	lea	ecx, DWORD PTR _viewangles$[ebp]
	call	??BVector@@QAEPAMXZ			; Vector::operator float *
	push	eax
	call	DWORD PTR ?gEngfuncs@@3Ucl_enginefuncs_s@@A+136
	add	esp, 4

; 91   : 	viewangles[PITCH] = 0;

	lea	ecx, DWORD PTR _viewangles$[ebp]
	call	??BVector@@QAEPAMXZ			; Vector::operator float *
	mov	ecx, 4
	imul	edx, ecx, 0
	xorps	xmm0, xmm0
	movss	DWORD PTR [eax+edx], xmm0

; 92   : 
; 93   : 	float rgfl[3];
; 94   : 	viewangles.CopyToArray( rgfl );

	lea	eax, DWORD PTR _rgfl$[ebp]
	push	eax
	lea	ecx, DWORD PTR _viewangles$[ebp]
	call	?CopyToArray@Vector@@QBEXPAM@Z		; Vector::CopyToArray

; 95   : 	gEngfuncs.SetViewAngles( rgfl );

	lea	eax, DWORD PTR _rgfl$[ebp]
	push	eax
	call	DWORD PTR ?gEngfuncs@@3Ucl_enginefuncs_s@@A+140
	add	esp, 4

; 96   : }

	pop	edi
	pop	esi
	pop	ebx
	mov	ecx, DWORD PTR __$ArrayPad$[ebp]
	xor	ecx, ebp
	call	@__security_check_cookie@4
	mov	esp, ebp
	pop	ebp
	ret	0
?Force_CenterView_f@@YAXXZ ENDP				; Force_CenterView_f
_TEXT	ENDS
; Function compile flags: /Odtp /ZI
; File d:\!diffusion 2020\source code 2022\client-server\client\inputw32.cpp
;	COMDAT ?IN_ClearStates@@YAXXZ
_TEXT	SEGMENT
?IN_ClearStates@@YAXXZ PROC				; IN_ClearStates, COMDAT

; 330  : {

	push	ebp
	mov	ebp, esp
	sub	esp, 64					; 00000040H
	push	ebx
	push	esi
	push	edi

; 331  : 	if( !mouseactive ) return;

	cmp	DWORD PTR ?mouseactive@@3HA, 0
	jne	SHORT $LN2@IN_ClearSt
	jmp	SHORT $LN1@IN_ClearSt
$LN2@IN_ClearSt:

; 332  : 
; 333  : 	mx_accum = 0;

	xorps	xmm0, xmm0
	movss	DWORD PTR ?mx_accum@@3MA, xmm0

; 334  : 	my_accum = 0;

	xorps	xmm0, xmm0
	movss	DWORD PTR ?my_accum@@3MA, xmm0

; 335  : 	mouse_oldbuttonstate = 0;

	mov	DWORD PTR ?mouse_oldbuttonstate@@3HA, 0	; mouse_oldbuttonstate
$LN1@IN_ClearSt:

; 336  : }

	pop	edi
	pop	esi
	pop	ebx
	mov	esp, ebp
	pop	ebp
	ret	0
?IN_ClearStates@@YAXXZ ENDP				; IN_ClearStates
_TEXT	ENDS
; Function compile flags: /Odtp /ZI
; File d:\!diffusion 2020\source code 2022\client-server\client\inputw32.cpp
;	COMDAT ?IN_Accumulate@@YAXXZ
_TEXT	SEGMENT
?IN_Accumulate@@YAXXZ PROC				; IN_Accumulate, COMDAT

; 311  : {

	push	ebp
	mov	ebp, esp
	sub	esp, 64					; 00000040H
	push	ebx
	push	esi
	push	edi

; 312  : 	if( mouseactive )

	cmp	DWORD PTR ?mouseactive@@3HA, 0
	je	SHORT $LN2@IN_Accumul

; 313  : 	{
; 314  : 		GetCursorPos( &current_pos );

	push	OFFSET ?current_pos@@3UtagPOINT@@A	; current_pos
	call	DWORD PTR __imp__GetCursorPos@4

; 315  : 
; 316  : 		mx_accum += current_pos.x - gEngfuncs.GetWindowCenterX();

	call	DWORD PTR ?gEngfuncs@@3Ucl_enginefuncs_s@@A+128
	mov	ecx, DWORD PTR ?current_pos@@3UtagPOINT@@A
	sub	ecx, eax
	cvtsi2ss xmm0, ecx
	addss	xmm0, DWORD PTR ?mx_accum@@3MA
	movss	DWORD PTR ?mx_accum@@3MA, xmm0

; 317  : 		my_accum += current_pos.y - gEngfuncs.GetWindowCenterY();

	call	DWORD PTR ?gEngfuncs@@3Ucl_enginefuncs_s@@A+132
	mov	ecx, DWORD PTR ?current_pos@@3UtagPOINT@@A+4
	sub	ecx, eax
	cvtsi2ss xmm0, ecx
	addss	xmm0, DWORD PTR ?my_accum@@3MA
	movss	DWORD PTR ?my_accum@@3MA, xmm0

; 318  : 
; 319  : 		// force the mouse to the center, so there's room to move
; 320  : 		IN_ResetMouse();

	call	?IN_ResetMouse@@YAXXZ			; IN_ResetMouse
$LN2@IN_Accumul:

; 321  : 	}
; 322  : }

	pop	edi
	pop	esi
	pop	ebx
	mov	esp, ebp
	pop	ebp
	ret	0
?IN_Accumulate@@YAXXZ ENDP				; IN_Accumulate
_TEXT	ENDS
; Function compile flags: /Odtp /ZI
; File d:\!diffusion 2020\source code 2022\client-server\client\inputw32.cpp
;	COMDAT ?IN_MouseEvent@@YAXH@Z
_TEXT	SEGMENT
_i$1 = -4						; size = 4
_mstate$ = 8						; size = 4
?IN_MouseEvent@@YAXH@Z PROC				; IN_MouseEvent, COMDAT

; 193  : {

	push	ebp
	mov	ebp, esp
	sub	esp, 68					; 00000044H
	push	ebx
	push	esi
	push	edi

; 194  : 	// perform button actions
; 195  : 	for( int i = 0; i < mouse_buttons; i++ )

	mov	DWORD PTR _i$1[ebp], 0
	jmp	SHORT $LN4@IN_MouseEv
$LN2@IN_MouseEv:
	mov	eax, DWORD PTR _i$1[ebp]
	add	eax, 1
	mov	DWORD PTR _i$1[ebp], eax
$LN4@IN_MouseEv:
	mov	eax, DWORD PTR _i$1[ebp]
	cmp	eax, DWORD PTR ?mouse_buttons@@3HA	; mouse_buttons
	jge	SHORT $LN3@IN_MouseEv

; 196  : 	{
; 197  : 		if( (mstate & BIT( i )) && !(mouse_oldbuttonstate & BIT( i )) )

	mov	eax, 1
	mov	ecx, DWORD PTR _i$1[ebp]
	shl	eax, cl
	and	eax, DWORD PTR _mstate$[ebp]
	je	SHORT $LN5@IN_MouseEv
	mov	eax, 1
	mov	ecx, DWORD PTR _i$1[ebp]
	shl	eax, cl
	and	eax, DWORD PTR ?mouse_oldbuttonstate@@3HA ; mouse_oldbuttonstate
	jne	SHORT $LN5@IN_MouseEv

; 198  : 			gEngfuncs.Key_Event( K_MOUSE1 + i, 1 );

	push	1
	mov	eax, DWORD PTR _i$1[ebp]
	add	eax, 241				; 000000f1H
	push	eax
	call	DWORD PTR ?gEngfuncs@@3Ucl_enginefuncs_s@@A+192
	add	esp, 8
$LN5@IN_MouseEv:

; 199  : 
; 200  : 		if( !(mstate & BIT( i )) && (mouse_oldbuttonstate & BIT( i )) )

	mov	eax, 1
	mov	ecx, DWORD PTR _i$1[ebp]
	shl	eax, cl
	and	eax, DWORD PTR _mstate$[ebp]
	jne	SHORT $LN6@IN_MouseEv
	mov	eax, 1
	mov	ecx, DWORD PTR _i$1[ebp]
	shl	eax, cl
	and	eax, DWORD PTR ?mouse_oldbuttonstate@@3HA ; mouse_oldbuttonstate
	je	SHORT $LN6@IN_MouseEv

; 201  : 			gEngfuncs.Key_Event( K_MOUSE1 + i, 0 );

	push	0
	mov	eax, DWORD PTR _i$1[ebp]
	add	eax, 241				; 000000f1H
	push	eax
	call	DWORD PTR ?gEngfuncs@@3Ucl_enginefuncs_s@@A+192
	add	esp, 8
$LN6@IN_MouseEv:

; 202  : 	}

	jmp	SHORT $LN2@IN_MouseEv
$LN3@IN_MouseEv:

; 203  : 
; 204  : 	mouse_oldbuttonstate = mstate;

	mov	eax, DWORD PTR _mstate$[ebp]
	mov	DWORD PTR ?mouse_oldbuttonstate@@3HA, eax ; mouse_oldbuttonstate

; 205  : }

	pop	edi
	pop	esi
	pop	ebx
	mov	esp, ebp
	pop	ebp
	ret	0
?IN_MouseEvent@@YAXH@Z ENDP				; IN_MouseEvent
_TEXT	ENDS
; Function compile flags: /Odtp /ZI
; File d:\!diffusion 2020\source code 2022\client-server\client\inputw32.cpp
;	COMDAT ?IN_DeactivateMouse@@YAXXZ
_TEXT	SEGMENT
?IN_DeactivateMouse@@YAXXZ PROC				; IN_DeactivateMouse, COMDAT

; 121  : {

	push	ebp
	mov	ebp, esp
	sub	esp, 64					; 00000040H
	push	ebx
	push	esi
	push	edi

; 122  : 	if( mouseinitialized )

	cmp	DWORD PTR ?mouseinitialized@@3HA, 0
	je	SHORT $LN1@IN_Deactiv

; 123  : 	{
; 124  : 		if( restore_spi )

	cmp	DWORD PTR ?restore_spi@@3HA, 0
	je	SHORT $LN3@IN_Deactiv

; 125  : 			SystemParametersInfo( SPI_SETMOUSE, 0, originalmouseparms, 0 );

	push	0
	push	OFFSET ?originalmouseparms@@3PAHA
	push	0
	push	4
	call	DWORD PTR __imp__SystemParametersInfoA@16
$LN3@IN_Deactiv:

; 126  : 		mouseactive = 0;

	mov	DWORD PTR ?mouseactive@@3HA, 0
$LN1@IN_Deactiv:

; 127  : 	}
; 128  : }

	pop	edi
	pop	esi
	pop	ebx
	mov	esp, ebp
	pop	ebp
	ret	0
?IN_DeactivateMouse@@YAXXZ ENDP				; IN_DeactivateMouse
_TEXT	ENDS
; Function compile flags: /Odtp /ZI
; File d:\!diffusion 2020\source code 2022\client-server\client\inputw32.cpp
;	COMDAT ?IN_ActivateMouse@@YAXXZ
_TEXT	SEGMENT
$T1 = -72						; size = 8
?IN_ActivateMouse@@YAXXZ PROC				; IN_ActivateMouse, COMDAT

; 104  : {

	push	ebp
	mov	ebp, esp
	sub	esp, 72					; 00000048H
	push	ebx
	push	esi
	push	edi

; 105  : 	if( mouseinitialized )

	cmp	DWORD PTR ?mouseinitialized@@3HA, 0
	je	SHORT $LN2@IN_Activat

; 106  : 	{
; 107  : 		if( mouseparmsvalid )

	cmp	DWORD PTR ?mouseparmsvalid@@3HA, 0
	je	SHORT $LN3@IN_Activat

; 108  : 			restore_spi = SystemParametersInfo( SPI_SETMOUSE, 0, newmouseparms, 0 );

	push	0
	push	OFFSET ?newmouseparms@@3PAHA
	push	0
	push	4
	call	DWORD PTR __imp__SystemParametersInfoA@16
	mov	DWORD PTR ?restore_spi@@3HA, eax
$LN3@IN_Activat:

; 109  : 		mouseactive = 1;

	mov	DWORD PTR ?mouseactive@@3HA, 1
$LN2@IN_Activat:

; 110  : 	}
; 111  : 
; 112  : 	gHUD.MxMy = Vector2D( 0, 0 );

	push	ecx
	xorps	xmm0, xmm0
	movss	DWORD PTR [esp], xmm0
	push	ecx
	xorps	xmm0, xmm0
	movss	DWORD PTR [esp], xmm0
	lea	ecx, DWORD PTR $T1[ebp]
	call	??0Vector2D@@QAE@MM@Z			; Vector2D::Vector2D
	mov	ecx, DWORD PTR [eax]
	mov	edx, DWORD PTR [eax+4]
	mov	DWORD PTR ?gHUD@@3VCHud@@A+144, ecx
	mov	DWORD PTR ?gHUD@@3VCHud@@A+148, edx

; 113  : }

	pop	edi
	pop	esi
	pop	ebx
	mov	esp, ebp
	pop	ebp
	ret	0
?IN_ActivateMouse@@YAXXZ ENDP				; IN_ActivateMouse
_TEXT	ENDS
; Function compile flags: /Odtp /ZI
; File d:\!diffusion 2020\source code 2022\client-server\client\inputw32.cpp
;	COMDAT ?IN_ResetMouse@@YAXXZ
_TEXT	SEGMENT
?IN_ResetMouse@@YAXXZ PROC				; IN_ResetMouse, COMDAT

; 77   : {

	push	ebp
	mov	ebp, esp
	sub	esp, 64					; 00000040H
	push	ebx
	push	esi
	push	edi

; 78   : 	SetCursorPos( gEngfuncs.GetWindowCenterX(), gEngfuncs.GetWindowCenterY() );

	call	DWORD PTR ?gEngfuncs@@3Ucl_enginefuncs_s@@A+132
	push	eax
	call	DWORD PTR ?gEngfuncs@@3Ucl_enginefuncs_s@@A+128
	push	eax
	call	DWORD PTR __imp__SetCursorPos@8

; 79   : }

	pop	edi
	pop	esi
	pop	ebx
	mov	esp, ebp
	pop	ebp
	ret	0
?IN_ResetMouse@@YAXXZ ENDP				; IN_ResetMouse
_TEXT	ENDS
; Function compile flags: /Odtp /ZI
; File d:\!diffusion 2020\source code 2022\client-server\client\inputw32.cpp
;	COMDAT ?IN_Shutdown@@YAXXZ
_TEXT	SEGMENT
?IN_Shutdown@@YAXXZ PROC				; IN_Shutdown, COMDAT

; 171  : {

	push	ebp
	mov	ebp, esp
	sub	esp, 64					; 00000040H
	push	ebx
	push	esi
	push	edi

; 172  : 	IN_DeactivateMouse();

	call	?IN_DeactivateMouse@@YAXXZ		; IN_DeactivateMouse

; 173  : }

	pop	edi
	pop	esi
	pop	ebx
	mov	esp, ebp
	pop	ebp
	ret	0
?IN_Shutdown@@YAXXZ ENDP				; IN_Shutdown
_TEXT	ENDS
; Function compile flags: /Odtp /ZI
; File d:\!diffusion 2020\source code 2022\client-server\client\inputw32.cpp
;	COMDAT ?IN_Move@@YAXMPAUusercmd_s@@@Z
_TEXT	SEGMENT
_frametime$ = 8						; size = 4
_cmd$ = 12						; size = 4
?IN_Move@@YAXMPAUusercmd_s@@@Z PROC			; IN_Move, COMDAT

; 344  : {	

	push	ebp
	mov	ebp, esp
	sub	esp, 64					; 00000040H
	push	ebx
	push	esi
	push	edi

; 345  : 	IN_MouseMove( frametime, cmd );

	mov	eax, DWORD PTR _cmd$[ebp]
	push	eax
	push	ecx
	movss	xmm0, DWORD PTR _frametime$[ebp]
	movss	DWORD PTR [esp], xmm0
	call	?IN_MouseMove@@YAXMPAUusercmd_s@@@Z	; IN_MouseMove
	add	esp, 8

; 346  : }

	pop	edi
	pop	esi
	pop	ebx
	mov	esp, ebp
	pop	ebp
	ret	0
?IN_Move@@YAXMPAUusercmd_s@@@Z ENDP			; IN_Move
_TEXT	ENDS
; Function compile flags: /Odtp /ZI
; File d:\!diffusion 2020\source code 2022\client-server\client\inputw32.cpp
;	COMDAT ?IN_Init@@YAXXZ
_TEXT	SEGMENT
?IN_Init@@YAXXZ PROC					; IN_Init, COMDAT

; 354  : {

	push	ebp
	mov	ebp, esp
	sub	esp, 64					; 00000040H
	push	ebx
	push	esi
	push	edi

; 355  : 	m_filter = CVAR_REGISTER( "m_filter", "0", FCVAR_ARCHIVE );

	push	1
	push	OFFSET ??_C@_01GBGANLPD@0?$AA@
	push	OFFSET ??_C@_08BEMLPELN@m_filter?$AA@
	call	DWORD PTR ?gEngfuncs@@3Ucl_enginefuncs_s@@A+56
	add	esp, 12					; 0000000cH
	mov	DWORD PTR ?m_filter@@3PAUcvar_s@@A, eax	; m_filter

; 356  : 	sensitivity = CVAR_REGISTER( "sensitivity", "3", FCVAR_ARCHIVE ); // user mouse sensitivity setting.

	push	1
	push	OFFSET ??_C@_01EKENIIDA@3?$AA@
	push	OFFSET ??_C@_0M@JFLMCFNC@sensitivity?$AA@
	call	DWORD PTR ?gEngfuncs@@3Ucl_enginefuncs_s@@A+56
	add	esp, 12					; 0000000cH
	mov	DWORD PTR ?sensitivity@@3PAUcvar_s@@A, eax ; sensitivity

; 357  : 
; 358  : 	ADD_COMMAND( "force_centerview", Force_CenterView_f );

	push	OFFSET ?Force_CenterView_f@@YAXXZ	; Force_CenterView_f
	push	OFFSET ??_C@_0BB@JFMGBHMD@force_centerview?$AA@
	call	DWORD PTR ?gEngfuncs@@3Ucl_enginefuncs_s@@A+68
	add	esp, 8

; 359  : 	IN_StartupMouse();

	call	?IN_StartupMouse@@YAXXZ			; IN_StartupMouse

; 360  : }

	pop	edi
	pop	esi
	pop	ebx
	mov	esp, ebp
	pop	ebp
	ret	0
?IN_Init@@YAXXZ ENDP					; IN_Init
_TEXT	ENDS
; Function compile flags: /Odtp /ZI
; File d:\!diffusion 2020\source code 2022\client-server\client\hud.h
;	COMDAT ?GetSensitivity@CHud@@QAEMXZ
_TEXT	SEGMENT
_this$ = -4						; size = 4
?GetSensitivity@CHud@@QAEMXZ PROC			; CHud::GetSensitivity, COMDAT
; _this$ = ecx

; 1037 : 	float GetSensitivity() { return m_flMouseSensitivity; }

	push	ebp
	mov	ebp, esp
	sub	esp, 68					; 00000044H
	push	ebx
	push	esi
	push	edi
	mov	DWORD PTR _this$[ebp], ecx
	mov	eax, DWORD PTR _this$[ebp]
	fld	DWORD PTR [eax+16]
	pop	edi
	pop	esi
	pop	ebx
	mov	esp, ebp
	pop	ebp
	ret	0
?GetSensitivity@CHud@@QAEMXZ ENDP			; CHud::GetSensitivity
_TEXT	ENDS
; Function compile flags: /Odtp /ZI
; File d:\!diffusion 2020\source code 2022\client-server\game_shared\vector.h
;	COMDAT ??BVector@@QAEPAMXZ
_TEXT	SEGMENT
_this$ = -4						; size = 4
??BVector@@QAEPAMXZ PROC				; Vector::operator float *, COMDAT
; _this$ = ecx

; 247  : 	operator float *()				{ return &x; } // Vectors will now automatically convert to float * when needed

	push	ebp
	mov	ebp, esp
	sub	esp, 68					; 00000044H
	push	ebx
	push	esi
	push	edi
	mov	DWORD PTR _this$[ebp], ecx
	mov	eax, DWORD PTR _this$[ebp]
	pop	edi
	pop	esi
	pop	ebx
	mov	esp, ebp
	pop	ebp
	ret	0
??BVector@@QAEPAMXZ ENDP				; Vector::operator float *
_TEXT	ENDS
; Function compile flags: /Odtp /ZI
; File d:\!diffusion 2020\source code 2022\client-server\game_shared\vector.h
;	COMDAT ?CopyToArray@Vector@@QBEXPAM@Z
_TEXT	SEGMENT
_this$ = -4						; size = 4
_rgfl$ = 8						; size = 4
?CopyToArray@Vector@@QBEXPAM@Z PROC			; Vector::CopyToArray, COMDAT
; _this$ = ecx

; 244  : 	inline void CopyToArray( float *rgfl ) const	{ rgfl[0] = x, rgfl[1] = y, rgfl[2] = z; }

	push	ebp
	mov	ebp, esp
	sub	esp, 68					; 00000044H
	push	ebx
	push	esi
	push	edi
	mov	DWORD PTR _this$[ebp], ecx
	mov	eax, 4
	imul	ecx, eax, 0
	mov	edx, DWORD PTR _rgfl$[ebp]
	mov	eax, DWORD PTR _this$[ebp]
	mov	eax, DWORD PTR [eax]
	mov	DWORD PTR [edx+ecx], eax
	mov	ecx, 4
	shl	ecx, 0
	mov	edx, DWORD PTR _rgfl$[ebp]
	mov	eax, DWORD PTR _this$[ebp]
	mov	eax, DWORD PTR [eax+4]
	mov	DWORD PTR [edx+ecx], eax
	mov	ecx, 4
	shl	ecx, 1
	mov	edx, DWORD PTR _rgfl$[ebp]
	mov	eax, DWORD PTR _this$[ebp]
	mov	eax, DWORD PTR [eax+8]
	mov	DWORD PTR [edx+ecx], eax
	pop	edi
	pop	esi
	pop	ebx
	mov	esp, ebp
	pop	ebp
	ret	4
?CopyToArray@Vector@@QBEXPAM@Z ENDP			; Vector::CopyToArray
_TEXT	ENDS
; Function compile flags: /Odtp /ZI
; File d:\!diffusion 2020\source code 2022\client-server\game_shared\vector.h
;	COMDAT ??0Vector@@QAE@XZ
_TEXT	SEGMENT
_this$ = -4						; size = 4
??0Vector@@QAE@XZ PROC					; Vector::Vector, COMDAT
; _this$ = ecx

; 143  : 	inline Vector(void)				{ }

	push	ebp
	mov	ebp, esp
	sub	esp, 68					; 00000044H
	push	ebx
	push	esi
	push	edi
	mov	DWORD PTR _this$[ebp], ecx
	mov	eax, DWORD PTR _this$[ebp]
	pop	edi
	pop	esi
	pop	ebx
	mov	esp, ebp
	pop	ebp
	ret	0
??0Vector@@QAE@XZ ENDP					; Vector::Vector
_TEXT	ENDS
; Function compile flags: /Odtp /ZI
; File d:\!diffusion 2020\source code 2022\client-server\game_shared\vector.h
;	COMDAT ?Length@Vector2D@@QBEMXZ
_TEXT	SEGMENT
tv84 = -72						; size = 4
_this$ = -4						; size = 4
?Length@Vector2D@@QBEMXZ PROC				; Vector2D::Length, COMDAT
; _this$ = ecx

; 104  : 	inline float Length(void) const { return sqrt(x*x + y*y ); }

	push	ebp
	mov	ebp, esp
	sub	esp, 72					; 00000048H
	push	ebx
	push	esi
	push	edi
	mov	DWORD PTR _this$[ebp], ecx
	mov	eax, DWORD PTR _this$[ebp]
	mov	ecx, DWORD PTR _this$[ebp]
	movss	xmm0, DWORD PTR [eax]
	mulss	xmm0, DWORD PTR [ecx]
	mov	edx, DWORD PTR _this$[ebp]
	mov	eax, DWORD PTR _this$[ebp]
	movss	xmm1, DWORD PTR [edx+4]
	mulss	xmm1, DWORD PTR [eax+4]
	addss	xmm0, xmm1
	cvtss2sd xmm0, xmm0
	sub	esp, 8
	movsd	QWORD PTR [esp], xmm0
	call	_sqrt
	add	esp, 8
	fstp	DWORD PTR tv84[ebp]
	fld	DWORD PTR tv84[ebp]
	pop	edi
	pop	esi
	pop	ebx
	mov	esp, ebp
	pop	ebp
	ret	0
?Length@Vector2D@@QBEMXZ ENDP				; Vector2D::Length
_TEXT	ENDS
; Function compile flags: /Odtp /ZI
; File d:\!diffusion 2020\source code 2022\client-server\game_shared\vector.h
;	COMDAT ??GVector2D@@QBE?AV0@ABV0@@Z
_TEXT	SEGMENT
_this$ = -4						; size = 4
___$ReturnUdt$ = 8					; size = 4
_v$ = 12						; size = 4
??GVector2D@@QBE?AV0@ABV0@@Z PROC			; Vector2D::operator-, COMDAT
; _this$ = ecx

; 65   : 	inline Vector2D operator-(const Vector2D& v) const { return Vector2D(x-v.x, y-v.y); }

	push	ebp
	mov	ebp, esp
	sub	esp, 68					; 00000044H
	push	ebx
	push	esi
	push	edi
	mov	DWORD PTR _this$[ebp], ecx
	mov	eax, DWORD PTR _this$[ebp]
	mov	ecx, DWORD PTR _v$[ebp]
	movss	xmm0, DWORD PTR [eax+4]
	subss	xmm0, DWORD PTR [ecx+4]
	push	ecx
	movss	DWORD PTR [esp], xmm0
	mov	edx, DWORD PTR _this$[ebp]
	mov	eax, DWORD PTR _v$[ebp]
	movss	xmm0, DWORD PTR [edx]
	subss	xmm0, DWORD PTR [eax]
	push	ecx
	movss	DWORD PTR [esp], xmm0
	mov	ecx, DWORD PTR ___$ReturnUdt$[ebp]
	call	??0Vector2D@@QAE@MM@Z			; Vector2D::Vector2D
	mov	eax, DWORD PTR ___$ReturnUdt$[ebp]
	pop	edi
	pop	esi
	pop	ebx
	mov	esp, ebp
	pop	ebp
	ret	8
??GVector2D@@QBE?AV0@ABV0@@Z ENDP			; Vector2D::operator-
_TEXT	ENDS
; Function compile flags: /Odtp /ZI
; File d:\!diffusion 2020\source code 2022\client-server\game_shared\vector.h
;	COMDAT ??0Vector2D@@QAE@MM@Z
_TEXT	SEGMENT
_this$ = -4						; size = 4
_X$ = 8							; size = 4
_Y$ = 12						; size = 4
??0Vector2D@@QAE@MM@Z PROC				; Vector2D::Vector2D, COMDAT
; _this$ = ecx

; 61   : 	inline Vector2D(float X, float Y) { x = X; y = Y; }

	push	ebp
	mov	ebp, esp
	sub	esp, 68					; 00000044H
	push	ebx
	push	esi
	push	edi
	mov	DWORD PTR _this$[ebp], ecx
	mov	eax, DWORD PTR _this$[ebp]
	movss	xmm0, DWORD PTR _X$[ebp]
	movss	DWORD PTR [eax], xmm0
	mov	eax, DWORD PTR _this$[ebp]
	movss	xmm0, DWORD PTR _Y$[ebp]
	movss	DWORD PTR [eax+4], xmm0
	mov	eax, DWORD PTR _this$[ebp]
	pop	edi
	pop	esi
	pop	ebx
	mov	esp, ebp
	pop	ebp
	ret	8
??0Vector2D@@QAE@MM@Z ENDP				; Vector2D::Vector2D
_TEXT	ENDS
; Function compile flags: /Odtp /ZI
;	COMDAT ??__G@YGXPAX0IIP6EPAX00@Z@Z
_TEXT	SEGMENT
tv66 = -68						; size = 4
___t$ = 8						; size = 4
___u$ = 12						; size = 4
___s$ = 16						; size = 4
___n$ = 20						; size = 4
___f$ = 24						; size = 4
??__G@YGXPAX0IIP6EPAX00@Z@Z PROC			; `vector copy constructor iterator', COMDAT
	push	ebp
	mov	ebp, esp
	sub	esp, 68					; 00000044H
	push	ebx
	push	esi
	push	edi
$LN2@vector:
	mov	eax, DWORD PTR ___n$[ebp]
	mov	DWORD PTR tv66[ebp], eax
	mov	ecx, DWORD PTR ___n$[ebp]
	sub	ecx, 1
	mov	DWORD PTR ___n$[ebp], ecx
	cmp	DWORD PTR tv66[ebp], 0
	jbe	SHORT $LN1@vector
	mov	eax, DWORD PTR ___u$[ebp]
	push	eax
	mov	ecx, DWORD PTR ___t$[ebp]
	call	DWORD PTR ___f$[ebp]
	mov	eax, DWORD PTR ___t$[ebp]
	add	eax, DWORD PTR ___s$[ebp]
	mov	DWORD PTR ___t$[ebp], eax
	mov	eax, DWORD PTR ___u$[ebp]
	add	eax, DWORD PTR ___s$[ebp]
	mov	DWORD PTR ___u$[ebp], eax
	jmp	SHORT $LN2@vector
$LN1@vector:
	pop	edi
	pop	esi
	pop	ebx
	mov	esp, ebp
	pop	ebp
	ret	20					; 00000014H
??__G@YGXPAX0IIP6EPAX00@Z@Z ENDP			; `vector copy constructor iterator'
_TEXT	ENDS
; Function compile flags: /Odtp /ZI
;	COMDAT ??_H@YGXPAXIIP6EPAX0@Z@Z
_TEXT	SEGMENT
tv66 = -68						; size = 4
___t$ = 8						; size = 4
___s$ = 12						; size = 4
___n$ = 16						; size = 4
___f$ = 20						; size = 4
??_H@YGXPAXIIP6EPAX0@Z@Z PROC				; `vector constructor iterator', COMDAT
	push	ebp
	mov	ebp, esp
	sub	esp, 68					; 00000044H
	push	ebx
	push	esi
	push	edi
$LN2@vector:
	mov	eax, DWORD PTR ___n$[ebp]
	mov	DWORD PTR tv66[ebp], eax
	mov	ecx, DWORD PTR ___n$[ebp]
	sub	ecx, 1
	mov	DWORD PTR ___n$[ebp], ecx
	cmp	DWORD PTR tv66[ebp], 0
	jbe	SHORT $LN1@vector
	mov	ecx, DWORD PTR ___t$[ebp]
	call	DWORD PTR ___f$[ebp]
	mov	eax, DWORD PTR ___t$[ebp]
	add	eax, DWORD PTR ___s$[ebp]
	mov	DWORD PTR ___t$[ebp], eax
	jmp	SHORT $LN2@vector
$LN1@vector:
	pop	edi
	pop	esi
	pop	ebx
	mov	esp, ebp
	pop	ebp
	ret	16					; 00000010H
??_H@YGXPAXIIP6EPAX0@Z@Z ENDP				; `vector constructor iterator'
_TEXT	ENDS
END
