; Listing generated by Microsoft (R) Optimizing Compiler Version 19.00.24247.2 

	TITLE	D:\!DIFFUSION 2020\source code 2022\client-server\client\input.cpp
	.686P
	.XMM
	include listing.inc
	.model	flat

INCLUDELIB LIBCMT
INCLUDELIB OLDNAMES

PUBLIC	?in_impulse@@3HA				; in_impulse
PUBLIC	?in_cancel@@3HA					; in_cancel
PUBLIC	?m_pitch@@3PAUcvar_s@@A				; m_pitch
PUBLIC	?m_yaw@@3PAUcvar_s@@A				; m_yaw
PUBLIC	?m_forward@@3PAUcvar_s@@A			; m_forward
PUBLIC	?m_side@@3PAUcvar_s@@A				; m_side
PUBLIC	?lookstrafe@@3PAUcvar_s@@A			; lookstrafe
PUBLIC	?lookspring@@3PAUcvar_s@@A			; lookspring
PUBLIC	?cl_pitchup@@3PAUcvar_s@@A			; cl_pitchup
PUBLIC	?cl_pitchdown@@3PAUcvar_s@@A			; cl_pitchdown
PUBLIC	?cl_upspeed@@3PAUcvar_s@@A			; cl_upspeed
PUBLIC	?cl_forwardspeed@@3PAUcvar_s@@A			; cl_forwardspeed
PUBLIC	?cl_backspeed@@3PAUcvar_s@@A			; cl_backspeed
PUBLIC	?cl_sidespeed@@3PAUcvar_s@@A			; cl_sidespeed
PUBLIC	?cl_movespeedkey@@3PAUcvar_s@@A			; cl_movespeedkey
PUBLIC	?cl_yawspeed@@3PAUcvar_s@@A			; cl_yawspeed
PUBLIC	?cl_pitchspeed@@3PAUcvar_s@@A			; cl_pitchspeed
PUBLIC	?cl_anglespeedkey@@3PAUcvar_s@@A		; cl_anglespeedkey
PUBLIC	?in_mlook@@3Ukbutton_s@@A			; in_mlook
PUBLIC	?in_klook@@3Ukbutton_s@@A			; in_klook
PUBLIC	?in_jlook@@3Ukbutton_s@@A			; in_jlook
PUBLIC	?in_left@@3Ukbutton_s@@A			; in_left
PUBLIC	?in_right@@3Ukbutton_s@@A			; in_right
PUBLIC	?in_forward@@3Ukbutton_s@@A			; in_forward
PUBLIC	?in_back@@3Ukbutton_s@@A			; in_back
PUBLIC	?in_lookup@@3Ukbutton_s@@A			; in_lookup
PUBLIC	?in_lookdown@@3Ukbutton_s@@A			; in_lookdown
PUBLIC	?in_moveleft@@3Ukbutton_s@@A			; in_moveleft
PUBLIC	?in_moveright@@3Ukbutton_s@@A			; in_moveright
PUBLIC	?in_strafe@@3Ukbutton_s@@A			; in_strafe
PUBLIC	?in_speed@@3Ukbutton_s@@A			; in_speed
PUBLIC	?in_use@@3Ukbutton_s@@A				; in_use
PUBLIC	?in_jump@@3Ukbutton_s@@A			; in_jump
PUBLIC	?in_attack@@3Ukbutton_s@@A			; in_attack
PUBLIC	?in_attack2@@3Ukbutton_s@@A			; in_attack2
PUBLIC	?in_up@@3Ukbutton_s@@A				; in_up
PUBLIC	?in_down@@3Ukbutton_s@@A			; in_down
PUBLIC	?in_duck@@3Ukbutton_s@@A			; in_duck
PUBLIC	?in_reload@@3Ukbutton_s@@A			; in_reload
PUBLIC	?in_alt1@@3Ukbutton_s@@A			; in_alt1
PUBLIC	?in_score@@3Ukbutton_s@@A			; in_score
PUBLIC	?in_break@@3Ukbutton_s@@A			; in_break
PUBLIC	?in_graph@@3Ukbutton_s@@A			; in_graph
PUBLIC	?in_sprint@@3Ukbutton_s@@A			; in_sprint
PUBLIC	?g_kbkeys@@3PAUkblist_s@@A			; g_kbkeys
_BSS	SEGMENT
?in_impulse@@3HA DD 01H DUP (?)				; in_impulse
?in_cancel@@3HA DD 01H DUP (?)				; in_cancel
?m_pitch@@3PAUcvar_s@@A DD 01H DUP (?)			; m_pitch
?m_yaw@@3PAUcvar_s@@A DD 01H DUP (?)			; m_yaw
?m_forward@@3PAUcvar_s@@A DD 01H DUP (?)		; m_forward
?m_side@@3PAUcvar_s@@A DD 01H DUP (?)			; m_side
?lookstrafe@@3PAUcvar_s@@A DD 01H DUP (?)		; lookstrafe
?lookspring@@3PAUcvar_s@@A DD 01H DUP (?)		; lookspring
?cl_pitchup@@3PAUcvar_s@@A DD 01H DUP (?)		; cl_pitchup
?cl_pitchdown@@3PAUcvar_s@@A DD 01H DUP (?)		; cl_pitchdown
?cl_upspeed@@3PAUcvar_s@@A DD 01H DUP (?)		; cl_upspeed
?cl_forwardspeed@@3PAUcvar_s@@A DD 01H DUP (?)		; cl_forwardspeed
?cl_backspeed@@3PAUcvar_s@@A DD 01H DUP (?)		; cl_backspeed
?cl_sidespeed@@3PAUcvar_s@@A DD 01H DUP (?)		; cl_sidespeed
?cl_movespeedkey@@3PAUcvar_s@@A DD 01H DUP (?)		; cl_movespeedkey
?cl_yawspeed@@3PAUcvar_s@@A DD 01H DUP (?)		; cl_yawspeed
?cl_pitchspeed@@3PAUcvar_s@@A DD 01H DUP (?)		; cl_pitchspeed
?cl_anglespeedkey@@3PAUcvar_s@@A DD 01H DUP (?)		; cl_anglespeedkey
?in_mlook@@3Ukbutton_s@@A DB 0cH DUP (?)		; in_mlook
?in_klook@@3Ukbutton_s@@A DB 0cH DUP (?)		; in_klook
?in_jlook@@3Ukbutton_s@@A DB 0cH DUP (?)		; in_jlook
?in_left@@3Ukbutton_s@@A DB 0cH DUP (?)			; in_left
?in_right@@3Ukbutton_s@@A DB 0cH DUP (?)		; in_right
?in_forward@@3Ukbutton_s@@A DB 0cH DUP (?)		; in_forward
?in_back@@3Ukbutton_s@@A DB 0cH DUP (?)			; in_back
?in_lookup@@3Ukbutton_s@@A DB 0cH DUP (?)		; in_lookup
?in_lookdown@@3Ukbutton_s@@A DB 0cH DUP (?)		; in_lookdown
?in_moveleft@@3Ukbutton_s@@A DB 0cH DUP (?)		; in_moveleft
?in_moveright@@3Ukbutton_s@@A DB 0cH DUP (?)		; in_moveright
?in_strafe@@3Ukbutton_s@@A DB 0cH DUP (?)		; in_strafe
?in_speed@@3Ukbutton_s@@A DB 0cH DUP (?)		; in_speed
?in_use@@3Ukbutton_s@@A DB 0cH DUP (?)			; in_use
?in_jump@@3Ukbutton_s@@A DB 0cH DUP (?)			; in_jump
?in_attack@@3Ukbutton_s@@A DB 0cH DUP (?)		; in_attack
?in_attack2@@3Ukbutton_s@@A DB 0cH DUP (?)		; in_attack2
?in_up@@3Ukbutton_s@@A DB 0cH DUP (?)			; in_up
?in_down@@3Ukbutton_s@@A DB 0cH DUP (?)			; in_down
?in_duck@@3Ukbutton_s@@A DB 0cH DUP (?)			; in_duck
?in_reload@@3Ukbutton_s@@A DB 0cH DUP (?)		; in_reload
?in_alt1@@3Ukbutton_s@@A DB 0cH DUP (?)			; in_alt1
?in_score@@3Ukbutton_s@@A DB 0cH DUP (?)		; in_score
?in_break@@3Ukbutton_s@@A DB 0cH DUP (?)		; in_break
?in_graph@@3Ukbutton_s@@A DB 0cH DUP (?)		; in_graph
?in_sprint@@3Ukbutton_s@@A DB 0cH DUP (?)		; in_sprint
?g_kbkeys@@3PAUkblist_s@@A DD 01H DUP (?)		; g_kbkeys
_BSS	ENDS
PUBLIC	??_H@YGXPAXIIP6EPAX0@Z@Z			; `vector constructor iterator'
PUBLIC	??__G@YGXPAX0IIP6EPAX00@Z@Z			; `vector copy constructor iterator'
PUBLIC	??0Vector@@QAE@XZ				; Vector::Vector
PUBLIC	??BVector@@QAEPAMXZ				; Vector::operator float *
PUBLIC	?CL_ButtonBits@@YAHH@Z				; CL_ButtonBits
PUBLIC	?CL_ResetButtonBits@@YAXH@Z			; CL_ResetButtonBits
PUBLIC	?InitInput@@YAXXZ				; InitInput
PUBLIC	?ShutdownInput@@YAXXZ				; ShutdownInput
PUBLIC	?KB_ConvertString@@YAHPADPAPAD@Z		; KB_ConvertString
PUBLIC	?KB_Find@@YAPAXPBD@Z				; KB_Find
PUBLIC	?CL_CreateMove@@YAXMPAUusercmd_s@@H@Z		; CL_CreateMove
PUBLIC	?CL_IsDead@@YAHXZ				; CL_IsDead
PUBLIC	?KB_Add@@YAXPBDPAUkbutton_s@@@Z			; KB_Add
PUBLIC	?KB_Init@@YAXXZ					; KB_Init
PUBLIC	?KB_Shutdown@@YAXXZ				; KB_Shutdown
PUBLIC	?KeyDown@@YAXPAUkbutton_s@@@Z			; KeyDown
PUBLIC	?KeyUp@@YAXPAUkbutton_s@@@Z			; KeyUp
PUBLIC	?IN_BreakDown@@YAXXZ				; IN_BreakDown
PUBLIC	?IN_BreakUp@@YAXXZ				; IN_BreakUp
PUBLIC	?IN_KLookDown@@YAXXZ				; IN_KLookDown
PUBLIC	?IN_KLookUp@@YAXXZ				; IN_KLookUp
PUBLIC	?IN_JLookDown@@YAXXZ				; IN_JLookDown
PUBLIC	?IN_JLookUp@@YAXXZ				; IN_JLookUp
PUBLIC	?IN_MLookDown@@YAXXZ				; IN_MLookDown
PUBLIC	?IN_UpDown@@YAXXZ				; IN_UpDown
PUBLIC	?IN_UpUp@@YAXXZ					; IN_UpUp
PUBLIC	?IN_DownDown@@YAXXZ				; IN_DownDown
PUBLIC	?IN_DownUp@@YAXXZ				; IN_DownUp
PUBLIC	?IN_LeftDown@@YAXXZ				; IN_LeftDown
PUBLIC	?IN_LeftUp@@YAXXZ				; IN_LeftUp
PUBLIC	?IN_RightDown@@YAXXZ				; IN_RightDown
PUBLIC	?IN_RightUp@@YAXXZ				; IN_RightUp
PUBLIC	?IN_ForwardDown@@YAXXZ				; IN_ForwardDown
PUBLIC	?IN_ForwardUp@@YAXXZ				; IN_ForwardUp
PUBLIC	?IN_BackDown@@YAXXZ				; IN_BackDown
PUBLIC	?IN_BackUp@@YAXXZ				; IN_BackUp
PUBLIC	?IN_LookupDown@@YAXXZ				; IN_LookupDown
PUBLIC	?IN_LookupUp@@YAXXZ				; IN_LookupUp
PUBLIC	?IN_LookdownDown@@YAXXZ				; IN_LookdownDown
PUBLIC	?IN_LookdownUp@@YAXXZ				; IN_LookdownUp
PUBLIC	?IN_MoveleftDown@@YAXXZ				; IN_MoveleftDown
PUBLIC	?IN_MoveleftUp@@YAXXZ				; IN_MoveleftUp
PUBLIC	?IN_MoverightDown@@YAXXZ			; IN_MoverightDown
PUBLIC	?IN_MoverightUp@@YAXXZ				; IN_MoverightUp
PUBLIC	?IN_SpeedDown@@YAXXZ				; IN_SpeedDown
PUBLIC	?IN_SpeedUp@@YAXXZ				; IN_SpeedUp
PUBLIC	?IN_SprintDown@@YAXXZ				; IN_SprintDown
PUBLIC	?IN_SprintUp@@YAXXZ				; IN_SprintUp
PUBLIC	?IN_StrafeDown@@YAXXZ				; IN_StrafeDown
PUBLIC	?IN_StrafeUp@@YAXXZ				; IN_StrafeUp
PUBLIC	?IN_Attack2Down@@YAXXZ				; IN_Attack2Down
PUBLIC	?IN_Attack2Up@@YAXXZ				; IN_Attack2Up
PUBLIC	?IN_UseDown@@YAXXZ				; IN_UseDown
PUBLIC	?IN_UseUp@@YAXXZ				; IN_UseUp
PUBLIC	?IN_JumpDown@@YAXXZ				; IN_JumpDown
PUBLIC	?IN_JumpUp@@YAXXZ				; IN_JumpUp
PUBLIC	?IN_DuckDown@@YAXXZ				; IN_DuckDown
PUBLIC	?IN_DuckUp@@YAXXZ				; IN_DuckUp
PUBLIC	?IN_DuckToggle@@YAXXZ				; IN_DuckToggle
PUBLIC	?IN_ReloadDown@@YAXXZ				; IN_ReloadDown
PUBLIC	?IN_ReloadUp@@YAXXZ				; IN_ReloadUp
PUBLIC	?IN_Alt1Down@@YAXXZ				; IN_Alt1Down
PUBLIC	?IN_Alt1Up@@YAXXZ				; IN_Alt1Up
PUBLIC	?IN_GraphDown@@YAXXZ				; IN_GraphDown
PUBLIC	?IN_GraphUp@@YAXXZ				; IN_GraphUp
PUBLIC	?IN_AttackDown@@YAXXZ				; IN_AttackDown
PUBLIC	?IN_AttackUp@@YAXXZ				; IN_AttackUp
PUBLIC	?IN_ScoreDown@@YAXXZ				; IN_ScoreDown
PUBLIC	?IN_ScoreUp@@YAXXZ				; IN_ScoreUp
PUBLIC	?IN_Cancel@@YAXXZ				; IN_Cancel
PUBLIC	?IN_Impulse@@YAXXZ				; IN_Impulse
PUBLIC	?IN_MLookUp@@YAXXZ				; IN_MLookUp
PUBLIC	?CL_KeyState@@YAMPAUkbutton_s@@@Z		; CL_KeyState
PUBLIC	?CL_AdjustAngles@@YAXMAAVVector@@@Z		; CL_AdjustAngles
PUBLIC	??_C@_08BFGGGCKN@in_graph?$AA@			; `string'
PUBLIC	??_C@_08LHKFKIJF@in_mlook?$AA@			; `string'
PUBLIC	??_C@_08KKKAJICN@in_jlook?$AA@			; `string'
PUBLIC	??_C@_0CO@JIBCJLJF@Three?5keys?5down?5for?5a?5button?5?8?$CFc@ ; `string'
PUBLIC	??_C@_07CKGNAPCP@?$CLmoveup?$AA@		; `string'
PUBLIC	??_C@_07OMACAGKI@?9moveup?$AA@			; `string'
PUBLIC	??_C@_09HNJJMOJG@?$CLmovedown?$AA@		; `string'
PUBLIC	??_C@_09HAIHLONB@?9movedown?$AA@		; `string'
PUBLIC	??_C@_05HEGFDNLE@?$CLleft?$AA@			; `string'
PUBLIC	??_C@_05KCDMNOKJ@?9left?$AA@			; `string'
PUBLIC	??_C@_06NGIHBNMB@?$CLright?$AA@			; `string'
PUBLIC	??_C@_06LFFHCIPL@?9right?$AA@			; `string'
PUBLIC	??_C@_08KKEOHAPB@?$CLforward?$AA@		; `string'
PUBLIC	??_C@_08NJFEAJHL@?9forward?$AA@			; `string'
PUBLIC	??_C@_05IPKGNIPH@?$CLback?$AA@			; `string'
PUBLIC	??_C@_05FJPPDLOK@?9back?$AA@			; `string'
PUBLIC	??_C@_07BDFIGFL@?$CLlookup?$AA@			; `string'
PUBLIC	??_C@_07MHFKIPNM@?9lookup?$AA@			; `string'
PUBLIC	??_C@_09KCKOGCLI@?$CLlookdown?$AA@		; `string'
PUBLIC	??_C@_09KPLABCPP@?9lookdown?$AA@		; `string'
PUBLIC	??_C@_07CHKKNAEO@?$CLstrafe?$AA@		; `string'
PUBLIC	??_C@_07OBMFNJMJ@?9strafe?$AA@			; `string'
PUBLIC	??_C@_09IPJNFGKP@?$CLmoveleft?$AA@		; `string'
PUBLIC	??_C@_09ICIDCGOI@?9moveleft?$AA@		; `string'
PUBLIC	??_C@_0L@FMBJCMEG@?$CLmoveright?$AA@		; `string'
PUBLIC	??_C@_0L@LEKMOGAF@?9moveright?$AA@		; `string'
PUBLIC	??_C@_06JIDIHCBO@?$CLspeed?$AA@			; `string'
PUBLIC	??_C@_06PLOIEHCE@?9speed?$AA@			; `string'
PUBLIC	??_C@_07MAODEHGM@?$CLattack?$AA@		; `string'
PUBLIC	??_C@_07GIMEOOL@?9attack?$AA@			; `string'
PUBLIC	??_C@_08KJLEJKEF@?$CLattack2?$AA@		; `string'
PUBLIC	??_C@_08NKKOODMP@?9attack2?$AA@			; `string'
PUBLIC	??_C@_04JNBAAPLC@?$CLuse?$AA@			; `string'
PUBLIC	??_C@_04BCFAPKBC@?9use?$AA@			; `string'
PUBLIC	??_C@_05MDAFLFGO@?$CLjump?$AA@			; `string'
PUBLIC	??_C@_05BFFMFGHD@?9jump?$AA@			; `string'
PUBLIC	??_C@_07LKMFNFAN@impulse?$AA@			; `string'
PUBLIC	??_C@_06DHBPPBBG@?$CLklook?$AA@			; `string'
PUBLIC	??_C@_06FEMPMECM@?9klook?$AA@			; `string'
PUBLIC	??_C@_06OBEGBCAL@?$CLmlook?$AA@			; `string'
PUBLIC	??_C@_06ICJGCHDB@?9mlook?$AA@			; `string'
PUBLIC	??_C@_06PMEDCCLD@?$CLjlook?$AA@			; `string'
PUBLIC	??_C@_06JPJDBHIJ@?9jlook?$AA@			; `string'
PUBLIC	??_C@_05NPJNONJP@?$CLduck?$AA@			; `string'
PUBLIC	??_C@_05JMEAOIC@?9duck?$AA@			; `string'
PUBLIC	??_C@_06FIIDHMOF@duck_t?$AA@			; `string'
PUBLIC	??_C@_07GKAMHDNA@?$CLreload?$AA@		; `string'
PUBLIC	??_C@_07KMGDHKFH@?9reload?$AA@			; `string'
PUBLIC	??_C@_05GDFBHKNB@?$CLalt1?$AA@			; `string'
PUBLIC	??_C@_05LFAIJJMM@?9alt1?$AA@			; `string'
PUBLIC	??_C@_06EDIFNIDD@?$CLgraph?$AA@			; `string'
PUBLIC	??_C@_06CAFFONAJ@?9graph?$AA@			; `string'
PUBLIC	??_C@_06NALHPLJM@?$CLscore?$AA@			; `string'
PUBLIC	??_C@_06LDGHMOKG@?9score?$AA@			; `string'
PUBLIC	??_C@_06KKODEEFD@?$CLbreak?$AA@			; `string'
PUBLIC	??_C@_06MJDDHBGJ@?9break?$AA@			; `string'
PUBLIC	??_C@_07OCCKMBJI@?9sprint?$AA@			; `string'
PUBLIC	??_C@_07CEEFMIBP@?$CLsprint?$AA@		; `string'
PUBLIC	??_C@_01GBGANLPD@0?$AA@				; `string'
PUBLIC	??_C@_0L@PJGKGJFB@lookstrafe?$AA@		; `string'
PUBLIC	??_C@_0L@JLGKDAJC@lookspring?$AA@		; `string'
PUBLIC	??_C@_04GIPAFBHP@0?467?$AA@			; `string'
PUBLIC	??_C@_0BB@FCKNHEAF@cl_anglespeedkey?$AA@	; `string'
PUBLIC	??_C@_03HOHGKJJN@210?$AA@			; `string'
PUBLIC	??_C@_0M@JHKIFKKF@cl_yawspeed?$AA@		; `string'
PUBLIC	??_C@_03BEHODIB@225?$AA@			; `string'
PUBLIC	??_C@_0O@KLONPPKB@cl_pitchspeed?$AA@		; `string'
PUBLIC	??_C@_03MEIMHAKB@320?$AA@			; `string'
PUBLIC	??_C@_0L@ELHKEFF@cl_upspeed?$AA@		; `string'
PUBLIC	??_C@_03FKNPJMHG@400?$AA@			; `string'
PUBLIC	??_C@_0BA@NOBHMJJP@cl_forwardspeed?$AA@		; `string'
PUBLIC	??_C@_0N@PLGCMGJC@cl_backspeed?$AA@		; `string'
PUBLIC	??_C@_0N@NCCMPMBI@cl_sidespeed?$AA@		; `string'
PUBLIC	??_C@_03OICINGJI@0?43?$AA@			; `string'
PUBLIC	??_C@_0BA@JDGEPJLO@cl_movespeedkey?$AA@		; `string'
PUBLIC	??_C@_02CEECBPHP@89?$AA@			; `string'
PUBLIC	??_C@_0L@EELGACDO@cl_pitchup?$AA@		; `string'
PUBLIC	??_C@_0N@FAPBPPOA@cl_pitchdown?$AA@		; `string'
PUBLIC	??_C@_05OACFFLK@0?4022?$AA@			; `string'
PUBLIC	??_C@_07JIEGLHEC@m_pitch?$AA@			; `string'
PUBLIC	??_C@_05HPEILLPC@m_yaw?$AA@			; `string'
PUBLIC	??_C@_01HIHLOKLC@1?$AA@				; `string'
PUBLIC	??_C@_09CGJLBBDA@m_forward?$AA@			; `string'
PUBLIC	??_C@_03LNMAPFD@0?48?$AA@			; `string'
PUBLIC	??_C@_06NKCCGJAO@m_side?$AA@			; `string'
PUBLIC	__real@00000000
PUBLIC	__real@3e800000
PUBLIC	__real@3f000000
PUBLIC	__real@3f400000
PUBLIC	__real@3f800000
PUBLIC	__real@40400000
PUBLIC	__real@42480000
PUBLIC	__real@c2480000
PUBLIC	__xmm@80000000800000008000000080000000
EXTRN	__Init_thread_header:PROC
EXTRN	__Init_thread_abort:PROC
EXTRN	__Init_thread_footer:PROC
EXTRN	_isalnum:PROC
EXTRN	_memset:PROC
EXTRN	_free:PROC
EXTRN	_malloc:PROC
EXTRN	_sqrt:PROC
EXTRN	?Q_strlen@@YAHPBD@Z:PROC			; Q_strlen
EXTRN	?Q_strncpy@@YAIPADPBDI@Z:PROC			; Q_strncpy
EXTRN	?Q_atoi@@YAHPBD@Z:PROC				; Q_atoi
EXTRN	?Q_strnicmp@@YAHPBD0H@Z:PROC			; Q_strnicmp
EXTRN	?V_Init@@YAXXZ:PROC				; V_Init
EXTRN	?V_StopPitchDrift@@YAXXZ:PROC			; V_StopPitchDrift
EXTRN	?ALERT@@YAXW4ALERT_TYPE@@PADZZ:PROC		; ALERT
EXTRN	?IN_Init@@YAXXZ:PROC				; IN_Init
EXTRN	?IN_Move@@YAXMPAUusercmd_s@@@Z:PROC		; IN_Move
EXTRN	?IN_Shutdown@@YAXXZ:PROC			; IN_Shutdown
EXTRN	@__security_check_cookie@4:PROC
EXTRN	___CxxFrameHandler3:PROC
EXTRN	__chkstk:PROC
EXTRN	__Init_thread_epoch:DWORD
EXTRN	?gEngfuncs@@3Ucl_enginefuncs_s@@A:BYTE		; gEngfuncs
EXTRN	?gHUD@@3VCHud@@A:BYTE				; gHUD
EXTRN	?g_weaponselect@@3HA:DWORD			; g_weaponselect
EXTRN	?g_bDuckToggled@@3_NA:BYTE			; g_bDuckToggled
EXTRN	___security_cookie:DWORD
EXTRN	__fltused:DWORD
EXTRN	__tls_array:DWORD
EXTRN	__tls_index:DWORD
_BSS	SEGMENT
?oldangles@?1??CL_CreateMove@@YAXMPAUusercmd_s@@H@Z@4VVector@@A DB 0cH DUP (?) ; `CL_CreateMove'::`2'::oldangles
?$TSS0@?1??CL_CreateMove@@YAXMPAUusercmd_s@@H@Z@4HA DD 01H DUP (?) ; `CL_CreateMove'::`2'::$TSS0
_BSS	ENDS
;	COMDAT __xmm@80000000800000008000000080000000
CONST	SEGMENT
__xmm@80000000800000008000000080000000 DB 00H, 00H, 00H, 080H, 00H, 00H, 00H
	DB	080H, 00H, 00H, 00H, 080H, 00H, 00H, 00H, 080H
CONST	ENDS
;	COMDAT __real@c2480000
CONST	SEGMENT
__real@c2480000 DD 0c2480000r			; -50
CONST	ENDS
;	COMDAT __real@42480000
CONST	SEGMENT
__real@42480000 DD 042480000r			; 50
CONST	ENDS
;	COMDAT __real@40400000
CONST	SEGMENT
__real@40400000 DD 040400000r			; 3
CONST	ENDS
;	COMDAT __real@3f800000
CONST	SEGMENT
__real@3f800000 DD 03f800000r			; 1
CONST	ENDS
;	COMDAT __real@3f400000
CONST	SEGMENT
__real@3f400000 DD 03f400000r			; 0.75
CONST	ENDS
;	COMDAT __real@3f000000
CONST	SEGMENT
__real@3f000000 DD 03f000000r			; 0.5
CONST	ENDS
;	COMDAT __real@3e800000
CONST	SEGMENT
__real@3e800000 DD 03e800000r			; 0.25
CONST	ENDS
;	COMDAT __real@00000000
CONST	SEGMENT
__real@00000000 DD 000000000r			; 0
CONST	ENDS
;	COMDAT ??_C@_06NKCCGJAO@m_side?$AA@
CONST	SEGMENT
??_C@_06NKCCGJAO@m_side?$AA@ DB 'm_side', 00H		; `string'
CONST	ENDS
;	COMDAT ??_C@_03LNMAPFD@0?48?$AA@
CONST	SEGMENT
??_C@_03LNMAPFD@0?48?$AA@ DB '0.8', 00H			; `string'
CONST	ENDS
;	COMDAT ??_C@_09CGJLBBDA@m_forward?$AA@
CONST	SEGMENT
??_C@_09CGJLBBDA@m_forward?$AA@ DB 'm_forward', 00H	; `string'
CONST	ENDS
;	COMDAT ??_C@_01HIHLOKLC@1?$AA@
CONST	SEGMENT
??_C@_01HIHLOKLC@1?$AA@ DB '1', 00H			; `string'
CONST	ENDS
;	COMDAT ??_C@_05HPEILLPC@m_yaw?$AA@
CONST	SEGMENT
??_C@_05HPEILLPC@m_yaw?$AA@ DB 'm_yaw', 00H		; `string'
CONST	ENDS
;	COMDAT ??_C@_07JIEGLHEC@m_pitch?$AA@
CONST	SEGMENT
??_C@_07JIEGLHEC@m_pitch?$AA@ DB 'm_pitch', 00H		; `string'
CONST	ENDS
;	COMDAT ??_C@_05OACFFLK@0?4022?$AA@
CONST	SEGMENT
??_C@_05OACFFLK@0?4022?$AA@ DB '0.022', 00H		; `string'
CONST	ENDS
;	COMDAT ??_C@_0N@FAPBPPOA@cl_pitchdown?$AA@
CONST	SEGMENT
??_C@_0N@FAPBPPOA@cl_pitchdown?$AA@ DB 'cl_pitchdown', 00H ; `string'
CONST	ENDS
;	COMDAT ??_C@_0L@EELGACDO@cl_pitchup?$AA@
CONST	SEGMENT
??_C@_0L@EELGACDO@cl_pitchup?$AA@ DB 'cl_pitchup', 00H	; `string'
CONST	ENDS
;	COMDAT ??_C@_02CEECBPHP@89?$AA@
CONST	SEGMENT
??_C@_02CEECBPHP@89?$AA@ DB '89', 00H			; `string'
CONST	ENDS
;	COMDAT ??_C@_0BA@JDGEPJLO@cl_movespeedkey?$AA@
CONST	SEGMENT
??_C@_0BA@JDGEPJLO@cl_movespeedkey?$AA@ DB 'cl_movespeedkey', 00H ; `string'
CONST	ENDS
;	COMDAT ??_C@_03OICINGJI@0?43?$AA@
CONST	SEGMENT
??_C@_03OICINGJI@0?43?$AA@ DB '0.3', 00H		; `string'
CONST	ENDS
;	COMDAT ??_C@_0N@NCCMPMBI@cl_sidespeed?$AA@
CONST	SEGMENT
??_C@_0N@NCCMPMBI@cl_sidespeed?$AA@ DB 'cl_sidespeed', 00H ; `string'
CONST	ENDS
;	COMDAT ??_C@_0N@PLGCMGJC@cl_backspeed?$AA@
CONST	SEGMENT
??_C@_0N@PLGCMGJC@cl_backspeed?$AA@ DB 'cl_backspeed', 00H ; `string'
CONST	ENDS
;	COMDAT ??_C@_0BA@NOBHMJJP@cl_forwardspeed?$AA@
CONST	SEGMENT
??_C@_0BA@NOBHMJJP@cl_forwardspeed?$AA@ DB 'cl_forwardspeed', 00H ; `string'
CONST	ENDS
;	COMDAT ??_C@_03FKNPJMHG@400?$AA@
CONST	SEGMENT
??_C@_03FKNPJMHG@400?$AA@ DB '400', 00H			; `string'
CONST	ENDS
;	COMDAT ??_C@_0L@ELHKEFF@cl_upspeed?$AA@
CONST	SEGMENT
??_C@_0L@ELHKEFF@cl_upspeed?$AA@ DB 'cl_upspeed', 00H	; `string'
CONST	ENDS
;	COMDAT ??_C@_03MEIMHAKB@320?$AA@
CONST	SEGMENT
??_C@_03MEIMHAKB@320?$AA@ DB '320', 00H			; `string'
CONST	ENDS
;	COMDAT ??_C@_0O@KLONPPKB@cl_pitchspeed?$AA@
CONST	SEGMENT
??_C@_0O@KLONPPKB@cl_pitchspeed?$AA@ DB 'cl_pitchspeed', 00H ; `string'
CONST	ENDS
;	COMDAT ??_C@_03BEHODIB@225?$AA@
CONST	SEGMENT
??_C@_03BEHODIB@225?$AA@ DB '225', 00H			; `string'
CONST	ENDS
;	COMDAT ??_C@_0M@JHKIFKKF@cl_yawspeed?$AA@
CONST	SEGMENT
??_C@_0M@JHKIFKKF@cl_yawspeed?$AA@ DB 'cl_yawspeed', 00H ; `string'
CONST	ENDS
;	COMDAT ??_C@_03HOHGKJJN@210?$AA@
CONST	SEGMENT
??_C@_03HOHGKJJN@210?$AA@ DB '210', 00H			; `string'
CONST	ENDS
;	COMDAT ??_C@_0BB@FCKNHEAF@cl_anglespeedkey?$AA@
CONST	SEGMENT
??_C@_0BB@FCKNHEAF@cl_anglespeedkey?$AA@ DB 'cl_anglespeedkey', 00H ; `string'
CONST	ENDS
;	COMDAT ??_C@_04GIPAFBHP@0?467?$AA@
CONST	SEGMENT
??_C@_04GIPAFBHP@0?467?$AA@ DB '0.67', 00H		; `string'
CONST	ENDS
;	COMDAT ??_C@_0L@JLGKDAJC@lookspring?$AA@
CONST	SEGMENT
??_C@_0L@JLGKDAJC@lookspring?$AA@ DB 'lookspring', 00H	; `string'
CONST	ENDS
;	COMDAT ??_C@_0L@PJGKGJFB@lookstrafe?$AA@
CONST	SEGMENT
??_C@_0L@PJGKGJFB@lookstrafe?$AA@ DB 'lookstrafe', 00H	; `string'
CONST	ENDS
;	COMDAT ??_C@_01GBGANLPD@0?$AA@
CONST	SEGMENT
??_C@_01GBGANLPD@0?$AA@ DB '0', 00H			; `string'
CONST	ENDS
;	COMDAT ??_C@_07CEEFMIBP@?$CLsprint?$AA@
CONST	SEGMENT
??_C@_07CEEFMIBP@?$CLsprint?$AA@ DB '+sprint', 00H	; `string'
CONST	ENDS
;	COMDAT ??_C@_07OCCKMBJI@?9sprint?$AA@
CONST	SEGMENT
??_C@_07OCCKMBJI@?9sprint?$AA@ DB '-sprint', 00H	; `string'
CONST	ENDS
;	COMDAT ??_C@_06MJDDHBGJ@?9break?$AA@
CONST	SEGMENT
??_C@_06MJDDHBGJ@?9break?$AA@ DB '-break', 00H		; `string'
CONST	ENDS
;	COMDAT ??_C@_06KKODEEFD@?$CLbreak?$AA@
CONST	SEGMENT
??_C@_06KKODEEFD@?$CLbreak?$AA@ DB '+break', 00H	; `string'
CONST	ENDS
;	COMDAT ??_C@_06LDGHMOKG@?9score?$AA@
CONST	SEGMENT
??_C@_06LDGHMOKG@?9score?$AA@ DB '-score', 00H		; `string'
CONST	ENDS
;	COMDAT ??_C@_06NALHPLJM@?$CLscore?$AA@
CONST	SEGMENT
??_C@_06NALHPLJM@?$CLscore?$AA@ DB '+score', 00H	; `string'
CONST	ENDS
;	COMDAT ??_C@_06CAFFONAJ@?9graph?$AA@
CONST	SEGMENT
??_C@_06CAFFONAJ@?9graph?$AA@ DB '-graph', 00H		; `string'
CONST	ENDS
;	COMDAT ??_C@_06EDIFNIDD@?$CLgraph?$AA@
CONST	SEGMENT
??_C@_06EDIFNIDD@?$CLgraph?$AA@ DB '+graph', 00H	; `string'
CONST	ENDS
;	COMDAT ??_C@_05LFAIJJMM@?9alt1?$AA@
CONST	SEGMENT
??_C@_05LFAIJJMM@?9alt1?$AA@ DB '-alt1', 00H		; `string'
CONST	ENDS
;	COMDAT ??_C@_05GDFBHKNB@?$CLalt1?$AA@
CONST	SEGMENT
??_C@_05GDFBHKNB@?$CLalt1?$AA@ DB '+alt1', 00H		; `string'
CONST	ENDS
;	COMDAT ??_C@_07KMGDHKFH@?9reload?$AA@
CONST	SEGMENT
??_C@_07KMGDHKFH@?9reload?$AA@ DB '-reload', 00H	; `string'
CONST	ENDS
;	COMDAT ??_C@_07GKAMHDNA@?$CLreload?$AA@
CONST	SEGMENT
??_C@_07GKAMHDNA@?$CLreload?$AA@ DB '+reload', 00H	; `string'
CONST	ENDS
;	COMDAT ??_C@_06FIIDHMOF@duck_t?$AA@
CONST	SEGMENT
??_C@_06FIIDHMOF@duck_t?$AA@ DB 'duck_t', 00H		; `string'
CONST	ENDS
;	COMDAT ??_C@_05JMEAOIC@?9duck?$AA@
CONST	SEGMENT
??_C@_05JMEAOIC@?9duck?$AA@ DB '-duck', 00H		; `string'
CONST	ENDS
;	COMDAT ??_C@_05NPJNONJP@?$CLduck?$AA@
CONST	SEGMENT
??_C@_05NPJNONJP@?$CLduck?$AA@ DB '+duck', 00H		; `string'
CONST	ENDS
;	COMDAT ??_C@_06JPJDBHIJ@?9jlook?$AA@
CONST	SEGMENT
??_C@_06JPJDBHIJ@?9jlook?$AA@ DB '-jlook', 00H		; `string'
CONST	ENDS
;	COMDAT ??_C@_06PMEDCCLD@?$CLjlook?$AA@
CONST	SEGMENT
??_C@_06PMEDCCLD@?$CLjlook?$AA@ DB '+jlook', 00H	; `string'
CONST	ENDS
;	COMDAT ??_C@_06ICJGCHDB@?9mlook?$AA@
CONST	SEGMENT
??_C@_06ICJGCHDB@?9mlook?$AA@ DB '-mlook', 00H		; `string'
CONST	ENDS
;	COMDAT ??_C@_06OBEGBCAL@?$CLmlook?$AA@
CONST	SEGMENT
??_C@_06OBEGBCAL@?$CLmlook?$AA@ DB '+mlook', 00H	; `string'
CONST	ENDS
;	COMDAT ??_C@_06FEMPMECM@?9klook?$AA@
CONST	SEGMENT
??_C@_06FEMPMECM@?9klook?$AA@ DB '-klook', 00H		; `string'
CONST	ENDS
;	COMDAT ??_C@_06DHBPPBBG@?$CLklook?$AA@
CONST	SEGMENT
??_C@_06DHBPPBBG@?$CLklook?$AA@ DB '+klook', 00H	; `string'
CONST	ENDS
;	COMDAT ??_C@_07LKMFNFAN@impulse?$AA@
CONST	SEGMENT
??_C@_07LKMFNFAN@impulse?$AA@ DB 'impulse', 00H		; `string'
CONST	ENDS
;	COMDAT ??_C@_05BFFMFGHD@?9jump?$AA@
CONST	SEGMENT
??_C@_05BFFMFGHD@?9jump?$AA@ DB '-jump', 00H		; `string'
CONST	ENDS
;	COMDAT ??_C@_05MDAFLFGO@?$CLjump?$AA@
CONST	SEGMENT
??_C@_05MDAFLFGO@?$CLjump?$AA@ DB '+jump', 00H		; `string'
CONST	ENDS
;	COMDAT ??_C@_04BCFAPKBC@?9use?$AA@
CONST	SEGMENT
??_C@_04BCFAPKBC@?9use?$AA@ DB '-use', 00H		; `string'
CONST	ENDS
;	COMDAT ??_C@_04JNBAAPLC@?$CLuse?$AA@
CONST	SEGMENT
??_C@_04JNBAAPLC@?$CLuse?$AA@ DB '+use', 00H		; `string'
CONST	ENDS
;	COMDAT ??_C@_08NKKOODMP@?9attack2?$AA@
CONST	SEGMENT
??_C@_08NKKOODMP@?9attack2?$AA@ DB '-attack2', 00H	; `string'
CONST	ENDS
;	COMDAT ??_C@_08KJLEJKEF@?$CLattack2?$AA@
CONST	SEGMENT
??_C@_08KJLEJKEF@?$CLattack2?$AA@ DB '+attack2', 00H	; `string'
CONST	ENDS
;	COMDAT ??_C@_07GIMEOOL@?9attack?$AA@
CONST	SEGMENT
??_C@_07GIMEOOL@?9attack?$AA@ DB '-attack', 00H		; `string'
CONST	ENDS
;	COMDAT ??_C@_07MAODEHGM@?$CLattack?$AA@
CONST	SEGMENT
??_C@_07MAODEHGM@?$CLattack?$AA@ DB '+attack', 00H	; `string'
CONST	ENDS
;	COMDAT ??_C@_06PLOIEHCE@?9speed?$AA@
CONST	SEGMENT
??_C@_06PLOIEHCE@?9speed?$AA@ DB '-speed', 00H		; `string'
CONST	ENDS
;	COMDAT ??_C@_06JIDIHCBO@?$CLspeed?$AA@
CONST	SEGMENT
??_C@_06JIDIHCBO@?$CLspeed?$AA@ DB '+speed', 00H	; `string'
CONST	ENDS
;	COMDAT ??_C@_0L@LEKMOGAF@?9moveright?$AA@
CONST	SEGMENT
??_C@_0L@LEKMOGAF@?9moveright?$AA@ DB '-moveright', 00H	; `string'
CONST	ENDS
;	COMDAT ??_C@_0L@FMBJCMEG@?$CLmoveright?$AA@
CONST	SEGMENT
??_C@_0L@FMBJCMEG@?$CLmoveright?$AA@ DB '+moveright', 00H ; `string'
CONST	ENDS
;	COMDAT ??_C@_09ICIDCGOI@?9moveleft?$AA@
CONST	SEGMENT
??_C@_09ICIDCGOI@?9moveleft?$AA@ DB '-moveleft', 00H	; `string'
CONST	ENDS
;	COMDAT ??_C@_09IPJNFGKP@?$CLmoveleft?$AA@
CONST	SEGMENT
??_C@_09IPJNFGKP@?$CLmoveleft?$AA@ DB '+moveleft', 00H	; `string'
CONST	ENDS
;	COMDAT ??_C@_07OBMFNJMJ@?9strafe?$AA@
CONST	SEGMENT
??_C@_07OBMFNJMJ@?9strafe?$AA@ DB '-strafe', 00H	; `string'
CONST	ENDS
;	COMDAT ??_C@_07CHKKNAEO@?$CLstrafe?$AA@
CONST	SEGMENT
??_C@_07CHKKNAEO@?$CLstrafe?$AA@ DB '+strafe', 00H	; `string'
CONST	ENDS
;	COMDAT ??_C@_09KPLABCPP@?9lookdown?$AA@
CONST	SEGMENT
??_C@_09KPLABCPP@?9lookdown?$AA@ DB '-lookdown', 00H	; `string'
CONST	ENDS
;	COMDAT ??_C@_09KCKOGCLI@?$CLlookdown?$AA@
CONST	SEGMENT
??_C@_09KCKOGCLI@?$CLlookdown?$AA@ DB '+lookdown', 00H	; `string'
CONST	ENDS
;	COMDAT ??_C@_07MHFKIPNM@?9lookup?$AA@
CONST	SEGMENT
??_C@_07MHFKIPNM@?9lookup?$AA@ DB '-lookup', 00H	; `string'
CONST	ENDS
;	COMDAT ??_C@_07BDFIGFL@?$CLlookup?$AA@
CONST	SEGMENT
??_C@_07BDFIGFL@?$CLlookup?$AA@ DB '+lookup', 00H	; `string'
CONST	ENDS
;	COMDAT ??_C@_05FJPPDLOK@?9back?$AA@
CONST	SEGMENT
??_C@_05FJPPDLOK@?9back?$AA@ DB '-back', 00H		; `string'
CONST	ENDS
;	COMDAT ??_C@_05IPKGNIPH@?$CLback?$AA@
CONST	SEGMENT
??_C@_05IPKGNIPH@?$CLback?$AA@ DB '+back', 00H		; `string'
CONST	ENDS
;	COMDAT ??_C@_08NJFEAJHL@?9forward?$AA@
CONST	SEGMENT
??_C@_08NJFEAJHL@?9forward?$AA@ DB '-forward', 00H	; `string'
CONST	ENDS
;	COMDAT ??_C@_08KKEOHAPB@?$CLforward?$AA@
CONST	SEGMENT
??_C@_08KKEOHAPB@?$CLforward?$AA@ DB '+forward', 00H	; `string'
CONST	ENDS
;	COMDAT ??_C@_06LFFHCIPL@?9right?$AA@
CONST	SEGMENT
??_C@_06LFFHCIPL@?9right?$AA@ DB '-right', 00H		; `string'
CONST	ENDS
;	COMDAT ??_C@_06NGIHBNMB@?$CLright?$AA@
CONST	SEGMENT
??_C@_06NGIHBNMB@?$CLright?$AA@ DB '+right', 00H	; `string'
CONST	ENDS
;	COMDAT ??_C@_05KCDMNOKJ@?9left?$AA@
CONST	SEGMENT
??_C@_05KCDMNOKJ@?9left?$AA@ DB '-left', 00H		; `string'
CONST	ENDS
;	COMDAT ??_C@_05HEGFDNLE@?$CLleft?$AA@
CONST	SEGMENT
??_C@_05HEGFDNLE@?$CLleft?$AA@ DB '+left', 00H		; `string'
CONST	ENDS
;	COMDAT ??_C@_09HAIHLONB@?9movedown?$AA@
CONST	SEGMENT
??_C@_09HAIHLONB@?9movedown?$AA@ DB '-movedown', 00H	; `string'
CONST	ENDS
;	COMDAT ??_C@_09HNJJMOJG@?$CLmovedown?$AA@
CONST	SEGMENT
??_C@_09HNJJMOJG@?$CLmovedown?$AA@ DB '+movedown', 00H	; `string'
CONST	ENDS
;	COMDAT ??_C@_07OMACAGKI@?9moveup?$AA@
CONST	SEGMENT
??_C@_07OMACAGKI@?9moveup?$AA@ DB '-moveup', 00H	; `string'
CONST	ENDS
;	COMDAT ??_C@_07CKGNAPCP@?$CLmoveup?$AA@
CONST	SEGMENT
??_C@_07CKGNAPCP@?$CLmoveup?$AA@ DB '+moveup', 00H	; `string'
CONST	ENDS
;	COMDAT ??_C@_0CO@JIBCJLJF@Three?5keys?5down?5for?5a?5button?5?8?$CFc@
CONST	SEGMENT
??_C@_0CO@JIBCJLJF@Three?5keys?5down?5for?5a?5button?5?8?$CFc@ DB 'Three '
	DB	'keys down for a button ''%c'' ''%c'' ''%c''!', 0aH, 00H ; `string'
CONST	ENDS
;	COMDAT ??_C@_08KKKAJICN@in_jlook?$AA@
CONST	SEGMENT
??_C@_08KKKAJICN@in_jlook?$AA@ DB 'in_jlook', 00H	; `string'
CONST	ENDS
;	COMDAT ??_C@_08LHKFKIJF@in_mlook?$AA@
CONST	SEGMENT
??_C@_08LHKFKIJF@in_mlook?$AA@ DB 'in_mlook', 00H	; `string'
CONST	ENDS
;	COMDAT ??_C@_08BFGGGCKN@in_graph?$AA@
CONST	SEGMENT
??_C@_08BFGGGCKN@in_graph?$AA@ DB 'in_graph', 00H	; `string'
CONST	ENDS
;	COMDAT xdata$x
xdata$x	SEGMENT
__unwindtable$?CL_CreateMove@@YAXMPAUusercmd_s@@H@Z DD 0ffffffffH
	DD	FLAT:__unwindfunclet$?CL_CreateMove@@YAXMPAUusercmd_s@@H@Z$0
__ehfuncinfo$?CL_CreateMove@@YAXMPAUusercmd_s@@H@Z DD 019930522H
	DD	01H
	DD	FLAT:__unwindtable$?CL_CreateMove@@YAXMPAUusercmd_s@@H@Z
	DD	2 DUP(00H)
	DD	2 DUP(00H)
	DD	00H
	DD	01H
xdata$x	ENDS
; Function compile flags: /Odtp /ZI
; File d:\!diffusion 2020\source code 2022\client-server\client\input.cpp
;	COMDAT ?CL_AdjustAngles@@YAXMAAVVector@@@Z
_TEXT	SEGMENT
tv237 = -92						; size = 4
tv226 = -92						; size = 4
tv305 = -88						; size = 4
tv303 = -88						; size = 4
tv208 = -88						; size = 4
tv188 = -88						; size = 4
tv207 = -84						; size = 4
tv182 = -84						; size = 4
tv144 = -84						; size = 4
tv135 = -84						; size = 4
tv90 = -84						; size = 4
tv79 = -84						; size = 4
_upside_down_pitch$ = -16				; size = 4
_down$ = -12						; size = 4
_up$ = -8						; size = 4
_speed$ = -4						; size = 4
_frametime$ = 8						; size = 4
_viewangles$ = 12					; size = 4
?CL_AdjustAngles@@YAXMAAVVector@@@Z PROC		; CL_AdjustAngles, COMDAT

; 496  : {

	push	ebp
	mov	ebp, esp
	sub	esp, 92					; 0000005cH
	push	ebx
	push	esi
	push	edi

; 497  : 	float	speed;
; 498  : 	float	up, down;
; 499  : 	
; 500  : 	if( in_speed.state & BUTTON_DOWN )

	mov	eax, DWORD PTR ?in_speed@@3Ukbutton_s@@A+8
	and	eax, 1
	je	SHORT $LN2@CL_AdjustA

; 501  : 		speed = frametime * cl_anglespeedkey->value;

	mov	eax, DWORD PTR ?cl_anglespeedkey@@3PAUcvar_s@@A ; cl_anglespeedkey
	movss	xmm0, DWORD PTR _frametime$[ebp]
	mulss	xmm0, DWORD PTR [eax+12]
	movss	DWORD PTR _speed$[ebp], xmm0

; 502  : 	else

	jmp	SHORT $LN3@CL_AdjustA
$LN2@CL_AdjustA:

; 503  : 		speed = frametime;

	movss	xmm0, DWORD PTR _frametime$[ebp]
	movss	DWORD PTR _speed$[ebp], xmm0
$LN3@CL_AdjustA:

; 504  : 
; 505  : /*	if( !( in_strafe.state & BUTTON_DOWN )) // diffusion - used for dash!
; 506  : 	{
; 507  : 		viewangles[YAW] -= speed * cl_yawspeed->value * CL_KeyState( &in_right );
; 508  : 		viewangles[YAW] += speed * cl_yawspeed->value * CL_KeyState( &in_left );
; 509  : 		viewangles[YAW] = anglemod( viewangles[YAW] );
; 510  : 	}
; 511  : */
; 512  : 	if( in_klook.state & BUTTON_DOWN )

	mov	eax, DWORD PTR ?in_klook@@3Ukbutton_s@@A+8
	and	eax, 1
	je	$LN4@CL_AdjustA

; 513  : 	{
; 514  : 		V_StopPitchDrift ();

	call	?V_StopPitchDrift@@YAXXZ		; V_StopPitchDrift

; 515  : 		viewangles[PITCH] -= speed * cl_pitchspeed->value * CL_KeyState( &in_forward );

	mov	ecx, DWORD PTR _viewangles$[ebp]
	call	??BVector@@QAEPAMXZ			; Vector::operator float *
	mov	ecx, 4
	imul	edx, ecx, 0
	add	eax, edx
	mov	DWORD PTR tv79[ebp], eax
	mov	eax, DWORD PTR ?cl_pitchspeed@@3PAUcvar_s@@A ; cl_pitchspeed
	movss	xmm0, DWORD PTR _speed$[ebp]
	mulss	xmm0, DWORD PTR [eax+12]
	push	OFFSET ?in_forward@@3Ukbutton_s@@A	; in_forward
	movss	DWORD PTR tv303[ebp], xmm0
	call	?CL_KeyState@@YAMPAUkbutton_s@@@Z	; CL_KeyState
	add	esp, 4
	fstp	DWORD PTR tv226[ebp]
	movss	xmm0, DWORD PTR tv303[ebp]
	mulss	xmm0, DWORD PTR tv226[ebp]
	mov	ecx, DWORD PTR tv79[ebp]
	movss	xmm1, DWORD PTR [ecx]
	subss	xmm1, xmm0
	mov	edx, DWORD PTR tv79[ebp]
	movss	DWORD PTR [edx], xmm1

; 516  : 		viewangles[PITCH] += speed * cl_pitchspeed->value * CL_KeyState( &in_back );

	mov	ecx, DWORD PTR _viewangles$[ebp]
	call	??BVector@@QAEPAMXZ			; Vector::operator float *
	mov	ecx, 4
	imul	edx, ecx, 0
	add	eax, edx
	mov	DWORD PTR tv90[ebp], eax
	mov	eax, DWORD PTR ?cl_pitchspeed@@3PAUcvar_s@@A ; cl_pitchspeed
	movss	xmm0, DWORD PTR _speed$[ebp]
	mulss	xmm0, DWORD PTR [eax+12]
	push	OFFSET ?in_back@@3Ukbutton_s@@A		; in_back
	movss	DWORD PTR tv305[ebp], xmm0
	call	?CL_KeyState@@YAMPAUkbutton_s@@@Z	; CL_KeyState
	add	esp, 4
	fstp	DWORD PTR tv237[ebp]
	movss	xmm0, DWORD PTR tv305[ebp]
	mulss	xmm0, DWORD PTR tv237[ebp]
	mov	ecx, DWORD PTR tv90[ebp]
	addss	xmm0, DWORD PTR [ecx]
	mov	edx, DWORD PTR tv90[ebp]
	movss	DWORD PTR [edx], xmm0
$LN4@CL_AdjustA:

; 517  : 	}
; 518  : 	
; 519  : 	up = CL_KeyState( &in_lookup );

	push	OFFSET ?in_lookup@@3Ukbutton_s@@A	; in_lookup
	call	?CL_KeyState@@YAMPAUkbutton_s@@@Z	; CL_KeyState
	add	esp, 4
	fstp	DWORD PTR _up$[ebp]

; 520  : 	down = CL_KeyState( &in_lookdown );

	push	OFFSET ?in_lookdown@@3Ukbutton_s@@A	; in_lookdown
	call	?CL_KeyState@@YAMPAUkbutton_s@@@Z	; CL_KeyState
	add	esp, 4
	fstp	DWORD PTR _down$[ebp]

; 521  : 	
; 522  : 	viewangles[PITCH] -= speed * cl_pitchspeed->value * up;

	mov	ecx, DWORD PTR _viewangles$[ebp]
	call	??BVector@@QAEPAMXZ			; Vector::operator float *
	mov	ecx, 4
	imul	edx, ecx, 0
	add	eax, edx
	mov	DWORD PTR tv135[ebp], eax
	mov	eax, DWORD PTR ?cl_pitchspeed@@3PAUcvar_s@@A ; cl_pitchspeed
	movss	xmm0, DWORD PTR _speed$[ebp]
	mulss	xmm0, DWORD PTR [eax+12]
	mulss	xmm0, DWORD PTR _up$[ebp]
	mov	ecx, DWORD PTR tv135[ebp]
	movss	xmm1, DWORD PTR [ecx]
	subss	xmm1, xmm0
	mov	edx, DWORD PTR tv135[ebp]
	movss	DWORD PTR [edx], xmm1

; 523  : 	viewangles[PITCH] += speed * cl_pitchspeed->value * down;

	mov	ecx, DWORD PTR _viewangles$[ebp]
	call	??BVector@@QAEPAMXZ			; Vector::operator float *
	mov	ecx, 4
	imul	edx, ecx, 0
	add	eax, edx
	mov	DWORD PTR tv144[ebp], eax
	mov	eax, DWORD PTR ?cl_pitchspeed@@3PAUcvar_s@@A ; cl_pitchspeed
	movss	xmm0, DWORD PTR _speed$[ebp]
	mulss	xmm0, DWORD PTR [eax+12]
	mulss	xmm0, DWORD PTR _down$[ebp]
	mov	ecx, DWORD PTR tv144[ebp]
	addss	xmm0, DWORD PTR [ecx]
	mov	edx, DWORD PTR tv144[ebp]
	movss	DWORD PTR [edx], xmm0

; 524  : 
; 525  : 	if( up || down )

	movss	xmm0, DWORD PTR _up$[ebp]
	ucomiss	xmm0, DWORD PTR __real@00000000
	lahf
	test	ah, 68					; 00000044H
	jp	SHORT $LN6@CL_AdjustA
	movss	xmm0, DWORD PTR _down$[ebp]
	ucomiss	xmm0, DWORD PTR __real@00000000
	lahf
	test	ah, 68					; 00000044H
	jnp	SHORT $LN5@CL_AdjustA
$LN6@CL_AdjustA:

; 526  : 		V_StopPitchDrift ();

	call	?V_StopPitchDrift@@YAXXZ		; V_StopPitchDrift
$LN5@CL_AdjustA:

; 527  : 
; 528  : 	int upside_down_pitch = 0;

	mov	DWORD PTR _upside_down_pitch$[ebp], 0

; 529  : 	if( gEngfuncs.GetLocalPlayer()->curstate.effects & EF_UPSIDEDOWN )

	call	DWORD PTR ?gEngfuncs@@3Ucl_enginefuncs_s@@A+204
	mov	eax, DWORD PTR [eax+748]
	and	eax, 4194304				; 00400000H
	je	SHORT $LN7@CL_AdjustA

; 530  : 		upside_down_pitch = 180;

	mov	DWORD PTR _upside_down_pitch$[ebp], 180	; 000000b4H
$LN7@CL_AdjustA:

; 531  : 
; 532  : 	viewangles[PITCH] = bound( -(cl_pitchup->value + upside_down_pitch), viewangles[PITCH], cl_pitchdown->value - upside_down_pitch );

	mov	ecx, DWORD PTR _viewangles$[ebp]
	call	??BVector@@QAEPAMXZ			; Vector::operator float *
	mov	ecx, 4
	imul	edx, ecx, 0
	cvtsi2ss xmm0, DWORD PTR _upside_down_pitch$[ebp]
	mov	ecx, DWORD PTR ?cl_pitchup@@3PAUcvar_s@@A ; cl_pitchup
	addss	xmm0, DWORD PTR [ecx+12]
	xorps	xmm0, DWORD PTR __xmm@80000000800000008000000080000000
	movss	xmm1, DWORD PTR [eax+edx]
	comiss	xmm1, xmm0
	jb	SHORT $LN11@CL_AdjustA
	mov	ecx, DWORD PTR _viewangles$[ebp]
	call	??BVector@@QAEPAMXZ			; Vector::operator float *
	mov	edx, 4
	imul	ecx, edx, 0
	cvtsi2ss xmm0, DWORD PTR _upside_down_pitch$[ebp]
	mov	edx, DWORD PTR ?cl_pitchdown@@3PAUcvar_s@@A ; cl_pitchdown
	movss	xmm1, DWORD PTR [edx+12]
	subss	xmm1, xmm0
	comiss	xmm1, DWORD PTR [eax+ecx]
	jbe	SHORT $LN9@CL_AdjustA
	mov	ecx, DWORD PTR _viewangles$[ebp]
	call	??BVector@@QAEPAMXZ			; Vector::operator float *
	mov	ecx, 4
	imul	edx, ecx, 0
	movss	xmm0, DWORD PTR [eax+edx]
	movss	DWORD PTR tv182[ebp], xmm0
	jmp	SHORT $LN10@CL_AdjustA
$LN9@CL_AdjustA:
	cvtsi2ss xmm0, DWORD PTR _upside_down_pitch$[ebp]
	mov	eax, DWORD PTR ?cl_pitchdown@@3PAUcvar_s@@A ; cl_pitchdown
	movss	xmm1, DWORD PTR [eax+12]
	subss	xmm1, xmm0
	movss	DWORD PTR tv182[ebp], xmm1
$LN10@CL_AdjustA:
	movss	xmm0, DWORD PTR tv182[ebp]
	movss	DWORD PTR tv188[ebp], xmm0
	jmp	SHORT $LN12@CL_AdjustA
$LN11@CL_AdjustA:
	cvtsi2ss xmm0, DWORD PTR _upside_down_pitch$[ebp]
	mov	ecx, DWORD PTR ?cl_pitchup@@3PAUcvar_s@@A ; cl_pitchup
	addss	xmm0, DWORD PTR [ecx+12]
	xorps	xmm0, DWORD PTR __xmm@80000000800000008000000080000000
	movss	DWORD PTR tv188[ebp], xmm0
$LN12@CL_AdjustA:
	mov	ecx, DWORD PTR _viewangles$[ebp]
	call	??BVector@@QAEPAMXZ			; Vector::operator float *
	mov	edx, 4
	imul	ecx, edx, 0
	movss	xmm0, DWORD PTR tv188[ebp]
	movss	DWORD PTR [eax+ecx], xmm0

; 533  : 	viewangles[ROLL] = bound( -50, viewangles[ROLL], 50 );

	mov	ecx, DWORD PTR _viewangles$[ebp]
	call	??BVector@@QAEPAMXZ			; Vector::operator float *
	mov	ecx, 4
	shl	ecx, 1
	movss	xmm0, DWORD PTR [eax+ecx]
	comiss	xmm0, DWORD PTR __real@c2480000
	jb	SHORT $LN15@CL_AdjustA
	mov	ecx, DWORD PTR _viewangles$[ebp]
	call	??BVector@@QAEPAMXZ			; Vector::operator float *
	mov	edx, 4
	shl	edx, 1
	movss	xmm0, DWORD PTR __real@42480000
	comiss	xmm0, DWORD PTR [eax+edx]
	jbe	SHORT $LN13@CL_AdjustA
	mov	ecx, DWORD PTR _viewangles$[ebp]
	call	??BVector@@QAEPAMXZ			; Vector::operator float *
	mov	ecx, 4
	shl	ecx, 1
	movss	xmm0, DWORD PTR [eax+ecx]
	movss	DWORD PTR tv207[ebp], xmm0
	jmp	SHORT $LN14@CL_AdjustA
$LN13@CL_AdjustA:
	movss	xmm0, DWORD PTR __real@42480000
	movss	DWORD PTR tv207[ebp], xmm0
$LN14@CL_AdjustA:
	movss	xmm0, DWORD PTR tv207[ebp]
	movss	DWORD PTR tv208[ebp], xmm0
	jmp	SHORT $LN16@CL_AdjustA
$LN15@CL_AdjustA:
	movss	xmm0, DWORD PTR __real@c2480000
	movss	DWORD PTR tv208[ebp], xmm0
$LN16@CL_AdjustA:
	mov	ecx, DWORD PTR _viewangles$[ebp]
	call	??BVector@@QAEPAMXZ			; Vector::operator float *
	mov	edx, 4
	shl	edx, 1
	movss	xmm0, DWORD PTR tv208[ebp]
	movss	DWORD PTR [eax+edx], xmm0

; 534  : }

	pop	edi
	pop	esi
	pop	ebx
	mov	esp, ebp
	pop	ebp
	ret	0
?CL_AdjustAngles@@YAXMAAVVector@@@Z ENDP		; CL_AdjustAngles
_TEXT	ENDS
; Function compile flags: /Odtp /ZI
; File d:\!diffusion 2020\source code 2022\client-server\client\input.cpp
;	COMDAT ?CL_KeyState@@YAMPAUkbutton_s@@@Z
_TEXT	SEGMENT
tv81 = -84						; size = 4
tv77 = -84						; size = 4
tv73 = -84						; size = 4
_down$ = -16						; size = 4
_impulseup$ = -12					; size = 4
_impulsedown$ = -8					; size = 4
_val$ = -4						; size = 4
_key$ = 8						; size = 4
?CL_KeyState@@YAMPAUkbutton_s@@@Z PROC			; CL_KeyState, COMDAT

; 442  : {

	push	ebp
	mov	ebp, esp
	sub	esp, 84					; 00000054H
	push	ebx
	push	esi
	push	edi

; 443  : 	float	val = 0.0f;

	xorps	xmm0, xmm0
	movss	DWORD PTR _val$[ebp], xmm0

; 444  : 	int	impulsedown, impulseup, down;
; 445  : 	
; 446  : 	impulsedown = key->state & IMPULSE_DOWN;

	mov	eax, DWORD PTR _key$[ebp]
	mov	ecx, DWORD PTR [eax+8]
	and	ecx, 2
	mov	DWORD PTR _impulsedown$[ebp], ecx

; 447  : 	impulseup	= key->state & IMPULSE_UP;

	mov	eax, DWORD PTR _key$[ebp]
	mov	ecx, DWORD PTR [eax+8]
	and	ecx, 4
	mov	DWORD PTR _impulseup$[ebp], ecx

; 448  : 	down = key->state & BUTTON_DOWN;

	mov	eax, DWORD PTR _key$[ebp]
	mov	ecx, DWORD PTR [eax+8]
	and	ecx, 1
	mov	DWORD PTR _down$[ebp], ecx

; 449  : 	
; 450  : 	if( impulsedown && !impulseup )

	cmp	DWORD PTR _impulsedown$[ebp], 0
	je	SHORT $LN2@CL_KeyStat
	cmp	DWORD PTR _impulseup$[ebp], 0
	jne	SHORT $LN2@CL_KeyStat

; 451  : 	{
; 452  : 		// pressed and held this frame?
; 453  : 		val = down ? 0.5f : 0.0f;

	cmp	DWORD PTR _down$[ebp], 0
	je	SHORT $LN9@CL_KeyStat
	movss	xmm0, DWORD PTR __real@3f000000
	movss	DWORD PTR tv73[ebp], xmm0
	jmp	SHORT $LN10@CL_KeyStat
$LN9@CL_KeyStat:
	xorps	xmm0, xmm0
	movss	DWORD PTR tv73[ebp], xmm0
$LN10@CL_KeyStat:
	movss	xmm0, DWORD PTR tv73[ebp]
	movss	DWORD PTR _val$[ebp], xmm0
$LN2@CL_KeyStat:

; 454  : 	}
; 455  : 
; 456  : 	if( impulseup && !impulsedown )

	cmp	DWORD PTR _impulseup$[ebp], 0
	je	SHORT $LN3@CL_KeyStat
	cmp	DWORD PTR _impulsedown$[ebp], 0
	jne	SHORT $LN3@CL_KeyStat

; 457  : 	{
; 458  : 		// released this frame?
; 459  : 		val = down ? 0.0f : 0.0f;

	cmp	DWORD PTR _down$[ebp], 0
	je	SHORT $LN11@CL_KeyStat
	xorps	xmm0, xmm0
	movss	DWORD PTR tv77[ebp], xmm0
	jmp	SHORT $LN12@CL_KeyStat
$LN11@CL_KeyStat:
	xorps	xmm0, xmm0
	movss	DWORD PTR tv77[ebp], xmm0
$LN12@CL_KeyStat:
	movss	xmm0, DWORD PTR tv77[ebp]
	movss	DWORD PTR _val$[ebp], xmm0
$LN3@CL_KeyStat:

; 460  : 	}
; 461  : 
; 462  : 	if( !impulsedown && !impulseup )

	cmp	DWORD PTR _impulsedown$[ebp], 0
	jne	SHORT $LN4@CL_KeyStat
	cmp	DWORD PTR _impulseup$[ebp], 0
	jne	SHORT $LN4@CL_KeyStat

; 463  : 	{
; 464  : 		// held the entire frame?
; 465  : 		val = down ? 1.0f : 0.0f;

	cmp	DWORD PTR _down$[ebp], 0
	je	SHORT $LN13@CL_KeyStat
	movss	xmm0, DWORD PTR __real@3f800000
	movss	DWORD PTR tv81[ebp], xmm0
	jmp	SHORT $LN14@CL_KeyStat
$LN13@CL_KeyStat:
	xorps	xmm0, xmm0
	movss	DWORD PTR tv81[ebp], xmm0
$LN14@CL_KeyStat:
	movss	xmm0, DWORD PTR tv81[ebp]
	movss	DWORD PTR _val$[ebp], xmm0
$LN4@CL_KeyStat:

; 466  : 	}
; 467  : 
; 468  : 	if( impulsedown && impulseup )

	cmp	DWORD PTR _impulsedown$[ebp], 0
	je	SHORT $LN7@CL_KeyStat
	cmp	DWORD PTR _impulseup$[ebp], 0
	je	SHORT $LN7@CL_KeyStat

; 469  : 	{
; 470  : 		if( down )

	cmp	DWORD PTR _down$[ebp], 0
	je	SHORT $LN6@CL_KeyStat

; 471  : 		{
; 472  : 			// released and re-pressed this frame
; 473  : 			val = 0.75f;	

	movss	xmm0, DWORD PTR __real@3f400000
	movss	DWORD PTR _val$[ebp], xmm0

; 474  : 		}
; 475  : 		else

	jmp	SHORT $LN7@CL_KeyStat
$LN6@CL_KeyStat:

; 476  : 		{
; 477  : 			// pressed and released this frame
; 478  : 			val = 0.25f;	

	movss	xmm0, DWORD PTR __real@3e800000
	movss	DWORD PTR _val$[ebp], xmm0
$LN7@CL_KeyStat:

; 479  : 		}
; 480  : 	}
; 481  : 
; 482  : 	// clear impulses
; 483  : 	key->state &= BUTTON_DOWN;		

	mov	eax, DWORD PTR _key$[ebp]
	mov	ecx, DWORD PTR [eax+8]
	and	ecx, 1
	mov	edx, DWORD PTR _key$[ebp]
	mov	DWORD PTR [edx+8], ecx

; 484  : 
; 485  : 	return val;

	fld	DWORD PTR _val$[ebp]

; 486  : }

	pop	edi
	pop	esi
	pop	ebx
	mov	esp, ebp
	pop	ebp
	ret	0
?CL_KeyState@@YAMPAUkbutton_s@@@Z ENDP			; CL_KeyState
_TEXT	ENDS
; Function compile flags: /Odtp /ZI
; File d:\!diffusion 2020\source code 2022\client-server\client\input.cpp
;	COMDAT ?IN_MLookUp@@YAXXZ
_TEXT	SEGMENT
?IN_MLookUp@@YAXXZ PROC					; IN_MLookUp, COMDAT

; 422  : {

	push	ebp
	mov	ebp, esp
	sub	esp, 64					; 00000040H
	push	ebx
	push	esi
	push	edi

; 423  : 	KeyUp( &in_mlook );

	push	OFFSET ?in_mlook@@3Ukbutton_s@@A	; in_mlook
	call	?KeyUp@@YAXPAUkbutton_s@@@Z		; KeyUp
	add	esp, 4

; 424  : 
; 425  : //	if(!( in_mlook.state & 1 ) && lookspring->value )
; 426  : //	{
; 427  : //		V_StartPitchDrift();
; 428  : //	}
; 429  : }

	pop	edi
	pop	esi
	pop	ebx
	mov	esp, ebp
	pop	ebp
	ret	0
?IN_MLookUp@@YAXXZ ENDP					; IN_MLookUp
_TEXT	ENDS
; Function compile flags: /Odtp /ZI
; File d:\!diffusion 2020\source code 2022\client-server\client\input.cpp
;	COMDAT ?IN_Impulse@@YAXXZ
_TEXT	SEGMENT
?IN_Impulse@@YAXXZ PROC					; IN_Impulse, COMDAT

; 419  : void IN_Impulse( void )	{ in_impulse = Q_atoi( CMD_ARGV( 1 )); }

	push	ebp
	mov	ebp, esp
	sub	esp, 64					; 00000040H
	push	ebx
	push	esi
	push	edi
	push	1
	call	DWORD PTR ?gEngfuncs@@3Ucl_enginefuncs_s@@A+156
	add	esp, 4
	push	eax
	call	?Q_atoi@@YAHPBD@Z			; Q_atoi
	add	esp, 4
	mov	DWORD PTR ?in_impulse@@3HA, eax		; in_impulse
	pop	edi
	pop	esi
	pop	ebx
	mov	esp, ebp
	pop	ebp
	ret	0
?IN_Impulse@@YAXXZ ENDP					; IN_Impulse
_TEXT	ENDS
; Function compile flags: /Odtp /ZI
; File d:\!diffusion 2020\source code 2022\client-server\client\input.cpp
;	COMDAT ?IN_Cancel@@YAXXZ
_TEXT	SEGMENT
?IN_Cancel@@YAXXZ PROC					; IN_Cancel, COMDAT

; 418  : void IN_Cancel( void )	{ in_cancel = 1; }	// Special handling

	push	ebp
	mov	ebp, esp
	sub	esp, 64					; 00000040H
	push	ebx
	push	esi
	push	edi
	mov	DWORD PTR ?in_cancel@@3HA, 1		; in_cancel
	pop	edi
	pop	esi
	pop	ebx
	mov	esp, ebp
	pop	ebp
	ret	0
?IN_Cancel@@YAXXZ ENDP					; IN_Cancel
_TEXT	ENDS
; Function compile flags: /Odtp /ZI
; File d:\!diffusion 2020\source code 2022\client-server\client\input.cpp
;	COMDAT ?IN_ScoreUp@@YAXXZ
_TEXT	SEGMENT
?IN_ScoreUp@@YAXXZ PROC					; IN_ScoreUp, COMDAT

; 417  : void IN_ScoreUp(void)	{ KeyUp(&in_score); }

	push	ebp
	mov	ebp, esp
	sub	esp, 64					; 00000040H
	push	ebx
	push	esi
	push	edi
	push	OFFSET ?in_score@@3Ukbutton_s@@A	; in_score
	call	?KeyUp@@YAXPAUkbutton_s@@@Z		; KeyUp
	add	esp, 4
	pop	edi
	pop	esi
	pop	ebx
	mov	esp, ebp
	pop	ebp
	ret	0
?IN_ScoreUp@@YAXXZ ENDP					; IN_ScoreUp
_TEXT	ENDS
; Function compile flags: /Odtp /ZI
; File d:\!diffusion 2020\source code 2022\client-server\client\input.cpp
;	COMDAT ?IN_ScoreDown@@YAXXZ
_TEXT	SEGMENT
?IN_ScoreDown@@YAXXZ PROC				; IN_ScoreDown, COMDAT

; 416  : void IN_ScoreDown(void)	{ KeyDown(&in_score); }

	push	ebp
	mov	ebp, esp
	sub	esp, 64					; 00000040H
	push	ebx
	push	esi
	push	edi
	push	OFFSET ?in_score@@3Ukbutton_s@@A	; in_score
	call	?KeyDown@@YAXPAUkbutton_s@@@Z		; KeyDown
	add	esp, 4
	pop	edi
	pop	esi
	pop	ebx
	mov	esp, ebp
	pop	ebp
	ret	0
?IN_ScoreDown@@YAXXZ ENDP				; IN_ScoreDown
_TEXT	ENDS
; Function compile flags: /Odtp /ZI
; File d:\!diffusion 2020\source code 2022\client-server\client\input.cpp
;	COMDAT ?IN_AttackUp@@YAXXZ
_TEXT	SEGMENT
?IN_AttackUp@@YAXXZ PROC				; IN_AttackUp, COMDAT

; 415  : void IN_AttackUp( void )	{ KeyUp( &in_attack ); in_cancel = 0; }

	push	ebp
	mov	ebp, esp
	sub	esp, 64					; 00000040H
	push	ebx
	push	esi
	push	edi
	push	OFFSET ?in_attack@@3Ukbutton_s@@A	; in_attack
	call	?KeyUp@@YAXPAUkbutton_s@@@Z		; KeyUp
	add	esp, 4
	mov	DWORD PTR ?in_cancel@@3HA, 0		; in_cancel
	pop	edi
	pop	esi
	pop	ebx
	mov	esp, ebp
	pop	ebp
	ret	0
?IN_AttackUp@@YAXXZ ENDP				; IN_AttackUp
_TEXT	ENDS
; Function compile flags: /Odtp /ZI
; File d:\!diffusion 2020\source code 2022\client-server\client\input.cpp
;	COMDAT ?IN_AttackDown@@YAXXZ
_TEXT	SEGMENT
?IN_AttackDown@@YAXXZ PROC				; IN_AttackDown, COMDAT

; 414  : void IN_AttackDown( void )	{ KeyDown( &in_attack ); }

	push	ebp
	mov	ebp, esp
	sub	esp, 64					; 00000040H
	push	ebx
	push	esi
	push	edi
	push	OFFSET ?in_attack@@3Ukbutton_s@@A	; in_attack
	call	?KeyDown@@YAXPAUkbutton_s@@@Z		; KeyDown
	add	esp, 4
	pop	edi
	pop	esi
	pop	ebx
	mov	esp, ebp
	pop	ebp
	ret	0
?IN_AttackDown@@YAXXZ ENDP				; IN_AttackDown
_TEXT	ENDS
; Function compile flags: /Odtp /ZI
; File d:\!diffusion 2020\source code 2022\client-server\client\input.cpp
;	COMDAT ?IN_GraphUp@@YAXXZ
_TEXT	SEGMENT
?IN_GraphUp@@YAXXZ PROC					; IN_GraphUp, COMDAT

; 413  : void IN_GraphUp( void )	{ KeyUp( &in_graph ); }

	push	ebp
	mov	ebp, esp
	sub	esp, 64					; 00000040H
	push	ebx
	push	esi
	push	edi
	push	OFFSET ?in_graph@@3Ukbutton_s@@A	; in_graph
	call	?KeyUp@@YAXPAUkbutton_s@@@Z		; KeyUp
	add	esp, 4
	pop	edi
	pop	esi
	pop	ebx
	mov	esp, ebp
	pop	ebp
	ret	0
?IN_GraphUp@@YAXXZ ENDP					; IN_GraphUp
_TEXT	ENDS
; Function compile flags: /Odtp /ZI
; File d:\!diffusion 2020\source code 2022\client-server\client\input.cpp
;	COMDAT ?IN_GraphDown@@YAXXZ
_TEXT	SEGMENT
?IN_GraphDown@@YAXXZ PROC				; IN_GraphDown, COMDAT

; 412  : void IN_GraphDown( void )	{ KeyDown( &in_graph ); }

	push	ebp
	mov	ebp, esp
	sub	esp, 64					; 00000040H
	push	ebx
	push	esi
	push	edi
	push	OFFSET ?in_graph@@3Ukbutton_s@@A	; in_graph
	call	?KeyDown@@YAXPAUkbutton_s@@@Z		; KeyDown
	add	esp, 4
	pop	edi
	pop	esi
	pop	ebx
	mov	esp, ebp
	pop	ebp
	ret	0
?IN_GraphDown@@YAXXZ ENDP				; IN_GraphDown
_TEXT	ENDS
; Function compile flags: /Odtp /ZI
; File d:\!diffusion 2020\source code 2022\client-server\client\input.cpp
;	COMDAT ?IN_Alt1Up@@YAXXZ
_TEXT	SEGMENT
?IN_Alt1Up@@YAXXZ PROC					; IN_Alt1Up, COMDAT

; 411  : void IN_Alt1Up( void )	{ KeyUp( &in_alt1 ); }

	push	ebp
	mov	ebp, esp
	sub	esp, 64					; 00000040H
	push	ebx
	push	esi
	push	edi
	push	OFFSET ?in_alt1@@3Ukbutton_s@@A		; in_alt1
	call	?KeyUp@@YAXPAUkbutton_s@@@Z		; KeyUp
	add	esp, 4
	pop	edi
	pop	esi
	pop	ebx
	mov	esp, ebp
	pop	ebp
	ret	0
?IN_Alt1Up@@YAXXZ ENDP					; IN_Alt1Up
_TEXT	ENDS
; Function compile flags: /Odtp /ZI
; File d:\!diffusion 2020\source code 2022\client-server\client\input.cpp
;	COMDAT ?IN_Alt1Down@@YAXXZ
_TEXT	SEGMENT
?IN_Alt1Down@@YAXXZ PROC				; IN_Alt1Down, COMDAT

; 410  : void IN_Alt1Down( void )	{ KeyDown( &in_alt1 ); }

	push	ebp
	mov	ebp, esp
	sub	esp, 64					; 00000040H
	push	ebx
	push	esi
	push	edi
	push	OFFSET ?in_alt1@@3Ukbutton_s@@A		; in_alt1
	call	?KeyDown@@YAXPAUkbutton_s@@@Z		; KeyDown
	add	esp, 4
	pop	edi
	pop	esi
	pop	ebx
	mov	esp, ebp
	pop	ebp
	ret	0
?IN_Alt1Down@@YAXXZ ENDP				; IN_Alt1Down
_TEXT	ENDS
; Function compile flags: /Odtp /ZI
; File d:\!diffusion 2020\source code 2022\client-server\client\input.cpp
;	COMDAT ?IN_ReloadUp@@YAXXZ
_TEXT	SEGMENT
?IN_ReloadUp@@YAXXZ PROC				; IN_ReloadUp, COMDAT

; 409  : void IN_ReloadUp( void )	{ KeyUp( &in_reload ); }

	push	ebp
	mov	ebp, esp
	sub	esp, 64					; 00000040H
	push	ebx
	push	esi
	push	edi
	push	OFFSET ?in_reload@@3Ukbutton_s@@A	; in_reload
	call	?KeyUp@@YAXPAUkbutton_s@@@Z		; KeyUp
	add	esp, 4
	pop	edi
	pop	esi
	pop	ebx
	mov	esp, ebp
	pop	ebp
	ret	0
?IN_ReloadUp@@YAXXZ ENDP				; IN_ReloadUp
_TEXT	ENDS
; Function compile flags: /Odtp /ZI
; File d:\!diffusion 2020\source code 2022\client-server\client\input.cpp
;	COMDAT ?IN_ReloadDown@@YAXXZ
_TEXT	SEGMENT
?IN_ReloadDown@@YAXXZ PROC				; IN_ReloadDown, COMDAT

; 408  : void IN_ReloadDown( void )	{ KeyDown( &in_reload ); }

	push	ebp
	mov	ebp, esp
	sub	esp, 64					; 00000040H
	push	ebx
	push	esi
	push	edi
	push	OFFSET ?in_reload@@3Ukbutton_s@@A	; in_reload
	call	?KeyDown@@YAXPAUkbutton_s@@@Z		; KeyDown
	add	esp, 4
	pop	edi
	pop	esi
	pop	ebx
	mov	esp, ebp
	pop	ebp
	ret	0
?IN_ReloadDown@@YAXXZ ENDP				; IN_ReloadDown
_TEXT	ENDS
; Function compile flags: /Odtp /ZI
; File d:\!diffusion 2020\source code 2022\client-server\client\input.cpp
;	COMDAT ?IN_DuckToggle@@YAXXZ
_TEXT	SEGMENT
tv66 = -68						; size = 4
?IN_DuckToggle@@YAXXZ PROC				; IN_DuckToggle, COMDAT

; 407  : void IN_DuckToggle( void ) { g_bDuckToggled = !g_bDuckToggled; }

	push	ebp
	mov	ebp, esp
	sub	esp, 68					; 00000044H
	push	ebx
	push	esi
	push	edi
	movzx	eax, BYTE PTR ?g_bDuckToggled@@3_NA	; g_bDuckToggled
	test	eax, eax
	jne	SHORT $LN3@IN_DuckTog
	mov	DWORD PTR tv66[ebp], 1
	jmp	SHORT $LN4@IN_DuckTog
$LN3@IN_DuckTog:
	mov	DWORD PTR tv66[ebp], 0
$LN4@IN_DuckTog:
	mov	cl, BYTE PTR tv66[ebp]
	mov	BYTE PTR ?g_bDuckToggled@@3_NA, cl	; g_bDuckToggled
	pop	edi
	pop	esi
	pop	ebx
	mov	esp, ebp
	pop	ebp
	ret	0
?IN_DuckToggle@@YAXXZ ENDP				; IN_DuckToggle
_TEXT	ENDS
; Function compile flags: /Odtp /ZI
; File d:\!diffusion 2020\source code 2022\client-server\client\input.cpp
;	COMDAT ?IN_DuckUp@@YAXXZ
_TEXT	SEGMENT
?IN_DuckUp@@YAXXZ PROC					; IN_DuckUp, COMDAT

; 406  : void IN_DuckUp( void )	{ KeyUp( &in_duck ); }

	push	ebp
	mov	ebp, esp
	sub	esp, 64					; 00000040H
	push	ebx
	push	esi
	push	edi
	push	OFFSET ?in_duck@@3Ukbutton_s@@A		; in_duck
	call	?KeyUp@@YAXPAUkbutton_s@@@Z		; KeyUp
	add	esp, 4
	pop	edi
	pop	esi
	pop	ebx
	mov	esp, ebp
	pop	ebp
	ret	0
?IN_DuckUp@@YAXXZ ENDP					; IN_DuckUp
_TEXT	ENDS
; Function compile flags: /Odtp /ZI
; File d:\!diffusion 2020\source code 2022\client-server\client\input.cpp
;	COMDAT ?IN_DuckDown@@YAXXZ
_TEXT	SEGMENT
?IN_DuckDown@@YAXXZ PROC				; IN_DuckDown, COMDAT

; 405  : void IN_DuckDown( void )	{ KeyDown( &in_duck ); }

	push	ebp
	mov	ebp, esp
	sub	esp, 64					; 00000040H
	push	ebx
	push	esi
	push	edi
	push	OFFSET ?in_duck@@3Ukbutton_s@@A		; in_duck
	call	?KeyDown@@YAXPAUkbutton_s@@@Z		; KeyDown
	add	esp, 4
	pop	edi
	pop	esi
	pop	ebx
	mov	esp, ebp
	pop	ebp
	ret	0
?IN_DuckDown@@YAXXZ ENDP				; IN_DuckDown
_TEXT	ENDS
; Function compile flags: /Odtp /ZI
; File d:\!diffusion 2020\source code 2022\client-server\client\input.cpp
;	COMDAT ?IN_JumpUp@@YAXXZ
_TEXT	SEGMENT
?IN_JumpUp@@YAXXZ PROC					; IN_JumpUp, COMDAT

; 404  : void IN_JumpUp( void )	{ KeyUp( &in_jump ); }

	push	ebp
	mov	ebp, esp
	sub	esp, 64					; 00000040H
	push	ebx
	push	esi
	push	edi
	push	OFFSET ?in_jump@@3Ukbutton_s@@A		; in_jump
	call	?KeyUp@@YAXPAUkbutton_s@@@Z		; KeyUp
	add	esp, 4
	pop	edi
	pop	esi
	pop	ebx
	mov	esp, ebp
	pop	ebp
	ret	0
?IN_JumpUp@@YAXXZ ENDP					; IN_JumpUp
_TEXT	ENDS
; Function compile flags: /Odtp /ZI
; File d:\!diffusion 2020\source code 2022\client-server\client\input.cpp
;	COMDAT ?IN_JumpDown@@YAXXZ
_TEXT	SEGMENT
?IN_JumpDown@@YAXXZ PROC				; IN_JumpDown, COMDAT

; 403  : void IN_JumpDown( void )	{ KeyDown( &in_jump ); }

	push	ebp
	mov	ebp, esp
	sub	esp, 64					; 00000040H
	push	ebx
	push	esi
	push	edi
	push	OFFSET ?in_jump@@3Ukbutton_s@@A		; in_jump
	call	?KeyDown@@YAXPAUkbutton_s@@@Z		; KeyDown
	add	esp, 4
	pop	edi
	pop	esi
	pop	ebx
	mov	esp, ebp
	pop	ebp
	ret	0
?IN_JumpDown@@YAXXZ ENDP				; IN_JumpDown
_TEXT	ENDS
; Function compile flags: /Odtp /ZI
; File d:\!diffusion 2020\source code 2022\client-server\client\input.cpp
;	COMDAT ?IN_UseUp@@YAXXZ
_TEXT	SEGMENT
?IN_UseUp@@YAXXZ PROC					; IN_UseUp, COMDAT

; 402  : void IN_UseUp( void )	{ KeyUp( &in_use ); }

	push	ebp
	mov	ebp, esp
	sub	esp, 64					; 00000040H
	push	ebx
	push	esi
	push	edi
	push	OFFSET ?in_use@@3Ukbutton_s@@A		; in_use
	call	?KeyUp@@YAXPAUkbutton_s@@@Z		; KeyUp
	add	esp, 4
	pop	edi
	pop	esi
	pop	ebx
	mov	esp, ebp
	pop	ebp
	ret	0
?IN_UseUp@@YAXXZ ENDP					; IN_UseUp
_TEXT	ENDS
; Function compile flags: /Odtp /ZI
; File d:\!diffusion 2020\source code 2022\client-server\client\input.cpp
;	COMDAT ?IN_UseDown@@YAXXZ
_TEXT	SEGMENT
?IN_UseDown@@YAXXZ PROC					; IN_UseDown, COMDAT

; 401  : void IN_UseDown( void )	{ KeyDown( &in_use ); }

	push	ebp
	mov	ebp, esp
	sub	esp, 64					; 00000040H
	push	ebx
	push	esi
	push	edi
	push	OFFSET ?in_use@@3Ukbutton_s@@A		; in_use
	call	?KeyDown@@YAXPAUkbutton_s@@@Z		; KeyDown
	add	esp, 4
	pop	edi
	pop	esi
	pop	ebx
	mov	esp, ebp
	pop	ebp
	ret	0
?IN_UseDown@@YAXXZ ENDP					; IN_UseDown
_TEXT	ENDS
; Function compile flags: /Odtp /ZI
; File d:\!diffusion 2020\source code 2022\client-server\client\input.cpp
;	COMDAT ?IN_Attack2Up@@YAXXZ
_TEXT	SEGMENT
?IN_Attack2Up@@YAXXZ PROC				; IN_Attack2Up, COMDAT

; 400  : void IN_Attack2Up( void )	{ KeyUp( &in_attack2 ); }

	push	ebp
	mov	ebp, esp
	sub	esp, 64					; 00000040H
	push	ebx
	push	esi
	push	edi
	push	OFFSET ?in_attack2@@3Ukbutton_s@@A	; in_attack2
	call	?KeyUp@@YAXPAUkbutton_s@@@Z		; KeyUp
	add	esp, 4
	pop	edi
	pop	esi
	pop	ebx
	mov	esp, ebp
	pop	ebp
	ret	0
?IN_Attack2Up@@YAXXZ ENDP				; IN_Attack2Up
_TEXT	ENDS
; Function compile flags: /Odtp /ZI
; File d:\!diffusion 2020\source code 2022\client-server\client\input.cpp
;	COMDAT ?IN_Attack2Down@@YAXXZ
_TEXT	SEGMENT
?IN_Attack2Down@@YAXXZ PROC				; IN_Attack2Down, COMDAT

; 399  : void IN_Attack2Down( void )	{ KeyDown( &in_attack2 ); }

	push	ebp
	mov	ebp, esp
	sub	esp, 64					; 00000040H
	push	ebx
	push	esi
	push	edi
	push	OFFSET ?in_attack2@@3Ukbutton_s@@A	; in_attack2
	call	?KeyDown@@YAXPAUkbutton_s@@@Z		; KeyDown
	add	esp, 4
	pop	edi
	pop	esi
	pop	ebx
	mov	esp, ebp
	pop	ebp
	ret	0
?IN_Attack2Down@@YAXXZ ENDP				; IN_Attack2Down
_TEXT	ENDS
; Function compile flags: /Odtp /ZI
; File d:\!diffusion 2020\source code 2022\client-server\client\input.cpp
;	COMDAT ?IN_StrafeUp@@YAXXZ
_TEXT	SEGMENT
?IN_StrafeUp@@YAXXZ PROC				; IN_StrafeUp, COMDAT

; 398  : void IN_StrafeUp( void )	{ KeyUp( &in_strafe ); }

	push	ebp
	mov	ebp, esp
	sub	esp, 64					; 00000040H
	push	ebx
	push	esi
	push	edi
	push	OFFSET ?in_strafe@@3Ukbutton_s@@A	; in_strafe
	call	?KeyUp@@YAXPAUkbutton_s@@@Z		; KeyUp
	add	esp, 4
	pop	edi
	pop	esi
	pop	ebx
	mov	esp, ebp
	pop	ebp
	ret	0
?IN_StrafeUp@@YAXXZ ENDP				; IN_StrafeUp
_TEXT	ENDS
; Function compile flags: /Odtp /ZI
; File d:\!diffusion 2020\source code 2022\client-server\client\input.cpp
;	COMDAT ?IN_StrafeDown@@YAXXZ
_TEXT	SEGMENT
?IN_StrafeDown@@YAXXZ PROC				; IN_StrafeDown, COMDAT

; 397  : void IN_StrafeDown( void )	{ KeyDown( &in_strafe ); }

	push	ebp
	mov	ebp, esp
	sub	esp, 64					; 00000040H
	push	ebx
	push	esi
	push	edi
	push	OFFSET ?in_strafe@@3Ukbutton_s@@A	; in_strafe
	call	?KeyDown@@YAXPAUkbutton_s@@@Z		; KeyDown
	add	esp, 4
	pop	edi
	pop	esi
	pop	ebx
	mov	esp, ebp
	pop	ebp
	ret	0
?IN_StrafeDown@@YAXXZ ENDP				; IN_StrafeDown
_TEXT	ENDS
; Function compile flags: /Odtp /ZI
; File d:\!diffusion 2020\source code 2022\client-server\client\input.cpp
;	COMDAT ?IN_SprintUp@@YAXXZ
_TEXT	SEGMENT
?IN_SprintUp@@YAXXZ PROC				; IN_SprintUp, COMDAT

; 396  : void IN_SprintUp(void) {KeyUp(&in_sprint);}    // --

	push	ebp
	mov	ebp, esp
	sub	esp, 64					; 00000040H
	push	ebx
	push	esi
	push	edi
	push	OFFSET ?in_sprint@@3Ukbutton_s@@A	; in_sprint
	call	?KeyUp@@YAXPAUkbutton_s@@@Z		; KeyUp
	add	esp, 4
	pop	edi
	pop	esi
	pop	ebx
	mov	esp, ebp
	pop	ebp
	ret	0
?IN_SprintUp@@YAXXZ ENDP				; IN_SprintUp
_TEXT	ENDS
; Function compile flags: /Odtp /ZI
; File d:\!diffusion 2020\source code 2022\client-server\client\input.cpp
;	COMDAT ?IN_SprintDown@@YAXXZ
_TEXT	SEGMENT
?IN_SprintDown@@YAXXZ PROC				; IN_SprintDown, COMDAT

; 395  : void IN_SprintDown(void) {KeyDown(&in_sprint);}  // DiffusionSprint

	push	ebp
	mov	ebp, esp
	sub	esp, 64					; 00000040H
	push	ebx
	push	esi
	push	edi
	push	OFFSET ?in_sprint@@3Ukbutton_s@@A	; in_sprint
	call	?KeyDown@@YAXPAUkbutton_s@@@Z		; KeyDown
	add	esp, 4
	pop	edi
	pop	esi
	pop	ebx
	mov	esp, ebp
	pop	ebp
	ret	0
?IN_SprintDown@@YAXXZ ENDP				; IN_SprintDown
_TEXT	ENDS
; Function compile flags: /Odtp /ZI
; File d:\!diffusion 2020\source code 2022\client-server\client\input.cpp
;	COMDAT ?IN_SpeedUp@@YAXXZ
_TEXT	SEGMENT
?IN_SpeedUp@@YAXXZ PROC					; IN_SpeedUp, COMDAT

; 394  : void IN_SpeedUp( void )	{ KeyUp( &in_speed ); }

	push	ebp
	mov	ebp, esp
	sub	esp, 64					; 00000040H
	push	ebx
	push	esi
	push	edi
	push	OFFSET ?in_speed@@3Ukbutton_s@@A	; in_speed
	call	?KeyUp@@YAXPAUkbutton_s@@@Z		; KeyUp
	add	esp, 4
	pop	edi
	pop	esi
	pop	ebx
	mov	esp, ebp
	pop	ebp
	ret	0
?IN_SpeedUp@@YAXXZ ENDP					; IN_SpeedUp
_TEXT	ENDS
; Function compile flags: /Odtp /ZI
; File d:\!diffusion 2020\source code 2022\client-server\client\input.cpp
;	COMDAT ?IN_SpeedDown@@YAXXZ
_TEXT	SEGMENT
?IN_SpeedDown@@YAXXZ PROC				; IN_SpeedDown, COMDAT

; 393  : void IN_SpeedDown( void )	{ KeyDown( &in_speed ); }

	push	ebp
	mov	ebp, esp
	sub	esp, 64					; 00000040H
	push	ebx
	push	esi
	push	edi
	push	OFFSET ?in_speed@@3Ukbutton_s@@A	; in_speed
	call	?KeyDown@@YAXPAUkbutton_s@@@Z		; KeyDown
	add	esp, 4
	pop	edi
	pop	esi
	pop	ebx
	mov	esp, ebp
	pop	ebp
	ret	0
?IN_SpeedDown@@YAXXZ ENDP				; IN_SpeedDown
_TEXT	ENDS
; Function compile flags: /Odtp /ZI
; File d:\!diffusion 2020\source code 2022\client-server\client\input.cpp
;	COMDAT ?IN_MoverightUp@@YAXXZ
_TEXT	SEGMENT
?IN_MoverightUp@@YAXXZ PROC				; IN_MoverightUp, COMDAT

; 392  : void IN_MoverightUp( void )	{ KeyUp( &in_moveright ); }

	push	ebp
	mov	ebp, esp
	sub	esp, 64					; 00000040H
	push	ebx
	push	esi
	push	edi
	push	OFFSET ?in_moveright@@3Ukbutton_s@@A	; in_moveright
	call	?KeyUp@@YAXPAUkbutton_s@@@Z		; KeyUp
	add	esp, 4
	pop	edi
	pop	esi
	pop	ebx
	mov	esp, ebp
	pop	ebp
	ret	0
?IN_MoverightUp@@YAXXZ ENDP				; IN_MoverightUp
_TEXT	ENDS
; Function compile flags: /Odtp /ZI
; File d:\!diffusion 2020\source code 2022\client-server\client\input.cpp
;	COMDAT ?IN_MoverightDown@@YAXXZ
_TEXT	SEGMENT
?IN_MoverightDown@@YAXXZ PROC				; IN_MoverightDown, COMDAT

; 391  : void IN_MoverightDown( void )	{ KeyDown( &in_moveright ); }

	push	ebp
	mov	ebp, esp
	sub	esp, 64					; 00000040H
	push	ebx
	push	esi
	push	edi
	push	OFFSET ?in_moveright@@3Ukbutton_s@@A	; in_moveright
	call	?KeyDown@@YAXPAUkbutton_s@@@Z		; KeyDown
	add	esp, 4
	pop	edi
	pop	esi
	pop	ebx
	mov	esp, ebp
	pop	ebp
	ret	0
?IN_MoverightDown@@YAXXZ ENDP				; IN_MoverightDown
_TEXT	ENDS
; Function compile flags: /Odtp /ZI
; File d:\!diffusion 2020\source code 2022\client-server\client\input.cpp
;	COMDAT ?IN_MoveleftUp@@YAXXZ
_TEXT	SEGMENT
?IN_MoveleftUp@@YAXXZ PROC				; IN_MoveleftUp, COMDAT

; 390  : void IN_MoveleftUp( void )	{ KeyUp( &in_moveleft ); }

	push	ebp
	mov	ebp, esp
	sub	esp, 64					; 00000040H
	push	ebx
	push	esi
	push	edi
	push	OFFSET ?in_moveleft@@3Ukbutton_s@@A	; in_moveleft
	call	?KeyUp@@YAXPAUkbutton_s@@@Z		; KeyUp
	add	esp, 4
	pop	edi
	pop	esi
	pop	ebx
	mov	esp, ebp
	pop	ebp
	ret	0
?IN_MoveleftUp@@YAXXZ ENDP				; IN_MoveleftUp
_TEXT	ENDS
; Function compile flags: /Odtp /ZI
; File d:\!diffusion 2020\source code 2022\client-server\client\input.cpp
;	COMDAT ?IN_MoveleftDown@@YAXXZ
_TEXT	SEGMENT
?IN_MoveleftDown@@YAXXZ PROC				; IN_MoveleftDown, COMDAT

; 389  : void IN_MoveleftDown( void )	{ KeyDown( &in_moveleft ); }

	push	ebp
	mov	ebp, esp
	sub	esp, 64					; 00000040H
	push	ebx
	push	esi
	push	edi
	push	OFFSET ?in_moveleft@@3Ukbutton_s@@A	; in_moveleft
	call	?KeyDown@@YAXPAUkbutton_s@@@Z		; KeyDown
	add	esp, 4
	pop	edi
	pop	esi
	pop	ebx
	mov	esp, ebp
	pop	ebp
	ret	0
?IN_MoveleftDown@@YAXXZ ENDP				; IN_MoveleftDown
_TEXT	ENDS
; Function compile flags: /Odtp /ZI
; File d:\!diffusion 2020\source code 2022\client-server\client\input.cpp
;	COMDAT ?IN_LookdownUp@@YAXXZ
_TEXT	SEGMENT
?IN_LookdownUp@@YAXXZ PROC				; IN_LookdownUp, COMDAT

; 388  : void IN_LookdownUp( void )	{ KeyUp( &in_lookdown ); }

	push	ebp
	mov	ebp, esp
	sub	esp, 64					; 00000040H
	push	ebx
	push	esi
	push	edi
	push	OFFSET ?in_lookdown@@3Ukbutton_s@@A	; in_lookdown
	call	?KeyUp@@YAXPAUkbutton_s@@@Z		; KeyUp
	add	esp, 4
	pop	edi
	pop	esi
	pop	ebx
	mov	esp, ebp
	pop	ebp
	ret	0
?IN_LookdownUp@@YAXXZ ENDP				; IN_LookdownUp
_TEXT	ENDS
; Function compile flags: /Odtp /ZI
; File d:\!diffusion 2020\source code 2022\client-server\client\input.cpp
;	COMDAT ?IN_LookdownDown@@YAXXZ
_TEXT	SEGMENT
?IN_LookdownDown@@YAXXZ PROC				; IN_LookdownDown, COMDAT

; 387  : void IN_LookdownDown( void )	{ KeyDown( &in_lookdown ); }

	push	ebp
	mov	ebp, esp
	sub	esp, 64					; 00000040H
	push	ebx
	push	esi
	push	edi
	push	OFFSET ?in_lookdown@@3Ukbutton_s@@A	; in_lookdown
	call	?KeyDown@@YAXPAUkbutton_s@@@Z		; KeyDown
	add	esp, 4
	pop	edi
	pop	esi
	pop	ebx
	mov	esp, ebp
	pop	ebp
	ret	0
?IN_LookdownDown@@YAXXZ ENDP				; IN_LookdownDown
_TEXT	ENDS
; Function compile flags: /Odtp /ZI
; File d:\!diffusion 2020\source code 2022\client-server\client\input.cpp
;	COMDAT ?IN_LookupUp@@YAXXZ
_TEXT	SEGMENT
?IN_LookupUp@@YAXXZ PROC				; IN_LookupUp, COMDAT

; 386  : void IN_LookupUp( void )	{ KeyUp( &in_lookup ); }

	push	ebp
	mov	ebp, esp
	sub	esp, 64					; 00000040H
	push	ebx
	push	esi
	push	edi
	push	OFFSET ?in_lookup@@3Ukbutton_s@@A	; in_lookup
	call	?KeyUp@@YAXPAUkbutton_s@@@Z		; KeyUp
	add	esp, 4
	pop	edi
	pop	esi
	pop	ebx
	mov	esp, ebp
	pop	ebp
	ret	0
?IN_LookupUp@@YAXXZ ENDP				; IN_LookupUp
_TEXT	ENDS
; Function compile flags: /Odtp /ZI
; File d:\!diffusion 2020\source code 2022\client-server\client\input.cpp
;	COMDAT ?IN_LookupDown@@YAXXZ
_TEXT	SEGMENT
?IN_LookupDown@@YAXXZ PROC				; IN_LookupDown, COMDAT

; 385  : void IN_LookupDown( void )	{ KeyDown( &in_lookup ); }

	push	ebp
	mov	ebp, esp
	sub	esp, 64					; 00000040H
	push	ebx
	push	esi
	push	edi
	push	OFFSET ?in_lookup@@3Ukbutton_s@@A	; in_lookup
	call	?KeyDown@@YAXPAUkbutton_s@@@Z		; KeyDown
	add	esp, 4
	pop	edi
	pop	esi
	pop	ebx
	mov	esp, ebp
	pop	ebp
	ret	0
?IN_LookupDown@@YAXXZ ENDP				; IN_LookupDown
_TEXT	ENDS
; Function compile flags: /Odtp /ZI
; File d:\!diffusion 2020\source code 2022\client-server\client\input.cpp
;	COMDAT ?IN_BackUp@@YAXXZ
_TEXT	SEGMENT
?IN_BackUp@@YAXXZ PROC					; IN_BackUp, COMDAT

; 384  : void IN_BackUp( void )	{ KeyUp( &in_back ); }

	push	ebp
	mov	ebp, esp
	sub	esp, 64					; 00000040H
	push	ebx
	push	esi
	push	edi
	push	OFFSET ?in_back@@3Ukbutton_s@@A		; in_back
	call	?KeyUp@@YAXPAUkbutton_s@@@Z		; KeyUp
	add	esp, 4
	pop	edi
	pop	esi
	pop	ebx
	mov	esp, ebp
	pop	ebp
	ret	0
?IN_BackUp@@YAXXZ ENDP					; IN_BackUp
_TEXT	ENDS
; Function compile flags: /Odtp /ZI
; File d:\!diffusion 2020\source code 2022\client-server\client\input.cpp
;	COMDAT ?IN_BackDown@@YAXXZ
_TEXT	SEGMENT
?IN_BackDown@@YAXXZ PROC				; IN_BackDown, COMDAT

; 383  : void IN_BackDown( void )	{ KeyDown( &in_back ); }

	push	ebp
	mov	ebp, esp
	sub	esp, 64					; 00000040H
	push	ebx
	push	esi
	push	edi
	push	OFFSET ?in_back@@3Ukbutton_s@@A		; in_back
	call	?KeyDown@@YAXPAUkbutton_s@@@Z		; KeyDown
	add	esp, 4
	pop	edi
	pop	esi
	pop	ebx
	mov	esp, ebp
	pop	ebp
	ret	0
?IN_BackDown@@YAXXZ ENDP				; IN_BackDown
_TEXT	ENDS
; Function compile flags: /Odtp /ZI
; File d:\!diffusion 2020\source code 2022\client-server\client\input.cpp
;	COMDAT ?IN_ForwardUp@@YAXXZ
_TEXT	SEGMENT
?IN_ForwardUp@@YAXXZ PROC				; IN_ForwardUp, COMDAT

; 382  : void IN_ForwardUp( void )	{ KeyUp( &in_forward ); }

	push	ebp
	mov	ebp, esp
	sub	esp, 64					; 00000040H
	push	ebx
	push	esi
	push	edi
	push	OFFSET ?in_forward@@3Ukbutton_s@@A	; in_forward
	call	?KeyUp@@YAXPAUkbutton_s@@@Z		; KeyUp
	add	esp, 4
	pop	edi
	pop	esi
	pop	ebx
	mov	esp, ebp
	pop	ebp
	ret	0
?IN_ForwardUp@@YAXXZ ENDP				; IN_ForwardUp
_TEXT	ENDS
; Function compile flags: /Odtp /ZI
; File d:\!diffusion 2020\source code 2022\client-server\client\input.cpp
;	COMDAT ?IN_ForwardDown@@YAXXZ
_TEXT	SEGMENT
?IN_ForwardDown@@YAXXZ PROC				; IN_ForwardDown, COMDAT

; 381  : void IN_ForwardDown( void )	{ KeyDown( &in_forward ); }

	push	ebp
	mov	ebp, esp
	sub	esp, 64					; 00000040H
	push	ebx
	push	esi
	push	edi
	push	OFFSET ?in_forward@@3Ukbutton_s@@A	; in_forward
	call	?KeyDown@@YAXPAUkbutton_s@@@Z		; KeyDown
	add	esp, 4
	pop	edi
	pop	esi
	pop	ebx
	mov	esp, ebp
	pop	ebp
	ret	0
?IN_ForwardDown@@YAXXZ ENDP				; IN_ForwardDown
_TEXT	ENDS
; Function compile flags: /Odtp /ZI
; File d:\!diffusion 2020\source code 2022\client-server\client\input.cpp
;	COMDAT ?IN_RightUp@@YAXXZ
_TEXT	SEGMENT
?IN_RightUp@@YAXXZ PROC					; IN_RightUp, COMDAT

; 380  : void IN_RightUp( void )	{ KeyUp( &in_right ); }

	push	ebp
	mov	ebp, esp
	sub	esp, 64					; 00000040H
	push	ebx
	push	esi
	push	edi
	push	OFFSET ?in_right@@3Ukbutton_s@@A	; in_right
	call	?KeyUp@@YAXPAUkbutton_s@@@Z		; KeyUp
	add	esp, 4
	pop	edi
	pop	esi
	pop	ebx
	mov	esp, ebp
	pop	ebp
	ret	0
?IN_RightUp@@YAXXZ ENDP					; IN_RightUp
_TEXT	ENDS
; Function compile flags: /Odtp /ZI
; File d:\!diffusion 2020\source code 2022\client-server\client\input.cpp
;	COMDAT ?IN_RightDown@@YAXXZ
_TEXT	SEGMENT
?IN_RightDown@@YAXXZ PROC				; IN_RightDown, COMDAT

; 379  : void IN_RightDown( void )	{ KeyDown( &in_right ); }

	push	ebp
	mov	ebp, esp
	sub	esp, 64					; 00000040H
	push	ebx
	push	esi
	push	edi
	push	OFFSET ?in_right@@3Ukbutton_s@@A	; in_right
	call	?KeyDown@@YAXPAUkbutton_s@@@Z		; KeyDown
	add	esp, 4
	pop	edi
	pop	esi
	pop	ebx
	mov	esp, ebp
	pop	ebp
	ret	0
?IN_RightDown@@YAXXZ ENDP				; IN_RightDown
_TEXT	ENDS
; Function compile flags: /Odtp /ZI
; File d:\!diffusion 2020\source code 2022\client-server\client\input.cpp
;	COMDAT ?IN_LeftUp@@YAXXZ
_TEXT	SEGMENT
?IN_LeftUp@@YAXXZ PROC					; IN_LeftUp, COMDAT

; 378  : void IN_LeftUp( void )	{ KeyUp( &in_left ); }

	push	ebp
	mov	ebp, esp
	sub	esp, 64					; 00000040H
	push	ebx
	push	esi
	push	edi
	push	OFFSET ?in_left@@3Ukbutton_s@@A		; in_left
	call	?KeyUp@@YAXPAUkbutton_s@@@Z		; KeyUp
	add	esp, 4
	pop	edi
	pop	esi
	pop	ebx
	mov	esp, ebp
	pop	ebp
	ret	0
?IN_LeftUp@@YAXXZ ENDP					; IN_LeftUp
_TEXT	ENDS
; Function compile flags: /Odtp /ZI
; File d:\!diffusion 2020\source code 2022\client-server\client\input.cpp
;	COMDAT ?IN_LeftDown@@YAXXZ
_TEXT	SEGMENT
?IN_LeftDown@@YAXXZ PROC				; IN_LeftDown, COMDAT

; 377  : void IN_LeftDown( void )	{ KeyDown( &in_left ); }

	push	ebp
	mov	ebp, esp
	sub	esp, 64					; 00000040H
	push	ebx
	push	esi
	push	edi
	push	OFFSET ?in_left@@3Ukbutton_s@@A		; in_left
	call	?KeyDown@@YAXPAUkbutton_s@@@Z		; KeyDown
	add	esp, 4
	pop	edi
	pop	esi
	pop	ebx
	mov	esp, ebp
	pop	ebp
	ret	0
?IN_LeftDown@@YAXXZ ENDP				; IN_LeftDown
_TEXT	ENDS
; Function compile flags: /Odtp /ZI
; File d:\!diffusion 2020\source code 2022\client-server\client\input.cpp
;	COMDAT ?IN_DownUp@@YAXXZ
_TEXT	SEGMENT
?IN_DownUp@@YAXXZ PROC					; IN_DownUp, COMDAT

; 376  : void IN_DownUp( void )	{ KeyUp( &in_down ); }

	push	ebp
	mov	ebp, esp
	sub	esp, 64					; 00000040H
	push	ebx
	push	esi
	push	edi
	push	OFFSET ?in_down@@3Ukbutton_s@@A		; in_down
	call	?KeyUp@@YAXPAUkbutton_s@@@Z		; KeyUp
	add	esp, 4
	pop	edi
	pop	esi
	pop	ebx
	mov	esp, ebp
	pop	ebp
	ret	0
?IN_DownUp@@YAXXZ ENDP					; IN_DownUp
_TEXT	ENDS
; Function compile flags: /Odtp /ZI
; File d:\!diffusion 2020\source code 2022\client-server\client\input.cpp
;	COMDAT ?IN_DownDown@@YAXXZ
_TEXT	SEGMENT
?IN_DownDown@@YAXXZ PROC				; IN_DownDown, COMDAT

; 375  : void IN_DownDown( void )	{ KeyDown( &in_down ); }

	push	ebp
	mov	ebp, esp
	sub	esp, 64					; 00000040H
	push	ebx
	push	esi
	push	edi
	push	OFFSET ?in_down@@3Ukbutton_s@@A		; in_down
	call	?KeyDown@@YAXPAUkbutton_s@@@Z		; KeyDown
	add	esp, 4
	pop	edi
	pop	esi
	pop	ebx
	mov	esp, ebp
	pop	ebp
	ret	0
?IN_DownDown@@YAXXZ ENDP				; IN_DownDown
_TEXT	ENDS
; Function compile flags: /Odtp /ZI
; File d:\!diffusion 2020\source code 2022\client-server\client\input.cpp
;	COMDAT ?IN_UpUp@@YAXXZ
_TEXT	SEGMENT
?IN_UpUp@@YAXXZ PROC					; IN_UpUp, COMDAT

; 374  : void IN_UpUp( void )	{ KeyUp( &in_up ); }

	push	ebp
	mov	ebp, esp
	sub	esp, 64					; 00000040H
	push	ebx
	push	esi
	push	edi
	push	OFFSET ?in_up@@3Ukbutton_s@@A		; in_up
	call	?KeyUp@@YAXPAUkbutton_s@@@Z		; KeyUp
	add	esp, 4
	pop	edi
	pop	esi
	pop	ebx
	mov	esp, ebp
	pop	ebp
	ret	0
?IN_UpUp@@YAXXZ ENDP					; IN_UpUp
_TEXT	ENDS
; Function compile flags: /Odtp /ZI
; File d:\!diffusion 2020\source code 2022\client-server\client\input.cpp
;	COMDAT ?IN_UpDown@@YAXXZ
_TEXT	SEGMENT
?IN_UpDown@@YAXXZ PROC					; IN_UpDown, COMDAT

; 373  : void IN_UpDown( void )	{ KeyDown( &in_up ); }

	push	ebp
	mov	ebp, esp
	sub	esp, 64					; 00000040H
	push	ebx
	push	esi
	push	edi
	push	OFFSET ?in_up@@3Ukbutton_s@@A		; in_up
	call	?KeyDown@@YAXPAUkbutton_s@@@Z		; KeyDown
	add	esp, 4
	pop	edi
	pop	esi
	pop	ebx
	mov	esp, ebp
	pop	ebp
	ret	0
?IN_UpDown@@YAXXZ ENDP					; IN_UpDown
_TEXT	ENDS
; Function compile flags: /Odtp /ZI
; File d:\!diffusion 2020\source code 2022\client-server\client\input.cpp
;	COMDAT ?IN_MLookDown@@YAXXZ
_TEXT	SEGMENT
?IN_MLookDown@@YAXXZ PROC				; IN_MLookDown, COMDAT

; 372  : void IN_MLookDown( void )	{ KeyDown( &in_mlook ); }

	push	ebp
	mov	ebp, esp
	sub	esp, 64					; 00000040H
	push	ebx
	push	esi
	push	edi
	push	OFFSET ?in_mlook@@3Ukbutton_s@@A	; in_mlook
	call	?KeyDown@@YAXPAUkbutton_s@@@Z		; KeyDown
	add	esp, 4
	pop	edi
	pop	esi
	pop	ebx
	mov	esp, ebp
	pop	ebp
	ret	0
?IN_MLookDown@@YAXXZ ENDP				; IN_MLookDown
_TEXT	ENDS
; Function compile flags: /Odtp /ZI
; File d:\!diffusion 2020\source code 2022\client-server\client\input.cpp
;	COMDAT ?IN_JLookUp@@YAXXZ
_TEXT	SEGMENT
?IN_JLookUp@@YAXXZ PROC					; IN_JLookUp, COMDAT

; 371  : void IN_JLookUp( void )	{ KeyUp( &in_jlook ); }

	push	ebp
	mov	ebp, esp
	sub	esp, 64					; 00000040H
	push	ebx
	push	esi
	push	edi
	push	OFFSET ?in_jlook@@3Ukbutton_s@@A	; in_jlook
	call	?KeyUp@@YAXPAUkbutton_s@@@Z		; KeyUp
	add	esp, 4
	pop	edi
	pop	esi
	pop	ebx
	mov	esp, ebp
	pop	ebp
	ret	0
?IN_JLookUp@@YAXXZ ENDP					; IN_JLookUp
_TEXT	ENDS
; Function compile flags: /Odtp /ZI
; File d:\!diffusion 2020\source code 2022\client-server\client\input.cpp
;	COMDAT ?IN_JLookDown@@YAXXZ
_TEXT	SEGMENT
?IN_JLookDown@@YAXXZ PROC				; IN_JLookDown, COMDAT

; 370  : void IN_JLookDown( void )	{ KeyDown( &in_jlook ); }

	push	ebp
	mov	ebp, esp
	sub	esp, 64					; 00000040H
	push	ebx
	push	esi
	push	edi
	push	OFFSET ?in_jlook@@3Ukbutton_s@@A	; in_jlook
	call	?KeyDown@@YAXPAUkbutton_s@@@Z		; KeyDown
	add	esp, 4
	pop	edi
	pop	esi
	pop	ebx
	mov	esp, ebp
	pop	ebp
	ret	0
?IN_JLookDown@@YAXXZ ENDP				; IN_JLookDown
_TEXT	ENDS
; Function compile flags: /Odtp /ZI
; File d:\!diffusion 2020\source code 2022\client-server\client\input.cpp
;	COMDAT ?IN_KLookUp@@YAXXZ
_TEXT	SEGMENT
?IN_KLookUp@@YAXXZ PROC					; IN_KLookUp, COMDAT

; 369  : void IN_KLookUp( void )	{ KeyUp( &in_klook ); }

	push	ebp
	mov	ebp, esp
	sub	esp, 64					; 00000040H
	push	ebx
	push	esi
	push	edi
	push	OFFSET ?in_klook@@3Ukbutton_s@@A	; in_klook
	call	?KeyUp@@YAXPAUkbutton_s@@@Z		; KeyUp
	add	esp, 4
	pop	edi
	pop	esi
	pop	ebx
	mov	esp, ebp
	pop	ebp
	ret	0
?IN_KLookUp@@YAXXZ ENDP					; IN_KLookUp
_TEXT	ENDS
; Function compile flags: /Odtp /ZI
; File d:\!diffusion 2020\source code 2022\client-server\client\input.cpp
;	COMDAT ?IN_KLookDown@@YAXXZ
_TEXT	SEGMENT
?IN_KLookDown@@YAXXZ PROC				; IN_KLookDown, COMDAT

; 368  : void IN_KLookDown( void )	{ KeyDown( &in_klook ); }

	push	ebp
	mov	ebp, esp
	sub	esp, 64					; 00000040H
	push	ebx
	push	esi
	push	edi
	push	OFFSET ?in_klook@@3Ukbutton_s@@A	; in_klook
	call	?KeyDown@@YAXPAUkbutton_s@@@Z		; KeyDown
	add	esp, 4
	pop	edi
	pop	esi
	pop	ebx
	mov	esp, ebp
	pop	ebp
	ret	0
?IN_KLookDown@@YAXXZ ENDP				; IN_KLookDown
_TEXT	ENDS
; Function compile flags: /Odtp /ZI
; File d:\!diffusion 2020\source code 2022\client-server\client\input.cpp
;	COMDAT ?IN_BreakUp@@YAXXZ
_TEXT	SEGMENT
?IN_BreakUp@@YAXXZ PROC					; IN_BreakUp, COMDAT

; 367  : void IN_BreakUp( void )	{ KeyUp( &in_break ); };

	push	ebp
	mov	ebp, esp
	sub	esp, 64					; 00000040H
	push	ebx
	push	esi
	push	edi
	push	OFFSET ?in_break@@3Ukbutton_s@@A	; in_break
	call	?KeyUp@@YAXPAUkbutton_s@@@Z		; KeyUp
	add	esp, 4
	pop	edi
	pop	esi
	pop	ebx
	mov	esp, ebp
	pop	ebp
	ret	0
?IN_BreakUp@@YAXXZ ENDP					; IN_BreakUp
_TEXT	ENDS
; Function compile flags: /Odtp /ZI
; File d:\!diffusion 2020\source code 2022\client-server\client\input.cpp
;	COMDAT ?IN_BreakDown@@YAXXZ
_TEXT	SEGMENT
?IN_BreakDown@@YAXXZ PROC				; IN_BreakDown, COMDAT

; 366  : void IN_BreakDown( void )	{ KeyDown( &in_break ); };

	push	ebp
	mov	ebp, esp
	sub	esp, 64					; 00000040H
	push	ebx
	push	esi
	push	edi
	push	OFFSET ?in_break@@3Ukbutton_s@@A	; in_break
	call	?KeyDown@@YAXPAUkbutton_s@@@Z		; KeyDown
	add	esp, 4
	pop	edi
	pop	esi
	pop	ebx
	mov	esp, ebp
	pop	ebp
	ret	0
?IN_BreakDown@@YAXXZ ENDP				; IN_BreakDown
_TEXT	ENDS
; Function compile flags: /Odtp /ZI
; File d:\!diffusion 2020\source code 2022\client-server\client\input.cpp
;	COMDAT ?KeyUp@@YAXPAUkbutton_s@@@Z
_TEXT	SEGMENT
_k$ = -8						; size = 4
_c$ = -4						; size = 4
_b$ = 8							; size = 4
?KeyUp@@YAXPAUkbutton_s@@@Z PROC			; KeyUp, COMDAT

; 321  : {

	push	ebp
	mov	ebp, esp
	sub	esp, 72					; 00000048H
	push	ebx
	push	esi
	push	edi

; 322  : 	char	*c;
; 323  : 	int	k;	
; 324  : 
; 325  : 	c = CMD_ARGV( 1 );

	push	1
	call	DWORD PTR ?gEngfuncs@@3Ucl_enginefuncs_s@@A+156
	add	esp, 4
	mov	DWORD PTR _c$[ebp], eax

; 326  : 
; 327  : 	if( c[0] )

	mov	eax, 1
	imul	ecx, eax, 0
	mov	edx, DWORD PTR _c$[ebp]
	movsx	eax, BYTE PTR [edx+ecx]
	test	eax, eax
	je	SHORT $LN2@KeyUp

; 328  : 	{
; 329  : 		k = Q_atoi( c );

	mov	eax, DWORD PTR _c$[ebp]
	push	eax
	call	?Q_atoi@@YAHPBD@Z			; Q_atoi
	add	esp, 4
	mov	DWORD PTR _k$[ebp], eax

; 330  : 	}
; 331  : 	else

	jmp	SHORT $LN3@KeyUp
$LN2@KeyUp:

; 332  : 	{
; 333  : 		// typed manually at the console, assume for unsticking, so clear all
; 334  : 		b->down[0] = b->down[1] = 0;

	mov	eax, 4
	shl	eax, 0
	mov	ecx, DWORD PTR _b$[ebp]
	mov	DWORD PTR [ecx+eax], 0
	mov	edx, 4
	imul	eax, edx, 0
	mov	ecx, DWORD PTR _b$[ebp]
	mov	DWORD PTR [ecx+eax], 0

; 335  : 		b->state = IMPULSE_UP; // impulse up

	mov	eax, DWORD PTR _b$[ebp]
	mov	DWORD PTR [eax+8], 4

; 336  : 		return;

	jmp	$LN1@KeyUp
$LN3@KeyUp:

; 337  : 	}
; 338  : 
; 339  : 	if( b->down[0] == k )

	mov	eax, 4
	imul	ecx, eax, 0
	mov	edx, DWORD PTR _b$[ebp]
	mov	eax, DWORD PTR [edx+ecx]
	cmp	eax, DWORD PTR _k$[ebp]
	jne	SHORT $LN4@KeyUp

; 340  : 	{
; 341  : 		b->down[0] = 0;

	mov	eax, 4
	imul	ecx, eax, 0
	mov	edx, DWORD PTR _b$[ebp]
	mov	DWORD PTR [edx+ecx], 0
	jmp	SHORT $LN5@KeyUp
$LN4@KeyUp:

; 342  : 	}
; 343  : 	else if( b->down[1] == k )

	mov	eax, 4
	shl	eax, 0
	mov	ecx, DWORD PTR _b$[ebp]
	mov	edx, DWORD PTR [ecx+eax]
	cmp	edx, DWORD PTR _k$[ebp]
	jne	SHORT $LN6@KeyUp

; 344  : 	{
; 345  : 		b->down[1] = 0;

	mov	eax, 4
	shl	eax, 0
	mov	ecx, DWORD PTR _b$[ebp]
	mov	DWORD PTR [ecx+eax], 0

; 346  : 	}
; 347  : 	else

	jmp	SHORT $LN5@KeyUp
$LN6@KeyUp:

; 348  : 	{
; 349  : 		// key up without coresponding down (menu pass through)
; 350  : 		return;

	jmp	SHORT $LN1@KeyUp
$LN5@KeyUp:

; 351  : 	}
; 352  : 
; 353  : 	if( b->down[0] || b->down[1] )

	mov	eax, 4
	imul	ecx, eax, 0
	mov	edx, DWORD PTR _b$[ebp]
	cmp	DWORD PTR [edx+ecx], 0
	jne	SHORT $LN9@KeyUp
	mov	eax, 4
	shl	eax, 0
	mov	ecx, DWORD PTR _b$[ebp]
	cmp	DWORD PTR [ecx+eax], 0
	je	SHORT $LN8@KeyUp
$LN9@KeyUp:

; 354  : 	{
; 355  : 		// some other key is still holding it down
; 356  : 		return;

	jmp	SHORT $LN1@KeyUp
$LN8@KeyUp:

; 357  : 	}
; 358  : 
; 359  : 	if( !( b->state & BUTTON_DOWN )) return;// still up (this should not happen)

	mov	eax, DWORD PTR _b$[ebp]
	mov	ecx, DWORD PTR [eax+8]
	and	ecx, 1
	jne	SHORT $LN10@KeyUp
	jmp	SHORT $LN1@KeyUp
$LN10@KeyUp:

; 360  : 
; 361  : 	b->state &= ~BUTTON_DOWN;	// now up

	mov	eax, DWORD PTR _b$[ebp]
	mov	ecx, DWORD PTR [eax+8]
	and	ecx, -2					; fffffffeH
	mov	edx, DWORD PTR _b$[ebp]
	mov	DWORD PTR [edx+8], ecx

; 362  : 	b->state &= ~IMPULSE_DOWN;	// diffusion - fix: the button was still down for 3 more frames, now it's up for sure

	mov	eax, DWORD PTR _b$[ebp]
	mov	ecx, DWORD PTR [eax+8]
	and	ecx, -3					; fffffffdH
	mov	edx, DWORD PTR _b$[ebp]
	mov	DWORD PTR [edx+8], ecx

; 363  : 	b->state |= IMPULSE_UP;	// impulse up

	mov	eax, DWORD PTR _b$[ebp]
	mov	ecx, DWORD PTR [eax+8]
	or	ecx, 4
	mov	edx, DWORD PTR _b$[ebp]
	mov	DWORD PTR [edx+8], ecx
$LN1@KeyUp:

; 364  : }

	pop	edi
	pop	esi
	pop	ebx
	mov	esp, ebp
	pop	ebp
	ret	0
?KeyUp@@YAXPAUkbutton_s@@@Z ENDP			; KeyUp
_TEXT	ENDS
; Function compile flags: /Odtp /ZI
; File d:\!diffusion 2020\source code 2022\client-server\client\input.cpp
;	COMDAT ?KeyDown@@YAXPAUkbutton_s@@@Z
_TEXT	SEGMENT
_k$ = -8						; size = 4
_c$ = -4						; size = 4
_b$ = 8							; size = 4
?KeyDown@@YAXPAUkbutton_s@@@Z PROC			; KeyDown, COMDAT

; 283  : {

	push	ebp
	mov	ebp, esp
	sub	esp, 72					; 00000048H
	push	ebx
	push	esi
	push	edi

; 284  : 	char	*c;
; 285  : 	int	k;
; 286  : 
; 287  : 	c = CMD_ARGV( 1 );

	push	1
	call	DWORD PTR ?gEngfuncs@@3Ucl_enginefuncs_s@@A+156
	add	esp, 4
	mov	DWORD PTR _c$[ebp], eax

; 288  : 
; 289  : 	if( c[0] )

	mov	eax, 1
	imul	ecx, eax, 0
	mov	edx, DWORD PTR _c$[ebp]
	movsx	eax, BYTE PTR [edx+ecx]
	test	eax, eax
	je	SHORT $LN2@KeyDown

; 290  : 		k = Q_atoi( c );

	mov	eax, DWORD PTR _c$[ebp]
	push	eax
	call	?Q_atoi@@YAHPBD@Z			; Q_atoi
	add	esp, 4
	mov	DWORD PTR _k$[ebp], eax

; 291  : 	else

	jmp	SHORT $LN3@KeyDown
$LN2@KeyDown:

; 292  : 		k = -1; // typed manually at the console for continuous down

	mov	DWORD PTR _k$[ebp], -1
$LN3@KeyDown:

; 293  : 
; 294  : 	if( k == b->down[0] || k == b->down[1] )

	mov	eax, 4
	imul	ecx, eax, 0
	mov	edx, DWORD PTR _b$[ebp]
	mov	eax, DWORD PTR _k$[ebp]
	cmp	eax, DWORD PTR [edx+ecx]
	je	SHORT $LN5@KeyDown
	mov	eax, 4
	shl	eax, 0
	mov	ecx, DWORD PTR _b$[ebp]
	mov	edx, DWORD PTR _k$[ebp]
	cmp	edx, DWORD PTR [ecx+eax]
	jne	SHORT $LN4@KeyDown
$LN5@KeyDown:

; 295  : 		return; // repeating key

	jmp	$LN1@KeyDown
$LN4@KeyDown:

; 296  : 	
; 297  : 	if( !b->down[0] )

	mov	eax, 4
	imul	ecx, eax, 0
	mov	edx, DWORD PTR _b$[ebp]
	cmp	DWORD PTR [edx+ecx], 0
	jne	SHORT $LN6@KeyDown

; 298  : 	{
; 299  : 		b->down[0] = k;

	mov	eax, 4
	imul	ecx, eax, 0
	mov	edx, DWORD PTR _b$[ebp]
	mov	eax, DWORD PTR _k$[ebp]
	mov	DWORD PTR [edx+ecx], eax
	jmp	SHORT $LN7@KeyDown
$LN6@KeyDown:

; 300  : 	}
; 301  : 	else if( !b->down[1] )

	mov	eax, 4
	shl	eax, 0
	mov	ecx, DWORD PTR _b$[ebp]
	cmp	DWORD PTR [ecx+eax], 0
	jne	SHORT $LN8@KeyDown

; 302  : 	{
; 303  : 		b->down[1] = k;

	mov	eax, 4
	shl	eax, 0
	mov	ecx, DWORD PTR _b$[ebp]
	mov	edx, DWORD PTR _k$[ebp]
	mov	DWORD PTR [ecx+eax], edx

; 304  : 	}
; 305  : 	else

	jmp	SHORT $LN7@KeyDown
$LN8@KeyDown:

; 306  : 	{
; 307  : 		ALERT( at_aiconsole, "Three keys down for a button '%c' '%c' '%c'!\n", b->down[0], b->down[1], c );

	mov	eax, DWORD PTR _c$[ebp]
	push	eax
	mov	ecx, 4
	shl	ecx, 0
	mov	edx, DWORD PTR _b$[ebp]
	mov	eax, DWORD PTR [edx+ecx]
	push	eax
	mov	ecx, 4
	imul	edx, ecx, 0
	mov	eax, DWORD PTR _b$[ebp]
	mov	ecx, DWORD PTR [eax+edx]
	push	ecx
	push	OFFSET ??_C@_0CO@JIBCJLJF@Three?5keys?5down?5for?5a?5button?5?8?$CFc@
	push	2
	call	?ALERT@@YAXW4ALERT_TYPE@@PADZZ		; ALERT
	add	esp, 20					; 00000014H

; 308  : 		return;

	jmp	SHORT $LN1@KeyDown
$LN7@KeyDown:

; 309  : 	}
; 310  : 	
; 311  : 	if( b->state & BUTTON_DOWN ) return;	// still down

	mov	eax, DWORD PTR _b$[ebp]
	mov	ecx, DWORD PTR [eax+8]
	and	ecx, 1
	je	SHORT $LN10@KeyDown
	jmp	SHORT $LN1@KeyDown
$LN10@KeyDown:

; 312  : 	b->state |= (BUTTON_DOWN|IMPULSE_DOWN);	// down + impulse down

	mov	eax, DWORD PTR _b$[ebp]
	mov	ecx, DWORD PTR [eax+8]
	or	ecx, 3
	mov	edx, DWORD PTR _b$[ebp]
	mov	DWORD PTR [edx+8], ecx
$LN1@KeyDown:

; 313  : }

	pop	edi
	pop	esi
	pop	ebx
	mov	esp, ebp
	pop	ebp
	ret	0
?KeyDown@@YAXPAUkbutton_s@@@Z ENDP			; KeyDown
_TEXT	ENDS
; Function compile flags: /Odtp /ZI
; File d:\!diffusion 2020\source code 2022\client-server\client\input.cpp
;	COMDAT ?KB_Shutdown@@YAXXZ
_TEXT	SEGMENT
_n$ = -8						; size = 4
_p$ = -4						; size = 4
?KB_Shutdown@@YAXXZ PROC				; KB_Shutdown, COMDAT

; 264  : {

	push	ebp
	mov	ebp, esp
	sub	esp, 72					; 00000048H
	push	ebx
	push	esi
	push	edi

; 265  : 	kblist_t *p, *n;
; 266  : 	p = g_kbkeys;

	mov	eax, DWORD PTR ?g_kbkeys@@3PAUkblist_s@@A ; g_kbkeys
	mov	DWORD PTR _p$[ebp], eax
$LN2@KB_Shutdow:

; 267  : 
; 268  : 	while( p )

	cmp	DWORD PTR _p$[ebp], 0
	je	SHORT $LN3@KB_Shutdow

; 269  : 	{
; 270  : 		n = p->next;

	mov	eax, DWORD PTR _p$[ebp]
	mov	ecx, DWORD PTR [eax]
	mov	DWORD PTR _n$[ebp], ecx

; 271  : 		free( p );

	mov	eax, DWORD PTR _p$[ebp]
	push	eax
	call	_free
	add	esp, 4

; 272  : 		p = n;

	mov	eax, DWORD PTR _n$[ebp]
	mov	DWORD PTR _p$[ebp], eax

; 273  : 	}

	jmp	SHORT $LN2@KB_Shutdow
$LN3@KB_Shutdow:

; 274  : 	g_kbkeys = NULL;

	mov	DWORD PTR ?g_kbkeys@@3PAUkblist_s@@A, 0	; g_kbkeys

; 275  : }

	pop	edi
	pop	esi
	pop	ebx
	mov	esp, ebp
	pop	ebp
	ret	0
?KB_Shutdown@@YAXXZ ENDP				; KB_Shutdown
_TEXT	ENDS
; Function compile flags: /Odtp /ZI
; File d:\!diffusion 2020\source code 2022\client-server\client\input.cpp
;	COMDAT ?KB_Init@@YAXXZ
_TEXT	SEGMENT
?KB_Init@@YAXXZ PROC					; KB_Init, COMDAT

; 248  : {

	push	ebp
	mov	ebp, esp
	sub	esp, 64					; 00000040H
	push	ebx
	push	esi
	push	edi

; 249  : 	g_kbkeys = NULL;

	mov	DWORD PTR ?g_kbkeys@@3PAUkblist_s@@A, 0	; g_kbkeys

; 250  : 
; 251  : 	KB_Add( "in_graph", &in_graph );

	push	OFFSET ?in_graph@@3Ukbutton_s@@A	; in_graph
	push	OFFSET ??_C@_08BFGGGCKN@in_graph?$AA@
	call	?KB_Add@@YAXPBDPAUkbutton_s@@@Z		; KB_Add
	add	esp, 8

; 252  : 	KB_Add( "in_mlook", &in_mlook );

	push	OFFSET ?in_mlook@@3Ukbutton_s@@A	; in_mlook
	push	OFFSET ??_C@_08LHKFKIJF@in_mlook?$AA@
	call	?KB_Add@@YAXPBDPAUkbutton_s@@@Z		; KB_Add
	add	esp, 8

; 253  : 	KB_Add( "in_jlook", &in_jlook );

	push	OFFSET ?in_jlook@@3Ukbutton_s@@A	; in_jlook
	push	OFFSET ??_C@_08KKKAJICN@in_jlook?$AA@
	call	?KB_Add@@YAXPBDPAUkbutton_s@@@Z		; KB_Add
	add	esp, 8

; 254  : }

	pop	edi
	pop	esi
	pop	ebx
	mov	esp, ebp
	pop	ebp
	ret	0
?KB_Init@@YAXXZ ENDP					; KB_Init
_TEXT	ENDS
; Function compile flags: /Odtp /ZI
; File d:\!diffusion 2020\source code 2022\client-server\client\input.cpp
;	COMDAT ?KB_Add@@YAXPBDPAUkbutton_s@@@Z
_TEXT	SEGMENT
_kb$ = -8						; size = 4
_p$ = -4						; size = 4
_name$ = 8						; size = 4
_pkb$ = 12						; size = 4
?KB_Add@@YAXPBDPAUkbutton_s@@@Z PROC			; KB_Add, COMDAT

; 222  : {

	push	ebp
	mov	ebp, esp
	sub	esp, 72					; 00000048H
	push	ebx
	push	esi
	push	edi

; 223  : 	kblist_t *p;	
; 224  : 	kbutton_t *kb;
; 225  : 
; 226  : 	kb = (kbutton_t *)KB_Find( name );

	mov	eax, DWORD PTR _name$[ebp]
	push	eax
	call	?KB_Find@@YAPAXPBD@Z			; KB_Find
	add	esp, 4
	mov	DWORD PTR _kb$[ebp], eax

; 227  : 	
; 228  : 	if( kb ) return;

	cmp	DWORD PTR _kb$[ebp], 0
	je	SHORT $LN2@KB_Add
	jmp	SHORT $LN1@KB_Add
$LN2@KB_Add:

; 229  : 
; 230  : 	p = ( kblist_t *)malloc( sizeof( kblist_t ));

	push	40					; 00000028H
	call	_malloc
	add	esp, 4
	mov	DWORD PTR _p$[ebp], eax

; 231  : 	memset( p, 0, sizeof( *p ));

	push	40					; 00000028H
	push	0
	mov	eax, DWORD PTR _p$[ebp]
	push	eax
	call	_memset
	add	esp, 12					; 0000000cH

; 232  : 
; 233  : 	Q_strcpy( p->name, name );

	push	99999					; 0001869fH
	mov	eax, DWORD PTR _name$[ebp]
	push	eax
	mov	ecx, DWORD PTR _p$[ebp]
	add	ecx, 8
	push	ecx
	call	?Q_strncpy@@YAIPADPBDI@Z		; Q_strncpy
	add	esp, 12					; 0000000cH

; 234  : 	p->pkey = pkb;

	mov	eax, DWORD PTR _p$[ebp]
	mov	ecx, DWORD PTR _pkb$[ebp]
	mov	DWORD PTR [eax+4], ecx

; 235  : 
; 236  : 	p->next = g_kbkeys;

	mov	eax, DWORD PTR _p$[ebp]
	mov	ecx, DWORD PTR ?g_kbkeys@@3PAUkblist_s@@A ; g_kbkeys
	mov	DWORD PTR [eax], ecx

; 237  : 	g_kbkeys = p;

	mov	eax, DWORD PTR _p$[ebp]
	mov	DWORD PTR ?g_kbkeys@@3PAUkblist_s@@A, eax ; g_kbkeys
$LN1@KB_Add:

; 238  : }

	pop	edi
	pop	esi
	pop	ebx
	mov	esp, ebp
	pop	ebp
	ret	0
?KB_Add@@YAXPBDPAUkbutton_s@@@Z ENDP			; KB_Add
_TEXT	ENDS
; Function compile flags: /Odtp /ZI
; File d:\!diffusion 2020\source code 2022\client-server\client\input.cpp
;	COMDAT ?CL_IsDead@@YAHXZ
_TEXT	SEGMENT
tv65 = -68						; size = 4
?CL_IsDead@@YAHXZ PROC					; CL_IsDead, COMDAT

; 544  : {

	push	ebp
	mov	ebp, esp
	sub	esp, 68					; 00000044H
	push	ebx
	push	esi
	push	edi

; 545  : 	return ( gHUD.m_HealthVisual.m_iHealthVisual <= 0 ) ? 1 : 0;

	cmp	DWORD PTR ?gHUD@@3VCHud@@A+7188, 0
	jg	SHORT $LN3@CL_IsDead
	mov	DWORD PTR tv65[ebp], 1
	jmp	SHORT $LN4@CL_IsDead
$LN3@CL_IsDead:
	mov	DWORD PTR tv65[ebp], 0
$LN4@CL_IsDead:
	mov	eax, DWORD PTR tv65[ebp]

; 546  : }

	pop	edi
	pop	esi
	pop	ebx
	mov	esp, ebp
	pop	ebp
	ret	0
?CL_IsDead@@YAHXZ ENDP					; CL_IsDead
_TEXT	ENDS
; Function compile flags: /Odtp /ZI
; File d:\!diffusion 2020\source code 2022\client-server\client\input.cpp
;	COMDAT ?CL_CreateMove@@YAXMPAUusercmd_s@@H@Z
_TEXT	SEGMENT
tv361 = -116						; size = 4
tv352 = -116						; size = 4
tv342 = -116						; size = 4
tv333 = -116						; size = 4
tv324 = -116						; size = 4
tv315 = -116						; size = 4
tv306 = -116						; size = 4
tv297 = -116						; size = 4
_fratio$2 = -48						; size = 4
_fmov$3 = -44						; size = 4
_forward$ = -40						; size = 12
_viewangles$ = -28					; size = 12
_spd$ = -16						; size = 4
__$EHRec$ = -12						; size = 12
_frametime$ = 8						; size = 4
_cmd$ = 12						; size = 4
_active$ = 16						; size = 4
?CL_CreateMove@@YAXMPAUusercmd_s@@H@Z PROC		; CL_CreateMove, COMDAT

; 558  : {	

	push	ebp
	mov	ebp, esp
	push	-1
	push	__ehhandler$?CL_CreateMove@@YAXMPAUusercmd_s@@H@Z
	mov	eax, DWORD PTR fs:0
	push	eax
	sub	esp, 104				; 00000068H
	push	ebx
	push	esi
	push	edi
	mov	eax, DWORD PTR ___security_cookie
	xor	eax, ebp
	push	eax
	lea	eax, DWORD PTR __$EHRec$[ebp]
	mov	DWORD PTR fs:0, eax

; 559  : 	float spd;
; 560  : 	Vector viewangles, forward;

	lea	ecx, DWORD PTR _viewangles$[ebp]
	call	??0Vector@@QAE@XZ			; Vector::Vector
	lea	ecx, DWORD PTR _forward$[ebp]
	call	??0Vector@@QAE@XZ			; Vector::Vector

; 561  : 	static Vector oldangles;

	mov	eax, DWORD PTR __tls_index
	mov	ecx, DWORD PTR fs:__tls_array
	mov	edx, DWORD PTR [ecx+eax*4]
	mov	eax, DWORD PTR ?$TSS0@?1??CL_CreateMove@@YAXMPAUusercmd_s@@H@Z@4HA
	cmp	eax, DWORD PTR __Init_thread_epoch[edx]
	jle	SHORT $LN2@CL_CreateM
	push	OFFSET ?$TSS0@?1??CL_CreateMove@@YAXMPAUusercmd_s@@H@Z@4HA
	call	__Init_thread_header
	add	esp, 4
	cmp	DWORD PTR ?$TSS0@?1??CL_CreateMove@@YAXMPAUusercmd_s@@H@Z@4HA, -1
	jne	SHORT $LN2@CL_CreateM
	mov	DWORD PTR __$EHRec$[ebp+8], 0
	mov	ecx, OFFSET ?oldangles@?1??CL_CreateMove@@YAXMPAUusercmd_s@@H@Z@4VVector@@A
	call	??0Vector@@QAE@XZ			; Vector::Vector
	mov	DWORD PTR __$EHRec$[ebp+8], -1
	push	OFFSET ?$TSS0@?1??CL_CreateMove@@YAXMPAUusercmd_s@@H@Z@4HA
	call	__Init_thread_footer
	add	esp, 4
$LN2@CL_CreateM:

; 562  : 
; 563  : 	if( active )

	cmp	DWORD PTR _active$[ebp], 0
	je	$LN3@CL_CreateM

; 564  : 	{
; 565  : 		gEngfuncs.GetViewAngles( viewangles );

	lea	ecx, DWORD PTR _viewangles$[ebp]
	call	??BVector@@QAEPAMXZ			; Vector::operator float *
	push	eax
	call	DWORD PTR ?gEngfuncs@@3Ucl_enginefuncs_s@@A+136
	add	esp, 4

; 566  : 
; 567  : 		CL_AdjustAngles( frametime, viewangles );

	lea	eax, DWORD PTR _viewangles$[ebp]
	push	eax
	push	ecx
	movss	xmm0, DWORD PTR _frametime$[ebp]
	movss	DWORD PTR [esp], xmm0
	call	?CL_AdjustAngles@@YAXMAAVVector@@@Z	; CL_AdjustAngles
	add	esp, 8

; 568  : 
; 569  : 		memset( cmd, 0, sizeof( *cmd ));

	push	52					; 00000034H
	push	0
	mov	eax, DWORD PTR _cmd$[ebp]
	push	eax
	call	_memset
	add	esp, 12					; 0000000cH

; 570  : 
; 571  : 		gEngfuncs.SetViewAngles( viewangles );

	lea	ecx, DWORD PTR _viewangles$[ebp]
	call	??BVector@@QAEPAMXZ			; Vector::operator float *
	push	eax
	call	DWORD PTR ?gEngfuncs@@3Ucl_enginefuncs_s@@A+140
	add	esp, 4

; 572  : 
; 573  : 		if( gHUD.CanMove )

	movzx	eax, BYTE PTR ?gHUD@@3VCHud@@A+117
	test	eax, eax
	je	$LN9@CL_CreateM

; 574  : 		{
; 575  : 			if( in_strafe.state & BUTTON_DOWN )

	mov	eax, DWORD PTR ?in_strafe@@3Ukbutton_s@@A+8
	and	eax, 1
	je	SHORT $LN5@CL_CreateM

; 576  : 			{
; 577  : 				cmd->sidemove += cl_sidespeed->value * CL_KeyState( &in_right );

	push	OFFSET ?in_right@@3Ukbutton_s@@A	; in_right
	call	?CL_KeyState@@YAMPAUkbutton_s@@@Z	; CL_KeyState
	add	esp, 4
	fstp	DWORD PTR tv297[ebp]
	mov	eax, DWORD PTR ?cl_sidespeed@@3PAUcvar_s@@A ; cl_sidespeed
	movss	xmm0, DWORD PTR tv297[ebp]
	mulss	xmm0, DWORD PTR [eax+12]
	mov	ecx, DWORD PTR _cmd$[ebp]
	addss	xmm0, DWORD PTR [ecx+20]
	mov	edx, DWORD PTR _cmd$[ebp]
	movss	DWORD PTR [edx+20], xmm0

; 578  : 				cmd->sidemove -= cl_sidespeed->value * CL_KeyState( &in_left );

	push	OFFSET ?in_left@@3Ukbutton_s@@A		; in_left
	call	?CL_KeyState@@YAMPAUkbutton_s@@@Z	; CL_KeyState
	add	esp, 4
	fstp	DWORD PTR tv306[ebp]
	mov	eax, DWORD PTR ?cl_sidespeed@@3PAUcvar_s@@A ; cl_sidespeed
	movss	xmm0, DWORD PTR tv306[ebp]
	mulss	xmm0, DWORD PTR [eax+12]
	mov	ecx, DWORD PTR _cmd$[ebp]
	movss	xmm1, DWORD PTR [ecx+20]
	subss	xmm1, xmm0
	mov	edx, DWORD PTR _cmd$[ebp]
	movss	DWORD PTR [edx+20], xmm1
$LN5@CL_CreateM:

; 579  : 			}
; 580  : 
; 581  : 			cmd->sidemove += cl_sidespeed->value * CL_KeyState( &in_moveright );

	push	OFFSET ?in_moveright@@3Ukbutton_s@@A	; in_moveright
	call	?CL_KeyState@@YAMPAUkbutton_s@@@Z	; CL_KeyState
	add	esp, 4
	fstp	DWORD PTR tv315[ebp]
	mov	eax, DWORD PTR ?cl_sidespeed@@3PAUcvar_s@@A ; cl_sidespeed
	movss	xmm0, DWORD PTR tv315[ebp]
	mulss	xmm0, DWORD PTR [eax+12]
	mov	ecx, DWORD PTR _cmd$[ebp]
	addss	xmm0, DWORD PTR [ecx+20]
	mov	edx, DWORD PTR _cmd$[ebp]
	movss	DWORD PTR [edx+20], xmm0

; 582  : 			cmd->sidemove -= cl_sidespeed->value * CL_KeyState( &in_moveleft );

	push	OFFSET ?in_moveleft@@3Ukbutton_s@@A	; in_moveleft
	call	?CL_KeyState@@YAMPAUkbutton_s@@@Z	; CL_KeyState
	add	esp, 4
	fstp	DWORD PTR tv324[ebp]
	mov	eax, DWORD PTR ?cl_sidespeed@@3PAUcvar_s@@A ; cl_sidespeed
	movss	xmm0, DWORD PTR tv324[ebp]
	mulss	xmm0, DWORD PTR [eax+12]
	mov	ecx, DWORD PTR _cmd$[ebp]
	movss	xmm1, DWORD PTR [ecx+20]
	subss	xmm1, xmm0
	mov	edx, DWORD PTR _cmd$[ebp]
	movss	DWORD PTR [edx+20], xmm1

; 583  : 
; 584  : 			cmd->upmove += cl_upspeed->value * CL_KeyState( &in_up );

	push	OFFSET ?in_up@@3Ukbutton_s@@A		; in_up
	call	?CL_KeyState@@YAMPAUkbutton_s@@@Z	; CL_KeyState
	add	esp, 4
	fstp	DWORD PTR tv333[ebp]
	mov	eax, DWORD PTR ?cl_upspeed@@3PAUcvar_s@@A ; cl_upspeed
	movss	xmm0, DWORD PTR tv333[ebp]
	mulss	xmm0, DWORD PTR [eax+12]
	mov	ecx, DWORD PTR _cmd$[ebp]
	addss	xmm0, DWORD PTR [ecx+24]
	mov	edx, DWORD PTR _cmd$[ebp]
	movss	DWORD PTR [edx+24], xmm0

; 585  : 			cmd->upmove -= cl_upspeed->value * CL_KeyState( &in_down );

	push	OFFSET ?in_down@@3Ukbutton_s@@A		; in_down
	call	?CL_KeyState@@YAMPAUkbutton_s@@@Z	; CL_KeyState
	add	esp, 4
	fstp	DWORD PTR tv342[ebp]
	mov	eax, DWORD PTR ?cl_upspeed@@3PAUcvar_s@@A ; cl_upspeed
	movss	xmm0, DWORD PTR tv342[ebp]
	mulss	xmm0, DWORD PTR [eax+12]
	mov	ecx, DWORD PTR _cmd$[ebp]
	movss	xmm1, DWORD PTR [ecx+24]
	subss	xmm1, xmm0
	mov	edx, DWORD PTR _cmd$[ebp]
	movss	DWORD PTR [edx+24], xmm1

; 586  : 
; 587  : 			if( !(in_klook.state & BUTTON_DOWN) )

	mov	eax, DWORD PTR ?in_klook@@3Ukbutton_s@@A+8
	and	eax, 1
	jne	SHORT $LN6@CL_CreateM

; 588  : 			{
; 589  : 				cmd->forwardmove += cl_forwardspeed->value * CL_KeyState( &in_forward );

	push	OFFSET ?in_forward@@3Ukbutton_s@@A	; in_forward
	call	?CL_KeyState@@YAMPAUkbutton_s@@@Z	; CL_KeyState
	add	esp, 4
	fstp	DWORD PTR tv352[ebp]
	mov	eax, DWORD PTR ?cl_forwardspeed@@3PAUcvar_s@@A ; cl_forwardspeed
	movss	xmm0, DWORD PTR tv352[ebp]
	mulss	xmm0, DWORD PTR [eax+12]
	mov	ecx, DWORD PTR _cmd$[ebp]
	addss	xmm0, DWORD PTR [ecx+16]
	mov	edx, DWORD PTR _cmd$[ebp]
	movss	DWORD PTR [edx+16], xmm0

; 590  : 				cmd->forwardmove -= cl_backspeed->value * CL_KeyState( &in_back );

	push	OFFSET ?in_back@@3Ukbutton_s@@A		; in_back
	call	?CL_KeyState@@YAMPAUkbutton_s@@@Z	; CL_KeyState
	add	esp, 4
	fstp	DWORD PTR tv361[ebp]
	mov	eax, DWORD PTR ?cl_backspeed@@3PAUcvar_s@@A ; cl_backspeed
	movss	xmm0, DWORD PTR tv361[ebp]
	mulss	xmm0, DWORD PTR [eax+12]
	mov	ecx, DWORD PTR _cmd$[ebp]
	movss	xmm1, DWORD PTR [ecx+16]
	subss	xmm1, xmm0
	mov	edx, DWORD PTR _cmd$[ebp]
	movss	DWORD PTR [edx+16], xmm1
$LN6@CL_CreateM:

; 591  : 			}
; 592  : 
; 593  : 			// adjust for speed key
; 594  : 			if( in_speed.state & BUTTON_DOWN )

	mov	eax, DWORD PTR ?in_speed@@3Ukbutton_s@@A+8
	and	eax, 1
	je	SHORT $LN7@CL_CreateM

; 595  : 			{
; 596  : 				cmd->forwardmove *= cl_movespeedkey->value;

	mov	eax, DWORD PTR _cmd$[ebp]
	mov	ecx, DWORD PTR ?cl_movespeedkey@@3PAUcvar_s@@A ; cl_movespeedkey
	movss	xmm0, DWORD PTR [eax+16]
	mulss	xmm0, DWORD PTR [ecx+12]
	mov	edx, DWORD PTR _cmd$[ebp]
	movss	DWORD PTR [edx+16], xmm0

; 597  : 				cmd->sidemove *= cl_movespeedkey->value;

	mov	eax, DWORD PTR _cmd$[ebp]
	mov	ecx, DWORD PTR ?cl_movespeedkey@@3PAUcvar_s@@A ; cl_movespeedkey
	movss	xmm0, DWORD PTR [eax+20]
	mulss	xmm0, DWORD PTR [ecx+12]
	mov	edx, DWORD PTR _cmd$[ebp]
	movss	DWORD PTR [edx+20], xmm0

; 598  : 				cmd->upmove *= cl_movespeedkey->value;

	mov	eax, DWORD PTR _cmd$[ebp]
	mov	ecx, DWORD PTR ?cl_movespeedkey@@3PAUcvar_s@@A ; cl_movespeedkey
	movss	xmm0, DWORD PTR [eax+24]
	mulss	xmm0, DWORD PTR [ecx+12]
	mov	edx, DWORD PTR _cmd$[ebp]
	movss	DWORD PTR [edx+24], xmm0
$LN7@CL_CreateM:

; 599  : 			}
; 600  : 
; 601  : 			// clip to maxspeed
; 602  : 	//		spd = gEngfuncs.GetClientMaxspeed();
; 603  : 			// diffusion - FIXME!!! "fix" of increased movement speed when moving diagonally
; 604  : 			spd = (cl_forwardspeed->value + cl_backspeed->value + cl_sidespeed->value) / 3;

	mov	eax, DWORD PTR ?cl_forwardspeed@@3PAUcvar_s@@A ; cl_forwardspeed
	mov	ecx, DWORD PTR ?cl_backspeed@@3PAUcvar_s@@A ; cl_backspeed
	movss	xmm0, DWORD PTR [eax+12]
	addss	xmm0, DWORD PTR [ecx+12]
	mov	edx, DWORD PTR ?cl_sidespeed@@3PAUcvar_s@@A ; cl_sidespeed
	addss	xmm0, DWORD PTR [edx+12]
	divss	xmm0, DWORD PTR __real@40400000
	movss	DWORD PTR _spd$[ebp], xmm0

; 605  : 			if( spd != 0.0f )

	movss	xmm0, DWORD PTR _spd$[ebp]
	ucomiss	xmm0, DWORD PTR __real@00000000
	lahf
	test	ah, 68					; 00000044H
	jnp	$LN9@CL_CreateM

; 606  : 			{
; 607  : 				// scale the 3 speeds so that the total velocity is not > cl.maxspeed
; 608  : 				float fmov = sqrt( (cmd->forwardmove * cmd->forwardmove) + (cmd->sidemove * cmd->sidemove) + (cmd->upmove * cmd->upmove) );

	mov	eax, DWORD PTR _cmd$[ebp]
	mov	ecx, DWORD PTR _cmd$[ebp]
	movss	xmm0, DWORD PTR [eax+16]
	mulss	xmm0, DWORD PTR [ecx+16]
	mov	edx, DWORD PTR _cmd$[ebp]
	mov	eax, DWORD PTR _cmd$[ebp]
	movss	xmm1, DWORD PTR [edx+20]
	mulss	xmm1, DWORD PTR [eax+20]
	addss	xmm0, xmm1
	mov	ecx, DWORD PTR _cmd$[ebp]
	mov	edx, DWORD PTR _cmd$[ebp]
	movss	xmm1, DWORD PTR [ecx+24]
	mulss	xmm1, DWORD PTR [edx+24]
	addss	xmm0, xmm1
	cvtss2sd xmm0, xmm0
	sub	esp, 8
	movsd	QWORD PTR [esp], xmm0
	call	_sqrt
	add	esp, 8
	fstp	DWORD PTR _fmov$3[ebp]

; 609  : 
; 610  : 				if( fmov > spd )

	movss	xmm0, DWORD PTR _fmov$3[ebp]
	comiss	xmm0, DWORD PTR _spd$[ebp]
	jbe	SHORT $LN9@CL_CreateM

; 611  : 				{
; 612  : 					float fratio = spd / fmov;

	movss	xmm0, DWORD PTR _spd$[ebp]
	divss	xmm0, DWORD PTR _fmov$3[ebp]
	movss	DWORD PTR _fratio$2[ebp], xmm0

; 613  : 					cmd->forwardmove *= fratio;

	mov	eax, DWORD PTR _cmd$[ebp]
	movss	xmm0, DWORD PTR [eax+16]
	mulss	xmm0, DWORD PTR _fratio$2[ebp]
	mov	ecx, DWORD PTR _cmd$[ebp]
	movss	DWORD PTR [ecx+16], xmm0

; 614  : 					cmd->sidemove *= fratio;

	mov	eax, DWORD PTR _cmd$[ebp]
	movss	xmm0, DWORD PTR [eax+20]
	mulss	xmm0, DWORD PTR _fratio$2[ebp]
	mov	ecx, DWORD PTR _cmd$[ebp]
	movss	DWORD PTR [ecx+20], xmm0

; 615  : 					cmd->upmove *= fratio;

	mov	eax, DWORD PTR _cmd$[ebp]
	movss	xmm0, DWORD PTR [eax+24]
	mulss	xmm0, DWORD PTR _fratio$2[ebp]
	mov	ecx, DWORD PTR _cmd$[ebp]
	movss	DWORD PTR [ecx+24], xmm0
$LN9@CL_CreateM:

; 616  : 				}
; 617  : 			}
; 618  : 		}
; 619  : 
; 620  : 		// allow mice and other controllers to add their inputs
; 621  : 	//	if( !CL_IsDead( ))
; 622  : 			IN_Move( frametime, cmd );

	mov	eax, DWORD PTR _cmd$[ebp]
	push	eax
	push	ecx
	movss	xmm0, DWORD PTR _frametime$[ebp]
	movss	DWORD PTR [esp], xmm0
	call	?IN_Move@@YAXMPAUusercmd_s@@@Z		; IN_Move
	add	esp, 8
$LN3@CL_CreateM:

; 623  : 	}
; 624  : 
; 625  : 	cmd->impulse = in_impulse;

	mov	eax, DWORD PTR _cmd$[ebp]
	mov	cl, BYTE PTR ?in_impulse@@3HA
	mov	BYTE PTR [eax+32], cl

; 626  : 	in_impulse = 0;

	mov	DWORD PTR ?in_impulse@@3HA, 0		; in_impulse

; 627  : 
; 628  : 	cmd->weaponselect = g_weaponselect;

	mov	eax, DWORD PTR _cmd$[ebp]
	mov	cl, BYTE PTR ?g_weaponselect@@3HA
	mov	BYTE PTR [eax+33], cl

; 629  : 	g_weaponselect = 0;

	mov	DWORD PTR ?g_weaponselect@@3HA, 0	; g_weaponselect

; 630  : 
; 631  : 	// set button and flag bits
; 632  : 	cmd->buttons = CL_ButtonBits( 1 );

	push	1
	call	?CL_ButtonBits@@YAHH@Z			; CL_ButtonBits
	add	esp, 4
	mov	ecx, DWORD PTR _cmd$[ebp]
	mov	WORD PTR [ecx+30], ax

; 633  : 
; 634  : 	gEngfuncs.GetViewAngles( viewangles );

	lea	ecx, DWORD PTR _viewangles$[ebp]
	call	??BVector@@QAEPAMXZ			; Vector::operator float *
	push	eax
	call	DWORD PTR ?gEngfuncs@@3Ucl_enginefuncs_s@@A+136
	add	esp, 4

; 635  : 
; 636  : 	// Set current view angles.
; 637  : 	if( CL_IsDead( ))

	call	?CL_IsDead@@YAHXZ			; CL_IsDead
	test	eax, eax
	je	SHORT $LN10@CL_CreateM

; 638  : 		cmd->viewangles = oldangles;

	mov	eax, DWORD PTR _cmd$[ebp]
	add	eax, 4
	mov	ecx, DWORD PTR ?oldangles@?1??CL_CreateMove@@YAXMPAUusercmd_s@@H@Z@4VVector@@A
	mov	DWORD PTR [eax], ecx
	mov	edx, DWORD PTR ?oldangles@?1??CL_CreateMove@@YAXMPAUusercmd_s@@H@Z@4VVector@@A+4
	mov	DWORD PTR [eax+4], edx
	mov	ecx, DWORD PTR ?oldangles@?1??CL_CreateMove@@YAXMPAUusercmd_s@@H@Z@4VVector@@A+8
	mov	DWORD PTR [eax+8], ecx

; 639  : 	else

	jmp	SHORT $LN11@CL_CreateM
$LN10@CL_CreateM:

; 640  : 	{
; 641  : 		cmd->viewangles = viewangles;

	mov	eax, DWORD PTR _cmd$[ebp]
	add	eax, 4
	mov	ecx, DWORD PTR _viewangles$[ebp]
	mov	DWORD PTR [eax], ecx
	mov	edx, DWORD PTR _viewangles$[ebp+4]
	mov	DWORD PTR [eax+4], edx
	mov	ecx, DWORD PTR _viewangles$[ebp+8]
	mov	DWORD PTR [eax+8], ecx

; 642  : 		oldangles = viewangles;

	mov	eax, DWORD PTR _viewangles$[ebp]
	mov	DWORD PTR ?oldangles@?1??CL_CreateMove@@YAXMPAUusercmd_s@@H@Z@4VVector@@A, eax
	mov	ecx, DWORD PTR _viewangles$[ebp+4]
	mov	DWORD PTR ?oldangles@?1??CL_CreateMove@@YAXMPAUusercmd_s@@H@Z@4VVector@@A+4, ecx
	mov	edx, DWORD PTR _viewangles$[ebp+8]
	mov	DWORD PTR ?oldangles@?1??CL_CreateMove@@YAXMPAUusercmd_s@@H@Z@4VVector@@A+8, edx
$LN11@CL_CreateM:

; 643  : 	}
; 644  : }

	mov	ecx, DWORD PTR __$EHRec$[ebp]
	mov	DWORD PTR fs:0, ecx
	pop	ecx
	pop	edi
	pop	esi
	pop	ebx
	mov	esp, ebp
	pop	ebp
	ret	0
_TEXT	ENDS
;	COMDAT text$x
text$x	SEGMENT
__unwindfunclet$?CL_CreateMove@@YAXMPAUusercmd_s@@H@Z$0:
	push	OFFSET ?$TSS0@?1??CL_CreateMove@@YAXMPAUusercmd_s@@H@Z@4HA
	call	__Init_thread_abort
	pop	ecx
	ret	0
__ehhandler$?CL_CreateMove@@YAXMPAUusercmd_s@@H@Z:
	mov	edx, DWORD PTR [esp+8]
	lea	eax, DWORD PTR [edx+12]
	mov	ecx, DWORD PTR [edx-120]
	xor	ecx, eax
	call	@__security_check_cookie@4
	mov	eax, OFFSET __ehfuncinfo$?CL_CreateMove@@YAXMPAUusercmd_s@@H@Z
	jmp	___CxxFrameHandler3
text$x	ENDS
?CL_CreateMove@@YAXMPAUusercmd_s@@H@Z ENDP		; CL_CreateMove
; Function compile flags: /Odtp /ZI
; File d:\!diffusion 2020\source code 2022\client-server\client\input.cpp
;	COMDAT ?KB_Find@@YAPAXPBD@Z
_TEXT	SEGMENT
_p$ = -4						; size = 4
_name$ = 8						; size = 4
?KB_Find@@YAPAXPBD@Z PROC				; KB_Find, COMDAT

; 200  : {

	push	ebp
	mov	ebp, esp
	sub	esp, 68					; 00000044H
	push	ebx
	push	esi
	push	edi

; 201  : 	kblist_t *p;
; 202  : 	p = g_kbkeys;

	mov	eax, DWORD PTR ?g_kbkeys@@3PAUkblist_s@@A ; g_kbkeys
	mov	DWORD PTR _p$[ebp], eax
$LN2@KB_Find:

; 203  : 
; 204  : 	while( p )

	cmp	DWORD PTR _p$[ebp], 0
	je	SHORT $LN3@KB_Find

; 205  : 	{
; 206  : 		if( !Q_stricmp( name, p->name ))

	push	99999					; 0001869fH
	mov	eax, DWORD PTR _p$[ebp]
	add	eax, 8
	push	eax
	mov	ecx, DWORD PTR _name$[ebp]
	push	ecx
	call	?Q_strnicmp@@YAHPBD0H@Z			; Q_strnicmp
	add	esp, 12					; 0000000cH
	test	eax, eax
	jne	SHORT $LN4@KB_Find

; 207  : 			return p->pkey;

	mov	eax, DWORD PTR _p$[ebp]
	mov	eax, DWORD PTR [eax+4]
	jmp	SHORT $LN1@KB_Find
$LN4@KB_Find:

; 208  : 
; 209  : 		p = p->next;

	mov	eax, DWORD PTR _p$[ebp]
	mov	ecx, DWORD PTR [eax]
	mov	DWORD PTR _p$[ebp], ecx

; 210  : 	}

	jmp	SHORT $LN2@KB_Find
$LN3@KB_Find:

; 211  : 	return NULL;

	xor	eax, eax
$LN1@KB_Find:

; 212  : }

	pop	edi
	pop	esi
	pop	ebx
	mov	esp, ebp
	pop	ebp
	ret	0
?KB_Find@@YAPAXPBD@Z ENDP				; KB_Find
_TEXT	ENDS
; Function compile flags: /Odtp /ZI
; File d:\!diffusion 2020\source code 2022\client-server\client\input.cpp
;	COMDAT ?KB_ConvertString@@YAHPADPAPAD@Z
_TEXT	SEGMENT
_pBinding$ = -4180					; size = 4
_pEnd$ = -4176						; size = 4
_pOut$ = -4172						; size = 4
_p$ = -4168						; size = 4
_binding$ = -4164					; size = 64
_sz$ = -4100						; size = 4096
__$ArrayPad$ = -4					; size = 4
_in$ = 8						; size = 4
_ppout$ = 12						; size = 4
?KB_ConvertString@@YAHPADPAPAD@Z PROC			; KB_ConvertString, COMDAT

; 125  : {

	push	ebp
	mov	ebp, esp
	mov	eax, 4692				; 00001254H
	call	__chkstk
	mov	eax, DWORD PTR ___security_cookie
	xor	eax, ebp
	mov	DWORD PTR __$ArrayPad$[ebp], eax
	push	ebx
	push	esi
	push	edi

; 126  : 	if( !ppout )

	cmp	DWORD PTR _ppout$[ebp], 0
	jne	SHORT $LN8@KB_Convert

; 127  : 		return 0;

	xor	eax, eax
	jmp	$LN1@KB_Convert
$LN8@KB_Convert:

; 128  : 
; 129  : 	char sz[4096];
; 130  : 	char binding[64];
; 131  : 	char *p, *pOut, *pEnd;
; 132  : 	const char *pBinding;
; 133  : 
; 134  : 	*ppout = NULL;

	mov	eax, DWORD PTR _ppout$[ebp]
	mov	DWORD PTR [eax], 0

; 135  : 	p = in;

	mov	eax, DWORD PTR _in$[ebp]
	mov	DWORD PTR _p$[ebp], eax

; 136  : 	pOut = sz;

	lea	eax, DWORD PTR _sz$[ebp]
	mov	DWORD PTR _pOut$[ebp], eax
$LN2@KB_Convert:

; 137  : 
; 138  : 	while( *p )

	mov	eax, DWORD PTR _p$[ebp]
	movsx	ecx, BYTE PTR [eax]
	test	ecx, ecx
	je	$LN3@KB_Convert

; 139  : 	{
; 140  : 		if( *p == '+' )

	mov	eax, DWORD PTR _p$[ebp]
	movsx	ecx, BYTE PTR [eax]
	cmp	ecx, 43					; 0000002bH
	jne	$LN9@KB_Convert

; 141  : 		{
; 142  : 			pEnd = binding;

	lea	eax, DWORD PTR _binding$[ebp]
	mov	DWORD PTR _pEnd$[ebp], eax
$LN4@KB_Convert:

; 143  : 			while( *p && ( isalnum( *p ) || ( pEnd == binding )) && (( pEnd - binding ) < 63 ))

	mov	eax, DWORD PTR _p$[ebp]
	movsx	ecx, BYTE PTR [eax]
	test	ecx, ecx
	je	SHORT $LN5@KB_Convert
	mov	eax, DWORD PTR _p$[ebp]
	movsx	ecx, BYTE PTR [eax]
	push	ecx
	call	_isalnum
	add	esp, 4
	test	eax, eax
	jne	SHORT $LN11@KB_Convert
	lea	eax, DWORD PTR _binding$[ebp]
	cmp	DWORD PTR _pEnd$[ebp], eax
	jne	SHORT $LN5@KB_Convert
$LN11@KB_Convert:
	mov	eax, DWORD PTR _pEnd$[ebp]
	lea	ecx, DWORD PTR _binding$[ebp]
	sub	eax, ecx
	cmp	eax, 63					; 0000003fH
	jge	SHORT $LN5@KB_Convert

; 144  : 			{
; 145  : 				*pEnd++ = *p++;

	mov	eax, DWORD PTR _pEnd$[ebp]
	mov	ecx, DWORD PTR _p$[ebp]
	mov	dl, BYTE PTR [ecx]
	mov	BYTE PTR [eax], dl
	mov	eax, DWORD PTR _pEnd$[ebp]
	add	eax, 1
	mov	DWORD PTR _pEnd$[ebp], eax
	mov	ecx, DWORD PTR _p$[ebp]
	add	ecx, 1
	mov	DWORD PTR _p$[ebp], ecx

; 146  : 			}

	jmp	SHORT $LN4@KB_Convert
$LN5@KB_Convert:

; 147  : 
; 148  : 			*pEnd =  '\0';

	mov	eax, DWORD PTR _pEnd$[ebp]
	mov	BYTE PTR [eax], 0

; 149  : 
; 150  : 			pBinding = NULL;

	mov	DWORD PTR _pBinding$[ebp], 0

; 151  : 			if( Q_strlen( binding + 1 ) > 0 )

	lea	eax, DWORD PTR _binding$[ebp+1]
	push	eax
	call	?Q_strlen@@YAHPBD@Z			; Q_strlen
	add	esp, 4
	test	eax, eax
	jle	SHORT $LN12@KB_Convert

; 152  : 			{
; 153  : 				// See if there is a binding for binding?
; 154  : 				pBinding = gEngfuncs.Key_LookupBinding( binding + 1 );

	lea	eax, DWORD PTR _binding$[ebp+1]
	push	eax
	call	DWORD PTR ?gEngfuncs@@3Ucl_enginefuncs_s@@A+292
	add	esp, 4
	mov	DWORD PTR _pBinding$[ebp], eax
$LN12@KB_Convert:

; 155  : 			}
; 156  : 
; 157  : 			if( pBinding )

	cmp	DWORD PTR _pBinding$[ebp], 0
	je	SHORT $LN13@KB_Convert

; 158  : 			{
; 159  : 				*pOut++ = '[';

	mov	eax, DWORD PTR _pOut$[ebp]
	mov	BYTE PTR [eax], 91			; 0000005bH
	mov	ecx, DWORD PTR _pOut$[ebp]
	add	ecx, 1
	mov	DWORD PTR _pOut$[ebp], ecx

; 160  : 				pEnd = (char *)pBinding;

	mov	eax, DWORD PTR _pBinding$[ebp]
	mov	DWORD PTR _pEnd$[ebp], eax

; 161  : 			}
; 162  : 			else

	jmp	SHORT $LN6@KB_Convert
$LN13@KB_Convert:

; 163  : 			{
; 164  : 				pEnd = binding;

	lea	eax, DWORD PTR _binding$[ebp]
	mov	DWORD PTR _pEnd$[ebp], eax
$LN6@KB_Convert:

; 165  : 			}
; 166  : 
; 167  : 			while( *pEnd )

	mov	eax, DWORD PTR _pEnd$[ebp]
	movsx	ecx, BYTE PTR [eax]
	test	ecx, ecx
	je	SHORT $LN7@KB_Convert

; 168  : 			{
; 169  : 				*pOut++ = *pEnd++;

	mov	eax, DWORD PTR _pOut$[ebp]
	mov	ecx, DWORD PTR _pEnd$[ebp]
	mov	dl, BYTE PTR [ecx]
	mov	BYTE PTR [eax], dl
	mov	eax, DWORD PTR _pOut$[ebp]
	add	eax, 1
	mov	DWORD PTR _pOut$[ebp], eax
	mov	ecx, DWORD PTR _pEnd$[ebp]
	add	ecx, 1
	mov	DWORD PTR _pEnd$[ebp], ecx

; 170  : 			}

	jmp	SHORT $LN6@KB_Convert
$LN7@KB_Convert:

; 171  : 
; 172  : 			if( pBinding )

	cmp	DWORD PTR _pBinding$[ebp], 0
	je	SHORT $LN15@KB_Convert

; 173  : 			{
; 174  : 				*pOut++ = ']';

	mov	eax, DWORD PTR _pOut$[ebp]
	mov	BYTE PTR [eax], 93			; 0000005dH
	mov	ecx, DWORD PTR _pOut$[ebp]
	add	ecx, 1
	mov	DWORD PTR _pOut$[ebp], ecx
$LN15@KB_Convert:

; 175  : 			}
; 176  : 		}
; 177  : 		else

	jmp	SHORT $LN10@KB_Convert
$LN9@KB_Convert:

; 178  : 		{
; 179  : 			*pOut++ = *p++;

	mov	eax, DWORD PTR _pOut$[ebp]
	mov	ecx, DWORD PTR _p$[ebp]
	mov	dl, BYTE PTR [ecx]
	mov	BYTE PTR [eax], dl
	mov	eax, DWORD PTR _pOut$[ebp]
	add	eax, 1
	mov	DWORD PTR _pOut$[ebp], eax
	mov	ecx, DWORD PTR _p$[ebp]
	add	ecx, 1
	mov	DWORD PTR _p$[ebp], ecx
$LN10@KB_Convert:

; 180  : 		}
; 181  : 	}

	jmp	$LN2@KB_Convert
$LN3@KB_Convert:

; 182  : 
; 183  : 	*pOut = '\0';

	mov	eax, DWORD PTR _pOut$[ebp]
	mov	BYTE PTR [eax], 0

; 184  : 
; 185  : 	pOut = ( char * )malloc( Q_strlen( sz ) + 1 );

	lea	eax, DWORD PTR _sz$[ebp]
	push	eax
	call	?Q_strlen@@YAHPBD@Z			; Q_strlen
	add	esp, 4
	add	eax, 1
	push	eax
	call	_malloc
	add	esp, 4
	mov	DWORD PTR _pOut$[ebp], eax

; 186  : 	Q_strcpy( pOut, sz );

	push	99999					; 0001869fH
	lea	eax, DWORD PTR _sz$[ebp]
	push	eax
	mov	ecx, DWORD PTR _pOut$[ebp]
	push	ecx
	call	?Q_strncpy@@YAIPADPBDI@Z		; Q_strncpy
	add	esp, 12					; 0000000cH

; 187  : 	*ppout = pOut;

	mov	eax, DWORD PTR _ppout$[ebp]
	mov	ecx, DWORD PTR _pOut$[ebp]
	mov	DWORD PTR [eax], ecx

; 188  : 
; 189  : 	return 1;

	mov	eax, 1
$LN1@KB_Convert:

; 190  : }

	pop	edi
	pop	esi
	pop	ebx
	mov	ecx, DWORD PTR __$ArrayPad$[ebp]
	xor	ecx, ebp
	call	@__security_check_cookie@4
	mov	esp, ebp
	pop	ebp
	ret	0
?KB_ConvertString@@YAHPADPAPAD@Z ENDP			; KB_ConvertString
_TEXT	ENDS
; Function compile flags: /Odtp /ZI
; File d:\!diffusion 2020\source code 2022\client-server\client\input.cpp
;	COMDAT ?ShutdownInput@@YAXXZ
_TEXT	SEGMENT
?ShutdownInput@@YAXXZ PROC				; ShutdownInput, COMDAT

; 899  : {

	push	ebp
	mov	ebp, esp
	sub	esp, 64					; 00000040H
	push	ebx
	push	esi
	push	edi

; 900  : 	IN_Shutdown();

	call	?IN_Shutdown@@YAXXZ			; IN_Shutdown

; 901  : 	KB_Shutdown();

	call	?KB_Shutdown@@YAXXZ			; KB_Shutdown

; 902  : }

	pop	edi
	pop	esi
	pop	ebx
	mov	esp, ebp
	pop	ebp
	ret	0
?ShutdownInput@@YAXXZ ENDP				; ShutdownInput
_TEXT	ENDS
; Function compile flags: /Odtp /ZI
; File d:\!diffusion 2020\source code 2022\client-server\client\input.cpp
;	COMDAT ?InitInput@@YAXXZ
_TEXT	SEGMENT
?InitInput@@YAXXZ PROC					; InitInput, COMDAT

; 809  : {

	push	ebp
	mov	ebp, esp
	sub	esp, 64					; 00000040H
	push	ebx
	push	esi
	push	edi

; 810  : 	ADD_COMMAND ("+moveup", IN_UpDown);

	push	OFFSET ?IN_UpDown@@YAXXZ		; IN_UpDown
	push	OFFSET ??_C@_07CKGNAPCP@?$CLmoveup?$AA@
	call	DWORD PTR ?gEngfuncs@@3Ucl_enginefuncs_s@@A+68
	add	esp, 8

; 811  : 	ADD_COMMAND ("-moveup", IN_UpUp);

	push	OFFSET ?IN_UpUp@@YAXXZ			; IN_UpUp
	push	OFFSET ??_C@_07OMACAGKI@?9moveup?$AA@
	call	DWORD PTR ?gEngfuncs@@3Ucl_enginefuncs_s@@A+68
	add	esp, 8

; 812  : 	ADD_COMMAND ("+movedown", IN_DownDown);

	push	OFFSET ?IN_DownDown@@YAXXZ		; IN_DownDown
	push	OFFSET ??_C@_09HNJJMOJG@?$CLmovedown?$AA@
	call	DWORD PTR ?gEngfuncs@@3Ucl_enginefuncs_s@@A+68
	add	esp, 8

; 813  : 	ADD_COMMAND ("-movedown", IN_DownUp);

	push	OFFSET ?IN_DownUp@@YAXXZ		; IN_DownUp
	push	OFFSET ??_C@_09HAIHLONB@?9movedown?$AA@
	call	DWORD PTR ?gEngfuncs@@3Ucl_enginefuncs_s@@A+68
	add	esp, 8

; 814  : 	ADD_COMMAND ("+left", IN_LeftDown);

	push	OFFSET ?IN_LeftDown@@YAXXZ		; IN_LeftDown
	push	OFFSET ??_C@_05HEGFDNLE@?$CLleft?$AA@
	call	DWORD PTR ?gEngfuncs@@3Ucl_enginefuncs_s@@A+68
	add	esp, 8

; 815  : 	ADD_COMMAND ("-left", IN_LeftUp);

	push	OFFSET ?IN_LeftUp@@YAXXZ		; IN_LeftUp
	push	OFFSET ??_C@_05KCDMNOKJ@?9left?$AA@
	call	DWORD PTR ?gEngfuncs@@3Ucl_enginefuncs_s@@A+68
	add	esp, 8

; 816  : 	ADD_COMMAND ("+right", IN_RightDown);

	push	OFFSET ?IN_RightDown@@YAXXZ		; IN_RightDown
	push	OFFSET ??_C@_06NGIHBNMB@?$CLright?$AA@
	call	DWORD PTR ?gEngfuncs@@3Ucl_enginefuncs_s@@A+68
	add	esp, 8

; 817  : 	ADD_COMMAND ("-right", IN_RightUp);

	push	OFFSET ?IN_RightUp@@YAXXZ		; IN_RightUp
	push	OFFSET ??_C@_06LFFHCIPL@?9right?$AA@
	call	DWORD PTR ?gEngfuncs@@3Ucl_enginefuncs_s@@A+68
	add	esp, 8

; 818  : 	ADD_COMMAND ("+forward", IN_ForwardDown);

	push	OFFSET ?IN_ForwardDown@@YAXXZ		; IN_ForwardDown
	push	OFFSET ??_C@_08KKEOHAPB@?$CLforward?$AA@
	call	DWORD PTR ?gEngfuncs@@3Ucl_enginefuncs_s@@A+68
	add	esp, 8

; 819  : 	ADD_COMMAND ("-forward", IN_ForwardUp);

	push	OFFSET ?IN_ForwardUp@@YAXXZ		; IN_ForwardUp
	push	OFFSET ??_C@_08NJFEAJHL@?9forward?$AA@
	call	DWORD PTR ?gEngfuncs@@3Ucl_enginefuncs_s@@A+68
	add	esp, 8

; 820  : 	ADD_COMMAND ("+back", IN_BackDown);

	push	OFFSET ?IN_BackDown@@YAXXZ		; IN_BackDown
	push	OFFSET ??_C@_05IPKGNIPH@?$CLback?$AA@
	call	DWORD PTR ?gEngfuncs@@3Ucl_enginefuncs_s@@A+68
	add	esp, 8

; 821  : 	ADD_COMMAND ("-back", IN_BackUp);

	push	OFFSET ?IN_BackUp@@YAXXZ		; IN_BackUp
	push	OFFSET ??_C@_05FJPPDLOK@?9back?$AA@
	call	DWORD PTR ?gEngfuncs@@3Ucl_enginefuncs_s@@A+68
	add	esp, 8

; 822  : 	ADD_COMMAND ("+lookup", IN_LookupDown);

	push	OFFSET ?IN_LookupDown@@YAXXZ		; IN_LookupDown
	push	OFFSET ??_C@_07BDFIGFL@?$CLlookup?$AA@
	call	DWORD PTR ?gEngfuncs@@3Ucl_enginefuncs_s@@A+68
	add	esp, 8

; 823  : 	ADD_COMMAND ("-lookup", IN_LookupUp);

	push	OFFSET ?IN_LookupUp@@YAXXZ		; IN_LookupUp
	push	OFFSET ??_C@_07MHFKIPNM@?9lookup?$AA@
	call	DWORD PTR ?gEngfuncs@@3Ucl_enginefuncs_s@@A+68
	add	esp, 8

; 824  : 	ADD_COMMAND ("+lookdown", IN_LookdownDown);

	push	OFFSET ?IN_LookdownDown@@YAXXZ		; IN_LookdownDown
	push	OFFSET ??_C@_09KCKOGCLI@?$CLlookdown?$AA@
	call	DWORD PTR ?gEngfuncs@@3Ucl_enginefuncs_s@@A+68
	add	esp, 8

; 825  : 	ADD_COMMAND ("-lookdown", IN_LookdownUp);

	push	OFFSET ?IN_LookdownUp@@YAXXZ		; IN_LookdownUp
	push	OFFSET ??_C@_09KPLABCPP@?9lookdown?$AA@
	call	DWORD PTR ?gEngfuncs@@3Ucl_enginefuncs_s@@A+68
	add	esp, 8

; 826  : 	ADD_COMMAND ("+strafe", IN_StrafeDown);

	push	OFFSET ?IN_StrafeDown@@YAXXZ		; IN_StrafeDown
	push	OFFSET ??_C@_07CHKKNAEO@?$CLstrafe?$AA@
	call	DWORD PTR ?gEngfuncs@@3Ucl_enginefuncs_s@@A+68
	add	esp, 8

; 827  : 	ADD_COMMAND ("-strafe", IN_StrafeUp);

	push	OFFSET ?IN_StrafeUp@@YAXXZ		; IN_StrafeUp
	push	OFFSET ??_C@_07OBMFNJMJ@?9strafe?$AA@
	call	DWORD PTR ?gEngfuncs@@3Ucl_enginefuncs_s@@A+68
	add	esp, 8

; 828  : 	ADD_COMMAND ("+moveleft", IN_MoveleftDown);

	push	OFFSET ?IN_MoveleftDown@@YAXXZ		; IN_MoveleftDown
	push	OFFSET ??_C@_09IPJNFGKP@?$CLmoveleft?$AA@
	call	DWORD PTR ?gEngfuncs@@3Ucl_enginefuncs_s@@A+68
	add	esp, 8

; 829  : 	ADD_COMMAND ("-moveleft", IN_MoveleftUp);

	push	OFFSET ?IN_MoveleftUp@@YAXXZ		; IN_MoveleftUp
	push	OFFSET ??_C@_09ICIDCGOI@?9moveleft?$AA@
	call	DWORD PTR ?gEngfuncs@@3Ucl_enginefuncs_s@@A+68
	add	esp, 8

; 830  : 	ADD_COMMAND ("+moveright", IN_MoverightDown);

	push	OFFSET ?IN_MoverightDown@@YAXXZ		; IN_MoverightDown
	push	OFFSET ??_C@_0L@FMBJCMEG@?$CLmoveright?$AA@
	call	DWORD PTR ?gEngfuncs@@3Ucl_enginefuncs_s@@A+68
	add	esp, 8

; 831  : 	ADD_COMMAND ("-moveright", IN_MoverightUp);

	push	OFFSET ?IN_MoverightUp@@YAXXZ		; IN_MoverightUp
	push	OFFSET ??_C@_0L@LEKMOGAF@?9moveright?$AA@
	call	DWORD PTR ?gEngfuncs@@3Ucl_enginefuncs_s@@A+68
	add	esp, 8

; 832  : 	ADD_COMMAND ("+speed", IN_SpeedDown);

	push	OFFSET ?IN_SpeedDown@@YAXXZ		; IN_SpeedDown
	push	OFFSET ??_C@_06JIDIHCBO@?$CLspeed?$AA@
	call	DWORD PTR ?gEngfuncs@@3Ucl_enginefuncs_s@@A+68
	add	esp, 8

; 833  : 	ADD_COMMAND ("-speed", IN_SpeedUp);

	push	OFFSET ?IN_SpeedUp@@YAXXZ		; IN_SpeedUp
	push	OFFSET ??_C@_06PLOIEHCE@?9speed?$AA@
	call	DWORD PTR ?gEngfuncs@@3Ucl_enginefuncs_s@@A+68
	add	esp, 8

; 834  : 	ADD_COMMAND ("+attack", IN_AttackDown);

	push	OFFSET ?IN_AttackDown@@YAXXZ		; IN_AttackDown
	push	OFFSET ??_C@_07MAODEHGM@?$CLattack?$AA@
	call	DWORD PTR ?gEngfuncs@@3Ucl_enginefuncs_s@@A+68
	add	esp, 8

; 835  : 	ADD_COMMAND ("-attack", IN_AttackUp);

	push	OFFSET ?IN_AttackUp@@YAXXZ		; IN_AttackUp
	push	OFFSET ??_C@_07GIMEOOL@?9attack?$AA@
	call	DWORD PTR ?gEngfuncs@@3Ucl_enginefuncs_s@@A+68
	add	esp, 8

; 836  : 	ADD_COMMAND ("+attack2", IN_Attack2Down);

	push	OFFSET ?IN_Attack2Down@@YAXXZ		; IN_Attack2Down
	push	OFFSET ??_C@_08KJLEJKEF@?$CLattack2?$AA@
	call	DWORD PTR ?gEngfuncs@@3Ucl_enginefuncs_s@@A+68
	add	esp, 8

; 837  : 	ADD_COMMAND ("-attack2", IN_Attack2Up);

	push	OFFSET ?IN_Attack2Up@@YAXXZ		; IN_Attack2Up
	push	OFFSET ??_C@_08NKKOODMP@?9attack2?$AA@
	call	DWORD PTR ?gEngfuncs@@3Ucl_enginefuncs_s@@A+68
	add	esp, 8

; 838  : 	ADD_COMMAND ("+use", IN_UseDown);

	push	OFFSET ?IN_UseDown@@YAXXZ		; IN_UseDown
	push	OFFSET ??_C@_04JNBAAPLC@?$CLuse?$AA@
	call	DWORD PTR ?gEngfuncs@@3Ucl_enginefuncs_s@@A+68
	add	esp, 8

; 839  : 	ADD_COMMAND ("-use", IN_UseUp);

	push	OFFSET ?IN_UseUp@@YAXXZ			; IN_UseUp
	push	OFFSET ??_C@_04BCFAPKBC@?9use?$AA@
	call	DWORD PTR ?gEngfuncs@@3Ucl_enginefuncs_s@@A+68
	add	esp, 8

; 840  : 	ADD_COMMAND ("+jump", IN_JumpDown);

	push	OFFSET ?IN_JumpDown@@YAXXZ		; IN_JumpDown
	push	OFFSET ??_C@_05MDAFLFGO@?$CLjump?$AA@
	call	DWORD PTR ?gEngfuncs@@3Ucl_enginefuncs_s@@A+68
	add	esp, 8

; 841  : 	ADD_COMMAND ("-jump", IN_JumpUp);

	push	OFFSET ?IN_JumpUp@@YAXXZ		; IN_JumpUp
	push	OFFSET ??_C@_05BFFMFGHD@?9jump?$AA@
	call	DWORD PTR ?gEngfuncs@@3Ucl_enginefuncs_s@@A+68
	add	esp, 8

; 842  : 	ADD_COMMAND ("impulse", IN_Impulse);

	push	OFFSET ?IN_Impulse@@YAXXZ		; IN_Impulse
	push	OFFSET ??_C@_07LKMFNFAN@impulse?$AA@
	call	DWORD PTR ?gEngfuncs@@3Ucl_enginefuncs_s@@A+68
	add	esp, 8

; 843  : 	ADD_COMMAND ("+klook", IN_KLookDown);

	push	OFFSET ?IN_KLookDown@@YAXXZ		; IN_KLookDown
	push	OFFSET ??_C@_06DHBPPBBG@?$CLklook?$AA@
	call	DWORD PTR ?gEngfuncs@@3Ucl_enginefuncs_s@@A+68
	add	esp, 8

; 844  : 	ADD_COMMAND ("-klook", IN_KLookUp);

	push	OFFSET ?IN_KLookUp@@YAXXZ		; IN_KLookUp
	push	OFFSET ??_C@_06FEMPMECM@?9klook?$AA@
	call	DWORD PTR ?gEngfuncs@@3Ucl_enginefuncs_s@@A+68
	add	esp, 8

; 845  : 	ADD_COMMAND ("+mlook", IN_MLookDown);

	push	OFFSET ?IN_MLookDown@@YAXXZ		; IN_MLookDown
	push	OFFSET ??_C@_06OBEGBCAL@?$CLmlook?$AA@
	call	DWORD PTR ?gEngfuncs@@3Ucl_enginefuncs_s@@A+68
	add	esp, 8

; 846  : 	ADD_COMMAND ("-mlook", IN_MLookUp);

	push	OFFSET ?IN_MLookUp@@YAXXZ		; IN_MLookUp
	push	OFFSET ??_C@_06ICJGCHDB@?9mlook?$AA@
	call	DWORD PTR ?gEngfuncs@@3Ucl_enginefuncs_s@@A+68
	add	esp, 8

; 847  : 	ADD_COMMAND ("+jlook", IN_JLookDown);

	push	OFFSET ?IN_JLookDown@@YAXXZ		; IN_JLookDown
	push	OFFSET ??_C@_06PMEDCCLD@?$CLjlook?$AA@
	call	DWORD PTR ?gEngfuncs@@3Ucl_enginefuncs_s@@A+68
	add	esp, 8

; 848  : 	ADD_COMMAND ("-jlook", IN_JLookUp);

	push	OFFSET ?IN_JLookUp@@YAXXZ		; IN_JLookUp
	push	OFFSET ??_C@_06JPJDBHIJ@?9jlook?$AA@
	call	DWORD PTR ?gEngfuncs@@3Ucl_enginefuncs_s@@A+68
	add	esp, 8

; 849  : 	ADD_COMMAND ("+duck", IN_DuckDown);

	push	OFFSET ?IN_DuckDown@@YAXXZ		; IN_DuckDown
	push	OFFSET ??_C@_05NPJNONJP@?$CLduck?$AA@
	call	DWORD PTR ?gEngfuncs@@3Ucl_enginefuncs_s@@A+68
	add	esp, 8

; 850  : 	ADD_COMMAND ("-duck", IN_DuckUp);

	push	OFFSET ?IN_DuckUp@@YAXXZ		; IN_DuckUp
	push	OFFSET ??_C@_05JMEAOIC@?9duck?$AA@
	call	DWORD PTR ?gEngfuncs@@3Ucl_enginefuncs_s@@A+68
	add	esp, 8

; 851  : 	ADD_COMMAND( "duck_t", IN_DuckToggle );

	push	OFFSET ?IN_DuckToggle@@YAXXZ		; IN_DuckToggle
	push	OFFSET ??_C@_06FIIDHMOF@duck_t?$AA@
	call	DWORD PTR ?gEngfuncs@@3Ucl_enginefuncs_s@@A+68
	add	esp, 8

; 852  : 	ADD_COMMAND ("+reload", IN_ReloadDown);

	push	OFFSET ?IN_ReloadDown@@YAXXZ		; IN_ReloadDown
	push	OFFSET ??_C@_07GKAMHDNA@?$CLreload?$AA@
	call	DWORD PTR ?gEngfuncs@@3Ucl_enginefuncs_s@@A+68
	add	esp, 8

; 853  : 	ADD_COMMAND ("-reload", IN_ReloadUp);

	push	OFFSET ?IN_ReloadUp@@YAXXZ		; IN_ReloadUp
	push	OFFSET ??_C@_07KMGDHKFH@?9reload?$AA@
	call	DWORD PTR ?gEngfuncs@@3Ucl_enginefuncs_s@@A+68
	add	esp, 8

; 854  : 	ADD_COMMAND ("+alt1", IN_Alt1Down);

	push	OFFSET ?IN_Alt1Down@@YAXXZ		; IN_Alt1Down
	push	OFFSET ??_C@_05GDFBHKNB@?$CLalt1?$AA@
	call	DWORD PTR ?gEngfuncs@@3Ucl_enginefuncs_s@@A+68
	add	esp, 8

; 855  : 	ADD_COMMAND ("-alt1", IN_Alt1Up);

	push	OFFSET ?IN_Alt1Up@@YAXXZ		; IN_Alt1Up
	push	OFFSET ??_C@_05LFAIJJMM@?9alt1?$AA@
	call	DWORD PTR ?gEngfuncs@@3Ucl_enginefuncs_s@@A+68
	add	esp, 8

; 856  : 	ADD_COMMAND ("+graph", IN_GraphDown);

	push	OFFSET ?IN_GraphDown@@YAXXZ		; IN_GraphDown
	push	OFFSET ??_C@_06EDIFNIDD@?$CLgraph?$AA@
	call	DWORD PTR ?gEngfuncs@@3Ucl_enginefuncs_s@@A+68
	add	esp, 8

; 857  : 	ADD_COMMAND ("-graph", IN_GraphUp);

	push	OFFSET ?IN_GraphUp@@YAXXZ		; IN_GraphUp
	push	OFFSET ??_C@_06CAFFONAJ@?9graph?$AA@
	call	DWORD PTR ?gEngfuncs@@3Ucl_enginefuncs_s@@A+68
	add	esp, 8

; 858  : 	ADD_COMMAND ("+score", IN_ScoreDown);

	push	OFFSET ?IN_ScoreDown@@YAXXZ		; IN_ScoreDown
	push	OFFSET ??_C@_06NALHPLJM@?$CLscore?$AA@
	call	DWORD PTR ?gEngfuncs@@3Ucl_enginefuncs_s@@A+68
	add	esp, 8

; 859  : 	ADD_COMMAND ("-score", IN_ScoreUp);

	push	OFFSET ?IN_ScoreUp@@YAXXZ		; IN_ScoreUp
	push	OFFSET ??_C@_06LDGHMOKG@?9score?$AA@
	call	DWORD PTR ?gEngfuncs@@3Ucl_enginefuncs_s@@A+68
	add	esp, 8

; 860  : 	ADD_COMMAND ("+break", IN_BreakDown);

	push	OFFSET ?IN_BreakDown@@YAXXZ		; IN_BreakDown
	push	OFFSET ??_C@_06KKODEEFD@?$CLbreak?$AA@
	call	DWORD PTR ?gEngfuncs@@3Ucl_enginefuncs_s@@A+68
	add	esp, 8

; 861  : 	ADD_COMMAND ("-break", IN_BreakUp);

	push	OFFSET ?IN_BreakUp@@YAXXZ		; IN_BreakUp
	push	OFFSET ??_C@_06MJDDHBGJ@?9break?$AA@
	call	DWORD PTR ?gEngfuncs@@3Ucl_enginefuncs_s@@A+68
	add	esp, 8

; 862  : 	ADD_COMMAND ("-sprint", IN_SprintUp); //DiffusionSprint

	push	OFFSET ?IN_SprintUp@@YAXXZ		; IN_SprintUp
	push	OFFSET ??_C@_07OCCKMBJI@?9sprint?$AA@
	call	DWORD PTR ?gEngfuncs@@3Ucl_enginefuncs_s@@A+68
	add	esp, 8

; 863  : 	ADD_COMMAND ("+sprint", IN_SprintDown);  // -----------

	push	OFFSET ?IN_SprintDown@@YAXXZ		; IN_SprintDown
	push	OFFSET ??_C@_07CEEFMIBP@?$CLsprint?$AA@
	call	DWORD PTR ?gEngfuncs@@3Ucl_enginefuncs_s@@A+68
	add	esp, 8

; 864  : 
; 865  : 	lookstrafe	= CVAR_REGISTER ( "lookstrafe", "0", FCVAR_ARCHIVE );

	push	1
	push	OFFSET ??_C@_01GBGANLPD@0?$AA@
	push	OFFSET ??_C@_0L@PJGKGJFB@lookstrafe?$AA@
	call	DWORD PTR ?gEngfuncs@@3Ucl_enginefuncs_s@@A+56
	add	esp, 12					; 0000000cH
	mov	DWORD PTR ?lookstrafe@@3PAUcvar_s@@A, eax ; lookstrafe

; 866  : 	lookspring	= CVAR_REGISTER ( "lookspring", "0", FCVAR_ARCHIVE );

	push	1
	push	OFFSET ??_C@_01GBGANLPD@0?$AA@
	push	OFFSET ??_C@_0L@JLGKDAJC@lookspring?$AA@
	call	DWORD PTR ?gEngfuncs@@3Ucl_enginefuncs_s@@A+56
	add	esp, 12					; 0000000cH
	mov	DWORD PTR ?lookspring@@3PAUcvar_s@@A, eax ; lookspring

; 867  : 	cl_anglespeedkey	= CVAR_REGISTER ( "cl_anglespeedkey", "0.67", 0 );

	push	0
	push	OFFSET ??_C@_04GIPAFBHP@0?467?$AA@
	push	OFFSET ??_C@_0BB@FCKNHEAF@cl_anglespeedkey?$AA@
	call	DWORD PTR ?gEngfuncs@@3Ucl_enginefuncs_s@@A+56
	add	esp, 12					; 0000000cH
	mov	DWORD PTR ?cl_anglespeedkey@@3PAUcvar_s@@A, eax ; cl_anglespeedkey

; 868  : 	cl_yawspeed	= CVAR_REGISTER ( "cl_yawspeed", "210", 0 );

	push	0
	push	OFFSET ??_C@_03HOHGKJJN@210?$AA@
	push	OFFSET ??_C@_0M@JHKIFKKF@cl_yawspeed?$AA@
	call	DWORD PTR ?gEngfuncs@@3Ucl_enginefuncs_s@@A+56
	add	esp, 12					; 0000000cH
	mov	DWORD PTR ?cl_yawspeed@@3PAUcvar_s@@A, eax ; cl_yawspeed

; 869  : 	cl_pitchspeed	= CVAR_REGISTER ( "cl_pitchspeed", "225", 0 );

	push	0
	push	OFFSET ??_C@_03BEHODIB@225?$AA@
	push	OFFSET ??_C@_0O@KLONPPKB@cl_pitchspeed?$AA@
	call	DWORD PTR ?gEngfuncs@@3Ucl_enginefuncs_s@@A+56
	add	esp, 12					; 0000000cH
	mov	DWORD PTR ?cl_pitchspeed@@3PAUcvar_s@@A, eax ; cl_pitchspeed

; 870  : 	cl_upspeed	= CVAR_REGISTER ( "cl_upspeed", "320", 0 );

	push	0
	push	OFFSET ??_C@_03MEIMHAKB@320?$AA@
	push	OFFSET ??_C@_0L@ELHKEFF@cl_upspeed?$AA@
	call	DWORD PTR ?gEngfuncs@@3Ucl_enginefuncs_s@@A+56
	add	esp, 12					; 0000000cH
	mov	DWORD PTR ?cl_upspeed@@3PAUcvar_s@@A, eax ; cl_upspeed

; 871  : 	cl_forwardspeed	= CVAR_REGISTER ( "cl_forwardspeed", "400", FCVAR_ARCHIVE );

	push	1
	push	OFFSET ??_C@_03FKNPJMHG@400?$AA@
	push	OFFSET ??_C@_0BA@NOBHMJJP@cl_forwardspeed?$AA@
	call	DWORD PTR ?gEngfuncs@@3Ucl_enginefuncs_s@@A+56
	add	esp, 12					; 0000000cH
	mov	DWORD PTR ?cl_forwardspeed@@3PAUcvar_s@@A, eax ; cl_forwardspeed

; 872  : 	cl_backspeed	= CVAR_REGISTER ( "cl_backspeed", "400", FCVAR_ARCHIVE );

	push	1
	push	OFFSET ??_C@_03FKNPJMHG@400?$AA@
	push	OFFSET ??_C@_0N@PLGCMGJC@cl_backspeed?$AA@
	call	DWORD PTR ?gEngfuncs@@3Ucl_enginefuncs_s@@A+56
	add	esp, 12					; 0000000cH
	mov	DWORD PTR ?cl_backspeed@@3PAUcvar_s@@A, eax ; cl_backspeed

; 873  : 	cl_sidespeed	= CVAR_REGISTER ( "cl_sidespeed", "400", 0 );

	push	0
	push	OFFSET ??_C@_03FKNPJMHG@400?$AA@
	push	OFFSET ??_C@_0N@NCCMPMBI@cl_sidespeed?$AA@
	call	DWORD PTR ?gEngfuncs@@3Ucl_enginefuncs_s@@A+56
	add	esp, 12					; 0000000cH
	mov	DWORD PTR ?cl_sidespeed@@3PAUcvar_s@@A, eax ; cl_sidespeed

; 874  : 	cl_movespeedkey	= CVAR_REGISTER ( "cl_movespeedkey", "0.3", 0 );

	push	0
	push	OFFSET ??_C@_03OICINGJI@0?43?$AA@
	push	OFFSET ??_C@_0BA@JDGEPJLO@cl_movespeedkey?$AA@
	call	DWORD PTR ?gEngfuncs@@3Ucl_enginefuncs_s@@A+56
	add	esp, 12					; 0000000cH
	mov	DWORD PTR ?cl_movespeedkey@@3PAUcvar_s@@A, eax ; cl_movespeedkey

; 875  : 	cl_pitchup	= CVAR_REGISTER ( "cl_pitchup", "89", 0 );

	push	0
	push	OFFSET ??_C@_02CEECBPHP@89?$AA@
	push	OFFSET ??_C@_0L@EELGACDO@cl_pitchup?$AA@
	call	DWORD PTR ?gEngfuncs@@3Ucl_enginefuncs_s@@A+56
	add	esp, 12					; 0000000cH
	mov	DWORD PTR ?cl_pitchup@@3PAUcvar_s@@A, eax ; cl_pitchup

; 876  : 	cl_pitchdown	= CVAR_REGISTER ( "cl_pitchdown", "89", 0 );

	push	0
	push	OFFSET ??_C@_02CEECBPHP@89?$AA@
	push	OFFSET ??_C@_0N@FAPBPPOA@cl_pitchdown?$AA@
	call	DWORD PTR ?gEngfuncs@@3Ucl_enginefuncs_s@@A+56
	add	esp, 12					; 0000000cH
	mov	DWORD PTR ?cl_pitchdown@@3PAUcvar_s@@A, eax ; cl_pitchdown

; 877  : 
; 878  : 	m_pitch		= CVAR_REGISTER ( "m_pitch","0.022", FCVAR_ARCHIVE );

	push	1
	push	OFFSET ??_C@_05OACFFLK@0?4022?$AA@
	push	OFFSET ??_C@_07JIEGLHEC@m_pitch?$AA@
	call	DWORD PTR ?gEngfuncs@@3Ucl_enginefuncs_s@@A+56
	add	esp, 12					; 0000000cH
	mov	DWORD PTR ?m_pitch@@3PAUcvar_s@@A, eax	; m_pitch

; 879  : 	m_yaw		= CVAR_REGISTER ( "m_yaw","0.022", FCVAR_ARCHIVE );

	push	1
	push	OFFSET ??_C@_05OACFFLK@0?4022?$AA@
	push	OFFSET ??_C@_05HPEILLPC@m_yaw?$AA@
	call	DWORD PTR ?gEngfuncs@@3Ucl_enginefuncs_s@@A+56
	add	esp, 12					; 0000000cH
	mov	DWORD PTR ?m_yaw@@3PAUcvar_s@@A, eax	; m_yaw

; 880  : 	m_forward		= CVAR_REGISTER ( "m_forward","1", FCVAR_ARCHIVE );

	push	1
	push	OFFSET ??_C@_01HIHLOKLC@1?$AA@
	push	OFFSET ??_C@_09CGJLBBDA@m_forward?$AA@
	call	DWORD PTR ?gEngfuncs@@3Ucl_enginefuncs_s@@A+56
	add	esp, 12					; 0000000cH
	mov	DWORD PTR ?m_forward@@3PAUcvar_s@@A, eax ; m_forward

; 881  : 	m_side		= CVAR_REGISTER ( "m_side","0.8", FCVAR_ARCHIVE );

	push	1
	push	OFFSET ??_C@_03LNMAPFD@0?48?$AA@
	push	OFFSET ??_C@_06NKCCGJAO@m_side?$AA@
	call	DWORD PTR ?gEngfuncs@@3Ucl_enginefuncs_s@@A+56
	add	esp, 12					; 0000000cH
	mov	DWORD PTR ?m_side@@3PAUcvar_s@@A, eax	; m_side

; 882  : 
; 883  : 	// initialize inputs
; 884  : 	IN_Init();

	call	?IN_Init@@YAXXZ				; IN_Init

; 885  : 
; 886  : 	// initialize keyboard
; 887  : 	KB_Init();

	call	?KB_Init@@YAXXZ				; KB_Init

; 888  : 
; 889  : 	// initialize view system
; 890  : 	V_Init();

	call	?V_Init@@YAXXZ				; V_Init

; 891  : }

	pop	edi
	pop	esi
	pop	ebx
	mov	esp, ebp
	pop	ebp
	ret	0
?InitInput@@YAXXZ ENDP					; InitInput
_TEXT	ENDS
; Function compile flags: /Odtp /ZI
; File d:\!diffusion 2020\source code 2022\client-server\client\input.cpp
;	COMDAT ?CL_ResetButtonBits@@YAXH@Z
_TEXT	SEGMENT
_bitsNew$ = -4						; size = 4
_bits$ = 8						; size = 4
?CL_ResetButtonBits@@YAXH@Z PROC			; CL_ResetButtonBits, COMDAT

; 784  : {

	push	ebp
	mov	ebp, esp
	sub	esp, 68					; 00000044H
	push	ebx
	push	esi
	push	edi

; 785  : 	int bitsNew = CL_ButtonBits( 0 ) ^ bits;

	push	0
	call	?CL_ButtonBits@@YAHH@Z			; CL_ButtonBits
	add	esp, 4
	xor	eax, DWORD PTR _bits$[ebp]
	mov	DWORD PTR _bitsNew$[ebp], eax

; 786  : 
; 787  : 	// has the attack button been changed
; 788  : 	if( bitsNew & IN_ATTACK )

	mov	eax, DWORD PTR _bitsNew$[ebp]
	and	eax, 1
	je	SHORT $LN1@CL_ResetBu

; 789  : 	{
; 790  : 		// Was it pressed? or let go?
; 791  : 		if( bits & IN_ATTACK )

	mov	eax, DWORD PTR _bits$[ebp]
	and	eax, 1
	je	SHORT $LN3@CL_ResetBu

; 792  : 		{
; 793  : 			KeyDown( &in_attack );

	push	OFFSET ?in_attack@@3Ukbutton_s@@A	; in_attack
	call	?KeyDown@@YAXPAUkbutton_s@@@Z		; KeyDown
	add	esp, 4

; 794  : 		}
; 795  : 		else

	jmp	SHORT $LN1@CL_ResetBu
$LN3@CL_ResetBu:

; 796  : 		{
; 797  : 			// totally clear state
; 798  : 			in_attack.state &= ~(BUTTON_DOWN|IMPULSE_DOWN|IMPULSE_UP);

	mov	eax, DWORD PTR ?in_attack@@3Ukbutton_s@@A+8
	and	eax, -8					; fffffff8H
	mov	DWORD PTR ?in_attack@@3Ukbutton_s@@A+8, eax
$LN1@CL_ResetBu:

; 799  : 		}
; 800  : 	}
; 801  : }

	pop	edi
	pop	esi
	pop	ebx
	mov	esp, ebp
	pop	ebp
	ret	0
?CL_ResetButtonBits@@YAXH@Z ENDP			; CL_ResetButtonBits
_TEXT	ENDS
; Function compile flags: /Odtp /ZI
; File d:\!diffusion 2020\source code 2022\client-server\client\input.cpp
;	COMDAT ?CL_ButtonBits@@YAHH@Z
_TEXT	SEGMENT
_bits$ = -4						; size = 4
_bResetState$ = 8					; size = 4
?CL_ButtonBits@@YAHH@Z PROC				; CL_ButtonBits, COMDAT

; 655  : {

	push	ebp
	mov	ebp, esp
	sub	esp, 68					; 00000044H
	push	ebx
	push	esi
	push	edi

; 656  : 	// diffusion - gHUD.CanMove (for WASD) is done in CL_CreateMove. doesn't work here unlike jump and duck
; 657  : 	
; 658  : 	int bits = 0;

	mov	DWORD PTR _bits$[ebp], 0

; 659  : 
; 660  : 	if( in_attack.state & (BUTTON_DOWN|IMPULSE_DOWN))

	mov	eax, DWORD PTR ?in_attack@@3Ukbutton_s@@A+8
	and	eax, 3
	je	SHORT $LN2@CL_ButtonB

; 661  : 	{
; 662  : 		bits |= IN_ATTACK;

	mov	eax, DWORD PTR _bits$[ebp]
	or	eax, 1
	mov	DWORD PTR _bits$[ebp], eax
$LN2@CL_ButtonB:

; 663  : 	}
; 664  : 	
; 665  : 	if( (in_duck.state & (BUTTON_DOWN|IMPULSE_DOWN)) || g_bDuckToggled )

	mov	eax, DWORD PTR ?in_duck@@3Ukbutton_s@@A+8
	and	eax, 3
	jne	SHORT $LN4@CL_ButtonB
	movzx	eax, BYTE PTR ?g_bDuckToggled@@3_NA	; g_bDuckToggled
	test	eax, eax
	je	SHORT $LN3@CL_ButtonB
$LN4@CL_ButtonB:

; 666  : 	{
; 667  : 		bits |= IN_DUCK;

	mov	eax, DWORD PTR _bits$[ebp]
	or	eax, 4
	mov	DWORD PTR _bits$[ebp], eax
$LN3@CL_ButtonB:

; 668  : 	}
; 669  :  
; 670  : 	if( (in_jump.state & (BUTTON_DOWN|IMPULSE_DOWN)) && gHUD.CanJump)

	mov	eax, DWORD PTR ?in_jump@@3Ukbutton_s@@A+8
	and	eax, 3
	je	SHORT $LN5@CL_ButtonB
	movzx	eax, BYTE PTR ?gHUD@@3VCHud@@A+115
	test	eax, eax
	je	SHORT $LN5@CL_ButtonB

; 671  : 	{
; 672  : 		bits |= IN_JUMP;

	mov	eax, DWORD PTR _bits$[ebp]
	or	eax, 2
	mov	DWORD PTR _bits$[ebp], eax
$LN5@CL_ButtonB:

; 673  : 	}
; 674  : 
; 675  : 	if( in_forward.state & (BUTTON_DOWN|IMPULSE_DOWN) )

	mov	eax, DWORD PTR ?in_forward@@3Ukbutton_s@@A+8
	and	eax, 3
	je	SHORT $LN6@CL_ButtonB

; 676  : 	{
; 677  : 		bits |= IN_FORWARD;

	mov	eax, DWORD PTR _bits$[ebp]
	or	eax, 8
	mov	DWORD PTR _bits$[ebp], eax
$LN6@CL_ButtonB:

; 678  : 	}
; 679  : 	
; 680  : 	if( in_back.state & (BUTTON_DOWN|IMPULSE_DOWN) )

	mov	eax, DWORD PTR ?in_back@@3Ukbutton_s@@A+8
	and	eax, 3
	je	SHORT $LN7@CL_ButtonB

; 681  : 	{
; 682  : 		bits |= IN_BACK;

	mov	eax, DWORD PTR _bits$[ebp]
	or	eax, 16					; 00000010H
	mov	DWORD PTR _bits$[ebp], eax
$LN7@CL_ButtonB:

; 683  : 	}
; 684  : 
; 685  : 	if( in_use.state & (BUTTON_DOWN|IMPULSE_DOWN))

	mov	eax, DWORD PTR ?in_use@@3Ukbutton_s@@A+8
	and	eax, 3
	je	SHORT $LN10@CL_ButtonB

; 686  : 	{
; 687  : 		// currently drawing a tutor
; 688  : 		if( gHUD.m_StatusIconsTutor.IsTutorDrawing && (gHUD.m_flTime > gHUD.m_StatusIconsTutor.TutorStartTime + 1) && !gHUD.m_StatusIconsTutor.x_direction )

	movzx	eax, BYTE PTR ?gHUD@@3VCHud@@A+1944
	test	eax, eax
	je	SHORT $LN9@CL_ButtonB
	movss	xmm0, DWORD PTR ?gHUD@@3VCHud@@A+1940
	addss	xmm0, DWORD PTR __real@3f800000
	movss	xmm1, DWORD PTR ?gHUD@@3VCHud@@A+32
	comiss	xmm1, xmm0
	jbe	SHORT $LN9@CL_ButtonB
	movzx	eax, BYTE PTR ?gHUD@@3VCHud@@A+1945
	test	eax, eax
	jne	SHORT $LN9@CL_ButtonB

; 689  : 		{
; 690  : 			gHUD.m_StatusIconsTutor.x_direction = true; // let's hide the tutor

	mov	BYTE PTR ?gHUD@@3VCHud@@A+1945, 1

; 691  : 			IN_UseUp();

	call	?IN_UseUp@@YAXXZ			; IN_UseUp

; 692  : 		}
; 693  : 		else

	jmp	SHORT $LN10@CL_ButtonB
$LN9@CL_ButtonB:

; 694  : 		{
; 695  : 			bits |= IN_USE;

	mov	eax, DWORD PTR _bits$[ebp]
	or	eax, 32					; 00000020H
	mov	DWORD PTR _bits$[ebp], eax
$LN10@CL_ButtonB:

; 696  : 		}
; 697  : 	}
; 698  : 
; 699  : 	if( in_cancel )

	cmp	DWORD PTR ?in_cancel@@3HA, 0		; in_cancel
	je	SHORT $LN11@CL_ButtonB

; 700  : 	{
; 701  : 		bits |= IN_CANCEL;

	mov	eax, DWORD PTR _bits$[ebp]
	or	eax, 64					; 00000040H
	mov	DWORD PTR _bits$[ebp], eax
$LN11@CL_ButtonB:

; 702  : 	}
; 703  : 
; 704  : 	if( in_left.state & (BUTTON_DOWN|IMPULSE_DOWN))

	mov	eax, DWORD PTR ?in_left@@3Ukbutton_s@@A+8
	and	eax, 3
	je	SHORT $LN12@CL_ButtonB

; 705  : 	{
; 706  : 		bits |= IN_LEFT;

	mov	eax, DWORD PTR _bits$[ebp]
	or	eax, 128				; 00000080H
	mov	DWORD PTR _bits$[ebp], eax
$LN12@CL_ButtonB:

; 707  : 	}
; 708  : 	
; 709  : 	if( in_right.state & (BUTTON_DOWN|IMPULSE_DOWN))

	mov	eax, DWORD PTR ?in_right@@3Ukbutton_s@@A+8
	and	eax, 3
	je	SHORT $LN13@CL_ButtonB

; 710  : 	{
; 711  : 		bits |= IN_RIGHT;

	mov	eax, DWORD PTR _bits$[ebp]
	or	eax, 256				; 00000100H
	mov	DWORD PTR _bits$[ebp], eax
$LN13@CL_ButtonB:

; 712  : 	}
; 713  : 	
; 714  : 	if( in_moveleft.state & (BUTTON_DOWN|IMPULSE_DOWN) )

	mov	eax, DWORD PTR ?in_moveleft@@3Ukbutton_s@@A+8
	and	eax, 3
	je	SHORT $LN14@CL_ButtonB

; 715  : 	{
; 716  : 		bits |= IN_MOVELEFT;

	mov	eax, DWORD PTR _bits$[ebp]
	or	eax, 512				; 00000200H
	mov	DWORD PTR _bits$[ebp], eax
$LN14@CL_ButtonB:

; 717  : 	}
; 718  : 	
; 719  : 	if( in_moveright.state & (BUTTON_DOWN|IMPULSE_DOWN) )

	mov	eax, DWORD PTR ?in_moveright@@3Ukbutton_s@@A+8
	and	eax, 3
	je	SHORT $LN15@CL_ButtonB

; 720  : 	{
; 721  : 		bits |= IN_MOVERIGHT;

	mov	eax, DWORD PTR _bits$[ebp]
	or	eax, 1024				; 00000400H
	mov	DWORD PTR _bits$[ebp], eax
$LN15@CL_ButtonB:

; 722  : 	}
; 723  : 
; 724  : 	if( in_attack2.state & (BUTTON_DOWN|IMPULSE_DOWN))

	mov	eax, DWORD PTR ?in_attack2@@3Ukbutton_s@@A+8
	and	eax, 3
	je	SHORT $LN16@CL_ButtonB

; 725  : 	{
; 726  : 		bits |= IN_ATTACK2;

	mov	eax, DWORD PTR _bits$[ebp]
	or	eax, 2048				; 00000800H
	mov	DWORD PTR _bits$[ebp], eax
$LN16@CL_ButtonB:

; 727  : 	}
; 728  : 
; 729  : 	if( in_reload.state & (BUTTON_DOWN|IMPULSE_DOWN))

	mov	eax, DWORD PTR ?in_reload@@3Ukbutton_s@@A+8
	and	eax, 3
	je	SHORT $LN17@CL_ButtonB

; 730  : 	{
; 731  : 		bits |= IN_RELOAD;

	mov	eax, DWORD PTR _bits$[ebp]
	or	eax, 8192				; 00002000H
	mov	DWORD PTR _bits$[ebp], eax
$LN17@CL_ButtonB:

; 732  : 	}
; 733  : 
; 734  : 	if( in_alt1.state & (BUTTON_DOWN|IMPULSE_DOWN))

	mov	eax, DWORD PTR ?in_alt1@@3Ukbutton_s@@A+8
	and	eax, 3
	je	SHORT $LN18@CL_ButtonB

; 735  : 	{
; 736  : 		bits |= IN_ALT1;

	mov	eax, DWORD PTR _bits$[ebp]
	or	eax, 16384				; 00004000H
	mov	DWORD PTR _bits$[ebp], eax
$LN18@CL_ButtonB:

; 737  : 	}
; 738  : 
; 739  : 	if( in_score.state & (BUTTON_DOWN|IMPULSE_DOWN))

	mov	eax, DWORD PTR ?in_score@@3Ukbutton_s@@A+8
	and	eax, 3
	je	SHORT $LN19@CL_ButtonB

; 740  : 	{
; 741  : 		bits |= IN_SCORE;

	mov	eax, DWORD PTR _bits$[ebp]
	or	eax, 32768				; 00008000H
	mov	DWORD PTR _bits$[ebp], eax
$LN19@CL_ButtonB:

; 742  : 	}
; 743  : 
; 744  : 	// dead or in intermission? Show scoreboard, too
; 745  : 	if( CL_IsDead() || gHUD.m_iIntermission )

	call	?CL_IsDead@@YAHXZ			; CL_IsDead
	test	eax, eax
	jne	SHORT $LN21@CL_ButtonB
	cmp	DWORD PTR ?gHUD@@3VCHud@@A+8976, 0
	je	SHORT $LN20@CL_ButtonB
$LN21@CL_ButtonB:

; 746  : 	{
; 747  : 		bits |= IN_SCORE;

	mov	eax, DWORD PTR _bits$[ebp]
	or	eax, 32768				; 00008000H
	mov	DWORD PTR _bits$[ebp], eax
$LN20@CL_ButtonB:

; 748  : 	}
; 749  : 
; 750  : 	if ( (in_sprint.state & (BUTTON_DOWN|IMPULSE_DOWN)) && gHUD.CanSprint ) // DiffusionSprint

	mov	eax, DWORD PTR ?in_sprint@@3Ukbutton_s@@A+8
	and	eax, 3
	je	SHORT $LN22@CL_ButtonB
	movzx	eax, BYTE PTR ?gHUD@@3VCHud@@A+116
	test	eax, eax
	je	SHORT $LN22@CL_ButtonB

; 751  : 	{
; 752  : 		bits |= IN_RUN;

	mov	eax, DWORD PTR _bits$[ebp]
	or	eax, 4096				; 00001000H
	mov	DWORD PTR _bits$[ebp], eax
$LN22@CL_ButtonB:

; 753  : 	}
; 754  : 
; 755  : 	if( bResetState )

	cmp	DWORD PTR _bResetState$[ebp], 0
	je	$LN23@CL_ButtonB

; 756  : 	{
; 757  : 		in_attack.state &= ~IMPULSE_DOWN;

	mov	eax, DWORD PTR ?in_attack@@3Ukbutton_s@@A+8
	and	eax, -3					; fffffffdH
	mov	DWORD PTR ?in_attack@@3Ukbutton_s@@A+8, eax

; 758  : 		in_duck.state &= ~IMPULSE_DOWN;

	mov	eax, DWORD PTR ?in_duck@@3Ukbutton_s@@A+8
	and	eax, -3					; fffffffdH
	mov	DWORD PTR ?in_duck@@3Ukbutton_s@@A+8, eax

; 759  : 		in_jump.state &= ~IMPULSE_DOWN;

	mov	eax, DWORD PTR ?in_jump@@3Ukbutton_s@@A+8
	and	eax, -3					; fffffffdH
	mov	DWORD PTR ?in_jump@@3Ukbutton_s@@A+8, eax

; 760  : 		in_forward.state &= ~IMPULSE_DOWN;

	mov	eax, DWORD PTR ?in_forward@@3Ukbutton_s@@A+8
	and	eax, -3					; fffffffdH
	mov	DWORD PTR ?in_forward@@3Ukbutton_s@@A+8, eax

; 761  : 		in_back.state &= ~IMPULSE_DOWN;

	mov	eax, DWORD PTR ?in_back@@3Ukbutton_s@@A+8
	and	eax, -3					; fffffffdH
	mov	DWORD PTR ?in_back@@3Ukbutton_s@@A+8, eax

; 762  : 		in_use.state &= ~IMPULSE_DOWN;

	mov	eax, DWORD PTR ?in_use@@3Ukbutton_s@@A+8
	and	eax, -3					; fffffffdH
	mov	DWORD PTR ?in_use@@3Ukbutton_s@@A+8, eax

; 763  : 		in_left.state &= ~IMPULSE_DOWN;

	mov	eax, DWORD PTR ?in_left@@3Ukbutton_s@@A+8
	and	eax, -3					; fffffffdH
	mov	DWORD PTR ?in_left@@3Ukbutton_s@@A+8, eax

; 764  : 		in_right.state &= ~IMPULSE_DOWN;

	mov	eax, DWORD PTR ?in_right@@3Ukbutton_s@@A+8
	and	eax, -3					; fffffffdH
	mov	DWORD PTR ?in_right@@3Ukbutton_s@@A+8, eax

; 765  : 		in_moveleft.state &= ~IMPULSE_DOWN;

	mov	eax, DWORD PTR ?in_moveleft@@3Ukbutton_s@@A+8
	and	eax, -3					; fffffffdH
	mov	DWORD PTR ?in_moveleft@@3Ukbutton_s@@A+8, eax

; 766  : 		in_moveright.state &= ~IMPULSE_DOWN;

	mov	eax, DWORD PTR ?in_moveright@@3Ukbutton_s@@A+8
	and	eax, -3					; fffffffdH
	mov	DWORD PTR ?in_moveright@@3Ukbutton_s@@A+8, eax

; 767  : 		in_attack2.state &= ~IMPULSE_DOWN;

	mov	eax, DWORD PTR ?in_attack2@@3Ukbutton_s@@A+8
	and	eax, -3					; fffffffdH
	mov	DWORD PTR ?in_attack2@@3Ukbutton_s@@A+8, eax

; 768  : 		in_reload.state &= ~IMPULSE_DOWN;

	mov	eax, DWORD PTR ?in_reload@@3Ukbutton_s@@A+8
	and	eax, -3					; fffffffdH
	mov	DWORD PTR ?in_reload@@3Ukbutton_s@@A+8, eax

; 769  : 		in_alt1.state &= ~IMPULSE_DOWN;

	mov	eax, DWORD PTR ?in_alt1@@3Ukbutton_s@@A+8
	and	eax, -3					; fffffffdH
	mov	DWORD PTR ?in_alt1@@3Ukbutton_s@@A+8, eax

; 770  : 		in_score.state &= ~IMPULSE_DOWN;

	mov	eax, DWORD PTR ?in_score@@3Ukbutton_s@@A+8
	and	eax, -3					; fffffffdH
	mov	DWORD PTR ?in_score@@3Ukbutton_s@@A+8, eax

; 771  : 		in_sprint.state &= ~IMPULSE_DOWN; // DiffusionSprint

	mov	eax, DWORD PTR ?in_sprint@@3Ukbutton_s@@A+8
	and	eax, -3					; fffffffdH
	mov	DWORD PTR ?in_sprint@@3Ukbutton_s@@A+8, eax
$LN23@CL_ButtonB:

; 772  : 	}
; 773  : 
; 774  : 	return bits;

	mov	eax, DWORD PTR _bits$[ebp]

; 775  : }

	pop	edi
	pop	esi
	pop	ebx
	mov	esp, ebp
	pop	ebp
	ret	0
?CL_ButtonBits@@YAHH@Z ENDP				; CL_ButtonBits
_TEXT	ENDS
; Function compile flags: /Odtp /ZI
; File d:\!diffusion 2020\source code 2022\client-server\game_shared\vector.h
;	COMDAT ??BVector@@QAEPAMXZ
_TEXT	SEGMENT
_this$ = -4						; size = 4
??BVector@@QAEPAMXZ PROC				; Vector::operator float *, COMDAT
; _this$ = ecx

; 247  : 	operator float *()				{ return &x; } // Vectors will now automatically convert to float * when needed

	push	ebp
	mov	ebp, esp
	sub	esp, 68					; 00000044H
	push	ebx
	push	esi
	push	edi
	mov	DWORD PTR _this$[ebp], ecx
	mov	eax, DWORD PTR _this$[ebp]
	pop	edi
	pop	esi
	pop	ebx
	mov	esp, ebp
	pop	ebp
	ret	0
??BVector@@QAEPAMXZ ENDP				; Vector::operator float *
_TEXT	ENDS
; Function compile flags: /Odtp /ZI
; File d:\!diffusion 2020\source code 2022\client-server\game_shared\vector.h
;	COMDAT ??0Vector@@QAE@XZ
_TEXT	SEGMENT
_this$ = -4						; size = 4
??0Vector@@QAE@XZ PROC					; Vector::Vector, COMDAT
; _this$ = ecx

; 143  : 	inline Vector(void)				{ }

	push	ebp
	mov	ebp, esp
	sub	esp, 68					; 00000044H
	push	ebx
	push	esi
	push	edi
	mov	DWORD PTR _this$[ebp], ecx
	mov	eax, DWORD PTR _this$[ebp]
	pop	edi
	pop	esi
	pop	ebx
	mov	esp, ebp
	pop	ebp
	ret	0
??0Vector@@QAE@XZ ENDP					; Vector::Vector
_TEXT	ENDS
; Function compile flags: /Odtp /ZI
;	COMDAT ??__G@YGXPAX0IIP6EPAX00@Z@Z
_TEXT	SEGMENT
tv66 = -68						; size = 4
___t$ = 8						; size = 4
___u$ = 12						; size = 4
___s$ = 16						; size = 4
___n$ = 20						; size = 4
___f$ = 24						; size = 4
??__G@YGXPAX0IIP6EPAX00@Z@Z PROC			; `vector copy constructor iterator', COMDAT
	push	ebp
	mov	ebp, esp
	sub	esp, 68					; 00000044H
	push	ebx
	push	esi
	push	edi
$LN2@vector:
	mov	eax, DWORD PTR ___n$[ebp]
	mov	DWORD PTR tv66[ebp], eax
	mov	ecx, DWORD PTR ___n$[ebp]
	sub	ecx, 1
	mov	DWORD PTR ___n$[ebp], ecx
	cmp	DWORD PTR tv66[ebp], 0
	jbe	SHORT $LN1@vector
	mov	eax, DWORD PTR ___u$[ebp]
	push	eax
	mov	ecx, DWORD PTR ___t$[ebp]
	call	DWORD PTR ___f$[ebp]
	mov	eax, DWORD PTR ___t$[ebp]
	add	eax, DWORD PTR ___s$[ebp]
	mov	DWORD PTR ___t$[ebp], eax
	mov	eax, DWORD PTR ___u$[ebp]
	add	eax, DWORD PTR ___s$[ebp]
	mov	DWORD PTR ___u$[ebp], eax
	jmp	SHORT $LN2@vector
$LN1@vector:
	pop	edi
	pop	esi
	pop	ebx
	mov	esp, ebp
	pop	ebp
	ret	20					; 00000014H
??__G@YGXPAX0IIP6EPAX00@Z@Z ENDP			; `vector copy constructor iterator'
_TEXT	ENDS
; Function compile flags: /Odtp /ZI
;	COMDAT ??_H@YGXPAXIIP6EPAX0@Z@Z
_TEXT	SEGMENT
tv66 = -68						; size = 4
___t$ = 8						; size = 4
___s$ = 12						; size = 4
___n$ = 16						; size = 4
___f$ = 20						; size = 4
??_H@YGXPAXIIP6EPAX0@Z@Z PROC				; `vector constructor iterator', COMDAT
	push	ebp
	mov	ebp, esp
	sub	esp, 68					; 00000044H
	push	ebx
	push	esi
	push	edi
$LN2@vector:
	mov	eax, DWORD PTR ___n$[ebp]
	mov	DWORD PTR tv66[ebp], eax
	mov	ecx, DWORD PTR ___n$[ebp]
	sub	ecx, 1
	mov	DWORD PTR ___n$[ebp], ecx
	cmp	DWORD PTR tv66[ebp], 0
	jbe	SHORT $LN1@vector
	mov	ecx, DWORD PTR ___t$[ebp]
	call	DWORD PTR ___f$[ebp]
	mov	eax, DWORD PTR ___t$[ebp]
	add	eax, DWORD PTR ___s$[ebp]
	mov	DWORD PTR ___t$[ebp], eax
	jmp	SHORT $LN2@vector
$LN1@vector:
	pop	edi
	pop	esi
	pop	ebx
	mov	esp, ebp
	pop	ebp
	ret	16					; 00000010H
??_H@YGXPAXIIP6EPAX0@Z@Z ENDP				; `vector constructor iterator'
_TEXT	ENDS
END
