; Listing generated by Microsoft (R) Optimizing Compiler Version 19.00.24247.2 

	TITLE	D:\!DIFFUSION 2020\source code 2022\client-server\client\lensflare.cpp
	.686P
	.XMM
	include listing.inc
	.model	flat

INCLUDELIB LIBCMT
INCLUDELIB OLDNAMES

PUBLIC	?SunFlareTexture@@3HA				; SunFlareTexture
_BSS	SEGMENT
?SunFlareTexture@@3HA DD 01H DUP (?)			; SunFlareTexture
_BSS	ENDS
PUBLIC	??_H@YGXPAXIIP6EPAX0@Z@Z			; `vector constructor iterator'
PUBLIC	??__G@YGXPAX0IIP6EPAX00@Z@Z			; `vector copy constructor iterator'
PUBLIC	??0Vector@@QAE@XZ				; Vector::Vector
PUBLIC	??0Vector@@QAE@MMM@Z				; Vector::Vector
PUBLIC	??0Vector@@QAE@ABV0@@Z				; Vector::Vector
PUBLIC	??GVector@@QBE?AV0@XZ				; Vector::operator-
PUBLIC	??HVector@@QBE?AV0@ABV0@@Z			; Vector::operator+
PUBLIC	??GVector@@QBE?AV0@ABV0@@Z			; Vector::operator-
PUBLIC	??DVector@@QBE?AV0@M@Z				; Vector::operator*
PUBLIC	?Length@Vector@@QBEMXZ				; Vector::Length
PUBLIC	??BVector@@QAEPAMXZ				; Vector::operator float *
PUBLIC	?DotProduct@@YAMABVVector@@0@Z			; DotProduct
PUBLIC	?Init@CHudLensflare@@UAEHXZ			; CHudLensflare::Init
PUBLIC	?VidInit@CHudLensflare@@UAEHXZ			; CHudLensflare::VidInit
PUBLIC	?Draw@CHudLensflare@@UAEHM@Z			; CHudLensflare::Draw
PUBLIC	??0pmplane_t@@QAE@XZ				; pmplane_t::pmplane_t
PUBLIC	??0pmtrace_s@@QAE@XZ				; pmtrace_s::pmtrace_s
PUBLIC	??_C@_0BK@CGAJLPHM@sprites?1lens?1sunflare?4dds?$AA@ ; `string'
PUBLIC	??_C@_0O@NGAMONDD@cl_background?$AA@		; `string'
PUBLIC	??_C@_03BNEOMJOP@sky?$AA@			; `string'
PUBLIC	??_C@_0BH@MIGHPCAM@sprites?1lens?1lens1?4spr?$AA@ ; `string'
PUBLIC	??_C@_0BH@EOPDIAKC@sprites?1lens?1lens2?4spr?$AA@ ; `string'
PUBLIC	??_C@_0BH@KEMBJLCN@sprites?1lens?1glow1?4spr?$AA@ ; `string'
PUBLIC	??_C@_0BH@CCFFOJID@sprites?1lens?1glow2?4spr?$AA@ ; `string'
PUBLIC	??_C@_0BH@IFKPFDAH@sprites?1lens?1lens3?4spr?$AA@ ; `string'
PUBLIC	__real@00000000
PUBLIC	__real@0000000000000000
PUBLIC	__real@3e4ccccd
PUBLIC	__real@3e99999a
PUBLIC	__real@3eeb851f
PUBLIC	__real@3f000000
PUBLIC	__real@3f0a3d71
PUBLIC	__real@3f23d70a
PUBLIC	__real@3f451eb8
PUBLIC	__real@3f666666
PUBLIC	__real@3f800000
PUBLIC	__real@3fe999999999999a
PUBLIC	__real@3feb333333333333
PUBLIC	__real@3fec28f5c28f5c29
PUBLIC	__real@3feccccccccccccd
PUBLIC	__real@3ff0000000000000
PUBLIC	__real@3ff199999999999a
PUBLIC	__real@401a666666666666
PUBLIC	__real@401acccccccccccd
PUBLIC	__real@401b333333333333
PUBLIC	__real@4061800000000000
PUBLIC	__real@4067c00000000000
PUBLIC	__real@406bc00000000000
PUBLIC	__real@406fe00000000000
PUBLIC	__real@4076300000000000
PUBLIC	__real@40a00000
PUBLIC	__real@43200000
PUBLIC	__real@437f0000
PUBLIC	__real@43f00000
PUBLIC	__real@43f50000
PUBLIC	__real@44200000
PUBLIC	__real@44228000
PUBLIC	__real@4803d600
PUBLIC	__real@bee66666
PUBLIC	__real@c1200000
PUBLIC	__xmm@80000000800000008000000080000000
EXTRN	_sqrt:PROC
EXTRN	?VectorAngles@@YAXABVVector@@AAV1@@Z:PROC	; VectorAngles
EXTRN	?Q_strnicmp@@YAHPBD0H@Z:PROC			; Q_strnicmp
EXTRN	?AddHudElem@CHud@@QAEXPAVCHudBase@@@Z:PROC	; CHud::AddHudElem
EXTRN	?DrawQuad@@YAXMMMM@Z:PROC			; DrawQuad
EXTRN	?PM_GetPhysEntInfo@@YAHH@Z:PROC			; PM_GetPhysEntInfo
EXTRN	?R_WorldToScreen@@YAHABVVector@@AAV1@@Z:PROC	; R_WorldToScreen
EXTRN	?gEngfuncs@@3Ucl_enginefuncs_s@@A:BYTE		; gEngfuncs
EXTRN	?gRenderfuncs@@3Urender_api_s@@A:BYTE		; gRenderfuncs
EXTRN	?gHUD@@3VCHud@@A:BYTE				; gHUD
EXTRN	?g_fFrametime@@3MA:DWORD			; g_fFrametime
EXTRN	?gl_lensflare@@3PAUcvar_s@@A:DWORD		; gl_lensflare
EXTRN	?ui_is_active@@3PAUcvar_s@@A:DWORD		; ui_is_active
EXTRN	?tr@@3Uref_globals_t@@A:BYTE			; tr
EXTRN	__fltused:DWORD
;	COMDAT __xmm@80000000800000008000000080000000
CONST	SEGMENT
__xmm@80000000800000008000000080000000 DB 00H, 00H, 00H, 080H, 00H, 00H, 00H
	DB	080H, 00H, 00H, 00H, 080H, 00H, 00H, 00H, 080H
CONST	ENDS
;	COMDAT __real@c1200000
CONST	SEGMENT
__real@c1200000 DD 0c1200000r			; -10
CONST	ENDS
;	COMDAT __real@bee66666
CONST	SEGMENT
__real@bee66666 DD 0bee66666r			; -0.45
CONST	ENDS
;	COMDAT __real@4803d600
CONST	SEGMENT
__real@4803d600 DD 04803d600r			; 135000
CONST	ENDS
;	COMDAT __real@44228000
CONST	SEGMENT
__real@44228000 DD 044228000r			; 650
CONST	ENDS
;	COMDAT __real@44200000
CONST	SEGMENT
__real@44200000 DD 044200000r			; 640
CONST	ENDS
;	COMDAT __real@43f50000
CONST	SEGMENT
__real@43f50000 DD 043f50000r			; 490
CONST	ENDS
;	COMDAT __real@43f00000
CONST	SEGMENT
__real@43f00000 DD 043f00000r			; 480
CONST	ENDS
;	COMDAT __real@437f0000
CONST	SEGMENT
__real@437f0000 DD 0437f0000r			; 255
CONST	ENDS
;	COMDAT __real@43200000
CONST	SEGMENT
__real@43200000 DD 043200000r			; 160
CONST	ENDS
;	COMDAT __real@40a00000
CONST	SEGMENT
__real@40a00000 DD 040a00000r			; 5
CONST	ENDS
;	COMDAT __real@4076300000000000
CONST	SEGMENT
__real@4076300000000000 DQ 04076300000000000r	; 355
CONST	ENDS
;	COMDAT __real@406fe00000000000
CONST	SEGMENT
__real@406fe00000000000 DQ 0406fe00000000000r	; 255
CONST	ENDS
;	COMDAT __real@406bc00000000000
CONST	SEGMENT
__real@406bc00000000000 DQ 0406bc00000000000r	; 222
CONST	ENDS
;	COMDAT __real@4067c00000000000
CONST	SEGMENT
__real@4067c00000000000 DQ 04067c00000000000r	; 190
CONST	ENDS
;	COMDAT __real@4061800000000000
CONST	SEGMENT
__real@4061800000000000 DQ 04061800000000000r	; 140
CONST	ENDS
;	COMDAT __real@401b333333333333
CONST	SEGMENT
__real@401b333333333333 DQ 0401b333333333333r	; 6.8
CONST	ENDS
;	COMDAT __real@401acccccccccccd
CONST	SEGMENT
__real@401acccccccccccd DQ 0401acccccccccccdr	; 6.7
CONST	ENDS
;	COMDAT __real@401a666666666666
CONST	SEGMENT
__real@401a666666666666 DQ 0401a666666666666r	; 6.6
CONST	ENDS
;	COMDAT __real@3ff199999999999a
CONST	SEGMENT
__real@3ff199999999999a DQ 03ff199999999999ar	; 1.1
CONST	ENDS
;	COMDAT __real@3ff0000000000000
CONST	SEGMENT
__real@3ff0000000000000 DQ 03ff0000000000000r	; 1
CONST	ENDS
;	COMDAT __real@3feccccccccccccd
CONST	SEGMENT
__real@3feccccccccccccd DQ 03feccccccccccccdr	; 0.9
CONST	ENDS
;	COMDAT __real@3fec28f5c28f5c29
CONST	SEGMENT
__real@3fec28f5c28f5c29 DQ 03fec28f5c28f5c29r	; 0.88
CONST	ENDS
;	COMDAT __real@3feb333333333333
CONST	SEGMENT
__real@3feb333333333333 DQ 03feb333333333333r	; 0.85
CONST	ENDS
;	COMDAT __real@3fe999999999999a
CONST	SEGMENT
__real@3fe999999999999a DQ 03fe999999999999ar	; 0.8
CONST	ENDS
;	COMDAT __real@3f800000
CONST	SEGMENT
__real@3f800000 DD 03f800000r			; 1
CONST	ENDS
;	COMDAT __real@3f666666
CONST	SEGMENT
__real@3f666666 DD 03f666666r			; 0.9
CONST	ENDS
;	COMDAT __real@3f451eb8
CONST	SEGMENT
__real@3f451eb8 DD 03f451eb8r			; 0.77
CONST	ENDS
;	COMDAT __real@3f23d70a
CONST	SEGMENT
__real@3f23d70a DD 03f23d70ar			; 0.64
CONST	ENDS
;	COMDAT __real@3f0a3d71
CONST	SEGMENT
__real@3f0a3d71 DD 03f0a3d71r			; 0.54
CONST	ENDS
;	COMDAT __real@3f000000
CONST	SEGMENT
__real@3f000000 DD 03f000000r			; 0.5
CONST	ENDS
;	COMDAT __real@3eeb851f
CONST	SEGMENT
__real@3eeb851f DD 03eeb851fr			; 0.46
CONST	ENDS
;	COMDAT __real@3e99999a
CONST	SEGMENT
__real@3e99999a DD 03e99999ar			; 0.3
CONST	ENDS
;	COMDAT __real@3e4ccccd
CONST	SEGMENT
__real@3e4ccccd DD 03e4ccccdr			; 0.2
CONST	ENDS
;	COMDAT __real@0000000000000000
CONST	SEGMENT
__real@0000000000000000 DQ 00000000000000000r	; 0
CONST	ENDS
;	COMDAT __real@00000000
CONST	SEGMENT
__real@00000000 DD 000000000r			; 0
CONST	ENDS
;	COMDAT ??_C@_0BH@IFKPFDAH@sprites?1lens?1lens3?4spr?$AA@
CONST	SEGMENT
??_C@_0BH@IFKPFDAH@sprites?1lens?1lens3?4spr?$AA@ DB 'sprites/lens/lens3.'
	DB	'spr', 00H					; `string'
CONST	ENDS
;	COMDAT ??_C@_0BH@CCFFOJID@sprites?1lens?1glow2?4spr?$AA@
CONST	SEGMENT
??_C@_0BH@CCFFOJID@sprites?1lens?1glow2?4spr?$AA@ DB 'sprites/lens/glow2.'
	DB	'spr', 00H					; `string'
CONST	ENDS
;	COMDAT ??_C@_0BH@KEMBJLCN@sprites?1lens?1glow1?4spr?$AA@
CONST	SEGMENT
??_C@_0BH@KEMBJLCN@sprites?1lens?1glow1?4spr?$AA@ DB 'sprites/lens/glow1.'
	DB	'spr', 00H					; `string'
CONST	ENDS
;	COMDAT ??_C@_0BH@EOPDIAKC@sprites?1lens?1lens2?4spr?$AA@
CONST	SEGMENT
??_C@_0BH@EOPDIAKC@sprites?1lens?1lens2?4spr?$AA@ DB 'sprites/lens/lens2.'
	DB	'spr', 00H					; `string'
CONST	ENDS
;	COMDAT ??_C@_0BH@MIGHPCAM@sprites?1lens?1lens1?4spr?$AA@
CONST	SEGMENT
??_C@_0BH@MIGHPCAM@sprites?1lens?1lens1?4spr?$AA@ DB 'sprites/lens/lens1.'
	DB	'spr', 00H					; `string'
CONST	ENDS
;	COMDAT ??_C@_03BNEOMJOP@sky?$AA@
CONST	SEGMENT
??_C@_03BNEOMJOP@sky?$AA@ DB 'sky', 00H			; `string'
CONST	ENDS
;	COMDAT ??_C@_0O@NGAMONDD@cl_background?$AA@
CONST	SEGMENT
??_C@_0O@NGAMONDD@cl_background?$AA@ DB 'cl_background', 00H ; `string'
CONST	ENDS
;	COMDAT ??_C@_0BK@CGAJLPHM@sprites?1lens?1sunflare?4dds?$AA@
CONST	SEGMENT
??_C@_0BK@CGAJLPHM@sprites?1lens?1sunflare?4dds?$AA@ DB 'sprites/lens/sun'
	DB	'flare.dds', 00H				; `string'
CONST	ENDS
; Function compile flags: /Odtp /ZI
;	COMDAT ??0pmtrace_s@@QAE@XZ
_TEXT	SEGMENT
_this$ = -4						; size = 4
??0pmtrace_s@@QAE@XZ PROC				; pmtrace_s::pmtrace_s, COMDAT
; _this$ = ecx
	push	ebp
	mov	ebp, esp
	sub	esp, 68					; 00000044H
	push	ebx
	push	esi
	push	edi
	mov	DWORD PTR _this$[ebp], ecx
	mov	ecx, DWORD PTR _this$[ebp]
	add	ecx, 20					; 00000014H
	call	??0Vector@@QAE@XZ			; Vector::Vector
	mov	ecx, DWORD PTR _this$[ebp]
	add	ecx, 32					; 00000020H
	call	??0pmplane_t@@QAE@XZ
	mov	ecx, DWORD PTR _this$[ebp]
	add	ecx, 52					; 00000034H
	call	??0Vector@@QAE@XZ			; Vector::Vector
	mov	eax, DWORD PTR _this$[ebp]
	pop	edi
	pop	esi
	pop	ebx
	mov	esp, ebp
	pop	ebp
	ret	0
??0pmtrace_s@@QAE@XZ ENDP				; pmtrace_s::pmtrace_s
_TEXT	ENDS
; Function compile flags: /Odtp /ZI
;	COMDAT ??0pmplane_t@@QAE@XZ
_TEXT	SEGMENT
_this$ = -4						; size = 4
??0pmplane_t@@QAE@XZ PROC				; pmplane_t::pmplane_t, COMDAT
; _this$ = ecx
	push	ebp
	mov	ebp, esp
	sub	esp, 68					; 00000044H
	push	ebx
	push	esi
	push	edi
	mov	DWORD PTR _this$[ebp], ecx
	mov	ecx, DWORD PTR _this$[ebp]
	call	??0Vector@@QAE@XZ			; Vector::Vector
	mov	eax, DWORD PTR _this$[ebp]
	pop	edi
	pop	esi
	pop	ebx
	mov	esp, ebp
	pop	ebp
	ret	0
??0pmplane_t@@QAE@XZ ENDP				; pmplane_t::pmplane_t
_TEXT	ENDS
; Function compile flags: /Odtp /ZI
; File d:\!diffusion 2020\source code 2022\client-server\client\lensflare.cpp
;	COMDAT ?Draw@CHudLensflare@@UAEHM@Z
_TEXT	SEGMENT
tv495 = -436						; size = 8
tv479 = -436						; size = 8
tv463 = -436						; size = 8
tv240 = -436						; size = 4
tv2146 = -432						; size = 4
tv2078 = -432						; size = 4
tv239 = -432						; size = 4
tv74 = -429						; size = 1
$T1 = -428						; size = 12
$T2 = -416						; size = 12
$T3 = -404						; size = 12
$T4 = -392						; size = 12
_Lensy1$ = -316						; size = 4
_Lensx1$ = -312						; size = 4
_scale1$ = -308						; size = 4
_i$ = -304						; size = 4
_crd$ = -300						; size = 4
_origin$ = -296						; size = 12
_point$ = -284						; size = 12
_normal$ = -272						; size = 12
_texName$ = -260					; size = 4
_vecStart$ = -256					; size = 12
_ent$ = -244						; size = 4
_ignoreent$ = -240					; size = 4
_maxLoops$ = -236					; size = 4
_DotP$ = -232						; size = 4
_trace$ = -228						; size = 68
_v_origin$ = -160					; size = 12
_v_angles$ = -148					; size = 12
_screen$ = -136						; size = 12
_up$ = -124						; size = 12
_right$ = -112						; size = 12
_forward$ = -100					; size = 12
_angles$ = -88						; size = 12
_v_up$ = -76						; size = 12
_v_right$ = -64						; size = 12
_v_forward$ = -52					; size = 12
_suntarget$ = -40					; size = 12
_sundir$ = -28						; size = 12
_sunangles$ = -16					; size = 12
_this$ = -4						; size = 4
_flTime$ = 8						; size = 4
?Draw@CHudLensflare@@UAEHM@Z PROC			; CHudLensflare::Draw, COMDAT
; _this$ = ecx

; 27   : {

	push	ebp
	mov	ebp, esp
	sub	esp, 436				; 000001b4H
	push	ebx
	push	esi
	push	edi
	mov	DWORD PTR _this$[ebp], ecx

; 28   : 	if( gl_lensflare->value <= 0 )

	mov	eax, DWORD PTR ?gl_lensflare@@3PAUcvar_s@@A ; gl_lensflare
	xorps	xmm0, xmm0
	comiss	xmm0, DWORD PTR [eax+12]
	jb	SHORT $LN4@Draw

; 29   : 		return 1;

	mov	eax, 1
	jmp	$LN1@Draw
$LN4@Draw:

; 30   : 
; 31   : 	if( tr.time == tr.oldtime )

	movsd	xmm0, QWORD PTR ?tr@@3Uref_globals_t@@A+8
	ucomisd	xmm0, QWORD PTR ?tr@@3Uref_globals_t@@A+16
	lahf
	test	ah, 68					; 00000044H
	jp	SHORT $LN5@Draw

; 32   : 		return 1; // not in paused

	mov	eax, 1
	jmp	$LN1@Draw
$LN5@Draw:

; 33   : 
; 34   : 	if( tr.shader_modifier != NULL )

	cmp	DWORD PTR ?tr@@3Uref_globals_t@@A+5852560, 0
	je	SHORT $LN7@Draw

; 35   : 	{
; 36   : 		// mapper disabled the lensflare on this map
; 37   : 		if( tr.shader_modifier->curstate.iuser2 == 1 )

	mov	eax, DWORD PTR ?tr@@3Uref_globals_t@@A+5852560
	cmp	DWORD PTR [eax+952], 1
	jne	SHORT $LN7@Draw

; 38   : 			return 1;

	mov	eax, 1
	jmp	$LN1@Draw
$LN7@Draw:

; 39   : 	}
; 40   : 
; 41   : 	if( CVAR_TO_BOOL( ui_is_active ) && !CVAR_GET_FLOAT( "cl_background" ) )

	cmp	DWORD PTR ?ui_is_active@@3PAUcvar_s@@A, 0 ; ui_is_active
	je	SHORT $LN26@Draw
	mov	eax, DWORD PTR ?ui_is_active@@3PAUcvar_s@@A ; ui_is_active
	movss	xmm0, DWORD PTR [eax+12]
	ucomiss	xmm0, DWORD PTR __real@00000000
	lahf
	test	ah, 68					; 00000044H
	jnp	SHORT $LN26@Draw
	mov	BYTE PTR tv74[ebp], 1
	jmp	SHORT $LN27@Draw
$LN26@Draw:
	mov	BYTE PTR tv74[ebp], 0
$LN27@Draw:
	movzx	ecx, BYTE PTR tv74[ebp]
	test	ecx, ecx
	je	SHORT $LN8@Draw
	push	OFFSET ??_C@_0O@NGAMONDD@cl_background?$AA@
	call	DWORD PTR ?gEngfuncs@@3Ucl_enginefuncs_s@@A+60
	add	esp, 4
	fstp	DWORD PTR tv2078[ebp]
	movss	xmm0, DWORD PTR tv2078[ebp]
	ucomiss	xmm0, DWORD PTR __real@00000000
	lahf
	test	ah, 68					; 00000044H
	jp	SHORT $LN8@Draw

; 42   : 		return 0;

	xor	eax, eax
	jmp	$LN1@Draw
$LN8@Draw:

; 43   : 	
; 44   : 	Vector sunangles, sundir, suntarget;

	lea	ecx, DWORD PTR _sunangles$[ebp]
	call	??0Vector@@QAE@XZ			; Vector::Vector
	lea	ecx, DWORD PTR _sundir$[ebp]
	call	??0Vector@@QAE@XZ			; Vector::Vector
	lea	ecx, DWORD PTR _suntarget$[ebp]
	call	??0Vector@@QAE@XZ			; Vector::Vector

; 45   : 	Vector v_forward, v_right, v_up, angles;

	lea	ecx, DWORD PTR _v_forward$[ebp]
	call	??0Vector@@QAE@XZ			; Vector::Vector
	lea	ecx, DWORD PTR _v_right$[ebp]
	call	??0Vector@@QAE@XZ			; Vector::Vector
	lea	ecx, DWORD PTR _v_up$[ebp]
	call	??0Vector@@QAE@XZ			; Vector::Vector
	lea	ecx, DWORD PTR _angles$[ebp]
	call	??0Vector@@QAE@XZ			; Vector::Vector

; 46   : 	Vector forward, right, up, screen;

	lea	ecx, DWORD PTR _forward$[ebp]
	call	??0Vector@@QAE@XZ			; Vector::Vector
	lea	ecx, DWORD PTR _right$[ebp]
	call	??0Vector@@QAE@XZ			; Vector::Vector
	lea	ecx, DWORD PTR _up$[ebp]
	call	??0Vector@@QAE@XZ			; Vector::Vector
	lea	ecx, DWORD PTR _screen$[ebp]
	call	??0Vector@@QAE@XZ			; Vector::Vector

; 47   : 	Vector v_angles, v_origin;

	lea	ecx, DWORD PTR _v_angles$[ebp]
	call	??0Vector@@QAE@XZ			; Vector::Vector
	lea	ecx, DWORD PTR _v_origin$[ebp]
	call	??0Vector@@QAE@XZ			; Vector::Vector

; 48   : 	pmtrace_t trace;

	lea	ecx, DWORD PTR _trace$[ebp]
	call	??0pmtrace_s@@QAE@XZ

; 49   : 	float DotP;
; 50   : 
; 51   : 	// Sun position
; 52   : 	VectorAngles( -tr.sky_normal, sunangles );

	lea	eax, DWORD PTR _sunangles$[ebp]
	push	eax
	lea	ecx, DWORD PTR $T4[ebp]
	push	ecx
	mov	ecx, OFFSET ?tr@@3Uref_globals_t@@A+5836136
	call	??GVector@@QBE?AV0@XZ			; Vector::operator-
	push	eax
	call	?VectorAngles@@YAXABVVector@@AAV1@@Z	; VectorAngles
	add	esp, 8

; 53   : 
; 54   : 	v_angles = tr.viewparams.viewangles;

	mov	eax, DWORD PTR ?tr@@3Uref_globals_t@@A+5830668
	mov	DWORD PTR _v_angles$[ebp], eax
	mov	ecx, DWORD PTR ?tr@@3Uref_globals_t@@A+5830672
	mov	DWORD PTR _v_angles$[ebp+4], ecx
	mov	edx, DWORD PTR ?tr@@3Uref_globals_t@@A+5830676
	mov	DWORD PTR _v_angles$[ebp+8], edx

; 55   : 	v_origin = tr.viewparams.vieworg;

	mov	eax, DWORD PTR ?tr@@3Uref_globals_t@@A+5830656
	mov	DWORD PTR _v_origin$[ebp], eax
	mov	ecx, DWORD PTR ?tr@@3Uref_globals_t@@A+5830660
	mov	DWORD PTR _v_origin$[ebp+4], ecx
	mov	edx, DWORD PTR ?tr@@3Uref_globals_t@@A+5830664
	mov	DWORD PTR _v_origin$[ebp+8], edx

; 56   : 	AngleVectors( v_angles, forward, NULL, NULL );

	push	0
	push	0
	lea	ecx, DWORD PTR _forward$[ebp]
	call	??BVector@@QAEPAMXZ			; Vector::operator float *
	push	eax
	lea	ecx, DWORD PTR _v_angles$[ebp]
	call	??BVector@@QAEPAMXZ			; Vector::operator float *
	push	eax
	call	DWORD PTR ?gEngfuncs@@3Ucl_enginefuncs_s@@A+96
	add	esp, 16					; 00000010H

; 57   : 	AngleVectors( sunangles, sundir, NULL, NULL );

	push	0
	push	0
	lea	ecx, DWORD PTR _sundir$[ebp]
	call	??BVector@@QAEPAMXZ			; Vector::operator float *
	push	eax
	lea	ecx, DWORD PTR _sunangles$[ebp]
	call	??BVector@@QAEPAMXZ			; Vector::operator float *
	push	eax
	call	DWORD PTR ?gEngfuncs@@3Ucl_enginefuncs_s@@A+96
	add	esp, 16					; 00000010H

; 58   : 	suntarget = v_origin + sundir * 135000; // maps can be this big :)

	push	ecx
	movss	xmm0, DWORD PTR __real@4803d600
	movss	DWORD PTR [esp], xmm0
	lea	eax, DWORD PTR $T3[ebp]
	push	eax
	lea	ecx, DWORD PTR _sundir$[ebp]
	call	??DVector@@QBE?AV0@M@Z			; Vector::operator*
	push	eax
	lea	ecx, DWORD PTR $T2[ebp]
	push	ecx
	lea	ecx, DWORD PTR _v_origin$[ebp]
	call	??HVector@@QBE?AV0@ABV0@@Z		; Vector::operator+
	mov	edx, DWORD PTR [eax]
	mov	DWORD PTR _suntarget$[ebp], edx
	mov	ecx, DWORD PTR [eax+4]
	mov	DWORD PTR _suntarget$[ebp+4], ecx
	mov	edx, DWORD PTR [eax+8]
	mov	DWORD PTR _suntarget$[ebp+8], edx

; 59   : 
; 60   : 	DotP = DotProduct( forward, sundir );

	lea	eax, DWORD PTR _sundir$[ebp]
	push	eax
	lea	ecx, DWORD PTR _forward$[ebp]
	push	ecx
	call	?DotProduct@@YAMABVVector@@0@Z		; DotProduct
	add	esp, 8
	fstp	DWORD PTR _DotP$[ebp]

; 61   : 	if( BlendMult <= 0.0f && DotP < 0.8 )

	mov	eax, DWORD PTR _this$[ebp]
	xorps	xmm0, xmm0
	comiss	xmm0, DWORD PTR [eax+376]
	jb	SHORT $LN9@Draw
	cvtss2sd xmm0, DWORD PTR _DotP$[ebp]
	movsd	xmm1, QWORD PTR __real@3fe999999999999a
	comisd	xmm1, xmm0
	jbe	SHORT $LN9@Draw

; 62   : 		return 1;

	mov	eax, 1
	jmp	$LN1@Draw
$LN9@Draw:

; 63   : 
; 64   : //	gEngfuncs.pEventAPI->EV_SetTraceHull( 2 );
; 65   : //	gEngfuncs.pEventAPI->EV_PlayerTrace( v_origin, suntarget, PM_GLASS_IGNORE, -1, &trace );
; 66   : 	int maxLoops = 4;

	mov	DWORD PTR _maxLoops$[ebp], 4

; 67   : 	int ignoreent = -1;	// first, ignore no entity

	mov	DWORD PTR _ignoreent$[ebp], -1

; 68   : 	cl_entity_t *ent = NULL;

	mov	DWORD PTR _ent$[ebp], 0

; 69   : 	Vector vecStart = v_origin;

	lea	eax, DWORD PTR _v_origin$[ebp]
	push	eax
	lea	ecx, DWORD PTR _vecStart$[ebp]
	call	??0Vector@@QAE@ABV0@@Z			; Vector::Vector
$LN2@Draw:

; 70   : 	while( maxLoops > 0 )

	cmp	DWORD PTR _maxLoops$[ebp], 0
	jle	$LN3@Draw

; 71   : 	{
; 72   : 		gEngfuncs.pEventAPI->EV_SetTraceHull( 2 );

	push	2
	mov	eax, DWORD PTR ?gEngfuncs@@3Ucl_enginefuncs_s@@A+336
	mov	ecx, DWORD PTR [eax+56]
	call	ecx
	add	esp, 4

; 73   : 		gEngfuncs.pEventAPI->EV_PlayerTrace( vecStart, suntarget, PM_TRACELINE_PHYSENTSONLY, ignoreent, &trace );

	lea	eax, DWORD PTR _trace$[ebp]
	push	eax
	mov	ecx, DWORD PTR _ignoreent$[ebp]
	push	ecx
	push	0
	lea	ecx, DWORD PTR _suntarget$[ebp]
	call	??BVector@@QAEPAMXZ			; Vector::operator float *
	push	eax
	lea	ecx, DWORD PTR _vecStart$[ebp]
	call	??BVector@@QAEPAMXZ			; Vector::operator float *
	push	eax
	mov	edx, DWORD PTR ?gEngfuncs@@3Ucl_enginefuncs_s@@A+336
	mov	eax, DWORD PTR [edx+60]
	call	eax
	add	esp, 20					; 00000014H

; 74   : 		
; 75   : 		if( trace.ent <= 0 ) break; // we hit the world or nothing, stop trace

	cmp	DWORD PTR _trace$[ebp+48], 0
	jg	SHORT $LN10@Draw
	jmp	$LN3@Draw
$LN10@Draw:

; 76   : 		
; 77   : 		ent = GET_ENTITY( PM_GetPhysEntInfo( trace.ent ) );

	mov	eax, DWORD PTR _trace$[ebp+48]
	push	eax
	call	?PM_GetPhysEntInfo@@YAHH@Z		; PM_GetPhysEntInfo
	add	esp, 4
	push	eax
	call	DWORD PTR ?gEngfuncs@@3Ucl_enginefuncs_s@@A+212
	add	esp, 4
	mov	DWORD PTR _ent$[ebp], eax

; 78   : 		if( ent == NULL ) break;

	cmp	DWORD PTR _ent$[ebp], 0
	jne	SHORT $LN11@Draw
	jmp	$LN3@Draw
$LN11@Draw:

; 79   : 
; 80   : 		if( ent->curstate.rendermode == kRenderNormal )

	mov	eax, DWORD PTR _ent$[ebp]
	cmp	DWORD PTR [eax+760], 0
	jne	SHORT $LN12@Draw

; 81   : 			break;

	jmp	$LN3@Draw
$LN12@Draw:

; 82   : 
; 83   : 		if( ent->curstate.rendermode == kRenderTransTexture && ent->curstate.renderamt == 0 ) // invisible brush "collision", so it's likely a model

	mov	eax, DWORD PTR _ent$[ebp]
	cmp	DWORD PTR [eax+760], 2
	jne	SHORT $LN13@Draw
	mov	eax, DWORD PTR _ent$[ebp]
	cmp	DWORD PTR [eax+764], 0
	jne	SHORT $LN13@Draw

; 84   : 			break;

	jmp	$LN3@Draw
$LN13@Draw:

; 85   : 
; 86   : 		if( ent->curstate.rendermode == kRenderTransColor && ent->curstate.renderamt == 255 )

	mov	eax, DWORD PTR _ent$[ebp]
	cmp	DWORD PTR [eax+760], 1
	jne	SHORT $LN14@Draw
	mov	eax, DWORD PTR _ent$[ebp]
	cmp	DWORD PTR [eax+764], 255		; 000000ffH
	jne	SHORT $LN14@Draw

; 87   : 			break;

	jmp	SHORT $LN3@Draw
$LN14@Draw:

; 88   : 
; 89   : 		// if close enought to end pos, stop, otherwise continue trace
; 90   : 		if( (suntarget - trace.endpos).Length() < 1.0f )

	lea	eax, DWORD PTR _trace$[ebp+20]
	push	eax
	lea	ecx, DWORD PTR $T1[ebp]
	push	ecx
	lea	ecx, DWORD PTR _suntarget$[ebp]
	call	??GVector@@QBE?AV0@ABV0@@Z		; Vector::operator-
	mov	ecx, eax
	call	?Length@Vector@@QBEMXZ			; Vector::Length
	fstp	DWORD PTR tv2146[ebp]
	movss	xmm0, DWORD PTR __real@3f800000
	comiss	xmm0, DWORD PTR tv2146[ebp]
	jbe	SHORT $LN15@Draw

; 91   : 			break;

	jmp	SHORT $LN3@Draw

; 92   : 		else

	jmp	SHORT $LN16@Draw
$LN15@Draw:

; 93   : 		{
; 94   : 			ignoreent = trace.ent;	// ignore last hit entity

	mov	eax, DWORD PTR _trace$[ebp+48]
	mov	DWORD PTR _ignoreent$[ebp], eax

; 95   : 			vecStart = trace.endpos;

	mov	eax, DWORD PTR _trace$[ebp+20]
	mov	DWORD PTR _vecStart$[ebp], eax
	mov	ecx, DWORD PTR _trace$[ebp+24]
	mov	DWORD PTR _vecStart$[ebp+4], ecx
	mov	edx, DWORD PTR _trace$[ebp+28]
	mov	DWORD PTR _vecStart$[ebp+8], edx
$LN16@Draw:

; 96   : 		}
; 97   : 		maxLoops--;

	mov	eax, DWORD PTR _maxLoops$[ebp]
	sub	eax, 1
	mov	DWORD PTR _maxLoops$[ebp], eax

; 98   : 	}

	jmp	$LN2@Draw
$LN3@Draw:

; 99   : 
; 100  : 	const char *texName = gEngfuncs.pEventAPI->EV_TraceTexture( trace.ent, vecStart, trace.endpos );

	lea	ecx, DWORD PTR _trace$[ebp+20]
	call	??BVector@@QAEPAMXZ			; Vector::operator float *
	push	eax
	lea	ecx, DWORD PTR _vecStart$[ebp]
	call	??BVector@@QAEPAMXZ			; Vector::operator float *
	push	eax
	mov	eax, DWORD PTR _trace$[ebp+48]
	push	eax
	mov	ecx, DWORD PTR ?gEngfuncs@@3Ucl_enginefuncs_s@@A+336
	mov	edx, DWORD PTR [ecx+76]
	call	edx
	add	esp, 12					; 0000000cH
	mov	DWORD PTR _texName$[ebp], eax

; 101  : 	if( texName && !Q_strnicmp( texName, "sky", 3 ) && DotP > 0.8 )

	cmp	DWORD PTR _texName$[ebp], 0
	je	SHORT $LN17@Draw
	push	3
	push	OFFSET ??_C@_03BNEOMJOP@sky?$AA@
	mov	eax, DWORD PTR _texName$[ebp]
	push	eax
	call	?Q_strnicmp@@YAHPBD0H@Z			; Q_strnicmp
	add	esp, 12					; 0000000cH
	test	eax, eax
	jne	SHORT $LN17@Draw
	cvtss2sd xmm0, DWORD PTR _DotP$[ebp]
	comisd	xmm0, QWORD PTR __real@3fe999999999999a
	jbe	SHORT $LN17@Draw

; 102  : 		BlendMult += 5 * g_fFrametime;

	movss	xmm0, DWORD PTR __real@40a00000
	mulss	xmm0, DWORD PTR ?g_fFrametime@@3MA
	mov	eax, DWORD PTR _this$[ebp]
	addss	xmm0, DWORD PTR [eax+376]
	mov	ecx, DWORD PTR _this$[ebp]
	movss	DWORD PTR [ecx+376], xmm0

; 103  : 	else

	jmp	SHORT $LN18@Draw
$LN17@Draw:

; 104  : 		BlendMult -= g_fFrametime;

	mov	eax, DWORD PTR _this$[ebp]
	movss	xmm0, DWORD PTR [eax+376]
	subss	xmm0, DWORD PTR ?g_fFrametime@@3MA
	mov	ecx, DWORD PTR _this$[ebp]
	movss	DWORD PTR [ecx+376], xmm0
$LN18@Draw:

; 105  : 
; 106  : 	BlendMult = bound( 0, BlendMult, 1 - gHUD.ScreenDrips_DripIntensity );

	mov	eax, DWORD PTR _this$[ebp]
	movss	xmm0, DWORD PTR [eax+376]
	comiss	xmm0, DWORD PTR __real@00000000
	jb	SHORT $LN30@Draw
	movss	xmm0, DWORD PTR __real@3f800000
	subss	xmm0, DWORD PTR ?gHUD@@3VCHud@@A+164
	mov	ecx, DWORD PTR _this$[ebp]
	comiss	xmm0, DWORD PTR [ecx+376]
	jbe	SHORT $LN28@Draw
	mov	edx, DWORD PTR _this$[ebp]
	movss	xmm0, DWORD PTR [edx+376]
	movss	DWORD PTR tv239[ebp], xmm0
	jmp	SHORT $LN29@Draw
$LN28@Draw:
	movss	xmm0, DWORD PTR __real@3f800000
	subss	xmm0, DWORD PTR ?gHUD@@3VCHud@@A+164
	movss	DWORD PTR tv239[ebp], xmm0
$LN29@Draw:
	movss	xmm0, DWORD PTR tv239[ebp]
	movss	DWORD PTR tv240[ebp], xmm0
	jmp	SHORT $LN31@Draw
$LN30@Draw:
	xorps	xmm0, xmm0
	movss	DWORD PTR tv240[ebp], xmm0
$LN31@Draw:
	mov	eax, DWORD PTR _this$[ebp]
	movss	xmm0, DWORD PTR tv240[ebp]
	movss	DWORD PTR [eax+376], xmm0

; 107  : 		
; 108  : 	if( BlendMult <= 0.0f )

	mov	eax, DWORD PTR _this$[ebp]
	xorps	xmm0, xmm0
	comiss	xmm0, DWORD PTR [eax+376]
	jb	SHORT $LN19@Draw

; 109  : 		return 1;

	mov	eax, 1
	jmp	$LN1@Draw
$LN19@Draw:

; 110  : 		
; 111  : 	text[0] = SPR_Load( "sprites/lens/lens1.spr" );

	push	OFFSET ??_C@_0BH@MIGHPCAM@sprites?1lens?1lens1?4spr?$AA@
	call	DWORD PTR ?gEngfuncs@@3Ucl_enginefuncs_s@@A
	add	esp, 4
	mov	ecx, 1
	imul	edx, ecx, 0
	mov	ecx, DWORD PTR _this$[ebp]
	mov	BYTE PTR [ecx+edx+268], al

; 112  : 	red[0] = green[0] = blue[0] = 1.0;

	mov	eax, 4
	imul	ecx, eax, 0
	mov	edx, DWORD PTR _this$[ebp]
	mov	DWORD PTR [edx+ecx+228], 1
	mov	eax, 4
	imul	ecx, eax, 0
	mov	edx, DWORD PTR _this$[ebp]
	mov	DWORD PTR [edx+ecx+188], 1
	mov	eax, 4
	imul	ecx, eax, 0
	mov	edx, DWORD PTR _this$[ebp]
	mov	DWORD PTR [edx+ecx+148], 1

; 113  : 	scale[0] = 45;

	mov	eax, 4
	imul	ecx, eax, 0
	mov	edx, DWORD PTR _this$[ebp]
	mov	DWORD PTR [edx+ecx+108], 45		; 0000002dH

; 114  : 	multi[0] = -0.45;

	mov	eax, 4
	imul	ecx, eax, 0
	mov	edx, DWORD PTR _this$[ebp]
	movss	xmm0, DWORD PTR __real@bee66666
	movss	DWORD PTR [edx+ecx+68], xmm0

; 115  : 
; 116  : 	text[1] = SPR_Load( "sprites/lens/lens2.spr" );

	push	OFFSET ??_C@_0BH@EOPDIAKC@sprites?1lens?1lens2?4spr?$AA@
	call	DWORD PTR ?gEngfuncs@@3Ucl_enginefuncs_s@@A
	add	esp, 4
	mov	ecx, 1
	shl	ecx, 0
	mov	edx, DWORD PTR _this$[ebp]
	mov	BYTE PTR [edx+ecx+268], al

; 117  : 	red[1] = green[0] = blue[0] = 1.0;

	mov	eax, 4
	imul	ecx, eax, 0
	mov	edx, DWORD PTR _this$[ebp]
	mov	DWORD PTR [edx+ecx+228], 1
	mov	eax, 4
	imul	ecx, eax, 0
	mov	edx, DWORD PTR _this$[ebp]
	mov	DWORD PTR [edx+ecx+188], 1
	mov	eax, 4
	shl	eax, 0
	mov	ecx, DWORD PTR _this$[ebp]
	mov	DWORD PTR [ecx+eax+148], 1

; 118  : 	scale[1] = 25;

	mov	eax, 4
	shl	eax, 0
	mov	ecx, DWORD PTR _this$[ebp]
	mov	DWORD PTR [ecx+eax+108], 25		; 00000019H

; 119  : 	multi[1] = 0.2;

	mov	eax, 4
	shl	eax, 0
	mov	ecx, DWORD PTR _this$[ebp]
	movss	xmm0, DWORD PTR __real@3e4ccccd
	movss	DWORD PTR [ecx+eax+68], xmm0

; 120  : 
; 121  : 	text[2] = SPR_Load( "sprites/lens/glow1.spr" );

	push	OFFSET ??_C@_0BH@KEMBJLCN@sprites?1lens?1glow1?4spr?$AA@
	call	DWORD PTR ?gEngfuncs@@3Ucl_enginefuncs_s@@A
	add	esp, 4
	mov	ecx, 1
	shl	ecx, 1
	mov	edx, DWORD PTR _this$[ebp]
	mov	BYTE PTR [edx+ecx+268], al

; 122  : 	red[2] = 132 / 255;

	mov	eax, 4
	shl	eax, 1
	mov	ecx, DWORD PTR _this$[ebp]
	mov	DWORD PTR [ecx+eax+148], 0

; 123  : 	green[2] = 1.0;

	mov	eax, 4
	shl	eax, 1
	mov	ecx, DWORD PTR _this$[ebp]
	mov	DWORD PTR [ecx+eax+188], 1

; 124  : 	blue[2] = 153 / 255;

	mov	eax, 4
	shl	eax, 1
	mov	ecx, DWORD PTR _this$[ebp]
	mov	DWORD PTR [ecx+eax+228], 0

; 125  : 	scale[2] = 35;

	mov	eax, 4
	shl	eax, 1
	mov	ecx, DWORD PTR _this$[ebp]
	mov	DWORD PTR [ecx+eax+108], 35		; 00000023H

; 126  : 	multi[2] = 0.3;

	mov	eax, 4
	shl	eax, 1
	mov	ecx, DWORD PTR _this$[ebp]
	movss	xmm0, DWORD PTR __real@3e99999a
	movss	DWORD PTR [ecx+eax+68], xmm0

; 127  : 
; 128  : 	text[3] = SPR_Load( "sprites/lens/glow2.spr" );

	push	OFFSET ??_C@_0BH@CCFFOJID@sprites?1lens?1glow2?4spr?$AA@
	call	DWORD PTR ?gEngfuncs@@3Ucl_enginefuncs_s@@A
	add	esp, 4
	mov	ecx, 1
	imul	edx, ecx, 3
	mov	ecx, DWORD PTR _this$[ebp]
	mov	BYTE PTR [ecx+edx+268], al

; 129  : 	red[3] = 1.0;

	mov	eax, 4
	imul	ecx, eax, 3
	mov	edx, DWORD PTR _this$[ebp]
	mov	DWORD PTR [edx+ecx+148], 1

; 130  : 	green[3] = 164 / 255;

	mov	eax, 4
	imul	ecx, eax, 3
	mov	edx, DWORD PTR _this$[ebp]
	mov	DWORD PTR [edx+ecx+188], 0

; 131  : 	blue[3] = 164 / 255;

	mov	eax, 4
	imul	ecx, eax, 3
	mov	edx, DWORD PTR _this$[ebp]
	mov	DWORD PTR [edx+ecx+228], 0

; 132  : 	scale[3] = 40;

	mov	eax, 4
	imul	ecx, eax, 3
	mov	edx, DWORD PTR _this$[ebp]
	mov	DWORD PTR [edx+ecx+108], 40		; 00000028H

; 133  : 	multi[3] = 0.46;

	mov	eax, 4
	imul	ecx, eax, 3
	mov	edx, DWORD PTR _this$[ebp]
	movss	xmm0, DWORD PTR __real@3eeb851f
	movss	DWORD PTR [edx+ecx+68], xmm0

; 134  : 
; 135  : 	text[4] = SPR_Load( "sprites/lens/lens3.spr" );

	push	OFFSET ??_C@_0BH@IFKPFDAH@sprites?1lens?1lens3?4spr?$AA@
	call	DWORD PTR ?gEngfuncs@@3Ucl_enginefuncs_s@@A
	add	esp, 4
	mov	ecx, 1
	shl	ecx, 2
	mov	edx, DWORD PTR _this$[ebp]
	mov	BYTE PTR [edx+ecx+268], al

; 136  : 	red[4] = 1.0;

	mov	eax, 4
	shl	eax, 2
	mov	ecx, DWORD PTR _this$[ebp]
	mov	DWORD PTR [ecx+eax+148], 1

; 137  : 	green[4] = 164 / 255;

	mov	eax, 4
	shl	eax, 2
	mov	ecx, DWORD PTR _this$[ebp]
	mov	DWORD PTR [ecx+eax+188], 0

; 138  : 	blue[4] = 164 / 255;

	mov	eax, 4
	shl	eax, 2
	mov	ecx, DWORD PTR _this$[ebp]
	mov	DWORD PTR [ecx+eax+228], 0

; 139  : 	scale[4] = 52;

	mov	eax, 4
	shl	eax, 2
	mov	ecx, DWORD PTR _this$[ebp]
	mov	DWORD PTR [ecx+eax+108], 52		; 00000034H

; 140  : 	multi[4] = 0.5;

	mov	eax, 4
	shl	eax, 2
	mov	ecx, DWORD PTR _this$[ebp]
	movss	xmm0, DWORD PTR __real@3f000000
	movss	DWORD PTR [ecx+eax+68], xmm0

; 141  : 
; 142  : 	text[5] = SPR_Load( "sprites/lens/lens2.spr" );

	push	OFFSET ??_C@_0BH@EOPDIAKC@sprites?1lens?1lens2?4spr?$AA@
	call	DWORD PTR ?gEngfuncs@@3Ucl_enginefuncs_s@@A
	add	esp, 4
	mov	ecx, 1
	imul	edx, ecx, 5
	mov	ecx, DWORD PTR _this$[ebp]
	mov	BYTE PTR [ecx+edx+268], al

; 143  : 	red[5] = green[5] = blue[5] = 1.0;

	mov	eax, 4
	imul	ecx, eax, 5
	mov	edx, DWORD PTR _this$[ebp]
	mov	DWORD PTR [edx+ecx+228], 1
	mov	eax, 4
	imul	ecx, eax, 5
	mov	edx, DWORD PTR _this$[ebp]
	mov	DWORD PTR [edx+ecx+188], 1
	mov	eax, 4
	imul	ecx, eax, 5
	mov	edx, DWORD PTR _this$[ebp]
	mov	DWORD PTR [edx+ecx+148], 1

; 144  : 	scale[5] = 31;

	mov	eax, 4
	imul	ecx, eax, 5
	mov	edx, DWORD PTR _this$[ebp]
	mov	DWORD PTR [edx+ecx+108], 31		; 0000001fH

; 145  : 	multi[5] = 0.54;

	mov	eax, 4
	imul	ecx, eax, 5
	mov	edx, DWORD PTR _this$[ebp]
	movss	xmm0, DWORD PTR __real@3f0a3d71
	movss	DWORD PTR [edx+ecx+68], xmm0

; 146  : 
; 147  : 	text[6] = SPR_Load( "sprites/lens/lens2.spr" );

	push	OFFSET ??_C@_0BH@EOPDIAKC@sprites?1lens?1lens2?4spr?$AA@
	call	DWORD PTR ?gEngfuncs@@3Ucl_enginefuncs_s@@A
	add	esp, 4
	mov	ecx, 1
	imul	edx, ecx, 6
	mov	ecx, DWORD PTR _this$[ebp]
	mov	BYTE PTR [ecx+edx+268], al

; 148  : 	red[6] = 0.6;

	mov	eax, 4
	imul	ecx, eax, 6
	mov	edx, DWORD PTR _this$[ebp]
	mov	DWORD PTR [edx+ecx+148], 0

; 149  : 	green[6] = 1.0;

	mov	eax, 4
	imul	ecx, eax, 6
	mov	edx, DWORD PTR _this$[ebp]
	mov	DWORD PTR [edx+ecx+188], 1

; 150  : 	blue[6] = 0.6;

	mov	eax, 4
	imul	ecx, eax, 6
	mov	edx, DWORD PTR _this$[ebp]
	mov	DWORD PTR [edx+ecx+228], 0

; 151  : 	scale[6] = 26;

	mov	eax, 4
	imul	ecx, eax, 6
	mov	edx, DWORD PTR _this$[ebp]
	mov	DWORD PTR [edx+ecx+108], 26		; 0000001aH

; 152  : 	multi[6] = 0.64;

	mov	eax, 4
	imul	ecx, eax, 6
	mov	edx, DWORD PTR _this$[ebp]
	movss	xmm0, DWORD PTR __real@3f23d70a
	movss	DWORD PTR [edx+ecx+68], xmm0

; 153  : 
; 154  : 	text[7] = SPR_Load( "sprites/lens/glow1.spr" );

	push	OFFSET ??_C@_0BH@KEMBJLCN@sprites?1lens?1glow1?4spr?$AA@
	call	DWORD PTR ?gEngfuncs@@3Ucl_enginefuncs_s@@A
	add	esp, 4
	mov	ecx, 1
	imul	edx, ecx, 7
	mov	ecx, DWORD PTR _this$[ebp]
	mov	BYTE PTR [ecx+edx+268], al

; 155  : 	red[7] = 0.5;

	mov	eax, 4
	imul	ecx, eax, 7
	mov	edx, DWORD PTR _this$[ebp]
	mov	DWORD PTR [edx+ecx+148], 0

; 156  : 	green[7] = 1.0;

	mov	eax, 4
	imul	ecx, eax, 7
	mov	edx, DWORD PTR _this$[ebp]
	mov	DWORD PTR [edx+ecx+188], 1

; 157  : 	blue[7] = 0.5;

	mov	eax, 4
	imul	ecx, eax, 7
	mov	edx, DWORD PTR _this$[ebp]
	mov	DWORD PTR [edx+ecx+228], 0

; 158  : 	scale[7] = 20;

	mov	eax, 4
	imul	ecx, eax, 7
	mov	edx, DWORD PTR _this$[ebp]
	mov	DWORD PTR [edx+ecx+108], 20		; 00000014H

; 159  : 	multi[7] = 0.77;

	mov	eax, 4
	imul	ecx, eax, 7
	mov	edx, DWORD PTR _this$[ebp]
	movss	xmm0, DWORD PTR __real@3f451eb8
	movss	DWORD PTR [edx+ecx+68], xmm0

; 160  : 
; 161  : 	text[8] = SPR_Load( "sprites/lens/lens2.spr" );

	push	OFFSET ??_C@_0BH@EOPDIAKC@sprites?1lens?1lens2?4spr?$AA@
	call	DWORD PTR ?gEngfuncs@@3Ucl_enginefuncs_s@@A
	add	esp, 4
	mov	ecx, 1
	shl	ecx, 3
	mov	edx, DWORD PTR _this$[ebp]
	mov	BYTE PTR [edx+ecx+268], al

; 162  : 
; 163  : 	text[9] = SPR_Load( "sprites/lens/lens1.spr" );

	push	OFFSET ??_C@_0BH@MIGHPCAM@sprites?1lens?1lens1?4spr?$AA@
	call	DWORD PTR ?gEngfuncs@@3Ucl_enginefuncs_s@@A
	add	esp, 4
	mov	ecx, 1
	imul	edx, ecx, 9
	mov	ecx, DWORD PTR _this$[ebp]
	mov	BYTE PTR [ecx+edx+268], al

; 164  : 
; 165  : 	flPlayerBlend = 0.0;

	mov	eax, DWORD PTR _this$[ebp]
	xorps	xmm0, xmm0
	movss	DWORD PTR [eax+36], xmm0

; 166  : 	flPlayerBlend2 = 0.0;

	mov	eax, DWORD PTR _this$[ebp]
	xorps	xmm0, xmm0
	movss	DWORD PTR [eax+40], xmm0

; 167  : 
; 168  : 	flPlayerBlend = max( DotP - 0.85, 0.0 ) * 6.8 * BlendMult;

	cvtss2sd xmm0, DWORD PTR _DotP$[ebp]
	subsd	xmm0, QWORD PTR __real@3feb333333333333
	comisd	xmm0, QWORD PTR __real@0000000000000000
	jbe	SHORT $LN32@Draw
	cvtss2sd xmm0, DWORD PTR _DotP$[ebp]
	subsd	xmm0, QWORD PTR __real@3feb333333333333
	movsd	QWORD PTR tv463[ebp], xmm0
	jmp	SHORT $LN33@Draw
$LN32@Draw:
	xorps	xmm0, xmm0
	movsd	QWORD PTR tv463[ebp], xmm0
$LN33@Draw:
	movsd	xmm0, QWORD PTR tv463[ebp]
	mulsd	xmm0, QWORD PTR __real@401b333333333333
	mov	eax, DWORD PTR _this$[ebp]
	cvtss2sd xmm1, DWORD PTR [eax+376]
	mulsd	xmm0, xmm1
	cvtsd2ss xmm0, xmm0
	mov	ecx, DWORD PTR _this$[ebp]
	movss	DWORD PTR [ecx+36], xmm0

; 169  : 	if( flPlayerBlend > 1.0 )

	mov	eax, DWORD PTR _this$[ebp]
	cvtss2sd xmm0, DWORD PTR [eax+36]
	comisd	xmm0, QWORD PTR __real@3ff0000000000000
	jbe	SHORT $LN20@Draw

; 170  : 		flPlayerBlend = 1.0;

	mov	eax, DWORD PTR _this$[ebp]
	movss	xmm0, DWORD PTR __real@3f800000
	movss	DWORD PTR [eax+36], xmm0
$LN20@Draw:

; 171  : 
; 172  : 	flPlayerBlend4 = max( DotP - 0.90, 0.0 ) * 6.6 * BlendMult;

	cvtss2sd xmm0, DWORD PTR _DotP$[ebp]
	subsd	xmm0, QWORD PTR __real@3feccccccccccccd
	comisd	xmm0, QWORD PTR __real@0000000000000000
	jbe	SHORT $LN34@Draw
	cvtss2sd xmm0, DWORD PTR _DotP$[ebp]
	subsd	xmm0, QWORD PTR __real@3feccccccccccccd
	movsd	QWORD PTR tv479[ebp], xmm0
	jmp	SHORT $LN35@Draw
$LN34@Draw:
	xorps	xmm0, xmm0
	movsd	QWORD PTR tv479[ebp], xmm0
$LN35@Draw:
	movsd	xmm0, QWORD PTR tv479[ebp]
	mulsd	xmm0, QWORD PTR __real@401a666666666666
	mov	eax, DWORD PTR _this$[ebp]
	cvtss2sd xmm1, DWORD PTR [eax+376]
	mulsd	xmm0, xmm1
	cvtsd2ss xmm0, xmm0
	mov	ecx, DWORD PTR _this$[ebp]
	movss	DWORD PTR [ecx+48], xmm0

; 173  : 	if( flPlayerBlend4 > 1.0 )

	mov	eax, DWORD PTR _this$[ebp]
	cvtss2sd xmm0, DWORD PTR [eax+48]
	comisd	xmm0, QWORD PTR __real@3ff0000000000000
	jbe	SHORT $LN21@Draw

; 174  : 		flPlayerBlend4 = 1.0;

	mov	eax, DWORD PTR _this$[ebp]
	movss	xmm0, DWORD PTR __real@3f800000
	movss	DWORD PTR [eax+48], xmm0
$LN21@Draw:

; 175  : 
; 176  : 	flPlayerBlend6 = max( DotP - 0.80, 0.0 ) * 6.7 * BlendMult;

	cvtss2sd xmm0, DWORD PTR _DotP$[ebp]
	subsd	xmm0, QWORD PTR __real@3fe999999999999a
	comisd	xmm0, QWORD PTR __real@0000000000000000
	jbe	SHORT $LN36@Draw
	cvtss2sd xmm0, DWORD PTR _DotP$[ebp]
	subsd	xmm0, QWORD PTR __real@3fe999999999999a
	movsd	QWORD PTR tv495[ebp], xmm0
	jmp	SHORT $LN37@Draw
$LN36@Draw:
	xorps	xmm0, xmm0
	movsd	QWORD PTR tv495[ebp], xmm0
$LN37@Draw:
	movsd	xmm0, QWORD PTR tv495[ebp]
	mulsd	xmm0, QWORD PTR __real@401acccccccccccd
	mov	eax, DWORD PTR _this$[ebp]
	cvtss2sd xmm1, DWORD PTR [eax+376]
	mulsd	xmm0, xmm1
	cvtsd2ss xmm0, xmm0
	mov	ecx, DWORD PTR _this$[ebp]
	movss	DWORD PTR [ecx+56], xmm0

; 177  : 	if( flPlayerBlend6 > 1.0 )

	mov	eax, DWORD PTR _this$[ebp]
	cvtss2sd xmm0, DWORD PTR [eax+56]
	comisd	xmm0, QWORD PTR __real@3ff0000000000000
	jbe	SHORT $LN22@Draw

; 178  : 		flPlayerBlend6 = 1.0;

	mov	eax, DWORD PTR _this$[ebp]
	movss	xmm0, DWORD PTR __real@3f800000
	movss	DWORD PTR [eax+56], xmm0
$LN22@Draw:

; 179  : 
; 180  : 	flPlayerBlend2 = flPlayerBlend6 * 140.0 * BlendMult;

	mov	eax, DWORD PTR _this$[ebp]
	cvtss2sd xmm0, DWORD PTR [eax+56]
	mulsd	xmm0, QWORD PTR __real@4061800000000000
	mov	ecx, DWORD PTR _this$[ebp]
	cvtss2sd xmm1, DWORD PTR [ecx+376]
	mulsd	xmm0, xmm1
	cvtsd2ss xmm0, xmm0
	mov	edx, DWORD PTR _this$[ebp]
	movss	DWORD PTR [edx+40], xmm0

; 181  : 	flPlayerBlend3 = flPlayerBlend * 190.0 * BlendMult;

	mov	eax, DWORD PTR _this$[ebp]
	cvtss2sd xmm0, DWORD PTR [eax+36]
	mulsd	xmm0, QWORD PTR __real@4067c00000000000
	mov	ecx, DWORD PTR _this$[ebp]
	cvtss2sd xmm1, DWORD PTR [ecx+376]
	mulsd	xmm0, xmm1
	cvtsd2ss xmm0, xmm0
	mov	edx, DWORD PTR _this$[ebp]
	movss	DWORD PTR [edx+44], xmm0

; 182  : 	flPlayerBlend5 = flPlayerBlend4 * 222.0 * BlendMult;

	mov	eax, DWORD PTR _this$[ebp]
	cvtss2sd xmm0, DWORD PTR [eax+48]
	mulsd	xmm0, QWORD PTR __real@406bc00000000000
	mov	ecx, DWORD PTR _this$[ebp]
	cvtss2sd xmm1, DWORD PTR [ecx+376]
	mulsd	xmm0, xmm1
	cvtsd2ss xmm0, xmm0
	mov	edx, DWORD PTR _this$[ebp]
	movss	DWORD PTR [edx+52], xmm0

; 183  : 
; 184  : 	Vector normal, point, origin;

	lea	ecx, DWORD PTR _normal$[ebp]
	call	??0Vector@@QAE@XZ			; Vector::Vector
	lea	ecx, DWORD PTR _point$[ebp]
	call	??0Vector@@QAE@XZ			; Vector::Vector
	lea	ecx, DWORD PTR _origin$[ebp]
	call	??0Vector@@QAE@XZ			; Vector::Vector

; 185  : 
; 186  : 	normal = tr.viewparams.viewangles;

	mov	eax, DWORD PTR ?tr@@3Uref_globals_t@@A+5830668
	mov	DWORD PTR _normal$[ebp], eax
	mov	ecx, DWORD PTR ?tr@@3Uref_globals_t@@A+5830672
	mov	DWORD PTR _normal$[ebp+4], ecx
	mov	edx, DWORD PTR ?tr@@3Uref_globals_t@@A+5830676
	mov	DWORD PTR _normal$[ebp+8], edx

; 187  : 	gEngfuncs.pfnAngleVectors( normal, forward, right, up );

	lea	ecx, DWORD PTR _up$[ebp]
	call	??BVector@@QAEPAMXZ			; Vector::operator float *
	push	eax
	lea	ecx, DWORD PTR _right$[ebp]
	call	??BVector@@QAEPAMXZ			; Vector::operator float *
	push	eax
	lea	ecx, DWORD PTR _forward$[ebp]
	call	??BVector@@QAEPAMXZ			; Vector::operator float *
	push	eax
	lea	ecx, DWORD PTR _normal$[ebp]
	call	??BVector@@QAEPAMXZ			; Vector::operator float *
	push	eax
	call	DWORD PTR ?gEngfuncs@@3Ucl_enginefuncs_s@@A+96
	add	esp, 16					; 00000010H

; 188  : 
; 189  : 	origin = trace.endpos;

	mov	eax, DWORD PTR _trace$[ebp+20]
	mov	DWORD PTR _origin$[ebp], eax
	mov	ecx, DWORD PTR _trace$[ebp+24]
	mov	DWORD PTR _origin$[ebp+4], ecx
	mov	edx, DWORD PTR _trace$[ebp+28]
	mov	DWORD PTR _origin$[ebp+8], edx

; 190  : 
; 191  : 	R_WorldToScreen( trace.endpos, screen );

	lea	eax, DWORD PTR _screen$[ebp]
	push	eax
	lea	ecx, DWORD PTR _trace$[ebp+20]
	push	ecx
	call	?R_WorldToScreen@@YAHABVVector@@AAV1@@Z	; R_WorldToScreen
	add	esp, 8

; 192  : 
; 193  : 	Suncoordx = XPROJECT( screen[0] );

	lea	ecx, DWORD PTR _screen$[ebp]
	call	??BVector@@QAEPAMXZ			; Vector::operator float *
	mov	ecx, 4
	imul	edx, ecx, 0
	movss	xmm0, DWORD PTR __real@3f800000
	addss	xmm0, DWORD PTR [eax+edx]
	cvtsi2ss xmm1, DWORD PTR ?gHUD@@3VCHud@@A+8436
	mulss	xmm0, xmm1
	mulss	xmm0, DWORD PTR __real@3f000000
	mov	eax, DWORD PTR _this$[ebp]
	movss	DWORD PTR [eax+360], xmm0

; 194  : 	Suncoordy = YPROJECT( screen[1] );

	lea	ecx, DWORD PTR _screen$[ebp]
	call	??BVector@@QAEPAMXZ			; Vector::operator float *
	mov	ecx, 4
	shl	ecx, 0
	movss	xmm0, DWORD PTR __real@3f800000
	subss	xmm0, DWORD PTR [eax+ecx]
	cvtsi2ss xmm1, DWORD PTR ?gHUD@@3VCHud@@A+8440
	mulss	xmm0, xmm1
	mulss	xmm0, DWORD PTR __real@3f000000
	mov	edx, DWORD PTR _this$[ebp]
	movss	DWORD PTR [edx+364], xmm0

; 195  : 
; 196  : 	if( Suncoordx < XRES( -10 ) || Suncoordx > XRES( 650 ) || Suncoordy < YRES( -10 ) || Suncoordy > YRES( 490 ) )

	cvtsi2ss xmm0, DWORD PTR ?gHUD@@3VCHud@@A+8436
	divss	xmm0, DWORD PTR __real@44200000
	mulss	xmm0, DWORD PTR __real@c1200000
	addss	xmm0, DWORD PTR __real@3f000000
	cvttss2si eax, xmm0
	cvtsi2ss xmm0, eax
	mov	ecx, DWORD PTR _this$[ebp]
	comiss	xmm0, DWORD PTR [ecx+360]
	ja	$LN24@Draw
	cvtsi2ss xmm0, DWORD PTR ?gHUD@@3VCHud@@A+8436
	divss	xmm0, DWORD PTR __real@44200000
	mulss	xmm0, DWORD PTR __real@44228000
	addss	xmm0, DWORD PTR __real@3f000000
	cvttss2si eax, xmm0
	cvtsi2ss xmm0, eax
	mov	ecx, DWORD PTR _this$[ebp]
	movss	xmm1, DWORD PTR [ecx+360]
	comiss	xmm1, xmm0
	ja	SHORT $LN24@Draw
	cvtsi2ss xmm0, DWORD PTR ?gHUD@@3VCHud@@A+8440
	divss	xmm0, DWORD PTR __real@43f00000
	mulss	xmm0, DWORD PTR __real@c1200000
	addss	xmm0, DWORD PTR __real@3f000000
	cvttss2si eax, xmm0
	cvtsi2ss xmm0, eax
	mov	ecx, DWORD PTR _this$[ebp]
	comiss	xmm0, DWORD PTR [ecx+364]
	ja	SHORT $LN24@Draw
	cvtsi2ss xmm0, DWORD PTR ?gHUD@@3VCHud@@A+8440
	divss	xmm0, DWORD PTR __real@43f00000
	mulss	xmm0, DWORD PTR __real@43f50000
	addss	xmm0, DWORD PTR __real@3f000000
	cvttss2si eax, xmm0
	cvtsi2ss xmm0, eax
	mov	ecx, DWORD PTR _this$[ebp]
	movss	xmm1, DWORD PTR [ecx+364]
	comiss	xmm1, xmm0
	jbe	SHORT $LN23@Draw
$LN24@Draw:

; 197  : 		return 1;

	mov	eax, 1
	jmp	$LN1@Draw
$LN23@Draw:

; 198  : 
; 199  : 	Screenmx = ScreenWidth / 2;

	mov	eax, DWORD PTR ?gHUD@@3VCHud@@A+8436
	cdq
	sub	eax, edx
	sar	eax, 1
	cvtsi2ss xmm0, eax
	mov	eax, DWORD PTR _this$[ebp]
	movss	DWORD PTR [eax+60], xmm0

; 200  : 	Screenmy = ScreenHeight / 2;

	mov	eax, DWORD PTR ?gHUD@@3VCHud@@A+8440
	cdq
	sub	eax, edx
	sar	eax, 1
	cvtsi2ss xmm0, eax
	mov	eax, DWORD PTR _this$[ebp]
	movss	DWORD PTR [eax+64], xmm0

; 201  : 
; 202  : 	Sundistx = Screenmx - Suncoordx;

	mov	eax, DWORD PTR _this$[ebp]
	mov	ecx, DWORD PTR _this$[ebp]
	movss	xmm0, DWORD PTR [eax+60]
	subss	xmm0, DWORD PTR [ecx+360]
	mov	edx, DWORD PTR _this$[ebp]
	movss	DWORD PTR [edx+368], xmm0

; 203  : 	Sundisty = Screenmy - Suncoordy;

	mov	eax, DWORD PTR _this$[ebp]
	mov	ecx, DWORD PTR _this$[ebp]
	movss	xmm0, DWORD PTR [eax+64]
	subss	xmm0, DWORD PTR [ecx+364]
	mov	edx, DWORD PTR _this$[ebp]
	movss	DWORD PTR [edx+372], xmm0

; 204  : /*
; 205  : 	gEngfuncs.pTriAPI->RenderMode( kRenderTransAdd ); //additive
; 206  : 	gEngfuncs.pTriAPI->SpriteTexture( (struct model_s *)gEngfuncs.GetSpritePointer( SPR_Load( "sprites/lens/lensflare2.spr" ) ), 0 );
; 207  : 	gEngfuncs.pTriAPI->CullFace( TRI_NONE ); //no culling
; 208  : 	gEngfuncs.pTriAPI->Color4f( tr.movevars->skycolor_r / 255, tr.movevars->skycolor_g / 255, tr.movevars->skycolor_b / 255, flPlayerBlend2 / 355.0 );
; 209  : 	gEngfuncs.pTriAPI->Brightness( flPlayerBlend2 / 355.0 );
; 210  : 	gEngfuncs.pTriAPI->Begin( TRI_QUADS ); //start our quad
; 211  : 	int crd = 190;
; 212  : 	gEngfuncs.pTriAPI->TexCoord2f( 0.0f, 1.0f ); gEngfuncs.pTriAPI->Vertex3f( Suncoordx + crd, Suncoordy + crd, 0 ); //top left
; 213  : 	gEngfuncs.pTriAPI->TexCoord2f( 0.0f, 0.0f ); gEngfuncs.pTriAPI->Vertex3f( Suncoordx + crd, Suncoordy - crd, 0 ); //bottom left
; 214  : 	gEngfuncs.pTriAPI->TexCoord2f( 1.0f, 0.0f ); gEngfuncs.pTriAPI->Vertex3f( Suncoordx - crd, Suncoordy - crd, 0 ); //bottom right
; 215  : 	gEngfuncs.pTriAPI->TexCoord2f( 1.0f, 1.0f ); gEngfuncs.pTriAPI->Vertex3f( Suncoordx - crd, Suncoordy + crd, 0 ); //top right
; 216  : 	gEngfuncs.pTriAPI->End(); //end our list of vertexes
; 217  : 	gEngfuncs.pTriAPI->RenderMode( kRenderNormal );
; 218  : */
; 219  : 	int crd = 190;

	mov	DWORD PTR _crd$[ebp], 190		; 000000beH

; 220  : 	gEngfuncs.pTriAPI->RenderMode( kRenderTransAdd );

	push	5
	mov	eax, DWORD PTR ?gEngfuncs@@3Ucl_enginefuncs_s@@A+328
	mov	ecx, DWORD PTR [eax+4]
	call	ecx
	add	esp, 4

; 221  : 	gEngfuncs.pTriAPI->Color4f( tr.movevars->skycolor_r / 255, tr.movevars->skycolor_g / 255, tr.movevars->skycolor_b / 255, flPlayerBlend2 / 355.0 );

	mov	eax, DWORD PTR _this$[ebp]
	cvtss2sd xmm0, DWORD PTR [eax+40]
	divsd	xmm0, QWORD PTR __real@4076300000000000
	cvtsd2ss xmm0, xmm0
	push	ecx
	movss	DWORD PTR [esp], xmm0
	mov	ecx, DWORD PTR ?tr@@3Uref_globals_t@@A+5830888
	movss	xmm0, DWORD PTR [ecx+116]
	divss	xmm0, DWORD PTR __real@437f0000
	push	ecx
	movss	DWORD PTR [esp], xmm0
	mov	edx, DWORD PTR ?tr@@3Uref_globals_t@@A+5830888
	movss	xmm0, DWORD PTR [edx+112]
	divss	xmm0, DWORD PTR __real@437f0000
	push	ecx
	movss	DWORD PTR [esp], xmm0
	mov	eax, DWORD PTR ?tr@@3Uref_globals_t@@A+5830888
	movss	xmm0, DWORD PTR [eax+108]
	divss	xmm0, DWORD PTR __real@437f0000
	push	ecx
	movss	DWORD PTR [esp], xmm0
	mov	ecx, DWORD PTR ?gEngfuncs@@3Ucl_enginefuncs_s@@A+328
	mov	edx, DWORD PTR [ecx+16]
	call	edx
	add	esp, 16					; 00000010H

; 222  : 	gEngfuncs.pTriAPI->Brightness( flPlayerBlend2 / 355.0 );

	mov	eax, DWORD PTR _this$[ebp]
	cvtss2sd xmm0, DWORD PTR [eax+40]
	divsd	xmm0, QWORD PTR __real@4076300000000000
	cvtsd2ss xmm0, xmm0
	push	ecx
	movss	DWORD PTR [esp], xmm0
	mov	ecx, DWORD PTR ?gEngfuncs@@3Ucl_enginefuncs_s@@A+328
	mov	edx, DWORD PTR [ecx+36]
	call	edx
	add	esp, 4

; 223  : 	GL_SelectTexture( 0 );

	push	0
	call	DWORD PTR ?gRenderfuncs@@3Urender_api_s@@A+136
	add	esp, 4

; 224  : 	GL_Bind( 0, SunFlareTexture );

	mov	eax, DWORD PTR ?SunFlareTexture@@3HA	; SunFlareTexture
	push	eax
	push	0
	call	DWORD PTR ?gRenderfuncs@@3Urender_api_s@@A+132
	add	esp, 8

; 225  : 	gEngfuncs.pTriAPI->Begin( TRI_QUADS );

	push	2
	mov	eax, DWORD PTR ?gEngfuncs@@3Ucl_enginefuncs_s@@A+328
	mov	ecx, DWORD PTR [eax+8]
	call	ecx
	add	esp, 4

; 226  : 	DrawQuad( Suncoordx + crd, Suncoordy + crd, Suncoordx - crd, Suncoordy - crd );

	cvtsi2ss xmm0, DWORD PTR _crd$[ebp]
	mov	eax, DWORD PTR _this$[ebp]
	movss	xmm1, DWORD PTR [eax+364]
	subss	xmm1, xmm0
	push	ecx
	movss	DWORD PTR [esp], xmm1
	cvtsi2ss xmm0, DWORD PTR _crd$[ebp]
	mov	ecx, DWORD PTR _this$[ebp]
	movss	xmm1, DWORD PTR [ecx+360]
	subss	xmm1, xmm0
	push	ecx
	movss	DWORD PTR [esp], xmm1
	cvtsi2ss xmm0, DWORD PTR _crd$[ebp]
	mov	edx, DWORD PTR _this$[ebp]
	addss	xmm0, DWORD PTR [edx+364]
	push	ecx
	movss	DWORD PTR [esp], xmm0
	cvtsi2ss xmm0, DWORD PTR _crd$[ebp]
	mov	eax, DWORD PTR _this$[ebp]
	addss	xmm0, DWORD PTR [eax+360]
	push	ecx
	movss	DWORD PTR [esp], xmm0
	call	?DrawQuad@@YAXMMMM@Z			; DrawQuad
	add	esp, 16					; 00000010H

; 227  : 	gEngfuncs.pTriAPI->End();

	mov	eax, DWORD PTR ?gEngfuncs@@3Ucl_enginefuncs_s@@A+328
	mov	ecx, DWORD PTR [eax+12]
	call	ecx

; 228  : 	GL_CleanUpTextureUnits( 0 );

	push	0
	call	DWORD PTR ?gRenderfuncs@@3Urender_api_s@@A+148
	add	esp, 4

; 229  : 
; 230  : 	gEngfuncs.pTriAPI->RenderMode( kRenderTransAdd ); //additive

	push	5
	mov	eax, DWORD PTR ?gEngfuncs@@3Ucl_enginefuncs_s@@A+328
	mov	ecx, DWORD PTR [eax+4]
	call	ecx
	add	esp, 4

; 231  : 	gEngfuncs.pTriAPI->SpriteTexture( (struct model_s *)gEngfuncs.GetSpritePointer( SPR_Load( "sprites/lens/glow2.spr" ) ), 0 );

	push	0
	push	OFFSET ??_C@_0BH@CCFFOJID@sprites?1lens?1glow2?4spr?$AA@
	call	DWORD PTR ?gEngfuncs@@3Ucl_enginefuncs_s@@A
	add	esp, 4
	push	eax
	call	DWORD PTR ?gEngfuncs@@3Ucl_enginefuncs_s@@A+248
	add	esp, 4
	push	eax
	mov	eax, DWORD PTR ?gEngfuncs@@3Ucl_enginefuncs_s@@A+328
	mov	ecx, DWORD PTR [eax+44]
	call	ecx
	add	esp, 8

; 232  : 	gEngfuncs.pTriAPI->CullFace( TRI_NONE ); //no culling

	push	1
	mov	eax, DWORD PTR ?gEngfuncs@@3Ucl_enginefuncs_s@@A+328
	mov	ecx, DWORD PTR [eax+40]
	call	ecx
	add	esp, 4

; 233  : 	gEngfuncs.pTriAPI->Color4f( 1.0, 1.0, 1.0, flPlayerBlend3 / 255.0 );

	mov	eax, DWORD PTR _this$[ebp]
	cvtss2sd xmm0, DWORD PTR [eax+44]
	divsd	xmm0, QWORD PTR __real@406fe00000000000
	cvtsd2ss xmm0, xmm0
	push	ecx
	movss	DWORD PTR [esp], xmm0
	push	ecx
	movss	xmm0, DWORD PTR __real@3f800000
	movss	DWORD PTR [esp], xmm0
	push	ecx
	movss	xmm0, DWORD PTR __real@3f800000
	movss	DWORD PTR [esp], xmm0
	push	ecx
	movss	xmm0, DWORD PTR __real@3f800000
	movss	DWORD PTR [esp], xmm0
	mov	ecx, DWORD PTR ?gEngfuncs@@3Ucl_enginefuncs_s@@A+328
	mov	edx, DWORD PTR [ecx+16]
	call	edx
	add	esp, 16					; 00000010H

; 234  : 	gEngfuncs.pTriAPI->Brightness( flPlayerBlend3 / 255.0 );

	mov	eax, DWORD PTR _this$[ebp]
	cvtss2sd xmm0, DWORD PTR [eax+44]
	divsd	xmm0, QWORD PTR __real@406fe00000000000
	cvtsd2ss xmm0, xmm0
	push	ecx
	movss	DWORD PTR [esp], xmm0
	mov	ecx, DWORD PTR ?gEngfuncs@@3Ucl_enginefuncs_s@@A+328
	mov	edx, DWORD PTR [ecx+36]
	call	edx
	add	esp, 4

; 235  : 	gEngfuncs.pTriAPI->Begin( TRI_QUADS ); //start our quad

	push	2
	mov	eax, DWORD PTR ?gEngfuncs@@3Ucl_enginefuncs_s@@A+328
	mov	ecx, DWORD PTR [eax+8]
	call	ecx
	add	esp, 4

; 236  : 	gEngfuncs.pTriAPI->TexCoord2f( 0.0f, 1.0f ); gEngfuncs.pTriAPI->Vertex3f( Suncoordx + 160, Suncoordy + 160, 0 ); //top left

	push	ecx
	movss	xmm0, DWORD PTR __real@3f800000
	movss	DWORD PTR [esp], xmm0
	push	ecx
	xorps	xmm0, xmm0
	movss	DWORD PTR [esp], xmm0
	mov	eax, DWORD PTR ?gEngfuncs@@3Ucl_enginefuncs_s@@A+328
	mov	ecx, DWORD PTR [eax+24]
	call	ecx
	add	esp, 8
	push	ecx
	xorps	xmm0, xmm0
	movss	DWORD PTR [esp], xmm0
	mov	eax, DWORD PTR _this$[ebp]
	movss	xmm0, DWORD PTR [eax+364]
	addss	xmm0, DWORD PTR __real@43200000
	push	ecx
	movss	DWORD PTR [esp], xmm0
	mov	ecx, DWORD PTR _this$[ebp]
	movss	xmm0, DWORD PTR [ecx+360]
	addss	xmm0, DWORD PTR __real@43200000
	push	ecx
	movss	DWORD PTR [esp], xmm0
	mov	edx, DWORD PTR ?gEngfuncs@@3Ucl_enginefuncs_s@@A+328
	mov	eax, DWORD PTR [edx+32]
	call	eax
	add	esp, 12					; 0000000cH

; 237  : 	gEngfuncs.pTriAPI->TexCoord2f( 0.0f, 0.0f ); gEngfuncs.pTriAPI->Vertex3f( Suncoordx + 160, Suncoordy - 160, 0 ); //bottom left

	push	ecx
	xorps	xmm0, xmm0
	movss	DWORD PTR [esp], xmm0
	push	ecx
	xorps	xmm0, xmm0
	movss	DWORD PTR [esp], xmm0
	mov	eax, DWORD PTR ?gEngfuncs@@3Ucl_enginefuncs_s@@A+328
	mov	ecx, DWORD PTR [eax+24]
	call	ecx
	add	esp, 8
	push	ecx
	xorps	xmm0, xmm0
	movss	DWORD PTR [esp], xmm0
	mov	eax, DWORD PTR _this$[ebp]
	movss	xmm0, DWORD PTR [eax+364]
	subss	xmm0, DWORD PTR __real@43200000
	push	ecx
	movss	DWORD PTR [esp], xmm0
	mov	ecx, DWORD PTR _this$[ebp]
	movss	xmm0, DWORD PTR [ecx+360]
	addss	xmm0, DWORD PTR __real@43200000
	push	ecx
	movss	DWORD PTR [esp], xmm0
	mov	edx, DWORD PTR ?gEngfuncs@@3Ucl_enginefuncs_s@@A+328
	mov	eax, DWORD PTR [edx+32]
	call	eax
	add	esp, 12					; 0000000cH

; 238  : 	gEngfuncs.pTriAPI->TexCoord2f( 1.0f, 0.0f ); gEngfuncs.pTriAPI->Vertex3f( Suncoordx - 160, Suncoordy - 160, 0 ); //bottom right

	push	ecx
	xorps	xmm0, xmm0
	movss	DWORD PTR [esp], xmm0
	push	ecx
	movss	xmm0, DWORD PTR __real@3f800000
	movss	DWORD PTR [esp], xmm0
	mov	eax, DWORD PTR ?gEngfuncs@@3Ucl_enginefuncs_s@@A+328
	mov	ecx, DWORD PTR [eax+24]
	call	ecx
	add	esp, 8
	push	ecx
	xorps	xmm0, xmm0
	movss	DWORD PTR [esp], xmm0
	mov	eax, DWORD PTR _this$[ebp]
	movss	xmm0, DWORD PTR [eax+364]
	subss	xmm0, DWORD PTR __real@43200000
	push	ecx
	movss	DWORD PTR [esp], xmm0
	mov	ecx, DWORD PTR _this$[ebp]
	movss	xmm0, DWORD PTR [ecx+360]
	subss	xmm0, DWORD PTR __real@43200000
	push	ecx
	movss	DWORD PTR [esp], xmm0
	mov	edx, DWORD PTR ?gEngfuncs@@3Ucl_enginefuncs_s@@A+328
	mov	eax, DWORD PTR [edx+32]
	call	eax
	add	esp, 12					; 0000000cH

; 239  : 	gEngfuncs.pTriAPI->TexCoord2f( 1.0f, 1.0f ); gEngfuncs.pTriAPI->Vertex3f( Suncoordx - 160, Suncoordy + 160, 0 ); //top right

	push	ecx
	movss	xmm0, DWORD PTR __real@3f800000
	movss	DWORD PTR [esp], xmm0
	push	ecx
	movss	xmm0, DWORD PTR __real@3f800000
	movss	DWORD PTR [esp], xmm0
	mov	eax, DWORD PTR ?gEngfuncs@@3Ucl_enginefuncs_s@@A+328
	mov	ecx, DWORD PTR [eax+24]
	call	ecx
	add	esp, 8
	push	ecx
	xorps	xmm0, xmm0
	movss	DWORD PTR [esp], xmm0
	mov	eax, DWORD PTR _this$[ebp]
	movss	xmm0, DWORD PTR [eax+364]
	addss	xmm0, DWORD PTR __real@43200000
	push	ecx
	movss	DWORD PTR [esp], xmm0
	mov	ecx, DWORD PTR _this$[ebp]
	movss	xmm0, DWORD PTR [ecx+360]
	subss	xmm0, DWORD PTR __real@43200000
	push	ecx
	movss	DWORD PTR [esp], xmm0
	mov	edx, DWORD PTR ?gEngfuncs@@3Ucl_enginefuncs_s@@A+328
	mov	eax, DWORD PTR [edx+32]
	call	eax
	add	esp, 12					; 0000000cH

; 240  : 	gEngfuncs.pTriAPI->End(); //end our list of vertexes

	mov	eax, DWORD PTR ?gEngfuncs@@3Ucl_enginefuncs_s@@A+328
	mov	ecx, DWORD PTR [eax+12]
	call	ecx

; 241  : 	gEngfuncs.pTriAPI->RenderMode( kRenderNormal );

	push	0
	mov	eax, DWORD PTR ?gEngfuncs@@3Ucl_enginefuncs_s@@A+328
	mov	ecx, DWORD PTR [eax+4]
	call	ecx
	add	esp, 4

; 242  : 
; 243  : /*
; 244  : 	gEngfuncs.pTriAPI->RenderMode( kRenderTransAdd ); //additive
; 245  : 	gEngfuncs.pTriAPI->SpriteTexture( (struct model_s *)gEngfuncs.GetSpritePointer( SPR_Load( "sprites/lens/glow3.spr" ) ), 0 );//use hotglow, or any other sprite for the texture
; 246  : 	gEngfuncs.pTriAPI->CullFace( TRI_NONE ); //no culling
; 247  : 	gEngfuncs.pTriAPI->Color4f( 1.0, 1.0, 1.0, flPlayerBlend5 / 255.0 );
; 248  : 	gEngfuncs.pTriAPI->Brightness( flPlayerBlend5 / 255.0 );
; 249  : 	gEngfuncs.pTriAPI->Begin( TRI_QUADS ); //start our quad
; 250  : 	gEngfuncs.pTriAPI->TexCoord2f( 0.0f, 1.0f ); gEngfuncs.pTriAPI->Vertex3f( 0, 0, 0 ); //top left
; 251  : 	gEngfuncs.pTriAPI->TexCoord2f( 0.0f, 0.0f ); gEngfuncs.pTriAPI->Vertex3f( 0, ScreenHeight, 0 ); //bottom left
; 252  : 	gEngfuncs.pTriAPI->TexCoord2f( 1.0f, 0.0f ); gEngfuncs.pTriAPI->Vertex3f( ScreenWidth, ScreenHeight, 0 ); //bottom right
; 253  : 	gEngfuncs.pTriAPI->TexCoord2f( 1.0f, 1.0f ); gEngfuncs.pTriAPI->Vertex3f( ScreenWidth, 0, 0 ); //top right
; 254  : 	gEngfuncs.pTriAPI->End(); //end our list of vertexes
; 255  : 	gEngfuncs.pTriAPI->RenderMode( kRenderNormal );*/
; 256  : 
; 257  : 	int i = 1;

	mov	DWORD PTR _i$[ebp], 1

; 258  : 	Lensx[i] = (Suncoordx + (Sundistx * multi[i]));

	mov	eax, DWORD PTR _this$[ebp]
	mov	ecx, DWORD PTR _i$[ebp]
	mov	edx, DWORD PTR _this$[ebp]
	movss	xmm0, DWORD PTR [eax+368]
	mulss	xmm0, DWORD PTR [edx+ecx*4+68]
	mov	eax, DWORD PTR _this$[ebp]
	addss	xmm0, DWORD PTR [eax+360]
	mov	ecx, DWORD PTR _i$[ebp]
	mov	edx, DWORD PTR _this$[ebp]
	movss	DWORD PTR [edx+ecx*4+280], xmm0

; 259  : 	Lensy[i] = (Suncoordy + (Sundisty * multi[i]));

	mov	eax, DWORD PTR _this$[ebp]
	mov	ecx, DWORD PTR _i$[ebp]
	mov	edx, DWORD PTR _this$[ebp]
	movss	xmm0, DWORD PTR [eax+372]
	mulss	xmm0, DWORD PTR [edx+ecx*4+68]
	mov	eax, DWORD PTR _this$[ebp]
	addss	xmm0, DWORD PTR [eax+364]
	mov	ecx, DWORD PTR _i$[ebp]
	mov	edx, DWORD PTR _this$[ebp]
	movss	DWORD PTR [edx+ecx*4+320], xmm0

; 260  : 	gEngfuncs.pTriAPI->RenderMode( kRenderTransAdd ); //additive

	push	5
	mov	eax, DWORD PTR ?gEngfuncs@@3Ucl_enginefuncs_s@@A+328
	mov	ecx, DWORD PTR [eax+4]
	call	ecx
	add	esp, 4

; 261  : 	gEngfuncs.pTriAPI->SpriteTexture( (struct model_s *)gEngfuncs.GetSpritePointer( text[i] ), 0 ); //hotglow, or any other sprite for the texture

	push	0
	mov	eax, DWORD PTR _this$[ebp]
	add	eax, DWORD PTR _i$[ebp]
	movsx	ecx, BYTE PTR [eax+268]
	push	ecx
	call	DWORD PTR ?gEngfuncs@@3Ucl_enginefuncs_s@@A+248
	add	esp, 4
	push	eax
	mov	edx, DWORD PTR ?gEngfuncs@@3Ucl_enginefuncs_s@@A+328
	mov	eax, DWORD PTR [edx+44]
	call	eax
	add	esp, 8

; 262  : 	gEngfuncs.pTriAPI->CullFace( TRI_NONE ); //no culling

	push	1
	mov	eax, DWORD PTR ?gEngfuncs@@3Ucl_enginefuncs_s@@A+328
	mov	ecx, DWORD PTR [eax+40]
	call	ecx
	add	esp, 4

; 263  : 	gEngfuncs.pTriAPI->Color4f( red[i], green[i], green[i], flPlayerBlend2 / 255.0 );

	mov	eax, DWORD PTR _this$[ebp]
	cvtss2sd xmm0, DWORD PTR [eax+40]
	divsd	xmm0, QWORD PTR __real@406fe00000000000
	cvtsd2ss xmm0, xmm0
	push	ecx
	movss	DWORD PTR [esp], xmm0
	mov	ecx, DWORD PTR _i$[ebp]
	mov	edx, DWORD PTR _this$[ebp]
	cvtsi2ss xmm0, DWORD PTR [edx+ecx*4+188]
	push	ecx
	movss	DWORD PTR [esp], xmm0
	mov	eax, DWORD PTR _i$[ebp]
	mov	ecx, DWORD PTR _this$[ebp]
	cvtsi2ss xmm0, DWORD PTR [ecx+eax*4+188]
	push	ecx
	movss	DWORD PTR [esp], xmm0
	mov	edx, DWORD PTR _i$[ebp]
	mov	eax, DWORD PTR _this$[ebp]
	cvtsi2ss xmm0, DWORD PTR [eax+edx*4+148]
	push	ecx
	movss	DWORD PTR [esp], xmm0
	mov	ecx, DWORD PTR ?gEngfuncs@@3Ucl_enginefuncs_s@@A+328
	mov	edx, DWORD PTR [ecx+16]
	call	edx
	add	esp, 16					; 00000010H

; 264  : 	gEngfuncs.pTriAPI->Brightness( flPlayerBlend2 / 255.0 );

	mov	eax, DWORD PTR _this$[ebp]
	cvtss2sd xmm0, DWORD PTR [eax+40]
	divsd	xmm0, QWORD PTR __real@406fe00000000000
	cvtsd2ss xmm0, xmm0
	push	ecx
	movss	DWORD PTR [esp], xmm0
	mov	ecx, DWORD PTR ?gEngfuncs@@3Ucl_enginefuncs_s@@A+328
	mov	edx, DWORD PTR [ecx+36]
	call	edx
	add	esp, 4

; 265  : 	gEngfuncs.pTriAPI->Begin( TRI_QUADS ); //start our quad

	push	2
	mov	eax, DWORD PTR ?gEngfuncs@@3Ucl_enginefuncs_s@@A+328
	mov	ecx, DWORD PTR [eax+8]
	call	ecx
	add	esp, 4

; 266  : 	gEngfuncs.pTriAPI->TexCoord2f( 0.0f, 1.0f ); gEngfuncs.pTriAPI->Vertex3f( Lensx[i] + scale[i], Lensy[i] + scale[i], 0 ); //top left

	push	ecx
	movss	xmm0, DWORD PTR __real@3f800000
	movss	DWORD PTR [esp], xmm0
	push	ecx
	xorps	xmm0, xmm0
	movss	DWORD PTR [esp], xmm0
	mov	eax, DWORD PTR ?gEngfuncs@@3Ucl_enginefuncs_s@@A+328
	mov	ecx, DWORD PTR [eax+24]
	call	ecx
	add	esp, 8
	push	ecx
	xorps	xmm0, xmm0
	movss	DWORD PTR [esp], xmm0
	mov	eax, DWORD PTR _i$[ebp]
	mov	ecx, DWORD PTR _this$[ebp]
	cvtsi2ss xmm0, DWORD PTR [ecx+eax*4+108]
	mov	edx, DWORD PTR _i$[ebp]
	mov	eax, DWORD PTR _this$[ebp]
	addss	xmm0, DWORD PTR [eax+edx*4+320]
	push	ecx
	movss	DWORD PTR [esp], xmm0
	mov	ecx, DWORD PTR _i$[ebp]
	mov	edx, DWORD PTR _this$[ebp]
	cvtsi2ss xmm0, DWORD PTR [edx+ecx*4+108]
	mov	eax, DWORD PTR _i$[ebp]
	mov	ecx, DWORD PTR _this$[ebp]
	addss	xmm0, DWORD PTR [ecx+eax*4+280]
	push	ecx
	movss	DWORD PTR [esp], xmm0
	mov	edx, DWORD PTR ?gEngfuncs@@3Ucl_enginefuncs_s@@A+328
	mov	eax, DWORD PTR [edx+32]
	call	eax
	add	esp, 12					; 0000000cH

; 267  : 	gEngfuncs.pTriAPI->TexCoord2f( 0.0f, 0.0f ); gEngfuncs.pTriAPI->Vertex3f( Lensx[i] + scale[i], Lensy[i] - scale[i], 0 ); //bottom left

	push	ecx
	xorps	xmm0, xmm0
	movss	DWORD PTR [esp], xmm0
	push	ecx
	xorps	xmm0, xmm0
	movss	DWORD PTR [esp], xmm0
	mov	eax, DWORD PTR ?gEngfuncs@@3Ucl_enginefuncs_s@@A+328
	mov	ecx, DWORD PTR [eax+24]
	call	ecx
	add	esp, 8
	push	ecx
	xorps	xmm0, xmm0
	movss	DWORD PTR [esp], xmm0
	mov	eax, DWORD PTR _i$[ebp]
	mov	ecx, DWORD PTR _this$[ebp]
	cvtsi2ss xmm0, DWORD PTR [ecx+eax*4+108]
	mov	edx, DWORD PTR _i$[ebp]
	mov	eax, DWORD PTR _this$[ebp]
	movss	xmm1, DWORD PTR [eax+edx*4+320]
	subss	xmm1, xmm0
	push	ecx
	movss	DWORD PTR [esp], xmm1
	mov	ecx, DWORD PTR _i$[ebp]
	mov	edx, DWORD PTR _this$[ebp]
	cvtsi2ss xmm0, DWORD PTR [edx+ecx*4+108]
	mov	eax, DWORD PTR _i$[ebp]
	mov	ecx, DWORD PTR _this$[ebp]
	addss	xmm0, DWORD PTR [ecx+eax*4+280]
	push	ecx
	movss	DWORD PTR [esp], xmm0
	mov	edx, DWORD PTR ?gEngfuncs@@3Ucl_enginefuncs_s@@A+328
	mov	eax, DWORD PTR [edx+32]
	call	eax
	add	esp, 12					; 0000000cH

; 268  : 	gEngfuncs.pTriAPI->TexCoord2f( 1.0f, 0.0f ); gEngfuncs.pTriAPI->Vertex3f( Lensx[i] - scale[i], Lensy[i] - scale[i], 0 ); //bottom right

	push	ecx
	xorps	xmm0, xmm0
	movss	DWORD PTR [esp], xmm0
	push	ecx
	movss	xmm0, DWORD PTR __real@3f800000
	movss	DWORD PTR [esp], xmm0
	mov	eax, DWORD PTR ?gEngfuncs@@3Ucl_enginefuncs_s@@A+328
	mov	ecx, DWORD PTR [eax+24]
	call	ecx
	add	esp, 8
	push	ecx
	xorps	xmm0, xmm0
	movss	DWORD PTR [esp], xmm0
	mov	eax, DWORD PTR _i$[ebp]
	mov	ecx, DWORD PTR _this$[ebp]
	cvtsi2ss xmm0, DWORD PTR [ecx+eax*4+108]
	mov	edx, DWORD PTR _i$[ebp]
	mov	eax, DWORD PTR _this$[ebp]
	movss	xmm1, DWORD PTR [eax+edx*4+320]
	subss	xmm1, xmm0
	push	ecx
	movss	DWORD PTR [esp], xmm1
	mov	ecx, DWORD PTR _i$[ebp]
	mov	edx, DWORD PTR _this$[ebp]
	cvtsi2ss xmm0, DWORD PTR [edx+ecx*4+108]
	mov	eax, DWORD PTR _i$[ebp]
	mov	ecx, DWORD PTR _this$[ebp]
	movss	xmm1, DWORD PTR [ecx+eax*4+280]
	subss	xmm1, xmm0
	push	ecx
	movss	DWORD PTR [esp], xmm1
	mov	edx, DWORD PTR ?gEngfuncs@@3Ucl_enginefuncs_s@@A+328
	mov	eax, DWORD PTR [edx+32]
	call	eax
	add	esp, 12					; 0000000cH

; 269  : 	gEngfuncs.pTriAPI->TexCoord2f( 1.0f, 1.0f ); gEngfuncs.pTriAPI->Vertex3f( Lensx[i] - scale[i], Lensy[i] + scale[i], 0 ); //top right

	push	ecx
	movss	xmm0, DWORD PTR __real@3f800000
	movss	DWORD PTR [esp], xmm0
	push	ecx
	movss	xmm0, DWORD PTR __real@3f800000
	movss	DWORD PTR [esp], xmm0
	mov	eax, DWORD PTR ?gEngfuncs@@3Ucl_enginefuncs_s@@A+328
	mov	ecx, DWORD PTR [eax+24]
	call	ecx
	add	esp, 8
	push	ecx
	xorps	xmm0, xmm0
	movss	DWORD PTR [esp], xmm0
	mov	eax, DWORD PTR _i$[ebp]
	mov	ecx, DWORD PTR _this$[ebp]
	cvtsi2ss xmm0, DWORD PTR [ecx+eax*4+108]
	mov	edx, DWORD PTR _i$[ebp]
	mov	eax, DWORD PTR _this$[ebp]
	addss	xmm0, DWORD PTR [eax+edx*4+320]
	push	ecx
	movss	DWORD PTR [esp], xmm0
	mov	ecx, DWORD PTR _i$[ebp]
	mov	edx, DWORD PTR _this$[ebp]
	cvtsi2ss xmm0, DWORD PTR [edx+ecx*4+108]
	mov	eax, DWORD PTR _i$[ebp]
	mov	ecx, DWORD PTR _this$[ebp]
	movss	xmm1, DWORD PTR [ecx+eax*4+280]
	subss	xmm1, xmm0
	push	ecx
	movss	DWORD PTR [esp], xmm1
	mov	edx, DWORD PTR ?gEngfuncs@@3Ucl_enginefuncs_s@@A+328
	mov	eax, DWORD PTR [edx+32]
	call	eax
	add	esp, 12					; 0000000cH

; 270  : 	gEngfuncs.pTriAPI->End(); //end our list of vertexes

	mov	eax, DWORD PTR ?gEngfuncs@@3Ucl_enginefuncs_s@@A+328
	mov	ecx, DWORD PTR [eax+12]
	call	ecx

; 271  : 	gEngfuncs.pTriAPI->RenderMode( kRenderNormal );

	push	0
	mov	eax, DWORD PTR ?gEngfuncs@@3Ucl_enginefuncs_s@@A+328
	mov	ecx, DWORD PTR [eax+4]
	call	ecx
	add	esp, 4

; 272  : 
; 273  : 	i++;

	mov	eax, DWORD PTR _i$[ebp]
	add	eax, 1
	mov	DWORD PTR _i$[ebp], eax

; 274  : 	Lensx[i] = (Suncoordx + (Sundistx * multi[i]));

	mov	eax, DWORD PTR _this$[ebp]
	mov	ecx, DWORD PTR _i$[ebp]
	mov	edx, DWORD PTR _this$[ebp]
	movss	xmm0, DWORD PTR [eax+368]
	mulss	xmm0, DWORD PTR [edx+ecx*4+68]
	mov	eax, DWORD PTR _this$[ebp]
	addss	xmm0, DWORD PTR [eax+360]
	mov	ecx, DWORD PTR _i$[ebp]
	mov	edx, DWORD PTR _this$[ebp]
	movss	DWORD PTR [edx+ecx*4+280], xmm0

; 275  : 	Lensy[i] = (Suncoordy + (Sundisty * multi[i]));

	mov	eax, DWORD PTR _this$[ebp]
	mov	ecx, DWORD PTR _i$[ebp]
	mov	edx, DWORD PTR _this$[ebp]
	movss	xmm0, DWORD PTR [eax+372]
	mulss	xmm0, DWORD PTR [edx+ecx*4+68]
	mov	eax, DWORD PTR _this$[ebp]
	addss	xmm0, DWORD PTR [eax+364]
	mov	ecx, DWORD PTR _i$[ebp]
	mov	edx, DWORD PTR _this$[ebp]
	movss	DWORD PTR [edx+ecx*4+320], xmm0

; 276  : 	gEngfuncs.pTriAPI->RenderMode( kRenderTransAdd ); //additive

	push	5
	mov	eax, DWORD PTR ?gEngfuncs@@3Ucl_enginefuncs_s@@A+328
	mov	ecx, DWORD PTR [eax+4]
	call	ecx
	add	esp, 4

; 277  : 	gEngfuncs.pTriAPI->SpriteTexture( (struct model_s *)gEngfuncs.GetSpritePointer( text[i] ), 0 ); //hotglow, or any other sprite for the texture

	push	0
	mov	eax, DWORD PTR _this$[ebp]
	add	eax, DWORD PTR _i$[ebp]
	movsx	ecx, BYTE PTR [eax+268]
	push	ecx
	call	DWORD PTR ?gEngfuncs@@3Ucl_enginefuncs_s@@A+248
	add	esp, 4
	push	eax
	mov	edx, DWORD PTR ?gEngfuncs@@3Ucl_enginefuncs_s@@A+328
	mov	eax, DWORD PTR [edx+44]
	call	eax
	add	esp, 8

; 278  : 	gEngfuncs.pTriAPI->CullFace( TRI_NONE ); //no culling

	push	1
	mov	eax, DWORD PTR ?gEngfuncs@@3Ucl_enginefuncs_s@@A+328
	mov	ecx, DWORD PTR [eax+40]
	call	ecx
	add	esp, 4

; 279  : 	gEngfuncs.pTriAPI->Color4f( red[i], green[i], green[i], flPlayerBlend2 / 255.0 );

	mov	eax, DWORD PTR _this$[ebp]
	cvtss2sd xmm0, DWORD PTR [eax+40]
	divsd	xmm0, QWORD PTR __real@406fe00000000000
	cvtsd2ss xmm0, xmm0
	push	ecx
	movss	DWORD PTR [esp], xmm0
	mov	ecx, DWORD PTR _i$[ebp]
	mov	edx, DWORD PTR _this$[ebp]
	cvtsi2ss xmm0, DWORD PTR [edx+ecx*4+188]
	push	ecx
	movss	DWORD PTR [esp], xmm0
	mov	eax, DWORD PTR _i$[ebp]
	mov	ecx, DWORD PTR _this$[ebp]
	cvtsi2ss xmm0, DWORD PTR [ecx+eax*4+188]
	push	ecx
	movss	DWORD PTR [esp], xmm0
	mov	edx, DWORD PTR _i$[ebp]
	mov	eax, DWORD PTR _this$[ebp]
	cvtsi2ss xmm0, DWORD PTR [eax+edx*4+148]
	push	ecx
	movss	DWORD PTR [esp], xmm0
	mov	ecx, DWORD PTR ?gEngfuncs@@3Ucl_enginefuncs_s@@A+328
	mov	edx, DWORD PTR [ecx+16]
	call	edx
	add	esp, 16					; 00000010H

; 280  : 	gEngfuncs.pTriAPI->Brightness( flPlayerBlend2 / 255.0 );

	mov	eax, DWORD PTR _this$[ebp]
	cvtss2sd xmm0, DWORD PTR [eax+40]
	divsd	xmm0, QWORD PTR __real@406fe00000000000
	cvtsd2ss xmm0, xmm0
	push	ecx
	movss	DWORD PTR [esp], xmm0
	mov	ecx, DWORD PTR ?gEngfuncs@@3Ucl_enginefuncs_s@@A+328
	mov	edx, DWORD PTR [ecx+36]
	call	edx
	add	esp, 4

; 281  : 	gEngfuncs.pTriAPI->Begin( TRI_QUADS ); //start our quad

	push	2
	mov	eax, DWORD PTR ?gEngfuncs@@3Ucl_enginefuncs_s@@A+328
	mov	ecx, DWORD PTR [eax+8]
	call	ecx
	add	esp, 4

; 282  : 	gEngfuncs.pTriAPI->TexCoord2f( 0.0f, 1.0f ); gEngfuncs.pTriAPI->Vertex3f( Lensx[i] + scale[i], Lensy[i] + scale[i], 0 ); //top left

	push	ecx
	movss	xmm0, DWORD PTR __real@3f800000
	movss	DWORD PTR [esp], xmm0
	push	ecx
	xorps	xmm0, xmm0
	movss	DWORD PTR [esp], xmm0
	mov	eax, DWORD PTR ?gEngfuncs@@3Ucl_enginefuncs_s@@A+328
	mov	ecx, DWORD PTR [eax+24]
	call	ecx
	add	esp, 8
	push	ecx
	xorps	xmm0, xmm0
	movss	DWORD PTR [esp], xmm0
	mov	eax, DWORD PTR _i$[ebp]
	mov	ecx, DWORD PTR _this$[ebp]
	cvtsi2ss xmm0, DWORD PTR [ecx+eax*4+108]
	mov	edx, DWORD PTR _i$[ebp]
	mov	eax, DWORD PTR _this$[ebp]
	addss	xmm0, DWORD PTR [eax+edx*4+320]
	push	ecx
	movss	DWORD PTR [esp], xmm0
	mov	ecx, DWORD PTR _i$[ebp]
	mov	edx, DWORD PTR _this$[ebp]
	cvtsi2ss xmm0, DWORD PTR [edx+ecx*4+108]
	mov	eax, DWORD PTR _i$[ebp]
	mov	ecx, DWORD PTR _this$[ebp]
	addss	xmm0, DWORD PTR [ecx+eax*4+280]
	push	ecx
	movss	DWORD PTR [esp], xmm0
	mov	edx, DWORD PTR ?gEngfuncs@@3Ucl_enginefuncs_s@@A+328
	mov	eax, DWORD PTR [edx+32]
	call	eax
	add	esp, 12					; 0000000cH

; 283  : 	gEngfuncs.pTriAPI->TexCoord2f( 0.0f, 0.0f ); gEngfuncs.pTriAPI->Vertex3f( Lensx[i] + scale[i], Lensy[i] - scale[i], 0 ); //bottom left

	push	ecx
	xorps	xmm0, xmm0
	movss	DWORD PTR [esp], xmm0
	push	ecx
	xorps	xmm0, xmm0
	movss	DWORD PTR [esp], xmm0
	mov	eax, DWORD PTR ?gEngfuncs@@3Ucl_enginefuncs_s@@A+328
	mov	ecx, DWORD PTR [eax+24]
	call	ecx
	add	esp, 8
	push	ecx
	xorps	xmm0, xmm0
	movss	DWORD PTR [esp], xmm0
	mov	eax, DWORD PTR _i$[ebp]
	mov	ecx, DWORD PTR _this$[ebp]
	cvtsi2ss xmm0, DWORD PTR [ecx+eax*4+108]
	mov	edx, DWORD PTR _i$[ebp]
	mov	eax, DWORD PTR _this$[ebp]
	movss	xmm1, DWORD PTR [eax+edx*4+320]
	subss	xmm1, xmm0
	push	ecx
	movss	DWORD PTR [esp], xmm1
	mov	ecx, DWORD PTR _i$[ebp]
	mov	edx, DWORD PTR _this$[ebp]
	cvtsi2ss xmm0, DWORD PTR [edx+ecx*4+108]
	mov	eax, DWORD PTR _i$[ebp]
	mov	ecx, DWORD PTR _this$[ebp]
	addss	xmm0, DWORD PTR [ecx+eax*4+280]
	push	ecx
	movss	DWORD PTR [esp], xmm0
	mov	edx, DWORD PTR ?gEngfuncs@@3Ucl_enginefuncs_s@@A+328
	mov	eax, DWORD PTR [edx+32]
	call	eax
	add	esp, 12					; 0000000cH

; 284  : 	gEngfuncs.pTriAPI->TexCoord2f( 1.0f, 0.0f ); gEngfuncs.pTriAPI->Vertex3f( Lensx[i] - scale[i], Lensy[i] - scale[i], 0 ); //bottom right

	push	ecx
	xorps	xmm0, xmm0
	movss	DWORD PTR [esp], xmm0
	push	ecx
	movss	xmm0, DWORD PTR __real@3f800000
	movss	DWORD PTR [esp], xmm0
	mov	eax, DWORD PTR ?gEngfuncs@@3Ucl_enginefuncs_s@@A+328
	mov	ecx, DWORD PTR [eax+24]
	call	ecx
	add	esp, 8
	push	ecx
	xorps	xmm0, xmm0
	movss	DWORD PTR [esp], xmm0
	mov	eax, DWORD PTR _i$[ebp]
	mov	ecx, DWORD PTR _this$[ebp]
	cvtsi2ss xmm0, DWORD PTR [ecx+eax*4+108]
	mov	edx, DWORD PTR _i$[ebp]
	mov	eax, DWORD PTR _this$[ebp]
	movss	xmm1, DWORD PTR [eax+edx*4+320]
	subss	xmm1, xmm0
	push	ecx
	movss	DWORD PTR [esp], xmm1
	mov	ecx, DWORD PTR _i$[ebp]
	mov	edx, DWORD PTR _this$[ebp]
	cvtsi2ss xmm0, DWORD PTR [edx+ecx*4+108]
	mov	eax, DWORD PTR _i$[ebp]
	mov	ecx, DWORD PTR _this$[ebp]
	movss	xmm1, DWORD PTR [ecx+eax*4+280]
	subss	xmm1, xmm0
	push	ecx
	movss	DWORD PTR [esp], xmm1
	mov	edx, DWORD PTR ?gEngfuncs@@3Ucl_enginefuncs_s@@A+328
	mov	eax, DWORD PTR [edx+32]
	call	eax
	add	esp, 12					; 0000000cH

; 285  : 	gEngfuncs.pTriAPI->TexCoord2f( 1.0f, 1.0f ); gEngfuncs.pTriAPI->Vertex3f( Lensx[i] - scale[i], Lensy[i] + scale[i], 0 ); //top right

	push	ecx
	movss	xmm0, DWORD PTR __real@3f800000
	movss	DWORD PTR [esp], xmm0
	push	ecx
	movss	xmm0, DWORD PTR __real@3f800000
	movss	DWORD PTR [esp], xmm0
	mov	eax, DWORD PTR ?gEngfuncs@@3Ucl_enginefuncs_s@@A+328
	mov	ecx, DWORD PTR [eax+24]
	call	ecx
	add	esp, 8
	push	ecx
	xorps	xmm0, xmm0
	movss	DWORD PTR [esp], xmm0
	mov	eax, DWORD PTR _i$[ebp]
	mov	ecx, DWORD PTR _this$[ebp]
	cvtsi2ss xmm0, DWORD PTR [ecx+eax*4+108]
	mov	edx, DWORD PTR _i$[ebp]
	mov	eax, DWORD PTR _this$[ebp]
	addss	xmm0, DWORD PTR [eax+edx*4+320]
	push	ecx
	movss	DWORD PTR [esp], xmm0
	mov	ecx, DWORD PTR _i$[ebp]
	mov	edx, DWORD PTR _this$[ebp]
	cvtsi2ss xmm0, DWORD PTR [edx+ecx*4+108]
	mov	eax, DWORD PTR _i$[ebp]
	mov	ecx, DWORD PTR _this$[ebp]
	movss	xmm1, DWORD PTR [ecx+eax*4+280]
	subss	xmm1, xmm0
	push	ecx
	movss	DWORD PTR [esp], xmm1
	mov	edx, DWORD PTR ?gEngfuncs@@3Ucl_enginefuncs_s@@A+328
	mov	eax, DWORD PTR [edx+32]
	call	eax
	add	esp, 12					; 0000000cH

; 286  : 	gEngfuncs.pTriAPI->End(); //end our list of vertexes

	mov	eax, DWORD PTR ?gEngfuncs@@3Ucl_enginefuncs_s@@A+328
	mov	ecx, DWORD PTR [eax+12]
	call	ecx

; 287  : 	gEngfuncs.pTriAPI->RenderMode( kRenderNormal );

	push	0
	mov	eax, DWORD PTR ?gEngfuncs@@3Ucl_enginefuncs_s@@A+328
	mov	ecx, DWORD PTR [eax+4]
	call	ecx
	add	esp, 4

; 288  : 
; 289  : 	i++;

	mov	eax, DWORD PTR _i$[ebp]
	add	eax, 1
	mov	DWORD PTR _i$[ebp], eax

; 290  : 	Lensx[i] = (Suncoordx + (Sundistx * multi[i]));

	mov	eax, DWORD PTR _this$[ebp]
	mov	ecx, DWORD PTR _i$[ebp]
	mov	edx, DWORD PTR _this$[ebp]
	movss	xmm0, DWORD PTR [eax+368]
	mulss	xmm0, DWORD PTR [edx+ecx*4+68]
	mov	eax, DWORD PTR _this$[ebp]
	addss	xmm0, DWORD PTR [eax+360]
	mov	ecx, DWORD PTR _i$[ebp]
	mov	edx, DWORD PTR _this$[ebp]
	movss	DWORD PTR [edx+ecx*4+280], xmm0

; 291  : 	Lensy[i] = (Suncoordy + (Sundisty * multi[i]));

	mov	eax, DWORD PTR _this$[ebp]
	mov	ecx, DWORD PTR _i$[ebp]
	mov	edx, DWORD PTR _this$[ebp]
	movss	xmm0, DWORD PTR [eax+372]
	mulss	xmm0, DWORD PTR [edx+ecx*4+68]
	mov	eax, DWORD PTR _this$[ebp]
	addss	xmm0, DWORD PTR [eax+364]
	mov	ecx, DWORD PTR _i$[ebp]
	mov	edx, DWORD PTR _this$[ebp]
	movss	DWORD PTR [edx+ecx*4+320], xmm0

; 292  : 	gEngfuncs.pTriAPI->RenderMode( kRenderTransAdd ); //additive

	push	5
	mov	eax, DWORD PTR ?gEngfuncs@@3Ucl_enginefuncs_s@@A+328
	mov	ecx, DWORD PTR [eax+4]
	call	ecx
	add	esp, 4

; 293  : 	gEngfuncs.pTriAPI->SpriteTexture( (struct model_s *)gEngfuncs.GetSpritePointer( text[i] ), 0 ); //hotglow, or any other sprite for the texture

	push	0
	mov	eax, DWORD PTR _this$[ebp]
	add	eax, DWORD PTR _i$[ebp]
	movsx	ecx, BYTE PTR [eax+268]
	push	ecx
	call	DWORD PTR ?gEngfuncs@@3Ucl_enginefuncs_s@@A+248
	add	esp, 4
	push	eax
	mov	edx, DWORD PTR ?gEngfuncs@@3Ucl_enginefuncs_s@@A+328
	mov	eax, DWORD PTR [edx+44]
	call	eax
	add	esp, 8

; 294  : 	gEngfuncs.pTriAPI->CullFace( TRI_NONE ); //no culling

	push	1
	mov	eax, DWORD PTR ?gEngfuncs@@3Ucl_enginefuncs_s@@A+328
	mov	ecx, DWORD PTR [eax+40]
	call	ecx
	add	esp, 4

; 295  : 	gEngfuncs.pTriAPI->Color4f( red[i], green[i], green[i], flPlayerBlend2 / 255.0 );

	mov	eax, DWORD PTR _this$[ebp]
	cvtss2sd xmm0, DWORD PTR [eax+40]
	divsd	xmm0, QWORD PTR __real@406fe00000000000
	cvtsd2ss xmm0, xmm0
	push	ecx
	movss	DWORD PTR [esp], xmm0
	mov	ecx, DWORD PTR _i$[ebp]
	mov	edx, DWORD PTR _this$[ebp]
	cvtsi2ss xmm0, DWORD PTR [edx+ecx*4+188]
	push	ecx
	movss	DWORD PTR [esp], xmm0
	mov	eax, DWORD PTR _i$[ebp]
	mov	ecx, DWORD PTR _this$[ebp]
	cvtsi2ss xmm0, DWORD PTR [ecx+eax*4+188]
	push	ecx
	movss	DWORD PTR [esp], xmm0
	mov	edx, DWORD PTR _i$[ebp]
	mov	eax, DWORD PTR _this$[ebp]
	cvtsi2ss xmm0, DWORD PTR [eax+edx*4+148]
	push	ecx
	movss	DWORD PTR [esp], xmm0
	mov	ecx, DWORD PTR ?gEngfuncs@@3Ucl_enginefuncs_s@@A+328
	mov	edx, DWORD PTR [ecx+16]
	call	edx
	add	esp, 16					; 00000010H

; 296  : 	gEngfuncs.pTriAPI->Brightness( flPlayerBlend2 / 255.0 );

	mov	eax, DWORD PTR _this$[ebp]
	cvtss2sd xmm0, DWORD PTR [eax+40]
	divsd	xmm0, QWORD PTR __real@406fe00000000000
	cvtsd2ss xmm0, xmm0
	push	ecx
	movss	DWORD PTR [esp], xmm0
	mov	ecx, DWORD PTR ?gEngfuncs@@3Ucl_enginefuncs_s@@A+328
	mov	edx, DWORD PTR [ecx+36]
	call	edx
	add	esp, 4

; 297  : 	gEngfuncs.pTriAPI->Begin( TRI_QUADS ); //start our quad

	push	2
	mov	eax, DWORD PTR ?gEngfuncs@@3Ucl_enginefuncs_s@@A+328
	mov	ecx, DWORD PTR [eax+8]
	call	ecx
	add	esp, 4

; 298  : 	gEngfuncs.pTriAPI->TexCoord2f( 0.0f, 1.0f ); gEngfuncs.pTriAPI->Vertex3f( Lensx[i] + scale[i], Lensy[i] + scale[i], 0 ); //top left

	push	ecx
	movss	xmm0, DWORD PTR __real@3f800000
	movss	DWORD PTR [esp], xmm0
	push	ecx
	xorps	xmm0, xmm0
	movss	DWORD PTR [esp], xmm0
	mov	eax, DWORD PTR ?gEngfuncs@@3Ucl_enginefuncs_s@@A+328
	mov	ecx, DWORD PTR [eax+24]
	call	ecx
	add	esp, 8
	push	ecx
	xorps	xmm0, xmm0
	movss	DWORD PTR [esp], xmm0
	mov	eax, DWORD PTR _i$[ebp]
	mov	ecx, DWORD PTR _this$[ebp]
	cvtsi2ss xmm0, DWORD PTR [ecx+eax*4+108]
	mov	edx, DWORD PTR _i$[ebp]
	mov	eax, DWORD PTR _this$[ebp]
	addss	xmm0, DWORD PTR [eax+edx*4+320]
	push	ecx
	movss	DWORD PTR [esp], xmm0
	mov	ecx, DWORD PTR _i$[ebp]
	mov	edx, DWORD PTR _this$[ebp]
	cvtsi2ss xmm0, DWORD PTR [edx+ecx*4+108]
	mov	eax, DWORD PTR _i$[ebp]
	mov	ecx, DWORD PTR _this$[ebp]
	addss	xmm0, DWORD PTR [ecx+eax*4+280]
	push	ecx
	movss	DWORD PTR [esp], xmm0
	mov	edx, DWORD PTR ?gEngfuncs@@3Ucl_enginefuncs_s@@A+328
	mov	eax, DWORD PTR [edx+32]
	call	eax
	add	esp, 12					; 0000000cH

; 299  : 	gEngfuncs.pTriAPI->TexCoord2f( 0.0f, 0.0f ); gEngfuncs.pTriAPI->Vertex3f( Lensx[i] + scale[i], Lensy[i] - scale[i], 0 ); //bottom left

	push	ecx
	xorps	xmm0, xmm0
	movss	DWORD PTR [esp], xmm0
	push	ecx
	xorps	xmm0, xmm0
	movss	DWORD PTR [esp], xmm0
	mov	eax, DWORD PTR ?gEngfuncs@@3Ucl_enginefuncs_s@@A+328
	mov	ecx, DWORD PTR [eax+24]
	call	ecx
	add	esp, 8
	push	ecx
	xorps	xmm0, xmm0
	movss	DWORD PTR [esp], xmm0
	mov	eax, DWORD PTR _i$[ebp]
	mov	ecx, DWORD PTR _this$[ebp]
	cvtsi2ss xmm0, DWORD PTR [ecx+eax*4+108]
	mov	edx, DWORD PTR _i$[ebp]
	mov	eax, DWORD PTR _this$[ebp]
	movss	xmm1, DWORD PTR [eax+edx*4+320]
	subss	xmm1, xmm0
	push	ecx
	movss	DWORD PTR [esp], xmm1
	mov	ecx, DWORD PTR _i$[ebp]
	mov	edx, DWORD PTR _this$[ebp]
	cvtsi2ss xmm0, DWORD PTR [edx+ecx*4+108]
	mov	eax, DWORD PTR _i$[ebp]
	mov	ecx, DWORD PTR _this$[ebp]
	addss	xmm0, DWORD PTR [ecx+eax*4+280]
	push	ecx
	movss	DWORD PTR [esp], xmm0
	mov	edx, DWORD PTR ?gEngfuncs@@3Ucl_enginefuncs_s@@A+328
	mov	eax, DWORD PTR [edx+32]
	call	eax
	add	esp, 12					; 0000000cH

; 300  : 	gEngfuncs.pTriAPI->TexCoord2f( 1.0f, 0.0f ); gEngfuncs.pTriAPI->Vertex3f( Lensx[i] - scale[i], Lensy[i] - scale[i], 0 ); //bottom right

	push	ecx
	xorps	xmm0, xmm0
	movss	DWORD PTR [esp], xmm0
	push	ecx
	movss	xmm0, DWORD PTR __real@3f800000
	movss	DWORD PTR [esp], xmm0
	mov	eax, DWORD PTR ?gEngfuncs@@3Ucl_enginefuncs_s@@A+328
	mov	ecx, DWORD PTR [eax+24]
	call	ecx
	add	esp, 8
	push	ecx
	xorps	xmm0, xmm0
	movss	DWORD PTR [esp], xmm0
	mov	eax, DWORD PTR _i$[ebp]
	mov	ecx, DWORD PTR _this$[ebp]
	cvtsi2ss xmm0, DWORD PTR [ecx+eax*4+108]
	mov	edx, DWORD PTR _i$[ebp]
	mov	eax, DWORD PTR _this$[ebp]
	movss	xmm1, DWORD PTR [eax+edx*4+320]
	subss	xmm1, xmm0
	push	ecx
	movss	DWORD PTR [esp], xmm1
	mov	ecx, DWORD PTR _i$[ebp]
	mov	edx, DWORD PTR _this$[ebp]
	cvtsi2ss xmm0, DWORD PTR [edx+ecx*4+108]
	mov	eax, DWORD PTR _i$[ebp]
	mov	ecx, DWORD PTR _this$[ebp]
	movss	xmm1, DWORD PTR [ecx+eax*4+280]
	subss	xmm1, xmm0
	push	ecx
	movss	DWORD PTR [esp], xmm1
	mov	edx, DWORD PTR ?gEngfuncs@@3Ucl_enginefuncs_s@@A+328
	mov	eax, DWORD PTR [edx+32]
	call	eax
	add	esp, 12					; 0000000cH

; 301  : 	gEngfuncs.pTriAPI->TexCoord2f( 1.0f, 1.0f ); gEngfuncs.pTriAPI->Vertex3f( Lensx[i] - scale[i], Lensy[i] + scale[i], 0 ); //top right

	push	ecx
	movss	xmm0, DWORD PTR __real@3f800000
	movss	DWORD PTR [esp], xmm0
	push	ecx
	movss	xmm0, DWORD PTR __real@3f800000
	movss	DWORD PTR [esp], xmm0
	mov	eax, DWORD PTR ?gEngfuncs@@3Ucl_enginefuncs_s@@A+328
	mov	ecx, DWORD PTR [eax+24]
	call	ecx
	add	esp, 8
	push	ecx
	xorps	xmm0, xmm0
	movss	DWORD PTR [esp], xmm0
	mov	eax, DWORD PTR _i$[ebp]
	mov	ecx, DWORD PTR _this$[ebp]
	cvtsi2ss xmm0, DWORD PTR [ecx+eax*4+108]
	mov	edx, DWORD PTR _i$[ebp]
	mov	eax, DWORD PTR _this$[ebp]
	addss	xmm0, DWORD PTR [eax+edx*4+320]
	push	ecx
	movss	DWORD PTR [esp], xmm0
	mov	ecx, DWORD PTR _i$[ebp]
	mov	edx, DWORD PTR _this$[ebp]
	cvtsi2ss xmm0, DWORD PTR [edx+ecx*4+108]
	mov	eax, DWORD PTR _i$[ebp]
	mov	ecx, DWORD PTR _this$[ebp]
	movss	xmm1, DWORD PTR [ecx+eax*4+280]
	subss	xmm1, xmm0
	push	ecx
	movss	DWORD PTR [esp], xmm1
	mov	edx, DWORD PTR ?gEngfuncs@@3Ucl_enginefuncs_s@@A+328
	mov	eax, DWORD PTR [edx+32]
	call	eax
	add	esp, 12					; 0000000cH

; 302  : 	gEngfuncs.pTriAPI->End(); //end our list of vertexes

	mov	eax, DWORD PTR ?gEngfuncs@@3Ucl_enginefuncs_s@@A+328
	mov	ecx, DWORD PTR [eax+12]
	call	ecx

; 303  : 	gEngfuncs.pTriAPI->RenderMode( kRenderNormal );

	push	0
	mov	eax, DWORD PTR ?gEngfuncs@@3Ucl_enginefuncs_s@@A+328
	mov	ecx, DWORD PTR [eax+4]
	call	ecx
	add	esp, 4

; 304  : 
; 305  : 	i++;

	mov	eax, DWORD PTR _i$[ebp]
	add	eax, 1
	mov	DWORD PTR _i$[ebp], eax

; 306  : 	Lensx[i] = (Suncoordx + (Sundistx * multi[i]));

	mov	eax, DWORD PTR _this$[ebp]
	mov	ecx, DWORD PTR _i$[ebp]
	mov	edx, DWORD PTR _this$[ebp]
	movss	xmm0, DWORD PTR [eax+368]
	mulss	xmm0, DWORD PTR [edx+ecx*4+68]
	mov	eax, DWORD PTR _this$[ebp]
	addss	xmm0, DWORD PTR [eax+360]
	mov	ecx, DWORD PTR _i$[ebp]
	mov	edx, DWORD PTR _this$[ebp]
	movss	DWORD PTR [edx+ecx*4+280], xmm0

; 307  : 	Lensy[i] = (Suncoordy + (Sundisty * multi[i]));

	mov	eax, DWORD PTR _this$[ebp]
	mov	ecx, DWORD PTR _i$[ebp]
	mov	edx, DWORD PTR _this$[ebp]
	movss	xmm0, DWORD PTR [eax+372]
	mulss	xmm0, DWORD PTR [edx+ecx*4+68]
	mov	eax, DWORD PTR _this$[ebp]
	addss	xmm0, DWORD PTR [eax+364]
	mov	ecx, DWORD PTR _i$[ebp]
	mov	edx, DWORD PTR _this$[ebp]
	movss	DWORD PTR [edx+ecx*4+320], xmm0

; 308  : 	gEngfuncs.pTriAPI->RenderMode( kRenderTransAdd ); //additive

	push	5
	mov	eax, DWORD PTR ?gEngfuncs@@3Ucl_enginefuncs_s@@A+328
	mov	ecx, DWORD PTR [eax+4]
	call	ecx
	add	esp, 4

; 309  : 	gEngfuncs.pTriAPI->SpriteTexture( (struct model_s *)gEngfuncs.GetSpritePointer( text[i] ), 0 ); //hotglow, or any other sprite for the texture

	push	0
	mov	eax, DWORD PTR _this$[ebp]
	add	eax, DWORD PTR _i$[ebp]
	movsx	ecx, BYTE PTR [eax+268]
	push	ecx
	call	DWORD PTR ?gEngfuncs@@3Ucl_enginefuncs_s@@A+248
	add	esp, 4
	push	eax
	mov	edx, DWORD PTR ?gEngfuncs@@3Ucl_enginefuncs_s@@A+328
	mov	eax, DWORD PTR [edx+44]
	call	eax
	add	esp, 8

; 310  : 	gEngfuncs.pTriAPI->CullFace( TRI_NONE ); //no culling

	push	1
	mov	eax, DWORD PTR ?gEngfuncs@@3Ucl_enginefuncs_s@@A+328
	mov	ecx, DWORD PTR [eax+40]
	call	ecx
	add	esp, 4

; 311  : 	gEngfuncs.pTriAPI->Color4f( red[i], green[i], green[i], flPlayerBlend2 / 255.0 );

	mov	eax, DWORD PTR _this$[ebp]
	cvtss2sd xmm0, DWORD PTR [eax+40]
	divsd	xmm0, QWORD PTR __real@406fe00000000000
	cvtsd2ss xmm0, xmm0
	push	ecx
	movss	DWORD PTR [esp], xmm0
	mov	ecx, DWORD PTR _i$[ebp]
	mov	edx, DWORD PTR _this$[ebp]
	cvtsi2ss xmm0, DWORD PTR [edx+ecx*4+188]
	push	ecx
	movss	DWORD PTR [esp], xmm0
	mov	eax, DWORD PTR _i$[ebp]
	mov	ecx, DWORD PTR _this$[ebp]
	cvtsi2ss xmm0, DWORD PTR [ecx+eax*4+188]
	push	ecx
	movss	DWORD PTR [esp], xmm0
	mov	edx, DWORD PTR _i$[ebp]
	mov	eax, DWORD PTR _this$[ebp]
	cvtsi2ss xmm0, DWORD PTR [eax+edx*4+148]
	push	ecx
	movss	DWORD PTR [esp], xmm0
	mov	ecx, DWORD PTR ?gEngfuncs@@3Ucl_enginefuncs_s@@A+328
	mov	edx, DWORD PTR [ecx+16]
	call	edx
	add	esp, 16					; 00000010H

; 312  : 	gEngfuncs.pTriAPI->Brightness( flPlayerBlend2 / 255.0 );

	mov	eax, DWORD PTR _this$[ebp]
	cvtss2sd xmm0, DWORD PTR [eax+40]
	divsd	xmm0, QWORD PTR __real@406fe00000000000
	cvtsd2ss xmm0, xmm0
	push	ecx
	movss	DWORD PTR [esp], xmm0
	mov	ecx, DWORD PTR ?gEngfuncs@@3Ucl_enginefuncs_s@@A+328
	mov	edx, DWORD PTR [ecx+36]
	call	edx
	add	esp, 4

; 313  : 	gEngfuncs.pTriAPI->Begin( TRI_QUADS ); //start our quad

	push	2
	mov	eax, DWORD PTR ?gEngfuncs@@3Ucl_enginefuncs_s@@A+328
	mov	ecx, DWORD PTR [eax+8]
	call	ecx
	add	esp, 4

; 314  : 	gEngfuncs.pTriAPI->TexCoord2f( 0.0f, 1.0f ); gEngfuncs.pTriAPI->Vertex3f( Lensx[i] + scale[i], Lensy[i] + scale[i], 0 ); //top left

	push	ecx
	movss	xmm0, DWORD PTR __real@3f800000
	movss	DWORD PTR [esp], xmm0
	push	ecx
	xorps	xmm0, xmm0
	movss	DWORD PTR [esp], xmm0
	mov	eax, DWORD PTR ?gEngfuncs@@3Ucl_enginefuncs_s@@A+328
	mov	ecx, DWORD PTR [eax+24]
	call	ecx
	add	esp, 8
	push	ecx
	xorps	xmm0, xmm0
	movss	DWORD PTR [esp], xmm0
	mov	eax, DWORD PTR _i$[ebp]
	mov	ecx, DWORD PTR _this$[ebp]
	cvtsi2ss xmm0, DWORD PTR [ecx+eax*4+108]
	mov	edx, DWORD PTR _i$[ebp]
	mov	eax, DWORD PTR _this$[ebp]
	addss	xmm0, DWORD PTR [eax+edx*4+320]
	push	ecx
	movss	DWORD PTR [esp], xmm0
	mov	ecx, DWORD PTR _i$[ebp]
	mov	edx, DWORD PTR _this$[ebp]
	cvtsi2ss xmm0, DWORD PTR [edx+ecx*4+108]
	mov	eax, DWORD PTR _i$[ebp]
	mov	ecx, DWORD PTR _this$[ebp]
	addss	xmm0, DWORD PTR [ecx+eax*4+280]
	push	ecx
	movss	DWORD PTR [esp], xmm0
	mov	edx, DWORD PTR ?gEngfuncs@@3Ucl_enginefuncs_s@@A+328
	mov	eax, DWORD PTR [edx+32]
	call	eax
	add	esp, 12					; 0000000cH

; 315  : 	gEngfuncs.pTriAPI->TexCoord2f( 0.0f, 0.0f ); gEngfuncs.pTriAPI->Vertex3f( Lensx[i] + scale[i], Lensy[i] - scale[i], 0 ); //bottom left

	push	ecx
	xorps	xmm0, xmm0
	movss	DWORD PTR [esp], xmm0
	push	ecx
	xorps	xmm0, xmm0
	movss	DWORD PTR [esp], xmm0
	mov	eax, DWORD PTR ?gEngfuncs@@3Ucl_enginefuncs_s@@A+328
	mov	ecx, DWORD PTR [eax+24]
	call	ecx
	add	esp, 8
	push	ecx
	xorps	xmm0, xmm0
	movss	DWORD PTR [esp], xmm0
	mov	eax, DWORD PTR _i$[ebp]
	mov	ecx, DWORD PTR _this$[ebp]
	cvtsi2ss xmm0, DWORD PTR [ecx+eax*4+108]
	mov	edx, DWORD PTR _i$[ebp]
	mov	eax, DWORD PTR _this$[ebp]
	movss	xmm1, DWORD PTR [eax+edx*4+320]
	subss	xmm1, xmm0
	push	ecx
	movss	DWORD PTR [esp], xmm1
	mov	ecx, DWORD PTR _i$[ebp]
	mov	edx, DWORD PTR _this$[ebp]
	cvtsi2ss xmm0, DWORD PTR [edx+ecx*4+108]
	mov	eax, DWORD PTR _i$[ebp]
	mov	ecx, DWORD PTR _this$[ebp]
	addss	xmm0, DWORD PTR [ecx+eax*4+280]
	push	ecx
	movss	DWORD PTR [esp], xmm0
	mov	edx, DWORD PTR ?gEngfuncs@@3Ucl_enginefuncs_s@@A+328
	mov	eax, DWORD PTR [edx+32]
	call	eax
	add	esp, 12					; 0000000cH

; 316  : 	gEngfuncs.pTriAPI->TexCoord2f( 1.0f, 0.0f ); gEngfuncs.pTriAPI->Vertex3f( Lensx[i] - scale[i], Lensy[i] - scale[i], 0 ); //bottom right

	push	ecx
	xorps	xmm0, xmm0
	movss	DWORD PTR [esp], xmm0
	push	ecx
	movss	xmm0, DWORD PTR __real@3f800000
	movss	DWORD PTR [esp], xmm0
	mov	eax, DWORD PTR ?gEngfuncs@@3Ucl_enginefuncs_s@@A+328
	mov	ecx, DWORD PTR [eax+24]
	call	ecx
	add	esp, 8
	push	ecx
	xorps	xmm0, xmm0
	movss	DWORD PTR [esp], xmm0
	mov	eax, DWORD PTR _i$[ebp]
	mov	ecx, DWORD PTR _this$[ebp]
	cvtsi2ss xmm0, DWORD PTR [ecx+eax*4+108]
	mov	edx, DWORD PTR _i$[ebp]
	mov	eax, DWORD PTR _this$[ebp]
	movss	xmm1, DWORD PTR [eax+edx*4+320]
	subss	xmm1, xmm0
	push	ecx
	movss	DWORD PTR [esp], xmm1
	mov	ecx, DWORD PTR _i$[ebp]
	mov	edx, DWORD PTR _this$[ebp]
	cvtsi2ss xmm0, DWORD PTR [edx+ecx*4+108]
	mov	eax, DWORD PTR _i$[ebp]
	mov	ecx, DWORD PTR _this$[ebp]
	movss	xmm1, DWORD PTR [ecx+eax*4+280]
	subss	xmm1, xmm0
	push	ecx
	movss	DWORD PTR [esp], xmm1
	mov	edx, DWORD PTR ?gEngfuncs@@3Ucl_enginefuncs_s@@A+328
	mov	eax, DWORD PTR [edx+32]
	call	eax
	add	esp, 12					; 0000000cH

; 317  : 	gEngfuncs.pTriAPI->TexCoord2f( 1.0f, 1.0f ); gEngfuncs.pTriAPI->Vertex3f( Lensx[i] - scale[i], Lensy[i] + scale[i], 0 ); //top right

	push	ecx
	movss	xmm0, DWORD PTR __real@3f800000
	movss	DWORD PTR [esp], xmm0
	push	ecx
	movss	xmm0, DWORD PTR __real@3f800000
	movss	DWORD PTR [esp], xmm0
	mov	eax, DWORD PTR ?gEngfuncs@@3Ucl_enginefuncs_s@@A+328
	mov	ecx, DWORD PTR [eax+24]
	call	ecx
	add	esp, 8
	push	ecx
	xorps	xmm0, xmm0
	movss	DWORD PTR [esp], xmm0
	mov	eax, DWORD PTR _i$[ebp]
	mov	ecx, DWORD PTR _this$[ebp]
	cvtsi2ss xmm0, DWORD PTR [ecx+eax*4+108]
	mov	edx, DWORD PTR _i$[ebp]
	mov	eax, DWORD PTR _this$[ebp]
	addss	xmm0, DWORD PTR [eax+edx*4+320]
	push	ecx
	movss	DWORD PTR [esp], xmm0
	mov	ecx, DWORD PTR _i$[ebp]
	mov	edx, DWORD PTR _this$[ebp]
	cvtsi2ss xmm0, DWORD PTR [edx+ecx*4+108]
	mov	eax, DWORD PTR _i$[ebp]
	mov	ecx, DWORD PTR _this$[ebp]
	movss	xmm1, DWORD PTR [ecx+eax*4+280]
	subss	xmm1, xmm0
	push	ecx
	movss	DWORD PTR [esp], xmm1
	mov	edx, DWORD PTR ?gEngfuncs@@3Ucl_enginefuncs_s@@A+328
	mov	eax, DWORD PTR [edx+32]
	call	eax
	add	esp, 12					; 0000000cH

; 318  : 	gEngfuncs.pTriAPI->End(); //end our list of vertexes

	mov	eax, DWORD PTR ?gEngfuncs@@3Ucl_enginefuncs_s@@A+328
	mov	ecx, DWORD PTR [eax+12]
	call	ecx

; 319  : 	gEngfuncs.pTriAPI->RenderMode( kRenderNormal );

	push	0
	mov	eax, DWORD PTR ?gEngfuncs@@3Ucl_enginefuncs_s@@A+328
	mov	ecx, DWORD PTR [eax+4]
	call	ecx
	add	esp, 4

; 320  : 
; 321  : 	i++;

	mov	eax, DWORD PTR _i$[ebp]
	add	eax, 1
	mov	DWORD PTR _i$[ebp], eax

; 322  : 	Lensx[i] = (Suncoordx + (Sundistx * multi[i]));

	mov	eax, DWORD PTR _this$[ebp]
	mov	ecx, DWORD PTR _i$[ebp]
	mov	edx, DWORD PTR _this$[ebp]
	movss	xmm0, DWORD PTR [eax+368]
	mulss	xmm0, DWORD PTR [edx+ecx*4+68]
	mov	eax, DWORD PTR _this$[ebp]
	addss	xmm0, DWORD PTR [eax+360]
	mov	ecx, DWORD PTR _i$[ebp]
	mov	edx, DWORD PTR _this$[ebp]
	movss	DWORD PTR [edx+ecx*4+280], xmm0

; 323  : 	Lensy[i] = (Suncoordy + (Sundisty * multi[i]));

	mov	eax, DWORD PTR _this$[ebp]
	mov	ecx, DWORD PTR _i$[ebp]
	mov	edx, DWORD PTR _this$[ebp]
	movss	xmm0, DWORD PTR [eax+372]
	mulss	xmm0, DWORD PTR [edx+ecx*4+68]
	mov	eax, DWORD PTR _this$[ebp]
	addss	xmm0, DWORD PTR [eax+364]
	mov	ecx, DWORD PTR _i$[ebp]
	mov	edx, DWORD PTR _this$[ebp]
	movss	DWORD PTR [edx+ecx*4+320], xmm0

; 324  : 	gEngfuncs.pTriAPI->RenderMode( kRenderTransAdd ); //additive

	push	5
	mov	eax, DWORD PTR ?gEngfuncs@@3Ucl_enginefuncs_s@@A+328
	mov	ecx, DWORD PTR [eax+4]
	call	ecx
	add	esp, 4

; 325  : 	gEngfuncs.pTriAPI->SpriteTexture( (struct model_s *)gEngfuncs.GetSpritePointer( text[i] ), 0 ); //hotglow, or any other sprite for the texture

	push	0
	mov	eax, DWORD PTR _this$[ebp]
	add	eax, DWORD PTR _i$[ebp]
	movsx	ecx, BYTE PTR [eax+268]
	push	ecx
	call	DWORD PTR ?gEngfuncs@@3Ucl_enginefuncs_s@@A+248
	add	esp, 4
	push	eax
	mov	edx, DWORD PTR ?gEngfuncs@@3Ucl_enginefuncs_s@@A+328
	mov	eax, DWORD PTR [edx+44]
	call	eax
	add	esp, 8

; 326  : 	gEngfuncs.pTriAPI->CullFace( TRI_NONE ); //no culling

	push	1
	mov	eax, DWORD PTR ?gEngfuncs@@3Ucl_enginefuncs_s@@A+328
	mov	ecx, DWORD PTR [eax+40]
	call	ecx
	add	esp, 4

; 327  : 	gEngfuncs.pTriAPI->Color4f( red[i], green[i], green[i], flPlayerBlend2 / 255.0 );

	mov	eax, DWORD PTR _this$[ebp]
	cvtss2sd xmm0, DWORD PTR [eax+40]
	divsd	xmm0, QWORD PTR __real@406fe00000000000
	cvtsd2ss xmm0, xmm0
	push	ecx
	movss	DWORD PTR [esp], xmm0
	mov	ecx, DWORD PTR _i$[ebp]
	mov	edx, DWORD PTR _this$[ebp]
	cvtsi2ss xmm0, DWORD PTR [edx+ecx*4+188]
	push	ecx
	movss	DWORD PTR [esp], xmm0
	mov	eax, DWORD PTR _i$[ebp]
	mov	ecx, DWORD PTR _this$[ebp]
	cvtsi2ss xmm0, DWORD PTR [ecx+eax*4+188]
	push	ecx
	movss	DWORD PTR [esp], xmm0
	mov	edx, DWORD PTR _i$[ebp]
	mov	eax, DWORD PTR _this$[ebp]
	cvtsi2ss xmm0, DWORD PTR [eax+edx*4+148]
	push	ecx
	movss	DWORD PTR [esp], xmm0
	mov	ecx, DWORD PTR ?gEngfuncs@@3Ucl_enginefuncs_s@@A+328
	mov	edx, DWORD PTR [ecx+16]
	call	edx
	add	esp, 16					; 00000010H

; 328  : 	gEngfuncs.pTriAPI->Brightness( flPlayerBlend2 / 255.0 );

	mov	eax, DWORD PTR _this$[ebp]
	cvtss2sd xmm0, DWORD PTR [eax+40]
	divsd	xmm0, QWORD PTR __real@406fe00000000000
	cvtsd2ss xmm0, xmm0
	push	ecx
	movss	DWORD PTR [esp], xmm0
	mov	ecx, DWORD PTR ?gEngfuncs@@3Ucl_enginefuncs_s@@A+328
	mov	edx, DWORD PTR [ecx+36]
	call	edx
	add	esp, 4

; 329  : 	gEngfuncs.pTriAPI->Begin( TRI_QUADS ); //start our quad

	push	2
	mov	eax, DWORD PTR ?gEngfuncs@@3Ucl_enginefuncs_s@@A+328
	mov	ecx, DWORD PTR [eax+8]
	call	ecx
	add	esp, 4

; 330  : 	gEngfuncs.pTriAPI->TexCoord2f( 0.0f, 1.0f ); gEngfuncs.pTriAPI->Vertex3f( Lensx[i] + scale[i], Lensy[i] + scale[i], 0 ); //top left

	push	ecx
	movss	xmm0, DWORD PTR __real@3f800000
	movss	DWORD PTR [esp], xmm0
	push	ecx
	xorps	xmm0, xmm0
	movss	DWORD PTR [esp], xmm0
	mov	eax, DWORD PTR ?gEngfuncs@@3Ucl_enginefuncs_s@@A+328
	mov	ecx, DWORD PTR [eax+24]
	call	ecx
	add	esp, 8
	push	ecx
	xorps	xmm0, xmm0
	movss	DWORD PTR [esp], xmm0
	mov	eax, DWORD PTR _i$[ebp]
	mov	ecx, DWORD PTR _this$[ebp]
	cvtsi2ss xmm0, DWORD PTR [ecx+eax*4+108]
	mov	edx, DWORD PTR _i$[ebp]
	mov	eax, DWORD PTR _this$[ebp]
	addss	xmm0, DWORD PTR [eax+edx*4+320]
	push	ecx
	movss	DWORD PTR [esp], xmm0
	mov	ecx, DWORD PTR _i$[ebp]
	mov	edx, DWORD PTR _this$[ebp]
	cvtsi2ss xmm0, DWORD PTR [edx+ecx*4+108]
	mov	eax, DWORD PTR _i$[ebp]
	mov	ecx, DWORD PTR _this$[ebp]
	addss	xmm0, DWORD PTR [ecx+eax*4+280]
	push	ecx
	movss	DWORD PTR [esp], xmm0
	mov	edx, DWORD PTR ?gEngfuncs@@3Ucl_enginefuncs_s@@A+328
	mov	eax, DWORD PTR [edx+32]
	call	eax
	add	esp, 12					; 0000000cH

; 331  : 	gEngfuncs.pTriAPI->TexCoord2f( 0.0f, 0.0f ); gEngfuncs.pTriAPI->Vertex3f( Lensx[i] + scale[i], Lensy[i] - scale[i], 0 ); //bottom left

	push	ecx
	xorps	xmm0, xmm0
	movss	DWORD PTR [esp], xmm0
	push	ecx
	xorps	xmm0, xmm0
	movss	DWORD PTR [esp], xmm0
	mov	eax, DWORD PTR ?gEngfuncs@@3Ucl_enginefuncs_s@@A+328
	mov	ecx, DWORD PTR [eax+24]
	call	ecx
	add	esp, 8
	push	ecx
	xorps	xmm0, xmm0
	movss	DWORD PTR [esp], xmm0
	mov	eax, DWORD PTR _i$[ebp]
	mov	ecx, DWORD PTR _this$[ebp]
	cvtsi2ss xmm0, DWORD PTR [ecx+eax*4+108]
	mov	edx, DWORD PTR _i$[ebp]
	mov	eax, DWORD PTR _this$[ebp]
	movss	xmm1, DWORD PTR [eax+edx*4+320]
	subss	xmm1, xmm0
	push	ecx
	movss	DWORD PTR [esp], xmm1
	mov	ecx, DWORD PTR _i$[ebp]
	mov	edx, DWORD PTR _this$[ebp]
	cvtsi2ss xmm0, DWORD PTR [edx+ecx*4+108]
	mov	eax, DWORD PTR _i$[ebp]
	mov	ecx, DWORD PTR _this$[ebp]
	addss	xmm0, DWORD PTR [ecx+eax*4+280]
	push	ecx
	movss	DWORD PTR [esp], xmm0
	mov	edx, DWORD PTR ?gEngfuncs@@3Ucl_enginefuncs_s@@A+328
	mov	eax, DWORD PTR [edx+32]
	call	eax
	add	esp, 12					; 0000000cH

; 332  : 	gEngfuncs.pTriAPI->TexCoord2f( 1.0f, 0.0f ); gEngfuncs.pTriAPI->Vertex3f( Lensx[i] - scale[i], Lensy[i] - scale[i], 0 ); //bottom right

	push	ecx
	xorps	xmm0, xmm0
	movss	DWORD PTR [esp], xmm0
	push	ecx
	movss	xmm0, DWORD PTR __real@3f800000
	movss	DWORD PTR [esp], xmm0
	mov	eax, DWORD PTR ?gEngfuncs@@3Ucl_enginefuncs_s@@A+328
	mov	ecx, DWORD PTR [eax+24]
	call	ecx
	add	esp, 8
	push	ecx
	xorps	xmm0, xmm0
	movss	DWORD PTR [esp], xmm0
	mov	eax, DWORD PTR _i$[ebp]
	mov	ecx, DWORD PTR _this$[ebp]
	cvtsi2ss xmm0, DWORD PTR [ecx+eax*4+108]
	mov	edx, DWORD PTR _i$[ebp]
	mov	eax, DWORD PTR _this$[ebp]
	movss	xmm1, DWORD PTR [eax+edx*4+320]
	subss	xmm1, xmm0
	push	ecx
	movss	DWORD PTR [esp], xmm1
	mov	ecx, DWORD PTR _i$[ebp]
	mov	edx, DWORD PTR _this$[ebp]
	cvtsi2ss xmm0, DWORD PTR [edx+ecx*4+108]
	mov	eax, DWORD PTR _i$[ebp]
	mov	ecx, DWORD PTR _this$[ebp]
	movss	xmm1, DWORD PTR [ecx+eax*4+280]
	subss	xmm1, xmm0
	push	ecx
	movss	DWORD PTR [esp], xmm1
	mov	edx, DWORD PTR ?gEngfuncs@@3Ucl_enginefuncs_s@@A+328
	mov	eax, DWORD PTR [edx+32]
	call	eax
	add	esp, 12					; 0000000cH

; 333  : 	gEngfuncs.pTriAPI->TexCoord2f( 1.0f, 1.0f ); gEngfuncs.pTriAPI->Vertex3f( Lensx[i] - scale[i], Lensy[i] + scale[i], 0 ); //top right

	push	ecx
	movss	xmm0, DWORD PTR __real@3f800000
	movss	DWORD PTR [esp], xmm0
	push	ecx
	movss	xmm0, DWORD PTR __real@3f800000
	movss	DWORD PTR [esp], xmm0
	mov	eax, DWORD PTR ?gEngfuncs@@3Ucl_enginefuncs_s@@A+328
	mov	ecx, DWORD PTR [eax+24]
	call	ecx
	add	esp, 8
	push	ecx
	xorps	xmm0, xmm0
	movss	DWORD PTR [esp], xmm0
	mov	eax, DWORD PTR _i$[ebp]
	mov	ecx, DWORD PTR _this$[ebp]
	cvtsi2ss xmm0, DWORD PTR [ecx+eax*4+108]
	mov	edx, DWORD PTR _i$[ebp]
	mov	eax, DWORD PTR _this$[ebp]
	addss	xmm0, DWORD PTR [eax+edx*4+320]
	push	ecx
	movss	DWORD PTR [esp], xmm0
	mov	ecx, DWORD PTR _i$[ebp]
	mov	edx, DWORD PTR _this$[ebp]
	cvtsi2ss xmm0, DWORD PTR [edx+ecx*4+108]
	mov	eax, DWORD PTR _i$[ebp]
	mov	ecx, DWORD PTR _this$[ebp]
	movss	xmm1, DWORD PTR [ecx+eax*4+280]
	subss	xmm1, xmm0
	push	ecx
	movss	DWORD PTR [esp], xmm1
	mov	edx, DWORD PTR ?gEngfuncs@@3Ucl_enginefuncs_s@@A+328
	mov	eax, DWORD PTR [edx+32]
	call	eax
	add	esp, 12					; 0000000cH

; 334  : 	gEngfuncs.pTriAPI->End(); //end our list of vertexes

	mov	eax, DWORD PTR ?gEngfuncs@@3Ucl_enginefuncs_s@@A+328
	mov	ecx, DWORD PTR [eax+12]
	call	ecx

; 335  : 	gEngfuncs.pTriAPI->RenderMode( kRenderNormal );

	push	0
	mov	eax, DWORD PTR ?gEngfuncs@@3Ucl_enginefuncs_s@@A+328
	mov	ecx, DWORD PTR [eax+4]
	call	ecx
	add	esp, 4

; 336  : 
; 337  : 	i++;

	mov	eax, DWORD PTR _i$[ebp]
	add	eax, 1
	mov	DWORD PTR _i$[ebp], eax

; 338  : 	Lensx[i] = (Suncoordx + (Sundistx * multi[i]));

	mov	eax, DWORD PTR _this$[ebp]
	mov	ecx, DWORD PTR _i$[ebp]
	mov	edx, DWORD PTR _this$[ebp]
	movss	xmm0, DWORD PTR [eax+368]
	mulss	xmm0, DWORD PTR [edx+ecx*4+68]
	mov	eax, DWORD PTR _this$[ebp]
	addss	xmm0, DWORD PTR [eax+360]
	mov	ecx, DWORD PTR _i$[ebp]
	mov	edx, DWORD PTR _this$[ebp]
	movss	DWORD PTR [edx+ecx*4+280], xmm0

; 339  : 	Lensy[i] = (Suncoordy + (Sundisty * multi[i]));

	mov	eax, DWORD PTR _this$[ebp]
	mov	ecx, DWORD PTR _i$[ebp]
	mov	edx, DWORD PTR _this$[ebp]
	movss	xmm0, DWORD PTR [eax+372]
	mulss	xmm0, DWORD PTR [edx+ecx*4+68]
	mov	eax, DWORD PTR _this$[ebp]
	addss	xmm0, DWORD PTR [eax+364]
	mov	ecx, DWORD PTR _i$[ebp]
	mov	edx, DWORD PTR _this$[ebp]
	movss	DWORD PTR [edx+ecx*4+320], xmm0

; 340  : 	gEngfuncs.pTriAPI->RenderMode( kRenderTransAdd ); //additive

	push	5
	mov	eax, DWORD PTR ?gEngfuncs@@3Ucl_enginefuncs_s@@A+328
	mov	ecx, DWORD PTR [eax+4]
	call	ecx
	add	esp, 4

; 341  : 	gEngfuncs.pTriAPI->SpriteTexture( (struct model_s *)gEngfuncs.GetSpritePointer( text[i] ), 0 ); //hotglow, or any other sprite for the texture

	push	0
	mov	eax, DWORD PTR _this$[ebp]
	add	eax, DWORD PTR _i$[ebp]
	movsx	ecx, BYTE PTR [eax+268]
	push	ecx
	call	DWORD PTR ?gEngfuncs@@3Ucl_enginefuncs_s@@A+248
	add	esp, 4
	push	eax
	mov	edx, DWORD PTR ?gEngfuncs@@3Ucl_enginefuncs_s@@A+328
	mov	eax, DWORD PTR [edx+44]
	call	eax
	add	esp, 8

; 342  : 	gEngfuncs.pTriAPI->CullFace( TRI_NONE ); //no culling

	push	1
	mov	eax, DWORD PTR ?gEngfuncs@@3Ucl_enginefuncs_s@@A+328
	mov	ecx, DWORD PTR [eax+40]
	call	ecx
	add	esp, 4

; 343  : 	gEngfuncs.pTriAPI->Color4f( red[i], green[i], green[i], flPlayerBlend2 / 255.0 );

	mov	eax, DWORD PTR _this$[ebp]
	cvtss2sd xmm0, DWORD PTR [eax+40]
	divsd	xmm0, QWORD PTR __real@406fe00000000000
	cvtsd2ss xmm0, xmm0
	push	ecx
	movss	DWORD PTR [esp], xmm0
	mov	ecx, DWORD PTR _i$[ebp]
	mov	edx, DWORD PTR _this$[ebp]
	cvtsi2ss xmm0, DWORD PTR [edx+ecx*4+188]
	push	ecx
	movss	DWORD PTR [esp], xmm0
	mov	eax, DWORD PTR _i$[ebp]
	mov	ecx, DWORD PTR _this$[ebp]
	cvtsi2ss xmm0, DWORD PTR [ecx+eax*4+188]
	push	ecx
	movss	DWORD PTR [esp], xmm0
	mov	edx, DWORD PTR _i$[ebp]
	mov	eax, DWORD PTR _this$[ebp]
	cvtsi2ss xmm0, DWORD PTR [eax+edx*4+148]
	push	ecx
	movss	DWORD PTR [esp], xmm0
	mov	ecx, DWORD PTR ?gEngfuncs@@3Ucl_enginefuncs_s@@A+328
	mov	edx, DWORD PTR [ecx+16]
	call	edx
	add	esp, 16					; 00000010H

; 344  : 	gEngfuncs.pTriAPI->Brightness( flPlayerBlend2 / 255.0 );

	mov	eax, DWORD PTR _this$[ebp]
	cvtss2sd xmm0, DWORD PTR [eax+40]
	divsd	xmm0, QWORD PTR __real@406fe00000000000
	cvtsd2ss xmm0, xmm0
	push	ecx
	movss	DWORD PTR [esp], xmm0
	mov	ecx, DWORD PTR ?gEngfuncs@@3Ucl_enginefuncs_s@@A+328
	mov	edx, DWORD PTR [ecx+36]
	call	edx
	add	esp, 4

; 345  : 	gEngfuncs.pTriAPI->Begin( TRI_QUADS ); //start our quad

	push	2
	mov	eax, DWORD PTR ?gEngfuncs@@3Ucl_enginefuncs_s@@A+328
	mov	ecx, DWORD PTR [eax+8]
	call	ecx
	add	esp, 4

; 346  : 	gEngfuncs.pTriAPI->TexCoord2f( 0.0f, 1.0f ); gEngfuncs.pTriAPI->Vertex3f( Lensx[i] + scale[i], Lensy[i] + scale[i], 0 ); //top left

	push	ecx
	movss	xmm0, DWORD PTR __real@3f800000
	movss	DWORD PTR [esp], xmm0
	push	ecx
	xorps	xmm0, xmm0
	movss	DWORD PTR [esp], xmm0
	mov	eax, DWORD PTR ?gEngfuncs@@3Ucl_enginefuncs_s@@A+328
	mov	ecx, DWORD PTR [eax+24]
	call	ecx
	add	esp, 8
	push	ecx
	xorps	xmm0, xmm0
	movss	DWORD PTR [esp], xmm0
	mov	eax, DWORD PTR _i$[ebp]
	mov	ecx, DWORD PTR _this$[ebp]
	cvtsi2ss xmm0, DWORD PTR [ecx+eax*4+108]
	mov	edx, DWORD PTR _i$[ebp]
	mov	eax, DWORD PTR _this$[ebp]
	addss	xmm0, DWORD PTR [eax+edx*4+320]
	push	ecx
	movss	DWORD PTR [esp], xmm0
	mov	ecx, DWORD PTR _i$[ebp]
	mov	edx, DWORD PTR _this$[ebp]
	cvtsi2ss xmm0, DWORD PTR [edx+ecx*4+108]
	mov	eax, DWORD PTR _i$[ebp]
	mov	ecx, DWORD PTR _this$[ebp]
	addss	xmm0, DWORD PTR [ecx+eax*4+280]
	push	ecx
	movss	DWORD PTR [esp], xmm0
	mov	edx, DWORD PTR ?gEngfuncs@@3Ucl_enginefuncs_s@@A+328
	mov	eax, DWORD PTR [edx+32]
	call	eax
	add	esp, 12					; 0000000cH

; 347  : 	gEngfuncs.pTriAPI->TexCoord2f( 0.0f, 0.0f ); gEngfuncs.pTriAPI->Vertex3f( Lensx[i] + scale[i], Lensy[i] - scale[i], 0 ); //bottom left

	push	ecx
	xorps	xmm0, xmm0
	movss	DWORD PTR [esp], xmm0
	push	ecx
	xorps	xmm0, xmm0
	movss	DWORD PTR [esp], xmm0
	mov	eax, DWORD PTR ?gEngfuncs@@3Ucl_enginefuncs_s@@A+328
	mov	ecx, DWORD PTR [eax+24]
	call	ecx
	add	esp, 8
	push	ecx
	xorps	xmm0, xmm0
	movss	DWORD PTR [esp], xmm0
	mov	eax, DWORD PTR _i$[ebp]
	mov	ecx, DWORD PTR _this$[ebp]
	cvtsi2ss xmm0, DWORD PTR [ecx+eax*4+108]
	mov	edx, DWORD PTR _i$[ebp]
	mov	eax, DWORD PTR _this$[ebp]
	movss	xmm1, DWORD PTR [eax+edx*4+320]
	subss	xmm1, xmm0
	push	ecx
	movss	DWORD PTR [esp], xmm1
	mov	ecx, DWORD PTR _i$[ebp]
	mov	edx, DWORD PTR _this$[ebp]
	cvtsi2ss xmm0, DWORD PTR [edx+ecx*4+108]
	mov	eax, DWORD PTR _i$[ebp]
	mov	ecx, DWORD PTR _this$[ebp]
	addss	xmm0, DWORD PTR [ecx+eax*4+280]
	push	ecx
	movss	DWORD PTR [esp], xmm0
	mov	edx, DWORD PTR ?gEngfuncs@@3Ucl_enginefuncs_s@@A+328
	mov	eax, DWORD PTR [edx+32]
	call	eax
	add	esp, 12					; 0000000cH

; 348  : 	gEngfuncs.pTriAPI->TexCoord2f( 1.0f, 0.0f ); gEngfuncs.pTriAPI->Vertex3f( Lensx[i] - scale[i], Lensy[i] - scale[i], 0 ); //bottom right

	push	ecx
	xorps	xmm0, xmm0
	movss	DWORD PTR [esp], xmm0
	push	ecx
	movss	xmm0, DWORD PTR __real@3f800000
	movss	DWORD PTR [esp], xmm0
	mov	eax, DWORD PTR ?gEngfuncs@@3Ucl_enginefuncs_s@@A+328
	mov	ecx, DWORD PTR [eax+24]
	call	ecx
	add	esp, 8
	push	ecx
	xorps	xmm0, xmm0
	movss	DWORD PTR [esp], xmm0
	mov	eax, DWORD PTR _i$[ebp]
	mov	ecx, DWORD PTR _this$[ebp]
	cvtsi2ss xmm0, DWORD PTR [ecx+eax*4+108]
	mov	edx, DWORD PTR _i$[ebp]
	mov	eax, DWORD PTR _this$[ebp]
	movss	xmm1, DWORD PTR [eax+edx*4+320]
	subss	xmm1, xmm0
	push	ecx
	movss	DWORD PTR [esp], xmm1
	mov	ecx, DWORD PTR _i$[ebp]
	mov	edx, DWORD PTR _this$[ebp]
	cvtsi2ss xmm0, DWORD PTR [edx+ecx*4+108]
	mov	eax, DWORD PTR _i$[ebp]
	mov	ecx, DWORD PTR _this$[ebp]
	movss	xmm1, DWORD PTR [ecx+eax*4+280]
	subss	xmm1, xmm0
	push	ecx
	movss	DWORD PTR [esp], xmm1
	mov	edx, DWORD PTR ?gEngfuncs@@3Ucl_enginefuncs_s@@A+328
	mov	eax, DWORD PTR [edx+32]
	call	eax
	add	esp, 12					; 0000000cH

; 349  : 	gEngfuncs.pTriAPI->TexCoord2f( 1.0f, 1.0f ); gEngfuncs.pTriAPI->Vertex3f( Lensx[i] - scale[i], Lensy[i] + scale[i], 0 ); //top right

	push	ecx
	movss	xmm0, DWORD PTR __real@3f800000
	movss	DWORD PTR [esp], xmm0
	push	ecx
	movss	xmm0, DWORD PTR __real@3f800000
	movss	DWORD PTR [esp], xmm0
	mov	eax, DWORD PTR ?gEngfuncs@@3Ucl_enginefuncs_s@@A+328
	mov	ecx, DWORD PTR [eax+24]
	call	ecx
	add	esp, 8
	push	ecx
	xorps	xmm0, xmm0
	movss	DWORD PTR [esp], xmm0
	mov	eax, DWORD PTR _i$[ebp]
	mov	ecx, DWORD PTR _this$[ebp]
	cvtsi2ss xmm0, DWORD PTR [ecx+eax*4+108]
	mov	edx, DWORD PTR _i$[ebp]
	mov	eax, DWORD PTR _this$[ebp]
	addss	xmm0, DWORD PTR [eax+edx*4+320]
	push	ecx
	movss	DWORD PTR [esp], xmm0
	mov	ecx, DWORD PTR _i$[ebp]
	mov	edx, DWORD PTR _this$[ebp]
	cvtsi2ss xmm0, DWORD PTR [edx+ecx*4+108]
	mov	eax, DWORD PTR _i$[ebp]
	mov	ecx, DWORD PTR _this$[ebp]
	movss	xmm1, DWORD PTR [ecx+eax*4+280]
	subss	xmm1, xmm0
	push	ecx
	movss	DWORD PTR [esp], xmm1
	mov	edx, DWORD PTR ?gEngfuncs@@3Ucl_enginefuncs_s@@A+328
	mov	eax, DWORD PTR [edx+32]
	call	eax
	add	esp, 12					; 0000000cH

; 350  : 	gEngfuncs.pTriAPI->End(); //end our list of vertexes

	mov	eax, DWORD PTR ?gEngfuncs@@3Ucl_enginefuncs_s@@A+328
	mov	ecx, DWORD PTR [eax+12]
	call	ecx

; 351  : 	gEngfuncs.pTriAPI->RenderMode( kRenderNormal );

	push	0
	mov	eax, DWORD PTR ?gEngfuncs@@3Ucl_enginefuncs_s@@A+328
	mov	ecx, DWORD PTR [eax+4]
	call	ecx
	add	esp, 4

; 352  : 
; 353  : 	i++;

	mov	eax, DWORD PTR _i$[ebp]
	add	eax, 1
	mov	DWORD PTR _i$[ebp], eax

; 354  : 	Lensx[i] = (Suncoordx + (Sundistx * multi[i]));

	mov	eax, DWORD PTR _this$[ebp]
	mov	ecx, DWORD PTR _i$[ebp]
	mov	edx, DWORD PTR _this$[ebp]
	movss	xmm0, DWORD PTR [eax+368]
	mulss	xmm0, DWORD PTR [edx+ecx*4+68]
	mov	eax, DWORD PTR _this$[ebp]
	addss	xmm0, DWORD PTR [eax+360]
	mov	ecx, DWORD PTR _i$[ebp]
	mov	edx, DWORD PTR _this$[ebp]
	movss	DWORD PTR [edx+ecx*4+280], xmm0

; 355  : 	Lensy[i] = (Suncoordy + (Sundisty * multi[i]));

	mov	eax, DWORD PTR _this$[ebp]
	mov	ecx, DWORD PTR _i$[ebp]
	mov	edx, DWORD PTR _this$[ebp]
	movss	xmm0, DWORD PTR [eax+372]
	mulss	xmm0, DWORD PTR [edx+ecx*4+68]
	mov	eax, DWORD PTR _this$[ebp]
	addss	xmm0, DWORD PTR [eax+364]
	mov	ecx, DWORD PTR _i$[ebp]
	mov	edx, DWORD PTR _this$[ebp]
	movss	DWORD PTR [edx+ecx*4+320], xmm0

; 356  : 	gEngfuncs.pTriAPI->RenderMode( kRenderTransAdd ); //additive

	push	5
	mov	eax, DWORD PTR ?gEngfuncs@@3Ucl_enginefuncs_s@@A+328
	mov	ecx, DWORD PTR [eax+4]
	call	ecx
	add	esp, 4

; 357  : 	gEngfuncs.pTriAPI->SpriteTexture( (struct model_s *)gEngfuncs.GetSpritePointer( text[i] ), 0 ); //hotglow, or any other sprite for the texture

	push	0
	mov	eax, DWORD PTR _this$[ebp]
	add	eax, DWORD PTR _i$[ebp]
	movsx	ecx, BYTE PTR [eax+268]
	push	ecx
	call	DWORD PTR ?gEngfuncs@@3Ucl_enginefuncs_s@@A+248
	add	esp, 4
	push	eax
	mov	edx, DWORD PTR ?gEngfuncs@@3Ucl_enginefuncs_s@@A+328
	mov	eax, DWORD PTR [edx+44]
	call	eax
	add	esp, 8

; 358  : 	gEngfuncs.pTriAPI->CullFace( TRI_NONE ); //no culling

	push	1
	mov	eax, DWORD PTR ?gEngfuncs@@3Ucl_enginefuncs_s@@A+328
	mov	ecx, DWORD PTR [eax+40]
	call	ecx
	add	esp, 4

; 359  : 	gEngfuncs.pTriAPI->Color4f( red[i], green[i], green[i], flPlayerBlend2 / 255.0 );

	mov	eax, DWORD PTR _this$[ebp]
	cvtss2sd xmm0, DWORD PTR [eax+40]
	divsd	xmm0, QWORD PTR __real@406fe00000000000
	cvtsd2ss xmm0, xmm0
	push	ecx
	movss	DWORD PTR [esp], xmm0
	mov	ecx, DWORD PTR _i$[ebp]
	mov	edx, DWORD PTR _this$[ebp]
	cvtsi2ss xmm0, DWORD PTR [edx+ecx*4+188]
	push	ecx
	movss	DWORD PTR [esp], xmm0
	mov	eax, DWORD PTR _i$[ebp]
	mov	ecx, DWORD PTR _this$[ebp]
	cvtsi2ss xmm0, DWORD PTR [ecx+eax*4+188]
	push	ecx
	movss	DWORD PTR [esp], xmm0
	mov	edx, DWORD PTR _i$[ebp]
	mov	eax, DWORD PTR _this$[ebp]
	cvtsi2ss xmm0, DWORD PTR [eax+edx*4+148]
	push	ecx
	movss	DWORD PTR [esp], xmm0
	mov	ecx, DWORD PTR ?gEngfuncs@@3Ucl_enginefuncs_s@@A+328
	mov	edx, DWORD PTR [ecx+16]
	call	edx
	add	esp, 16					; 00000010H

; 360  : 	gEngfuncs.pTriAPI->Brightness( flPlayerBlend2 / 255.0 );

	mov	eax, DWORD PTR _this$[ebp]
	cvtss2sd xmm0, DWORD PTR [eax+40]
	divsd	xmm0, QWORD PTR __real@406fe00000000000
	cvtsd2ss xmm0, xmm0
	push	ecx
	movss	DWORD PTR [esp], xmm0
	mov	ecx, DWORD PTR ?gEngfuncs@@3Ucl_enginefuncs_s@@A+328
	mov	edx, DWORD PTR [ecx+36]
	call	edx
	add	esp, 4

; 361  : 	gEngfuncs.pTriAPI->Begin( TRI_QUADS ); //start our quad

	push	2
	mov	eax, DWORD PTR ?gEngfuncs@@3Ucl_enginefuncs_s@@A+328
	mov	ecx, DWORD PTR [eax+8]
	call	ecx
	add	esp, 4

; 362  : 	gEngfuncs.pTriAPI->TexCoord2f( 0.0f, 1.0f ); gEngfuncs.pTriAPI->Vertex3f( Lensx[i] + scale[i], Lensy[i] + scale[i], 0 ); //top left

	push	ecx
	movss	xmm0, DWORD PTR __real@3f800000
	movss	DWORD PTR [esp], xmm0
	push	ecx
	xorps	xmm0, xmm0
	movss	DWORD PTR [esp], xmm0
	mov	eax, DWORD PTR ?gEngfuncs@@3Ucl_enginefuncs_s@@A+328
	mov	ecx, DWORD PTR [eax+24]
	call	ecx
	add	esp, 8
	push	ecx
	xorps	xmm0, xmm0
	movss	DWORD PTR [esp], xmm0
	mov	eax, DWORD PTR _i$[ebp]
	mov	ecx, DWORD PTR _this$[ebp]
	cvtsi2ss xmm0, DWORD PTR [ecx+eax*4+108]
	mov	edx, DWORD PTR _i$[ebp]
	mov	eax, DWORD PTR _this$[ebp]
	addss	xmm0, DWORD PTR [eax+edx*4+320]
	push	ecx
	movss	DWORD PTR [esp], xmm0
	mov	ecx, DWORD PTR _i$[ebp]
	mov	edx, DWORD PTR _this$[ebp]
	cvtsi2ss xmm0, DWORD PTR [edx+ecx*4+108]
	mov	eax, DWORD PTR _i$[ebp]
	mov	ecx, DWORD PTR _this$[ebp]
	addss	xmm0, DWORD PTR [ecx+eax*4+280]
	push	ecx
	movss	DWORD PTR [esp], xmm0
	mov	edx, DWORD PTR ?gEngfuncs@@3Ucl_enginefuncs_s@@A+328
	mov	eax, DWORD PTR [edx+32]
	call	eax
	add	esp, 12					; 0000000cH

; 363  : 	gEngfuncs.pTriAPI->TexCoord2f( 0.0f, 0.0f ); gEngfuncs.pTriAPI->Vertex3f( Lensx[i] + scale[i], Lensy[i] - scale[i], 0 ); //bottom left

	push	ecx
	xorps	xmm0, xmm0
	movss	DWORD PTR [esp], xmm0
	push	ecx
	xorps	xmm0, xmm0
	movss	DWORD PTR [esp], xmm0
	mov	eax, DWORD PTR ?gEngfuncs@@3Ucl_enginefuncs_s@@A+328
	mov	ecx, DWORD PTR [eax+24]
	call	ecx
	add	esp, 8
	push	ecx
	xorps	xmm0, xmm0
	movss	DWORD PTR [esp], xmm0
	mov	eax, DWORD PTR _i$[ebp]
	mov	ecx, DWORD PTR _this$[ebp]
	cvtsi2ss xmm0, DWORD PTR [ecx+eax*4+108]
	mov	edx, DWORD PTR _i$[ebp]
	mov	eax, DWORD PTR _this$[ebp]
	movss	xmm1, DWORD PTR [eax+edx*4+320]
	subss	xmm1, xmm0
	push	ecx
	movss	DWORD PTR [esp], xmm1
	mov	ecx, DWORD PTR _i$[ebp]
	mov	edx, DWORD PTR _this$[ebp]
	cvtsi2ss xmm0, DWORD PTR [edx+ecx*4+108]
	mov	eax, DWORD PTR _i$[ebp]
	mov	ecx, DWORD PTR _this$[ebp]
	addss	xmm0, DWORD PTR [ecx+eax*4+280]
	push	ecx
	movss	DWORD PTR [esp], xmm0
	mov	edx, DWORD PTR ?gEngfuncs@@3Ucl_enginefuncs_s@@A+328
	mov	eax, DWORD PTR [edx+32]
	call	eax
	add	esp, 12					; 0000000cH

; 364  : 	gEngfuncs.pTriAPI->TexCoord2f( 1.0f, 0.0f ); gEngfuncs.pTriAPI->Vertex3f( Lensx[i] - scale[i], Lensy[i] - scale[i], 0 ); //bottom right

	push	ecx
	xorps	xmm0, xmm0
	movss	DWORD PTR [esp], xmm0
	push	ecx
	movss	xmm0, DWORD PTR __real@3f800000
	movss	DWORD PTR [esp], xmm0
	mov	eax, DWORD PTR ?gEngfuncs@@3Ucl_enginefuncs_s@@A+328
	mov	ecx, DWORD PTR [eax+24]
	call	ecx
	add	esp, 8
	push	ecx
	xorps	xmm0, xmm0
	movss	DWORD PTR [esp], xmm0
	mov	eax, DWORD PTR _i$[ebp]
	mov	ecx, DWORD PTR _this$[ebp]
	cvtsi2ss xmm0, DWORD PTR [ecx+eax*4+108]
	mov	edx, DWORD PTR _i$[ebp]
	mov	eax, DWORD PTR _this$[ebp]
	movss	xmm1, DWORD PTR [eax+edx*4+320]
	subss	xmm1, xmm0
	push	ecx
	movss	DWORD PTR [esp], xmm1
	mov	ecx, DWORD PTR _i$[ebp]
	mov	edx, DWORD PTR _this$[ebp]
	cvtsi2ss xmm0, DWORD PTR [edx+ecx*4+108]
	mov	eax, DWORD PTR _i$[ebp]
	mov	ecx, DWORD PTR _this$[ebp]
	movss	xmm1, DWORD PTR [ecx+eax*4+280]
	subss	xmm1, xmm0
	push	ecx
	movss	DWORD PTR [esp], xmm1
	mov	edx, DWORD PTR ?gEngfuncs@@3Ucl_enginefuncs_s@@A+328
	mov	eax, DWORD PTR [edx+32]
	call	eax
	add	esp, 12					; 0000000cH

; 365  : 	gEngfuncs.pTriAPI->TexCoord2f( 1.0f, 1.0f ); gEngfuncs.pTriAPI->Vertex3f( Lensx[i] - scale[i], Lensy[i] + scale[i], 0 ); //top right

	push	ecx
	movss	xmm0, DWORD PTR __real@3f800000
	movss	DWORD PTR [esp], xmm0
	push	ecx
	movss	xmm0, DWORD PTR __real@3f800000
	movss	DWORD PTR [esp], xmm0
	mov	eax, DWORD PTR ?gEngfuncs@@3Ucl_enginefuncs_s@@A+328
	mov	ecx, DWORD PTR [eax+24]
	call	ecx
	add	esp, 8
	push	ecx
	xorps	xmm0, xmm0
	movss	DWORD PTR [esp], xmm0
	mov	eax, DWORD PTR _i$[ebp]
	mov	ecx, DWORD PTR _this$[ebp]
	cvtsi2ss xmm0, DWORD PTR [ecx+eax*4+108]
	mov	edx, DWORD PTR _i$[ebp]
	mov	eax, DWORD PTR _this$[ebp]
	addss	xmm0, DWORD PTR [eax+edx*4+320]
	push	ecx
	movss	DWORD PTR [esp], xmm0
	mov	ecx, DWORD PTR _i$[ebp]
	mov	edx, DWORD PTR _this$[ebp]
	cvtsi2ss xmm0, DWORD PTR [edx+ecx*4+108]
	mov	eax, DWORD PTR _i$[ebp]
	mov	ecx, DWORD PTR _this$[ebp]
	movss	xmm1, DWORD PTR [ecx+eax*4+280]
	subss	xmm1, xmm0
	push	ecx
	movss	DWORD PTR [esp], xmm1
	mov	edx, DWORD PTR ?gEngfuncs@@3Ucl_enginefuncs_s@@A+328
	mov	eax, DWORD PTR [edx+32]
	call	eax
	add	esp, 12					; 0000000cH

; 366  : 	gEngfuncs.pTriAPI->End(); //end our list of vertexes

	mov	eax, DWORD PTR ?gEngfuncs@@3Ucl_enginefuncs_s@@A+328
	mov	ecx, DWORD PTR [eax+12]
	call	ecx

; 367  : 	gEngfuncs.pTriAPI->RenderMode( kRenderNormal );

	push	0
	mov	eax, DWORD PTR ?gEngfuncs@@3Ucl_enginefuncs_s@@A+328
	mov	ecx, DWORD PTR [eax+4]
	call	ecx
	add	esp, 4

; 368  : 
; 369  : 	i++;

	mov	eax, DWORD PTR _i$[ebp]
	add	eax, 1
	mov	DWORD PTR _i$[ebp], eax

; 370  : 	int scale1 = 32;

	mov	DWORD PTR _scale1$[ebp], 32		; 00000020H

; 371  : 	int Lensx1, Lensy1 = 0;

	mov	DWORD PTR _Lensy1$[ebp], 0

; 372  : 	Lensx1 = (Suncoordx + (Sundistx * 0.88));

	mov	eax, DWORD PTR _this$[ebp]
	cvtss2sd xmm0, DWORD PTR [eax+360]
	mov	ecx, DWORD PTR _this$[ebp]
	cvtss2sd xmm1, DWORD PTR [ecx+368]
	mulsd	xmm1, QWORD PTR __real@3fec28f5c28f5c29
	addsd	xmm0, xmm1
	cvttsd2si edx, xmm0
	mov	DWORD PTR _Lensx1$[ebp], edx

; 373  : 	Lensy1 = (Suncoordy + (Sundisty * 0.88));

	mov	eax, DWORD PTR _this$[ebp]
	cvtss2sd xmm0, DWORD PTR [eax+364]
	mov	ecx, DWORD PTR _this$[ebp]
	cvtss2sd xmm1, DWORD PTR [ecx+372]
	mulsd	xmm1, QWORD PTR __real@3fec28f5c28f5c29
	addsd	xmm0, xmm1
	cvttsd2si edx, xmm0
	mov	DWORD PTR _Lensy1$[ebp], edx

; 374  : 	gEngfuncs.pTriAPI->RenderMode( kRenderTransAdd ); //additive

	push	5
	mov	eax, DWORD PTR ?gEngfuncs@@3Ucl_enginefuncs_s@@A+328
	mov	ecx, DWORD PTR [eax+4]
	call	ecx
	add	esp, 4

; 375  : 	gEngfuncs.pTriAPI->SpriteTexture( (struct model_s *)gEngfuncs.GetSpritePointer( text[i] ), 0 ); //hotglow, or any other sprite for the texture

	push	0
	mov	eax, DWORD PTR _this$[ebp]
	add	eax, DWORD PTR _i$[ebp]
	movsx	ecx, BYTE PTR [eax+268]
	push	ecx
	call	DWORD PTR ?gEngfuncs@@3Ucl_enginefuncs_s@@A+248
	add	esp, 4
	push	eax
	mov	edx, DWORD PTR ?gEngfuncs@@3Ucl_enginefuncs_s@@A+328
	mov	eax, DWORD PTR [edx+44]
	call	eax
	add	esp, 8

; 376  : 	gEngfuncs.pTriAPI->CullFace( TRI_NONE ); //no culling

	push	1
	mov	eax, DWORD PTR ?gEngfuncs@@3Ucl_enginefuncs_s@@A+328
	mov	ecx, DWORD PTR [eax+40]
	call	ecx
	add	esp, 4

; 377  : 	gEngfuncs.pTriAPI->Color4f( 0.9, 0.9, 0.9, flPlayerBlend2 / 255.0 );

	mov	eax, DWORD PTR _this$[ebp]
	cvtss2sd xmm0, DWORD PTR [eax+40]
	divsd	xmm0, QWORD PTR __real@406fe00000000000
	cvtsd2ss xmm0, xmm0
	push	ecx
	movss	DWORD PTR [esp], xmm0
	push	ecx
	movss	xmm0, DWORD PTR __real@3f666666
	movss	DWORD PTR [esp], xmm0
	push	ecx
	movss	xmm0, DWORD PTR __real@3f666666
	movss	DWORD PTR [esp], xmm0
	push	ecx
	movss	xmm0, DWORD PTR __real@3f666666
	movss	DWORD PTR [esp], xmm0
	mov	ecx, DWORD PTR ?gEngfuncs@@3Ucl_enginefuncs_s@@A+328
	mov	edx, DWORD PTR [ecx+16]
	call	edx
	add	esp, 16					; 00000010H

; 378  : 	gEngfuncs.pTriAPI->Brightness( flPlayerBlend2 / 255.0 );

	mov	eax, DWORD PTR _this$[ebp]
	cvtss2sd xmm0, DWORD PTR [eax+40]
	divsd	xmm0, QWORD PTR __real@406fe00000000000
	cvtsd2ss xmm0, xmm0
	push	ecx
	movss	DWORD PTR [esp], xmm0
	mov	ecx, DWORD PTR ?gEngfuncs@@3Ucl_enginefuncs_s@@A+328
	mov	edx, DWORD PTR [ecx+36]
	call	edx
	add	esp, 4

; 379  : 	gEngfuncs.pTriAPI->Begin( TRI_QUADS ); //start our quad

	push	2
	mov	eax, DWORD PTR ?gEngfuncs@@3Ucl_enginefuncs_s@@A+328
	mov	ecx, DWORD PTR [eax+8]
	call	ecx
	add	esp, 4

; 380  : 	gEngfuncs.pTriAPI->TexCoord2f( 0.0f, 1.0f ); gEngfuncs.pTriAPI->Vertex3f( Lensx1 + scale1, Lensy1 + scale1, 0 ); //top left

	push	ecx
	movss	xmm0, DWORD PTR __real@3f800000
	movss	DWORD PTR [esp], xmm0
	push	ecx
	xorps	xmm0, xmm0
	movss	DWORD PTR [esp], xmm0
	mov	eax, DWORD PTR ?gEngfuncs@@3Ucl_enginefuncs_s@@A+328
	mov	ecx, DWORD PTR [eax+24]
	call	ecx
	add	esp, 8
	push	ecx
	xorps	xmm0, xmm0
	movss	DWORD PTR [esp], xmm0
	mov	eax, DWORD PTR _Lensy1$[ebp]
	add	eax, DWORD PTR _scale1$[ebp]
	cvtsi2ss xmm0, eax
	push	ecx
	movss	DWORD PTR [esp], xmm0
	mov	ecx, DWORD PTR _Lensx1$[ebp]
	add	ecx, DWORD PTR _scale1$[ebp]
	cvtsi2ss xmm0, ecx
	push	ecx
	movss	DWORD PTR [esp], xmm0
	mov	edx, DWORD PTR ?gEngfuncs@@3Ucl_enginefuncs_s@@A+328
	mov	eax, DWORD PTR [edx+32]
	call	eax
	add	esp, 12					; 0000000cH

; 381  : 	gEngfuncs.pTriAPI->TexCoord2f( 0.0f, 0.0f ); gEngfuncs.pTriAPI->Vertex3f( Lensx1 + scale1, Lensy1 - scale1, 0 ); //bottom left

	push	ecx
	xorps	xmm0, xmm0
	movss	DWORD PTR [esp], xmm0
	push	ecx
	xorps	xmm0, xmm0
	movss	DWORD PTR [esp], xmm0
	mov	eax, DWORD PTR ?gEngfuncs@@3Ucl_enginefuncs_s@@A+328
	mov	ecx, DWORD PTR [eax+24]
	call	ecx
	add	esp, 8
	push	ecx
	xorps	xmm0, xmm0
	movss	DWORD PTR [esp], xmm0
	mov	eax, DWORD PTR _Lensy1$[ebp]
	sub	eax, DWORD PTR _scale1$[ebp]
	cvtsi2ss xmm0, eax
	push	ecx
	movss	DWORD PTR [esp], xmm0
	mov	ecx, DWORD PTR _Lensx1$[ebp]
	add	ecx, DWORD PTR _scale1$[ebp]
	cvtsi2ss xmm0, ecx
	push	ecx
	movss	DWORD PTR [esp], xmm0
	mov	edx, DWORD PTR ?gEngfuncs@@3Ucl_enginefuncs_s@@A+328
	mov	eax, DWORD PTR [edx+32]
	call	eax
	add	esp, 12					; 0000000cH

; 382  : 	gEngfuncs.pTriAPI->TexCoord2f( 1.0f, 0.0f ); gEngfuncs.pTriAPI->Vertex3f( Lensx1 - scale1, Lensy1 - scale1, 0 ); //bottom right

	push	ecx
	xorps	xmm0, xmm0
	movss	DWORD PTR [esp], xmm0
	push	ecx
	movss	xmm0, DWORD PTR __real@3f800000
	movss	DWORD PTR [esp], xmm0
	mov	eax, DWORD PTR ?gEngfuncs@@3Ucl_enginefuncs_s@@A+328
	mov	ecx, DWORD PTR [eax+24]
	call	ecx
	add	esp, 8
	push	ecx
	xorps	xmm0, xmm0
	movss	DWORD PTR [esp], xmm0
	mov	eax, DWORD PTR _Lensy1$[ebp]
	sub	eax, DWORD PTR _scale1$[ebp]
	cvtsi2ss xmm0, eax
	push	ecx
	movss	DWORD PTR [esp], xmm0
	mov	ecx, DWORD PTR _Lensx1$[ebp]
	sub	ecx, DWORD PTR _scale1$[ebp]
	cvtsi2ss xmm0, ecx
	push	ecx
	movss	DWORD PTR [esp], xmm0
	mov	edx, DWORD PTR ?gEngfuncs@@3Ucl_enginefuncs_s@@A+328
	mov	eax, DWORD PTR [edx+32]
	call	eax
	add	esp, 12					; 0000000cH

; 383  : 	gEngfuncs.pTriAPI->TexCoord2f( 1.0f, 1.0f ); gEngfuncs.pTriAPI->Vertex3f( Lensx1 - scale1, Lensy1 + scale1, 0 ); //top right

	push	ecx
	movss	xmm0, DWORD PTR __real@3f800000
	movss	DWORD PTR [esp], xmm0
	push	ecx
	movss	xmm0, DWORD PTR __real@3f800000
	movss	DWORD PTR [esp], xmm0
	mov	eax, DWORD PTR ?gEngfuncs@@3Ucl_enginefuncs_s@@A+328
	mov	ecx, DWORD PTR [eax+24]
	call	ecx
	add	esp, 8
	push	ecx
	xorps	xmm0, xmm0
	movss	DWORD PTR [esp], xmm0
	mov	eax, DWORD PTR _Lensy1$[ebp]
	add	eax, DWORD PTR _scale1$[ebp]
	cvtsi2ss xmm0, eax
	push	ecx
	movss	DWORD PTR [esp], xmm0
	mov	ecx, DWORD PTR _Lensx1$[ebp]
	sub	ecx, DWORD PTR _scale1$[ebp]
	cvtsi2ss xmm0, ecx
	push	ecx
	movss	DWORD PTR [esp], xmm0
	mov	edx, DWORD PTR ?gEngfuncs@@3Ucl_enginefuncs_s@@A+328
	mov	eax, DWORD PTR [edx+32]
	call	eax
	add	esp, 12					; 0000000cH

; 384  : 	gEngfuncs.pTriAPI->End(); //end our list of vertexes

	mov	eax, DWORD PTR ?gEngfuncs@@3Ucl_enginefuncs_s@@A+328
	mov	ecx, DWORD PTR [eax+12]
	call	ecx

; 385  : 	gEngfuncs.pTriAPI->RenderMode( kRenderNormal );

	push	0
	mov	eax, DWORD PTR ?gEngfuncs@@3Ucl_enginefuncs_s@@A+328
	mov	ecx, DWORD PTR [eax+4]
	call	ecx
	add	esp, 4

; 386  : 
; 387  : 	i++;

	mov	eax, DWORD PTR _i$[ebp]
	add	eax, 1
	mov	DWORD PTR _i$[ebp], eax

; 388  : 	scale1 = 140;

	mov	DWORD PTR _scale1$[ebp], 140		; 0000008cH

; 389  : 	Lensx1 = (Suncoordx + (Sundistx * 1.1));

	mov	eax, DWORD PTR _this$[ebp]
	cvtss2sd xmm0, DWORD PTR [eax+360]
	mov	ecx, DWORD PTR _this$[ebp]
	cvtss2sd xmm1, DWORD PTR [ecx+368]
	mulsd	xmm1, QWORD PTR __real@3ff199999999999a
	addsd	xmm0, xmm1
	cvttsd2si edx, xmm0
	mov	DWORD PTR _Lensx1$[ebp], edx

; 390  : 	Lensy1 = (Suncoordy + (Sundisty * 1.1));

	mov	eax, DWORD PTR _this$[ebp]
	cvtss2sd xmm0, DWORD PTR [eax+364]
	mov	ecx, DWORD PTR _this$[ebp]
	cvtss2sd xmm1, DWORD PTR [ecx+372]
	mulsd	xmm1, QWORD PTR __real@3ff199999999999a
	addsd	xmm0, xmm1
	cvttsd2si edx, xmm0
	mov	DWORD PTR _Lensy1$[ebp], edx

; 391  : 	gEngfuncs.pTriAPI->RenderMode( kRenderTransAdd ); //additive

	push	5
	mov	eax, DWORD PTR ?gEngfuncs@@3Ucl_enginefuncs_s@@A+328
	mov	ecx, DWORD PTR [eax+4]
	call	ecx
	add	esp, 4

; 392  : 	gEngfuncs.pTriAPI->SpriteTexture( (struct model_s *)gEngfuncs.GetSpritePointer( text[i] ), 0 ); //hotglow, or any other sprite for the texture

	push	0
	mov	eax, DWORD PTR _this$[ebp]
	add	eax, DWORD PTR _i$[ebp]
	movsx	ecx, BYTE PTR [eax+268]
	push	ecx
	call	DWORD PTR ?gEngfuncs@@3Ucl_enginefuncs_s@@A+248
	add	esp, 4
	push	eax
	mov	edx, DWORD PTR ?gEngfuncs@@3Ucl_enginefuncs_s@@A+328
	mov	eax, DWORD PTR [edx+44]
	call	eax
	add	esp, 8

; 393  : 	gEngfuncs.pTriAPI->CullFace( TRI_NONE ); //no culling

	push	1
	mov	eax, DWORD PTR ?gEngfuncs@@3Ucl_enginefuncs_s@@A+328
	mov	ecx, DWORD PTR [eax+40]
	call	ecx
	add	esp, 4

; 394  : 	gEngfuncs.pTriAPI->Color4f( 0.9, 0.9, 0.9, flPlayerBlend2 / 255.0 );

	mov	eax, DWORD PTR _this$[ebp]
	cvtss2sd xmm0, DWORD PTR [eax+40]
	divsd	xmm0, QWORD PTR __real@406fe00000000000
	cvtsd2ss xmm0, xmm0
	push	ecx
	movss	DWORD PTR [esp], xmm0
	push	ecx
	movss	xmm0, DWORD PTR __real@3f666666
	movss	DWORD PTR [esp], xmm0
	push	ecx
	movss	xmm0, DWORD PTR __real@3f666666
	movss	DWORD PTR [esp], xmm0
	push	ecx
	movss	xmm0, DWORD PTR __real@3f666666
	movss	DWORD PTR [esp], xmm0
	mov	ecx, DWORD PTR ?gEngfuncs@@3Ucl_enginefuncs_s@@A+328
	mov	edx, DWORD PTR [ecx+16]
	call	edx
	add	esp, 16					; 00000010H

; 395  : 	gEngfuncs.pTriAPI->Brightness( flPlayerBlend2 / 255.0 );

	mov	eax, DWORD PTR _this$[ebp]
	cvtss2sd xmm0, DWORD PTR [eax+40]
	divsd	xmm0, QWORD PTR __real@406fe00000000000
	cvtsd2ss xmm0, xmm0
	push	ecx
	movss	DWORD PTR [esp], xmm0
	mov	ecx, DWORD PTR ?gEngfuncs@@3Ucl_enginefuncs_s@@A+328
	mov	edx, DWORD PTR [ecx+36]
	call	edx
	add	esp, 4

; 396  : 	gEngfuncs.pTriAPI->Begin( TRI_QUADS ); //start our quad

	push	2
	mov	eax, DWORD PTR ?gEngfuncs@@3Ucl_enginefuncs_s@@A+328
	mov	ecx, DWORD PTR [eax+8]
	call	ecx
	add	esp, 4

; 397  : 	gEngfuncs.pTriAPI->TexCoord2f( 0.0f, 1.0f ); gEngfuncs.pTriAPI->Vertex3f( Lensx1 + scale1, Lensy1 + scale1, 0 ); //top left

	push	ecx
	movss	xmm0, DWORD PTR __real@3f800000
	movss	DWORD PTR [esp], xmm0
	push	ecx
	xorps	xmm0, xmm0
	movss	DWORD PTR [esp], xmm0
	mov	eax, DWORD PTR ?gEngfuncs@@3Ucl_enginefuncs_s@@A+328
	mov	ecx, DWORD PTR [eax+24]
	call	ecx
	add	esp, 8
	push	ecx
	xorps	xmm0, xmm0
	movss	DWORD PTR [esp], xmm0
	mov	eax, DWORD PTR _Lensy1$[ebp]
	add	eax, DWORD PTR _scale1$[ebp]
	cvtsi2ss xmm0, eax
	push	ecx
	movss	DWORD PTR [esp], xmm0
	mov	ecx, DWORD PTR _Lensx1$[ebp]
	add	ecx, DWORD PTR _scale1$[ebp]
	cvtsi2ss xmm0, ecx
	push	ecx
	movss	DWORD PTR [esp], xmm0
	mov	edx, DWORD PTR ?gEngfuncs@@3Ucl_enginefuncs_s@@A+328
	mov	eax, DWORD PTR [edx+32]
	call	eax
	add	esp, 12					; 0000000cH

; 398  : 	gEngfuncs.pTriAPI->TexCoord2f( 0.0f, 0.0f ); gEngfuncs.pTriAPI->Vertex3f( Lensx1 + scale1, Lensy1 - scale1, 0 ); //bottom left

	push	ecx
	xorps	xmm0, xmm0
	movss	DWORD PTR [esp], xmm0
	push	ecx
	xorps	xmm0, xmm0
	movss	DWORD PTR [esp], xmm0
	mov	eax, DWORD PTR ?gEngfuncs@@3Ucl_enginefuncs_s@@A+328
	mov	ecx, DWORD PTR [eax+24]
	call	ecx
	add	esp, 8
	push	ecx
	xorps	xmm0, xmm0
	movss	DWORD PTR [esp], xmm0
	mov	eax, DWORD PTR _Lensy1$[ebp]
	sub	eax, DWORD PTR _scale1$[ebp]
	cvtsi2ss xmm0, eax
	push	ecx
	movss	DWORD PTR [esp], xmm0
	mov	ecx, DWORD PTR _Lensx1$[ebp]
	add	ecx, DWORD PTR _scale1$[ebp]
	cvtsi2ss xmm0, ecx
	push	ecx
	movss	DWORD PTR [esp], xmm0
	mov	edx, DWORD PTR ?gEngfuncs@@3Ucl_enginefuncs_s@@A+328
	mov	eax, DWORD PTR [edx+32]
	call	eax
	add	esp, 12					; 0000000cH

; 399  : 	gEngfuncs.pTriAPI->TexCoord2f( 1.0f, 0.0f ); gEngfuncs.pTriAPI->Vertex3f( Lensx1 - scale1, Lensy1 - scale1, 0 ); //bottom right

	push	ecx
	xorps	xmm0, xmm0
	movss	DWORD PTR [esp], xmm0
	push	ecx
	movss	xmm0, DWORD PTR __real@3f800000
	movss	DWORD PTR [esp], xmm0
	mov	eax, DWORD PTR ?gEngfuncs@@3Ucl_enginefuncs_s@@A+328
	mov	ecx, DWORD PTR [eax+24]
	call	ecx
	add	esp, 8
	push	ecx
	xorps	xmm0, xmm0
	movss	DWORD PTR [esp], xmm0
	mov	eax, DWORD PTR _Lensy1$[ebp]
	sub	eax, DWORD PTR _scale1$[ebp]
	cvtsi2ss xmm0, eax
	push	ecx
	movss	DWORD PTR [esp], xmm0
	mov	ecx, DWORD PTR _Lensx1$[ebp]
	sub	ecx, DWORD PTR _scale1$[ebp]
	cvtsi2ss xmm0, ecx
	push	ecx
	movss	DWORD PTR [esp], xmm0
	mov	edx, DWORD PTR ?gEngfuncs@@3Ucl_enginefuncs_s@@A+328
	mov	eax, DWORD PTR [edx+32]
	call	eax
	add	esp, 12					; 0000000cH

; 400  : 	gEngfuncs.pTriAPI->TexCoord2f( 1.0f, 1.0f ); gEngfuncs.pTriAPI->Vertex3f( Lensx1 - scale1, Lensy1 + scale1, 0 ); //top right

	push	ecx
	movss	xmm0, DWORD PTR __real@3f800000
	movss	DWORD PTR [esp], xmm0
	push	ecx
	movss	xmm0, DWORD PTR __real@3f800000
	movss	DWORD PTR [esp], xmm0
	mov	eax, DWORD PTR ?gEngfuncs@@3Ucl_enginefuncs_s@@A+328
	mov	ecx, DWORD PTR [eax+24]
	call	ecx
	add	esp, 8
	push	ecx
	xorps	xmm0, xmm0
	movss	DWORD PTR [esp], xmm0
	mov	eax, DWORD PTR _Lensy1$[ebp]
	add	eax, DWORD PTR _scale1$[ebp]
	cvtsi2ss xmm0, eax
	push	ecx
	movss	DWORD PTR [esp], xmm0
	mov	ecx, DWORD PTR _Lensx1$[ebp]
	sub	ecx, DWORD PTR _scale1$[ebp]
	cvtsi2ss xmm0, ecx
	push	ecx
	movss	DWORD PTR [esp], xmm0
	mov	edx, DWORD PTR ?gEngfuncs@@3Ucl_enginefuncs_s@@A+328
	mov	eax, DWORD PTR [edx+32]
	call	eax
	add	esp, 12					; 0000000cH

; 401  : 	gEngfuncs.pTriAPI->End(); //end our list of vertexes

	mov	eax, DWORD PTR ?gEngfuncs@@3Ucl_enginefuncs_s@@A+328
	mov	ecx, DWORD PTR [eax+12]
	call	ecx

; 402  : 	gEngfuncs.pTriAPI->RenderMode( kRenderNormal );

	push	0
	mov	eax, DWORD PTR ?gEngfuncs@@3Ucl_enginefuncs_s@@A+328
	mov	ecx, DWORD PTR [eax+4]
	call	ecx
	add	esp, 4

; 403  : 
; 404  : 	return 1;

	mov	eax, 1
$LN1@Draw:

; 405  : }

	pop	edi
	pop	esi
	pop	ebx
	mov	esp, ebp
	pop	ebp
	ret	4
?Draw@CHudLensflare@@UAEHM@Z ENDP			; CHudLensflare::Draw
_TEXT	ENDS
; Function compile flags: /Odtp /ZI
; File d:\!diffusion 2020\source code 2022\client-server\client\lensflare.cpp
;	COMDAT ?VidInit@CHudLensflare@@UAEHXZ
_TEXT	SEGMENT
_this$ = -4						; size = 4
?VidInit@CHudLensflare@@UAEHXZ PROC			; CHudLensflare::VidInit, COMDAT
; _this$ = ecx

; 21   : {

	push	ebp
	mov	ebp, esp
	sub	esp, 68					; 00000044H
	push	ebx
	push	esi
	push	edi
	mov	DWORD PTR _this$[ebp], ecx

; 22   : 	SunFlareTexture = LOAD_TEXTURE( "sprites/lens/sunflare.dds", NULL, 0, 0 );

	push	0
	push	0
	push	0
	push	OFFSET ??_C@_0BK@CGAJLPHM@sprites?1lens?1sunflare?4dds?$AA@
	call	DWORD PTR ?gRenderfuncs@@3Urender_api_s@@A+60
	add	esp, 16					; 00000010H
	mov	DWORD PTR ?SunFlareTexture@@3HA, eax	; SunFlareTexture

; 23   : 	return 1;

	mov	eax, 1

; 24   : }

	pop	edi
	pop	esi
	pop	ebx
	mov	esp, ebp
	pop	ebp
	ret	0
?VidInit@CHudLensflare@@UAEHXZ ENDP			; CHudLensflare::VidInit
_TEXT	ENDS
; Function compile flags: /Odtp /ZI
; File d:\!diffusion 2020\source code 2022\client-server\client\lensflare.cpp
;	COMDAT ?Init@CHudLensflare@@UAEHXZ
_TEXT	SEGMENT
_this$ = -4						; size = 4
?Init@CHudLensflare@@UAEHXZ PROC			; CHudLensflare::Init, COMDAT
; _this$ = ecx

; 13   : {

	push	ebp
	mov	ebp, esp
	sub	esp, 68					; 00000044H
	push	ebx
	push	esi
	push	edi
	mov	DWORD PTR _this$[ebp], ecx

; 14   : 	m_iFlags |= HUD_ACTIVE;

	mov	eax, DWORD PTR _this$[ebp]
	mov	ecx, DWORD PTR [eax+4]
	or	ecx, 1
	mov	edx, DWORD PTR _this$[ebp]
	mov	DWORD PTR [edx+4], ecx

; 15   : 	gHUD.AddHudElem( this );

	mov	eax, DWORD PTR _this$[ebp]
	push	eax
	mov	ecx, OFFSET ?gHUD@@3VCHud@@A		; gHUD
	call	?AddHudElem@CHud@@QAEXPAVCHudBase@@@Z	; CHud::AddHudElem

; 16   : 	BlendMult = 0.0f;

	mov	eax, DWORD PTR _this$[ebp]
	xorps	xmm0, xmm0
	movss	DWORD PTR [eax+376], xmm0

; 17   : 	return 1;

	mov	eax, 1

; 18   : }

	pop	edi
	pop	esi
	pop	ebx
	mov	esp, ebp
	pop	ebp
	ret	0
?Init@CHudLensflare@@UAEHXZ ENDP			; CHudLensflare::Init
_TEXT	ENDS
; Function compile flags: /Odtp /ZI
; File d:\!diffusion 2020\source code 2022\client-server\game_shared\vector.h
;	COMDAT ?DotProduct@@YAMABVVector@@0@Z
_TEXT	SEGMENT
tv86 = -68						; size = 4
_a$ = 8							; size = 4
_b$ = 12						; size = 4
?DotProduct@@YAMABVVector@@0@Z PROC			; DotProduct, COMDAT

; 308  : inline float DotProduct(const Vector& a, const Vector& b ) { return( a.x * b.x + a.y * b.y + a.z * b.z ); }

	push	ebp
	mov	ebp, esp
	sub	esp, 68					; 00000044H
	push	ebx
	push	esi
	push	edi
	mov	eax, DWORD PTR _a$[ebp]
	mov	ecx, DWORD PTR _b$[ebp]
	movss	xmm0, DWORD PTR [eax]
	mulss	xmm0, DWORD PTR [ecx]
	mov	edx, DWORD PTR _a$[ebp]
	mov	eax, DWORD PTR _b$[ebp]
	movss	xmm1, DWORD PTR [edx+4]
	mulss	xmm1, DWORD PTR [eax+4]
	addss	xmm0, xmm1
	mov	ecx, DWORD PTR _a$[ebp]
	mov	edx, DWORD PTR _b$[ebp]
	movss	xmm1, DWORD PTR [ecx+8]
	mulss	xmm1, DWORD PTR [edx+8]
	addss	xmm0, xmm1
	movss	DWORD PTR tv86[ebp], xmm0
	fld	DWORD PTR tv86[ebp]
	pop	edi
	pop	esi
	pop	ebx
	mov	esp, ebp
	pop	ebp
	ret	0
?DotProduct@@YAMABVVector@@0@Z ENDP			; DotProduct
_TEXT	ENDS
; Function compile flags: /Odtp /ZI
; File d:\!diffusion 2020\source code 2022\client-server\game_shared\vector.h
;	COMDAT ??BVector@@QAEPAMXZ
_TEXT	SEGMENT
_this$ = -4						; size = 4
??BVector@@QAEPAMXZ PROC				; Vector::operator float *, COMDAT
; _this$ = ecx

; 247  : 	operator float *()				{ return &x; } // Vectors will now automatically convert to float * when needed

	push	ebp
	mov	ebp, esp
	sub	esp, 68					; 00000044H
	push	ebx
	push	esi
	push	edi
	mov	DWORD PTR _this$[ebp], ecx
	mov	eax, DWORD PTR _this$[ebp]
	pop	edi
	pop	esi
	pop	ebx
	mov	esp, ebp
	pop	ebp
	ret	0
??BVector@@QAEPAMXZ ENDP				; Vector::operator float *
_TEXT	ENDS
; Function compile flags: /Odtp /ZI
; File d:\!diffusion 2020\source code 2022\client-server\game_shared\vector.h
;	COMDAT ?Length@Vector@@QBEMXZ
_TEXT	SEGMENT
tv91 = -72						; size = 4
_this$ = -4						; size = 4
?Length@Vector@@QBEMXZ PROC				; Vector::Length, COMDAT
; _this$ = ecx

; 245  : 	inline float Length(void) const		{ return sqrt( x*x + y*y + z*z ); }

	push	ebp
	mov	ebp, esp
	sub	esp, 72					; 00000048H
	push	ebx
	push	esi
	push	edi
	mov	DWORD PTR _this$[ebp], ecx
	mov	eax, DWORD PTR _this$[ebp]
	mov	ecx, DWORD PTR _this$[ebp]
	movss	xmm0, DWORD PTR [eax]
	mulss	xmm0, DWORD PTR [ecx]
	mov	edx, DWORD PTR _this$[ebp]
	mov	eax, DWORD PTR _this$[ebp]
	movss	xmm1, DWORD PTR [edx+4]
	mulss	xmm1, DWORD PTR [eax+4]
	addss	xmm0, xmm1
	mov	ecx, DWORD PTR _this$[ebp]
	mov	edx, DWORD PTR _this$[ebp]
	movss	xmm1, DWORD PTR [ecx+8]
	mulss	xmm1, DWORD PTR [edx+8]
	addss	xmm0, xmm1
	cvtss2sd xmm0, xmm0
	sub	esp, 8
	movsd	QWORD PTR [esp], xmm0
	call	_sqrt
	add	esp, 8
	fstp	DWORD PTR tv91[ebp]
	fld	DWORD PTR tv91[ebp]
	pop	edi
	pop	esi
	pop	ebx
	mov	esp, ebp
	pop	ebp
	ret	0
?Length@Vector@@QBEMXZ ENDP				; Vector::Length
_TEXT	ENDS
; Function compile flags: /Odtp /ZI
; File d:\!diffusion 2020\source code 2022\client-server\game_shared\vector.h
;	COMDAT ??DVector@@QBE?AV0@M@Z
_TEXT	SEGMENT
_this$ = -4						; size = 4
___$ReturnUdt$ = 8					; size = 4
_fl$ = 12						; size = 4
??DVector@@QBE?AV0@M@Z PROC				; Vector::operator*, COMDAT
; _this$ = ecx

; 162  : 	inline Vector operator*(float fl) const		{ return Vector(x*fl, y*fl, z*fl);	   }

	push	ebp
	mov	ebp, esp
	sub	esp, 68					; 00000044H
	push	ebx
	push	esi
	push	edi
	mov	DWORD PTR _this$[ebp], ecx
	mov	eax, DWORD PTR _this$[ebp]
	movss	xmm0, DWORD PTR [eax+8]
	mulss	xmm0, DWORD PTR _fl$[ebp]
	push	ecx
	movss	DWORD PTR [esp], xmm0
	mov	ecx, DWORD PTR _this$[ebp]
	movss	xmm0, DWORD PTR [ecx+4]
	mulss	xmm0, DWORD PTR _fl$[ebp]
	push	ecx
	movss	DWORD PTR [esp], xmm0
	mov	edx, DWORD PTR _this$[ebp]
	movss	xmm0, DWORD PTR [edx]
	mulss	xmm0, DWORD PTR _fl$[ebp]
	push	ecx
	movss	DWORD PTR [esp], xmm0
	mov	ecx, DWORD PTR ___$ReturnUdt$[ebp]
	call	??0Vector@@QAE@MMM@Z			; Vector::Vector
	mov	eax, DWORD PTR ___$ReturnUdt$[ebp]
	pop	edi
	pop	esi
	pop	ebx
	mov	esp, ebp
	pop	ebp
	ret	8
??DVector@@QBE?AV0@M@Z ENDP				; Vector::operator*
_TEXT	ENDS
; Function compile flags: /Odtp /ZI
; File d:\!diffusion 2020\source code 2022\client-server\game_shared\vector.h
;	COMDAT ??GVector@@QBE?AV0@ABV0@@Z
_TEXT	SEGMENT
_this$ = -4						; size = 4
___$ReturnUdt$ = 8					; size = 4
_v$ = 12						; size = 4
??GVector@@QBE?AV0@ABV0@@Z PROC				; Vector::operator-, COMDAT
; _this$ = ecx

; 159  : 	inline Vector operator-(const Vector& v) const	{ return Vector(x-v.x, y-v.y, z-v.z);	   }

	push	ebp
	mov	ebp, esp
	sub	esp, 68					; 00000044H
	push	ebx
	push	esi
	push	edi
	mov	DWORD PTR _this$[ebp], ecx
	mov	eax, DWORD PTR _this$[ebp]
	mov	ecx, DWORD PTR _v$[ebp]
	movss	xmm0, DWORD PTR [eax+8]
	subss	xmm0, DWORD PTR [ecx+8]
	push	ecx
	movss	DWORD PTR [esp], xmm0
	mov	edx, DWORD PTR _this$[ebp]
	mov	eax, DWORD PTR _v$[ebp]
	movss	xmm0, DWORD PTR [edx+4]
	subss	xmm0, DWORD PTR [eax+4]
	push	ecx
	movss	DWORD PTR [esp], xmm0
	mov	ecx, DWORD PTR _this$[ebp]
	mov	edx, DWORD PTR _v$[ebp]
	movss	xmm0, DWORD PTR [ecx]
	subss	xmm0, DWORD PTR [edx]
	push	ecx
	movss	DWORD PTR [esp], xmm0
	mov	ecx, DWORD PTR ___$ReturnUdt$[ebp]
	call	??0Vector@@QAE@MMM@Z			; Vector::Vector
	mov	eax, DWORD PTR ___$ReturnUdt$[ebp]
	pop	edi
	pop	esi
	pop	ebx
	mov	esp, ebp
	pop	ebp
	ret	8
??GVector@@QBE?AV0@ABV0@@Z ENDP				; Vector::operator-
_TEXT	ENDS
; Function compile flags: /Odtp /ZI
; File d:\!diffusion 2020\source code 2022\client-server\game_shared\vector.h
;	COMDAT ??HVector@@QBE?AV0@ABV0@@Z
_TEXT	SEGMENT
_this$ = -4						; size = 4
___$ReturnUdt$ = 8					; size = 4
_v$ = 12						; size = 4
??HVector@@QBE?AV0@ABV0@@Z PROC				; Vector::operator+, COMDAT
; _this$ = ecx

; 158  : 	inline Vector operator+(const Vector& v) const	{ return Vector(x+v.x, y+v.y, z+v.z);	   }

	push	ebp
	mov	ebp, esp
	sub	esp, 68					; 00000044H
	push	ebx
	push	esi
	push	edi
	mov	DWORD PTR _this$[ebp], ecx
	mov	eax, DWORD PTR _this$[ebp]
	mov	ecx, DWORD PTR _v$[ebp]
	movss	xmm0, DWORD PTR [eax+8]
	addss	xmm0, DWORD PTR [ecx+8]
	push	ecx
	movss	DWORD PTR [esp], xmm0
	mov	edx, DWORD PTR _this$[ebp]
	mov	eax, DWORD PTR _v$[ebp]
	movss	xmm0, DWORD PTR [edx+4]
	addss	xmm0, DWORD PTR [eax+4]
	push	ecx
	movss	DWORD PTR [esp], xmm0
	mov	ecx, DWORD PTR _this$[ebp]
	mov	edx, DWORD PTR _v$[ebp]
	movss	xmm0, DWORD PTR [ecx]
	addss	xmm0, DWORD PTR [edx]
	push	ecx
	movss	DWORD PTR [esp], xmm0
	mov	ecx, DWORD PTR ___$ReturnUdt$[ebp]
	call	??0Vector@@QAE@MMM@Z			; Vector::Vector
	mov	eax, DWORD PTR ___$ReturnUdt$[ebp]
	pop	edi
	pop	esi
	pop	ebx
	mov	esp, ebp
	pop	ebp
	ret	8
??HVector@@QBE?AV0@ABV0@@Z ENDP				; Vector::operator+
_TEXT	ENDS
; Function compile flags: /Odtp /ZI
; File d:\!diffusion 2020\source code 2022\client-server\game_shared\vector.h
;	COMDAT ??GVector@@QBE?AV0@XZ
_TEXT	SEGMENT
_this$ = -4						; size = 4
___$ReturnUdt$ = 8					; size = 4
??GVector@@QBE?AV0@XZ PROC				; Vector::operator-, COMDAT
; _this$ = ecx

; 155  : 	inline Vector operator-(void) const		{ return Vector(-x,-y,-z);		   }

	push	ebp
	mov	ebp, esp
	sub	esp, 68					; 00000044H
	push	ebx
	push	esi
	push	edi
	mov	DWORD PTR _this$[ebp], ecx
	mov	eax, DWORD PTR _this$[ebp]
	movss	xmm0, DWORD PTR [eax+8]
	xorps	xmm0, DWORD PTR __xmm@80000000800000008000000080000000
	push	ecx
	movss	DWORD PTR [esp], xmm0
	mov	ecx, DWORD PTR _this$[ebp]
	movss	xmm0, DWORD PTR [ecx+4]
	xorps	xmm0, DWORD PTR __xmm@80000000800000008000000080000000
	push	ecx
	movss	DWORD PTR [esp], xmm0
	mov	edx, DWORD PTR _this$[ebp]
	movss	xmm0, DWORD PTR [edx]
	xorps	xmm0, DWORD PTR __xmm@80000000800000008000000080000000
	push	ecx
	movss	DWORD PTR [esp], xmm0
	mov	ecx, DWORD PTR ___$ReturnUdt$[ebp]
	call	??0Vector@@QAE@MMM@Z			; Vector::Vector
	mov	eax, DWORD PTR ___$ReturnUdt$[ebp]
	pop	edi
	pop	esi
	pop	ebx
	mov	esp, ebp
	pop	ebp
	ret	4
??GVector@@QBE?AV0@XZ ENDP				; Vector::operator-
_TEXT	ENDS
; Function compile flags: /Odtp /ZI
; File d:\!diffusion 2020\source code 2022\client-server\game_shared\vector.h
;	COMDAT ??0Vector@@QAE@ABV0@@Z
_TEXT	SEGMENT
_this$ = -4						; size = 4
_v$ = 8							; size = 4
??0Vector@@QAE@ABV0@@Z PROC				; Vector::Vector, COMDAT
; _this$ = ecx

; 145  : 	inline Vector(const Vector& v)		{ x = v.x; y = v.y; z = v.z;		   }

	push	ebp
	mov	ebp, esp
	sub	esp, 68					; 00000044H
	push	ebx
	push	esi
	push	edi
	mov	DWORD PTR _this$[ebp], ecx
	mov	eax, DWORD PTR _this$[ebp]
	mov	ecx, DWORD PTR _v$[ebp]
	mov	edx, DWORD PTR [ecx]
	mov	DWORD PTR [eax], edx
	mov	eax, DWORD PTR _this$[ebp]
	mov	ecx, DWORD PTR _v$[ebp]
	mov	edx, DWORD PTR [ecx+4]
	mov	DWORD PTR [eax+4], edx
	mov	eax, DWORD PTR _this$[ebp]
	mov	ecx, DWORD PTR _v$[ebp]
	mov	edx, DWORD PTR [ecx+8]
	mov	DWORD PTR [eax+8], edx
	mov	eax, DWORD PTR _this$[ebp]
	pop	edi
	pop	esi
	pop	ebx
	mov	esp, ebp
	pop	ebp
	ret	4
??0Vector@@QAE@ABV0@@Z ENDP				; Vector::Vector
_TEXT	ENDS
; Function compile flags: /Odtp /ZI
; File d:\!diffusion 2020\source code 2022\client-server\game_shared\vector.h
;	COMDAT ??0Vector@@QAE@MMM@Z
_TEXT	SEGMENT
_this$ = -4						; size = 4
_X$ = 8							; size = 4
_Y$ = 12						; size = 4
_Z$ = 16						; size = 4
??0Vector@@QAE@MMM@Z PROC				; Vector::Vector, COMDAT
; _this$ = ecx

; 144  : 	inline Vector(float X, float Y, float Z)	{ x = X; y = Y; z = Z;                     }

	push	ebp
	mov	ebp, esp
	sub	esp, 68					; 00000044H
	push	ebx
	push	esi
	push	edi
	mov	DWORD PTR _this$[ebp], ecx
	mov	eax, DWORD PTR _this$[ebp]
	movss	xmm0, DWORD PTR _X$[ebp]
	movss	DWORD PTR [eax], xmm0
	mov	eax, DWORD PTR _this$[ebp]
	movss	xmm0, DWORD PTR _Y$[ebp]
	movss	DWORD PTR [eax+4], xmm0
	mov	eax, DWORD PTR _this$[ebp]
	movss	xmm0, DWORD PTR _Z$[ebp]
	movss	DWORD PTR [eax+8], xmm0
	mov	eax, DWORD PTR _this$[ebp]
	pop	edi
	pop	esi
	pop	ebx
	mov	esp, ebp
	pop	ebp
	ret	12					; 0000000cH
??0Vector@@QAE@MMM@Z ENDP				; Vector::Vector
_TEXT	ENDS
; Function compile flags: /Odtp /ZI
; File d:\!diffusion 2020\source code 2022\client-server\game_shared\vector.h
;	COMDAT ??0Vector@@QAE@XZ
_TEXT	SEGMENT
_this$ = -4						; size = 4
??0Vector@@QAE@XZ PROC					; Vector::Vector, COMDAT
; _this$ = ecx

; 143  : 	inline Vector(void)				{ }

	push	ebp
	mov	ebp, esp
	sub	esp, 68					; 00000044H
	push	ebx
	push	esi
	push	edi
	mov	DWORD PTR _this$[ebp], ecx
	mov	eax, DWORD PTR _this$[ebp]
	pop	edi
	pop	esi
	pop	ebx
	mov	esp, ebp
	pop	ebp
	ret	0
??0Vector@@QAE@XZ ENDP					; Vector::Vector
_TEXT	ENDS
; Function compile flags: /Odtp /ZI
;	COMDAT ??__G@YGXPAX0IIP6EPAX00@Z@Z
_TEXT	SEGMENT
tv66 = -68						; size = 4
___t$ = 8						; size = 4
___u$ = 12						; size = 4
___s$ = 16						; size = 4
___n$ = 20						; size = 4
___f$ = 24						; size = 4
??__G@YGXPAX0IIP6EPAX00@Z@Z PROC			; `vector copy constructor iterator', COMDAT
	push	ebp
	mov	ebp, esp
	sub	esp, 68					; 00000044H
	push	ebx
	push	esi
	push	edi
$LN2@vector:
	mov	eax, DWORD PTR ___n$[ebp]
	mov	DWORD PTR tv66[ebp], eax
	mov	ecx, DWORD PTR ___n$[ebp]
	sub	ecx, 1
	mov	DWORD PTR ___n$[ebp], ecx
	cmp	DWORD PTR tv66[ebp], 0
	jbe	SHORT $LN1@vector
	mov	eax, DWORD PTR ___u$[ebp]
	push	eax
	mov	ecx, DWORD PTR ___t$[ebp]
	call	DWORD PTR ___f$[ebp]
	mov	eax, DWORD PTR ___t$[ebp]
	add	eax, DWORD PTR ___s$[ebp]
	mov	DWORD PTR ___t$[ebp], eax
	mov	eax, DWORD PTR ___u$[ebp]
	add	eax, DWORD PTR ___s$[ebp]
	mov	DWORD PTR ___u$[ebp], eax
	jmp	SHORT $LN2@vector
$LN1@vector:
	pop	edi
	pop	esi
	pop	ebx
	mov	esp, ebp
	pop	ebp
	ret	20					; 00000014H
??__G@YGXPAX0IIP6EPAX00@Z@Z ENDP			; `vector copy constructor iterator'
_TEXT	ENDS
; Function compile flags: /Odtp /ZI
;	COMDAT ??_H@YGXPAXIIP6EPAX0@Z@Z
_TEXT	SEGMENT
tv66 = -68						; size = 4
___t$ = 8						; size = 4
___s$ = 12						; size = 4
___n$ = 16						; size = 4
___f$ = 20						; size = 4
??_H@YGXPAXIIP6EPAX0@Z@Z PROC				; `vector constructor iterator', COMDAT
	push	ebp
	mov	ebp, esp
	sub	esp, 68					; 00000044H
	push	ebx
	push	esi
	push	edi
$LN2@vector:
	mov	eax, DWORD PTR ___n$[ebp]
	mov	DWORD PTR tv66[ebp], eax
	mov	ecx, DWORD PTR ___n$[ebp]
	sub	ecx, 1
	mov	DWORD PTR ___n$[ebp], ecx
	cmp	DWORD PTR tv66[ebp], 0
	jbe	SHORT $LN1@vector
	mov	ecx, DWORD PTR ___t$[ebp]
	call	DWORD PTR ___f$[ebp]
	mov	eax, DWORD PTR ___t$[ebp]
	add	eax, DWORD PTR ___s$[ebp]
	mov	DWORD PTR ___t$[ebp], eax
	jmp	SHORT $LN2@vector
$LN1@vector:
	pop	edi
	pop	esi
	pop	ebx
	mov	esp, ebp
	pop	ebp
	ret	16					; 00000010H
??_H@YGXPAXIIP6EPAX0@Z@Z ENDP				; `vector constructor iterator'
_TEXT	ENDS
END
