; Listing generated by Microsoft (R) Optimizing Compiler Version 19.00.24247.2 

	TITLE	D:\!DIFFUSION 2020\source code 2022\client-server\game_shared\mathlib.cpp
	.686P
	.XMM
	include listing.inc
	.model	flat

INCLUDELIB LIBCMT
INCLUDELIB OLDNAMES

PUBLIC	??_H@YGXPAXIIP6EPAX0@Z@Z			; `vector constructor iterator'
PUBLIC	??__G@YGXPAX0IIP6EPAX00@Z@Z			; `vector copy constructor iterator'
PUBLIC	_fmodf
PUBLIC	?SinCos@@YAXMPAM0@Z				; SinCos
PUBLIC	??BVector2D@@QAEPAMXZ				; Vector2D::operator float *
PUBLIC	??BVector2D@@QBEPBMXZ				; Vector2D::operator float const *
PUBLIC	??0Vector@@QAE@XZ				; Vector::Vector
PUBLIC	??0Vector@@QAE@MMM@Z				; Vector::Vector
PUBLIC	??0Vector@@QAE@ABV0@@Z				; Vector::Vector
PUBLIC	??0Vector@@QAE@QAM@Z				; Vector::Vector
PUBLIC	?Init@Vector@@QAEXMMM@Z				; Vector::Init
PUBLIC	??HVector@@QBE?AV0@ABV0@@Z			; Vector::operator+
PUBLIC	??GVector@@QBE?AV0@ABV0@@Z			; Vector::operator-
PUBLIC	??DVector@@QBE?AV0@M@Z				; Vector::operator*
PUBLIC	??YVector@@QAEAAV0@ABV0@@Z			; Vector::operator+=
PUBLIC	??XVector@@QAEAAV0@M@Z				; Vector::operator*=
PUBLIC	?Length@Vector@@QBEMXZ				; Vector::Length
PUBLIC	??BVector@@QAEPAMXZ				; Vector::operator float *
PUBLIC	??BVector@@QBEPBMXZ				; Vector::operator float const *
PUBLIC	?Normalize@Vector@@QBE?AV1@XZ			; Vector::Normalize
PUBLIC	??D@YA?AVVector@@MABV0@@Z			; operator*
PUBLIC	?DotProduct@@YAMABVVector@@0@Z			; DotProduct
PUBLIC	?DotProductAbs@@YAMABVVector@@0@Z		; DotProductAbs
PUBLIC	?CrossProduct@@YA?AVVector@@ABV1@0@Z		; CrossProduct
PUBLIC	??0Vector4D@@QAE@XZ				; Vector4D::Vector4D
PUBLIC	??0Vector4D@@QAE@MMMM@Z				; Vector4D::Vector4D
PUBLIC	??0Vector4D@@QAE@ABV0@@Z			; Vector4D::Vector4D
PUBLIC	??BVector4D@@QAEPAMXZ				; Vector4D::operator float *
PUBLIC	??BVector4D@@QBEPBMXZ				; Vector4D::operator float const *
PUBLIC	??BVector4D@@QBE?BVVector@@XZ			; Vector4D::operator Vector const 
PUBLIC	?Length@Vector4D@@QBEMXZ			; Vector4D::Length
PUBLIC	?Normalize@Vector4D@@QBE?AV1@XZ			; Vector4D::Normalize
PUBLIC	??HVector4D@@QBE?AV0@ABV0@@Z			; Vector4D::operator+
PUBLIC	??0Radian@@QAE@MMM@Z				; Radian::Radian
PUBLIC	??BRadian@@QBEPBMXZ				; Radian::operator float const *
PUBLIC	?AngleQuaternion@@YAXABVRadian@@AAVVector4D@@@Z	; AngleQuaternion
PUBLIC	?QuaternionAngle@@YAXABVVector4D@@AAVRadian@@@Z	; QuaternionAngle
PUBLIC	??0matrix3x3@@QAE@ABVVector4D@@@Z		; matrix3x3::matrix3x3
PUBLIC	?GetAngles@matrix3x3@@QAE?AVVector@@XZ		; matrix3x3::GetAngles
PUBLIC	?GetAngles@matrix3x3@@QAEXAAVVector@@@Z		; matrix3x3::GetAngles
PUBLIC	?GetAngles@matrix3x3@@QAEXAAVRadian@@@Z		; matrix3x3::GetAngles
PUBLIC	??0matrix4x4@@QAE@MMMMMMMMMMMMMMMM@Z		; matrix4x4::matrix4x4
PUBLIC	??Amatrix4x4@@QAEPAMH@Z				; matrix4x4::operator[]
PUBLIC	?GetForward@matrix4x4@@QBE?AVVector@@XZ		; matrix4x4::GetForward
PUBLIC	?GetRight@matrix4x4@@QBE?AVVector@@XZ		; matrix4x4::GetRight
PUBLIC	?GetUp@matrix4x4@@QBE?AVVector@@XZ		; matrix4x4::GetUp
PUBLIC	?Transpose@matrix4x4@@QBE?AV1@XZ		; matrix4x4::Transpose
PUBLIC	?TransformAABB@@YAXABVmatrix4x4@@ABVVector@@1AAV2@2@Z ; TransformAABB
PUBLIC	?TransformAABBLocal@@YAXABVmatrix4x4@@ABVVector@@1AAV2@2@Z ; TransformAABBLocal
PUBLIC	?CalcClosestPointOnAABB@@YAXABVVector@@00AAV1@@Z ; CalcClosestPointOnAABB
PUBLIC	?PlanesGetIntersectionPoint@@YA_NPBUmplane_s@@00AAVVector@@@Z ; PlanesGetIntersectionPoint
PUBLIC	?PlaneIntersect@@YA?AVVector@@PAUmplane_s@@ABV1@1@Z ; PlaneIntersect
PUBLIC	?VectorAngles@@YAXABVVector@@AAV1@@Z		; VectorAngles
PUBLIC	?RotatePointAroundVector@@YAXAAVVector@@ABV1@1M@Z ; RotatePointAroundVector
PUBLIC	?CalcTBN@@YAXABVVector@@00ABVVector2D@@11AAV1@2_N@Z ; CalcTBN
PUBLIC	?PlaneTypeForNormal@@YAHABVVector@@@Z		; PlaneTypeForNormal
PUBLIC	?SignbitsForPlane@@YAHABVVector@@@Z		; SignbitsForPlane
PUBLIC	?NearestPOW@@YAHH_N@Z				; NearestPOW
PUBLIC	?SetPlane@@YAXPAUmplane_s@@ABVVector@@M@Z	; SetPlane
PUBLIC	?ClearBounds@@YAXAAVVector@@0@Z			; ClearBounds
PUBLIC	?ClearBounds@@YAXAAVVector2D@@0@Z		; ClearBounds
PUBLIC	?BoundsIsCleared@@YA_NABVVector@@0@Z		; BoundsIsCleared
PUBLIC	?ExpandBounds@@YAXAAVVector@@0M@Z		; ExpandBounds
PUBLIC	?AddPointToBounds@@YAXABVVector@@AAV1@1M@Z	; AddPointToBounds
PUBLIC	?AddPointToBounds@@YAXABVVector2D@@AAV1@1@Z	; AddPointToBounds
PUBLIC	?BoundsIntersect@@YA_NABVVector@@000@Z		; BoundsIntersect
PUBLIC	?BoundsIntersect@@YA_NABVVector2D@@000@Z	; BoundsIntersect
PUBLIC	?BoundsAndSphereIntersect@@YA_NABVVector@@00M@Z	; BoundsAndSphereIntersect
PUBLIC	?BoundsAndSphereIntersect@@YA_NABVVector2D@@00M@Z ; BoundsAndSphereIntersect
PUBLIC	?PointInBounds@@YA_NABVVector@@00@Z		; PointInBounds
PUBLIC	?RadiusFromBounds@@YAMABVVector@@0@Z		; RadiusFromBounds
PUBLIC	?BoundsIsNull@@YA_NABVVector@@0@Z		; BoundsIsNull
PUBLIC	?AngleQuaternion@@YAXABVVector@@AAVVector4D@@@Z	; AngleQuaternion
PUBLIC	?AxisAngleQuaternion@@YAXABVVector@@MAAVVector4D@@@Z ; AxisAngleQuaternion
PUBLIC	?QuaternionAngle@@YAXABVVector4D@@AAVVector@@@Z	; QuaternionAngle
PUBLIC	?QuaternionAlign@@YAXABVVector4D@@0AAV1@@Z	; QuaternionAlign
PUBLIC	?QuaternionSlerp@@YAXABVVector4D@@0MAAV1@@Z	; QuaternionSlerp
PUBLIC	?QuaternionSlerp@@YAXABVRadian@@0MAAV1@@Z	; QuaternionSlerp
PUBLIC	?QuaternionBlend@@YAXABVVector4D@@0MAAV1@@Z	; QuaternionBlend
PUBLIC	?QuaternionSlerpNoAlign@@YAXABVVector4D@@0MAAV1@@Z ; QuaternionSlerpNoAlign
PUBLIC	?QuaternionBlendNoAlign@@YAXABVVector4D@@0MAAV1@@Z ; QuaternionBlendNoAlign
PUBLIC	?QuaternionMultiply@@YAXABVVector4D@@0AAV1@@Z	; QuaternionMultiply
PUBLIC	?QuaternionVectorTransform@@YAXABVVector4D@@ABVVector@@AAV2@@Z ; QuaternionVectorTransform
PUBLIC	?QuaternionConcatTransforms@@YAXABVVector4D@@ABVVector@@01AAV1@AAV2@@Z ; QuaternionConcatTransforms
PUBLIC	?QuaternionSM@@YAXMABVVector4D@@0AAV1@@Z	; QuaternionSM
PUBLIC	?QuaternionMA@@YAXABVVector4D@@M0AAV1@@Z	; QuaternionMA
PUBLIC	?QuaternionAccumulate@@YAXABVVector4D@@M0AAV1@@Z ; QuaternionAccumulate
PUBLIC	?QuaternionMult@@YAXABVVector4D@@0AAV1@@Z	; QuaternionMult
PUBLIC	?QuaternionAdd@@YAXABVVector4D@@0AAV1@@Z	; QuaternionAdd
PUBLIC	?QuaternionAngleDiff@@YAMABVVector4D@@0@Z	; QuaternionAngleDiff
PUBLIC	?QuaternionScale@@YAXABVVector4D@@MAAV1@@Z	; QuaternionScale
PUBLIC	?QuaternionConjugate@@YAXABVVector4D@@AAV1@@Z	; QuaternionConjugate
PUBLIC	?InterpolateOrigin@@YAXABVVector@@0AAV1@M_N@Z	; InterpolateOrigin
PUBLIC	?InterpolateAngles@@YAXABVVector@@0AAV1@M_N@Z	; InterpolateAngles
PUBLIC	?NormalizeAngles@@YAXAAVVector@@@Z		; NormalizeAngles
PUBLIC	?VectorMatrix@@YAXAAVVector@@00@Z		; VectorMatrix
PUBLIC	?ColorNormalize@@YAMABVVector@@AAV1@@Z		; ColorNormalize
PUBLIC	?SolveQuadratic@@YA_NMMMAAM0@Z			; SolveQuadratic
PUBLIC	?SolveInverseQuadratic@@YA_NMMMMMMAAM00@Z	; SolveInverseQuadratic
PUBLIC	?PlaneFromPoints@@YA_NQBVVector@@PAUmplane_s@@@Z ; PlaneFromPoints
PUBLIC	?ComparePlanes@@YA_NPAUmplane_s@@ABVVector@@M@Z	; ComparePlanes
PUBLIC	?VectorCompareEpsilon@@YA_NABVVector@@0M@Z	; VectorCompareEpsilon
PUBLIC	?RadianCompareEpsilon@@YA_NABVRadian@@0M@Z	; RadianCompareEpsilon
PUBLIC	?CategorizePlane@@YAXPAUmplane_s@@@Z		; CategorizePlane
PUBLIC	?SnapPlaneToGrid@@YAXPAUmplane_s@@@Z		; SnapPlaneToGrid
PUBLIC	?SnapVectorToGrid@@YAXAAVVector@@@Z		; SnapVectorToGrid
PUBLIC	?AngleDiff@@YAMMM@Z				; AngleDiff
PUBLIC	?AngleNormalize@@YAMM@Z				; AngleNormalize
PUBLIC	?BoxOnPlaneSide@@YAHABVVector@@0PBUmplane_s@@@Z	; BoxOnPlaneSide
PUBLIC	?VectorYawRotate@@YA?AVVector@@ABV1@M@Z		; VectorYawRotate
PUBLIC	?FloatToHalf@@YAGM@Z				; FloatToHalf
PUBLIC	?HalfToFloat@@YAMG@Z				; HalfToFloat
PUBLIC	?AngleBetweenVectors@@YAMVVector@@0@Z		; AngleBetweenVectors
PUBLIC	?AngleVectors@@YAXVVector@@V1@11@Z		; AngleVectors
PUBLIC	?g_vecZero@@3VVector@@B				; g_vecZero
PUBLIC	?g_radZero@@3VRadian@@B				; g_radZero
PUBLIC	__real@00000000
PUBLIC	__real@0000000000000000
PUBLIC	__real@34000000
PUBLIC	__real@358637bd
PUBLIC	__real@3a83126f
PUBLIC	__real@3c8efa35
PUBLIC	__real@3d719799812dea11
PUBLIC	__real@3f000000
PUBLIC	__real@3f1a36e2e0000000
PUBLIC	__real@3f800000
PUBLIC	__real@3f91df46a2529d39
PUBLIC	__real@3fa47ae140000000
PUBLIC	__real@3ff0000000000000
PUBLIC	__real@3ff921fb54442d18
PUBLIC	__real@40000000
PUBLIC	__real@4000000000000000
PUBLIC	__real@400921fb54442d18
PUBLIC	__real@401921fb54442d18
PUBLIC	__real@401921fb60000000
PUBLIC	__real@40800000
PUBLIC	__real@42652ee1
PUBLIC	__real@42b40000
PUBLIC	__real@43340000
PUBLIC	__real@43870000
PUBLIC	__real@43b40000
PUBLIC	__real@497423f0
PUBLIC	__real@bf800000
PUBLIC	__real@c3340000
PUBLIC	__real@c97423f0
PUBLIC	__xmm@80000000800000008000000080000000
EXTRN	_acos:PROC
EXTRN	_asin:PROC
EXTRN	_atan2:PROC
EXTRN	_cos:PROC
EXTRN	_fabs:PROC
EXTRN	_fmod:PROC
EXTRN	_sin:PROC
EXTRN	_sqrt:PROC
EXTRN	?VectorTransform@matrix4x4@@QBE?AVVector@@ABV2@@Z:PROC ; matrix4x4::VectorTransform
EXTRN	?Invert@matrix4x4@@QBE?AV1@XZ:PROC		; matrix4x4::Invert
EXTRN	@__security_check_cookie@4:PROC
EXTRN	___security_cookie:DWORD
EXTRN	__fltused:DWORD
_BSS	SEGMENT
?g_vecZero@@3VVector@@B DB 0cH DUP (?)			; g_vecZero
?g_radZero@@3VRadian@@B DB 0cH DUP (?)			; g_radZero
_BSS	ENDS
CRT$XCU	SEGMENT
?g_vecZero$initializer$@@3P6AXXZA DD FLAT:??__Eg_vecZero@@YAXXZ ; g_vecZero$initializer$
CRT$XCU	ENDS
;	COMDAT __xmm@80000000800000008000000080000000
CONST	SEGMENT
__xmm@80000000800000008000000080000000 DB 00H, 00H, 00H, 080H, 00H, 00H, 00H
	DB	080H, 00H, 00H, 00H, 080H, 00H, 00H, 00H, 080H
CONST	ENDS
;	COMDAT __real@c97423f0
CONST	SEGMENT
__real@c97423f0 DD 0c97423f0r			; -999999
CONST	ENDS
;	COMDAT __real@c3340000
CONST	SEGMENT
__real@c3340000 DD 0c3340000r			; -180
CONST	ENDS
;	COMDAT __real@bf800000
CONST	SEGMENT
__real@bf800000 DD 0bf800000r			; -1
CONST	ENDS
;	COMDAT __real@497423f0
CONST	SEGMENT
__real@497423f0 DD 0497423f0r			; 999999
CONST	ENDS
;	COMDAT __real@43b40000
CONST	SEGMENT
__real@43b40000 DD 043b40000r			; 360
CONST	ENDS
;	COMDAT __real@43870000
CONST	SEGMENT
__real@43870000 DD 043870000r			; 270
CONST	ENDS
;	COMDAT __real@43340000
CONST	SEGMENT
__real@43340000 DD 043340000r			; 180
CONST	ENDS
;	COMDAT __real@42b40000
CONST	SEGMENT
__real@42b40000 DD 042b40000r			; 90
CONST	ENDS
;	COMDAT __real@42652ee1
CONST	SEGMENT
__real@42652ee1 DD 042652ee1r			; 57.2958
CONST	ENDS
;	COMDAT __real@40800000
CONST	SEGMENT
__real@40800000 DD 040800000r			; 4
CONST	ENDS
;	COMDAT __real@401921fb60000000
CONST	SEGMENT
__real@401921fb60000000 DQ 0401921fb60000000r	; 6.28319
CONST	ENDS
;	COMDAT __real@401921fb54442d18
CONST	SEGMENT
__real@401921fb54442d18 DQ 0401921fb54442d18r	; 6.28319
CONST	ENDS
;	COMDAT __real@400921fb54442d18
CONST	SEGMENT
__real@400921fb54442d18 DQ 0400921fb54442d18r	; 3.14159
CONST	ENDS
;	COMDAT __real@4000000000000000
CONST	SEGMENT
__real@4000000000000000 DQ 04000000000000000r	; 2
CONST	ENDS
;	COMDAT __real@40000000
CONST	SEGMENT
__real@40000000 DD 040000000r			; 2
CONST	ENDS
;	COMDAT __real@3ff921fb54442d18
CONST	SEGMENT
__real@3ff921fb54442d18 DQ 03ff921fb54442d18r	; 1.5708
CONST	ENDS
;	COMDAT __real@3ff0000000000000
CONST	SEGMENT
__real@3ff0000000000000 DQ 03ff0000000000000r	; 1
CONST	ENDS
;	COMDAT __real@3fa47ae140000000
CONST	SEGMENT
__real@3fa47ae140000000 DQ 03fa47ae140000000r	; 0.04
CONST	ENDS
;	COMDAT __real@3f91df46a2529d39
CONST	SEGMENT
__real@3f91df46a2529d39 DQ 03f91df46a2529d39r	; 0.0174533
CONST	ENDS
;	COMDAT __real@3f800000
CONST	SEGMENT
__real@3f800000 DD 03f800000r			; 1
CONST	ENDS
;	COMDAT __real@3f1a36e2e0000000
CONST	SEGMENT
__real@3f1a36e2e0000000 DQ 03f1a36e2e0000000r	; 0.0001
CONST	ENDS
;	COMDAT __real@3f000000
CONST	SEGMENT
__real@3f000000 DD 03f000000r			; 0.5
CONST	ENDS
;	COMDAT __real@3d719799812dea11
CONST	SEGMENT
__real@3d719799812dea11 DQ 03d719799812dea11r	; 1e-12
CONST	ENDS
;	COMDAT __real@3c8efa35
CONST	SEGMENT
__real@3c8efa35 DD 03c8efa35r			; 0.0174533
CONST	ENDS
;	COMDAT __real@3a83126f
CONST	SEGMENT
__real@3a83126f DD 03a83126fr			; 0.001
CONST	ENDS
;	COMDAT __real@358637bd
CONST	SEGMENT
__real@358637bd DD 0358637bdr			; 1e-06
CONST	ENDS
;	COMDAT __real@34000000
CONST	SEGMENT
__real@34000000 DD 034000000r			; 1.19209e-07
CONST	ENDS
;	COMDAT __real@0000000000000000
CONST	SEGMENT
__real@0000000000000000 DQ 00000000000000000r	; 0
CONST	ENDS
;	COMDAT __real@00000000
CONST	SEGMENT
__real@00000000 DD 000000000r			; 0
CONST	ENDS
CRT$XCU	SEGMENT
?g_radZero$initializer$@@3P6AXXZA DD FLAT:??__Eg_radZero@@YAXXZ ; g_radZero$initializer$
CRT$XCU	ENDS
; Function compile flags: /Odtp /ZI
; File d:\!diffusion 2020\source code 2022\client-server\game_shared\mathlib.cpp
;	COMDAT ?AngleVectors@@YAXVVector@@V1@11@Z
_TEXT	SEGMENT
tv298 = -96						; size = 4
tv296 = -96						; size = 4
tv294 = -96						; size = 4
tv292 = -96						; size = 4
tv290 = -96						; size = 4
tv288 = -96						; size = 4
tv286 = -96						; size = 4
tv284 = -96						; size = 4
tv282 = -96						; size = 4
_cy$ = -28						; size = 4
_cp$ = -24						; size = 4
_cr$ = -20						; size = 4
_sy$ = -16						; size = 4
_sp$ = -12						; size = 4
_sr$ = -8						; size = 4
_angle$ = -4						; size = 4
_angles$ = 8						; size = 12
_forward$ = 20						; size = 12
_right$ = 32						; size = 12
_up$ = 44						; size = 12
?AngleVectors@@YAXVVector@@V1@11@Z PROC			; AngleVectors, COMDAT

; 1424 : {

	push	ebp
	mov	ebp, esp
	sub	esp, 96					; 00000060H
	push	ebx
	push	esi
	push	edi

; 1425 : 	float		angle;
; 1426 : 	float		sr, sp, sy, cr, cp, cy;
; 1427 : 	
; 1428 : 	angle = angles[YAW] * (M_PI*2 / 360);

	lea	ecx, DWORD PTR _angles$[ebp]
	call	??BVector@@QBEPBMXZ			; Vector::operator float const *
	mov	ecx, 4
	shl	ecx, 0
	cvtss2sd xmm0, DWORD PTR [eax+ecx]
	mulsd	xmm0, QWORD PTR __real@3f91df46a2529d39
	cvtsd2ss xmm0, xmm0
	movss	DWORD PTR _angle$[ebp], xmm0

; 1429 : 	sy = sin(angle);

	cvtss2sd xmm0, DWORD PTR _angle$[ebp]
	sub	esp, 8
	movsd	QWORD PTR [esp], xmm0
	call	_sin
	add	esp, 8
	fstp	DWORD PTR _sy$[ebp]

; 1430 : 	cy = cos(angle);

	cvtss2sd xmm0, DWORD PTR _angle$[ebp]
	sub	esp, 8
	movsd	QWORD PTR [esp], xmm0
	call	_cos
	add	esp, 8
	fstp	DWORD PTR _cy$[ebp]

; 1431 : 	angle = angles[PITCH] * (M_PI*2 / 360);

	lea	ecx, DWORD PTR _angles$[ebp]
	call	??BVector@@QBEPBMXZ			; Vector::operator float const *
	mov	ecx, 4
	imul	edx, ecx, 0
	cvtss2sd xmm0, DWORD PTR [eax+edx]
	mulsd	xmm0, QWORD PTR __real@3f91df46a2529d39
	cvtsd2ss xmm0, xmm0
	movss	DWORD PTR _angle$[ebp], xmm0

; 1432 : 	sp = sin(angle);

	cvtss2sd xmm0, DWORD PTR _angle$[ebp]
	sub	esp, 8
	movsd	QWORD PTR [esp], xmm0
	call	_sin
	add	esp, 8
	fstp	DWORD PTR _sp$[ebp]

; 1433 : 	cp = cos(angle);

	cvtss2sd xmm0, DWORD PTR _angle$[ebp]
	sub	esp, 8
	movsd	QWORD PTR [esp], xmm0
	call	_cos
	add	esp, 8
	fstp	DWORD PTR _cp$[ebp]

; 1434 : 	angle = angles[ROLL] * (M_PI*2 / 360);

	lea	ecx, DWORD PTR _angles$[ebp]
	call	??BVector@@QBEPBMXZ			; Vector::operator float const *
	mov	ecx, 4
	shl	ecx, 1
	cvtss2sd xmm0, DWORD PTR [eax+ecx]
	mulsd	xmm0, QWORD PTR __real@3f91df46a2529d39
	cvtsd2ss xmm0, xmm0
	movss	DWORD PTR _angle$[ebp], xmm0

; 1435 : 	sr = sin(angle);

	cvtss2sd xmm0, DWORD PTR _angle$[ebp]
	sub	esp, 8
	movsd	QWORD PTR [esp], xmm0
	call	_sin
	add	esp, 8
	fstp	DWORD PTR _sr$[ebp]

; 1436 : 	cr = cos(angle);

	cvtss2sd xmm0, DWORD PTR _angle$[ebp]
	sub	esp, 8
	movsd	QWORD PTR [esp], xmm0
	call	_cos
	add	esp, 8
	fstp	DWORD PTR _cr$[ebp]

; 1437 : 
; 1438 : 	if (forward)

	lea	ecx, DWORD PTR _forward$[ebp]
	call	??BVector@@QAEPAMXZ			; Vector::operator float *
	test	eax, eax
	je	SHORT $LN2@AngleVecto

; 1439 : 	{
; 1440 : 		forward[0] = cp*cy;

	movss	xmm0, DWORD PTR _cp$[ebp]
	mulss	xmm0, DWORD PTR _cy$[ebp]
	lea	ecx, DWORD PTR _forward$[ebp]
	movss	DWORD PTR tv282[ebp], xmm0
	call	??BVector@@QAEPAMXZ			; Vector::operator float *
	mov	ecx, 4
	imul	edx, ecx, 0
	movss	xmm0, DWORD PTR tv282[ebp]
	movss	DWORD PTR [eax+edx], xmm0

; 1441 : 		forward[1] = cp*sy;

	movss	xmm0, DWORD PTR _cp$[ebp]
	mulss	xmm0, DWORD PTR _sy$[ebp]
	lea	ecx, DWORD PTR _forward$[ebp]
	movss	DWORD PTR tv284[ebp], xmm0
	call	??BVector@@QAEPAMXZ			; Vector::operator float *
	mov	ecx, 4
	shl	ecx, 0
	movss	xmm0, DWORD PTR tv284[ebp]
	movss	DWORD PTR [eax+ecx], xmm0

; 1442 : 		forward[2] = -sp;

	movss	xmm0, DWORD PTR _sp$[ebp]
	xorps	xmm0, DWORD PTR __xmm@80000000800000008000000080000000
	lea	ecx, DWORD PTR _forward$[ebp]
	movss	DWORD PTR tv286[ebp], xmm0
	call	??BVector@@QAEPAMXZ			; Vector::operator float *
	mov	ecx, 4
	shl	ecx, 1
	movss	xmm0, DWORD PTR tv286[ebp]
	movss	DWORD PTR [eax+ecx], xmm0
$LN2@AngleVecto:

; 1443 : 	}
; 1444 : 	if (right)

	lea	ecx, DWORD PTR _right$[ebp]
	call	??BVector@@QAEPAMXZ			; Vector::operator float *
	test	eax, eax
	je	$LN3@AngleVecto

; 1445 : 	{
; 1446 : 		right[0] = (-1*sr*sp*cy+-1*cr*-sy);

	movss	xmm0, DWORD PTR __real@bf800000
	mulss	xmm0, DWORD PTR _sr$[ebp]
	mulss	xmm0, DWORD PTR _sp$[ebp]
	mulss	xmm0, DWORD PTR _cy$[ebp]
	movss	xmm1, DWORD PTR __real@bf800000
	mulss	xmm1, DWORD PTR _cr$[ebp]
	movss	xmm2, DWORD PTR _sy$[ebp]
	xorps	xmm2, DWORD PTR __xmm@80000000800000008000000080000000
	mulss	xmm1, xmm2
	addss	xmm0, xmm1
	lea	ecx, DWORD PTR _right$[ebp]
	movss	DWORD PTR tv288[ebp], xmm0
	call	??BVector@@QAEPAMXZ			; Vector::operator float *
	mov	ecx, 4
	imul	edx, ecx, 0
	movss	xmm0, DWORD PTR tv288[ebp]
	movss	DWORD PTR [eax+edx], xmm0

; 1447 : 		right[1] = (-1*sr*sp*sy+-1*cr*cy);

	movss	xmm0, DWORD PTR __real@bf800000
	mulss	xmm0, DWORD PTR _sr$[ebp]
	mulss	xmm0, DWORD PTR _sp$[ebp]
	mulss	xmm0, DWORD PTR _sy$[ebp]
	movss	xmm1, DWORD PTR __real@bf800000
	mulss	xmm1, DWORD PTR _cr$[ebp]
	mulss	xmm1, DWORD PTR _cy$[ebp]
	addss	xmm0, xmm1
	lea	ecx, DWORD PTR _right$[ebp]
	movss	DWORD PTR tv290[ebp], xmm0
	call	??BVector@@QAEPAMXZ			; Vector::operator float *
	mov	ecx, 4
	shl	ecx, 0
	movss	xmm0, DWORD PTR tv290[ebp]
	movss	DWORD PTR [eax+ecx], xmm0

; 1448 : 		right[2] = -1*sr*cp;

	movss	xmm0, DWORD PTR __real@bf800000
	mulss	xmm0, DWORD PTR _sr$[ebp]
	mulss	xmm0, DWORD PTR _cp$[ebp]
	lea	ecx, DWORD PTR _right$[ebp]
	movss	DWORD PTR tv292[ebp], xmm0
	call	??BVector@@QAEPAMXZ			; Vector::operator float *
	mov	ecx, 4
	shl	ecx, 1
	movss	xmm0, DWORD PTR tv292[ebp]
	movss	DWORD PTR [eax+ecx], xmm0
$LN3@AngleVecto:

; 1449 : 	}
; 1450 : 	if (up)

	lea	ecx, DWORD PTR _up$[ebp]
	call	??BVector@@QAEPAMXZ			; Vector::operator float *
	test	eax, eax
	je	$LN4@AngleVecto

; 1451 : 	{
; 1452 : 		up[0] = (cr*sp*cy+-sr*-sy);

	movss	xmm0, DWORD PTR _cr$[ebp]
	mulss	xmm0, DWORD PTR _sp$[ebp]
	mulss	xmm0, DWORD PTR _cy$[ebp]
	movss	xmm1, DWORD PTR _sr$[ebp]
	xorps	xmm1, DWORD PTR __xmm@80000000800000008000000080000000
	movss	xmm2, DWORD PTR _sy$[ebp]
	xorps	xmm2, DWORD PTR __xmm@80000000800000008000000080000000
	mulss	xmm1, xmm2
	addss	xmm0, xmm1
	lea	ecx, DWORD PTR _up$[ebp]
	movss	DWORD PTR tv294[ebp], xmm0
	call	??BVector@@QAEPAMXZ			; Vector::operator float *
	mov	ecx, 4
	imul	edx, ecx, 0
	movss	xmm0, DWORD PTR tv294[ebp]
	movss	DWORD PTR [eax+edx], xmm0

; 1453 : 		up[1] = (cr*sp*sy+-sr*cy);

	movss	xmm0, DWORD PTR _cr$[ebp]
	mulss	xmm0, DWORD PTR _sp$[ebp]
	mulss	xmm0, DWORD PTR _sy$[ebp]
	movss	xmm1, DWORD PTR _sr$[ebp]
	xorps	xmm1, DWORD PTR __xmm@80000000800000008000000080000000
	mulss	xmm1, DWORD PTR _cy$[ebp]
	addss	xmm0, xmm1
	lea	ecx, DWORD PTR _up$[ebp]
	movss	DWORD PTR tv296[ebp], xmm0
	call	??BVector@@QAEPAMXZ			; Vector::operator float *
	mov	ecx, 4
	shl	ecx, 0
	movss	xmm0, DWORD PTR tv296[ebp]
	movss	DWORD PTR [eax+ecx], xmm0

; 1454 : 		up[2] = cr*cp;

	movss	xmm0, DWORD PTR _cr$[ebp]
	mulss	xmm0, DWORD PTR _cp$[ebp]
	lea	ecx, DWORD PTR _up$[ebp]
	movss	DWORD PTR tv298[ebp], xmm0
	call	??BVector@@QAEPAMXZ			; Vector::operator float *
	mov	ecx, 4
	shl	ecx, 1
	movss	xmm0, DWORD PTR tv298[ebp]
	movss	DWORD PTR [eax+ecx], xmm0
$LN4@AngleVecto:

; 1455 : 	}
; 1456 : }

	pop	edi
	pop	esi
	pop	ebx
	mov	esp, ebp
	pop	ebp
	ret	0
?AngleVectors@@YAXVVector@@V1@11@Z ENDP			; AngleVectors
_TEXT	ENDS
; Function compile flags: /Odtp /ZI
; File d:\!diffusion 2020\source code 2022\client-server\game_shared\mathlib.cpp
;	COMDAT ?AngleBetweenVectors@@YAMVVector@@0@Z
_TEXT	SEGMENT
tv136 = -84						; size = 8
tv140 = -80						; size = 4
_angle$ = -12						; size = 4
_l2$ = -8						; size = 4
_l1$ = -4						; size = 4
_v1$ = 8						; size = 12
_v2$ = 20						; size = 12
?AngleBetweenVectors@@YAMVVector@@0@Z PROC		; AngleBetweenVectors, COMDAT

; 1041 : {

	push	ebp
	mov	ebp, esp
	sub	esp, 84					; 00000054H
	push	ebx
	push	esi
	push	edi

; 1042 : 	float l1 = v1.Length();

	lea	ecx, DWORD PTR _v1$[ebp]
	call	?Length@Vector@@QBEMXZ			; Vector::Length
	fstp	DWORD PTR _l1$[ebp]

; 1043 : 	float l2 = v2.Length();

	lea	ecx, DWORD PTR _v2$[ebp]
	call	?Length@Vector@@QBEMXZ			; Vector::Length
	fstp	DWORD PTR _l2$[ebp]

; 1044 : 
; 1045 : 	if( !l1 || !l2 )

	movss	xmm0, DWORD PTR _l1$[ebp]
	ucomiss	xmm0, DWORD PTR __real@00000000
	lahf
	test	ah, 68					; 00000044H
	jnp	SHORT $LN3@AngleBetwe
	movss	xmm0, DWORD PTR _l2$[ebp]
	ucomiss	xmm0, DWORD PTR __real@00000000
	lahf
	test	ah, 68					; 00000044H
	jp	SHORT $LN2@AngleBetwe
$LN3@AngleBetwe:

; 1046 : 		return 0.0f;

	fldz
	jmp	SHORT $LN1@AngleBetwe
$LN2@AngleBetwe:

; 1047 : 
; 1048 : 	float angle = acos( DotProduct( v1, v2 )) / (l1 * l2);

	lea	eax, DWORD PTR _v2$[ebp]
	push	eax
	lea	ecx, DWORD PTR _v1$[ebp]
	push	ecx
	call	?DotProduct@@YAMABVVector@@0@Z		; DotProduct
	fstp	QWORD PTR [esp]
	call	_acos
	add	esp, 8
	fstp	QWORD PTR tv136[ebp]
	movsd	xmm0, QWORD PTR tv136[ebp]
	movss	xmm1, DWORD PTR _l1$[ebp]
	mulss	xmm1, DWORD PTR _l2$[ebp]
	cvtss2sd xmm1, xmm1
	divsd	xmm0, xmm1
	cvtsd2ss xmm0, xmm0
	movss	DWORD PTR _angle$[ebp], xmm0

; 1049 : 
; 1050 : 	return RAD2DEG( angle );

	movss	xmm0, DWORD PTR _angle$[ebp]
	mulss	xmm0, DWORD PTR __real@42652ee1
	movss	DWORD PTR tv140[ebp], xmm0
	fld	DWORD PTR tv140[ebp]
$LN1@AngleBetwe:

; 1051 : }

	pop	edi
	pop	esi
	pop	ebx
	mov	esp, ebp
	pop	ebp
	ret	0
?AngleBetweenVectors@@YAMVVector@@0@Z ENDP		; AngleBetweenVectors
_TEXT	ENDS
; Function compile flags: /Odtp /ZI
; File d:\!diffusion 2020\source code 2022\client-server\game_shared\mathlib.cpp
;	COMDAT ??__Eg_radZero@@YAXXZ
text$di	SEGMENT
??__Eg_radZero@@YAXXZ PROC				; `dynamic initializer for 'g_radZero'', COMDAT

; 12   : const Radian g_radZero( 0, 0, 0 );

	push	ebp
	mov	ebp, esp
	sub	esp, 64					; 00000040H
	push	ebx
	push	esi
	push	edi
	push	ecx
	xorps	xmm0, xmm0
	movss	DWORD PTR [esp], xmm0
	push	ecx
	xorps	xmm0, xmm0
	movss	DWORD PTR [esp], xmm0
	push	ecx
	xorps	xmm0, xmm0
	movss	DWORD PTR [esp], xmm0
	mov	ecx, OFFSET ?g_radZero@@3VRadian@@B	; g_radZero
	call	??0Radian@@QAE@MMM@Z			; Radian::Radian
	pop	edi
	pop	esi
	pop	ebx
	mov	esp, ebp
	pop	ebp
	ret	0
??__Eg_radZero@@YAXXZ ENDP				; `dynamic initializer for 'g_radZero''
text$di	ENDS
; Function compile flags: /Odtp /ZI
; File d:\!diffusion 2020\source code 2022\client-server\game_shared\mathlib.cpp
;	COMDAT ??__Eg_vecZero@@YAXXZ
text$di	SEGMENT
??__Eg_vecZero@@YAXXZ PROC				; `dynamic initializer for 'g_vecZero'', COMDAT

; 11   : const Vector g_vecZero( 0, 0, 0 );

	push	ebp
	mov	ebp, esp
	sub	esp, 64					; 00000040H
	push	ebx
	push	esi
	push	edi
	push	ecx
	xorps	xmm0, xmm0
	movss	DWORD PTR [esp], xmm0
	push	ecx
	xorps	xmm0, xmm0
	movss	DWORD PTR [esp], xmm0
	push	ecx
	xorps	xmm0, xmm0
	movss	DWORD PTR [esp], xmm0
	mov	ecx, OFFSET ?g_vecZero@@3VVector@@B	; g_vecZero
	call	??0Vector@@QAE@MMM@Z			; Vector::Vector
	pop	edi
	pop	esi
	pop	ebx
	mov	esp, ebp
	pop	ebp
	ret	0
??__Eg_vecZero@@YAXXZ ENDP				; `dynamic initializer for 'g_vecZero''
text$di	ENDS
; Function compile flags: /Odtp /ZI
; File d:\!diffusion 2020\source code 2022\client-server\game_shared\mathlib.cpp
;	COMDAT ?HalfToFloat@@YAMG@Z
_TEXT	SEGMENT
_e$1 = -16						; size = 4
_m$2 = -12						; size = 4
_em$ = -8						; size = 4
_f$ = -4						; size = 4
_h$ = 8							; size = 2
?HalfToFloat@@YAMG@Z PROC				; HalfToFloat, COMDAT

; 1392 : {

	push	ebp
	mov	ebp, esp
	sub	esp, 80					; 00000050H
	push	ebx
	push	esi
	push	edi

; 1393 : 	unsigned int	f = (h << 16) & 0x80000000;

	movzx	eax, WORD PTR _h$[ebp]
	shl	eax, 16					; 00000010H
	and	eax, -2147483648			; 80000000H
	mov	DWORD PTR _f$[ebp], eax

; 1394 : 	unsigned int	em = h & 0x7fff;

	movzx	eax, WORD PTR _h$[ebp]
	and	eax, 32767				; 00007fffH
	mov	DWORD PTR _em$[ebp], eax

; 1395 : 
; 1396 : 	if( em > 0x03ff )

	cmp	DWORD PTR _em$[ebp], 1023		; 000003ffH
	jbe	SHORT $LN4@HalfToFloa

; 1397 : 	{
; 1398 : 		f |= (em << 13) + ((127 - 15) << 23);

	mov	eax, DWORD PTR _em$[ebp]
	shl	eax, 13					; 0000000dH
	add	eax, 939524096				; 38000000H
	or	eax, DWORD PTR _f$[ebp]
	mov	DWORD PTR _f$[ebp], eax

; 1399 : 	}
; 1400 : 	else

	jmp	SHORT $LN6@HalfToFloa
$LN4@HalfToFloa:

; 1401 : 	{
; 1402 : 		unsigned int m = em & 0x03ff;

	mov	eax, DWORD PTR _em$[ebp]
	and	eax, 1023				; 000003ffH
	mov	DWORD PTR _m$2[ebp], eax

; 1403 : 
; 1404 : 		if( m != 0 )

	je	SHORT $LN6@HalfToFloa

; 1405 : 		{
; 1406 : 			unsigned int e = (em >> 10) & 0x1f;

	mov	eax, DWORD PTR _em$[ebp]
	shr	eax, 10					; 0000000aH
	and	eax, 31					; 0000001fH
	mov	DWORD PTR _e$1[ebp], eax
$LN2@HalfToFloa:

; 1407 : 
; 1408 : 			while(( m & 0x0400 ) == 0 )

	mov	eax, DWORD PTR _m$2[ebp]
	and	eax, 1024				; 00000400H
	jne	SHORT $LN3@HalfToFloa

; 1409 : 			{
; 1410 : 				m <<= 1;

	mov	eax, DWORD PTR _m$2[ebp]
	shl	eax, 1
	mov	DWORD PTR _m$2[ebp], eax

; 1411 : 				e--;

	mov	eax, DWORD PTR _e$1[ebp]
	sub	eax, 1
	mov	DWORD PTR _e$1[ebp], eax

; 1412 : 			}

	jmp	SHORT $LN2@HalfToFloa
$LN3@HalfToFloa:

; 1413 : 
; 1414 : 			m &= 0x3ff;

	mov	eax, DWORD PTR _m$2[ebp]
	and	eax, 1023				; 000003ffH
	mov	DWORD PTR _m$2[ebp], eax

; 1415 : 			f |= ((e + (127 - 14)) << 23) | (m << 13);

	mov	eax, DWORD PTR _e$1[ebp]
	add	eax, 113				; 00000071H
	shl	eax, 23					; 00000017H
	mov	ecx, DWORD PTR _m$2[ebp]
	shl	ecx, 13					; 0000000dH
	or	eax, ecx
	or	eax, DWORD PTR _f$[ebp]
	mov	DWORD PTR _f$[ebp], eax
$LN6@HalfToFloa:

; 1416 : 		}
; 1417 : 	}
; 1418 : 
; 1419 : 	return *((float *)&f);

	fld	DWORD PTR _f$[ebp]

; 1420 : }

	pop	edi
	pop	esi
	pop	ebx
	mov	esp, ebp
	pop	ebp
	ret	0
?HalfToFloat@@YAMG@Z ENDP				; HalfToFloat
_TEXT	ENDS
; Function compile flags: /Odtp /ZI
; File d:\!diffusion 2020\source code 2022\client-server\game_shared\mathlib.cpp
;	COMDAT ?FloatToHalf@@YAGM@Z
_TEXT	SEGMENT
_h$ = -16						; size = 2
_m$ = -12						; size = 4
_e$ = -8						; size = 4
_i$ = -4						; size = 4
_v$ = 8							; size = 4
?FloatToHalf@@YAGM@Z PROC				; FloatToHalf, COMDAT

; 1376 : {

	push	ebp
	mov	ebp, esp
	sub	esp, 80					; 00000050H
	push	ebx
	push	esi
	push	edi

; 1377 : 	unsigned int	i = *((unsigned int *)&v);

	mov	eax, DWORD PTR _v$[ebp]
	mov	DWORD PTR _i$[ebp], eax

; 1378 : 	unsigned int	e = (i >> 23) & 0x00ff;

	mov	eax, DWORD PTR _i$[ebp]
	shr	eax, 23					; 00000017H
	and	eax, 255				; 000000ffH
	mov	DWORD PTR _e$[ebp], eax

; 1379 : 	unsigned int	m = i & 0x007fffff;

	mov	eax, DWORD PTR _i$[ebp]
	and	eax, 8388607				; 007fffffH
	mov	DWORD PTR _m$[ebp], eax

; 1380 : 	unsigned short	h;
; 1381 : 
; 1382 : 	if( e <= 127 - 15 )

	cmp	DWORD PTR _e$[ebp], 112			; 00000070H
	ja	SHORT $LN2@FloatToHal

; 1383 : 		h = ((m | 0x00800000) >> (127 - 14 - e)) >> 13;

	mov	eax, DWORD PTR _m$[ebp]
	or	eax, 8388608				; 00800000H
	mov	ecx, 113				; 00000071H
	sub	ecx, DWORD PTR _e$[ebp]
	shr	eax, cl
	shr	eax, 13					; 0000000dH
	mov	WORD PTR _h$[ebp], ax
	jmp	SHORT $LN3@FloatToHal
$LN2@FloatToHal:

; 1384 : 	else h = (i >> 13) & 0x3fff;

	mov	eax, DWORD PTR _i$[ebp]
	shr	eax, 13					; 0000000dH
	and	eax, 16383				; 00003fffH
	mov	WORD PTR _h$[ebp], ax
$LN3@FloatToHal:

; 1385 : 
; 1386 : 	h |= (i >> 16) & 0xc000;

	mov	eax, DWORD PTR _i$[ebp]
	shr	eax, 16					; 00000010H
	and	eax, 49152				; 0000c000H
	movzx	ecx, WORD PTR _h$[ebp]
	or	ecx, eax
	mov	WORD PTR _h$[ebp], cx

; 1387 : 
; 1388 : 	return h;

	mov	ax, WORD PTR _h$[ebp]

; 1389 : }

	pop	edi
	pop	esi
	pop	ebx
	mov	esp, ebp
	pop	ebp
	ret	0
?FloatToHalf@@YAGM@Z ENDP				; FloatToHalf
_TEXT	ENDS
; Function compile flags: /Odtp /ZI
; File d:\!diffusion 2020\source code 2022\client-server\game_shared\mathlib.cpp
;	COMDAT ?VectorYawRotate@@YA?AVVector@@ABV1@M@Z
_TEXT	SEGMENT
_cy$ = -20						; size = 4
_sy$ = -16						; size = 4
_out$ = -12						; size = 12
___$ReturnUdt$ = 8					; size = 4
_in$ = 12						; size = 4
_flYaw$ = 16						; size = 4
?VectorYawRotate@@YA?AVVector@@ABV1@M@Z PROC		; VectorYawRotate, COMDAT

; 1290 : {

	push	ebp
	mov	ebp, esp
	sub	esp, 84					; 00000054H
	push	ebx
	push	esi
	push	edi

; 1291 : 	Vector	out;

	lea	ecx, DWORD PTR _out$[ebp]
	call	??0Vector@@QAE@XZ			; Vector::Vector

; 1292 : 	float	sy, cy;
; 1293 : 
; 1294 : 	SinCos( DEG2RAD(flYaw), &sy, &cy );

	lea	eax, DWORD PTR _cy$[ebp]
	push	eax
	lea	ecx, DWORD PTR _sy$[ebp]
	push	ecx
	movss	xmm0, DWORD PTR _flYaw$[ebp]
	mulss	xmm0, DWORD PTR __real@3c8efa35
	push	ecx
	movss	DWORD PTR [esp], xmm0
	call	?SinCos@@YAXMPAM0@Z			; SinCos
	add	esp, 12					; 0000000cH

; 1295 : 
; 1296 : 	out.x = in.x * cy - in.y * sy;

	mov	eax, DWORD PTR _in$[ebp]
	movss	xmm0, DWORD PTR [eax]
	mulss	xmm0, DWORD PTR _cy$[ebp]
	mov	ecx, DWORD PTR _in$[ebp]
	movss	xmm1, DWORD PTR [ecx+4]
	mulss	xmm1, DWORD PTR _sy$[ebp]
	subss	xmm0, xmm1
	movss	DWORD PTR _out$[ebp], xmm0

; 1297 : 	out.y = in.x * sy + in.y * cy;

	mov	eax, DWORD PTR _in$[ebp]
	movss	xmm0, DWORD PTR [eax]
	mulss	xmm0, DWORD PTR _sy$[ebp]
	mov	ecx, DWORD PTR _in$[ebp]
	movss	xmm1, DWORD PTR [ecx+4]
	mulss	xmm1, DWORD PTR _cy$[ebp]
	addss	xmm0, xmm1
	movss	DWORD PTR _out$[ebp+4], xmm0

; 1298 : 	out.z = in.z;

	mov	eax, DWORD PTR _in$[ebp]
	movss	xmm0, DWORD PTR [eax+8]
	movss	DWORD PTR _out$[ebp+8], xmm0

; 1299 : 
; 1300 : 	return out;

	lea	eax, DWORD PTR _out$[ebp]
	push	eax
	mov	ecx, DWORD PTR ___$ReturnUdt$[ebp]
	call	??0Vector@@QAE@ABV0@@Z			; Vector::Vector
	mov	eax, DWORD PTR ___$ReturnUdt$[ebp]

; 1301 : }

	pop	edi
	pop	esi
	pop	ebx
	mov	esp, ebp
	pop	ebp
	ret	0
?VectorYawRotate@@YA?AVVector@@ABV1@M@Z ENDP		; VectorYawRotate
_TEXT	ENDS
; Function compile flags: /Odtp /ZI
; File d:\!diffusion 2020\source code 2022\client-server\game_shared\mathlib.cpp
;	COMDAT ?BoxOnPlaneSide@@YAHABVVector@@0PBUmplane_s@@@Z
_TEXT	SEGMENT
tv66 = -80						; size = 4
_sides$ = -12						; size = 4
_dist2$ = -8						; size = 4
_dist1$ = -4						; size = 4
_emins$ = 8						; size = 4
_emaxs$ = 12						; size = 4
_p$ = 16						; size = 4
?BoxOnPlaneSide@@YAHABVVector@@0PBUmplane_s@@@Z PROC	; BoxOnPlaneSide, COMDAT

; 1076 : {

	push	ebp
	mov	ebp, esp
	sub	esp, 80					; 00000050H
	push	ebx
	push	esi
	push	edi

; 1077 : 	float	dist1, dist2;
; 1078 : 	int	sides = 0;

	mov	DWORD PTR _sides$[ebp], 0

; 1079 : 
; 1080 : 	// general case
; 1081 : 	switch( p->signbits )

	mov	eax, DWORD PTR _p$[ebp]
	movzx	ecx, BYTE PTR [eax+17]
	mov	DWORD PTR tv66[ebp], ecx
	cmp	DWORD PTR tv66[ebp], 7
	ja	$LN12@BoxOnPlane
	mov	edx, DWORD PTR tv66[ebp]
	jmp	DWORD PTR $LN16@BoxOnPlane[edx*4]
$LN4@BoxOnPlane:

; 1082 : 	{
; 1083 : 	case 0:
; 1084 : 		dist1 = p->normal.x * emaxs.x + p->normal.y * emaxs.y + p->normal.z * emaxs.z;

	mov	eax, DWORD PTR _p$[ebp]
	mov	ecx, DWORD PTR _emaxs$[ebp]
	movss	xmm0, DWORD PTR [eax]
	mulss	xmm0, DWORD PTR [ecx]
	mov	edx, DWORD PTR _p$[ebp]
	mov	eax, DWORD PTR _emaxs$[ebp]
	movss	xmm1, DWORD PTR [edx+4]
	mulss	xmm1, DWORD PTR [eax+4]
	addss	xmm0, xmm1
	mov	ecx, DWORD PTR _p$[ebp]
	mov	edx, DWORD PTR _emaxs$[ebp]
	movss	xmm1, DWORD PTR [ecx+8]
	mulss	xmm1, DWORD PTR [edx+8]
	addss	xmm0, xmm1
	movss	DWORD PTR _dist1$[ebp], xmm0

; 1085 : 		dist2 = p->normal.x * emins.x + p->normal.y * emins.y + p->normal.z * emins.z;

	mov	eax, DWORD PTR _p$[ebp]
	mov	ecx, DWORD PTR _emins$[ebp]
	movss	xmm0, DWORD PTR [eax]
	mulss	xmm0, DWORD PTR [ecx]
	mov	edx, DWORD PTR _p$[ebp]
	mov	eax, DWORD PTR _emins$[ebp]
	movss	xmm1, DWORD PTR [edx+4]
	mulss	xmm1, DWORD PTR [eax+4]
	addss	xmm0, xmm1
	mov	ecx, DWORD PTR _p$[ebp]
	mov	edx, DWORD PTR _emins$[ebp]
	movss	xmm1, DWORD PTR [ecx+8]
	mulss	xmm1, DWORD PTR [edx+8]
	addss	xmm0, xmm1
	movss	DWORD PTR _dist2$[ebp], xmm0

; 1086 : 		break;

	jmp	$LN2@BoxOnPlane
$LN5@BoxOnPlane:

; 1087 : 	case 1:
; 1088 : 		dist1 = p->normal.x * emins.x + p->normal.y * emaxs.y + p->normal.z * emaxs.z;

	mov	eax, DWORD PTR _p$[ebp]
	mov	ecx, DWORD PTR _emins$[ebp]
	movss	xmm0, DWORD PTR [eax]
	mulss	xmm0, DWORD PTR [ecx]
	mov	edx, DWORD PTR _p$[ebp]
	mov	eax, DWORD PTR _emaxs$[ebp]
	movss	xmm1, DWORD PTR [edx+4]
	mulss	xmm1, DWORD PTR [eax+4]
	addss	xmm0, xmm1
	mov	ecx, DWORD PTR _p$[ebp]
	mov	edx, DWORD PTR _emaxs$[ebp]
	movss	xmm1, DWORD PTR [ecx+8]
	mulss	xmm1, DWORD PTR [edx+8]
	addss	xmm0, xmm1
	movss	DWORD PTR _dist1$[ebp], xmm0

; 1089 : 		dist2 = p->normal.x * emaxs.x + p->normal.y * emins.y + p->normal.z * emins.z;

	mov	eax, DWORD PTR _p$[ebp]
	mov	ecx, DWORD PTR _emaxs$[ebp]
	movss	xmm0, DWORD PTR [eax]
	mulss	xmm0, DWORD PTR [ecx]
	mov	edx, DWORD PTR _p$[ebp]
	mov	eax, DWORD PTR _emins$[ebp]
	movss	xmm1, DWORD PTR [edx+4]
	mulss	xmm1, DWORD PTR [eax+4]
	addss	xmm0, xmm1
	mov	ecx, DWORD PTR _p$[ebp]
	mov	edx, DWORD PTR _emins$[ebp]
	movss	xmm1, DWORD PTR [ecx+8]
	mulss	xmm1, DWORD PTR [edx+8]
	addss	xmm0, xmm1
	movss	DWORD PTR _dist2$[ebp], xmm0

; 1090 : 		break;

	jmp	$LN2@BoxOnPlane
$LN6@BoxOnPlane:

; 1091 : 	case 2:
; 1092 : 		dist1 = p->normal.x * emaxs.x + p->normal.y * emins.y + p->normal.z * emaxs.z;

	mov	eax, DWORD PTR _p$[ebp]
	mov	ecx, DWORD PTR _emaxs$[ebp]
	movss	xmm0, DWORD PTR [eax]
	mulss	xmm0, DWORD PTR [ecx]
	mov	edx, DWORD PTR _p$[ebp]
	mov	eax, DWORD PTR _emins$[ebp]
	movss	xmm1, DWORD PTR [edx+4]
	mulss	xmm1, DWORD PTR [eax+4]
	addss	xmm0, xmm1
	mov	ecx, DWORD PTR _p$[ebp]
	mov	edx, DWORD PTR _emaxs$[ebp]
	movss	xmm1, DWORD PTR [ecx+8]
	mulss	xmm1, DWORD PTR [edx+8]
	addss	xmm0, xmm1
	movss	DWORD PTR _dist1$[ebp], xmm0

; 1093 : 		dist2 = p->normal.x * emins.x + p->normal.y * emaxs.y + p->normal.z * emins.z;

	mov	eax, DWORD PTR _p$[ebp]
	mov	ecx, DWORD PTR _emins$[ebp]
	movss	xmm0, DWORD PTR [eax]
	mulss	xmm0, DWORD PTR [ecx]
	mov	edx, DWORD PTR _p$[ebp]
	mov	eax, DWORD PTR _emaxs$[ebp]
	movss	xmm1, DWORD PTR [edx+4]
	mulss	xmm1, DWORD PTR [eax+4]
	addss	xmm0, xmm1
	mov	ecx, DWORD PTR _p$[ebp]
	mov	edx, DWORD PTR _emins$[ebp]
	movss	xmm1, DWORD PTR [ecx+8]
	mulss	xmm1, DWORD PTR [edx+8]
	addss	xmm0, xmm1
	movss	DWORD PTR _dist2$[ebp], xmm0

; 1094 : 		break;

	jmp	$LN2@BoxOnPlane
$LN7@BoxOnPlane:

; 1095 : 	case 3:
; 1096 : 		dist1 = p->normal.x * emins.x + p->normal.y * emins.y + p->normal.z * emaxs.z;

	mov	eax, DWORD PTR _p$[ebp]
	mov	ecx, DWORD PTR _emins$[ebp]
	movss	xmm0, DWORD PTR [eax]
	mulss	xmm0, DWORD PTR [ecx]
	mov	edx, DWORD PTR _p$[ebp]
	mov	eax, DWORD PTR _emins$[ebp]
	movss	xmm1, DWORD PTR [edx+4]
	mulss	xmm1, DWORD PTR [eax+4]
	addss	xmm0, xmm1
	mov	ecx, DWORD PTR _p$[ebp]
	mov	edx, DWORD PTR _emaxs$[ebp]
	movss	xmm1, DWORD PTR [ecx+8]
	mulss	xmm1, DWORD PTR [edx+8]
	addss	xmm0, xmm1
	movss	DWORD PTR _dist1$[ebp], xmm0

; 1097 : 		dist2 = p->normal.x * emaxs.x + p->normal.y * emaxs.y + p->normal.z * emins.z;

	mov	eax, DWORD PTR _p$[ebp]
	mov	ecx, DWORD PTR _emaxs$[ebp]
	movss	xmm0, DWORD PTR [eax]
	mulss	xmm0, DWORD PTR [ecx]
	mov	edx, DWORD PTR _p$[ebp]
	mov	eax, DWORD PTR _emaxs$[ebp]
	movss	xmm1, DWORD PTR [edx+4]
	mulss	xmm1, DWORD PTR [eax+4]
	addss	xmm0, xmm1
	mov	ecx, DWORD PTR _p$[ebp]
	mov	edx, DWORD PTR _emins$[ebp]
	movss	xmm1, DWORD PTR [ecx+8]
	mulss	xmm1, DWORD PTR [edx+8]
	addss	xmm0, xmm1
	movss	DWORD PTR _dist2$[ebp], xmm0

; 1098 : 		break;

	jmp	$LN2@BoxOnPlane
$LN8@BoxOnPlane:

; 1099 : 	case 4:
; 1100 : 		dist1 = p->normal.x * emaxs.x + p->normal.y * emaxs.y + p->normal.z * emins.z;

	mov	eax, DWORD PTR _p$[ebp]
	mov	ecx, DWORD PTR _emaxs$[ebp]
	movss	xmm0, DWORD PTR [eax]
	mulss	xmm0, DWORD PTR [ecx]
	mov	edx, DWORD PTR _p$[ebp]
	mov	eax, DWORD PTR _emaxs$[ebp]
	movss	xmm1, DWORD PTR [edx+4]
	mulss	xmm1, DWORD PTR [eax+4]
	addss	xmm0, xmm1
	mov	ecx, DWORD PTR _p$[ebp]
	mov	edx, DWORD PTR _emins$[ebp]
	movss	xmm1, DWORD PTR [ecx+8]
	mulss	xmm1, DWORD PTR [edx+8]
	addss	xmm0, xmm1
	movss	DWORD PTR _dist1$[ebp], xmm0

; 1101 : 		dist2 = p->normal.x * emins.x + p->normal.y * emins.y + p->normal.z * emaxs.z;

	mov	eax, DWORD PTR _p$[ebp]
	mov	ecx, DWORD PTR _emins$[ebp]
	movss	xmm0, DWORD PTR [eax]
	mulss	xmm0, DWORD PTR [ecx]
	mov	edx, DWORD PTR _p$[ebp]
	mov	eax, DWORD PTR _emins$[ebp]
	movss	xmm1, DWORD PTR [edx+4]
	mulss	xmm1, DWORD PTR [eax+4]
	addss	xmm0, xmm1
	mov	ecx, DWORD PTR _p$[ebp]
	mov	edx, DWORD PTR _emaxs$[ebp]
	movss	xmm1, DWORD PTR [ecx+8]
	mulss	xmm1, DWORD PTR [edx+8]
	addss	xmm0, xmm1
	movss	DWORD PTR _dist2$[ebp], xmm0

; 1102 : 		break;

	jmp	$LN2@BoxOnPlane
$LN9@BoxOnPlane:

; 1103 : 	case 5:
; 1104 : 		dist1 = p->normal.x * emins.x + p->normal.y * emaxs.y + p->normal.z * emins.z;

	mov	eax, DWORD PTR _p$[ebp]
	mov	ecx, DWORD PTR _emins$[ebp]
	movss	xmm0, DWORD PTR [eax]
	mulss	xmm0, DWORD PTR [ecx]
	mov	edx, DWORD PTR _p$[ebp]
	mov	eax, DWORD PTR _emaxs$[ebp]
	movss	xmm1, DWORD PTR [edx+4]
	mulss	xmm1, DWORD PTR [eax+4]
	addss	xmm0, xmm1
	mov	ecx, DWORD PTR _p$[ebp]
	mov	edx, DWORD PTR _emins$[ebp]
	movss	xmm1, DWORD PTR [ecx+8]
	mulss	xmm1, DWORD PTR [edx+8]
	addss	xmm0, xmm1
	movss	DWORD PTR _dist1$[ebp], xmm0

; 1105 : 		dist2 = p->normal.x * emaxs.x + p->normal.y * emins.y + p->normal.z * emaxs.z;

	mov	eax, DWORD PTR _p$[ebp]
	mov	ecx, DWORD PTR _emaxs$[ebp]
	movss	xmm0, DWORD PTR [eax]
	mulss	xmm0, DWORD PTR [ecx]
	mov	edx, DWORD PTR _p$[ebp]
	mov	eax, DWORD PTR _emins$[ebp]
	movss	xmm1, DWORD PTR [edx+4]
	mulss	xmm1, DWORD PTR [eax+4]
	addss	xmm0, xmm1
	mov	ecx, DWORD PTR _p$[ebp]
	mov	edx, DWORD PTR _emaxs$[ebp]
	movss	xmm1, DWORD PTR [ecx+8]
	mulss	xmm1, DWORD PTR [edx+8]
	addss	xmm0, xmm1
	movss	DWORD PTR _dist2$[ebp], xmm0

; 1106 : 		break;

	jmp	$LN2@BoxOnPlane
$LN10@BoxOnPlane:

; 1107 : 	case 6:
; 1108 : 		dist1 = p->normal.x * emaxs.x + p->normal.y * emins.y + p->normal.z * emins.z;

	mov	eax, DWORD PTR _p$[ebp]
	mov	ecx, DWORD PTR _emaxs$[ebp]
	movss	xmm0, DWORD PTR [eax]
	mulss	xmm0, DWORD PTR [ecx]
	mov	edx, DWORD PTR _p$[ebp]
	mov	eax, DWORD PTR _emins$[ebp]
	movss	xmm1, DWORD PTR [edx+4]
	mulss	xmm1, DWORD PTR [eax+4]
	addss	xmm0, xmm1
	mov	ecx, DWORD PTR _p$[ebp]
	mov	edx, DWORD PTR _emins$[ebp]
	movss	xmm1, DWORD PTR [ecx+8]
	mulss	xmm1, DWORD PTR [edx+8]
	addss	xmm0, xmm1
	movss	DWORD PTR _dist1$[ebp], xmm0

; 1109 : 		dist2 = p->normal.x * emins.x + p->normal.y * emaxs.y + p->normal.z * emaxs.z;

	mov	eax, DWORD PTR _p$[ebp]
	mov	ecx, DWORD PTR _emins$[ebp]
	movss	xmm0, DWORD PTR [eax]
	mulss	xmm0, DWORD PTR [ecx]
	mov	edx, DWORD PTR _p$[ebp]
	mov	eax, DWORD PTR _emaxs$[ebp]
	movss	xmm1, DWORD PTR [edx+4]
	mulss	xmm1, DWORD PTR [eax+4]
	addss	xmm0, xmm1
	mov	ecx, DWORD PTR _p$[ebp]
	mov	edx, DWORD PTR _emaxs$[ebp]
	movss	xmm1, DWORD PTR [ecx+8]
	mulss	xmm1, DWORD PTR [edx+8]
	addss	xmm0, xmm1
	movss	DWORD PTR _dist2$[ebp], xmm0

; 1110 : 		break;

	jmp	$LN2@BoxOnPlane
$LN11@BoxOnPlane:

; 1111 : 	case 7:
; 1112 : 		dist1 = p->normal.x * emins.x + p->normal.y * emins.y + p->normal.z * emins.z;

	mov	eax, DWORD PTR _p$[ebp]
	mov	ecx, DWORD PTR _emins$[ebp]
	movss	xmm0, DWORD PTR [eax]
	mulss	xmm0, DWORD PTR [ecx]
	mov	edx, DWORD PTR _p$[ebp]
	mov	eax, DWORD PTR _emins$[ebp]
	movss	xmm1, DWORD PTR [edx+4]
	mulss	xmm1, DWORD PTR [eax+4]
	addss	xmm0, xmm1
	mov	ecx, DWORD PTR _p$[ebp]
	mov	edx, DWORD PTR _emins$[ebp]
	movss	xmm1, DWORD PTR [ecx+8]
	mulss	xmm1, DWORD PTR [edx+8]
	addss	xmm0, xmm1
	movss	DWORD PTR _dist1$[ebp], xmm0

; 1113 : 		dist2 = p->normal.x * emaxs.x + p->normal.y * emaxs.y + p->normal.z * emaxs.z;

	mov	eax, DWORD PTR _p$[ebp]
	mov	ecx, DWORD PTR _emaxs$[ebp]
	movss	xmm0, DWORD PTR [eax]
	mulss	xmm0, DWORD PTR [ecx]
	mov	edx, DWORD PTR _p$[ebp]
	mov	eax, DWORD PTR _emaxs$[ebp]
	movss	xmm1, DWORD PTR [edx+4]
	mulss	xmm1, DWORD PTR [eax+4]
	addss	xmm0, xmm1
	mov	ecx, DWORD PTR _p$[ebp]
	mov	edx, DWORD PTR _emaxs$[ebp]
	movss	xmm1, DWORD PTR [ecx+8]
	mulss	xmm1, DWORD PTR [edx+8]
	addss	xmm0, xmm1
	movss	DWORD PTR _dist2$[ebp], xmm0

; 1114 : 		break;

	jmp	SHORT $LN2@BoxOnPlane
$LN12@BoxOnPlane:

; 1115 : 	default:
; 1116 : 		// shut up compiler
; 1117 : 		dist1 = dist2 = 0;

	xorps	xmm0, xmm0
	movss	DWORD PTR _dist2$[ebp], xmm0
	movss	xmm0, DWORD PTR _dist2$[ebp]
	movss	DWORD PTR _dist1$[ebp], xmm0
$LN2@BoxOnPlane:

; 1118 : 		break;
; 1119 : 	}
; 1120 : 
; 1121 : 	if( dist1 >= p->dist )

	mov	eax, DWORD PTR _p$[ebp]
	movss	xmm0, DWORD PTR _dist1$[ebp]
	comiss	xmm0, DWORD PTR [eax+12]
	jb	SHORT $LN13@BoxOnPlane

; 1122 : 		sides = 1;

	mov	DWORD PTR _sides$[ebp], 1
$LN13@BoxOnPlane:

; 1123 : 	if( dist2 < p->dist )

	mov	eax, DWORD PTR _p$[ebp]
	movss	xmm0, DWORD PTR [eax+12]
	comiss	xmm0, DWORD PTR _dist2$[ebp]
	jbe	SHORT $LN14@BoxOnPlane

; 1124 : 		sides |= 2;

	mov	eax, DWORD PTR _sides$[ebp]
	or	eax, 2
	mov	DWORD PTR _sides$[ebp], eax
$LN14@BoxOnPlane:

; 1125 : 
; 1126 : 	return sides;

	mov	eax, DWORD PTR _sides$[ebp]

; 1127 : }

	pop	edi
	pop	esi
	pop	ebx
	mov	esp, ebp
	pop	ebp
	ret	0
	npad	1
$LN16@BoxOnPlane:
	DD	$LN4@BoxOnPlane
	DD	$LN5@BoxOnPlane
	DD	$LN6@BoxOnPlane
	DD	$LN7@BoxOnPlane
	DD	$LN8@BoxOnPlane
	DD	$LN9@BoxOnPlane
	DD	$LN10@BoxOnPlane
	DD	$LN11@BoxOnPlane
?BoxOnPlaneSide@@YAHABVVector@@0PBUmplane_s@@@Z ENDP	; BoxOnPlaneSide
_TEXT	ENDS
; Function compile flags: /Odtp /ZI
; File d:\!diffusion 2020\source code 2022\client-server\game_shared\mathlib.cpp
;	COMDAT ?AngleNormalize@@YAMM@Z
_TEXT	SEGMENT
_angle$ = 8						; size = 4
?AngleNormalize@@YAMM@Z PROC				; AngleNormalize, COMDAT

; 1018 : {

	push	ebp
	mov	ebp, esp
	sub	esp, 64					; 00000040H
	push	ebx
	push	esi
	push	edi

; 1019 : 	angle = fmodf( angle, 360.0f );

	push	ecx
	movss	xmm0, DWORD PTR __real@43b40000
	movss	DWORD PTR [esp], xmm0
	push	ecx
	movss	xmm0, DWORD PTR _angle$[ebp]
	movss	DWORD PTR [esp], xmm0
	call	_fmodf
	add	esp, 8
	fstp	DWORD PTR _angle$[ebp]

; 1020 : 
; 1021 : 	if( angle > 180 ) 

	movss	xmm0, DWORD PTR _angle$[ebp]
	comiss	xmm0, DWORD PTR __real@43340000
	jbe	SHORT $LN2@AngleNorma

; 1022 : 	{
; 1023 : 		angle -= 360;

	movss	xmm0, DWORD PTR _angle$[ebp]
	subss	xmm0, DWORD PTR __real@43b40000
	movss	DWORD PTR _angle$[ebp], xmm0
$LN2@AngleNorma:

; 1024 : 	}
; 1025 : 
; 1026 : 	if( angle < -180 )

	movss	xmm0, DWORD PTR __real@c3340000
	comiss	xmm0, DWORD PTR _angle$[ebp]
	jbe	SHORT $LN3@AngleNorma

; 1027 : 	{
; 1028 : 		angle += 360;

	movss	xmm0, DWORD PTR _angle$[ebp]
	addss	xmm0, DWORD PTR __real@43b40000
	movss	DWORD PTR _angle$[ebp], xmm0
$LN3@AngleNorma:

; 1029 : 	}
; 1030 : 
; 1031 : 	return angle;

	fld	DWORD PTR _angle$[ebp]

; 1032 : }

	pop	edi
	pop	esi
	pop	ebx
	mov	esp, ebp
	pop	ebp
	ret	0
?AngleNormalize@@YAMM@Z ENDP				; AngleNormalize
_TEXT	ENDS
; Function compile flags: /Odtp /ZI
; File d:\!diffusion 2020\source code 2022\client-server\game_shared\mathlib.cpp
;	COMDAT ?AngleDiff@@YAMMM@Z
_TEXT	SEGMENT
_delta$ = -4						; size = 4
_destAngle$ = 8						; size = 4
_srcAngle$ = 12						; size = 4
?AngleDiff@@YAMMM@Z PROC				; AngleDiff, COMDAT

; 992  : {

	push	ebp
	mov	ebp, esp
	sub	esp, 68					; 00000044H
	push	ebx
	push	esi
	push	edi

; 993  : 	float delta;
; 994  : 
; 995  : 	delta = fmodf( destAngle - srcAngle, 360.0f );

	push	ecx
	movss	xmm0, DWORD PTR __real@43b40000
	movss	DWORD PTR [esp], xmm0
	movss	xmm0, DWORD PTR _destAngle$[ebp]
	subss	xmm0, DWORD PTR _srcAngle$[ebp]
	push	ecx
	movss	DWORD PTR [esp], xmm0
	call	_fmodf
	add	esp, 8
	fstp	DWORD PTR _delta$[ebp]

; 996  : 
; 997  : 	if( destAngle > srcAngle )

	movss	xmm0, DWORD PTR _destAngle$[ebp]
	comiss	xmm0, DWORD PTR _srcAngle$[ebp]
	jbe	SHORT $LN2@AngleDiff

; 998  : 	{
; 999  : 		if( delta >= 180 )

	movss	xmm0, DWORD PTR _delta$[ebp]
	comiss	xmm0, DWORD PTR __real@43340000
	jb	SHORT $LN4@AngleDiff

; 1000 : 			delta -= 360;

	movss	xmm0, DWORD PTR _delta$[ebp]
	subss	xmm0, DWORD PTR __real@43b40000
	movss	DWORD PTR _delta$[ebp], xmm0
$LN4@AngleDiff:

; 1001 : 	}
; 1002 : 	else

	jmp	SHORT $LN5@AngleDiff
$LN2@AngleDiff:

; 1003 : 	{
; 1004 : 		if( delta <= -180 )

	movss	xmm0, DWORD PTR __real@c3340000
	comiss	xmm0, DWORD PTR _delta$[ebp]
	jb	SHORT $LN5@AngleDiff

; 1005 : 			delta += 360;

	movss	xmm0, DWORD PTR _delta$[ebp]
	addss	xmm0, DWORD PTR __real@43b40000
	movss	DWORD PTR _delta$[ebp], xmm0
$LN5@AngleDiff:

; 1006 : 	}
; 1007 : 
; 1008 : 	return delta;

	fld	DWORD PTR _delta$[ebp]

; 1009 : }

	pop	edi
	pop	esi
	pop	ebx
	mov	esp, ebp
	pop	ebp
	ret	0
?AngleDiff@@YAMMM@Z ENDP				; AngleDiff
_TEXT	ENDS
; Function compile flags: /Odtp /ZI
; File d:\!diffusion 2020\source code 2022\client-server\game_shared\mathlib.cpp
;	COMDAT ?SnapVectorToGrid@@YAXAAVVector@@@Z
_TEXT	SEGMENT
tv153 = -76						; size = 8
tv133 = -76						; size = 8
_i$1 = -4						; size = 4
_normal$ = 8						; size = 4
?SnapVectorToGrid@@YAXAAVVector@@@Z PROC		; SnapVectorToGrid, COMDAT

; 1215 : {

	push	ebp
	mov	ebp, esp
	sub	esp, 76					; 0000004cH
	push	ebx
	push	esi
	push	edi

; 1216 : 	for( int i = 0; i < 3; i++ )

	mov	DWORD PTR _i$1[ebp], 0
	jmp	SHORT $LN4@SnapVector
$LN2@SnapVector:
	mov	eax, DWORD PTR _i$1[ebp]
	add	eax, 1
	mov	DWORD PTR _i$1[ebp], eax
$LN4@SnapVector:
	cmp	DWORD PTR _i$1[ebp], 3
	jge	$LN3@SnapVector

; 1217 : 	{
; 1218 : 		if( fabs( normal[i] - 1.0f ) < PLANE_NORMAL_EPSILON )

	mov	ecx, DWORD PTR _normal$[ebp]
	call	??BVector@@QAEPAMXZ			; Vector::operator float *
	mov	ecx, DWORD PTR _i$1[ebp]
	movss	xmm0, DWORD PTR [eax+ecx*4]
	subss	xmm0, DWORD PTR __real@3f800000
	cvtss2sd xmm0, xmm0
	sub	esp, 8
	movsd	QWORD PTR [esp], xmm0
	call	_fabs
	add	esp, 8
	fstp	QWORD PTR tv133[ebp]
	movsd	xmm0, QWORD PTR __real@3f1a36e2e0000000
	comisd	xmm0, QWORD PTR tv133[ebp]
	jbe	SHORT $LN5@SnapVector

; 1219 : 		{
; 1220 : 			normal = g_vecZero;

	mov	eax, DWORD PTR _normal$[ebp]
	mov	ecx, DWORD PTR ?g_vecZero@@3VVector@@B
	mov	DWORD PTR [eax], ecx
	mov	edx, DWORD PTR ?g_vecZero@@3VVector@@B+4
	mov	DWORD PTR [eax+4], edx
	mov	ecx, DWORD PTR ?g_vecZero@@3VVector@@B+8
	mov	DWORD PTR [eax+8], ecx

; 1221 : 			normal[i] = 1.0f;

	mov	ecx, DWORD PTR _normal$[ebp]
	call	??BVector@@QAEPAMXZ			; Vector::operator float *
	mov	ecx, DWORD PTR _i$1[ebp]
	movss	xmm0, DWORD PTR __real@3f800000
	movss	DWORD PTR [eax+ecx*4], xmm0

; 1222 : 			break;

	jmp	SHORT $LN3@SnapVector
$LN5@SnapVector:

; 1223 : 		}
; 1224 : 
; 1225 : 		if( fabs( normal[i] - -1.0f ) < PLANE_NORMAL_EPSILON )

	mov	ecx, DWORD PTR _normal$[ebp]
	call	??BVector@@QAEPAMXZ			; Vector::operator float *
	mov	ecx, DWORD PTR _i$1[ebp]
	movss	xmm0, DWORD PTR [eax+ecx*4]
	subss	xmm0, DWORD PTR __real@bf800000
	cvtss2sd xmm0, xmm0
	sub	esp, 8
	movsd	QWORD PTR [esp], xmm0
	call	_fabs
	add	esp, 8
	fstp	QWORD PTR tv153[ebp]
	movsd	xmm0, QWORD PTR __real@3f1a36e2e0000000
	comisd	xmm0, QWORD PTR tv153[ebp]
	jbe	SHORT $LN6@SnapVector

; 1226 : 		{
; 1227 : 			normal = g_vecZero;

	mov	eax, DWORD PTR _normal$[ebp]
	mov	ecx, DWORD PTR ?g_vecZero@@3VVector@@B
	mov	DWORD PTR [eax], ecx
	mov	edx, DWORD PTR ?g_vecZero@@3VVector@@B+4
	mov	DWORD PTR [eax+4], edx
	mov	ecx, DWORD PTR ?g_vecZero@@3VVector@@B+8
	mov	DWORD PTR [eax+8], ecx

; 1228 : 			normal[i] = -1.0f;

	mov	ecx, DWORD PTR _normal$[ebp]
	call	??BVector@@QAEPAMXZ			; Vector::operator float *
	mov	ecx, DWORD PTR _i$1[ebp]
	movss	xmm0, DWORD PTR __real@bf800000
	movss	DWORD PTR [eax+ecx*4], xmm0

; 1229 : 			break;

	jmp	SHORT $LN3@SnapVector
$LN6@SnapVector:

; 1230 : 		}
; 1231 : 	}

	jmp	$LN2@SnapVector
$LN3@SnapVector:

; 1232 : }

	pop	edi
	pop	esi
	pop	ebx
	mov	esp, ebp
	pop	ebp
	ret	0
?SnapVectorToGrid@@YAXAAVVector@@@Z ENDP		; SnapVectorToGrid
_TEXT	ENDS
; Function compile flags: /Odtp /ZI
; File d:\!diffusion 2020\source code 2022\client-server\game_shared\mathlib.cpp
;	COMDAT ?SnapPlaneToGrid@@YAXPAUmplane_s@@@Z
_TEXT	SEGMENT
tv141 = -76						; size = 8
tv95 = -68						; size = 4
tv78 = -68						; size = 4
_plane$ = 8						; size = 4
?SnapPlaneToGrid@@YAXPAUmplane_s@@@Z PROC		; SnapPlaneToGrid, COMDAT

; 1241 : {

	push	ebp
	mov	ebp, esp
	sub	esp, 76					; 0000004cH
	push	ebx
	push	esi
	push	edi

; 1242 : 	SnapVectorToGrid( plane->normal );

	mov	eax, DWORD PTR _plane$[ebp]
	push	eax
	call	?SnapVectorToGrid@@YAXAAVVector@@@Z	; SnapVectorToGrid
	add	esp, 4

; 1243 : 
; 1244 : 	if( fabs( plane->dist - Q_rint( plane->dist )) < PLANE_DIST_EPSILON )

	mov	eax, DWORD PTR _plane$[ebp]
	xorps	xmm0, xmm0
	comiss	xmm0, DWORD PTR [eax+12]
	jbe	SHORT $LN4@SnapPlaneT
	mov	ecx, DWORD PTR _plane$[ebp]
	movss	xmm0, DWORD PTR [ecx+12]
	subss	xmm0, DWORD PTR __real@3f000000
	cvttss2si edx, xmm0
	mov	DWORD PTR tv78[ebp], edx
	jmp	SHORT $LN5@SnapPlaneT
$LN4@SnapPlaneT:
	mov	eax, DWORD PTR _plane$[ebp]
	movss	xmm0, DWORD PTR [eax+12]
	addss	xmm0, DWORD PTR __real@3f000000
	cvttss2si ecx, xmm0
	mov	DWORD PTR tv78[ebp], ecx
$LN5@SnapPlaneT:
	cvtsi2ss xmm0, DWORD PTR tv78[ebp]
	mov	edx, DWORD PTR _plane$[ebp]
	movss	xmm1, DWORD PTR [edx+12]
	subss	xmm1, xmm0
	cvtss2sd xmm0, xmm1
	sub	esp, 8
	movsd	QWORD PTR [esp], xmm0
	call	_fabs
	add	esp, 8
	fstp	QWORD PTR tv141[ebp]
	movsd	xmm0, QWORD PTR __real@3fa47ae140000000
	comisd	xmm0, QWORD PTR tv141[ebp]
	jbe	SHORT $LN2@SnapPlaneT

; 1245 : 		plane->dist = Q_rint( plane->dist );

	mov	eax, DWORD PTR _plane$[ebp]
	xorps	xmm0, xmm0
	comiss	xmm0, DWORD PTR [eax+12]
	jbe	SHORT $LN6@SnapPlaneT
	mov	ecx, DWORD PTR _plane$[ebp]
	movss	xmm0, DWORD PTR [ecx+12]
	subss	xmm0, DWORD PTR __real@3f000000
	cvttss2si edx, xmm0
	mov	DWORD PTR tv95[ebp], edx
	jmp	SHORT $LN7@SnapPlaneT
$LN6@SnapPlaneT:
	mov	eax, DWORD PTR _plane$[ebp]
	movss	xmm0, DWORD PTR [eax+12]
	addss	xmm0, DWORD PTR __real@3f000000
	cvttss2si ecx, xmm0
	mov	DWORD PTR tv95[ebp], ecx
$LN7@SnapPlaneT:
	cvtsi2ss xmm0, DWORD PTR tv95[ebp]
	mov	edx, DWORD PTR _plane$[ebp]
	movss	DWORD PTR [edx+12], xmm0
$LN2@SnapPlaneT:

; 1246 : }

	pop	edi
	pop	esi
	pop	ebx
	mov	esp, ebp
	pop	ebp
	ret	0
?SnapPlaneToGrid@@YAXPAUmplane_s@@@Z ENDP		; SnapPlaneToGrid
_TEXT	ENDS
; Function compile flags: /Odtp /ZI
; File d:\!diffusion 2020\source code 2022\client-server\game_shared\mathlib.cpp
;	COMDAT ?CategorizePlane@@YAXPAUmplane_s@@@Z
_TEXT	SEGMENT
_i$1 = -4						; size = 4
_plane$ = 8						; size = 4
?CategorizePlane@@YAXPAUmplane_s@@@Z PROC		; CategorizePlane, COMDAT

; 1164 : {

	push	ebp
	mov	ebp, esp
	sub	esp, 68					; 00000044H
	push	ebx
	push	esi
	push	edi

; 1165 : 	plane->signbits = 0;

	mov	eax, DWORD PTR _plane$[ebp]
	mov	BYTE PTR [eax+17], 0

; 1166 : 	plane->type = PLANE_NONAXIAL;

	mov	eax, DWORD PTR _plane$[ebp]
	mov	BYTE PTR [eax+16], 3

; 1167 : 
; 1168 : 	for( int i = 0; i < 3; i++ )

	mov	DWORD PTR _i$1[ebp], 0
	jmp	SHORT $LN4@Categorize
$LN2@Categorize:
	mov	eax, DWORD PTR _i$1[ebp]
	add	eax, 1
	mov	DWORD PTR _i$1[ebp], eax
$LN4@Categorize:
	cmp	DWORD PTR _i$1[ebp], 3
	jge	$LN3@Categorize

; 1169 : 	{
; 1170 : 		if( plane->normal[i] < 0 )

	mov	ecx, DWORD PTR _plane$[ebp]
	call	??BVector@@QAEPAMXZ			; Vector::operator float *
	mov	ecx, DWORD PTR _i$1[ebp]
	xorps	xmm0, xmm0
	comiss	xmm0, DWORD PTR [eax+ecx*4]
	jbe	SHORT $LN5@Categorize

; 1171 : 		{
; 1172 : 			plane->signbits |= (1<<i);

	mov	eax, 1
	mov	ecx, DWORD PTR _i$1[ebp]
	shl	eax, cl
	mov	ecx, DWORD PTR _plane$[ebp]
	movzx	edx, BYTE PTR [ecx+17]
	or	edx, eax
	mov	eax, DWORD PTR _plane$[ebp]
	mov	BYTE PTR [eax+17], dl

; 1173 : 
; 1174 : 			if( plane->normal[i] == -1.0f )

	mov	ecx, DWORD PTR _plane$[ebp]
	call	??BVector@@QAEPAMXZ			; Vector::operator float *
	mov	ecx, DWORD PTR _i$1[ebp]
	movss	xmm0, DWORD PTR [eax+ecx*4]
	ucomiss	xmm0, DWORD PTR __real@bf800000
	lahf
	test	ah, 68					; 00000044H
	jp	SHORT $LN7@Categorize

; 1175 : 			{
; 1176 : 				plane->signbits = (1<<i);

	mov	eax, 1
	mov	ecx, DWORD PTR _i$1[ebp]
	shl	eax, cl
	mov	ecx, DWORD PTR _plane$[ebp]
	mov	BYTE PTR [ecx+17], al

; 1177 : 				plane->normal = g_vecZero;

	mov	eax, DWORD PTR _plane$[ebp]
	mov	ecx, DWORD PTR ?g_vecZero@@3VVector@@B
	mov	DWORD PTR [eax], ecx
	mov	edx, DWORD PTR ?g_vecZero@@3VVector@@B+4
	mov	DWORD PTR [eax+4], edx
	mov	ecx, DWORD PTR ?g_vecZero@@3VVector@@B+8
	mov	DWORD PTR [eax+8], ecx

; 1178 : 				plane->normal[i] = -1.0f;

	mov	ecx, DWORD PTR _plane$[ebp]
	call	??BVector@@QAEPAMXZ			; Vector::operator float *
	mov	ecx, DWORD PTR _i$1[ebp]
	movss	xmm0, DWORD PTR __real@bf800000
	movss	DWORD PTR [eax+ecx*4], xmm0

; 1179 : 				break;

	jmp	SHORT $LN3@Categorize
$LN7@Categorize:

; 1180 : 			}
; 1181 : 		}

	jmp	SHORT $LN8@Categorize
$LN5@Categorize:

; 1182 : 		else if( plane->normal[i] == 1.0f )

	mov	ecx, DWORD PTR _plane$[ebp]
	call	??BVector@@QAEPAMXZ			; Vector::operator float *
	mov	ecx, DWORD PTR _i$1[ebp]
	movss	xmm0, DWORD PTR [eax+ecx*4]
	ucomiss	xmm0, DWORD PTR __real@3f800000
	lahf
	test	ah, 68					; 00000044H
	jp	SHORT $LN8@Categorize

; 1183 : 		{
; 1184 : 			plane->type = i;

	mov	eax, DWORD PTR _plane$[ebp]
	mov	cl, BYTE PTR _i$1[ebp]
	mov	BYTE PTR [eax+16], cl

; 1185 : 			plane->signbits = 0;

	mov	eax, DWORD PTR _plane$[ebp]
	mov	BYTE PTR [eax+17], 0

; 1186 : 			plane->normal = g_vecZero;

	mov	eax, DWORD PTR _plane$[ebp]
	mov	ecx, DWORD PTR ?g_vecZero@@3VVector@@B
	mov	DWORD PTR [eax], ecx
	mov	edx, DWORD PTR ?g_vecZero@@3VVector@@B+4
	mov	DWORD PTR [eax+4], edx
	mov	ecx, DWORD PTR ?g_vecZero@@3VVector@@B+8
	mov	DWORD PTR [eax+8], ecx

; 1187 : 			plane->normal[i] = 1.0f;

	mov	ecx, DWORD PTR _plane$[ebp]
	call	??BVector@@QAEPAMXZ			; Vector::operator float *
	mov	ecx, DWORD PTR _i$1[ebp]
	movss	xmm0, DWORD PTR __real@3f800000
	movss	DWORD PTR [eax+ecx*4], xmm0

; 1188 : 			break;

	jmp	SHORT $LN3@Categorize
$LN8@Categorize:

; 1189 : 		}
; 1190 : 	}

	jmp	$LN2@Categorize
$LN3@Categorize:

; 1191 : }

	pop	edi
	pop	esi
	pop	ebx
	mov	esp, ebp
	pop	ebp
	ret	0
?CategorizePlane@@YAXPAUmplane_s@@@Z ENDP		; CategorizePlane
_TEXT	ENDS
; Function compile flags: /Odtp /ZI
; File d:\!diffusion 2020\source code 2022\client-server\game_shared\mathlib.cpp
;	COMDAT ?RadianCompareEpsilon@@YA_NABVRadian@@0M@Z
_TEXT	SEGMENT
_delta$1 = -16						; size = 4
_a2$2 = -12						; size = 4
_a1$3 = -8						; size = 4
_i$4 = -4						; size = 4
_vec1$ = 8						; size = 4
_vec2$ = 12						; size = 4
_epsilon$ = 16						; size = 4
?RadianCompareEpsilon@@YA_NABVRadian@@0M@Z PROC		; RadianCompareEpsilon, COMDAT

; 1268 : {

	push	ebp
	mov	ebp, esp
	sub	esp, 80					; 00000050H
	push	ebx
	push	esi
	push	edi

; 1269 : 	for( int i = 0; i < 3; i++ )

	mov	DWORD PTR _i$4[ebp], 0
	jmp	SHORT $LN4@RadianComp
$LN2@RadianComp:
	mov	eax, DWORD PTR _i$4[ebp]
	add	eax, 1
	mov	DWORD PTR _i$4[ebp], eax
$LN4@RadianComp:
	cmp	DWORD PTR _i$4[ebp], 3
	jge	$LN3@RadianComp

; 1270 : 	{
; 1271 : 		// clamp to 2pi
; 1272 : 		float a1 = fmod( vec1[i], (float)(M_PI * 2));

	sub	esp, 8
	movsd	xmm0, QWORD PTR __real@401921fb60000000
	movsd	QWORD PTR [esp], xmm0
	mov	ecx, DWORD PTR _vec1$[ebp]
	call	??BRadian@@QBEPBMXZ			; Radian::operator float const *
	mov	ecx, DWORD PTR _i$4[ebp]
	cvtss2sd xmm0, DWORD PTR [eax+ecx*4]
	sub	esp, 8
	movsd	QWORD PTR [esp], xmm0
	call	_fmod
	add	esp, 16					; 00000010H
	fstp	DWORD PTR _a1$3[ebp]

; 1273 : 		float a2 = fmod( vec2[i], (float)(M_PI * 2));

	sub	esp, 8
	movsd	xmm0, QWORD PTR __real@401921fb60000000
	movsd	QWORD PTR [esp], xmm0
	mov	ecx, DWORD PTR _vec2$[ebp]
	call	??BRadian@@QBEPBMXZ			; Radian::operator float const *
	mov	ecx, DWORD PTR _i$4[ebp]
	cvtss2sd xmm0, DWORD PTR [eax+ecx*4]
	sub	esp, 8
	movsd	QWORD PTR [esp], xmm0
	call	_fmod
	add	esp, 16					; 00000010H
	fstp	DWORD PTR _a2$2[ebp]

; 1274 : 		float delta =  fabs( a1 - a2 );

	movss	xmm0, DWORD PTR _a1$3[ebp]
	subss	xmm0, DWORD PTR _a2$2[ebp]
	cvtss2sd xmm0, xmm0
	sub	esp, 8
	movsd	QWORD PTR [esp], xmm0
	call	_fabs
	add	esp, 8
	fstp	DWORD PTR _delta$1[ebp]

; 1275 : 		
; 1276 : 		// use the smaller angle (359 == 1 degree off)
; 1277 : 		if( delta > M_PI )

	cvtss2sd xmm0, DWORD PTR _delta$1[ebp]
	comisd	xmm0, QWORD PTR __real@400921fb54442d18
	jbe	SHORT $LN5@RadianComp

; 1278 : 		{
; 1279 : 			delta = 2 * M_PI - delta;

	cvtss2sd xmm0, DWORD PTR _delta$1[ebp]
	movsd	xmm1, QWORD PTR __real@401921fb54442d18
	subsd	xmm1, xmm0
	cvtsd2ss xmm0, xmm1
	movss	DWORD PTR _delta$1[ebp], xmm0
$LN5@RadianComp:

; 1280 : 		}
; 1281 : 
; 1282 : 		if( delta > epsilon )

	movss	xmm0, DWORD PTR _delta$1[ebp]
	comiss	xmm0, DWORD PTR _epsilon$[ebp]
	jbe	SHORT $LN6@RadianComp

; 1283 : 			return 0;

	xor	al, al
	jmp	SHORT $LN1@RadianComp
$LN6@RadianComp:

; 1284 : 	}

	jmp	$LN2@RadianComp
$LN3@RadianComp:

; 1285 : 	return 1;

	mov	al, 1
$LN1@RadianComp:

; 1286 : }

	pop	edi
	pop	esi
	pop	ebx
	mov	esp, ebp
	pop	ebp
	ret	0
?RadianCompareEpsilon@@YA_NABVRadian@@0M@Z ENDP		; RadianCompareEpsilon
_TEXT	ENDS
; Function compile flags: /Odtp /ZI
; File d:\!diffusion 2020\source code 2022\client-server\game_shared\mathlib.cpp
;	COMDAT ?VectorCompareEpsilon@@YA_NABVVector@@0M@Z
_TEXT	SEGMENT
_az$ = -12						; size = 4
_ay$ = -8						; size = 4
_ax$ = -4						; size = 4
_vec1$ = 8						; size = 4
_vec2$ = 12						; size = 4
_epsilon$ = 16						; size = 4
?VectorCompareEpsilon@@YA_NABVVector@@0M@Z PROC		; VectorCompareEpsilon, COMDAT

; 1255 : {

	push	ebp
	mov	ebp, esp
	sub	esp, 76					; 0000004cH
	push	ebx
	push	esi
	push	edi

; 1256 : 	float	ax, ay, az;
; 1257 : 
; 1258 : 	ax = fabs( vec1.x - vec2.x );

	mov	eax, DWORD PTR _vec1$[ebp]
	mov	ecx, DWORD PTR _vec2$[ebp]
	movss	xmm0, DWORD PTR [eax]
	subss	xmm0, DWORD PTR [ecx]
	cvtss2sd xmm0, xmm0
	sub	esp, 8
	movsd	QWORD PTR [esp], xmm0
	call	_fabs
	add	esp, 8
	fstp	DWORD PTR _ax$[ebp]

; 1259 : 	ay = fabs( vec1.y - vec2.y );

	mov	eax, DWORD PTR _vec1$[ebp]
	mov	ecx, DWORD PTR _vec2$[ebp]
	movss	xmm0, DWORD PTR [eax+4]
	subss	xmm0, DWORD PTR [ecx+4]
	cvtss2sd xmm0, xmm0
	sub	esp, 8
	movsd	QWORD PTR [esp], xmm0
	call	_fabs
	add	esp, 8
	fstp	DWORD PTR _ay$[ebp]

; 1260 : 	az = fabs( vec1.z - vec2.z );

	mov	eax, DWORD PTR _vec1$[ebp]
	mov	ecx, DWORD PTR _vec2$[ebp]
	movss	xmm0, DWORD PTR [eax+8]
	subss	xmm0, DWORD PTR [ecx+8]
	cvtss2sd xmm0, xmm0
	sub	esp, 8
	movsd	QWORD PTR [esp], xmm0
	call	_fabs
	add	esp, 8
	fstp	DWORD PTR _az$[ebp]

; 1261 : 
; 1262 : 	if(( ax < epsilon ) && ( ay < epsilon ) && ( az < epsilon ))

	movss	xmm0, DWORD PTR _epsilon$[ebp]
	comiss	xmm0, DWORD PTR _ax$[ebp]
	jbe	SHORT $LN2@VectorComp
	movss	xmm0, DWORD PTR _epsilon$[ebp]
	comiss	xmm0, DWORD PTR _ay$[ebp]
	jbe	SHORT $LN2@VectorComp
	movss	xmm0, DWORD PTR _epsilon$[ebp]
	comiss	xmm0, DWORD PTR _az$[ebp]
	jbe	SHORT $LN2@VectorComp

; 1263 : 		return true;

	mov	al, 1
	jmp	SHORT $LN1@VectorComp
$LN2@VectorComp:

; 1264 : 	return false;

	xor	al, al
$LN1@VectorComp:

; 1265 : }

	pop	edi
	pop	esi
	pop	ebx
	mov	esp, ebp
	pop	ebp
	ret	0
?VectorCompareEpsilon@@YA_NABVVector@@0M@Z ENDP		; VectorCompareEpsilon
_TEXT	ENDS
; Function compile flags: /Odtp /ZI
; File d:\!diffusion 2020\source code 2022\client-server\game_shared\mathlib.cpp
;	COMDAT ?ComparePlanes@@YA_NPAUmplane_s@@ABVVector@@M@Z
_TEXT	SEGMENT
tv162 = -72						; size = 8
tv154 = -72						; size = 8
tv145 = -72						; size = 8
tv136 = -72						; size = 8
_plane$ = 8						; size = 4
_normal$ = 12						; size = 4
_dist$ = 16						; size = 4
?ComparePlanes@@YA_NPAUmplane_s@@ABVVector@@M@Z PROC	; ComparePlanes, COMDAT

; 1199 : {

	push	ebp
	mov	ebp, esp
	sub	esp, 72					; 00000048H
	push	ebx
	push	esi
	push	edi

; 1200 : 	if( fabs( plane->normal.x - normal.x ) < PLANE_NORMAL_EPSILON
; 1201 : 	 && fabs( plane->normal.y - normal.y ) < PLANE_NORMAL_EPSILON
; 1202 : 	 && fabs( plane->normal.z - normal.z ) < PLANE_NORMAL_EPSILON
; 1203 : 	 && fabs( plane->dist - dist ) < PLANE_DIST_EPSILON )

	mov	eax, DWORD PTR _plane$[ebp]
	mov	ecx, DWORD PTR _normal$[ebp]
	movss	xmm0, DWORD PTR [eax]
	subss	xmm0, DWORD PTR [ecx]
	cvtss2sd xmm0, xmm0
	sub	esp, 8
	movsd	QWORD PTR [esp], xmm0
	call	_fabs
	add	esp, 8
	fstp	QWORD PTR tv136[ebp]
	movsd	xmm0, QWORD PTR __real@3f1a36e2e0000000
	comisd	xmm0, QWORD PTR tv136[ebp]
	jbe	$LN2@ComparePla
	mov	eax, DWORD PTR _plane$[ebp]
	mov	ecx, DWORD PTR _normal$[ebp]
	movss	xmm0, DWORD PTR [eax+4]
	subss	xmm0, DWORD PTR [ecx+4]
	cvtss2sd xmm0, xmm0
	sub	esp, 8
	movsd	QWORD PTR [esp], xmm0
	call	_fabs
	add	esp, 8
	fstp	QWORD PTR tv145[ebp]
	movsd	xmm0, QWORD PTR __real@3f1a36e2e0000000
	comisd	xmm0, QWORD PTR tv145[ebp]
	jbe	SHORT $LN2@ComparePla
	mov	eax, DWORD PTR _plane$[ebp]
	mov	ecx, DWORD PTR _normal$[ebp]
	movss	xmm0, DWORD PTR [eax+8]
	subss	xmm0, DWORD PTR [ecx+8]
	cvtss2sd xmm0, xmm0
	sub	esp, 8
	movsd	QWORD PTR [esp], xmm0
	call	_fabs
	add	esp, 8
	fstp	QWORD PTR tv154[ebp]
	movsd	xmm0, QWORD PTR __real@3f1a36e2e0000000
	comisd	xmm0, QWORD PTR tv154[ebp]
	jbe	SHORT $LN2@ComparePla
	mov	eax, DWORD PTR _plane$[ebp]
	movss	xmm0, DWORD PTR [eax+12]
	subss	xmm0, DWORD PTR _dist$[ebp]
	cvtss2sd xmm0, xmm0
	sub	esp, 8
	movsd	QWORD PTR [esp], xmm0
	call	_fabs
	add	esp, 8
	fstp	QWORD PTR tv162[ebp]
	movsd	xmm0, QWORD PTR __real@3fa47ae140000000
	comisd	xmm0, QWORD PTR tv162[ebp]
	jbe	SHORT $LN2@ComparePla

; 1204 : 		return true;

	mov	al, 1
	jmp	SHORT $LN1@ComparePla
$LN2@ComparePla:

; 1205 : 	return false;

	xor	al, al
$LN1@ComparePla:

; 1206 : }

	pop	edi
	pop	esi
	pop	ebx
	mov	esp, ebp
	pop	ebp
	ret	0
?ComparePlanes@@YA_NPAUmplane_s@@ABVVector@@M@Z ENDP	; ComparePlanes
_TEXT	ENDS
; Function compile flags: /Odtp /ZI
; File d:\!diffusion 2020\source code 2022\client-server\game_shared\mathlib.cpp
;	COMDAT ?PlaneFromPoints@@YA_NQBVVector@@PAUmplane_s@@@Z
_TEXT	SEGMENT
tv157 = -116						; size = 4
$T1 = -112						; size = 12
$T2 = -100						; size = 12
_v2$ = -24						; size = 12
_v1$ = -12						; size = 12
_triangle$ = 8						; size = 4
_plane$ = 12						; size = 4
?PlaneFromPoints@@YA_NQBVVector@@PAUmplane_s@@@Z PROC	; PlaneFromPoints, COMDAT

; 1138 : {

	push	ebp
	mov	ebp, esp
	sub	esp, 116				; 00000074H
	push	ebx
	push	esi
	push	edi

; 1139 : 	Vector v1 = triangle[1] - triangle[0];

	mov	eax, 12					; 0000000cH
	imul	ecx, eax, 0
	add	ecx, DWORD PTR _triangle$[ebp]
	push	ecx
	lea	edx, DWORD PTR _v1$[ebp]
	push	edx
	mov	ecx, 12					; 0000000cH
	shl	ecx, 0
	add	ecx, DWORD PTR _triangle$[ebp]
	call	??GVector@@QBE?AV0@ABV0@@Z		; Vector::operator-

; 1140 : 	Vector v2 = triangle[2] - triangle[0];

	mov	eax, 12					; 0000000cH
	imul	ecx, eax, 0
	add	ecx, DWORD PTR _triangle$[ebp]
	push	ecx
	lea	edx, DWORD PTR _v2$[ebp]
	push	edx
	mov	ecx, 12					; 0000000cH
	shl	ecx, 1
	add	ecx, DWORD PTR _triangle$[ebp]
	call	??GVector@@QBE?AV0@ABV0@@Z		; Vector::operator-

; 1141 : 	plane->normal = CrossProduct( v2, v1 );

	lea	eax, DWORD PTR _v1$[ebp]
	push	eax
	lea	ecx, DWORD PTR _v2$[ebp]
	push	ecx
	lea	edx, DWORD PTR $T2[ebp]
	push	edx
	call	?CrossProduct@@YA?AVVector@@ABV1@0@Z	; CrossProduct
	add	esp, 12					; 0000000cH
	mov	ecx, DWORD PTR _plane$[ebp]
	mov	edx, DWORD PTR [eax]
	mov	DWORD PTR [ecx], edx
	mov	edx, DWORD PTR [eax+4]
	mov	DWORD PTR [ecx+4], edx
	mov	eax, DWORD PTR [eax+8]
	mov	DWORD PTR [ecx+8], eax

; 1142 : 
; 1143 : 	if( plane->normal.Length() == 0.0f )

	mov	ecx, DWORD PTR _plane$[ebp]
	call	?Length@Vector@@QBEMXZ			; Vector::Length
	fstp	DWORD PTR tv157[ebp]
	movss	xmm0, DWORD PTR tv157[ebp]
	ucomiss	xmm0, DWORD PTR __real@00000000
	lahf
	test	ah, 68					; 00000044H
	jp	SHORT $LN2@PlaneFromP

; 1144 : 	{
; 1145 : 		plane->normal = g_vecZero;

	mov	eax, DWORD PTR _plane$[ebp]
	mov	ecx, DWORD PTR ?g_vecZero@@3VVector@@B
	mov	DWORD PTR [eax], ecx
	mov	edx, DWORD PTR ?g_vecZero@@3VVector@@B+4
	mov	DWORD PTR [eax+4], edx
	mov	ecx, DWORD PTR ?g_vecZero@@3VVector@@B+8
	mov	DWORD PTR [eax+8], ecx

; 1146 : 		return false;

	xor	al, al
	jmp	SHORT $LN1@PlaneFromP
$LN2@PlaneFromP:

; 1147 : 	}
; 1148 : 
; 1149 : 	plane->normal = plane->normal.Normalize();

	lea	eax, DWORD PTR $T1[ebp]
	push	eax
	mov	ecx, DWORD PTR _plane$[ebp]
	call	?Normalize@Vector@@QBE?AV1@XZ		; Vector::Normalize
	mov	ecx, DWORD PTR _plane$[ebp]
	mov	edx, DWORD PTR [eax]
	mov	DWORD PTR [ecx], edx
	mov	edx, DWORD PTR [eax+4]
	mov	DWORD PTR [ecx+4], edx
	mov	eax, DWORD PTR [eax+8]
	mov	DWORD PTR [ecx+8], eax

; 1150 : 
; 1151 : 	plane->dist = DotProduct( triangle[0], plane->normal );

	mov	eax, DWORD PTR _plane$[ebp]
	push	eax
	mov	ecx, 12					; 0000000cH
	imul	edx, ecx, 0
	add	edx, DWORD PTR _triangle$[ebp]
	push	edx
	call	?DotProduct@@YAMABVVector@@0@Z		; DotProduct
	add	esp, 8
	mov	eax, DWORD PTR _plane$[ebp]
	fstp	DWORD PTR [eax+12]

; 1152 : 	return true;

	mov	al, 1
$LN1@PlaneFromP:

; 1153 : }

	pop	edi
	pop	esi
	pop	ebx
	mov	esp, ebp
	pop	ebp
	ret	0
?PlaneFromPoints@@YA_NQBVVector@@PAUmplane_s@@@Z ENDP	; PlaneFromPoints
_TEXT	ENDS
; Function compile flags: /Odtp /ZI
; File d:\!diffusion 2020\source code 2022\client-server\game_shared\mathlib.cpp
;	COMDAT ?SolveInverseQuadratic@@YA_NMMMMMMAAM00@Z
_TEXT	SEGMENT
_det$ = -4						; size = 4
_x1$ = 8						; size = 4
_y1$ = 12						; size = 4
_x2$ = 16						; size = 4
_y2$ = 20						; size = 4
_x3$ = 24						; size = 4
_y3$ = 28						; size = 4
_a$ = 32						; size = 4
_b$ = 36						; size = 4
_c$ = 40						; size = 4
?SolveInverseQuadratic@@YA_NMMMMMMAAM00@Z PROC		; SolveInverseQuadratic, COMDAT

; 1341 : {

	push	ebp
	mov	ebp, esp
	sub	esp, 68					; 00000044H
	push	ebx
	push	esi
	push	edi

; 1342 : 	float det = (x1 - x2) * (x1 - x3) * (x2 - x3);

	movss	xmm0, DWORD PTR _x1$[ebp]
	subss	xmm0, DWORD PTR _x2$[ebp]
	movss	xmm1, DWORD PTR _x1$[ebp]
	subss	xmm1, DWORD PTR _x3$[ebp]
	mulss	xmm0, xmm1
	movss	xmm1, DWORD PTR _x2$[ebp]
	subss	xmm1, DWORD PTR _x3$[ebp]
	mulss	xmm0, xmm1
	movss	DWORD PTR _det$[ebp], xmm0

; 1343 : 
; 1344 : 	// FIXME: check with some sort of epsilon
; 1345 : 	if( det == 0.0 ) return false;

	cvtss2sd xmm0, DWORD PTR _det$[ebp]
	ucomisd	xmm0, QWORD PTR __real@0000000000000000
	lahf
	test	ah, 68					; 00000044H
	jp	SHORT $LN2@SolveInver
	xor	al, al
	jmp	$LN1@SolveInver
$LN2@SolveInver:

; 1346 : 
; 1347 : 	a = (x3*(-y1 + y2) + x2*(y1 - y3) + x1*(-y2 + y3)) / det;

	movss	xmm0, DWORD PTR _y1$[ebp]
	xorps	xmm0, DWORD PTR __xmm@80000000800000008000000080000000
	addss	xmm0, DWORD PTR _y2$[ebp]
	mulss	xmm0, DWORD PTR _x3$[ebp]
	movss	xmm1, DWORD PTR _y1$[ebp]
	subss	xmm1, DWORD PTR _y3$[ebp]
	mulss	xmm1, DWORD PTR _x2$[ebp]
	addss	xmm0, xmm1
	movss	xmm1, DWORD PTR _y2$[ebp]
	xorps	xmm1, DWORD PTR __xmm@80000000800000008000000080000000
	addss	xmm1, DWORD PTR _y3$[ebp]
	mulss	xmm1, DWORD PTR _x1$[ebp]
	addss	xmm0, xmm1
	divss	xmm0, DWORD PTR _det$[ebp]
	mov	eax, DWORD PTR _a$[ebp]
	movss	DWORD PTR [eax], xmm0

; 1348 : 
; 1349 : 	b = (x3*x3*(y1 - y2) + x1*x1*(y2 - y3) + x2*x2*(-y1 + y3)) / det;

	movss	xmm0, DWORD PTR _x3$[ebp]
	mulss	xmm0, DWORD PTR _x3$[ebp]
	movss	xmm1, DWORD PTR _y1$[ebp]
	subss	xmm1, DWORD PTR _y2$[ebp]
	mulss	xmm0, xmm1
	movss	xmm1, DWORD PTR _x1$[ebp]
	mulss	xmm1, DWORD PTR _x1$[ebp]
	movss	xmm2, DWORD PTR _y2$[ebp]
	subss	xmm2, DWORD PTR _y3$[ebp]
	mulss	xmm1, xmm2
	addss	xmm0, xmm1
	movss	xmm1, DWORD PTR _x2$[ebp]
	mulss	xmm1, DWORD PTR _x2$[ebp]
	movss	xmm2, DWORD PTR _y1$[ebp]
	xorps	xmm2, DWORD PTR __xmm@80000000800000008000000080000000
	addss	xmm2, DWORD PTR _y3$[ebp]
	mulss	xmm1, xmm2
	addss	xmm0, xmm1
	divss	xmm0, DWORD PTR _det$[ebp]
	mov	eax, DWORD PTR _b$[ebp]
	movss	DWORD PTR [eax], xmm0

; 1350 : 
; 1351 : 	c = (x1*x3*(-x1 + x3)*y2 + x2*x2*(x3*y1 - x1*y3) + x2*(-(x3*x3*y1) + x1*x1*y3)) / det;

	movss	xmm0, DWORD PTR _x1$[ebp]
	mulss	xmm0, DWORD PTR _x3$[ebp]
	movss	xmm1, DWORD PTR _x1$[ebp]
	xorps	xmm1, DWORD PTR __xmm@80000000800000008000000080000000
	addss	xmm1, DWORD PTR _x3$[ebp]
	mulss	xmm0, xmm1
	mulss	xmm0, DWORD PTR _y2$[ebp]
	movss	xmm1, DWORD PTR _x2$[ebp]
	mulss	xmm1, DWORD PTR _x2$[ebp]
	movss	xmm2, DWORD PTR _x3$[ebp]
	mulss	xmm2, DWORD PTR _y1$[ebp]
	movss	xmm3, DWORD PTR _x1$[ebp]
	mulss	xmm3, DWORD PTR _y3$[ebp]
	subss	xmm2, xmm3
	mulss	xmm1, xmm2
	addss	xmm0, xmm1
	movss	xmm1, DWORD PTR _x3$[ebp]
	mulss	xmm1, DWORD PTR _x3$[ebp]
	mulss	xmm1, DWORD PTR _y1$[ebp]
	xorps	xmm1, DWORD PTR __xmm@80000000800000008000000080000000
	movss	xmm2, DWORD PTR _x1$[ebp]
	mulss	xmm2, DWORD PTR _x1$[ebp]
	mulss	xmm2, DWORD PTR _y3$[ebp]
	addss	xmm1, xmm2
	mulss	xmm1, DWORD PTR _x2$[ebp]
	addss	xmm0, xmm1
	divss	xmm0, DWORD PTR _det$[ebp]
	mov	eax, DWORD PTR _c$[ebp]
	movss	DWORD PTR [eax], xmm0

; 1352 : 
; 1353 : 	return true;

	mov	al, 1
$LN1@SolveInver:

; 1354 : }

	pop	edi
	pop	esi
	pop	ebx
	mov	esp, ebp
	pop	ebp
	ret	0
?SolveInverseQuadratic@@YA_NMMMMMMAAM00@Z ENDP		; SolveInverseQuadratic
_TEXT	ENDS
; Function compile flags: /Odtp /ZI
; File d:\!diffusion 2020\source code 2022\client-server\game_shared\mathlib.cpp
;	COMDAT ?SolveQuadratic@@YA_NMMMAAM0@Z
_TEXT	SEGMENT
_tmp$ = -4						; size = 4
_a$ = 8							; size = 4
_b$ = 12						; size = 4
_c$ = 16						; size = 4
_root1$ = 20						; size = 4
_root2$ = 24						; size = 4
?SolveQuadratic@@YA_NMMMAAM0@Z PROC			; SolveQuadratic, COMDAT

; 1305 : {

	push	ebp
	mov	ebp, esp
	sub	esp, 68					; 00000044H
	push	ebx
	push	esi
	push	edi

; 1306 : 	if( a == 0 )

	movss	xmm0, DWORD PTR _a$[ebp]
	ucomiss	xmm0, DWORD PTR __real@00000000
	lahf
	test	ah, 68					; 00000044H
	jp	SHORT $LN2@SolveQuadr

; 1307 : 	{
; 1308 : 		if( b != 0 )

	movss	xmm0, DWORD PTR _b$[ebp]
	ucomiss	xmm0, DWORD PTR __real@00000000
	lahf
	test	ah, 68					; 00000044H
	jnp	SHORT $LN3@SolveQuadr

; 1309 : 		{
; 1310 : 			// no x^2 component, it's a linear system
; 1311 : 			root1 = root2 = -c / b;

	movss	xmm0, DWORD PTR _c$[ebp]
	xorps	xmm0, DWORD PTR __xmm@80000000800000008000000080000000
	divss	xmm0, DWORD PTR _b$[ebp]
	mov	eax, DWORD PTR _root2$[ebp]
	movss	DWORD PTR [eax], xmm0
	mov	ecx, DWORD PTR _root1$[ebp]
	mov	edx, DWORD PTR _root2$[ebp]
	mov	eax, DWORD PTR [edx]
	mov	DWORD PTR [ecx], eax

; 1312 : 			return true;

	mov	al, 1
	jmp	$LN1@SolveQuadr
$LN3@SolveQuadr:

; 1313 : 		}
; 1314 : 
; 1315 : 		if( c == 0 )

	movss	xmm0, DWORD PTR _c$[ebp]
	ucomiss	xmm0, DWORD PTR __real@00000000
	lahf
	test	ah, 68					; 00000044H
	jp	SHORT $LN4@SolveQuadr

; 1316 : 		{
; 1317 : 			// all zero's
; 1318 : 			root1 = root2 = 0;

	mov	eax, DWORD PTR _root2$[ebp]
	xorps	xmm0, xmm0
	movss	DWORD PTR [eax], xmm0
	mov	ecx, DWORD PTR _root1$[ebp]
	xorps	xmm0, xmm0
	movss	DWORD PTR [ecx], xmm0

; 1319 : 			return true;

	mov	al, 1
	jmp	$LN1@SolveQuadr
$LN4@SolveQuadr:

; 1320 : 		}
; 1321 : 		return false;

	xor	al, al
	jmp	$LN1@SolveQuadr
$LN2@SolveQuadr:

; 1322 : 	}
; 1323 : 
; 1324 : 	float tmp = b * b - 4.0f * a * c;

	movss	xmm0, DWORD PTR _b$[ebp]
	mulss	xmm0, DWORD PTR _b$[ebp]
	movss	xmm1, DWORD PTR __real@40800000
	mulss	xmm1, DWORD PTR _a$[ebp]
	mulss	xmm1, DWORD PTR _c$[ebp]
	subss	xmm0, xmm1
	movss	DWORD PTR _tmp$[ebp], xmm0

; 1325 : 
; 1326 : 	if( tmp < 0 )

	xorps	xmm0, xmm0
	comiss	xmm0, DWORD PTR _tmp$[ebp]
	jbe	SHORT $LN5@SolveQuadr

; 1327 : 	{
; 1328 : 		// imaginary number, bah, no solution.
; 1329 : 		return false;

	xor	al, al
	jmp	SHORT $LN1@SolveQuadr
$LN5@SolveQuadr:

; 1330 : 	}
; 1331 : 
; 1332 : 	tmp = sqrt( tmp );

	cvtss2sd xmm0, DWORD PTR _tmp$[ebp]
	sub	esp, 8
	movsd	QWORD PTR [esp], xmm0
	call	_sqrt
	add	esp, 8
	fstp	DWORD PTR _tmp$[ebp]

; 1333 : 	root1 = (-b + tmp) / (2.0f * a);

	movss	xmm0, DWORD PTR _b$[ebp]
	xorps	xmm0, DWORD PTR __xmm@80000000800000008000000080000000
	addss	xmm0, DWORD PTR _tmp$[ebp]
	movss	xmm1, DWORD PTR __real@40000000
	mulss	xmm1, DWORD PTR _a$[ebp]
	divss	xmm0, xmm1
	mov	eax, DWORD PTR _root1$[ebp]
	movss	DWORD PTR [eax], xmm0

; 1334 : 	root2 = (-b - tmp) / (2.0f * a);

	movss	xmm0, DWORD PTR _b$[ebp]
	xorps	xmm0, DWORD PTR __xmm@80000000800000008000000080000000
	subss	xmm0, DWORD PTR _tmp$[ebp]
	movss	xmm1, DWORD PTR __real@40000000
	mulss	xmm1, DWORD PTR _a$[ebp]
	divss	xmm0, xmm1
	mov	eax, DWORD PTR _root2$[ebp]
	movss	DWORD PTR [eax], xmm0

; 1335 : 
; 1336 : 	return true;

	mov	al, 1
$LN1@SolveQuadr:

; 1337 : }

	pop	edi
	pop	esi
	pop	ebx
	mov	esp, ebp
	pop	ebp
	ret	0
?SolveQuadratic@@YA_NMMMAAM0@Z ENDP			; SolveQuadratic
_TEXT	ENDS
; Function compile flags: /Odtp /ZI
; File d:\!diffusion 2020\source code 2022\client-server\game_shared\mathlib.cpp
;	COMDAT ?ColorNormalize@@YAMABVVector@@AAV1@@Z
_TEXT	SEGMENT
$T1 = -84						; size = 12
_scale$ = -8						; size = 4
_max$ = -4						; size = 4
_in$ = 8						; size = 4
_out$ = 12						; size = 4
?ColorNormalize@@YAMABVVector@@AAV1@@Z PROC		; ColorNormalize, COMDAT

; 1357 : {

	push	ebp
	mov	ebp, esp
	sub	esp, 84					; 00000054H
	push	ebx
	push	esi
	push	edi

; 1358 : 	float	max, scale;
; 1359 : 
; 1360 : 	max = in.x;

	mov	eax, DWORD PTR _in$[ebp]
	movss	xmm0, DWORD PTR [eax]
	movss	DWORD PTR _max$[ebp], xmm0

; 1361 : 	if( in.y > max )

	mov	eax, DWORD PTR _in$[ebp]
	movss	xmm0, DWORD PTR [eax+4]
	comiss	xmm0, DWORD PTR _max$[ebp]
	jbe	SHORT $LN2@ColorNorma

; 1362 : 		max = in.y;

	mov	eax, DWORD PTR _in$[ebp]
	movss	xmm0, DWORD PTR [eax+4]
	movss	DWORD PTR _max$[ebp], xmm0
$LN2@ColorNorma:

; 1363 : 	if( in.z > max )

	mov	eax, DWORD PTR _in$[ebp]
	movss	xmm0, DWORD PTR [eax+8]
	comiss	xmm0, DWORD PTR _max$[ebp]
	jbe	SHORT $LN3@ColorNorma

; 1364 : 		max = in.z;

	mov	eax, DWORD PTR _in$[ebp]
	movss	xmm0, DWORD PTR [eax+8]
	movss	DWORD PTR _max$[ebp], xmm0
$LN3@ColorNorma:

; 1365 : 
; 1366 : 	if( max == 0.0f )

	movss	xmm0, DWORD PTR _max$[ebp]
	ucomiss	xmm0, DWORD PTR __real@00000000
	lahf
	test	ah, 68					; 00000044H
	jp	SHORT $LN4@ColorNorma

; 1367 : 		return 0.0f;

	fldz
	jmp	SHORT $LN1@ColorNorma
$LN4@ColorNorma:

; 1368 : 
; 1369 : 	scale = 1.0f / max;

	movss	xmm0, DWORD PTR __real@3f800000
	divss	xmm0, DWORD PTR _max$[ebp]
	movss	DWORD PTR _scale$[ebp], xmm0

; 1370 : 	out = in * scale;

	push	ecx
	movss	xmm0, DWORD PTR _scale$[ebp]
	movss	DWORD PTR [esp], xmm0
	lea	eax, DWORD PTR $T1[ebp]
	push	eax
	mov	ecx, DWORD PTR _in$[ebp]
	call	??DVector@@QBE?AV0@M@Z			; Vector::operator*
	mov	ecx, DWORD PTR _out$[ebp]
	mov	edx, DWORD PTR [eax]
	mov	DWORD PTR [ecx], edx
	mov	edx, DWORD PTR [eax+4]
	mov	DWORD PTR [ecx+4], edx
	mov	eax, DWORD PTR [eax+8]
	mov	DWORD PTR [ecx+8], eax

; 1371 : 
; 1372 : 	return max;

	fld	DWORD PTR _max$[ebp]
$LN1@ColorNorma:

; 1373 : }

	pop	edi
	pop	esi
	pop	ebx
	mov	esp, ebp
	pop	ebp
	ret	0
?ColorNormalize@@YAMABVVector@@AAV1@@Z ENDP		; ColorNormalize
_TEXT	ENDS
; Function compile flags: /Odtp /ZI
; File d:\!diffusion 2020\source code 2022\client-server\game_shared\mathlib.cpp
;	COMDAT ?VectorMatrix@@YAXAAVVector@@00@Z
_TEXT	SEGMENT
$T1 = -124						; size = 12
$T2 = -112						; size = 12
$T3 = -100						; size = 12
$T4 = -88						; size = 12
$T5 = -76						; size = 12
_forward$ = 8						; size = 4
_right$ = 12						; size = 4
_up$ = 16						; size = 4
?VectorMatrix@@YAXAAVVector@@00@Z PROC			; VectorMatrix, COMDAT

; 1054 : {

	push	ebp
	mov	ebp, esp
	sub	esp, 124				; 0000007cH
	push	ebx
	push	esi
	push	edi

; 1055 : 	if( forward.x || forward.y )

	mov	eax, DWORD PTR _forward$[ebp]
	movss	xmm0, DWORD PTR [eax]
	ucomiss	xmm0, DWORD PTR __real@00000000
	lahf
	test	ah, 68					; 00000044H
	jp	SHORT $LN4@VectorMatr
	mov	eax, DWORD PTR _forward$[ebp]
	movss	xmm0, DWORD PTR [eax+4]
	ucomiss	xmm0, DWORD PTR __real@00000000
	lahf
	test	ah, 68					; 00000044H
	jnp	$LN2@VectorMatr
$LN4@VectorMatr:

; 1056 : 	{
; 1057 : 		right = Vector( forward.y, -forward.x, 0 );

	push	ecx
	xorps	xmm0, xmm0
	movss	DWORD PTR [esp], xmm0
	mov	eax, DWORD PTR _forward$[ebp]
	movss	xmm0, DWORD PTR [eax]
	xorps	xmm0, DWORD PTR __xmm@80000000800000008000000080000000
	push	ecx
	movss	DWORD PTR [esp], xmm0
	mov	ecx, DWORD PTR _forward$[ebp]
	push	ecx
	movss	xmm0, DWORD PTR [ecx+4]
	movss	DWORD PTR [esp], xmm0
	lea	ecx, DWORD PTR $T5[ebp]
	call	??0Vector@@QAE@MMM@Z			; Vector::Vector
	mov	edx, DWORD PTR _right$[ebp]
	mov	ecx, DWORD PTR [eax]
	mov	DWORD PTR [edx], ecx
	mov	ecx, DWORD PTR [eax+4]
	mov	DWORD PTR [edx+4], ecx
	mov	eax, DWORD PTR [eax+8]
	mov	DWORD PTR [edx+8], eax

; 1058 : 		right = right.Normalize();

	lea	eax, DWORD PTR $T4[ebp]
	push	eax
	mov	ecx, DWORD PTR _right$[ebp]
	call	?Normalize@Vector@@QBE?AV1@XZ		; Vector::Normalize
	mov	ecx, DWORD PTR _right$[ebp]
	mov	edx, DWORD PTR [eax]
	mov	DWORD PTR [ecx], edx
	mov	edx, DWORD PTR [eax+4]
	mov	DWORD PTR [ecx+4], edx
	mov	eax, DWORD PTR [eax+8]
	mov	DWORD PTR [ecx+8], eax

; 1059 : 		up = CrossProduct( forward, right );

	mov	eax, DWORD PTR _right$[ebp]
	push	eax
	mov	ecx, DWORD PTR _forward$[ebp]
	push	ecx
	lea	edx, DWORD PTR $T3[ebp]
	push	edx
	call	?CrossProduct@@YA?AVVector@@ABV1@0@Z	; CrossProduct
	add	esp, 12					; 0000000cH
	mov	ecx, DWORD PTR _up$[ebp]
	mov	edx, DWORD PTR [eax]
	mov	DWORD PTR [ecx], edx
	mov	edx, DWORD PTR [eax+4]
	mov	DWORD PTR [ecx+4], edx
	mov	eax, DWORD PTR [eax+8]
	mov	DWORD PTR [ecx+8], eax

; 1060 : 	}
; 1061 : 	else

	jmp	SHORT $LN3@VectorMatr
$LN2@VectorMatr:

; 1062 : 	{
; 1063 : 		right = Vector( 1.0f, 0.0f, 0.0f );

	push	ecx
	xorps	xmm0, xmm0
	movss	DWORD PTR [esp], xmm0
	push	ecx
	xorps	xmm0, xmm0
	movss	DWORD PTR [esp], xmm0
	push	ecx
	movss	xmm0, DWORD PTR __real@3f800000
	movss	DWORD PTR [esp], xmm0
	lea	ecx, DWORD PTR $T2[ebp]
	call	??0Vector@@QAE@MMM@Z			; Vector::Vector
	mov	ecx, DWORD PTR _right$[ebp]
	mov	edx, DWORD PTR [eax]
	mov	DWORD PTR [ecx], edx
	mov	edx, DWORD PTR [eax+4]
	mov	DWORD PTR [ecx+4], edx
	mov	eax, DWORD PTR [eax+8]
	mov	DWORD PTR [ecx+8], eax

; 1064 : 		up = Vector( 0.0f, 1.0f, 0.0f );

	push	ecx
	xorps	xmm0, xmm0
	movss	DWORD PTR [esp], xmm0
	push	ecx
	movss	xmm0, DWORD PTR __real@3f800000
	movss	DWORD PTR [esp], xmm0
	push	ecx
	xorps	xmm0, xmm0
	movss	DWORD PTR [esp], xmm0
	lea	ecx, DWORD PTR $T1[ebp]
	call	??0Vector@@QAE@MMM@Z			; Vector::Vector
	mov	ecx, DWORD PTR _up$[ebp]
	mov	edx, DWORD PTR [eax]
	mov	DWORD PTR [ecx], edx
	mov	edx, DWORD PTR [eax+4]
	mov	DWORD PTR [ecx+4], edx
	mov	eax, DWORD PTR [eax+8]
	mov	DWORD PTR [ecx+8], eax
$LN3@VectorMatr:

; 1065 : 	}
; 1066 : }

	pop	edi
	pop	esi
	pop	ebx
	mov	esp, ebp
	pop	ebp
	ret	0
?VectorMatrix@@YAXAAVVector@@00@Z ENDP			; VectorMatrix
_TEXT	ENDS
; Function compile flags: /Odtp /ZI
; File d:\!diffusion 2020\source code 2022\client-server\game_shared\mathlib.cpp
;	COMDAT ?NormalizeAngles@@YAXAAVVector@@@Z
_TEXT	SEGMENT
tv86 = -72						; size = 4
tv75 = -72						; size = 4
_i$1 = -4						; size = 4
_angles$ = 8						; size = 4
?NormalizeAngles@@YAXAAVVector@@@Z PROC			; NormalizeAngles, COMDAT

; 971  : {

	push	ebp
	mov	ebp, esp
	sub	esp, 72					; 00000048H
	push	ebx
	push	esi
	push	edi

; 972  : 	for( int i = 0; i < 3; i++ )

	mov	DWORD PTR _i$1[ebp], 0
	jmp	SHORT $LN4@NormalizeA
$LN2@NormalizeA:
	mov	eax, DWORD PTR _i$1[ebp]
	add	eax, 1
	mov	DWORD PTR _i$1[ebp], eax
$LN4@NormalizeA:
	cmp	DWORD PTR _i$1[ebp], 3
	jge	$LN3@NormalizeA

; 973  : 	{
; 974  : 		if( angles[i] > 180.0f )

	mov	ecx, DWORD PTR _angles$[ebp]
	call	??BVector@@QAEPAMXZ			; Vector::operator float *
	mov	ecx, DWORD PTR _i$1[ebp]
	movss	xmm0, DWORD PTR [eax+ecx*4]
	comiss	xmm0, DWORD PTR __real@43340000
	jbe	SHORT $LN5@NormalizeA

; 975  : 		{
; 976  : 			angles[i] -= 360.0f;

	mov	ecx, DWORD PTR _angles$[ebp]
	call	??BVector@@QAEPAMXZ			; Vector::operator float *
	mov	ecx, DWORD PTR _i$1[ebp]
	lea	edx, DWORD PTR [eax+ecx*4]
	mov	DWORD PTR tv75[ebp], edx
	mov	eax, DWORD PTR tv75[ebp]
	movss	xmm0, DWORD PTR [eax]
	subss	xmm0, DWORD PTR __real@43b40000
	mov	ecx, DWORD PTR tv75[ebp]
	movss	DWORD PTR [ecx], xmm0
	jmp	SHORT $LN7@NormalizeA
$LN5@NormalizeA:

; 977  : 		}
; 978  : 		else if( angles[i] < -180.0f )

	mov	ecx, DWORD PTR _angles$[ebp]
	call	??BVector@@QAEPAMXZ			; Vector::operator float *
	mov	ecx, DWORD PTR _i$1[ebp]
	movss	xmm0, DWORD PTR __real@c3340000
	comiss	xmm0, DWORD PTR [eax+ecx*4]
	jbe	SHORT $LN7@NormalizeA

; 979  : 		{
; 980  : 			angles[i] += 360.0f;

	mov	ecx, DWORD PTR _angles$[ebp]
	call	??BVector@@QAEPAMXZ			; Vector::operator float *
	mov	ecx, DWORD PTR _i$1[ebp]
	lea	edx, DWORD PTR [eax+ecx*4]
	mov	DWORD PTR tv86[ebp], edx
	mov	eax, DWORD PTR tv86[ebp]
	movss	xmm0, DWORD PTR [eax]
	addss	xmm0, DWORD PTR __real@43b40000
	mov	ecx, DWORD PTR tv86[ebp]
	movss	DWORD PTR [ecx], xmm0
$LN7@NormalizeA:

; 981  : 		}
; 982  : 	}

	jmp	$LN2@NormalizeA
$LN3@NormalizeA:

; 983  : }

	pop	edi
	pop	esi
	pop	ebx
	mov	esp, ebp
	pop	ebp
	ret	0
?NormalizeAngles@@YAXAAVVector@@@Z ENDP			; NormalizeAngles
_TEXT	ENDS
; Function compile flags: /Odtp /ZI
; File d:\!diffusion 2020\source code 2022\client-server\game_shared\mathlib.cpp
;	COMDAT ?InterpolateAngles@@YAXABVVector@@0AAV1@M_N@Z
_TEXT	SEGMENT
tv84 = -84						; size = 4
_d$1 = -16						; size = 4
_ang2$2 = -12						; size = 4
_ang1$3 = -8						; size = 4
_i$4 = -4						; size = 4
_start$ = 8						; size = 4
_end$ = 12						; size = 4
_output$ = 16						; size = 4
_frac$ = 20						; size = 4
_back$ = 24						; size = 1
?InterpolateAngles@@YAXABVVector@@0AAV1@M_N@Z PROC	; InterpolateAngles, COMDAT

; 933  : {

	push	ebp
	mov	ebp, esp
	sub	esp, 84					; 00000054H
	push	ebx
	push	esi
	push	edi

; 934  : #if 0
; 935  : 	Vector4D src, dest;
; 936  : 
; 937  : 	// convert to quaternions
; 938  : 	AngleQuaternion( start, src );
; 939  : 	AngleQuaternion( end, dest );
; 940  : 
; 941  : 	Vector4D result;
; 942  : 	Vector out;
; 943  : 
; 944  : 	// slerp
; 945  : 	QuaternionSlerp( src, dest, frac, result );
; 946  : 
; 947  : 	// convert to euler
; 948  : 	QuaternionAngle( result, out );
; 949  : 
; 950  : 	if( back ) output += out;
; 951  : 	else output = out;
; 952  : #else
; 953  : 	for( int i = 0; i < 3; i++ )

	mov	DWORD PTR _i$4[ebp], 0
	jmp	SHORT $LN4@Interpolat
$LN2@Interpolat:
	mov	eax, DWORD PTR _i$4[ebp]
	add	eax, 1
	mov	DWORD PTR _i$4[ebp], eax
$LN4@Interpolat:
	cmp	DWORD PTR _i$4[ebp], 3
	jge	$LN3@Interpolat

; 954  : 	{
; 955  : 		float	ang1, ang2;
; 956  : 
; 957  : 		ang1 = end[i];

	mov	ecx, DWORD PTR _end$[ebp]
	call	??BVector@@QBEPBMXZ			; Vector::operator float const *
	mov	ecx, DWORD PTR _i$4[ebp]
	movss	xmm0, DWORD PTR [eax+ecx*4]
	movss	DWORD PTR _ang1$3[ebp], xmm0

; 958  : 		ang2 = start[i];

	mov	ecx, DWORD PTR _start$[ebp]
	call	??BVector@@QBEPBMXZ			; Vector::operator float const *
	mov	ecx, DWORD PTR _i$4[ebp]
	movss	xmm0, DWORD PTR [eax+ecx*4]
	movss	DWORD PTR _ang2$2[ebp], xmm0

; 959  : 
; 960  : 		float d = ang1 - ang2;

	movss	xmm0, DWORD PTR _ang1$3[ebp]
	subss	xmm0, DWORD PTR _ang2$2[ebp]
	movss	DWORD PTR _d$1[ebp], xmm0

; 961  : 
; 962  : 		if( d > 180 ) d -= 360;

	movss	xmm0, DWORD PTR _d$1[ebp]
	comiss	xmm0, DWORD PTR __real@43340000
	jbe	SHORT $LN5@Interpolat
	movss	xmm0, DWORD PTR _d$1[ebp]
	subss	xmm0, DWORD PTR __real@43b40000
	movss	DWORD PTR _d$1[ebp], xmm0
	jmp	SHORT $LN7@Interpolat
$LN5@Interpolat:

; 963  : 		else if( d < -180 ) d += 360;

	movss	xmm0, DWORD PTR __real@c3340000
	comiss	xmm0, DWORD PTR _d$1[ebp]
	jbe	SHORT $LN7@Interpolat
	movss	xmm0, DWORD PTR _d$1[ebp]
	addss	xmm0, DWORD PTR __real@43b40000
	movss	DWORD PTR _d$1[ebp], xmm0
$LN7@Interpolat:

; 964  : 
; 965  : 		output[i] += d * frac;

	mov	ecx, DWORD PTR _output$[ebp]
	call	??BVector@@QAEPAMXZ			; Vector::operator float *
	mov	ecx, DWORD PTR _i$4[ebp]
	lea	edx, DWORD PTR [eax+ecx*4]
	mov	DWORD PTR tv84[ebp], edx
	movss	xmm0, DWORD PTR _d$1[ebp]
	mulss	xmm0, DWORD PTR _frac$[ebp]
	mov	eax, DWORD PTR tv84[ebp]
	addss	xmm0, DWORD PTR [eax]
	mov	ecx, DWORD PTR tv84[ebp]
	movss	DWORD PTR [ecx], xmm0

; 966  : 	}

	jmp	$LN2@Interpolat
$LN3@Interpolat:

; 967  : #endif
; 968  : }

	pop	edi
	pop	esi
	pop	ebx
	mov	esp, ebp
	pop	ebp
	ret	0
?InterpolateAngles@@YAXABVVector@@0AAV1@M_N@Z ENDP	; InterpolateAngles
_TEXT	ENDS
; Function compile flags: /Odtp /ZI
; File d:\!diffusion 2020\source code 2022\client-server\game_shared\mathlib.cpp
;	COMDAT ?InterpolateOrigin@@YAXABVVector@@0AAV1@M_N@Z
_TEXT	SEGMENT
$T1 = -124						; size = 12
$T2 = -112						; size = 12
$T3 = -100						; size = 12
$T4 = -88						; size = 12
$T5 = -76						; size = 12
_start$ = 8						; size = 4
_end$ = 12						; size = 4
_output$ = 16						; size = 4
_frac$ = 20						; size = 4
_back$ = 24						; size = 1
?InterpolateOrigin@@YAXABVVector@@0AAV1@M_N@Z PROC	; InterpolateOrigin, COMDAT

; 919  : {

	push	ebp
	mov	ebp, esp
	sub	esp, 124				; 0000007cH
	push	ebx
	push	esi
	push	edi

; 920  : 	if( back ) output += frac * ( end - start );

	movzx	eax, BYTE PTR _back$[ebp]
	test	eax, eax
	je	SHORT $LN2@Interpolat
	mov	eax, DWORD PTR _start$[ebp]
	push	eax
	lea	ecx, DWORD PTR $T5[ebp]
	push	ecx
	mov	ecx, DWORD PTR _end$[ebp]
	call	??GVector@@QBE?AV0@ABV0@@Z		; Vector::operator-
	push	eax
	push	ecx
	movss	xmm0, DWORD PTR _frac$[ebp]
	movss	DWORD PTR [esp], xmm0
	lea	edx, DWORD PTR $T4[ebp]
	push	edx
	call	??D@YA?AVVector@@MABV0@@Z		; operator*
	add	esp, 12					; 0000000cH
	push	eax
	mov	ecx, DWORD PTR _output$[ebp]
	call	??YVector@@QAEAAV0@ABV0@@Z		; Vector::operator+=
	jmp	SHORT $LN3@Interpolat
$LN2@Interpolat:

; 921  : 	else output = start + frac * ( end - start );

	mov	eax, DWORD PTR _start$[ebp]
	push	eax
	lea	ecx, DWORD PTR $T3[ebp]
	push	ecx
	mov	ecx, DWORD PTR _end$[ebp]
	call	??GVector@@QBE?AV0@ABV0@@Z		; Vector::operator-
	push	eax
	push	ecx
	movss	xmm0, DWORD PTR _frac$[ebp]
	movss	DWORD PTR [esp], xmm0
	lea	edx, DWORD PTR $T2[ebp]
	push	edx
	call	??D@YA?AVVector@@MABV0@@Z		; operator*
	add	esp, 12					; 0000000cH
	push	eax
	lea	eax, DWORD PTR $T1[ebp]
	push	eax
	mov	ecx, DWORD PTR _start$[ebp]
	call	??HVector@@QBE?AV0@ABV0@@Z		; Vector::operator+
	mov	ecx, DWORD PTR _output$[ebp]
	mov	edx, DWORD PTR [eax]
	mov	DWORD PTR [ecx], edx
	mov	edx, DWORD PTR [eax+4]
	mov	DWORD PTR [ecx+4], edx
	mov	eax, DWORD PTR [eax+8]
	mov	DWORD PTR [ecx+8], eax
$LN3@Interpolat:

; 922  : }

	pop	edi
	pop	esi
	pop	ebx
	mov	esp, ebp
	pop	ebp
	ret	0
?InterpolateOrigin@@YAXABVVector@@0AAV1@M_N@Z ENDP	; InterpolateOrigin
_TEXT	ENDS
; Function compile flags: /Odtp /ZI
; File d:\!diffusion 2020\source code 2022\client-server\game_shared\mathlib.cpp
;	COMDAT ?QuaternionConjugate@@YAXABVVector4D@@AAV1@@Z
_TEXT	SEGMENT
_p$ = 8							; size = 4
_q$ = 12						; size = 4
?QuaternionConjugate@@YAXABVVector4D@@AAV1@@Z PROC	; QuaternionConjugate, COMDAT

; 885  : {

	push	ebp
	mov	ebp, esp
	sub	esp, 64					; 00000040H
	push	ebx
	push	esi
	push	edi

; 886  : 	q.x = -p.x;

	mov	eax, DWORD PTR _p$[ebp]
	movss	xmm0, DWORD PTR [eax]
	xorps	xmm0, DWORD PTR __xmm@80000000800000008000000080000000
	mov	ecx, DWORD PTR _q$[ebp]
	movss	DWORD PTR [ecx], xmm0

; 887  : 	q.y = -p.y;

	mov	eax, DWORD PTR _p$[ebp]
	movss	xmm0, DWORD PTR [eax+4]
	xorps	xmm0, DWORD PTR __xmm@80000000800000008000000080000000
	mov	ecx, DWORD PTR _q$[ebp]
	movss	DWORD PTR [ecx+4], xmm0

; 888  : 	q.z = -p.z;

	mov	eax, DWORD PTR _p$[ebp]
	movss	xmm0, DWORD PTR [eax+8]
	xorps	xmm0, DWORD PTR __xmm@80000000800000008000000080000000
	mov	ecx, DWORD PTR _q$[ebp]
	movss	DWORD PTR [ecx+8], xmm0

; 889  : 	q.w = p.w;

	mov	eax, DWORD PTR _q$[ebp]
	mov	ecx, DWORD PTR _p$[ebp]
	mov	edx, DWORD PTR [ecx+12]
	mov	DWORD PTR [eax+12], edx

; 890  : }

	pop	edi
	pop	esi
	pop	ebx
	mov	esp, ebp
	pop	ebp
	ret	0
?QuaternionConjugate@@YAXABVVector4D@@AAV1@@Z ENDP	; QuaternionConjugate
_TEXT	ENDS
; Function compile flags: /Odtp /ZI
; File d:\!diffusion 2020\source code 2022\client-server\game_shared\mathlib.cpp
;	COMDAT ?QuaternionScale@@YAXABVVector4D@@MAAV1@@Z
_TEXT	SEGMENT
tv158 = -96						; size = 8
tv74 = -92						; size = 4
_sinsom$ = -24						; size = 4
_sinom$ = -20						; size = 4
_ps$ = -16						; size = 12
_r$ = -4						; size = 4
_p$ = 8							; size = 4
_t$ = 12						; size = 4
_q$ = 16						; size = 4
?QuaternionScale@@YAXABVVector4D@@MAAV1@@Z PROC		; QuaternionScale, COMDAT

; 800  : {

	push	ebp
	mov	ebp, esp
	sub	esp, 96					; 00000060H
	push	ebx
	push	esi
	push	edi

; 801  : 	float r;
; 802  : 
; 803  : 	// FIXME: nick, this isn't overly sensitive to accuracy, and it may be faster to 
; 804  : 	// use the cos part (w) of the quaternion (sin(omega)*N,cos(omega)) to figure the new scale.
; 805  : #if 1
; 806  : 	Vector ps = Vector( p.x, p.y, p.z );

	mov	eax, DWORD PTR _p$[ebp]
	push	ecx
	movss	xmm0, DWORD PTR [eax+8]
	movss	DWORD PTR [esp], xmm0
	mov	ecx, DWORD PTR _p$[ebp]
	push	ecx
	movss	xmm0, DWORD PTR [ecx+4]
	movss	DWORD PTR [esp], xmm0
	mov	edx, DWORD PTR _p$[ebp]
	push	ecx
	movss	xmm0, DWORD PTR [edx]
	movss	DWORD PTR [esp], xmm0
	lea	ecx, DWORD PTR _ps$[ebp]
	call	??0Vector@@QAE@MMM@Z			; Vector::Vector

; 807  : 	float sinom = ps.Length(); // !!!

	lea	ecx, DWORD PTR _ps$[ebp]
	call	?Length@Vector@@QBEMXZ			; Vector::Length
	fstp	DWORD PTR _sinom$[ebp]

; 808  : #else
; 809  : 	float sinom = p.Length(); // !!!
; 810  : #endif
; 811  : 	sinom = Q_min( sinom, 1.0f );

	movss	xmm0, DWORD PTR __real@3f800000
	comiss	xmm0, DWORD PTR _sinom$[ebp]
	jbe	SHORT $LN6@Quaternion
	movss	xmm0, DWORD PTR _sinom$[ebp]
	movss	DWORD PTR tv74[ebp], xmm0
	jmp	SHORT $LN7@Quaternion
$LN6@Quaternion:
	movss	xmm0, DWORD PTR __real@3f800000
	movss	DWORD PTR tv74[ebp], xmm0
$LN7@Quaternion:
	movss	xmm0, DWORD PTR tv74[ebp]
	movss	DWORD PTR _sinom$[ebp], xmm0

; 812  : 	float sinsom = sin( asin( sinom ) * t );

	cvtss2sd xmm0, DWORD PTR _sinom$[ebp]
	sub	esp, 8
	movsd	QWORD PTR [esp], xmm0
	call	_asin
	add	esp, 8
	fstp	QWORD PTR tv158[ebp]
	movsd	xmm0, QWORD PTR tv158[ebp]
	cvtss2sd xmm1, DWORD PTR _t$[ebp]
	mulsd	xmm0, xmm1
	sub	esp, 8
	movsd	QWORD PTR [esp], xmm0
	call	_sin
	add	esp, 8
	fstp	DWORD PTR _sinsom$[ebp]

; 813  : 
; 814  : 	t = sinsom / (sinom + FLT_EPSILON);

	movss	xmm0, DWORD PTR _sinom$[ebp]
	addss	xmm0, DWORD PTR __real@34000000
	movss	xmm1, DWORD PTR _sinsom$[ebp]
	divss	xmm1, xmm0
	movss	DWORD PTR _t$[ebp], xmm1

; 815  : 	q.x = p.x * t;

	mov	eax, DWORD PTR _p$[ebp]
	movss	xmm0, DWORD PTR [eax]
	mulss	xmm0, DWORD PTR _t$[ebp]
	mov	ecx, DWORD PTR _q$[ebp]
	movss	DWORD PTR [ecx], xmm0

; 816  : 	q.y = p.y * t;

	mov	eax, DWORD PTR _p$[ebp]
	movss	xmm0, DWORD PTR [eax+4]
	mulss	xmm0, DWORD PTR _t$[ebp]
	mov	ecx, DWORD PTR _q$[ebp]
	movss	DWORD PTR [ecx+4], xmm0

; 817  : 	q.z = p.z * t;

	mov	eax, DWORD PTR _p$[ebp]
	movss	xmm0, DWORD PTR [eax+8]
	mulss	xmm0, DWORD PTR _t$[ebp]
	mov	ecx, DWORD PTR _q$[ebp]
	movss	DWORD PTR [ecx+8], xmm0

; 818  : 
; 819  : 	// rescale rotation
; 820  : 	r = 1.0f - sinsom * sinsom;

	movss	xmm0, DWORD PTR _sinsom$[ebp]
	mulss	xmm0, DWORD PTR _sinsom$[ebp]
	movss	xmm1, DWORD PTR __real@3f800000
	subss	xmm1, xmm0
	movss	DWORD PTR _r$[ebp], xmm1

; 821  : 
; 822  : 	if( r < 0.0f ) 

	xorps	xmm0, xmm0
	comiss	xmm0, DWORD PTR _r$[ebp]
	jbe	SHORT $LN2@Quaternion

; 823  : 		r = 0.0f;

	xorps	xmm0, xmm0
	movss	DWORD PTR _r$[ebp], xmm0
$LN2@Quaternion:

; 824  : 	r = sqrt( r );

	cvtss2sd xmm0, DWORD PTR _r$[ebp]
	sub	esp, 8
	movsd	QWORD PTR [esp], xmm0
	call	_sqrt
	add	esp, 8
	fstp	DWORD PTR _r$[ebp]

; 825  : 
; 826  : 	// keep sign of rotation
; 827  : 	if( p.w < 0 ) q.w = -r;

	mov	eax, DWORD PTR _p$[ebp]
	xorps	xmm0, xmm0
	comiss	xmm0, DWORD PTR [eax+12]
	jbe	SHORT $LN3@Quaternion
	movss	xmm0, DWORD PTR _r$[ebp]
	xorps	xmm0, DWORD PTR __xmm@80000000800000008000000080000000
	mov	eax, DWORD PTR _q$[ebp]
	movss	DWORD PTR [eax+12], xmm0
	jmp	SHORT $LN4@Quaternion
$LN3@Quaternion:

; 828  : 	else q.w = r;

	mov	eax, DWORD PTR _q$[ebp]
	movss	xmm0, DWORD PTR _r$[ebp]
	movss	DWORD PTR [eax+12], xmm0
$LN4@Quaternion:

; 829  : }

	pop	edi
	pop	esi
	pop	ebx
	mov	esp, ebp
	pop	ebp
	ret	0
?QuaternionScale@@YAXABVVector4D@@MAAV1@@Z ENDP		; QuaternionScale
_TEXT	ENDS
; Function compile flags: /Odtp /ZI
; File d:\!diffusion 2020\source code 2022\client-server\game_shared\mathlib.cpp
;	COMDAT ?QuaternionAngleDiff@@YAMABVVector4D@@0@Z
_TEXT	SEGMENT
tv135 = -112						; size = 8
_angle$ = -40						; size = 4
_sinang$ = -36						; size = 4
_diff$ = -32						; size = 16
_qInv$ = -16						; size = 16
_p$ = 8							; size = 4
_q$ = 12						; size = 4
?QuaternionAngleDiff@@YAMABVVector4D@@0@Z PROC		; QuaternionAngleDiff, COMDAT

; 896  : {

	push	ebp
	mov	ebp, esp
	sub	esp, 112				; 00000070H
	push	ebx
	push	esi
	push	edi

; 897  : 	Vector4D qInv, diff;

	lea	ecx, DWORD PTR _qInv$[ebp]
	call	??0Vector4D@@QAE@XZ			; Vector4D::Vector4D
	lea	ecx, DWORD PTR _diff$[ebp]
	call	??0Vector4D@@QAE@XZ			; Vector4D::Vector4D

; 898  : 	QuaternionConjugate( q, qInv );

	lea	eax, DWORD PTR _qInv$[ebp]
	push	eax
	mov	ecx, DWORD PTR _q$[ebp]
	push	ecx
	call	?QuaternionConjugate@@YAXABVVector4D@@AAV1@@Z ; QuaternionConjugate
	add	esp, 8

; 899  : 	QuaternionMult( p, qInv, diff );

	lea	eax, DWORD PTR _diff$[ebp]
	push	eax
	lea	ecx, DWORD PTR _qInv$[ebp]
	push	ecx
	mov	edx, DWORD PTR _p$[ebp]
	push	edx
	call	?QuaternionMult@@YAXABVVector4D@@0AAV1@@Z ; QuaternionMult
	add	esp, 12					; 0000000cH

; 900  : 
; 901  : 	float sinang = sqrt( diff.x * diff.x + diff.y * diff.y + diff.z * diff.z );

	movss	xmm0, DWORD PTR _diff$[ebp]
	mulss	xmm0, DWORD PTR _diff$[ebp]
	movss	xmm1, DWORD PTR _diff$[ebp+4]
	mulss	xmm1, DWORD PTR _diff$[ebp+4]
	addss	xmm0, xmm1
	movss	xmm1, DWORD PTR _diff$[ebp+8]
	mulss	xmm1, DWORD PTR _diff$[ebp+8]
	addss	xmm0, xmm1
	cvtss2sd xmm0, xmm0
	sub	esp, 8
	movsd	QWORD PTR [esp], xmm0
	call	_sqrt
	add	esp, 8
	fstp	DWORD PTR _sinang$[ebp]

; 902  : 	float angle = RAD2DEG( 2 * asin( sinang ) );

	cvtss2sd xmm0, DWORD PTR _sinang$[ebp]
	sub	esp, 8
	movsd	QWORD PTR [esp], xmm0
	call	_asin
	add	esp, 8
	fstp	QWORD PTR tv135[ebp]
	movsd	xmm0, QWORD PTR tv135[ebp]
	mulsd	xmm0, QWORD PTR __real@4000000000000000
	cvtsd2ss xmm0, xmm0
	mulss	xmm0, DWORD PTR __real@42652ee1
	movss	DWORD PTR _angle$[ebp], xmm0

; 903  : 	return angle;

	fld	DWORD PTR _angle$[ebp]

; 904  : }

	pop	edi
	pop	esi
	pop	ebx
	mov	esp, ebp
	pop	ebp
	ret	0
?QuaternionAngleDiff@@YAMABVVector4D@@0@Z ENDP		; QuaternionAngleDiff
_TEXT	ENDS
; Function compile flags: /Odtp /ZI
; File d:\!diffusion 2020\source code 2022\client-server\game_shared\mathlib.cpp
;	COMDAT ?QuaternionAdd@@YAXABVVector4D@@0AAV1@@Z
_TEXT	SEGMENT
$T1 = -96						; size = 16
_q2$ = -16						; size = 16
_p$ = 8							; size = 4
_q$ = 12						; size = 4
_qt$ = 16						; size = 4
?QuaternionAdd@@YAXABVVector4D@@0AAV1@@Z PROC		; QuaternionAdd, COMDAT

; 722  : {

	push	ebp
	mov	ebp, esp
	sub	esp, 96					; 00000060H
	push	ebx
	push	esi
	push	edi

; 723  : 	Vector4D	q2;

	lea	ecx, DWORD PTR _q2$[ebp]
	call	??0Vector4D@@QAE@XZ			; Vector4D::Vector4D

; 724  : 	QuaternionAlign( p, q, q2 );

	lea	eax, DWORD PTR _q2$[ebp]
	push	eax
	mov	ecx, DWORD PTR _q$[ebp]
	push	ecx
	mov	edx, DWORD PTR _p$[ebp]
	push	edx
	call	?QuaternionAlign@@YAXABVVector4D@@0AAV1@@Z ; QuaternionAlign
	add	esp, 12					; 0000000cH

; 725  : 	qt = p + q2;

	lea	eax, DWORD PTR _q2$[ebp]
	push	eax
	lea	ecx, DWORD PTR $T1[ebp]
	push	ecx
	mov	ecx, DWORD PTR _p$[ebp]
	call	??HVector4D@@QBE?AV0@ABV0@@Z		; Vector4D::operator+
	mov	edx, DWORD PTR _qt$[ebp]
	mov	ecx, DWORD PTR [eax]
	mov	DWORD PTR [edx], ecx
	mov	ecx, DWORD PTR [eax+4]
	mov	DWORD PTR [edx+4], ecx
	mov	ecx, DWORD PTR [eax+8]
	mov	DWORD PTR [edx+8], ecx
	mov	eax, DWORD PTR [eax+12]
	mov	DWORD PTR [edx+12], eax

; 726  : }

	pop	edi
	pop	esi
	pop	ebx
	mov	esp, ebp
	pop	ebp
	ret	0
?QuaternionAdd@@YAXABVVector4D@@0AAV1@@Z ENDP		; QuaternionAdd
_TEXT	ENDS
; Function compile flags: /Odtp /ZI
; File d:\!diffusion 2020\source code 2022\client-server\game_shared\mathlib.cpp
;	COMDAT ?QuaternionMult@@YAXABVVector4D@@0AAV1@@Z
_TEXT	SEGMENT
_q2$ = -32						; size = 16
_p2$1 = -16						; size = 16
_p$ = 8							; size = 4
_q$ = 12						; size = 4
_qt$ = 16						; size = 4
?QuaternionMult@@YAXABVVector4D@@0AAV1@@Z PROC		; QuaternionMult, COMDAT

; 781  : {

	push	ebp
	mov	ebp, esp
	sub	esp, 96					; 00000060H
	push	ebx
	push	esi
	push	edi

; 782  : 	if( &p == &qt )

	mov	eax, DWORD PTR _p$[ebp]
	cmp	eax, DWORD PTR _qt$[ebp]
	jne	SHORT $LN2@Quaternion

; 783  : 	{
; 784  : 		Vector4D	p2 = p;

	mov	eax, DWORD PTR _p$[ebp]
	push	eax
	lea	ecx, DWORD PTR _p2$1[ebp]
	call	??0Vector4D@@QAE@ABV0@@Z		; Vector4D::Vector4D

; 785  : 		QuaternionMult( p2, q, qt );

	mov	eax, DWORD PTR _qt$[ebp]
	push	eax
	mov	ecx, DWORD PTR _q$[ebp]
	push	ecx
	lea	edx, DWORD PTR _p2$1[ebp]
	push	edx
	call	?QuaternionMult@@YAXABVVector4D@@0AAV1@@Z ; QuaternionMult
	add	esp, 12					; 0000000cH

; 786  : 		return;

	jmp	$LN1@Quaternion
$LN2@Quaternion:

; 787  : 	}
; 788  : 
; 789  : 	// decide if one of the quaternions is backwards
; 790  : 	Vector4D	q2;

	lea	ecx, DWORD PTR _q2$[ebp]
	call	??0Vector4D@@QAE@XZ			; Vector4D::Vector4D

; 791  : 
; 792  : 	QuaternionAlign( p, q, q2 );

	lea	eax, DWORD PTR _q2$[ebp]
	push	eax
	mov	ecx, DWORD PTR _q$[ebp]
	push	ecx
	mov	edx, DWORD PTR _p$[ebp]
	push	edx
	call	?QuaternionAlign@@YAXABVVector4D@@0AAV1@@Z ; QuaternionAlign
	add	esp, 12					; 0000000cH

; 793  : 	qt.x =  p.x * q2.w + p.y * q2.z - p.z * q2.y + p.w * q2.x;

	mov	eax, DWORD PTR _p$[ebp]
	movss	xmm0, DWORD PTR [eax]
	mulss	xmm0, DWORD PTR _q2$[ebp+12]
	mov	ecx, DWORD PTR _p$[ebp]
	movss	xmm1, DWORD PTR [ecx+4]
	mulss	xmm1, DWORD PTR _q2$[ebp+8]
	addss	xmm0, xmm1
	mov	edx, DWORD PTR _p$[ebp]
	movss	xmm1, DWORD PTR [edx+8]
	mulss	xmm1, DWORD PTR _q2$[ebp+4]
	subss	xmm0, xmm1
	mov	eax, DWORD PTR _p$[ebp]
	movss	xmm1, DWORD PTR [eax+12]
	mulss	xmm1, DWORD PTR _q2$[ebp]
	addss	xmm0, xmm1
	mov	ecx, DWORD PTR _qt$[ebp]
	movss	DWORD PTR [ecx], xmm0

; 794  : 	qt.y = -p.x * q2.z + p.y * q2.w + p.z * q2.x + p.w * q2.y;

	mov	eax, DWORD PTR _p$[ebp]
	movss	xmm0, DWORD PTR [eax]
	xorps	xmm0, DWORD PTR __xmm@80000000800000008000000080000000
	mulss	xmm0, DWORD PTR _q2$[ebp+8]
	mov	ecx, DWORD PTR _p$[ebp]
	movss	xmm1, DWORD PTR [ecx+4]
	mulss	xmm1, DWORD PTR _q2$[ebp+12]
	addss	xmm0, xmm1
	mov	edx, DWORD PTR _p$[ebp]
	movss	xmm1, DWORD PTR [edx+8]
	mulss	xmm1, DWORD PTR _q2$[ebp]
	addss	xmm0, xmm1
	mov	eax, DWORD PTR _p$[ebp]
	movss	xmm1, DWORD PTR [eax+12]
	mulss	xmm1, DWORD PTR _q2$[ebp+4]
	addss	xmm0, xmm1
	mov	ecx, DWORD PTR _qt$[ebp]
	movss	DWORD PTR [ecx+4], xmm0

; 795  : 	qt.z =  p.x * q2.y - p.y * q2.x + p.z * q2.w + p.w * q2.z;

	mov	eax, DWORD PTR _p$[ebp]
	movss	xmm0, DWORD PTR [eax]
	mulss	xmm0, DWORD PTR _q2$[ebp+4]
	mov	ecx, DWORD PTR _p$[ebp]
	movss	xmm1, DWORD PTR [ecx+4]
	mulss	xmm1, DWORD PTR _q2$[ebp]
	subss	xmm0, xmm1
	mov	edx, DWORD PTR _p$[ebp]
	movss	xmm1, DWORD PTR [edx+8]
	mulss	xmm1, DWORD PTR _q2$[ebp+12]
	addss	xmm0, xmm1
	mov	eax, DWORD PTR _p$[ebp]
	movss	xmm1, DWORD PTR [eax+12]
	mulss	xmm1, DWORD PTR _q2$[ebp+8]
	addss	xmm0, xmm1
	mov	ecx, DWORD PTR _qt$[ebp]
	movss	DWORD PTR [ecx+8], xmm0

; 796  : 	qt.w = -p.x * q2.x - p.y * q2.y - p.z * q2.z + p.w * q2.w;

	mov	eax, DWORD PTR _p$[ebp]
	movss	xmm0, DWORD PTR [eax]
	xorps	xmm0, DWORD PTR __xmm@80000000800000008000000080000000
	mulss	xmm0, DWORD PTR _q2$[ebp]
	mov	ecx, DWORD PTR _p$[ebp]
	movss	xmm1, DWORD PTR [ecx+4]
	mulss	xmm1, DWORD PTR _q2$[ebp+4]
	subss	xmm0, xmm1
	mov	edx, DWORD PTR _p$[ebp]
	movss	xmm1, DWORD PTR [edx+8]
	mulss	xmm1, DWORD PTR _q2$[ebp+8]
	subss	xmm0, xmm1
	mov	eax, DWORD PTR _p$[ebp]
	movss	xmm1, DWORD PTR [eax+12]
	mulss	xmm1, DWORD PTR _q2$[ebp+12]
	addss	xmm0, xmm1
	mov	ecx, DWORD PTR _qt$[ebp]
	movss	DWORD PTR [ecx+12], xmm0
$LN1@Quaternion:

; 797  : }

	pop	edi
	pop	esi
	pop	ebx
	mov	esp, ebp
	pop	ebp
	ret	0
?QuaternionMult@@YAXABVVector4D@@0AAV1@@Z ENDP		; QuaternionMult
_TEXT	ENDS
; Function compile flags: /Odtp /ZI
; File d:\!diffusion 2020\source code 2022\client-server\game_shared\mathlib.cpp
;	COMDAT ?QuaternionAccumulate@@YAXABVVector4D@@M0AAV1@@Z
_TEXT	SEGMENT
tv197 = -84						; size = 4
tv195 = -84						; size = 4
tv193 = -84						; size = 4
tv191 = -84						; size = 4
_q2$ = -16						; size = 16
_p$ = 8							; size = 4
_s$ = 12						; size = 4
_q$ = 16						; size = 4
_qt$ = 20						; size = 4
?QuaternionAccumulate@@YAXABVVector4D@@M0AAV1@@Z PROC	; QuaternionAccumulate, COMDAT

; 874  : {

	push	ebp
	mov	ebp, esp
	sub	esp, 84					; 00000054H
	push	ebx
	push	esi
	push	edi

; 875  : 	Vector4D	q2;

	lea	ecx, DWORD PTR _q2$[ebp]
	call	??0Vector4D@@QAE@XZ			; Vector4D::Vector4D

; 876  : 
; 877  : 	QuaternionAlign( p, q, q2 );

	lea	eax, DWORD PTR _q2$[ebp]
	push	eax
	mov	ecx, DWORD PTR _q$[ebp]
	push	ecx
	mov	edx, DWORD PTR _p$[ebp]
	push	edx
	call	?QuaternionAlign@@YAXABVVector4D@@0AAV1@@Z ; QuaternionAlign
	add	esp, 12					; 0000000cH

; 878  : 	qt[0] = p[0] + s * q2[0];

	mov	ecx, DWORD PTR _p$[ebp]
	call	??BVector4D@@QBEPBMXZ			; Vector4D::operator float const *
	mov	esi, eax
	mov	eax, 4
	imul	edi, eax, 0
	lea	ecx, DWORD PTR _q2$[ebp]
	call	??BVector4D@@QAEPAMXZ			; Vector4D::operator float *
	mov	ecx, 4
	imul	edx, ecx, 0
	movss	xmm0, DWORD PTR _s$[ebp]
	mulss	xmm0, DWORD PTR [eax+edx]
	addss	xmm0, DWORD PTR [esi+edi]
	mov	ecx, DWORD PTR _qt$[ebp]
	movss	DWORD PTR tv191[ebp], xmm0
	call	??BVector4D@@QAEPAMXZ			; Vector4D::operator float *
	mov	ecx, 4
	imul	edx, ecx, 0
	movss	xmm0, DWORD PTR tv191[ebp]
	movss	DWORD PTR [eax+edx], xmm0

; 879  : 	qt[1] = p[1] + s * q2[1];

	mov	ecx, DWORD PTR _p$[ebp]
	call	??BVector4D@@QBEPBMXZ			; Vector4D::operator float const *
	mov	esi, eax
	mov	edi, 4
	shl	edi, 0
	lea	ecx, DWORD PTR _q2$[ebp]
	call	??BVector4D@@QAEPAMXZ			; Vector4D::operator float *
	mov	ecx, 4
	shl	ecx, 0
	movss	xmm0, DWORD PTR _s$[ebp]
	mulss	xmm0, DWORD PTR [eax+ecx]
	addss	xmm0, DWORD PTR [esi+edi]
	mov	ecx, DWORD PTR _qt$[ebp]
	movss	DWORD PTR tv193[ebp], xmm0
	call	??BVector4D@@QAEPAMXZ			; Vector4D::operator float *
	mov	edx, 4
	shl	edx, 0
	movss	xmm0, DWORD PTR tv193[ebp]
	movss	DWORD PTR [eax+edx], xmm0

; 880  : 	qt[2] = p[2] + s * q2[2];

	mov	ecx, DWORD PTR _p$[ebp]
	call	??BVector4D@@QBEPBMXZ			; Vector4D::operator float const *
	mov	esi, eax
	mov	edi, 4
	shl	edi, 1
	lea	ecx, DWORD PTR _q2$[ebp]
	call	??BVector4D@@QAEPAMXZ			; Vector4D::operator float *
	mov	ecx, 4
	shl	ecx, 1
	movss	xmm0, DWORD PTR _s$[ebp]
	mulss	xmm0, DWORD PTR [eax+ecx]
	addss	xmm0, DWORD PTR [esi+edi]
	mov	ecx, DWORD PTR _qt$[ebp]
	movss	DWORD PTR tv195[ebp], xmm0
	call	??BVector4D@@QAEPAMXZ			; Vector4D::operator float *
	mov	edx, 4
	shl	edx, 1
	movss	xmm0, DWORD PTR tv195[ebp]
	movss	DWORD PTR [eax+edx], xmm0

; 881  : 	qt[3] = p[3] + s * q2[3];

	mov	ecx, DWORD PTR _p$[ebp]
	call	??BVector4D@@QBEPBMXZ			; Vector4D::operator float const *
	mov	esi, eax
	mov	eax, 4
	imul	edi, eax, 3
	lea	ecx, DWORD PTR _q2$[ebp]
	call	??BVector4D@@QAEPAMXZ			; Vector4D::operator float *
	mov	ecx, 4
	imul	edx, ecx, 3
	movss	xmm0, DWORD PTR _s$[ebp]
	mulss	xmm0, DWORD PTR [eax+edx]
	addss	xmm0, DWORD PTR [esi+edi]
	mov	ecx, DWORD PTR _qt$[ebp]
	movss	DWORD PTR tv197[ebp], xmm0
	call	??BVector4D@@QAEPAMXZ			; Vector4D::operator float *
	mov	ecx, 4
	imul	edx, ecx, 3
	movss	xmm0, DWORD PTR tv197[ebp]
	movss	DWORD PTR [eax+edx], xmm0

; 882  : }

	pop	edi
	pop	esi
	pop	ebx
	mov	esp, ebp
	pop	ebp
	ret	0
?QuaternionAccumulate@@YAXABVVector4D@@M0AAV1@@Z ENDP	; QuaternionAccumulate
_TEXT	ENDS
; Function compile flags: /Odtp /ZI
; File d:\!diffusion 2020\source code 2022\client-server\game_shared\mathlib.cpp
;	COMDAT ?QuaternionMA@@YAXABVVector4D@@M0AAV1@@Z
_TEXT	SEGMENT
$T1 = -112						; size = 16
_q1$ = -32						; size = 16
_p1$ = -16						; size = 16
_p$ = 8							; size = 4
_s$ = 12						; size = 4
_q$ = 16						; size = 4
_qt$ = 20						; size = 4
?QuaternionMA@@YAXABVVector4D@@M0AAV1@@Z PROC		; QuaternionMA, COMDAT

; 862  : {

	push	ebp
	mov	ebp, esp
	sub	esp, 112				; 00000070H
	push	ebx
	push	esi
	push	edi

; 863  : 	Vector4D p1, q1;

	lea	ecx, DWORD PTR _p1$[ebp]
	call	??0Vector4D@@QAE@XZ			; Vector4D::Vector4D
	lea	ecx, DWORD PTR _q1$[ebp]
	call	??0Vector4D@@QAE@XZ			; Vector4D::Vector4D

; 864  : 
; 865  : 	QuaternionScale( q, s, q1 );

	lea	eax, DWORD PTR _q1$[ebp]
	push	eax
	push	ecx
	movss	xmm0, DWORD PTR _s$[ebp]
	movss	DWORD PTR [esp], xmm0
	mov	ecx, DWORD PTR _q$[ebp]
	push	ecx
	call	?QuaternionScale@@YAXABVVector4D@@MAAV1@@Z ; QuaternionScale
	add	esp, 12					; 0000000cH

; 866  : 	QuaternionMult( p, q1, p1 );

	lea	eax, DWORD PTR _p1$[ebp]
	push	eax
	lea	ecx, DWORD PTR _q1$[ebp]
	push	ecx
	mov	edx, DWORD PTR _p$[ebp]
	push	edx
	call	?QuaternionMult@@YAXABVVector4D@@0AAV1@@Z ; QuaternionMult
	add	esp, 12					; 0000000cH

; 867  : 	qt = p1.Normalize();

	lea	eax, DWORD PTR $T1[ebp]
	push	eax
	lea	ecx, DWORD PTR _p1$[ebp]
	call	?Normalize@Vector4D@@QBE?AV1@XZ		; Vector4D::Normalize
	mov	ecx, DWORD PTR _qt$[ebp]
	mov	edx, DWORD PTR [eax]
	mov	DWORD PTR [ecx], edx
	mov	edx, DWORD PTR [eax+4]
	mov	DWORD PTR [ecx+4], edx
	mov	edx, DWORD PTR [eax+8]
	mov	DWORD PTR [ecx+8], edx
	mov	eax, DWORD PTR [eax+12]
	mov	DWORD PTR [ecx+12], eax

; 868  : }

	pop	edi
	pop	esi
	pop	ebx
	mov	esp, ebp
	pop	ebp
	ret	0
?QuaternionMA@@YAXABVVector4D@@M0AAV1@@Z ENDP		; QuaternionMA
_TEXT	ENDS
; Function compile flags: /Odtp /ZI
; File d:\!diffusion 2020\source code 2022\client-server\game_shared\mathlib.cpp
;	COMDAT ?QuaternionSM@@YAXMABVVector4D@@0AAV1@@Z
_TEXT	SEGMENT
$T1 = -112						; size = 16
_q1$ = -32						; size = 16
_p1$ = -16						; size = 16
_s$ = 8							; size = 4
_p$ = 12						; size = 4
_q$ = 16						; size = 4
_qt$ = 20						; size = 4
?QuaternionSM@@YAXMABVVector4D@@0AAV1@@Z PROC		; QuaternionSM, COMDAT

; 850  : {

	push	ebp
	mov	ebp, esp
	sub	esp, 112				; 00000070H
	push	ebx
	push	esi
	push	edi

; 851  : 	Vector4D	p1, q1;

	lea	ecx, DWORD PTR _p1$[ebp]
	call	??0Vector4D@@QAE@XZ			; Vector4D::Vector4D
	lea	ecx, DWORD PTR _q1$[ebp]
	call	??0Vector4D@@QAE@XZ			; Vector4D::Vector4D

; 852  : 
; 853  : 	QuaternionScale( p, s, p1 );

	lea	eax, DWORD PTR _p1$[ebp]
	push	eax
	push	ecx
	movss	xmm0, DWORD PTR _s$[ebp]
	movss	DWORD PTR [esp], xmm0
	mov	ecx, DWORD PTR _p$[ebp]
	push	ecx
	call	?QuaternionScale@@YAXABVVector4D@@MAAV1@@Z ; QuaternionScale
	add	esp, 12					; 0000000cH

; 854  : 	QuaternionMult( p1, q, q1 );

	lea	eax, DWORD PTR _q1$[ebp]
	push	eax
	mov	ecx, DWORD PTR _q$[ebp]
	push	ecx
	lea	edx, DWORD PTR _p1$[ebp]
	push	edx
	call	?QuaternionMult@@YAXABVVector4D@@0AAV1@@Z ; QuaternionMult
	add	esp, 12					; 0000000cH

; 855  : 	qt = q1.Normalize();

	lea	eax, DWORD PTR $T1[ebp]
	push	eax
	lea	ecx, DWORD PTR _q1$[ebp]
	call	?Normalize@Vector4D@@QBE?AV1@XZ		; Vector4D::Normalize
	mov	ecx, DWORD PTR _qt$[ebp]
	mov	edx, DWORD PTR [eax]
	mov	DWORD PTR [ecx], edx
	mov	edx, DWORD PTR [eax+4]
	mov	DWORD PTR [ecx+4], edx
	mov	edx, DWORD PTR [eax+8]
	mov	DWORD PTR [ecx+8], edx
	mov	eax, DWORD PTR [eax+12]
	mov	DWORD PTR [ecx+12], eax

; 856  : }

	pop	edi
	pop	esi
	pop	ebx
	mov	esp, ebp
	pop	ebp
	ret	0
?QuaternionSM@@YAXMABVVector4D@@0AAV1@@Z ENDP		; QuaternionSM
_TEXT	ENDS
; Function compile flags: /Odtp /ZI
; File d:\!diffusion 2020\source code 2022\client-server\game_shared\mathlib.cpp
;	COMDAT ?QuaternionConcatTransforms@@YAXABVVector4D@@ABVVector@@01AAV1@AAV2@@Z
_TEXT	SEGMENT
_q1$ = 8						; size = 4
_v1$ = 12						; size = 4
_q2$ = 16						; size = 4
_v2$ = 20						; size = 4
_q$ = 24						; size = 4
_v$ = 28						; size = 4
?QuaternionConcatTransforms@@YAXABVVector4D@@ABVVector@@01AAV1@AAV2@@Z PROC ; QuaternionConcatTransforms, COMDAT

; 774  : {

	push	ebp
	mov	ebp, esp
	sub	esp, 64					; 00000040H
	push	ebx
	push	esi
	push	edi

; 775  : 	QuaternionMultiply( q1, q2, q );

	mov	eax, DWORD PTR _q$[ebp]
	push	eax
	mov	ecx, DWORD PTR _q2$[ebp]
	push	ecx
	mov	edx, DWORD PTR _q1$[ebp]
	push	edx
	call	?QuaternionMultiply@@YAXABVVector4D@@0AAV1@@Z ; QuaternionMultiply
	add	esp, 12					; 0000000cH

; 776  : 	QuaternionVectorTransform( q1, v2, v );

	mov	eax, DWORD PTR _v$[ebp]
	push	eax
	mov	ecx, DWORD PTR _v2$[ebp]
	push	ecx
	mov	edx, DWORD PTR _q1$[ebp]
	push	edx
	call	?QuaternionVectorTransform@@YAXABVVector4D@@ABVVector@@AAV2@@Z ; QuaternionVectorTransform
	add	esp, 12					; 0000000cH

; 777  : 	v += v1;

	mov	eax, DWORD PTR _v1$[ebp]
	push	eax
	mov	ecx, DWORD PTR _v$[ebp]
	call	??YVector@@QAEAAV0@ABV0@@Z		; Vector::operator+=

; 778  : }

	pop	edi
	pop	esi
	pop	ebx
	mov	esp, ebp
	pop	ebp
	ret	0
?QuaternionConcatTransforms@@YAXABVVector4D@@ABVVector@@01AAV1@AAV2@@Z ENDP ; QuaternionConcatTransforms
_TEXT	ENDS
; Function compile flags: /Odtp /ZI
; File d:\!diffusion 2020\source code 2022\client-server\game_shared\mathlib.cpp
;	COMDAT ?QuaternionVectorTransform@@YAXABVVector4D@@ABVVector@@AAV2@@Z
_TEXT	SEGMENT
tv352 = -136						; size = 4
tv340 = -136						; size = 4
tv328 = -136						; size = 4
tv350 = -132						; size = 4
tv338 = -132						; size = 4
tv326 = -132						; size = 4
tv348 = -128						; size = 4
tv336 = -128						; size = 4
tv324 = -128						; size = 4
tv346 = -124						; size = 4
tv334 = -124						; size = 4
tv322 = -124						; size = 4
tv344 = -120						; size = 4
tv332 = -120						; size = 4
tv320 = -120						; size = 4
tv342 = -116						; size = 4
tv330 = -116						; size = 4
tv318 = -116						; size = 4
_z2$ = -48						; size = 4
_y2$ = -44						; size = 4
_x2$ = -40						; size = 4
_zz$ = -36						; size = 4
_xz$ = -32						; size = 4
_xy$ = -28						; size = 4
_yz$ = -24						; size = 4
_yy$ = -20						; size = 4
_xx$ = -16						; size = 4
_wz$ = -12						; size = 4
_wy$ = -8						; size = 4
_wx$ = -4						; size = 4
_q$ = 8							; size = 4
_v$ = 12						; size = 4
_out$ = 16						; size = 4
?QuaternionVectorTransform@@YAXABVVector4D@@ABVVector@@AAV2@@Z PROC ; QuaternionVectorTransform, COMDAT

; 751  : {

	push	ebp
	mov	ebp, esp
	sub	esp, 136				; 00000088H
	push	ebx
	push	esi
	push	edi

; 752  : 	float	wx, wy, wz, xx, yy, yz, xy, xz, zz, x2, y2, z2;
; 753  : 
; 754  : 	// 9 muls, 3 adds
; 755  : 	x2 = q[0] + q[0]; y2 = q[1] + q[1]; z2 = q[2] + q[2];

	mov	ecx, DWORD PTR _q$[ebp]
	call	??BVector4D@@QBEPBMXZ			; Vector4D::operator float const *
	mov	esi, eax
	mov	eax, 4
	imul	edi, eax, 0
	mov	ecx, DWORD PTR _q$[ebp]
	call	??BVector4D@@QBEPBMXZ			; Vector4D::operator float const *
	mov	ecx, 4
	imul	edx, ecx, 0
	movss	xmm0, DWORD PTR [esi+edi]
	addss	xmm0, DWORD PTR [eax+edx]
	movss	DWORD PTR _x2$[ebp], xmm0
	mov	ecx, DWORD PTR _q$[ebp]
	call	??BVector4D@@QBEPBMXZ			; Vector4D::operator float const *
	mov	esi, eax
	mov	edi, 4
	shl	edi, 0
	mov	ecx, DWORD PTR _q$[ebp]
	call	??BVector4D@@QBEPBMXZ			; Vector4D::operator float const *
	mov	ecx, 4
	shl	ecx, 0
	movss	xmm0, DWORD PTR [esi+edi]
	addss	xmm0, DWORD PTR [eax+ecx]
	movss	DWORD PTR _y2$[ebp], xmm0
	mov	ecx, DWORD PTR _q$[ebp]
	call	??BVector4D@@QBEPBMXZ			; Vector4D::operator float const *
	mov	esi, eax
	mov	edi, 4
	shl	edi, 1
	mov	ecx, DWORD PTR _q$[ebp]
	call	??BVector4D@@QBEPBMXZ			; Vector4D::operator float const *
	mov	ecx, 4
	shl	ecx, 1
	movss	xmm0, DWORD PTR [esi+edi]
	addss	xmm0, DWORD PTR [eax+ecx]
	movss	DWORD PTR _z2$[ebp], xmm0

; 756  : 	xx = q[0] * x2; xy = q[0] * y2; xz = q[0] * z2;

	mov	ecx, DWORD PTR _q$[ebp]
	call	??BVector4D@@QBEPBMXZ			; Vector4D::operator float const *
	mov	ecx, 4
	imul	edx, ecx, 0
	movss	xmm0, DWORD PTR [eax+edx]
	mulss	xmm0, DWORD PTR _x2$[ebp]
	movss	DWORD PTR _xx$[ebp], xmm0
	mov	ecx, DWORD PTR _q$[ebp]
	call	??BVector4D@@QBEPBMXZ			; Vector4D::operator float const *
	mov	ecx, 4
	imul	edx, ecx, 0
	movss	xmm0, DWORD PTR [eax+edx]
	mulss	xmm0, DWORD PTR _y2$[ebp]
	movss	DWORD PTR _xy$[ebp], xmm0
	mov	ecx, DWORD PTR _q$[ebp]
	call	??BVector4D@@QBEPBMXZ			; Vector4D::operator float const *
	mov	ecx, 4
	imul	edx, ecx, 0
	movss	xmm0, DWORD PTR [eax+edx]
	mulss	xmm0, DWORD PTR _z2$[ebp]
	movss	DWORD PTR _xz$[ebp], xmm0

; 757  : 	yy = q[1] * y2; yz = q[1] * z2; zz = q[2] * z2;

	mov	ecx, DWORD PTR _q$[ebp]
	call	??BVector4D@@QBEPBMXZ			; Vector4D::operator float const *
	mov	ecx, 4
	shl	ecx, 0
	movss	xmm0, DWORD PTR [eax+ecx]
	mulss	xmm0, DWORD PTR _y2$[ebp]
	movss	DWORD PTR _yy$[ebp], xmm0
	mov	ecx, DWORD PTR _q$[ebp]
	call	??BVector4D@@QBEPBMXZ			; Vector4D::operator float const *
	mov	ecx, 4
	shl	ecx, 0
	movss	xmm0, DWORD PTR [eax+ecx]
	mulss	xmm0, DWORD PTR _z2$[ebp]
	movss	DWORD PTR _yz$[ebp], xmm0
	mov	ecx, DWORD PTR _q$[ebp]
	call	??BVector4D@@QBEPBMXZ			; Vector4D::operator float const *
	mov	ecx, 4
	shl	ecx, 1
	movss	xmm0, DWORD PTR [eax+ecx]
	mulss	xmm0, DWORD PTR _z2$[ebp]
	movss	DWORD PTR _zz$[ebp], xmm0

; 758  : 	wx = q[3] * x2; wy = q[3] * y2; wz = q[3] * z2;

	mov	ecx, DWORD PTR _q$[ebp]
	call	??BVector4D@@QBEPBMXZ			; Vector4D::operator float const *
	mov	ecx, 4
	imul	edx, ecx, 3
	movss	xmm0, DWORD PTR [eax+edx]
	mulss	xmm0, DWORD PTR _x2$[ebp]
	movss	DWORD PTR _wx$[ebp], xmm0
	mov	ecx, DWORD PTR _q$[ebp]
	call	??BVector4D@@QBEPBMXZ			; Vector4D::operator float const *
	mov	ecx, 4
	imul	edx, ecx, 3
	movss	xmm0, DWORD PTR [eax+edx]
	mulss	xmm0, DWORD PTR _y2$[ebp]
	movss	DWORD PTR _wy$[ebp], xmm0
	mov	ecx, DWORD PTR _q$[ebp]
	call	??BVector4D@@QBEPBMXZ			; Vector4D::operator float const *
	mov	ecx, 4
	imul	edx, ecx, 3
	movss	xmm0, DWORD PTR [eax+edx]
	mulss	xmm0, DWORD PTR _z2$[ebp]
	movss	DWORD PTR _wz$[ebp], xmm0

; 759  : 
; 760  : 	// 9 muls, 9 subs, 9 adds
; 761  : 	out[0] = ( 1.0f - yy - zz ) * v[0] + ( xy - wz ) * v[1] + ( xz + wy ) * v[2];

	movss	xmm0, DWORD PTR __real@3f800000
	subss	xmm0, DWORD PTR _yy$[ebp]
	subss	xmm0, DWORD PTR _zz$[ebp]
	mov	ecx, DWORD PTR _v$[ebp]
	movss	DWORD PTR tv318[ebp], xmm0
	call	??BVector@@QBEPBMXZ			; Vector::operator float const *
	mov	ecx, 4
	imul	edx, ecx, 0
	movss	xmm0, DWORD PTR tv318[ebp]
	mulss	xmm0, DWORD PTR [eax+edx]
	movss	xmm1, DWORD PTR _xy$[ebp]
	subss	xmm1, DWORD PTR _wz$[ebp]
	mov	ecx, DWORD PTR _v$[ebp]
	movss	DWORD PTR tv320[ebp], xmm0
	movss	DWORD PTR tv322[ebp], xmm1
	call	??BVector@@QBEPBMXZ			; Vector::operator float const *
	mov	ecx, 4
	shl	ecx, 0
	movss	xmm0, DWORD PTR tv322[ebp]
	mulss	xmm0, DWORD PTR [eax+ecx]
	movss	xmm1, DWORD PTR tv320[ebp]
	addss	xmm1, xmm0
	movss	xmm0, DWORD PTR _xz$[ebp]
	addss	xmm0, DWORD PTR _wy$[ebp]
	mov	ecx, DWORD PTR _v$[ebp]
	movss	DWORD PTR tv324[ebp], xmm0
	movss	DWORD PTR tv326[ebp], xmm1
	call	??BVector@@QBEPBMXZ			; Vector::operator float const *
	mov	edx, 4
	shl	edx, 1
	movss	xmm0, DWORD PTR tv324[ebp]
	mulss	xmm0, DWORD PTR [eax+edx]
	movss	xmm1, DWORD PTR tv326[ebp]
	addss	xmm1, xmm0
	mov	ecx, DWORD PTR _out$[ebp]
	movss	DWORD PTR tv328[ebp], xmm1
	call	??BVector@@QAEPAMXZ			; Vector::operator float *
	mov	ecx, 4
	imul	edx, ecx, 0
	movss	xmm0, DWORD PTR tv328[ebp]
	movss	DWORD PTR [eax+edx], xmm0

; 762  : 	out[1] = ( xy + wz ) * v[0] + ( 1.0f - xx - zz ) * v[1] + ( yz - wx ) * v[2];

	movss	xmm0, DWORD PTR _xy$[ebp]
	addss	xmm0, DWORD PTR _wz$[ebp]
	mov	ecx, DWORD PTR _v$[ebp]
	movss	DWORD PTR tv330[ebp], xmm0
	call	??BVector@@QBEPBMXZ			; Vector::operator float const *
	mov	ecx, 4
	imul	edx, ecx, 0
	movss	xmm0, DWORD PTR tv330[ebp]
	mulss	xmm0, DWORD PTR [eax+edx]
	movss	xmm1, DWORD PTR __real@3f800000
	subss	xmm1, DWORD PTR _xx$[ebp]
	subss	xmm1, DWORD PTR _zz$[ebp]
	mov	ecx, DWORD PTR _v$[ebp]
	movss	DWORD PTR tv332[ebp], xmm0
	movss	DWORD PTR tv334[ebp], xmm1
	call	??BVector@@QBEPBMXZ			; Vector::operator float const *
	mov	ecx, 4
	shl	ecx, 0
	movss	xmm0, DWORD PTR tv334[ebp]
	mulss	xmm0, DWORD PTR [eax+ecx]
	movss	xmm1, DWORD PTR tv332[ebp]
	addss	xmm1, xmm0
	movss	xmm0, DWORD PTR _yz$[ebp]
	subss	xmm0, DWORD PTR _wx$[ebp]
	mov	ecx, DWORD PTR _v$[ebp]
	movss	DWORD PTR tv336[ebp], xmm0
	movss	DWORD PTR tv338[ebp], xmm1
	call	??BVector@@QBEPBMXZ			; Vector::operator float const *
	mov	edx, 4
	shl	edx, 1
	movss	xmm0, DWORD PTR tv336[ebp]
	mulss	xmm0, DWORD PTR [eax+edx]
	movss	xmm1, DWORD PTR tv338[ebp]
	addss	xmm1, xmm0
	mov	ecx, DWORD PTR _out$[ebp]
	movss	DWORD PTR tv340[ebp], xmm1
	call	??BVector@@QAEPAMXZ			; Vector::operator float *
	mov	ecx, 4
	shl	ecx, 0
	movss	xmm0, DWORD PTR tv340[ebp]
	movss	DWORD PTR [eax+ecx], xmm0

; 763  : 	out[2] = ( xz - wy ) * v[0] + ( yz + wx ) * v[1] + ( 1.0f - xx - yy ) * v[2];

	movss	xmm0, DWORD PTR _xz$[ebp]
	subss	xmm0, DWORD PTR _wy$[ebp]
	mov	ecx, DWORD PTR _v$[ebp]
	movss	DWORD PTR tv342[ebp], xmm0
	call	??BVector@@QBEPBMXZ			; Vector::operator float const *
	mov	ecx, 4
	imul	edx, ecx, 0
	movss	xmm0, DWORD PTR tv342[ebp]
	mulss	xmm0, DWORD PTR [eax+edx]
	movss	xmm1, DWORD PTR _yz$[ebp]
	addss	xmm1, DWORD PTR _wx$[ebp]
	mov	ecx, DWORD PTR _v$[ebp]
	movss	DWORD PTR tv344[ebp], xmm0
	movss	DWORD PTR tv346[ebp], xmm1
	call	??BVector@@QBEPBMXZ			; Vector::operator float const *
	mov	ecx, 4
	shl	ecx, 0
	movss	xmm0, DWORD PTR tv346[ebp]
	mulss	xmm0, DWORD PTR [eax+ecx]
	movss	xmm1, DWORD PTR tv344[ebp]
	addss	xmm1, xmm0
	movss	xmm0, DWORD PTR __real@3f800000
	subss	xmm0, DWORD PTR _xx$[ebp]
	subss	xmm0, DWORD PTR _yy$[ebp]
	mov	ecx, DWORD PTR _v$[ebp]
	movss	DWORD PTR tv348[ebp], xmm0
	movss	DWORD PTR tv350[ebp], xmm1
	call	??BVector@@QBEPBMXZ			; Vector::operator float const *
	mov	edx, 4
	shl	edx, 1
	movss	xmm0, DWORD PTR tv348[ebp]
	mulss	xmm0, DWORD PTR [eax+edx]
	movss	xmm1, DWORD PTR tv350[ebp]
	addss	xmm1, xmm0
	mov	ecx, DWORD PTR _out$[ebp]
	movss	DWORD PTR tv352[ebp], xmm1
	call	??BVector@@QAEPAMXZ			; Vector::operator float *
	mov	ecx, 4
	shl	ecx, 1
	movss	xmm0, DWORD PTR tv352[ebp]
	movss	DWORD PTR [eax+ecx], xmm0

; 764  : }

	pop	edi
	pop	esi
	pop	ebx
	mov	esp, ebp
	pop	ebp
	ret	0
?QuaternionVectorTransform@@YAXABVVector4D@@ABVVector@@AAV2@@Z ENDP ; QuaternionVectorTransform
_TEXT	ENDS
; Function compile flags: /Odtp /ZI
; File d:\!diffusion 2020\source code 2022\client-server\game_shared\mathlib.cpp
;	COMDAT ?QuaternionMultiply@@YAXABVVector4D@@0AAV1@@Z
_TEXT	SEGMENT
tv386 = -80						; size = 4
tv378 = -80						; size = 4
tv370 = -80						; size = 4
tv362 = -80						; size = 4
tv384 = -76						; size = 4
tv376 = -76						; size = 4
tv368 = -76						; size = 4
tv360 = -76						; size = 4
tv382 = -72						; size = 4
tv374 = -72						; size = 4
tv366 = -72						; size = 4
tv358 = -72						; size = 4
tv380 = -68						; size = 4
tv372 = -68						; size = 4
tv364 = -68						; size = 4
tv356 = -68						; size = 4
_q1$ = 8						; size = 4
_q2$ = 12						; size = 4
_out$ = 16						; size = 4
?QuaternionMultiply@@YAXABVVector4D@@0AAV1@@Z PROC	; QuaternionMultiply, COMDAT

; 736  : {

	push	ebp
	mov	ebp, esp
	sub	esp, 80					; 00000050H
	push	ebx
	push	esi
	push	edi

; 737  : 	out[0] = q1[3] * q2[0] + q1[0] * q2[3] + q1[1] * q2[2] - q1[2] * q2[1];

	mov	ecx, DWORD PTR _q1$[ebp]
	call	??BVector4D@@QBEPBMXZ			; Vector4D::operator float const *
	mov	esi, eax
	mov	eax, 4
	imul	edi, eax, 3
	mov	ecx, DWORD PTR _q2$[ebp]
	call	??BVector4D@@QBEPBMXZ			; Vector4D::operator float const *
	mov	ecx, 4
	imul	edx, ecx, 0
	movss	xmm0, DWORD PTR [esi+edi]
	mulss	xmm0, DWORD PTR [eax+edx]
	mov	ecx, DWORD PTR _q1$[ebp]
	movss	DWORD PTR tv356[ebp], xmm0
	call	??BVector4D@@QBEPBMXZ			; Vector4D::operator float const *
	mov	esi, eax
	mov	eax, 4
	imul	edi, eax, 0
	mov	ecx, DWORD PTR _q2$[ebp]
	call	??BVector4D@@QBEPBMXZ			; Vector4D::operator float const *
	mov	ecx, 4
	imul	edx, ecx, 3
	movss	xmm0, DWORD PTR [esi+edi]
	mulss	xmm0, DWORD PTR [eax+edx]
	movss	xmm1, DWORD PTR tv356[ebp]
	addss	xmm1, xmm0
	mov	ecx, DWORD PTR _q1$[ebp]
	movss	DWORD PTR tv358[ebp], xmm1
	call	??BVector4D@@QBEPBMXZ			; Vector4D::operator float const *
	mov	esi, eax
	mov	edi, 4
	shl	edi, 0
	mov	ecx, DWORD PTR _q2$[ebp]
	call	??BVector4D@@QBEPBMXZ			; Vector4D::operator float const *
	mov	ecx, 4
	shl	ecx, 1
	movss	xmm0, DWORD PTR [esi+edi]
	mulss	xmm0, DWORD PTR [eax+ecx]
	movss	xmm1, DWORD PTR tv358[ebp]
	addss	xmm1, xmm0
	mov	ecx, DWORD PTR _q1$[ebp]
	movss	DWORD PTR tv360[ebp], xmm1
	call	??BVector4D@@QBEPBMXZ			; Vector4D::operator float const *
	mov	esi, eax
	mov	edi, 4
	shl	edi, 1
	mov	ecx, DWORD PTR _q2$[ebp]
	call	??BVector4D@@QBEPBMXZ			; Vector4D::operator float const *
	mov	edx, 4
	shl	edx, 0
	movss	xmm0, DWORD PTR [esi+edi]
	mulss	xmm0, DWORD PTR [eax+edx]
	movss	xmm1, DWORD PTR tv360[ebp]
	subss	xmm1, xmm0
	mov	ecx, DWORD PTR _out$[ebp]
	movss	DWORD PTR tv362[ebp], xmm1
	call	??BVector4D@@QAEPAMXZ			; Vector4D::operator float *
	mov	ecx, 4
	imul	edx, ecx, 0
	movss	xmm0, DWORD PTR tv362[ebp]
	movss	DWORD PTR [eax+edx], xmm0

; 738  : 	out[1] = q1[3] * q2[1] + q1[1] * q2[3] + q1[2] * q2[0] - q1[0] * q2[2];

	mov	ecx, DWORD PTR _q1$[ebp]
	call	??BVector4D@@QBEPBMXZ			; Vector4D::operator float const *
	mov	esi, eax
	mov	eax, 4
	imul	edi, eax, 3
	mov	ecx, DWORD PTR _q2$[ebp]
	call	??BVector4D@@QBEPBMXZ			; Vector4D::operator float const *
	mov	ecx, 4
	shl	ecx, 0
	movss	xmm0, DWORD PTR [esi+edi]
	mulss	xmm0, DWORD PTR [eax+ecx]
	mov	ecx, DWORD PTR _q1$[ebp]
	movss	DWORD PTR tv364[ebp], xmm0
	call	??BVector4D@@QBEPBMXZ			; Vector4D::operator float const *
	mov	esi, eax
	mov	edi, 4
	shl	edi, 0
	mov	ecx, DWORD PTR _q2$[ebp]
	call	??BVector4D@@QBEPBMXZ			; Vector4D::operator float const *
	mov	edx, 4
	imul	ecx, edx, 3
	movss	xmm0, DWORD PTR [esi+edi]
	mulss	xmm0, DWORD PTR [eax+ecx]
	movss	xmm1, DWORD PTR tv364[ebp]
	addss	xmm1, xmm0
	mov	ecx, DWORD PTR _q1$[ebp]
	movss	DWORD PTR tv366[ebp], xmm1
	call	??BVector4D@@QBEPBMXZ			; Vector4D::operator float const *
	mov	esi, eax
	mov	edi, 4
	shl	edi, 1
	mov	ecx, DWORD PTR _q2$[ebp]
	call	??BVector4D@@QBEPBMXZ			; Vector4D::operator float const *
	mov	edx, 4
	imul	ecx, edx, 0
	movss	xmm0, DWORD PTR [esi+edi]
	mulss	xmm0, DWORD PTR [eax+ecx]
	movss	xmm1, DWORD PTR tv366[ebp]
	addss	xmm1, xmm0
	mov	ecx, DWORD PTR _q1$[ebp]
	movss	DWORD PTR tv368[ebp], xmm1
	call	??BVector4D@@QBEPBMXZ			; Vector4D::operator float const *
	mov	esi, eax
	mov	edx, 4
	imul	edi, edx, 0
	mov	ecx, DWORD PTR _q2$[ebp]
	call	??BVector4D@@QBEPBMXZ			; Vector4D::operator float const *
	mov	ecx, 4
	shl	ecx, 1
	movss	xmm0, DWORD PTR [esi+edi]
	mulss	xmm0, DWORD PTR [eax+ecx]
	movss	xmm1, DWORD PTR tv368[ebp]
	subss	xmm1, xmm0
	mov	ecx, DWORD PTR _out$[ebp]
	movss	DWORD PTR tv370[ebp], xmm1
	call	??BVector4D@@QAEPAMXZ			; Vector4D::operator float *
	mov	edx, 4
	shl	edx, 0
	movss	xmm0, DWORD PTR tv370[ebp]
	movss	DWORD PTR [eax+edx], xmm0

; 739  : 	out[2] = q1[3] * q2[2] + q1[2] * q2[3] + q1[0] * q2[1] - q1[1] * q2[0];

	mov	ecx, DWORD PTR _q1$[ebp]
	call	??BVector4D@@QBEPBMXZ			; Vector4D::operator float const *
	mov	esi, eax
	mov	eax, 4
	imul	edi, eax, 3
	mov	ecx, DWORD PTR _q2$[ebp]
	call	??BVector4D@@QBEPBMXZ			; Vector4D::operator float const *
	mov	ecx, 4
	shl	ecx, 1
	movss	xmm0, DWORD PTR [esi+edi]
	mulss	xmm0, DWORD PTR [eax+ecx]
	mov	ecx, DWORD PTR _q1$[ebp]
	movss	DWORD PTR tv372[ebp], xmm0
	call	??BVector4D@@QBEPBMXZ			; Vector4D::operator float const *
	mov	esi, eax
	mov	edi, 4
	shl	edi, 1
	mov	ecx, DWORD PTR _q2$[ebp]
	call	??BVector4D@@QBEPBMXZ			; Vector4D::operator float const *
	mov	edx, 4
	imul	ecx, edx, 3
	movss	xmm0, DWORD PTR [esi+edi]
	mulss	xmm0, DWORD PTR [eax+ecx]
	movss	xmm1, DWORD PTR tv372[ebp]
	addss	xmm1, xmm0
	mov	ecx, DWORD PTR _q1$[ebp]
	movss	DWORD PTR tv374[ebp], xmm1
	call	??BVector4D@@QBEPBMXZ			; Vector4D::operator float const *
	mov	esi, eax
	mov	edx, 4
	imul	edi, edx, 0
	mov	ecx, DWORD PTR _q2$[ebp]
	call	??BVector4D@@QBEPBMXZ			; Vector4D::operator float const *
	mov	ecx, 4
	shl	ecx, 0
	movss	xmm0, DWORD PTR [esi+edi]
	mulss	xmm0, DWORD PTR [eax+ecx]
	movss	xmm1, DWORD PTR tv374[ebp]
	addss	xmm1, xmm0
	mov	ecx, DWORD PTR _q1$[ebp]
	movss	DWORD PTR tv376[ebp], xmm1
	call	??BVector4D@@QBEPBMXZ			; Vector4D::operator float const *
	mov	esi, eax
	mov	edi, 4
	shl	edi, 0
	mov	ecx, DWORD PTR _q2$[ebp]
	call	??BVector4D@@QBEPBMXZ			; Vector4D::operator float const *
	mov	edx, 4
	imul	ecx, edx, 0
	movss	xmm0, DWORD PTR [esi+edi]
	mulss	xmm0, DWORD PTR [eax+ecx]
	movss	xmm1, DWORD PTR tv376[ebp]
	subss	xmm1, xmm0
	mov	ecx, DWORD PTR _out$[ebp]
	movss	DWORD PTR tv378[ebp], xmm1
	call	??BVector4D@@QAEPAMXZ			; Vector4D::operator float *
	mov	edx, 4
	shl	edx, 1
	movss	xmm0, DWORD PTR tv378[ebp]
	movss	DWORD PTR [eax+edx], xmm0

; 740  : 	out[3] = q1[3] * q2[3] - q1[0] * q2[0] - q1[1] * q2[1] - q1[2] * q2[2];

	mov	ecx, DWORD PTR _q1$[ebp]
	call	??BVector4D@@QBEPBMXZ			; Vector4D::operator float const *
	mov	esi, eax
	mov	eax, 4
	imul	edi, eax, 3
	mov	ecx, DWORD PTR _q2$[ebp]
	call	??BVector4D@@QBEPBMXZ			; Vector4D::operator float const *
	mov	ecx, 4
	imul	edx, ecx, 3
	movss	xmm0, DWORD PTR [esi+edi]
	mulss	xmm0, DWORD PTR [eax+edx]
	mov	ecx, DWORD PTR _q1$[ebp]
	movss	DWORD PTR tv380[ebp], xmm0
	call	??BVector4D@@QBEPBMXZ			; Vector4D::operator float const *
	mov	esi, eax
	mov	eax, 4
	imul	edi, eax, 0
	mov	ecx, DWORD PTR _q2$[ebp]
	call	??BVector4D@@QBEPBMXZ			; Vector4D::operator float const *
	mov	ecx, 4
	imul	edx, ecx, 0
	movss	xmm0, DWORD PTR [esi+edi]
	mulss	xmm0, DWORD PTR [eax+edx]
	movss	xmm1, DWORD PTR tv380[ebp]
	subss	xmm1, xmm0
	mov	ecx, DWORD PTR _q1$[ebp]
	movss	DWORD PTR tv382[ebp], xmm1
	call	??BVector4D@@QBEPBMXZ			; Vector4D::operator float const *
	mov	esi, eax
	mov	edi, 4
	shl	edi, 0
	mov	ecx, DWORD PTR _q2$[ebp]
	call	??BVector4D@@QBEPBMXZ			; Vector4D::operator float const *
	mov	ecx, 4
	shl	ecx, 0
	movss	xmm0, DWORD PTR [esi+edi]
	mulss	xmm0, DWORD PTR [eax+ecx]
	movss	xmm1, DWORD PTR tv382[ebp]
	subss	xmm1, xmm0
	mov	ecx, DWORD PTR _q1$[ebp]
	movss	DWORD PTR tv384[ebp], xmm1
	call	??BVector4D@@QBEPBMXZ			; Vector4D::operator float const *
	mov	esi, eax
	mov	edi, 4
	shl	edi, 1
	mov	ecx, DWORD PTR _q2$[ebp]
	call	??BVector4D@@QBEPBMXZ			; Vector4D::operator float const *
	mov	edx, 4
	shl	edx, 1
	movss	xmm0, DWORD PTR [esi+edi]
	mulss	xmm0, DWORD PTR [eax+edx]
	movss	xmm1, DWORD PTR tv384[ebp]
	subss	xmm1, xmm0
	mov	ecx, DWORD PTR _out$[ebp]
	movss	DWORD PTR tv386[ebp], xmm1
	call	??BVector4D@@QAEPAMXZ			; Vector4D::operator float *
	mov	ecx, 4
	imul	edx, ecx, 3
	movss	xmm0, DWORD PTR tv386[ebp]
	movss	DWORD PTR [eax+edx], xmm0

; 741  : }

	pop	edi
	pop	esi
	pop	ebx
	mov	esp, ebp
	pop	ebp
	ret	0
?QuaternionMultiply@@YAXABVVector4D@@0AAV1@@Z ENDP	; QuaternionMultiply
_TEXT	ENDS
; Function compile flags: /Odtp /ZI
; File d:\!diffusion 2020\source code 2022\client-server\game_shared\mathlib.cpp
;	COMDAT ?QuaternionBlendNoAlign@@YAXABVVector4D@@0MAAV1@@Z
_TEXT	SEGMENT
tv146 = -100						; size = 4
tv144 = -96						; size = 4
$T1 = -92						; size = 16
_i$2 = -12						; size = 4
_sclq$ = -8						; size = 4
_sclp$ = -4						; size = 4
_p$ = 8							; size = 4
_q$ = 12						; size = 4
_t$ = 16						; size = 4
_qt$ = 20						; size = 4
?QuaternionBlendNoAlign@@YAXABVVector4D@@0MAAV1@@Z PROC	; QuaternionBlendNoAlign, COMDAT

; 706  : {

	push	ebp
	mov	ebp, esp
	sub	esp, 100				; 00000064H
	push	ebx
	push	esi
	push	edi

; 707  : 	float	sclp, sclq;
; 708  : 
; 709  : 	// 0.0 returns p, 1.0 return q.
; 710  : 	sclp = 1.0f - t;

	movss	xmm0, DWORD PTR __real@3f800000
	subss	xmm0, DWORD PTR _t$[ebp]
	movss	DWORD PTR _sclp$[ebp], xmm0

; 711  : 	sclq = t;

	movss	xmm0, DWORD PTR _t$[ebp]
	movss	DWORD PTR _sclq$[ebp], xmm0

; 712  : 
; 713  : 	for( int i = 0; i < 4; i++ )

	mov	DWORD PTR _i$2[ebp], 0
	jmp	SHORT $LN4@Quaternion
$LN2@Quaternion:
	mov	eax, DWORD PTR _i$2[ebp]
	add	eax, 1
	mov	DWORD PTR _i$2[ebp], eax
$LN4@Quaternion:
	cmp	DWORD PTR _i$2[ebp], 4
	jge	SHORT $LN3@Quaternion

; 714  : 	{
; 715  : 		qt[i] = sclp * p[i] + sclq * q[i];

	mov	ecx, DWORD PTR _p$[ebp]
	call	??BVector4D@@QBEPBMXZ			; Vector4D::operator float const *
	mov	ecx, DWORD PTR _i$2[ebp]
	movss	xmm0, DWORD PTR _sclp$[ebp]
	mulss	xmm0, DWORD PTR [eax+ecx*4]
	mov	ecx, DWORD PTR _q$[ebp]
	movss	DWORD PTR tv144[ebp], xmm0
	call	??BVector4D@@QBEPBMXZ			; Vector4D::operator float const *
	mov	edx, DWORD PTR _i$2[ebp]
	movss	xmm0, DWORD PTR _sclq$[ebp]
	mulss	xmm0, DWORD PTR [eax+edx*4]
	movss	xmm1, DWORD PTR tv144[ebp]
	addss	xmm1, xmm0
	mov	ecx, DWORD PTR _qt$[ebp]
	movss	DWORD PTR tv146[ebp], xmm1
	call	??BVector4D@@QAEPAMXZ			; Vector4D::operator float *
	mov	ecx, DWORD PTR _i$2[ebp]
	movss	xmm0, DWORD PTR tv146[ebp]
	movss	DWORD PTR [eax+ecx*4], xmm0

; 716  : 	}

	jmp	SHORT $LN2@Quaternion
$LN3@Quaternion:

; 717  : 
; 718  : 	qt = qt.Normalize();

	lea	eax, DWORD PTR $T1[ebp]
	push	eax
	mov	ecx, DWORD PTR _qt$[ebp]
	call	?Normalize@Vector4D@@QBE?AV1@XZ		; Vector4D::Normalize
	mov	ecx, DWORD PTR _qt$[ebp]
	mov	edx, DWORD PTR [eax]
	mov	DWORD PTR [ecx], edx
	mov	edx, DWORD PTR [eax+4]
	mov	DWORD PTR [ecx+4], edx
	mov	edx, DWORD PTR [eax+8]
	mov	DWORD PTR [ecx+8], edx
	mov	eax, DWORD PTR [eax+12]
	mov	DWORD PTR [ecx+12], eax

; 719  : }

	pop	edi
	pop	esi
	pop	ebx
	mov	esp, ebp
	pop	ebp
	ret	0
?QuaternionBlendNoAlign@@YAXABVVector4D@@0MAAV1@@Z ENDP	; QuaternionBlendNoAlign
_TEXT	ENDS
; Function compile flags: /Odtp /ZI
; File d:\!diffusion 2020\source code 2022\client-server\game_shared\mathlib.cpp
;	COMDAT ?QuaternionSlerpNoAlign@@YAXABVVector4D@@0MAAV1@@Z
_TEXT	SEGMENT
tv339 = -104						; size = 4
tv351 = -100						; size = 4
tv343 = -100						; size = 4
tv337 = -100						; size = 4
tv284 = -100						; size = 8
tv278 = -100						; size = 8
tv349 = -96						; size = 4
tv347 = -96						; size = 4
tv345 = -96						; size = 4
tv341 = -96						; size = 4
tv335 = -96						; size = 4
_i$1 = -28						; size = 4
_i$2 = -24						; size = 4
_sclq$ = -20						; size = 4
_sclp$ = -16						; size = 4
_sinom$ = -12						; size = 4
_cosom$ = -8						; size = 4
_omega$ = -4						; size = 4
_p$ = 8							; size = 4
_q$ = 12						; size = 4
_t$ = 16						; size = 4
_qt$ = 20						; size = 4
?QuaternionSlerpNoAlign@@YAXABVVector4D@@0MAAV1@@Z PROC	; QuaternionSlerpNoAlign, COMDAT

; 608  : {

	push	ebp
	mov	ebp, esp
	sub	esp, 104				; 00000068H
	push	ebx
	push	esi
	push	edi

; 609  : 	float omega, cosom, sinom, sclp, sclq;
; 610  : 
; 611  : 	// 0.0 returns p, 1.0 return q.
; 612  : 	cosom = p[0] * q[0] + p[1] * q[1] + p[2] * q[2] + p[3] * q[3];

	mov	ecx, DWORD PTR _p$[ebp]
	call	??BVector4D@@QBEPBMXZ			; Vector4D::operator float const *
	mov	esi, eax
	mov	eax, 4
	imul	edi, eax, 0
	mov	ecx, DWORD PTR _q$[ebp]
	call	??BVector4D@@QBEPBMXZ			; Vector4D::operator float const *
	mov	ecx, 4
	imul	edx, ecx, 0
	movss	xmm0, DWORD PTR [esi+edi]
	mulss	xmm0, DWORD PTR [eax+edx]
	mov	ecx, DWORD PTR _p$[ebp]
	movss	DWORD PTR tv335[ebp], xmm0
	call	??BVector4D@@QBEPBMXZ			; Vector4D::operator float const *
	mov	esi, eax
	mov	edi, 4
	shl	edi, 0
	mov	ecx, DWORD PTR _q$[ebp]
	call	??BVector4D@@QBEPBMXZ			; Vector4D::operator float const *
	mov	ecx, 4
	shl	ecx, 0
	movss	xmm0, DWORD PTR [esi+edi]
	mulss	xmm0, DWORD PTR [eax+ecx]
	movss	xmm1, DWORD PTR tv335[ebp]
	addss	xmm1, xmm0
	mov	ecx, DWORD PTR _p$[ebp]
	movss	DWORD PTR tv337[ebp], xmm1
	call	??BVector4D@@QBEPBMXZ			; Vector4D::operator float const *
	mov	esi, eax
	mov	edi, 4
	shl	edi, 1
	mov	ecx, DWORD PTR _q$[ebp]
	call	??BVector4D@@QBEPBMXZ			; Vector4D::operator float const *
	mov	edx, 4
	shl	edx, 1
	movss	xmm0, DWORD PTR [esi+edi]
	mulss	xmm0, DWORD PTR [eax+edx]
	movss	xmm1, DWORD PTR tv337[ebp]
	addss	xmm1, xmm0
	mov	ecx, DWORD PTR _p$[ebp]
	movss	DWORD PTR tv339[ebp], xmm1
	call	??BVector4D@@QBEPBMXZ			; Vector4D::operator float const *
	mov	esi, eax
	mov	eax, 4
	imul	edi, eax, 3
	mov	ecx, DWORD PTR _q$[ebp]
	call	??BVector4D@@QBEPBMXZ			; Vector4D::operator float const *
	mov	ecx, 4
	imul	edx, ecx, 3
	movss	xmm0, DWORD PTR [esi+edi]
	mulss	xmm0, DWORD PTR [eax+edx]
	movss	xmm1, DWORD PTR tv339[ebp]
	addss	xmm1, xmm0
	movss	DWORD PTR _cosom$[ebp], xmm1

; 613  : 
; 614  : 	if(( 1.0f + cosom ) > 0.000001f )

	movss	xmm0, DWORD PTR __real@3f800000
	addss	xmm0, DWORD PTR _cosom$[ebp]
	comiss	xmm0, DWORD PTR __real@358637bd
	jbe	$LN8@Quaternion

; 615  : 	{
; 616  : 		if(( 1.0f - cosom ) > 0.000001f )

	movss	xmm0, DWORD PTR __real@3f800000
	subss	xmm0, DWORD PTR _cosom$[ebp]
	comiss	xmm0, DWORD PTR __real@358637bd
	jbe	$LN10@Quaternion

; 617  : 		{
; 618  : 			omega = acos( cosom );

	cvtss2sd xmm0, DWORD PTR _cosom$[ebp]
	sub	esp, 8
	movsd	QWORD PTR [esp], xmm0
	call	_acos
	add	esp, 8
	fstp	DWORD PTR _omega$[ebp]

; 619  : 			sinom = sin( omega );

	cvtss2sd xmm0, DWORD PTR _omega$[ebp]
	sub	esp, 8
	movsd	QWORD PTR [esp], xmm0
	call	_sin
	add	esp, 8
	fstp	DWORD PTR _sinom$[ebp]

; 620  : 			sclp = sin( (1.0f - t) * omega) / sinom;

	movss	xmm0, DWORD PTR __real@3f800000
	subss	xmm0, DWORD PTR _t$[ebp]
	mulss	xmm0, DWORD PTR _omega$[ebp]
	cvtss2sd xmm0, xmm0
	sub	esp, 8
	movsd	QWORD PTR [esp], xmm0
	call	_sin
	add	esp, 8
	fstp	QWORD PTR tv278[ebp]
	movsd	xmm0, QWORD PTR tv278[ebp]
	cvtss2sd xmm1, DWORD PTR _sinom$[ebp]
	divsd	xmm0, xmm1
	cvtsd2ss xmm0, xmm0
	movss	DWORD PTR _sclp$[ebp], xmm0

; 621  : 			sclq = sin( t * omega ) / sinom;

	movss	xmm0, DWORD PTR _t$[ebp]
	mulss	xmm0, DWORD PTR _omega$[ebp]
	cvtss2sd xmm0, xmm0
	sub	esp, 8
	movsd	QWORD PTR [esp], xmm0
	call	_sin
	add	esp, 8
	fstp	QWORD PTR tv284[ebp]
	movsd	xmm0, QWORD PTR tv284[ebp]
	cvtss2sd xmm1, DWORD PTR _sinom$[ebp]
	divsd	xmm0, xmm1
	cvtsd2ss xmm0, xmm0
	movss	DWORD PTR _sclq$[ebp], xmm0

; 622  : 		}
; 623  : 		else

	jmp	SHORT $LN11@Quaternion
$LN10@Quaternion:

; 624  : 		{
; 625  : 			// TODO: add short circuit for cosom == 1.0f?
; 626  : 			sclp = 1.0f - t;

	movss	xmm0, DWORD PTR __real@3f800000
	subss	xmm0, DWORD PTR _t$[ebp]
	movss	DWORD PTR _sclp$[ebp], xmm0

; 627  : 			sclq = t;

	movss	xmm0, DWORD PTR _t$[ebp]
	movss	DWORD PTR _sclq$[ebp], xmm0
$LN11@Quaternion:

; 628  : 		}
; 629  : 
; 630  : 		for( int i = 0; i < 4; i++ )

	mov	DWORD PTR _i$2[ebp], 0
	jmp	SHORT $LN4@Quaternion
$LN2@Quaternion:
	mov	eax, DWORD PTR _i$2[ebp]
	add	eax, 1
	mov	DWORD PTR _i$2[ebp], eax
$LN4@Quaternion:
	cmp	DWORD PTR _i$2[ebp], 4
	jge	SHORT $LN3@Quaternion

; 631  : 		{
; 632  : 			qt[i] = sclp * p[i] + sclq * q[i];

	mov	ecx, DWORD PTR _p$[ebp]
	call	??BVector4D@@QBEPBMXZ			; Vector4D::operator float const *
	mov	ecx, DWORD PTR _i$2[ebp]
	movss	xmm0, DWORD PTR _sclp$[ebp]
	mulss	xmm0, DWORD PTR [eax+ecx*4]
	mov	ecx, DWORD PTR _q$[ebp]
	movss	DWORD PTR tv341[ebp], xmm0
	call	??BVector4D@@QBEPBMXZ			; Vector4D::operator float const *
	mov	edx, DWORD PTR _i$2[ebp]
	movss	xmm0, DWORD PTR _sclq$[ebp]
	mulss	xmm0, DWORD PTR [eax+edx*4]
	movss	xmm1, DWORD PTR tv341[ebp]
	addss	xmm1, xmm0
	mov	ecx, DWORD PTR _qt$[ebp]
	movss	DWORD PTR tv343[ebp], xmm1
	call	??BVector4D@@QAEPAMXZ			; Vector4D::operator float *
	mov	ecx, DWORD PTR _i$2[ebp]
	movss	xmm0, DWORD PTR tv343[ebp]
	movss	DWORD PTR [eax+ecx*4], xmm0

; 633  : 		}

	jmp	SHORT $LN2@Quaternion
$LN3@Quaternion:

; 634  : 	}
; 635  : 	else

	jmp	$LN6@Quaternion
$LN8@Quaternion:

; 636  : 	{
; 637  : 		qt[0] = -q[1];

	mov	ecx, DWORD PTR _q$[ebp]
	call	??BVector4D@@QBEPBMXZ			; Vector4D::operator float const *
	mov	ecx, 4
	shl	ecx, 0
	movss	xmm0, DWORD PTR [eax+ecx]
	xorps	xmm0, DWORD PTR __xmm@80000000800000008000000080000000
	mov	ecx, DWORD PTR _qt$[ebp]
	movss	DWORD PTR tv345[ebp], xmm0
	call	??BVector4D@@QAEPAMXZ			; Vector4D::operator float *
	mov	edx, 4
	imul	ecx, edx, 0
	movss	xmm0, DWORD PTR tv345[ebp]
	movss	DWORD PTR [eax+ecx], xmm0

; 638  : 		qt[1] = q[0];

	mov	ecx, DWORD PTR _q$[ebp]
	call	??BVector4D@@QBEPBMXZ			; Vector4D::operator float const *
	mov	esi, eax
	mov	eax, 4
	imul	edi, eax, 0
	mov	ecx, DWORD PTR _qt$[ebp]
	call	??BVector4D@@QAEPAMXZ			; Vector4D::operator float *
	mov	ecx, 4
	shl	ecx, 0
	mov	edx, DWORD PTR [esi+edi]
	mov	DWORD PTR [eax+ecx], edx

; 639  : 		qt[2] = -q[3];

	mov	ecx, DWORD PTR _q$[ebp]
	call	??BVector4D@@QBEPBMXZ			; Vector4D::operator float const *
	mov	ecx, 4
	imul	edx, ecx, 3
	movss	xmm0, DWORD PTR [eax+edx]
	xorps	xmm0, DWORD PTR __xmm@80000000800000008000000080000000
	mov	ecx, DWORD PTR _qt$[ebp]
	movss	DWORD PTR tv347[ebp], xmm0
	call	??BVector4D@@QAEPAMXZ			; Vector4D::operator float *
	mov	ecx, 4
	shl	ecx, 1
	movss	xmm0, DWORD PTR tv347[ebp]
	movss	DWORD PTR [eax+ecx], xmm0

; 640  : 		qt[3] = q[2];

	mov	ecx, DWORD PTR _q$[ebp]
	call	??BVector4D@@QBEPBMXZ			; Vector4D::operator float const *
	mov	esi, eax
	mov	edi, 4
	shl	edi, 1
	mov	ecx, DWORD PTR _qt$[ebp]
	call	??BVector4D@@QAEPAMXZ			; Vector4D::operator float *
	mov	ecx, 4
	imul	edx, ecx, 3
	mov	ecx, DWORD PTR [esi+edi]
	mov	DWORD PTR [eax+edx], ecx

; 641  : 		sclp = sin(( 1.0f - t ) * ( 0.5f * M_PI ));

	movss	xmm0, DWORD PTR __real@3f800000
	subss	xmm0, DWORD PTR _t$[ebp]
	cvtss2sd xmm0, xmm0
	mulsd	xmm0, QWORD PTR __real@3ff921fb54442d18
	sub	esp, 8
	movsd	QWORD PTR [esp], xmm0
	call	_sin
	add	esp, 8
	fstp	DWORD PTR _sclp$[ebp]

; 642  : 		sclq = sin( t * ( 0.5f * M_PI ));

	cvtss2sd xmm0, DWORD PTR _t$[ebp]
	mulsd	xmm0, QWORD PTR __real@3ff921fb54442d18
	sub	esp, 8
	movsd	QWORD PTR [esp], xmm0
	call	_sin
	add	esp, 8
	fstp	DWORD PTR _sclq$[ebp]

; 643  : 
; 644  : 		for( int i = 0; i < 3; i++ )

	mov	DWORD PTR _i$1[ebp], 0
	jmp	SHORT $LN7@Quaternion
$LN5@Quaternion:
	mov	eax, DWORD PTR _i$1[ebp]
	add	eax, 1
	mov	DWORD PTR _i$1[ebp], eax
$LN7@Quaternion:
	cmp	DWORD PTR _i$1[ebp], 3
	jge	SHORT $LN6@Quaternion

; 645  : 		{
; 646  : 			qt[i] = sclp * p[i] + sclq * qt[i];

	mov	ecx, DWORD PTR _p$[ebp]
	call	??BVector4D@@QBEPBMXZ			; Vector4D::operator float const *
	mov	ecx, DWORD PTR _i$1[ebp]
	movss	xmm0, DWORD PTR _sclp$[ebp]
	mulss	xmm0, DWORD PTR [eax+ecx*4]
	mov	ecx, DWORD PTR _qt$[ebp]
	movss	DWORD PTR tv349[ebp], xmm0
	call	??BVector4D@@QAEPAMXZ			; Vector4D::operator float *
	mov	edx, DWORD PTR _i$1[ebp]
	movss	xmm0, DWORD PTR _sclq$[ebp]
	mulss	xmm0, DWORD PTR [eax+edx*4]
	movss	xmm1, DWORD PTR tv349[ebp]
	addss	xmm1, xmm0
	mov	ecx, DWORD PTR _qt$[ebp]
	movss	DWORD PTR tv351[ebp], xmm1
	call	??BVector4D@@QAEPAMXZ			; Vector4D::operator float *
	mov	ecx, DWORD PTR _i$1[ebp]
	movss	xmm0, DWORD PTR tv351[ebp]
	movss	DWORD PTR [eax+ecx*4], xmm0

; 647  : 		}

	jmp	SHORT $LN5@Quaternion
$LN6@Quaternion:

; 648  : 	}
; 649  : }

	pop	edi
	pop	esi
	pop	ebx
	mov	esp, ebp
	pop	ebp
	ret	0
?QuaternionSlerpNoAlign@@YAXABVVector4D@@0MAAV1@@Z ENDP	; QuaternionSlerpNoAlign
_TEXT	ENDS
; Function compile flags: /Odtp /ZI
; File d:\!diffusion 2020\source code 2022\client-server\game_shared\mathlib.cpp
;	COMDAT ?QuaternionBlend@@YAXABVVector4D@@0MAAV1@@Z
_TEXT	SEGMENT
_q2$ = -16						; size = 16
_p$ = 8							; size = 4
_q$ = 12						; size = 4
_t$ = 16						; size = 4
_qt$ = 20						; size = 4
?QuaternionBlend@@YAXABVVector4D@@0MAAV1@@Z PROC	; QuaternionBlend, COMDAT

; 692  : {

	push	ebp
	mov	ebp, esp
	sub	esp, 80					; 00000050H
	push	ebx
	push	esi
	push	edi

; 693  : 	// decide if one of the quaternions is backwards
; 694  : 	Vector4D	q2;

	lea	ecx, DWORD PTR _q2$[ebp]
	call	??0Vector4D@@QAE@XZ			; Vector4D::Vector4D

; 695  : 
; 696  : 	QuaternionAlign( p, q, q2 );

	lea	eax, DWORD PTR _q2$[ebp]
	push	eax
	mov	ecx, DWORD PTR _q$[ebp]
	push	ecx
	mov	edx, DWORD PTR _p$[ebp]
	push	edx
	call	?QuaternionAlign@@YAXABVVector4D@@0AAV1@@Z ; QuaternionAlign
	add	esp, 12					; 0000000cH

; 697  : 	QuaternionBlendNoAlign( p, q2, t, qt );

	mov	eax, DWORD PTR _qt$[ebp]
	push	eax
	push	ecx
	movss	xmm0, DWORD PTR _t$[ebp]
	movss	DWORD PTR [esp], xmm0
	lea	ecx, DWORD PTR _q2$[ebp]
	push	ecx
	mov	edx, DWORD PTR _p$[ebp]
	push	edx
	call	?QuaternionBlendNoAlign@@YAXABVVector4D@@0MAAV1@@Z ; QuaternionBlendNoAlign
	add	esp, 16					; 00000010H

; 698  : }

	pop	edi
	pop	esi
	pop	ebx
	mov	esp, ebp
	pop	ebp
	ret	0
?QuaternionBlend@@YAXABVVector4D@@0MAAV1@@Z ENDP	; QuaternionBlend
_TEXT	ENDS
; Function compile flags: /Odtp /ZI
; File d:\!diffusion 2020\source code 2022\client-server\game_shared\mathlib.cpp
;	COMDAT ?QuaternionSlerp@@YAXABVRadian@@0MAAV1@@Z
_TEXT	SEGMENT
_q2$ = -48						; size = 16
_q1$ = -32						; size = 16
_q0$ = -16						; size = 16
_r0$ = 8						; size = 4
_r1$ = 12						; size = 4
_t$ = 16						; size = 4
_r2$ = 20						; size = 4
?QuaternionSlerp@@YAXABVRadian@@0MAAV1@@Z PROC		; QuaternionSlerp, COMDAT

; 677  : {

	push	ebp
	mov	ebp, esp
	sub	esp, 112				; 00000070H
	push	ebx
	push	esi
	push	edi

; 678  : 	Vector4D	q0, q1, q2;

	lea	ecx, DWORD PTR _q0$[ebp]
	call	??0Vector4D@@QAE@XZ			; Vector4D::Vector4D
	lea	ecx, DWORD PTR _q1$[ebp]
	call	??0Vector4D@@QAE@XZ			; Vector4D::Vector4D
	lea	ecx, DWORD PTR _q2$[ebp]
	call	??0Vector4D@@QAE@XZ			; Vector4D::Vector4D

; 679  : 
; 680  : 	AngleQuaternion( r0, q0 );

	lea	eax, DWORD PTR _q0$[ebp]
	push	eax
	mov	ecx, DWORD PTR _r0$[ebp]
	push	ecx
	call	?AngleQuaternion@@YAXABVRadian@@AAVVector4D@@@Z ; AngleQuaternion
	add	esp, 8

; 681  : 	AngleQuaternion( r1, q1 );

	lea	eax, DWORD PTR _q1$[ebp]
	push	eax
	mov	ecx, DWORD PTR _r1$[ebp]
	push	ecx
	call	?AngleQuaternion@@YAXABVRadian@@AAVVector4D@@@Z ; AngleQuaternion
	add	esp, 8

; 682  : 	QuaternionSlerp( q0, q1, t, q2 );

	lea	eax, DWORD PTR _q2$[ebp]
	push	eax
	push	ecx
	movss	xmm0, DWORD PTR _t$[ebp]
	movss	DWORD PTR [esp], xmm0
	lea	ecx, DWORD PTR _q1$[ebp]
	push	ecx
	lea	edx, DWORD PTR _q0$[ebp]
	push	edx
	call	?QuaternionSlerp@@YAXABVVector4D@@0MAAV1@@Z ; QuaternionSlerp
	add	esp, 16					; 00000010H

; 683  : 	QuaternionAngle( q2, r2 );

	mov	eax, DWORD PTR _r2$[ebp]
	push	eax
	lea	ecx, DWORD PTR _q2$[ebp]
	push	ecx
	call	?QuaternionAngle@@YAXABVVector4D@@AAVRadian@@@Z ; QuaternionAngle
	add	esp, 8

; 684  : }

	pop	edi
	pop	esi
	pop	ebx
	mov	esp, ebp
	pop	ebp
	ret	0
?QuaternionSlerp@@YAXABVRadian@@0MAAV1@@Z ENDP		; QuaternionSlerp
_TEXT	ENDS
; Function compile flags: /Odtp /ZI
; File d:\!diffusion 2020\source code 2022\client-server\game_shared\mathlib.cpp
;	COMDAT ?QuaternionSlerp@@YAXABVVector4D@@0MAAV1@@Z
_TEXT	SEGMENT
_q2$ = -16						; size = 16
_p$ = 8							; size = 4
_q$ = 12						; size = 4
_t$ = 16						; size = 4
_qt$ = 20						; size = 4
?QuaternionSlerp@@YAXABVVector4D@@0MAAV1@@Z PROC	; QuaternionSlerp, COMDAT

; 659  : {

	push	ebp
	mov	ebp, esp
	sub	esp, 80					; 00000050H
	push	ebx
	push	esi
	push	edi

; 660  : 	Vector4D	q2;

	lea	ecx, DWORD PTR _q2$[ebp]
	call	??0Vector4D@@QAE@XZ			; Vector4D::Vector4D

; 661  : 
; 662  : 	// 0.0 returns p, 1.0 return q.
; 663  : 	// decide if one of the quaternions is backwards
; 664  : 	QuaternionAlign( p, q, q2 );

	lea	eax, DWORD PTR _q2$[ebp]
	push	eax
	mov	ecx, DWORD PTR _q$[ebp]
	push	ecx
	mov	edx, DWORD PTR _p$[ebp]
	push	edx
	call	?QuaternionAlign@@YAXABVVector4D@@0AAV1@@Z ; QuaternionAlign
	add	esp, 12					; 0000000cH

; 665  : 
; 666  : 	QuaternionSlerpNoAlign( p, q2, t, qt );

	mov	eax, DWORD PTR _qt$[ebp]
	push	eax
	push	ecx
	movss	xmm0, DWORD PTR _t$[ebp]
	movss	DWORD PTR [esp], xmm0
	lea	ecx, DWORD PTR _q2$[ebp]
	push	ecx
	mov	edx, DWORD PTR _p$[ebp]
	push	edx
	call	?QuaternionSlerpNoAlign@@YAXABVVector4D@@0MAAV1@@Z ; QuaternionSlerpNoAlign
	add	esp, 16					; 00000010H

; 667  : }

	pop	edi
	pop	esi
	pop	ebx
	mov	esp, ebp
	pop	ebp
	ret	0
?QuaternionSlerp@@YAXABVVector4D@@0MAAV1@@Z ENDP	; QuaternionSlerp
_TEXT	ENDS
; Function compile flags: /Odtp /ZI
; File d:\!diffusion 2020\source code 2022\client-server\game_shared\mathlib.cpp
;	COMDAT ?QuaternionAlign@@YAXABVVector4D@@0AAV1@@Z
_TEXT	SEGMENT
tv204 = -80						; size = 4
tv202 = -80						; size = 4
tv200 = -80						; size = 4
_i$ = -12						; size = 4
_b$ = -8						; size = 4
_a$ = -4						; size = 4
_p$ = 8							; size = 4
_q$ = 12						; size = 4
_qt$ = 16						; size = 4
?QuaternionAlign@@YAXABVVector4D@@0AAV1@@Z PROC		; QuaternionAlign, COMDAT

; 574  : {

	push	ebp
	mov	ebp, esp
	sub	esp, 80					; 00000050H
	push	ebx
	push	esi
	push	edi

; 575  : 	// decide if one of the quaternions is backwards
; 576  : 	float a = 0;

	xorps	xmm0, xmm0
	movss	DWORD PTR _a$[ebp], xmm0

; 577  : 	float b = 0;

	xorps	xmm0, xmm0
	movss	DWORD PTR _b$[ebp], xmm0

; 578  : 	int i;
; 579  : 
; 580  : 	for( i = 0; i < 4; i++ ) 

	mov	DWORD PTR _i$[ebp], 0
	jmp	SHORT $LN4@Quaternion
$LN2@Quaternion:
	mov	eax, DWORD PTR _i$[ebp]
	add	eax, 1
	mov	DWORD PTR _i$[ebp], eax
$LN4@Quaternion:
	cmp	DWORD PTR _i$[ebp], 4
	jge	$LN3@Quaternion

; 581  : 	{
; 582  : 		a += (p[i] - q[i]) * (p[i] - q[i]);

	mov	ecx, DWORD PTR _p$[ebp]
	call	??BVector4D@@QBEPBMXZ			; Vector4D::operator float const *
	mov	esi, eax
	mov	ecx, DWORD PTR _q$[ebp]
	call	??BVector4D@@QBEPBMXZ			; Vector4D::operator float const *
	mov	ecx, DWORD PTR _i$[ebp]
	mov	edx, DWORD PTR _i$[ebp]
	movss	xmm0, DWORD PTR [esi+ecx*4]
	subss	xmm0, DWORD PTR [eax+edx*4]
	mov	ecx, DWORD PTR _p$[ebp]
	movss	DWORD PTR tv200[ebp], xmm0
	call	??BVector4D@@QBEPBMXZ			; Vector4D::operator float const *
	mov	esi, eax
	mov	ecx, DWORD PTR _q$[ebp]
	call	??BVector4D@@QBEPBMXZ			; Vector4D::operator float const *
	mov	ecx, DWORD PTR _i$[ebp]
	mov	edx, DWORD PTR _i$[ebp]
	movss	xmm0, DWORD PTR [esi+ecx*4]
	subss	xmm0, DWORD PTR [eax+edx*4]
	movss	xmm1, DWORD PTR tv200[ebp]
	mulss	xmm1, xmm0
	addss	xmm1, DWORD PTR _a$[ebp]
	movss	DWORD PTR _a$[ebp], xmm1

; 583  : 		b += (p[i] + q[i]) * (p[i] + q[i]);

	mov	ecx, DWORD PTR _p$[ebp]
	call	??BVector4D@@QBEPBMXZ			; Vector4D::operator float const *
	mov	esi, eax
	mov	ecx, DWORD PTR _q$[ebp]
	call	??BVector4D@@QBEPBMXZ			; Vector4D::operator float const *
	mov	ecx, DWORD PTR _i$[ebp]
	mov	edx, DWORD PTR _i$[ebp]
	movss	xmm0, DWORD PTR [esi+ecx*4]
	addss	xmm0, DWORD PTR [eax+edx*4]
	mov	ecx, DWORD PTR _p$[ebp]
	movss	DWORD PTR tv202[ebp], xmm0
	call	??BVector4D@@QBEPBMXZ			; Vector4D::operator float const *
	mov	esi, eax
	mov	ecx, DWORD PTR _q$[ebp]
	call	??BVector4D@@QBEPBMXZ			; Vector4D::operator float const *
	mov	ecx, DWORD PTR _i$[ebp]
	mov	edx, DWORD PTR _i$[ebp]
	movss	xmm0, DWORD PTR [esi+ecx*4]
	addss	xmm0, DWORD PTR [eax+edx*4]
	movss	xmm1, DWORD PTR tv202[ebp]
	mulss	xmm1, xmm0
	addss	xmm1, DWORD PTR _b$[ebp]
	movss	DWORD PTR _b$[ebp], xmm1

; 584  : 	}

	jmp	$LN2@Quaternion
$LN3@Quaternion:

; 585  : 
; 586  : 	if( a > b ) 

	movss	xmm0, DWORD PTR _a$[ebp]
	comiss	xmm0, DWORD PTR _b$[ebp]
	jbe	SHORT $LN11@Quaternion

; 587  : 	{
; 588  : 		for( i = 0; i < 4; i++ ) 

	mov	DWORD PTR _i$[ebp], 0
	jmp	SHORT $LN7@Quaternion
$LN5@Quaternion:
	mov	eax, DWORD PTR _i$[ebp]
	add	eax, 1
	mov	DWORD PTR _i$[ebp], eax
$LN7@Quaternion:
	cmp	DWORD PTR _i$[ebp], 4
	jge	SHORT $LN6@Quaternion

; 589  : 		{
; 590  : 			qt[i] = -q[i];

	mov	ecx, DWORD PTR _q$[ebp]
	call	??BVector4D@@QBEPBMXZ			; Vector4D::operator float const *
	mov	ecx, DWORD PTR _i$[ebp]
	movss	xmm0, DWORD PTR [eax+ecx*4]
	xorps	xmm0, DWORD PTR __xmm@80000000800000008000000080000000
	mov	ecx, DWORD PTR _qt$[ebp]
	movss	DWORD PTR tv204[ebp], xmm0
	call	??BVector4D@@QAEPAMXZ			; Vector4D::operator float *
	mov	edx, DWORD PTR _i$[ebp]
	movss	xmm0, DWORD PTR tv204[ebp]
	movss	DWORD PTR [eax+edx*4], xmm0

; 591  : 		}

	jmp	SHORT $LN5@Quaternion
$LN6@Quaternion:

; 592  : 	}
; 593  : 	else if( &qt != &q )

	jmp	SHORT $LN9@Quaternion
$LN11@Quaternion:
	mov	eax, DWORD PTR _qt$[ebp]
	cmp	eax, DWORD PTR _q$[ebp]
	je	SHORT $LN9@Quaternion

; 594  : 	{
; 595  : 		for( i = 0; i < 4; i++ ) 

	mov	DWORD PTR _i$[ebp], 0
	jmp	SHORT $LN10@Quaternion
$LN8@Quaternion:
	mov	eax, DWORD PTR _i$[ebp]
	add	eax, 1
	mov	DWORD PTR _i$[ebp], eax
$LN10@Quaternion:
	cmp	DWORD PTR _i$[ebp], 4
	jge	SHORT $LN9@Quaternion

; 596  : 		{
; 597  : 			qt[i] = q[i];

	mov	ecx, DWORD PTR _q$[ebp]
	call	??BVector4D@@QBEPBMXZ			; Vector4D::operator float const *
	mov	esi, eax
	mov	ecx, DWORD PTR _qt$[ebp]
	call	??BVector4D@@QAEPAMXZ			; Vector4D::operator float *
	mov	ecx, DWORD PTR _i$[ebp]
	mov	edx, DWORD PTR _i$[ebp]
	mov	edx, DWORD PTR [esi+edx*4]
	mov	DWORD PTR [eax+ecx*4], edx

; 598  : 		}

	jmp	SHORT $LN8@Quaternion
$LN9@Quaternion:

; 599  : 	}
; 600  : }

	pop	edi
	pop	esi
	pop	ebx
	mov	esp, ebp
	pop	ebp
	ret	0
?QuaternionAlign@@YAXABVVector4D@@0AAV1@@Z ENDP		; QuaternionAlign
_TEXT	ENDS
; Function compile flags: /Odtp /ZI
; File d:\!diffusion 2020\source code 2022\client-server\game_shared\mathlib.cpp
;	COMDAT ?QuaternionAngle@@YAXABVVector4D@@AAVVector@@@Z
_TEXT	SEGMENT
_temp$ = -40						; size = 36
__$ArrayPad$ = -4					; size = 4
_quat$ = 8						; size = 4
_angles$ = 12						; size = 4
?QuaternionAngle@@YAXABVVector4D@@AAVVector@@@Z PROC	; QuaternionAngle, COMDAT

; 546  : {

	push	ebp
	mov	ebp, esp
	sub	esp, 104				; 00000068H
	mov	eax, DWORD PTR ___security_cookie
	xor	eax, ebp
	mov	DWORD PTR __$ArrayPad$[ebp], eax
	push	ebx
	push	esi
	push	edi

; 547  : 	// g-cont. it's incredible stupid way but...
; 548  : 	matrix3x3	temp( quat );

	mov	eax, DWORD PTR _quat$[ebp]
	push	eax
	lea	ecx, DWORD PTR _temp$[ebp]
	call	??0matrix3x3@@QAE@ABVVector4D@@@Z	; matrix3x3::matrix3x3

; 549  : 	temp.GetAngles( angles );

	mov	eax, DWORD PTR _angles$[ebp]
	push	eax
	lea	ecx, DWORD PTR _temp$[ebp]
	call	?GetAngles@matrix3x3@@QAEXAAVVector@@@Z	; matrix3x3::GetAngles

; 550  : }

	pop	edi
	pop	esi
	pop	ebx
	mov	ecx, DWORD PTR __$ArrayPad$[ebp]
	xor	ecx, ebp
	call	@__security_check_cookie@4
	mov	esp, ebp
	pop	ebp
	ret	0
?QuaternionAngle@@YAXABVVector4D@@AAVVector@@@Z ENDP	; QuaternionAngle
_TEXT	ENDS
; Function compile flags: /Odtp /ZI
; File d:\!diffusion 2020\source code 2022\client-server\game_shared\mathlib.cpp
;	COMDAT ?AxisAngleQuaternion@@YAXABVVector@@MAAVVector4D@@@Z
_TEXT	SEGMENT
_ca$ = -8						; size = 4
_sa$ = -4						; size = 4
_axis$ = 8						; size = 4
_angle$ = 12						; size = 4
_q$ = 16						; size = 4
?AxisAngleQuaternion@@YAXABVVector@@MAAVVector4D@@@Z PROC ; AxisAngleQuaternion, COMDAT

; 835  : {

	push	ebp
	mov	ebp, esp
	sub	esp, 72					; 00000048H
	push	ebx
	push	esi
	push	edi

; 836  : 	float	sa, ca;
; 837  : 
; 838  : 	SinCos( DEG2RAD( angle ) * 0.5f, &sa, &ca );

	lea	eax, DWORD PTR _ca$[ebp]
	push	eax
	lea	ecx, DWORD PTR _sa$[ebp]
	push	ecx
	movss	xmm0, DWORD PTR _angle$[ebp]
	mulss	xmm0, DWORD PTR __real@3c8efa35
	mulss	xmm0, DWORD PTR __real@3f000000
	push	ecx
	movss	DWORD PTR [esp], xmm0
	call	?SinCos@@YAXMPAM0@Z			; SinCos
	add	esp, 12					; 0000000cH

; 839  : 
; 840  : 	q.x = axis.x * sa;

	mov	eax, DWORD PTR _axis$[ebp]
	movss	xmm0, DWORD PTR [eax]
	mulss	xmm0, DWORD PTR _sa$[ebp]
	mov	ecx, DWORD PTR _q$[ebp]
	movss	DWORD PTR [ecx], xmm0

; 841  : 	q.y = axis.y * sa;

	mov	eax, DWORD PTR _axis$[ebp]
	movss	xmm0, DWORD PTR [eax+4]
	mulss	xmm0, DWORD PTR _sa$[ebp]
	mov	ecx, DWORD PTR _q$[ebp]
	movss	DWORD PTR [ecx+4], xmm0

; 842  : 	q.z = axis.z * sa;

	mov	eax, DWORD PTR _axis$[ebp]
	movss	xmm0, DWORD PTR [eax+8]
	mulss	xmm0, DWORD PTR _sa$[ebp]
	mov	ecx, DWORD PTR _q$[ebp]
	movss	DWORD PTR [ecx+8], xmm0

; 843  : 	q.w = ca;

	mov	eax, DWORD PTR _q$[ebp]
	movss	xmm0, DWORD PTR _ca$[ebp]
	movss	DWORD PTR [eax+12], xmm0

; 844  : }

	pop	edi
	pop	esi
	pop	ebx
	mov	esp, ebp
	pop	ebp
	ret	0
?AxisAngleQuaternion@@YAXABVVector@@MAAVVector4D@@@Z ENDP ; AxisAngleQuaternion
_TEXT	ENDS
; Function compile flags: /Odtp /ZI
; File d:\!diffusion 2020\source code 2022\client-server\game_shared\mathlib.cpp
;	COMDAT ?AngleQuaternion@@YAXABVVector@@AAVVector4D@@@Z
_TEXT	SEGMENT
_srXsp$ = -40						; size = 4
_crXcp$ = -36						; size = 4
_crXsp$ = -32						; size = 4
_srXcp$ = -28						; size = 4
_cy$ = -24						; size = 4
_cp$ = -20						; size = 4
_cr$ = -16						; size = 4
_sy$ = -12						; size = 4
_sp$ = -8						; size = 4
_sr$ = -4						; size = 4
_angles$ = 8						; size = 4
_quat$ = 12						; size = 4
?AngleQuaternion@@YAXABVVector@@AAVVector4D@@@Z PROC	; AngleQuaternion, COMDAT

; 499  : {

	push	ebp
	mov	ebp, esp
	sub	esp, 104				; 00000068H
	push	ebx
	push	esi
	push	edi

; 500  : 	float sr, sp, sy, cr, cp, cy;
; 501  : 
; 502  : 	SinCos( DEG2RAD( angles.y ) * 0.5f, &sy, &cy );

	lea	eax, DWORD PTR _cy$[ebp]
	push	eax
	lea	ecx, DWORD PTR _sy$[ebp]
	push	ecx
	mov	edx, DWORD PTR _angles$[ebp]
	movss	xmm0, DWORD PTR [edx+4]
	mulss	xmm0, DWORD PTR __real@3c8efa35
	mulss	xmm0, DWORD PTR __real@3f000000
	push	ecx
	movss	DWORD PTR [esp], xmm0
	call	?SinCos@@YAXMPAM0@Z			; SinCos
	add	esp, 12					; 0000000cH

; 503  : 	SinCos( DEG2RAD( angles.x ) * 0.5f, &sp, &cp );

	lea	eax, DWORD PTR _cp$[ebp]
	push	eax
	lea	ecx, DWORD PTR _sp$[ebp]
	push	ecx
	mov	edx, DWORD PTR _angles$[ebp]
	movss	xmm0, DWORD PTR [edx]
	mulss	xmm0, DWORD PTR __real@3c8efa35
	mulss	xmm0, DWORD PTR __real@3f000000
	push	ecx
	movss	DWORD PTR [esp], xmm0
	call	?SinCos@@YAXMPAM0@Z			; SinCos
	add	esp, 12					; 0000000cH

; 504  : 	SinCos( DEG2RAD( angles.z ) * 0.5f, &sr, &cr );

	lea	eax, DWORD PTR _cr$[ebp]
	push	eax
	lea	ecx, DWORD PTR _sr$[ebp]
	push	ecx
	mov	edx, DWORD PTR _angles$[ebp]
	movss	xmm0, DWORD PTR [edx+8]
	mulss	xmm0, DWORD PTR __real@3c8efa35
	mulss	xmm0, DWORD PTR __real@3f000000
	push	ecx
	movss	DWORD PTR [esp], xmm0
	call	?SinCos@@YAXMPAM0@Z			; SinCos
	add	esp, 12					; 0000000cH

; 505  : 
; 506  : 	float srXcp = sr * cp, crXsp = cr * sp;

	movss	xmm0, DWORD PTR _sr$[ebp]
	mulss	xmm0, DWORD PTR _cp$[ebp]
	movss	DWORD PTR _srXcp$[ebp], xmm0
	movss	xmm0, DWORD PTR _cr$[ebp]
	mulss	xmm0, DWORD PTR _sp$[ebp]
	movss	DWORD PTR _crXsp$[ebp], xmm0

; 507  : 	quat.x = srXcp * cy - crXsp * sy; // X

	movss	xmm0, DWORD PTR _srXcp$[ebp]
	mulss	xmm0, DWORD PTR _cy$[ebp]
	movss	xmm1, DWORD PTR _crXsp$[ebp]
	mulss	xmm1, DWORD PTR _sy$[ebp]
	subss	xmm0, xmm1
	mov	eax, DWORD PTR _quat$[ebp]
	movss	DWORD PTR [eax], xmm0

; 508  : 	quat.y = crXsp * cy + srXcp * sy; // Y

	movss	xmm0, DWORD PTR _crXsp$[ebp]
	mulss	xmm0, DWORD PTR _cy$[ebp]
	movss	xmm1, DWORD PTR _srXcp$[ebp]
	mulss	xmm1, DWORD PTR _sy$[ebp]
	addss	xmm0, xmm1
	mov	eax, DWORD PTR _quat$[ebp]
	movss	DWORD PTR [eax+4], xmm0

; 509  : 
; 510  : 	float crXcp = cr * cp, srXsp = sr * sp;

	movss	xmm0, DWORD PTR _cr$[ebp]
	mulss	xmm0, DWORD PTR _cp$[ebp]
	movss	DWORD PTR _crXcp$[ebp], xmm0
	movss	xmm0, DWORD PTR _sr$[ebp]
	mulss	xmm0, DWORD PTR _sp$[ebp]
	movss	DWORD PTR _srXsp$[ebp], xmm0

; 511  : 	quat.z = crXcp * sy - srXsp * cy; // Z

	movss	xmm0, DWORD PTR _crXcp$[ebp]
	mulss	xmm0, DWORD PTR _sy$[ebp]
	movss	xmm1, DWORD PTR _srXsp$[ebp]
	mulss	xmm1, DWORD PTR _cy$[ebp]
	subss	xmm0, xmm1
	mov	eax, DWORD PTR _quat$[ebp]
	movss	DWORD PTR [eax+8], xmm0

; 512  : 	quat.w = crXcp * cy + srXsp * sy; // W (real component)

	movss	xmm0, DWORD PTR _crXcp$[ebp]
	mulss	xmm0, DWORD PTR _cy$[ebp]
	movss	xmm1, DWORD PTR _srXsp$[ebp]
	mulss	xmm1, DWORD PTR _sy$[ebp]
	addss	xmm0, xmm1
	mov	eax, DWORD PTR _quat$[ebp]
	movss	DWORD PTR [eax+12], xmm0

; 513  : }

	pop	edi
	pop	esi
	pop	ebx
	mov	esp, ebp
	pop	ebp
	ret	0
?AngleQuaternion@@YAXABVVector@@AAVVector4D@@@Z ENDP	; AngleQuaternion
_TEXT	ENDS
; Function compile flags: /Odtp /ZI
; File d:\!diffusion 2020\source code 2022\client-server\game_shared\mathlib.cpp
;	COMDAT ?BoundsIsNull@@YA_NABVVector@@0@Z
_TEXT	SEGMENT
_mins$ = 8						; size = 4
_maxs$ = 12						; size = 4
?BoundsIsNull@@YA_NABVVector@@0@Z PROC			; BoundsIsNull, COMDAT

; 1459 : {

	push	ebp
	mov	ebp, esp
	sub	esp, 64					; 00000040H
	push	ebx
	push	esi
	push	edi

; 1460 : 	if( mins.x != maxs.x || mins.y != maxs.y || mins.z != maxs.z )

	mov	eax, DWORD PTR _mins$[ebp]
	mov	ecx, DWORD PTR _maxs$[ebp]
	movss	xmm0, DWORD PTR [eax]
	ucomiss	xmm0, DWORD PTR [ecx]
	lahf
	test	ah, 68					; 00000044H
	jp	SHORT $LN3@BoundsIsNu
	mov	eax, DWORD PTR _mins$[ebp]
	mov	ecx, DWORD PTR _maxs$[ebp]
	movss	xmm0, DWORD PTR [eax+4]
	ucomiss	xmm0, DWORD PTR [ecx+4]
	lahf
	test	ah, 68					; 00000044H
	jp	SHORT $LN3@BoundsIsNu
	mov	eax, DWORD PTR _mins$[ebp]
	mov	ecx, DWORD PTR _maxs$[ebp]
	movss	xmm0, DWORD PTR [eax+8]
	ucomiss	xmm0, DWORD PTR [ecx+8]
	lahf
	test	ah, 68					; 00000044H
	jnp	SHORT $LN2@BoundsIsNu
$LN3@BoundsIsNu:

; 1461 : 		return false;

	xor	al, al
	jmp	SHORT $LN1@BoundsIsNu
$LN2@BoundsIsNu:

; 1462 : 	return true;

	mov	al, 1
$LN1@BoundsIsNu:

; 1463 : }

	pop	edi
	pop	esi
	pop	ebx
	mov	esp, ebp
	pop	ebp
	ret	0
?BoundsIsNull@@YA_NABVVector@@0@Z ENDP			; BoundsIsNull
_TEXT	ENDS
; Function compile flags: /Odtp /ZI
; File d:\!diffusion 2020\source code 2022\client-server\game_shared\mathlib.cpp
;	COMDAT ?RadiusFromBounds@@YAMABVVector@@0@Z
_TEXT	SEGMENT
tv171 = -116						; size = 4
tv132 = -112						; size = 8
tv152 = -104						; size = 8
tv169 = -96						; size = 8
tv145 = -88						; size = 8
_i$1 = -16						; size = 4
_corner$ = -12						; size = 12
_mins$ = 8						; size = 4
_maxs$ = 12						; size = 4
?RadiusFromBounds@@YAMABVVector@@0@Z PROC		; RadiusFromBounds, COMDAT

; 478  : {

	push	ebp
	mov	ebp, esp
	sub	esp, 116				; 00000074H
	push	ebx
	push	esi
	push	edi

; 479  : 	Vector	corner;

	lea	ecx, DWORD PTR _corner$[ebp]
	call	??0Vector@@QAE@XZ			; Vector::Vector

; 480  : 
; 481  : 	for( int i = 0; i < 3; i++ )

	mov	DWORD PTR _i$1[ebp], 0
	jmp	SHORT $LN4@RadiusFrom
$LN2@RadiusFrom:
	mov	eax, DWORD PTR _i$1[ebp]
	add	eax, 1
	mov	DWORD PTR _i$1[ebp], eax
$LN4@RadiusFrom:
	cmp	DWORD PTR _i$1[ebp], 3
	jge	$LN3@RadiusFrom

; 482  : 	{
; 483  : 		corner[i] = fabs( mins[i] ) > fabs( maxs[i] ) ? fabs( mins[i] ) : fabs( maxs[i] );

	mov	ecx, DWORD PTR _mins$[ebp]
	call	??BVector@@QBEPBMXZ			; Vector::operator float const *
	mov	ecx, DWORD PTR _i$1[ebp]
	cvtss2sd xmm0, DWORD PTR [eax+ecx*4]
	sub	esp, 8
	movsd	QWORD PTR [esp], xmm0
	call	_fabs
	add	esp, 8
	fstp	QWORD PTR tv145[ebp]
	movsd	xmm0, QWORD PTR tv145[ebp]
	mov	ecx, DWORD PTR _maxs$[ebp]
	movsd	QWORD PTR tv169[ebp], xmm0
	call	??BVector@@QBEPBMXZ			; Vector::operator float const *
	mov	edx, DWORD PTR _i$1[ebp]
	cvtss2sd xmm0, DWORD PTR [eax+edx*4]
	sub	esp, 8
	movsd	QWORD PTR [esp], xmm0
	call	_fabs
	add	esp, 8
	fstp	QWORD PTR tv152[ebp]
	movsd	xmm0, QWORD PTR tv169[ebp]
	comisd	xmm0, QWORD PTR tv152[ebp]
	jbe	SHORT $LN6@RadiusFrom
	mov	ecx, DWORD PTR _mins$[ebp]
	call	??BVector@@QBEPBMXZ			; Vector::operator float const *
	mov	ecx, DWORD PTR _i$1[ebp]
	cvtss2sd xmm0, DWORD PTR [eax+ecx*4]
	sub	esp, 8
	movsd	QWORD PTR [esp], xmm0
	call	_fabs
	add	esp, 8
	fstp	QWORD PTR tv132[ebp]
	jmp	SHORT $LN7@RadiusFrom
$LN6@RadiusFrom:
	mov	ecx, DWORD PTR _maxs$[ebp]
	call	??BVector@@QBEPBMXZ			; Vector::operator float const *
	mov	edx, DWORD PTR _i$1[ebp]
	cvtss2sd xmm0, DWORD PTR [eax+edx*4]
	sub	esp, 8
	movsd	QWORD PTR [esp], xmm0
	call	_fabs
	add	esp, 8
	fstp	QWORD PTR tv132[ebp]
$LN7@RadiusFrom:
	cvtsd2ss xmm0, QWORD PTR tv132[ebp]
	lea	ecx, DWORD PTR _corner$[ebp]
	movss	DWORD PTR tv171[ebp], xmm0
	call	??BVector@@QAEPAMXZ			; Vector::operator float *
	mov	ecx, DWORD PTR _i$1[ebp]
	movss	xmm0, DWORD PTR tv171[ebp]
	movss	DWORD PTR [eax+ecx*4], xmm0

; 484  : 	}

	jmp	$LN2@RadiusFrom
$LN3@RadiusFrom:

; 485  : 	return corner.Length();

	lea	ecx, DWORD PTR _corner$[ebp]
	call	?Length@Vector@@QBEMXZ			; Vector::Length

; 486  : }

	pop	edi
	pop	esi
	pop	ebx
	mov	esp, ebp
	pop	ebp
	ret	0
?RadiusFromBounds@@YAMABVVector@@0@Z ENDP		; RadiusFromBounds
_TEXT	ENDS
; Function compile flags: /Odtp /ZI
; File d:\!diffusion 2020\source code 2022\client-server\game_shared\mathlib.cpp
;	COMDAT ?PointInBounds@@YA_NABVVector@@00@Z
_TEXT	SEGMENT
_pt$ = 8						; size = 4
_boxMin$ = 12						; size = 4
_boxMax$ = 16						; size = 4
?PointInBounds@@YA_NABVVector@@00@Z PROC		; PointInBounds, COMDAT

; 462  : {

	push	ebp
	mov	ebp, esp
	sub	esp, 64					; 00000040H
	push	ebx
	push	esi
	push	edi

; 463  : 	if(( pt[0] > boxMax[0] ) || ( pt[0] < boxMin[0] ))

	mov	ecx, DWORD PTR _pt$[ebp]
	call	??BVector@@QBEPBMXZ			; Vector::operator float const *
	mov	esi, eax
	mov	eax, 4
	imul	edi, eax, 0
	mov	ecx, DWORD PTR _boxMax$[ebp]
	call	??BVector@@QBEPBMXZ			; Vector::operator float const *
	mov	ecx, 4
	imul	edx, ecx, 0
	movss	xmm0, DWORD PTR [esi+edi]
	comiss	xmm0, DWORD PTR [eax+edx]
	ja	SHORT $LN3@PointInBou
	mov	ecx, DWORD PTR _pt$[ebp]
	call	??BVector@@QBEPBMXZ			; Vector::operator float const *
	mov	esi, eax
	mov	eax, 4
	imul	edi, eax, 0
	mov	ecx, DWORD PTR _boxMin$[ebp]
	call	??BVector@@QBEPBMXZ			; Vector::operator float const *
	mov	ecx, 4
	imul	edx, ecx, 0
	movss	xmm0, DWORD PTR [eax+edx]
	comiss	xmm0, DWORD PTR [esi+edi]
	jbe	SHORT $LN2@PointInBou
$LN3@PointInBou:

; 464  : 		return false;

	xor	al, al
	jmp	$LN1@PointInBou
$LN2@PointInBou:

; 465  : 	if(( pt[1] > boxMax[1] ) || ( pt[1] < boxMin[1] ))

	mov	ecx, DWORD PTR _pt$[ebp]
	call	??BVector@@QBEPBMXZ			; Vector::operator float const *
	mov	esi, eax
	mov	edi, 4
	shl	edi, 0
	mov	ecx, DWORD PTR _boxMax$[ebp]
	call	??BVector@@QBEPBMXZ			; Vector::operator float const *
	mov	ecx, 4
	shl	ecx, 0
	movss	xmm0, DWORD PTR [esi+edi]
	comiss	xmm0, DWORD PTR [eax+ecx]
	ja	SHORT $LN5@PointInBou
	mov	ecx, DWORD PTR _pt$[ebp]
	call	??BVector@@QBEPBMXZ			; Vector::operator float const *
	mov	esi, eax
	mov	edi, 4
	shl	edi, 0
	mov	ecx, DWORD PTR _boxMin$[ebp]
	call	??BVector@@QBEPBMXZ			; Vector::operator float const *
	mov	ecx, 4
	shl	ecx, 0
	movss	xmm0, DWORD PTR [eax+ecx]
	comiss	xmm0, DWORD PTR [esi+edi]
	jbe	SHORT $LN4@PointInBou
$LN5@PointInBou:

; 466  : 		return false;

	xor	al, al
	jmp	SHORT $LN1@PointInBou
$LN4@PointInBou:

; 467  : 	if(( pt[2] > boxMax[2] ) || ( pt[2] < boxMin[2] ))

	mov	ecx, DWORD PTR _pt$[ebp]
	call	??BVector@@QBEPBMXZ			; Vector::operator float const *
	mov	esi, eax
	mov	edi, 4
	shl	edi, 1
	mov	ecx, DWORD PTR _boxMax$[ebp]
	call	??BVector@@QBEPBMXZ			; Vector::operator float const *
	mov	ecx, 4
	shl	ecx, 1
	movss	xmm0, DWORD PTR [esi+edi]
	comiss	xmm0, DWORD PTR [eax+ecx]
	ja	SHORT $LN7@PointInBou
	mov	ecx, DWORD PTR _pt$[ebp]
	call	??BVector@@QBEPBMXZ			; Vector::operator float const *
	mov	esi, eax
	mov	edi, 4
	shl	edi, 1
	mov	ecx, DWORD PTR _boxMin$[ebp]
	call	??BVector@@QBEPBMXZ			; Vector::operator float const *
	mov	ecx, 4
	shl	ecx, 1
	movss	xmm0, DWORD PTR [eax+ecx]
	comiss	xmm0, DWORD PTR [esi+edi]
	jbe	SHORT $LN6@PointInBou
$LN7@PointInBou:

; 468  : 		return false;

	xor	al, al
	jmp	SHORT $LN1@PointInBou
$LN6@PointInBou:

; 469  : 	return true;

	mov	al, 1
$LN1@PointInBou:

; 470  : }

	pop	edi
	pop	esi
	pop	ebx
	mov	esp, ebp
	pop	ebp
	ret	0
?PointInBounds@@YA_NABVVector@@00@Z ENDP		; PointInBounds
_TEXT	ENDS
; Function compile flags: /Odtp /ZI
; File d:\!diffusion 2020\source code 2022\client-server\game_shared\mathlib.cpp
;	COMDAT ?BoundsAndSphereIntersect@@YA_NABVVector2D@@00M@Z
_TEXT	SEGMENT
_mins$ = 8						; size = 4
_maxs$ = 12						; size = 4
_origin$ = 16						; size = 4
_radius$ = 20						; size = 4
?BoundsAndSphereIntersect@@YA_NABVVector2D@@00M@Z PROC	; BoundsAndSphereIntersect, COMDAT

; 449  : {

	push	ebp
	mov	ebp, esp
	sub	esp, 64					; 00000040H
	push	ebx
	push	esi
	push	edi

; 450  : 	if( mins.x > origin.x + radius || mins.y > origin.y + radius )

	mov	eax, DWORD PTR _origin$[ebp]
	movss	xmm0, DWORD PTR [eax]
	addss	xmm0, DWORD PTR _radius$[ebp]
	mov	ecx, DWORD PTR _mins$[ebp]
	movss	xmm1, DWORD PTR [ecx]
	comiss	xmm1, xmm0
	ja	SHORT $LN3@BoundsAndS
	mov	eax, DWORD PTR _origin$[ebp]
	movss	xmm0, DWORD PTR [eax+4]
	addss	xmm0, DWORD PTR _radius$[ebp]
	mov	ecx, DWORD PTR _mins$[ebp]
	movss	xmm1, DWORD PTR [ecx+4]
	comiss	xmm1, xmm0
	jbe	SHORT $LN2@BoundsAndS
$LN3@BoundsAndS:

; 451  : 		return false;

	xor	al, al
	jmp	SHORT $LN1@BoundsAndS
$LN2@BoundsAndS:

; 452  : 	if( maxs.x < origin.x - radius || maxs.y < origin.y - radius )

	mov	eax, DWORD PTR _origin$[ebp]
	movss	xmm0, DWORD PTR [eax]
	subss	xmm0, DWORD PTR _radius$[ebp]
	mov	ecx, DWORD PTR _maxs$[ebp]
	comiss	xmm0, DWORD PTR [ecx]
	ja	SHORT $LN5@BoundsAndS
	mov	eax, DWORD PTR _origin$[ebp]
	movss	xmm0, DWORD PTR [eax+4]
	subss	xmm0, DWORD PTR _radius$[ebp]
	mov	ecx, DWORD PTR _maxs$[ebp]
	comiss	xmm0, DWORD PTR [ecx+4]
	jbe	SHORT $LN4@BoundsAndS
$LN5@BoundsAndS:

; 453  : 		return false;

	xor	al, al
	jmp	SHORT $LN1@BoundsAndS
$LN4@BoundsAndS:

; 454  : 	return true;

	mov	al, 1
$LN1@BoundsAndS:

; 455  : }

	pop	edi
	pop	esi
	pop	ebx
	mov	esp, ebp
	pop	ebp
	ret	0
?BoundsAndSphereIntersect@@YA_NABVVector2D@@00M@Z ENDP	; BoundsAndSphereIntersect
_TEXT	ENDS
; Function compile flags: /Odtp /ZI
; File d:\!diffusion 2020\source code 2022\client-server\game_shared\mathlib.cpp
;	COMDAT ?BoundsAndSphereIntersect@@YA_NABVVector@@00M@Z
_TEXT	SEGMENT
_mins$ = 8						; size = 4
_maxs$ = 12						; size = 4
_origin$ = 16						; size = 4
_radius$ = 20						; size = 4
?BoundsAndSphereIntersect@@YA_NABVVector@@00M@Z PROC	; BoundsAndSphereIntersect, COMDAT

; 434  : {

	push	ebp
	mov	ebp, esp
	sub	esp, 64					; 00000040H
	push	ebx
	push	esi
	push	edi

; 435  : 	if( mins.x > origin.x + radius || mins.y > origin.y + radius || mins.z > origin.z + radius )

	mov	eax, DWORD PTR _origin$[ebp]
	movss	xmm0, DWORD PTR [eax]
	addss	xmm0, DWORD PTR _radius$[ebp]
	mov	ecx, DWORD PTR _mins$[ebp]
	movss	xmm1, DWORD PTR [ecx]
	comiss	xmm1, xmm0
	ja	SHORT $LN3@BoundsAndS
	mov	eax, DWORD PTR _origin$[ebp]
	movss	xmm0, DWORD PTR [eax+4]
	addss	xmm0, DWORD PTR _radius$[ebp]
	mov	ecx, DWORD PTR _mins$[ebp]
	movss	xmm1, DWORD PTR [ecx+4]
	comiss	xmm1, xmm0
	ja	SHORT $LN3@BoundsAndS
	mov	eax, DWORD PTR _origin$[ebp]
	movss	xmm0, DWORD PTR [eax+8]
	addss	xmm0, DWORD PTR _radius$[ebp]
	mov	ecx, DWORD PTR _mins$[ebp]
	movss	xmm1, DWORD PTR [ecx+8]
	comiss	xmm1, xmm0
	jbe	SHORT $LN2@BoundsAndS
$LN3@BoundsAndS:

; 436  : 		return false;

	xor	al, al
	jmp	SHORT $LN1@BoundsAndS
$LN2@BoundsAndS:

; 437  : 	if( maxs.x < origin.x - radius || maxs.y < origin.y - radius || maxs.z < origin.z - radius )

	mov	eax, DWORD PTR _origin$[ebp]
	movss	xmm0, DWORD PTR [eax]
	subss	xmm0, DWORD PTR _radius$[ebp]
	mov	ecx, DWORD PTR _maxs$[ebp]
	comiss	xmm0, DWORD PTR [ecx]
	ja	SHORT $LN5@BoundsAndS
	mov	eax, DWORD PTR _origin$[ebp]
	movss	xmm0, DWORD PTR [eax+4]
	subss	xmm0, DWORD PTR _radius$[ebp]
	mov	ecx, DWORD PTR _maxs$[ebp]
	comiss	xmm0, DWORD PTR [ecx+4]
	ja	SHORT $LN5@BoundsAndS
	mov	eax, DWORD PTR _origin$[ebp]
	movss	xmm0, DWORD PTR [eax+8]
	subss	xmm0, DWORD PTR _radius$[ebp]
	mov	ecx, DWORD PTR _maxs$[ebp]
	comiss	xmm0, DWORD PTR [ecx+8]
	jbe	SHORT $LN4@BoundsAndS
$LN5@BoundsAndS:

; 438  : 		return false;

	xor	al, al
	jmp	SHORT $LN1@BoundsAndS
$LN4@BoundsAndS:

; 439  : 	return true;

	mov	al, 1
$LN1@BoundsAndS:

; 440  : }

	pop	edi
	pop	esi
	pop	ebx
	mov	esp, ebp
	pop	ebp
	ret	0
?BoundsAndSphereIntersect@@YA_NABVVector@@00M@Z ENDP	; BoundsAndSphereIntersect
_TEXT	ENDS
; Function compile flags: /Odtp /ZI
; File d:\!diffusion 2020\source code 2022\client-server\game_shared\mathlib.cpp
;	COMDAT ?BoundsIntersect@@YA_NABVVector2D@@000@Z
_TEXT	SEGMENT
_mins1$ = 8						; size = 4
_maxs1$ = 12						; size = 4
_mins2$ = 16						; size = 4
_maxs2$ = 20						; size = 4
?BoundsIntersect@@YA_NABVVector2D@@000@Z PROC		; BoundsIntersect, COMDAT

; 420  : {

	push	ebp
	mov	ebp, esp
	sub	esp, 64					; 00000040H
	push	ebx
	push	esi
	push	edi

; 421  : 	if( mins1.x > maxs2.x || mins1.y > maxs2.y )

	mov	eax, DWORD PTR _mins1$[ebp]
	mov	ecx, DWORD PTR _maxs2$[ebp]
	movss	xmm0, DWORD PTR [eax]
	comiss	xmm0, DWORD PTR [ecx]
	ja	SHORT $LN3@BoundsInte
	mov	eax, DWORD PTR _mins1$[ebp]
	mov	ecx, DWORD PTR _maxs2$[ebp]
	movss	xmm0, DWORD PTR [eax+4]
	comiss	xmm0, DWORD PTR [ecx+4]
	jbe	SHORT $LN2@BoundsInte
$LN3@BoundsInte:

; 422  : 		return false;

	xor	al, al
	jmp	SHORT $LN1@BoundsInte
$LN2@BoundsInte:

; 423  : 	if( maxs1.x < mins2.x || maxs1.y < mins2.y )

	mov	eax, DWORD PTR _mins2$[ebp]
	mov	ecx, DWORD PTR _maxs1$[ebp]
	movss	xmm0, DWORD PTR [eax]
	comiss	xmm0, DWORD PTR [ecx]
	ja	SHORT $LN5@BoundsInte
	mov	eax, DWORD PTR _mins2$[ebp]
	mov	ecx, DWORD PTR _maxs1$[ebp]
	movss	xmm0, DWORD PTR [eax+4]
	comiss	xmm0, DWORD PTR [ecx+4]
	jbe	SHORT $LN4@BoundsInte
$LN5@BoundsInte:

; 424  : 		return false;

	xor	al, al
	jmp	SHORT $LN1@BoundsInte
$LN4@BoundsInte:

; 425  : 	return true;

	mov	al, 1
$LN1@BoundsInte:

; 426  : }

	pop	edi
	pop	esi
	pop	ebx
	mov	esp, ebp
	pop	ebp
	ret	0
?BoundsIntersect@@YA_NABVVector2D@@000@Z ENDP		; BoundsIntersect
_TEXT	ENDS
; Function compile flags: /Odtp /ZI
; File d:\!diffusion 2020\source code 2022\client-server\game_shared\mathlib.cpp
;	COMDAT ?BoundsIntersect@@YA_NABVVector@@000@Z
_TEXT	SEGMENT
_mins1$ = 8						; size = 4
_maxs1$ = 12						; size = 4
_mins2$ = 16						; size = 4
_maxs2$ = 20						; size = 4
?BoundsIntersect@@YA_NABVVector@@000@Z PROC		; BoundsIntersect, COMDAT

; 406  : {

	push	ebp
	mov	ebp, esp
	sub	esp, 64					; 00000040H
	push	ebx
	push	esi
	push	edi

; 407  : 	if( mins1.x > maxs2.x || mins1.y > maxs2.y || mins1.z > maxs2.z )

	mov	eax, DWORD PTR _mins1$[ebp]
	mov	ecx, DWORD PTR _maxs2$[ebp]
	movss	xmm0, DWORD PTR [eax]
	comiss	xmm0, DWORD PTR [ecx]
	ja	SHORT $LN3@BoundsInte
	mov	eax, DWORD PTR _mins1$[ebp]
	mov	ecx, DWORD PTR _maxs2$[ebp]
	movss	xmm0, DWORD PTR [eax+4]
	comiss	xmm0, DWORD PTR [ecx+4]
	ja	SHORT $LN3@BoundsInte
	mov	eax, DWORD PTR _mins1$[ebp]
	mov	ecx, DWORD PTR _maxs2$[ebp]
	movss	xmm0, DWORD PTR [eax+8]
	comiss	xmm0, DWORD PTR [ecx+8]
	jbe	SHORT $LN2@BoundsInte
$LN3@BoundsInte:

; 408  : 		return false;

	xor	al, al
	jmp	SHORT $LN1@BoundsInte
$LN2@BoundsInte:

; 409  : 	if( maxs1.x < mins2.x || maxs1.y < mins2.y || maxs1.z < mins2.z )

	mov	eax, DWORD PTR _mins2$[ebp]
	mov	ecx, DWORD PTR _maxs1$[ebp]
	movss	xmm0, DWORD PTR [eax]
	comiss	xmm0, DWORD PTR [ecx]
	ja	SHORT $LN5@BoundsInte
	mov	eax, DWORD PTR _mins2$[ebp]
	mov	ecx, DWORD PTR _maxs1$[ebp]
	movss	xmm0, DWORD PTR [eax+4]
	comiss	xmm0, DWORD PTR [ecx+4]
	ja	SHORT $LN5@BoundsInte
	mov	eax, DWORD PTR _mins2$[ebp]
	mov	ecx, DWORD PTR _maxs1$[ebp]
	movss	xmm0, DWORD PTR [eax+8]
	comiss	xmm0, DWORD PTR [ecx+8]
	jbe	SHORT $LN4@BoundsInte
$LN5@BoundsInte:

; 410  : 		return false;

	xor	al, al
	jmp	SHORT $LN1@BoundsInte
$LN4@BoundsInte:

; 411  : 	return true;

	mov	al, 1
$LN1@BoundsInte:

; 412  : }

	pop	edi
	pop	esi
	pop	ebx
	mov	esp, ebp
	pop	ebp
	ret	0
?BoundsIntersect@@YA_NABVVector@@000@Z ENDP		; BoundsIntersect
_TEXT	ENDS
; Function compile flags: /Odtp /ZI
; File d:\!diffusion 2020\source code 2022\client-server\game_shared\mathlib.cpp
;	COMDAT ?AddPointToBounds@@YAXABVVector2D@@AAV1@1@Z
_TEXT	SEGMENT
_i$1 = -4						; size = 4
_v$ = 8							; size = 4
_mins$ = 12						; size = 4
_maxs$ = 16						; size = 4
?AddPointToBounds@@YAXABVVector2D@@AAV1@1@Z PROC	; AddPointToBounds, COMDAT

; 392  : {

	push	ebp
	mov	ebp, esp
	sub	esp, 68					; 00000044H
	push	ebx
	push	esi
	push	edi

; 393  : 	for( int i = 0; i < 2; i++ )

	mov	DWORD PTR _i$1[ebp], 0
	jmp	SHORT $LN4@AddPointTo
$LN2@AddPointTo:
	mov	eax, DWORD PTR _i$1[ebp]
	add	eax, 1
	mov	DWORD PTR _i$1[ebp], eax
$LN4@AddPointTo:
	cmp	DWORD PTR _i$1[ebp], 2
	jge	$LN3@AddPointTo

; 394  : 	{
; 395  : 		if( v[i] < mins[i] ) mins[i] = v[i];

	mov	ecx, DWORD PTR _v$[ebp]
	call	??BVector2D@@QBEPBMXZ			; Vector2D::operator float const *
	mov	esi, eax
	mov	ecx, DWORD PTR _mins$[ebp]
	call	??BVector2D@@QAEPAMXZ			; Vector2D::operator float *
	mov	ecx, DWORD PTR _i$1[ebp]
	mov	edx, DWORD PTR _i$1[ebp]
	movss	xmm0, DWORD PTR [eax+ecx*4]
	comiss	xmm0, DWORD PTR [esi+edx*4]
	jbe	SHORT $LN5@AddPointTo
	mov	ecx, DWORD PTR _v$[ebp]
	call	??BVector2D@@QBEPBMXZ			; Vector2D::operator float const *
	mov	esi, eax
	mov	ecx, DWORD PTR _mins$[ebp]
	call	??BVector2D@@QAEPAMXZ			; Vector2D::operator float *
	mov	ecx, DWORD PTR _i$1[ebp]
	mov	edx, DWORD PTR _i$1[ebp]
	mov	edx, DWORD PTR [esi+edx*4]
	mov	DWORD PTR [eax+ecx*4], edx
$LN5@AddPointTo:

; 396  : 		if( v[i] > maxs[i] ) maxs[i] = v[i];

	mov	ecx, DWORD PTR _v$[ebp]
	call	??BVector2D@@QBEPBMXZ			; Vector2D::operator float const *
	mov	esi, eax
	mov	ecx, DWORD PTR _maxs$[ebp]
	call	??BVector2D@@QAEPAMXZ			; Vector2D::operator float *
	mov	ecx, DWORD PTR _i$1[ebp]
	mov	edx, DWORD PTR _i$1[ebp]
	movss	xmm0, DWORD PTR [esi+ecx*4]
	comiss	xmm0, DWORD PTR [eax+edx*4]
	jbe	SHORT $LN6@AddPointTo
	mov	ecx, DWORD PTR _v$[ebp]
	call	??BVector2D@@QBEPBMXZ			; Vector2D::operator float const *
	mov	esi, eax
	mov	ecx, DWORD PTR _maxs$[ebp]
	call	??BVector2D@@QAEPAMXZ			; Vector2D::operator float *
	mov	ecx, DWORD PTR _i$1[ebp]
	mov	edx, DWORD PTR _i$1[ebp]
	mov	edx, DWORD PTR [esi+edx*4]
	mov	DWORD PTR [eax+ecx*4], edx
$LN6@AddPointTo:

; 397  : 	}

	jmp	$LN2@AddPointTo
$LN3@AddPointTo:

; 398  : }

	pop	edi
	pop	esi
	pop	ebx
	mov	esp, ebp
	pop	ebp
	ret	0
?AddPointToBounds@@YAXABVVector2D@@AAV1@1@Z ENDP	; AddPointToBounds
_TEXT	ENDS
; Function compile flags: /Odtp /ZI
; File d:\!diffusion 2020\source code 2022\client-server\game_shared\mathlib.cpp
;	COMDAT ?AddPointToBounds@@YAXABVVector@@AAV1@1M@Z
_TEXT	SEGMENT
tv164 = -76						; size = 4
tv131 = -76						; size = 4
_i$1 = -8						; size = 4
_i$2 = -4						; size = 4
_v$ = 8							; size = 4
_mins$ = 12						; size = 4
_maxs$ = 16						; size = 4
_limit$ = 20						; size = 4
?AddPointToBounds@@YAXABVVector@@AAV1@1M@Z PROC		; AddPointToBounds, COMDAT

; 367  : {

	push	ebp
	mov	ebp, esp
	sub	esp, 76					; 0000004cH
	push	ebx
	push	esi
	push	edi

; 368  : 	if( limit )

	movss	xmm0, DWORD PTR _limit$[ebp]
	ucomiss	xmm0, DWORD PTR __real@00000000
	lahf
	test	ah, 68					; 00000044H
	jnp	$LN8@AddPointTo

; 369  : 	{
; 370  : 		for( int i = 0; i < 3; i++ )

	mov	DWORD PTR _i$2[ebp], 0
	jmp	SHORT $LN4@AddPointTo
$LN2@AddPointTo:
	mov	eax, DWORD PTR _i$2[ebp]
	add	eax, 1
	mov	DWORD PTR _i$2[ebp], eax
$LN4@AddPointTo:
	cmp	DWORD PTR _i$2[ebp], 3
	jge	$LN3@AddPointTo

; 371  : 		{
; 372  : 			if( v[i] < mins[i] ) mins[i] = Q_max( v[i], mins[i] - limit );

	mov	ecx, DWORD PTR _v$[ebp]
	call	??BVector@@QBEPBMXZ			; Vector::operator float const *
	mov	esi, eax
	mov	ecx, DWORD PTR _mins$[ebp]
	call	??BVector@@QAEPAMXZ			; Vector::operator float *
	mov	ecx, DWORD PTR _i$2[ebp]
	mov	edx, DWORD PTR _i$2[ebp]
	movss	xmm0, DWORD PTR [eax+ecx*4]
	comiss	xmm0, DWORD PTR [esi+edx*4]
	jbe	SHORT $LN10@AddPointTo
	mov	ecx, DWORD PTR _v$[ebp]
	call	??BVector@@QBEPBMXZ			; Vector::operator float const *
	mov	esi, eax
	mov	ecx, DWORD PTR _mins$[ebp]
	call	??BVector@@QAEPAMXZ			; Vector::operator float *
	mov	ecx, DWORD PTR _i$2[ebp]
	movss	xmm0, DWORD PTR [eax+ecx*4]
	subss	xmm0, DWORD PTR _limit$[ebp]
	mov	edx, DWORD PTR _i$2[ebp]
	movss	xmm1, DWORD PTR [esi+edx*4]
	comiss	xmm1, xmm0
	jbe	SHORT $LN15@AddPointTo
	mov	ecx, DWORD PTR _v$[ebp]
	call	??BVector@@QBEPBMXZ			; Vector::operator float const *
	mov	ecx, DWORD PTR _i$2[ebp]
	movss	xmm0, DWORD PTR [eax+ecx*4]
	movss	DWORD PTR tv131[ebp], xmm0
	jmp	SHORT $LN16@AddPointTo
$LN15@AddPointTo:
	mov	ecx, DWORD PTR _mins$[ebp]
	call	??BVector@@QAEPAMXZ			; Vector::operator float *
	mov	edx, DWORD PTR _i$2[ebp]
	movss	xmm0, DWORD PTR [eax+edx*4]
	subss	xmm0, DWORD PTR _limit$[ebp]
	movss	DWORD PTR tv131[ebp], xmm0
$LN16@AddPointTo:
	mov	ecx, DWORD PTR _mins$[ebp]
	call	??BVector@@QAEPAMXZ			; Vector::operator float *
	mov	ecx, DWORD PTR _i$2[ebp]
	movss	xmm0, DWORD PTR tv131[ebp]
	movss	DWORD PTR [eax+ecx*4], xmm0
$LN10@AddPointTo:

; 373  : 			if( v[i] > maxs[i] ) maxs[i] = Q_min( v[i], maxs[i] + limit );

	mov	ecx, DWORD PTR _v$[ebp]
	call	??BVector@@QBEPBMXZ			; Vector::operator float const *
	mov	esi, eax
	mov	ecx, DWORD PTR _maxs$[ebp]
	call	??BVector@@QAEPAMXZ			; Vector::operator float *
	mov	ecx, DWORD PTR _i$2[ebp]
	mov	edx, DWORD PTR _i$2[ebp]
	movss	xmm0, DWORD PTR [esi+ecx*4]
	comiss	xmm0, DWORD PTR [eax+edx*4]
	jbe	SHORT $LN11@AddPointTo
	mov	ecx, DWORD PTR _v$[ebp]
	call	??BVector@@QBEPBMXZ			; Vector::operator float const *
	mov	esi, eax
	mov	ecx, DWORD PTR _maxs$[ebp]
	call	??BVector@@QAEPAMXZ			; Vector::operator float *
	mov	ecx, DWORD PTR _i$2[ebp]
	movss	xmm0, DWORD PTR [eax+ecx*4]
	addss	xmm0, DWORD PTR _limit$[ebp]
	mov	edx, DWORD PTR _i$2[ebp]
	comiss	xmm0, DWORD PTR [esi+edx*4]
	jbe	SHORT $LN17@AddPointTo
	mov	ecx, DWORD PTR _v$[ebp]
	call	??BVector@@QBEPBMXZ			; Vector::operator float const *
	mov	ecx, DWORD PTR _i$2[ebp]
	movss	xmm0, DWORD PTR [eax+ecx*4]
	movss	DWORD PTR tv164[ebp], xmm0
	jmp	SHORT $LN18@AddPointTo
$LN17@AddPointTo:
	mov	ecx, DWORD PTR _maxs$[ebp]
	call	??BVector@@QAEPAMXZ			; Vector::operator float *
	mov	edx, DWORD PTR _i$2[ebp]
	movss	xmm0, DWORD PTR [eax+edx*4]
	addss	xmm0, DWORD PTR _limit$[ebp]
	movss	DWORD PTR tv164[ebp], xmm0
$LN18@AddPointTo:
	mov	ecx, DWORD PTR _maxs$[ebp]
	call	??BVector@@QAEPAMXZ			; Vector::operator float *
	mov	ecx, DWORD PTR _i$2[ebp]
	movss	xmm0, DWORD PTR tv164[ebp]
	movss	DWORD PTR [eax+ecx*4], xmm0
$LN11@AddPointTo:

; 374  : 		}

	jmp	$LN2@AddPointTo
$LN3@AddPointTo:

; 375  : 	}
; 376  : 	else

	jmp	$LN6@AddPointTo
$LN8@AddPointTo:

; 377  : 	{
; 378  : 		for( int i = 0; i < 3; i++ )

	mov	DWORD PTR _i$1[ebp], 0
	jmp	SHORT $LN7@AddPointTo
$LN5@AddPointTo:
	mov	eax, DWORD PTR _i$1[ebp]
	add	eax, 1
	mov	DWORD PTR _i$1[ebp], eax
$LN7@AddPointTo:
	cmp	DWORD PTR _i$1[ebp], 3
	jge	$LN6@AddPointTo

; 379  : 		{
; 380  : 			if( v[i] < mins[i] ) mins[i] = v[i];

	mov	ecx, DWORD PTR _v$[ebp]
	call	??BVector@@QBEPBMXZ			; Vector::operator float const *
	mov	esi, eax
	mov	ecx, DWORD PTR _mins$[ebp]
	call	??BVector@@QAEPAMXZ			; Vector::operator float *
	mov	ecx, DWORD PTR _i$1[ebp]
	mov	edx, DWORD PTR _i$1[ebp]
	movss	xmm0, DWORD PTR [eax+ecx*4]
	comiss	xmm0, DWORD PTR [esi+edx*4]
	jbe	SHORT $LN12@AddPointTo
	mov	ecx, DWORD PTR _v$[ebp]
	call	??BVector@@QBEPBMXZ			; Vector::operator float const *
	mov	esi, eax
	mov	ecx, DWORD PTR _mins$[ebp]
	call	??BVector@@QAEPAMXZ			; Vector::operator float *
	mov	ecx, DWORD PTR _i$1[ebp]
	mov	edx, DWORD PTR _i$1[ebp]
	mov	edx, DWORD PTR [esi+edx*4]
	mov	DWORD PTR [eax+ecx*4], edx
$LN12@AddPointTo:

; 381  : 			if( v[i] > maxs[i] ) maxs[i] = v[i];

	mov	ecx, DWORD PTR _v$[ebp]
	call	??BVector@@QBEPBMXZ			; Vector::operator float const *
	mov	esi, eax
	mov	ecx, DWORD PTR _maxs$[ebp]
	call	??BVector@@QAEPAMXZ			; Vector::operator float *
	mov	ecx, DWORD PTR _i$1[ebp]
	mov	edx, DWORD PTR _i$1[ebp]
	movss	xmm0, DWORD PTR [esi+ecx*4]
	comiss	xmm0, DWORD PTR [eax+edx*4]
	jbe	SHORT $LN13@AddPointTo
	mov	ecx, DWORD PTR _v$[ebp]
	call	??BVector@@QBEPBMXZ			; Vector::operator float const *
	mov	esi, eax
	mov	ecx, DWORD PTR _maxs$[ebp]
	call	??BVector@@QAEPAMXZ			; Vector::operator float *
	mov	ecx, DWORD PTR _i$1[ebp]
	mov	edx, DWORD PTR _i$1[ebp]
	mov	edx, DWORD PTR [esi+edx*4]
	mov	DWORD PTR [eax+ecx*4], edx
$LN13@AddPointTo:

; 382  : 		}

	jmp	$LN5@AddPointTo
$LN6@AddPointTo:

; 383  : 	}
; 384  : }

	pop	edi
	pop	esi
	pop	ebx
	mov	esp, ebp
	pop	ebp
	ret	0
?AddPointToBounds@@YAXABVVector@@AAV1@1M@Z ENDP		; AddPointToBounds
_TEXT	ENDS
; Function compile flags: /Odtp /ZI
; File d:\!diffusion 2020\source code 2022\client-server\game_shared\mathlib.cpp
;	COMDAT ?ExpandBounds@@YAXAAVVector@@0M@Z
_TEXT	SEGMENT
tv130 = -68						; size = 4
tv92 = -68						; size = 4
tv86 = -68						; size = 4
tv80 = -68						; size = 4
tv74 = -68						; size = 4
tv68 = -68						; size = 4
_mins$ = 8						; size = 4
_maxs$ = 12						; size = 4
_offset$ = 16						; size = 4
?ExpandBounds@@YAXAAVVector@@0M@Z PROC			; ExpandBounds, COMDAT

; 352  : {

	push	ebp
	mov	ebp, esp
	sub	esp, 68					; 00000044H
	push	ebx
	push	esi
	push	edi

; 353  : 	mins[0] -= offset;

	mov	ecx, DWORD PTR _mins$[ebp]
	call	??BVector@@QAEPAMXZ			; Vector::operator float *
	mov	ecx, 4
	imul	edx, ecx, 0
	add	eax, edx
	mov	DWORD PTR tv68[ebp], eax
	mov	eax, DWORD PTR tv68[ebp]
	movss	xmm0, DWORD PTR [eax]
	subss	xmm0, DWORD PTR _offset$[ebp]
	mov	ecx, DWORD PTR tv68[ebp]
	movss	DWORD PTR [ecx], xmm0

; 354  : 	mins[1] -= offset;

	mov	ecx, DWORD PTR _mins$[ebp]
	call	??BVector@@QAEPAMXZ			; Vector::operator float *
	mov	ecx, 4
	shl	ecx, 0
	add	eax, ecx
	mov	DWORD PTR tv74[ebp], eax
	mov	edx, DWORD PTR tv74[ebp]
	movss	xmm0, DWORD PTR [edx]
	subss	xmm0, DWORD PTR _offset$[ebp]
	mov	eax, DWORD PTR tv74[ebp]
	movss	DWORD PTR [eax], xmm0

; 355  : 	mins[2] -= offset;

	mov	ecx, DWORD PTR _mins$[ebp]
	call	??BVector@@QAEPAMXZ			; Vector::operator float *
	mov	ecx, 4
	shl	ecx, 1
	add	eax, ecx
	mov	DWORD PTR tv80[ebp], eax
	mov	edx, DWORD PTR tv80[ebp]
	movss	xmm0, DWORD PTR [edx]
	subss	xmm0, DWORD PTR _offset$[ebp]
	mov	eax, DWORD PTR tv80[ebp]
	movss	DWORD PTR [eax], xmm0

; 356  : 	maxs[0] += offset;

	mov	ecx, DWORD PTR _maxs$[ebp]
	call	??BVector@@QAEPAMXZ			; Vector::operator float *
	mov	ecx, 4
	imul	edx, ecx, 0
	add	eax, edx
	mov	DWORD PTR tv86[ebp], eax
	mov	eax, DWORD PTR tv86[ebp]
	movss	xmm0, DWORD PTR [eax]
	addss	xmm0, DWORD PTR _offset$[ebp]
	mov	ecx, DWORD PTR tv86[ebp]
	movss	DWORD PTR [ecx], xmm0

; 357  : 	maxs[1] += offset;

	mov	ecx, DWORD PTR _maxs$[ebp]
	call	??BVector@@QAEPAMXZ			; Vector::operator float *
	mov	ecx, 4
	shl	ecx, 0
	add	eax, ecx
	mov	DWORD PTR tv92[ebp], eax
	mov	edx, DWORD PTR tv92[ebp]
	movss	xmm0, DWORD PTR [edx]
	addss	xmm0, DWORD PTR _offset$[ebp]
	mov	eax, DWORD PTR tv92[ebp]
	movss	DWORD PTR [eax], xmm0

; 358  : 	maxs[2] += offset;

	mov	ecx, DWORD PTR _maxs$[ebp]
	call	??BVector@@QAEPAMXZ			; Vector::operator float *
	mov	ecx, 4
	shl	ecx, 1
	add	eax, ecx
	mov	DWORD PTR tv130[ebp], eax
	mov	edx, DWORD PTR tv130[ebp]
	movss	xmm0, DWORD PTR [edx]
	addss	xmm0, DWORD PTR _offset$[ebp]
	mov	eax, DWORD PTR tv130[ebp]
	movss	DWORD PTR [eax], xmm0

; 359  : }

	pop	edi
	pop	esi
	pop	ebx
	mov	esp, ebp
	pop	ebp
	ret	0
?ExpandBounds@@YAXAAVVector@@0M@Z ENDP			; ExpandBounds
_TEXT	ENDS
; Function compile flags: /Odtp /ZI
; File d:\!diffusion 2020\source code 2022\client-server\game_shared\mathlib.cpp
;	COMDAT ?BoundsIsCleared@@YA_NABVVector@@0@Z
_TEXT	SEGMENT
_mins$ = 8						; size = 4
_maxs$ = 12						; size = 4
?BoundsIsCleared@@YA_NABVVector@@0@Z PROC		; BoundsIsCleared, COMDAT

; 340  : {

	push	ebp
	mov	ebp, esp
	sub	esp, 64					; 00000040H
	push	ebx
	push	esi
	push	edi

; 341  : 	if( mins.x <= maxs.x || mins.y <= maxs.y || mins.z <= maxs.z )

	mov	eax, DWORD PTR _maxs$[ebp]
	mov	ecx, DWORD PTR _mins$[ebp]
	movss	xmm0, DWORD PTR [eax]
	comiss	xmm0, DWORD PTR [ecx]
	jae	SHORT $LN3@BoundsIsCl
	mov	eax, DWORD PTR _maxs$[ebp]
	mov	ecx, DWORD PTR _mins$[ebp]
	movss	xmm0, DWORD PTR [eax+4]
	comiss	xmm0, DWORD PTR [ecx+4]
	jae	SHORT $LN3@BoundsIsCl
	mov	eax, DWORD PTR _maxs$[ebp]
	mov	ecx, DWORD PTR _mins$[ebp]
	movss	xmm0, DWORD PTR [eax+8]
	comiss	xmm0, DWORD PTR [ecx+8]
	jb	SHORT $LN2@BoundsIsCl
$LN3@BoundsIsCl:

; 342  : 		return false;

	xor	al, al
	jmp	SHORT $LN1@BoundsIsCl
$LN2@BoundsIsCl:

; 343  : 	return true;

	mov	al, 1
$LN1@BoundsIsCl:

; 344  : }

	pop	edi
	pop	esi
	pop	ebx
	mov	esp, ebp
	pop	ebp
	ret	0
?BoundsIsCleared@@YA_NABVVector@@0@Z ENDP		; BoundsIsCleared
_TEXT	ENDS
; Function compile flags: /Odtp /ZI
; File d:\!diffusion 2020\source code 2022\client-server\game_shared\mathlib.cpp
;	COMDAT ?ClearBounds@@YAXAAVVector2D@@0@Z
_TEXT	SEGMENT
_mins$ = 8						; size = 4
_maxs$ = 12						; size = 4
?ClearBounds@@YAXAAVVector2D@@0@Z PROC			; ClearBounds, COMDAT

; 333  : {

	push	ebp
	mov	ebp, esp
	sub	esp, 64					; 00000040H
	push	ebx
	push	esi
	push	edi

; 334  : 	// make bogus range
; 335  : 	mins.x = mins.y =  999999;

	mov	eax, DWORD PTR _mins$[ebp]
	movss	xmm0, DWORD PTR __real@497423f0
	movss	DWORD PTR [eax+4], xmm0
	mov	ecx, DWORD PTR _mins$[ebp]
	movss	xmm0, DWORD PTR __real@497423f0
	movss	DWORD PTR [ecx], xmm0

; 336  : 	maxs.x = maxs.y = -999999;

	mov	eax, DWORD PTR _maxs$[ebp]
	movss	xmm0, DWORD PTR __real@c97423f0
	movss	DWORD PTR [eax+4], xmm0
	mov	ecx, DWORD PTR _maxs$[ebp]
	movss	xmm0, DWORD PTR __real@c97423f0
	movss	DWORD PTR [ecx], xmm0

; 337  : }

	pop	edi
	pop	esi
	pop	ebx
	mov	esp, ebp
	pop	ebp
	ret	0
?ClearBounds@@YAXAAVVector2D@@0@Z ENDP			; ClearBounds
_TEXT	ENDS
; Function compile flags: /Odtp /ZI
; File d:\!diffusion 2020\source code 2022\client-server\game_shared\mathlib.cpp
;	COMDAT ?ClearBounds@@YAXAAVVector@@0@Z
_TEXT	SEGMENT
_mins$ = 8						; size = 4
_maxs$ = 12						; size = 4
?ClearBounds@@YAXAAVVector@@0@Z PROC			; ClearBounds, COMDAT

; 321  : {

	push	ebp
	mov	ebp, esp
	sub	esp, 64					; 00000040H
	push	ebx
	push	esi
	push	edi

; 322  : 	// make bogus range
; 323  : 	mins.x = mins.y = mins.z =  999999;

	mov	eax, DWORD PTR _mins$[ebp]
	movss	xmm0, DWORD PTR __real@497423f0
	movss	DWORD PTR [eax+8], xmm0
	mov	ecx, DWORD PTR _mins$[ebp]
	movss	xmm0, DWORD PTR __real@497423f0
	movss	DWORD PTR [ecx+4], xmm0
	mov	edx, DWORD PTR _mins$[ebp]
	movss	xmm0, DWORD PTR __real@497423f0
	movss	DWORD PTR [edx], xmm0

; 324  : 	maxs.x = maxs.y = maxs.z = -999999;

	mov	eax, DWORD PTR _maxs$[ebp]
	movss	xmm0, DWORD PTR __real@c97423f0
	movss	DWORD PTR [eax+8], xmm0
	mov	ecx, DWORD PTR _maxs$[ebp]
	movss	xmm0, DWORD PTR __real@c97423f0
	movss	DWORD PTR [ecx+4], xmm0
	mov	edx, DWORD PTR _maxs$[ebp]
	movss	xmm0, DWORD PTR __real@c97423f0
	movss	DWORD PTR [edx], xmm0

; 325  : }

	pop	edi
	pop	esi
	pop	ebx
	mov	esp, ebp
	pop	ebp
	ret	0
?ClearBounds@@YAXAAVVector@@0@Z ENDP			; ClearBounds
_TEXT	ENDS
; Function compile flags: /Odtp /ZI
; File d:\!diffusion 2020\source code 2022\client-server\game_shared\mathlib.cpp
;	COMDAT ?SetPlane@@YAXPAUmplane_s@@ABVVector@@M@Z
_TEXT	SEGMENT
_plane$ = 8						; size = 4
_vecNormal$ = 12					; size = 4
_flDist$ = 16						; size = 4
?SetPlane@@YAXPAUmplane_s@@ABVVector@@M@Z PROC		; SetPlane, COMDAT

; 52   : {

	push	ebp
	mov	ebp, esp
	sub	esp, 64					; 00000040H
	push	ebx
	push	esi
	push	edi

; 53   : 	plane->type = PlaneTypeForNormal( vecNormal );

	mov	eax, DWORD PTR _vecNormal$[ebp]
	push	eax
	call	?PlaneTypeForNormal@@YAHABVVector@@@Z	; PlaneTypeForNormal
	add	esp, 4
	mov	ecx, DWORD PTR _plane$[ebp]
	mov	BYTE PTR [ecx+16], al

; 54   : 	plane->signbits = SignbitsForPlane( vecNormal );

	mov	eax, DWORD PTR _vecNormal$[ebp]
	push	eax
	call	?SignbitsForPlane@@YAHABVVector@@@Z	; SignbitsForPlane
	add	esp, 4
	mov	ecx, DWORD PTR _plane$[ebp]
	mov	BYTE PTR [ecx+17], al

; 55   : 	plane->normal = vecNormal;

	mov	eax, DWORD PTR _vecNormal$[ebp]
	mov	ecx, DWORD PTR _plane$[ebp]
	mov	edx, DWORD PTR [eax]
	mov	DWORD PTR [ecx], edx
	mov	edx, DWORD PTR [eax+4]
	mov	DWORD PTR [ecx+4], edx
	mov	eax, DWORD PTR [eax+8]
	mov	DWORD PTR [ecx+8], eax

; 56   : 	plane->dist = flDist;

	mov	eax, DWORD PTR _plane$[ebp]
	movss	xmm0, DWORD PTR _flDist$[ebp]
	movss	DWORD PTR [eax+12], xmm0

; 57   : }

	pop	edi
	pop	esi
	pop	ebx
	mov	esp, ebp
	pop	ebp
	ret	0
?SetPlane@@YAXPAUmplane_s@@ABVVector@@M@Z ENDP		; SetPlane
_TEXT	ENDS
; Function compile flags: /Odtp /ZI
; File d:\!diffusion 2020\source code 2022\client-server\game_shared\mathlib.cpp
;	COMDAT ?NearestPOW@@YAHH_N@Z
_TEXT	SEGMENT
_n$ = -4						; size = 4
_value$ = 8						; size = 4
_roundDown$ = 12					; size = 1
?NearestPOW@@YAHH_N@Z PROC				; NearestPOW, COMDAT

; 230  : {

	push	ebp
	mov	ebp, esp
	sub	esp, 68					; 00000044H
	push	ebx
	push	esi
	push	edi

; 231  : 	int	n = 1;

	mov	DWORD PTR _n$[ebp], 1

; 232  : 
; 233  : 	if( value <= 0 ) return 1;

	cmp	DWORD PTR _value$[ebp], 0
	jg	SHORT $LN2@NearestPOW
	mov	eax, 1
	jmp	SHORT $LN1@NearestPOW
$LN2@NearestPOW:

; 234  : 	while( n < value ) n <<= 1;

	mov	eax, DWORD PTR _n$[ebp]
	cmp	eax, DWORD PTR _value$[ebp]
	jge	SHORT $LN3@NearestPOW
	mov	eax, DWORD PTR _n$[ebp]
	shl	eax, 1
	mov	DWORD PTR _n$[ebp], eax
	jmp	SHORT $LN2@NearestPOW
$LN3@NearestPOW:

; 235  : 
; 236  : 	if( roundDown )

	movzx	eax, BYTE PTR _roundDown$[ebp]
	test	eax, eax
	je	SHORT $LN5@NearestPOW

; 237  : 	{
; 238  : 		if( n > value ) n >>= 1;

	mov	eax, DWORD PTR _n$[ebp]
	cmp	eax, DWORD PTR _value$[ebp]
	jle	SHORT $LN5@NearestPOW
	mov	eax, DWORD PTR _n$[ebp]
	sar	eax, 1
	mov	DWORD PTR _n$[ebp], eax
$LN5@NearestPOW:

; 239  : 	}
; 240  : 	return n;

	mov	eax, DWORD PTR _n$[ebp]
$LN1@NearestPOW:

; 241  : }

	pop	edi
	pop	esi
	pop	ebx
	mov	esp, ebp
	pop	ebp
	ret	0
?NearestPOW@@YAHH_N@Z ENDP				; NearestPOW
_TEXT	ENDS
; Function compile flags: /Odtp /ZI
; File d:\!diffusion 2020\source code 2022\client-server\game_shared\mathlib.cpp
;	COMDAT ?SignbitsForPlane@@YAHABVVector@@@Z
_TEXT	SEGMENT
_i$ = -8						; size = 4
_bits$ = -4						; size = 4
_normal$ = 8						; size = 4
?SignbitsForPlane@@YAHABVVector@@@Z PROC		; SignbitsForPlane, COMDAT

; 22   : {

	push	ebp
	mov	ebp, esp
	sub	esp, 72					; 00000048H
	push	ebx
	push	esi
	push	edi

; 23   : 	int bits, i;
; 24   : 	for( bits = 0, i = 0; i < 3; i++ )

	mov	DWORD PTR _bits$[ebp], 0
	mov	DWORD PTR _i$[ebp], 0
	jmp	SHORT $LN4@SignbitsFo
$LN2@SignbitsFo:
	mov	eax, DWORD PTR _i$[ebp]
	add	eax, 1
	mov	DWORD PTR _i$[ebp], eax
$LN4@SignbitsFo:
	cmp	DWORD PTR _i$[ebp], 3
	jge	SHORT $LN3@SignbitsFo

; 25   : 		if( normal[i] < 0.0f )

	mov	ecx, DWORD PTR _normal$[ebp]
	call	??BVector@@QBEPBMXZ			; Vector::operator float const *
	mov	ecx, DWORD PTR _i$[ebp]
	xorps	xmm0, xmm0
	comiss	xmm0, DWORD PTR [eax+ecx*4]
	jbe	SHORT $LN5@SignbitsFo

; 26   : 			bits |= 1<<i;

	mov	eax, 1
	mov	ecx, DWORD PTR _i$[ebp]
	shl	eax, cl
	or	eax, DWORD PTR _bits$[ebp]
	mov	DWORD PTR _bits$[ebp], eax
$LN5@SignbitsFo:

; 27   : 	return bits;

	jmp	SHORT $LN2@SignbitsFo
$LN3@SignbitsFo:
	mov	eax, DWORD PTR _bits$[ebp]

; 28   : }

	pop	edi
	pop	esi
	pop	ebx
	mov	esp, ebp
	pop	ebp
	ret	0
?SignbitsForPlane@@YAHABVVector@@@Z ENDP		; SignbitsForPlane
_TEXT	ENDS
; Function compile flags: /Odtp /ZI
; File d:\!diffusion 2020\source code 2022\client-server\game_shared\mathlib.cpp
;	COMDAT ?PlaneTypeForNormal@@YAHABVVector@@@Z
_TEXT	SEGMENT
_normal$ = 8						; size = 4
?PlaneTypeForNormal@@YAHABVVector@@@Z PROC		; PlaneTypeForNormal, COMDAT

; 36   : {

	push	ebp
	mov	ebp, esp
	sub	esp, 64					; 00000040H
	push	ebx
	push	esi
	push	edi

; 37   : 	if( normal.x == 1.0f )

	mov	eax, DWORD PTR _normal$[ebp]
	movss	xmm0, DWORD PTR [eax]
	ucomiss	xmm0, DWORD PTR __real@3f800000
	lahf
	test	ah, 68					; 00000044H
	jp	SHORT $LN2@PlaneTypeF

; 38   : 		return PLANE_X;

	xor	eax, eax
	jmp	SHORT $LN1@PlaneTypeF
$LN2@PlaneTypeF:

; 39   : 	if( normal.y == 1.0 )

	mov	eax, DWORD PTR _normal$[ebp]
	cvtss2sd xmm0, DWORD PTR [eax+4]
	ucomisd	xmm0, QWORD PTR __real@3ff0000000000000
	lahf
	test	ah, 68					; 00000044H
	jp	SHORT $LN3@PlaneTypeF

; 40   : 		return PLANE_Y;

	mov	eax, 1
	jmp	SHORT $LN1@PlaneTypeF
$LN3@PlaneTypeF:

; 41   : 	if( normal.z == 1.0 )

	mov	eax, DWORD PTR _normal$[ebp]
	cvtss2sd xmm0, DWORD PTR [eax+8]
	ucomisd	xmm0, QWORD PTR __real@3ff0000000000000
	lahf
	test	ah, 68					; 00000044H
	jp	SHORT $LN4@PlaneTypeF

; 42   : 		return PLANE_Z;

	mov	eax, 2
	jmp	SHORT $LN1@PlaneTypeF
$LN4@PlaneTypeF:

; 43   : 	return PLANE_NONAXIAL;

	mov	eax, 3
$LN1@PlaneTypeF:

; 44   : }

	pop	edi
	pop	esi
	pop	ebx
	mov	esp, ebp
	pop	ebp
	ret	0
?PlaneTypeForNormal@@YAHABVVector@@@Z ENDP		; PlaneTypeForNormal
_TEXT	ENDS
; Function compile flags: /Odtp /ZI
; File d:\!diffusion 2020\source code 2022\client-server\game_shared\mathlib.cpp
;	COMDAT ?CalcTBN@@YAXABVVector@@00ABVVector2D@@11AAV1@2_N@Z
_TEXT	SEGMENT
tv390 = -156						; size = 8
tv341 = -156						; size = 8
tv292 = -156						; size = 8
$T1 = -148						; size = 12
$T2 = -136						; size = 12
$T3 = -124						; size = 12
$T4 = -112						; size = 12
_cross$ = -36						; size = 12
_edge02$ = -24						; size = 12
_edge01$ = -12						; size = 12
_p0$ = 8						; size = 4
_p1$ = 12						; size = 4
_p2$ = 16						; size = 4
_t0$ = 20						; size = 4
_t1$ = 24						; size = 4
_t2$ = 28						; size = 4
_s$ = 32						; size = 4
_t$ = 36						; size = 4
_areaweight$ = 40					; size = 1
?CalcTBN@@YAXABVVector@@00ABVVector2D@@11AAV1@2_N@Z PROC ; CalcTBN, COMDAT

; 60   : {

	push	ebp
	mov	ebp, esp
	sub	esp, 156				; 0000009cH
	push	ebx
	push	esi
	push	edi

; 61   : 	// Compute the partial derivatives of X, Y, and Z with respect to S and T.
; 62   : 	s.Init( 0.0f, 0.0f, 0.0f );

	push	ecx
	xorps	xmm0, xmm0
	movss	DWORD PTR [esp], xmm0
	push	ecx
	xorps	xmm0, xmm0
	movss	DWORD PTR [esp], xmm0
	push	ecx
	xorps	xmm0, xmm0
	movss	DWORD PTR [esp], xmm0
	mov	ecx, DWORD PTR _s$[ebp]
	call	?Init@Vector@@QAEXMMM@Z			; Vector::Init

; 63   : 	t.Init( 0.0f, 0.0f, 0.0f );

	push	ecx
	xorps	xmm0, xmm0
	movss	DWORD PTR [esp], xmm0
	push	ecx
	xorps	xmm0, xmm0
	movss	DWORD PTR [esp], xmm0
	push	ecx
	xorps	xmm0, xmm0
	movss	DWORD PTR [esp], xmm0
	mov	ecx, DWORD PTR _t$[ebp]
	call	?Init@Vector@@QAEXMMM@Z			; Vector::Init

; 64   : 
; 65   : 	// x, s, t
; 66   : 	Vector edge01( p1.x - p0.x, t1.x - t0.x, t1.y - t0.y );

	mov	eax, DWORD PTR _t1$[ebp]
	mov	ecx, DWORD PTR _t0$[ebp]
	movss	xmm0, DWORD PTR [eax+4]
	subss	xmm0, DWORD PTR [ecx+4]
	push	ecx
	movss	DWORD PTR [esp], xmm0
	mov	edx, DWORD PTR _t1$[ebp]
	mov	eax, DWORD PTR _t0$[ebp]
	movss	xmm0, DWORD PTR [edx]
	subss	xmm0, DWORD PTR [eax]
	push	ecx
	movss	DWORD PTR [esp], xmm0
	mov	ecx, DWORD PTR _p1$[ebp]
	mov	edx, DWORD PTR _p0$[ebp]
	movss	xmm0, DWORD PTR [ecx]
	subss	xmm0, DWORD PTR [edx]
	push	ecx
	movss	DWORD PTR [esp], xmm0
	lea	ecx, DWORD PTR _edge01$[ebp]
	call	??0Vector@@QAE@MMM@Z			; Vector::Vector

; 67   : 	Vector edge02( p2.x - p0.x, t2.x - t0.x, t2.y - t0.y );

	mov	eax, DWORD PTR _t2$[ebp]
	mov	ecx, DWORD PTR _t0$[ebp]
	movss	xmm0, DWORD PTR [eax+4]
	subss	xmm0, DWORD PTR [ecx+4]
	push	ecx
	movss	DWORD PTR [esp], xmm0
	mov	edx, DWORD PTR _t2$[ebp]
	mov	eax, DWORD PTR _t0$[ebp]
	movss	xmm0, DWORD PTR [edx]
	subss	xmm0, DWORD PTR [eax]
	push	ecx
	movss	DWORD PTR [esp], xmm0
	mov	ecx, DWORD PTR _p2$[ebp]
	mov	edx, DWORD PTR _p0$[ebp]
	movss	xmm0, DWORD PTR [ecx]
	subss	xmm0, DWORD PTR [edx]
	push	ecx
	movss	DWORD PTR [esp], xmm0
	lea	ecx, DWORD PTR _edge02$[ebp]
	call	??0Vector@@QAE@MMM@Z			; Vector::Vector

; 68   : 
; 69   : 	Vector cross = CrossProduct( edge01, edge02 );

	lea	eax, DWORD PTR _edge02$[ebp]
	push	eax
	lea	ecx, DWORD PTR _edge01$[ebp]
	push	ecx
	lea	edx, DWORD PTR _cross$[ebp]
	push	edx
	call	?CrossProduct@@YA?AVVector@@ABV1@0@Z	; CrossProduct
	add	esp, 12					; 0000000cH

; 70   : 
; 71   : 	if( fabs( cross.x ) > SMALL_FLOAT )

	cvtss2sd xmm0, DWORD PTR _cross$[ebp]
	sub	esp, 8
	movsd	QWORD PTR [esp], xmm0
	call	_fabs
	add	esp, 8
	fstp	QWORD PTR tv292[ebp]
	movsd	xmm0, QWORD PTR tv292[ebp]
	comisd	xmm0, QWORD PTR __real@3d719799812dea11
	jbe	SHORT $LN2@CalcTBN

; 72   : 	{
; 73   : 		s.x += -cross.y / cross.x;

	movss	xmm0, DWORD PTR _cross$[ebp+4]
	xorps	xmm0, DWORD PTR __xmm@80000000800000008000000080000000
	divss	xmm0, DWORD PTR _cross$[ebp]
	mov	eax, DWORD PTR _s$[ebp]
	addss	xmm0, DWORD PTR [eax]
	mov	ecx, DWORD PTR _s$[ebp]
	movss	DWORD PTR [ecx], xmm0

; 74   : 		t.x += -cross.z / cross.x;

	movss	xmm0, DWORD PTR _cross$[ebp+8]
	xorps	xmm0, DWORD PTR __xmm@80000000800000008000000080000000
	divss	xmm0, DWORD PTR _cross$[ebp]
	mov	eax, DWORD PTR _t$[ebp]
	addss	xmm0, DWORD PTR [eax]
	mov	ecx, DWORD PTR _t$[ebp]
	movss	DWORD PTR [ecx], xmm0
$LN2@CalcTBN:

; 75   : 	}
; 76   : 
; 77   : 	// y, s, t
; 78   : 	edge01.Init( p1.y - p0.y, t1.x - t0.x, t1.y - t0.y );

	mov	eax, DWORD PTR _t1$[ebp]
	mov	ecx, DWORD PTR _t0$[ebp]
	movss	xmm0, DWORD PTR [eax+4]
	subss	xmm0, DWORD PTR [ecx+4]
	push	ecx
	movss	DWORD PTR [esp], xmm0
	mov	edx, DWORD PTR _t1$[ebp]
	mov	eax, DWORD PTR _t0$[ebp]
	movss	xmm0, DWORD PTR [edx]
	subss	xmm0, DWORD PTR [eax]
	push	ecx
	movss	DWORD PTR [esp], xmm0
	mov	ecx, DWORD PTR _p1$[ebp]
	mov	edx, DWORD PTR _p0$[ebp]
	movss	xmm0, DWORD PTR [ecx+4]
	subss	xmm0, DWORD PTR [edx+4]
	push	ecx
	movss	DWORD PTR [esp], xmm0
	lea	ecx, DWORD PTR _edge01$[ebp]
	call	?Init@Vector@@QAEXMMM@Z			; Vector::Init

; 79   : 	edge02.Init( p2.y - p0.y, t2.x - t0.x, t2.y - t0.y );

	mov	eax, DWORD PTR _t2$[ebp]
	mov	ecx, DWORD PTR _t0$[ebp]
	movss	xmm0, DWORD PTR [eax+4]
	subss	xmm0, DWORD PTR [ecx+4]
	push	ecx
	movss	DWORD PTR [esp], xmm0
	mov	edx, DWORD PTR _t2$[ebp]
	mov	eax, DWORD PTR _t0$[ebp]
	movss	xmm0, DWORD PTR [edx]
	subss	xmm0, DWORD PTR [eax]
	push	ecx
	movss	DWORD PTR [esp], xmm0
	mov	ecx, DWORD PTR _p2$[ebp]
	mov	edx, DWORD PTR _p0$[ebp]
	movss	xmm0, DWORD PTR [ecx+4]
	subss	xmm0, DWORD PTR [edx+4]
	push	ecx
	movss	DWORD PTR [esp], xmm0
	lea	ecx, DWORD PTR _edge02$[ebp]
	call	?Init@Vector@@QAEXMMM@Z			; Vector::Init

; 80   : 
; 81   : 	cross = CrossProduct( edge01, edge02 );

	lea	eax, DWORD PTR _edge02$[ebp]
	push	eax
	lea	ecx, DWORD PTR _edge01$[ebp]
	push	ecx
	lea	edx, DWORD PTR $T4[ebp]
	push	edx
	call	?CrossProduct@@YA?AVVector@@ABV1@0@Z	; CrossProduct
	add	esp, 12					; 0000000cH
	mov	ecx, DWORD PTR [eax]
	mov	DWORD PTR _cross$[ebp], ecx
	mov	edx, DWORD PTR [eax+4]
	mov	DWORD PTR _cross$[ebp+4], edx
	mov	eax, DWORD PTR [eax+8]
	mov	DWORD PTR _cross$[ebp+8], eax

; 82   : 
; 83   : 	if( fabs( cross.x ) > SMALL_FLOAT )

	cvtss2sd xmm0, DWORD PTR _cross$[ebp]
	sub	esp, 8
	movsd	QWORD PTR [esp], xmm0
	call	_fabs
	add	esp, 8
	fstp	QWORD PTR tv341[ebp]
	movsd	xmm0, QWORD PTR tv341[ebp]
	comisd	xmm0, QWORD PTR __real@3d719799812dea11
	jbe	SHORT $LN3@CalcTBN

; 84   : 	{
; 85   : 		s.y += -cross.y / cross.x;

	movss	xmm0, DWORD PTR _cross$[ebp+4]
	xorps	xmm0, DWORD PTR __xmm@80000000800000008000000080000000
	divss	xmm0, DWORD PTR _cross$[ebp]
	mov	eax, DWORD PTR _s$[ebp]
	addss	xmm0, DWORD PTR [eax+4]
	mov	ecx, DWORD PTR _s$[ebp]
	movss	DWORD PTR [ecx+4], xmm0

; 86   : 		t.y += -cross.z / cross.x;

	movss	xmm0, DWORD PTR _cross$[ebp+8]
	xorps	xmm0, DWORD PTR __xmm@80000000800000008000000080000000
	divss	xmm0, DWORD PTR _cross$[ebp]
	mov	eax, DWORD PTR _t$[ebp]
	addss	xmm0, DWORD PTR [eax+4]
	mov	ecx, DWORD PTR _t$[ebp]
	movss	DWORD PTR [ecx+4], xmm0
$LN3@CalcTBN:

; 87   : 	}
; 88   : 
; 89   : 	// z, s, t
; 90   : 	edge01.Init( p1.z - p0.z, t1.x - t0.x, t1.y - t0.y );

	mov	eax, DWORD PTR _t1$[ebp]
	mov	ecx, DWORD PTR _t0$[ebp]
	movss	xmm0, DWORD PTR [eax+4]
	subss	xmm0, DWORD PTR [ecx+4]
	push	ecx
	movss	DWORD PTR [esp], xmm0
	mov	edx, DWORD PTR _t1$[ebp]
	mov	eax, DWORD PTR _t0$[ebp]
	movss	xmm0, DWORD PTR [edx]
	subss	xmm0, DWORD PTR [eax]
	push	ecx
	movss	DWORD PTR [esp], xmm0
	mov	ecx, DWORD PTR _p1$[ebp]
	mov	edx, DWORD PTR _p0$[ebp]
	movss	xmm0, DWORD PTR [ecx+8]
	subss	xmm0, DWORD PTR [edx+8]
	push	ecx
	movss	DWORD PTR [esp], xmm0
	lea	ecx, DWORD PTR _edge01$[ebp]
	call	?Init@Vector@@QAEXMMM@Z			; Vector::Init

; 91   : 	edge02.Init( p2.z - p0.z, t2.x - t0.x, t2.y - t0.y );

	mov	eax, DWORD PTR _t2$[ebp]
	mov	ecx, DWORD PTR _t0$[ebp]
	movss	xmm0, DWORD PTR [eax+4]
	subss	xmm0, DWORD PTR [ecx+4]
	push	ecx
	movss	DWORD PTR [esp], xmm0
	mov	edx, DWORD PTR _t2$[ebp]
	mov	eax, DWORD PTR _t0$[ebp]
	movss	xmm0, DWORD PTR [edx]
	subss	xmm0, DWORD PTR [eax]
	push	ecx
	movss	DWORD PTR [esp], xmm0
	mov	ecx, DWORD PTR _p2$[ebp]
	mov	edx, DWORD PTR _p0$[ebp]
	movss	xmm0, DWORD PTR [ecx+8]
	subss	xmm0, DWORD PTR [edx+8]
	push	ecx
	movss	DWORD PTR [esp], xmm0
	lea	ecx, DWORD PTR _edge02$[ebp]
	call	?Init@Vector@@QAEXMMM@Z			; Vector::Init

; 92   : 
; 93   : 	cross = CrossProduct( edge01, edge02 );

	lea	eax, DWORD PTR _edge02$[ebp]
	push	eax
	lea	ecx, DWORD PTR _edge01$[ebp]
	push	ecx
	lea	edx, DWORD PTR $T3[ebp]
	push	edx
	call	?CrossProduct@@YA?AVVector@@ABV1@0@Z	; CrossProduct
	add	esp, 12					; 0000000cH
	mov	ecx, DWORD PTR [eax]
	mov	DWORD PTR _cross$[ebp], ecx
	mov	edx, DWORD PTR [eax+4]
	mov	DWORD PTR _cross$[ebp+4], edx
	mov	eax, DWORD PTR [eax+8]
	mov	DWORD PTR _cross$[ebp+8], eax

; 94   : 
; 95   : 	if( fabs( cross.x ) > SMALL_FLOAT )

	cvtss2sd xmm0, DWORD PTR _cross$[ebp]
	sub	esp, 8
	movsd	QWORD PTR [esp], xmm0
	call	_fabs
	add	esp, 8
	fstp	QWORD PTR tv390[ebp]
	movsd	xmm0, QWORD PTR tv390[ebp]
	comisd	xmm0, QWORD PTR __real@3d719799812dea11
	jbe	SHORT $LN4@CalcTBN

; 96   : 	{
; 97   : 		s.z += -cross.y / cross.x;

	movss	xmm0, DWORD PTR _cross$[ebp+4]
	xorps	xmm0, DWORD PTR __xmm@80000000800000008000000080000000
	divss	xmm0, DWORD PTR _cross$[ebp]
	mov	eax, DWORD PTR _s$[ebp]
	addss	xmm0, DWORD PTR [eax+8]
	mov	ecx, DWORD PTR _s$[ebp]
	movss	DWORD PTR [ecx+8], xmm0

; 98   : 		t.z += -cross.z / cross.x;

	movss	xmm0, DWORD PTR _cross$[ebp+8]
	xorps	xmm0, DWORD PTR __xmm@80000000800000008000000080000000
	divss	xmm0, DWORD PTR _cross$[ebp]
	mov	eax, DWORD PTR _t$[ebp]
	addss	xmm0, DWORD PTR [eax+8]
	mov	ecx, DWORD PTR _t$[ebp]
	movss	DWORD PTR [ecx+8], xmm0
$LN4@CalcTBN:

; 99   : 	}
; 100  : 
; 101  : 	if( !areaweight )

	movzx	eax, BYTE PTR _areaweight$[ebp]
	test	eax, eax
	jne	SHORT $LN5@CalcTBN

; 102  : 	{
; 103  : 		// Normalize s and t
; 104  : 		s = s.Normalize();

	lea	eax, DWORD PTR $T2[ebp]
	push	eax
	mov	ecx, DWORD PTR _s$[ebp]
	call	?Normalize@Vector@@QBE?AV1@XZ		; Vector::Normalize
	mov	ecx, DWORD PTR _s$[ebp]
	mov	edx, DWORD PTR [eax]
	mov	DWORD PTR [ecx], edx
	mov	edx, DWORD PTR [eax+4]
	mov	DWORD PTR [ecx+4], edx
	mov	eax, DWORD PTR [eax+8]
	mov	DWORD PTR [ecx+8], eax

; 105  : 		t = t.Normalize();

	lea	eax, DWORD PTR $T1[ebp]
	push	eax
	mov	ecx, DWORD PTR _t$[ebp]
	call	?Normalize@Vector@@QBE?AV1@XZ		; Vector::Normalize
	mov	ecx, DWORD PTR _t$[ebp]
	mov	edx, DWORD PTR [eax]
	mov	DWORD PTR [ecx], edx
	mov	edx, DWORD PTR [eax+4]
	mov	DWORD PTR [ecx+4], edx
	mov	eax, DWORD PTR [eax+8]
	mov	DWORD PTR [ecx+8], eax
$LN5@CalcTBN:

; 106  : 	}
; 107  : }

	pop	edi
	pop	esi
	pop	ebx
	mov	esp, ebp
	pop	ebp
	ret	0
?CalcTBN@@YAXABVVector@@00ABVVector2D@@11AAV1@2_N@Z ENDP ; CalcTBN
_TEXT	ENDS
; Function compile flags: /Odtp /ZI
; File d:\!diffusion 2020\source code 2022\client-server\game_shared\mathlib.cpp
;	COMDAT ?RotatePointAroundVector@@YAXAAVVector@@ABV1@1M@Z
_TEXT	SEGMENT
_vf$ = -56						; size = 12
_vu$ = -44						; size = 12
_vr$ = -32						; size = 12
_s$ = -20						; size = 4
_c$ = -16						; size = 4
_angle$ = -12						; size = 4
_t1$ = -8						; size = 4
_t0$ = -4						; size = 4
_dst$ = 8						; size = 4
_dir$ = 12						; size = 4
_point$ = 16						; size = 4
_degrees$ = 20						; size = 4
?RotatePointAroundVector@@YAXAAVVector@@ABV1@1M@Z PROC	; RotatePointAroundVector, COMDAT

; 162  : {

	push	ebp
	mov	ebp, esp
	sub	esp, 120				; 00000078H
	push	ebx
	push	esi
	push	edi

; 163  : 	float	t0, t1;
; 164  : 	float	angle, c, s;
; 165  : 	Vector	vr, vu, vf = dir;

	lea	ecx, DWORD PTR _vr$[ebp]
	call	??0Vector@@QAE@XZ			; Vector::Vector
	lea	ecx, DWORD PTR _vu$[ebp]
	call	??0Vector@@QAE@XZ			; Vector::Vector
	mov	eax, DWORD PTR _dir$[ebp]
	push	eax
	lea	ecx, DWORD PTR _vf$[ebp]
	call	??0Vector@@QAE@ABV0@@Z			; Vector::Vector

; 166  : 
; 167  : 	angle = DEG2RAD( degrees );

	movss	xmm0, DWORD PTR _degrees$[ebp]
	mulss	xmm0, DWORD PTR __real@3c8efa35
	movss	DWORD PTR _angle$[ebp], xmm0

; 168  : 	SinCos( angle, &s, &c );

	lea	eax, DWORD PTR _c$[ebp]
	push	eax
	lea	ecx, DWORD PTR _s$[ebp]
	push	ecx
	push	ecx
	movss	xmm0, DWORD PTR _angle$[ebp]
	movss	DWORD PTR [esp], xmm0
	call	?SinCos@@YAXMPAM0@Z			; SinCos
	add	esp, 12					; 0000000cH

; 169  : 	VectorMatrix( vf, vr, vu );

	lea	eax, DWORD PTR _vu$[ebp]
	push	eax
	lea	ecx, DWORD PTR _vr$[ebp]
	push	ecx
	lea	edx, DWORD PTR _vf$[ebp]
	push	edx
	call	?VectorMatrix@@YAXAAVVector@@00@Z	; VectorMatrix
	add	esp, 12					; 0000000cH

; 170  : 
; 171  : 	t0 = vr.x * c + vu.x * -s;

	movss	xmm0, DWORD PTR _vr$[ebp]
	mulss	xmm0, DWORD PTR _c$[ebp]
	movss	xmm1, DWORD PTR _s$[ebp]
	xorps	xmm1, DWORD PTR __xmm@80000000800000008000000080000000
	mulss	xmm1, DWORD PTR _vu$[ebp]
	addss	xmm0, xmm1
	movss	DWORD PTR _t0$[ebp], xmm0

; 172  : 	t1 = vr.x * s + vu.x * c;

	movss	xmm0, DWORD PTR _vr$[ebp]
	mulss	xmm0, DWORD PTR _s$[ebp]
	movss	xmm1, DWORD PTR _vu$[ebp]
	mulss	xmm1, DWORD PTR _c$[ebp]
	addss	xmm0, xmm1
	movss	DWORD PTR _t1$[ebp], xmm0

; 173  : 	dst.x = (t0 * vr.x + t1 * vu.x + vf.x * vf.x) * point.x

	movss	xmm0, DWORD PTR _t0$[ebp]
	mulss	xmm0, DWORD PTR _vr$[ebp]
	movss	xmm1, DWORD PTR _t1$[ebp]
	mulss	xmm1, DWORD PTR _vu$[ebp]
	addss	xmm0, xmm1
	movss	xmm1, DWORD PTR _vf$[ebp]
	mulss	xmm1, DWORD PTR _vf$[ebp]
	addss	xmm0, xmm1
	mov	eax, DWORD PTR _point$[ebp]
	mulss	xmm0, DWORD PTR [eax]
	movss	xmm1, DWORD PTR _t0$[ebp]
	mulss	xmm1, DWORD PTR _vr$[ebp+4]
	movss	xmm2, DWORD PTR _t1$[ebp]
	mulss	xmm2, DWORD PTR _vu$[ebp+4]
	addss	xmm1, xmm2
	movss	xmm2, DWORD PTR _vf$[ebp]
	mulss	xmm2, DWORD PTR _vf$[ebp+4]
	addss	xmm1, xmm2
	mov	ecx, DWORD PTR _point$[ebp]
	mulss	xmm1, DWORD PTR [ecx+4]
	addss	xmm0, xmm1
	movss	xmm1, DWORD PTR _t0$[ebp]
	mulss	xmm1, DWORD PTR _vr$[ebp+8]
	movss	xmm2, DWORD PTR _t1$[ebp]
	mulss	xmm2, DWORD PTR _vu$[ebp+8]
	addss	xmm1, xmm2
	movss	xmm2, DWORD PTR _vf$[ebp]
	mulss	xmm2, DWORD PTR _vf$[ebp+8]
	addss	xmm1, xmm2
	mov	edx, DWORD PTR _point$[ebp]
	mulss	xmm1, DWORD PTR [edx+8]
	addss	xmm0, xmm1
	mov	eax, DWORD PTR _dst$[ebp]
	movss	DWORD PTR [eax], xmm0

; 174  : 		+ (t0 * vr.y + t1 * vu.y + vf.x * vf.y) * point.y
; 175  : 		+ (t0 * vr.z + t1 * vu.z + vf.x * vf.z) * point.z;
; 176  : 
; 177  : 	t0 = vr.y * c + vu.y * -s;

	movss	xmm0, DWORD PTR _vr$[ebp+4]
	mulss	xmm0, DWORD PTR _c$[ebp]
	movss	xmm1, DWORD PTR _s$[ebp]
	xorps	xmm1, DWORD PTR __xmm@80000000800000008000000080000000
	mulss	xmm1, DWORD PTR _vu$[ebp+4]
	addss	xmm0, xmm1
	movss	DWORD PTR _t0$[ebp], xmm0

; 178  : 	t1 = vr.y * s + vu.y * c;

	movss	xmm0, DWORD PTR _vr$[ebp+4]
	mulss	xmm0, DWORD PTR _s$[ebp]
	movss	xmm1, DWORD PTR _vu$[ebp+4]
	mulss	xmm1, DWORD PTR _c$[ebp]
	addss	xmm0, xmm1
	movss	DWORD PTR _t1$[ebp], xmm0

; 179  : 	dst.y = (t0 * vr.x + t1 * vu.x + vf.y * vf.x) * point.x

	movss	xmm0, DWORD PTR _t0$[ebp]
	mulss	xmm0, DWORD PTR _vr$[ebp]
	movss	xmm1, DWORD PTR _t1$[ebp]
	mulss	xmm1, DWORD PTR _vu$[ebp]
	addss	xmm0, xmm1
	movss	xmm1, DWORD PTR _vf$[ebp+4]
	mulss	xmm1, DWORD PTR _vf$[ebp]
	addss	xmm0, xmm1
	mov	eax, DWORD PTR _point$[ebp]
	mulss	xmm0, DWORD PTR [eax]
	movss	xmm1, DWORD PTR _t0$[ebp]
	mulss	xmm1, DWORD PTR _vr$[ebp+4]
	movss	xmm2, DWORD PTR _t1$[ebp]
	mulss	xmm2, DWORD PTR _vu$[ebp+4]
	addss	xmm1, xmm2
	movss	xmm2, DWORD PTR _vf$[ebp+4]
	mulss	xmm2, DWORD PTR _vf$[ebp+4]
	addss	xmm1, xmm2
	mov	ecx, DWORD PTR _point$[ebp]
	mulss	xmm1, DWORD PTR [ecx+4]
	addss	xmm0, xmm1
	movss	xmm1, DWORD PTR _t0$[ebp]
	mulss	xmm1, DWORD PTR _vr$[ebp+8]
	movss	xmm2, DWORD PTR _t1$[ebp]
	mulss	xmm2, DWORD PTR _vu$[ebp+8]
	addss	xmm1, xmm2
	movss	xmm2, DWORD PTR _vf$[ebp+4]
	mulss	xmm2, DWORD PTR _vf$[ebp+8]
	addss	xmm1, xmm2
	mov	edx, DWORD PTR _point$[ebp]
	mulss	xmm1, DWORD PTR [edx+8]
	addss	xmm0, xmm1
	mov	eax, DWORD PTR _dst$[ebp]
	movss	DWORD PTR [eax+4], xmm0

; 180  : 		+ (t0 * vr.y + t1 * vu.y + vf.y * vf.y) * point.y
; 181  : 		+ (t0 * vr.z + t1 * vu.z + vf.y * vf.z) * point.z;
; 182  : 
; 183  : 	t0 = vr.z * c + vu.z * -s;

	movss	xmm0, DWORD PTR _vr$[ebp+8]
	mulss	xmm0, DWORD PTR _c$[ebp]
	movss	xmm1, DWORD PTR _s$[ebp]
	xorps	xmm1, DWORD PTR __xmm@80000000800000008000000080000000
	mulss	xmm1, DWORD PTR _vu$[ebp+8]
	addss	xmm0, xmm1
	movss	DWORD PTR _t0$[ebp], xmm0

; 184  : 	t1 = vr.z * s + vu.z * c;

	movss	xmm0, DWORD PTR _vr$[ebp+8]
	mulss	xmm0, DWORD PTR _s$[ebp]
	movss	xmm1, DWORD PTR _vu$[ebp+8]
	mulss	xmm1, DWORD PTR _c$[ebp]
	addss	xmm0, xmm1
	movss	DWORD PTR _t1$[ebp], xmm0

; 185  : 	dst.z = (t0 * vr.x + t1 * vu.x + vf.z * vf.x) * point.x

	movss	xmm0, DWORD PTR _t0$[ebp]
	mulss	xmm0, DWORD PTR _vr$[ebp]
	movss	xmm1, DWORD PTR _t1$[ebp]
	mulss	xmm1, DWORD PTR _vu$[ebp]
	addss	xmm0, xmm1
	movss	xmm1, DWORD PTR _vf$[ebp+8]
	mulss	xmm1, DWORD PTR _vf$[ebp]
	addss	xmm0, xmm1
	mov	eax, DWORD PTR _point$[ebp]
	mulss	xmm0, DWORD PTR [eax]
	movss	xmm1, DWORD PTR _t0$[ebp]
	mulss	xmm1, DWORD PTR _vr$[ebp+4]
	movss	xmm2, DWORD PTR _t1$[ebp]
	mulss	xmm2, DWORD PTR _vu$[ebp+4]
	addss	xmm1, xmm2
	movss	xmm2, DWORD PTR _vf$[ebp+8]
	mulss	xmm2, DWORD PTR _vf$[ebp+4]
	addss	xmm1, xmm2
	mov	ecx, DWORD PTR _point$[ebp]
	mulss	xmm1, DWORD PTR [ecx+4]
	addss	xmm0, xmm1
	movss	xmm1, DWORD PTR _t0$[ebp]
	mulss	xmm1, DWORD PTR _vr$[ebp+8]
	movss	xmm2, DWORD PTR _t1$[ebp]
	mulss	xmm2, DWORD PTR _vu$[ebp+8]
	addss	xmm1, xmm2
	movss	xmm2, DWORD PTR _vf$[ebp+8]
	mulss	xmm2, DWORD PTR _vf$[ebp+8]
	addss	xmm1, xmm2
	mov	edx, DWORD PTR _point$[ebp]
	mulss	xmm1, DWORD PTR [edx+8]
	addss	xmm0, xmm1
	mov	eax, DWORD PTR _dst$[ebp]
	movss	DWORD PTR [eax+8], xmm0

; 186  : 		+ (t0 * vr.y + t1 * vu.y + vf.z * vf.y) * point.y
; 187  : 		+ (t0 * vr.z + t1 * vu.z + vf.z * vf.z) * point.z;
; 188  : }

	pop	edi
	pop	esi
	pop	ebx
	mov	esp, ebp
	pop	ebp
	ret	0
?RotatePointAroundVector@@YAXAAVVector@@ABV1@1M@Z ENDP	; RotatePointAroundVector
_TEXT	ENDS
; Function compile flags: /Odtp /ZI
; File d:\!diffusion 2020\source code 2022\client-server\game_shared\mathlib.cpp
;	COMDAT ?VectorAngles@@YAXABVVector@@AAV1@@Z
_TEXT	SEGMENT
tv236 = -92						; size = 4
tv234 = -92						; size = 4
tv212 = -88						; size = 8
tv188 = -88						; size = 8
tv156 = -84						; size = 4
tv93 = -84						; size = 4
_tmp$1 = -16						; size = 4
_forward$ = -12						; size = 12
_srcforward$ = 8					; size = 4
_angles$ = 12						; size = 4
?VectorAngles@@YAXABVVector@@AAV1@@Z PROC		; VectorAngles, COMDAT

; 198  : {

	push	ebp
	mov	ebp, esp
	sub	esp, 92					; 0000005cH
	push	ebx
	push	esi
	push	edi

; 199  : 	Vector	forward = srcforward;

	mov	eax, DWORD PTR _srcforward$[ebp]
	push	eax
	lea	ecx, DWORD PTR _forward$[ebp]
	call	??0Vector@@QAE@ABV0@@Z			; Vector::Vector

; 200  : 
; 201  : 	angles[ROLL] = 0.0f;

	mov	ecx, DWORD PTR _angles$[ebp]
	call	??BVector@@QAEPAMXZ			; Vector::operator float *
	mov	ecx, 4
	shl	ecx, 1
	xorps	xmm0, xmm0
	movss	DWORD PTR [eax+ecx], xmm0

; 202  : 
; 203  : 	if( forward.x || forward.y )

	movss	xmm0, DWORD PTR _forward$[ebp]
	ucomiss	xmm0, DWORD PTR __real@00000000
	lahf
	test	ah, 68					; 00000044H
	jp	SHORT $LN4@VectorAngl
	movss	xmm0, DWORD PTR _forward$[ebp+4]
	ucomiss	xmm0, DWORD PTR __real@00000000
	lahf
	test	ah, 68					; 00000044H
	jnp	$LN2@VectorAngl
$LN4@VectorAngl:

; 204  : 	{
; 205  : 		float tmp;
; 206  : 
; 207  : 		angles[YAW] = RAD2DEG( atan2( forward.y, forward.x ));

	cvtss2sd xmm0, DWORD PTR _forward$[ebp]
	sub	esp, 8
	movsd	QWORD PTR [esp], xmm0
	cvtss2sd xmm0, DWORD PTR _forward$[ebp+4]
	sub	esp, 8
	movsd	QWORD PTR [esp], xmm0
	call	_atan2
	add	esp, 16					; 00000010H
	fstp	QWORD PTR tv188[ebp]
	movsd	xmm0, QWORD PTR tv188[ebp]
	cvtsd2ss xmm0, xmm0
	mulss	xmm0, DWORD PTR __real@42652ee1
	mov	ecx, DWORD PTR _angles$[ebp]
	movss	DWORD PTR tv234[ebp], xmm0
	call	??BVector@@QAEPAMXZ			; Vector::operator float *
	mov	ecx, 4
	shl	ecx, 0
	movss	xmm0, DWORD PTR tv234[ebp]
	movss	DWORD PTR [eax+ecx], xmm0

; 208  : 		if( angles[YAW] < 0 ) angles[YAW] += 360;

	mov	ecx, DWORD PTR _angles$[ebp]
	call	??BVector@@QAEPAMXZ			; Vector::operator float *
	mov	ecx, 4
	shl	ecx, 0
	xorps	xmm0, xmm0
	comiss	xmm0, DWORD PTR [eax+ecx]
	jbe	SHORT $LN5@VectorAngl
	mov	ecx, DWORD PTR _angles$[ebp]
	call	??BVector@@QAEPAMXZ			; Vector::operator float *
	mov	ecx, 4
	shl	ecx, 0
	add	eax, ecx
	mov	DWORD PTR tv93[ebp], eax
	mov	edx, DWORD PTR tv93[ebp]
	movss	xmm0, DWORD PTR [edx]
	addss	xmm0, DWORD PTR __real@43b40000
	mov	eax, DWORD PTR tv93[ebp]
	movss	DWORD PTR [eax], xmm0
$LN5@VectorAngl:

; 209  : 
; 210  : 		tmp = sqrt( forward.x * forward.x + forward.y * forward.y );

	movss	xmm0, DWORD PTR _forward$[ebp]
	mulss	xmm0, DWORD PTR _forward$[ebp]
	movss	xmm1, DWORD PTR _forward$[ebp+4]
	mulss	xmm1, DWORD PTR _forward$[ebp+4]
	addss	xmm0, xmm1
	cvtss2sd xmm0, xmm0
	sub	esp, 8
	movsd	QWORD PTR [esp], xmm0
	call	_sqrt
	add	esp, 8
	fstp	DWORD PTR _tmp$1[ebp]

; 211  : 		angles[PITCH] = RAD2DEG( atan2( -forward.z, tmp ));

	cvtss2sd xmm0, DWORD PTR _tmp$1[ebp]
	sub	esp, 8
	movsd	QWORD PTR [esp], xmm0
	movss	xmm0, DWORD PTR _forward$[ebp+8]
	xorps	xmm0, DWORD PTR __xmm@80000000800000008000000080000000
	cvtss2sd xmm0, xmm0
	sub	esp, 8
	movsd	QWORD PTR [esp], xmm0
	call	_atan2
	add	esp, 16					; 00000010H
	fstp	QWORD PTR tv212[ebp]
	movsd	xmm0, QWORD PTR tv212[ebp]
	cvtsd2ss xmm0, xmm0
	mulss	xmm0, DWORD PTR __real@42652ee1
	mov	ecx, DWORD PTR _angles$[ebp]
	movss	DWORD PTR tv236[ebp], xmm0
	call	??BVector@@QAEPAMXZ			; Vector::operator float *
	mov	ecx, 4
	imul	edx, ecx, 0
	movss	xmm0, DWORD PTR tv236[ebp]
	movss	DWORD PTR [eax+edx], xmm0

; 212  : 		if( angles[PITCH] < 0 ) angles[PITCH] += 360;

	mov	ecx, DWORD PTR _angles$[ebp]
	call	??BVector@@QAEPAMXZ			; Vector::operator float *
	mov	ecx, 4
	imul	edx, ecx, 0
	xorps	xmm0, xmm0
	comiss	xmm0, DWORD PTR [eax+edx]
	jbe	SHORT $LN6@VectorAngl
	mov	ecx, DWORD PTR _angles$[ebp]
	call	??BVector@@QAEPAMXZ			; Vector::operator float *
	mov	ecx, 4
	imul	edx, ecx, 0
	add	eax, edx
	mov	DWORD PTR tv156[ebp], eax
	mov	eax, DWORD PTR tv156[ebp]
	movss	xmm0, DWORD PTR [eax]
	addss	xmm0, DWORD PTR __real@43b40000
	mov	ecx, DWORD PTR tv156[ebp]
	movss	DWORD PTR [ecx], xmm0
$LN6@VectorAngl:

; 213  : 	}
; 214  : 	else

	jmp	SHORT $LN8@VectorAngl
$LN2@VectorAngl:

; 215  : 	{
; 216  : 		// fast case
; 217  : 		angles[YAW] = 0.0f;

	mov	ecx, DWORD PTR _angles$[ebp]
	call	??BVector@@QAEPAMXZ			; Vector::operator float *
	mov	ecx, 4
	shl	ecx, 0
	xorps	xmm0, xmm0
	movss	DWORD PTR [eax+ecx], xmm0

; 218  : 		if( forward.z > 0 )

	movss	xmm0, DWORD PTR _forward$[ebp+8]
	comiss	xmm0, DWORD PTR __real@00000000
	jbe	SHORT $LN7@VectorAngl

; 219  : 			angles[PITCH] = 270.0f;

	mov	ecx, DWORD PTR _angles$[ebp]
	call	??BVector@@QAEPAMXZ			; Vector::operator float *
	mov	ecx, 4
	imul	edx, ecx, 0
	movss	xmm0, DWORD PTR __real@43870000
	movss	DWORD PTR [eax+edx], xmm0
	jmp	SHORT $LN8@VectorAngl
$LN7@VectorAngl:

; 220  : 		else angles[PITCH] = 90.0f;

	mov	ecx, DWORD PTR _angles$[ebp]
	call	??BVector@@QAEPAMXZ			; Vector::operator float *
	mov	ecx, 4
	imul	edx, ecx, 0
	movss	xmm0, DWORD PTR __real@42b40000
	movss	DWORD PTR [eax+edx], xmm0
$LN8@VectorAngl:

; 221  : 	}
; 222  : }

	pop	edi
	pop	esi
	pop	ebx
	mov	esp, ebp
	pop	ebp
	ret	0
?VectorAngles@@YAXABVVector@@AAV1@@Z ENDP		; VectorAngles
_TEXT	ENDS
; Function compile flags: /Odtp /ZI
; File d:\!diffusion 2020\source code 2022\client-server\game_shared\mathlib.cpp
;	COMDAT ?PlaneIntersect@@YA?AVVector@@PAUmplane_s@@ABV1@1@Z
_TEXT	SEGMENT
tv77 = -92						; size = 4
$T1 = -88						; size = 12
_sect$ = -12						; size = 4
_planeDotRay$ = -8					; size = 4
_distToPlane$ = -4					; size = 4
___$ReturnUdt$ = 8					; size = 4
_plane$ = 12						; size = 4
_p0$ = 16						; size = 4
_p1$ = 20						; size = 4
?PlaneIntersect@@YA?AVVector@@PAUmplane_s@@ABV1@1@Z PROC ; PlaneIntersect, COMDAT

; 153  : {

	push	ebp
	mov	ebp, esp
	sub	esp, 92					; 0000005cH
	push	ebx
	push	esi
	push	edi

; 154  : 	float distToPlane = PlaneDiff( p0, plane );

	mov	eax, DWORD PTR _plane$[ebp]
	movzx	ecx, BYTE PTR [eax+16]
	cmp	ecx, 3
	jge	SHORT $LN3@PlaneInter
	mov	ecx, DWORD PTR _p0$[ebp]
	call	??BVector@@QBEPBMXZ			; Vector::operator float const *
	mov	edx, DWORD PTR _plane$[ebp]
	movzx	ecx, BYTE PTR [edx+16]
	movss	xmm0, DWORD PTR [eax+ecx*4]
	movss	DWORD PTR tv77[ebp], xmm0
	jmp	SHORT $LN4@PlaneInter
$LN3@PlaneInter:
	mov	edx, DWORD PTR _plane$[ebp]
	push	edx
	mov	eax, DWORD PTR _p0$[ebp]
	push	eax
	call	?DotProduct@@YAMABVVector@@0@Z		; DotProduct
	add	esp, 8
	fstp	DWORD PTR tv77[ebp]
$LN4@PlaneInter:
	mov	ecx, DWORD PTR _plane$[ebp]
	movss	xmm0, DWORD PTR tv77[ebp]
	subss	xmm0, DWORD PTR [ecx+12]
	movss	DWORD PTR _distToPlane$[ebp], xmm0

; 155  : 	float planeDotRay = DotProduct( plane->normal, p1 );

	mov	eax, DWORD PTR _p1$[ebp]
	push	eax
	mov	ecx, DWORD PTR _plane$[ebp]
	push	ecx
	call	?DotProduct@@YAMABVVector@@0@Z		; DotProduct
	add	esp, 8
	fstp	DWORD PTR _planeDotRay$[ebp]

; 156  : 	float sect = -(distToPlane) / planeDotRay;

	movss	xmm0, DWORD PTR _distToPlane$[ebp]
	xorps	xmm0, DWORD PTR __xmm@80000000800000008000000080000000
	divss	xmm0, DWORD PTR _planeDotRay$[ebp]
	movss	DWORD PTR _sect$[ebp], xmm0

; 157  : 
; 158  : 	return p0 + p1 * sect;

	push	ecx
	movss	xmm0, DWORD PTR _sect$[ebp]
	movss	DWORD PTR [esp], xmm0
	lea	eax, DWORD PTR $T1[ebp]
	push	eax
	mov	ecx, DWORD PTR _p1$[ebp]
	call	??DVector@@QBE?AV0@M@Z			; Vector::operator*
	push	eax
	mov	ecx, DWORD PTR ___$ReturnUdt$[ebp]
	push	ecx
	mov	ecx, DWORD PTR _p0$[ebp]
	call	??HVector@@QBE?AV0@ABV0@@Z		; Vector::operator+
	mov	eax, DWORD PTR ___$ReturnUdt$[ebp]

; 159  : }

	pop	edi
	pop	esi
	pop	ebx
	mov	esp, ebp
	pop	ebp
	ret	0
?PlaneIntersect@@YA?AVVector@@PAUmplane_s@@ABV1@1@Z ENDP ; PlaneIntersect
_TEXT	ENDS
; Function compile flags: /Odtp /ZI
; File d:\!diffusion 2020\source code 2022\client-server\game_shared\mathlib.cpp
;	COMDAT ?PlanesGetIntersectionPoint@@YA_NPBUmplane_s@@00AAVVector@@@Z
_TEXT	SEGMENT
$T1 = -176						; size = 12
$T2 = -164						; size = 12
$T3 = -152						; size = 12
_denom$ = -76						; size = 4
_n3n1$ = -72						; size = 12
_n2n3$ = -60						; size = 12
_n1n2$ = -48						; size = 12
_n3$ = -36						; size = 12
_n2$ = -24						; size = 12
_n1$ = -12						; size = 12
_plane1$ = 8						; size = 4
_plane2$ = 12						; size = 4
_plane3$ = 16						; size = 4
_out$ = 20						; size = 4
?PlanesGetIntersectionPoint@@YA_NPBUmplane_s@@00AAVVector@@@Z PROC ; PlanesGetIntersectionPoint, COMDAT

; 116  : {

	push	ebp
	mov	ebp, esp
	sub	esp, 176				; 000000b0H
	push	ebx
	push	esi
	push	edi

; 117  : 	Vector n1 = plane1->normal.Normalize();

	lea	eax, DWORD PTR _n1$[ebp]
	push	eax
	mov	ecx, DWORD PTR _plane1$[ebp]
	call	?Normalize@Vector@@QBE?AV1@XZ		; Vector::Normalize

; 118  : 	Vector n2 = plane2->normal.Normalize();

	lea	eax, DWORD PTR _n2$[ebp]
	push	eax
	mov	ecx, DWORD PTR _plane2$[ebp]
	call	?Normalize@Vector@@QBE?AV1@XZ		; Vector::Normalize

; 119  : 	Vector n3 = plane3->normal.Normalize();

	lea	eax, DWORD PTR _n3$[ebp]
	push	eax
	mov	ecx, DWORD PTR _plane3$[ebp]
	call	?Normalize@Vector@@QBE?AV1@XZ		; Vector::Normalize

; 120  : 
; 121  : 	Vector n1n2 = CrossProduct( n1, n2 );

	lea	eax, DWORD PTR _n2$[ebp]
	push	eax
	lea	ecx, DWORD PTR _n1$[ebp]
	push	ecx
	lea	edx, DWORD PTR _n1n2$[ebp]
	push	edx
	call	?CrossProduct@@YA?AVVector@@ABV1@0@Z	; CrossProduct
	add	esp, 12					; 0000000cH

; 122  : 	Vector n2n3 = CrossProduct( n2, n3 );

	lea	eax, DWORD PTR _n3$[ebp]
	push	eax
	lea	ecx, DWORD PTR _n2$[ebp]
	push	ecx
	lea	edx, DWORD PTR _n2n3$[ebp]
	push	edx
	call	?CrossProduct@@YA?AVVector@@ABV1@0@Z	; CrossProduct
	add	esp, 12					; 0000000cH

; 123  : 	Vector n3n1 = CrossProduct( n3, n1 );

	lea	eax, DWORD PTR _n1$[ebp]
	push	eax
	lea	ecx, DWORD PTR _n3$[ebp]
	push	ecx
	lea	edx, DWORD PTR _n3n1$[ebp]
	push	edx
	call	?CrossProduct@@YA?AVVector@@ABV1@0@Z	; CrossProduct
	add	esp, 12					; 0000000cH

; 124  : 
; 125  : 	float denom = DotProduct( n1, n2n3 );

	lea	eax, DWORD PTR _n2n3$[ebp]
	push	eax
	lea	ecx, DWORD PTR _n1$[ebp]
	push	ecx
	call	?DotProduct@@YAMABVVector@@0@Z		; DotProduct
	add	esp, 8
	fstp	DWORD PTR _denom$[ebp]

; 126  : 	out = g_vecZero;

	mov	eax, DWORD PTR _out$[ebp]
	mov	ecx, DWORD PTR ?g_vecZero@@3VVector@@B
	mov	DWORD PTR [eax], ecx
	mov	edx, DWORD PTR ?g_vecZero@@3VVector@@B+4
	mov	DWORD PTR [eax+4], edx
	mov	ecx, DWORD PTR ?g_vecZero@@3VVector@@B+8
	mov	DWORD PTR [eax+8], ecx

; 127  : 
; 128  : 	// check if the denominator is zero (which would mean that no intersection is to be found
; 129  : 	if( denom == 0.0f )

	movss	xmm0, DWORD PTR _denom$[ebp]
	ucomiss	xmm0, DWORD PTR __real@00000000
	lahf
	test	ah, 68					; 00000044H
	jp	SHORT $LN2@PlanesGetI

; 130  : 	{
; 131  : 		// no intersection could be found, return <0,0,0>
; 132  : 		return false;

	xor	al, al
	jmp	$LN1@PlanesGetI
$LN2@PlanesGetI:

; 133  : 	}
; 134  : 
; 135  : 	// compute intersection point
; 136  : 	out += n2n3 * plane1->dist;

	mov	eax, DWORD PTR _plane1$[ebp]
	push	ecx
	movss	xmm0, DWORD PTR [eax+12]
	movss	DWORD PTR [esp], xmm0
	lea	ecx, DWORD PTR $T3[ebp]
	push	ecx
	lea	ecx, DWORD PTR _n2n3$[ebp]
	call	??DVector@@QBE?AV0@M@Z			; Vector::operator*
	push	eax
	mov	ecx, DWORD PTR _out$[ebp]
	call	??YVector@@QAEAAV0@ABV0@@Z		; Vector::operator+=

; 137  : 	out += n3n1 * plane2->dist;

	mov	eax, DWORD PTR _plane2$[ebp]
	push	ecx
	movss	xmm0, DWORD PTR [eax+12]
	movss	DWORD PTR [esp], xmm0
	lea	ecx, DWORD PTR $T2[ebp]
	push	ecx
	lea	ecx, DWORD PTR _n3n1$[ebp]
	call	??DVector@@QBE?AV0@M@Z			; Vector::operator*
	push	eax
	mov	ecx, DWORD PTR _out$[ebp]
	call	??YVector@@QAEAAV0@ABV0@@Z		; Vector::operator+=

; 138  : 	out += n1n2 * plane3->dist;

	mov	eax, DWORD PTR _plane3$[ebp]
	push	ecx
	movss	xmm0, DWORD PTR [eax+12]
	movss	DWORD PTR [esp], xmm0
	lea	ecx, DWORD PTR $T1[ebp]
	push	ecx
	lea	ecx, DWORD PTR _n1n2$[ebp]
	call	??DVector@@QBE?AV0@M@Z			; Vector::operator*
	push	eax
	mov	ecx, DWORD PTR _out$[ebp]
	call	??YVector@@QAEAAV0@ABV0@@Z		; Vector::operator+=

; 139  : 	out *= (1.0f / denom );

	movss	xmm0, DWORD PTR __real@3f800000
	divss	xmm0, DWORD PTR _denom$[ebp]
	push	ecx
	movss	DWORD PTR [esp], xmm0
	mov	ecx, DWORD PTR _out$[ebp]
	call	??XVector@@QAEAAV0@M@Z			; Vector::operator*=

; 140  : 
; 141  : 	return true;

	mov	al, 1
$LN1@PlanesGetI:

; 142  : }

	pop	edi
	pop	esi
	pop	ebx
	mov	esp, ebp
	pop	ebp
	ret	0
?PlanesGetIntersectionPoint@@YA_NPBUmplane_s@@00AAVVector@@@Z ENDP ; PlanesGetIntersectionPoint
_TEXT	ENDS
; Function compile flags: /Odtp /ZI
; File d:\!diffusion 2020\source code 2022\client-server\game_shared\mathlib.cpp
;	COMDAT ?CalcClosestPointOnAABB@@YAXABVVector@@00AAV1@@Z
_TEXT	SEGMENT
tv131 = -72						; size = 4
tv87 = -72						; size = 4
tv75 = -72						; size = 4
tv129 = -68						; size = 4
tv85 = -68						; size = 4
tv73 = -68						; size = 4
_mins$ = 8						; size = 4
_maxs$ = 12						; size = 4
_point$ = 16						; size = 4
_closestOut$ = 20					; size = 4
?CalcClosestPointOnAABB@@YAXABVVector@@00AAV1@@Z PROC	; CalcClosestPointOnAABB, COMDAT

; 306  : {

	push	ebp
	mov	ebp, esp
	sub	esp, 72					; 00000048H
	push	ebx
	push	esi
	push	edi

; 307  : 	closestOut.x = bound( mins.x, point.x, maxs.x );

	mov	eax, DWORD PTR _point$[ebp]
	mov	ecx, DWORD PTR _mins$[ebp]
	movss	xmm0, DWORD PTR [eax]
	comiss	xmm0, DWORD PTR [ecx]
	jb	SHORT $LN5@CalcCloses
	mov	edx, DWORD PTR _maxs$[ebp]
	mov	eax, DWORD PTR _point$[ebp]
	movss	xmm0, DWORD PTR [edx]
	comiss	xmm0, DWORD PTR [eax]
	jbe	SHORT $LN3@CalcCloses
	mov	ecx, DWORD PTR _point$[ebp]
	movss	xmm0, DWORD PTR [ecx]
	movss	DWORD PTR tv73[ebp], xmm0
	jmp	SHORT $LN4@CalcCloses
$LN3@CalcCloses:
	mov	edx, DWORD PTR _maxs$[ebp]
	movss	xmm0, DWORD PTR [edx]
	movss	DWORD PTR tv73[ebp], xmm0
$LN4@CalcCloses:
	movss	xmm0, DWORD PTR tv73[ebp]
	movss	DWORD PTR tv75[ebp], xmm0
	jmp	SHORT $LN6@CalcCloses
$LN5@CalcCloses:
	mov	eax, DWORD PTR _mins$[ebp]
	movss	xmm0, DWORD PTR [eax]
	movss	DWORD PTR tv75[ebp], xmm0
$LN6@CalcCloses:
	mov	ecx, DWORD PTR _closestOut$[ebp]
	movss	xmm0, DWORD PTR tv75[ebp]
	movss	DWORD PTR [ecx], xmm0

; 308  : 	closestOut.y = bound( mins.y, point.y, maxs.y );

	mov	eax, DWORD PTR _point$[ebp]
	mov	ecx, DWORD PTR _mins$[ebp]
	movss	xmm0, DWORD PTR [eax+4]
	comiss	xmm0, DWORD PTR [ecx+4]
	jb	SHORT $LN9@CalcCloses
	mov	edx, DWORD PTR _maxs$[ebp]
	mov	eax, DWORD PTR _point$[ebp]
	movss	xmm0, DWORD PTR [edx+4]
	comiss	xmm0, DWORD PTR [eax+4]
	jbe	SHORT $LN7@CalcCloses
	mov	ecx, DWORD PTR _point$[ebp]
	movss	xmm0, DWORD PTR [ecx+4]
	movss	DWORD PTR tv85[ebp], xmm0
	jmp	SHORT $LN8@CalcCloses
$LN7@CalcCloses:
	mov	edx, DWORD PTR _maxs$[ebp]
	movss	xmm0, DWORD PTR [edx+4]
	movss	DWORD PTR tv85[ebp], xmm0
$LN8@CalcCloses:
	movss	xmm0, DWORD PTR tv85[ebp]
	movss	DWORD PTR tv87[ebp], xmm0
	jmp	SHORT $LN10@CalcCloses
$LN9@CalcCloses:
	mov	eax, DWORD PTR _mins$[ebp]
	movss	xmm0, DWORD PTR [eax+4]
	movss	DWORD PTR tv87[ebp], xmm0
$LN10@CalcCloses:
	mov	ecx, DWORD PTR _closestOut$[ebp]
	movss	xmm0, DWORD PTR tv87[ebp]
	movss	DWORD PTR [ecx+4], xmm0

; 309  : 	closestOut.z = bound( mins.z, point.z, maxs.z );

	mov	eax, DWORD PTR _point$[ebp]
	mov	ecx, DWORD PTR _mins$[ebp]
	movss	xmm0, DWORD PTR [eax+8]
	comiss	xmm0, DWORD PTR [ecx+8]
	jb	SHORT $LN13@CalcCloses
	mov	edx, DWORD PTR _maxs$[ebp]
	mov	eax, DWORD PTR _point$[ebp]
	movss	xmm0, DWORD PTR [edx+8]
	comiss	xmm0, DWORD PTR [eax+8]
	jbe	SHORT $LN11@CalcCloses
	mov	ecx, DWORD PTR _point$[ebp]
	movss	xmm0, DWORD PTR [ecx+8]
	movss	DWORD PTR tv129[ebp], xmm0
	jmp	SHORT $LN12@CalcCloses
$LN11@CalcCloses:
	mov	edx, DWORD PTR _maxs$[ebp]
	movss	xmm0, DWORD PTR [edx+8]
	movss	DWORD PTR tv129[ebp], xmm0
$LN12@CalcCloses:
	movss	xmm0, DWORD PTR tv129[ebp]
	movss	DWORD PTR tv131[ebp], xmm0
	jmp	SHORT $LN14@CalcCloses
$LN13@CalcCloses:
	mov	eax, DWORD PTR _mins$[ebp]
	movss	xmm0, DWORD PTR [eax+8]
	movss	DWORD PTR tv131[ebp], xmm0
$LN14@CalcCloses:
	mov	ecx, DWORD PTR _closestOut$[ebp]
	movss	xmm0, DWORD PTR tv131[ebp]
	movss	DWORD PTR [ecx+8], xmm0

; 310  : }

	pop	edi
	pop	esi
	pop	ebx
	mov	esp, ebp
	pop	ebp
	ret	0
?CalcClosestPointOnAABB@@YAXABVVector@@00AAV1@@Z ENDP	; CalcClosestPointOnAABB
_TEXT	ENDS
; Function compile flags: /Odtp /ZI
; File d:\!diffusion 2020\source code 2022\client-server\game_shared\mathlib.cpp
;	COMDAT ?TransformAABBLocal@@YAXABVmatrix4x4@@ABVVector@@1AAV2@2@Z
_TEXT	SEGMENT
tv86 = -200						; size = 4
tv81 = -200						; size = 4
tv76 = -200						; size = 4
$T1 = -196						; size = 12
$T2 = -184						; size = 12
$T3 = -172						; size = 12
_i$ = -96						; size = 4
_p2$ = -92						; size = 12
_p1$ = -80						; size = 12
_im$ = -68						; size = 64
__$ArrayPad$ = -4					; size = 4
_world$ = 8						; size = 4
_mins$ = 12						; size = 4
_maxs$ = 16						; size = 4
_outmins$ = 20						; size = 4
_outmaxs$ = 24						; size = 4
?TransformAABBLocal@@YAXABVmatrix4x4@@ABVVector@@1AAV2@2@Z PROC ; TransformAABBLocal, COMDAT

; 268  : {

	push	ebp
	mov	ebp, esp
	sub	esp, 200				; 000000c8H
	mov	eax, DWORD PTR ___security_cookie
	xor	eax, ebp
	mov	DWORD PTR __$ArrayPad$[ebp], eax
	push	ebx
	push	esi
	push	edi

; 269  : 	matrix4x4	im = world.Invert();

	lea	eax, DWORD PTR _im$[ebp]
	push	eax
	mov	ecx, DWORD PTR _world$[ebp]
	call	?Invert@matrix4x4@@QBE?AV1@XZ		; matrix4x4::Invert

; 270  : 	ClearBounds( outmins, outmaxs );

	mov	eax, DWORD PTR _outmaxs$[ebp]
	push	eax
	mov	ecx, DWORD PTR _outmins$[ebp]
	push	ecx
	call	?ClearBounds@@YAXAAVVector@@0@Z		; ClearBounds
	add	esp, 8

; 271  : 	Vector p1, p2;

	lea	ecx, DWORD PTR _p1$[ebp]
	call	??0Vector@@QAE@XZ			; Vector::Vector
	lea	ecx, DWORD PTR _p2$[ebp]
	call	??0Vector@@QAE@XZ			; Vector::Vector

; 272  : 	int i;
; 273  : 
; 274  : 	// compute a full bounding box
; 275  : 	for( i = 0; i < 8; i++ )

	mov	DWORD PTR _i$[ebp], 0
	jmp	SHORT $LN4@TransformA
$LN2@TransformA:
	mov	eax, DWORD PTR _i$[ebp]
	add	eax, 1
	mov	DWORD PTR _i$[ebp], eax
$LN4@TransformA:
	cmp	DWORD PTR _i$[ebp], 8
	jge	$LN3@TransformA

; 276  : 	{
; 277  : 		p1.x = ( i & 1 ) ? mins.x : maxs.x;

	mov	eax, DWORD PTR _i$[ebp]
	and	eax, 1
	je	SHORT $LN16@TransformA
	mov	ecx, DWORD PTR _mins$[ebp]
	movss	xmm0, DWORD PTR [ecx]
	movss	DWORD PTR tv76[ebp], xmm0
	jmp	SHORT $LN17@TransformA
$LN16@TransformA:
	mov	edx, DWORD PTR _maxs$[ebp]
	movss	xmm0, DWORD PTR [edx]
	movss	DWORD PTR tv76[ebp], xmm0
$LN17@TransformA:
	movss	xmm0, DWORD PTR tv76[ebp]
	movss	DWORD PTR _p1$[ebp], xmm0

; 278  : 		p1.y = ( i & 2 ) ? mins.y : maxs.y;

	mov	eax, DWORD PTR _i$[ebp]
	and	eax, 2
	je	SHORT $LN18@TransformA
	mov	ecx, DWORD PTR _mins$[ebp]
	movss	xmm0, DWORD PTR [ecx+4]
	movss	DWORD PTR tv81[ebp], xmm0
	jmp	SHORT $LN19@TransformA
$LN18@TransformA:
	mov	edx, DWORD PTR _maxs$[ebp]
	movss	xmm0, DWORD PTR [edx+4]
	movss	DWORD PTR tv81[ebp], xmm0
$LN19@TransformA:
	movss	xmm0, DWORD PTR tv81[ebp]
	movss	DWORD PTR _p1$[ebp+4], xmm0

; 279  : 		p1.z = ( i & 4 ) ? mins.z : maxs.z;

	mov	eax, DWORD PTR _i$[ebp]
	and	eax, 4
	je	SHORT $LN20@TransformA
	mov	ecx, DWORD PTR _mins$[ebp]
	movss	xmm0, DWORD PTR [ecx+8]
	movss	DWORD PTR tv86[ebp], xmm0
	jmp	SHORT $LN21@TransformA
$LN20@TransformA:
	mov	edx, DWORD PTR _maxs$[ebp]
	movss	xmm0, DWORD PTR [edx+8]
	movss	DWORD PTR tv86[ebp], xmm0
$LN21@TransformA:
	movss	xmm0, DWORD PTR tv86[ebp]
	movss	DWORD PTR _p1$[ebp+8], xmm0

; 280  : 
; 281  : 		p2.x = DotProduct( p1, im[0] );

	push	0
	lea	ecx, DWORD PTR _im$[ebp]
	call	??Amatrix4x4@@QAEPAMH@Z			; matrix4x4::operator[]
	push	eax
	lea	ecx, DWORD PTR $T3[ebp]
	call	??0Vector@@QAE@QAM@Z			; Vector::Vector
	lea	eax, DWORD PTR $T3[ebp]
	push	eax
	lea	ecx, DWORD PTR _p1$[ebp]
	push	ecx
	call	?DotProduct@@YAMABVVector@@0@Z		; DotProduct
	add	esp, 8
	fstp	DWORD PTR _p2$[ebp]

; 282  : 		p2.y = DotProduct( p1, im[1] );

	push	1
	lea	ecx, DWORD PTR _im$[ebp]
	call	??Amatrix4x4@@QAEPAMH@Z			; matrix4x4::operator[]
	push	eax
	lea	ecx, DWORD PTR $T2[ebp]
	call	??0Vector@@QAE@QAM@Z			; Vector::Vector
	lea	eax, DWORD PTR $T2[ebp]
	push	eax
	lea	ecx, DWORD PTR _p1$[ebp]
	push	ecx
	call	?DotProduct@@YAMABVVector@@0@Z		; DotProduct
	add	esp, 8
	fstp	DWORD PTR _p2$[ebp+4]

; 283  : 		p2.z = DotProduct( p1, im[2] );

	push	2
	lea	ecx, DWORD PTR _im$[ebp]
	call	??Amatrix4x4@@QAEPAMH@Z			; matrix4x4::operator[]
	push	eax
	lea	ecx, DWORD PTR $T1[ebp]
	call	??0Vector@@QAE@QAM@Z			; Vector::Vector
	lea	eax, DWORD PTR $T1[ebp]
	push	eax
	lea	ecx, DWORD PTR _p1$[ebp]
	push	ecx
	call	?DotProduct@@YAMABVVector@@0@Z		; DotProduct
	add	esp, 8
	fstp	DWORD PTR _p2$[ebp+8]

; 284  : 
; 285  : 		if( p2.x < outmins.x ) outmins.x = p2.x;

	mov	eax, DWORD PTR _outmins$[ebp]
	movss	xmm0, DWORD PTR [eax]
	comiss	xmm0, DWORD PTR _p2$[ebp]
	jbe	SHORT $LN8@TransformA
	mov	eax, DWORD PTR _outmins$[ebp]
	movss	xmm0, DWORD PTR _p2$[ebp]
	movss	DWORD PTR [eax], xmm0
$LN8@TransformA:

; 286  : 		if( p2.x > outmaxs.x ) outmaxs.x = p2.x;

	mov	eax, DWORD PTR _outmaxs$[ebp]
	movss	xmm0, DWORD PTR _p2$[ebp]
	comiss	xmm0, DWORD PTR [eax]
	jbe	SHORT $LN9@TransformA
	mov	eax, DWORD PTR _outmaxs$[ebp]
	movss	xmm0, DWORD PTR _p2$[ebp]
	movss	DWORD PTR [eax], xmm0
$LN9@TransformA:

; 287  : 		if( p2.y < outmins.y ) outmins.y = p2.y;

	mov	eax, DWORD PTR _outmins$[ebp]
	movss	xmm0, DWORD PTR [eax+4]
	comiss	xmm0, DWORD PTR _p2$[ebp+4]
	jbe	SHORT $LN10@TransformA
	mov	eax, DWORD PTR _outmins$[ebp]
	movss	xmm0, DWORD PTR _p2$[ebp+4]
	movss	DWORD PTR [eax+4], xmm0
$LN10@TransformA:

; 288  : 		if( p2.y > outmaxs.y ) outmaxs.y = p2.y;

	mov	eax, DWORD PTR _outmaxs$[ebp]
	movss	xmm0, DWORD PTR _p2$[ebp+4]
	comiss	xmm0, DWORD PTR [eax+4]
	jbe	SHORT $LN11@TransformA
	mov	eax, DWORD PTR _outmaxs$[ebp]
	movss	xmm0, DWORD PTR _p2$[ebp+4]
	movss	DWORD PTR [eax+4], xmm0
$LN11@TransformA:

; 289  : 		if( p2.z < outmins.z ) outmins.z = p2.z;

	mov	eax, DWORD PTR _outmins$[ebp]
	movss	xmm0, DWORD PTR [eax+8]
	comiss	xmm0, DWORD PTR _p2$[ebp+8]
	jbe	SHORT $LN12@TransformA
	mov	eax, DWORD PTR _outmins$[ebp]
	movss	xmm0, DWORD PTR _p2$[ebp+8]
	movss	DWORD PTR [eax+8], xmm0
$LN12@TransformA:

; 290  : 		if( p2.z > outmaxs.z ) outmaxs.z = p2.z;

	mov	eax, DWORD PTR _outmaxs$[ebp]
	movss	xmm0, DWORD PTR _p2$[ebp+8]
	comiss	xmm0, DWORD PTR [eax+8]
	jbe	SHORT $LN13@TransformA
	mov	eax, DWORD PTR _outmaxs$[ebp]
	movss	xmm0, DWORD PTR _p2$[ebp+8]
	movss	DWORD PTR [eax+8], xmm0
$LN13@TransformA:

; 291  : 	}

	jmp	$LN2@TransformA
$LN3@TransformA:

; 292  : 
; 293  : 	// sanity check
; 294  : 	for( i = 0; i < 3; i++ )

	mov	DWORD PTR _i$[ebp], 0
	jmp	SHORT $LN7@TransformA
$LN5@TransformA:
	mov	eax, DWORD PTR _i$[ebp]
	add	eax, 1
	mov	DWORD PTR _i$[ebp], eax
$LN7@TransformA:
	cmp	DWORD PTR _i$[ebp], 3
	jge	SHORT $LN6@TransformA

; 295  : 	{
; 296  : 		if( outmins[i] > outmaxs[i] )

	mov	ecx, DWORD PTR _outmins$[ebp]
	call	??BVector@@QAEPAMXZ			; Vector::operator float *
	mov	esi, eax
	mov	ecx, DWORD PTR _outmaxs$[ebp]
	call	??BVector@@QAEPAMXZ			; Vector::operator float *
	mov	ecx, DWORD PTR _i$[ebp]
	mov	edx, DWORD PTR _i$[ebp]
	movss	xmm0, DWORD PTR [esi+ecx*4]
	comiss	xmm0, DWORD PTR [eax+edx*4]
	jbe	SHORT $LN14@TransformA

; 297  : 		{
; 298  : 			outmins = g_vecZero;

	mov	eax, DWORD PTR _outmins$[ebp]
	mov	ecx, DWORD PTR ?g_vecZero@@3VVector@@B
	mov	DWORD PTR [eax], ecx
	mov	edx, DWORD PTR ?g_vecZero@@3VVector@@B+4
	mov	DWORD PTR [eax+4], edx
	mov	ecx, DWORD PTR ?g_vecZero@@3VVector@@B+8
	mov	DWORD PTR [eax+8], ecx

; 299  : 			outmaxs = g_vecZero;

	mov	eax, DWORD PTR _outmaxs$[ebp]
	mov	ecx, DWORD PTR ?g_vecZero@@3VVector@@B
	mov	DWORD PTR [eax], ecx
	mov	edx, DWORD PTR ?g_vecZero@@3VVector@@B+4
	mov	DWORD PTR [eax+4], edx
	mov	ecx, DWORD PTR ?g_vecZero@@3VVector@@B+8
	mov	DWORD PTR [eax+8], ecx

; 300  : 			return;

	jmp	SHORT $LN1@TransformA
$LN14@TransformA:

; 301  : 		}
; 302  : 	}

	jmp	SHORT $LN5@TransformA
$LN6@TransformA:
$LN1@TransformA:

; 303  : }

	pop	edi
	pop	esi
	pop	ebx
	mov	ecx, DWORD PTR __$ArrayPad$[ebp]
	xor	ecx, ebp
	call	@__security_check_cookie@4
	mov	esp, ebp
	pop	ebp
	ret	0
?TransformAABBLocal@@YAXABVmatrix4x4@@ABVVector@@1AAV2@2@Z ENDP ; TransformAABBLocal
_TEXT	ENDS
; Function compile flags: /Odtp /ZI
; File d:\!diffusion 2020\source code 2022\client-server\game_shared\mathlib.cpp
;	COMDAT ?TransformAABB@@YAXABVmatrix4x4@@ABVVector@@1AAV2@2@Z
_TEXT	SEGMENT
$T1 = -252						; size = 12
$T2 = -240						; size = 12
$T3 = -228						; size = 12
$T4 = -216						; size = 12
$T5 = -204						; size = 12
$T6 = -192						; size = 12
_worldExtents$ = -116					; size = 12
_iworld$ = -104						; size = 64
_worldCenter$ = -40					; size = 12
_localExtents$ = -28					; size = 12
_localCenter$ = -16					; size = 12
__$ArrayPad$ = -4					; size = 4
_world$ = 8						; size = 4
_mins$ = 12						; size = 4
_maxs$ = 16						; size = 4
_absmin$ = 20						; size = 4
_absmax$ = 24						; size = 4
?TransformAABB@@YAXABVmatrix4x4@@ABVVector@@1AAV2@2@Z PROC ; TransformAABB, COMDAT

; 247  : {

	push	ebp
	mov	ebp, esp
	sub	esp, 252				; 000000fcH
	mov	eax, DWORD PTR ___security_cookie
	xor	eax, ebp
	mov	DWORD PTR __$ArrayPad$[ebp], eax
	push	ebx
	push	esi
	push	edi

; 248  : 	Vector localCenter = (mins + maxs) * 0.5f;

	push	ecx
	movss	xmm0, DWORD PTR __real@3f000000
	movss	DWORD PTR [esp], xmm0
	lea	eax, DWORD PTR _localCenter$[ebp]
	push	eax
	mov	ecx, DWORD PTR _maxs$[ebp]
	push	ecx
	lea	edx, DWORD PTR $T6[ebp]
	push	edx
	mov	ecx, DWORD PTR _mins$[ebp]
	call	??HVector@@QBE?AV0@ABV0@@Z		; Vector::operator+
	mov	ecx, eax
	call	??DVector@@QBE?AV0@M@Z			; Vector::operator*

; 249  : 	Vector localExtents = maxs - localCenter;

	lea	eax, DWORD PTR _localCenter$[ebp]
	push	eax
	lea	ecx, DWORD PTR _localExtents$[ebp]
	push	ecx
	mov	ecx, DWORD PTR _maxs$[ebp]
	call	??GVector@@QBE?AV0@ABV0@@Z		; Vector::operator-

; 250  : 	Vector worldCenter = world.VectorTransform( localCenter );

	lea	eax, DWORD PTR _localCenter$[ebp]
	push	eax
	lea	ecx, DWORD PTR _worldCenter$[ebp]
	push	ecx
	mov	ecx, DWORD PTR _world$[ebp]
	call	?VectorTransform@matrix4x4@@QBE?AVVector@@ABV2@@Z ; matrix4x4::VectorTransform

; 251  : 	matrix4x4 iworld = world.Transpose();

	lea	eax, DWORD PTR _iworld$[ebp]
	push	eax
	mov	ecx, DWORD PTR _world$[ebp]
	call	?Transpose@matrix4x4@@QBE?AV1@XZ	; matrix4x4::Transpose

; 252  : 	Vector worldExtents;

	lea	ecx, DWORD PTR _worldExtents$[ebp]
	call	??0Vector@@QAE@XZ			; Vector::Vector

; 253  : 
; 254  : 	worldExtents.x = DotProductAbs( localExtents, iworld.GetForward( ));

	lea	eax, DWORD PTR $T5[ebp]
	push	eax
	lea	ecx, DWORD PTR _iworld$[ebp]
	call	?GetForward@matrix4x4@@QBE?AVVector@@XZ	; matrix4x4::GetForward
	push	eax
	lea	ecx, DWORD PTR _localExtents$[ebp]
	push	ecx
	call	?DotProductAbs@@YAMABVVector@@0@Z	; DotProductAbs
	add	esp, 8
	fstp	DWORD PTR _worldExtents$[ebp]

; 255  : 	worldExtents.y = DotProductAbs( localExtents, iworld.GetRight( ));

	lea	eax, DWORD PTR $T4[ebp]
	push	eax
	lea	ecx, DWORD PTR _iworld$[ebp]
	call	?GetRight@matrix4x4@@QBE?AVVector@@XZ	; matrix4x4::GetRight
	push	eax
	lea	ecx, DWORD PTR _localExtents$[ebp]
	push	ecx
	call	?DotProductAbs@@YAMABVVector@@0@Z	; DotProductAbs
	add	esp, 8
	fstp	DWORD PTR _worldExtents$[ebp+4]

; 256  : 	worldExtents.z = DotProductAbs( localExtents, iworld.GetUp( ));

	lea	eax, DWORD PTR $T3[ebp]
	push	eax
	lea	ecx, DWORD PTR _iworld$[ebp]
	call	?GetUp@matrix4x4@@QBE?AVVector@@XZ	; matrix4x4::GetUp
	push	eax
	lea	ecx, DWORD PTR _localExtents$[ebp]
	push	ecx
	call	?DotProductAbs@@YAMABVVector@@0@Z	; DotProductAbs
	add	esp, 8
	fstp	DWORD PTR _worldExtents$[ebp+8]

; 257  : 
; 258  : 	absmin = worldCenter - worldExtents;

	lea	eax, DWORD PTR _worldExtents$[ebp]
	push	eax
	lea	ecx, DWORD PTR $T2[ebp]
	push	ecx
	lea	ecx, DWORD PTR _worldCenter$[ebp]
	call	??GVector@@QBE?AV0@ABV0@@Z		; Vector::operator-
	mov	edx, DWORD PTR _absmin$[ebp]
	mov	ecx, DWORD PTR [eax]
	mov	DWORD PTR [edx], ecx
	mov	ecx, DWORD PTR [eax+4]
	mov	DWORD PTR [edx+4], ecx
	mov	eax, DWORD PTR [eax+8]
	mov	DWORD PTR [edx+8], eax

; 259  : 	absmax = worldCenter + worldExtents;

	lea	eax, DWORD PTR _worldExtents$[ebp]
	push	eax
	lea	ecx, DWORD PTR $T1[ebp]
	push	ecx
	lea	ecx, DWORD PTR _worldCenter$[ebp]
	call	??HVector@@QBE?AV0@ABV0@@Z		; Vector::operator+
	mov	edx, DWORD PTR _absmax$[ebp]
	mov	ecx, DWORD PTR [eax]
	mov	DWORD PTR [edx], ecx
	mov	ecx, DWORD PTR [eax+4]
	mov	DWORD PTR [edx+4], ecx
	mov	eax, DWORD PTR [eax+8]
	mov	DWORD PTR [edx+8], eax

; 260  : }

	pop	edi
	pop	esi
	pop	ebx
	mov	ecx, DWORD PTR __$ArrayPad$[ebp]
	xor	ecx, ebp
	call	@__security_check_cookie@4
	mov	esp, ebp
	pop	ebp
	ret	0
?TransformAABB@@YAXABVmatrix4x4@@ABVVector@@1AAV2@2@Z ENDP ; TransformAABB
_TEXT	ENDS
; Function compile flags: /Odtp /ZI
; File d:\!diffusion 2020\source code 2022\client-server\game_shared\matrix.h
;	COMDAT ?Transpose@matrix4x4@@QBE?AV1@XZ
_TEXT	SEGMENT
_this$ = -4						; size = 4
___$ReturnUdt$ = 8					; size = 4
?Transpose@matrix4x4@@QBE?AV1@XZ PROC			; matrix4x4::Transpose, COMDAT
; _this$ = ecx

; 1076 : 	{

	push	ebp
	mov	ebp, esp
	sub	esp, 68					; 00000044H
	push	ebx
	push	esi
	push	edi
	mov	DWORD PTR _this$[ebp], ecx

; 1077 : 		return matrix4x4(

	mov	eax, 16					; 00000010H
	imul	ecx, eax, 3
	add	ecx, DWORD PTR _this$[ebp]
	call	??BVector4D@@QBEPBMXZ			; Vector4D::operator float const *
	mov	ecx, 4
	imul	edx, ecx, 3
	push	ecx
	movss	xmm0, DWORD PTR [eax+edx]
	movss	DWORD PTR [esp], xmm0
	mov	ecx, 16					; 00000010H
	shl	ecx, 1
	add	ecx, DWORD PTR _this$[ebp]
	call	??BVector4D@@QBEPBMXZ			; Vector4D::operator float const *
	mov	ecx, 4
	imul	edx, ecx, 3
	push	ecx
	movss	xmm0, DWORD PTR [eax+edx]
	movss	DWORD PTR [esp], xmm0
	mov	ecx, 16					; 00000010H
	shl	ecx, 0
	add	ecx, DWORD PTR _this$[ebp]
	call	??BVector4D@@QBEPBMXZ			; Vector4D::operator float const *
	mov	ecx, 4
	imul	edx, ecx, 3
	push	ecx
	movss	xmm0, DWORD PTR [eax+edx]
	movss	DWORD PTR [esp], xmm0
	mov	eax, 16					; 00000010H
	imul	ecx, eax, 0
	add	ecx, DWORD PTR _this$[ebp]
	call	??BVector4D@@QBEPBMXZ			; Vector4D::operator float const *
	mov	ecx, 4
	imul	edx, ecx, 3
	push	ecx
	movss	xmm0, DWORD PTR [eax+edx]
	movss	DWORD PTR [esp], xmm0
	mov	eax, 16					; 00000010H
	imul	ecx, eax, 3
	add	ecx, DWORD PTR _this$[ebp]
	call	??BVector4D@@QBEPBMXZ			; Vector4D::operator float const *
	mov	ecx, 4
	shl	ecx, 1
	push	ecx
	movss	xmm0, DWORD PTR [eax+ecx]
	movss	DWORD PTR [esp], xmm0
	mov	ecx, 16					; 00000010H
	shl	ecx, 1
	add	ecx, DWORD PTR _this$[ebp]
	call	??BVector4D@@QBEPBMXZ			; Vector4D::operator float const *
	mov	edx, 4
	shl	edx, 1
	push	ecx
	movss	xmm0, DWORD PTR [eax+edx]
	movss	DWORD PTR [esp], xmm0
	mov	ecx, 16					; 00000010H
	shl	ecx, 0
	add	ecx, DWORD PTR _this$[ebp]
	call	??BVector4D@@QBEPBMXZ			; Vector4D::operator float const *
	mov	ecx, 4
	shl	ecx, 1
	push	ecx
	movss	xmm0, DWORD PTR [eax+ecx]
	movss	DWORD PTR [esp], xmm0
	mov	edx, 16					; 00000010H
	imul	ecx, edx, 0
	add	ecx, DWORD PTR _this$[ebp]
	call	??BVector4D@@QBEPBMXZ			; Vector4D::operator float const *
	mov	ecx, 4
	shl	ecx, 1
	push	ecx
	movss	xmm0, DWORD PTR [eax+ecx]
	movss	DWORD PTR [esp], xmm0
	mov	edx, 16					; 00000010H
	imul	ecx, edx, 3
	add	ecx, DWORD PTR _this$[ebp]
	call	??BVector4D@@QBEPBMXZ			; Vector4D::operator float const *
	mov	ecx, 4
	shl	ecx, 0
	push	ecx
	movss	xmm0, DWORD PTR [eax+ecx]
	movss	DWORD PTR [esp], xmm0
	mov	ecx, 16					; 00000010H
	shl	ecx, 1
	add	ecx, DWORD PTR _this$[ebp]
	call	??BVector4D@@QBEPBMXZ			; Vector4D::operator float const *
	mov	edx, 4
	shl	edx, 0
	push	ecx
	movss	xmm0, DWORD PTR [eax+edx]
	movss	DWORD PTR [esp], xmm0
	mov	ecx, 16					; 00000010H
	shl	ecx, 0
	add	ecx, DWORD PTR _this$[ebp]
	call	??BVector4D@@QBEPBMXZ			; Vector4D::operator float const *
	mov	ecx, 4
	shl	ecx, 0
	push	ecx
	movss	xmm0, DWORD PTR [eax+ecx]
	movss	DWORD PTR [esp], xmm0
	mov	edx, 16					; 00000010H
	imul	ecx, edx, 0
	add	ecx, DWORD PTR _this$[ebp]
	call	??BVector4D@@QBEPBMXZ			; Vector4D::operator float const *
	mov	ecx, 4
	shl	ecx, 0
	push	ecx
	movss	xmm0, DWORD PTR [eax+ecx]
	movss	DWORD PTR [esp], xmm0
	mov	edx, 16					; 00000010H
	imul	ecx, edx, 3
	add	ecx, DWORD PTR _this$[ebp]
	call	??BVector4D@@QBEPBMXZ			; Vector4D::operator float const *
	mov	ecx, 4
	imul	edx, ecx, 0
	push	ecx
	movss	xmm0, DWORD PTR [eax+edx]
	movss	DWORD PTR [esp], xmm0
	mov	ecx, 16					; 00000010H
	shl	ecx, 1
	add	ecx, DWORD PTR _this$[ebp]
	call	??BVector4D@@QBEPBMXZ			; Vector4D::operator float const *
	mov	ecx, 4
	imul	edx, ecx, 0
	push	ecx
	movss	xmm0, DWORD PTR [eax+edx]
	movss	DWORD PTR [esp], xmm0
	mov	ecx, 16					; 00000010H
	shl	ecx, 0
	add	ecx, DWORD PTR _this$[ebp]
	call	??BVector4D@@QBEPBMXZ			; Vector4D::operator float const *
	mov	ecx, 4
	imul	edx, ecx, 0
	push	ecx
	movss	xmm0, DWORD PTR [eax+edx]
	movss	DWORD PTR [esp], xmm0
	mov	eax, 16					; 00000010H
	imul	ecx, eax, 0
	add	ecx, DWORD PTR _this$[ebp]
	call	??BVector4D@@QBEPBMXZ			; Vector4D::operator float const *
	mov	ecx, 4
	imul	edx, ecx, 0
	push	ecx
	movss	xmm0, DWORD PTR [eax+edx]
	movss	DWORD PTR [esp], xmm0
	mov	ecx, DWORD PTR ___$ReturnUdt$[ebp]
	call	??0matrix4x4@@QAE@MMMMMMMMMMMMMMMM@Z	; matrix4x4::matrix4x4
	mov	eax, DWORD PTR ___$ReturnUdt$[ebp]

; 1078 : 			mat[0][0], mat[1][0], mat[2][0], mat[3][0],
; 1079 : 			mat[0][1], mat[1][1], mat[2][1], mat[3][1],
; 1080 : 			mat[0][2], mat[1][2], mat[2][2], mat[3][2],
; 1081 : 			mat[0][3], mat[1][3], mat[2][3], mat[3][3] );
; 1082 : 	}

	pop	edi
	pop	esi
	pop	ebx
	mov	esp, ebp
	pop	ebp
	ret	4
?Transpose@matrix4x4@@QBE?AV1@XZ ENDP			; matrix4x4::Transpose
_TEXT	ENDS
; Function compile flags: /Odtp /ZI
; File d:\!diffusion 2020\source code 2022\client-server\game_shared\matrix.h
;	COMDAT ?GetUp@matrix4x4@@QBE?AVVector@@XZ
_TEXT	SEGMENT
$T1 = -80						; size = 12
_this$ = -4						; size = 4
___$ReturnUdt$ = 8					; size = 4
?GetUp@matrix4x4@@QBE?AVVector@@XZ PROC			; matrix4x4::GetUp, COMDAT
; _this$ = ecx

; 978  : 	Vector	GetUp() const { return mat[2]; };

	push	ebp
	mov	ebp, esp
	sub	esp, 80					; 00000050H
	push	ebx
	push	esi
	push	edi
	mov	DWORD PTR _this$[ebp], ecx
	lea	eax, DWORD PTR $T1[ebp]
	push	eax
	mov	ecx, 16					; 00000010H
	shl	ecx, 1
	add	ecx, DWORD PTR _this$[ebp]
	call	??BVector4D@@QBE?BVVector@@XZ		; Vector4D::operator Vector const 
	lea	ecx, DWORD PTR $T1[ebp]
	push	ecx
	mov	ecx, DWORD PTR ___$ReturnUdt$[ebp]
	call	??0Vector@@QAE@ABV0@@Z			; Vector::Vector
	mov	eax, DWORD PTR ___$ReturnUdt$[ebp]
	pop	edi
	pop	esi
	pop	ebx
	mov	esp, ebp
	pop	ebp
	ret	4
?GetUp@matrix4x4@@QBE?AVVector@@XZ ENDP			; matrix4x4::GetUp
_TEXT	ENDS
; Function compile flags: /Odtp /ZI
; File d:\!diffusion 2020\source code 2022\client-server\game_shared\matrix.h
;	COMDAT ?GetRight@matrix4x4@@QBE?AVVector@@XZ
_TEXT	SEGMENT
$T1 = -80						; size = 12
_this$ = -4						; size = 4
___$ReturnUdt$ = 8					; size = 4
?GetRight@matrix4x4@@QBE?AVVector@@XZ PROC		; matrix4x4::GetRight, COMDAT
; _this$ = ecx

; 977  : 	Vector	GetRight() const { return mat[1]; };

	push	ebp
	mov	ebp, esp
	sub	esp, 80					; 00000050H
	push	ebx
	push	esi
	push	edi
	mov	DWORD PTR _this$[ebp], ecx
	lea	eax, DWORD PTR $T1[ebp]
	push	eax
	mov	ecx, 16					; 00000010H
	shl	ecx, 0
	add	ecx, DWORD PTR _this$[ebp]
	call	??BVector4D@@QBE?BVVector@@XZ		; Vector4D::operator Vector const 
	lea	ecx, DWORD PTR $T1[ebp]
	push	ecx
	mov	ecx, DWORD PTR ___$ReturnUdt$[ebp]
	call	??0Vector@@QAE@ABV0@@Z			; Vector::Vector
	mov	eax, DWORD PTR ___$ReturnUdt$[ebp]
	pop	edi
	pop	esi
	pop	ebx
	mov	esp, ebp
	pop	ebp
	ret	4
?GetRight@matrix4x4@@QBE?AVVector@@XZ ENDP		; matrix4x4::GetRight
_TEXT	ENDS
; Function compile flags: /Odtp /ZI
; File d:\!diffusion 2020\source code 2022\client-server\game_shared\matrix.h
;	COMDAT ?GetForward@matrix4x4@@QBE?AVVector@@XZ
_TEXT	SEGMENT
$T1 = -80						; size = 12
_this$ = -4						; size = 4
___$ReturnUdt$ = 8					; size = 4
?GetForward@matrix4x4@@QBE?AVVector@@XZ PROC		; matrix4x4::GetForward, COMDAT
; _this$ = ecx

; 976  : 	Vector	GetForward() const { return mat[0]; };

	push	ebp
	mov	ebp, esp
	sub	esp, 80					; 00000050H
	push	ebx
	push	esi
	push	edi
	mov	DWORD PTR _this$[ebp], ecx
	lea	eax, DWORD PTR $T1[ebp]
	push	eax
	mov	ecx, 16					; 00000010H
	imul	ecx, ecx, 0
	add	ecx, DWORD PTR _this$[ebp]
	call	??BVector4D@@QBE?BVVector@@XZ		; Vector4D::operator Vector const 
	lea	edx, DWORD PTR $T1[ebp]
	push	edx
	mov	ecx, DWORD PTR ___$ReturnUdt$[ebp]
	call	??0Vector@@QAE@ABV0@@Z			; Vector::Vector
	mov	eax, DWORD PTR ___$ReturnUdt$[ebp]
	pop	edi
	pop	esi
	pop	ebx
	mov	esp, ebp
	pop	ebp
	ret	4
?GetForward@matrix4x4@@QBE?AVVector@@XZ ENDP		; matrix4x4::GetForward
_TEXT	ENDS
; Function compile flags: /Odtp /ZI
; File d:\!diffusion 2020\source code 2022\client-server\game_shared\matrix.h
;	COMDAT ??Amatrix4x4@@QAEPAMH@Z
_TEXT	SEGMENT
_this$ = -4						; size = 4
_i$ = 8							; size = 4
??Amatrix4x4@@QAEPAMH@Z PROC				; matrix4x4::operator[], COMDAT
; _this$ = ecx

; 952  : 	float* operator[]( int i ) { return mat[i]; }

	push	ebp
	mov	ebp, esp
	sub	esp, 68					; 00000044H
	push	ebx
	push	esi
	push	edi
	mov	DWORD PTR _this$[ebp], ecx
	mov	ecx, DWORD PTR _i$[ebp]
	shl	ecx, 4
	add	ecx, DWORD PTR _this$[ebp]
	call	??BVector4D@@QAEPAMXZ			; Vector4D::operator float *
	pop	edi
	pop	esi
	pop	ebx
	mov	esp, ebp
	pop	ebp
	ret	4
??Amatrix4x4@@QAEPAMH@Z ENDP				; matrix4x4::operator[]
_TEXT	ENDS
; Function compile flags: /Odtp /ZI
; File d:\!diffusion 2020\source code 2022\client-server\game_shared\matrix.h
;	COMDAT ??0matrix4x4@@QAE@MMMMMMMMMMMMMMMM@Z
_TEXT	SEGMENT
_this$ = -4						; size = 4
_m00$ = 8						; size = 4
_m01$ = 12						; size = 4
_m02$ = 16						; size = 4
_m03$ = 20						; size = 4
_m10$ = 24						; size = 4
_m11$ = 28						; size = 4
_m12$ = 32						; size = 4
_m13$ = 36						; size = 4
_m20$ = 40						; size = 4
_m21$ = 44						; size = 4
_m22$ = 48						; size = 4
_m23$ = 52						; size = 4
_m30$ = 56						; size = 4
_m31$ = 60						; size = 4
_m32$ = 64						; size = 4
_m33$ = 68						; size = 4
??0matrix4x4@@QAE@MMMMMMMMMMMMMMMM@Z PROC		; matrix4x4::matrix4x4, COMDAT
; _this$ = ecx

; 656  : 	matrix4x4( float m00, float m01, float m02, float m03,

	push	ebp
	mov	ebp, esp
	sub	esp, 68					; 00000044H
	push	ebx
	push	esi
	push	edi
	mov	DWORD PTR _this$[ebp], ecx

; 657  : 		 float m10, float m11, float m12, float m13,
; 658  : 		 float m20, float m21, float m22, float m23,
; 659  : 		 float m30, float m31, float m32, float m33 )
; 660  : 	{

	push	OFFSET ??0Vector4D@@QAE@XZ		; Vector4D::Vector4D
	push	4
	push	16					; 00000010H
	mov	eax, DWORD PTR _this$[ebp]
	push	eax
	call	??_H@YGXPAXIIP6EPAX0@Z@Z

; 661  : 		mat[0][0] = m00;

	mov	eax, 16					; 00000010H
	imul	ecx, eax, 0
	add	ecx, DWORD PTR _this$[ebp]
	call	??BVector4D@@QAEPAMXZ			; Vector4D::operator float *
	mov	ecx, 4
	imul	edx, ecx, 0
	movss	xmm0, DWORD PTR _m00$[ebp]
	movss	DWORD PTR [eax+edx], xmm0

; 662  : 		mat[0][1] = m01;

	mov	eax, 16					; 00000010H
	imul	ecx, eax, 0
	add	ecx, DWORD PTR _this$[ebp]
	call	??BVector4D@@QAEPAMXZ			; Vector4D::operator float *
	mov	ecx, 4
	shl	ecx, 0
	movss	xmm0, DWORD PTR _m01$[ebp]
	movss	DWORD PTR [eax+ecx], xmm0

; 663  : 		mat[0][2] = m02;

	mov	eax, 16					; 00000010H
	imul	ecx, eax, 0
	add	ecx, DWORD PTR _this$[ebp]
	call	??BVector4D@@QAEPAMXZ			; Vector4D::operator float *
	mov	ecx, 4
	shl	ecx, 1
	movss	xmm0, DWORD PTR _m02$[ebp]
	movss	DWORD PTR [eax+ecx], xmm0

; 664  : 		mat[0][3] = m03;

	mov	eax, 16					; 00000010H
	imul	ecx, eax, 0
	add	ecx, DWORD PTR _this$[ebp]
	call	??BVector4D@@QAEPAMXZ			; Vector4D::operator float *
	mov	ecx, 4
	imul	edx, ecx, 3
	movss	xmm0, DWORD PTR _m03$[ebp]
	movss	DWORD PTR [eax+edx], xmm0

; 665  : 		mat[1][0] = m10;

	mov	ecx, 16					; 00000010H
	shl	ecx, 0
	add	ecx, DWORD PTR _this$[ebp]
	call	??BVector4D@@QAEPAMXZ			; Vector4D::operator float *
	mov	ecx, 4
	imul	edx, ecx, 0
	movss	xmm0, DWORD PTR _m10$[ebp]
	movss	DWORD PTR [eax+edx], xmm0

; 666  : 		mat[1][1] = m11;

	mov	ecx, 16					; 00000010H
	shl	ecx, 0
	add	ecx, DWORD PTR _this$[ebp]
	call	??BVector4D@@QAEPAMXZ			; Vector4D::operator float *
	mov	ecx, 4
	shl	ecx, 0
	movss	xmm0, DWORD PTR _m11$[ebp]
	movss	DWORD PTR [eax+ecx], xmm0

; 667  : 		mat[1][2] = m12;

	mov	ecx, 16					; 00000010H
	shl	ecx, 0
	add	ecx, DWORD PTR _this$[ebp]
	call	??BVector4D@@QAEPAMXZ			; Vector4D::operator float *
	mov	ecx, 4
	shl	ecx, 1
	movss	xmm0, DWORD PTR _m12$[ebp]
	movss	DWORD PTR [eax+ecx], xmm0

; 668  : 		mat[1][3] = m13;

	mov	ecx, 16					; 00000010H
	shl	ecx, 0
	add	ecx, DWORD PTR _this$[ebp]
	call	??BVector4D@@QAEPAMXZ			; Vector4D::operator float *
	mov	ecx, 4
	imul	edx, ecx, 3
	movss	xmm0, DWORD PTR _m13$[ebp]
	movss	DWORD PTR [eax+edx], xmm0

; 669  : 		mat[2][0] = m20;

	mov	ecx, 16					; 00000010H
	shl	ecx, 1
	add	ecx, DWORD PTR _this$[ebp]
	call	??BVector4D@@QAEPAMXZ			; Vector4D::operator float *
	mov	ecx, 4
	imul	edx, ecx, 0
	movss	xmm0, DWORD PTR _m20$[ebp]
	movss	DWORD PTR [eax+edx], xmm0

; 670  : 		mat[2][1] = m21;

	mov	ecx, 16					; 00000010H
	shl	ecx, 1
	add	ecx, DWORD PTR _this$[ebp]
	call	??BVector4D@@QAEPAMXZ			; Vector4D::operator float *
	mov	ecx, 4
	shl	ecx, 0
	movss	xmm0, DWORD PTR _m21$[ebp]
	movss	DWORD PTR [eax+ecx], xmm0

; 671  : 		mat[2][2] = m22;

	mov	ecx, 16					; 00000010H
	shl	ecx, 1
	add	ecx, DWORD PTR _this$[ebp]
	call	??BVector4D@@QAEPAMXZ			; Vector4D::operator float *
	mov	ecx, 4
	shl	ecx, 1
	movss	xmm0, DWORD PTR _m22$[ebp]
	movss	DWORD PTR [eax+ecx], xmm0

; 672  : 		mat[2][3] = m23;

	mov	ecx, 16					; 00000010H
	shl	ecx, 1
	add	ecx, DWORD PTR _this$[ebp]
	call	??BVector4D@@QAEPAMXZ			; Vector4D::operator float *
	mov	ecx, 4
	imul	edx, ecx, 3
	movss	xmm0, DWORD PTR _m23$[ebp]
	movss	DWORD PTR [eax+edx], xmm0

; 673  : 		mat[3][0] = m30;

	mov	eax, 16					; 00000010H
	imul	ecx, eax, 3
	add	ecx, DWORD PTR _this$[ebp]
	call	??BVector4D@@QAEPAMXZ			; Vector4D::operator float *
	mov	ecx, 4
	imul	edx, ecx, 0
	movss	xmm0, DWORD PTR _m30$[ebp]
	movss	DWORD PTR [eax+edx], xmm0

; 674  : 		mat[3][1] = m31;

	mov	eax, 16					; 00000010H
	imul	ecx, eax, 3
	add	ecx, DWORD PTR _this$[ebp]
	call	??BVector4D@@QAEPAMXZ			; Vector4D::operator float *
	mov	ecx, 4
	shl	ecx, 0
	movss	xmm0, DWORD PTR _m31$[ebp]
	movss	DWORD PTR [eax+ecx], xmm0

; 675  : 		mat[3][2] = m32;

	mov	eax, 16					; 00000010H
	imul	ecx, eax, 3
	add	ecx, DWORD PTR _this$[ebp]
	call	??BVector4D@@QAEPAMXZ			; Vector4D::operator float *
	mov	ecx, 4
	shl	ecx, 1
	movss	xmm0, DWORD PTR _m32$[ebp]
	movss	DWORD PTR [eax+ecx], xmm0

; 676  : 		mat[3][3] = m33;

	mov	eax, 16					; 00000010H
	imul	ecx, eax, 3
	add	ecx, DWORD PTR _this$[ebp]
	call	??BVector4D@@QAEPAMXZ			; Vector4D::operator float *
	mov	ecx, 4
	imul	edx, ecx, 3
	movss	xmm0, DWORD PTR _m33$[ebp]
	movss	DWORD PTR [eax+edx], xmm0

; 677  : 	}

	mov	eax, DWORD PTR _this$[ebp]
	pop	edi
	pop	esi
	pop	ebx
	mov	esp, ebp
	pop	ebp
	ret	64					; 00000040H
??0matrix4x4@@QAE@MMMMMMMMMMMMMMMM@Z ENDP		; matrix4x4::matrix4x4
_TEXT	ENDS
; Function compile flags: /Odtp /ZI
; File d:\!diffusion 2020\source code 2022\client-server\game_shared\matrix.h
;	COMDAT ?GetAngles@matrix3x3@@QAEXAAVRadian@@@Z
_TEXT	SEGMENT
tv306 = -76						; size = 4
_xyDist$ = -8						; size = 4
_this$ = -4						; size = 4
_angles$ = 8						; size = 4
?GetAngles@matrix3x3@@QAEXAAVRadian@@@Z PROC		; matrix3x3::GetAngles, COMDAT
; _this$ = ecx

; 190  : 	{

	push	ebp
	mov	ebp, esp
	sub	esp, 76					; 0000004cH
	push	ebx
	push	esi
	push	edi
	mov	DWORD PTR _this$[ebp], ecx

; 191  : 		float xyDist = sqrt( mat[0][0] * mat[0][0] + mat[0][1] * mat[0][1] );

	mov	eax, 12					; 0000000cH
	imul	ecx, eax, 0
	add	ecx, DWORD PTR _this$[ebp]
	call	??BVector@@QAEPAMXZ			; Vector::operator float *
	mov	esi, eax
	mov	ecx, 4
	imul	edi, ecx, 0
	mov	edx, 12					; 0000000cH
	imul	ecx, edx, 0
	add	ecx, DWORD PTR _this$[ebp]
	call	??BVector@@QAEPAMXZ			; Vector::operator float *
	mov	ecx, 4
	imul	edx, ecx, 0
	movss	xmm0, DWORD PTR [esi+edi]
	mulss	xmm0, DWORD PTR [eax+edx]
	mov	eax, 12					; 0000000cH
	imul	ecx, eax, 0
	add	ecx, DWORD PTR _this$[ebp]
	movss	DWORD PTR tv306[ebp], xmm0
	call	??BVector@@QAEPAMXZ			; Vector::operator float *
	mov	esi, eax
	mov	edi, 4
	shl	edi, 0
	mov	ecx, 12					; 0000000cH
	imul	ecx, ecx, 0
	add	ecx, DWORD PTR _this$[ebp]
	call	??BVector@@QAEPAMXZ			; Vector::operator float *
	mov	edx, 4
	shl	edx, 0
	movss	xmm0, DWORD PTR [esi+edi]
	mulss	xmm0, DWORD PTR [eax+edx]
	movss	xmm1, DWORD PTR tv306[ebp]
	addss	xmm1, xmm0
	cvtss2sd xmm0, xmm1
	sub	esp, 8
	movsd	QWORD PTR [esp], xmm0
