; Listing generated by Microsoft (R) Optimizing Compiler Version 19.00.24247.2 

	TITLE	D:\!DIFFUSION 2020\source code 2022\client-server\client\menu.cpp
	.686P
	.XMM
	include listing.inc
	.model	flat

INCLUDELIB LIBCMT
INCLUDELIB OLDNAMES

PUBLIC	?g_szMenuString@@3PADA				; g_szMenuString
PUBLIC	?g_szPrelocalisedMenuString@@3PADA		; g_szPrelocalisedMenuString
_BSS	SEGMENT
?g_szMenuString@@3PADA DB 0200H DUP (?)			; g_szMenuString
?g_szPrelocalisedMenuString@@3PADA DB 0200H DUP (?)	; g_szPrelocalisedMenuString
_BSS	ENDS
PUBLIC	??_H@YGXPAXIIP6EPAX0@Z@Z			; `vector constructor iterator'
PUBLIC	??__G@YGXPAX0IIP6EPAX00@Z@Z			; `vector copy constructor iterator'
PUBLIC	___local_stdio_printf_options
PUBLIC	__vsprintf_s_l
PUBLIC	_vsprintf_s
PUBLIC	?Init@CHudMenu@@UAEHXZ				; CHudMenu::Init
PUBLIC	?InitHUDData@CHudMenu@@UAEXXZ			; CHudMenu::InitHUDData
PUBLIC	?VidInit@CHudMenu@@UAEHXZ			; CHudMenu::VidInit
PUBLIC	?Reset@CHudMenu@@UAEXXZ				; CHudMenu::Reset
PUBLIC	?Draw@CHudMenu@@UAEHM@Z				; CHudMenu::Draw
PUBLIC	?MsgFunc_ShowMenu@CHudMenu@@QAEHPBDHPAX@Z	; CHudMenu::MsgFunc_ShowMenu
PUBLIC	?SelectMenuItem@CHudMenu@@QAEXH@Z		; CHudMenu::SelectMenuItem
PUBLIC	?__MsgFunc_ShowMenu@@YAHPBDHPAX@Z		; __MsgFunc_ShowMenu
PUBLIC	??$sprintf_s@$0CA@@@YAHAAY0CA@DPBDZZ		; sprintf_s<32>
PUBLIC	??$__vcrt_va_start_verify_argument_type@PBD@@YAXXZ ; __vcrt_va_start_verify_argument_type<char const *>
PUBLIC	?_OptionsStorage@?1??__local_stdio_printf_options@@9@4_KA ; `__local_stdio_printf_options'::`2'::_OptionsStorage
PUBLIC	??_C@_08IGGENMMJ@ShowMenu?$AA@			; `string'
PUBLIC	??_C@_0P@GNDNMPMB@menuselect?5?$CFd?6?$AA@	; `string'
PUBLIC	__real@00000000
PUBLIC	__real@bf800000
EXTRN	___report_rangecheckfailure:PROC
EXTRN	_free:PROC
EXTRN	___stdio_common_vsprintf_s:PROC
EXTRN	?Q_strlen@@YAHPBD@Z:PROC			; Q_strlen
EXTRN	?Q_strncat@@YAIPADPBDI@Z:PROC			; Q_strncat
EXTRN	?Q_strncpy@@YAIPADPBDI@Z:PROC			; Q_strncpy
EXTRN	?BufferedLocaliseTextString@CHudTextMessage@@SAPADPBD@Z:PROC ; CHudTextMessage::BufferedLocaliseTextString
EXTRN	?DrawHudString@CHud@@QAEHHHHPADHHH@Z:PROC	; CHud::DrawHudString
EXTRN	?AddHudElem@CHud@@QAEXPAVCHudBase@@@Z:PROC	; CHud::AddHudElem
EXTRN	?KB_ConvertString@@YAHPADPAPAD@Z:PROC		; KB_ConvertString
EXTRN	?BEGIN_READ@@YAXPBDPAXH@Z:PROC			; BEGIN_READ
EXTRN	?END_READ@@YAXXZ:PROC				; END_READ
EXTRN	?READ_CHAR@@YAHXZ:PROC				; READ_CHAR
EXTRN	?READ_BYTE@@YAHXZ:PROC				; READ_BYTE
EXTRN	?READ_SHORT@@YAHXZ:PROC				; READ_SHORT
EXTRN	?READ_STRING@@YAPADXZ:PROC			; READ_STRING
EXTRN	@__security_check_cookie@4:PROC
EXTRN	?gEngfuncs@@3Ucl_enginefuncs_s@@A:BYTE		; gEngfuncs
EXTRN	?gHUD@@3VCHud@@A:BYTE				; gHUD
EXTRN	___security_cookie:DWORD
EXTRN	__fltused:DWORD
;	COMDAT ?_OptionsStorage@?1??__local_stdio_printf_options@@9@4_KA
_BSS	SEGMENT
?_OptionsStorage@?1??__local_stdio_printf_options@@9@4_KA DQ 01H DUP (?) ; `__local_stdio_printf_options'::`2'::_OptionsStorage
_BSS	ENDS
;	COMDAT __real@bf800000
CONST	SEGMENT
__real@bf800000 DD 0bf800000r			; -1
CONST	ENDS
;	COMDAT __real@00000000
CONST	SEGMENT
__real@00000000 DD 000000000r			; 0
CONST	ENDS
;	COMDAT ??_C@_0P@GNDNMPMB@menuselect?5?$CFd?6?$AA@
CONST	SEGMENT
??_C@_0P@GNDNMPMB@menuselect?5?$CFd?6?$AA@ DB 'menuselect %d', 0aH, 00H ; `string'
CONST	ENDS
;	COMDAT ??_C@_08IGGENMMJ@ShowMenu?$AA@
CONST	SEGMENT
??_C@_08IGGENMMJ@ShowMenu?$AA@ DB 'ShowMenu', 00H	; `string'
CONST	ENDS
; Function compile flags: /Odtp /ZI
; File c:\program files (x86)\microsoft visual studio 14.0\vc\include\vadefs.h
;	COMDAT ??$__vcrt_va_start_verify_argument_type@PBD@@YAXXZ
_TEXT	SEGMENT
??$__vcrt_va_start_verify_argument_type@PBD@@YAXXZ PROC	; __vcrt_va_start_verify_argument_type<char const *>, COMDAT

; 144  :         {

	push	ebp
	mov	ebp, esp
	sub	esp, 64					; 00000040H
	push	ebx
	push	esi
	push	edi

; 145  :             static_assert(!__vcrt_va_list_is_reference<_Ty>::__the_value, "va_start argument must not have reference type and must not be parenthesized");
; 146  :         }

	pop	edi
	pop	esi
	pop	ebx
	mov	esp, ebp
	pop	ebp
	ret	0
??$__vcrt_va_start_verify_argument_type@PBD@@YAXXZ ENDP	; __vcrt_va_start_verify_argument_type<char const *>
_TEXT	ENDS
; Function compile flags: /Odtp /ZI
; File c:\program files (x86)\windows kits\10\include\10.0.10240.0\ucrt\stdio.h
;	COMDAT ??$sprintf_s@$0CA@@@YAHAAY0CA@DPBDZZ
_TEXT	SEGMENT
__ArgList$ = -4						; size = 4
__Buffer$ = 8						; size = 4
__Format$ = 12						; size = 4
??$sprintf_s@$0CA@@@YAHAAY0CA@DPBDZZ PROC		; sprintf_s<32>, COMDAT

; 1850 :     )

	push	ebp
	mov	ebp, esp
	sub	esp, 68					; 00000044H
	push	ebx
	push	esi
	push	edi

; 1846 : __DEFINE_CPP_OVERLOAD_SECURE_FUNC_0_1_ARGLIST(

	call	??$__vcrt_va_start_verify_argument_type@PBD@@YAXXZ ; __vcrt_va_start_verify_argument_type<char const *>
	lea	eax, DWORD PTR __Format$[ebp+4]
	mov	DWORD PTR __ArgList$[ebp], eax
	mov	eax, DWORD PTR __ArgList$[ebp]
	push	eax
	mov	ecx, DWORD PTR __Format$[ebp]
	push	ecx
	push	32					; 00000020H
	mov	edx, DWORD PTR __Buffer$[ebp]
	push	edx
	call	_vsprintf_s
	add	esp, 16					; 00000010H
	pop	edi
	pop	esi
	pop	ebx
	mov	esp, ebp
	pop	ebp
	ret	0
??$sprintf_s@$0CA@@@YAHAAY0CA@DPBDZZ ENDP		; sprintf_s<32>
_TEXT	ENDS
; Function compile flags: /Odtp /ZI
; File d:\!diffusion 2020\source code 2022\client-server\client\menu.cpp
;	COMDAT ?__MsgFunc_ShowMenu@@YAHPBDHPAX@Z
_TEXT	SEGMENT
_pszName$ = 8						; size = 4
_iSize$ = 12						; size = 4
_pbuf$ = 16						; size = 4
?__MsgFunc_ShowMenu@@YAHPBDHPAX@Z PROC			; __MsgFunc_ShowMenu, COMDAT

; 29   : DECLARE_MESSAGE( m_Menu, ShowMenu );

	push	ebp
	mov	ebp, esp
	sub	esp, 64					; 00000040H
	push	ebx
	push	esi
	push	edi
	mov	eax, DWORD PTR _pbuf$[ebp]
	push	eax
	mov	ecx, DWORD PTR _iSize$[ebp]
	push	ecx
	mov	edx, DWORD PTR _pszName$[ebp]
	push	edx
	mov	ecx, OFFSET ?gHUD@@3VCHud@@A+1400
	call	?MsgFunc_ShowMenu@CHudMenu@@QAEHPBDHPAX@Z ; CHudMenu::MsgFunc_ShowMenu
	pop	edi
	pop	esi
	pop	ebx
	mov	esp, ebp
	pop	ebp
	ret	0
?__MsgFunc_ShowMenu@@YAHPBDHPAX@Z ENDP			; __MsgFunc_ShowMenu
_TEXT	ENDS
; Function compile flags: /Odtp /ZI
; File d:\!diffusion 2020\source code 2022\client-server\client\menu.cpp
;	COMDAT ?SelectMenuItem@CHudMenu@@QAEXH@Z
_TEXT	SEGMENT
_szbuf$1 = -40						; size = 32
_this$ = -8						; size = 4
__$ArrayPad$ = -4					; size = 4
_menu_item$ = 8						; size = 4
?SelectMenuItem@CHudMenu@@QAEXH@Z PROC			; CHudMenu::SelectMenuItem, COMDAT
; _this$ = ecx

; 111  : {

	push	ebp
	mov	ebp, esp
	sub	esp, 104				; 00000068H
	mov	eax, DWORD PTR ___security_cookie
	xor	eax, ebp
	mov	DWORD PTR __$ArrayPad$[ebp], eax
	push	ebx
	push	esi
	push	edi
	mov	DWORD PTR _this$[ebp], ecx

; 112  : 	// if menu_item is in a valid slot,  send a menuselect command to the server
; 113  : 	if(( menu_item > 0 ) && ( m_bitsValidSlots & (1 << ( menu_item - 1 ))))

	cmp	DWORD PTR _menu_item$[ebp], 0
	jle	SHORT $LN1@SelectMenu
	mov	ecx, DWORD PTR _menu_item$[ebp]
	sub	ecx, 1
	mov	eax, 1
	shl	eax, cl
	mov	ecx, DWORD PTR _this$[ebp]
	and	eax, DWORD PTR [ecx+12]
	je	SHORT $LN1@SelectMenu

; 114  : 	{
; 115  : 		char szbuf[32];
; 116  : 		sprintf_s( szbuf, "menuselect %d\n", menu_item );

	mov	eax, DWORD PTR _menu_item$[ebp]
	push	eax
	push	OFFSET ??_C@_0P@GNDNMPMB@menuselect?5?$CFd?6?$AA@
	lea	ecx, DWORD PTR _szbuf$1[ebp]
	push	ecx
	call	??$sprintf_s@$0CA@@@YAHAAY0CA@DPBDZZ	; sprintf_s<32>
	add	esp, 12					; 0000000cH

; 117  : 		ClientCmd( szbuf );

	lea	eax, DWORD PTR _szbuf$1[ebp]
	push	eax
	call	DWORD PTR ?gEngfuncs@@3Ucl_enginefuncs_s@@A+80
	add	esp, 4

; 118  : 
; 119  : 		// remove the menu
; 120  : 		m_fMenuDisplayed = 0;

	mov	eax, DWORD PTR _this$[ebp]
	mov	DWORD PTR [eax+8], 0

; 121  : 		m_iFlags &= ~HUD_ACTIVE;

	mov	eax, DWORD PTR _this$[ebp]
	mov	ecx, DWORD PTR [eax+4]
	and	ecx, -2					; fffffffeH
	mov	edx, DWORD PTR _this$[ebp]
	mov	DWORD PTR [edx+4], ecx
$LN1@SelectMenu:

; 122  : 	}
; 123  : }

	pop	edi
	pop	esi
	pop	ebx
	mov	ecx, DWORD PTR __$ArrayPad$[ebp]
	xor	ecx, ebp
	call	@__security_check_cookie@4
	mov	esp, ebp
	pop	ebp
	ret	4
?SelectMenuItem@CHudMenu@@QAEXH@Z ENDP			; CHudMenu::SelectMenuItem
_TEXT	ENDS
; Function compile flags: /Odtp /ZI
; File d:\!diffusion 2020\source code 2022\client-server\client\menu.cpp
;	COMDAT ?MsgFunc_ShowMenu@CHudMenu@@QAEHPBDHPAX@Z
_TEXT	SEGMENT
$T1 = -84						; size = 4
_NeedMore$ = -16					; size = 4
_DisplayTime$ = -12					; size = 4
_temp$ = -8						; size = 4
_this$ = -4						; size = 4
_pszName$ = 8						; size = 4
_iSize$ = 12						; size = 4
_pbuf$ = 16						; size = 4
?MsgFunc_ShowMenu@CHudMenu@@QAEHPBDHPAX@Z PROC		; CHudMenu::MsgFunc_ShowMenu, COMDAT
; _this$ = ecx

; 134  : {

	push	ebp
	mov	ebp, esp
	sub	esp, 84					; 00000054H
	push	ebx
	push	esi
	push	edi
	mov	DWORD PTR _this$[ebp], ecx

; 135  : 	char *temp = NULL;

	mov	DWORD PTR _temp$[ebp], 0

; 136  : 
; 137  : 	BEGIN_READ( pszName, pbuf, iSize );

	mov	eax, DWORD PTR _iSize$[ebp]
	push	eax
	mov	ecx, DWORD PTR _pbuf$[ebp]
	push	ecx
	mov	edx, DWORD PTR _pszName$[ebp]
	push	edx
	call	?BEGIN_READ@@YAXPBDPAXH@Z		; BEGIN_READ
	add	esp, 12					; 0000000cH

; 138  : 
; 139  : 	m_bitsValidSlots = READ_SHORT();

	call	?READ_SHORT@@YAHXZ			; READ_SHORT
	mov	ecx, DWORD PTR _this$[ebp]
	mov	DWORD PTR [ecx+12], eax

; 140  : 	int DisplayTime = READ_CHAR();

	call	?READ_CHAR@@YAHXZ			; READ_CHAR
	mov	DWORD PTR _DisplayTime$[ebp], eax

; 141  : 	int NeedMore = READ_BYTE();

	call	?READ_BYTE@@YAHXZ			; READ_BYTE
	mov	DWORD PTR _NeedMore$[ebp], eax

; 142  : 
; 143  : 	if( DisplayTime > 0 )

	cmp	DWORD PTR _DisplayTime$[ebp], 0
	jle	SHORT $LN2@MsgFunc_Sh

; 144  : 		m_flShutoffTime = DisplayTime + gHUD.m_flTime;

	cvtsi2ss xmm0, DWORD PTR _DisplayTime$[ebp]
	addss	xmm0, DWORD PTR ?gHUD@@3VCHud@@A+32
	mov	eax, DWORD PTR _this$[ebp]
	movss	DWORD PTR [eax+16], xmm0

; 145  : 	else

	jmp	SHORT $LN3@MsgFunc_Sh
$LN2@MsgFunc_Sh:

; 146  : 		m_flShutoffTime = -1;

	mov	eax, DWORD PTR _this$[ebp]
	movss	xmm0, DWORD PTR __real@bf800000
	movss	DWORD PTR [eax+16], xmm0
$LN3@MsgFunc_Sh:

; 147  : 
; 148  : 	if( m_bitsValidSlots )

	mov	eax, DWORD PTR _this$[ebp]
	cmp	DWORD PTR [eax+12], 0
	je	$LN4@MsgFunc_Sh

; 149  : 	{
; 150  : 		if( !m_fWaitingForMore )

	mov	eax, DWORD PTR _this$[ebp]
	cmp	DWORD PTR [eax+20], 0
	jne	SHORT $LN6@MsgFunc_Sh

; 151  : 		{
; 152  : 			// this is the start of a new menu
; 153  : 			Q_strncpy( g_szPrelocalisedMenuString, READ_STRING(), MAX_MENU_STRING );

	push	512					; 00000200H
	call	?READ_STRING@@YAPADXZ			; READ_STRING
	push	eax
	push	OFFSET ?g_szPrelocalisedMenuString@@3PADA ; g_szPrelocalisedMenuString
	call	?Q_strncpy@@YAIPADPBDI@Z		; Q_strncpy
	add	esp, 12					; 0000000cH

; 154  : 		}
; 155  : 		else

	jmp	SHORT $LN7@MsgFunc_Sh
$LN6@MsgFunc_Sh:

; 156  : 		{
; 157  : 			// append to the current menu string
; 158  : 			Q_strncat( g_szPrelocalisedMenuString, READ_STRING(), MAX_MENU_STRING - Q_strlen( g_szPrelocalisedMenuString ));

	push	OFFSET ?g_szPrelocalisedMenuString@@3PADA ; g_szPrelocalisedMenuString
	call	?Q_strlen@@YAHPBD@Z			; Q_strlen
	add	esp, 4
	mov	ecx, 512				; 00000200H
	sub	ecx, eax
	push	ecx
	call	?READ_STRING@@YAPADXZ			; READ_STRING
	push	eax
	push	OFFSET ?g_szPrelocalisedMenuString@@3PADA ; g_szPrelocalisedMenuString
	call	?Q_strncat@@YAIPADPBDI@Z		; Q_strncat
	add	esp, 12					; 0000000cH
$LN7@MsgFunc_Sh:

; 159  : 		}
; 160  : 		g_szPrelocalisedMenuString[MAX_MENU_STRING-1] = 0;  // ensure null termination (strncat/strncpy does not)

	mov	eax, 1
	imul	ecx, eax, 511
	mov	DWORD PTR $T1[ebp], ecx
	cmp	DWORD PTR $T1[ebp], 512			; 00000200H
	jae	SHORT $LN11@MsgFunc_Sh
	jmp	SHORT $LN12@MsgFunc_Sh
$LN11@MsgFunc_Sh:
	call	___report_rangecheckfailure
$LN12@MsgFunc_Sh:
	mov	edx, DWORD PTR $T1[ebp]
	mov	BYTE PTR ?g_szPrelocalisedMenuString@@3PADA[edx], 0

; 161  : 
; 162  : 		if( !NeedMore )

	cmp	DWORD PTR _NeedMore$[ebp], 0
	jne	SHORT $LN9@MsgFunc_Sh

; 163  : 		{
; 164  : 			// we have the whole string, so we can localise it now
; 165  : 			Q_strcpy( g_szMenuString, gHUD.m_TextMessage.BufferedLocaliseTextString( g_szPrelocalisedMenuString ));

	push	99999					; 0001869fH
	push	OFFSET ?g_szPrelocalisedMenuString@@3PADA ; g_szPrelocalisedMenuString
	call	?BufferedLocaliseTextString@CHudTextMessage@@SAPADPBD@Z ; CHudTextMessage::BufferedLocaliseTextString
	add	esp, 4
	push	eax
	push	OFFSET ?g_szMenuString@@3PADA		; g_szMenuString
	call	?Q_strncpy@@YAIPADPBDI@Z		; Q_strncpy
	add	esp, 12					; 0000000cH

; 166  : 
; 167  : 			// Swap in characters
; 168  : 			if( KB_ConvertString( g_szMenuString, &temp ))

	lea	eax, DWORD PTR _temp$[ebp]
	push	eax
	push	OFFSET ?g_szMenuString@@3PADA		; g_szMenuString
	call	?KB_ConvertString@@YAHPADPAPAD@Z	; KB_ConvertString
	add	esp, 8
	test	eax, eax
	je	SHORT $LN9@MsgFunc_Sh

; 169  : 			{
; 170  : 				Q_strcpy( g_szMenuString, temp );

	push	99999					; 0001869fH
	mov	eax, DWORD PTR _temp$[ebp]
	push	eax
	push	OFFSET ?g_szMenuString@@3PADA		; g_szMenuString
	call	?Q_strncpy@@YAIPADPBDI@Z		; Q_strncpy
	add	esp, 12					; 0000000cH

; 171  : 				free( temp );

	mov	eax, DWORD PTR _temp$[ebp]
	push	eax
	call	_free
	add	esp, 4
$LN9@MsgFunc_Sh:

; 172  : 			}
; 173  : 		}
; 174  : 
; 175  : 		m_fMenuDisplayed = 1;

	mov	eax, DWORD PTR _this$[ebp]
	mov	DWORD PTR [eax+8], 1

; 176  : 		m_iFlags |= HUD_ACTIVE;

	mov	eax, DWORD PTR _this$[ebp]
	mov	ecx, DWORD PTR [eax+4]
	or	ecx, 1
	mov	edx, DWORD PTR _this$[ebp]
	mov	DWORD PTR [edx+4], ecx

; 177  : 	}
; 178  : 	else

	jmp	SHORT $LN5@MsgFunc_Sh
$LN4@MsgFunc_Sh:

; 179  : 	{
; 180  : 		m_fMenuDisplayed = 0; // no valid slots means that the menu should be turned off

	mov	eax, DWORD PTR _this$[ebp]
	mov	DWORD PTR [eax+8], 0

; 181  : 		m_iFlags &= ~HUD_ACTIVE;

	mov	eax, DWORD PTR _this$[ebp]
	mov	ecx, DWORD PTR [eax+4]
	and	ecx, -2					; fffffffeH
	mov	edx, DWORD PTR _this$[ebp]
	mov	DWORD PTR [edx+4], ecx
$LN5@MsgFunc_Sh:

; 182  : 	}
; 183  : 
; 184  : 	m_fWaitingForMore = NeedMore;

	mov	eax, DWORD PTR _this$[ebp]
	mov	ecx, DWORD PTR _NeedMore$[ebp]
	mov	DWORD PTR [eax+20], ecx

; 185  : 
; 186  : 	END_READ();

	call	?END_READ@@YAXXZ			; END_READ

; 187  : 
; 188  : 	return 1;

	mov	eax, 1
$LN1@MsgFunc_Sh:

; 189  : }

	pop	edi
	pop	esi
	pop	ebx
	mov	esp, ebp
	pop	ebp
	ret	12					; 0000000cH
?MsgFunc_ShowMenu@CHudMenu@@QAEHPBDHPAX@Z ENDP		; CHudMenu::MsgFunc_ShowMenu
_TEXT	ENDS
; Function compile flags: /Odtp /ZI
; File d:\!diffusion 2020\source code 2022\client-server\client\menu.cpp
;	COMDAT ?Draw@CHudMenu@@UAEHM@Z
_TEXT	SEGMENT
_x$ = -20						; size = 4
_y$ = -16						; size = 4
_i$ = -12						; size = 4
_nlc$ = -8						; size = 4
_this$ = -4						; size = 4
_flTime$ = 8						; size = 4
?Draw@CHudMenu@@UAEHM@Z PROC				; CHudMenu::Draw, COMDAT
; _this$ = ecx

; 61   : {

	push	ebp
	mov	ebp, esp
	sub	esp, 84					; 00000054H
	push	ebx
	push	esi
	push	edi
	mov	DWORD PTR _this$[ebp], ecx

; 62   : 	// check for if menu is set to disappear
; 63   : 	if( m_flShutoffTime > 0 )

	mov	eax, DWORD PTR _this$[ebp]
	movss	xmm0, DWORD PTR [eax+16]
	comiss	xmm0, DWORD PTR __real@00000000
	jbe	SHORT $LN10@Draw

; 64   : 	{
; 65   : 		if( m_flShutoffTime <= gHUD.m_flTime )

	mov	eax, DWORD PTR _this$[ebp]
	movss	xmm0, DWORD PTR ?gHUD@@3VCHud@@A+32
	comiss	xmm0, DWORD PTR [eax+16]
	jb	SHORT $LN10@Draw

; 66   : 		{
; 67   : 			// times up, shutoff
; 68   : 			m_fMenuDisplayed = 0;

	mov	eax, DWORD PTR _this$[ebp]
	mov	DWORD PTR [eax+8], 0

; 69   : 			m_iFlags &= ~HUD_ACTIVE;

	mov	eax, DWORD PTR _this$[ebp]
	mov	ecx, DWORD PTR [eax+4]
	and	ecx, -2					; fffffffeH
	mov	edx, DWORD PTR _this$[ebp]
	mov	DWORD PTR [edx+4], ecx

; 70   : 			return 1;

	mov	eax, 1
	jmp	$LN1@Draw
$LN10@Draw:

; 71   : 		}
; 72   : 	}
; 73   : 
; 74   : 	// don't draw the menu if the scoreboard is being shown
; 75   : 	if( gHUD.m_Scoreboard.m_iShowscoresHeld )

	cmp	DWORD PTR ?gHUD@@3VCHud@@A+796, 0
	je	SHORT $LN11@Draw

; 76   : 		return 1;

	mov	eax, 1
	jmp	$LN1@Draw
$LN11@Draw:

; 77   : 
; 78   : 	// draw the menu, along the left-hand side of the screen
; 79   : 
; 80   : 	// count the number of newlines
; 81   : 	int nlc = 0;

	mov	DWORD PTR _nlc$[ebp], 0

; 82   : 	int i;
; 83   : 	for( i = 0; i < MAX_MENU_STRING && g_szMenuString[i] != '\0'; i++ )

	mov	DWORD PTR _i$[ebp], 0
	jmp	SHORT $LN4@Draw
$LN2@Draw:
	mov	eax, DWORD PTR _i$[ebp]
	add	eax, 1
	mov	DWORD PTR _i$[ebp], eax
$LN4@Draw:
	cmp	DWORD PTR _i$[ebp], 512			; 00000200H
	jge	SHORT $LN3@Draw
	mov	eax, DWORD PTR _i$[ebp]
	movsx	ecx, BYTE PTR ?g_szMenuString@@3PADA[eax]
	test	ecx, ecx
	je	SHORT $LN3@Draw

; 84   : 	{
; 85   : 		if( g_szMenuString[i] == '\n' )

	mov	eax, DWORD PTR _i$[ebp]
	movsx	ecx, BYTE PTR ?g_szMenuString@@3PADA[eax]
	cmp	ecx, 10					; 0000000aH
	jne	SHORT $LN12@Draw

; 86   : 			nlc++;

	mov	eax, DWORD PTR _nlc$[ebp]
	add	eax, 1
	mov	DWORD PTR _nlc$[ebp], eax
$LN12@Draw:

; 87   : 	}

	jmp	SHORT $LN2@Draw
$LN3@Draw:

; 88   : 
; 89   : 	// center it
; 90   : 	int y = (ScreenHeight / 2) - ((nlc / 2) * 12) - 40; // make sure it is above the say text

	mov	eax, DWORD PTR ?gHUD@@3VCHud@@A+8440
	cdq
	sub	eax, edx
	mov	ecx, eax
	sar	ecx, 1
	mov	eax, DWORD PTR _nlc$[ebp]
	cdq
	sub	eax, edx
	sar	eax, 1
	imul	edx, eax, 12
	sub	ecx, edx
	sub	ecx, 40					; 00000028H
	mov	DWORD PTR _y$[ebp], ecx

; 91   : 	int x = 20;

	mov	DWORD PTR _x$[ebp], 20			; 00000014H

; 92   : 
; 93   : 	i = 0;

	mov	DWORD PTR _i$[ebp], 0
$LN5@Draw:

; 94   : 	while( i < MAX_MENU_STRING && g_szMenuString[i] != '\0' )

	cmp	DWORD PTR _i$[ebp], 512			; 00000200H
	jge	$LN6@Draw
	mov	eax, DWORD PTR _i$[ebp]
	movsx	ecx, BYTE PTR ?g_szMenuString@@3PADA[eax]
	test	ecx, ecx
	je	$LN6@Draw

; 95   : 	{
; 96   : 		gHUD.DrawHudString( x, y, 320, g_szMenuString + i, 255, 255, 255 );

	push	255					; 000000ffH
	push	255					; 000000ffH
	push	255					; 000000ffH
	mov	eax, DWORD PTR _i$[ebp]
	add	eax, OFFSET ?g_szMenuString@@3PADA	; g_szMenuString
	push	eax
	push	320					; 00000140H
	mov	ecx, DWORD PTR _y$[ebp]
	push	ecx
	mov	edx, DWORD PTR _x$[ebp]
	push	edx
	mov	ecx, OFFSET ?gHUD@@3VCHud@@A		; gHUD
	call	?DrawHudString@CHud@@QAEHHHHPADHHH@Z	; CHud::DrawHudString

; 97   : 		y += 12;

	mov	eax, DWORD PTR _y$[ebp]
	add	eax, 12					; 0000000cH
	mov	DWORD PTR _y$[ebp], eax
$LN7@Draw:

; 98   : 
; 99   : 		while( i < MAX_MENU_STRING && g_szMenuString[i] != '\0' && g_szMenuString[i] != '\n' )

	cmp	DWORD PTR _i$[ebp], 512			; 00000200H
	jge	SHORT $LN8@Draw
	mov	eax, DWORD PTR _i$[ebp]
	movsx	ecx, BYTE PTR ?g_szMenuString@@3PADA[eax]
	test	ecx, ecx
	je	SHORT $LN8@Draw
	mov	eax, DWORD PTR _i$[ebp]
	movsx	ecx, BYTE PTR ?g_szMenuString@@3PADA[eax]
	cmp	ecx, 10					; 0000000aH
	je	SHORT $LN8@Draw

; 100  : 			i++;

	mov	eax, DWORD PTR _i$[ebp]
	add	eax, 1
	mov	DWORD PTR _i$[ebp], eax
	jmp	SHORT $LN7@Draw
$LN8@Draw:

; 101  : 
; 102  : 		if( g_szMenuString[i] == '\n' )

	mov	eax, DWORD PTR _i$[ebp]
	movsx	ecx, BYTE PTR ?g_szMenuString@@3PADA[eax]
	cmp	ecx, 10					; 0000000aH
	jne	SHORT $LN13@Draw

; 103  : 			i++;

	mov	eax, DWORD PTR _i$[ebp]
	add	eax, 1
	mov	DWORD PTR _i$[ebp], eax
$LN13@Draw:

; 104  : 	}

	jmp	$LN5@Draw
$LN6@Draw:

; 105  : 	
; 106  : 	return 1;

	mov	eax, 1
$LN1@Draw:

; 107  : }

	pop	edi
	pop	esi
	pop	ebx
	mov	esp, ebp
	pop	ebp
	ret	4
?Draw@CHudMenu@@UAEHM@Z ENDP				; CHudMenu::Draw
_TEXT	ENDS
; Function compile flags: /Odtp /ZI
; File d:\!diffusion 2020\source code 2022\client-server\client\menu.cpp
;	COMDAT ?Reset@CHudMenu@@UAEXXZ
_TEXT	SEGMENT
$T1 = -72						; size = 4
_this$ = -4						; size = 4
?Reset@CHudMenu@@UAEXXZ PROC				; CHudMenu::Reset, COMDAT
; _this$ = ecx

; 50   : {

	push	ebp
	mov	ebp, esp
	sub	esp, 72					; 00000048H
	push	ebx
	push	esi
	push	edi
	mov	DWORD PTR _this$[ebp], ecx

; 51   : 	g_szPrelocalisedMenuString[0] = 0;

	mov	eax, 1
	imul	ecx, eax, 0
	mov	DWORD PTR $T1[ebp], ecx
	cmp	DWORD PTR $T1[ebp], 512			; 00000200H
	jae	SHORT $LN3@Reset
	jmp	SHORT $LN4@Reset
$LN3@Reset:
	call	___report_rangecheckfailure
$LN4@Reset:
	mov	edx, DWORD PTR $T1[ebp]
	mov	BYTE PTR ?g_szPrelocalisedMenuString@@3PADA[edx], 0

; 52   : 	m_fWaitingForMore = FALSE;

	mov	eax, DWORD PTR _this$[ebp]
	mov	DWORD PTR [eax+20], 0
$LN2@Reset:

; 53   : }

	pop	edi
	pop	esi
	pop	ebx
	mov	esp, ebp
	pop	ebp
	ret	0
?Reset@CHudMenu@@UAEXXZ ENDP				; CHudMenu::Reset
_TEXT	ENDS
; Function compile flags: /Odtp /ZI
; File d:\!diffusion 2020\source code 2022\client-server\client\menu.cpp
;	COMDAT ?VidInit@CHudMenu@@UAEHXZ
_TEXT	SEGMENT
_this$ = -4						; size = 4
?VidInit@CHudMenu@@UAEHXZ PROC				; CHudMenu::VidInit, COMDAT
; _this$ = ecx

; 56   : {

	push	ebp
	mov	ebp, esp
	sub	esp, 68					; 00000044H
	push	ebx
	push	esi
	push	edi
	mov	DWORD PTR _this$[ebp], ecx

; 57   : 	return 1;

	mov	eax, 1

; 58   : }

	pop	edi
	pop	esi
	pop	ebx
	mov	esp, ebp
	pop	ebp
	ret	0
?VidInit@CHudMenu@@UAEHXZ ENDP				; CHudMenu::VidInit
_TEXT	ENDS
; Function compile flags: /Odtp /ZI
; File d:\!diffusion 2020\source code 2022\client-server\client\menu.cpp
;	COMDAT ?InitHUDData@CHudMenu@@UAEXXZ
_TEXT	SEGMENT
_this$ = -4						; size = 4
?InitHUDData@CHudMenu@@UAEXXZ PROC			; CHudMenu::InitHUDData, COMDAT
; _this$ = ecx

; 43   : {

	push	ebp
	mov	ebp, esp
	sub	esp, 68					; 00000044H
	push	ebx
	push	esi
	push	edi
	mov	DWORD PTR _this$[ebp], ecx

; 44   : 	m_fMenuDisplayed = 0;

	mov	eax, DWORD PTR _this$[ebp]
	mov	DWORD PTR [eax+8], 0

; 45   : 	m_bitsValidSlots = 0;

	mov	eax, DWORD PTR _this$[ebp]
	mov	DWORD PTR [eax+12], 0

; 46   : 	Reset();

	mov	eax, DWORD PTR _this$[ebp]
	mov	edx, DWORD PTR [eax]
	mov	ecx, DWORD PTR _this$[ebp]
	mov	eax, DWORD PTR [edx+20]
	call	eax

; 47   : }

	pop	edi
	pop	esi
	pop	ebx
	mov	esp, ebp
	pop	ebp
	ret	0
?InitHUDData@CHudMenu@@UAEXXZ ENDP			; CHudMenu::InitHUDData
_TEXT	ENDS
; Function compile flags: /Odtp /ZI
; File d:\!diffusion 2020\source code 2022\client-server\client\menu.cpp
;	COMDAT ?Init@CHudMenu@@UAEHXZ
_TEXT	SEGMENT
_this$ = -4						; size = 4
?Init@CHudMenu@@UAEHXZ PROC				; CHudMenu::Init, COMDAT
; _this$ = ecx

; 32   : {

	push	ebp
	mov	ebp, esp
	sub	esp, 68					; 00000044H
	push	ebx
	push	esi
	push	edi
	mov	DWORD PTR _this$[ebp], ecx

; 33   : 	gHUD.AddHudElem( this );

	mov	eax, DWORD PTR _this$[ebp]
	push	eax
	mov	ecx, OFFSET ?gHUD@@3VCHud@@A		; gHUD
	call	?AddHudElem@CHud@@QAEXPAVCHudBase@@@Z	; CHud::AddHudElem

; 34   : 
; 35   : 	HOOK_MESSAGE( ShowMenu );

	push	OFFSET ?__MsgFunc_ShowMenu@@YAHPBDHPAX@Z ; __MsgFunc_ShowMenu
	push	OFFSET ??_C@_08IGGENMMJ@ShowMenu?$AA@
	call	DWORD PTR ?gEngfuncs@@3Ucl_enginefuncs_s@@A+72
	add	esp, 8

; 36   : 
; 37   : 	InitHUDData();

	mov	eax, DWORD PTR _this$[ebp]
	mov	edx, DWORD PTR [eax]
	mov	ecx, DWORD PTR _this$[ebp]
	mov	eax, DWORD PTR [edx+24]
	call	eax

; 38   : 
; 39   : 	return 1;

	mov	eax, 1

; 40   : }

	pop	edi
	pop	esi
	pop	ebx
	mov	esp, ebp
	pop	ebp
	ret	0
?Init@CHudMenu@@UAEHXZ ENDP				; CHudMenu::Init
_TEXT	ENDS
; Function compile flags: /Odtp /ZI
; File c:\program files (x86)\windows kits\10\include\10.0.10240.0\ucrt\stdio.h
;	COMDAT _vsprintf_s
_TEXT	SEGMENT
__Buffer$ = 8						; size = 4
__BufferCount$ = 12					; size = 4
__Format$ = 16						; size = 4
__ArgList$ = 20						; size = 4
_vsprintf_s PROC					; COMDAT

; 1515 :     {

	push	ebp
	mov	ebp, esp
	sub	esp, 64					; 00000040H
	push	ebx
	push	esi
	push	edi

; 1516 :         return _vsprintf_s_l(_Buffer, _BufferCount, _Format, NULL, _ArgList);

	mov	eax, DWORD PTR __ArgList$[ebp]
	push	eax
	push	0
	mov	ecx, DWORD PTR __Format$[ebp]
	push	ecx
	mov	edx, DWORD PTR __BufferCount$[ebp]
	push	edx
	mov	eax, DWORD PTR __Buffer$[ebp]
	push	eax
	call	__vsprintf_s_l
	add	esp, 20					; 00000014H

; 1517 :     }

	pop	edi
	pop	esi
	pop	ebx
	mov	esp, ebp
	pop	ebp
	ret	0
_vsprintf_s ENDP
_TEXT	ENDS
; Function compile flags: /Odtp /ZI
; File c:\program files (x86)\windows kits\10\include\10.0.10240.0\ucrt\stdio.h
;	COMDAT __vsprintf_s_l
_TEXT	SEGMENT
tv73 = -72						; size = 4
__Result$ = -4						; size = 4
__Buffer$ = 8						; size = 4
__BufferCount$ = 12					; size = 4
__Format$ = 16						; size = 4
__Locale$ = 20						; size = 4
__ArgList$ = 24						; size = 4
__vsprintf_s_l PROC					; COMDAT

; 1493 : {

	push	ebp
	mov	ebp, esp
	sub	esp, 72					; 00000048H
	push	ebx
	push	esi
	push	edi

; 1494 :     int const _Result = __stdio_common_vsprintf_s(

	mov	eax, DWORD PTR __ArgList$[ebp]
	push	eax
	mov	ecx, DWORD PTR __Locale$[ebp]
	push	ecx
	mov	edx, DWORD PTR __Format$[ebp]
	push	edx
	mov	eax, DWORD PTR __BufferCount$[ebp]
	push	eax
	mov	ecx, DWORD PTR __Buffer$[ebp]
	push	ecx
	call	___local_stdio_printf_options
	mov	edx, DWORD PTR [eax+4]
	push	edx
	mov	eax, DWORD PTR [eax]
	push	eax
	call	___stdio_common_vsprintf_s
	add	esp, 28					; 0000001cH
	mov	DWORD PTR __Result$[ebp], eax

; 1495 :         _CRT_INTERNAL_LOCAL_PRINTF_OPTIONS,
; 1496 :         _Buffer, _BufferCount, _Format, _Locale, _ArgList);
; 1497 : 
; 1498 :     return _Result < 0 ? -1 : _Result;

	cmp	DWORD PTR __Result$[ebp], 0
	jge	SHORT $LN3@vsprintf_s
	mov	DWORD PTR tv73[ebp], -1
	jmp	SHORT $LN4@vsprintf_s
$LN3@vsprintf_s:
	mov	eax, DWORD PTR __Result$[ebp]
	mov	DWORD PTR tv73[ebp], eax
$LN4@vsprintf_s:
	mov	eax, DWORD PTR tv73[ebp]

; 1499 : }

	pop	edi
	pop	esi
	pop	ebx
	mov	esp, ebp
	pop	ebp
	ret	0
__vsprintf_s_l ENDP
_TEXT	ENDS
; Function compile flags: /Odtp /ZI
; File c:\program files (x86)\windows kits\10\include\10.0.10240.0\ucrt\corecrt_stdio_config.h
;	COMDAT ___local_stdio_printf_options
_TEXT	SEGMENT
___local_stdio_printf_options PROC			; COMDAT

; 73   : {

	push	ebp
	mov	ebp, esp
	sub	esp, 64					; 00000040H
	push	ebx
	push	esi
	push	edi

; 74   :     static unsigned __int64 _OptionsStorage;
; 75   :     return &_OptionsStorage;

	mov	eax, OFFSET ?_OptionsStorage@?1??__local_stdio_printf_options@@9@4_KA ; `__local_stdio_printf_options'::`2'::_OptionsStorage

; 76   : }

	pop	edi
	pop	esi
	pop	ebx
	mov	esp, ebp
	pop	ebp
	ret	0
___local_stdio_printf_options ENDP
_TEXT	ENDS
; Function compile flags: /Odtp /ZI
;	COMDAT ??__G@YGXPAX0IIP6EPAX00@Z@Z
_TEXT	SEGMENT
tv66 = -68						; size = 4
___t$ = 8						; size = 4
___u$ = 12						; size = 4
___s$ = 16						; size = 4
___n$ = 20						; size = 4
___f$ = 24						; size = 4
??__G@YGXPAX0IIP6EPAX00@Z@Z PROC			; `vector copy constructor iterator', COMDAT
	push	ebp
	mov	ebp, esp
	sub	esp, 68					; 00000044H
	push	ebx
	push	esi
	push	edi
$LN2@vector:
	mov	eax, DWORD PTR ___n$[ebp]
	mov	DWORD PTR tv66[ebp], eax
	mov	ecx, DWORD PTR ___n$[ebp]
	sub	ecx, 1
	mov	DWORD PTR ___n$[ebp], ecx
	cmp	DWORD PTR tv66[ebp], 0
	jbe	SHORT $LN1@vector
	mov	eax, DWORD PTR ___u$[ebp]
	push	eax
	mov	ecx, DWORD PTR ___t$[ebp]
	call	DWORD PTR ___f$[ebp]
	mov	eax, DWORD PTR ___t$[ebp]
	add	eax, DWORD PTR ___s$[ebp]
	mov	DWORD PTR ___t$[ebp], eax
	mov	eax, DWORD PTR ___u$[ebp]
	add	eax, DWORD PTR ___s$[ebp]
	mov	DWORD PTR ___u$[ebp], eax
	jmp	SHORT $LN2@vector
$LN1@vector:
	pop	edi
	pop	esi
	pop	ebx
	mov	esp, ebp
	pop	ebp
	ret	20					; 00000014H
??__G@YGXPAX0IIP6EPAX00@Z@Z ENDP			; `vector copy constructor iterator'
_TEXT	ENDS
; Function compile flags: /Odtp /ZI
;	COMDAT ??_H@YGXPAXIIP6EPAX0@Z@Z
_TEXT	SEGMENT
tv66 = -68						; size = 4
___t$ = 8						; size = 4
___s$ = 12						; size = 4
___n$ = 16						; size = 4
___f$ = 20						; size = 4
??_H@YGXPAXIIP6EPAX0@Z@Z PROC				; `vector constructor iterator', COMDAT
	push	ebp
	mov	ebp, esp
	sub	esp, 68					; 00000044H
	push	ebx
	push	esi
	push	edi
$LN2@vector:
	mov	eax, DWORD PTR ___n$[ebp]
	mov	DWORD PTR tv66[ebp], eax
	mov	ecx, DWORD PTR ___n$[ebp]
	sub	ecx, 1
	mov	DWORD PTR ___n$[ebp], ecx
	cmp	DWORD PTR tv66[ebp], 0
	jbe	SHORT $LN1@vector
	mov	ecx, DWORD PTR ___t$[ebp]
	call	DWORD PTR ___f$[ebp]
	mov	eax, DWORD PTR ___t$[ebp]
	add	eax, DWORD PTR ___s$[ebp]
	mov	DWORD PTR ___t$[ebp], eax
	jmp	SHORT $LN2@vector
$LN1@vector:
	pop	edi
	pop	esi
	pop	ebx
	mov	esp, ebp
	pop	ebp
	ret	16					; 00000010H
??_H@YGXPAXIIP6EPAX0@Z@Z ENDP				; `vector constructor iterator'
_TEXT	ENDS
END
