; Listing generated by Microsoft (R) Optimizing Compiler Version 19.00.24247.2 

	TITLE	D:\!DIFFUSION 2020\source code 2022\client-server\client\message.cpp
	.686P
	.XMM
	include listing.inc
	.model	flat

INCLUDELIB LIBCMT
INCLUDELIB OLDNAMES

PUBLIC	?g_pCustomMessage@@3Uclient_textmessage_s@@A	; g_pCustomMessage
PUBLIC	?g_pCustomName@@3PADA				; g_pCustomName
PUBLIC	??_C@_06IFGIOHDE@Custom?$AA@			; `string'
PUBLIC	?g_pCustomText@@3PADA				; g_pCustomText
_BSS	SEGMENT
?g_pCustomMessage@@3Uclient_textmessage_s@@A DB 02cH DUP (?) ; g_pCustomMessage
?g_pCustomText@@3PADA DB 0400H DUP (?)			; g_pCustomText
_BSS	ENDS
;	COMDAT ??_C@_06IFGIOHDE@Custom?$AA@
CONST	SEGMENT
??_C@_06IFGIOHDE@Custom?$AA@ DB 'Custom', 00H		; `string'
CONST	ENDS
_DATA	SEGMENT
?g_pCustomName@@3PADA DD FLAT:??_C@_06IFGIOHDE@Custom?$AA@ ; g_pCustomName
_DATA	ENDS
PUBLIC	??_H@YGXPAXIIP6EPAX0@Z@Z			; `vector constructor iterator'
PUBLIC	??__G@YGXPAX0IIP6EPAX00@Z@Z			; `vector copy constructor iterator'
PUBLIC	?Init@CHudMessage@@UAEHXZ			; CHudMessage::Init
PUBLIC	?VidInit@CHudMessage@@UAEHXZ			; CHudMessage::VidInit
PUBLIC	?Draw@CHudMessage@@UAEHM@Z			; CHudMessage::Draw
PUBLIC	?MsgFunc_HudText@CHudMessage@@QAEHPBDHPAX@Z	; CHudMessage::MsgFunc_HudText
PUBLIC	?MsgFunc_GameTitle@CHudMessage@@QAEHPBDHPAX@Z	; CHudMessage::MsgFunc_GameTitle
PUBLIC	?FadeBlend@CHudMessage@@QAEMMMMM@Z		; CHudMessage::FadeBlend
PUBLIC	?XPosition@CHudMessage@@QAEHMHH@Z		; CHudMessage::XPosition
PUBLIC	?YPosition@CHudMessage@@QAEHMH@Z		; CHudMessage::YPosition
PUBLIC	?MessageAdd@CHudMessage@@QAEXPBDM@Z		; CHudMessage::MessageAdd
PUBLIC	?MessageAdd@CHudMessage@@QAEXPAUclient_textmessage_s@@@Z ; CHudMessage::MessageAdd
PUBLIC	?MessageDrawScan@CHudMessage@@QAEXPAUclient_textmessage_s@@M@Z ; CHudMessage::MessageDrawScan
PUBLIC	?MessageScanStart@CHudMessage@@QAEXXZ		; CHudMessage::MessageScanStart
PUBLIC	?MessageScanNextChar@CHudMessage@@QAEXXZ	; CHudMessage::MessageScanNextChar
PUBLIC	?Reset@CHudMessage@@UAEXXZ			; CHudMessage::Reset
PUBLIC	?GetSprite@CHud@@QAEHH@Z			; CHud::GetSprite
PUBLIC	?GetSpriteRect@CHud@@QAEAAUwrect_s@@H@Z		; CHud::GetSpriteRect
PUBLIC	?__MsgFunc_HudText@@YAHPBDHPAX@Z		; __MsgFunc_HudText
PUBLIC	?__MsgFunc_GameTitle@@YAHPBDHPAX@Z		; __MsgFunc_GameTitle
PUBLIC	??$strcpy_s@$0EAA@@@YAHAAY0EAA@DPBD@Z		; strcpy_s<1024>
PUBLIC	??_C@_07JNEKKACO@HudText?$AA@			; `string'
PUBLIC	??_C@_09HEMANCP@GameTitle?$AA@			; `string'
PUBLIC	??_C@_0L@KBJOOMBK@title_half?$AA@		; `string'
PUBLIC	??_C@_0L@LHBALECA@title_life?$AA@		; `string'
PUBLIC	??_C@_09OOPKIPAC@GAMESAVED?$AA@			; `string'
PUBLIC	??_C@_09HPEMDGDO@GAMETITLE?$AA@			; `string'
PUBLIC	__real@00000000
PUBLIC	__real@3c23d70a
PUBLIC	__real@3e4ccccd
PUBLIC	__real@3e800000
PUBLIC	__real@3f000000
PUBLIC	__real@3f1a36e2e0000000
PUBLIC	__real@3f333333
PUBLIC	__real@3f800000
PUBLIC	__real@3fc00000
PUBLIC	__real@3fe0000000000000
PUBLIC	__real@3ff0000000000000
PUBLIC	__real@406fe00000000000
PUBLIC	__real@40a00000
PUBLIC	__real@437f0000
PUBLIC	__real@bf800000
PUBLIC	__xmm@41f00000000000000000000000000000
EXTRN	___report_rangecheckfailure:PROC
EXTRN	_memset:PROC
EXTRN	_strcpy_s:PROC
EXTRN	_strlen:PROC
EXTRN	_stricmp:PROC
EXTRN	_rand:PROC
EXTRN	_fabs:PROC
EXTRN	?GetSpriteIndex@CHud@@QAEHPBD@Z:PROC		; CHud::GetSpriteIndex
EXTRN	?AddHudElem@CHud@@QAEXPAVCHudBase@@@Z:PROC	; CHud::AddHudElem
EXTRN	?BEGIN_READ@@YAXPBDPAXH@Z:PROC			; BEGIN_READ
EXTRN	?END_READ@@YAXXZ:PROC				; END_READ
EXTRN	?READ_STRING@@YAPADXZ:PROC			; READ_STRING
EXTRN	@__security_check_cookie@4:PROC
EXTRN	?gEngfuncs@@3Ucl_enginefuncs_s@@A:BYTE		; gEngfuncs
EXTRN	?gHUD@@3VCHud@@A:BYTE				; gHUD
EXTRN	?tr@@3Uref_globals_t@@A:BYTE			; tr
EXTRN	___security_cookie:DWORD
EXTRN	__fltused:DWORD
;	COMDAT __xmm@41f00000000000000000000000000000
CONST	SEGMENT
__xmm@41f00000000000000000000000000000 DB 00H, 00H, 00H, 00H, 00H, 00H, 00H
	DB	00H, 00H, 00H, 00H, 00H, 00H, 00H, 0f0H, 'A'
CONST	ENDS
;	COMDAT __real@bf800000
CONST	SEGMENT
__real@bf800000 DD 0bf800000r			; -1
CONST	ENDS
;	COMDAT __real@437f0000
CONST	SEGMENT
__real@437f0000 DD 0437f0000r			; 255
CONST	ENDS
;	COMDAT __real@40a00000
CONST	SEGMENT
__real@40a00000 DD 040a00000r			; 5
CONST	ENDS
;	COMDAT __real@406fe00000000000
CONST	SEGMENT
__real@406fe00000000000 DQ 0406fe00000000000r	; 255
CONST	ENDS
;	COMDAT __real@3ff0000000000000
CONST	SEGMENT
__real@3ff0000000000000 DQ 03ff0000000000000r	; 1
CONST	ENDS
;	COMDAT __real@3fe0000000000000
CONST	SEGMENT
__real@3fe0000000000000 DQ 03fe0000000000000r	; 0.5
CONST	ENDS
;	COMDAT __real@3fc00000
CONST	SEGMENT
__real@3fc00000 DD 03fc00000r			; 1.5
CONST	ENDS
;	COMDAT __real@3f800000
CONST	SEGMENT
__real@3f800000 DD 03f800000r			; 1
CONST	ENDS
;	COMDAT __real@3f333333
CONST	SEGMENT
__real@3f333333 DD 03f333333r			; 0.7
CONST	ENDS
;	COMDAT __real@3f1a36e2e0000000
CONST	SEGMENT
__real@3f1a36e2e0000000 DQ 03f1a36e2e0000000r	; 0.0001
CONST	ENDS
;	COMDAT __real@3f000000
CONST	SEGMENT
__real@3f000000 DD 03f000000r			; 0.5
CONST	ENDS
;	COMDAT __real@3e800000
CONST	SEGMENT
__real@3e800000 DD 03e800000r			; 0.25
CONST	ENDS
;	COMDAT __real@3e4ccccd
CONST	SEGMENT
__real@3e4ccccd DD 03e4ccccdr			; 0.2
CONST	ENDS
;	COMDAT __real@3c23d70a
CONST	SEGMENT
__real@3c23d70a DD 03c23d70ar			; 0.01
CONST	ENDS
;	COMDAT __real@00000000
CONST	SEGMENT
__real@00000000 DD 000000000r			; 0
CONST	ENDS
;	COMDAT ??_C@_09HPEMDGDO@GAMETITLE?$AA@
CONST	SEGMENT
??_C@_09HPEMDGDO@GAMETITLE?$AA@ DB 'GAMETITLE', 00H	; `string'
CONST	ENDS
;	COMDAT ??_C@_09OOPKIPAC@GAMESAVED?$AA@
CONST	SEGMENT
??_C@_09OOPKIPAC@GAMESAVED?$AA@ DB 'GAMESAVED', 00H	; `string'
CONST	ENDS
;	COMDAT ??_C@_0L@LHBALECA@title_life?$AA@
CONST	SEGMENT
??_C@_0L@LHBALECA@title_life?$AA@ DB 'title_life', 00H	; `string'
CONST	ENDS
;	COMDAT ??_C@_0L@KBJOOMBK@title_half?$AA@
CONST	SEGMENT
??_C@_0L@KBJOOMBK@title_half?$AA@ DB 'title_half', 00H	; `string'
CONST	ENDS
;	COMDAT ??_C@_09HEMANCP@GameTitle?$AA@
CONST	SEGMENT
??_C@_09HEMANCP@GameTitle?$AA@ DB 'GameTitle', 00H	; `string'
CONST	ENDS
;	COMDAT ??_C@_07JNEKKACO@HudText?$AA@
CONST	SEGMENT
??_C@_07JNEKKACO@HudText?$AA@ DB 'HudText', 00H		; `string'
CONST	ENDS
; Function compile flags: /Odtp /ZI
; File c:\program files (x86)\windows kits\10\include\10.0.10240.0\ucrt\string.h
;	COMDAT ??$strcpy_s@$0EAA@@@YAHAAY0EAA@DPBD@Z
_TEXT	SEGMENT
__Destination$ = 8					; size = 4
__Source$ = 12						; size = 4
??$strcpy_s@$0EAA@@@YAHAAY0EAA@DPBD@Z PROC		; strcpy_s<1024>, COMDAT

; 128  :     )

	push	ebp
	mov	ebp, esp
	sub	esp, 64					; 00000040H
	push	ebx
	push	esi
	push	edi

; 124  : __DEFINE_CPP_OVERLOAD_SECURE_FUNC_0_1(

	mov	eax, DWORD PTR __Source$[ebp]
	push	eax
	push	1024					; 00000400H
	mov	ecx, DWORD PTR __Destination$[ebp]
	push	ecx
	call	_strcpy_s
	add	esp, 12					; 0000000cH
	pop	edi
	pop	esi
	pop	ebx
	mov	esp, ebp
	pop	ebp
	ret	0
??$strcpy_s@$0EAA@@@YAHAAY0EAA@DPBD@Z ENDP		; strcpy_s<1024>
_TEXT	ENDS
; Function compile flags: /Odtp /ZI
; File d:\!diffusion 2020\source code 2022\client-server\client\message.cpp
;	COMDAT ?__MsgFunc_GameTitle@@YAHPBDHPAX@Z
_TEXT	SEGMENT
_pszName$ = 8						; size = 4
_iSize$ = 12						; size = 4
_pbuf$ = 16						; size = 4
?__MsgFunc_GameTitle@@YAHPBDHPAX@Z PROC			; __MsgFunc_GameTitle, COMDAT

; 28   : DECLARE_MESSAGE( m_Message, GameTitle )

	push	ebp
	mov	ebp, esp
	sub	esp, 64					; 00000040H
	push	ebx
	push	esi
	push	edi
	mov	eax, DWORD PTR _pbuf$[ebp]
	push	eax
	mov	ecx, DWORD PTR _iSize$[ebp]
	push	ecx
	mov	edx, DWORD PTR _pszName$[ebp]
	push	edx
	mov	ecx, OFFSET ?gHUD@@3VCHud@@A+552
	call	?MsgFunc_GameTitle@CHudMessage@@QAEHPBDHPAX@Z ; CHudMessage::MsgFunc_GameTitle
	pop	edi
	pop	esi
	pop	ebx
	mov	esp, ebp
	pop	ebp
	ret	0
?__MsgFunc_GameTitle@@YAHPBDHPAX@Z ENDP			; __MsgFunc_GameTitle
_TEXT	ENDS
; Function compile flags: /Odtp /ZI
; File d:\!diffusion 2020\source code 2022\client-server\client\message.cpp
;	COMDAT ?__MsgFunc_HudText@@YAHPBDHPAX@Z
_TEXT	SEGMENT
_pszName$ = 8						; size = 4
_iSize$ = 12						; size = 4
_pbuf$ = 16						; size = 4
?__MsgFunc_HudText@@YAHPBDHPAX@Z PROC			; __MsgFunc_HudText, COMDAT

; 27   : DECLARE_MESSAGE( m_Message, HudText )

	push	ebp
	mov	ebp, esp
	sub	esp, 64					; 00000040H
	push	ebx
	push	esi
	push	edi
	mov	eax, DWORD PTR _pbuf$[ebp]
	push	eax
	mov	ecx, DWORD PTR _iSize$[ebp]
	push	ecx
	mov	edx, DWORD PTR _pszName$[ebp]
	push	edx
	mov	ecx, OFFSET ?gHUD@@3VCHud@@A+552
	call	?MsgFunc_HudText@CHudMessage@@QAEHPBDHPAX@Z ; CHudMessage::MsgFunc_HudText
	pop	edi
	pop	esi
	pop	ebx
	mov	esp, ebp
	pop	ebp
	ret	0
?__MsgFunc_HudText@@YAHPBDHPAX@Z ENDP			; __MsgFunc_HudText
_TEXT	ENDS
; Function compile flags: /Odtp /ZI
; File d:\!diffusion 2020\source code 2022\client-server\client\hud.h
;	COMDAT ?GetSpriteRect@CHud@@QAEAAUwrect_s@@H@Z
_TEXT	SEGMENT
_this$ = -4						; size = 4
_index$ = 8						; size = 4
?GetSpriteRect@CHud@@QAEAAUwrect_s@@H@Z PROC		; CHud::GetSpriteRect, COMDAT
; _this$ = ecx

; 952  : 	wrect_t& GetSpriteRect( int index ) { return m_rgrcRects[index]; }

	push	ebp
	mov	ebp, esp
	sub	esp, 68					; 00000044H
	push	ebx
	push	esi
	push	edi
	mov	DWORD PTR _this$[ebp], ecx
	mov	eax, DWORD PTR _index$[ebp]
	shl	eax, 4
	mov	ecx, DWORD PTR _this$[ebp]
	add	eax, DWORD PTR [ecx+232]
	pop	edi
	pop	esi
	pop	ebx
	mov	esp, ebp
	pop	ebp
	ret	4
?GetSpriteRect@CHud@@QAEAAUwrect_s@@H@Z ENDP		; CHud::GetSpriteRect
_TEXT	ENDS
; Function compile flags: /Odtp /ZI
; File d:\!diffusion 2020\source code 2022\client-server\client\hud.h
;	COMDAT ?GetSprite@CHud@@QAEHH@Z
_TEXT	SEGMENT
tv68 = -72						; size = 4
_this$ = -4						; size = 4
_index$ = 8						; size = 4
?GetSprite@CHud@@QAEHH@Z PROC				; CHud::GetSprite, COMDAT
; _this$ = ecx

; 951  : 	SpriteHandle GetSprite( int index ) { return (index < 0) ? 0 : m_rghSprites[index]; }

	push	ebp
	mov	ebp, esp
	sub	esp, 72					; 00000048H
	push	ebx
	push	esi
	push	edi
	mov	DWORD PTR _this$[ebp], ecx
	cmp	DWORD PTR _index$[ebp], 0
	jge	SHORT $LN3@GetSprite
	mov	DWORD PTR tv68[ebp], 0
	jmp	SHORT $LN4@GetSprite
$LN3@GetSprite:
	mov	eax, DWORD PTR _this$[ebp]
	mov	ecx, DWORD PTR [eax+228]
	mov	edx, DWORD PTR _index$[ebp]
	mov	eax, DWORD PTR [ecx+edx*4]
	mov	DWORD PTR tv68[ebp], eax
$LN4@GetSprite:
	mov	eax, DWORD PTR tv68[ebp]
	pop	edi
	pop	esi
	pop	ebx
	mov	esp, ebp
	pop	ebp
	ret	4
?GetSprite@CHud@@QAEHH@Z ENDP				; CHud::GetSprite
_TEXT	ENDS
; Function compile flags: /Odtp /ZI
; File d:\!diffusion 2020\source code 2022\client-server\client\message.cpp
;	COMDAT ?Reset@CHudMessage@@UAEXXZ
_TEXT	SEGMENT
_this$ = -4						; size = 4
?Reset@CHudMessage@@UAEXXZ PROC				; CHudMessage::Reset, COMDAT
; _this$ = ecx

; 56   : {

	push	ebp
	mov	ebp, esp
	sub	esp, 68					; 00000044H
	push	ebx
	push	esi
	push	edi
	mov	DWORD PTR _this$[ebp], ecx

; 57   :  	memset( m_pMessages, 0, sizeof( m_pMessages ));

	push	64					; 00000040H
	push	0
	mov	eax, DWORD PTR _this$[ebp]
	add	eax, 8
	push	eax
	call	_memset
	add	esp, 12					; 0000000cH

; 58   : 	memset( m_startTime, 0, sizeof( m_startTime ));

	push	64					; 00000040H
	push	0
	mov	eax, DWORD PTR _this$[ebp]
	add	eax, 72					; 00000048H
	push	eax
	call	_memset
	add	esp, 12					; 0000000cH

; 59   : 	
; 60   : 	m_gameTitleTime = 0;

	mov	eax, DWORD PTR _this$[ebp]
	xorps	xmm0, xmm0
	movss	DWORD PTR [eax+204], xmm0

; 61   : 	m_pGameTitle = NULL;

	mov	eax, DWORD PTR _this$[ebp]
	mov	DWORD PTR [eax+208], 0

; 62   : }

	pop	edi
	pop	esi
	pop	ebx
	mov	esp, ebp
	pop	ebp
	ret	0
?Reset@CHudMessage@@UAEXXZ ENDP				; CHudMessage::Reset
_TEXT	ENDS
; Function compile flags: /Odtp /ZI
; File d:\!diffusion 2020\source code 2022\client-server\client\message.cpp
;	COMDAT ?MessageScanNextChar@CHudMessage@@QAEXXZ
_TEXT	SEGMENT
tv171 = -108						; size = 4
tv170 = -104						; size = 4
tv79 = -104						; size = 4
_deltaTime$1 = -36					; size = 4
_blend$ = -32						; size = 4
_destBlue$ = -28					; size = 4
_destGreen$ = -24					; size = 4
_destRed$ = -20						; size = 4
_srcBlue$ = -16						; size = 4
_srcGreen$ = -12					; size = 4
_srcRed$ = -8						; size = 4
_this$ = -4						; size = 4
?MessageScanNextChar@CHudMessage@@QAEXXZ PROC		; CHudMessage::MessageScanNextChar, COMDAT
; _this$ = ecx

; 140  : {

	push	ebp
	mov	ebp, esp
	sub	esp, 108				; 0000006cH
	push	ebx
	push	esi
	push	edi
	mov	DWORD PTR _this$[ebp], ecx

; 141  : 	int srcRed, srcGreen, srcBlue;
; 142  : 	int destRed, destGreen, destBlue;
; 143  : 	int blend;
; 144  : 
; 145  : 	srcRed = m_parms.pMessage->r1;

	mov	eax, DWORD PTR _this$[ebp]
	mov	ecx, DWORD PTR [eax+136]
	movzx	edx, BYTE PTR [ecx+4]
	mov	DWORD PTR _srcRed$[ebp], edx

; 146  : 	srcGreen = m_parms.pMessage->g1;

	mov	eax, DWORD PTR _this$[ebp]
	mov	ecx, DWORD PTR [eax+136]
	movzx	edx, BYTE PTR [ecx+5]
	mov	DWORD PTR _srcGreen$[ebp], edx

; 147  : 	srcBlue = m_parms.pMessage->b1;

	mov	eax, DWORD PTR _this$[ebp]
	mov	ecx, DWORD PTR [eax+136]
	movzx	edx, BYTE PTR [ecx+6]
	mov	DWORD PTR _srcBlue$[ebp], edx

; 148  : 	blend = 0; // pure source

	mov	DWORD PTR _blend$[ebp], 0

; 149  : 
; 150  : 	switch( m_parms.pMessage->effect )

	mov	eax, DWORD PTR _this$[ebp]
	mov	ecx, DWORD PTR [eax+136]
	mov	edx, DWORD PTR [ecx]
	mov	DWORD PTR tv79[ebp], edx
	cmp	DWORD PTR tv79[ebp], 0
	jl	$LN2@MessageSca
	cmp	DWORD PTR tv79[ebp], 1
	jle	SHORT $LN4@MessageSca
	cmp	DWORD PTR tv79[ebp], 2
	je	SHORT $LN5@MessageSca
	jmp	$LN2@MessageSca
$LN4@MessageSca:

; 151  : 	{
; 152  : 	case 0:
; 153  : 	case 1:	// Fade-in / Fade-out
; 154  : 		destRed = destGreen = destBlue = 0;

	mov	DWORD PTR _destBlue$[ebp], 0
	mov	eax, DWORD PTR _destBlue$[ebp]
	mov	DWORD PTR _destGreen$[ebp], eax
	mov	ecx, DWORD PTR _destGreen$[ebp]
	mov	DWORD PTR _destRed$[ebp], ecx

; 155  : 		blend = m_parms.fadeBlend;

	mov	eax, DWORD PTR _this$[ebp]
	mov	ecx, DWORD PTR [eax+192]
	mov	DWORD PTR _blend$[ebp], ecx

; 156  : 		break;

	jmp	$LN2@MessageSca
$LN5@MessageSca:

; 157  : 	case 2:
; 158  : 		m_parms.charTime += m_parms.pMessage->fadein;

	mov	eax, DWORD PTR _this$[ebp]
	mov	ecx, DWORD PTR [eax+136]
	mov	edx, DWORD PTR _this$[ebp]
	movss	xmm0, DWORD PTR [edx+196]
	addss	xmm0, DWORD PTR [ecx+20]
	mov	eax, DWORD PTR _this$[ebp]
	movss	DWORD PTR [eax+196], xmm0

; 159  : 		if( m_parms.charTime > m_parms.time )

	mov	eax, DWORD PTR _this$[ebp]
	mov	ecx, DWORD PTR _this$[ebp]
	movss	xmm0, DWORD PTR [eax+196]
	comiss	xmm0, DWORD PTR [ecx+140]
	jbe	SHORT $LN6@MessageSca

; 160  : 		{
; 161  : 			srcRed = srcGreen = srcBlue = 0;

	mov	DWORD PTR _srcBlue$[ebp], 0
	mov	eax, DWORD PTR _srcBlue$[ebp]
	mov	DWORD PTR _srcGreen$[ebp], eax
	mov	ecx, DWORD PTR _srcGreen$[ebp]
	mov	DWORD PTR _srcRed$[ebp], ecx

; 162  : 			blend = 0; // pure source

	mov	DWORD PTR _blend$[ebp], 0

; 163  : 		}
; 164  : 		else

	jmp	$LN11@MessageSca
$LN6@MessageSca:

; 165  : 		{
; 166  : 			float deltaTime = m_parms.time - m_parms.charTime;

	mov	eax, DWORD PTR _this$[ebp]
	mov	ecx, DWORD PTR _this$[ebp]
	movss	xmm0, DWORD PTR [eax+140]
	subss	xmm0, DWORD PTR [ecx+196]
	movss	DWORD PTR _deltaTime$1[ebp], xmm0

; 167  : 
; 168  : 			destRed = destGreen = destBlue = 0;

	mov	DWORD PTR _destBlue$[ebp], 0
	mov	eax, DWORD PTR _destBlue$[ebp]
	mov	DWORD PTR _destGreen$[ebp], eax
	mov	ecx, DWORD PTR _destGreen$[ebp]
	mov	DWORD PTR _destRed$[ebp], ecx

; 169  : 			if( m_parms.time > m_parms.fadeTime )

	mov	eax, DWORD PTR _this$[ebp]
	mov	ecx, DWORD PTR _this$[ebp]
	movss	xmm0, DWORD PTR [eax+140]
	comiss	xmm0, DWORD PTR [ecx+200]
	jbe	SHORT $LN8@MessageSca

; 170  : 			{
; 171  : 				blend = m_parms.fadeBlend;

	mov	eax, DWORD PTR _this$[ebp]
	mov	ecx, DWORD PTR [eax+192]
	mov	DWORD PTR _blend$[ebp], ecx
	jmp	$LN11@MessageSca
$LN8@MessageSca:

; 172  : 			}
; 173  : 			else if( deltaTime > m_parms.pMessage->fxtime )

	mov	eax, DWORD PTR _this$[ebp]
	mov	ecx, DWORD PTR [eax+136]
	movss	xmm0, DWORD PTR _deltaTime$1[ebp]
	comiss	xmm0, DWORD PTR [ecx+32]
	jbe	SHORT $LN10@MessageSca

; 174  : 			{
; 175  : 				blend = 0; // pure dest

	mov	DWORD PTR _blend$[ebp], 0

; 176  : 			}
; 177  : 			else

	jmp	SHORT $LN11@MessageSca
$LN10@MessageSca:

; 178  : 			{
; 179  : 				destRed = m_parms.pMessage->r2;

	mov	eax, DWORD PTR _this$[ebp]
	mov	ecx, DWORD PTR [eax+136]
	movzx	edx, BYTE PTR [ecx+8]
	mov	DWORD PTR _destRed$[ebp], edx

; 180  : 				destGreen = m_parms.pMessage->g2;

	mov	eax, DWORD PTR _this$[ebp]
	mov	ecx, DWORD PTR [eax+136]
	movzx	edx, BYTE PTR [ecx+9]
	mov	DWORD PTR _destGreen$[ebp], edx

; 181  : 				destBlue = m_parms.pMessage->b2;

	mov	eax, DWORD PTR _this$[ebp]
	mov	ecx, DWORD PTR [eax+136]
	movzx	edx, BYTE PTR [ecx+10]
	mov	DWORD PTR _destBlue$[ebp], edx

; 182  : 				blend = 255 - (deltaTime * (1.0f / m_parms.pMessage->fxtime) * 255.0 + 0.5f );

	mov	eax, DWORD PTR _this$[ebp]
	mov	ecx, DWORD PTR [eax+136]
	movss	xmm0, DWORD PTR __real@3f800000
	divss	xmm0, DWORD PTR [ecx+32]
	mulss	xmm0, DWORD PTR _deltaTime$1[ebp]
	cvtss2sd xmm0, xmm0
	mulsd	xmm0, QWORD PTR __real@406fe00000000000
	addsd	xmm0, QWORD PTR __real@3fe0000000000000
	movsd	xmm1, QWORD PTR __real@406fe00000000000
	subsd	xmm1, xmm0
	cvttsd2si edx, xmm1
	mov	DWORD PTR _blend$[ebp], edx
$LN11@MessageSca:
$LN2@MessageSca:

; 183  : 			}
; 184  : 		}
; 185  : 		break;
; 186  : 	}
; 187  : 
; 188  : 	blend = bound( 0, blend, 255 );

	cmp	DWORD PTR _blend$[ebp], 0
	jl	SHORT $LN17@MessageSca
	cmp	DWORD PTR _blend$[ebp], 255		; 000000ffH
	jge	SHORT $LN15@MessageSca
	mov	eax, DWORD PTR _blend$[ebp]
	mov	DWORD PTR tv170[ebp], eax
	jmp	SHORT $LN16@MessageSca
$LN15@MessageSca:
	mov	DWORD PTR tv170[ebp], 255		; 000000ffH
$LN16@MessageSca:
	mov	ecx, DWORD PTR tv170[ebp]
	mov	DWORD PTR tv171[ebp], ecx
	jmp	SHORT $LN18@MessageSca
$LN17@MessageSca:
	mov	DWORD PTR tv171[ebp], 0
$LN18@MessageSca:
	mov	edx, DWORD PTR tv171[ebp]
	mov	DWORD PTR _blend$[ebp], edx

; 189  : 
; 190  : 	m_parms.r = ((srcRed * (255 - blend)) + (destRed * blend)) >> 8;

	mov	eax, 255				; 000000ffH
	sub	eax, DWORD PTR _blend$[ebp]
	imul	eax, DWORD PTR _srcRed$[ebp]
	mov	ecx, DWORD PTR _destRed$[ebp]
	imul	ecx, DWORD PTR _blend$[ebp]
	add	eax, ecx
	sar	eax, 8
	mov	edx, DWORD PTR _this$[ebp]
	mov	DWORD PTR [edx+176], eax

; 191  : 	m_parms.g = ((srcGreen * (255 - blend)) + (destGreen * blend)) >> 8;

	mov	eax, 255				; 000000ffH
	sub	eax, DWORD PTR _blend$[ebp]
	imul	eax, DWORD PTR _srcGreen$[ebp]
	mov	ecx, DWORD PTR _destGreen$[ebp]
	imul	ecx, DWORD PTR _blend$[ebp]
	add	eax, ecx
	sar	eax, 8
	mov	edx, DWORD PTR _this$[ebp]
	mov	DWORD PTR [edx+180], eax

; 192  : 	m_parms.b = ((srcBlue * (255 - blend)) + (destBlue * blend)) >> 8;

	mov	eax, 255				; 000000ffH
	sub	eax, DWORD PTR _blend$[ebp]
	imul	eax, DWORD PTR _srcBlue$[ebp]
	mov	ecx, DWORD PTR _destBlue$[ebp]
	imul	ecx, DWORD PTR _blend$[ebp]
	add	eax, ecx
	sar	eax, 8
	mov	edx, DWORD PTR _this$[ebp]
	mov	DWORD PTR [edx+184], eax

; 193  : 
; 194  : 	if( m_parms.pMessage->effect == 1 && m_parms.charTime != 0 )

	mov	eax, DWORD PTR _this$[ebp]
	mov	ecx, DWORD PTR [eax+136]
	cmp	DWORD PTR [ecx], 1
	jne	$LN13@MessageSca
	mov	eax, DWORD PTR _this$[ebp]
	movss	xmm0, DWORD PTR [eax+196]
	ucomiss	xmm0, DWORD PTR __real@00000000
	lahf
	test	ah, 68					; 00000044H
	jnp	$LN13@MessageSca

; 195  : 	{
; 196  : 		if( m_parms.x >= 0 && m_parms.y >= 0 && (m_parms.x + gHUD.m_scrinfo.charWidths[m_parms.text]) <= ScreenWidth )

	mov	eax, DWORD PTR _this$[ebp]
	cmp	DWORD PTR [eax+144], 0
	jl	SHORT $LN13@MessageSca
	mov	eax, DWORD PTR _this$[ebp]
	cmp	DWORD PTR [eax+148], 0
	jl	SHORT $LN13@MessageSca
	mov	eax, DWORD PTR _this$[ebp]
	mov	ecx, DWORD PTR [eax+188]
	movsx	edx, WORD PTR ?gHUD@@3VCHud@@A[ecx*2+8452]
	mov	eax, DWORD PTR _this$[ebp]
	add	edx, DWORD PTR [eax+144]
	cmp	edx, DWORD PTR ?gHUD@@3VCHud@@A+8436
	jg	SHORT $LN13@MessageSca

; 197  : 			TextMessageDrawChar( m_parms.x, m_parms.y, m_parms.text, m_parms.pMessage->r2, m_parms.pMessage->g2, m_parms.pMessage->b2 );

	mov	eax, DWORD PTR _this$[ebp]
	mov	ecx, DWORD PTR [eax+136]
	movzx	edx, BYTE PTR [ecx+10]
	push	edx
	mov	eax, DWORD PTR _this$[ebp]
	mov	ecx, DWORD PTR [eax+136]
	movzx	edx, BYTE PTR [ecx+9]
	push	edx
	mov	eax, DWORD PTR _this$[ebp]
	mov	ecx, DWORD PTR [eax+136]
	movzx	edx, BYTE PTR [ecx+8]
	push	edx
	mov	eax, DWORD PTR _this$[ebp]
	mov	ecx, DWORD PTR [eax+188]
	push	ecx
	mov	edx, DWORD PTR _this$[ebp]
	mov	eax, DWORD PTR [edx+148]
	push	eax
	mov	ecx, DWORD PTR _this$[ebp]
	mov	edx, DWORD PTR [ecx+144]
	push	edx
	call	DWORD PTR ?gEngfuncs@@3Ucl_enginefuncs_s@@A+104
	add	esp, 24					; 00000018H
$LN13@MessageSca:

; 198  : 	}
; 199  : }

	pop	edi
	pop	esi
	pop	ebx
	mov	esp, ebp
	pop	ebp
	ret	0
?MessageScanNextChar@CHudMessage@@QAEXXZ ENDP		; CHudMessage::MessageScanNextChar
_TEXT	ENDS
; Function compile flags: /Odtp /ZI
; File d:\!diffusion 2020\source code 2022\client-server\client\message.cpp
;	COMDAT ?MessageScanStart@CHudMessage@@QAEXXZ
_TEXT	SEGMENT
tv67 = -72						; size = 4
_this$ = -4						; size = 4
?MessageScanStart@CHudMessage@@QAEXXZ PROC		; CHudMessage::MessageScanStart, COMDAT
; _this$ = ecx

; 202  : {

	push	ebp
	mov	ebp, esp
	sub	esp, 72					; 00000048H
	push	ebx
	push	esi
	push	edi
	mov	DWORD PTR _this$[ebp], ecx

; 203  : 	switch( m_parms.pMessage->effect )

	mov	eax, DWORD PTR _this$[ebp]
	mov	ecx, DWORD PTR [eax+136]
	mov	edx, DWORD PTR [ecx]
	mov	DWORD PTR tv67[ebp], edx
	cmp	DWORD PTR tv67[ebp], 0
	jl	$LN2@MessageSca
	cmp	DWORD PTR tv67[ebp], 1
	jle	SHORT $LN4@MessageSca
	cmp	DWORD PTR tv67[ebp], 2
	je	$LN12@MessageSca
	jmp	$LN2@MessageSca
$LN4@MessageSca:

; 204  : 	{
; 205  : 
; 206  : 	case 1:
; 207  : 	case 0:	// Fade-in / out with flicker
; 208  : 		// m_parms.fadeTime = m_parms.pMessage->fadein + m_parms.pMessage->holdtime;
; 209  : 		m_parms.fadeTime = m_parms.pMessage->holdtime; // diffusion

	mov	eax, DWORD PTR _this$[ebp]
	mov	ecx, DWORD PTR [eax+136]
	mov	edx, DWORD PTR _this$[ebp]
	mov	eax, DWORD PTR [ecx+28]
	mov	DWORD PTR [edx+200], eax

; 210  : 
; 211  : 		if( m_parms.time < m_parms.pMessage->fadein )

	mov	eax, DWORD PTR _this$[ebp]
	mov	ecx, DWORD PTR [eax+136]
	mov	edx, DWORD PTR _this$[ebp]
	movss	xmm0, DWORD PTR [ecx+20]
	comiss	xmm0, DWORD PTR [edx+140]
	jbe	SHORT $LN5@MessageSca

; 212  : 		{
; 213  : 			m_parms.fadeBlend = ((m_parms.pMessage->fadein - m_parms.time) * (1.0f / m_parms.pMessage->fadein) * 255);

	mov	eax, DWORD PTR _this$[ebp]
	mov	ecx, DWORD PTR [eax+136]
	mov	edx, DWORD PTR _this$[ebp]
	movss	xmm0, DWORD PTR [ecx+20]
	subss	xmm0, DWORD PTR [edx+140]
	mov	eax, DWORD PTR _this$[ebp]
	mov	ecx, DWORD PTR [eax+136]
	movss	xmm1, DWORD PTR __real@3f800000
	divss	xmm1, DWORD PTR [ecx+20]
	mulss	xmm0, xmm1
	mulss	xmm0, DWORD PTR __real@437f0000
	cvttss2si edx, xmm0
	mov	eax, DWORD PTR _this$[ebp]
	mov	DWORD PTR [eax+192], edx
	jmp	$LN8@MessageSca
$LN5@MessageSca:

; 214  : 		}
; 215  : 		else if( m_parms.time > m_parms.fadeTime )

	mov	eax, DWORD PTR _this$[ebp]
	mov	ecx, DWORD PTR _this$[ebp]
	movss	xmm0, DWORD PTR [eax+140]
	comiss	xmm0, DWORD PTR [ecx+200]
	jbe	SHORT $LN7@MessageSca

; 216  : 		{
; 217  : 			if( m_parms.pMessage->fadeout > 0 )

	mov	eax, DWORD PTR _this$[ebp]
	mov	ecx, DWORD PTR [eax+136]
	movss	xmm0, DWORD PTR [ecx+24]
	comiss	xmm0, DWORD PTR __real@00000000
	jbe	SHORT $LN9@MessageSca

; 218  : 				m_parms.fadeBlend = (((m_parms.time - m_parms.fadeTime) / m_parms.pMessage->fadeout) * 255);

	mov	eax, DWORD PTR _this$[ebp]
	mov	ecx, DWORD PTR _this$[ebp]
	movss	xmm0, DWORD PTR [eax+140]
	subss	xmm0, DWORD PTR [ecx+200]
	mov	edx, DWORD PTR _this$[ebp]
	mov	eax, DWORD PTR [edx+136]
	divss	xmm0, DWORD PTR [eax+24]
	mulss	xmm0, DWORD PTR __real@437f0000
	cvttss2si ecx, xmm0
	mov	edx, DWORD PTR _this$[ebp]
	mov	DWORD PTR [edx+192], ecx

; 219  : 			else

	jmp	SHORT $LN10@MessageSca
$LN9@MessageSca:

; 220  : 				m_parms.fadeBlend = 255; // Pure dest (off)

	mov	eax, DWORD PTR _this$[ebp]
	mov	DWORD PTR [eax+192], 255		; 000000ffH
$LN10@MessageSca:

; 221  : 		}
; 222  : 		else

	jmp	SHORT $LN8@MessageSca
$LN7@MessageSca:

; 223  : 			m_parms.fadeBlend = 0;	// Pure source (on)

	mov	eax, DWORD PTR _this$[ebp]
	mov	DWORD PTR [eax+192], 0
$LN8@MessageSca:

; 224  : 
; 225  : 		m_parms.charTime = 0;

	mov	eax, DWORD PTR _this$[ebp]
	xorps	xmm0, xmm0
	movss	DWORD PTR [eax+196], xmm0

; 226  : 
; 227  : 		if( m_parms.pMessage->effect == 1 && (rand() % 100) < 10 )

	mov	eax, DWORD PTR _this$[ebp]
	mov	ecx, DWORD PTR [eax+136]
	cmp	DWORD PTR [ecx], 1
	jne	SHORT $LN11@MessageSca
	call	_rand
	cdq
	mov	ecx, 100				; 00000064H
	idiv	ecx
	cmp	edx, 10					; 0000000aH
	jge	SHORT $LN11@MessageSca

; 228  : 			m_parms.charTime = 1;

	mov	eax, DWORD PTR _this$[ebp]
	movss	xmm0, DWORD PTR __real@3f800000
	movss	DWORD PTR [eax+196], xmm0
$LN11@MessageSca:

; 229  : 		break;

	jmp	$LN2@MessageSca
$LN12@MessageSca:

; 230  : 
; 231  : 	case 2:
; 232  : //		m_parms.fadeTime = (m_parms.pMessage->fadein * m_parms.length) + m_parms.pMessage->holdtime;
; 233  : 		m_parms.fadeTime = m_parms.pMessage->holdtime; // diffusion

	mov	eax, DWORD PTR _this$[ebp]
	mov	ecx, DWORD PTR [eax+136]
	mov	edx, DWORD PTR _this$[ebp]
	mov	eax, DWORD PTR [ecx+28]
	mov	DWORD PTR [edx+200], eax

; 234  : 		
; 235  : 		if( m_parms.time > m_parms.fadeTime && m_parms.pMessage->fadeout > 0 )

	mov	eax, DWORD PTR _this$[ebp]
	mov	ecx, DWORD PTR _this$[ebp]
	movss	xmm0, DWORD PTR [eax+140]
	comiss	xmm0, DWORD PTR [ecx+200]
	jbe	SHORT $LN13@MessageSca
	mov	eax, DWORD PTR _this$[ebp]
	mov	ecx, DWORD PTR [eax+136]
	movss	xmm0, DWORD PTR [ecx+24]
	comiss	xmm0, DWORD PTR __real@00000000
	jbe	SHORT $LN13@MessageSca

; 236  : 			m_parms.fadeBlend = (((m_parms.time - m_parms.fadeTime) / m_parms.pMessage->fadeout) * 255);

	mov	eax, DWORD PTR _this$[ebp]
	mov	ecx, DWORD PTR _this$[ebp]
	movss	xmm0, DWORD PTR [eax+140]
	subss	xmm0, DWORD PTR [ecx+200]
	mov	edx, DWORD PTR _this$[ebp]
	mov	eax, DWORD PTR [edx+136]
	divss	xmm0, DWORD PTR [eax+24]
	mulss	xmm0, DWORD PTR __real@437f0000
	cvttss2si ecx, xmm0
	mov	edx, DWORD PTR _this$[ebp]
	mov	DWORD PTR [edx+192], ecx

; 237  : 		else

	jmp	SHORT $LN14@MessageSca
$LN13@MessageSca:

; 238  : 			m_parms.fadeBlend = 0;

	mov	eax, DWORD PTR _this$[ebp]
	mov	DWORD PTR [eax+192], 0
$LN14@MessageSca:
$LN2@MessageSca:

; 239  : 		break;
; 240  : 	}
; 241  : }

	pop	edi
	pop	esi
	pop	ebx
	mov	esp, ebp
	pop	ebp
	ret	0
?MessageScanStart@CHudMessage@@QAEXXZ ENDP		; CHudMessage::MessageScanStart
_TEXT	ENDS
; Function compile flags: /Odtp /ZI
; File d:\!diffusion 2020\source code 2022\client-server\client\message.cpp
;	COMDAT ?MessageDrawScan@CHudMessage@@QAEXPAUclient_textmessage_s@@M@Z
_TEXT	SEGMENT
$T1 = -184						; size = 4
_next$2 = -116						; size = 4
_c$3 = -109						; size = 1
_line$ = -108						; size = 80
_pText$ = -28						; size = 4
_width$ = -24						; size = 4
_length$ = -20						; size = 4
_j$ = -16						; size = 4
_i$ = -12						; size = 4
_this$ = -8						; size = 4
__$ArrayPad$ = -4					; size = 4
_pMessage$ = 8						; size = 4
_time$ = 12						; size = 4
?MessageDrawScan@CHudMessage@@QAEXPAUclient_textmessage_s@@M@Z PROC ; CHudMessage::MessageDrawScan, COMDAT
; _this$ = ecx

; 244  : {

	push	ebp
	mov	ebp, esp
	sub	esp, 184				; 000000b8H
	mov	eax, DWORD PTR ___security_cookie
	xor	eax, ebp
	mov	DWORD PTR __$ArrayPad$[ebp], eax
	push	ebx
	push	esi
	push	edi
	mov	DWORD PTR _this$[ebp], ecx

; 245  : 	int i, j, length, width;
; 246  : 	const char *pText;
; 247  : 	unsigned char line[80];
; 248  : 
; 249  : 	pText = pMessage->pMessage;

	mov	eax, DWORD PTR _pMessage$[ebp]
	mov	ecx, DWORD PTR [eax+40]
	mov	DWORD PTR _pText$[ebp], ecx

; 250  : 	// Count lines
; 251  : 	m_parms.lines = 1;

	mov	eax, DWORD PTR _this$[ebp]
	mov	DWORD PTR [eax+164], 1

; 252  : 	m_parms.time = time;

	mov	eax, DWORD PTR _this$[ebp]
	movss	xmm0, DWORD PTR _time$[ebp]
	movss	DWORD PTR [eax+140], xmm0

; 253  : 	m_parms.pMessage = pMessage;

	mov	eax, DWORD PTR _this$[ebp]
	mov	ecx, DWORD PTR _pMessage$[ebp]
	mov	DWORD PTR [eax+136], ecx

; 254  : 	length = 0;

	mov	DWORD PTR _length$[ebp], 0

; 255  : 	width = 0;

	mov	DWORD PTR _width$[ebp], 0

; 256  : 	m_parms.totalWidth = 0;

	mov	eax, DWORD PTR _this$[ebp]
	mov	DWORD PTR [eax+152], 0
$LN2@MessageDra:

; 257  : 
; 258  : 	while( *pText )

	mov	eax, DWORD PTR _pText$[ebp]
	movsx	ecx, BYTE PTR [eax]
	test	ecx, ecx
	je	SHORT $LN3@MessageDra

; 259  : 	{
; 260  : 		if( *pText == '\n' )

	mov	eax, DWORD PTR _pText$[ebp]
	movsx	ecx, BYTE PTR [eax]
	cmp	ecx, 10					; 0000000aH
	jne	SHORT $LN12@MessageDra

; 261  : 		{
; 262  : 			m_parms.lines++;

	mov	eax, DWORD PTR _this$[ebp]
	mov	ecx, DWORD PTR [eax+164]
	add	ecx, 1
	mov	edx, DWORD PTR _this$[ebp]
	mov	DWORD PTR [edx+164], ecx

; 263  : 			if( width > m_parms.totalWidth )

	mov	eax, DWORD PTR _this$[ebp]
	mov	ecx, DWORD PTR _width$[ebp]
	cmp	ecx, DWORD PTR [eax+152]
	jle	SHORT $LN14@MessageDra

; 264  : 				m_parms.totalWidth = width;

	mov	eax, DWORD PTR _this$[ebp]
	mov	ecx, DWORD PTR _width$[ebp]
	mov	DWORD PTR [eax+152], ecx
$LN14@MessageDra:

; 265  : 			width = 0;

	mov	DWORD PTR _width$[ebp], 0

; 266  : 		}
; 267  : 		else

	jmp	SHORT $LN13@MessageDra
$LN12@MessageDra:

; 268  : 			width += gHUD.m_scrinfo.charWidths[*pText];

	mov	eax, DWORD PTR _pText$[ebp]
	movsx	ecx, BYTE PTR [eax]
	movsx	edx, WORD PTR ?gHUD@@3VCHud@@A[ecx*2+8452]
	add	edx, DWORD PTR _width$[ebp]
	mov	DWORD PTR _width$[ebp], edx
$LN13@MessageDra:

; 269  : 		pText++;

	mov	eax, DWORD PTR _pText$[ebp]
	add	eax, 1
	mov	DWORD PTR _pText$[ebp], eax

; 270  : 		length++;

	mov	eax, DWORD PTR _length$[ebp]
	add	eax, 1
	mov	DWORD PTR _length$[ebp], eax

; 271  : 	}

	jmp	SHORT $LN2@MessageDra
$LN3@MessageDra:

; 272  : 
; 273  : 	m_parms.length = length;

	mov	eax, DWORD PTR _this$[ebp]
	mov	ecx, DWORD PTR _length$[ebp]
	mov	DWORD PTR [eax+172], ecx

; 274  : 	m_parms.totalHeight = (m_parms.lines * gHUD.m_scrinfo.iCharHeight);

	mov	eax, DWORD PTR _this$[ebp]
	mov	ecx, DWORD PTR [eax+164]
	imul	ecx, DWORD PTR ?gHUD@@3VCHud@@A+8448
	mov	edx, DWORD PTR _this$[ebp]
	mov	DWORD PTR [edx+156], ecx

; 275  : 
; 276  : 
; 277  : 	m_parms.y = YPosition( pMessage->y, m_parms.totalHeight );

	mov	eax, DWORD PTR _this$[ebp]
	mov	ecx, DWORD PTR [eax+156]
	push	ecx
	mov	edx, DWORD PTR _pMessage$[ebp]
	push	ecx
	movss	xmm0, DWORD PTR [edx+16]
	movss	DWORD PTR [esp], xmm0
	mov	ecx, DWORD PTR _this$[ebp]
	call	?YPosition@CHudMessage@@QAEHMH@Z	; CHudMessage::YPosition
	mov	ecx, DWORD PTR _this$[ebp]
	mov	DWORD PTR [ecx+148], eax

; 278  : 	pText = pMessage->pMessage;

	mov	eax, DWORD PTR _pMessage$[ebp]
	mov	ecx, DWORD PTR [eax+40]
	mov	DWORD PTR _pText$[ebp], ecx

; 279  : 
; 280  : 	m_parms.charTime = 0;

	mov	eax, DWORD PTR _this$[ebp]
	xorps	xmm0, xmm0
	movss	DWORD PTR [eax+196], xmm0

; 281  : 
; 282  : 	MessageScanStart();

	mov	ecx, DWORD PTR _this$[ebp]
	call	?MessageScanStart@CHudMessage@@QAEXXZ	; CHudMessage::MessageScanStart

; 283  : 
; 284  : 	for( i = 0; i < m_parms.lines; i++ )

	mov	DWORD PTR _i$[ebp], 0
	jmp	SHORT $LN6@MessageDra
$LN4@MessageDra:
	mov	eax, DWORD PTR _i$[ebp]
	add	eax, 1
	mov	DWORD PTR _i$[ebp], eax
$LN6@MessageDra:
	mov	eax, DWORD PTR _this$[ebp]
	mov	ecx, DWORD PTR _i$[ebp]
	cmp	ecx, DWORD PTR [eax+164]
	jge	$LN5@MessageDra

; 285  : 	{
; 286  : 		m_parms.lineLength = 0;

	mov	eax, DWORD PTR _this$[ebp]
	mov	DWORD PTR [eax+168], 0

; 287  : 		m_parms.width = 0;

	mov	eax, DWORD PTR _this$[ebp]
	mov	DWORD PTR [eax+160], 0
$LN7@MessageDra:

; 288  : 
; 289  : 		while( *pText && *pText != '\n' )

	mov	eax, DWORD PTR _pText$[ebp]
	movsx	ecx, BYTE PTR [eax]
	test	ecx, ecx
	je	SHORT $LN8@MessageDra
	mov	eax, DWORD PTR _pText$[ebp]
	movsx	ecx, BYTE PTR [eax]
	cmp	ecx, 10					; 0000000aH
	je	SHORT $LN8@MessageDra

; 290  : 		{
; 291  : 			byte c = *pText;

	mov	eax, DWORD PTR _pText$[ebp]
	mov	cl, BYTE PTR [eax]
	mov	BYTE PTR _c$3[ebp], cl

; 292  : 			line[m_parms.lineLength] = c;

	mov	eax, DWORD PTR _this$[ebp]
	mov	ecx, DWORD PTR [eax+168]
	mov	dl, BYTE PTR _c$3[ebp]
	mov	BYTE PTR _line$[ebp+ecx], dl

; 293  : 			m_parms.width += gHUD.m_scrinfo.charWidths[c];

	movzx	eax, BYTE PTR _c$3[ebp]
	movsx	ecx, WORD PTR ?gHUD@@3VCHud@@A[eax*2+8452]
	mov	edx, DWORD PTR _this$[ebp]
	add	ecx, DWORD PTR [edx+160]
	mov	eax, DWORD PTR _this$[ebp]
	mov	DWORD PTR [eax+160], ecx

; 294  : 			m_parms.lineLength++;

	mov	eax, DWORD PTR _this$[ebp]
	mov	ecx, DWORD PTR [eax+168]
	add	ecx, 1
	mov	edx, DWORD PTR _this$[ebp]
	mov	DWORD PTR [edx+168], ecx

; 295  : 			pText++;

	mov	eax, DWORD PTR _pText$[ebp]
	add	eax, 1
	mov	DWORD PTR _pText$[ebp], eax

; 296  : 		}

	jmp	SHORT $LN7@MessageDra
$LN8@MessageDra:

; 297  : 
; 298  : 		pText++; // Skip LF

	mov	eax, DWORD PTR _pText$[ebp]
	add	eax, 1
	mov	DWORD PTR _pText$[ebp], eax

; 299  : 		line[m_parms.lineLength] = 0;

	mov	eax, DWORD PTR _this$[ebp]
	mov	ecx, DWORD PTR [eax+168]
	mov	DWORD PTR $T1[ebp], ecx
	cmp	DWORD PTR $T1[ebp], 80			; 00000050H
	jae	SHORT $LN17@MessageDra
	jmp	SHORT $LN18@MessageDra
$LN17@MessageDra:
	call	___report_rangecheckfailure
$LN18@MessageDra:
	mov	edx, DWORD PTR $T1[ebp]
	mov	BYTE PTR _line$[ebp+edx], 0

; 300  : 
; 301  : 		m_parms.x = XPosition( pMessage->x, m_parms.width, m_parms.totalWidth );

	mov	eax, DWORD PTR _this$[ebp]
	mov	ecx, DWORD PTR [eax+152]
	push	ecx
	mov	edx, DWORD PTR _this$[ebp]
	mov	eax, DWORD PTR [edx+160]
	push	eax
	mov	ecx, DWORD PTR _pMessage$[ebp]
	push	ecx
	movss	xmm0, DWORD PTR [ecx+12]
	movss	DWORD PTR [esp], xmm0
	mov	ecx, DWORD PTR _this$[ebp]
	call	?XPosition@CHudMessage@@QAEHMHH@Z	; CHudMessage::XPosition
	mov	edx, DWORD PTR _this$[ebp]
	mov	DWORD PTR [edx+144], eax

; 302  : 
; 303  : 		for( j = 0; j < m_parms.lineLength; j++ )

	mov	DWORD PTR _j$[ebp], 0
	jmp	SHORT $LN11@MessageDra
$LN9@MessageDra:
	mov	eax, DWORD PTR _j$[ebp]
	add	eax, 1
	mov	DWORD PTR _j$[ebp], eax
$LN11@MessageDra:
	mov	eax, DWORD PTR _this$[ebp]
	mov	ecx, DWORD PTR _j$[ebp]
	cmp	ecx, DWORD PTR [eax+168]
	jge	$LN10@MessageDra

; 304  : 		{
; 305  : 			m_parms.text = line[j];

	mov	eax, DWORD PTR _j$[ebp]
	movzx	ecx, BYTE PTR _line$[ebp+eax]
	mov	edx, DWORD PTR _this$[ebp]
	mov	DWORD PTR [edx+188], ecx

; 306  : 			int next = m_parms.x + gHUD.m_scrinfo.charWidths[ m_parms.text ];

	mov	eax, DWORD PTR _this$[ebp]
	mov	ecx, DWORD PTR [eax+188]
	movsx	edx, WORD PTR ?gHUD@@3VCHud@@A[ecx*2+8452]
	mov	eax, DWORD PTR _this$[ebp]
	add	edx, DWORD PTR [eax+144]
	mov	DWORD PTR _next$2[ebp], edx

; 307  : 			MessageScanNextChar();

	mov	ecx, DWORD PTR _this$[ebp]
	call	?MessageScanNextChar@CHudMessage@@QAEXXZ ; CHudMessage::MessageScanNextChar

; 308  : 			
; 309  : 			if( m_parms.x >= 0 && m_parms.y >= 0 && next <= ScreenWidth )

	mov	eax, DWORD PTR _this$[ebp]
	cmp	DWORD PTR [eax+144], 0
	jl	SHORT $LN15@MessageDra
	mov	eax, DWORD PTR _this$[ebp]
	cmp	DWORD PTR [eax+148], 0
	jl	SHORT $LN15@MessageDra
	mov	eax, DWORD PTR _next$2[ebp]
	cmp	eax, DWORD PTR ?gHUD@@3VCHud@@A+8436
	jg	SHORT $LN15@MessageDra

; 310  : 				TextMessageDrawChar( m_parms.x, m_parms.y, m_parms.text, m_parms.r, m_parms.g, m_parms.b );

	mov	eax, DWORD PTR _this$[ebp]
	mov	ecx, DWORD PTR [eax+184]
	push	ecx
	mov	edx, DWORD PTR _this$[ebp]
	mov	eax, DWORD PTR [edx+180]
	push	eax
	mov	ecx, DWORD PTR _this$[ebp]
	mov	edx, DWORD PTR [ecx+176]
	push	edx
	mov	eax, DWORD PTR _this$[ebp]
	mov	ecx, DWORD PTR [eax+188]
	push	ecx
	mov	edx, DWORD PTR _this$[ebp]
	mov	eax, DWORD PTR [edx+148]
	push	eax
	mov	ecx, DWORD PTR _this$[ebp]
	mov	edx, DWORD PTR [ecx+144]
	push	edx
	call	DWORD PTR ?gEngfuncs@@3Ucl_enginefuncs_s@@A+104
	add	esp, 24					; 00000018H
$LN15@MessageDra:

; 311  : 			m_parms.x = next;

	mov	eax, DWORD PTR _this$[ebp]
	mov	ecx, DWORD PTR _next$2[ebp]
	mov	DWORD PTR [eax+144], ecx

; 312  : 		}

	jmp	$LN9@MessageDra
$LN10@MessageDra:

; 313  :  		m_parms.y += gHUD.m_scrinfo.iCharHeight;

	mov	eax, DWORD PTR _this$[ebp]
	mov	ecx, DWORD PTR [eax+148]
	add	ecx, DWORD PTR ?gHUD@@3VCHud@@A+8448
	mov	edx, DWORD PTR _this$[ebp]
	mov	DWORD PTR [edx+148], ecx

; 314  : 	}

	jmp	$LN4@MessageDra
$LN5@MessageDra:
$LN1@MessageDra:

; 315  : }

	pop	edi
	pop	esi
	pop	ebx
	mov	ecx, DWORD PTR __$ArrayPad$[ebp]
	xor	ecx, ebp
	call	@__security_check_cookie@4
	mov	esp, ebp
	pop	ebp
	ret	8
?MessageDrawScan@CHudMessage@@QAEXPAUclient_textmessage_s@@M@Z ENDP ; CHudMessage::MessageDrawScan
_TEXT	ENDS
; Function compile flags: /Odtp /ZI
; File d:\!diffusion 2020\source code 2022\client-server\client\message.cpp
;	COMDAT ?MessageAdd@CHudMessage@@QAEXPAUclient_textmessage_s@@@Z
_TEXT	SEGMENT
_i$1 = -8						; size = 4
_this$ = -4						; size = 4
_newMessage$ = 8					; size = 4
?MessageAdd@CHudMessage@@QAEXPAUclient_textmessage_s@@@Z PROC ; CHudMessage::MessageAdd, COMDAT
; _this$ = ecx

; 526  : {

	push	ebp
	mov	ebp, esp
	sub	esp, 72					; 00000048H
	push	ebx
	push	esi
	push	edi
	mov	DWORD PTR _this$[ebp], ecx

; 527  : 	m_parms.time = gHUD.m_flTime;

	mov	eax, DWORD PTR _this$[ebp]
	movss	xmm0, DWORD PTR ?gHUD@@3VCHud@@A+32
	movss	DWORD PTR [eax+140], xmm0

; 528  : 
; 529  : 	// turn on drawing
; 530  : 	m_iFlags |= HUD_ACTIVE;

	mov	eax, DWORD PTR _this$[ebp]
	mov	ecx, DWORD PTR [eax+4]
	or	ecx, 1
	mov	edx, DWORD PTR _this$[ebp]
	mov	DWORD PTR [edx+4], ecx

; 531  : 	
; 532  : 	for( int i = 0; i < maxHUDMessages; i++ )

	mov	DWORD PTR _i$1[ebp], 0
	jmp	SHORT $LN4@MessageAdd
$LN2@MessageAdd:
	mov	eax, DWORD PTR _i$1[ebp]
	add	eax, 1
	mov	DWORD PTR _i$1[ebp], eax
$LN4@MessageAdd:
	cmp	DWORD PTR _i$1[ebp], 16			; 00000010H
	jge	SHORT $LN3@MessageAdd

; 533  : 	{
; 534  : 		if( !m_pMessages[i] )

	mov	eax, DWORD PTR _i$1[ebp]
	mov	ecx, DWORD PTR _this$[ebp]
	cmp	DWORD PTR [ecx+eax*4+8], 0
	jne	SHORT $LN5@MessageAdd

; 535  : 		{
; 536  : 			m_pMessages[i] = newMessage;

	mov	eax, DWORD PTR _i$1[ebp]
	mov	ecx, DWORD PTR _this$[ebp]
	mov	edx, DWORD PTR _newMessage$[ebp]
	mov	DWORD PTR [ecx+eax*4+8], edx

; 537  : 			m_startTime[i] = gHUD.m_flTime;

	mov	eax, DWORD PTR _i$1[ebp]
	mov	ecx, DWORD PTR _this$[ebp]
	movss	xmm0, DWORD PTR ?gHUD@@3VCHud@@A+32
	movss	DWORD PTR [ecx+eax*4+72], xmm0

; 538  : 			return;

	jmp	SHORT $LN1@MessageAdd
$LN5@MessageAdd:

; 539  : 		}
; 540  : 	}

	jmp	SHORT $LN2@MessageAdd
$LN3@MessageAdd:
$LN1@MessageAdd:

; 541  : }

	pop	edi
	pop	esi
	pop	ebx
	mov	esp, ebp
	pop	ebp
	ret	4
?MessageAdd@CHudMessage@@QAEXPAUclient_textmessage_s@@@Z ENDP ; CHudMessage::MessageAdd
_TEXT	ENDS
; Function compile flags: /Odtp /ZI
; File d:\!diffusion 2020\source code 2022\client-server\client\message.cpp
;	COMDAT ?MessageAdd@CHudMessage@@QAEXPBDM@Z
_TEXT	SEGMENT
tv225 = -88						; size = 8
tv215 = -88						; size = 8
_j$1 = -16						; size = 4
_i$2 = -12						; size = 4
_tempMessage$ = -8					; size = 4
_this$ = -4						; size = 4
_pName$ = 8						; size = 4
_time$ = 12						; size = 4
?MessageAdd@CHudMessage@@QAEXPBDM@Z PROC		; CHudMessage::MessageAdd, COMDAT
; _this$ = ecx

; 424  : {

	push	ebp
	mov	ebp, esp
	sub	esp, 88					; 00000058H
	push	ebx
	push	esi
	push	edi
	mov	DWORD PTR _this$[ebp], ecx

; 425  : 	client_textmessage_t *tempMessage;
; 426  : 
; 427  : 	for( int i = 0; i < maxHUDMessages; i++ )

	mov	DWORD PTR _i$2[ebp], 0
	jmp	SHORT $LN4@MessageAdd
$LN2@MessageAdd:
	mov	eax, DWORD PTR _i$2[ebp]
	add	eax, 1
	mov	DWORD PTR _i$2[ebp], eax
$LN4@MessageAdd:
	cmp	DWORD PTR _i$2[ebp], 16			; 00000010H
	jge	$LN3@MessageAdd

; 428  : 	{
; 429  : 		if( !m_pMessages[i] )

	mov	eax, DWORD PTR _i$2[ebp]
	mov	ecx, DWORD PTR _this$[ebp]
	cmp	DWORD PTR [ecx+eax*4+8], 0
	jne	$LN8@MessageAdd

; 430  : 		{
; 431  : 			// Trim off a leading # if it's there
; 432  : 			if( pName[0] == '#' ) 

	mov	eax, 1
	imul	ecx, eax, 0
	mov	edx, DWORD PTR _pName$[ebp]
	movsx	eax, BYTE PTR [edx+ecx]
	cmp	eax, 35					; 00000023H
	jne	SHORT $LN9@MessageAdd

; 433  : 				tempMessage = TextMessageGet( pName + 1 );

	mov	eax, DWORD PTR _pName$[ebp]
	add	eax, 1
	push	eax
	call	DWORD PTR ?gEngfuncs@@3Ucl_enginefuncs_s@@A+100
	add	esp, 4
	mov	DWORD PTR _tempMessage$[ebp], eax
	jmp	SHORT $LN10@MessageAdd
$LN9@MessageAdd:

; 434  : 			else tempMessage = TextMessageGet( pName );

	mov	eax, DWORD PTR _pName$[ebp]
	push	eax
	call	DWORD PTR ?gEngfuncs@@3Ucl_enginefuncs_s@@A+100
	add	esp, 4
	mov	DWORD PTR _tempMessage$[ebp], eax
$LN10@MessageAdd:

; 435  : 
; 436  : 			if( !tempMessage )

	cmp	DWORD PTR _tempMessage$[ebp], 0
	jne	$LN11@MessageAdd

; 437  : 			{
; 438  : 				g_pCustomMessage.effect = 2;

	mov	DWORD PTR ?g_pCustomMessage@@3Uclient_textmessage_s@@A, 2

; 439  : 				g_pCustomMessage.r1 = g_pCustomMessage.g1 = g_pCustomMessage.b1 = g_pCustomMessage.a1 = 100;

	mov	BYTE PTR ?g_pCustomMessage@@3Uclient_textmessage_s@@A+7, 100 ; 00000064H
	mov	al, BYTE PTR ?g_pCustomMessage@@3Uclient_textmessage_s@@A+7
	mov	BYTE PTR ?g_pCustomMessage@@3Uclient_textmessage_s@@A+6, al
	mov	cl, BYTE PTR ?g_pCustomMessage@@3Uclient_textmessage_s@@A+6
	mov	BYTE PTR ?g_pCustomMessage@@3Uclient_textmessage_s@@A+5, cl
	mov	dl, BYTE PTR ?g_pCustomMessage@@3Uclient_textmessage_s@@A+5
	mov	BYTE PTR ?g_pCustomMessage@@3Uclient_textmessage_s@@A+4, dl

; 440  : 				g_pCustomMessage.r2 = 240;

	mov	BYTE PTR ?g_pCustomMessage@@3Uclient_textmessage_s@@A+8, 240 ; 000000f0H

; 441  : 				g_pCustomMessage.g2 = 110;

	mov	BYTE PTR ?g_pCustomMessage@@3Uclient_textmessage_s@@A+9, 110 ; 0000006eH

; 442  : 				g_pCustomMessage.b2 = 0;

	mov	BYTE PTR ?g_pCustomMessage@@3Uclient_textmessage_s@@A+10, 0

; 443  : 				g_pCustomMessage.a2 = 0;

	mov	BYTE PTR ?g_pCustomMessage@@3Uclient_textmessage_s@@A+11, 0

; 444  : 				g_pCustomMessage.x = -1;		// Centered

	movss	xmm0, DWORD PTR __real@bf800000
	movss	DWORD PTR ?g_pCustomMessage@@3Uclient_textmessage_s@@A+12, xmm0

; 445  : 				g_pCustomMessage.y = 0.7;

	movss	xmm0, DWORD PTR __real@3f333333
	movss	DWORD PTR ?g_pCustomMessage@@3Uclient_textmessage_s@@A+16, xmm0

; 446  : 				g_pCustomMessage.fadein = 0.01;

	movss	xmm0, DWORD PTR __real@3c23d70a
	movss	DWORD PTR ?g_pCustomMessage@@3Uclient_textmessage_s@@A+20, xmm0

; 447  : 				g_pCustomMessage.fadeout = 1.5;

	movss	xmm0, DWORD PTR __real@3fc00000
	movss	DWORD PTR ?g_pCustomMessage@@3Uclient_textmessage_s@@A+24, xmm0

; 448  : 				g_pCustomMessage.fxtime = 0.25;

	movss	xmm0, DWORD PTR __real@3e800000
	movss	DWORD PTR ?g_pCustomMessage@@3Uclient_textmessage_s@@A+32, xmm0

; 449  : 				g_pCustomMessage.holdtime = 5;

	movss	xmm0, DWORD PTR __real@40a00000
	movss	DWORD PTR ?g_pCustomMessage@@3Uclient_textmessage_s@@A+28, xmm0

; 450  : 				g_pCustomMessage.pName = g_pCustomName;

	mov	eax, DWORD PTR ?g_pCustomName@@3PADA	; g_pCustomName
	mov	DWORD PTR ?g_pCustomMessage@@3Uclient_textmessage_s@@A+36, eax

; 451  : 				strcpy_s( g_pCustomText, pName );

	mov	eax, DWORD PTR _pName$[ebp]
	push	eax
	push	OFFSET ?g_pCustomText@@3PADA		; g_pCustomText
	call	??$strcpy_s@$0EAA@@@YAHAAY0EAA@DPBD@Z	; strcpy_s<1024>
	add	esp, 8

; 452  : 				g_pCustomMessage.pMessage = g_pCustomText;

	mov	DWORD PTR ?g_pCustomMessage@@3Uclient_textmessage_s@@A+40, OFFSET ?g_pCustomText@@3PADA ; g_pCustomText

; 453  : 
; 454  : 				tempMessage = &g_pCustomMessage;

	mov	DWORD PTR _tempMessage$[ebp], OFFSET ?g_pCustomMessage@@3Uclient_textmessage_s@@A ; g_pCustomMessage
$LN11@MessageAdd:

; 455  : 			}
; 456  : 
; 457  : 			for( int j = 0; j < maxHUDMessages; j++ )

	mov	DWORD PTR _j$1[ebp], 0
	jmp	SHORT $LN7@MessageAdd
$LN5@MessageAdd:
	mov	eax, DWORD PTR _j$1[ebp]
	add	eax, 1
	mov	DWORD PTR _j$1[ebp], eax
$LN7@MessageAdd:
	cmp	DWORD PTR _j$1[ebp], 16			; 00000010H
	jge	$LN6@MessageAdd

; 458  : 			{
; 459  : 				if( m_pMessages[j] )

	mov	eax, DWORD PTR _j$1[ebp]
	mov	ecx, DWORD PTR _this$[ebp]
	cmp	DWORD PTR [ecx+eax*4+8], 0
	je	$LN14@MessageAdd

; 460  : 				{
; 461  : 					// is this message already in the list
; 462  : //					if( !Q_strcmp( tempMessage->pMessage, m_pMessages[j]->pMessage ))
; 463  : //						return;
; 464  : //  diffusion - this was causing an issue: if we are calling the same sentence repeatedly,
; 465  : //				it won't refresh, but rather fade out completely, and ONLY THEN it will appear again.
; 466  : 
; 467  : 					// get rid of any other messages in same location (only one displays at a time)
; 468  : 					if( fabs( tempMessage->y - m_pMessages[j]->y ) < 0.0001f )

	mov	eax, DWORD PTR _j$1[ebp]
	mov	ecx, DWORD PTR _this$[ebp]
	mov	edx, DWORD PTR [ecx+eax*4+8]
	mov	eax, DWORD PTR _tempMessage$[ebp]
	movss	xmm0, DWORD PTR [eax+16]
	subss	xmm0, DWORD PTR [edx+16]
	cvtss2sd xmm0, xmm0
	sub	esp, 8
	movsd	QWORD PTR [esp], xmm0
	call	_fabs
	add	esp, 8
	fstp	QWORD PTR tv215[ebp]
	movsd	xmm0, QWORD PTR __real@3f1a36e2e0000000
	comisd	xmm0, QWORD PTR tv215[ebp]
	jbe	SHORT $LN14@MessageAdd

; 469  : 					{
; 470  : 						if( fabs( tempMessage->x - m_pMessages[j]->x ) < 0.0001f )

	mov	eax, DWORD PTR _j$1[ebp]
	mov	ecx, DWORD PTR _this$[ebp]
	mov	edx, DWORD PTR [ecx+eax*4+8]
	mov	eax, DWORD PTR _tempMessage$[ebp]
	movss	xmm0, DWORD PTR [eax+12]
	subss	xmm0, DWORD PTR [edx+12]
	cvtss2sd xmm0, xmm0
	sub	esp, 8
	movsd	QWORD PTR [esp], xmm0
	call	_fabs
	add	esp, 8
	fstp	QWORD PTR tv225[ebp]
	movsd	xmm0, QWORD PTR __real@3f1a36e2e0000000
	comisd	xmm0, QWORD PTR tv225[ebp]
	jbe	SHORT $LN14@MessageAdd

; 471  : 							m_pMessages[j] = NULL;

	mov	eax, DWORD PTR _j$1[ebp]
	mov	ecx, DWORD PTR _this$[ebp]
	mov	DWORD PTR [ecx+eax*4+8], 0
$LN14@MessageAdd:

; 472  : 					}
; 473  : 				}
; 474  : 			}

	jmp	$LN5@MessageAdd
$LN6@MessageAdd:

; 475  : 
; 476  : 			m_pMessages[i] = tempMessage;

	mov	eax, DWORD PTR _i$2[ebp]
	mov	ecx, DWORD PTR _this$[ebp]
	mov	edx, DWORD PTR _tempMessage$[ebp]
	mov	DWORD PTR [ecx+eax*4+8], edx

; 477  : 			m_startTime[i] = time;

	mov	eax, DWORD PTR _i$2[ebp]
	mov	ecx, DWORD PTR _this$[ebp]
	movss	xmm0, DWORD PTR _time$[ebp]
	movss	DWORD PTR [ecx+eax*4+72], xmm0

; 478  : 			return;

	jmp	SHORT $LN1@MessageAdd
$LN8@MessageAdd:

; 479  : 		}
; 480  : 	}

	jmp	$LN2@MessageAdd
$LN3@MessageAdd:
$LN1@MessageAdd:

; 481  : }

	pop	edi
	pop	esi
	pop	ebx
	mov	esp, ebp
	pop	ebp
	ret	8
?MessageAdd@CHudMessage@@QAEXPBDM@Z ENDP		; CHudMessage::MessageAdd
_TEXT	ENDS
; Function compile flags: /Odtp /ZI
; File d:\!diffusion 2020\source code 2022\client-server\client\message.cpp
;	COMDAT ?YPosition@CHudMessage@@QAEHMH@Z
_TEXT	SEGMENT
_yPos$ = -8						; size = 4
_this$ = -4						; size = 4
_y$ = 8							; size = 4
_height$ = 12						; size = 4
?YPosition@CHudMessage@@QAEHMH@Z PROC			; CHudMessage::YPosition, COMDAT
; _this$ = ecx

; 115  : {

	push	ebp
	mov	ebp, esp
	sub	esp, 72					; 00000048H
	push	ebx
	push	esi
	push	edi
	mov	DWORD PTR _this$[ebp], ecx

; 116  : 	int yPos;
; 117  : 
; 118  : 	if( y == -1 )

	movss	xmm0, DWORD PTR _y$[ebp]
	ucomiss	xmm0, DWORD PTR __real@bf800000
	lahf
	test	ah, 68					; 00000044H
	jp	SHORT $LN2@YPosition

; 119  : 	{
; 120  : 		// Centered?
; 121  : 		yPos = (ScreenHeight - height) * 0.5;

	mov	eax, DWORD PTR ?gHUD@@3VCHud@@A+8440
	sub	eax, DWORD PTR _height$[ebp]
	cvtsi2sd xmm0, eax
	mulsd	xmm0, QWORD PTR __real@3fe0000000000000
	cvttsd2si ecx, xmm0
	mov	DWORD PTR _yPos$[ebp], ecx

; 122  : 	}
; 123  : 	else

	jmp	SHORT $LN5@YPosition
$LN2@YPosition:

; 124  : 	{
; 125  : 		if( y < 0 )

	xorps	xmm0, xmm0
	comiss	xmm0, DWORD PTR _y$[ebp]
	jbe	SHORT $LN4@YPosition

; 126  : 			yPos = (1.0 + y) * ScreenHeight - height;	// Alight bottom

	cvtss2sd xmm0, DWORD PTR _y$[ebp]
	addsd	xmm0, QWORD PTR __real@3ff0000000000000
	cvtsi2sd xmm1, DWORD PTR ?gHUD@@3VCHud@@A+8440
	mulsd	xmm0, xmm1
	cvtsi2sd xmm1, DWORD PTR _height$[ebp]
	subsd	xmm0, xmm1
	cvttsd2si eax, xmm0
	mov	DWORD PTR _yPos$[ebp], eax

; 127  : 		else

	jmp	SHORT $LN5@YPosition
$LN4@YPosition:

; 128  : 			yPos = y * ScreenHeight;

	cvtsi2ss xmm0, DWORD PTR ?gHUD@@3VCHud@@A+8440
	mulss	xmm0, DWORD PTR _y$[ebp]
	cvttss2si eax, xmm0
	mov	DWORD PTR _yPos$[ebp], eax
$LN5@YPosition:

; 129  : 	}
; 130  : 
; 131  : 	if( yPos + height > ScreenHeight )

	mov	eax, DWORD PTR _yPos$[ebp]
	add	eax, DWORD PTR _height$[ebp]
	cmp	eax, DWORD PTR ?gHUD@@3VCHud@@A+8440
	jle	SHORT $LN6@YPosition

; 132  : 		yPos = ScreenHeight - height;

	mov	eax, DWORD PTR ?gHUD@@3VCHud@@A+8440
	sub	eax, DWORD PTR _height$[ebp]
	mov	DWORD PTR _yPos$[ebp], eax
	jmp	SHORT $LN8@YPosition
$LN6@YPosition:

; 133  : 	else if( yPos < 0 )

	cmp	DWORD PTR _yPos$[ebp], 0
	jge	SHORT $LN8@YPosition

; 134  : 		yPos = 0;

	mov	DWORD PTR _yPos$[ebp], 0
$LN8@YPosition:

; 135  : 
; 136  : 	return yPos;

	mov	eax, DWORD PTR _yPos$[ebp]

; 137  : }

	pop	edi
	pop	esi
	pop	ebx
	mov	esp, ebp
	pop	ebp
	ret	8
?YPosition@CHudMessage@@QAEHMH@Z ENDP			; CHudMessage::YPosition
_TEXT	ENDS
; Function compile flags: /Odtp /ZI
; File d:\!diffusion 2020\source code 2022\client-server\client\message.cpp
;	COMDAT ?XPosition@CHudMessage@@QAEHMHH@Z
_TEXT	SEGMENT
_xPos$ = -8						; size = 4
_this$ = -4						; size = 4
_x$ = 8							; size = 4
_width$ = 12						; size = 4
_totalWidth$ = 16					; size = 4
?XPosition@CHudMessage@@QAEHMHH@Z PROC			; CHudMessage::XPosition, COMDAT
; _this$ = ecx

; 90   : {

	push	ebp
	mov	ebp, esp
	sub	esp, 72					; 00000048H
	push	ebx
	push	esi
	push	edi
	mov	DWORD PTR _this$[ebp], ecx

; 91   : 	int xPos;
; 92   : 
; 93   : 	if( x == -1 )

	movss	xmm0, DWORD PTR _x$[ebp]
	ucomiss	xmm0, DWORD PTR __real@bf800000
	lahf
	test	ah, 68					; 00000044H
	jp	SHORT $LN2@XPosition

; 94   : 	{
; 95   : 		// Centered?
; 96   : 		xPos = (ScreenWidth - width) * 0.5f;

	mov	eax, DWORD PTR ?gHUD@@3VCHud@@A+8436
	sub	eax, DWORD PTR _width$[ebp]
	cvtsi2ss xmm0, eax
	mulss	xmm0, DWORD PTR __real@3f000000
	cvttss2si ecx, xmm0
	mov	DWORD PTR _xPos$[ebp], ecx

; 97   : 	}
; 98   : 	else

	jmp	SHORT $LN5@XPosition
$LN2@XPosition:

; 99   : 	{
; 100  : 		if( x < 0 )

	xorps	xmm0, xmm0
	comiss	xmm0, DWORD PTR _x$[ebp]
	jbe	SHORT $LN4@XPosition

; 101  : 			xPos = ( 1.0f + x ) * ScreenWidth - totalWidth;	// Align right

	movss	xmm0, DWORD PTR __real@3f800000
	addss	xmm0, DWORD PTR _x$[ebp]
	cvtsi2ss xmm1, DWORD PTR ?gHUD@@3VCHud@@A+8436
	mulss	xmm0, xmm1
	cvtsi2ss xmm1, DWORD PTR _totalWidth$[ebp]
	subss	xmm0, xmm1
	cvttss2si eax, xmm0
	mov	DWORD PTR _xPos$[ebp], eax

; 102  : 		else

	jmp	SHORT $LN5@XPosition
$LN4@XPosition:

; 103  : 			xPos = x * ScreenWidth;

	cvtsi2ss xmm0, DWORD PTR ?gHUD@@3VCHud@@A+8436
	mulss	xmm0, DWORD PTR _x$[ebp]
	cvttss2si eax, xmm0
	mov	DWORD PTR _xPos$[ebp], eax
$LN5@XPosition:

; 104  : 	}
; 105  : 
; 106  : 	if( xPos + width > ScreenWidth )

	mov	eax, DWORD PTR _xPos$[ebp]
	add	eax, DWORD PTR _width$[ebp]
	cmp	eax, DWORD PTR ?gHUD@@3VCHud@@A+8436
	jle	SHORT $LN6@XPosition

; 107  : 		xPos = ScreenWidth - width;

	mov	eax, DWORD PTR ?gHUD@@3VCHud@@A+8436
	sub	eax, DWORD PTR _width$[ebp]
	mov	DWORD PTR _xPos$[ebp], eax
	jmp	SHORT $LN8@XPosition
$LN6@XPosition:

; 108  : 	else if( xPos < 0 )

	cmp	DWORD PTR _xPos$[ebp], 0
	jge	SHORT $LN8@XPosition

; 109  : 		xPos = 0;

	mov	DWORD PTR _xPos$[ebp], 0
$LN8@XPosition:

; 110  : 
; 111  : 	return xPos;

	mov	eax, DWORD PTR _xPos$[ebp]

; 112  : }

	pop	edi
	pop	esi
	pop	ebx
	mov	esp, ebp
	pop	ebp
	ret	12					; 0000000cH
?XPosition@CHudMessage@@QAEHMHH@Z ENDP			; CHudMessage::XPosition
_TEXT	ENDS
; Function compile flags: /Odtp /ZI
; File d:\!diffusion 2020\source code 2022\client-server\client\message.cpp
;	COMDAT ?FadeBlend@CHudMessage@@QAEMMMMM@Z
_TEXT	SEGMENT
_fadeBlend$ = -12					; size = 4
_fadeTime$ = -8						; size = 4
_this$ = -4						; size = 4
_fadein$ = 8						; size = 4
_fadeout$ = 12						; size = 4
_hold$ = 16						; size = 4
_localTime$ = 20					; size = 4
?FadeBlend@CHudMessage@@QAEMMMMM@Z PROC			; CHudMessage::FadeBlend, COMDAT
; _this$ = ecx

; 65   : {

	push	ebp
	mov	ebp, esp
	sub	esp, 76					; 0000004cH
	push	ebx
	push	esi
	push	edi
	mov	DWORD PTR _this$[ebp], ecx

; 66   : 	float fadeTime = fadein + hold;

	movss	xmm0, DWORD PTR _fadein$[ebp]
	addss	xmm0, DWORD PTR _hold$[ebp]
	movss	DWORD PTR _fadeTime$[ebp], xmm0

; 67   : 	float fadeBlend;
; 68   : 
; 69   : 	if( localTime < 0 )

	xorps	xmm0, xmm0
	comiss	xmm0, DWORD PTR _localTime$[ebp]
	jbe	SHORT $LN2@FadeBlend

; 70   : 		return 0;

	fldz
	jmp	$LN1@FadeBlend
$LN2@FadeBlend:

; 71   : 
; 72   : 	if( localTime < fadein )

	movss	xmm0, DWORD PTR _fadein$[ebp]
	comiss	xmm0, DWORD PTR _localTime$[ebp]
	jbe	SHORT $LN3@FadeBlend

; 73   : 	{
; 74   : 		fadeBlend = 1 - ((fadein - localTime) / fadein);

	movss	xmm0, DWORD PTR _fadein$[ebp]
	subss	xmm0, DWORD PTR _localTime$[ebp]
	divss	xmm0, DWORD PTR _fadein$[ebp]
	movss	xmm1, DWORD PTR __real@3f800000
	subss	xmm1, xmm0
	movss	DWORD PTR _fadeBlend$[ebp], xmm1
	jmp	SHORT $LN6@FadeBlend
$LN3@FadeBlend:

; 75   : 	}
; 76   : 	else if( localTime > fadeTime )

	movss	xmm0, DWORD PTR _localTime$[ebp]
	comiss	xmm0, DWORD PTR _fadeTime$[ebp]
	jbe	SHORT $LN5@FadeBlend

; 77   : 	{
; 78   : 		if( fadeout > 0 )

	movss	xmm0, DWORD PTR _fadeout$[ebp]
	comiss	xmm0, DWORD PTR __real@00000000
	jbe	SHORT $LN7@FadeBlend

; 79   : 			fadeBlend = 1 - ((localTime - fadeTime) / fadeout);

	movss	xmm0, DWORD PTR _localTime$[ebp]
	subss	xmm0, DWORD PTR _fadeTime$[ebp]
	divss	xmm0, DWORD PTR _fadeout$[ebp]
	movss	xmm1, DWORD PTR __real@3f800000
	subss	xmm1, xmm0
	movss	DWORD PTR _fadeBlend$[ebp], xmm1

; 80   : 		else

	jmp	SHORT $LN8@FadeBlend
$LN7@FadeBlend:

; 81   : 			fadeBlend = 0;

	xorps	xmm0, xmm0
	movss	DWORD PTR _fadeBlend$[ebp], xmm0
$LN8@FadeBlend:

; 82   : 	}
; 83   : 	else

	jmp	SHORT $LN6@FadeBlend
$LN5@FadeBlend:

; 84   : 		fadeBlend = 1;

	movss	xmm0, DWORD PTR __real@3f800000
	movss	DWORD PTR _fadeBlend$[ebp], xmm0
$LN6@FadeBlend:

; 85   : 
; 86   : 	return fadeBlend;

	fld	DWORD PTR _fadeBlend$[ebp]
$LN1@FadeBlend:

; 87   : }

	pop	edi
	pop	esi
	pop	ebx
	mov	esp, ebp
	pop	ebp
	ret	16					; 00000010H
?FadeBlend@CHudMessage@@QAEMMMMM@Z ENDP			; CHudMessage::FadeBlend
_TEXT	ENDS
; Function compile flags: /Odtp /ZI
; File d:\!diffusion 2020\source code 2022\client-server\client\message.cpp
;	COMDAT ?MsgFunc_GameTitle@CHudMessage@@QAEHPBDHPAX@Z
_TEXT	SEGMENT
_this$ = -4						; size = 4
_pszName$ = 8						; size = 4
_iSize$ = 12						; size = 4
_pbuf$ = 16						; size = 4
?MsgFunc_GameTitle@CHudMessage@@QAEHPBDHPAX@Z PROC	; CHudMessage::MsgFunc_GameTitle, COMDAT
; _this$ = ecx

; 512  : {

	push	ebp
	mov	ebp, esp
	sub	esp, 68					; 00000044H
	push	ebx
	push	esi
	push	edi
	mov	DWORD PTR _this$[ebp], ecx

; 513  : 	m_pGameTitle = TextMessageGet( "GAMETITLE" );

	push	OFFSET ??_C@_09HPEMDGDO@GAMETITLE?$AA@
	call	DWORD PTR ?gEngfuncs@@3Ucl_enginefuncs_s@@A+100
	add	esp, 4
	mov	ecx, DWORD PTR _this$[ebp]
	mov	DWORD PTR [ecx+208], eax

; 514  : 
; 515  : 	if( m_pGameTitle != NULL )

	mov	eax, DWORD PTR _this$[ebp]
	cmp	DWORD PTR [eax+208], 0
	je	SHORT $LN2@MsgFunc_Ga

; 516  : 	{
; 517  : 		m_gameTitleTime = gHUD.m_flTime;

	mov	eax, DWORD PTR _this$[ebp]
	movss	xmm0, DWORD PTR ?gHUD@@3VCHud@@A+32
	movss	DWORD PTR [eax+204], xmm0

; 518  : 
; 519  : 		// turn on drawing
; 520  : 		m_iFlags |= HUD_ACTIVE;

	mov	eax, DWORD PTR _this$[ebp]
	mov	ecx, DWORD PTR [eax+4]
	or	ecx, 1
	mov	edx, DWORD PTR _this$[ebp]
	mov	DWORD PTR [edx+4], ecx
$LN2@MsgFunc_Ga:

; 521  : 	}
; 522  : 	return 1;

	mov	eax, 1

; 523  : }

	pop	edi
	pop	esi
	pop	ebx
	mov	esp, ebp
	pop	ebp
	ret	12					; 0000000cH
?MsgFunc_GameTitle@CHudMessage@@QAEHPBDHPAX@Z ENDP	; CHudMessage::MsgFunc_GameTitle
_TEXT	ENDS
; Function compile flags: /Odtp /ZI
; File d:\!diffusion 2020\source code 2022\client-server\client\message.cpp
;	COMDAT ?MsgFunc_HudText@CHudMessage@@QAEHPBDHPAX@Z
_TEXT	SEGMENT
_pString$ = -8						; size = 4
_this$ = -4						; size = 4
_pszName$ = 8						; size = 4
_iSize$ = 12						; size = 4
_pbuf$ = 16						; size = 4
?MsgFunc_HudText@CHudMessage@@QAEHPBDHPAX@Z PROC	; CHudMessage::MsgFunc_HudText, COMDAT
; _this$ = ecx

; 484  : {

	push	ebp
	mov	ebp, esp
	sub	esp, 72					; 00000048H
	push	ebx
	push	esi
	push	edi
	mov	DWORD PTR _this$[ebp], ecx

; 485  : 	BEGIN_READ( pszName, pbuf, iSize );

	mov	eax, DWORD PTR _iSize$[ebp]
	push	eax
	mov	ecx, DWORD PTR _pbuf$[ebp]
	push	ecx
	mov	edx, DWORD PTR _pszName$[ebp]
	push	edx
	call	?BEGIN_READ@@YAXPBDPAXH@Z		; BEGIN_READ
	add	esp, 12					; 0000000cH

; 486  : 
; 487  : 	char *pString = READ_STRING();

	call	?READ_STRING@@YAPADXZ			; READ_STRING
	mov	DWORD PTR _pString$[ebp], eax

; 488  : 
; 489  : 	// diffusion - hack
; 490  : 	if( !stricmp(pString, "GAMESAVED") )

	push	OFFSET ??_C@_09OOPKIPAC@GAMESAVED?$AA@
	mov	eax, DWORD PTR _pString$[ebp]
	push	eax
	call	_stricmp
	add	esp, 8
	test	eax, eax
	jne	SHORT $LN2@MsgFunc_Hu

; 491  : 	{
; 492  : 		gHUD.m_ScreenEffects.SaveIcon_Reset = true;

	mov	BYTE PTR ?gHUD@@3VCHud@@A+7789, 1

; 493  : 		gHUD.m_ScreenEffects.ShouldDrawGameSaved = true;

	mov	BYTE PTR ?gHUD@@3VCHud@@A+7788, 1

; 494  : 		END_READ();

	call	?END_READ@@YAXXZ			; END_READ

; 495  : 		return 1;

	mov	eax, 1
	jmp	SHORT $LN1@MsgFunc_Hu
$LN2@MsgFunc_Hu:

; 496  : 	}
; 497  : 
; 498  : 	MessageAdd( pString, gHUD.m_flTime );

	push	ecx
	movss	xmm0, DWORD PTR ?gHUD@@3VCHud@@A+32
	movss	DWORD PTR [esp], xmm0
	mov	eax, DWORD PTR _pString$[ebp]
	push	eax
	mov	ecx, DWORD PTR _this$[ebp]
	call	?MessageAdd@CHudMessage@@QAEXPBDM@Z	; CHudMessage::MessageAdd

; 499  : 
; 500  : 	// remember the time -- to fix up level transitions
; 501  : 	m_parms.time = gHUD.m_flTime;

	mov	eax, DWORD PTR _this$[ebp]
	movss	xmm0, DWORD PTR ?gHUD@@3VCHud@@A+32
	movss	DWORD PTR [eax+140], xmm0

; 502  : 
; 503  : 	// turn on drawing
; 504  : 	m_iFlags |= HUD_ACTIVE;

	mov	eax, DWORD PTR _this$[ebp]
	mov	ecx, DWORD PTR [eax+4]
	or	ecx, 1
	mov	edx, DWORD PTR _this$[ebp]
	mov	DWORD PTR [edx+4], ecx

; 505  : 
; 506  : 	END_READ();

	call	?END_READ@@YAXXZ			; END_READ

; 507  : 
; 508  : 	return 1;

	mov	eax, 1
$LN1@MsgFunc_Hu:

; 509  : }

	pop	edi
	pop	esi
	pop	ebx
	mov	esp, ebp
	pop	ebp
	ret	12					; 0000000cH
?MsgFunc_HudText@CHudMessage@@QAEHPBDHPAX@Z ENDP	; CHudMessage::MsgFunc_HudText
_TEXT	ENDS
; Function compile flags: /Odtp /ZI
; File d:\!diffusion 2020\source code 2022\client-server\client\message.cpp
;	COMDAT ?Draw@CHudMessage@@UAEHM@Z
_TEXT	SEGMENT
tv467 = -128						; size = 8
tv464 = -120						; size = 4
tv276 = -120						; size = 4
_messageTime$1 = -52					; size = 4
_y$2 = -48						; size = 4
_x$3 = -44						; size = 4
_fullHeight$4 = -40					; size = 4
_fullWidth$5 = -36					; size = 4
_halfWidth$6 = -32					; size = 4
_brightness$7 = -28					; size = 4
_localTime$8 = -24					; size = 4
_endTime$ = -20						; size = 4
_pMessage$ = -16					; size = 4
_drawn$ = -12						; size = 4
_i$ = -8						; size = 4
_this$ = -4						; size = 4
_fTime$ = 8						; size = 4
?Draw@CHudMessage@@UAEHM@Z PROC				; CHudMessage::Draw, COMDAT
; _this$ = ecx

; 318  : {

	push	ebp
	mov	ebp, esp
	sub	esp, 128				; 00000080H
	push	ebx
	push	esi
	push	edi
	mov	DWORD PTR _this$[ebp], ecx

; 319  : 	int i, drawn;
; 320  : 	client_textmessage_t *pMessage;
; 321  : 	float endTime;
; 322  : 
; 323  : 	drawn = 0;

	mov	DWORD PTR _drawn$[ebp], 0

; 324  : 
; 325  : 	if( tr.time == tr.oldtime ) // paused

	movsd	xmm0, QWORD PTR ?tr@@3Uref_globals_t@@A+8
	ucomisd	xmm0, QWORD PTR ?tr@@3Uref_globals_t@@A+16
	lahf
	test	ah, 68					; 00000044H
	jp	SHORT $LN10@Draw

; 326  : 		return 1;

	mov	eax, 1
	jmp	$LN1@Draw
$LN10@Draw:

; 327  : 
; 328  : 	if( m_gameTitleTime > 0 )

	mov	eax, DWORD PTR _this$[ebp]
	movss	xmm0, DWORD PTR [eax+204]
	comiss	xmm0, DWORD PTR __real@00000000
	jbe	$LN14@Draw

; 329  : 	{
; 330  : 		float localTime = gHUD.m_flTime - m_gameTitleTime;

	mov	eax, DWORD PTR _this$[ebp]
	movss	xmm0, DWORD PTR ?gHUD@@3VCHud@@A+32
	subss	xmm0, DWORD PTR [eax+204]
	movss	DWORD PTR _localTime$8[ebp], xmm0

; 331  : 		float brightness;
; 332  : 
; 333  : 		// Maybe timer isn't set yet
; 334  : 		if ( m_gameTitleTime > gHUD.m_flTime )

	mov	eax, DWORD PTR _this$[ebp]
	movss	xmm0, DWORD PTR [eax+204]
	comiss	xmm0, DWORD PTR ?gHUD@@3VCHud@@A+32
	jbe	SHORT $LN12@Draw

; 335  : 			m_gameTitleTime = gHUD.m_flTime;

	mov	eax, DWORD PTR _this$[ebp]
	movss	xmm0, DWORD PTR ?gHUD@@3VCHud@@A+32
	movss	DWORD PTR [eax+204], xmm0
$LN12@Draw:

; 336  : 
; 337  : 		if ( localTime > (m_pGameTitle->fadein + m_pGameTitle->holdtime + m_pGameTitle->fadeout) )

	mov	eax, DWORD PTR _this$[ebp]
	mov	ecx, DWORD PTR [eax+208]
	mov	edx, DWORD PTR _this$[ebp]
	mov	eax, DWORD PTR [edx+208]
	movss	xmm0, DWORD PTR [ecx+20]
	addss	xmm0, DWORD PTR [eax+28]
	mov	ecx, DWORD PTR _this$[ebp]
	mov	edx, DWORD PTR [ecx+208]
	addss	xmm0, DWORD PTR [edx+24]
	movss	xmm1, DWORD PTR _localTime$8[ebp]
	comiss	xmm1, xmm0
	jbe	SHORT $LN13@Draw

; 338  : 			m_gameTitleTime = 0;

	mov	eax, DWORD PTR _this$[ebp]
	xorps	xmm0, xmm0
	movss	DWORD PTR [eax+204], xmm0

; 339  : 		else

	jmp	$LN14@Draw
$LN13@Draw:

; 340  : 		{
; 341  : 			brightness = FadeBlend( m_pGameTitle->fadein, m_pGameTitle->fadeout, m_pGameTitle->holdtime, localTime );

	push	ecx
	movss	xmm0, DWORD PTR _localTime$8[ebp]
	movss	DWORD PTR [esp], xmm0
	mov	eax, DWORD PTR _this$[ebp]
	mov	ecx, DWORD PTR [eax+208]
	push	ecx
	movss	xmm0, DWORD PTR [ecx+28]
	movss	DWORD PTR [esp], xmm0
	mov	edx, DWORD PTR _this$[ebp]
	mov	eax, DWORD PTR [edx+208]
	push	ecx
	movss	xmm0, DWORD PTR [eax+24]
	movss	DWORD PTR [esp], xmm0
	mov	ecx, DWORD PTR _this$[ebp]
	mov	edx, DWORD PTR [ecx+208]
	push	ecx
	movss	xmm0, DWORD PTR [edx+20]
	movss	DWORD PTR [esp], xmm0
	mov	ecx, DWORD PTR _this$[ebp]
	call	?FadeBlend@CHudMessage@@QAEMMMMM@Z	; CHudMessage::FadeBlend
	fstp	DWORD PTR _brightness$7[ebp]

; 342  : 
; 343  : 			int halfWidth = gHUD.GetSpriteRect(m_HUD_title_half).right - gHUD.GetSpriteRect(m_HUD_title_half).left;

	mov	eax, DWORD PTR _this$[ebp]
	mov	ecx, DWORD PTR [eax+216]
	push	ecx
	mov	ecx, OFFSET ?gHUD@@3VCHud@@A		; gHUD
	call	?GetSpriteRect@CHud@@QAEAAUwrect_s@@H@Z	; CHud::GetSpriteRect
	mov	esi, eax
	mov	edx, DWORD PTR _this$[ebp]
	mov	eax, DWORD PTR [edx+216]
	push	eax
	mov	ecx, OFFSET ?gHUD@@3VCHud@@A		; gHUD
	call	?GetSpriteRect@CHud@@QAEAAUwrect_s@@H@Z	; CHud::GetSpriteRect
	mov	ecx, DWORD PTR [esi+4]
	sub	ecx, DWORD PTR [eax]
	mov	DWORD PTR _halfWidth$6[ebp], ecx

; 344  : 			int fullWidth = halfWidth + gHUD.GetSpriteRect(m_HUD_title_life).right - gHUD.GetSpriteRect(m_HUD_title_life).left;

	mov	eax, DWORD PTR _this$[ebp]
	mov	ecx, DWORD PTR [eax+212]
	push	ecx
	mov	ecx, OFFSET ?gHUD@@3VCHud@@A		; gHUD
	call	?GetSpriteRect@CHud@@QAEAAUwrect_s@@H@Z	; CHud::GetSpriteRect
	mov	esi, DWORD PTR _halfWidth$6[ebp]
	add	esi, DWORD PTR [eax+4]
	mov	edx, DWORD PTR _this$[ebp]
	mov	eax, DWORD PTR [edx+212]
	push	eax
	mov	ecx, OFFSET ?gHUD@@3VCHud@@A		; gHUD
	call	?GetSpriteRect@CHud@@QAEAAUwrect_s@@H@Z	; CHud::GetSpriteRect
	sub	esi, DWORD PTR [eax]
	mov	DWORD PTR _fullWidth$5[ebp], esi

; 345  : 			int fullHeight = gHUD.GetSpriteRect(m_HUD_title_half).bottom - gHUD.GetSpriteRect(m_HUD_title_half).top;

	mov	eax, DWORD PTR _this$[ebp]
	mov	ecx, DWORD PTR [eax+216]
	push	ecx
	mov	ecx, OFFSET ?gHUD@@3VCHud@@A		; gHUD
	call	?GetSpriteRect@CHud@@QAEAAUwrect_s@@H@Z	; CHud::GetSpriteRect
	mov	esi, eax
	mov	edx, DWORD PTR _this$[ebp]
	mov	eax, DWORD PTR [edx+216]
	push	eax
	mov	ecx, OFFSET ?gHUD@@3VCHud@@A		; gHUD
	call	?GetSpriteRect@CHud@@QAEAAUwrect_s@@H@Z	; CHud::GetSpriteRect
	mov	ecx, DWORD PTR [esi+12]
	sub	ecx, DWORD PTR [eax+8]
	mov	DWORD PTR _fullHeight$4[ebp], ecx

; 346  : 
; 347  : 			int x = XPosition( m_pGameTitle->x, fullWidth, fullWidth );

	mov	eax, DWORD PTR _fullWidth$5[ebp]
	push	eax
	mov	ecx, DWORD PTR _fullWidth$5[ebp]
	push	ecx
	mov	edx, DWORD PTR _this$[ebp]
	mov	eax, DWORD PTR [edx+208]
	push	ecx
	movss	xmm0, DWORD PTR [eax+12]
	movss	DWORD PTR [esp], xmm0
	mov	ecx, DWORD PTR _this$[ebp]
	call	?XPosition@CHudMessage@@QAEHMHH@Z	; CHudMessage::XPosition
	mov	DWORD PTR _x$3[ebp], eax

; 348  : 			int y = YPosition( m_pGameTitle->y, fullHeight );

	mov	eax, DWORD PTR _fullHeight$4[ebp]
	push	eax
	mov	ecx, DWORD PTR _this$[ebp]
	mov	edx, DWORD PTR [ecx+208]
	push	ecx
	movss	xmm0, DWORD PTR [edx+16]
	movss	DWORD PTR [esp], xmm0
	mov	ecx, DWORD PTR _this$[ebp]
	call	?YPosition@CHudMessage@@QAEHMH@Z	; CHudMessage::YPosition
	mov	DWORD PTR _y$2[ebp], eax

; 349  : 
; 350  : 
; 351  : 			SPR_Set( gHUD.GetSprite(m_HUD_title_half), brightness * m_pGameTitle->r1, brightness * m_pGameTitle->g1, brightness * m_pGameTitle->b1 );

	mov	eax, DWORD PTR _this$[ebp]
	mov	ecx, DWORD PTR [eax+208]
	movzx	edx, BYTE PTR [ecx+6]
	cvtsi2ss xmm0, edx
	mulss	xmm0, DWORD PTR _brightness$7[ebp]
	cvttss2si eax, xmm0
	push	eax
	mov	ecx, DWORD PTR _this$[ebp]
	mov	edx, DWORD PTR [ecx+208]
	movzx	eax, BYTE PTR [edx+5]
	cvtsi2ss xmm0, eax
	mulss	xmm0, DWORD PTR _brightness$7[ebp]
	cvttss2si ecx, xmm0
	push	ecx
	mov	edx, DWORD PTR _this$[ebp]
	mov	eax, DWORD PTR [edx+208]
	movzx	ecx, BYTE PTR [eax+4]
	cvtsi2ss xmm0, ecx
	mulss	xmm0, DWORD PTR _brightness$7[ebp]
	cvttss2si edx, xmm0
	push	edx
	mov	eax, DWORD PTR _this$[ebp]
	mov	ecx, DWORD PTR [eax+216]
	push	ecx
	mov	ecx, OFFSET ?gHUD@@3VCHud@@A		; gHUD
	call	?GetSprite@CHud@@QAEHH@Z		; CHud::GetSprite
	push	eax
	call	DWORD PTR ?gEngfuncs@@3Ucl_enginefuncs_s@@A+16
	add	esp, 16					; 00000010H

; 352  : 			SPR_DrawAdditive( 0, x, y, &gHUD.GetSpriteRect(m_HUD_title_half) );

	mov	eax, DWORD PTR _this$[ebp]
	mov	ecx, DWORD PTR [eax+216]
	push	ecx
	mov	ecx, OFFSET ?gHUD@@3VCHud@@A		; gHUD
	call	?GetSpriteRect@CHud@@QAEAAUwrect_s@@H@Z	; CHud::GetSpriteRect
	push	eax
	mov	edx, DWORD PTR _y$2[ebp]
	push	edx
	mov	eax, DWORD PTR _x$3[ebp]
	push	eax
	push	0
	call	DWORD PTR ?gEngfuncs@@3Ucl_enginefuncs_s@@A+28
	add	esp, 16					; 00000010H

; 353  : 
; 354  : 			SPR_Set( gHUD.GetSprite(m_HUD_title_life), brightness * m_pGameTitle->r1, brightness * m_pGameTitle->g1, brightness * m_pGameTitle->b1 );

	mov	eax, DWORD PTR _this$[ebp]
	mov	ecx, DWORD PTR [eax+208]
	movzx	edx, BYTE PTR [ecx+6]
	cvtsi2ss xmm0, edx
	mulss	xmm0, DWORD PTR _brightness$7[ebp]
	cvttss2si eax, xmm0
	push	eax
	mov	ecx, DWORD PTR _this$[ebp]
	mov	edx, DWORD PTR [ecx+208]
	movzx	eax, BYTE PTR [edx+5]
	cvtsi2ss xmm0, eax
	mulss	xmm0, DWORD PTR _brightness$7[ebp]
	cvttss2si ecx, xmm0
	push	ecx
	mov	edx, DWORD PTR _this$[ebp]
	mov	eax, DWORD PTR [edx+208]
	movzx	ecx, BYTE PTR [eax+4]
	cvtsi2ss xmm0, ecx
	mulss	xmm0, DWORD PTR _brightness$7[ebp]
	cvttss2si edx, xmm0
	push	edx
	mov	eax, DWORD PTR _this$[ebp]
	mov	ecx, DWORD PTR [eax+212]
	push	ecx
	mov	ecx, OFFSET ?gHUD@@3VCHud@@A		; gHUD
	call	?GetSprite@CHud@@QAEHH@Z		; CHud::GetSprite
	push	eax
	call	DWORD PTR ?gEngfuncs@@3Ucl_enginefuncs_s@@A+16
	add	esp, 16					; 00000010H

; 355  : 			SPR_DrawAdditive( 0, x + halfWidth, y, &gHUD.GetSpriteRect(m_HUD_title_life) );

	mov	eax, DWORD PTR _this$[ebp]
	mov	ecx, DWORD PTR [eax+212]
	push	ecx
	mov	ecx, OFFSET ?gHUD@@3VCHud@@A		; gHUD
	call	?GetSpriteRect@CHud@@QAEAAUwrect_s@@H@Z	; CHud::GetSpriteRect
	push	eax
	mov	edx, DWORD PTR _y$2[ebp]
	push	edx
	mov	eax, DWORD PTR _x$3[ebp]
	add	eax, DWORD PTR _halfWidth$6[ebp]
	push	eax
	push	0
	call	DWORD PTR ?gEngfuncs@@3Ucl_enginefuncs_s@@A+28
	add	esp, 16					; 00000010H

; 356  : 
; 357  : 			drawn = 1;

	mov	DWORD PTR _drawn$[ebp], 1
$LN14@Draw:

; 358  : 		}
; 359  : 	}
; 360  : 
; 361  : 	// fixup level transitions
; 362  : 	for( i = 0; i < maxHUDMessages; i++ )

	mov	DWORD PTR _i$[ebp], 0
	jmp	SHORT $LN4@Draw
$LN2@Draw:
	mov	eax, DWORD PTR _i$[ebp]
	add	eax, 1
	mov	DWORD PTR _i$[ebp], eax
$LN4@Draw:
	cmp	DWORD PTR _i$[ebp], 16			; 00000010H
	jge	SHORT $LN3@Draw

; 363  : 	{
; 364  : 		// assume m_parms.time contains last time
; 365  : 		if( m_pMessages[i] )

	mov	eax, DWORD PTR _i$[ebp]
	mov	ecx, DWORD PTR _this$[ebp]
	cmp	DWORD PTR [ecx+eax*4+8], 0
	je	SHORT $LN16@Draw

; 366  : 		{
; 367  : 			pMessage = m_pMessages[i];

	mov	eax, DWORD PTR _i$[ebp]
	mov	ecx, DWORD PTR _this$[ebp]
	mov	edx, DWORD PTR [ecx+eax*4+8]
	mov	DWORD PTR _pMessage$[ebp], edx

; 368  : 			if( m_startTime[i] > gHUD.m_flTime )

	mov	eax, DWORD PTR _i$[ebp]
	mov	ecx, DWORD PTR _this$[ebp]
	movss	xmm0, DWORD PTR [ecx+eax*4+72]
	comiss	xmm0, DWORD PTR ?gHUD@@3VCHud@@A+32
	jbe	SHORT $LN16@Draw

; 369  : 			{
; 370  : 				// server takes 0.2 seconds to spawn, adjust for this
; 371  : 				m_startTime[i] = gHUD.m_flTime + m_parms.time - m_startTime[i] + 0.2f;

	mov	eax, DWORD PTR _this$[ebp]
	movss	xmm0, DWORD PTR ?gHUD@@3VCHud@@A+32
	addss	xmm0, DWORD PTR [eax+140]
	mov	ecx, DWORD PTR _i$[ebp]
	mov	edx, DWORD PTR _this$[ebp]
	subss	xmm0, DWORD PTR [edx+ecx*4+72]
	addss	xmm0, DWORD PTR __real@3e4ccccd
	mov	eax, DWORD PTR _i$[ebp]
	mov	ecx, DWORD PTR _this$[ebp]
	movss	DWORD PTR [ecx+eax*4+72], xmm0
$LN16@Draw:

; 372  : 			}
; 373  : 		}
; 374  : 	}

	jmp	SHORT $LN2@Draw
$LN3@Draw:

; 375  : 
; 376  : 	for( i = 0; i < maxHUDMessages; i++ )

	mov	DWORD PTR _i$[ebp], 0
	jmp	SHORT $LN7@Draw
$LN5@Draw:
	mov	eax, DWORD PTR _i$[ebp]
	add	eax, 1
	mov	DWORD PTR _i$[ebp], eax
$LN7@Draw:
	cmp	DWORD PTR _i$[ebp], 16			; 00000010H
	jge	$LN6@Draw

; 377  : 	{
; 378  : 		if( m_pMessages[i] )

	mov	eax, DWORD PTR _i$[ebp]
	mov	ecx, DWORD PTR _this$[ebp]
	cmp	DWORD PTR [ecx+eax*4+8], 0
	je	$LN21@Draw

; 379  : 		{
; 380  : 			pMessage = m_pMessages[i];

	mov	eax, DWORD PTR _i$[ebp]
	mov	ecx, DWORD PTR _this$[ebp]
	mov	edx, DWORD PTR [ecx+eax*4+8]
	mov	DWORD PTR _pMessage$[ebp], edx

; 381  : 
; 382  : 			// This is when the message is over
; 383  : 			switch( pMessage->effect )

	mov	eax, DWORD PTR _pMessage$[ebp]
	mov	ecx, DWORD PTR [eax]
	mov	DWORD PTR tv276[ebp], ecx
	cmp	DWORD PTR tv276[ebp], 0
	jl	$LN8@Draw
	cmp	DWORD PTR tv276[ebp], 1
	jle	SHORT $LN18@Draw
	cmp	DWORD PTR tv276[ebp], 2
	je	SHORT $LN19@Draw
	jmp	$LN8@Draw
$LN18@Draw:

; 384  : 			{
; 385  : 			case 0:
; 386  : 			case 1:
; 387  : 				endTime = m_startTime[i] + pMessage->fadein + pMessage->fadeout + pMessage->holdtime;

	mov	eax, DWORD PTR _i$[ebp]
	mov	ecx, DWORD PTR _this$[ebp]
	mov	edx, DWORD PTR _pMessage$[ebp]
	movss	xmm0, DWORD PTR [ecx+eax*4+72]
	addss	xmm0, DWORD PTR [edx+20]
	mov	eax, DWORD PTR _pMessage$[ebp]
	addss	xmm0, DWORD PTR [eax+24]
	mov	ecx, DWORD PTR _pMessage$[ebp]
	addss	xmm0, DWORD PTR [ecx+28]
	movss	DWORD PTR _endTime$[ebp], xmm0

; 388  : 				break;

	jmp	SHORT $LN8@Draw
$LN19@Draw:

; 389  : 			case 2:	// Fade in is per character in scanning messages
; 390  : 				endTime = m_startTime[i] + (pMessage->fadein * strlen( pMessage->pMessage )) + pMessage->fadeout + pMessage->holdtime;

	mov	eax, DWORD PTR _pMessage$[ebp]
	mov	ecx, DWORD PTR [eax+40]
	push	ecx
	call	_strlen
	add	esp, 4
	mov	DWORD PTR tv464[ebp], eax
	cvtsi2sd xmm0, DWORD PTR tv464[ebp]
	mov	edx, DWORD PTR tv464[ebp]
	shr	edx, 31					; 0000001fH
	addsd	xmm0, QWORD PTR __xmm@41f00000000000000000000000000000[edx*8]
	movsd	QWORD PTR tv467[ebp], xmm0
	cvtsd2ss xmm0, QWORD PTR tv467[ebp]
	mov	eax, DWORD PTR _pMessage$[ebp]
	mulss	xmm0, DWORD PTR [eax+20]
	mov	ecx, DWORD PTR _i$[ebp]
	mov	edx, DWORD PTR _this$[ebp]
	addss	xmm0, DWORD PTR [edx+ecx*4+72]
	mov	eax, DWORD PTR _pMessage$[ebp]
	addss	xmm0, DWORD PTR [eax+24]
	mov	ecx, DWORD PTR _pMessage$[ebp]
	addss	xmm0, DWORD PTR [ecx+28]
	movss	DWORD PTR _endTime$[ebp], xmm0
$LN8@Draw:

; 391  : 				break;
; 392  : 			}
; 393  : 
; 394  : 			if( fTime <= endTime )

	movss	xmm0, DWORD PTR _endTime$[ebp]
	comiss	xmm0, DWORD PTR _fTime$[ebp]
	jb	SHORT $LN20@Draw

; 395  : 			{
; 396  : 				float messageTime = fTime - m_startTime[i];

	mov	eax, DWORD PTR _i$[ebp]
	mov	ecx, DWORD PTR _this$[ebp]
	movss	xmm0, DWORD PTR _fTime$[ebp]
	subss	xmm0, DWORD PTR [ecx+eax*4+72]
	movss	DWORD PTR _messageTime$1[ebp], xmm0

; 397  : 
; 398  : 				// Draw the message
; 399  : 				// effect 0 is fade in/fade out
; 400  : 				// effect 1 is flickery credits
; 401  : 				// effect 2 is write out (training room)
; 402  : 				MessageDrawScan( pMessage, messageTime );

	push	ecx
	movss	xmm0, DWORD PTR _messageTime$1[ebp]
	movss	DWORD PTR [esp], xmm0
	mov	eax, DWORD PTR _pMessage$[ebp]
	push	eax
	mov	ecx, DWORD PTR _this$[ebp]
	call	?MessageDrawScan@CHudMessage@@QAEXPAUclient_textmessage_s@@M@Z ; CHudMessage::MessageDrawScan

; 403  : 
; 404  : 				drawn++;

	mov	eax, DWORD PTR _drawn$[ebp]
	add	eax, 1
	mov	DWORD PTR _drawn$[ebp], eax

; 405  : 			}
; 406  : 			else

	jmp	SHORT $LN21@Draw
$LN20@Draw:

; 407  : 			{
; 408  : 				// The message is over
; 409  : 				m_pMessages[i] = NULL;

	mov	eax, DWORD PTR _i$[ebp]
	mov	ecx, DWORD PTR _this$[ebp]
	mov	DWORD PTR [ecx+eax*4+8], 0
$LN21@Draw:

; 410  : 			}
; 411  : 		}
; 412  : 	}

	jmp	$LN5@Draw
$LN6@Draw:

; 413  : 
; 414  : 	// remember the time -- to fix up level transitions
; 415  : 	m_parms.time = gHUD.m_flTime;

	mov	eax, DWORD PTR _this$[ebp]
	movss	xmm0, DWORD PTR ?gHUD@@3VCHud@@A+32
	movss	DWORD PTR [eax+140], xmm0

; 416  : 
; 417  : 	// don't call until we get another message
; 418  : 	if( !drawn ) m_iFlags &= ~HUD_ACTIVE;

	cmp	DWORD PTR _drawn$[ebp], 0
	jne	SHORT $LN22@Draw
	mov	eax, DWORD PTR _this$[ebp]
	mov	ecx, DWORD PTR [eax+4]
	and	ecx, -2					; fffffffeH
	mov	edx, DWORD PTR _this$[ebp]
	mov	DWORD PTR [edx+4], ecx
$LN22@Draw:

; 419  : 
; 420  : 	return 1;

	mov	eax, 1
$LN1@Draw:

; 421  : }

	pop	edi
	pop	esi
	pop	ebx
	mov	esp, ebp
	pop	ebp
	ret	4
?Draw@CHudMessage@@UAEHM@Z ENDP				; CHudMessage::Draw
_TEXT	ENDS
; Function compile flags: /Odtp /ZI
; File d:\!diffusion 2020\source code 2022\client-server\client\message.cpp
;	COMDAT ?VidInit@CHudMessage@@UAEHXZ
_TEXT	SEGMENT
_this$ = -4						; size = 4
?VidInit@CHudMessage@@UAEHXZ PROC			; CHudMessage::VidInit, COMDAT
; _this$ = ecx

; 48   : {

	push	ebp
	mov	ebp, esp
	sub	esp, 68					; 00000044H
	push	ebx
	push	esi
	push	edi
	mov	DWORD PTR _this$[ebp], ecx

; 49   : 	m_HUD_title_half = gHUD.GetSpriteIndex( "title_half" );

	push	OFFSET ??_C@_0L@KBJOOMBK@title_half?$AA@
	mov	ecx, OFFSET ?gHUD@@3VCHud@@A		; gHUD
	call	?GetSpriteIndex@CHud@@QAEHPBD@Z		; CHud::GetSpriteIndex
	mov	ecx, DWORD PTR _this$[ebp]
	mov	DWORD PTR [ecx+216], eax

; 50   : 	m_HUD_title_life = gHUD.GetSpriteIndex( "title_life" );

	push	OFFSET ??_C@_0L@LHBALECA@title_life?$AA@
	mov	ecx, OFFSET ?gHUD@@3VCHud@@A		; gHUD
	call	?GetSpriteIndex@CHud@@QAEHPBD@Z		; CHud::GetSpriteIndex
	mov	ecx, DWORD PTR _this$[ebp]
	mov	DWORD PTR [ecx+212], eax

; 51   : 
; 52   : 	return 1;

	mov	eax, 1

; 53   : }

	pop	edi
	pop	esi
	pop	ebx
	mov	esp, ebp
	pop	ebp
	ret	0
?VidInit@CHudMessage@@UAEHXZ ENDP			; CHudMessage::VidInit
_TEXT	ENDS
; Function compile flags: /Odtp /ZI
; File d:\!diffusion 2020\source code 2022\client-server\client\message.cpp
;	COMDAT ?Init@CHudMessage@@UAEHXZ
_TEXT	SEGMENT
_this$ = -4						; size = 4
?Init@CHudMessage@@UAEHXZ PROC				; CHudMessage::Init, COMDAT
; _this$ = ecx

; 36   : {

	push	ebp
	mov	ebp, esp
	sub	esp, 68					; 00000044H
	push	ebx
	push	esi
	push	edi
	mov	DWORD PTR _this$[ebp], ecx

; 37   : 	HOOK_MESSAGE( HudText );

	push	OFFSET ?__MsgFunc_HudText@@YAHPBDHPAX@Z	; __MsgFunc_HudText
	push	OFFSET ??_C@_07JNEKKACO@HudText?$AA@
	call	DWORD PTR ?gEngfuncs@@3Ucl_enginefuncs_s@@A+72
	add	esp, 8

; 38   : 	HOOK_MESSAGE( GameTitle );

	push	OFFSET ?__MsgFunc_GameTitle@@YAHPBDHPAX@Z ; __MsgFunc_GameTitle
	push	OFFSET ??_C@_09HEMANCP@GameTitle?$AA@
	call	DWORD PTR ?gEngfuncs@@3Ucl_enginefuncs_s@@A+72
	add	esp, 8

; 39   : 
; 40   : 	gHUD.AddHudElem( this );

	mov	eax, DWORD PTR _this$[ebp]
	push	eax
	mov	ecx, OFFSET ?gHUD@@3VCHud@@A		; gHUD
	call	?AddHudElem@CHud@@QAEXPAVCHudBase@@@Z	; CHud::AddHudElem

; 41   : 
; 42   : 	Reset();

	mov	eax, DWORD PTR _this$[ebp]
	mov	edx, DWORD PTR [eax]
	mov	ecx, DWORD PTR _this$[ebp]
	mov	eax, DWORD PTR [edx+20]
	call	eax

; 43   : 
; 44   : 	return 1;

	mov	eax, 1

; 45   : }

	pop	edi
	pop	esi
	pop	ebx
	mov	esp, ebp
	pop	ebp
	ret	0
?Init@CHudMessage@@UAEHXZ ENDP				; CHudMessage::Init
_TEXT	ENDS
; Function compile flags: /Odtp /ZI
;	COMDAT ??__G@YGXPAX0IIP6EPAX00@Z@Z
_TEXT	SEGMENT
tv66 = -68						; size = 4
___t$ = 8						; size = 4
___u$ = 12						; size = 4
___s$ = 16						; size = 4
___n$ = 20						; size = 4
___f$ = 24						; size = 4
??__G@YGXPAX0IIP6EPAX00@Z@Z PROC			; `vector copy constructor iterator', COMDAT
	push	ebp
	mov	ebp, esp
	sub	esp, 68					; 00000044H
	push	ebx
	push	esi
	push	edi
$LN2@vector:
	mov	eax, DWORD PTR ___n$[ebp]
	mov	DWORD PTR tv66[ebp], eax
	mov	ecx, DWORD PTR ___n$[ebp]
	sub	ecx, 1
	mov	DWORD PTR ___n$[ebp], ecx
	cmp	DWORD PTR tv66[ebp], 0
	jbe	SHORT $LN1@vector
	mov	eax, DWORD PTR ___u$[ebp]
	push	eax
	mov	ecx, DWORD PTR ___t$[ebp]
	call	DWORD PTR ___f$[ebp]
	mov	eax, DWORD PTR ___t$[ebp]
	add	eax, DWORD PTR ___s$[ebp]
	mov	DWORD PTR ___t$[ebp], eax
	mov	eax, DWORD PTR ___u$[ebp]
	add	eax, DWORD PTR ___s$[ebp]
	mov	DWORD PTR ___u$[ebp], eax
	jmp	SHORT $LN2@vector
$LN1@vector:
	pop	edi
	pop	esi
	pop	ebx
	mov	esp, ebp
	pop	ebp
	ret	20					; 00000014H
??__G@YGXPAX0IIP6EPAX00@Z@Z ENDP			; `vector copy constructor iterator'
_TEXT	ENDS
; Function compile flags: /Odtp /ZI
;	COMDAT ??_H@YGXPAXIIP6EPAX0@Z@Z
_TEXT	SEGMENT
tv66 = -68						; size = 4
___t$ = 8						; size = 4
___s$ = 12						; size = 4
___n$ = 16						; size = 4
___f$ = 20						; size = 4
??_H@YGXPAXIIP6EPAX0@Z@Z PROC				; `vector constructor iterator', COMDAT
	push	ebp
	mov	ebp, esp
	sub	esp, 68					; 00000044H
	push	ebx
	push	esi
	push	edi
$LN2@vector:
	mov	eax, DWORD PTR ___n$[ebp]
	mov	DWORD PTR tv66[ebp], eax
	mov	ecx, DWORD PTR ___n$[ebp]
	sub	ecx, 1
	mov	DWORD PTR ___n$[ebp], ecx
	cmp	DWORD PTR tv66[ebp], 0
	jbe	SHORT $LN1@vector
	mov	ecx, DWORD PTR ___t$[ebp]
	call	DWORD PTR ___f$[ebp]
	mov	eax, DWORD PTR ___t$[ebp]
	add	eax, DWORD PTR ___s$[ebp]
	mov	DWORD PTR ___t$[ebp], eax
	jmp	SHORT $LN2@vector
$LN1@vector:
	pop	edi
	pop	esi
	pop	ebx
	mov	esp, ebp
	pop	ebp
	ret	16					; 00000010H
??_H@YGXPAXIIP6EPAX0@Z@Z ENDP				; `vector constructor iterator'
_TEXT	ENDS
END
