; Listing generated by Microsoft (R) Optimizing Compiler Version 19.00.24247.2 

	TITLE	D:\!DIFFUSION 2020\source code 2022\client-server\client\motd.cpp
	.686P
	.XMM
	include listing.inc
	.model	flat

INCLUDELIB LIBCMT
INCLUDELIB OLDNAMES

PUBLIC	??_H@YGXPAXIIP6EPAX0@Z@Z			; `vector constructor iterator'
PUBLIC	??__G@YGXPAX0IIP6EPAX00@Z@Z			; `vector copy constructor iterator'
PUBLIC	?Init@CHudMOTD@@UAEHXZ				; CHudMOTD::Init
PUBLIC	?VidInit@CHudMOTD@@UAEHXZ			; CHudMOTD::VidInit
PUBLIC	?Draw@CHudMOTD@@UAEHM@Z				; CHudMOTD::Draw
PUBLIC	?Reset@CHudMOTD@@UAEXXZ				; CHudMOTD::Reset
PUBLIC	?MsgFunc_MOTD@CHudMOTD@@QAEHPBDHPAX@Z		; CHudMOTD::MsgFunc_MOTD
PUBLIC	?__MsgFunc_MOTD@@YAHPBDHPAX@Z			; __MsgFunc_MOTD
PUBLIC	??_C@_04KFGJNABM@MOTD?$AA@			; `string'
PUBLIC	??_C@_01DHDKHMHF@6?$AA@				; `string'
PUBLIC	??_C@_0BC@FBJGGAME@motd_display_time?$AA@	; `string'
EXTRN	?Q_strncat@@YAIPADPBDI@Z:PROC			; Q_strncat
EXTRN	?DrawHudString@CHud@@QAEHHHHPADHHH@Z:PROC	; CHud::DrawHudString
EXTRN	?AddHudElem@CHud@@QAEXPAVCHudBase@@@Z:PROC	; CHud::AddHudElem
EXTRN	?BEGIN_READ@@YAXPBDPAXH@Z:PROC			; BEGIN_READ
EXTRN	?END_READ@@YAXXZ:PROC				; END_READ
EXTRN	?READ_BYTE@@YAHXZ:PROC				; READ_BYTE
EXTRN	?READ_STRING@@YAPADXZ:PROC			; READ_STRING
EXTRN	__ftol2_sse:PROC
EXTRN	?gEngfuncs@@3Ucl_enginefuncs_s@@A:BYTE		; gEngfuncs
EXTRN	?gHUD@@3VCHud@@A:BYTE				; gHUD
EXTRN	__fltused:DWORD
;	COMDAT ??_C@_0BC@FBJGGAME@motd_display_time?$AA@
CONST	SEGMENT
??_C@_0BC@FBJGGAME@motd_display_time?$AA@ DB 'motd_display_time', 00H ; `string'
CONST	ENDS
;	COMDAT ??_C@_01DHDKHMHF@6?$AA@
CONST	SEGMENT
??_C@_01DHDKHMHF@6?$AA@ DB '6', 00H			; `string'
CONST	ENDS
;	COMDAT ??_C@_04KFGJNABM@MOTD?$AA@
CONST	SEGMENT
??_C@_04KFGJNABM@MOTD?$AA@ DB 'MOTD', 00H		; `string'
CONST	ENDS
; Function compile flags: /Odtp /ZI
; File d:\!diffusion 2020\source code 2022\client-server\client\motd.cpp
;	COMDAT ?__MsgFunc_MOTD@@YAHPBDHPAX@Z
_TEXT	SEGMENT
_pszName$ = 8						; size = 4
_iSize$ = 12						; size = 4
_pbuf$ = 16						; size = 4
?__MsgFunc_MOTD@@YAHPBDHPAX@Z PROC			; __MsgFunc_MOTD, COMDAT

; 27   : DECLARE_MESSAGE( m_MOTD, MOTD );

	push	ebp
	mov	ebp, esp
	sub	esp, 64					; 00000040H
	push	ebx
	push	esi
	push	edi
	mov	eax, DWORD PTR _pbuf$[ebp]
	push	eax
	mov	ecx, DWORD PTR _iSize$[ebp]
	push	ecx
	mov	edx, DWORD PTR _pszName$[ebp]
	push	edx
	mov	ecx, OFFSET ?gHUD@@3VCHud@@A+5584
	call	?MsgFunc_MOTD@CHudMOTD@@QAEHPBDHPAX@Z	; CHudMOTD::MsgFunc_MOTD
	pop	edi
	pop	esi
	pop	ebx
	mov	esp, ebp
	pop	ebp
	ret	0
?__MsgFunc_MOTD@@YAHPBDHPAX@Z ENDP			; __MsgFunc_MOTD
_TEXT	ENDS
; Function compile flags: /Odtp /ZI
; File d:\!diffusion 2020\source code 2022\client-server\client\motd.cpp
;	COMDAT ?MsgFunc_MOTD@CHudMOTD@@QAEHPBDHPAX@Z
_TEXT	SEGMENT
_sz$1 = -12						; size = 4
_is_finished$ = -8					; size = 4
_this$ = -4						; size = 4
_pszName$ = 8						; size = 4
_iSize$ = 12						; size = 4
_pbuf$ = 16						; size = 4
?MsgFunc_MOTD@CHudMOTD@@QAEHPBDHPAX@Z PROC		; CHudMOTD::MsgFunc_MOTD, COMDAT
; _this$ = ecx

; 110  : {

	push	ebp
	mov	ebp, esp
	sub	esp, 76					; 0000004cH
	push	ebx
	push	esi
	push	edi
	mov	DWORD PTR _this$[ebp], ecx

; 111  : 	if( m_iFlags & HUD_ACTIVE )

	mov	eax, DWORD PTR _this$[ebp]
	mov	ecx, DWORD PTR [eax+4]
	and	ecx, 1
	je	SHORT $LN5@MsgFunc_MO

; 112  : 		Reset(); // clear the current MOTD in prep for this one

	mov	eax, DWORD PTR _this$[ebp]
	mov	edx, DWORD PTR [eax]
	mov	ecx, DWORD PTR _this$[ebp]
	mov	eax, DWORD PTR [edx+20]
	call	eax
$LN5@MsgFunc_MO:

; 113  : 
; 114  : 	BEGIN_READ( pszName, pbuf, iSize );

	mov	eax, DWORD PTR _iSize$[ebp]
	push	eax
	mov	ecx, DWORD PTR _pbuf$[ebp]
	push	ecx
	mov	edx, DWORD PTR _pszName$[ebp]
	push	edx
	call	?BEGIN_READ@@YAXPBDPAXH@Z		; BEGIN_READ
	add	esp, 12					; 0000000cH

; 115  : 
; 116  : 	int is_finished = READ_BYTE();

	call	?READ_BYTE@@YAHXZ			; READ_BYTE
	mov	DWORD PTR _is_finished$[ebp], eax

; 117  : 	Q_strcat( m_szMOTD, READ_STRING( ));

	push	99999					; 0001869fH
	call	?READ_STRING@@YAPADXZ			; READ_STRING
	push	eax
	mov	eax, DWORD PTR _this$[ebp]
	add	eax, 8
	push	eax
	call	?Q_strncat@@YAIPADPBDI@Z		; Q_strncat
	add	esp, 12					; 0000000cH

; 118  : 
; 119  : 	if( is_finished )

	cmp	DWORD PTR _is_finished$[ebp], 0
	je	$LN3@MsgFunc_MO

; 120  : 	{
; 121  : 		m_iFlags |= HUD_ACTIVE;

	mov	eax, DWORD PTR _this$[ebp]
	mov	ecx, DWORD PTR [eax+4]
	or	ecx, 1
	mov	edx, DWORD PTR _this$[ebp]
	mov	DWORD PTR [edx+4], ecx

; 122  : 
; 123  : 		MOTD_DISPLAY_TIME = CVAR_GET_FLOAT( "motd_display_time" );

	push	OFFSET ??_C@_0BC@FBJGGAME@motd_display_time?$AA@
	call	DWORD PTR ?gEngfuncs@@3Ucl_enginefuncs_s@@A+60
	add	esp, 4
	call	__ftol2_sse
	mov	ecx, DWORD PTR _this$[ebp]
	mov	DWORD PTR [ecx+1544], eax

; 124  : 
; 125  : 		m_flActiveTill = gHUD.m_flTime + MOTD_DISPLAY_TIME;

	mov	eax, DWORD PTR _this$[ebp]
	cvtsi2ss xmm0, DWORD PTR [eax+1544]
	addss	xmm0, DWORD PTR ?gHUD@@3VCHud@@A+32
	mov	ecx, DWORD PTR _this$[ebp]
	movss	DWORD PTR [ecx+1548], xmm0

; 126  : 
; 127  : 		// count the number of lines in the MOTD
; 128  : 		for( char *sz = m_szMOTD; *sz != 0; sz++ )

	mov	eax, DWORD PTR _this$[ebp]
	add	eax, 8
	mov	DWORD PTR _sz$1[ebp], eax
	jmp	SHORT $LN4@MsgFunc_MO
$LN2@MsgFunc_MO:
	mov	eax, DWORD PTR _sz$1[ebp]
	add	eax, 1
	mov	DWORD PTR _sz$1[ebp], eax
$LN4@MsgFunc_MO:
	mov	eax, DWORD PTR _sz$1[ebp]
	movsx	ecx, BYTE PTR [eax]
	test	ecx, ecx
	je	SHORT $LN3@MsgFunc_MO

; 129  : 			if( *sz == '\n' ) m_iLines++;

	mov	eax, DWORD PTR _sz$1[ebp]
	movsx	ecx, BYTE PTR [eax]
	cmp	ecx, 10					; 0000000aH
	jne	SHORT $LN7@MsgFunc_MO
	mov	eax, DWORD PTR _this$[ebp]
	mov	ecx, DWORD PTR [eax+1552]
	add	ecx, 1
	mov	edx, DWORD PTR _this$[ebp]
	mov	DWORD PTR [edx+1552], ecx
$LN7@MsgFunc_MO:

; 130  : 	}

	jmp	SHORT $LN2@MsgFunc_MO
$LN3@MsgFunc_MO:

; 131  : 
; 132  : 	END_READ();

	call	?END_READ@@YAXXZ			; END_READ

; 133  : 
; 134  : 	return 1;

	mov	eax, 1

; 135  : }

	pop	edi
	pop	esi
	pop	ebx
	mov	esp, ebp
	pop	ebp
	ret	12					; 0000000cH
?MsgFunc_MOTD@CHudMOTD@@QAEHPBDHPAX@Z ENDP		; CHudMOTD::MsgFunc_MOTD
_TEXT	ENDS
; Function compile flags: /Odtp /ZI
; File d:\!diffusion 2020\source code 2022\client-server\client\motd.cpp
;	COMDAT ?Reset@CHudMOTD@@UAEXXZ
_TEXT	SEGMENT
_this$ = -4						; size = 4
?Reset@CHudMOTD@@UAEXXZ PROC				; CHudMOTD::Reset, COMDAT
; _this$ = ecx

; 49   : {

	push	ebp
	mov	ebp, esp
	sub	esp, 68					; 00000044H
	push	ebx
	push	esi
	push	edi
	mov	DWORD PTR _this$[ebp], ecx

; 50   : 	m_iFlags &= ~HUD_ACTIVE;  // start out inactive

	mov	eax, DWORD PTR _this$[ebp]
	mov	ecx, DWORD PTR [eax+4]
	and	ecx, -2					; fffffffeH
	mov	edx, DWORD PTR _this$[ebp]
	mov	DWORD PTR [edx+4], ecx

; 51   : 	m_szMOTD[0] = 0;

	mov	eax, 1
	imul	ecx, eax, 0
	mov	edx, DWORD PTR _this$[ebp]
	mov	BYTE PTR [edx+ecx+8], 0

; 52   : 	m_iLines = 0;

	mov	eax, DWORD PTR _this$[ebp]
	mov	DWORD PTR [eax+1552], 0

; 53   : 	m_flActiveTill = 0;

	mov	eax, DWORD PTR _this$[ebp]
	xorps	xmm0, xmm0
	movss	DWORD PTR [eax+1548], xmm0

; 54   : }

	pop	edi
	pop	esi
	pop	ebx
	mov	esp, ebp
	pop	ebp
	ret	0
?Reset@CHudMOTD@@UAEXXZ ENDP				; CHudMOTD::Reset
_TEXT	ENDS
; Function compile flags: /Odtp /ZI
; File d:\!diffusion 2020\source code 2022\client-server\client\motd.cpp
;	COMDAT ?Draw@CHudMOTD@@UAEHM@Z
_TEXT	SEGMENT
tv131 = -96						; size = 4
tv87 = -96						; size = 4
_xpos$1 = -28						; size = 4
_top$2 = -24						; size = 4
_line_length$3 = -20					; size = 4
_next_line$4 = -16					; size = 4
_ch$ = -12						; size = 4
_ypos$ = -8						; size = 4
_this$ = -4						; size = 4
_fTime$ = 8						; size = 4
?Draw@CHudMOTD@@UAEHM@Z PROC				; CHudMOTD::Draw, COMDAT
; _this$ = ecx

; 57   : {

	push	ebp
	mov	ebp, esp
	sub	esp, 96					; 00000060H
	push	ebx
	push	esi
	push	edi
	mov	DWORD PTR _this$[ebp], ecx

; 58   : 	// Draw MOTD line-by-line
; 59   : 
; 60   : 	if( m_flActiveTill < gHUD.m_flTime )

	mov	eax, DWORD PTR _this$[ebp]
	movss	xmm0, DWORD PTR ?gHUD@@3VCHud@@A+32
	comiss	xmm0, DWORD PTR [eax+1548]
	jbe	SHORT $LN7@Draw

; 61   : 	{
; 62   : 		// finished with MOTD, disable it
; 63   : 		m_szMOTD[0] = 0;

	mov	eax, 1
	imul	ecx, eax, 0
	mov	edx, DWORD PTR _this$[ebp]
	mov	BYTE PTR [edx+ecx+8], 0

; 64   : 		m_iLines = 0;

	mov	eax, DWORD PTR _this$[ebp]
	mov	DWORD PTR [eax+1552], 0

; 65   : 		m_iFlags &= ~HUD_ACTIVE;

	mov	eax, DWORD PTR _this$[ebp]
	mov	ecx, DWORD PTR [eax+4]
	and	ecx, -2					; fffffffeH
	mov	edx, DWORD PTR _this$[ebp]
	mov	DWORD PTR [edx+4], ecx

; 66   : 		return 1;

	mov	eax, 1
	jmp	$LN1@Draw
$LN7@Draw:

; 67   : 	}
; 68   : 
; 69   : 	// cap activetill time to the display time
; 70   : 	m_flActiveTill = min( gHUD.m_flTime + MOTD_DISPLAY_TIME, m_flActiveTill );

	mov	eax, DWORD PTR _this$[ebp]
	cvtsi2ss xmm0, DWORD PTR [eax+1544]
	addss	xmm0, DWORD PTR ?gHUD@@3VCHud@@A+32
	mov	ecx, DWORD PTR _this$[ebp]
	movss	xmm1, DWORD PTR [ecx+1548]
	comiss	xmm1, xmm0
	jbe	SHORT $LN14@Draw
	mov	edx, DWORD PTR _this$[ebp]
	cvtsi2ss xmm0, DWORD PTR [edx+1544]
	addss	xmm0, DWORD PTR ?gHUD@@3VCHud@@A+32
	movss	DWORD PTR tv87[ebp], xmm0
	jmp	SHORT $LN15@Draw
$LN14@Draw:
	mov	eax, DWORD PTR _this$[ebp]
	movss	xmm0, DWORD PTR [eax+1548]
	movss	DWORD PTR tv87[ebp], xmm0
$LN15@Draw:
	mov	ecx, DWORD PTR _this$[ebp]
	movss	xmm0, DWORD PTR tv87[ebp]
	movss	DWORD PTR [ecx+1548], xmm0

; 71   : 
; 72   : 	// find the top of where the MOTD should be drawn,  so the whole thing is centered in the screen
; 73   : 	int ypos = max((( ScreenHeight - ( m_iLines * LINE_HEIGHT )) / 2) - 40, 30 ); // shift it up slightly

	mov	eax, DWORD PTR _this$[ebp]
	imul	ecx, DWORD PTR [eax+1552], 13
	mov	eax, DWORD PTR ?gHUD@@3VCHud@@A+8440
	sub	eax, ecx
	cdq
	sub	eax, edx
	sar	eax, 1
	sub	eax, 40					; 00000028H
	cmp	eax, 30					; 0000001eH
	jle	SHORT $LN16@Draw
	mov	edx, DWORD PTR _this$[ebp]
	imul	eax, DWORD PTR [edx+1552], 13
	mov	ecx, DWORD PTR ?gHUD@@3VCHud@@A+8440
	sub	ecx, eax
	mov	eax, ecx
	cdq
	sub	eax, edx
	sar	eax, 1
	sub	eax, 40					; 00000028H
	mov	DWORD PTR tv131[ebp], eax
	jmp	SHORT $LN17@Draw
$LN16@Draw:
	mov	DWORD PTR tv131[ebp], 30		; 0000001eH
$LN17@Draw:
	mov	edx, DWORD PTR tv131[ebp]
	mov	DWORD PTR _ypos$[ebp], edx

; 74   : 	char *ch = m_szMOTD;

	mov	eax, DWORD PTR _this$[ebp]
	add	eax, 8
	mov	DWORD PTR _ch$[ebp], eax
$LN2@Draw:

; 75   : 
; 76   : 	while( *ch )

	mov	eax, DWORD PTR _ch$[ebp]
	movsx	ecx, BYTE PTR [eax]
	test	ecx, ecx
	je	$LN3@Draw

; 77   : 	{
; 78   : 		byte* next_line;
; 79   : 		int line_length = 0;  // count the length of the current line

	mov	DWORD PTR _line_length$3[ebp], 0

; 80   : 
; 81   : 		for( next_line = (byte *)ch; *next_line != '\n' && *next_line != 0; next_line++ )

	mov	eax, DWORD PTR _ch$[ebp]
	mov	DWORD PTR _next_line$4[ebp], eax
	jmp	SHORT $LN6@Draw
$LN4@Draw:
	mov	eax, DWORD PTR _next_line$4[ebp]
	add	eax, 1
	mov	DWORD PTR _next_line$4[ebp], eax
$LN6@Draw:
	mov	eax, DWORD PTR _next_line$4[ebp]
	movzx	ecx, BYTE PTR [eax]
	cmp	ecx, 10					; 0000000aH
	je	SHORT $LN5@Draw
	mov	eax, DWORD PTR _next_line$4[ebp]
	movzx	ecx, BYTE PTR [eax]
	test	ecx, ecx
	je	SHORT $LN5@Draw

; 82   : 			line_length += gHUD.m_scrinfo.charWidths[*next_line];

	mov	eax, DWORD PTR _next_line$4[ebp]
	movzx	ecx, BYTE PTR [eax]
	movsx	edx, WORD PTR ?gHUD@@3VCHud@@A[ecx*2+8452]
	add	edx, DWORD PTR _line_length$3[ebp]
	mov	DWORD PTR _line_length$3[ebp], edx
	jmp	SHORT $LN4@Draw
$LN5@Draw:

; 83   : 
; 84   : 		char *top = (char *)next_line;

	mov	eax, DWORD PTR _next_line$4[ebp]
	mov	DWORD PTR _top$2[ebp], eax

; 85   : 		if( *top == '\n' )

	mov	eax, DWORD PTR _top$2[ebp]
	movsx	ecx, BYTE PTR [eax]
	cmp	ecx, 10					; 0000000aH
	jne	SHORT $LN8@Draw

; 86   : 			*top = 0;

	mov	eax, DWORD PTR _top$2[ebp]
	mov	BYTE PTR [eax], 0
	jmp	SHORT $LN9@Draw
$LN8@Draw:

; 87   : 		else top = NULL;

	mov	DWORD PTR _top$2[ebp], 0
$LN9@Draw:

; 88   : 
; 89   : 		// find where to start drawing the line
; 90   : 		int xpos = (ScreenWidth - line_length) / 2;

	mov	eax, DWORD PTR ?gHUD@@3VCHud@@A+8436
	sub	eax, DWORD PTR _line_length$3[ebp]
	cdq
	sub	eax, edx
	sar	eax, 1
	mov	DWORD PTR _xpos$1[ebp], eax

; 91   : 
; 92   : 		gHUD.DrawHudString( xpos, ypos, ScreenWidth, ch, 255, 180, 0 );

	push	0
	push	180					; 000000b4H
	push	255					; 000000ffH
	mov	eax, DWORD PTR _ch$[ebp]
	push	eax
	mov	ecx, DWORD PTR ?gHUD@@3VCHud@@A+8436
	push	ecx
	mov	edx, DWORD PTR _ypos$[ebp]
	push	edx
	mov	eax, DWORD PTR _xpos$1[ebp]
	push	eax
	mov	ecx, OFFSET ?gHUD@@3VCHud@@A		; gHUD
	call	?DrawHudString@CHud@@QAEHHHHPADHHH@Z	; CHud::DrawHudString

; 93   : 
; 94   : 		ypos += LINE_HEIGHT;

	mov	eax, DWORD PTR _ypos$[ebp]
	add	eax, 13					; 0000000dH
	mov	DWORD PTR _ypos$[ebp], eax

; 95   : 
; 96   : 		if( top )  // restore 

	cmp	DWORD PTR _top$2[ebp], 0
	je	SHORT $LN10@Draw

; 97   : 			*top = '\n';

	mov	eax, DWORD PTR _top$2[ebp]
	mov	BYTE PTR [eax], 10			; 0000000aH
$LN10@Draw:

; 98   : 		ch = (char *)next_line;

	mov	eax, DWORD PTR _next_line$4[ebp]
	mov	DWORD PTR _ch$[ebp], eax

; 99   : 
; 100  : 		if( *ch == '\n' )

	mov	eax, DWORD PTR _ch$[ebp]
	movsx	ecx, BYTE PTR [eax]
	cmp	ecx, 10					; 0000000aH
	jne	SHORT $LN11@Draw

; 101  : 			ch++;

	mov	eax, DWORD PTR _ch$[ebp]
	add	eax, 1
	mov	DWORD PTR _ch$[ebp], eax
$LN11@Draw:

; 102  : 
; 103  : 		if( ypos > ( ScreenHeight - 20 ))

	mov	eax, DWORD PTR ?gHUD@@3VCHud@@A+8440
	sub	eax, 20					; 00000014H
	cmp	DWORD PTR _ypos$[ebp], eax
	jle	SHORT $LN12@Draw

; 104  : 			break;  // don't let it draw too low

	jmp	SHORT $LN3@Draw
$LN12@Draw:

; 105  : 	}

	jmp	$LN2@Draw
$LN3@Draw:

; 106  : 	return 1;

	mov	eax, 1
$LN1@Draw:

; 107  : }

	pop	edi
	pop	esi
	pop	ebx
	mov	esp, ebp
	pop	ebp
	ret	4
?Draw@CHudMOTD@@UAEHM@Z ENDP				; CHudMOTD::Draw
_TEXT	ENDS
; Function compile flags: /Odtp /ZI
; File d:\!diffusion 2020\source code 2022\client-server\client\motd.cpp
;	COMDAT ?VidInit@CHudMOTD@@UAEHXZ
_TEXT	SEGMENT
_this$ = -4						; size = 4
?VidInit@CHudMOTD@@UAEHXZ PROC				; CHudMOTD::VidInit, COMDAT
; _this$ = ecx

; 44   : {

	push	ebp
	mov	ebp, esp
	sub	esp, 68					; 00000044H
	push	ebx
	push	esi
	push	edi
	mov	DWORD PTR _this$[ebp], ecx

; 45   : 	return 1;

	mov	eax, 1

; 46   : }

	pop	edi
	pop	esi
	pop	ebx
	mov	esp, ebp
	pop	ebp
	ret	0
?VidInit@CHudMOTD@@UAEHXZ ENDP				; CHudMOTD::VidInit
_TEXT	ENDS
; Function compile flags: /Odtp /ZI
; File d:\!diffusion 2020\source code 2022\client-server\client\motd.cpp
;	COMDAT ?Init@CHudMOTD@@UAEHXZ
_TEXT	SEGMENT
_this$ = -4						; size = 4
?Init@CHudMOTD@@UAEHXZ PROC				; CHudMOTD::Init, COMDAT
; _this$ = ecx

; 30   : {

	push	ebp
	mov	ebp, esp
	sub	esp, 68					; 00000044H
	push	ebx
	push	esi
	push	edi
	mov	DWORD PTR _this$[ebp], ecx

; 31   : 	gHUD.AddHudElem( this );

	mov	eax, DWORD PTR _this$[ebp]
	push	eax
	mov	ecx, OFFSET ?gHUD@@3VCHud@@A		; gHUD
	call	?AddHudElem@CHud@@QAEXPAVCHudBase@@@Z	; CHud::AddHudElem

; 32   : 
; 33   : 	HOOK_MESSAGE( MOTD );

	push	OFFSET ?__MsgFunc_MOTD@@YAHPBDHPAX@Z	; __MsgFunc_MOTD
	push	OFFSET ??_C@_04KFGJNABM@MOTD?$AA@
	call	DWORD PTR ?gEngfuncs@@3Ucl_enginefuncs_s@@A+72
	add	esp, 8

; 34   : 
; 35   : 	CVAR_REGISTER( "motd_display_time", "6", 0 );

	push	0
	push	OFFSET ??_C@_01DHDKHMHF@6?$AA@
	push	OFFSET ??_C@_0BC@FBJGGAME@motd_display_time?$AA@
	call	DWORD PTR ?gEngfuncs@@3Ucl_enginefuncs_s@@A+56
	add	esp, 12					; 0000000cH

; 36   : 
; 37   : 	m_iFlags &= ~HUD_ACTIVE;  // start out inactive

	mov	eax, DWORD PTR _this$[ebp]
	mov	ecx, DWORD PTR [eax+4]
	and	ecx, -2					; fffffffeH
	mov	edx, DWORD PTR _this$[ebp]
	mov	DWORD PTR [edx+4], ecx

; 38   : 	m_szMOTD[0] = 0;

	mov	eax, 1
	imul	ecx, eax, 0
	mov	edx, DWORD PTR _this$[ebp]
	mov	BYTE PTR [edx+ecx+8], 0

; 39   : 
; 40   : 	return 1;

	mov	eax, 1

; 41   : }

	pop	edi
	pop	esi
	pop	ebx
	mov	esp, ebp
	pop	ebp
	ret	0
?Init@CHudMOTD@@UAEHXZ ENDP				; CHudMOTD::Init
_TEXT	ENDS
; Function compile flags: /Odtp /ZI
;	COMDAT ??__G@YGXPAX0IIP6EPAX00@Z@Z
_TEXT	SEGMENT
tv66 = -68						; size = 4
___t$ = 8						; size = 4
___u$ = 12						; size = 4
___s$ = 16						; size = 4
___n$ = 20						; size = 4
___f$ = 24						; size = 4
??__G@YGXPAX0IIP6EPAX00@Z@Z PROC			; `vector copy constructor iterator', COMDAT
	push	ebp
	mov	ebp, esp
	sub	esp, 68					; 00000044H
	push	ebx
	push	esi
	push	edi
$LN2@vector:
	mov	eax, DWORD PTR ___n$[ebp]
	mov	DWORD PTR tv66[ebp], eax
	mov	ecx, DWORD PTR ___n$[ebp]
	sub	ecx, 1
	mov	DWORD PTR ___n$[ebp], ecx
	cmp	DWORD PTR tv66[ebp], 0
	jbe	SHORT $LN1@vector
	mov	eax, DWORD PTR ___u$[ebp]
	push	eax
	mov	ecx, DWORD PTR ___t$[ebp]
	call	DWORD PTR ___f$[ebp]
	mov	eax, DWORD PTR ___t$[ebp]
	add	eax, DWORD PTR ___s$[ebp]
	mov	DWORD PTR ___t$[ebp], eax
	mov	eax, DWORD PTR ___u$[ebp]
	add	eax, DWORD PTR ___s$[ebp]
	mov	DWORD PTR ___u$[ebp], eax
	jmp	SHORT $LN2@vector
$LN1@vector:
	pop	edi
	pop	esi
	pop	ebx
	mov	esp, ebp
	pop	ebp
	ret	20					; 00000014H
??__G@YGXPAX0IIP6EPAX00@Z@Z ENDP			; `vector copy constructor iterator'
_TEXT	ENDS
; Function compile flags: /Odtp /ZI
;	COMDAT ??_H@YGXPAXIIP6EPAX0@Z@Z
_TEXT	SEGMENT
tv66 = -68						; size = 4
___t$ = 8						; size = 4
___s$ = 12						; size = 4
___n$ = 16						; size = 4
___f$ = 20						; size = 4
??_H@YGXPAXIIP6EPAX0@Z@Z PROC				; `vector constructor iterator', COMDAT
	push	ebp
	mov	ebp, esp
	sub	esp, 68					; 00000044H
	push	ebx
	push	esi
	push	edi
$LN2@vector:
	mov	eax, DWORD PTR ___n$[ebp]
	mov	DWORD PTR tv66[ebp], eax
	mov	ecx, DWORD PTR ___n$[ebp]
	sub	ecx, 1
	mov	DWORD PTR ___n$[ebp], ecx
	cmp	DWORD PTR tv66[ebp], 0
	jbe	SHORT $LN1@vector
	mov	ecx, DWORD PTR ___t$[ebp]
	call	DWORD PTR ___f$[ebp]
	mov	eax, DWORD PTR ___t$[ebp]
	add	eax, DWORD PTR ___s$[ebp]
	mov	DWORD PTR ___t$[ebp], eax
	jmp	SHORT $LN2@vector
$LN1@vector:
	pop	edi
	pop	esi
	pop	ebx
	mov	esp, ebp
	pop	ebp
	ret	16					; 00000010H
??_H@YGXPAXIIP6EPAX0@Z@Z ENDP				; `vector constructor iterator'
_TEXT	ENDS
END
