; Listing generated by Microsoft (R) Optimizing Compiler Version 19.00.24247.2 

	TITLE	D:\!DIFFUSION 2020\source code 2022\client-server\client\parsemsg.cpp
	.686P
	.XMM
	include listing.inc
	.model	flat

INCLUDELIB LIBCMT
INCLUDELIB OLDNAMES

PUBLIC	??_H@YGXPAXIIP6EPAX0@Z@Z			; `vector constructor iterator'
PUBLIC	??__G@YGXPAX0IIP6EPAX00@Z@Z			; `vector copy constructor iterator'
PUBLIC	?BEGIN_READ@@YAXPBDPAXH@Z			; BEGIN_READ
PUBLIC	?END_READ@@YAXXZ				; END_READ
PUBLIC	?READ_CHAR@@YAHXZ				; READ_CHAR
PUBLIC	?READ_BYTE@@YAHXZ				; READ_BYTE
PUBLIC	?READ_SHORT@@YAHXZ				; READ_SHORT
PUBLIC	?READ_WORD@@YAHXZ				; READ_WORD
PUBLIC	?READ_LONG@@YAHXZ				; READ_LONG
PUBLIC	?READ_FLOAT@@YAMXZ				; READ_FLOAT
PUBLIC	?READ_STRING@@YAPADXZ				; READ_STRING
PUBLIC	?READ_COORD@@YAMXZ				; READ_COORD
PUBLIC	?READ_ANGLE@@YAMXZ				; READ_ANGLE
PUBLIC	?READ_HIRESANGLE@@YAMXZ				; READ_HIRESANGLE
PUBLIC	?READ_BYTES@@YAXPAEH@Z				; READ_BYTES
PUBLIC	??_C@_0BA@EMJNMANP@BEGIN_READ?3?5?$CFs?6?$AA@	; `string'
PUBLIC	??_C@_0DH@HEJEMIJK@?$CFs?5was?5received?5with?5errors?5?$CIrea@ ; `string'
PUBLIC	__real@00000000
PUBLIC	__real@3bb40000
PUBLIC	__real@3e000000
PUBLIC	__real@3fb40000
EXTRN	___report_rangecheckfailure:PROC
EXTRN	?ALERT@@YAXW4ALERT_TYPE@@PADZZ:PROC		; ALERT
EXTRN	?gEngfuncs@@3Ucl_enginefuncs_s@@A:BYTE		; gEngfuncs
EXTRN	?gRenderfuncs@@3Urender_api_s@@A:BYTE		; gRenderfuncs
EXTRN	?g_fRenderInitialized@@3HA:DWORD		; g_fRenderInitialized
EXTRN	?cl_showmsgs@@3PAUcvar_s@@A:DWORD		; cl_showmsgs
EXTRN	__fltused:DWORD
_BSS	SEGMENT
?gpBuf@@3PAEA DD 01H DUP (?)				; gpBuf
?gpszName@@3PBDB DD 01H DUP (?)				; gpszName
?giSize@@3HA DD	01H DUP (?)				; giSize
?giRead@@3HA DD	01H DUP (?)				; giRead
?giBadRead@@3_NA DB 01H DUP (?)				; giBadRead
	ALIGN	4

?string@?1??READ_STRING@@YAPADXZ@4PADA DB 0800H DUP (?)	; `READ_STRING'::`2'::string
_BSS	ENDS
;	COMDAT __real@3fb40000
CONST	SEGMENT
__real@3fb40000 DD 03fb40000r			; 1.40625
CONST	ENDS
;	COMDAT __real@3e000000
CONST	SEGMENT
__real@3e000000 DD 03e000000r			; 0.125
CONST	ENDS
;	COMDAT __real@3bb40000
CONST	SEGMENT
__real@3bb40000 DD 03bb40000r			; 0.00549316
CONST	ENDS
;	COMDAT __real@00000000
CONST	SEGMENT
__real@00000000 DD 000000000r			; 0
CONST	ENDS
;	COMDAT ??_C@_0DH@HEJEMIJK@?$CFs?5was?5received?5with?5errors?5?$CIrea@
CONST	SEGMENT
??_C@_0DH@HEJEMIJK@?$CFs?5was?5received?5with?5errors?5?$CIrea@ DB '%s wa'
	DB	's received with errors (read more than %i bytes)', 0aH, 00H ; `string'
CONST	ENDS
;	COMDAT ??_C@_0BA@EMJNMANP@BEGIN_READ?3?5?$CFs?6?$AA@
CONST	SEGMENT
??_C@_0BA@EMJNMANP@BEGIN_READ?3?5?$CFs?6?$AA@ DB 'BEGIN_READ: %s', 0aH, 00H ; `string'
CONST	ENDS
; Function compile flags: /Odtp /ZI
; File d:\!diffusion 2020\source code 2022\client-server\client\parsemsg.cpp
;	COMDAT ?READ_BYTES@@YAXPAEH@Z
_TEXT	SEGMENT
_i$1 = -4						; size = 4
_out$ = 8						; size = 4
_count$ = 12						; size = 4
?READ_BYTES@@YAXPAEH@Z PROC				; READ_BYTES, COMDAT

; 166  : {

	push	ebp
	mov	ebp, esp
	sub	esp, 68					; 00000044H
	push	ebx
	push	esi
	push	edi

; 167  : 	for( int i = 0; i < count && !giBadRead; i++ )

	mov	DWORD PTR _i$1[ebp], 0
	jmp	SHORT $LN4@READ_BYTES
$LN2@READ_BYTES:
	mov	eax, DWORD PTR _i$1[ebp]
	add	eax, 1
	mov	DWORD PTR _i$1[ebp], eax
$LN4@READ_BYTES:
	mov	eax, DWORD PTR _i$1[ebp]
	cmp	eax, DWORD PTR _count$[ebp]
	jge	SHORT $LN1@READ_BYTES
	movzx	eax, BYTE PTR ?giBadRead@@3_NA
	test	eax, eax
	jne	SHORT $LN1@READ_BYTES

; 168  : 	{
; 169  : 		out[i] = READ_BYTE();

	call	?READ_BYTE@@YAHXZ			; READ_BYTE
	mov	ecx, DWORD PTR _out$[ebp]
	add	ecx, DWORD PTR _i$1[ebp]
	mov	BYTE PTR [ecx], al

; 170  : 	}

	jmp	SHORT $LN2@READ_BYTES
$LN1@READ_BYTES:

; 171  : }

	pop	edi
	pop	esi
	pop	ebx
	mov	esp, ebp
	pop	ebp
	ret	0
?READ_BYTES@@YAXPAEH@Z ENDP				; READ_BYTES
_TEXT	ENDS
; Function compile flags: /Odtp /ZI
; File d:\!diffusion 2020\source code 2022\client-server\client\parsemsg.cpp
;	COMDAT ?READ_HIRESANGLE@@YAMXZ
_TEXT	SEGMENT
tv70 = -68						; size = 4
?READ_HIRESANGLE@@YAMXZ PROC				; READ_HIRESANGLE, COMDAT

; 161  : {

	push	ebp
	mov	ebp, esp
	sub	esp, 68					; 00000044H
	push	ebx
	push	esi
	push	edi

; 162  : 	return (float)(READ_SHORT() * (360.0f / 65536.0f));

	call	?READ_SHORT@@YAHXZ			; READ_SHORT
	cvtsi2ss xmm0, eax
	mulss	xmm0, DWORD PTR __real@3bb40000
	movss	DWORD PTR tv70[ebp], xmm0
	fld	DWORD PTR tv70[ebp]

; 163  : }

	pop	edi
	pop	esi
	pop	ebx
	mov	esp, ebp
	pop	ebp
	ret	0
?READ_HIRESANGLE@@YAMXZ ENDP				; READ_HIRESANGLE
_TEXT	ENDS
; Function compile flags: /Odtp /ZI
; File d:\!diffusion 2020\source code 2022\client-server\client\parsemsg.cpp
;	COMDAT ?READ_ANGLE@@YAMXZ
_TEXT	SEGMENT
tv70 = -68						; size = 4
?READ_ANGLE@@YAMXZ PROC					; READ_ANGLE, COMDAT

; 156  : {

	push	ebp
	mov	ebp, esp
	sub	esp, 68					; 00000044H
	push	ebx
	push	esi
	push	edi

; 157  : 	return (float)(READ_CHAR() * (360.0f / 256.0f));

	call	?READ_CHAR@@YAHXZ			; READ_CHAR
	cvtsi2ss xmm0, eax
	mulss	xmm0, DWORD PTR __real@3fb40000
	movss	DWORD PTR tv70[ebp], xmm0
	fld	DWORD PTR tv70[ebp]

; 158  : }

	pop	edi
	pop	esi
	pop	ebx
	mov	esp, ebp
	pop	ebp
	ret	0
?READ_ANGLE@@YAMXZ ENDP					; READ_ANGLE
_TEXT	ENDS
; Function compile flags: /Odtp /ZI
; File d:\!diffusion 2020\source code 2022\client-server\client\parsemsg.cpp
;	COMDAT ?READ_COORD@@YAMXZ
_TEXT	SEGMENT
tv80 = -72						; size = 4
tv85 = -68						; size = 4
tv79 = -68						; size = 4
?READ_COORD@@YAMXZ PROC					; READ_COORD, COMDAT

; 148  : {

	push	ebp
	mov	ebp, esp
	sub	esp, 72					; 00000048H
	push	ebx
	push	esi
	push	edi

; 149  : 	// g-cont. we loose precision here but keep old size of coord variable!
; 150  : 	if( g_fRenderInitialized && RENDER_GET_PARM( PARM_FEATURES, 0 ) & ENGINE_WRITE_LARGE_COORD )

	cmp	DWORD PTR ?g_fRenderInitialized@@3HA, 0	; g_fRenderInitialized
	je	SHORT $LN2@READ_COORD
	push	0
	push	26					; 0000001aH
	call	DWORD PTR ?gRenderfuncs@@3Urender_api_s@@A
	add	esp, 8
	and	eax, 1
	je	SHORT $LN2@READ_COORD

; 151  : 		return (float)(READ_SHORT());

	call	?READ_SHORT@@YAHXZ			; READ_SHORT
	mov	DWORD PTR tv79[ebp], eax
	fild	DWORD PTR tv79[ebp]
	fstp	DWORD PTR tv80[ebp]
	fld	DWORD PTR tv80[ebp]
	jmp	SHORT $LN1@READ_COORD
$LN2@READ_COORD:

; 152  : 	return (float)(READ_SHORT() * (1.0f / 8.0f));

	call	?READ_SHORT@@YAHXZ			; READ_SHORT
	cvtsi2ss xmm0, eax
	mulss	xmm0, DWORD PTR __real@3e000000
	movss	DWORD PTR tv85[ebp], xmm0
	fld	DWORD PTR tv85[ebp]
$LN1@READ_COORD:

; 153  : }

	pop	edi
	pop	esi
	pop	ebx
	mov	esp, ebp
	pop	ebp
	ret	0
?READ_COORD@@YAMXZ ENDP					; READ_COORD
_TEXT	ENDS
; Function compile flags: /Odtp /ZI
; File d:\!diffusion 2020\source code 2022\client-server\client\parsemsg.cpp
;	COMDAT ?READ_STRING@@YAPADXZ
_TEXT	SEGMENT
$T1 = -80						; size = 4
$T2 = -76						; size = 4
_c$ = -8						; size = 4
_l$ = -4						; size = 4
?READ_STRING@@YAPADXZ PROC				; READ_STRING, COMDAT

; 123  : {

	push	ebp
	mov	ebp, esp
	sub	esp, 80					; 00000050H
	push	ebx
	push	esi
	push	edi

; 124  : 	static char     string[2048];
; 125  : 	int             l, c;
; 126  : 
; 127  : 	string[0] = 0;

	mov	eax, 1
	imul	ecx, eax, 0
	mov	DWORD PTR $T2[ebp], ecx
	cmp	DWORD PTR $T2[ebp], 2048		; 00000800H
	jae	SHORT $LN8@READ_STRIN
	jmp	SHORT $LN9@READ_STRIN
$LN8@READ_STRIN:
	call	___report_rangecheckfailure
$LN9@READ_STRIN:
	mov	edx, DWORD PTR $T2[ebp]
	mov	BYTE PTR ?string@?1??READ_STRING@@YAPADXZ@4PADA[edx], 0

; 128  : 
; 129  : 	l = 0;

	mov	DWORD PTR _l$[ebp], 0
$LN4@READ_STRIN:

; 130  : 	do
; 131  : 	{
; 132  : 		if( giRead + 1 > giSize )

	mov	eax, DWORD PTR ?giRead@@3HA
	add	eax, 1
	cmp	eax, DWORD PTR ?giSize@@3HA
	jle	SHORT $LN5@READ_STRIN

; 133  : 			break; // no more characters

	jmp	SHORT $LN3@READ_STRIN
$LN5@READ_STRIN:

; 134  : 
; 135  : 		c = READ_CHAR();

	call	?READ_CHAR@@YAHXZ			; READ_CHAR
	mov	DWORD PTR _c$[ebp], eax

; 136  : 		if( c == 0 ) break;

	cmp	DWORD PTR _c$[ebp], 0
	jne	SHORT $LN6@READ_STRIN
	jmp	SHORT $LN3@READ_STRIN
$LN6@READ_STRIN:

; 137  : 
; 138  : 		string[l] = c;

	mov	eax, DWORD PTR _l$[ebp]
	mov	cl, BYTE PTR _c$[ebp]
	mov	BYTE PTR ?string@?1??READ_STRING@@YAPADXZ@4PADA[eax], cl

; 139  : 		l++;

	mov	eax, DWORD PTR _l$[ebp]
	add	eax, 1
	mov	DWORD PTR _l$[ebp], eax

; 140  : 	} while( l < sizeof( string ) - 1 );

	cmp	DWORD PTR _l$[ebp], 2047		; 000007ffH
	jb	SHORT $LN4@READ_STRIN
$LN3@READ_STRIN:

; 141  : 	
; 142  : 	string[l] = 0;

	mov	eax, DWORD PTR _l$[ebp]
	mov	DWORD PTR $T1[ebp], eax
	cmp	DWORD PTR $T1[ebp], 2048		; 00000800H
	jae	SHORT $LN10@READ_STRIN
	jmp	SHORT $LN11@READ_STRIN
$LN10@READ_STRIN:
	call	___report_rangecheckfailure
$LN11@READ_STRIN:
	mov	ecx, DWORD PTR $T1[ebp]
	mov	BYTE PTR ?string@?1??READ_STRING@@YAPADXZ@4PADA[ecx], 0

; 143  : 
; 144  : 	return string;

	mov	eax, OFFSET ?string@?1??READ_STRING@@YAPADXZ@4PADA
$LN7@READ_STRIN:

; 145  : }

	pop	edi
	pop	esi
	pop	ebx
	mov	esp, ebp
	pop	ebp
	ret	0
?READ_STRING@@YAPADXZ ENDP				; READ_STRING
_TEXT	ENDS
; Function compile flags: /Odtp /ZI
; File d:\!diffusion 2020\source code 2022\client-server\client\parsemsg.cpp
;	COMDAT ?READ_FLOAT@@YAMXZ
_TEXT	SEGMENT
_c$ = -4						; size = 4
?READ_FLOAT@@YAMXZ PROC					; READ_FLOAT, COMDAT

; 116  : {

	push	ebp
	mov	ebp, esp
	sub	esp, 68					; 00000044H
	push	ebx
	push	esi
	push	edi

; 117  : 	int c = READ_LONG();

	call	?READ_LONG@@YAHXZ			; READ_LONG
	mov	DWORD PTR _c$[ebp], eax

; 118  : 
; 119  : 	return *((float *)&c);

	fld	DWORD PTR _c$[ebp]

; 120  : }

	pop	edi
	pop	esi
	pop	ebx
	mov	esp, ebp
	pop	ebp
	ret	0
?READ_FLOAT@@YAMXZ ENDP					; READ_FLOAT
_TEXT	ENDS
; Function compile flags: /Odtp /ZI
; File d:\!diffusion 2020\source code 2022\client-server\client\parsemsg.cpp
;	COMDAT ?READ_LONG@@YAHXZ
_TEXT	SEGMENT
_c$ = -4						; size = 4
?READ_LONG@@YAHXZ PROC					; READ_LONG, COMDAT

; 101  : {

	push	ebp
	mov	ebp, esp
	sub	esp, 68					; 00000044H
	push	ebx
	push	esi
	push	edi

; 102  : 	int     c;
; 103  : 	
; 104  : 	if( giRead + 4 > giSize )

	mov	eax, DWORD PTR ?giRead@@3HA
	add	eax, 4
	cmp	eax, DWORD PTR ?giSize@@3HA
	jle	SHORT $LN2@READ_LONG

; 105  : 	{
; 106  : 		giBadRead = true;

	mov	BYTE PTR ?giBadRead@@3_NA, 1

; 107  : 		return -1;

	or	eax, -1
	jmp	SHORT $LN1@READ_LONG
$LN2@READ_LONG:

; 108  : 	}
; 109  :  	c = gpBuf[giRead] + (gpBuf[giRead + 1] << 8) + (gpBuf[giRead + 2] << 16) + (gpBuf[giRead + 3] << 24);

	mov	eax, DWORD PTR ?gpBuf@@3PAEA
	add	eax, DWORD PTR ?giRead@@3HA
	movzx	ecx, BYTE PTR [eax]
	mov	edx, DWORD PTR ?gpBuf@@3PAEA
	add	edx, DWORD PTR ?giRead@@3HA
	movzx	eax, BYTE PTR [edx+1]
	shl	eax, 8
	add	ecx, eax
	mov	edx, DWORD PTR ?gpBuf@@3PAEA
	add	edx, DWORD PTR ?giRead@@3HA
	movzx	eax, BYTE PTR [edx+2]
	shl	eax, 16					; 00000010H
	add	ecx, eax
	mov	edx, DWORD PTR ?gpBuf@@3PAEA
	add	edx, DWORD PTR ?giRead@@3HA
	movzx	eax, BYTE PTR [edx+3]
	shl	eax, 24					; 00000018H
	add	ecx, eax
	mov	DWORD PTR _c$[ebp], ecx

; 110  : 	giRead += 4;

	mov	eax, DWORD PTR ?giRead@@3HA
	add	eax, 4
	mov	DWORD PTR ?giRead@@3HA, eax

; 111  : 	
; 112  : 	return c;

	mov	eax, DWORD PTR _c$[ebp]
$LN1@READ_LONG:

; 113  : }

	pop	edi
	pop	esi
	pop	ebx
	mov	esp, ebp
	pop	ebp
	ret	0
?READ_LONG@@YAHXZ ENDP					; READ_LONG
_TEXT	ENDS
; Function compile flags: /Odtp /ZI
; File d:\!diffusion 2020\source code 2022\client-server\client\parsemsg.cpp
;	COMDAT ?READ_WORD@@YAHXZ
_TEXT	SEGMENT
?READ_WORD@@YAHXZ PROC					; READ_WORD, COMDAT

; 96   : {

	push	ebp
	mov	ebp, esp
	sub	esp, 64					; 00000040H
	push	ebx
	push	esi
	push	edi

; 97   : 	return (word)READ_SHORT();

	call	?READ_SHORT@@YAHXZ			; READ_SHORT
	movzx	eax, ax

; 98   : }

	pop	edi
	pop	esi
	pop	ebx
	mov	esp, ebp
	pop	ebp
	ret	0
?READ_WORD@@YAHXZ ENDP					; READ_WORD
_TEXT	ENDS
; Function compile flags: /Odtp /ZI
; File d:\!diffusion 2020\source code 2022\client-server\client\parsemsg.cpp
;	COMDAT ?READ_SHORT@@YAHXZ
_TEXT	SEGMENT
_c$ = -4						; size = 4
?READ_SHORT@@YAHXZ PROC					; READ_SHORT, COMDAT

; 80   : {

	push	ebp
	mov	ebp, esp
	sub	esp, 68					; 00000044H
	push	ebx
	push	esi
	push	edi

; 81   : 	int     c;
; 82   : 	
; 83   : 	if( giRead + 2 > giSize )

	mov	eax, DWORD PTR ?giRead@@3HA
	add	eax, 2
	cmp	eax, DWORD PTR ?giSize@@3HA
	jle	SHORT $LN2@READ_SHORT

; 84   : 	{
; 85   : 		giBadRead = true;

	mov	BYTE PTR ?giBadRead@@3_NA, 1

; 86   : 		return -1;

	or	eax, -1
	jmp	SHORT $LN1@READ_SHORT
$LN2@READ_SHORT:

; 87   : 	}
; 88   : 		
; 89   : 	c = (short)( gpBuf[giRead] + ( gpBuf[giRead+1] << 8 ));

	mov	eax, DWORD PTR ?gpBuf@@3PAEA
	add	eax, DWORD PTR ?giRead@@3HA
	movzx	ecx, BYTE PTR [eax]
	mov	edx, DWORD PTR ?gpBuf@@3PAEA
	add	edx, DWORD PTR ?giRead@@3HA
	movzx	eax, BYTE PTR [edx+1]
	shl	eax, 8
	add	ecx, eax
	movsx	ecx, cx
	mov	DWORD PTR _c$[ebp], ecx

; 90   : 	giRead += 2;

	mov	eax, DWORD PTR ?giRead@@3HA
	add	eax, 2
	mov	DWORD PTR ?giRead@@3HA, eax

; 91   : 	
; 92   : 	return c;

	mov	eax, DWORD PTR _c$[ebp]
$LN1@READ_SHORT:

; 93   : }

	pop	edi
	pop	esi
	pop	ebx
	mov	esp, ebp
	pop	ebp
	ret	0
?READ_SHORT@@YAHXZ ENDP					; READ_SHORT
_TEXT	ENDS
; Function compile flags: /Odtp /ZI
; File d:\!diffusion 2020\source code 2022\client-server\client\parsemsg.cpp
;	COMDAT ?READ_BYTE@@YAHXZ
_TEXT	SEGMENT
_c$ = -4						; size = 4
?READ_BYTE@@YAHXZ PROC					; READ_BYTE, COMDAT

; 64   : {

	push	ebp
	mov	ebp, esp
	sub	esp, 68					; 00000044H
	push	ebx
	push	esi
	push	edi

; 65   : 	int     c;
; 66   : 	
; 67   : 	if( giRead + 1 > giSize )

	mov	eax, DWORD PTR ?giRead@@3HA
	add	eax, 1
	cmp	eax, DWORD PTR ?giSize@@3HA
	jle	SHORT $LN2@READ_BYTE

; 68   : 	{
; 69   : 		giBadRead = true;

	mov	BYTE PTR ?giBadRead@@3_NA, 1

; 70   : 		return -1;

	or	eax, -1
	jmp	SHORT $LN1@READ_BYTE
$LN2@READ_BYTE:

; 71   : 	}
; 72   : 		
; 73   : 	c = (unsigned char)gpBuf[giRead];

	mov	eax, DWORD PTR ?gpBuf@@3PAEA
	add	eax, DWORD PTR ?giRead@@3HA
	movzx	ecx, BYTE PTR [eax]
	mov	DWORD PTR _c$[ebp], ecx

; 74   : 	giRead++;

	mov	eax, DWORD PTR ?giRead@@3HA
	add	eax, 1
	mov	DWORD PTR ?giRead@@3HA, eax

; 75   : 	
; 76   : 	return c;

	mov	eax, DWORD PTR _c$[ebp]
$LN1@READ_BYTE:

; 77   : }

	pop	edi
	pop	esi
	pop	ebx
	mov	esp, ebp
	pop	ebp
	ret	0
?READ_BYTE@@YAHXZ ENDP					; READ_BYTE
_TEXT	ENDS
; Function compile flags: /Odtp /ZI
; File d:\!diffusion 2020\source code 2022\client-server\client\parsemsg.cpp
;	COMDAT ?READ_CHAR@@YAHXZ
_TEXT	SEGMENT
_c$ = -4						; size = 4
?READ_CHAR@@YAHXZ PROC					; READ_CHAR, COMDAT

; 48   : {

	push	ebp
	mov	ebp, esp
	sub	esp, 68					; 00000044H
	push	ebx
	push	esi
	push	edi

; 49   : 	int     c;
; 50   : 	
; 51   : 	if( giRead + 1 > giSize )

	mov	eax, DWORD PTR ?giRead@@3HA
	add	eax, 1
	cmp	eax, DWORD PTR ?giSize@@3HA
	jle	SHORT $LN2@READ_CHAR

; 52   : 	{
; 53   : 		giBadRead = true;

	mov	BYTE PTR ?giBadRead@@3_NA, 1

; 54   : 		return -1;

	or	eax, -1
	jmp	SHORT $LN1@READ_CHAR
$LN2@READ_CHAR:

; 55   : 	}
; 56   : 		
; 57   : 	c = (signed char)gpBuf[giRead];

	mov	eax, DWORD PTR ?gpBuf@@3PAEA
	add	eax, DWORD PTR ?giRead@@3HA
	movsx	ecx, BYTE PTR [eax]
	mov	DWORD PTR _c$[ebp], ecx

; 58   : 	giRead++;

	mov	eax, DWORD PTR ?giRead@@3HA
	add	eax, 1
	mov	DWORD PTR ?giRead@@3HA, eax

; 59   : 	
; 60   : 	return c;

	mov	eax, DWORD PTR _c$[ebp]
$LN1@READ_CHAR:

; 61   : }

	pop	edi
	pop	esi
	pop	ebx
	mov	esp, ebp
	pop	ebp
	ret	0
?READ_CHAR@@YAHXZ ENDP					; READ_CHAR
_TEXT	ENDS
; Function compile flags: /Odtp /ZI
; File d:\!diffusion 2020\source code 2022\client-server\client\parsemsg.cpp
;	COMDAT ?END_READ@@YAXXZ
_TEXT	SEGMENT
?END_READ@@YAXXZ PROC					; END_READ, COMDAT

; 42   : {

	push	ebp
	mov	ebp, esp
	sub	esp, 64					; 00000040H
	push	ebx
	push	esi
	push	edi

; 43   : 	if( giBadRead )

	movzx	eax, BYTE PTR ?giBadRead@@3_NA
	test	eax, eax
	je	SHORT $LN1@END_READ

; 44   : 		ALERT( at_warning, "%s was received with errors (read more than %i bytes)\n", gpszName, giSize );

	mov	eax, DWORD PTR ?giSize@@3HA
	push	eax
	mov	ecx, DWORD PTR ?gpszName@@3PBDB
	push	ecx
	push	OFFSET ??_C@_0DH@HEJEMIJK@?$CFs?5was?5received?5with?5errors?5?$CIrea@
	push	3
	call	?ALERT@@YAXW4ALERT_TYPE@@PADZZ		; ALERT
	add	esp, 16					; 00000010H
$LN1@END_READ:

; 45   : }

	pop	edi
	pop	esi
	pop	ebx
	mov	esp, ebp
	pop	ebp
	ret	0
?END_READ@@YAXXZ ENDP					; END_READ
_TEXT	ENDS
; Function compile flags: /Odtp /ZI
; File d:\!diffusion 2020\source code 2022\client-server\client\parsemsg.cpp
;	COMDAT ?BEGIN_READ@@YAXPBDPAXH@Z
_TEXT	SEGMENT
_pszName$ = 8						; size = 4
_buf$ = 12						; size = 4
_size$ = 16						; size = 4
?BEGIN_READ@@YAXPBDPAXH@Z PROC				; BEGIN_READ, COMDAT

; 30   : {

	push	ebp
	mov	ebp, esp
	sub	esp, 64					; 00000040H
	push	ebx
	push	esi
	push	edi

; 31   : 	giRead = 0;

	mov	DWORD PTR ?giRead@@3HA, 0

; 32   : 	giSize = size;

	mov	eax, DWORD PTR _size$[ebp]
	mov	DWORD PTR ?giSize@@3HA, eax

; 33   : 	gpBuf = (byte*)buf;

	mov	eax, DWORD PTR _buf$[ebp]
	mov	DWORD PTR ?gpBuf@@3PAEA, eax

; 34   : 	gpszName = pszName;

	mov	eax, DWORD PTR _pszName$[ebp]
	mov	DWORD PTR ?gpszName@@3PBDB, eax

; 35   : 	giBadRead = false;

	mov	BYTE PTR ?giBadRead@@3_NA, 0

; 36   : 
; 37   : 	if( cl_showmsgs->value > 0 )

	mov	eax, DWORD PTR ?cl_showmsgs@@3PAUcvar_s@@A ; cl_showmsgs
	movss	xmm0, DWORD PTR [eax+12]
	comiss	xmm0, DWORD PTR __real@00000000
	jbe	SHORT $LN2@BEGIN_READ

; 38   : 		gEngfuncs.Con_Printf( "BEGIN_READ: %s\n", pszName );

	mov	eax, DWORD PTR _pszName$[ebp]
	push	eax
	push	OFFSET ??_C@_0BA@EMJNMANP@BEGIN_READ?3?5?$CFs?6?$AA@
	call	DWORD PTR ?gEngfuncs@@3Ucl_enginefuncs_s@@A+160
	add	esp, 8
$LN2@BEGIN_READ:

; 39   : }

	pop	edi
	pop	esi
	pop	ebx
	mov	esp, ebp
	pop	ebp
	ret	0
?BEGIN_READ@@YAXPBDPAXH@Z ENDP				; BEGIN_READ
_TEXT	ENDS
; Function compile flags: /Odtp /ZI
;	COMDAT ??__G@YGXPAX0IIP6EPAX00@Z@Z
_TEXT	SEGMENT
tv66 = -68						; size = 4
___t$ = 8						; size = 4
___u$ = 12						; size = 4
___s$ = 16						; size = 4
___n$ = 20						; size = 4
___f$ = 24						; size = 4
??__G@YGXPAX0IIP6EPAX00@Z@Z PROC			; `vector copy constructor iterator', COMDAT
	push	ebp
	mov	ebp, esp
	sub	esp, 68					; 00000044H
	push	ebx
	push	esi
	push	edi
$LN2@vector:
	mov	eax, DWORD PTR ___n$[ebp]
	mov	DWORD PTR tv66[ebp], eax
	mov	ecx, DWORD PTR ___n$[ebp]
	sub	ecx, 1
	mov	DWORD PTR ___n$[ebp], ecx
	cmp	DWORD PTR tv66[ebp], 0
	jbe	SHORT $LN1@vector
	mov	eax, DWORD PTR ___u$[ebp]
	push	eax
	mov	ecx, DWORD PTR ___t$[ebp]
	call	DWORD PTR ___f$[ebp]
	mov	eax, DWORD PTR ___t$[ebp]
	add	eax, DWORD PTR ___s$[ebp]
	mov	DWORD PTR ___t$[ebp], eax
	mov	eax, DWORD PTR ___u$[ebp]
	add	eax, DWORD PTR ___s$[ebp]
	mov	DWORD PTR ___u$[ebp], eax
	jmp	SHORT $LN2@vector
$LN1@vector:
	pop	edi
	pop	esi
	pop	ebx
	mov	esp, ebp
	pop	ebp
	ret	20					; 00000014H
??__G@YGXPAX0IIP6EPAX00@Z@Z ENDP			; `vector copy constructor iterator'
_TEXT	ENDS
; Function compile flags: /Odtp /ZI
;	COMDAT ??_H@YGXPAXIIP6EPAX0@Z@Z
_TEXT	SEGMENT
tv66 = -68						; size = 4
___t$ = 8						; size = 4
___s$ = 12						; size = 4
___n$ = 16						; size = 4
___f$ = 20						; size = 4
??_H@YGXPAXIIP6EPAX0@Z@Z PROC				; `vector constructor iterator', COMDAT
	push	ebp
	mov	ebp, esp
	sub	esp, 68					; 00000044H
	push	ebx
	push	esi
	push	edi
$LN2@vector:
	mov	eax, DWORD PTR ___n$[ebp]
	mov	DWORD PTR tv66[ebp], eax
	mov	ecx, DWORD PTR ___n$[ebp]
	sub	ecx, 1
	mov	DWORD PTR ___n$[ebp], ecx
	cmp	DWORD PTR tv66[ebp], 0
	jbe	SHORT $LN1@vector
	mov	ecx, DWORD PTR ___t$[ebp]
	call	DWORD PTR ___f$[ebp]
	mov	eax, DWORD PTR ___t$[ebp]
	add	eax, DWORD PTR ___s$[ebp]
	mov	DWORD PTR ___t$[ebp], eax
	jmp	SHORT $LN2@vector
$LN1@vector:
	pop	edi
	pop	esi
	pop	ebx
	mov	esp, ebp
	pop	ebp
	ret	16					; 00000010H
??_H@YGXPAXIIP6EPAX0@Z@Z ENDP				; `vector constructor iterator'
_TEXT	ENDS
END
