; Listing generated by Microsoft (R) Optimizing Compiler Version 19.00.24247.2 

	TITLE	D:\!DIFFUSION 2020\source code 2022\client-server\game_shared\playermove.cpp
	.686P
	.XMM
	include listing.inc
	.model	flat

INCLUDELIB LIBCMT
INCLUDELIB OLDNAMES

PUBLIC	?pmove@@3PAUplayermove_s@@A			; pmove
PUBLIC	?g_onladder@@3HA				; g_onladder
_BSS	SEGMENT
?pm_shared_initialized@@3HA DD 01H DUP (?)		; pm_shared_initialized
?pmove@@3PAUplayermove_s@@A DD 01H DUP (?)		; pmove
?gcTextures@@3HA DD 01H DUP (?)				; gcTextures
?g_onladder@@3HA DD 01H DUP (?)				; g_onladder
?bTextureTypeInit@?1??PM_InitTextureTypes@@YAXXZ@4HA DD 01H DUP (?) ; `PM_InitTextureTypes'::`2'::bTextureTypeInit
?iSkipStep@?1??PM_PlayStepSound@@YAXHM@Z@4HA DD 01H DUP (?) ; `PM_PlayStepSound'::`2'::iSkipStep
_BSS	ENDS
PUBLIC	??_H@YGXPAXIIP6EPAX0@Z@Z			; `vector constructor iterator'
PUBLIC	??__G@YGXPAX0IIP6EPAX00@Z@Z			; `vector copy constructor iterator'
PUBLIC	?SinCos@@YAXMPAM0@Z				; SinCos
PUBLIC	??0Vector@@QAE@XZ				; Vector::Vector
PUBLIC	??0Vector@@QAE@MMM@Z				; Vector::Vector
PUBLIC	??0Vector@@QAE@ABV0@@Z				; Vector::Vector
PUBLIC	??8Vector@@QBEHABV0@@Z				; Vector::operator==
PUBLIC	??9Vector@@QBEHABV0@@Z				; Vector::operator!=
PUBLIC	??HVector@@QBE?AV0@ABV0@@Z			; Vector::operator+
PUBLIC	??GVector@@QBE?AV0@ABV0@@Z			; Vector::operator-
PUBLIC	??DVector@@QBE?AV0@M@Z				; Vector::operator*
PUBLIC	??YVector@@QAEAAV0@ABV0@@Z			; Vector::operator+=
PUBLIC	??ZVector@@QAEAAV0@ABV0@@Z			; Vector::operator-=
PUBLIC	??XVector@@QAEAAV0@M@Z				; Vector::operator*=
PUBLIC	?Length@Vector@@QBEMXZ				; Vector::Length
PUBLIC	??BVector@@QAEPAMXZ				; Vector::operator float *
PUBLIC	??BVector@@QBEPBMXZ				; Vector::operator float const *
PUBLIC	?Normalize@Vector@@QBE?AV1@XZ			; Vector::Normalize
PUBLIC	??D@YA?AVVector@@MABV0@@Z			; operator*
PUBLIC	?DotProduct@@YAMABVVector@@0@Z			; DotProduct
PUBLIC	?CrossProduct@@YA?AVVector@@ABV1@0@Z		; CrossProduct
PUBLIC	??0Vector4D@@QAE@XZ				; Vector4D::Vector4D
PUBLIC	??BVector4D@@QAEPAMXZ				; Vector4D::operator float *
PUBLIC	??0matrix4x4@@QAE@ABVVector@@0M@Z		; matrix4x4::matrix4x4
PUBLIC	??0plane_s@@QAE@XZ				; plane_s::plane_s
PUBLIC	??0trace_s@@QAE@XZ				; trace_s::trace_s
PUBLIC	??0pmplane_t@@QAE@XZ				; pmplane_t::pmplane_t
PUBLIC	??0pmplane_t@@QAE@ABU0@@Z			; pmplane_t::pmplane_t
PUBLIC	??0pmplane_t@@QAE@$$QAU0@@Z			; pmplane_t::pmplane_t
PUBLIC	??0pmtrace_s@@QAE@XZ				; pmtrace_s::pmtrace_s
PUBLIC	??0pmtrace_s@@QAE@ABU0@@Z			; pmtrace_s::pmtrace_s
PUBLIC	??0pmtrace_s@@QAE@$$QAU0@@Z			; pmtrace_s::pmtrace_s
PUBLIC	?strstr@@YAPADQADQBD@Z				; strstr
PUBLIC	?PM_SwapTextures@@YAXHH@Z			; PM_SwapTextures
PUBLIC	??$strcpy_s@$0BI@@@YAHAAY0BI@DPBD@Z		; strcpy_s<24>
PUBLIC	?PM_SortTextures@@YAXXZ				; PM_SortTextures
PUBLIC	?PM_ParticleLine@@YAXVVector@@0H@Z		; PM_ParticleLine
PUBLIC	?PM_InitTextureTypes@@YAXXZ			; PM_InitTextureTypes
PUBLIC	?PM_FindTextureType@@YADPAD@Z			; PM_FindTextureType
PUBLIC	?PM_PlayGroupSound@@YAXPBDHM@Z			; PM_PlayGroupSound
PUBLIC	??$strcpy_s@$0IA@@@YAHAAY0IA@DPBD@Z		; strcpy_s<128>
PUBLIC	?PM_PlayStepSound@@YAXHM@Z			; PM_PlayStepSound
PUBLIC	?PM_MapTextureTypeStepType@@YAHD@Z		; PM_MapTextureTypeStepType
PUBLIC	?PM_CategorizeTextureType@@YAXXZ		; PM_CategorizeTextureType
PUBLIC	?PM_UpdateStepSound@@YAXH@Z			; PM_UpdateStepSound
PUBLIC	?PM_AddToTouched@@YAHUpmtrace_s@@VVector@@@Z	; PM_AddToTouched
PUBLIC	?PM_CheckVelocity@@YAXXZ			; PM_CheckVelocity
PUBLIC	?PM_ClipVelocity@@YAHVVector@@0AAV1@M@Z		; PM_ClipVelocity
PUBLIC	?PM_AddCorrectGravity@@YAXXZ			; PM_AddCorrectGravity
PUBLIC	?PM_FixupGravityVelocity@@YAXXZ			; PM_FixupGravityVelocity
PUBLIC	?PM_FlyMove@@YAHXZ				; PM_FlyMove
PUBLIC	?PM_Accelerate@@YAXVVector@@MM@Z		; PM_Accelerate
PUBLIC	?PM_WalkMove@@YAXXZ				; PM_WalkMove
PUBLIC	?PM_Friction@@YAXXZ				; PM_Friction
PUBLIC	?PM_AirAccelerate@@YAXVVector@@MM@Z		; PM_AirAccelerate
PUBLIC	?PM_WaterMove@@YAXXZ				; PM_WaterMove
PUBLIC	?PM_AirMove@@YAXXZ				; PM_AirMove
PUBLIC	?PM_InWater@@YAHXZ				; PM_InWater
PUBLIC	?PM_CheckWater@@YAHXZ				; PM_CheckWater
PUBLIC	?PM_NoClip@@YAXXZ				; PM_NoClip
PUBLIC	?PM_CategorizePosition@@YAXXZ			; PM_CategorizePosition
PUBLIC	?PM_GetRandomStuckOffsets@@YAHHHAAVVector@@@Z	; PM_GetRandomStuckOffsets
PUBLIC	?PM_ResetStuckOffsets@@YAXHH@Z			; PM_ResetStuckOffsets
PUBLIC	?PM_CheckStuck@@YAHXZ				; PM_CheckStuck
PUBLIC	?PM_SpectatorMove@@YAXXZ			; PM_SpectatorMove
PUBLIC	?PM_SplineFraction@@YAMMM@Z			; PM_SplineFraction
PUBLIC	?PM_FixPlayerCrouchStuck@@YAXH@Z		; PM_FixPlayerCrouchStuck
PUBLIC	?PM_UnDuck@@YAXXZ				; PM_UnDuck
PUBLIC	?PM_Duck@@YAXXZ					; PM_Duck
PUBLIC	?PM_LadderMove@@YAXPAUphysent_s@@@Z		; PM_LadderMove
PUBLIC	?PM_Ladder@@YAPAUphysent_s@@XZ			; PM_Ladder
PUBLIC	?PM_WaterJump@@YAXXZ				; PM_WaterJump
PUBLIC	?PM_AddGravity@@YAXXZ				; PM_AddGravity
PUBLIC	?PM_PushEntity@@YA?AUpmtrace_s@@ABVVector@@@Z	; PM_PushEntity
PUBLIC	?PM_Physics_Toss@@YAXXZ				; PM_Physics_Toss
PUBLIC	?PM_PreventMegaBunnyJumping@@YAXXZ		; PM_PreventMegaBunnyJumping
PUBLIC	?PM_Jump@@YAXXZ					; PM_Jump
PUBLIC	?PM_CheckWaterJump@@YAXXZ			; PM_CheckWaterJump
PUBLIC	?PM_CheckFalling@@YAXXZ				; PM_CheckFalling
PUBLIC	?PM_PlayWaterSounds@@YAXXZ			; PM_PlayWaterSounds
PUBLIC	?PM_CalcRoll@@YAMVVector@@0MM@Z			; PM_CalcRoll
PUBLIC	?PM_DropPunchAngle@@YAXAAVVector@@@Z		; PM_DropPunchAngle
PUBLIC	?PM_CheckParameters@@YAXXZ			; PM_CheckParameters
PUBLIC	?PM_ReduceTimers@@YAXXZ				; PM_ReduceTimers
PUBLIC	?PM_PlayerMove@@YAXH@Z				; PM_PlayerMove
PUBLIC	?PM_CreateStuckTable@@YAXXZ			; PM_CreateStuckTable
PUBLIC	?PM_Move@@YAXPAUplayermove_s@@H@Z		; PM_Move
PUBLIC	?PM_GetVisEntInfo@@YAHH@Z			; PM_GetVisEntInfo
PUBLIC	?PM_GetPhysEntInfo@@YAHH@Z			; PM_GetPhysEntInfo
PUBLIC	?PM_Init@@YAXPAUplayermove_s@@@Z		; PM_Init
PUBLIC	??_C@_0BD@EJFPBDDL@data?1materials?4txt?$AA@	; `string'
PUBLIC	??_C@_02CBLDBPFN@?1?1?$AA@			; `string'
PUBLIC	?__LINE__Var@?0??PM_FindTextureType@@YADPAD@Z@4JA ; `PM_FindTextureType'::`1'::__LINE__Var
PUBLIC	??_C@_1JK@HGLHDLOI@?$AAd?$AA?3?$AA?2?$AA?$CB?$AAd?$AAi?$AAf?$AAf?$AAu?$AAs?$AAi?$AAo?$AAn?$AA?5?$AA2?$AA0?$AA2?$AA0?$AA?2?$AAs?$AAo?$AAu?$AAr?$AAc?$AAe?$AA?5?$AAc?$AAo?$AAd?$AAe?$AA?5?$AA2@ ; `string'
PUBLIC	??_C@_1CM@MFEIHPMD@?$AAp?$AAm?$AA_?$AAs?$AAh?$AAa?$AAr?$AAe?$AAd?$AA_?$AAi?$AAn?$AAi?$AAt?$AAi?$AAa?$AAl?$AAi?$AAz?$AAe?$AAd?$AA?$AA@ ; `string'
PUBLIC	??_C@_0BE@EILPPNKE@footsteps?1step1?4wav?$AA@	; `string'
PUBLIC	??_C@_0BE@MOCLIPAK@footsteps?1step2?4wav?$AA@	; `string'
PUBLIC	??_C@_0BE@FHHFMKP@footsteps?1step3?4wav?$AA@	; `string'
PUBLIC	??_C@_0BE@BIHCGMBH@footsteps?1step4?4wav?$AA@	; `string'
PUBLIC	??_C@_0BE@NDCOLPLC@footsteps?1step5?4wav?$AA@	; `string'
PUBLIC	??_C@_0BE@FFLKMNBM@footsteps?1step6?4wav?$AA@	; `string'
PUBLIC	??_C@_0BF@HOEKEMNF@footsteps?1metal1?4wav?$AA@	; `string'
PUBLIC	??_C@_0BF@DDICONNO@footsteps?1metal3?4wav?$AA@	; `string'
PUBLIC	??_C@_0BF@PINODOHL@footsteps?1metal2?4wav?$AA@	; `string'
PUBLIC	??_C@_0BF@COIHNNGG@footsteps?1metal4?4wav?$AA@	; `string'
PUBLIC	??_C@_0BE@FCHDNODC@footsteps?1dirt1?4wav?$AA@	; `string'
PUBLIC	??_C@_0BE@BPLLHPDJ@footsteps?1dirt3?4wav?$AA@	; `string'
PUBLIC	??_C@_0BE@NEOHKMJM@footsteps?1dirt2?4wav?$AA@	; `string'
PUBLIC	??_C@_0BE@CLOEPIB@footsteps?1dirt4?4wav?$AA@	; `string'
PUBLIC	??_C@_0BE@KIJGFOOC@footsteps?1duct1?4wav?$AA@	; `string'
PUBLIC	??_C@_0BE@OFFOPPOJ@footsteps?1duct3?4wav?$AA@	; `string'
PUBLIC	??_C@_0BE@COACCMEM@footsteps?1duct2?4wav?$AA@	; `string'
PUBLIC	??_C@_0BE@PIFLMPFB@footsteps?1duct4?4wav?$AA@	; `string'
PUBLIC	??_C@_0BF@BOADPDGC@footsteps?1grate1?4wav?$AA@	; `string'
PUBLIC	??_C@_0BF@FDMLFCGJ@footsteps?1grate3?4wav?$AA@	; `string'
PUBLIC	??_C@_0BF@JIJHIBMM@footsteps?1grate2?4wav?$AA@	; `string'
PUBLIC	??_C@_0BF@EOMOGCNB@footsteps?1grate4?4wav?$AA@	; `string'
PUBLIC	??_C@_0BE@NNEFOLLJ@footsteps?1tile1?4wav?$AA@	; `string'
PUBLIC	??_C@_0BE@JAINEKLC@footsteps?1tile3?4wav?$AA@	; `string'
PUBLIC	??_C@_0BE@FLNBJJBH@footsteps?1tile2?4wav?$AA@	; `string'
PUBLIC	??_C@_0BE@INIIHKAK@footsteps?1tile4?4wav?$AA@	; `string'
PUBLIC	??_C@_0BE@EGNEKJKP@footsteps?1tile5?4wav?$AA@	; `string'
PUBLIC	??_C@_0BF@JKJLEGDL@footsteps?1slosh1?4wav?$AA@	; `string'
PUBLIC	??_C@_0BF@NHFDOHDA@footsteps?1slosh3?4wav?$AA@	; `string'
PUBLIC	??_C@_0BF@BMAPDEJF@footsteps?1slosh2?4wav?$AA@	; `string'
PUBLIC	??_C@_0BF@MKFGNHII@footsteps?1slosh4?4wav?$AA@	; `string'
PUBLIC	??_C@_0BE@FOEPOJBH@footsteps?1wade1?4wav?$AA@	; `string'
PUBLIC	??_C@_0BE@NINLJLLJ@footsteps?1wade2?4wav?$AA@	; `string'
PUBLIC	??_C@_0BE@BDIHEIBM@footsteps?1wade3?4wav?$AA@	; `string'
PUBLIC	??_C@_0BE@OICHIKE@footsteps?1wade4?4wav?$AA@	; `string'
PUBLIC	??_C@_0BG@INDJNKA@footsteps?1ladder1?4wav?$AA@	; `string'
PUBLIC	??_C@_0BG@EFBLDMKL@footsteps?1ladder3?4wav?$AA@	; `string'
PUBLIC	??_C@_0BG@IOEHOPAO@footsteps?1ladder2?4wav?$AA@	; `string'
PUBLIC	??_C@_0BG@FIBOAMBD@footsteps?1ladder4?4wav?$AA@	; `string'
PUBLIC	??_C@_0BL@LKCEGKKB@footsteps?1ladder_wood1?4wav?$AA@ ; `string'
PUBLIC	??_C@_0BL@PHOMMLKK@footsteps?1ladder_wood3?4wav?$AA@ ; `string'
PUBLIC	??_C@_0BL@DMLABIAP@footsteps?1ladder_wood2?4wav?$AA@ ; `string'
PUBLIC	??_C@_0BL@OKOJPLBC@footsteps?1ladder_wood4?4wav?$AA@ ; `string'
PUBLIC	??_C@_0BE@GNJACFGH@footsteps?1wood1?4wav?$AA@	; `string'
PUBLIC	??_C@_0BE@OLAEFHMJ@footsteps?1wood2?4wav?$AA@	; `string'
PUBLIC	??_C@_0BE@CAFIIEGM@footsteps?1wood3?4wav?$AA@	; `string'
PUBLIC	??_C@_0BE@DNFNLENE@footsteps?1wood4?4wav?$AA@	; `string'
PUBLIC	??_C@_0BE@PGABGHHB@footsteps?1wood5?4wav?$AA@	; `string'
PUBLIC	??_C@_0BE@HAJFBFNP@footsteps?1wood6?4wav?$AA@	; `string'
PUBLIC	??_C@_0BE@CFDGBHAN@footsteps?1snow1?4wav?$AA@	; `string'
PUBLIC	??_C@_0BE@KDKCGFKD@footsteps?1snow2?4wav?$AA@	; `string'
PUBLIC	??_C@_0BE@GIPOLGAG@footsteps?1snow3?4wav?$AA@	; `string'
PUBLIC	??_C@_0BE@HFPLIGLO@footsteps?1snow4?4wav?$AA@	; `string'
PUBLIC	??_C@_0BE@LOKHFFBL@footsteps?1snow5?4wav?$AA@	; `string'
PUBLIC	??_C@_0BE@DIDDCHLF@footsteps?1snow6?4wav?$AA@	; `string'
PUBLIC	??_C@_0BG@MCALNFDJ@footsteps?1carpet1?4wav?$AA@	; `string'
PUBLIC	??_C@_0BG@EEJPKHJH@footsteps?1carpet2?4wav?$AA@	; `string'
PUBLIC	??_C@_0BG@IPMDHEDC@footsteps?1carpet3?4wav?$AA@	; `string'
PUBLIC	??_C@_0BG@JCMGEEIK@footsteps?1carpet4?4wav?$AA@	; `string'
PUBLIC	??_C@_0BG@FJJKJHCP@footsteps?1carpet5?4wav?$AA@	; `string'
PUBLIC	??_C@_0BG@NPAOOFIB@footsteps?1carpet6?4wav?$AA@	; `string'
PUBLIC	??_C@_0BF@BAMIFDIP@footsteps?1grass1?4wav?$AA@	; `string'
PUBLIC	??_C@_0BF@JGFMCBCB@footsteps?1grass2?4wav?$AA@	; `string'
PUBLIC	??_C@_0BF@FNAAPCIE@footsteps?1grass3?4wav?$AA@	; `string'
PUBLIC	??_C@_0BF@EAAFMCDM@footsteps?1grass4?4wav?$AA@	; `string'
PUBLIC	??_C@_0BF@ILFJBBJJ@footsteps?1grass5?4wav?$AA@	; `string'
PUBLIC	??_C@_0BF@NMNGDDH@footsteps?1grass6?4wav?$AA@	; `string'
PUBLIC	??_C@_0BG@BNKLNNEE@footsteps?1gravel1?4wav?$AA@	; `string'
PUBLIC	??_C@_0BG@JLDPKPOK@footsteps?1gravel2?4wav?$AA@	; `string'
PUBLIC	??_C@_0BG@FAGDHMEP@footsteps?1gravel3?4wav?$AA@	; `string'
PUBLIC	??_C@_0BG@ENGGEMPH@footsteps?1gravel4?4wav?$AA@	; `string'
PUBLIC	??_C@_0BG@IGDKJPFC@footsteps?1gravel5?4wav?$AA@	; `string'
PUBLIC	??_C@_0BG@KOONPM@footsteps?1gravel6?4wav?$AA@	; `string'
PUBLIC	??_C@_0BF@CJKPOCNE@footsteps?1glass1?4wav?$AA@	; `string'
PUBLIC	??_C@_0BF@KPDLJAHK@footsteps?1glass2?4wav?$AA@	; `string'
PUBLIC	??_C@_0BF@GEGHEDNP@footsteps?1glass3?4wav?$AA@	; `string'
PUBLIC	??_C@_0BF@HJGCHDGH@footsteps?1glass4?4wav?$AA@	; `string'
PUBLIC	??_C@_0BF@LCDOKAMC@footsteps?1glass5?4wav?$AA@	; `string'
PUBLIC	??_C@_0BF@DEKKNCGM@footsteps?1glass6?4wav?$AA@	; `string'
PUBLIC	??_C@_0CB@CNILIGKA@Too?5many?5entities?5were?5touched?$CB?6@ ; `string'
PUBLIC	??_C@_0BL@ODOJHMIN@PM?5?5Got?5a?5NaN?5velocity?5?$CFi?6?$AA@ ; `string'
PUBLIC	??_C@_0BM@IKDFNEMI@PM?5?5Got?5a?5NaN?5origin?5on?5?$CFi?6?$AA@ ; `string'
PUBLIC	??_C@_0CD@BDBMHNGO@PM?5?5Got?5a?5velocity?5too?5high?5on?5?$CF@ ; `string'
PUBLIC	??_C@_0CC@OFBNMFAF@PM?5?5Got?5a?5velocity?5too?5low?5on?5?$CFi@ ; `string'
PUBLIC	??_C@_03DIGMJINO@tfc?$AA@			; `string'
PUBLIC	??_C@_03HJOOJOPI@slj?$AA@			; `string'
PUBLIC	??_C@_0BF@OKBOBHDH@player?1fallpain1?4wav?$AA@	; `string'
PUBLIC	??_C@_0BF@GMIKGFJJ@player?1fallpain2?4wav?$AA@	; `string'
PUBLIC	??_C@_0BI@PLJFMNJG@player?1pl_fallpain3?4wav?$AA@ ; `string'
PUBLIC	??_C@_0DC@MKOCNFCM@Bogus?5pmove?5player?5movetype?5?$CFi?5o@ ; `string'
PUBLIC	?__LINE__Var@?0??PM_CreateStuckTable@@YAXXZ@4JA	; `PM_CreateStuckTable'::`1'::__LINE__Var
PUBLIC	??_C@_1HO@FIDBPDJD@?$AAi?$AAd?$AAx?$AA?5?$AA?$DM?$AA?5?$AAs?$AAi?$AAz?$AAe?$AAo?$AAf?$AA?$CI?$AA?5?$AAr?$AAg?$AAv?$AA3?$AAt?$AAS?$AAt?$AAu?$AAc?$AAk?$AAT?$AAa?$AAb?$AAl?$AAe?$AA?5?$AA?$CJ?$AA?5@ ; `string'
PUBLIC	?__LINE__Var@?0??PM_Move@@YAXPAUplayermove_s@@H@Z@4JA ; `PM_Move'::`1'::__LINE__Var
PUBLIC	?__LINE__Var@?0??PM_Init@@YAXPAUplayermove_s@@@Z@4JA ; `PM_Init'::`1'::__LINE__Var
PUBLIC	??_C@_1CO@MDBAMMIO@?$AA?$CB?$AAp?$AAm?$AA_?$AAs?$AAh?$AAa?$AAr?$AAe?$AAd?$AA_?$AAi?$AAn?$AAi?$AAt?$AAi?$AAa?$AAl?$AAi?$AAz?$AAe?$AAd?$AA?$AA@ ; `string'
PUBLIC	__real@00000000
PUBLIC	__real@0000000000000000
PUBLIC	__real@3d4ccccd
PUBLIC	__real@3dcccccd
PUBLIC	__real@3eaa7efa
PUBLIC	__real@3f000000
PUBLIC	__real@3f266666
PUBLIC	__real@3f333333
PUBLIC	__real@3f400000
PUBLIC	__real@3f4ccccd
PUBLIC	__real@3f50624dd2f1a9fc
PUBLIC	__real@3f59999a
PUBLIC	__real@3f666666
PUBLIC	__real@3f70624dd2f1a9fc
PUBLIC	__real@3f800000
PUBLIC	__real@3f8c28f6
PUBLIC	__real@3f91df46a2529d39
PUBLIC	__real@3fb999999999999a
PUBLIC	__real@3fb99999a0000000
PUBLIC	__real@3fc0000000000000
PUBLIC	__real@3fc3333333333333
PUBLIC	__real@3fc999999999999a
PUBLIC	__real@3fd0000000000000
PUBLIC	__real@3fd3333333333333
PUBLIC	__real@3fd54fdf3b645a1d
PUBLIC	__real@3fd6666666666666
PUBLIC	__real@3fd999999999999a
PUBLIC	__real@3fd9999a
PUBLIC	__real@3fe0000000000000
PUBLIC	__real@3fe199999999999a
PUBLIC	__real@3fe3333333333333
PUBLIC	__real@3fe4cccccccccccd
PUBLIC	__real@3fe6666666666666
PUBLIC	__real@3fe999999999999a
PUBLIC	__real@3ff0000000000000
PUBLIC	__real@3ff599999999999a
PUBLIC	__real@3ff999999999999a
PUBLIC	__real@40000000
PUBLIC	__real@4000000000000000
PUBLIC	__real@40200000
PUBLIC	__real@40400000
PUBLIC	__real@404fa28f5c28f5c3
PUBLIC	__real@4067c00000000000
PUBLIC	__real@40800000
PUBLIC	__real@408f400000000000
PUBLIC	__real@40a00000
PUBLIC	__real@40c00000
PUBLIC	__real@40f1940000000000
PUBLIC	__real@40f5e00000000000
PUBLIC	__real@41000000
PUBLIC	__real@41100000
PUBLIC	__real@41800000
PUBLIC	__real@41900000
PUBLIC	__real@41a00000
PUBLIC	__real@41c00000
PUBLIC	__real@41c80000
PUBLIC	__real@41f00000
PUBLIC	__real@42080000
PUBLIC	__real@42480000
PUBLIC	__real@42700000
PUBLIC	__real@42820000
PUBLIC	__real@42a00000
PUBLIC	__real@42b20000
PUBLIC	__real@42c80000
PUBLIC	__real@42f00000
PUBLIC	__real@43070000
PUBLIC	__real@43330000
PUBLIC	__real@43340000
PUBLIC	__real@433e0000
PUBLIC	__real@43480000
PUBLIC	__real@43520000
PUBLIC	__real@43610000
PUBLIC	__real@437a0000
PUBLIC	__real@43870000
PUBLIC	__real@43960000
PUBLIC	__real@43af0000
PUBLIC	__real@43b40000
PUBLIC	__real@43fa0000
PUBLIC	__real@44610000
PUBLIC	__real@447a0000
PUBLIC	__real@44fa0000
PUBLIC	__real@461c4000
PUBLIC	__real@bdcccccd
PUBLIC	__real@be000000
PUBLIC	__real@bf800000
PUBLIC	__real@bfb99999a0000000
PUBLIC	__real@bfe6666666666666
PUBLIC	__real@c0000000
PUBLIC	__real@c0a00000
PUBLIC	__real@c1000000
PUBLIC	__real@c1900000
PUBLIC	__real@c1a00000
PUBLIC	__real@c2480000
PUBLIC	__real@c2b20000
PUBLIC	__real@c3330000
PUBLIC	__real@c3340000
PUBLIC	__xmm@80000000800000008000000080000000
EXTRN	___report_rangecheckfailure:PROC
EXTRN	__Init_thread_header:PROC
EXTRN	__Init_thread_abort:PROC
EXTRN	__Init_thread_footer:PROC
EXTRN	__wassert:PROC
EXTRN	_cos:PROC
EXTRN	_fabs:PROC
EXTRN	_sin:PROC
EXTRN	_sqrt:PROC
EXTRN	_atoi:PROC
EXTRN	?VectorITransform@matrix4x4@@QBE?AVVector@@ABV2@@Z:PROC ; matrix4x4::VectorITransform
EXTRN	_memset:PROC
EXTRN	_strstr:PROC
EXTRN	_strcpy_s:PROC
EXTRN	_strcpy:PROC
EXTRN	_isalpha:PROC
EXTRN	_isspace:PROC
EXTRN	_toupper:PROC
EXTRN	?Q_strnicmp@@YAHPBD0H@Z:PROC			; Q_strnicmp
EXTRN	?R_MakeWaterSplash@@YAXVVector@@0H@Z:PROC	; R_MakeWaterSplash
EXTRN	?WaterSplashParticle@CQuakePartSystem@@QAEXHABVVector@@@Z:PROC ; CQuakePartSystem::WaterSplashParticle
EXTRN	@__security_check_cookie@4:PROC
EXTRN	___CxxFrameHandler3:PROC
EXTRN	__Init_thread_epoch:DWORD
EXTRN	?g_vecZero@@3VVector@@B:BYTE			; g_vecZero
EXTRN	?gEngfuncs@@3Ucl_enginefuncs_s@@A:BYTE		; gEngfuncs
EXTRN	?tr@@3Uref_globals_t@@A:BYTE			; tr
EXTRN	?g_pParticles@@3VCQuakePartSystem@@A:BYTE	; g_pParticles
EXTRN	___security_cookie:DWORD
EXTRN	__fltused:DWORD
EXTRN	__tls_array:DWORD
EXTRN	__tls_index:DWORD
_BSS	SEGMENT
?rgv3tStuckTable@@3PAVVector@@A DB 0288H DUP (?)	; rgv3tStuckTable
?rgStuckLast@@3PAY01HA DD 040H DUP (?)			; rgStuckLast
?rgStuckCheckTime@@3PAY01MA DD 040H DUP (?)		; rgStuckCheckTime
?grgszTextureName@@3PAY0BI@DA DB 06000H DUP (?)		; grgszTextureName
?grgchTextureType@@3PADA DB 0400H DUP (?)		; grgchTextureType
?szBuf@?1??PM_PlayGroupSound@@YAXPBDHM@Z@4PADA DB 080H DUP (?) ; `PM_PlayGroupSound'::`2'::szBuf
?current_table@?BA@??PM_CheckWater@@YAHXZ@4PAVVector@@A DB 048H DUP (?) ; `PM_CheckWater'::`16'::current_table
?$TSS0@?BA@??PM_CheckWater@@YAHXZ@4HA DD 01H DUP (?)	; `PM_CheckWater'::`16'::$TSS0
_BSS	ENDS
CRT$XCU	SEGMENT
?rgv3tStuckTable$initializer$@@3P6AXXZA DD FLAT:??__Ergv3tStuckTable@@YAXXZ ; rgv3tStuckTable$initializer$
CRT$XCU	ENDS
;	COMDAT __xmm@80000000800000008000000080000000
CONST	SEGMENT
__xmm@80000000800000008000000080000000 DB 00H, 00H, 00H, 080H, 00H, 00H, 00H
	DB	080H, 00H, 00H, 00H, 080H, 00H, 00H, 00H, 080H
CONST	ENDS
;	COMDAT __real@c3340000
CONST	SEGMENT
__real@c3340000 DD 0c3340000r			; -180
CONST	ENDS
;	COMDAT __real@c3330000
CONST	SEGMENT
__real@c3330000 DD 0c3330000r			; -179
CONST	ENDS
;	COMDAT __real@c2b20000
CONST	SEGMENT
__real@c2b20000 DD 0c2b20000r			; -89
CONST	ENDS
;	COMDAT __real@c2480000
CONST	SEGMENT
__real@c2480000 DD 0c2480000r			; -50
CONST	ENDS
;	COMDAT __real@c1a00000
CONST	SEGMENT
__real@c1a00000 DD 0c1a00000r			; -20
CONST	ENDS
;	COMDAT __real@c1900000
CONST	SEGMENT
__real@c1900000 DD 0c1900000r			; -18
CONST	ENDS
;	COMDAT __real@c1000000
CONST	SEGMENT
__real@c1000000 DD 0c1000000r			; -8
CONST	ENDS
;	COMDAT __real@c0a00000
CONST	SEGMENT
__real@c0a00000 DD 0c0a00000r			; -5
CONST	ENDS
;	COMDAT __real@c0000000
CONST	SEGMENT
__real@c0000000 DD 0c0000000r			; -2
CONST	ENDS
;	COMDAT __real@bfe6666666666666
CONST	SEGMENT
__real@bfe6666666666666 DQ 0bfe6666666666666r	; -0.7
CONST	ENDS
;	COMDAT __real@bfb99999a0000000
CONST	SEGMENT
__real@bfb99999a0000000 DQ 0bfb99999a0000000r	; -0.1
CONST	ENDS
;	COMDAT __real@bf800000
CONST	SEGMENT
__real@bf800000 DD 0bf800000r			; -1
CONST	ENDS
;	COMDAT __real@be000000
CONST	SEGMENT
__real@be000000 DD 0be000000r			; -0.125
CONST	ENDS
;	COMDAT __real@bdcccccd
CONST	SEGMENT
__real@bdcccccd DD 0bdcccccdr			; -0.1
CONST	ENDS
;	COMDAT __real@461c4000
CONST	SEGMENT
__real@461c4000 DD 0461c4000r			; 10000
CONST	ENDS
;	COMDAT __real@44fa0000
CONST	SEGMENT
__real@44fa0000 DD 044fa0000r			; 2000
CONST	ENDS
;	COMDAT __real@447a0000
CONST	SEGMENT
__real@447a0000 DD 0447a0000r			; 1000
CONST	ENDS
;	COMDAT __real@44610000
CONST	SEGMENT
__real@44610000 DD 044610000r			; 900
CONST	ENDS
;	COMDAT __real@43fa0000
CONST	SEGMENT
__real@43fa0000 DD 043fa0000r			; 500
CONST	ENDS
;	COMDAT __real@43b40000
CONST	SEGMENT
__real@43b40000 DD 043b40000r			; 360
CONST	ENDS
;	COMDAT __real@43af0000
CONST	SEGMENT
__real@43af0000 DD 043af0000r			; 350
CONST	ENDS
;	COMDAT __real@43960000
CONST	SEGMENT
__real@43960000 DD 043960000r			; 300
CONST	ENDS
;	COMDAT __real@43870000
CONST	SEGMENT
__real@43870000 DD 043870000r			; 270
CONST	ENDS
;	COMDAT __real@437a0000
CONST	SEGMENT
__real@437a0000 DD 0437a0000r			; 250
CONST	ENDS
;	COMDAT __real@43610000
CONST	SEGMENT
__real@43610000 DD 043610000r			; 225
CONST	ENDS
;	COMDAT __real@43520000
CONST	SEGMENT
__real@43520000 DD 043520000r			; 210
CONST	ENDS
;	COMDAT __real@43480000
CONST	SEGMENT
__real@43480000 DD 043480000r			; 200
CONST	ENDS
;	COMDAT __real@433e0000
CONST	SEGMENT
__real@433e0000 DD 0433e0000r			; 190
CONST	ENDS
;	COMDAT __real@43340000
CONST	SEGMENT
__real@43340000 DD 043340000r			; 180
CONST	ENDS
;	COMDAT __real@43330000
CONST	SEGMENT
__real@43330000 DD 043330000r			; 179
CONST	ENDS
;	COMDAT __real@43070000
CONST	SEGMENT
__real@43070000 DD 043070000r			; 135
CONST	ENDS
;	COMDAT __real@42f00000
CONST	SEGMENT
__real@42f00000 DD 042f00000r			; 120
CONST	ENDS
;	COMDAT __real@42c80000
CONST	SEGMENT
__real@42c80000 DD 042c80000r			; 100
CONST	ENDS
;	COMDAT __real@42b20000
CONST	SEGMENT
__real@42b20000 DD 042b20000r			; 89
CONST	ENDS
;	COMDAT __real@42a00000
CONST	SEGMENT
__real@42a00000 DD 042a00000r			; 80
CONST	ENDS
;	COMDAT __real@42820000
CONST	SEGMENT
__real@42820000 DD 042820000r			; 65
CONST	ENDS
;	COMDAT __real@42700000
CONST	SEGMENT
__real@42700000 DD 042700000r			; 60
CONST	ENDS
;	COMDAT __real@42480000
CONST	SEGMENT
__real@42480000 DD 042480000r			; 50
CONST	ENDS
;	COMDAT __real@42080000
CONST	SEGMENT
__real@42080000 DD 042080000r			; 34
CONST	ENDS
;	COMDAT __real@41f00000
CONST	SEGMENT
__real@41f00000 DD 041f00000r			; 30
CONST	ENDS
;	COMDAT __real@41c80000
CONST	SEGMENT
__real@41c80000 DD 041c80000r			; 25
CONST	ENDS
;	COMDAT __real@41c00000
CONST	SEGMENT
__real@41c00000 DD 041c00000r			; 24
CONST	ENDS
;	COMDAT __real@41a00000
CONST	SEGMENT
__real@41a00000 DD 041a00000r			; 20
CONST	ENDS
;	COMDAT __real@41900000
CONST	SEGMENT
__real@41900000 DD 041900000r			; 18
CONST	ENDS
;	COMDAT __real@41800000
CONST	SEGMENT
__real@41800000 DD 041800000r			; 16
CONST	ENDS
;	COMDAT __real@41100000
CONST	SEGMENT
__real@41100000 DD 041100000r			; 9
CONST	ENDS
;	COMDAT __real@41000000
CONST	SEGMENT
__real@41000000 DD 041000000r			; 8
CONST	ENDS
;	COMDAT __real@40f5e00000000000
CONST	SEGMENT
__real@40f5e00000000000 DQ 040f5e00000000000r	; 89600
CONST	ENDS
;	COMDAT __real@40f1940000000000
CONST	SEGMENT
__real@40f1940000000000 DQ 040f1940000000000r	; 72000
CONST	ENDS
;	COMDAT __real@40c00000
CONST	SEGMENT
__real@40c00000 DD 040c00000r			; 6
CONST	ENDS
;	COMDAT __real@40a00000
CONST	SEGMENT
__real@40a00000 DD 040a00000r			; 5
CONST	ENDS
;	COMDAT __real@408f400000000000
CONST	SEGMENT
__real@408f400000000000 DQ 0408f400000000000r	; 1000
CONST	ENDS
;	COMDAT __real@40800000
CONST	SEGMENT
__real@40800000 DD 040800000r			; 4
CONST	ENDS
;	COMDAT __real@4067c00000000000
CONST	SEGMENT
__real@4067c00000000000 DQ 04067c00000000000r	; 190
CONST	ENDS
;	COMDAT __real@404fa28f5c28f5c3
CONST	SEGMENT
__real@404fa28f5c28f5c3 DQ 0404fa28f5c28f5c3r	; 63.27
CONST	ENDS
;	COMDAT __real@40400000
CONST	SEGMENT
__real@40400000 DD 040400000r			; 3
CONST	ENDS
;	COMDAT __real@40200000
CONST	SEGMENT
__real@40200000 DD 040200000r			; 2.5
CONST	ENDS
;	COMDAT __real@4000000000000000
CONST	SEGMENT
__real@4000000000000000 DQ 04000000000000000r	; 2
CONST	ENDS
;	COMDAT __real@40000000
CONST	SEGMENT
__real@40000000 DD 040000000r			; 2
CONST	ENDS
;	COMDAT __real@3ff999999999999a
CONST	SEGMENT
__real@3ff999999999999a DQ 03ff999999999999ar	; 1.6
CONST	ENDS
;	COMDAT __real@3ff599999999999a
CONST	SEGMENT
__real@3ff599999999999a DQ 03ff599999999999ar	; 1.35
CONST	ENDS
;	COMDAT __real@3ff0000000000000
CONST	SEGMENT
__real@3ff0000000000000 DQ 03ff0000000000000r	; 1
CONST	ENDS
;	COMDAT __real@3fe999999999999a
CONST	SEGMENT
__real@3fe999999999999a DQ 03fe999999999999ar	; 0.8
CONST	ENDS
;	COMDAT __real@3fe6666666666666
CONST	SEGMENT
__real@3fe6666666666666 DQ 03fe6666666666666r	; 0.7
CONST	ENDS
;	COMDAT __real@3fe4cccccccccccd
CONST	SEGMENT
__real@3fe4cccccccccccd DQ 03fe4cccccccccccdr	; 0.65
CONST	ENDS
;	COMDAT __real@3fe3333333333333
CONST	SEGMENT
__real@3fe3333333333333 DQ 03fe3333333333333r	; 0.6
CONST	ENDS
;	COMDAT __real@3fe199999999999a
CONST	SEGMENT
__real@3fe199999999999a DQ 03fe199999999999ar	; 0.55
CONST	ENDS
;	COMDAT __real@3fe0000000000000
CONST	SEGMENT
__real@3fe0000000000000 DQ 03fe0000000000000r	; 0.5
CONST	ENDS
;	COMDAT __real@3fd9999a
CONST	SEGMENT
__real@3fd9999a DD 03fd9999ar			; 1.7
CONST	ENDS
;	COMDAT __real@3fd999999999999a
CONST	SEGMENT
__real@3fd999999999999a DQ 03fd999999999999ar	; 0.4
CONST	ENDS
;	COMDAT __real@3fd6666666666666
CONST	SEGMENT
__real@3fd6666666666666 DQ 03fd6666666666666r	; 0.35
CONST	ENDS
;	COMDAT __real@3fd54fdf3b645a1d
CONST	SEGMENT
__real@3fd54fdf3b645a1d DQ 03fd54fdf3b645a1dr	; 0.333
CONST	ENDS
;	COMDAT __real@3fd3333333333333
CONST	SEGMENT
__real@3fd3333333333333 DQ 03fd3333333333333r	; 0.3
CONST	ENDS
;	COMDAT __real@3fd0000000000000
CONST	SEGMENT
__real@3fd0000000000000 DQ 03fd0000000000000r	; 0.25
CONST	ENDS
;	COMDAT __real@3fc999999999999a
CONST	SEGMENT
__real@3fc999999999999a DQ 03fc999999999999ar	; 0.2
CONST	ENDS
;	COMDAT __real@3fc3333333333333
CONST	SEGMENT
__real@3fc3333333333333 DQ 03fc3333333333333r	; 0.15
CONST	ENDS
;	COMDAT __real@3fc0000000000000
CONST	SEGMENT
__real@3fc0000000000000 DQ 03fc0000000000000r	; 0.125
CONST	ENDS
;	COMDAT __real@3fb99999a0000000
CONST	SEGMENT
__real@3fb99999a0000000 DQ 03fb99999a0000000r	; 0.1
CONST	ENDS
;	COMDAT __real@3fb999999999999a
CONST	SEGMENT
__real@3fb999999999999a DQ 03fb999999999999ar	; 0.1
CONST	ENDS
;	COMDAT __real@3f91df46a2529d39
CONST	SEGMENT
__real@3f91df46a2529d39 DQ 03f91df46a2529d39r	; 0.0174533
CONST	ENDS
;	COMDAT __real@3f8c28f6
CONST	SEGMENT
__real@3f8c28f6 DD 03f8c28f6r			; 1.095
CONST	ENDS
;	COMDAT __real@3f800000
CONST	SEGMENT
__real@3f800000 DD 03f800000r			; 1
CONST	ENDS
;	COMDAT __real@3f70624dd2f1a9fc
CONST	SEGMENT
__real@3f70624dd2f1a9fc DQ 03f70624dd2f1a9fcr	; 0.004
CONST	ENDS
;	COMDAT __real@3f666666
CONST	SEGMENT
__real@3f666666 DD 03f666666r			; 0.9
CONST	ENDS
;	COMDAT __real@3f59999a
CONST	SEGMENT
__real@3f59999a DD 03f59999ar			; 0.85
CONST	ENDS
;	COMDAT __real@3f50624dd2f1a9fc
CONST	SEGMENT
__real@3f50624dd2f1a9fc DQ 03f50624dd2f1a9fcr	; 0.001
CONST	ENDS
;	COMDAT __real@3f4ccccd
CONST	SEGMENT
__real@3f4ccccd DD 03f4ccccdr			; 0.8
CONST	ENDS
;	COMDAT __real@3f400000
CONST	SEGMENT
__real@3f400000 DD 03f400000r			; 0.75
CONST	ENDS
;	COMDAT __real@3f333333
CONST	SEGMENT
__real@3f333333 DD 03f333333r			; 0.7
CONST	ENDS
;	COMDAT __real@3f266666
CONST	SEGMENT
__real@3f266666 DD 03f266666r			; 0.65
CONST	ENDS
;	COMDAT __real@3f000000
CONST	SEGMENT
__real@3f000000 DD 03f000000r			; 0.5
CONST	ENDS
;	COMDAT __real@3eaa7efa
CONST	SEGMENT
__real@3eaa7efa DD 03eaa7efar			; 0.333
CONST	ENDS
;	COMDAT __real@3dcccccd
CONST	SEGMENT
__real@3dcccccd DD 03dcccccdr			; 0.1
CONST	ENDS
;	COMDAT __real@3d4ccccd
CONST	SEGMENT
__real@3d4ccccd DD 03d4ccccdr			; 0.05
CONST	ENDS
;	COMDAT __real@0000000000000000
CONST	SEGMENT
__real@0000000000000000 DQ 00000000000000000r	; 0
CONST	ENDS
;	COMDAT __real@00000000
CONST	SEGMENT
__real@00000000 DD 000000000r			; 0
CONST	ENDS
;	COMDAT ??_C@_1CO@MDBAMMIO@?$AA?$CB?$AAp?$AAm?$AA_?$AAs?$AAh?$AAa?$AAr?$AAe?$AAd?$AA_?$AAi?$AAn?$AAi?$AAt?$AAi?$AAa?$AAl?$AAi?$AAz?$AAe?$AAd?$AA?$AA@
CONST	SEGMENT
??_C@_1CO@MDBAMMIO@?$AA?$CB?$AAp?$AAm?$AA_?$AAs?$AAh?$AAa?$AAr?$AAe?$AAd?$AA_?$AAi?$AAn?$AAi?$AAt?$AAi?$AAa?$AAl?$AAi?$AAz?$AAe?$AAd?$AA?$AA@ DB '!'
	DB	00H, 'p', 00H, 'm', 00H, '_', 00H, 's', 00H, 'h', 00H, 'a', 00H
	DB	'r', 00H, 'e', 00H, 'd', 00H, '_', 00H, 'i', 00H, 'n', 00H, 'i'
	DB	00H, 't', 00H, 'i', 00H, 'a', 00H, 'l', 00H, 'i', 00H, 'z', 00H
	DB	'e', 00H, 'd', 00H, 00H, 00H			; `string'
CONST	ENDS
;	COMDAT ?__LINE__Var@?0??PM_Init@@YAXPAUplayermove_s@@@Z@4JA
_DATA	SEGMENT
?__LINE__Var@?0??PM_Init@@YAXPAUplayermove_s@@@Z@4JA DD 0eecH ; `PM_Init'::`1'::__LINE__Var
_DATA	ENDS
;	COMDAT ?__LINE__Var@?0??PM_Move@@YAXPAUplayermove_s@@H@Z@4JA
_DATA	SEGMENT
?__LINE__Var@?0??PM_Move@@YAXPAUplayermove_s@@H@Z@4JA DD 0ec8H ; `PM_Move'::`1'::__LINE__Var
_DATA	ENDS
;	COMDAT ??_C@_1HO@FIDBPDJD@?$AAi?$AAd?$AAx?$AA?5?$AA?$DM?$AA?5?$AAs?$AAi?$AAz?$AAe?$AAo?$AAf?$AA?$CI?$AA?5?$AAr?$AAg?$AAv?$AA3?$AAt?$AAS?$AAt?$AAu?$AAc?$AAk?$AAT?$AAa?$AAb?$AAl?$AAe?$AA?5?$AA?$CJ?$AA?5@
CONST	SEGMENT
??_C@_1HO@FIDBPDJD@?$AAi?$AAd?$AAx?$AA?5?$AA?$DM?$AA?5?$AAs?$AAi?$AAz?$AAe?$AAo?$AAf?$AA?$CI?$AA?5?$AAr?$AAg?$AAv?$AA3?$AAt?$AAS?$AAt?$AAu?$AAc?$AAk?$AAT?$AAa?$AAb?$AAl?$AAe?$AA?5?$AA?$CJ?$AA?5@ DB 'i'
	DB	00H, 'd', 00H, 'x', 00H, ' ', 00H, '<', 00H, ' ', 00H, 's', 00H
	DB	'i', 00H, 'z', 00H, 'e', 00H, 'o', 00H, 'f', 00H, '(', 00H, ' '
	DB	00H, 'r', 00H, 'g', 00H, 'v', 00H, '3', 00H, 't', 00H, 'S', 00H
	DB	't', 00H, 'u', 00H, 'c', 00H, 'k', 00H, 'T', 00H, 'a', 00H, 'b'
	DB	00H, 'l', 00H, 'e', 00H, ' ', 00H, ')', 00H, ' ', 00H, '/', 00H
	DB	' ', 00H, 's', 00H, 'i', 00H, 'z', 00H, 'e', 00H, 'o', 00H, 'f'
	DB	00H, '(', 00H, ' ', 00H, 'r', 00H, 'g', 00H, 'v', 00H, '3', 00H
	DB	't', 00H, 'S', 00H, 't', 00H, 'u', 00H, 'c', 00H, 'k', 00H, 'T'
	DB	00H, 'a', 00H, 'b', 00H, 'l', 00H, 'e', 00H, '[', 00H, '0', 00H
	DB	']', 00H, ' ', 00H, ')', 00H, 00H, 00H	; `string'
CONST	ENDS
;	COMDAT ?__LINE__Var@?0??PM_CreateStuckTable@@YAXXZ@4JA
_DATA	SEGMENT
?__LINE__Var@?0??PM_CreateStuckTable@@YAXXZ@4JA DD 0e54H ; `PM_CreateStuckTable'::`1'::__LINE__Var
_DATA	ENDS
;	COMDAT ??_C@_0DC@MKOCNFCM@Bogus?5pmove?5player?5movetype?5?$CFi?5o@
CONST	SEGMENT
??_C@_0DC@MKOCNFCM@Bogus?5pmove?5player?5movetype?5?$CFi?5o@ DB 'Bogus pm'
	DB	'ove player movetype %i on (%i) 0=cl 1=sv', 0aH, 00H ; `string'
CONST	ENDS
;	COMDAT ??_C@_0BI@PLJFMNJG@player?1pl_fallpain3?4wav?$AA@
CONST	SEGMENT
??_C@_0BI@PLJFMNJG@player?1pl_fallpain3?4wav?$AA@ DB 'player/pl_fallpain3'
	DB	'.wav', 00H					; `string'
CONST	ENDS
;	COMDAT ??_C@_0BF@GMIKGFJJ@player?1fallpain2?4wav?$AA@
CONST	SEGMENT
??_C@_0BF@GMIKGFJJ@player?1fallpain2?4wav?$AA@ DB 'player/fallpain2.wav', 00H ; `string'
CONST	ENDS
;	COMDAT ??_C@_0BF@OKBOBHDH@player?1fallpain1?4wav?$AA@
CONST	SEGMENT
??_C@_0BF@OKBOBHDH@player?1fallpain1?4wav?$AA@ DB 'player/fallpain1.wav', 00H ; `string'
CONST	ENDS
;	COMDAT ??_C@_03HJOOJOPI@slj?$AA@
CONST	SEGMENT
??_C@_03HJOOJOPI@slj?$AA@ DB 'slj', 00H			; `string'
CONST	ENDS
;	COMDAT ??_C@_03DIGMJINO@tfc?$AA@
CONST	SEGMENT
??_C@_03DIGMJINO@tfc?$AA@ DB 'tfc', 00H			; `string'
CONST	ENDS
;	COMDAT ??_C@_0CC@OFBNMFAF@PM?5?5Got?5a?5velocity?5too?5low?5on?5?$CFi@
CONST	SEGMENT
??_C@_0CC@OFBNMFAF@PM?5?5Got?5a?5velocity?5too?5low?5on?5?$CFi@ DB 'PM  G'
	DB	'ot a velocity too low on %i', 0aH, 00H	; `string'
CONST	ENDS
;	COMDAT ??_C@_0CD@BDBMHNGO@PM?5?5Got?5a?5velocity?5too?5high?5on?5?$CF@
CONST	SEGMENT
??_C@_0CD@BDBMHNGO@PM?5?5Got?5a?5velocity?5too?5high?5on?5?$CF@ DB 'PM  G'
	DB	'ot a velocity too high on %i', 0aH, 00H	; `string'
CONST	ENDS
;	COMDAT ??_C@_0BM@IKDFNEMI@PM?5?5Got?5a?5NaN?5origin?5on?5?$CFi?6?$AA@
CONST	SEGMENT
??_C@_0BM@IKDFNEMI@PM?5?5Got?5a?5NaN?5origin?5on?5?$CFi?6?$AA@ DB 'PM  Go'
	DB	't a NaN origin on %i', 0aH, 00H		; `string'
CONST	ENDS
;	COMDAT ??_C@_0BL@ODOJHMIN@PM?5?5Got?5a?5NaN?5velocity?5?$CFi?6?$AA@
CONST	SEGMENT
??_C@_0BL@ODOJHMIN@PM?5?5Got?5a?5NaN?5velocity?5?$CFi?6?$AA@ DB 'PM  Got '
	DB	'a NaN velocity %i', 0aH, 00H		; `string'
CONST	ENDS
;	COMDAT ??_C@_0CB@CNILIGKA@Too?5many?5entities?5were?5touched?$CB?6@
CONST	SEGMENT
??_C@_0CB@CNILIGKA@Too?5many?5entities?5were?5touched?$CB?6@ DB 'Too many'
	DB	' entities were touched!', 0aH, 00H		; `string'
CONST	ENDS
;	COMDAT ??_C@_0BF@DEKKNCGM@footsteps?1glass6?4wav?$AA@
CONST	SEGMENT
??_C@_0BF@DEKKNCGM@footsteps?1glass6?4wav?$AA@ DB 'footsteps/glass6.wav', 00H ; `string'
CONST	ENDS
;	COMDAT ??_C@_0BF@LCDOKAMC@footsteps?1glass5?4wav?$AA@
CONST	SEGMENT
??_C@_0BF@LCDOKAMC@footsteps?1glass5?4wav?$AA@ DB 'footsteps/glass5.wav', 00H ; `string'
CONST	ENDS
;	COMDAT ??_C@_0BF@HJGCHDGH@footsteps?1glass4?4wav?$AA@
CONST	SEGMENT
??_C@_0BF@HJGCHDGH@footsteps?1glass4?4wav?$AA@ DB 'footsteps/glass4.wav', 00H ; `string'
CONST	ENDS
;	COMDAT ??_C@_0BF@GEGHEDNP@footsteps?1glass3?4wav?$AA@
CONST	SEGMENT
??_C@_0BF@GEGHEDNP@footsteps?1glass3?4wav?$AA@ DB 'footsteps/glass3.wav', 00H ; `string'
CONST	ENDS
;	COMDAT ??_C@_0BF@KPDLJAHK@footsteps?1glass2?4wav?$AA@
CONST	SEGMENT
??_C@_0BF@KPDLJAHK@footsteps?1glass2?4wav?$AA@ DB 'footsteps/glass2.wav', 00H ; `string'
CONST	ENDS
;	COMDAT ??_C@_0BF@CJKPOCNE@footsteps?1glass1?4wav?$AA@
CONST	SEGMENT
??_C@_0BF@CJKPOCNE@footsteps?1glass1?4wav?$AA@ DB 'footsteps/glass1.wav', 00H ; `string'
CONST	ENDS
;	COMDAT ??_C@_0BG@KOONPM@footsteps?1gravel6?4wav?$AA@
CONST	SEGMENT
??_C@_0BG@KOONPM@footsteps?1gravel6?4wav?$AA@ DB 'footsteps/gravel6.wav', 00H ; `string'
CONST	ENDS
;	COMDAT ??_C@_0BG@IGDKJPFC@footsteps?1gravel5?4wav?$AA@
CONST	SEGMENT
??_C@_0BG@IGDKJPFC@footsteps?1gravel5?4wav?$AA@ DB 'footsteps/gravel5.wav'
	DB	00H						; `string'
CONST	ENDS
;	COMDAT ??_C@_0BG@ENGGEMPH@footsteps?1gravel4?4wav?$AA@
CONST	SEGMENT
??_C@_0BG@ENGGEMPH@footsteps?1gravel4?4wav?$AA@ DB 'footsteps/gravel4.wav'
	DB	00H						; `string'
CONST	ENDS
;	COMDAT ??_C@_0BG@FAGDHMEP@footsteps?1gravel3?4wav?$AA@
CONST	SEGMENT
??_C@_0BG@FAGDHMEP@footsteps?1gravel3?4wav?$AA@ DB 'footsteps/gravel3.wav'
	DB	00H						; `string'
CONST	ENDS
;	COMDAT ??_C@_0BG@JLDPKPOK@footsteps?1gravel2?4wav?$AA@
CONST	SEGMENT
??_C@_0BG@JLDPKPOK@footsteps?1gravel2?4wav?$AA@ DB 'footsteps/gravel2.wav'
	DB	00H						; `string'
CONST	ENDS
;	COMDAT ??_C@_0BG@BNKLNNEE@footsteps?1gravel1?4wav?$AA@
CONST	SEGMENT
??_C@_0BG@BNKLNNEE@footsteps?1gravel1?4wav?$AA@ DB 'footsteps/gravel1.wav'
	DB	00H						; `string'
CONST	ENDS
;	COMDAT ??_C@_0BF@NMNGDDH@footsteps?1grass6?4wav?$AA@
CONST	SEGMENT
??_C@_0BF@NMNGDDH@footsteps?1grass6?4wav?$AA@ DB 'footsteps/grass6.wav', 00H ; `string'
CONST	ENDS
;	COMDAT ??_C@_0BF@ILFJBBJJ@footsteps?1grass5?4wav?$AA@
CONST	SEGMENT
??_C@_0BF@ILFJBBJJ@footsteps?1grass5?4wav?$AA@ DB 'footsteps/grass5.wav', 00H ; `string'
CONST	ENDS
;	COMDAT ??_C@_0BF@EAAFMCDM@footsteps?1grass4?4wav?$AA@
CONST	SEGMENT
??_C@_0BF@EAAFMCDM@footsteps?1grass4?4wav?$AA@ DB 'footsteps/grass4.wav', 00H ; `string'
CONST	ENDS
;	COMDAT ??_C@_0BF@FNAAPCIE@footsteps?1grass3?4wav?$AA@
CONST	SEGMENT
??_C@_0BF@FNAAPCIE@footsteps?1grass3?4wav?$AA@ DB 'footsteps/grass3.wav', 00H ; `string'
CONST	ENDS
;	COMDAT ??_C@_0BF@JGFMCBCB@footsteps?1grass2?4wav?$AA@
CONST	SEGMENT
??_C@_0BF@JGFMCBCB@footsteps?1grass2?4wav?$AA@ DB 'footsteps/grass2.wav', 00H ; `string'
CONST	ENDS
;	COMDAT ??_C@_0BF@BAMIFDIP@footsteps?1grass1?4wav?$AA@
CONST	SEGMENT
??_C@_0BF@BAMIFDIP@footsteps?1grass1?4wav?$AA@ DB 'footsteps/grass1.wav', 00H ; `string'
CONST	ENDS
;	COMDAT ??_C@_0BG@NPAOOFIB@footsteps?1carpet6?4wav?$AA@
CONST	SEGMENT
??_C@_0BG@NPAOOFIB@footsteps?1carpet6?4wav?$AA@ DB 'footsteps/carpet6.wav'
	DB	00H						; `string'
CONST	ENDS
;	COMDAT ??_C@_0BG@FJJKJHCP@footsteps?1carpet5?4wav?$AA@
CONST	SEGMENT
??_C@_0BG@FJJKJHCP@footsteps?1carpet5?4wav?$AA@ DB 'footsteps/carpet5.wav'
	DB	00H						; `string'
CONST	ENDS
;	COMDAT ??_C@_0BG@JCMGEEIK@footsteps?1carpet4?4wav?$AA@
CONST	SEGMENT
??_C@_0BG@JCMGEEIK@footsteps?1carpet4?4wav?$AA@ DB 'footsteps/carpet4.wav'
	DB	00H						; `string'
CONST	ENDS
;	COMDAT ??_C@_0BG@IPMDHEDC@footsteps?1carpet3?4wav?$AA@
CONST	SEGMENT
??_C@_0BG@IPMDHEDC@footsteps?1carpet3?4wav?$AA@ DB 'footsteps/carpet3.wav'
	DB	00H						; `string'
CONST	ENDS
;	COMDAT ??_C@_0BG@EEJPKHJH@footsteps?1carpet2?4wav?$AA@
CONST	SEGMENT
??_C@_0BG@EEJPKHJH@footsteps?1carpet2?4wav?$AA@ DB 'footsteps/carpet2.wav'
	DB	00H						; `string'
CONST	ENDS
;	COMDAT ??_C@_0BG@MCALNFDJ@footsteps?1carpet1?4wav?$AA@
CONST	SEGMENT
??_C@_0BG@MCALNFDJ@footsteps?1carpet1?4wav?$AA@ DB 'footsteps/carpet1.wav'
	DB	00H						; `string'
CONST	ENDS
;	COMDAT ??_C@_0BE@DIDDCHLF@footsteps?1snow6?4wav?$AA@
CONST	SEGMENT
??_C@_0BE@DIDDCHLF@footsteps?1snow6?4wav?$AA@ DB 'footsteps/snow6.wav', 00H ; `string'
CONST	ENDS
;	COMDAT ??_C@_0BE@LOKHFFBL@footsteps?1snow5?4wav?$AA@
CONST	SEGMENT
??_C@_0BE@LOKHFFBL@footsteps?1snow5?4wav?$AA@ DB 'footsteps/snow5.wav', 00H ; `string'
CONST	ENDS
;	COMDAT ??_C@_0BE@HFPLIGLO@footsteps?1snow4?4wav?$AA@
CONST	SEGMENT
??_C@_0BE@HFPLIGLO@footsteps?1snow4?4wav?$AA@ DB 'footsteps/snow4.wav', 00H ; `string'
CONST	ENDS
;	COMDAT ??_C@_0BE@GIPOLGAG@footsteps?1snow3?4wav?$AA@
CONST	SEGMENT
??_C@_0BE@GIPOLGAG@footsteps?1snow3?4wav?$AA@ DB 'footsteps/snow3.wav', 00H ; `string'
CONST	ENDS
;	COMDAT ??_C@_0BE@KDKCGFKD@footsteps?1snow2?4wav?$AA@
CONST	SEGMENT
??_C@_0BE@KDKCGFKD@footsteps?1snow2?4wav?$AA@ DB 'footsteps/snow2.wav', 00H ; `string'
CONST	ENDS
;	COMDAT ??_C@_0BE@CFDGBHAN@footsteps?1snow1?4wav?$AA@
CONST	SEGMENT
??_C@_0BE@CFDGBHAN@footsteps?1snow1?4wav?$AA@ DB 'footsteps/snow1.wav', 00H ; `string'
CONST	ENDS
;	COMDAT ??_C@_0BE@HAJFBFNP@footsteps?1wood6?4wav?$AA@
CONST	SEGMENT
??_C@_0BE@HAJFBFNP@footsteps?1wood6?4wav?$AA@ DB 'footsteps/wood6.wav', 00H ; `string'
CONST	ENDS
;	COMDAT ??_C@_0BE@PGABGHHB@footsteps?1wood5?4wav?$AA@
CONST	SEGMENT
??_C@_0BE@PGABGHHB@footsteps?1wood5?4wav?$AA@ DB 'footsteps/wood5.wav', 00H ; `string'
CONST	ENDS
;	COMDAT ??_C@_0BE@DNFNLENE@footsteps?1wood4?4wav?$AA@
CONST	SEGMENT
??_C@_0BE@DNFNLENE@footsteps?1wood4?4wav?$AA@ DB 'footsteps/wood4.wav', 00H ; `string'
CONST	ENDS
;	COMDAT ??_C@_0BE@CAFIIEGM@footsteps?1wood3?4wav?$AA@
CONST	SEGMENT
??_C@_0BE@CAFIIEGM@footsteps?1wood3?4wav?$AA@ DB 'footsteps/wood3.wav', 00H ; `string'
CONST	ENDS
;	COMDAT ??_C@_0BE@OLAEFHMJ@footsteps?1wood2?4wav?$AA@
CONST	SEGMENT
??_C@_0BE@OLAEFHMJ@footsteps?1wood2?4wav?$AA@ DB 'footsteps/wood2.wav', 00H ; `string'
CONST	ENDS
;	COMDAT ??_C@_0BE@GNJACFGH@footsteps?1wood1?4wav?$AA@
CONST	SEGMENT
??_C@_0BE@GNJACFGH@footsteps?1wood1?4wav?$AA@ DB 'footsteps/wood1.wav', 00H ; `string'
CONST	ENDS
;	COMDAT ??_C@_0BL@OKOJPLBC@footsteps?1ladder_wood4?4wav?$AA@
CONST	SEGMENT
??_C@_0BL@OKOJPLBC@footsteps?1ladder_wood4?4wav?$AA@ DB 'footsteps/ladder'
	DB	'_wood4.wav', 00H				; `string'
CONST	ENDS
;	COMDAT ??_C@_0BL@DMLABIAP@footsteps?1ladder_wood2?4wav?$AA@
CONST	SEGMENT
??_C@_0BL@DMLABIAP@footsteps?1ladder_wood2?4wav?$AA@ DB 'footsteps/ladder'
	DB	'_wood2.wav', 00H				; `string'
CONST	ENDS
;	COMDAT ??_C@_0BL@PHOMMLKK@footsteps?1ladder_wood3?4wav?$AA@
CONST	SEGMENT
??_C@_0BL@PHOMMLKK@footsteps?1ladder_wood3?4wav?$AA@ DB 'footsteps/ladder'
	DB	'_wood3.wav', 00H				; `string'
CONST	ENDS
;	COMDAT ??_C@_0BL@LKCEGKKB@footsteps?1ladder_wood1?4wav?$AA@
CONST	SEGMENT
??_C@_0BL@LKCEGKKB@footsteps?1ladder_wood1?4wav?$AA@ DB 'footsteps/ladder'
	DB	'_wood1.wav', 00H				; `string'
CONST	ENDS
;	COMDAT ??_C@_0BG@FIBOAMBD@footsteps?1ladder4?4wav?$AA@
CONST	SEGMENT
??_C@_0BG@FIBOAMBD@footsteps?1ladder4?4wav?$AA@ DB 'footsteps/ladder4.wav'
	DB	00H						; `string'
CONST	ENDS
;	COMDAT ??_C@_0BG@IOEHOPAO@footsteps?1ladder2?4wav?$AA@
CONST	SEGMENT
??_C@_0BG@IOEHOPAO@footsteps?1ladder2?4wav?$AA@ DB 'footsteps/ladder2.wav'
	DB	00H						; `string'
CONST	ENDS
;	COMDAT ??_C@_0BG@EFBLDMKL@footsteps?1ladder3?4wav?$AA@
CONST	SEGMENT
??_C@_0BG@EFBLDMKL@footsteps?1ladder3?4wav?$AA@ DB 'footsteps/ladder3.wav'
	DB	00H						; `string'
CONST	ENDS
;	COMDAT ??_C@_0BG@INDJNKA@footsteps?1ladder1?4wav?$AA@
CONST	SEGMENT
??_C@_0BG@INDJNKA@footsteps?1ladder1?4wav?$AA@ DB 'footsteps/ladder1.wav', 00H ; `string'
CONST	ENDS
;	COMDAT ??_C@_0BE@OICHIKE@footsteps?1wade4?4wav?$AA@
CONST	SEGMENT
??_C@_0BE@OICHIKE@footsteps?1wade4?4wav?$AA@ DB 'footsteps/wade4.wav', 00H ; `string'
CONST	ENDS
;	COMDAT ??_C@_0BE@BDIHEIBM@footsteps?1wade3?4wav?$AA@
CONST	SEGMENT
??_C@_0BE@BDIHEIBM@footsteps?1wade3?4wav?$AA@ DB 'footsteps/wade3.wav', 00H ; `string'
CONST	ENDS
;	COMDAT ??_C@_0BE@NINLJLLJ@footsteps?1wade2?4wav?$AA@
CONST	SEGMENT
??_C@_0BE@NINLJLLJ@footsteps?1wade2?4wav?$AA@ DB 'footsteps/wade2.wav', 00H ; `string'
CONST	ENDS
;	COMDAT ??_C@_0BE@FOEPOJBH@footsteps?1wade1?4wav?$AA@
CONST	SEGMENT
??_C@_0BE@FOEPOJBH@footsteps?1wade1?4wav?$AA@ DB 'footsteps/wade1.wav', 00H ; `string'
CONST	ENDS
;	COMDAT ??_C@_0BF@MKFGNHII@footsteps?1slosh4?4wav?$AA@
CONST	SEGMENT
??_C@_0BF@MKFGNHII@footsteps?1slosh4?4wav?$AA@ DB 'footsteps/slosh4.wav', 00H ; `string'
CONST	ENDS
;	COMDAT ??_C@_0BF@BMAPDEJF@footsteps?1slosh2?4wav?$AA@
CONST	SEGMENT
??_C@_0BF@BMAPDEJF@footsteps?1slosh2?4wav?$AA@ DB 'footsteps/slosh2.wav', 00H ; `string'
CONST	ENDS
;	COMDAT ??_C@_0BF@NHFDOHDA@footsteps?1slosh3?4wav?$AA@
CONST	SEGMENT
??_C@_0BF@NHFDOHDA@footsteps?1slosh3?4wav?$AA@ DB 'footsteps/slosh3.wav', 00H ; `string'
CONST	ENDS
;	COMDAT ??_C@_0BF@JKJLEGDL@footsteps?1slosh1?4wav?$AA@
CONST	SEGMENT
??_C@_0BF@JKJLEGDL@footsteps?1slosh1?4wav?$AA@ DB 'footsteps/slosh1.wav', 00H ; `string'
CONST	ENDS
;	COMDAT ??_C@_0BE@EGNEKJKP@footsteps?1tile5?4wav?$AA@
CONST	SEGMENT
??_C@_0BE@EGNEKJKP@footsteps?1tile5?4wav?$AA@ DB 'footsteps/tile5.wav', 00H ; `string'
CONST	ENDS
;	COMDAT ??_C@_0BE@INIIHKAK@footsteps?1tile4?4wav?$AA@
CONST	SEGMENT
??_C@_0BE@INIIHKAK@footsteps?1tile4?4wav?$AA@ DB 'footsteps/tile4.wav', 00H ; `string'
CONST	ENDS
;	COMDAT ??_C@_0BE@FLNBJJBH@footsteps?1tile2?4wav?$AA@
CONST	SEGMENT
??_C@_0BE@FLNBJJBH@footsteps?1tile2?4wav?$AA@ DB 'footsteps/tile2.wav', 00H ; `string'
CONST	ENDS
;	COMDAT ??_C@_0BE@JAINEKLC@footsteps?1tile3?4wav?$AA@
CONST	SEGMENT
??_C@_0BE@JAINEKLC@footsteps?1tile3?4wav?$AA@ DB 'footsteps/tile3.wav', 00H ; `string'
CONST	ENDS
;	COMDAT ??_C@_0BE@NNEFOLLJ@footsteps?1tile1?4wav?$AA@
CONST	SEGMENT
??_C@_0BE@NNEFOLLJ@footsteps?1tile1?4wav?$AA@ DB 'footsteps/tile1.wav', 00H ; `string'
CONST	ENDS
;	COMDAT ??_C@_0BF@EOMOGCNB@footsteps?1grate4?4wav?$AA@
CONST	SEGMENT
??_C@_0BF@EOMOGCNB@footsteps?1grate4?4wav?$AA@ DB 'footsteps/grate4.wav', 00H ; `string'
CONST	ENDS
;	COMDAT ??_C@_0BF@JIJHIBMM@footsteps?1grate2?4wav?$AA@
CONST	SEGMENT
??_C@_0BF@JIJHIBMM@footsteps?1grate2?4wav?$AA@ DB 'footsteps/grate2.wav', 00H ; `string'
CONST	ENDS
;	COMDAT ??_C@_0BF@FDMLFCGJ@footsteps?1grate3?4wav?$AA@
CONST	SEGMENT
??_C@_0BF@FDMLFCGJ@footsteps?1grate3?4wav?$AA@ DB 'footsteps/grate3.wav', 00H ; `string'
CONST	ENDS
;	COMDAT ??_C@_0BF@BOADPDGC@footsteps?1grate1?4wav?$AA@
CONST	SEGMENT
??_C@_0BF@BOADPDGC@footsteps?1grate1?4wav?$AA@ DB 'footsteps/grate1.wav', 00H ; `string'
CONST	ENDS
;	COMDAT ??_C@_0BE@PIFLMPFB@footsteps?1duct4?4wav?$AA@
CONST	SEGMENT
??_C@_0BE@PIFLMPFB@footsteps?1duct4?4wav?$AA@ DB 'footsteps/duct4.wav', 00H ; `string'
CONST	ENDS
;	COMDAT ??_C@_0BE@COACCMEM@footsteps?1duct2?4wav?$AA@
CONST	SEGMENT
??_C@_0BE@COACCMEM@footsteps?1duct2?4wav?$AA@ DB 'footsteps/duct2.wav', 00H ; `string'
CONST	ENDS
;	COMDAT ??_C@_0BE@OFFOPPOJ@footsteps?1duct3?4wav?$AA@
CONST	SEGMENT
??_C@_0BE@OFFOPPOJ@footsteps?1duct3?4wav?$AA@ DB 'footsteps/duct3.wav', 00H ; `string'
CONST	ENDS
;	COMDAT ??_C@_0BE@KIJGFOOC@footsteps?1duct1?4wav?$AA@
CONST	SEGMENT
??_C@_0BE@KIJGFOOC@footsteps?1duct1?4wav?$AA@ DB 'footsteps/duct1.wav', 00H ; `string'
CONST	ENDS
;	COMDAT ??_C@_0BE@CLOEPIB@footsteps?1dirt4?4wav?$AA@
CONST	SEGMENT
??_C@_0BE@CLOEPIB@footsteps?1dirt4?4wav?$AA@ DB 'footsteps/dirt4.wav', 00H ; `string'
CONST	ENDS
;	COMDAT ??_C@_0BE@NEOHKMJM@footsteps?1dirt2?4wav?$AA@
CONST	SEGMENT
??_C@_0BE@NEOHKMJM@footsteps?1dirt2?4wav?$AA@ DB 'footsteps/dirt2.wav', 00H ; `string'
CONST	ENDS
;	COMDAT ??_C@_0BE@BPLLHPDJ@footsteps?1dirt3?4wav?$AA@
CONST	SEGMENT
??_C@_0BE@BPLLHPDJ@footsteps?1dirt3?4wav?$AA@ DB 'footsteps/dirt3.wav', 00H ; `string'
CONST	ENDS
;	COMDAT ??_C@_0BE@FCHDNODC@footsteps?1dirt1?4wav?$AA@
CONST	SEGMENT
??_C@_0BE@FCHDNODC@footsteps?1dirt1?4wav?$AA@ DB 'footsteps/dirt1.wav', 00H ; `string'
CONST	ENDS
;	COMDAT ??_C@_0BF@COIHNNGG@footsteps?1metal4?4wav?$AA@
CONST	SEGMENT
??_C@_0BF@COIHNNGG@footsteps?1metal4?4wav?$AA@ DB 'footsteps/metal4.wav', 00H ; `string'
CONST	ENDS
;	COMDAT ??_C@_0BF@PINODOHL@footsteps?1metal2?4wav?$AA@
CONST	SEGMENT
??_C@_0BF@PINODOHL@footsteps?1metal2?4wav?$AA@ DB 'footsteps/metal2.wav', 00H ; `string'
CONST	ENDS
;	COMDAT ??_C@_0BF@DDICONNO@footsteps?1metal3?4wav?$AA@
CONST	SEGMENT
??_C@_0BF@DDICONNO@footsteps?1metal3?4wav?$AA@ DB 'footsteps/metal3.wav', 00H ; `string'
CONST	ENDS
;	COMDAT ??_C@_0BF@HOEKEMNF@footsteps?1metal1?4wav?$AA@
CONST	SEGMENT
??_C@_0BF@HOEKEMNF@footsteps?1metal1?4wav?$AA@ DB 'footsteps/metal1.wav', 00H ; `string'
CONST	ENDS
;	COMDAT ??_C@_0BE@FFLKMNBM@footsteps?1step6?4wav?$AA@
CONST	SEGMENT
??_C@_0BE@FFLKMNBM@footsteps?1step6?4wav?$AA@ DB 'footsteps/step6.wav', 00H ; `string'
CONST	ENDS
;	COMDAT ??_C@_0BE@NDCOLPLC@footsteps?1step5?4wav?$AA@
CONST	SEGMENT
??_C@_0BE@NDCOLPLC@footsteps?1step5?4wav?$AA@ DB 'footsteps/step5.wav', 00H ; `string'
CONST	ENDS
;	COMDAT ??_C@_0BE@BIHCGMBH@footsteps?1step4?4wav?$AA@
CONST	SEGMENT
??_C@_0BE@BIHCGMBH@footsteps?1step4?4wav?$AA@ DB 'footsteps/step4.wav', 00H ; `string'
CONST	ENDS
;	COMDAT ??_C@_0BE@FHHFMKP@footsteps?1step3?4wav?$AA@
CONST	SEGMENT
??_C@_0BE@FHHFMKP@footsteps?1step3?4wav?$AA@ DB 'footsteps/step3.wav', 00H ; `string'
CONST	ENDS
;	COMDAT ??_C@_0BE@MOCLIPAK@footsteps?1step2?4wav?$AA@
CONST	SEGMENT
??_C@_0BE@MOCLIPAK@footsteps?1step2?4wav?$AA@ DB 'footsteps/step2.wav', 00H ; `string'
CONST	ENDS
;	COMDAT ??_C@_0BE@EILPPNKE@footsteps?1step1?4wav?$AA@
CONST	SEGMENT
??_C@_0BE@EILPPNKE@footsteps?1step1?4wav?$AA@ DB 'footsteps/step1.wav', 00H ; `string'
CONST	ENDS
;	COMDAT ??_C@_1CM@MFEIHPMD@?$AAp?$AAm?$AA_?$AAs?$AAh?$AAa?$AAr?$AAe?$AAd?$AA_?$AAi?$AAn?$AAi?$AAt?$AAi?$AAa?$AAl?$AAi?$AAz?$AAe?$AAd?$AA?$AA@
CONST	SEGMENT
??_C@_1CM@MFEIHPMD@?$AAp?$AAm?$AA_?$AAs?$AAh?$AAa?$AAr?$AAe?$AAd?$AA_?$AAi?$AAn?$AAi?$AAt?$AAi?$AAa?$AAl?$AAi?$AAz?$AAe?$AAd?$AA?$AA@ DB 'p'
	DB	00H, 'm', 00H, '_', 00H, 's', 00H, 'h', 00H, 'a', 00H, 'r', 00H
	DB	'e', 00H, 'd', 00H, '_', 00H, 'i', 00H, 'n', 00H, 'i', 00H, 't'
	DB	00H, 'i', 00H, 'a', 00H, 'l', 00H, 'i', 00H, 'z', 00H, 'e', 00H
	DB	'd', 00H, 00H, 00H				; `string'
CONST	ENDS
;	COMDAT ??_C@_1JK@HGLHDLOI@?$AAd?$AA?3?$AA?2?$AA?$CB?$AAd?$AAi?$AAf?$AAf?$AAu?$AAs?$AAi?$AAo?$AAn?$AA?5?$AA2?$AA0?$AA2?$AA0?$AA?2?$AAs?$AAo?$AAu?$AAr?$AAc?$AAe?$AA?5?$AAc?$AAo?$AAd?$AAe?$AA?5?$AA2@
CONST	SEGMENT
??_C@_1JK@HGLHDLOI@?$AAd?$AA?3?$AA?2?$AA?$CB?$AAd?$AAi?$AAf?$AAf?$AAu?$AAs?$AAi?$AAo?$AAn?$AA?5?$AA2?$AA0?$AA2?$AA0?$AA?2?$AAs?$AAo?$AAu?$AAr?$AAc?$AAe?$AA?5?$AAc?$AAo?$AAd?$AAe?$AA?5?$AA2@ DB 'd'
	DB	00H, ':', 00H, '\', 00H, '!', 00H, 'd', 00H, 'i', 00H, 'f', 00H
	DB	'f', 00H, 'u', 00H, 's', 00H, 'i', 00H, 'o', 00H, 'n', 00H, ' '
	DB	00H, '2', 00H, '0', 00H, '2', 00H, '0', 00H, '\', 00H, 's', 00H
	DB	'o', 00H, 'u', 00H, 'r', 00H, 'c', 00H, 'e', 00H, ' ', 00H, 'c'
	DB	00H, 'o', 00H, 'd', 00H, 'e', 00H, ' ', 00H, '2', 00H, '0', 00H
	DB	'2', 00H, '2', 00H, '\', 00H, 'c', 00H, 'l', 00H, 'i', 00H, 'e'
	DB	00H, 'n', 00H, 't', 00H, '-', 00H, 's', 00H, 'e', 00H, 'r', 00H
	DB	'v', 00H, 'e', 00H, 'r', 00H, '\', 00H, 'g', 00H, 'a', 00H, 'm'
	DB	00H, 'e', 00H, '_', 00H, 's', 00H, 'h', 00H, 'a', 00H, 'r', 00H
	DB	'e', 00H, 'd', 00H, '\', 00H, 'p', 00H, 'l', 00H, 'a', 00H, 'y'
	DB	00H, 'e', 00H, 'r', 00H, 'm', 00H, 'o', 00H, 'v', 00H, 'e', 00H
	DB	'.', 00H, 'c', 00H, 'p', 00H, 'p', 00H, 00H, 00H ; `string'
CONST	ENDS
;	COMDAT ?__LINE__Var@?0??PM_FindTextureType@@YADPAD@Z@4JA
_DATA	SEGMENT
?__LINE__Var@?0??PM_FindTextureType@@YADPAD@Z@4JA DD 012aH ; `PM_FindTextureType'::`1'::__LINE__Var
_DATA	ENDS
;	COMDAT ??_C@_02CBLDBPFN@?1?1?$AA@
CONST	SEGMENT
??_C@_02CBLDBPFN@?1?1?$AA@ DB '//', 00H			; `string'
CONST	ENDS
;	COMDAT ??_C@_0BD@EJFPBDDL@data?1materials?4txt?$AA@
CONST	SEGMENT
??_C@_0BD@EJFPBDDL@data?1materials?4txt?$AA@ DB 'data/materials.txt', 00H ; `string'
CONST	ENDS
;	COMDAT xdata$x
xdata$x	SEGMENT
__unwindtable$?PM_CheckWater@@YAHXZ DD 0ffffffffH
	DD	FLAT:__unwindfunclet$?PM_CheckWater@@YAHXZ$0
__ehfuncinfo$?PM_CheckWater@@YAHXZ DD 019930522H
	DD	01H
	DD	FLAT:__unwindtable$?PM_CheckWater@@YAHXZ
	DD	2 DUP(00H)
	DD	2 DUP(00H)
	DD	00H
	DD	01H
xdata$x	ENDS
; Function compile flags: /Odtp /ZI
; File d:\!diffusion 2020\source code 2022\client-server\game_shared\playermove.cpp
;	COMDAT ?PM_Init@@YAXPAUplayermove_s@@@Z
_TEXT	SEGMENT
_ppmove$ = 8						; size = 4
?PM_Init@@YAXPAUplayermove_s@@@Z PROC			; PM_Init, COMDAT

; 3820 : {

	push	ebp
	mov	ebp, esp
	sub	esp, 64					; 00000040H
	push	ebx
	push	esi
	push	edi

; 3821 : 	assert( !pm_shared_initialized );

	cmp	DWORD PTR ?pm_shared_initialized@@3HA, 0
	je	SHORT $LN3@PM_Init
	mov	eax, DWORD PTR ?__LINE__Var@?0??PM_Init@@YAXPAUplayermove_s@@@Z@4JA
	add	eax, 1
	push	eax
	push	OFFSET ??_C@_1JK@HGLHDLOI@?$AAd?$AA?3?$AA?2?$AA?$CB?$AAd?$AAi?$AAf?$AAf?$AAu?$AAs?$AAi?$AAo?$AAn?$AA?5?$AA2?$AA0?$AA2?$AA0?$AA?2?$AAs?$AAo?$AAu?$AAr?$AAc?$AAe?$AA?5?$AAc?$AAo?$AAd?$AAe?$AA?5?$AA2@
	push	OFFSET ??_C@_1CO@MDBAMMIO@?$AA?$CB?$AAp?$AAm?$AA_?$AAs?$AAh?$AAa?$AAr?$AAe?$AAd?$AA_?$AAi?$AAn?$AAi?$AAt?$AAi?$AAa?$AAl?$AAi?$AAz?$AAe?$AAd?$AA?$AA@
	call	__wassert
	add	esp, 12					; 0000000cH
$LN3@PM_Init:

; 3822 : 
; 3823 : 	pmove = ppmove;

	mov	eax, DWORD PTR _ppmove$[ebp]
	mov	DWORD PTR ?pmove@@3PAUplayermove_s@@A, eax ; pmove

; 3824 : 
; 3825 : 	PM_CreateStuckTable();

	call	?PM_CreateStuckTable@@YAXXZ		; PM_CreateStuckTable

; 3826 : 	PM_InitTextureTypes();

	call	?PM_InitTextureTypes@@YAXXZ		; PM_InitTextureTypes

; 3827 : 
; 3828 : 	pm_shared_initialized = 1;

	mov	DWORD PTR ?pm_shared_initialized@@3HA, 1

; 3829 : }

	pop	edi
	pop	esi
	pop	ebx
	mov	esp, ebp
	pop	ebp
	ret	0
?PM_Init@@YAXPAUplayermove_s@@@Z ENDP			; PM_Init
_TEXT	ENDS
; Function compile flags: /Odtp /ZI
; File d:\!diffusion 2020\source code 2022\client-server\game_shared\playermove.cpp
;	COMDAT ?PM_GetPhysEntInfo@@YAHH@Z
_TEXT	SEGMENT
_ent$ = 8						; size = 4
?PM_GetPhysEntInfo@@YAHH@Z PROC				; PM_GetPhysEntInfo, COMDAT

; 3812 : {

	push	ebp
	mov	ebp, esp
	sub	esp, 64					; 00000040H
	push	ebx
	push	esi
	push	edi

; 3813 : 	if ( ent >= 0 && ent <= pmove->numphysent)

	cmp	DWORD PTR _ent$[ebp], 0
	jl	SHORT $LN2@PM_GetPhys
	mov	eax, DWORD PTR ?pmove@@3PAUplayermove_s@@A ; pmove
	mov	ecx, DWORD PTR _ent$[ebp]
	cmp	ecx, DWORD PTR [eax+588]
	jg	SHORT $LN2@PM_GetPhys

; 3814 : 		return pmove->physents[ ent ].info;

	imul	eax, DWORD PTR _ent$[ebp], 224
	mov	ecx, DWORD PTR ?pmove@@3PAUplayermove_s@@A ; pmove
	mov	eax, DWORD PTR [ecx+eax+672]
	jmp	SHORT $LN1@PM_GetPhys
$LN2@PM_GetPhys:

; 3815 : 
; 3816 : 	return -1;

	or	eax, -1
$LN1@PM_GetPhys:

; 3817 : }

	pop	edi
	pop	esi
	pop	ebx
	mov	esp, ebp
	pop	ebp
	ret	0
?PM_GetPhysEntInfo@@YAHH@Z ENDP				; PM_GetPhysEntInfo
_TEXT	ENDS
; Function compile flags: /Odtp /ZI
; File d:\!diffusion 2020\source code 2022\client-server\game_shared\playermove.cpp
;	COMDAT ?PM_GetVisEntInfo@@YAHH@Z
_TEXT	SEGMENT
_ent$ = 8						; size = 4
?PM_GetVisEntInfo@@YAHH@Z PROC				; PM_GetVisEntInfo, COMDAT

; 3804 : {

	push	ebp
	mov	ebp, esp
	sub	esp, 64					; 00000040H
	push	ebx
	push	esi
	push	edi

; 3805 : 	if ( ent >= 0 && ent <= pmove->numvisent )

	cmp	DWORD PTR _ent$[ebp], 0
	jl	SHORT $LN2@PM_GetVisE
	mov	eax, DWORD PTR ?pmove@@3PAUplayermove_s@@A ; pmove
	mov	ecx, DWORD PTR _ent$[ebp]
	cmp	ecx, DWORD PTR [eax+149332]
	jg	SHORT $LN2@PM_GetVisE

; 3806 : 		return pmove->visents[ ent ].info;

	imul	eax, DWORD PTR _ent$[ebp], 224
	mov	ecx, DWORD PTR ?pmove@@3PAUplayermove_s@@A ; pmove
	mov	eax, DWORD PTR [ecx+eax+149416]
	jmp	SHORT $LN1@PM_GetVisE
$LN2@PM_GetVisE:

; 3807 : 
; 3808 : 	return -1;

	or	eax, -1
$LN1@PM_GetVisE:

; 3809 : }

	pop	edi
	pop	esi
	pop	ebx
	mov	esp, ebp
	pop	ebp
	ret	0
?PM_GetVisEntInfo@@YAHH@Z ENDP				; PM_GetVisEntInfo
_TEXT	ENDS
; Function compile flags: /Odtp /ZI
; File d:\!diffusion 2020\source code 2022\client-server\game_shared\playermove.cpp
;	COMDAT ?PM_Move@@YAXPAUplayermove_s@@H@Z
_TEXT	SEGMENT
tv71 = -65						; size = 1
_ppmove$ = 8						; size = 4
_server$ = 12						; size = 4
?PM_Move@@YAXPAUplayermove_s@@H@Z PROC			; PM_Move, COMDAT

; 3784 : {

	push	ebp
	mov	ebp, esp
	sub	esp, 68					; 00000044H
	push	ebx
	push	esi
	push	edi

; 3785 : 	assert( pm_shared_initialized );

	cmp	DWORD PTR ?pm_shared_initialized@@3HA, 0
	jne	SHORT $LN6@PM_Move
	mov	eax, DWORD PTR ?__LINE__Var@?0??PM_Move@@YAXPAUplayermove_s@@H@Z@4JA
	add	eax, 1
	push	eax
	push	OFFSET ??_C@_1JK@HGLHDLOI@?$AAd?$AA?3?$AA?2?$AA?$CB?$AAd?$AAi?$AAf?$AAf?$AAu?$AAs?$AAi?$AAo?$AAn?$AA?5?$AA2?$AA0?$AA2?$AA0?$AA?2?$AAs?$AAo?$AAu?$AAr?$AAc?$AAe?$AA?5?$AAc?$AAo?$AAd?$AAe?$AA?5?$AA2@
	push	OFFSET ??_C@_1CM@MFEIHPMD@?$AAp?$AAm?$AA_?$AAs?$AAh?$AAa?$AAr?$AAe?$AAd?$AA_?$AAi?$AAn?$AAi?$AAt?$AAi?$AAa?$AAl?$AAi?$AAz?$AAe?$AAd?$AA?$AA@
	call	__wassert
	add	esp, 12					; 0000000cH
$LN6@PM_Move:

; 3786 : 
; 3787 : 	pmove = ppmove;

	mov	eax, DWORD PTR _ppmove$[ebp]
	mov	DWORD PTR ?pmove@@3PAUplayermove_s@@A, eax ; pmove

; 3788 : 
; 3789 : 	PM_PlayerMove( ( server != 0 ) ? true : false );

	cmp	DWORD PTR _server$[ebp], 0
	je	SHORT $LN7@PM_Move
	mov	BYTE PTR tv71[ebp], 1
	jmp	SHORT $LN8@PM_Move
$LN7@PM_Move:
	mov	BYTE PTR tv71[ebp], 0
$LN8@PM_Move:
	movzx	eax, BYTE PTR tv71[ebp]
	push	eax
	call	?PM_PlayerMove@@YAXH@Z			; PM_PlayerMove
	add	esp, 4

; 3790 : 
; 3791 : 	if ( pmove->onground != -1 )

	mov	eax, DWORD PTR ?pmove@@3PAUplayermove_s@@A ; pmove
	cmp	DWORD PTR [eax+224], -1
	je	SHORT $LN2@PM_Move

; 3792 : 		pmove->flags |= FL_ONGROUND;

	mov	eax, DWORD PTR ?pmove@@3PAUplayermove_s@@A ; pmove
	mov	ecx, DWORD PTR [eax+184]
	or	ecx, 512				; 00000200H
	mov	edx, DWORD PTR ?pmove@@3PAUplayermove_s@@A ; pmove
	mov	DWORD PTR [edx+184], ecx

; 3793 : 	else

	jmp	SHORT $LN3@PM_Move
$LN2@PM_Move:

; 3794 : 		pmove->flags &= ~FL_ONGROUND;

	mov	eax, DWORD PTR ?pmove@@3PAUplayermove_s@@A ; pmove
	mov	ecx, DWORD PTR [eax+184]
	and	ecx, -513				; fffffdffH
	mov	edx, DWORD PTR ?pmove@@3PAUplayermove_s@@A ; pmove
	mov	DWORD PTR [edx+184], ecx
$LN3@PM_Move:

; 3795 : 
; 3796 : 	// In single player, reset friction after each movement to FrictionModifier Triggers work still.
; 3797 : //	if ( !pmove->multiplayer && ( pmove->movetype == MOVETYPE_WALK  ) )
; 3798 : //		pmove->friction = 1.0f;
; 3799 : 	if( pmove->movetype == MOVETYPE_WALK ) // diffusion - https://github.com/SamVanheer/halflife-updated/commit/1d5610c1786715909107096f45599b3396451840

	mov	eax, DWORD PTR ?pmove@@3PAUplayermove_s@@A ; pmove
	cmp	DWORD PTR [eax+220], 3
	jne	SHORT $LN4@PM_Move

; 3800 : 		pmove->friction = 1.0f;

	mov	eax, DWORD PTR ?pmove@@3PAUplayermove_s@@A ; pmove
	movss	xmm0, DWORD PTR __real@3f800000
	movss	DWORD PTR [eax+196], xmm0
$LN4@PM_Move:

; 3801 : }

	pop	edi
	pop	esi
	pop	ebx
	mov	esp, ebp
	pop	ebp
	ret	0
?PM_Move@@YAXPAUplayermove_s@@H@Z ENDP			; PM_Move
_TEXT	ENDS
; Function compile flags: /Odtp /ZI
; File d:\!diffusion 2020\source code 2022\client-server\game_shared\playermove.cpp
;	COMDAT ?PM_CreateStuckTable@@YAXXZ
_TEXT	SEGMENT
_zi$ = -36						; size = 12
_i$ = -24						; size = 4
_idx$ = -20						; size = 4
_z$ = -16						; size = 4
_y$ = -12						; size = 4
_x$ = -8						; size = 4
__$ArrayPad$ = -4					; size = 4
?PM_CreateStuckTable@@YAXXZ PROC			; PM_CreateStuckTable, COMDAT

; 3668 : {

	push	ebp
	mov	ebp, esp
	sub	esp, 100				; 00000064H
	mov	eax, DWORD PTR ___security_cookie
	xor	eax, ebp
	mov	DWORD PTR __$ArrayPad$[ebp], eax
	push	ebx
	push	esi
	push	edi

; 3669 : 	float x, y, z;
; 3670 : 	int idx;
; 3671 : 	int i;
; 3672 : 	float zi[3];
; 3673 : 
; 3674 : 	memset( rgv3tStuckTable, 0, sizeof( rgv3tStuckTable ));

	push	648					; 00000288H
	push	0
	push	OFFSET ?rgv3tStuckTable@@3PAVVector@@A
	call	_memset
	add	esp, 12					; 0000000cH

; 3675 : 
; 3676 : 	idx = 0;

	mov	DWORD PTR _idx$[ebp], 0

; 3677 : 	// Little Moves.
; 3678 : 	x = y = 0;

	xorps	xmm0, xmm0
	movss	DWORD PTR _y$[ebp], xmm0
	movss	xmm0, DWORD PTR _y$[ebp]
	movss	DWORD PTR _x$[ebp], xmm0

; 3679 : 	// Z moves
; 3680 : 	for (z = -0.125 ; z <= 0.125 ; z += 0.125)

	movss	xmm0, DWORD PTR __real@be000000
	movss	DWORD PTR _z$[ebp], xmm0
	jmp	SHORT $LN4@PM_CreateS
$LN2@PM_CreateS:
	cvtss2sd xmm0, DWORD PTR _z$[ebp]
	addsd	xmm0, QWORD PTR __real@3fc0000000000000
	cvtsd2ss xmm0, xmm0
	movss	DWORD PTR _z$[ebp], xmm0
$LN4@PM_CreateS:
	cvtss2sd xmm0, DWORD PTR _z$[ebp]
	movsd	xmm1, QWORD PTR __real@3fc0000000000000
	comisd	xmm1, xmm0
	jb	SHORT $LN3@PM_CreateS

; 3681 : 	{
; 3682 : 		rgv3tStuckTable[idx][0] = x;

	imul	ecx, DWORD PTR _idx$[ebp], 12
	add	ecx, OFFSET ?rgv3tStuckTable@@3PAVVector@@A
	call	??BVector@@QAEPAMXZ			; Vector::operator float *
	mov	ecx, 4
	imul	edx, ecx, 0
	movss	xmm0, DWORD PTR _x$[ebp]
	movss	DWORD PTR [eax+edx], xmm0

; 3683 : 		rgv3tStuckTable[idx][1] = y;

	imul	ecx, DWORD PTR _idx$[ebp], 12
	add	ecx, OFFSET ?rgv3tStuckTable@@3PAVVector@@A
	call	??BVector@@QAEPAMXZ			; Vector::operator float *
	mov	ecx, 4
	shl	ecx, 0
	movss	xmm0, DWORD PTR _y$[ebp]
	movss	DWORD PTR [eax+ecx], xmm0

; 3684 : 		rgv3tStuckTable[idx][2] = z;

	imul	ecx, DWORD PTR _idx$[ebp], 12
	add	ecx, OFFSET ?rgv3tStuckTable@@3PAVVector@@A
	call	??BVector@@QAEPAMXZ			; Vector::operator float *
	mov	ecx, 4
	shl	ecx, 1
	movss	xmm0, DWORD PTR _z$[ebp]
	movss	DWORD PTR [eax+ecx], xmm0

; 3685 : 		idx++;

	mov	eax, DWORD PTR _idx$[ebp]
	add	eax, 1
	mov	DWORD PTR _idx$[ebp], eax

; 3686 : 	}

	jmp	$LN2@PM_CreateS
$LN3@PM_CreateS:

; 3687 : 	x = z = 0;

	xorps	xmm0, xmm0
	movss	DWORD PTR _z$[ebp], xmm0
	movss	xmm0, DWORD PTR _z$[ebp]
	movss	DWORD PTR _x$[ebp], xmm0

; 3688 : 	// Y moves
; 3689 : 	for (y = -0.125 ; y <= 0.125 ; y += 0.125)

	movss	xmm0, DWORD PTR __real@be000000
	movss	DWORD PTR _y$[ebp], xmm0
	jmp	SHORT $LN7@PM_CreateS
$LN5@PM_CreateS:
	cvtss2sd xmm0, DWORD PTR _y$[ebp]
	addsd	xmm0, QWORD PTR __real@3fc0000000000000
	cvtsd2ss xmm0, xmm0
	movss	DWORD PTR _y$[ebp], xmm0
$LN7@PM_CreateS:
	cvtss2sd xmm0, DWORD PTR _y$[ebp]
	movsd	xmm1, QWORD PTR __real@3fc0000000000000
	comisd	xmm1, xmm0
	jb	SHORT $LN6@PM_CreateS

; 3690 : 	{
; 3691 : 		rgv3tStuckTable[idx][0] = x;

	imul	ecx, DWORD PTR _idx$[ebp], 12
	add	ecx, OFFSET ?rgv3tStuckTable@@3PAVVector@@A
	call	??BVector@@QAEPAMXZ			; Vector::operator float *
	mov	ecx, 4
	imul	edx, ecx, 0
	movss	xmm0, DWORD PTR _x$[ebp]
	movss	DWORD PTR [eax+edx], xmm0

; 3692 : 		rgv3tStuckTable[idx][1] = y;

	imul	ecx, DWORD PTR _idx$[ebp], 12
	add	ecx, OFFSET ?rgv3tStuckTable@@3PAVVector@@A
	call	??BVector@@QAEPAMXZ			; Vector::operator float *
	mov	ecx, 4
	shl	ecx, 0
	movss	xmm0, DWORD PTR _y$[ebp]
	movss	DWORD PTR [eax+ecx], xmm0

; 3693 : 		rgv3tStuckTable[idx][2] = z;

	imul	ecx, DWORD PTR _idx$[ebp], 12
	add	ecx, OFFSET ?rgv3tStuckTable@@3PAVVector@@A
	call	??BVector@@QAEPAMXZ			; Vector::operator float *
	mov	ecx, 4
	shl	ecx, 1
	movss	xmm0, DWORD PTR _z$[ebp]
	movss	DWORD PTR [eax+ecx], xmm0

; 3694 : 		idx++;

	mov	eax, DWORD PTR _idx$[ebp]
	add	eax, 1
	mov	DWORD PTR _idx$[ebp], eax

; 3695 : 	}

	jmp	$LN5@PM_CreateS
$LN6@PM_CreateS:

; 3696 : 	y = z = 0;

	xorps	xmm0, xmm0
	movss	DWORD PTR _z$[ebp], xmm0
	movss	xmm0, DWORD PTR _z$[ebp]
	movss	DWORD PTR _y$[ebp], xmm0

; 3697 : 	// X moves
; 3698 : 	for (x = -0.125 ; x <= 0.125 ; x += 0.125)

	movss	xmm0, DWORD PTR __real@be000000
	movss	DWORD PTR _x$[ebp], xmm0
	jmp	SHORT $LN10@PM_CreateS
$LN8@PM_CreateS:
	cvtss2sd xmm0, DWORD PTR _x$[ebp]
	addsd	xmm0, QWORD PTR __real@3fc0000000000000
	cvtsd2ss xmm0, xmm0
	movss	DWORD PTR _x$[ebp], xmm0
$LN10@PM_CreateS:
	cvtss2sd xmm0, DWORD PTR _x$[ebp]
	movsd	xmm1, QWORD PTR __real@3fc0000000000000
	comisd	xmm1, xmm0
	jb	SHORT $LN9@PM_CreateS

; 3699 : 	{
; 3700 : 		rgv3tStuckTable[idx][0] = x;

	imul	ecx, DWORD PTR _idx$[ebp], 12
	add	ecx, OFFSET ?rgv3tStuckTable@@3PAVVector@@A
	call	??BVector@@QAEPAMXZ			; Vector::operator float *
	mov	ecx, 4
	imul	edx, ecx, 0
	movss	xmm0, DWORD PTR _x$[ebp]
	movss	DWORD PTR [eax+edx], xmm0

; 3701 : 		rgv3tStuckTable[idx][1] = y;

	imul	ecx, DWORD PTR _idx$[ebp], 12
	add	ecx, OFFSET ?rgv3tStuckTable@@3PAVVector@@A
	call	??BVector@@QAEPAMXZ			; Vector::operator float *
	mov	ecx, 4
	shl	ecx, 0
	movss	xmm0, DWORD PTR _y$[ebp]
	movss	DWORD PTR [eax+ecx], xmm0

; 3702 : 		rgv3tStuckTable[idx][2] = z;

	imul	ecx, DWORD PTR _idx$[ebp], 12
	add	ecx, OFFSET ?rgv3tStuckTable@@3PAVVector@@A
	call	??BVector@@QAEPAMXZ			; Vector::operator float *
	mov	ecx, 4
	shl	ecx, 1
	movss	xmm0, DWORD PTR _z$[ebp]
	movss	DWORD PTR [eax+ecx], xmm0

; 3703 : 		idx++;

	mov	eax, DWORD PTR _idx$[ebp]
	add	eax, 1
	mov	DWORD PTR _idx$[ebp], eax

; 3704 : 	}

	jmp	$LN8@PM_CreateS
$LN9@PM_CreateS:

; 3705 : 
; 3706 : 	// Remaining multi axis nudges.
; 3707 : 	for ( x = - 0.125; x <= 0.125; x += 0.250 )

	movss	xmm0, DWORD PTR __real@be000000
	movss	DWORD PTR _x$[ebp], xmm0
	jmp	SHORT $LN13@PM_CreateS
$LN11@PM_CreateS:
	cvtss2sd xmm0, DWORD PTR _x$[ebp]
	addsd	xmm0, QWORD PTR __real@3fd0000000000000
	cvtsd2ss xmm0, xmm0
	movss	DWORD PTR _x$[ebp], xmm0
$LN13@PM_CreateS:
	cvtss2sd xmm0, DWORD PTR _x$[ebp]
	movsd	xmm1, QWORD PTR __real@3fc0000000000000
	comisd	xmm1, xmm0
	jb	$LN12@PM_CreateS

; 3708 : 	{
; 3709 : 		for ( y = - 0.125; y <= 0.125; y += 0.250 )

	movss	xmm0, DWORD PTR __real@be000000
	movss	DWORD PTR _y$[ebp], xmm0
	jmp	SHORT $LN16@PM_CreateS
$LN14@PM_CreateS:
	cvtss2sd xmm0, DWORD PTR _y$[ebp]
	addsd	xmm0, QWORD PTR __real@3fd0000000000000
	cvtsd2ss xmm0, xmm0
	movss	DWORD PTR _y$[ebp], xmm0
$LN16@PM_CreateS:
	cvtss2sd xmm0, DWORD PTR _y$[ebp]
	movsd	xmm1, QWORD PTR __real@3fc0000000000000
	comisd	xmm1, xmm0
	jb	$LN15@PM_CreateS

; 3710 : 		{
; 3711 : 			for ( z = - 0.125; z <= 0.125; z += 0.250 )

	movss	xmm0, DWORD PTR __real@be000000
	movss	DWORD PTR _z$[ebp], xmm0
	jmp	SHORT $LN19@PM_CreateS
$LN17@PM_CreateS:
	cvtss2sd xmm0, DWORD PTR _z$[ebp]
	addsd	xmm0, QWORD PTR __real@3fd0000000000000
	cvtsd2ss xmm0, xmm0
	movss	DWORD PTR _z$[ebp], xmm0
$LN19@PM_CreateS:
	cvtss2sd xmm0, DWORD PTR _z$[ebp]
	movsd	xmm1, QWORD PTR __real@3fc0000000000000
	comisd	xmm1, xmm0
	jb	SHORT $LN18@PM_CreateS

; 3712 : 			{
; 3713 : 				rgv3tStuckTable[idx][0] = x;

	imul	ecx, DWORD PTR _idx$[ebp], 12
	add	ecx, OFFSET ?rgv3tStuckTable@@3PAVVector@@A
	call	??BVector@@QAEPAMXZ			; Vector::operator float *
	mov	ecx, 4
	imul	edx, ecx, 0
	movss	xmm0, DWORD PTR _x$[ebp]
	movss	DWORD PTR [eax+edx], xmm0

; 3714 : 				rgv3tStuckTable[idx][1] = y;

	imul	ecx, DWORD PTR _idx$[ebp], 12
	add	ecx, OFFSET ?rgv3tStuckTable@@3PAVVector@@A
	call	??BVector@@QAEPAMXZ			; Vector::operator float *
	mov	ecx, 4
	shl	ecx, 0
	movss	xmm0, DWORD PTR _y$[ebp]
	movss	DWORD PTR [eax+ecx], xmm0

; 3715 : 				rgv3tStuckTable[idx][2] = z;

	imul	ecx, DWORD PTR _idx$[ebp], 12
	add	ecx, OFFSET ?rgv3tStuckTable@@3PAVVector@@A
	call	??BVector@@QAEPAMXZ			; Vector::operator float *
	mov	ecx, 4
	shl	ecx, 1
	movss	xmm0, DWORD PTR _z$[ebp]
	movss	DWORD PTR [eax+ecx], xmm0

; 3716 : 				idx++;

	mov	eax, DWORD PTR _idx$[ebp]
	add	eax, 1
	mov	DWORD PTR _idx$[ebp], eax

; 3717 : 			}

	jmp	$LN17@PM_CreateS
$LN18@PM_CreateS:

; 3718 : 		}

	jmp	$LN14@PM_CreateS
$LN15@PM_CreateS:

; 3719 : 	}

	jmp	$LN11@PM_CreateS
$LN12@PM_CreateS:

; 3720 : 
; 3721 : 	// Big Moves.
; 3722 : 	x = y = 0;

	xorps	xmm0, xmm0
	movss	DWORD PTR _y$[ebp], xmm0
	movss	xmm0, DWORD PTR _y$[ebp]
	movss	DWORD PTR _x$[ebp], xmm0

; 3723 : 	zi[0] = 0.0f;

	mov	eax, 4
	imul	ecx, eax, 0
	xorps	xmm0, xmm0
	movss	DWORD PTR _zi$[ebp+ecx], xmm0

; 3724 : 	zi[1] = 1.0f;

	mov	eax, 4
	shl	eax, 0
	movss	xmm0, DWORD PTR __real@3f800000
	movss	DWORD PTR _zi$[ebp+eax], xmm0

; 3725 : 	zi[2] = 6.0f;

	mov	eax, 4
	shl	eax, 1
	movss	xmm0, DWORD PTR __real@40c00000
	movss	DWORD PTR _zi$[ebp+eax], xmm0

; 3726 : 
; 3727 : 	for (i = 0; i < 3; i++)

	mov	DWORD PTR _i$[ebp], 0
	jmp	SHORT $LN22@PM_CreateS
$LN20@PM_CreateS:
	mov	eax, DWORD PTR _i$[ebp]
	add	eax, 1
	mov	DWORD PTR _i$[ebp], eax
$LN22@PM_CreateS:
	cmp	DWORD PTR _i$[ebp], 3
	jge	SHORT $LN21@PM_CreateS

; 3728 : 	{
; 3729 : 		// Z moves
; 3730 : 		z = zi[i];

	mov	eax, DWORD PTR _i$[ebp]
	movss	xmm0, DWORD PTR _zi$[ebp+eax*4]
	movss	DWORD PTR _z$[ebp], xmm0

; 3731 : 		rgv3tStuckTable[idx][0] = x;

	imul	ecx, DWORD PTR _idx$[ebp], 12
	add	ecx, OFFSET ?rgv3tStuckTable@@3PAVVector@@A
	call	??BVector@@QAEPAMXZ			; Vector::operator float *
	mov	ecx, 4
	imul	edx, ecx, 0
	movss	xmm0, DWORD PTR _x$[ebp]
	movss	DWORD PTR [eax+edx], xmm0

; 3732 : 		rgv3tStuckTable[idx][1] = y;

	imul	ecx, DWORD PTR _idx$[ebp], 12
	add	ecx, OFFSET ?rgv3tStuckTable@@3PAVVector@@A
	call	??BVector@@QAEPAMXZ			; Vector::operator float *
	mov	ecx, 4
	shl	ecx, 0
	movss	xmm0, DWORD PTR _y$[ebp]
	movss	DWORD PTR [eax+ecx], xmm0

; 3733 : 		rgv3tStuckTable[idx][2] = z;

	imul	ecx, DWORD PTR _idx$[ebp], 12
	add	ecx, OFFSET ?rgv3tStuckTable@@3PAVVector@@A
	call	??BVector@@QAEPAMXZ			; Vector::operator float *
	mov	ecx, 4
	shl	ecx, 1
	movss	xmm0, DWORD PTR _z$[ebp]
	movss	DWORD PTR [eax+ecx], xmm0

; 3734 : 		idx++;

	mov	eax, DWORD PTR _idx$[ebp]
	add	eax, 1
	mov	DWORD PTR _idx$[ebp], eax

; 3735 : 	}

	jmp	$LN20@PM_CreateS
$LN21@PM_CreateS:

; 3736 : 
; 3737 : 	x = z = 0;

	xorps	xmm0, xmm0
	movss	DWORD PTR _z$[ebp], xmm0
	movss	xmm0, DWORD PTR _z$[ebp]
	movss	DWORD PTR _x$[ebp], xmm0

; 3738 : 
; 3739 : 	// Y moves
; 3740 : 	for (y = -2.0f ; y <= 2.0f ; y += 2.0)

	movss	xmm0, DWORD PTR __real@c0000000
	movss	DWORD PTR _y$[ebp], xmm0
	jmp	SHORT $LN25@PM_CreateS
$LN23@PM_CreateS:
	cvtss2sd xmm0, DWORD PTR _y$[ebp]
	addsd	xmm0, QWORD PTR __real@4000000000000000
	cvtsd2ss xmm0, xmm0
	movss	DWORD PTR _y$[ebp], xmm0
$LN25@PM_CreateS:
	movss	xmm0, DWORD PTR __real@40000000
	comiss	xmm0, DWORD PTR _y$[ebp]
	jb	SHORT $LN24@PM_CreateS

; 3741 : 	{
; 3742 : 		rgv3tStuckTable[idx][0] = x;

	imul	ecx, DWORD PTR _idx$[ebp], 12
	add	ecx, OFFSET ?rgv3tStuckTable@@3PAVVector@@A
	call	??BVector@@QAEPAMXZ			; Vector::operator float *
	mov	ecx, 4
	imul	edx, ecx, 0
	movss	xmm0, DWORD PTR _x$[ebp]
	movss	DWORD PTR [eax+edx], xmm0

; 3743 : 		rgv3tStuckTable[idx][1] = y;

	imul	ecx, DWORD PTR _idx$[ebp], 12
	add	ecx, OFFSET ?rgv3tStuckTable@@3PAVVector@@A
	call	??BVector@@QAEPAMXZ			; Vector::operator float *
	mov	ecx, 4
	shl	ecx, 0
	movss	xmm0, DWORD PTR _y$[ebp]
	movss	DWORD PTR [eax+ecx], xmm0

; 3744 : 		rgv3tStuckTable[idx][2] = z;

	imul	ecx, DWORD PTR _idx$[ebp], 12
	add	ecx, OFFSET ?rgv3tStuckTable@@3PAVVector@@A
	call	??BVector@@QAEPAMXZ			; Vector::operator float *
	mov	ecx, 4
	shl	ecx, 1
	movss	xmm0, DWORD PTR _z$[ebp]
	movss	DWORD PTR [eax+ecx], xmm0

; 3745 : 		idx++;

	mov	eax, DWORD PTR _idx$[ebp]
	add	eax, 1
	mov	DWORD PTR _idx$[ebp], eax

; 3746 : 	}

	jmp	$LN23@PM_CreateS
$LN24@PM_CreateS:

; 3747 : 	y = z = 0;

	xorps	xmm0, xmm0
	movss	DWORD PTR _z$[ebp], xmm0
	movss	xmm0, DWORD PTR _z$[ebp]
	movss	DWORD PTR _y$[ebp], xmm0

; 3748 : 	// X moves
; 3749 : 	for (x = -2.0f ; x <= 2.0f ; x += 2.0f)

	movss	xmm0, DWORD PTR __real@c0000000
	movss	DWORD PTR _x$[ebp], xmm0
	jmp	SHORT $LN28@PM_CreateS
$LN26@PM_CreateS:
	movss	xmm0, DWORD PTR _x$[ebp]
	addss	xmm0, DWORD PTR __real@40000000
	movss	DWORD PTR _x$[ebp], xmm0
$LN28@PM_CreateS:
	movss	xmm0, DWORD PTR __real@40000000
	comiss	xmm0, DWORD PTR _x$[ebp]
	jb	SHORT $LN27@PM_CreateS

; 3750 : 	{
; 3751 : 		rgv3tStuckTable[idx][0] = x;

	imul	ecx, DWORD PTR _idx$[ebp], 12
	add	ecx, OFFSET ?rgv3tStuckTable@@3PAVVector@@A
	call	??BVector@@QAEPAMXZ			; Vector::operator float *
	mov	ecx, 4
	imul	edx, ecx, 0
	movss	xmm0, DWORD PTR _x$[ebp]
	movss	DWORD PTR [eax+edx], xmm0

; 3752 : 		rgv3tStuckTable[idx][1] = y;

	imul	ecx, DWORD PTR _idx$[ebp], 12
	add	ecx, OFFSET ?rgv3tStuckTable@@3PAVVector@@A
	call	??BVector@@QAEPAMXZ			; Vector::operator float *
	mov	ecx, 4
	shl	ecx, 0
	movss	xmm0, DWORD PTR _y$[ebp]
	movss	DWORD PTR [eax+ecx], xmm0

; 3753 : 		rgv3tStuckTable[idx][2] = z;

	imul	ecx, DWORD PTR _idx$[ebp], 12
	add	ecx, OFFSET ?rgv3tStuckTable@@3PAVVector@@A
	call	??BVector@@QAEPAMXZ			; Vector::operator float *
	mov	ecx, 4
	shl	ecx, 1
	movss	xmm0, DWORD PTR _z$[ebp]
	movss	DWORD PTR [eax+ecx], xmm0

; 3754 : 		idx++;

	mov	eax, DWORD PTR _idx$[ebp]
	add	eax, 1
	mov	DWORD PTR _idx$[ebp], eax

; 3755 : 	}

	jmp	$LN26@PM_CreateS
$LN27@PM_CreateS:

; 3756 : 
; 3757 : 	// Remaining multi axis nudges.
; 3758 : 	for (i = 0 ; i < 3; i++)

	mov	DWORD PTR _i$[ebp], 0
	jmp	SHORT $LN31@PM_CreateS
$LN29@PM_CreateS:
	mov	eax, DWORD PTR _i$[ebp]
	add	eax, 1
	mov	DWORD PTR _i$[ebp], eax
$LN31@PM_CreateS:
	cmp	DWORD PTR _i$[ebp], 3
	jge	$LN30@PM_CreateS

; 3759 : 	{
; 3760 : 		z = zi[i];

	mov	eax, DWORD PTR _i$[ebp]
	movss	xmm0, DWORD PTR _zi$[ebp+eax*4]
	movss	DWORD PTR _z$[ebp], xmm0

; 3761 : 		
; 3762 : 		for (x = -2.0f ; x <= 2.0f ; x += 2.0f)

	movss	xmm0, DWORD PTR __real@c0000000
	movss	DWORD PTR _x$[ebp], xmm0
	jmp	SHORT $LN34@PM_CreateS
$LN32@PM_CreateS:
	movss	xmm0, DWORD PTR _x$[ebp]
	addss	xmm0, DWORD PTR __real@40000000
	movss	DWORD PTR _x$[ebp], xmm0
$LN34@PM_CreateS:
	movss	xmm0, DWORD PTR __real@40000000
	comiss	xmm0, DWORD PTR _x$[ebp]
	jb	$LN33@PM_CreateS

; 3763 : 		{
; 3764 : 			for (y = -2.0f ; y <= 2.0f ; y += 2.0)

	movss	xmm0, DWORD PTR __real@c0000000
	movss	DWORD PTR _y$[ebp], xmm0
	jmp	SHORT $LN37@PM_CreateS
$LN35@PM_CreateS:
	cvtss2sd xmm0, DWORD PTR _y$[ebp]
	addsd	xmm0, QWORD PTR __real@4000000000000000
	cvtsd2ss xmm0, xmm0
	movss	DWORD PTR _y$[ebp], xmm0
$LN37@PM_CreateS:
	movss	xmm0, DWORD PTR __real@40000000
	comiss	xmm0, DWORD PTR _y$[ebp]
	jb	SHORT $LN36@PM_CreateS

; 3765 : 			{
; 3766 : 				rgv3tStuckTable[idx][0] = x;

	imul	ecx, DWORD PTR _idx$[ebp], 12
	add	ecx, OFFSET ?rgv3tStuckTable@@3PAVVector@@A
	call	??BVector@@QAEPAMXZ			; Vector::operator float *
	mov	ecx, 4
	imul	edx, ecx, 0
	movss	xmm0, DWORD PTR _x$[ebp]
	movss	DWORD PTR [eax+edx], xmm0

; 3767 : 				rgv3tStuckTable[idx][1] = y;

	imul	ecx, DWORD PTR _idx$[ebp], 12
	add	ecx, OFFSET ?rgv3tStuckTable@@3PAVVector@@A
	call	??BVector@@QAEPAMXZ			; Vector::operator float *
	mov	ecx, 4
	shl	ecx, 0
	movss	xmm0, DWORD PTR _y$[ebp]
	movss	DWORD PTR [eax+ecx], xmm0

; 3768 : 				rgv3tStuckTable[idx][2] = z;

	imul	ecx, DWORD PTR _idx$[ebp], 12
	add	ecx, OFFSET ?rgv3tStuckTable@@3PAVVector@@A
	call	??BVector@@QAEPAMXZ			; Vector::operator float *
	mov	ecx, 4
	shl	ecx, 1
	movss	xmm0, DWORD PTR _z$[ebp]
	movss	DWORD PTR [eax+ecx], xmm0

; 3769 : 				idx++;

	mov	eax, DWORD PTR _idx$[ebp]
	add	eax, 1
	mov	DWORD PTR _idx$[ebp], eax

; 3770 : 			}

	jmp	$LN35@PM_CreateS
$LN36@PM_CreateS:

; 3771 : 		}

	jmp	$LN32@PM_CreateS
$LN33@PM_CreateS:

; 3772 : 	}

	jmp	$LN29@PM_CreateS
$LN30@PM_CreateS:

; 3773 : 
; 3774 : 	assert( idx < sizeof( rgv3tStuckTable ) / sizeof( rgv3tStuckTable[0] ));

	cmp	DWORD PTR _idx$[ebp], 54		; 00000036H
	jb	SHORT $LN39@PM_CreateS
	mov	eax, DWORD PTR ?__LINE__Var@?0??PM_CreateStuckTable@@YAXXZ@4JA
	add	eax, 106				; 0000006aH
	push	eax
	push	OFFSET ??_C@_1JK@HGLHDLOI@?$AAd?$AA?3?$AA?2?$AA?$CB?$AAd?$AAi?$AAf?$AAf?$AAu?$AAs?$AAi?$AAo?$AAn?$AA?5?$AA2?$AA0?$AA2?$AA0?$AA?2?$AAs?$AAo?$AAu?$AAr?$AAc?$AAe?$AA?5?$AAc?$AAo?$AAd?$AAe?$AA?5?$AA2@
	push	OFFSET ??_C@_1HO@FIDBPDJD@?$AAi?$AAd?$AAx?$AA?5?$AA?$DM?$AA?5?$AAs?$AAi?$AAz?$AAe?$AAo?$AAf?$AA?$CI?$AA?5?$AAr?$AAg?$AAv?$AA3?$AAt?$AAS?$AAt?$AAu?$AAc?$AAk?$AAT?$AAa?$AAb?$AAl?$AAe?$AA?5?$AA?$CJ?$AA?5@
	call	__wassert
	add	esp, 12					; 0000000cH
$LN39@PM_CreateS:

; 3775 : }

	pop	edi
	pop	esi
	pop	ebx
	mov	ecx, DWORD PTR __$ArrayPad$[ebp]
	xor	ecx, ebp
	call	@__security_check_cookie@4
	mov	esp, ebp
	pop	ebp
	ret	0
?PM_CreateStuckTable@@YAXXZ ENDP			; PM_CreateStuckTable
_TEXT	ENDS
; Function compile flags: /Odtp /ZI
; File d:\!diffusion 2020\source code 2022\client-server\game_shared\playermove.cpp
;	COMDAT ?PM_PlayerMove@@YAXH@Z
_TEXT	SEGMENT
tv179 = -76						; size = 4
_LadderSound$ = -8					; size = 4
_pLadder$ = -4						; size = 4
_server$ = 8						; size = 4
?PM_PlayerMove@@YAXH@Z PROC				; PM_PlayerMove, COMDAT

; 3419 : {

	push	ebp
	mov	ebp, esp
	sub	esp, 76					; 0000004cH
	push	ebx
	push	esi
	push	edi

; 3420 : 	physent_t *pLadder = NULL;

	mov	DWORD PTR _pLadder$[ebp], 0

; 3421 : 
; 3422 : 	// Are we running server code?
; 3423 : 	pmove->server = server;       

	mov	eax, DWORD PTR ?pmove@@3PAUplayermove_s@@A ; pmove
	mov	ecx, DWORD PTR _server$[ebp]
	mov	DWORD PTR [eax+4], ecx

; 3424 : 
; 3425 : #ifndef CLIENT_DLL
; 3426 : 	if( g_fGameOver ) // diffusion
; 3427 : 		return;
; 3428 : #endif
; 3429 : 
; 3430 : 	// Adjust speeds etc.
; 3431 : 	PM_CheckParameters();

	call	?PM_CheckParameters@@YAXXZ		; PM_CheckParameters

; 3432 : 
; 3433 : 	// Assume we don't touch anything
; 3434 : 	pmove->numtouch = 0;                    

	mov	eax, DWORD PTR ?pmove@@3PAUplayermove_s@@A ; pmove
	mov	DWORD PTR [eax+283788], 0

; 3435 : 
; 3436 : 	// # of msec to apply movement
; 3437 : 	pmove->frametime = pmove->cmd.msec * 0.001;    

	mov	eax, DWORD PTR ?pmove@@3PAUplayermove_s@@A ; pmove
	movzx	ecx, BYTE PTR [eax+283738]
	cvtsi2sd xmm0, ecx
	mulsd	xmm0, QWORD PTR __real@3f50624dd2f1a9fc
	cvtsd2ss xmm0, xmm0
	mov	edx, DWORD PTR ?pmove@@3PAUplayermove_s@@A ; pmove
	movss	DWORD PTR [edx+16], xmm0

; 3438 : 
; 3439 : 	PM_ReduceTimers();

	call	?PM_ReduceTimers@@YAXXZ			; PM_ReduceTimers

; 3440 : 
; 3441 : 	// Convert view angles to vectors
; 3442 : 	AngleVectors( pmove->angles, pmove->forward, pmove->right, pmove->up );

	mov	ecx, DWORD PTR ?pmove@@3PAUplayermove_s@@A ; pmove
	add	ecx, 44					; 0000002cH
	call	??BVector@@QAEPAMXZ			; Vector::operator float *
	push	eax
	mov	ecx, DWORD PTR ?pmove@@3PAUplayermove_s@@A ; pmove
	add	ecx, 32					; 00000020H
	call	??BVector@@QAEPAMXZ			; Vector::operator float *
	push	eax
	mov	ecx, DWORD PTR ?pmove@@3PAUplayermove_s@@A ; pmove
	add	ecx, 20					; 00000014H
	call	??BVector@@QAEPAMXZ			; Vector::operator float *
	push	eax
	mov	ecx, DWORD PTR ?pmove@@3PAUplayermove_s@@A ; pmove
	add	ecx, 68					; 00000044H
	call	??BVector@@QAEPAMXZ			; Vector::operator float *
	push	eax
	call	DWORD PTR ?gEngfuncs@@3Ucl_enginefuncs_s@@A+96
	add	esp, 16					; 00000010H

; 3443 : 
; 3444 : 	// Special handling for spectator and observers. (iuser1 is set if the player's in observer mode)
; 3445 : 	if ( pmove->spectator || pmove->iuser1 > 0 )

	mov	eax, DWORD PTR ?pmove@@3PAUplayermove_s@@A ; pmove
	cmp	DWORD PTR [eax+216], 0
	jne	SHORT $LN5@PM_PlayerM
	mov	eax, DWORD PTR ?pmove@@3PAUplayermove_s@@A ; pmove
	cmp	DWORD PTR [eax+508], 0
	jle	SHORT $LN4@PM_PlayerM
$LN5@PM_PlayerM:

; 3446 : 	{
; 3447 : 		PM_SpectatorMove();

	call	?PM_SpectatorMove@@YAXXZ		; PM_SpectatorMove

; 3448 : 		PM_CategorizePosition();

	call	?PM_CategorizePosition@@YAXXZ		; PM_CategorizePosition

; 3449 : 		return;

	jmp	$LN1@PM_PlayerM
$LN4@PM_PlayerM:

; 3450 : 	}
; 3451 : 
; 3452 : 	// Always try and unstick us unless we are in NOCLIP mode
; 3453 : 	if( pmove->movetype != MOVETYPE_NOCLIP && pmove->movetype != MOVETYPE_NONE )

	mov	eax, DWORD PTR ?pmove@@3PAUplayermove_s@@A ; pmove
	cmp	DWORD PTR [eax+220], 8
	je	SHORT $LN7@PM_PlayerM
	mov	eax, DWORD PTR ?pmove@@3PAUplayermove_s@@A ; pmove
	cmp	DWORD PTR [eax+220], 0
	je	SHORT $LN7@PM_PlayerM

; 3454 : 	{
; 3455 : 		if( PM_CheckStuck() )

	call	?PM_CheckStuck@@YAHXZ			; PM_CheckStuck
	test	eax, eax
	je	SHORT $LN7@PM_PlayerM

; 3456 : 			return;  // Can't move, we're stuck

	jmp	$LN1@PM_PlayerM
$LN7@PM_PlayerM:

; 3457 : 	}
; 3458 : 
; 3459 : 	// Now that we are "unstuck", see where we are ( waterlevel and type, pmove->onground ).
; 3460 : 	PM_CategorizePosition();

	call	?PM_CategorizePosition@@YAXXZ		; PM_CategorizePosition

; 3461 : 
; 3462 : 	// Store off the starting water level
; 3463 : 	pmove->oldwaterlevel = pmove->waterlevel;

	mov	eax, DWORD PTR ?pmove@@3PAUplayermove_s@@A ; pmove
	mov	ecx, DWORD PTR ?pmove@@3PAUplayermove_s@@A ; pmove
	mov	edx, DWORD PTR [ecx+228]
	mov	DWORD PTR [eax+236], edx

; 3464 : 	if (pmove->watertype > CONTENT_FLYFIELD)

	mov	eax, DWORD PTR ?pmove@@3PAUplayermove_s@@A ; pmove
	cmp	DWORD PTR [eax+232], -17		; ffffffefH
	jle	SHORT $LN8@PM_PlayerM

; 3465 : 		pmove->oldwaterlevel = pmove->waterlevel;

	mov	eax, DWORD PTR ?pmove@@3PAUplayermove_s@@A ; pmove
	mov	ecx, DWORD PTR ?pmove@@3PAUplayermove_s@@A ; pmove
	mov	edx, DWORD PTR [ecx+228]
	mov	DWORD PTR [eax+236], edx

; 3466 : 	else

	jmp	SHORT $LN9@PM_PlayerM
$LN8@PM_PlayerM:

; 3467 : 		pmove->oldwaterlevel = 0;

	mov	eax, DWORD PTR ?pmove@@3PAUplayermove_s@@A ; pmove
	mov	DWORD PTR [eax+236], 0
$LN9@PM_PlayerM:

; 3468 : 
; 3469 : 	// If we are not on ground, store off how fast we are moving down
; 3470 : 	if( pmove->onground == -1 )

	mov	eax, DWORD PTR ?pmove@@3PAUplayermove_s@@A ; pmove
	cmp	DWORD PTR [eax+224], -1
	jne	SHORT $LN11@PM_PlayerM

; 3471 : 	{
; 3472 : 		pmove->flFallVelocity = -pmove->velocity[2];

	mov	ecx, DWORD PTR ?pmove@@3PAUplayermove_s@@A ; pmove
	add	ecx, 92					; 0000005cH
	call	??BVector@@QAEPAMXZ			; Vector::operator float *
	mov	ecx, 4
	shl	ecx, 1
	movss	xmm0, DWORD PTR [eax+ecx]
	xorps	xmm0, DWORD PTR __xmm@80000000800000008000000080000000
	mov	edx, DWORD PTR ?pmove@@3PAUplayermove_s@@A ; pmove
	movss	DWORD PTR [edx+156], xmm0

; 3473 : 		if( pmove->effects & EF_UPSIDEDOWN )

	mov	eax, DWORD PTR ?pmove@@3PAUplayermove_s@@A ; pmove
	mov	ecx, DWORD PTR [eax+180]
	and	ecx, 4194304				; 00400000H
	je	SHORT $LN11@PM_PlayerM

; 3474 : 			pmove->flFallVelocity *= -1;

	mov	eax, DWORD PTR ?pmove@@3PAUplayermove_s@@A ; pmove
	movss	xmm0, DWORD PTR [eax+156]
	mulss	xmm0, DWORD PTR __real@bf800000
	mov	ecx, DWORD PTR ?pmove@@3PAUplayermove_s@@A ; pmove
	movss	DWORD PTR [ecx+156], xmm0
$LN11@PM_PlayerM:

; 3475 : 	}
; 3476 : 
; 3477 : 	g_onladder = 0;

	mov	DWORD PTR ?g_onladder@@3HA, 0		; g_onladder

; 3478 : 	int LadderSound = 0;

	mov	DWORD PTR _LadderSound$[ebp], 0

; 3479 : 
; 3480 : 	// Don't run ladder code if dead or on a train
; 3481 : 	if ( !pmove->dead && !(pmove->flags & FL_ONTRAIN) )

	mov	eax, DWORD PTR ?pmove@@3PAUplayermove_s@@A ; pmove
	cmp	DWORD PTR [eax+208], 0
	jne	SHORT $LN13@PM_PlayerM
	mov	eax, DWORD PTR ?pmove@@3PAUplayermove_s@@A ; pmove
	mov	ecx, DWORD PTR [eax+184]
	and	ecx, 16777216				; 01000000H
	jne	SHORT $LN13@PM_PlayerM

; 3482 : 	{
; 3483 : 		pLadder = PM_Ladder();

	call	?PM_Ladder@@YAPAUphysent_s@@XZ		; PM_Ladder
	mov	DWORD PTR _pLadder$[ebp], eax

; 3484 : 		if( pLadder )

	cmp	DWORD PTR _pLadder$[ebp], 0
	je	SHORT $LN13@PM_PlayerM

; 3485 : 		{
; 3486 : 			g_onladder = 1;

	mov	DWORD PTR ?g_onladder@@3HA, 1		; g_onladder

; 3487 : 			LadderSound = pLadder->iuser1;

	mov	eax, DWORD PTR _pLadder$[ebp]
	mov	ecx, DWORD PTR [eax+144]
	mov	DWORD PTR _LadderSound$[ebp], ecx
$LN13@PM_PlayerM:

; 3488 : 		}
; 3489 : 	}
; 3490 : 
; 3491 : 	PM_UpdateStepSound( LadderSound );

	mov	eax, DWORD PTR _LadderSound$[ebp]
	push	eax
	call	?PM_UpdateStepSound@@YAXH@Z		; PM_UpdateStepSound
	add	esp, 4

; 3492 : 
; 3493 : 	if( pmove->movetype == MOVETYPE_NOCLIP ) // diffusion

	mov	eax, DWORD PTR ?pmove@@3PAUplayermove_s@@A ; pmove
	cmp	DWORD PTR [eax+220], 8
	jne	SHORT $LN14@PM_PlayerM

; 3494 : 		PM_UnDuck();

	call	?PM_UnDuck@@YAXXZ			; PM_UnDuck

; 3495 : 	else

	jmp	SHORT $LN15@PM_PlayerM
$LN14@PM_PlayerM:

; 3496 : 		PM_Duck();

	call	?PM_Duck@@YAXXZ				; PM_Duck
$LN15@PM_PlayerM:

; 3497 : 	
; 3498 : 	// Don't run ladder code if dead or on a train
; 3499 : 	if ( !pmove->dead && !(pmove->flags & FL_ONTRAIN) )

	mov	eax, DWORD PTR ?pmove@@3PAUplayermove_s@@A ; pmove
	cmp	DWORD PTR [eax+208], 0
	jne	SHORT $LN19@PM_PlayerM
	mov	eax, DWORD PTR ?pmove@@3PAUplayermove_s@@A ; pmove
	mov	ecx, DWORD PTR [eax+184]
	and	ecx, 16777216				; 01000000H
	jne	SHORT $LN19@PM_PlayerM

; 3500 : 	{
; 3501 : 		if ( pLadder )

	cmp	DWORD PTR _pLadder$[ebp], 0
	je	SHORT $LN17@PM_PlayerM

; 3502 : 			PM_LadderMove( pLadder );

	mov	eax, DWORD PTR _pLadder$[ebp]
	push	eax
	call	?PM_LadderMove@@YAXPAUphysent_s@@@Z	; PM_LadderMove
	add	esp, 4
	jmp	SHORT $LN19@PM_PlayerM
$LN17@PM_PlayerM:

; 3503 : 		else if ( pmove->movetype != MOVETYPE_WALK && pmove->movetype != MOVETYPE_NOCLIP && pmove->movetype != MOVETYPE_NONE )

	mov	eax, DWORD PTR ?pmove@@3PAUplayermove_s@@A ; pmove
	cmp	DWORD PTR [eax+220], 3
	je	SHORT $LN19@PM_PlayerM
	mov	eax, DWORD PTR ?pmove@@3PAUplayermove_s@@A ; pmove
	cmp	DWORD PTR [eax+220], 8
	je	SHORT $LN19@PM_PlayerM
	mov	eax, DWORD PTR ?pmove@@3PAUplayermove_s@@A ; pmove
	cmp	DWORD PTR [eax+220], 0
	je	SHORT $LN19@PM_PlayerM

; 3504 : 		{
; 3505 : 			// Clear ladder stuff unless player is noclipping
; 3506 : 			//  it will be set immediately again next frame if necessary
; 3507 : 			pmove->movetype = MOVETYPE_WALK;

	mov	eax, DWORD PTR ?pmove@@3PAUplayermove_s@@A ; pmove
	mov	DWORD PTR [eax+220], 3
$LN19@PM_PlayerM:

; 3508 : 		}
; 3509 : 	}
; 3510 : 
; 3511 : /*	// Slow down, I'm pulling it! (a box maybe) but only when I'm standing on ground
; 3512 : 	if ( ( pmove->onground != -1 ) && ( pmove->cmd.buttons & IN_USE) )
; 3513 : 	{
; 3514 : 		pmove->velocity *= 0.3f;
; 3515 : 	}
; 3516 : */
; 3517 : 	// Handle movement
; 3518 : 	switch ( pmove->movetype )

	mov	eax, DWORD PTR ?pmove@@3PAUplayermove_s@@A ; pmove
	mov	ecx, DWORD PTR [eax+220]
	mov	DWORD PTR tv179[ebp], ecx
	cmp	DWORD PTR tv179[ebp], 10		; 0000000aH
	ja	SHORT $LN20@PM_PlayerM
	mov	edx, DWORD PTR tv179[ebp]
	movzx	eax, BYTE PTR $LN49@PM_PlayerM[edx]
	jmp	DWORD PTR $LN50@PM_PlayerM[eax*4]
$LN20@PM_PlayerM:

; 3519 : 	{
; 3520 : 	default:
; 3521 : 		pmove->Con_DPrintf("Bogus pmove player movetype %i on (%i) 0=cl 1=sv\n", pmove->movetype, pmove->server);

	mov	eax, DWORD PTR ?pmove@@3PAUplayermove_s@@A ; pmove
	mov	ecx, DWORD PTR [eax+4]
	push	ecx
	mov	edx, DWORD PTR ?pmove@@3PAUplayermove_s@@A ; pmove
	mov	eax, DWORD PTR [edx+220]
	push	eax
	push	OFFSET ??_C@_0DC@MKOCNFCM@Bogus?5pmove?5player?5movetype?5?$CFi?5o@
	mov	ecx, DWORD PTR ?pmove@@3PAUplayermove_s@@A ; pmove
	mov	edx, DWORD PTR [ecx+324964]
	call	edx
	add	esp, 12					; 0000000cH

; 3522 : 		break;

	jmp	$LN2@PM_PlayerM
$LN21@PM_PlayerM:

; 3523 : 
; 3524 : 	case MOVETYPE_NONE:
; 3525 : 		break;

	jmp	$LN2@PM_PlayerM
$LN22@PM_PlayerM:

; 3526 : 
; 3527 : 	case MOVETYPE_NOCLIP:
; 3528 : 		PM_NoClip();

	call	?PM_NoClip@@YAXXZ			; PM_NoClip

; 3529 : 		break;

	jmp	$LN2@PM_PlayerM
$LN23@PM_PlayerM:

; 3530 : 
; 3531 : 	case MOVETYPE_TOSS:
; 3532 : 	case MOVETYPE_BOUNCE:
; 3533 : 		PM_Physics_Toss();

	call	?PM_Physics_Toss@@YAXXZ			; PM_Physics_Toss

; 3534 : 		break;

	jmp	$LN2@PM_PlayerM
$LN24@PM_PlayerM:

; 3535 : 
; 3536 : 	case MOVETYPE_FLY:
; 3537 : 	
; 3538 : 		PM_CheckWater();

	call	?PM_CheckWater@@YAHXZ			; PM_CheckWater

; 3539 : 
; 3540 : 		// Was jump button pressed?
; 3541 : 		// If so, set velocity to 270 away from ladder.  This is currently wrong.
; 3542 : 		// Also, set MOVE_TYPE to walk, too.
; 3543 : 		if ( pmove->cmd.buttons & IN_JUMP )

	mov	eax, DWORD PTR ?pmove@@3PAUplayermove_s@@A ; pmove
	movzx	ecx, WORD PTR [eax+283766]
	and	ecx, 2
	je	SHORT $LN25@PM_PlayerM

; 3544 : 		{
; 3545 : 			if ( !pLadder )

	cmp	DWORD PTR _pLadder$[ebp], 0
	jne	SHORT $LN27@PM_PlayerM

; 3546 : 				PM_Jump ();

	call	?PM_Jump@@YAXXZ				; PM_Jump
$LN27@PM_PlayerM:

; 3547 : 		}
; 3548 : 		else

	jmp	SHORT $LN26@PM_PlayerM
$LN25@PM_PlayerM:

; 3549 : 			pmove->oldbuttons &= ~IN_JUMP;

	mov	eax, DWORD PTR ?pmove@@3PAUplayermove_s@@A ; pmove
	mov	ecx, DWORD PTR [eax+200]
	and	ecx, -3					; fffffffdH
	mov	edx, DWORD PTR ?pmove@@3PAUplayermove_s@@A ; pmove
	mov	DWORD PTR [edx+200], ecx
$LN26@PM_PlayerM:

; 3550 : 		
; 3551 : 		// perform the move accounting for any base velocity.
; 3552 : 		pmove->velocity += pmove->basevelocity;

	mov	eax, DWORD PTR ?pmove@@3PAUplayermove_s@@A ; pmove
	add	eax, 116				; 00000074H
	push	eax
	mov	ecx, DWORD PTR ?pmove@@3PAUplayermove_s@@A ; pmove
	add	ecx, 92					; 0000005cH
	call	??YVector@@QAEAAV0@ABV0@@Z		; Vector::operator+=

; 3553 : 
; 3554 : 		PM_FlyMove();

	call	?PM_FlyMove@@YAHXZ			; PM_FlyMove

; 3555 : 
; 3556 : 		pmove->velocity -= pmove->basevelocity;

	mov	eax, DWORD PTR ?pmove@@3PAUplayermove_s@@A ; pmove
	add	eax, 116				; 00000074H
	push	eax
	mov	ecx, DWORD PTR ?pmove@@3PAUplayermove_s@@A ; pmove
	add	ecx, 92					; 0000005cH
	call	??ZVector@@QAEAAV0@ABV0@@Z		; Vector::operator-=

; 3557 : 		break;

	jmp	$LN2@PM_PlayerM
$LN28@PM_PlayerM:

; 3558 : 
; 3559 : 	case MOVETYPE_WALK:
; 3560 : 		if ( !PM_InWater() )

	call	?PM_InWater@@YAHXZ			; PM_InWater
	test	eax, eax
	jne	SHORT $LN29@PM_PlayerM

; 3561 : 			PM_AddCorrectGravity();

	call	?PM_AddCorrectGravity@@YAXXZ		; PM_AddCorrectGravity
$LN29@PM_PlayerM:

; 3562 : 
; 3563 : 		// If we are leaping out of the water, just update the counters.
; 3564 : 		if ( pmove->waterjumptime )

	mov	eax, DWORD PTR ?pmove@@3PAUplayermove_s@@A ; pmove
	movss	xmm0, DWORD PTR [eax+204]
	ucomiss	xmm0, DWORD PTR __real@00000000
	lahf
	test	ah, 68					; 00000044H
	jnp	SHORT $LN30@PM_PlayerM

; 3565 : 		{
; 3566 : 			PM_WaterJump();

	call	?PM_WaterJump@@YAXXZ			; PM_WaterJump

; 3567 : 			PM_FlyMove();

	call	?PM_FlyMove@@YAHXZ			; PM_FlyMove

; 3568 : 
; 3569 : 			// Make sure waterlevel is set correctly
; 3570 : 			PM_CheckWater();

	call	?PM_CheckWater@@YAHXZ			; PM_CheckWater

; 3571 : 			return;

	jmp	$LN1@PM_PlayerM
$LN30@PM_PlayerM:

; 3572 : 		}
; 3573 : 
; 3574 : 		// If we are swimming in the water, see if we are nudging against a place we can jump up out
; 3575 : 		//  of, and, if so, start out jump.  Otherwise, if we are not moving up, then reset jump timer to 0
; 3576 : 		if ( pmove->waterlevel >= 2 && pmove->watertype != CONTENT_FOG) 

	mov	eax, DWORD PTR ?pmove@@3PAUplayermove_s@@A ; pmove
	cmp	DWORD PTR [eax+228], 2
	jl	$LN31@PM_PlayerM
	mov	eax, DWORD PTR ?pmove@@3PAUplayermove_s@@A ; pmove
	cmp	DWORD PTR [eax+232], -19		; ffffffedH
	je	$LN31@PM_PlayerM

; 3577 : 		{
; 3578 : 			if ( pmove->waterlevel == 2 )

	mov	eax, DWORD PTR ?pmove@@3PAUplayermove_s@@A ; pmove
	cmp	DWORD PTR [eax+228], 2
	jne	SHORT $LN33@PM_PlayerM

; 3579 : 				PM_CheckWaterJump();

	call	?PM_CheckWaterJump@@YAXXZ		; PM_CheckWaterJump
$LN33@PM_PlayerM:

; 3580 : 
; 3581 : 			// If we are falling again, then we must not trying to jump out of water any more.
; 3582 : 			if( pmove->effects & EF_UPSIDEDOWN )

	mov	eax, DWORD PTR ?pmove@@3PAUplayermove_s@@A ; pmove
	mov	ecx, DWORD PTR [eax+180]
	and	ecx, 4194304				; 00400000H
	je	SHORT $LN34@PM_PlayerM

; 3583 : 			{
; 3584 : 				if( pmove->velocity[2] > 0 && pmove->waterjumptime )

	mov	ecx, DWORD PTR ?pmove@@3PAUplayermove_s@@A ; pmove
	add	ecx, 92					; 0000005cH
	call	??BVector@@QAEPAMXZ			; Vector::operator float *
	mov	ecx, 4
	shl	ecx, 1
	movss	xmm0, DWORD PTR [eax+ecx]
	comiss	xmm0, DWORD PTR __real@00000000
	jbe	SHORT $LN36@PM_PlayerM
	mov	eax, DWORD PTR ?pmove@@3PAUplayermove_s@@A ; pmove
	movss	xmm0, DWORD PTR [eax+204]
	ucomiss	xmm0, DWORD PTR __real@00000000
	lahf
	test	ah, 68					; 00000044H
	jnp	SHORT $LN36@PM_PlayerM

; 3585 : 					pmove->waterjumptime = 0;

	mov	eax, DWORD PTR ?pmove@@3PAUplayermove_s@@A ; pmove
	xorps	xmm0, xmm0
	movss	DWORD PTR [eax+204], xmm0
$LN36@PM_PlayerM:

; 3586 : 			}
; 3587 : 			else

	jmp	SHORT $LN37@PM_PlayerM
$LN34@PM_PlayerM:

; 3588 : 			{
; 3589 : 				if( pmove->velocity[2] < 0 && pmove->waterjumptime )

	mov	ecx, DWORD PTR ?pmove@@3PAUplayermove_s@@A ; pmove
	add	ecx, 92					; 0000005cH
	call	??BVector@@QAEPAMXZ			; Vector::operator float *
	mov	ecx, 4
	shl	ecx, 1
	xorps	xmm0, xmm0
	comiss	xmm0, DWORD PTR [eax+ecx]
	jbe	SHORT $LN37@PM_PlayerM
	mov	eax, DWORD PTR ?pmove@@3PAUplayermove_s@@A ; pmove
	movss	xmm0, DWORD PTR [eax+204]
	ucomiss	xmm0, DWORD PTR __real@00000000
	lahf
	test	ah, 68					; 00000044H
	jnp	SHORT $LN37@PM_PlayerM

; 3590 : 					pmove->waterjumptime = 0;

	mov	eax, DWORD PTR ?pmove@@3PAUplayermove_s@@A ; pmove
	xorps	xmm0, xmm0
	movss	DWORD PTR [eax+204], xmm0
$LN37@PM_PlayerM:

; 3591 : 			}
; 3592 : 
; 3593 : 			// Was jump button pressed?
; 3594 : 			if( pmove->cmd.buttons & IN_JUMP )

	mov	eax, DWORD PTR ?pmove@@3PAUplayermove_s@@A ; pmove
	movzx	ecx, WORD PTR [eax+283766]
	and	ecx, 2
	je	SHORT $LN38@PM_PlayerM

; 3595 : 				PM_Jump ();

	call	?PM_Jump@@YAXXZ				; PM_Jump

; 3596 : 			else

	jmp	SHORT $LN39@PM_PlayerM
$LN38@PM_PlayerM:

; 3597 : 				pmove->oldbuttons &= ~IN_JUMP;

	mov	eax, DWORD PTR ?pmove@@3PAUplayermove_s@@A ; pmove
	mov	ecx, DWORD PTR [eax+200]
	and	ecx, -3					; fffffffdH
	mov	edx, DWORD PTR ?pmove@@3PAUplayermove_s@@A ; pmove
	mov	DWORD PTR [edx+200], ecx
$LN39@PM_PlayerM:

; 3598 : 
; 3599 : 			// Perform regular water movement
; 3600 : 			PM_WaterMove();

	call	?PM_WaterMove@@YAXXZ			; PM_WaterMove

; 3601 : 			
; 3602 : 			pmove->velocity -= pmove->basevelocity;

	mov	eax, DWORD PTR ?pmove@@3PAUplayermove_s@@A ; pmove
	add	eax, 116				; 00000074H
	push	eax
	mov	ecx, DWORD PTR ?pmove@@3PAUplayermove_s@@A ; pmove
	add	ecx, 92					; 0000005cH
	call	??ZVector@@QAEAAV0@ABV0@@Z		; Vector::operator-=

; 3603 : 
; 3604 : 			// Get a final position
; 3605 : 			PM_CategorizePosition();

	call	?PM_CategorizePosition@@YAXXZ		; PM_CategorizePosition

; 3606 : 		}
; 3607 : 		else

	jmp	$LN32@PM_PlayerM
$LN31@PM_PlayerM:

; 3608 : 
; 3609 : 		// Not underwater
; 3610 : 		{
; 3611 : 			// Was jump button pressed?
; 3612 : 			if ( pmove->cmd.buttons & IN_JUMP )

	mov	eax, DWORD PTR ?pmove@@3PAUplayermove_s@@A ; pmove
	movzx	ecx, WORD PTR [eax+283766]
	and	ecx, 2
	je	SHORT $LN40@PM_PlayerM

; 3613 : 			{
; 3614 : 				if ( !pLadder )

	cmp	DWORD PTR _pLadder$[ebp], 0
	jne	SHORT $LN42@PM_PlayerM

; 3615 : 					PM_Jump ();

	call	?PM_Jump@@YAXXZ				; PM_Jump
$LN42@PM_PlayerM:

; 3616 : 			}
; 3617 : 			else

	jmp	SHORT $LN41@PM_PlayerM
$LN40@PM_PlayerM:

; 3618 : 				pmove->oldbuttons &= ~IN_JUMP;

	mov	eax, DWORD PTR ?pmove@@3PAUplayermove_s@@A ; pmove
	mov	ecx, DWORD PTR [eax+200]
	and	ecx, -3					; fffffffdH
	mov	edx, DWORD PTR ?pmove@@3PAUplayermove_s@@A ; pmove
	mov	DWORD PTR [edx+200], ecx
$LN41@PM_PlayerM:

; 3619 : 
; 3620 : 			// Fricion is handled before we add in any base velocity. That way, if we are on a conveyor, 
; 3621 : 			//  we don't slow when standing still, relative to the conveyor.
; 3622 : 			if ( pmove->onground != -1 )

	mov	eax, DWORD PTR ?pmove@@3PAUplayermove_s@@A ; pmove
	cmp	DWORD PTR [eax+224], -1
	je	SHORT $LN43@PM_PlayerM

; 3623 : 			{
; 3624 : 				pmove->velocity[2] = 0.0;

	mov	ecx, DWORD PTR ?pmove@@3PAUplayermove_s@@A ; pmove
	add	ecx, 92					; 0000005cH
	call	??BVector@@QAEPAMXZ			; Vector::operator float *
	mov	ecx, 4
	shl	ecx, 1
	xorps	xmm0, xmm0
	movss	DWORD PTR [eax+ecx], xmm0

; 3625 : 				PM_Friction();

	call	?PM_Friction@@YAXXZ			; PM_Friction
$LN43@PM_PlayerM:

; 3626 : 			}
; 3627 : 
; 3628 : 			// Make sure velocity is valid.
; 3629 : 			PM_CheckVelocity();

	call	?PM_CheckVelocity@@YAXXZ		; PM_CheckVelocity

; 3630 : 
; 3631 : 			// Are we on ground now
; 3632 : 			if ( pmove->onground != -1 )

	mov	eax, DWORD PTR ?pmove@@3PAUplayermove_s@@A ; pmove
	cmp	DWORD PTR [eax+224], -1
	je	SHORT $LN44@PM_PlayerM

; 3633 : 				PM_WalkMove();

	call	?PM_WalkMove@@YAXXZ			; PM_WalkMove

; 3634 : 			else

	jmp	SHORT $LN45@PM_PlayerM
$LN44@PM_PlayerM:

; 3635 : 				PM_AirMove();  // Take into account movement when in air.

	call	?PM_AirMove@@YAXXZ			; PM_AirMove
$LN45@PM_PlayerM:

; 3636 : 
; 3637 : 			// Set final flags.
; 3638 : 			PM_CategorizePosition();

	call	?PM_CategorizePosition@@YAXXZ		; PM_CategorizePosition

; 3639 : 
; 3640 : 			// Now pull the base velocity back out.
; 3641 : 			// Base velocity is set if you are on a moving object, like
; 3642 : 			//  a conveyor (or maybe another monster?)
; 3643 : 			pmove->velocity -= pmove->basevelocity;

	mov	eax, DWORD PTR ?pmove@@3PAUplayermove_s@@A ; pmove
	add	eax, 116				; 00000074H
	push	eax
	mov	ecx, DWORD PTR ?pmove@@3PAUplayermove_s@@A ; pmove
	add	ecx, 92					; 0000005cH
	call	??ZVector@@QAEAAV0@ABV0@@Z		; Vector::operator-=

; 3644 : 				
; 3645 : 			// Make sure velocity is valid.
; 3646 : 			PM_CheckVelocity();

	call	?PM_CheckVelocity@@YAXXZ		; PM_CheckVelocity

; 3647 : 
; 3648 : 			// Add any remaining gravitational component.
; 3649 : 			if ( !PM_InWater() )

	call	?PM_InWater@@YAHXZ			; PM_InWater
	test	eax, eax
	jne	SHORT $LN46@PM_PlayerM

; 3650 : 				PM_FixupGravityVelocity();

	call	?PM_FixupGravityVelocity@@YAXXZ		; PM_FixupGravityVelocity
$LN46@PM_PlayerM:

; 3651 : 
; 3652 : 			// If we are on ground, no downward velocity.
; 3653 : 			if ( pmove->onground != -1 )

	mov	eax, DWORD PTR ?pmove@@3PAUplayermove_s@@A ; pmove
	cmp	DWORD PTR [eax+224], -1
	je	SHORT $LN47@PM_PlayerM

; 3654 : 				pmove->velocity[2] = 0;

	mov	ecx, DWORD PTR ?pmove@@3PAUplayermove_s@@A ; pmove
	add	ecx, 92					; 0000005cH
	call	??BVector@@QAEPAMXZ			; Vector::operator float *
	mov	ecx, 4
	shl	ecx, 1
	xorps	xmm0, xmm0
	movss	DWORD PTR [eax+ecx], xmm0
$LN47@PM_PlayerM:

; 3655 : 
; 3656 : 			// See if we landed on the ground with enough force to play
; 3657 : 			//  a landing sound.
; 3658 : 			PM_CheckFalling();

	call	?PM_CheckFalling@@YAXXZ			; PM_CheckFalling
$LN32@PM_PlayerM:

; 3659 : 		}
; 3660 : 
; 3661 : 		// Did we enter or leave the water?
; 3662 : 		PM_PlayWaterSounds();

	call	?PM_PlayWaterSounds@@YAXXZ		; PM_PlayWaterSounds
$LN2@PM_PlayerM:
$LN1@PM_PlayerM:

; 3663 : 		break;
; 3664 : 	}
; 3665 : }

	pop	edi
	pop	esi
	pop	ebx
	mov	esp, ebp
	pop	ebp
	ret	0
	npad	1
$LN50@PM_PlayerM:
	DD	$LN21@PM_PlayerM
	DD	$LN28@PM_PlayerM
	DD	$LN24@PM_PlayerM
	DD	$LN23@PM_PlayerM
	DD	$LN22@PM_PlayerM
	DD	$LN20@PM_PlayerM
$LN49@PM_PlayerM:
	DB	0
	DB	5
	DB	5
	DB	1
	DB	5
	DB	2
	DB	3
	DB	5
	DB	4
	DB	5
	DB	3
?PM_PlayerMove@@YAXH@Z ENDP				; PM_PlayerMove
_TEXT	ENDS
; Function compile flags: /Odtp /ZI
; File d:\!diffusion 2020\source code 2022\client-server\game_shared\playermove.cpp
;	COMDAT ?PM_ReduceTimers@@YAXXZ
_TEXT	SEGMENT
?PM_ReduceTimers@@YAXXZ PROC				; PM_ReduceTimers, COMDAT

; 3387 : {

	push	ebp
	mov	ebp, esp
	sub	esp, 64					; 00000040H
	push	ebx
	push	esi
	push	edi

; 3388 : 	if ( pmove->flTimeStepSound > 0 )

	mov	eax, DWORD PTR ?pmove@@3PAUplayermove_s@@A ; pmove
	cmp	DWORD PTR [eax+148], 0
	jle	SHORT $LN3@PM_ReduceT

; 3389 : 	{
; 3390 : 		pmove->flTimeStepSound -= pmove->cmd.msec;

	mov	eax, DWORD PTR ?pmove@@3PAUplayermove_s@@A ; pmove
	movzx	ecx, BYTE PTR [eax+283738]
	mov	edx, DWORD PTR ?pmove@@3PAUplayermove_s@@A ; pmove
	mov	eax, DWORD PTR [edx+148]
	sub	eax, ecx
	mov	ecx, DWORD PTR ?pmove@@3PAUplayermove_s@@A ; pmove
	mov	DWORD PTR [ecx+148], eax

; 3391 : 		if ( pmove->flTimeStepSound < 0 )

	mov	eax, DWORD PTR ?pmove@@3PAUplayermove_s@@A ; pmove
	cmp	DWORD PTR [eax+148], 0
	jge	SHORT $LN3@PM_ReduceT

; 3392 : 			pmove->flTimeStepSound = 0;

	mov	eax, DWORD PTR ?pmove@@3PAUplayermove_s@@A ; pmove
	mov	DWORD PTR [eax+148], 0
$LN3@PM_ReduceT:

; 3393 : 	}
; 3394 : 	if ( pmove->flDuckTime > 0 )

	mov	eax, DWORD PTR ?pmove@@3PAUplayermove_s@@A ; pmove
	movss	xmm0, DWORD PTR [eax+140]
	comiss	xmm0, DWORD PTR __real@00000000
	jbe	SHORT $LN5@PM_ReduceT

; 3395 : 	{
; 3396 : 		pmove->flDuckTime -= pmove->cmd.msec;

	mov	eax, DWORD PTR ?pmove@@3PAUplayermove_s@@A ; pmove
	movzx	ecx, BYTE PTR [eax+283738]
	cvtsi2ss xmm0, ecx
	mov	edx, DWORD PTR ?pmove@@3PAUplayermove_s@@A ; pmove
	movss	xmm1, DWORD PTR [edx+140]
	subss	xmm1, xmm0
	mov	eax, DWORD PTR ?pmove@@3PAUplayermove_s@@A ; pmove
	movss	DWORD PTR [eax+140], xmm1

; 3397 : 		if ( pmove->flDuckTime < 0 )

	mov	eax, DWORD PTR ?pmove@@3PAUplayermove_s@@A ; pmove
	xorps	xmm0, xmm0
	comiss	xmm0, DWORD PTR [eax+140]
	jbe	SHORT $LN5@PM_ReduceT

; 3398 : 			pmove->flDuckTime = 0;

	mov	eax, DWORD PTR ?pmove@@3PAUplayermove_s@@A ; pmove
	xorps	xmm0, xmm0
	movss	DWORD PTR [eax+140], xmm0
$LN5@PM_ReduceT:

; 3399 : 	}
; 3400 : 	if ( pmove->flSwimTime > 0 )

	mov	eax, DWORD PTR ?pmove@@3PAUplayermove_s@@A ; pmove
	movss	xmm0, DWORD PTR [eax+172]
	comiss	xmm0, DWORD PTR __real@00000000
	jbe	SHORT $LN7@PM_ReduceT

; 3401 : 	{
; 3402 : 		pmove->flSwimTime -= pmove->cmd.msec;

	mov	eax, DWORD PTR ?pmove@@3PAUplayermove_s@@A ; pmove
	movzx	ecx, BYTE PTR [eax+283738]
	cvtsi2ss xmm0, ecx
	mov	edx, DWORD PTR ?pmove@@3PAUplayermove_s@@A ; pmove
	movss	xmm1, DWORD PTR [edx+172]
	subss	xmm1, xmm0
	mov	eax, DWORD PTR ?pmove@@3PAUplayermove_s@@A ; pmove
	movss	DWORD PTR [eax+172], xmm1

; 3403 : 		if ( pmove->flSwimTime < 0 )

	mov	eax, DWORD PTR ?pmove@@3PAUplayermove_s@@A ; pmove
	xorps	xmm0, xmm0
	comiss	xmm0, DWORD PTR [eax+172]
	jbe	SHORT $LN7@PM_ReduceT

; 3404 : 			pmove->flSwimTime = 0;

	mov	eax, DWORD PTR ?pmove@@3PAUplayermove_s@@A ; pmove
	xorps	xmm0, xmm0
	movss	DWORD PTR [eax+172], xmm0
$LN7@PM_ReduceT:

; 3405 : 	}
; 3406 : }

	pop	edi
	pop	esi
	pop	ebx
	mov	esp, ebp
	pop	ebp
	ret	0
?PM_ReduceTimers@@YAXXZ ENDP				; PM_ReduceTimers
_TEXT	ENDS
; Function compile flags: /Odtp /ZI
; File d:\!diffusion 2020\source code 2022\client-server\game_shared\playermove.cpp
;	COMDAT ?PM_CheckParameters@@YAXXZ
_TEXT	SEGMENT
tv391 = -104						; size = 4
tv359 = -100						; size = 4
tv255 = -100						; size = 4
tv128 = -100						; size = 4
_fRatio$1 = -24						; size = 4
_v_angle$ = -20						; size = 12
_maxspeed$ = -8						; size = 4
_spd$ = -4						; size = 4
?PM_CheckParameters@@YAXXZ PROC				; PM_CheckParameters, COMDAT

; 3320 : {

	push	ebp
	mov	ebp, esp
	sub	esp, 104				; 00000068H
	push	ebx
	push	esi
	push	edi

; 3321 : 	float spd;
; 3322 : 	float maxspeed;
; 3323 : 	Vector	v_angle;

	lea	ecx, DWORD PTR _v_angle$[ebp]
	call	??0Vector@@QAE@XZ			; Vector::Vector

; 3324 : 
; 3325 : 	// clear stuck flag for each frame
; 3326 : 	pmove->flags &= ~FL_STUCKED;

	mov	eax, DWORD PTR ?pmove@@3PAUplayermove_s@@A ; pmove
	mov	ecx, DWORD PTR [eax+184]
	and	ecx, -134217729				; f7ffffffH
	mov	edx, DWORD PTR ?pmove@@3PAUplayermove_s@@A ; pmove
	mov	DWORD PTR [edx+184], ecx

; 3327 : 
; 3328 : 	spd = ( pmove->cmd.forwardmove * pmove->cmd.forwardmove ) +

	mov	eax, DWORD PTR ?pmove@@3PAUplayermove_s@@A ; pmove
	mov	ecx, DWORD PTR ?pmove@@3PAUplayermove_s@@A ; pmove
	movss	xmm0, DWORD PTR [eax+283752]
	mulss	xmm0, DWORD PTR [ecx+283752]
	mov	edx, DWORD PTR ?pmove@@3PAUplayermove_s@@A ; pmove
	mov	eax, DWORD PTR ?pmove@@3PAUplayermove_s@@A ; pmove
	movss	xmm1, DWORD PTR [edx+283756]
	mulss	xmm1, DWORD PTR [eax+283756]
	addss	xmm0, xmm1
	mov	ecx, DWORD PTR ?pmove@@3PAUplayermove_s@@A ; pmove
	mov	edx, DWORD PTR ?pmove@@3PAUplayermove_s@@A ; pmove
	movss	xmm1, DWORD PTR [ecx+283760]
	mulss	xmm1, DWORD PTR [edx+283760]
	addss	xmm0, xmm1
	movss	DWORD PTR _spd$[ebp], xmm0

; 3329 : 		  ( pmove->cmd.sidemove * pmove->cmd.sidemove ) +
; 3330 : 		  ( pmove->cmd.upmove * pmove->cmd.upmove );
; 3331 : 	spd = sqrt( spd );

	cvtss2sd xmm0, DWORD PTR _spd$[ebp]
	sub	esp, 8
	movsd	QWORD PTR [esp], xmm0
	call	_sqrt
	add	esp, 8
	fstp	DWORD PTR _spd$[ebp]

; 3332 : 
; 3333 : 	maxspeed = pmove->clientmaxspeed; //atof( pmove->PM_Info_ValueForKey( pmove->physinfo, "maxspd" ) );

	mov	eax, DWORD PTR ?pmove@@3PAUplayermove_s@@A ; pmove
	movss	xmm0, DWORD PTR [eax+504]
	movss	DWORD PTR _maxspeed$[ebp], xmm0

; 3334 : 	if ( maxspeed != 0.0 )

	cvtss2sd xmm0, DWORD PTR _maxspeed$[ebp]
	ucomisd	xmm0, QWORD PTR __real@0000000000000000
	lahf
	test	ah, 68					; 00000044H
	jnp	SHORT $LN2@PM_CheckPa

; 3335 : 		pmove->maxspeed = min( maxspeed, pmove->maxspeed );

	mov	eax, DWORD PTR ?pmove@@3PAUplayermove_s@@A ; pmove
	movss	xmm0, DWORD PTR [eax+500]
	comiss	xmm0, DWORD PTR _maxspeed$[ebp]
	jbe	SHORT $LN12@PM_CheckPa
	movss	xmm0, DWORD PTR _maxspeed$[ebp]
	movss	DWORD PTR tv128[ebp], xmm0
	jmp	SHORT $LN13@PM_CheckPa
$LN12@PM_CheckPa:
	mov	ecx, DWORD PTR ?pmove@@3PAUplayermove_s@@A ; pmove
	movss	xmm0, DWORD PTR [ecx+500]
	movss	DWORD PTR tv128[ebp], xmm0
$LN13@PM_CheckPa:
	mov	edx, DWORD PTR ?pmove@@3PAUplayermove_s@@A ; pmove
	movss	xmm0, DWORD PTR tv128[ebp]
	movss	DWORD PTR [edx+500], xmm0
$LN2@PM_CheckPa:

; 3336 : 
; 3337 : 	if ( ( spd != 0.0 ) &&

	cvtss2sd xmm0, DWORD PTR _spd$[ebp]
	ucomisd	xmm0, QWORD PTR __real@0000000000000000
	lahf
	test	ah, 68					; 00000044H
	jnp	$LN3@PM_CheckPa
	mov	eax, DWORD PTR ?pmove@@3PAUplayermove_s@@A ; pmove
	movss	xmm0, DWORD PTR _spd$[ebp]
	comiss	xmm0, DWORD PTR [eax+500]
	jbe	SHORT $LN3@PM_CheckPa

; 3338 : 		 ( spd > pmove->maxspeed ) )
; 3339 : 	{
; 3340 : 		float fRatio = pmove->maxspeed / spd;

	mov	eax, DWORD PTR ?pmove@@3PAUplayermove_s@@A ; pmove
	movss	xmm0, DWORD PTR [eax+500]
	divss	xmm0, DWORD PTR _spd$[ebp]
	movss	DWORD PTR _fRatio$1[ebp], xmm0

; 3341 : 		pmove->cmd.forwardmove *= fRatio;

	mov	eax, DWORD PTR ?pmove@@3PAUplayermove_s@@A ; pmove
	movss	xmm0, DWORD PTR [eax+283752]
	mulss	xmm0, DWORD PTR _fRatio$1[ebp]
	mov	ecx, DWORD PTR ?pmove@@3PAUplayermove_s@@A ; pmove
	movss	DWORD PTR [ecx+283752], xmm0

; 3342 : 		pmove->cmd.sidemove    *= fRatio;

	mov	eax, DWORD PTR ?pmove@@3PAUplayermove_s@@A ; pmove
	movss	xmm0, DWORD PTR [eax+283756]
	mulss	xmm0, DWORD PTR _fRatio$1[ebp]
	mov	ecx, DWORD PTR ?pmove@@3PAUplayermove_s@@A ; pmove
	movss	DWORD PTR [ecx+283756], xmm0

; 3343 : 		pmove->cmd.upmove      *= fRatio;

	mov	eax, DWORD PTR ?pmove@@3PAUplayermove_s@@A ; pmove
	movss	xmm0, DWORD PTR [eax+283760]
	mulss	xmm0, DWORD PTR _fRatio$1[ebp]
	mov	ecx, DWORD PTR ?pmove@@3PAUplayermove_s@@A ; pmove
	movss	DWORD PTR [ecx+283760], xmm0
$LN3@PM_CheckPa:

; 3344 : 	}
; 3345 : 
; 3346 : 	if ( pmove->flags & FL_FROZEN || pmove->dead )

	mov	eax, DWORD PTR ?pmove@@3PAUplayermove_s@@A ; pmove
	mov	ecx, DWORD PTR [eax+184]
	and	ecx, 4096				; 00001000H
	jne	SHORT $LN5@PM_CheckPa
	mov	eax, DWORD PTR ?pmove@@3PAUplayermove_s@@A ; pmove
	cmp	DWORD PTR [eax+208], 0
	je	SHORT $LN4@PM_CheckPa
$LN5@PM_CheckPa:

; 3347 : 	{
; 3348 : 		pmove->cmd.forwardmove = 0;

	mov	eax, DWORD PTR ?pmove@@3PAUplayermove_s@@A ; pmove
	xorps	xmm0, xmm0
	movss	DWORD PTR [eax+283752], xmm0

; 3349 : 		pmove->cmd.sidemove    = 0;

	mov	eax, DWORD PTR ?pmove@@3PAUplayermove_s@@A ; pmove
	xorps	xmm0, xmm0
	movss	DWORD PTR [eax+283756], xmm0

; 3350 : 		pmove->cmd.upmove      = 0;

	mov	eax, DWORD PTR ?pmove@@3PAUplayermove_s@@A ; pmove
	xorps	xmm0, xmm0
	movss	DWORD PTR [eax+283760], xmm0

; 3351 : 		pmove->cmd.buttons     = 0;

	xor	eax, eax
	mov	ecx, DWORD PTR ?pmove@@3PAUplayermove_s@@A ; pmove
	mov	WORD PTR [ecx+283766], ax
$LN4@PM_CheckPa:

; 3352 : 	}
; 3353 : 
; 3354 : 	if ( pmove->flags & FL_ONTRAIN )

	mov	eax, DWORD PTR ?pmove@@3PAUplayermove_s@@A ; pmove
	mov	ecx, DWORD PTR [eax+184]
	and	ecx, 16777216				; 01000000H
	je	SHORT $LN6@PM_CheckPa

; 3355 : 	{
; 3356 : 		pmove->cmd.forwardmove = 0;

	mov	eax, DWORD PTR ?pmove@@3PAUplayermove_s@@A ; pmove
	xorps	xmm0, xmm0
	movss	DWORD PTR [eax+283752], xmm0

; 3357 : 		pmove->cmd.sidemove    = 0;

	mov	eax, DWORD PTR ?pmove@@3PAUplayermove_s@@A ; pmove
	xorps	xmm0, xmm0
	movss	DWORD PTR [eax+283756], xmm0

; 3358 : 		pmove->cmd.upmove      = 0;

	mov	eax, DWORD PTR ?pmove@@3PAUplayermove_s@@A ; pmove
	xorps	xmm0, xmm0
	movss	DWORD PTR [eax+283760], xmm0
$LN6@PM_CheckPa:

; 3359 : 	}
; 3360 : 
; 3361 : 	PM_DropPunchAngle(pmove->punchangle);

	mov	eax, DWORD PTR ?pmove@@3PAUplayermove_s@@A ; pmove
	add	eax, 160				; 000000a0H
	push	eax
	call	?PM_DropPunchAngle@@YAXAAVVector@@@Z	; PM_DropPunchAngle
	add	esp, 4

; 3362 : 
; 3363 : 	// Take angles from command.
; 3364 : 	if ( !pmove->dead )

	mov	eax, DWORD PTR ?pmove@@3PAUplayermove_s@@A ; pmove
	cmp	DWORD PTR [eax+208], 0
	jne	$LN7@PM_CheckPa

; 3365 : 	{
; 3366 : 		v_angle = pmove->cmd.viewangles;          

	mov	eax, DWORD PTR ?pmove@@3PAUplayermove_s@@A ; pmove
	add	eax, 283740				; 0004545cH
	mov	ecx, DWORD PTR [eax]
	mov	DWORD PTR _v_angle$[ebp], ecx
	mov	edx, DWORD PTR [eax+4]
	mov	DWORD PTR _v_angle$[ebp+4], edx
	mov	eax, DWORD PTR [eax+8]
	mov	DWORD PTR _v_angle$[ebp+8], eax

; 3367 : 		v_angle += pmove->punchangle;

	mov	eax, DWORD PTR ?pmove@@3PAUplayermove_s@@A ; pmove
	add	eax, 160				; 000000a0H
	push	eax
	lea	ecx, DWORD PTR _v_angle$[ebp]
	call	??YVector@@QAEAAV0@ABV0@@Z		; Vector::operator+=

; 3368 : 
; 3369 : 		// set up view angles.
; 3370 : 		pmove->angles[PITCH] = v_angle[PITCH];

	lea	ecx, DWORD PTR _v_angle$[ebp]
	call	??BVector@@QAEPAMXZ			; Vector::operator float *
	mov	esi, eax
	mov	eax, 4
	imul	edi, eax, 0
	mov	ecx, DWORD PTR ?pmove@@3PAUplayermove_s@@A ; pmove
	add	ecx, 68					; 00000044H
	call	??BVector@@QAEPAMXZ			; Vector::operator float *
	mov	ecx, 4
	imul	edx, ecx, 0
	mov	ecx, DWORD PTR [esi+edi]
	mov	DWORD PTR [eax+edx], ecx

; 3371 : 		pmove->angles[YAW] = v_angle[YAW];

	lea	ecx, DWORD PTR _v_angle$[ebp]
	call	??BVector@@QAEPAMXZ			; Vector::operator float *
	mov	esi, eax
	mov	edi, 4
	shl	edi, 0
	mov	ecx, DWORD PTR ?pmove@@3PAUplayermove_s@@A ; pmove
	add	ecx, 68					; 00000044H
	call	??BVector@@QAEPAMXZ			; Vector::operator float *
	mov	ecx, 4
	shl	ecx, 0
	mov	edx, DWORD PTR [esi+edi]
	mov	DWORD PTR [eax+ecx], edx

; 3372 : 		pmove->angles[ROLL]	= PM_CalcRoll( v_angle, pmove->velocity, pmove->movevars->rollangle, pmove->movevars->rollspeed ) * 4;

	mov	eax, DWORD PTR ?pmove@@3PAUplayermove_s@@A ; pmove
	mov	ecx, DWORD PTR [eax+324848]
	push	ecx
	movss	xmm0, DWORD PTR [ecx+104]
	movss	DWORD PTR [esp], xmm0
	mov	edx, DWORD PTR ?pmove@@3PAUplayermove_s@@A ; pmove
	mov	eax, DWORD PTR [edx+324848]
	push	ecx
	movss	xmm0, DWORD PTR [eax+100]
	movss	DWORD PTR [esp], xmm0
	mov	ecx, DWORD PTR ?pmove@@3PAUplayermove_s@@A ; pmove
	add	ecx, 92					; 0000005cH
	sub	esp, 12					; 0000000cH
	mov	edx, esp
	push	ecx
	mov	ecx, edx
	call	??0Vector@@QAE@ABV0@@Z			; Vector::Vector
	sub	esp, 12					; 0000000cH
	mov	ecx, esp
	lea	eax, DWORD PTR _v_angle$[ebp]
	push	eax
	call	??0Vector@@QAE@ABV0@@Z			; Vector::Vector
	call	?PM_CalcRoll@@YAMVVector@@0MM@Z		; PM_CalcRoll
	add	esp, 32					; 00000020H
	fstp	DWORD PTR tv359[ebp]
	movss	xmm0, DWORD PTR tv359[ebp]
	mulss	xmm0, DWORD PTR __real@40800000
	mov	ecx, DWORD PTR ?pmove@@3PAUplayermove_s@@A ; pmove
	add	ecx, 68					; 00000044H
	movss	DWORD PTR tv391[ebp], xmm0
	call	??BVector@@QAEPAMXZ			; Vector::operator float *
	mov	ecx, 4
	shl	ecx, 1
	movss	xmm0, DWORD PTR tv391[ebp]
	movss	DWORD PTR [eax+ecx], xmm0

; 3373 : 	}
; 3374 : 	else

	jmp	SHORT $LN8@PM_CheckPa
$LN7@PM_CheckPa:

; 3375 : 		pmove->angles = pmove->oldangles;

	mov	eax, DWORD PTR ?pmove@@3PAUplayermove_s@@A ; pmove
	add	eax, 80					; 00000050H
	mov	ecx, DWORD PTR ?pmove@@3PAUplayermove_s@@A ; pmove
	add	ecx, 68					; 00000044H
	mov	edx, DWORD PTR [eax]
	mov	DWORD PTR [ecx], edx
	mov	edx, DWORD PTR [eax+4]
	mov	DWORD PTR [ecx+4], edx
	mov	eax, DWORD PTR [eax+8]
	mov	DWORD PTR [ecx+8], eax
$LN8@PM_CheckPa:

; 3376 : 
; 3377 : 	// Set dead player view_offset
; 3378 : 	if ( pmove->dead )

	mov	eax, DWORD PTR ?pmove@@3PAUplayermove_s@@A ; pmove
	cmp	DWORD PTR [eax+208], 0
	je	SHORT $LN9@PM_CheckPa

; 3379 : 		pmove->view_ofs[2] = PM_DEAD_VIEWHEIGHT;

	mov	ecx, DWORD PTR ?pmove@@3PAUplayermove_s@@A ; pmove
	add	ecx, 128				; 00000080H
	call	??BVector@@QAEPAMXZ			; Vector::operator float *
	mov	ecx, 4
	shl	ecx, 1
	movss	xmm0, DWORD PTR __real@c1000000
	movss	DWORD PTR [eax+ecx], xmm0
$LN9@PM_CheckPa:

; 3380 : 
; 3381 : 	// Adjust client view angles to match values used on server.
; 3382 : 	if (pmove->angles[YAW] > 180.0f)

	mov	ecx, DWORD PTR ?pmove@@3PAUplayermove_s@@A ; pmove
	add	ecx, 68					; 00000044H
	call	??BVector@@QAEPAMXZ			; Vector::operator float *
	mov	ecx, 4
	shl	ecx, 0
	movss	xmm0, DWORD PTR [eax+ecx]
	comiss	xmm0, DWORD PTR __real@43340000
	jbe	SHORT $LN10@PM_CheckPa

; 3383 : 		pmove->angles[YAW] -= 360.0f;

	mov	ecx, DWORD PTR ?pmove@@3PAUplayermove_s@@A ; pmove
	add	ecx, 68					; 00000044H
	call	??BVector@@QAEPAMXZ			; Vector::operator float *
	mov	ecx, 4
	shl	ecx, 0
	add	eax, ecx
	mov	DWORD PTR tv255[ebp], eax
	mov	edx, DWORD PTR tv255[ebp]
	movss	xmm0, DWORD PTR [edx]
	subss	xmm0, DWORD PTR __real@43b40000
	mov	eax, DWORD PTR tv255[ebp]
	movss	DWORD PTR [eax], xmm0
$LN10@PM_CheckPa:

; 3384 : }

	pop	edi
	pop	esi
	pop	ebx
	mov	esp, ebp
	pop	ebp
	ret	0
?PM_CheckParameters@@YAXXZ ENDP				; PM_CheckParameters
_TEXT	ENDS
; Function compile flags: /Odtp /ZI
; File d:\!diffusion 2020\source code 2022\client-server\game_shared\playermove.cpp
;	COMDAT ?PM_DropPunchAngle@@YAXAAVVector@@@Z
_TEXT	SEGMENT
tv213 = -104						; size = 8
tv207 = -104						; size = 8
tv193 = -104						; size = 4
tv173 = -104						; size = 4
tv153 = -104						; size = 4
tv93 = -104						; size = 4
tv192 = -100						; size = 4
tv172 = -100						; size = 4
tv152 = -100						; size = 4
tv92 = -100						; size = 4
$T1 = -96						; size = 12
$T2 = -84						; size = 12
_springForceMagnitude$ = -8				; size = 4
_damping$ = -4						; size = 4
_punchangle$ = 8					; size = 4
?PM_DropPunchAngle@@YAXAAVVector@@@Z PROC		; PM_DropPunchAngle, COMDAT

; 3288 : {

	push	ebp
	mov	ebp, esp
	sub	esp, 104				; 00000068H
	push	ebx
	push	esi
	push	edi

; 3289 : 	float damping;
; 3290 : 	float springForceMagnitude;
; 3291 : 
; 3292 : 	if (punchangle.Length() > 0.001 || pmove->vuser3.Length() > 0.001)

	mov	ecx, DWORD PTR _punchangle$[ebp]
	call	?Length@Vector@@QBEMXZ			; Vector::Length
	fstp	QWORD PTR tv207[ebp]
	movsd	xmm0, QWORD PTR tv207[ebp]
	comisd	xmm0, QWORD PTR __real@3f50624dd2f1a9fc
	ja	SHORT $LN3@PM_DropPun
	mov	ecx, DWORD PTR ?pmove@@3PAUplayermove_s@@A ; pmove
	add	ecx, 564				; 00000234H
	call	?Length@Vector@@QBEMXZ			; Vector::Length
	fstp	QWORD PTR tv213[ebp]
	movsd	xmm0, QWORD PTR tv213[ebp]
	comisd	xmm0, QWORD PTR __real@3f50624dd2f1a9fc
	jbe	$LN2@PM_DropPun
$LN3@PM_DropPun:

; 3293 : 	{
; 3294 : 			punchangle += pmove->vuser3 * pmove->frametime;

	mov	eax, DWORD PTR ?pmove@@3PAUplayermove_s@@A ; pmove
	push	ecx
	movss	xmm0, DWORD PTR [eax+16]
	movss	DWORD PTR [esp], xmm0
	lea	ecx, DWORD PTR $T2[ebp]
	push	ecx
	mov	ecx, DWORD PTR ?pmove@@3PAUplayermove_s@@A ; pmove
	add	ecx, 564				; 00000234H
	call	??DVector@@QBE?AV0@M@Z			; Vector::operator*
	push	eax
	mov	ecx, DWORD PTR _punchangle$[ebp]
	call	??YVector@@QAEAAV0@ABV0@@Z		; Vector::operator+=

; 3295 : 			damping = 1.0f - (PUNCH_DAMPING * pmove->frametime);

	mov	eax, DWORD PTR ?pmove@@3PAUplayermove_s@@A ; pmove
	movss	xmm0, DWORD PTR __real@41100000
	mulss	xmm0, DWORD PTR [eax+16]
	movss	xmm1, DWORD PTR __real@3f800000
	subss	xmm1, xmm0
	movss	DWORD PTR _damping$[ebp], xmm1

; 3296 : 
; 3297 : 			if (damping < 0.0f)

	xorps	xmm0, xmm0
	comiss	xmm0, DWORD PTR _damping$[ebp]
	jbe	SHORT $LN4@PM_DropPun

; 3298 : 				damping = 0.0f;

	xorps	xmm0, xmm0
	movss	DWORD PTR _damping$[ebp], xmm0
$LN4@PM_DropPun:

; 3299 : 
; 3300 : 			pmove->vuser3 *= damping;

	push	ecx
	movss	xmm0, DWORD PTR _damping$[ebp]
	movss	DWORD PTR [esp], xmm0
	mov	ecx, DWORD PTR ?pmove@@3PAUplayermove_s@@A ; pmove
	add	ecx, 564				; 00000234H
	call	??XVector@@QAEAAV0@M@Z			; Vector::operator*=

; 3301 : 
; 3302 : 			// torsional spring
; 3303 : 			// UNDONE: Per-axis spring constant?
; 3304 : 			springForceMagnitude = PUNCH_SPRING_CONSTANT * pmove->frametime;

	mov	eax, DWORD PTR ?pmove@@3PAUplayermove_s@@A ; pmove
	movss	xmm0, DWORD PTR __real@42820000
	mulss	xmm0, DWORD PTR [eax+16]
	movss	DWORD PTR _springForceMagnitude$[ebp], xmm0

; 3305 : 			springForceMagnitude = bound(0, springForceMagnitude, 2);

	movss	xmm0, DWORD PTR _springForceMagnitude$[ebp]
	comiss	xmm0, DWORD PTR __real@00000000
	jb	SHORT $LN8@PM_DropPun
	movss	xmm0, DWORD PTR __real@40000000
	comiss	xmm0, DWORD PTR _springForceMagnitude$[ebp]
	jbe	SHORT $LN6@PM_DropPun
	movss	xmm0, DWORD PTR _springForceMagnitude$[ebp]
	movss	DWORD PTR tv92[ebp], xmm0
	jmp	SHORT $LN7@PM_DropPun
$LN6@PM_DropPun:
	movss	xmm0, DWORD PTR __real@40000000
	movss	DWORD PTR tv92[ebp], xmm0
$LN7@PM_DropPun:
	movss	xmm0, DWORD PTR tv92[ebp]
	movss	DWORD PTR tv93[ebp], xmm0
	jmp	SHORT $LN9@PM_DropPun
$LN8@PM_DropPun:
	xorps	xmm0, xmm0
	movss	DWORD PTR tv93[ebp], xmm0
$LN9@PM_DropPun:
	movss	xmm0, DWORD PTR tv93[ebp]
	movss	DWORD PTR _springForceMagnitude$[ebp], xmm0

; 3306 : 
; 3307 : 			pmove->vuser3 += punchangle * -springForceMagnitude;

	movss	xmm0, DWORD PTR _springForceMagnitude$[ebp]
	xorps	xmm0, DWORD PTR __xmm@80000000800000008000000080000000
	push	ecx
	movss	DWORD PTR [esp], xmm0
	lea	eax, DWORD PTR $T1[ebp]
	push	eax
	mov	ecx, DWORD PTR _punchangle$[ebp]
	call	??DVector@@QBE?AV0@M@Z			; Vector::operator*
	push	eax
	mov	ecx, DWORD PTR ?pmove@@3PAUplayermove_s@@A ; pmove
	add	ecx, 564				; 00000234H
	call	??YVector@@QAEAAV0@ABV0@@Z		; Vector::operator+=

; 3308 : 
; 3309 : 			// don't wrap around
; 3310 : 			punchangle[0] = bound(-89, punchangle[0], 89);

	mov	ecx, DWORD PTR _punchangle$[ebp]
	call	??BVector@@QAEPAMXZ			; Vector::operator float *
	mov	ecx, 4
	imul	edx, ecx, 0
	movss	xmm0, DWORD PTR [eax+edx]
	comiss	xmm0, DWORD PTR __real@c2b20000
	jb	SHORT $LN12@PM_DropPun
	mov	ecx, DWORD PTR _punchangle$[ebp]
	call	??BVector@@QAEPAMXZ			; Vector::operator float *
	mov	ecx, 4
	imul	edx, ecx, 0
	movss	xmm0, DWORD PTR __real@42b20000
	comiss	xmm0, DWORD PTR [eax+edx]
	jbe	SHORT $LN10@PM_DropPun
	mov	ecx, DWORD PTR _punchangle$[ebp]
	call	??BVector@@QAEPAMXZ			; Vector::operator float *
	mov	ecx, 4
	imul	edx, ecx, 0
	movss	xmm0, DWORD PTR [eax+edx]
	movss	DWORD PTR tv152[ebp], xmm0
	jmp	SHORT $LN11@PM_DropPun
$LN10@PM_DropPun:
	movss	xmm0, DWORD PTR __real@42b20000
	movss	DWORD PTR tv152[ebp], xmm0
$LN11@PM_DropPun:
	movss	xmm0, DWORD PTR tv152[ebp]
	movss	DWORD PTR tv153[ebp], xmm0
	jmp	SHORT $LN13@PM_DropPun
$LN12@PM_DropPun:
	movss	xmm0, DWORD PTR __real@c2b20000
	movss	DWORD PTR tv153[ebp], xmm0
$LN13@PM_DropPun:
	mov	ecx, DWORD PTR _punchangle$[ebp]
	call	??BVector@@QAEPAMXZ			; Vector::operator float *
	mov	ecx, 4
	imul	edx, ecx, 0
	movss	xmm0, DWORD PTR tv153[ebp]
	movss	DWORD PTR [eax+edx], xmm0

; 3311 : 			punchangle[1] = bound(-179, punchangle[1], 179);

	mov	ecx, DWORD PTR _punchangle$[ebp]
	call	??BVector@@QAEPAMXZ			; Vector::operator float *
	mov	ecx, 4
	shl	ecx, 0
	movss	xmm0, DWORD PTR [eax+ecx]
	comiss	xmm0, DWORD PTR __real@c3330000
	jb	SHORT $LN16@PM_DropPun
	mov	ecx, DWORD PTR _punchangle$[ebp]
	call	??BVector@@QAEPAMXZ			; Vector::operator float *
	mov	edx, 4
	shl	edx, 0
	movss	xmm0, DWORD PTR __real@43330000
	comiss	xmm0, DWORD PTR [eax+edx]
	jbe	SHORT $LN14@PM_DropPun
	mov	ecx, DWORD PTR _punchangle$[ebp]
	call	??BVector@@QAEPAMXZ			; Vector::operator float *
	mov	ecx, 4
	shl	ecx, 0
	movss	xmm0, DWORD PTR [eax+ecx]
	movss	DWORD PTR tv172[ebp], xmm0
	jmp	SHORT $LN15@PM_DropPun
$LN14@PM_DropPun:
	movss	xmm0, DWORD PTR __real@43330000
	movss	DWORD PTR tv172[ebp], xmm0
$LN15@PM_DropPun:
	movss	xmm0, DWORD PTR tv172[ebp]
	movss	DWORD PTR tv173[ebp], xmm0
	jmp	SHORT $LN17@PM_DropPun
$LN16@PM_DropPun:
	movss	xmm0, DWORD PTR __real@c3330000
	movss	DWORD PTR tv173[ebp], xmm0
$LN17@PM_DropPun:
	mov	ecx, DWORD PTR _punchangle$[ebp]
	call	??BVector@@QAEPAMXZ			; Vector::operator float *
	mov	edx, 4
	shl	edx, 0
	movss	xmm0, DWORD PTR tv173[ebp]
	movss	DWORD PTR [eax+edx], xmm0

; 3312 : 			punchangle[2] = bound(-89, punchangle[2], 89);

	mov	ecx, DWORD PTR _punchangle$[ebp]
	call	??BVector@@QAEPAMXZ			; Vector::operator float *
	mov	ecx, 4
	shl	ecx, 1
	movss	xmm0, DWORD PTR [eax+ecx]
	comiss	xmm0, DWORD PTR __real@c2b20000
	jb	SHORT $LN20@PM_DropPun
	mov	ecx, DWORD PTR _punchangle$[ebp]
	call	??BVector@@QAEPAMXZ			; Vector::operator float *
	mov	edx, 4
	shl	edx, 1
	movss	xmm0, DWORD PTR __real@42b20000
	comiss	xmm0, DWORD PTR [eax+edx]
	jbe	SHORT $LN18@PM_DropPun
	mov	ecx, DWORD PTR _punchangle$[ebp]
	call	??BVector@@QAEPAMXZ			; Vector::operator float *
	mov	ecx, 4
	shl	ecx, 1
	movss	xmm0, DWORD PTR [eax+ecx]
	movss	DWORD PTR tv192[ebp], xmm0
	jmp	SHORT $LN19@PM_DropPun
$LN18@PM_DropPun:
	movss	xmm0, DWORD PTR __real@42b20000
	movss	DWORD PTR tv192[ebp], xmm0
$LN19@PM_DropPun:
	movss	xmm0, DWORD PTR tv192[ebp]
	movss	DWORD PTR tv193[ebp], xmm0
	jmp	SHORT $LN21@PM_DropPun
$LN20@PM_DropPun:
	movss	xmm0, DWORD PTR __real@c2b20000
	movss	DWORD PTR tv193[ebp], xmm0
$LN21@PM_DropPun:
	mov	ecx, DWORD PTR _punchangle$[ebp]
	call	??BVector@@QAEPAMXZ			; Vector::operator float *
	mov	edx, 4
	shl	edx, 1
	movss	xmm0, DWORD PTR tv193[ebp]
	movss	DWORD PTR [eax+edx], xmm0
$LN2@PM_DropPun:

; 3313 : 	}
; 3314 : }

	pop	edi
	pop	esi
	pop	ebx
	mov	esp, ebp
	pop	ebp
	ret	0
?PM_DropPunchAngle@@YAXAAVVector@@@Z ENDP		; PM_DropPunchAngle
_TEXT	ENDS
; Function compile flags: /Odtp /ZI
; File d:\!diffusion 2020\source code 2022\client-server\game_shared\playermove.cpp
;	COMDAT ?PM_CalcRoll@@YAMVVector@@0MM@Z
_TEXT	SEGMENT
tv144 = -116						; size = 4
tv83 = -116						; size = 4
_up$ = -48						; size = 12
_right$ = -36						; size = 12
_forward$ = -24						; size = 12
_value$ = -12						; size = 4
_side$ = -8						; size = 4
_sign$ = -4						; size = 4
_angles$ = 8						; size = 12
_velocity$ = 20						; size = 12
_rollangle$ = 32					; size = 4
_rollspeed$ = 36					; size = 4
?PM_CalcRoll@@YAMVVector@@0MM@Z PROC			; PM_CalcRoll, COMDAT

; 3264 : {

	push	ebp
	mov	ebp, esp
	sub	esp, 116				; 00000074H
	push	ebx
	push	esi
	push	edi

; 3265 : 	float   sign;
; 3266 : 	float   side;
; 3267 : 	float   value;
; 3268 : 	Vector  forward, right, up;

	lea	ecx, DWORD PTR _forward$[ebp]
	call	??0Vector@@QAE@XZ			; Vector::Vector
	lea	ecx, DWORD PTR _right$[ebp]
	call	??0Vector@@QAE@XZ			; Vector::Vector
	lea	ecx, DWORD PTR _up$[ebp]
	call	??0Vector@@QAE@XZ			; Vector::Vector

; 3269 :     
; 3270 : 	AngleVectors (angles, forward, right, up);

	lea	ecx, DWORD PTR _up$[ebp]
	call	??BVector@@QAEPAMXZ			; Vector::operator float *
	push	eax
	lea	ecx, DWORD PTR _right$[ebp]
	call	??BVector@@QAEPAMXZ			; Vector::operator float *
	push	eax
	lea	ecx, DWORD PTR _forward$[ebp]
	call	??BVector@@QAEPAMXZ			; Vector::operator float *
	push	eax
	lea	ecx, DWORD PTR _angles$[ebp]
	call	??BVector@@QAEPAMXZ			; Vector::operator float *
	push	eax
	call	DWORD PTR ?gEngfuncs@@3Ucl_enginefuncs_s@@A+96
	add	esp, 16					; 00000010H

; 3271 :     
; 3272 : 	side = DotProduct (velocity, right);

	lea	eax, DWORD PTR _right$[ebp]
	push	eax
	lea	ecx, DWORD PTR _velocity$[ebp]
	push	ecx
	call	?DotProduct@@YAMABVVector@@0@Z		; DotProduct
	add	esp, 8
	fstp	DWORD PTR _side$[ebp]

; 3273 : 	sign = side < 0 ? -1 : 1;

	xorps	xmm0, xmm0
	comiss	xmm0, DWORD PTR _side$[ebp]
	jbe	SHORT $LN5@PM_CalcRol
	mov	DWORD PTR tv83[ebp], -1
	jmp	SHORT $LN6@PM_CalcRol
$LN5@PM_CalcRol:
	mov	DWORD PTR tv83[ebp], 1
$LN6@PM_CalcRol:
	cvtsi2ss xmm0, DWORD PTR tv83[ebp]
	movss	DWORD PTR _sign$[ebp], xmm0

; 3274 : 	side = fabs(side);

	cvtss2sd xmm0, DWORD PTR _side$[ebp]
	sub	esp, 8
	movsd	QWORD PTR [esp], xmm0
	call	_fabs
	add	esp, 8
	fstp	DWORD PTR _side$[ebp]

; 3275 : 	value = rollangle;

	movss	xmm0, DWORD PTR _rollangle$[ebp]
	movss	DWORD PTR _value$[ebp], xmm0

; 3276 :     
; 3277 : 	if (side < rollspeed)

	movss	xmm0, DWORD PTR _rollspeed$[ebp]
	comiss	xmm0, DWORD PTR _side$[ebp]
	jbe	SHORT $LN2@PM_CalcRol

; 3278 : 		side = side * value / rollspeed;

	movss	xmm0, DWORD PTR _side$[ebp]
	mulss	xmm0, DWORD PTR _value$[ebp]
	divss	xmm0, DWORD PTR _rollspeed$[ebp]
	movss	DWORD PTR _side$[ebp], xmm0

; 3279 : 	else

	jmp	SHORT $LN3@PM_CalcRol
$LN2@PM_CalcRol:

; 3280 : 		side = value;

	movss	xmm0, DWORD PTR _value$[ebp]
	movss	DWORD PTR _side$[ebp], xmm0
$LN3@PM_CalcRol:

; 3281 :   
; 3282 : 	return side * sign;

	movss	xmm0, DWORD PTR _side$[ebp]
	mulss	xmm0, DWORD PTR _sign$[ebp]
	movss	DWORD PTR tv144[ebp], xmm0
	fld	DWORD PTR tv144[ebp]

; 3283 : }

	pop	edi
	pop	esi
	pop	ebx
	mov	esp, ebp
	pop	ebp
	ret	0
?PM_CalcRoll@@YAMVVector@@0MM@Z ENDP			; PM_CalcRoll
_TEXT	ENDS
; Function compile flags: /Odtp /ZI
; File d:\!diffusion 2020\source code 2022\client-server\game_shared\playermove.cpp
;	COMDAT ?PM_PlayWaterSounds@@YAXXZ
_TEXT	SEGMENT
tv78 = -68						; size = 4
?PM_PlayWaterSounds@@YAXXZ PROC				; PM_PlayWaterSounds, COMDAT

; 3234 : {

	push	ebp
	mov	ebp, esp
	sub	esp, 68					; 00000044H
	push	ebx
	push	esi
	push	edi

; 3235 : 	// Did we enter or leave water?
; 3236 : 	if  ( ( pmove->oldwaterlevel == 0 && pmove->waterlevel != 0 && pmove->watertype > CONTENT_FLYFIELD) ||

	mov	eax, DWORD PTR ?pmove@@3PAUplayermove_s@@A ; pmove
	cmp	DWORD PTR [eax+236], 0
	jne	SHORT $LN6@PM_PlayWat
	mov	eax, DWORD PTR ?pmove@@3PAUplayermove_s@@A ; pmove
	cmp	DWORD PTR [eax+228], 0
	je	SHORT $LN6@PM_PlayWat
	mov	eax, DWORD PTR ?pmove@@3PAUplayermove_s@@A ; pmove
	cmp	DWORD PTR [eax+232], -17		; ffffffefH
	jg	SHORT $LN5@PM_PlayWat
$LN6@PM_PlayWat:
	mov	eax, DWORD PTR ?pmove@@3PAUplayermove_s@@A ; pmove
	cmp	DWORD PTR [eax+236], 0
	je	$LN2@PM_PlayWat
	mov	eax, DWORD PTR ?pmove@@3PAUplayermove_s@@A ; pmove
	cmp	DWORD PTR [eax+228], 0
	jne	$LN2@PM_PlayWat
$LN5@PM_PlayWat:

; 3237 : 		  ( pmove->oldwaterlevel != 0 && pmove->waterlevel == 0 ))
; 3238 : 	{
; 3239 : 		switch ( pmove->RandomLong(0,3) )

	push	3
	push	0
	mov	eax, DWORD PTR ?pmove@@3PAUplayermove_s@@A ; pmove
	mov	ecx, DWORD PTR [eax+325000]
	call	ecx
	add	esp, 8
	mov	DWORD PTR tv78[ebp], eax
	cmp	DWORD PTR tv78[ebp], 3
	ja	$LN2@PM_PlayWat
	mov	edx, DWORD PTR tv78[ebp]
	jmp	DWORD PTR $LN12@PM_PlayWat[edx*4]
$LN7@PM_PlayWat:

; 3240 : 		{
; 3241 : 		case 0:
; 3242 : 			pmove->PM_PlaySound( CHAN_BODY, "footsteps/wade1.wav", 1, ATTN_NORM, 0, PITCH_NORM );

	push	100					; 00000064H
	push	0
	push	ecx
	movss	xmm0, DWORD PTR __real@3f4ccccd
	movss	DWORD PTR [esp], xmm0
	push	ecx
	movss	xmm0, DWORD PTR __real@3f800000
	movss	DWORD PTR [esp], xmm0
	push	OFFSET ??_C@_0BE@FOEPOJBH@footsteps?1wade1?4wav?$AA@
	push	4
	mov	eax, DWORD PTR ?pmove@@3PAUplayermove_s@@A ; pmove
	mov	ecx, DWORD PTR [eax+325044]
	call	ecx
	add	esp, 24					; 00000018H

; 3243 : 			break;

	jmp	$LN2@PM_PlayWat
$LN8@PM_PlayWat:

; 3244 : 		case 1:
; 3245 : 			pmove->PM_PlaySound( CHAN_BODY, "footsteps/wade2.wav", 1, ATTN_NORM, 0, PITCH_NORM );

	push	100					; 00000064H
	push	0
	push	ecx
	movss	xmm0, DWORD PTR __real@3f4ccccd
	movss	DWORD PTR [esp], xmm0
	push	ecx
	movss	xmm0, DWORD PTR __real@3f800000
	movss	DWORD PTR [esp], xmm0
	push	OFFSET ??_C@_0BE@NINLJLLJ@footsteps?1wade2?4wav?$AA@
	push	4
	mov	eax, DWORD PTR ?pmove@@3PAUplayermove_s@@A ; pmove
	mov	ecx, DWORD PTR [eax+325044]
	call	ecx
	add	esp, 24					; 00000018H

; 3246 : 			break;

	jmp	SHORT $LN2@PM_PlayWat
$LN9@PM_PlayWat:

; 3247 : 		case 2:
; 3248 : 			pmove->PM_PlaySound( CHAN_BODY, "footsteps/wade3.wav", 1, ATTN_NORM, 0, PITCH_NORM );

	push	100					; 00000064H
	push	0
	push	ecx
	movss	xmm0, DWORD PTR __real@3f4ccccd
	movss	DWORD PTR [esp], xmm0
	push	ecx
	movss	xmm0, DWORD PTR __real@3f800000
	movss	DWORD PTR [esp], xmm0
	push	OFFSET ??_C@_0BE@BDIHEIBM@footsteps?1wade3?4wav?$AA@
	push	4
	mov	eax, DWORD PTR ?pmove@@3PAUplayermove_s@@A ; pmove
	mov	ecx, DWORD PTR [eax+325044]
	call	ecx
	add	esp, 24					; 00000018H

; 3249 : 			break;

	jmp	SHORT $LN2@PM_PlayWat
$LN10@PM_PlayWat:

; 3250 : 		case 3:
; 3251 : 			pmove->PM_PlaySound( CHAN_BODY, "footsteps/wade4.wav", 1, ATTN_NORM, 0, PITCH_NORM );

	push	100					; 00000064H
	push	0
	push	ecx
	movss	xmm0, DWORD PTR __real@3f4ccccd
	movss	DWORD PTR [esp], xmm0
	push	ecx
	movss	xmm0, DWORD PTR __real@3f800000
	movss	DWORD PTR [esp], xmm0
	push	OFFSET ??_C@_0BE@OICHIKE@footsteps?1wade4?4wav?$AA@
	push	4
	mov	eax, DWORD PTR ?pmove@@3PAUplayermove_s@@A ; pmove
	mov	ecx, DWORD PTR [eax+325044]
	call	ecx
	add	esp, 24					; 00000018H
$LN2@PM_PlayWat:

; 3252 : 			break;
; 3253 : 		}
; 3254 : 	}
; 3255 : }

	pop	edi
	pop	esi
	pop	ebx
	mov	esp, ebp
	pop	ebp
	ret	0
	npad	2
$LN12@PM_PlayWat:
	DD	$LN7@PM_PlayWat
	DD	$LN8@PM_PlayWat
	DD	$LN9@PM_PlayWat
	DD	$LN10@PM_PlayWat
?PM_PlayWaterSounds@@YAXXZ ENDP				; PM_PlayWaterSounds
_TEXT	ENDS
; Function compile flags: /Odtp /ZI
; File d:\!diffusion 2020\source code 2022\client-server\game_shared\playermove.cpp
;	COMDAT ?PM_CheckFalling@@YAXXZ
_TEXT	SEGMENT
tv95 = -80						; size = 4
tv154 = -77						; size = 1
_tfc$1 = -12						; size = 4
_fvol$2 = -8						; size = 4
_fvol$3 = -4						; size = 4
?PM_CheckFalling@@YAXXZ PROC				; PM_CheckFalling, COMDAT

; 3166 : {

	push	ebp
	mov	ebp, esp
	sub	esp, 80					; 00000050H
	push	ebx
	push	esi
	push	edi

; 3167 : 	if ( pmove->onground != -1 && !pmove->dead && pmove->flFallVelocity >= 200 )

	mov	eax, DWORD PTR ?pmove@@3PAUplayermove_s@@A ; pmove
	cmp	DWORD PTR [eax+224], -1
	je	SHORT $LN4@PM_CheckFa
	mov	eax, DWORD PTR ?pmove@@3PAUplayermove_s@@A ; pmove
	cmp	DWORD PTR [eax+208], 0
	jne	SHORT $LN4@PM_CheckFa
	mov	eax, DWORD PTR ?pmove@@3PAUplayermove_s@@A ; pmove
	movss	xmm0, DWORD PTR [eax+156]
	comiss	xmm0, DWORD PTR __real@43480000
	jb	SHORT $LN4@PM_CheckFa

; 3168 : 	{// diffusion - always play step sound when landing
; 3169 : 		float fvol = 0.5;

	movss	xmm0, DWORD PTR __real@3f000000
	movss	DWORD PTR _fvol$3[ebp], xmm0

; 3170 : 		pmove->flTimeStepSound = 0;

	mov	eax, DWORD PTR ?pmove@@3PAUplayermove_s@@A ; pmove
	mov	DWORD PTR [eax+148], 0

; 3171 : 		PM_UpdateStepSound();

	push	0
	call	?PM_UpdateStepSound@@YAXH@Z		; PM_UpdateStepSound
	add	esp, 4

; 3172 : 		PM_PlayStepSound( PM_MapTextureTypeStepType( pmove->chtexturetype ), fvol );

	push	ecx
	movss	xmm0, DWORD PTR _fvol$3[ebp]
	movss	DWORD PTR [esp], xmm0
	mov	eax, DWORD PTR ?pmove@@3PAUplayermove_s@@A ; pmove
	movzx	ecx, BYTE PTR [eax+496]
	push	ecx
	call	?PM_MapTextureTypeStepType@@YAHD@Z	; PM_MapTextureTypeStepType
	add	esp, 4
	push	eax
	call	?PM_PlayStepSound@@YAXHM@Z		; PM_PlayStepSound
	add	esp, 8
$LN4@PM_CheckFa:

; 3173 : 	}
; 3174 : 
; 3175 : 	// diffusion - no crash sounds when god
; 3176 : 	if( pmove->flags & FL_GODMODE )

	mov	eax, DWORD PTR ?pmove@@3PAUplayermove_s@@A ; pmove
	mov	ecx, DWORD PTR [eax+184]
	and	ecx, 64					; 00000040H
	je	SHORT $LN5@PM_CheckFa

; 3177 : 	{
; 3178 : 		pmove->flFallVelocity = 0;

	mov	eax, DWORD PTR ?pmove@@3PAUplayermove_s@@A ; pmove
	xorps	xmm0, xmm0
	movss	DWORD PTR [eax+156], xmm0

; 3179 : 		return;

	jmp	$LN1@PM_CheckFa
$LN5@PM_CheckFa:

; 3180 : 	}
; 3181 : 	
; 3182 : 	if ( pmove->onground != -1 && !pmove->dead && pmove->flFallVelocity >= PLAYER_FALL_PUNCH_THRESHHOLD )

	mov	eax, DWORD PTR ?pmove@@3PAUplayermove_s@@A ; pmove
	cmp	DWORD PTR [eax+224], -1
	je	$LN18@PM_CheckFa
	mov	eax, DWORD PTR ?pmove@@3PAUplayermove_s@@A ; pmove
	cmp	DWORD PTR [eax+208], 0
	jne	$LN18@PM_CheckFa
	mov	eax, DWORD PTR ?pmove@@3PAUplayermove_s@@A ; pmove
	movss	xmm0, DWORD PTR [eax+156]
	comiss	xmm0, DWORD PTR __real@43960000
	jb	$LN18@PM_CheckFa

; 3183 : 	{
; 3184 : 		float fvol = 0.5;

	movss	xmm0, DWORD PTR __real@3f000000
	movss	DWORD PTR _fvol$2[ebp], xmm0

; 3185 : 
; 3186 : 		if ( pmove->waterlevel > 0 )

	mov	eax, DWORD PTR ?pmove@@3PAUplayermove_s@@A ; pmove
	cmp	DWORD PTR [eax+228], 0
	jle	SHORT $LN7@PM_CheckFa
	jmp	$LN16@PM_CheckFa
$LN7@PM_CheckFa:

; 3187 : 		{
; 3188 : 		}
; 3189 : 		else if ( pmove->flFallVelocity > PLAYER_MAX_SAFE_FALL_SPEED )

	mov	eax, DWORD PTR ?pmove@@3PAUplayermove_s@@A ; pmove
	movss	xmm0, DWORD PTR [eax+156]
	comiss	xmm0, DWORD PTR __real@43fa0000
	jbe	$LN9@PM_CheckFa

; 3190 : 		{
; 3191 : 			switch( pmove->RandomLong(0,1) )  // diffusion

	push	1
	push	0
	mov	eax, DWORD PTR ?pmove@@3PAUplayermove_s@@A ; pmove
	mov	ecx, DWORD PTR [eax+325000]
	call	ecx
	add	esp, 8
	mov	DWORD PTR tv95[ebp], eax
	cmp	DWORD PTR tv95[ebp], 0
	je	SHORT $LN11@PM_CheckFa
	cmp	DWORD PTR tv95[ebp], 1
	je	SHORT $LN12@PM_CheckFa
	jmp	SHORT $LN2@PM_CheckFa
$LN11@PM_CheckFa:

; 3192 : 			{
; 3193 : 			case 0: pmove->PM_PlaySound( CHAN_VOICE, "player/fallpain1.wav", 1, ATTN_NORM, 0, PITCH_NORM ); break;

	push	100					; 00000064H
	push	0
	push	ecx
	movss	xmm0, DWORD PTR __real@3f4ccccd
	movss	DWORD PTR [esp], xmm0
	push	ecx
	movss	xmm0, DWORD PTR __real@3f800000
	movss	DWORD PTR [esp], xmm0
	push	OFFSET ??_C@_0BF@OKBOBHDH@player?1fallpain1?4wav?$AA@
	push	2
	mov	eax, DWORD PTR ?pmove@@3PAUplayermove_s@@A ; pmove
	mov	ecx, DWORD PTR [eax+325044]
	call	ecx
	add	esp, 24					; 00000018H
	jmp	SHORT $LN2@PM_CheckFa
$LN12@PM_CheckFa:

; 3194 : 			case 1: pmove->PM_PlaySound( CHAN_VOICE, "player/fallpain2.wav", 1, ATTN_NORM, 0, PITCH_NORM ); break;

	push	100					; 00000064H
	push	0
	push	ecx
	movss	xmm0, DWORD PTR __real@3f4ccccd
	movss	DWORD PTR [esp], xmm0
	push	ecx
	movss	xmm0, DWORD PTR __real@3f800000
	movss	DWORD PTR [esp], xmm0
	push	OFFSET ??_C@_0BF@GMIKGFJJ@player?1fallpain2?4wav?$AA@
	push	2
	mov	eax, DWORD PTR ?pmove@@3PAUplayermove_s@@A ; pmove
	mov	ecx, DWORD PTR [eax+325044]
	call	ecx
	add	esp, 24					; 00000018H
$LN2@PM_CheckFa:

; 3195 : 			}
; 3196 : 			fvol = 1.0;

	movss	xmm0, DWORD PTR __real@3f800000
	movss	DWORD PTR _fvol$2[ebp], xmm0
	jmp	$LN16@PM_CheckFa
$LN9@PM_CheckFa:

; 3197 : 		}
; 3198 : 		else if ( pmove->flFallVelocity > PLAYER_MAX_SAFE_FALL_SPEED / 2 )

	mov	eax, DWORD PTR ?pmove@@3PAUplayermove_s@@A ; pmove
	movss	xmm0, DWORD PTR [eax+156]
	comiss	xmm0, DWORD PTR __real@437a0000
	jbe	$LN13@PM_CheckFa

; 3199 : 		{
; 3200 : 			qboolean tfc = false;

	mov	DWORD PTR _tfc$1[ebp], 0

; 3201 : 			tfc = atoi( pmove->PM_Info_ValueForKey( pmove->physinfo, "tfc" ) ) == 1 ? true : false;

	push	OFFSET ??_C@_03DIGMJINO@tfc?$AA@
	mov	eax, DWORD PTR ?pmove@@3PAUplayermove_s@@A ; pmove
	add	eax, 324592				; 0004f3f0H
	push	eax
	mov	ecx, DWORD PTR ?pmove@@3PAUplayermove_s@@A ; pmove
	mov	edx, DWORD PTR [ecx+324948]
	call	edx
	add	esp, 8
	push	eax
	call	_atoi
	add	esp, 4
	cmp	eax, 1
	jne	SHORT $LN21@PM_CheckFa
	mov	BYTE PTR tv154[ebp], 1
	jmp	SHORT $LN22@PM_CheckFa
$LN21@PM_CheckFa:
	mov	BYTE PTR tv154[ebp], 0
$LN22@PM_CheckFa:
	movzx	eax, BYTE PTR tv154[ebp]
	mov	DWORD PTR _tfc$1[ebp], eax

; 3202 : 
; 3203 : 			if ( tfc )

	cmp	DWORD PTR _tfc$1[ebp], 0
	je	SHORT $LN15@PM_CheckFa

; 3204 : 			{
; 3205 : 				pmove->PM_PlaySound( CHAN_VOICE, "player/pl_fallpain3.wav", 1, ATTN_NORM, 0, PITCH_NORM );

	push	100					; 00000064H
	push	0
	push	ecx
	movss	xmm0, DWORD PTR __real@3f4ccccd
	movss	DWORD PTR [esp], xmm0
	push	ecx
	movss	xmm0, DWORD PTR __real@3f800000
	movss	DWORD PTR [esp], xmm0
	push	OFFSET ??_C@_0BI@PLJFMNJG@player?1pl_fallpain3?4wav?$AA@
	push	2
	mov	eax, DWORD PTR ?pmove@@3PAUplayermove_s@@A ; pmove
	mov	ecx, DWORD PTR [eax+325044]
	call	ecx
	add	esp, 24					; 00000018H
$LN15@PM_CheckFa:

; 3206 : 			}
; 3207 : 
; 3208 : 			fvol = 0.85;

	movss	xmm0, DWORD PTR __real@3f59999a
	movss	DWORD PTR _fvol$2[ebp], xmm0
	jmp	SHORT $LN16@PM_CheckFa
$LN13@PM_CheckFa:

; 3209 : 		}
; 3210 : 		else if ( pmove->flFallVelocity < PLAYER_MIN_BOUNCE_SPEED )

	mov	eax, DWORD PTR ?pmove@@3PAUplayermove_s@@A ; pmove
	movss	xmm0, DWORD PTR __real@43480000
	comiss	xmm0, DWORD PTR [eax+156]
	jbe	SHORT $LN16@PM_CheckFa

; 3211 : 			fvol = 0;

	xorps	xmm0, xmm0
	movss	DWORD PTR _fvol$2[ebp], xmm0
$LN16@PM_CheckFa:

; 3212 : 
; 3213 : 		if ( fvol > 0.0 )

	cvtss2sd xmm0, DWORD PTR _fvol$2[ebp]
	comisd	xmm0, QWORD PTR __real@0000000000000000
	jbe	SHORT $LN18@PM_CheckFa

; 3214 : 		{
; 3215 : 			// Knock the screen around a little bit, temporary effect
; 3216 : 			pmove->punchangle.z = pmove->flFallVelocity * 0.004;  // diffusion - soft screen shake

	mov	eax, DWORD PTR ?pmove@@3PAUplayermove_s@@A ; pmove
	cvtss2sd xmm0, DWORD PTR [eax+156]
	mulsd	xmm0, QWORD PTR __real@3f70624dd2f1a9fc
	cvtsd2ss xmm0, xmm0
	mov	ecx, DWORD PTR ?pmove@@3PAUplayermove_s@@A ; pmove
	movss	DWORD PTR [ecx+168], xmm0

; 3217 : 			if ( pmove->punchangle.z > 5 )

	mov	eax, DWORD PTR ?pmove@@3PAUplayermove_s@@A ; pmove
	movss	xmm0, DWORD PTR [eax+168]
	comiss	xmm0, DWORD PTR __real@40a00000
	jbe	SHORT $LN18@PM_CheckFa

; 3218 : 				pmove->punchangle.z = 5;

	mov	eax, DWORD PTR ?pmove@@3PAUplayermove_s@@A ; pmove
	movss	xmm0, DWORD PTR __real@40a00000
	movss	DWORD PTR [eax+168], xmm0
$LN18@PM_CheckFa:

; 3219 : 
; 3220 : 		}
; 3221 : 	}
; 3222 : 
; 3223 : 	if ( pmove->onground != -1 ) 

	mov	eax, DWORD PTR ?pmove@@3PAUplayermove_s@@A ; pmove
	cmp	DWORD PTR [eax+224], -1
	je	SHORT $LN19@PM_CheckFa

; 3224 : 		pmove->flFallVelocity = 0;

	mov	eax, DWORD PTR ?pmove@@3PAUplayermove_s@@A ; pmove
	xorps	xmm0, xmm0
	movss	DWORD PTR [eax+156], xmm0
$LN19@PM_CheckFa:
$LN1@PM_CheckFa:

; 3225 : }

	pop	edi
	pop	esi
	pop	ebx
	mov	esp, ebp
	pop	ebp
	ret	0
?PM_CheckFalling@@YAXXZ ENDP				; PM_CheckFalling
_TEXT	ENDS
; Function compile flags: /Odtp /ZI
; File d:\!diffusion 2020\source code 2022\client-server\game_shared\playermove.cpp
;	COMDAT ?PM_CheckWaterJump@@YAXXZ
_TEXT	SEGMENT
tv492 = -552						; size = 8
tv482 = -552						; size = 8
tv397 = -552						; size = 8
tv310 = -548						; size = 4
tv265 = -548						; size = 4
tv251 = -548						; size = 4
$T1 = -544						; size = 68
$T2 = -476						; size = 68
$T3 = -408						; size = 12
$T4 = -396						; size = 12
$T5 = -384						; size = 12
$T6 = -372						; size = 68
$T7 = -304						; size = 68
$T8 = -236						; size = 12
$T9 = -224						; size = 12
$T10 = -212						; size = 12
$T11 = -200						; size = 12
_savehull$ = -124					; size = 4
_tr$ = -120						; size = 68
_curspeed$ = -52					; size = 4
_flatvelocity$ = -48					; size = 12
_flatforward$ = -36					; size = 12
_vecEnd$ = -24						; size = 12
_vecStart$ = -12					; size = 12
?PM_CheckWaterJump@@YAXXZ PROC				; PM_CheckWaterJump, COMDAT

; 3083 : {

	push	ebp
	mov	ebp, esp
	sub	esp, 552				; 00000228H
	push	ebx
	push	esi
	push	edi

; 3084 : 	Vector	vecStart, vecEnd;

	lea	ecx, DWORD PTR _vecStart$[ebp]
	call	??0Vector@@QAE@XZ			; Vector::Vector
	lea	ecx, DWORD PTR _vecEnd$[ebp]
	call	??0Vector@@QAE@XZ			; Vector::Vector

; 3085 : 	Vector	flatforward;

	lea	ecx, DWORD PTR _flatforward$[ebp]
	call	??0Vector@@QAE@XZ			; Vector::Vector

; 3086 : 	Vector	flatvelocity;

	lea	ecx, DWORD PTR _flatvelocity$[ebp]
	call	??0Vector@@QAE@XZ			; Vector::Vector

; 3087 : 	float curspeed;
; 3088 : 	pmtrace_t tr;

	lea	ecx, DWORD PTR _tr$[ebp]
	call	??0pmtrace_s@@QAE@XZ

; 3089 : 	int		savehull;
; 3090 : 
; 3091 : 	// Already water jumping.
; 3092 : 	if ( pmove->waterjumptime )

	mov	eax, DWORD PTR ?pmove@@3PAUplayermove_s@@A ; pmove
	movss	xmm0, DWORD PTR [eax+204]
	ucomiss	xmm0, DWORD PTR __real@00000000
	lahf
	test	ah, 68					; 00000044H
	jnp	SHORT $LN2@PM_CheckWa

; 3093 : 		return;

	jmp	$LN1@PM_CheckWa
$LN2@PM_CheckWa:

; 3094 : 
; 3095 : 	// Don't hop out if we just jumped in
; 3096 : 	if ( pmove->velocity[2] < -180 && !( pmove->effects & EF_UPSIDEDOWN ) )

	mov	ecx, DWORD PTR ?pmove@@3PAUplayermove_s@@A ; pmove
	add	ecx, 92					; 0000005cH
	call	??BVector@@QAEPAMXZ			; Vector::operator float *
	mov	ecx, 4
	shl	ecx, 1
	movss	xmm0, DWORD PTR __real@c3340000
	comiss	xmm0, DWORD PTR [eax+ecx]
	jbe	SHORT $LN3@PM_CheckWa
	mov	eax, DWORD PTR ?pmove@@3PAUplayermove_s@@A ; pmove
	mov	ecx, DWORD PTR [eax+180]
	and	ecx, 4194304				; 00400000H
	jne	SHORT $LN3@PM_CheckWa

; 3097 : 		return; // only hop out if we are moving up

	jmp	$LN1@PM_CheckWa
$LN3@PM_CheckWa:

; 3098 : 	if( pmove->velocity[2] > -180 && (pmove->effects & EF_UPSIDEDOWN) )

	mov	ecx, DWORD PTR ?pmove@@3PAUplayermove_s@@A ; pmove
	add	ecx, 92					; 0000005cH
	call	??BVector@@QAEPAMXZ			; Vector::operator float *
	mov	ecx, 4
	shl	ecx, 1
	movss	xmm0, DWORD PTR [eax+ecx]
	comiss	xmm0, DWORD PTR __real@c3340000
	jbe	SHORT $LN4@PM_CheckWa
	mov	eax, DWORD PTR ?pmove@@3PAUplayermove_s@@A ; pmove
	mov	ecx, DWORD PTR [eax+180]
	and	ecx, 4194304				; 00400000H
	je	SHORT $LN4@PM_CheckWa

; 3099 : 		return; // only hop out if we are moving up

	jmp	$LN1@PM_CheckWa
$LN4@PM_CheckWa:

; 3100 : 
; 3101 : 	// See if we are backing up
; 3102 : 	flatvelocity[0] = pmove->velocity[0];

	mov	ecx, DWORD PTR ?pmove@@3PAUplayermove_s@@A ; pmove
	add	ecx, 92					; 0000005cH
	call	??BVector@@QAEPAMXZ			; Vector::operator float *
	mov	esi, eax
	mov	eax, 4
	imul	edi, eax, 0
	lea	ecx, DWORD PTR _flatvelocity$[ebp]
	call	??BVector@@QAEPAMXZ			; Vector::operator float *
	mov	ecx, 4
	imul	edx, ecx, 0
	mov	ecx, DWORD PTR [esi+edi]
	mov	DWORD PTR [eax+edx], ecx

; 3103 : 	flatvelocity[1] = pmove->velocity[1];

	mov	ecx, DWORD PTR ?pmove@@3PAUplayermove_s@@A ; pmove
	add	ecx, 92					; 0000005cH
	call	??BVector@@QAEPAMXZ			; Vector::operator float *
	mov	esi, eax
	mov	edi, 4
	shl	edi, 0
	lea	ecx, DWORD PTR _flatvelocity$[ebp]
	call	??BVector@@QAEPAMXZ			; Vector::operator float *
	mov	ecx, 4
	shl	ecx, 0
	mov	edx, DWORD PTR [esi+edi]
	mov	DWORD PTR [eax+ecx], edx

; 3104 : 	flatvelocity[2] = 0;

	lea	ecx, DWORD PTR _flatvelocity$[ebp]
	call	??BVector@@QAEPAMXZ			; Vector::operator float *
	mov	ecx, 4
	shl	ecx, 1
	xorps	xmm0, xmm0
	movss	DWORD PTR [eax+ecx], xmm0

; 3105 : 
; 3106 : 	// Must be moving
; 3107 : 	curspeed = flatvelocity.Length();

	lea	ecx, DWORD PTR _flatvelocity$[ebp]
	call	?Length@Vector@@QBEMXZ			; Vector::Length
	fstp	DWORD PTR _curspeed$[ebp]

; 3108 : 	flatvelocity = flatvelocity.Normalize();

	lea	eax, DWORD PTR $T11[ebp]
	push	eax
	lea	ecx, DWORD PTR _flatvelocity$[ebp]
	call	?Normalize@Vector@@QBE?AV1@XZ		; Vector::Normalize
	mov	ecx, DWORD PTR [eax]
	mov	DWORD PTR _flatvelocity$[ebp], ecx
	mov	edx, DWORD PTR [eax+4]
	mov	DWORD PTR _flatvelocity$[ebp+4], edx
	mov	eax, DWORD PTR [eax+8]
	mov	DWORD PTR _flatvelocity$[ebp+8], eax

; 3109 : 	
; 3110 : 	// see if near an edge
; 3111 : 	flatforward[0] = pmove->forward[0];

	mov	ecx, DWORD PTR ?pmove@@3PAUplayermove_s@@A ; pmove
	add	ecx, 20					; 00000014H
	call	??BVector@@QAEPAMXZ			; Vector::operator float *
	mov	esi, eax
	mov	eax, 4
	imul	edi, eax, 0
	lea	ecx, DWORD PTR _flatforward$[ebp]
	call	??BVector@@QAEPAMXZ			; Vector::operator float *
	mov	ecx, 4
	imul	edx, ecx, 0
	mov	ecx, DWORD PTR [esi+edi]
	mov	DWORD PTR [eax+edx], ecx

; 3112 : 	flatforward[1] = pmove->forward[1];

	mov	ecx, DWORD PTR ?pmove@@3PAUplayermove_s@@A ; pmove
	add	ecx, 20					; 00000014H
	call	??BVector@@QAEPAMXZ			; Vector::operator float *
	mov	esi, eax
	mov	edi, 4
	shl	edi, 0
	lea	ecx, DWORD PTR _flatforward$[ebp]
	call	??BVector@@QAEPAMXZ			; Vector::operator float *
	mov	ecx, 4
	shl	ecx, 0
	mov	edx, DWORD PTR [esi+edi]
	mov	DWORD PTR [eax+ecx], edx

; 3113 : 	flatforward[2] = 0;

	lea	ecx, DWORD PTR _flatforward$[ebp]
	call	??BVector@@QAEPAMXZ			; Vector::operator float *
	mov	ecx, 4
	shl	ecx, 1
	xorps	xmm0, xmm0
	movss	DWORD PTR [eax+ecx], xmm0

; 3114 : 	flatforward = flatforward.Normalize();

	lea	eax, DWORD PTR $T10[ebp]
	push	eax
	lea	ecx, DWORD PTR _flatforward$[ebp]
	call	?Normalize@Vector@@QBE?AV1@XZ		; Vector::Normalize
	mov	ecx, DWORD PTR [eax]
	mov	DWORD PTR _flatforward$[ebp], ecx
	mov	edx, DWORD PTR [eax+4]
	mov	DWORD PTR _flatforward$[ebp+4], edx
	mov	eax, DWORD PTR [eax+8]
	mov	DWORD PTR _flatforward$[ebp+8], eax

; 3115 : 
; 3116 : 	// Are we backing into water from steps or something?  If so, don't pop forward
; 3117 : 	if ( curspeed != 0.0 && ( DotProduct( flatvelocity, flatforward ) < 0.0 ) )

	cvtss2sd xmm0, DWORD PTR _curspeed$[ebp]
	ucomisd	xmm0, QWORD PTR __real@0000000000000000
	lahf
	test	ah, 68					; 00000044H
	jnp	SHORT $LN5@PM_CheckWa
	lea	eax, DWORD PTR _flatforward$[ebp]
	push	eax
	lea	ecx, DWORD PTR _flatvelocity$[ebp]
	push	ecx
	call	?DotProduct@@YAMABVVector@@0@Z		; DotProduct
	add	esp, 8
	fstp	QWORD PTR tv397[ebp]
	xorps	xmm0, xmm0
	comisd	xmm0, QWORD PTR tv397[ebp]
	jbe	SHORT $LN5@PM_CheckWa

; 3118 : 		return;

	jmp	$LN1@PM_CheckWa
$LN5@PM_CheckWa:

; 3119 : 
; 3120 : 	vecStart = pmove->origin;

	mov	eax, DWORD PTR ?pmove@@3PAUplayermove_s@@A ; pmove
	add	eax, 56					; 00000038H
	mov	ecx, DWORD PTR [eax]
	mov	DWORD PTR _vecStart$[ebp], ecx
	mov	edx, DWORD PTR [eax+4]
	mov	DWORD PTR _vecStart$[ebp+4], edx
	mov	eax, DWORD PTR [eax+8]
	mov	DWORD PTR _vecStart$[ebp+8], eax

; 3121 : 	if( pmove->effects & EF_UPSIDEDOWN )

	mov	eax, DWORD PTR ?pmove@@3PAUplayermove_s@@A ; pmove
	mov	ecx, DWORD PTR [eax+180]
	and	ecx, 4194304				; 00400000H
	je	SHORT $LN6@PM_CheckWa

; 3122 : 		vecStart.z -= WJ_HEIGHT;

	movss	xmm0, DWORD PTR _vecStart$[ebp+8]
	subss	xmm0, DWORD PTR __real@41000000
	movss	DWORD PTR _vecStart$[ebp+8], xmm0

; 3123 : 	else

	jmp	SHORT $LN7@PM_CheckWa
$LN6@PM_CheckWa:

; 3124 : 		vecStart.z += WJ_HEIGHT;

	movss	xmm0, DWORD PTR _vecStart$[ebp+8]
	addss	xmm0, DWORD PTR __real@41000000
	movss	DWORD PTR _vecStart$[ebp+8], xmm0
$LN7@PM_CheckWa:

; 3125 : 
; 3126 : 	vecEnd = vecStart + flatforward * 24;

	push	ecx
	movss	xmm0, DWORD PTR __real@41c00000
	movss	DWORD PTR [esp], xmm0
	lea	eax, DWORD PTR $T9[ebp]
	push	eax
	lea	ecx, DWORD PTR _flatforward$[ebp]
	call	??DVector@@QBE?AV0@M@Z			; Vector::operator*
	push	eax
	lea	ecx, DWORD PTR $T8[ebp]
	push	ecx
	lea	ecx, DWORD PTR _vecStart$[ebp]
	call	??HVector@@QBE?AV0@ABV0@@Z		; Vector::operator+
	mov	edx, DWORD PTR [eax]
	mov	DWORD PTR _vecEnd$[ebp], edx
	mov	ecx, DWORD PTR [eax+4]
	mov	DWORD PTR _vecEnd$[ebp+4], ecx
	mov	edx, DWORD PTR [eax+8]
	mov	DWORD PTR _vecEnd$[ebp+8], edx

; 3127 : 	
; 3128 : 	// Trace, this trace should use the point sized collision hull
; 3129 : 	savehull = pmove->usehull;

	mov	eax, DWORD PTR ?pmove@@3PAUplayermove_s@@A ; pmove
	mov	ecx, DWORD PTR [eax+188]
	mov	DWORD PTR _savehull$[ebp], ecx

; 3130 : 	pmove->usehull = 2;

	mov	eax, DWORD PTR ?pmove@@3PAUplayermove_s@@A ; pmove
	mov	DWORD PTR [eax+188], 2

; 3131 : 	tr = pmove->PM_PlayerTrace( vecStart, vecEnd, PM_NORMAL, -1 );

	push	-1
	push	0
	lea	ecx, DWORD PTR _vecEnd$[ebp]
	call	??BVector@@QAEPAMXZ			; Vector::operator float *
	push	eax
	lea	ecx, DWORD PTR _vecStart$[ebp]
	call	??BVector@@QAEPAMXZ			; Vector::operator float *
	push	eax
	lea	eax, DWORD PTR $T6[ebp]
	push	eax
	mov	ecx, DWORD PTR ?pmove@@3PAUplayermove_s@@A ; pmove
	mov	edx, DWORD PTR [ecx+324992]
	call	edx
	add	esp, 20					; 00000014H
	mov	ecx, 17					; 00000011H
	mov	esi, eax
	lea	edi, DWORD PTR $T7[ebp]
	rep movsd
	mov	ecx, 17					; 00000011H
	lea	esi, DWORD PTR $T7[ebp]
	lea	edi, DWORD PTR _tr$[ebp]
	rep movsd

; 3132 : 	if ( 
; 3133 : 		 tr.fraction < 1.0 && 

	cvtss2sd xmm0, DWORD PTR _tr$[ebp+16]
	movsd	xmm1, QWORD PTR __real@3ff0000000000000
	comisd	xmm1, xmm0
	jbe	$LN13@PM_CheckWa
	mov	eax, DWORD PTR ?pmove@@3PAUplayermove_s@@A ; pmove
	mov	ecx, DWORD PTR [eax+180]
	and	ecx, 4194304				; 00400000H
	jne	SHORT $LN10@PM_CheckWa
	lea	ecx, DWORD PTR _tr$[ebp+32]
	call	??BVector@@QAEPAMXZ			; Vector::operator float *
	mov	ecx, 4
	shl	ecx, 1
	cvtss2sd xmm0, DWORD PTR [eax+ecx]
	sub	esp, 8
	movsd	QWORD PTR [esp], xmm0
	call	_fabs
	add	esp, 8
	fstp	QWORD PTR tv482[ebp]
	movsd	xmm0, QWORD PTR __real@3fb99999a0000000
	comisd	xmm0, QWORD PTR tv482[ebp]
	ja	SHORT $LN9@PM_CheckWa
$LN10@PM_CheckWa:
	mov	eax, DWORD PTR ?pmove@@3PAUplayermove_s@@A ; pmove
	mov	ecx, DWORD PTR [eax+180]
	and	ecx, 4194304				; 00400000H
	je	$LN13@PM_CheckWa
	lea	ecx, DWORD PTR _tr$[ebp+32]
	call	??BVector@@QAEPAMXZ			; Vector::operator float *
	mov	ecx, 4
	shl	ecx, 1
	cvtss2sd xmm0, DWORD PTR [eax+ecx]
	sub	esp, 8
	movsd	QWORD PTR [esp], xmm0
	call	_fabs
	add	esp, 8
	fstp	QWORD PTR tv492[ebp]
	movsd	xmm0, QWORD PTR tv492[ebp]
	comisd	xmm0, QWORD PTR __real@bfb99999a0000000
	jbe	$LN13@PM_CheckWa
$LN9@PM_CheckWa:

; 3134 : 			( (!(pmove->effects & EF_UPSIDEDOWN) && fabs( tr.plane.normal[2] ) < 0.1f) ||
; 3135 : 				((pmove->effects & EF_UPSIDEDOWN) && fabs( tr.plane.normal[2] ) > -0.1f)
; 3136 : 			)
; 3137 : 		)  // Facing a near vertical wall?
; 3138 : 	{
; 3139 : 		if (pmove->effects & EF_UPSIDEDOWN)

	mov	eax, DWORD PTR ?pmove@@3PAUplayermove_s@@A ; pmove
	mov	ecx, DWORD PTR [eax+180]
	and	ecx, 4194304				; 00400000H
	je	SHORT $LN11@PM_CheckWa

; 3140 : 			vecStart[2] -= pmove->player_maxs[savehull][2] - WJ_HEIGHT;

	lea	ecx, DWORD PTR _vecStart$[ebp]
	call	??BVector@@QAEPAMXZ			; Vector::operator float *
	mov	ecx, 4
	shl	ecx, 1
	add	eax, ecx
	mov	DWORD PTR tv251[ebp], eax
	imul	edx, DWORD PTR _savehull$[ebp], 12
	mov	eax, DWORD PTR ?pmove@@3PAUplayermove_s@@A ; pmove
	lea	ecx, DWORD PTR [eax+edx+324900]
	call	??BVector@@QAEPAMXZ			; Vector::operator float *
	mov	ecx, 4
	shl	ecx, 1
	movss	xmm0, DWORD PTR [eax+ecx]
	subss	xmm0, DWORD PTR __real@41000000
	mov	edx, DWORD PTR tv251[ebp]
	movss	xmm1, DWORD PTR [edx]
	subss	xmm1, xmm0
	mov	eax, DWORD PTR tv251[ebp]
	movss	DWORD PTR [eax], xmm1

; 3141 : 		else

	jmp	SHORT $LN12@PM_CheckWa
$LN11@PM_CheckWa:

; 3142 : 			vecStart[2] += pmove->player_maxs[ savehull ][2] - WJ_HEIGHT;

	lea	ecx, DWORD PTR _vecStart$[ebp]
	call	??BVector@@QAEPAMXZ			; Vector::operator float *
	mov	ecx, 4
	shl	ecx, 1
	add	eax, ecx
	mov	DWORD PTR tv265[ebp], eax
	imul	edx, DWORD PTR _savehull$[ebp], 12
	mov	eax, DWORD PTR ?pmove@@3PAUplayermove_s@@A ; pmove
	lea	ecx, DWORD PTR [eax+edx+324900]
	call	??BVector@@QAEPAMXZ			; Vector::operator float *
	mov	ecx, 4
	shl	ecx, 1
	movss	xmm0, DWORD PTR [eax+ecx]
	subss	xmm0, DWORD PTR __real@41000000
	mov	edx, DWORD PTR tv265[ebp]
	addss	xmm0, DWORD PTR [edx]
	mov	eax, DWORD PTR tv265[ebp]
	movss	DWORD PTR [eax], xmm0
$LN12@PM_CheckWa:

; 3143 : 
; 3144 : 		vecEnd = vecStart + flatforward * 24;

	push	ecx
	movss	xmm0, DWORD PTR __real@41c00000
	movss	DWORD PTR [esp], xmm0
	lea	eax, DWORD PTR $T5[ebp]
	push	eax
	lea	ecx, DWORD PTR _flatforward$[ebp]
	call	??DVector@@QBE?AV0@M@Z			; Vector::operator*
	push	eax
	lea	ecx, DWORD PTR $T4[ebp]
	push	ecx
	lea	ecx, DWORD PTR _vecStart$[ebp]
	call	??HVector@@QBE?AV0@ABV0@@Z		; Vector::operator+
	mov	edx, DWORD PTR [eax]
	mov	DWORD PTR _vecEnd$[ebp], edx
	mov	ecx, DWORD PTR [eax+4]
	mov	DWORD PTR _vecEnd$[ebp+4], ecx
	mov	edx, DWORD PTR [eax+8]
	mov	DWORD PTR _vecEnd$[ebp+8], edx

; 3145 : 		pmove->movedir = tr.plane.normal * -50;

	push	ecx
	movss	xmm0, DWORD PTR __real@c2480000
	movss	DWORD PTR [esp], xmm0
	lea	eax, DWORD PTR $T3[ebp]
	push	eax
	lea	ecx, DWORD PTR _tr$[ebp+32]
	call	??DVector@@QBE?AV0@M@Z			; Vector::operator*
	mov	ecx, DWORD PTR ?pmove@@3PAUplayermove_s@@A ; pmove
	add	ecx, 104				; 00000068H
	mov	edx, DWORD PTR [eax]
	mov	DWORD PTR [ecx], edx
	mov	edx, DWORD PTR [eax+4]
	mov	DWORD PTR [ecx+4], edx
	mov	eax, DWORD PTR [eax+8]
	mov	DWORD PTR [ecx+8], eax

; 3146 : 
; 3147 : 		tr = pmove->PM_PlayerTrace( vecStart, vecEnd, PM_NORMAL, -1 );

	push	-1
	push	0
	lea	ecx, DWORD PTR _vecEnd$[ebp]
	call	??BVector@@QAEPAMXZ			; Vector::operator float *
	push	eax
	lea	ecx, DWORD PTR _vecStart$[ebp]
	call	??BVector@@QAEPAMXZ			; Vector::operator float *
	push	eax
	lea	eax, DWORD PTR $T1[ebp]
	push	eax
	mov	ecx, DWORD PTR ?pmove@@3PAUplayermove_s@@A ; pmove
	mov	edx, DWORD PTR [ecx+324992]
	call	edx
	add	esp, 20					; 00000014H
	mov	ecx, 17					; 00000011H
	mov	esi, eax
	lea	edi, DWORD PTR $T2[ebp]
	rep movsd
	mov	ecx, 17					; 00000011H
	lea	esi, DWORD PTR $T2[ebp]
	lea	edi, DWORD PTR _tr$[ebp]
	rep movsd

; 3148 : 		if ( tr.fraction == 1.0 )

	cvtss2sd xmm0, DWORD PTR _tr$[ebp+16]
	ucomisd	xmm0, QWORD PTR __real@3ff0000000000000
	lahf
	test	ah, 68					; 00000044H
	jp	$LN13@PM_CheckWa

; 3149 : 		{
; 3150 : 			pmove->waterjumptime = 2000;

	mov	eax, DWORD PTR ?pmove@@3PAUplayermove_s@@A ; pmove
	movss	xmm0, DWORD PTR __real@44fa0000
	movss	DWORD PTR [eax+204], xmm0

; 3151 : 			pmove->velocity[2] = 225;

	mov	ecx, DWORD PTR ?pmove@@3PAUplayermove_s@@A ; pmove
	add	ecx, 92					; 0000005cH
	call	??BVector@@QAEPAMXZ			; Vector::operator float *
	mov	ecx, 4
	shl	ecx, 1
	movss	xmm0, DWORD PTR __real@43610000
	movss	DWORD PTR [eax+ecx], xmm0

; 3152 : 			if( pmove->effects & EF_UPSIDEDOWN )

	mov	eax, DWORD PTR ?pmove@@3PAUplayermove_s@@A ; pmove
	mov	ecx, DWORD PTR [eax+180]
	and	ecx, 4194304				; 00400000H
	je	SHORT $LN14@PM_CheckWa

; 3153 : 				pmove->velocity[2] *= -1;

	mov	ecx, DWORD PTR ?pmove@@3PAUplayermove_s@@A ; pmove
	add	ecx, 92					; 0000005cH
	call	??BVector@@QAEPAMXZ			; Vector::operator float *
	mov	ecx, 4
	shl	ecx, 1
	add	eax, ecx
	mov	DWORD PTR tv310[ebp], eax
	mov	edx, DWORD PTR tv310[ebp]
	movss	xmm0, DWORD PTR [edx]
	mulss	xmm0, DWORD PTR __real@bf800000
	mov	eax, DWORD PTR tv310[ebp]
	movss	DWORD PTR [eax], xmm0
$LN14@PM_CheckWa:

; 3154 : 			pmove->oldbuttons |= IN_JUMP;

	mov	eax, DWORD PTR ?pmove@@3PAUplayermove_s@@A ; pmove
	mov	ecx, DWORD PTR [eax+200]
	or	ecx, 2
	mov	edx, DWORD PTR ?pmove@@3PAUplayermove_s@@A ; pmove
	mov	DWORD PTR [edx+200], ecx

; 3155 : 			pmove->flags |= FL_WATERJUMP;

	mov	eax, DWORD PTR ?pmove@@3PAUplayermove_s@@A ; pmove
	mov	ecx, DWORD PTR [eax+184]
	or	ecx, 2048				; 00000800H
	mov	edx, DWORD PTR ?pmove@@3PAUplayermove_s@@A ; pmove
	mov	DWORD PTR [edx+184], ecx
$LN13@PM_CheckWa:

; 3156 : 		}
; 3157 : 	}
; 3158 : 
; 3159 : 	// Reset the collision hull
; 3160 : 	pmove->usehull = savehull;

	mov	eax, DWORD PTR ?pmove@@3PAUplayermove_s@@A ; pmove
	mov	ecx, DWORD PTR _savehull$[ebp]
	mov	DWORD PTR [eax+188], ecx
$LN1@PM_CheckWa:

; 3161 : }

	pop	edi
	pop	esi
	pop	ebx
	mov	esp, ebp
	pop	ebp
	ret	0
?PM_CheckWaterJump@@YAXXZ ENDP				; PM_CheckWaterJump
_TEXT	ENDS
; Function compile flags: /Odtp /ZI
; File d:\!diffusion 2020\source code 2022\client-server\game_shared\playermove.cpp
;	COMDAT ?PM_Jump@@YAXXZ
_TEXT	SEGMENT
tv580 = -84						; size = 4
tv578 = -84						; size = 4
tv576 = -84						; size = 4
tv542 = -80						; size = 4
tv526 = -80						; size = 4
tv507 = -80						; size = 4
tv491 = -80						; size = 4
tv475 = -80						; size = 4
tv455 = -80						; size = 4
tv346 = -80						; size = 4
tv337 = -80						; size = 4
tv306 = -80						; size = 4
tv288 = -80						; size = 4
tv270 = -80						; size = 4
tv160 = -80						; size = 4
tv212 = -77						; size = 1
tv80 = -77						; size = 1
_cansuperjump$ = -12					; size = 4
_tfc$ = -8						; size = 4
_i$ = -4						; size = 4
?PM_Jump@@YAXXZ PROC					; PM_Jump, COMDAT

; 2938 : {

	push	ebp
	mov	ebp, esp
	sub	esp, 84					; 00000054H
	push	ebx
	push	esi
	push	edi

; 2939 : 	int i;
; 2940 : 	qboolean tfc = false;

	mov	DWORD PTR _tfc$[ebp], 0

; 2941 : 
; 2942 : 	qboolean cansuperjump = false;

	mov	DWORD PTR _cansuperjump$[ebp], 0

; 2943 : 
; 2944 : 	if (pmove->dead || pmove->flags & FL_ONTRAIN) // diffusion - added ontrain

	mov	eax, DWORD PTR ?pmove@@3PAUplayermove_s@@A ; pmove
	cmp	DWORD PTR [eax+208], 0
	jne	SHORT $LN8@PM_Jump
	mov	eax, DWORD PTR ?pmove@@3PAUplayermove_s@@A ; pmove
	mov	ecx, DWORD PTR [eax+184]
	and	ecx, 16777216				; 01000000H
	je	SHORT $LN7@PM_Jump
$LN8@PM_Jump:

; 2945 : 	{
; 2946 : 		pmove->oldbuttons |= IN_JUMP ;	// don't jump again until released

	mov	eax, DWORD PTR ?pmove@@3PAUplayermove_s@@A ; pmove
	mov	ecx, DWORD PTR [eax+200]
	or	ecx, 2
	mov	edx, DWORD PTR ?pmove@@3PAUplayermove_s@@A ; pmove
	mov	DWORD PTR [edx+200], ecx

; 2947 : 		return;

	jmp	$LN1@PM_Jump
$LN7@PM_Jump:

; 2948 : 	}
; 2949 : 
; 2950 : 	tfc = atoi( pmove->PM_Info_ValueForKey( pmove->physinfo, "tfc" ) ) == 1 ? true : false;

	push	OFFSET ??_C@_03DIGMJINO@tfc?$AA@
	mov	eax, DWORD PTR ?pmove@@3PAUplayermove_s@@A ; pmove
	add	eax, 324592				; 0004f3f0H
	push	eax
	mov	ecx, DWORD PTR ?pmove@@3PAUplayermove_s@@A ; pmove
	mov	edx, DWORD PTR [ecx+324948]
	call	edx
	add	esp, 8
	push	eax
	call	_atoi
	add	esp, 4
	cmp	eax, 1
	jne	SHORT $LN35@PM_Jump
	mov	BYTE PTR tv80[ebp], 1
	jmp	SHORT $LN36@PM_Jump
$LN35@PM_Jump:
	mov	BYTE PTR tv80[ebp], 0
$LN36@PM_Jump:
	movzx	eax, BYTE PTR tv80[ebp]
	mov	DWORD PTR _tfc$[ebp], eax

; 2951 : 
; 2952 : 	// Spy that's feigning death cannot jump
; 2953 : 	if ( tfc && ( pmove->deadflag == ( DEAD_DISCARDBODY + 1 ) ) )

	cmp	DWORD PTR _tfc$[ebp], 0
	je	SHORT $LN9@PM_Jump
	mov	eax, DWORD PTR ?pmove@@3PAUplayermove_s@@A ; pmove
	cmp	DWORD PTR [eax+212], 5
	jne	SHORT $LN9@PM_Jump

; 2954 : 		return;

	jmp	$LN1@PM_Jump
$LN9@PM_Jump:

; 2955 : 
; 2956 : 	// See if we are waterjumping.  If so, decrement count and return.
; 2957 : 	if ( pmove->waterjumptime )

	mov	eax, DWORD PTR ?pmove@@3PAUplayermove_s@@A ; pmove
	movss	xmm0, DWORD PTR [eax+204]
	ucomiss	xmm0, DWORD PTR __real@00000000
	lahf
	test	ah, 68					; 00000044H
	jnp	SHORT $LN10@PM_Jump

; 2958 : 	{
; 2959 : 		pmove->waterjumptime -= pmove->cmd.msec;

	mov	eax, DWORD PTR ?pmove@@3PAUplayermove_s@@A ; pmove
	movzx	ecx, BYTE PTR [eax+283738]
	cvtsi2ss xmm0, ecx
	mov	edx, DWORD PTR ?pmove@@3PAUplayermove_s@@A ; pmove
	movss	xmm1, DWORD PTR [edx+204]
	subss	xmm1, xmm0
	mov	eax, DWORD PTR ?pmove@@3PAUplayermove_s@@A ; pmove
	movss	DWORD PTR [eax+204], xmm1

; 2960 : 		if (pmove->waterjumptime < 0)

	mov	eax, DWORD PTR ?pmove@@3PAUplayermove_s@@A ; pmove
	xorps	xmm0, xmm0
	comiss	xmm0, DWORD PTR [eax+204]
	jbe	SHORT $LN11@PM_Jump

; 2961 : 			pmove->waterjumptime = 0;

	mov	eax, DWORD PTR ?pmove@@3PAUplayermove_s@@A ; pmove
	xorps	xmm0, xmm0
	movss	DWORD PTR [eax+204], xmm0
$LN11@PM_Jump:

; 2962 : 		return;

	jmp	$LN1@PM_Jump
$LN10@PM_Jump:

; 2963 : 	}
; 2964 : 
; 2965 : 	// If we are in the water most of the way...
; 2966 : 	if (pmove->waterlevel >= 2 && pmove->watertype != CONTENTS_FOG)

	mov	eax, DWORD PTR ?pmove@@3PAUplayermove_s@@A ; pmove
	cmp	DWORD PTR [eax+228], 2
	jl	$LN12@PM_Jump
	mov	eax, DWORD PTR ?pmove@@3PAUplayermove_s@@A ; pmove
	cmp	DWORD PTR [eax+232], -19		; ffffffedH
	je	$LN12@PM_Jump

; 2967 : 	{	// swimming, not jumping
; 2968 : 		pmove->onground = -1;

	mov	eax, DWORD PTR ?pmove@@3PAUplayermove_s@@A ; pmove
	mov	DWORD PTR [eax+224], -1

; 2969 : 
; 2970 : 		if (pmove->watertype == CONTENTS_WATER)    // We move up a certain amount

	mov	eax, DWORD PTR ?pmove@@3PAUplayermove_s@@A ; pmove
	cmp	DWORD PTR [eax+232], -3			; fffffffdH
	jne	SHORT $LN13@PM_Jump

; 2971 : 			pmove->velocity[2] = 100;

	mov	ecx, DWORD PTR ?pmove@@3PAUplayermove_s@@A ; pmove
	add	ecx, 92					; 0000005cH
	call	??BVector@@QAEPAMXZ			; Vector::operator float *
	mov	ecx, 4
	shl	ecx, 1
	movss	xmm0, DWORD PTR __real@42c80000
	movss	DWORD PTR [eax+ecx], xmm0
	jmp	SHORT $LN16@PM_Jump
$LN13@PM_Jump:

; 2972 : 		else if (pmove->watertype == CONTENTS_SLIME)

	mov	eax, DWORD PTR ?pmove@@3PAUplayermove_s@@A ; pmove
	cmp	DWORD PTR [eax+232], -4			; fffffffcH
	jne	SHORT $LN15@PM_Jump

; 2973 : 			pmove->velocity[2] = 80;

	mov	ecx, DWORD PTR ?pmove@@3PAUplayermove_s@@A ; pmove
	add	ecx, 92					; 0000005cH
	call	??BVector@@QAEPAMXZ			; Vector::operator float *
	mov	ecx, 4
	shl	ecx, 1
	movss	xmm0, DWORD PTR __real@42a00000
	movss	DWORD PTR [eax+ecx], xmm0

; 2974 : 		else  // LAVA

	jmp	SHORT $LN16@PM_Jump
$LN15@PM_Jump:

; 2975 : 			pmove->velocity[2] = 50;

	mov	ecx, DWORD PTR ?pmove@@3PAUplayermove_s@@A ; pmove
	add	ecx, 92					; 0000005cH
	call	??BVector@@QAEPAMXZ			; Vector::operator float *
	mov	ecx, 4
	shl	ecx, 1
	movss	xmm0, DWORD PTR __real@42480000
	movss	DWORD PTR [eax+ecx], xmm0
$LN16@PM_Jump:

; 2976 : 
; 2977 : 		// play swiming sound
; 2978 : 		if ( pmove->flSwimTime <= 0 )

	mov	eax, DWORD PTR ?pmove@@3PAUplayermove_s@@A ; pmove
	xorps	xmm0, xmm0
	comiss	xmm0, DWORD PTR [eax+172]
	jb	$LN2@PM_Jump

; 2979 : 		{
; 2980 : 			// Don't play sound again for 1 second
; 2981 : 			pmove->flSwimTime = 1000;

	mov	eax, DWORD PTR ?pmove@@3PAUplayermove_s@@A ; pmove
	movss	xmm0, DWORD PTR __real@447a0000
	movss	DWORD PTR [eax+172], xmm0

; 2982 : 			switch ( pmove->RandomLong( 0, 3 ) )

	push	3
	push	0
	mov	eax, DWORD PTR ?pmove@@3PAUplayermove_s@@A ; pmove
	mov	ecx, DWORD PTR [eax+325000]
	call	ecx
	add	esp, 8
	mov	DWORD PTR tv160[ebp], eax
	cmp	DWORD PTR tv160[ebp], 3
	ja	$LN2@PM_Jump
	mov	edx, DWORD PTR tv160[ebp]
	jmp	DWORD PTR $LN39@PM_Jump[edx*4]
$LN18@PM_Jump:

; 2983 : 			{ 
; 2984 : 			case 0:
; 2985 : 				pmove->PM_PlaySound( CHAN_BODY, "footsteps/wade1.wav", 1, ATTN_NORM, 0, PITCH_NORM );

	push	100					; 00000064H
	push	0
	push	ecx
	movss	xmm0, DWORD PTR __real@3f4ccccd
	movss	DWORD PTR [esp], xmm0
	push	ecx
	movss	xmm0, DWORD PTR __real@3f800000
	movss	DWORD PTR [esp], xmm0
	push	OFFSET ??_C@_0BE@FOEPOJBH@footsteps?1wade1?4wav?$AA@
	push	4
	mov	eax, DWORD PTR ?pmove@@3PAUplayermove_s@@A ; pmove
	mov	ecx, DWORD PTR [eax+325044]
	call	ecx
	add	esp, 24					; 00000018H

; 2986 : 				break;

	jmp	$LN2@PM_Jump
$LN19@PM_Jump:

; 2987 : 			case 1:
; 2988 : 				pmove->PM_PlaySound( CHAN_BODY, "footsteps/wade2.wav", 1, ATTN_NORM, 0, PITCH_NORM );

	push	100					; 00000064H
	push	0
	push	ecx
	movss	xmm0, DWORD PTR __real@3f4ccccd
	movss	DWORD PTR [esp], xmm0
	push	ecx
	movss	xmm0, DWORD PTR __real@3f800000
	movss	DWORD PTR [esp], xmm0
	push	OFFSET ??_C@_0BE@NINLJLLJ@footsteps?1wade2?4wav?$AA@
	push	4
	mov	eax, DWORD PTR ?pmove@@3PAUplayermove_s@@A ; pmove
	mov	ecx, DWORD PTR [eax+325044]
	call	ecx
	add	esp, 24					; 00000018H

; 2989 : 				break;

	jmp	SHORT $LN2@PM_Jump
$LN20@PM_Jump:

; 2990 : 			case 2:
; 2991 : 				pmove->PM_PlaySound( CHAN_BODY, "footsteps/wade3.wav", 1, ATTN_NORM, 0, PITCH_NORM );

	push	100					; 00000064H
	push	0
	push	ecx
	movss	xmm0, DWORD PTR __real@3f4ccccd
	movss	DWORD PTR [esp], xmm0
	push	ecx
	movss	xmm0, DWORD PTR __real@3f800000
	movss	DWORD PTR [esp], xmm0
	push	OFFSET ??_C@_0BE@BDIHEIBM@footsteps?1wade3?4wav?$AA@
	push	4
	mov	eax, DWORD PTR ?pmove@@3PAUplayermove_s@@A ; pmove
	mov	ecx, DWORD PTR [eax+325044]
	call	ecx
	add	esp, 24					; 00000018H

; 2992 : 				break;

	jmp	SHORT $LN2@PM_Jump
$LN21@PM_Jump:

; 2993 : 			case 3:
; 2994 : 				pmove->PM_PlaySound( CHAN_BODY, "footsteps/wade4.wav", 1, ATTN_NORM, 0, PITCH_NORM );

	push	100					; 00000064H
	push	0
	push	ecx
	movss	xmm0, DWORD PTR __real@3f4ccccd
	movss	DWORD PTR [esp], xmm0
	push	ecx
	movss	xmm0, DWORD PTR __real@3f800000
	movss	DWORD PTR [esp], xmm0
	push	OFFSET ??_C@_0BE@OICHIKE@footsteps?1wade4?4wav?$AA@
	push	4
	mov	eax, DWORD PTR ?pmove@@3PAUplayermove_s@@A ; pmove
	mov	ecx, DWORD PTR [eax+325044]
	call	ecx
	add	esp, 24					; 00000018H
$LN2@PM_Jump:

; 2995 : 				break;
; 2996 : 			}
; 2997 : 		}
; 2998 : 
; 2999 : 		return;

	jmp	$LN1@PM_Jump
$LN12@PM_Jump:

; 3000 : 	}
; 3001 : 
; 3002 : 	// No more effect
; 3003 :  	if ( pmove->onground == -1 )

	mov	eax, DWORD PTR ?pmove@@3PAUplayermove_s@@A ; pmove
	cmp	DWORD PTR [eax+224], -1
	jne	SHORT $LN22@PM_Jump

; 3004 : 	{
; 3005 : 		// Flag that we jumped.
; 3006 : 		// HACK HACK HACK
; 3007 : 		// Remove this when the game .dll no longer does physics code!!!!
; 3008 : 		pmove->oldbuttons |= IN_JUMP;	// don't jump again until released

	mov	eax, DWORD PTR ?pmove@@3PAUplayermove_s@@A ; pmove
	mov	ecx, DWORD PTR [eax+200]
	or	ecx, 2
	mov	edx, DWORD PTR ?pmove@@3PAUplayermove_s@@A ; pmove
	mov	DWORD PTR [edx+200], ecx

; 3009 : 		return;		// in air, so no effect

	jmp	$LN1@PM_Jump
$LN22@PM_Jump:

; 3010 : 	}
; 3011 : 
; 3012 : 	if ( pmove->oldbuttons & IN_JUMP )

	mov	eax, DWORD PTR ?pmove@@3PAUplayermove_s@@A ; pmove
	mov	ecx, DWORD PTR [eax+200]
	and	ecx, 2
	je	SHORT $LN23@PM_Jump

; 3013 : 		return;		// don't pogo stick

	jmp	$LN1@PM_Jump
$LN23@PM_Jump:

; 3014 : 
; 3015 : 	// In the air now.
; 3016 : 	pmove->onground = -1;

	mov	eax, DWORD PTR ?pmove@@3PAUplayermove_s@@A ; pmove
	mov	DWORD PTR [eax+224], -1

; 3017 : 
; 3018 : 	PM_PreventMegaBunnyJumping();

	call	?PM_PreventMegaBunnyJumping@@YAXXZ	; PM_PreventMegaBunnyJumping

; 3019 : 
; 3020 : 	PM_PlayStepSound( PM_MapTextureTypeStepType( pmove->chtexturetype ), 1.0 );

	push	ecx
	movss	xmm0, DWORD PTR __real@3f800000
	movss	DWORD PTR [esp], xmm0
	mov	eax, DWORD PTR ?pmove@@3PAUplayermove_s@@A ; pmove
	movzx	ecx, BYTE PTR [eax+496]
	push	ecx
	call	?PM_MapTextureTypeStepType@@YAHD@Z	; PM_MapTextureTypeStepType
	add	esp, 4
	push	eax
	call	?PM_PlayStepSound@@YAXHM@Z		; PM_PlayStepSound
	add	esp, 8

; 3021 : 
; 3022 : 	// See if user can super long jump?
; 3023 : 	cansuperjump = atoi( pmove->PM_Info_ValueForKey( pmove->physinfo, "slj" ) ) == 1 ? true : false;

	push	OFFSET ??_C@_03HJOOJOPI@slj?$AA@
	mov	eax, DWORD PTR ?pmove@@3PAUplayermove_s@@A ; pmove
	add	eax, 324592				; 0004f3f0H
	push	eax
	mov	ecx, DWORD PTR ?pmove@@3PAUplayermove_s@@A ; pmove
	mov	edx, DWORD PTR [ecx+324948]
	call	edx
	add	esp, 8
	push	eax
	call	_atoi
	add	esp, 4
	cmp	eax, 1
	jne	SHORT $LN37@PM_Jump
	mov	BYTE PTR tv212[ebp], 1
	jmp	SHORT $LN38@PM_Jump
$LN37@PM_Jump:
	mov	BYTE PTR tv212[ebp], 0
$LN38@PM_Jump:
	movzx	eax, BYTE PTR tv212[ebp]
	mov	DWORD PTR _cansuperjump$[ebp], eax

; 3024 : 
; 3025 : 	// Acclerate upward
; 3026 : 	// If we are ducking...
; 3027 : 	if ( ( pmove->bInDuck ) || ( pmove->flags & FL_DUCKING ) )

	mov	eax, DWORD PTR ?pmove@@3PAUplayermove_s@@A ; pmove
	cmp	DWORD PTR [eax+144], 0
	jne	SHORT $LN26@PM_Jump
	mov	eax, DWORD PTR ?pmove@@3PAUplayermove_s@@A ; pmove
	mov	ecx, DWORD PTR [eax+184]
	and	ecx, 16384				; 00004000H
	je	$LN24@PM_Jump
$LN26@PM_Jump:

; 3028 : 	{
; 3029 : 		// Adjust for super long jump module
; 3030 : 		// UNDONE -- note this should be based on forward angles, not current velocity.
; 3031 : 		if ( cansuperjump &&
; 3032 : 			( pmove->cmd.buttons & IN_DUCK ) &&
; 3033 : 			( pmove->flDuckTime > 0 ) &&

	cmp	DWORD PTR _cansuperjump$[ebp], 0
	je	$LN27@PM_Jump
	mov	eax, DWORD PTR ?pmove@@3PAUplayermove_s@@A ; pmove
	movzx	ecx, WORD PTR [eax+283766]
	and	ecx, 4
	je	$LN27@PM_Jump
	mov	eax, DWORD PTR ?pmove@@3PAUplayermove_s@@A ; pmove
	movss	xmm0, DWORD PTR [eax+140]
	comiss	xmm0, DWORD PTR __real@00000000
	jbe	$LN27@PM_Jump
	mov	ecx, DWORD PTR ?pmove@@3PAUplayermove_s@@A ; pmove
	add	ecx, 92					; 0000005cH
	call	?Length@Vector@@QBEMXZ			; Vector::Length
	fstp	DWORD PTR tv455[ebp]
	movss	xmm0, DWORD PTR tv455[ebp]
	comiss	xmm0, DWORD PTR __real@42480000
	jbe	$LN27@PM_Jump

; 3034 : 			pmove->velocity.Length() > 50 )
; 3035 : 		{
; 3036 : 			pmove->punchangle[0] = -5;

	mov	ecx, DWORD PTR ?pmove@@3PAUplayermove_s@@A ; pmove
	add	ecx, 160				; 000000a0H
	call	??BVector@@QAEPAMXZ			; Vector::operator float *
	mov	ecx, 4
	imul	edx, ecx, 0
	movss	xmm0, DWORD PTR __real@c0a00000
	movss	DWORD PTR [eax+edx], xmm0

; 3037 : 			
; 3038 : 			for (i =0; i < 2; i++)

	mov	DWORD PTR _i$[ebp], 0
	jmp	SHORT $LN6@PM_Jump
$LN4@PM_Jump:
	mov	eax, DWORD PTR _i$[ebp]
	add	eax, 1
	mov	DWORD PTR _i$[ebp], eax
$LN6@PM_Jump:
	cmp	DWORD PTR _i$[ebp], 2
	jge	SHORT $LN5@PM_Jump

; 3039 : 				pmove->velocity[i] = pmove->forward[i] * PLAYER_LONGJUMP_SPEED * 1.6;

	mov	ecx, DWORD PTR ?pmove@@3PAUplayermove_s@@A ; pmove
	add	ecx, 20					; 00000014H
	call	??BVector@@QAEPAMXZ			; Vector::operator float *
	mov	ecx, DWORD PTR ?pmove@@3PAUplayermove_s@@A ; pmove
	movss	xmm0, DWORD PTR [ecx+500]
	mulss	xmm0, DWORD PTR __real@3f8c28f6
	mov	edx, DWORD PTR _i$[ebp]
	mulss	xmm0, DWORD PTR [eax+edx*4]
	cvtss2sd xmm0, xmm0
	mulsd	xmm0, QWORD PTR __real@3ff999999999999a
	cvtsd2ss xmm0, xmm0
	mov	ecx, DWORD PTR ?pmove@@3PAUplayermove_s@@A ; pmove
	add	ecx, 92					; 0000005cH
	movss	DWORD PTR tv542[ebp], xmm0
	call	??BVector@@QAEPAMXZ			; Vector::operator float *
	mov	ecx, DWORD PTR _i$[ebp]
	movss	xmm0, DWORD PTR tv542[ebp]
	movss	DWORD PTR [eax+ecx*4], xmm0
	jmp	SHORT $LN4@PM_Jump
$LN5@PM_Jump:

; 3040 : 		
; 3041 : 			pmove->velocity[2] = sqrt(2 * 800 * 56.0);

	sub	esp, 8
	movsd	xmm0, QWORD PTR __real@40f5e00000000000
	movsd	QWORD PTR [esp], xmm0
	call	_sqrt
	add	esp, 8
	fstp	DWORD PTR tv475[ebp]
	fld	DWORD PTR tv475[ebp]
	mov	ecx, DWORD PTR ?pmove@@3PAUplayermove_s@@A ; pmove
	add	ecx, 92					; 0000005cH
	fstp	DWORD PTR tv576[ebp]
	call	??BVector@@QAEPAMXZ			; Vector::operator float *
	mov	ecx, 4
	shl	ecx, 1
	fld	DWORD PTR tv576[ebp]
	fstp	DWORD PTR [eax+ecx]

; 3042 : 			if( pmove->effects & EF_UPSIDEDOWN )

	mov	eax, DWORD PTR ?pmove@@3PAUplayermove_s@@A ; pmove
	mov	ecx, DWORD PTR [eax+180]
	and	ecx, 4194304				; 00400000H
	je	SHORT $LN29@PM_Jump

; 3043 : 				pmove->velocity[2] *= -1;

	mov	ecx, DWORD PTR ?pmove@@3PAUplayermove_s@@A ; pmove
	add	ecx, 92					; 0000005cH
	call	??BVector@@QAEPAMXZ			; Vector::operator float *
	mov	ecx, 4
	shl	ecx, 1
	add	eax, ecx
	mov	DWORD PTR tv270[ebp], eax
	mov	edx, DWORD PTR tv270[ebp]
	movss	xmm0, DWORD PTR [edx]
	mulss	xmm0, DWORD PTR __real@bf800000
	mov	eax, DWORD PTR tv270[ebp]
	movss	DWORD PTR [eax], xmm0
$LN29@PM_Jump:

; 3044 : 		}
; 3045 : 		else

	jmp	SHORT $LN30@PM_Jump
$LN27@PM_Jump:

; 3046 : 		{
; 3047 : 			pmove->velocity[2] = sqrt( 2 * 800 * 45.0 );

	sub	esp, 8
	movsd	xmm0, QWORD PTR __real@40f1940000000000
	movsd	QWORD PTR [esp], xmm0
	call	_sqrt
	add	esp, 8
	fstp	DWORD PTR tv491[ebp]
	fld	DWORD PTR tv491[ebp]
	mov	ecx, DWORD PTR ?pmove@@3PAUplayermove_s@@A ; pmove
	add	ecx, 92					; 0000005cH
	fstp	DWORD PTR tv578[ebp]
	call	??BVector@@QAEPAMXZ			; Vector::operator float *
	mov	ecx, 4
	shl	ecx, 1
	fld	DWORD PTR tv578[ebp]
	fstp	DWORD PTR [eax+ecx]

; 3048 : 			if( pmove->effects & EF_UPSIDEDOWN )

	mov	eax, DWORD PTR ?pmove@@3PAUplayermove_s@@A ; pmove
	mov	ecx, DWORD PTR [eax+180]
	and	ecx, 4194304				; 00400000H
	je	SHORT $LN30@PM_Jump

; 3049 : 				pmove->velocity[2] *= -1;

	mov	ecx, DWORD PTR ?pmove@@3PAUplayermove_s@@A ; pmove
	add	ecx, 92					; 0000005cH
	call	??BVector@@QAEPAMXZ			; Vector::operator float *
	mov	ecx, 4
	shl	ecx, 1
	add	eax, ecx
	mov	DWORD PTR tv288[ebp], eax
	mov	edx, DWORD PTR tv288[ebp]
	movss	xmm0, DWORD PTR [edx]
	mulss	xmm0, DWORD PTR __real@bf800000
	mov	eax, DWORD PTR tv288[ebp]
	movss	DWORD PTR [eax], xmm0
$LN30@PM_Jump:

; 3050 : 		}
; 3051 : 	}
; 3052 : 	else

	jmp	$LN33@PM_Jump
$LN24@PM_Jump:

; 3053 : 	{
; 3054 : 		pmove->velocity[2] = sqrt(2 * 800 * 45.0);

	sub	esp, 8
	movsd	xmm0, QWORD PTR __real@40f1940000000000
	movsd	QWORD PTR [esp], xmm0
	call	_sqrt
	add	esp, 8
	fstp	DWORD PTR tv507[ebp]
	fld	DWORD PTR tv507[ebp]
	mov	ecx, DWORD PTR ?pmove@@3PAUplayermove_s@@A ; pmove
	add	ecx, 92					; 0000005cH
	fstp	DWORD PTR tv580[ebp]
	call	??BVector@@QAEPAMXZ			; Vector::operator float *
	mov	ecx, 4
	shl	ecx, 1
	fld	DWORD PTR tv580[ebp]
	fstp	DWORD PTR [eax+ecx]

; 3055 : 		if( pmove->effects & EF_UPSIDEDOWN )

	mov	eax, DWORD PTR ?pmove@@3PAUplayermove_s@@A ; pmove
	mov	ecx, DWORD PTR [eax+180]
	and	ecx, 4194304				; 00400000H
	je	SHORT $LN31@PM_Jump

; 3056 : 			pmove->velocity[2] *= -1;

	mov	ecx, DWORD PTR ?pmove@@3PAUplayermove_s@@A ; pmove
	add	ecx, 92					; 0000005cH
	call	??BVector@@QAEPAMXZ			; Vector::operator float *
	mov	ecx, 4
	shl	ecx, 1
	add	eax, ecx
	mov	DWORD PTR tv306[ebp], eax
	mov	edx, DWORD PTR tv306[ebp]
	movss	xmm0, DWORD PTR [edx]
	mulss	xmm0, DWORD PTR __real@bf800000
	mov	eax, DWORD PTR tv306[ebp]
	movss	DWORD PTR [eax], xmm0
$LN31@PM_Jump:

; 3057 : 
; 3058 : 		// diffusion - speed boost similar to HL2. needs to be tested more.
; 3059 : 		if( (pmove->cmd.buttons & IN_FORWARD) && (pmove->cmd.buttons & IN_JUMP) && !(pmove->cmd.buttons & IN_RUN) && !(pmove->cmd.buttons & IN_DUCK) )

	mov	eax, DWORD PTR ?pmove@@3PAUplayermove_s@@A ; pmove
	movzx	ecx, WORD PTR [eax+283766]
	and	ecx, 8
	je	$LN33@PM_Jump
	mov	eax, DWORD PTR ?pmove@@3PAUplayermove_s@@A ; pmove
	movzx	ecx, WORD PTR [eax+283766]
	and	ecx, 2
	je	$LN33@PM_Jump
	mov	eax, DWORD PTR ?pmove@@3PAUplayermove_s@@A ; pmove
	movzx	ecx, WORD PTR [eax+283766]
	and	ecx, 4096				; 00001000H
	jne	$LN33@PM_Jump
	mov	eax, DWORD PTR ?pmove@@3PAUplayermove_s@@A ; pmove
	movzx	ecx, WORD PTR [eax+283766]
	and	ecx, 4
	jne	$LN33@PM_Jump

; 3060 : 		{
; 3061 : 			if( (pmove->velocity.Length() < 350) )

	mov	ecx, DWORD PTR ?pmove@@3PAUplayermove_s@@A ; pmove
	add	ecx, 92					; 0000005cH
	call	?Length@Vector@@QBEMXZ			; Vector::Length
	fstp	DWORD PTR tv526[ebp]
	movss	xmm0, DWORD PTR __real@43af0000
	comiss	xmm0, DWORD PTR tv526[ebp]
	jbe	SHORT $LN33@PM_Jump

; 3062 : 			{
; 3063 : 				pmove->velocity[0] *= 1.35;

	mov	ecx, DWORD PTR ?pmove@@3PAUplayermove_s@@A ; pmove
	add	ecx, 92					; 0000005cH
	call	??BVector@@QAEPAMXZ			; Vector::operator float *
	mov	ecx, 4
	imul	edx, ecx, 0
	add	eax, edx
	mov	DWORD PTR tv337[ebp], eax
	mov	eax, DWORD PTR tv337[ebp]
	cvtss2sd xmm0, DWORD PTR [eax]
	mulsd	xmm0, QWORD PTR __real@3ff599999999999a
	cvtsd2ss xmm0, xmm0
	mov	ecx, DWORD PTR tv337[ebp]
	movss	DWORD PTR [ecx], xmm0

; 3064 : 				pmove->velocity[1] *= 1.35;

	mov	ecx, DWORD PTR ?pmove@@3PAUplayermove_s@@A ; pmove
	add	ecx, 92					; 0000005cH
	call	??BVector@@QAEPAMXZ			; Vector::operator float *
	mov	ecx, 4
	shl	ecx, 0
	add	eax, ecx
	mov	DWORD PTR tv346[ebp], eax
	mov	edx, DWORD PTR tv346[ebp]
	cvtss2sd xmm0, DWORD PTR [edx]
	mulsd	xmm0, QWORD PTR __real@3ff599999999999a
	cvtsd2ss xmm0, xmm0
	mov	eax, DWORD PTR tv346[ebp]
	movss	DWORD PTR [eax], xmm0
$LN33@PM_Jump:

; 3065 : 			}
; 3066 : 		}
; 3067 : 	}
; 3068 : 
; 3069 : 	// Decay it for simulation
; 3070 : 	PM_FixupGravityVelocity();

	call	?PM_FixupGravityVelocity@@YAXXZ		; PM_FixupGravityVelocity

; 3071 : 
; 3072 : 	// Flag that we jumped.
; 3073 : 	pmove->oldbuttons |= IN_JUMP;	// don't jump again until released

	mov	eax, DWORD PTR ?pmove@@3PAUplayermove_s@@A ; pmove
	mov	ecx, DWORD PTR [eax+200]
	or	ecx, 2
	mov	edx, DWORD PTR ?pmove@@3PAUplayermove_s@@A ; pmove
	mov	DWORD PTR [edx+200], ecx
$LN1@PM_Jump:

; 3074 : }

	pop	edi
	pop	esi
	pop	ebx
	mov	esp, ebp
	pop	ebp
	ret	0
$LN39@PM_Jump:
	DD	$LN18@PM_Jump
	DD	$LN19@PM_Jump
	DD	$LN20@PM_Jump
	DD	$LN21@PM_Jump
?PM_Jump@@YAXXZ ENDP					; PM_Jump
_TEXT	ENDS
; Function compile flags: /Odtp /ZI
; File d:\!diffusion 2020\source code 2022\client-server\game_shared\playermove.cpp
;	COMDAT ?PM_PreventMegaBunnyJumping@@YAXXZ
_TEXT	SEGMENT
_maxscaledspeed$ = -12					; size = 4
_fraction$ = -8						; size = 4
_spd$ = -4						; size = 4
?PM_PreventMegaBunnyJumping@@YAXXZ PROC			; PM_PreventMegaBunnyJumping, COMDAT

; 2908 : {

	push	ebp
	mov	ebp, esp
	sub	esp, 76					; 0000004cH
	push	ebx
	push	esi
	push	edi

; 2909 : 	// Current player speed
; 2910 : 	float spd;
; 2911 : 	// If we have to crop, apply this cropping fraction to velocity
; 2912 : 	float fraction;
; 2913 : 	// Speed at which bunny jumping is limited
; 2914 : 	float maxscaledspeed;
; 2915 : 
; 2916 : 	maxscaledspeed = BUNNYJUMP_MAX_SPEED_FACTOR * pmove->maxspeed;

	mov	eax, DWORD PTR ?pmove@@3PAUplayermove_s@@A ; pmove
	movss	xmm0, DWORD PTR __real@3fd9999a
	mulss	xmm0, DWORD PTR [eax+500]
	movss	DWORD PTR _maxscaledspeed$[ebp], xmm0

; 2917 : 
; 2918 : 	// Don't divide by zero
; 2919 : 	if ( maxscaledspeed <= 0.0f )

	xorps	xmm0, xmm0
	comiss	xmm0, DWORD PTR _maxscaledspeed$[ebp]
	jb	SHORT $LN2@PM_Prevent

; 2920 : 		return;

	jmp	SHORT $LN1@PM_Prevent
$LN2@PM_Prevent:

; 2921 : 
; 2922 : 	spd = pmove->velocity.Length();

	mov	ecx, DWORD PTR ?pmove@@3PAUplayermove_s@@A ; pmove
	add	ecx, 92					; 0000005cH
	call	?Length@Vector@@QBEMXZ			; Vector::Length
	fstp	DWORD PTR _spd$[ebp]

; 2923 : 
; 2924 : 	if ( spd <= maxscaledspeed )

	movss	xmm0, DWORD PTR _maxscaledspeed$[ebp]
	comiss	xmm0, DWORD PTR _spd$[ebp]
	jb	SHORT $LN3@PM_Prevent

; 2925 : 		return;

	jmp	SHORT $LN1@PM_Prevent
$LN3@PM_Prevent:

; 2926 : 
; 2927 : 	fraction = ( maxscaledspeed / spd ) * 0.65; //Returns the modifier for the velocity

	movss	xmm0, DWORD PTR _maxscaledspeed$[ebp]
	divss	xmm0, DWORD PTR _spd$[ebp]
	cvtss2sd xmm0, xmm0
	mulsd	xmm0, QWORD PTR __real@3fe4cccccccccccd
	cvtsd2ss xmm0, xmm0
	movss	DWORD PTR _fraction$[ebp], xmm0

; 2928 : 	
; 2929 : 	pmove->velocity *= fraction; //Crop it down!.

	push	ecx
	movss	xmm0, DWORD PTR _fraction$[ebp]
	movss	DWORD PTR [esp], xmm0
	mov	ecx, DWORD PTR ?pmove@@3PAUplayermove_s@@A ; pmove
	add	ecx, 92					; 0000005cH
	call	??XVector@@QAEAAV0@M@Z			; Vector::operator*=
$LN1@PM_Prevent:

; 2930 : }

	pop	edi
	pop	esi
	pop	ebx
	mov	esp, ebp
	pop	ebp
	ret	0
?PM_PreventMegaBunnyJumping@@YAXXZ ENDP			; PM_PreventMegaBunnyJumping
_TEXT	ENDS
; Function compile flags: /Odtp /ZI
; File d:\!diffusion 2020\source code 2022\client-server\game_shared\playermove.cpp
;	COMDAT ?PM_Physics_Toss@@YAXXZ
_TEXT	SEGMENT
$T1 = -468						; size = 68
$T2 = -400						; size = 68
$T3 = -332						; size = 12
$T4 = -312						; size = 68
$T5 = -244						; size = 68
$T6 = -176						; size = 12
_base$7 = -100						; size = 12
_vel$8 = -88						; size = 4
_backoff$ = -84						; size = 4
_move$ = -80						; size = 12
_trace$ = -68						; size = 68
?PM_Physics_Toss@@YAXXZ PROC				; PM_Physics_Toss, COMDAT

; 2798 : {

	push	ebp
	mov	ebp, esp
	sub	esp, 468				; 000001d4H
	push	ebx
	push	esi
	push	edi

; 2799 : 	pmtrace_t trace;

	lea	ecx, DWORD PTR _trace$[ebp]
	call	??0pmtrace_s@@QAE@XZ

; 2800 : 	Vector	move;

	lea	ecx, DWORD PTR _move$[ebp]
	call	??0Vector@@QAE@XZ			; Vector::Vector

; 2801 : 	float	backoff;
; 2802 : 
; 2803 : 	PM_CheckWater();

	call	?PM_CheckWater@@YAHXZ			; PM_CheckWater

; 2804 : 
; 2805 : 	if (pmove->velocity[2] > 0)

	mov	ecx, DWORD PTR ?pmove@@3PAUplayermove_s@@A ; pmove
	add	ecx, 92					; 0000005cH
	call	??BVector@@QAEPAMXZ			; Vector::operator float *
	mov	ecx, 4
	shl	ecx, 1
	movss	xmm0, DWORD PTR [eax+ecx]
	comiss	xmm0, DWORD PTR __real@00000000
	jbe	SHORT $LN2@PM_Physics

; 2806 : 		pmove->onground = -1;

	mov	eax, DWORD PTR ?pmove@@3PAUplayermove_s@@A ; pmove
	mov	DWORD PTR [eax+224], -1
$LN2@PM_Physics:

; 2807 : 
; 2808 : 	// If on ground and not moving, return.
; 2809 : 	if ( pmove->onground != -1 )

	mov	eax, DWORD PTR ?pmove@@3PAUplayermove_s@@A ; pmove
	cmp	DWORD PTR [eax+224], -1
	je	SHORT $LN4@PM_Physics

; 2810 : 	{
; 2811 : 		if(( pmove->basevelocity == g_vecZero) && ( pmove->velocity == g_vecZero ))

	push	OFFSET ?g_vecZero@@3VVector@@B		; g_vecZero
	mov	ecx, DWORD PTR ?pmove@@3PAUplayermove_s@@A ; pmove
	add	ecx, 116				; 00000074H
	call	??8Vector@@QBEHABV0@@Z			; Vector::operator==
	test	eax, eax
	je	SHORT $LN4@PM_Physics
	push	OFFSET ?g_vecZero@@3VVector@@B		; g_vecZero
	mov	ecx, DWORD PTR ?pmove@@3PAUplayermove_s@@A ; pmove
	add	ecx, 92					; 0000005cH
	call	??8Vector@@QBEHABV0@@Z			; Vector::operator==
	test	eax, eax
	je	SHORT $LN4@PM_Physics

; 2812 : 			return;

	jmp	$LN1@PM_Physics
$LN4@PM_Physics:

; 2813 : 	}
; 2814 : 
; 2815 : 	PM_CheckVelocity ();

	call	?PM_CheckVelocity@@YAXXZ		; PM_CheckVelocity

; 2816 : 
; 2817 : // add gravity
; 2818 : 	if ( pmove->movetype != MOVETYPE_FLY &&
; 2819 : 		 pmove->movetype != MOVETYPE_BOUNCEMISSILE &&

	mov	eax, DWORD PTR ?pmove@@3PAUplayermove_s@@A ; pmove
	cmp	DWORD PTR [eax+220], 5
	je	SHORT $LN5@PM_Physics
	mov	eax, DWORD PTR ?pmove@@3PAUplayermove_s@@A ; pmove
	cmp	DWORD PTR [eax+220], 11			; 0000000bH
	je	SHORT $LN5@PM_Physics
	mov	eax, DWORD PTR ?pmove@@3PAUplayermove_s@@A ; pmove
	cmp	DWORD PTR [eax+220], 9
	je	SHORT $LN5@PM_Physics

; 2820 : 		 pmove->movetype != MOVETYPE_FLYMISSILE )
; 2821 : 		PM_AddGravity ();

	call	?PM_AddGravity@@YAXXZ			; PM_AddGravity
$LN5@PM_Physics:

; 2822 : 
; 2823 : // move origin
; 2824 : 	// Base velocity is not properly accounted for since this entity will move again after the bounce without
; 2825 : 	// taking it into account
; 2826 : 	pmove->velocity += pmove->basevelocity;

	mov	eax, DWORD PTR ?pmove@@3PAUplayermove_s@@A ; pmove
	add	eax, 116				; 00000074H
	push	eax
	mov	ecx, DWORD PTR ?pmove@@3PAUplayermove_s@@A ; pmove
	add	ecx, 92					; 0000005cH
	call	??YVector@@QAEAAV0@ABV0@@Z		; Vector::operator+=

; 2827 : 	
; 2828 : 	PM_CheckVelocity();

	call	?PM_CheckVelocity@@YAXXZ		; PM_CheckVelocity

; 2829 : 
; 2830 : 	move = pmove->velocity * pmove->frametime;

	mov	eax, DWORD PTR ?pmove@@3PAUplayermove_s@@A ; pmove
	push	ecx
	movss	xmm0, DWORD PTR [eax+16]
	movss	DWORD PTR [esp], xmm0
	lea	ecx, DWORD PTR $T6[ebp]
	push	ecx
	mov	ecx, DWORD PTR ?pmove@@3PAUplayermove_s@@A ; pmove
	add	ecx, 92					; 0000005cH
	call	??DVector@@QBE?AV0@M@Z			; Vector::operator*
	mov	edx, DWORD PTR [eax]
	mov	DWORD PTR _move$[ebp], edx
	mov	ecx, DWORD PTR [eax+4]
	mov	DWORD PTR _move$[ebp+4], ecx
	mov	edx, DWORD PTR [eax+8]
	mov	DWORD PTR _move$[ebp+8], edx

; 2831 : 	pmove->velocity -= pmove->basevelocity;

	mov	eax, DWORD PTR ?pmove@@3PAUplayermove_s@@A ; pmove
	add	eax, 116				; 00000074H
	push	eax
	mov	ecx, DWORD PTR ?pmove@@3PAUplayermove_s@@A ; pmove
	add	ecx, 92					; 0000005cH
	call	??ZVector@@QAEAAV0@ABV0@@Z		; Vector::operator-=

; 2832 : 
; 2833 : 	trace = PM_PushEntity (move);	// Should this clear basevelocity

	lea	eax, DWORD PTR _move$[ebp]
	push	eax
	lea	ecx, DWORD PTR $T4[ebp]
	push	ecx
	call	?PM_PushEntity@@YA?AUpmtrace_s@@ABVVector@@@Z ; PM_PushEntity
	add	esp, 8
	mov	ecx, 17					; 00000011H
	mov	esi, eax
	lea	edi, DWORD PTR $T5[ebp]
	rep movsd
	mov	ecx, 17					; 00000011H
	lea	esi, DWORD PTR $T5[ebp]
	lea	edi, DWORD PTR _trace$[ebp]
	rep movsd

; 2834 : 
; 2835 : 	PM_CheckVelocity();

	call	?PM_CheckVelocity@@YAXXZ		; PM_CheckVelocity

; 2836 : 
; 2837 : 	if (trace.allsolid)

	cmp	DWORD PTR _trace$[ebp], 0
	je	SHORT $LN6@PM_Physics

; 2838 : 	{	
; 2839 : 		// entity is trapped in another solid
; 2840 : 		pmove->onground = trace.ent;

	mov	eax, DWORD PTR ?pmove@@3PAUplayermove_s@@A ; pmove
	mov	ecx, DWORD PTR _trace$[ebp+48]
	mov	DWORD PTR [eax+224], ecx

; 2841 : 		pmove->velocity = g_vecZero;

	mov	eax, DWORD PTR ?pmove@@3PAUplayermove_s@@A ; pmove
	add	eax, 92					; 0000005cH
	mov	ecx, DWORD PTR ?g_vecZero@@3VVector@@B
	mov	DWORD PTR [eax], ecx
	mov	edx, DWORD PTR ?g_vecZero@@3VVector@@B+4
	mov	DWORD PTR [eax+4], edx
	mov	ecx, DWORD PTR ?g_vecZero@@3VVector@@B+8
	mov	DWORD PTR [eax+8], ecx

; 2842 : 		return;

	jmp	$LN1@PM_Physics
$LN6@PM_Physics:

; 2843 : 	}
; 2844 : 	
; 2845 : 	if (trace.fraction == 1)

	movss	xmm0, DWORD PTR _trace$[ebp+16]
	ucomiss	xmm0, DWORD PTR __real@3f800000
	lahf
	test	ah, 68					; 00000044H
	jp	SHORT $LN7@PM_Physics

; 2846 : 	{
; 2847 : 		PM_CheckWater();

	call	?PM_CheckWater@@YAHXZ			; PM_CheckWater

; 2848 : 		return;

	jmp	$LN1@PM_Physics
$LN7@PM_Physics:

; 2849 : 	}
; 2850 : 
; 2851 : 
; 2852 : 	if (pmove->movetype == MOVETYPE_BOUNCE)

	mov	eax, DWORD PTR ?pmove@@3PAUplayermove_s@@A ; pmove
	cmp	DWORD PTR [eax+220], 10			; 0000000aH
	jne	SHORT $LN8@PM_Physics

; 2853 : 		backoff = 2.0 - pmove->friction;

	mov	eax, DWORD PTR ?pmove@@3PAUplayermove_s@@A ; pmove
	cvtss2sd xmm0, DWORD PTR [eax+196]
	movsd	xmm1, QWORD PTR __real@4000000000000000
	subsd	xmm1, xmm0
	cvtsd2ss xmm0, xmm1
	movss	DWORD PTR _backoff$[ebp], xmm0
	jmp	SHORT $LN11@PM_Physics
$LN8@PM_Physics:

; 2854 : 	else if (pmove->movetype == MOVETYPE_BOUNCEMISSILE)

	mov	eax, DWORD PTR ?pmove@@3PAUplayermove_s@@A ; pmove
	cmp	DWORD PTR [eax+220], 11			; 0000000bH
	jne	SHORT $LN10@PM_Physics

; 2855 : 		backoff = 2.0;

	movss	xmm0, DWORD PTR __real@40000000
	movss	DWORD PTR _backoff$[ebp], xmm0

; 2856 : 	else

	jmp	SHORT $LN11@PM_Physics
$LN10@PM_Physics:

; 2857 : 		backoff = 1;

	movss	xmm0, DWORD PTR __real@3f800000
	movss	DWORD PTR _backoff$[ebp], xmm0
$LN11@PM_Physics:

; 2858 : 
; 2859 : 	PM_ClipVelocity (pmove->velocity, trace.plane.normal, pmove->velocity, backoff);

	push	ecx
	movss	xmm0, DWORD PTR _backoff$[ebp]
	movss	DWORD PTR [esp], xmm0
	mov	eax, DWORD PTR ?pmove@@3PAUplayermove_s@@A ; pmove
	add	eax, 92					; 0000005cH
	push	eax
	sub	esp, 12					; 0000000cH
	mov	ecx, esp
	lea	edx, DWORD PTR _trace$[ebp+32]
	push	edx
	call	??0Vector@@QAE@ABV0@@Z			; Vector::Vector
	mov	eax, DWORD PTR ?pmove@@3PAUplayermove_s@@A ; pmove
	add	eax, 92					; 0000005cH
	sub	esp, 12					; 0000000cH
	mov	ecx, esp
	push	eax
	call	??0Vector@@QAE@ABV0@@Z			; Vector::Vector
	call	?PM_ClipVelocity@@YAHVVector@@0AAV1@M@Z	; PM_ClipVelocity
	add	esp, 32					; 00000020H

; 2860 : 
; 2861 : 	// stop if on ground
; 2862 : 	if (trace.plane.normal[2] > 0.7)

	lea	ecx, DWORD PTR _trace$[ebp+32]
	call	??BVector@@QAEPAMXZ			; Vector::operator float *
	mov	ecx, 4
	shl	ecx, 1
	cvtss2sd xmm0, DWORD PTR [eax+ecx]
	comisd	xmm0, QWORD PTR __real@3fe6666666666666
	jbe	$LN12@PM_Physics

; 2863 : 	{		
; 2864 : 		float vel;
; 2865 : 		Vector base;

	lea	ecx, DWORD PTR _base$7[ebp]
	call	??0Vector@@QAE@XZ			; Vector::Vector

; 2866 : 
; 2867 : 		base = g_vecZero;

	mov	eax, DWORD PTR ?g_vecZero@@3VVector@@B
	mov	DWORD PTR _base$7[ebp], eax
	mov	ecx, DWORD PTR ?g_vecZero@@3VVector@@B+4
	mov	DWORD PTR _base$7[ebp+4], ecx
	mov	edx, DWORD PTR ?g_vecZero@@3VVector@@B+8
	mov	DWORD PTR _base$7[ebp+8], edx

; 2868 : 
; 2869 : 		if( pmove->velocity[2] < pmove->movevars->gravity * pmove->frametime )

	mov	ecx, DWORD PTR ?pmove@@3PAUplayermove_s@@A ; pmove
	add	ecx, 92					; 0000005cH
	call	??BVector@@QAEPAMXZ			; Vector::operator float *
	mov	ecx, 4
	shl	ecx, 1
	mov	edx, DWORD PTR ?pmove@@3PAUplayermove_s@@A ; pmove
	mov	edx, DWORD PTR [edx+324848]
	mov	esi, DWORD PTR ?pmove@@3PAUplayermove_s@@A ; pmove
	movss	xmm0, DWORD PTR [edx]
	mulss	xmm0, DWORD PTR [esi+16]
	comiss	xmm0, DWORD PTR [eax+ecx]
	jbe	SHORT $LN13@PM_Physics

; 2870 : 		{
; 2871 : 			// we're rolling on the ground, add static friction.
; 2872 : 			pmove->onground = trace.ent;

	mov	eax, DWORD PTR ?pmove@@3PAUplayermove_s@@A ; pmove
	mov	ecx, DWORD PTR _trace$[ebp+48]
	mov	DWORD PTR [eax+224], ecx

; 2873 : 			pmove->velocity[2] = 0;

	mov	ecx, DWORD PTR ?pmove@@3PAUplayermove_s@@A ; pmove
	add	ecx, 92					; 0000005cH
	call	??BVector@@QAEPAMXZ			; Vector::operator float *
	mov	ecx, 4
	shl	ecx, 1
	xorps	xmm0, xmm0
	movss	DWORD PTR [eax+ecx], xmm0
$LN13@PM_Physics:

; 2874 : 		}
; 2875 : 
; 2876 : 		vel = DotProduct( pmove->velocity, pmove->velocity );

	mov	eax, DWORD PTR ?pmove@@3PAUplayermove_s@@A ; pmove
	add	eax, 92					; 0000005cH
	push	eax
	mov	ecx, DWORD PTR ?pmove@@3PAUplayermove_s@@A ; pmove
	add	ecx, 92					; 0000005cH
	push	ecx
	call	?DotProduct@@YAMABVVector@@0@Z		; DotProduct
	add	esp, 8
	fstp	DWORD PTR _vel$8[ebp]

; 2877 : 
; 2878 : 		// Con_DPrintf("%f %f: %.0f %.0f %.0f\n", vel, trace.fraction, ent->velocity[0], ent->velocity[1], ent->velocity[2] );
; 2879 : 
; 2880 : 		if (vel < (30 * 30) || (pmove->movetype != MOVETYPE_BOUNCE && pmove->movetype != MOVETYPE_BOUNCEMISSILE))

	movss	xmm0, DWORD PTR __real@44610000
	comiss	xmm0, DWORD PTR _vel$8[ebp]
	ja	SHORT $LN16@PM_Physics
	mov	eax, DWORD PTR ?pmove@@3PAUplayermove_s@@A ; pmove
	cmp	DWORD PTR [eax+220], 10			; 0000000aH
	je	SHORT $LN14@PM_Physics
	mov	eax, DWORD PTR ?pmove@@3PAUplayermove_s@@A ; pmove
	cmp	DWORD PTR [eax+220], 11			; 0000000bH
	je	SHORT $LN14@PM_Physics
$LN16@PM_Physics:

; 2881 : 		{
; 2882 : 			pmove->onground = trace.ent;

	mov	eax, DWORD PTR ?pmove@@3PAUplayermove_s@@A ; pmove
	mov	ecx, DWORD PTR _trace$[ebp+48]
	mov	DWORD PTR [eax+224], ecx

; 2883 : 			pmove->velocity = g_vecZero;

	mov	eax, DWORD PTR ?pmove@@3PAUplayermove_s@@A ; pmove
	add	eax, 92					; 0000005cH
	mov	ecx, DWORD PTR ?g_vecZero@@3VVector@@B
	mov	DWORD PTR [eax], ecx
	mov	edx, DWORD PTR ?g_vecZero@@3VVector@@B+4
	mov	DWORD PTR [eax+4], edx
	mov	ecx, DWORD PTR ?g_vecZero@@3VVector@@B+8
	mov	DWORD PTR [eax+8], ecx

; 2884 : 		}
; 2885 : 		else

	jmp	SHORT $LN15@PM_Physics
$LN14@PM_Physics:

; 2886 : 		{
; 2887 : 			move = pmove->velocity * (( 1.0f - trace.fraction ) * pmove->frametime * 0.9f );

	movss	xmm0, DWORD PTR __real@3f800000
	subss	xmm0, DWORD PTR _trace$[ebp+16]
	mov	eax, DWORD PTR ?pmove@@3PAUplayermove_s@@A ; pmove
	mulss	xmm0, DWORD PTR [eax+16]
	mulss	xmm0, DWORD PTR __real@3f666666
	push	ecx
	movss	DWORD PTR [esp], xmm0
	lea	ecx, DWORD PTR $T3[ebp]
	push	ecx
	mov	ecx, DWORD PTR ?pmove@@3PAUplayermove_s@@A ; pmove
	add	ecx, 92					; 0000005cH
	call	??DVector@@QBE?AV0@M@Z			; Vector::operator*
	mov	edx, DWORD PTR [eax]
	mov	DWORD PTR _move$[ebp], edx
	mov	ecx, DWORD PTR [eax+4]
	mov	DWORD PTR _move$[ebp+4], ecx
	mov	edx, DWORD PTR [eax+8]
	mov	DWORD PTR _move$[ebp+8], edx

; 2888 : 			trace = PM_PushEntity (move);

	lea	eax, DWORD PTR _move$[ebp]
	push	eax
	lea	ecx, DWORD PTR $T1[ebp]
	push	ecx
	call	?PM_PushEntity@@YA?AUpmtrace_s@@ABVVector@@@Z ; PM_PushEntity
	add	esp, 8
	mov	ecx, 17					; 00000011H
	mov	esi, eax
	lea	edi, DWORD PTR $T2[ebp]
	rep movsd
	mov	ecx, 17					; 00000011H
	lea	esi, DWORD PTR $T2[ebp]
	lea	edi, DWORD PTR _trace$[ebp]
	rep movsd
$LN15@PM_Physics:

; 2889 : 		}
; 2890 : 
; 2891 : 		pmove->velocity -= base;

	lea	eax, DWORD PTR _base$7[ebp]
	push	eax
	mov	ecx, DWORD PTR ?pmove@@3PAUplayermove_s@@A ; pmove
	add	ecx, 92					; 0000005cH
	call	??ZVector@@QAEAAV0@ABV0@@Z		; Vector::operator-=
$LN12@PM_Physics:

; 2892 : 	}
; 2893 : 	
; 2894 : // check for in water
; 2895 : 	PM_CheckWater();

	call	?PM_CheckWater@@YAHXZ			; PM_CheckWater
$LN1@PM_Physics:

; 2896 : }

	pop	edi
	pop	esi
	pop	ebx
	mov	esp, ebp
	pop	ebp
	ret	0
?PM_Physics_Toss@@YAXXZ ENDP				; PM_Physics_Toss
_TEXT	ENDS
; Function compile flags: /Odtp /ZI
; File d:\!diffusion 2020\source code 2022\client-server\game_shared\playermove.cpp
;	COMDAT ?PM_PushEntity@@YA?AUpmtrace_s@@ABVVector@@@Z
_TEXT	SEGMENT
$T1 = -368						; size = 68
$T2 = -292						; size = 68
$T3 = -224						; size = 68
$T4 = -156						; size = 12
_end$ = -80						; size = 12
_trace$ = -68						; size = 68
$T5 = 8							; size = 4
_push$ = 12						; size = 4
?PM_PushEntity@@YA?AUpmtrace_s@@ABVVector@@@Z PROC	; PM_PushEntity, COMDAT

; 2773 : {

	push	ebp
	mov	ebp, esp
	sub	esp, 368				; 00000170H
	push	ebx
	push	esi
	push	edi

; 2774 : 	pmtrace_t	trace;

	lea	ecx, DWORD PTR _trace$[ebp]
	call	??0pmtrace_s@@QAE@XZ

; 2775 : 	Vector	end;

	lea	ecx, DWORD PTR _end$[ebp]
	call	??0Vector@@QAE@XZ			; Vector::Vector

; 2776 : 		
; 2777 : 	end = pmove->origin + push;

	mov	eax, DWORD PTR _push$[ebp]
	push	eax
	lea	ecx, DWORD PTR $T4[ebp]
	push	ecx
	mov	ecx, DWORD PTR ?pmove@@3PAUplayermove_s@@A ; pmove
	add	ecx, 56					; 00000038H
	call	??HVector@@QBE?AV0@ABV0@@Z		; Vector::operator+
	mov	edx, DWORD PTR [eax]
	mov	DWORD PTR _end$[ebp], edx
	mov	ecx, DWORD PTR [eax+4]
	mov	DWORD PTR _end$[ebp+4], ecx
	mov	edx, DWORD PTR [eax+8]
	mov	DWORD PTR _end$[ebp+8], edx

; 2778 : 
; 2779 : 	trace = pmove->PM_PlayerTrace( pmove->origin, end, PM_NORMAL, -1 );

	push	-1
	push	0
	lea	ecx, DWORD PTR _end$[ebp]
	call	??BVector@@QAEPAMXZ			; Vector::operator float *
	push	eax
	mov	ecx, DWORD PTR ?pmove@@3PAUplayermove_s@@A ; pmove
	add	ecx, 56					; 00000038H
	call	??BVector@@QAEPAMXZ			; Vector::operator float *
	push	eax
	lea	eax, DWORD PTR $T2[ebp]
	push	eax
	mov	ecx, DWORD PTR ?pmove@@3PAUplayermove_s@@A ; pmove
	mov	edx, DWORD PTR [ecx+324992]
	call	edx
	add	esp, 20					; 00000014H
	mov	ecx, 17					; 00000011H
	mov	esi, eax
	lea	edi, DWORD PTR $T3[ebp]
	rep movsd
	mov	ecx, 17					; 00000011H
	lea	esi, DWORD PTR $T3[ebp]
	lea	edi, DWORD PTR _trace$[ebp]
	rep movsd

; 2780 : 	
; 2781 : 	pmove->origin = trace.endpos;

	mov	eax, DWORD PTR ?pmove@@3PAUplayermove_s@@A ; pmove
	add	eax, 56					; 00000038H
	mov	ecx, DWORD PTR _trace$[ebp+20]
	mov	DWORD PTR [eax], ecx
	mov	edx, DWORD PTR _trace$[ebp+24]
	mov	DWORD PTR [eax+4], edx
	mov	ecx, DWORD PTR _trace$[ebp+28]
	mov	DWORD PTR [eax+8], ecx

; 2782 : 
; 2783 : 	// So we can run impact function afterwards.
; 2784 : 	if( trace.fraction < 1.0 && !trace.allsolid )

	cvtss2sd xmm0, DWORD PTR _trace$[ebp+16]
	movsd	xmm1, QWORD PTR __real@3ff0000000000000
	comisd	xmm1, xmm0
	jbe	SHORT $LN2@PM_PushEnt
	cmp	DWORD PTR _trace$[ebp], 0
	jne	SHORT $LN2@PM_PushEnt

; 2785 : 		PM_AddToTouched( trace, pmove->velocity );

	mov	eax, DWORD PTR ?pmove@@3PAUplayermove_s@@A ; pmove
	add	eax, 92					; 0000005cH
	sub	esp, 12					; 0000000cH
	mov	ecx, esp
	push	eax
	call	??0Vector@@QAE@ABV0@@Z			; Vector::Vector
	sub	esp, 68					; 00000044H
	mov	ecx, esp
	lea	edx, DWORD PTR _trace$[ebp]
	push	edx
	call	??0pmtrace_s@@QAE@ABU0@@Z
	call	?PM_AddToTouched@@YAHUpmtrace_s@@VVector@@@Z ; PM_AddToTouched
	add	esp, 80					; 00000050H
$LN2@PM_PushEnt:

; 2786 : 
; 2787 : 	return trace;

	lea	eax, DWORD PTR _trace$[ebp]
	push	eax
	lea	ecx, DWORD PTR $T1[ebp]
	call	??0pmtrace_s@@QAE@$$QAU0@@Z
	mov	ecx, 17					; 00000011H
	mov	esi, eax
	mov	edi, DWORD PTR $T5[ebp]
	rep movsd
	mov	eax, DWORD PTR $T5[ebp]

; 2788 : }	

	pop	edi
	pop	esi
	pop	ebx
	mov	esp, ebp
	pop	ebp
	ret	0
?PM_PushEntity@@YA?AUpmtrace_s@@ABVVector@@@Z ENDP	; PM_PushEntity
_TEXT	ENDS
; Function compile flags: /Odtp /ZI
; File d:\!diffusion 2020\source code 2022\client-server\game_shared\playermove.cpp
;	COMDAT ?PM_AddGravity@@YAXXZ
_TEXT	SEGMENT
tv91 = -72						; size = 4
tv77 = -72						; size = 4
_ent_gravity$ = -4					; size = 4
?PM_AddGravity@@YAXXZ PROC				; PM_AddGravity, COMDAT

; 2751 : {

	push	ebp
	mov	ebp, esp
	sub	esp, 72					; 00000048H
	push	ebx
	push	esi
	push	edi

; 2752 : 	float	ent_gravity;
; 2753 : 
; 2754 : 	if (pmove->gravity)

	mov	eax, DWORD PTR ?pmove@@3PAUplayermove_s@@A ; pmove
	movss	xmm0, DWORD PTR [eax+192]
	ucomiss	xmm0, DWORD PTR __real@00000000
	lahf
	test	ah, 68					; 00000044H
	jnp	SHORT $LN2@PM_AddGrav

; 2755 : 		ent_gravity = pmove->gravity;

	mov	eax, DWORD PTR ?pmove@@3PAUplayermove_s@@A ; pmove
	movss	xmm0, DWORD PTR [eax+192]
	movss	DWORD PTR _ent_gravity$[ebp], xmm0

; 2756 : 	else

	jmp	SHORT $LN3@PM_AddGrav
$LN2@PM_AddGrav:

; 2757 : 		ent_gravity = 1.0;

	movss	xmm0, DWORD PTR __real@3f800000
	movss	DWORD PTR _ent_gravity$[ebp], xmm0
$LN3@PM_AddGrav:

; 2758 : 
; 2759 : 	// Add gravity incorrectly
; 2760 : 	pmove->velocity[2] -= (ent_gravity * pmove->movevars->gravity * pmove->frametime );

	mov	ecx, DWORD PTR ?pmove@@3PAUplayermove_s@@A ; pmove
	add	ecx, 92					; 0000005cH
	call	??BVector@@QAEPAMXZ			; Vector::operator float *
	mov	ecx, 4
	shl	ecx, 1
	add	eax, ecx
	mov	DWORD PTR tv77[ebp], eax
	mov	edx, DWORD PTR ?pmove@@3PAUplayermove_s@@A ; pmove
	mov	eax, DWORD PTR [edx+324848]
	movss	xmm0, DWORD PTR _ent_gravity$[ebp]
	mulss	xmm0, DWORD PTR [eax]
	mov	ecx, DWORD PTR ?pmove@@3PAUplayermove_s@@A ; pmove
	mulss	xmm0, DWORD PTR [ecx+16]
	mov	edx, DWORD PTR tv77[ebp]
	movss	xmm1, DWORD PTR [edx]
	subss	xmm1, xmm0
	mov	eax, DWORD PTR tv77[ebp]
	movss	DWORD PTR [eax], xmm1

; 2761 : 	pmove->velocity[2] += pmove->basevelocity[2] * pmove->frametime;

	mov	ecx, DWORD PTR ?pmove@@3PAUplayermove_s@@A ; pmove
	add	ecx, 92					; 0000005cH
	call	??BVector@@QAEPAMXZ			; Vector::operator float *
	mov	ecx, 4
	shl	ecx, 1
	add	eax, ecx
	mov	DWORD PTR tv91[ebp], eax
	mov	ecx, DWORD PTR ?pmove@@3PAUplayermove_s@@A ; pmove
	add	ecx, 116				; 00000074H
	call	??BVector@@QAEPAMXZ			; Vector::operator float *
	mov	edx, 4
	shl	edx, 1
	mov	ecx, DWORD PTR ?pmove@@3PAUplayermove_s@@A ; pmove
	movss	xmm0, DWORD PTR [eax+edx]
	mulss	xmm0, DWORD PTR [ecx+16]
	mov	edx, DWORD PTR tv91[ebp]
	addss	xmm0, DWORD PTR [edx]
	mov	eax, DWORD PTR tv91[ebp]
	movss	DWORD PTR [eax], xmm0

; 2762 : 	pmove->basevelocity[2] = 0;

	mov	ecx, DWORD PTR ?pmove@@3PAUplayermove_s@@A ; pmove
	add	ecx, 116				; 00000074H
	call	??BVector@@QAEPAMXZ			; Vector::operator float *
	mov	ecx, 4
	shl	ecx, 1
	xorps	xmm0, xmm0
	movss	DWORD PTR [eax+ecx], xmm0

; 2763 : 	PM_CheckVelocity();

	call	?PM_CheckVelocity@@YAXXZ		; PM_CheckVelocity

; 2764 : }

	pop	edi
	pop	esi
	pop	ebx
	mov	esp, ebp
	pop	ebp
	ret	0
?PM_AddGravity@@YAXXZ ENDP				; PM_AddGravity
_TEXT	ENDS
; Function compile flags: /Odtp /ZI
; File d:\!diffusion 2020\source code 2022\client-server\game_shared\playermove.cpp
;	COMDAT ?PM_WaterJump@@YAXXZ
_TEXT	SEGMENT
?PM_WaterJump@@YAXXZ PROC				; PM_WaterJump, COMDAT

; 2726 : {

	push	ebp
	mov	ebp, esp
	sub	esp, 64					; 00000040H
	push	ebx
	push	esi
	push	edi

; 2727 : 	if( pmove->waterjumptime > 10000 )

	mov	eax, DWORD PTR ?pmove@@3PAUplayermove_s@@A ; pmove
	movss	xmm0, DWORD PTR [eax+204]
	comiss	xmm0, DWORD PTR __real@461c4000
	jbe	SHORT $LN2@PM_WaterJu

; 2728 : 		pmove->waterjumptime = 10000;

	mov	eax, DWORD PTR ?pmove@@3PAUplayermove_s@@A ; pmove
	movss	xmm0, DWORD PTR __real@461c4000
	movss	DWORD PTR [eax+204], xmm0
$LN2@PM_WaterJu:

; 2729 : 
; 2730 : 	if ( !pmove->waterjumptime )

	mov	eax, DWORD PTR ?pmove@@3PAUplayermove_s@@A ; pmove
	movss	xmm0, DWORD PTR [eax+204]
	ucomiss	xmm0, DWORD PTR __real@00000000
	lahf
	test	ah, 68					; 00000044H
	jp	SHORT $LN3@PM_WaterJu

; 2731 : 		return;

	jmp	$LN1@PM_WaterJu
$LN3@PM_WaterJu:

; 2732 : 
; 2733 : 	pmove->waterjumptime -= pmove->cmd.msec;

	mov	eax, DWORD PTR ?pmove@@3PAUplayermove_s@@A ; pmove
	movzx	ecx, BYTE PTR [eax+283738]
	cvtsi2ss xmm0, ecx
	mov	edx, DWORD PTR ?pmove@@3PAUplayermove_s@@A ; pmove
	movss	xmm1, DWORD PTR [edx+204]
	subss	xmm1, xmm0
	mov	eax, DWORD PTR ?pmove@@3PAUplayermove_s@@A ; pmove
	movss	DWORD PTR [eax+204], xmm1

; 2734 : 	if ( pmove->waterjumptime < 0 || !pmove->waterlevel )

	mov	eax, DWORD PTR ?pmove@@3PAUplayermove_s@@A ; pmove
	xorps	xmm0, xmm0
	comiss	xmm0, DWORD PTR [eax+204]
	ja	SHORT $LN5@PM_WaterJu
	mov	eax, DWORD PTR ?pmove@@3PAUplayermove_s@@A ; pmove
	cmp	DWORD PTR [eax+228], 0
	jne	SHORT $LN4@PM_WaterJu
$LN5@PM_WaterJu:

; 2735 : 	{
; 2736 : 		pmove->waterjumptime = 0;

	mov	eax, DWORD PTR ?pmove@@3PAUplayermove_s@@A ; pmove
	xorps	xmm0, xmm0
	movss	DWORD PTR [eax+204], xmm0

; 2737 : 		pmove->flags &= ~FL_WATERJUMP;

	mov	eax, DWORD PTR ?pmove@@3PAUplayermove_s@@A ; pmove
	mov	ecx, DWORD PTR [eax+184]
	and	ecx, -2049				; fffff7ffH
	mov	edx, DWORD PTR ?pmove@@3PAUplayermove_s@@A ; pmove
	mov	DWORD PTR [edx+184], ecx
$LN4@PM_WaterJu:

; 2738 : 	}
; 2739 : 
; 2740 : 	pmove->velocity[0] = pmove->movedir[0];

	mov	ecx, DWORD PTR ?pmove@@3PAUplayermove_s@@A ; pmove
	add	ecx, 104				; 00000068H
	call	??BVector@@QAEPAMXZ			; Vector::operator float *
	mov	esi, eax
	mov	eax, 4
	imul	edi, eax, 0
	mov	ecx, DWORD PTR ?pmove@@3PAUplayermove_s@@A ; pmove
	add	ecx, 92					; 0000005cH
	call	??BVector@@QAEPAMXZ			; Vector::operator float *
	mov	ecx, 4
	imul	edx, ecx, 0
	mov	ecx, DWORD PTR [esi+edi]
	mov	DWORD PTR [eax+edx], ecx

; 2741 : 	pmove->velocity[1] = pmove->movedir[1];

	mov	ecx, DWORD PTR ?pmove@@3PAUplayermove_s@@A ; pmove
	add	ecx, 104				; 00000068H
	call	??BVector@@QAEPAMXZ			; Vector::operator float *
	mov	esi, eax
	mov	edi, 4
	shl	edi, 0
	mov	ecx, DWORD PTR ?pmove@@3PAUplayermove_s@@A ; pmove
	add	ecx, 92					; 0000005cH
	call	??BVector@@QAEPAMXZ			; Vector::operator float *
	mov	ecx, 4
	shl	ecx, 0
	mov	edx, DWORD PTR [esi+edi]
	mov	DWORD PTR [eax+ecx], edx
$LN1@PM_WaterJu:

; 2742 : }

	pop	edi
	pop	esi
	pop	ebx
	mov	esp, ebp
	pop	ebp
	ret	0
?PM_WaterJump@@YAXXZ ENDP				; PM_WaterJump
_TEXT	ENDS
; Function compile flags: /Odtp /ZI
; File d:\!diffusion 2020\source code 2022\client-server\game_shared\playermove.cpp
;	COMDAT ?PM_Ladder@@YAPAUphysent_s@@XZ
_TEXT	SEGMENT
$T1 = -196						; size = 12
$T2 = -184						; size = 12
_entityToWorld$3 = -108					; size = 64
_num$4 = -44						; size = 4
_hull$5 = -40						; size = 4
_i$6 = -36						; size = 4
_test$ = -32						; size = 12
_offset$ = -20						; size = 12
_pe$ = -8						; size = 4
__$ArrayPad$ = -4					; size = 4
?PM_Ladder@@YAPAUphysent_s@@XZ PROC			; PM_Ladder, COMDAT

; 2689 : {

	push	ebp
	mov	ebp, esp
	sub	esp, 196				; 000000c4H
	mov	eax, DWORD PTR ___security_cookie
	xor	eax, ebp
	mov	DWORD PTR __$ArrayPad$[ebp], eax
	push	ebx
	push	esi
	push	edi

; 2690 : 	physent_t	*pe;
; 2691 : 	Vector	offset, test;

	lea	ecx, DWORD PTR _offset$[ebp]
	call	??0Vector@@QAE@XZ			; Vector::Vector
	lea	ecx, DWORD PTR _test$[ebp]
	call	??0Vector@@QAE@XZ			; Vector::Vector

; 2692 : 
; 2693 : 	for( int i = 0; i < pmove->nummoveent; i++ )

	mov	DWORD PTR _i$6[ebp], 0
	jmp	SHORT $LN4@PM_Ladder
$LN2@PM_Ladder:
	mov	eax, DWORD PTR _i$6[ebp]
	add	eax, 1
	mov	DWORD PTR _i$6[ebp], eax
$LN4@PM_Ladder:
	mov	eax, DWORD PTR ?pmove@@3PAUplayermove_s@@A ; pmove
	mov	ecx, DWORD PTR _i$6[ebp]
	cmp	ecx, DWORD PTR [eax+134992]
	jge	$LN3@PM_Ladder

; 2694 : 	{
; 2695 : 		pe = &pmove->moveents[i];

	imul	eax, DWORD PTR _i$6[ebp], 224
	mov	ecx, DWORD PTR ?pmove@@3PAUplayermove_s@@A ; pmove
	lea	edx, DWORD PTR [ecx+eax+134996]
	mov	DWORD PTR _pe$[ebp], edx

; 2696 : 		
; 2697 : 		if( pe->model && (modtype_t)pmove->PM_GetModelType( pe->model ) == mod_brush && pe->skin == CONTENTS_LADDER )

	mov	eax, DWORD PTR _pe$[ebp]
	cmp	DWORD PTR [eax+48], 0
	je	$LN5@PM_Ladder
	mov	eax, DWORD PTR _pe$[ebp]
	mov	ecx, DWORD PTR [eax+48]
	push	ecx
	mov	edx, DWORD PTR ?pmove@@3PAUplayermove_s@@A ; pmove
	mov	eax, DWORD PTR [edx+325008]
	call	eax
	add	esp, 4
	test	eax, eax
	jne	$LN5@PM_Ladder
	mov	eax, DWORD PTR _pe$[ebp]
	cmp	DWORD PTR [eax+100], -16		; fffffff0H
	jne	$LN5@PM_Ladder

; 2698 : 		{
; 2699 : 			hull_t *hull = (hull_t *)pmove->PM_HullForBsp( pe, offset );

	lea	ecx, DWORD PTR _offset$[ebp]
	call	??BVector@@QAEPAMXZ			; Vector::operator float *
	push	eax
	mov	eax, DWORD PTR _pe$[ebp]
	push	eax
	mov	ecx, DWORD PTR ?pmove@@3PAUplayermove_s@@A ; pmove
	mov	edx, DWORD PTR [ecx+325016]
	call	edx
	add	esp, 8
	mov	DWORD PTR _hull$5[ebp], eax

; 2700 : 			int num = hull->firstclipnode;

	mov	eax, DWORD PTR _hull$5[ebp]
	mov	ecx, DWORD PTR [eax+8]
	mov	DWORD PTR _num$4[ebp], ecx

; 2701 : 
; 2702 : 			// Offset the test point appropriately for this hull.
; 2703 : 			test = pmove->origin - offset;

	lea	eax, DWORD PTR _offset$[ebp]
	push	eax
	lea	ecx, DWORD PTR $T2[ebp]
	push	ecx
	mov	ecx, DWORD PTR ?pmove@@3PAUplayermove_s@@A ; pmove
	add	ecx, 56					; 00000038H
	call	??GVector@@QBE?AV0@ABV0@@Z		; Vector::operator-
	mov	edx, DWORD PTR [eax]
	mov	DWORD PTR _test$[ebp], edx
	mov	ecx, DWORD PTR [eax+4]
	mov	DWORD PTR _test$[ebp+4], ecx
	mov	edx, DWORD PTR [eax+8]
	mov	DWORD PTR _test$[ebp+8], edx

; 2704 : 
; 2705 : 			// support for rotational triggers
; 2706 : 			if(( pe->model->flags & 2 ) && pe->angles != g_vecZero )

	mov	eax, DWORD PTR _pe$[ebp]
	mov	ecx, DWORD PTR [eax+48]
	mov	edx, DWORD PTR [ecx+80]
	and	edx, 2
	je	SHORT $LN6@PM_Ladder
	push	OFFSET ?g_vecZero@@3VVector@@B		; g_vecZero
	mov	ecx, DWORD PTR _pe$[ebp]
	add	ecx, 84					; 00000054H
	call	??9Vector@@QBEHABV0@@Z			; Vector::operator!=
	test	eax, eax
	je	SHORT $LN6@PM_Ladder

; 2707 : 			{
; 2708 : 				// g-cont. can't access to CBase->EntityToWorldTransform() :'-(
; 2709 : 				// so we build matrix from scratch
; 2710 : 				matrix4x4	entityToWorld( offset, pe->angles );

	push	ecx
	movss	xmm0, DWORD PTR __real@3f800000
	movss	DWORD PTR [esp], xmm0
	mov	eax, DWORD PTR _pe$[ebp]
	add	eax, 84					; 00000054H
	push	eax
	lea	ecx, DWORD PTR _offset$[ebp]
	push	ecx
	lea	ecx, DWORD PTR _entityToWorld$3[ebp]
	call	??0matrix4x4@@QAE@ABVVector@@0M@Z	; matrix4x4::matrix4x4

; 2711 : 				test = entityToWorld.VectorITransform( pmove->origin );

	mov	eax, DWORD PTR ?pmove@@3PAUplayermove_s@@A ; pmove
	add	eax, 56					; 00000038H
	push	eax
	lea	ecx, DWORD PTR $T1[ebp]
	push	ecx
	lea	ecx, DWORD PTR _entityToWorld$3[ebp]
	call	?VectorITransform@matrix4x4@@QBE?AVVector@@ABV2@@Z ; matrix4x4::VectorITransform
	mov	edx, DWORD PTR [eax]
	mov	DWORD PTR _test$[ebp], edx
	mov	ecx, DWORD PTR [eax+4]
	mov	DWORD PTR _test$[ebp+4], ecx
	mov	edx, DWORD PTR [eax+8]
	mov	DWORD PTR _test$[ebp+8], edx
$LN6@PM_Ladder:

; 2712 : 			}
; 2713 : 
; 2714 : 			// Test the player's hull for intersection with this model
; 2715 : 			if( pmove->PM_HullPointContents( hull, num, test ) == CONTENTS_EMPTY )

	lea	ecx, DWORD PTR _test$[ebp]
	call	??BVector@@QAEPAMXZ			; Vector::operator float *
	push	eax
	mov	eax, DWORD PTR _num$4[ebp]
	push	eax
	mov	ecx, DWORD PTR _hull$5[ebp]
	push	ecx
	mov	edx, DWORD PTR ?pmove@@3PAUplayermove_s@@A ; pmove
	mov	eax, DWORD PTR [edx+324988]
	call	eax
	add	esp, 12					; 0000000cH
	cmp	eax, -1
	jne	SHORT $LN7@PM_Ladder

; 2716 : 				continue;

	jmp	$LN2@PM_Ladder
$LN7@PM_Ladder:

; 2717 : 			
; 2718 : 			return pe;

	mov	eax, DWORD PTR _pe$[ebp]
	jmp	SHORT $LN1@PM_Ladder
$LN5@PM_Ladder:

; 2719 : 		}
; 2720 : 	}

	jmp	$LN2@PM_Ladder
$LN3@PM_Ladder:

; 2721 : 
; 2722 : 	return NULL;

	xor	eax, eax
$LN1@PM_Ladder:

; 2723 : }

	pop	edi
	pop	esi
	pop	ebx
	mov	ecx, DWORD PTR __$ArrayPad$[ebp]
	xor	ecx, ebp
	call	@__security_check_cookie@4
	mov	esp, ebp
	pop	ebp
	ret	0
?PM_Ladder@@YAPAUphysent_s@@XZ ENDP			; PM_Ladder
_TEXT	ENDS
; Function compile flags: /Odtp /ZI
; File d:\!diffusion 2020\source code 2022\client-server\game_shared\playermove.cpp
;	COMDAT ?PM_LadderMove@@YAXPAUphysent_s@@@Z
_TEXT	SEGMENT
tv659 = -536						; size = 8
tv632 = -536						; size = 8
$T1 = -528						; size = 12
$T2 = -516						; size = 12
$T3 = -504						; size = 12
$T4 = -492						; size = 12
$T5 = -480						; size = 12
$T6 = -468						; size = 12
$T7 = -456						; size = 12
$T8 = -444						; size = 12
$T9 = -432						; size = 12
$T10 = -420						; size = 12
$T11 = -408						; size = 12
$T12 = -396						; size = 12
$T13 = -384						; size = 12
$T14 = -372						; size = 12
$T15 = -360						; size = 12
$T16 = -348						; size = 12
$T17 = -336						; size = 12
$T18 = -324						; size = 12
$T19 = -312						; size = 12
$T20 = -300						; size = 12
$T21 = -288						; size = 12
_climbVel$ = -212					; size = 4
_perp$22 = -208						; size = 12
_normal$23 = -196					; size = 4
_tmp$24 = -192						; size = 12
_lateral$25 = -180					; size = 12
_cross$26 = -168					; size = 12
_velocity$27 = -156					; size = 12
_v_right$28 = -144					; size = 12
_vpn$29 = -132						; size = 12
_right$30 = -120					; size = 4
_forward$31 = -116					; size = 4
_tr$ = -112						; size = 4
_modelmaxs$ = -108					; size = 12
_modelmins$ = -96					; size = 12
_floor$ = -84						; size = 12
_onFloor$ = -72						; size = 4
_trace$ = -68						; size = 56
_ladderCenter$ = -12					; size = 12
_pLadder$ = 8						; size = 4
?PM_LadderMove@@YAXPAUphysent_s@@@Z PROC		; PM_LadderMove, COMDAT

; 2570 : {

	push	ebp
	mov	ebp, esp
	sub	esp, 536				; 00000218H
	push	ebx
	push	esi
	push	edi

; 2571 : 	Vector	ladderCenter;

	lea	ecx, DWORD PTR _ladderCenter$[ebp]
	call	??0Vector@@QAE@XZ			; Vector::Vector

; 2572 : 	trace_t	trace;

	lea	ecx, DWORD PTR _trace$[ebp]
	call	??0trace_s@@QAE@XZ

; 2573 : 	qboolean	onFloor;
; 2574 : 	Vector	floor;

	lea	ecx, DWORD PTR _floor$[ebp]
	call	??0Vector@@QAE@XZ			; Vector::Vector

; 2575 : 	Vector	modelmins, modelmaxs;

	lea	ecx, DWORD PTR _modelmins$[ebp]
	call	??0Vector@@QAE@XZ			; Vector::Vector
	lea	ecx, DWORD PTR _modelmaxs$[ebp]
	call	??0Vector@@QAE@XZ			; Vector::Vector

; 2576 : 	pmtrace_t	*tr;
; 2577 : 
; 2578 : 	if( pmove->movetype == MOVETYPE_NOCLIP )

	mov	eax, DWORD PTR ?pmove@@3PAUplayermove_s@@A ; pmove
	cmp	DWORD PTR [eax+220], 8
	jne	SHORT $LN2@PM_LadderM

; 2579 : 		return;

	jmp	$LN1@PM_LadderM
$LN2@PM_LadderM:

; 2580 : 
; 2581 : 	pmove->PM_GetModelBounds( pLadder->model, modelmins, modelmaxs );

	lea	ecx, DWORD PTR _modelmaxs$[ebp]
	call	??BVector@@QAEPAMXZ			; Vector::operator float *
	push	eax
	lea	ecx, DWORD PTR _modelmins$[ebp]
	call	??BVector@@QAEPAMXZ			; Vector::operator float *
	push	eax
	mov	eax, DWORD PTR _pLadder$[ebp]
	mov	ecx, DWORD PTR [eax+48]
	push	ecx
	mov	edx, DWORD PTR ?pmove@@3PAUplayermove_s@@A ; pmove
	mov	eax, DWORD PTR [edx+325012]
	call	eax
	add	esp, 12					; 0000000cH

; 2582 : 	ladderCenter = pLadder->origin + ( modelmins + modelmaxs ) * 0.5f;

	push	ecx
	movss	xmm0, DWORD PTR __real@3f000000
	movss	DWORD PTR [esp], xmm0
	lea	eax, DWORD PTR $T20[ebp]
	push	eax
	lea	ecx, DWORD PTR _modelmaxs$[ebp]
	push	ecx
	lea	edx, DWORD PTR $T21[ebp]
	push	edx
	lea	ecx, DWORD PTR _modelmins$[ebp]
	call	??HVector@@QBE?AV0@ABV0@@Z		; Vector::operator+
	mov	ecx, eax
	call	??DVector@@QBE?AV0@M@Z			; Vector::operator*
	push	eax
	lea	eax, DWORD PTR $T19[ebp]
	push	eax
	mov	ecx, DWORD PTR _pLadder$[ebp]
	add	ecx, 36					; 00000024H
	call	??HVector@@QBE?AV0@ABV0@@Z		; Vector::operator+
	mov	ecx, DWORD PTR [eax]
	mov	DWORD PTR _ladderCenter$[ebp], ecx
	mov	edx, DWORD PTR [eax+4]
	mov	DWORD PTR _ladderCenter$[ebp+4], edx
	mov	eax, DWORD PTR [eax+8]
	mov	DWORD PTR _ladderCenter$[ebp+8], eax

; 2583 : 
; 2584 : 	pmove->movetype = MOVETYPE_FLY;

	mov	eax, DWORD PTR ?pmove@@3PAUplayermove_s@@A ; pmove
	mov	DWORD PTR [eax+220], 5

; 2585 : 
; 2586 : 	// On ladder, convert movement to be relative to the ladder
; 2587 : 	floor = pmove->origin;

	mov	eax, DWORD PTR ?pmove@@3PAUplayermove_s@@A ; pmove
	add	eax, 56					; 00000038H
	mov	ecx, DWORD PTR [eax]
	mov	DWORD PTR _floor$[ebp], ecx
	mov	edx, DWORD PTR [eax+4]
	mov	DWORD PTR _floor$[ebp+4], edx
	mov	eax, DWORD PTR [eax+8]
	mov	DWORD PTR _floor$[ebp+8], eax

; 2588 : 	floor.z += pmove->player_mins[pmove->usehull][2] - 1;

	mov	eax, DWORD PTR ?pmove@@3PAUplayermove_s@@A ; pmove
	imul	ecx, DWORD PTR [eax+188], 12
	mov	edx, DWORD PTR ?pmove@@3PAUplayermove_s@@A ; pmove
	lea	ecx, DWORD PTR [edx+ecx+324852]
	call	??BVector@@QAEPAMXZ			; Vector::operator float *
	mov	ecx, 4
	shl	ecx, 1
	movss	xmm0, DWORD PTR [eax+ecx]
	subss	xmm0, DWORD PTR __real@3f800000
	addss	xmm0, DWORD PTR _floor$[ebp+8]
	movss	DWORD PTR _floor$[ebp+8], xmm0

; 2589 : 
; 2590 : 	// g-cont. check bmodels ground too
; 2591 : 	tr = pmove->PM_TraceLine( floor, floor, PM_STUDIO_IGNORE, 2, -1 );

	push	-1
	push	2
	push	1
	lea	ecx, DWORD PTR _floor$[ebp]
	call	??BVector@@QAEPAMXZ			; Vector::operator float *
	push	eax
	lea	ecx, DWORD PTR _floor$[ebp]
	call	??BVector@@QAEPAMXZ			; Vector::operator float *
	push	eax
	mov	eax, DWORD PTR ?pmove@@3PAUplayermove_s@@A ; pmove
	mov	ecx, DWORD PTR [eax+324996]
	call	ecx
	add	esp, 20					; 00000014H
	mov	DWORD PTR _tr$[ebp], eax

; 2592 : 
; 2593 : 	if( /*pmove->PM_PointContents( floor, NULL ) == CONTENTS_SOLID || */ tr->ent != -1 )

	mov	eax, DWORD PTR _tr$[ebp]
	cmp	DWORD PTR [eax+48], -1
	je	SHORT $LN3@PM_LadderM

; 2594 : 		onFloor = true;

	mov	DWORD PTR _onFloor$[ebp], 1
	jmp	SHORT $LN4@PM_LadderM
$LN3@PM_LadderM:

; 2595 : 	else onFloor = false;

	mov	DWORD PTR _onFloor$[ebp], 0
$LN4@PM_LadderM:

; 2596 : 
; 2597 : 	pmove->gravity = 0;

	mov	eax, DWORD PTR ?pmove@@3PAUplayermove_s@@A ; pmove
	xorps	xmm0, xmm0
	movss	DWORD PTR [eax+192], xmm0

; 2598 : 	pLadder->solid = SOLID_BSP;	// HACKHACK: to allow rotating on ladder model

	mov	eax, DWORD PTR _pLadder$[ebp]
	mov	DWORD PTR [eax+96], 4

; 2599 : 	pmove->PM_TraceModel( pLadder, pmove->origin, ladderCenter, &trace );

	lea	eax, DWORD PTR _trace$[ebp]
	push	eax
	lea	ecx, DWORD PTR _ladderCenter$[ebp]
	call	??BVector@@QAEPAMXZ			; Vector::operator float *
	push	eax
	mov	ecx, DWORD PTR ?pmove@@3PAUplayermove_s@@A ; pmove
	add	ecx, 56					; 00000038H
	call	??BVector@@QAEPAMXZ			; Vector::operator float *
	push	eax
	mov	ecx, DWORD PTR _pLadder$[ebp]
	push	ecx
	mov	edx, DWORD PTR ?pmove@@3PAUplayermove_s@@A ; pmove
	mov	eax, DWORD PTR [edx+325020]
	call	eax
	fstp	ST(0)
	add	esp, 16					; 00000010H

; 2600 : 	pLadder->solid = SOLID_NOT;

	mov	eax, DWORD PTR _pLadder$[ebp]
	mov	DWORD PTR [eax+96], 0

; 2601 : 
; 2602 : 	if( trace.fraction != 1.0 )

	cvtss2sd xmm0, DWORD PTR _trace$[ebp+16]
	ucomisd	xmm0, QWORD PTR __real@3ff0000000000000
	lahf
	test	ah, 68					; 00000044H
	jnp	$LN13@PM_LadderM

; 2603 : 	{
; 2604 : 		float forward = 0, right = 0;

	xorps	xmm0, xmm0
	movss	DWORD PTR _forward$31[ebp], xmm0
	xorps	xmm0, xmm0
	movss	DWORD PTR _right$30[ebp], xmm0

; 2605 : 		Vector vpn, v_right;

	lea	ecx, DWORD PTR _vpn$29[ebp]
	call	??0Vector@@QAE@XZ			; Vector::Vector
	lea	ecx, DWORD PTR _v_right$28[ebp]
	call	??0Vector@@QAE@XZ			; Vector::Vector

; 2606 : 
; 2607 : 		AngleVectors( pmove->angles, vpn, v_right, NULL );

	push	0
	lea	ecx, DWORD PTR _v_right$28[ebp]
	call	??BVector@@QAEPAMXZ			; Vector::operator float *
	push	eax
	lea	ecx, DWORD PTR _vpn$29[ebp]
	call	??BVector@@QAEPAMXZ			; Vector::operator float *
	push	eax
	mov	ecx, DWORD PTR ?pmove@@3PAUplayermove_s@@A ; pmove
	add	ecx, 68					; 00000044H
	call	??BVector@@QAEPAMXZ			; Vector::operator float *
	push	eax
	call	DWORD PTR ?gEngfuncs@@3Ucl_enginefuncs_s@@A+96
	add	esp, 16					; 00000010H

; 2608 : 		if ( pmove->cmd.buttons & IN_BACK )

	mov	eax, DWORD PTR ?pmove@@3PAUplayermove_s@@A ; pmove
	movzx	ecx, WORD PTR [eax+283766]
	and	ecx, 16					; 00000010H
	je	SHORT $LN6@PM_LadderM

; 2609 : 			forward -= MAX_CLIMB_SPEED;

	movss	xmm0, DWORD PTR _forward$31[ebp]
	subss	xmm0, DWORD PTR __real@433e0000
	movss	DWORD PTR _forward$31[ebp], xmm0
$LN6@PM_LadderM:

; 2610 : 		if ( pmove->cmd.buttons & IN_FORWARD )

	mov	eax, DWORD PTR ?pmove@@3PAUplayermove_s@@A ; pmove
	movzx	ecx, WORD PTR [eax+283766]
	and	ecx, 8
	je	SHORT $LN7@PM_LadderM

; 2611 : 			forward += MAX_CLIMB_SPEED;

	movss	xmm0, DWORD PTR _forward$31[ebp]
	addss	xmm0, DWORD PTR __real@433e0000
	movss	DWORD PTR _forward$31[ebp], xmm0
$LN7@PM_LadderM:

; 2612 : 		if ( pmove->cmd.buttons & IN_MOVELEFT )

	mov	eax, DWORD PTR ?pmove@@3PAUplayermove_s@@A ; pmove
	movzx	ecx, WORD PTR [eax+283766]
	and	ecx, 512				; 00000200H
	je	SHORT $LN8@PM_LadderM

; 2613 : 			right -= MAX_CLIMB_SPEED;

	movss	xmm0, DWORD PTR _right$30[ebp]
	subss	xmm0, DWORD PTR __real@433e0000
	movss	DWORD PTR _right$30[ebp], xmm0
$LN8@PM_LadderM:

; 2614 : 		if ( pmove->cmd.buttons & IN_MOVERIGHT )

	mov	eax, DWORD PTR ?pmove@@3PAUplayermove_s@@A ; pmove
	movzx	ecx, WORD PTR [eax+283766]
	and	ecx, 1024				; 00000400H
	je	SHORT $LN9@PM_LadderM

; 2615 : 			right += MAX_CLIMB_SPEED;

	movss	xmm0, DWORD PTR _right$30[ebp]
	addss	xmm0, DWORD PTR __real@433e0000
	movss	DWORD PTR _right$30[ebp], xmm0
$LN9@PM_LadderM:

; 2616 : 
; 2617 : 		if ( pmove->cmd.buttons & IN_JUMP )

	mov	eax, DWORD PTR ?pmove@@3PAUplayermove_s@@A ; pmove
	movzx	ecx, WORD PTR [eax+283766]
	and	ecx, 2
	je	SHORT $LN10@PM_LadderM

; 2618 : 		{
; 2619 : 			pmove->movetype = MOVETYPE_WALK;

	mov	eax, DWORD PTR ?pmove@@3PAUplayermove_s@@A ; pmove
	mov	DWORD PTR [eax+220], 3

; 2620 : 			pmove->velocity = trace.plane.normal * 270;

	push	ecx
	movss	xmm0, DWORD PTR __real@43870000
	movss	DWORD PTR [esp], xmm0
	lea	eax, DWORD PTR $T18[ebp]
	push	eax
	lea	ecx, DWORD PTR _trace$[ebp+32]
	call	??DVector@@QBE?AV0@M@Z			; Vector::operator*
	mov	ecx, DWORD PTR ?pmove@@3PAUplayermove_s@@A ; pmove
	add	ecx, 92					; 0000005cH
	mov	edx, DWORD PTR [eax]
	mov	DWORD PTR [ecx], edx
	mov	edx, DWORD PTR [eax+4]
	mov	DWORD PTR [ecx+4], edx
	mov	eax, DWORD PTR [eax+8]
	mov	DWORD PTR [ecx+8], eax

; 2621 : 		}
; 2622 : 		else

	jmp	$LN13@PM_LadderM
$LN10@PM_LadderM:

; 2623 : 		{
; 2624 : 			if ( forward != 0 || right != 0 )

	movss	xmm0, DWORD PTR _forward$31[ebp]
	ucomiss	xmm0, DWORD PTR __real@00000000
	lahf
	test	ah, 68					; 00000044H
	jp	SHORT $LN14@PM_LadderM
	movss	xmm0, DWORD PTR _right$30[ebp]
	ucomiss	xmm0, DWORD PTR __real@00000000
	lahf
	test	ah, 68					; 00000044H
	jnp	$LN12@PM_LadderM
$LN14@PM_LadderM:

; 2625 : 			{
; 2626 : 				Vector velocity, cross, lateral, tmp;

	lea	ecx, DWORD PTR _velocity$27[ebp]
	call	??0Vector@@QAE@XZ			; Vector::Vector
	lea	ecx, DWORD PTR _cross$26[ebp]
	call	??0Vector@@QAE@XZ			; Vector::Vector
	lea	ecx, DWORD PTR _lateral$25[ebp]
	call	??0Vector@@QAE@XZ			; Vector::Vector
	lea	ecx, DWORD PTR _tmp$24[ebp]
	call	??0Vector@@QAE@XZ			; Vector::Vector

; 2627 : 				float normal;
; 2628 : 
; 2629 : 				//ALERT(at_console, "pev %.2f %.2f %.2f - ",
; 2630 : 				//	pev->velocity.x, pev->velocity.y, pev->velocity.z);
; 2631 : 				// Calculate player's intended velocity
; 2632 : 				//Vector velocity = (forward * gpGlobals->v_forward) + (right * gpGlobals->v_right);
; 2633 : 				velocity = vpn * forward;

	push	ecx
	movss	xmm0, DWORD PTR _forward$31[ebp]
	movss	DWORD PTR [esp], xmm0
	lea	eax, DWORD PTR $T17[ebp]
	push	eax
	lea	ecx, DWORD PTR _vpn$29[ebp]
	call	??DVector@@QBE?AV0@M@Z			; Vector::operator*
	mov	ecx, DWORD PTR [eax]
	mov	DWORD PTR _velocity$27[ebp], ecx
	mov	edx, DWORD PTR [eax+4]
	mov	DWORD PTR _velocity$27[ebp+4], edx
	mov	eax, DWORD PTR [eax+8]
	mov	DWORD PTR _velocity$27[ebp+8], eax

; 2634 : 				velocity += v_right * right;

	push	ecx
	movss	xmm0, DWORD PTR _right$30[ebp]
	movss	DWORD PTR [esp], xmm0
	lea	eax, DWORD PTR $T16[ebp]
	push	eax
	lea	ecx, DWORD PTR _v_right$28[ebp]
	call	??DVector@@QBE?AV0@M@Z			; Vector::operator*
	push	eax
	lea	ecx, DWORD PTR _velocity$27[ebp]
	call	??YVector@@QAEAAV0@ABV0@@Z		; Vector::operator+=

; 2635 : 
; 2636 : 				
; 2637 : 				// Perpendicular in the ladder plane
; 2638 : 				Vector perp = CrossProduct( Vector(0,0,1), trace.plane.normal );

	lea	eax, DWORD PTR _trace$[ebp+32]
	push	eax
	push	ecx
	movss	xmm0, DWORD PTR __real@3f800000
	movss	DWORD PTR [esp], xmm0
	push	ecx
	xorps	xmm0, xmm0
	movss	DWORD PTR [esp], xmm0
	push	ecx
	xorps	xmm0, xmm0
	movss	DWORD PTR [esp], xmm0
	lea	ecx, DWORD PTR $T15[ebp]
	call	??0Vector@@QAE@MMM@Z			; Vector::Vector
	push	eax
	lea	ecx, DWORD PTR _perp$22[ebp]
	push	ecx
	call	?CrossProduct@@YA?AVVector@@ABV1@0@Z	; CrossProduct
	add	esp, 12					; 0000000cH

; 2639 : 				perp = perp.Normalize();

	lea	eax, DWORD PTR $T14[ebp]
	push	eax
	lea	ecx, DWORD PTR _perp$22[ebp]
	call	?Normalize@Vector@@QBE?AV1@XZ		; Vector::Normalize
	mov	ecx, DWORD PTR [eax]
	mov	DWORD PTR _perp$22[ebp], ecx
	mov	edx, DWORD PTR [eax+4]
	mov	DWORD PTR _perp$22[ebp+4], edx
	mov	eax, DWORD PTR [eax+8]
	mov	DWORD PTR _perp$22[ebp+8], eax

; 2640 : 
; 2641 : 				// decompose velocity into ladder plane
; 2642 : 				normal = DotProduct( velocity, trace.plane.normal );

	lea	eax, DWORD PTR _trace$[ebp+32]
	push	eax
	lea	ecx, DWORD PTR _velocity$27[ebp]
	push	ecx
	call	?DotProduct@@YAMABVVector@@0@Z		; DotProduct
	add	esp, 8
	fstp	DWORD PTR _normal$23[ebp]

; 2643 : 				// This is the velocity into the face of the ladder
; 2644 : 				cross = trace.plane.normal * normal;

	push	ecx
	movss	xmm0, DWORD PTR _normal$23[ebp]
	movss	DWORD PTR [esp], xmm0
	lea	eax, DWORD PTR $T13[ebp]
	push	eax
	lea	ecx, DWORD PTR _trace$[ebp+32]
	call	??DVector@@QBE?AV0@M@Z			; Vector::operator*
	mov	ecx, DWORD PTR [eax]
	mov	DWORD PTR _cross$26[ebp], ecx
	mov	edx, DWORD PTR [eax+4]
	mov	DWORD PTR _cross$26[ebp+4], edx
	mov	eax, DWORD PTR [eax+8]
	mov	DWORD PTR _cross$26[ebp+8], eax

; 2645 : 
; 2646 : 
; 2647 : 				// This is the player's additional velocity
; 2648 : 				lateral = velocity - cross;

	lea	eax, DWORD PTR _cross$26[ebp]
	push	eax
	lea	ecx, DWORD PTR $T12[ebp]
	push	ecx
	lea	ecx, DWORD PTR _velocity$27[ebp]
	call	??GVector@@QBE?AV0@ABV0@@Z		; Vector::operator-
	mov	edx, DWORD PTR [eax]
	mov	DWORD PTR _lateral$25[ebp], edx
	mov	ecx, DWORD PTR [eax+4]
	mov	DWORD PTR _lateral$25[ebp+4], ecx
	mov	edx, DWORD PTR [eax+8]
	mov	DWORD PTR _lateral$25[ebp+8], edx

; 2649 : 
; 2650 : 				// This turns the velocity into the face of the ladder into velocity that
; 2651 : 				// is roughly vertically perpendicular to the face of the ladder.
; 2652 : 				// NOTE: It IS possible to face up and move down or face down and move up
; 2653 : 				// because the velocity is a sum of the directional velocity and the converted
; 2654 : 				// velocity through the face of the ladder -- by design.
; 2655 : 				tmp = CrossProduct( trace.plane.normal, perp );

	lea	eax, DWORD PTR _perp$22[ebp]
	push	eax
	lea	ecx, DWORD PTR _trace$[ebp+32]
	push	ecx
	lea	edx, DWORD PTR $T11[ebp]
	push	edx
	call	?CrossProduct@@YA?AVVector@@ABV1@0@Z	; CrossProduct
	add	esp, 12					; 0000000cH
	mov	ecx, DWORD PTR [eax]
	mov	DWORD PTR _tmp$24[ebp], ecx
	mov	edx, DWORD PTR [eax+4]
	mov	DWORD PTR _tmp$24[ebp+4], edx
	mov	eax, DWORD PTR [eax+8]
	mov	DWORD PTR _tmp$24[ebp+8], eax

; 2656 : 				if( pmove->effects & EF_UPSIDEDOWN )

	mov	eax, DWORD PTR ?pmove@@3PAUplayermove_s@@A ; pmove
	mov	ecx, DWORD PTR [eax+180]
	and	ecx, 4194304				; 00400000H
	je	SHORT $LN15@PM_LadderM

; 2657 : 					pmove->velocity = lateral - tmp * -normal;

	movss	xmm0, DWORD PTR _normal$23[ebp]
	xorps	xmm0, DWORD PTR __xmm@80000000800000008000000080000000
	push	ecx
	movss	DWORD PTR [esp], xmm0
	lea	eax, DWORD PTR $T10[ebp]
	push	eax
	lea	ecx, DWORD PTR _tmp$24[ebp]
	call	??DVector@@QBE?AV0@M@Z			; Vector::operator*
	push	eax
	lea	ecx, DWORD PTR $T9[ebp]
	push	ecx
	lea	ecx, DWORD PTR _lateral$25[ebp]
	call	??GVector@@QBE?AV0@ABV0@@Z		; Vector::operator-
	mov	edx, DWORD PTR ?pmove@@3PAUplayermove_s@@A ; pmove
	add	edx, 92					; 0000005cH
	mov	ecx, DWORD PTR [eax]
	mov	DWORD PTR [edx], ecx
	mov	ecx, DWORD PTR [eax+4]
	mov	DWORD PTR [edx+4], ecx
	mov	eax, DWORD PTR [eax+8]
	mov	DWORD PTR [edx+8], eax

; 2658 : 				else

	jmp	SHORT $LN16@PM_LadderM
$LN15@PM_LadderM:

; 2659 : 					pmove->velocity = lateral + tmp * -normal;

	movss	xmm0, DWORD PTR _normal$23[ebp]
	xorps	xmm0, DWORD PTR __xmm@80000000800000008000000080000000
	push	ecx
	movss	DWORD PTR [esp], xmm0
	lea	eax, DWORD PTR $T8[ebp]
	push	eax
	lea	ecx, DWORD PTR _tmp$24[ebp]
	call	??DVector@@QBE?AV0@M@Z			; Vector::operator*
	push	eax
	lea	ecx, DWORD PTR $T7[ebp]
	push	ecx
	lea	ecx, DWORD PTR _lateral$25[ebp]
	call	??HVector@@QBE?AV0@ABV0@@Z		; Vector::operator+
	mov	edx, DWORD PTR ?pmove@@3PAUplayermove_s@@A ; pmove
	add	edx, 92					; 0000005cH
	mov	ecx, DWORD PTR [eax]
	mov	DWORD PTR [edx], ecx
	mov	ecx, DWORD PTR [eax+4]
	mov	DWORD PTR [edx+4], ecx
	mov	eax, DWORD PTR [eax+8]
	mov	DWORD PTR [edx+8], eax
$LN16@PM_LadderM:

; 2660 : 
; 2661 : 				if( onFloor && normal > 0 )	// On ground moving away from the ladder

	cmp	DWORD PTR _onFloor$[ebp], 0
	je	SHORT $LN17@PM_LadderM
	movss	xmm0, DWORD PTR _normal$23[ebp]
	comiss	xmm0, DWORD PTR __real@00000000
	jbe	SHORT $LN17@PM_LadderM

; 2662 : 				{
; 2663 : 					pmove->velocity += trace.plane.normal * MAX_CLIMB_SPEED;

	push	ecx
	movss	xmm0, DWORD PTR __real@433e0000
	movss	DWORD PTR [esp], xmm0
	lea	eax, DWORD PTR $T6[ebp]
	push	eax
	lea	ecx, DWORD PTR _trace$[ebp+32]
	call	??DVector@@QBE?AV0@M@Z			; Vector::operator*
	push	eax
	mov	ecx, DWORD PTR ?pmove@@3PAUplayermove_s@@A ; pmove
	add	ecx, 92					; 0000005cH
	call	??YVector@@QAEAAV0@ABV0@@Z		; Vector::operator+=
$LN17@PM_LadderM:

; 2664 : 				}
; 2665 : 				//pev->velocity = lateral - (CrossProduct( trace.vecPlaneNormal, perp ) * normal);
; 2666 : 
; 2667 : 				
; 2668 : 			}
; 2669 : 			else

	jmp	SHORT $LN13@PM_LadderM
$LN12@PM_LadderM:

; 2670 : 				pmove->velocity = g_vecZero;

	mov	eax, DWORD PTR ?pmove@@3PAUplayermove_s@@A ; pmove
	add	eax, 92					; 0000005cH
	mov	ecx, DWORD PTR ?g_vecZero@@3VVector@@B
	mov	DWORD PTR [eax], ecx
	mov	edx, DWORD PTR ?g_vecZero@@3VVector@@B+4
	mov	DWORD PTR [eax+4], edx
	mov	ecx, DWORD PTR ?g_vecZero@@3VVector@@B+8
	mov	DWORD PTR [eax+8], ecx
$LN13@PM_LadderM:

; 2671 : 		}
; 2672 : 	}
; 2673 : 
; 2674 : 	// diffusion - climb speed fix (thanks to SNMetamorph for the correct writing)
; 2675 : 	float climbVel = pmove->velocity.Length();

	mov	ecx, DWORD PTR ?pmove@@3PAUplayermove_s@@A ; pmove
	add	ecx, 92					; 0000005cH
	call	?Length@Vector@@QBEMXZ			; Vector::Length
	fstp	DWORD PTR _climbVel$[ebp]

; 2676 : 	if (pmove->flags & FL_DUCKING)

	mov	eax, DWORD PTR ?pmove@@3PAUplayermove_s@@A ; pmove
	mov	ecx, DWORD PTR [eax+184]
	and	ecx, 16384				; 00004000H
	je	$LN18@PM_LadderM

; 2677 : 	{
; 2678 : 		if (fabs(climbVel) > MAX_CLIMB_SPEED * 0.333)

	cvtss2sd xmm0, DWORD PTR _climbVel$[ebp]
	sub	esp, 8
	movsd	QWORD PTR [esp], xmm0
	call	_fabs
	add	esp, 8
	fstp	QWORD PTR tv632[ebp]
	movsd	xmm0, QWORD PTR tv632[ebp]
	comisd	xmm0, QWORD PTR __real@404fa28f5c28f5c3
	jbe	SHORT $LN20@PM_LadderM

; 2679 : 			pmove->velocity = pmove->velocity.Normalize() * MAX_CLIMB_SPEED * 0.333;

	push	ecx
	movss	xmm0, DWORD PTR __real@3eaa7efa
	movss	DWORD PTR [esp], xmm0
	lea	eax, DWORD PTR $T3[ebp]
	push	eax
	push	ecx
	movss	xmm0, DWORD PTR __real@433e0000
	movss	DWORD PTR [esp], xmm0
	lea	ecx, DWORD PTR $T4[ebp]
	push	ecx
	lea	edx, DWORD PTR $T5[ebp]
	push	edx
	mov	ecx, DWORD PTR ?pmove@@3PAUplayermove_s@@A ; pmove
	add	ecx, 92					; 0000005cH
	call	?Normalize@Vector@@QBE?AV1@XZ		; Vector::Normalize
	mov	ecx, eax
	call	??DVector@@QBE?AV0@M@Z			; Vector::operator*
	mov	ecx, eax
	call	??DVector@@QBE?AV0@M@Z			; Vector::operator*
	mov	ecx, DWORD PTR ?pmove@@3PAUplayermove_s@@A ; pmove
	add	ecx, 92					; 0000005cH
	mov	edx, DWORD PTR [eax]
	mov	DWORD PTR [ecx], edx
	mov	edx, DWORD PTR [eax+4]
	mov	DWORD PTR [ecx+4], edx
	mov	eax, DWORD PTR [eax+8]
	mov	DWORD PTR [ecx+8], eax
$LN20@PM_LadderM:

; 2680 : 	}
; 2681 : 	else

	jmp	SHORT $LN21@PM_LadderM
$LN18@PM_LadderM:

; 2682 : 	{
; 2683 : 		if (fabs(climbVel) > MAX_CLIMB_SPEED)

	cvtss2sd xmm0, DWORD PTR _climbVel$[ebp]
	sub	esp, 8
	movsd	QWORD PTR [esp], xmm0
	call	_fabs
	add	esp, 8
	fstp	QWORD PTR tv659[ebp]
	movsd	xmm0, QWORD PTR tv659[ebp]
	comisd	xmm0, QWORD PTR __real@4067c00000000000
	jbe	SHORT $LN21@PM_LadderM

; 2684 : 			pmove->velocity = pmove->velocity.Normalize() * MAX_CLIMB_SPEED;

	push	ecx
	movss	xmm0, DWORD PTR __real@433e0000
	movss	DWORD PTR [esp], xmm0
	lea	eax, DWORD PTR $T1[ebp]
	push	eax
	lea	ecx, DWORD PTR $T2[ebp]
	push	ecx
	mov	ecx, DWORD PTR ?pmove@@3PAUplayermove_s@@A ; pmove
	add	ecx, 92					; 0000005cH
	call	?Normalize@Vector@@QBE?AV1@XZ		; Vector::Normalize
	mov	ecx, eax
	call	??DVector@@QBE?AV0@M@Z			; Vector::operator*
	mov	edx, DWORD PTR ?pmove@@3PAUplayermove_s@@A ; pmove
	add	edx, 92					; 0000005cH
	mov	ecx, DWORD PTR [eax]
	mov	DWORD PTR [edx], ecx
	mov	ecx, DWORD PTR [eax+4]
	mov	DWORD PTR [edx+4], ecx
	mov	eax, DWORD PTR [eax+8]
	mov	DWORD PTR [edx+8], eax
$LN21@PM_LadderM:
$LN1@PM_LadderM:

; 2685 : 	}
; 2686 : }

	pop	edi
	pop	esi
	pop	ebx
	mov	esp, ebp
	pop	ebp
	ret	0
?PM_LadderMove@@YAXPAUphysent_s@@@Z ENDP		; PM_LadderMove
_TEXT	ENDS
; Function compile flags: /Odtp /ZI
; File d:\!diffusion 2020\source code 2022\client-server\game_shared\playermove.cpp
;	COMDAT ?PM_Duck@@YAXXZ
_TEXT	SEGMENT
tv189 = -112						; size = 8
tv388 = -108						; size = 4
tv386 = -108						; size = 4
tv259 = -108						; size = 4
tv237 = -108						; size = 4
tv81 = -108						; size = 4
tv78 = -108						; size = 4
_fMore$1 = -40						; size = 4
_duckpressed$ = -36					; size = 4
_duckchange$ = -32					; size = 4
_nButtonPressed$ = -28					; size = 4
_buttonsChanged$ = -24					; size = 4
_VecView$ = -20						; size = 4
_VecDuckView$ = -16					; size = 4
_duckFraction$ = -12					; size = 4
_time$ = -8						; size = 4
_i$ = -4						; size = 4
?PM_Duck@@YAXXZ PROC					; PM_Duck, COMDAT

; 2459 : {

	push	ebp
	mov	ebp, esp
	sub	esp, 112				; 00000070H
	push	ebx
	push	esi
	push	edi

; 2460 : 	int i;
; 2461 : 	float time;
; 2462 : 	float duckFraction;
; 2463 : 	int VecDuckView = DUCK_VIEW;

	mov	DWORD PTR _VecDuckView$[ebp], 12	; 0000000cH

; 2464 : 	int VecView = VIEW_HEIGHT;

	mov	DWORD PTR _VecView$[ebp], 28		; 0000001cH

; 2465 : 	if( pmove->effects & EF_UPSIDEDOWN )

	mov	eax, DWORD PTR ?pmove@@3PAUplayermove_s@@A ; pmove
	mov	ecx, DWORD PTR [eax+180]
	and	ecx, 4194304				; 00400000H
	je	SHORT $LN5@PM_Duck

; 2466 : 	{
; 2467 : 		VecDuckView = -DUCK_VIEW;

	mov	DWORD PTR _VecDuckView$[ebp], -12	; fffffff4H

; 2468 : 		VecView = -VIEW_HEIGHT;

	mov	DWORD PTR _VecView$[ebp], -28		; ffffffe4H
$LN5@PM_Duck:

; 2469 : 	}
; 2470 : 
; 2471 : 	int buttonsChanged	= ( pmove->oldbuttons ^ pmove->cmd.buttons );	// These buttons have changed this frame

	mov	eax, DWORD PTR ?pmove@@3PAUplayermove_s@@A ; pmove
	movzx	ecx, WORD PTR [eax+283766]
	mov	edx, DWORD PTR ?pmove@@3PAUplayermove_s@@A ; pmove
	xor	ecx, DWORD PTR [edx+200]
	mov	DWORD PTR _buttonsChanged$[ebp], ecx

; 2472 : 	int nButtonPressed	=  buttonsChanged & pmove->cmd.buttons;		// The changed ones still down are "pressed"

	mov	eax, DWORD PTR ?pmove@@3PAUplayermove_s@@A ; pmove
	movzx	ecx, WORD PTR [eax+283766]
	and	ecx, DWORD PTR _buttonsChanged$[ebp]
	mov	DWORD PTR _nButtonPressed$[ebp], ecx

; 2473 : 
; 2474 : 	int duckchange		= buttonsChanged & IN_DUCK ? 1 : 0;

	mov	eax, DWORD PTR _buttonsChanged$[ebp]
	and	eax, 4
	je	SHORT $LN26@PM_Duck
	mov	DWORD PTR tv78[ebp], 1
	jmp	SHORT $LN27@PM_Duck
$LN26@PM_Duck:
	mov	DWORD PTR tv78[ebp], 0
$LN27@PM_Duck:
	mov	ecx, DWORD PTR tv78[ebp]
	mov	DWORD PTR _duckchange$[ebp], ecx

; 2475 : 	int duckpressed		= nButtonPressed & IN_DUCK ? 1 : 0;

	mov	eax, DWORD PTR _nButtonPressed$[ebp]
	and	eax, 4
	je	SHORT $LN28@PM_Duck
	mov	DWORD PTR tv81[ebp], 1
	jmp	SHORT $LN29@PM_Duck
$LN28@PM_Duck:
	mov	DWORD PTR tv81[ebp], 0
$LN29@PM_Duck:
	mov	ecx, DWORD PTR tv81[ebp]
	mov	DWORD PTR _duckpressed$[ebp], ecx

; 2476 : 
; 2477 : 	if ( pmove->cmd.buttons & IN_DUCK )

	mov	eax, DWORD PTR ?pmove@@3PAUplayermove_s@@A ; pmove
	movzx	ecx, WORD PTR [eax+283766]
	and	ecx, 4
	je	SHORT $LN6@PM_Duck

; 2478 : 	{
; 2479 : 		pmove->oldbuttons |= IN_DUCK;

	mov	eax, DWORD PTR ?pmove@@3PAUplayermove_s@@A ; pmove
	mov	ecx, DWORD PTR [eax+200]
	or	ecx, 4
	mov	edx, DWORD PTR ?pmove@@3PAUplayermove_s@@A ; pmove
	mov	DWORD PTR [edx+200], ecx

; 2480 : 	}
; 2481 : 	else

	jmp	SHORT $LN7@PM_Duck
$LN6@PM_Duck:

; 2482 : 	{
; 2483 : 		pmove->oldbuttons &= ~IN_DUCK;

	mov	eax, DWORD PTR ?pmove@@3PAUplayermove_s@@A ; pmove
	mov	ecx, DWORD PTR [eax+200]
	and	ecx, -5					; fffffffbH
	mov	edx, DWORD PTR ?pmove@@3PAUplayermove_s@@A ; pmove
	mov	DWORD PTR [edx+200], ecx
$LN7@PM_Duck:

; 2484 : 	}
; 2485 : 
; 2486 : 	// Prevent ducking if the iuser3 variable is set
; 2487 : 	if ( pmove->iuser3 || pmove->dead )

	mov	eax, DWORD PTR ?pmove@@3PAUplayermove_s@@A ; pmove
	cmp	DWORD PTR [eax+516], 0
	jne	SHORT $LN9@PM_Duck
	mov	eax, DWORD PTR ?pmove@@3PAUplayermove_s@@A ; pmove
	cmp	DWORD PTR [eax+208], 0
	je	SHORT $LN8@PM_Duck
$LN9@PM_Duck:

; 2488 : 	{
; 2489 : 		// Try to unduck
; 2490 : 		if ( pmove->flags & FL_DUCKING )

	mov	eax, DWORD PTR ?pmove@@3PAUplayermove_s@@A ; pmove
	mov	ecx, DWORD PTR [eax+184]
	and	ecx, 16384				; 00004000H
	je	SHORT $LN10@PM_Duck

; 2491 : 			PM_UnDuck();

	call	?PM_UnDuck@@YAXXZ			; PM_UnDuck
$LN10@PM_Duck:

; 2492 : 
; 2493 : 		return;

	jmp	$LN1@PM_Duck
$LN8@PM_Duck:

; 2494 : 	}
; 2495 : 
; 2496 : 	if ( pmove->flags & FL_DUCKING )

	mov	eax, DWORD PTR ?pmove@@3PAUplayermove_s@@A ; pmove
	mov	ecx, DWORD PTR [eax+184]
	and	ecx, 16384				; 00004000H
	je	SHORT $LN11@PM_Duck

; 2497 : 	{
; 2498 : 		pmove->cmd.forwardmove *= 0.333;

	mov	eax, DWORD PTR ?pmove@@3PAUplayermove_s@@A ; pmove
	cvtss2sd xmm0, DWORD PTR [eax+283752]
	mulsd	xmm0, QWORD PTR __real@3fd54fdf3b645a1d
	cvtsd2ss xmm0, xmm0
	mov	ecx, DWORD PTR ?pmove@@3PAUplayermove_s@@A ; pmove
	movss	DWORD PTR [ecx+283752], xmm0

; 2499 : 		pmove->cmd.sidemove    *= 0.333;

	mov	eax, DWORD PTR ?pmove@@3PAUplayermove_s@@A ; pmove
	cvtss2sd xmm0, DWORD PTR [eax+283756]
	mulsd	xmm0, QWORD PTR __real@3fd54fdf3b645a1d
	cvtsd2ss xmm0, xmm0
	mov	ecx, DWORD PTR ?pmove@@3PAUplayermove_s@@A ; pmove
	movss	DWORD PTR [ecx+283756], xmm0

; 2500 : 		pmove->cmd.upmove      *= 0.333;

	mov	eax, DWORD PTR ?pmove@@3PAUplayermove_s@@A ; pmove
	cvtss2sd xmm0, DWORD PTR [eax+283760]
	mulsd	xmm0, QWORD PTR __real@3fd54fdf3b645a1d
	cvtsd2ss xmm0, xmm0
	mov	ecx, DWORD PTR ?pmove@@3PAUplayermove_s@@A ; pmove
	movss	DWORD PTR [ecx+283760], xmm0
$LN11@PM_Duck:

; 2501 : 	}
; 2502 : 
; 2503 : 	if ( ( pmove->cmd.buttons & IN_DUCK ) || ( pmove->bInDuck ) || ( pmove->flags & FL_DUCKING ) )

	mov	eax, DWORD PTR ?pmove@@3PAUplayermove_s@@A ; pmove
	movzx	ecx, WORD PTR [eax+283766]
	and	ecx, 4
	jne	SHORT $LN13@PM_Duck
	mov	eax, DWORD PTR ?pmove@@3PAUplayermove_s@@A ; pmove
	cmp	DWORD PTR [eax+144], 0
	jne	SHORT $LN13@PM_Duck
	mov	eax, DWORD PTR ?pmove@@3PAUplayermove_s@@A ; pmove
	mov	ecx, DWORD PTR [eax+184]
	and	ecx, 16384				; 00004000H
	je	$LN15@PM_Duck
$LN13@PM_Duck:

; 2504 : 	{
; 2505 : 		if ( pmove->cmd.buttons & IN_DUCK )

	mov	eax, DWORD PTR ?pmove@@3PAUplayermove_s@@A ; pmove
	movzx	ecx, WORD PTR [eax+283766]
	and	ecx, 4
	je	$LN14@PM_Duck

; 2506 : 		{
; 2507 : 			if ( (nButtonPressed & IN_DUCK ) && !( pmove->flags & FL_DUCKING ) )

	mov	eax, DWORD PTR _nButtonPressed$[ebp]
	and	eax, 4
	je	SHORT $LN16@PM_Duck
	mov	eax, DWORD PTR ?pmove@@3PAUplayermove_s@@A ; pmove
	mov	ecx, DWORD PTR [eax+184]
	and	ecx, 16384				; 00004000H
	jne	SHORT $LN16@PM_Duck

; 2508 : 			{
; 2509 : 				// Use 1 second so super long jump will work
; 2510 : 				pmove->flDuckTime = 1000;

	mov	eax, DWORD PTR ?pmove@@3PAUplayermove_s@@A ; pmove
	movss	xmm0, DWORD PTR __real@447a0000
	movss	DWORD PTR [eax+140], xmm0

; 2511 : 				pmove->bInDuck    = true;

	mov	eax, DWORD PTR ?pmove@@3PAUplayermove_s@@A ; pmove
	mov	DWORD PTR [eax+144], 1
$LN16@PM_Duck:

; 2512 : 			}
; 2513 : 
; 2514 : 			time = max( 0.0, ( 1.0 - (float)pmove->flDuckTime / 1000.0 ) );

	mov	eax, DWORD PTR ?pmove@@3PAUplayermove_s@@A ; pmove
	cvtss2sd xmm0, DWORD PTR [eax+140]
	divsd	xmm0, QWORD PTR __real@408f400000000000
	movsd	xmm1, QWORD PTR __real@3ff0000000000000
	subsd	xmm1, xmm0
	xorps	xmm0, xmm0
	comisd	xmm0, xmm1
	jbe	SHORT $LN30@PM_Duck
	xorps	xmm0, xmm0
	movsd	QWORD PTR tv189[ebp], xmm0
	jmp	SHORT $LN31@PM_Duck
$LN30@PM_Duck:
	mov	ecx, DWORD PTR ?pmove@@3PAUplayermove_s@@A ; pmove
	cvtss2sd xmm0, DWORD PTR [ecx+140]
	divsd	xmm0, QWORD PTR __real@408f400000000000
	movsd	xmm1, QWORD PTR __real@3ff0000000000000
	subsd	xmm1, xmm0
	movsd	QWORD PTR tv189[ebp], xmm1
$LN31@PM_Duck:
	cvtsd2ss xmm0, QWORD PTR tv189[ebp]
	movss	DWORD PTR _time$[ebp], xmm0

; 2515 : 			
; 2516 : 			if ( pmove->bInDuck )

	mov	eax, DWORD PTR ?pmove@@3PAUplayermove_s@@A ; pmove
	cmp	DWORD PTR [eax+144], 0
	je	$LN19@PM_Duck

; 2517 : 			{
; 2518 : #if 0
; 2519 : 				pmove->usehull = 1;
; 2520 : 				pmove->view_ofs[2] = DUCK_VIEW;
; 2521 : 				pmove->flags |= FL_DUCKING;
; 2522 : #endif
; 2523 : 				// Finish ducking immediately if duck time is over or not on ground
; 2524 : 				if ( ( (float)pmove->flDuckTime / 1000.0 <= ( 1.0 - TIME_TO_DUCK ) ) ||

	mov	eax, DWORD PTR ?pmove@@3PAUplayermove_s@@A ; pmove
	cvtss2sd xmm0, DWORD PTR [eax+140]
	divsd	xmm0, QWORD PTR __real@408f400000000000
	movsd	xmm1, QWORD PTR __real@3fe3333333333333
	comisd	xmm1, xmm0
	jae	SHORT $LN20@PM_Duck
	mov	eax, DWORD PTR ?pmove@@3PAUplayermove_s@@A ; pmove
	cmp	DWORD PTR [eax+224], -1
	jne	$LN18@PM_Duck
$LN20@PM_Duck:

; 2525 : 					 ( pmove->onground == -1 ) )
; 2526 : 				{
; 2527 : 					pmove->usehull = 1;

	mov	eax, DWORD PTR ?pmove@@3PAUplayermove_s@@A ; pmove
	mov	DWORD PTR [eax+188], 1

; 2528 : 					pmove->view_ofs[2] = VecDuckView;

	cvtsi2ss xmm0, DWORD PTR _VecDuckView$[ebp]
	mov	ecx, DWORD PTR ?pmove@@3PAUplayermove_s@@A ; pmove
	add	ecx, 128				; 00000080H
	movss	DWORD PTR tv386[ebp], xmm0
	call	??BVector@@QAEPAMXZ			; Vector::operator float *
	mov	ecx, 4
	shl	ecx, 1
	movss	xmm0, DWORD PTR tv386[ebp]
	movss	DWORD PTR [eax+ecx], xmm0

; 2529 : 					pmove->flags |= FL_DUCKING;

	mov	eax, DWORD PTR ?pmove@@3PAUplayermove_s@@A ; pmove
	mov	ecx, DWORD PTR [eax+184]
	or	ecx, 16384				; 00004000H
	mov	edx, DWORD PTR ?pmove@@3PAUplayermove_s@@A ; pmove
	mov	DWORD PTR [edx+184], ecx

; 2530 : 					pmove->bInDuck = false;

	mov	eax, DWORD PTR ?pmove@@3PAUplayermove_s@@A ; pmove
	mov	DWORD PTR [eax+144], 0

; 2531 : 
; 2532 : 					// HACKHACK - Fudge for collision bug - no time to fix this properly
; 2533 : 					if ( pmove->onground != -1 )

	mov	eax, DWORD PTR ?pmove@@3PAUplayermove_s@@A ; pmove
	cmp	DWORD PTR [eax+224], -1
	je	$LN21@PM_Duck

; 2534 : 					{
; 2535 : 						for( i = 0; i < 3; i++ )

	mov	DWORD PTR _i$[ebp], 0
	jmp	SHORT $LN4@PM_Duck
$LN2@PM_Duck:
	mov	eax, DWORD PTR _i$[ebp]
	add	eax, 1
	mov	DWORD PTR _i$[ebp], eax
$LN4@PM_Duck:
	cmp	DWORD PTR _i$[ebp], 3
	jge	$LN3@PM_Duck

; 2536 : 						{
; 2537 : 							if( pmove->effects & EF_UPSIDEDOWN )

	mov	eax, DWORD PTR ?pmove@@3PAUplayermove_s@@A ; pmove
	mov	ecx, DWORD PTR [eax+180]
	and	ecx, 4194304				; 00400000H
	je	SHORT $LN22@PM_Duck

; 2538 : 								pmove->origin[i] += ( pmove->player_mins[1][i] - pmove->player_mins[0][i] );

	mov	ecx, DWORD PTR ?pmove@@3PAUplayermove_s@@A ; pmove
	add	ecx, 56					; 00000038H
	call	??BVector@@QAEPAMXZ			; Vector::operator float *
	mov	ecx, DWORD PTR _i$[ebp]
	lea	edx, DWORD PTR [eax+ecx*4]
	mov	DWORD PTR tv237[ebp], edx
	mov	eax, 12					; 0000000cH
	shl	eax, 0
	mov	ecx, DWORD PTR ?pmove@@3PAUplayermove_s@@A ; pmove
	lea	ecx, DWORD PTR [ecx+eax+324852]
	call	??BVector@@QAEPAMXZ			; Vector::operator float *
	mov	esi, eax
	mov	edx, 12					; 0000000cH
	imul	eax, edx, 0
	mov	ecx, DWORD PTR ?pmove@@3PAUplayermove_s@@A ; pmove
	lea	ecx, DWORD PTR [ecx+eax+324852]
	call	??BVector@@QAEPAMXZ			; Vector::operator float *
	mov	edx, DWORD PTR _i$[ebp]
	mov	ecx, DWORD PTR _i$[ebp]
	movss	xmm0, DWORD PTR [esi+edx*4]
	subss	xmm0, DWORD PTR [eax+ecx*4]
	mov	edx, DWORD PTR tv237[ebp]
	addss	xmm0, DWORD PTR [edx]
	mov	eax, DWORD PTR tv237[ebp]
	movss	DWORD PTR [eax], xmm0

; 2539 : 							else

	jmp	SHORT $LN23@PM_Duck
$LN22@PM_Duck:

; 2540 : 								pmove->origin[i] -= ( pmove->player_mins[1][i] - pmove->player_mins[0][i]);

	mov	ecx, DWORD PTR ?pmove@@3PAUplayermove_s@@A ; pmove
	add	ecx, 56					; 00000038H
	call	??BVector@@QAEPAMXZ			; Vector::operator float *
	mov	ecx, DWORD PTR _i$[ebp]
	lea	edx, DWORD PTR [eax+ecx*4]
	mov	DWORD PTR tv259[ebp], edx
	mov	eax, 12					; 0000000cH
	shl	eax, 0
	mov	ecx, DWORD PTR ?pmove@@3PAUplayermove_s@@A ; pmove
	lea	ecx, DWORD PTR [ecx+eax+324852]
	call	??BVector@@QAEPAMXZ			; Vector::operator float *
	mov	esi, eax
	mov	edx, 12					; 0000000cH
	imul	eax, edx, 0
	mov	ecx, DWORD PTR ?pmove@@3PAUplayermove_s@@A ; pmove
	lea	ecx, DWORD PTR [ecx+eax+324852]
	call	??BVector@@QAEPAMXZ			; Vector::operator float *
	mov	edx, DWORD PTR _i$[ebp]
	mov	ecx, DWORD PTR _i$[ebp]
	movss	xmm0, DWORD PTR [esi+edx*4]
	subss	xmm0, DWORD PTR [eax+ecx*4]
	mov	edx, DWORD PTR tv259[ebp]
	movss	xmm1, DWORD PTR [edx]
	subss	xmm1, xmm0
	mov	eax, DWORD PTR tv259[ebp]
	movss	DWORD PTR [eax], xmm1
$LN23@PM_Duck:

; 2541 : 						}

	jmp	$LN2@PM_Duck
$LN3@PM_Duck:

; 2542 : 						// See if we are stuck?
; 2543 : 						PM_FixPlayerCrouchStuck( STUCK_MOVEUP );

	push	1
	call	?PM_FixPlayerCrouchStuck@@YAXH@Z	; PM_FixPlayerCrouchStuck
	add	esp, 4

; 2544 : 
; 2545 : 						// Recategorize position since ducking can change origin
; 2546 : 						PM_CategorizePosition();

	call	?PM_CategorizePosition@@YAXXZ		; PM_CategorizePosition
$LN21@PM_Duck:

; 2547 : 					}
; 2548 : 				}
; 2549 : 				else

	jmp	$LN19@PM_Duck
$LN18@PM_Duck:

; 2550 : 				{
; 2551 : 					float fMore = (DUCK_HULL_MIN - HULL_MIN);

	movss	xmm0, DWORD PTR __real@41900000
	movss	DWORD PTR _fMore$1[ebp], xmm0

; 2552 : 					if( pmove->effects & EF_UPSIDEDOWN )

	mov	eax, DWORD PTR ?pmove@@3PAUplayermove_s@@A ; pmove
	mov	ecx, DWORD PTR [eax+180]
	and	ecx, 4194304				; 00400000H
	je	SHORT $LN24@PM_Duck

; 2553 : 						fMore = (DUCK_HULL_MAX - HULL_MAX);

	movss	xmm0, DWORD PTR __real@c1900000
	movss	DWORD PTR _fMore$1[ebp], xmm0
$LN24@PM_Duck:

; 2554 : 
; 2555 : 					// Calc parametric time
; 2556 : 					duckFraction = PM_SplineFraction( time, (1.0/TIME_TO_DUCK) );

	push	ecx
	movss	xmm0, DWORD PTR __real@40200000
	movss	DWORD PTR [esp], xmm0
	push	ecx
	movss	xmm0, DWORD PTR _time$[ebp]
	movss	DWORD PTR [esp], xmm0
	call	?PM_SplineFraction@@YAMMM@Z		; PM_SplineFraction
	add	esp, 8
	fstp	DWORD PTR _duckFraction$[ebp]

; 2557 : 					pmove->view_ofs[2] = ((VecDuckView - fMore ) * duckFraction) + (VecView * (1-duckFraction));

	cvtsi2ss xmm0, DWORD PTR _VecDuckView$[ebp]
	subss	xmm0, DWORD PTR _fMore$1[ebp]
	mulss	xmm0, DWORD PTR _duckFraction$[ebp]
	cvtsi2ss xmm1, DWORD PTR _VecView$[ebp]
	movss	xmm2, DWORD PTR __real@3f800000
	subss	xmm2, DWORD PTR _duckFraction$[ebp]
	mulss	xmm1, xmm2
	addss	xmm0, xmm1
	mov	ecx, DWORD PTR ?pmove@@3PAUplayermove_s@@A ; pmove
	add	ecx, 128				; 00000080H
	movss	DWORD PTR tv388[ebp], xmm0
	call	??BVector@@QAEPAMXZ			; Vector::operator float *
	mov	ecx, 4
	shl	ecx, 1
	movss	xmm0, DWORD PTR tv388[ebp]
	movss	DWORD PTR [eax+ecx], xmm0
$LN19@PM_Duck:

; 2558 : 				}
; 2559 : 			}
; 2560 : 		}
; 2561 : 		else

	jmp	SHORT $LN15@PM_Duck
$LN14@PM_Duck:

; 2562 : 		{
; 2563 : 			// Try to unduck
; 2564 : 			PM_UnDuck();

	call	?PM_UnDuck@@YAXXZ			; PM_UnDuck
$LN15@PM_Duck:
$LN1@PM_Duck:

; 2565 : 		}
; 2566 : 	}
; 2567 : }

	pop	edi
	pop	esi
	pop	ebx
	mov	esp, ebp
	pop	ebp
	ret	0
?PM_Duck@@YAXXZ ENDP					; PM_Duck
_TEXT	ENDS
; Function compile flags: /Odtp /ZI
; File d:\!diffusion 2020\source code 2022\client-server\game_shared\playermove.cpp
;	COMDAT ?PM_UnDuck@@YAXXZ
_TEXT	SEGMENT
tv287 = -428						; size = 4
tv155 = -428						; size = 4
tv134 = -428						; size = 4
$T1 = -424						; size = 68
$T2 = -356						; size = 68
$T3 = -288						; size = 68
$T4 = -220						; size = 68
_VecView$ = -88						; size = 4
_newOrigin$ = -84					; size = 12
_trace$ = -72						; size = 68
_i$ = -4						; size = 4
?PM_UnDuck@@YAXXZ PROC					; PM_UnDuck, COMDAT

; 2409 : {

	push	ebp
	mov	ebp, esp
	sub	esp, 428				; 000001acH
	push	ebx
	push	esi
	push	edi

; 2410 : 	int i;
; 2411 : 	pmtrace_t trace;

	lea	ecx, DWORD PTR _trace$[ebp]
	call	??0pmtrace_s@@QAE@XZ

; 2412 : 	Vector newOrigin;

	lea	ecx, DWORD PTR _newOrigin$[ebp]
	call	??0Vector@@QAE@XZ			; Vector::Vector

; 2413 : 	int VecView = VIEW_HEIGHT;

	mov	DWORD PTR _VecView$[ebp], 28		; 0000001cH

; 2414 : 	if( pmove->effects & EF_UPSIDEDOWN )

	mov	eax, DWORD PTR ?pmove@@3PAUplayermove_s@@A ; pmove
	mov	ecx, DWORD PTR [eax+180]
	and	ecx, 4194304				; 00400000H
	je	SHORT $LN5@PM_UnDuck

; 2415 : 		VecView = -VIEW_HEIGHT;

	mov	DWORD PTR _VecView$[ebp], -28		; ffffffe4H
$LN5@PM_UnDuck:

; 2416 : 
; 2417 : 	newOrigin = pmove->origin;

	mov	eax, DWORD PTR ?pmove@@3PAUplayermove_s@@A ; pmove
	add	eax, 56					; 00000038H
	mov	ecx, DWORD PTR [eax]
	mov	DWORD PTR _newOrigin$[ebp], ecx
	mov	edx, DWORD PTR [eax+4]
	mov	DWORD PTR _newOrigin$[ebp+4], edx
	mov	eax, DWORD PTR [eax+8]
	mov	DWORD PTR _newOrigin$[ebp+8], eax

; 2418 : 
; 2419 : 	if ( pmove->onground != -1 && pmove->flags & FL_DUCKING && pmove->bInDuck == false)

	mov	eax, DWORD PTR ?pmove@@3PAUplayermove_s@@A ; pmove
	cmp	DWORD PTR [eax+224], -1
	je	$LN3@PM_UnDuck
	mov	eax, DWORD PTR ?pmove@@3PAUplayermove_s@@A ; pmove
	mov	ecx, DWORD PTR [eax+184]
	and	ecx, 16384				; 00004000H
	je	$LN3@PM_UnDuck
	mov	eax, DWORD PTR ?pmove@@3PAUplayermove_s@@A ; pmove
	cmp	DWORD PTR [eax+144], 0
	jne	$LN3@PM_UnDuck

; 2420 : 	{
; 2421 : 		for ( i = 0; i < 3; i++ )

	mov	DWORD PTR _i$[ebp], 0
	jmp	SHORT $LN4@PM_UnDuck
$LN2@PM_UnDuck:
	mov	eax, DWORD PTR _i$[ebp]
	add	eax, 1
	mov	DWORD PTR _i$[ebp], eax
$LN4@PM_UnDuck:
	cmp	DWORD PTR _i$[ebp], 3
	jge	$LN3@PM_UnDuck

; 2422 : 		{
; 2423 : 			if( pmove->effects & EF_UPSIDEDOWN )

	mov	eax, DWORD PTR ?pmove@@3PAUplayermove_s@@A ; pmove
	mov	ecx, DWORD PTR [eax+180]
	and	ecx, 4194304				; 00400000H
	je	SHORT $LN7@PM_UnDuck

; 2424 : 				newOrigin[i] -= ( pmove->player_mins[1][i] - pmove->player_mins[0][i] );

	lea	ecx, DWORD PTR _newOrigin$[ebp]
	call	??BVector@@QAEPAMXZ			; Vector::operator float *
	mov	ecx, DWORD PTR _i$[ebp]
	lea	edx, DWORD PTR [eax+ecx*4]
	mov	DWORD PTR tv134[ebp], edx
	mov	eax, 12					; 0000000cH
	shl	eax, 0
	mov	ecx, DWORD PTR ?pmove@@3PAUplayermove_s@@A ; pmove
	lea	ecx, DWORD PTR [ecx+eax+324852]
	call	??BVector@@QAEPAMXZ			; Vector::operator float *
	mov	esi, eax
	mov	edx, 12					; 0000000cH
	imul	eax, edx, 0
	mov	ecx, DWORD PTR ?pmove@@3PAUplayermove_s@@A ; pmove
	lea	ecx, DWORD PTR [ecx+eax+324852]
	call	??BVector@@QAEPAMXZ			; Vector::operator float *
	mov	edx, DWORD PTR _i$[ebp]
	mov	ecx, DWORD PTR _i$[ebp]
	movss	xmm0, DWORD PTR [esi+edx*4]
	subss	xmm0, DWORD PTR [eax+ecx*4]
	mov	edx, DWORD PTR tv134[ebp]
	movss	xmm1, DWORD PTR [edx]
	subss	xmm1, xmm0
	mov	eax, DWORD PTR tv134[ebp]
	movss	DWORD PTR [eax], xmm1

; 2425 : 			else

	jmp	SHORT $LN8@PM_UnDuck
$LN7@PM_UnDuck:

; 2426 : 				newOrigin[i] += (pmove->player_mins[1][i] - pmove->player_mins[0][i]);

	lea	ecx, DWORD PTR _newOrigin$[ebp]
	call	??BVector@@QAEPAMXZ			; Vector::operator float *
	mov	ecx, DWORD PTR _i$[ebp]
	lea	edx, DWORD PTR [eax+ecx*4]
	mov	DWORD PTR tv155[ebp], edx
	mov	eax, 12					; 0000000cH
	shl	eax, 0
	mov	ecx, DWORD PTR ?pmove@@3PAUplayermove_s@@A ; pmove
	lea	ecx, DWORD PTR [ecx+eax+324852]
	call	??BVector@@QAEPAMXZ			; Vector::operator float *
	mov	esi, eax
	mov	edx, 12					; 0000000cH
	imul	eax, edx, 0
	mov	ecx, DWORD PTR ?pmove@@3PAUplayermove_s@@A ; pmove
	lea	ecx, DWORD PTR [ecx+eax+324852]
	call	??BVector@@QAEPAMXZ			; Vector::operator float *
	mov	edx, DWORD PTR _i$[ebp]
	mov	ecx, DWORD PTR _i$[ebp]
	movss	xmm0, DWORD PTR [esi+edx*4]
	subss	xmm0, DWORD PTR [eax+ecx*4]
	mov	edx, DWORD PTR tv155[ebp]
	addss	xmm0, DWORD PTR [edx]
	mov	eax, DWORD PTR tv155[ebp]
	movss	DWORD PTR [eax], xmm0
$LN8@PM_UnDuck:

; 2427 : 		}

	jmp	$LN2@PM_UnDuck
$LN3@PM_UnDuck:

; 2428 : 	}
; 2429 : 	
; 2430 : 	trace = pmove->PM_PlayerTrace( newOrigin, newOrigin, PM_NORMAL, -1 );

	push	-1
	push	0
	lea	ecx, DWORD PTR _newOrigin$[ebp]
	call	??BVector@@QAEPAMXZ			; Vector::operator float *
	push	eax
	lea	ecx, DWORD PTR _newOrigin$[ebp]
	call	??BVector@@QAEPAMXZ			; Vector::operator float *
	push	eax
	lea	eax, DWORD PTR $T3[ebp]
	push	eax
	mov	ecx, DWORD PTR ?pmove@@3PAUplayermove_s@@A ; pmove
	mov	edx, DWORD PTR [ecx+324992]
	call	edx
	add	esp, 20					; 00000014H
	mov	ecx, 17					; 00000011H
	mov	esi, eax
	lea	edi, DWORD PTR $T4[ebp]
	rep movsd
	mov	ecx, 17					; 00000011H
	lea	esi, DWORD PTR $T4[ebp]
	lea	edi, DWORD PTR _trace$[ebp]
	rep movsd

; 2431 : 
; 2432 : 	if ( !trace.startsolid )

	cmp	DWORD PTR _trace$[ebp+4], 0
	jne	$LN9@PM_UnDuck

; 2433 : 	{
; 2434 : 		pmove->usehull = 0;

	mov	eax, DWORD PTR ?pmove@@3PAUplayermove_s@@A ; pmove
	mov	DWORD PTR [eax+188], 0

; 2435 : 
; 2436 : 		// Oh, no, changing hulls stuck us into something, try unsticking downward first.
; 2437 : 		trace = pmove->PM_PlayerTrace( newOrigin, newOrigin, PM_NORMAL, -1  );

	push	-1
	push	0
	lea	ecx, DWORD PTR _newOrigin$[ebp]
	call	??BVector@@QAEPAMXZ			; Vector::operator float *
	push	eax
	lea	ecx, DWORD PTR _newOrigin$[ebp]
	call	??BVector@@QAEPAMXZ			; Vector::operator float *
	push	eax
	lea	eax, DWORD PTR $T1[ebp]
	push	eax
	mov	ecx, DWORD PTR ?pmove@@3PAUplayermove_s@@A ; pmove
	mov	edx, DWORD PTR [ecx+324992]
	call	edx
	add	esp, 20					; 00000014H
	mov	ecx, 17					; 00000011H
	mov	esi, eax
	lea	edi, DWORD PTR $T2[ebp]
	rep movsd
	mov	ecx, 17					; 00000011H
	lea	esi, DWORD PTR $T2[ebp]
	lea	edi, DWORD PTR _trace$[ebp]
	rep movsd

; 2438 : 		if ( trace.startsolid )

	cmp	DWORD PTR _trace$[ebp+4], 0
	je	SHORT $LN10@PM_UnDuck

; 2439 : 		{
; 2440 : 			// See if we are stuck?  If so, stay ducked with the duck hull until we have a clear spot
; 2441 : 			//Con_Printf( "unstick got stuck\n" );
; 2442 : 			pmove->usehull = 1;

	mov	eax, DWORD PTR ?pmove@@3PAUplayermove_s@@A ; pmove
	mov	DWORD PTR [eax+188], 1

; 2443 : 			return;

	jmp	$LN1@PM_UnDuck
$LN10@PM_UnDuck:

; 2444 : 		}
; 2445 : 
; 2446 : 		pmove->flags &= ~FL_DUCKING;

	mov	eax, DWORD PTR ?pmove@@3PAUplayermove_s@@A ; pmove
	mov	ecx, DWORD PTR [eax+184]
	and	ecx, -16385				; ffffbfffH
	mov	edx, DWORD PTR ?pmove@@3PAUplayermove_s@@A ; pmove
	mov	DWORD PTR [edx+184], ecx

; 2447 : 		pmove->bInDuck  = false;

	mov	eax, DWORD PTR ?pmove@@3PAUplayermove_s@@A ; pmove
	mov	DWORD PTR [eax+144], 0

; 2448 : 		pmove->view_ofs[2] = VecView;

	cvtsi2ss xmm0, DWORD PTR _VecView$[ebp]
	mov	ecx, DWORD PTR ?pmove@@3PAUplayermove_s@@A ; pmove
	add	ecx, 128				; 00000080H
	movss	DWORD PTR tv287[ebp], xmm0
	call	??BVector@@QAEPAMXZ			; Vector::operator float *
	mov	ecx, 4
	shl	ecx, 1
	movss	xmm0, DWORD PTR tv287[ebp]
	movss	DWORD PTR [eax+ecx], xmm0

; 2449 : 		pmove->flDuckTime = 0;

	mov	eax, DWORD PTR ?pmove@@3PAUplayermove_s@@A ; pmove
	xorps	xmm0, xmm0
	movss	DWORD PTR [eax+140], xmm0

; 2450 : 		
; 2451 : 		pmove->origin = newOrigin;

	mov	eax, DWORD PTR ?pmove@@3PAUplayermove_s@@A ; pmove
	add	eax, 56					; 00000038H
	mov	ecx, DWORD PTR _newOrigin$[ebp]
	mov	DWORD PTR [eax], ecx
	mov	edx, DWORD PTR _newOrigin$[ebp+4]
	mov	DWORD PTR [eax+4], edx
	mov	ecx, DWORD PTR _newOrigin$[ebp+8]
	mov	DWORD PTR [eax+8], ecx

; 2452 : 
; 2453 : 		// Recategorize position since ducking can change origin
; 2454 : 		PM_CategorizePosition();

	call	?PM_CategorizePosition@@YAXXZ		; PM_CategorizePosition
$LN9@PM_UnDuck:
$LN1@PM_UnDuck:

; 2455 : 	}
; 2456 : }

	pop	edi
	pop	esi
	pop	ebx
	mov	esp, ebp
	pop	ebp
	ret	0
?PM_UnDuck@@YAXXZ ENDP					; PM_UnDuck
_TEXT	ENDS
; Function compile flags: /Odtp /ZI
; File d:\!diffusion 2020\source code 2022\client-server\game_shared\playermove.cpp
;	COMDAT ?PM_FixPlayerCrouchStuck@@YAXH@Z
_TEXT	SEGMENT
_i$1 = -16						; size = 4
_test$ = -12						; size = 12
_direction$ = 8						; size = 4
?PM_FixPlayerCrouchStuck@@YAXH@Z PROC			; PM_FixPlayerCrouchStuck, COMDAT

; 2391 : {

	push	ebp
	mov	ebp, esp
	sub	esp, 80					; 00000050H
	push	ebx
	push	esi
	push	edi

; 2392 : 	if( pmove->PM_TestPlayerPosition ( pmove->origin, NULL ) == -1 )

	push	0
	mov	ecx, DWORD PTR ?pmove@@3PAUplayermove_s@@A ; pmove
	add	ecx, 56					; 00000038H
	call	??BVector@@QAEPAMXZ			; Vector::operator float *
	push	eax
	mov	eax, DWORD PTR ?pmove@@3PAUplayermove_s@@A ; pmove
	mov	ecx, DWORD PTR [eax+324956]
	call	ecx
	add	esp, 8
	cmp	eax, -1
	jne	SHORT $LN5@PM_FixPlay

; 2393 : 		return;

	jmp	$LN1@PM_FixPlay
$LN5@PM_FixPlay:

; 2394 : 	
; 2395 : 	Vector test = pmove->origin;

	mov	eax, DWORD PTR ?pmove@@3PAUplayermove_s@@A ; pmove
	add	eax, 56					; 00000038H
	push	eax
	lea	ecx, DWORD PTR _test$[ebp]
	call	??0Vector@@QAE@ABV0@@Z			; Vector::Vector

; 2396 : 	
; 2397 : 	for( int i = 0; i < 36; i++ )

	mov	DWORD PTR _i$1[ebp], 0
	jmp	SHORT $LN4@PM_FixPlay
$LN2@PM_FixPlay:
	mov	eax, DWORD PTR _i$1[ebp]
	add	eax, 1
	mov	DWORD PTR _i$1[ebp], eax
$LN4@PM_FixPlay:
	cmp	DWORD PTR _i$1[ebp], 36			; 00000024H
	jge	SHORT $LN3@PM_FixPlay

; 2398 : 	{
; 2399 : 		pmove->origin.z += direction;

	cvtsi2ss xmm0, DWORD PTR _direction$[ebp]
	mov	eax, DWORD PTR ?pmove@@3PAUplayermove_s@@A ; pmove
	addss	xmm0, DWORD PTR [eax+64]
	mov	ecx, DWORD PTR ?pmove@@3PAUplayermove_s@@A ; pmove
	movss	DWORD PTR [ecx+64], xmm0

; 2400 : 
; 2401 : 		if( pmove->PM_TestPlayerPosition ( pmove->origin, NULL ) == -1 )

	push	0
	mov	ecx, DWORD PTR ?pmove@@3PAUplayermove_s@@A ; pmove
	add	ecx, 56					; 00000038H
	call	??BVector@@QAEPAMXZ			; Vector::operator float *
	push	eax
	mov	eax, DWORD PTR ?pmove@@3PAUplayermove_s@@A ; pmove
	mov	ecx, DWORD PTR [eax+324956]
	call	ecx
	add	esp, 8
	cmp	eax, -1
	jne	SHORT $LN6@PM_FixPlay

; 2402 : 			return;

	jmp	SHORT $LN1@PM_FixPlay
$LN6@PM_FixPlay:

; 2403 : 	}

	jmp	SHORT $LN2@PM_FixPlay
$LN3@PM_FixPlay:

; 2404 : 
; 2405 : 	pmove->origin = test; // Failed

	mov	eax, DWORD PTR ?pmove@@3PAUplayermove_s@@A ; pmove
	add	eax, 56					; 00000038H
	mov	ecx, DWORD PTR _test$[ebp]
	mov	DWORD PTR [eax], ecx
	mov	edx, DWORD PTR _test$[ebp+4]
	mov	DWORD PTR [eax+4], edx
	mov	ecx, DWORD PTR _test$[ebp+8]
	mov	DWORD PTR [eax+8], ecx
$LN1@PM_FixPlay:

; 2406 : }

	pop	edi
	pop	esi
	pop	ebx
	mov	esp, ebp
	pop	ebp
	ret	0
?PM_FixPlayerCrouchStuck@@YAXH@Z ENDP			; PM_FixPlayerCrouchStuck
_TEXT	ENDS
; Function compile flags: /Odtp /ZI
; File d:\!diffusion 2020\source code 2022\client-server\game_shared\playermove.cpp
;	COMDAT ?PM_SplineFraction@@YAMMM@Z
_TEXT	SEGMENT
tv75 = -72						; size = 4
_valueSquared$ = -4					; size = 4
_value$ = 8						; size = 4
_scale$ = 12						; size = 4
?PM_SplineFraction@@YAMMM@Z PROC			; PM_SplineFraction, COMDAT

; 2380 : {

	push	ebp
	mov	ebp, esp
	sub	esp, 72					; 00000048H
	push	ebx
	push	esi
	push	edi

; 2381 : 	float valueSquared;
; 2382 : 
; 2383 : 	value = scale * value;

	movss	xmm0, DWORD PTR _scale$[ebp]
	mulss	xmm0, DWORD PTR _value$[ebp]
	movss	DWORD PTR _value$[ebp], xmm0

; 2384 : 	valueSquared = value * value;

	movss	xmm0, DWORD PTR _value$[ebp]
	mulss	xmm0, DWORD PTR _value$[ebp]
	movss	DWORD PTR _valueSquared$[ebp], xmm0

; 2385 : 
; 2386 : 	// Nice little ease-in, ease-out spline-like curve
; 2387 : 	return 3 * valueSquared - 2 * valueSquared * value;

	movss	xmm0, DWORD PTR __real@40400000
	mulss	xmm0, DWORD PTR _valueSquared$[ebp]
	movss	xmm1, DWORD PTR __real@40000000
	mulss	xmm1, DWORD PTR _valueSquared$[ebp]
	mulss	xmm1, DWORD PTR _value$[ebp]
	subss	xmm0, xmm1
	movss	DWORD PTR tv75[ebp], xmm0
	fld	DWORD PTR tv75[ebp]

; 2388 : }

	pop	edi
	pop	esi
	pop	ebx
	mov	esp, ebp
	pop	ebp
	ret	0
?PM_SplineFraction@@YAMMM@Z ENDP			; PM_SplineFraction
_TEXT	ENDS
; Function compile flags: /Odtp /ZI
; File d:\!diffusion 2020\source code 2022\client-server\game_shared\playermove.cpp
;	COMDAT ?PM_SpectatorMove@@YAXXZ
_TEXT	SEGMENT
_target$1 = -76						; size = 4
_wishdir$ = -68						; size = 12
_wishvel$ = -48						; size = 12
?PM_SpectatorMove@@YAXXZ PROC				; PM_SpectatorMove, COMDAT

; 2261 : {

	push	ebp
	mov	ebp, esp
	sub	esp, 140				; 0000008cH
	push	ebx
	push	esi
	push	edi

; 2262 : 	float	speed, drop, friction, control, newspeed;
; 2263 : 	//float   accel;
; 2264 : 	float	currentspeed, addspeed, accelspeed;
; 2265 : 	int			i;
; 2266 : 	Vector		wishvel;

	lea	ecx, DWORD PTR _wishvel$[ebp]
	call	??0Vector@@QAE@XZ			; Vector::Vector

; 2267 : 	float		fmove, smove;
; 2268 : 	Vector		wishdir;

	lea	ecx, DWORD PTR _wishdir$[ebp]
	call	??0Vector@@QAE@XZ			; Vector::Vector

; 2269 : 	float		wishspeed;
; 2270 : 	// this routine keeps track of the spectators psoition
; 2271 : 	// there a two different main move types : track player or moce freely (OBS_ROAMING)
; 2272 : 	// doesn't need excate track position, only to generate PVS, so just copy
; 2273 : 	// targets position and real view position is calculated on client (saves server CPU)
; 2274 : 	
; 2275 : 	if ( pmove->iuser1 == OBS_ROAMING)

	mov	eax, DWORD PTR ?pmove@@3PAUplayermove_s@@A ; pmove
	cmp	DWORD PTR [eax+508], 3
	jne	SHORT $LN5@PM_Spectat

; 2276 : 	{
; 2277 : 		// Move around in normal spectator method
; 2278 : 		/*speed = pmove->velocity.Length();
; 2279 : 
; 2280 : 		if (speed < 1)
; 2281 : 			pmove->velocity = g_vecZero;
; 2282 : 		else
; 2283 : 		{
; 2284 : 			drop = 0;
; 2285 : 
; 2286 : 			friction = pmove->movevars->friction*1.5;	// extra friction
; 2287 : 			control = speed < pmove->movevars->stopspeed ? pmove->movevars->stopspeed : speed;
; 2288 : 			drop += control*friction*pmove->frametime;
; 2289 : 
; 2290 : 			// scale the velocity
; 2291 : 			newspeed = speed - drop;
; 2292 : 			if (newspeed < 0)
; 2293 : 				newspeed = 0;
; 2294 : 			newspeed /= speed;
; 2295 : 
; 2296 : 			pmove->velocity *= newspeed;
; 2297 : 		}
; 2298 : 
; 2299 : 		// accelerate
; 2300 : 		fmove = pmove->cmd.forwardmove;
; 2301 : 		smove = pmove->cmd.sidemove;
; 2302 : 		
; 2303 : 		pmove->forward = pmove->forward.Normalize();
; 2304 : 		pmove->right = pmove->right.Normalize();
; 2305 : 
; 2306 : 		for (i=0 ; i<3 ; i++)
; 2307 : 		{
; 2308 : 			wishvel[i] = pmove->forward[i]*fmove + pmove->right[i]*smove;
; 2309 : 		}
; 2310 : 		wishvel[2] += pmove->cmd.upmove;
; 2311 : 
; 2312 : 		wishdir = wishvel;
; 2313 : 		wishspeed = wishdir.Length();
; 2314 : 		wishdir = wishdir.Normalize();
; 2315 : 
; 2316 : 		//
; 2317 : 		// clamp to server defined max speed
; 2318 : 		//
; 2319 : 		if (wishspeed > pmove->movevars->spectatormaxspeed)
; 2320 : 		{
; 2321 : 			wishvel *= ( pmove->movevars->spectatormaxspeed / wishspeed );
; 2322 : 			wishspeed = pmove->movevars->spectatormaxspeed;
; 2323 : 		}
; 2324 : 
; 2325 : 		currentspeed = DotProduct(pmove->velocity, wishdir);
; 2326 : 		addspeed = wishspeed - currentspeed;
; 2327 : 		if (addspeed <= 0)
; 2328 : 			return;
; 2329 : 
; 2330 : 		accelspeed = pmove->movevars->accelerate*pmove->frametime*wishspeed;
; 2331 : 		if (accelspeed > addspeed)
; 2332 : 			accelspeed = addspeed;
; 2333 : 		
; 2334 : 		pmove->velocity += wishdir * accelspeed;	
; 2335 : 
; 2336 : 		// move
; 2337 : 		pmove->origin += pmove->velocity * pmove->frametime;*/
; 2338 : 
; 2339 : 		// diffusion - use this.
; 2340 : 		PM_NoClip();

	call	?PM_NoClip@@YAXXZ			; PM_NoClip

; 2341 : 	}
; 2342 : 	else

	jmp	$LN1@PM_Spectat
$LN5@PM_Spectat:

; 2343 : 	{
; 2344 : 		// all other modes just track some kind of target, so spectator PVS = target PVS
; 2345 : 
; 2346 : 		int target;
; 2347 : 
; 2348 : 		// no valid target ?
; 2349 : 		if ( pmove->iuser2 <= 0)

	mov	eax, DWORD PTR ?pmove@@3PAUplayermove_s@@A ; pmove
	cmp	DWORD PTR [eax+512], 0
	jg	SHORT $LN7@PM_Spectat

; 2350 : 			return;

	jmp	$LN1@PM_Spectat
$LN7@PM_Spectat:

; 2351 : 
; 2352 : 		// Find the client this player's targeting
; 2353 : 		for (target = 0; target < pmove->numphysent; target++)

	mov	DWORD PTR _target$1[ebp], 0
	jmp	SHORT $LN4@PM_Spectat
$LN2@PM_Spectat:
	mov	eax, DWORD PTR _target$1[ebp]
	add	eax, 1
	mov	DWORD PTR _target$1[ebp], eax
$LN4@PM_Spectat:
	mov	eax, DWORD PTR ?pmove@@3PAUplayermove_s@@A ; pmove
	mov	ecx, DWORD PTR _target$1[ebp]
	cmp	ecx, DWORD PTR [eax+588]
	jge	SHORT $LN3@PM_Spectat

; 2354 : 		{
; 2355 : 			if ( pmove->physents[target].info == pmove->iuser2 )

	imul	eax, DWORD PTR _target$1[ebp], 224
	mov	ecx, DWORD PTR ?pmove@@3PAUplayermove_s@@A ; pmove
	mov	edx, DWORD PTR ?pmove@@3PAUplayermove_s@@A ; pmove
	mov	eax, DWORD PTR [ecx+eax+672]
	cmp	eax, DWORD PTR [edx+512]
	jne	SHORT $LN8@PM_Spectat

; 2356 : 				break;

	jmp	SHORT $LN3@PM_Spectat
$LN8@PM_Spectat:

; 2357 : 		}

	jmp	SHORT $LN2@PM_Spectat
$LN3@PM_Spectat:

; 2358 : 
; 2359 : 		if (target == pmove->numphysent)

	mov	eax, DWORD PTR ?pmove@@3PAUplayermove_s@@A ; pmove
	mov	ecx, DWORD PTR _target$1[ebp]
	cmp	ecx, DWORD PTR [eax+588]
	jne	SHORT $LN9@PM_Spectat

; 2360 : 			return;

	jmp	SHORT $LN1@PM_Spectat
$LN9@PM_Spectat:

; 2361 : 
; 2362 : 		// use targets position as own origin for PVS
; 2363 : 		pmove->angles = pmove->physents[target].angles;

	imul	eax, DWORD PTR _target$1[ebp], 224
	mov	ecx, DWORD PTR ?pmove@@3PAUplayermove_s@@A ; pmove
	lea	edx, DWORD PTR [ecx+eax+676]
	mov	eax, DWORD PTR ?pmove@@3PAUplayermove_s@@A ; pmove
	add	eax, 68					; 00000044H
	mov	ecx, DWORD PTR [edx]
	mov	DWORD PTR [eax], ecx
	mov	ecx, DWORD PTR [edx+4]
	mov	DWORD PTR [eax+4], ecx
	mov	edx, DWORD PTR [edx+8]
	mov	DWORD PTR [eax+8], edx

; 2364 : 		pmove->origin = pmove->physents[target].origin;

	imul	eax, DWORD PTR _target$1[ebp], 224
	mov	ecx, DWORD PTR ?pmove@@3PAUplayermove_s@@A ; pmove
	lea	edx, DWORD PTR [ecx+eax+628]
	mov	eax, DWORD PTR ?pmove@@3PAUplayermove_s@@A ; pmove
	add	eax, 56					; 00000038H
	mov	ecx, DWORD PTR [edx]
	mov	DWORD PTR [eax], ecx
	mov	ecx, DWORD PTR [edx+4]
	mov	DWORD PTR [eax+4], ecx
	mov	edx, DWORD PTR [edx+8]
	mov	DWORD PTR [eax+8], edx

; 2365 : 
; 2366 : 		// no velocity
; 2367 : 		pmove->velocity = g_vecZero;

	mov	eax, DWORD PTR ?pmove@@3PAUplayermove_s@@A ; pmove
	add	eax, 92					; 0000005cH
	mov	ecx, DWORD PTR ?g_vecZero@@3VVector@@B
	mov	DWORD PTR [eax], ecx
	mov	edx, DWORD PTR ?g_vecZero@@3VVector@@B+4
	mov	DWORD PTR [eax+4], edx
	mov	ecx, DWORD PTR ?g_vecZero@@3VVector@@B+8
	mov	DWORD PTR [eax+8], ecx
$LN1@PM_Spectat:

; 2368 : 	}
; 2369 : }

	pop	edi
	pop	esi
	pop	ebx
	mov	esp, ebp
	pop	ebp
	ret	0
?PM_SpectatorMove@@YAXXZ ENDP				; PM_SpectatorMove
_TEXT	ENDS
; Function compile flags: /Odtp /ZI
; File d:\!diffusion 2020\source code 2022\client-server\game_shared\playermove.cpp
;	COMDAT ?PM_CheckStuck@@YAHXZ
_TEXT	SEGMENT
tv165 = -232						; size = 4
tv90 = -232						; size = 4
$T1 = -228						; size = 12
$T2 = -216						; size = 12
_y$3 = -140						; size = 4
_x$4 = -136						; size = 4
_z$5 = -132						; size = 4
_i$ = -128						; size = 4
_fTime$ = -124						; size = 4
_idx$ = -120						; size = 4
_i$6 = -116						; size = 4
_nReps$7 = -112						; size = 4
_test$ = -108						; size = 12
_offset$ = -96						; size = 12
_base$ = -84						; size = 12
_hitent$ = -72						; size = 4
_traceresult$ = -68					; size = 68
?PM_CheckStuck@@YAHXZ PROC				; PM_CheckStuck, COMDAT

; 2157 : {

	push	ebp
	mov	ebp, esp
	sub	esp, 232				; 000000e8H
	push	ebx
	push	esi
	push	edi

; 2158 : 	pmtrace_t traceresult;

	lea	ecx, DWORD PTR _traceresult$[ebp]
	call	??0pmtrace_s@@QAE@XZ

; 2159 : 
; 2160 : 	// If position is okay, exit
; 2161 : 	int hitent = pmove->PM_TestPlayerPosition( pmove->origin, &traceresult );

	lea	eax, DWORD PTR _traceresult$[ebp]
	push	eax
	mov	ecx, DWORD PTR ?pmove@@3PAUplayermove_s@@A ; pmove
	add	ecx, 56					; 00000038H
	call	??BVector@@QAEPAMXZ			; Vector::operator float *
	push	eax
	mov	ecx, DWORD PTR ?pmove@@3PAUplayermove_s@@A ; pmove
	mov	edx, DWORD PTR [ecx+324956]
	call	edx
	add	esp, 8
	mov	DWORD PTR _hitent$[ebp], eax

; 2162 : 	
; 2163 : 	if( hitent == -1 )

	cmp	DWORD PTR _hitent$[ebp], -1
	jne	SHORT $LN14@PM_CheckSt

; 2164 : 	{
; 2165 : 		PM_ResetStuckOffsets( pmove->player_index, pmove->server );

	mov	eax, DWORD PTR ?pmove@@3PAUplayermove_s@@A ; pmove
	mov	ecx, DWORD PTR [eax+4]
	push	ecx
	mov	edx, DWORD PTR ?pmove@@3PAUplayermove_s@@A ; pmove
	mov	eax, DWORD PTR [edx]
	push	eax
	call	?PM_ResetStuckOffsets@@YAXHH@Z		; PM_ResetStuckOffsets
	add	esp, 8

; 2166 : 		return 0;

	xor	eax, eax
	jmp	$LN1@PM_CheckSt
$LN14@PM_CheckSt:

; 2167 : 	}
; 2168 : 
; 2169 : 	Vector base = pmove->origin;

	mov	eax, DWORD PTR ?pmove@@3PAUplayermove_s@@A ; pmove
	add	eax, 56					; 00000038H
	push	eax
	lea	ecx, DWORD PTR _base$[ebp]
	call	??0Vector@@QAE@ABV0@@Z			; Vector::Vector

; 2170 : 	Vector offset, test;

	lea	ecx, DWORD PTR _offset$[ebp]
	call	??0Vector@@QAE@XZ			; Vector::Vector
	lea	ecx, DWORD PTR _test$[ebp]
	call	??0Vector@@QAE@XZ			; Vector::Vector

; 2171 : 
; 2172 : 	// Deal with precision error in network or stuck with physics body
; 2173 : 	if( !pmove->server || pmove->physents[hitent].solid == SOLID_CUSTOM )

	mov	eax, DWORD PTR ?pmove@@3PAUplayermove_s@@A ; pmove
	cmp	DWORD PTR [eax+4], 0
	je	SHORT $LN16@PM_CheckSt
	imul	eax, DWORD PTR _hitent$[ebp], 224
	mov	ecx, DWORD PTR ?pmove@@3PAUplayermove_s@@A ; pmove
	cmp	DWORD PTR [ecx+eax+688], 5
	jne	$LN3@PM_CheckSt
$LN16@PM_CheckSt:

; 2174 : 	{
; 2175 : 		// world, BSP model or custom convex hull
; 2176 : 		if(( !hitent == 0 ) || pmove->physents[hitent].model || pmove->physents[hitent].solid == SOLID_CUSTOM )

	cmp	DWORD PTR _hitent$[ebp], 0
	jne	SHORT $LN25@PM_CheckSt
	mov	DWORD PTR tv90[ebp], 1
	jmp	SHORT $LN26@PM_CheckSt
$LN25@PM_CheckSt:
	mov	DWORD PTR tv90[ebp], 0
$LN26@PM_CheckSt:
	cmp	DWORD PTR tv90[ebp], 0
	je	SHORT $LN18@PM_CheckSt
	imul	eax, DWORD PTR _hitent$[ebp], 224
	mov	ecx, DWORD PTR ?pmove@@3PAUplayermove_s@@A ; pmove
	cmp	DWORD PTR [ecx+eax+640], 0
	jne	SHORT $LN18@PM_CheckSt
	imul	eax, DWORD PTR _hitent$[ebp], 224
	mov	ecx, DWORD PTR ?pmove@@3PAUplayermove_s@@A ; pmove
	cmp	DWORD PTR [ecx+eax+688], 5
	jne	$LN3@PM_CheckSt
$LN18@PM_CheckSt:

; 2177 : 		{
; 2178 : 			int nReps = 0;

	mov	DWORD PTR _nReps$7[ebp], 0

; 2179 : 			PM_ResetStuckOffsets( pmove->player_index, pmove->server );

	mov	eax, DWORD PTR ?pmove@@3PAUplayermove_s@@A ; pmove
	mov	ecx, DWORD PTR [eax+4]
	push	ecx
	mov	edx, DWORD PTR ?pmove@@3PAUplayermove_s@@A ; pmove
	mov	eax, DWORD PTR [edx]
	push	eax
	call	?PM_ResetStuckOffsets@@YAXHH@Z		; PM_ResetStuckOffsets
	add	esp, 8
$LN4@PM_CheckSt:

; 2180 : 
; 2181 : 			do 
; 2182 : 			{
; 2183 : 				int i = PM_GetRandomStuckOffsets( pmove->player_index, pmove->server, offset );

	lea	eax, DWORD PTR _offset$[ebp]
	push	eax
	mov	ecx, DWORD PTR ?pmove@@3PAUplayermove_s@@A ; pmove
	mov	edx, DWORD PTR [ecx+4]
	push	edx
	mov	eax, DWORD PTR ?pmove@@3PAUplayermove_s@@A ; pmove
	mov	ecx, DWORD PTR [eax]
	push	ecx
	call	?PM_GetRandomStuckOffsets@@YAHHHAAVVector@@@Z ; PM_GetRandomStuckOffsets
	add	esp, 12					; 0000000cH
	mov	DWORD PTR _i$6[ebp], eax

; 2184 : 				test = base + offset;

	lea	eax, DWORD PTR _offset$[ebp]
	push	eax
	lea	ecx, DWORD PTR $T2[ebp]
	push	ecx
	lea	ecx, DWORD PTR _base$[ebp]
	call	??HVector@@QBE?AV0@ABV0@@Z		; Vector::operator+
	mov	edx, DWORD PTR [eax]
	mov	DWORD PTR _test$[ebp], edx
	mov	ecx, DWORD PTR [eax+4]
	mov	DWORD PTR _test$[ebp+4], ecx
	mov	edx, DWORD PTR [eax+8]
	mov	DWORD PTR _test$[ebp+8], edx

; 2185 : 
; 2186 : 				if( pmove->PM_TestPlayerPosition( test, &traceresult ) == -1 )

	lea	eax, DWORD PTR _traceresult$[ebp]
	push	eax
	lea	ecx, DWORD PTR _test$[ebp]
	call	??BVector@@QAEPAMXZ			; Vector::operator float *
	push	eax
	mov	ecx, DWORD PTR ?pmove@@3PAUplayermove_s@@A ; pmove
	mov	edx, DWORD PTR [ecx+324956]
	call	edx
	add	esp, 8
	cmp	eax, -1
	jne	SHORT $LN19@PM_CheckSt

; 2187 : 				{
; 2188 : 					PM_ResetStuckOffsets( pmove->player_index, pmove->server );

	mov	eax, DWORD PTR ?pmove@@3PAUplayermove_s@@A ; pmove
	mov	ecx, DWORD PTR [eax+4]
	push	ecx
	mov	edx, DWORD PTR ?pmove@@3PAUplayermove_s@@A ; pmove
	mov	eax, DWORD PTR [edx]
	push	eax
	call	?PM_ResetStuckOffsets@@YAXHH@Z		; PM_ResetStuckOffsets
	add	esp, 8

; 2189 : //					pmove->Con_Printf( "Unstick by %i\n", i );
; 2190 : 					pmove->origin = test;

	mov	eax, DWORD PTR ?pmove@@3PAUplayermove_s@@A ; pmove
	add	eax, 56					; 00000038H
	mov	ecx, DWORD PTR _test$[ebp]
	mov	DWORD PTR [eax], ecx
	mov	edx, DWORD PTR _test$[ebp+4]
	mov	DWORD PTR [eax+4], edx
	mov	ecx, DWORD PTR _test$[ebp+8]
	mov	DWORD PTR [eax+8], ecx

; 2191 : 
; 2192 : 					return 0;

	xor	eax, eax
	jmp	$LN1@PM_CheckSt
$LN19@PM_CheckSt:

; 2193 : 				}
; 2194 : 			} while( ++nReps < 54 );

	mov	eax, DWORD PTR _nReps$7[ebp]
	add	eax, 1
	mov	DWORD PTR _nReps$7[ebp], eax
	cmp	DWORD PTR _nReps$7[ebp], 54		; 00000036H
	jl	$LN4@PM_CheckSt
$LN3@PM_CheckSt:

; 2195 : 		}
; 2196 : 	}
; 2197 : 
; 2198 : 	// only an issue on the client.
; 2199 : 	int idx = (pmove->server) ? 0 : 1;

	mov	eax, DWORD PTR ?pmove@@3PAUplayermove_s@@A ; pmove
	cmp	DWORD PTR [eax+4], 0
	je	SHORT $LN27@PM_CheckSt
	mov	DWORD PTR tv165[ebp], 0
	jmp	SHORT $LN28@PM_CheckSt
$LN27@PM_CheckSt:
	mov	DWORD PTR tv165[ebp], 1
$LN28@PM_CheckSt:
	mov	ecx, DWORD PTR tv165[ebp]
	mov	DWORD PTR _idx$[ebp], ecx

; 2200 : 	float fTime = pmove->Sys_FloatTime();

	mov	eax, DWORD PTR ?pmove@@3PAUplayermove_s@@A ; pmove
	mov	ecx, DWORD PTR [eax+324972]
	call	ecx
	fstp	DWORD PTR _fTime$[ebp]

; 2201 : 
; 2202 : 	// too soon?
; 2203 : 	if( rgStuckCheckTime[pmove->player_index][idx] >= ( fTime - PM_CHECKSTUCK_MINTIME ))

	mov	eax, DWORD PTR ?pmove@@3PAUplayermove_s@@A ; pmove
	mov	ecx, DWORD PTR [eax]
	mov	edx, DWORD PTR _idx$[ebp]
	shl	edx, 2
	movss	xmm0, DWORD PTR _fTime$[ebp]
	subss	xmm0, DWORD PTR __real@3d4ccccd
	movss	xmm1, DWORD PTR ?rgStuckCheckTime@@3PAY01MA[edx+ecx*8]
	comiss	xmm1, xmm0
	jb	SHORT $LN20@PM_CheckSt

; 2204 : 	{
; 2205 : 		// can't move we're stuck!
; 2206 : 		pmove->flags |= FL_STUCKED;

	mov	eax, DWORD PTR ?pmove@@3PAUplayermove_s@@A ; pmove
	mov	ecx, DWORD PTR [eax+184]
	or	ecx, 134217728				; 08000000H
	mov	edx, DWORD PTR ?pmove@@3PAUplayermove_s@@A ; pmove
	mov	DWORD PTR [edx+184], ecx

; 2207 : 		return 1;

	mov	eax, 1
	jmp	$LN1@PM_CheckSt
$LN20@PM_CheckSt:

; 2208 : 	}
; 2209 : 
; 2210 : 	rgStuckCheckTime[pmove->player_index][idx] = fTime;

	mov	eax, DWORD PTR ?pmove@@3PAUplayermove_s@@A ; pmove
	mov	ecx, DWORD PTR [eax]
	mov	edx, DWORD PTR _idx$[ebp]
	shl	edx, 2
	movss	xmm0, DWORD PTR _fTime$[ebp]
	movss	DWORD PTR ?rgStuckCheckTime@@3PAY01MA[edx+ecx*8], xmm0

; 2211 : 	pmove->PM_StuckTouch( hitent, &traceresult );

	lea	eax, DWORD PTR _traceresult$[ebp]
	push	eax
	mov	ecx, DWORD PTR _hitent$[ebp]
	push	ecx
	mov	edx, DWORD PTR ?pmove@@3PAUplayermove_s@@A ; pmove
	mov	eax, DWORD PTR [edx+324976]
	call	eax
	add	esp, 8

; 2212 : 
; 2213 : 	int i = PM_GetRandomStuckOffsets( pmove->player_index, pmove->server, offset );

	lea	eax, DWORD PTR _offset$[ebp]
	push	eax
	mov	ecx, DWORD PTR ?pmove@@3PAUplayermove_s@@A ; pmove
	mov	edx, DWORD PTR [ecx+4]
	push	edx
	mov	eax, DWORD PTR ?pmove@@3PAUplayermove_s@@A ; pmove
	mov	ecx, DWORD PTR [eax]
	push	ecx
	call	?PM_GetRandomStuckOffsets@@YAHHHAAVVector@@@Z ; PM_GetRandomStuckOffsets
	add	esp, 12					; 0000000cH
	mov	DWORD PTR _i$[ebp], eax

; 2214 : 	test = base + offset;

	lea	eax, DWORD PTR _offset$[ebp]
	push	eax
	lea	ecx, DWORD PTR $T1[ebp]
	push	ecx
	lea	ecx, DWORD PTR _base$[ebp]
	call	??HVector@@QBE?AV0@ABV0@@Z		; Vector::operator+
	mov	edx, DWORD PTR [eax]
	mov	DWORD PTR _test$[ebp], edx
	mov	ecx, DWORD PTR [eax+4]
	mov	DWORD PTR _test$[ebp+4], ecx
	mov	edx, DWORD PTR [eax+8]
	mov	DWORD PTR _test$[ebp+8], edx

; 2215 : 
; 2216 : 	if(( hitent = pmove->PM_TestPlayerPosition( test, NULL )) == -1 )

	push	0
	lea	ecx, DWORD PTR _test$[ebp]
	call	??BVector@@QAEPAMXZ			; Vector::operator float *
	push	eax
	mov	eax, DWORD PTR ?pmove@@3PAUplayermove_s@@A ; pmove
	mov	ecx, DWORD PTR [eax+324956]
	call	ecx
	add	esp, 8
	mov	DWORD PTR _hitent$[ebp], eax
	cmp	DWORD PTR _hitent$[ebp], -1
	jne	SHORT $LN21@PM_CheckSt

; 2217 : 	{
; 2218 : 		PM_ResetStuckOffsets( pmove->player_index, pmove->server );

	mov	eax, DWORD PTR ?pmove@@3PAUplayermove_s@@A ; pmove
	mov	ecx, DWORD PTR [eax+4]
	push	ecx
	mov	edx, DWORD PTR ?pmove@@3PAUplayermove_s@@A ; pmove
	mov	eax, DWORD PTR [edx]
	push	eax
	call	?PM_ResetStuckOffsets@@YAXHH@Z		; PM_ResetStuckOffsets
	add	esp, 8

; 2219 : 		pmove->origin = test;

	mov	eax, DWORD PTR ?pmove@@3PAUplayermove_s@@A ; pmove
	add	eax, 56					; 00000038H
	mov	ecx, DWORD PTR _test$[ebp]
	mov	DWORD PTR [eax], ecx
	mov	edx, DWORD PTR _test$[ebp+4]
	mov	DWORD PTR [eax+4], edx
	mov	ecx, DWORD PTR _test$[ebp+8]
	mov	DWORD PTR [eax+8], ecx

; 2220 : 
; 2221 : 		return 0;

	xor	eax, eax
	jmp	$LN1@PM_CheckSt
$LN21@PM_CheckSt:

; 2222 : 	}
; 2223 : 
; 2224 : 	// If player is flailing while stuck in another player ( should never happen ), then see
; 2225 : 	// if we can't "unstick" them forceably.
; 2226 : 	if( pmove->cmd.buttons & ( IN_JUMP|IN_DUCK|IN_ATTACK ) && pmove->physents[hitent].player )

	mov	eax, DWORD PTR ?pmove@@3PAUplayermove_s@@A ; pmove
	movzx	ecx, WORD PTR [eax+283766]
	and	ecx, 7
	je	$LN6@PM_CheckSt
	imul	eax, DWORD PTR _hitent$[ebp], 224
	mov	ecx, DWORD PTR ?pmove@@3PAUplayermove_s@@A ; pmove
	cmp	DWORD PTR [ecx+eax+624], 0
	je	$LN6@PM_CheckSt

; 2227 : 	{
; 2228 : 		for( float z = 0; z <= (4 * pmove->movevars->stepsize); z += pmove->movevars->stepsize )

	xorps	xmm0, xmm0
	movss	DWORD PTR _z$5[ebp], xmm0
	jmp	SHORT $LN7@PM_CheckSt
$LN5@PM_CheckSt:
	mov	eax, DWORD PTR ?pmove@@3PAUplayermove_s@@A ; pmove
	mov	ecx, DWORD PTR [eax+324848]
	movss	xmm0, DWORD PTR _z$5[ebp]
	addss	xmm0, DWORD PTR [ecx+48]
	movss	DWORD PTR _z$5[ebp], xmm0
$LN7@PM_CheckSt:
	mov	eax, DWORD PTR ?pmove@@3PAUplayermove_s@@A ; pmove
	mov	ecx, DWORD PTR [eax+324848]
	movss	xmm0, DWORD PTR __real@40800000
	mulss	xmm0, DWORD PTR [ecx+48]
	comiss	xmm0, DWORD PTR _z$5[ebp]
	jb	$LN6@PM_CheckSt

; 2229 : 		{
; 2230 : 			for( float x = -8.0f; x <= 8.0f; x += 8.0f )

	movss	xmm0, DWORD PTR __real@c1000000
	movss	DWORD PTR _x$4[ebp], xmm0
	jmp	SHORT $LN10@PM_CheckSt
$LN8@PM_CheckSt:
	movss	xmm0, DWORD PTR _x$4[ebp]
	addss	xmm0, DWORD PTR __real@41000000
	movss	DWORD PTR _x$4[ebp], xmm0
$LN10@PM_CheckSt:
	movss	xmm0, DWORD PTR __real@41000000
	comiss	xmm0, DWORD PTR _x$4[ebp]
	jb	$LN9@PM_CheckSt

; 2231 : 			{
; 2232 : 				for( float y = -8.0f; y <= 8.0f; y += 8.0f )

	movss	xmm0, DWORD PTR __real@c1000000
	movss	DWORD PTR _y$3[ebp], xmm0
	jmp	SHORT $LN13@PM_CheckSt
$LN11@PM_CheckSt:
	movss	xmm0, DWORD PTR _y$3[ebp]
	addss	xmm0, DWORD PTR __real@41000000
	movss	DWORD PTR _y$3[ebp], xmm0
$LN13@PM_CheckSt:
	movss	xmm0, DWORD PTR __real@41000000
	comiss	xmm0, DWORD PTR _y$3[ebp]
	jb	$LN12@PM_CheckSt

; 2233 : 				{
; 2234 : 					test = base;

	mov	eax, DWORD PTR _base$[ebp]
	mov	DWORD PTR _test$[ebp], eax
	mov	ecx, DWORD PTR _base$[ebp+4]
	mov	DWORD PTR _test$[ebp+4], ecx
	mov	edx, DWORD PTR _base$[ebp+8]
	mov	DWORD PTR _test$[ebp+8], edx

; 2235 : 					test.x += x;

	movss	xmm0, DWORD PTR _test$[ebp]
	addss	xmm0, DWORD PTR _x$4[ebp]
	movss	DWORD PTR _test$[ebp], xmm0

; 2236 : 					test.y += y;

	movss	xmm0, DWORD PTR _test$[ebp+4]
	addss	xmm0, DWORD PTR _y$3[ebp]
	movss	DWORD PTR _test$[ebp+4], xmm0

; 2237 : 					test.z += z;

	movss	xmm0, DWORD PTR _test$[ebp+8]
	addss	xmm0, DWORD PTR _z$5[ebp]
	movss	DWORD PTR _test$[ebp+8], xmm0

; 2238 : 
; 2239 : 					if( pmove->PM_TestPlayerPosition( test, NULL ) == -1 )

	push	0
	lea	ecx, DWORD PTR _test$[ebp]
	call	??BVector@@QAEPAMXZ			; Vector::operator float *
	push	eax
	mov	eax, DWORD PTR ?pmove@@3PAUplayermove_s@@A ; pmove
	mov	ecx, DWORD PTR [eax+324956]
	call	ecx
	add	esp, 8
	cmp	eax, -1
	jne	SHORT $LN23@PM_CheckSt

; 2240 : 					{
; 2241 : 						pmove->origin = test;

	mov	eax, DWORD PTR ?pmove@@3PAUplayermove_s@@A ; pmove
	add	eax, 56					; 00000038H
	mov	ecx, DWORD PTR _test$[ebp]
	mov	DWORD PTR [eax], ecx
	mov	edx, DWORD PTR _test$[ebp+4]
	mov	DWORD PTR [eax+4], edx
	mov	ecx, DWORD PTR _test$[ebp+8]
	mov	DWORD PTR [eax+8], ecx

; 2242 : 						return 0;

	xor	eax, eax
	jmp	SHORT $LN1@PM_CheckSt
$LN23@PM_CheckSt:

; 2243 : 					}
; 2244 : 				}

	jmp	$LN11@PM_CheckSt
$LN12@PM_CheckSt:

; 2245 : 			}

	jmp	$LN8@PM_CheckSt
$LN9@PM_CheckSt:

; 2246 : 		}

	jmp	$LN5@PM_CheckSt
$LN6@PM_CheckSt:

; 2247 : 	}
; 2248 : 
; 2249 : 	// can't move we're stuck!
; 2250 : 	pmove->flags |= FL_STUCKED;

	mov	eax, DWORD PTR ?pmove@@3PAUplayermove_s@@A ; pmove
	mov	ecx, DWORD PTR [eax+184]
	or	ecx, 134217728				; 08000000H
	mov	edx, DWORD PTR ?pmove@@3PAUplayermove_s@@A ; pmove
	mov	DWORD PTR [edx+184], ecx

; 2251 : 
; 2252 : 	return 1;

	mov	eax, 1
$LN1@PM_CheckSt:

; 2253 : }

	pop	edi
	pop	esi
	pop	ebx
	mov	esp, ebp
	pop	ebp
	ret	0
?PM_CheckStuck@@YAHXZ ENDP				; PM_CheckStuck
_TEXT	ENDS
; Function compile flags: /Odtp /ZI
; File d:\!diffusion 2020\source code 2022\client-server\game_shared\playermove.cpp
;	COMDAT ?PM_ResetStuckOffsets@@YAXHH@Z
_TEXT	SEGMENT
_nIndex$ = 8						; size = 4
_server$ = 12						; size = 4
?PM_ResetStuckOffsets@@YAXHH@Z PROC			; PM_ResetStuckOffsets, COMDAT

; 2143 : {

	push	ebp
	mov	ebp, esp
	sub	esp, 64					; 00000040H
	push	ebx
	push	esi
	push	edi

; 2144 : 	rgStuckLast[nIndex][server] = 0;

	mov	eax, DWORD PTR _server$[ebp]
	shl	eax, 2
	mov	ecx, DWORD PTR _nIndex$[ebp]
	mov	DWORD PTR ?rgStuckLast@@3PAY01HA[eax+ecx*8], 0

; 2145 : }

	pop	edi
	pop	esi
	pop	ebx
	mov	esp, ebp
	pop	ebp
	ret	0
?PM_ResetStuckOffsets@@YAXHH@Z ENDP			; PM_ResetStuckOffsets
_TEXT	ENDS
; Function compile flags: /Odtp /ZI
; File d:\!diffusion 2020\source code 2022\client-server\game_shared\playermove.cpp
;	COMDAT ?PM_GetRandomStuckOffsets@@YAHHHAAVVector@@@Z
_TEXT	SEGMENT
_idx$ = -4						; size = 4
_nIndex$ = 8						; size = 4
_server$ = 12						; size = 4
_offset$ = 16						; size = 4
?PM_GetRandomStuckOffsets@@YAHHHAAVVector@@@Z PROC	; PM_GetRandomStuckOffsets, COMDAT

; 2134 : {

	push	ebp
	mov	ebp, esp
	sub	esp, 68					; 00000044H
	push	ebx
	push	esi
	push	edi

; 2135 : 	// last time we did a full
; 2136 : 	int idx = rgStuckLast[nIndex][server]++;

	mov	eax, DWORD PTR _server$[ebp]
	shl	eax, 2
	mov	ecx, DWORD PTR _nIndex$[ebp]
	mov	edx, DWORD PTR ?rgStuckLast@@3PAY01HA[eax+ecx*8]
	mov	DWORD PTR _idx$[ebp], edx
	mov	eax, DWORD PTR _server$[ebp]
	shl	eax, 2
	mov	ecx, DWORD PTR _nIndex$[ebp]
	mov	edx, DWORD PTR ?rgStuckLast@@3PAY01HA[eax+ecx*8]
	add	edx, 1
	mov	eax, DWORD PTR _server$[ebp]
	shl	eax, 2
	mov	ecx, DWORD PTR _nIndex$[ebp]
	mov	DWORD PTR ?rgStuckLast@@3PAY01HA[eax+ecx*8], edx

; 2137 : 	offset = rgv3tStuckTable[idx % 54];

	mov	eax, DWORD PTR _idx$[ebp]
	cdq
	mov	ecx, 54					; 00000036H
	idiv	ecx
	imul	edx, edx, 12
	add	edx, OFFSET ?rgv3tStuckTable@@3PAVVector@@A
	mov	eax, DWORD PTR _offset$[ebp]
	mov	ecx, DWORD PTR [edx]
	mov	DWORD PTR [eax], ecx
	mov	ecx, DWORD PTR [edx+4]
	mov	DWORD PTR [eax+4], ecx
	mov	edx, DWORD PTR [edx+8]
	mov	DWORD PTR [eax+8], edx

; 2138 : 
; 2139 : 	return (idx % 54);

	mov	eax, DWORD PTR _idx$[ebp]
	cdq
	mov	ecx, 54					; 00000036H
	idiv	ecx
	mov	eax, edx

; 2140 : }

	pop	edi
	pop	esi
	pop	ebx
	mov	esp, ebp
	pop	ebp
	ret	0
?PM_GetRandomStuckOffsets@@YAHHHAAVVector@@@Z ENDP	; PM_GetRandomStuckOffsets
_TEXT	ENDS
; Function compile flags: /Odtp /ZI
; File d:\!diffusion 2020\source code 2022\client-server\game_shared\playermove.cpp
;	COMDAT ?PM_CategorizePosition@@YAXXZ
_TEXT	SEGMENT
tv329 = -292						; size = 4
tv327 = -292						; size = 4
$T1 = -280						; size = 68
$T2 = -212						; size = 68
_tr$ = -80						; size = 68
_point$ = -12						; size = 12
?PM_CategorizePosition@@YAXXZ PROC			; PM_CategorizePosition, COMDAT

; 2066 : {

	push	ebp
	mov	ebp, esp
	sub	esp, 292				; 00000124H
	push	ebx
	push	esi
	push	edi

; 2067 : 	Vector point;

	lea	ecx, DWORD PTR _point$[ebp]
	call	??0Vector@@QAE@XZ			; Vector::Vector

; 2068 : 	pmtrace_t tr;

	lea	ecx, DWORD PTR _tr$[ebp]
	call	??0pmtrace_s@@QAE@XZ

; 2069 : 
; 2070 : 	// if the player hull point one unit down is solid, the player is on ground
; 2071 : 	// see if standing on something solid	
; 2072 : 
; 2073 : 	// Doing this before we move may introduce a potential latency in water detection, but
; 2074 : 	// doing it after can get us stuck on the bottom in water if the amount we move up
; 2075 : 	// is less than the 1 pixel 'threshold' we're about to snap to.	Also, we'll call
; 2076 : 	// this several times per frame, so we really need to avoid sticking to the bottom of
; 2077 : 	// water on each call, and the converse case will correct itself if called twice.
; 2078 : 	PM_CheckWater();

	call	?PM_CheckWater@@YAHXZ			; PM_CheckWater

; 2079 : 
; 2080 : 	point[0] = pmove->origin[0];

	mov	ecx, DWORD PTR ?pmove@@3PAUplayermove_s@@A ; pmove
	add	ecx, 56					; 00000038H
	call	??BVector@@QAEPAMXZ			; Vector::operator float *
	mov	esi, eax
	mov	eax, 4
	imul	edi, eax, 0
	lea	ecx, DWORD PTR _point$[ebp]
	call	??BVector@@QAEPAMXZ			; Vector::operator float *
	mov	ecx, 4
	imul	edx, ecx, 0
	mov	ecx, DWORD PTR [esi+edi]
	mov	DWORD PTR [eax+edx], ecx

; 2081 : 	point[1] = pmove->origin[1];

	mov	ecx, DWORD PTR ?pmove@@3PAUplayermove_s@@A ; pmove
	add	ecx, 56					; 00000038H
	call	??BVector@@QAEPAMXZ			; Vector::operator float *
	mov	esi, eax
	mov	edi, 4
	shl	edi, 0
	lea	ecx, DWORD PTR _point$[ebp]
	call	??BVector@@QAEPAMXZ			; Vector::operator float *
	mov	ecx, 4
	shl	ecx, 0
	mov	edx, DWORD PTR [esi+edi]
	mov	DWORD PTR [eax+ecx], edx

; 2082 : 
; 2083 : 	if( pmove->movetype == MOVETYPE_NOCLIP || pmove->spectator )

	mov	eax, DWORD PTR ?pmove@@3PAUplayermove_s@@A ; pmove
	cmp	DWORD PTR [eax+220], 8
	je	SHORT $LN4@PM_Categor
	mov	eax, DWORD PTR ?pmove@@3PAUplayermove_s@@A ; pmove
	cmp	DWORD PTR [eax+216], 0
	je	SHORT $LN2@PM_Categor
$LN4@PM_Categor:

; 2084 : 		point[2] = pmove->origin[2]; // diffusion - no glueing with ground when noclipping or spectating

	mov	ecx, DWORD PTR ?pmove@@3PAUplayermove_s@@A ; pmove
	add	ecx, 56					; 00000038H
	call	??BVector@@QAEPAMXZ			; Vector::operator float *
	mov	esi, eax
	mov	edi, 4
	shl	edi, 1
	lea	ecx, DWORD PTR _point$[ebp]
	call	??BVector@@QAEPAMXZ			; Vector::operator float *
	mov	ecx, 4
	shl	ecx, 1
	mov	edx, DWORD PTR [esi+edi]
	mov	DWORD PTR [eax+ecx], edx

; 2085 : 	else

	jmp	$LN6@PM_Categor
$LN2@PM_Categor:

; 2086 : 	{
; 2087 : 		if( pmove->effects & EF_UPSIDEDOWN )

	mov	eax, DWORD PTR ?pmove@@3PAUplayermove_s@@A ; pmove
	mov	ecx, DWORD PTR [eax+180]
	and	ecx, 4194304				; 00400000H
	je	SHORT $LN5@PM_Categor

; 2088 : 			point[2] = pmove->origin[2] + 2;

	mov	ecx, DWORD PTR ?pmove@@3PAUplayermove_s@@A ; pmove
	add	ecx, 56					; 00000038H
	call	??BVector@@QAEPAMXZ			; Vector::operator float *
	mov	ecx, 4
	shl	ecx, 1
	movss	xmm0, DWORD PTR [eax+ecx]
	addss	xmm0, DWORD PTR __real@40000000
	lea	ecx, DWORD PTR _point$[ebp]
	movss	DWORD PTR tv327[ebp], xmm0
	call	??BVector@@QAEPAMXZ			; Vector::operator float *
	mov	edx, 4
	shl	edx, 1
	movss	xmm0, DWORD PTR tv327[ebp]
	movss	DWORD PTR [eax+edx], xmm0

; 2089 : 		else

	jmp	SHORT $LN6@PM_Categor
$LN5@PM_Categor:

; 2090 : 			point[2] = pmove->origin[2] - 2;

	mov	ecx, DWORD PTR ?pmove@@3PAUplayermove_s@@A ; pmove
	add	ecx, 56					; 00000038H
	call	??BVector@@QAEPAMXZ			; Vector::operator float *
	mov	ecx, 4
	shl	ecx, 1
	movss	xmm0, DWORD PTR [eax+ecx]
	subss	xmm0, DWORD PTR __real@40000000
	lea	ecx, DWORD PTR _point$[ebp]
	movss	DWORD PTR tv329[ebp], xmm0
	call	??BVector@@QAEPAMXZ			; Vector::operator float *
	mov	edx, 4
	shl	edx, 1
	movss	xmm0, DWORD PTR tv329[ebp]
	movss	DWORD PTR [eax+edx], xmm0
$LN6@PM_Categor:

; 2091 : 	}
; 2092 : 
; 2093 : 	if (pmove->velocity[2] > 180 && !(pmove->effects & EF_UPSIDEDOWN))   // Shooting up really fast.  Definitely not on ground.

	mov	ecx, DWORD PTR ?pmove@@3PAUplayermove_s@@A ; pmove
	add	ecx, 92					; 0000005cH
	call	??BVector@@QAEPAMXZ			; Vector::operator float *
	mov	ecx, 4
	shl	ecx, 1
	movss	xmm0, DWORD PTR [eax+ecx]
	comiss	xmm0, DWORD PTR __real@43340000
	jbe	SHORT $LN7@PM_Categor
	mov	eax, DWORD PTR ?pmove@@3PAUplayermove_s@@A ; pmove
	mov	ecx, DWORD PTR [eax+180]
	and	ecx, 4194304				; 00400000H
	jne	SHORT $LN7@PM_Categor

; 2094 : 		pmove->onground = -1;

	mov	eax, DWORD PTR ?pmove@@3PAUplayermove_s@@A ; pmove
	mov	DWORD PTR [eax+224], -1
	jmp	$LN17@PM_Categor
$LN7@PM_Categor:

; 2095 : 	else if( pmove->velocity[2] < -180 && (pmove->effects & EF_UPSIDEDOWN) )   // Shooting up really fast.  Definitely not on ground.

	mov	ecx, DWORD PTR ?pmove@@3PAUplayermove_s@@A ; pmove
	add	ecx, 92					; 0000005cH
	call	??BVector@@QAEPAMXZ			; Vector::operator float *
	mov	ecx, 4
	shl	ecx, 1
	movss	xmm0, DWORD PTR __real@c3340000
	comiss	xmm0, DWORD PTR [eax+ecx]
	jbe	SHORT $LN9@PM_Categor
	mov	eax, DWORD PTR ?pmove@@3PAUplayermove_s@@A ; pmove
	mov	ecx, DWORD PTR [eax+180]
	and	ecx, 4194304				; 00400000H
	je	SHORT $LN9@PM_Categor

; 2096 : 		pmove->onground = -1;

	mov	eax, DWORD PTR ?pmove@@3PAUplayermove_s@@A ; pmove
	mov	DWORD PTR [eax+224], -1

; 2097 : 	else

	jmp	$LN17@PM_Categor
$LN9@PM_Categor:

; 2098 : 	{
; 2099 : 		// Try and move down.
; 2100 : 		tr = pmove->PM_PlayerTrace (pmove->origin, point, PM_NORMAL, -1 );

	push	-1
	push	0
	lea	ecx, DWORD PTR _point$[ebp]
	call	??BVector@@QAEPAMXZ			; Vector::operator float *
	push	eax
	mov	ecx, DWORD PTR ?pmove@@3PAUplayermove_s@@A ; pmove
	add	ecx, 56					; 00000038H
	call	??BVector@@QAEPAMXZ			; Vector::operator float *
	push	eax
	lea	eax, DWORD PTR $T1[ebp]
	push	eax
	mov	ecx, DWORD PTR ?pmove@@3PAUplayermove_s@@A ; pmove
	mov	edx, DWORD PTR [ecx+324992]
	call	edx
	add	esp, 20					; 00000014H
	mov	ecx, 17					; 00000011H
	mov	esi, eax
	lea	edi, DWORD PTR $T2[ebp]
	rep movsd
	mov	ecx, 17					; 00000011H
	lea	esi, DWORD PTR $T2[ebp]
	lea	edi, DWORD PTR _tr$[ebp]
	rep movsd

; 2101 : 		// If we hit a steep plane, we are not on ground
; 2102 : 		if ( tr.plane.normal[2] < 0.7 && !(pmove->effects & EF_UPSIDEDOWN) )

	lea	ecx, DWORD PTR _tr$[ebp+32]
	call	??BVector@@QAEPAMXZ			; Vector::operator float *
	mov	ecx, 4
	shl	ecx, 1
	cvtss2sd xmm0, DWORD PTR [eax+ecx]
	movsd	xmm1, QWORD PTR __real@3fe6666666666666
	comisd	xmm1, xmm0
	jbe	SHORT $LN11@PM_Categor
	mov	eax, DWORD PTR ?pmove@@3PAUplayermove_s@@A ; pmove
	mov	ecx, DWORD PTR [eax+180]
	and	ecx, 4194304				; 00400000H
	jne	SHORT $LN11@PM_Categor

; 2103 : 			pmove->onground = -1;	// too steep

	mov	eax, DWORD PTR ?pmove@@3PAUplayermove_s@@A ; pmove
	mov	DWORD PTR [eax+224], -1
	jmp	SHORT $LN14@PM_Categor
$LN11@PM_Categor:

; 2104 : 		else if( tr.plane.normal[2] > -0.7 && (pmove->effects & EF_UPSIDEDOWN) )

	lea	ecx, DWORD PTR _tr$[ebp+32]
	call	??BVector@@QAEPAMXZ			; Vector::operator float *
	mov	ecx, 4
	shl	ecx, 1
	cvtss2sd xmm0, DWORD PTR [eax+ecx]
	comisd	xmm0, QWORD PTR __real@bfe6666666666666
	jbe	SHORT $LN13@PM_Categor
	mov	eax, DWORD PTR ?pmove@@3PAUplayermove_s@@A ; pmove
	mov	ecx, DWORD PTR [eax+180]
	and	ecx, 4194304				; 00400000H
	je	SHORT $LN13@PM_Categor

; 2105 : 			pmove->onground = -1;	// too steep

	mov	eax, DWORD PTR ?pmove@@3PAUplayermove_s@@A ; pmove
	mov	DWORD PTR [eax+224], -1

; 2106 : 		else

	jmp	SHORT $LN14@PM_Categor
$LN13@PM_Categor:

; 2107 : 			pmove->onground = tr.ent;  // Otherwise, point to index of ent under us.

	mov	eax, DWORD PTR ?pmove@@3PAUplayermove_s@@A ; pmove
	mov	ecx, DWORD PTR _tr$[ebp+48]
	mov	DWORD PTR [eax+224], ecx
$LN14@PM_Categor:

; 2108 : 
; 2109 : 		// If we are on something...
; 2110 : 		if (pmove->onground != -1)

	mov	eax, DWORD PTR ?pmove@@3PAUplayermove_s@@A ; pmove
	cmp	DWORD PTR [eax+224], -1
	je	SHORT $LN16@PM_Categor

; 2111 : 		{
; 2112 : 			// Then we are not in water jump sequence
; 2113 : 			pmove->waterjumptime = 0;

	mov	eax, DWORD PTR ?pmove@@3PAUplayermove_s@@A ; pmove
	xorps	xmm0, xmm0
	movss	DWORD PTR [eax+204], xmm0

; 2114 : 			// If we could make the move, drop us down that 1 pixel
; 2115 : 			if (pmove->waterlevel < 2 && !tr.startsolid && !tr.allsolid)

	mov	eax, DWORD PTR ?pmove@@3PAUplayermove_s@@A ; pmove
	cmp	DWORD PTR [eax+228], 2
	jge	SHORT $LN16@PM_Categor
	cmp	DWORD PTR _tr$[ebp+4], 0
	jne	SHORT $LN16@PM_Categor
	cmp	DWORD PTR _tr$[ebp], 0
	jne	SHORT $LN16@PM_Categor

; 2116 : 				pmove->origin = tr.endpos;

	mov	eax, DWORD PTR ?pmove@@3PAUplayermove_s@@A ; pmove
	add	eax, 56					; 00000038H
	mov	ecx, DWORD PTR _tr$[ebp+20]
	mov	DWORD PTR [eax], ecx
	mov	edx, DWORD PTR _tr$[ebp+24]
	mov	DWORD PTR [eax+4], edx
	mov	ecx, DWORD PTR _tr$[ebp+28]
	mov	DWORD PTR [eax+8], ecx
$LN16@PM_Categor:

; 2117 : 		}
; 2118 : 
; 2119 : 		// Standing on an entity other than the world
; 2120 : 		if (tr.ent > 0)   // So signal that we are touching something.

	cmp	DWORD PTR _tr$[ebp+48], 0
	jle	SHORT $LN17@PM_Categor

; 2121 : 			PM_AddToTouched(tr, pmove->velocity);

	mov	eax, DWORD PTR ?pmove@@3PAUplayermove_s@@A ; pmove
	add	eax, 92					; 0000005cH
	sub	esp, 12					; 0000000cH
	mov	ecx, esp
	push	eax
	call	??0Vector@@QAE@ABV0@@Z			; Vector::Vector
	sub	esp, 68					; 00000044H
	mov	ecx, esp
	lea	edx, DWORD PTR _tr$[ebp]
	push	edx
	call	??0pmtrace_s@@QAE@ABU0@@Z
	call	?PM_AddToTouched@@YAHUpmtrace_s@@VVector@@@Z ; PM_AddToTouched
	add	esp, 80					; 00000050H
$LN17@PM_Categor:

; 2122 : 	}
; 2123 : }

	pop	edi
	pop	esi
	pop	ebx
	mov	esp, ebp
	pop	ebp
	ret	0
?PM_CategorizePosition@@YAXXZ ENDP			; PM_CategorizePosition
_TEXT	ENDS
; Function compile flags: /Odtp /ZI
; File d:\!diffusion 2020\source code 2022\client-server\game_shared\playermove.cpp
;	COMDAT ?PM_NoClip@@YAXXZ
_TEXT	SEGMENT
tv168 = -168						; size = 4
$T1 = -164						; size = 12
$T2 = -152						; size = 12
$T3 = -140						; size = 12
$T4 = -128						; size = 12
$T5 = -116						; size = 12
$T6 = -104						; size = 12
_NormalMultipier$ = -28					; size = 4
_FasterMultiplier$ = -24				; size = 4
_smove$ = -20						; size = 4
_fmove$ = -16						; size = 4
_wishvel$ = -12						; size = 12
?PM_NoClip@@YAXXZ PROC					; PM_NoClip, COMDAT

; 2014 : {

	push	ebp
	mov	ebp, esp
	sub	esp, 168				; 000000a8H
	push	ebx
	push	esi
	push	edi

; 2015 : 	Vector		wishvel;

	lea	ecx, DWORD PTR _wishvel$[ebp]
	call	??0Vector@@QAE@XZ			; Vector::Vector

; 2016 : 	float		fmove, smove;
; 2017 : 
; 2018 : 	// Copy movement amounts
; 2019 : 	// diffusion - faster and slower speeds!
; 2020 : 	int FasterMultiplier = 10;

	mov	DWORD PTR _FasterMultiplier$[ebp], 10	; 0000000aH

; 2021 : 	int NormalMultipier = 3;

	mov	DWORD PTR _NormalMultipier$[ebp], 3

; 2022 : 	// custom for spectator
; 2023 : 	if( pmove->iuser1 == OBS_ROAMING )

	mov	eax, DWORD PTR ?pmove@@3PAUplayermove_s@@A ; pmove
	cmp	DWORD PTR [eax+508], 3
	jne	SHORT $LN2@PM_NoClip

; 2024 : 	{
; 2025 : 		FasterMultiplier = 5;

	mov	DWORD PTR _FasterMultiplier$[ebp], 5

; 2026 : 		NormalMultipier = 2;

	mov	DWORD PTR _NormalMultipier$[ebp], 2
$LN2@PM_NoClip:

; 2027 : 	}
; 2028 : 
; 2029 : 	if( pmove->cmd.buttons & IN_RUN )

	mov	eax, DWORD PTR ?pmove@@3PAUplayermove_s@@A ; pmove
	movzx	ecx, WORD PTR [eax+283766]
	and	ecx, 4096				; 00001000H
	je	SHORT $LN3@PM_NoClip

; 2030 : 	{
; 2031 : 		fmove = pmove->cmd.forwardmove * FasterMultiplier;

	cvtsi2ss xmm0, DWORD PTR _FasterMultiplier$[ebp]
	mov	eax, DWORD PTR ?pmove@@3PAUplayermove_s@@A ; pmove
	mulss	xmm0, DWORD PTR [eax+283752]
	movss	DWORD PTR _fmove$[ebp], xmm0

; 2032 : 		smove = pmove->cmd.sidemove * FasterMultiplier;

	cvtsi2ss xmm0, DWORD PTR _FasterMultiplier$[ebp]
	mov	eax, DWORD PTR ?pmove@@3PAUplayermove_s@@A ; pmove
	mulss	xmm0, DWORD PTR [eax+283756]
	movss	DWORD PTR _smove$[ebp], xmm0
	jmp	SHORT $LN6@PM_NoClip
$LN3@PM_NoClip:

; 2033 : 	}
; 2034 : 	else if( pmove->cmd.buttons & IN_DUCK )

	mov	eax, DWORD PTR ?pmove@@3PAUplayermove_s@@A ; pmove
	movzx	ecx, WORD PTR [eax+283766]
	and	ecx, 4
	je	SHORT $LN5@PM_NoClip

; 2035 : 	{
; 2036 : 		fmove = pmove->cmd.forwardmove * 0.5;

	mov	eax, DWORD PTR ?pmove@@3PAUplayermove_s@@A ; pmove
	cvtss2sd xmm0, DWORD PTR [eax+283752]
	mulsd	xmm0, QWORD PTR __real@3fe0000000000000
	cvtsd2ss xmm0, xmm0
	movss	DWORD PTR _fmove$[ebp], xmm0

; 2037 : 		smove = pmove->cmd.sidemove * 0.5;

	mov	eax, DWORD PTR ?pmove@@3PAUplayermove_s@@A ; pmove
	cvtss2sd xmm0, DWORD PTR [eax+283756]
	mulsd	xmm0, QWORD PTR __real@3fe0000000000000
	cvtsd2ss xmm0, xmm0
	movss	DWORD PTR _smove$[ebp], xmm0

; 2038 : 	}
; 2039 : 	else

	jmp	SHORT $LN6@PM_NoClip
$LN5@PM_NoClip:

; 2040 : 	{
; 2041 : 		fmove = pmove->cmd.forwardmove * NormalMultipier;

	cvtsi2ss xmm0, DWORD PTR _NormalMultipier$[ebp]
	mov	eax, DWORD PTR ?pmove@@3PAUplayermove_s@@A ; pmove
	mulss	xmm0, DWORD PTR [eax+283752]
	movss	DWORD PTR _fmove$[ebp], xmm0

; 2042 : 		smove = pmove->cmd.sidemove * NormalMultipier;

	cvtsi2ss xmm0, DWORD PTR _NormalMultipier$[ebp]
	mov	eax, DWORD PTR ?pmove@@3PAUplayermove_s@@A ; pmove
	mulss	xmm0, DWORD PTR [eax+283756]
	movss	DWORD PTR _smove$[ebp], xmm0
$LN6@PM_NoClip:

; 2043 : 	}
; 2044 : 
; 2045 : 	pmove->forward = pmove->forward.Normalize();

	lea	eax, DWORD PTR $T6[ebp]
	push	eax
	mov	ecx, DWORD PTR ?pmove@@3PAUplayermove_s@@A ; pmove
	add	ecx, 20					; 00000014H
	call	?Normalize@Vector@@QBE?AV1@XZ		; Vector::Normalize
	mov	ecx, DWORD PTR ?pmove@@3PAUplayermove_s@@A ; pmove
	add	ecx, 20					; 00000014H
	mov	edx, DWORD PTR [eax]
	mov	DWORD PTR [ecx], edx
	mov	edx, DWORD PTR [eax+4]
	mov	DWORD PTR [ecx+4], edx
	mov	eax, DWORD PTR [eax+8]
	mov	DWORD PTR [ecx+8], eax

; 2046 : 	pmove->right = pmove->right.Normalize();

	lea	eax, DWORD PTR $T5[ebp]
	push	eax
	mov	ecx, DWORD PTR ?pmove@@3PAUplayermove_s@@A ; pmove
	add	ecx, 32					; 00000020H
	call	?Normalize@Vector@@QBE?AV1@XZ		; Vector::Normalize
	mov	ecx, DWORD PTR ?pmove@@3PAUplayermove_s@@A ; pmove
	add	ecx, 32					; 00000020H
	mov	edx, DWORD PTR [eax]
	mov	DWORD PTR [ecx], edx
	mov	edx, DWORD PTR [eax+4]
	mov	DWORD PTR [ecx+4], edx
	mov	eax, DWORD PTR [eax+8]
	mov	DWORD PTR [ecx+8], eax

; 2047 : 
; 2048 : 	// Determine x and y parts of velocity
; 2049 : 	wishvel = pmove->forward * fmove + pmove->right * smove;

	push	ecx
	movss	xmm0, DWORD PTR _smove$[ebp]
	movss	DWORD PTR [esp], xmm0
	lea	eax, DWORD PTR $T3[ebp]
	push	eax
	mov	ecx, DWORD PTR ?pmove@@3PAUplayermove_s@@A ; pmove
	add	ecx, 32					; 00000020H
	call	??DVector@@QBE?AV0@M@Z			; Vector::operator*
	push	eax
	lea	ecx, DWORD PTR $T2[ebp]
	push	ecx
	push	ecx
	movss	xmm0, DWORD PTR _fmove$[ebp]
	movss	DWORD PTR [esp], xmm0
	lea	edx, DWORD PTR $T4[ebp]
	push	edx
	mov	ecx, DWORD PTR ?pmove@@3PAUplayermove_s@@A ; pmove
	add	ecx, 20					; 00000014H
	call	??DVector@@QBE?AV0@M@Z			; Vector::operator*
	mov	ecx, eax
	call	??HVector@@QBE?AV0@ABV0@@Z		; Vector::operator+
	mov	ecx, DWORD PTR [eax]
	mov	DWORD PTR _wishvel$[ebp], ecx
	mov	edx, DWORD PTR [eax+4]
	mov	DWORD PTR _wishvel$[ebp+4], edx
	mov	eax, DWORD PTR [eax+8]
	mov	DWORD PTR _wishvel$[ebp+8], eax

; 2050 : 
; 2051 : 	wishvel[2] += pmove->cmd.upmove;

	lea	ecx, DWORD PTR _wishvel$[ebp]
	call	??BVector@@QAEPAMXZ			; Vector::operator float *
	mov	ecx, 4
	shl	ecx, 1
	add	eax, ecx
	mov	DWORD PTR tv168[ebp], eax
	mov	edx, DWORD PTR tv168[ebp]
	mov	eax, DWORD PTR ?pmove@@3PAUplayermove_s@@A ; pmove
	movss	xmm0, DWORD PTR [edx]
	addss	xmm0, DWORD PTR [eax+283760]
	mov	ecx, DWORD PTR tv168[ebp]
	movss	DWORD PTR [ecx], xmm0

; 2052 : 	pmove->origin += wishvel * pmove->frametime;

	mov	eax, DWORD PTR ?pmove@@3PAUplayermove_s@@A ; pmove
	push	ecx
	movss	xmm0, DWORD PTR [eax+16]
	movss	DWORD PTR [esp], xmm0
	lea	ecx, DWORD PTR $T1[ebp]
	push	ecx
	lea	ecx, DWORD PTR _wishvel$[ebp]
	call	??DVector@@QBE?AV0@M@Z			; Vector::operator*
	push	eax
	mov	ecx, DWORD PTR ?pmove@@3PAUplayermove_s@@A ; pmove
	add	ecx, 56					; 00000038H
	call	??YVector@@QAEAAV0@ABV0@@Z		; Vector::operator+=

; 2053 : 
; 2054 : 	// Zero out the velocity so that we don't accumulate a huge downward velocity from
; 2055 : 	//  gravity, etc.
; 2056 : 	pmove->velocity = g_vecZero;

	mov	eax, DWORD PTR ?pmove@@3PAUplayermove_s@@A ; pmove
	add	eax, 92					; 0000005cH
	mov	ecx, DWORD PTR ?g_vecZero@@3VVector@@B
	mov	DWORD PTR [eax], ecx
	mov	edx, DWORD PTR ?g_vecZero@@3VVector@@B+4
	mov	DWORD PTR [eax+4], edx
	mov	ecx, DWORD PTR ?g_vecZero@@3VVector@@B+8
	mov	DWORD PTR [eax+8], ecx

; 2057 : 
; 2058 : }

	pop	edi
	pop	esi
	pop	ebx
	mov	esp, ebp
	pop	ebp
	ret	0
?PM_NoClip@@YAXXZ ENDP					; PM_NoClip
_TEXT	ENDS
; Function compile flags: /Odtp /ZI
; File d:\!diffusion 2020\source code 2022\client-server\game_shared\playermove.cpp
;	COMDAT ?PM_CheckWater@@YAHXZ
_TEXT	SEGMENT
tv497 = -140						; size = 4
tv493 = -140						; size = 4
tv495 = -136						; size = 8
tv491 = -136						; size = 8
tv505 = -132						; size = 4
tv503 = -132						; size = 4
tv501 = -132						; size = 4
tv499 = -132						; size = 4
tv334 = -132						; size = 4
$T2 = -128						; size = 12
$T3 = -116						; size = 12
_heightover2$ = -40					; size = 4
_height$ = -36						; size = 4
_truecont$ = -32					; size = 4
_cont$ = -28						; size = 4
_point$ = -24						; size = 12
__$EHRec$ = -12						; size = 12
?PM_CheckWater@@YAHXZ PROC				; PM_CheckWater, COMDAT

; 1934 : {

	push	ebp
	mov	ebp, esp
	push	-1
	push	__ehhandler$?PM_CheckWater@@YAHXZ
	mov	eax, DWORD PTR fs:0
	push	eax
	sub	esp, 128				; 00000080H
	push	ebx
	push	esi
	push	edi
	mov	eax, DWORD PTR ___security_cookie
	xor	eax, ebp
	push	eax
	lea	eax, DWORD PTR __$EHRec$[ebp]
	mov	DWORD PTR fs:0, eax

; 1935 : 	Vector	point;

	lea	ecx, DWORD PTR _point$[ebp]
	call	??0Vector@@QAE@XZ			; Vector::Vector

; 1936 : 	int		cont;
; 1937 : 	int		truecont;
; 1938 : 	float     height;
; 1939 : 	float		heightover2;
; 1940 : 
; 1941 : 	// Pick a spot just above the players feet.
; 1942 : 	point[0] = pmove->origin[0] + (pmove->player_mins[pmove->usehull][0] + pmove->player_maxs[pmove->usehull][0]) * 0.5;

	mov	ecx, DWORD PTR ?pmove@@3PAUplayermove_s@@A ; pmove
	add	ecx, 56					; 00000038H
	call	??BVector@@QAEPAMXZ			; Vector::operator float *
	mov	ecx, 4
	imul	edx, ecx, 0
	cvtss2sd xmm0, DWORD PTR [eax+edx]
	mov	eax, DWORD PTR ?pmove@@3PAUplayermove_s@@A ; pmove
	imul	ecx, DWORD PTR [eax+188], 12
	mov	edx, DWORD PTR ?pmove@@3PAUplayermove_s@@A ; pmove
	lea	ecx, DWORD PTR [edx+ecx+324852]
	movsd	QWORD PTR tv491[ebp], xmm0
	call	??BVector@@QAEPAMXZ			; Vector::operator float *
	mov	esi, eax
	mov	eax, 4
	imul	edi, eax, 0
	mov	ecx, DWORD PTR ?pmove@@3PAUplayermove_s@@A ; pmove
	imul	edx, DWORD PTR [ecx+188], 12
	mov	eax, DWORD PTR ?pmove@@3PAUplayermove_s@@A ; pmove
	lea	ecx, DWORD PTR [eax+edx+324900]
	call	??BVector@@QAEPAMXZ			; Vector::operator float *
	mov	ecx, 4
	imul	edx, ecx, 0
	movss	xmm0, DWORD PTR [esi+edi]
	addss	xmm0, DWORD PTR [eax+edx]
	cvtss2sd xmm0, xmm0
	mulsd	xmm0, QWORD PTR __real@3fe0000000000000
	movsd	xmm1, QWORD PTR tv491[ebp]
	addsd	xmm1, xmm0
	cvtsd2ss xmm0, xmm1
	lea	ecx, DWORD PTR _point$[ebp]
	movss	DWORD PTR tv493[ebp], xmm0
	call	??BVector@@QAEPAMXZ			; Vector::operator float *
	mov	ecx, 4
	imul	edx, ecx, 0
	movss	xmm0, DWORD PTR tv493[ebp]
	movss	DWORD PTR [eax+edx], xmm0

; 1943 : 	point[1] = pmove->origin[1] + (pmove->player_mins[pmove->usehull][1] + pmove->player_maxs[pmove->usehull][1]) * 0.5;

	mov	ecx, DWORD PTR ?pmove@@3PAUplayermove_s@@A ; pmove
	add	ecx, 56					; 00000038H
	call	??BVector@@QAEPAMXZ			; Vector::operator float *
	mov	ecx, 4
	shl	ecx, 0
	cvtss2sd xmm0, DWORD PTR [eax+ecx]
	mov	edx, DWORD PTR ?pmove@@3PAUplayermove_s@@A ; pmove
	imul	eax, DWORD PTR [edx+188], 12
	mov	ecx, DWORD PTR ?pmove@@3PAUplayermove_s@@A ; pmove
	lea	ecx, DWORD PTR [ecx+eax+324852]
	movsd	QWORD PTR tv495[ebp], xmm0
	call	??BVector@@QAEPAMXZ			; Vector::operator float *
	mov	esi, eax
	mov	edi, 4
	shl	edi, 0
	mov	edx, DWORD PTR ?pmove@@3PAUplayermove_s@@A ; pmove
	imul	eax, DWORD PTR [edx+188], 12
	mov	ecx, DWORD PTR ?pmove@@3PAUplayermove_s@@A ; pmove
	lea	ecx, DWORD PTR [ecx+eax+324900]
	call	??BVector@@QAEPAMXZ			; Vector::operator float *
	mov	edx, 4
	shl	edx, 0
	movss	xmm0, DWORD PTR [esi+edi]
	addss	xmm0, DWORD PTR [eax+edx]
	cvtss2sd xmm0, xmm0
	mulsd	xmm0, QWORD PTR __real@3fe0000000000000
	movsd	xmm1, QWORD PTR tv495[ebp]
	addsd	xmm1, xmm0
	cvtsd2ss xmm0, xmm1
	lea	ecx, DWORD PTR _point$[ebp]
	movss	DWORD PTR tv497[ebp], xmm0
	call	??BVector@@QAEPAMXZ			; Vector::operator float *
	mov	ecx, 4
	shl	ecx, 0
	movss	xmm0, DWORD PTR tv497[ebp]
	movss	DWORD PTR [eax+ecx], xmm0

; 1944 : 	if( pmove->effects & EF_UPSIDEDOWN )

	mov	eax, DWORD PTR ?pmove@@3PAUplayermove_s@@A ; pmove
	mov	ecx, DWORD PTR [eax+180]
	and	ecx, 4194304				; 00400000H
	je	SHORT $LN3@PM_CheckWa

; 1945 : 		point[2] = pmove->origin[2] + pmove->player_maxs[pmove->usehull][2] - 1;

	mov	ecx, DWORD PTR ?pmove@@3PAUplayermove_s@@A ; pmove
	add	ecx, 56					; 00000038H
	call	??BVector@@QAEPAMXZ			; Vector::operator float *
	mov	esi, eax
	mov	edi, 4
	shl	edi, 1
	mov	eax, DWORD PTR ?pmove@@3PAUplayermove_s@@A ; pmove
	imul	ecx, DWORD PTR [eax+188], 12
	mov	edx, DWORD PTR ?pmove@@3PAUplayermove_s@@A ; pmove
	lea	ecx, DWORD PTR [edx+ecx+324900]
	call	??BVector@@QAEPAMXZ			; Vector::operator float *
	mov	ecx, 4
	shl	ecx, 1
	movss	xmm0, DWORD PTR [esi+edi]
	addss	xmm0, DWORD PTR [eax+ecx]
	subss	xmm0, DWORD PTR __real@3f800000
	lea	ecx, DWORD PTR _point$[ebp]
	movss	DWORD PTR tv499[ebp], xmm0
	call	??BVector@@QAEPAMXZ			; Vector::operator float *
	mov	edx, 4
	shl	edx, 1
	movss	xmm0, DWORD PTR tv499[ebp]
	movss	DWORD PTR [eax+edx], xmm0

; 1946 : 	else

	jmp	SHORT $LN4@PM_CheckWa
$LN3@PM_CheckWa:

; 1947 : 		point[2] = pmove->origin[2] + pmove->player_mins[pmove->usehull][2] + 1;

	mov	ecx, DWORD PTR ?pmove@@3PAUplayermove_s@@A ; pmove
	add	ecx, 56					; 00000038H
	call	??BVector@@QAEPAMXZ			; Vector::operator float *
	mov	esi, eax
	mov	edi, 4
	shl	edi, 1
	mov	eax, DWORD PTR ?pmove@@3PAUplayermove_s@@A ; pmove
	imul	ecx, DWORD PTR [eax+188], 12
	mov	edx, DWORD PTR ?pmove@@3PAUplayermove_s@@A ; pmove
	lea	ecx, DWORD PTR [edx+ecx+324852]
	call	??BVector@@QAEPAMXZ			; Vector::operator float *
	mov	ecx, 4
	shl	ecx, 1
	movss	xmm0, DWORD PTR [esi+edi]
	addss	xmm0, DWORD PTR [eax+ecx]
	addss	xmm0, DWORD PTR __real@3f800000
	lea	ecx, DWORD PTR _point$[ebp]
	movss	DWORD PTR tv501[ebp], xmm0
	call	??BVector@@QAEPAMXZ			; Vector::operator float *
	mov	edx, 4
	shl	edx, 1
	movss	xmm0, DWORD PTR tv501[ebp]
	movss	DWORD PTR [eax+edx], xmm0
$LN4@PM_CheckWa:

; 1948 : 	
; 1949 : 	// Assume that we are not in water at all.
; 1950 : 	pmove->waterlevel = 0;

	mov	eax, DWORD PTR ?pmove@@3PAUplayermove_s@@A ; pmove
	mov	DWORD PTR [eax+228], 0

; 1951 : 	pmove->watertype = CONTENTS_EMPTY;

	mov	eax, DWORD PTR ?pmove@@3PAUplayermove_s@@A ; pmove
	mov	DWORD PTR [eax+232], -1

; 1952 : 
; 1953 : 	// Grab point contents.
; 1954 : 	cont = pmove->PM_PointContents (point, &truecont );

	lea	eax, DWORD PTR _truecont$[ebp]
	push	eax
	lea	ecx, DWORD PTR _point$[ebp]
	call	??BVector@@QAEPAMXZ			; Vector::operator float *
	push	eax
	mov	ecx, DWORD PTR ?pmove@@3PAUplayermove_s@@A ; pmove
	mov	edx, DWORD PTR [ecx+324980]
	call	edx
	add	esp, 8
	mov	DWORD PTR _cont$[ebp], eax

; 1955 : 	// Are we under water? (not solid and not empty?)
; 1956 : 	if ((cont <= CONTENTS_WATER && cont > CONTENTS_TRANSLUCENT ) || (cont >= CONTENTS_FOG && cont <= CONTENTS_FLYFIELD))

	cmp	DWORD PTR _cont$[ebp], -3		; fffffffdH
	jg	SHORT $LN7@PM_CheckWa
	cmp	DWORD PTR _cont$[ebp], -15		; fffffff1H
	jg	SHORT $LN6@PM_CheckWa
$LN7@PM_CheckWa:
	cmp	DWORD PTR _cont$[ebp], -19		; ffffffedH
	jl	$LN14@PM_CheckWa
	cmp	DWORD PTR _cont$[ebp], -17		; ffffffefH
	jg	$LN14@PM_CheckWa
$LN6@PM_CheckWa:

; 1957 : 	{
; 1958 : 		// Set water type
; 1959 : 		pmove->watertype = cont;

	mov	eax, DWORD PTR ?pmove@@3PAUplayermove_s@@A ; pmove
	mov	ecx, DWORD PTR _cont$[ebp]
	mov	DWORD PTR [eax+232], ecx

; 1960 : 
; 1961 : 		// We are at least at level one
; 1962 : 		pmove->waterlevel = 1;

	mov	eax, DWORD PTR ?pmove@@3PAUplayermove_s@@A ; pmove
	mov	DWORD PTR [eax+228], 1

; 1963 : 
; 1964 : 		height = (pmove->player_mins[pmove->usehull][2] + pmove->player_maxs[pmove->usehull][2]);

	mov	eax, DWORD PTR ?pmove@@3PAUplayermove_s@@A ; pmove
	imul	ecx, DWORD PTR [eax+188], 12
	mov	edx, DWORD PTR ?pmove@@3PAUplayermove_s@@A ; pmove
	lea	ecx, DWORD PTR [edx+ecx+324852]
	call	??BVector@@QAEPAMXZ			; Vector::operator float *
	mov	esi, eax
	mov	edi, 4
	shl	edi, 1
	mov	eax, DWORD PTR ?pmove@@3PAUplayermove_s@@A ; pmove
	imul	ecx, DWORD PTR [eax+188], 12
	mov	edx, DWORD PTR ?pmove@@3PAUplayermove_s@@A ; pmove
	lea	ecx, DWORD PTR [edx+ecx+324900]
	call	??BVector@@QAEPAMXZ			; Vector::operator float *
	mov	ecx, 4
	shl	ecx, 1
	movss	xmm0, DWORD PTR [esi+edi]
	addss	xmm0, DWORD PTR [eax+ecx]
	movss	DWORD PTR _height$[ebp], xmm0

; 1965 : 		heightover2 = height * 0.5;

	cvtss2sd xmm0, DWORD PTR _height$[ebp]
	mulsd	xmm0, QWORD PTR __real@3fe0000000000000
	cvtsd2ss xmm0, xmm0
	movss	DWORD PTR _heightover2$[ebp], xmm0

; 1966 : 
; 1967 : 		// Now check a point that is at the player hull midpoint.
; 1968 : 		point[2] = pmove->origin[2] + heightover2;

	mov	ecx, DWORD PTR ?pmove@@3PAUplayermove_s@@A ; pmove
	add	ecx, 56					; 00000038H
	call	??BVector@@QAEPAMXZ			; Vector::operator float *
	mov	ecx, 4
	shl	ecx, 1
	movss	xmm0, DWORD PTR [eax+ecx]
	addss	xmm0, DWORD PTR _heightover2$[ebp]
	lea	ecx, DWORD PTR _point$[ebp]
	movss	DWORD PTR tv503[ebp], xmm0
	call	??BVector@@QAEPAMXZ			; Vector::operator float *
	mov	edx, 4
	shl	edx, 1
	movss	xmm0, DWORD PTR tv503[ebp]
	movss	DWORD PTR [eax+edx], xmm0

; 1969 : 		cont = pmove->PM_PointContents (point, NULL );

	push	0
	lea	ecx, DWORD PTR _point$[ebp]
	call	??BVector@@QAEPAMXZ			; Vector::operator float *
	push	eax
	mov	eax, DWORD PTR ?pmove@@3PAUplayermove_s@@A ; pmove
	mov	ecx, DWORD PTR [eax+324980]
	call	ecx
	add	esp, 8
	mov	DWORD PTR _cont$[ebp], eax

; 1970 : 		// If that point is also under water...
; 1971 : 		if ((cont <= CONTENTS_WATER && cont > CONTENTS_TRANSLUCENT ) || (cont >= CONTENTS_FOG && cont <= CONTENTS_FLYFIELD))

	cmp	DWORD PTR _cont$[ebp], -3		; fffffffdH
	jg	SHORT $LN10@PM_CheckWa
	cmp	DWORD PTR _cont$[ebp], -15		; fffffff1H
	jg	SHORT $LN9@PM_CheckWa
$LN10@PM_CheckWa:
	cmp	DWORD PTR _cont$[ebp], -19		; ffffffedH
	jl	$LN11@PM_CheckWa
	cmp	DWORD PTR _cont$[ebp], -17		; ffffffefH
	jg	$LN11@PM_CheckWa
$LN9@PM_CheckWa:

; 1972 : 		{
; 1973 : 			// Set a higher water level.
; 1974 : 			pmove->waterlevel = 2;

	mov	eax, DWORD PTR ?pmove@@3PAUplayermove_s@@A ; pmove
	mov	DWORD PTR [eax+228], 2

; 1975 : 
; 1976 : 			// Now check the eye position.  (view_ofs is relative to the origin)
; 1977 : 			point[2] = pmove->origin[2] + pmove->view_ofs[2];

	mov	ecx, DWORD PTR ?pmove@@3PAUplayermove_s@@A ; pmove
	add	ecx, 56					; 00000038H
	call	??BVector@@QAEPAMXZ			; Vector::operator float *
	mov	esi, eax
	mov	edi, 4
	shl	edi, 1
	mov	ecx, DWORD PTR ?pmove@@3PAUplayermove_s@@A ; pmove
	add	ecx, 128				; 00000080H
	call	??BVector@@QAEPAMXZ			; Vector::operator float *
	mov	ecx, 4
	shl	ecx, 1
	movss	xmm0, DWORD PTR [esi+edi]
	addss	xmm0, DWORD PTR [eax+ecx]
	lea	ecx, DWORD PTR _point$[ebp]
	movss	DWORD PTR tv505[ebp], xmm0
	call	??BVector@@QAEPAMXZ			; Vector::operator float *
	mov	edx, 4
	shl	edx, 1
	movss	xmm0, DWORD PTR tv505[ebp]
	movss	DWORD PTR [eax+edx], xmm0

; 1978 : 
; 1979 : 			cont = pmove->PM_PointContents (point, NULL );

	push	0
	lea	ecx, DWORD PTR _point$[ebp]
	call	??BVector@@QAEPAMXZ			; Vector::operator float *
	push	eax
	mov	eax, DWORD PTR ?pmove@@3PAUplayermove_s@@A ; pmove
	mov	ecx, DWORD PTR [eax+324980]
	call	ecx
	add	esp, 8
	mov	DWORD PTR _cont$[ebp], eax

; 1980 : 			if ((cont <= CONTENTS_WATER && cont > CONTENTS_TRANSLUCENT ) || cont == CONTENTS_FOG) // Flyfields never cover the eyes

	cmp	DWORD PTR _cont$[ebp], -3		; fffffffdH
	jg	SHORT $LN13@PM_CheckWa
	cmp	DWORD PTR _cont$[ebp], -15		; fffffff1H
	jg	SHORT $LN12@PM_CheckWa
$LN13@PM_CheckWa:
	cmp	DWORD PTR _cont$[ebp], -19		; ffffffedH
	jne	SHORT $LN11@PM_CheckWa
$LN12@PM_CheckWa:

; 1981 : 				pmove->waterlevel = 3;  // In over our eyes

	mov	eax, DWORD PTR ?pmove@@3PAUplayermove_s@@A ; pmove
	mov	DWORD PTR [eax+228], 3
$LN11@PM_CheckWa:

; 1982 : 		}
; 1983 : 
; 1984 : 		// Adjust velocity based on water current, if any.
; 1985 : 		if ( ( truecont <= CONTENTS_CURRENT_0 ) &&

	cmp	DWORD PTR _truecont$[ebp], -9		; fffffff7H
	jg	$LN14@PM_CheckWa
	cmp	DWORD PTR _truecont$[ebp], -14		; fffffff2H
	jl	$LN14@PM_CheckWa

; 1986 : 			 ( truecont >= CONTENTS_CURRENT_DOWN ) )
; 1987 : 		{
; 1988 : 			// The deeper we are, the stronger the current.
; 1989 : 			static Vector current_table[] =

	mov	eax, DWORD PTR __tls_index
	mov	ecx, DWORD PTR fs:__tls_array
	mov	edx, DWORD PTR [ecx+eax*4]
	mov	eax, DWORD PTR ?$TSS0@?BA@??PM_CheckWater@@YAHXZ@4HA
	cmp	eax, DWORD PTR __Init_thread_epoch[edx]
	jle	$LN2@PM_CheckWa
	push	OFFSET ?$TSS0@?BA@??PM_CheckWater@@YAHXZ@4HA
	call	__Init_thread_header
	add	esp, 4
	cmp	DWORD PTR ?$TSS0@?BA@??PM_CheckWater@@YAHXZ@4HA, -1
	jne	$LN2@PM_CheckWa
	mov	DWORD PTR __$EHRec$[ebp+8], 0

; 1990 : 			{
; 1991 : 			Vector( 1,  0,  0 ), 

	push	ecx
	xorps	xmm0, xmm0
	movss	DWORD PTR [esp], xmm0
	push	ecx
	xorps	xmm0, xmm0
	movss	DWORD PTR [esp], xmm0
	push	ecx
	movss	xmm0, DWORD PTR __real@3f800000
	movss	DWORD PTR [esp], xmm0
	mov	ecx, OFFSET ?current_table@?BA@??PM_CheckWater@@YAHXZ@4PAVVector@@A
	call	??0Vector@@QAE@MMM@Z			; Vector::Vector

; 1992 : 			Vector( 0,  1,  0 ), 

	push	ecx
	xorps	xmm0, xmm0
	movss	DWORD PTR [esp], xmm0
	push	ecx
	movss	xmm0, DWORD PTR __real@3f800000
	movss	DWORD PTR [esp], xmm0
	push	ecx
	xorps	xmm0, xmm0
	movss	DWORD PTR [esp], xmm0
	mov	ecx, OFFSET ?current_table@?BA@??PM_CheckWater@@YAHXZ@4PAVVector@@A+12
	call	??0Vector@@QAE@MMM@Z			; Vector::Vector

; 1993 : 			Vector(-1,  0,  0 ),

	push	ecx
	xorps	xmm0, xmm0
	movss	DWORD PTR [esp], xmm0
	push	ecx
	xorps	xmm0, xmm0
	movss	DWORD PTR [esp], xmm0
	push	ecx
	movss	xmm0, DWORD PTR __real@bf800000
	movss	DWORD PTR [esp], xmm0
	mov	ecx, OFFSET ?current_table@?BA@??PM_CheckWater@@YAHXZ@4PAVVector@@A+24
	call	??0Vector@@QAE@MMM@Z			; Vector::Vector

; 1994 : 			Vector( 0, -1,  0 ), 

	push	ecx
	xorps	xmm0, xmm0
	movss	DWORD PTR [esp], xmm0
	push	ecx
	movss	xmm0, DWORD PTR __real@bf800000
	movss	DWORD PTR [esp], xmm0
	push	ecx
	xorps	xmm0, xmm0
	movss	DWORD PTR [esp], xmm0
	mov	ecx, OFFSET ?current_table@?BA@??PM_CheckWater@@YAHXZ@4PAVVector@@A+36
	call	??0Vector@@QAE@MMM@Z			; Vector::Vector

; 1995 : 			Vector( 0,  0,  1 ), 

	push	ecx
	movss	xmm0, DWORD PTR __real@3f800000
	movss	DWORD PTR [esp], xmm0
	push	ecx
	xorps	xmm0, xmm0
	movss	DWORD PTR [esp], xmm0
	push	ecx
	xorps	xmm0, xmm0
	movss	DWORD PTR [esp], xmm0
	mov	ecx, OFFSET ?current_table@?BA@??PM_CheckWater@@YAHXZ@4PAVVector@@A+48
	call	??0Vector@@QAE@MMM@Z			; Vector::Vector

; 1996 : 			Vector( 0,  0, -1 )

	push	ecx
	movss	xmm0, DWORD PTR __real@bf800000
	movss	DWORD PTR [esp], xmm0
	push	ecx
	xorps	xmm0, xmm0
	movss	DWORD PTR [esp], xmm0
	push	ecx
	xorps	xmm0, xmm0
	movss	DWORD PTR [esp], xmm0
	mov	ecx, OFFSET ?current_table@?BA@??PM_CheckWater@@YAHXZ@4PAVVector@@A+60
	call	??0Vector@@QAE@MMM@Z			; Vector::Vector
	mov	DWORD PTR __$EHRec$[ebp+8], -1
	push	OFFSET ?$TSS0@?BA@??PM_CheckWater@@YAHXZ@4HA
	call	__Init_thread_footer
	add	esp, 4
$LN2@PM_CheckWa:

; 1997 : 			};
; 1998 : 
; 1999 : 			pmove->basevelocity = pmove->basevelocity + current_table[CONTENTS_CURRENT_0 - truecont] * (pmove->waterlevel * 50.0f);

	mov	eax, DWORD PTR ?pmove@@3PAUplayermove_s@@A ; pmove
	cvtsi2ss xmm0, DWORD PTR [eax+228]
	mulss	xmm0, DWORD PTR __real@42480000
	push	ecx
	movss	DWORD PTR [esp], xmm0
	lea	ecx, DWORD PTR $T3[ebp]
	push	ecx
	mov	edx, -9					; fffffff7H
	sub	edx, DWORD PTR _truecont$[ebp]
	imul	ecx, edx, 12
	add	ecx, OFFSET ?current_table@?BA@??PM_CheckWater@@YAHXZ@4PAVVector@@A
	call	??DVector@@QBE?AV0@M@Z			; Vector::operator*
	push	eax
	lea	eax, DWORD PTR $T2[ebp]
	push	eax
	mov	ecx, DWORD PTR ?pmove@@3PAUplayermove_s@@A ; pmove
	add	ecx, 116				; 00000074H
	call	??HVector@@QBE?AV0@ABV0@@Z		; Vector::operator+
	mov	ecx, DWORD PTR ?pmove@@3PAUplayermove_s@@A ; pmove
	add	ecx, 116				; 00000074H
	mov	edx, DWORD PTR [eax]
	mov	DWORD PTR [ecx], edx
	mov	edx, DWORD PTR [eax+4]
	mov	DWORD PTR [ecx+4], edx
	mov	eax, DWORD PTR [eax+8]
	mov	DWORD PTR [ecx+8], eax
$LN14@PM_CheckWa:

; 2000 : 		}
; 2001 : 	}
; 2002 : 
; 2003 : 	return pmove->waterlevel > 1;

	mov	eax, DWORD PTR ?pmove@@3PAUplayermove_s@@A ; pmove
	cmp	DWORD PTR [eax+228], 1
	jle	SHORT $LN16@PM_CheckWa
	mov	DWORD PTR tv334[ebp], 1
	jmp	SHORT $LN17@PM_CheckWa
$LN16@PM_CheckWa:
	mov	DWORD PTR tv334[ebp], 0
$LN17@PM_CheckWa:
	mov	eax, DWORD PTR tv334[ebp]

; 2004 : }

	mov	ecx, DWORD PTR __$EHRec$[ebp]
	mov	DWORD PTR fs:0, ecx
	pop	ecx
	pop	edi
	pop	esi
	pop	ebx
	mov	esp, ebp
	pop	ebp
	ret	0
_TEXT	ENDS
;	COMDAT text$x
text$x	SEGMENT
__unwindfunclet$?PM_CheckWater@@YAHXZ$0:
	push	OFFSET ?$TSS0@?BA@??PM_CheckWater@@YAHXZ@4HA
	call	__Init_thread_abort
	pop	ecx
	ret	0
__ehhandler$?PM_CheckWater@@YAHXZ:
	mov	edx, DWORD PTR [esp+8]
	lea	eax, DWORD PTR [edx+12]
	mov	ecx, DWORD PTR [edx-144]
	xor	ecx, eax
	call	@__security_check_cookie@4
	mov	eax, OFFSET __ehfuncinfo$?PM_CheckWater@@YAHXZ
	jmp	___CxxFrameHandler3
text$x	ENDS
?PM_CheckWater@@YAHXZ ENDP				; PM_CheckWater
; Function compile flags: /Odtp /ZI
; File d:\!diffusion 2020\source code 2022\client-server\game_shared\playermove.cpp
;	COMDAT ?PM_InWater@@YAHXZ
_TEXT	SEGMENT
tv68 = -68						; size = 4
?PM_InWater@@YAHXZ PROC					; PM_InWater, COMDAT

; 1922 : {

	push	ebp
	mov	ebp, esp
	sub	esp, 68					; 00000044H
	push	ebx
	push	esi
	push	edi

; 1923 : 	return ( pmove->waterlevel > 1 && pmove->watertype != CONTENT_FOG );

	mov	eax, DWORD PTR ?pmove@@3PAUplayermove_s@@A ; pmove
	cmp	DWORD PTR [eax+228], 1
	jle	SHORT $LN3@PM_InWater
	mov	ecx, DWORD PTR ?pmove@@3PAUplayermove_s@@A ; pmove
	cmp	DWORD PTR [ecx+232], -19		; ffffffedH
	je	SHORT $LN3@PM_InWater
	mov	DWORD PTR tv68[ebp], 1
	jmp	SHORT $LN4@PM_InWater
$LN3@PM_InWater:
	mov	DWORD PTR tv68[ebp], 0
$LN4@PM_InWater:
	mov	eax, DWORD PTR tv68[ebp]

; 1924 : }

	pop	edi
	pop	esi
	pop	ebx
	mov	esp, ebp
	pop	ebp
	ret	0
?PM_InWater@@YAHXZ ENDP					; PM_InWater
_TEXT	ENDS
; Function compile flags: /Odtp /ZI
; File d:\!diffusion 2020\source code 2022\client-server\game_shared\playermove.cpp
;	COMDAT ?PM_AirMove@@YAXXZ
_TEXT	SEGMENT
tv270 = -152						; size = 4
tv268 = -148						; size = 4
$T1 = -140						; size = 12
$T2 = -128						; size = 12
$T3 = -116						; size = 12
_wishspeed$ = -40					; size = 4
_wishdir$ = -36						; size = 12
_smove$ = -24						; size = 4
_fmove$ = -20						; size = 4
_wishvel$ = -16						; size = 12
_i$ = -4						; size = 4
?PM_AirMove@@YAXXZ PROC					; PM_AirMove, COMDAT

; 1873 : {

	push	ebp
	mov	ebp, esp
	sub	esp, 152				; 00000098H
	push	ebx
	push	esi
	push	edi

; 1874 : 	int			i;
; 1875 : 	Vector		wishvel;

	lea	ecx, DWORD PTR _wishvel$[ebp]
	call	??0Vector@@QAE@XZ			; Vector::Vector

; 1876 : 	float		fmove, smove;
; 1877 : 	Vector		wishdir;

	lea	ecx, DWORD PTR _wishdir$[ebp]
	call	??0Vector@@QAE@XZ			; Vector::Vector

; 1878 : 	float		wishspeed;
; 1879 : 
; 1880 : 	// Copy movement amounts
; 1881 : 	fmove = pmove->cmd.forwardmove;

	mov	eax, DWORD PTR ?pmove@@3PAUplayermove_s@@A ; pmove
	movss	xmm0, DWORD PTR [eax+283752]
	movss	DWORD PTR _fmove$[ebp], xmm0

; 1882 : 	smove = pmove->cmd.sidemove;

	mov	eax, DWORD PTR ?pmove@@3PAUplayermove_s@@A ; pmove
	movss	xmm0, DWORD PTR [eax+283756]
	movss	DWORD PTR _smove$[ebp], xmm0

; 1883 : 	
; 1884 : 	// Zero out z components of movement vectors
; 1885 : 	pmove->forward[2] = 0;

	mov	ecx, DWORD PTR ?pmove@@3PAUplayermove_s@@A ; pmove
	add	ecx, 20					; 00000014H
	call	??BVector@@QAEPAMXZ			; Vector::operator float *
	mov	ecx, 4
	shl	ecx, 1
	xorps	xmm0, xmm0
	movss	DWORD PTR [eax+ecx], xmm0

; 1886 : 	pmove->right[2]   = 0;

	mov	ecx, DWORD PTR ?pmove@@3PAUplayermove_s@@A ; pmove
	add	ecx, 32					; 00000020H
	call	??BVector@@QAEPAMXZ			; Vector::operator float *
	mov	ecx, 4
	shl	ecx, 1
	xorps	xmm0, xmm0
	movss	DWORD PTR [eax+ecx], xmm0

; 1887 : 
; 1888 : 	// Renormalize
; 1889 : 	pmove->forward = pmove->forward.Normalize();

	lea	eax, DWORD PTR $T3[ebp]
	push	eax
	mov	ecx, DWORD PTR ?pmove@@3PAUplayermove_s@@A ; pmove
	add	ecx, 20					; 00000014H
	call	?Normalize@Vector@@QBE?AV1@XZ		; Vector::Normalize
	mov	ecx, DWORD PTR ?pmove@@3PAUplayermove_s@@A ; pmove
	add	ecx, 20					; 00000014H
	mov	edx, DWORD PTR [eax]
	mov	DWORD PTR [ecx], edx
	mov	edx, DWORD PTR [eax+4]
	mov	DWORD PTR [ecx+4], edx
	mov	eax, DWORD PTR [eax+8]
	mov	DWORD PTR [ecx+8], eax

; 1890 : 	pmove->right = pmove->right.Normalize(); 

	lea	eax, DWORD PTR $T2[ebp]
	push	eax
	mov	ecx, DWORD PTR ?pmove@@3PAUplayermove_s@@A ; pmove
	add	ecx, 32					; 00000020H
	call	?Normalize@Vector@@QBE?AV1@XZ		; Vector::Normalize
	mov	ecx, DWORD PTR ?pmove@@3PAUplayermove_s@@A ; pmove
	add	ecx, 32					; 00000020H
	mov	edx, DWORD PTR [eax]
	mov	DWORD PTR [ecx], edx
	mov	edx, DWORD PTR [eax+4]
	mov	DWORD PTR [ecx+4], edx
	mov	eax, DWORD PTR [eax+8]
	mov	DWORD PTR [ecx+8], eax

; 1891 : 
; 1892 : 	// Determine x and y parts of velocity
; 1893 : 	for (i=0 ; i<2 ; i++)       

	mov	DWORD PTR _i$[ebp], 0
	jmp	SHORT $LN4@PM_AirMove
$LN2@PM_AirMove:
	mov	eax, DWORD PTR _i$[ebp]
	add	eax, 1
	mov	DWORD PTR _i$[ebp], eax
$LN4@PM_AirMove:
	cmp	DWORD PTR _i$[ebp], 2
	jge	SHORT $LN3@PM_AirMove

; 1894 : 		wishvel[i] = pmove->forward[i]*fmove + pmove->right[i]*smove;

	mov	ecx, DWORD PTR ?pmove@@3PAUplayermove_s@@A ; pmove
	add	ecx, 20					; 00000014H
	call	??BVector@@QAEPAMXZ			; Vector::operator float *
	mov	ecx, DWORD PTR _i$[ebp]
	movss	xmm0, DWORD PTR [eax+ecx*4]
	mulss	xmm0, DWORD PTR _fmove$[ebp]
	mov	ecx, DWORD PTR ?pmove@@3PAUplayermove_s@@A ; pmove
	add	ecx, 32					; 00000020H
	movss	DWORD PTR tv268[ebp], xmm0
	call	??BVector@@QAEPAMXZ			; Vector::operator float *
	mov	edx, DWORD PTR _i$[ebp]
	movss	xmm0, DWORD PTR [eax+edx*4]
	mulss	xmm0, DWORD PTR _smove$[ebp]
	movss	xmm1, DWORD PTR tv268[ebp]
	addss	xmm1, xmm0
	lea	ecx, DWORD PTR _wishvel$[ebp]
	movss	DWORD PTR tv270[ebp], xmm1
	call	??BVector@@QAEPAMXZ			; Vector::operator float *
	mov	ecx, DWORD PTR _i$[ebp]
	movss	xmm0, DWORD PTR tv270[ebp]
	movss	DWORD PTR [eax+ecx*4], xmm0
	jmp	SHORT $LN2@PM_AirMove
$LN3@PM_AirMove:

; 1895 : 
; 1896 : 	// Zero out z part of velocity
; 1897 : 	wishvel[2] = 0;             

	lea	ecx, DWORD PTR _wishvel$[ebp]
	call	??BVector@@QAEPAMXZ			; Vector::operator float *
	mov	ecx, 4
	shl	ecx, 1
	xorps	xmm0, xmm0
	movss	DWORD PTR [eax+ecx], xmm0

; 1898 : 
; 1899 : 	 // Determine maginitude of speed of move
; 1900 : 	wishdir = wishvel;		// determine maginitude of speed of move

	mov	eax, DWORD PTR _wishvel$[ebp]
	mov	DWORD PTR _wishdir$[ebp], eax
	mov	ecx, DWORD PTR _wishvel$[ebp+4]
	mov	DWORD PTR _wishdir$[ebp+4], ecx
	mov	edx, DWORD PTR _wishvel$[ebp+8]
	mov	DWORD PTR _wishdir$[ebp+8], edx

; 1901 : 	wishspeed = wishdir.Length();

	lea	ecx, DWORD PTR _wishdir$[ebp]
	call	?Length@Vector@@QBEMXZ			; Vector::Length
	fstp	DWORD PTR _wishspeed$[ebp]

; 1902 : 	wishdir = wishdir.Normalize();

	lea	eax, DWORD PTR $T1[ebp]
	push	eax
	lea	ecx, DWORD PTR _wishdir$[ebp]
	call	?Normalize@Vector@@QBE?AV1@XZ		; Vector::Normalize
	mov	ecx, DWORD PTR [eax]
	mov	DWORD PTR _wishdir$[ebp], ecx
	mov	edx, DWORD PTR [eax+4]
	mov	DWORD PTR _wishdir$[ebp+4], edx
	mov	eax, DWORD PTR [eax+8]
	mov	DWORD PTR _wishdir$[ebp+8], eax

; 1903 : 
; 1904 : 	// Clamp to server defined max speed
; 1905 : 	if (wishspeed > pmove->maxspeed)

	mov	eax, DWORD PTR ?pmove@@3PAUplayermove_s@@A ; pmove
	movss	xmm0, DWORD PTR _wishspeed$[ebp]
	comiss	xmm0, DWORD PTR [eax+500]
	jbe	SHORT $LN5@PM_AirMove

; 1906 : 	{
; 1907 : 		wishvel *= ( pmove->maxspeed / wishspeed );

	mov	eax, DWORD PTR ?pmove@@3PAUplayermove_s@@A ; pmove
	movss	xmm0, DWORD PTR [eax+500]
	divss	xmm0, DWORD PTR _wishspeed$[ebp]
	push	ecx
	movss	DWORD PTR [esp], xmm0
	lea	ecx, DWORD PTR _wishvel$[ebp]
	call	??XVector@@QAEAAV0@M@Z			; Vector::operator*=

; 1908 : 		wishspeed = pmove->maxspeed;

	mov	eax, DWORD PTR ?pmove@@3PAUplayermove_s@@A ; pmove
	movss	xmm0, DWORD PTR [eax+500]
	movss	DWORD PTR _wishspeed$[ebp], xmm0
$LN5@PM_AirMove:

; 1909 : 	}
; 1910 : 	
; 1911 : 	PM_AirAccelerate (wishdir, wishspeed, pmove->movevars->airaccelerate);

	mov	eax, DWORD PTR ?pmove@@3PAUplayermove_s@@A ; pmove
	mov	ecx, DWORD PTR [eax+324848]
	push	ecx
	movss	xmm0, DWORD PTR [ecx+20]
	movss	DWORD PTR [esp], xmm0
	push	ecx
	movss	xmm0, DWORD PTR _wishspeed$[ebp]
	movss	DWORD PTR [esp], xmm0
	sub	esp, 12					; 0000000cH
	mov	ecx, esp
	lea	edx, DWORD PTR _wishdir$[ebp]
	push	edx
	call	??0Vector@@QAE@ABV0@@Z			; Vector::Vector
	call	?PM_AirAccelerate@@YAXVVector@@MM@Z	; PM_AirAccelerate
	add	esp, 20					; 00000014H

; 1912 : 
; 1913 : 	// Add in any base velocity to the current velocity.
; 1914 : 	pmove->velocity += pmove->basevelocity;

	mov	eax, DWORD PTR ?pmove@@3PAUplayermove_s@@A ; pmove
	add	eax, 116				; 00000074H
	push	eax
	mov	ecx, DWORD PTR ?pmove@@3PAUplayermove_s@@A ; pmove
	add	ecx, 92					; 0000005cH
	call	??YVector@@QAEAAV0@ABV0@@Z		; Vector::operator+=

; 1915 : 
; 1916 : 	PM_FlyMove ();

	call	?PM_FlyMove@@YAHXZ			; PM_FlyMove

; 1917 : 
; 1918 : 
; 1919 : }

	pop	edi
	pop	esi
	pop	ebx
	mov	esp, ebp
	pop	ebp
	ret	0
?PM_AirMove@@YAXXZ ENDP					; PM_AirMove
_TEXT	ENDS
; Function compile flags: /Odtp /ZI
; File d:\!diffusion 2020\source code 2022\client-server\game_shared\playermove.cpp
;	COMDAT ?PM_WaterMove@@YAXXZ
_TEXT	SEGMENT
tv452 = -408						; size = 4
tv450 = -404						; size = 4
tv237 = -404						; size = 4
tv216 = -404						; size = 4
tv148 = -404						; size = 4
tv140 = -404						; size = 4
$T1 = -400						; size = 68
$T2 = -332						; size = 68
$T3 = -264						; size = 12
$T4 = -252						; size = 12
$T5 = -240						; size = 12
$T6 = -228						; size = 12
_accelspeed$ = -152					; size = 4
_addspeed$ = -148					; size = 4
_newspeed$ = -144					; size = 4
_speed$ = -140						; size = 4
_trace$ = -136						; size = 68
_temp$ = -68						; size = 12
_dest$ = -56						; size = 12
_start$ = -44						; size = 12
_wishdir$ = -32						; size = 12
_wishspeed$ = -20					; size = 4
_wishvel$ = -16						; size = 12
_i$ = -4						; size = 4
?PM_WaterMove@@YAXXZ PROC				; PM_WaterMove, COMDAT

; 1776 : {

	push	ebp
	mov	ebp, esp
	sub	esp, 408				; 00000198H
	push	ebx
	push	esi
	push	edi

; 1777 : 	int		i;
; 1778 : 	Vector	wishvel;

	lea	ecx, DWORD PTR _wishvel$[ebp]
	call	??0Vector@@QAE@XZ			; Vector::Vector

; 1779 : 	float	wishspeed;
; 1780 : 	Vector	wishdir;

	lea	ecx, DWORD PTR _wishdir$[ebp]
	call	??0Vector@@QAE@XZ			; Vector::Vector

; 1781 : 	Vector	start, dest;

	lea	ecx, DWORD PTR _start$[ebp]
	call	??0Vector@@QAE@XZ			; Vector::Vector
	lea	ecx, DWORD PTR _dest$[ebp]
	call	??0Vector@@QAE@XZ			; Vector::Vector

; 1782 : 	Vector  temp;

	lea	ecx, DWORD PTR _temp$[ebp]
	call	??0Vector@@QAE@XZ			; Vector::Vector

; 1783 : 	pmtrace_t	trace;

	lea	ecx, DWORD PTR _trace$[ebp]
	call	??0pmtrace_s@@QAE@XZ

; 1784 : 
; 1785 : 	float speed, newspeed, addspeed, accelspeed;
; 1786 : 
; 1787 : //
; 1788 : // user intentions
; 1789 : //
; 1790 : 	for (i=0 ; i<3 ; i++)

	mov	DWORD PTR _i$[ebp], 0
	jmp	SHORT $LN4@PM_WaterMo
$LN2@PM_WaterMo:
	mov	eax, DWORD PTR _i$[ebp]
	add	eax, 1
	mov	DWORD PTR _i$[ebp], eax
$LN4@PM_WaterMo:
	cmp	DWORD PTR _i$[ebp], 3
	jge	$LN3@PM_WaterMo

; 1791 : 		wishvel[i] = pmove->forward[i]*pmove->cmd.forwardmove + pmove->right[i]*pmove->cmd.sidemove;

	mov	ecx, DWORD PTR ?pmove@@3PAUplayermove_s@@A ; pmove
	add	ecx, 20					; 00000014H
	call	??BVector@@QAEPAMXZ			; Vector::operator float *
	mov	ecx, DWORD PTR _i$[ebp]
	mov	edx, DWORD PTR ?pmove@@3PAUplayermove_s@@A ; pmove
	movss	xmm0, DWORD PTR [eax+ecx*4]
	mulss	xmm0, DWORD PTR [edx+283752]
	mov	ecx, DWORD PTR ?pmove@@3PAUplayermove_s@@A ; pmove
	add	ecx, 32					; 00000020H
	movss	DWORD PTR tv450[ebp], xmm0
	call	??BVector@@QAEPAMXZ			; Vector::operator float *
	mov	ecx, DWORD PTR _i$[ebp]
	mov	edx, DWORD PTR ?pmove@@3PAUplayermove_s@@A ; pmove
	movss	xmm0, DWORD PTR [eax+ecx*4]
	mulss	xmm0, DWORD PTR [edx+283756]
	movss	xmm1, DWORD PTR tv450[ebp]
	addss	xmm1, xmm0
	lea	ecx, DWORD PTR _wishvel$[ebp]
	movss	DWORD PTR tv452[ebp], xmm1
	call	??BVector@@QAEPAMXZ			; Vector::operator float *
	mov	ecx, DWORD PTR _i$[ebp]
	movss	xmm0, DWORD PTR tv452[ebp]
	movss	DWORD PTR [eax+ecx*4], xmm0
	jmp	$LN2@PM_WaterMo
$LN3@PM_WaterMo:

; 1792 : 
; 1793 : 	// Sinking after no other movement occurs
; 1794 : 	if (!pmove->cmd.forwardmove && !pmove->cmd.sidemove && !pmove->cmd.upmove && pmove->watertype != CONTENT_FLYFIELD)

	mov	eax, DWORD PTR ?pmove@@3PAUplayermove_s@@A ; pmove
	movss	xmm0, DWORD PTR [eax+283752]
	ucomiss	xmm0, DWORD PTR __real@00000000
	lahf
	test	ah, 68					; 00000044H
	jp	SHORT $LN8@PM_WaterMo
	mov	eax, DWORD PTR ?pmove@@3PAUplayermove_s@@A ; pmove
	movss	xmm0, DWORD PTR [eax+283756]
	ucomiss	xmm0, DWORD PTR __real@00000000
	lahf
	test	ah, 68					; 00000044H
	jp	SHORT $LN8@PM_WaterMo
	mov	eax, DWORD PTR ?pmove@@3PAUplayermove_s@@A ; pmove
	movss	xmm0, DWORD PTR [eax+283760]
	ucomiss	xmm0, DWORD PTR __real@00000000
	lahf
	test	ah, 68					; 00000044H
	jp	SHORT $LN8@PM_WaterMo
	mov	eax, DWORD PTR ?pmove@@3PAUplayermove_s@@A ; pmove
	cmp	DWORD PTR [eax+232], -17		; ffffffefH
	je	SHORT $LN8@PM_WaterMo

; 1795 : 		wishvel[2] -= 60;		// drift towards bottom

	lea	ecx, DWORD PTR _wishvel$[ebp]
	call	??BVector@@QAEPAMXZ			; Vector::operator float *
	mov	ecx, 4
	shl	ecx, 1
	add	eax, ecx
	mov	DWORD PTR tv140[ebp], eax
	mov	edx, DWORD PTR tv140[ebp]
	movss	xmm0, DWORD PTR [edx]
	subss	xmm0, DWORD PTR __real@42700000
	mov	eax, DWORD PTR tv140[ebp]
	movss	DWORD PTR [eax], xmm0

; 1796 : 	else  // Go straight up by upmove amount.

	jmp	SHORT $LN9@PM_WaterMo
$LN8@PM_WaterMo:

; 1797 : 		wishvel[2] += pmove->cmd.upmove;

	lea	ecx, DWORD PTR _wishvel$[ebp]
	call	??BVector@@QAEPAMXZ			; Vector::operator float *
	mov	ecx, 4
	shl	ecx, 1
	add	eax, ecx
	mov	DWORD PTR tv148[ebp], eax
	mov	edx, DWORD PTR tv148[ebp]
	mov	eax, DWORD PTR ?pmove@@3PAUplayermove_s@@A ; pmove
	movss	xmm0, DWORD PTR [edx]
	addss	xmm0, DWORD PTR [eax+283760]
	mov	ecx, DWORD PTR tv148[ebp]
	movss	DWORD PTR [ecx], xmm0
$LN9@PM_WaterMo:

; 1798 : 
; 1799 : 	// Copy it over and determine speed
; 1800 : 	wishdir = wishvel;

	mov	eax, DWORD PTR _wishvel$[ebp]
	mov	DWORD PTR _wishdir$[ebp], eax
	mov	ecx, DWORD PTR _wishvel$[ebp+4]
	mov	DWORD PTR _wishdir$[ebp+4], ecx
	mov	edx, DWORD PTR _wishvel$[ebp+8]
	mov	DWORD PTR _wishdir$[ebp+8], edx

; 1801 : 	wishspeed = wishdir.Length();

	lea	ecx, DWORD PTR _wishdir$[ebp]
	call	?Length@Vector@@QBEMXZ			; Vector::Length
	fstp	DWORD PTR _wishspeed$[ebp]

; 1802 : 	wishdir = wishdir.Normalize();

	lea	eax, DWORD PTR $T6[ebp]
	push	eax
	lea	ecx, DWORD PTR _wishdir$[ebp]
	call	?Normalize@Vector@@QBE?AV1@XZ		; Vector::Normalize
	mov	ecx, DWORD PTR [eax]
	mov	DWORD PTR _wishdir$[ebp], ecx
	mov	edx, DWORD PTR [eax+4]
	mov	DWORD PTR _wishdir$[ebp+4], edx
	mov	eax, DWORD PTR [eax+8]
	mov	DWORD PTR _wishdir$[ebp+8], eax

; 1803 : 
; 1804 : 	// Cap speed.
; 1805 : 	if (wishspeed > pmove->maxspeed)

	mov	eax, DWORD PTR ?pmove@@3PAUplayermove_s@@A ; pmove
	movss	xmm0, DWORD PTR _wishspeed$[ebp]
	comiss	xmm0, DWORD PTR [eax+500]
	jbe	SHORT $LN10@PM_WaterMo

; 1806 : 	{
; 1807 : 		wishvel *= ( pmove->maxspeed / wishspeed );

	mov	eax, DWORD PTR ?pmove@@3PAUplayermove_s@@A ; pmove
	movss	xmm0, DWORD PTR [eax+500]
	divss	xmm0, DWORD PTR _wishspeed$[ebp]
	push	ecx
	movss	DWORD PTR [esp], xmm0
	lea	ecx, DWORD PTR _wishvel$[ebp]
	call	??XVector@@QAEAAV0@M@Z			; Vector::operator*=

; 1808 : 		wishspeed = pmove->maxspeed;

	mov	eax, DWORD PTR ?pmove@@3PAUplayermove_s@@A ; pmove
	movss	xmm0, DWORD PTR [eax+500]
	movss	DWORD PTR _wishspeed$[ebp], xmm0
$LN10@PM_WaterMo:

; 1809 : 	}
; 1810 : 	// Slow us down a bit.
; 1811 : 	wishspeed *= 0.8;

	cvtss2sd xmm0, DWORD PTR _wishspeed$[ebp]
	mulsd	xmm0, QWORD PTR __real@3fe999999999999a
	cvtsd2ss xmm0, xmm0
	movss	DWORD PTR _wishspeed$[ebp], xmm0

; 1812 : 
; 1813 : 	pmove->velocity += pmove->basevelocity;

	mov	eax, DWORD PTR ?pmove@@3PAUplayermove_s@@A ; pmove
	add	eax, 116				; 00000074H
	push	eax
	mov	ecx, DWORD PTR ?pmove@@3PAUplayermove_s@@A ; pmove
	add	ecx, 92					; 0000005cH
	call	??YVector@@QAEAAV0@ABV0@@Z		; Vector::operator+=

; 1814 : 
; 1815 : 	// water friction
; 1816 : 	speed = pmove->velocity.Length();

	mov	ecx, DWORD PTR ?pmove@@3PAUplayermove_s@@A ; pmove
	add	ecx, 92					; 0000005cH
	call	?Length@Vector@@QBEMXZ			; Vector::Length
	fstp	DWORD PTR _speed$[ebp]

; 1817 : 
; 1818 : 	if (speed)

	movss	xmm0, DWORD PTR _speed$[ebp]
	ucomiss	xmm0, DWORD PTR __real@00000000
	lahf
	test	ah, 68					; 00000044H
	jnp	$LN11@PM_WaterMo

; 1819 : 	{
; 1820 : 		newspeed = speed - pmove->frametime * speed * pmove->movevars->friction * pmove->friction;

	mov	eax, DWORD PTR ?pmove@@3PAUplayermove_s@@A ; pmove
	movss	xmm0, DWORD PTR [eax+16]
	mulss	xmm0, DWORD PTR _speed$[ebp]
	mov	ecx, DWORD PTR ?pmove@@3PAUplayermove_s@@A ; pmove
	mov	edx, DWORD PTR [ecx+324848]
	mulss	xmm0, DWORD PTR [edx+28]
	mov	eax, DWORD PTR ?pmove@@3PAUplayermove_s@@A ; pmove
	mulss	xmm0, DWORD PTR [eax+196]
	movss	xmm1, DWORD PTR _speed$[ebp]
	subss	xmm1, xmm0
	movss	DWORD PTR _newspeed$[ebp], xmm1

; 1821 : 
; 1822 : 		if( newspeed < 0 ) newspeed = 0;

	xorps	xmm0, xmm0
	comiss	xmm0, DWORD PTR _newspeed$[ebp]
	jbe	SHORT $LN13@PM_WaterMo
	xorps	xmm0, xmm0
	movss	DWORD PTR _newspeed$[ebp], xmm0
$LN13@PM_WaterMo:

; 1823 : 		pmove->velocity *= ( newspeed / speed );

	movss	xmm0, DWORD PTR _newspeed$[ebp]
	divss	xmm0, DWORD PTR _speed$[ebp]
	push	ecx
	movss	DWORD PTR [esp], xmm0
	mov	ecx, DWORD PTR ?pmove@@3PAUplayermove_s@@A ; pmove
	add	ecx, 92					; 0000005cH
	call	??XVector@@QAEAAV0@M@Z			; Vector::operator*=

; 1824 : 	}
; 1825 : 	else

	jmp	SHORT $LN12@PM_WaterMo
$LN11@PM_WaterMo:

; 1826 : 		newspeed = 0;

	xorps	xmm0, xmm0
	movss	DWORD PTR _newspeed$[ebp], xmm0
$LN12@PM_WaterMo:

; 1827 : 
; 1828 : //
; 1829 : // water acceleration
; 1830 : //
; 1831 : 	if ( wishspeed < 0.1f )

	movss	xmm0, DWORD PTR __real@3dcccccd
	comiss	xmm0, DWORD PTR _wishspeed$[ebp]
	jbe	SHORT $LN14@PM_WaterMo

; 1832 : 		return;

	jmp	$LN1@PM_WaterMo
$LN14@PM_WaterMo:

; 1833 : 
; 1834 : 	addspeed = wishspeed - newspeed;

	movss	xmm0, DWORD PTR _wishspeed$[ebp]
	subss	xmm0, DWORD PTR _newspeed$[ebp]
	movss	DWORD PTR _addspeed$[ebp], xmm0

; 1835 : 	if (addspeed > 0)

	movss	xmm0, DWORD PTR _addspeed$[ebp]
	comiss	xmm0, DWORD PTR __real@00000000
	jbe	$LN6@PM_WaterMo

; 1836 : 	{
; 1837 : 
; 1838 : 		wishvel = wishvel.Normalize();

	lea	eax, DWORD PTR $T5[ebp]
	push	eax
	lea	ecx, DWORD PTR _wishvel$[ebp]
	call	?Normalize@Vector@@QBE?AV1@XZ		; Vector::Normalize
	mov	ecx, DWORD PTR [eax]
	mov	DWORD PTR _wishvel$[ebp], ecx
	mov	edx, DWORD PTR [eax+4]
	mov	DWORD PTR _wishvel$[ebp+4], edx
	mov	eax, DWORD PTR [eax+8]
	mov	DWORD PTR _wishvel$[ebp+8], eax

; 1839 : 		accelspeed = pmove->movevars->accelerate * wishspeed * pmove->frametime * pmove->friction;

	mov	eax, DWORD PTR ?pmove@@3PAUplayermove_s@@A ; pmove
	mov	ecx, DWORD PTR [eax+324848]
	movss	xmm0, DWORD PTR [ecx+16]
	mulss	xmm0, DWORD PTR _wishspeed$[ebp]
	mov	edx, DWORD PTR ?pmove@@3PAUplayermove_s@@A ; pmove
	mulss	xmm0, DWORD PTR [edx+16]
	mov	eax, DWORD PTR ?pmove@@3PAUplayermove_s@@A ; pmove
	mulss	xmm0, DWORD PTR [eax+196]
	movss	DWORD PTR _accelspeed$[ebp], xmm0

; 1840 : 		if (accelspeed > addspeed)

	movss	xmm0, DWORD PTR _accelspeed$[ebp]
	comiss	xmm0, DWORD PTR _addspeed$[ebp]
	jbe	SHORT $LN16@PM_WaterMo

; 1841 : 			accelspeed = addspeed;

	movss	xmm0, DWORD PTR _addspeed$[ebp]
	movss	DWORD PTR _accelspeed$[ebp], xmm0
$LN16@PM_WaterMo:

; 1842 : 
; 1843 : 		for (i = 0; i < 3; i++)

	mov	DWORD PTR _i$[ebp], 0
	jmp	SHORT $LN7@PM_WaterMo
$LN5@PM_WaterMo:
	mov	eax, DWORD PTR _i$[ebp]
	add	eax, 1
	mov	DWORD PTR _i$[ebp], eax
$LN7@PM_WaterMo:
	cmp	DWORD PTR _i$[ebp], 3
	jge	SHORT $LN6@PM_WaterMo

; 1844 : 			pmove->velocity[i] += accelspeed * wishvel[i];

	mov	ecx, DWORD PTR ?pmove@@3PAUplayermove_s@@A ; pmove
	add	ecx, 92					; 0000005cH
	call	??BVector@@QAEPAMXZ			; Vector::operator float *
	mov	ecx, DWORD PTR _i$[ebp]
	lea	edx, DWORD PTR [eax+ecx*4]
	mov	DWORD PTR tv216[ebp], edx
	lea	ecx, DWORD PTR _wishvel$[ebp]
	call	??BVector@@QAEPAMXZ			; Vector::operator float *
	mov	ecx, DWORD PTR _i$[ebp]
	movss	xmm0, DWORD PTR _accelspeed$[ebp]
	mulss	xmm0, DWORD PTR [eax+ecx*4]
	mov	edx, DWORD PTR tv216[ebp]
	addss	xmm0, DWORD PTR [edx]
	mov	eax, DWORD PTR tv216[ebp]
	movss	DWORD PTR [eax], xmm0
	jmp	SHORT $LN5@PM_WaterMo
$LN6@PM_WaterMo:

; 1845 : 	}
; 1846 : 
; 1847 : 	// Now move
; 1848 : 	// assume it is a stair or a slope, so press down from stepheight above
; 1849 : 	dest = pmove->origin + pmove->velocity * pmove->frametime;

	mov	eax, DWORD PTR ?pmove@@3PAUplayermove_s@@A ; pmove
	push	ecx
	movss	xmm0, DWORD PTR [eax+16]
	movss	DWORD PTR [esp], xmm0
	lea	ecx, DWORD PTR $T4[ebp]
	push	ecx
	mov	ecx, DWORD PTR ?pmove@@3PAUplayermove_s@@A ; pmove
	add	ecx, 92					; 0000005cH
	call	??DVector@@QBE?AV0@M@Z			; Vector::operator*
	push	eax
	lea	edx, DWORD PTR $T3[ebp]
	push	edx
	mov	ecx, DWORD PTR ?pmove@@3PAUplayermove_s@@A ; pmove
	add	ecx, 56					; 00000038H
	call	??HVector@@QBE?AV0@ABV0@@Z		; Vector::operator+
	mov	ecx, DWORD PTR [eax]
	mov	DWORD PTR _dest$[ebp], ecx
	mov	edx, DWORD PTR [eax+4]
	mov	DWORD PTR _dest$[ebp+4], edx
	mov	eax, DWORD PTR [eax+8]
	mov	DWORD PTR _dest$[ebp+8], eax

; 1850 : 	start = dest;

	mov	eax, DWORD PTR _dest$[ebp]
	mov	DWORD PTR _start$[ebp], eax
	mov	ecx, DWORD PTR _dest$[ebp+4]
	mov	DWORD PTR _start$[ebp+4], ecx
	mov	edx, DWORD PTR _dest$[ebp+8]
	mov	DWORD PTR _start$[ebp+8], edx

; 1851 : 	
; 1852 : 	start[2] += pmove->movevars->stepsize + 1;

	lea	ecx, DWORD PTR _start$[ebp]
	call	??BVector@@QAEPAMXZ			; Vector::operator float *
	mov	ecx, 4
	shl	ecx, 1
	add	eax, ecx
	mov	DWORD PTR tv237[ebp], eax
	mov	edx, DWORD PTR ?pmove@@3PAUplayermove_s@@A ; pmove
	mov	eax, DWORD PTR [edx+324848]
	movss	xmm0, DWORD PTR [eax+48]
	addss	xmm0, DWORD PTR __real@3f800000
	mov	ecx, DWORD PTR tv237[ebp]
	addss	xmm0, DWORD PTR [ecx]
	mov	edx, DWORD PTR tv237[ebp]
	movss	DWORD PTR [edx], xmm0

; 1853 : 	trace = pmove->PM_PlayerTrace (start, dest, PM_NORMAL, -1 );

	push	-1
	push	0
	lea	ecx, DWORD PTR _dest$[ebp]
	call	??BVector@@QAEPAMXZ			; Vector::operator float *
	push	eax
	lea	ecx, DWORD PTR _start$[ebp]
	call	??BVector@@QAEPAMXZ			; Vector::operator float *
	push	eax
	lea	eax, DWORD PTR $T1[ebp]
	push	eax
	mov	ecx, DWORD PTR ?pmove@@3PAUplayermove_s@@A ; pmove
	mov	edx, DWORD PTR [ecx+324992]
	call	edx
	add	esp, 20					; 00000014H
	mov	ecx, 17					; 00000011H
	mov	esi, eax
	lea	edi, DWORD PTR $T2[ebp]
	rep movsd
	mov	ecx, 17					; 00000011H
	lea	esi, DWORD PTR $T2[ebp]
	lea	edi, DWORD PTR _trace$[ebp]
	rep movsd

; 1854 : 	if( !trace.startsolid && !trace.allsolid )	// FIXME: check steep slope?

	cmp	DWORD PTR _trace$[ebp+4], 0
	jne	SHORT $LN17@PM_WaterMo
	cmp	DWORD PTR _trace$[ebp], 0
	jne	SHORT $LN17@PM_WaterMo

; 1855 : 	{	
; 1856 : 		// walked up the step, so just keep result and exit
; 1857 : 		pmove->origin = trace.endpos;

	mov	eax, DWORD PTR ?pmove@@3PAUplayermove_s@@A ; pmove
	add	eax, 56					; 00000038H
	mov	ecx, DWORD PTR _trace$[ebp+20]
	mov	DWORD PTR [eax], ecx
	mov	edx, DWORD PTR _trace$[ebp+24]
	mov	DWORD PTR [eax+4], edx
	mov	ecx, DWORD PTR _trace$[ebp+28]
	mov	DWORD PTR [eax+8], ecx

; 1858 : 		return;

	jmp	SHORT $LN1@PM_WaterMo
$LN17@PM_WaterMo:

; 1859 : 	}
; 1860 : 	
; 1861 : 	// Try moving straight along out normal path.
; 1862 : 	PM_FlyMove ();

	call	?PM_FlyMove@@YAHXZ			; PM_FlyMove
$LN1@PM_WaterMo:

; 1863 : }

	pop	edi
	pop	esi
	pop	ebx
	mov	esp, ebp
	pop	ebp
	ret	0
?PM_WaterMove@@YAXXZ ENDP				; PM_WaterMove
_TEXT	ENDS
; Function compile flags: /Odtp /ZI
; File d:\!diffusion 2020\source code 2022\client-server\game_shared\playermove.cpp
;	COMDAT ?PM_AirAccelerate@@YAXVVector@@MM@Z
_TEXT	SEGMENT
tv93 = -88						; size = 4
_wishspd$ = -20						; size = 4
_currentspeed$ = -16					; size = 4
_accelspeed$ = -12					; size = 4
_addspeed$ = -8						; size = 4
_i$ = -4						; size = 4
_wishdir$ = 8						; size = 12
_wishspeed$ = 20					; size = 4
_accel$ = 24						; size = 4
?PM_AirAccelerate@@YAXVVector@@MM@Z PROC		; PM_AirAccelerate, COMDAT

; 1734 : {

	push	ebp
	mov	ebp, esp
	sub	esp, 88					; 00000058H
	push	ebx
	push	esi
	push	edi

; 1735 : 	int			i;
; 1736 : 	float		addspeed, accelspeed, currentspeed, wishspd = wishspeed;

	movss	xmm0, DWORD PTR _wishspeed$[ebp]
	movss	DWORD PTR _wishspd$[ebp], xmm0

; 1737 : 		
; 1738 : 	if (pmove->dead)

	mov	eax, DWORD PTR ?pmove@@3PAUplayermove_s@@A ; pmove
	cmp	DWORD PTR [eax+208], 0
	je	SHORT $LN5@PM_AirAcce

; 1739 : 		return;

	jmp	$LN1@PM_AirAcce
$LN5@PM_AirAcce:

; 1740 : 	if (pmove->waterjumptime)

	mov	eax, DWORD PTR ?pmove@@3PAUplayermove_s@@A ; pmove
	movss	xmm0, DWORD PTR [eax+204]
	ucomiss	xmm0, DWORD PTR __real@00000000
	lahf
	test	ah, 68					; 00000044H
	jnp	SHORT $LN6@PM_AirAcce

; 1741 : 		return;

	jmp	$LN1@PM_AirAcce
$LN6@PM_AirAcce:

; 1742 : 
; 1743 : 	// Cap speed
; 1744 : 
; 1745 : 	if (wishspd > 30)

	movss	xmm0, DWORD PTR _wishspd$[ebp]
	comiss	xmm0, DWORD PTR __real@41f00000
	jbe	SHORT $LN7@PM_AirAcce

; 1746 : 		wishspd = 30;

	movss	xmm0, DWORD PTR __real@41f00000
	movss	DWORD PTR _wishspd$[ebp], xmm0
$LN7@PM_AirAcce:

; 1747 : 	// Determine veer amount
; 1748 : 	currentspeed = DotProduct (pmove->velocity, wishdir);

	lea	eax, DWORD PTR _wishdir$[ebp]
	push	eax
	mov	ecx, DWORD PTR ?pmove@@3PAUplayermove_s@@A ; pmove
	add	ecx, 92					; 0000005cH
	push	ecx
	call	?DotProduct@@YAMABVVector@@0@Z		; DotProduct
	add	esp, 8
	fstp	DWORD PTR _currentspeed$[ebp]

; 1749 : 	// See how much to add
; 1750 : 	addspeed = wishspd - currentspeed;

	movss	xmm0, DWORD PTR _wishspd$[ebp]
	subss	xmm0, DWORD PTR _currentspeed$[ebp]
	movss	DWORD PTR _addspeed$[ebp], xmm0

; 1751 : 	// If not adding any, done.
; 1752 : 	if (addspeed <= 0)

	xorps	xmm0, xmm0
	comiss	xmm0, DWORD PTR _addspeed$[ebp]
	jb	SHORT $LN8@PM_AirAcce

; 1753 : 		return;

	jmp	$LN1@PM_AirAcce
$LN8@PM_AirAcce:

; 1754 : 	// Determine acceleration speed after acceleration
; 1755 : 
; 1756 : 	accelspeed = accel * wishspeed * pmove->frametime * pmove->friction;

	movss	xmm0, DWORD PTR _accel$[ebp]
	mulss	xmm0, DWORD PTR _wishspeed$[ebp]
	mov	eax, DWORD PTR ?pmove@@3PAUplayermove_s@@A ; pmove
	mulss	xmm0, DWORD PTR [eax+16]
	mov	ecx, DWORD PTR ?pmove@@3PAUplayermove_s@@A ; pmove
	mulss	xmm0, DWORD PTR [ecx+196]
	movss	DWORD PTR _accelspeed$[ebp], xmm0

; 1757 : 	// Cap it
; 1758 : 	if (accelspeed > addspeed)

	movss	xmm0, DWORD PTR _accelspeed$[ebp]
	comiss	xmm0, DWORD PTR _addspeed$[ebp]
	jbe	SHORT $LN9@PM_AirAcce

; 1759 : 		accelspeed = addspeed;

	movss	xmm0, DWORD PTR _addspeed$[ebp]
	movss	DWORD PTR _accelspeed$[ebp], xmm0
$LN9@PM_AirAcce:

; 1760 : 	
; 1761 : 	// Adjust pmove vel.
; 1762 : 	for (i=0 ; i<3 ; i++)

	mov	DWORD PTR _i$[ebp], 0
	jmp	SHORT $LN4@PM_AirAcce
$LN2@PM_AirAcce:
	mov	eax, DWORD PTR _i$[ebp]
	add	eax, 1
	mov	DWORD PTR _i$[ebp], eax
$LN4@PM_AirAcce:
	cmp	DWORD PTR _i$[ebp], 3
	jge	SHORT $LN3@PM_AirAcce

; 1763 : 	{
; 1764 : 		pmove->velocity[i] += accelspeed*wishdir[i];

	mov	ecx, DWORD PTR ?pmove@@3PAUplayermove_s@@A ; pmove
	add	ecx, 92					; 0000005cH
	call	??BVector@@QAEPAMXZ			; Vector::operator float *
	mov	ecx, DWORD PTR _i$[ebp]
	lea	edx, DWORD PTR [eax+ecx*4]
	mov	DWORD PTR tv93[ebp], edx
	lea	ecx, DWORD PTR _wishdir$[ebp]
	call	??BVector@@QAEPAMXZ			; Vector::operator float *
	mov	ecx, DWORD PTR _i$[ebp]
	movss	xmm0, DWORD PTR _accelspeed$[ebp]
	mulss	xmm0, DWORD PTR [eax+ecx*4]
	mov	edx, DWORD PTR tv93[ebp]
	addss	xmm0, DWORD PTR [edx]
	mov	eax, DWORD PTR tv93[ebp]
	movss	DWORD PTR [eax], xmm0

; 1765 : 
; 1766 : 	}

	jmp	SHORT $LN2@PM_AirAcce
$LN3@PM_AirAcce:
$LN1@PM_AirAcce:

; 1767 : }

	pop	edi
	pop	esi
	pop	ebx
	mov	esp, ebp
	pop	ebp
	ret	0
?PM_AirAccelerate@@YAXVVector@@MM@Z ENDP		; PM_AirAccelerate
_TEXT	ENDS
; Function compile flags: /Odtp /ZI
; File d:\!diffusion 2020\source code 2022\client-server\game_shared\playermove.cpp
;	COMDAT ?PM_Friction@@YAXXZ
_TEXT	SEGMENT
tv384 = -328						; size = 4
tv382 = -328						; size = 4
tv380 = -328						; size = 4
tv378 = -328						; size = 4
tv241 = -328						; size = 4
tv155 = -328						; size = 4
tv134 = -328						; size = 4
$T1 = -324						; size = 68
$T2 = -256						; size = 68
_trace$3 = -124						; size = 68
_stop$4 = -56						; size = 12
_start$5 = -44						; size = 12
_newvel$ = -32						; size = 12
_drop$ = -20						; size = 4
_friction$ = -16					; size = 4
_control$ = -12						; size = 4
_newspeed$ = -8						; size = 4
_speed$ = -4						; size = 4
?PM_Friction@@YAXXZ PROC				; PM_Friction, COMDAT

; 1659 : {

	push	ebp
	mov	ebp, esp
	sub	esp, 328				; 00000148H
	push	ebx
	push	esi
	push	edi

; 1660 : 	float	speed, newspeed, control;
; 1661 : 	float	friction;
; 1662 : 	float	drop;
; 1663 : 	Vector newvel;

	lea	ecx, DWORD PTR _newvel$[ebp]
	call	??0Vector@@QAE@XZ			; Vector::Vector

; 1664 : 	
; 1665 : 	// If we are in water jump cycle, don't apply friction
; 1666 : 	if (pmove->waterjumptime)

	mov	eax, DWORD PTR ?pmove@@3PAUplayermove_s@@A ; pmove
	movss	xmm0, DWORD PTR [eax+204]
	ucomiss	xmm0, DWORD PTR __real@00000000
	lahf
	test	ah, 68					; 00000044H
	jnp	SHORT $LN2@PM_Frictio

; 1667 : 		return;

	jmp	$LN1@PM_Frictio
$LN2@PM_Frictio:

; 1668 : 	
; 1669 : 	// Calculate speed
; 1670 : 	speed = sqrt( DotProduct( pmove->velocity, pmove->velocity ));

	mov	eax, DWORD PTR ?pmove@@3PAUplayermove_s@@A ; pmove
	add	eax, 92					; 0000005cH
	push	eax
	mov	ecx, DWORD PTR ?pmove@@3PAUplayermove_s@@A ; pmove
	add	ecx, 92					; 0000005cH
	push	ecx
	call	?DotProduct@@YAMABVVector@@0@Z		; DotProduct
	fstp	QWORD PTR [esp]
	call	_sqrt
	add	esp, 8
	fstp	DWORD PTR _speed$[ebp]

; 1671 : 	
; 1672 : 	// If too slow, return
; 1673 : 	if (speed < 0.1f)

	movss	xmm0, DWORD PTR __real@3dcccccd
	comiss	xmm0, DWORD PTR _speed$[ebp]
	jbe	SHORT $LN3@PM_Frictio

; 1674 : 		return;

	jmp	$LN1@PM_Frictio
$LN3@PM_Frictio:

; 1675 : 
; 1676 : 	drop = 0;

	xorps	xmm0, xmm0
	movss	DWORD PTR _drop$[ebp], xmm0

; 1677 : 
; 1678 : // apply ground friction
; 1679 : 	if (pmove->onground != -1)  // On an entity that is the ground

	mov	eax, DWORD PTR ?pmove@@3PAUplayermove_s@@A ; pmove
	cmp	DWORD PTR [eax+224], -1
	je	$LN4@PM_Frictio

; 1680 : 	{
; 1681 : 		Vector start, stop;

	lea	ecx, DWORD PTR _start$5[ebp]
	call	??0Vector@@QAE@XZ			; Vector::Vector
	lea	ecx, DWORD PTR _stop$4[ebp]
	call	??0Vector@@QAE@XZ			; Vector::Vector

; 1682 : 		pmtrace_t trace;

	lea	ecx, DWORD PTR _trace$3[ebp]
	call	??0pmtrace_s@@QAE@XZ

; 1683 : 
; 1684 : 		start[0] = stop[0] = pmove->origin[0] + pmove->velocity[0] / speed * 16;

	mov	ecx, DWORD PTR ?pmove@@3PAUplayermove_s@@A ; pmove
	add	ecx, 56					; 00000038H
	call	??BVector@@QAEPAMXZ			; Vector::operator float *
	mov	esi, eax
	mov	eax, 4
	imul	edi, eax, 0
	mov	ecx, DWORD PTR ?pmove@@3PAUplayermove_s@@A ; pmove
	add	ecx, 92					; 0000005cH
	call	??BVector@@QAEPAMXZ			; Vector::operator float *
	mov	ecx, 4
	imul	edx, ecx, 0
	movss	xmm0, DWORD PTR [eax+edx]
	divss	xmm0, DWORD PTR _speed$[ebp]
	mulss	xmm0, DWORD PTR __real@41800000
	movss	xmm1, DWORD PTR [esi+edi]
	addss	xmm1, xmm0
	movss	DWORD PTR tv134[ebp], xmm1
	lea	ecx, DWORD PTR _stop$4[ebp]
	call	??BVector@@QAEPAMXZ			; Vector::operator float *
	mov	ecx, 4
	imul	edx, ecx, 0
	movss	xmm0, DWORD PTR tv134[ebp]
	movss	DWORD PTR [eax+edx], xmm0
	lea	ecx, DWORD PTR _start$5[ebp]
	call	??BVector@@QAEPAMXZ			; Vector::operator float *
	mov	ecx, 4
	imul	edx, ecx, 0
	movss	xmm0, DWORD PTR tv134[ebp]
	movss	DWORD PTR [eax+edx], xmm0

; 1685 : 		start[1] = stop[1] = pmove->origin[1] + pmove->velocity[1] / speed * 16;

	mov	ecx, DWORD PTR ?pmove@@3PAUplayermove_s@@A ; pmove
	add	ecx, 56					; 00000038H
	call	??BVector@@QAEPAMXZ			; Vector::operator float *
	mov	esi, eax
	mov	edi, 4
	shl	edi, 0
	mov	ecx, DWORD PTR ?pmove@@3PAUplayermove_s@@A ; pmove
	add	ecx, 92					; 0000005cH
	call	??BVector@@QAEPAMXZ			; Vector::operator float *
	mov	ecx, 4
	shl	ecx, 0
	movss	xmm0, DWORD PTR [eax+ecx]
	divss	xmm0, DWORD PTR _speed$[ebp]
	mulss	xmm0, DWORD PTR __real@41800000
	movss	xmm1, DWORD PTR [esi+edi]
	addss	xmm1, xmm0
	movss	DWORD PTR tv155[ebp], xmm1
	lea	ecx, DWORD PTR _stop$4[ebp]
	call	??BVector@@QAEPAMXZ			; Vector::operator float *
	mov	edx, 4
	shl	edx, 0
	movss	xmm0, DWORD PTR tv155[ebp]
	movss	DWORD PTR [eax+edx], xmm0
	lea	ecx, DWORD PTR _start$5[ebp]
	call	??BVector@@QAEPAMXZ			; Vector::operator float *
	mov	ecx, 4
	shl	ecx, 0
	movss	xmm0, DWORD PTR tv155[ebp]
	movss	DWORD PTR [eax+ecx], xmm0

; 1686 : 		if( pmove->effects & EF_UPSIDEDOWN )

	mov	eax, DWORD PTR ?pmove@@3PAUplayermove_s@@A ; pmove
	mov	ecx, DWORD PTR [eax+180]
	and	ecx, 4194304				; 00400000H
	je	$LN5@PM_Frictio

; 1687 : 		{
; 1688 : 			start[2] = pmove->origin[2] + pmove->player_maxs[pmove->usehull][2];

	mov	ecx, DWORD PTR ?pmove@@3PAUplayermove_s@@A ; pmove
	add	ecx, 56					; 00000038H
	call	??BVector@@QAEPAMXZ			; Vector::operator float *
	mov	esi, eax
	mov	edi, 4
	shl	edi, 1
	mov	eax, DWORD PTR ?pmove@@3PAUplayermove_s@@A ; pmove
	imul	ecx, DWORD PTR [eax+188], 12
	mov	edx, DWORD PTR ?pmove@@3PAUplayermove_s@@A ; pmove
	lea	ecx, DWORD PTR [edx+ecx+324900]
	call	??BVector@@QAEPAMXZ			; Vector::operator float *
	mov	ecx, 4
	shl	ecx, 1
	movss	xmm0, DWORD PTR [esi+edi]
	addss	xmm0, DWORD PTR [eax+ecx]
	lea	ecx, DWORD PTR _start$5[ebp]
	movss	DWORD PTR tv378[ebp], xmm0
	call	??BVector@@QAEPAMXZ			; Vector::operator float *
	mov	edx, 4
	shl	edx, 1
	movss	xmm0, DWORD PTR tv378[ebp]
	movss	DWORD PTR [eax+edx], xmm0

; 1689 : 			stop[2] = start[2] + 34;

	lea	ecx, DWORD PTR _start$5[ebp]
	call	??BVector@@QAEPAMXZ			; Vector::operator float *
	mov	ecx, 4
	shl	ecx, 1
	movss	xmm0, DWORD PTR [eax+ecx]
	addss	xmm0, DWORD PTR __real@42080000
	lea	ecx, DWORD PTR _stop$4[ebp]
	movss	DWORD PTR tv380[ebp], xmm0
	call	??BVector@@QAEPAMXZ			; Vector::operator float *
	mov	edx, 4
	shl	edx, 1
	movss	xmm0, DWORD PTR tv380[ebp]
	movss	DWORD PTR [eax+edx], xmm0

; 1690 : 		}
; 1691 : 		else

	jmp	$LN6@PM_Frictio
$LN5@PM_Frictio:

; 1692 : 		{
; 1693 : 			start[2] = pmove->origin[2] + pmove->player_mins[pmove->usehull][2];

	mov	ecx, DWORD PTR ?pmove@@3PAUplayermove_s@@A ; pmove
	add	ecx, 56					; 00000038H
	call	??BVector@@QAEPAMXZ			; Vector::operator float *
	mov	esi, eax
	mov	edi, 4
	shl	edi, 1
	mov	eax, DWORD PTR ?pmove@@3PAUplayermove_s@@A ; pmove
	imul	ecx, DWORD PTR [eax+188], 12
	mov	edx, DWORD PTR ?pmove@@3PAUplayermove_s@@A ; pmove
	lea	ecx, DWORD PTR [edx+ecx+324852]
	call	??BVector@@QAEPAMXZ			; Vector::operator float *
	mov	ecx, 4
	shl	ecx, 1
	movss	xmm0, DWORD PTR [esi+edi]
	addss	xmm0, DWORD PTR [eax+ecx]
	lea	ecx, DWORD PTR _start$5[ebp]
	movss	DWORD PTR tv382[ebp], xmm0
	call	??BVector@@QAEPAMXZ			; Vector::operator float *
	mov	edx, 4
	shl	edx, 1
	movss	xmm0, DWORD PTR tv382[ebp]
	movss	DWORD PTR [eax+edx], xmm0

; 1694 : 			stop[2] = start[2] - 34;

	lea	ecx, DWORD PTR _start$5[ebp]
	call	??BVector@@QAEPAMXZ			; Vector::operator float *
	mov	ecx, 4
	shl	ecx, 1
	movss	xmm0, DWORD PTR [eax+ecx]
	subss	xmm0, DWORD PTR __real@42080000
	lea	ecx, DWORD PTR _stop$4[ebp]
	movss	DWORD PTR tv384[ebp], xmm0
	call	??BVector@@QAEPAMXZ			; Vector::operator float *
	mov	edx, 4
	shl	edx, 1
	movss	xmm0, DWORD PTR tv384[ebp]
	movss	DWORD PTR [eax+edx], xmm0
$LN6@PM_Frictio:

; 1695 : 		}
; 1696 : 
; 1697 : 		trace = pmove->PM_PlayerTrace (start, stop, PM_NORMAL, -1 );

	push	-1
	push	0
	lea	ecx, DWORD PTR _stop$4[ebp]
	call	??BVector@@QAEPAMXZ			; Vector::operator float *
	push	eax
	lea	ecx, DWORD PTR _start$5[ebp]
	call	??BVector@@QAEPAMXZ			; Vector::operator float *
	push	eax
	lea	eax, DWORD PTR $T1[ebp]
	push	eax
	mov	ecx, DWORD PTR ?pmove@@3PAUplayermove_s@@A ; pmove
	mov	edx, DWORD PTR [ecx+324992]
	call	edx
	add	esp, 20					; 00000014H
	mov	ecx, 17					; 00000011H
	mov	esi, eax
	lea	edi, DWORD PTR $T2[ebp]
	rep movsd
	mov	ecx, 17					; 00000011H
	lea	esi, DWORD PTR $T2[ebp]
	lea	edi, DWORD PTR _trace$3[ebp]
	rep movsd

; 1698 : 
; 1699 : 		if (trace.fraction == 1.0)

	cvtss2sd xmm0, DWORD PTR _trace$3[ebp+16]
	ucomisd	xmm0, QWORD PTR __real@3ff0000000000000
	lahf
	test	ah, 68					; 00000044H
	jp	SHORT $LN7@PM_Frictio

; 1700 : 			friction = pmove->movevars->friction*pmove->movevars->edgefriction;

	mov	eax, DWORD PTR ?pmove@@3PAUplayermove_s@@A ; pmove
	mov	ecx, DWORD PTR [eax+324848]
	mov	edx, DWORD PTR ?pmove@@3PAUplayermove_s@@A ; pmove
	mov	eax, DWORD PTR [edx+324848]
	movss	xmm0, DWORD PTR [ecx+28]
	mulss	xmm0, DWORD PTR [eax+32]
	movss	DWORD PTR _friction$[ebp], xmm0

; 1701 : 		else

	jmp	SHORT $LN8@PM_Frictio
$LN7@PM_Frictio:

; 1702 : 			friction = pmove->movevars->friction;

	mov	eax, DWORD PTR ?pmove@@3PAUplayermove_s@@A ; pmove
	mov	ecx, DWORD PTR [eax+324848]
	movss	xmm0, DWORD PTR [ecx+28]
	movss	DWORD PTR _friction$[ebp], xmm0
$LN8@PM_Frictio:

; 1703 : 		
; 1704 : 		// Grab friction value.
; 1705 : 		//friction = pmove->movevars->friction;      
; 1706 : 
; 1707 : 		friction *= pmove->friction;  // player friction?

	mov	eax, DWORD PTR ?pmove@@3PAUplayermove_s@@A ; pmove
	movss	xmm0, DWORD PTR _friction$[ebp]
	mulss	xmm0, DWORD PTR [eax+196]
	movss	DWORD PTR _friction$[ebp], xmm0

; 1708 : 
; 1709 : 		// Bleed off some speed, but if we have less than the bleed
; 1710 : 		//  threshhold, bleed the theshold amount.
; 1711 : 		control = (speed < pmove->movevars->stopspeed) ?

	mov	eax, DWORD PTR ?pmove@@3PAUplayermove_s@@A ; pmove
	mov	ecx, DWORD PTR [eax+324848]
	movss	xmm0, DWORD PTR [ecx+4]
	comiss	xmm0, DWORD PTR _speed$[ebp]
	jbe	SHORT $LN11@PM_Frictio
	mov	edx, DWORD PTR ?pmove@@3PAUplayermove_s@@A ; pmove
	mov	eax, DWORD PTR [edx+324848]
	movss	xmm0, DWORD PTR [eax+4]
	movss	DWORD PTR tv241[ebp], xmm0
	jmp	SHORT $LN12@PM_Frictio
$LN11@PM_Frictio:
	movss	xmm0, DWORD PTR _speed$[ebp]
	movss	DWORD PTR tv241[ebp], xmm0
$LN12@PM_Frictio:
	movss	xmm0, DWORD PTR tv241[ebp]
	movss	DWORD PTR _control$[ebp], xmm0

; 1712 : 			pmove->movevars->stopspeed : speed;
; 1713 : 		// Add the amount to t'he drop amount.
; 1714 : 		drop += control*friction*pmove->frametime;

	movss	xmm0, DWORD PTR _control$[ebp]
	mulss	xmm0, DWORD PTR _friction$[ebp]
	mov	eax, DWORD PTR ?pmove@@3PAUplayermove_s@@A ; pmove
	mulss	xmm0, DWORD PTR [eax+16]
	addss	xmm0, DWORD PTR _drop$[ebp]
	movss	DWORD PTR _drop$[ebp], xmm0
$LN4@PM_Frictio:

; 1715 : 	}
; 1716 : 
; 1717 : // apply water friction
; 1718 : //	if (pmove->waterlevel)
; 1719 : //		drop += speed * pmove->movevars->waterfriction * waterlevel * pmove->frametime;
; 1720 : 
; 1721 : // scale the velocity
; 1722 : 	newspeed = speed - drop;

	movss	xmm0, DWORD PTR _speed$[ebp]
	subss	xmm0, DWORD PTR _drop$[ebp]
	movss	DWORD PTR _newspeed$[ebp], xmm0

; 1723 : 	if (newspeed < 0)

	xorps	xmm0, xmm0
	comiss	xmm0, DWORD PTR _newspeed$[ebp]
	jbe	SHORT $LN9@PM_Frictio

; 1724 : 		newspeed = 0;

	xorps	xmm0, xmm0
	movss	DWORD PTR _newspeed$[ebp], xmm0
$LN9@PM_Frictio:

; 1725 : 
; 1726 : 	// Determine proportion of old speed we are using.
; 1727 : 	newspeed /= speed;

	movss	xmm0, DWORD PTR _newspeed$[ebp]
	divss	xmm0, DWORD PTR _speed$[ebp]
	movss	DWORD PTR _newspeed$[ebp], xmm0

; 1728 : 
; 1729 : 	// Adjust velocity according to proportion.
; 1730 : 	pmove->velocity *= newspeed;

	push	ecx
	movss	xmm0, DWORD PTR _newspeed$[ebp]
	movss	DWORD PTR [esp], xmm0
	mov	ecx, DWORD PTR ?pmove@@3PAUplayermove_s@@A ; pmove
	add	ecx, 92					; 0000005cH
	call	??XVector@@QAEAAV0@M@Z			; Vector::operator*=
$LN1@PM_Frictio:

; 1731 : }

	pop	edi
	pop	esi
	pop	ebx
	mov	esp, ebp
	pop	ebp
	ret	0
?PM_Friction@@YAXXZ ENDP				; PM_Friction
_TEXT	ENDS
; Function compile flags: /Odtp /ZI
; File d:\!diffusion 2020\source code 2022\client-server\game_shared\playermove.cpp
;	COMDAT ?PM_WalkMove@@YAXXZ
_TEXT	SEGMENT
tv986 = -796						; size = 4
tv980 = -796						; size = 4
tv984 = -792						; size = 4
tv978 = -792						; size = 4
tv970 = -792						; size = 4
tv966 = -792						; size = 4
tv982 = -788						; size = 4
tv976 = -788						; size = 4
tv974 = -788						; size = 4
tv972 = -788						; size = 4
tv968 = -788						; size = 4
tv964 = -788						; size = 4
$T1 = -784						; size = 68
$T2 = -716						; size = 68
$T3 = -648						; size = 68
$T4 = -580						; size = 68
$T5 = -512						; size = 68
$T6 = -444						; size = 68
$T7 = -372						; size = 12
$T8 = -360						; size = 12
$T9 = -348						; size = 12
_iSprintFactor$ = -208					; size = 4
_bIsSprint$ = -204					; size = 4
_trace$ = -200						; size = 68
_updist$ = -132						; size = 4
_downdist$ = -128					; size = 4
_downvel$ = -124					; size = 12
_down$ = -112						; size = 12
_originalvel$ = -100					; size = 12
_original$ = -88					; size = 12
_start$ = -76						; size = 12
_dest$ = -64						; size = 12
_wishspeed$ = -52					; size = 4
_wishdir$ = -48						; size = 12
_smove$ = -36						; size = 4
_fmove$ = -32						; size = 4
_spd$ = -28						; size = 4
_wishvel$ = -24						; size = 12
_i$ = -12						; size = 4
_oldonground$ = -8					; size = 4
_clip$ = -4						; size = 4
?PM_WalkMove@@YAXXZ PROC				; PM_WalkMove, COMDAT

; 1456 : {

	push	ebp
	mov	ebp, esp
	sub	esp, 796				; 0000031cH
	push	ebx
	push	esi
	push	edi

; 1457 : 	int			clip;
; 1458 : 	int			oldonground;
; 1459 : 	int i;
; 1460 : 
; 1461 : 	Vector		wishvel;

	lea	ecx, DWORD PTR _wishvel$[ebp]
	call	??0Vector@@QAE@XZ			; Vector::Vector

; 1462 : 	float       spd;
; 1463 : 	float		fmove, smove;
; 1464 : 	Vector		wishdir;

	lea	ecx, DWORD PTR _wishdir$[ebp]
	call	??0Vector@@QAE@XZ			; Vector::Vector

; 1465 : 	float		wishspeed;
; 1466 : 
; 1467 : 	Vector dest, start;

	lea	ecx, DWORD PTR _dest$[ebp]
	call	??0Vector@@QAE@XZ			; Vector::Vector
	lea	ecx, DWORD PTR _start$[ebp]
	call	??0Vector@@QAE@XZ			; Vector::Vector

; 1468 : 	Vector original, originalvel;

	lea	ecx, DWORD PTR _original$[ebp]
	call	??0Vector@@QAE@XZ			; Vector::Vector
	lea	ecx, DWORD PTR _originalvel$[ebp]
	call	??0Vector@@QAE@XZ			; Vector::Vector

; 1469 : 	Vector down, downvel;

	lea	ecx, DWORD PTR _down$[ebp]
	call	??0Vector@@QAE@XZ			; Vector::Vector
	lea	ecx, DWORD PTR _downvel$[ebp]
	call	??0Vector@@QAE@XZ			; Vector::Vector

; 1470 : 	float downdist, updist;
; 1471 : 
; 1472 : 	pmtrace_t trace;

	lea	ecx, DWORD PTR _trace$[ebp]
	call	??0pmtrace_s@@QAE@XZ

; 1473 : 
; 1474 : // DiffusionSprint by Ku2zoff
; 1475 : 	qboolean  bIsSprint;
; 1476 : 	float iSprintFactor = 135.0f;

	movss	xmm0, DWORD PTR __real@43070000
	movss	DWORD PTR _iSprintFactor$[ebp], xmm0

; 1477 : 	if ( (pmove->cmd.buttons & IN_RUN) && (pmove->cmd.buttons & IN_FORWARD) && !(pmove->flags & FL_DUCKING) )

	mov	eax, DWORD PTR ?pmove@@3PAUplayermove_s@@A ; pmove
	movzx	ecx, WORD PTR [eax+283766]
	and	ecx, 4096				; 00001000H
	je	SHORT $LN5@PM_WalkMov
	mov	eax, DWORD PTR ?pmove@@3PAUplayermove_s@@A ; pmove
	movzx	ecx, WORD PTR [eax+283766]
	and	ecx, 8
	je	SHORT $LN5@PM_WalkMov
	mov	eax, DWORD PTR ?pmove@@3PAUplayermove_s@@A ; pmove
	mov	ecx, DWORD PTR [eax+184]
	and	ecx, 16384				; 00004000H
	jne	SHORT $LN5@PM_WalkMov

; 1478 : 	{
; 1479 : 		pmove->oldbuttons |= IN_RUN;

	mov	eax, DWORD PTR ?pmove@@3PAUplayermove_s@@A ; pmove
	mov	ecx, DWORD PTR [eax+200]
	or	ecx, 4096				; 00001000H
	mov	edx, DWORD PTR ?pmove@@3PAUplayermove_s@@A ; pmove
	mov	DWORD PTR [edx+200], ecx

; 1480 : 		bIsSprint = true;

	mov	DWORD PTR _bIsSprint$[ebp], 1

; 1481 : 	}
; 1482 : 	else

	jmp	SHORT $LN6@PM_WalkMov
$LN5@PM_WalkMov:

; 1483 : 	{
; 1484 : 		pmove->oldbuttons &= ~IN_RUN;

	mov	eax, DWORD PTR ?pmove@@3PAUplayermove_s@@A ; pmove
	mov	ecx, DWORD PTR [eax+200]
	and	ecx, -4097				; ffffefffH
	mov	edx, DWORD PTR ?pmove@@3PAUplayermove_s@@A ; pmove
	mov	DWORD PTR [edx+200], ecx

; 1485 : 		bIsSprint = false;

	mov	DWORD PTR _bIsSprint$[ebp], 0
$LN6@PM_WalkMov:

; 1486 : 	} 
; 1487 : //DiffusionSprintEND
; 1488 : 	
; 1489 : 	// Copy movement amounts
; 1490 : 	fmove = pmove->cmd.forwardmove;

	mov	eax, DWORD PTR ?pmove@@3PAUplayermove_s@@A ; pmove
	movss	xmm0, DWORD PTR [eax+283752]
	movss	DWORD PTR _fmove$[ebp], xmm0

; 1491 : 	smove = pmove->cmd.sidemove;

	mov	eax, DWORD PTR ?pmove@@3PAUplayermove_s@@A ; pmove
	movss	xmm0, DWORD PTR [eax+283756]
	movss	DWORD PTR _smove$[ebp], xmm0

; 1492 : 	
; 1493 : 	// Zero out z components of movement vectors
; 1494 : 	pmove->forward[2] = 0;

	mov	ecx, DWORD PTR ?pmove@@3PAUplayermove_s@@A ; pmove
	add	ecx, 20					; 00000014H
	call	??BVector@@QAEPAMXZ			; Vector::operator float *
	mov	ecx, 4
	shl	ecx, 1
	xorps	xmm0, xmm0
	movss	DWORD PTR [eax+ecx], xmm0

; 1495 : 	pmove->right[2]   = 0;

	mov	ecx, DWORD PTR ?pmove@@3PAUplayermove_s@@A ; pmove
	add	ecx, 32					; 00000020H
	call	??BVector@@QAEPAMXZ			; Vector::operator float *
	mov	ecx, 4
	shl	ecx, 1
	xorps	xmm0, xmm0
	movss	DWORD PTR [eax+ecx], xmm0

; 1496 : 	
; 1497 : 	pmove->forward = pmove->forward.Normalize();  // Normalize remainder of vectors.

	lea	eax, DWORD PTR $T9[ebp]
	push	eax
	mov	ecx, DWORD PTR ?pmove@@3PAUplayermove_s@@A ; pmove
	add	ecx, 20					; 00000014H
	call	?Normalize@Vector@@QBE?AV1@XZ		; Vector::Normalize
	mov	ecx, DWORD PTR ?pmove@@3PAUplayermove_s@@A ; pmove
	add	ecx, 20					; 00000014H
	mov	edx, DWORD PTR [eax]
	mov	DWORD PTR [ecx], edx
	mov	edx, DWORD PTR [eax+4]
	mov	DWORD PTR [ecx+4], edx
	mov	eax, DWORD PTR [eax+8]
	mov	DWORD PTR [ecx+8], eax

; 1498 : 	pmove->right = pmove->right.Normalize();    // 

	lea	eax, DWORD PTR $T8[ebp]
	push	eax
	mov	ecx, DWORD PTR ?pmove@@3PAUplayermove_s@@A ; pmove
	add	ecx, 32					; 00000020H
	call	?Normalize@Vector@@QBE?AV1@XZ		; Vector::Normalize
	mov	ecx, DWORD PTR ?pmove@@3PAUplayermove_s@@A ; pmove
	add	ecx, 32					; 00000020H
	mov	edx, DWORD PTR [eax]
	mov	DWORD PTR [ecx], edx
	mov	edx, DWORD PTR [eax+4]
	mov	DWORD PTR [ecx+4], edx
	mov	eax, DWORD PTR [eax+8]
	mov	DWORD PTR [ecx+8], eax

; 1499 : 
; 1500 : //	for (i=0 ; i<2 ; i++)       // Determine x and y parts of velocity
; 1501 : //		wishvel[i] = pmove->forward[i]*fmove + pmove->right[i]*smove;
; 1502 : 	for (i=0 ; i<2 ; i++)       // Determine x and y parts of velocity DiffusionSprint

	mov	DWORD PTR _i$[ebp], 0
	jmp	SHORT $LN4@PM_WalkMov
$LN2@PM_WalkMov:
	mov	eax, DWORD PTR _i$[ebp]
	add	eax, 1
	mov	DWORD PTR _i$[ebp], eax
$LN4@PM_WalkMov:
	cmp	DWORD PTR _i$[ebp], 2
	jge	$LN3@PM_WalkMov

; 1503 : 	{
; 1504 : 		if (bIsSprint && (!( pmove->flags & FL_DUCKING)))

	cmp	DWORD PTR _bIsSprint$[ebp], 0
	je	$LN7@PM_WalkMov
	mov	eax, DWORD PTR ?pmove@@3PAUplayermove_s@@A ; pmove
	mov	ecx, DWORD PTR [eax+184]
	and	ecx, 16384				; 00004000H
	jne	$LN7@PM_WalkMov

; 1505 : 			wishvel[i] = pmove->forward[i]*(fmove * iSprintFactor) + pmove->right[i] * smove * iSprintFactor * 0.75f;

	mov	ecx, DWORD PTR ?pmove@@3PAUplayermove_s@@A ; pmove
	add	ecx, 20					; 00000014H
	call	??BVector@@QAEPAMXZ			; Vector::operator float *
	movss	xmm0, DWORD PTR _fmove$[ebp]
	mulss	xmm0, DWORD PTR _iSprintFactor$[ebp]
	mov	ecx, DWORD PTR _i$[ebp]
	mulss	xmm0, DWORD PTR [eax+ecx*4]
	mov	ecx, DWORD PTR ?pmove@@3PAUplayermove_s@@A ; pmove
	add	ecx, 32					; 00000020H
	movss	DWORD PTR tv964[ebp], xmm0
	call	??BVector@@QAEPAMXZ			; Vector::operator float *
	mov	edx, DWORD PTR _i$[ebp]
	movss	xmm0, DWORD PTR [eax+edx*4]
	mulss	xmm0, DWORD PTR _smove$[ebp]
	mulss	xmm0, DWORD PTR _iSprintFactor$[ebp]
	mulss	xmm0, DWORD PTR __real@3f400000
	movss	xmm1, DWORD PTR tv964[ebp]
	addss	xmm1, xmm0
	lea	ecx, DWORD PTR _wishvel$[ebp]
	movss	DWORD PTR tv966[ebp], xmm1
	call	??BVector@@QAEPAMXZ			; Vector::operator float *
	mov	ecx, DWORD PTR _i$[ebp]
	movss	xmm0, DWORD PTR tv966[ebp]
	movss	DWORD PTR [eax+ecx*4], xmm0

; 1506 : 		else

	jmp	SHORT $LN8@PM_WalkMov
$LN7@PM_WalkMov:

; 1507 : 			wishvel[i] = pmove->forward[i]*fmove + pmove->right[i]*smove;

	mov	ecx, DWORD PTR ?pmove@@3PAUplayermove_s@@A ; pmove
	add	ecx, 20					; 00000014H
	call	??BVector@@QAEPAMXZ			; Vector::operator float *
	mov	ecx, DWORD PTR _i$[ebp]
	movss	xmm0, DWORD PTR [eax+ecx*4]
	mulss	xmm0, DWORD PTR _fmove$[ebp]
	mov	ecx, DWORD PTR ?pmove@@3PAUplayermove_s@@A ; pmove
	add	ecx, 32					; 00000020H
	movss	DWORD PTR tv968[ebp], xmm0
	call	??BVector@@QAEPAMXZ			; Vector::operator float *
	mov	edx, DWORD PTR _i$[ebp]
	movss	xmm0, DWORD PTR [eax+edx*4]
	mulss	xmm0, DWORD PTR _smove$[ebp]
	movss	xmm1, DWORD PTR tv968[ebp]
	addss	xmm1, xmm0
	lea	ecx, DWORD PTR _wishvel$[ebp]
	movss	DWORD PTR tv970[ebp], xmm1
	call	??BVector@@QAEPAMXZ			; Vector::operator float *
	mov	ecx, DWORD PTR _i$[ebp]
	movss	xmm0, DWORD PTR tv970[ebp]
	movss	DWORD PTR [eax+ecx*4], xmm0
$LN8@PM_WalkMov:

; 1508 : 	}

	jmp	$LN2@PM_WalkMov
$LN3@PM_WalkMov:

; 1509 : 	
; 1510 : 	wishvel[2] = 0;             // Zero out z part of velocity

	lea	ecx, DWORD PTR _wishvel$[ebp]
	call	??BVector@@QAEPAMXZ			; Vector::operator float *
	mov	ecx, 4
	shl	ecx, 1
	xorps	xmm0, xmm0
	movss	DWORD PTR [eax+ecx], xmm0

; 1511 : 
; 1512 : 	wishdir = wishvel;		// determine maginitude of speed of move

	mov	eax, DWORD PTR _wishvel$[ebp]
	mov	DWORD PTR _wishdir$[ebp], eax
	mov	ecx, DWORD PTR _wishvel$[ebp+4]
	mov	DWORD PTR _wishdir$[ebp+4], ecx
	mov	edx, DWORD PTR _wishvel$[ebp+8]
	mov	DWORD PTR _wishdir$[ebp+8], edx

; 1513 : 	wishspeed = wishdir.Length();

	lea	ecx, DWORD PTR _wishdir$[ebp]
	call	?Length@Vector@@QBEMXZ			; Vector::Length
	fstp	DWORD PTR _wishspeed$[ebp]

; 1514 : 	wishdir = wishdir.Normalize();

	lea	eax, DWORD PTR $T7[ebp]
	push	eax
	lea	ecx, DWORD PTR _wishdir$[ebp]
	call	?Normalize@Vector@@QBE?AV1@XZ		; Vector::Normalize
	mov	ecx, DWORD PTR [eax]
	mov	DWORD PTR _wishdir$[ebp], ecx
	mov	edx, DWORD PTR [eax+4]
	mov	DWORD PTR _wishdir$[ebp+4], edx
	mov	eax, DWORD PTR [eax+8]
	mov	DWORD PTR _wishdir$[ebp+8], eax

; 1515 : 
; 1516 : //
; 1517 : // Clamp to server defined max speed
; 1518 : //
; 1519 : 	if (wishspeed > pmove->maxspeed)

	mov	eax, DWORD PTR ?pmove@@3PAUplayermove_s@@A ; pmove
	movss	xmm0, DWORD PTR _wishspeed$[ebp]
	comiss	xmm0, DWORD PTR [eax+500]
	jbe	SHORT $LN9@PM_WalkMov

; 1520 : 	{
; 1521 : 		wishvel *= ( pmove->maxspeed / wishspeed );

	mov	eax, DWORD PTR ?pmove@@3PAUplayermove_s@@A ; pmove
	movss	xmm0, DWORD PTR [eax+500]
	divss	xmm0, DWORD PTR _wishspeed$[ebp]
	push	ecx
	movss	DWORD PTR [esp], xmm0
	lea	ecx, DWORD PTR _wishvel$[ebp]
	call	??XVector@@QAEAAV0@M@Z			; Vector::operator*=

; 1522 : 		wishspeed = pmove->maxspeed;

	mov	eax, DWORD PTR ?pmove@@3PAUplayermove_s@@A ; pmove
	movss	xmm0, DWORD PTR [eax+500]
	movss	DWORD PTR _wishspeed$[ebp], xmm0
$LN9@PM_WalkMov:

; 1523 : 	}
; 1524 : 
; 1525 : 	// Set pmove velocity
; 1526 : 	pmove->velocity[2] = 0;

	mov	ecx, DWORD PTR ?pmove@@3PAUplayermove_s@@A ; pmove
	add	ecx, 92					; 0000005cH
	call	??BVector@@QAEPAMXZ			; Vector::operator float *
	mov	ecx, 4
	shl	ecx, 1
	xorps	xmm0, xmm0
	movss	DWORD PTR [eax+ecx], xmm0

; 1527 : 	PM_Accelerate (wishdir, wishspeed, pmove->movevars->accelerate);

	mov	eax, DWORD PTR ?pmove@@3PAUplayermove_s@@A ; pmove
	mov	ecx, DWORD PTR [eax+324848]
	push	ecx
	movss	xmm0, DWORD PTR [ecx+16]
	movss	DWORD PTR [esp], xmm0
	push	ecx
	movss	xmm0, DWORD PTR _wishspeed$[ebp]
	movss	DWORD PTR [esp], xmm0
	sub	esp, 12					; 0000000cH
	mov	ecx, esp
	lea	edx, DWORD PTR _wishdir$[ebp]
	push	edx
	call	??0Vector@@QAE@ABV0@@Z			; Vector::Vector
	call	?PM_Accelerate@@YAXVVector@@MM@Z	; PM_Accelerate
	add	esp, 20					; 00000014H

; 1528 : 	pmove->velocity[2] = 0;

	mov	ecx, DWORD PTR ?pmove@@3PAUplayermove_s@@A ; pmove
	add	ecx, 92					; 0000005cH
	call	??BVector@@QAEPAMXZ			; Vector::operator float *
	mov	ecx, 4
	shl	ecx, 1
	xorps	xmm0, xmm0
	movss	DWORD PTR [eax+ecx], xmm0

; 1529 : 
; 1530 : 	// Add in any base velocity to the current velocity.
; 1531 : 	pmove->velocity += pmove->basevelocity;

	mov	eax, DWORD PTR ?pmove@@3PAUplayermove_s@@A ; pmove
	add	eax, 116				; 00000074H
	push	eax
	mov	ecx, DWORD PTR ?pmove@@3PAUplayermove_s@@A ; pmove
	add	ecx, 92					; 0000005cH
	call	??YVector@@QAEAAV0@ABV0@@Z		; Vector::operator+=

; 1532 : 
; 1533 : 	spd = pmove->velocity.Length();

	mov	ecx, DWORD PTR ?pmove@@3PAUplayermove_s@@A ; pmove
	add	ecx, 92					; 0000005cH
	call	?Length@Vector@@QBEMXZ			; Vector::Length
	fstp	DWORD PTR _spd$[ebp]

; 1534 : 
; 1535 : 	if( spd < 1.0f )

	movss	xmm0, DWORD PTR __real@3f800000
	comiss	xmm0, DWORD PTR _spd$[ebp]
	jbe	SHORT $LN10@PM_WalkMov

; 1536 : 	{
; 1537 : 		pmove->velocity = g_vecZero;

	mov	eax, DWORD PTR ?pmove@@3PAUplayermove_s@@A ; pmove
	add	eax, 92					; 0000005cH
	mov	ecx, DWORD PTR ?g_vecZero@@3VVector@@B
	mov	DWORD PTR [eax], ecx
	mov	edx, DWORD PTR ?g_vecZero@@3VVector@@B+4
	mov	DWORD PTR [eax+4], edx
	mov	ecx, DWORD PTR ?g_vecZero@@3VVector@@B+8
	mov	DWORD PTR [eax+8], ecx

; 1538 : 		return;

	jmp	$LN1@PM_WalkMov
$LN10@PM_WalkMov:

; 1539 : 	}
; 1540 : 
; 1541 : 	// If we are not moving, do nothing
; 1542 : 	//if (!pmove->velocity[0] && !pmove->velocity[1] && !pmove->velocity[2])
; 1543 : 	//	return;
; 1544 : 
; 1545 : 	oldonground = pmove->onground;

	mov	eax, DWORD PTR ?pmove@@3PAUplayermove_s@@A ; pmove
	mov	ecx, DWORD PTR [eax+224]
	mov	DWORD PTR _oldonground$[ebp], ecx

; 1546 : 
; 1547 : 	// first try just moving to the destination	
; 1548 : 	dest[0] = pmove->origin[0] + pmove->velocity[0] * pmove->frametime;

	mov	ecx, DWORD PTR ?pmove@@3PAUplayermove_s@@A ; pmove
	add	ecx, 56					; 00000038H
	call	??BVector@@QAEPAMXZ			; Vector::operator float *
	mov	esi, eax
	mov	eax, 4
	imul	edi, eax, 0
	mov	ecx, DWORD PTR ?pmove@@3PAUplayermove_s@@A ; pmove
	add	ecx, 92					; 0000005cH
	call	??BVector@@QAEPAMXZ			; Vector::operator float *
	mov	ecx, 4
	imul	edx, ecx, 0
	mov	ecx, DWORD PTR ?pmove@@3PAUplayermove_s@@A ; pmove
	movss	xmm0, DWORD PTR [eax+edx]
	mulss	xmm0, DWORD PTR [ecx+16]
	addss	xmm0, DWORD PTR [esi+edi]
	lea	ecx, DWORD PTR _dest$[ebp]
	movss	DWORD PTR tv972[ebp], xmm0
	call	??BVector@@QAEPAMXZ			; Vector::operator float *
	mov	edx, 4
	imul	ecx, edx, 0
	movss	xmm0, DWORD PTR tv972[ebp]
	movss	DWORD PTR [eax+ecx], xmm0

; 1549 : 	dest[1] = pmove->origin[1] + pmove->velocity[1] * pmove->frametime;	

	mov	ecx, DWORD PTR ?pmove@@3PAUplayermove_s@@A ; pmove
	add	ecx, 56					; 00000038H
	call	??BVector@@QAEPAMXZ			; Vector::operator float *
	mov	esi, eax
	mov	edi, 4
	shl	edi, 0
	mov	ecx, DWORD PTR ?pmove@@3PAUplayermove_s@@A ; pmove
	add	ecx, 92					; 0000005cH
	call	??BVector@@QAEPAMXZ			; Vector::operator float *
	mov	ecx, 4
	shl	ecx, 0
	mov	edx, DWORD PTR ?pmove@@3PAUplayermove_s@@A ; pmove
	movss	xmm0, DWORD PTR [eax+ecx]
	mulss	xmm0, DWORD PTR [edx+16]
	addss	xmm0, DWORD PTR [esi+edi]
	lea	ecx, DWORD PTR _dest$[ebp]
	movss	DWORD PTR tv974[ebp], xmm0
	call	??BVector@@QAEPAMXZ			; Vector::operator float *
	mov	ecx, 4
	shl	ecx, 0
	movss	xmm0, DWORD PTR tv974[ebp]
	movss	DWORD PTR [eax+ecx], xmm0

; 1550 : 	dest[2] = pmove->origin[2];

	mov	ecx, DWORD PTR ?pmove@@3PAUplayermove_s@@A ; pmove
	add	ecx, 56					; 00000038H
	call	??BVector@@QAEPAMXZ			; Vector::operator float *
	mov	esi, eax
	mov	edi, 4
	shl	edi, 1
	lea	ecx, DWORD PTR _dest$[ebp]
	call	??BVector@@QAEPAMXZ			; Vector::operator float *
	mov	ecx, 4
	shl	ecx, 1
	mov	edx, DWORD PTR [esi+edi]
	mov	DWORD PTR [eax+ecx], edx

; 1551 : 
; 1552 : 	// first try moving directly to the next spot
; 1553 : 	start = dest;

	mov	eax, DWORD PTR _dest$[ebp]
	mov	DWORD PTR _start$[ebp], eax
	mov	ecx, DWORD PTR _dest$[ebp+4]
	mov	DWORD PTR _start$[ebp+4], ecx
	mov	edx, DWORD PTR _dest$[ebp+8]
	mov	DWORD PTR _start$[ebp+8], edx

; 1554 : 	trace = pmove->PM_PlayerTrace (pmove->origin, dest, PM_NORMAL, -1 );

	push	-1
	push	0
	lea	ecx, DWORD PTR _dest$[ebp]
	call	??BVector@@QAEPAMXZ			; Vector::operator float *
	push	eax
	mov	ecx, DWORD PTR ?pmove@@3PAUplayermove_s@@A ; pmove
	add	ecx, 56					; 00000038H
	call	??BVector@@QAEPAMXZ			; Vector::operator float *
	push	eax
	lea	eax, DWORD PTR $T5[ebp]
	push	eax
	mov	ecx, DWORD PTR ?pmove@@3PAUplayermove_s@@A ; pmove
	mov	edx, DWORD PTR [ecx+324992]
	call	edx
	add	esp, 20					; 00000014H
	mov	ecx, 17					; 00000011H
	mov	esi, eax
	lea	edi, DWORD PTR $T6[ebp]
	rep movsd
	mov	ecx, 17					; 00000011H
	lea	esi, DWORD PTR $T6[ebp]
	lea	edi, DWORD PTR _trace$[ebp]
	rep movsd

; 1555 : 	// If we made it all the way, then copy trace end
; 1556 : 	//  as new player position.
; 1557 : 	if( trace.fraction == 1.0f )

	movss	xmm0, DWORD PTR _trace$[ebp+16]
	ucomiss	xmm0, DWORD PTR __real@3f800000
	lahf
	test	ah, 68					; 00000044H
	jp	SHORT $LN11@PM_WalkMov

; 1558 : 	{
; 1559 : 		pmove->origin = trace.endpos;

	mov	eax, DWORD PTR ?pmove@@3PAUplayermove_s@@A ; pmove
	add	eax, 56					; 00000038H
	mov	ecx, DWORD PTR _trace$[ebp+20]
	mov	DWORD PTR [eax], ecx
	mov	edx, DWORD PTR _trace$[ebp+24]
	mov	DWORD PTR [eax+4], edx
	mov	ecx, DWORD PTR _trace$[ebp+28]
	mov	DWORD PTR [eax+8], ecx

; 1560 : 		return;

	jmp	$LN1@PM_WalkMov
$LN11@PM_WalkMov:

; 1561 : 	}
; 1562 : 
; 1563 : 	// Don't walk up stairs if not on ground.
; 1564 : 	if( oldonground == -1 && ( pmove->waterlevel == 0 || pmove->watertype == CONTENT_FOG ))

	cmp	DWORD PTR _oldonground$[ebp], -1
	jne	SHORT $LN12@PM_WalkMov
	mov	eax, DWORD PTR ?pmove@@3PAUplayermove_s@@A ; pmove
	cmp	DWORD PTR [eax+228], 0
	je	SHORT $LN13@PM_WalkMov
	mov	eax, DWORD PTR ?pmove@@3PAUplayermove_s@@A ; pmove
	cmp	DWORD PTR [eax+232], -19		; ffffffedH
	jne	SHORT $LN12@PM_WalkMov
$LN13@PM_WalkMov:

; 1565 : 		return;

	jmp	$LN1@PM_WalkMov
$LN12@PM_WalkMov:

; 1566 : 
; 1567 : 	if (pmove->waterjumptime)         // If we are jumping out of water, don't do anything more.

	mov	eax, DWORD PTR ?pmove@@3PAUplayermove_s@@A ; pmove
	movss	xmm0, DWORD PTR [eax+204]
	ucomiss	xmm0, DWORD PTR __real@00000000
	lahf
	test	ah, 68					; 00000044H
	jnp	SHORT $LN14@PM_WalkMov

; 1568 : 		return;

	jmp	$LN1@PM_WalkMov
$LN14@PM_WalkMov:

; 1569 : 
; 1570 : 	// Try sliding forward both on ground and up 16 pixels
; 1571 : 	//  take the move that goes farthest
; 1572 : 	original = pmove->origin;       // Save out original pos &

	mov	eax, DWORD PTR ?pmove@@3PAUplayermove_s@@A ; pmove
	add	eax, 56					; 00000038H
	mov	ecx, DWORD PTR [eax]
	mov	DWORD PTR _original$[ebp], ecx
	mov	edx, DWORD PTR [eax+4]
	mov	DWORD PTR _original$[ebp+4], edx
	mov	eax, DWORD PTR [eax+8]
	mov	DWORD PTR _original$[ebp+8], eax

; 1573 : 	originalvel = pmove->velocity;  //  velocity.

	mov	eax, DWORD PTR ?pmove@@3PAUplayermove_s@@A ; pmove
	add	eax, 92					; 0000005cH
	mov	ecx, DWORD PTR [eax]
	mov	DWORD PTR _originalvel$[ebp], ecx
	mov	edx, DWORD PTR [eax+4]
	mov	DWORD PTR _originalvel$[ebp+4], edx
	mov	eax, DWORD PTR [eax+8]
	mov	DWORD PTR _originalvel$[ebp+8], eax

; 1574 : 
; 1575 : 	// Slide move
; 1576 : 	clip = PM_FlyMove ();

	call	?PM_FlyMove@@YAHXZ			; PM_FlyMove
	mov	DWORD PTR _clip$[ebp], eax

; 1577 : 
; 1578 : 	// Copy the results out
; 1579 : 	down = pmove->origin;

	mov	eax, DWORD PTR ?pmove@@3PAUplayermove_s@@A ; pmove
	add	eax, 56					; 00000038H
	mov	ecx, DWORD PTR [eax]
	mov	DWORD PTR _down$[ebp], ecx
	mov	edx, DWORD PTR [eax+4]
	mov	DWORD PTR _down$[ebp+4], edx
	mov	eax, DWORD PTR [eax+8]
	mov	DWORD PTR _down$[ebp+8], eax

; 1580 : 	downvel = pmove->velocity;

	mov	eax, DWORD PTR ?pmove@@3PAUplayermove_s@@A ; pmove
	add	eax, 92					; 0000005cH
	mov	ecx, DWORD PTR [eax]
	mov	DWORD PTR _downvel$[ebp], ecx
	mov	edx, DWORD PTR [eax+4]
	mov	DWORD PTR _downvel$[ebp+4], edx
	mov	eax, DWORD PTR [eax+8]
	mov	DWORD PTR _downvel$[ebp+8], eax

; 1581 : 
; 1582 : 	// Reset original values.
; 1583 : 	pmove->origin = original;

	mov	eax, DWORD PTR ?pmove@@3PAUplayermove_s@@A ; pmove
	add	eax, 56					; 00000038H
	mov	ecx, DWORD PTR _original$[ebp]
	mov	DWORD PTR [eax], ecx
	mov	edx, DWORD PTR _original$[ebp+4]
	mov	DWORD PTR [eax+4], edx
	mov	ecx, DWORD PTR _original$[ebp+8]
	mov	DWORD PTR [eax+8], ecx

; 1584 : 	pmove->velocity = originalvel;

	mov	eax, DWORD PTR ?pmove@@3PAUplayermove_s@@A ; pmove
	add	eax, 92					; 0000005cH
	mov	ecx, DWORD PTR _originalvel$[ebp]
	mov	DWORD PTR [eax], ecx
	mov	edx, DWORD PTR _originalvel$[ebp+4]
	mov	DWORD PTR [eax+4], edx
	mov	ecx, DWORD PTR _originalvel$[ebp+8]
	mov	DWORD PTR [eax+8], ecx

; 1585 : 
; 1586 : 	// Start out up one stair height
; 1587 : 	dest = pmove->origin;

	mov	eax, DWORD PTR ?pmove@@3PAUplayermove_s@@A ; pmove
	add	eax, 56					; 00000038H
	mov	ecx, DWORD PTR [eax]
	mov	DWORD PTR _dest$[ebp], ecx
	mov	edx, DWORD PTR [eax+4]
	mov	DWORD PTR _dest$[ebp+4], edx
	mov	eax, DWORD PTR [eax+8]
	mov	DWORD PTR _dest$[ebp+8], eax

; 1588 : 	if( pmove->effects & EF_UPSIDEDOWN )

	mov	eax, DWORD PTR ?pmove@@3PAUplayermove_s@@A ; pmove
	mov	ecx, DWORD PTR [eax+180]
	and	ecx, 4194304				; 00400000H
	je	SHORT $LN15@PM_WalkMov

; 1589 : 		dest.z -= pmove->movevars->stepsize;

	mov	eax, DWORD PTR ?pmove@@3PAUplayermove_s@@A ; pmove
	mov	ecx, DWORD PTR [eax+324848]
	movss	xmm0, DWORD PTR _dest$[ebp+8]
	subss	xmm0, DWORD PTR [ecx+48]
	movss	DWORD PTR _dest$[ebp+8], xmm0

; 1590 : 	else

	jmp	SHORT $LN16@PM_WalkMov
$LN15@PM_WalkMov:

; 1591 : 		dest.z += pmove->movevars->stepsize;

	mov	eax, DWORD PTR ?pmove@@3PAUplayermove_s@@A ; pmove
	mov	ecx, DWORD PTR [eax+324848]
	movss	xmm0, DWORD PTR _dest$[ebp+8]
	addss	xmm0, DWORD PTR [ecx+48]
	movss	DWORD PTR _dest$[ebp+8], xmm0
$LN16@PM_WalkMov:

; 1592 : 	
; 1593 : 	trace = pmove->PM_PlayerTrace (pmove->origin, dest, PM_NORMAL, -1 );

	push	-1
	push	0
	lea	ecx, DWORD PTR _dest$[ebp]
	call	??BVector@@QAEPAMXZ			; Vector::operator float *
	push	eax
	mov	ecx, DWORD PTR ?pmove@@3PAUplayermove_s@@A ; pmove
	add	ecx, 56					; 00000038H
	call	??BVector@@QAEPAMXZ			; Vector::operator float *
	push	eax
	lea	eax, DWORD PTR $T3[ebp]
	push	eax
	mov	ecx, DWORD PTR ?pmove@@3PAUplayermove_s@@A ; pmove
	mov	edx, DWORD PTR [ecx+324992]
	call	edx
	add	esp, 20					; 00000014H
	mov	ecx, 17					; 00000011H
	mov	esi, eax
	lea	edi, DWORD PTR $T4[ebp]
	rep movsd
	mov	ecx, 17					; 00000011H
	lea	esi, DWORD PTR $T4[ebp]
	lea	edi, DWORD PTR _trace$[ebp]
	rep movsd

; 1594 : 	// If we started okay and made it part of the way at least,
; 1595 : 	//  copy the results to the movement start position and then
; 1596 : 	//  run another move try.
; 1597 : 	if (!trace.startsolid && !trace.allsolid)

	cmp	DWORD PTR _trace$[ebp+4], 0
	jne	SHORT $LN17@PM_WalkMov
	cmp	DWORD PTR _trace$[ebp], 0
	jne	SHORT $LN17@PM_WalkMov

; 1598 : 		pmove->origin = trace.endpos;

	mov	eax, DWORD PTR ?pmove@@3PAUplayermove_s@@A ; pmove
	add	eax, 56					; 00000038H
	mov	ecx, DWORD PTR _trace$[ebp+20]
	mov	DWORD PTR [eax], ecx
	mov	edx, DWORD PTR _trace$[ebp+24]
	mov	DWORD PTR [eax+4], edx
	mov	ecx, DWORD PTR _trace$[ebp+28]
	mov	DWORD PTR [eax+8], ecx
$LN17@PM_WalkMov:

; 1599 : 
; 1600 : // slide move the rest of the way.
; 1601 : 	clip = PM_FlyMove ();

	call	?PM_FlyMove@@YAHXZ			; PM_FlyMove
	mov	DWORD PTR _clip$[ebp], eax

; 1602 : 
; 1603 : // Now try going back down from the end point
; 1604 : //  press down the stepheight
; 1605 : 	dest = pmove->origin;

	mov	eax, DWORD PTR ?pmove@@3PAUplayermove_s@@A ; pmove
	add	eax, 56					; 00000038H
	mov	ecx, DWORD PTR [eax]
	mov	DWORD PTR _dest$[ebp], ecx
	mov	edx, DWORD PTR [eax+4]
	mov	DWORD PTR _dest$[ebp+4], edx
	mov	eax, DWORD PTR [eax+8]
	mov	DWORD PTR _dest$[ebp+8], eax

; 1606 : 	if( pmove->effects & EF_UPSIDEDOWN )

	mov	eax, DWORD PTR ?pmove@@3PAUplayermove_s@@A ; pmove
	mov	ecx, DWORD PTR [eax+180]
	and	ecx, 4194304				; 00400000H
	je	SHORT $LN18@PM_WalkMov

; 1607 : 		dest.z += pmove->movevars->stepsize;

	mov	eax, DWORD PTR ?pmove@@3PAUplayermove_s@@A ; pmove
	mov	ecx, DWORD PTR [eax+324848]
	movss	xmm0, DWORD PTR _dest$[ebp+8]
	addss	xmm0, DWORD PTR [ecx+48]
	movss	DWORD PTR _dest$[ebp+8], xmm0

; 1608 : 	else

	jmp	SHORT $LN19@PM_WalkMov
$LN18@PM_WalkMov:

; 1609 : 		dest.z -= pmove->movevars->stepsize;

	mov	eax, DWORD PTR ?pmove@@3PAUplayermove_s@@A ; pmove
	mov	ecx, DWORD PTR [eax+324848]
	movss	xmm0, DWORD PTR _dest$[ebp+8]
	subss	xmm0, DWORD PTR [ecx+48]
	movss	DWORD PTR _dest$[ebp+8], xmm0
$LN19@PM_WalkMov:

; 1610 : 	
; 1611 : 	trace = pmove->PM_PlayerTrace (pmove->origin, dest, PM_NORMAL, -1 );

	push	-1
	push	0
	lea	ecx, DWORD PTR _dest$[ebp]
	call	??BVector@@QAEPAMXZ			; Vector::operator float *
	push	eax
	mov	ecx, DWORD PTR ?pmove@@3PAUplayermove_s@@A ; pmove
	add	ecx, 56					; 00000038H
	call	??BVector@@QAEPAMXZ			; Vector::operator float *
	push	eax
	lea	eax, DWORD PTR $T1[ebp]
	push	eax
	mov	ecx, DWORD PTR ?pmove@@3PAUplayermove_s@@A ; pmove
	mov	edx, DWORD PTR [ecx+324992]
	call	edx
	add	esp, 20					; 00000014H
	mov	ecx, 17					; 00000011H
	mov	esi, eax
	lea	edi, DWORD PTR $T2[ebp]
	rep movsd
	mov	ecx, 17					; 00000011H
	lea	esi, DWORD PTR $T2[ebp]
	lea	edi, DWORD PTR _trace$[ebp]
	rep movsd

; 1612 : 
; 1613 : 	// If we are not on the ground any more then
; 1614 : 	//  use the original movement attempt
; 1615 : 	if( pmove->effects & EF_UPSIDEDOWN )

	mov	eax, DWORD PTR ?pmove@@3PAUplayermove_s@@A ; pmove
	mov	ecx, DWORD PTR [eax+180]
	and	ecx, 4194304				; 00400000H
	je	SHORT $LN20@PM_WalkMov

; 1616 : 	{
; 1617 : 		if( trace.plane.normal[2] > -0.7 )

	lea	ecx, DWORD PTR _trace$[ebp+32]
	call	??BVector@@QAEPAMXZ			; Vector::operator float *
	mov	ecx, 4
	shl	ecx, 1
	cvtss2sd xmm0, DWORD PTR [eax+ecx]
	comisd	xmm0, QWORD PTR __real@bfe6666666666666
	jbe	SHORT $LN22@PM_WalkMov

; 1618 : 			goto usedown;

	jmp	$LN23@PM_WalkMov
	jmp	$usedown$30
$LN22@PM_WalkMov:

; 1619 : 	}
; 1620 : 	else

	jmp	SHORT $LN24@PM_WalkMov
$LN20@PM_WalkMov:

; 1621 : 	{
; 1622 : 		if( trace.plane.normal[2] < 0.7 )

	lea	ecx, DWORD PTR _trace$[ebp+32]
	call	??BVector@@QAEPAMXZ			; Vector::operator float *
	mov	ecx, 4
	shl	ecx, 1
	cvtss2sd xmm0, DWORD PTR [eax+ecx]
	movsd	xmm1, QWORD PTR __real@3fe6666666666666
	comisd	xmm1, xmm0
	jbe	SHORT $LN24@PM_WalkMov

; 1623 : 			goto usedown;

	jmp	$LN25@PM_WalkMov
	jmp	$usedown$30
$LN24@PM_WalkMov:

; 1624 : 	}
; 1625 : 
; 1626 : 	// If the trace ended up in empty space, copy the end
; 1627 : 	//  over to the origin.
; 1628 : 	if (!trace.startsolid && !trace.allsolid)

	cmp	DWORD PTR _trace$[ebp+4], 0
	jne	SHORT $LN26@PM_WalkMov
	cmp	DWORD PTR _trace$[ebp], 0
	jne	SHORT $LN26@PM_WalkMov

; 1629 : 		pmove->origin = trace.endpos;

	mov	eax, DWORD PTR ?pmove@@3PAUplayermove_s@@A ; pmove
	add	eax, 56					; 00000038H
	mov	ecx, DWORD PTR _trace$[ebp+20]
	mov	DWORD PTR [eax], ecx
	mov	edx, DWORD PTR _trace$[ebp+24]
	mov	DWORD PTR [eax+4], edx
	mov	ecx, DWORD PTR _trace$[ebp+28]
	mov	DWORD PTR [eax+8], ecx
$LN26@PM_WalkMov:

; 1630 : 
; 1631 : 	// Copy this origin to up.
; 1632 : 	pmove->up = pmove->origin;

	mov	eax, DWORD PTR ?pmove@@3PAUplayermove_s@@A ; pmove
	add	eax, 56					; 00000038H
	mov	ecx, DWORD PTR ?pmove@@3PAUplayermove_s@@A ; pmove
	add	ecx, 44					; 0000002cH
	mov	edx, DWORD PTR [eax]
	mov	DWORD PTR [ecx], edx
	mov	edx, DWORD PTR [eax+4]
	mov	DWORD PTR [ecx+4], edx
	mov	eax, DWORD PTR [eax+8]
	mov	DWORD PTR [ecx+8], eax

; 1633 : 
; 1634 : 	// decide which one went farther
; 1635 : 	downdist = (down[0] - original[0]) * (down[0] - original[0]) + (down[1] - original[1]) * (down[1] - original[1]);

	lea	ecx, DWORD PTR _down$[ebp]
	call	??BVector@@QAEPAMXZ			; Vector::operator float *
	mov	esi, eax
	mov	eax, 4
	imul	edi, eax, 0
	lea	ecx, DWORD PTR _original$[ebp]
	call	??BVector@@QAEPAMXZ			; Vector::operator float *
	mov	ecx, 4
	imul	edx, ecx, 0
	movss	xmm0, DWORD PTR [esi+edi]
	subss	xmm0, DWORD PTR [eax+edx]
	lea	ecx, DWORD PTR _down$[ebp]
	movss	DWORD PTR tv976[ebp], xmm0
	call	??BVector@@QAEPAMXZ			; Vector::operator float *
	mov	esi, eax
	mov	eax, 4
	imul	edi, eax, 0
	lea	ecx, DWORD PTR _original$[ebp]
	call	??BVector@@QAEPAMXZ			; Vector::operator float *
	mov	ecx, 4
	imul	edx, ecx, 0
	movss	xmm0, DWORD PTR [esi+edi]
	subss	xmm0, DWORD PTR [eax+edx]
	movss	xmm1, DWORD PTR tv976[ebp]
	mulss	xmm1, xmm0
	lea	ecx, DWORD PTR _down$[ebp]
	movss	DWORD PTR tv978[ebp], xmm1
	call	??BVector@@QAEPAMXZ			; Vector::operator float *
	mov	esi, eax
	mov	edi, 4
	shl	edi, 0
	lea	ecx, DWORD PTR _original$[ebp]
	call	??BVector@@QAEPAMXZ			; Vector::operator float *
	mov	ecx, 4
	shl	ecx, 0
	movss	xmm0, DWORD PTR [esi+edi]
	subss	xmm0, DWORD PTR [eax+ecx]
	lea	ecx, DWORD PTR _down$[ebp]
	movss	DWORD PTR tv980[ebp], xmm0
	call	??BVector@@QAEPAMXZ			; Vector::operator float *
	mov	esi, eax
	mov	edi, 4
	shl	edi, 0
	lea	ecx, DWORD PTR _original$[ebp]
	call	??BVector@@QAEPAMXZ			; Vector::operator float *
	mov	edx, 4
	shl	edx, 0
	movss	xmm0, DWORD PTR [esi+edi]
	subss	xmm0, DWORD PTR [eax+edx]
	movss	xmm1, DWORD PTR tv980[ebp]
	mulss	xmm1, xmm0
	movss	xmm0, DWORD PTR tv978[ebp]
	addss	xmm0, xmm1
	movss	DWORD PTR _downdist$[ebp], xmm0

; 1636 : 	updist = (pmove->up[0] - original[0]) * (pmove->up[0] - original[0]) + (pmove->up[1] - original[1]) * (pmove->up[1] - original[1]);

	mov	ecx, DWORD PTR ?pmove@@3PAUplayermove_s@@A ; pmove
	add	ecx, 44					; 0000002cH
	call	??BVector@@QAEPAMXZ			; Vector::operator float *
	mov	esi, eax
	mov	eax, 4
	imul	edi, eax, 0
	lea	ecx, DWORD PTR _original$[ebp]
	call	??BVector@@QAEPAMXZ			; Vector::operator float *
	mov	ecx, 4
	imul	edx, ecx, 0
	movss	xmm0, DWORD PTR [esi+edi]
	subss	xmm0, DWORD PTR [eax+edx]
	mov	ecx, DWORD PTR ?pmove@@3PAUplayermove_s@@A ; pmove
	add	ecx, 44					; 0000002cH
	movss	DWORD PTR tv982[ebp], xmm0
	call	??BVector@@QAEPAMXZ			; Vector::operator float *
	mov	esi, eax
	mov	eax, 4
	imul	edi, eax, 0
	lea	ecx, DWORD PTR _original$[ebp]
	call	??BVector@@QAEPAMXZ			; Vector::operator float *
	mov	ecx, 4
	imul	edx, ecx, 0
	movss	xmm0, DWORD PTR [esi+edi]
	subss	xmm0, DWORD PTR [eax+edx]
	movss	xmm1, DWORD PTR tv982[ebp]
	mulss	xmm1, xmm0
	mov	ecx, DWORD PTR ?pmove@@3PAUplayermove_s@@A ; pmove
	add	ecx, 44					; 0000002cH
	movss	DWORD PTR tv984[ebp], xmm1
	call	??BVector@@QAEPAMXZ			; Vector::operator float *
	mov	esi, eax
	mov	edi, 4
	shl	edi, 0
	lea	ecx, DWORD PTR _original$[ebp]
	call	??BVector@@QAEPAMXZ			; Vector::operator float *
	mov	ecx, 4
	shl	ecx, 0
	movss	xmm0, DWORD PTR [esi+edi]
	subss	xmm0, DWORD PTR [eax+ecx]
	mov	ecx, DWORD PTR ?pmove@@3PAUplayermove_s@@A ; pmove
	add	ecx, 44					; 0000002cH
	movss	DWORD PTR tv986[ebp], xmm0
	call	??BVector@@QAEPAMXZ			; Vector::operator float *
	mov	esi, eax
	mov	edi, 4
	shl	edi, 0
	lea	ecx, DWORD PTR _original$[ebp]
	call	??BVector@@QAEPAMXZ			; Vector::operator float *
	mov	edx, 4
	shl	edx, 0
	movss	xmm0, DWORD PTR [esi+edi]
	subss	xmm0, DWORD PTR [eax+edx]
	movss	xmm1, DWORD PTR tv986[ebp]
	mulss	xmm1, xmm0
	movss	xmm0, DWORD PTR tv984[ebp]
	addss	xmm0, xmm1
	movss	DWORD PTR _updist$[ebp], xmm0

; 1637 : 
; 1638 : 	if( downdist > updist )

	movss	xmm0, DWORD PTR _downdist$[ebp]
	comiss	xmm0, DWORD PTR _updist$[ebp]
	jbe	SHORT $LN27@PM_WalkMov
$LN23@PM_WalkMov:
$LN25@PM_WalkMov:
$usedown$30:

; 1639 : 	{
; 1640 : usedown:
; 1641 : 		pmove->origin = down;

	mov	eax, DWORD PTR ?pmove@@3PAUplayermove_s@@A ; pmove
	add	eax, 56					; 00000038H
	mov	ecx, DWORD PTR _down$[ebp]
	mov	DWORD PTR [eax], ecx
	mov	edx, DWORD PTR _down$[ebp+4]
	mov	DWORD PTR [eax+4], edx
	mov	ecx, DWORD PTR _down$[ebp+8]
	mov	DWORD PTR [eax+8], ecx

; 1642 : 		pmove->velocity = downvel;

	mov	eax, DWORD PTR ?pmove@@3PAUplayermove_s@@A ; pmove
	add	eax, 92					; 0000005cH
	mov	ecx, DWORD PTR _downvel$[ebp]
	mov	DWORD PTR [eax], ecx
	mov	edx, DWORD PTR _downvel$[ebp+4]
	mov	DWORD PTR [eax+4], edx
	mov	ecx, DWORD PTR _downvel$[ebp+8]
	mov	DWORD PTR [eax+8], ecx

; 1643 : 	}
; 1644 : 	else

	jmp	SHORT $LN28@PM_WalkMov
$LN27@PM_WalkMov:

; 1645 : 	{
; 1646 : 		// copy z value from slide move
; 1647 : 		pmove->velocity.z = downvel.z;

	mov	eax, DWORD PTR ?pmove@@3PAUplayermove_s@@A ; pmove
	movss	xmm0, DWORD PTR _downvel$[ebp+8]
	movss	DWORD PTR [eax+100], xmm0
$LN28@PM_WalkMov:
$LN1@PM_WalkMov:

; 1648 : 	}
; 1649 : }

	pop	edi
	pop	esi
	pop	ebx
	mov	esp, ebp
	pop	ebp
	ret	0
?PM_WalkMove@@YAXXZ ENDP				; PM_WalkMove
_TEXT	ENDS
; Function compile flags: /Odtp /ZI
; File d:\!diffusion 2020\source code 2022\client-server\game_shared\playermove.cpp
;	COMDAT ?PM_Accelerate@@YAXVVector@@MM@Z
_TEXT	SEGMENT
tv92 = -84						; size = 4
_currentspeed$ = -16					; size = 4
_accelspeed$ = -12					; size = 4
_addspeed$ = -8						; size = 4
_i$ = -4						; size = 4
_wishdir$ = 8						; size = 12
_wishspeed$ = 20					; size = 4
_accel$ = 24						; size = 4
?PM_Accelerate@@YAXVVector@@MM@Z PROC			; PM_Accelerate, COMDAT

; 1414 : {

	push	ebp
	mov	ebp, esp
	sub	esp, 84					; 00000054H
	push	ebx
	push	esi
	push	edi

; 1415 : 	int			i;
; 1416 : 	float		addspeed, accelspeed, currentspeed;
; 1417 : 
; 1418 : 	// Dead player's don't accelerate
; 1419 : 	if (pmove->dead)

	mov	eax, DWORD PTR ?pmove@@3PAUplayermove_s@@A ; pmove
	cmp	DWORD PTR [eax+208], 0
	je	SHORT $LN5@PM_Acceler

; 1420 : 		return;

	jmp	$LN1@PM_Acceler
$LN5@PM_Acceler:

; 1421 : 
; 1422 : 	// If waterjumping, don't accelerate
; 1423 : 	if (pmove->waterjumptime)

	mov	eax, DWORD PTR ?pmove@@3PAUplayermove_s@@A ; pmove
	movss	xmm0, DWORD PTR [eax+204]
	ucomiss	xmm0, DWORD PTR __real@00000000
	lahf
	test	ah, 68					; 00000044H
	jnp	SHORT $LN6@PM_Acceler

; 1424 : 		return;

	jmp	$LN1@PM_Acceler
$LN6@PM_Acceler:

; 1425 : 
; 1426 : 	// See if we are changing direction a bit
; 1427 : 	currentspeed = DotProduct (pmove->velocity, wishdir);

	lea	eax, DWORD PTR _wishdir$[ebp]
	push	eax
	mov	ecx, DWORD PTR ?pmove@@3PAUplayermove_s@@A ; pmove
	add	ecx, 92					; 0000005cH
	push	ecx
	call	?DotProduct@@YAMABVVector@@0@Z		; DotProduct
	add	esp, 8
	fstp	DWORD PTR _currentspeed$[ebp]

; 1428 : 
; 1429 : 	// Reduce wishspeed by the amount of veer.
; 1430 : 	addspeed = wishspeed - currentspeed;

	movss	xmm0, DWORD PTR _wishspeed$[ebp]
	subss	xmm0, DWORD PTR _currentspeed$[ebp]
	movss	DWORD PTR _addspeed$[ebp], xmm0

; 1431 : 
; 1432 : 	// If not going to add any speed, done.
; 1433 : 	if (addspeed <= 0)

	xorps	xmm0, xmm0
	comiss	xmm0, DWORD PTR _addspeed$[ebp]
	jb	SHORT $LN7@PM_Acceler

; 1434 : 		return;

	jmp	$LN1@PM_Acceler
$LN7@PM_Acceler:

; 1435 : 
; 1436 : 	// Determine amount of accleration.
; 1437 : 	accelspeed = accel * pmove->frametime * wishspeed * pmove->friction;

	mov	eax, DWORD PTR ?pmove@@3PAUplayermove_s@@A ; pmove
	movss	xmm0, DWORD PTR _accel$[ebp]
	mulss	xmm0, DWORD PTR [eax+16]
	mulss	xmm0, DWORD PTR _wishspeed$[ebp]
	mov	ecx, DWORD PTR ?pmove@@3PAUplayermove_s@@A ; pmove
	mulss	xmm0, DWORD PTR [ecx+196]
	movss	DWORD PTR _accelspeed$[ebp], xmm0

; 1438 : 	
; 1439 : 	// Cap at addspeed
; 1440 : 	if (accelspeed > addspeed)

	movss	xmm0, DWORD PTR _accelspeed$[ebp]
	comiss	xmm0, DWORD PTR _addspeed$[ebp]
	jbe	SHORT $LN8@PM_Acceler

; 1441 : 		accelspeed = addspeed;

	movss	xmm0, DWORD PTR _addspeed$[ebp]
	movss	DWORD PTR _accelspeed$[ebp], xmm0
$LN8@PM_Acceler:

; 1442 : 	
; 1443 : 	// Adjust velocity.
; 1444 : 	for (i=0 ; i<3 ; i++)

	mov	DWORD PTR _i$[ebp], 0
	jmp	SHORT $LN4@PM_Acceler
$LN2@PM_Acceler:
	mov	eax, DWORD PTR _i$[ebp]
	add	eax, 1
	mov	DWORD PTR _i$[ebp], eax
$LN4@PM_Acceler:
	cmp	DWORD PTR _i$[ebp], 3
	jge	SHORT $LN3@PM_Acceler

; 1445 : 		pmove->velocity[i] += accelspeed * wishdir[i];

	mov	ecx, DWORD PTR ?pmove@@3PAUplayermove_s@@A ; pmove
	add	ecx, 92					; 0000005cH
	call	??BVector@@QAEPAMXZ			; Vector::operator float *
	mov	ecx, DWORD PTR _i$[ebp]
	lea	edx, DWORD PTR [eax+ecx*4]
	mov	DWORD PTR tv92[ebp], edx
	lea	ecx, DWORD PTR _wishdir$[ebp]
	call	??BVector@@QAEPAMXZ			; Vector::operator float *
	mov	ecx, DWORD PTR _i$[ebp]
	movss	xmm0, DWORD PTR _accelspeed$[ebp]
	mulss	xmm0, DWORD PTR [eax+ecx*4]
	mov	edx, DWORD PTR tv92[ebp]
	addss	xmm0, DWORD PTR [edx]
	mov	eax, DWORD PTR tv92[ebp]
	movss	DWORD PTR [eax], xmm0
	jmp	SHORT $LN2@PM_Acceler
$LN3@PM_Acceler:
$LN1@PM_Acceler:

; 1446 : }

	pop	edi
	pop	esi
	pop	ebx
	mov	esp, ebp
	pop	ebp
	ret	0
?PM_Accelerate@@YAXVVector@@MM@Z ENDP			; PM_Accelerate
_TEXT	ENDS
; Function compile flags: /Odtp /ZI
; File d:\!diffusion 2020\source code 2022\client-server\game_shared\playermove.cpp
;	COMDAT ?PM_FlyMove@@YAHXZ
_TEXT	SEGMENT
tv620 = -488						; size = 4
tv595 = -488						; size = 4
tv546 = -488						; size = 4
$T1 = -484						; size = 12
$T2 = -472						; size = 12
$T3 = -428						; size = 68
$T4 = -360						; size = 68
_bumpcount$5 = -228					; size = 4
_blocked$ = -224					; size = 4
_allFraction$ = -220					; size = 4
_time_left$ = -216					; size = 4
_end$ = -212						; size = 12
_trace$ = -200						; size = 68
_j$ = -132						; size = 4
_i$ = -128						; size = 4
_new_velocity$ = -124					; size = 12
_original_velocity$ = -112				; size = 12
_primal_velocity$ = -100				; size = 12
_planes$ = -88						; size = 60
_numplanes$ = -28					; size = 4
_d$ = -24						; size = 4
_dir$ = -20						; size = 12
_numbumps$ = -8						; size = 4
__$ArrayPad$ = -4					; size = 4
?PM_FlyMove@@YAHXZ PROC					; PM_FlyMove, COMDAT

; 1223 : {

	push	ebp
	mov	ebp, esp
	sub	esp, 488				; 000001e8H
	mov	eax, DWORD PTR ___security_cookie
	xor	eax, ebp
	mov	DWORD PTR __$ArrayPad$[ebp], eax
	push	ebx
	push	esi
	push	edi

; 1224 : 	int		numbumps;
; 1225 : 	Vector		dir;

	lea	ecx, DWORD PTR _dir$[ebp]
	call	??0Vector@@QAE@XZ			; Vector::Vector

; 1226 : 	float		d;
; 1227 : 	int			numplanes;
; 1228 : 	Vector		planes[MAX_CLIP_PLANES];

	push	OFFSET ??0Vector@@QAE@XZ		; Vector::Vector
	push	5
	push	12					; 0000000cH
	lea	eax, DWORD PTR _planes$[ebp]
	push	eax
	call	??_H@YGXPAXIIP6EPAX0@Z@Z

; 1229 : 	Vector		primal_velocity, original_velocity;

	lea	ecx, DWORD PTR _primal_velocity$[ebp]
	call	??0Vector@@QAE@XZ			; Vector::Vector
	lea	ecx, DWORD PTR _original_velocity$[ebp]
	call	??0Vector@@QAE@XZ			; Vector::Vector

; 1230 : 	Vector      new_velocity;

	lea	ecx, DWORD PTR _new_velocity$[ebp]
	call	??0Vector@@QAE@XZ			; Vector::Vector

; 1231 : 	int			i, j;
; 1232 : 	pmtrace_t	trace;

	lea	ecx, DWORD PTR _trace$[ebp]
	call	??0pmtrace_s@@QAE@XZ

; 1233 : 	Vector		end;

	lea	ecx, DWORD PTR _end$[ebp]
	call	??0Vector@@QAE@XZ			; Vector::Vector

; 1234 : 	float		time_left, allFraction;
; 1235 : 	int			blocked;
; 1236 : 		
; 1237 : 	numbumps  = 4;           // Bump up to four times

	mov	DWORD PTR _numbumps$[ebp], 4

; 1238 : 	
; 1239 : 	blocked   = 0;           // Assume not blocked

	mov	DWORD PTR _blocked$[ebp], 0

; 1240 : 	numplanes = 0;           //  and not sliding along any planes

	mov	DWORD PTR _numplanes$[ebp], 0

; 1241 : 	original_velocity = primal_velocity = pmove->velocity;  // Store original velocity

	mov	eax, DWORD PTR ?pmove@@3PAUplayermove_s@@A ; pmove
	add	eax, 92					; 0000005cH
	mov	ecx, DWORD PTR [eax]
	mov	DWORD PTR _primal_velocity$[ebp], ecx
	mov	edx, DWORD PTR [eax+4]
	mov	DWORD PTR _primal_velocity$[ebp+4], edx
	mov	eax, DWORD PTR [eax+8]
	mov	DWORD PTR _primal_velocity$[ebp+8], eax
	mov	ecx, DWORD PTR _primal_velocity$[ebp]
	mov	DWORD PTR _original_velocity$[ebp], ecx
	mov	edx, DWORD PTR _primal_velocity$[ebp+4]
	mov	DWORD PTR _original_velocity$[ebp+4], edx
	mov	eax, DWORD PTR _primal_velocity$[ebp+8]
	mov	DWORD PTR _original_velocity$[ebp+8], eax

; 1242 : 	
; 1243 : 	allFraction = 0;

	xorps	xmm0, xmm0
	movss	DWORD PTR _allFraction$[ebp], xmm0

; 1244 : 	time_left = pmove->frametime;   // Total time for this movement operation.

	mov	eax, DWORD PTR ?pmove@@3PAUplayermove_s@@A ; pmove
	movss	xmm0, DWORD PTR [eax+16]
	movss	DWORD PTR _time_left$[ebp], xmm0

; 1245 : 
; 1246 : 	for( int bumpcount = 0; bumpcount < numbumps; bumpcount++ )

	mov	DWORD PTR _bumpcount$5[ebp], 0
	jmp	SHORT $LN4@PM_FlyMove
$LN2@PM_FlyMove:
	mov	eax, DWORD PTR _bumpcount$5[ebp]
	add	eax, 1
	mov	DWORD PTR _bumpcount$5[ebp], eax
$LN4@PM_FlyMove:
	mov	eax, DWORD PTR _bumpcount$5[ebp]
	cmp	eax, DWORD PTR _numbumps$[ebp]
	jge	$LN3@PM_FlyMove

; 1247 : 	{
; 1248 : 		if( pmove->velocity == g_vecZero )

	push	OFFSET ?g_vecZero@@3VVector@@B		; g_vecZero
	mov	ecx, DWORD PTR ?pmove@@3PAUplayermove_s@@A ; pmove
	add	ecx, 92					; 0000005cH
	call	??8Vector@@QBEHABV0@@Z			; Vector::operator==
	test	eax, eax
	je	SHORT $LN17@PM_FlyMove

; 1249 : 			break;

	jmp	$LN3@PM_FlyMove
$LN17@PM_FlyMove:

; 1250 : 
; 1251 : 		// Assume we can move all the way from the current origin to the
; 1252 : 		//  end point.
; 1253 : 		for (i=0 ; i<3 ; i++)

	mov	DWORD PTR _i$[ebp], 0
	jmp	SHORT $LN7@PM_FlyMove
$LN5@PM_FlyMove:
	mov	eax, DWORD PTR _i$[ebp]
	add	eax, 1
	mov	DWORD PTR _i$[ebp], eax
$LN7@PM_FlyMove:
	cmp	DWORD PTR _i$[ebp], 3
	jge	SHORT $LN6@PM_FlyMove

; 1254 : 			end[i] = pmove->origin[i] + time_left * pmove->velocity[i];

	mov	ecx, DWORD PTR ?pmove@@3PAUplayermove_s@@A ; pmove
	add	ecx, 56					; 00000038H
	call	??BVector@@QAEPAMXZ			; Vector::operator float *
	mov	esi, eax
	mov	ecx, DWORD PTR ?pmove@@3PAUplayermove_s@@A ; pmove
	add	ecx, 92					; 0000005cH
	call	??BVector@@QAEPAMXZ			; Vector::operator float *
	mov	ecx, DWORD PTR _i$[ebp]
	movss	xmm0, DWORD PTR _time_left$[ebp]
	mulss	xmm0, DWORD PTR [eax+ecx*4]
	mov	edx, DWORD PTR _i$[ebp]
	addss	xmm0, DWORD PTR [esi+edx*4]
	lea	ecx, DWORD PTR _end$[ebp]
	movss	DWORD PTR tv620[ebp], xmm0
	call	??BVector@@QAEPAMXZ			; Vector::operator float *
	mov	ecx, DWORD PTR _i$[ebp]
	movss	xmm0, DWORD PTR tv620[ebp]
	movss	DWORD PTR [eax+ecx*4], xmm0
	jmp	SHORT $LN5@PM_FlyMove
$LN6@PM_FlyMove:

; 1255 : 
; 1256 : 		// See if we can make it from origin to end point.
; 1257 : 		trace = pmove->PM_PlayerTrace (pmove->origin, end, PM_NORMAL, -1 );

	push	-1
	push	0
	lea	ecx, DWORD PTR _end$[ebp]
	call	??BVector@@QAEPAMXZ			; Vector::operator float *
	push	eax
	mov	ecx, DWORD PTR ?pmove@@3PAUplayermove_s@@A ; pmove
	add	ecx, 56					; 00000038H
	call	??BVector@@QAEPAMXZ			; Vector::operator float *
	push	eax
	lea	eax, DWORD PTR $T3[ebp]
	push	eax
	mov	ecx, DWORD PTR ?pmove@@3PAUplayermove_s@@A ; pmove
	mov	edx, DWORD PTR [ecx+324992]
	call	edx
	add	esp, 20					; 00000014H
	mov	ecx, 17					; 00000011H
	mov	esi, eax
	lea	edi, DWORD PTR $T4[ebp]
	rep movsd
	mov	ecx, 17					; 00000011H
	lea	esi, DWORD PTR $T4[ebp]
	lea	edi, DWORD PTR _trace$[ebp]
	rep movsd

; 1258 : 
; 1259 : 		allFraction += trace.fraction;

	movss	xmm0, DWORD PTR _allFraction$[ebp]
	addss	xmm0, DWORD PTR _trace$[ebp+16]
	movss	DWORD PTR _allFraction$[ebp], xmm0

; 1260 : 
; 1261 : 		// If we started in a solid object, or we were in solid space
; 1262 : 		//  the whole way, zero out our velocity and return that we
; 1263 : 		//  are blocked by floor and wall.
; 1264 : 		if( trace.allsolid )

	cmp	DWORD PTR _trace$[ebp], 0
	je	SHORT $LN18@PM_FlyMove

; 1265 : 		{	
; 1266 : 			// entity is trapped in another solid
; 1267 : 			pmove->velocity = g_vecZero;

	mov	eax, DWORD PTR ?pmove@@3PAUplayermove_s@@A ; pmove
	add	eax, 92					; 0000005cH
	mov	ecx, DWORD PTR ?g_vecZero@@3VVector@@B
	mov	DWORD PTR [eax], ecx
	mov	edx, DWORD PTR ?g_vecZero@@3VVector@@B+4
	mov	DWORD PTR [eax+4], edx
	mov	ecx, DWORD PTR ?g_vecZero@@3VVector@@B+8
	mov	DWORD PTR [eax+8], ecx

; 1268 : 			pmove->flags |= FL_STUCKED;

	mov	eax, DWORD PTR ?pmove@@3PAUplayermove_s@@A ; pmove
	mov	ecx, DWORD PTR [eax+184]
	or	ecx, 134217728				; 08000000H
	mov	edx, DWORD PTR ?pmove@@3PAUplayermove_s@@A ; pmove
	mov	DWORD PTR [edx+184], ecx

; 1269 : 			return 4;

	mov	eax, 4
	jmp	$LN1@PM_FlyMove
$LN18@PM_FlyMove:

; 1270 : 		}
; 1271 : 
; 1272 : 		// If we moved some portion of the total distance, then
; 1273 : 		//  copy the end position into the pmove->origin and 
; 1274 : 		//  zero the plane counter.
; 1275 : 		if( trace.fraction > 0 )

	movss	xmm0, DWORD PTR _trace$[ebp+16]
	comiss	xmm0, DWORD PTR __real@00000000
	jbe	SHORT $LN19@PM_FlyMove

; 1276 : 		{	
; 1277 : 			// actually covered some distance
; 1278 : 			pmove->origin = trace.endpos;

	mov	eax, DWORD PTR ?pmove@@3PAUplayermove_s@@A ; pmove
	add	eax, 56					; 00000038H
	mov	ecx, DWORD PTR _trace$[ebp+20]
	mov	DWORD PTR [eax], ecx
	mov	edx, DWORD PTR _trace$[ebp+24]
	mov	DWORD PTR [eax+4], edx
	mov	ecx, DWORD PTR _trace$[ebp+28]
	mov	DWORD PTR [eax+8], ecx

; 1279 : 			original_velocity = pmove->velocity;

	mov	eax, DWORD PTR ?pmove@@3PAUplayermove_s@@A ; pmove
	add	eax, 92					; 0000005cH
	mov	ecx, DWORD PTR [eax]
	mov	DWORD PTR _original_velocity$[ebp], ecx
	mov	edx, DWORD PTR [eax+4]
	mov	DWORD PTR _original_velocity$[ebp+4], edx
	mov	eax, DWORD PTR [eax+8]
	mov	DWORD PTR _original_velocity$[ebp+8], eax

; 1280 : 			numplanes = 0;

	mov	DWORD PTR _numplanes$[ebp], 0
$LN19@PM_FlyMove:

; 1281 : 		}
; 1282 : 
; 1283 : 		// If we covered the entire distance, we are done
; 1284 : 		//  and can return.
; 1285 : 		if( trace.fraction == 1.0f )

	movss	xmm0, DWORD PTR _trace$[ebp+16]
	ucomiss	xmm0, DWORD PTR __real@3f800000
	lahf
	test	ah, 68					; 00000044H
	jp	SHORT $LN20@PM_FlyMove

; 1286 : 			 break; // moved the entire distance

	jmp	$LN3@PM_FlyMove
$LN20@PM_FlyMove:

; 1287 : 
; 1288 : 		//if (!trace.ent)
; 1289 : 		//	Sys_Error ("PM_PlayerTrace: !trace.ent");
; 1290 : 
; 1291 : 		// Save entity that blocked us (since fraction was < 1.0)
; 1292 : 		//  for contact
; 1293 : 		// Add it if it's not already in the list!!!
; 1294 : 		PM_AddToTouched( trace, pmove->velocity );

	mov	eax, DWORD PTR ?pmove@@3PAUplayermove_s@@A ; pmove
	add	eax, 92					; 0000005cH
	sub	esp, 12					; 0000000cH
	mov	ecx, esp
	push	eax
	call	??0Vector@@QAE@ABV0@@Z			; Vector::Vector
	sub	esp, 68					; 00000044H
	mov	ecx, esp
	lea	edx, DWORD PTR _trace$[ebp]
	push	edx
	call	??0pmtrace_s@@QAE@ABU0@@Z
	call	?PM_AddToTouched@@YAHUpmtrace_s@@VVector@@@Z ; PM_AddToTouched
	add	esp, 80					; 00000050H

; 1295 : 
; 1296 : 		// If the plane we hit has a high z component in the normal, then
; 1297 : 		//  it's probably a floor
; 1298 : 		if( trace.plane.normal[2] > 0.7f )

	lea	ecx, DWORD PTR _trace$[ebp+32]
	call	??BVector@@QAEPAMXZ			; Vector::operator float *
	mov	ecx, 4
	shl	ecx, 1
	movss	xmm0, DWORD PTR [eax+ecx]
	comiss	xmm0, DWORD PTR __real@3f333333
	jbe	SHORT $LN21@PM_FlyMove

; 1299 : 		{
; 1300 : 			blocked |= 1;		// floor

	mov	eax, DWORD PTR _blocked$[ebp]
	or	eax, 1
	mov	DWORD PTR _blocked$[ebp], eax
$LN21@PM_FlyMove:

; 1301 : 		}
; 1302 : 		// If the plane has a zero z component in the normal, then it's a 
; 1303 : 		//  step or wall
; 1304 : 		if( !trace.plane.normal.z )

	movss	xmm0, DWORD PTR _trace$[ebp+40]
	ucomiss	xmm0, DWORD PTR __real@00000000
	lahf
	test	ah, 68					; 00000044H
	jp	SHORT $LN22@PM_FlyMove

; 1305 : 		{
; 1306 : 			blocked |= 2; // step / wall

	mov	eax, DWORD PTR _blocked$[ebp]
	or	eax, 2
	mov	DWORD PTR _blocked$[ebp], eax
$LN22@PM_FlyMove:

; 1307 : 			//Con_DPrintf("Blocked by %i\n", trace.ent);
; 1308 : 		}
; 1309 : 
; 1310 : 		// Reduce amount of pmove->frametime left by total time left * fraction
; 1311 : 		//  that we covered.
; 1312 : 		time_left -= time_left * trace.fraction;

	movss	xmm0, DWORD PTR _time_left$[ebp]
	mulss	xmm0, DWORD PTR _trace$[ebp+16]
	movss	xmm1, DWORD PTR _time_left$[ebp]
	subss	xmm1, xmm0
	movss	DWORD PTR _time_left$[ebp], xmm1

; 1313 : 		
; 1314 : 		// Did we run out of planes to clip against?
; 1315 : 		if( numplanes >= MAX_CLIP_PLANES )

	cmp	DWORD PTR _numplanes$[ebp], 5
	jl	SHORT $LN23@PM_FlyMove

; 1316 : 		{	
; 1317 : 			// this shouldn't really happen
; 1318 : 			// Stop our movement if so.
; 1319 : 			pmove->velocity = g_vecZero;

	mov	eax, DWORD PTR ?pmove@@3PAUplayermove_s@@A ; pmove
	add	eax, 92					; 0000005cH
	mov	ecx, DWORD PTR ?g_vecZero@@3VVector@@B
	mov	DWORD PTR [eax], ecx
	mov	edx, DWORD PTR ?g_vecZero@@3VVector@@B+4
	mov	DWORD PTR [eax+4], edx
	mov	ecx, DWORD PTR ?g_vecZero@@3VVector@@B+8
	mov	DWORD PTR [eax+8], ecx

; 1320 : //			pmove->Con_Printf( "Too many planes 4\n" );
; 1321 : 			break;

	jmp	$LN3@PM_FlyMove
$LN23@PM_FlyMove:

; 1322 : 		}
; 1323 : 
; 1324 : 		// Set up next clipping plane
; 1325 : 		planes[numplanes] = trace.plane.normal;

	imul	eax, DWORD PTR _numplanes$[ebp], 12
	lea	ecx, DWORD PTR _planes$[ebp+eax]
	mov	edx, DWORD PTR _trace$[ebp+32]
	mov	DWORD PTR [ecx], edx
	mov	eax, DWORD PTR _trace$[ebp+36]
	mov	DWORD PTR [ecx+4], eax
	mov	edx, DWORD PTR _trace$[ebp+40]
	mov	DWORD PTR [ecx+8], edx

; 1326 : 		numplanes++;

	mov	eax, DWORD PTR _numplanes$[ebp]
	add	eax, 1
	mov	DWORD PTR _numplanes$[ebp], eax

; 1327 : //
; 1328 : 
; 1329 : // modify original_velocity so it parallels all of the clip planes
; 1330 : //
; 1331 : 		if ( pmove->movetype == MOVETYPE_WALK && ((pmove->onground == -1) || (pmove->friction != 1)) )	// reflect player velocity

	mov	eax, DWORD PTR ?pmove@@3PAUplayermove_s@@A ; pmove
	cmp	DWORD PTR [eax+220], 3
	jne	$LN24@PM_FlyMove
	mov	eax, DWORD PTR ?pmove@@3PAUplayermove_s@@A ; pmove
	cmp	DWORD PTR [eax+224], -1
	je	SHORT $LN26@PM_FlyMove
	mov	eax, DWORD PTR ?pmove@@3PAUplayermove_s@@A ; pmove
	movss	xmm0, DWORD PTR [eax+196]
	ucomiss	xmm0, DWORD PTR __real@3f800000
	lahf
	test	ah, 68					; 00000044H
	jnp	$LN24@PM_FlyMove
$LN26@PM_FlyMove:

; 1332 : 		{
; 1333 : 			for( i = 0; i < numplanes; i++ )

	mov	DWORD PTR _i$[ebp], 0
	jmp	SHORT $LN10@PM_FlyMove
$LN8@PM_FlyMove:
	mov	eax, DWORD PTR _i$[ebp]
	add	eax, 1
	mov	DWORD PTR _i$[ebp], eax
$LN10@PM_FlyMove:
	mov	eax, DWORD PTR _i$[ebp]
	cmp	eax, DWORD PTR _numplanes$[ebp]
	jge	$LN9@PM_FlyMove

; 1334 : 			{
; 1335 : 				if ( planes[i][2] > 0.7  )

	imul	eax, DWORD PTR _i$[ebp], 12
	lea	ecx, DWORD PTR _planes$[ebp+eax]
	call	??BVector@@QAEPAMXZ			; Vector::operator float *
	mov	ecx, 4
	shl	ecx, 1
	cvtss2sd xmm0, DWORD PTR [eax+ecx]
	comisd	xmm0, QWORD PTR __real@3fe6666666666666
	jbe	SHORT $LN27@PM_FlyMove

; 1336 : 				{// floor or slope
; 1337 : 					PM_ClipVelocity( original_velocity, planes[i], new_velocity, 1 );

	push	ecx
	movss	xmm0, DWORD PTR __real@3f800000
	movss	DWORD PTR [esp], xmm0
	lea	eax, DWORD PTR _new_velocity$[ebp]
	push	eax
	imul	ecx, DWORD PTR _i$[ebp], 12
	lea	edx, DWORD PTR _planes$[ebp+ecx]
	sub	esp, 12					; 0000000cH
	mov	ecx, esp
	push	edx
	call	??0Vector@@QAE@ABV0@@Z			; Vector::Vector
	sub	esp, 12					; 0000000cH
	mov	ecx, esp
	lea	eax, DWORD PTR _original_velocity$[ebp]
	push	eax
	call	??0Vector@@QAE@ABV0@@Z			; Vector::Vector
	call	?PM_ClipVelocity@@YAHVVector@@0AAV1@M@Z	; PM_ClipVelocity
	add	esp, 32					; 00000020H

; 1338 : 					original_velocity = new_velocity;

	mov	eax, DWORD PTR _new_velocity$[ebp]
	mov	DWORD PTR _original_velocity$[ebp], eax
	mov	ecx, DWORD PTR _new_velocity$[ebp+4]
	mov	DWORD PTR _original_velocity$[ebp+4], ecx
	mov	edx, DWORD PTR _new_velocity$[ebp+8]
	mov	DWORD PTR _original_velocity$[ebp+8], edx

; 1339 : 				}
; 1340 : 				else															

	jmp	SHORT $LN28@PM_FlyMove
$LN27@PM_FlyMove:

; 1341 : 					PM_ClipVelocity( original_velocity, planes[i], new_velocity, 1.0 + pmove->movevars->bounce * (1-pmove->friction) );

	mov	eax, DWORD PTR ?pmove@@3PAUplayermove_s@@A ; pmove
	mov	ecx, DWORD PTR [eax+324848]
	mov	edx, DWORD PTR ?pmove@@3PAUplayermove_s@@A ; pmove
	movss	xmm0, DWORD PTR __real@3f800000
	subss	xmm0, DWORD PTR [edx+196]
	mulss	xmm0, DWORD PTR [ecx+44]
	cvtss2sd xmm0, xmm0
	addsd	xmm0, QWORD PTR __real@3ff0000000000000
	cvtsd2ss xmm0, xmm0
	push	ecx
	movss	DWORD PTR [esp], xmm0
	lea	eax, DWORD PTR _new_velocity$[ebp]
	push	eax
	imul	ecx, DWORD PTR _i$[ebp], 12
	lea	edx, DWORD PTR _planes$[ebp+ecx]
	sub	esp, 12					; 0000000cH
	mov	ecx, esp
	push	edx
	call	??0Vector@@QAE@ABV0@@Z			; Vector::Vector
	sub	esp, 12					; 0000000cH
	mov	ecx, esp
	lea	eax, DWORD PTR _original_velocity$[ebp]
	push	eax
	call	??0Vector@@QAE@ABV0@@Z			; Vector::Vector
	call	?PM_ClipVelocity@@YAHVVector@@0AAV1@M@Z	; PM_ClipVelocity
	add	esp, 32					; 00000020H
$LN28@PM_FlyMove:

; 1342 : 			}

	jmp	$LN8@PM_FlyMove
$LN9@PM_FlyMove:

; 1343 : 
; 1344 : 			pmove->velocity = original_velocity = new_velocity;

	mov	eax, DWORD PTR _new_velocity$[ebp]
	mov	DWORD PTR _original_velocity$[ebp], eax
	mov	ecx, DWORD PTR _new_velocity$[ebp+4]
	mov	DWORD PTR _original_velocity$[ebp+4], ecx
	mov	edx, DWORD PTR _new_velocity$[ebp+8]
	mov	DWORD PTR _original_velocity$[ebp+8], edx
	mov	eax, DWORD PTR ?pmove@@3PAUplayermove_s@@A ; pmove
	add	eax, 92					; 0000005cH
	mov	ecx, DWORD PTR _original_velocity$[ebp]
	mov	DWORD PTR [eax], ecx
	mov	edx, DWORD PTR _original_velocity$[ebp+4]
	mov	DWORD PTR [eax+4], edx
	mov	ecx, DWORD PTR _original_velocity$[ebp+8]
	mov	DWORD PTR [eax+8], ecx

; 1345 : 		}
; 1346 : 		else

	jmp	$LN35@PM_FlyMove
$LN24@PM_FlyMove:

; 1347 : 		{
; 1348 : 			for (i=0 ; i<numplanes ; i++)

	mov	DWORD PTR _i$[ebp], 0
	jmp	SHORT $LN13@PM_FlyMove
$LN11@PM_FlyMove:
	mov	eax, DWORD PTR _i$[ebp]
	add	eax, 1
	mov	DWORD PTR _i$[ebp], eax
$LN13@PM_FlyMove:
	mov	eax, DWORD PTR _i$[ebp]
	cmp	eax, DWORD PTR _numplanes$[ebp]
	jge	$LN12@PM_FlyMove

; 1349 : 			{
; 1350 : 				PM_ClipVelocity (

	push	ecx
	movss	xmm0, DWORD PTR __real@3f800000
	movss	DWORD PTR [esp], xmm0
	mov	eax, DWORD PTR ?pmove@@3PAUplayermove_s@@A ; pmove
	add	eax, 92					; 0000005cH
	push	eax
	imul	ecx, DWORD PTR _i$[ebp], 12
	lea	edx, DWORD PTR _planes$[ebp+ecx]
	sub	esp, 12					; 0000000cH
	mov	ecx, esp
	push	edx
	call	??0Vector@@QAE@ABV0@@Z			; Vector::Vector
	sub	esp, 12					; 0000000cH
	mov	ecx, esp
	lea	eax, DWORD PTR _original_velocity$[ebp]
	push	eax
	call	??0Vector@@QAE@ABV0@@Z			; Vector::Vector
	call	?PM_ClipVelocity@@YAHVVector@@0AAV1@M@Z	; PM_ClipVelocity
	add	esp, 32					; 00000020H

; 1351 : 					original_velocity,
; 1352 : 					planes[i],
; 1353 : 					pmove->velocity,
; 1354 : 					1);
; 1355 : 				for (j=0 ; j<numplanes ; j++)

	mov	DWORD PTR _j$[ebp], 0
	jmp	SHORT $LN16@PM_FlyMove
$LN14@PM_FlyMove:
	mov	eax, DWORD PTR _j$[ebp]
	add	eax, 1
	mov	DWORD PTR _j$[ebp], eax
$LN16@PM_FlyMove:
	mov	eax, DWORD PTR _j$[ebp]
	cmp	eax, DWORD PTR _numplanes$[ebp]
	jge	SHORT $LN15@PM_FlyMove

; 1356 : 					if (j != i)

	mov	eax, DWORD PTR _j$[ebp]
	cmp	eax, DWORD PTR _i$[ebp]
	je	SHORT $LN30@PM_FlyMove

; 1357 : 					{
; 1358 : 						// Are we now moving against this plane?
; 1359 : 						if (DotProduct (pmove->velocity, planes[j]) < 0)

	imul	eax, DWORD PTR _j$[ebp], 12
	lea	ecx, DWORD PTR _planes$[ebp+eax]
	push	ecx
	mov	edx, DWORD PTR ?pmove@@3PAUplayermove_s@@A ; pmove
	add	edx, 92					; 0000005cH
	push	edx
	call	?DotProduct@@YAMABVVector@@0@Z		; DotProduct
	add	esp, 8
	fstp	DWORD PTR tv546[ebp]
	xorps	xmm0, xmm0
	comiss	xmm0, DWORD PTR tv546[ebp]
	jbe	SHORT $LN30@PM_FlyMove

; 1360 : 							break;	// not ok

	jmp	SHORT $LN15@PM_FlyMove
$LN30@PM_FlyMove:

; 1361 : 					}

	jmp	SHORT $LN14@PM_FlyMove
$LN15@PM_FlyMove:

; 1362 : 				if (j == numplanes)  // Didn't have to clip, so we're ok

	mov	eax, DWORD PTR _j$[ebp]
	cmp	eax, DWORD PTR _numplanes$[ebp]
	jne	SHORT $LN31@PM_FlyMove

; 1363 : 					break;

	jmp	SHORT $LN12@PM_FlyMove
$LN31@PM_FlyMove:

; 1364 : 			}

	jmp	$LN11@PM_FlyMove
$LN12@PM_FlyMove:

; 1365 : 			
; 1366 : 			// Did we go all the way through plane set
; 1367 : 			if( i != numplanes )

	mov	eax, DWORD PTR _i$[ebp]
	cmp	eax, DWORD PTR _numplanes$[ebp]
	je	SHORT $LN32@PM_FlyMove

; 1368 : 			{	
; 1369 : 				// go along this plane
; 1370 : 				// pmove->velocity is set in clipping call, no need to set again.
; 1371 : 				;  
; 1372 : 			}
; 1373 : 			else

	jmp	$LN33@PM_FlyMove
$LN32@PM_FlyMove:

; 1374 : 			{	// go along the crease
; 1375 : 				if( numplanes != 2 )

	cmp	DWORD PTR _numplanes$[ebp], 2
	je	SHORT $LN34@PM_FlyMove

; 1376 : 				{
; 1377 : 					//Con_Printf ("clip velocity, numplanes == %i\n",numplanes);
; 1378 : 					pmove->velocity = g_vecZero;

	mov	eax, DWORD PTR ?pmove@@3PAUplayermove_s@@A ; pmove
	add	eax, 92					; 0000005cH
	mov	ecx, DWORD PTR ?g_vecZero@@3VVector@@B
	mov	DWORD PTR [eax], ecx
	mov	edx, DWORD PTR ?g_vecZero@@3VVector@@B+4
	mov	DWORD PTR [eax+4], edx
	mov	ecx, DWORD PTR ?g_vecZero@@3VVector@@B+8
	mov	DWORD PTR [eax+8], ecx

; 1379 : 					//Con_DPrintf("Trapped 4\n");
; 1380 : 
; 1381 : 					break;

	jmp	$LN3@PM_FlyMove
$LN34@PM_FlyMove:

; 1382 : 				}
; 1383 : 				dir = CrossProduct (planes[0], planes[1]);

	mov	eax, 12					; 0000000cH
	shl	eax, 0
	lea	ecx, DWORD PTR _planes$[ebp+eax]
	push	ecx
	mov	edx, 12					; 0000000cH
	imul	eax, edx, 0
	lea	ecx, DWORD PTR _planes$[ebp+eax]
	push	ecx
	lea	edx, DWORD PTR $T2[ebp]
	push	edx
	call	?CrossProduct@@YA?AVVector@@ABV1@0@Z	; CrossProduct
	add	esp, 12					; 0000000cH
	mov	ecx, DWORD PTR [eax]
	mov	DWORD PTR _dir$[ebp], ecx
	mov	edx, DWORD PTR [eax+4]
	mov	DWORD PTR _dir$[ebp+4], edx
	mov	eax, DWORD PTR [eax+8]
	mov	DWORD PTR _dir$[ebp+8], eax

; 1384 : 				d = DotProduct (dir, pmove->velocity);

	mov	eax, DWORD PTR ?pmove@@3PAUplayermove_s@@A ; pmove
	add	eax, 92					; 0000005cH
	push	eax
	lea	ecx, DWORD PTR _dir$[ebp]
	push	ecx
	call	?DotProduct@@YAMABVVector@@0@Z		; DotProduct
	add	esp, 8
	fstp	DWORD PTR _d$[ebp]

; 1385 : 				pmove->velocity = dir * d;

	push	ecx
	movss	xmm0, DWORD PTR _d$[ebp]
	movss	DWORD PTR [esp], xmm0
	lea	eax, DWORD PTR $T1[ebp]
	push	eax
	lea	ecx, DWORD PTR _dir$[ebp]
	call	??DVector@@QBE?AV0@M@Z			; Vector::operator*
	mov	ecx, DWORD PTR ?pmove@@3PAUplayermove_s@@A ; pmove
	add	ecx, 92					; 0000005cH
	mov	edx, DWORD PTR [eax]
	mov	DWORD PTR [ecx], edx
	mov	edx, DWORD PTR [eax+4]
	mov	DWORD PTR [ecx+4], edx
	mov	eax, DWORD PTR [eax+8]
	mov	DWORD PTR [ecx+8], eax
$LN33@PM_FlyMove:

; 1386 : 			}
; 1387 : 
; 1388 : 			// if original velocity is against the original velocity, stop dead
; 1389 : 			// to avoid tiny occilations in sloping corners
; 1390 : 			if( DotProduct( pmove->velocity, primal_velocity ) <= 0.0f )

	lea	eax, DWORD PTR _primal_velocity$[ebp]
	push	eax
	mov	ecx, DWORD PTR ?pmove@@3PAUplayermove_s@@A ; pmove
	add	ecx, 92					; 0000005cH
	push	ecx
	call	?DotProduct@@YAMABVVector@@0@Z		; DotProduct
	add	esp, 8
	fstp	DWORD PTR tv595[ebp]
	xorps	xmm0, xmm0
	comiss	xmm0, DWORD PTR tv595[ebp]
	jb	SHORT $LN35@PM_FlyMove

; 1391 : 			{
; 1392 : 				//Con_DPrintf("Back\n");
; 1393 : 				pmove->velocity = g_vecZero;

	mov	eax, DWORD PTR ?pmove@@3PAUplayermove_s@@A ; pmove
	add	eax, 92					; 0000005cH
	mov	ecx, DWORD PTR ?g_vecZero@@3VVector@@B
	mov	DWORD PTR [eax], ecx
	mov	edx, DWORD PTR ?g_vecZero@@3VVector@@B+4
	mov	DWORD PTR [eax+4], edx
	mov	ecx, DWORD PTR ?g_vecZero@@3VVector@@B+8
	mov	DWORD PTR [eax+8], ecx

; 1394 : 				break;

	jmp	SHORT $LN3@PM_FlyMove
$LN35@PM_FlyMove:

; 1395 : 			}
; 1396 : 		}
; 1397 : 	}

	jmp	$LN2@PM_FlyMove
$LN3@PM_FlyMove:

; 1398 : 
; 1399 : 	if( allFraction == 0.0f )

	movss	xmm0, DWORD PTR _allFraction$[ebp]
	ucomiss	xmm0, DWORD PTR __real@00000000
	lahf
	test	ah, 68					; 00000044H
	jp	SHORT $LN36@PM_FlyMove

; 1400 : 	{
; 1401 : 		pmove->velocity = g_vecZero;

	mov	eax, DWORD PTR ?pmove@@3PAUplayermove_s@@A ; pmove
	add	eax, 92					; 0000005cH
	mov	ecx, DWORD PTR ?g_vecZero@@3VVector@@B
	mov	DWORD PTR [eax], ecx
	mov	edx, DWORD PTR ?g_vecZero@@3VVector@@B+4
	mov	DWORD PTR [eax+4], edx
	mov	ecx, DWORD PTR ?g_vecZero@@3VVector@@B+8
	mov	DWORD PTR [eax+8], ecx
$LN36@PM_FlyMove:

; 1402 : //		pmove->Con_Printf( "Don't stick\n" );
; 1403 : 	}
; 1404 : 
; 1405 : 	return blocked;

	mov	eax, DWORD PTR _blocked$[ebp]
$LN1@PM_FlyMove:

; 1406 : }

	pop	edi
	pop	esi
	pop	ebx
	mov	ecx, DWORD PTR __$ArrayPad$[ebp]
	xor	ecx, ebp
	call	@__security_check_cookie@4
	mov	esp, ebp
	pop	ebp
	ret	0
?PM_FlyMove@@YAHXZ ENDP					; PM_FlyMove
_TEXT	ENDS
; Function compile flags: /Odtp /ZI
; File d:\!diffusion 2020\source code 2022\client-server\game_shared\playermove.cpp
;	COMDAT ?PM_FixupGravityVelocity@@YAXXZ
_TEXT	SEGMENT
tv81 = -72						; size = 4
_ent_gravity$ = -4					; size = 4
?PM_FixupGravityVelocity@@YAXXZ PROC			; PM_FixupGravityVelocity, COMDAT

; 1198 : {

	push	ebp
	mov	ebp, esp
	sub	esp, 72					; 00000048H
	push	ebx
	push	esi
	push	edi

; 1199 : 	float	ent_gravity;
; 1200 : 
; 1201 : 	if ( pmove->waterjumptime )

	mov	eax, DWORD PTR ?pmove@@3PAUplayermove_s@@A ; pmove
	movss	xmm0, DWORD PTR [eax+204]
	ucomiss	xmm0, DWORD PTR __real@00000000
	lahf
	test	ah, 68					; 00000044H
	jnp	SHORT $LN2@PM_FixupGr

; 1202 : 		return;

	jmp	$LN1@PM_FixupGr
$LN2@PM_FixupGr:

; 1203 : 
; 1204 : 	if (pmove->gravity)

	mov	eax, DWORD PTR ?pmove@@3PAUplayermove_s@@A ; pmove
	movss	xmm0, DWORD PTR [eax+192]
	ucomiss	xmm0, DWORD PTR __real@00000000
	lahf
	test	ah, 68					; 00000044H
	jnp	SHORT $LN3@PM_FixupGr

; 1205 : 		ent_gravity = pmove->gravity;

	mov	eax, DWORD PTR ?pmove@@3PAUplayermove_s@@A ; pmove
	movss	xmm0, DWORD PTR [eax+192]
	movss	DWORD PTR _ent_gravity$[ebp], xmm0

; 1206 : 	else

	jmp	SHORT $LN4@PM_FixupGr
$LN3@PM_FixupGr:

; 1207 : 		ent_gravity = 1.0;

	movss	xmm0, DWORD PTR __real@3f800000
	movss	DWORD PTR _ent_gravity$[ebp], xmm0
$LN4@PM_FixupGr:

; 1208 : 
; 1209 : 	// Get the correct velocity for the end of the dt 
; 1210 :   	pmove->velocity[2] -= (ent_gravity * pmove->movevars->gravity * pmove->frametime * 0.5 );

	mov	ecx, DWORD PTR ?pmove@@3PAUplayermove_s@@A ; pmove
	add	ecx, 92					; 0000005cH
	call	??BVector@@QAEPAMXZ			; Vector::operator float *
	mov	ecx, 4
	shl	ecx, 1
	add	eax, ecx
	mov	DWORD PTR tv81[ebp], eax
	mov	edx, DWORD PTR ?pmove@@3PAUplayermove_s@@A ; pmove
	mov	eax, DWORD PTR [edx+324848]
	movss	xmm0, DWORD PTR _ent_gravity$[ebp]
	mulss	xmm0, DWORD PTR [eax]
	mov	ecx, DWORD PTR ?pmove@@3PAUplayermove_s@@A ; pmove
	mulss	xmm0, DWORD PTR [ecx+16]
	cvtss2sd xmm0, xmm0
	mulsd	xmm0, QWORD PTR __real@3fe0000000000000
	mov	edx, DWORD PTR tv81[ebp]
	cvtss2sd xmm1, DWORD PTR [edx]
	subsd	xmm1, xmm0
	cvtsd2ss xmm0, xmm1
	mov	eax, DWORD PTR tv81[ebp]
	movss	DWORD PTR [eax], xmm0

; 1211 : 
; 1212 : 	PM_CheckVelocity();

	call	?PM_CheckVelocity@@YAXXZ		; PM_CheckVelocity
$LN1@PM_FixupGr:

; 1213 : }

	pop	edi
	pop	esi
	pop	ebx
	mov	esp, ebp
	pop	ebp
	ret	0
?PM_FixupGravityVelocity@@YAXXZ ENDP			; PM_FixupGravityVelocity
_TEXT	ENDS
; Function compile flags: /Odtp /ZI
; File d:\!diffusion 2020\source code 2022\client-server\game_shared\playermove.cpp
;	COMDAT ?PM_AddCorrectGravity@@YAXXZ
_TEXT	SEGMENT
tv130 = -72						; size = 4
tv82 = -72						; size = 4
_ent_gravity$ = -4					; size = 4
?PM_AddCorrectGravity@@YAXXZ PROC			; PM_AddCorrectGravity, COMDAT

; 1176 : {

	push	ebp
	mov	ebp, esp
	sub	esp, 72					; 00000048H
	push	ebx
	push	esi
	push	edi

; 1177 : 	float	ent_gravity;
; 1178 : 
; 1179 : 	if ( pmove->waterjumptime )

	mov	eax, DWORD PTR ?pmove@@3PAUplayermove_s@@A ; pmove
	movss	xmm0, DWORD PTR [eax+204]
	ucomiss	xmm0, DWORD PTR __real@00000000
	lahf
	test	ah, 68					; 00000044H
	jnp	SHORT $LN2@PM_AddCorr

; 1180 : 		return;

	jmp	$LN1@PM_AddCorr
$LN2@PM_AddCorr:

; 1181 : 
; 1182 : 	if (pmove->gravity)

	mov	eax, DWORD PTR ?pmove@@3PAUplayermove_s@@A ; pmove
	movss	xmm0, DWORD PTR [eax+192]
	ucomiss	xmm0, DWORD PTR __real@00000000
	lahf
	test	ah, 68					; 00000044H
	jnp	SHORT $LN3@PM_AddCorr

; 1183 : 		ent_gravity = pmove->gravity;

	mov	eax, DWORD PTR ?pmove@@3PAUplayermove_s@@A ; pmove
	movss	xmm0, DWORD PTR [eax+192]
	movss	DWORD PTR _ent_gravity$[ebp], xmm0

; 1184 : 	else

	jmp	SHORT $LN4@PM_AddCorr
$LN3@PM_AddCorr:

; 1185 : 		ent_gravity = 1.0;

	movss	xmm0, DWORD PTR __real@3f800000
	movss	DWORD PTR _ent_gravity$[ebp], xmm0
$LN4@PM_AddCorr:

; 1186 : 
; 1187 : 	// Add gravity so they'll be in the correct position during movement
; 1188 : 	// yes, this 0.5 looks wrong, but it's not.  
; 1189 : 	pmove->velocity[2] -= (ent_gravity * pmove->movevars->gravity * 0.5 * pmove->frametime );

	mov	ecx, DWORD PTR ?pmove@@3PAUplayermove_s@@A ; pmove
	add	ecx, 92					; 0000005cH
	call	??BVector@@QAEPAMXZ			; Vector::operator float *
	mov	ecx, 4
	shl	ecx, 1
	add	eax, ecx
	mov	DWORD PTR tv82[ebp], eax
	mov	edx, DWORD PTR ?pmove@@3PAUplayermove_s@@A ; pmove
	mov	eax, DWORD PTR [edx+324848]
	movss	xmm0, DWORD PTR _ent_gravity$[ebp]
	mulss	xmm0, DWORD PTR [eax]
	cvtss2sd xmm0, xmm0
	mulsd	xmm0, QWORD PTR __real@3fe0000000000000
	mov	ecx, DWORD PTR ?pmove@@3PAUplayermove_s@@A ; pmove
	cvtss2sd xmm1, DWORD PTR [ecx+16]
	mulsd	xmm0, xmm1
	mov	edx, DWORD PTR tv82[ebp]
	cvtss2sd xmm1, DWORD PTR [edx]
	subsd	xmm1, xmm0
	cvtsd2ss xmm0, xmm1
	mov	eax, DWORD PTR tv82[ebp]
	movss	DWORD PTR [eax], xmm0

; 1190 : 	pmove->velocity[2] += pmove->basevelocity[2] * pmove->frametime;

	mov	ecx, DWORD PTR ?pmove@@3PAUplayermove_s@@A ; pmove
	add	ecx, 92					; 0000005cH
	call	??BVector@@QAEPAMXZ			; Vector::operator float *
	mov	ecx, 4
	shl	ecx, 1
	add	eax, ecx
	mov	DWORD PTR tv130[ebp], eax
	mov	ecx, DWORD PTR ?pmove@@3PAUplayermove_s@@A ; pmove
	add	ecx, 116				; 00000074H
	call	??BVector@@QAEPAMXZ			; Vector::operator float *
	mov	edx, 4
	shl	edx, 1
	mov	ecx, DWORD PTR ?pmove@@3PAUplayermove_s@@A ; pmove
	movss	xmm0, DWORD PTR [eax+edx]
	mulss	xmm0, DWORD PTR [ecx+16]
	mov	edx, DWORD PTR tv130[ebp]
	addss	xmm0, DWORD PTR [edx]
	mov	eax, DWORD PTR tv130[ebp]
	movss	DWORD PTR [eax], xmm0

; 1191 : 	pmove->basevelocity[2] = 0;

	mov	ecx, DWORD PTR ?pmove@@3PAUplayermove_s@@A ; pmove
	add	ecx, 116				; 00000074H
	call	??BVector@@QAEPAMXZ			; Vector::operator float *
	mov	ecx, 4
	shl	ecx, 1
	xorps	xmm0, xmm0
	movss	DWORD PTR [eax+ecx], xmm0

; 1192 : 
; 1193 : 	PM_CheckVelocity();

	call	?PM_CheckVelocity@@YAXXZ		; PM_CheckVelocity
$LN1@PM_AddCorr:

; 1194 : }

	pop	edi
	pop	esi
	pop	ebx
	mov	esp, ebp
	pop	ebp
	ret	0
?PM_AddCorrectGravity@@YAXXZ ENDP			; PM_AddCorrectGravity
_TEXT	ENDS
; Function compile flags: /Odtp /ZI
; File d:\!diffusion 2020\source code 2022\client-server\game_shared\playermove.cpp
;	COMDAT ?PM_ClipVelocity@@YAHVVector@@0AAV1@M@Z
_TEXT	SEGMENT
tv173 = -88						; size = 4
tv152 = -88						; size = 4
_blocked$ = -20						; size = 4
_i$ = -16						; size = 4
_angle$ = -12						; size = 4
_change$ = -8						; size = 4
_backoff$ = -4						; size = 4
_in$ = 8						; size = 12
_normal$ = 20						; size = 12
_out$ = 32						; size = 4
_overbounce$ = 36					; size = 4
?PM_ClipVelocity@@YAHVVector@@0AAV1@M@Z PROC		; PM_ClipVelocity, COMDAT

; 1144 : {

	push	ebp
	mov	ebp, esp
	sub	esp, 88					; 00000058H
	push	ebx
	push	esi
	push	edi

; 1145 : 	float	backoff;
; 1146 : 	float	change;
; 1147 : 	float angle;
; 1148 : 	int		i, blocked;
; 1149 : 	
; 1150 : 	angle = normal[ 2 ];

	lea	ecx, DWORD PTR _normal$[ebp]
	call	??BVector@@QAEPAMXZ			; Vector::operator float *
	mov	ecx, 4
	shl	ecx, 1
	movss	xmm0, DWORD PTR [eax+ecx]
	movss	DWORD PTR _angle$[ebp], xmm0

; 1151 : 
; 1152 : 	blocked = 0x00;            // Assume unblocked.

	mov	DWORD PTR _blocked$[ebp], 0

; 1153 : 	if (angle > 0)      // If the plane that is blocking us has a positive z component, then assume it's a floor.

	movss	xmm0, DWORD PTR _angle$[ebp]
	comiss	xmm0, DWORD PTR __real@00000000
	jbe	SHORT $LN5@PM_ClipVel

; 1154 : 		blocked |= 0x01;		// 

	mov	eax, DWORD PTR _blocked$[ebp]
	or	eax, 1
	mov	DWORD PTR _blocked$[ebp], eax
$LN5@PM_ClipVel:

; 1155 : 	if (!angle)         // If the plane has no Z, it is vertical (wall/step)

	movss	xmm0, DWORD PTR _angle$[ebp]
	ucomiss	xmm0, DWORD PTR __real@00000000
	lahf
	test	ah, 68					; 00000044H
	jp	SHORT $LN6@PM_ClipVel

; 1156 : 		blocked |= 0x02;		// 

	mov	eax, DWORD PTR _blocked$[ebp]
	or	eax, 2
	mov	DWORD PTR _blocked$[ebp], eax
$LN6@PM_ClipVel:

; 1157 : 	
; 1158 : 	// Determine how far along plane to slide based on incoming direction.
; 1159 : 	// Scale by overbounce factor.
; 1160 : 	backoff = DotProduct (in, normal) * overbounce;

	lea	eax, DWORD PTR _normal$[ebp]
	push	eax
	lea	ecx, DWORD PTR _in$[ebp]
	push	ecx
	call	?DotProduct@@YAMABVVector@@0@Z		; DotProduct
	add	esp, 8
	fstp	DWORD PTR tv152[ebp]
	movss	xmm0, DWORD PTR tv152[ebp]
	mulss	xmm0, DWORD PTR _overbounce$[ebp]
	movss	DWORD PTR _backoff$[ebp], xmm0

; 1161 : 
; 1162 : 	for (i=0 ; i<3 ; i++)

	mov	DWORD PTR _i$[ebp], 0
	jmp	SHORT $LN4@PM_ClipVel
$LN2@PM_ClipVel:
	mov	eax, DWORD PTR _i$[ebp]
	add	eax, 1
	mov	DWORD PTR _i$[ebp], eax
$LN4@PM_ClipVel:
	cmp	DWORD PTR _i$[ebp], 3
	jge	$LN3@PM_ClipVel

; 1163 : 	{
; 1164 : 		change = normal[i]*backoff;

	lea	ecx, DWORD PTR _normal$[ebp]
	call	??BVector@@QAEPAMXZ			; Vector::operator float *
	mov	ecx, DWORD PTR _i$[ebp]
	movss	xmm0, DWORD PTR [eax+ecx*4]
	mulss	xmm0, DWORD PTR _backoff$[ebp]
	movss	DWORD PTR _change$[ebp], xmm0

; 1165 : 		out[i] = in[i] - change;

	lea	ecx, DWORD PTR _in$[ebp]
	call	??BVector@@QAEPAMXZ			; Vector::operator float *
	mov	ecx, DWORD PTR _i$[ebp]
	movss	xmm0, DWORD PTR [eax+ecx*4]
	subss	xmm0, DWORD PTR _change$[ebp]
	mov	ecx, DWORD PTR _out$[ebp]
	movss	DWORD PTR tv173[ebp], xmm0
	call	??BVector@@QAEPAMXZ			; Vector::operator float *
	mov	edx, DWORD PTR _i$[ebp]
	movss	xmm0, DWORD PTR tv173[ebp]
	movss	DWORD PTR [eax+edx*4], xmm0

; 1166 : 		// If out velocity is too small, zero it out.
; 1167 : 		if (out[i] > -STOP_EPSILON && out[i] < STOP_EPSILON)

	mov	ecx, DWORD PTR _out$[ebp]
	call	??BVector@@QAEPAMXZ			; Vector::operator float *
	mov	ecx, DWORD PTR _i$[ebp]
	movss	xmm0, DWORD PTR [eax+ecx*4]
	comiss	xmm0, DWORD PTR __real@bdcccccd
	jbe	SHORT $LN7@PM_ClipVel
	mov	ecx, DWORD PTR _out$[ebp]
	call	??BVector@@QAEPAMXZ			; Vector::operator float *
	mov	ecx, DWORD PTR _i$[ebp]
	movss	xmm0, DWORD PTR __real@3dcccccd
	comiss	xmm0, DWORD PTR [eax+ecx*4]
	jbe	SHORT $LN7@PM_ClipVel

; 1168 : 			out[i] = 0;

	mov	ecx, DWORD PTR _out$[ebp]
	call	??BVector@@QAEPAMXZ			; Vector::operator float *
	mov	ecx, DWORD PTR _i$[ebp]
	xorps	xmm0, xmm0
	movss	DWORD PTR [eax+ecx*4], xmm0
$LN7@PM_ClipVel:

; 1169 : 	}

	jmp	$LN2@PM_ClipVel
$LN3@PM_ClipVel:

; 1170 : 	
; 1171 : 	// Return blocking flags.
; 1172 : 	return blocked;

	mov	eax, DWORD PTR _blocked$[ebp]

; 1173 : }

	pop	edi
	pop	esi
	pop	ebx
	mov	esp, ebp
	pop	ebp
	ret	0
?PM_ClipVelocity@@YAHVVector@@0AAV1@M@Z ENDP		; PM_ClipVelocity
_TEXT	ENDS
; Function compile flags: /Odtp /ZI
; File d:\!diffusion 2020\source code 2022\client-server\game_shared\playermove.cpp
;	COMDAT ?PM_CheckVelocity@@YAXXZ
_TEXT	SEGMENT
tv219 = -72						; size = 4
_i$ = -4						; size = 4
?PM_CheckVelocity@@YAXXZ PROC				; PM_CheckVelocity, COMDAT

; 1099 : {

	push	ebp
	mov	ebp, esp
	sub	esp, 72					; 00000048H
	push	ebx
	push	esi
	push	edi

; 1100 : 	int		i;
; 1101 : 
; 1102 : //
; 1103 : // bound velocity
; 1104 : //
; 1105 : 	for (i=0 ; i<3 ; i++)

	mov	DWORD PTR _i$[ebp], 0
	jmp	SHORT $LN4@PM_CheckVe
$LN2@PM_CheckVe:
	mov	eax, DWORD PTR _i$[ebp]
	add	eax, 1
	mov	DWORD PTR _i$[ebp], eax
$LN4@PM_CheckVe:
	cmp	DWORD PTR _i$[ebp], 3
	jge	$LN3@PM_CheckVe

; 1106 : 	{
; 1107 : 		// See if it's bogus.
; 1108 : 		if (IS_NAN(pmove->velocity[i]))

	mov	ecx, DWORD PTR ?pmove@@3PAUplayermove_s@@A ; pmove
	add	ecx, 92					; 0000005cH
	call	??BVector@@QAEPAMXZ			; Vector::operator float *
	mov	ecx, DWORD PTR _i$[ebp]
	mov	edx, DWORD PTR [eax+ecx*4]
	and	edx, 2139095040				; 7f800000H
	cmp	edx, 2139095040				; 7f800000H
	jne	SHORT $LN5@PM_CheckVe

; 1109 : 		{
; 1110 : 			pmove->Con_Printf ("PM  Got a NaN velocity %i\n", i);

	mov	eax, DWORD PTR _i$[ebp]
	push	eax
	push	OFFSET ??_C@_0BL@ODOJHMIN@PM?5?5Got?5a?5NaN?5velocity?5?$CFi?6?$AA@
	mov	ecx, DWORD PTR ?pmove@@3PAUplayermove_s@@A ; pmove
	mov	edx, DWORD PTR [ecx+324968]
	call	edx
	add	esp, 8

; 1111 : 			pmove->velocity[i] = 0;

	mov	ecx, DWORD PTR ?pmove@@3PAUplayermove_s@@A ; pmove
	add	ecx, 92					; 0000005cH
	call	??BVector@@QAEPAMXZ			; Vector::operator float *
	mov	ecx, DWORD PTR _i$[ebp]
	xorps	xmm0, xmm0
	movss	DWORD PTR [eax+ecx*4], xmm0
$LN5@PM_CheckVe:

; 1112 : 		}
; 1113 : 		if (IS_NAN(pmove->origin[i]))

	mov	ecx, DWORD PTR ?pmove@@3PAUplayermove_s@@A ; pmove
	add	ecx, 56					; 00000038H
	call	??BVector@@QAEPAMXZ			; Vector::operator float *
	mov	ecx, DWORD PTR _i$[ebp]
	mov	edx, DWORD PTR [eax+ecx*4]
	and	edx, 2139095040				; 7f800000H
	cmp	edx, 2139095040				; 7f800000H
	jne	SHORT $LN6@PM_CheckVe

; 1114 : 		{
; 1115 : 			pmove->Con_Printf ("PM  Got a NaN origin on %i\n", i);

	mov	eax, DWORD PTR _i$[ebp]
	push	eax
	push	OFFSET ??_C@_0BM@IKDFNEMI@PM?5?5Got?5a?5NaN?5origin?5on?5?$CFi?6?$AA@
	mov	ecx, DWORD PTR ?pmove@@3PAUplayermove_s@@A ; pmove
	mov	edx, DWORD PTR [ecx+324968]
	call	edx
	add	esp, 8

; 1116 : 			pmove->origin[i] = 0;

	mov	ecx, DWORD PTR ?pmove@@3PAUplayermove_s@@A ; pmove
	add	ecx, 56					; 00000038H
	call	??BVector@@QAEPAMXZ			; Vector::operator float *
	mov	ecx, DWORD PTR _i$[ebp]
	xorps	xmm0, xmm0
	movss	DWORD PTR [eax+ecx*4], xmm0
$LN6@PM_CheckVe:

; 1117 : 		}
; 1118 : 
; 1119 : 		// Bound it.
; 1120 : 		if (pmove->velocity[i] > pmove->movevars->maxvelocity) 

	mov	ecx, DWORD PTR ?pmove@@3PAUplayermove_s@@A ; pmove
	add	ecx, 92					; 0000005cH
	call	??BVector@@QAEPAMXZ			; Vector::operator float *
	mov	ecx, DWORD PTR ?pmove@@3PAUplayermove_s@@A ; pmove
	mov	edx, DWORD PTR [ecx+324848]
	mov	ecx, DWORD PTR _i$[ebp]
	movss	xmm0, DWORD PTR [eax+ecx*4]
	comiss	xmm0, DWORD PTR [edx+52]
	jbe	SHORT $LN7@PM_CheckVe

; 1121 : 		{
; 1122 : 			pmove->Con_DPrintf ("PM  Got a velocity too high on %i\n", i);

	mov	eax, DWORD PTR _i$[ebp]
	push	eax
	push	OFFSET ??_C@_0CD@BDBMHNGO@PM?5?5Got?5a?5velocity?5too?5high?5on?5?$CF@
	mov	ecx, DWORD PTR ?pmove@@3PAUplayermove_s@@A ; pmove
	mov	edx, DWORD PTR [ecx+324964]
	call	edx
	add	esp, 8

; 1123 : 			pmove->velocity[i] = pmove->movevars->maxvelocity;

	mov	eax, DWORD PTR ?pmove@@3PAUplayermove_s@@A ; pmove
	mov	esi, DWORD PTR [eax+324848]
	mov	ecx, DWORD PTR ?pmove@@3PAUplayermove_s@@A ; pmove
	add	ecx, 92					; 0000005cH
	call	??BVector@@QAEPAMXZ			; Vector::operator float *
	mov	ecx, DWORD PTR _i$[ebp]
	mov	edx, DWORD PTR [esi+52]
	mov	DWORD PTR [eax+ecx*4], edx
	jmp	$LN9@PM_CheckVe
$LN7@PM_CheckVe:

; 1124 : 		}
; 1125 : 		else if (pmove->velocity[i] < -pmove->movevars->maxvelocity)

	mov	ecx, DWORD PTR ?pmove@@3PAUplayermove_s@@A ; pmove
	add	ecx, 92					; 0000005cH
	call	??BVector@@QAEPAMXZ			; Vector::operator float *
	mov	ecx, DWORD PTR ?pmove@@3PAUplayermove_s@@A ; pmove
	mov	edx, DWORD PTR [ecx+324848]
	movss	xmm0, DWORD PTR [edx+52]
	xorps	xmm0, DWORD PTR __xmm@80000000800000008000000080000000
	mov	ecx, DWORD PTR _i$[ebp]
	comiss	xmm0, DWORD PTR [eax+ecx*4]
	jbe	SHORT $LN9@PM_CheckVe

; 1126 : 		{
; 1127 : 			pmove->Con_DPrintf ("PM  Got a velocity too low on %i\n", i);

	mov	eax, DWORD PTR _i$[ebp]
	push	eax
	push	OFFSET ??_C@_0CC@OFBNMFAF@PM?5?5Got?5a?5velocity?5too?5low?5on?5?$CFi@
	mov	ecx, DWORD PTR ?pmove@@3PAUplayermove_s@@A ; pmove
	mov	edx, DWORD PTR [ecx+324964]
	call	edx
	add	esp, 8

; 1128 : 			pmove->velocity[i] = -pmove->movevars->maxvelocity;

	mov	eax, DWORD PTR ?pmove@@3PAUplayermove_s@@A ; pmove
	mov	ecx, DWORD PTR [eax+324848]
	movss	xmm0, DWORD PTR [ecx+52]
	xorps	xmm0, DWORD PTR __xmm@80000000800000008000000080000000
	mov	ecx, DWORD PTR ?pmove@@3PAUplayermove_s@@A ; pmove
	add	ecx, 92					; 0000005cH
	movss	DWORD PTR tv219[ebp], xmm0
	call	??BVector@@QAEPAMXZ			; Vector::operator float *
	mov	edx, DWORD PTR _i$[ebp]
	movss	xmm0, DWORD PTR tv219[ebp]
	movss	DWORD PTR [eax+edx*4], xmm0
$LN9@PM_CheckVe:

; 1129 : 		}
; 1130 : 	}

	jmp	$LN2@PM_CheckVe
$LN3@PM_CheckVe:

; 1131 : }

	pop	edi
	pop	esi
	pop	ebx
	mov	esp, ebp
	pop	ebp
	ret	0
?PM_CheckVelocity@@YAXXZ ENDP				; PM_CheckVelocity
_TEXT	ENDS
; Function compile flags: /Odtp /ZI
; File d:\!diffusion 2020\source code 2022\client-server\game_shared\playermove.cpp
;	COMDAT ?PM_AddToTouched@@YAHUpmtrace_s@@VVector@@@Z
_TEXT	SEGMENT
_pe$1 = -8						; size = 4
_i$ = -4						; size = 4
_tr$ = 8						; size = 68
_impactvelocity$ = 76					; size = 12
?PM_AddToTouched@@YAHUpmtrace_s@@VVector@@@Z PROC	; PM_AddToTouched, COMDAT

; 1061 : {

	push	ebp
	mov	ebp, esp
	sub	esp, 72					; 00000048H
	push	ebx
	push	esi
	push	edi

; 1062 : 	int i;
; 1063 : 
; 1064 : 	for (i = 0; i < pmove->numtouch; i++)

	mov	DWORD PTR _i$[ebp], 0
	jmp	SHORT $LN4@PM_AddToTo
$LN2@PM_AddToTo:
	mov	eax, DWORD PTR _i$[ebp]
	add	eax, 1
	mov	DWORD PTR _i$[ebp], eax
$LN4@PM_AddToTo:
	mov	eax, DWORD PTR ?pmove@@3PAUplayermove_s@@A ; pmove
	mov	ecx, DWORD PTR _i$[ebp]
	cmp	ecx, DWORD PTR [eax+283788]
	jge	SHORT $LN3@PM_AddToTo

; 1065 : 	{
; 1066 : 		if (pmove->touchindex[i].ent == tr.ent)

	imul	eax, DWORD PTR _i$[ebp], 68
	mov	ecx, DWORD PTR ?pmove@@3PAUplayermove_s@@A ; pmove
	mov	edx, DWORD PTR [ecx+eax+283840]
	cmp	edx, DWORD PTR _tr$[ebp+48]
	jne	SHORT $LN5@PM_AddToTo

; 1067 : 			break;

	jmp	SHORT $LN3@PM_AddToTo
$LN5@PM_AddToTo:

; 1068 : 	}

	jmp	SHORT $LN2@PM_AddToTo
$LN3@PM_AddToTo:

; 1069 : 	if (i != pmove->numtouch)  // Already in list.

	mov	eax, DWORD PTR ?pmove@@3PAUplayermove_s@@A ; pmove
	mov	ecx, DWORD PTR _i$[ebp]
	cmp	ecx, DWORD PTR [eax+283788]
	je	SHORT $LN6@PM_AddToTo

; 1070 : 		return false;

	xor	eax, eax
	jmp	$LN1@PM_AddToTo
$LN6@PM_AddToTo:

; 1071 : 
; 1072 : 	if( pmove->onground != -1 && tr.ent == pmove->onground )

	mov	eax, DWORD PTR ?pmove@@3PAUplayermove_s@@A ; pmove
	cmp	DWORD PTR [eax+224], -1
	je	SHORT $LN7@PM_AddToTo
	mov	eax, DWORD PTR ?pmove@@3PAUplayermove_s@@A ; pmove
	mov	ecx, DWORD PTR _tr$[ebp+48]
	cmp	ecx, DWORD PTR [eax+224]
	jne	SHORT $LN7@PM_AddToTo

; 1073 : 	{
; 1074 : 		physent_t *pe = &pmove->physents[pmove->onground];

	mov	eax, DWORD PTR ?pmove@@3PAUplayermove_s@@A ; pmove
	imul	ecx, DWORD PTR [eax+224], 224
	mov	edx, DWORD PTR ?pmove@@3PAUplayermove_s@@A ; pmove
	lea	eax, DWORD PTR [edx+ecx+592]
	mov	DWORD PTR _pe$1[ebp], eax

; 1075 : 
; 1076 : 		// we're standing on pushable. Clear impulse
; 1077 : 		if( pe->movetype == MOVETYPE_PUSHSTEP )

	mov	eax, DWORD PTR _pe$1[ebp]
	cmp	DWORD PTR [eax+124], 13			; 0000000dH
	jne	SHORT $LN7@PM_AddToTo

; 1078 : 			impactvelocity = g_vecZero;

	mov	eax, DWORD PTR ?g_vecZero@@3VVector@@B
	mov	DWORD PTR _impactvelocity$[ebp], eax
	mov	ecx, DWORD PTR ?g_vecZero@@3VVector@@B+4
	mov	DWORD PTR _impactvelocity$[ebp+4], ecx
	mov	edx, DWORD PTR ?g_vecZero@@3VVector@@B+8
	mov	DWORD PTR _impactvelocity$[ebp+8], edx
$LN7@PM_AddToTo:

; 1079 : 	}
; 1080 : 
; 1081 : 	tr.deltavelocity = impactvelocity;

	mov	eax, DWORD PTR _impactvelocity$[ebp]
	mov	DWORD PTR _tr$[ebp+52], eax
	mov	ecx, DWORD PTR _impactvelocity$[ebp+4]
	mov	DWORD PTR _tr$[ebp+56], ecx
	mov	edx, DWORD PTR _impactvelocity$[ebp+8]
	mov	DWORD PTR _tr$[ebp+60], edx

; 1082 : 
; 1083 : 	if (pmove->numtouch >= MAX_PHYSENTS)

	mov	eax, DWORD PTR ?pmove@@3PAUplayermove_s@@A ; pmove
	cmp	DWORD PTR [eax+283788], 600		; 00000258H
	jl	SHORT $LN9@PM_AddToTo

; 1084 : 		pmove->Con_DPrintf("Too many entities were touched!\n");

	push	OFFSET ??_C@_0CB@CNILIGKA@Too?5many?5entities?5were?5touched?$CB?6@
	mov	eax, DWORD PTR ?pmove@@3PAUplayermove_s@@A ; pmove
	mov	ecx, DWORD PTR [eax+324964]
	call	ecx
	add	esp, 4
$LN9@PM_AddToTo:

; 1085 : 
; 1086 : 	pmove->touchindex[pmove->numtouch++] = tr;

	mov	eax, DWORD PTR ?pmove@@3PAUplayermove_s@@A ; pmove
	imul	ecx, DWORD PTR [eax+283788], 68
	mov	edx, DWORD PTR ?pmove@@3PAUplayermove_s@@A ; pmove
	lea	edi, DWORD PTR [edx+ecx+283792]
	mov	ecx, 17					; 00000011H
	lea	esi, DWORD PTR _tr$[ebp]
	rep movsd
	mov	eax, DWORD PTR ?pmove@@3PAUplayermove_s@@A ; pmove
	mov	ecx, DWORD PTR [eax+283788]
	add	ecx, 1
	mov	edx, DWORD PTR ?pmove@@3PAUplayermove_s@@A ; pmove
	mov	DWORD PTR [edx+283788], ecx

; 1087 : 
; 1088 : 	return true;

	mov	eax, 1
$LN1@PM_AddToTo:

; 1089 : }

	pop	edi
	pop	esi
	pop	ebx
	mov	esp, ebp
	pop	ebp
	ret	0
?PM_AddToTouched@@YAHUpmtrace_s@@VVector@@@Z ENDP	; PM_AddToTouched
_TEXT	ENDS
; Function compile flags: /Odtp /ZI
; File d:\!diffusion 2020\source code 2022\client-server\game_shared\playermove.cpp
;	COMDAT ?PM_UpdateStepSound@@YAXH@Z
_TEXT	SEGMENT
tv210 = -152						; size = 8
tv390 = -144						; size = 8
tv279 = -144						; size = 8
tv273 = -144						; size = 8
tv267 = -144						; size = 8
tv261 = -144						; size = 8
tv255 = -144						; size = 8
tv249 = -144						; size = 8
tv243 = -144						; size = 8
tv231 = -144						; size = 8
tv209 = -144						; size = 8
tv461 = -140						; size = 4
tv459 = -140						; size = 4
tv283 = -140						; size = 4
tv277 = -140						; size = 4
tv271 = -140						; size = 4
tv265 = -140						; size = 4
tv259 = -140						; size = 4
tv253 = -140						; size = 4
tv247 = -140						; size = 4
tv241 = -140						; size = 4
tv235 = -140						; size = 4
tv222 = -140						; size = 4
tv194 = -140						; size = 4
tv145 = -140						; size = 4
tv80 = -140						; size = 4
_step$ = -72						; size = 4
_fLadder$ = -68						; size = 4
_flduck$ = -64						; size = 4
_velwalk$ = -60						; size = 4
_velrun$ = -56						; size = 4
_speed$ = -52						; size = 4
_height$ = -48						; size = 4
_center$ = -44						; size = 12
_feet$ = -32						; size = 12
_knee$ = -20						; size = 12
_fvol$ = -8						; size = 4
_fWalking$ = -4						; size = 4
_LadderSound$ = 8					; size = 4
?PM_UpdateStepSound@@YAXH@Z PROC			; PM_UpdateStepSound, COMDAT

; 875  : {

	push	ebp
	mov	ebp, esp
	sub	esp, 152				; 00000098H
	push	ebx
	push	esi
	push	edi

; 876  : 	int	fWalking;
; 877  : 	float fvol;
; 878  : 	Vector knee;

	lea	ecx, DWORD PTR _knee$[ebp]
	call	??0Vector@@QAE@XZ			; Vector::Vector

; 879  : 	Vector feet;

	lea	ecx, DWORD PTR _feet$[ebp]
	call	??0Vector@@QAE@XZ			; Vector::Vector

; 880  : 	Vector center;

	lea	ecx, DWORD PTR _center$[ebp]
	call	??0Vector@@QAE@XZ			; Vector::Vector

; 881  : 	float height;
; 882  : 	float speed;
; 883  : 	float velrun;
; 884  : 	float velwalk;
; 885  : 	float flduck;
; 886  : 	int	fLadder;
; 887  : 	int step;
; 888  : 
; 889  : 	speed = pmove->velocity.Length();

	mov	ecx, DWORD PTR ?pmove@@3PAUplayermove_s@@A ; pmove
	add	ecx, 92					; 0000005cH
	call	?Length@Vector@@QBEMXZ			; Vector::Length
	fstp	DWORD PTR _speed$[ebp]

; 890  : 	
; 891  : 	if (pmove->movetype == MOVETYPE_NOCLIP)

	mov	eax, DWORD PTR ?pmove@@3PAUplayermove_s@@A ; pmove
	cmp	DWORD PTR [eax+220], 8
	jne	SHORT $LN6@PM_UpdateS

; 892  : 		return;

	jmp	$LN1@PM_UpdateS
$LN6@PM_UpdateS:

; 893  : 	
; 894  : 	if ( pmove->flTimeStepSound > 0 )

	mov	eax, DWORD PTR ?pmove@@3PAUplayermove_s@@A ; pmove
	cmp	DWORD PTR [eax+148], 0
	jle	SHORT $LN7@PM_UpdateS

; 895  : 		return;

	jmp	$LN1@PM_UpdateS
$LN7@PM_UpdateS:

; 896  : 
; 897  : 	if ( pmove->flags & FL_FROZEN )

	mov	eax, DWORD PTR ?pmove@@3PAUplayermove_s@@A ; pmove
	mov	ecx, DWORD PTR [eax+184]
	and	ecx, 4096				; 00001000H
	je	SHORT $LN8@PM_UpdateS

; 898  : 		return;

	jmp	$LN1@PM_UpdateS
$LN8@PM_UpdateS:

; 899  : 
; 900  : 	// diffusion - don't play step sound when fully submerged and walking on the bottom
; 901  : 	// UPD - doesn't work. waterlevel is always zero on client...
; 902  : 	// UPD2 works now with this weird trick! LOL
; 903  : //	if( pmove->waterlevel == 3 )
; 904  : //		return;
; 905  : #ifdef CLIENT_DLL
; 906  : 	if( tr.viewparams.waterlevel == 3 )

	cmp	DWORD PTR ?tr@@3Uref_globals_t@@A+5830740, 3
	jne	SHORT $LN9@PM_UpdateS

; 907  : 		return;

	jmp	$LN1@PM_UpdateS
$LN9@PM_UpdateS:

; 908  : #else
; 909  : 	if( pmove->waterlevel == 3 )
; 910  : 		return;
; 911  : #endif
; 912  : 
; 913  : 	PM_CategorizeTextureType();

	call	?PM_CategorizeTextureType@@YAXXZ	; PM_CategorizeTextureType

; 914  : 
; 915  : 	// determine if we are on a ladder
; 916  : 	fLadder = ( pmove->movetype == MOVETYPE_FLY );// IsOnLadder();

	mov	eax, DWORD PTR ?pmove@@3PAUplayermove_s@@A ; pmove
	cmp	DWORD PTR [eax+220], 5
	jne	SHORT $LN39@PM_UpdateS
	mov	DWORD PTR tv80[ebp], 1
	jmp	SHORT $LN40@PM_UpdateS
$LN39@PM_UpdateS:
	mov	DWORD PTR tv80[ebp], 0
$LN40@PM_UpdateS:
	mov	ecx, DWORD PTR tv80[ebp]
	mov	DWORD PTR _fLadder$[ebp], ecx

; 917  : 
; 918  : 	// diffusion - don't do this every frame during these conditions
; 919  : 	if( !fLadder )

	cmp	DWORD PTR _fLadder$[ebp], 0
	jne	SHORT $LN13@PM_UpdateS

; 920  : 	{
; 921  : 		if( (pmove->onground == -1) || (speed == 0) )

	mov	eax, DWORD PTR ?pmove@@3PAUplayermove_s@@A ; pmove
	cmp	DWORD PTR [eax+224], -1
	je	SHORT $LN12@PM_UpdateS
	movss	xmm0, DWORD PTR _speed$[ebp]
	ucomiss	xmm0, DWORD PTR __real@00000000
	lahf
	test	ah, 68					; 00000044H
	jp	SHORT $LN11@PM_UpdateS
$LN12@PM_UpdateS:

; 922  : 		{
; 923  : 			pmove->flTimeStepSound = 10; // 0.01 sec delay

	mov	eax, DWORD PTR ?pmove@@3PAUplayermove_s@@A ; pmove
	mov	DWORD PTR [eax+148], 10			; 0000000aH

; 924  : 			return;

	jmp	$LN1@PM_UpdateS
$LN11@PM_UpdateS:

; 925  : 		}
; 926  : 
; 927  : 		if( speed < 50 )

	movss	xmm0, DWORD PTR __real@42480000
	comiss	xmm0, DWORD PTR _speed$[ebp]
	jbe	SHORT $LN13@PM_UpdateS

; 928  : 			return; // diffusion - don't bother

	jmp	$LN1@PM_UpdateS
$LN13@PM_UpdateS:

; 929  : 	}
; 930  : 
; 931  : 	// UNDONE: need defined numbers for run, walk, crouch, crouch run velocities!!!!	
; 932  : 	if ( ( pmove->flags & FL_DUCKING) || fLadder )

	mov	eax, DWORD PTR ?pmove@@3PAUplayermove_s@@A ; pmove
	mov	ecx, DWORD PTR [eax+184]
	and	ecx, 16384				; 00004000H
	jne	SHORT $LN16@PM_UpdateS
	cmp	DWORD PTR _fLadder$[ebp], 0
	je	SHORT $LN14@PM_UpdateS
$LN16@PM_UpdateS:

; 933  : 	{
; 934  : 		velwalk = 60;		// These constants should be based on cl_movespeedkey * cl_forwardspeed somehow

	movss	xmm0, DWORD PTR __real@42700000
	movss	DWORD PTR _velwalk$[ebp], xmm0

; 935  : 		velrun = 80;		// UNDONE: Move walking to server

	movss	xmm0, DWORD PTR __real@42a00000
	movss	DWORD PTR _velrun$[ebp], xmm0

; 936  : 		flduck = 100;

	movss	xmm0, DWORD PTR __real@42c80000
	movss	DWORD PTR _flduck$[ebp], xmm0

; 937  : 	}
; 938  : 	else

	jmp	SHORT $LN15@PM_UpdateS
$LN14@PM_UpdateS:

; 939  : 	{
; 940  : 		velwalk = 120;

	movss	xmm0, DWORD PTR __real@42f00000
	movss	DWORD PTR _velwalk$[ebp], xmm0

; 941  : 		velrun = 210;

	movss	xmm0, DWORD PTR __real@43520000
	movss	DWORD PTR _velrun$[ebp], xmm0

; 942  : 		flduck = 20;  // diffusion - more time between regular walking sounds

	movss	xmm0, DWORD PTR __real@41a00000
	movss	DWORD PTR _flduck$[ebp], xmm0
$LN15@PM_UpdateS:

; 943  : 	}
; 944  : 	
; 945  : 	if ( (pmove->cmd.buttons & IN_RUN) && (pmove->cmd.buttons & IN_FORWARD) && !(pmove->flags & FL_DUCKING))  // DiffusionSprint

	mov	eax, DWORD PTR ?pmove@@3PAUplayermove_s@@A ; pmove
	movzx	ecx, WORD PTR [eax+283766]
	and	ecx, 4096				; 00001000H
	je	SHORT $LN17@PM_UpdateS
	mov	eax, DWORD PTR ?pmove@@3PAUplayermove_s@@A ; pmove
	movzx	ecx, WORD PTR [eax+283766]
	and	ecx, 8
	je	SHORT $LN17@PM_UpdateS
	mov	eax, DWORD PTR ?pmove@@3PAUplayermove_s@@A ; pmove
	mov	ecx, DWORD PTR [eax+184]
	and	ecx, 16384				; 00004000H
	jne	SHORT $LN17@PM_UpdateS

; 946  : 		flduck = -20;

	movss	xmm0, DWORD PTR __real@c1a00000
	movss	DWORD PTR _flduck$[ebp], xmm0
$LN17@PM_UpdateS:

; 947  : 
; 948  : 	// If we're on a ladder or on the ground, and we're moving fast enough,
; 949  : 	//  play step sound.  Also, if pmove->flTimeStepSound is zero, get the new
; 950  : 	//  sound right away - we just started moving in new level.
; 951  : 	if ( (fLadder || ( pmove->onground != -1 ) ) &&
; 952  : 		( speed > 0.0 ) &&

	cmp	DWORD PTR _fLadder$[ebp], 0
	jne	SHORT $LN19@PM_UpdateS
	mov	eax, DWORD PTR ?pmove@@3PAUplayermove_s@@A ; pmove
	cmp	DWORD PTR [eax+224], -1
	je	$LN18@PM_UpdateS
$LN19@PM_UpdateS:
	cvtss2sd xmm0, DWORD PTR _speed$[ebp]
	comisd	xmm0, QWORD PTR __real@0000000000000000
	jbe	$LN18@PM_UpdateS
	movss	xmm0, DWORD PTR _speed$[ebp]
	comiss	xmm0, DWORD PTR _velwalk$[ebp]
	jae	SHORT $LN20@PM_UpdateS
	mov	eax, DWORD PTR ?pmove@@3PAUplayermove_s@@A ; pmove
	cmp	DWORD PTR [eax+148], 0
	jne	$LN18@PM_UpdateS
$LN20@PM_UpdateS:

; 953  : 		( speed >= velwalk || !pmove->flTimeStepSound ) )
; 954  : 	{
; 955  : 		fWalking = speed < velrun;		

	movss	xmm0, DWORD PTR _velrun$[ebp]
	comiss	xmm0, DWORD PTR _speed$[ebp]
	jbe	SHORT $LN41@PM_UpdateS
	mov	DWORD PTR tv145[ebp], 1
	jmp	SHORT $LN42@PM_UpdateS
$LN41@PM_UpdateS:
	mov	DWORD PTR tv145[ebp], 0
$LN42@PM_UpdateS:
	mov	eax, DWORD PTR tv145[ebp]
	mov	DWORD PTR _fWalking$[ebp], eax

; 956  : 
; 957  : 		center = knee = feet = pmove->origin;

	mov	eax, DWORD PTR ?pmove@@3PAUplayermove_s@@A ; pmove
	add	eax, 56					; 00000038H
	mov	ecx, DWORD PTR [eax]
	mov	DWORD PTR _feet$[ebp], ecx
	mov	edx, DWORD PTR [eax+4]
	mov	DWORD PTR _feet$[ebp+4], edx
	mov	eax, DWORD PTR [eax+8]
	mov	DWORD PTR _feet$[ebp+8], eax
	mov	ecx, DWORD PTR _feet$[ebp]
	mov	DWORD PTR _knee$[ebp], ecx
	mov	edx, DWORD PTR _feet$[ebp+4]
	mov	DWORD PTR _knee$[ebp+4], edx
	mov	eax, DWORD PTR _feet$[ebp+8]
	mov	DWORD PTR _knee$[ebp+8], eax
	mov	ecx, DWORD PTR _knee$[ebp]
	mov	DWORD PTR _center$[ebp], ecx
	mov	edx, DWORD PTR _knee$[ebp+4]
	mov	DWORD PTR _center$[ebp+4], edx
	mov	eax, DWORD PTR _knee$[ebp+8]
	mov	DWORD PTR _center$[ebp+8], eax

; 958  : 
; 959  : 		height = pmove->player_maxs[ pmove->usehull ][ 2 ] - pmove->player_mins[ pmove->usehull ][ 2 ];

	mov	eax, DWORD PTR ?pmove@@3PAUplayermove_s@@A ; pmove
	imul	ecx, DWORD PTR [eax+188], 12
	mov	edx, DWORD PTR ?pmove@@3PAUplayermove_s@@A ; pmove
	lea	ecx, DWORD PTR [edx+ecx+324900]
	call	??BVector@@QAEPAMXZ			; Vector::operator float *
	mov	esi, eax
	mov	edi, 4
	shl	edi, 1
	mov	eax, DWORD PTR ?pmove@@3PAUplayermove_s@@A ; pmove
	imul	ecx, DWORD PTR [eax+188], 12
	mov	edx, DWORD PTR ?pmove@@3PAUplayermove_s@@A ; pmove
	lea	ecx, DWORD PTR [edx+ecx+324852]
	call	??BVector@@QAEPAMXZ			; Vector::operator float *
	mov	ecx, 4
	shl	ecx, 1
	movss	xmm0, DWORD PTR [esi+edi]
	subss	xmm0, DWORD PTR [eax+ecx]
	movss	DWORD PTR _height$[ebp], xmm0

; 960  : 
; 961  : 		knee[2] = pmove->origin[2] - 0.3 * height;

	mov	ecx, DWORD PTR ?pmove@@3PAUplayermove_s@@A ; pmove
	add	ecx, 56					; 00000038H
	call	??BVector@@QAEPAMXZ			; Vector::operator float *
	mov	ecx, 4
	shl	ecx, 1
	cvtss2sd xmm0, DWORD PTR [eax+ecx]
	cvtss2sd xmm1, DWORD PTR _height$[ebp]
	mulsd	xmm1, QWORD PTR __real@3fd3333333333333
	subsd	xmm0, xmm1
	cvtsd2ss xmm0, xmm0
	lea	ecx, DWORD PTR _knee$[ebp]
	movss	DWORD PTR tv459[ebp], xmm0
	call	??BVector@@QAEPAMXZ			; Vector::operator float *
	mov	edx, 4
	shl	edx, 1
	movss	xmm0, DWORD PTR tv459[ebp]
	movss	DWORD PTR [eax+edx], xmm0

; 962  : 		feet[2] = pmove->origin[2] - 0.5 * height;

	mov	ecx, DWORD PTR ?pmove@@3PAUplayermove_s@@A ; pmove
	add	ecx, 56					; 00000038H
	call	??BVector@@QAEPAMXZ			; Vector::operator float *
	mov	ecx, 4
	shl	ecx, 1
	cvtss2sd xmm0, DWORD PTR [eax+ecx]
	cvtss2sd xmm1, DWORD PTR _height$[ebp]
	mulsd	xmm1, QWORD PTR __real@3fe0000000000000
	subsd	xmm0, xmm1
	cvtsd2ss xmm0, xmm0
	lea	ecx, DWORD PTR _feet$[ebp]
	movss	DWORD PTR tv461[ebp], xmm0
	call	??BVector@@QAEPAMXZ			; Vector::operator float *
	mov	edx, 4
	shl	edx, 1
	movss	xmm0, DWORD PTR tv461[ebp]
	movss	DWORD PTR [eax+edx], xmm0

; 963  : 
; 964  : 		// find out what we're stepping in or on...
; 965  : 		if (fLadder)

	cmp	DWORD PTR _fLadder$[ebp], 0
	je	$LN21@PM_UpdateS

; 966  : 		{
; 967  : 			switch( LadderSound )

	mov	eax, DWORD PTR _LadderSound$[ebp]
	mov	DWORD PTR tv194[ebp], eax
	cmp	DWORD PTR tv194[ebp], 1
	je	SHORT $LN24@PM_UpdateS

; 968  : 			{
; 969  : 			default:
; 970  : 			case 0:
; 971  : 				step = STEP_LADDER;

	mov	DWORD PTR _step$[ebp], 8

; 972  : 			break;

	jmp	SHORT $LN2@PM_UpdateS
$LN24@PM_UpdateS:

; 973  : 			case 1:
; 974  : 				step = STEP_LADDER_WOOD;

	mov	DWORD PTR _step$[ebp], 16		; 00000010H
$LN2@PM_UpdateS:

; 975  : 			break;
; 976  : 			}
; 977  : 
; 978  : 			fvol = 0.1 + pmove->velocity.Length() * 0.001;// diffusion - was 0.35; some changes here

	mov	ecx, DWORD PTR ?pmove@@3PAUplayermove_s@@A ; pmove
	add	ecx, 92					; 0000005cH
	call	?Length@Vector@@QBEMXZ			; Vector::Length
	fstp	QWORD PTR tv390[ebp]
	movsd	xmm0, QWORD PTR tv390[ebp]
	mulsd	xmm0, QWORD PTR __real@3f50624dd2f1a9fc
	addsd	xmm0, QWORD PTR __real@3fb999999999999a
	cvtsd2ss xmm0, xmm0
	movss	DWORD PTR _fvol$[ebp], xmm0

; 979  : 			if( fvol < 0.15 ) fvol = 0;

	cvtss2sd xmm0, DWORD PTR _fvol$[ebp]
	movsd	xmm1, QWORD PTR __real@3fc3333333333333
	comisd	xmm1, xmm0
	jbe	SHORT $LN25@PM_UpdateS
	xorps	xmm0, xmm0
	movss	DWORD PTR _fvol$[ebp], xmm0
$LN25@PM_UpdateS:

; 980  : 			fvol = bound(0, fvol, 0.35);

	movss	xmm0, DWORD PTR _fvol$[ebp]
	comiss	xmm0, DWORD PTR __real@00000000
	jb	SHORT $LN45@PM_UpdateS
	cvtss2sd xmm0, DWORD PTR _fvol$[ebp]
	movsd	xmm1, QWORD PTR __real@3fd6666666666666
	comisd	xmm1, xmm0
	jbe	SHORT $LN43@PM_UpdateS
	cvtss2sd xmm0, DWORD PTR _fvol$[ebp]
	movsd	QWORD PTR tv209[ebp], xmm0
	jmp	SHORT $LN44@PM_UpdateS
$LN43@PM_UpdateS:
	movsd	xmm0, QWORD PTR __real@3fd6666666666666
	movsd	QWORD PTR tv209[ebp], xmm0
$LN44@PM_UpdateS:
	movsd	xmm0, QWORD PTR tv209[ebp]
	movsd	QWORD PTR tv210[ebp], xmm0
	jmp	SHORT $LN46@PM_UpdateS
$LN45@PM_UpdateS:
	xorps	xmm0, xmm0
	movsd	QWORD PTR tv210[ebp], xmm0
$LN46@PM_UpdateS:
	cvtsd2ss xmm0, QWORD PTR tv210[ebp]
	movss	DWORD PTR _fvol$[ebp], xmm0

; 981  : 			pmove->flTimeStepSound = 350;

	mov	eax, DWORD PTR ?pmove@@3PAUplayermove_s@@A ; pmove
	mov	DWORD PTR [eax+148], 350		; 0000015eH
	jmp	$LN4@PM_UpdateS
$LN21@PM_UpdateS:

; 982  : 		}
; 983  : 		else if ( pmove->PM_PointContents ( knee, NULL ) == CONTENTS_WATER )

	push	0
	lea	ecx, DWORD PTR _knee$[ebp]
	call	??BVector@@QAEPAMXZ			; Vector::operator float *
	push	eax
	mov	eax, DWORD PTR ?pmove@@3PAUplayermove_s@@A ; pmove
	mov	ecx, DWORD PTR [eax+324980]
	call	ecx
	add	esp, 8
	cmp	eax, -3					; fffffffdH
	jne	SHORT $LN26@PM_UpdateS

; 984  : 		{
; 985  : 			step = STEP_WADE;

	mov	DWORD PTR _step$[ebp], 7

; 986  : 			fvol = 0.65;

	movss	xmm0, DWORD PTR __real@3f266666
	movss	DWORD PTR _fvol$[ebp], xmm0

; 987  : 		//	pmove->flTimeStepSound = 600;
; 988  : 			pmove->flTimeStepSound = fWalking ? 500 : 400;

	cmp	DWORD PTR _fWalking$[ebp], 0
	je	SHORT $LN47@PM_UpdateS
	mov	DWORD PTR tv222[ebp], 500		; 000001f4H
	jmp	SHORT $LN48@PM_UpdateS
$LN47@PM_UpdateS:
	mov	DWORD PTR tv222[ebp], 400		; 00000190H
$LN48@PM_UpdateS:
	mov	eax, DWORD PTR ?pmove@@3PAUplayermove_s@@A ; pmove
	mov	ecx, DWORD PTR tv222[ebp]
	mov	DWORD PTR [eax+148], ecx
	jmp	$LN4@PM_UpdateS
$LN26@PM_UpdateS:

; 989  : 		}
; 990  : 		else if ( pmove->PM_PointContents ( feet, NULL ) == CONTENTS_WATER )

	push	0
	lea	ecx, DWORD PTR _feet$[ebp]
	call	??BVector@@QAEPAMXZ			; Vector::operator float *
	push	eax
	mov	eax, DWORD PTR ?pmove@@3PAUplayermove_s@@A ; pmove
	mov	ecx, DWORD PTR [eax+324980]
	call	ecx
	add	esp, 8
	cmp	eax, -3					; fffffffdH
	jne	SHORT $LN28@PM_UpdateS

; 991  : 		{
; 992  : 			step = STEP_SLOSH;

	mov	DWORD PTR _step$[ebp], 6

; 993  : 			fvol = fWalking ? 0.2 : 0.5;

	cmp	DWORD PTR _fWalking$[ebp], 0
	je	SHORT $LN49@PM_UpdateS
	movsd	xmm0, QWORD PTR __real@3fc999999999999a
	movsd	QWORD PTR tv231[ebp], xmm0
	jmp	SHORT $LN50@PM_UpdateS
$LN49@PM_UpdateS:
	movsd	xmm0, QWORD PTR __real@3fe0000000000000
	movsd	QWORD PTR tv231[ebp], xmm0
$LN50@PM_UpdateS:
	cvtsd2ss xmm0, QWORD PTR tv231[ebp]
	movss	DWORD PTR _fvol$[ebp], xmm0

; 994  : 			pmove->flTimeStepSound = fWalking ? 400 : 300;		

	cmp	DWORD PTR _fWalking$[ebp], 0
	je	SHORT $LN51@PM_UpdateS
	mov	DWORD PTR tv235[ebp], 400		; 00000190H
	jmp	SHORT $LN52@PM_UpdateS
$LN51@PM_UpdateS:
	mov	DWORD PTR tv235[ebp], 300		; 0000012cH
$LN52@PM_UpdateS:
	mov	eax, DWORD PTR ?pmove@@3PAUplayermove_s@@A ; pmove
	mov	ecx, DWORD PTR tv235[ebp]
	mov	DWORD PTR [eax+148], ecx

; 995  : 		}
; 996  : 		else

	jmp	$LN4@PM_UpdateS
$LN28@PM_UpdateS:

; 997  : 		{
; 998  : 			// find texture under player, if different from current texture, 
; 999  : 			// get material type
; 1000 : 			step = PM_MapTextureTypeStepType( pmove->chtexturetype );

	mov	eax, DWORD PTR ?pmove@@3PAUplayermove_s@@A ; pmove
	movzx	ecx, BYTE PTR [eax+496]
	push	ecx
	call	?PM_MapTextureTypeStepType@@YAHD@Z	; PM_MapTextureTypeStepType
	add	esp, 4
	mov	DWORD PTR _step$[ebp], eax

; 1001 : 
; 1002 : 			switch ( pmove->chtexturetype )

	mov	eax, DWORD PTR ?pmove@@3PAUplayermove_s@@A ; pmove
	movsx	ecx, BYTE PTR [eax+496]
	mov	DWORD PTR tv241[ebp], ecx
	mov	edx, DWORD PTR tv241[ebp]
	sub	edx, 68					; 00000044H
	mov	DWORD PTR tv241[ebp], edx
	cmp	DWORD PTR tv241[ebp], 18		; 00000012H
	ja	SHORT $LN30@PM_UpdateS
	mov	eax, DWORD PTR tv241[ebp]
	movzx	ecx, BYTE PTR $LN81@PM_UpdateS[eax]
	jmp	DWORD PTR $LN82@PM_UpdateS[ecx*4]
$LN30@PM_UpdateS:

; 1003 : 			{
; 1004 : 			default:
; 1005 : 			case CHAR_TEX_CONCRETE:						
; 1006 : 				fvol = fWalking ? 0.2 : 0.5;

	cmp	DWORD PTR _fWalking$[ebp], 0
	je	SHORT $LN53@PM_UpdateS
	movsd	xmm0, QWORD PTR __real@3fc999999999999a
	movsd	QWORD PTR tv243[ebp], xmm0
	jmp	SHORT $LN54@PM_UpdateS
$LN53@PM_UpdateS:
	movsd	xmm0, QWORD PTR __real@3fe0000000000000
	movsd	QWORD PTR tv243[ebp], xmm0
$LN54@PM_UpdateS:
	cvtsd2ss xmm0, QWORD PTR tv243[ebp]
	movss	DWORD PTR _fvol$[ebp], xmm0

; 1007 : 				pmove->flTimeStepSound = fWalking ? 400 : 300;

	cmp	DWORD PTR _fWalking$[ebp], 0
	je	SHORT $LN55@PM_UpdateS
	mov	DWORD PTR tv247[ebp], 400		; 00000190H
	jmp	SHORT $LN56@PM_UpdateS
$LN55@PM_UpdateS:
	mov	DWORD PTR tv247[ebp], 300		; 0000012cH
$LN56@PM_UpdateS:
	mov	eax, DWORD PTR ?pmove@@3PAUplayermove_s@@A ; pmove
	mov	ecx, DWORD PTR tv247[ebp]
	mov	DWORD PTR [eax+148], ecx

; 1008 : 				break;

	jmp	$LN4@PM_UpdateS
$LN31@PM_UpdateS:

; 1009 : 
; 1010 : 			case CHAR_TEX_METAL:	
; 1011 : 				fvol = fWalking ? 0.2 : 0.5;

	cmp	DWORD PTR _fWalking$[ebp], 0
	je	SHORT $LN57@PM_UpdateS
	movsd	xmm0, QWORD PTR __real@3fc999999999999a
	movsd	QWORD PTR tv249[ebp], xmm0
	jmp	SHORT $LN58@PM_UpdateS
$LN57@PM_UpdateS:
	movsd	xmm0, QWORD PTR __real@3fe0000000000000
	movsd	QWORD PTR tv249[ebp], xmm0
$LN58@PM_UpdateS:
	cvtsd2ss xmm0, QWORD PTR tv249[ebp]
	movss	DWORD PTR _fvol$[ebp], xmm0

; 1012 : 				pmove->flTimeStepSound = fWalking ? 400 : 300;

	cmp	DWORD PTR _fWalking$[ebp], 0
	je	SHORT $LN59@PM_UpdateS
	mov	DWORD PTR tv253[ebp], 400		; 00000190H
	jmp	SHORT $LN60@PM_UpdateS
$LN59@PM_UpdateS:
	mov	DWORD PTR tv253[ebp], 300		; 0000012cH
$LN60@PM_UpdateS:
	mov	eax, DWORD PTR ?pmove@@3PAUplayermove_s@@A ; pmove
	mov	ecx, DWORD PTR tv253[ebp]
	mov	DWORD PTR [eax+148], ecx

; 1013 : 				break;

	jmp	$LN4@PM_UpdateS
$LN32@PM_UpdateS:

; 1014 : 
; 1015 : 			case CHAR_TEX_DIRT:	
; 1016 : 				fvol = fWalking ? 0.25 : 0.55;

	cmp	DWORD PTR _fWalking$[ebp], 0
	je	SHORT $LN61@PM_UpdateS
	movsd	xmm0, QWORD PTR __real@3fd0000000000000
	movsd	QWORD PTR tv255[ebp], xmm0
	jmp	SHORT $LN62@PM_UpdateS
$LN61@PM_UpdateS:
	movsd	xmm0, QWORD PTR __real@3fe199999999999a
	movsd	QWORD PTR tv255[ebp], xmm0
$LN62@PM_UpdateS:
	cvtsd2ss xmm0, QWORD PTR tv255[ebp]
	movss	DWORD PTR _fvol$[ebp], xmm0

; 1017 : 				pmove->flTimeStepSound = fWalking ? 400 : 300;

	cmp	DWORD PTR _fWalking$[ebp], 0
	je	SHORT $LN63@PM_UpdateS
	mov	DWORD PTR tv259[ebp], 400		; 00000190H
	jmp	SHORT $LN64@PM_UpdateS
$LN63@PM_UpdateS:
	mov	DWORD PTR tv259[ebp], 300		; 0000012cH
$LN64@PM_UpdateS:
	mov	eax, DWORD PTR ?pmove@@3PAUplayermove_s@@A ; pmove
	mov	ecx, DWORD PTR tv259[ebp]
	mov	DWORD PTR [eax+148], ecx

; 1018 : 				break;

	jmp	$LN4@PM_UpdateS
$LN33@PM_UpdateS:

; 1019 : 
; 1020 : 			case CHAR_TEX_VENT:	
; 1021 : 				fvol = fWalking ? 0.4 : 0.7;

	cmp	DWORD PTR _fWalking$[ebp], 0
	je	SHORT $LN65@PM_UpdateS
	movsd	xmm0, QWORD PTR __real@3fd999999999999a
	movsd	QWORD PTR tv261[ebp], xmm0
	jmp	SHORT $LN66@PM_UpdateS
$LN65@PM_UpdateS:
	movsd	xmm0, QWORD PTR __real@3fe6666666666666
	movsd	QWORD PTR tv261[ebp], xmm0
$LN66@PM_UpdateS:
	cvtsd2ss xmm0, QWORD PTR tv261[ebp]
	movss	DWORD PTR _fvol$[ebp], xmm0

; 1022 : 				pmove->flTimeStepSound = fWalking ? 400 : 300;

	cmp	DWORD PTR _fWalking$[ebp], 0
	je	SHORT $LN67@PM_UpdateS
	mov	DWORD PTR tv265[ebp], 400		; 00000190H
	jmp	SHORT $LN68@PM_UpdateS
$LN67@PM_UpdateS:
	mov	DWORD PTR tv265[ebp], 300		; 0000012cH
$LN68@PM_UpdateS:
	mov	eax, DWORD PTR ?pmove@@3PAUplayermove_s@@A ; pmove
	mov	ecx, DWORD PTR tv265[ebp]
	mov	DWORD PTR [eax+148], ecx

; 1023 : 				break;

	jmp	$LN4@PM_UpdateS
$LN34@PM_UpdateS:

; 1024 : 
; 1025 : 			case CHAR_TEX_GRATE:
; 1026 : 				fvol = fWalking ? 0.2 : 0.5;

	cmp	DWORD PTR _fWalking$[ebp], 0
	je	SHORT $LN69@PM_UpdateS
	movsd	xmm0, QWORD PTR __real@3fc999999999999a
	movsd	QWORD PTR tv267[ebp], xmm0
	jmp	SHORT $LN70@PM_UpdateS
$LN69@PM_UpdateS:
	movsd	xmm0, QWORD PTR __real@3fe0000000000000
	movsd	QWORD PTR tv267[ebp], xmm0
$LN70@PM_UpdateS:
	cvtsd2ss xmm0, QWORD PTR tv267[ebp]
	movss	DWORD PTR _fvol$[ebp], xmm0

; 1027 : 				pmove->flTimeStepSound = fWalking ? 400 : 300;

	cmp	DWORD PTR _fWalking$[ebp], 0
	je	SHORT $LN71@PM_UpdateS
	mov	DWORD PTR tv271[ebp], 400		; 00000190H
	jmp	SHORT $LN72@PM_UpdateS
$LN71@PM_UpdateS:
	mov	DWORD PTR tv271[ebp], 300		; 0000012cH
$LN72@PM_UpdateS:
	mov	eax, DWORD PTR ?pmove@@3PAUplayermove_s@@A ; pmove
	mov	ecx, DWORD PTR tv271[ebp]
	mov	DWORD PTR [eax+148], ecx

; 1028 : 				break;

	jmp	$LN4@PM_UpdateS
$LN35@PM_UpdateS:

; 1029 : 
; 1030 : 			case CHAR_TEX_TILE:	
; 1031 : 				fvol = fWalking ? 0.2 : 0.5;

	cmp	DWORD PTR _fWalking$[ebp], 0
	je	SHORT $LN73@PM_UpdateS
	movsd	xmm0, QWORD PTR __real@3fc999999999999a
	movsd	QWORD PTR tv273[ebp], xmm0
	jmp	SHORT $LN74@PM_UpdateS
$LN73@PM_UpdateS:
	movsd	xmm0, QWORD PTR __real@3fe0000000000000
	movsd	QWORD PTR tv273[ebp], xmm0
$LN74@PM_UpdateS:
	cvtsd2ss xmm0, QWORD PTR tv273[ebp]
	movss	DWORD PTR _fvol$[ebp], xmm0

; 1032 : 				pmove->flTimeStepSound = fWalking ? 400 : 300;

	cmp	DWORD PTR _fWalking$[ebp], 0
	je	SHORT $LN75@PM_UpdateS
	mov	DWORD PTR tv277[ebp], 400		; 00000190H
	jmp	SHORT $LN76@PM_UpdateS
$LN75@PM_UpdateS:
	mov	DWORD PTR tv277[ebp], 300		; 0000012cH
$LN76@PM_UpdateS:
	mov	eax, DWORD PTR ?pmove@@3PAUplayermove_s@@A ; pmove
	mov	ecx, DWORD PTR tv277[ebp]
	mov	DWORD PTR [eax+148], ecx

; 1033 : 				break;

	jmp	SHORT $LN4@PM_UpdateS
$LN36@PM_UpdateS:

; 1034 : 
; 1035 : 			case CHAR_TEX_SLOSH:
; 1036 : 				fvol = fWalking ? 0.2 : 0.5;

	cmp	DWORD PTR _fWalking$[ebp], 0
	je	SHORT $LN77@PM_UpdateS
	movsd	xmm0, QWORD PTR __real@3fc999999999999a
	movsd	QWORD PTR tv279[ebp], xmm0
	jmp	SHORT $LN78@PM_UpdateS
$LN77@PM_UpdateS:
	movsd	xmm0, QWORD PTR __real@3fe0000000000000
	movsd	QWORD PTR tv279[ebp], xmm0
$LN78@PM_UpdateS:
	cvtsd2ss xmm0, QWORD PTR tv279[ebp]
	movss	DWORD PTR _fvol$[ebp], xmm0

; 1037 : 				pmove->flTimeStepSound = fWalking ? 400 : 300;

	cmp	DWORD PTR _fWalking$[ebp], 0
	je	SHORT $LN79@PM_UpdateS
	mov	DWORD PTR tv283[ebp], 400		; 00000190H
	jmp	SHORT $LN80@PM_UpdateS
$LN79@PM_UpdateS:
	mov	DWORD PTR tv283[ebp], 300		; 0000012cH
$LN80@PM_UpdateS:
	mov	eax, DWORD PTR ?pmove@@3PAUplayermove_s@@A ; pmove
	mov	ecx, DWORD PTR tv283[ebp]
	mov	DWORD PTR [eax+148], ecx
$LN4@PM_UpdateS:

; 1038 : 				break;
; 1039 : 			}
; 1040 : 		}
; 1041 : 		
; 1042 : 		pmove->flTimeStepSound += flduck; // slower step time if ducking

	mov	eax, DWORD PTR ?pmove@@3PAUplayermove_s@@A ; pmove
	cvtsi2ss xmm0, DWORD PTR [eax+148]
	addss	xmm0, DWORD PTR _flduck$[ebp]
	cvttss2si ecx, xmm0
	mov	edx, DWORD PTR ?pmove@@3PAUplayermove_s@@A ; pmove
	mov	DWORD PTR [edx+148], ecx

; 1043 : 
; 1044 : 		// play the sound
; 1045 : 		// 35% volume if ducking
; 1046 : 		if ( pmove->flags & FL_DUCKING )

	mov	eax, DWORD PTR ?pmove@@3PAUplayermove_s@@A ; pmove
	mov	ecx, DWORD PTR [eax+184]
	and	ecx, 16384				; 00004000H
	je	SHORT $LN37@PM_UpdateS

; 1047 : 			fvol *= 0.35;

	cvtss2sd xmm0, DWORD PTR _fvol$[ebp]
	mulsd	xmm0, QWORD PTR __real@3fd6666666666666
	cvtsd2ss xmm0, xmm0
	movss	DWORD PTR _fvol$[ebp], xmm0
$LN37@PM_UpdateS:

; 1048 : 		
; 1049 : 		PM_PlayStepSound( step, fvol );

	push	ecx
	movss	xmm0, DWORD PTR _fvol$[ebp]
	movss	DWORD PTR [esp], xmm0
	mov	eax, DWORD PTR _step$[ebp]
	push	eax
	call	?PM_PlayStepSound@@YAXHM@Z		; PM_PlayStepSound
	add	esp, 8
$LN18@PM_UpdateS:
$LN1@PM_UpdateS:

; 1050 : 	}
; 1051 : }

	pop	edi
	pop	esi
	pop	ebx
	mov	esp, ebp
	pop	ebp
	ret	0
$LN82@PM_UpdateS:
	DD	$LN32@PM_UpdateS
	DD	$LN34@PM_UpdateS
	DD	$LN31@PM_UpdateS
	DD	$LN36@PM_UpdateS
	DD	$LN35@PM_UpdateS
	DD	$LN33@PM_UpdateS
	DD	$LN30@PM_UpdateS
$LN81@PM_UpdateS:
	DB	0
	DB	6
	DB	6
	DB	1
	DB	6
	DB	6
	DB	6
	DB	6
	DB	6
	DB	2
	DB	6
	DB	6
	DB	6
	DB	6
	DB	6
	DB	3
	DB	4
	DB	6
	DB	5
?PM_UpdateStepSound@@YAXH@Z ENDP			; PM_UpdateStepSound
_TEXT	ENDS
; Function compile flags: /Odtp /ZI
; File d:\!diffusion 2020\source code 2022\client-server\game_shared\playermove.cpp
;	COMDAT ?PM_CategorizeTextureType@@YAXXZ
_TEXT	SEGMENT
tv863 = -216						; size = 4
tv861 = -216						; size = 4
tv859 = -216						; size = 4
tv857 = -216						; size = 4
tv855 = -216						; size = 4
tv412 = -216						; size = 4
tv397 = -216						; size = 4
tv391 = -216						; size = 4
tv385 = -216						; size = 4
tv379 = -216						; size = 4
tv361 = -216						; size = 4
tv355 = -216						; size = 4
tv333 = -216						; size = 4
tv327 = -216						; size = 4
tv321 = -216						; size = 4
tv315 = -216						; size = 4
tv297 = -216						; size = 4
tv291 = -216						; size = 4
tv269 = -216						; size = 4
tv263 = -216						; size = 4
tv257 = -216						; size = 4
tv251 = -216						; size = 4
tv233 = -216						; size = 4
tv227 = -216						; size = 4
tv205 = -216						; size = 4
tv199 = -216						; size = 4
tv193 = -216						; size = 4
tv187 = -216						; size = 4
tv169 = -216						; size = 4
tv163 = -216						; size = 4
tv87 = -216						; size = 4
tv81 = -216						; size = 4
_endD$ = -148						; size = 12
_startD$ = -136						; size = 12
_endC$ = -124						; size = 12
_startC$ = -112						; size = 12
_endB$ = -100						; size = 12
_startB$ = -88						; size = 12
_endA$ = -76						; size = 12
_startA$ = -64						; size = 12
_TexturePlace$ = -52					; size = 4
_traceyD$ = -48						; size = 4
_traceyC$ = -44						; size = 4
_traceyB$ = -40						; size = 4
_traceyA$ = -36						; size = 4
_tracey$ = -32						; size = 4
_pTextureName$ = -28					; size = 4
_end$ = -24						; size = 12
_start$ = -12						; size = 12
?PM_CategorizeTextureType@@YAXXZ PROC			; PM_CategorizeTextureType, COMDAT

; 736  : {

	push	ebp
	mov	ebp, esp
	sub	esp, 216				; 000000d8H
	push	ebx
	push	esi
	push	edi

; 737  : 	if (pmove->movetype == MOVETYPE_NOCLIP)

	mov	eax, DWORD PTR ?pmove@@3PAUplayermove_s@@A ; pmove
	cmp	DWORD PTR [eax+220], 8
	jne	SHORT $LN4@PM_Categor

; 738  : 		return;

	jmp	$LN1@PM_Categor
$LN4@PM_Categor:

; 739  : 
; 740  : 	Vector start, end;

	lea	ecx, DWORD PTR _start$[ebp]
	call	??0Vector@@QAE@XZ			; Vector::Vector
	lea	ecx, DWORD PTR _end$[ebp]
	call	??0Vector@@QAE@XZ			; Vector::Vector

; 741  : 	const char *pTextureName;
; 742  : 	
; 743  : 	start = end = pmove->origin;

	mov	eax, DWORD PTR ?pmove@@3PAUplayermove_s@@A ; pmove
	add	eax, 56					; 00000038H
	mov	ecx, DWORD PTR [eax]
	mov	DWORD PTR _end$[ebp], ecx
	mov	edx, DWORD PTR [eax+4]
	mov	DWORD PTR _end$[ebp+4], edx
	mov	eax, DWORD PTR [eax+8]
	mov	DWORD PTR _end$[ebp+8], eax
	mov	ecx, DWORD PTR _end$[ebp]
	mov	DWORD PTR _start$[ebp], ecx
	mov	edx, DWORD PTR _end$[ebp+4]
	mov	DWORD PTR _start$[ebp+4], edx
	mov	eax, DWORD PTR _end$[ebp+8]
	mov	DWORD PTR _start$[ebp+8], eax

; 744  : 
; 745  : 	// diffusion - no more concrete sound when walking on the edge.
; 746  : 
; 747  : 	// default stuff
; 748  : 	pmove->sztexturename[0] = '\0';

	mov	eax, 1
	imul	ecx, eax, 0
	mov	edx, DWORD PTR ?pmove@@3PAUplayermove_s@@A ; pmove
	mov	BYTE PTR [edx+ecx+240], 0

; 749  : 	pmove->chtexturetype = CHAR_TEX_CONCRETE;

	mov	eax, DWORD PTR ?pmove@@3PAUplayermove_s@@A ; pmove
	mov	BYTE PTR [eax+496], 67			; 00000043H

; 750  : 
; 751  : 	// stick end point into the floor a bit, starting from the center of player's hull
; 752  : 	if( pmove->flags & FL_DUCKING )

	mov	eax, DWORD PTR ?pmove@@3PAUplayermove_s@@A ; pmove
	mov	ecx, DWORD PTR [eax+184]
	and	ecx, 16384				; 00004000H
	je	SHORT $LN5@PM_Categor

; 753  : 		end[2] -= 25;

	lea	ecx, DWORD PTR _end$[ebp]
	call	??BVector@@QAEPAMXZ			; Vector::operator float *
	mov	ecx, 4
	shl	ecx, 1
	add	eax, ecx
	mov	DWORD PTR tv81[ebp], eax
	mov	edx, DWORD PTR tv81[ebp]
	movss	xmm0, DWORD PTR [edx]
	subss	xmm0, DWORD PTR __real@41c80000
	mov	eax, DWORD PTR tv81[ebp]
	movss	DWORD PTR [eax], xmm0

; 754  : 	else

	jmp	SHORT $LN6@PM_Categor
$LN5@PM_Categor:

; 755  : 		end[2] -= 50;

	lea	ecx, DWORD PTR _end$[ebp]
	call	??BVector@@QAEPAMXZ			; Vector::operator float *
	mov	ecx, 4
	shl	ecx, 1
	add	eax, ecx
	mov	DWORD PTR tv87[ebp], eax
	mov	edx, DWORD PTR tv87[ebp]
	movss	xmm0, DWORD PTR [edx]
	subss	xmm0, DWORD PTR __real@42480000
	mov	eax, DWORD PTR tv87[ebp]
	movss	DWORD PTR [eax], xmm0
$LN6@PM_Categor:

; 756  : 
; 757  : 	if( pmove->effects & EF_UPSIDEDOWN )

	mov	eax, DWORD PTR ?pmove@@3PAUplayermove_s@@A ; pmove
	mov	ecx, DWORD PTR [eax+180]
	and	ecx, 4194304				; 00400000H
	je	SHORT $LN7@PM_Categor

; 758  : 		end[2] = -end[2]; // this still doesn't work correctly.

	lea	ecx, DWORD PTR _end$[ebp]
	call	??BVector@@QAEPAMXZ			; Vector::operator float *
	mov	ecx, 4
	shl	ecx, 1
	movss	xmm0, DWORD PTR [eax+ecx]
	xorps	xmm0, DWORD PTR __xmm@80000000800000008000000080000000
	lea	ecx, DWORD PTR _end$[ebp]
	movss	DWORD PTR tv855[ebp], xmm0
	call	??BVector@@QAEPAMXZ			; Vector::operator float *
	mov	edx, 4
	shl	edx, 1
	movss	xmm0, DWORD PTR tv855[ebp]
	movss	DWORD PTR [eax+edx], xmm0
$LN7@PM_Categor:

; 759  : 
; 760  : 	pmtrace_t	*tracey, *traceyA, *traceyB, *traceyC, *traceyD;
; 761  : 	
; 762  : 	// trace the center first
; 763  : 	tracey = pmove->PM_TraceLine( start, end, 0, 2, -1);

	push	-1
	push	2
	push	0
	lea	ecx, DWORD PTR _end$[ebp]
	call	??BVector@@QAEPAMXZ			; Vector::operator float *
	push	eax
	lea	ecx, DWORD PTR _start$[ebp]
	call	??BVector@@QAEPAMXZ			; Vector::operator float *
	push	eax
	mov	eax, DWORD PTR ?pmove@@3PAUplayermove_s@@A ; pmove
	mov	ecx, DWORD PTR [eax+324996]
	call	ecx
	add	esp, 20					; 00000014H
	mov	DWORD PTR _tracey$[ebp], eax

; 764  : 	// fraction is always 0.72 ideally, when standing on something, it gets higher on slopes, but usually not higher than 0.95
; 765  : //	pmove->Con_Printf("tracey fraction %.4f\n", tracey->fraction);
; 766  : 
; 767  : 	int TexturePlace = 0; // default value for the center

	mov	DWORD PTR _TexturePlace$[ebp], 0

; 768  : 	Vector startA, endA, startB, endB, startC, endC, startD, endD;

	lea	ecx, DWORD PTR _startA$[ebp]
	call	??0Vector@@QAE@XZ			; Vector::Vector
	lea	ecx, DWORD PTR _endA$[ebp]
	call	??0Vector@@QAE@XZ			; Vector::Vector
	lea	ecx, DWORD PTR _startB$[ebp]
	call	??0Vector@@QAE@XZ			; Vector::Vector
	lea	ecx, DWORD PTR _endB$[ebp]
	call	??0Vector@@QAE@XZ			; Vector::Vector
	lea	ecx, DWORD PTR _startC$[ebp]
	call	??0Vector@@QAE@XZ			; Vector::Vector
	lea	ecx, DWORD PTR _endC$[ebp]
	call	??0Vector@@QAE@XZ			; Vector::Vector
	lea	ecx, DWORD PTR _startD$[ebp]
	call	??0Vector@@QAE@XZ			; Vector::Vector
	lea	ecx, DWORD PTR _endD$[ebp]
	call	??0Vector@@QAE@XZ			; Vector::Vector

; 769  : 	startA = endA = startB = endB = startC = endC = startD = endD = pmove->origin;

	mov	eax, DWORD PTR ?pmove@@3PAUplayermove_s@@A ; pmove
	add	eax, 56					; 00000038H
	mov	ecx, DWORD PTR [eax]
	mov	DWORD PTR _endD$[ebp], ecx
	mov	edx, DWORD PTR [eax+4]
	mov	DWORD PTR _endD$[ebp+4], edx
	mov	eax, DWORD PTR [eax+8]
	mov	DWORD PTR _endD$[ebp+8], eax
	mov	ecx, DWORD PTR _endD$[ebp]
	mov	DWORD PTR _startD$[ebp], ecx
	mov	edx, DWORD PTR _endD$[ebp+4]
	mov	DWORD PTR _startD$[ebp+4], edx
	mov	eax, DWORD PTR _endD$[ebp+8]
	mov	DWORD PTR _startD$[ebp+8], eax
	mov	ecx, DWORD PTR _startD$[ebp]
	mov	DWORD PTR _endC$[ebp], ecx
	mov	edx, DWORD PTR _startD$[ebp+4]
	mov	DWORD PTR _endC$[ebp+4], edx
	mov	eax, DWORD PTR _startD$[ebp+8]
	mov	DWORD PTR _endC$[ebp+8], eax
	mov	ecx, DWORD PTR _endC$[ebp]
	mov	DWORD PTR _startC$[ebp], ecx
	mov	edx, DWORD PTR _endC$[ebp+4]
	mov	DWORD PTR _startC$[ebp+4], edx
	mov	eax, DWORD PTR _endC$[ebp+8]
	mov	DWORD PTR _startC$[ebp+8], eax
	mov	ecx, DWORD PTR _startC$[ebp]
	mov	DWORD PTR _endB$[ebp], ecx
	mov	edx, DWORD PTR _startC$[ebp+4]
	mov	DWORD PTR _endB$[ebp+4], edx
	mov	eax, DWORD PTR _startC$[ebp+8]
	mov	DWORD PTR _endB$[ebp+8], eax
	mov	ecx, DWORD PTR _endB$[ebp]
	mov	DWORD PTR _startB$[ebp], ecx
	mov	edx, DWORD PTR _endB$[ebp+4]
	mov	DWORD PTR _startB$[ebp+4], edx
	mov	eax, DWORD PTR _endB$[ebp+8]
	mov	DWORD PTR _startB$[ebp+8], eax
	mov	ecx, DWORD PTR _startB$[ebp]
	mov	DWORD PTR _endA$[ebp], ecx
	mov	edx, DWORD PTR _startB$[ebp+4]
	mov	DWORD PTR _endA$[ebp+4], edx
	mov	eax, DWORD PTR _startB$[ebp+8]
	mov	DWORD PTR _endA$[ebp+8], eax
	mov	ecx, DWORD PTR _endA$[ebp]
	mov	DWORD PTR _startA$[ebp], ecx
	mov	edx, DWORD PTR _endA$[ebp+4]
	mov	DWORD PTR _startA$[ebp+4], edx
	mov	eax, DWORD PTR _endA$[ebp+8]
	mov	DWORD PTR _startA$[ebp+8], eax

; 770  : 
; 771  : 	if( tracey->fraction < 1 )

	mov	eax, DWORD PTR _tracey$[ebp]
	movss	xmm0, DWORD PTR __real@3f800000
	comiss	xmm0, DWORD PTR [eax+16]
	jbe	SHORT $LN8@PM_Categor

; 772  : 	{
; 773  : 		// we made a hit from the center, so we'll handle from here
; 774  : 	}
; 775  : 	else

	jmp	$LN28@PM_Categor
$LN8@PM_Categor:

; 776  : 	{
; 777  : 		// we didn't make the hit from the center, looks like we are on the edge
; 778  : 		// time to check the corners!
; 779  : 
; 780  : 		// A
; 781  : 		if( pmove->flags & FL_DUCKING )

	mov	eax, DWORD PTR ?pmove@@3PAUplayermove_s@@A ; pmove
	mov	ecx, DWORD PTR [eax+184]
	and	ecx, 16384				; 00004000H
	je	SHORT $LN10@PM_Categor

; 782  : 			endA[2] -= 25;

	lea	ecx, DWORD PTR _endA$[ebp]
	call	??BVector@@QAEPAMXZ			; Vector::operator float *
	mov	ecx, 4
	shl	ecx, 1
	add	eax, ecx
	mov	DWORD PTR tv163[ebp], eax
	mov	edx, DWORD PTR tv163[ebp]
	movss	xmm0, DWORD PTR [edx]
	subss	xmm0, DWORD PTR __real@41c80000
	mov	eax, DWORD PTR tv163[ebp]
	movss	DWORD PTR [eax], xmm0

; 783  : 		else

	jmp	SHORT $LN11@PM_Categor
$LN10@PM_Categor:

; 784  : 			endA[2] -= 50;

	lea	ecx, DWORD PTR _endA$[ebp]
	call	??BVector@@QAEPAMXZ			; Vector::operator float *
	mov	ecx, 4
	shl	ecx, 1
	add	eax, ecx
	mov	DWORD PTR tv169[ebp], eax
	mov	edx, DWORD PTR tv169[ebp]
	movss	xmm0, DWORD PTR [edx]
	subss	xmm0, DWORD PTR __real@42480000
	mov	eax, DWORD PTR tv169[ebp]
	movss	DWORD PTR [eax], xmm0
$LN11@PM_Categor:

; 785  : 		if( pmove->effects & EF_UPSIDEDOWN )

	mov	eax, DWORD PTR ?pmove@@3PAUplayermove_s@@A ; pmove
	mov	ecx, DWORD PTR [eax+180]
	and	ecx, 4194304				; 00400000H
	je	SHORT $LN12@PM_Categor

; 786  : 			endA[2] = -endA[2];

	lea	ecx, DWORD PTR _endA$[ebp]
	call	??BVector@@QAEPAMXZ			; Vector::operator float *
	mov	ecx, 4
	shl	ecx, 1
	movss	xmm0, DWORD PTR [eax+ecx]
	xorps	xmm0, DWORD PTR __xmm@80000000800000008000000080000000
	lea	ecx, DWORD PTR _endA$[ebp]
	movss	DWORD PTR tv857[ebp], xmm0
	call	??BVector@@QAEPAMXZ			; Vector::operator float *
	mov	edx, 4
	shl	edx, 1
	movss	xmm0, DWORD PTR tv857[ebp]
	movss	DWORD PTR [eax+edx], xmm0
$LN12@PM_Categor:

; 787  : 		startA[0] -= 16; startA[1] -=16; endA[0] -= 16; endA[1] -= 16;

	lea	ecx, DWORD PTR _startA$[ebp]
	call	??BVector@@QAEPAMXZ			; Vector::operator float *
	mov	ecx, 4
	imul	edx, ecx, 0
	add	eax, edx
	mov	DWORD PTR tv187[ebp], eax
	mov	eax, DWORD PTR tv187[ebp]
	movss	xmm0, DWORD PTR [eax]
	subss	xmm0, DWORD PTR __real@41800000
	mov	ecx, DWORD PTR tv187[ebp]
	movss	DWORD PTR [ecx], xmm0
	lea	ecx, DWORD PTR _startA$[ebp]
	call	??BVector@@QAEPAMXZ			; Vector::operator float *
	mov	ecx, 4
	shl	ecx, 0
	add	eax, ecx
	mov	DWORD PTR tv193[ebp], eax
	mov	edx, DWORD PTR tv193[ebp]
	movss	xmm0, DWORD PTR [edx]
	subss	xmm0, DWORD PTR __real@41800000
	mov	eax, DWORD PTR tv193[ebp]
	movss	DWORD PTR [eax], xmm0
	lea	ecx, DWORD PTR _endA$[ebp]
	call	??BVector@@QAEPAMXZ			; Vector::operator float *
	mov	ecx, 4
	imul	edx, ecx, 0
	add	eax, edx
	mov	DWORD PTR tv199[ebp], eax
	mov	eax, DWORD PTR tv199[ebp]
	movss	xmm0, DWORD PTR [eax]
	subss	xmm0, DWORD PTR __real@41800000
	mov	ecx, DWORD PTR tv199[ebp]
	movss	DWORD PTR [ecx], xmm0
	lea	ecx, DWORD PTR _endA$[ebp]
	call	??BVector@@QAEPAMXZ			; Vector::operator float *
	mov	ecx, 4
	shl	ecx, 0
	add	eax, ecx
	mov	DWORD PTR tv205[ebp], eax
	mov	edx, DWORD PTR tv205[ebp]
	movss	xmm0, DWORD PTR [edx]
	subss	xmm0, DWORD PTR __real@41800000
	mov	eax, DWORD PTR tv205[ebp]
	movss	DWORD PTR [eax], xmm0

; 788  : 		traceyA = pmove->PM_TraceLine( startA, endA, 0, 2, -1);

	push	-1
	push	2
	push	0
	lea	ecx, DWORD PTR _endA$[ebp]
	call	??BVector@@QAEPAMXZ			; Vector::operator float *
	push	eax
	lea	ecx, DWORD PTR _startA$[ebp]
	call	??BVector@@QAEPAMXZ			; Vector::operator float *
	push	eax
	mov	eax, DWORD PTR ?pmove@@3PAUplayermove_s@@A ; pmove
	mov	ecx, DWORD PTR [eax+324996]
	call	ecx
	add	esp, 20					; 00000014H
	mov	DWORD PTR _traceyA$[ebp], eax

; 789  : //		pmove->Con_Printf("traceyA fraction %.4f\n", traceyA->fraction);
; 790  : 		if( traceyA->fraction < 1 )

	mov	eax, DWORD PTR _traceyA$[ebp]
	movss	xmm0, DWORD PTR __real@3f800000
	comiss	xmm0, DWORD PTR [eax+16]
	jbe	SHORT $LN13@PM_Categor

; 791  : 		{
; 792  : 			TexturePlace = 1;

	mov	DWORD PTR _TexturePlace$[ebp], 1

; 793  : 			goto CategorizeContinue;

	jmp	$LN14@PM_Categor
	jmp	$CategorizeContinue$42
$LN13@PM_Categor:

; 794  : 		}
; 795  : 		
; 796  : 		// B
; 797  : 		if( pmove->flags & FL_DUCKING )

	mov	eax, DWORD PTR ?pmove@@3PAUplayermove_s@@A ; pmove
	mov	ecx, DWORD PTR [eax+184]
	and	ecx, 16384				; 00004000H
	je	SHORT $LN15@PM_Categor

; 798  : 			endB[2] -= 25;

	lea	ecx, DWORD PTR _endB$[ebp]
	call	??BVector@@QAEPAMXZ			; Vector::operator float *
	mov	ecx, 4
	shl	ecx, 1
	add	eax, ecx
	mov	DWORD PTR tv227[ebp], eax
	mov	edx, DWORD PTR tv227[ebp]
	movss	xmm0, DWORD PTR [edx]
	subss	xmm0, DWORD PTR __real@41c80000
	mov	eax, DWORD PTR tv227[ebp]
	movss	DWORD PTR [eax], xmm0

; 799  : 		else

	jmp	SHORT $LN16@PM_Categor
$LN15@PM_Categor:

; 800  : 			endB[2] -= 50;

	lea	ecx, DWORD PTR _endB$[ebp]
	call	??BVector@@QAEPAMXZ			; Vector::operator float *
	mov	ecx, 4
	shl	ecx, 1
	add	eax, ecx
	mov	DWORD PTR tv233[ebp], eax
	mov	edx, DWORD PTR tv233[ebp]
	movss	xmm0, DWORD PTR [edx]
	subss	xmm0, DWORD PTR __real@42480000
	mov	eax, DWORD PTR tv233[ebp]
	movss	DWORD PTR [eax], xmm0
$LN16@PM_Categor:

; 801  : 		if( pmove->effects & EF_UPSIDEDOWN )

	mov	eax, DWORD PTR ?pmove@@3PAUplayermove_s@@A ; pmove
	mov	ecx, DWORD PTR [eax+180]
	and	ecx, 4194304				; 00400000H
	je	SHORT $LN17@PM_Categor

; 802  : 			endB[2] = -endB[2];

	lea	ecx, DWORD PTR _endB$[ebp]
	call	??BVector@@QAEPAMXZ			; Vector::operator float *
	mov	ecx, 4
	shl	ecx, 1
	movss	xmm0, DWORD PTR [eax+ecx]
	xorps	xmm0, DWORD PTR __xmm@80000000800000008000000080000000
	lea	ecx, DWORD PTR _endB$[ebp]
	movss	DWORD PTR tv859[ebp], xmm0
	call	??BVector@@QAEPAMXZ			; Vector::operator float *
	mov	edx, 4
	shl	edx, 1
	movss	xmm0, DWORD PTR tv859[ebp]
	movss	DWORD PTR [eax+edx], xmm0
$LN17@PM_Categor:

; 803  : 		startB[0] += 16; startB[1] -=16; endB[0] += 16; endB[1] -= 16;

	lea	ecx, DWORD PTR _startB$[ebp]
	call	??BVector@@QAEPAMXZ			; Vector::operator float *
	mov	ecx, 4
	imul	edx, ecx, 0
	add	eax, edx
	mov	DWORD PTR tv251[ebp], eax
	mov	eax, DWORD PTR tv251[ebp]
	movss	xmm0, DWORD PTR [eax]
	addss	xmm0, DWORD PTR __real@41800000
	mov	ecx, DWORD PTR tv251[ebp]
	movss	DWORD PTR [ecx], xmm0
	lea	ecx, DWORD PTR _startB$[ebp]
	call	??BVector@@QAEPAMXZ			; Vector::operator float *
	mov	ecx, 4
	shl	ecx, 0
	add	eax, ecx
	mov	DWORD PTR tv257[ebp], eax
	mov	edx, DWORD PTR tv257[ebp]
	movss	xmm0, DWORD PTR [edx]
	subss	xmm0, DWORD PTR __real@41800000
	mov	eax, DWORD PTR tv257[ebp]
	movss	DWORD PTR [eax], xmm0
	lea	ecx, DWORD PTR _endB$[ebp]
	call	??BVector@@QAEPAMXZ			; Vector::operator float *
	mov	ecx, 4
	imul	edx, ecx, 0
	add	eax, edx
	mov	DWORD PTR tv263[ebp], eax
	mov	eax, DWORD PTR tv263[ebp]
	movss	xmm0, DWORD PTR [eax]
	addss	xmm0, DWORD PTR __real@41800000
	mov	ecx, DWORD PTR tv263[ebp]
	movss	DWORD PTR [ecx], xmm0
	lea	ecx, DWORD PTR _endB$[ebp]
	call	??BVector@@QAEPAMXZ			; Vector::operator float *
	mov	ecx, 4
	shl	ecx, 0
	add	eax, ecx
	mov	DWORD PTR tv269[ebp], eax
	mov	edx, DWORD PTR tv269[ebp]
	movss	xmm0, DWORD PTR [edx]
	subss	xmm0, DWORD PTR __real@41800000
	mov	eax, DWORD PTR tv269[ebp]
	movss	DWORD PTR [eax], xmm0

; 804  : 		traceyB = pmove->PM_TraceLine( startB, endB, 0, 2, -1);

	push	-1
	push	2
	push	0
	lea	ecx, DWORD PTR _endB$[ebp]
	call	??BVector@@QAEPAMXZ			; Vector::operator float *
	push	eax
	lea	ecx, DWORD PTR _startB$[ebp]
	call	??BVector@@QAEPAMXZ			; Vector::operator float *
	push	eax
	mov	eax, DWORD PTR ?pmove@@3PAUplayermove_s@@A ; pmove
	mov	ecx, DWORD PTR [eax+324996]
	call	ecx
	add	esp, 20					; 00000014H
	mov	DWORD PTR _traceyB$[ebp], eax

; 805  : //		pmove->Con_Printf("traceyB fraction %.4f\n", traceyB->fraction);
; 806  : 		if( traceyB->fraction < 1 )

	mov	eax, DWORD PTR _traceyB$[ebp]
	movss	xmm0, DWORD PTR __real@3f800000
	comiss	xmm0, DWORD PTR [eax+16]
	jbe	SHORT $LN18@PM_Categor

; 807  : 		{
; 808  : 			TexturePlace = 2;

	mov	DWORD PTR _TexturePlace$[ebp], 2

; 809  : 			goto CategorizeContinue;

	jmp	$LN19@PM_Categor
	jmp	$CategorizeContinue$42
$LN18@PM_Categor:

; 810  : 		}
; 811  : 
; 812  : 		// C
; 813  : 		if( pmove->flags & FL_DUCKING )

	mov	eax, DWORD PTR ?pmove@@3PAUplayermove_s@@A ; pmove
	mov	ecx, DWORD PTR [eax+184]
	and	ecx, 16384				; 00004000H
	je	SHORT $LN20@PM_Categor

; 814  : 			endC[2] -= 25;

	lea	ecx, DWORD PTR _endC$[ebp]
	call	??BVector@@QAEPAMXZ			; Vector::operator float *
	mov	ecx, 4
	shl	ecx, 1
	add	eax, ecx
	mov	DWORD PTR tv291[ebp], eax
	mov	edx, DWORD PTR tv291[ebp]
	movss	xmm0, DWORD PTR [edx]
	subss	xmm0, DWORD PTR __real@41c80000
	mov	eax, DWORD PTR tv291[ebp]
	movss	DWORD PTR [eax], xmm0

; 815  : 		else

	jmp	SHORT $LN21@PM_Categor
$LN20@PM_Categor:

; 816  : 			endC[2] -= 50;

	lea	ecx, DWORD PTR _endC$[ebp]
	call	??BVector@@QAEPAMXZ			; Vector::operator float *
	mov	ecx, 4
	shl	ecx, 1
	add	eax, ecx
	mov	DWORD PTR tv297[ebp], eax
	mov	edx, DWORD PTR tv297[ebp]
	movss	xmm0, DWORD PTR [edx]
	subss	xmm0, DWORD PTR __real@42480000
	mov	eax, DWORD PTR tv297[ebp]
	movss	DWORD PTR [eax], xmm0
$LN21@PM_Categor:

; 817  : 		if( pmove->effects & EF_UPSIDEDOWN )

	mov	eax, DWORD PTR ?pmove@@3PAUplayermove_s@@A ; pmove
	mov	ecx, DWORD PTR [eax+180]
	and	ecx, 4194304				; 00400000H
	je	SHORT $LN22@PM_Categor

; 818  : 			endC[2] = -endC[2];

	lea	ecx, DWORD PTR _endC$[ebp]
	call	??BVector@@QAEPAMXZ			; Vector::operator float *
	mov	ecx, 4
	shl	ecx, 1
	movss	xmm0, DWORD PTR [eax+ecx]
	xorps	xmm0, DWORD PTR __xmm@80000000800000008000000080000000
	lea	ecx, DWORD PTR _endC$[ebp]
	movss	DWORD PTR tv861[ebp], xmm0
	call	??BVector@@QAEPAMXZ			; Vector::operator float *
	mov	edx, 4
	shl	edx, 1
	movss	xmm0, DWORD PTR tv861[ebp]
	movss	DWORD PTR [eax+edx], xmm0
$LN22@PM_Categor:

; 819  : 		startC[0] += 16; startC[1] +=16; endC[0] += 16; endC[1] += 16;

	lea	ecx, DWORD PTR _startC$[ebp]
	call	??BVector@@QAEPAMXZ			; Vector::operator float *
	mov	ecx, 4
	imul	edx, ecx, 0
	add	eax, edx
	mov	DWORD PTR tv315[ebp], eax
	mov	eax, DWORD PTR tv315[ebp]
	movss	xmm0, DWORD PTR [eax]
	addss	xmm0, DWORD PTR __real@41800000
	mov	ecx, DWORD PTR tv315[ebp]
	movss	DWORD PTR [ecx], xmm0
	lea	ecx, DWORD PTR _startC$[ebp]
	call	??BVector@@QAEPAMXZ			; Vector::operator float *
	mov	ecx, 4
	shl	ecx, 0
	add	eax, ecx
	mov	DWORD PTR tv321[ebp], eax
	mov	edx, DWORD PTR tv321[ebp]
	movss	xmm0, DWORD PTR [edx]
	addss	xmm0, DWORD PTR __real@41800000
	mov	eax, DWORD PTR tv321[ebp]
	movss	DWORD PTR [eax], xmm0
	lea	ecx, DWORD PTR _endC$[ebp]
	call	??BVector@@QAEPAMXZ			; Vector::operator float *
	mov	ecx, 4
	imul	edx, ecx, 0
	add	eax, edx
	mov	DWORD PTR tv327[ebp], eax
	mov	eax, DWORD PTR tv327[ebp]
	movss	xmm0, DWORD PTR [eax]
	addss	xmm0, DWORD PTR __real@41800000
	mov	ecx, DWORD PTR tv327[ebp]
	movss	DWORD PTR [ecx], xmm0
	lea	ecx, DWORD PTR _endC$[ebp]
	call	??BVector@@QAEPAMXZ			; Vector::operator float *
	mov	ecx, 4
	shl	ecx, 0
	add	eax, ecx
	mov	DWORD PTR tv333[ebp], eax
	mov	edx, DWORD PTR tv333[ebp]
	movss	xmm0, DWORD PTR [edx]
	addss	xmm0, DWORD PTR __real@41800000
	mov	eax, DWORD PTR tv333[ebp]
	movss	DWORD PTR [eax], xmm0

; 820  : 		traceyC = pmove->PM_TraceLine( startC, endC, 0, 2, -1);

	push	-1
	push	2
	push	0
	lea	ecx, DWORD PTR _endC$[ebp]
	call	??BVector@@QAEPAMXZ			; Vector::operator float *
	push	eax
	lea	ecx, DWORD PTR _startC$[ebp]
	call	??BVector@@QAEPAMXZ			; Vector::operator float *
	push	eax
	mov	eax, DWORD PTR ?pmove@@3PAUplayermove_s@@A ; pmove
	mov	ecx, DWORD PTR [eax+324996]
	call	ecx
	add	esp, 20					; 00000014H
	mov	DWORD PTR _traceyC$[ebp], eax

; 821  : //		pmove->Con_Printf("traceyC fraction %.4f\n", traceyC->fraction);
; 822  : 		if( traceyC->fraction < 1 )

	mov	eax, DWORD PTR _traceyC$[ebp]
	movss	xmm0, DWORD PTR __real@3f800000
	comiss	xmm0, DWORD PTR [eax+16]
	jbe	SHORT $LN23@PM_Categor

; 823  : 		{
; 824  : 			TexturePlace = 3;

	mov	DWORD PTR _TexturePlace$[ebp], 3

; 825  : 			goto CategorizeContinue;

	jmp	$LN24@PM_Categor
	jmp	$CategorizeContinue$42
$LN23@PM_Categor:

; 826  : 		}
; 827  : 
; 828  : 		// D
; 829  : 		if( pmove->flags & FL_DUCKING )

	mov	eax, DWORD PTR ?pmove@@3PAUplayermove_s@@A ; pmove
	mov	ecx, DWORD PTR [eax+184]
	and	ecx, 16384				; 00004000H
	je	SHORT $LN25@PM_Categor

; 830  : 			endD[2] -= 25;

	lea	ecx, DWORD PTR _endD$[ebp]
	call	??BVector@@QAEPAMXZ			; Vector::operator float *
	mov	ecx, 4
	shl	ecx, 1
	add	eax, ecx
	mov	DWORD PTR tv355[ebp], eax
	mov	edx, DWORD PTR tv355[ebp]
	movss	xmm0, DWORD PTR [edx]
	subss	xmm0, DWORD PTR __real@41c80000
	mov	eax, DWORD PTR tv355[ebp]
	movss	DWORD PTR [eax], xmm0

; 831  : 		else

	jmp	SHORT $LN26@PM_Categor
$LN25@PM_Categor:

; 832  : 			endD[2] -= 50;

	lea	ecx, DWORD PTR _endD$[ebp]
	call	??BVector@@QAEPAMXZ			; Vector::operator float *
	mov	ecx, 4
	shl	ecx, 1
	add	eax, ecx
	mov	DWORD PTR tv361[ebp], eax
	mov	edx, DWORD PTR tv361[ebp]
	movss	xmm0, DWORD PTR [edx]
	subss	xmm0, DWORD PTR __real@42480000
	mov	eax, DWORD PTR tv361[ebp]
	movss	DWORD PTR [eax], xmm0
$LN26@PM_Categor:

; 833  : 		if( pmove->effects & EF_UPSIDEDOWN )

	mov	eax, DWORD PTR ?pmove@@3PAUplayermove_s@@A ; pmove
	mov	ecx, DWORD PTR [eax+180]
	and	ecx, 4194304				; 00400000H
	je	SHORT $LN27@PM_Categor

; 834  : 			endD[2] = -endD[2];

	lea	ecx, DWORD PTR _endD$[ebp]
	call	??BVector@@QAEPAMXZ			; Vector::operator float *
	mov	ecx, 4
	shl	ecx, 1
	movss	xmm0, DWORD PTR [eax+ecx]
	xorps	xmm0, DWORD PTR __xmm@80000000800000008000000080000000
	lea	ecx, DWORD PTR _endD$[ebp]
	movss	DWORD PTR tv863[ebp], xmm0
	call	??BVector@@QAEPAMXZ			; Vector::operator float *
	mov	edx, 4
	shl	edx, 1
	movss	xmm0, DWORD PTR tv863[ebp]
	movss	DWORD PTR [eax+edx], xmm0
$LN27@PM_Categor:

; 835  : 		startD[0] -= 16; startD[1] +=16; endD[0] -= 16; endD[1] += 16;

	lea	ecx, DWORD PTR _startD$[ebp]
	call	??BVector@@QAEPAMXZ			; Vector::operator float *
	mov	ecx, 4
	imul	edx, ecx, 0
	add	eax, edx
	mov	DWORD PTR tv379[ebp], eax
	mov	eax, DWORD PTR tv379[ebp]
	movss	xmm0, DWORD PTR [eax]
	subss	xmm0, DWORD PTR __real@41800000
	mov	ecx, DWORD PTR tv379[ebp]
	movss	DWORD PTR [ecx], xmm0
	lea	ecx, DWORD PTR _startD$[ebp]
	call	??BVector@@QAEPAMXZ			; Vector::operator float *
	mov	ecx, 4
	shl	ecx, 0
	add	eax, ecx
	mov	DWORD PTR tv385[ebp], eax
	mov	edx, DWORD PTR tv385[ebp]
	movss	xmm0, DWORD PTR [edx]
	addss	xmm0, DWORD PTR __real@41800000
	mov	eax, DWORD PTR tv385[ebp]
	movss	DWORD PTR [eax], xmm0
	lea	ecx, DWORD PTR _endD$[ebp]
	call	??BVector@@QAEPAMXZ			; Vector::operator float *
	mov	ecx, 4
	imul	edx, ecx, 0
	add	eax, edx
	mov	DWORD PTR tv391[ebp], eax
	mov	eax, DWORD PTR tv391[ebp]
	movss	xmm0, DWORD PTR [eax]
	subss	xmm0, DWORD PTR __real@41800000
	mov	ecx, DWORD PTR tv391[ebp]
	movss	DWORD PTR [ecx], xmm0
	lea	ecx, DWORD PTR _endD$[ebp]
	call	??BVector@@QAEPAMXZ			; Vector::operator float *
	mov	ecx, 4
	shl	ecx, 0
	add	eax, ecx
	mov	DWORD PTR tv397[ebp], eax
	mov	edx, DWORD PTR tv397[ebp]
	movss	xmm0, DWORD PTR [edx]
	addss	xmm0, DWORD PTR __real@41800000
	mov	eax, DWORD PTR tv397[ebp]
	movss	DWORD PTR [eax], xmm0

; 836  : 		traceyD = pmove->PM_TraceLine( startD, endD, 0, 2, -1);

	push	-1
	push	2
	push	0
	lea	ecx, DWORD PTR _endD$[ebp]
	call	??BVector@@QAEPAMXZ			; Vector::operator float *
	push	eax
	lea	ecx, DWORD PTR _startD$[ebp]
	call	??BVector@@QAEPAMXZ			; Vector::operator float *
	push	eax
	mov	eax, DWORD PTR ?pmove@@3PAUplayermove_s@@A ; pmove
	mov	ecx, DWORD PTR [eax+324996]
	call	ecx
	add	esp, 20					; 00000014H
	mov	DWORD PTR _traceyD$[ebp], eax

; 837  : //		pmove->Con_Printf("traceyD fraction %.4f\n", traceyD->fraction);
; 838  : 		if( traceyD->fraction < 1 )

	mov	eax, DWORD PTR _traceyD$[ebp]
	movss	xmm0, DWORD PTR __real@3f800000
	comiss	xmm0, DWORD PTR [eax+16]
	jbe	SHORT $LN28@PM_Categor

; 839  : 		{
; 840  : 			TexturePlace = 4;

	mov	DWORD PTR _TexturePlace$[ebp], 4
$LN28@PM_Categor:
$LN14@PM_Categor:
$LN19@PM_Categor:
$LN24@PM_Categor:
$CategorizeContinue$42:

; 841  : 			goto CategorizeContinue;
; 842  : 		}
; 843  : 	}
; 844  : 
; 845  : CategorizeContinue:	
; 846  : 	switch( TexturePlace )

	mov	eax, DWORD PTR _TexturePlace$[ebp]
	mov	DWORD PTR tv412[ebp], eax
	mov	ecx, DWORD PTR tv412[ebp]
	sub	ecx, 1
	mov	DWORD PTR tv412[ebp], ecx
	cmp	DWORD PTR tv412[ebp], 3
	ja	SHORT $LN30@PM_Categor
	mov	edx, DWORD PTR tv412[ebp]
	jmp	DWORD PTR $LN41@PM_Categor[edx*4]
$LN30@PM_Categor:

; 847  : 	{
; 848  : 	default:
; 849  : 	case 0: pTextureName = pmove->PM_TraceTexture( pmove->onground, start, end ); break;	// center

	lea	ecx, DWORD PTR _end$[ebp]
	call	??BVector@@QAEPAMXZ			; Vector::operator float *
	push	eax
	lea	ecx, DWORD PTR _start$[ebp]
	call	??BVector@@QAEPAMXZ			; Vector::operator float *
	push	eax
	mov	eax, DWORD PTR ?pmove@@3PAUplayermove_s@@A ; pmove
	mov	ecx, DWORD PTR [eax+224]
	push	ecx
	mov	edx, DWORD PTR ?pmove@@3PAUplayermove_s@@A ; pmove
	mov	eax, DWORD PTR [edx+325048]
	call	eax
	add	esp, 12					; 0000000cH
	mov	DWORD PTR _pTextureName$[ebp], eax
	jmp	$LN2@PM_Categor
$LN31@PM_Categor:

; 850  : 	case 1: pTextureName = pmove->PM_TraceTexture( pmove->onground, startA, endA ); /*pmove->Con_Printf("A\n");*/ break;

	lea	ecx, DWORD PTR _endA$[ebp]
	call	??BVector@@QAEPAMXZ			; Vector::operator float *
	push	eax
	lea	ecx, DWORD PTR _startA$[ebp]
	call	??BVector@@QAEPAMXZ			; Vector::operator float *
	push	eax
	mov	eax, DWORD PTR ?pmove@@3PAUplayermove_s@@A ; pmove
	mov	ecx, DWORD PTR [eax+224]
	push	ecx
	mov	edx, DWORD PTR ?pmove@@3PAUplayermove_s@@A ; pmove
	mov	eax, DWORD PTR [edx+325048]
	call	eax
	add	esp, 12					; 0000000cH
	mov	DWORD PTR _pTextureName$[ebp], eax
	jmp	$LN2@PM_Categor
$LN32@PM_Categor:

; 851  : 	case 2: pTextureName = pmove->PM_TraceTexture( pmove->onground, startB, endB ); /*pmove->Con_Printf("B\n");*/ break;

	lea	ecx, DWORD PTR _endB$[ebp]
	call	??BVector@@QAEPAMXZ			; Vector::operator float *
	push	eax
	lea	ecx, DWORD PTR _startB$[ebp]
	call	??BVector@@QAEPAMXZ			; Vector::operator float *
	push	eax
	mov	eax, DWORD PTR ?pmove@@3PAUplayermove_s@@A ; pmove
	mov	ecx, DWORD PTR [eax+224]
	push	ecx
	mov	edx, DWORD PTR ?pmove@@3PAUplayermove_s@@A ; pmove
	mov	eax, DWORD PTR [edx+325048]
	call	eax
	add	esp, 12					; 0000000cH
	mov	DWORD PTR _pTextureName$[ebp], eax
	jmp	SHORT $LN2@PM_Categor
$LN33@PM_Categor:

; 852  : 	case 3: pTextureName = pmove->PM_TraceTexture( pmove->onground, startC, endC ); /*pmove->Con_Printf("C\n");*/ break;

	lea	ecx, DWORD PTR _endC$[ebp]
	call	??BVector@@QAEPAMXZ			; Vector::operator float *
	push	eax
	lea	ecx, DWORD PTR _startC$[ebp]
	call	??BVector@@QAEPAMXZ			; Vector::operator float *
	push	eax
	mov	eax, DWORD PTR ?pmove@@3PAUplayermove_s@@A ; pmove
	mov	ecx, DWORD PTR [eax+224]
	push	ecx
	mov	edx, DWORD PTR ?pmove@@3PAUplayermove_s@@A ; pmove
	mov	eax, DWORD PTR [edx+325048]
	call	eax
	add	esp, 12					; 0000000cH
	mov	DWORD PTR _pTextureName$[ebp], eax
	jmp	SHORT $LN2@PM_Categor
$LN34@PM_Categor:

; 853  : 	case 4: pTextureName = pmove->PM_TraceTexture( pmove->onground, startD, endD ); /*pmove->Con_Printf("D\n");*/ break;

	lea	ecx, DWORD PTR _endD$[ebp]
	call	??BVector@@QAEPAMXZ			; Vector::operator float *
	push	eax
	lea	ecx, DWORD PTR _startD$[ebp]
	call	??BVector@@QAEPAMXZ			; Vector::operator float *
	push	eax
	mov	eax, DWORD PTR ?pmove@@3PAUplayermove_s@@A ; pmove
	mov	ecx, DWORD PTR [eax+224]
	push	ecx
	mov	edx, DWORD PTR ?pmove@@3PAUplayermove_s@@A ; pmove
	mov	eax, DWORD PTR [edx+325048]
	call	eax
	add	esp, 12					; 0000000cH
	mov	DWORD PTR _pTextureName$[ebp], eax
$LN2@PM_Categor:

; 854  : 	}
; 855  : 
; 856  : 	if ( !pTextureName )

	cmp	DWORD PTR _pTextureName$[ebp], 0
	jne	SHORT $LN35@PM_Categor

; 857  : 		return;

	jmp	$LN1@PM_Categor
$LN35@PM_Categor:

; 858  : 
; 859  : 	// strip leading '-0' or '+0~' or '{' or '!'
; 860  : 	if (*pTextureName == '-' || *pTextureName == '+')

	mov	eax, DWORD PTR _pTextureName$[ebp]
	movsx	ecx, BYTE PTR [eax]
	cmp	ecx, 45					; 0000002dH
	je	SHORT $LN37@PM_Categor
	mov	eax, DWORD PTR _pTextureName$[ebp]
	movsx	ecx, BYTE PTR [eax]
	cmp	ecx, 43					; 0000002bH
	jne	SHORT $LN36@PM_Categor
$LN37@PM_Categor:

; 861  : 		pTextureName += 2;

	mov	eax, DWORD PTR _pTextureName$[ebp]
	add	eax, 2
	mov	DWORD PTR _pTextureName$[ebp], eax
$LN36@PM_Categor:

; 862  : 
; 863  : 	if (*pTextureName == '{' || *pTextureName == '!' || *pTextureName == '~' || *pTextureName == ' ')

	mov	eax, DWORD PTR _pTextureName$[ebp]
	movsx	ecx, BYTE PTR [eax]
	cmp	ecx, 123				; 0000007bH
	je	SHORT $LN39@PM_Categor
	mov	eax, DWORD PTR _pTextureName$[ebp]
	movsx	ecx, BYTE PTR [eax]
	cmp	ecx, 33					; 00000021H
	je	SHORT $LN39@PM_Categor
	mov	eax, DWORD PTR _pTextureName$[ebp]
	movsx	ecx, BYTE PTR [eax]
	cmp	ecx, 126				; 0000007eH
	je	SHORT $LN39@PM_Categor
	mov	eax, DWORD PTR _pTextureName$[ebp]
	movsx	ecx, BYTE PTR [eax]
	cmp	ecx, 32					; 00000020H
	jne	SHORT $LN38@PM_Categor
$LN39@PM_Categor:

; 864  : 		pTextureName++;

	mov	eax, DWORD PTR _pTextureName$[ebp]
	add	eax, 1
	mov	DWORD PTR _pTextureName$[ebp], eax
$LN38@PM_Categor:

; 865  : 	// '}}'
; 866  : 	
; 867  : 	strcpy( pmove->sztexturename, pTextureName);

	mov	eax, DWORD PTR _pTextureName$[ebp]
	push	eax
	mov	ecx, DWORD PTR ?pmove@@3PAUplayermove_s@@A ; pmove
	add	ecx, 240				; 000000f0H
	push	ecx
	call	_strcpy
	add	esp, 8

; 868  : 	pmove->sztexturename[ CBTEXTURENAMEMAX - 1 ] = 0;

	mov	eax, 1
	imul	ecx, eax, 23
	mov	edx, DWORD PTR ?pmove@@3PAUplayermove_s@@A ; pmove
	mov	BYTE PTR [edx+ecx+240], 0

; 869  : 		
; 870  : 	// get texture type
; 871  : 	pmove->chtexturetype = PM_FindTextureType( pmove->sztexturename );

	mov	eax, DWORD PTR ?pmove@@3PAUplayermove_s@@A ; pmove
	add	eax, 240				; 000000f0H
	push	eax
	call	?PM_FindTextureType@@YADPAD@Z		; PM_FindTextureType
	add	esp, 4
	mov	ecx, DWORD PTR ?pmove@@3PAUplayermove_s@@A ; pmove
	mov	BYTE PTR [ecx+496], al
$LN1@PM_Categor:

; 872  : }

	pop	edi
	pop	esi
	pop	ebx
	mov	esp, ebp
	pop	ebp
	ret	0
$LN41@PM_Categor:
	DD	$LN31@PM_Categor
	DD	$LN32@PM_Categor
	DD	$LN33@PM_Categor
	DD	$LN34@PM_Categor
?PM_CategorizeTextureType@@YAXXZ ENDP			; PM_CategorizeTextureType
_TEXT	ENDS
; Function compile flags: /Odtp /ZI
; File d:\!diffusion 2020\source code 2022\client-server\game_shared\playermove.cpp
;	COMDAT ?PM_MapTextureTypeStepType@@YAHD@Z
_TEXT	SEGMENT
tv65 = -68						; size = 4
_chTextureType$ = 8					; size = 1
?PM_MapTextureTypeStepType@@YAHD@Z PROC			; PM_MapTextureTypeStepType, COMDAT

; 704  : {

	push	ebp
	mov	ebp, esp
	sub	esp, 68					; 00000044H
	push	ebx
	push	esi
	push	edi

; 705  : 	switch (chTextureType)

	movsx	eax, BYTE PTR _chTextureType$[ebp]
	mov	DWORD PTR tv65[ebp], eax
	mov	ecx, DWORD PTR tv65[ebp]
	sub	ecx, 68					; 00000044H
	mov	DWORD PTR tv65[ebp], ecx
	cmp	DWORD PTR tv65[ebp], 21			; 00000015H
	ja	SHORT $LN4@PM_MapText
	mov	edx, DWORD PTR tv65[ebp]
	jmp	DWORD PTR $LN20@PM_MapText[edx*4]
$LN4@PM_MapText:

; 706  : 	{
; 707  : 		default:
; 708  : 		case CHAR_TEX_CONCRETE:	return STEP_CONCRETE; break;

	xor	eax, eax
	jmp	SHORT $LN1@PM_MapText
	jmp	SHORT $LN1@PM_MapText
$LN5@PM_MapText:

; 709  : 		case CHAR_TEX_METAL: return STEP_METAL;	break;

	mov	eax, 1
	jmp	SHORT $LN1@PM_MapText
	jmp	SHORT $LN1@PM_MapText
$LN6@PM_MapText:

; 710  : 		case CHAR_TEX_DIRT: return STEP_DIRT; break;

	mov	eax, 2
	jmp	SHORT $LN1@PM_MapText
	jmp	SHORT $LN1@PM_MapText
$LN7@PM_MapText:

; 711  : 		case CHAR_TEX_VENT: return STEP_VENT; break;

	mov	eax, 3
	jmp	SHORT $LN1@PM_MapText
	jmp	SHORT $LN1@PM_MapText
$LN8@PM_MapText:

; 712  : 		case CHAR_TEX_GRATE: return STEP_GRATE; break;

	mov	eax, 4
	jmp	SHORT $LN1@PM_MapText
	jmp	SHORT $LN1@PM_MapText
$LN9@PM_MapText:

; 713  : 		case CHAR_TEX_TILE: return STEP_TILE; break;

	mov	eax, 5
	jmp	SHORT $LN1@PM_MapText
	jmp	SHORT $LN1@PM_MapText
$LN10@PM_MapText:

; 714  : 		case CHAR_TEX_SLOSH: return STEP_SLOSH; break;

	mov	eax, 6
	jmp	SHORT $LN1@PM_MapText
	jmp	SHORT $LN1@PM_MapText
$LN11@PM_MapText:

; 715  : 
; 716  : 		case CHAR_TEX_WOOD: return STEP_WOOD; break; // UNDONE those two should be unified

	mov	eax, 9
	jmp	SHORT $LN1@PM_MapText
	jmp	SHORT $LN1@PM_MapText
$LN12@PM_MapText:

; 717  : 		case CHAR_TEX_WOODSTEP: return STEP_WOOD; break;

	mov	eax, 9
	jmp	SHORT $LN1@PM_MapText
	jmp	SHORT $LN1@PM_MapText
$LN13@PM_MapText:

; 718  : 
; 719  : 		case CHAR_TEX_SNOW: return STEP_SNOW; break;

	mov	eax, 10					; 0000000aH
	jmp	SHORT $LN1@PM_MapText
	jmp	SHORT $LN1@PM_MapText
$LN14@PM_MapText:

; 720  : 		case CHAR_TEX_CARPET: return STEP_CARPET; break;

	mov	eax, 11					; 0000000bH
	jmp	SHORT $LN1@PM_MapText
	jmp	SHORT $LN1@PM_MapText
$LN15@PM_MapText:

; 721  : 		case CHAR_TEX_GRASS: return STEP_GRASS; break;

	mov	eax, 12					; 0000000cH
	jmp	SHORT $LN1@PM_MapText
	jmp	SHORT $LN1@PM_MapText
$LN16@PM_MapText:

; 722  : 		case CHAR_TEX_GRAVEL: return STEP_GRAVEL; break;

	mov	eax, 13					; 0000000dH
	jmp	SHORT $LN1@PM_MapText
	jmp	SHORT $LN1@PM_MapText
$LN17@PM_MapText:

; 723  : 		case CHAR_TEX_GLASS: return STEP_GLASS; break;

	mov	eax, 14					; 0000000eH
	jmp	SHORT $LN1@PM_MapText
	jmp	SHORT $LN1@PM_MapText
$LN18@PM_MapText:

; 724  : 		case CHAR_TEX_NONE: return STEP_NONE; break;

	mov	eax, 15					; 0000000fH
$LN1@PM_MapText:

; 725  : 	}
; 726  : }

	pop	edi
	pop	esi
	pop	ebx
	mov	esp, ebp
	pop	ebp
	ret	0
$LN20@PM_MapText:
	DD	$LN6@PM_MapText
	DD	$LN15@PM_MapText
	DD	$LN4@PM_MapText
	DD	$LN8@PM_MapText
	DD	$LN4@PM_MapText
	DD	$LN4@PM_MapText
	DD	$LN13@PM_MapText
	DD	$LN12@PM_MapText
	DD	$LN4@PM_MapText
	DD	$LN5@PM_MapText
	DD	$LN18@PM_MapText
	DD	$LN4@PM_MapText
	DD	$LN4@PM_MapText
	DD	$LN14@PM_MapText
	DD	$LN16@PM_MapText
	DD	$LN10@PM_MapText
	DD	$LN9@PM_MapText
	DD	$LN4@PM_MapText
	DD	$LN7@PM_MapText
	DD	$LN11@PM_MapText
	DD	$LN4@PM_MapText
	DD	$LN17@PM_MapText
?PM_MapTextureTypeStepType@@YAHD@Z ENDP			; PM_MapTextureTypeStepType
_TEXT	ENDS
; Function compile flags: /Odtp /ZI
; File d:\!diffusion 2020\source code 2022\client-server\game_shared\playermove.cpp
;	COMDAT ?PM_PlayStepSound@@YAXHM@Z
_TEXT	SEGMENT
tv856 = -140						; size = 4
tv803 = -140						; size = 4
tv718 = -140						; size = 4
tv665 = -140						; size = 4
tv612 = -140						; size = 4
tv559 = -140						; size = 4
tv520 = -140						; size = 4
tv490 = -140						; size = 4
tv412 = -140						; size = 4
tv361 = -140						; size = 4
tv324 = -140						; size = 4
tv289 = -140						; size = 4
tv259 = -140						; size = 4
tv229 = -140						; size = 4
tv199 = -140						; size = 4
tv155 = -140						; size = 4
tv143 = -140						; size = 4
tv68 = -140						; size = 4
$T1 = -136						; size = 12
$T2 = -120						; size = 12
_SplashOrg$ = -40					; size = 12
_height$ = -28						; size = 4
_hvel$ = -16						; size = 12
_irand$ = -4						; size = 4
_step$ = 8						; size = 4
_fvol$ = 12						; size = 4
?PM_PlayStepSound@@YAXHM@Z PROC				; PM_PlayStepSound, COMDAT

; 356  : {

	push	ebp
	mov	ebp, esp
	sub	esp, 140				; 0000008cH
	push	ebx
	push	esi
	push	edi

; 357  : 	static int iSkipStep = 0;
; 358  : 	int irand;
; 359  : 	Vector hvel;

	lea	ecx, DWORD PTR _hvel$[ebp]
	call	??0Vector@@QAE@XZ			; Vector::Vector

; 360  : 	const char* szValue;
; 361  : 	int iType;
; 362  : 
; 363  : 	pmove->iStepLeft = !pmove->iStepLeft;

	mov	eax, DWORD PTR ?pmove@@3PAUplayermove_s@@A ; pmove
	cmp	DWORD PTR [eax+152], 0
	jne	SHORT $LN144@PM_PlaySte
	mov	DWORD PTR tv68[ebp], 1
	jmp	SHORT $LN145@PM_PlaySte
$LN144@PM_PlaySte:
	mov	DWORD PTR tv68[ebp], 0
$LN145@PM_PlaySte:
	mov	ecx, DWORD PTR ?pmove@@3PAUplayermove_s@@A ; pmove
	mov	edx, DWORD PTR tv68[ebp]
	mov	DWORD PTR [ecx+152], edx

; 364  : 
; 365  : 	if ( !pmove->runfuncs )

	mov	eax, DWORD PTR ?pmove@@3PAUplayermove_s@@A ; pmove
	cmp	DWORD PTR [eax+325040], 0
	jne	SHORT $LN36@PM_PlaySte

; 366  : 		return;

	jmp	$LN1@PM_PlaySte
$LN36@PM_PlaySte:

; 367  : 
; 368  : 	// diffusion - small price to pay for a drone without step sounds...ugh
; 369  : 	if( pmove->flags & FL_ONTRAIN )

	mov	eax, DWORD PTR ?pmove@@3PAUplayermove_s@@A ; pmove
	mov	ecx, DWORD PTR [eax+184]
	and	ecx, 16777216				; 01000000H
	je	SHORT $LN37@PM_PlaySte

; 370  : 		return;

	jmp	$LN1@PM_PlaySte
$LN37@PM_PlaySte:

; 371  : 
; 372  : 	irand = pmove->RandomLong(0,1) + ( pmove->iStepLeft * 2 );

	push	1
	push	0
	mov	eax, DWORD PTR ?pmove@@3PAUplayermove_s@@A ; pmove
	mov	ecx, DWORD PTR [eax+325000]
	call	ecx
	add	esp, 8
	mov	edx, DWORD PTR ?pmove@@3PAUplayermove_s@@A ; pmove
	mov	ecx, DWORD PTR [edx+152]
	lea	edx, DWORD PTR [eax+ecx*2]
	mov	DWORD PTR _irand$[ebp], edx

; 373  : 
; 374  : 	// FIXME mp_footsteps needs to be a movevar
; 375  : 	if ( pmove->multiplayer && !pmove->movevars->footsteps )

	mov	eax, DWORD PTR ?pmove@@3PAUplayermove_s@@A ; pmove
	cmp	DWORD PTR [eax+8], 0
	je	SHORT $LN38@PM_PlaySte
	mov	eax, DWORD PTR ?pmove@@3PAUplayermove_s@@A ; pmove
	mov	ecx, DWORD PTR [eax+324848]
	cmp	DWORD PTR [ecx+64], 0
	jne	SHORT $LN38@PM_PlaySte

; 376  : 		return;

	jmp	$LN1@PM_PlaySte
$LN38@PM_PlaySte:

; 377  : 
; 378  : 	hvel = pmove->velocity;

	mov	eax, DWORD PTR ?pmove@@3PAUplayermove_s@@A ; pmove
	add	eax, 92					; 0000005cH
	mov	ecx, DWORD PTR [eax]
	mov	DWORD PTR _hvel$[ebp], ecx
	mov	edx, DWORD PTR [eax+4]
	mov	DWORD PTR _hvel$[ebp+4], edx
	mov	eax, DWORD PTR [eax+8]
	mov	DWORD PTR _hvel$[ebp+8], eax

; 379  : 	hvel[2] = 0.0;

	lea	ecx, DWORD PTR _hvel$[ebp]
	call	??BVector@@QAEPAMXZ			; Vector::operator float *
	mov	ecx, 4
	shl	ecx, 1
	xorps	xmm0, xmm0
	movss	DWORD PTR [eax+ecx], xmm0

; 380  : 
; 381  : 	// diffusion - ???
; 382  : 	/*
; 383  : 	switch ( step )
; 384  : 	{
; 385  : 	case STEP_LADDER:
; 386  : 		szValue = pmove->PM_Info_ValueForKey( pmove->physinfo, "lsnd" );
; 387  : 		if (szValue[0] && szValue[1])
; 388  : 		{
; 389  : 			PM_PlayGroupSound( szValue, irand, fvol );
; 390  : 			return;
; 391  : 		}
; 392  : 		break;
; 393  : 	case STEP_SLOSH:
; 394  : 		szValue = pmove->PM_Info_ValueForKey( pmove->physinfo, "psnd" );
; 395  : 		if (szValue[0] && szValue[1])
; 396  : 		{
; 397  : 			PM_PlayGroupSound( szValue, irand, fvol );
; 398  : 			return;
; 399  : 		}
; 400  : 		break;
; 401  : 	case STEP_WADE:
; 402  : 		szValue = pmove->PM_Info_ValueForKey( pmove->physinfo, "wsnd" );
; 403  : 		if (szValue[0] && szValue[1])
; 404  : 		{
; 405  : 			if ( iSkipStep == 0 )
; 406  : 			{ iSkipStep++; return; }
; 407  : 
; 408  : 			if ( iSkipStep++ == 3 )
; 409  : 			{ iSkipStep = 0; }
; 410  : 
; 411  : 			PM_PlayGroupSound( szValue, irand, fvol );
; 412  : 			return;
; 413  : 		}
; 414  : 		break;
; 415  : 	default:
; 416  : 		szValue = pmove->PM_Info_ValueForKey( pmove->physinfo, "ssnd" );
; 417  : 		if (szValue[0] && szValue[1])
; 418  : 		{
; 419  : 			PM_PlayGroupSound( szValue, irand, fvol );
; 420  : 			return;
; 421  : 		}
; 422  : 		iType = atoi(pmove->PM_Info_ValueForKey( pmove->physinfo, "stype" ));
; 423  : 		if (iType == -1)
; 424  : 			step = STEP_CONCRETE;
; 425  : 		else if (iType)
; 426  : 			step = iType;
; 427  : 	}
; 428  : 	*/
; 429  : 
; 430  : 	// irand - 0,1 for right foot, 2,3 for left foot
; 431  : 	// used to alternate left and right foot
; 432  : 	// FIXME, move to player state
; 433  : #ifdef CLIENT_DLL
; 434  : 	float height = (pmove->player_maxs[pmove->usehull][2] - pmove->player_mins[pmove->usehull][2]) * 0.5f;

	mov	eax, DWORD PTR ?pmove@@3PAUplayermove_s@@A ; pmove
	imul	ecx, DWORD PTR [eax+188], 12
	mov	edx, DWORD PTR ?pmove@@3PAUplayermove_s@@A ; pmove
	lea	ecx, DWORD PTR [edx+ecx+324900]
	call	??BVector@@QAEPAMXZ			; Vector::operator float *
	mov	esi, eax
	mov	edi, 4
	shl	edi, 1
	mov	eax, DWORD PTR ?pmove@@3PAUplayermove_s@@A ; pmove
	imul	ecx, DWORD PTR [eax+188], 12
	mov	edx, DWORD PTR ?pmove@@3PAUplayermove_s@@A ; pmove
	lea	ecx, DWORD PTR [edx+ecx+324852]
	call	??BVector@@QAEPAMXZ			; Vector::operator float *
	mov	ecx, 4
	shl	ecx, 1
	movss	xmm0, DWORD PTR [esi+edi]
	subss	xmm0, DWORD PTR [eax+ecx]
	mulss	xmm0, DWORD PTR __real@3f000000
	movss	DWORD PTR _height$[ebp], xmm0

; 435  : 	Vector SplashOrg = pmove->origin;

	mov	eax, DWORD PTR ?pmove@@3PAUplayermove_s@@A ; pmove
	add	eax, 56					; 00000038H
	push	eax
	lea	ecx, DWORD PTR _SplashOrg$[ebp]
	call	??0Vector@@QAE@ABV0@@Z			; Vector::Vector

; 436  : #endif
; 437  : 	switch (step)

	mov	eax, DWORD PTR _step$[ebp]
	mov	DWORD PTR tv143[ebp], eax
	mov	ecx, DWORD PTR tv143[ebp]
	sub	ecx, 1
	mov	DWORD PTR tv143[ebp], ecx
	cmp	DWORD PTR tv143[ebp], 15		; 0000000fH
	ja	SHORT $LN39@PM_PlaySte
	mov	edx, DWORD PTR tv143[ebp]
	jmp	DWORD PTR $LN146@PM_PlaySte[edx*4]
$LN39@PM_PlaySte:

; 438  : 	{
; 439  : 	default:
; 440  : 	case STEP_CONCRETE:
; 441  : 		if ( !pmove->RandomLong(0,3) )

	push	3
	push	0
	mov	eax, DWORD PTR ?pmove@@3PAUplayermove_s@@A ; pmove
	mov	ecx, DWORD PTR [eax+325000]
	call	ecx
	add	esp, 8
	test	eax, eax
	jne	SHORT $LN40@PM_PlaySte

; 442  : 			irand = pmove->RandomLong(4,5);

	push	5
	push	4
	mov	eax, DWORD PTR ?pmove@@3PAUplayermove_s@@A ; pmove
	mov	ecx, DWORD PTR [eax+325000]
	call	ecx
	add	esp, 8
	mov	DWORD PTR _irand$[ebp], eax
$LN40@PM_PlaySte:

; 443  : 		switch (irand)

	mov	eax, DWORD PTR _irand$[ebp]
	mov	DWORD PTR tv155[ebp], eax
	cmp	DWORD PTR tv155[ebp], 5
	ja	$LN4@PM_PlaySte
	mov	ecx, DWORD PTR tv155[ebp]
	jmp	DWORD PTR $LN147@PM_PlaySte[ecx*4]
$LN41@PM_PlaySte:

; 444  : 		{
; 445  : 		// right foot
; 446  : 		case 0:	pmove->PM_PlaySound( CHAN_BODY, "footsteps/step1.wav", fvol, ATTN_NORM, 0, PITCH_NORM );	break;

	push	100					; 00000064H
	push	0
	push	ecx
	movss	xmm0, DWORD PTR __real@3f4ccccd
	movss	DWORD PTR [esp], xmm0
	push	ecx
	movss	xmm0, DWORD PTR _fvol$[ebp]
	movss	DWORD PTR [esp], xmm0
	push	OFFSET ??_C@_0BE@EILPPNKE@footsteps?1step1?4wav?$AA@
	push	4
	mov	eax, DWORD PTR ?pmove@@3PAUplayermove_s@@A ; pmove
	mov	ecx, DWORD PTR [eax+325044]
	call	ecx
	add	esp, 24					; 00000018H
	jmp	$LN4@PM_PlaySte
$LN42@PM_PlaySte:

; 447  : 		case 1:	pmove->PM_PlaySound( CHAN_BODY, "footsteps/step2.wav", fvol, ATTN_NORM, 0, PITCH_NORM );	break;

	push	100					; 00000064H
	push	0
	push	ecx
	movss	xmm0, DWORD PTR __real@3f4ccccd
	movss	DWORD PTR [esp], xmm0
	push	ecx
	movss	xmm0, DWORD PTR _fvol$[ebp]
	movss	DWORD PTR [esp], xmm0
	push	OFFSET ??_C@_0BE@MOCLIPAK@footsteps?1step2?4wav?$AA@
	push	4
	mov	eax, DWORD PTR ?pmove@@3PAUplayermove_s@@A ; pmove
	mov	ecx, DWORD PTR [eax+325044]
	call	ecx
	add	esp, 24					; 00000018H
	jmp	$LN4@PM_PlaySte
$LN43@PM_PlaySte:

; 448  : 		case 2:	pmove->PM_PlaySound( CHAN_BODY, "footsteps/step3.wav", fvol, ATTN_NORM, 0, PITCH_NORM );	break;

	push	100					; 00000064H
	push	0
	push	ecx
	movss	xmm0, DWORD PTR __real@3f4ccccd
	movss	DWORD PTR [esp], xmm0
	push	ecx
	movss	xmm0, DWORD PTR _fvol$[ebp]
	movss	DWORD PTR [esp], xmm0
	push	OFFSET ??_C@_0BE@FHHFMKP@footsteps?1step3?4wav?$AA@
	push	4
	mov	eax, DWORD PTR ?pmove@@3PAUplayermove_s@@A ; pmove
	mov	ecx, DWORD PTR [eax+325044]
	call	ecx
	add	esp, 24					; 00000018H
	jmp	$LN4@PM_PlaySte
$LN44@PM_PlaySte:

; 449  : 		// left foot
; 450  : 		case 3:	pmove->PM_PlaySound( CHAN_BODY, "footsteps/step4.wav", fvol, ATTN_NORM, 0, PITCH_NORM );	break;

	push	100					; 00000064H
	push	0
	push	ecx
	movss	xmm0, DWORD PTR __real@3f4ccccd
	movss	DWORD PTR [esp], xmm0
	push	ecx
	movss	xmm0, DWORD PTR _fvol$[ebp]
	movss	DWORD PTR [esp], xmm0
	push	OFFSET ??_C@_0BE@BIHCGMBH@footsteps?1step4?4wav?$AA@
	push	4
	mov	eax, DWORD PTR ?pmove@@3PAUplayermove_s@@A ; pmove
	mov	ecx, DWORD PTR [eax+325044]
	call	ecx
	add	esp, 24					; 00000018H
	jmp	SHORT $LN4@PM_PlaySte
$LN45@PM_PlaySte:

; 451  : 		case 4:	pmove->PM_PlaySound( CHAN_BODY, "footsteps/step5.wav", fvol, ATTN_NORM, 0, PITCH_NORM );	break;

	push	100					; 00000064H
	push	0
	push	ecx
	movss	xmm0, DWORD PTR __real@3f4ccccd
	movss	DWORD PTR [esp], xmm0
	push	ecx
	movss	xmm0, DWORD PTR _fvol$[ebp]
	movss	DWORD PTR [esp], xmm0
	push	OFFSET ??_C@_0BE@NDCOLPLC@footsteps?1step5?4wav?$AA@
	push	4
	mov	eax, DWORD PTR ?pmove@@3PAUplayermove_s@@A ; pmove
	mov	ecx, DWORD PTR [eax+325044]
	call	ecx
	add	esp, 24					; 00000018H
	jmp	SHORT $LN4@PM_PlaySte
$LN46@PM_PlaySte:

; 452  : 		case 5:	pmove->PM_PlaySound( CHAN_BODY, "footsteps/step6.wav", fvol, ATTN_NORM, 0, PITCH_NORM );	break;

	push	100					; 00000064H
	push	0
	push	ecx
	movss	xmm0, DWORD PTR __real@3f4ccccd
	movss	DWORD PTR [esp], xmm0
	push	ecx
	movss	xmm0, DWORD PTR _fvol$[ebp]
	movss	DWORD PTR [esp], xmm0
	push	OFFSET ??_C@_0BE@FFLKMNBM@footsteps?1step6?4wav?$AA@
	push	4
	mov	eax, DWORD PTR ?pmove@@3PAUplayermove_s@@A ; pmove
	mov	ecx, DWORD PTR [eax+325044]
	call	ecx
	add	esp, 24					; 00000018H
$LN4@PM_PlaySte:

; 453  : 		}
; 454  : 		break;

	jmp	$LN2@PM_PlaySte
$LN47@PM_PlaySte:

; 455  : 	case STEP_NONE:
; 456  : 		break;

	jmp	$LN2@PM_PlaySte
$LN48@PM_PlaySte:

; 457  : 	case STEP_METAL:
; 458  : 		switch(irand)

	mov	eax, DWORD PTR _irand$[ebp]
	mov	DWORD PTR tv199[ebp], eax
	cmp	DWORD PTR tv199[ebp], 3
	ja	$LN6@PM_PlaySte
	mov	ecx, DWORD PTR tv199[ebp]
	jmp	DWORD PTR $LN148@PM_PlaySte[ecx*4]
$LN49@PM_PlaySte:

; 459  : 		{
; 460  : 		// right foot
; 461  : 		case 0:	pmove->PM_PlaySound( CHAN_BODY, "footsteps/metal1.wav", fvol, ATTN_NORM, 0, PITCH_NORM );	break;

	push	100					; 00000064H
	push	0
	push	ecx
	movss	xmm0, DWORD PTR __real@3f4ccccd
	movss	DWORD PTR [esp], xmm0
	push	ecx
	movss	xmm0, DWORD PTR _fvol$[ebp]
	movss	DWORD PTR [esp], xmm0
	push	OFFSET ??_C@_0BF@HOEKEMNF@footsteps?1metal1?4wav?$AA@
	push	4
	mov	eax, DWORD PTR ?pmove@@3PAUplayermove_s@@A ; pmove
	mov	ecx, DWORD PTR [eax+325044]
	call	ecx
	add	esp, 24					; 00000018H
	jmp	$LN6@PM_PlaySte
$LN50@PM_PlaySte:

; 462  : 		case 1:	pmove->PM_PlaySound( CHAN_BODY, "footsteps/metal3.wav", fvol, ATTN_NORM, 0, PITCH_NORM );	break;

	push	100					; 00000064H
	push	0
	push	ecx
	movss	xmm0, DWORD PTR __real@3f4ccccd
	movss	DWORD PTR [esp], xmm0
	push	ecx
	movss	xmm0, DWORD PTR _fvol$[ebp]
	movss	DWORD PTR [esp], xmm0
	push	OFFSET ??_C@_0BF@DDICONNO@footsteps?1metal3?4wav?$AA@
	push	4
	mov	eax, DWORD PTR ?pmove@@3PAUplayermove_s@@A ; pmove
	mov	ecx, DWORD PTR [eax+325044]
	call	ecx
	add	esp, 24					; 00000018H
	jmp	SHORT $LN6@PM_PlaySte
$LN51@PM_PlaySte:

; 463  : 		// left foot
; 464  : 		case 2:	pmove->PM_PlaySound( CHAN_BODY, "footsteps/metal2.wav", fvol, ATTN_NORM, 0, PITCH_NORM );	break;

	push	100					; 00000064H
	push	0
	push	ecx
	movss	xmm0, DWORD PTR __real@3f4ccccd
	movss	DWORD PTR [esp], xmm0
	push	ecx
	movss	xmm0, DWORD PTR _fvol$[ebp]
	movss	DWORD PTR [esp], xmm0
	push	OFFSET ??_C@_0BF@PINODOHL@footsteps?1metal2?4wav?$AA@
	push	4
	mov	eax, DWORD PTR ?pmove@@3PAUplayermove_s@@A ; pmove
	mov	ecx, DWORD PTR [eax+325044]
	call	ecx
	add	esp, 24					; 00000018H
	jmp	SHORT $LN6@PM_PlaySte
$LN52@PM_PlaySte:

; 465  : 		case 3:	pmove->PM_PlaySound( CHAN_BODY, "footsteps/metal4.wav", fvol, ATTN_NORM, 0, PITCH_NORM );	break;

	push	100					; 00000064H
	push	0
	push	ecx
	movss	xmm0, DWORD PTR __real@3f4ccccd
	movss	DWORD PTR [esp], xmm0
	push	ecx
	movss	xmm0, DWORD PTR _fvol$[ebp]
	movss	DWORD PTR [esp], xmm0
	push	OFFSET ??_C@_0BF@COIHNNGG@footsteps?1metal4?4wav?$AA@
	push	4
	mov	eax, DWORD PTR ?pmove@@3PAUplayermove_s@@A ; pmove
	mov	ecx, DWORD PTR [eax+325044]
	call	ecx
	add	esp, 24					; 00000018H
$LN6@PM_PlaySte:

; 466  : 		}
; 467  : 		break;

	jmp	$LN2@PM_PlaySte
$LN53@PM_PlaySte:

; 468  : 	case STEP_DIRT:
; 469  : 		switch(irand)

	mov	eax, DWORD PTR _irand$[ebp]
	mov	DWORD PTR tv229[ebp], eax
	cmp	DWORD PTR tv229[ebp], 3
	ja	$LN8@PM_PlaySte
	mov	ecx, DWORD PTR tv229[ebp]
	jmp	DWORD PTR $LN149@PM_PlaySte[ecx*4]
$LN54@PM_PlaySte:

; 470  : 		{
; 471  : 		// right foot
; 472  : 		case 0:	pmove->PM_PlaySound( CHAN_BODY, "footsteps/dirt1.wav", fvol, ATTN_NORM, 0, PITCH_NORM );	break;

	push	100					; 00000064H
	push	0
	push	ecx
	movss	xmm0, DWORD PTR __real@3f4ccccd
	movss	DWORD PTR [esp], xmm0
	push	ecx
	movss	xmm0, DWORD PTR _fvol$[ebp]
	movss	DWORD PTR [esp], xmm0
	push	OFFSET ??_C@_0BE@FCHDNODC@footsteps?1dirt1?4wav?$AA@
	push	4
	mov	eax, DWORD PTR ?pmove@@3PAUplayermove_s@@A ; pmove
	mov	ecx, DWORD PTR [eax+325044]
	call	ecx
	add	esp, 24					; 00000018H
	jmp	$LN8@PM_PlaySte
$LN55@PM_PlaySte:

; 473  : 		case 1:	pmove->PM_PlaySound( CHAN_BODY, "footsteps/dirt3.wav", fvol, ATTN_NORM, 0, PITCH_NORM );	break;

	push	100					; 00000064H
	push	0
	push	ecx
	movss	xmm0, DWORD PTR __real@3f4ccccd
	movss	DWORD PTR [esp], xmm0
	push	ecx
	movss	xmm0, DWORD PTR _fvol$[ebp]
	movss	DWORD PTR [esp], xmm0
	push	OFFSET ??_C@_0BE@BPLLHPDJ@footsteps?1dirt3?4wav?$AA@
	push	4
	mov	eax, DWORD PTR ?pmove@@3PAUplayermove_s@@A ; pmove
	mov	ecx, DWORD PTR [eax+325044]
	call	ecx
	add	esp, 24					; 00000018H
	jmp	SHORT $LN8@PM_PlaySte
$LN56@PM_PlaySte:

; 474  : 		// left foot
; 475  : 		case 2:	pmove->PM_PlaySound( CHAN_BODY, "footsteps/dirt2.wav", fvol, ATTN_NORM, 0, PITCH_NORM );	break;

	push	100					; 00000064H
	push	0
	push	ecx
	movss	xmm0, DWORD PTR __real@3f4ccccd
	movss	DWORD PTR [esp], xmm0
	push	ecx
	movss	xmm0, DWORD PTR _fvol$[ebp]
	movss	DWORD PTR [esp], xmm0
	push	OFFSET ??_C@_0BE@NEOHKMJM@footsteps?1dirt2?4wav?$AA@
	push	4
	mov	eax, DWORD PTR ?pmove@@3PAUplayermove_s@@A ; pmove
	mov	ecx, DWORD PTR [eax+325044]
	call	ecx
	add	esp, 24					; 00000018H
	jmp	SHORT $LN8@PM_PlaySte
$LN57@PM_PlaySte:

; 476  : 		case 3:	pmove->PM_PlaySound( CHAN_BODY, "footsteps/dirt4.wav", fvol, ATTN_NORM, 0, PITCH_NORM );	break;

	push	100					; 00000064H
	push	0
	push	ecx
	movss	xmm0, DWORD PTR __real@3f4ccccd
	movss	DWORD PTR [esp], xmm0
	push	ecx
	movss	xmm0, DWORD PTR _fvol$[ebp]
	movss	DWORD PTR [esp], xmm0
	push	OFFSET ??_C@_0BE@CLOEPIB@footsteps?1dirt4?4wav?$AA@
	push	4
	mov	eax, DWORD PTR ?pmove@@3PAUplayermove_s@@A ; pmove
	mov	ecx, DWORD PTR [eax+325044]
	call	ecx
	add	esp, 24					; 00000018H
$LN8@PM_PlaySte:

; 477  : 		}
; 478  : 		break;

	jmp	$LN2@PM_PlaySte
$LN58@PM_PlaySte:

; 479  : 	case STEP_VENT:
; 480  : 		switch(irand)

	mov	eax, DWORD PTR _irand$[ebp]
	mov	DWORD PTR tv259[ebp], eax
	cmp	DWORD PTR tv259[ebp], 3
	ja	$LN10@PM_PlaySte
	mov	ecx, DWORD PTR tv259[ebp]
	jmp	DWORD PTR $LN150@PM_PlaySte[ecx*4]
$LN59@PM_PlaySte:

; 481  : 		{
; 482  : 		// right foot
; 483  : 		case 0:	pmove->PM_PlaySound( CHAN_BODY, "footsteps/duct1.wav", fvol, ATTN_NORM, 0, PITCH_NORM );	break;

	push	100					; 00000064H
	push	0
	push	ecx
	movss	xmm0, DWORD PTR __real@3f4ccccd
	movss	DWORD PTR [esp], xmm0
	push	ecx
	movss	xmm0, DWORD PTR _fvol$[ebp]
	movss	DWORD PTR [esp], xmm0
	push	OFFSET ??_C@_0BE@KIJGFOOC@footsteps?1duct1?4wav?$AA@
	push	4
	mov	eax, DWORD PTR ?pmove@@3PAUplayermove_s@@A ; pmove
	mov	ecx, DWORD PTR [eax+325044]
	call	ecx
	add	esp, 24					; 00000018H
	jmp	$LN10@PM_PlaySte
$LN60@PM_PlaySte:

; 484  : 		case 1:	pmove->PM_PlaySound( CHAN_BODY, "footsteps/duct3.wav", fvol, ATTN_NORM, 0, PITCH_NORM );	break;

	push	100					; 00000064H
	push	0
	push	ecx
	movss	xmm0, DWORD PTR __real@3f4ccccd
	movss	DWORD PTR [esp], xmm0
	push	ecx
	movss	xmm0, DWORD PTR _fvol$[ebp]
	movss	DWORD PTR [esp], xmm0
	push	OFFSET ??_C@_0BE@OFFOPPOJ@footsteps?1duct3?4wav?$AA@
	push	4
	mov	eax, DWORD PTR ?pmove@@3PAUplayermove_s@@A ; pmove
	mov	ecx, DWORD PTR [eax+325044]
	call	ecx
	add	esp, 24					; 00000018H
	jmp	SHORT $LN10@PM_PlaySte
$LN61@PM_PlaySte:

; 485  : 		// left foot
; 486  : 		case 2:	pmove->PM_PlaySound( CHAN_BODY, "footsteps/duct2.wav", fvol, ATTN_NORM, 0, PITCH_NORM );	break;

	push	100					; 00000064H
	push	0
	push	ecx
	movss	xmm0, DWORD PTR __real@3f4ccccd
	movss	DWORD PTR [esp], xmm0
	push	ecx
	movss	xmm0, DWORD PTR _fvol$[ebp]
	movss	DWORD PTR [esp], xmm0
	push	OFFSET ??_C@_0BE@COACCMEM@footsteps?1duct2?4wav?$AA@
	push	4
	mov	eax, DWORD PTR ?pmove@@3PAUplayermove_s@@A ; pmove
	mov	ecx, DWORD PTR [eax+325044]
	call	ecx
	add	esp, 24					; 00000018H
	jmp	SHORT $LN10@PM_PlaySte
$LN62@PM_PlaySte:

; 487  : 		case 3:	pmove->PM_PlaySound( CHAN_BODY, "footsteps/duct4.wav", fvol, ATTN_NORM, 0, PITCH_NORM );	break;

	push	100					; 00000064H
	push	0
	push	ecx
	movss	xmm0, DWORD PTR __real@3f4ccccd
	movss	DWORD PTR [esp], xmm0
	push	ecx
	movss	xmm0, DWORD PTR _fvol$[ebp]
	movss	DWORD PTR [esp], xmm0
	push	OFFSET ??_C@_0BE@PIFLMPFB@footsteps?1duct4?4wav?$AA@
	push	4
	mov	eax, DWORD PTR ?pmove@@3PAUplayermove_s@@A ; pmove
	mov	ecx, DWORD PTR [eax+325044]
	call	ecx
	add	esp, 24					; 00000018H
$LN10@PM_PlaySte:

; 488  : 		}
; 489  : 		break;

	jmp	$LN2@PM_PlaySte
$LN63@PM_PlaySte:

; 490  : 	case STEP_GRATE:
; 491  : 		switch(irand)

	mov	eax, DWORD PTR _irand$[ebp]
	mov	DWORD PTR tv289[ebp], eax
	cmp	DWORD PTR tv289[ebp], 3
	ja	$LN12@PM_PlaySte
	mov	ecx, DWORD PTR tv289[ebp]
	jmp	DWORD PTR $LN151@PM_PlaySte[ecx*4]
$LN64@PM_PlaySte:

; 492  : 		{
; 493  : 		// right foot
; 494  : 		case 0:	pmove->PM_PlaySound( CHAN_BODY, "footsteps/grate1.wav", fvol, ATTN_NORM, 0, PITCH_NORM );	break;

	push	100					; 00000064H
	push	0
	push	ecx
	movss	xmm0, DWORD PTR __real@3f4ccccd
	movss	DWORD PTR [esp], xmm0
	push	ecx
	movss	xmm0, DWORD PTR _fvol$[ebp]
	movss	DWORD PTR [esp], xmm0
	push	OFFSET ??_C@_0BF@BOADPDGC@footsteps?1grate1?4wav?$AA@
	push	4
	mov	eax, DWORD PTR ?pmove@@3PAUplayermove_s@@A ; pmove
	mov	ecx, DWORD PTR [eax+325044]
	call	ecx
	add	esp, 24					; 00000018H
	jmp	$LN12@PM_PlaySte
$LN65@PM_PlaySte:

; 495  : 		case 1:	pmove->PM_PlaySound( CHAN_BODY, "footsteps/grate3.wav", fvol, ATTN_NORM, 0, PITCH_NORM );	break;

	push	100					; 00000064H
	push	0
	push	ecx
	movss	xmm0, DWORD PTR __real@3f4ccccd
	movss	DWORD PTR [esp], xmm0
	push	ecx
	movss	xmm0, DWORD PTR _fvol$[ebp]
	movss	DWORD PTR [esp], xmm0
	push	OFFSET ??_C@_0BF@FDMLFCGJ@footsteps?1grate3?4wav?$AA@
	push	4
	mov	eax, DWORD PTR ?pmove@@3PAUplayermove_s@@A ; pmove
	mov	ecx, DWORD PTR [eax+325044]
	call	ecx
	add	esp, 24					; 00000018H
	jmp	SHORT $LN12@PM_PlaySte
$LN66@PM_PlaySte:

; 496  : 		// left foot
; 497  : 		case 2:	pmove->PM_PlaySound( CHAN_BODY, "footsteps/grate2.wav", fvol, ATTN_NORM, 0, PITCH_NORM );	break;

	push	100					; 00000064H
	push	0
	push	ecx
	movss	xmm0, DWORD PTR __real@3f4ccccd
	movss	DWORD PTR [esp], xmm0
	push	ecx
	movss	xmm0, DWORD PTR _fvol$[ebp]
	movss	DWORD PTR [esp], xmm0
	push	OFFSET ??_C@_0BF@JIJHIBMM@footsteps?1grate2?4wav?$AA@
	push	4
	mov	eax, DWORD PTR ?pmove@@3PAUplayermove_s@@A ; pmove
	mov	ecx, DWORD PTR [eax+325044]
	call	ecx
	add	esp, 24					; 00000018H
	jmp	SHORT $LN12@PM_PlaySte
$LN67@PM_PlaySte:

; 498  : 		case 3:	pmove->PM_PlaySound( CHAN_BODY, "footsteps/grate4.wav", fvol, ATTN_NORM, 0, PITCH_NORM );	break;

	push	100					; 00000064H
	push	0
	push	ecx
	movss	xmm0, DWORD PTR __real@3f4ccccd
	movss	DWORD PTR [esp], xmm0
	push	ecx
	movss	xmm0, DWORD PTR _fvol$[ebp]
	movss	DWORD PTR [esp], xmm0
	push	OFFSET ??_C@_0BF@EOMOGCNB@footsteps?1grate4?4wav?$AA@
	push	4
	mov	eax, DWORD PTR ?pmove@@3PAUplayermove_s@@A ; pmove
	mov	ecx, DWORD PTR [eax+325044]
	call	ecx
	add	esp, 24					; 00000018H
$LN12@PM_PlaySte:

; 499  : 		}
; 500  : 		break;

	jmp	$LN2@PM_PlaySte
$LN68@PM_PlaySte:

; 501  : 	case STEP_TILE:
; 502  : 		if ( !pmove->RandomLong(0,3) )

	push	3
	push	0
	mov	eax, DWORD PTR ?pmove@@3PAUplayermove_s@@A ; pmove
	mov	ecx, DWORD PTR [eax+325000]
	call	ecx
	add	esp, 8
	test	eax, eax
	jne	SHORT $LN69@PM_PlaySte

; 503  : 			irand = 4;

	mov	DWORD PTR _irand$[ebp], 4
$LN69@PM_PlaySte:

; 504  : 		switch(irand)

	mov	eax, DWORD PTR _irand$[ebp]
	mov	DWORD PTR tv324[ebp], eax
	cmp	DWORD PTR tv324[ebp], 4
	ja	$LN14@PM_PlaySte
	mov	ecx, DWORD PTR tv324[ebp]
	jmp	DWORD PTR $LN152@PM_PlaySte[ecx*4]
$LN70@PM_PlaySte:

; 505  : 		{
; 506  : 		// right foot
; 507  : 		case 0:	pmove->PM_PlaySound( CHAN_BODY, "footsteps/tile1.wav", fvol, ATTN_NORM, 0, PITCH_NORM );	break;

	push	100					; 00000064H
	push	0
	push	ecx
	movss	xmm0, DWORD PTR __real@3f4ccccd
	movss	DWORD PTR [esp], xmm0
	push	ecx
	movss	xmm0, DWORD PTR _fvol$[ebp]
	movss	DWORD PTR [esp], xmm0
	push	OFFSET ??_C@_0BE@NNEFOLLJ@footsteps?1tile1?4wav?$AA@
	push	4
	mov	eax, DWORD PTR ?pmove@@3PAUplayermove_s@@A ; pmove
	mov	ecx, DWORD PTR [eax+325044]
	call	ecx
	add	esp, 24					; 00000018H
	jmp	$LN14@PM_PlaySte
$LN71@PM_PlaySte:

; 508  : 		case 1:	pmove->PM_PlaySound( CHAN_BODY, "footsteps/tile3.wav", fvol, ATTN_NORM, 0, PITCH_NORM );	break;

	push	100					; 00000064H
	push	0
	push	ecx
	movss	xmm0, DWORD PTR __real@3f4ccccd
	movss	DWORD PTR [esp], xmm0
	push	ecx
	movss	xmm0, DWORD PTR _fvol$[ebp]
	movss	DWORD PTR [esp], xmm0
	push	OFFSET ??_C@_0BE@JAINEKLC@footsteps?1tile3?4wav?$AA@
	push	4
	mov	eax, DWORD PTR ?pmove@@3PAUplayermove_s@@A ; pmove
	mov	ecx, DWORD PTR [eax+325044]
	call	ecx
	add	esp, 24					; 00000018H
	jmp	$LN14@PM_PlaySte
$LN72@PM_PlaySte:

; 509  : 		// left foot
; 510  : 		case 2:	pmove->PM_PlaySound( CHAN_BODY, "footsteps/tile2.wav", fvol, ATTN_NORM, 0, PITCH_NORM );	break;

	push	100					; 00000064H
	push	0
	push	ecx
	movss	xmm0, DWORD PTR __real@3f4ccccd
	movss	DWORD PTR [esp], xmm0
	push	ecx
	movss	xmm0, DWORD PTR _fvol$[ebp]
	movss	DWORD PTR [esp], xmm0
	push	OFFSET ??_C@_0BE@FLNBJJBH@footsteps?1tile2?4wav?$AA@
	push	4
	mov	eax, DWORD PTR ?pmove@@3PAUplayermove_s@@A ; pmove
	mov	ecx, DWORD PTR [eax+325044]
	call	ecx
	add	esp, 24					; 00000018H
	jmp	SHORT $LN14@PM_PlaySte
$LN73@PM_PlaySte:

; 511  : 		case 3:	pmove->PM_PlaySound( CHAN_BODY, "footsteps/tile4.wav", fvol, ATTN_NORM, 0, PITCH_NORM );	break;

	push	100					; 00000064H
	push	0
	push	ecx
	movss	xmm0, DWORD PTR __real@3f4ccccd
	movss	DWORD PTR [esp], xmm0
	push	ecx
	movss	xmm0, DWORD PTR _fvol$[ebp]
	movss	DWORD PTR [esp], xmm0
	push	OFFSET ??_C@_0BE@INIIHKAK@footsteps?1tile4?4wav?$AA@
	push	4
	mov	eax, DWORD PTR ?pmove@@3PAUplayermove_s@@A ; pmove
	mov	ecx, DWORD PTR [eax+325044]
	call	ecx
	add	esp, 24					; 00000018H
	jmp	SHORT $LN14@PM_PlaySte
$LN74@PM_PlaySte:

; 512  : 		case 4: pmove->PM_PlaySound( CHAN_BODY, "footsteps/tile5.wav", fvol, ATTN_NORM, 0, PITCH_NORM );	break;

	push	100					; 00000064H
	push	0
	push	ecx
	movss	xmm0, DWORD PTR __real@3f4ccccd
	movss	DWORD PTR [esp], xmm0
	push	ecx
	movss	xmm0, DWORD PTR _fvol$[ebp]
	movss	DWORD PTR [esp], xmm0
	push	OFFSET ??_C@_0BE@EGNEKJKP@footsteps?1tile5?4wav?$AA@
	push	4
	mov	eax, DWORD PTR ?pmove@@3PAUplayermove_s@@A ; pmove
	mov	ecx, DWORD PTR [eax+325044]
	call	ecx
	add	esp, 24					; 00000018H
$LN14@PM_PlaySte:

; 513  : 		}
; 514  : 		break;

	jmp	$LN2@PM_PlaySte
$LN75@PM_PlaySte:

; 515  : 	case STEP_SLOSH:
; 516  : 		switch(irand)

	mov	eax, DWORD PTR _irand$[ebp]
	mov	DWORD PTR tv361[ebp], eax
	cmp	DWORD PTR tv361[ebp], 3
	ja	$LN16@PM_PlaySte
	mov	ecx, DWORD PTR tv361[ebp]
	jmp	DWORD PTR $LN153@PM_PlaySte[ecx*4]
$LN76@PM_PlaySte:

; 517  : 		{
; 518  : 		// diffusion - chan_static so the sound won't be cut off
; 519  : 		// right foot
; 520  : 		case 0:	pmove->PM_PlaySound( CHAN_STATIC, "footsteps/slosh1.wav", fvol, ATTN_NORM, 0, PITCH_NORM );	break;

	push	100					; 00000064H
	push	0
	push	ecx
	movss	xmm0, DWORD PTR __real@3f4ccccd
	movss	DWORD PTR [esp], xmm0
	push	ecx
	movss	xmm0, DWORD PTR _fvol$[ebp]
	movss	DWORD PTR [esp], xmm0
	push	OFFSET ??_C@_0BF@JKJLEGDL@footsteps?1slosh1?4wav?$AA@
	push	6
	mov	eax, DWORD PTR ?pmove@@3PAUplayermove_s@@A ; pmove
	mov	ecx, DWORD PTR [eax+325044]
	call	ecx
	add	esp, 24					; 00000018H
	jmp	$LN16@PM_PlaySte
$LN77@PM_PlaySte:

; 521  : 		case 1:	pmove->PM_PlaySound( CHAN_STATIC, "footsteps/slosh3.wav", fvol, ATTN_NORM, 0, PITCH_NORM );	break;

	push	100					; 00000064H
	push	0
	push	ecx
	movss	xmm0, DWORD PTR __real@3f4ccccd
	movss	DWORD PTR [esp], xmm0
	push	ecx
	movss	xmm0, DWORD PTR _fvol$[ebp]
	movss	DWORD PTR [esp], xmm0
	push	OFFSET ??_C@_0BF@NHFDOHDA@footsteps?1slosh3?4wav?$AA@
	push	6
	mov	eax, DWORD PTR ?pmove@@3PAUplayermove_s@@A ; pmove
	mov	ecx, DWORD PTR [eax+325044]
	call	ecx
	add	esp, 24					; 00000018H
	jmp	SHORT $LN16@PM_PlaySte
$LN78@PM_PlaySte:

; 522  : 		// left foot
; 523  : 		case 2:	pmove->PM_PlaySound( CHAN_STATIC, "footsteps/slosh2.wav", fvol, ATTN_NORM, 0, PITCH_NORM );	break;

	push	100					; 00000064H
	push	0
	push	ecx
	movss	xmm0, DWORD PTR __real@3f4ccccd
	movss	DWORD PTR [esp], xmm0
	push	ecx
	movss	xmm0, DWORD PTR _fvol$[ebp]
	movss	DWORD PTR [esp], xmm0
	push	OFFSET ??_C@_0BF@BMAPDEJF@footsteps?1slosh2?4wav?$AA@
	push	6
	mov	eax, DWORD PTR ?pmove@@3PAUplayermove_s@@A ; pmove
	mov	ecx, DWORD PTR [eax+325044]
	call	ecx
	add	esp, 24					; 00000018H
	jmp	SHORT $LN16@PM_PlaySte
$LN79@PM_PlaySte:

; 524  : 		case 3:	pmove->PM_PlaySound( CHAN_STATIC, "footsteps/slosh4.wav", fvol, ATTN_NORM, 0, PITCH_NORM );	break;

	push	100					; 00000064H
	push	0
	push	ecx
	movss	xmm0, DWORD PTR __real@3f4ccccd
	movss	DWORD PTR [esp], xmm0
	push	ecx
	movss	xmm0, DWORD PTR _fvol$[ebp]
	movss	DWORD PTR [esp], xmm0
	push	OFFSET ??_C@_0BF@MKFGNHII@footsteps?1slosh4?4wav?$AA@
	push	6
	mov	eax, DWORD PTR ?pmove@@3PAUplayermove_s@@A ; pmove
	mov	ecx, DWORD PTR [eax+325044]
	call	ecx
	add	esp, 24					; 00000018H
$LN16@PM_PlaySte:

; 525  : 		}
; 526  : #ifdef CLIENT_DLL
; 527  : 	//	g_pParticles.WaterSplashParticle( 0, SplashOrg );
; 528  : 		R_MakeWaterSplash( SplashOrg + Vector(0,0,100), pmove->origin - Vector(0,0,height) );

	push	0
	push	ecx
	movss	xmm0, DWORD PTR _height$[ebp]
	movss	DWORD PTR [esp], xmm0
	push	ecx
	xorps	xmm0, xmm0
	movss	DWORD PTR [esp], xmm0
	push	ecx
	xorps	xmm0, xmm0
	movss	DWORD PTR [esp], xmm0
	lea	ecx, DWORD PTR $T2[ebp]
	call	??0Vector@@QAE@MMM@Z			; Vector::Vector
	sub	esp, 12					; 0000000cH
	mov	ecx, esp
	push	eax
	push	ecx
	mov	ecx, DWORD PTR ?pmove@@3PAUplayermove_s@@A ; pmove
	add	ecx, 56					; 00000038H
	call	??GVector@@QBE?AV0@ABV0@@Z		; Vector::operator-
	push	ecx
	movss	xmm0, DWORD PTR __real@42c80000
	movss	DWORD PTR [esp], xmm0
	push	ecx
	xorps	xmm0, xmm0
	movss	DWORD PTR [esp], xmm0
	push	ecx
	xorps	xmm0, xmm0
	movss	DWORD PTR [esp], xmm0
	lea	ecx, DWORD PTR $T1[ebp]
	call	??0Vector@@QAE@MMM@Z			; Vector::Vector
	sub	esp, 12					; 0000000cH
	mov	edx, esp
	push	eax
	push	edx
	lea	ecx, DWORD PTR _SplashOrg$[ebp]
	call	??HVector@@QBE?AV0@ABV0@@Z		; Vector::operator+
	call	?R_MakeWaterSplash@@YAXVVector@@0H@Z	; R_MakeWaterSplash
	add	esp, 28					; 0000001cH

; 529  : 		/*
; 530  : 		iWaterSplash = gEngfuncs.pEventAPI->EV_FindModelIndex( "sprites/effects/waterring2.spr" );
; 531  : 
; 532  : 		pTemp = gEngfuncs.pEfxAPI->R_TempSprite( SplashOrg, Vector( 0, 0, 0 ), RANDOM_FLOAT( 1, 1.5 ), iWaterSplash, kRenderTransAdd, 0, 1.0, 2, FTENT_SPRANIMATE );
; 533  : 
; 534  : 		if( pTemp )
; 535  : 		{
; 536  : 			pTemp->fadeSpeed = 60.0;
; 537  : 			pTemp->entity.curstate.framerate = RANDOM_FLOAT( 30, 50 );
; 538  : 			pTemp->entity.curstate.renderamt = 150;
; 539  : 			pTemp->entity.curstate.rendercolor.r = 255;
; 540  : 			pTemp->entity.curstate.rendercolor.g = 255;
; 541  : 			pTemp->entity.curstate.rendercolor.b = 255;
; 542  : 			pTemp->entity.angles = Vector( 90, 0, 0 );
; 543  : 		}*/
; 544  : #endif
; 545  : 		break;

	jmp	$LN2@PM_PlaySte
$LN80@PM_PlaySte:

; 546  : 	case STEP_WADE:
; 547  : 		/*
; 548  : 		if ( iSkipStep == 0 )
; 549  : 		{
; 550  : 			iSkipStep++;
; 551  : 			break;
; 552  : 		}
; 553  : 
; 554  : 		if ( iSkipStep++ == 3 )
; 555  : 			iSkipStep = 0;
; 556  : 		*/
; 557  : 		// diffusion - chan_static so the sound won't be cut off
; 558  : 		switch (irand)

	mov	eax, DWORD PTR _irand$[ebp]
	mov	DWORD PTR tv412[ebp], eax
	cmp	DWORD PTR tv412[ebp], 3
	ja	$LN18@PM_PlaySte
	mov	ecx, DWORD PTR tv412[ebp]
	jmp	DWORD PTR $LN154@PM_PlaySte[ecx*4]
$LN81@PM_PlaySte:

; 559  : 		{
; 560  : 		// right foot
; 561  : 		case 0:	pmove->PM_PlaySound( CHAN_STATIC, "footsteps/wade1.wav", fvol, ATTN_NORM, 0, PITCH_NORM );	break;

	push	100					; 00000064H
	push	0
	push	ecx
	movss	xmm0, DWORD PTR __real@3f4ccccd
	movss	DWORD PTR [esp], xmm0
	push	ecx
	movss	xmm0, DWORD PTR _fvol$[ebp]
	movss	DWORD PTR [esp], xmm0
	push	OFFSET ??_C@_0BE@FOEPOJBH@footsteps?1wade1?4wav?$AA@
	push	6
	mov	eax, DWORD PTR ?pmove@@3PAUplayermove_s@@A ; pmove
	mov	ecx, DWORD PTR [eax+325044]
	call	ecx
	add	esp, 24					; 00000018H
	jmp	$LN18@PM_PlaySte
$LN82@PM_PlaySte:

; 562  : 		case 1:	pmove->PM_PlaySound( CHAN_STATIC, "footsteps/wade2.wav", fvol, ATTN_NORM, 0, PITCH_NORM );	break;

	push	100					; 00000064H
	push	0
	push	ecx
	movss	xmm0, DWORD PTR __real@3f4ccccd
	movss	DWORD PTR [esp], xmm0
	push	ecx
	movss	xmm0, DWORD PTR _fvol$[ebp]
	movss	DWORD PTR [esp], xmm0
	push	OFFSET ??_C@_0BE@NINLJLLJ@footsteps?1wade2?4wav?$AA@
	push	6
	mov	eax, DWORD PTR ?pmove@@3PAUplayermove_s@@A ; pmove
	mov	ecx, DWORD PTR [eax+325044]
	call	ecx
	add	esp, 24					; 00000018H
	jmp	SHORT $LN18@PM_PlaySte
$LN83@PM_PlaySte:

; 563  : 		// left foot
; 564  : 		case 2:	pmove->PM_PlaySound( CHAN_STATIC, "footsteps/wade3.wav", fvol, ATTN_NORM, 0, PITCH_NORM );	break;

	push	100					; 00000064H
	push	0
	push	ecx
	movss	xmm0, DWORD PTR __real@3f4ccccd
	movss	DWORD PTR [esp], xmm0
	push	ecx
	movss	xmm0, DWORD PTR _fvol$[ebp]
	movss	DWORD PTR [esp], xmm0
	push	OFFSET ??_C@_0BE@BDIHEIBM@footsteps?1wade3?4wav?$AA@
	push	6
	mov	eax, DWORD PTR ?pmove@@3PAUplayermove_s@@A ; pmove
	mov	ecx, DWORD PTR [eax+325044]
	call	ecx
	add	esp, 24					; 00000018H
	jmp	SHORT $LN18@PM_PlaySte
$LN84@PM_PlaySte:

; 565  : 		case 3:	pmove->PM_PlaySound( CHAN_STATIC, "footsteps/wade4.wav", fvol, ATTN_NORM, 0, PITCH_NORM );	break;

	push	100					; 00000064H
	push	0
	push	ecx
	movss	xmm0, DWORD PTR __real@3f4ccccd
	movss	DWORD PTR [esp], xmm0
	push	ecx
	movss	xmm0, DWORD PTR _fvol$[ebp]
	movss	DWORD PTR [esp], xmm0
	push	OFFSET ??_C@_0BE@OICHIKE@footsteps?1wade4?4wav?$AA@
	push	6
	mov	eax, DWORD PTR ?pmove@@3PAUplayermove_s@@A ; pmove
	mov	ecx, DWORD PTR [eax+325044]
	call	ecx
	add	esp, 24					; 00000018H
$LN18@PM_PlaySte:

; 566  : 		}
; 567  : 
; 568  : 		// diffusion - add water splash
; 569  : #ifdef CLIENT_DLL
; 570  : 		g_pParticles.WaterSplashParticle( 0, SplashOrg );

	lea	eax, DWORD PTR _SplashOrg$[ebp]
	push	eax
	push	0
	mov	ecx, OFFSET ?g_pParticles@@3VCQuakePartSystem@@A ; g_pParticles
	call	?WaterSplashParticle@CQuakePartSystem@@QAEXHABVVector@@@Z ; CQuakePartSystem::WaterSplashParticle

; 571  : 		/*
; 572  : 		iWaterSplash = gEngfuncs.pEventAPI->EV_FindModelIndex( "sprites/effects/waterring2.spr" );
; 573  : 		
; 574  : 		pTemp = gEngfuncs.pEfxAPI->R_TempSprite( SplashOrg, Vector(0,0,0), RANDOM_FLOAT( 1,1.5 ), iWaterSplash, kRenderTransAdd, 0, 1.0, 2, FTENT_SPRANIMATE );
; 575  : 
; 576  : 		if( pTemp )
; 577  : 		{
; 578  : 			pTemp->fadeSpeed = 60.0;
; 579  : 			pTemp->entity.curstate.framerate = RANDOM_FLOAT( 30, 50 );
; 580  : 			pTemp->entity.curstate.renderamt = 150;
; 581  : 			pTemp->entity.curstate.rendercolor.r = 255;
; 582  : 			pTemp->entity.curstate.rendercolor.g = 255;
; 583  : 			pTemp->entity.curstate.rendercolor.b = 255;
; 584  : 			pTemp->entity.angles = Vector( 90, 0, 0 );
; 585  : 		}*/
; 586  : #endif
; 587  : 		break;

	jmp	$LN2@PM_PlaySte
$LN85@PM_PlaySte:

; 588  : 	case STEP_LADDER:
; 589  : 		switch(irand)

	mov	eax, DWORD PTR _irand$[ebp]
	mov	DWORD PTR tv490[ebp], eax
	cmp	DWORD PTR tv490[ebp], 3
	ja	$LN20@PM_PlaySte
	mov	ecx, DWORD PTR tv490[ebp]
	jmp	DWORD PTR $LN155@PM_PlaySte[ecx*4]
$LN86@PM_PlaySte:

; 590  : 		{
; 591  : 		// right foot
; 592  : 		case 0:	pmove->PM_PlaySound( CHAN_BODY, "footsteps/ladder1.wav", fvol, ATTN_NORM, 0, PITCH_NORM );	break;

	push	100					; 00000064H
	push	0
	push	ecx
	movss	xmm0, DWORD PTR __real@3f4ccccd
	movss	DWORD PTR [esp], xmm0
	push	ecx
	movss	xmm0, DWORD PTR _fvol$[ebp]
	movss	DWORD PTR [esp], xmm0
	push	OFFSET ??_C@_0BG@INDJNKA@footsteps?1ladder1?4wav?$AA@
	push	4
	mov	eax, DWORD PTR ?pmove@@3PAUplayermove_s@@A ; pmove
	mov	ecx, DWORD PTR [eax+325044]
	call	ecx
	add	esp, 24					; 00000018H
	jmp	$LN20@PM_PlaySte
$LN87@PM_PlaySte:

; 593  : 		case 1:	pmove->PM_PlaySound( CHAN_BODY, "footsteps/ladder3.wav", fvol, ATTN_NORM, 0, PITCH_NORM );	break;

	push	100					; 00000064H
	push	0
	push	ecx
	movss	xmm0, DWORD PTR __real@3f4ccccd
	movss	DWORD PTR [esp], xmm0
	push	ecx
	movss	xmm0, DWORD PTR _fvol$[ebp]
	movss	DWORD PTR [esp], xmm0
	push	OFFSET ??_C@_0BG@EFBLDMKL@footsteps?1ladder3?4wav?$AA@
	push	4
	mov	eax, DWORD PTR ?pmove@@3PAUplayermove_s@@A ; pmove
	mov	ecx, DWORD PTR [eax+325044]
	call	ecx
	add	esp, 24					; 00000018H
	jmp	SHORT $LN20@PM_PlaySte
$LN88@PM_PlaySte:

; 594  : 		// left foot
; 595  : 		case 2:	pmove->PM_PlaySound( CHAN_BODY, "footsteps/ladder2.wav", fvol, ATTN_NORM, 0, PITCH_NORM );	break;

	push	100					; 00000064H
	push	0
	push	ecx
	movss	xmm0, DWORD PTR __real@3f4ccccd
	movss	DWORD PTR [esp], xmm0
	push	ecx
	movss	xmm0, DWORD PTR _fvol$[ebp]
	movss	DWORD PTR [esp], xmm0
	push	OFFSET ??_C@_0BG@IOEHOPAO@footsteps?1ladder2?4wav?$AA@
	push	4
	mov	eax, DWORD PTR ?pmove@@3PAUplayermove_s@@A ; pmove
	mov	ecx, DWORD PTR [eax+325044]
	call	ecx
	add	esp, 24					; 00000018H
	jmp	SHORT $LN20@PM_PlaySte
$LN89@PM_PlaySte:

; 596  : 		case 3:	pmove->PM_PlaySound( CHAN_BODY, "footsteps/ladder4.wav", fvol, ATTN_NORM, 0, PITCH_NORM );	break;

	push	100					; 00000064H
	push	0
	push	ecx
	movss	xmm0, DWORD PTR __real@3f4ccccd
	movss	DWORD PTR [esp], xmm0
	push	ecx
	movss	xmm0, DWORD PTR _fvol$[ebp]
	movss	DWORD PTR [esp], xmm0
	push	OFFSET ??_C@_0BG@FIBOAMBD@footsteps?1ladder4?4wav?$AA@
	push	4
	mov	eax, DWORD PTR ?pmove@@3PAUplayermove_s@@A ; pmove
	mov	ecx, DWORD PTR [eax+325044]
	call	ecx
	add	esp, 24					; 00000018H
$LN20@PM_PlaySte:

; 597  : 		}
; 598  : 		break;

	jmp	$LN2@PM_PlaySte
$LN90@PM_PlaySte:

; 599  : 	case STEP_LADDER_WOOD:
; 600  : 		switch( irand )

	mov	eax, DWORD PTR _irand$[ebp]
	mov	DWORD PTR tv520[ebp], eax
	cmp	DWORD PTR tv520[ebp], 3
	ja	$LN22@PM_PlaySte
	mov	ecx, DWORD PTR tv520[ebp]
	jmp	DWORD PTR $LN156@PM_PlaySte[ecx*4]
$LN91@PM_PlaySte:

; 601  : 		{
; 602  : 			// right foot
; 603  : 		case 0:	pmove->PM_PlaySound( CHAN_BODY, "footsteps/ladder_wood1.wav", fvol, ATTN_NORM, 0, PITCH_NORM );	break;

	push	100					; 00000064H
	push	0
	push	ecx
	movss	xmm0, DWORD PTR __real@3f4ccccd
	movss	DWORD PTR [esp], xmm0
	push	ecx
	movss	xmm0, DWORD PTR _fvol$[ebp]
	movss	DWORD PTR [esp], xmm0
	push	OFFSET ??_C@_0BL@LKCEGKKB@footsteps?1ladder_wood1?4wav?$AA@
	push	4
	mov	eax, DWORD PTR ?pmove@@3PAUplayermove_s@@A ; pmove
	mov	ecx, DWORD PTR [eax+325044]
	call	ecx
	add	esp, 24					; 00000018H
	jmp	$LN22@PM_PlaySte
$LN92@PM_PlaySte:

; 604  : 		case 1:	pmove->PM_PlaySound( CHAN_BODY, "footsteps/ladder_wood3.wav", fvol, ATTN_NORM, 0, PITCH_NORM );	break;

	push	100					; 00000064H
	push	0
	push	ecx
	movss	xmm0, DWORD PTR __real@3f4ccccd
	movss	DWORD PTR [esp], xmm0
	push	ecx
	movss	xmm0, DWORD PTR _fvol$[ebp]
	movss	DWORD PTR [esp], xmm0
	push	OFFSET ??_C@_0BL@PHOMMLKK@footsteps?1ladder_wood3?4wav?$AA@
	push	4
	mov	eax, DWORD PTR ?pmove@@3PAUplayermove_s@@A ; pmove
	mov	ecx, DWORD PTR [eax+325044]
	call	ecx
	add	esp, 24					; 00000018H
	jmp	SHORT $LN22@PM_PlaySte
$LN93@PM_PlaySte:

; 605  : 			// left foot
; 606  : 		case 2:	pmove->PM_PlaySound( CHAN_BODY, "footsteps/ladder_wood2.wav", fvol, ATTN_NORM, 0, PITCH_NORM );	break;

	push	100					; 00000064H
	push	0
	push	ecx
	movss	xmm0, DWORD PTR __real@3f4ccccd
	movss	DWORD PTR [esp], xmm0
	push	ecx
	movss	xmm0, DWORD PTR _fvol$[ebp]
	movss	DWORD PTR [esp], xmm0
	push	OFFSET ??_C@_0BL@DMLABIAP@footsteps?1ladder_wood2?4wav?$AA@
	push	4
	mov	eax, DWORD PTR ?pmove@@3PAUplayermove_s@@A ; pmove
	mov	ecx, DWORD PTR [eax+325044]
	call	ecx
	add	esp, 24					; 00000018H
	jmp	SHORT $LN22@PM_PlaySte
$LN94@PM_PlaySte:

; 607  : 		case 3:	pmove->PM_PlaySound( CHAN_BODY, "footsteps/ladder_wood4.wav", fvol, ATTN_NORM, 0, PITCH_NORM );	break;

	push	100					; 00000064H
	push	0
	push	ecx
	movss	xmm0, DWORD PTR __real@3f4ccccd
	movss	DWORD PTR [esp], xmm0
	push	ecx
	movss	xmm0, DWORD PTR _fvol$[ebp]
	movss	DWORD PTR [esp], xmm0
	push	OFFSET ??_C@_0BL@OKOJPLBC@footsteps?1ladder_wood4?4wav?$AA@
	push	4
	mov	eax, DWORD PTR ?pmove@@3PAUplayermove_s@@A ; pmove
	mov	ecx, DWORD PTR [eax+325044]
	call	ecx
	add	esp, 24					; 00000018H
$LN22@PM_PlaySte:

; 608  : 		}
; 609  : 		break;

	jmp	$LN2@PM_PlaySte
$LN95@PM_PlaySte:

; 610  : 	case STEP_WOOD:
; 611  : 		if ( !pmove->RandomLong(0,3) )

	push	3
	push	0
	mov	eax, DWORD PTR ?pmove@@3PAUplayermove_s@@A ; pmove
	mov	ecx, DWORD PTR [eax+325000]
	call	ecx
	add	esp, 8
	test	eax, eax
	jne	SHORT $LN96@PM_PlaySte

; 612  : 			irand = pmove->RandomLong(4,5);

	push	5
	push	4
	mov	eax, DWORD PTR ?pmove@@3PAUplayermove_s@@A ; pmove
	mov	ecx, DWORD PTR [eax+325000]
	call	ecx
	add	esp, 8
	mov	DWORD PTR _irand$[ebp], eax
$LN96@PM_PlaySte:

; 613  : 		switch(irand)

	mov	eax, DWORD PTR _irand$[ebp]
	mov	DWORD PTR tv559[ebp], eax
	cmp	DWORD PTR tv559[ebp], 5
	ja	$LN24@PM_PlaySte
	mov	ecx, DWORD PTR tv559[ebp]
	jmp	DWORD PTR $LN157@PM_PlaySte[ecx*4]
$LN97@PM_PlaySte:

; 614  : 		{
; 615  : 		// right foot
; 616  : 		case 0:	pmove->PM_PlaySound( CHAN_BODY, "footsteps/wood1.wav", fvol, ATTN_NORM, 0, PITCH_NORM );	break;

	push	100					; 00000064H
	push	0
	push	ecx
	movss	xmm0, DWORD PTR __real@3f4ccccd
	movss	DWORD PTR [esp], xmm0
	push	ecx
	movss	xmm0, DWORD PTR _fvol$[ebp]
	movss	DWORD PTR [esp], xmm0
	push	OFFSET ??_C@_0BE@GNJACFGH@footsteps?1wood1?4wav?$AA@
	push	4
	mov	eax, DWORD PTR ?pmove@@3PAUplayermove_s@@A ; pmove
	mov	ecx, DWORD PTR [eax+325044]
	call	ecx
	add	esp, 24					; 00000018H
	jmp	$LN24@PM_PlaySte
$LN98@PM_PlaySte:

; 617  : 		case 1:	pmove->PM_PlaySound( CHAN_BODY, "footsteps/wood2.wav", fvol, ATTN_NORM, 0, PITCH_NORM );	break;

	push	100					; 00000064H
	push	0
	push	ecx
	movss	xmm0, DWORD PTR __real@3f4ccccd
	movss	DWORD PTR [esp], xmm0
	push	ecx
	movss	xmm0, DWORD PTR _fvol$[ebp]
	movss	DWORD PTR [esp], xmm0
	push	OFFSET ??_C@_0BE@OLAEFHMJ@footsteps?1wood2?4wav?$AA@
	push	4
	mov	eax, DWORD PTR ?pmove@@3PAUplayermove_s@@A ; pmove
	mov	ecx, DWORD PTR [eax+325044]
	call	ecx
	add	esp, 24					; 00000018H
	jmp	$LN24@PM_PlaySte
$LN99@PM_PlaySte:

; 618  : 		case 2:	pmove->PM_PlaySound( CHAN_BODY, "footsteps/wood3.wav", fvol, ATTN_NORM, 0, PITCH_NORM );	break;

	push	100					; 00000064H
	push	0
	push	ecx
	movss	xmm0, DWORD PTR __real@3f4ccccd
	movss	DWORD PTR [esp], xmm0
	push	ecx
	movss	xmm0, DWORD PTR _fvol$[ebp]
	movss	DWORD PTR [esp], xmm0
	push	OFFSET ??_C@_0BE@CAFIIEGM@footsteps?1wood3?4wav?$AA@
	push	4
	mov	eax, DWORD PTR ?pmove@@3PAUplayermove_s@@A ; pmove
	mov	ecx, DWORD PTR [eax+325044]
	call	ecx
	add	esp, 24					; 00000018H
	jmp	$LN24@PM_PlaySte
$LN100@PM_PlaySte:

; 619  : 		// left foot
; 620  : 		case 3:	pmove->PM_PlaySound( CHAN_BODY, "footsteps/wood4.wav", fvol, ATTN_NORM, 0, PITCH_NORM );	break;

	push	100					; 00000064H
	push	0
	push	ecx
	movss	xmm0, DWORD PTR __real@3f4ccccd
	movss	DWORD PTR [esp], xmm0
	push	ecx
	movss	xmm0, DWORD PTR _fvol$[ebp]
	movss	DWORD PTR [esp], xmm0
	push	OFFSET ??_C@_0BE@DNFNLENE@footsteps?1wood4?4wav?$AA@
	push	4
	mov	eax, DWORD PTR ?pmove@@3PAUplayermove_s@@A ; pmove
	mov	ecx, DWORD PTR [eax+325044]
	call	ecx
	add	esp, 24					; 00000018H
	jmp	SHORT $LN24@PM_PlaySte
$LN101@PM_PlaySte:

; 621  : 		case 4:	pmove->PM_PlaySound( CHAN_BODY, "footsteps/wood5.wav", fvol, ATTN_NORM, 0, PITCH_NORM );	break;

	push	100					; 00000064H
	push	0
	push	ecx
	movss	xmm0, DWORD PTR __real@3f4ccccd
	movss	DWORD PTR [esp], xmm0
	push	ecx
	movss	xmm0, DWORD PTR _fvol$[ebp]
	movss	DWORD PTR [esp], xmm0
	push	OFFSET ??_C@_0BE@PGABGHHB@footsteps?1wood5?4wav?$AA@
	push	4
	mov	eax, DWORD PTR ?pmove@@3PAUplayermove_s@@A ; pmove
	mov	ecx, DWORD PTR [eax+325044]
	call	ecx
	add	esp, 24					; 00000018H
	jmp	SHORT $LN24@PM_PlaySte
$LN102@PM_PlaySte:

; 622  : 		case 5:	pmove->PM_PlaySound( CHAN_BODY, "footsteps/wood6.wav", fvol, ATTN_NORM, 0, PITCH_NORM );	break;

	push	100					; 00000064H
	push	0
	push	ecx
	movss	xmm0, DWORD PTR __real@3f4ccccd
	movss	DWORD PTR [esp], xmm0
	push	ecx
	movss	xmm0, DWORD PTR _fvol$[ebp]
	movss	DWORD PTR [esp], xmm0
	push	OFFSET ??_C@_0BE@HAJFBFNP@footsteps?1wood6?4wav?$AA@
	push	4
	mov	eax, DWORD PTR ?pmove@@3PAUplayermove_s@@A ; pmove
	mov	ecx, DWORD PTR [eax+325044]
	call	ecx
	add	esp, 24					; 00000018H
$LN24@PM_PlaySte:

; 623  : 		}
; 624  : 		break;

	jmp	$LN2@PM_PlaySte
$LN103@PM_PlaySte:

; 625  : 	case STEP_SNOW:
; 626  : 		if ( !pmove->RandomLong(0,3) )

	push	3
	push	0
	mov	eax, DWORD PTR ?pmove@@3PAUplayermove_s@@A ; pmove
	mov	ecx, DWORD PTR [eax+325000]
	call	ecx
	add	esp, 8
	test	eax, eax
	jne	SHORT $LN104@PM_PlaySte

; 627  : 			irand = pmove->RandomLong(4,5);

	push	5
	push	4
	mov	eax, DWORD PTR ?pmove@@3PAUplayermove_s@@A ; pmove
	mov	ecx, DWORD PTR [eax+325000]
	call	ecx
	add	esp, 8
	mov	DWORD PTR _irand$[ebp], eax
$LN104@PM_PlaySte:

; 628  : 		switch(irand)

	mov	eax, DWORD PTR _irand$[ebp]
	mov	DWORD PTR tv612[ebp], eax
	cmp	DWORD PTR tv612[ebp], 5
	ja	$LN26@PM_PlaySte
	mov	ecx, DWORD PTR tv612[ebp]
	jmp	DWORD PTR $LN158@PM_PlaySte[ecx*4]
$LN105@PM_PlaySte:

; 629  : 		{
; 630  : 		// right foot
; 631  : 		case 0:	pmove->PM_PlaySound( CHAN_BODY, "footsteps/snow1.wav", fvol, ATTN_NORM, 0, PITCH_NORM );	break;

	push	100					; 00000064H
	push	0
	push	ecx
	movss	xmm0, DWORD PTR __real@3f4ccccd
	movss	DWORD PTR [esp], xmm0
	push	ecx
	movss	xmm0, DWORD PTR _fvol$[ebp]
	movss	DWORD PTR [esp], xmm0
	push	OFFSET ??_C@_0BE@CFDGBHAN@footsteps?1snow1?4wav?$AA@
	push	4
	mov	eax, DWORD PTR ?pmove@@3PAUplayermove_s@@A ; pmove
	mov	ecx, DWORD PTR [eax+325044]
	call	ecx
	add	esp, 24					; 00000018H
	jmp	$LN26@PM_PlaySte
$LN106@PM_PlaySte:

; 632  : 		case 1:	pmove->PM_PlaySound( CHAN_BODY, "footsteps/snow2.wav", fvol, ATTN_NORM, 0, PITCH_NORM );	break;

	push	100					; 00000064H
	push	0
	push	ecx
	movss	xmm0, DWORD PTR __real@3f4ccccd
	movss	DWORD PTR [esp], xmm0
	push	ecx
	movss	xmm0, DWORD PTR _fvol$[ebp]
	movss	DWORD PTR [esp], xmm0
	push	OFFSET ??_C@_0BE@KDKCGFKD@footsteps?1snow2?4wav?$AA@
	push	4
	mov	eax, DWORD PTR ?pmove@@3PAUplayermove_s@@A ; pmove
	mov	ecx, DWORD PTR [eax+325044]
	call	ecx
	add	esp, 24					; 00000018H
	jmp	$LN26@PM_PlaySte
$LN107@PM_PlaySte:

; 633  : 		case 2:	pmove->PM_PlaySound( CHAN_BODY, "footsteps/snow3.wav", fvol, ATTN_NORM, 0, PITCH_NORM );	break;

	push	100					; 00000064H
	push	0
	push	ecx
	movss	xmm0, DWORD PTR __real@3f4ccccd
	movss	DWORD PTR [esp], xmm0
	push	ecx
	movss	xmm0, DWORD PTR _fvol$[ebp]
	movss	DWORD PTR [esp], xmm0
	push	OFFSET ??_C@_0BE@GIPOLGAG@footsteps?1snow3?4wav?$AA@
	push	4
	mov	eax, DWORD PTR ?pmove@@3PAUplayermove_s@@A ; pmove
	mov	ecx, DWORD PTR [eax+325044]
	call	ecx
	add	esp, 24					; 00000018H
	jmp	$LN26@PM_PlaySte
$LN108@PM_PlaySte:

; 634  : 		// left foot
; 635  : 		case 3:	pmove->PM_PlaySound( CHAN_BODY, "footsteps/snow4.wav", fvol, ATTN_NORM, 0, PITCH_NORM );	break;

	push	100					; 00000064H
	push	0
	push	ecx
	movss	xmm0, DWORD PTR __real@3f4ccccd
	movss	DWORD PTR [esp], xmm0
	push	ecx
	movss	xmm0, DWORD PTR _fvol$[ebp]
	movss	DWORD PTR [esp], xmm0
	push	OFFSET ??_C@_0BE@HFPLIGLO@footsteps?1snow4?4wav?$AA@
	push	4
	mov	eax, DWORD PTR ?pmove@@3PAUplayermove_s@@A ; pmove
	mov	ecx, DWORD PTR [eax+325044]
	call	ecx
	add	esp, 24					; 00000018H
	jmp	SHORT $LN26@PM_PlaySte
$LN109@PM_PlaySte:

; 636  : 		case 4:	pmove->PM_PlaySound( CHAN_BODY, "footsteps/snow5.wav", fvol, ATTN_NORM, 0, PITCH_NORM );	break;

	push	100					; 00000064H
	push	0
	push	ecx
	movss	xmm0, DWORD PTR __real@3f4ccccd
	movss	DWORD PTR [esp], xmm0
	push	ecx
	movss	xmm0, DWORD PTR _fvol$[ebp]
	movss	DWORD PTR [esp], xmm0
	push	OFFSET ??_C@_0BE@LOKHFFBL@footsteps?1snow5?4wav?$AA@
	push	4
	mov	eax, DWORD PTR ?pmove@@3PAUplayermove_s@@A ; pmove
	mov	ecx, DWORD PTR [eax+325044]
	call	ecx
	add	esp, 24					; 00000018H
	jmp	SHORT $LN26@PM_PlaySte
$LN110@PM_PlaySte:

; 637  : 		case 5:	pmove->PM_PlaySound( CHAN_BODY, "footsteps/snow6.wav", fvol, ATTN_NORM, 0, PITCH_NORM );	break;

	push	100					; 00000064H
	push	0
	push	ecx
	movss	xmm0, DWORD PTR __real@3f4ccccd
	movss	DWORD PTR [esp], xmm0
	push	ecx
	movss	xmm0, DWORD PTR _fvol$[ebp]
	movss	DWORD PTR [esp], xmm0
	push	OFFSET ??_C@_0BE@DIDDCHLF@footsteps?1snow6?4wav?$AA@
	push	4
	mov	eax, DWORD PTR ?pmove@@3PAUplayermove_s@@A ; pmove
	mov	ecx, DWORD PTR [eax+325044]
	call	ecx
	add	esp, 24					; 00000018H
$LN26@PM_PlaySte:

; 638  : 		}
; 639  : 		break;

	jmp	$LN2@PM_PlaySte
$LN111@PM_PlaySte:

; 640  : 	case STEP_CARPET:
; 641  : 		if ( !pmove->RandomLong(0,3) )

	push	3
	push	0
	mov	eax, DWORD PTR ?pmove@@3PAUplayermove_s@@A ; pmove
	mov	ecx, DWORD PTR [eax+325000]
	call	ecx
	add	esp, 8
	test	eax, eax
	jne	SHORT $LN112@PM_PlaySte

; 642  : 			irand = pmove->RandomLong(4,5);

	push	5
	push	4
	mov	eax, DWORD PTR ?pmove@@3PAUplayermove_s@@A ; pmove
	mov	ecx, DWORD PTR [eax+325000]
	call	ecx
	add	esp, 8
	mov	DWORD PTR _irand$[ebp], eax
$LN112@PM_PlaySte:

; 643  : 		switch(irand)

	mov	eax, DWORD PTR _irand$[ebp]
	mov	DWORD PTR tv665[ebp], eax
	cmp	DWORD PTR tv665[ebp], 5
	ja	$LN28@PM_PlaySte
	mov	ecx, DWORD PTR tv665[ebp]
	jmp	DWORD PTR $LN159@PM_PlaySte[ecx*4]
$LN113@PM_PlaySte:

; 644  : 		{
; 645  : 		// right foot
; 646  : 		case 0:	pmove->PM_PlaySound( CHAN_BODY, "footsteps/carpet1.wav", fvol, ATTN_NORM, 0, PITCH_NORM );	break;

	push	100					; 00000064H
	push	0
	push	ecx
	movss	xmm0, DWORD PTR __real@3f4ccccd
	movss	DWORD PTR [esp], xmm0
	push	ecx
	movss	xmm0, DWORD PTR _fvol$[ebp]
	movss	DWORD PTR [esp], xmm0
	push	OFFSET ??_C@_0BG@MCALNFDJ@footsteps?1carpet1?4wav?$AA@
	push	4
	mov	eax, DWORD PTR ?pmove@@3PAUplayermove_s@@A ; pmove
	mov	ecx, DWORD PTR [eax+325044]
	call	ecx
	add	esp, 24					; 00000018H
	jmp	$LN28@PM_PlaySte
$LN114@PM_PlaySte:

; 647  : 		case 1:	pmove->PM_PlaySound( CHAN_BODY, "footsteps/carpet2.wav", fvol, ATTN_NORM, 0, PITCH_NORM );	break;

	push	100					; 00000064H
	push	0
	push	ecx
	movss	xmm0, DWORD PTR __real@3f4ccccd
	movss	DWORD PTR [esp], xmm0
	push	ecx
	movss	xmm0, DWORD PTR _fvol$[ebp]
	movss	DWORD PTR [esp], xmm0
	push	OFFSET ??_C@_0BG@EEJPKHJH@footsteps?1carpet2?4wav?$AA@
	push	4
	mov	eax, DWORD PTR ?pmove@@3PAUplayermove_s@@A ; pmove
	mov	ecx, DWORD PTR [eax+325044]
	call	ecx
	add	esp, 24					; 00000018H
	jmp	$LN28@PM_PlaySte
$LN115@PM_PlaySte:

; 648  : 		case 2:	pmove->PM_PlaySound( CHAN_BODY, "footsteps/carpet3.wav", fvol, ATTN_NORM, 0, PITCH_NORM );	break;

	push	100					; 00000064H
	push	0
	push	ecx
	movss	xmm0, DWORD PTR __real@3f4ccccd
	movss	DWORD PTR [esp], xmm0
	push	ecx
	movss	xmm0, DWORD PTR _fvol$[ebp]
	movss	DWORD PTR [esp], xmm0
	push	OFFSET ??_C@_0BG@IPMDHEDC@footsteps?1carpet3?4wav?$AA@
	push	4
	mov	eax, DWORD PTR ?pmove@@3PAUplayermove_s@@A ; pmove
	mov	ecx, DWORD PTR [eax+325044]
	call	ecx
	add	esp, 24					; 00000018H
	jmp	$LN28@PM_PlaySte
$LN116@PM_PlaySte:

; 649  : 		// left foot
; 650  : 		case 3:	pmove->PM_PlaySound( CHAN_BODY, "footsteps/carpet4.wav", fvol, ATTN_NORM, 0, PITCH_NORM );	break;

	push	100					; 00000064H
	push	0
	push	ecx
	movss	xmm0, DWORD PTR __real@3f4ccccd
	movss	DWORD PTR [esp], xmm0
	push	ecx
	movss	xmm0, DWORD PTR _fvol$[ebp]
	movss	DWORD PTR [esp], xmm0
	push	OFFSET ??_C@_0BG@JCMGEEIK@footsteps?1carpet4?4wav?$AA@
	push	4
	mov	eax, DWORD PTR ?pmove@@3PAUplayermove_s@@A ; pmove
	mov	ecx, DWORD PTR [eax+325044]
	call	ecx
	add	esp, 24					; 00000018H
	jmp	SHORT $LN28@PM_PlaySte
$LN117@PM_PlaySte:

; 651  : 		case 4:	pmove->PM_PlaySound( CHAN_BODY, "footsteps/carpet5.wav", fvol, ATTN_NORM, 0, PITCH_NORM );	break;

	push	100					; 00000064H
	push	0
	push	ecx
	movss	xmm0, DWORD PTR __real@3f4ccccd
	movss	DWORD PTR [esp], xmm0
	push	ecx
	movss	xmm0, DWORD PTR _fvol$[ebp]
	movss	DWORD PTR [esp], xmm0
	push	OFFSET ??_C@_0BG@FJJKJHCP@footsteps?1carpet5?4wav?$AA@
	push	4
	mov	eax, DWORD PTR ?pmove@@3PAUplayermove_s@@A ; pmove
	mov	ecx, DWORD PTR [eax+325044]
	call	ecx
	add	esp, 24					; 00000018H
	jmp	SHORT $LN28@PM_PlaySte
$LN118@PM_PlaySte:

; 652  : 		case 5:	pmove->PM_PlaySound( CHAN_BODY, "footsteps/carpet6.wav", fvol, ATTN_NORM, 0, PITCH_NORM );	break;

	push	100					; 00000064H
	push	0
	push	ecx
	movss	xmm0, DWORD PTR __real@3f4ccccd
	movss	DWORD PTR [esp], xmm0
	push	ecx
	movss	xmm0, DWORD PTR _fvol$[ebp]
	movss	DWORD PTR [esp], xmm0
	push	OFFSET ??_C@_0BG@NPAOOFIB@footsteps?1carpet6?4wav?$AA@
	push	4
	mov	eax, DWORD PTR ?pmove@@3PAUplayermove_s@@A ; pmove
	mov	ecx, DWORD PTR [eax+325044]
	call	ecx
	add	esp, 24					; 00000018H
$LN28@PM_PlaySte:

; 653  : 		}
; 654  : 		break;

	jmp	$LN2@PM_PlaySte
$LN119@PM_PlaySte:

; 655  : 	case STEP_GRASS:
; 656  : 		if ( !pmove->RandomLong(0,3) )

	push	3
	push	0
	mov	eax, DWORD PTR ?pmove@@3PAUplayermove_s@@A ; pmove
	mov	ecx, DWORD PTR [eax+325000]
	call	ecx
	add	esp, 8
	test	eax, eax
	jne	SHORT $LN120@PM_PlaySte

; 657  : 			irand = pmove->RandomLong(4,5);

	push	5
	push	4
	mov	eax, DWORD PTR ?pmove@@3PAUplayermove_s@@A ; pmove
	mov	ecx, DWORD PTR [eax+325000]
	call	ecx
	add	esp, 8
	mov	DWORD PTR _irand$[ebp], eax
$LN120@PM_PlaySte:

; 658  : 		switch(irand)

	mov	eax, DWORD PTR _irand$[ebp]
	mov	DWORD PTR tv718[ebp], eax
	cmp	DWORD PTR tv718[ebp], 5
	ja	$LN30@PM_PlaySte
	mov	ecx, DWORD PTR tv718[ebp]
	jmp	DWORD PTR $LN160@PM_PlaySte[ecx*4]
$LN121@PM_PlaySte:

; 659  : 		{
; 660  : 		// right foot
; 661  : 		case 0:	pmove->PM_PlaySound( CHAN_BODY, "footsteps/grass1.wav", fvol, ATTN_NORM, 0, PITCH_NORM );	break;

	push	100					; 00000064H
	push	0
	push	ecx
	movss	xmm0, DWORD PTR __real@3f4ccccd
	movss	DWORD PTR [esp], xmm0
	push	ecx
	movss	xmm0, DWORD PTR _fvol$[ebp]
	movss	DWORD PTR [esp], xmm0
	push	OFFSET ??_C@_0BF@BAMIFDIP@footsteps?1grass1?4wav?$AA@
	push	4
	mov	eax, DWORD PTR ?pmove@@3PAUplayermove_s@@A ; pmove
	mov	ecx, DWORD PTR [eax+325044]
	call	ecx
	add	esp, 24					; 00000018H
	jmp	$LN30@PM_PlaySte
$LN122@PM_PlaySte:

; 662  : 		case 1:	pmove->PM_PlaySound( CHAN_BODY, "footsteps/grass2.wav", fvol, ATTN_NORM, 0, PITCH_NORM );	break;

	push	100					; 00000064H
	push	0
	push	ecx
	movss	xmm0, DWORD PTR __real@3f4ccccd
	movss	DWORD PTR [esp], xmm0
	push	ecx
	movss	xmm0, DWORD PTR _fvol$[ebp]
	movss	DWORD PTR [esp], xmm0
	push	OFFSET ??_C@_0BF@JGFMCBCB@footsteps?1grass2?4wav?$AA@
	push	4
	mov	eax, DWORD PTR ?pmove@@3PAUplayermove_s@@A ; pmove
	mov	ecx, DWORD PTR [eax+325044]
	call	ecx
	add	esp, 24					; 00000018H
	jmp	$LN30@PM_PlaySte
$LN123@PM_PlaySte:

; 663  : 		case 2:	pmove->PM_PlaySound( CHAN_BODY, "footsteps/grass3.wav", fvol, ATTN_NORM, 0, PITCH_NORM );	break;

	push	100					; 00000064H
	push	0
	push	ecx
	movss	xmm0, DWORD PTR __real@3f4ccccd
	movss	DWORD PTR [esp], xmm0
	push	ecx
	movss	xmm0, DWORD PTR _fvol$[ebp]
	movss	DWORD PTR [esp], xmm0
	push	OFFSET ??_C@_0BF@FNAAPCIE@footsteps?1grass3?4wav?$AA@
	push	4
	mov	eax, DWORD PTR ?pmove@@3PAUplayermove_s@@A ; pmove
	mov	ecx, DWORD PTR [eax+325044]
	call	ecx
	add	esp, 24					; 00000018H
	jmp	$LN30@PM_PlaySte
$LN124@PM_PlaySte:

; 664  : 		// left foot
; 665  : 		case 3:	pmove->PM_PlaySound( CHAN_BODY, "footsteps/grass4.wav", fvol, ATTN_NORM, 0, PITCH_NORM );	break;

	push	100					; 00000064H
	push	0
	push	ecx
	movss	xmm0, DWORD PTR __real@3f4ccccd
	movss	DWORD PTR [esp], xmm0
	push	ecx
	movss	xmm0, DWORD PTR _fvol$[ebp]
	movss	DWORD PTR [esp], xmm0
	push	OFFSET ??_C@_0BF@EAAFMCDM@footsteps?1grass4?4wav?$AA@
	push	4
	mov	eax, DWORD PTR ?pmove@@3PAUplayermove_s@@A ; pmove
	mov	ecx, DWORD PTR [eax+325044]
	call	ecx
	add	esp, 24					; 00000018H
	jmp	SHORT $LN30@PM_PlaySte
$LN125@PM_PlaySte:

; 666  : 		case 4:	pmove->PM_PlaySound( CHAN_BODY, "footsteps/grass5.wav", fvol, ATTN_NORM, 0, PITCH_NORM );	break;

	push	100					; 00000064H
	push	0
	push	ecx
	movss	xmm0, DWORD PTR __real@3f4ccccd
	movss	DWORD PTR [esp], xmm0
	push	ecx
	movss	xmm0, DWORD PTR _fvol$[ebp]
	movss	DWORD PTR [esp], xmm0
	push	OFFSET ??_C@_0BF@ILFJBBJJ@footsteps?1grass5?4wav?$AA@
	push	4
	mov	eax, DWORD PTR ?pmove@@3PAUplayermove_s@@A ; pmove
	mov	ecx, DWORD PTR [eax+325044]
	call	ecx
	add	esp, 24					; 00000018H
	jmp	SHORT $LN30@PM_PlaySte
$LN126@PM_PlaySte:

; 667  : 		case 5:	pmove->PM_PlaySound( CHAN_BODY, "footsteps/grass6.wav", fvol, ATTN_NORM, 0, PITCH_NORM );	break;

	push	100					; 00000064H
	push	0
	push	ecx
	movss	xmm0, DWORD PTR __real@3f4ccccd
	movss	DWORD PTR [esp], xmm0
	push	ecx
	movss	xmm0, DWORD PTR _fvol$[ebp]
	movss	DWORD PTR [esp], xmm0
	push	OFFSET ??_C@_0BF@NMNGDDH@footsteps?1grass6?4wav?$AA@
	push	4
	mov	eax, DWORD PTR ?pmove@@3PAUplayermove_s@@A ; pmove
	mov	ecx, DWORD PTR [eax+325044]
	call	ecx
	add	esp, 24					; 00000018H
$LN30@PM_PlaySte:

; 668  : 		}
; 669  : 		break;

	jmp	$LN2@PM_PlaySte
$LN127@PM_PlaySte:

; 670  : 	case STEP_GRAVEL:
; 671  : 		if ( !pmove->RandomLong(0,3) )

	push	3
	push	0
	mov	eax, DWORD PTR ?pmove@@3PAUplayermove_s@@A ; pmove
	mov	ecx, DWORD PTR [eax+325000]
	call	ecx
	add	esp, 8
	test	eax, eax
	jne	SHORT $LN128@PM_PlaySte

; 672  : 			irand = pmove->RandomLong(4,5);

	push	5
	push	4
	mov	eax, DWORD PTR ?pmove@@3PAUplayermove_s@@A ; pmove
	mov	ecx, DWORD PTR [eax+325000]
	call	ecx
	add	esp, 8
	mov	DWORD PTR _irand$[ebp], eax
$LN128@PM_PlaySte:

; 673  : 		switch(irand)

	mov	eax, DWORD PTR _irand$[ebp]
	mov	DWORD PTR tv803[ebp], eax
	cmp	DWORD PTR tv803[ebp], 5
	ja	$LN32@PM_PlaySte
	mov	ecx, DWORD PTR tv803[ebp]
	jmp	DWORD PTR $LN161@PM_PlaySte[ecx*4]
$LN129@PM_PlaySte:

; 674  : 		{
; 675  : 		// right foot
; 676  : 		case 0:	pmove->PM_PlaySound( CHAN_BODY, "footsteps/gravel1.wav", fvol, ATTN_NORM, 0, PITCH_NORM );	break;

	push	100					; 00000064H
	push	0
	push	ecx
	movss	xmm0, DWORD PTR __real@3f4ccccd
	movss	DWORD PTR [esp], xmm0
	push	ecx
	movss	xmm0, DWORD PTR _fvol$[ebp]
	movss	DWORD PTR [esp], xmm0
	push	OFFSET ??_C@_0BG@BNKLNNEE@footsteps?1gravel1?4wav?$AA@
	push	4
	mov	eax, DWORD PTR ?pmove@@3PAUplayermove_s@@A ; pmove
	mov	ecx, DWORD PTR [eax+325044]
	call	ecx
	add	esp, 24					; 00000018H
	jmp	$LN32@PM_PlaySte
$LN130@PM_PlaySte:

; 677  : 		case 1:	pmove->PM_PlaySound( CHAN_BODY, "footsteps/gravel2.wav", fvol, ATTN_NORM, 0, PITCH_NORM );	break;

	push	100					; 00000064H
	push	0
	push	ecx
	movss	xmm0, DWORD PTR __real@3f4ccccd
	movss	DWORD PTR [esp], xmm0
	push	ecx
	movss	xmm0, DWORD PTR _fvol$[ebp]
	movss	DWORD PTR [esp], xmm0
	push	OFFSET ??_C@_0BG@JLDPKPOK@footsteps?1gravel2?4wav?$AA@
	push	4
	mov	eax, DWORD PTR ?pmove@@3PAUplayermove_s@@A ; pmove
	mov	ecx, DWORD PTR [eax+325044]
	call	ecx
	add	esp, 24					; 00000018H
	jmp	$LN32@PM_PlaySte
$LN131@PM_PlaySte:

; 678  : 		case 2:	pmove->PM_PlaySound( CHAN_BODY, "footsteps/gravel3.wav", fvol, ATTN_NORM, 0, PITCH_NORM );	break;

	push	100					; 00000064H
	push	0
	push	ecx
	movss	xmm0, DWORD PTR __real@3f4ccccd
	movss	DWORD PTR [esp], xmm0
	push	ecx
	movss	xmm0, DWORD PTR _fvol$[ebp]
	movss	DWORD PTR [esp], xmm0
	push	OFFSET ??_C@_0BG@FAGDHMEP@footsteps?1gravel3?4wav?$AA@
	push	4
	mov	eax, DWORD PTR ?pmove@@3PAUplayermove_s@@A ; pmove
	mov	ecx, DWORD PTR [eax+325044]
	call	ecx
	add	esp, 24					; 00000018H
	jmp	$LN32@PM_PlaySte
$LN132@PM_PlaySte:

; 679  : 		// left foot
; 680  : 		case 3:	pmove->PM_PlaySound( CHAN_BODY, "footsteps/gravel4.wav", fvol, ATTN_NORM, 0, PITCH_NORM );	break;

	push	100					; 00000064H
	push	0
	push	ecx
	movss	xmm0, DWORD PTR __real@3f4ccccd
	movss	DWORD PTR [esp], xmm0
	push	ecx
	movss	xmm0, DWORD PTR _fvol$[ebp]
	movss	DWORD PTR [esp], xmm0
	push	OFFSET ??_C@_0BG@ENGGEMPH@footsteps?1gravel4?4wav?$AA@
	push	4
	mov	eax, DWORD PTR ?pmove@@3PAUplayermove_s@@A ; pmove
	mov	ecx, DWORD PTR [eax+325044]
	call	ecx
	add	esp, 24					; 00000018H
	jmp	SHORT $LN32@PM_PlaySte
$LN133@PM_PlaySte:

; 681  : 		case 4:	pmove->PM_PlaySound( CHAN_BODY, "footsteps/gravel5.wav", fvol, ATTN_NORM, 0, PITCH_NORM );	break;

	push	100					; 00000064H
	push	0
	push	ecx
	movss	xmm0, DWORD PTR __real@3f4ccccd
	movss	DWORD PTR [esp], xmm0
	push	ecx
	movss	xmm0, DWORD PTR _fvol$[ebp]
	movss	DWORD PTR [esp], xmm0
	push	OFFSET ??_C@_0BG@IGDKJPFC@footsteps?1gravel5?4wav?$AA@
	push	4
	mov	eax, DWORD PTR ?pmove@@3PAUplayermove_s@@A ; pmove
	mov	ecx, DWORD PTR [eax+325044]
	call	ecx
	add	esp, 24					; 00000018H
	jmp	SHORT $LN32@PM_PlaySte
$LN134@PM_PlaySte:

; 682  : 		case 5:	pmove->PM_PlaySound( CHAN_BODY, "footsteps/gravel6.wav", fvol, ATTN_NORM, 0, PITCH_NORM );	break;

	push	100					; 00000064H
	push	0
	push	ecx
	movss	xmm0, DWORD PTR __real@3f4ccccd
	movss	DWORD PTR [esp], xmm0
	push	ecx
	movss	xmm0, DWORD PTR _fvol$[ebp]
	movss	DWORD PTR [esp], xmm0
	push	OFFSET ??_C@_0BG@KOONPM@footsteps?1gravel6?4wav?$AA@
	push	4
	mov	eax, DWORD PTR ?pmove@@3PAUplayermove_s@@A ; pmove
	mov	ecx, DWORD PTR [eax+325044]
	call	ecx
	add	esp, 24					; 00000018H
$LN32@PM_PlaySte:

; 683  : 		}
; 684  : 		break;

	jmp	$LN2@PM_PlaySte
$LN135@PM_PlaySte:

; 685  : 	case STEP_GLASS:
; 686  : 		if ( !pmove->RandomLong(0,3) )

	push	3
	push	0
	mov	eax, DWORD PTR ?pmove@@3PAUplayermove_s@@A ; pmove
	mov	ecx, DWORD PTR [eax+325000]
	call	ecx
	add	esp, 8
	test	eax, eax
	jne	SHORT $LN136@PM_PlaySte

; 687  : 			irand = pmove->RandomLong(4,5);

	push	5
	push	4
	mov	eax, DWORD PTR ?pmove@@3PAUplayermove_s@@A ; pmove
	mov	ecx, DWORD PTR [eax+325000]
	call	ecx
	add	esp, 8
	mov	DWORD PTR _irand$[ebp], eax
$LN136@PM_PlaySte:

; 688  : 		switch(irand)

	mov	eax, DWORD PTR _irand$[ebp]
	mov	DWORD PTR tv856[ebp], eax
	cmp	DWORD PTR tv856[ebp], 5
	ja	$LN34@PM_PlaySte
	mov	ecx, DWORD PTR tv856[ebp]
	jmp	DWORD PTR $LN162@PM_PlaySte[ecx*4]
$LN137@PM_PlaySte:

; 689  : 		{
; 690  : 		// right foot
; 691  : 		case 0:	pmove->PM_PlaySound( CHAN_BODY, "footsteps/glass1.wav", fvol, ATTN_NORM, 0, PITCH_NORM );	break;

	push	100					; 00000064H
	push	0
	push	ecx
	movss	xmm0, DWORD PTR __real@3f4ccccd
	movss	DWORD PTR [esp], xmm0
	push	ecx
	movss	xmm0, DWORD PTR _fvol$[ebp]
	movss	DWORD PTR [esp], xmm0
	push	OFFSET ??_C@_0BF@CJKPOCNE@footsteps?1glass1?4wav?$AA@
	push	4
	mov	eax, DWORD PTR ?pmove@@3PAUplayermove_s@@A ; pmove
	mov	ecx, DWORD PTR [eax+325044]
	call	ecx
	add	esp, 24					; 00000018H
	jmp	$LN34@PM_PlaySte
$LN138@PM_PlaySte:

; 692  : 		case 1:	pmove->PM_PlaySound( CHAN_BODY, "footsteps/glass2.wav", fvol, ATTN_NORM, 0, PITCH_NORM );	break;

	push	100					; 00000064H
	push	0
	push	ecx
	movss	xmm0, DWORD PTR __real@3f4ccccd
	movss	DWORD PTR [esp], xmm0
	push	ecx
	movss	xmm0, DWORD PTR _fvol$[ebp]
	movss	DWORD PTR [esp], xmm0
	push	OFFSET ??_C@_0BF@KPDLJAHK@footsteps?1glass2?4wav?$AA@
	push	4
	mov	eax, DWORD PTR ?pmove@@3PAUplayermove_s@@A ; pmove
	mov	ecx, DWORD PTR [eax+325044]
	call	ecx
	add	esp, 24					; 00000018H
	jmp	$LN34@PM_PlaySte
$LN139@PM_PlaySte:

; 693  : 		case 2:	pmove->PM_PlaySound( CHAN_BODY, "footsteps/glass3.wav", fvol, ATTN_NORM, 0, PITCH_NORM );	break;

	push	100					; 00000064H
	push	0
	push	ecx
	movss	xmm0, DWORD PTR __real@3f4ccccd
	movss	DWORD PTR [esp], xmm0
	push	ecx
	movss	xmm0, DWORD PTR _fvol$[ebp]
	movss	DWORD PTR [esp], xmm0
	push	OFFSET ??_C@_0BF@GEGHEDNP@footsteps?1glass3?4wav?$AA@
	push	4
	mov	eax, DWORD PTR ?pmove@@3PAUplayermove_s@@A ; pmove
	mov	ecx, DWORD PTR [eax+325044]
	call	ecx
	add	esp, 24					; 00000018H
	jmp	$LN34@PM_PlaySte
$LN140@PM_PlaySte:

; 694  : 		// left foot
; 695  : 		case 3:	pmove->PM_PlaySound( CHAN_BODY, "footsteps/glass4.wav", fvol, ATTN_NORM, 0, PITCH_NORM );	break;

	push	100					; 00000064H
	push	0
	push	ecx
	movss	xmm0, DWORD PTR __real@3f4ccccd
	movss	DWORD PTR [esp], xmm0
	push	ecx
	movss	xmm0, DWORD PTR _fvol$[ebp]
	movss	DWORD PTR [esp], xmm0
	push	OFFSET ??_C@_0BF@HJGCHDGH@footsteps?1glass4?4wav?$AA@
	push	4
	mov	eax, DWORD PTR ?pmove@@3PAUplayermove_s@@A ; pmove
	mov	ecx, DWORD PTR [eax+325044]
	call	ecx
	add	esp, 24					; 00000018H
	jmp	SHORT $LN34@PM_PlaySte
$LN141@PM_PlaySte:

; 696  : 		case 4:	pmove->PM_PlaySound( CHAN_BODY, "footsteps/glass5.wav", fvol, ATTN_NORM, 0, PITCH_NORM );	break;

	push	100					; 00000064H
	push	0
	push	ecx
	movss	xmm0, DWORD PTR __real@3f4ccccd
	movss	DWORD PTR [esp], xmm0
	push	ecx
	movss	xmm0, DWORD PTR _fvol$[ebp]
	movss	DWORD PTR [esp], xmm0
	push	OFFSET ??_C@_0BF@LCDOKAMC@footsteps?1glass5?4wav?$AA@
	push	4
	mov	eax, DWORD PTR ?pmove@@3PAUplayermove_s@@A ; pmove
	mov	ecx, DWORD PTR [eax+325044]
	call	ecx
	add	esp, 24					; 00000018H
	jmp	SHORT $LN34@PM_PlaySte
$LN142@PM_PlaySte:

; 697  : 		case 5:	pmove->PM_PlaySound( CHAN_BODY, "footsteps/glass6.wav", fvol, ATTN_NORM, 0, PITCH_NORM );	break;

	push	100					; 00000064H
	push	0
	push	ecx
	movss	xmm0, DWORD PTR __real@3f4ccccd
	movss	DWORD PTR [esp], xmm0
	push	ecx
	movss	xmm0, DWORD PTR _fvol$[ebp]
	movss	DWORD PTR [esp], xmm0
	push	OFFSET ??_C@_0BF@DEKKNCGM@footsteps?1glass6?4wav?$AA@
	push	4
	mov	eax, DWORD PTR ?pmove@@3PAUplayermove_s@@A ; pmove
	mov	ecx, DWORD PTR [eax+325044]
	call	ecx
	add	esp, 24					; 00000018H
$LN34@PM_PlaySte:
$LN2@PM_PlaySte:
$LN1@PM_PlaySte:

; 698  : 		}
; 699  : 		break;
; 700  : 	}
; 701  : }	

	pop	edi
	pop	esi
	pop	ebx
	mov	esp, ebp
	pop	ebp
	ret	0
	npad	2
$LN146@PM_PlaySte:
	DD	$LN48@PM_PlaySte
	DD	$LN53@PM_PlaySte
	DD	$LN58@PM_PlaySte
	DD	$LN63@PM_PlaySte
	DD	$LN68@PM_PlaySte
	DD	$LN75@PM_PlaySte
	DD	$LN80@PM_PlaySte
	DD	$LN85@PM_PlaySte
	DD	$LN95@PM_PlaySte
	DD	$LN103@PM_PlaySte
	DD	$LN111@PM_PlaySte
	DD	$LN119@PM_PlaySte
	DD	$LN127@PM_PlaySte
	DD	$LN135@PM_PlaySte
	DD	$LN47@PM_PlaySte
	DD	$LN90@PM_PlaySte
$LN147@PM_PlaySte:
	DD	$LN41@PM_PlaySte
	DD	$LN42@PM_PlaySte
	DD	$LN43@PM_PlaySte
	DD	$LN44@PM_PlaySte
	DD	$LN45@PM_PlaySte
	DD	$LN46@PM_PlaySte
$LN148@PM_PlaySte:
	DD	$LN49@PM_PlaySte
	DD	$LN50@PM_PlaySte
	DD	$LN51@PM_PlaySte
	DD	$LN52@PM_PlaySte
$LN149@PM_PlaySte:
	DD	$LN54@PM_PlaySte
	DD	$LN55@PM_PlaySte
	DD	$LN56@PM_PlaySte
	DD	$LN57@PM_PlaySte
$LN150@PM_PlaySte:
	DD	$LN59@PM_PlaySte
	DD	$LN60@PM_PlaySte
	DD	$LN61@PM_PlaySte
	DD	$LN62@PM_PlaySte
$LN151@PM_PlaySte:
	DD	$LN64@PM_PlaySte
	DD	$LN65@PM_PlaySte
	DD	$LN66@PM_PlaySte
	DD	$LN67@PM_PlaySte
$LN152@PM_PlaySte:
	DD	$LN70@PM_PlaySte
	DD	$LN71@PM_PlaySte
	DD	$LN72@PM_PlaySte
	DD	$LN73@PM_PlaySte
	DD	$LN74@PM_PlaySte
$LN153@PM_PlaySte:
	DD	$LN76@PM_PlaySte
	DD	$LN77@PM_PlaySte
	DD	$LN78@PM_PlaySte
	DD	$LN79@PM_PlaySte
$LN154@PM_PlaySte:
	DD	$LN81@PM_PlaySte
	DD	$LN82@PM_PlaySte
	DD	$LN83@PM_PlaySte
	DD	$LN84@PM_PlaySte
$LN155@PM_PlaySte:
	DD	$LN86@PM_PlaySte
	DD	$LN87@PM_PlaySte
	DD	$LN88@PM_PlaySte
	DD	$LN89@PM_PlaySte
$LN156@PM_PlaySte:
	DD	$LN91@PM_PlaySte
	DD	$LN92@PM_PlaySte
	DD	$LN93@PM_PlaySte
	DD	$LN94@PM_PlaySte
$LN157@PM_PlaySte:
	DD	$LN97@PM_PlaySte
	DD	$LN98@PM_PlaySte
	DD	$LN99@PM_PlaySte
	DD	$LN100@PM_PlaySte
	DD	$LN101@PM_PlaySte
	DD	$LN102@PM_PlaySte
$LN158@PM_PlaySte:
	DD	$LN105@PM_PlaySte
	DD	$LN106@PM_PlaySte
	DD	$LN107@PM_PlaySte
	DD	$LN108@PM_PlaySte
	DD	$LN109@PM_PlaySte
	DD	$LN110@PM_PlaySte
$LN159@PM_PlaySte:
	DD	$LN113@PM_PlaySte
	DD	$LN114@PM_PlaySte
	DD	$LN115@PM_PlaySte
	DD	$LN116@PM_PlaySte
	DD	$LN117@PM_PlaySte
	DD	$LN118@PM_PlaySte
$LN160@PM_PlaySte:
	DD	$LN121@PM_PlaySte
	DD	$LN122@PM_PlaySte
	DD	$LN123@PM_PlaySte
	DD	$LN124@PM_PlaySte
	DD	$LN125@PM_PlaySte
	DD	$LN126@PM_PlaySte
$LN161@PM_PlaySte:
	DD	$LN129@PM_PlaySte
	DD	$LN130@PM_PlaySte
	DD	$LN131@PM_PlaySte
	DD	$LN132@PM_PlaySte
	DD	$LN133@PM_PlaySte
	DD	$LN134@PM_PlaySte
$LN162@PM_PlaySte:
	DD	$LN137@PM_PlaySte
	DD	$LN138@PM_PlaySte
	DD	$LN139@PM_PlaySte
	DD	$LN140@PM_PlaySte
	DD	$LN141@PM_PlaySte
	DD	$LN142@PM_PlaySte
?PM_PlayStepSound@@YAXHM@Z ENDP				; PM_PlayStepSound
_TEXT	ENDS
; Function compile flags: /Odtp /ZI
; File c:\program files (x86)\windows kits\10\include\10.0.10240.0\ucrt\string.h
;	COMDAT ??$strcpy_s@$0IA@@@YAHAAY0IA@DPBD@Z
_TEXT	SEGMENT
__Destination$ = 8					; size = 4
__Source$ = 12						; size = 4
??$strcpy_s@$0IA@@@YAHAAY0IA@DPBD@Z PROC		; strcpy_s<128>, COMDAT

; 128  :     )

	push	ebp
	mov	ebp, esp
	sub	esp, 64					; 00000040H
	push	ebx
	push	esi
	push	edi

; 124  : __DEFINE_CPP_OVERLOAD_SECURE_FUNC_0_1(

	mov	eax, DWORD PTR __Source$[ebp]
	push	eax
	push	128					; 00000080H
	mov	ecx, DWORD PTR __Destination$[ebp]
	push	ecx
	call	_strcpy_s
	add	esp, 12					; 0000000cH
	pop	edi
	pop	esi
	pop	ebx
	mov	esp, ebp
	pop	ebp
	ret	0
??$strcpy_s@$0IA@@@YAHAAY0IA@DPBD@Z ENDP		; strcpy_s<128>
_TEXT	ENDS
; Function compile flags: /Odtp /ZI
; File d:\!diffusion 2020\source code 2022\client-server\game_shared\playermove.cpp
;	COMDAT ?PM_PlayGroupSound@@YAXPBDHM@Z
_TEXT	SEGMENT
tv73 = -72						; size = 4
_i$ = -4						; size = 4
_szValue$ = 8						; size = 4
_irand$ = 12						; size = 4
_fvol$ = 16						; size = 4
?PM_PlayGroupSound@@YAXPBDHM@Z PROC			; PM_PlayGroupSound, COMDAT

; 330  : {

	push	ebp
	mov	ebp, esp
	sub	esp, 72					; 00000048H
	push	ebx
	push	esi
	push	edi

; 331  : 	static char szBuf[128];
; 332  : 	int i;
; 333  : 	for (i = 0; szValue[i]; i++)

	mov	DWORD PTR _i$[ebp], 0
	jmp	SHORT $LN4@PM_PlayGro
$LN2@PM_PlayGro:
	mov	eax, DWORD PTR _i$[ebp]
	add	eax, 1
	mov	DWORD PTR _i$[ebp], eax
$LN4@PM_PlayGro:
	mov	eax, DWORD PTR _szValue$[ebp]
	add	eax, DWORD PTR _i$[ebp]
	movsx	ecx, BYTE PTR [eax]
	test	ecx, ecx
	je	$LN3@PM_PlayGro

; 334  : 	{
; 335  : 		if (szValue[i] == '?')

	mov	eax, DWORD PTR _szValue$[ebp]
	add	eax, DWORD PTR _i$[ebp]
	movsx	ecx, BYTE PTR [eax]
	cmp	ecx, 63					; 0000003fH
	jne	$LN7@PM_PlayGro

; 336  : 		{
; 337  : 			strcpy_s(szBuf, szValue);

	mov	eax, DWORD PTR _szValue$[ebp]
	push	eax
	push	OFFSET ?szBuf@?1??PM_PlayGroupSound@@YAXPBDHM@Z@4PADA
	call	??$strcpy_s@$0IA@@@YAHAAY0IA@DPBD@Z	; strcpy_s<128>
	add	esp, 8

; 338  : 			switch (irand)

	mov	eax, DWORD PTR _irand$[ebp]
	mov	DWORD PTR tv73[ebp], eax
	cmp	DWORD PTR tv73[ebp], 3
	ja	SHORT $LN12@PM_PlayGro
	mov	ecx, DWORD PTR tv73[ebp]
	jmp	DWORD PTR $LN14@PM_PlayGro[ecx*4]
$LN8@PM_PlayGro:

; 339  : 			{
; 340  : 			// right foot
; 341  : 			case 0:	szBuf[i] = '1';	break;

	mov	eax, DWORD PTR _i$[ebp]
	mov	BYTE PTR ?szBuf@?1??PM_PlayGroupSound@@YAXPBDHM@Z@4PADA[eax], 49 ; 00000031H
	jmp	SHORT $LN5@PM_PlayGro
$LN9@PM_PlayGro:

; 342  : 			case 1:	szBuf[i] = '3';	break;

	mov	eax, DWORD PTR _i$[ebp]
	mov	BYTE PTR ?szBuf@?1??PM_PlayGroupSound@@YAXPBDHM@Z@4PADA[eax], 51 ; 00000033H
	jmp	SHORT $LN5@PM_PlayGro
$LN10@PM_PlayGro:

; 343  : 			// left foot
; 344  : 			case 2:	szBuf[i] = '2';	break;

	mov	eax, DWORD PTR _i$[ebp]
	mov	BYTE PTR ?szBuf@?1??PM_PlayGroupSound@@YAXPBDHM@Z@4PADA[eax], 50 ; 00000032H
	jmp	SHORT $LN5@PM_PlayGro
$LN11@PM_PlayGro:

; 345  : 			case 3:	szBuf[i] = '4';	break;

	mov	eax, DWORD PTR _i$[ebp]
	mov	BYTE PTR ?szBuf@?1??PM_PlayGroupSound@@YAXPBDHM@Z@4PADA[eax], 52 ; 00000034H
	jmp	SHORT $LN5@PM_PlayGro
$LN12@PM_PlayGro:

; 346  : 			default: szBuf[i] = '#';

	mov	eax, DWORD PTR _i$[ebp]
	mov	BYTE PTR ?szBuf@?1??PM_PlayGroupSound@@YAXPBDHM@Z@4PADA[eax], 35 ; 00000023H
$LN5@PM_PlayGro:

; 347  : 			}
; 348  : 			pmove->PM_PlaySound( CHAN_BODY, szBuf, fvol, ATTN_NORM, 0, PITCH_NORM );

	push	100					; 00000064H
	push	0
	push	ecx
	movss	xmm0, DWORD PTR __real@3f4ccccd
	movss	DWORD PTR [esp], xmm0
	push	ecx
	movss	xmm0, DWORD PTR _fvol$[ebp]
	movss	DWORD PTR [esp], xmm0
	push	OFFSET ?szBuf@?1??PM_PlayGroupSound@@YAXPBDHM@Z@4PADA
	push	4
	mov	eax, DWORD PTR ?pmove@@3PAUplayermove_s@@A ; pmove
	mov	ecx, DWORD PTR [eax+325044]
	call	ecx
	add	esp, 24					; 00000018H

; 349  : 			return;

	jmp	SHORT $LN1@PM_PlayGro
$LN7@PM_PlayGro:

; 350  : 		}
; 351  : 	}

	jmp	$LN2@PM_PlayGro
$LN3@PM_PlayGro:

; 352  : 	pmove->PM_PlaySound( CHAN_BODY, szValue, fvol, ATTN_NORM, 0, PITCH_NORM );

	push	100					; 00000064H
	push	0
	push	ecx
	movss	xmm0, DWORD PTR __real@3f4ccccd
	movss	DWORD PTR [esp], xmm0
	push	ecx
	movss	xmm0, DWORD PTR _fvol$[ebp]
	movss	DWORD PTR [esp], xmm0
	mov	eax, DWORD PTR _szValue$[ebp]
	push	eax
	push	4
	mov	ecx, DWORD PTR ?pmove@@3PAUplayermove_s@@A ; pmove
	mov	edx, DWORD PTR [ecx+325044]
	call	edx
	add	esp, 24					; 00000018H
$LN1@PM_PlayGro:

; 353  : }

	pop	edi
	pop	esi
	pop	ebx
	mov	esp, ebp
	pop	ebp
	ret	0
	npad	3
$LN14@PM_PlayGro:
	DD	$LN8@PM_PlayGro
	DD	$LN9@PM_PlayGro
	DD	$LN10@PM_PlayGro
	DD	$LN11@PM_PlayGro
?PM_PlayGroupSound@@YAXPBDHM@Z ENDP			; PM_PlayGroupSound
_TEXT	ENDS
; Function compile flags: /Odtp /ZI
; File d:\!diffusion 2020\source code 2022\client-server\game_shared\playermove.cpp
;	COMDAT ?PM_FindTextureType@@YADPAD@Z
_TEXT	SEGMENT
_val$ = -16						; size = 4
_pivot$ = -12						; size = 4
_right$ = -8						; size = 4
_left$ = -4						; size = 4
_name$ = 8						; size = 4
?PM_FindTextureType@@YADPAD@Z PROC			; PM_FindTextureType, COMDAT

; 298  : {

	push	ebp
	mov	ebp, esp
	sub	esp, 80					; 00000050H
	push	ebx
	push	esi
	push	edi

; 299  : 	int left, right, pivot;
; 300  : 	int val;
; 301  : 
; 302  : 	assert( pm_shared_initialized );

	cmp	DWORD PTR ?pm_shared_initialized@@3HA, 0
	jne	SHORT $LN10@PM_FindTex
	mov	eax, DWORD PTR ?__LINE__Var@?0??PM_FindTextureType@@YADPAD@Z@4JA
	add	eax, 4
	push	eax
	push	OFFSET ??_C@_1JK@HGLHDLOI@?$AAd?$AA?3?$AA?2?$AA?$CB?$AAd?$AAi?$AAf?$AAf?$AAu?$AAs?$AAi?$AAo?$AAn?$AA?5?$AA2?$AA0?$AA2?$AA0?$AA?2?$AAs?$AAo?$AAu?$AAr?$AAc?$AAe?$AA?5?$AAc?$AAo?$AAd?$AAe?$AA?5?$AA2@
	push	OFFSET ??_C@_1CM@MFEIHPMD@?$AAp?$AAm?$AA_?$AAs?$AAh?$AAa?$AAr?$AAe?$AAd?$AA_?$AAi?$AAn?$AAi?$AAt?$AAi?$AAa?$AAl?$AAi?$AAz?$AAe?$AAd?$AA?$AA@
	call	__wassert
	add	esp, 12					; 0000000cH
$LN10@PM_FindTex:

; 303  : 
; 304  : 	left = 0;

	mov	DWORD PTR _left$[ebp], 0

; 305  : 	right = gcTextures - 1;

	mov	eax, DWORD PTR ?gcTextures@@3HA
	sub	eax, 1
	mov	DWORD PTR _right$[ebp], eax
$LN2@PM_FindTex:

; 306  : 
; 307  : 	while ( left <= right )

	mov	eax, DWORD PTR _left$[ebp]
	cmp	eax, DWORD PTR _right$[ebp]
	jg	SHORT $LN3@PM_FindTex

; 308  : 	{
; 309  : 		pivot = ( left + right ) / 2;

	mov	eax, DWORD PTR _left$[ebp]
	add	eax, DWORD PTR _right$[ebp]
	cdq
	sub	eax, edx
	sar	eax, 1
	mov	DWORD PTR _pivot$[ebp], eax

; 310  : 
; 311  : 		val = Q_stricmp( name, grgszTextureName[ pivot ] );

	push	99999					; 0001869fH
	imul	eax, DWORD PTR _pivot$[ebp], 24
	add	eax, OFFSET ?grgszTextureName@@3PAY0BI@DA
	push	eax
	mov	ecx, DWORD PTR _name$[ebp]
	push	ecx
	call	?Q_strnicmp@@YAHPBD0H@Z			; Q_strnicmp
	add	esp, 12					; 0000000cH
	mov	DWORD PTR _val$[ebp], eax

; 312  : 		if ( val == 0 )

	cmp	DWORD PTR _val$[ebp], 0
	jne	SHORT $LN4@PM_FindTex

; 313  : 		{
; 314  : 			return grgchTextureType[ pivot ];

	mov	eax, DWORD PTR _pivot$[ebp]
	mov	al, BYTE PTR ?grgchTextureType@@3PADA[eax]
	jmp	SHORT $LN1@PM_FindTex
	jmp	SHORT $LN5@PM_FindTex
$LN4@PM_FindTex:

; 315  : 		}
; 316  : 		else if ( val > 0 )

	cmp	DWORD PTR _val$[ebp], 0
	jle	SHORT $LN6@PM_FindTex

; 317  : 		{
; 318  : 			left = pivot + 1;

	mov	eax, DWORD PTR _pivot$[ebp]
	add	eax, 1
	mov	DWORD PTR _left$[ebp], eax
	jmp	SHORT $LN5@PM_FindTex
$LN6@PM_FindTex:

; 319  : 		}
; 320  : 		else if ( val < 0 )

	cmp	DWORD PTR _val$[ebp], 0
	jge	SHORT $LN5@PM_FindTex

; 321  : 		{
; 322  : 			right = pivot - 1;

	mov	eax, DWORD PTR _pivot$[ebp]
	sub	eax, 1
	mov	DWORD PTR _right$[ebp], eax
$LN5@PM_FindTex:

; 323  : 		}
; 324  : 	}

	jmp	SHORT $LN2@PM_FindTex
$LN3@PM_FindTex:

; 325  : 
; 326  : 	return CHAR_TEX_CONCRETE;

	mov	al, 67					; 00000043H
$LN1@PM_FindTex:

; 327  : }

	pop	edi
	pop	esi
	pop	ebx
	mov	esp, ebp
	pop	ebp
	ret	0
?PM_FindTextureType@@YADPAD@Z ENDP			; PM_FindTextureType
_TEXT	ENDS
; Function compile flags: /Odtp /ZI
; File d:\!diffusion 2020\source code 2022\client-server\game_shared\playermove.cpp
;	COMDAT ?PM_InitTextureTypes@@YAXXZ
_TEXT	SEGMENT
tv202 = -1252						; size = 4
tv190 = -1252						; size = 4
tv157 = -1252						; size = 4
$T1 = -1248						; size = 4
_commentStart$2 = -1052					; size = 4
_filePos$ = -1048					; size = 4
_fileSize$ = -1044					; size = 4
_pMemFile$ = -1040					; size = 4
_j$ = -1036						; size = 4
_i$ = -1032						; size = 4
_buffer$ = -1028					; size = 1024
__$ArrayPad$ = -4					; size = 4
?PM_InitTextureTypes@@YAXXZ PROC			; PM_InitTextureTypes, COMDAT

; 208  : {

	push	ebp
	mov	ebp, esp
	sub	esp, 1252				; 000004e4H
	mov	eax, DWORD PTR ___security_cookie
	xor	eax, ebp
	mov	DWORD PTR __$ArrayPad$[ebp], eax
	push	ebx
	push	esi
	push	edi

; 209  : 	char buffer[1024];  // diffusion test 512
; 210  : 	int i, j;
; 211  : 	byte *pMemFile;
; 212  : 	int fileSize, filePos = 0;

	mov	DWORD PTR _filePos$[ebp], 0

; 213  : 	static qboolean bTextureTypeInit = false;
; 214  : 
; 215  : 	if ( bTextureTypeInit )

	cmp	DWORD PTR ?bTextureTypeInit@?1??PM_InitTextureTypes@@YAXXZ@4HA, 0
	je	SHORT $LN10@PM_InitTex

; 216  : 		return;

	jmp	$LN17@PM_InitTex
$LN10@PM_InitTex:

; 217  : 
; 218  : 	memset(&(grgszTextureName[0][0]), 0, sizeof( grgszTextureName ));

	push	24576					; 00006000H
	push	0
	mov	eax, 24					; 00000018H
	imul	ecx, eax, 0
	mov	edx, 1
	imul	eax, edx, 0
	lea	ecx, DWORD PTR ?grgszTextureName@@3PAY0BI@DA[ecx+eax]
	push	ecx
	call	_memset
	add	esp, 12					; 0000000cH

; 219  : 	memset(grgchTextureType, 0, sizeof( grgchTextureType ));

	push	1024					; 00000400H
	push	0
	push	OFFSET ?grgchTextureType@@3PADA
	call	_memset
	add	esp, 12					; 0000000cH

; 220  : 
; 221  : 	gcTextures = 0;

	mov	DWORD PTR ?gcTextures@@3HA, 0

; 222  : 	memset(buffer, 0, sizeof( buffer ));  // 512

	push	1024					; 00000400H
	push	0
	lea	eax, DWORD PTR _buffer$[ebp]
	push	eax
	call	_memset
	add	esp, 12					; 0000000cH

; 223  : 
; 224  : 	pMemFile = pmove->COM_LoadFile( "data/materials.txt", 5, &fileSize );

	lea	eax, DWORD PTR _fileSize$[ebp]
	push	eax
	push	5
	push	OFFSET ??_C@_0BD@EJFPBDDL@data?1materials?4txt?$AA@
	mov	ecx, DWORD PTR ?pmove@@3PAUplayermove_s@@A ; pmove
	mov	edx, DWORD PTR [ecx+325028]
	call	edx
	add	esp, 12					; 0000000cH
	mov	DWORD PTR _pMemFile$[ebp], eax

; 225  : 	if ( !pMemFile )

	cmp	DWORD PTR _pMemFile$[ebp], 0
	jne	SHORT $LN2@PM_InitTex

; 226  : 		return;

	jmp	$LN17@PM_InitTex
$LN2@PM_InitTex:

; 227  : 
; 228  : //	filePos = 0;
; 229  : 	// for each line in the file...
; 230  : 	while ( pmove->memfgets( pMemFile, fileSize, &filePos, buffer, sizeof(buffer) - 1 ) != NULL && gcTextures < CTEXTURESMAX )  // 511

	push	1023					; 000003ffH
	lea	eax, DWORD PTR _buffer$[ebp]
	push	eax
	lea	ecx, DWORD PTR _filePos$[ebp]
	push	ecx
	mov	edx, DWORD PTR _fileSize$[ebp]
	push	edx
	mov	eax, DWORD PTR _pMemFile$[ebp]
	push	eax
	mov	ecx, DWORD PTR ?pmove@@3PAUplayermove_s@@A ; pmove
	mov	edx, DWORD PTR [ecx+325036]
	call	edx
	add	esp, 20					; 00000014H
	test	eax, eax
	je	$LN3@PM_InitTex
	cmp	DWORD PTR ?gcTextures@@3HA, 1024	; 00000400H
	jge	$LN3@PM_InitTex

; 231  : 	{
; 232  : 		// skip whitespace
; 233  : 		i = 0;

	mov	DWORD PTR _i$[ebp], 0
$LN4@PM_InitTex:

; 234  : 		/*
; 235  : 		while(buffer[i] && isspace(buffer[i]))
; 236  : 			i++;
; 237  : 		
; 238  : 		if (!buffer[i])
; 239  : 			continue;
; 240  : 
; 241  : 		// skip comment lines
; 242  : 		if (buffer[i] == '/' || !isalpha(buffer[i]))
; 243  : 			continue;*/
; 244  : 		// diffusion - https://github.com/ValveSoftware/halflife/issues/3329
; 245  : 		while( buffer[i] && isspace( buffer[i] ) )

	mov	eax, DWORD PTR _i$[ebp]
	movsx	ecx, BYTE PTR _buffer$[ebp+eax]
	test	ecx, ecx
	je	SHORT $LN5@PM_InitTex
	mov	eax, DWORD PTR _i$[ebp]
	movsx	ecx, BYTE PTR _buffer$[ebp+eax]
	push	ecx
	call	_isspace
	add	esp, 4
	test	eax, eax
	je	SHORT $LN5@PM_InitTex

; 246  : 			i++;

	mov	eax, DWORD PTR _i$[ebp]
	add	eax, 1
	mov	DWORD PTR _i$[ebp], eax
	jmp	SHORT $LN4@PM_InitTex
$LN5@PM_InitTex:

; 247  : 
; 248  : 		char *commentStart = strstr( buffer, "//" );

	push	OFFSET ??_C@_02CBLDBPFN@?1?1?$AA@
	lea	eax, DWORD PTR _buffer$[ebp]
	push	eax
	call	?strstr@@YAPADQADQBD@Z			; strstr
	add	esp, 8
	mov	DWORD PTR _commentStart$2[ebp], eax

; 249  : 
; 250  : 		if( commentStart )

	cmp	DWORD PTR _commentStart$2[ebp], 0
	je	SHORT $LN12@PM_InitTex

; 251  : 			*commentStart = '\0';

	mov	eax, DWORD PTR _commentStart$2[ebp]
	mov	BYTE PTR [eax], 0
$LN12@PM_InitTex:

; 252  : 
; 253  : 		if( !buffer[i] )

	mov	eax, DWORD PTR _i$[ebp]
	movsx	ecx, BYTE PTR _buffer$[ebp+eax]
	test	ecx, ecx
	jne	SHORT $LN13@PM_InitTex

; 254  : 			continue;

	jmp	$LN2@PM_InitTex
$LN13@PM_InitTex:

; 255  : 
; 256  : 		// skip comment lines
; 257  : 		if( !isalpha( buffer[i] ) )

	mov	eax, DWORD PTR _i$[ebp]
	movsx	ecx, BYTE PTR _buffer$[ebp+eax]
	push	ecx
	call	_isalpha
	add	esp, 4
	test	eax, eax
	jne	SHORT $LN14@PM_InitTex

; 258  : 			continue;

	jmp	$LN2@PM_InitTex
$LN14@PM_InitTex:

; 259  : 
; 260  : 		// get texture type
; 261  : 		grgchTextureType[gcTextures] = toupper(buffer[i++]);

	mov	eax, DWORD PTR _i$[ebp]
	movsx	ecx, BYTE PTR _buffer$[ebp+eax]
	mov	DWORD PTR tv157[ebp], ecx
	mov	edx, DWORD PTR tv157[ebp]
	push	edx
	call	_toupper
	add	esp, 4
	mov	ecx, DWORD PTR ?gcTextures@@3HA
	mov	BYTE PTR ?grgchTextureType@@3PADA[ecx], al
	mov	edx, DWORD PTR _i$[ebp]
	add	edx, 1
	mov	DWORD PTR _i$[ebp], edx
$LN6@PM_InitTex:

; 262  : 
; 263  : 		// skip whitespace
; 264  : 		while(buffer[i] && isspace(buffer[i]))

	mov	eax, DWORD PTR _i$[ebp]
	movsx	ecx, BYTE PTR _buffer$[ebp+eax]
	test	ecx, ecx
	je	SHORT $LN7@PM_InitTex
	mov	eax, DWORD PTR _i$[ebp]
	movsx	ecx, BYTE PTR _buffer$[ebp+eax]
	push	ecx
	call	_isspace
	add	esp, 4
	test	eax, eax
	je	SHORT $LN7@PM_InitTex

; 265  : 			i++;

	mov	eax, DWORD PTR _i$[ebp]
	add	eax, 1
	mov	DWORD PTR _i$[ebp], eax
	jmp	SHORT $LN6@PM_InitTex
$LN7@PM_InitTex:

; 266  : 		
; 267  : 		if (!buffer[i])

	mov	eax, DWORD PTR _i$[ebp]
	movsx	ecx, BYTE PTR _buffer$[ebp+eax]
	test	ecx, ecx
	jne	SHORT $LN15@PM_InitTex

; 268  : 			continue;

	jmp	$LN2@PM_InitTex
$LN15@PM_InitTex:

; 269  : 
; 270  : 		// get sentence name
; 271  : 		j = i;

	mov	eax, DWORD PTR _i$[ebp]
	mov	DWORD PTR _j$[ebp], eax
$LN8@PM_InitTex:

; 272  : 		while (buffer[j] && !isspace(buffer[j]))

	mov	eax, DWORD PTR _j$[ebp]
	movsx	ecx, BYTE PTR _buffer$[ebp+eax]
	test	ecx, ecx
	je	SHORT $LN9@PM_InitTex
	mov	eax, DWORD PTR _j$[ebp]
	movsx	ecx, BYTE PTR _buffer$[ebp+eax]
	push	ecx
	call	_isspace
	add	esp, 4
	test	eax, eax
	jne	SHORT $LN9@PM_InitTex

; 273  : 			j++;

	mov	eax, DWORD PTR _j$[ebp]
	add	eax, 1
	mov	DWORD PTR _j$[ebp], eax
	jmp	SHORT $LN8@PM_InitTex
$LN9@PM_InitTex:

; 274  : 
; 275  : 	//	if (!buffer[j])
; 276  : 	//		continue;
; 277  : 		if( i == j ) // diffusion - https://github.com/ValveSoftware/halflife/issues/3328

	mov	eax, DWORD PTR _i$[ebp]
	cmp	eax, DWORD PTR _j$[ebp]
	jne	SHORT $LN16@PM_InitTex

; 278  : 			continue;

	jmp	$LN2@PM_InitTex
$LN16@PM_InitTex:

; 279  : 
; 280  : 		// null-terminate name and save in sentences array
; 281  : 		j = min (j, CBTEXTURENAMEMAX - 1 + i);

	mov	eax, DWORD PTR _i$[ebp]
	add	eax, 23					; 00000017H
	cmp	DWORD PTR _j$[ebp], eax
	jge	SHORT $LN18@PM_InitTex
	mov	ecx, DWORD PTR _j$[ebp]
	mov	DWORD PTR tv190[ebp], ecx
	jmp	SHORT $LN19@PM_InitTex
$LN18@PM_InitTex:
	mov	edx, DWORD PTR _i$[ebp]
	add	edx, 23					; 00000017H
	mov	DWORD PTR tv190[ebp], edx
$LN19@PM_InitTex:
	mov	eax, DWORD PTR tv190[ebp]
	mov	DWORD PTR _j$[ebp], eax

; 282  : 		buffer[j] = 0;

	mov	eax, DWORD PTR _j$[ebp]
	mov	DWORD PTR $T1[ebp], eax
	cmp	DWORD PTR $T1[ebp], 1024		; 00000400H
	jae	SHORT $LN20@PM_InitTex
	jmp	SHORT $LN21@PM_InitTex
$LN20@PM_InitTex:
	call	___report_rangecheckfailure
$LN21@PM_InitTex:
	mov	ecx, DWORD PTR $T1[ebp]
	mov	BYTE PTR _buffer$[ebp+ecx], 0

; 283  : 		strcpy(&(grgszTextureName[gcTextures++][0]), &(buffer[i]));

	imul	eax, DWORD PTR ?gcTextures@@3HA, 24
	mov	ecx, 1
	imul	edx, ecx, 0
	lea	eax, DWORD PTR ?grgszTextureName@@3PAY0BI@DA[eax+edx]
	mov	DWORD PTR tv202[ebp], eax
	mov	ecx, DWORD PTR ?gcTextures@@3HA
	add	ecx, 1
	mov	DWORD PTR ?gcTextures@@3HA, ecx
	mov	edx, DWORD PTR _i$[ebp]
	lea	eax, DWORD PTR _buffer$[ebp+edx]
	push	eax
	mov	ecx, DWORD PTR tv202[ebp]
	push	ecx
	call	_strcpy
	add	esp, 8

; 284  : //		pmove->Con_Printf( "%c %s\n", grgchTextureType[gcTextures-1], grgszTextureName[gcTextures-1] );
; 285  : 	}

	jmp	$LN2@PM_InitTex
$LN3@PM_InitTex:

; 286  : 	
; 287  : //	for( i = 0; i < gcTextures; i++ )
; 288  : //		pmove->Con_Printf( "%c %s\n", grgchTextureType[i], grgszTextureName[i] );
; 289  : 	// Must use engine to free since we are in a .dll
; 290  : 	pmove->COM_FreeFile ( pMemFile );

	mov	eax, DWORD PTR _pMemFile$[ebp]
	push	eax
	mov	ecx, DWORD PTR ?pmove@@3PAUplayermove_s@@A ; pmove
	mov	edx, DWORD PTR [ecx+325032]
	call	edx
	add	esp, 4

; 291  : 
; 292  : 	PM_SortTextures();

	call	?PM_SortTextures@@YAXXZ			; PM_SortTextures

; 293  : 
; 294  : 	bTextureTypeInit = true;

	mov	DWORD PTR ?bTextureTypeInit@?1??PM_InitTextureTypes@@YAXXZ@4HA, 1
$LN17@PM_InitTex:

; 295  : }

	pop	edi
	pop	esi
	pop	ebx
	mov	ecx, DWORD PTR __$ArrayPad$[ebp]
	xor	ecx, ebp
	call	@__security_check_cookie@4
	mov	esp, ebp
	pop	ebp
	ret	0
?PM_InitTextureTypes@@YAXXZ ENDP			; PM_InitTextureTypes
_TEXT	ENDS
; Function compile flags: /Odtp /ZI
; File d:\!diffusion 2020\source code 2022\client-server\game_shared\playermove.cpp
;	COMDAT ?PM_ParticleLine@@YAXVVector@@0H@Z
_TEXT	SEGMENT
$T1 = -120						; size = 12
$T2 = -108						; size = 12
_curpos$3 = -32						; size = 12
_curdist$ = -20						; size = 4
_len$ = -16						; size = 4
_diff$ = -12						; size = 12
_start$ = 8						; size = 12
_end$ = 20						; size = 12
_pcolor$ = 32						; size = 4
?PM_ParticleLine@@YAXVVector@@0H@Z PROC			; PM_ParticleLine, COMDAT

; 191  : {

	push	ebp
	mov	ebp, esp
	sub	esp, 120				; 00000078H
	push	ebx
	push	esi
	push	edi

; 192  : 	// determine distance;
; 193  : 	Vector diff = end - start;

	lea	eax, DWORD PTR _start$[ebp]
	push	eax
	lea	ecx, DWORD PTR _diff$[ebp]
	push	ecx
	lea	ecx, DWORD PTR _end$[ebp]
	call	??GVector@@QBE?AV0@ABV0@@Z		; Vector::operator-

; 194  : 	float len = diff.Length();

	lea	ecx, DWORD PTR _diff$[ebp]
	call	?Length@Vector@@QBEMXZ			; Vector::Length
	fstp	DWORD PTR _len$[ebp]

; 195  : 	diff = diff.Normalize();

	lea	eax, DWORD PTR $T2[ebp]
	push	eax
	lea	ecx, DWORD PTR _diff$[ebp]
	call	?Normalize@Vector@@QBE?AV1@XZ		; Vector::Normalize
	mov	ecx, DWORD PTR [eax]
	mov	DWORD PTR _diff$[ebp], ecx
	mov	edx, DWORD PTR [eax+4]
	mov	DWORD PTR _diff$[ebp+4], edx
	mov	eax, DWORD PTR [eax+8]
	mov	DWORD PTR _diff$[ebp+8], eax

; 196  : 
; 197  : 	float curdist = 0;

	xorps	xmm0, xmm0
	movss	DWORD PTR _curdist$[ebp], xmm0
$LN2@PM_Particl:

; 198  : 
; 199  : 	while( curdist <= len )

	movss	xmm0, DWORD PTR _len$[ebp]
	comiss	xmm0, DWORD PTR _curdist$[ebp]
	jb	SHORT $LN3@PM_Particl

; 200  : 	{
; 201  : 		Vector curpos = start + curdist * diff;

	lea	eax, DWORD PTR _diff$[ebp]
	push	eax
	push	ecx
	movss	xmm0, DWORD PTR _curdist$[ebp]
	movss	DWORD PTR [esp], xmm0
	lea	ecx, DWORD PTR $T1[ebp]
	push	ecx
	call	??D@YA?AVVector@@MABV0@@Z		; operator*
	add	esp, 12					; 0000000cH
	push	eax
	lea	edx, DWORD PTR _curpos$3[ebp]
	push	edx
	lea	ecx, DWORD PTR _start$[ebp]
	call	??HVector@@QBE?AV0@ABV0@@Z		; Vector::operator+

; 202  : 		pmove->PM_Particle( curpos, pcolor, 5, 0, 0 );

	push	0
	push	0
	push	ecx
	movss	xmm0, DWORD PTR __real@40a00000
	movss	DWORD PTR [esp], xmm0
	mov	eax, DWORD PTR _pcolor$[ebp]
	push	eax
	lea	ecx, DWORD PTR _curpos$3[ebp]
	call	??BVector@@QAEPAMXZ			; Vector::operator float *
	push	eax
	mov	ecx, DWORD PTR ?pmove@@3PAUplayermove_s@@A ; pmove
	mov	edx, DWORD PTR [ecx+324952]
	call	edx
	add	esp, 20					; 00000014H

; 203  : 		curdist += 0.5f;

	movss	xmm0, DWORD PTR _curdist$[ebp]
	addss	xmm0, DWORD PTR __real@3f000000
	movss	DWORD PTR _curdist$[ebp], xmm0

; 204  : 	}

	jmp	SHORT $LN2@PM_Particl
$LN3@PM_Particl:

; 205  : }

	pop	edi
	pop	esi
	pop	ebx
	mov	esp, ebp
	pop	ebp
	ret	0
?PM_ParticleLine@@YAXVVector@@0H@Z ENDP			; PM_ParticleLine
_TEXT	ENDS
; Function compile flags: /Odtp /ZI
; File d:\!diffusion 2020\source code 2022\client-server\game_shared\playermove.cpp
;	COMDAT ?PM_SortTextures@@YAXXZ
_TEXT	SEGMENT
_j$1 = -8						; size = 4
_i$2 = -4						; size = 4
?PM_SortTextures@@YAXXZ PROC				; PM_SortTextures, COMDAT

; 169  : {

	push	ebp
	mov	ebp, esp
	sub	esp, 72					; 00000048H
	push	ebx
	push	esi
	push	edi

; 170  : 	// Bubble sort, yuck, but this only occurs at startup and it's only 512 elements...
; 171  : 	for( int i = 0; i < gcTextures; i++ )

	mov	DWORD PTR _i$2[ebp], 0
	jmp	SHORT $LN4@PM_SortTex
$LN2@PM_SortTex:
	mov	eax, DWORD PTR _i$2[ebp]
	add	eax, 1
	mov	DWORD PTR _i$2[ebp], eax
$LN4@PM_SortTex:
	mov	eax, DWORD PTR _i$2[ebp]
	cmp	eax, DWORD PTR ?gcTextures@@3HA
	jge	SHORT $LN1@PM_SortTex

; 172  : 	{
; 173  : 		for( int j = i + 1; j < gcTextures; j++ )

	mov	eax, DWORD PTR _i$2[ebp]
	add	eax, 1
	mov	DWORD PTR _j$1[ebp], eax
	jmp	SHORT $LN7@PM_SortTex
$LN5@PM_SortTex:
	mov	eax, DWORD PTR _j$1[ebp]
	add	eax, 1
	mov	DWORD PTR _j$1[ebp], eax
$LN7@PM_SortTex:
	mov	eax, DWORD PTR _j$1[ebp]
	cmp	eax, DWORD PTR ?gcTextures@@3HA
	jge	SHORT $LN6@PM_SortTex

; 174  : 		{
; 175  : 			if( Q_stricmp( grgszTextureName[i], grgszTextureName[j] ) > 0 )

	push	99999					; 0001869fH
	imul	eax, DWORD PTR _j$1[ebp], 24
	add	eax, OFFSET ?grgszTextureName@@3PAY0BI@DA
	push	eax
	imul	ecx, DWORD PTR _i$2[ebp], 24
	add	ecx, OFFSET ?grgszTextureName@@3PAY0BI@DA
	push	ecx
	call	?Q_strnicmp@@YAHPBD0H@Z			; Q_strnicmp
	add	esp, 12					; 0000000cH
	test	eax, eax
	jle	SHORT $LN8@PM_SortTex

; 176  : 			{
; 177  : 				// Swap
; 178  : 				PM_SwapTextures( i, j );

	mov	eax, DWORD PTR _j$1[ebp]
	push	eax
	mov	ecx, DWORD PTR _i$2[ebp]
	push	ecx
	call	?PM_SwapTextures@@YAXHH@Z		; PM_SwapTextures
	add	esp, 8
$LN8@PM_SortTex:

; 179  : 			}
; 180  : 		}

	jmp	SHORT $LN5@PM_SortTex
$LN6@PM_SortTex:

; 181  : 	}

	jmp	SHORT $LN2@PM_SortTex
$LN1@PM_SortTex:

; 182  : }

	pop	edi
	pop	esi
	pop	ebx
	mov	esp, ebp
	pop	ebp
	ret	0
?PM_SortTextures@@YAXXZ ENDP				; PM_SortTextures
_TEXT	ENDS
; Function compile flags: /Odtp /ZI
; File c:\program files (x86)\windows kits\10\include\10.0.10240.0\ucrt\string.h
;	COMDAT ??$strcpy_s@$0BI@@@YAHAAY0BI@DPBD@Z
_TEXT	SEGMENT
__Destination$ = 8					; size = 4
__Source$ = 12						; size = 4
??$strcpy_s@$0BI@@@YAHAAY0BI@DPBD@Z PROC		; strcpy_s<24>, COMDAT

; 128  :     )

	push	ebp
	mov	ebp, esp
	sub	esp, 64					; 00000040H
	push	ebx
	push	esi
	push	edi

; 124  : __DEFINE_CPP_OVERLOAD_SECURE_FUNC_0_1(

	mov	eax, DWORD PTR __Source$[ebp]
	push	eax
	push	24					; 00000018H
	mov	ecx, DWORD PTR __Destination$[ebp]
	push	ecx
	call	_strcpy_s
	add	esp, 12					; 0000000cH
	pop	edi
	pop	esi
	pop	ebx
	mov	esp, ebp
	pop	ebp
	ret	0
??$strcpy_s@$0BI@@@YAHAAY0BI@DPBD@Z ENDP		; strcpy_s<24>
_TEXT	ENDS
; Function compile flags: /Odtp /ZI
; File d:\!diffusion 2020\source code 2022\client-server\game_shared\playermove.cpp
;	COMDAT ?PM_SwapTextures@@YAXHH@Z
_TEXT	SEGMENT
_szTemp$ = -32						; size = 24
_chTemp$ = -5						; size = 1
__$ArrayPad$ = -4					; size = 4
_i$ = 8							; size = 4
_j$ = 12						; size = 4
?PM_SwapTextures@@YAXHH@Z PROC				; PM_SwapTextures, COMDAT

; 154  : {

	push	ebp
	mov	ebp, esp
	sub	esp, 96					; 00000060H
	mov	eax, DWORD PTR ___security_cookie
	xor	eax, ebp
	mov	DWORD PTR __$ArrayPad$[ebp], eax
	push	ebx
	push	esi
	push	edi

; 155  : 	char chTemp;
; 156  : 	char szTemp[ CBTEXTURENAMEMAX ];
; 157  : 
; 158  : 	strcpy_s( szTemp, grgszTextureName[ i ] );

	imul	eax, DWORD PTR _i$[ebp], 24
	add	eax, OFFSET ?grgszTextureName@@3PAY0BI@DA
	push	eax
	lea	ecx, DWORD PTR _szTemp$[ebp]
	push	ecx
	call	??$strcpy_s@$0BI@@@YAHAAY0BI@DPBD@Z	; strcpy_s<24>
	add	esp, 8

; 159  : 	chTemp = grgchTextureType[ i ];

	mov	eax, DWORD PTR _i$[ebp]
	mov	cl, BYTE PTR ?grgchTextureType@@3PADA[eax]
	mov	BYTE PTR _chTemp$[ebp], cl

; 160  : 	
; 161  : 	strcpy_s( grgszTextureName[ i ], grgszTextureName[ j ] );

	imul	eax, DWORD PTR _j$[ebp], 24
	add	eax, OFFSET ?grgszTextureName@@3PAY0BI@DA
	push	eax
	imul	ecx, DWORD PTR _i$[ebp], 24
	add	ecx, OFFSET ?grgszTextureName@@3PAY0BI@DA
	push	ecx
	call	??$strcpy_s@$0BI@@@YAHAAY0BI@DPBD@Z	; strcpy_s<24>
	add	esp, 8

; 162  : 	grgchTextureType[ i ] = grgchTextureType[ j ];

	mov	eax, DWORD PTR _i$[ebp]
	mov	ecx, DWORD PTR _j$[ebp]
	mov	dl, BYTE PTR ?grgchTextureType@@3PADA[ecx]
	mov	BYTE PTR ?grgchTextureType@@3PADA[eax], dl

; 163  : 
; 164  : 	strcpy_s( grgszTextureName[ j ], szTemp );

	lea	eax, DWORD PTR _szTemp$[ebp]
	push	eax
	imul	ecx, DWORD PTR _j$[ebp], 24
	add	ecx, OFFSET ?grgszTextureName@@3PAY0BI@DA
	push	ecx
	call	??$strcpy_s@$0BI@@@YAHAAY0BI@DPBD@Z	; strcpy_s<24>
	add	esp, 8

; 165  : 	grgchTextureType[ j ] = chTemp;

	mov	eax, DWORD PTR _j$[ebp]
	mov	cl, BYTE PTR _chTemp$[ebp]
	mov	BYTE PTR ?grgchTextureType@@3PADA[eax], cl

; 166  : }

	pop	edi
	pop	esi
	pop	ebx
	mov	ecx, DWORD PTR __$ArrayPad$[ebp]
	xor	ecx, ebp
	call	@__security_check_cookie@4
	mov	esp, ebp
	pop	ebp
	ret	0
?PM_SwapTextures@@YAXHH@Z ENDP				; PM_SwapTextures
_TEXT	ENDS
; Function compile flags: /Odtp /ZI
; File d:\!diffusion 2020\source code 2022\client-server\game_shared\playermove.cpp
;	COMDAT ??__Ergv3tStuckTable@@YAXXZ
text$di	SEGMENT
??__Ergv3tStuckTable@@YAXXZ PROC			; `dynamic initializer for 'rgv3tStuckTable'', COMDAT

; 142  : static Vector rgv3tStuckTable[54];

	push	ebp
	mov	ebp, esp
	sub	esp, 64					; 00000040H
	push	ebx
	push	esi
	push	edi
	push	OFFSET ??0Vector@@QAE@XZ		; Vector::Vector
	push	54					; 00000036H
	push	12					; 0000000cH
	push	OFFSET ?rgv3tStuckTable@@3PAVVector@@A
	call	??_H@YGXPAXIIP6EPAX0@Z@Z
	pop	edi
	pop	esi
	pop	ebx
	mov	esp, ebp
	pop	ebp
	ret	0
??__Ergv3tStuckTable@@YAXXZ ENDP			; `dynamic initializer for 'rgv3tStuckTable''
text$di	ENDS
; Function compile flags: /Odtp /ZI
; File c:\program files (x86)\windows kits\10\include\10.0.10240.0\ucrt\string.h
;	COMDAT ?strstr@@YAPADQADQBD@Z
_TEXT	SEGMENT
__String$ = 8						; size = 4
__SubString$ = 12					; size = 4
?strstr@@YAPADQADQBD@Z PROC				; strstr, COMDAT

; 536  :     {

	push	ebp
	mov	ebp, esp
	sub	esp, 64					; 00000040H
	push	ebx
	push	esi
	push	edi

; 537  :         return const_cast<char*>(strstr(static_cast<char const*>(_String), _SubString));

	mov	eax, DWORD PTR __SubString$[ebp]
	push	eax
	mov	ecx, DWORD PTR __String$[ebp]
	push	ecx
	call	_strstr
	add	esp, 8

; 538  :     }

	pop	edi
	pop	esi
	pop	ebx
	mov	esp, ebp
	pop	ebp
	ret	0
?strstr@@YAPADQADQBD@Z ENDP				; strstr
_TEXT	ENDS
; Function compile flags: /Odtp /ZI
;	COMDAT ??0pmtrace_s@@QAE@$$QAU0@@Z
_TEXT	SEGMENT
_this$ = -4						; size = 4
___that$ = 8						; size = 4
??0pmtrace_s@@QAE@$$QAU0@@Z PROC			; pmtrace_s::pmtrace_s, COMDAT
; _this$ = ecx
	push	ebp
	mov	ebp, esp
	sub	esp, 68					; 00000044H
	push	ebx
	push	esi
	push	edi
	mov	DWORD PTR _this$[ebp], ecx
	mov	eax, DWORD PTR _this$[ebp]
	mov	ecx, DWORD PTR ___that$[ebp]
	mov	edx, DWORD PTR [ecx]
	mov	DWORD PTR [eax], edx
	mov	eax, DWORD PTR _this$[ebp]
	mov	ecx, DWORD PTR ___that$[ebp]
	mov	edx, DWORD PTR [ecx+4]
	mov	DWORD PTR [eax+4], edx
	mov	eax, DWORD PTR _this$[ebp]
	mov	ecx, DWORD PTR ___that$[ebp]
	mov	edx, DWORD PTR [ecx+8]
	mov	DWORD PTR [eax+8], edx
	mov	eax, DWORD PTR _this$[ebp]
	mov	ecx, DWORD PTR ___that$[ebp]
	mov	edx, DWORD PTR [ecx+12]
	mov	DWORD PTR [eax+12], edx
	mov	eax, DWORD PTR _this$[ebp]
	mov	ecx, DWORD PTR ___that$[ebp]
	mov	edx, DWORD PTR [ecx+16]
	mov	DWORD PTR [eax+16], edx
	mov	eax, DWORD PTR ___that$[ebp]
	add	eax, 20					; 00000014H
	push	eax
	mov	ecx, DWORD PTR _this$[ebp]
	add	ecx, 20					; 00000014H
	call	??0Vector@@QAE@ABV0@@Z			; Vector::Vector
	mov	eax, DWORD PTR ___that$[ebp]
	add	eax, 32					; 00000020H
	push	eax
	mov	ecx, DWORD PTR _this$[ebp]
	add	ecx, 32					; 00000020H
	call	??0pmplane_t@@QAE@$$QAU0@@Z
	mov	eax, DWORD PTR _this$[ebp]
	mov	ecx, DWORD PTR ___that$[ebp]
	mov	edx, DWORD PTR [ecx+48]
	mov	DWORD PTR [eax+48], edx
	mov	eax, DWORD PTR ___that$[ebp]
	add	eax, 52					; 00000034H
	push	eax
	mov	ecx, DWORD PTR _this$[ebp]
	add	ecx, 52					; 00000034H
	call	??0Vector@@QAE@ABV0@@Z			; Vector::Vector
	mov	eax, DWORD PTR _this$[ebp]
	mov	ecx, DWORD PTR ___that$[ebp]
	mov	edx, DWORD PTR [ecx+64]
	mov	DWORD PTR [eax+64], edx
	mov	eax, DWORD PTR _this$[ebp]
	pop	edi
	pop	esi
	pop	ebx
	mov	esp, ebp
	pop	ebp
	ret	4
??0pmtrace_s@@QAE@$$QAU0@@Z ENDP			; pmtrace_s::pmtrace_s
_TEXT	ENDS
; Function compile flags: /Odtp /ZI
;	COMDAT ??0pmtrace_s@@QAE@ABU0@@Z
_TEXT	SEGMENT
_this$ = -4						; size = 4
___that$ = 8						; size = 4
??0pmtrace_s@@QAE@ABU0@@Z PROC				; pmtrace_s::pmtrace_s, COMDAT
; _this$ = ecx
	push	ebp
	mov	ebp, esp
	sub	esp, 68					; 00000044H
	push	ebx
	push	esi
	push	edi
	mov	DWORD PTR _this$[ebp], ecx
	mov	eax, DWORD PTR _this$[ebp]
	mov	ecx, DWORD PTR ___that$[ebp]
	mov	edx, DWORD PTR [ecx]
	mov	DWORD PTR [eax], edx
	mov	eax, DWORD PTR _this$[ebp]
	mov	ecx, DWORD PTR ___that$[ebp]
	mov	edx, DWORD PTR [ecx+4]
	mov	DWORD PTR [eax+4], edx
	mov	eax, DWORD PTR _this$[ebp]
	mov	ecx, DWORD PTR ___that$[ebp]
	mov	edx, DWORD PTR [ecx+8]
	mov	DWORD PTR [eax+8], edx
	mov	eax, DWORD PTR _this$[ebp]
	mov	ecx, DWORD PTR ___that$[ebp]
	mov	edx, DWORD PTR [ecx+12]
	mov	DWORD PTR [eax+12], edx
	mov	eax, DWORD PTR _this$[ebp]
	mov	ecx, DWORD PTR ___that$[ebp]
	mov	edx, DWORD PTR [ecx+16]
	mov	DWORD PTR [eax+16], edx
	mov	eax, DWORD PTR ___that$[ebp]
	add	eax, 20					; 00000014H
	push	eax
	mov	ecx, DWORD PTR _this$[ebp]
	add	ecx, 20					; 00000014H
	call	??0Vector@@QAE@ABV0@@Z			; Vector::Vector
	mov	eax, DWORD PTR ___that$[ebp]
	add	eax, 32					; 00000020H
	push	eax
	mov	ecx, DWORD PTR _this$[ebp]
	add	ecx, 32					; 00000020H
	call	??0pmplane_t@@QAE@ABU0@@Z
	mov	eax, DWORD PTR _this$[ebp]
	mov	ecx, DWORD PTR ___that$[ebp]
	mov	edx, DWORD PTR [ecx+48]
	mov	DWORD PTR [eax+48], edx
	mov	eax, DWORD PTR ___that$[ebp]
	add	eax, 52					; 00000034H
	push	eax
	mov	ecx, DWORD PTR _this$[ebp]
	add	ecx, 52					; 00000034H
	call	??0Vector@@QAE@ABV0@@Z			; Vector::Vector
	mov	eax, DWORD PTR _this$[ebp]
	mov	ecx, DWORD PTR ___that$[ebp]
	mov	edx, DWORD PTR [ecx+64]
	mov	DWORD PTR [eax+64], edx
	mov	eax, DWORD PTR _this$[ebp]
	pop	edi
	pop	esi
	pop	ebx
	mov	esp, ebp
	pop	ebp
	ret	4
??0pmtrace_s@@QAE@ABU0@@Z ENDP				; pmtrace_s::pmtrace_s
_TEXT	ENDS
; Function compile flags: /Odtp /ZI
;	COMDAT ??0pmtrace_s@@QAE@XZ
_TEXT	SEGMENT
_this$ = -4						; size = 4
??0pmtrace_s@@QAE@XZ PROC				; pmtrace_s::pmtrace_s, COMDAT
; _this$ = ecx
	push	ebp
	mov	ebp, esp
	sub	esp, 68					; 00000044H
	push	ebx
	push	esi
	push	edi
	mov	DWORD PTR _this$[ebp], ecx
	mov	ecx, DWORD PTR _this$[ebp]
	add	ecx, 20					; 00000014H
	call	??0Vector@@QAE@XZ			; Vector::Vector
	mov	ecx, DWORD PTR _this$[ebp]
	add	ecx, 32					; 00000020H
	call	??0pmplane_t@@QAE@XZ
	mov	ecx, DWORD PTR _this$[ebp]
	add	ecx, 52					; 00000034H
	call	??0Vector@@QAE@XZ			; Vector::Vector
	mov	eax, DWORD PTR _this$[ebp]
	pop	edi
	pop	esi
	pop	ebx
	mov	esp, ebp
	pop	ebp
	ret	0
??0pmtrace_s@@QAE@XZ ENDP				; pmtrace_s::pmtrace_s
_TEXT	ENDS
; Function compile flags: /Odtp /ZI
;	COMDAT ??0pmplane_t@@QAE@$$QAU0@@Z
_TEXT	SEGMENT
_this$ = -4						; size = 4
___that$ = 8						; size = 4
??0pmplane_t@@QAE@$$QAU0@@Z PROC			; pmplane_t::pmplane_t, COMDAT
; _this$ = ecx
	push	ebp
	mov	ebp, esp
	sub	esp, 68					; 00000044H
	push	ebx
	push	esi
	push	edi
	mov	DWORD PTR _this$[ebp], ecx
	mov	eax, DWORD PTR ___that$[ebp]
	push	eax
	mov	ecx, DWORD PTR _this$[ebp]
	call	??0Vector@@QAE@ABV0@@Z			; Vector::Vector
	mov	eax, DWORD PTR _this$[ebp]
	mov	ecx, DWORD PTR ___that$[ebp]
	mov	edx, DWORD PTR [ecx+12]
	mov	DWORD PTR [eax+12], edx
	mov	eax, DWORD PTR _this$[ebp]
	pop	edi
	pop	esi
	pop	ebx
	mov	esp, ebp
	pop	ebp
	ret	4
??0pmplane_t@@QAE@$$QAU0@@Z ENDP			; pmplane_t::pmplane_t
_TEXT	ENDS
; Function compile flags: /Odtp /ZI
;	COMDAT ??0pmplane_t@@QAE@ABU0@@Z
_TEXT	SEGMENT
_this$ = -4						; size = 4
___that$ = 8						; size = 4
??0pmplane_t@@QAE@ABU0@@Z PROC				; pmplane_t::pmplane_t, COMDAT
; _this$ = ecx
	push	ebp
	mov	ebp, esp
	sub	esp, 68					; 00000044H
	push	ebx
	push	esi
	push	edi
	mov	DWORD PTR _this$[ebp], ecx
	mov	eax, DWORD PTR ___that$[ebp]
	push	eax
	mov	ecx, DWORD PTR _this$[ebp]
	call	??0Vector@@QAE@ABV0@@Z			; Vector::Vector
	mov	eax, DWORD PTR _this$[ebp]
	mov	ecx, DWORD PTR ___that$[ebp]
	mov	edx, DWORD PTR [ecx+12]
	mov	DWORD PTR [eax+12], edx
	mov	eax, DWORD PTR _this$[ebp]
	pop	edi
	pop	esi
	pop	ebx
	mov	esp, ebp
	pop	ebp
	ret	4
??0pmplane_t@@QAE@ABU0@@Z ENDP				; pmplane_t::pmplane_t
_TEXT	ENDS
; Function compile flags: /Odtp /ZI
;	COMDAT ??0pmplane_t@@QAE@XZ
_TEXT	SEGMENT
_this$ = -4						; size = 4
??0pmplane_t@@QAE@XZ PROC				; pmplane_t::pmplane_t, COMDAT
; _this$ = ecx
	push	ebp
	mov	ebp, esp
	sub	esp, 68					; 00000044H
	push	ebx
	push	esi
	push	edi
	mov	DWORD PTR _this$[ebp], ecx
	mov	ecx, DWORD PTR _this$[ebp]
	call	??0Vector@@QAE@XZ			; Vector::Vector
	mov	eax, DWORD PTR _this$[ebp]
	pop	edi
	pop	esi
	pop	ebx
	mov	esp, ebp
	pop	ebp
	ret	0
??0pmplane_t@@QAE@XZ ENDP				; pmplane_t::pmplane_t
_TEXT	ENDS
; Function compile flags: /Odtp /ZI
;	COMDAT ??0trace_s@@QAE@XZ
_TEXT	SEGMENT
_this$ = -4						; size = 4
??0trace_s@@QAE@XZ PROC					; trace_s::trace_s, COMDAT
; _this$ = ecx
	push	ebp
	mov	ebp, esp
	sub	esp, 68					; 00000044H
	push	ebx
	push	esi
	push	edi
	mov	DWORD PTR _this$[ebp], ecx
	mov	ecx, DWORD PTR _this$[ebp]
	add	ecx, 20					; 00000014H
	call	??0Vector@@QAE@XZ			; Vector::Vector
	mov	ecx, DWORD PTR _this$[ebp]
	add	ecx, 32					; 00000020H
	call	??0plane_s@@QAE@XZ
	mov	eax, DWORD PTR _this$[ebp]
	pop	edi
	pop	esi
	pop	ebx
	mov	esp, ebp
	pop	ebp
	ret	0
??0trace_s@@QAE@XZ ENDP					; trace_s::trace_s
_TEXT	ENDS
; Function compile flags: /Odtp /ZI
;	COMDAT ??0plane_s@@QAE@XZ
_TEXT	SEGMENT
_this$ = -4						; size = 4
??0plane_s@@QAE@XZ PROC					; plane_s::plane_s, COMDAT
; _this$ = ecx
	push	ebp
	mov	ebp, esp
	sub	esp, 68					; 00000044H
	push	ebx
	push	esi
	push	edi
	mov	DWORD PTR _this$[ebp], ecx
	mov	ecx, DWORD PTR _this$[ebp]
	call	??0Vector@@QAE@XZ			; Vector::Vector
	mov	eax, DWORD PTR _this$[ebp]
	pop	edi
	pop	esi
	pop	ebx
	mov	esp, ebp
	pop	ebp
	ret	0
??0plane_s@@QAE@XZ ENDP					; plane_s::plane_s
_TEXT	ENDS
; Function compile flags: /Odtp /ZI
; File d:\!diffusion 2020\source code 2022\client-server\game_shared\matrix.h
;	COMDAT ??0matrix4x4@@QAE@ABVVector@@0M@Z
_TEXT	SEGMENT
tv1056 = -100						; size = 4
tv1054 = -100						; size = 4
tv1052 = -100						; size = 4
tv1050 = -100						; size = 4
tv1048 = -100						; size = 4
tv1046 = -100						; size = 4
tv1044 = -100						; size = 4
tv1042 = -100						; size = 4
tv1040 = -100						; size = 4
tv1038 = -100						; size = 4
tv1036 = -100						; size = 4
tv1034 = -100						; size = 4
tv1032 = -100						; size = 4
tv1030 = -100						; size = 4
tv1028 = -100						; size = 4
tv1026 = -100						; size = 4
tv1024 = -100						; size = 4
tv1022 = -100						; size = 4
tv1020 = -100						; size = 4
tv1018 = -100						; size = 4
tv1016 = -100						; size = 4
_cy$ = -32						; size = 4
_cp$ = -28						; size = 4
_cr$ = -24						; size = 4
_sy$ = -20						; size = 4
_sp$ = -16						; size = 4
_sr$ = -12						; size = 4
_angle$ = -8						; size = 4
_this$ = -4						; size = 4
_origin$ = 8						; size = 4
_angles$ = 12						; size = 4
_scale$ = 16						; size = 4
??0matrix4x4@@QAE@ABVVector@@0M@Z PROC			; matrix4x4::matrix4x4, COMDAT
; _this$ = ecx

; 701  : 	_forceinline matrix4x4( const Vector &origin, const Vector &angles, float scale = 1.0f )

	push	ebp
	mov	ebp, esp
	sub	esp, 100				; 00000064H
	push	ebx
	push	esi
	push	edi
	mov	DWORD PTR _this$[ebp], ecx

; 702  : 	{

	push	OFFSET ??0Vector4D@@QAE@XZ		; Vector4D::Vector4D
	push	4
	push	16					; 00000010H
	mov	eax, DWORD PTR _this$[ebp]
	push	eax
	call	??_H@YGXPAXIIP6EPAX0@Z@Z

; 703  : 		float	angle, sr, sp, sy, cr, cp, cy;
; 704  : 
; 705  : 		if( angles[ROLL] )

	mov	ecx, DWORD PTR _angles$[ebp]
	call	??BVector@@QBEPBMXZ			; Vector::operator float const *
	mov	ecx, 4
	shl	ecx, 1
	movss	xmm0, DWORD PTR [eax+ecx]
	ucomiss	xmm0, DWORD PTR __real@00000000
	lahf
	test	ah, 68					; 00000044H
	jnp	$LN2@matrix4x4

; 706  : 		{
; 707  : 			angle = angles[YAW] * (M_PI*2 / 360);

	mov	ecx, DWORD PTR _angles$[ebp]
	call	??BVector@@QBEPBMXZ			; Vector::operator float const *
	mov	ecx, 4
	shl	ecx, 0
	cvtss2sd xmm0, DWORD PTR [eax+ecx]
	mulsd	xmm0, QWORD PTR __real@3f91df46a2529d39
	cvtsd2ss xmm0, xmm0
	movss	DWORD PTR _angle$[ebp], xmm0

; 708  : 			SinCos( angle, &sy, &cy );

	lea	eax, DWORD PTR _cy$[ebp]
	push	eax
	lea	ecx, DWORD PTR _sy$[ebp]
	push	ecx
	push	ecx
	movss	xmm0, DWORD PTR _angle$[ebp]
	movss	DWORD PTR [esp], xmm0
	call	?SinCos@@YAXMPAM0@Z			; SinCos
	add	esp, 12					; 0000000cH

; 709  : 			angle = angles[PITCH] * (M_PI*2 / 360);

	mov	ecx, DWORD PTR _angles$[ebp]
	call	??BVector@@QBEPBMXZ			; Vector::operator float const *
	mov	ecx, 4
	imul	edx, ecx, 0
	cvtss2sd xmm0, DWORD PTR [eax+edx]
	mulsd	xmm0, QWORD PTR __real@3f91df46a2529d39
	cvtsd2ss xmm0, xmm0
	movss	DWORD PTR _angle$[ebp], xmm0

; 710  : 			SinCos( angle, &sp, &cp );

	lea	eax, DWORD PTR _cp$[ebp]
	push	eax
	lea	ecx, DWORD PTR _sp$[ebp]
	push	ecx
	push	ecx
	movss	xmm0, DWORD PTR _angle$[ebp]
	movss	DWORD PTR [esp], xmm0
	call	?SinCos@@YAXMPAM0@Z			; SinCos
	add	esp, 12					; 0000000cH

; 711  : 			angle = angles[ROLL] * (M_PI*2 / 360);

	mov	ecx, DWORD PTR _angles$[ebp]
	call	??BVector@@QBEPBMXZ			; Vector::operator float const *
	mov	ecx, 4
	shl	ecx, 1
	cvtss2sd xmm0, DWORD PTR [eax+ecx]
	mulsd	xmm0, QWORD PTR __real@3f91df46a2529d39
	cvtsd2ss xmm0, xmm0
	movss	DWORD PTR _angle$[ebp], xmm0

; 712  : 			SinCos( angle, &sr, &cr );

	lea	eax, DWORD PTR _cr$[ebp]
	push	eax
	lea	ecx, DWORD PTR _sr$[ebp]
	push	ecx
	push	ecx
	movss	xmm0, DWORD PTR _angle$[ebp]
	movss	DWORD PTR [esp], xmm0
	call	?SinCos@@YAXMPAM0@Z			; SinCos
	add	esp, 12					; 0000000cH

; 713  : 
; 714  : 			mat[0][0] = (cp*cy) * scale;

	movss	xmm0, DWORD PTR _cp$[ebp]
	mulss	xmm0, DWORD PTR _cy$[ebp]
	mulss	xmm0, DWORD PTR _scale$[ebp]
	mov	eax, 16					; 00000010H
	imul	ecx, eax, 0
	add	ecx, DWORD PTR _this$[ebp]
	movss	DWORD PTR tv1016[ebp], xmm0
	call	??BVector4D@@QAEPAMXZ			; Vector4D::operator float *
	mov	ecx, 4
	imul	edx, ecx, 0
	movss	xmm0, DWORD PTR tv1016[ebp]
	movss	DWORD PTR [eax+edx], xmm0

; 715  : 			mat[1][0] = (sr*sp*cy+cr*-sy) * scale;

	movss	xmm0, DWORD PTR _sr$[ebp]
	mulss	xmm0, DWORD PTR _sp$[ebp]
	mulss	xmm0, DWORD PTR _cy$[ebp]
	movss	xmm1, DWORD PTR _sy$[ebp]
	xorps	xmm1, DWORD PTR __xmm@80000000800000008000000080000000
	mulss	xmm1, DWORD PTR _cr$[ebp]
	addss	xmm0, xmm1
	mulss	xmm0, DWORD PTR _scale$[ebp]
	mov	ecx, 16					; 00000010H
	shl	ecx, 0
	add	ecx, DWORD PTR _this$[ebp]
	movss	DWORD PTR tv1018[ebp], xmm0
	call	??BVector4D@@QAEPAMXZ			; Vector4D::operator float *
	mov	ecx, 4
	imul	edx, ecx, 0
	movss	xmm0, DWORD PTR tv1018[ebp]
	movss	DWORD PTR [eax+edx], xmm0

; 716  : 			mat[2][0] = (cr*sp*cy+-sr*-sy) * scale;

	movss	xmm0, DWORD PTR _cr$[ebp]
	mulss	xmm0, DWORD PTR _sp$[ebp]
	mulss	xmm0, DWORD PTR _cy$[ebp]
	movss	xmm1, DWORD PTR _sr$[ebp]
	xorps	xmm1, DWORD PTR __xmm@80000000800000008000000080000000
	movss	xmm2, DWORD PTR _sy$[ebp]
	xorps	xmm2, DWORD PTR __xmm@80000000800000008000000080000000
	mulss	xmm1, xmm2
	addss	xmm0, xmm1
	mulss	xmm0, DWORD PTR _scale$[ebp]
	mov	ecx, 16					; 00000010H
	shl	ecx, 1
	add	ecx, DWORD PTR _this$[ebp]
	movss	DWORD PTR tv1020[ebp], xmm0
	call	??BVector4D@@QAEPAMXZ			; Vector4D::operator float *
	mov	ecx, 4
	imul	edx, ecx, 0
	movss	xmm0, DWORD PTR tv1020[ebp]
	movss	DWORD PTR [eax+edx], xmm0

; 717  : 			mat[3][0] = origin.x;

	mov	eax, 16					; 00000010H
	imul	ecx, eax, 3
	add	ecx, DWORD PTR _this$[ebp]
	call	??BVector4D@@QAEPAMXZ			; Vector4D::operator float *
	mov	ecx, 4
	imul	edx, ecx, 0
	mov	ecx, DWORD PTR _origin$[ebp]
	mov	ecx, DWORD PTR [ecx]
	mov	DWORD PTR [eax+edx], ecx

; 718  : 			mat[0][1] = (cp*sy) * scale;

	movss	xmm0, DWORD PTR _cp$[ebp]
	mulss	xmm0, DWORD PTR _sy$[ebp]
	mulss	xmm0, DWORD PTR _scale$[ebp]
	mov	eax, 16					; 00000010H
	imul	ecx, eax, 0
	add	ecx, DWORD PTR _this$[ebp]
	movss	DWORD PTR tv1022[ebp], xmm0
	call	??BVector4D@@QAEPAMXZ			; Vector4D::operator float *
	mov	ecx, 4
	shl	ecx, 0
	movss	xmm0, DWORD PTR tv1022[ebp]
	movss	DWORD PTR [eax+ecx], xmm0

; 719  : 			mat[1][1] = (sr*sp*sy+cr*cy) * scale;

	movss	xmm0, DWORD PTR _sr$[ebp]
	mulss	xmm0, DWORD PTR _sp$[ebp]
	mulss	xmm0, DWORD PTR _sy$[ebp]
	movss	xmm1, DWORD PTR _cr$[ebp]
	mulss	xmm1, DWORD PTR _cy$[ebp]
	addss	xmm0, xmm1
	mulss	xmm0, DWORD PTR _scale$[ebp]
	mov	ecx, 16					; 00000010H
	shl	ecx, 0
	add	ecx, DWORD PTR _this$[ebp]
	movss	DWORD PTR tv1024[ebp], xmm0
	call	??BVector4D@@QAEPAMXZ			; Vector4D::operator float *
	mov	ecx, 4
	shl	ecx, 0
	movss	xmm0, DWORD PTR tv1024[ebp]
	movss	DWORD PTR [eax+ecx], xmm0

; 720  : 			mat[2][1] = (cr*sp*sy+-sr*cy) * scale;

	movss	xmm0, DWORD PTR _cr$[ebp]
	mulss	xmm0, DWORD PTR _sp$[ebp]
	mulss	xmm0, DWORD PTR _sy$[ebp]
	movss	xmm1, DWORD PTR _sr$[ebp]
	xorps	xmm1, DWORD PTR __xmm@80000000800000008000000080000000
	mulss	xmm1, DWORD PTR _cy$[ebp]
	addss	xmm0, xmm1
	mulss	xmm0, DWORD PTR _scale$[ebp]
	mov	ecx, 16					; 00000010H
	shl	ecx, 1
	add	ecx, DWORD PTR _this$[ebp]
	movss	DWORD PTR tv1026[ebp], xmm0
	call	??BVector4D@@QAEPAMXZ			; Vector4D::operator float *
	mov	ecx, 4
	shl	ecx, 0
	movss	xmm0, DWORD PTR tv1026[ebp]
	movss	DWORD PTR [eax+ecx], xmm0

; 721  : 			mat[3][1] = origin.y;

	mov	eax, 16					; 00000010H
	imul	ecx, eax, 3
	add	ecx, DWORD PTR _this$[ebp]
	call	??BVector4D@@QAEPAMXZ			; Vector4D::operator float *
	mov	ecx, 4
	shl	ecx, 0
	mov	edx, DWORD PTR _origin$[ebp]
	mov	edx, DWORD PTR [edx+4]
	mov	DWORD PTR [eax+ecx], edx

; 722  : 			mat[0][2] = (-sp) * scale;

	movss	xmm0, DWORD PTR _sp$[ebp]
	xorps	xmm0, DWORD PTR __xmm@80000000800000008000000080000000
	mulss	xmm0, DWORD PTR _scale$[ebp]
	mov	eax, 16					; 00000010H
	imul	ecx, eax, 0
	add	ecx, DWORD PTR _this$[ebp]
	movss	DWORD PTR tv1028[ebp], xmm0
	call	??BVector4D@@QAEPAMXZ			; Vector4D::operator float *
	mov	ecx, 4
	shl	ecx, 1
	movss	xmm0, DWORD PTR tv1028[ebp]
	movss	DWORD PTR [eax+ecx], xmm0

; 723  : 			mat[1][2] = (sr*cp) * scale;

	movss	xmm0, DWORD PTR _sr$[ebp]
	mulss	xmm0, DWORD PTR _cp$[ebp]
	mulss	xmm0, DWORD PTR _scale$[ebp]
	mov	ecx, 16					; 00000010H
	shl	ecx, 0
	add	ecx, DWORD PTR _this$[ebp]
	movss	DWORD PTR tv1030[ebp], xmm0
	call	??BVector4D@@QAEPAMXZ			; Vector4D::operator float *
	mov	ecx, 4
	shl	ecx, 1
	movss	xmm0, DWORD PTR tv1030[ebp]
	movss	DWORD PTR [eax+ecx], xmm0

; 724  : 			mat[2][2] = (cr*cp) * scale;

	movss	xmm0, DWORD PTR _cr$[ebp]
	mulss	xmm0, DWORD PTR _cp$[ebp]
	mulss	xmm0, DWORD PTR _scale$[ebp]
	mov	ecx, 16					; 00000010H
	shl	ecx, 1
	add	ecx, DWORD PTR _this$[ebp]
	movss	DWORD PTR tv1032[ebp], xmm0
	call	??BVector4D@@QAEPAMXZ			; Vector4D::operator float *
	mov	ecx, 4
	shl	ecx, 1
	movss	xmm0, DWORD PTR tv1032[ebp]
	movss	DWORD PTR [eax+ecx], xmm0

; 725  : 			mat[3][2] = origin.z;

	mov	eax, 16					; 00000010H
	imul	ecx, eax, 3
	add	ecx, DWORD PTR _this$[ebp]
	call	??BVector4D@@QAEPAMXZ			; Vector4D::operator float *
	mov	ecx, 4
	shl	ecx, 1
	mov	edx, DWORD PTR _origin$[ebp]
	mov	edx, DWORD PTR [edx+8]
	mov	DWORD PTR [eax+ecx], edx

; 726  : 			mat[0][3] = 0;

	mov	eax, 16					; 00000010H
	imul	ecx, eax, 0
	add	ecx, DWORD PTR _this$[ebp]
	call	??BVector4D@@QAEPAMXZ			; Vector4D::operator float *
	mov	ecx, 4
	imul	edx, ecx, 3
	xorps	xmm0, xmm0
	movss	DWORD PTR [eax+edx], xmm0

; 727  : 			mat[1][3] = 0;

	mov	ecx, 16					; 00000010H
	shl	ecx, 0
	add	ecx, DWORD PTR _this$[ebp]
	call	??BVector4D@@QAEPAMXZ			; Vector4D::operator float *
	mov	ecx, 4
	imul	edx, ecx, 3
	xorps	xmm0, xmm0
	movss	DWORD PTR [eax+edx], xmm0

; 728  : 			mat[2][3] = 0;

	mov	ecx, 16					; 00000010H
	shl	ecx, 1
	add	ecx, DWORD PTR _this$[ebp]
	call	??BVector4D@@QAEPAMXZ			; Vector4D::operator float *
	mov	ecx, 4
	imul	edx, ecx, 3
	xorps	xmm0, xmm0
	movss	DWORD PTR [eax+edx], xmm0

; 729  : 			mat[3][3] = 1;

	mov	eax, 16					; 00000010H
	imul	ecx, eax, 3
	add	ecx, DWORD PTR _this$[ebp]
	call	??BVector4D@@QAEPAMXZ			; Vector4D::operator float *
	mov	ecx, 4
	imul	edx, ecx, 3
	movss	xmm0, DWORD PTR __real@3f800000
	movss	DWORD PTR [eax+edx], xmm0
	jmp	$LN7@matrix4x4
$LN2@matrix4x4:

; 730  : 		}
; 731  : 		else if( angles[PITCH] )

	mov	ecx, DWORD PTR _angles$[ebp]
	call	??BVector@@QBEPBMXZ			; Vector::operator float const *
	mov	ecx, 4
	imul	edx, ecx, 0
	movss	xmm0, DWORD PTR [eax+edx]
	ucomiss	xmm0, DWORD PTR __real@00000000
	lahf
	test	ah, 68					; 00000044H
	jnp	$LN4@matrix4x4

; 732  : 		{
; 733  : 			angle = angles[YAW] * (M_PI*2 / 360);

	mov	ecx, DWORD PTR _angles$[ebp]
	call	??BVector@@QBEPBMXZ			; Vector::operator float const *
	mov	ecx, 4
	shl	ecx, 0
	cvtss2sd xmm0, DWORD PTR [eax+ecx]
	mulsd	xmm0, QWORD PTR __real@3f91df46a2529d39
	cvtsd2ss xmm0, xmm0
	movss	DWORD PTR _angle$[ebp], xmm0

; 734  : 			SinCos( angle, &sy, &cy );

	lea	eax, DWORD PTR _cy$[ebp]
	push	eax
	lea	ecx, DWORD PTR _sy$[ebp]
	push	ecx
	push	ecx
	movss	xmm0, DWORD PTR _angle$[ebp]
	movss	DWORD PTR [esp], xmm0
	call	?SinCos@@YAXMPAM0@Z			; SinCos
	add	esp, 12					; 0000000cH

; 735  : 			angle = angles[PITCH] * (M_PI*2 / 360);

	mov	ecx, DWORD PTR _angles$[ebp]
	call	??BVector@@QBEPBMXZ			; Vector::operator float const *
	mov	ecx, 4
	imul	edx, ecx, 0
	cvtss2sd xmm0, DWORD PTR [eax+edx]
	mulsd	xmm0, QWORD PTR __real@3f91df46a2529d39
	cvtsd2ss xmm0, xmm0
	movss	DWORD PTR _angle$[ebp], xmm0

; 736  : 			SinCos( angle, &sp, &cp );

	lea	eax, DWORD PTR _cp$[ebp]
	push	eax
	lea	ecx, DWORD PTR _sp$[ebp]
	push	ecx
	push	ecx
	movss	xmm0, DWORD PTR _angle$[ebp]
	movss	DWORD PTR [esp], xmm0
	call	?SinCos@@YAXMPAM0@Z			; SinCos
	add	esp, 12					; 0000000cH

; 737  : 
; 738  : 			mat[0][0] = (cp*cy) * scale;

	movss	xmm0, DWORD PTR _cp$[ebp]
	mulss	xmm0, DWORD PTR _cy$[ebp]
	mulss	xmm0, DWORD PTR _scale$[ebp]
	mov	eax, 16					; 00000010H
	imul	ecx, eax, 0
	add	ecx, DWORD PTR _this$[ebp]
	movss	DWORD PTR tv1034[ebp], xmm0
	call	??BVector4D@@QAEPAMXZ			; Vector4D::operator float *
	mov	ecx, 4
	imul	edx, ecx, 0
	movss	xmm0, DWORD PTR tv1034[ebp]
	movss	DWORD PTR [eax+edx], xmm0

; 739  : 			mat[1][0] = (-sy) * scale;

	movss	xmm0, DWORD PTR _sy$[ebp]
	xorps	xmm0, DWORD PTR __xmm@80000000800000008000000080000000
	mulss	xmm0, DWORD PTR _scale$[ebp]
	mov	ecx, 16					; 00000010H
	shl	ecx, 0
	add	ecx, DWORD PTR _this$[ebp]
	movss	DWORD PTR tv1036[ebp], xmm0
	call	??BVector4D@@QAEPAMXZ			; Vector4D::operator float *
	mov	ecx, 4
	imul	edx, ecx, 0
	movss	xmm0, DWORD PTR tv1036[ebp]
	movss	DWORD PTR [eax+edx], xmm0

; 740  : 			mat[2][0] = (sp*cy) * scale;

	movss	xmm0, DWORD PTR _sp$[ebp]
	mulss	xmm0, DWORD PTR _cy$[ebp]
	mulss	xmm0, DWORD PTR _scale$[ebp]
	mov	ecx, 16					; 00000010H
	shl	ecx, 1
	add	ecx, DWORD PTR _this$[ebp]
	movss	DWORD PTR tv1038[ebp], xmm0
	call	??BVector4D@@QAEPAMXZ			; Vector4D::operator float *
	mov	ecx, 4
	imul	edx, ecx, 0
	movss	xmm0, DWORD PTR tv1038[ebp]
	movss	DWORD PTR [eax+edx], xmm0

; 741  : 			mat[3][0] = origin.x;

	mov	eax, 16					; 00000010H
	imul	ecx, eax, 3
	add	ecx, DWORD PTR _this$[ebp]
	call	??BVector4D@@QAEPAMXZ			; Vector4D::operator float *
	mov	ecx, 4
	imul	edx, ecx, 0
	mov	ecx, DWORD PTR _origin$[ebp]
	mov	ecx, DWORD PTR [ecx]
	mov	DWORD PTR [eax+edx], ecx

; 742  : 			mat[0][1] = (cp*sy) * scale;

	movss	xmm0, DWORD PTR _cp$[ebp]
	mulss	xmm0, DWORD PTR _sy$[ebp]
	mulss	xmm0, DWORD PTR _scale$[ebp]
	mov	eax, 16					; 00000010H
	imul	ecx, eax, 0
	add	ecx, DWORD PTR _this$[ebp]
	movss	DWORD PTR tv1040[ebp], xmm0
	call	??BVector4D@@QAEPAMXZ			; Vector4D::operator float *
	mov	ecx, 4
	shl	ecx, 0
	movss	xmm0, DWORD PTR tv1040[ebp]
	movss	DWORD PTR [eax+ecx], xmm0

; 743  : 			mat[1][1] = (cy) * scale;

	movss	xmm0, DWORD PTR _cy$[ebp]
	mulss	xmm0, DWORD PTR _scale$[ebp]
	mov	ecx, 16					; 00000010H
	shl	ecx, 0
	add	ecx, DWORD PTR _this$[ebp]
	movss	DWORD PTR tv1042[ebp], xmm0
	call	??BVector4D@@QAEPAMXZ			; Vector4D::operator float *
	mov	ecx, 4
	shl	ecx, 0
	movss	xmm0, DWORD PTR tv1042[ebp]
	movss	DWORD PTR [eax+ecx], xmm0

; 744  : 			mat[2][1] = (sp*sy) * scale;

	movss	xmm0, DWORD PTR _sp$[ebp]
	mulss	xmm0, DWORD PTR _sy$[ebp]
	mulss	xmm0, DWORD PTR _scale$[ebp]
	mov	ecx, 16					; 00000010H
	shl	ecx, 1
	add	ecx, DWORD PTR _this$[ebp]
	movss	DWORD PTR tv1044[ebp], xmm0
	call	??BVector4D@@QAEPAMXZ			; Vector4D::operator float *
	mov	ecx, 4
	shl	ecx, 0
	movss	xmm0, DWORD PTR tv1044[ebp]
	movss	DWORD PTR [eax+ecx], xmm0

; 745  : 			mat[3][1] = origin.y;

	mov	eax, 16					; 00000010H
	imul	ecx, eax, 3
	add	ecx, DWORD PTR _this$[ebp]
	call	??BVector4D@@QAEPAMXZ			; Vector4D::operator float *
	mov	ecx, 4
	shl	ecx, 0
	mov	edx, DWORD PTR _origin$[ebp]
	mov	edx, DWORD PTR [edx+4]
	mov	DWORD PTR [eax+ecx], edx

; 746  : 			mat[0][2] = (-sp) * scale;

	movss	xmm0, DWORD PTR _sp$[ebp]
	xorps	xmm0, DWORD PTR __xmm@80000000800000008000000080000000
	mulss	xmm0, DWORD PTR _scale$[ebp]
	mov	eax, 16					; 00000010H
	imul	ecx, eax, 0
	add	ecx, DWORD PTR _this$[ebp]
	movss	DWORD PTR tv1046[ebp], xmm0
	call	??BVector4D@@QAEPAMXZ			; Vector4D::operator float *
	mov	ecx, 4
	shl	ecx, 1
	movss	xmm0, DWORD PTR tv1046[ebp]
	movss	DWORD PTR [eax+ecx], xmm0

; 747  : 			mat[1][2] = 0;

	mov	ecx, 16					; 00000010H
	shl	ecx, 0
	add	ecx, DWORD PTR _this$[ebp]
	call	??BVector4D@@QAEPAMXZ			; Vector4D::operator float *
	mov	ecx, 4
	shl	ecx, 1
	xorps	xmm0, xmm0
	movss	DWORD PTR [eax+ecx], xmm0

; 748  : 			mat[2][2] = (cp) * scale;

	movss	xmm0, DWORD PTR _cp$[ebp]
	mulss	xmm0, DWORD PTR _scale$[ebp]
	mov	ecx, 16					; 00000010H
	shl	ecx, 1
	add	ecx, DWORD PTR _this$[ebp]
	movss	DWORD PTR tv1048[ebp], xmm0
	call	??BVector4D@@QAEPAMXZ			; Vector4D::operator float *
	mov	ecx, 4
	shl	ecx, 1
	movss	xmm0, DWORD PTR tv1048[ebp]
	movss	DWORD PTR [eax+ecx], xmm0

; 749  : 			mat[3][2] = origin.z;

	mov	eax, 16					; 00000010H
	imul	ecx, eax, 3
	add	ecx, DWORD PTR _this$[ebp]
	call	??BVector4D@@QAEPAMXZ			; Vector4D::operator float *
	mov	ecx, 4
	shl	ecx, 1
	mov	edx, DWORD PTR _origin$[ebp]
	mov	edx, DWORD PTR [edx+8]
	mov	DWORD PTR [eax+ecx], edx

; 750  : 			mat[0][3] = 0;

	mov	eax, 16					; 00000010H
	imul	ecx, eax, 0
	add	ecx, DWORD PTR _this$[ebp]
	call	??BVector4D@@QAEPAMXZ			; Vector4D::operator float *
	mov	ecx, 4
	imul	edx, ecx, 3
	xorps	xmm0, xmm0
	movss	DWORD PTR [eax+edx], xmm0

; 751  : 			mat[1][3] = 0;

	mov	ecx, 16					; 00000010H
	shl	ecx, 0
	add	ecx, DWORD PTR _this$[ebp]
	call	??BVector4D@@QAEPAMXZ			; Vector4D::operator float *
	mov	ecx, 4
	imul	edx, ecx, 3
	xorps	xmm0, xmm0
	movss	DWORD PTR [eax+edx], xmm0

; 752  : 			mat[2][3] = 0;

	mov	ecx, 16					; 00000010H
	shl	ecx, 1
	add	ecx, DWORD PTR _this$[ebp]
	call	??BVector4D@@QAEPAMXZ			; Vector4D::operator float *
	mov	ecx, 4
	imul	edx, ecx, 3
	xorps	xmm0, xmm0
	movss	DWORD PTR [eax+edx], xmm0

; 753  : 			mat[3][3] = 1;

	mov	eax, 16					; 00000010H
	imul	ecx, eax, 3
	add	ecx, DWORD PTR _this$[ebp]
	call	??BVector4D@@QAEPAMXZ			; Vector4D::operator float *
	mov	ecx, 4
	imul	edx, ecx, 3
	movss	xmm0, DWORD PTR __real@3f800000
	movss	DWORD PTR [eax+edx], xmm0
	jmp	$LN7@matrix4x4
$LN4@matrix4x4:

; 754  : 		}
; 755  : 		else if( angles[YAW] )

	mov	ecx, DWORD PTR _angles$[ebp]
	call	??BVector@@QBEPBMXZ			; Vector::operator float const *
	mov	ecx, 4
	shl	ecx, 0
	movss	xmm0, DWORD PTR [eax+ecx]
	ucomiss	xmm0, DWORD PTR __real@00000000
	lahf
	test	ah, 68					; 00000044H
	jnp	$LN6@matrix4x4

; 756  : 		{
; 757  : 			angle = angles[YAW] * (M_PI*2 / 360);

	mov	ecx, DWORD PTR _angles$[ebp]
	call	??BVector@@QBEPBMXZ			; Vector::operator float const *
	mov	ecx, 4
	shl	ecx, 0
	cvtss2sd xmm0, DWORD PTR [eax+ecx]
	mulsd	xmm0, QWORD PTR __real@3f91df46a2529d39
	cvtsd2ss xmm0, xmm0
	movss	DWORD PTR _angle$[ebp], xmm0

; 758  : 			SinCos( angle, &sy, &cy );

	lea	eax, DWORD PTR _cy$[ebp]
	push	eax
	lea	ecx, DWORD PTR _sy$[ebp]
	push	ecx
	push	ecx
	movss	xmm0, DWORD PTR _angle$[ebp]
	movss	DWORD PTR [esp], xmm0
	call	?SinCos@@YAXMPAM0@Z			; SinCos
	add	esp, 12					; 0000000cH

; 759  : 
; 760  : 			mat[0][0] = (cy) * scale;

	movss	xmm0, DWORD PTR _cy$[ebp]
	mulss	xmm0, DWORD PTR _scale$[ebp]
	mov	eax, 16					; 00000010H
	imul	ecx, eax, 0
	add	ecx, DWORD PTR _this$[ebp]
	movss	DWORD PTR tv1050[ebp], xmm0
	call	??BVector4D@@QAEPAMXZ			; Vector4D::operator float *
	mov	ecx, 4
	imul	edx, ecx, 0
	movss	xmm0, DWORD PTR tv1050[ebp]
	movss	DWORD PTR [eax+edx], xmm0

; 761  : 			mat[1][0] = (-sy) * scale;

	movss	xmm0, DWORD PTR _sy$[ebp]
	xorps	xmm0, DWORD PTR __xmm@80000000800000008000000080000000
	mulss	xmm0, DWORD PTR _scale$[ebp]
	mov	ecx, 16					; 00000010H
	shl	ecx, 0
	add	ecx, DWORD PTR _this$[ebp]
	movss	DWORD PTR tv1052[ebp], xmm0
	call	??BVector4D@@QAEPAMXZ			; Vector4D::operator float *
	mov	ecx, 4
	imul	edx, ecx, 0
	movss	xmm0, DWORD PTR tv1052[ebp]
	movss	DWORD PTR [eax+edx], xmm0

; 762  : 			mat[2][0] = 0;

	mov	ecx, 16					; 00000010H
	shl	ecx, 1
	add	ecx, DWORD PTR _this$[ebp]
	call	??BVector4D@@QAEPAMXZ			; Vector4D::operator float *
	mov	ecx, 4
	imul	edx, ecx, 0
	xorps	xmm0, xmm0
	movss	DWORD PTR [eax+edx], xmm0

; 763  : 			mat[3][0] = origin.x;

	mov	eax, 16					; 00000010H
	imul	ecx, eax, 3
	add	ecx, DWORD PTR _this$[ebp]
	call	??BVector4D@@QAEPAMXZ			; Vector4D::operator float *
	mov	ecx, 4
	imul	edx, ecx, 0
	mov	ecx, DWORD PTR _origin$[ebp]
	mov	ecx, DWORD PTR [ecx]
	mov	DWORD PTR [eax+edx], ecx

; 764  : 			mat[0][1] = (sy) * scale;

	movss	xmm0, DWORD PTR _sy$[ebp]
	mulss	xmm0, DWORD PTR _scale$[ebp]
	mov	eax, 16					; 00000010H
	imul	ecx, eax, 0
	add	ecx, DWORD PTR _this$[ebp]
	movss	DWORD PTR tv1054[ebp], xmm0
	call	??BVector4D@@QAEPAMXZ			; Vector4D::operator float *
	mov	ecx, 4
	shl	ecx, 0
	movss	xmm0, DWORD PTR tv1054[ebp]
	movss	DWORD PTR [eax+ecx], xmm0

; 765  : 			mat[1][1] = (cy) * scale;

	movss	xmm0, DWORD PTR _cy$[ebp]
	mulss	xmm0, DWORD PTR _scale$[ebp]
	mov	ecx, 16					; 00000010H
	shl	ecx, 0
	add	ecx, DWORD PTR _this$[ebp]
	movss	DWORD PTR tv1056[ebp], xmm0
	call	??BVector4D@@QAEPAMXZ			; Vector4D::operator float *
	mov	ecx, 4
	shl	ecx, 0
	movss	xmm0, DWORD PTR tv1056[ebp]
	movss	DWORD PTR [eax+ecx], xmm0

; 766  : 			mat[2][1] = 0;

	mov	ecx, 16					; 00000010H
	shl	ecx, 1
	add	ecx, DWORD PTR _this$[ebp]
	call	??BVector4D@@QAEPAMXZ			; Vector4D::operator float *
	mov	ecx, 4
	shl	ecx, 0
	xorps	xmm0, xmm0
	movss	DWORD PTR [eax+ecx], xmm0

; 767  : 			mat[3][1] = origin.y;

	mov	eax, 16					; 00000010H
	imul	ecx, eax, 3
	add	ecx, DWORD PTR _this$[ebp]
	call	??BVector4D@@QAEPAMXZ			; Vector4D::operator float *
	mov	ecx, 4
	shl	ecx, 0
	mov	edx, DWORD PTR _origin$[ebp]
	mov	edx, DWORD PTR [edx+4]
	mov	DWORD PTR [eax+ecx], edx

; 768  : 			mat[0][2] = 0;

	mov	eax, 16					; 00000010H
	imul	ecx, eax, 0
	add	ecx, DWORD PTR _this$[ebp]
	call	??BVector4D@@QAEPAMXZ			; Vector4D::operator float *
	mov	ecx, 4
	shl	ecx, 1
	xorps	xmm0, xmm0
	movss	DWORD PTR [eax+ecx], xmm0

; 769  : 			mat[1][2] = 0;

	mov	ecx, 16					; 00000010H
	shl	ecx, 0
	add	ecx, DWORD PTR _this$[ebp]
	call	??BVector4D@@QAEPAMXZ			; Vector4D::operator float *
	mov	ecx, 4
	shl	ecx, 1
	xorps	xmm0, xmm0
	movss	DWORD PTR [eax+ecx], xmm0

; 770  : 			mat[2][2] = scale;

	mov	ecx, 16					; 00000010H
	shl	ecx, 1
	add	ecx, DWORD PTR _this$[ebp]
	call	??BVector4D@@QAEPAMXZ			; Vector4D::operator float *
	mov	ecx, 4
	shl	ecx, 1
	movss	xmm0, DWORD PTR _scale$[ebp]
	movss	DWORD PTR [eax+ecx], xmm0

; 771  : 			mat[3][2] = origin.z;

	mov	eax, 16					; 00000010H
	imul	ecx, eax, 3
	add	ecx, DWORD PTR _this$[ebp]
	call	??BVector4D@@QAEPAMXZ			; Vector4D::operator float *
	mov	ecx, 4
	shl	ecx, 1
	mov	edx, DWORD PTR _origin$[ebp]
	mov	edx, DWORD PTR [edx+8]
	mov	DWORD PTR [eax+ecx], edx

; 772  : 			mat[0][3] = 0;

	mov	eax, 16					; 00000010H
	imul	ecx, eax, 0
	add	ecx, DWORD PTR _this$[ebp]
	call	??BVector4D@@QAEPAMXZ			; Vector4D::operator float *
	mov	ecx, 4
	imul	edx, ecx, 3
	xorps	xmm0, xmm0
	movss	DWORD PTR [eax+edx], xmm0

; 773  : 			mat[1][3] = 0;

	mov	ecx, 16					; 00000010H
	shl	ecx, 0
	add	ecx, DWORD PTR _this$[ebp]
	call	??BVector4D@@QAEPAMXZ			; Vector4D::operator float *
	mov	ecx, 4
	imul	edx, ecx, 3
	xorps	xmm0, xmm0
	movss	DWORD PTR [eax+edx], xmm0

; 774  : 			mat[2][3] = 0;

	mov	ecx, 16					; 00000010H
	shl	ecx, 1
	add	ecx, DWORD PTR _this$[ebp]
	call	??BVector4D@@QAEPAMXZ			; Vector4D::operator float *
	mov	ecx, 4
	imul	edx, ecx, 3
	xorps	xmm0, xmm0
	movss	DWORD PTR [eax+edx], xmm0

; 775  : 			mat[3][3] = 1;

	mov	eax, 16					; 00000010H
	imul	ecx, eax, 3
	add	ecx, DWORD PTR _this$[ebp]
	call	??BVector4D@@QAEPAMXZ			; Vector4D::operator float *
	mov	ecx, 4
	imul	edx, ecx, 3
	movss	xmm0, DWORD PTR __real@3f800000
	movss	DWORD PTR [eax+edx], xmm0

; 776  : 		}
; 777  : 		else

	jmp	$LN7@matrix4x4
$LN6@matrix4x4:

; 778  : 		{
; 779  : 			mat[0][0] = scale;

	mov	eax, 16					; 00000010H
	imul	ecx, eax, 0
	add	ecx, DWORD PTR _this$[ebp]
	call	??BVector4D@@QAEPAMXZ			; Vector4D::operator float *
	mov	ecx, 4
	imul	edx, ecx, 0
	movss	xmm0, DWORD PTR _scale$[ebp]
	movss	DWORD PTR [eax+edx], xmm0

; 780  : 			mat[1][0] = 0;

	mov	ecx, 16					; 00000010H
	shl	ecx, 0
	add	ecx, DWORD PTR _this$[ebp]
	call	??BVector4D@@QAEPAMXZ			; Vector4D::operator float *
	mov	ecx, 4
	imul	edx, ecx, 0
	xorps	xmm0, xmm0
	movss	DWORD PTR [eax+edx], xmm0

; 781  : 			mat[2][0] = 0;

	mov	ecx, 16					; 00000010H
	shl	ecx, 1
	add	ecx, DWORD PTR _this$[ebp]
	call	??BVector4D@@QAEPAMXZ			; Vector4D::operator float *
	mov	ecx, 4
	imul	edx, ecx, 0
	xorps	xmm0, xmm0
	movss	DWORD PTR [eax+edx], xmm0

; 782  : 			mat[3][0] = origin.x;

	mov	eax, 16					; 00000010H
	imul	ecx, eax, 3
	add	ecx, DWORD PTR _this$[ebp]
	call	??BVector4D@@QAEPAMXZ			; Vector4D::operator float *
	mov	ecx, 4
	imul	edx, ecx, 0
	mov	ecx, DWORD PTR _origin$[ebp]
	mov	ecx, DWORD PTR [ecx]
	mov	DWORD PTR [eax+edx], ecx

; 783  : 			mat[0][1] = 0;

	mov	eax, 16					; 00000010H
	imul	ecx, eax, 0
	add	ecx, DWORD PTR _this$[ebp]
	call	??BVector4D@@QAEPAMXZ			; Vector4D::operator float *
	mov	ecx, 4
	shl	ecx, 0
	xorps	xmm0, xmm0
	movss	DWORD PTR [eax+ecx], xmm0

; 784  : 			mat[1][1] = scale;

	mov	ecx, 16					; 00000010H
	shl	ecx, 0
	add	ecx, DWORD PTR _this$[ebp]
	call	??BVector4D@@QAEPAMXZ			; Vector4D::operator float *
	mov	ecx, 4
	shl	ecx, 0
	movss	xmm0, DWORD PTR _scale$[ebp]
	movss	DWORD PTR [eax+ecx], xmm0

; 785  : 			mat[2][1] = 0;

	mov	ecx, 16					; 00000010H
	shl	ecx, 1
	add	ecx, DWORD PTR _this$[ebp]
	call	??BVector4D@@QAEPAMXZ			; Vector4D::operator float *
	mov	ecx, 4
	shl	ecx, 0
	xorps	xmm0, xmm0
	movss	DWORD PTR [eax+ecx], xmm0

; 786  : 			mat[3][1] = origin.y;

	mov	eax, 16					; 00000010H
	imul	ecx, eax, 3
	add	ecx, DWORD PTR _this$[ebp]
	call	??BVector4D@@QAEPAMXZ			; Vector4D::operator float *
	mov	ecx, 4
	shl	ecx, 0
	mov	edx, DWORD PTR _origin$[ebp]
	mov	edx, DWORD PTR [edx+4]
	mov	DWORD PTR [eax+ecx], edx

; 787  : 			mat[0][2] = 0;

	mov	eax, 16					; 00000010H
	imul	ecx, eax, 0
	add	ecx, DWORD PTR _this$[ebp]
	call	??BVector4D@@QAEPAMXZ			; Vector4D::operator float *
	mov	ecx, 4
	shl	ecx, 1
	xorps	xmm0, xmm0
	movss	DWORD PTR [eax+ecx], xmm0

; 788  : 			mat[1][2] = 0;

	mov	ecx, 16					; 00000010H
	shl	ecx, 0
	add	ecx, DWORD PTR _this$[ebp]
	call	??BVector4D@@QAEPAMXZ			; Vector4D::operator float *
	mov	ecx, 4
	shl	ecx, 1
	xorps	xmm0, xmm0
	movss	DWORD PTR [eax+ecx], xmm0

; 789  : 			mat[2][2] = scale;

	mov	ecx, 16					; 00000010H
	shl	ecx, 1
	add	ecx, DWORD PTR _this$[ebp]
	call	??BVector4D@@QAEPAMXZ			; Vector4D::operator float *
	mov	ecx, 4
	shl	ecx, 1
	movss	xmm0, DWORD PTR _scale$[ebp]
	movss	DWORD PTR [eax+ecx], xmm0

; 790  : 			mat[3][2] = origin.z;

	mov	eax, 16					; 00000010H
	imul	ecx, eax, 3
	add	ecx, DWORD PTR _this$[ebp]
	call	??BVector4D@@QAEPAMXZ			; Vector4D::operator float *
	mov	ecx, 4
	shl	ecx, 1
	mov	edx, DWORD PTR _origin$[ebp]
	mov	edx, DWORD PTR [edx+8]
	mov	DWORD PTR [eax+ecx], edx

; 791  : 			mat[0][3] = 0;

	mov	eax, 16					; 00000010H
	imul	ecx, eax, 0
	add	ecx, DWORD PTR _this$[ebp]
	call	??BVector4D@@QAEPAMXZ			; Vector4D::operator float *
	mov	ecx, 4
	imul	edx, ecx, 3
	xorps	xmm0, xmm0
	movss	DWORD PTR [eax+edx], xmm0

; 792  : 			mat[1][3] = 0;

	mov	ecx, 16					; 00000010H
	shl	ecx, 0
	add	ecx, DWORD PTR _this$[ebp]
	call	??BVector4D@@QAEPAMXZ			; Vector4D::operator float *
	mov	ecx, 4
	imul	edx, ecx, 3
	xorps	xmm0, xmm0
	movss	DWORD PTR [eax+edx], xmm0

; 793  : 			mat[2][3] = 0;

	mov	ecx, 16					; 00000010H
	shl	ecx, 1
	add	ecx, DWORD PTR _this$[ebp]
	call	??BVector4D@@QAEPAMXZ			; Vector4D::operator float *
	mov	ecx, 4
	imul	edx, ecx, 3
	xorps	xmm0, xmm0
	movss	DWORD PTR [eax+edx], xmm0

; 794  : 			mat[3][3] = 1;

	mov	eax, 16					; 00000010H
	imul	ecx, eax, 3
	add	ecx, DWORD PTR _this$[ebp]
	call	??BVector4D@@QAEPAMXZ			; Vector4D::operator float *
	mov	ecx, 4
	imul	edx, ecx, 3
	movss	xmm0, DWORD PTR __real@3f800000
	movss	DWORD PTR [eax+edx], xmm0
$LN7@matrix4x4:

; 795  : 		}
; 796  : 	}

	mov	eax, DWORD PTR _this$[ebp]
	pop	edi
	pop	esi
	pop	ebx
	mov	esp, ebp
	pop	ebp
	ret	12					; 0000000cH
??0matrix4x4@@QAE@ABVVector@@0M@Z ENDP			; matrix4x4::matrix4x4
_TEXT	ENDS
; Function compile flags: /Odtp /ZI
; File d:\!diffusion 2020\source code 2022\client-server\game_shared\vector.h
;	COMDAT ??BVector4D@@QAEPAMXZ
_TEXT	SEGMENT
_this$ = -4						; size = 4
??BVector4D@@QAEPAMXZ PROC				; Vector4D::operator float *, COMDAT
; _this$ = ecx

; 344  : 	operator float *()					{ return &x; }

	push	ebp
	mov	ebp, esp
	sub	esp, 68					; 00000044H
	push	ebx
	push	esi
	push	edi
	mov	DWORD PTR _this$[ebp], ecx
	mov	eax, DWORD PTR _this$[ebp]
	pop	edi
	pop	esi
	pop	ebx
	mov	esp, ebp
	pop	ebp
	ret	0
??BVector4D@@QAEPAMXZ ENDP				; Vector4D::operator float *
_TEXT	ENDS
; Function compile flags: /Odtp /ZI
; File d:\!diffusion 2020\source code 2022\client-server\game_shared\vector.h
;	COMDAT ??0Vector4D@@QAE@XZ
_TEXT	SEGMENT
_this$ = -4						; size = 4
??0Vector4D@@QAE@XZ PROC				; Vector4D::Vector4D, COMDAT
; _this$ = ecx

; 330  : 	inline Vector4D( void ) { }

	push	ebp
	mov	ebp, esp
	sub	esp, 68					; 00000044H
	push	ebx
	push	esi
	push	edi
	mov	DWORD PTR _this$[ebp], ecx
	mov	eax, DWORD PTR _this$[ebp]
	pop	edi
	pop	esi
	pop	ebx
	mov	esp, ebp
	pop	ebp
	ret	0
??0Vector4D@@QAE@XZ ENDP				; Vector4D::Vector4D
_TEXT	ENDS
; Function compile flags: /Odtp /ZI
; File d:\!diffusion 2020\source code 2022\client-server\game_shared\vector.h
;	COMDAT ?CrossProduct@@YA?AVVector@@ABV1@0@Z
_TEXT	SEGMENT
___$ReturnUdt$ = 8					; size = 4
_a$ = 12						; size = 4
_b$ = 16						; size = 4
?CrossProduct@@YA?AVVector@@ABV1@0@Z PROC		; CrossProduct, COMDAT

; 310  : inline Vector CrossProduct( const Vector& a, const Vector& b ) { return Vector( a.y*b.z - a.z*b.y, a.z*b.x - a.x*b.z, a.x*b.y - a.y*b.x ); }

	push	ebp
	mov	ebp, esp
	sub	esp, 64					; 00000040H
	push	ebx
	push	esi
	push	edi
	mov	eax, DWORD PTR _a$[ebp]
	mov	ecx, DWORD PTR _b$[ebp]
	movss	xmm0, DWORD PTR [eax]
	mulss	xmm0, DWORD PTR [ecx+4]
	mov	edx, DWORD PTR _a$[ebp]
	mov	eax, DWORD PTR _b$[ebp]
	movss	xmm1, DWORD PTR [edx+4]
	mulss	xmm1, DWORD PTR [eax]
	subss	xmm0, xmm1
	push	ecx
	movss	DWORD PTR [esp], xmm0
	mov	ecx, DWORD PTR _a$[ebp]
	mov	edx, DWORD PTR _b$[ebp]
	movss	xmm0, DWORD PTR [ecx+8]
	mulss	xmm0, DWORD PTR [edx]
	mov	eax, DWORD PTR _a$[ebp]
	mov	ecx, DWORD PTR _b$[ebp]
	movss	xmm1, DWORD PTR [eax]
	mulss	xmm1, DWORD PTR [ecx+8]
	subss	xmm0, xmm1
	push	ecx
	movss	DWORD PTR [esp], xmm0
	mov	edx, DWORD PTR _a$[ebp]
	mov	eax, DWORD PTR _b$[ebp]
	movss	xmm0, DWORD PTR [edx+4]
	mulss	xmm0, DWORD PTR [eax+8]
	mov	ecx, DWORD PTR _a$[ebp]
	mov	edx, DWORD PTR _b$[ebp]
	movss	xmm1, DWORD PTR [ecx+8]
	mulss	xmm1, DWORD PTR [edx+4]
	subss	xmm0, xmm1
	push	ecx
	movss	DWORD PTR [esp], xmm0
	mov	ecx, DWORD PTR ___$ReturnUdt$[ebp]
	call	??0Vector@@QAE@MMM@Z			; Vector::Vector
	mov	eax, DWORD PTR ___$ReturnUdt$[ebp]
	pop	edi
	pop	esi
	pop	ebx
	mov	esp, ebp
	pop	ebp
	ret	0
?CrossProduct@@YA?AVVector@@ABV1@0@Z ENDP		; CrossProduct
_TEXT	ENDS
; Function compile flags: /Odtp /ZI
; File d:\!diffusion 2020\source code 2022\client-server\game_shared\vector.h
;	COMDAT ?DotProduct@@YAMABVVector@@0@Z
_TEXT	SEGMENT
tv86 = -68						; size = 4
_a$ = 8							; size = 4
_b$ = 12						; size = 4
?DotProduct@@YAMABVVector@@0@Z PROC			; DotProduct, COMDAT

; 308  : inline float DotProduct(const Vector& a, const Vector& b ) { return( a.x * b.x + a.y * b.y + a.z * b.z ); }

	push	ebp
	mov	ebp, esp
	sub	esp, 68					; 00000044H
	push	ebx
	push	esi
	push	edi
	mov	eax, DWORD PTR _a$[ebp]
	mov	ecx, DWORD PTR _b$[ebp]
	movss	xmm0, DWORD PTR [eax]
	mulss	xmm0, DWORD PTR [ecx]
	mov	edx, DWORD PTR _a$[ebp]
	mov	eax, DWORD PTR _b$[ebp]
	movss	xmm1, DWORD PTR [edx+4]
	mulss	xmm1, DWORD PTR [eax+4]
	addss	xmm0, xmm1
	mov	ecx, DWORD PTR _a$[ebp]
	mov	edx, DWORD PTR _b$[ebp]
	movss	xmm1, DWORD PTR [ecx+8]
	mulss	xmm1, DWORD PTR [edx+8]
	addss	xmm0, xmm1
	movss	DWORD PTR tv86[ebp], xmm0
	fld	DWORD PTR tv86[ebp]
	pop	edi
	pop	esi
	pop	ebx
	mov	esp, ebp
	pop	ebp
	ret	0
?DotProduct@@YAMABVVector@@0@Z ENDP			; DotProduct
_TEXT	ENDS
; Function compile flags: /Odtp /ZI
; File d:\!diffusion 2020\source code 2022\client-server\game_shared\vector.h
;	COMDAT ??D@YA?AVVector@@MABV0@@Z
_TEXT	SEGMENT
___$ReturnUdt$ = 8					; size = 4
_fl$ = 12						; size = 4
_v$ = 16						; size = 4
??D@YA?AVVector@@MABV0@@Z PROC				; operator*, COMDAT

; 307  : inline Vector operator* ( float fl, const Vector& v ) { return v * fl; }

	push	ebp
	mov	ebp, esp
	sub	esp, 64					; 00000040H
	push	ebx
	push	esi
	push	edi
	push	ecx
	movss	xmm0, DWORD PTR _fl$[ebp]
	movss	DWORD PTR [esp], xmm0
	mov	eax, DWORD PTR ___$ReturnUdt$[ebp]
	push	eax
	mov	ecx, DWORD PTR _v$[ebp]
	call	??DVector@@QBE?AV0@M@Z			; Vector::operator*
	mov	eax, DWORD PTR ___$ReturnUdt$[ebp]
	pop	edi
	pop	esi
	pop	ebx
	mov	esp, ebp
	pop	ebp
	ret	0
??D@YA?AVVector@@MABV0@@Z ENDP				; operator*
_TEXT	ENDS
; Function compile flags: /Odtp /ZI
; File d:\!diffusion 2020\source code 2022\client-server\game_shared\vector.h
;	COMDAT ?Normalize@Vector@@QBE?AV1@XZ
_TEXT	SEGMENT
_flLen$ = -8						; size = 4
_this$ = -4						; size = 4
___$ReturnUdt$ = 8					; size = 4
?Normalize@Vector@@QBE?AV1@XZ PROC			; Vector::Normalize, COMDAT
; _this$ = ecx

; 251  : 	{

	push	ebp
	mov	ebp, esp
	sub	esp, 72					; 00000048H
	push	ebx
	push	esi
	push	edi
	mov	DWORD PTR _this$[ebp], ecx

; 252  : 		float flLen = Length();

	mov	ecx, DWORD PTR _this$[ebp]
	call	?Length@Vector@@QBEMXZ			; Vector::Length
	fstp	DWORD PTR _flLen$[ebp]

; 253  : 
; 254  : 		if( flLen )

	movss	xmm0, DWORD PTR _flLen$[ebp]
	ucomiss	xmm0, DWORD PTR __real@00000000
	lahf
	test	ah, 68					; 00000044H
	jnp	SHORT $LN2@Normalize

; 255  : 		{
; 256  : 			flLen = 1.0f / flLen;

	movss	xmm0, DWORD PTR __real@3f800000
	divss	xmm0, DWORD PTR _flLen$[ebp]
	movss	DWORD PTR _flLen$[ebp], xmm0

; 257  : 			return Vector( x * flLen, y * flLen, z * flLen );

	mov	eax, DWORD PTR _this$[ebp]
	movss	xmm0, DWORD PTR [eax+8]
	mulss	xmm0, DWORD PTR _flLen$[ebp]
	push	ecx
	movss	DWORD PTR [esp], xmm0
	mov	ecx, DWORD PTR _this$[ebp]
	movss	xmm0, DWORD PTR [ecx+4]
	mulss	xmm0, DWORD PTR _flLen$[ebp]
	push	ecx
	movss	DWORD PTR [esp], xmm0
	mov	edx, DWORD PTR _this$[ebp]
	movss	xmm0, DWORD PTR [edx]
	mulss	xmm0, DWORD PTR _flLen$[ebp]
	push	ecx
	movss	DWORD PTR [esp], xmm0
	mov	ecx, DWORD PTR ___$ReturnUdt$[ebp]
	call	??0Vector@@QAE@MMM@Z			; Vector::Vector
	mov	eax, DWORD PTR ___$ReturnUdt$[ebp]
	jmp	SHORT $LN1@Normalize
$LN2@Normalize:

; 258  : 		}
; 259  : 
; 260  : 		return *this; // can't normalize

	mov	eax, DWORD PTR _this$[ebp]
	push	eax
	mov	ecx, DWORD PTR ___$ReturnUdt$[ebp]
	call	??0Vector@@QAE@ABV0@@Z			; Vector::Vector
	mov	eax, DWORD PTR ___$ReturnUdt$[ebp]
$LN1@Normalize:

; 261  : 	}

	pop	edi
	pop	esi
	pop	ebx
	mov	esp, ebp
	pop	ebp
	ret	4
?Normalize@Vector@@QBE?AV1@XZ ENDP			; Vector::Normalize
_TEXT	ENDS
; Function compile flags: /Odtp /ZI
; File d:\!diffusion 2020\source code 2022\client-server\game_shared\vector.h
;	COMDAT ??BVector@@QBEPBMXZ
_TEXT	SEGMENT
_this$ = -4						; size = 4
??BVector@@QBEPBMXZ PROC				; Vector::operator float const *, COMDAT
; _this$ = ecx

; 248  : 	operator const float *() const		{ return &x; } 

	push	ebp
	mov	ebp, esp
	sub	esp, 68					; 00000044H
	push	ebx
	push	esi
	push	edi
	mov	DWORD PTR _this$[ebp], ecx
	mov	eax, DWORD PTR _this$[ebp]
	pop	edi
	pop	esi
	pop	ebx
	mov	esp, ebp
	pop	ebp
	ret	0
??BVector@@QBEPBMXZ ENDP				; Vector::operator float const *
_TEXT	ENDS
; Function compile flags: /Odtp /ZI
; File d:\!diffusion 2020\source code 2022\client-server\game_shared\vector.h
;	COMDAT ??BVector@@QAEPAMXZ
_TEXT	SEGMENT
_this$ = -4						; size = 4
??BVector@@QAEPAMXZ PROC				; Vector::operator float *, COMDAT
; _this$ = ecx

; 247  : 	operator float *()				{ return &x; } // Vectors will now automatically convert to float * when needed

	push	ebp
	mov	ebp, esp
	sub	esp, 68					; 00000044H
	push	ebx
	push	esi
	push	edi
	mov	DWORD PTR _this$[ebp], ecx
	mov	eax, DWORD PTR _this$[ebp]
	pop	edi
	pop	esi
	pop	ebx
	mov	esp, ebp
	pop	ebp
	ret	0
??BVector@@QAEPAMXZ ENDP				; Vector::operator float *
_TEXT	ENDS
; Function compile flags: /Odtp /ZI
; File d:\!diffusion 2020\source code 2022\client-server\game_shared\vector.h
;	COMDAT ?Length@Vector@@QBEMXZ
_TEXT	SEGMENT
tv91 = -72						; size = 4
_this$ = -4						; size = 4
?Length@Vector@@QBEMXZ PROC				; Vector::Length, COMDAT
; _this$ = ecx

; 245  : 	inline float Length(void) const		{ return sqrt( x*x + y*y + z*z ); }

	push	ebp
	mov	ebp, esp
	sub	esp, 72					; 00000048H
	push	ebx
	push	esi
	push	edi
	mov	DWORD PTR _this$[ebp], ecx
	mov	eax, DWORD PTR _this$[ebp]
	mov	ecx, DWORD PTR _this$[ebp]
	movss	xmm0, DWORD PTR [eax]
	mulss	xmm0, DWORD PTR [ecx]
	mov	edx, DWORD PTR _this$[ebp]
	mov	eax, DWORD PTR _this$[ebp]
	movss	xmm1, DWORD PTR [edx+4]
	mulss	xmm1, DWORD PTR [eax+4]
	addss	xmm0, xmm1
	mov	ecx, DWORD PTR _this$[ebp]
	mov	edx, DWORD PTR _this$[ebp]
	movss	xmm1, DWORD PTR [ecx+8]
	mulss	xmm1, DWORD PTR [edx+8]
	addss	xmm0, xmm1
	cvtss2sd xmm0, xmm0
	sub	esp, 8
	movsd	QWORD PTR [esp], xmm0
	call	_sqrt
	add	esp, 8
	fstp	DWORD PTR tv91[ebp]
	fld	DWORD PTR tv91[ebp]
	pop	edi
	pop	esi
	pop	ebx
	mov	esp, ebp
	pop	ebp
	ret	0
?Length@Vector@@QBEMXZ ENDP				; Vector::Length
_TEXT	ENDS
; Function compile flags: /Odtp /ZI
; File d:\!diffusion 2020\source code 2022\client-server\game_shared\vector.h
;	COMDAT ??XVector@@QAEAAV0@M@Z
_TEXT	SEGMENT
_this$ = -4						; size = 4
_s$ = 8							; size = 4
??XVector@@QAEAAV0@M@Z PROC				; Vector::operator*=, COMDAT
; _this$ = ecx

; 183  : 	{

	push	ebp
	mov	ebp, esp
	sub	esp, 68					; 00000044H
	push	ebx
	push	esi
	push	edi
	mov	DWORD PTR _this$[ebp], ecx

; 184  : 		x *= s; y *= s; z *= s;

	mov	eax, DWORD PTR _this$[ebp]
	movss	xmm0, DWORD PTR [eax]
	mulss	xmm0, DWORD PTR _s$[ebp]
	mov	ecx, DWORD PTR _this$[ebp]
	movss	DWORD PTR [ecx], xmm0
	mov	eax, DWORD PTR _this$[ebp]
	movss	xmm0, DWORD PTR [eax+4]
	mulss	xmm0, DWORD PTR _s$[ebp]
	mov	ecx, DWORD PTR _this$[ebp]
	movss	DWORD PTR [ecx+4], xmm0
	mov	eax, DWORD PTR _this$[ebp]
	movss	xmm0, DWORD PTR [eax+8]
	mulss	xmm0, DWORD PTR _s$[ebp]
	mov	ecx, DWORD PTR _this$[ebp]
	movss	DWORD PTR [ecx+8], xmm0

; 185  : 		return *this;

	mov	eax, DWORD PTR _this$[ebp]

; 186  : 	}

	pop	edi
	pop	esi
	pop	ebx
	mov	esp, ebp
	pop	ebp
	ret	4
??XVector@@QAEAAV0@M@Z ENDP				; Vector::operator*=
_TEXT	ENDS
; Function compile flags: /Odtp /ZI
; File d:\!diffusion 2020\source code 2022\client-server\game_shared\vector.h
;	COMDAT ??ZVector@@QAEAAV0@ABV0@@Z
_TEXT	SEGMENT
_this$ = -4						; size = 4
_v$ = 8							; size = 4
??ZVector@@QAEAAV0@ABV0@@Z PROC				; Vector::operator-=, COMDAT
; _this$ = ecx

; 173  : 	{

	push	ebp
	mov	ebp, esp
	sub	esp, 68					; 00000044H
	push	ebx
	push	esi
	push	edi
	mov	DWORD PTR _this$[ebp], ecx

; 174  : 		x-=v.x; y-=v.y; z -= v.z;	

	mov	eax, DWORD PTR _this$[ebp]
	mov	ecx, DWORD PTR _v$[ebp]
	movss	xmm0, DWORD PTR [eax]
	subss	xmm0, DWORD PTR [ecx]
	mov	edx, DWORD PTR _this$[ebp]
	movss	DWORD PTR [edx], xmm0
	mov	eax, DWORD PTR _this$[ebp]
	mov	ecx, DWORD PTR _v$[ebp]
	movss	xmm0, DWORD PTR [eax+4]
	subss	xmm0, DWORD PTR [ecx+4]
	mov	edx, DWORD PTR _this$[ebp]
	movss	DWORD PTR [edx+4], xmm0
	mov	eax, DWORD PTR _this$[ebp]
	mov	ecx, DWORD PTR _v$[ebp]
	movss	xmm0, DWORD PTR [eax+8]
	subss	xmm0, DWORD PTR [ecx+8]
	mov	edx, DWORD PTR _this$[ebp]
	movss	DWORD PTR [edx+8], xmm0

; 175  : 		return *this;

	mov	eax, DWORD PTR _this$[ebp]

; 176  : 	}		

	pop	edi
	pop	esi
	pop	ebx
	mov	esp, ebp
	pop	ebp
	ret	4
??ZVector@@QAEAAV0@ABV0@@Z ENDP				; Vector::operator-=
_TEXT	ENDS
; Function compile flags: /Odtp /ZI
; File d:\!diffusion 2020\source code 2022\client-server\game_shared\vector.h
;	COMDAT ??YVector@@QAEAAV0@ABV0@@Z
_TEXT	SEGMENT
_this$ = -4						; size = 4
_v$ = 8							; size = 4
??YVector@@QAEAAV0@ABV0@@Z PROC				; Vector::operator+=, COMDAT
; _this$ = ecx

; 168  : 	{

	push	ebp
	mov	ebp, esp
	sub	esp, 68					; 00000044H
	push	ebx
	push	esi
	push	edi
	mov	DWORD PTR _this$[ebp], ecx

; 169  : 		x+=v.x; y+=v.y; z += v.z;	

	mov	eax, DWORD PTR _this$[ebp]
	mov	ecx, DWORD PTR _v$[ebp]
	movss	xmm0, DWORD PTR [eax]
	addss	xmm0, DWORD PTR [ecx]
	mov	edx, DWORD PTR _this$[ebp]
	movss	DWORD PTR [edx], xmm0
	mov	eax, DWORD PTR _this$[ebp]
	mov	ecx, DWORD PTR _v$[ebp]
	movss	xmm0, DWORD PTR [eax+4]
	addss	xmm0, DWORD PTR [ecx+4]
	mov	edx, DWORD PTR _this$[ebp]
	movss	DWORD PTR [edx+4], xmm0
	mov	eax, DWORD PTR _this$[ebp]
	mov	ecx, DWORD PTR _v$[ebp]
	movss	xmm0, DWORD PTR [eax+8]
	addss	xmm0, DWORD PTR [ecx+8]
	mov	edx, DWORD PTR _this$[ebp]
	movss	DWORD PTR [edx+8], xmm0

; 170  : 		return *this;

	mov	eax, DWORD PTR _this$[ebp]

; 171  : 	}			

	pop	edi
	pop	esi
	pop	ebx
	mov	esp, ebp
	pop	ebp
	ret	4
??YVector@@QAEAAV0@ABV0@@Z ENDP				; Vector::operator+=
_TEXT	ENDS
; Function compile flags: /Odtp /ZI
; File d:\!diffusion 2020\source code 2022\client-server\game_shared\vector.h
;	COMDAT ??DVector@@QBE?AV0@M@Z
_TEXT	SEGMENT
_this$ = -4						; size = 4
___$ReturnUdt$ = 8					; size = 4
_fl$ = 12						; size = 4
??DVector@@QBE?AV0@M@Z PROC				; Vector::operator*, COMDAT
; _this$ = ecx

; 162  : 	inline Vector operator*(float fl) const		{ return Vector(x*fl, y*fl, z*fl);	   }

	push	ebp
	mov	ebp, esp
	sub	esp, 68					; 00000044H
	push	ebx
	push	esi
	push	edi
	mov	DWORD PTR _this$[ebp], ecx
	mov	eax, DWORD PTR _this$[ebp]
	movss	xmm0, DWORD PTR [eax+8]
	mulss	xmm0, DWORD PTR _fl$[ebp]
	push	ecx
	movss	DWORD PTR [esp], xmm0
	mov	ecx, DWORD PTR _this$[ebp]
	movss	xmm0, DWORD PTR [ecx+4]
	mulss	xmm0, DWORD PTR _fl$[ebp]
	push	ecx
	movss	DWORD PTR [esp], xmm0
	mov	edx, DWORD PTR _this$[ebp]
	movss	xmm0, DWORD PTR [edx]
	mulss	xmm0, DWORD PTR _fl$[ebp]
	push	ecx
	movss	DWORD PTR [esp], xmm0
	mov	ecx, DWORD PTR ___$ReturnUdt$[ebp]
	call	??0Vector@@QAE@MMM@Z			; Vector::Vector
	mov	eax, DWORD PTR ___$ReturnUdt$[ebp]
	pop	edi
	pop	esi
	pop	ebx
	mov	esp, ebp
	pop	ebp
	ret	8
??DVector@@QBE?AV0@M@Z ENDP				; Vector::operator*
_TEXT	ENDS
; Function compile flags: /Odtp /ZI
; File d:\!diffusion 2020\source code 2022\client-server\game_shared\vector.h
;	COMDAT ??GVector@@QBE?AV0@ABV0@@Z
_TEXT	SEGMENT
_this$ = -4						; size = 4
___$ReturnUdt$ = 8					; size = 4
_v$ = 12						; size = 4
??GVector@@QBE?AV0@ABV0@@Z PROC				; Vector::operator-, COMDAT
; _this$ = ecx

; 159  : 	inline Vector operator-(const Vector& v) const	{ return Vector(x-v.x, y-v.y, z-v.z);	   }

	push	ebp
	mov	ebp, esp
	sub	esp, 68					; 00000044H
	push	ebx
	push	esi
	push	edi
	mov	DWORD PTR _this$[ebp], ecx
	mov	eax, DWORD PTR _this$[ebp]
	mov	ecx, DWORD PTR _v$[ebp]
	movss	xmm0, DWORD PTR [eax+8]
	subss	xmm0, DWORD PTR [ecx+8]
	push	ecx
	movss	DWORD PTR [esp], xmm0
	mov	edx, DWORD PTR _this$[ebp]
	mov	eax, DWORD PTR _v$[ebp]
	movss	xmm0, DWORD PTR [edx+4]
	subss	xmm0, DWORD PTR [eax+4]
	push	ecx
	movss	DWORD PTR [esp], xmm0
	mov	ecx, DWORD PTR _this$[ebp]
	mov	edx, DWORD PTR _v$[ebp]
	movss	xmm0, DWORD PTR [ecx]
	subss	xmm0, DWORD PTR [edx]
	push	ecx
	movss	DWORD PTR [esp], xmm0
	mov	ecx, DWORD PTR ___$ReturnUdt$[ebp]
	call	??0Vector@@QAE@MMM@Z			; Vector::Vector
	mov	eax, DWORD PTR ___$ReturnUdt$[ebp]
	pop	edi
	pop	esi
	pop	ebx
	mov	esp, ebp
	pop	ebp
	ret	8
??GVector@@QBE?AV0@ABV0@@Z ENDP				; Vector::operator-
_TEXT	ENDS
; Function compile flags: /Odtp /ZI
; File d:\!diffusion 2020\source code 2022\client-server\game_shared\vector.h
;	COMDAT ??HVector@@QBE?AV0@ABV0@@Z
_TEXT	SEGMENT
_this$ = -4						; size = 4
___$ReturnUdt$ = 8					; size = 4
_v$ = 12						; size = 4
??HVector@@QBE?AV0@ABV0@@Z PROC				; Vector::operator+, COMDAT
; _this$ = ecx

; 158  : 	inline Vector operator+(const Vector& v) const	{ return Vector(x+v.x, y+v.y, z+v.z);	   }

	push	ebp
	mov	ebp, esp
	sub	esp, 68					; 00000044H
	push	ebx
	push	esi
	push	edi
	mov	DWORD PTR _this$[ebp], ecx
	mov	eax, DWORD PTR _this$[ebp]
	mov	ecx, DWORD PTR _v$[ebp]
	movss	xmm0, DWORD PTR [eax+8]
	addss	xmm0, DWORD PTR [ecx+8]
	push	ecx
	movss	DWORD PTR [esp], xmm0
	mov	edx, DWORD PTR _this$[ebp]
	mov	eax, DWORD PTR _v$[ebp]
	movss	xmm0, DWORD PTR [edx+4]
	addss	xmm0, DWORD PTR [eax+4]
	push	ecx
	movss	DWORD PTR [esp], xmm0
	mov	ecx, DWORD PTR _this$[ebp]
	mov	edx, DWORD PTR _v$[ebp]
	movss	xmm0, DWORD PTR [ecx]
	addss	xmm0, DWORD PTR [edx]
	push	ecx
	movss	DWORD PTR [esp], xmm0
	mov	ecx, DWORD PTR ___$ReturnUdt$[ebp]
	call	??0Vector@@QAE@MMM@Z			; Vector::Vector
	mov	eax, DWORD PTR ___$ReturnUdt$[ebp]
	pop	edi
	pop	esi
	pop	ebx
	mov	esp, ebp
	pop	ebp
	ret	8
??HVector@@QBE?AV0@ABV0@@Z ENDP				; Vector::operator+
_TEXT	ENDS
; Function compile flags: /Odtp /ZI
; File d:\!diffusion 2020\source code 2022\client-server\game_shared\vector.h
;	COMDAT ??9Vector@@QBEHABV0@@Z
_TEXT	SEGMENT
tv68 = -72						; size = 4
_this$ = -4						; size = 4
_v$ = 8							; size = 4
??9Vector@@QBEHABV0@@Z PROC				; Vector::operator!=, COMDAT
; _this$ = ecx

; 157  : 	inline int operator!=(const Vector& v) const	{ return !(*this==v);		   }

	push	ebp
	mov	ebp, esp
	sub	esp, 72					; 00000048H
	push	ebx
	push	esi
	push	edi
	mov	DWORD PTR _this$[ebp], ecx
	mov	eax, DWORD PTR _v$[ebp]
	push	eax
	mov	ecx, DWORD PTR _this$[ebp]
	call	??8Vector@@QBEHABV0@@Z			; Vector::operator==
	test	eax, eax
	jne	SHORT $LN3@operator
	mov	DWORD PTR tv68[ebp], 1
	jmp	SHORT $LN4@operator
$LN3@operator:
	mov	DWORD PTR tv68[ebp], 0
$LN4@operator:
	mov	eax, DWORD PTR tv68[ebp]
	pop	edi
	pop	esi
	pop	ebx
	mov	esp, ebp
	pop	ebp
	ret	4
??9Vector@@QBEHABV0@@Z ENDP				; Vector::operator!=
_TEXT	ENDS
; Function compile flags: /Odtp /ZI
; File d:\!diffusion 2020\source code 2022\client-server\game_shared\vector.h
;	COMDAT ??8Vector@@QBEHABV0@@Z
_TEXT	SEGMENT
tv73 = -72						; size = 4
_this$ = -4						; size = 4
_v$ = 8							; size = 4
??8Vector@@QBEHABV0@@Z PROC				; Vector::operator==, COMDAT
; _this$ = ecx

; 156  : 	inline int operator==(const Vector& v) const	{ return x==v.x && y==v.y && z==v.z;	   }

	push	ebp
	mov	ebp, esp
	sub	esp, 72					; 00000048H
	push	ebx
	push	esi
	push	edi
	mov	DWORD PTR _this$[ebp], ecx
	mov	eax, DWORD PTR _this$[ebp]
	mov	ecx, DWORD PTR _v$[ebp]
	movss	xmm0, DWORD PTR [eax]
	ucomiss	xmm0, DWORD PTR [ecx]
	lahf
	test	ah, 68					; 00000044H
	jp	SHORT $LN3@operator
	mov	edx, DWORD PTR _this$[ebp]
	mov	eax, DWORD PTR _v$[ebp]
	movss	xmm0, DWORD PTR [edx+4]
	ucomiss	xmm0, DWORD PTR [eax+4]
	lahf
	test	ah, 68					; 00000044H
	jp	SHORT $LN3@operator
	mov	ecx, DWORD PTR _this$[ebp]
	mov	edx, DWORD PTR _v$[ebp]
	movss	xmm0, DWORD PTR [ecx+8]
	ucomiss	xmm0, DWORD PTR [edx+8]
	lahf
	test	ah, 68					; 00000044H
	jp	SHORT $LN3@operator
	mov	DWORD PTR tv73[ebp], 1
	jmp	SHORT $LN4@operator
$LN3@operator:
	mov	DWORD PTR tv73[ebp], 0
$LN4@operator:
	mov	eax, DWORD PTR tv73[ebp]
	pop	edi
	pop	esi
	pop	ebx
	mov	esp, ebp
	pop	ebp
	ret	4
??8Vector@@QBEHABV0@@Z ENDP				; Vector::operator==
_TEXT	ENDS
; Function compile flags: /Odtp /ZI
; File d:\!diffusion 2020\source code 2022\client-server\game_shared\vector.h
;	COMDAT ??0Vector@@QAE@ABV0@@Z
_TEXT	SEGMENT
_this$ = -4						; size = 4
_v$ = 8							; size = 4
??0Vector@@QAE@ABV0@@Z PROC				; Vector::Vector, COMDAT
; _this$ = ecx

; 145  : 	inline Vector(const Vector& v)		{ x = v.x; y = v.y; z = v.z;		   }

	push	ebp
	mov	ebp, esp
	sub	esp, 68					; 00000044H
	push	ebx
	push	esi
	push	edi
	mov	DWORD PTR _this$[ebp], ecx
	mov	eax, DWORD PTR _this$[ebp]
	mov	ecx, DWORD PTR _v$[ebp]
	mov	edx, DWORD PTR [ecx]
	mov	DWORD PTR [eax], edx
	mov	eax, DWORD PTR _this$[ebp]
	mov	ecx, DWORD PTR _v$[ebp]
	mov	edx, DWORD PTR [ecx+4]
	mov	DWORD PTR [eax+4], edx
	mov	eax, DWORD PTR _this$[ebp]
	mov	ecx, DWORD PTR _v$[ebp]
	mov	edx, DWORD PTR [ecx+8]
	mov	DWORD PTR [eax+8], edx
	mov	eax, DWORD PTR _this$[ebp]
	pop	edi
	pop	esi
	pop	ebx
	mov	esp, ebp
	pop	ebp
	ret	4
??0Vector@@QAE@ABV0@@Z ENDP				; Vector::Vector
_TEXT	ENDS
; Function compile flags: /Odtp /ZI
; File d:\!diffusion 2020\source code 2022\client-server\game_shared\vector.h
;	COMDAT ??0Vector@@QAE@MMM@Z
_TEXT	SEGMENT
_this$ = -4						; size = 4
_X$ = 8							; size = 4
_Y$ = 12						; size = 4
_Z$ = 16						; size = 4
??0Vector@@QAE@MMM@Z PROC				; Vector::Vector, COMDAT
; _this$ = ecx

; 144  : 	inline Vector(float X, float Y, float Z)	{ x = X; y = Y; z = Z;                     }

	push	ebp
	mov	ebp, esp
	sub	esp, 68					; 00000044H
	push	ebx
	push	esi
	push	edi
	mov	DWORD PTR _this$[ebp], ecx
	mov	eax, DWORD PTR _this$[ebp]
	movss	xmm0, DWORD PTR _X$[ebp]
	movss	DWORD PTR [eax], xmm0
	mov	eax, DWORD PTR _this$[ebp]
	movss	xmm0, DWORD PTR _Y$[ebp]
	movss	DWORD PTR [eax+4], xmm0
	mov	eax, DWORD PTR _this$[ebp]
	movss	xmm0, DWORD PTR _Z$[ebp]
	movss	DWORD PTR [eax+8], xmm0
	mov	eax, DWORD PTR _this$[ebp]
	pop	edi
	pop	esi
	pop	ebx
	mov	esp, ebp
	pop	ebp
	ret	12					; 0000000cH
??0Vector@@QAE@MMM@Z ENDP				; Vector::Vector
_TEXT	ENDS
; Function compile flags: /Odtp /ZI
; File d:\!diffusion 2020\source code 2022\client-server\game_shared\vector.h
;	COMDAT ??0Vector@@QAE@XZ
_TEXT	SEGMENT
_this$ = -4						; size = 4
??0Vector@@QAE@XZ PROC					; Vector::Vector, COMDAT
; _this$ = ecx

; 143  : 	inline Vector(void)				{ }

	push	ebp
	mov	ebp, esp
	sub	esp, 68					; 00000044H
	push	ebx
	push	esi
	push	edi
	mov	DWORD PTR _this$[ebp], ecx
	mov	eax, DWORD PTR _this$[ebp]
	pop	edi
	pop	esi
	pop	ebx
	mov	esp, ebp
	pop	ebp
	ret	0
??0Vector@@QAE@XZ ENDP					; Vector::Vector
_TEXT	ENDS
; Function compile flags: /Odtp /ZI
; File d:\!diffusion 2020\source code 2022\client-server\game_shared\vector.h
;	COMDAT ?SinCos@@YAXMPAM0@Z
_TEXT	SEGMENT
_angle$ = 8						; size = 4
_sine$ = 12						; size = 4
_cosine$ = 16						; size = 4
?SinCos@@YAXMPAM0@Z PROC				; SinCos, COMDAT

; 36   : {

	push	ebp
	mov	ebp, esp
	sub	esp, 64					; 00000040H
	push	ebx
	push	esi
	push	edi

; 37   : 	/*
; 38   : 	__asm
; 39   : 	{
; 40   : 		push	ecx
; 41   : 		fld	dword ptr angle
; 42   : 		fsincos
; 43   : 		mov	ecx, dword ptr[cosine]
; 44   : 		fstp      dword ptr [ecx]
; 45   : 		mov 	ecx, dword ptr[sine]
; 46   : 		fstp	dword ptr [ecx]
; 47   : 		pop	ecx
; 48   : 	}*/
; 49   : 	*sine = sin( angle );

	cvtss2sd xmm0, DWORD PTR _angle$[ebp]
	sub	esp, 8
	movsd	QWORD PTR [esp], xmm0
	call	_sin
	add	esp, 8
	mov	eax, DWORD PTR _sine$[ebp]
	fstp	DWORD PTR [eax]

; 50   : 	*cosine = cos( angle );

	cvtss2sd xmm0, DWORD PTR _angle$[ebp]
	sub	esp, 8
	movsd	QWORD PTR [esp], xmm0
	call	_cos
	add	esp, 8
	mov	eax, DWORD PTR _cosine$[ebp]
	fstp	DWORD PTR [eax]

; 51   : }

	pop	edi
	pop	esi
	pop	ebx
	mov	esp, ebp
	pop	ebp
	ret	0
?SinCos@@YAXMPAM0@Z ENDP				; SinCos
_TEXT	ENDS
; Function compile flags: /Odtp /ZI
;	COMDAT ??__G@YGXPAX0IIP6EPAX00@Z@Z
_TEXT	SEGMENT
tv66 = -68						; size = 4
___t$ = 8						; size = 4
___u$ = 12						; size = 4
___s$ = 16						; size = 4
___n$ = 20						; size = 4
___f$ = 24						; size = 4
??__G@YGXPAX0IIP6EPAX00@Z@Z PROC			; `vector copy constructor iterator', COMDAT
	push	ebp
	mov	ebp, esp
	sub	esp, 68					; 00000044H
	push	ebx
	push	esi
	push	edi
$LN2@vector:
	mov	eax, DWORD PTR ___n$[ebp]
	mov	DWORD PTR tv66[ebp], eax
	mov	ecx, DWORD PTR ___n$[ebp]
	sub	ecx, 1
	mov	DWORD PTR ___n$[ebp], ecx
	cmp	DWORD PTR tv66[ebp], 0
	jbe	SHORT $LN1@vector
	mov	eax, DWORD PTR ___u$[ebp]
	push	eax
	mov	ecx, DWORD PTR ___t$[ebp]
	call	DWORD PTR ___f$[ebp]
	mov	eax, DWORD PTR ___t$[ebp]
	add	eax, DWORD PTR ___s$[ebp]
	mov	DWORD PTR ___t$[ebp], eax
	mov	eax, DWORD PTR ___u$[ebp]
	add	eax, DWORD PTR ___s$[ebp]
	mov	DWORD PTR ___u$[ebp], eax
	jmp	SHORT $LN2@vector
$LN1@vector:
	pop	edi
	pop	esi
	pop	ebx
	mov	esp, ebp
	pop	ebp
	ret	20					; 00000014H
??__G@YGXPAX0IIP6EPAX00@Z@Z ENDP			; `vector copy constructor iterator'
_TEXT	ENDS
; Function compile flags: /Odtp /ZI
;	COMDAT ??_H@YGXPAXIIP6EPAX0@Z@Z
_TEXT	SEGMENT
tv66 = -68						; size = 4
___t$ = 8						; size = 4
___s$ = 12						; size = 4
___n$ = 16						; size = 4
___f$ = 20						; size = 4
??_H@YGXPAXIIP6EPAX0@Z@Z PROC				; `vector constructor iterator', COMDAT
	push	ebp
	mov	ebp, esp
	sub	esp, 68					; 00000044H
	push	ebx
	push	esi
	push	edi
$LN2@vector:
	mov	eax, DWORD PTR ___n$[ebp]
	mov	DWORD PTR tv66[ebp], eax
	mov	ecx, DWORD PTR ___n$[ebp]
	sub	ecx, 1
	mov	DWORD PTR ___n$[ebp], ecx
	cmp	DWORD PTR tv66[ebp], 0
	jbe	SHORT $LN1@vector
	mov	ecx, DWORD PTR ___t$[ebp]
	call	DWORD PTR ___f$[ebp]
	mov	eax, DWORD PTR ___t$[ebp]
	add	eax, DWORD PTR ___s$[ebp]
	mov	DWORD PTR ___t$[ebp], eax
	jmp	SHORT $LN2@vector
$LN1@vector:
	pop	edi
	pop	esi
	pop	ebx
	mov	esp, ebp
	pop	ebp
	ret	16					; 00000010H
??_H@YGXPAXIIP6EPAX0@Z@Z ENDP				; `vector constructor iterator'
_TEXT	ENDS
END
