; Listing generated by Microsoft (R) Optimizing Compiler Version 19.00.24247.2 

	TITLE	D:\!DIFFUSION 2020\source code 2022\client-server\game_shared\playermove.cpp
	.686P
	.XMM
	include listing.inc
	.model	flat

INCLUDELIB LIBCMT
INCLUDELIB OLDNAMES

PUBLIC	?pmove@@3PAUplayermove_s@@A			; pmove
PUBLIC	?g_onladder@@3HA				; g_onladder
_BSS	SEGMENT
?pm_shared_initialized@@3HA DD 01H DUP (?)		; pm_shared_initialized
?pmove@@3PAUplayermove_s@@A DD 01H DUP (?)		; pmove
?gcTextures@@3HA DD 01H DUP (?)				; gcTextures
?g_onladder@@3HA DD 01H DUP (?)				; g_onladder
?bTextureTypeInit@?1??PM_InitTextureTypes@@YAXXZ@4HA DD 01H DUP (?) ; `PM_InitTextureTypes'::`2'::bTextureTypeInit
?iSkipStep@?1??PM_PlayStepSound@@YAXHM@Z@4HA DD 01H DUP (?) ; `PM_PlayStepSound'::`2'::iSkipStep
_BSS	ENDS
PUBLIC	??_H@YGXPAXIIP6EPAX0@Z@Z			; `vector constructor iterator'
PUBLIC	??__G@YGXPAX0IIP6EPAX00@Z@Z			; `vector copy constructor iterator'
PUBLIC	?SinCos@@YAXMPAM0@Z				; SinCos
PUBLIC	??0Vector@@QAE@XZ				; Vector::Vector
PUBLIC	??0Vector@@QAE@MMM@Z				; Vector::Vector
PUBLIC	??0Vector@@QAE@ABV0@@Z				; Vector::Vector
PUBLIC	??8Vector@@QBEHABV0@@Z				; Vector::operator==
PUBLIC	??9Vector@@QBEHABV0@@Z				; Vector::operator!=
PUBLIC	??HVector@@QBE?AV0@ABV0@@Z			; Vector::operator+
PUBLIC	??GVector@@QBE?AV0@ABV0@@Z			; Vector::operator-
PUBLIC	??DVector@@QBE?AV0@M@Z				; Vector::operator*
PUBLIC	??YVector@@QAEAAV0@ABV0@@Z			; Vector::operator+=
PUBLIC	??ZVector@@QAEAAV0@ABV0@@Z			; Vector::operator-=
PUBLIC	??XVector@@QAEAAV0@M@Z				; Vector::operator*=
PUBLIC	?Length@Vector@@QBEMXZ				; Vector::Length
PUBLIC	??BVector@@QAEPAMXZ				; Vector::operator float *
PUBLIC	??BVector@@QBEPBMXZ				; Vector::operator float const *
PUBLIC	?Normalize@Vector@@QBE?AV1@XZ			; Vector::Normalize
PUBLIC	??D@YA?AVVector@@MABV0@@Z			; operator*
PUBLIC	?DotProduct@@YAMABVVector@@0@Z			; DotProduct
PUBLIC	?CrossProduct@@YA?AVVector@@ABV1@0@Z		; CrossProduct
PUBLIC	??0Vector4D@@QAE@XZ				; Vector4D::Vector4D
PUBLIC	??BVector4D@@QAEPAMXZ				; Vector4D::operator float *
PUBLIC	??0matrix4x4@@QAE@ABVVector@@0M@Z		; matrix4x4::matrix4x4
PUBLIC	??0plane_s@@QAE@XZ				; plane_s::plane_s
PUBLIC	??0trace_s@@QAE@XZ				; trace_s::trace_s
PUBLIC	??0pmplane_t@@QAE@XZ				; pmplane_t::pmplane_t
PUBLIC	??0pmplane_t@@QAE@ABU0@@Z			; pmplane_t::pmplane_t
PUBLIC	??0pmplane_t@@QAE@$$QAU0@@Z			; pmplane_t::pmplane_t
PUBLIC	??0pmtrace_s@@QAE@XZ				; pmtrace_s::pmtrace_s
PUBLIC	??0pmtrace_s@@QAE@ABU0@@Z			; pmtrace_s::pmtrace_s
PUBLIC	??0pmtrace_s@@QAE@$$QAU0@@Z			; pmtrace_s::pmtrace_s
PUBLIC	?strstr@@YAPADQADQBD@Z				; strstr
PUBLIC	?PM_SwapTextures@@YAXHH@Z			; PM_SwapTextures
PUBLIC	??$strcpy_s@$0BI@@@YAHAAY0BI@DPBD@Z		; strcpy_s<24>
PUBLIC	?PM_SortTextures@@YAXXZ				; PM_SortTextures
PUBLIC	?PM_ParticleLine@@YAXVVector@@0H@Z		; PM_ParticleLine
PUBLIC	?PM_InitTextureTypes@@YAXXZ			; PM_InitTextureTypes
PUBLIC	?PM_FindTextureType@@YADPAD@Z			; PM_FindTextureType
PUBLIC	?PM_PlayGroupSound@@YAXPBDHM@Z			; PM_PlayGroupSound
PUBLIC	??$strcpy_s@$0IA@@@YAHAAY0IA@DPBD@Z		; strcpy_s<128>
PUBLIC	?PM_PlayStepSound@@YAXHM@Z			; PM_PlayStepSound
PUBLIC	?PM_MapTextureTypeStepType@@YAHD@Z		; PM_MapTextureTypeStepType
PUBLIC	?PM_CategorizeTextureType@@YAXXZ		; PM_CategorizeTextureType
PUBLIC	?PM_UpdateStepSound@@YAXH@Z			; PM_UpdateStepSound
PUBLIC	?PM_AddToTouched@@YAHUpmtrace_s@@VVector@@@Z	; PM_AddToTouched
PUBLIC	?PM_CheckVelocity@@YAXXZ			; PM_CheckVelocity
PUBLIC	?PM_ClipVelocity@@YAHVVector@@0AAV1@M@Z		; PM_ClipVelocity
PUBLIC	?PM_AddCorrectGravity@@YAXXZ			; PM_AddCorrectGravity
PUBLIC	?PM_FixupGravityVelocity@@YAXXZ			; PM_FixupGravityVelocity
PUBLIC	?PM_FlyMove@@YAHXZ				; PM_FlyMove
PUBLIC	?PM_Accelerate@@YAXVVector@@MM@Z		; PM_Accelerate
PUBLIC	?PM_WalkMove@@YAXXZ				; PM_WalkMove
PUBLIC	?PM_Friction@@YAXXZ				; PM_Friction
PUBLIC	?PM_AirAccelerate@@YAXVVector@@MM@Z		; PM_AirAccelerate
PUBLIC	?PM_WaterMove@@YAXXZ				; PM_WaterMove
PUBLIC	?PM_AirMove@@YAXXZ				; PM_AirMove
PUBLIC	?PM_InWater@@YAHXZ				; PM_InWater
PUBLIC	?PM_CheckWater@@YAHXZ				; PM_CheckWater
PUBLIC	?PM_NoClip@@YAXXZ				; PM_NoClip
PUBLIC	?PM_CategorizePosition@@YAXXZ			; PM_CategorizePosition
PUBLIC	?PM_GetRandomStuckOffsets@@YAHHHAAVVector@@@Z	; PM_GetRandomStuckOffsets
PUBLIC	?PM_ResetStuckOffsets@@YAXHH@Z			; PM_ResetStuckOffsets
PUBLIC	?PM_CheckStuck@@YAHXZ				; PM_CheckStuck
PUBLIC	?PM_SpectatorMove@@YAXXZ			; PM_SpectatorMove
PUBLIC	?PM_SplineFraction@@YAMMM@Z			; PM_SplineFraction
PUBLIC	?PM_FixPlayerCrouchStuck@@YAXH@Z		; PM_FixPlayerCrouchStuck
PUBLIC	?PM_UnDuck@@YAXXZ				; PM_UnDuck
PUBLIC	?PM_Duck@@YAXXZ					; PM_Duck
PUBLIC	?PM_LadderMove@@YAXPAUphysent_s@@@Z		; PM_LadderMove
PUBLIC	?PM_Ladder@@YAPAUphysent_s@@XZ			; PM_Ladder
PUBLIC	?PM_WaterJump@@YAXXZ				; PM_WaterJump
PUBLIC	?PM_AddGravity@@YAXXZ				; PM_AddGravity
PUBLIC	?PM_PushEntity@@YA?AUpmtrace_s@@ABVVector@@@Z	; PM_PushEntity
PUBLIC	?PM_Physics_Toss@@YAXXZ				; PM_Physics_Toss
PUBLIC	?PM_PreventMegaBunnyJumping@@YAXXZ		; PM_PreventMegaBunnyJumping
PUBLIC	?PM_Jump@@YAXXZ					; PM_Jump
PUBLIC	?PM_CheckWaterJump@@YAXXZ			; PM_CheckWaterJump
PUBLIC	?PM_CheckFalling@@YAXXZ				; PM_CheckFalling
PUBLIC	?PM_PlayWaterSounds@@YAXXZ			; PM_PlayWaterSounds
PUBLIC	?PM_CalcRoll@@YAMVVector@@0MM@Z			; PM_CalcRoll
PUBLIC	?PM_DropPunchAngle@@YAXAAVVector@@@Z		; PM_DropPunchAngle
PUBLIC	?PM_CheckParameters@@YAXXZ			; PM_CheckParameters
PUBLIC	?PM_ReduceTimers@@YAXXZ				; PM_ReduceTimers
PUBLIC	?PM_PlayerMove@@YAXH@Z				; PM_PlayerMove
PUBLIC	?PM_CreateStuckTable@@YAXXZ			; PM_CreateStuckTable
PUBLIC	?PM_Move@@YAXPAUplayermove_s@@H@Z		; PM_Move
PUBLIC	?PM_GetVisEntInfo@@YAHH@Z			; PM_GetVisEntInfo
PUBLIC	?PM_GetPhysEntInfo@@YAHH@Z			; PM_GetPhysEntInfo
PUBLIC	?PM_Init@@YAXPAUplayermove_s@@@Z		; PM_Init
PUBLIC	??_C@_0BD@EJFPBDDL@data?1materials?4txt?$AA@	; `string'
PUBLIC	??_C@_02CBLDBPFN@?1?1?$AA@			; `string'
PUBLIC	?__LINE__Var@?0??PM_FindTextureType@@YADPAD@Z@4JA ; `PM_FindTextureType'::`1'::__LINE__Var
PUBLIC	??_C@_1JK@HGLHDLOI@?$AAd?$AA?3?$AA?2?$AA?$CB?$AAd?$AAi?$AAf?$AAf?$AAu?$AAs?$AAi?$AAo?$AAn?$AA?5?$AA2?$AA0?$AA2?$AA0?$AA?2?$AAs?$AAo?$AAu?$AAr?$AAc?$AAe?$AA?5?$AAc?$AAo?$AAd?$AAe?$AA?5?$AA2@ ; `string'
PUBLIC	??_C@_1CM@MFEIHPMD@?$AAp?$AAm?$AA_?$AAs?$AAh?$AAa?$AAr?$AAe?$AAd?$AA_?$AAi?$AAn?$AAi?$AAt?$AAi?$AAa?$AAl?$AAi?$AAz?$AAe?$AAd?$AA?$AA@ ; `string'
PUBLIC	??_C@_0BE@EILPPNKE@footsteps?1step1?4wav?$AA@	; `string'
PUBLIC	??_C@_0BE@MOCLIPAK@footsteps?1step2?4wav?$AA@	; `string'
PUBLIC	??_C@_0BE@FHHFMKP@footsteps?1step3?4wav?$AA@	; `string'
PUBLIC	??_C@_0BE@BIHCGMBH@footsteps?1step4?4wav?$AA@	; `string'
PUBLIC	??_C@_0BE@NDCOLPLC@footsteps?1step5?4wav?$AA@	; `string'
PUBLIC	??_C@_0BE@FFLKMNBM@footsteps?1step6?4wav?$AA@	; `string'
PUBLIC	??_C@_0BF@HOEKEMNF@footsteps?1metal1?4wav?$AA@	; `string'
PUBLIC	??_C@_0BF@DDICONNO@footsteps?1metal3?4wav?$AA@	; `string'
PUBLIC	??_C@_0BF@PINODOHL@footsteps?1metal2?4wav?$AA@	; `string'
PUBLIC	??_C@_0BF@COIHNNGG@footsteps?1metal4?4wav?$AA@	; `string'
PUBLIC	??_C@_0BE@FCHDNODC@footsteps?1dirt1?4wav?$AA@	; `string'
PUBLIC	??_C@_0BE@BPLLHPDJ@footsteps?1dirt3?4wav?$AA@	; `string'
PUBLIC	??_C@_0BE@NEOHKMJM@footsteps?1dirt2?4wav?$AA@	; `string'
PUBLIC	??_C@_0BE@CLOEPIB@footsteps?1dirt4?4wav?$AA@	; `string'
PUBLIC	??_C@_0BE@KIJGFOOC@footsteps?1duct1?4wav?$AA@	; `string'
PUBLIC	??_C@_0BE@OFFOPPOJ@footsteps?1duct3?4wav?$AA@	; `string'
PUBLIC	??_C@_0BE@COACCMEM@footsteps?1duct2?4wav?$AA@	; `string'
PUBLIC	??_C@_0BE@PIFLMPFB@footsteps?1duct4?4wav?$AA@	; `string'
PUBLIC	??_C@_0BF@BOADPDGC@footsteps?1grate1?4wav?$AA@	; `string'
PUBLIC	??_C@_0BF@FDMLFCGJ@footsteps?1grate3?4wav?$AA@	; `string'
PUBLIC	??_C@_0BF@JIJHIBMM@footsteps?1grate2?4wav?$AA@	; `string'
PUBLIC	??_C@_0BF@EOMOGCNB@footsteps?1grate4?4wav?$AA@	; `string'
PUBLIC	??_C@_0BE@NNEFOLLJ@footsteps?1tile1?4wav?$AA@	; `string'
PUBLIC	??_C@_0BE@JAINEKLC@footsteps?1tile3?4wav?$AA@	; `string'
PUBLIC	??_C@_0BE@FLNBJJBH@footsteps?1tile2?4wav?$AA@	; `string'
PUBLIC	??_C@_0BE@INIIHKAK@footsteps?1tile4?4wav?$AA@	; `string'
PUBLIC	??_C@_0BE@EGNEKJKP@footsteps?1tile5?4wav?$AA@	; `string'
PUBLIC	??_C@_0BF@JKJLEGDL@footsteps?1slosh1?4wav?$AA@	; `string'
PUBLIC	??_C@_0BF@NHFDOHDA@footsteps?1slosh3?4wav?$AA@	; `string'
PUBLIC	??_C@_0BF@BMAPDEJF@footsteps?1slosh2?4wav?$AA@	; `string'
PUBLIC	??_C@_0BF@MKFGNHII@footsteps?1slosh4?4wav?$AA@	; `string'
PUBLIC	??_C@_0BE@FOEPOJBH@footsteps?1wade1?4wav?$AA@	; `string'
PUBLIC	??_C@_0BE@NINLJLLJ@footsteps?1wade2?4wav?$AA@	; `string'
PUBLIC	??_C@_0BE@BDIHEIBM@footsteps?1wade3?4wav?$AA@	; `string'
PUBLIC	??_C@_0BE@OICHIKE@footsteps?1wade4?4wav?$AA@	; `string'
PUBLIC	??_C@_0BG@INDJNKA@footsteps?1ladder1?4wav?$AA@	; `string'
PUBLIC	??_C@_0BG@EFBLDMKL@footsteps?1ladder3?4wav?$AA@	; `string'
PUBLIC	??_C@_0BG@IOEHOPAO@footsteps?1ladder2?4wav?$AA@	; `string'
PUBLIC	??_C@_0BG@FIBOAMBD@footsteps?1ladder4?4wav?$AA@	; `string'
PUBLIC	??_C@_0BL@LKCEGKKB@footsteps?1ladder_wood1?4wav?$AA@ ; `string'
PUBLIC	??_C@_0BL@PHOMMLKK@footsteps?1ladder_wood3?4wav?$AA@ ; `string'
PUBLIC	??_C@_0BL@DMLABIAP@footsteps?1ladder_wood2?4wav?$AA@ ; `string'
PUBLIC	??_C@_0BL@OKOJPLBC@footsteps?1ladder_wood4?4wav?$AA@ ; `string'
PUBLIC	??_C@_0BE@GNJACFGH@footsteps?1wood1?4wav?$AA@	; `string'
PUBLIC	??_C@_0BE@OLAEFHMJ@footsteps?1wood2?4wav?$AA@	; `string'
PUBLIC	??_C@_0BE@CAFIIEGM@footsteps?1wood3?4wav?$AA@	; `string'
PUBLIC	??_C@_0BE@DNFNLENE@footsteps?1wood4?4wav?$AA@	; `string'
PUBLIC	??_C@_0BE@PGABGHHB@footsteps?1wood5?4wav?$AA@	; `string'
PUBLIC	??_C@_0BE@HAJFBFNP@footsteps?1wood6?4wav?$AA@	; `string'
PUBLIC	??_C@_0BE@CFDGBHAN@footsteps?1snow1?4wav?$AA@	; `string'
PUBLIC	??_C@_0BE@KDKCGFKD@footsteps?1snow2?4wav?$AA@	; `string'
PUBLIC	??_C@_0BE@GIPOLGAG@footsteps?1snow3?4wav?$AA@	; `string'
PUBLIC	??_C@_0BE@HFPLIGLO@footsteps?1snow4?4wav?$AA@	; `string'
PUBLIC	??_C@_0BE@LOKHFFBL@footsteps?1snow5?4wav?$AA@	; `string'
PUBLIC	??_C@_0BE@DIDDCHLF@footsteps?1snow6?4wav?$AA@	; `string'
PUBLIC	??_C@_0BG@MCALNFDJ@footsteps?1carpet1?4wav?$AA@	; `string'
PUBLIC	??_C@_0BG@EEJPKHJH@footsteps?1carpet2?4wav?$AA@	; `string'
PUBLIC	??_C@_0BG@IPMDHEDC@footsteps?1carpet3?4wav?$AA@	; `string'
PUBLIC	??_C@_0BG@JCMGEEIK@footsteps?1carpet4?4wav?$AA@	; `string'
PUBLIC	??_C@_0BG@FJJKJHCP@footsteps?1carpet5?4wav?$AA@	; `string'
PUBLIC	??_C@_0BG@NPAOOFIB@footsteps?1carpet6?4wav?$AA@	; `string'
PUBLIC	??_C@_0BF@BAMIFDIP@footsteps?1grass1?4wav?$AA@	; `string'
PUBLIC	??_C@_0BF@JGFMCBCB@footsteps?1grass2?4wav?$AA@	; `string'
PUBLIC	??_C@_0BF@FNAAPCIE@footsteps?1grass3?4wav?$AA@	; `string'
PUBLIC	??_C@_0BF@EAAFMCDM@footsteps?1grass4?4wav?$AA@	; `string'
PUBLIC	??_C@_0BF@ILFJBBJJ@footsteps?1grass5?4wav?$AA@	; `string'
PUBLIC	??_C@_0BF@NMNGDDH@footsteps?1grass6?4wav?$AA@	; `string'
PUBLIC	??_C@_0BG@BNKLNNEE@footsteps?1gravel1?4wav?$AA@	; `string'
PUBLIC	??_C@_0BG@JLDPKPOK@footsteps?1gravel2?4wav?$AA@	; `string'
PUBLIC	??_C@_0BG@FAGDHMEP@footsteps?1gravel3?4wav?$AA@	; `string'
PUBLIC	??_C@_0BG@ENGGEMPH@footsteps?1gravel4?4wav?$AA@	; `string'
PUBLIC	??_C@_0BG@IGDKJPFC@footsteps?1gravel5?4wav?$AA@	; `string'
PUBLIC	??_C@_0BG@KOONPM@footsteps?1gravel6?4wav?$AA@	; `string'
PUBLIC	??_C@_0BF@CJKPOCNE@footsteps?1glass1?4wav?$AA@	; `string'
PUBLIC	??_C@_0BF@KPDLJAHK@footsteps?1glass2?4wav?$AA@	; `string'
PUBLIC	??_C@_0BF@GEGHEDNP@footsteps?1glass3?4wav?$AA@	; `string'
PUBLIC	??_C@_0BF@HJGCHDGH@footsteps?1glass4?4wav?$AA@	; `string'
PUBLIC	??_C@_0BF@LCDOKAMC@footsteps?1glass5?4wav?$AA@	; `string'
PUBLIC	??_C@_0BF@DEKKNCGM@footsteps?1glass6?4wav?$AA@	; `string'
PUBLIC	??_C@_0CB@CNILIGKA@Too?5many?5entities?5were?5touched?$CB?6@ ; `string'
PUBLIC	??_C@_0BL@ODOJHMIN@PM?5?5Got?5a?5NaN?5velocity?5?$CFi?6?$AA@ ; `string'
PUBLIC	??_C@_0BM@IKDFNEMI@PM?5?5Got?5a?5NaN?5origin?5on?5?$CFi?6?$AA@ ; `string'
PUBLIC	??_C@_0CD@BDBMHNGO@PM?5?5Got?5a?5velocity?5too?5high?5on?5?$CF@ ; `string'
PUBLIC	??_C@_0CC@OFBNMFAF@PM?5?5Got?5a?5velocity?5too?5low?5on?5?$CFi@ ; `string'
PUBLIC	??_C@_03DIGMJINO@tfc?$AA@			; `string'
PUBLIC	??_C@_03HJOOJOPI@slj?$AA@			; `string'
PUBLIC	??_C@_0BF@OKBOBHDH@player?1fallpain1?4wav?$AA@	; `string'
PUBLIC	??_C@_0BF@GMIKGFJJ@player?1fallpain2?4wav?$AA@	; `string'
PUBLIC	??_C@_0BI@PLJFMNJG@player?1pl_fallpain3?4wav?$AA@ ; `string'
PUBLIC	??_C@_0DC@MKOCNFCM@Bogus?5pmove?5player?5movetype?5?$CFi?5o@ ; `string'
PUBLIC	?__LINE__Var@?0??PM_CreateStuckTable@@YAXXZ@4JA	; `PM_CreateStuckTable'::`1'::__LINE__Var
PUBLIC	??_C@_1HO@FIDBPDJD@?$AAi?$AAd?$AAx?$AA?5?$AA?$DM?$AA?5?$AAs?$AAi?$AAz?$AAe?$AAo?$AAf?$AA?$CI?$AA?5?$AAr?$AAg?$AAv?$AA3?$AAt?$AAS?$AAt?$AAu?$AAc?$AAk?$AAT?$AAa?$AAb?$AAl?$AAe?$AA?5?$AA?$CJ?$AA?5@ ; `string'
PUBLIC	?__LINE__Var@?0??PM_Move@@YAXPAUplayermove_s@@H@Z@4JA ; `PM_Move'::`1'::__LINE__Var
PUBLIC	?__LINE__Var@?0??PM_Init@@YAXPAUplayermove_s@@@Z@4JA ; `PM_Init'::`1'::__LINE__Var
PUBLIC	??_C@_1CO@MDBAMMIO@?$AA?$CB?$AAp?$AAm?$AA_?$AAs?$AAh?$AAa?$AAr?$AAe?$AAd?$AA_?$AAi?$AAn?$AAi?$AAt?$AAi?$AAa?$AAl?$AAi?$AAz?$AAe?$AAd?$AA?$AA@ ; `string'
PUBLIC	__real@00000000
PUBLIC	__real@0000000000000000
PUBLIC	__real@3d4ccccd
PUBLIC	__real@3dcccccd
PUBLIC	__real@3eaa7efa
PUBLIC	__real@3f000000
PUBLIC	__real@3f266666
PUBLIC	__real@3f333333
PUBLIC	__real@3f400000
PUBLIC	__real@3f4ccccd
PUBLIC	__real@3f50624dd2f1a9fc
PUBLIC	__real@3f59999a
PUBLIC	__real@3f666666
PUBLIC	__real@3f70624dd2f1a9fc
PUBLIC	__real@3f800000
PUBLIC	__real@3f8c28f6
PUBLIC	__real@3f91df46a2529d39
PUBLIC	__real@3fb999999999999a
PUBLIC	__real@3fb99999a0000000
PUBLIC	__real@3fc0000000000000
PUBLIC	__real@3fc3333333333333
PUBLIC	__real@3fc999999999999a
PUBLIC	__real@3fd0000000000000
PUBLIC	__real@3fd3333333333333
PUBLIC	__real@3fd54fdf3b645a1d
PUBLIC	__real@3fd6666666666666
PUBLIC	__real@3fd999999999999a
PUBLIC	__real@3fd9999a
PUBLIC	__real@3fe0000000000000
PUBLIC	__real@3fe199999999999a
PUBLIC	__real@3fe3333333333333
PUBLIC	__real@3fe4cccccccccccd
PUBLIC	__real@3fe6666666666666
PUBLIC	__real@3fe999999999999a
PUBLIC	__real@3ff0000000000000
PUBLIC	__real@3ff599999999999a
PUBLIC	__real@3ff999999999999a
PUBLIC	__real@40000000
PUBLIC	__real@4000000000000000
PUBLIC	__real@40200000
PUBLIC	__real@40400000
PUBLIC	__real@404fa28f5c28f5c3
PUBLIC	__real@4067c00000000000
PUBLIC	__real@40800000
PUBLIC	__real@408f400000000000
PUBLIC	__real@40a00000
PUBLIC	__real@40c00000
PUBLIC	__real@40f1940000000000
PUBLIC	__real@40f5e00000000000
PUBLIC	__real@41000000
PUBLIC	__real@41100000
PUBLIC	__real@41800000
PUBLIC	__real@41900000
PUBLIC	__real@41a00000
PUBLIC	__real@41c00000
PUBLIC	__real@41c80000
PUBLIC	__real@41f00000
PUBLIC	__real@42080000
PUBLIC	__real@42480000
PUBLIC	__real@42700000
PUBLIC	__real@42820000
PUBLIC	__real@42a00000
PUBLIC	__real@42b20000
PUBLIC	__real@42c80000
PUBLIC	__real@42f00000
PUBLIC	__real@43070000
PUBLIC	__real@43330000
PUBLIC	__real@43340000
PUBLIC	__real@433e0000
PUBLIC	__real@43480000
PUBLIC	__real@43520000
PUBLIC	__real@43610000
PUBLIC	__real@437a0000
PUBLIC	__real@43870000
PUBLIC	__real@43960000
PUBLIC	__real@43af0000
PUBLIC	__real@43b40000
PUBLIC	__real@43fa0000
PUBLIC	__real@44610000
PUBLIC	__real@447a0000
PUBLIC	__real@44fa0000
PUBLIC	__real@461c4000
PUBLIC	__real@bdcccccd
PUBLIC	__real@be000000
PUBLIC	__real@bf800000
PUBLIC	__real@bfb99999a0000000
PUBLIC	__real@bfe6666666666666
PUBLIC	__real@c0000000
PUBLIC	__real@c0a00000
PUBLIC	__real@c1000000
PUBLIC	__real@c1900000
PUBLIC	__real@c1a00000
PUBLIC	__real@c2480000
PUBLIC	__real@c2b20000
PUBLIC	__real@c3330000
PUBLIC	__real@c3340000
PUBLIC	__xmm@80000000800000008000000080000000
EXTRN	___report_rangecheckfailure:PROC
EXTRN	__Init_thread_header:PROC
EXTRN	__Init_thread_abort:PROC
EXTRN	__Init_thread_footer:PROC
EXTRN	__wassert:PROC
EXTRN	_cos:PROC
EXTRN	_fabs:PROC
EXTRN	_sin:PROC
EXTRN	_sqrt:PROC
EXTRN	_atoi:PROC
EXTRN	?VectorITransform@matrix4x4@@QBE?AVVector@@ABV2@@Z:PROC ; matrix4x4::VectorITransform
EXTRN	_memset:PROC
EXTRN	_strstr:PROC
EXTRN	_strcpy_s:PROC
EXTRN	_strcpy:PROC
EXTRN	_isalpha:PROC
EXTRN	_isspace:PROC
EXTRN	_toupper:PROC
EXTRN	?Q_strnicmp@@YAHPBD0H@Z:PROC			; Q_strnicmp
EXTRN	?R_MakeWaterSplash@@YAXVVector@@0H@Z:PROC	; R_MakeWaterSplash
EXTRN	?WaterSplashParticle@CQuakePartSystem@@QAEXHABVVector@@@Z:PROC ; CQuakePartSystem::WaterSplashParticle
EXTRN	@__security_check_cookie@4:PROC
EXTRN	___CxxFrameHandler3:PROC
EXTRN	__Init_thread_epoch:DWORD
EXTRN	?g_vecZero@@3VVector@@B:BYTE			; g_vecZero
EXTRN	?gEngfuncs@@3Ucl_enginefuncs_s@@A:BYTE		; gEngfuncs
EXTRN	?tr@@3Uref_globals_t@@A:BYTE			; tr
EXTRN	?g_pParticles@@3VCQuakePartSystem@@A:BYTE	; g_pParticles
EXTRN	___security_cookie:DWORD
EXTRN	__fltused:DWORD
EXTRN	__tls_array:DWORD
EXTRN	__tls_index:DWORD
_BSS	SEGMENT
?rgv3tStuckTable@@3PAVVector@@A DB 0288H DUP (?)	; rgv3tStuckTable
?rgStuckLast@@3PAY01HA DD 040H DUP (?)			; rgStuckLast
?rgStuckCheckTime@@3PAY01MA DD 040H DUP (?)		; rgStuckCheckTime
?grgszTextureName@@3PAY0BI@DA DB 06000H DUP (?)		; grgszTextureName
?grgchTextureType@@3PADA DB 0400H DUP (?)		; grgchTextureType
?szBuf@?1??PM_PlayGroupSound@@YAXPBDHM@Z@4PADA DB 080H DUP (?) ; `PM_PlayGroupSound'::`2'::szBuf
?current_table@?BA@??PM_CheckWater@@YAHXZ@4PAVVector@@A DB 048H DUP (?) ; `PM_CheckWater'::`16'::current_table
?$TSS0@?BA@??PM_CheckWater@@YAHXZ@4HA DD 01H DUP (?)	; `PM_CheckWater'::`16'::$TSS0
_BSS	ENDS
CRT$XCU	SEGMENT
?rgv3tStuckTable$initializer$@@3P6AXXZA DD FLAT:??__Ergv3tStuckTable@@YAXXZ ; rgv3tStuckTable$initializer$
CRT$XCU	ENDS
;	COMDAT __xmm@80000000800000008000000080000000
CONST	SEGMENT
__xmm@80000000800000008000000080000000 DB 00H, 00H, 00H, 080H, 00H, 00H, 00H
	DB	080H, 00H, 00H, 00H, 080H, 00H, 00H, 00H, 080H
CONST	ENDS
;	COMDAT __real@c3340000
CONST	SEGMENT
__real@c3340000 DD 0c3340000r			; -180
CONST	ENDS
;	COMDAT __real@c3330000
CONST	SEGMENT
__real@c3330000 DD 0c3330000r			; -179
CONST	ENDS
;	COMDAT __real@c2b20000
CONST	SEGMENT
__real@c2b20000 DD 0c2b20000r			; -89
CONST	ENDS
;	COMDAT __real@c2480000
CONST	SEGMENT
__real@c2480000 DD 0c2480000r			; -50
CONST	ENDS
;	COMDAT __real@c1a00000
CONST	SEGMENT
__real@c1a00000 DD 0c1a00000r			; -20
CONST	ENDS
;	COMDAT __real@c1900000
CONST	SEGMENT
__real@c1900000 DD 0c1900000r			; -18
CONST	ENDS
;	COMDAT __real@c1000000
CONST	SEGMENT
__real@c1000000 DD 0c1000000r			; -8
CONST	ENDS
;	COMDAT __real@c0a00000
CONST	SEGMENT
__real@c0a00000 DD 0c0a00000r			; -5
CONST	ENDS
;	COMDAT __real@c0000000
CONST	SEGMENT
__real@c0000000 DD 0c0000000r			; -2
CONST	ENDS
;	COMDAT __real@bfe6666666666666
CONST	SEGMENT
__real@bfe6666666666666 DQ 0bfe6666666666666r	; -0.7
CONST	ENDS
;	COMDAT __real@bfb99999a0000000
CONST	SEGMENT
__real@bfb99999a0000000 DQ 0bfb99999a0000000r	; -0.1
CONST	ENDS
;	COMDAT __real@bf800000
CONST	SEGMENT
__real@bf800000 DD 0bf800000r			; -1
CONST	ENDS
;	COMDAT __real@be000000
CONST	SEGMENT
__real@be000000 DD 0be000000r			; -0.125
CONST	ENDS
;	COMDAT __real@bdcccccd
CONST	SEGMENT
__real@bdcccccd DD 0bdcccccdr			; -0.1
CONST	ENDS
;	COMDAT __real@461c4000
CONST	SEGMENT
__real@461c4000 DD 0461c4000r			; 10000
CONST	ENDS
;	COMDAT __real@44fa0000
CONST	SEGMENT
__real@44fa0000 DD 044fa0000r			; 2000
CONST	ENDS
;	COMDAT __real@447a0000
CONST	SEGMENT
__real@447a0000 DD 0447a0000r			; 1000
CONST	ENDS
;	COMDAT __real@44610000
CONST	SEGMENT
__real@44610000 DD 044610000r			; 900
CONST	ENDS
;	COMDAT __real@43fa0000
CONST	SEGMENT
__real@43fa0000 DD 043fa0000r			; 500
CONST	ENDS
;	COMDAT __real@43b40000
CONST	SEGMENT
__real@43b40000 DD 043b40000r			; 360
CONST	ENDS
;	COMDAT __real@43af0000
CONST	SEGMENT
__real@43af0000 DD 043af0000r			; 350
CONST	ENDS
;	COMDAT __real@43960000
CONST	SEGMENT
__real@43960000 DD 043960000r			; 300
CONST	ENDS
;	COMDAT __real@43870000
CONST	SEGMENT
__real@43870000 DD 043870000r			; 270
CONST	ENDS
;	COMDAT __real@437a0000
CONST	SEGMENT
__real@437a0000 DD 0437a0000r			; 250
CONST	ENDS
;	COMDAT __real@43610000
CONST	SEGMENT
__real@43610000 DD 043610000r			; 225
CONST	ENDS
;	COMDAT __real@43520000
CONST	SEGMENT
__real@43520000 DD 043520000r			; 210
CONST	ENDS
;	COMDAT __real@43480000
CONST	SEGMENT
__real@43480000 DD 043480000r			; 200
CONST	ENDS
;	COMDAT __real@433e0000
CONST	SEGMENT
__real@433e0000 DD 0433e0000r			; 190
CONST	ENDS
;	COMDAT __real@43340000
CONST	SEGMENT
__real@43340000 DD 043340000r			; 180
CONST	ENDS
;	COMDAT __real@43330000
CONST	SEGMENT
__real@43330000 DD 043330000r			; 179
CONST	ENDS
;	COMDAT __real@43070000
CONST	SEGMENT
__real@43070000 DD 043070000r			; 135
CONST	ENDS
;	COMDAT __real@42f00000
CONST	SEGMENT
__real@42f00000 DD 042f00000r			; 120
CONST	ENDS
;	COMDAT __real@42c80000
CONST	SEGMENT
__real@42c80000 DD 042c80000r			; 100
CONST	ENDS
;	COMDAT __real@42b20000
CONST	SEGMENT
__real@42b20000 DD 042b20000r			; 89
CONST	ENDS
;	COMDAT __real@42a00000
CONST	SEGMENT
__real@42a00000 DD 042a00000r			; 80
CONST	ENDS
;	COMDAT __real@42820000
CONST	SEGMENT
__real@42820000 DD 042820000r			; 65
CONST	ENDS
;	COMDAT __real@42700000
CONST	SEGMENT
__real@42700000 DD 042700000r			; 60
CONST	ENDS
;	COMDAT __real@42480000
CONST	SEGMENT
__real@42480000 DD 042480000r			; 50
CONST	ENDS
;	COMDAT __real@42080000
CONST	SEGMENT
__real@42080000 DD 042080000r			; 34
CONST	ENDS
;	COMDAT __real@41f00000
CONST	SEGMENT
__real@41f00000 DD 041f00000r			; 30
CONST	ENDS
;	COMDAT __real@41c80000
CONST	SEGMENT
__real@41c80000 DD 041c80000r			; 25
CONST	ENDS
;	COMDAT __real@41c00000
CONST	SEGMENT
__real@41c00000 DD 041c00000r			; 24
CONST	ENDS
;	COMDAT __real@41a00000
CONST	SEGMENT
__real@41a00000 DD 041a00000r			; 20
CONST	ENDS
;	COMDAT __real@41900000
CONST	SEGMENT
__real@41900000 DD 041900000r			; 18
CONST	ENDS
;	COMDAT __real@41800000
CONST	SEGMENT
__real@41800000 DD 041800000r			; 16
CONST	ENDS
;	COMDAT __real@41100000
CONST	SEGMENT
__real@41100000 DD 041100000r			; 9
CONST	ENDS
;	COMDAT __real@41000000
CONST	SEGMENT
__real@41000000 DD 041000000r			; 8
CONST	ENDS
;	COMDAT __real@40f5e00000000000
CONST	SEGMENT
__real@40f5e00000000000 DQ 040f5e00000000000r	; 89600
CONST	ENDS
;	COMDAT __real@40f1940000000000
CONST	SEGMENT
__real@40f1940000000000 DQ 040f1940000000000r	; 72000
CONST	ENDS
;	COMDAT __real@40c00000
CONST	SEGMENT
__real@40c00000 DD 040c00000r			; 6
CONST	ENDS
;	COMDAT __real@40a00000
CONST	SEGMENT
__real@40a00000 DD 040a00000r			; 5
CONST	ENDS
;	COMDAT __real@408f400000000000
CONST	SEGMENT
__real@408f400000000000 DQ 0408f400000000000r	; 1000
CONST	ENDS
;	COMDAT __real@40800000
CONST	SEGMENT
__real@40800000 DD 040800000r			; 4
CONST	ENDS
;	COMDAT __real@4067c00000000000
CONST	SEGMENT
__real@4067c00000000000 DQ 04067c00000000000r	; 190
CONST	ENDS
;	COMDAT __real@404fa28f5c28f5c3
CONST	SEGMENT
__real@404fa28f5c28f5c3 DQ 0404fa28f5c28f5c3r	; 63.27
CONST	ENDS
;	COMDAT __real@40400000
CONST	SEGMENT
__real@40400000 DD 040400000r			; 3
CONST	ENDS
;	COMDAT __real@40200000
CONST	SEGMENT
__real@40200000 DD 040200000r			; 2.5
CONST	ENDS
;	COMDAT __real@4000000000000000
CONST	SEGMENT
__real@4000000000000000 DQ 04000000000000000r	; 2
CONST	ENDS
;	COMDAT __real@40000000
CONST	SEGMENT
__real@40000000 DD 040000000r			; 2
CONST	ENDS
;	COMDAT __real@3ff999999999999a
CONST	SEGMENT
__real@3ff999999999999a DQ 03ff999999999999ar	; 1.6
CONST	ENDS
;	COMDAT __real@3ff599999999999a
CONST	SEGMENT
__real@3ff599999999999a DQ 03ff599999999999ar	; 1.35
CONST	ENDS
;	COMDAT __real@3ff0000000000000
CONST	SEGMENT
__real@3ff0000000000000 DQ 03ff0000000000000r	; 1
CONST	ENDS
;	COMDAT __real@3fe999999999999a
CONST	SEGMENT
__real@3fe999999999999a DQ 03fe999999999999ar	; 0.8
CONST	ENDS
;	COMDAT __real@3fe6666666666666
CONST	SEGMENT
__real@3fe6666666666666 DQ 03fe6666666666666r	; 0.7
CONST	ENDS
;	COMDAT __real@3fe4cccccccccccd
CONST	SEGMENT
__real@3fe4cccccccccccd DQ 03fe4cccccccccccdr	; 0.65
CONST	ENDS
;	COMDAT __real@3fe3333333333333
CONST	SEGMENT
__real@3fe3333333333333 DQ 03fe3333333333333r	; 0.6
CONST	ENDS
;	COMDAT __real@3fe199999999999a
CONST	SEGMENT
__real@3fe199999999999a DQ 03fe199999999999ar	; 0.55
CONST	ENDS
;	COMDAT __real@3fe0000000000000
CONST	SEGMENT
__real@3fe0000000000000 DQ 03fe0000000000000r	; 0.5
CONST	ENDS
;	COMDAT __real@3fd9999a
CONST	SEGMENT
__real@3fd9999a DD 03fd9999ar			; 1.7
CONST	ENDS
;	COMDAT __real@3fd999999999999a
CONST	SEGMENT
__real@3fd999999999999a DQ 03fd999999999999ar	; 0.4
CONST	ENDS
;	COMDAT __real@3fd6666666666666
CONST	SEGMENT
__real@3fd6666666666666 DQ 03fd6666666666666r	; 0.35
CONST	ENDS
;	COMDAT __real@3fd54fdf3b645a1d
CONST	SEGMENT
__real@3fd54fdf3b645a1d DQ 03fd54fdf3b645a1dr	; 0.333
CONST	ENDS
;	COMDAT __real@3fd3333333333333
CONST	SEGMENT
__real@3fd3333333333333 DQ 03fd3333333333333r	; 0.3
CONST	ENDS
;	COMDAT __real@3fd0000000000000
CONST	SEGMENT
__real@3fd0000000000000 DQ 03fd0000000000000r	; 0.25
CONST	ENDS
;	COMDAT __real@3fc999999999999a
CONST	SEGMENT
__real@3fc999999999999a DQ 03fc999999999999ar	; 0.2
CONST	ENDS
;	COMDAT __real@3fc3333333333333
CONST	SEGMENT
__real@3fc3333333333333 DQ 03fc3333333333333r	; 0.15
CONST	ENDS
;	COMDAT __real@3fc0000000000000
CONST	SEGMENT
__real@3fc0000000000000 DQ 03fc0000000000000r	; 0.125
CONST	ENDS
;	COMDAT __real@3fb99999a0000000
CONST	SEGMENT
__real@3fb99999a0000000 DQ 03fb99999a0000000r	; 0.1
CONST	ENDS
;	COMDAT __real@3fb999999999999a
CONST	SEGMENT
__real@3fb999999999999a DQ 03fb999999999999ar	; 0.1
CONST	ENDS
;	COMDAT __real@3f91df46a2529d39
CONST	SEGMENT
__real@3f91df46a2529d39 DQ 03f91df46a2529d39r	; 0.0174533
CONST	ENDS
;	COMDAT __real@3f8c28f6
CONST	SEGMENT
__real@3f8c28f6 DD 03f8c28f6r			; 1.095
CONST	ENDS
;	COMDAT __real@3f800000
CONST	SEGMENT
__real@3f800000 DD 03f800000r			; 1
CONST	ENDS
;	COMDAT __real@3f70624dd2f1a9fc
CONST	SEGMENT
__real@3f70624dd2f1a9fc DQ 03f70624dd2f1a9fcr	; 0.004
CONST	ENDS
;	COMDAT __real@3f666666
CONST	SEGMENT
__real@3f666666 DD 03f666666r			; 0.9
CONST	ENDS
;	COMDAT __real@3f59999a
CONST	SEGMENT
__real@3f59999a DD 03f59999ar			; 0.85
CONST	ENDS
;	COMDAT __real@3f50624dd2f1a9fc
CONST	SEGMENT
__real@3f50624dd2f1a9fc DQ 03f50624dd2f1a9fcr	; 0.001
CONST	ENDS
;	COMDAT __real@3f4ccccd
CONST	SEGMENT
__real@3f4ccccd DD 03f4ccccdr			; 0.8
CONST	ENDS
;	COMDAT __real@3f400000
CONST	SEGMENT
__real@3f400000 DD 03f400000r			; 0.75
CONST	ENDS
;	COMDAT __real@3f333333
CONST	SEGMENT
__real@3f333333 DD 03f333333r			; 0.7
CONST	ENDS
;	COMDAT __real@3f266666
CONST	SEGMENT
__real@3f266666 DD 03f266666r			; 0.65
CONST	ENDS
;	COMDAT __real@3f000000
CONST	SEGMENT
__real@3f000000 DD 03f000000r			; 0.5
CONST	ENDS
;	COMDAT __real@3eaa7efa
CONST	SEGMENT
__real@3eaa7efa DD 03eaa7efar			; 0.333
CONST	ENDS
;	COMDAT __real@3dcccccd
CONST	SEGMENT
__real@3dcccccd DD 03dcccccdr			; 0.1
CONST	ENDS
;	COMDAT __real@3d4ccccd
CONST	SEGMENT
__real@3d4ccccd DD 03d4ccccdr			; 0.05
CONST	ENDS
;	COMDAT __real@0000000000000000
CONST	SEGMENT
__real@0000000000000000 DQ 00000000000000000r	; 0
CONST	ENDS
;	COMDAT __real@00000000
CONST	SEGMENT
__real@00000000 DD 000000000r			; 0
CONST	ENDS
;	COMDAT ??_C@_1CO@MDBAMMIO@?$AA?$CB?$AAp?$AAm?$AA_?$AAs?$AAh?$AAa?$AAr?$AAe?$AAd?$AA_?$AAi?$AAn?$AAi?$AAt?$AAi?$AAa?$AAl?$AAi?$AAz?$AAe?$AAd?$AA?$AA@
CONST	SEGMENT
??_C@_1CO@MDBAMMIO@?$AA?$CB?$AAp?$AAm?$AA_?$AAs?$AAh?$AAa?$AAr?$AAe?$AAd?$AA_?$AAi?$AAn?$AAi?$AAt?$AAi?$AAa?$AAl?$AAi?$AAz?$AAe?$AAd?$AA?$AA@ DB '!'
	DB	00H, 'p', 00H, 'm', 00H, '_', 00H, 's', 00H, 'h', 00H, 'a', 00H
	DB	'r', 00H, 'e', 00H, 'd', 00H, '_', 00H, 'i', 00H, 'n', 00H, 'i'
	DB	00H, 't', 00H, 'i', 00H, 'a', 00H, 'l', 00H, 'i', 00H, 'z', 00H
	DB	'e', 00H, 'd', 00H, 00H, 00H			; `string'
CONST	ENDS
;	COMDAT ?__LINE__Var@?0??PM_Init@@YAXPAUplayermove_s@@@Z@4JA
_DATA	SEGMENT
?__LINE__Var@?0??PM_Init@@YAXPAUplayermove_s@@@Z@4JA DD 0eecH ; `PM_Init'::`1'::__LINE__Var
_DATA	ENDS
;	COMDAT ?__LINE__Var@?0??PM_Move@@YAXPAUplayermove_s@@H@Z@4JA
_DATA	SEGMENT
?__LINE__Var@?0??PM_Move@@YAXPAUplayermove_s@@H@Z@4JA DD 0ec8H ; `PM_Move'::`1'::__LINE__Var
_DATA	ENDS
;	COMDAT ??_C@_1HO@FIDBPDJD@?$AAi?$AAd?$AAx?$AA?5?$AA?$DM?$AA?5?$AAs?$AAi?$AAz?$AAe?$AAo?$AAf?$AA?$CI?$AA?5?$AAr?$AAg?$AAv?$AA3?$AAt?$AAS?$AAt?$AAu?$AAc?$AAk?$AAT?$AAa?$AAb?$AAl?$AAe?$AA?5?$AA?$CJ?$AA?5@
CONST	SEGMENT
??_C@_1HO@FIDBPDJD@?$AAi?$AAd?$AAx?$AA?5?$AA?$DM?$AA?5?$AAs?$AAi?$AAz?$AAe?$AAo?$AAf?$AA?$CI?$AA?5?$AAr?$AAg?$AAv?$AA3?$AAt?$AAS?$AAt?$AAu?$AAc?$AAk?$AAT?$AAa?$AAb?$AAl?$AAe?$AA?5?$AA?$CJ?$AA?5@ DB 'i'
	DB	00H, 'd', 00H, 'x', 00H, ' ', 00H, '<', 00H, ' ', 00H, 's', 00H
	DB	'i', 00H, 'z', 00H, 'e', 00H, 'o', 00H, 'f', 00H, '(', 00H, ' '
	DB	00H, 'r', 00H, 'g', 00H, 'v', 00H, '3', 00H, 't', 00H, 'S', 00H
	DB	't', 00H, 'u', 00H, 'c', 00H, 'k', 00H, 'T', 00H, 'a', 00H, 'b'
	DB	00H, 'l', 00H, 'e', 00H, ' ', 00H, ')', 00H, ' ', 00H, '/', 00H
	DB	' ', 00H, 's', 00H, 'i', 00H, 'z', 00H, 'e', 00H, 'o', 00H, 'f'
	DB	00H, '(', 00H, ' ', 00H, 'r', 00H, 'g', 00H, 'v', 00H, '3', 00H
	DB	't', 00H, 'S', 00H, 't', 00H, 'u', 00H, 'c', 00H, 'k', 00H, 'T'
	DB	00H, 'a', 00H, 'b', 00H, 'l', 00H, 'e', 00H, '[', 00H, '0', 00H
	DB	']', 00H, ' ', 00H, ')', 00H, 00H, 00H	; `string'
CONST	ENDS
;	COMDAT ?__LINE__Var@?0??PM_CreateStuckTable@@YAXXZ@4JA
_DATA	SEGMENT
?__LINE__Var@?0??PM_CreateStuckTable@@YAXXZ@4JA DD 0e54H ; `PM_CreateStuckTable'::`1'::__LINE__Var
_DATA	ENDS
;	COMDAT ??_C@_0DC@MKOCNFCM@Bogus?5pmove?5player?5movetype?5?$CFi?5o@
CONST	SEGMENT
??_C@_0DC@MKOCNFCM@Bogus?5pmove?5player?5movetype?5?$CFi?5o@ DB 'Bogus pm'
	DB	'ove player movetype %i on (%i) 0=cl 1=sv', 0aH, 00H ; `string'
CONST	ENDS
;	COMDAT ??_C@_0BI@PLJFMNJG@player?1pl_fallpain3?4wav?$AA@
CONST	SEGMENT
??_C@_0BI@PLJFMNJG@player?1pl_fallpain3?4wav?$AA@ DB 'player/pl_fallpain3'
	DB	'.wav', 00H					; `string'
CONST	ENDS
;	COMDAT ??_C@_0BF@GMIKGFJJ@player?1fallpain2?4wav?$AA@
CONST	SEGMENT
??_C@_0BF@GMIKGFJJ@player?1fallpain2?4wav?$AA@ DB 'player/fallpain2.wav', 00H ; `string'
CONST	ENDS
;	COMDAT ??_C@_0BF@OKBOBHDH@player?1fallpain1?4wav?$AA@
CONST	SEGMENT
??_C@_0BF@OKBOBHDH@player?1fallpain1?4wav?$AA@ DB 'player/fallpain1.wav', 00H ; `string'
CONST	ENDS
;	COMDAT ??_C@_03HJOOJOPI@slj?$AA@
CONST	SEGMENT
??_C@_03HJOOJOPI@slj?$AA@ DB 'slj', 00H			; `string'
CONST	ENDS
;	COMDAT ??_C@_03DIGMJINO@tfc?$AA@
CONST	SEGMENT
??_C@_03DIGMJINO@tfc?$AA@ DB 'tfc', 00H			; `string'
CONST	ENDS
;	COMDAT ??_C@_0CC@OFBNMFAF@PM?5?5Got?5a?5velocity?5too?5low?5on?5?$CFi@
CONST	SEGMENT
??_C@_0CC@OFBNMFAF@PM?5?5Got?5a?5velocity?5too?5low?5on?5?$CFi@ DB 'PM  G'
	DB	'ot a velocity too low on %i', 0aH, 00H	; `string'
CONST	ENDS
;	COMDAT ??_C@_0CD@BDBMHNGO@PM?5?5Got?5a?5velocity?5too?5high?5on?5?$CF@
CONST	SEGMENT
??_C@_0CD@BDBMHNGO@PM?5?5Got?5a?5velocity?5too?5high?5on?5?$CF@ DB 'PM  G'
	DB	'ot a velocity too high on %i', 0aH, 00H	; `string'
CONST	ENDS
;	COMDAT ??_C@_0BM@IKDFNEMI@PM?5?5Got?5a?5NaN?5origin?5on?5?$CFi?6?$AA@
CONST	SEGMENT
??_C@_0BM@IKDFNEMI@PM?5?5Got?5a?5NaN?5origin?5on?5?$CFi?6?$AA@ DB 'PM  Go'
	DB	't a NaN origin on %i', 0aH, 00H		; `string'
CONST	ENDS
;	COMDAT ??_C@_0BL@ODOJHMIN@PM?5?5Got?5a?5NaN?5velocity?5?$CFi?6?$AA@
CONST	SEGMENT
??_C@_0BL@ODOJHMIN@PM?5?5Got?5a?5NaN?5velocity?5?$CFi?6?$AA@ DB 'PM  Got '
	DB	'a NaN velocity %i', 0aH, 00H		; `string'
CONST	ENDS
;	COMDAT ??_C@_0CB@CNILIGKA@Too?5many?5entities?5were?5touched?$CB?6@
CONST	SEGMENT
??_C@_0CB@CNILIGKA@Too?5many?5entities?5were?5touched?$CB?6@ DB 'Too many'
	DB	' entities were touched!', 0aH, 00H		; `string'
CONST	ENDS
;	COMDAT ??_C@_0BF@DEKKNCGM@footsteps?1glass6?4wav?$AA@
CONST	SEGMENT
??_C@_0BF@DEKKNCGM@footsteps?1glass6?4wav?$AA@ DB 'footsteps/glass6.wav', 00H ; `string'
CONST	ENDS
;	COMDAT ??_C@_0BF@LCDOKAMC@footsteps?1glass5?4wav?$AA@
CONST	SEGMENT
??_C@_0BF@LCDOKAMC@footsteps?1glass5?4wav?$AA@ DB 'footsteps/glass5.wav', 00H ; `string'
CONST	ENDS
;	COMDAT ??_C@_0BF@HJGCHDGH@footsteps?1glass4?4wav?$AA@
CONST	SEGMENT
??_C@_0BF@HJGCHDGH@footsteps?1glass4?4wav?$AA@ DB 'footsteps/glass4.wav', 00H ; `string'
CONST	ENDS
;	COMDAT ??_C@_0BF@GEGHEDNP@footsteps?1glass3?4wav?$AA@
CONST	SEGMENT
??_C@_0BF@GEGHEDNP@footsteps?1glass3?4wav?$AA@ DB 'footsteps/glass3.wav', 00H ; `string'
CONST	ENDS
;	COMDAT ??_C@_0BF@KPDLJAHK@footsteps?1glass2?4wav?$AA@
CONST	SEGMENT
??_C@_0BF@KPDLJAHK@footsteps?1glass2?4wav?$AA@ DB 'footsteps/glass2.wav', 00H ; `string'
CONST	ENDS
;	COMDAT ??_C@_0BF@CJKPOCNE@footsteps?1glass1?4wav?$AA@
CONST	SEGMENT
??_C@_0BF@CJKPOCNE@footsteps?1glass1?4wav?$AA@ DB 'footsteps/glass1.wav', 00H ; `string'
CONST	ENDS
;	COMDAT ??_C@_0BG@KOONPM@footsteps?1gravel6?4wav?$AA@
CONST	SEGMENT
??_C@_0BG@KOONPM@footsteps?1gravel6?4wav?$AA@ DB 'footsteps/gravel6.wav', 00H ; `string'
CONST	ENDS
;	COMDAT ??_C@_0BG@IGDKJPFC@footsteps?1gravel5?4wav?$AA@
CONST	SEGMENT
??_C@_0BG@IGDKJPFC@footsteps?1gravel5?4wav?$AA@ DB 'footsteps/gravel5.wav'
	DB	00H						; `string'
CONST	ENDS
;	COMDAT ??_C@_0BG@ENGGEMPH@footsteps?1gravel4?4wav?$AA@
CONST	SEGMENT
??_C@_0BG@ENGGEMPH@footsteps?1gravel4?4wav?$AA@ DB 'footsteps/gravel4.wav'
	DB	00H						; `string'
CONST	ENDS
;	COMDAT ??_C@_0BG@FAGDHMEP@footsteps?1gravel3?4wav?$AA@
CONST	SEGMENT
??_C@_0BG@FAGDHMEP@footsteps?1gravel3?4wav?$AA@ DB 'footsteps/gravel3.wav'
	DB	00H						; `string'
CONST	ENDS
;	COMDAT ??_C@_0BG@JLDPKPOK@footsteps?1gravel2?4wav?$AA@
CONST	SEGMENT
??_C@_0BG@JLDPKPOK@footsteps?1gravel2?4wav?$AA@ DB 'footsteps/gravel2.wav'
	DB	00H						; `string'
CONST	ENDS
;	COMDAT ??_C@_0BG@BNKLNNEE@footsteps?1gravel1?4wav?$AA@
CONST	SEGMENT
??_C@_0BG@BNKLNNEE@footsteps?1gravel1?4wav?$AA@ DB 'footsteps/gravel1.wav'
	DB	00H						; `string'
CONST	ENDS
;	COMDAT ??_C@_0BF@NMNGDDH@footsteps?1grass6?4wav?$AA@
CONST	SEGMENT
??_C@_0BF@NMNGDDH@footsteps?1grass6?4wav?$AA@ DB 'footsteps/grass6.wav', 00H ; `string'
CONST	ENDS
;	COMDAT ??_C@_0BF@ILFJBBJJ@footsteps?1grass5?4wav?$AA@
CONST	SEGMENT
??_C@_0BF@ILFJBBJJ@footsteps?1grass5?4wav?$AA@ DB 'footsteps/grass5.wav', 00H ; `string'
CONST	ENDS
;	COMDAT ??_C@_0BF@EAAFMCDM@footsteps?1grass4?4wav?$AA@
CONST	SEGMENT
??_C@_0BF@EAAFMCDM@footsteps?1grass4?4wav?$AA@ DB 'footsteps/grass4.wav', 00H ; `string'
CONST	ENDS
;	COMDAT ??_C@_0BF@FNAAPCIE@footsteps?1grass3?4wav?$AA@
CONST	SEGMENT
??_C@_0BF@FNAAPCIE@footsteps?1grass3?4wav?$AA@ DB 'footsteps/grass3.wav', 00H ; `string'
CONST	ENDS
;	COMDAT ??_C@_0BF@JGFMCBCB@footsteps?1grass2?4wav?$AA@
CONST	SEGMENT
??_C@_0BF@JGFMCBCB@footsteps?1grass2?4wav?$AA@ DB 'footsteps/grass2.wav', 00H ; `string'
CONST	ENDS
;	COMDAT ??_C@_0BF@BAMIFDIP@footsteps?1grass1?4wav?$AA@
CONST	SEGMENT
??_C@_0BF@BAMIFDIP@footsteps?1grass1?4wav?$AA@ DB 'footsteps/grass1.wav', 00H ; `string'
CONST	ENDS
;	COMDAT ??_C@_0BG@NPAOOFIB@footsteps?1carpet6?4wav?$AA@
CONST	SEGMENT
??_C@_0BG@NPAOOFIB@footsteps?1carpet6?4wav?$AA@ DB 'footsteps/carpet6.wav'
	DB	00H						; `string'
CONST	ENDS
;	COMDAT ??_C@_0BG@FJJKJHCP@footsteps?1carpet5?4wav?$AA@
CONST	SEGMENT
??_C@_0BG@FJJKJHCP@footsteps?1carpet5?4wav?$AA@ DB 'footsteps/carpet5.wav'
	DB	00H						; `string'
CONST	ENDS
;	COMDAT ??_C@_0BG@JCMGEEIK@footsteps?1carpet4?4wav?$AA@
CONST	SEGMENT
??_C@_0BG@JCMGEEIK@footsteps?1carpet4?4wav?$AA@ DB 'footsteps/carpet4.wav'
	DB	00H						; `string'
CONST	ENDS
;	COMDAT ??_C@_0BG@IPMDHEDC@footsteps?1carpet3?4wav?$AA@
CONST	SEGMENT
??_C@_0BG@IPMDHEDC@footsteps?1carpet3?4wav?$AA@ DB 'footsteps/carpet3.wav'
	DB	00H						; `string'
CONST	ENDS
;	COMDAT ??_C@_0BG@EEJPKHJH@footsteps?1carpet2?4wav?$AA@
CONST	SEGMENT
??_C@_0BG@EEJPKHJH@footsteps?1carpet2?4wav?$AA@ DB 'footsteps/carpet2.wav'
	DB	00H						; `string'
CONST	ENDS
;	COMDAT ??_C@_0BG@MCALNFDJ@footsteps?1carpet1?4wav?$AA@
CONST	SEGMENT
??_C@_0BG@MCALNFDJ@footsteps?1carpet1?4wav?$AA@ DB 'footsteps/carpet1.wav'
	DB	00H						; `string'
CONST	ENDS
;	COMDAT ??_C@_0BE@DIDDCHLF@footsteps?1snow6?4wav?$AA@
CONST	SEGMENT
??_C@_0BE@DIDDCHLF@footsteps?1snow6?4wav?$AA@ DB 'footsteps/snow6.wav', 00H ; `string'
CONST	ENDS
;	COMDAT ??_C@_0BE@LOKHFFBL@footsteps?1snow5?4wav?$AA@
CONST	SEGMENT
??_C@_0BE@LOKHFFBL@footsteps?1snow5?4wav?$AA@ DB 'footsteps/snow5.wav', 00H ; `string'
CONST	ENDS
;	COMDAT ??_C@_0BE@HFPLIGLO@footsteps?1snow4?4wav?$AA@
CONST	SEGMENT
??_C@_0BE@HFPLIGLO@footsteps?1snow4?4wav?$AA@ DB 'footsteps/snow4.wav', 00H ; `string'
CONST	ENDS
;	COMDAT ??_C@_0BE@GIPOLGAG@footsteps?1snow3?4wav?$AA@
CONST	SEGMENT
??_C@_0BE@GIPOLGAG@footsteps?1snow3?4wav?$AA@ DB 'footsteps/snow3.wav', 00H ; `string'
CONST	ENDS
;	COMDAT ??_C@_0BE@KDKCGFKD@footsteps?1snow2?4wav?$AA@
CONST	SEGMENT
??_C@_0BE@KDKCGFKD@footsteps?1snow2?4wav?$AA@ DB 'footsteps/snow2.wav', 00H ; `string'
CONST	ENDS
;	COMDAT ??_C@_0BE@CFDGBHAN@footsteps?1snow1?4wav?$AA@
CONST	SEGMENT
??_C@_0BE@CFDGBHAN@footsteps?1snow1?4wav?$AA@ DB 'footsteps/snow1.wav', 00H ; `string'
CONST	ENDS
;	COMDAT ??_C@_0BE@HAJFBFNP@footsteps?1wood6?4wav?$AA@
CONST	SEGMENT
??_C@_0BE@HAJFBFNP@footsteps?1wood6?4wav?$AA@ DB 'footsteps/wood6.wav', 00H ; `string'
CONST	ENDS
;	COMDAT ??_C@_0BE@PGABGHHB@footsteps?1wood5?4wav?$AA@
CONST	SEGMENT
??_C@_0BE@PGABGHHB@footsteps?1wood5?4wav?$AA@ DB 'footsteps/wood5.wav', 00H ; `string'
CONST	ENDS
;	COMDAT ??_C@_0BE@DNFNLENE@footsteps?1wood4?4wav?$AA@
CONST	SEGMENT
??_C@_0BE@DNFNLENE@footsteps?1wood4?4wav?$AA@ DB 'footsteps/wood4.wav', 00H ; `string'
CONST	ENDS
;	COMDAT ??_C@_0BE@CAFIIEGM@footsteps?1wood3?4wav?$AA@
CONST	SEGMENT
??_C@_0BE@CAFIIEGM@footsteps?1wood3?4wav?$AA@ DB 'footsteps/wood3.wav', 00H ; `string'
CONST	ENDS
;	COMDAT ??_C@_0BE@OLAEFHMJ@footsteps?1wood2?4wav?$AA@
CONST	SEGMENT
??_C@_0BE@OLAEFHMJ@footsteps?1wood2?4wav?$AA@ DB 'footsteps/wood2.wav', 00H ; `string'
CONST	ENDS
;	COMDAT ??_C@_0BE@GNJACFGH@footsteps?1wood1?4wav?$AA@
CONST	SEGMENT
??_C@_0BE@GNJACFGH@footsteps?1wood1?4wav?$AA@ DB 'footsteps/wood1.wav', 00H ; `string'
CONST	ENDS
;	COMDAT ??_C@_0BL@OKOJPLBC@footsteps?1ladder_wood4?4wav?$AA@
CONST	SEGMENT
??_C@_0BL@OKOJPLBC@footsteps?1ladder_wood4?4wav?$AA@ DB 'footsteps/ladder'
	DB	'_wood4.wav', 00H				; `string'
CONST	ENDS
;	COMDAT ??_C@_0BL@DMLABIAP@footsteps?1ladder_wood2?4wav?$AA@
CONST	SEGMENT
??_C@_0BL@DMLABIAP@footsteps?1ladder_wood2?4wav?$AA@ DB 'footsteps/ladder'
	DB	'_wood2.wav', 00H				; `string'
CONST	ENDS
;	COMDAT ??_C@_0BL@PHOMMLKK@footsteps?1ladder_wood3?4wav?$AA@
CONST	SEGMENT
??_C@_0BL@PHOMMLKK@footsteps?1ladder_wood3?4wav?$AA@ DB 'footsteps/ladder'
	DB	'_wood3.wav', 00H				; `string'
CONST	ENDS
;	COMDAT ??_C@_0BL@LKCEGKKB@footsteps?1ladder_wood1?4wav?$AA@
CONST	SEGMENT
??_C@_0BL@LKCEGKKB@footsteps?1ladder_wood1?4wav?$AA@ DB 'footsteps/ladder'
	DB	'_wood1.wav', 00H				; `string'
CONST	ENDS
;	COMDAT ??_C@_0BG@FIBOAMBD@footsteps?1ladder4?4wav?$AA@
CONST	SEGMENT
??_C@_0BG@FIBOAMBD@footsteps?1ladder4?4wav?$AA@ DB 'footsteps/ladder4.wav'
	DB	00H						; `string'
CONST	ENDS
;	COMDAT ??_C@_0BG@IOEHOPAO@footsteps?1ladder2?4wav?$AA@
CONST	SEGMENT
??_C@_0BG@IOEHOPAO@footsteps?1ladder2?4wav?$AA@ DB 'footsteps/ladder2.wav'
	DB	00H						; `string'
CONST	ENDS
;	COMDAT ??_C@_0BG@EFBLDMKL@footsteps?1ladder3?4wav?$AA@
CONST	SEGMENT
??_C@_0BG@EFBLDMKL@footsteps?1ladder3?4wav?$AA@ DB 'footsteps/ladder3.wav'
	DB	00H						; `string'
CONST	ENDS
;	COMDAT ??_C@_0BG@INDJNKA@footsteps?1ladder1?4wav?$AA@
CONST	SEGMENT
??_C@_0BG@INDJNKA@footsteps?1ladder1?4wav?$AA@ DB 'footsteps/ladder1.wav', 00H ; `string'
CONST	ENDS
;	COMDAT ??_C@_0BE@OICHIKE@footsteps?1wade4?4wav?$AA@
CONST	SEGMENT
??_C@_0BE@OICHIKE@footsteps?1wade4?4wav?$AA@ DB 'footsteps/wade4.wav', 00H ; `string'
CONST	ENDS
;	COMDAT ??_C@_0BE@BDIHEIBM@footsteps?1wade3?4wav?$AA@
CONST	SEGMENT
??_C@_0BE@BDIHEIBM@footsteps?1wade3?4wav?$AA@ DB 'footsteps/wade3.wav', 00H ; `string'
CONST	ENDS
;	COMDAT ??_C@_0BE@NINLJLLJ@footsteps?1wade2?4wav?$AA@
CONST	SEGMENT
??_C@_0BE@NINLJLLJ@footsteps?1wade2?4wav?$AA@ DB 'footsteps/wade2.wav', 00H ; `string'
CONST	ENDS
;	COMDAT ??_C@_0BE@FOEPOJBH@footsteps?1wade1?4wav?$AA@
CONST	SEGMENT
??_C@_0BE@FOEPOJBH@footsteps?1wade1?4wav?$AA@ DB 'footsteps/wade1.wav', 00H ; `string'
CONST	ENDS
;	COMDAT ??_C@_0BF@MKFGNHII@footsteps?1slosh4?4wav?$AA@
CONST	SEGMENT
??_C@_0BF@MKFGNHII@footsteps?1slosh4?4wav?$AA@ DB 'footsteps/slosh4.wav', 00H ; `string'
CONST	ENDS
;	COMDAT ??_C@_0BF@BMAPDEJF@footsteps?1slosh2?4wav?$AA@
CONST	SEGMENT
??_C@_0BF@BMAPDEJF@footsteps?1slosh2?4wav?$AA@ DB 'footsteps/slosh2.wav', 00H ; `string'
CONST	ENDS
;	COMDAT ??_C@_0BF@NHFDOHDA@footsteps?1slosh3?4wav?$AA@
CONST	SEGMENT
??_C@_0BF@NHFDOHDA@footsteps?1slosh3?4wav?$AA@ DB 'footsteps/slosh3.wav', 00H ; `string'
CONST	ENDS
;	COMDAT ??_C@_0BF@JKJLEGDL@footsteps?1slosh1?4wav?$AA@
CONST	SEGMENT
??_C@_0BF@JKJLEGDL@footsteps?1slosh1?4wav?$AA@ DB 'footsteps/slosh1.wav', 00H ; `string'
CONST	ENDS
;	COMDAT ??_C@_0BE@EGNEKJKP@footsteps?1tile5?4wav?$AA@
CONST	SEGMENT
??_C@_0BE@EGNEKJKP@footsteps?1tile5?4wav?$AA@ DB 'footsteps/tile5.wav', 00H ; `string'
CONST	ENDS
;	COMDAT ??_C@_0BE@INIIHKAK@footsteps?1tile4?4wav?$AA@
CONST	SEGMENT
??_C@_0BE@INIIHKAK@footsteps?1tile4?4wav?$AA@ DB 'footsteps/tile4.wav', 00H ; `string'
CONST	ENDS
;	COMDAT ??_C@_0BE@FLNBJJBH@footsteps?1tile2?4wav?$AA@
CONST	SEGMENT
??_C@_0BE@FLNBJJBH@footsteps?1tile2?4wav?$AA@ DB 'footsteps/tile2.wav', 00H ; `string'
CONST	ENDS
;	COMDAT ??_C@_0BE@JAINEKLC@footsteps?1tile3?4wav?$AA@
CONST	SEGMENT
??_C@_0BE@JAINEKLC@footsteps?1tile3?4wav?$AA@ DB 'footsteps/tile3.wav', 00H ; `string'
CONST	ENDS
;	COMDAT ??_C@_0BE@NNEFOLLJ@footsteps?1tile1?4wav?$AA@
CONST	SEGMENT
??_C@_0BE@NNEFOLLJ@footsteps?1tile1?4wav?$AA@ DB 'footsteps/tile1.wav', 00H ; `string'
CONST	ENDS
;	COMDAT ??_C@_0BF@EOMOGCNB@footsteps?1grate4?4wav?$AA@
CONST	SEGMENT
??_C@_0BF@EOMOGCNB@footsteps?1grate4?4wav?$AA@ DB 'footsteps/grate4.wav', 00H ; `string'
CONST	ENDS
;	COMDAT ??_C@_0BF@JIJHIBMM@footsteps?1grate2?4wav?$AA@
CONST	SEGMENT
??_C@_0BF@JIJHIBMM@footsteps?1grate2?4wav?$AA@ DB 'footsteps/grate2.wav', 00H ; `string'
CONST	ENDS
;	COMDAT ??_C@_0BF@FDMLFCGJ@footsteps?1grate3?4wav?$AA@
CONST	SEGMENT
??_C@_0BF@FDMLFCGJ@footsteps?1grate3?4wav?$AA@ DB 'footsteps/grate3.wav', 00H ; `string'
CONST	ENDS
;	COMDAT ??_C@_0BF@BOADPDGC@footsteps?1grate1?4wav?$AA@
CONST	SEGMENT
??_C@_0BF@BOADPDGC@footsteps?1grate1?4wav?$AA@ DB 'footsteps/grate1.wav', 00H ; `string'
CONST	ENDS
;	COMDAT ??_C@_0BE@PIFLMPFB@footsteps?1duct4?4wav?$AA@
CONST	SEGMENT
??_C@_0BE@PIFLMPFB@footsteps?1duct4?4wav?$AA@ DB 'footsteps/duct4.wav', 00H ; `string'
CONST	ENDS
;	COMDAT ??_C@_0BE@COACCMEM@footsteps?1duct2?4wav?$AA@
CONST	SEGMENT
??_C@_0BE@COACCMEM@footsteps?1duct2?4wav?$AA@ DB 'footsteps/duct2.wav', 00H ; `string'
CONST	ENDS
;	COMDAT ??_C@_0BE@OFFOPPOJ@footsteps?1duct3?4wav?$AA@
CONST	SEGMENT
??_C@_0BE@OFFOPPOJ@footsteps?1duct3?4wav?$AA@ DB 'footsteps/duct3.wav', 00H ; `string'
CONST	ENDS
;	COMDAT ??_C@_0BE@KIJGFOOC@footsteps?1duct1?4wav?$AA@
CONST	SEGMENT
??_C@_0BE@KIJGFOOC@footsteps?1duct1?4wav?$AA@ DB 'footsteps/duct1.wav', 00H ; `string'
CONST	ENDS
;	COMDAT ??_C@_0BE@CLOEPIB@footsteps?1dirt4?4wav?$AA@
CONST	SEGMENT
??_C@_0BE@CLOEPIB@footsteps?1dirt4?4wav?$AA@ DB 'footsteps/dirt4.wav', 00H ; `string'
CONST	ENDS
;	COMDAT ??_C@_0BE@NEOHKMJM@footsteps?1dirt2?4wav?$AA@
CONST	SEGMENT
??_C@_0BE@NEOHKMJM@footsteps?1dirt2?4wav?$AA@ DB 'footsteps/dirt2.wav', 00H ; `string'
CONST	ENDS
;	COMDAT ??_C@_0BE@BPLLHPDJ@footsteps?1dirt3?4wav?$AA@
CONST	SEGMENT
??_C@_0BE@BPLLHPDJ@footsteps?1dirt3?4wav?$AA@ DB 'footsteps/dirt3.wav', 00H ; `string'
CONST	ENDS
;	COMDAT ??_C@_0BE@FCHDNODC@footsteps?1dirt1?4wav?$AA@
CONST	SEGMENT
??_C@_0BE@FCHDNODC@footsteps?1dirt1?4wav?$AA@ DB 'footsteps/dirt1.wav', 00H ; `string'
CONST	ENDS
;	COMDAT ??_C@_0BF@COIHNNGG@footsteps?1metal4?4wav?$AA@
CONST	SEGMENT
??_C@_0BF@COIHNNGG@footsteps?1metal4?4wav?$AA@ DB 'footsteps/metal4.wav', 00H ; `string'
CONST	ENDS
;	COMDAT ??_C@_0BF@PINODOHL@footsteps?1metal2?4wav?$AA@
CONST	SEGMENT
??_C@_0BF@PINODOHL@footsteps?1metal2?4wav?$AA@ DB 'footsteps/metal2.wav', 00H ; `string'
CONST	ENDS
;	COMDAT ??_C@_0BF@DDICONNO@footsteps?1metal3?4wav?$AA@
CONST	SEGMENT
??_C@_0BF@DDICONNO@footsteps?1metal3?4wav?$AA@ DB 'footsteps/metal3.wav', 00H ; `string'
CONST	ENDS
;	COMDAT ??_C@_0BF@HOEKEMNF@footsteps?1metal1?4wav?$AA@
CONST	SEGMENT
??_C@_0BF@HOEKEMNF@footsteps?1metal1?4wav?$AA@ DB 'footsteps/metal1.wav', 00H ; `string'
CONST	ENDS
;	COMDAT ??_C@_0BE@FFLKMNBM@footsteps?1step6?4wav?$AA@
CONST	SEGMENT
??_C@_0BE@FFLKMNBM@footsteps?1step6?4wav?$AA@ DB 'footsteps/step6.wav', 00H ; `string'
CONST	ENDS
;	COMDAT ??_C@_0BE@NDCOLPLC@footsteps?1step5?4wav?$AA@
CONST	SEGMENT
??_C@_0BE@NDCOLPLC@footsteps?1step5?4wav?$AA@ DB 'footsteps/step5.wav', 00H ; `string'
CONST	ENDS
;	COMDAT ??_C@_0BE@BIHCGMBH@footsteps?1step4?4wav?$AA@
CONST	SEGMENT
??_C@_0BE@BIHCGMBH@footsteps?1step4?4wav?$AA@ DB 'footsteps/step4.wav', 00H ; `string'
CONST	ENDS
;	COMDAT ??_C@_0BE@FHHFMKP@footsteps?1step3?4wav?$AA@
CONST	SEGMENT
??_C@_0BE@FHHFMKP@footsteps?1step3?4wav?$AA@ DB 'footsteps/step3.wav', 00H ; `string'
CONST	ENDS
;	COMDAT ??_C@_0BE@MOCLIPAK@footsteps?1step2?4wav?$AA@
CONST	SEGMENT
??_C@_0BE@MOCLIPAK@footsteps?1step2?4wav?$AA@ DB 'footsteps/step2.wav', 00H ; `string'
CONST	ENDS
;	COMDAT ??_C@_0BE@EILPPNKE@footsteps?1step1?4wav?$AA@
CONST	SEGMENT
??_C@_0BE@EILPPNKE@footsteps?1step1?4wav?$AA@ DB 'footsteps/step1.wav', 00H ; `string'
CONST	ENDS
;	COMDAT ??_C@_1CM@MFEIHPMD@?$AAp?$AAm?$AA_?$AAs?$AAh?$AAa?$AAr?$AAe?$AAd?$AA_?$AAi?$AAn?$AAi?$AAt?$AAi?$AAa?$AAl?$AAi?$AAz?$AAe?$AAd?$AA?$AA@
CONST	SEGMENT
??_C@_1CM@MFEIHPMD@?$AAp?$AAm?$AA_?$AAs?$AAh?$AAa?$AAr?$AAe?$AAd?$AA_?$AAi?$AAn?$AAi?$AAt?$AAi?$AAa?$AAl?$AAi?$AAz?$AAe?$AAd?$AA?$AA@ DB 'p'
	DB	00H, 'm', 00H, '_', 00H, 's', 00H, 'h', 00H, 'a', 00H, 'r', 00H
	DB	'e', 00H, 'd', 00H, '_', 00H, 'i', 00H, 'n', 00H, 'i', 00H, 't'
	DB	00H, 'i', 00H, 'a', 00H, 'l', 00H, 'i', 00H, 'z', 00H, 'e', 00H
	DB	'd', 00H, 00H, 00H				; `string'
CONST	ENDS
;	COMDAT ??_C@_1JK@HGLHDLOI@?$AAd?$AA?3?$AA?2?$AA?$CB?$AAd?$AAi?$AAf?$AAf?$AAu?$AAs?$AAi?$AAo?$AAn?$AA?5?$AA2?$AA0?$AA2?$AA0?$AA?2?$AAs?$AAo?$AAu?$AAr?$AAc?$AAe?$AA?5?$AAc?$AAo?$AAd?$AAe?$AA?5?$AA2@
CONST	SEGMENT
??_C@_1JK@HGLHDLOI@?$AAd?$AA?3?$AA?2?$AA?$CB?$AAd?$AAi?$AAf?$AAf?$AAu?$AAs?$AAi?$AAo?$AAn?$AA?5?$AA2?$AA0?$AA2?$AA0?$AA?2?$AAs?$AAo?$AAu?$AAr?$AAc?$AAe?$AA?5?$AAc?$AAo?$AAd?$AAe?$AA?5?$AA2@ DB 'd'
	DB	00H, ':', 00H, '\', 00H, '!', 00H, 'd', 00H, 'i', 00H, 'f', 00H
	DB	'f', 00H, 'u', 00H, 's', 00H, 'i', 00H, 'o', 00H, 'n', 00H, ' '
	DB	00H, '2', 00H, '0', 00H, '2', 00H, '0', 00H, '\', 00H, 's', 00H
	DB	'o', 00H, 'u', 00H, 'r', 00H, 'c', 00H, 'e', 00H, ' ', 00H, 'c'
	DB	00H, 'o', 00H, 'd', 00H, 'e', 00H, ' ', 00H, '2', 00H, '0', 00H
	DB	'2', 00H, '2', 00H, '\', 00H, 'c', 00H, 'l', 00H, 'i', 00H, 'e'
	DB	00H, 'n', 00H, 't', 00H, '-', 00H, 's', 00H, 'e', 00H, 'r', 00H
	DB	'v', 00H, 'e', 00H, 'r', 00H, '\', 00H, 'g', 00H, 'a', 00H, 'm'
	DB	00H, 'e', 00H, '_', 00H, 's', 00H, 'h', 00H, 'a', 00H, 'r', 00H
	DB	'e', 00H, 'd', 00H, '\', 00H, 'p', 00H, 'l', 00H, 'a', 00H, 'y'
	DB	00H, 'e', 00H, 'r', 00H, 'm', 00H, 'o', 00H, 'v', 00H, 'e', 00H
	DB	'.', 00H, 'c', 00H, 'p', 00H, 'p', 00H, 00H, 00H ; `string'
CONST	ENDS
;	COMDAT ?__LINE__Var@?0??PM_FindTextureType@@YADPAD@Z@4JA
_DATA	SEGMENT
?__LINE__Var@?0??PM_FindTextureType@@YADPAD@Z@4JA DD 012aH ; `PM_FindTextureType'::`1'::__LINE__Var
_DATA	ENDS
;	COMDAT ??_C@_02CBLDBPFN@?1?1?$AA@
CONST	SEGMENT
??_C@_02CBLDBPFN@?1?1?$AA@ DB '//', 00H			; `string'
CONST	ENDS
;	COMDAT ??_C@_0BD@EJFPBDDL@data?1materials?4txt?$AA@
CONST	SEGMENT
??_C@_0BD@EJFPBDDL@data?1materials?4txt?$AA@ DB 'data/materials.txt', 00H ; `string'
CONST	ENDS
;	COMDAT xdata$x
xdata$x	SEGMENT
__unwindtable$?PM_CheckWater@@YAHXZ DD 0ffffffffH
	DD	FLAT:__unwindfunclet$?PM_CheckWater@@YAHXZ$0
__ehfuncinfo$?PM_CheckWater@@YAHXZ DD 019930522H
	DD	01H
	DD	FLAT:__unwindtable$?PM_CheckWater@@YAHXZ
	DD	2 DUP(00H)
	DD	2 DUP(00H)
	DD	00H
	DD	01H
xdata$x	ENDS
; Function compile flags: /Odtp /ZI
; File d:\!diffusion 2020\source code 2022\client-server\game_shared\playermove.cpp
;	COMDAT ?PM_Init@@YAXPAUplayermove_s@@@Z
_TEXT	SEGMENT
_ppmove$ = 8						; size = 4
?PM_Init@@YAXPAUplayermove_s@@@Z PROC			; PM_Init, COMDAT

; 3820 : {

	push	ebp
	mov	ebp, esp
	sub	esp, 64					; 00000040H
	push	ebx
	push	esi
	push	edi

; 3821 : 	assert( !pm_shared_initialized );

	cmp	DWORD PTR ?pm_shared_initialized@@3HA, 0
	je	SHORT $LN3@PM_Init
	mov	eax, DWORD PTR ?__LINE__Var@?0??PM_Init@@YAXPAUplayermove_s@@@Z@4JA
	add	eax, 1
	push	eax
	push	OFFSET ??_C@_1JK@HGLHDLOI@?$AAd?$AA?3?$AA?2?$AA?$CB?$AAd?$AAi?$AAf?$AAf?$AAu?$AAs?$AAi?$AAo?$AAn?$AA?5?$AA2?$AA0?$AA2?$AA0?$AA?2?$AAs?$AAo?$AAu?$AAr?$AAc?$AAe?$AA?5?$AAc?$AAo?$AAd?$AAe?$AA?5?$AA2@
	push	OFFSET ??_C@_1CO@MDBAMMIO@?$AA?$CB?$AAp?$AAm?$AA_?$AAs?$AAh?$AAa?$AAr?$AAe?$AAd?$AA_?$AAi?$AAn?$AAi?$AAt?$AAi?$AAa?$AAl?$AAi?$AAz?$AAe?$AAd?$AA?$AA@
	call	__wassert
	add	esp, 12					; 0000000cH
$LN3@PM_Init:

; 3822 : 
; 3823 : 	pmove = ppmove;

	mov	eax, DWORD PTR _ppmove$[ebp]
	mov	DWORD PTR ?pmove@@3PAUplayermove_s@@A, eax ; pmove

; 3824 : 
; 3825 : 	PM_CreateStuckTable();

	call	?PM_CreateStuckTable@@YAXXZ		; PM_CreateStuckTable

; 3826 : 	PM_InitTextureTypes();

	call	?PM_InitTextureTypes@@YAXXZ		; PM_InitTextureTypes

; 3827 : 
; 3828 : 	pm_shared_initialized = 1;

	mov	DWORD PTR ?pm_shared_initialized@@3HA, 1

; 3829 : }

	pop	edi
	pop	esi
	pop	ebx
	mov	esp, ebp
	pop	ebp
	ret	0
?PM_Init@@YAXPAUplayermove_s@@@Z ENDP			; PM_Init
_TEXT	ENDS
; Function compile flags: /Odtp /ZI
; File d:\!diffusion 2020\source code 2022\client-server\game_shared\playermove.cpp
;	COMDAT ?PM_GetPhysEntInfo@@YAHH@Z
_TEXT	SEGMENT
_ent$ = 8						; size = 4
?PM_GetPhysEntInfo@@YAHH@Z PROC				; PM_GetPhysEntInfo, COMDAT

; 3812 : {

	push	ebp
	mov	ebp, esp
	sub	esp, 64					; 00000040H
	push	ebx
	push	esi
	push	edi

; 3813 : 	if ( ent >= 0 && ent <= pmove->numphysent)

	cmp	DWORD PTR _ent$[ebp], 0
	jl	SHORT $LN2@PM_GetPhys
	mov	eax, DWORD PTR ?pmove@@3PAUplayermove_s@@A ; pmove
	mov	ecx, DWORD PTR _ent$[ebp]
	cmp	ecx, DWORD PTR [eax+588]
	jg	SHORT $LN2@PM_GetPhys

; 3814 : 		return pmove->physents[ ent ].info;

	imul	eax, DWORD PTR _ent$[ebp], 224
	mov	ecx, DWORD PTR ?pmove@@3PAUplayermove_s@@A ; pmove
	mov	eax, DWORD PTR [ecx+eax+672]
	jmp	SHORT $LN1@PM_GetPhys
$LN2@PM_GetPhys:

; 3815 : 
; 3816 : 	return -1;

	or	eax, -1
$LN1@PM_GetPhys:

; 3817 : }

	pop	edi
	pop	esi
	pop	ebx
	mov	esp, ebp
	pop	ebp
	ret	0
?PM_GetPhysEntInfo@@YAHH@Z ENDP				; PM_GetPhysEntInfo
_TEXT	ENDS
; Function compile flags: /Odtp /ZI
; File d:\!diffusion 2020\source code 2022\client-server\game_shared\playermove.cpp
;	COMDAT ?PM_GetVisEntInfo@@YAHH@Z
_TEXT	SEGMENT
_ent$ = 8						; size = 4
?PM_GetVisEntInfo@@YAHH@Z PROC				; PM_GetVisEntInfo, COMDAT

; 3804 : {

	push	ebp
	mov	ebp, esp
	sub	esp, 64					; 00000040H
	push	ebx
	push	esi
	push	edi

; 3805 : 	if ( ent >= 0 && ent <= pmove->numvisent )

	cmp	DWORD PTR _ent$[ebp], 0
	jl	SHORT $LN2@PM_GetVisE
	mov	eax, DWORD PTR ?pmove@@3PAUplayermove_s@@A ; pmove
	mov	ecx, DWORD PTR _ent$[ebp]
	cmp	ecx, DWORD PTR [eax+149332]
	jg	SHORT $LN2@PM_GetVisE

; 3806 : 		return pmove->visents[ ent ].info;

	imul	eax, DWORD PTR _ent$[ebp], 224
	mov	ecx, DWORD PTR ?pmove@@3PAUplayermove_s@@A ; pmove
	mov	eax, DWORD PTR [ecx+eax+149416]
	jmp	SHORT $LN1@PM_GetVisE
$LN2@PM_GetVisE:

; 3807 : 
; 3808 : 	return -1;

	or	eax, -1
$LN1@PM_GetVisE:

; 3809 : }

	pop	edi
	pop	esi
	pop	ebx
	mov	esp, ebp
	pop	ebp
	ret	0
?PM_GetVisEntInfo@@YAHH@Z ENDP				; PM_GetVisEntInfo
_TEXT	ENDS
; Function compile flags: /Odtp /ZI
; File d:\!diffusion 2020\source code 2022\client-server\game_shared\playermove.cpp
;	COMDAT ?PM_Move@@YAXPAUplayermove_s@@H@Z
_TEXT	SEGMENT
tv71 = -65						; size = 1
_ppmove$ = 8						; size = 4
_server$ = 12						; size = 4
?PM_Move@@YAXPAUplayermove_s@@H@Z PROC			; PM_Move, COMDAT

; 3784 : {

	push	ebp
	mov	ebp, esp
	sub	esp, 68					; 00000044H
	push	ebx
	push	esi
	push	edi

; 3785 : 	assert( pm_shared_initialized );

	cmp	DWORD PTR ?pm_shared_initialized@@3HA, 0
	jne	SHORT $LN6@PM_Move
	mov	eax, DWORD PTR ?__LINE__Var@?0??PM_Move@@YAXPAUplayermove_s@@H@Z@4JA
	add	eax, 1
	push	eax
	push	OFFSET ??_C@_1JK@HGLHDLOI@?$AAd?$AA?3?$AA?2?$AA?$CB?$AAd?$AAi?$AAf?$AAf?$AAu?$AAs?$AAi?$AAo?$AAn?$AA?5?$AA2?$AA0?$AA2?$AA0?$AA?2?$AAs?$AAo?$AAu?$AAr?$AAc?$AAe?$AA?5?$AAc?$AAo?$AAd?$AAe?$AA?5?$AA2@
	push	OFFSET ??_C@_1CM@MFEIHPMD@?$AAp?$AAm?$AA_?$AAs?$AAh?$AAa?$AAr?$AAe?$AAd?$AA_?$AAi?$AAn?$AAi?$AAt?$AAi?$AAa?$AAl?$AAi?$AAz?$AAe?$AAd?$AA?$AA@
	call	__wassert
	add	esp, 12					; 0000000cH
$LN6@PM_Move:

; 3786 : 
; 3787 : 	pmove = ppmove;

	mov	eax, DWORD PTR _ppmove$[ebp]
	mov	DWORD PTR ?pmove@@3PAUplayermove_s@@A, eax ; pmove

; 3788 : 
; 3789 : 	PM_PlayerMove( ( server != 0 ) ? true : false );

	cmp	DWORD PTR _server$[ebp], 0
	je	SHORT $LN7@PM_Move
	mov	BYTE PTR tv71[ebp], 1
	jmp	SHORT $LN8@PM_Move
$LN7@PM_Move:
	mov	BYTE PTR tv71[ebp], 0
$LN8@PM_Move:
	movzx	eax, BYTE PTR tv71[ebp]
	push	eax
	call	?PM_PlayerMove@@YAXH@Z			; PM_PlayerMove
	add	esp, 4

; 3790 : 
; 3791 : 	if ( pmove->onground != -1 )

	mov	eax, DWORD PTR ?pmove@@3PAUplayermove_s@@A ; pmove
	cmp	DWORD PTR [eax+224], -1
	je	SHORT $LN2@PM_Move

; 3792 : 		pmove->flags |= FL_ONGROUND;

	mov	eax, DWORD PTR ?pmove@@3PAUplayermove_s@@A ; pmove
	mov	ecx, DWORD PTR [eax+184]
	or	ecx, 512				; 00000200H
	mov	edx, DWORD PTR ?pmove@@3PAUplayermove_s@@A ; pmove
	mov	DWORD PTR [edx+184], ecx

; 3793 : 	else

	jmp	SHORT $LN3@PM_Move
$LN2@PM_Move:

; 3794 : 		pmove->flags &= ~FL_ONGROUND;

	mov	eax, DWORD PTR ?pmove@@3PAUplayermove_s@@A ; pmove
	mov	ecx, DWORD PTR [eax+184]
	and	ecx, -513				; fffffdffH
	mov	edx, DWORD PTR ?pmove@@3PAUplayermove_s@@A ; pmove
	mov	DWORD PTR [edx+184], ecx
$LN3@PM_Move:

; 3795 : 
; 3796 : 	// In single player, reset friction after each movement to FrictionModifier Triggers work still.
; 3797 : //	if ( !pmove->multiplayer && ( pmove->movetype == MOVETYPE_WALK  ) )
; 3798 : //		pmove->friction = 1.0f;
; 3799 : 	if( pmove->movetype == MOVETYPE_WALK ) // diffusion - https://github.com/SamVanheer/halflife-updated/commit/1d5610c1786715909107096f45599b3396451840

	mov	eax, DWORD PTR ?pmove@@3PAUplayermove_s@@A ; pmove
	cmp	DWORD PTR [eax+220], 3
	jne	SHORT $LN4@PM_Move

; 3800 : 		pmove->friction = 1.0f;

	mov	eax, DWORD PTR ?pmove@@3PAUplayermove_s@@A ; pmove
	movss	xmm0, DWORD PTR __real@3f800000
	movss	DWORD PTR [eax+196], xmm0
$LN4@PM_Move:

; 3801 : }

	pop	edi
	pop	esi
	pop	ebx
	mov	esp, ebp
	pop	ebp
	ret	0
?PM_Move@@YAXPAUplayermove_s@@H@Z ENDP			; PM_Move
_TEXT	ENDS
; Function compile flags: /Odtp /ZI
; File d:\!diffusion 2020\source code 2022\client-server\game_shared\playermove.cpp
;	COMDAT ?PM_CreateStuckTable@@YAXXZ
_TEXT	SEGMENT
_zi$ = -36						; size = 12
_i$ = -24						; size = 4
_idx$ = -20						; size = 4
_z$ = -16						; size = 4
_y$ = -12						; size = 4
_x$ = -8						; size = 4
__$ArrayPad$ = -4					; size = 4
?PM_CreateStuckTable@@YAXXZ PROC			; PM_CreateStuckTable, COMDAT

; 3668 : {

	push	ebp
	mov	ebp, esp
	sub	esp, 100				; 00000064H
	mov	eax, DWORD PTR ___security_cookie
	xor	eax, ebp
	mov	DWORD PTR __$ArrayPad$[ebp], eax
	push	ebx
	push	esi
	push	edi

; 3669 : 	float x, y, z;
; 3670 : 	int idx;
; 3671 : 	int i;
; 3672 : 	float zi[3];
; 3673 : 
; 3674 : 	memset( rgv3tStuckTable, 0, sizeof( rgv3tStuckTable ));

	push	648					; 00000288H
	push	0
	push	OFFSET ?rgv3tStuckTable@@3PAVVector@@A
	call	_memset
	add	esp, 12					; 0000000cH

; 3675 : 
; 3676 : 	idx = 0;

	mov	DWORD PTR _idx$[ebp], 0

; 3677 : 	// Little Moves.
; 3678 : 	x = y = 0;

	xorps	xmm0, xmm0
	movss	DWORD PTR _y$[ebp], xmm0
	movss	xmm0, DWORD PTR _y$[ebp]
	movss	DWORD PTR _x$[ebp], xmm0

; 3679 : 	// Z moves
; 3680 : 	for (z = -0.125 ; z <= 0.125 ; z += 0.125)

	movss	xmm0, DWORD PTR __real@be000000
	movss	DWORD PTR _z$[ebp], xmm0
	jmp	SHORT $LN4@PM_CreateS
$LN2@PM_CreateS:
	cvtss2sd xmm0, DWORD PTR _z$[ebp]
	addsd	xmm0, QWORD PTR __real@3fc0000000000000
	cvtsd2ss xmm0, xmm0
	movss	DWORD PTR _z$[ebp], xmm0
$LN4@PM_CreateS:
	cvtss2sd xmm0, DWORD PTR _z$[ebp]
	movsd	xmm1, QWORD PTR __real@3fc0000000000000
	comisd	xmm1, xmm0
	jb	SHORT $LN3@PM_CreateS

; 3681 : 	{
; 3682 : 		rgv3tStuckTable[idx][0] = x;

	imul	ecx, DWORD PTR _idx$[ebp], 12
	add	ecx, OFFSET ?rgv3tStuckTable@@3PAVVector@@A
	call	??BVector@@QAEPAMXZ			; Vector::operator float *
	mov	ecx, 4
	imul	edx, ecx, 0
	movss	xmm0, DWORD PTR _x$[ebp]
	movss	DWORD PTR [eax+edx], xmm0

; 3683 : 		rgv3tStuckTable[idx][1] = y;

	imul	ecx, DWORD PTR _idx$[ebp], 12
	add	ecx, OFFSET ?rgv3tStuckTable@@3PAVVector@@A
	call	??BVector@@QAEPAMXZ			; Vector::operator float *
	mov	ecx, 4
	shl	ecx, 0
	movss	xmm0, DWORD PTR _y$[ebp]
	movss	DWORD PTR [eax+ecx], xmm0

; 3684 : 		rgv3tStuckTable[idx][2] = z;

	imul	ecx, DWORD PTR _idx$[ebp], 12
	add	ecx, OFFSET ?rgv3tStuckTable@@3PAVVector@@A
	call	??BVector@@QAEPAMXZ			; Vector::operator float *
	mov	ecx, 4
	shl	ecx, 1
	movss	xmm0, DWORD PTR _z$[ebp]
	movss	DWORD PTR [eax+ecx], xmm0

; 3685 : 		idx++;

	mov	eax, DWORD PTR _idx$[ebp]
	add	eax, 1
	mov	DWORD PTR _idx$[ebp], eax

; 3686 : 	}

	jmp	$LN2@PM_CreateS
$LN3@PM_CreateS:

; 3687 : 	x = z = 0;

	xorps	xmm0, xmm0
	movss	DWORD PTR _z$[ebp], xmm0
	movss	xmm0, DWORD PTR _z$[ebp]
	movss	DWORD PTR _x$[ebp], xmm0

; 3688 : 	// Y moves
; 3689 : 	for (y = -0.125 ; y <= 0.125 ; y += 0.125)

	movss	xmm0, DWORD PTR __real@be000000
	movss	DWORD PTR _y$[ebp], xmm0
	jmp	SHORT $LN7@PM_CreateS
$LN5@PM_CreateS:
	cvtss2sd xmm0, DWORD PTR _y$[ebp]
	addsd	xmm0, QWORD PTR __real@3fc0000000000000
	cvtsd2ss xmm0, xmm0
	movss	DWORD PTR _y$[ebp], xmm0
$LN7@PM_CreateS:
	cvtss2sd xmm0, DWORD PTR _y$[ebp]
	movsd	xmm1, QWORD PTR __real@3fc0000000000000
	comisd	xmm1, xmm0
	jb	SHORT $LN6@PM_CreateS

; 3690 : 	{
; 3691 : 		rgv3tStuckTable[idx][0] = x;

	imul	ecx, DWORD PTR _idx$[ebp], 12
	add	ecx, OFFSET ?rgv3tStuckTable@@3PAVVector@@A
	call	??BVector@@QAEPAMXZ			; Vector::operator float *
	mov	ecx, 4
	imul	edx, ecx, 0
	movss	xmm0, DWORD PTR _x$[ebp]
	movss	DWORD PTR [eax+edx], xmm0

; 3692 : 		rgv3tStuckTable[idx][1] = y;

	imul	ecx, DWORD PTR _idx$[ebp], 12
	add	ecx, OFFSET ?rgv3tStuckTable@@3PAVVector@@A
	call	??BVector@@QAEPAMXZ			; Vector::operator float *
	mov	ecx, 4
	shl	ecx, 0
	movss	xmm0, DWORD PTR _y$[ebp]
	movss	DWORD PTR [eax+ecx], xmm0

; 3693 : 		rgv3tStuckTable[idx][2] = z;

	imul	ecx, DWORD PTR _idx$[ebp], 12
	add	ecx, OFFSET ?rgv3tStuckTable@@3PAVVector@@A
	call	??BVector@@QAEPAMXZ			; Vector::operator float *
	mov	ecx, 4
	shl	ecx, 1
	movss	xmm0, DWORD PTR _z$[ebp]
	movss	DWORD PTR [eax+ecx], xmm0

; 3694 : 		idx++;

	mov	eax, DWORD PTR _idx$[ebp]
	add	eax, 1
	mov	DWORD PTR _idx$[ebp], eax

; 3695 : 	}

	jmp	$LN5@PM_CreateS
$LN6@PM_CreateS:

; 3696 : 	y = z = 0;

	xorps	xmm0, xmm0
	movss	DWORD PTR _z$[ebp], xmm0
	movss	xmm0, DWORD PTR _z$[ebp]
	movss	DWORD PTR _y$[ebp], xmm0

; 3697 : 	// X moves
; 3698 : 	for (x = -0.125 ; x <= 0.125 ; x += 0.125)

	movss	xmm0, DWORD PTR __real@be000000
	movss	DWORD PTR _x$[ebp], xmm0
	jmp	SHORT $LN10@PM_CreateS
$LN8@PM_CreateS:
	cvtss2sd xmm0, DWORD PTR _x$[ebp]
	addsd	xmm0, QWORD PTR __real@3fc0000000000000
	cvtsd2ss xmm0, xmm0
	movss	DWORD PTR _x$[ebp], xmm0
$LN10@PM_CreateS:
	cvtss2sd xmm0, DWORD PTR _x$[ebp]
	movsd	xmm1, QWORD PTR __real@3fc0000000000000
	comisd	xmm1, xmm0
	jb	SHORT $LN9@PM_CreateS

; 3699 : 	{
; 3700 : 		rgv3tStuckTable[idx][0] = x;

	imul	ecx, DWORD PTR _idx$[ebp], 12
	add	ecx, OFFSET ?rgv3tStuckTable@@3PAVVector@@A
	call	??BVector@@QAEPAMXZ			; Vector::operator float *
	mov	ecx, 4
	imul	edx, ecx, 0
	movss	xmm0, DWORD PTR _x$[ebp]
	movss	DWORD PTR [eax+edx], xmm0

; 3701 : 		rgv3tStuckTable[idx][1] = y;

	imul	ecx, DWORD PTR _idx$[ebp], 12
	add	ecx, OFFSET ?rgv3tStuckTable@@3PAVVector@@A
	call	??BVector@@QAEPAMXZ			; Vector::operator float *
	mov	ecx, 4
	shl	ecx, 0
	movss	xmm0, DWORD PTR _y$[ebp]
	movss	DWORD PTR [eax+ecx], xmm0

; 3702 : 		rgv3tStuckTable[idx][2] = z;

	imul	ecx, DWORD PTR _idx$[ebp], 12
	add	ecx, OFFSET ?rgv3tStuckTable@@3PAVVector@@A
	call	??BVector@@QAEPAMXZ			; Vector::operator float *
	mov	ecx, 4
	shl	ecx, 1
	movss	xmm0, DWORD PTR _z$[ebp]
	movss	DWORD PTR [eax+ecx], xmm0

; 3703 : 		idx++;

	mov	eax, DWORD PTR _idx$[ebp]
	add	eax, 1
	mov	DWORD PTR _idx$[ebp], eax

; 3704 : 	}

	jmp	$LN8@PM_CreateS
$LN9@PM_CreateS:

; 3705 : 
; 3706 : 	// Remaining multi axis nudges.
; 3707 : 	for ( x = - 0.125; x <= 0.125; x += 0.250 )

	movss	xmm0, DWORD PTR __real@be000000
	movss	DWORD PTR _x$[ebp], xmm0
	jmp	SHORT $LN13@PM_CreateS
$LN11@PM_CreateS:
	cvtss2sd xmm0, DWORD PTR _x$[ebp]
	addsd	xmm0, QWORD PTR __real@3fd0000000000000
	cvtsd2ss xmm0, xmm0
	movss	DWORD PTR _x$[ebp], xmm0
$LN13@PM_CreateS:
	cvtss2sd xmm0, DWORD PTR _x$[ebp]
	movsd	xmm1, QWORD PTR __real@3fc0000000000000
	comisd	xmm1, xmm0
	jb	$LN12@PM_CreateS

; 3708 : 	{
; 3709 : 		for ( y = - 0.125; y <= 0.125; y += 0.250 )

	movss	xmm0, DWORD PTR __real@be000000
	movss	DWORD PTR _y$[ebp], xmm0
	jmp	SHORT $LN16@PM_CreateS
$LN14@PM_CreateS:
	cvtss2sd xmm0, DWORD PTR _y$[ebp]
	addsd	xmm0, QWORD PTR __real@3fd0000000000000
	cvtsd2ss xmm0, xmm0
	movss	DWORD PTR _y$[ebp], xmm0
$LN16@PM_CreateS:
	cvtss2sd xmm0, DWORD PTR _y$[ebp]
	movsd	xmm1, QWORD PTR __real@3fc0000000000000
	comisd	xmm1, xmm0
	jb	$LN15@PM_CreateS

; 3710 : 		{
; 3711 : 			for ( z = - 0.125; z <= 0.125; z += 0.250 )

	movss	xmm0, DWORD PTR __real@be000000
	movss	DWORD PTR _z$[ebp], xmm0
	jmp	SHORT $LN19@PM_CreateS
$LN17@PM_CreateS:
	cvtss2sd xmm0, DWORD PTR _z$[ebp]
	addsd	xmm0, QWORD PTR __real@3fd0000000000000
	cvtsd2ss xmm0, xmm0
	movss	DWORD PTR _z$[ebp], xmm0
$LN19@PM_CreateS:
	cvtss2sd xmm0, DWORD PTR _z$[ebp]
	movsd	xmm1, QWORD PTR __real@3fc0000000000000
	comisd	xmm1, xmm0
	jb	SHORT $LN18@PM_CreateS

; 3712 : 			{
; 3713 : 				rgv3tStuckTable[idx][0] = x;

	imul	ecx, DWORD PTR _idx$[ebp], 12
	add	ecx, OFFSET ?rgv3tStuckTable@@3PAVVector@@A
	call	??BVector@@QAEPAMXZ			; Vector::operator float *
	mov	ecx, 4
	imul	edx, ecx, 0
	movss	xmm0, DWORD PTR _x$[ebp]
	movss	DWORD PTR [eax+edx], xmm0

; 3714 : 				rgv3tStuckTable[idx][1] = y;

	imul	ecx, DWORD PTR _idx$[ebp], 12
	add	ecx, OFFSET ?rgv3tStuckTable@@3PAVVector@@A
	call	??BVector@@QAEPAMXZ			; Vector::operator float *
	mov	ecx, 4
	shl	ecx, 0
	movss	xmm0, DWORD PTR _y$[ebp]
	movss	DWORD PTR [eax+ecx], xmm0

; 3715 : 				rgv3tStuckTable[idx][2] = z;

	imul	ecx, DWORD PTR _idx$[ebp], 12
	add	ecx, OFFSET ?rgv3tStuckTable@@3PAVVector@@A
	call	??BVector@@QAEPAMXZ			; Vector::operator float *
	mov	ecx, 4
	shl	ecx, 1
	movss	xmm0, DWORD PTR _z$[ebp]
	movss	DWORD PTR [eax+ecx], xmm0

; 3716 : 				idx++;

	mov	eax, DWORD PTR _idx$[ebp]
	add	eax, 1
	mov	DWORD PTR _idx$[ebp], eax

; 3717 : 			}

	jmp	$LN17@PM_CreateS
$LN18@PM_CreateS:

; 3718 : 		}

	jmp	$LN14@PM_CreateS
$LN15@PM_CreateS:

; 3719 : 	}

	jmp	$LN11@PM_CreateS
$LN12@PM_CreateS:

; 3720 : 
; 3721 : 	// Big Moves.
; 3722 : 	x = y = 0;

	xorps	xmm0, xmm0
	movss	DWORD PTR _y$[ebp], xmm0
	movss	xmm0, DWORD PTR _y$[ebp]
	movss	DWORD PTR _x$[ebp], xmm0

; 3723 : 	zi[0] = 0.0f;

	mov	eax, 4
	imul	ecx, eax, 0
	xorps	xmm0, xmm0
	movss	DWORD PTR _zi$[ebp+ecx], xmm0

; 3724 : 	zi[1] = 1.0f;

	mov	eax, 4
	shl	eax, 0
	movss	xmm0, DWORD PTR __real@3f800000
	movss	DWORD PTR _zi$[ebp+eax], xmm0

; 3725 : 	zi[2] = 6.0f;

	mov	eax, 4
	shl	eax, 1
	movss	xmm0, DWORD PTR __real@40c00000
	movss	DWORD PTR _zi$[ebp+eax], xmm0

; 3726 : 
; 3727 : 	for (i = 0; i < 3; i++)

	mov	DWORD PTR _i$[ebp], 0
	jmp	SHORT $LN22@PM_CreateS
$LN20@PM_CreateS:
	mov	eax, DWORD PTR _i$[ebp]
	add	eax, 1
	mov	DWORD PTR _i$[ebp], eax
$LN22@PM_CreateS:
	cmp	DWORD PTR _i$[ebp], 3
	jge	SHORT $LN21@PM_CreateS

; 3728 : 	{
; 3729 : 		// Z moves
; 3730 : 		z = zi[i];

	mov	eax, DWORD PTR _i$[ebp]
	movss	xmm0, DWORD PTR _zi$[ebp+eax*4]
	movss	DWORD PTR _z$[ebp], xmm0

; 3731 : 		rgv3tStuckTable[idx][0] = x;

	imul	ecx, DWORD PTR _idx$[ebp], 12
	add	ecx, OFFSET ?rgv3tStuckTable@@3PAVVector@@A
	call	??BVector@@QAEPAMXZ			; Vector::operator float *
	mov	ecx, 4
	imul	edx, ecx, 0
	movss	xmm0, DWORD PTR _x$[ebp]
	movss	DWORD PTR [eax+edx], xmm0

; 3732 : 		rgv3tStuckTable[idx][1] = y;

	imul	ecx, DWORD PTR _idx$[ebp], 12
	add	ecx, OFFSET ?rgv3tStuckTable@@3PAVVector@@A
	call	??BVector@@QAEPAMXZ			; Vector::operator float *
	mov	ecx, 4
	shl	ecx, 0
	movss	xmm0, DWORD PTR _y$[ebp]
	movss	DWORD PTR [eax+ecx], xmm0

; 3733 : 		rgv3tStuckTable[idx][2] = z;

	imul	ecx, DWORD PTR _idx$[ebp], 12
	add	ecx, OFFSET ?rgv3tStuckTable@@3PAVVector@@A
	call	??BVector@@QAEPAMXZ			; Vector::operator float *
	mov	ecx, 4
	shl	ecx, 1
	movss	xmm0, DWORD PTR _z$[ebp]
	movss	DWORD PTR [eax+ecx], xmm0

; 3734 : 		idx++;

	mov	eax, DWORD PTR _idx$[ebp]
	add	eax, 1
	mov	DWORD PTR _idx$[ebp], eax

; 3735 : 	}

	jmp	$LN20@PM_CreateS
$LN21@PM_CreateS:

; 3736 : 
; 3737 : 	x = z = 0;

	xorps	xmm0, xmm0
	movss	DWORD PTR _z$[ebp], xmm0
	movss	xmm0, DWORD PTR _z$[ebp]
	movss	DWORD PTR _x$[ebp], xmm0

; 3738 : 
; 3739 : 	// Y moves
; 3740 : 	for (y = -2.0f ; y <= 2.0f ; y += 2.0)

	movss	xmm0, DWORD PTR __real@c0000000
	movss	DWORD PTR _y$[ebp], xmm0
	jmp	SHORT $LN25@PM_CreateS
$LN23@PM_CreateS:
	cvtss2sd xmm0, DWORD PTR _y$[ebp]
	addsd	xmm0, QWORD PTR __real@4000000000000000
	cvtsd2ss xmm0, xmm0
	movss	DWORD PTR _y$[ebp], xmm0
$LN25@PM_CreateS:
	movss	xmm0, DWORD PTR __real@40000000
	comiss	xmm0, DWORD PTR _y$[ebp]
	jb	SHORT $LN24@PM_CreateS

; 3741 : 	{
; 3742 : 		rgv3tStuckTable[idx][0] = x;

	imul	ecx, DWORD PTR _idx$[ebp], 12
	add	ecx, OFFSET ?rgv3tStuckTable@@3PAVVector@@A
	call	??BVector@@QAEPAMXZ			; Vector::operator float *
	mov	ecx, 4
	imul	edx, ecx, 0
	movss	xmm0, DWORD PTR _x$[ebp]
	movss	DWORD PTR [eax+edx], xmm0

; 3743 : 		rgv3tStuckTable[idx][1] = y;

	imul	ecx, DWORD PTR _idx$[ebp], 12
	add	ecx, OFFSET ?rgv3tStuckTable@@3PAVVector@@A
	call	??BVector@@QAEPAMXZ			; Vector::operator float *
	mov	ecx, 4
	shl	ecx, 0
	movss	xmm0, DWORD PTR _y$[ebp]
	movss	DWORD PTR [eax+ecx], xmm0

; 3744 : 		rgv3tStuckTable[idx][2] = z;

	imul	ecx, DWORD PTR _idx$[ebp], 12
	add	ecx, OFFSET ?rgv3tStuckTable@@3PAVVector@@A
	call	??BVector@@QAEPAMXZ			; Vector::operator float *
	mov	ecx, 4
	shl	ecx, 1
	movss	xmm0, DWORD PTR _z$[ebp]
	movss	DWORD PTR [eax+ecx], xmm0

; 3745 : 		idx++;

	mov	eax, DWORD PTR _idx$[ebp]
	add	eax, 1
	mov	DWORD PTR _idx$[ebp], eax

; 3746 : 	}

	jmp	$LN23@PM_CreateS
$LN24@PM_CreateS:

; 3747 : 	y = z = 0;

	xorps	xmm0, xmm0
	movss	DWORD PTR _z$[ebp], xmm0
	movss	xmm0, DWORD PTR _z$[ebp]
	movss	DWORD PTR _y$[ebp], xmm0

; 3748 : 	// X moves
; 3749 : 	for (x = -2.0f ; x <= 2.0f ; x += 2.0f)

	movss	xmm0, DWORD PTR __real@c0000000
	movss	DWORD PTR _x$[ebp], xmm0
	jmp	SHORT $LN28@PM_CreateS
$LN26@PM_CreateS:
	movss	xmm0, DWORD PTR _x$[ebp]
	addss	xmm0, DWORD PTR __real@40000000
	movss	DWORD PTR _x$[ebp], xmm0
$LN28@PM_CreateS:
	movss	xmm0, DWORD PTR __real@40000000
	comiss	xmm0, DWORD PTR _x$[ebp]
	jb	SHORT $LN27@PM_CreateS

; 3750 : 	{
; 3751 : 		rgv3tStuckTable[idx][0] = x;

	imul	ecx, DWORD PTR _idx$[ebp], 12
	add	ecx, OFFSET ?rgv3tStuckTable@@3PAVVector@@A
	call	??BVector@@QAEPAMXZ			; Vector::operator float *
	mov	ecx, 4
	imul	edx, ecx, 0
	movss	xmm0, DWORD PTR _x$[ebp]
	movss	DWORD PTR [eax+edx], xmm0

; 3752 : 		rgv3tStuckTable[idx][1] = y;

	imul	ecx, DWORD PTR _idx$[ebp], 12
	add	ecx, OFFSET ?rgv3tStuckTable@@3PAVVector@@A
	call	??BVector@@QAEPAMXZ			; Vector::operator float *
	mov	ecx, 4
	shl	ecx, 0
	movss	xmm0, DWORD PTR _y$[ebp]
	movss	DWORD PTR [eax+ecx], xmm0

; 3753 : 		rgv3tStuckTable[idx][2] = z;

	imul	ecx, DWORD PTR _idx$[ebp], 12
	add	ecx, OFFSET ?rgv3tStuckTable@@3PAVVector@@A
	call	??BVector@@QAEPAMXZ			; Vector::operator float *
	mov	ecx, 4
	shl	ecx, 1
	movss	xmm0, DWORD PTR _z$[ebp]
	movss	DWORD PTR [eax+ecx], xmm0

; 3754 : 		idx++;

	mov	eax, DWORD PTR _idx$[ebp]
	add	eax, 1
	mov	DWORD PTR _idx$[ebp], eax

; 3755 : 	}

	jmp	$LN26@PM_CreateS
$LN27@PM_CreateS:

; 3756 : 
; 3757 : 	// Remaining multi axis nudges.
; 3758 : 	for (i = 0 ; i < 3; i++)

	mov	DWORD PTR _i$[ebp], 0
	jmp	SHORT $LN31@PM_CreateS
$LN29@PM_CreateS:
	mov	eax, DWORD PTR _i$[ebp]
	add	eax, 1
	mov	DWORD PTR _i$[ebp], eax
$LN31@PM_CreateS:
	cmp	DWORD PTR _i$[ebp], 3
	jge	$LN30@PM_CreateS

; 3759 : 	{
; 3760 : 		z = zi[i];

	mov	eax, DWORD PTR _i$[ebp]
	movss	xmm0, DWORD PTR _zi$[ebp+eax*4]
	movss	DWORD PTR _z$[ebp], xmm0

; 3761 : 		
; 3762 : 		for (x = -2.0f ; x <= 2.0f ; x += 2.0f)

	movss	xmm0, DWORD PTR __real@c0000000
	movss	DWORD PTR _x$[ebp], xmm0
	jmp	SHORT $LN34@PM_CreateS
$LN32@PM_CreateS:
	movss	xmm0, DWORD PTR _x$[ebp]
	addss	xmm0, DWORD PTR __real@40000000
	movss	DWORD PTR _x$[ebp], xmm0
$LN34@PM_CreateS:
	movss	xmm0, DWORD PTR __real@40000000
	comiss	xmm0, DWORD PTR _x$[ebp]
	jb	$LN33@PM_CreateS

; 3763 : 		{
; 3764 : 			for (y = -2.0f ; y <= 2.0f ; y += 2.0)

	movss	xmm0, DWORD PTR __real@c0000000
	movss	DWORD PTR _y$[ebp], xmm0
	jmp	SHORT $LN37@PM_CreateS
$LN35@PM_CreateS:
	cvtss2sd xmm0, DWORD PTR _y$[ebp]
	addsd	xmm0, QWORD PTR __real@4000000000000000
	cvtsd2ss xmm0, xmm0
	movss	DWORD PTR _y$[ebp], xmm0
$LN37@PM_CreateS:
	movss	xmm0, DWORD PTR __real@40000000
	comiss	xmm0, DWORD PTR _y$[ebp]
	jb	SHORT $LN36@PM_CreateS

; 3765 : 			{
; 3766 : 				rgv3tStuckTable[idx][0] = x;

	imul	ecx, DWORD PTR _idx$[ebp], 12
	add	ecx, OFFSET ?rgv3tStuckTable@@3PAVVector@@A
	call	??BVector@@QAEPAMXZ			; Vector::operator float *
	mov	ecx, 4
	imul	edx, ecx, 0
	movss	xmm0, DWORD PTR _x$[ebp]
	movss	DWORD PTR [eax+edx], xmm0

; 3767 : 				rgv3tStuckTable[idx][1] = y;

	imul	ecx, DWORD PTR _idx$[ebp], 12
	add	ecx, OFFSET ?rgv3tStuckTable@@3PAVVector@@A
	call	??BVector@@QAEPAMXZ			; Vector::operator float *
	mov	ecx, 4
	shl	ecx, 0
	movss	xmm0, DWORD PTR _y$[ebp]
	movss	DWORD PTR [eax+ecx], xmm0

; 3768 : 				rgv3tStuckTable[idx][2] = z;

	imul	ecx, DWORD PTR _idx$[ebp], 12
	add	ecx, OFFSET ?rgv3tStuckTable@@3PAVVector@@A
	call	??BVector@@QAEPAMXZ			; Vector::operator float *
	mov	ecx, 4
	shl	ecx, 1
	movss	xmm0, DWORD PTR _z$[ebp]
	movss	DWORD PTR [eax+ecx], xmm0

; 3769 : 				idx++;

	mov	eax, DWORD PTR _idx$[ebp]
	add	eax, 1
	mov	DWORD PTR _idx$[ebp], eax

; 3770 : 			}

	jmp	$LN35@PM_CreateS
$LN36@PM_CreateS:

; 3771 : 		}

	jmp	$LN32@PM_CreateS
$LN33@PM_CreateS:

; 3772 : 	}

	jmp	$LN29@PM_CreateS
$LN30@PM_CreateS:

; 3773 : 
; 3774 : 	assert( idx < sizeof( rgv3tStuckTable ) / sizeof( rgv3tStuckTable[0] ));

	cmp	DWORD PTR _idx$[ebp], 54		; 00000036H
	jb	SHORT $LN39@PM_CreateS
	mov	eax, DWORD PTR ?__LINE__Var@?0??PM_CreateStuckTable@@YAXXZ@4JA
	add	eax, 106				; 0000006aH
	push	eax
	push	OFFSET ??_C@_1JK@HGLHDLOI@?$AAd?$AA?3?$AA?2?$AA?$CB?$AAd?$AAi?$AAf?$AAf?$AAu?$AAs?$AAi?$AAo?$AAn?$AA?5?$AA2?$AA0?$AA2?$AA0?$AA?2?$AAs?$AAo?$AAu?$AAr?$AAc?$AAe?$AA?5?$AAc?$AAo?$AAd?$AAe?$AA?5?$AA2@
	push	OFFSET ??_C@_1HO@FIDBPDJD@?$AAi?$AAd?$AAx?$AA?5?$AA?$DM?$AA?5?$AAs?$AAi?$AAz?$AAe?$AAo?$AAf?$AA?$CI?$AA?5?$AAr?$AAg?$AAv?$AA3?$AAt?$AAS?$AAt?$AAu?$AAc?$AAk?$AAT?$AAa?$AAb?$AAl?$AAe?$AA?5?$AA?$CJ?$AA?5@
	call	__wassert
	add	esp, 12					; 0000000cH
$LN39@PM_CreateS:

; 3775 : }

	pop	edi
	pop	esi
	pop	ebx
	mov	ecx, DWORD PTR __$ArrayPad$[ebp]
	xor	ecx, ebp
	call	@__security_check_cookie@4
	mov	esp, ebp
	pop	ebp
	ret	0
?PM_CreateStuckTable@@YAXXZ ENDP			; PM_CreateStuckTable
_TEXT	ENDS
; Function compile flags: /Odtp /ZI
; File d:\!diffusion 2020\source code 2022\client-server\game_shared\playermove.cpp
;	COMDAT ?PM_PlayerMove@@YAXH@Z
_TEXT	SEGMENT
tv179 = -76						; size = 4
_LadderSound$ = -8					; size = 4
_pLadder$ = -4						; size = 4
_server$ = 8						; size = 4
?PM_PlayerMove@@YAXH@Z PROC				; PM_PlayerMove, COMDAT

; 3419 : {

	push	ebp
	mov	ebp, esp
	sub	esp, 76					; 0000004cH
	push	ebx
	push	esi
	push	edi

; 3420 : 	physent_t *pLadder = NULL;

	mov	DWORD PTR _pLadder$[ebp], 0

; 3421 : 
; 3422 : 	// Are we running server code?
; 3423 : 	pmove->server = server;       

	mov	eax, DWORD PTR ?pmove@@3PAUplayermove_s@@A ; pmove
	mov	ecx, DWORD PTR _server$[ebp]
	mov	DWORD PTR [eax+4], ecx

; 3424 : 
; 3425 : #ifndef CLIENT_DLL
; 3426 : 	if( g_fGameOver ) // diffusion
; 3427 : 		return;
; 3428 : #endif
; 3429 : 
; 3430 : 	// Adjust speeds etc.
; 3431 : 	PM_CheckParameters();

	call	?PM_CheckParameters@@YAXXZ		; PM_CheckParameters

; 3432 : 
; 3433 : 	// Assume we don't touch anything
; 3434 : 	pmove->numtouch = 0;                    

	mov	eax, DWORD PTR ?pmove@@3PAUplayermove_s@@A ; pmove
	mov	DWORD PTR [eax+283788], 0

; 3435 : 
; 3436 : 	// # of msec to apply movement
; 3437 : 	pmove->frametime = pmove->cmd.msec * 0.001;    

	mov	eax, DWORD PTR ?pmove@@3PAUplayermove_s@@A ; pmove
	movzx	ecx, BYTE PTR [eax+283738]
	cvtsi2sd xmm0, ecx
	mulsd	xmm0, QWORD PTR __real@3f50624dd2f1a9fc
	cvtsd2ss xmm0, xmm0
	mov	edx, DWORD PTR ?pmove@@3PAUplayermove_s@@A ; pmove
	movss	DWORD PTR [edx+16], xmm0

; 3438 : 
; 3439 : 	PM_ReduceTimers();

	call	?PM_ReduceTimers@@YAXXZ			; PM_ReduceTimers

; 3440 : 
; 3441 : 	// Convert view angles to vectors
; 3442 : 	AngleVectors( pmove->angles, pmove->forward, pmove->right, pmove->up );

	mov	ecx, DWORD PTR ?pmove@@3PAUplayermove_s@@A ; pmove
	add	ecx, 44					; 0000002cH
	call	??BVector@@QAEPAMXZ			; Vector::operator float *
	push	eax
	mov	ecx, DWORD PTR ?pmove@@3PAUplayermove_s@@A ; pmove
	add	ecx, 32					; 00000020H
	call	??BVector@@QAEPAMXZ			; Vector::operator float *
	push	eax
	mov	ecx, DWORD PTR ?pmove@@3PAUplayermove_s@@A ; pmove
	add	ecx, 20					; 00000014H
	call	??BVector@@QAEPAMXZ			; Vector::operator float *
	push	eax
	mov	ecx, DWORD PTR ?pmove@@3PAUplayermove_s@@A ; pmove
	add	ecx, 68					; 00000044H
	call	??BVector@@QAEPAMXZ			; Vector::operator float *
	push	eax
	call	DWORD PTR ?gEngfuncs@@3Ucl_enginefuncs_s@@A+96
	add	esp, 16					; 00000010H

; 3443 : 
; 3444 : 	// Special handling for spectator and observers. (iuser1 is set if the player's in observer mode)
; 3445 : 	if ( pmove->spectator || pmove->iuser1 > 0 )

	mov	eax, DWORD PTR ?pmove@@3PAUplayermove_s@@A ; pmove
	cmp	DWORD PTR [eax+216], 0
	jne	SHORT $LN5@PM_PlayerM
	mov	eax, DWORD PTR ?pmove@@3PAUplayermove_s@@A ; pmove
	cmp	DWORD PTR [eax+508], 0
	jle	SHORT $LN4@PM_PlayerM
$LN5@PM_PlayerM:

; 3446 : 	{
; 3447 : 		PM_SpectatorMove();

	call	?PM_SpectatorMove@@YAXXZ		; PM_SpectatorMove

; 3448 : 		PM_CategorizePosition();

	call	?PM_CategorizePosition@@YAXXZ		; PM_CategorizePosition

; 3449 : 		return;

	jmp	$LN1@PM_PlayerM
$LN4@PM_PlayerM:

; 3450 : 	}
; 3451 : 
; 3452 : 	// Always try and unstick us unless we are in NOCLIP mode
; 3453 : 	if( pmove->movetype != MOVETYPE_NOCLIP && pmove->movetype != MOVETYPE_NONE )

	mov	eax, DWORD PTR ?pmove@@3PAUplayermove_s@@A ; pmove
	cmp	DWORD PTR [eax+220], 8
	je	SHORT $LN7@PM_PlayerM
	mov	eax, DWORD PTR ?pmove@@3PAUplayermove_s@@A ; pmove
	cmp	DWORD PTR [eax+220], 0
	je	SHORT $LN7@PM_PlayerM

; 3454 : 	{
; 3455 : 		if( PM_CheckStuck() )

	call	?PM_CheckStuck@@YAHXZ			; PM_CheckStuck
	test	eax, eax
	je	SHORT $LN7@PM_PlayerM

; 3456 : 			return;  // Can't move, we're stuck

	jmp	$LN1@PM_PlayerM
$LN7@PM_PlayerM:

; 3457 : 	}
; 3458 : 
; 3459 : 	// Now that we are "unstuck", see where we are ( waterlevel and type, pmove->onground ).
; 3460 : 	PM_CategorizePosition();

	call	?PM_CategorizePosition@@YAXXZ		; PM_CategorizePosition

; 3461 : 
; 3462 : 	// Store off the starting water level
; 3463 : 	pmove->oldwaterlevel = pmove->waterlevel;

	mov	eax, DWORD PTR ?pmove@@3PAUplayermove_s@@A ; pmove
	mov	ecx, DWORD PTR ?pmove@@3PAUplayermove_s@@A ; pmove
	mov	edx, DWORD PTR [ecx+228]
	mov	DWORD PTR [eax+236], edx

; 3464 : 	if (pmove->watertype > CONTENT_FLYFIELD)

	mov	eax, DWORD PTR ?pmove@@3PAUplayermove_s@@A ; pmove
	cmp	DWORD PTR [eax+232], -17		; ffffffefH
	jle	SHORT $LN8@PM_PlayerM

; 3465 : 		pmove->oldwaterlevel = pmove->waterlevel;

	mov	eax, DWORD PTR ?pmove@@3PAUplayermove_s@@A ; pmove
	mov	ecx, DWORD PTR ?pmove@@3PAUplayermove_s@@A ; pmove
	mov	edx, DWORD PTR [ecx+228]
	mov	DWORD PTR [eax+236], edx

; 3466 : 	else

	jmp	SHORT $LN9@PM_PlayerM
$LN8@PM_PlayerM:

; 3467 : 		pmove->oldwaterlevel = 0;

	mov	eax, DWORD PTR ?pmove@@3PAUplayermove_s@@A ; pmove
	mov	DWORD PTR [eax+236], 0
$LN9@PM_PlayerM:

; 3468 : 
; 3469 : 	// If we are not on ground, store off how fast we are moving down
; 3470 : 	if( pmove->onground == -1 )

	mov	eax, DWORD PTR ?pmove@@3PAUplayermove_s@@A ; pmove
	cmp	DWORD PTR [eax+224], -1
	jne	SHORT $LN11@PM_PlayerM

; 3471 : 	{
; 3472 : 		pmove->flFallVelocity = -pmove->velocity[2];

	mov	ecx, DWORD PTR ?pmove@@3PAUplayermove_s@@A ; pmove
	add	ecx, 92					; 0000005cH
	call	??BVector@@QAEPAMXZ			; Vector::operator float *
	mov	ecx, 4
	shl	ecx, 1
	movss	xmm0, DWORD PTR [eax+ecx]
	xorps	xmm0, DWORD PTR __xmm@80000000800000008000000080000000
	mov	edx, DWORD PTR ?pmove@@3PAUplayermove_s@@A ; pmove
	movss	DWORD PTR [edx+156], xmm0

; 3473 : 		if( pmove->effects & EF_UPSIDEDOWN )

	mov	eax, DWORD PTR ?pmove@@3PAUplayermove_s@@A ; pmove
	mov	ecx, DWORD PTR [eax+180]
	and	ecx, 4194304				; 00400000H
	je	SHORT $LN11@PM_PlayerM

; 3474 : 			pmove->flFallVelocity *= -1;

	mov	eax, DWORD PTR ?pmove@@3PAUplayermove_s@@A ; pmove
	movss	xmm0, DWORD PTR [eax+156]
	mulss	xmm0, DWORD PTR __real@bf800000
	mov	ecx, DWORD PTR ?pmove@@3PAUplayermove_s@@A ; pmove
	movss	DWORD PTR [ecx+156], xmm0
$LN11@PM_PlayerM:

; 3475 : 	}
; 3476 : 
; 3477 : 	g_onladder = 0;

	mov	DWORD PTR ?g_onladder@@3HA, 0		; g_onladder

; 3478 : 	int LadderSound = 0;

	mov	DWORD PTR _LadderSound$[ebp], 0

; 3479 : 
; 3480 : 	// Don't run ladder code if dead or on a train
; 3481 : 	if ( !pmove->dead && !(pmove->flags & FL_ONTRAIN) )

	mov	eax, DWORD PTR ?pmove@@3PAUplayermove_s@@A ; pmove
	cmp	DWORD PTR [eax+208], 0
	jne	SHORT $LN13@PM_PlayerM
	mov	eax, DWORD PTR ?pmove@@3PAUplayermove_s@@A ; pmove
	mov	ecx, DWORD PTR [eax+184]
	and	ecx, 16777216				; 01000000H
	jne	SHORT $LN13@PM_PlayerM

; 3482 : 	{
; 3483 : 		pLadder = PM_Ladder();

	call	?PM_Ladder@@YAPAUphysent_s@@XZ		; PM_Ladder
	mov	DWORD PTR _pLadder$[ebp], eax

; 3484 : 		if( pLadder )

	cmp	DWORD PTR _pLadder$[ebp], 0
	je	SHORT $LN13@PM_PlayerM

; 3485 : 		{
; 3486 : 			g_onladder = 1;

	mov	DWORD PTR ?g_onladder@@3HA, 1		; g_onladder

; 3487 : 			LadderSound = pLadder->iuser1;

	mov	eax, DWORD PTR _pLadder$[ebp]
	mov	ecx, DWORD PTR [eax+144]
	mov	DWORD PTR _LadderSound$[ebp], ecx
$LN13@PM_PlayerM:

; 3488 : 		}
; 3489 : 	}
; 3490 : 
; 3491 : 	PM_UpdateStepSound( LadderSound );

	mov	eax, DWORD PTR _LadderSound$[ebp]
	push	eax
	call	?PM_UpdateStepSound@@YAXH@Z		; PM_UpdateStepSound
	add	esp, 4

; 3492 : 
; 3493 : 	if( pmove->movetype == MOVETYPE_NOCLIP ) // diffusion

	mov	eax, DWORD PTR ?pmove@@3PAUplayermove_s@@A ; pmove
	cmp	DWORD PTR [eax+220], 8
	jne	SHORT $LN14@PM_PlayerM

; 3494 : 		PM_UnDuck();

	call	?PM_UnDuck@@YAXXZ			; PM_UnDuck

; 3495 : 	else

	jmp	SHORT $LN15@PM_PlayerM
$LN14@PM_PlayerM:

; 3496 : 		PM_Duck();

	call	?PM_Duck@@YAXXZ				; PM_Duck
$LN15@PM_PlayerM:

; 3497 : 	
; 3498 : 	// Don't run ladder code if dead or on a train
; 3499 : 	if ( !pmove->dead && !(pmove->flags & FL_ONTRAIN) )

	mov	eax, DWORD PTR ?pmove@@3PAUplayermove_s@@A ; pmove
	cmp	DWORD PTR [eax+208], 0
	jne	SHORT $LN19@PM_PlayerM
	mov	eax, DWORD PTR ?pmove@@3PAUplayermove_s@@A ; pmove
	mov	ecx, DWORD PTR [eax+184]
	and	ecx, 16777216				; 01000000H
	jne	SHORT $LN19@PM_PlayerM

; 3500 : 	{
; 3501 : 		if ( pLadder )

	cmp	DWORD PTR _pLadder$[ebp], 0
	je	SHORT $LN17@PM_PlayerM

; 3502 : 			PM_LadderMove( pLadder );

	mov	eax, DWORD PTR _pLadder$[ebp]
	push	eax
	call	?PM_LadderMove@@YAXPAUphysent_s@@@Z	; PM_LadderMove
	add	esp, 4
	jmp	SHORT $LN19@PM_PlayerM
$LN17@PM_PlayerM:

; 3503 : 		else if ( pmove->movetype != MOVETYPE_WALK && pmove->movetype != MOVETYPE_NOCLIP && pmove->movetype != MOVETYPE_NONE )

	mov	eax, DWORD PTR ?pmove@@3PAUplayermove_s@@A ; pmove
	cmp	DWORD PTR [eax+220], 3
	je	SHORT $LN19@PM_PlayerM
	mov	eax, DWORD PTR ?pmove@@3PAUplayermove_s@@A ; pmove
	cmp	DWORD PTR [eax+220], 8
	je	SHORT $LN19@PM_PlayerM
	mov	eax, DWORD PTR ?pmove@@3PAUplayermove_s@@A ; pmove
	cmp	DWORD PTR [eax+220], 0
	je	SHORT $LN19@PM_PlayerM

; 3504 : 		{
; 3505 : 			// Clear ladder stuff unless player is noclipping
; 3506 : 			//  it will be set immediately again next frame if necessary
; 3507 : 			pmove->movetype = MOVETYPE_WALK;

	mov	eax, DWORD PTR ?pmove@@3PAUplayermove_s@@A ; pmove
	mov	DWORD PTR [eax+220], 3
$LN19@PM_PlayerM:

; 3508 : 		}
; 3509 : 	}
; 3510 : 
; 3511 : /*	// Slow down, I'm pulling it! (a box maybe) but only when I'm standing on ground
; 3512 : 	if ( ( pmove->onground != -1 ) && ( pmove->cmd.buttons & IN_USE) )
; 3513 : 	{
; 3514 : 		pmove->velocity *= 0.3f;
; 3515 : 	}
; 3516 : */
; 3517 : 	// Handle movement
; 3518 : 	switch ( pmove->movetype )

	mov	eax, DWORD PTR ?pmove@@3PAUplayermove_s@@A ; pmove
	mov	ecx, DWORD PTR [eax+220]
	mov	DWORD PTR tv179[ebp], ecx
	cmp	DWORD PTR tv179[ebp], 10		; 0000000aH
	ja	SHORT $LN20@PM_PlayerM
	mov	edx, DWORD PTR tv179[ebp]
	movzx	eax, BYTE PTR $LN49@PM_PlayerM[edx]
	jmp	DWORD PTR $LN50@PM_PlayerM[eax*4]
$LN20@PM_PlayerM:

; 3519 : 	{
; 3520 : 	default:
; 3521 : 		pmove->Con_DPrintf("Bogus pmove player movetype %i on (%i) 0=cl 1=sv\n", pmove->movetype, pmove->server);

	mov	eax, DWORD PTR ?pmove@@3PAUplayermove_s@@A ; pmove
	mov	ecx, DWORD PTR [eax+4]
	push	ecx
	mov	edx, DWORD PTR ?pmove@@3PAUplayermove_s@@A ; pmove
	mov	eax, DWORD PTR [edx+220]
	push	eax
	push	OFFSET ??_C@_0DC@MKOCNFCM@Bogus?5pmove?5player?5movetype?5?$CFi?5o@
	mov	ecx, DWORD PTR ?pmove@@3PAUplayermove_s@@A ; pmove
	mov	edx, DWORD PTR [ecx+324964]
	call	edx
	add	esp, 12					; 0000000cH

; 3522 : 		break;

	jmp	$LN2@PM_PlayerM
$LN21@PM_PlayerM:

; 3523 : 
; 3524 : 	case MOVETYPE_NONE:
; 3525 : 		break;

	jmp	$LN2@PM_PlayerM
$LN22@PM_PlayerM:

; 3526 : 
; 3527 : 	case MOVETYPE_NOCLIP:
; 3528 : 		PM_NoClip();

	call	?PM_NoClip@@YAXXZ			; PM_NoClip

; 3529 : 		break;

	jmp	$LN2@PM_PlayerM
$LN23@PM_PlayerM:

; 3530 : 
; 3531 : 	case MOVETYPE_TOSS:
; 3532 : 	case MOVETYPE_BOUNCE:
; 3533 : 		PM_Physics_Toss();

	call	?PM_Physics_Toss@@YAXXZ			; PM_Physics_Toss

; 3534 : 		break;

	jmp	$LN2@PM_PlayerM
$LN24@PM_PlayerM:

; 3535 : 
; 3536 : 	case MOVETYPE_FLY:
; 3537 : 	
; 3538 : 		PM_CheckWater();

	call	?PM_CheckWater@@YAHXZ			; PM_CheckWater

; 3539 : 
; 3540 : 		// Was jump button pressed?
; 3541 : 		// If so, set velocity to 270 away from ladder.  This is currently wrong.
; 3542 : 		// Also, set MOVE_TYPE to walk, too.
; 3543 : 		if ( pmove->cmd.buttons & IN_JUMP )

	mov	eax, DWORD PTR ?pmove@@3PAUplayermove_s@@A ; pmove
	movzx	ecx, WORD PTR [eax+283766]
	and	ecx, 2
	je	SHORT $LN25@PM_PlayerM

; 3544 : 		{
; 3545 : 			if ( !pLadder )

	cmp	DWORD PTR _pLadder$[ebp], 0
	jne	SHORT $LN27@PM_PlayerM

; 3546 : 				PM_Jump ();

	call	?PM_Jump@@YAXXZ				; PM_Jump
$LN27@PM_PlayerM:

; 3547 : 		}
; 3548 : 		else

	jmp	SHORT $LN26@PM_PlayerM
$LN25@PM_PlayerM:

; 3549 : 			pmove->oldbuttons &= ~IN_JUMP;

	mov	eax, DWORD PTR ?pmove@@3PAUplayermove_s@@A ; pmove
	mov	ecx, DWORD PTR [eax+200]
	and	ecx, -3					; fffffffdH
	mov	edx, DWORD PTR ?pmove@@3PAUplayermove_s@@A ; pmove
	mov	DWORD PTR [edx+200], ecx
$LN26@PM_PlayerM:

; 3550 : 		
; 3551 : 		// perform the move accounting for any base velocity.
; 3552 : 		pmove->velocity += pmove->basevelocity;

	mov	eax, DWORD PTR ?pmove@@3PAUplayermove_s@@A ; pmove
	add	eax, 116				; 00000074H
	push	eax
	mov	ecx, DWORD PTR ?pmove@@3PAUplayermove_s@@A ; pmove
	add	ecx, 92					; 0000005cH
	call	??YVector@@QAEAAV0@ABV0@@Z		; Vector::operator+=

; 3553 : 
; 3554 : 		PM_FlyMove();

	call	?PM_FlyMove@@YAHXZ			; PM_FlyMove

; 3555 : 
; 3556 : 		pmove->velocity -= pmove->basevelocity;

	mov	eax, DWORD PTR ?pmove@@3PAUplayermove_s@@A ; pmove
	add	eax, 116				; 00000074H
	push	eax
	mov	ecx, DWORD PTR ?pmove@@3PAUplayermove_s@@A ; pmove
	add	ecx, 92					; 0000005cH
	call	??ZVector@@QAEAAV0@ABV0@@Z		; Vector::operator-=

; 3557 : 		break;

	jmp	$LN2@PM_PlayerM
$LN28@PM_PlayerM:

; 3558 : 
; 3559 : 	case MOVETYPE_WALK:
; 3560 : 		if ( !PM_InWater() )

	call	?PM_InWater@@YAHXZ			; PM_InWater
	test	eax, eax
	jne	SHORT $LN29@PM_PlayerM

; 3561 : 			PM_AddCorrectGravity();

	call	?PM_AddCorrectGravity@@YAXXZ		; PM_AddCorrectGravity
$LN29@PM_PlayerM:

; 3562 : 
; 3563 : 		// If we are leaping out of the water, just update the counters.
; 3564 : 		if ( pmove->waterjumptime )

	mov	eax, DWORD PTR ?pmove@@3PAUplayermove_s@@A ; pmove
	movss	xmm0, DWORD PTR [eax+204]
	ucomiss	xmm0, DWORD PTR __real@00000000
	lahf
	test	ah, 68					; 00000044H
	jnp	SHORT $LN30@PM_PlayerM

; 3565 : 		{
; 3566 : 			PM_WaterJump();

	call	?PM_WaterJump@@YAXXZ			; PM_WaterJump

; 3567 : 			PM_FlyMove();

	call	?PM_FlyMove@@YAHXZ			; PM_FlyMove

; 3568 : 
; 3569 : 			// Make sure waterlevel is set correctly
; 3570 : 			PM_CheckWater();

	call	?PM_CheckWater@@YAHXZ			; PM_CheckWater

; 3571 : 			return;

	jmp	$LN1@PM_PlayerM
$LN30@PM_PlayerM:

; 3572 : 		}
; 3573 : 
; 3574 : 		// If we are swimming in the water, see if we are nudging against a place we can jump up out
; 3575 : 		//  of, and, if so, start out jump.  Otherwise, if we are not moving up, then reset jump timer to 0
; 3576 : 		if ( pmove->waterlevel >= 2 && pmove->watertype != CONTENT_FOG) 

	mov	eax, DWORD PTR ?pmove@@3PAUplayermove_s@@A ; pmove
	cmp	DWORD PTR [eax+228], 2
	jl	$LN31@PM_PlayerM
	mov	eax, DWORD PTR ?pmove@@3PAUplayermove_s@@A ; pmove
	cmp	DWORD PTR [eax+232], -19		; ffffffedH
	je	$LN31@PM_PlayerM

; 3577 : 		{
; 3578 : 			if ( pmove->waterlevel == 2 )

	mov	eax, DWORD PTR ?pmove@@3PAUplayermove_s@@A ; pmove
	cmp	DWORD PTR [eax+228], 2
	jne	SHORT $LN33@PM_PlayerM

; 3579 : 				PM_CheckWaterJump();

	call	?PM_CheckWaterJump@@YAXXZ		; PM_CheckWaterJump
$LN33@PM_PlayerM:

; 3580 : 
; 3581 : 			// If we are falling again, then we must not trying to jump out of water any more.
; 3582 : 			if( pmove->effects & EF_UPSIDEDOWN )

	mov	eax, DWORD PTR ?pmove@@3PAUplayermove_s@@A ; pmove
	mov	ecx, DWORD PTR [eax+180]
	and	ecx, 4194304				; 00400000H
	je	SHORT $LN34@PM_PlayerM

; 3583 : 			{
; 3584 : 				if( pmove->velocity[2] > 0 && pmove->waterjumptime )

	mov	ecx, DWORD PTR ?pmove@@3PAUplayermove_s@@A ; pmove
	add	ecx, 92					; 0000005cH
	call	??BVector@@QAEPAMXZ			; Vector::operator float *
	mov	ecx, 4
	shl	ecx, 1
	movss	xmm0, DWORD PTR [eax+ecx]
	comiss	xmm0, DWORD PTR __real@00000000
	jbe	SHORT $LN36@PM_PlayerM
	mov	eax, DWORD PTR ?pmove@@3PAUplayermove_s@@A ; pmove
	movss	xmm0, DWORD PTR [eax+204]
	ucomiss	xmm0, DWORD PTR __real@00000000
	lahf
	test	ah, 68					; 00000044H
	jnp	SHORT $LN36@PM_PlayerM

; 3585 : 					pmove->waterjumptime = 0;

	mov	eax, DWORD PTR ?pmove@@3PAUplayermove_s@@A ; pmove
	xorps	xmm0, xmm0
	movss	DWORD PTR [eax+204], xmm0
$LN36@PM_PlayerM:

; 3586 : 			}
; 3587 : 			else

	jmp	SHORT $LN37@PM_PlayerM
$LN34@PM_PlayerM:

; 3588 : 			{
; 3589 : 				if( pmove->velocity[2] < 0 && pmove->waterjumptime )

	mov	ecx, DWORD PTR ?pmove@@3PAUplayermove_s@@A ; pmove
	add	ecx, 92					; 0000005cH
	call	??BVector@@QAEPAMXZ			; Vector::operator float *
	mov	ecx, 4
	shl	ecx, 1
	xorps	xmm0, xmm0
	comiss	xmm0, DWORD PTR [eax+ecx]
	jbe	SHORT $LN37@PM_PlayerM
	mov	eax, DWORD PTR ?pmove@@3PAUplayermove_s@@A ; pmove
	movss	xmm0, DWORD PTR [eax+204]
	ucomiss	xmm0, DWORD PTR __real@00000000
	lahf
	test	ah, 68					; 00000044H
	jnp	SHORT $LN37@PM_PlayerM

; 3590 : 					pmove->waterjumptime = 0;

	mov	eax, DWORD PTR ?pmove@@3PAUplayermove_s@@A ; pmove
	xorps	xmm0, xmm0
	movss	DWORD PTR [eax+204], xmm0
$LN37@PM_PlayerM:

; 3591 : 			}
; 3592 : 
; 3593 : 			// Was jump button pressed?
; 3594 : 			if( pmove->cmd.buttons & IN_JUMP )

	mov	eax, DWORD PTR ?pmove@@3PAUplayermove_s@@A ; pmove
	movzx	ecx, WORD PTR [eax+283766]
	and	ecx, 2
	je	SHORT $LN38@PM_PlayerM

; 3595 : 				PM_Jump ();

	call	?PM_Jump@@YAXXZ				; PM_Jump

; 3596 : 			else

	jmp	SHORT $LN39@PM_PlayerM
$LN38@PM_PlayerM:

; 3597 : 				pmove->oldbuttons &= ~IN_JUMP;

	mov	eax, DWORD PTR ?pmove@@3PAUplayermove_s@@A ; pmove
	mov	ecx, DWORD PTR [eax+200]
	and	ecx, -3					; fffffffdH
	mov	edx, DWORD PTR ?pmove@@3PAUplayermove_s@@A ; pmove
	mov	DWORD PTR [edx+200], ecx
$LN39@PM_PlayerM:

; 3598 : 
; 3599 : 			// Perform regular water movement
; 3600 : 			PM_WaterMove();

	call	?PM_WaterMove@@YAXXZ			; PM_WaterMove

; 3601 : 			
; 3602 : 			pmove->velocity -= pmove->basevelocity;

	mov	eax, DWORD PTR ?pmove@@3PAUplayermove_s@@A ; pmove
	add	eax, 116				; 00000074H
	push	eax
	mov	ecx, DWORD PTR ?pmove@@3PAUplayermove_s@@A ; pmove
	add	ecx, 92					; 0000005cH
	call	??ZVector@@QAEAAV0@ABV0@@Z		; Vector::operator-=

; 3603 : 
; 3604 : 			// Get a final position
; 3605 : 			PM_CategorizePosition();

	call	?PM_CategorizePosition@@YAXXZ		; PM_CategorizePosition

; 3606 : 		}
; 3607 : 		else

	jmp	$LN32@PM_PlayerM
$LN31@PM_PlayerM:

; 3608 : 
; 3609 : 		// Not underwater
; 3610 : 		{
; 3611 : 			// Was jump button pressed?
; 3612 : 			if ( pmove->cmd.buttons & IN_JUMP )

	mov	eax, DWORD PTR ?pmove@@3PAUplayermove_s@@A ; pmove
	movzx	ecx, WORD PTR [eax+283766]
	and	ecx, 2
	je	SHORT $LN40@PM_PlayerM

; 3613 : 			{
; 3614 : 				if ( !pLadder )

	cmp	DWORD PTR _pLadder$[ebp], 0
	jne	SHORT $LN42@PM_PlayerM

; 3615 : 					PM_Jump ();

	call	?PM_Jump@@YAXXZ				; PM_Jump
$LN42@PM_PlayerM:

; 3616 : 			}
; 3617 : 			else

	jmp	SHORT $LN41@PM_PlayerM
$LN40@PM_PlayerM:

; 3618 : 				pmove->oldbuttons &= ~IN_JUMP;

	mov	eax, DWORD PTR ?pmove@@3PAUplayermove_s@@A ; pmove
	mov	ecx, DWORD PTR [eax+200]
	and	ecx, -3					; fffffffdH
	mov	edx, DWORD PTR ?pmove@@3PAUplayermove_s@@A ; pmove
	mov	DWORD PTR [edx+200], ecx
$LN41@PM_PlayerM:

; 3619 : 
; 3620 : 			// Fricion is handled before we add in any base velocity. That way, if we are on a conveyor, 
; 3621 : 			//  we don't slow when standing still, relative to the conveyor.
; 3622 : 			if ( pmove->onground != -1 )

	mov	eax, DWORD PTR ?pmove@@3PAUplayermove_s@@A ; pmove
	cmp	DWORD PTR [eax+224], -1
	je	SHORT $LN43@PM_PlayerM

; 3623 : 			{
; 3624 : 				pmove->velocity[2] = 0.0;

	mov	ecx, DWORD PTR ?pmove@@3PAUplayermove_s@@A ; pmove
	add	ecx, 92					; 0000005cH
	call	??BVector@@QAEPAMXZ			; Vector::operator float *
	mov	ecx, 4
	shl	ecx, 1
	xorps	xmm0, xmm0
	movss	DWORD PTR [eax+ecx], xmm0

; 3625 : 				PM_Friction();

	call	?PM_Friction@@YAXXZ			; PM_Friction
$LN43@PM_PlayerM:

; 3626 : 			}
; 3627 : 
; 3628 : 			// Make sure velocity is valid.
; 3629 : 			PM_CheckVelocity();

	call	?PM_CheckVelocity@@YAXXZ		; PM_CheckVelocity

; 3630 : 
; 3631 : 			// Are we on ground now
; 3632 : 			if ( pmove->onground != -1 )

	mov	eax, DWORD PTR ?pmove@@3PAUplayermove_s@@A ; pmove
	cmp	DWORD PTR [eax+224], -1
	je	SHORT $LN44@PM_PlayerM

; 3633 : 				PM_WalkMove();

	call	?PM_WalkMove@@YAXXZ			; PM_WalkMove

; 3634 : 			else

	jmp	SHORT $LN45@PM_PlayerM
$LN44@PM_PlayerM:

; 3635 : 				PM_AirMove();  // Take into account movement when in air.

	call	?PM_AirMove@@YAXXZ			; PM_AirMove
$LN45@PM_PlayerM:

; 3636 : 
; 3637 : 			// Set final flags.
; 3638 : 			PM_CategorizePosition();

	call	?PM_CategorizePosition@@YAXXZ		; PM_CategorizePosition

; 3639 : 
; 3640 : 			// Now pull the base velocity back out.
; 3641 : 			// Base velocity is set if you are on a moving object, like
; 3642 : 			//  a conveyor (or maybe another monster?)
; 3643 : 			pmove->velocity -= pmove->basevelocity;

	mov	eax, DWORD PTR ?pmove@@3PAUplayermove_s@@A ; pmove
	add	eax, 116				; 00000074H
	push	eax
	mov	ecx, DWORD PTR ?pmove@@3PAUplayermove_s@@A ; pmove
	add	ecx, 92					; 0000005cH
	call	??ZVector@@QAEAAV0@ABV0@@Z		; Vector::operator-=

; 3644 : 				
; 3645 : 			// Make sure velocity is valid.
; 3646 : 			PM_CheckVelocity();

	call	?PM_CheckVelocity@@YAXXZ		; PM_CheckVelocity

; 3647 : 
; 3648 : 			// Add any remaining gravitational component.
; 3649 : 			if ( !PM_InWater() )

	call	?PM_InWater@@YAHXZ			; PM_InWater
	test	eax, eax
	jne	SHORT $LN46@PM_PlayerM

; 3650 : 				PM_FixupGravityVelocity();

	call	?PM_FixupGravityVelocity@@YAXXZ		; PM_FixupGravityVelocity
$LN46@PM_PlayerM:

; 3651 : 
; 3652 : 			// If we are on ground, no downward velocity.
; 3653 : 			if ( pmove->onground != -1 )

	mov	eax, DWORD PTR ?pmove@@3PAUplayermove_s@@A ; pmove
	cmp	DWORD PTR [eax+224], -1
	je	SHORT $LN47@PM_PlayerM

; 3654 : 				pmove->velocity[2] = 0;

	mov	ecx, DWORD PTR ?pmove@@3PAUplayermove_s@@A ; pmove
	add	ecx, 92					; 0000005cH
	call	??BVector@@QAEPAMXZ			; Vector::operator float *
	mov	ecx, 4
	shl	ecx, 1
	xorps	xmm0, xmm0
	movss	DWORD PTR [eax+ecx], xmm0
$LN47@PM_PlayerM:

; 3655 : 
; 3656 : 			// See if we landed on the ground with enough force to play
; 3657 : 			//  a landing sound.
; 3658 : 			PM_CheckFalling();

	call	?PM_CheckFalling@@YAXXZ			; PM_CheckFalling
$LN32@PM_PlayerM:

; 3659 : 		}
; 3660 : 
; 3661 : 		// Did we enter or leave the water?
; 3662 : 		PM_PlayWaterSounds();

	call	?PM_PlayWaterSounds@@YAXXZ		; PM_PlayWaterSounds
$LN2@PM_PlayerM:
$LN1@PM_PlayerM:

; 3663 : 		break;
; 3664 : 	}
; 3665 : }

	pop	edi
	pop	esi
	pop	ebx
	mov	esp, ebp
	pop	ebp
	ret	0
	npad	1
$LN50@PM_PlayerM:
	DD	$LN21@PM_PlayerM
	DD	$LN28@PM_PlayerM
	DD	$LN24@PM_PlayerM
	DD	$LN23@PM_PlayerM
	DD	$LN22@PM_PlayerM
	DD	$LN20@PM_PlayerM
$LN49@PM_PlayerM:
	DB	0
	DB	5
	DB	5
	DB	1
	DB	5
	DB	2
	DB	3
	DB	5
	DB	4
	DB	5
	DB	3
?PM_PlayerMove@@YAXH@Z ENDP				; PM_PlayerMove
_TEXT	ENDS
; Function compile flags: /Odtp /ZI
; File d:\!diffusion 2020\source code 2022\client-server\game_shared\playermove.cpp
;	COMDAT ?PM_ReduceTimers@@YAXXZ
_TEXT	SEGMENT
?PM_ReduceTimers@@YAXXZ PROC				; PM_ReduceTimers, COMDAT

; 3387 : {

	push	ebp
	mov	ebp, esp
	sub	esp, 64					; 00000040H
	push	ebx
	push	esi
	push	edi

; 3388 : 	if ( pmove->flTimeStepSound > 0 )

	mov	eax, DWORD PTR ?pmove@@3PAUplayermove_s@@A ; pmove
	cmp	DWORD PTR [eax+148], 0
	jle	SHORT $LN3@PM_ReduceT

; 3389 : 	{
; 3390 : 		pmove->flTimeStepSound -= pmove->cmd.msec;

	mov	eax, DWORD PTR ?pmove@@3PAUplayermove_s@@A ; pmove
	movzx	ecx, BYTE PTR [eax+283738]
	mov	edx, DWORD PTR ?pmove@@3PAUplayermove_s@@A ; pmove
	mov	eax, DWORD PTR [edx+148]
	sub	eax, ecx
	mov	ecx, DWORD PTR ?pmove@@3PAUplayermove_s@@A ; pmove
	mov	DWORD PTR [ecx+148], eax

; 3391 : 		if ( pmove->flTimeStepSound < 0 )

	mov	eax, DWORD PTR ?pmove@@3PAUplayermove_s@@A ; pmove
	cmp	DWORD PTR [eax+148], 0
	jge	SHORT $LN3@PM_ReduceT

; 3392 : 			pmove->flTimeStepSound = 0;

	mov	eax, DWORD PTR ?pmove@@3PAUplayermove_s@@A ; pmove
	mov	DWORD PTR [eax+148], 0
$LN3@PM_ReduceT:

; 3393 : 	}
; 3394 : 	if ( pmove->flDuckTime > 0 )

	mov	eax, DWORD PTR ?pmove@@3PAUplayermove_s@@A ; pmove
	movss	xmm0, DWORD PTR [eax+140]
	comiss	xmm0, DWORD PTR __real@00000000
	jbe	SHORT $LN5@PM_ReduceT

; 3395 : 	{
; 3396 : 		pmove->flDuckTime -= pmove->cmd.msec;

	mov	eax, DWORD PTR ?pmove@@3PAUplayermove_s@@A ; pmove
	movzx	ecx, BYTE PTR [eax+283738]
	cvtsi2ss xmm0, ecx
	mov	edx, DWORD PTR ?pmove@@3PAUplayermove_s@@A ; pmove
	movss	xmm1, DWORD PTR [edx+140]
	subss	xmm1, xmm0
	mov	eax, DWORD PTR ?pmove@@3PAUplayermove_s@@A ; pmove
	movss	DWORD PTR [eax+140], xmm1

; 3397 : 		if ( pmove->flDuckTime < 0 )

	mov	eax, DWORD PTR ?pmove@@3PAUplayermove_s@@A ; pmove
	xorps	xmm0, xmm0
	comiss	xmm0, DWORD PTR [eax+140]
	jbe	SHORT $LN5@PM_ReduceT

; 3398 : 			pmove->flDuckTime = 0;

	mov	eax, DWORD PTR ?pmove@@3PAUplayermove_s@@A ; pmove
	xorps	xmm0, xmm0
	movss	DWORD PTR [eax+140], xmm0
$LN5@PM_ReduceT:

; 3399 : 	}
; 3400 : 	if ( pmove->flSwimTime > 0 )

	mov	eax, DWORD PTR ?pmove@@3PAUplayermove_s@@A ; pmove
	movss	xmm0, DWORD PTR [eax+172]
	comiss	xmm0, DWORD PTR __real@00000000
	jbe	SHORT $LN7@PM_ReduceT

; 3401 : 	{
; 3402 : 		pmove->flSwimTime -= pmove->cmd.msec;

	mov	eax, DWORD PTR ?pmove@@3PAUplayermove_s@@A ; pmove
	movzx	ecx, BYTE PTR [eax+283738]
	cvtsi2ss xmm0, ecx
	mov	edx, DWORD PTR ?pmove@@3PAUplayermove_s@@A ; pmove
	movss	xmm1, DWORD PTR [edx+172]
	subss	xmm1, xmm0
	mov	eax, DWORD PTR ?pmove@@3PAUplayermove_s@@A ; pmove
	movss	DWORD PTR [eax+172], xmm1

; 3403 : 		if ( pmove->flSwimTime < 0 )

	mov	eax, DWORD PTR ?pmove@@3PAUplayermove_s@@A ; pmove
	xorps	xmm0, xmm0
	comiss	xmm0, DWORD PTR [eax+172]
	jbe	SHORT $LN7@PM_ReduceT

; 3404 : 			pmove->flSwimTime = 0;

	mov	eax, DWORD PTR ?pmove@@3PAUplayermove_s@@A ; pmove
	xorps	xmm0, xmm0
	movss	DWORD PTR [eax+172], xmm0
$LN7@PM_ReduceT:

; 3405 : 	}
; 3406 : }

	pop	edi
	pop	esi
	pop	ebx
	mov	esp, ebp
	pop	ebp
	ret	0
?PM_ReduceTimers@@YAXXZ ENDP				; PM_ReduceTimers
_TEXT	ENDS
; Function compile flags: /Odtp /ZI
; File d:\!diffusion 2020\source code 2022\client-server\game_shared\playermove.cpp
;	COMDAT ?PM_CheckParameters@@YAXXZ
_TEXT	SEGMENT
tv391 = -104						; size = 4
tv359 = -100						; size = 4
tv255 = -100						; size = 4
tv128 = -100						; size = 4
_fRatio$1 = -24						; size = 4
_v_angle$ = -20						; size = 12
_maxspeed$ = -8						; size = 4
_spd$ = -4						; size = 4
?PM_CheckParameters@@YAXXZ PROC				; PM_CheckParameters, COMDAT

; 3320 : {

	push	ebp
	mov	ebp, esp
	sub	esp, 104				; 00000068H
	push	ebx
	push	esi
	push	edi

; 3321 : 	float spd;
; 3322 : 	float maxspeed;
; 3323 : 	Vector	v_angle;

	lea	ecx, DWORD PTR _v_angle$[ebp]
	call	??0Vector@@QAE@XZ			; Vector::Vector

; 3324 : 
; 3325 : 	// clear stuck flag for each frame
; 3326 : 	pmove->flags &= ~FL_STUCKED;

	mov	eax, DWORD PTR ?pmove@@3PAUplayermove_s@@A ; pmove
	mov	ecx, DWORD PTR [eax+184]
	and	ecx, -134217729				; f7ffffffH
	mov	edx, DWORD PTR ?pmove@@3PAUplayermove_s@@A ; pmove
	mov	DWORD PTR [edx+184], ecx

; 3327 : 
; 3328 : 	spd = ( pmove->cmd.forwardmove * pmove->cmd.forwardmove ) +

	mov	eax, DWORD PTR ?pmove@@3PAUplayermove_s@@A ; pmove
	mov	ecx, DWORD PTR ?pmove@@3PAUplayermove_s@@A ; pmove
	movss	xmm0, DWORD PTR [eax+283752]
	mulss	xmm0, DWORD PTR [ecx+283752]
	mov	edx, DWORD PTR ?pmove@@3PAUplayermove_s@@A ; pmove
	mov	eax, DWORD PTR ?pmove@@3PAUplayermove_s@@A ; pmove
	movss	xmm1, DWORD PTR [edx+283756]
	mulss	xmm1, DWORD PTR [eax+283756]
	addss	xmm0, xmm1
	mov	ecx, DWORD PTR ?pmove@@3PAUplayermove_s@@A ; pmove
	mov	edx, DWORD PTR ?pmove@@3PAUplayermove_s@@A ; pmove
	movss	xmm1, DWORD PTR [ecx+283760]
	mulss	xmm1, DWORD PTR [edx+283760]
	addss	xmm0, xmm1
	movss	DWORD PTR _spd$[ebp], xmm0

; 3329 : 		  ( pmove->cmd.sidemove * pmove->cmd.sidemove ) +
; 3330 : 		  ( pmove->cmd.upmove * pmove->cmd.upmove );
; 3331 : 	spd = sqrt( spd );

	cvtss2sd xmm0, DWORD PTR _spd$[ebp]
	sub	esp, 8
	movsd	QWORD PTR [esp], xmm0
	call	_sqrt
	add	esp, 8
	fstp	DWORD PTR _spd$[ebp]

; 3332 : 
; 3333 : 	maxspeed = pmove->clientmaxspeed; //atof( pmove->PM_Info_ValueForKey( pmove->physinfo, "maxspd" ) );

	mov	eax, DWORD PTR ?pmove@@3PAUplayermove_s@@A ; pmove
	movss	xmm0, DWORD PTR [eax+504]
	movss	DWORD PTR _maxspeed$[ebp], xmm0

; 3334 : 	if ( maxspeed != 0.0 )

	cvtss2sd xmm0, DWORD PTR _maxspeed$[ebp]
	ucomisd	xmm0, QWORD PTR __real@0000000000000000
	lahf
	test	ah, 68					; 00000044H
	jnp	SHORT $LN2@PM_CheckPa

; 3335 : 		pmove->maxspeed = min( maxspeed, pmove->maxspeed );

	mov	eax, DWORD PTR ?pmove@@3PAUplayermove_s@@A ; pmove
	movss	xmm0, DWORD PTR [eax+500]
	comiss	xmm0, DWORD PTR _maxspeed$[ebp]
	jbe	SHORT $LN12@PM_CheckPa
	movss	xmm0, DWORD PTR _maxspeed$[ebp]
	movss	DWORD PTR tv128[ebp], xmm0
	jmp	SHORT $LN13@PM_CheckPa
$LN12@PM_CheckPa:
	mov	ecx, DWORD PTR ?pmove@@3PAUplayermove_s@@A ; pmove
	movss	xmm0, DWORD PTR [ecx+500]
	movss	DWORD PTR tv128[ebp], xmm0
$LN13@PM_CheckPa:
	mov	edx, DWORD PTR ?pmove@@3PAUplayermove_s@@A ; pmove
	movss	xmm0, DWORD PTR tv128[ebp]
	movss	DWORD PTR [edx+500], xmm0
$LN2@PM_CheckPa:

; 3336 : 
; 3337 : 	if ( ( spd != 0.0 ) &&

	cvtss2sd xmm0, DWORD PTR _spd$[ebp]
	ucomisd	xmm0, QWORD PTR __real@0000000000000000
	lahf
	test	ah, 68					; 00000044H
	jnp	$LN3@PM_CheckPa
	mov	eax, DWORD PTR ?pmove@@3PAUplayermove_s@@A ; pmove
	movss	xmm0, DWORD PTR _spd$[ebp]
	comiss	xmm0, DWORD PTR [eax+500]
	jbe	SHORT $LN3@PM_CheckPa

; 3338 : 		 ( spd > pmove->maxspeed ) )
; 3339 : 	{
; 3340 : 		float fRatio = pmove->maxspeed / spd;

	mov	eax, DWORD PTR ?pmove@@3PAUplayermove_s@@A ; pmove
	movss	xmm0, DWORD PTR [eax+500]
	divss	xmm0, DWORD PTR _spd$[ebp]
	movss	DWORD PTR _fRatio$1[ebp], xmm0

; 3341 : 		pmove->cmd.forwardmove *= fRatio;

	mov	eax, DWORD PTR ?pmove@@3PAUplayermove_s@@A ; pmove
	movss	xmm0, DWORD PTR [eax+283752]
	mulss	xmm0, DWORD PTR _fRatio$1[ebp]
	mov	ecx, DWORD PTR ?pmove@@3PAUplayermove_s@@A ; pmove
	movss	DWORD PTR [ecx+283752], xmm0

; 3342 : 		pmove->cmd.sidemove    *= fRatio;

	mov	eax, DWORD PTR ?pmove@@3PAUplayermove_s@@A ; pmove
	movss	xmm0, DWORD PTR [eax+283756]
	mulss	xmm0, DWORD PTR _fRatio$1[ebp]
	mov	ecx, DWORD PTR ?pmove@@3PAUplayermove_s@@A ; pmove
	movss	DWORD PTR [ecx+283756], xmm0

; 3343 : 		pmove->cmd.upmove      *= fRatio;

	mov	eax, DWORD PTR ?pmove@@3PAUplayermove_s@@A ; pmove
	movss	xmm0, DWORD PTR [eax+283760]
	mulss	xmm0, DWORD PTR _fRatio$1[ebp]
	mov	ecx, DWORD PTR ?pmove@@3PAUplayermove_s@@A ; pmove
	movss	DWORD PTR [ecx+283760], xmm0
$LN3@PM_CheckPa:

; 3344 : 	}
; 3345 : 
; 3346 : 	if ( pmove->flags & FL_FROZEN || pmove->dead )

	mov	eax, DWORD PTR ?pmove@@3PAUplayermove_s@@A ; pmove
	mov	ecx, DWORD PTR [eax+184]
	and	ecx, 4096				; 00001000H
	jne	SHORT $LN5@PM_CheckPa
	mov	eax, DWORD PTR ?pmove@@3PAUplayermove_s@@A ; pmove
	cmp	DWORD PTR [eax+208], 0
	je	SHORT $LN4@PM_CheckPa
$LN5@PM_CheckPa:

; 3347 : 	{
; 3348 : 		pmove->cmd.forwardmove = 0;

	mov	eax, DWORD PTR ?pmove@@3PAUplayermove_s@@A ; pmove
	xorps	xmm0, xmm0
	movss	DWORD PTR [eax+283752], xmm0

; 3349 : 		pmove->cmd.sidemove    = 0;

	mov	eax, DWORD PTR ?pmove@@3PAUplayermove_s@@A ; pmove
	xorps	xmm0, xmm0
	movss	DWORD PTR [eax+283756], xmm0

; 3350 : 		pmove->cmd.upmove      = 0;

	mov	eax, DWORD PTR ?pmove@@3PAUplayermove_s@@A ; pmove
	xorps	xmm0, xmm0
	movss	DWORD PTR [eax+283760], xmm0

; 3351 : 		pmove->cmd.buttons     = 0;

	xor	eax, eax
	mov	ecx, DWORD PTR ?pmove@@3PAUplayermove_s@@A ; pmove
	mov	WORD PTR [ecx+283766], ax
$LN4@PM_CheckPa:

; 3352 : 	}
; 3353 : 
; 3354 : 	if ( pmove->flags & FL_ONTRAIN )

	mov	eax, DWORD PTR ?pmove@@3PAUplayermove_s@@A ; pmove
	mov	ecx, DWORD PTR [eax+184]
	and	ecx, 16777216				; 01000000H
	je	SHORT $LN6@PM_CheckPa

; 3355 : 	{
; 3356 : 		pmove->cmd.forwardmove = 0;

	mov	eax, DWORD PTR ?pmove@@3PAUplayermove_s@@A ; pmove
	xorps	xmm0, xmm0
	movss	DWORD PTR [eax+283752], xmm0

; 3357 : 		pmove->cmd.sidemove    = 0;

	mov	eax, DWORD PTR ?pmove@@3PAUplayermove_s@@A ; pmove
	xorps	xmm0, xmm0
	movss	DWORD PTR [eax+283756], xmm0

; 3358 : 		pmove->cmd.upmove      = 0;

	mov	eax, DWORD PTR ?pmove@@3PAUplayermove_s@@A ; pmove
	xorps	xmm0, xmm0
	movss	DWORD PTR [eax+283760], xmm0
$LN6@PM_CheckPa:

; 3359 : 	}
; 3360 : 
; 3361 : 	PM_DropPunchAngle(pmove->punchangle);

	mov	eax, DWORD PTR ?pmove@@3PAUplayermove_s@@A ; pmove
	add	eax, 160				; 000000a0H
	push	eax
	call	?PM_DropPunchAngle@@YAXAAVVector@@@Z	; PM_DropPunchAngle
	add	esp, 4

; 3362 : 
; 3363 : 	// Take angles from command.
; 3364 : 	if ( !pmove->dead )

	mov	eax, DWORD PTR ?pmove@@3PAUplayermove_s@@A ; pmove
	cmp	DWORD PTR [eax+208], 0
	jne	$LN7@PM_CheckPa

; 3365 : 	{
; 3366 : 		v_angle = pmove->cmd.viewangles;          

	mov	eax, DWORD PTR ?pmove@@3PAUplayermove_s@@A ; pmove
	add	eax, 283740				; 0004545cH
	mov	ecx, DWORD PTR [eax]
	mov	DWORD PTR _v_angle$[ebp], ecx
	mov	edx, DWORD PTR [eax+4]
	mov	DWORD PTR _v_angle$[ebp+4], edx
	mov	eax, DWORD PTR [eax+8]
	mov	DWORD PTR _v_angle$[ebp+8], eax

; 3367 : 		v_angle += pmove->punchangle;

	mov	eax, DWORD PTR ?pmove@@3PAUplayermove_s@@A ; pmove
	add	eax, 160				; 000000a0H
	push	eax
	lea	ecx, DWORD PTR _v_angle$[ebp]
	call	??YVector@@QAEAAV0@ABV0@@Z		; Vector::operator+=

; 3368 : 
; 3369 : 		// set up view angles.
; 3370 : 		pmove->angles[PITCH] = v_angle[PITCH];

	lea	ecx, DWORD PTR _v_angle$[ebp]
	call	??BVector@@QAEPAMXZ			; Vector::operator float *
	mov	esi, eax
	mov	eax, 4
	imul	edi, eax, 0
	mov	ecx, DWORD PTR ?pmove@@3PAUplayermove_s@@A ; pmove
	add	ecx, 68					; 00000044H
	call	??BVector@@QAEPAMXZ			; Vector::operator float *
	mov	ecx, 4
	imul	edx, ecx, 0
	mov	ecx, DWORD PTR [esi+edi]
	mov	DWORD PTR [eax+edx], ecx

; 3371 : 		pmove->angles[YAW] = v_angle[YAW];

	lea	ecx, DWORD PTR _v_angle$[ebp]
	call	??BVector@@QAEPAMXZ			; Vector::operator float *
	mov	esi, eax
	mov	edi, 4
	shl	edi, 0
	mov	ecx, DWORD PTR ?pmove@@3PAUplayermove_s@@A ; pmove
	add	ecx, 68					; 00000044H
	call	??BVector@@QAEPAMXZ			; Vector::operator float *
	mov	ecx, 4
	shl	ecx, 0
	mov	edx, DWORD PTR [esi+edi]
	mov	DWORD PTR [eax+ecx], edx

; 3372 : 		pmove->angles[ROLL]	= PM_CalcRoll( v_angle, pmove->velocity, pmove->movevars->rollangle, pmove->movevars->rollspeed ) * 4;

	mov	eax, DWORD PTR ?pmove@@3PAUplayermove_s@@A ; pmove
	mov	ecx, DWORD PTR [eax+324848]
	push	ecx
	movss	xmm0, DWORD PTR [ecx+104]
	movss	DWORD PTR [esp], xmm0
	mov	edx, DWORD PTR ?pmove@@3PAUplayermove_s@@A ; pmove
	mov	eax, DWORD PTR [edx+324848]
	push	ecx
	movss	xmm0, DWORD PTR [eax+100]
	movss	DWORD PTR [esp], xmm0
	mov	ecx, DWORD PTR ?pmove@@3PAUplayermove_s@@A ; pmove
	add	ecx, 92					; 0000005cH
	sub	esp, 12					; 0000000cH
	mov	edx, esp
	push	ecx
	mov	ecx, edx
	call	??0Vector@@QAE@ABV0@@Z			; Vector::Vector
	sub	esp, 12					; 0000000cH
	mov	ecx, esp
	lea	eax, DWORD PTR _v_angle$[ebp]
	push	eax
	call	??0Vector@@QAE@ABV0@@Z			; Vector::Vector
	call	?PM_CalcRoll@@YAMVVector@@0MM@Z		; PM_CalcRoll
	add	esp, 32					; 00000020H
	fstp	DWORD PTR tv359[ebp]
	movss	xmm0, DWORD PTR tv359[ebp]
	mulss	xmm0, DWORD PTR __real@40800000
	mov	ecx, DWORD PTR ?pmove@@3PAUplayermove_s@@A ; pmove
	add	ecx, 68					; 00000044H
	movss	DWORD PTR tv391[ebp], xmm0
	call	??BVector@@QAEPAMXZ			; Vector::operator float *
	mov	ecx, 4
	shl	ecx, 1
	movss	xmm0, DWORD PTR tv391[ebp]
	movss	DWORD PTR [eax+ecx], xmm0

; 3373 : 	}
; 3374 : 	else

	jmp	SHORT $LN8@PM_CheckPa
$LN7@PM_CheckPa:

; 3375 : 		pmove->angles = pmove->oldangles;

	mov	eax, DWORD PTR ?pmove@@3PAUplayermove_s@@A ; pmove
	add	eax, 80					; 00000050H
	mov	ecx, DWORD PTR ?pmove@@3PAUplayermove_s@@A ; pmove
	add	ecx, 68					; 00000044H
	mov	edx, DWORD PTR [eax]
	mov	DWORD PTR [ecx], edx
	mov	edx, DWORD PTR [eax+4]
	mov	DWORD PTR [ecx+4], edx
	mov	eax, DWORD PTR [eax+8]
	mov	DWORD PTR [ecx+8], eax
$LN8@PM_CheckPa:

; 3376 : 
; 3377 : 	// Set dead player view_offset
; 3378 : 	if ( pmove->dead )

	mov	eax, DWORD PTR ?pmove@@3PAUplayermove_s@@A ; pmove
	cmp	DWORD PTR [eax+208], 0
	je	SHORT $LN9@PM_CheckPa

; 3379 : 		pmove->view_ofs[2] = PM_DEAD_VIEWHEIGHT;

	mov	ecx, DWORD PTR ?pmove@@3PAUplayermove_s@@A ; pmove
	add	ecx, 128				; 00000080H
	call	??BVector@@QAEPAMXZ			; Vector::operator float *
	mov	ecx, 4
	shl	ecx, 1
	movss	xmm0, DWORD PTR __real@c1000000
	movss	DWORD PTR [eax+ecx], xmm0
$LN9@PM_CheckPa:

; 3380 : 
; 3381 : 	// Adjust client view angles to match values used on server.
; 3382 : 	if (pmove->angles[YAW] > 180.0f)

	mov	ecx, DWORD PTR ?pmove@@3PAUplayermove_s@@A ; pmove
	add	ecx, 68					; 00000044H
	call	??BVector@@QAEPAMXZ			; Vector::operator float *
	mov	ecx, 4
	shl	ecx, 0
	movss	xmm0, DWORD PTR [eax+ecx]
	comiss	xmm0, DWORD PTR __real@43340000
	jbe	SHORT $LN10@PM_CheckPa

; 3383 : 		pmove->angles[YAW] -= 360.0f;

	mov	ecx, DWORD PTR ?pmove@@3PAUplayermove_s@@A ; pmove
	add	ecx, 68					; 00000044H
	call	??BVector@@QAEPAMXZ			; Vector::operator float *
	mov	ecx, 4
	shl	ecx, 0
	add	eax, ecx
	mov	DWORD PTR tv255[ebp], eax
	mov	edx, DWORD PTR tv255[ebp]
	movss	xmm0, DWORD PTR [edx]
	subss	xmm0, DWORD PTR __real@43b40000
	mov	eax, DWORD PTR tv255[ebp]
	movss	DWORD PTR [eax], xmm0
$LN10@PM_CheckPa:

; 3384 : }

	pop	edi
	pop	esi
	pop	ebx
	mov	esp, ebp
	pop	ebp
	ret	0
?PM_CheckParameters@@YAXXZ ENDP				; PM_CheckParameters
_TEXT	ENDS
; Function compile flags: /Odtp /ZI
; File d:\!diffusion 2020\source code 2022\client-server\game_shared\playermove.cpp
;	COMDAT ?PM_DropPunchAngle@@YAXAAVVector@@@Z
_TEXT	SEGMENT
tv213 = -104						; size = 8
tv207 = -104						; size = 8
tv193 = -104						; size = 4
tv173 = -104						; size = 4
tv153 = -104						; size = 4
tv93 = -104						; size = 4
tv192 = -100						; size = 4
tv172 = -100						; size = 4
tv152 = -100						; size = 4
tv92 = -100						; size = 4
$T1 = -96						; size = 12
$T2 = -84						; size = 12
_springForceMagnitude$ = -8				; size = 4
_damping$ = -4						; size = 4
_punchangle$ = 8					; size = 4
?PM_DropPunchAngle@@YAXAAVVector@@@Z PROC		; PM_DropPunchAngle, COMDAT

; 3288 : {

	push	ebp
	mov	ebp, esp
	sub	esp, 104				; 00000068H
	push	ebx
	push	esi
	push	edi

; 3289 : 	float damping;
; 3290 : 	float springForceMagnitude;
; 3291 : 
; 3292 : 	if (punchangle.Length() > 0.001 || pmove->vuser3.Length() > 0.001)

	mov	ecx, DWORD PTR _punchangle$[ebp]
	call	?Length@Vector@@QBEMXZ			; Vector::Length
	fstp	QWORD PTR tv207[ebp]
	movsd	xmm0, QWORD PTR tv207[ebp]
	comisd	xmm0, QWORD PTR __real@3f50624dd2f1a9fc
	ja	SHORT $LN3@PM_DropPun
	mov	ecx, DWORD PTR ?pmove@@3PAUplayermove_s@@A ; pmove
	add	ecx, 564				; 00000234H
	call	?Length@Vector@@QBEMXZ			; Vector::Length
	fstp	QWORD PTR tv213[ebp]
	movsd	xmm0, QWORD PTR tv213[ebp]
	comisd	xmm0, QWORD PTR __real@3f50624dd2f1a9fc
	jbe	$LN2@PM_DropPun
$LN3@PM_DropPun:

; 3293 : 	{
; 3294 : 			punchangle += pmove->vuser3 * pmove->frametime;

	mov	eax, DWORD PTR ?pmove@@3PAUplayermove_s@@A ; pmove
	push	ecx
	movss	xmm0, DWORD PTR [eax+16]
	movss	DWORD PTR [esp], xmm0
	lea	ecx, DWORD PTR $T2[ebp]
	push	ecx
	mov	ecx, DWORD PTR ?pmove@@3PAUplayermove_s@@A ; pmove
	add	ecx, 564				; 00000234H
	call	??DVector@@QBE?AV0@M@Z			; Vector::operator*
	push	eax
	mov	ecx, DWORD PTR _punchangle$[ebp]
	call	??YVector@@QAEAAV0@ABV0@@Z		; Vector::operator+=

; 3295 : 			damping = 1.0f - (PUNCH_DAMPING * pmove->frametime);

	mov	eax, DWORD PTR ?pmove@@3PAUplayermove_s@@A ; pmove
	movss	xmm0, DWORD PTR __real@41100000
	mulss	xmm0, DWORD PTR [eax+16]
	movss	xmm1, DWORD PTR __real@3f800000
	subss	xmm1, xmm0
	movss	DWORD PTR _damping$[ebp], xmm1

; 3296 : 
; 3297 : 			if (damping < 0.0f)

	xorps	xmm0, xmm0
	comiss	xmm0, DWORD PTR _damping$[ebp]
	jbe	SHORT $LN4@PM_DropPun

; 3298 : 				damping = 0.0f;

	xorps	xmm0, xmm0
	movss	DWORD PTR _damping$[ebp], xmm0
$LN4@PM_DropPun:

; 3299 : 
; 3300 : 			pmove->vuser3 *= damping;

	push	ecx
	movss	xmm0, DWORD PTR _damping$[ebp]
	movss	DWORD PTR [esp], xmm0
	mov	ecx, DWORD PTR ?pmove@@3PAUplayermove_s@@A ; pmove
	add	ecx, 564				; 00000234H
	call	??XVector@@QAEAAV0@M@Z			; Vector::operator*=

; 3301 : 
; 3302 : 			// torsional spring
; 3303 : 			// UNDONE: Per-axis spring constant?
; 3304 : 			springForceMagnitude = PUNCH_SPRING_CONSTANT * pmove->frametime;

	mov	eax, DWORD PTR ?pmove@@3PAUplayermove_s@@A ; pmove
	movss	xmm0, DWORD PTR __real@42820000
	mulss	xmm0, DWORD PTR [eax+16]
	movss	DWORD PTR _springForceMagnitude$[ebp], xmm0

; 3305 : 			springForceMagnitude = bound(0, springForceMagnitude, 2);

	movss	xmm0, DWORD PTR _springForceMagnitude$[ebp]
	comiss	xmm0, DWORD PTR __real@00000000
	jb	SHORT $LN8@PM_DropPun
	movss	xmm0, DWORD PTR __real@40000000
	comiss	xmm0, DWORD PTR _springForceMagnitude$[ebp]
	jbe	SHORT $LN6@PM_DropPun
	movss	xmm0, DWORD PTR _springForceMagnitude$[ebp]
	movss	DWORD PTR tv92[ebp], xmm0
	jmp	SHORT $LN7@PM_DropPun
$LN6@PM_DropPun:
	movss	xmm0, DWORD PTR __real@40000000
	movss	DWORD PTR tv92[ebp], xmm0
$LN7@PM_DropPun:
	movss	xmm0, DWORD PTR tv92[ebp]
	movss	DWORD PTR tv93[ebp], xmm0
	jmp	SHORT $LN9@PM_DropPun
$LN8@PM_DropPun:
	xorps	xmm0, xmm0
	movss	DWORD PTR tv93[ebp], xmm0
$LN9@PM_DropPun:
	movss	xmm0, DWORD PTR tv93[ebp]
	movss	DWORD PTR _springForceMagnitude$[ebp], xmm0

; 3306 : 
; 3307 : 			pmove->vuser3 += punchangle * -springForceMagnitude;

	movss	xmm0, DWORD PTR _springForceMagnitude$[ebp]
	xorps	xmm0, DWORD PTR __xmm@80000000800000008000000080000000
	push	ecx
	movss	DWORD PTR [esp], xmm0
	lea	eax, DWORD PTR $T1[ebp]
	push	eax
	mov	ecx, DWORD PTR _punchangle$[ebp]
	call	??DVector@@QBE?AV0@M@Z			; Vector::operator*
	push	eax
	mov	ecx, DWORD PTR ?pmove@@3PAUplayermove_s@@A ; pmove
	add	ecx, 564				; 00000234H
	call	??YVector@@QAEAAV0@ABV0@@Z		; Vector::operator+=

; 3308 : 
; 3309 : 			// don't wrap around
; 3310 : 			punchangle[0] = bound(-89, punchangle[0], 89);

	mov	ecx, DWORD PTR _punchangle$[ebp]
	call	??BVector@@QAEPAMXZ			; Vector::operator float *
	mov	ecx, 4
	imul	edx, ecx, 0
	movss	xmm0, DWORD PTR [eax+edx]
	comiss	xmm0, DWORD PTR __real@c2b20000
	jb	SHORT $LN12@PM_DropPun
	mov	ecx, DWORD PTR _punchangle$[ebp]
	call	??BVector@@QAEPAMXZ			; Vector::operator float *
	mov	ecx, 4
	imul	edx, ecx, 0
	movss	xmm0, DWORD PTR __real@42b20000
	comiss	xmm0, DWORD PTR [eax+edx]
	jbe	SHORT $LN10@PM_DropPun
	mov	ecx, DWORD PTR _punchangle$[ebp]
	call	??BVector@@QAEPAMXZ			; Vector::operator float *
	mov	ecx, 4
	imul	edx, ecx, 0
	movss	xmm0, DWORD PTR [eax+edx]
	movss	DWORD PTR tv152[ebp], xmm0
	jmp	SHORT $LN11@PM_DropPun
$LN10@PM_DropPun:
	movss	xmm0, DWORD PTR __real@42b20000
	movss	DWORD PTR tv152[ebp], xmm0
$LN11@PM_DropPun:
	movss	xmm0, DWORD PTR tv152[ebp]
	movss	DWORD PTR tv153[ebp], xmm0
	jmp	SHORT $LN13@PM_DropPun
$LN12@PM_DropPun:
	movss	xmm0, DWORD PTR __real@c2b20000
	movss	DWORD PTR tv153[ebp], xmm0
$LN13@PM_DropPun:
	mov	ecx, DWORD PTR _punchangle$[ebp]
	call	??BVector@@QAEPAMXZ			; Vector::operator float *
	mov	ecx, 4
	imul	edx, ecx, 0
	movss	xmm0, DWORD PTR tv153[ebp]
	movss	DWORD PTR [eax+edx], xmm0

; 3311 : 			punchangle[1] = bound(-179, punchangle[1], 179);

	mov	ecx, DWORD PTR _punchangle$[ebp]
	call	??BVector@@QAEPAMXZ			; Vector::operator float *
	mov	ecx, 4
	shl	ecx, 0
	movss	xmm0, DWORD PTR [eax+ecx]
	comiss	xmm0, DWORD PTR __real@c3330000
	jb	SHORT $LN16@PM_DropPun
	mov	ecx, DWORD PTR _punchangle$[ebp]
	call	??BVector@@QAEPAMXZ			; Vector::operator float *
	mov	edx, 4
	shl	edx, 0
	movss	xmm0, DWORD PTR __real@43330000
	comiss	xmm0, DWORD PTR [eax+edx]
	jbe	SHORT $LN14@PM_DropPun
	mov	ecx, DWORD PTR _punchangle$[ebp]
	call	??BVector@@QAEPAMXZ			; Vector::operator float *
	mov	ecx, 4
	shl	ecx, 0
	movss	xmm0, DWORD PTR [eax+ecx]
	movss	DWORD PTR tv172[ebp], xmm0
	jmp	SHORT $LN15@PM_DropPun
$LN14@PM_DropPun:
	movss	xmm0, DWORD PTR __real@43330000
	movss	DWORD PTR tv172[ebp], xmm0
$LN15@PM_DropPun:
	movss	xmm0, DWORD PTR tv172[ebp]
	movss	DWORD PTR tv173[ebp], xmm0
	jmp	SHORT $LN17@PM_DropPun
$LN16@PM_DropPun:
	movss	xmm0, DWORD PTR __real@c3330000
	movss	DWORD PTR tv173[ebp], xmm0
$LN17@PM_DropPun:
	mov	ecx, DWORD PTR _punchangle$[ebp]
	call	??BVector@@QAEPAMXZ			; Vector::operator float *
	mov	edx, 4
	shl	edx, 0
	movss	xmm0, DWORD PTR tv173[ebp]
	movss	DWORD PTR [eax+edx], xmm0

; 3312 : 			punchangle[2] = bound(-89, punchangle[2], 89);

	mov	ecx, DWORD PTR _punchangle$[ebp]
	call	??BVector@@QAEPAMXZ			; Vector::operator float *
	mov	ecx, 4
	shl	ecx, 1
	movss	xmm0, DWORD PTR [eax+ecx]
	comiss	xmm0, DWORD PTR __real@c2b20000
	jb	SHORT $LN20@PM_DropPun
	mov	ecx, DWORD PTR _punchangle$[ebp]
	call	??BVector@@QAEPAMXZ			; Vector::operator float *
	mov	edx, 4
	shl	edx, 1
	movss	xmm0, DWORD PTR __real@42b20000
	comiss	xmm0, DWORD PTR [eax+edx]
	jbe	SHORT $LN18@PM_DropPun
	mov	ecx, DWORD PTR _punchangle$[ebp]
	call	??BVector@@QAEPAMXZ			; Vector::operator float *
	mov	ecx, 4
	shl	ecx, 1
	movss	xmm0, DWORD PTR [eax+ecx]
	movss	DWORD PTR tv192[ebp], xmm0
	jmp	SHORT $LN19@PM_DropPun
$LN18@PM_DropPun:
	movss	xmm0, DWORD PTR __real@42b20000
	movss	DWORD PTR tv192[ebp], xmm0
$LN19@PM_DropPun:
	movss	xmm0, DWORD PTR tv192[ebp]
	movss	DWORD PTR tv193[ebp], xmm0
	jmp	SHORT $LN21@PM_DropPun
$LN20@PM_DropPun:
	movss	xmm0, DWORD PTR __real@c2b20000
	movss	DWORD PTR tv193[ebp], xmm0
$LN21@PM_DropPun:
	mov	ecx, DWORD PTR _punchangle$[ebp]
	call	??BVector@@QAEPAMXZ			; Vector::operator float *
	mov	edx, 4
	shl	edx, 1
	movss	xmm0, DWORD PTR tv193[ebp]
	movss	DWORD PTR [eax+edx], xmm0
$LN2@PM_DropPun:

; 3313 : 	}
; 3314 : }

	pop	edi
	pop	esi
	pop	ebx
	mov	esp, ebp
	pop	ebp
	ret	0
?PM_DropPunchAngle@@YAXAAVVector@@@Z ENDP		; PM_DropPunchAngle
_TEXT	ENDS
; Function compile flags: /Odtp /ZI
; File d:\!diffusion 2020\source code 2022\client-server\game_shared\playermove.cpp
;	COMDAT ?PM_CalcRoll@@YAMVVector@@0MM@Z
_TEXT	SEGMENT
tv144 = -116						; size = 4
tv83 = -116						; size = 4
_up$ = -48						; size = 12
_right$ = -36						; size = 12
_forward$ = -24						; size = 12
_value$ = -12						; size = 4
_side$ = -8						; size = 4
_sign$ = -4						; size = 4
_angles$ = 8						; size = 12
_velocity$ = 20						; size = 12
_rollangle$ = 32					; size = 4
_rollspeed$ = 36					; size = 4
?PM_CalcRoll@@YAMVVector@@0MM@Z PROC			; PM_CalcRoll, COMDAT

; 3264 : {

	push	ebp
	mov	ebp, esp
	sub	esp, 116				; 00000074H
	push	ebx
	push	esi
	push	edi

; 3265 : 	float   sign;
; 3266 : 	float   side;
; 3267 : 	float   value;
; 3268 : 	Vector  forward, right, up;

	lea	ecx, DWORD PTR _forward$[ebp]
	call	??0Vector@@QAE@XZ			; Vector::Vector
	lea	ecx, DWORD PTR _right$[ebp]
	call	??0Vector@@QAE@XZ			; Vector::Vector
	lea	ecx, DWORD PTR _up$[ebp]
	call	??0Vector@@QAE@XZ			; Vector::Vector

; 3269 :     
; 3270 : 	AngleVectors (angles, forward, right, up);

	lea	ecx, DWORD PTR _up$[ebp]
	call	??BVector@@QAEPAMXZ			; Vector::operator float *
	push	eax
	lea	ecx, DWORD PTR _right$[ebp]
	call	??BVector@@QAEPAMXZ			; Vector::operator float *
	push	eax
	lea	ecx, DWORD PTR _forward$[ebp]
	call	??BVector@@QAEPAMXZ			; Vector::operator float *
	push	eax
	lea	ecx, DWORD PTR _angles$[ebp]
	call	??BVector@@QAEPAMXZ			; Vector::operator float *
	push	eax
	call	DWORD PTR ?gEngfuncs@@3Ucl_enginefuncs_s@@A+96
	add	esp, 16					; 00000010H

; 3271 :     
; 3272 : 	side = DotProduct (velocity, right);

	lea	eax, DWORD PTR _right$[ebp]
	push	eax
	lea	ecx, DWORD PTR _velocity$[ebp]
	push	ecx
	call	?DotProduct@@YAMABVVector@@0@Z		; DotProduct
	add	esp, 8
	fstp	DWORD PTR _side$[ebp]

; 3273 : 	sign = side < 0 ? -1 : 1;

	xorps	xmm0, xmm0
	comiss	xmm0, DWORD PTR _side$[ebp]
	jbe	SHORT $LN5@PM_CalcRol
	mov	DWORD PTR tv83[ebp], -1
	jmp	SHORT $LN6@PM_CalcRol
$LN5@PM_CalcRol:
	mov	DWORD PTR tv83[ebp], 1
$LN6@PM_CalcRol:
	cvtsi2ss xmm0, DWORD PTR tv83[ebp]
	movss	DWORD PTR _sign$[ebp], xmm0

; 3274 : 	side = fabs(side);

	cvtss2sd xmm0, DWORD PTR _side$[ebp]
	sub	esp, 8
	movsd	QWORD PTR [esp], xmm0
	call	_fabs
	add	esp, 8
	fstp	DWORD PTR _side$[ebp]

; 3275 : 	value = rollangle;

	movss	xmm0, DWORD PTR _rollangle$[ebp]
	movss	DWORD PTR _value$[ebp], xmm0

; 3276 :     
; 3277 : 	if (side < rollspeed)

	movss	xmm0, DWORD PTR _rollspeed$[ebp]
	comiss	xmm0, DWORD PTR _side$[ebp]
	jbe	SHORT $LN2@PM_CalcRol

; 3278 : 		side = side * value / rollspeed;

	movss	xmm0, DWORD PTR _side$[ebp]
	mulss	xmm0, DWORD PTR _value$[ebp]
	divss	xmm0, DWORD PTR _rollspeed$[ebp]
	movss	DWORD PTR _side$[ebp], xmm0

; 3279 : 	else

	jmp	SHORT $LN3@PM_CalcRol
$LN2@PM_CalcRol:

; 3280 : 		side = value;

	movss	xmm0, DWORD PTR _value$[ebp]
	movss	DWORD PTR _side$[ebp], xmm0
$LN3@PM_CalcRol:

; 3281 :   
; 3282 : 	return side * sign;

	movss	xmm0, DWORD PTR _side$[ebp]
	mulss	xmm0, DWORD PTR _sign$[ebp]
	movss	DWORD PTR tv144[ebp], xmm0
	fld	DWORD PTR tv144[ebp]

; 3283 : }

	pop	edi
	pop	esi
	pop	ebx
	mov	esp, ebp
	pop	ebp
	ret	0
?PM_CalcRoll@@YAMVVector@@0MM@Z ENDP			; PM_CalcRoll
_TEXT	ENDS
; Function compile flags: /Odtp /ZI
; File d:\!diffusion 2020\source code 2022\client-server\game_shared\playermove.cpp
;	COMDAT ?PM_PlayWaterSounds@@YAXXZ
_TEXT	SEGMENT
tv78 = -68						; size = 4
?PM_PlayWaterSounds@@YAXXZ PROC				; PM_PlayWaterSounds, COMDAT

; 3234 : {

	push	ebp
	mov	ebp, esp
	sub	esp, 68					; 00000044H
	push	ebx
	push	esi
	push	edi

; 3235 : 	// Did we enter or leave water?
; 3236 : 	if  ( ( pmove->oldwaterlevel == 0 && pmove->waterlevel != 0 && pmove->watertype > CONTENT_FLYFIELD) ||

	mov	eax, DWORD PTR ?pmove@@3PAUplayermove_s@@A ; pmove
	cmp	DWORD PTR [eax+236], 0
	jne	SHORT $LN6@PM_PlayWat
	mov	eax, DWORD PTR ?pmove@@3PAUplayermove_s@@A ; pmove
	cmp	DWORD PTR [eax+228], 0
	je	SHORT $LN6@PM_PlayWat
	mov	eax, DWORD PTR ?pmove@@3PAUplayermove_s@@A ; pmove
	cmp	DWORD PTR [eax+232], -17		; ffffffefH
	jg	SHORT $LN5@PM_PlayWat
$LN6@PM_PlayWat:
	mov	eax, DWORD PTR ?pmove@@3PAUplayermove_s@@A ; pmove
	cmp	DWORD PTR [eax+236], 0
	je	$LN2@PM_PlayWat
	mov	eax, DWORD PTR ?pmove@@3PAUplayermove_s@@A ; pmove
	cmp	DWORD PTR [eax+228], 0
	jne	$LN2@PM_PlayWat
$LN5@PM_PlayWat:

; 3237 : 		  ( pmove->oldwaterlevel != 0 && pmove->waterlevel == 0 ))
; 3238 : 	{
; 3239 : 		switch ( pmove->RandomLong(0,3) )

	push	3
	push	0
	mov	eax, DWORD PTR ?pmove@@3PAUplayermove_s@@A ; pmove
	mov	ecx, DWORD PTR [eax+325000]
	call	ecx
	add	esp, 8
	mov	DWORD PTR tv78[ebp], eax
	cmp	DWORD PTR tv78[ebp], 3
	ja	$LN2@PM_PlayWat
	mov	edx, DWORD PTR tv78[ebp]
	jmp	DWORD PTR $LN12@PM_PlayWat[edx*4]
$LN7@PM_PlayWat:

; 3240 : 		{
; 3241 : 		case 0:
; 3242 : 			pmove->PM_PlaySound( CHAN_BODY, "footsteps/wade1.wav", 1, ATTN_NORM, 0, PITCH_NORM );

	push	100					; 00000064H
	push	0
	push	ecx
	movss	xmm0, DWORD PTR __real@3f4ccccd
	movss	DWORD PTR [esp], xmm0
	push	ecx
	movss	xmm0, DWORD PTR __real@3f800000
	movss	DWORD PTR [esp], xmm0
	push	OFFSET ??_C@_0BE@FOEPOJBH@footsteps?1wade1?4wav?$AA@
	push	4
	mov	eax, DWORD PTR ?pmove@@3PAUplayermove_s@@A ; pmove
	mov	ecx, DWORD PTR [eax+325044]
	call	ecx
	add	esp, 24					; 00000018H

; 3243 : 			break;

	jmp	$LN2@PM_PlayWat
$LN8@PM_PlayWat:

; 3244 : 		case 1:
; 3245 : 			pmove->PM_PlaySound( CHAN_BODY, "footsteps/wade2.wav", 1, ATTN_NORM, 0, PITCH_NORM );

	push	100					; 00000064H
	push	0
	push	ecx
	movss	xmm0, DWORD PTR __real@3f4ccccd
	movss	DWORD PTR [esp], xmm0
	push	ecx
	movss	xmm0, DWORD PTR __real@3f800000
	movss	DWORD PTR [esp], xmm0
	push	OFFSET ??_C@_0BE@NINLJLLJ@footsteps?1wade2?4wav?$AA@
	push	4
	mov	eax, DWORD PTR ?pmove@@3PAUplayermove_s@@A ; pmove
	mov	ecx, DWORD PTR [eax+325044]
	call	ecx
	add	esp, 24					; 00000018H

; 3246 : 			break;

	jmp	SHORT $LN2@PM_PlayWat
$LN9@PM_PlayWat:

; 3247 : 		case 2:
; 3248 : 			pmove->PM_PlaySound( CHAN_BODY, "footsteps/wade3.wav", 1, ATTN_NORM, 0, PITCH_NORM );

	push	100					; 00000064H
	push	0
	push	ecx
	movss	xmm0, DWORD PTR __real@3f4ccccd
	movss	DWORD PTR [esp], xmm0
	push	ecx
	movss	xmm0, DWORD PTR __real@3f800000
	movss	DWORD PTR [esp], xmm0
	push	OFFSET ??_C@_0BE@BDIHEIBM@footsteps?1wade3?4wav?$AA@
	push	4
	mov	eax, DWORD PTR ?pmove@@3PAUplayermove_s@@A ; pmove
	mov	ecx, DWORD PTR [eax+325044]
	call	ecx
	add	esp, 24					; 00000018H

; 3249 : 			break;

	jmp	SHORT $LN2@PM_PlayWat
$LN10@PM_PlayWat:

; 3250 : 		case 3:
; 3251 : 			pmove->PM_PlaySound( CHAN_BODY, "footsteps/wade4.wav", 1, ATTN_NORM, 0, PITCH_NORM );

	push	100					; 00000064H
	push	0
	push	ecx
	movss	xmm0, DWORD PTR __real@3f4ccccd
	movss	DWORD PTR [esp], xmm0
	push	ecx
	movss	xmm0, DWORD PTR __real@3f800000
	movss	DWORD PTR [esp], xmm0
	push	OFFSET ??_C@_0BE@OICHIKE@footsteps?1wade4?4wav?$AA@
	push	4
	mov	eax, DWORD PTR ?pmove@@3PAUplayermove_s@@A ; pmove
	mov	ecx, DWORD PTR [eax+325044]
	call	ecx
	add	esp, 24					; 00000018H
$LN2@PM_PlayWat:

; 3252 : 			break;
; 3253 : 		}
; 3254 : 	}
; 3255 : }

	pop	edi
	pop	esi
	pop	ebx
	mov	esp, ebp
	pop	ebp
	ret	0
	npad	2
$LN12@PM_PlayWat:
	DD	$LN7@PM_PlayWat
	DD	$LN8@PM_PlayWat
	DD	$LN9@PM_PlayWat
	DD	$LN10@PM_PlayWat
?PM_PlayWaterSounds@@YAXXZ ENDP				; PM_PlayWaterSounds
_TEXT	ENDS
; Function compile flags: /Odtp /ZI
; File d:\!diffusion 2020\source code 2022\client-server\game_shared\playermove.cpp
;	COMDAT ?PM_CheckFalling@@YAXXZ
_TEXT	SEGMENT
tv95 = -80						; size = 4
tv154 = -77						; size = 1
_tfc$1 = -12						; size = 4
_fvol$2 = -8						; size = 4
_fvol$3 = -4						; size = 4
?PM_CheckFalling@@YAXXZ PROC				; PM_CheckFalling, COMDAT

; 3166 : {

	push	ebp
	mov	ebp, esp
	sub	esp, 80					; 00000050H
	push	ebx
	push	esi
	push	edi

; 3167 : 	if ( pmove->onground != -1 && !pmove->dead && pmove->flFallVelocity >= 200 )

	mov	eax, DWORD PTR ?pmove@@3PAUplayermove_s@@A ; pmove
	cmp	DWORD PTR [eax+224], -1
	je	SHORT $LN4@PM_CheckFa
	mov	eax, DWORD PTR ?pmove@@3PAUplayermove_s@@A ; pmove
	cmp	DWORD PTR [eax+208], 0
	jne	SHORT $LN4@PM_CheckFa
	mov	eax, DWORD PTR ?pmove@@3PAUplayermove_s@@A ; pmove
	movss	xmm0, DWORD PTR [eax+156]
	comiss	xmm0, DWORD PTR __real@43480000
	jb	SHORT $LN4@PM_CheckFa

; 3168 : 	{// diffusion - always play step sound when landing
; 3169 : 		float fvol = 0.5;

	movss	xmm0, DWORD PTR __real@3f000000
	movss	DWORD PTR _fvol$3[ebp], xmm0

; 3170 : 		pmove->flTimeStepSound = 0;

	mov	eax, DWORD PTR ?pmove@@3PAUplayermove_s@@A ; pmove
	mov	DWORD PTR [eax+148], 0

; 3171 : 		PM_UpdateStepSound();

	push	0
	call	?PM_UpdateStepSound@@YAXH@Z		; PM_UpdateStepSound
	add	esp, 4

; 3172 : 		PM_PlayStepSound( PM_MapTextureTypeStepType( pmove->chtexturetype ), fvol );

	push	ecx
	movss	xmm0, DWORD PTR _fvol$3[ebp]
	movss	DWORD PTR [esp], xmm0
	mov	eax, DWORD PTR ?pmove@@3PAUplayermove_s@@A ; pmove
	movzx	ecx, BYTE PTR [eax+496]
	push	ecx
	call	?PM_MapTextureTypeStepType@@YAHD@Z	; PM_MapTextureTypeStepType
	add	esp, 4
	push	eax
	call	?PM_PlayStepSound@@YAXHM@Z		; PM_PlayStepSound
	add	esp, 8
$LN4@PM_CheckFa:

; 3173 : 	}
; 3174 : 
; 3175 : 	// diffusion - no crash sounds when god
; 3176 : 	if( pmove->flags & FL_GODMODE )

	mov	eax, DWORD PTR ?pmove@@3PAUplayermove_s@@A ; pmove
	mov	ecx, DWORD PTR [eax+184]
	and	ecx, 64					; 00000040H
	je	SHORT $LN5@PM_CheckFa

; 3177 : 	{
; 3178 : 		pmove->flFallVelocity = 0;

	mov	eax, DWORD PTR ?pmove@@3PAUplayermove_s@@A ; pmove
	xorps	xmm0, xmm0
	movss	DWORD PTR [eax+156], xmm0

; 3179 : 		return;

	jmp	$LN1@PM_CheckFa
$LN5@PM_CheckFa:

; 3180 : 	}
; 3181 : 	
; 3182 : 	if ( pmove->onground != -1 && !pmove->dead && pmove->flFallVelocity >= PLAYER_FALL_PUNCH_THRESHHOLD )

	mov	eax, DWORD PTR ?pmove@@3PAUplayermove_s@@A ; pmove
	cmp	DWORD PTR [eax+224], -1
	je	$LN18@PM_CheckFa
	mov	eax, DWORD PTR ?pmove@@3PAUplayermove_s@@A ; pmove
	cmp	DWORD PTR [eax+208], 0
	jne	$LN18@PM_CheckFa
	mov	eax, DWORD PTR ?pmove@@3PAUplayermove_s@@A ; pmove
	movss	xmm0, DWORD PTR [eax+156]
	comiss	xmm0, DWORD PTR __real@43960000
	jb	$LN18@PM_CheckFa

; 3183 : 	{
; 3184 : 		float fvol = 0.5;

	movss	xmm0, DWORD PTR __real@3f000000
	movss	DWORD PTR _fvol$2[ebp], xmm0

; 3185 : 
; 3186 : 		if ( pmove->waterlevel > 0 )

	mov	eax, DWORD PTR ?pmove@@3PAUplayermove_s@@A ; pmove
	cmp	DWORD PTR [eax+228], 0
	jle	SHORT $LN7@PM_CheckFa
	jmp	$LN16@PM_CheckFa
$LN7@PM_CheckFa:

; 3187 : 		{
; 3188 : 		}
; 3189 : 		else if ( pmove->flFallVelocity > PLAYER_MAX_SAFE_FALL_SPEED )

	mov	eax, DWORD PTR ?pmove@@3PAUplayermove_s@@A ; pmove
	movss	xmm0, DWORD PTR [eax+156]
	comiss	xmm0, DWORD PTR __real@43fa0000
	jbe	$LN9@PM_CheckFa

; 3190 : 		{
; 3191 : 			switch( pmove->RandomLong(0,1) )  // diffusion

	push	1
	push	0
	mov	eax, DWORD PTR ?pmove@@3PAUplayermove_s@@A ; pmove
	mov	ecx, DWORD PTR [eax+325000]
	call	ecx
	add	esp, 8
	mov	DWORD PTR tv95[ebp], eax
	cmp	DWORD PTR tv95[ebp], 0
	je	SHORT $LN11@PM_CheckFa
	cmp	DWORD PTR tv95[ebp], 1
	je	SHORT $LN12@PM_CheckFa
	jmp	SHORT $LN2@PM_CheckFa
$LN11@PM_CheckFa:

; 3192 : 			{
; 3193 : 			case 0: pmove->PM_PlaySound( CHAN_VOICE, "player/fallpain1.wav", 1, ATTN_NORM, 0, PITCH_NORM ); break;

	push	100					; 00000064H
	push	0
	push	ecx
	movss	xmm0, DWORD PTR __real@3f4ccccd
	movss	DWORD PTR [esp], xmm0
	push	ecx
	movss	xmm0, DWORD PTR __real@3f800000
	movss	DWORD PTR [esp], xmm0
	push	OFFSET ??_C@_0BF@OKBOBHDH@player?1fallpain1?4wav?$AA@
	push	2
	mov	eax, DWORD PTR ?pmove@@3PAUplayermove_s@@A ; pmove
	mov	ecx, DWORD PTR [eax+325044]
	call	ecx
	add	esp, 24					; 00000018H
	jmp	SHORT $LN2@PM_CheckFa
$LN12@PM_CheckFa:

; 3194 : 			case 1: pmove->PM_PlaySound( CHAN_VOICE, "player/fallpain2.wav", 1, ATTN_NORM, 0, PITCH_NORM ); break;

	push	100					; 00000064H
	push	0
	push	ecx
	movss	xmm0, DWORD PTR __real@3f4ccccd
	movss	DWORD PTR [esp], xmm0
	push	ecx
	movss	xmm0, DWORD PTR __real@3f800000
	movss	DWORD PTR [esp], xmm0
	push	OFFSET ??_C@_0BF@GMIKGFJJ@player?1fallpain2?4wav?$AA@
	push	2
	mov	eax, DWORD PTR ?pmove@@3PAUplayermove_s@@A ; pmove
	mov	ecx, DWORD PTR [eax+325044]
	call	ecx
	add	esp, 24					; 00000018H
$LN2@PM_CheckFa:

; 3195 : 			}
; 3196 : 			fvol = 1.0;

	movss	xmm0, DWORD PTR __real@3f800000
	movss	DWORD PTR _fvol$2[ebp], xmm0
	jmp	$LN16@PM_CheckFa
$LN9@PM_CheckFa:

; 3197 : 		}
; 3198 : 		else if ( pmove->flFallVelocity > PLAYER_MAX_SAFE_FALL_SPEED / 2 )

	mov	eax, DWORD PTR ?pmove@@3PAUplayermove_s@@A ; pmove
	movss	xmm0, DWORD PTR [eax+156]
	comiss	xmm0, DWORD PTR __real@437a0000
	jbe	$LN13@PM_CheckFa

; 3199 : 		{
; 3200 : 			qboolean tfc = false;

	mov	DWORD PTR _tfc$1[ebp], 0

; 3201 : 			tfc = atoi( pmove->PM_Info_ValueForKey( pmove->physinfo, "tfc" ) ) == 1 ? true : false;

	push	OFFSET ??_C@_03DIGMJINO@tfc?$AA@
	mov	eax, DWORD PTR ?pmove@@3PAUplayermove_s@@A ; pmove
	add	eax, 324592				; 0004f3f0H
	push	eax
	mov	ecx, DWORD PTR ?pmove@@3PAUplayermove_s@@A ; pmove
	mov	edx, DWORD PTR [ecx+324948]
	call	edx
	add	esp, 8
	push	eax
	call	_atoi
	add	esp, 4
	cmp	eax, 1
	jne	SHORT $LN21@PM_CheckFa
	mov	BYTE PTR tv154[ebp], 1
	jmp	SHORT $LN22@PM_CheckFa
$LN21@PM_CheckFa:
	mov	BYTE PTR tv154[ebp], 0
$LN22@PM_CheckFa:
	movzx	eax, BYTE PTR tv154[ebp]
	mov	DWORD PTR _tfc$1[ebp], eax

; 3202 : 
; 3203 : 			if ( tfc )

	cmp	DWORD PTR _tfc$1[ebp], 0
	je	SHORT $LN15@PM_CheckFa

; 3204 : 			{
; 3205 : 				pmove->PM_PlaySound( CHAN_VOICE, "player/pl_fallpain3.wav", 1, ATTN_NORM, 0, PITCH_NORM );

	push	100					; 00000064H
	push	0
	push	ecx
	movss	xmm0, DWORD PTR __real@3f4ccccd
	movss	DWORD PTR [esp], xmm0
	push	ecx
	movss	xmm0, DWORD PTR __real@3f800000
	movss	DWORD PTR [esp], xmm0
	push	OFFSET ??_C@_0BI@PLJFMNJG@player?1pl_fallpain3?4wav?$AA@
	push	2
	mov	eax, DWORD PTR ?pmove@@3PAUplayermove_s@@A ; pmove
	mov	ecx, DWORD PTR [eax+325044]
	call	ecx
	add	esp, 24					; 00000018H
$LN15@PM_CheckFa:

; 3206 : 			}
; 3207 : 
; 3208 : 			fvol = 0.85;

	movss	xmm0, DWORD PTR __real@3f59999a
	movss	DWORD PTR _fvol$2[ebp], xmm0
	jmp	SHORT $LN16@PM_CheckFa
$LN13@PM_CheckFa:

; 3209 : 		}
; 3210 : 		else if ( pmove->flFallVelocity < PLAYER_MIN_BOUNCE_SPEED )

	mov	eax, DWORD PTR ?pmove@@3PAUplayermove_s@@A ; pmove
	movss	xmm0, DWORD PTR __real@43480000
	comiss	xmm0, DWORD PTR [eax+156]
	jbe	SHORT $LN16@PM_CheckFa

; 3211 : 			fvol = 0;

	xorps	xmm0, xmm0
	movss	DWORD PTR _fvol$2[ebp], xmm0
$LN16@PM_CheckFa:

; 3212 : 
; 3213 : 		if ( fvol > 0.0 )

	cvtss2sd xmm0, DWORD PTR _fvol$2[ebp]
	comisd	xmm0, QWORD PTR __real@0000000000000000
	jbe	SHORT $LN18@PM_CheckFa

; 3214 : 		{
; 3215 : 			// Knock the screen around a little bit, temporary effect
; 3216 : 			pmove->punchangle.z = pmove->flFallVelocity * 0.004;  // diffusion - soft screen shake

	mov	eax, DWORD PTR ?pmove@@3PAUplayermove_s@@A ; pmove
	cvtss2sd xmm0, DWORD PTR [eax+156]
	mulsd	xmm0, QWORD PTR __real@3f70624dd2f1a9fc
	cvtsd2ss xmm0, xmm0
	mov	ecx, DWORD PTR ?pmove@@3PAUplayermove_s@@A ; pmove
	movss	DWORD PTR [ecx+168], xmm0

; 3217 : 			if ( pmove->punchangle.z > 5 )

	mov	eax, DWORD PTR ?pmove@@3PAUplayermove_s@@A ; pmove
	movss	xmm0, DWORD PTR [eax+168]
	comiss	xmm0, DWORD PTR __real@40a00000
	jbe	SHORT $LN18@PM_CheckFa

; 3218 : 				pmove->punchangle.z = 5;

	mov	eax, DWORD PTR ?pmove@@3PAUplayermove_s@@A ; pmove
	movss	xmm0, DWORD PTR __real@40a00000
	movss	DWORD PTR [eax+168], xmm0
$LN18@PM_CheckFa:

; 3219 : 
; 3220 : 		}
; 3221 : 	}
; 3222 : 
; 3223 : 	if ( pmove->onground != -1 ) 

	mov	eax, DWORD PTR ?pmove@@3PAUplayermove_s@@A ; pmove
	cmp	DWORD PTR [eax+224], -1
	je	SHORT $LN19@PM_CheckFa

; 3224 : 		pmove->flFallVelocity = 0;

	mov	eax, DWORD PTR ?pmove@@3PAUplayermove_s@@A ; pmove
	xorps	xmm0, xmm0
	movss	DWORD PTR [eax+156], xmm0
$LN19@PM_CheckFa:
$LN1@PM_CheckFa:

; 3225 : }

	pop	edi
	pop	esi
	pop	ebx
	mov	esp, ebp
	pop	ebp
	ret	0
?PM_CheckFalling@@YAXXZ ENDP				; PM_CheckFalling
_TEXT	ENDS
; Function compile flags: /Odtp /ZI
; File d:\!diffusion 2020\source code 2022\client-server\game_shared\playermove.cpp
;	COMDAT ?PM_CheckWaterJump@@YAXXZ
_TEXT	SEGMENT
tv492 = -552						; size = 8
tv482 = -552						; size = 8
tv397 = -552						; size = 8
tv310 = -548						; size = 4
tv265 = -548						; size = 4
tv251 = -548						; size = 4
$T1 = -544						; size = 68
$T2 = -476						; size = 68
$T3 = -408						; size = 12
$T4 = -396						; size = 12
$T5 = -384						; size = 12
$T6 = -372						; size = 68
$T7 = -304						; size = 68
$T8 = -236						; size = 12
$T9 = -224						; size = 12
$T10 = -212						; size = 12
$T11 = -200						; size = 12
_savehull$ = -124					; size = 4
_tr$ = -120						; size = 68
_curspeed$ = -52					; size = 4
_flatvelocity$ = -48					; size = 12
_flatforward$ = -36					; size = 12
_vecEnd$ = -24						; size = 12
_vecStart$ = -12					; size = 12
?PM_CheckWaterJump@@YAXXZ PROC				; PM_CheckWaterJump, COMDAT

; 3083 : {

	push	ebp
	mov	ebp, esp
	sub	esp, 552				; 00000228H
	push	ebx
	push	esi
	push	edi

; 3084 : 	Vector	vecStart, vecEnd;

	lea	ecx, DWORD PTR _vecStart$[ebp]
	call	??0Vector@@QAE@XZ			; Vector::Vector
	lea	ecx, DWORD PTR _vecEnd$[ebp]
	call	??0Vector@@QAE@XZ			; Vector::Vector

; 3085 : 	Vector	flatforward;

	lea	ecx, DWORD PTR _flatforward$[ebp]
	call	??0Vector@@QAE@XZ			; Vector::Vector

; 3086 : 	Vector	flatvelocity;

	lea	ecx, DWORD PTR _flatvelocity$[ebp]
	call	??0Vector@@QAE@XZ			; Vector::Vector

; 3087 : 	float curspeed;
; 3088 : 	pmtrace_t tr;

	lea	ecx, DWORD PTR _tr$[ebp]
	call	??0pmtrace_s@@QAE@XZ

; 3089 : 	int		savehull;
; 3090 : 
; 3091 : 	// Already water jumping.
; 3092 : 	if ( pmove->waterjumptime )

	mov	eax, DWORD PTR ?pmove@@3PAUplayermove_s@@A ; pmove
	movss	xmm0, DWORD PTR [eax+204]
	ucomiss	xmm0, DWORD PTR __real@00000000
	lahf
	test	ah, 68					; 00000044H
	jnp	SHORT $LN2@PM_CheckWa

; 3093 : 		return;

	jmp	$LN1@PM_CheckWa
$LN2@PM_CheckWa:

; 3094 : 
; 3095 : 	// Don't hop out if we just jumped in
; 3096 : 	if ( pmove->velocity[2] < -180 && !( pmove->effects & EF_UPSIDEDOWN ) )

	mov	ecx, DWORD PTR ?pmove@@3PAUplayermove_s@@A ; pmove
	add	ecx, 92					; 0000005cH
	call	??BVector@@QAEPAMXZ			; Vector::operator float *
	mov	ecx, 4
	shl	ecx, 1
	movss	xmm0, DWORD PTR __real@c3340000
	comiss	xmm0, DWORD PTR [eax+ecx]
	jbe	SHORT $LN3@PM_CheckWa
	mov	eax, DWORD PTR ?pmove@@3PAUplayermove_s@@A ; pmove
	mov	ecx, DWORD PTR [eax+180]
	and	ecx, 4194304				; 00400000H
	jne	SHORT $LN3@PM_CheckWa

; 3097 : 		return; // only hop out if we are moving up

	jmp	$LN1@PM_CheckWa
$LN3@PM_CheckWa:

; 3098 : 	if( pmove->velocity[2] > -180 && (pmove->effects & EF_UPSIDEDOWN) )

	mov	ecx, DWORD PTR ?pmove@@3PAUplayermove_s@@A ; pmove
	add	ecx, 92					; 0000005cH
	call	??BVector@@QAEPAMXZ			; Vector::operator float *
	mov	ecx, 4
	shl	ecx, 1
	movss	xmm0, DWORD PTR [eax+ecx]
	comiss	xmm0, DWORD PTR __real@c3340000
	jbe	SHORT $LN4@PM_CheckWa
	mov	eax, DWORD PTR ?pmove@@3PAUplayermove_s@@A ; pmove
	mov	ecx, DWORD PTR [eax+180]
	and	ecx, 4194304				; 00400000H
	je	SHORT $LN4@PM_CheckWa

; 3099 : 		return; // only hop out if we are moving up

	jmp	$LN1@PM_CheckWa
$LN4@PM_CheckWa:

; 3100 : 
; 3101 : 	// See if we are backing up
; 3102 : 	flatvelocity[0] = pmove->velocity[0];

	mov	ecx, DWORD PTR ?pmove@@3PAUplayermove_s@@A ; pmove
	add	ecx, 92					; 0000005cH
	call	??BVector@@QAEPAMXZ			; Vector::operator float *
	mov	esi, eax
	mov	eax, 4
	imul	edi, eax, 0
	lea	ecx, DWORD PTR _flatvelocity$[ebp]
	call	??BVector@@QAEPAMXZ			; Vector::operator float *
	mov	ecx, 4
	imul	edx, ecx, 0
	mov	ecx, DWORD PTR [esi+edi]
	mov	DWORD PTR [eax+edx], ecx

; 3103 : 	flatvelocity[1] = pmove->velocity[1];

	mov	ecx, DWORD PTR ?pmove@@3PAUplayermove_s@@A ; pmove
	add	ecx, 92					; 0000005cH
	call	??BVector@@QAEPAMXZ			; Vector::operator float *
	mov	esi, eax
	mov	edi, 4
	shl	edi, 0
	lea	ecx, DWORD PTR _flatvelocity$[ebp]
	call	??BVector@@QAEPAMXZ			; Vector::operator float *
	mov	ecx, 4
	shl	ecx, 0
	mov	edx, DWORD PTR [esi+edi]
	mov	DWORD PTR [eax+ecx], edx

; 3104 : 	flatvelocity[2] = 0;

	lea	ecx, DWORD PTR _flatvelocity$[ebp]
	call	??BVector@@QAEPAMXZ			; Vector::operator float *
	mov	ecx, 4
	shl	ecx, 1
	xorps	xmm0, xmm0
	movss	DWORD PTR [eax+ecx], xmm0

; 3105 : 
; 3106 : 	// Must be moving
; 3107 : 	curspeed = flatvelocity.Length();

	lea	ecx, DWORD PTR _flatvelocity$[ebp]
	call	?Length@Vector@@QBEMXZ			; Vector::Length
	fstp	DWORD PTR _curspeed$[ebp]

; 3108 : 	flatvelocity = flatvelocity.Normalize();

	lea	eax, DWORD PTR $T11[ebp]
	push	eax
	lea	ecx, DWORD PTR _flatvelocity$[ebp]
	call	?Normalize@Vector@@QBE?AV1@XZ		; Vector::Normalize
	mov	ecx, DWORD PTR [eax]
	mov	DWORD PTR _flatvelocity$[ebp], ecx
	mov	edx, DWORD PTR [eax+4]
	mov	DWORD PTR _flatvelocity$[ebp+4], edx
	mov	eax, DWORD PTR [eax+8]
	mov	DWORD PTR _flatvelocity$[ebp+8], eax

; 3109 : 	
; 3110 : 	// see if near an edge
; 3111 : 	flatforward[0] = pmove->forward[0];

	mov	ecx, DWORD PTR ?pmove@@3PAUplayermove_s@@A ; pmove
	add	ecx, 20					; 00000014H
	call	??BVector@@QAEPAMXZ			; Vector::operator float *
	mov	esi, eax
	mov	eax, 4
	imul	edi, eax, 0
	lea	ecx, DWORD PTR _flatforward$[ebp]
	call	??BVector@@QAEPAMXZ			; Vector::operator float *
	mov	ecx, 4
	imul	edx, ecx, 0
	mov	ecx, DWORD PTR [esi+edi]
	mov	DWORD PTR [eax+edx], ecx

; 3112 : 	flatforward[1] = pmove->forward[1];

	mov	ecx, DWORD PTR ?pmove@@3PAUplayermove_s@@A ; pmove
	add	ecx, 20					; 00000014H
	call	??BVector@@QAEPAMXZ			; Vector::operator float *
	mov	esi, eax
	mov	edi, 4
	shl	edi, 0
	lea	ecx, DWORD PTR _flatforward$[ebp]
	call	??BVector@@QAEPAMXZ			; Vector::operator float *
	mov	ecx, 4
	shl	ecx, 0
	mov	edx, DWORD PTR [esi+edi]
	mov	DWORD PTR [eax+ecx], edx

; 3113 : 	flatforward[2] = 0;

	lea	ecx, DWORD PTR _flatforward$[ebp]
	call	??BVector@@QAEPAMXZ			; Vector::operator float *
	mov	ecx, 4
	shl	ecx, 1
	xorps	xmm0, xmm0
	movss	DWORD PTR [eax+ecx], xmm0

; 3114 : 	flatforward = flatforward.Normalize();

	lea	eax, DWORD PTR $T10[ebp]
	push	eax
	lea	ecx, DWORD PTR _flatforward$[ebp]
	call	?Normalize@Vector@@QBE?AV1@XZ		; Vector::Normalize
	mov	ecx, DWORD PTR [eax]
	mov	DWORD PTR _flatforward$[ebp], ecx
	mov	edx, DWORD PTR [eax+4]
	mov	DWORD PTR _flatforward$[ebp+4], edx
	mov	eax, DWORD PTR [eax+8]
	mov	DWORD PTR _flatforward$[ebp+8], eax

; 3115 : 
; 3116 : 	// Are we backing into water from steps or something?  If so, don't pop forward
; 3117 : 	if ( curspeed != 0.0 && ( DotProduct( flatvelocity, flatforward ) < 0.0 ) )

	cvtss2sd xmm0, DWORD PTR _curspeed$[ebp]
	ucomisd	xmm0, QWORD PTR __real@0000000000000000
	lahf
	test	ah, 68					; 00000044H
	jnp	SHORT $LN5@PM_CheckWa
	lea	eax, DWORD PTR _flatforward$[ebp]
	push	eax
	lea	ecx, DWORD PTR _flatvelocity$[ebp]
	push	ecx
	call	?DotProduct@@YAMABVVector@@0@Z		; DotProduct
	add	esp, 8
	fstp	QWORD PTR tv397[ebp]
	xorps	xmm0, xmm0
	comisd	xmm0, QWORD PTR tv397[ebp]
	jbe	SHORT $LN5@PM_CheckWa

; 3118 : 		return;

	jmp	$LN1@PM_CheckWa
$LN5@PM_CheckWa:

; 3119 : 
; 3120 : 	vecStart = pmove->origin;

	mov	eax, DWORD PTR ?pmove@@3PAUplayermove_s@@A ; pmove
	add	eax, 56					; 00000038H
	mov	ecx, DWORD PTR [eax]
	mov	DWORD PTR _vecStart$[ebp], ecx
	mov	edx, DWORD PTR [eax+4]
	mov	DWORD PTR _vecStart$[ebp+4], edx
	mov	eax, DWORD PTR [eax+8]
	mov	DWORD PTR _vecStart$[ebp+8], eax

; 3121 : 	if( pmove->effects & EF_UPSIDEDOWN )

	mov	eax, DWORD PTR ?pmove@@3PAUplayermove_s@@A ; pmove
	mov	ecx, DWORD PTR [eax+180]
	and	ecx, 4194304				; 00400000H
	je	SHORT $LN6@PM_CheckWa

; 3122 : 		vecStart.z -= WJ_HEIGHT;

	movss	xmm0, DWORD PTR _vecStart$[ebp+8]
	subss	xmm0, DWORD PTR __real@41000000
	movss	DWORD PTR _vecStart$[ebp+8], xmm0

; 3123 : 	else

	jmp	SHORT $LN7@PM_CheckWa
$LN6@PM_CheckWa:

; 3124 : 		vecStart.z += WJ_HEIGHT;

	movss	xmm0, DWORD PTR _vecStart$[ebp+8]
	addss	xmm0, DWORD PTR __real@41000000
	movss	DWORD PTR _vecStart$[ebp+8], xmm0
$LN7@PM_CheckWa:

; 3125 : 
; 3126 : 	vecEnd = vecStart + flatforward * 24;

	push	ecx
	movss	xmm0, DWORD PTR __real@41c00000
	movss	DWORD PTR [esp], xmm0
	lea	eax, DWORD PTR $T9[ebp]
	push	eax
	lea	ecx, DWORD PTR _flatforward$[ebp]
	call	??DVector@@QBE?AV0@M@Z			; Vector::operator*
	push	eax
	lea	ecx, DWORD PTR $T8[ebp]
	push	ecx
	lea	ecx, DWORD PTR _vecStart$[ebp]
	call	??HVector@@QBE?AV0@ABV0@@Z		; Vector::operator+
	mov	edx, DWORD PTR [eax]
	mov	DWORD PTR _vecEnd$[ebp], edx
	mov	ecx, DWORD PTR [eax+4]
	mov	DWORD PTR _vecEnd$[ebp+4], ecx
	mov	edx, DWORD PTR [eax+8]
	mov	DWORD PTR _vecEnd$[ebp+8], edx

; 3127 : 	
; 3128 : 	// Trace, this trace should use the point sized collision hull
; 3129 : 	savehull = pmove->usehull;

	mov	eax, DWORD PTR ?pmove@@3PAUplayermove_s@@A ; pmove
	mov	ecx, DWORD PTR [eax+188]
	mov	DWORD PTR _savehull$[ebp], ecx

; 3130 : 	pmove->usehull = 2;

	mov	eax, DWORD PTR ?pmove@@3PAUplayermove_s@@A ; pmove
	mov	DWORD PTR [eax+188], 2

; 3131 : 	tr = pmove->PM_PlayerTrace( vecStart, vecEnd, PM_NORMAL, -1 );

	push	-1
	push	0
	lea	ecx, DWORD PTR _vecEnd$[ebp]
	call	??BVector@@QAEPAMXZ			; Vector::operator float *
	push	eax
	lea	ecx, DWORD PTR _vecStart$[ebp]
	call	??BVector@@QAEPAMXZ			; Vector::operator float *
	push	eax
	lea	eax, DWORD PTR $T6[ebp]
	push	eax
	mov	ecx, DWORD PTR ?pmove@@3PAUplayermove_s@@A ; pmove
	mov	edx, DWORD PTR [ecx+324992]
	call	edx
	add	esp, 20					; 00000014H
	mov	ecx, 17					; 00000011H
	mov	esi, eax
	lea	edi, DWORD PTR $T7[ebp]
	rep movsd
	mov	ecx, 17					; 00000011H
	lea	esi, DWORD PTR $T7[ebp]
	lea	edi, DWORD PTR _tr$[ebp]
	rep movsd

; 3132 : 	if ( 
; 3133 : 		 tr.fraction < 1.0 && 

	cvtss2sd xmm0, DWORD PTR _tr$[ebp+16]
	movsd	xmm1, QWORD PTR __real@3ff0000000000000
	comisd	xmm1, xmm0
	jbe	$LN13@PM_CheckWa
	mov	eax, DWORD PTR ?pmove@@3PAUplayermove_s@@A ; pmove
	mov	ecx, DWORD PTR [eax+180]
	and	ecx, 4194304				; 00400000H
	jne	SHORT $LN10@PM_CheckWa
	lea	ecx, DWORD PTR _tr$[ebp+32]
	call	??BVector@@QAEPAMXZ			; Vector::operator float *
	mov	ecx, 4
	shl	ecx, 1
	cvtss2sd xmm0, DWORD PTR [eax+ecx]
	sub	esp, 8
	movsd	QWORD PTR [esp], xmm0
	call	_fabs
	add	esp, 8
	fstp	QWORD PTR tv482[ebp]
	movsd	xmm0, QWORD PTR __real@3fb99999a0000000
	comisd	xmm0, QWORD PTR tv482[ebp]
	ja	SHORT $LN9@PM_CheckWa
$LN10@PM_CheckWa:
	mov	eax, DWORD PTR ?pmove@@3PAUplayermove_s@@A ; pmove
	mov	ecx, DWORD PTR [eax+180]
	and	ecx, 4194304				; 00400000H
	je	$LN13@PM_CheckWa
	lea	ecx, DWORD PTR _tr$[ebp+32]
	call	??BVector@@QAEPAMXZ			; Vector::operator float *
	mov	ecx, 4
	shl	ecx, 1
	cvtss2sd xmm0, DWORD PTR [eax+ecx]
	sub	esp, 8
	movsd	QWORD PTR [esp], xmm0
	call	_fabs
	add	esp, 8
	fstp	QWORD PTR tv492[ebp]
	movsd	xmm0, QWORD PTR tv492[ebp]
	comisd	xmm0, QWORD PTR __real@bfb99999a0000000
	jbe	$LN13@PM_CheckWa
$LN9@PM_CheckWa:

; 3134 : 			( (!(pmove->effects & EF_UPSIDEDOWN) && fabs( tr.plane.normal[2] ) < 0.1f) ||
; 3135 : 				((pmove->effects & EF_UPSIDEDOWN) && fabs( tr.plane.normal[2] ) > -0.1f)
; 3136 : 			)
; 3137 : 		)  // Facing a near vertical wall?
; 3138 : 	{
; 3139 : 		if (pmove->effects & EF_UPSIDEDOWN)

	mov	eax, DWORD PTR ?pmove@@3PAUplayermove_s@@A ; pmove
	mov	ecx, DWORD PTR [eax+180]
	and	ecx, 4194304				; 00400000H
	je	SHORT $LN11@PM_CheckWa

; 3140 : 			vecStart[2] -= pmove->player_maxs[savehull][2] - WJ_HEIGHT;

	lea	ecx, DWORD PTR _vecStart$[ebp]
	call	??BVector@@QAEPAMXZ			; Vector::operator float *
	mov	ecx, 4
	shl	ecx, 1
	add	eax, ecx
	mov	DWORD PTR tv251[ebp], eax
	imul	edx, DWORD PTR _savehull$[ebp], 12
	mov	eax, DWORD PTR ?pmove@@3PAUplayermove_s@@A ; pmove
	lea	ecx, DWORD PTR [eax+edx+324900]
	call	??BVector@@QAEPAMXZ			; Vector::operator float *
	mov	ecx, 4
	shl	ecx, 1
	movss	xmm0, DWORD PTR [eax+ecx]
	subss	xmm0, DWORD PTR __real@41000000
	mov	edx, DWORD PTR tv251[ebp]
	movss	xmm1, DWORD PTR [edx]
	subss	xmm1, xmm0
	mov	eax, DWORD PTR tv251[ebp]
	movss	DWORD PTR [eax], xmm1

; 3141 : 		else

	jmp	SHORT $LN12@PM_CheckWa
$LN11@PM_CheckWa:

; 3142 : 			vecStart[2] += pmove->player_maxs[ savehull ][2] - WJ_HEIGHT;

	lea	ecx, DWORD PTR _vecStart$[ebp]
	call	??BVector@@QAEPAMXZ			; Vector::operator float *
	mov	ecx, 4
	shl	ecx, 1
	add	eax, ecx
	mov	DWORD PTR tv265[ebp], eax
	imul	edx, DWORD PTR _savehull$[ebp], 12
	mov	eax, DWORD PTR ?pmove@@3PAUplayermove_s@@A ; pmove
	lea	ecx, DWORD PTR [eax+edx+324900]
	call	??BVector@@QAEPAMXZ			; Vector::operator float *
	mov	ecx, 4
	shl	ecx, 1
	movss	xmm0, DWORD PTR [eax+ecx]
	subss	xmm0, DWORD PTR __real@41000000
	mov	edx, DWORD PTR tv265[ebp]
	addss	xmm0, DWORD PTR [edx]
	mov	eax, DWORD PTR tv265[ebp]
	movss	DWORD PTR [eax], xmm0
$LN12@PM_CheckWa:

; 3143 : 
; 3144 : 		vecEnd = vecStart + flatforward * 24;

	push	ecx
	movss	xmm0, DWORD PTR __real@41c00000
	movss	DWORD PTR [esp], xmm0
	lea	eax, DWORD PTR $T5[ebp]
	push	eax
	lea	ecx, DWORD PTR _flatforward$[ebp]
	call	??DVector@@QBE?AV0@M@Z			; Vector::operator*
	push	eax
	lea	ecx, DWORD PTR $T4[ebp]
	push	ecx
	lea	ecx, DWORD PTR _vecStart$[ebp]
	call	??HVector@@QBE?AV0@ABV0@@Z		; Vector::operator+
	mov	edx, DWORD PTR [eax]
	mov	DWORD PTR _vecEnd$[ebp], edx
	mov	ecx, DWORD PTR [eax+4]
	mov	DWORD PTR _vecEnd$[ebp+4], ecx
	mov	edx, DWORD PTR [eax+8]
	mov	DWORD PTR _vecEnd$[ebp+8], edx

; 3145 : 		pmove->movedir = tr.plane.normal * -50;

	push	ecx
	movss	xmm0, DWORD PTR __real@c2480000
	movss	DWORD PTR [esp], xmm0
	lea	eax, DWORD PTR $T3[ebp]
	push	eax
	lea	ecx, DWORD PTR _tr$[ebp+32]
	call	??DVector@@QBE?AV0@M@Z			; Vector::operator*
	mov	ecx, DWORD PTR ?pmove@@3PAUplayermove_s@@A ; pmove
	add	ecx, 104				; 00000068H
	mov	edx, DWORD PTR [eax]
	mov	DWORD PTR [ecx], edx
	mov	edx, DWORD PTR [eax+4]
	mov	DWORD PTR [ecx+4], edx
	mov	eax, DWORD PTR [eax+8]
	mov	DWORD PTR [ecx+8], eax

; 3146 : 
; 3147 : 		tr = pmove->PM_PlayerTrace( vecStart, vecEnd, PM_NORMAL, -1 );

	push	-1
	push	0
	lea	ecx, DWORD PTR _vecEnd$[ebp]
	call	??BVector@@QAEPAMXZ			; Vector::operator float *
	push	eax
	lea	ecx, DWORD PTR _vecStart$[ebp]
	call	??BVector@@QAEPAMXZ			; Vector::operator float *
	push	eax
	lea	eax, DWORD PTR $T1[ebp]
	push	eax
	mov	ecx, DWORD PTR ?pmove@@3PAUplayermove_s@@A ; pmove
	mov	edx, DWORD PTR [ecx+324992]
	call	edx
	add	esp, 20					; 00000014H
	mov	ecx, 17					; 00000011H
	mov	esi, eax
	lea	edi, DWORD PTR $T2[ebp]
	rep movsd
	mov	ecx, 17					; 00000011H
	lea	esi, DWORD PTR $T2[ebp]
	lea	edi, DWORD PTR _tr$[ebp]
	rep movsd

; 3148 : 		if ( tr.fraction == 1.0 )

	cvtss2sd xmm0, DWORD PTR _tr$[ebp+16]
	ucomisd	xmm0, QWORD PTR __real@3ff0000000000000
	lahf
	test	ah, 68					; 00000044H
	jp	$LN13@PM_CheckWa

; 3149 : 		{
; 3150 : 			pmove->waterjumptime = 2000;

	mov	eax, DWORD PTR ?pmove@@3PAUplayermove_s@@A ; pmove
	movss	xmm0, DWORD PTR __real@44fa0000
	movss	DWORD PTR [eax+204], xmm0

; 3151 : 			pmove->velocity[2] = 225;

	mov	ecx, DWORD PTR ?pmove@@3PAUplayermove_s@@A ; pmove
	add	ecx, 92					; 0000005cH
	call	??BVector@@QAEPAMXZ			; Vector::operator float *
	mov	ecx, 4
	shl	ecx, 1
	movss	xmm0, DWORD PTR __real@43610000
	movss	DWORD PTR [eax+ecx], xmm0

; 3152 : 			if( pmove->effects & EF_UPSIDEDOWN )

	mov	eax, DWORD PTR ?pmove@@3PAUplayermove_s@@A ; pmove
	mov	ecx, DWORD PTR [eax+180]
	and	ecx, 4194304				; 00400000H
	je	SHORT $LN14@PM_CheckWa

; 3153 : 				pmove->velocity[2] *= -1;

	mov	ecx, DWORD PTR ?pmove@@3PAUplayermove_s@@A ; pmove
	add	ecx, 92					; 0000005cH
	call	??BVector@@QAEPAMXZ			; Vector::operator float *
	mov	ecx, 4
	shl	ecx, 1
	add	eax, ecx
	mov	DWORD PTR tv310[ebp], eax
	mov	edx, DWORD PTR tv310[ebp]
	movss	xmm0, DWORD PTR [edx]
	mulss	xmm0, DWORD PTR __real@bf800000
	mov	eax, DWORD PTR tv310[ebp]
	movss	DWORD PTR [eax], xmm0
$LN14@PM_CheckWa:

; 3154 : 			pmove->oldbuttons |= IN_JUMP;

	mov	eax, DWORD PTR ?pmove@@3PAUplayermove_s@@A ; pmove
	mov	ecx, DWORD PTR [eax+200]
	or	ecx, 2
	mov	edx, DWORD PTR ?pmove@@3PAUplayermove_s@@A ; pmove
	mov	DWORD PTR [edx+200], ecx

; 3155 : 			pmove->flags |= FL_WATERJUMP;

	mov	eax, DWORD PTR ?pmove@@3PAUplayermove_s@@A ; pmove
	mov	ecx, DWORD PTR [eax+184]
	or	ecx, 2048				; 00000800H
	mov	edx, DWORD PTR ?pmove@@3PAUplayermove_s@@A ; pmove
	mov	DWORD PTR [edx+184], ecx
$LN13@PM_CheckWa:

; 3156 : 		}
; 3157 : 	}
; 3158 : 
; 3159 : 	// Reset the collision hull
; 3160 : 	pmove->usehull = savehull;

	mov	eax, DWORD PTR ?pmove@@3PAUplayermove_s@@A ; pmove
	mov	ecx, DWORD PTR _savehull$[ebp]
	mov	DWORD PTR [eax+188], ecx
$LN1@PM_CheckWa:

; 3161 : }

	pop	edi
	pop	esi
	pop	ebx
	mov	esp, ebp
	pop	ebp
	ret	0
?PM_CheckWaterJump@@YAXXZ ENDP				; PM_CheckWaterJump
_TEXT	ENDS
; Function compile flags: /Odtp /ZI
; File d:\!diffusion 2020\source code 2022\client-server\game_shared\playermove.cpp
;	COMDAT ?PM_Jump@@YAXXZ
_TEXT	SEGMENT
tv580 = -84						; size = 4
tv578 = -84						; size = 4
tv576 = -84						; size = 4
tv542 = -80						; size = 4
tv526 = -80						; size = 4
tv507 = -80						; size = 4
tv491 = -80						; size = 4
tv475 = -80						; size = 4
tv455 = -80						; size = 4
tv346 = -80						; size = 4
tv337 = -80						; size = 4
tv306 = -80						; size = 4
tv288 = -80						; size = 4
tv270 = -80						; size = 4
tv160 = -80						; size = 4
tv212 = -77						; size = 1
tv80 = -77						; size = 1
_cansuperjump$ = -12					; size = 4
_tfc$ = -8						; size = 4
_i$ = -4						; size = 4
?PM_Jump@@YAXXZ PROC					; PM_Jump, COMDAT

; 2938 : {

	push	ebp
	mov	ebp, esp
	sub	esp, 84					; 00000054H
	push	ebx
	push	esi
	push	edi

; 2939 : 	int i;
; 2940 : 	qboolean tfc = false;

	mov	DWORD PTR _tfc$[ebp], 0

; 2941 : 
; 2942 : 	qboolean cansuperjump = false;

	mov	DWORD PTR _cansuperjump$[ebp], 0

; 2943 : 
; 2944 : 	if (pmove->dead || pmove->flags & FL_ONTRAIN) // diffusion - added ontrain

	mov	eax, DWORD PTR ?pmove@@3PAUplayermove_s@@A ; pmove
	cmp	DWORD PTR [eax+208], 0
	jne	SHORT $LN8@PM_Jump
	mov	eax, DWORD PTR ?pmove@@3PAUplayermove_s@@A ; pmove
	mov	ecx, DWORD PTR [eax+184]
	and	ecx, 16777216				; 01000000H
	je	SHORT $LN7@PM_Jump
$LN8@PM_Jump:

; 2945 : 	{
; 2946 : 		pmove->oldbuttons |= IN_JUMP ;	// don't jump again until released

	mov	eax, DWORD PTR ?pmove@@3PAUplayermove_s@@A ; pmove
	mov	ecx, DWORD PTR [eax+200]
	or	ecx, 2
	mov	edx, DWORD PTR ?pmove@@3PAUplayermove_s@@A ; pmove
	mov	DWORD PTR [edx+200], ecx

; 2947 : 		return;

	jmp	$LN1@PM_Jump
$LN7@PM_Jump:

; 2948 : 	}
; 2949 : 
; 2950 : 	tfc = atoi( pmove->PM_Info_ValueForKey( pmove->physinfo, "tfc" ) ) == 1 ? true : false;

	push	OFFSET ??_C@_03DIGMJINO@tfc?$AA@
	mov	eax, DWORD PTR ?pmove@@3PAUplayermove_s@@A ; pmove
	add	eax, 324592				; 0004f3f0H
	push	eax
	mov	ecx, DWORD PTR ?pmove@@3PAUplayermove_s@@A ; pmove
	mov	edx, DWORD PTR [ecx+324948]
	call	edx
	add	esp, 8
	push	eax
	call	_atoi
	add	esp, 4
	cmp	eax, 1
	jne	SHORT $LN35@PM_Jump
	mov	BYTE PTR tv80[ebp], 1
	jmp	SHORT $LN36@PM_Jump
$LN35@PM_Jump:
	mov	BYTE PTR tv80[ebp], 0
$LN36@PM_Jump:
	movzx	eax, BYTE PTR tv80[ebp]
	mov	DWORD PTR _tfc$[ebp], eax

; 2951 : 
; 2952 : 	// Spy that's feigning death cannot jump
; 2953 : 	if ( tfc && ( pmove->deadflag == ( DEAD_DISCARDBODY + 1 ) ) )

	cmp	DWORD PTR _tfc$[ebp], 0
	je	SHORT $LN9@PM_Jump
	mov	eax, DWORD PTR ?pmove@@3PAUplayermove_s@@A ; pmove
	cmp	DWORD PTR [eax+212], 5
	jne	SHORT $LN9@PM_Jump

; 2954 : 		return;

	jmp	$LN1@PM_Jump
$LN9@PM_Jump:

; 2955 : 
; 2956 : 	// See if we are waterjumping.  If so, decrement count and return.
; 2957 : 	if ( pmove->waterjumptime )

	mov	eax, DWORD PTR ?pmove@@3PAUplayermove_s@@A ; pmove
	movss	xmm0, DWORD PTR [eax+204]
	ucomiss	xmm0, DWORD PTR __real@00000000
	lahf
	test	ah, 68					; 00000044H
	jnp	SHORT $LN10@PM_Jump

; 2958 : 	{
; 2959 : 		pmove->waterjumptime -= pmove->cmd.msec;

	mov	eax, DWORD PTR ?pmove@@3PAUplayermove_s@@A ; pmove
	movzx	ecx, BYTE PTR [eax+283738]
	cvtsi2ss xmm0, ecx
	mov	edx, DWORD PTR ?pmove@@3PAUplayermove_s@@A ; pmove
	movss	xmm1, DWORD PTR [edx+204]
	subss	xmm1, xmm0
	mov	eax, DWORD PTR ?pmove@@3PAUplayermove_s@@A ; pmove
	movss	DWORD PTR [eax+204], xmm1

; 2960 : 		if (pmove->waterjumptime < 0)

	mov	eax, DWORD PTR ?pmove@@3PAUplayermove_s@@A ; pmove
	xorps	xmm0, xmm0
	comiss	xmm0, DWORD PTR [eax+204]
	jbe	SHORT $LN11@PM_Jump

; 2961 : 			pmove->waterjumptime = 0;

	mov	eax, DWORD PTR ?pmove@@3PAUplayermove_s@@A ; pmove
	xorps	xmm0, xmm0
	movss	DWORD PTR [eax+204], xmm0
$LN11@PM_Jump:

; 2962 : 		return;

	jmp	$LN1@PM_Jump
$LN10@PM_Jump:

; 2963 : 	}
; 2964 : 
; 2965 : 	// If we are in the water most of the way...
; 2966 : 	if (pmove->waterlevel >= 2 && pmove->watertype != CONTENTS_FOG)

	mov	eax, DWORD PTR ?pmove@@3PAUplayermove_s@@A ; pmove
	cmp	DWORD PTR [eax+228], 2
	jl	$LN12@PM_Jump
	mov	eax, DWORD PTR ?pmove@@3PAUplayermove_s@@A ; pmove
	cmp	DWORD PTR [eax+232], -19		; ffffffedH
	je	$LN12@PM_Jump

; 2967 : 	{	// swimming, not jumping
; 2968 : 		pmove->onground = -1;

	mov	eax, DWORD PTR ?pmove@@3PAUplayermove_s@@A ; pmove
	mov	DWORD PTR [eax+224], -1

; 2969 : 
; 2970 : 		if (pmove->watertype == CONTENTS_WATER)    // We move up a certain amount

	mov	eax, DWORD PTR ?pmove@@3PAUplayermove_s@@A ; pmove
	cmp	DWORD PTR [eax+232], -3			; fffffffdH
	jne	SHORT $LN13@PM_Jump

; 2971 : 			pmove->velocity[2] = 100;

	mov	ecx, DWORD PTR ?pmove@@3PAUplayermove_s@@A ; pmove
	add	ecx, 92					; 0000005cH
	call	??BVector@@QAEPAMXZ			; Vector::operator float *
	mov	ecx, 4
	shl	ecx, 1
	movss	xmm0, DWORD PTR __real@42c80000
	movss	DWORD PTR [eax+ecx], xmm0
	jmp	SHORT $LN16@PM_Jump
$LN13@PM_Jump:

; 2972 : 		else if (pmove->watertype == CONTENTS_SLIME)

	mov	eax, DWORD PTR ?pmove@@3PAUplayermove_s@@A ; pmove
	cmp	DWORD PTR [eax+232], -4			; fffffffcH
	jne	SHORT $LN15@PM_Jump

; 2973 : 			pmove->velocity[2] = 80;

	mov	ecx, DWORD PTR ?pmove@@3PAUplayermove_s@@A ; pmove
	add	ecx, 92					; 0000005cH
	call	??BVector@@QAEPAMXZ			; Vector::operator float *
	mov	ecx, 4
	shl	ecx, 1
	movss	xmm0, DWORD PTR __real@42a00000
	movss	DWORD PTR [eax+ecx], xmm0

; 2974 : 		else  // LAVA

	jmp	SHORT $LN16@PM_Jump
$LN15@PM_Jump:

; 2975 : 			pmove->velocity[2] = 50;

	mov	ecx, DWORD PTR ?pmove@@3PAUplayermove_s@@A ; pmove
	add	ecx, 92					; 0000005cH
	call	??BVector@@QAEPAMXZ			; Vector::operator float *
	mov	ecx, 4
	shl	ecx, 1
	movss	xmm0, DWORD PTR __real@42480000
	movss	DWORD PTR [eax+ecx], xmm0
$LN16@PM_Jump:

; 2976 : 
; 2977 : 		// play swiming sound
; 2978 : 		if ( pmove->flSwimTime <= 0 )

	mov	eax, DWORD PTR ?pmove@@3PAUplayermove_s@@A ; pmove
	xorps	xmm0, xmm0
	comiss	xmm0, DWORD PTR [eax+172]
	jb	$LN2@PM_Jump

; 2979 : 		{
; 2980 : 			// Don't play sound again for 1 second
; 2981 : 			pmove->flSwimTime = 1000;

	mov	eax, DWORD PTR ?pmove@@3PAUplayermove_s@@A ; pmove
	movss	xmm0, DWORD PTR __real@447a0000
	movss	DWORD PTR [eax+172], xmm0

; 2982 : 			switch ( pmove->RandomLong( 0, 3 ) )

	push	3
	push	0
	mov	eax, DWORD PTR ?pmove@@3PAUplayermove_s@@A ; pmove
	mov	ecx, DWORD PTR [eax+325000]
	call	ecx
	add	esp, 8
	mov	DWORD PTR tv160[ebp], eax
	cmp	DWORD PTR tv160[ebp], 3
	ja	$LN2@PM_Jump
	mov	edx, DWORD PTR tv160[ebp]
	jmp	DWORD PTR $LN39@PM_Jump[edx*4]
$LN18@PM_Jump:

; 2983 : 			{ 
; 2984 : 			case 0:
; 2985 : 				pmove->PM_PlaySound( CHAN_BODY, "footsteps/wade1.wav", 1, ATTN_NORM, 0, PITCH_NORM );

	push	100					; 00000064H
	push	0
	push	ecx
	movss	xmm0, DWORD PTR __real@3f4ccccd
	movss	DWORD PTR [esp], xmm0
	push	ecx
	movss	xmm0, DWORD PTR __real@3f800000
	movss	DWORD PTR [esp], xmm0
	push	OFFSET ??_C@_0BE@FOEPOJBH@footsteps?1wade1?4wav?$AA@
	push	4
	mov	eax, DWORD PTR ?pmove@@3PAUplayermove_s@@A ; pmove
	mov	ecx, DWORD PTR [eax+325044]
	call	ecx
	add	esp, 24					; 00000018H

; 2986 : 				break;

	jmp	$LN2@PM_Jump
$LN19@PM_Jump:

; 2987 : 			case 1:
; 2988 : 				pmove->PM_PlaySound( CHAN_BODY, "footsteps/wade2.wav", 1, ATTN_NORM, 0, PITCH_NORM );

	push	100					; 00000064H
	push	0
	push	ecx
	movss	xmm0, DWORD PTR __real@3f4ccccd
	movss	DWORD PTR [esp], xmm0
	push	ecx
	movss	xmm0, DWORD PTR __real@3f800000
	movss	DWORD PTR [esp], xmm0
	push	OFFSET ??_C@_0BE@NINLJLLJ@footsteps?1wade2?4wav?$AA@
	push	4
	mov	eax, DWORD PTR ?pmove@@3PAUplayermove_s@@A ; pmove
	mov	ecx, DWORD PTR [eax+325044]
	call	ecx
	add	esp, 24					; 00000018H

; 2989 : 				break;

	jmp	SHORT $LN2@PM_Jump
$LN20@PM_Jump:

; 2990 : 			case 2:
; 2991 : 				pmove->PM_PlaySound( CHAN_BODY, "footsteps/wade3.wav", 1, ATTN_NORM, 0, PITCH_NORM );

	push	100					; 00000064H
	push	0
	push	ecx
	movss	xmm0, DWORD PTR __real@3f4ccccd
	movss	DWORD PTR [esp], xmm0
	push	ecx
	movss	xmm0, DWORD PTR __real@3f800000
	movss	DWORD PTR [esp], xmm0
	push	OFFSET ??_C@_0BE@BDIHEIBM@footsteps?1wade3?4wav?$AA@
	push	4
	mov	eax, DWORD PTR ?pmove@@3PAUplayermove_s@@A ; pmove
	mov	ecx, DWORD PTR [eax+325044]
	call	ecx
	add	esp, 24					; 00000018H

; 2992 : 				break;

	jmp	SHORT $LN2@PM_Jump
$LN21@PM_Jump:

; 2993 : 			case 3:
; 2994 : 				pmove->PM_PlaySound( CHAN_BODY, "footsteps/wade4.wav", 1, ATTN_NORM, 0, PITCH_NORM );

	push	100					; 00000064H
	push	0
	push	ecx
	movss	xmm0, DWORD PTR __real@3f4ccccd
	movss	DWORD PTR [esp], xmm0
	push	ecx
	movss	xmm0, DWORD PTR __real@3f800000
	movss	DWORD PTR [esp], xmm0
	push	OFFSET ??_C@_0BE@OICHIKE@footsteps?1wade4?4wav?$AA@
	push	4
	mov	eax, DWORD PTR ?pmove@@3PAUplayermove_s@@A ; pmove
	mov	ecx, DWORD PTR [eax+325044]
	call	ecx
	add	esp, 24					; 00000018H
$LN2@PM_Jump:

; 2995 : 				break;
; 2996 : 			}
; 2997 : 		}
; 2998 : 
; 2999 : 		return;

	jmp	$LN1@PM_Jump
$LN12@PM_Jump:

; 3000 : 	}
; 3001 : 
; 3002 : 	// No more effect
; 3003 :  	if ( pmove->onground == -1 )

	mov	eax, DWORD PTR ?pmove@@3PAUplayermove_s@@A ; pmove
	cmp	DWORD PTR [eax+224], -1
	jne	SHORT $LN22@PM_Jump

; 3004 : 	{
; 3005 : 		// Flag that we jumped.
; 3006 : 		// HACK HACK HACK
; 3007 : 		// Remove this when the game .dll no longer does physics code!!!!
; 3008 : 		pmove->oldbuttons |= IN_JUMP;	// don't jump again until released

	mov	eax, DWORD PTR ?pmove@@3PAUplayermove_s@@A ; pmove
	mov	ecx, DWORD PTR [eax+200]
	or	ecx, 2
	mov	edx, DWORD PTR ?pmove@@3PAUplayermove_s@@A ; pmove
	mov	DWORD PTR [edx+200], ecx

; 3009 : 		return;		// in air, so no effect

	jmp	$LN1@PM_Jump
$LN22@PM_Jump:

; 3010 : 	}
; 3011 : 
; 3012 : 	if ( pmove->oldbuttons & IN_JUMP )

	mov	eax, DWORD PTR ?pmove@@3PAUplayermove_s@@A ; pmove
	mov	ecx, DWORD PTR [eax+200]
	and	ecx, 2
	je	SHORT $LN23@PM_Jump

; 3013 : 		return;		// don't pogo stick

	jmp	$LN1@PM_Jump
$LN23@PM_Jump:

; 3014 : 
; 3015 : 	// In the air now.
; 3016 : 	pmove->onground = -1;

	mov	eax, DWORD PTR ?pmove@@3PAUplayermove_s@@A ; pmove
	mov	DWORD PTR [eax+224], -1

; 3017 : 
; 3018 : 	PM_PreventMegaBunnyJumping();

	call	?PM_PreventMegaBunnyJumping@@YAXXZ	; PM_PreventMegaBunnyJumping

; 3019 : 
; 3020 : 	PM_PlayStepSound( PM_MapTextureTypeStepType( pmove->chtexturetype ), 1.0 );

	push	ecx
	movss	xmm0, DWORD PTR __real@3f800000
	movss	DWORD PTR [esp], xmm0
	mov	eax, DWORD PTR ?pmove@@3PAUplayermove_s@@A ; pmove
	movzx	ecx, BYTE PTR [eax+496]
	push	ecx
	call	?PM_MapTextureTypeStepType@@YAHD@Z	; PM_MapTextureTypeStepType
	add	esp, 4
	push	eax
	call	?PM_PlayStepSound@@YAXHM@Z		; PM_PlayStepSound
	add	esp, 8

; 3021 : 
; 3022 : 	// See if user can super long jump?
; 3023 : 	cansuperjump = atoi( pmove->PM_Info_ValueForKey( pmove->physinfo, "slj" ) ) == 1 ? true : false;

	push	OFFSET ??_C@_03HJOOJOPI@slj?$AA@
	mov	eax, DWORD PTR ?pmove@@3PAUplayermove_s@@A ; pmove
	add	eax, 324592				; 0004f3f0H
	push	eax
	mov	ecx, DWORD PTR ?pmove@@3PAUplayermove_s@@A ; pmove
	mov	edx, DWORD PTR [ecx+324948]
	call	edx
	add	esp, 8
	push	eax
	call	_atoi
	add	esp, 4
	cmp	eax, 1
	jne	SHORT $LN37@PM_Jump
	mov	BYTE PTR tv212[ebp], 1
	jmp	SHORT $LN38@PM_Jump
$LN37@PM_Jump:
	mov	BYTE PTR tv212[ebp], 0
$LN38@PM_Jump:
	movzx	eax, BYTE PTR tv212[ebp]
	mov	DWORD PTR _cansuperjump$[ebp], eax

; 3024 : 
; 3025 : 	// Acclerate upward
; 3026 : 	// If we are ducking...
; 3027 : 	if ( ( pmove->bInDuck ) || ( pmove->flags & FL_DUCKING ) )

	mov	eax, DWORD PTR ?pmove@@3PAUplayermove_s@@A ; pmove
	cmp	DWORD PTR [eax+144], 0
	jne	SHORT $LN26@PM_Jump
	mov	eax, DWORD PTR ?pmove@@3PAUplayermove_s@@A ; pmove
	mov	ecx, DWORD PTR [eax+184]
	and	ecx, 16384				; 00004000H
	je	$LN24@PM_Jump
$LN26@PM_Jump:

; 3028 : 	{
; 3029 : 		// Adjust for super long jump module
; 3030 : 		// UNDONE -- note this should be based on forward angles, not current velocity.
; 3031 : 		if ( cansuperjump &&
; 3032 : 			( pmove->cmd.buttons & IN_DUCK ) &&
; 3033 : 			( pmove->flDuckTime > 0 ) &&

	cmp	DWORD PTR _cansuperjump$[ebp], 0
	je	$LN27@PM_Jump
	mov	eax, DWORD PTR ?pmove@@3PAUplayermove_s@@A ; pmove
	movzx	ecx, WORD PTR [eax+283766]
	and	ecx, 4
	je	$LN27@PM_Jump
	mov	eax, DWORD PTR ?pmove@@3PAUplayermove_s@@A ; pmove
	movss	xmm0, DWORD PTR [eax+140]
	comiss	xmm0, DWORD PTR __real@00000000
	jbe	$LN27@PM_Jump
	mov	ecx, DWORD PTR ?pmove@@3PAUplayermove_s@@A ; pmove
	add	ecx, 92					; 0000005cH
	call	?Length@Vector@@QBEMXZ			; Vector::Length
	fstp	DWORD PTR tv455[ebp]
	movss	xmm0, DWORD PTR tv455[ebp]
	comiss	xmm0, DWORD PTR __real@42480000
	jbe	$LN27@PM_Jump

; 3034 : 			pmove->velocity.Length() > 50 )
; 3035 : 		{
; 3036 : 			pmove->punchangle[0] = -5;

	mov	ecx, DWORD PTR ?pmove@@3PAUplayermove_s@@A ; pmove
	add	ecx, 160				; 000000a0H
	call	??BVector@@QAEPAMXZ			; Vector::operator float *
	mov	ecx, 4
	imul	edx, ecx, 0
	movss	xmm0, DWORD PTR __real@c0a00000
	movss	DWORD PTR [eax+edx], xmm0

; 3037 : 			
; 3038 : 			for (i =0; i < 2; i++)

	mov	DWORD PTR _i$[ebp], 0
	jmp	SHORT $LN6@PM_Jump
$LN4@PM_Jump:
	mov	eax, DWORD PTR _i$[ebp]
	add	eax, 1
	mov	DWORD PTR _i$[ebp], eax
$LN6@PM_Jump:
	cmp	DWORD PTR _i$[ebp], 2
	jge	SHORT $LN5@PM_Jump

; 3039 : 				pmove->velocity[i] = pmove->forward[i] * PLAYER_LONGJUMP_SPEED * 1.6;

	mov	ecx, DWORD PTR ?pmove@@3PAUplayermove_s@@A ; pmove
	add	ecx, 20					; 00000014H
	call	??BVector@@QAEPAMXZ			; Vector::operator float *
	mov	ecx, DWORD PTR ?pmove@@3PAUplayermove_s@@A ; pmove
	movss	xmm0, DWORD PTR [ecx+500]
	mulss	xmm0, DWORD PTR __real@3f8c28f6
	mov	edx, DWORD PTR _i$[ebp]
	mulss	xmm0, DWORD PTR [eax+edx*4]
	cvtss2sd xmm0, xmm0
	mulsd	xmm0, QWORD PTR __real@3ff999999999999a
	cvtsd2ss xmm0, xmm0
	mov	ecx, DWORD PTR ?pmove@@3PAUplayermove_s@@A ; pmove
	add	ecx, 92					; 0000005cH
	movss	DWORD PTR tv542[ebp], xmm0
	call	??BVector@@QAEPAMXZ			; Vector::operator float *
	mov	ecx, DWORD PTR _i$[ebp]
	movss	xmm0, DWORD PTR tv542[ebp]
	movss	DWORD PTR [eax+ecx*4], xmm0
	jmp	SHORT $LN4@PM_Jump
$LN5@PM_Jump:

; 3040 : 		
; 3041 : 			pmove->velocity[2] = sqrt(2 * 800 * 56.0);

	sub	esp, 8
	movsd	xmm0, QWORD PTR __real@40f5e00000000000
	movsd	QWORD PTR [esp], xmm0
	call	_sqrt
	add	esp, 8
	fstp	DWORD PTR tv475[ebp]
	fld	DWORD PTR tv475[ebp]
	mov	ecx, DWORD PTR ?pmove@@3PAUplayermove_s@@A ; pmove
	add	ecx, 92					; 0000005cH
	fstp	DWORD PTR tv576[ebp]
	call	??BVector@@QAEPAMXZ			; Vector::operator float *
	mov	ecx, 4
	shl	ecx, 1
	fld	DWORD PTR tv576[ebp]
	fstp	DWORD PTR [eax+ecx]

; 3042 : 			if( pmove->effects & EF_UPSIDEDOWN )

	mov	eax, DWORD PTR ?pmove@@3PAUplayermove_s@@A ; pmove
	mov	ecx, DWORD PTR [eax+180]
	and	ecx, 4194304				; 00400000H
	je	SHORT $LN29@PM_Jump

; 3043 : 				pmove->velocity[2] *= -1;

	mov	ecx, DWORD PTR ?pmove@@3PAUplayermove_s@@A ; pmove
	add	ecx, 92					; 0000005cH
	call	??BVector@@QAEPAMXZ			; Vector::operator float *
	mov	ecx, 4
	shl	ecx, 1
	add	eax, ecx
	mov	DWORD PTR tv270[ebp], eax
	mov	edx, DWORD PTR tv270[ebp]
	movss	xmm0, DWORD PTR [edx]
	mulss	xmm0, DWORD PTR __real@bf800000
	mov	eax, DWORD PTR tv270[ebp]
	movss	DWORD PTR [eax], xmm0
$LN29@PM_Jump:

; 3044 : 		}
; 3045 : 		else

	jmp	SHORT $LN30@PM_Jump
$LN27@PM_Jump:

; 3046 : 		{
; 3047 : 			pmove->velocity[2] = sqrt( 2 * 800 * 45.0 );

	sub	esp, 8
	movsd	xmm0, QWORD PTR __real@40f1940000000000
	movsd	QWORD PTR [esp], xmm0
	call	_sqrt
	add	esp, 8
	fstp	DWORD PTR tv491[ebp]
	fld	DWORD PTR tv491[ebp]
	mov	ecx, DWORD PTR ?pmove@@3PAUplayermove_s@@A ; pmove
	add	ecx, 92					; 0000005cH
	fstp	DWORD PTR tv578[ebp]
	call	??BVector@@QAEPAMXZ			; Vector::operator float *
	mov	ecx, 4
	shl	ecx, 1
	fld	DWORD PTR tv578[ebp]
	fstp	DWORD PTR [eax+ecx]

; 3048 : 			if( pmove->effects & EF_UPSIDEDOWN )

	mov	eax, DWORD PTR ?pmove@@3PAUplayermove_s@@A ; pmove
	mov	ecx, DWORD PTR [eax+180]
	and	ecx, 4194304				; 00400000H
	je	SHORT $LN30@PM_Jump

; 3049 : 				pmove->velocity[2] *= -1;

	mov	ecx, DWORD PTR ?pmove@@3PAUplayermove_s@@A ; pmove
	add	ecx, 92					; 0000005cH
	call	??BVector@@QAEPAMXZ			; Vector::operator float *
	mov	ecx, 4
	shl	ecx, 1
	add	eax, ecx
	mov	DWORD PTR tv288[ebp], eax
	mov	edx, DWORD PTR tv288[ebp]
	movss	xmm0, DWORD PTR [edx]
	mulss	xmm0, DWORD PTR __real@bf800000
	mov	eax, DWORD PTR tv288[ebp]
	movss	DWORD PTR [eax], xmm0
$LN30@PM_Jump:

; 3050 : 		}
; 3051 : 	}
; 3052 : 	else

	jmp	$LN33@PM_Jump
$LN24@PM_Jump:

; 3053 : 	{
; 3054 : 		pmove->velocity[2] = sqrt(2 * 800 * 45.0);

	sub	esp, 8
	movsd	xmm0, QWORD PTR __real@40f1940000000000
	movsd	QWORD PTR [esp], xmm0
	call	_sqrt
	add	esp, 8
	fstp	DWORD PTR tv507[ebp]
	fld	DWORD PTR tv507[ebp]
	mov	ecx, DWORD PTR ?pmove@@3PAUplayermove_s@@A ; pmove
	add	ecx, 92					; 0000005cH
	fstp	DWORD PTR tv580[ebp]
	call	??BVector@@QAEPAMXZ			; Vector::operator float *
	mov	ecx, 4
	shl	ecx, 1
	fld	DWORD PTR tv580[ebp]
	fstp	DWORD PTR [eax+ecx]

; 3055 : 		if( pmove->effects & EF_UPSIDEDOWN )

	mov	eax, DWORD PTR ?pmove@@3PAUplayermove_s@@A ; pmove
	mov	ecx, DWORD PTR [eax+180]
	and	ecx, 4194304				; 00400000H
	je	SHORT $LN31@PM_Jump

; 3056 : 			pmove->velocity[2] *= -1;

	mov	ecx, DWORD PTR ?pmove@@3PAUplayermove_s@@A ; pmove
	add	ecx, 92					; 0000005cH
	call	??BVector@@QAEPAMXZ			; Vector::operator float *
	mov	ecx, 4
	shl	ecx, 1
	add	eax, ecx
	mov	DWORD PTR tv306[ebp], eax
	mov	edx, DWORD PTR tv306[ebp]
	movss	xmm0, DWORD PTR [edx]
	mulss	xmm0, DWORD PTR __real@bf800000
	mov	eax, DWORD PTR tv306[ebp]
	movss	DWORD PTR [eax], xmm0
$LN31@PM_Jump:

; 3057 : 
; 3058 : 		// diffusion - speed boost similar to HL2. needs to be tested more.
; 3059 : 		if( (pmove->cmd.buttons & IN_FORWARD) && (pmove->cmd.buttons & IN_JUMP) && !(pmove->cmd.buttons & IN_RUN) && !(pmove->cmd.buttons & IN_DUCK) )

	mov	eax, DWORD PTR ?pmove@@3PAUplayermove_s@@A ; pmove
	movzx	ecx, WORD PTR [eax+283766]
	and	ecx, 8
	je	$LN33@PM_Jump
	mov	eax, DWORD PTR ?pmove@@3PAUplayermove_s@@A ; pmove
	movzx	ecx, WORD PTR [eax+283766]
	and	ecx, 2
	je	$LN33@PM_Jump
	mov	eax, DWORD PTR ?pmove@@3PAUplayermove_s@@A ; pmove
	movzx	ecx, WORD PTR [eax+283766]
	and	ecx, 4096				; 00001000H
	jne	$LN33@PM_Jump
	mov	eax, DWORD PTR ?pmove@@3PAUplayermove_s@@A ; pmove
	movzx	ecx, WORD PTR [eax+283766]
	and	ecx, 4
	jne	$LN33@PM_Jump

; 3060 : 		{
; 3061 : 			if( (pmove->velocity.Length() < 350) )

	mov	ecx, DWORD PTR ?pmove@@3PAUplayermove_s@@A ; pmove
	add	ecx, 92					; 0000005cH
	call	?Length@Vector@@QBEMXZ			; Vector::Length
	fstp	DWORD PTR tv526[ebp]
	movss	xmm0, DWORD PTR __real@43af0000
	comiss	xmm0, DWORD PTR tv526[ebp]
	jbe	SHORT $LN33@PM_Jump

; 3062 : 			{
; 3063 : 				pmove->velocity[0] *= 1.35;

	mov	ecx, DWORD PTR ?pmove@@3PAUplayermove_s@@A ; pmove
	add	ecx, 92					; 0000005cH
	call	??BVector@@QAEPAMXZ			; Vector::operator float *
	mov	ecx, 4
	imul	edx, ecx, 0
	add	eax, edx
	mov	DWORD PTR tv337[ebp], eax
	mov	eax, DWORD PTR tv337[ebp]
	cvtss2sd xmm0, DWORD PTR [eax]
	mulsd	xmm0, QWORD PTR __real@3ff599999999999a
	cvtsd2ss xmm0, xmm0
	mov	ecx, DWORD PTR tv337[ebp]
	movss	DWORD PTR [ecx], xmm0

; 3064 : 				pmove->velocity[1] *= 1.35;

	mov	ecx, DWORD PTR ?pmove@@3PAUplayermove_s@@A ; pmove
	add	ecx, 92					; 0000005cH
	call	??BVector@@QAEPAMXZ			; Vector::operator float *
	mov	ecx, 4
	shl	ecx, 0
	add	eax, ecx
	mov	DWORD PTR tv346[ebp], eax
	mov	edx, DWORD PTR tv346[ebp]
	cvtss2sd xmm0, DWORD PTR [edx]
	mulsd	xmm0, QWORD PTR __real@3ff599999999999a
	cvtsd2ss xmm0, xmm0
	mov	eax, DWORD PTR tv346[ebp]
	movss	DWORD PTR [eax], xmm0
$LN33@PM_Jump:

; 3065 : 			}
; 3066 : 		}
; 3067 : 	}
; 3068 : 
; 3069 : 	// Decay it for simulation
; 3070 : 	PM_FixupGravityVelocity();

	call	?PM_FixupGravityVelocity@@YAXXZ		; PM_FixupGravityVelocity

; 3071 : 
; 3072 : 	// Flag that we jumped.
; 3073 : 	pmove->oldbuttons |= IN_JUMP;	// don't jump again until released

	mov	eax, DWORD PTR ?pmove@@3PAUplayermove_s@@A ; pmove
	mov	ecx, DWORD PTR [eax+200]
	or	ecx, 2
	mov	edx, DWORD PTR ?pmove@@3PAUplayermove_s@@A ; pmove
	mov	DWORD PTR [edx+200], ecx
$LN1@PM_Jump:

; 3074 : }

	pop	edi
	pop	esi
	pop	ebx
	mov	esp, ebp
	pop	ebp
	ret	0
$LN39@PM_Jump:
	DD	$LN18@PM_Jump
	DD	$LN19@PM_Jump
	DD	$LN20@PM_Jump
	DD	$LN21@PM_Jump
?PM_Jump@@YAXXZ ENDP					; PM_Jump
_TEXT	ENDS
; Function compile flags: /Odtp /ZI
; File d:\!diffusion 2020\source code 2022\client-server\game_shared\playermove.cpp
;	COMDAT ?PM_PreventMegaBunnyJumping@@YAXXZ
_TEXT	SEGMENT
_maxscaledspeed$ = -12					; size = 4
_fraction$ = -8						; size = 4
_spd$ = -4						; size = 4
?PM_PreventMegaBunnyJumping@@YAXXZ PROC			; PM_PreventMegaBunnyJumping, COMDAT

; 2908 : {

	push	ebp
	mov	ebp, esp
	sub	esp, 76					; 0000004cH
	push	ebx
	push	esi
	push	edi

; 2909 : 	// Current player speed
; 2910 : 	float spd;
; 2911 : 	// If we have to crop, apply this cropping fraction to velocity
; 2912 : 	float fraction;
; 2913 : 	// Speed at which bunny jumping is limited
; 2914 : 	float maxscaledspeed;
; 2915 : 
; 2916 : 	maxscaledspeed = BUNNYJUMP_MAX_SPEED_FACTOR * pmove->maxspeed;

	mov	eax, DWORD PTR ?pmove@@3PAUplayermove_s@@A ; pmove
	movss	xmm0, DWORD PTR __real@3fd9999a
	mulss	xmm0, DWORD PTR [eax+500]
	movss	DWORD PTR _maxscaledspeed$[ebp], xmm0

; 2917 : 
; 2918 : 	// Don't divide by zero
; 2919 : 	if ( maxscaledspeed <= 0.0f )

	xorps	xmm0, xmm0
	comiss	xmm0, DWORD PTR _maxscaledspeed$[ebp]
	jb	SHORT $LN2@PM_Prevent

; 2920 : 		return;

	jmp	SHORT $LN1@PM_Prevent
$LN2@PM_Prevent:

; 2921 : 
; 2922 : 	spd = pmove->velocity.Length();

	mov	ecx, DWORD PTR ?pmove@@3PAUplayermove_s@@A ; pmove
	add	ecx, 92					; 0000005cH
	call	?Length@Vector@@QBEMXZ			; Vector::Length
	fstp	DWORD PTR _spd$[ebp]

; 2923 : 
; 2924 : 	if ( spd <= maxscaledspeed )

	movss	xmm0, DWORD PTR _maxscaledspeed$[ebp]
	comiss	xmm0, DWORD PTR _spd$[ebp]
	jb	SHORT $LN3@PM_Prevent

; 2925 : 		return;

	jmp	SHORT $LN1@PM_Prevent
$LN3@PM_Prevent:

; 2926 : 
; 2927 : 	fraction = ( maxscaledspeed / spd ) * 0.65; //Returns the modifier for the velocity

	movss	xmm0, DWORD PTR _maxscaledspeed$[ebp]
	divss	xmm0, DWORD PTR _spd$[ebp]
	cvtss2sd xmm0, xmm0
	mulsd	xmm0, QWORD PTR __real@3fe4cccccccccccd
	cvtsd2ss xmm0, xmm0
	movss	DWORD PTR _fraction$[ebp], xmm0

; 2928 : 	
; 2929 : 	pmove->velocity *= fraction; //Crop it down!.

	push	ecx
	movss	xmm0, DWORD PTR _fraction$[ebp]
	movss	DWORD PTR [esp], xmm0
	mov	ecx, DWORD PTR ?pmove@@3PAUplayermove_s@@A ; pmove
	add	ecx, 92					; 0000005cH
	call	??XVector@@QAEAAV0@M@Z			; Vector::operator*=
$LN1@PM_Prevent:

; 2930 : }

	pop	edi
	pop	esi
	pop	ebx
	mov	esp, ebp
	pop	ebp
	ret	0
?PM_PreventMegaBunnyJumping@@YAXXZ ENDP			; PM_PreventMegaBunnyJumping
_TEXT	ENDS
; Function compile flags: /Odtp /ZI
; File d:\!diffusion 2020\source code 2022\client-server\game_shared\playermove.cpp
;	COMDAT ?PM_Physics_Toss@@YAXXZ
_TEXT	SEGMENT
$T1 = -468						; size = 68
$T2 = -400						; size = 68
$T3 = -332						; size = 12
$T4 = -312						; size = 68
$T5 = -244						; size = 68
$T6 = -176						; size = 12
_base$7 = -100						; size = 12
_vel$8 = -88						; size = 4
_backoff$ = -84						; size = 4
_move$ = -80						; size = 12
_trace$ = -68						; size = 68
?PM_Physics_Toss@@YAXXZ PROC				; PM_Physics_Toss, COMDAT

; 2798 : {

	push	ebp
	mov	ebp, esp
	sub	esp, 468				; 000001d4H
	push	ebx
	push	esi
	push	edi

; 2799 : 	pmtrace_t trace;

	lea	ecx, DWORD PTR _trace$[ebp]
	call	??0pmtrace_s@@QAE@XZ

; 2800 : 	Vector	move;

	lea	ecx, DWORD PTR _move$[ebp]
	call	??0Vector@@QAE@XZ			; Vector::Vector

; 2801 : 	float	backoff;
; 2802 : 
; 2803 : 	PM_CheckWater();

	call	?PM_CheckWater@@YAHXZ			; PM_CheckWater

; 2804 : 
; 2805 : 	if (pmove->velocity[2] > 0)

	mov	ecx, DWORD PTR ?pmove@@3PAUplayermove_s@@A ; pmove
	add	ecx, 92					; 0000005cH
	call	??BVector@@QAEPAMXZ			; Vector::operator float *
	mov	ecx, 4
	shl	ecx, 1
	movss	xmm0, DWORD PTR [eax+ecx]
	comiss	xmm0, DWORD PTR __real@00000000
	jbe	SHORT $LN2@PM_Physics

; 2806 : 		pmove->onground = -1;

	mov	eax, DWORD PTR ?pmove@@3PAUplayermove_s@@A ; pmove
	mov	DWORD PTR [eax+224], -1
$LN2@PM_Physics:

; 2807 : 
; 2808 : 	// If on ground and not moving, return.
; 2809 : 	if ( pmove->onground != -1 )

	mov	eax, DWORD PTR ?pmove@@3PAUplayermove_s@@A ; pmove
	cmp	DWORD PTR [eax+224], -1
	je	SHORT $LN4@PM_Physics

; 2810 : 	{
; 2811 : 		if(( pmove->basevelocity == g_vecZero) && ( pmove->velocity == g_vecZero ))

	push	OFFSET ?g_vecZero@@3VVector@@B		; g_vecZero
	mov	ecx, DWORD PTR ?pmove@@3PAUplayermove_s@@A ; pmove
	add	ecx, 116				; 00000074H
	call	??8Vector@@QBEHABV0@@Z			; Vector::operator==
	test	eax, eax
	je	SHORT $LN4@PM_Physics
	push	OFFSET ?g_vecZero@@3VVector@@B		; g_vecZero
	mov	ecx, DWORD PTR ?pmove@@3PAUplayermove_s@@A ; pmove
	add	ecx, 92					; 0000005cH
	call	??8Vector@@QBEHABV0@@Z			; Vector::operator==
	test	eax, eax
	je	SHORT $LN4@PM_Physics

; 2812 : 			return;

	jmp	$LN1@PM_Physics
$LN4@PM_Physics:

; 2813 : 	}
; 2814 : 
; 2815 : 	PM_CheckVelocity ();

	call	?PM_CheckVelocity@@YAXXZ		; PM_CheckVelocity

; 2816 : 
; 2817 : // add gravity
; 2818 : 	if ( pmove->movetype != MOVETYPE_FLY &&
; 2819 : 		 pmove->movetype != MOVETYPE_BOUNCEMISSILE &&

	mov	eax, DWORD PTR ?pmove@@3PAUplayermove_s@@A ; pmove
	cmp	DWORD PTR [eax+220], 5
	je	SHORT $LN5@PM_Physics
	mov	eax, DWORD PTR ?pmove@@3PAUplayermove_s@@A ; pmove
	cmp	DWORD PTR [eax+220], 11			; 0000000bH
	je	SHORT $LN5@PM_Physics
	mov	eax, DWORD PTR ?pmove@@3PAUplayermove_s@@A ; pmove
	cmp	DWORD PTR [eax+220], 9
	je	SHORT $LN5@PM_Physics

; 2820 : 		 pmove->movetype != MOVETYPE_FLYMISSILE )
; 2821 : 		PM_AddGravity ();

	call	?PM_AddGravity@@YAXXZ			; PM_AddGravity
$LN5@PM_Physics:

; 2822 : 
; 2823 : // move origin
; 2824 : 	// Base velocity is not properly accounted for since this entity will move again after the bounce without
; 2825 : 	// taking it into account
; 2826 : 	pmove->velocity += pmove->basevelocity;

	mov	eax, DWORD PTR ?pmove@@3PAUplayermove_s@@A ; pmove
	add	eax, 116				; 00000074H
	push	eax
	mov	ecx, DWORD PTR ?pmove@@3PAUplayermove_s@@A ; pmove
	add	ecx, 92					; 0000005cH
	call	??YVector@@QAEAAV0@ABV0@@Z		; Vector::operator+=

; 2827 : 	
; 2828 : 	PM_CheckVelocity();

	call	?PM_CheckVelocity@@YAXXZ		; PM_CheckVelocity

; 2829 : 
; 2830 : 	move = pmove->velocity * pmove->frametime;

	mov	eax, DWORD PTR ?pmove@@3PAUplayermove_s@@A ; pmove
	push	ecx
	movss	xmm0, DWORD PTR [eax+16]
	movss	DWORD PTR [esp], xmm0
	lea	ecx, DWORD PTR $T6[ebp]
	push	ecx
	mov	ecx, DWORD PTR ?pmove@@3PAUplayermove_s@@A ; pmove
	add	ecx, 92					; 0000005cH
	call	??DVector@@QBE?AV0@M@Z			; Vector::operator*
	mov	edx, DWORD PTR [eax]
	mov	DWORD PTR _move$[ebp], edx
	mov	ecx, DWORD PTR [eax+4]
	mov	DWORD PTR _move$[ebp+4], ecx
	mov	edx, DWORD PTR [eax+8]
	mov	DWORD PTR _move$[ebp+8], edx

; 2831 : 	pmove->velocity -= pmove->basevelocity;

	mov	eax, DWORD PTR ?pmove@@3PAUplayermove_s@@A ; pmove
	add	eax, 116				; 00000074H
	push	eax
	mov	ecx, DWORD PTR ?pmove@@3PAUplayermove_s@@A ; pmove
	add	ecx, 92					; 0000005cH
	call	??ZVector@@QAEAAV0@ABV0@@Z		; Vector::operator-=

; 2832 : 
; 2833 : 	trace = PM_PushEntity (move);	// Should this clear basevelocity

	lea	eax, DWORD PTR _move$[ebp]
	push	eax
	lea	ecx, DWORD PTR $T4[ebp]
	push	ecx
	call	?PM_PushEntity@@YA?AUpmtrace_s@@ABVVector@@@Z ; PM_PushEntity
	add	esp, 8
	mov	ecx, 17					; 00000011H
	mov	esi, eax
	lea	edi, DWORD PTR $T5[ebp]
	rep movsd
	mov	ecx, 17					; 00000011H
	lea	esi, DWORD PTR $T5[ebp]
	lea	edi, DWORD PTR _trace$[ebp]
	rep movsd

; 2834 : 
; 2835 : 	PM_CheckVelocity();

	call	?PM_CheckVelocity@@YAXXZ		; PM_CheckVelocity

; 2836 : 
; 2837 : 	if (trace.allsolid)

	cmp	DWORD PTR _trace$[ebp], 0
	je	SHORT $LN6@PM_Physics

; 2838 : 	{	
; 2839 : 		// entity is trapped in another solid
; 2840 : 		pmove->onground = trace.ent;

	mov	eax, DWORD PTR ?pmove@@3PAUplayermove_s@@A ; pmove
	mov	ecx, DWORD PTR _trace$[ebp+48]
	mov	DWORD PTR [eax+224], ecx

; 2841 : 		pmove->velocity = g_vecZero;

	mov	eax, DWORD PTR ?pmove@@3PAUplayermove_s@@A ; pmove
	add	eax, 92					; 0000005cH
	mov	ecx, DWORD PTR ?g_vecZero@@3VVector@@B
	mov	DWORD PTR [eax], ecx
	mov	edx, DWORD PTR ?g_vecZero@@3VVector@@B+4
	mov	DWORD PTR [eax+4], edx
	mov	ecx, DWORD PTR ?g_vecZero@@3VVector@@B+8
	mov	DWORD PTR [eax+8], ecx

; 2842 : 		return;

	jmp	$LN1@PM_Physics
$LN6@PM_Physics:

; 2843 : 	}
; 2844 : 	
; 2845 : 	if (trace.fraction == 1)

	movss	xmm0, DWORD PTR _trace$[ebp+16]
	ucomiss	xmm0, DWORD PTR __real@3f800000
	lahf
	test	ah, 68					; 00000044H
	jp	SHORT $LN7@PM_Physics

; 2846 : 	{
; 2847 : 		PM_CheckWater();

	call	?PM_CheckWater@@YAHXZ			; PM_CheckWater

; 2848 : 		return;

	jmp	$LN1@PM_Physics
$LN7@PM_Physics:

; 2849 : 	}
; 2850 : 
; 2851 : 
; 2852 : 	if (pmove->movetype == MOVETYPE_BOUNCE)

	mov	eax, DWORD PTR ?pmove@@3PAUplayermove_s@@A ; pmove
	cmp	DWORD PTR [eax+220], 10			; 0000000aH
	jne	SHORT $LN8@PM_Physics

; 2853 : 		backoff = 2.0 - pmove->friction;

	mov	eax, DWORD PTR ?pmove@@3PAUplayermove_s@@A ; pmove
	cvtss2sd xmm0, DWORD PTR [eax+196]
	movsd	xmm1, QWORD PTR __real@4000000000000000
	subsd	xmm1, xmm0
	cvtsd2ss xmm0, xmm1
	movss	DWORD PTR _backoff$[ebp], xmm0
	jmp	SHORT $LN11@PM_Physics
$LN8@PM_Physics:

; 2854 : 	else if (pmove->movetype == MOVETYPE_BOUNCEMISSILE)

	mov	eax, DWORD PTR ?pmove@@3PAUplayermove_s@@A ; pmove
	cmp	DWORD PTR [eax+220], 11			; 0000000bH
	jne	SHORT $LN10@PM_Physics

; 2855 : 		backoff = 2.0;

	movss	xmm0, DWORD PTR __real@40000000
	movss	DWORD PTR _backoff$[ebp], xmm0

; 2856 : 	else

	jmp	SHORT $LN11@PM_Physics
$LN10@PM_Physics:

; 2857 : 		backoff = 1;

	movss	xmm0, DWORD PTR __real@3f800000
	movss	DWORD PTR _backoff$[ebp], xmm0
$LN11@PM_Physics:

; 2858 : 
; 2859 : 	PM_ClipVelocity (pmove->velocity, trace.plane.normal, pmove->velocity, backoff);

	push	ecx
	movss	xmm0, DWORD PTR _backoff$[ebp]
	movss	DWORD PTR [esp], xmm0
	mov	eax, DWORD PTR ?pmove@@3PAUplayermove_s@@A ; pmove
	add	eax, 92					; 0000005cH
	push	eax
	sub	esp, 12					; 0000000cH
	mov	ecx, esp
	lea	edx, DWORD PTR _trace$[ebp+32]
	push	edx
	call	??0Vector@@QAE@ABV0@@Z			; Vector::Vector
	mov	eax, DWORD PTR ?pmove@@3PAUplayermove_s@@A ; pmove
	add	eax, 92					; 0000005cH
	sub	esp, 12					; 0000000cH
	mov	ecx, esp
	push	eax
	call	??0Vector@@QAE@ABV0@@Z			; Vector::Vector
	call	?PM_ClipVelocity@@YAHVVector@@0AAV1@M@Z	; PM_ClipVelocity
	add	esp, 32					; 00000020H

; 2860 : 
; 2861 : 	// stop if on ground
; 2862 : 	if (trace.plane.normal[2] > 0.7)

	lea	ecx, DWORD PTR _trace$[ebp+32]
	call	??BVector@@QAEPAMXZ			; Vector::operator float *
	mov	ecx, 4
	shl	ecx, 1
	cvtss2sd xmm0, DWORD PTR [eax+ecx]
	comisd	xmm0, QWORD PTR __real@3fe6666666666666
	jbe	$LN12@PM_Physics

; 2863 : 	{		
; 2864 : 		float vel;
; 2865 : 		Vector base;

	lea	ecx, DWORD PTR _base$7[ebp]
	call	??0Vector@@QAE@XZ			; Vector::Vector

; 2866 : 
; 2867 : 		base = g_vecZero;

	mov	eax, DWORD PTR ?g_vecZero@@3VVector@@B
	mov	DWORD PTR _base$7[ebp], eax
	mov	ecx, DWORD PTR ?g_vecZero@@3VVector@@B+4
	mov	DWORD PTR _base$7[ebp+4], ecx
	mov	edx, DWORD PTR ?g_vecZero@@3VVector@@B+8
	mov	DWORD PTR _base$7[ebp+8], edx

; 2868 : 
; 2869 : 		if( pmove->velocity[2] < pmove->movevars->gravity * pmove->frametime )

	mov	ecx, DWORD PTR ?pmove@@3PAUplayermove_s@@A ; pmove
	add	ecx, 92					; 0000005cH
	call	??BVector@@QAEPAMXZ			; Vector::operator float *
	mov	ecx, 4
	shl	ecx, 1
	mov	edx, DWORD PTR ?pmove@@3PAUplayermove_s@@A ; pmove
	mov	edx, DWORD PTR [edx+324848]
	mov	esi, DWORD PTR ?pmove@@3PAUplayermove_s@@A ; pmove
	movss	xmm0, DWORD PTR [edx]
	mulss	xmm0, DWORD PTR [esi+16]
	comiss	xmm0, DWORD PTR [eax+ecx]
	jbe	SHORT $LN13@PM_Physics

; 2870 : 		{
; 2871 : 			// we're rolling on the ground, add static friction.
; 2872 : 			pmove->onground = trace.ent;

	mov	eax, DWORD PTR ?pmove@@3PAUplayermove_s@@A ; pmove
	mov	ecx, DWORD PTR _trace$[ebp+48]
	mov	DWORD PTR [eax+224], ecx

; 2873 : 			pmove->velocity[2] = 0;

	mov	ecx, DWORD PTR ?pmove@@3PAUplayermove_s@@A ; pmove
	add	ecx, 92					; 0000005cH
	call	??BVector@@QAEPAMXZ			; Vector::operator float *
	mov	ecx, 4
	shl	ecx, 1
	xorps	xmm0, xmm0
	movss	DWORD PTR [eax+ecx], xmm0
$LN13@PM_Physics:

; 2874 : 		}
; 2875 : 
; 2876 : 		vel = DotProduct( pmove->velocity, pmove->velocity );

	mov	eax, DWORD PTR ?pmove@@3PAUplayermove_s@@A ; pmove
	add	eax, 92					; 0000005cH
	push	eax
	mov	ecx, DWORD PTR ?pmove@@3PAUplayermove_s@@A ; pmove
	add	ecx, 92					; 0000005cH
	push	ecx
	call	?DotProduct@@YAMABVVector@@0@Z		; DotProduct
	add	esp, 8
	fstp	DWORD PTR _vel$8[ebp]

; 2877 : 
; 2878 : 		// Con_DPrintf("%f %f: %.0f %.0f %.0f\n", vel, trace.fraction, ent->velocity[0], ent->velocity[1], ent->velocity[2] );
; 2879 : 
; 2880 : 		if (vel < (30 * 30) || (pmove->movetype != MOVETYPE_BOUNCE && pmove->movetype != MOVETYPE_BOUNCEMISSILE))

	movss	xmm0, DWORD PTR __real@44610000
	comiss	xmm0, DWORD PTR _vel$8[ebp]
	ja	SHORT $LN16@PM_Physics
	mov	eax, DWORD PTR ?pmove@@3PAUplayermove_s@@A ; pmove
	cmp	DWORD PTR [eax+220], 10			; 0000000aH
	je	SHORT $LN14@PM_Physics
	mov	eax, DWORD PTR ?pmove@@3PAUplayermove_s@@A ; pmove
	cmp	DWORD PTR [eax+220], 11			; 0000000bH
	je	SHORT $LN14@PM_Physics
$LN16@PM_Physics:

; 2881 : 		{
; 2882 : 			pmove->onground = trace.ent;

	mov	eax, DWORD PTR ?pmove@@3PAUplayermove_s@@A ; pmove
	mov	ecx, DWORD PTR _trace$[ebp+48]
	mov	DWORD PTR [eax+224], ecx

; 2883 : 			pmove->velocity = g_vecZero;

	mov	eax, DWORD PTR ?pmove@@3PAUplayermove_s@@A ; pmove
	add	eax, 92					; 0000005cH
	mov	ecx, DWORD PTR ?g_vecZero@@3VVector@@B
	mov	DWORD PTR [eax], ecx
	mov	edx, DWORD PTR ?g_vecZero@@3VVector@@B+4
	mov	DWORD PTR [eax+4], edx
	mov	ecx, DWORD PTR ?g_vecZero@@3VVector@@B+8
	mov	DWORD PTR [eax+8], ecx

; 2884 : 		}
; 2885 : 		else

	jmp	SHORT $LN15@PM_Physics
$LN14@PM_Physics:

; 2886 : 		{
; 2887 : 			move = pmove->velocity * (( 1.0f - trace.fraction ) * pmove->frametime * 0.9f );

	movss	xmm0, DWORD PTR __real@3f800000
	subss	xmm0, DWORD PTR _trace$[ebp+16]
	mov	eax, DWORD PTR ?pmove@@3PAUplayermove_s@@A ; pmove
	mulss	xmm0, DWORD PTR [eax+16]
	mulss	xmm0, DWORD PTR __real@3f666666
	push	ecx
	movss	DWORD PTR [esp], xmm0
	lea	ecx, DWORD PTR $T3[ebp]
	push	ecx
	mov	ecx, DWORD PTR ?pmove@@3PAUplayermove_s@@A ; pmove
	add	ecx, 92					; 0000005cH
	call	??DVector@@QBE?AV0@M@Z			; Vector::operator*
	mov	edx, DWORD PTR [eax]
	mov	DWORD PTR _move$[ebp], edx
	mov	ecx, DWORD PTR [eax+4]
	mov	DWORD PTR _move$[ebp+4], ecx
	mov	edx, DWORD PTR [eax+8]
	mov	DWORD PTR _move$[ebp+8], edx

; 2888 : 			trace = PM_PushEntity (move);

	lea	eax, DWORD PTR _move$[ebp]
	push	eax
	lea	ecx, DWORD PTR $T1[ebp]
	push	ecx
	call	?PM_PushEntity@@YA?AUpmtrace_s@@ABVVector@@@Z ; PM_PushEntity
	add	esp, 8
	mov	ecx, 17					; 00000011H
	mov	esi, eax
	lea	edi, DWORD PTR $T2[ebp]
	rep movsd
	mov	ecx, 17					; 00000011H
	lea	esi, DWORD PTR $T2[ebp]
	lea	edi, DWORD PTR _trace$[ebp]
	rep movsd
$LN15@PM_Physics:

; 2889 : 		}
; 2890 : 
; 2891 : 		pmove->velocity -= base;

	lea	eax, DWORD PTR _base$7[ebp]
	push	eax
	mov	ecx, DWORD PTR ?pmove@@3PAUplayermove_s@@A ; pmove
	add	ecx, 92					; 0000005cH
	call	??ZVector@@QAEAAV0@ABV0@@Z		; Vector::operator-=
$LN12@PM_Physics:

; 2892 : 	}
; 2893 : 	
; 2894 : // check for in water
; 2895 : 	PM_CheckWater();

	call	?PM_CheckWater@@YAHXZ			; PM_CheckWater
$LN1@PM_Physics:

; 2896 : }

	pop	edi
	pop	esi
	pop	ebx
	mov	esp, ebp
	pop	ebp
	ret	0
?PM_Physics_Toss@@YAXXZ ENDP				; PM_Physics_Toss
_TEXT	ENDS
; Function compile flags: /Odtp /ZI
; File d:\!diffusion 2020\source code 2022\client-server\game_shared\playermove.cpp
;	COMDAT ?PM_PushEntity@@YA?AUpmtrace_s@@ABVVector@@@Z
_TEXT	SEGMENT
$T1 = -368						; size = 68
$T2 = -292						; size = 68
$T3 = -224						; size = 68
$T4 = -156						; size = 12
_end$ = -80						; size = 12
_trace$ = -68						; size = 68
$T5 = 8							; size = 4
_push$ = 12						; size = 4
?PM_PushEntity@@YA?AUpmtrace_s@@ABVVector@@@Z PROC	; PM_PushEntity, COMDAT

; 2773 : {

	push	ebp
	mov	ebp, esp
	sub	esp, 368				; 00000170H
	push	ebx
	push	esi
	push	edi

; 2774 : 	pmtrace_t	trace;

	lea	ecx, DWORD PTR _trace$[ebp]
	call	??0pmtrace_s@@QAE@XZ

; 2775 : 	Vector	end;

	lea	ecx, DWORD PTR _end$[ebp]
	call	??0Vector@@QAE@XZ			; Vector::Vector

; 2776 : 		
; 2777 : 	end = pmove->origin + push;

	mov	eax, DWORD PTR _push$[ebp]
	push	eax
	lea	ecx, DWORD PTR $T4[ebp]
	push	ecx
	mov	ecx, DWORD PTR ?pmove@@3PAUplayermove_s@@A ; pmove
	add	ecx, 56					; 00000038H
	call	??HVector@@QBE?AV0@ABV0@@Z		; Vector::operator+
	mov	edx, DWORD PTR [eax]
	mov	DWORD PTR _end$[ebp], edx
	mov	ecx, DWORD PTR [eax+4]
	mov	DWORD PTR _end$[ebp+4], ecx
	mov	edx, DWORD PTR [eax+8]
	mov	DWORD PTR _end$[ebp+8], edx

; 2778 : 
; 2779 : 	trace = pmove->PM_PlayerTrace( pmove->origin, end, PM_NORMAL, -1 );

	push	-1
	push	0
	lea	ecx, DWORD PTR _end$[ebp]
	call	??BVector@@QAEPAMXZ			; Vector::operator float *
	push	eax
	mov	ecx, DWORD PTR ?pmove@@3PAUplayermove_s@@A ; pmove
	add	ecx, 56					; 00000038H
	call	??BVector@@QAEPAMXZ			; Vector::operator float *
	push	eax
	lea	eax, DWORD PTR $T2[ebp]
	push	eax
	mov	ecx, DWORD PTR ?pmove@@3PAUplayermove_s@@A ; pmove
	mov	edx, DWORD PTR [ecx+324992]
	call	edx
	add	esp, 20					; 00000014H
	mov	ecx, 17					; 00000011H
	mov	esi, eax
	lea	edi, DWORD PTR $T3[ebp]
	rep movsd
	mov	ecx, 17					; 00000011H
	lea	esi, DWORD PTR $T3[ebp]
	lea	edi, DWORD PTR _trace$[ebp]
	rep movsd

; 2780 : 	
; 2781 : 	pmove->origin = trace.endpos;

	mov	eax, DWORD PTR ?pmove@@3PAUplayermove_s@@A ; pmove
	add	eax, 56					; 00000038H
	mov	ecx, DWORD PTR _trace$[ebp+20]
	mov	DWORD PTR [eax], ecx
	mov	edx, DWORD PTR _trace$[ebp+24]
	mov	DWORD PTR [eax+4], edx
	mov	ecx, DWORD PTR _trace$[ebp+28]
	mov	DWORD PTR [eax+8], ecx

; 2782 : 
; 2783 : 	// So we can run impact function afterwards.
; 2784 : 	if( trace.fraction < 1.0 && !trace.allsolid )

	cvtss2sd xmm0, DWORD PTR _trace$[ebp+16]
	movsd	xmm1, QWORD PTR __real@3ff0000000000000
	comisd	xmm1, xmm0
	jbe	SHORT $LN2@PM_PushEnt
	cmp	DWORD PTR _trace$[ebp], 0
	jne	SHORT $LN2@PM_PushEnt

; 2785 : 		PM_AddToTouched( trace, pmove->velocity );

	mov	eax, DWORD PTR ?pmove@@3PAUplayermove_s@@A ; pmove
	add	eax, 92					; 0000005cH
	sub	esp, 12					; 0000000cH
	mov	ecx, esp
	push	eax
	call	??0Vector@@QAE@ABV0@@Z			; Vector::Vector
	sub	esp, 68					; 00000044H
	mov	ecx, esp
	lea	edx, DWORD PTR _trace$[ebp]
	push	edx
	call	??0pmtrace_s@@QAE@ABU0@@Z
	call	?PM_AddToTouched@@YAHUpmtrace_s@@VVector@@@Z ; PM_AddToTouched
	add	esp, 80					; 00000050H
$LN2@PM_PushEnt:

; 2786 : 
; 2787 : 	return trace;

	lea	eax, DWORD PTR _trace$[ebp]
	push	eax
	lea	ecx, DWORD PTR $T1[ebp]
	call	??0pmtrace_s@@QAE@$$QAU0@@Z
	mov	ecx, 17					; 00000011H
	mov	esi, eax
	mov	edi, DWORD PTR $T5[ebp]
	rep movsd
	mov	eax, DWORD PTR $T5[ebp]

; 2788 : }	

	pop	edi
	pop	esi
	pop	ebx
	mov	esp, ebp
	pop	ebp
	ret	0
?PM_PushEntity@@YA?AUpmtrace_s@@ABVVector@@@Z ENDP	; PM_PushEntity
_TEXT	ENDS
; Function compile flags: /Odtp /ZI
; File d:\!diffusion 2020\source code 2022\client-server\game_shared\playermove.cpp
;	COMDAT ?PM_AddGravity@@YAXXZ
_TEXT	SEGMENT
tv91 = -72						; size = 4
tv77 = -72						; size = 4
_ent_gravity$ = -4					; size = 4
?PM_AddGravity@@YAXXZ PROC				; PM_AddGravity, COMDAT

; 2751 : {

	push	ebp
	mov	ebp, esp
	sub	esp, 72					; 00000048H
	push	ebx
	push	esi
	push	edi

; 2752 : 	float	ent_gravity;
; 2753 : 
; 2754 : 	if (pmove->gravity)

	mov	eax, DWORD PTR ?pmove@@3PAUplayermove_s@@A ; pmove
	movss	xmm0, DWORD PTR [eax+192]
	ucomiss	xmm0, DWORD PTR __real@00000000
	lahf
	test	ah, 68					; 00000044H
	jnp	SHORT $LN2@PM_AddGrav

; 2755 : 		ent_gravity = pmove->gravity;

	mov	eax, DWORD PTR ?pmove@@3PAUplayermove_s@@A ; pmove
	movss	xmm0, DWORD PTR [eax+192]
	movss	DWORD PTR _ent_gravity$[ebp], xmm0

; 2756 : 	else

	jmp	SHORT $LN3@PM_AddGrav
$LN2@PM_AddGrav:

; 2757 : 		ent_gravity = 1.0;

	movss	xmm0, DWORD PTR __real@3f800000
	movss	DWORD PTR _ent_gravity$[ebp], xmm0
$LN3@PM_AddGrav:

; 2758 : 
; 2759 : 	// Add gravity incorrectly
; 2760 : 	pmove->velocity[2] -= (ent_gravity * pmove->movevars->gravity * pmove->frametime );

	mov	ecx, DWORD PTR ?pmove@@3PAUplayermove_s@@A ; pmove
	add	ecx, 92					; 0000005cH
	call	??BVector@@QAEPAMXZ			; Vector::operator float *
	mov	ecx, 4
	shl	ecx, 1
	add	eax, ecx
	mov	DWORD PTR tv77[ebp], eax
	mov	edx, DWORD PTR ?pmove@@3PAUplayermove_s@@A ; pmove
	mov	eax, DWORD PTR [edx+324848]
	movss	xmm0, DWORD PTR _ent_gravity$[ebp]
	mulss	xmm0, DWORD PTR [eax]
	mov	ecx, DWORD PTR ?pmove@@3PAUplayermove_s@@A ; pmove
	mulss	xmm0, DWORD PTR [ecx+16]
	mov	edx, DWORD PTR tv77[ebp]
	movss	xmm1, DWORD PTR [edx]
	subss	xmm1, xmm0
	mov	eax, DWORD PTR tv77[ebp]
	movss	DWORD PTR [eax], xmm1

; 2761 : 	pmove->velocity[2] += pmove->basevelocity[2] * pmove->frametime;

	mov	ecx, DWORD PTR ?pmove@@3PAUplayermove_s@@A ; pmove
	add	ecx, 92					; 0000005cH
	call	??BVector@@QAEPAMXZ			; Vector::operator float *
	mov	ecx, 4
	shl	ecx, 1
	add	eax, ecx
	mov	DWORD PTR tv91[ebp], eax
	mov	ecx, DWORD PTR ?pmove@@3PAUplayermove_s@@A ; pmove
	add	ecx, 116				; 00000074H
	call	??BVector@@QAEPAMXZ			; Vector::operator float *
	mov	edx, 4
	shl	edx, 1
	mov	ecx, DWORD PTR ?pmove@@3PAUplayermove_s@@A ; pmove
	movss	xmm0, DWORD PTR [eax+edx]
	mulss	xmm0, DWORD PTR [ecx+16]
	mov	edx, DWORD PTR tv91[ebp]
	addss	xmm0, DWORD PTR [edx]
	mov	eax, DWORD PTR tv91[ebp]
	movss	DWORD PTR [eax], xmm0

; 2762 : 	pmove->basevelocity[2] = 0;

	mov	ecx, DWORD PTR ?pmove@@3PAUplayermove_s@@A ; pmove
	add	ecx, 116				; 00000074H
	call	??BVector@@QAEPAMXZ			; Vector::operator float *
	mov	ecx, 4
	shl	ecx, 1
	xorps	xmm0, xmm0
	movss	DWORD PTR [eax+ecx], xmm0

; 2763 : 	PM_CheckVelocity();

	call	?PM_CheckVelocity@@YAXXZ		; PM_CheckVelocity

; 2764 : }

	pop	edi
	pop	esi
	pop	ebx
	mov	esp, ebp
	pop	ebp
	ret	0
?PM_AddGravity@@YAXXZ ENDP				; PM_AddGravity
_TEXT	ENDS
; Function compile flags: /Odtp /ZI
; File d:\!diffusion 2020\source code 2022\client-server\game_shared\playermove.cpp
;	COMDAT ?PM_WaterJump@@YAXXZ
_TEXT	SEGMENT
?PM_WaterJump@@YAXXZ PROC				; PM_WaterJump, COMDAT

; 2726 : {

	push	ebp
	mov	ebp, esp
	sub	esp, 64					; 00000040H
	push	ebx
	push	esi
	push	edi

; 2727 : 	if( pmove->waterjumptime > 10000 )

	mov	eax, DWORD PTR ?pmove@@3PAUplayermove_s@@A ; pmove
	movss	xmm0, DWORD PTR [eax+204]
	comiss	xmm0, DWORD PTR __real@461c4000
	jbe	SHORT $LN2@PM_WaterJu

; 2728 : 		pmove->waterjumptime = 10000;

	mov	eax, DWORD PTR ?pmove@@3PAUplayermove_s@@A ; pmove
	movss	xmm0, DWORD PTR __real@461c4000
	movss	DWORD PTR [eax+204], xmm0
$LN2@PM_WaterJu:

; 2729 : 
; 2730 : 	if ( !pmove->waterjumptime )

	mov	eax, DWORD PTR ?pmove@@3PAUplayermove_s@@A ; pmove
	movss	xmm0, DWORD PTR [eax+204]
	ucomiss	xmm0, DWORD PTR __real@00000000
	lahf
	test	ah, 68					; 00000044H
	jp	SHORT $LN3@PM_WaterJu

; 2731 : 		return;

	jmp	$LN1@PM_WaterJu
$LN3@PM_WaterJu:

; 2732 : 
; 2733 : 	pmove->waterjumptime -= pmove->cmd.msec;

	mov	eax, DWORD PTR ?pmove@@3PAUplayermove_s@@A ; pmove
	movzx	ecx, BYTE PTR [eax+283738]
	cvtsi2ss xmm0, ecx
	mov	edx, DWORD PTR ?pmove@@3PAUplayermove_s@@A ; pmove
	movss	xmm1, DWORD PTR [edx+204]
	subss	xmm1, xmm0
	mov	eax, DWORD PTR ?pmove@@3PAUplayermove_s@@A ; pmove
	movss	DWORD PTR [eax+204], xmm1

; 2734 : 	if ( pmove->waterjumptime < 0 || !pmove->waterlevel )

	mov	eax, DWORD PTR ?pmove@@3PAUplayermove_s@@A ; pmove
	xorps	xmm0, xmm0
	comiss	xmm0, DWORD PTR [eax+204]
	ja	SHORT $LN5@PM_WaterJu
	mov	eax, DWORD PTR ?pmove@@3PAUplayermove_s@@A ; pmove
	cmp	DWORD PTR [eax+228], 0
	jne	SHORT $LN4@PM_WaterJu
$LN5@PM_WaterJu:

; 2735 : 	{
; 2736 : 		pmove->waterjumptime = 0;

	mov	eax, DWORD PTR ?pmove@@3PAUplayermove_s@@A ; pmove
	xorps	xmm0, xmm0
	movss	DWORD PTR [eax+204], xmm0

; 2737 : 		pmove->flags &= ~FL_WATERJUMP;

	mov	eax, DWORD PTR ?pmove@@3PAUplayermove_s@@A ; pmove
	mov	ecx, DWORD PTR [eax+184]
	and	ecx, -2049				; fffff7ffH
	mov	edx, DWORD PTR ?pmove@@3PAUplayermove_s@@A ; pmove
	mov	DWORD PTR [edx+184], ecx
$LN4@PM_WaterJu:

; 2738 : 	}
; 2739 : 
; 2740 : 	pmove->velocity[0] = pmove->movedir[0];

	mov	ecx, DWORD PTR ?pmove@@3PAUplayermove_s@@A ; pmove
	add	ecx, 104				; 00000068H
	call	??BVector@@QAEPAMXZ			; Vector::operator float *
	mov	esi, eax
	mov	eax, 4
	imul	edi, eax, 0
	mov	ecx, DWORD PTR ?pmove@@3PAUplayermove_s@@A ; pmove
	add	ecx, 92					; 0000005cH
	call	??BVector@@QAEPAMXZ			; Vector::operator float *
	mov	ecx, 4
	imul	edx, ecx, 0
	mov	ecx, DWORD PTR [esi+edi]
	mov	DWORD PTR [eax+edx], ecx

; 2741 : 	pmove->velocity[1] = pmove->movedir[1];

	mov	ecx, DWORD PTR ?pmove@@3PAUplayermove_s@@A ; pmove
	add	ecx, 104				; 00000068H
	call	??BVector@@QAEPAMXZ			; Vector::operator float *
	mov	esi, eax
	mov	edi, 4
	shl	edi, 0
	mov	ecx, DWORD PTR ?pmove@@3PAUplayermove_s@@A ; pmove
	add	ecx, 92					; 0000005cH
	call	??BVector@@QAEPAMXZ			; Vector::operator float *
	mov	ecx, 4
	shl	ecx, 0
	mov	edx, DWORD PTR [esi+edi]
	mov	DWORD PTR [eax+ecx], edx
$LN1@PM_WaterJu:

; 2742 : }

	pop	edi
	pop	esi
	pop	ebx
	mov	esp, ebp
	pop	ebp
	ret	0
?PM_WaterJump@@YAXXZ ENDP				; PM_WaterJump
_TEXT	ENDS
; Function compile flags: /Odtp /ZI
; File d:\!diffusion 2020\source code 2022\client-server\game_shared\playermove.cpp
;	COMDAT ?PM_Ladder@@YAPAUphysent_s@@XZ
_TEXT	SEGMENT
$T1 = -196						; size = 12
$T2 = -184						; size = 12
_entityToWorld$3 = -108					; size = 64
_num$4 = -44						; size = 4
_hull$5 = -40						; size = 4
_i$6 = -36						; size = 4
_test$ = -32						; size = 12
_offset$ = -20						; size = 12
_pe$ = -8						; size = 4
__$ArrayPad$ = -4					; size = 4
?PM_Ladder@@YAPAUphysent_s@@XZ PROC			; PM_Ladder, COMDAT

; 2689 : {

	push	ebp
	mov	ebp, esp
	sub	esp, 196				; 000000c4H
	mov	eax, DWORD PTR ___security_cookie
	xor	eax, ebp
	mov	DWORD PTR __$ArrayPad$[ebp], eax
	push	ebx
	push	esi
	push	edi

; 2690 : 	physent_t	*pe;
; 2691 : 	Vector	offset, test;

	lea	ecx, DWORD PTR _offset$[ebp]
	call	??0Vector@@QAE@XZ			; Vector::Vector
	lea	ecx, DWORD PTR _test$[ebp]
	call	??0Vector@@QAE@XZ			; Vector::Vector

; 2692 : 
; 2693 : 	for( int i = 0; i < pmove->nummoveent; i++ )

	mov	DWORD PTR _i$6[ebp], 0
	jmp	SHORT $LN4@PM_Ladder
$LN2@PM_Ladder:
	mov	eax, DWORD PTR _i$6[ebp]
	add	eax, 1
	mov	DWORD PTR _i$6[ebp], eax
$LN4@PM_Ladder:
	mov	eax, DWORD PTR ?pmove@@3PAUplayermove_s@@A ; pmove
	mov	ecx, DWORD PTR _i$6[ebp]
	cmp	ecx, DWORD PTR [eax+134992]
	jge	$LN3@PM_Ladder

; 2694 : 	{
; 2695 : 		pe = &pmove->moveents[i];

	imul	eax, DWORD PTR _i$6[ebp], 224
	mov	ecx, DWORD PTR ?pmove@@3PAUplayermove_s@@A ; pmove
	lea	edx, DWORD PTR [ecx+eax+134996]
	mov	DWORD PTR _pe$[ebp], edx

; 2696 : 		
; 2697 : 		if( pe->model && (modtype_t)pmove->PM_GetModelType( pe->model ) == mod_brush && pe->skin == CONTENTS_LADDER )

	mov	eax, DWORD PTR _pe$[ebp]
	cmp	DWORD PTR [eax+48], 0
	je	$LN5@PM_Ladder
	mov	eax, DWORD PTR _pe$[ebp]
	mov	ecx, DWORD PTR [eax+48]
	push	ecx
	mov	edx, DWORD PTR ?pmove@@3PAUplayermove_s@@A ; pmove
	mov	eax, DWORD PTR [edx+325008]
	call	eax
	add	esp, 4
	test	eax, eax
	jne	$LN5@PM_Ladder
	mov	eax, DWORD PTR _pe$[ebp]
	cmp	DWORD PTR [eax+100], -16		; fffffff0H
	jne	$LN5@PM_Ladder

; 2698 : 		{
; 2699 : 			hull_t *hull = (hull_t *)pmove->PM_HullForBsp( pe, offset );

	lea	ecx, DWORD PTR _offset$[ebp]
	call	??BVector@@QAEPAMXZ			; Vector::operator float *
	push	eax
	mov	eax, DWORD PTR _pe$[ebp]
	push	eax
	mov	ecx, DWORD PTR ?pmove@@3PAUplayermove_s@@A ; pmove
	mov	edx, DWORD PTR [ecx+325016]
	call	edx
	add	esp, 8
	mov	DWORD PTR _hull$5[ebp], eax

; 2700 : 			int num = hull->firstclipnode;

	mov	eax, DWORD PTR _hull$5[ebp]
	mov	ecx, DWORD PTR [eax+8]
	mov	DWORD PTR _num$4[ebp], ecx

; 2701 : 
; 2702 : 			// Offset the test point appropriately for this hull.
; 2703 : 			test = pmove->origin - offset;

	lea	eax, DWORD PTR _offset$[ebp]
	push	eax
	lea	ecx, DWORD PTR $T2[ebp]
	push	ecx
	mov	ecx, DWORD PTR ?pmove@@3PAUplayermove_s@@A ; pmove
	add	ecx, 56					; 00000038H
	call	??GVector@@QBE?AV0@ABV0@@Z		; Vector::operator-
	mov	edx, DWORD PTR [eax]
	mov	DWORD PTR _test$[ebp], edx
	mov	ecx, DWORD PTR [eax+4]
	mov	DWORD PTR _test$[ebp+4], ecx
	mov	edx, DWORD PTR [eax+8]
	mov	DWORD PTR _test$[ebp+8], edx

; 2704 : 
; 2705 : 			// support for rotational triggers
; 2706 : 			if(( pe->model->flags & 2 ) && pe->angles != g_vecZero )

	mov	eax, DWORD PTR _pe$[ebp]
	mov	ecx, DWORD PTR [eax+48]
	mov	edx, DWORD PTR [ecx+80]
	and	edx, 2
	je	SHORT $LN6@PM_Ladder
	push	OFFSET ?g_vecZero@@3VVector@@B		; g_vecZero
	mov	ecx, DWORD PTR _pe$[ebp]
	add	ecx, 84					; 00000054H
	call	??9Vector@@QBEHABV0@@Z			; Vector::operator!=
	test	eax, eax
	je	SHORT $LN6@PM_Ladder

; 2707 : 			{
; 2708 : 				// g-cont. can't access to CBase->EntityToWorldTransform() :'-(
; 2709 : 				// so we build matrix from scratch
; 2710 : 				matrix4x4	entityToWorld( offset, pe->angles );

	push	ecx
	movss	xmm0, DWORD PTR __real@3f800000
	movss	DWORD PTR [esp], xmm0
	mov	eax, DWORD PTR _pe$[ebp]
	add	eax, 84					; 00000054H
	push	eax
	lea	ecx, DWORD PTR _offset$[ebp]
	push	ecx
	lea	ecx, DWORD PTR _entityToWorld$3[ebp]
	call	??0matrix4x4@@QAE@ABVVector@@0M@Z	; matrix4x4::matrix4x4

; 2711 : 				test = entityToWorld.VectorITransform( pmove->origin );

	mov	eax, DWORD PTR ?pmove@@3PAUplayermove_s@@A ; pmove
	add	eax, 56					; 00000038H
	push	eax
	lea	ecx, DWORD PTR $T1[ebp]
	push	ecx
	lea	ecx, DWORD PTR _entityToWorld$3[ebp]
	call	?VectorITransform@matrix4x4@@QBE?AVVector@@ABV2@@Z ; matrix4x4::VectorITransform
	mov	edx, DWORD PTR [eax]
	mov	DWORD PTR _test$[ebp], edx
	mov	ecx, DWORD PTR [eax+4]
	mov	DWORD PTR _test$[ebp+4], ecx
	mov	edx, DWORD PTR [eax+8]
	mov	DWORD PTR _test$[ebp+8], edx
$LN6@PM_Ladder:

; 2712 : 			}
; 2713 : 
; 2714 : 			// Test the player's hull for intersection with this model
; 2715 : 			if( pmove->PM_HullPointContents( hull, num, test ) == CONTENTS_EMPTY )

	lea	ecx, DWORD PTR _test$[ebp]
	call	??BVector@@QAEPAMXZ			; Vector::operator float *
	push	eax
	mov	eax, DWORD PTR _num$4[ebp]
	push	eax
	mov	ecx, DWORD PTR _hull$5[ebp]
	push	ecx
	mov	edx, DWORD PTR ?pmove@@3PAUplayermove_s@@A ; pmove
	mov	eax, DWORD PTR [edx+324988]
	call	eax
	add	esp, 12					; 0000000cH
	cmp	eax, -1
	jne	SHORT $LN7@PM_Ladder

; 2716 : 				continue;

	jmp	$LN2@PM_Ladder
$LN7@PM_Ladder:

; 2717 : 			
; 2718 : 			return pe;

	mov	eax, DWORD PTR _pe$[ebp]
	jmp	SHORT $LN1@PM_Ladder
$LN5@PM_Ladder:

; 2719 : 		}
; 2720 : 	}

	jmp	$LN2@PM_Ladder
$LN3@PM_Ladder:

; 2721 : 
; 2722 : 	return NULL;

	xor	eax, eax
$LN1@PM_Ladder:

; 2723 : }

	pop	edi
	pop	esi
	pop	ebx
	mov	ecx, DWORD PTR __$ArrayPad$[ebp]
	xor	ecx, ebp
	call	@__security_check_cookie@4
	mov	esp, ebp
	pop	ebp
	ret	0
?PM_Ladder@@YAPAUphysent_s@@XZ ENDP			; PM_Ladder
_TEXT	ENDS
; Function compile flags: /Odtp /ZI
; File d:\!diffusion 2020\source code 2022\client-server\game_shared\playermove.cpp
;	COMDAT ?PM_LadderMove@@YAXPAUphysent_s@@@Z
_TEXT	SEGMENT
tv659 = -536						; size = 8
tv632 = -536						; size = 8
$T1 = -528						; size = 12
$T2 = -516						; size = 12
$T3 = -504						; size = 12
$T4 = -492						; size = 12
$T5 = -480						; size = 12
$T6 = -468						; size = 12
$T7 = -456						; size = 12
$T8 = -444						; size = 12
$T9 = -432						; size = 12
$T10 = -420						; size = 12
$T11 = -408						; size = 12
$T12 = -396						; size = 12
$T13 = -384						; size = 12
$T14 = -372						; size = 12
$T15 = -360						; size = 12
$T16 = -348						; size = 12
$T17 = -336						; size = 12
$T18 = -324						; size = 12
$T19 = -312						; size = 12
$T20 = -300						; size = 12
$T21 = -288						; size = 12
_climbVel$ = -212					; size = 4
_perp$22 = -208						; size = 12
_normal$23 = -196					; size = 4
_tmp$24 = -192						; size = 12
_lateral$25 = -180					; size = 12
_cross$26 = -168					; size = 12
_velocity$27 = -156					; size = 12
_v_right$28 = -144					; size = 12
_vpn$29 = -132						; size = 12
_right$30 = -120					; size = 4
_forward$31 = -116					; size = 4
_tr$ = -112						; size = 4
_modelmaxs$ = -108					; size = 12
_modelmins$ = -96					; size = 12
_floor$ = -84						; size = 12
_onFloor$ = -72						; size = 4
_trace$ = -68						; size = 56
_ladderCenter$ = -12					; size = 12
_pLadder$ = 8						; size = 4
?PM_LadderMove@@YAXPAUphysent_s@@@Z PROC		; PM_LadderMove, COMDAT

; 2570 : {

	push	ebp
	mov	ebp, esp
	sub	esp, 536				; 00000218H
	push	ebx
	push	esi
	push	edi

; 2571 : 	Vector	ladderCenter;

	lea	ecx, DWORD PTR _ladderCenter$[ebp]
	call	??0Vector@@QAE@XZ			; Vector::Vector

; 2572 : 	trace_t	trace;

	lea	ecx, DWORD PTR _trace$[ebp]
	call	??0trace_s@@QAE@XZ

; 2573 : 	qboolean	onFloor;
; 2574 : 	Vector	floor;

	lea	ecx, DWORD PTR _floor$[ebp]
	call	??0Vector@@QAE@XZ			; Vector::Vector

; 2575 : 	Vector	modelmins, modelmaxs;

	lea	ecx, DWORD PTR _modelmins$[ebp]
	call	??0Vector@@QAE@XZ			; Vector::Vector
	lea	ecx, DWORD PTR _modelmaxs$[ebp]
	call	??0Vector@@QAE@XZ			; Vector::Vector

; 2576 : 	pmtrace_t	*tr;
; 2577 : 
; 2578 : 	if( pmove->movetype == MOVETYPE_NOCLIP )

	mov	eax, DWORD PTR ?pmove@@3PAUplayermove_s@@A ; pmove
	cmp	DWORD PTR [eax+220], 8
	jne	SHORT $LN2@PM_LadderM

; 2579 : 		return;

	jmp	$LN1@PM_LadderM
$LN2@PM_LadderM:

; 2580 : 
; 2581 : 	pmove->PM_GetModelBounds( pLadder->model, modelmins, modelmaxs );

	lea	ecx, DWORD PTR _modelmaxs$[ebp]
	call	??BVector@@QAEPAMXZ			; Vector::operator float *
	push	eax
	lea	ecx, DWORD PTR _modelmins$[ebp]
	call	??BVector@@QAEPAMXZ			; Vector::operator float *
	push	eax
	mov	eax, DWORD PTR _pLadder$[ebp]
	mov	ecx, DWORD PTR [eax+48]
	push	ecx
	mov	edx, DWORD PTR ?pmove@@3PAUplayermove_s@@A ; pmove
	mov	eax, DWORD PTR [edx+325012]
	call	eax
	add	esp, 12					; 0000000cH

; 2582 : 	ladderCenter = pLadder->origin + ( modelmins + modelmaxs ) * 0.5f;

	push	ecx
	movss	xmm0, DWORD PTR __real@3f000000
	movss	DWORD PTR [esp], xmm0
	lea	eax, DWORD PTR $T20[ebp]
	push	eax
	lea	ecx, DWORD PTR _modelmaxs$[ebp]
	push	ecx
	lea	edx, DWORD PTR $T21[ebp]
	push	edx
	lea	ecx, DWORD PTR _modelmins$[ebp]
	call	??HVector@@QBE?AV0@ABV0@@Z		; Vector::operator+
	mov	ecx, eax
	call	??DVector@@QBE?AV0@M@Z			; Vector::operator*
	push	eax
	lea	eax, DWORD PTR $T19[ebp]
	push	eax
	mov	ecx, DWORD PTR _pLadder$[ebp]
	add	ecx, 36					; 00000024H
	call	??HVector@@QBE?AV0@ABV0@@Z		; Vector::operator+
	mov	ecx, DWORD PTR [eax]
	mov	DWORD PTR _ladderCenter$[ebp], ecx
	mov	edx, DWORD PTR [eax+4]
	mov	DWORD PTR _ladderCenter$[ebp+4], edx
	mov	eax, DWORD PTR [eax+8]
	mov	DWORD PTR _ladderCenter$[ebp+8], eax

; 2583 : 
; 2584 : 	pmove->movetype = MOVETYPE_FLY;

	mov	eax, DWORD PTR ?pmove@@3PAUplayermove_s@@A ; pmove
	mov	DWORD PTR [eax+220], 5

; 2585 : 
; 2586 : 	// On ladder, convert movement to be relative to the ladder
; 2587 : 	floor = pmove->origin;

	mov	eax, DWORD PTR ?pmove@@3PAUplayermove_s@@A ; pmove
	add	eax, 56					; 00000038H
	mov	ecx, DWORD PTR [eax]
	mov	DWORD PTR _floor$[ebp], ecx
	mov	edx, DWORD PTR [eax+4]
	mov	DWORD PTR _floor$[ebp+4], edx
	mov	eax, DWORD PTR [eax+8]
	mov	DWORD PTR _floor$[ebp+8], eax

; 2588 : 	floor.z += pmove->player_mins[pmove->usehull][2] - 1;

	mov	eax, DWORD PTR ?pmove@@3PAUplayermove_s@@A ; pmove
	imul	ecx, DWORD PTR [eax+188], 12
	mov	edx, DWORD PTR ?pmove@@3PAUplayermove_s@@A ; pmove
	lea	ecx, DWORD PTR [edx+ecx+324852]
	call	??BVector@@QAEPAMXZ			; Vector::operator float *
	mov	ecx, 4
	shl	ecx, 1
	movss	xmm0, DWORD PTR [eax+ecx]
	subss	xmm0, DWORD PTR __real@3f800000
	addss	xmm0, DWORD PTR _floor$[ebp+8]
	movss	DWORD PTR _floor$[ebp+8], xmm0

; 2589 : 
; 2590 : 	// g-cont. check bmodels ground too
; 2591 : 	tr = pmove->PM_TraceLine( floor, floor, PM_STUDIO_IGNORE, 2, -1 );

	push	-1
	push	2
	push	1
	lea	ecx, DWORD PTR _floor$[ebp]
	call	??BVector@@QAEPAMXZ			; Vector::operator float *
	push	eax
	lea	ecx, DWORD PTR _floor$[ebp]
	call	??BVector@@QAEPAMXZ			; Vector::operator float *
	push	eax
	mov	eax, DWORD PTR ?pmove@@3PAUplayermove_s@@A ; pmove
	mov	ecx, DWORD PTR [eax+324996]
	call	ecx
	add	esp, 20					; 00000014H
	mov	DWORD PTR _tr$[ebp], eax

; 2592 : 
; 2593 : 	if( /*pmove->PM_PointContents( floor, NULL ) == CONTENTS_SOLID || */ tr->ent != -1 )

	mov	eax, DWORD PTR _tr$[ebp]
	cmp	DWORD PTR [eax+48], -1
	je	SHORT $LN3@PM_LadderM

; 2594 : 		onFloor = true;

	mov	DWORD PTR _onFloor$[ebp], 1
	jmp	SHORT $LN4@PM_LadderM
$LN3@PM_LadderM:

; 2595 : 	else onFloor = false;

	mov	DWORD PTR _onFloor$[ebp], 0
$LN4@PM_LadderM:

; 2596 : 
; 2597 : 	pmove->gravity = 0;

	mov	eax, DWORD PTR ?pmove@@3PAUplayermove_s@@A ; pmove
	xorps	xmm0, xmm0
	movss	DWORD PTR [eax+192], xmm0

; 2598 : 	pLadder->solid = SOLID_BSP;	// HACKHACK: to allow rotating on ladder model

	mov	eax, DWORD PTR _pLadder$[ebp]
	mov	DWORD PTR [eax+96], 4

; 2599 : 	pmove->PM_TraceModel( pLadder, pmove->origin, ladderCenter, &trace );

	lea	eax, DWORD PTR _trace$[ebp]
	push	eax
	lea	ecx, DWORD PTR _ladderCenter$[ebp]
	call	??BVector@@QAEPAMXZ			; Vector::operator float *
	push	eax
	mov	ecx, DWORD PTR ?pmove@@3PAUplayermove_s@@A ; pmove
	add	ecx, 56					; 00000038H
	call	??BVector@@QAEPAMXZ			; Vector::operator float *
	push	eax
	mov	ecx, DWORD PTR _pLadder$[ebp]
	push	ecx
	mov	edx, DWORD PTR ?pmove@@3PAUplayermove_s@@A ; pmove
	mov	eax, DWORD PTR [edx+325020]
	call	eax
	fstp	ST(0)
	add	esp, 16					; 00000010H

; 2600 : 	pLadder->solid = SOLID_NOT;

	mov	eax, DWORD PTR _pLadder$[ebp]
	mov	DWORD PTR [eax+96], 0

; 2601 : 
; 2602 : 	if( trace.fraction != 1.0 )

	cvtss2sd xmm0, DWORD PTR _trace$[ebp+16]
	ucomisd	xmm0, QWORD PTR __real@3ff0000000000000
	lahf
	test	ah, 68					; 00000044H
	jnp	$LN13@PM_LadderM

; 2603 : 	{
; 2604 : 		float forward = 0, right = 0;

	xorps	xmm0, xmm0
	movss	DWORD PTR _forward$31[ebp], xmm0
	xorps	xmm0, xmm0
	movss	DWORD PTR _right$30[ebp], xmm0

; 2605 : 		Vector vpn, v_right;

	lea	ecx, DWORD PTR _vpn$29[ebp]
	call	??0Vector@@QAE@XZ			; Vector::Vector
	lea	ecx, DWORD PTR _v_right$28[ebp]
	call	??0Vector@@QAE@XZ			; Vector::Vector

; 2606 : 
; 2607 : 		AngleVectors( pmove->angles, vpn, v_right, NULL );

	push	0
	lea	ecx, DWORD PTR _v_right$28[ebp]
	call	??BVector@@QAEPAMXZ			; Vector::operator float *
	push	eax
	lea	ecx, DWORD PTR _vpn$29[ebp]
	call	??BVector@@QAEPAMXZ			; Vector::operator float *
	push	eax
	mov	ecx, DWORD PTR ?pmove@@3PAUplayermove_s@@A ; pmove
	add	ecx, 68					; 00000044H
	call	??BVector@@QAEPAMXZ			; Vector::operator float *
	push	eax
	call	DWORD PTR ?gEngfuncs@@3Ucl_enginefuncs_s@@A+96
	add	esp, 16					; 00000010H

; 2608 : 		if ( pmove->cmd.buttons & IN_BACK )

	mov	eax, DWORD PTR ?pmove@@3PAUplayermove_s@@A ; pmove
	movzx	ecx, WORD PTR [eax+283766]
	and	ecx, 16					; 00000010H
	je	SHORT $LN6@PM_LadderM

; 2609 : 			forward -= MAX_CLIMB_SPEED;

	movss	xmm0, DWORD PTR _forward$31[ebp]
	subss	xmm0, DWORD PTR __real@433e0000
	movss	DWORD PTR _forward$31[ebp], xmm0
$LN6@PM_LadderM:

; 2610 : 		if ( pmove->cmd.buttons & IN_FORWARD )

	mov	eax, DWORD PTR ?pmove@@3PAUplayermove_s@@A ; pmove
	movzx	ecx, WORD PTR [eax+283766]
	and	ecx, 8
	je	SHORT $LN7@PM_LadderM

; 2611 : 			forward += MAX_CLIMB_SPEED;

	movss	xmm0, DWORD PTR _forward$31[ebp]
	addss	xmm0, DWORD PTR __real@433e0000
	movss	DWORD PTR _forward$31[ebp], xmm0
$LN7@PM_LadderM:

; 2612 : 		if ( pmove->cmd.buttons & IN_MOVELEFT )

	mov	eax, DWORD PTR ?pmove@@3PAUplayermove_s@@A ; pmove
	movzx	ecx, WORD PTR [eax+283766]
	and	ecx, 512				; 00000200H
	je	SHORT $LN8@PM_LadderM

; 2613 : 			right -= MAX_CLIMB_SPEED;

	movss	xmm0, DWORD PTR _right$30[ebp]
	subss	xmm0, DWORD PTR __real@433e0000
	movss	DWORD PTR _right$30[ebp], xmm0
$LN8@PM_LadderM:

; 2614 : 		if ( pmove->cmd.buttons & IN_MOVERIGHT )

	mov	eax, DWORD PTR ?pmove@@3PAUplayermove_s@@A ; pmove
	movzx	ecx, WORD PTR [eax+283766]
	and	ecx, 1024				; 00000400H
	je	SHORT $LN9@PM_LadderM

; 2615 : 			right += MAX_CLIMB_SPEED;

	movss	xmm0, DWORD PTR _right$30[ebp]
	addss	xmm0, DWORD PTR __real@433e0000
	movss	DWORD PTR _right$30[ebp], xmm0
$LN9@PM_LadderM:

; 2616 : 
; 2617 : 		if ( pmove->cmd.buttons & IN_JUMP )

	mov	eax, DWORD PTR ?pmove@@3PAUplayermove_s@@A ; pmove
	movzx	ecx, WORD PTR [eax+283766]
	and	ecx, 2
	je	SHORT $LN10@PM_LadderM

; 2618 : 		{
; 2619 : 			pmove->movetype = MOVETYPE_WALK;

	mov	eax, DWORD PTR ?pmove@@3PAUplayermove_s@@A ; pmove
	mov	DWORD PTR [eax+220], 3

; 2620 : 			pmove->velocity = trace.plane.normal * 270;

	push	ecx
	movss	xmm0, DWORD PTR __real@43870000
	movss	DWORD PTR [esp], xmm0
	lea	eax, DWORD PTR $T18[ebp]
	push	eax
	lea	ecx, DWORD PTR _trace$[ebp+32]
	call	??DVector@@QBE?AV0@M@Z			; Vector::operator*
	mov	ecx, DWORD PTR ?pmove@@3PAUplayermove_s@@A ; pmove
	add	ecx, 92					; 0000005cH
	mov	edx, DWORD PTR [eax]
	mov	DWORD PTR [ecx], edx
	mov	edx, DWORD PTR [eax+4]
	mov	DWORD PTR [ecx+4], edx
	mov	eax, DWORD PTR [eax+8]
	mov	DWORD PTR [ecx+8], eax

; 2621 : 		}
; 2622 : 		else

	jmp	$LN13@PM_LadderM
$LN10@PM_LadderM:

; 2623 : 		{
; 2624 : 			if ( forward != 0 || right != 0 )

	movss	xmm0, DWORD PTR _forward$31[ebp]
	ucomiss	xmm0, DWORD PTR __real@00000000
	lahf
	test	ah, 68					; 00000044H
	jp	SHORT $LN14@PM_LadderM
	movss	xmm0, DWORD PTR _right$30[ebp]
	ucomiss	xmm0, DWORD PTR __real@00000000
	lahf
	test	ah, 68					; 00000044H
	jnp	$LN12@PM_LadderM
$LN14@PM_LadderM:

; 2625 : 			{
; 2626 : 				Vector velocity, cross, lateral, tmp;

	lea	ecx, DWORD PTR _velocity$27[ebp]
	call	??0Vector@@QAE@XZ			; Vector::Vector
	lea	ecx, DWORD PTR _cross$26[ebp]
	call	??0Vector@@QAE@XZ			; Vector::Vector
	lea	ecx, DWORD PTR _lateral$25[ebp]
	call	??0Vector@@QAE@XZ			; Vector::Vector
	lea	ecx, DWORD PTR _tmp$24[ebp]
	call	??0Vector@@QAE@XZ			; Vector::Vector

; 2627 : 				float normal;
; 2628 : 
; 2629 : 				//ALERT(at_console, "pev %.2f %.2f %.2f - ",
; 2630 : 				//	pev->velocity.x, pev->velocity.y, pev->velocity.z);
; 2631 : 				// Calculate player's intended velocity
; 2632 : 				//Vector velocity = (forward * gpGlobals->v_forward) + (right * gpGlobals->v_right);
; 2633 : 				velocity = vpn * forward;

	push	ecx
	movss	xmm0, DWORD PTR _forward$31[ebp]
	movss	DWORD PTR [esp], xmm0
	lea	eax, DWORD PTR $T17[ebp]
	push	eax
	lea	ecx, DWORD PTR _vpn$29[ebp]
	call	??DVector@@QBE?AV0@M@Z			; Vector::operator*
	mov	ecx, DWORD PTR [eax]
	mov	DWORD PTR _velocity$27[ebp], ecx
	mov	edx, DWORD PTR [eax+4]
	mov	DWORD PTR _velocity$27[ebp+4], edx
	mov	eax, DWORD PTR [eax+8]
	mov	DWORD PTR _velocity$27[ebp+8], eax

; 2634 : 				velocity += v_right * right;

	push	ecx
	movss	xmm0, DWORD PTR _right$30[ebp]
	movss	DWORD PTR [esp], xmm0
	lea	eax, DWORD PTR $T16[ebp]
	push	eax
	lea	ecx, DWORD PTR _v_right$28[ebp]
	call	??DVector@@QBE?AV0@M@Z			; Vector::operator*
	push	eax
	lea	ecx, DWORD PTR _velocity$27[ebp]
	call	??YVector@@QAEAAV0@ABV0@@Z		; Vector::operator+=

; 2635 : 
; 2636 : 				
; 2637 : 				// Perpendicular in the ladder plane
; 2638 : 				Vector perp = CrossProduct( Vector(0,0,1), trace.plane.normal );

	lea	eax, DWORD PTR _trace$[ebp+32]
	push	eax
	push	ecx
	movss	xmm0, DWORD PTR __real@3f800000
	movss	DWORD PTR [esp], xmm0
	push	ecx
	xorps	xmm0, xmm0
	movss	DWORD PTR [esp], xmm0
	push	ecx
	xorps	xmm0, xmm0
	movss	DWORD PTR [esp], xmm0
	lea	ecx, DWORD PTR $T15[ebp]
	call	??0Vector@@QAE@MMM@Z			; Vector::Vector
	push	eax
	lea	ecx, DWORD PTR _perp$22[ebp]
	push	ecx
	call	?CrossProduct@@YA?AVVector@@ABV1@0@Z	; CrossProduct
	add	esp, 12					; 0000000cH

; 2639 : 				perp = perp.Normalize();

	lea	eax, DWORD PTR $T14[ebp]
	push	eax
	lea	ecx, DWORD PTR _perp$22[ebp]
	call	?Normalize@Vector@@QBE?AV1@XZ		; Vector::Normalize
	mov	ecx, DWORD PTR [eax]
	mov	DWORD PTR _perp$22[ebp], ecx
	mov	edx, DWORD PTR [eax+4]
	mov	DWORD PTR _perp$22[ebp+4], edx
	mov	eax, DWORD PTR [eax+8]
	mov	DWORD PTR _perp$22[ebp+8], eax

; 2640 : 
; 2641 : 				// decompose velocity into ladder plane
; 2642 : 				normal = DotProduct( velocity, trace.plane.normal );

	lea	eax, DWORD PTR _trace$[ebp+32]
	push	eax
	lea	ecx, DWORD PTR _velocity$27[ebp]
	push	ecx
	call	?DotProduct@@YAMABVVector@@0@Z		; DotProduct
	add	esp, 8
	fstp	DWORD PTR _normal$23[ebp]

; 2643 : 				// This is the velocity into the face of the ladder
; 2644 : 				cross = trace.plane.normal * normal;

	push	ecx
	movss	xmm0, DWORD PTR _normal$23[ebp]
	movss	DWORD PTR [esp], xmm0
	lea	eax, DWORD PTR $T13[ebp]
	push	eax
	lea	ecx, DWORD PTR _trace$[ebp+32]
	call	??DVector@@QBE?AV0@M@Z			; Vector::operator*
	mov	ecx, DWORD PTR [eax]
	mov	DWORD PTR _cross$26[ebp], ecx
	mov	edx, DWORD PTR [eax+4]
	mov	DWORD PTR _cross$26[ebp+4], edx
	mov	eax, DWORD PTR [eax+8]
	mov	DWORD PTR _cross$26[ebp+8], eax

; 2645 : 
; 2646 : 
; 2647 : 				// This is the player's additional velocity
; 2648 : 				lateral = velocity - cross;

	lea	eax, DWORD PTR _cross$26[ebp]
	push	eax
	lea	ecx, DWORD PTR $T12[ebp]
	push	ecx
	lea	ecx, DWORD PTR _velocity$27[ebp]
	call	??GVector@@QBE?AV0@ABV0@@Z		; Vector::operator-
	mov	edx, DWORD PTR [eax]
	mov	DWORD PTR _lateral$25[ebp], edx
	mov	ecx, DWORD PTR [eax+4]
	mov	DWORD PTR _lateral$25[ebp+4], ecx
	mov	edx, DWORD PTR [eax+8]
	mov	DWORD PTR _lateral$25[ebp+8], edx

; 2649 : 
; 2650 : 				// This turns the velocity into the face of the ladder into velocity that
; 2651 : 				// is roughly vertically perpendicular to the face of the ladder.
; 2652 : 				// NOTE: It IS possible to face up and move down or face down and move up
; 2653 : 				// because the velocity is a sum of the directional velocity and the converted
; 2654 : 				// velocity through the face of the ladder -- by design.
; 2655 : 				tmp = CrossProduct( trace.plane.normal, perp );

	lea	eax, DWORD PTR _perp$22[ebp]
	push	eax
	lea	ecx, DWORD PTR _trace$[ebp+32]
	push	ecx
	lea	edx, DWORD PTR $T11[ebp]
	push	edx
	call	?CrossProduct@@YA?AVVector@@ABV1@0@Z	; CrossProduct
	add	esp, 12					; 0000000cH
	mov	ecx, DWORD PTR [eax]
	mov	DWORD PTR _tmp$24[ebp], ecx
	mov	edx, DWORD PTR [eax+4]
	mov	DWORD PTR _tmp$24[ebp+4], edx
	mov	eax, DWORD PTR [eax+8]
	mov	DWORD PTR _tmp$24[ebp+8], eax

; 2656 : 				if( pmove->effects & EF_UPSIDEDOWN )

	mov	eax, DWORD PTR ?pmove@@3PAUplayermove_s@@A ; pmove
	mov	ecx, DWORD PTR [eax+180]
	and	ecx, 4194304				; 00400000H
	je	SHORT $LN15@PM_LadderM

; 2657 : 					pmove->velocity = lateral - tmp * -normal;

	movss	xmm0, DWORD PTR _normal$23[ebp]
	xorps	xmm0, DWORD PTR __xmm@80000000800000008000000080000000
	push	ecx
	movss	DWORD PTR [esp], xmm0
	lea	eax, DWORD PTR $T10[ebp]
	push	eax
	lea	ecx, DWORD PTR _tmp$24[ebp]
	call	??DVector@@QBE?AV0@M@Z			; Vector::operator*
	push	eax
	lea	ecx, DWORD PTR $T9[ebp]
	push	ecx
	lea	ecx, DWORD PTR _lateral$25[ebp]
	call	??GVector@@QBE?AV0@ABV0@@Z		; Vector::operator-
	mov	edx, DWORD PTR ?pmove@@3PAUplayermove_s@@A ; pmove
	add	edx, 92					; 0000005cH
	mov	ecx, DWORD PTR [eax]
	mov	DWORD PTR [edx], ecx
	mov	ecx, DWORD PTR [eax+4]
	mov	DWORD PTR [edx+4], ecx
	mov	eax, DWORD PTR [eax+8]
	mov	DWORD PTR [edx+8], eax

; 2658 : 				else

	jmp	SHORT $LN16@PM_LadderM
$LN15@PM_LadderM:

; 2659 : 					pmove->velocity = lateral + tmp * -normal;

	movss	xmm0, DWORD PTR _normal$23[ebp]
	xorps	xmm0, DWORD PTR __xmm@80000000800000008000000080000000
	push	ecx
	movss	DWORD PTR [esp], xmm0
	lea	eax, DWORD PTR $T8[ebp]
	push	eax
	lea	ecx, DWORD PTR _tmp$24[ebp]
	call	??DVector@@QBE?AV0@M@Z			; Vector::operator*
	push	eax
	lea	ecx, DWORD PTR $T7[ebp]
	push	ecx
	lea	ecx, DWORD PTR _lateral$25[ebp]
	call	??HVector@@QBE?AV0@ABV0@@Z		; Vector::operator+
	mov	edx, DWORD PTR ?pmove@@3PAUplayermove_s@@A ; pmove
	add	edx, 92					; 0000005cH
	mov	ecx, DWORD PTR [eax]
	mov	DWORD PTR [edx], ecx
	mov	ecx, DWORD PTR [eax+4]
	mov	DWORD PTR [edx+4], ecx
	mov	eax, DWORD PTR [eax+8]
	mov	DWORD PTR [edx+8], eax
$LN16@PM_LadderM:

; 2660 : 
; 2661 : 				if( onFloor && normal > 0 )	// On ground moving away from the ladder

	cmp	DWORD PTR _onFloor$[ebp], 0
	je	SHORT $LN17@PM_LadderM
	movss	xmm0, DWORD PTR _normal$23[ebp]
	comiss	xmm0, DWORD PTR __real@00000000
	jbe	SHORT $LN17@PM_LadderM

; 2662 : 				{
; 2663 : 					pmove->velocity += trace.plane.normal * MAX_CLIMB_SPEED;

	push	ecx
	movss	xmm0, DWORD PTR __real@433e0000
	movss	DWORD PTR [esp], xmm0
	lea	eax, DWORD PTR $T6[ebp]
	push	eax
	lea	ecx, DWORD PTR _trace$[ebp+32]
	call	??DVector@@QBE?AV0@M@Z			; Vector::operator*
	push	eax
	mov	ecx, DWORD PTR ?pmove@@3PAUplayermove_s@@A ; pmove
	add	ecx, 92					; 0000005cH
	call	??YVector@@QAEAAV0@ABV0@@Z		; Vector::operator+=
$LN17@PM_LadderM:

; 2664 : 				}
; 2665 : 				//pev->velocity = lateral - (CrossProduct( trace.vecPlaneNormal, perp ) * normal);
; 2666 : 
; 2667 : 				
; 2668 : 			}
; 2669 : 			else

	jmp	SHORT $LN13@PM_LadderM
$LN12@PM_LadderM:

; 2670 : 				pmove->velocity = g_vecZero;

	mov	eax, DWORD PTR ?pmove@@3PAUplayermove_s@@A ; pmove
	add	eax, 92					; 0000005cH
	mov	ecx, DWORD PTR ?g_vecZero@@3VVector@@B
	mov	DWORD PTR [eax], ecx
	mov	edx, DWORD PTR ?g_vecZero@@3VVector@@B+4
	mov	DWORD PTR [eax+4], edx
	mov	ecx, DWORD PTR ?g_vecZero@@3VVector@@B+8
	mov	DWORD PTR [eax+8], ecx
$LN13@PM_LadderM:

; 2671 : 		}
; 2672 : 	}
; 2673 : 
; 2674 : 	// diffusion - climb speed fix (thanks to SNMetamorph for the correct writing)
; 2675 : 	float climbVel = pmove->velocity.Length();

	mov	ecx, DWORD PTR ?pmove@@3PAUplayermove_s@@A ; pmove
	add	ecx, 92					; 0000005cH
	call	?Length@Vector@@QBEMXZ			; Vector::Length
	fstp	DWORD PTR _climbVel$[ebp]

; 2676 : 	if (pmove->flags & FL_DUCKING)

	mov	eax, DWORD PTR ?pmove@@3PAUplayermove_s@@A ; pmove
	mov	ecx, DWORD PTR [eax+184]
	and	ecx, 16384				; 00004000H
	je	$LN18@PM_LadderM

; 2677 : 	{
; 2678 : 		if (fabs(climbVel) > MAX_CLIMB_SPEED * 0.333)

	cvtss2sd xmm0, DWORD PTR _climbVel$[ebp]
	sub	esp, 8
	movsd	QWORD PTR [esp], xmm0
	call	_fabs
	add	esp, 8
	fstp	QWORD PTR tv632[ebp]
	movsd	xmm0, QWORD PTR tv632[ebp]
	comisd	xmm0, QWORD PTR __real@404fa28f5c28f5c3
	jbe	SHORT $LN20@PM_LadderM

; 2679 : 			pmove->velocity = pmove->velocity.Normalize() * MAX_CLIMB_SPEED * 0.333;

	push	ecx
	movss	xmm0, DWORD PTR __real@3eaa7efa
	movss	DWORD PTR [esp], xmm0
	lea	eax, DWORD PTR $T3[ebp]
	push	eax
	push	ecx
	movss	xmm0, DWORD PTR __real@433e0000
	movss	DWORD PTR [esp], xmm0
	lea	ecx, DWORD PTR $T4[ebp]
	push	ecx
	lea	edx, DWORD PTR $T5[ebp]
	push	edx
	mov	ecx, DWORD PTR ?pmove@@3PAUplayermove_s@@A ; pmove
	add	ecx, 92					; 0000005cH
	call	?Normalize@Vector@@QBE?AV1@XZ		; Vector::Normalize
	mov	ecx, eax
	call	??DVector@@QBE?AV0@M@Z			; Vector::operator*
	mov	ecx, eax
	call	??DVector@@QBE?AV0@M@Z			; Vector::operator*
	mov	ecx, DWORD PTR ?pmove@@3PAUplayermove_s@@A ; pmove
	add	ecx, 92					; 0000005cH
	mov	edx, DWORD PTR [eax]
	mov	DWORD PTR [ecx], edx
	mov	edx, DWORD PTR [eax+4]
	mov	DWORD PTR [ecx+4], edx
	mov	eax, DWORD PTR [eax+8]
	mov	DWORD PTR [ecx+8], eax
$LN20@PM_LadderM:

; 2680 : 	}
; 2681 : 	else

	jmp	SHORT $LN21@PM_LadderM
$LN18@PM_LadderM:

; 2682 : 	{
; 2683 : 		if (fabs(climbVel) > MAX_CLIMB_SPEED)

	cvtss2sd xmm0, DWORD PTR _climbVel$[ebp]
	sub	esp, 8
	movsd	QWORD PTR [esp], xmm0
	call	_fabs
	add	esp, 8
	fstp	QWORD PTR tv659[ebp]
	movsd	xmm0, QWORD PTR tv659[ebp]
	comisd	xmm0, QWORD PTR __real@4067c00000000000
	jbe	SHORT $LN21@PM_LadderM

; 2684 : 			pmove->velocity = pmove->velocity.Normalize() * MAX_CLIMB_SPEED;

	push	ecx
	movss	xmm0, DWORD PTR __real@433e0000
	movss	DWORD PTR [esp], xmm0
	lea	eax, DWORD PTR $T1[ebp]
	push	eax
	lea	ecx, DWORD PTR $T2[ebp]
	push	ecx
	mov	ecx, DWORD PTR ?pmove@@3PAUplayermove_s@@A ; pmove
	add	ecx, 92					; 0000005cH
	call	?Normalize@Vector@@QBE?AV1@XZ		; Vector::Normalize
	mov	ecx, eax
	call	??DVector@@QBE?AV0@M@Z			; Vector::operator*
	mov	edx, DWORD PTR ?pmove@@3PAUplayermove_s@@A ; pmove
	add	edx, 92					; 0000005cH
	mov	ecx, DWORD PTR [eax]
	mov	DWORD PTR [edx], ecx
	mov	ecx, DWORD PTR [eax+4]
	mov	DWORD PTR [edx+4], ecx
	mov	eax, DWORD PTR [eax+8]
	mov	DWORD PTR [edx+8], eax
$LN21@PM_LadderM:
$LN1@PM_LadderM:

; 2685 : 	}
; 2686 : }

	pop	edi
	pop	esi
	pop	ebx
	mov	esp, ebp
	pop	ebp
	ret	0
?PM_LadderMove@@YAXPAUphysent_s@@@Z ENDP		; PM_LadderMove
_TEXT	ENDS
; Function compile flags: /Odtp /ZI
; File d:\!diffusion 2020\source code 2022\client-server\game_shared\playermove.cpp
;	COMDAT ?PM_Duck@@YAXXZ
_TEXT	SEGMENT
tv189 = -112						; size = 8
tv388 = -108						; size = 4
tv386 = -108						; size = 4
tv259 = -108						; size = 4
tv237 = -108						; size = 4
tv81 = -108						; size = 4
tv78 = -108						; size = 4
_fMore$1 = -40						; size = 4
_duckpressed$ = -36					; size = 4
_duckchange$ = -32					; size = 4
_nButtonPressed$ = -28					; size = 4
_buttonsChanged$ = -24					; size = 4
_VecView$ = -20						; size = 4
_VecDuckView$ = -16					; size = 4
_duckFraction$ = -12					; size = 4
_time$ = -8						; size = 4
_i$ = -4						; size = 4
?PM_Duck@@YAXXZ PROC					; PM_Duck, COMDAT

; 2459 : {

	push	ebp
	mov	ebp, esp
	sub	esp, 112				; 00000070H
	push	ebx
	push	esi
	push	edi

; 2460 : 	int i;
; 2461 : 	float time;
; 2462 : 	float duckFraction;
; 2463 : 	int VecDuckView = DUCK_VIEW;

	mov	DWORD PTR _VecDuckView$[ebp], 12	; 0000000cH

; 2464 : 	int VecView = VIEW_HEIGHT;

	mov	DWORD PTR _VecView$[ebp], 28		; 0000001cH

; 2465 : 	if( pmove->effects & EF_UPSIDEDOWN )

	mov	eax, DWORD PTR ?pmove@@3PAUplayermove_s@@A ; pmove
	mov	ecx, DWORD PTR [eax+180]
	and	ecx, 4194304				; 00400000H
	je	SHORT $LN5@PM_Duck

; 2466 : 	{
; 2467 : 		VecDuckView = -DUCK_VIEW;

	mov	DWORD PTR _VecDuckView$[ebp], -12	; fffffff4H

; 2468 : 		VecView = -VIEW_HEIGHT;

	mov	DWORD PTR _VecView$[ebp], -28		; ffffffe4H
$LN5@PM_Duck:

; 2469 : 	}
; 2470 : 
; 2471 : 	int buttonsChanged	= ( pmove->oldbuttons ^ pmove->cmd.buttons );	// These buttons have changed this frame

	mov	eax, DWORD PTR ?pmove@@3PAUplayermove_s@@A ; pmove
	movzx	ecx, WORD PTR [eax+283766]
	mov	edx, DWORD PTR ?pmove@@3PAUplayermove_s@@A ; pmove
	xor	ecx, DWORD PTR [edx+200]
	mov	DWORD PTR _buttonsChanged$[ebp], ecx

; 2472 : 	int nButtonPressed	=  buttonsChanged & pmove->cmd.buttons;		// The changed ones still down are "pressed"

	mov	eax, DWORD PTR ?pmove@@3PAUplayermove_s@@A ; pmove
	movzx	ecx, WORD PTR [eax+283766]
	and	ecx, DWORD PTR _buttonsChanged$[ebp]
	mov	DWORD PTR _nButtonPressed$[ebp], ecx

; 2473 : 
; 2474 : 	int duckchange		= buttonsChanged & IN_DUCK ? 1 : 0;

	mov	eax, DWORD PTR _buttonsChanged$[ebp]
	and	eax, 4
	je	SHORT $LN26@PM_Duck
	mov	DWORD PTR tv78[ebp], 1
	jmp	SHORT $LN27@PM_Duck
$LN26@PM_Duck:
	mov	DWORD PTR tv78[ebp], 0
$LN27@PM_Duck:
	mov	ecx, DWORD PTR tv78[ebp]
	mov	DWORD PTR _duckchange$[ebp], ecx

; 2475 : 	int duckpressed		= nButtonPressed & IN_DUCK ? 1 : 0;

	mov	eax, DWORD PTR _nButtonPressed$[ebp]
	and	eax, 4
	je	SHORT $LN28@PM_Duck
	mov	DWORD PTR tv81[ebp], 1
	jmp	SHORT $LN29@PM_Duck
$LN28@PM_Duck:
	mov	DWORD PTR tv81[ebp], 0
$LN29@PM_Duck:
	mov	ecx, DWORD PTR tv81[ebp]
	mov	DWORD PTR _duckpressed$[ebp], ecx

; 2476 : 
; 2477 : 	if ( pmove->cmd.buttons & IN_DUCK )

	mov	eax, DWORD PTR ?pmove@@3PAUplayermove_s@@A ; pmove
	movzx	ecx, WORD PTR [eax+283766]
	and	ecx, 4
	je	SHORT $LN6@PM_Duck

; 2478 : 	{
; 2479 : 		pmove->oldbuttons |= IN_DUCK;

	mov	eax, DWORD PTR ?pmove@@3PAUplayermove_s@@A ; pmove
	mov	ecx, DWORD PTR [eax+200]
	or	ecx, 4
	mov	edx, DWORD PTR ?pmove@@3PAUplayermove_s@@A ; pmove
	mov	DWORD PTR [edx+200], ecx

; 2480 : 	}
; 2481 : 	else

	jmp	SHORT $LN7@PM_Duck
$LN6@PM_Duck:

; 2482 : 	{
; 2483 : 		pmove->oldbuttons &= ~IN_DUCK;

	mov	eax, DWORD PTR ?pmove@@3PAUplayermove_s@@A ; pmove
	mov	ecx, DWORD PTR [eax+200]
	and	ecx, -5					; fffffffbH
	mov	edx, DWORD PTR ?pmove@@3PAUplayermove_s@@A ; pmove
	mov	DWORD PTR [edx+200], ecx
$LN7@PM_Duck:

; 2484 : 	}
; 2485 : 
; 2486 : 	// Prevent ducking if the iuser3 variable is set
; 2487 : 	if ( pmove->iuser3 || pmove->dead )

	mov	eax, DWORD PTR ?pmove@@3PAUplayermove_s@@A ; pmove
	cmp	DWORD PTR [eax+516], 0
	jne	SHORT $LN9@PM_Duck
	mov	eax, DWORD PTR ?pmove@@3PAUplayermove_s@@A ; pmove
	cmp	DWORD PTR [eax+208], 0
	je	SHORT $LN8@PM_Duck
$LN9@PM_Duck:

; 2488 : 	{
; 2489 : 		// Try to unduck
; 2490 : 		if ( pmove->flags & FL_DUCKING )

	mov	eax, DWORD PTR ?pmove@@3PAUplayermove_s@@A ; pmove
	mov	ecx, DWORD PTR [eax+184]
	and	ecx, 16384				; 00004000H
	je	SHORT $LN10@PM_Duck

; 2491 : 			PM_UnDuck();

	call	?PM_UnDuck@@YAXXZ			; PM_UnDuck
$LN10@PM_Duck:

; 2492 : 
; 2493 : 		return;

	jmp	$LN1@PM_Duck
$LN8@PM_Duck:

; 2494 : 	}
; 2495 : 
; 2496 : 	if ( pmove->flags & FL_DUCKING )

	mov	eax, DWORD PTR ?pmove@@3PAUplayermove_s@@A ; pmove
	mov	ecx, DWORD PTR [eax+184]
	and	ecx, 16384				; 00004000H
	je	SHORT $LN11@PM_Duck

; 2497 : 	{
; 2498 : 		pmove->cmd.forwardmove *= 0.333;

	mov	eax, DWORD PTR ?pmove@@3PAUplayermove_s@@A ; pmove
	cvtss2sd xmm0, DWORD PTR [eax+283752]
	mulsd	xmm0, QWORD PTR __real@3fd54fdf3b645a1d
	cvtsd2ss xmm0, xmm0
	mov	ecx, DWORD PTR ?pmove@@3PAUplayermove_s@@A ; pmove
	movss	DWORD PTR [ecx+283752], xmm0

; 2499 : 		pmove->cmd.sidemove    *= 0.333;

	mov	eax, DWORD PTR ?pmove@@3PAUplayermove_s@@A ; pmove
	cvtss2sd xmm0, DWORD PTR [eax+283756]
	mulsd	xmm0, QWORD PTR __real@3fd54fdf3b645a1d
	cvtsd2ss xmm0, xmm0
	mov	ecx, DWORD PTR ?pmove@@3PAUplayermove_s@@A ; pmove
	movss	DWORD PTR [ecx+283756], xmm0

; 2500 : 		pmove->cmd.upmove      *= 0.333;

	mov	eax, DWORD PTR ?pmove@@3PAUplayermove_s@@A ; pmove
	cvtss2sd xmm0, DWORD PTR [eax+283760]
	mulsd	xmm0, QWORD PTR __real@3fd54fdf3b645a1d
	cvtsd2ss xmm0, xmm0
	mov	ecx, DWORD PTR ?pmove@@3PAUplayermove_s@@A ; pmove
	movss	DWORD PTR [ecx+283760], xmm0
$LN11@PM_Duck:

; 2501 : 	}
; 2502 : 
; 2503 : 	if ( ( pmove->cmd.buttons & IN_DUCK ) || ( pmove->bInDuck ) || ( pmove->flags & FL_DUCKING ) )

	mov	eax, DWORD PTR ?pmove@@3PAUplayermove_s@@A ; pmove
	movzx	ecx, WORD PTR [eax+283766]
	and	ecx, 4
	jne	SHORT $LN13@PM_Duck
	mov	eax, DWORD PTR ?pmove@@3PAUplayermove_s@@A ; pmove
	cmp	DWORD PTR [eax+144], 0
	jne	SHORT $LN13@PM_Duck
	mov	eax, DWORD PTR ?pmove@@3PAUplayermove_s@@A ; pmove
	mov	ecx, DWORD PTR [eax+184]
	and	ecx, 16384				; 00004000H
	je	$LN15@PM_Duck
$LN13@PM_Duck:

; 2504 : 	{
; 2505 : 		if ( pmove->cmd.buttons & IN_DUCK )

	mov	eax, DWORD PTR ?pmove@@3PAUplayermove_s@@A ; pmove
	movzx	ecx, WORD PTR [eax+283766]
	and	ecx, 4
	je	$LN14@PM_Duck

; 2506 : 		{
; 2507 : 			if ( (nButtonPressed & IN_DUCK ) && !( pmove->flags & FL_DUCKING ) )

	mov	eax, DWORD PTR _nButtonPressed$[ebp]
	and	eax, 4
	je	SHORT $LN16@PM_Duck
	mov	eax, DWORD PTR ?pmove@@3PAUplayermove_s@@A ; pmove
	mov	ecx, DWORD PTR [eax+184]
	and	ecx, 16384				; 00004000H
	jne	SHORT $LN16@PM_Duck

; 2508 : 			{
; 2509 : 				// Use 1 second so super long jump will work
; 2510 : 				pmove->flDuckTime = 1000;

	mov	eax, DWORD PTR ?pmove@@3PAUplayermove_s@@A ; pmove
	movss	xmm0, DWORD PTR __real@447a0000
	movss	DWORD PTR [eax+140], xmm0

; 2511 : 				pmove->bInDuck    = true;

	mov	eax, DWORD PTR ?pmove@@3PAUplayermove_s@@A ; pmove
	mov	DWORD PTR [eax+144], 1
$LN16@PM_Duck:

; 2512 : 			}
; 2513 : 
; 2514 : 			time = max( 0.0, ( 1.0 - (float)pmove->flDuckTime / 1000.0 ) );

	mov	eax, DWORD PTR ?pmove@@3PAUplayermove_s@@A ; pmove
	cvtss2sd xmm0, DWORD PTR [eax+140]
	divsd	xmm0, QWORD PTR __real@408f400000000000
	movsd	xmm1, QWORD PTR __real@3ff0000000000000
	subsd	xmm1, xmm0
	xorps	xmm0, xmm0
	comisd	xmm0, xmm1
	jbe	SHORT $LN30@PM_Duck
	xorps	xmm0, xmm0
	movsd	QWORD PTR tv189[ebp], xmm0
	jmp	SHORT $LN31@PM_Duck
$LN30@PM_Duck:
	mov	ecx, DWORD PTR ?pmove@@3PAUplayermove_s@@A ; pmove
	cvtss2sd xmm0, DWORD PTR [ecx+140]
	divsd	xmm0, QWORD PTR __real@408f400000000000
	movsd	xmm1, QWORD PTR __real@3ff0000000000000
	subsd	xmm1, xmm0
	movsd	QWORD PTR tv189[ebp], xmm1
$LN31@PM_Duck:
	cvtsd2ss xmm0, QWORD PTR tv189[ebp]
	movss	DWORD PTR _time$[ebp], xmm0

; 2515 : 			
; 2516 : 			if ( pmove->bInDuck )

	mov	eax, DWORD PTR ?pmove@@3PAUplayermove_s@@A ; pmove
	cmp	DWORD PTR [eax+144], 0
	je	$LN19@PM_Duck

; 2517 : 			{
; 2518 : #if 0
; 2519 : 				pmove->usehull = 1;
; 2520 : 				pmove->view_ofs[2] = DUCK_VIEW;
; 2521 : 				pmove->flags |= FL_DUCKING;
; 2522 : #endif
; 2523 : 				// Finish ducking immediately if duck time is over or not on ground
; 2524 : 				if ( ( (float)pmove->flDuckTime / 1000.0 <= ( 1.0 - TIME_TO_DUCK ) ) ||

	mov	eax, DWORD PTR ?pmove@@3PAUplayermove_s@@A ; pmove
	cvtss2sd xmm0, DWORD PTR [eax+140]
	divsd	xmm0, QWORD PTR __real@408f400000000000
	movsd	xmm1, QWORD PTR __real@3fe3333333333333
	comisd	xmm1, xmm0
	jae	SHORT $LN20@PM_Duck
	mov	eax, DWORD PTR ?pmove@@3PAUplayermove_s@@A ; pmove
	cmp	DWORD PTR [eax+224], -1
	jne	$LN18@PM_Duck
$LN20@PM_Duck:

; 2525 : 					 ( pmove->onground == -1 ) )
; 2526 : 				{
; 2527 : 					pmove->usehull = 1;

	mov	eax, DWORD PTR ?pmove@@3PAUplayermove_s@@A ; pmove
	mov	DWORD PTR [eax+188], 1

; 2528 : 					pmove->view_ofs[2] = VecDuckView;

	cvtsi2ss xmm0, DWORD PTR _VecDuckView$[ebp]
	mov	ecx, DWORD PTR ?pmove@@3PAUplayermove_s@@A ; pmove
	add	ecx, 128				; 00000080H
	movss	DWORD PTR tv386[ebp], xmm0
	call	??BVector@@QAEPAMXZ			; Vector::operator float *
	mov	ecx, 4
	shl	ecx, 1
	movss	xmm0, DWORD PTR tv386[ebp]
	movss	DWORD PTR [eax+ecx], xmm0

; 2529 : 					pmove->flags |= FL_DUCKING;

	mov	eax, DWORD PTR ?pmove@@3PAUplayermove_s@@A ; pmove
	mov	ecx, DWORD PTR [eax+184]
	or	ecx, 16384				; 00004000H
	mov	edx, DWORD PTR ?pmove@@3PAUplayermove_s@@A ; pmove
	mov	DWORD PTR [edx+184], ecx

; 2530 : 					pmove->bInDuck = false;

	mov	eax, DWORD PTR ?pmove@@3PAUplayermove_s@@A ; pmove
	mov	DWORD PTR [eax+144], 0

; 2531 : 
; 2532 : 					// HACKHACK - Fudge for collision bug - no time to fix this properly
; 2533 : 					if ( pmove->onground != -1 )

	mov	eax, DWORD PTR ?pmove@@3PAUplayermove_s@@A ; pmove
	cmp	DWORD PTR [eax+224], -1
	je	$LN21@PM_Duck

; 2534 : 					{
; 2535 : 						for( i = 0; i < 3; i++ )

	mov	DWORD PTR _i$[ebp], 0
	jmp	SHORT $LN4@PM_Duck
$LN2@PM_Duck:
	mov	eax, DWORD PTR _i$[ebp]
	add	eax, 1
	mov	DWORD PTR _i$[ebp], eax
$LN4@PM_Duck:
	cmp	DWORD PTR _i$[ebp], 3
	jge	$LN3@PM_Duck

; 2536 : 						{
; 2537 : 							if( pmove->effects & EF_UPSIDEDOWN )

	mov	eax, DWORD PTR ?pmove@@3PAUplayermove_s@@A ; pmove
	mov	ecx, DWORD PTR [eax+180]
	and	ecx, 4194304				; 00400000H
	je	SHORT $LN22@PM_Duck

; 2538 : 								pmove->origin[i] += ( pmove->player_mins[1][i] - pmove->player_mins[0][i] );

	mov	ecx, DWORD PTR ?pmove@@3PAUplayermove_s@@A ; pmove
	add	ecx, 56					; 00000038H
	call	??BVector@@QAEPAMXZ			; Vector::operator float *
	mov	ecx, DWORD PTR _i$[ebp]
	lea	edx, DWORD PTR [eax+ecx*4]
	mov	DWORD PTR tv237[ebp], edx
	mov	eax, 12					; 0000000cH
	shl	eax, 0
	mov	ecx, DWORD PTR ?pmove@@3PAUplayermove_s@@A ; pmove
	lea	ecx, DWORD PTR [ecx+eax+324852]
	call	??BVector@@QAEPAMXZ			; Vector::operator float *
	mov	esi, eax
	mov	edx, 12					; 0000000cH
	imul	eax, edx, 0
	mov	ecx, DWORD PTR ?pmove@@3PAUplayermove_s@@A ; pmove
	lea	ecx, DWORD PTR [ecx+eax+324852]
	call	??BVector@@QAEPAMXZ			; Vector::operator float *
	mov	edx, DWORD PTR _i$[ebp]
	mov	ecx, DWORD PTR _i$[ebp]
	movss	xmm0, DWORD PTR [esi+edx*4]
	subss	xmm0, DWORD PTR [eax+ecx*4]
	mov	edx, DWORD PTR tv237[ebp]
	addss	xmm0, DWORD PTR [edx]
	mov	eax, DWORD PTR tv237[ebp]
	movss	DWORD PTR [eax], xmm0

; 2539 : 							else

	jmp	SHORT $LN23@PM_Duck
$LN22@PM_Duck:

; 2540 : 								pmove->origin[i] -= ( pmove->player_mins[1][i] - pmove->player_mins[0][i]);

	mov	ecx, DWORD PTR ?pmove@@3PAUplayermove_s@@A ; pmove
	add	ecx, 56					; 00000038H
	call	??BVector@@QAEPAMXZ			; Vector::operator float *
	mov	ecx, DWORD PTR _i$[ebp]
	lea	edx, DWORD PTR [eax+ecx*4]
	mov	DWORD PTR tv259[ebp], edx
	mov	eax, 12					; 0000000cH
	shl	eax, 0
	mov	ecx, DWORD PTR ?pmove@@3PAUplayermove_s@@A ; pmove
	lea	ecx, DWORD PTR [ecx+eax+324852]
	call	??BVector@@QAEPAMXZ			; Vector::operator float *
	mov	esi, eax
	mov	edx, 12					; 0000000cH
	imul	eax, edx, 0
	mov	ecx, DWORD PTR ?pmove@@3PAUplayermove_s@@A ; pmove
	lea	ecx, DWORD PTR [ecx+eax+324852]
	call	??BVector@@QAEPAMXZ			; Vector::operator float *
	mov	edx, DWORD PTR _i$[ebp]
	mov	ecx, DWORD PTR _i$[ebp]
	movss	xmm0, DWORD PTR [esi+edx*4]
	subss	xmm0, DWORD PTR [eax+ecx*4]
	mov	edx, DWORD PTR tv259[ebp]
	movss	xmm1, DWORD PTR [edx]
	subss	xmm1, xmm0
	mov	eax, DWORD PTR tv259[ebp]
	movss	DWORD PTR [eax], xmm1
$LN23@PM_Duck:

; 2541 : 						}

	jmp	$LN2@PM_Duck
$LN3@PM_Duck:

; 2542 : 						// See if we are stuck?
; 2543 : 						PM_FixPlayerCrouchStuck( STUCK_MOVEUP );

	push	1
	call	?PM_FixPlayerCrouchStuck@@YAXH@Z	; PM_FixPlayerCrouchStuck
	add	esp, 4

; 2544 : 
; 2545 : 						// Recategorize position since ducking can change origin
; 2546 : 						PM_CategorizePosition();

	call	?PM_CategorizePosition@@YAXXZ		; PM_CategorizePosition
$LN21@PM_Duck:

; 2547 : 					}
; 2548 : 				}
; 2549 : 				else

	jmp	$LN19@PM_Duck
$LN18@PM_Duck:

; 2550 : 				{
; 2551 : 					float fMore = (DUCK_HULL_MIN - HULL_MIN);

	movss	xmm0, DWORD PTR __real@41900000
	movss	DWORD PTR _fMore$1[ebp], xmm0

; 2552 : 					if( pmove->effects & EF_UPSIDEDOWN )

	mov	eax, DWORD PTR ?pmove@@3PAUplayermove_s@@A ; pmove
	mov	ecx, DWORD PTR [eax+180]
	and	ecx, 4194304				; 00400000H
	je	SHORT $LN24@PM_Duck

; 2553 : 						fMore = (DUCK_HULL_MAX - HULL_MAX);

	movss	xmm0, DWORD PTR __real@c1900000
	movss	DWORD PTR _fMore$1[ebp], xmm0
$LN24@PM_Duck:

; 2554 : 
; 2555 : 					// Calc parametric time
; 2556 : 					duckFraction = PM_SplineFraction( time, (1.0/TIME_TO_DUCK) );

	push	ecx
	movss	xmm0, DWORD PTR __real@40200000
	movss	DWORD PTR [esp], xmm0
	push	ecx
	movss	xmm0, DWORD PTR _time$[ebp]
	movss	DWORD PTR [esp], xmm0
	call	?PM_SplineFraction@@YAMMM@Z		; PM_SplineFraction
	add	esp, 8
	fstp	DWORD PTR _duckFraction$[ebp]

; 2557 : 					pmove->view_ofs[2] = ((VecDuckView - fMore ) * duckFraction) + (VecView * (1-duckFraction));

	cvtsi2ss xmm0, DWORD PTR _VecDuckView$[ebp]
	subss	xmm0, DWORD PTR _fMore$1[ebp]
	mulss	xmm0, DWORD PTR _duckFraction$[ebp]
	cvtsi2ss xmm1, DWORD PTR _VecView$[ebp]
	movss	xmm2, DWORD PTR __real@3f800000
	subss	xmm2, DWORD PTR _duckFraction$[ebp]
	mulss	xmm1, xmm2
	addss	xmm0, xmm1
	mov	ecx, DWORD PTR ?pmove@@3PAUplayermove_s@@A ; pmove
	add	ecx, 128				; 00000080H
	movss	DWORD PTR tv388[ebp], xmm0
	call	??BVector@@QAEPAMXZ			; Vector::operator float *
	mov	ecx, 4
	shl	ecx, 1
	movss	xmm0, DWORD PTR tv388[ebp]
	movss	DWORD PTR [eax+ecx], xmm0
$LN19@PM_Duck:

; 2558 : 				}
; 2559 : 			}
; 2560 : 		}
; 2561 : 		else

	jmp	SHORT $LN15@PM_Duck
$LN14@PM_Duck:

; 2562 : 		{
; 2563 : 			// Try to unduck
; 2564 : 			PM_UnDuck();

	call	?PM_UnDuck@@YAXXZ			; PM_UnDuck
$LN15@PM_Duck:
$LN1@PM_Duck:

; 2565 : 		}
; 2566 : 	}
; 2567 : }

	pop	edi
	pop	esi
	pop	ebx
	mov	esp, ebp
	pop	ebp
	ret	0
?PM_Duck@@YAXXZ ENDP					; PM_Duck
_TEXT	ENDS
; Function compile flags: /Odtp /ZI
; File d:\!diffusion 2020\source code 2022\client-server\game_shared\playermove.cpp
;	COMDAT ?PM_UnDuck@@YAXXZ
_TEXT	SEGMENT
tv287 = -428						; size = 4
tv155 = -428						; size = 4
tv134 = -428						; size = 4
$T1 = -424						; size = 68
$T2 = -356						; size = 68
$T3 = -288						; size = 68
$T4 = -220						; size = 68
_VecView$ = -88						; size = 4
_newOrigin$ = -84					; size = 12
_trace$ = -72						; size = 68
_i$ = -4						; size = 4
?PM_UnDuck@@YAXXZ PROC					; PM_UnDuck, COMDAT

; 2409 : {

	push	ebp
	mov	ebp, esp
	sub	esp, 428				; 000001acH
	push	ebx
	push	esi
	push	edi

; 2410 : 	int i;
; 2411 : 	pmtrace_t trace;

	lea	ecx, DWORD PTR _trace$[ebp]
	call	??0pmtrace_s@@QAE@XZ

; 2412 : 	Vector newOrigin;

	lea	ecx, DWORD PTR _newOrigin$[ebp]
	call	??0Vector@@QAE@XZ			; Vector::Vector

; 2413 : 	int VecView = VIEW_HEIGHT;

	mov	DWORD PTR _VecView$[ebp], 28		; 0000001cH

; 2414 : 	if( pmove->effects & EF_UPSIDEDOWN )

	mov	eax, DWORD PTR ?pmove@@3PAUplayermove_s@@A ; pmove
	mov	ecx, DWORD PTR [eax+180]
	and	ecx, 4194304				; 00400000H
	je	SHORT $LN5@PM_UnDuck

; 2415 : 		VecView = -VIEW_HEIGHT;

	mov	DWORD PTR _VecView$[ebp], -28		; ffffffe4H
$LN5@PM_UnDuck:

; 2416 : 
; 2417 : 	newOrigin = pmove->origin;

	mov	eax, DWORD PTR ?pmove@@3PAUplayermove_s@@A ; pmove
	add	eax, 56					; 00000038H
	mov	ecx, DWORD PTR [eax]
	mov	DWORD PTR _newOrigin$[ebp], ecx
	mov	edx, DWORD PTR [eax+4]
	mov	DWORD PTR _newOrigin$[ebp+4], edx
	mov	eax, DWORD PTR [eax+8]
	mov	DWORD PTR _newOrigin$[ebp+8], eax

; 2418 : 
; 2419 : 	if ( pmove->onground != -1 && pmove->flags & FL_DUCKING && pmove->bInDuck == false)

	mov	eax, DWORD PTR ?pmove@@3PAUplayermove_s@@A ; pmove
	cmp	DWORD PTR [eax+224], -1
	je	$LN3@PM_UnDuck
	mov	eax, DWORD PTR ?pmove@@3PAUplayermove_s@@A ; pmove
	mov	ecx, DWORD PTR [eax+184]
	and	ecx, 16384				; 00004000H
	je	$LN3@PM_UnDuck
	mov	eax, DWORD PTR ?pmove@@3PAUplayermove_s@@A ; pmove
	cmp	DWORD PTR [eax+144], 0
	jne	$LN3@PM_UnDuck

; 2420 : 	{
; 2421 : 		for ( i = 0; i < 3; i++ )

	mov	DWORD PTR _i$[ebp], 0
	jmp	SHORT $LN4@PM_UnDuck
$LN2@PM_UnDuck:
	mov	eax, DWORD PTR _i$[ebp]
	add	eax, 1
	mov	DWORD PTR _i$[ebp], eax
$LN4@PM_UnDuck:
	cmp	DWORD PTR _i$[ebp], 3
	jge	$LN3@PM_UnDuck

; 2422 : 		{
; 2423 : 			if( pmove->effects & EF_UPSIDEDOWN )

	mov	eax, DWORD PTR ?pmove@@3PAUplayermove_s@@A ; pmove
	mov	ecx, DWORD PTR [eax+180]
	and	ecx, 4194304				; 00400000H
	je	SHORT $LN7@PM_UnDuck

; 2424 : 				newOrigin[i] -= ( pmove->player_mins[1][i] - pmove->player_mins[0][i] );

	lea	ecx, DWORD PTR _newOrigin$[ebp]
	call	??BVector@@QAEPAMXZ			; Vector::operator float *
	mov	ecx, DWORD PTR _i$[ebp]
	lea	edx, DWORD PTR [eax+ecx*4]
	mov	DWORD PTR tv134[ebp], edx
	mov	eax, 12					; 0000000cH
	shl	eax, 0
	mov	ecx, DWORD PTR ?pmove@@3PAUplayermove_s@@A ; pmove
	lea	ecx, DWORD PTR [ecx+eax+324852]
	call	??BVector@@QAEPAMXZ			; Vector::operator float *
	mov	esi, eax
	mov	edx, 12					; 0000000cH
	imul	eax, edx, 0
	mov	ecx, DWORD PTR ?pmove@@3PAUplayermove_s@@A ; pmove
	lea	ecx, DWORD PTR [ecx+eax+324852]
	call	??BVector@@QAEPAMXZ			; Vector::operator float *
	mov	edx, DWORD PTR _i$[ebp]
	mov	ecx, DWORD PTR _i$[ebp]
	movss	xmm0, DWORD PTR [esi+edx*4]
	subss	xmm0, DWORD PTR [eax+ecx*4]
	mov	edx, DWORD PTR tv134[ebp]
	movss	xmm1, DWORD PTR [edx]
	subss	xmm1, xmm0
	mov	eax, DWORD PTR tv134[ebp]
	movss	DWORD PTR [eax], xmm1

; 2425 : 			else

	jmp	SHORT $LN8@PM_UnDuck
$LN7@PM_UnDuck:

; 2426 : 				newOrigin[i] += (pmove->player_mins[1][i] - pmove->player_mins[0][i]);

	lea	ecx, DWORD PTR _newOrigin$[ebp]
	call	??BVector@@QAEPAMXZ			; Vector::operator float *
	mov	ecx, DWORD PTR _i$[ebp]
	lea	edx, DWORD PTR [eax+ecx*4]
	mov	DWORD PTR tv155[ebp], edx
	mov	eax, 12					; 0000000cH
	shl	eax, 0
	mov	ecx, DWORD PTR ?pmove@@3PAUplayermove_s@@A ; pmove
	lea	ecx, DWORD PTR [ecx+eax+324852]
	call	??BVector@@QAEPAMXZ			; Vector::operator float *
	mov	esi, eax
	mov	edx, 12					; 0000000cH
	imul	eax, edx, 0
	mov	ecx, DWORD PTR ?pmove@@3PAUplayermove_s@@A ; pmove
	lea	ecx, DWORD PTR [ecx+eax+324852]
	call	??BVector@@QAEPAMXZ			; Vector::operator float *
	mov	edx, DWORD PTR _i$[ebp]
	mov	ecx, DWORD PTR _i$[ebp]
	movss	xmm0, DWORD PTR [esi+edx*4]
	subss	xmm0, DWORD PTR [eax+ecx*4]
	mov	edx, DWORD PTR tv155[ebp]
	addss	xmm0, DWORD PTR [edx]
	mov	eax, DWORD PTR tv155[ebp]
	movss	DWORD PTR [eax], xmm0
$LN8@PM_UnDuck:

; 2427 : 		}

	jmp	$LN2@PM_UnDuck
$LN3@PM_UnDuck:

; 2428 : 	}
; 2429 : 	
; 2430 : 	trace = pmove->PM_PlayerTrace( newOrigin, newOrigin, PM_NORMAL, -1 );

	push	-1
	push	0
	lea	ecx, DWORD PTR _newOrigin$[ebp]
	call	??BVector@@QAEPAMXZ			; Vector::operator float *
	push	eax
	lea	ecx, DWORD PTR _newOrigin$[ebp]
	call	??BVector@@QAEPAMXZ			; Vector::operator float *
	push	eax
	lea	eax, DWORD PTR $T3[ebp]
	push	eax
	mov	ecx, DWORD PTR ?pmove@@3PAUplayermove_s@@A ; pmove
	mov	edx, DWORD PTR [ecx+324992]
	call	edx
	add	esp, 20					; 00000014H
	mov	ecx, 17					; 00000011H
	mov	esi, eax
	lea	edi, DWORD PTR $T4[ebp]
	rep movsd
	mov	ecx, 17					; 00000011H
	lea	esi, DWORD PTR $T4[ebp]
	lea	edi, DWORD PTR _trace$[ebp]
	rep movsd

; 2431 : 
; 2432 : 	if ( !trace.startsolid )

	cmp	DWORD PTR _trace$[ebp+4], 0
	jne	$LN9@PM_UnDuck

; 2433 : 	{
; 2434 : 		pmove->usehull = 0;

	mov	eax, DWORD PTR ?pmove@@3PAUplayermove_s@@A ; pmove
	mov	DWORD PTR [eax+188], 0

; 2435 : 
; 2436 : 		// Oh, no, changing hulls stuck us into something, try unsticking downward first.
; 2437 : 		trace = pmove->PM_PlayerTrace( newOrigin, newOrigin, PM_NORMAL, -1  );

	push	-1
	push	0
	lea	ecx, DWORD PTR _newOrigin$[ebp]
	call	??BVector@@QAEPAMXZ			; Vector::operator float *
	push	eax
	lea	ecx, DWORD PTR _newOrigin$[ebp]
	call	??BVector@@QAEPAMXZ			; Vector::operator float *
	push	eax
	lea	eax, DWORD PTR $T1[ebp]
	push	eax
	mov	ecx, DWORD PTR ?pmove@@3PAUplayermove_s@@A ; pmove
	mov	edx, DWORD PTR [ecx+324992]
	call	edx
	add	esp, 20					; 00000014H
	mov	ecx, 17					; 00000011H
	mov	esi, eax
	lea	edi, DWORD PTR $T2[ebp]
	rep movsd
	mov	ecx, 17					; 00000011H
	lea	esi, DWORD PTR $T2[ebp]
	lea	edi, DWORD PTR _trace$[ebp]
	rep movsd

; 2438 : 		if ( trace.startsolid )

	cmp	DWORD PTR _trace$[ebp+4], 0
	je	SHORT $LN10@PM_UnDuck

; 2439 : 		{
; 2440 : 			// See if we are stuck?  If so, stay ducked with the duck hull until we have a clear spot
; 2441 : 			//Con_Printf( "unstick got stuck\n" );
; 2442 : 			pmove->usehull = 1;

	mov	eax, DWORD PTR ?pmove@@3PAUplayermove_s@@A ; pmove
	mov	DWORD PTR [eax+188], 1

; 2443 : 			return;

	jmp	$LN1@PM_UnDuck
$LN10@PM_UnDuck:

; 2444 : 		}
; 2445 : 
; 2446 : 		pmove->flags &= ~FL_DUCKING;

	mov	eax, DWORD PTR ?pmove@@3PAUplayermove_s@@A ; pmove
	mov	ecx, DWORD PTR [eax+184]
	and	ecx, -16385				; ffffbfffH
	mov	edx, DWORD PTR ?pmove@@3PAUplayermove_s@@A ; pmove
	mov	DWORD PTR [edx+184], ecx

; 2447 : 		pmove->bInDuck  = false;

	mov	eax, DWORD PTR ?pmove@@3PAUplayermove_s@@A ; pmove
	mov	DWORD PTR [eax+144], 0

; 2448 : 		pmove->view_ofs[2] = VecView;

	cvtsi2ss xmm0, DWORD PTR _VecView$[ebp]
	mov	ecx, DWORD PTR ?pmove@@3PAUplayermove_s@@A ; pmove
	add	ecx, 128				; 00000080H
	movss	DWORD PTR tv287[ebp], xmm0
	call	??BVector@@QAEPAMXZ			; Vector::operator float *
	mov	ecx, 4
	shl	ecx, 1
	movss	xmm0, DWORD PTR tv287[ebp]
	movss	DWORD PTR [eax+ecx], xmm0

; 2449 : 		pmove->flDuckTime = 0;

	mov	eax, DWORD PTR ?pmove@@3PAUplayermove_s@@A ; pmove
	xorps	xmm0, xmm0
	movss	DWORD PTR [eax+140], xmm0

; 2450 : 		
; 2451 : 		pmove->origin = newOrigin;

	mov	eax, DWORD PTR ?pmove@@3PAUplayermove_s@@A ; pmove
	add	eax, 56					; 00000038H
	mov	ecx, DWORD PTR _newOrigin$[ebp]
	mov	DWORD PTR [eax], ecx
	mov	edx, DWORD PTR _newOrigin$[ebp+4]
	mov	DWORD PTR [eax+4], edx
	mov	ecx, DWORD PTR _newOrigin$[ebp+8]
	mov	DWORD PTR [eax+8], ecx

; 2452 : 
; 2453 : 		// Recategorize position since ducking can change origin
; 2454 : 		PM_CategorizePosition();

	call	?PM_CategorizePosition@@YAXXZ		; PM_CategorizePosition
$LN9@PM_UnDuck:
$LN1@PM_UnDuck:

; 2455 : 	}
; 2456 : }

	pop	edi
	pop	esi
	pop	ebx
	mov	esp, ebp
	pop	ebp
	ret	0
?PM_UnDuck@@YAXXZ ENDP					; PM_UnDuck
_TEXT	ENDS
; Function compile flags: /Odtp /ZI
; File d:\!diffusion 2020\source code 2022\client-server\game_shared\playermove.cpp
;	COMDAT ?PM_FixPlayerCrouchStuck@@YAXH@Z
_TEXT	SEGMENT
_i$1 = -16						; size = 4
_test$ = -12						; size = 12
_direction$ = 8						; size = 4
?PM_FixPlayerCrouchStuck@@YAXH@Z PROC			; PM_FixPlayerCrouchStuck, COMDAT

; 2391 : {

	push	ebp
	mov	ebp, esp
	sub	esp, 80					; 00000050H
	push	ebx
	push	esi
	push	edi

; 2392 : 	if( pmove->PM_TestPlayerPosition ( pmove->origin, NULL ) == -1 )

	push	0
	mov	ecx, DWORD PTR ?pmove@@3PAUplayermove_s@@A ; pmove
	add	ecx, 56					; 00000038H
	call	??BVector@@QAEPAMXZ			; Vector::operator float *
	push	eax
	mov	eax, DWORD PTR ?pmove@@3PAUplayermove_s@@A ; pmove
	mov	ecx, DWORD PTR [eax+324956]
	call	ecx
	add	esp, 8
	cmp	eax, -1
	jne	SHORT $LN5@PM_FixPlay

; 2393 : 		return;

	jmp	$LN1@PM_FixPlay
$LN5@PM_FixPlay:

; 2394 : 	
; 2395 : 	Vector test = pmove->origin;

	mov	eax, DWORD PTR ?pmove@@3PAUplayermove_s@@A ; pmove
	add	eax, 56					; 00000038H
	push	eax
	lea	ecx, DWORD PTR _test$[ebp]
	call	??0Vector@@QAE@ABV0@@Z			; Vector::Vector

; 2396 : 	
; 2397 : 	for( int i = 0; i < 36; i++ )

	mov	DWORD PTR _i$1[ebp], 0
	jmp	SHORT $LN4@PM_FixPlay
$LN2@PM_FixPlay:
	mov	eax, DWORD PTR _i$1[ebp]
	add	eax, 1
	mov	DWORD PTR _i$1[ebp], eax
$LN4@PM_FixPlay:
	cmp	DWORD PTR _i$1[ebp], 36			; 00000024H
	jge	SHORT $LN3@PM_FixPlay

; 2398 : 	{
; 2399 : 		pmove->origin.z += direction;

	cvtsi2ss xmm0, DWORD PTR _direction$[ebp]
	mov	eax, DWORD PTR ?pmove@@3PAUplayermove_s@@A ; pmove
	addss	xmm0, DWORD PTR [eax+64]
	mov	ecx, DWORD PTR ?pmove@@3PAUplayermove_s@@A ; pmove
	movss	DWORD PTR [ecx+64], xmm0

; 2400 : 
; 2401 : 		if( pmove->PM_TestPlayerPosition ( pmove->origin, NULL ) == -1 )

	push	0
	mov	ecx, DWORD PTR ?pmove@@3PAUplayermove_s@@A ; pmove
	add	ecx, 56					; 00000038H
	call	??BVector@@QAEPAMXZ			; Vector::operator float *
	push	eax
	mov	eax, DWORD PTR ?pmove@@3PAUplayermove_s@@A ; pmove
	mov	ecx, DWORD PTR [eax+324956]
	call	ecx
	add	esp, 8
	cmp	eax, -1
	jne	SHORT $LN6@PM_FixPlay

; 2402 : 			return;

	jmp	SHORT $LN1@PM_FixPlay
$LN6@PM_FixPlay:

; 2403 : 	}

	jmp	SHORT $LN2@PM_FixPlay
$LN3@PM_FixPlay:

; 2404 : 
; 2405 : 	pmove->origin = test; // Failed

	mov	eax, DWORD PTR ?pmove@@3PAUplayermove_s@@A ; pmove
	add	eax, 56					; 00000038H
	mov	ecx, DWORD PTR _test$[ebp]
	mov	DWORD PTR [eax], ecx
	mov	edx, DWORD PTR _test$[ebp+4]
	mov	DWORD PTR [eax+4], edx
	mov	ecx, DWORD PTR _test$[ebp+8]
	mov	DWORD PTR [eax+8], ecx
$LN1@PM_FixPlay:

; 2406 : }

	pop	edi
	pop	esi
	pop	ebx
	mov	esp, ebp
	pop	ebp
	ret	0
?PM_FixPlayerCrouchStuck@@YAXH@Z ENDP			; PM_FixPlayerCrouchStuck
_TEXT	ENDS
; Function compile flags: /Odtp /ZI
; File d:\!diffusion 2020\source code 2022\client-server\game_shared\playermove.cpp
;	COMDAT ?PM_SplineFraction@@YAMMM@Z
_TEXT	SEGMENT
tv75 = -72						; size = 4
_valueSquared$ = -4					; size = 4
_value$ = 8						; size = 4
_scale$ = 12						; size = 4
?PM_SplineFraction@@YAMMM@Z PROC			; PM_SplineFraction, COMDAT

; 2380 : {

	push	ebp
	mov	ebp, esp
	sub	esp, 72					; 00000048H
	push	ebx
	push	esi
	push	edi

; 2381 : 	float valueSquared;
; 2382 : 
; 2383 : 	value = scale * value;

	movss	xmm0, DWORD PTR _scale$[ebp]
	mulss	xmm0, DWORD PTR _value$[ebp]
	movss	DWORD PTR _value$[ebp], xmm0

; 2384 : 	valueSquared = value * value;

	movss	xmm0, DWORD PTR _value$[ebp]
	mulss	xmm0, DWORD PTR _value$[ebp]
	movss	DWORD PTR _valueSquared$[ebp], xmm0

; 2385 : 
; 2386 : 	// Nice little ease-in, ease-out spline-like curve
; 2387 : 	return 3 * valueSquared - 2 * valueSquared * value;

	movss	xmm0, DWORD PTR __real@40400000
	mulss	xmm0, DWORD PTR _valueSquared$[ebp]
	movss	xmm1, DWORD PTR __real@40000000
	mulss	xmm1, DWORD PTR _valueSquared$[ebp]
	mulss	xmm1, DWORD PTR _value$[ebp]
	subss	xmm0, xmm1
	movss	DWORD PTR tv75[ebp], xmm0
	fld	DWORD PTR tv75[ebp]

; 2388 : }

	pop	edi
	pop	esi
	pop	ebx
	mov	esp, ebp
	pop	ebp
	ret	0
?PM_SplineFraction@@YAMMM@Z ENDP			; PM_SplineFraction
_TEXT	ENDS
; Function compile flags: /Odtp /ZI
; File d:\!diffusion 2020\source code 2022\client-server\game_shared\playermove.cpp
;	COMDAT ?PM_SpectatorMove@@YAXXZ
_TEXT	SEGMENT
_target$1 = -76						; size = 4
_wishdir$ = -68						; size = 12
_wishvel$ = -48						; size = 12
?PM_SpectatorMove@@YAXXZ PROC				; PM_SpectatorMove, COMDAT

; 2261 : {

	push	ebp
	mov	ebp, esp
	sub	esp, 140				; 0000008cH
	push	ebx
	push	esi
	push	edi

; 2262 : 	float	speed, drop, friction, control, newspeed;
; 2263 : 	//float   accel;
; 2264 : 	float	currentspeed, addspeed, accelspeed;
; 2265 : 	int			i;
; 2266 : 	Vector		wishvel;

	lea	ecx, DWORD PTR _wishvel$[ebp]
	call	??0Vector@@QAE@XZ			; Vector::Vector

; 2267 : 	float		fmove, smove;
; 2268 : 	Vector		wishdir;

	lea	ecx, DWORD PTR _wishdir$[ebp]
	call	??0Vector@@QAE@XZ			; Vector::Vector

; 2269 : 	float		wishspeed;
; 2270 : 	// this routine keeps track of the spectators psoition
; 2271 : 	// there a two different main move types : track player or moce freely (OBS_ROAMING)
; 2272 : 	// doesn't need excate track position, only to generate PVS, so just copy
; 2273 : 	// targets position and real view position is calculated on client (saves server CPU)
; 2274 : 	
; 2275 : 	if ( pmove->iuser1 == OBS_ROAMING)

	mov	eax, DWORD PTR ?pmove@@3PAUplayermove_s@@A ; pmove
	cmp	DWORD PTR [eax+508], 3
	jne	SHORT $LN5@PM_Spectat

; 2276 : 	{
; 2277 : 		// Move around in normal spectator method
; 2278 : 		/*speed = pmove->velocity.Length();
; 2279 : 
; 2280 : 		if (speed < 1)
; 2281 : 			pmove->velocity = g_vecZero;
; 2282 : 		else
; 2283 : 		{
; 2284 : 			drop = 0;
; 2285 : 
; 2286 : 			friction = pmove->movevars->friction*1.5;	// extra friction
; 2287 : 			control = speed < pmove->movevars->stopspeed ? pmove->movevars->stopspeed : speed;
; 2288 : 			drop += control*friction*pmove->frametime;
; 2289 : 
; 2290 : 			// scale the velocity
; 2291 : 			newspeed = speed - drop;
; 2292 : 			if (newspeed < 0)
; 2293 : 				newspeed = 0;
; 2294 : 			newspeed /= speed;
; 2295 : 
; 2296 : 			pmove->velocity *= newspeed;
; 2297 : 		}
; 2298 : 
; 2299 : 		// accelerate
; 2300 : 		fmove = pmove->cmd.forwardmove;
; 2301 : 		smove = pmove->cmd.sidemove;
; 2302 : 		
; 2303 : 		pmove->forward = pmove->forward.Normalize();
; 2304 : 		pmove->right = pmove->right.Normalize();
; 2305 : 
; 2306 : 		for (i=0 ; i<3 ; i++)
; 2307 : 		{
; 2308 : 			wishvel[i] = pmove->forward[i]*fmove + pmove->right[i]*smove;
; 2309 : 		}
; 2310 : 		wishvel[2] += pmove->cmd.upmove;
; 2311 : 
; 2312 : 		wishdir = wishvel;
; 2313 : 		wishspeed = wishdir.Length();
; 2314 : 		wishdir = wishdir.Normalize();
; 2315 : 
; 2316 : 		//
; 2317 : 		// clamp to server defined max speed
; 2318 : 		//
; 2319 : 		if (wishspeed > pmove->movevars->spectatormaxspeed)
; 2320 : 		{
; 2321 : 			wishvel *= ( pmove->movevars->spectatormaxspeed / wishspeed );
; 2322 : 			wishspeed = pmove->movevars->spectatormaxspeed;
; 2323 : 		}
; 2324 : 
; 2325 : 		currentspeed = DotProduct(pmove->velocity, wishdir);
; 2326 : 		addspeed = wishspeed - currentspeed;
; 2327 : 		if (addspeed <= 0)
; 2328 : 			return;
; 2329 : 
; 2330 : 		accelspeed = pmove->movevars->accelerate*pmove->frametime*wishspeed;
; 2331 : 		if (accelspeed > addspeed)
; 2332 : 			accelspeed = addspeed;
; 2333 : 		
; 2334 : 		pmove->velocity += wishdir * accelspeed;	
; 2335 : 
; 2336 : 		// move
; 2337 : 		pmove->origin += pmove->velocity * pmove->frametime;*/
; 2338 : 
; 2339 : 		// diffusion - use this.
; 2340 : 		PM_NoClip();

	call	?PM_NoClip@@YAXXZ			; PM_NoClip

; 2341 : 	}
; 2342 : 	else

	jmp	$LN1@PM_Spectat
$LN5@PM_Spectat:

; 2343 : 	{
; 2344 : 		// all other modes just track some kind of target, so spectator PVS = target PVS
; 2345 : 
; 2346 : 		int target;
; 2347 : 
; 2348 : 		// no valid target ?
; 2349 : 		if ( pmove->iuser2 <= 0)

	mov	eax, DWORD PTR ?pmove@@3PAUplayermove_s@@A ; pmove
	cmp	DWORD PTR [eax+512], 0
	jg	SHORT $LN7@PM_Spectat

; 2350 : 			return;

	jmp	$LN1@PM_Spectat
$LN7@PM_Spectat:

; 2351 : 
; 2352 : 		// Find the client this player's targeting
; 2353 : 		for (target = 0; target < pmove->numphysent; target++)

	mov	DWORD PTR _target$1[ebp], 0
	jmp	SHORT $LN4@PM_Spectat
$LN2@PM_Spectat:
	mov	eax, DWORD PTR _target$1[ebp]
	add	eax, 1
	mov	DWORD PTR _target$1[ebp], eax
$LN4@PM_Spectat:
	mov	eax, DWORD PTR ?pmove@@3PAUplayermove_s@@A ; pmove
	mov	ecx, DWORD PTR _target$1[ebp]
	cmp	ecx, DWORD PTR [eax+588]
	jge	SHORT $LN3@PM_Spectat

; 2354 : 		{
; 2355 : 			if ( pmove->physents[target].info == pmove->iuser2 )

	imul	eax, DWORD PTR _target$1[ebp], 224
	mov	ecx, DWORD PTR ?pmove@@3PAUplayermove_s@@A ; pmove
	mov	edx, DWORD PTR ?pmove@@3PAUplayermove_s@@A ; pmove
	mov	eax, DWORD PTR [ecx+eax+672]
	cmp	eax, DWORD PTR [edx+512]
	jne	SHORT $LN8@PM_Spectat

; 2356 : 				break;

	jmp	SHORT $LN3@PM_Spectat
$LN8@PM_Spectat:

; 2357 : 		}

	jmp	SHORT $LN2@PM_Spectat
$LN3@PM_Spectat:

; 2358 : 
; 2359 : 		if (target == pmove->numphysent)

	mov	eax, DWORD PTR ?pmove@@3PAUplayermove_s@@A ; pmove
	mov	ecx, DWORD PTR _target$1[ebp]
	cmp	ecx, DWORD PTR [eax+588]
	jne	SHORT $LN9@PM_Spectat

; 2360 : 			return;

	jmp	SHORT $LN1@PM_Spectat
$LN9@PM_Spectat:

; 2361 : 
; 2362 : 		// use targets position as own origin for PVS
; 2363 : 		pmove->angles = pmove->physents[target].angles;

