; Listing generated by Microsoft (R) Optimizing Compiler Version 19.00.24247.2 

	TITLE	D:\!DIFFUSION 2020\source code 2022\client-server\client\render\r_backend.cpp
	.686P
	.XMM
	include listing.inc
	.model	flat

INCLUDELIB LIBCMT
INCLUDELIB OLDNAMES

PUBLIC	??_H@YGXPAXIIP6EPAX0@Z@Z			; `vector constructor iterator'
PUBLIC	??__G@YGXPAX0IIP6EPAX00@Z@Z			; `vector copy constructor iterator'
PUBLIC	??0Vector@@QAE@ABV0@@Z				; Vector::Vector
PUBLIC	??BVector@@QAEPAMXZ				; Vector::operator float *
PUBLIC	??0Vector4D@@QAE@ABV0@@Z			; Vector4D::Vector4D
PUBLIC	??BVector4D@@QAEPAMXZ				; Vector4D::operator float *
PUBLIC	??BVector4D@@QBEPBMXZ				; Vector4D::operator float const *
PUBLIC	??Amatrix4x4@@QAEPAMH@Z				; matrix4x4::operator[]
PUBLIC	?CopyToArray@matrix4x4@@QBEXPAM@Z		; matrix4x4::CopyToArray
PUBLIC	??0matrix4x4@@QAE@ABV0@@Z			; matrix4x4::matrix4x4
PUBLIC	?GetPlane@CFrustum@@QBEPBUmplane_s@@H@Z		; CFrustum::GetPlane
PUBLIC	?GL_LoadMatrix@@YAXVmatrix4x4@@@Z		; GL_LoadMatrix
PUBLIC	?GL_LoadTexMatrix@@YAXVmatrix4x4@@@Z		; GL_LoadTexMatrix
PUBLIC	?GL_FrontFace@@YAXI@Z				; GL_FrontFace
PUBLIC	?GL_Cull@@YAXI@Z				; GL_Cull
PUBLIC	?R_BeginDrawProjectionGLSL@@YA_NPAUplight_s@@M@Z ; R_BeginDrawProjectionGLSL
PUBLIC	?R_EndDrawProjectionGLSL@@YAXXZ			; R_EndDrawProjectionGLSL
PUBLIC	?R_GetSpriteTexture@@YAHPBUmodel_s@@H@Z		; R_GetSpriteTexture
PUBLIC	?R_AllocFrameBuffer@@YAHQAH@Z			; R_AllocFrameBuffer
PUBLIC	?GL_BindFrameBuffer@@YAXHH@Z			; GL_BindFrameBuffer
PUBLIC	?R_FreeFrameBuffer@@YAXH@Z			; R_FreeFrameBuffer
PUBLIC	?GL_DepthMask@@YAXH@Z				; GL_DepthMask
PUBLIC	?GL_AlphaTest@@YAXH@Z				; GL_AlphaTest
PUBLIC	?GL_Blend@@YAXH@Z				; GL_Blend
PUBLIC	?GL_BindFBO@@YAXH@Z				; GL_BindFBO
PUBLIC	?GL_Setup2D@@YAXXZ				; GL_Setup2D
PUBLIC	?GL_Setup3D@@YAXXZ				; GL_Setup3D
PUBLIC	?GL_CleanupDrawState@@YAXXZ			; GL_CleanupDrawState
PUBLIC	?GL_CleanupAllTextureUnits@@YAXXZ		; GL_CleanupAllTextureUnits
PUBLIC	?GL_AlphaToCoverage@@YAX_N@Z			; GL_AlphaToCoverage
PUBLIC	?GL_UsingAlphaToCoverage@@YA_NXZ		; GL_UsingAlphaToCoverage
PUBLIC	?R_GetSpriteFrame@@YAPAUmspriteframe_s@@PBUmodel_s@@H@Z ; R_GetSpriteFrame
PUBLIC	?__LINE__Var@?0??R_BeginDrawProjectionGLSL@@YA_NPAUplight_s@@M@Z@4JA ; `R_BeginDrawProjectionGLSL'::`1'::__LINE__Var
PUBLIC	??_C@_0EO@HOKLNKJM@d?3?2?$CBdiffusion?52020?2source?5code?52@ ; `string'
PUBLIC	??_C@_0BI@FECCGOFJ@assert?5failed?5at?5?$CFs?3?$CFi?6?$AA@ ; `string'
PUBLIC	??_C@_0CM@IABABCPC@R_AllocateFrameBuffer?3?5FBO?5limit@ ; `string'
PUBLIC	??_C@_0DD@LCIFABMM@R_AllocFrameBuffer?3?5buffer?5?$CFi?5al@ ; `string'
PUBLIC	??_C@_0CL@OGOAONON@R_FreeFrameBuffer?3?5invalid?5buffe@ ; `string'
PUBLIC	??_C@_07NMOGFCPI@gl_msaa?$AA@			; `string'
PUBLIC	__real@00000000
PUBLIC	__real@3f800000
PUBLIC	__real@40f869f000000000
PUBLIC	__real@437f0000
PUBLIC	__real@c0f869f000000000
PUBLIC	__xmm@80000000800000008000000080000000
EXTRN	_memset:PROC
EXTRN	?ALERT@@YAXW4ALERT_TYPE@@PADZZ:PROC		; ALERT
EXTRN	?GL_Support@@YA_NH@Z:PROC			; GL_Support
EXTRN	?R_LoadIdentity@@YAXXZ:PROC			; R_LoadIdentity
EXTRN	?GL_BindShader@@YAXPAUglsl_prog_s@@@Z:PROC	; GL_BindShader
EXTRN	?GL_UberShaderForDlightGeneric@@YAGPBUplight_s@@@Z:PROC ; GL_UberShaderForDlightGeneric
EXTRN	?GetSpriteFrame@CSpriteModelRenderer@@QAEPAUmspriteframe_s@@PBUmodel_s@@H@Z:PROC ; CSpriteModelRenderer::GetSpriteFrame
EXTRN	@__security_check_cookie@4:PROC
EXTRN	?gEngfuncs@@3Ucl_enginefuncs_s@@A:BYTE		; gEngfuncs
EXTRN	?gRenderfuncs@@3Urender_api_s@@A:BYTE		; gRenderfuncs
EXTRN	?pglBlendFunc@@3P6GXII@ZA:DWORD			; pglBlendFunc
EXTRN	?pglIsEnabled@@3P6GEI@ZA:DWORD			; pglIsEnabled
EXTRN	?pglColor4f@@3P6GXMMMM@ZA:DWORD			; pglColor4f
EXTRN	?pglCullFace@@3P6GXI@ZA:DWORD			; pglCullFace
EXTRN	?pglDepthFunc@@3P6GXI@ZA:DWORD			; pglDepthFunc
EXTRN	?pglDepthMask@@3P6GXE@ZA:DWORD			; pglDepthMask
EXTRN	?pglDisable@@3P6GXI@ZA:DWORD			; pglDisable
EXTRN	?pglDrawBuffer@@3P6GXI@ZA:DWORD			; pglDrawBuffer
EXTRN	?pglEnable@@3P6GXI@ZA:DWORD			; pglEnable
EXTRN	?pglFrontFace@@3P6GXI@ZA:DWORD			; pglFrontFace
EXTRN	?pglLoadIdentity@@3P6GXXZA:DWORD		; pglLoadIdentity
EXTRN	?pglLoadMatrixf@@3P6GXPBM@ZA:DWORD		; pglLoadMatrixf
EXTRN	?pglMatrixMode@@3P6GXI@ZA:DWORD			; pglMatrixMode
EXTRN	?pglOrtho@@3P6GXNNNNNN@ZA:DWORD			; pglOrtho
EXTRN	?pglReadBuffer@@3P6GXI@ZA:DWORD			; pglReadBuffer
EXTRN	?pglScissor@@3P6GXHHHH@ZA:DWORD			; pglScissor
EXTRN	?pglViewport@@3P6GXHHHH@ZA:DWORD		; pglViewport
EXTRN	?pglUniform1fARB@@3P6GXHM@ZA:DWORD		; pglUniform1fARB
EXTRN	?pglUniform4fARB@@3P6GXHMMMM@ZA:DWORD		; pglUniform4fARB
EXTRN	?pglUniformMatrix4fvARB@@3P6GXHHEPBM@ZA:DWORD	; pglUniformMatrix4fvARB
EXTRN	?pglBindBufferARB@@3P6GXII@ZA:DWORD		; pglBindBufferARB
EXTRN	?pglBindRenderbuffer@@3P6GXII@ZA:DWORD		; pglBindRenderbuffer
EXTRN	?pglDeleteRenderbuffers@@3P6GXHPBI@ZA:DWORD	; pglDeleteRenderbuffers
EXTRN	?pglGenRenderbuffers@@3P6GXHPAI@ZA:DWORD	; pglGenRenderbuffers
EXTRN	?pglRenderbufferStorage@@3P6GXIIHH@ZA:DWORD	; pglRenderbufferStorage
EXTRN	?pglBindFramebuffer@@3P6GXII@ZA:DWORD		; pglBindFramebuffer
EXTRN	?pglDeleteFramebuffers@@3P6GXHPBI@ZA:DWORD	; pglDeleteFramebuffers
EXTRN	?pglGenFramebuffers@@3P6GXHPAI@ZA:DWORD		; pglGenFramebuffers
EXTRN	?pglFramebufferTexture2D@@3P6GXIIIIH@ZA:DWORD	; pglFramebufferTexture2D
EXTRN	?pglFramebufferRenderbuffer@@3P6GXIIII@ZA:DWORD	; pglFramebufferRenderbuffer
EXTRN	?pglBindVertexArray@@3P6GXI@ZA:DWORD		; pglBindVertexArray
EXTRN	?RI@@3PAUref_instance_t@@A:DWORD		; RI
EXTRN	?tr@@3Uref_globals_t@@A:BYTE			; tr
EXTRN	?glState@@3UglState_t@@A:BYTE			; glState
EXTRN	?glConfig@@3UglConfig_t@@A:BYTE			; glConfig
EXTRN	?g_SpriteRenderer@@3VCSpriteModelRenderer@@A:BYTE ; g_SpriteRenderer
EXTRN	?glsl_programs@@3PAUglsl_prog_s@@A:BYTE		; glsl_programs
EXTRN	___security_cookie:DWORD
EXTRN	__fltused:DWORD
;	COMDAT __xmm@80000000800000008000000080000000
CONST	SEGMENT
__xmm@80000000800000008000000080000000 DB 00H, 00H, 00H, 080H, 00H, 00H, 00H
	DB	080H, 00H, 00H, 00H, 080H, 00H, 00H, 00H, 080H
CONST	ENDS
;	COMDAT __real@c0f869f000000000
CONST	SEGMENT
__real@c0f869f000000000 DQ 0c0f869f000000000r	; -99999
CONST	ENDS
;	COMDAT __real@437f0000
CONST	SEGMENT
__real@437f0000 DD 0437f0000r			; 255
CONST	ENDS
;	COMDAT __real@40f869f000000000
CONST	SEGMENT
__real@40f869f000000000 DQ 040f869f000000000r	; 99999
CONST	ENDS
;	COMDAT __real@3f800000
CONST	SEGMENT
__real@3f800000 DD 03f800000r			; 1
CONST	ENDS
;	COMDAT __real@00000000
CONST	SEGMENT
__real@00000000 DD 000000000r			; 0
CONST	ENDS
;	COMDAT ??_C@_07NMOGFCPI@gl_msaa?$AA@
CONST	SEGMENT
??_C@_07NMOGFCPI@gl_msaa?$AA@ DB 'gl_msaa', 00H		; `string'
CONST	ENDS
;	COMDAT ??_C@_0CL@OGOAONON@R_FreeFrameBuffer?3?5invalid?5buffe@
CONST	SEGMENT
??_C@_0CL@OGOAONON@R_FreeFrameBuffer?3?5invalid?5buffe@ DB 'R_FreeFrameBu'
	DB	'ffer: invalid buffer enum %i', 0aH, 00H	; `string'
CONST	ENDS
;	COMDAT ??_C@_0DD@LCIFABMM@R_AllocFrameBuffer?3?5buffer?5?$CFi?5al@
CONST	SEGMENT
??_C@_0DD@LCIFABMM@R_AllocFrameBuffer?3?5buffer?5?$CFi?5al@ DB 'R_AllocFr'
	DB	'ameBuffer: buffer %i already initialized', 0aH, 00H ; `string'
CONST	ENDS
;	COMDAT ??_C@_0CM@IABABCPC@R_AllocateFrameBuffer?3?5FBO?5limit@
CONST	SEGMENT
??_C@_0CM@IABABCPC@R_AllocateFrameBuffer?3?5FBO?5limit@ DB 'R_AllocateFra'
	DB	'meBuffer: FBO limit exceeded!', 0aH, 00H	; `string'
CONST	ENDS
;	COMDAT ??_C@_0BI@FECCGOFJ@assert?5failed?5at?5?$CFs?3?$CFi?6?$AA@
CONST	SEGMENT
??_C@_0BI@FECCGOFJ@assert?5failed?5at?5?$CFs?3?$CFi?6?$AA@ DB 'assert fai'
	DB	'led at %s:%i', 0aH, 00H			; `string'
CONST	ENDS
;	COMDAT ??_C@_0EO@HOKLNKJM@d?3?2?$CBdiffusion?52020?2source?5code?52@
CONST	SEGMENT
??_C@_0EO@HOKLNKJM@d?3?2?$CBdiffusion?52020?2source?5code?52@ DB 'd:\!dif'
	DB	'fusion 2020\source code 2022\client-server\client\render\r_ba'
	DB	'ckend.cpp', 00H				; `string'
CONST	ENDS
;	COMDAT ?__LINE__Var@?0??R_BeginDrawProjectionGLSL@@YA_NPAUplight_s@@M@Z@4JA
_DATA	SEGMENT
?__LINE__Var@?0??R_BeginDrawProjectionGLSL@@YA_NPAUplight_s@@M@Z@4JA DD 0d3H ; `R_BeginDrawProjectionGLSL'::`1'::__LINE__Var
_DATA	ENDS
; Function compile flags: /Odtp /ZI
; File d:\!diffusion 2020\source code 2022\client-server\client\render\r_sprite.h
;	COMDAT ?R_GetSpriteFrame@@YAPAUmspriteframe_s@@PBUmodel_s@@H@Z
_TEXT	SEGMENT
_m_pSpriteModel$ = 8					; size = 4
_frame$ = 12						; size = 4
?R_GetSpriteFrame@@YAPAUmspriteframe_s@@PBUmodel_s@@H@Z PROC ; R_GetSpriteFrame, COMDAT

; 108  : {

	push	ebp
	mov	ebp, esp
	sub	esp, 64					; 00000040H
	push	ebx
	push	esi
	push	edi

; 109  : 	return g_SpriteRenderer.GetSpriteFrame( m_pSpriteModel, frame );

	mov	eax, DWORD PTR _frame$[ebp]
	push	eax
	mov	ecx, DWORD PTR _m_pSpriteModel$[ebp]
	push	ecx
	mov	ecx, OFFSET ?g_SpriteRenderer@@3VCSpriteModelRenderer@@A ; g_SpriteRenderer
	call	?GetSpriteFrame@CSpriteModelRenderer@@QAEPAUmspriteframe_s@@PBUmodel_s@@H@Z ; CSpriteModelRenderer::GetSpriteFrame

; 110  : } 

	pop	edi
	pop	esi
	pop	ebx
	mov	esp, ebp
	pop	ebp
	ret	0
?R_GetSpriteFrame@@YAPAUmspriteframe_s@@PBUmodel_s@@H@Z ENDP ; R_GetSpriteFrame
_TEXT	ENDS
; Function compile flags: /Odtp /ZI
; File d:\!diffusion 2020\source code 2022\client-server\client\render\r_backend.cpp
;	COMDAT ?GL_UsingAlphaToCoverage@@YA_NXZ
_TEXT	SEGMENT
tv67 = -72						; size = 4
tv72 = -68						; size = 4
?GL_UsingAlphaToCoverage@@YA_NXZ PROC			; GL_UsingAlphaToCoverage, COMDAT

; 401  : {

	push	ebp
	mov	ebp, esp
	sub	esp, 72					; 00000048H
	push	ebx
	push	esi
	push	edi

; 402  : 	return (CVAR_GET_FLOAT( "gl_msaa" ) > 0.0f);

	push	OFFSET ??_C@_07NMOGFCPI@gl_msaa?$AA@
	call	DWORD PTR ?gEngfuncs@@3Ucl_enginefuncs_s@@A+60
	add	esp, 4
	fstp	DWORD PTR tv72[ebp]
	movss	xmm0, DWORD PTR tv72[ebp]
	comiss	xmm0, DWORD PTR __real@00000000
	jbe	SHORT $LN3@GL_UsingAl
	mov	DWORD PTR tv67[ebp], 1
	jmp	SHORT $LN4@GL_UsingAl
$LN3@GL_UsingAl:
	mov	DWORD PTR tv67[ebp], 0
$LN4@GL_UsingAl:
	mov	al, BYTE PTR tv67[ebp]

; 403  : }

	pop	edi
	pop	esi
	pop	ebx
	mov	esp, ebp
	pop	ebp
	ret	0
?GL_UsingAlphaToCoverage@@YA_NXZ ENDP			; GL_UsingAlphaToCoverage
_TEXT	ENDS
; Function compile flags: /Odtp /ZI
; File d:\!diffusion 2020\source code 2022\client-server\client\render\r_backend.cpp
;	COMDAT ?GL_AlphaToCoverage@@YAX_N@Z
_TEXT	SEGMENT
_enable$ = 8						; size = 1
?GL_AlphaToCoverage@@YAX_N@Z PROC			; GL_AlphaToCoverage, COMDAT

; 385  : {

	push	ebp
	mov	ebp, esp
	sub	esp, 64					; 00000040H
	push	ebx
	push	esi
	push	edi

; 386  : 	// TODO store state locally to avoid GL-calls to get current state
; 387  : 	if( pglIsEnabled( GL_SAMPLE_ALPHA_TO_COVERAGE_ARB ) == enable )

	push	32926					; 0000809eH
	call	DWORD PTR ?pglIsEnabled@@3P6GEI@ZA	; pglIsEnabled
	movzx	eax, al
	movzx	ecx, BYTE PTR _enable$[ebp]
	cmp	eax, ecx
	jne	SHORT $LN2@GL_AlphaTo

; 388  : 		return;

	jmp	SHORT $LN1@GL_AlphaTo
$LN2@GL_AlphaTo:

; 389  : 
; 390  : 	if( enable && 1 )// CVAR_TO_BOOL( gl_alpha2coverage ) )

	movzx	eax, BYTE PTR _enable$[ebp]
	test	eax, eax
	je	SHORT $LN3@GL_AlphaTo
	mov	eax, 1
	test	eax, eax
	je	SHORT $LN3@GL_AlphaTo

; 391  : 	{
; 392  : 		pglEnable( GL_SAMPLE_ALPHA_TO_COVERAGE_ARB );

	push	32926					; 0000809eH
	call	DWORD PTR ?pglEnable@@3P6GXI@ZA		; pglEnable

; 393  : 	}
; 394  : 	else 

	jmp	SHORT $LN1@GL_AlphaTo
$LN3@GL_AlphaTo:

; 395  : 	{
; 396  : 		pglDisable( GL_SAMPLE_ALPHA_TO_COVERAGE_ARB );

	push	32926					; 0000809eH
	call	DWORD PTR ?pglDisable@@3P6GXI@ZA	; pglDisable
$LN1@GL_AlphaTo:

; 397  : 	}
; 398  : }

	pop	edi
	pop	esi
	pop	ebx
	mov	esp, ebp
	pop	ebp
	ret	0
?GL_AlphaToCoverage@@YAX_N@Z ENDP			; GL_AlphaToCoverage
_TEXT	ENDS
; Function compile flags: /Odtp /ZI
; File d:\!diffusion 2020\source code 2022\client-server\client\render\r_backend.cpp
;	COMDAT ?GL_CleanupAllTextureUnits@@YAXXZ
_TEXT	SEGMENT
?GL_CleanupAllTextureUnits@@YAXXZ PROC			; GL_CleanupAllTextureUnits, COMDAT

; 184  : {

	push	ebp
	mov	ebp, esp
	sub	esp, 64					; 00000040H
	push	ebx
	push	esi
	push	edi

; 185  : 	// force to cleanup all the units
; 186  : 	GL_SelectTexture( glConfig.max_texture_units - 1 );

	mov	eax, DWORD PTR ?glConfig@@3UglConfig_t@@A+52
	sub	eax, 1
	push	eax
	call	DWORD PTR ?gRenderfuncs@@3Urender_api_s@@A+136
	add	esp, 4

; 187  : 	GL_CleanUpTextureUnits( 0 );

	push	0
	call	DWORD PTR ?gRenderfuncs@@3Urender_api_s@@A+148
	add	esp, 4

; 188  : }

	pop	edi
	pop	esi
	pop	ebx
	mov	esp, ebp
	pop	ebp
	ret	0
?GL_CleanupAllTextureUnits@@YAXXZ ENDP			; GL_CleanupAllTextureUnits
_TEXT	ENDS
; Function compile flags: /Odtp /ZI
; File d:\!diffusion 2020\source code 2022\client-server\client\render\r_backend.cpp
;	COMDAT ?GL_CleanupDrawState@@YAXXZ
_TEXT	SEGMENT
?GL_CleanupDrawState@@YAXXZ PROC			; GL_CleanupDrawState, COMDAT

; 196  : {

	push	ebp
	mov	ebp, esp
	sub	esp, 64					; 00000040H
	push	ebx
	push	esi
	push	edi

; 197  : 	GL_CleanupAllTextureUnits();

	call	?GL_CleanupAllTextureUnits@@YAXXZ	; GL_CleanupAllTextureUnits

; 198  : 	pglBindVertexArray( GL_FALSE );

	push	0
	call	DWORD PTR ?pglBindVertexArray@@3P6GXI@ZA ; pglBindVertexArray

; 199  : 	pglBindBufferARB( GL_ARRAY_BUFFER_ARB, 0 );

	push	0
	push	34962					; 00008892H
	call	DWORD PTR ?pglBindBufferARB@@3P6GXII@ZA	; pglBindBufferARB

; 200  : 	GL_BindShader( NULL );

	push	0
	call	?GL_BindShader@@YAXPAUglsl_prog_s@@@Z	; GL_BindShader
	add	esp, 4

; 201  : }

	pop	edi
	pop	esi
	pop	ebx
	mov	esp, ebp
	pop	ebp
	ret	0
?GL_CleanupDrawState@@YAXXZ ENDP			; GL_CleanupDrawState
_TEXT	ENDS
; Function compile flags: /Odtp /ZI
; File d:\!diffusion 2020\source code 2022\client-server\client\render\r_backend.cpp
;	COMDAT ?GL_Setup3D@@YAXXZ
_TEXT	SEGMENT
?GL_Setup3D@@YAXXZ PROC					; GL_Setup3D, COMDAT

; 138  : {

	push	ebp
	mov	ebp, esp
	sub	esp, 72					; 00000048H
	push	ebx
	push	esi
	push	edi

; 139  : 	pglMatrixMode( GL_PROJECTION );

	push	5889					; 00001701H
	call	DWORD PTR ?pglMatrixMode@@3P6GXI@ZA	; pglMatrixMode

; 140  : 	GL_LoadMatrix( RI->projectionMatrix );

	mov	eax, DWORD PTR ?RI@@3PAUref_instance_t@@A ; RI
	add	eax, 556				; 0000022cH
	sub	esp, 64					; 00000040H
	mov	ecx, esp
	push	eax
	call	??0matrix4x4@@QAE@ABV0@@Z
	call	?GL_LoadMatrix@@YAXVmatrix4x4@@@Z	; GL_LoadMatrix
	add	esp, 64					; 00000040H

; 141  : 
; 142  : 	pglMatrixMode( GL_MODELVIEW );

	push	5888					; 00001700H
	call	DWORD PTR ?pglMatrixMode@@3P6GXI@ZA	; pglMatrixMode

; 143  : 	GL_LoadMatrix( RI->worldviewMatrix );

	mov	eax, DWORD PTR ?RI@@3PAUref_instance_t@@A ; RI
	add	eax, 428				; 000001acH
	sub	esp, 64					; 00000040H
	mov	ecx, esp
	push	eax
	call	??0matrix4x4@@QAE@ABV0@@Z
	call	?GL_LoadMatrix@@YAXVmatrix4x4@@@Z	; GL_LoadMatrix
	add	esp, 64					; 00000040H

; 144  : 
; 145  : 	pglEnable( GL_DEPTH_TEST );

	push	2929					; 00000b71H
	call	DWORD PTR ?pglEnable@@3P6GXI@ZA		; pglEnable

; 146  : 	GL_AlphaTest( GL_TRUE );

	push	1
	call	?GL_AlphaTest@@YAXH@Z			; GL_AlphaTest
	add	esp, 4

; 147  : 	GL_Blend( GL_TRUE );

	push	1
	call	?GL_Blend@@YAXH@Z			; GL_Blend
	add	esp, 4

; 148  : 	GL_DepthMask( GL_TRUE );

	push	1
	call	?GL_DepthMask@@YAXH@Z			; GL_DepthMask
	add	esp, 4

; 149  : 	GL_Cull( GL_FRONT );

	push	1028					; 00000404H
	call	?GL_Cull@@YAXI@Z			; GL_Cull
	add	esp, 4

; 150  : }

	pop	edi
	pop	esi
	pop	ebx
	mov	esp, ebp
	pop	ebp
	ret	0
?GL_Setup3D@@YAXXZ ENDP					; GL_Setup3D
_TEXT	ENDS
; Function compile flags: /Odtp /ZI
; File d:\!diffusion 2020\source code 2022\client-server\client\render\r_backend.cpp
;	COMDAT ?GL_Setup2D@@YAXXZ
_TEXT	SEGMENT
?GL_Setup2D@@YAXXZ PROC					; GL_Setup2D, COMDAT

; 112  : {

	push	ebp
	mov	ebp, esp
	sub	esp, 64					; 00000040H
	push	ebx
	push	esi
	push	edi

; 113  : 	// set up full screen workspace
; 114  : 	pglMatrixMode( GL_PROJECTION );

	push	5889					; 00001701H
	call	DWORD PTR ?pglMatrixMode@@3P6GXI@ZA	; pglMatrixMode

; 115  : 	pglLoadIdentity();

	call	DWORD PTR ?pglLoadIdentity@@3P6GXXZA	; pglLoadIdentity

; 116  : 
; 117  : 	pglOrtho( 0, glState.width, glState.height, 0, -99999, 99999 );

	sub	esp, 8
	movsd	xmm0, QWORD PTR __real@40f869f000000000
	movsd	QWORD PTR [esp], xmm0
	sub	esp, 8
	movsd	xmm0, QWORD PTR __real@c0f869f000000000
	movsd	QWORD PTR [esp], xmm0
	sub	esp, 8
	xorps	xmm0, xmm0
	movsd	QWORD PTR [esp], xmm0
	cvtsi2sd xmm0, DWORD PTR ?glState@@3UglState_t@@A+4
	sub	esp, 8
	movsd	QWORD PTR [esp], xmm0
	cvtsi2sd xmm0, DWORD PTR ?glState@@3UglState_t@@A
	sub	esp, 8
	movsd	QWORD PTR [esp], xmm0
	sub	esp, 8
	xorps	xmm0, xmm0
	movsd	QWORD PTR [esp], xmm0
	call	DWORD PTR ?pglOrtho@@3P6GXNNNNNN@ZA	; pglOrtho

; 118  : 
; 119  : 	pglMatrixMode( GL_MODELVIEW );

	push	5888					; 00001700H
	call	DWORD PTR ?pglMatrixMode@@3P6GXI@ZA	; pglMatrixMode

; 120  : 	pglLoadIdentity();

	call	DWORD PTR ?pglLoadIdentity@@3P6GXXZA	; pglLoadIdentity

; 121  : 
; 122  : 	pglDisable( GL_DEPTH_TEST );

	push	2929					; 00000b71H
	call	DWORD PTR ?pglDisable@@3P6GXI@ZA	; pglDisable

; 123  : 	GL_AlphaTest( GL_FALSE );

	push	0
	call	?GL_AlphaTest@@YAXH@Z			; GL_AlphaTest
	add	esp, 4

; 124  : 	GL_DepthMask( GL_FALSE );

	push	0
	call	?GL_DepthMask@@YAXH@Z			; GL_DepthMask
	add	esp, 4

; 125  : 	GL_Blend( GL_FALSE );

	push	0
	call	?GL_Blend@@YAXH@Z			; GL_Blend
	add	esp, 4

; 126  : 
; 127  : 	GL_Cull( GL_FRONT );

	push	1028					; 00000404H
	call	?GL_Cull@@YAXI@Z			; GL_Cull
	add	esp, 4

; 128  : 	pglColor4f( 1.0f, 1.0f, 1.0f, 1.0f );

	push	ecx
	movss	xmm0, DWORD PTR __real@3f800000
	movss	DWORD PTR [esp], xmm0
	push	ecx
	movss	xmm0, DWORD PTR __real@3f800000
	movss	DWORD PTR [esp], xmm0
	push	ecx
	movss	xmm0, DWORD PTR __real@3f800000
	movss	DWORD PTR [esp], xmm0
	push	ecx
	movss	xmm0, DWORD PTR __real@3f800000
	movss	DWORD PTR [esp], xmm0
	call	DWORD PTR ?pglColor4f@@3P6GXMMMM@ZA	; pglColor4f

; 129  : 	pglViewport( 0, 0, glState.width, glState.height );

	mov	eax, DWORD PTR ?glState@@3UglState_t@@A+4
	push	eax
	mov	ecx, DWORD PTR ?glState@@3UglState_t@@A
	push	ecx
	push	0
	push	0
	call	DWORD PTR ?pglViewport@@3P6GXHHHH@ZA	; pglViewport

; 130  : }

	pop	edi
	pop	esi
	pop	ebx
	mov	esp, ebp
	pop	ebp
	ret	0
?GL_Setup2D@@YAXXZ ENDP					; GL_Setup2D
_TEXT	ENDS
; Function compile flags: /Odtp /ZI
; File d:\!diffusion 2020\source code 2022\client-server\client\render\r_backend.cpp
;	COMDAT ?GL_BindFBO@@YAXH@Z
_TEXT	SEGMENT
_buffer$ = 8						; size = 4
?GL_BindFBO@@YAXH@Z PROC				; GL_BindFBO, COMDAT

; 366  : {

	push	ebp
	mov	ebp, esp
	sub	esp, 64					; 00000040H
	push	ebx
	push	esi
	push	edi

; 367  : 	if( !GL_Support( R_FRAMEBUFFER_OBJECT ))

	push	20					; 00000014H
	call	?GL_Support@@YA_NH@Z			; GL_Support
	add	esp, 4
	movzx	eax, al
	test	eax, eax
	jne	SHORT $LN2@GL_BindFBO

; 368  : 		return;

	jmp	SHORT $LN1@GL_BindFBO
$LN2@GL_BindFBO:

; 369  : 
; 370  : 	if( glState.frameBuffer == buffer )

	mov	eax, DWORD PTR ?glState@@3UglState_t@@A+24
	cmp	eax, DWORD PTR _buffer$[ebp]
	jne	SHORT $LN3@GL_BindFBO

; 371  : 		return;

	jmp	SHORT $LN1@GL_BindFBO
$LN3@GL_BindFBO:

; 372  : 
; 373  : 	if( buffer < 0 )

	cmp	DWORD PTR _buffer$[ebp], 0
	jge	SHORT $LN4@GL_BindFBO

; 374  : 	{
; 375  : 		pglBindFramebuffer( GL_FRAMEBUFFER_EXT, 0 );

	push	0
	push	36160					; 00008d40H
	call	DWORD PTR ?pglBindFramebuffer@@3P6GXII@ZA ; pglBindFramebuffer

; 376  : 		glState.frameBuffer = buffer;

	mov	eax, DWORD PTR _buffer$[ebp]
	mov	DWORD PTR ?glState@@3UglState_t@@A+24, eax

; 377  : 		return;

	jmp	SHORT $LN1@GL_BindFBO
$LN4@GL_BindFBO:

; 378  : 	}
; 379  : 
; 380  : 	pglBindFramebuffer( GL_FRAMEBUFFER_EXT, buffer );

	mov	eax, DWORD PTR _buffer$[ebp]
	push	eax
	push	36160					; 00008d40H
	call	DWORD PTR ?pglBindFramebuffer@@3P6GXII@ZA ; pglBindFramebuffer

; 381  : 	glState.frameBuffer = buffer;

	mov	eax, DWORD PTR _buffer$[ebp]
	mov	DWORD PTR ?glState@@3UglState_t@@A+24, eax
$LN1@GL_BindFBO:

; 382  : }

	pop	edi
	pop	esi
	pop	ebx
	mov	esp, ebp
	pop	ebp
	ret	0
?GL_BindFBO@@YAXH@Z ENDP				; GL_BindFBO
_TEXT	ENDS
; Function compile flags: /Odtp /ZI
; File d:\!diffusion 2020\source code 2022\client-server\client\render\r_backend.cpp
;	COMDAT ?GL_Blend@@YAXH@Z
_TEXT	SEGMENT
_enable$ = 8						; size = 4
?GL_Blend@@YAXH@Z PROC					; GL_Blend, COMDAT

; 64   : {

	push	ebp
	mov	ebp, esp
	sub	esp, 64					; 00000040H
	push	ebx
	push	esi
	push	edi

; 65   : 	if( pglIsEnabled( GL_BLEND ) == enable )

	push	3042					; 00000be2H
	call	DWORD PTR ?pglIsEnabled@@3P6GEI@ZA	; pglIsEnabled
	movzx	eax, al
	cmp	eax, DWORD PTR _enable$[ebp]
	jne	SHORT $LN2@GL_Blend

; 66   : 		return;

	jmp	SHORT $LN1@GL_Blend
$LN2@GL_Blend:

; 67   : 
; 68   : 	if( enable ) pglEnable( GL_BLEND );

	cmp	DWORD PTR _enable$[ebp], 0
	je	SHORT $LN3@GL_Blend
	push	3042					; 00000be2H
	call	DWORD PTR ?pglEnable@@3P6GXI@ZA		; pglEnable
	jmp	SHORT $LN1@GL_Blend
$LN3@GL_Blend:

; 69   : 	else pglDisable( GL_BLEND );

	push	3042					; 00000be2H
	call	DWORD PTR ?pglDisable@@3P6GXI@ZA	; pglDisable
$LN1@GL_Blend:

; 70   : }

	pop	edi
	pop	esi
	pop	ebx
	mov	esp, ebp
	pop	ebp
	ret	0
?GL_Blend@@YAXH@Z ENDP					; GL_Blend
_TEXT	ENDS
; Function compile flags: /Odtp /ZI
; File d:\!diffusion 2020\source code 2022\client-server\client\render\r_backend.cpp
;	COMDAT ?GL_AlphaTest@@YAXH@Z
_TEXT	SEGMENT
_enable$ = 8						; size = 4
?GL_AlphaTest@@YAXH@Z PROC				; GL_AlphaTest, COMDAT

; 46   : {

	push	ebp
	mov	ebp, esp
	sub	esp, 64					; 00000040H
	push	ebx
	push	esi
	push	edi

; 47   : 	if( pglIsEnabled( GL_ALPHA_TEST ) == enable )

	push	3008					; 00000bc0H
	call	DWORD PTR ?pglIsEnabled@@3P6GEI@ZA	; pglIsEnabled
	movzx	eax, al
	cmp	eax, DWORD PTR _enable$[ebp]
	jne	SHORT $LN2@GL_AlphaTe

; 48   : 		return;

	jmp	SHORT $LN1@GL_AlphaTe
$LN2@GL_AlphaTe:

; 49   : 
; 50   : 	if( enable ) pglEnable( GL_ALPHA_TEST );

	cmp	DWORD PTR _enable$[ebp], 0
	je	SHORT $LN3@GL_AlphaTe
	push	3008					; 00000bc0H
	call	DWORD PTR ?pglEnable@@3P6GXI@ZA		; pglEnable
	jmp	SHORT $LN1@GL_AlphaTe
$LN3@GL_AlphaTe:

; 51   : 	else pglDisable( GL_ALPHA_TEST );

	push	3008					; 00000bc0H
	call	DWORD PTR ?pglDisable@@3P6GXI@ZA	; pglDisable
$LN1@GL_AlphaTe:

; 52   : #if 0
; 53   : 	if( enable ) pglEnable( GL_SAMPLE_ALPHA_TO_COVERAGE_ARB );
; 54   : 	else pglDisable( GL_SAMPLE_ALPHA_TO_COVERAGE_ARB );
; 55   : #endif
; 56   : }

	pop	edi
	pop	esi
	pop	ebx
	mov	esp, ebp
	pop	ebp
	ret	0
?GL_AlphaTest@@YAXH@Z ENDP				; GL_AlphaTest
_TEXT	ENDS
; Function compile flags: /Odtp /ZI
; File d:\!diffusion 2020\source code 2022\client-server\client\render\r_backend.cpp
;	COMDAT ?GL_DepthMask@@YAXH@Z
_TEXT	SEGMENT
_enable$ = 8						; size = 4
?GL_DepthMask@@YAXH@Z PROC				; GL_DepthMask, COMDAT

; 32   : {

	push	ebp
	mov	ebp, esp
	sub	esp, 64					; 00000040H
	push	ebx
	push	esi
	push	edi

; 33   : 	if( glState.depthmask == enable )

	mov	eax, DWORD PTR ?glState@@3UglState_t@@A+28
	cmp	eax, DWORD PTR _enable$[ebp]
	jne	SHORT $LN2@GL_DepthMa

; 34   : 		return;

	jmp	SHORT $LN1@GL_DepthMa
$LN2@GL_DepthMa:

; 35   : 
; 36   : 	glState.depthmask = enable;

	mov	eax, DWORD PTR _enable$[ebp]
	mov	DWORD PTR ?glState@@3UglState_t@@A+28, eax

; 37   : 	pglDepthMask( enable );

	movzx	eax, BYTE PTR _enable$[ebp]
	push	eax
	call	DWORD PTR ?pglDepthMask@@3P6GXE@ZA	; pglDepthMask
$LN1@GL_DepthMa:

; 38   : }

	pop	edi
	pop	esi
	pop	ebx
	mov	esp, ebp
	pop	ebp
	ret	0
?GL_DepthMask@@YAXH@Z ENDP				; GL_DepthMask
_TEXT	ENDS
; Function compile flags: /Odtp /ZI
; File d:\!diffusion 2020\source code 2022\client-server\client\render\r_backend.cpp
;	COMDAT ?R_FreeFrameBuffer@@YAXH@Z
_TEXT	SEGMENT
_fbo$ = -4						; size = 4
_buffer$ = 8						; size = 4
?R_FreeFrameBuffer@@YAXH@Z PROC				; R_FreeFrameBuffer, COMDAT

; 316  : {

	push	ebp
	mov	ebp, esp
	sub	esp, 68					; 00000044H
	push	ebx
	push	esi
	push	edi

; 317  : 	if( buffer < 0 || buffer >= MAX_FRAMEBUFFERS )

	cmp	DWORD PTR _buffer$[ebp], 0
	jl	SHORT $LN3@R_FreeFram
	cmp	DWORD PTR _buffer$[ebp], 64		; 00000040H
	jl	SHORT $LN2@R_FreeFram
$LN3@R_FreeFram:

; 318  : 	{
; 319  : 		ALERT( at_error, "R_FreeFrameBuffer: invalid buffer enum %i\n", buffer );

	mov	eax, DWORD PTR _buffer$[ebp]
	push	eax
	push	OFFSET ??_C@_0CL@OGOAONON@R_FreeFrameBuffer?3?5invalid?5buffe@
	push	4
	call	?ALERT@@YAXW4ALERT_TYPE@@PADZZ		; ALERT
	add	esp, 12					; 0000000cH

; 320  : 		return;

	jmp	SHORT $LN1@R_FreeFram
$LN2@R_FreeFram:

; 321  : 	}
; 322  : 
; 323  : 	gl_fbo_t *fbo = &tr.frame_buffers[buffer];

	mov	eax, DWORD PTR _buffer$[ebp]
	shl	eax, 4
	add	eax, OFFSET ?tr@@3Uref_globals_t@@A+5864
	mov	DWORD PTR _fbo$[ebp], eax

; 324  : 
; 325  : 	pglDeleteRenderbuffers( 1, &fbo->renderbuffer );

	mov	eax, DWORD PTR _fbo$[ebp]
	add	eax, 8
	push	eax
	push	1
	call	DWORD PTR ?pglDeleteRenderbuffers@@3P6GXHPBI@ZA ; pglDeleteRenderbuffers

; 326  : 	pglDeleteFramebuffers( 1, &fbo->framebuffer );

	mov	eax, DWORD PTR _fbo$[ebp]
	add	eax, 4
	push	eax
	push	1
	call	DWORD PTR ?pglDeleteFramebuffers@@3P6GXHPBI@ZA ; pglDeleteFramebuffers

; 327  : 	memset( fbo, 0, sizeof( *fbo ));

	push	16					; 00000010H
	push	0
	mov	eax, DWORD PTR _fbo$[ebp]
	push	eax
	call	_memset
	add	esp, 12					; 0000000cH
$LN1@R_FreeFram:

; 328  : }

	pop	edi
	pop	esi
	pop	ebx
	mov	esp, ebp
	pop	ebp
	ret	0
?R_FreeFrameBuffer@@YAXH@Z ENDP				; R_FreeFrameBuffer
_TEXT	ENDS
; Function compile flags: /Odtp /ZI
; File d:\!diffusion 2020\source code 2022\client-server\client\render\r_backend.cpp
;	COMDAT ?GL_BindFrameBuffer@@YAXHH@Z
_TEXT	SEGMENT
_texnum$1 = -8						; size = 4
_fbo$ = -4						; size = 4
_buffer$ = 8						; size = 4
_texture$ = 12						; size = 4
?GL_BindFrameBuffer@@YAXHH@Z PROC			; GL_BindFrameBuffer, COMDAT

; 331  : {

	push	ebp
	mov	ebp, esp
	sub	esp, 72					; 00000048H
	push	ebx
	push	esi
	push	edi

; 332  : 	gl_fbo_t *fbo = NULL;

	mov	DWORD PTR _fbo$[ebp], 0

; 333  : 
; 334  : 	if( buffer >= 0 && buffer < MAX_FRAMEBUFFERS )

	cmp	DWORD PTR _buffer$[ebp], 0
	jl	SHORT $LN2@GL_BindFra
	cmp	DWORD PTR _buffer$[ebp], 64		; 00000040H
	jge	SHORT $LN2@GL_BindFra

; 335  : 		fbo = &tr.frame_buffers[buffer];

	mov	eax, DWORD PTR _buffer$[ebp]
	shl	eax, 4
	add	eax, OFFSET ?tr@@3Uref_globals_t@@A+5864
	mov	DWORD PTR _fbo$[ebp], eax
$LN2@GL_BindFra:

; 336  : 
; 337  : 	if( !fbo )

	cmp	DWORD PTR _fbo$[ebp], 0
	jne	SHORT $LN3@GL_BindFra

; 338  : 	{
; 339  : 		pglBindFramebuffer( GL_FRAMEBUFFER_EXT, 0 );

	push	0
	push	36160					; 00008d40H
	call	DWORD PTR ?pglBindFramebuffer@@3P6GXII@ZA ; pglBindFramebuffer

; 340  : 		glState.frameBuffer = buffer;

	mov	eax, DWORD PTR _buffer$[ebp]
	mov	DWORD PTR ?glState@@3UglState_t@@A+24, eax

; 341  : 		return;

	jmp	SHORT $LN1@GL_BindFra
$LN3@GL_BindFra:

; 342  : 	}
; 343  : 
; 344  : 	// at this point FBO index is always positive
; 345  : 	if((unsigned int)glState.frameBuffer != fbo->framebuffer )

	mov	eax, DWORD PTR _fbo$[ebp]
	mov	ecx, DWORD PTR ?glState@@3UglState_t@@A+24
	cmp	ecx, DWORD PTR [eax+4]
	je	SHORT $LN4@GL_BindFra

; 346  : 	{
; 347  : 		pglBindFramebuffer( GL_FRAMEBUFFER_EXT, fbo->framebuffer );

	mov	eax, DWORD PTR _fbo$[ebp]
	mov	ecx, DWORD PTR [eax+4]
	push	ecx
	push	36160					; 00008d40H
	call	DWORD PTR ?pglBindFramebuffer@@3P6GXII@ZA ; pglBindFramebuffer

; 348  : 		glState.frameBuffer = fbo->framebuffer;

	mov	eax, DWORD PTR _fbo$[ebp]
	mov	ecx, DWORD PTR [eax+4]
	mov	DWORD PTR ?glState@@3UglState_t@@A+24, ecx
$LN4@GL_BindFra:

; 349  : 	}		
; 350  : 
; 351  : 	if( fbo->texture != texture )

	mov	eax, DWORD PTR _fbo$[ebp]
	mov	ecx, DWORD PTR [eax+12]
	cmp	ecx, DWORD PTR _texture$[ebp]
	je	SHORT $LN1@GL_BindFra

; 352  : 	{
; 353  : 		// change texture attachment
; 354  : 		GLuint texnum = RENDER_GET_PARM( PARM_TEX_TEXNUM, texture );

	mov	eax, DWORD PTR _texture$[ebp]
	push	eax
	push	9
	call	DWORD PTR ?gRenderfuncs@@3Urender_api_s@@A
	add	esp, 8
	mov	DWORD PTR _texnum$1[ebp], eax

; 355  : 		pglFramebufferTexture2D( GL_FRAMEBUFFER_EXT, GL_COLOR_ATTACHMENT0_EXT, GL_TEXTURE_2D, texnum, 0 );

	push	0
	mov	eax, DWORD PTR _texnum$1[ebp]
	push	eax
	push	3553					; 00000de1H
	push	36064					; 00008ce0H
	push	36160					; 00008d40H
	call	DWORD PTR ?pglFramebufferTexture2D@@3P6GXIIIIH@ZA ; pglFramebufferTexture2D

; 356  : 		fbo->texture = texture;

	mov	eax, DWORD PTR _fbo$[ebp]
	mov	ecx, DWORD PTR _texture$[ebp]
	mov	DWORD PTR [eax+12], ecx
$LN1@GL_BindFra:

; 357  : 	}
; 358  : }

	pop	edi
	pop	esi
	pop	ebx
	mov	esp, ebp
	pop	ebp
	ret	0
?GL_BindFrameBuffer@@YAXHH@Z ENDP			; GL_BindFrameBuffer
_TEXT	ENDS
; Function compile flags: /Odtp /ZI
; File d:\!diffusion 2020\source code 2022\client-server\client\render\r_backend.cpp
;	COMDAT ?R_AllocFrameBuffer@@YAHQAH@Z
_TEXT	SEGMENT
_fbo$ = -8						; size = 4
_i$ = -4						; size = 4
_viewport$ = 8						; size = 4
?R_AllocFrameBuffer@@YAHQAH@Z PROC			; R_AllocFrameBuffer, COMDAT

; 279  : {

	push	ebp
	mov	ebp, esp
	sub	esp, 72					; 00000048H
	push	ebx
	push	esi
	push	edi

; 280  : 	int i = tr.num_framebuffers;

	mov	eax, DWORD PTR ?tr@@3Uref_globals_t@@A+6888
	mov	DWORD PTR _i$[ebp], eax

; 281  : 
; 282  : 	if( i >= MAX_FRAMEBUFFERS )

	cmp	DWORD PTR _i$[ebp], 64			; 00000040H
	jl	SHORT $LN2@R_AllocFra

; 283  : 	{
; 284  : 		ALERT( at_error, "R_AllocateFrameBuffer: FBO limit exceeded!\n" );

	push	OFFSET ??_C@_0CM@IABABCPC@R_AllocateFrameBuffer?3?5FBO?5limit@
	push	4
	call	?ALERT@@YAXW4ALERT_TYPE@@PADZZ		; ALERT
	add	esp, 8

; 285  : 		return -1; // disable

	or	eax, -1
	jmp	$LN1@R_AllocFra
$LN2@R_AllocFra:

; 286  : 	}
; 287  : 
; 288  : 	gl_fbo_t *fbo = &tr.frame_buffers[i];

	mov	eax, DWORD PTR _i$[ebp]
	shl	eax, 4
	add	eax, OFFSET ?tr@@3Uref_globals_t@@A+5864
	mov	DWORD PTR _fbo$[ebp], eax

; 289  : 	tr.num_framebuffers++;

	mov	eax, DWORD PTR ?tr@@3Uref_globals_t@@A+6888
	add	eax, 1
	mov	DWORD PTR ?tr@@3Uref_globals_t@@A+6888, eax

; 290  : 
; 291  : 	if( fbo->init )

	mov	eax, DWORD PTR _fbo$[ebp]
	movzx	ecx, BYTE PTR [eax]
	test	ecx, ecx
	je	SHORT $LN3@R_AllocFra

; 292  : 	{
; 293  : 		ALERT( at_warning, "R_AllocFrameBuffer: buffer %i already initialized\n", i );

	mov	eax, DWORD PTR _i$[ebp]
	push	eax
	push	OFFSET ??_C@_0DD@LCIFABMM@R_AllocFrameBuffer?3?5buffer?5?$CFi?5al@
	push	3
	call	?ALERT@@YAXW4ALERT_TYPE@@PADZZ		; ALERT
	add	esp, 12					; 0000000cH

; 294  : 		return i;

	mov	eax, DWORD PTR _i$[ebp]
	jmp	$LN1@R_AllocFra
$LN3@R_AllocFra:

; 295  : 	}
; 296  : 
; 297  : 	// create a depth-buffer
; 298  : 	pglGenRenderbuffers( 1, &fbo->renderbuffer );

	mov	eax, DWORD PTR _fbo$[ebp]
	add	eax, 8
	push	eax
	push	1
	call	DWORD PTR ?pglGenRenderbuffers@@3P6GXHPAI@ZA ; pglGenRenderbuffers

; 299  : 	pglBindRenderbuffer( GL_RENDERBUFFER_EXT, fbo->renderbuffer );

	mov	eax, DWORD PTR _fbo$[ebp]
	mov	ecx, DWORD PTR [eax+8]
	push	ecx
	push	36161					; 00008d41H
	call	DWORD PTR ?pglBindRenderbuffer@@3P6GXII@ZA ; pglBindRenderbuffer

; 300  : 	pglRenderbufferStorage( GL_RENDERBUFFER_EXT, GL_DEPTH_COMPONENT24, viewport[2], viewport[3] );

	mov	eax, 4
	imul	ecx, eax, 3
	mov	edx, DWORD PTR _viewport$[ebp]
	mov	eax, DWORD PTR [edx+ecx]
	push	eax
	mov	ecx, 4
	shl	ecx, 1
	mov	edx, DWORD PTR _viewport$[ebp]
	mov	eax, DWORD PTR [edx+ecx]
	push	eax
	push	33190					; 000081a6H
	push	36161					; 00008d41H
	call	DWORD PTR ?pglRenderbufferStorage@@3P6GXIIHH@ZA ; pglRenderbufferStorage

; 301  : 	pglBindRenderbuffer( GL_RENDERBUFFER_EXT, 0 );

	push	0
	push	36161					; 00008d41H
	call	DWORD PTR ?pglBindRenderbuffer@@3P6GXII@ZA ; pglBindRenderbuffer

; 302  : 
; 303  : 	// create frame-buffer
; 304  : 	pglGenFramebuffers( 1, &fbo->framebuffer );

	mov	eax, DWORD PTR _fbo$[ebp]
	add	eax, 4
	push	eax
	push	1
	call	DWORD PTR ?pglGenFramebuffers@@3P6GXHPAI@ZA ; pglGenFramebuffers

; 305  : 	pglBindFramebuffer( GL_FRAMEBUFFER_EXT, fbo->framebuffer );

	mov	eax, DWORD PTR _fbo$[ebp]
	mov	ecx, DWORD PTR [eax+4]
	push	ecx
	push	36160					; 00008d40H
	call	DWORD PTR ?pglBindFramebuffer@@3P6GXII@ZA ; pglBindFramebuffer

; 306  : 	pglFramebufferRenderbuffer( GL_FRAMEBUFFER_EXT, GL_DEPTH_ATTACHMENT_EXT, GL_RENDERBUFFER_EXT, fbo->renderbuffer );

	mov	eax, DWORD PTR _fbo$[ebp]
	mov	ecx, DWORD PTR [eax+8]
	push	ecx
	push	36161					; 00008d41H
	push	36096					; 00008d00H
	push	36160					; 00008d40H
	call	DWORD PTR ?pglFramebufferRenderbuffer@@3P6GXIIII@ZA ; pglFramebufferRenderbuffer

; 307  : 	pglDrawBuffer( GL_COLOR_ATTACHMENT0_EXT );

	push	36064					; 00008ce0H
	call	DWORD PTR ?pglDrawBuffer@@3P6GXI@ZA	; pglDrawBuffer

; 308  : 	pglReadBuffer( GL_COLOR_ATTACHMENT0_EXT );

	push	36064					; 00008ce0H
	call	DWORD PTR ?pglReadBuffer@@3P6GXI@ZA	; pglReadBuffer

; 309  : 	pglBindFramebuffer( GL_FRAMEBUFFER_EXT, 0 );

	push	0
	push	36160					; 00008d40H
	call	DWORD PTR ?pglBindFramebuffer@@3P6GXII@ZA ; pglBindFramebuffer

; 310  : 	fbo->init = true;

	mov	eax, DWORD PTR _fbo$[ebp]
	mov	BYTE PTR [eax], 1

; 311  : 
; 312  : 	return i;

	mov	eax, DWORD PTR _i$[ebp]
$LN1@R_AllocFra:

; 313  : }

	pop	edi
	pop	esi
	pop	ebx
	mov	esp, ebp
	pop	ebp
	ret	0
?R_AllocFrameBuffer@@YAHQAH@Z ENDP			; R_AllocFrameBuffer
_TEXT	ENDS
; Function compile flags: /Odtp /ZI
; File d:\!diffusion 2020\source code 2022\client-server\client\render\r_backend.cpp
;	COMDAT ?R_GetSpriteTexture@@YAHPBUmodel_s@@H@Z
_TEXT	SEGMENT
_m_pSpriteModel$ = 8					; size = 4
_frame$ = 12						; size = 4
?R_GetSpriteTexture@@YAHPBUmodel_s@@H@Z PROC		; R_GetSpriteTexture, COMDAT

; 19   : {

	push	ebp
	mov	ebp, esp
	sub	esp, 64					; 00000040H
	push	ebx
	push	esi
	push	edi

; 20   : 	if( !m_pSpriteModel || m_pSpriteModel->type != mod_sprite || !m_pSpriteModel->cache.data )

	cmp	DWORD PTR _m_pSpriteModel$[ebp], 0
	je	SHORT $LN3@R_GetSprit
	mov	eax, DWORD PTR _m_pSpriteModel$[ebp]
	cmp	DWORD PTR [eax+68], 1
	jne	SHORT $LN3@R_GetSprit
	mov	eax, DWORD PTR _m_pSpriteModel$[ebp]
	cmp	DWORD PTR [eax+388], 0
	jne	SHORT $LN2@R_GetSprit
$LN3@R_GetSprit:

; 21   : 		return 0;

	xor	eax, eax
	jmp	SHORT $LN1@R_GetSprit
$LN2@R_GetSprit:

; 22   : 
; 23   : 	return R_GetSpriteFrame( m_pSpriteModel, frame )->gl_texturenum;

	mov	eax, DWORD PTR _frame$[ebp]
	push	eax
	mov	ecx, DWORD PTR _m_pSpriteModel$[ebp]
	push	ecx
	call	?R_GetSpriteFrame@@YAPAUmspriteframe_s@@PBUmodel_s@@H@Z ; R_GetSpriteFrame
	add	esp, 8
	mov	eax, DWORD PTR [eax+24]
$LN1@R_GetSprit:

; 24   : }

	pop	edi
	pop	esi
	pop	ebx
	mov	esp, ebp
	pop	ebp
	ret	0
?R_GetSpriteTexture@@YAHPBUmodel_s@@H@Z ENDP		; R_GetSpriteTexture
_TEXT	ENDS
; Function compile flags: /Odtp /ZI
; File d:\!diffusion 2020\source code 2022\client-server\client\render\r_backend.cpp
;	COMDAT ?R_EndDrawProjectionGLSL@@YAXXZ
_TEXT	SEGMENT
?R_EndDrawProjectionGLSL@@YAXXZ PROC			; R_EndDrawProjectionGLSL, COMDAT

; 267  : {

	push	ebp
	mov	ebp, esp
	sub	esp, 64					; 00000040H
	push	ebx
	push	esi
	push	edi

; 268  : 	GL_BindShader( NULL );

	push	0
	call	?GL_BindShader@@YAXPAUglsl_prog_s@@@Z	; GL_BindShader
	add	esp, 4

; 269  : 
; 270  : 	GL_SelectTexture( glConfig.max_texture_units - 1 ); // force to cleanup all the units

	mov	eax, DWORD PTR ?glConfig@@3UglConfig_t@@A+52
	sub	eax, 1
	push	eax
	call	DWORD PTR ?gRenderfuncs@@3Urender_api_s@@A+136
	add	esp, 4

; 271  : 	GL_CleanUpTextureUnits( 0 );

	push	0
	call	DWORD PTR ?gRenderfuncs@@3Urender_api_s@@A+148
	add	esp, 4

; 272  : 	pglDisable( GL_SCISSOR_TEST );

	push	3089					; 00000c11H
	call	DWORD PTR ?pglDisable@@3P6GXI@ZA	; pglDisable

; 273  : 	pglDepthFunc( GL_LEQUAL );

	push	515					; 00000203H
	call	DWORD PTR ?pglDepthFunc@@3P6GXI@ZA	; pglDepthFunc

; 274  : 	RI->currentlight = NULL;

	mov	eax, DWORD PTR ?RI@@3PAUref_instance_t@@A ; RI
	mov	DWORD PTR [eax+24], 0

; 275  : 	GL_Blend( GL_FALSE );

	push	0
	call	?GL_Blend@@YAXH@Z			; GL_Blend
	add	esp, 4

; 276  : }

	pop	edi
	pop	esi
	pop	ebx
	mov	esp, ebp
	pop	ebp
	ret	0
?R_EndDrawProjectionGLSL@@YAXXZ ENDP			; R_EndDrawProjectionGLSL
_TEXT	ENDS
; Function compile flags: /Odtp /ZI
; File d:\!diffusion 2020\source code 2022\client-server\client\render\r_backend.cpp
;	COMDAT ?R_BeginDrawProjectionGLSL@@YA_NPAUplight_s@@M@Z
_TEXT	SEGMENT
_shadowHeight$ = -96					; size = 4
_shadowWidth$ = -92					; size = 4
_lightdir$ = -88					; size = 12
_y2$ = -76						; size = 4
_gl_lightViewProjMatrix$ = -72				; size = 64
_shaderNum$ = -8					; size = 2
__$ArrayPad$ = -4					; size = 4
_pl$ = 8						; size = 4
_lightscale$ = 12					; size = 4
?R_BeginDrawProjectionGLSL@@YA_NPAUplight_s@@M@Z PROC	; R_BeginDrawProjectionGLSL, COMDAT

; 211  : {

	push	ebp
	mov	ebp, esp
	sub	esp, 160				; 000000a0H
	mov	eax, DWORD PTR ___security_cookie
	xor	eax, ebp
	mov	DWORD PTR __$ArrayPad$[ebp], eax
	push	ebx
	push	esi
	push	edi

; 212  : 	word shaderNum = GL_UberShaderForDlightGeneric( pl );

	mov	eax, DWORD PTR _pl$[ebp]
	push	eax
	call	?GL_UberShaderForDlightGeneric@@YAGPBUplight_s@@@Z ; GL_UberShaderForDlightGeneric
	add	esp, 4
	mov	WORD PTR _shaderNum$[ebp], ax

; 213  : 	GLfloat	gl_lightViewProjMatrix[16];
; 214  : 
; 215  : 	if( !shaderNum || tr.nodlights )

	movzx	eax, WORD PTR _shaderNum$[ebp]
	test	eax, eax
	je	SHORT $LN3@R_BeginDra
	movzx	eax, BYTE PTR ?tr@@3Uref_globals_t@@A+5835056
	test	eax, eax
	je	SHORT $LN2@R_BeginDra
$LN3@R_BeginDra:

; 216  : 		return false;

	xor	al, al
	jmp	$LN1@R_BeginDra
$LN2@R_BeginDra:

; 217  : 
; 218  : 	GL_Blend( GL_TRUE );

	push	1
	call	?GL_Blend@@YAXH@Z			; GL_Blend
	add	esp, 4

; 219  : 	GL_AlphaTest( GL_FALSE );

	push	0
	call	?GL_AlphaTest@@YAXH@Z			; GL_AlphaTest
	add	esp, 4

; 220  : 	GL_DepthMask( GL_FALSE );

	push	0
	call	?GL_DepthMask@@YAXH@Z			; GL_DepthMask
	add	esp, 4

; 221  : 	pglBlendFunc( GL_ONE, GL_ONE );

	push	1
	push	1
	call	DWORD PTR ?pglBlendFunc@@3P6GXII@ZA	; pglBlendFunc

; 222  : 	pglEnable( GL_SCISSOR_TEST );

	push	3089					; 00000c11H
	call	DWORD PTR ?pglEnable@@3P6GXI@ZA		; pglEnable

; 223  : 
; 224  : 	if( glState.drawTrans )

	cmp	DWORD PTR ?glState@@3UglState_t@@A+32, 0
	je	SHORT $LN4@R_BeginDra

; 225  : 		pglDepthFunc( GL_LEQUAL );

	push	515					; 00000203H
	call	DWORD PTR ?pglDepthFunc@@3P6GXI@ZA	; pglDepthFunc
	jmp	SHORT $LN5@R_BeginDra
$LN4@R_BeginDra:

; 226  : 	else pglDepthFunc( GL_LEQUAL );

	push	515					; 00000203H
	call	DWORD PTR ?pglDepthFunc@@3P6GXI@ZA	; pglDepthFunc
$LN5@R_BeginDra:

; 227  : 	RI->currentlight = pl;

	mov	eax, DWORD PTR ?RI@@3PAUref_instance_t@@A ; RI
	mov	ecx, DWORD PTR _pl$[ebp]
	mov	DWORD PTR [eax+24], ecx

; 228  : 
; 229  : 	float y2 = (float)RI->viewport[3] - pl->h - pl->y;

	mov	eax, 4
	imul	ecx, eax, 3
	mov	edx, DWORD PTR ?RI@@3PAUref_instance_t@@A ; RI
	cvtsi2ss xmm0, DWORD PTR [edx+ecx+32]
	mov	eax, DWORD PTR _pl$[ebp]
	subss	xmm0, DWORD PTR [eax+736]
	mov	ecx, DWORD PTR _pl$[ebp]
	subss	xmm0, DWORD PTR [ecx+728]
	movss	DWORD PTR _y2$[ebp], xmm0

; 230  : 	pglScissor( pl->x, y2, pl->w, pl->h );

	mov	eax, DWORD PTR _pl$[ebp]
	cvttss2si ecx, DWORD PTR [eax+736]
	push	ecx
	mov	edx, DWORD PTR _pl$[ebp]
	cvttss2si eax, DWORD PTR [edx+732]
	push	eax
	cvttss2si ecx, DWORD PTR _y2$[ebp]
	push	ecx
	mov	edx, DWORD PTR _pl$[ebp]
	cvttss2si eax, DWORD PTR [edx+724]
	push	eax
	call	DWORD PTR ?pglScissor@@3P6GXHHHH@ZA	; pglScissor

; 231  : 
; 232  : 	GL_BindShader( &glsl_programs[shaderNum] );			

	movzx	eax, WORD PTR _shaderNum$[ebp]
	imul	ecx, eax, 972
	add	ecx, OFFSET ?glsl_programs@@3PAUglsl_prog_s@@A ; glsl_programs
	push	ecx
	call	?GL_BindShader@@YAXPAUglsl_prog_s@@@Z	; GL_BindShader
	add	esp, 4

; 233  : 	ASSERT( RI->currentshader != NULL );

	mov	eax, DWORD PTR ?RI@@3PAUref_instance_t@@A ; RI
	cmp	DWORD PTR [eax+28], 0
	jne	SHORT $LN6@R_BeginDra
	mov	eax, DWORD PTR ?__LINE__Var@?0??R_BeginDrawProjectionGLSL@@YA_NPAUplight_s@@M@Z@4JA
	add	eax, 22					; 00000016H
	push	eax
	push	OFFSET ??_C@_0EO@HOKLNKJM@d?3?2?$CBdiffusion?52020?2source?5code?52@
	push	OFFSET ??_C@_0BI@FECCGOFJ@assert?5failed?5at?5?$CFs?3?$CFi?6?$AA@
	call	DWORD PTR ?gRenderfuncs@@3Urender_api_s@@A+236
	add	esp, 12					; 0000000cH
$LN6@R_BeginDra:

; 234  : 	R_LoadIdentity();

	call	?R_LoadIdentity@@YAXXZ			; R_LoadIdentity

; 235  : 
; 236  : 	Vector lightdir = pl->frustum.GetPlane( FRUSTUM_FAR )->normal;

	push	4
	mov	ecx, DWORD PTR _pl$[ebp]
	add	ecx, 328				; 00000148H
	call	?GetPlane@CFrustum@@QBEPBUmplane_s@@H@Z	; CFrustum::GetPlane
	push	eax
	lea	ecx, DWORD PTR _lightdir$[ebp]
	call	??0Vector@@QAE@ABV0@@Z			; Vector::Vector

; 237  : 	pl->lightviewProjMatrix.CopyToArray( gl_lightViewProjMatrix );

	lea	eax, DWORD PTR _gl_lightViewProjMatrix$[ebp]
	push	eax
	mov	ecx, DWORD PTR _pl$[ebp]
	add	ecx, 176				; 000000b0H
	call	?CopyToArray@matrix4x4@@QBEXPAM@Z	; matrix4x4::CopyToArray

; 238  : 
; 239  : 	// write constants
; 240  : 	pglUniformMatrix4fvARB( RI->currentshader->u_LightViewProjectionMatrix, 1, GL_FALSE, &gl_lightViewProjMatrix[0] );

	mov	eax, 4
	imul	ecx, eax, 0
	lea	edx, DWORD PTR _gl_lightViewProjMatrix$[ebp+ecx]
	push	edx
	push	0
	push	1
	mov	eax, DWORD PTR ?RI@@3PAUref_instance_t@@A ; RI
	mov	ecx, DWORD PTR [eax+28]
	mov	edx, DWORD PTR [ecx+696]
	push	edx
	call	DWORD PTR ?pglUniformMatrix4fvARB@@3P6GXHHEPBM@ZA ; pglUniformMatrix4fvARB

; 241  : 	float shadowWidth = 1.0f / (float)RENDER_GET_PARM( PARM_TEX_WIDTH, pl->shadowTexture[0] );

	mov	eax, 4
	imul	ecx, eax, 0
	mov	edx, DWORD PTR _pl$[ebp]
	mov	eax, DWORD PTR [edx+ecx+468]
	push	eax
	push	1
	call	DWORD PTR ?gRenderfuncs@@3Urender_api_s@@A
	add	esp, 8
	cvtsi2ss xmm0, eax
	movss	xmm1, DWORD PTR __real@3f800000
	divss	xmm1, xmm0
	movss	DWORD PTR _shadowWidth$[ebp], xmm1

; 242  : 	float shadowHeight = 1.0f / (float)RENDER_GET_PARM( PARM_TEX_HEIGHT, pl->shadowTexture[0] );

	mov	eax, 4
	imul	ecx, eax, 0
	mov	edx, DWORD PTR _pl$[ebp]
	mov	eax, DWORD PTR [edx+ecx+468]
	push	eax
	push	2
	call	DWORD PTR ?gRenderfuncs@@3Urender_api_s@@A
	add	esp, 8
	cvtsi2ss xmm0, eax
	movss	xmm1, DWORD PTR __real@3f800000
	divss	xmm1, xmm0
	movss	DWORD PTR _shadowHeight$[ebp], xmm1

; 243  : 
; 244  : 	// depth scale and bias and shadowmap resolution
; 245  : 	pglUniform4fARB( RI->currentshader->u_LightDir, lightdir.x, lightdir.y, lightdir.z, pl->fov );

	mov	eax, DWORD PTR _pl$[ebp]
	push	ecx
	movss	xmm0, DWORD PTR [eax+748]
	movss	DWORD PTR [esp], xmm0
	push	ecx
	movss	xmm0, DWORD PTR _lightdir$[ebp+8]
	movss	DWORD PTR [esp], xmm0
	push	ecx
	movss	xmm0, DWORD PTR _lightdir$[ebp+4]
	movss	DWORD PTR [esp], xmm0
	push	ecx
	movss	xmm0, DWORD PTR _lightdir$[ebp]
	movss	DWORD PTR [esp], xmm0
	mov	ecx, DWORD PTR ?RI@@3PAUref_instance_t@@A ; RI
	mov	edx, DWORD PTR [ecx+28]
	mov	eax, DWORD PTR [edx+744]
	push	eax
	call	DWORD PTR ?pglUniform4fARB@@3P6GXHMMMM@ZA ; pglUniform4fARB

; 246  : 	pglUniform4fARB( RI->currentshader->u_LightDiffuse, pl->color.r / 255.0f, pl->color.g / 255.0f, pl->color.b / 255.0f, pl->lightFalloff );

	mov	eax, DWORD PTR _pl$[ebp]
	push	ecx
	movss	xmm0, DWORD PTR [eax+740]
	movss	DWORD PTR [esp], xmm0
	mov	ecx, DWORD PTR _pl$[ebp]
	movzx	edx, BYTE PTR [ecx+30]
	cvtsi2ss xmm0, edx
	divss	xmm0, DWORD PTR __real@437f0000
	push	ecx
	movss	DWORD PTR [esp], xmm0
	mov	eax, DWORD PTR _pl$[ebp]
	movzx	ecx, BYTE PTR [eax+29]
	cvtsi2ss xmm0, ecx
	divss	xmm0, DWORD PTR __real@437f0000
	push	ecx
	movss	DWORD PTR [esp], xmm0
	mov	edx, DWORD PTR _pl$[ebp]
	movzx	eax, BYTE PTR [edx+28]
	cvtsi2ss xmm0, eax
	divss	xmm0, DWORD PTR __real@437f0000
	push	ecx
	movss	DWORD PTR [esp], xmm0
	mov	ecx, DWORD PTR ?RI@@3PAUref_instance_t@@A ; RI
	mov	edx, DWORD PTR [ecx+28]
	mov	eax, DWORD PTR [edx+760]
	push	eax
	call	DWORD PTR ?pglUniform4fARB@@3P6GXHMMMM@ZA ; pglUniform4fARB

; 247  : 	pglUniform4fARB( RI->currentshader->u_ShadowParams, shadowWidth, shadowHeight, -pl->projectionMatrix[2][2], pl->projectionMatrix[3][2]  );

	push	3
	mov	ecx, DWORD PTR _pl$[ebp]
	add	ecx, 48					; 00000030H
	call	??Amatrix4x4@@QAEPAMH@Z			; matrix4x4::operator[]
	mov	ecx, 4
	shl	ecx, 1
	push	ecx
	movss	xmm0, DWORD PTR [eax+ecx]
	movss	DWORD PTR [esp], xmm0
	push	2
	mov	ecx, DWORD PTR _pl$[ebp]
	add	ecx, 48					; 00000030H
	call	??Amatrix4x4@@QAEPAMH@Z			; matrix4x4::operator[]
	mov	edx, 4
	shl	edx, 1
	movss	xmm0, DWORD PTR [eax+edx]
	xorps	xmm0, DWORD PTR __xmm@80000000800000008000000080000000
	push	ecx
	movss	DWORD PTR [esp], xmm0
	push	ecx
	movss	xmm0, DWORD PTR _shadowHeight$[ebp]
	movss	DWORD PTR [esp], xmm0
	push	ecx
	movss	xmm0, DWORD PTR _shadowWidth$[ebp]
	movss	DWORD PTR [esp], xmm0
	mov	eax, DWORD PTR ?RI@@3PAUref_instance_t@@A ; RI
	mov	ecx, DWORD PTR [eax+28]
	mov	edx, DWORD PTR [ecx+836]
	push	edx
	call	DWORD PTR ?pglUniform4fARB@@3P6GXHMMMM@ZA ; pglUniform4fARB

; 248  : 	pglUniform4fARB( RI->currentshader->u_LightOrigin, pl->origin.x, pl->origin.y, pl->origin.z, ( 1.0f / pl->radius ));

	mov	eax, DWORD PTR _pl$[ebp]
	movss	xmm0, DWORD PTR __real@3f800000
	divss	xmm0, DWORD PTR [eax+24]
	push	ecx
	movss	DWORD PTR [esp], xmm0
	mov	ecx, DWORD PTR _pl$[ebp]
	push	ecx
	movss	xmm0, DWORD PTR [ecx+8]
	movss	DWORD PTR [esp], xmm0
	mov	edx, DWORD PTR _pl$[ebp]
	push	ecx
	movss	xmm0, DWORD PTR [edx+4]
	movss	DWORD PTR [esp], xmm0
	mov	eax, DWORD PTR _pl$[ebp]
	push	ecx
	movss	xmm0, DWORD PTR [eax]
	movss	DWORD PTR [esp], xmm0
	mov	ecx, DWORD PTR ?RI@@3PAUref_instance_t@@A ; RI
	mov	edx, DWORD PTR [ecx+28]
	mov	eax, DWORD PTR [edx+792]
	push	eax
	call	DWORD PTR ?pglUniform4fARB@@3P6GXHMMMM@ZA ; pglUniform4fARB

; 249  : 	pglUniform4fARB( RI->currentshader->u_FogParams, tr.fogColor[0], tr.fogColor[1], tr.fogColor[2], tr.fogDensity );

	push	ecx
	movss	xmm0, DWORD PTR ?tr@@3Uref_globals_t@@A+5830908
	movss	DWORD PTR [esp], xmm0
	mov	ecx, OFFSET ?tr@@3Uref_globals_t@@A+5830896
	call	??BVector@@QAEPAMXZ			; Vector::operator float *
	mov	ecx, 4
	shl	ecx, 1
	push	ecx
	movss	xmm0, DWORD PTR [eax+ecx]
	movss	DWORD PTR [esp], xmm0
	mov	ecx, OFFSET ?tr@@3Uref_globals_t@@A+5830896
	call	??BVector@@QAEPAMXZ			; Vector::operator float *
	mov	edx, 4
	shl	edx, 0
	push	ecx
	movss	xmm0, DWORD PTR [eax+edx]
	movss	DWORD PTR [esp], xmm0
	mov	ecx, OFFSET ?tr@@3Uref_globals_t@@A+5830896
	call	??BVector@@QAEPAMXZ			; Vector::operator float *
	mov	ecx, 4
	imul	edx, ecx, 0
	push	ecx
	movss	xmm0, DWORD PTR [eax+edx]
	movss	DWORD PTR [esp], xmm0
	mov	eax, DWORD PTR ?RI@@3PAUref_instance_t@@A ; RI
	mov	ecx, DWORD PTR [eax+28]
	mov	edx, DWORD PTR [ecx+788]
	push	edx
	call	DWORD PTR ?pglUniform4fARB@@3P6GXHMMMM@ZA ; pglUniform4fARB

; 250  : 	pglUniform1fARB( RI->currentshader->u_LightScale, lightscale );

	push	ecx
	movss	xmm0, DWORD PTR _lightscale$[ebp]
	movss	DWORD PTR [esp], xmm0
	mov	eax, DWORD PTR ?RI@@3PAUref_instance_t@@A ; RI
	mov	ecx, DWORD PTR [eax+28]
	mov	edx, DWORD PTR [ecx+796]
	push	edx
	call	DWORD PTR ?pglUniform1fARB@@3P6GXHM@ZA	; pglUniform1fARB

; 251  : 	pglUniform1fARB( RI->currentshader->u_DynLightBrightness, pl->brightness );

	mov	eax, DWORD PTR _pl$[ebp]
	push	ecx
	movss	xmm0, DWORD PTR [eax+764]
	movss	DWORD PTR [esp], xmm0
	mov	ecx, DWORD PTR ?RI@@3PAUref_instance_t@@A ; RI
	mov	edx, DWORD PTR [ecx+28]
	mov	eax, DWORD PTR [edx+912]
	push	eax
	call	DWORD PTR ?pglUniform1fARB@@3P6GXHM@ZA	; pglUniform1fARB

; 252  : 
; 253  : 	GL_Bind( GL_TEXTURE1, pl->projectionTexture );

	mov	eax, DWORD PTR _pl$[ebp]
	mov	ecx, DWORD PTR [eax+452]
	push	ecx
	push	1
	call	DWORD PTR ?gRenderfuncs@@3Urender_api_s@@A+132
	add	esp, 8

; 254  : 	GL_Bind( GL_TEXTURE2, pl->shadowTexture[0] );

	mov	eax, 4
	imul	ecx, eax, 0
	mov	edx, DWORD PTR _pl$[ebp]
	mov	eax, DWORD PTR [edx+ecx+468]
	push	eax
	push	2
	call	DWORD PTR ?gRenderfuncs@@3Urender_api_s@@A+132
	add	esp, 8

; 255  : 
; 256  : 	return true;

	mov	al, 1
$LN1@R_BeginDra:

; 257  : }

	pop	edi
	pop	esi
	pop	ebx
	mov	ecx, DWORD PTR __$ArrayPad$[ebp]
	xor	ecx, ebp
	call	@__security_check_cookie@4
	mov	esp, ebp
	pop	ebp
	ret	0
?R_BeginDrawProjectionGLSL@@YA_NPAUplight_s@@M@Z ENDP	; R_BeginDrawProjectionGLSL
_TEXT	ENDS
; Function compile flags: /Odtp /ZI
; File d:\!diffusion 2020\source code 2022\client-server\client\render\r_backend.cpp
;	COMDAT ?GL_Cull@@YAXI@Z
_TEXT	SEGMENT
_cull$ = 8						; size = 4
?GL_Cull@@YAXI@Z PROC					; GL_Cull, COMDAT

; 78   : {

	push	ebp
	mov	ebp, esp
	sub	esp, 64					; 00000040H
	push	ebx
	push	esi
	push	edi

; 79   : 	// to avoid useless OpenGL API calls
; 80   : 	if (glState.faceCull == cull)

	mov	eax, DWORD PTR ?glState@@3UglState_t@@A+16
	cmp	eax, DWORD PTR _cull$[ebp]
	jne	SHORT $LN2@GL_Cull

; 81   : 		return;

	jmp	SHORT $LN1@GL_Cull
$LN2@GL_Cull:

; 82   : 	
; 83   : 	if( !cull )

	cmp	DWORD PTR _cull$[ebp], 0
	jne	SHORT $LN3@GL_Cull

; 84   : 	{
; 85   : 		pglDisable( GL_CULL_FACE );

	push	2884					; 00000b44H
	call	DWORD PTR ?pglDisable@@3P6GXI@ZA	; pglDisable

; 86   : 		glState.faceCull = 0;

	mov	DWORD PTR ?glState@@3UglState_t@@A+16, 0

; 87   : 		return;

	jmp	SHORT $LN1@GL_Cull
$LN3@GL_Cull:

; 88   : 	}
; 89   : 
; 90   : 	pglEnable( GL_CULL_FACE );

	push	2884					; 00000b44H
	call	DWORD PTR ?pglEnable@@3P6GXI@ZA		; pglEnable

; 91   : 	pglCullFace( cull );

	mov	eax, DWORD PTR _cull$[ebp]
	push	eax
	call	DWORD PTR ?pglCullFace@@3P6GXI@ZA	; pglCullFace

; 92   : 	glState.faceCull = cull;

	mov	eax, DWORD PTR _cull$[ebp]
	mov	DWORD PTR ?glState@@3UglState_t@@A+16, eax
$LN1@GL_Cull:

; 93   : }

	pop	edi
	pop	esi
	pop	ebx
	mov	esp, ebp
	pop	ebp
	ret	0
?GL_Cull@@YAXI@Z ENDP					; GL_Cull
_TEXT	ENDS
; Function compile flags: /Odtp /ZI
; File d:\!diffusion 2020\source code 2022\client-server\client\render\r_backend.cpp
;	COMDAT ?GL_FrontFace@@YAXI@Z
_TEXT	SEGMENT
tv65 = -68						; size = 4
_front$ = 8						; size = 4
?GL_FrontFace@@YAXI@Z PROC				; GL_FrontFace, COMDAT

; 101  : {

	push	ebp
	mov	ebp, esp
	sub	esp, 68					; 00000044H
	push	ebx
	push	esi
	push	edi

; 102  : 	pglFrontFace( front ? GL_CW : GL_CCW );

	cmp	DWORD PTR _front$[ebp], 0
	je	SHORT $LN3@GL_FrontFa
	mov	DWORD PTR tv65[ebp], 2304		; 00000900H
	jmp	SHORT $LN4@GL_FrontFa
$LN3@GL_FrontFa:
	mov	DWORD PTR tv65[ebp], 2305		; 00000901H
$LN4@GL_FrontFa:
	mov	eax, DWORD PTR tv65[ebp]
	push	eax
	call	DWORD PTR ?pglFrontFace@@3P6GXI@ZA	; pglFrontFace

; 103  : 	glState.frontFace = front;

	mov	eax, DWORD PTR _front$[ebp]
	mov	DWORD PTR ?glState@@3UglState_t@@A+20, eax

; 104  : }

	pop	edi
	pop	esi
	pop	ebx
	mov	esp, ebp
	pop	ebp
	ret	0
?GL_FrontFace@@YAXI@Z ENDP				; GL_FrontFace
_TEXT	ENDS
; Function compile flags: /Odtp /ZI
; File d:\!diffusion 2020\source code 2022\client-server\client\render\r_backend.cpp
;	COMDAT ?GL_LoadTexMatrix@@YAXVmatrix4x4@@@Z
_TEXT	SEGMENT
_dest$ = -68						; size = 64
__$ArrayPad$ = -4					; size = 4
_source$ = 8						; size = 64
?GL_LoadTexMatrix@@YAXVmatrix4x4@@@Z PROC		; GL_LoadTexMatrix, COMDAT

; 158  : {

	push	ebp
	mov	ebp, esp
	sub	esp, 132				; 00000084H
	mov	eax, DWORD PTR ___security_cookie
	xor	eax, ebp
	mov	DWORD PTR __$ArrayPad$[ebp], eax
	push	ebx
	push	esi
	push	edi

; 159  : 	GLfloat	dest[16];
; 160  : 
; 161  : 	source.CopyToArray( dest );

	lea	eax, DWORD PTR _dest$[ebp]
	push	eax
	lea	ecx, DWORD PTR _source$[ebp]
	call	?CopyToArray@matrix4x4@@QBEXPAM@Z	; matrix4x4::CopyToArray

; 162  : 	GL_LoadTextureMatrix( dest );

	lea	eax, DWORD PTR _dest$[ebp]
	push	eax
	call	DWORD PTR ?gRenderfuncs@@3Urender_api_s@@A+140
	add	esp, 4

; 163  : }

	pop	edi
	pop	esi
	pop	ebx
	mov	ecx, DWORD PTR __$ArrayPad$[ebp]
	xor	ecx, ebp
	call	@__security_check_cookie@4
	mov	esp, ebp
	pop	ebp
	ret	0
?GL_LoadTexMatrix@@YAXVmatrix4x4@@@Z ENDP		; GL_LoadTexMatrix
_TEXT	ENDS
; Function compile flags: /Odtp /ZI
; File d:\!diffusion 2020\source code 2022\client-server\client\render\r_backend.cpp
;	COMDAT ?GL_LoadMatrix@@YAXVmatrix4x4@@@Z
_TEXT	SEGMENT
_dest$ = -68						; size = 64
__$ArrayPad$ = -4					; size = 4
_source$ = 8						; size = 64
?GL_LoadMatrix@@YAXVmatrix4x4@@@Z PROC			; GL_LoadMatrix, COMDAT

; 171  : {

	push	ebp
	mov	ebp, esp
	sub	esp, 132				; 00000084H
	mov	eax, DWORD PTR ___security_cookie
	xor	eax, ebp
	mov	DWORD PTR __$ArrayPad$[ebp], eax
	push	ebx
	push	esi
	push	edi

; 172  : 	GLfloat	dest[16];
; 173  : 
; 174  : 	source.CopyToArray( dest );

	lea	eax, DWORD PTR _dest$[ebp]
	push	eax
	lea	ecx, DWORD PTR _source$[ebp]
	call	?CopyToArray@matrix4x4@@QBEXPAM@Z	; matrix4x4::CopyToArray

; 175  : 	pglLoadMatrixf( dest );

	lea	eax, DWORD PTR _dest$[ebp]
	push	eax
	call	DWORD PTR ?pglLoadMatrixf@@3P6GXPBM@ZA	; pglLoadMatrixf

; 176  : }

	pop	edi
	pop	esi
	pop	ebx
	mov	ecx, DWORD PTR __$ArrayPad$[ebp]
	xor	ecx, ebp
	call	@__security_check_cookie@4
	mov	esp, ebp
	pop	ebp
	ret	0
?GL_LoadMatrix@@YAXVmatrix4x4@@@Z ENDP			; GL_LoadMatrix
_TEXT	ENDS
; Function compile flags: /Odtp /ZI
; File d:\!diffusion 2020\source code 2022\client-server\client\render\r_frustum.h
;	COMDAT ?GetPlane@CFrustum@@QBEPBUmplane_s@@H@Z
_TEXT	SEGMENT
_this$ = -4						; size = 4
_side$ = 8						; size = 4
?GetPlane@CFrustum@@QBEPBUmplane_s@@H@Z PROC		; CFrustum::GetPlane, COMDAT
; _this$ = ecx

; 39   : 	const mplane_t *GetPlane( int side ) const { return &planes[side]; }

	push	ebp
	mov	ebp, esp
	sub	esp, 68					; 00000044H
	push	ebx
	push	esi
	push	edi
	mov	DWORD PTR _this$[ebp], ecx
	imul	eax, DWORD PTR _side$[ebp], 20
	add	eax, DWORD PTR _this$[ebp]
	pop	edi
	pop	esi
	pop	ebx
	mov	esp, ebp
	pop	ebp
	ret	4
?GetPlane@CFrustum@@QBEPBUmplane_s@@H@Z ENDP		; CFrustum::GetPlane
_TEXT	ENDS
; Function compile flags: /Odtp /ZI
;	COMDAT ??0matrix4x4@@QAE@ABV0@@Z
_TEXT	SEGMENT
_this$ = -4						; size = 4
___that$ = 8						; size = 4
??0matrix4x4@@QAE@ABV0@@Z PROC				; matrix4x4::matrix4x4, COMDAT
; _this$ = ecx
	push	ebp
	mov	ebp, esp
	sub	esp, 68					; 00000044H
	push	ebx
	push	esi
	push	edi
	mov	DWORD PTR _this$[ebp], ecx
	push	OFFSET ??0Vector4D@@QAE@ABV0@@Z		; Vector4D::Vector4D
	push	4
	push	16					; 00000010H
	mov	eax, DWORD PTR ___that$[ebp]
	push	eax
	mov	ecx, DWORD PTR _this$[ebp]
	push	ecx
	call	??__G@YGXPAX0IIP6EPAX00@Z@Z
	mov	eax, DWORD PTR _this$[ebp]
	pop	edi
	pop	esi
	pop	ebx
	mov	esp, ebp
	pop	ebp
	ret	4
??0matrix4x4@@QAE@ABV0@@Z ENDP				; matrix4x4::matrix4x4
_TEXT	ENDS
; Function compile flags: /Odtp /ZI
; File d:\!diffusion 2020\source code 2022\client-server\game_shared\matrix.h
;	COMDAT ?CopyToArray@matrix4x4@@QBEXPAM@Z
_TEXT	SEGMENT
_this$ = -4						; size = 4
_rgfl$ = 8						; size = 4
?CopyToArray@matrix4x4@@QBEXPAM@Z PROC			; matrix4x4::CopyToArray, COMDAT
; _this$ = ecx

; 1055 : 	{

	push	ebp
	mov	ebp, esp
	sub	esp, 68					; 00000044H
	push	ebx
	push	esi
	push	edi
	mov	DWORD PTR _this$[ebp], ecx

; 1056 : 		rgfl[ 0] = mat[0][0];

	mov	eax, 16					; 00000010H
	imul	ecx, eax, 0
	add	ecx, DWORD PTR _this$[ebp]
	call	??BVector4D@@QBEPBMXZ			; Vector4D::operator float const *
	mov	ecx, 4
	imul	edx, ecx, 0
	mov	ecx, 4
	imul	ecx, ecx, 0
	mov	esi, DWORD PTR _rgfl$[ebp]
	mov	edx, DWORD PTR [eax+edx]
	mov	DWORD PTR [esi+ecx], edx

; 1057 : 		rgfl[ 1] = mat[0][1];

	mov	eax, 16					; 00000010H
	imul	ecx, eax, 0
	add	ecx, DWORD PTR _this$[ebp]
	call	??BVector4D@@QBEPBMXZ			; Vector4D::operator float const *
	mov	ecx, 4
	shl	ecx, 0
	mov	edx, 4
	shl	edx, 0
	mov	esi, DWORD PTR _rgfl$[ebp]
	mov	eax, DWORD PTR [eax+ecx]
	mov	DWORD PTR [esi+edx], eax

; 1058 : 		rgfl[ 2] = mat[0][2];

	mov	eax, 16					; 00000010H
	imul	ecx, eax, 0
	add	ecx, DWORD PTR _this$[ebp]
	call	??BVector4D@@QBEPBMXZ			; Vector4D::operator float const *
	mov	ecx, 4
	shl	ecx, 1
	mov	edx, 4
	shl	edx, 1
	mov	esi, DWORD PTR _rgfl$[ebp]
	mov	eax, DWORD PTR [eax+ecx]
	mov	DWORD PTR [esi+edx], eax

; 1059 : 		rgfl[ 3] = mat[0][3];

	mov	eax, 16					; 00000010H
	imul	ecx, eax, 0
	add	ecx, DWORD PTR _this$[ebp]
	call	??BVector4D@@QBEPBMXZ			; Vector4D::operator float const *
	mov	ecx, 4
	imul	edx, ecx, 3
	mov	ecx, 4
	imul	ecx, ecx, 3
	mov	esi, DWORD PTR _rgfl$[ebp]
	mov	edx, DWORD PTR [eax+edx]
	mov	DWORD PTR [esi+ecx], edx

; 1060 : 		rgfl[ 4] = mat[1][0];

	mov	ecx, 16					; 00000010H
	shl	ecx, 0
	add	ecx, DWORD PTR _this$[ebp]
	call	??BVector4D@@QBEPBMXZ			; Vector4D::operator float const *
	mov	ecx, 4
	imul	edx, ecx, 0
	mov	ecx, 4
	shl	ecx, 2
	mov	esi, DWORD PTR _rgfl$[ebp]
	mov	edx, DWORD PTR [eax+edx]
	mov	DWORD PTR [esi+ecx], edx

; 1061 : 		rgfl[ 5] = mat[1][1];

	mov	ecx, 16					; 00000010H
	shl	ecx, 0
	add	ecx, DWORD PTR _this$[ebp]
	call	??BVector4D@@QBEPBMXZ			; Vector4D::operator float const *
	mov	ecx, 4
	shl	ecx, 0
	mov	edx, 4
	imul	edx, edx, 5
	mov	esi, DWORD PTR _rgfl$[ebp]
	mov	eax, DWORD PTR [eax+ecx]
	mov	DWORD PTR [esi+edx], eax

; 1062 : 		rgfl[ 6] = mat[1][2];

	mov	ecx, 16					; 00000010H
	shl	ecx, 0
	add	ecx, DWORD PTR _this$[ebp]
	call	??BVector4D@@QBEPBMXZ			; Vector4D::operator float const *
	mov	ecx, 4
	shl	ecx, 1
	mov	edx, 4
	imul	edx, edx, 6
	mov	esi, DWORD PTR _rgfl$[ebp]
	mov	eax, DWORD PTR [eax+ecx]
	mov	DWORD PTR [esi+edx], eax

; 1063 : 		rgfl[ 7] = mat[1][3];

	mov	ecx, 16					; 00000010H
	shl	ecx, 0
	add	ecx, DWORD PTR _this$[ebp]
	call	??BVector4D@@QBEPBMXZ			; Vector4D::operator float const *
	mov	ecx, 4
	imul	edx, ecx, 3
	mov	ecx, 4
	imul	ecx, ecx, 7
	mov	esi, DWORD PTR _rgfl$[ebp]
	mov	edx, DWORD PTR [eax+edx]
	mov	DWORD PTR [esi+ecx], edx

; 1064 : 		rgfl[ 8] = mat[2][0];

	mov	ecx, 16					; 00000010H
	shl	ecx, 1
	add	ecx, DWORD PTR _this$[ebp]
	call	??BVector4D@@QBEPBMXZ			; Vector4D::operator float const *
	mov	ecx, 4
	imul	edx, ecx, 0
	mov	ecx, 4
	shl	ecx, 3
	mov	esi, DWORD PTR _rgfl$[ebp]
	mov	edx, DWORD PTR [eax+edx]
	mov	DWORD PTR [esi+ecx], edx

; 1065 : 		rgfl[ 9] = mat[2][1];

	mov	ecx, 16					; 00000010H
	shl	ecx, 1
	add	ecx, DWORD PTR _this$[ebp]
	call	??BVector4D@@QBEPBMXZ			; Vector4D::operator float const *
	mov	ecx, 4
	shl	ecx, 0
	mov	edx, 4
	imul	edx, edx, 9
	mov	esi, DWORD PTR _rgfl$[ebp]
	mov	eax, DWORD PTR [eax+ecx]
	mov	DWORD PTR [esi+edx], eax

; 1066 : 		rgfl[10] = mat[2][2];

	mov	ecx, 16					; 00000010H
	shl	ecx, 1
	add	ecx, DWORD PTR _this$[ebp]
	call	??BVector4D@@QBEPBMXZ			; Vector4D::operator float const *
	mov	ecx, 4
	shl	ecx, 1
	mov	edx, 4
	imul	edx, edx, 10
	mov	esi, DWORD PTR _rgfl$[ebp]
	mov	eax, DWORD PTR [eax+ecx]
	mov	DWORD PTR [esi+edx], eax

; 1067 : 		rgfl[11] = mat[2][3];

	mov	ecx, 16					; 00000010H
	shl	ecx, 1
	add	ecx, DWORD PTR _this$[ebp]
	call	??BVector4D@@QBEPBMXZ			; Vector4D::operator float const *
	mov	ecx, 4
	imul	edx, ecx, 3
	mov	ecx, 4
	imul	ecx, ecx, 11
	mov	esi, DWORD PTR _rgfl$[ebp]
	mov	edx, DWORD PTR [eax+edx]
	mov	DWORD PTR [esi+ecx], edx

; 1068 : 		rgfl[12] = mat[3][0];

	mov	eax, 16					; 00000010H
	imul	ecx, eax, 3
	add	ecx, DWORD PTR _this$[ebp]
	call	??BVector4D@@QBEPBMXZ			; Vector4D::operator float const *
	mov	ecx, 4
	imul	edx, ecx, 0
	mov	ecx, 4
	imul	ecx, ecx, 12
	mov	esi, DWORD PTR _rgfl$[ebp]
	mov	edx, DWORD PTR [eax+edx]
	mov	DWORD PTR [esi+ecx], edx

; 1069 : 		rgfl[13] = mat[3][1];

	mov	eax, 16					; 00000010H
	imul	ecx, eax, 3
	add	ecx, DWORD PTR _this$[ebp]
	call	??BVector4D@@QBEPBMXZ			; Vector4D::operator float const *
	mov	ecx, 4
	shl	ecx, 0
	mov	edx, 4
	imul	edx, edx, 13
	mov	esi, DWORD PTR _rgfl$[ebp]
	mov	eax, DWORD PTR [eax+ecx]
	mov	DWORD PTR [esi+edx], eax

; 1070 : 		rgfl[14] = mat[3][2];

	mov	eax, 16					; 00000010H
	imul	ecx, eax, 3
	add	ecx, DWORD PTR _this$[ebp]
	call	??BVector4D@@QBEPBMXZ			; Vector4D::operator float const *
	mov	ecx, 4
	shl	ecx, 1
	mov	edx, 4
	imul	edx, edx, 14
	mov	esi, DWORD PTR _rgfl$[ebp]
	mov	eax, DWORD PTR [eax+ecx]
	mov	DWORD PTR [esi+edx], eax

; 1071 : 		rgfl[15] = mat[3][3];

	mov	eax, 16					; 00000010H
	imul	ecx, eax, 3
	add	ecx, DWORD PTR _this$[ebp]
	call	??BVector4D@@QBEPBMXZ			; Vector4D::operator float const *
	mov	ecx, 4
	imul	edx, ecx, 3
	mov	ecx, 4
	imul	ecx, ecx, 15
	mov	esi, DWORD PTR _rgfl$[ebp]
	mov	edx, DWORD PTR [eax+edx]
	mov	DWORD PTR [esi+ecx], edx

; 1072 : 	}

	pop	edi
	pop	esi
	pop	ebx
	mov	esp, ebp
	pop	ebp
	ret	4
?CopyToArray@matrix4x4@@QBEXPAM@Z ENDP			; matrix4x4::CopyToArray
_TEXT	ENDS
; Function compile flags: /Odtp /ZI
; File d:\!diffusion 2020\source code 2022\client-server\game_shared\matrix.h
;	COMDAT ??Amatrix4x4@@QAEPAMH@Z
_TEXT	SEGMENT
_this$ = -4						; size = 4
_i$ = 8							; size = 4
??Amatrix4x4@@QAEPAMH@Z PROC				; matrix4x4::operator[], COMDAT
; _this$ = ecx

; 952  : 	float* operator[]( int i ) { return mat[i]; }

	push	ebp
	mov	ebp, esp
	sub	esp, 68					; 00000044H
	push	ebx
	push	esi
	push	edi
	mov	DWORD PTR _this$[ebp], ecx
	mov	ecx, DWORD PTR _i$[ebp]
	shl	ecx, 4
	add	ecx, DWORD PTR _this$[ebp]
	call	??BVector4D@@QAEPAMXZ			; Vector4D::operator float *
	pop	edi
	pop	esi
	pop	ebx
	mov	esp, ebp
	pop	ebp
	ret	4
??Amatrix4x4@@QAEPAMH@Z ENDP				; matrix4x4::operator[]
_TEXT	ENDS
; Function compile flags: /Odtp /ZI
; File d:\!diffusion 2020\source code 2022\client-server\game_shared\vector.h
;	COMDAT ??BVector4D@@QBEPBMXZ
_TEXT	SEGMENT
_this$ = -4						; size = 4
??BVector4D@@QBEPBMXZ PROC				; Vector4D::operator float const *, COMDAT
; _this$ = ecx

; 345  : 	operator const float *() const			{ return &x; } 

	push	ebp
	mov	ebp, esp
	sub	esp, 68					; 00000044H
	push	ebx
	push	esi
	push	edi
	mov	DWORD PTR _this$[ebp], ecx
	mov	eax, DWORD PTR _this$[ebp]
	pop	edi
	pop	esi
	pop	ebx
	mov	esp, ebp
	pop	ebp
	ret	0
??BVector4D@@QBEPBMXZ ENDP				; Vector4D::operator float const *
_TEXT	ENDS
; Function compile flags: /Odtp /ZI
; File d:\!diffusion 2020\source code 2022\client-server\game_shared\vector.h
;	COMDAT ??BVector4D@@QAEPAMXZ
_TEXT	SEGMENT
_this$ = -4						; size = 4
??BVector4D@@QAEPAMXZ PROC				; Vector4D::operator float *, COMDAT
; _this$ = ecx

; 344  : 	operator float *()					{ return &x; }

	push	ebp
	mov	ebp, esp
	sub	esp, 68					; 00000044H
	push	ebx
	push	esi
	push	edi
	mov	DWORD PTR _this$[ebp], ecx
	mov	eax, DWORD PTR _this$[ebp]
	pop	edi
	pop	esi
	pop	ebx
	mov	esp, ebp
	pop	ebp
	ret	0
??BVector4D@@QAEPAMXZ ENDP				; Vector4D::operator float *
_TEXT	ENDS
; Function compile flags: /Odtp /ZI
; File d:\!diffusion 2020\source code 2022\client-server\game_shared\vector.h
;	COMDAT ??0Vector4D@@QAE@ABV0@@Z
_TEXT	SEGMENT
_this$ = -4						; size = 4
_v$ = 8							; size = 4
??0Vector4D@@QAE@ABV0@@Z PROC				; Vector4D::Vector4D, COMDAT
; _this$ = ecx

; 332  : 	inline Vector4D( const Vector4D& v ) { x = v.x; y = v.y; z = v.z, w = v.w; } 

	push	ebp
	mov	ebp, esp
	sub	esp, 68					; 00000044H
	push	ebx
	push	esi
	push	edi
	mov	DWORD PTR _this$[ebp], ecx
	mov	eax, DWORD PTR _this$[ebp]
	mov	ecx, DWORD PTR _v$[ebp]
	mov	edx, DWORD PTR [ecx]
	mov	DWORD PTR [eax], edx
	mov	eax, DWORD PTR _this$[ebp]
	mov	ecx, DWORD PTR _v$[ebp]
	mov	edx, DWORD PTR [ecx+4]
	mov	DWORD PTR [eax+4], edx
	mov	eax, DWORD PTR _this$[ebp]
	mov	ecx, DWORD PTR _v$[ebp]
	mov	edx, DWORD PTR [ecx+8]
	mov	DWORD PTR [eax+8], edx
	mov	eax, DWORD PTR _this$[ebp]
	mov	ecx, DWORD PTR _v$[ebp]
	mov	edx, DWORD PTR [ecx+12]
	mov	DWORD PTR [eax+12], edx
	mov	eax, DWORD PTR _this$[ebp]
	pop	edi
	pop	esi
	pop	ebx
	mov	esp, ebp
	pop	ebp
	ret	4
??0Vector4D@@QAE@ABV0@@Z ENDP				; Vector4D::Vector4D
_TEXT	ENDS
; Function compile flags: /Odtp /ZI
; File d:\!diffusion 2020\source code 2022\client-server\game_shared\vector.h
;	COMDAT ??BVector@@QAEPAMXZ
_TEXT	SEGMENT
_this$ = -4						; size = 4
??BVector@@QAEPAMXZ PROC				; Vector::operator float *, COMDAT
; _this$ = ecx

; 247  : 	operator float *()				{ return &x; } // Vectors will now automatically convert to float * when needed

	push	ebp
	mov	ebp, esp
	sub	esp, 68					; 00000044H
	push	ebx
	push	esi
	push	edi
	mov	DWORD PTR _this$[ebp], ecx
	mov	eax, DWORD PTR _this$[ebp]
	pop	edi
	pop	esi
	pop	ebx
	mov	esp, ebp
	pop	ebp
	ret	0
??BVector@@QAEPAMXZ ENDP				; Vector::operator float *
_TEXT	ENDS
; Function compile flags: /Odtp /ZI
; File d:\!diffusion 2020\source code 2022\client-server\game_shared\vector.h
;	COMDAT ??0Vector@@QAE@ABV0@@Z
_TEXT	SEGMENT
_this$ = -4						; size = 4
_v$ = 8							; size = 4
??0Vector@@QAE@ABV0@@Z PROC				; Vector::Vector, COMDAT
; _this$ = ecx

; 145  : 	inline Vector(const Vector& v)		{ x = v.x; y = v.y; z = v.z;		   }

	push	ebp
	mov	ebp, esp
	sub	esp, 68					; 00000044H
	push	ebx
	push	esi
	push	edi
	mov	DWORD PTR _this$[ebp], ecx
	mov	eax, DWORD PTR _this$[ebp]
	mov	ecx, DWORD PTR _v$[ebp]
	mov	edx, DWORD PTR [ecx]
	mov	DWORD PTR [eax], edx
	mov	eax, DWORD PTR _this$[ebp]
	mov	ecx, DWORD PTR _v$[ebp]
	mov	edx, DWORD PTR [ecx+4]
	mov	DWORD PTR [eax+4], edx
	mov	eax, DWORD PTR _this$[ebp]
	mov	ecx, DWORD PTR _v$[ebp]
	mov	edx, DWORD PTR [ecx+8]
	mov	DWORD PTR [eax+8], edx
	mov	eax, DWORD PTR _this$[ebp]
	pop	edi
	pop	esi
	pop	ebx
	mov	esp, ebp
	pop	ebp
	ret	4
??0Vector@@QAE@ABV0@@Z ENDP				; Vector::Vector
_TEXT	ENDS
; Function compile flags: /Odtp /ZI
;	COMDAT ??__G@YGXPAX0IIP6EPAX00@Z@Z
_TEXT	SEGMENT
tv66 = -68						; size = 4
___t$ = 8						; size = 4
___u$ = 12						; size = 4
___s$ = 16						; size = 4
___n$ = 20						; size = 4
___f$ = 24						; size = 4
??__G@YGXPAX0IIP6EPAX00@Z@Z PROC			; `vector copy constructor iterator', COMDAT
	push	ebp
	mov	ebp, esp
	sub	esp, 68					; 00000044H
	push	ebx
	push	esi
	push	edi
$LN2@vector:
	mov	eax, DWORD PTR ___n$[ebp]
	mov	DWORD PTR tv66[ebp], eax
	mov	ecx, DWORD PTR ___n$[ebp]
	sub	ecx, 1
	mov	DWORD PTR ___n$[ebp], ecx
	cmp	DWORD PTR tv66[ebp], 0
	jbe	SHORT $LN1@vector
	mov	eax, DWORD PTR ___u$[ebp]
	push	eax
	mov	ecx, DWORD PTR ___t$[ebp]
	call	DWORD PTR ___f$[ebp]
	mov	eax, DWORD PTR ___t$[ebp]
	add	eax, DWORD PTR ___s$[ebp]
	mov	DWORD PTR ___t$[ebp], eax
	mov	eax, DWORD PTR ___u$[ebp]
	add	eax, DWORD PTR ___s$[ebp]
	mov	DWORD PTR ___u$[ebp], eax
	jmp	SHORT $LN2@vector
$LN1@vector:
	pop	edi
	pop	esi
	pop	ebx
	mov	esp, ebp
	pop	ebp
	ret	20					; 00000014H
??__G@YGXPAX0IIP6EPAX00@Z@Z ENDP			; `vector copy constructor iterator'
_TEXT	ENDS
; Function compile flags: /Odtp /ZI
;	COMDAT ??_H@YGXPAXIIP6EPAX0@Z@Z
_TEXT	SEGMENT
tv66 = -68						; size = 4
___t$ = 8						; size = 4
___s$ = 12						; size = 4
___n$ = 16						; size = 4
___f$ = 20						; size = 4
??_H@YGXPAXIIP6EPAX0@Z@Z PROC				; `vector constructor iterator', COMDAT
	push	ebp
	mov	ebp, esp
	sub	esp, 68					; 00000044H
	push	ebx
	push	esi
	push	edi
$LN2@vector:
	mov	eax, DWORD PTR ___n$[ebp]
	mov	DWORD PTR tv66[ebp], eax
	mov	ecx, DWORD PTR ___n$[ebp]
	sub	ecx, 1
	mov	DWORD PTR ___n$[ebp], ecx
	cmp	DWORD PTR tv66[ebp], 0
	jbe	SHORT $LN1@vector
	mov	ecx, DWORD PTR ___t$[ebp]
	call	DWORD PTR ___f$[ebp]
	mov	eax, DWORD PTR ___t$[ebp]
	add	eax, DWORD PTR ___s$[ebp]
	mov	DWORD PTR ___t$[ebp], eax
	jmp	SHORT $LN2@vector
$LN1@vector:
	pop	edi
	pop	esi
	pop	ebx
	mov	esp, ebp
	pop	ebp
	ret	16					; 00000010H
??_H@YGXPAXIIP6EPAX0@Z@Z ENDP				; `vector constructor iterator'
_TEXT	ENDS
END
