; Listing generated by Microsoft (R) Optimizing Compiler Version 19.00.24247.2 

	TITLE	D:\!DIFFUSION 2020\source code 2022\client-server\client\render\r_bloom.cpp
	.686P
	.XMM
	include listing.inc
	.model	flat

INCLUDELIB LIBCMT
INCLUDELIB OLDNAMES

_DATA	SEGMENT
?Diamond8x@@3PAY07MA DD 000000000r		; 0	; Diamond8x
	DD	000000000r			; 0
	DD	000000000r			; 0
	DD	03dcccccdr			; 0.1
	DD	03dcccccdr			; 0.1
	DD	000000000r			; 0
	DD	000000000r			; 0
	DD	000000000r			; 0
	DD	000000000r			; 0
	DD	000000000r			; 0
	DD	03e4ccccdr			; 0.2
	DD	03e99999ar			; 0.3
	DD	03e99999ar			; 0.3
	DD	03e4ccccdr			; 0.2
	DD	000000000r			; 0
	DD	000000000r			; 0
	DD	000000000r			; 0
	DD	03e4ccccdr			; 0.2
	DD	03ecccccdr			; 0.4
	DD	03f19999ar			; 0.6
	DD	03f19999ar			; 0.6
	DD	03ecccccdr			; 0.4
	DD	03e4ccccdr			; 0.2
	DD	000000000r			; 0
	DD	03dcccccdr			; 0.1
	DD	03e99999ar			; 0.3
	DD	03f19999ar			; 0.6
	DD	03f666666r			; 0.9
	DD	03f666666r			; 0.9
	DD	03f19999ar			; 0.6
	DD	03e99999ar			; 0.3
	DD	03dcccccdr			; 0.1
	DD	03dcccccdr			; 0.1
	DD	03e99999ar			; 0.3
	DD	03f19999ar			; 0.6
	DD	03f666666r			; 0.9
	DD	03f666666r			; 0.9
	DD	03f19999ar			; 0.6
	DD	03e99999ar			; 0.3
	DD	03dcccccdr			; 0.1
	DD	000000000r			; 0
	DD	03e4ccccdr			; 0.2
	DD	03ecccccdr			; 0.4
	DD	03f19999ar			; 0.6
	DD	03f19999ar			; 0.6
	DD	03ecccccdr			; 0.4
	DD	03e4ccccdr			; 0.2
	DD	000000000r			; 0
	DD	000000000r			; 0
	DD	000000000r			; 0
	DD	03e4ccccdr			; 0.2
	DD	03e99999ar			; 0.3
	DD	03e99999ar			; 0.3
	DD	03e4ccccdr			; 0.2
	DD	000000000r			; 0
	DD	000000000r			; 0
	DD	000000000r			; 0
	DD	000000000r			; 0
	DD	000000000r			; 0
	DD	03dcccccdr			; 0.1
	DD	03dcccccdr			; 0.1
	DD	000000000r			; 0
	DD	000000000r			; 0
	DD	000000000r			; 0
?Diamond6x@@3PAY05MA DD 000000000r		; 0	; Diamond6x
	DD	000000000r			; 0
	DD	03dcccccdr			; 0.1
	DD	03dcccccdr			; 0.1
	DD	000000000r			; 0
	DD	000000000r			; 0
	DD	000000000r			; 0
	DD	03e99999ar			; 0.3
	DD	03f000000r			; 0.5
	DD	03f000000r			; 0.5
	DD	03e99999ar			; 0.3
	DD	000000000r			; 0
	DD	03dcccccdr			; 0.1
	DD	03f000000r			; 0.5
	DD	03f666666r			; 0.9
	DD	03f666666r			; 0.9
	DD	03f000000r			; 0.5
	DD	03dcccccdr			; 0.1
	DD	03dcccccdr			; 0.1
	DD	03f000000r			; 0.5
	DD	03f666666r			; 0.9
	DD	03f666666r			; 0.9
	DD	03f000000r			; 0.5
	DD	03dcccccdr			; 0.1
	DD	000000000r			; 0
	DD	03e99999ar			; 0.3
	DD	03f000000r			; 0.5
	DD	03f000000r			; 0.5
	DD	03e99999ar			; 0.3
	DD	000000000r			; 0
	DD	000000000r			; 0
	DD	000000000r			; 0
	DD	03dcccccdr			; 0.1
	DD	03dcccccdr			; 0.1
	DD	000000000r			; 0
	DD	000000000r			; 0
?Diamond4x@@3PAY03MA DD 03e99999ar		; 0.3	; Diamond4x
	DD	03ecccccdr			; 0.4
	DD	03ecccccdr			; 0.4
	DD	03e99999ar			; 0.3
	DD	03ecccccdr			; 0.4
	DD	03f666666r			; 0.9
	DD	03f666666r			; 0.9
	DD	03ecccccdr			; 0.4
	DD	03ecccccdr			; 0.4
	DD	03f666666r			; 0.9
	DD	03f666666r			; 0.9
	DD	03ecccccdr			; 0.4
	DD	03e99999ar			; 0.3
	DD	03ecccccdr			; 0.4
	DD	03ecccccdr			; 0.4
	DD	03e99999ar			; 0.3
_DATA	ENDS
PUBLIC	??_H@YGXPAXIIP6EPAX0@Z@Z			; `vector constructor iterator'
PUBLIC	??__G@YGXPAX0IIP6EPAX00@Z@Z			; `vector copy constructor iterator'
PUBLIC	?R_InitBloomTextures@@YAXXZ			; R_InitBloomTextures
PUBLIC	?R_BloomBlend@@YAXXZ				; R_BloomBlend
PUBLIC	??_C@_0BE@JOLACMHC@?$CKbloombackuptexture?$AA@	; `string'
PUBLIC	??_C@_0BE@FEEHIPNM@r_bloom_sample_size?$AA@	; `string'
PUBLIC	??_C@_0BE@DLIHHMFP@?$CKbloomeffecttexture?$AA@	; `string'
PUBLIC	??_C@_07EIFGGFJK@r_bloom?$AA@			; `string'
PUBLIC	??_C@_0FB@PFBJHCAK@?8R_InitBloomScreenTexture?8?5too?5h@ ; `string'
PUBLIC	??_C@_0BE@IDDGNGLN@?$CKbloomscreentexture?$AA@	; `string'
PUBLIC	??_C@_0BI@MJLADFKC@?$CKbloomdownsampletexture?$AA@ ; `string'
PUBLIC	??_C@_0BF@EBOCIPBI@r_bloom_diamond_size?$AA@	; `string'
PUBLIC	__real@00000000
PUBLIC	__real@3c23d70a
PUBLIC	__real@3e99999a
PUBLIC	__real@3f000000
PUBLIC	__real@3f4ccccd
PUBLIC	__real@3f800000
PUBLIC	__real@40400000
PUBLIC	__real@4059000000000000
PUBLIC	__real@40800000
PUBLIC	__real@40a00000
PUBLIC	__real@40c00000
PUBLIC	__real@40e00000
PUBLIC	__real@41000000
PUBLIC	__real@42000000
PUBLIC	__real@46040000
PUBLIC	__real@c024000000000000
EXTRN	?ALERT@@YAXW4ALERT_TYPE@@PADZZ:PROC		; ALERT
EXTRN	?GL_Support@@YA_NH@Z:PROC			; GL_Support
EXTRN	?GL_Cull@@YAXI@Z:PROC				; GL_Cull
EXTRN	?gEngfuncs@@3Ucl_enginefuncs_s@@A:BYTE		; gEngfuncs
EXTRN	?gRenderfuncs@@3Urender_api_s@@A:BYTE		; gRenderfuncs
EXTRN	?pglBegin@@3P6GXI@ZA:DWORD			; pglBegin
EXTRN	?pglBlendFunc@@3P6GXII@ZA:DWORD			; pglBlendFunc
EXTRN	?pglColor4f@@3P6GXMMMM@ZA:DWORD			; pglColor4f
EXTRN	?pglCopyTexSubImage2D@@3P6GXIHHHHHHH@ZA:DWORD	; pglCopyTexSubImage2D
EXTRN	?pglDepthMask@@3P6GXE@ZA:DWORD			; pglDepthMask
EXTRN	?pglDisable@@3P6GXI@ZA:DWORD			; pglDisable
EXTRN	?pglEnable@@3P6GXI@ZA:DWORD			; pglEnable
EXTRN	?pglEnd@@3P6GXXZA:DWORD				; pglEnd
EXTRN	?pglLoadIdentity@@3P6GXXZA:DWORD		; pglLoadIdentity
EXTRN	?pglMatrixMode@@3P6GXI@ZA:DWORD			; pglMatrixMode
EXTRN	?pglOrtho@@3P6GXNNNNNN@ZA:DWORD			; pglOrtho
EXTRN	?pglScissor@@3P6GXHHHH@ZA:DWORD			; pglScissor
EXTRN	?pglTexCoord2f@@3P6GXMM@ZA:DWORD		; pglTexCoord2f
EXTRN	?pglTexEnvf@@3P6GXIIM@ZA:DWORD			; pglTexEnvf
EXTRN	?pglTexEnvi@@3P6GXIIH@ZA:DWORD			; pglTexEnvi
EXTRN	?pglVertex2f@@3P6GXMM@ZA:DWORD			; pglVertex2f
EXTRN	?pglViewport@@3P6GXHHHH@ZA:DWORD		; pglViewport
EXTRN	?r_bloom_alpha@@3PAUcvar_s@@A:DWORD		; r_bloom_alpha
EXTRN	?r_bloom_darken@@3PAUcvar_s@@A:DWORD		; r_bloom_darken
EXTRN	?r_bloom_sample_size@@3PAUcvar_s@@A:DWORD	; r_bloom_sample_size
EXTRN	?r_bloom_fast_sample@@3PAUcvar_s@@A:DWORD	; r_bloom_fast_sample
EXTRN	?r_bloom_diamond_size@@3PAUcvar_s@@A:DWORD	; r_bloom_diamond_size
EXTRN	?r_bloom_intensity@@3PAUcvar_s@@A:DWORD		; r_bloom_intensity
EXTRN	?r_bloom@@3PAUcvar_s@@A:DWORD			; r_bloom
EXTRN	?RI@@3PAUref_instance_t@@A:DWORD		; RI
EXTRN	?glState@@3UglState_t@@A:BYTE			; glState
EXTRN	?glConfig@@3UglConfig_t@@A:BYTE			; glConfig
EXTRN	__fltused:DWORD
_BSS	SEGMENT
?BLOOM_SIZE@@3HA DD 01H DUP (?)				; BLOOM_SIZE
?r_bloomscreentexture@@3HA DD 01H DUP (?)		; r_bloomscreentexture
?r_bloomeffecttexture@@3HA DD 01H DUP (?)		; r_bloomeffecttexture
?r_bloombackuptexture@@3HA DD 01H DUP (?)		; r_bloombackuptexture
?r_bloomdownsamplingtexture@@3HA DD 01H DUP (?)		; r_bloomdownsamplingtexture
?r_screendownsamplingtexture_size@@3HA DD 01H DUP (?)	; r_screendownsamplingtexture_size
?screen_texture_width@@3HA DD 01H DUP (?)		; screen_texture_width
?screen_texture_height@@3HA DD 01H DUP (?)		; screen_texture_height
?r_screenbackuptexture_width@@3HA DD 01H DUP (?)	; r_screenbackuptexture_width
?r_screenbackuptexture_height@@3HA DD 01H DUP (?)	; r_screenbackuptexture_height
?curView_x@@3HA DD 01H DUP (?)				; curView_x
?curView_y@@3HA DD 01H DUP (?)				; curView_y
?curView_width@@3HA DD 01H DUP (?)			; curView_width
?curView_height@@3HA DD 01H DUP (?)			; curView_height
?screenTex_tcw@@3MA DD 01H DUP (?)			; screenTex_tcw
?screenTex_tch@@3MA DD 01H DUP (?)			; screenTex_tch
?sample_width@@3HA DD 01H DUP (?)			; sample_width
?sample_height@@3HA DD 01H DUP (?)			; sample_height
?sampleText_tcw@@3MA DD 01H DUP (?)			; sampleText_tcw
?sampleText_tch@@3MA DD 01H DUP (?)			; sampleText_tch
_BSS	ENDS
;	COMDAT __real@c024000000000000
CONST	SEGMENT
__real@c024000000000000 DQ 0c024000000000000r	; -10
CONST	ENDS
;	COMDAT __real@46040000
CONST	SEGMENT
__real@46040000 DD 046040000r			; 8448
CONST	ENDS
;	COMDAT __real@42000000
CONST	SEGMENT
__real@42000000 DD 042000000r			; 32
CONST	ENDS
;	COMDAT __real@41000000
CONST	SEGMENT
__real@41000000 DD 041000000r			; 8
CONST	ENDS
;	COMDAT __real@40e00000
CONST	SEGMENT
__real@40e00000 DD 040e00000r			; 7
CONST	ENDS
;	COMDAT __real@40c00000
CONST	SEGMENT
__real@40c00000 DD 040c00000r			; 6
CONST	ENDS
;	COMDAT __real@40a00000
CONST	SEGMENT
__real@40a00000 DD 040a00000r			; 5
CONST	ENDS
;	COMDAT __real@40800000
CONST	SEGMENT
__real@40800000 DD 040800000r			; 4
CONST	ENDS
;	COMDAT __real@4059000000000000
CONST	SEGMENT
__real@4059000000000000 DQ 04059000000000000r	; 100
CONST	ENDS
;	COMDAT __real@40400000
CONST	SEGMENT
__real@40400000 DD 040400000r			; 3
CONST	ENDS
;	COMDAT __real@3f800000
CONST	SEGMENT
__real@3f800000 DD 03f800000r			; 1
CONST	ENDS
;	COMDAT __real@3f4ccccd
CONST	SEGMENT
__real@3f4ccccd DD 03f4ccccdr			; 0.8
CONST	ENDS
;	COMDAT __real@3f000000
CONST	SEGMENT
__real@3f000000 DD 03f000000r			; 0.5
CONST	ENDS
;	COMDAT __real@3e99999a
CONST	SEGMENT
__real@3e99999a DD 03e99999ar			; 0.3
CONST	ENDS
;	COMDAT __real@3c23d70a
CONST	SEGMENT
__real@3c23d70a DD 03c23d70ar			; 0.01
CONST	ENDS
;	COMDAT __real@00000000
CONST	SEGMENT
__real@00000000 DD 000000000r			; 0
CONST	ENDS
;	COMDAT ??_C@_0BF@EBOCIPBI@r_bloom_diamond_size?$AA@
CONST	SEGMENT
??_C@_0BF@EBOCIPBI@r_bloom_diamond_size?$AA@ DB 'r_bloom_diamond_size', 00H ; `string'
CONST	ENDS
;	COMDAT ??_C@_0BI@MJLADFKC@?$CKbloomdownsampletexture?$AA@
CONST	SEGMENT
??_C@_0BI@MJLADFKC@?$CKbloomdownsampletexture?$AA@ DB '*bloomdownsamplete'
	DB	'xture', 00H					; `string'
CONST	ENDS
;	COMDAT ??_C@_0BE@IDDGNGLN@?$CKbloomscreentexture?$AA@
CONST	SEGMENT
??_C@_0BE@IDDGNGLN@?$CKbloomscreentexture?$AA@ DB '*bloomscreentexture', 00H ; `string'
CONST	ENDS
;	COMDAT ??_C@_0FB@PFBJHCAK@?8R_InitBloomScreenTexture?8?5too?5h@
CONST	SEGMENT
??_C@_0FB@PFBJHCAK@?8R_InitBloomScreenTexture?8?5too?5h@ DB '''R_InitBloo'
	DB	'mScreenTexture'' too high resolution for light bloom, effect '
	DB	'disabled', 0aH, 00H				; `string'
CONST	ENDS
;	COMDAT ??_C@_07EIFGGFJK@r_bloom?$AA@
CONST	SEGMENT
??_C@_07EIFGGFJK@r_bloom?$AA@ DB 'r_bloom', 00H		; `string'
CONST	ENDS
;	COMDAT ??_C@_0BE@DLIHHMFP@?$CKbloomeffecttexture?$AA@
CONST	SEGMENT
??_C@_0BE@DLIHHMFP@?$CKbloomeffecttexture?$AA@ DB '*bloomeffecttexture', 00H ; `string'
CONST	ENDS
;	COMDAT ??_C@_0BE@FEEHIPNM@r_bloom_sample_size?$AA@
CONST	SEGMENT
??_C@_0BE@FEEHIPNM@r_bloom_sample_size?$AA@ DB 'r_bloom_sample_size', 00H ; `string'
CONST	ENDS
;	COMDAT ??_C@_0BE@JOLACMHC@?$CKbloombackuptexture?$AA@
CONST	SEGMENT
??_C@_0BE@JOLACMHC@?$CKbloombackuptexture?$AA@ DB '*bloombackuptexture', 00H ; `string'
CONST	ENDS
; Function compile flags: /Odtp /ZI
; File d:\!diffusion 2020\source code 2022\client-server\client\render\r_bloom.cpp
;	COMDAT ?R_Bloom_DownsampleView@@YAXXZ
_TEXT	SEGMENT
_midsample_height$1 = -8				; size = 4
_midsample_width$2 = -4					; size = 4
?R_Bloom_DownsampleView@@YAXXZ PROC			; R_Bloom_DownsampleView, COMDAT

; 383  : {

	push	ebp
	mov	ebp, esp
	sub	esp, 72					; 00000048H
	push	ebx
	push	esi
	push	edi

; 384  : 	pglDisable( GL_BLEND );

	push	3042					; 00000be2H
	call	DWORD PTR ?pglDisable@@3P6GXI@ZA	; pglDisable

; 385  : 	pglColor4f( 1.0f, 1.0f, 1.0f, 1.0f );

	push	ecx
	movss	xmm0, DWORD PTR __real@3f800000
	movss	DWORD PTR [esp], xmm0
	push	ecx
	movss	xmm0, DWORD PTR __real@3f800000
	movss	DWORD PTR [esp], xmm0
	push	ecx
	movss	xmm0, DWORD PTR __real@3f800000
	movss	DWORD PTR [esp], xmm0
	push	ecx
	movss	xmm0, DWORD PTR __real@3f800000
	movss	DWORD PTR [esp], xmm0
	call	DWORD PTR ?pglColor4f@@3P6GXMMMM@ZA	; pglColor4f

; 386  : 
; 387  : 	if( r_screendownsamplingtexture_size )

	cmp	DWORD PTR ?r_screendownsamplingtexture_size@@3HA, 0
	je	$LN2@R_Bloom_Do

; 388  : 	{
; 389  : 		// stepped downsample
; 390  : 		int midsample_width = ( r_screendownsamplingtexture_size * sampleText_tcw );

	cvtsi2ss xmm0, DWORD PTR ?r_screendownsamplingtexture_size@@3HA
	mulss	xmm0, DWORD PTR ?sampleText_tcw@@3MA
	cvttss2si eax, xmm0
	mov	DWORD PTR _midsample_width$2[ebp], eax

; 391  : 		int midsample_height = ( r_screendownsamplingtexture_size * sampleText_tch );

	cvtsi2ss xmm0, DWORD PTR ?r_screendownsamplingtexture_size@@3HA
	mulss	xmm0, DWORD PTR ?sampleText_tch@@3MA
	cvttss2si eax, xmm0
	mov	DWORD PTR _midsample_height$1[ebp], eax

; 392  : 
; 393  : 		// copy the screen and draw resized
; 394  : 		GL_Bind( GL_TEXTURE0, r_bloomscreentexture );

	mov	eax, DWORD PTR ?r_bloomscreentexture@@3HA
	push	eax
	push	0
	call	DWORD PTR ?gRenderfuncs@@3Urender_api_s@@A+132
	add	esp, 8

; 395  : 		pglCopyTexSubImage2D( GL_TEXTURE_2D, 0, 0, 0, curView_x, glState.height - ( curView_y + curView_height ), curView_width, curView_height );

	mov	eax, DWORD PTR ?curView_height@@3HA
	push	eax
	mov	ecx, DWORD PTR ?curView_width@@3HA
	push	ecx
	mov	edx, DWORD PTR ?curView_y@@3HA
	add	edx, DWORD PTR ?curView_height@@3HA
	mov	eax, DWORD PTR ?glState@@3UglState_t@@A+4
	sub	eax, edx
	push	eax
	mov	ecx, DWORD PTR ?curView_x@@3HA
	push	ecx
	push	0
	push	0
	push	0
	push	3553					; 00000de1H
	call	DWORD PTR ?pglCopyTexSubImage2D@@3P6GXIHHHHHHH@ZA ; pglCopyTexSubImage2D

; 396  : 		R_Bloom_Quad( 0, glState.height - midsample_height, midsample_width, midsample_height, screenTex_tcw, screenTex_tch );

	push	ecx
	movss	xmm0, DWORD PTR ?screenTex_tch@@3MA
	movss	DWORD PTR [esp], xmm0
	push	ecx
	movss	xmm0, DWORD PTR ?screenTex_tcw@@3MA
	movss	DWORD PTR [esp], xmm0
	mov	eax, DWORD PTR _midsample_height$1[ebp]
	push	eax
	mov	ecx, DWORD PTR _midsample_width$2[ebp]
	push	ecx
	mov	edx, DWORD PTR ?glState@@3UglState_t@@A+4
	sub	edx, DWORD PTR _midsample_height$1[ebp]
	push	edx
	push	0
	call	?R_Bloom_Quad@@YAXHHHHMM@Z		; R_Bloom_Quad
	add	esp, 24					; 00000018H

; 397  : 
; 398  : 		// now copy into downsampling (mid-sized) texture
; 399  : 		GL_Bind( GL_TEXTURE0, r_bloomdownsamplingtexture );

	mov	eax, DWORD PTR ?r_bloomdownsamplingtexture@@3HA
	push	eax
	push	0
	call	DWORD PTR ?gRenderfuncs@@3Urender_api_s@@A+132
	add	esp, 8

; 400  : 		pglCopyTexSubImage2D( GL_TEXTURE_2D, 0, 0, 0, 0, 0, midsample_width, midsample_height );

	mov	eax, DWORD PTR _midsample_height$1[ebp]
	push	eax
	mov	ecx, DWORD PTR _midsample_width$2[ebp]
	push	ecx
	push	0
	push	0
	push	0
	push	0
	push	0
	push	3553					; 00000de1H
	call	DWORD PTR ?pglCopyTexSubImage2D@@3P6GXIHHHHHHH@ZA ; pglCopyTexSubImage2D

; 401  : 
; 402  : 		// now draw again in bloom size
; 403  : 		pglColor4f( 0.5f, 0.5f, 0.5f, 1.0f );

	push	ecx
	movss	xmm0, DWORD PTR __real@3f800000
	movss	DWORD PTR [esp], xmm0
	push	ecx
	movss	xmm0, DWORD PTR __real@3f000000
	movss	DWORD PTR [esp], xmm0
	push	ecx
	movss	xmm0, DWORD PTR __real@3f000000
	movss	DWORD PTR [esp], xmm0
	push	ecx
	movss	xmm0, DWORD PTR __real@3f000000
	movss	DWORD PTR [esp], xmm0
	call	DWORD PTR ?pglColor4f@@3P6GXMMMM@ZA	; pglColor4f

; 404  : 		R_Bloom_Quad( 0, glState.height - sample_height, sample_width, sample_height, sampleText_tcw, sampleText_tch );

	push	ecx
	movss	xmm0, DWORD PTR ?sampleText_tch@@3MA
	movss	DWORD PTR [esp], xmm0
	push	ecx
	movss	xmm0, DWORD PTR ?sampleText_tcw@@3MA
	movss	DWORD PTR [esp], xmm0
	mov	eax, DWORD PTR ?sample_height@@3HA
	push	eax
	mov	ecx, DWORD PTR ?sample_width@@3HA
	push	ecx
	mov	edx, DWORD PTR ?glState@@3UglState_t@@A+4
	sub	edx, DWORD PTR ?sample_height@@3HA
	push	edx
	push	0
	call	?R_Bloom_Quad@@YAXHHHHMM@Z		; R_Bloom_Quad
	add	esp, 24					; 00000018H

; 405  : 
; 406  : 		// now blend the big screen texture into the bloom generation space (hoping it adds some blur)
; 407  : 		pglEnable( GL_BLEND );

	push	3042					; 00000be2H
	call	DWORD PTR ?pglEnable@@3P6GXI@ZA		; pglEnable

; 408  : 		pglBlendFunc( GL_ONE, GL_ONE );

	push	1
	push	1
	call	DWORD PTR ?pglBlendFunc@@3P6GXII@ZA	; pglBlendFunc

; 409  : 		pglColor4f( 0.5f, 0.5f, 0.5f, 1.0f );

	push	ecx
	movss	xmm0, DWORD PTR __real@3f800000
	movss	DWORD PTR [esp], xmm0
	push	ecx
	movss	xmm0, DWORD PTR __real@3f000000
	movss	DWORD PTR [esp], xmm0
	push	ecx
	movss	xmm0, DWORD PTR __real@3f000000
	movss	DWORD PTR [esp], xmm0
	push	ecx
	movss	xmm0, DWORD PTR __real@3f000000
	movss	DWORD PTR [esp], xmm0
	call	DWORD PTR ?pglColor4f@@3P6GXMMMM@ZA	; pglColor4f

; 410  : 		GL_Bind( GL_TEXTURE0, r_bloomscreentexture );

	mov	eax, DWORD PTR ?r_bloomscreentexture@@3HA
	push	eax
	push	0
	call	DWORD PTR ?gRenderfuncs@@3Urender_api_s@@A+132
	add	esp, 8

; 411  : 		R_Bloom_Quad( 0, glState.height - sample_height, sample_width, sample_height, screenTex_tcw, screenTex_tch );

	push	ecx
	movss	xmm0, DWORD PTR ?screenTex_tch@@3MA
	movss	DWORD PTR [esp], xmm0
	push	ecx
	movss	xmm0, DWORD PTR ?screenTex_tcw@@3MA
	movss	DWORD PTR [esp], xmm0
	mov	eax, DWORD PTR ?sample_height@@3HA
	push	eax
	mov	ecx, DWORD PTR ?sample_width@@3HA
	push	ecx
	mov	edx, DWORD PTR ?glState@@3UglState_t@@A+4
	sub	edx, DWORD PTR ?sample_height@@3HA
	push	edx
	push	0
	call	?R_Bloom_Quad@@YAXHHHHMM@Z		; R_Bloom_Quad
	add	esp, 24					; 00000018H

; 412  : 		pglColor4f( 1.0f, 1.0f, 1.0f, 1.0f );

	push	ecx
	movss	xmm0, DWORD PTR __real@3f800000
	movss	DWORD PTR [esp], xmm0
	push	ecx
	movss	xmm0, DWORD PTR __real@3f800000
	movss	DWORD PTR [esp], xmm0
	push	ecx
	movss	xmm0, DWORD PTR __real@3f800000
	movss	DWORD PTR [esp], xmm0
	push	ecx
	movss	xmm0, DWORD PTR __real@3f800000
	movss	DWORD PTR [esp], xmm0
	call	DWORD PTR ?pglColor4f@@3P6GXMMMM@ZA	; pglColor4f

; 413  : 		pglDisable( GL_BLEND );

	push	3042					; 00000be2H
	call	DWORD PTR ?pglDisable@@3P6GXI@ZA	; pglDisable

; 414  : 	}
; 415  : 	else

	jmp	$LN3@R_Bloom_Do
$LN2@R_Bloom_Do:

; 416  : 	{
; 417  : 		// downsample simple
; 418  : 		GL_Bind( GL_TEXTURE0, r_bloomscreentexture );

	mov	eax, DWORD PTR ?r_bloomscreentexture@@3HA
	push	eax
	push	0
	call	DWORD PTR ?gRenderfuncs@@3Urender_api_s@@A+132
	add	esp, 8

; 419  : 		pglCopyTexSubImage2D( GL_TEXTURE_2D, 0, 0, 0, curView_x, glState.height - ( curView_y + curView_height ), curView_width, curView_height );

	mov	eax, DWORD PTR ?curView_height@@3HA
	push	eax
	mov	ecx, DWORD PTR ?curView_width@@3HA
	push	ecx
	mov	edx, DWORD PTR ?curView_y@@3HA
	add	edx, DWORD PTR ?curView_height@@3HA
	mov	eax, DWORD PTR ?glState@@3UglState_t@@A+4
	sub	eax, edx
	push	eax
	mov	ecx, DWORD PTR ?curView_x@@3HA
	push	ecx
	push	0
	push	0
	push	0
	push	3553					; 00000de1H
	call	DWORD PTR ?pglCopyTexSubImage2D@@3P6GXIHHHHHHH@ZA ; pglCopyTexSubImage2D

; 420  : 		R_Bloom_Quad( 0, glState.height - sample_height, sample_width, sample_height, screenTex_tcw, screenTex_tch );

	push	ecx
	movss	xmm0, DWORD PTR ?screenTex_tch@@3MA
	movss	DWORD PTR [esp], xmm0
	push	ecx
	movss	xmm0, DWORD PTR ?screenTex_tcw@@3MA
	movss	DWORD PTR [esp], xmm0
	mov	eax, DWORD PTR ?sample_height@@3HA
	push	eax
	mov	ecx, DWORD PTR ?sample_width@@3HA
	push	ecx
	mov	edx, DWORD PTR ?glState@@3UglState_t@@A+4
	sub	edx, DWORD PTR ?sample_height@@3HA
	push	edx
	push	0
	call	?R_Bloom_Quad@@YAXHHHHMM@Z		; R_Bloom_Quad
	add	esp, 24					; 00000018H
$LN3@R_Bloom_Do:

; 421  : 	}
; 422  : }

	pop	edi
	pop	esi
	pop	ebx
	mov	esp, ebp
	pop	ebp
	ret	0
?R_Bloom_DownsampleView@@YAXXZ ENDP			; R_Bloom_DownsampleView
_TEXT	ENDS
; Function compile flags: /Odtp /ZI
; File d:\!diffusion 2020\source code 2022\client-server\client\render\r_bloom.cpp
;	COMDAT ?R_Bloom_GeneratexDiamonds@@YAXXZ
_TEXT	SEGMENT
_intensity$ = -12					; size = 4
_j$ = -8						; size = 4
_i$ = -4						; size = 4
?R_Bloom_GeneratexDiamonds@@YAXXZ PROC			; R_Bloom_GeneratexDiamonds, COMDAT

; 280  : {

	push	ebp
	mov	ebp, esp
	sub	esp, 76					; 0000004cH
	push	ebx
	push	esi
	push	edi

; 281  : 	int i, j;
; 282  : 	float intensity;
; 283  : 
; 284  : 	// set up sample size workspace
; 285  : 	pglScissor( 0, 0, sample_width, sample_height );

	mov	eax, DWORD PTR ?sample_height@@3HA
	push	eax
	mov	ecx, DWORD PTR ?sample_width@@3HA
	push	ecx
	push	0
	push	0
	call	DWORD PTR ?pglScissor@@3P6GXHHHH@ZA	; pglScissor

; 286  : 	pglViewport( 0, 0, sample_width, sample_height );

	mov	eax, DWORD PTR ?sample_height@@3HA
	push	eax
	mov	ecx, DWORD PTR ?sample_width@@3HA
	push	ecx
	push	0
	push	0
	call	DWORD PTR ?pglViewport@@3P6GXHHHH@ZA	; pglViewport

; 287  : 	pglMatrixMode( GL_PROJECTION );

	push	5889					; 00001701H
	call	DWORD PTR ?pglMatrixMode@@3P6GXI@ZA	; pglMatrixMode

; 288  : 	pglLoadIdentity();

	call	DWORD PTR ?pglLoadIdentity@@3P6GXXZA	; pglLoadIdentity

; 289  : 	pglOrtho( 0, sample_width, sample_height, 0, -10, 100 );

	sub	esp, 8
	movsd	xmm0, QWORD PTR __real@4059000000000000
	movsd	QWORD PTR [esp], xmm0
	sub	esp, 8
	movsd	xmm0, QWORD PTR __real@c024000000000000
	movsd	QWORD PTR [esp], xmm0
	sub	esp, 8
	xorps	xmm0, xmm0
	movsd	QWORD PTR [esp], xmm0
	cvtsi2sd xmm0, DWORD PTR ?sample_height@@3HA
	sub	esp, 8
	movsd	QWORD PTR [esp], xmm0
	cvtsi2sd xmm0, DWORD PTR ?sample_width@@3HA
	sub	esp, 8
	movsd	QWORD PTR [esp], xmm0
	sub	esp, 8
	xorps	xmm0, xmm0
	movsd	QWORD PTR [esp], xmm0
	call	DWORD PTR ?pglOrtho@@3P6GXNNNNNN@ZA	; pglOrtho

; 290  : 	pglMatrixMode( GL_MODELVIEW );

	push	5888					; 00001700H
	call	DWORD PTR ?pglMatrixMode@@3P6GXI@ZA	; pglMatrixMode

; 291  : 	pglLoadIdentity();

	call	DWORD PTR ?pglLoadIdentity@@3P6GXXZA	; pglLoadIdentity

; 292  : 
; 293  : 	// copy small scene into r_bloomeffecttexture
; 294  : 	GL_Bind( GL_TEXTURE0, r_bloomeffecttexture );

	mov	eax, DWORD PTR ?r_bloomeffecttexture@@3HA
	push	eax
	push	0
	call	DWORD PTR ?gRenderfuncs@@3Urender_api_s@@A+132
	add	esp, 8

; 295  : 	pglCopyTexSubImage2D( GL_TEXTURE_2D, 0, 0, 0, 0, 0, sample_width, sample_height );

	mov	eax, DWORD PTR ?sample_height@@3HA
	push	eax
	mov	ecx, DWORD PTR ?sample_width@@3HA
	push	ecx
	push	0
	push	0
	push	0
	push	0
	push	0
	push	3553					; 00000de1H
	call	DWORD PTR ?pglCopyTexSubImage2D@@3P6GXIHHHHHHH@ZA ; pglCopyTexSubImage2D

; 296  : 
; 297  : 	// start modifying the small scene corner
; 298  : 	pglColor4f( 1.0f, 1.0f, 1.0f, 1.0f );

	push	ecx
	movss	xmm0, DWORD PTR __real@3f800000
	movss	DWORD PTR [esp], xmm0
	push	ecx
	movss	xmm0, DWORD PTR __real@3f800000
	movss	DWORD PTR [esp], xmm0
	push	ecx
	movss	xmm0, DWORD PTR __real@3f800000
	movss	DWORD PTR [esp], xmm0
	push	ecx
	movss	xmm0, DWORD PTR __real@3f800000
	movss	DWORD PTR [esp], xmm0
	call	DWORD PTR ?pglColor4f@@3P6GXMMMM@ZA	; pglColor4f

; 299  : 	pglEnable( GL_BLEND );

	push	3042					; 00000be2H
	call	DWORD PTR ?pglEnable@@3P6GXI@ZA		; pglEnable

; 300  : 
; 301  : 	// darkening passes
; 302  : 	if( r_bloom_darken->value )

	mov	eax, DWORD PTR ?r_bloom_darken@@3PAUcvar_s@@A ; r_bloom_darken
	movss	xmm0, DWORD PTR [eax+12]
	ucomiss	xmm0, DWORD PTR __real@00000000
	lahf
	test	ah, 68					; 00000044H
	jnp	SHORT $LN23@R_Bloom_Ge

; 303  : 	{
; 304  : 		pglTexEnvi( GL_TEXTURE_ENV, GL_TEXTURE_ENV_MODE, GL_MODULATE );

	push	8448					; 00002100H
	push	8704					; 00002200H
	push	8960					; 00002300H
	call	DWORD PTR ?pglTexEnvi@@3P6GXIIH@ZA	; pglTexEnvi

; 305  : 		pglBlendFunc( GL_DST_COLOR, GL_ZERO );

	push	0
	push	774					; 00000306H
	call	DWORD PTR ?pglBlendFunc@@3P6GXII@ZA	; pglBlendFunc

; 306  : 
; 307  : 		for( i = 0; i < (int)r_bloom_darken->value; i++ )

	mov	DWORD PTR _i$[ebp], 0
	jmp	SHORT $LN4@R_Bloom_Ge
$LN2@R_Bloom_Ge:
	mov	eax, DWORD PTR _i$[ebp]
	add	eax, 1
	mov	DWORD PTR _i$[ebp], eax
$LN4@R_Bloom_Ge:
	mov	eax, DWORD PTR ?r_bloom_darken@@3PAUcvar_s@@A ; r_bloom_darken
	cvttss2si ecx, DWORD PTR [eax+12]
	cmp	DWORD PTR _i$[ebp], ecx
	jge	SHORT $LN3@R_Bloom_Ge

; 308  : 			R_Bloom_SamplePass( 0, 0 );

	push	0
	push	0
	call	?R_Bloom_SamplePass@@YAXHH@Z		; R_Bloom_SamplePass
	add	esp, 8
	jmp	SHORT $LN2@R_Bloom_Ge
$LN3@R_Bloom_Ge:

; 309  : 
; 310  : 		pglCopyTexSubImage2D( GL_TEXTURE_2D, 0, 0, 0, 0, 0, sample_width, sample_height );

	mov	eax, DWORD PTR ?sample_height@@3HA
	push	eax
	mov	ecx, DWORD PTR ?sample_width@@3HA
	push	ecx
	push	0
	push	0
	push	0
	push	0
	push	0
	push	3553					; 00000de1H
	call	DWORD PTR ?pglCopyTexSubImage2D@@3P6GXIHHHHHHH@ZA ; pglCopyTexSubImage2D
$LN23@R_Bloom_Ge:

; 311  : 	}
; 312  : 
; 313  : 	// bluring passes
; 314  : 	pglBlendFunc( GL_ONE, GL_ONE_MINUS_SRC_COLOR );

	push	769					; 00000301H
	push	1
	call	DWORD PTR ?pglBlendFunc@@3P6GXII@ZA	; pglBlendFunc

; 315  : 
; 316  : 	if( r_bloom_diamond_size->value > 7.0f || r_bloom_diamond_size->value <= 3.0f )

	mov	eax, DWORD PTR ?r_bloom_diamond_size@@3PAUcvar_s@@A ; r_bloom_diamond_size
	movss	xmm0, DWORD PTR [eax+12]
	comiss	xmm0, DWORD PTR __real@40e00000
	ja	SHORT $LN26@R_Bloom_Ge
	mov	eax, DWORD PTR ?r_bloom_diamond_size@@3PAUcvar_s@@A ; r_bloom_diamond_size
	movss	xmm0, DWORD PTR __real@40400000
	comiss	xmm0, DWORD PTR [eax+12]
	jb	$LN24@R_Bloom_Ge
$LN26@R_Bloom_Ge:

; 317  : 	{
; 318  : 		if( r_bloom_diamond_size->value != 8.0f )

	mov	eax, DWORD PTR ?r_bloom_diamond_size@@3PAUcvar_s@@A ; r_bloom_diamond_size
	movss	xmm0, DWORD PTR [eax+12]
	ucomiss	xmm0, DWORD PTR __real@41000000
	lahf
	test	ah, 68					; 00000044H
	jnp	SHORT $LN27@R_Bloom_Ge

; 319  : 			CVAR_SET_FLOAT( "r_bloom_diamond_size", 8.0f );

	push	ecx
	movss	xmm0, DWORD PTR __real@41000000
	movss	DWORD PTR [esp], xmm0
	push	OFFSET ??_C@_0BF@EBOCIPBI@r_bloom_diamond_size?$AA@
	call	DWORD PTR ?gEngfuncs@@3Ucl_enginefuncs_s@@A+148
	add	esp, 8
$LN27@R_Bloom_Ge:

; 320  : 
; 321  : 		for( i = 0; i < r_bloom_diamond_size->value; i++ )

	mov	DWORD PTR _i$[ebp], 0
	jmp	SHORT $LN7@R_Bloom_Ge
$LN5@R_Bloom_Ge:
	mov	eax, DWORD PTR _i$[ebp]
	add	eax, 1
	mov	DWORD PTR _i$[ebp], eax
$LN7@R_Bloom_Ge:
	cvtsi2ss xmm0, DWORD PTR _i$[ebp]
	mov	eax, DWORD PTR ?r_bloom_diamond_size@@3PAUcvar_s@@A ; r_bloom_diamond_size
	movss	xmm1, DWORD PTR [eax+12]
	comiss	xmm1, xmm0
	jbe	$LN6@R_Bloom_Ge

; 322  : 		{
; 323  : 			for( j = 0; j < r_bloom_diamond_size->value; j++ )

	mov	DWORD PTR _j$[ebp], 0
	jmp	SHORT $LN10@R_Bloom_Ge
$LN8@R_Bloom_Ge:
	mov	eax, DWORD PTR _j$[ebp]
	add	eax, 1
	mov	DWORD PTR _j$[ebp], eax
$LN10@R_Bloom_Ge:
	cvtsi2ss xmm0, DWORD PTR _j$[ebp]
	mov	eax, DWORD PTR ?r_bloom_diamond_size@@3PAUcvar_s@@A ; r_bloom_diamond_size
	movss	xmm1, DWORD PTR [eax+12]
	comiss	xmm1, xmm0
	jbe	$LN9@R_Bloom_Ge

; 324  : 			{
; 325  : 				intensity = r_bloom_intensity->value * 0.3f * Diamond8x[i][j];

	mov	eax, DWORD PTR ?r_bloom_intensity@@3PAUcvar_s@@A ; r_bloom_intensity
	movss	xmm0, DWORD PTR [eax+12]
	mulss	xmm0, DWORD PTR __real@3e99999a
	mov	ecx, DWORD PTR _i$[ebp]
	shl	ecx, 5
	mov	edx, DWORD PTR _j$[ebp]
	mulss	xmm0, DWORD PTR ?Diamond8x@@3PAY07MA[ecx+edx*4]
	movss	DWORD PTR _intensity$[ebp], xmm0

; 326  : 				if( intensity < 0.01f ) continue;

	movss	xmm0, DWORD PTR __real@3c23d70a
	comiss	xmm0, DWORD PTR _intensity$[ebp]
	jbe	SHORT $LN28@R_Bloom_Ge
	jmp	SHORT $LN8@R_Bloom_Ge
$LN28@R_Bloom_Ge:

; 327  : 				pglColor4f( intensity, intensity, intensity, 1.0f );

	push	ecx
	movss	xmm0, DWORD PTR __real@3f800000
	movss	DWORD PTR [esp], xmm0
	push	ecx
	movss	xmm0, DWORD PTR _intensity$[ebp]
	movss	DWORD PTR [esp], xmm0
	push	ecx
	movss	xmm0, DWORD PTR _intensity$[ebp]
	movss	DWORD PTR [esp], xmm0
	push	ecx
	movss	xmm0, DWORD PTR _intensity$[ebp]
	movss	DWORD PTR [esp], xmm0
	call	DWORD PTR ?pglColor4f@@3P6GXMMMM@ZA	; pglColor4f

; 328  : 				R_Bloom_SamplePass( i-4, j-4 );

	mov	eax, DWORD PTR _j$[ebp]
	sub	eax, 4
	push	eax
	mov	ecx, DWORD PTR _i$[ebp]
	sub	ecx, 4
	push	ecx
	call	?R_Bloom_SamplePass@@YAXHH@Z		; R_Bloom_SamplePass
	add	esp, 8

; 329  : 			}

	jmp	$LN8@R_Bloom_Ge
$LN9@R_Bloom_Ge:

; 330  : 		}

	jmp	$LN5@R_Bloom_Ge
$LN6@R_Bloom_Ge:

; 331  : 	}
; 332  : 	else if( r_bloom_diamond_size->value > 5.0f )

	jmp	$LN18@R_Bloom_Ge
$LN24@R_Bloom_Ge:
	mov	eax, DWORD PTR ?r_bloom_diamond_size@@3PAUcvar_s@@A ; r_bloom_diamond_size
	movss	xmm0, DWORD PTR [eax+12]
	comiss	xmm0, DWORD PTR __real@40a00000
	jbe	$LN29@R_Bloom_Ge

; 333  : 	{
; 334  : 		if( r_bloom_diamond_size->value != 6.0f )

	mov	eax, DWORD PTR ?r_bloom_diamond_size@@3PAUcvar_s@@A ; r_bloom_diamond_size
	movss	xmm0, DWORD PTR [eax+12]
	ucomiss	xmm0, DWORD PTR __real@40c00000
	lahf
	test	ah, 68					; 00000044H
	jnp	SHORT $LN31@R_Bloom_Ge

; 335  : 			CVAR_SET_FLOAT( "r_bloom_diamond_size", 6.0f );

	push	ecx
	movss	xmm0, DWORD PTR __real@40c00000
	movss	DWORD PTR [esp], xmm0
	push	OFFSET ??_C@_0BF@EBOCIPBI@r_bloom_diamond_size?$AA@
	call	DWORD PTR ?gEngfuncs@@3Ucl_enginefuncs_s@@A+148
	add	esp, 8
$LN31@R_Bloom_Ge:

; 336  : 
; 337  : 		for( i = 0; i < r_bloom_diamond_size->value; i++ )

	mov	DWORD PTR _i$[ebp], 0
	jmp	SHORT $LN13@R_Bloom_Ge
$LN11@R_Bloom_Ge:
	mov	eax, DWORD PTR _i$[ebp]
	add	eax, 1
	mov	DWORD PTR _i$[ebp], eax
$LN13@R_Bloom_Ge:
	cvtsi2ss xmm0, DWORD PTR _i$[ebp]
	mov	eax, DWORD PTR ?r_bloom_diamond_size@@3PAUcvar_s@@A ; r_bloom_diamond_size
	movss	xmm1, DWORD PTR [eax+12]
	comiss	xmm1, xmm0
	jbe	$LN12@R_Bloom_Ge

; 338  : 		{
; 339  : 			for( j = 0; j < r_bloom_diamond_size->value; j++ )

	mov	DWORD PTR _j$[ebp], 0
	jmp	SHORT $LN16@R_Bloom_Ge
$LN14@R_Bloom_Ge:
	mov	eax, DWORD PTR _j$[ebp]
	add	eax, 1
	mov	DWORD PTR _j$[ebp], eax
$LN16@R_Bloom_Ge:
	cvtsi2ss xmm0, DWORD PTR _j$[ebp]
	mov	eax, DWORD PTR ?r_bloom_diamond_size@@3PAUcvar_s@@A ; r_bloom_diamond_size
	movss	xmm1, DWORD PTR [eax+12]
	comiss	xmm1, xmm0
	jbe	$LN15@R_Bloom_Ge

; 340  : 			{
; 341  : 				intensity = r_bloom_intensity->value * 0.5f * Diamond6x[i][j];

	mov	eax, DWORD PTR ?r_bloom_intensity@@3PAUcvar_s@@A ; r_bloom_intensity
	movss	xmm0, DWORD PTR [eax+12]
	mulss	xmm0, DWORD PTR __real@3f000000
	imul	ecx, DWORD PTR _i$[ebp], 24
	mov	edx, DWORD PTR _j$[ebp]
	mulss	xmm0, DWORD PTR ?Diamond6x@@3PAY05MA[ecx+edx*4]
	movss	DWORD PTR _intensity$[ebp], xmm0

; 342  : 				if( intensity < 0.01f ) continue;

	movss	xmm0, DWORD PTR __real@3c23d70a
	comiss	xmm0, DWORD PTR _intensity$[ebp]
	jbe	SHORT $LN32@R_Bloom_Ge
	jmp	SHORT $LN14@R_Bloom_Ge
$LN32@R_Bloom_Ge:

; 343  : 				pglColor4f( intensity, intensity, intensity, 1.0f );

	push	ecx
	movss	xmm0, DWORD PTR __real@3f800000
	movss	DWORD PTR [esp], xmm0
	push	ecx
	movss	xmm0, DWORD PTR _intensity$[ebp]
	movss	DWORD PTR [esp], xmm0
	push	ecx
	movss	xmm0, DWORD PTR _intensity$[ebp]
	movss	DWORD PTR [esp], xmm0
	push	ecx
	movss	xmm0, DWORD PTR _intensity$[ebp]
	movss	DWORD PTR [esp], xmm0
	call	DWORD PTR ?pglColor4f@@3P6GXMMMM@ZA	; pglColor4f

; 344  : 				R_Bloom_SamplePass( i-3, j-3 );

	mov	eax, DWORD PTR _j$[ebp]
	sub	eax, 3
	push	eax
	mov	ecx, DWORD PTR _i$[ebp]
	sub	ecx, 3
	push	ecx
	call	?R_Bloom_SamplePass@@YAXHH@Z		; R_Bloom_SamplePass
	add	esp, 8

; 345  : 			}

	jmp	$LN14@R_Bloom_Ge
$LN15@R_Bloom_Ge:

; 346  : 		}

	jmp	$LN11@R_Bloom_Ge
$LN12@R_Bloom_Ge:

; 347  : 	}
; 348  : 	else if( r_bloom_diamond_size->value > 3.0f )

	jmp	$LN18@R_Bloom_Ge
$LN29@R_Bloom_Ge:
	mov	eax, DWORD PTR ?r_bloom_diamond_size@@3PAUcvar_s@@A ; r_bloom_diamond_size
	movss	xmm0, DWORD PTR [eax+12]
	comiss	xmm0, DWORD PTR __real@40400000
	jbe	$LN18@R_Bloom_Ge

; 349  : 	{
; 350  : 		if( r_bloom_diamond_size->value != 4.0f )

	mov	eax, DWORD PTR ?r_bloom_diamond_size@@3PAUcvar_s@@A ; r_bloom_diamond_size
	movss	xmm0, DWORD PTR [eax+12]
	ucomiss	xmm0, DWORD PTR __real@40800000
	lahf
	test	ah, 68					; 00000044H
	jnp	SHORT $LN34@R_Bloom_Ge

; 351  : 			CVAR_SET_FLOAT( "r_bloom_diamond_size", 4.0f );

	push	ecx
	movss	xmm0, DWORD PTR __real@40800000
	movss	DWORD PTR [esp], xmm0
	push	OFFSET ??_C@_0BF@EBOCIPBI@r_bloom_diamond_size?$AA@
	call	DWORD PTR ?gEngfuncs@@3Ucl_enginefuncs_s@@A+148
	add	esp, 8
$LN34@R_Bloom_Ge:

; 352  : 
; 353  : 		for( i = 0; i < r_bloom_diamond_size->value; i++ )

	mov	DWORD PTR _i$[ebp], 0
	jmp	SHORT $LN19@R_Bloom_Ge
$LN17@R_Bloom_Ge:
	mov	eax, DWORD PTR _i$[ebp]
	add	eax, 1
	mov	DWORD PTR _i$[ebp], eax
$LN19@R_Bloom_Ge:
	cvtsi2ss xmm0, DWORD PTR _i$[ebp]
	mov	eax, DWORD PTR ?r_bloom_diamond_size@@3PAUcvar_s@@A ; r_bloom_diamond_size
	movss	xmm1, DWORD PTR [eax+12]
	comiss	xmm1, xmm0
	jbe	$LN18@R_Bloom_Ge

; 354  : 		{
; 355  : 			for( j = 0; j < r_bloom_diamond_size->value; j++ )

	mov	DWORD PTR _j$[ebp], 0
	jmp	SHORT $LN22@R_Bloom_Ge
$LN20@R_Bloom_Ge:
	mov	eax, DWORD PTR _j$[ebp]
	add	eax, 1
	mov	DWORD PTR _j$[ebp], eax
$LN22@R_Bloom_Ge:
	cvtsi2ss xmm0, DWORD PTR _j$[ebp]
	mov	eax, DWORD PTR ?r_bloom_diamond_size@@3PAUcvar_s@@A ; r_bloom_diamond_size
	movss	xmm1, DWORD PTR [eax+12]
	comiss	xmm1, xmm0
	jbe	$LN21@R_Bloom_Ge

; 356  : 			{
; 357  : 				intensity = r_bloom_intensity->value * 0.8f * Diamond4x[i][j];

	mov	eax, DWORD PTR ?r_bloom_intensity@@3PAUcvar_s@@A ; r_bloom_intensity
	movss	xmm0, DWORD PTR [eax+12]
	mulss	xmm0, DWORD PTR __real@3f4ccccd
	mov	ecx, DWORD PTR _i$[ebp]
	shl	ecx, 4
	mov	edx, DWORD PTR _j$[ebp]
	mulss	xmm0, DWORD PTR ?Diamond4x@@3PAY03MA[ecx+edx*4]
	movss	DWORD PTR _intensity$[ebp], xmm0

; 358  : 				if( intensity < 0.01f ) continue;

	movss	xmm0, DWORD PTR __real@3c23d70a
	comiss	xmm0, DWORD PTR _intensity$[ebp]
	jbe	SHORT $LN35@R_Bloom_Ge
	jmp	SHORT $LN20@R_Bloom_Ge
$LN35@R_Bloom_Ge:

; 359  : 				pglColor4f( intensity, intensity, intensity, 1.0f );

	push	ecx
	movss	xmm0, DWORD PTR __real@3f800000
	movss	DWORD PTR [esp], xmm0
	push	ecx
	movss	xmm0, DWORD PTR _intensity$[ebp]
	movss	DWORD PTR [esp], xmm0
	push	ecx
	movss	xmm0, DWORD PTR _intensity$[ebp]
	movss	DWORD PTR [esp], xmm0
	push	ecx
	movss	xmm0, DWORD PTR _intensity$[ebp]
	movss	DWORD PTR [esp], xmm0
	call	DWORD PTR ?pglColor4f@@3P6GXMMMM@ZA	; pglColor4f

; 360  : 				R_Bloom_SamplePass( i-2, j-2 );

	mov	eax, DWORD PTR _j$[ebp]
	sub	eax, 2
	push	eax
	mov	ecx, DWORD PTR _i$[ebp]
	sub	ecx, 2
	push	ecx
	call	?R_Bloom_SamplePass@@YAXHH@Z		; R_Bloom_SamplePass
	add	esp, 8

; 361  : 			}

	jmp	$LN20@R_Bloom_Ge
$LN21@R_Bloom_Ge:

; 362  : 		}

	jmp	$LN17@R_Bloom_Ge
$LN18@R_Bloom_Ge:

; 363  : 	}
; 364  : 
; 365  : 	pglCopyTexSubImage2D( GL_TEXTURE_2D, 0, 0, 0, 0, 0, sample_width, sample_height );

	mov	eax, DWORD PTR ?sample_height@@3HA
	push	eax
	mov	ecx, DWORD PTR ?sample_width@@3HA
	push	ecx
	push	0
	push	0
	push	0
	push	0
	push	0
	push	3553					; 00000de1H
	call	DWORD PTR ?pglCopyTexSubImage2D@@3P6GXIHHHHHHH@ZA ; pglCopyTexSubImage2D

; 366  : 
; 367  : 	// restore full screen workspace
; 368  : 	pglScissor( 0, 0, glState.width, glState.height );

	mov	eax, DWORD PTR ?glState@@3UglState_t@@A+4
	push	eax
	mov	ecx, DWORD PTR ?glState@@3UglState_t@@A
	push	ecx
	push	0
	push	0
	call	DWORD PTR ?pglScissor@@3P6GXHHHH@ZA	; pglScissor

; 369  : 	pglViewport( 0, 0, glState.width, glState.height );

	mov	eax, DWORD PTR ?glState@@3UglState_t@@A+4
	push	eax
	mov	ecx, DWORD PTR ?glState@@3UglState_t@@A
	push	ecx
	push	0
	push	0
	call	DWORD PTR ?pglViewport@@3P6GXHHHH@ZA	; pglViewport

; 370  : 	pglMatrixMode( GL_PROJECTION );

	push	5889					; 00001701H
	call	DWORD PTR ?pglMatrixMode@@3P6GXI@ZA	; pglMatrixMode

; 371  : 	pglLoadIdentity();

	call	DWORD PTR ?pglLoadIdentity@@3P6GXXZA	; pglLoadIdentity

; 372  : 	pglOrtho( 0, glState.width, glState.height, 0, -10, 100 );

	sub	esp, 8
	movsd	xmm0, QWORD PTR __real@4059000000000000
	movsd	QWORD PTR [esp], xmm0
	sub	esp, 8
	movsd	xmm0, QWORD PTR __real@c024000000000000
	movsd	QWORD PTR [esp], xmm0
	sub	esp, 8
	xorps	xmm0, xmm0
	movsd	QWORD PTR [esp], xmm0
	cvtsi2sd xmm0, DWORD PTR ?glState@@3UglState_t@@A+4
	sub	esp, 8
	movsd	QWORD PTR [esp], xmm0
	cvtsi2sd xmm0, DWORD PTR ?glState@@3UglState_t@@A
	sub	esp, 8
	movsd	QWORD PTR [esp], xmm0
	sub	esp, 8
	xorps	xmm0, xmm0
	movsd	QWORD PTR [esp], xmm0
	call	DWORD PTR ?pglOrtho@@3P6GXNNNNNN@ZA	; pglOrtho

; 373  : 	pglMatrixMode( GL_MODELVIEW );

	push	5888					; 00001700H
	call	DWORD PTR ?pglMatrixMode@@3P6GXI@ZA	; pglMatrixMode

; 374  : 	pglLoadIdentity();

	call	DWORD PTR ?pglLoadIdentity@@3P6GXXZA	; pglLoadIdentity

; 375  : }

	pop	edi
	pop	esi
	pop	ebx
	mov	esp, ebp
	pop	ebp
	ret	0
?R_Bloom_GeneratexDiamonds@@YAXXZ ENDP			; R_Bloom_GeneratexDiamonds
_TEXT	ENDS
; Function compile flags: /Odtp /ZI
; File d:\!diffusion 2020\source code 2022\client-server\client\render\r_bloom.cpp
;	COMDAT ?R_Bloom_DrawEffect@@YAXXZ
_TEXT	SEGMENT
?R_Bloom_DrawEffect@@YAXXZ PROC				; R_Bloom_DrawEffect, COMDAT

; 253  : {

	push	ebp
	mov	ebp, esp
	sub	esp, 64					; 00000040H
	push	ebx
	push	esi
	push	edi

; 254  : 	GL_Bind( GL_TEXTURE0, r_bloomeffecttexture );

	mov	eax, DWORD PTR ?r_bloomeffecttexture@@3HA
	push	eax
	push	0
	call	DWORD PTR ?gRenderfuncs@@3Urender_api_s@@A+132
	add	esp, 8

; 255  : 	pglTexEnvi( GL_TEXTURE_ENV, GL_TEXTURE_ENV_MODE, GL_MODULATE );

	push	8448					; 00002100H
	push	8704					; 00002200H
	push	8960					; 00002300H
	call	DWORD PTR ?pglTexEnvi@@3P6GXIIH@ZA	; pglTexEnvi

; 256  : 	pglColor4f( r_bloom_alpha->value, r_bloom_alpha->value, r_bloom_alpha->value, 1.0f );

	push	ecx
	movss	xmm0, DWORD PTR __real@3f800000
	movss	DWORD PTR [esp], xmm0
	mov	eax, DWORD PTR ?r_bloom_alpha@@3PAUcvar_s@@A ; r_bloom_alpha
	push	ecx
	movss	xmm0, DWORD PTR [eax+12]
	movss	DWORD PTR [esp], xmm0
	mov	ecx, DWORD PTR ?r_bloom_alpha@@3PAUcvar_s@@A ; r_bloom_alpha
	push	ecx
	movss	xmm0, DWORD PTR [ecx+12]
	movss	DWORD PTR [esp], xmm0
	mov	edx, DWORD PTR ?r_bloom_alpha@@3PAUcvar_s@@A ; r_bloom_alpha
	push	ecx
	movss	xmm0, DWORD PTR [edx+12]
	movss	DWORD PTR [esp], xmm0
	call	DWORD PTR ?pglColor4f@@3P6GXMMMM@ZA	; pglColor4f

; 257  : 	pglBlendFunc( GL_ONE, GL_ONE );

	push	1
	push	1
	call	DWORD PTR ?pglBlendFunc@@3P6GXII@ZA	; pglBlendFunc

; 258  : 	pglEnable( GL_BLEND );

	push	3042					; 00000be2H
	call	DWORD PTR ?pglEnable@@3P6GXI@ZA		; pglEnable

; 259  : 
; 260  : 	pglBegin( GL_QUADS );

	push	7
	call	DWORD PTR ?pglBegin@@3P6GXI@ZA		; pglBegin

; 261  : 		pglTexCoord2f( 0, sampleText_tch );

	push	ecx
	movss	xmm0, DWORD PTR ?sampleText_tch@@3MA
	movss	DWORD PTR [esp], xmm0
	push	ecx
	xorps	xmm0, xmm0
	movss	DWORD PTR [esp], xmm0
	call	DWORD PTR ?pglTexCoord2f@@3P6GXMM@ZA	; pglTexCoord2f

; 262  : 		pglVertex2f( curView_x, curView_y );

	cvtsi2ss xmm0, DWORD PTR ?curView_y@@3HA
	push	ecx
	movss	DWORD PTR [esp], xmm0
	cvtsi2ss xmm0, DWORD PTR ?curView_x@@3HA
	push	ecx
	movss	DWORD PTR [esp], xmm0
	call	DWORD PTR ?pglVertex2f@@3P6GXMM@ZA	; pglVertex2f

; 263  : 		pglTexCoord2f( 0, 0 );

	push	ecx
	xorps	xmm0, xmm0
	movss	DWORD PTR [esp], xmm0
	push	ecx
	xorps	xmm0, xmm0
	movss	DWORD PTR [esp], xmm0
	call	DWORD PTR ?pglTexCoord2f@@3P6GXMM@ZA	; pglTexCoord2f

; 264  : 		pglVertex2f( curView_x, curView_y+curView_height );

	mov	eax, DWORD PTR ?curView_y@@3HA
	add	eax, DWORD PTR ?curView_height@@3HA
	cvtsi2ss xmm0, eax
	push	ecx
	movss	DWORD PTR [esp], xmm0
	cvtsi2ss xmm0, DWORD PTR ?curView_x@@3HA
	push	ecx
	movss	DWORD PTR [esp], xmm0
	call	DWORD PTR ?pglVertex2f@@3P6GXMM@ZA	; pglVertex2f

; 265  : 		pglTexCoord2f( sampleText_tcw, 0 );

	push	ecx
	xorps	xmm0, xmm0
	movss	DWORD PTR [esp], xmm0
	push	ecx
	movss	xmm0, DWORD PTR ?sampleText_tcw@@3MA
	movss	DWORD PTR [esp], xmm0
	call	DWORD PTR ?pglTexCoord2f@@3P6GXMM@ZA	; pglTexCoord2f

; 266  : 		pglVertex2f( curView_x+curView_width, curView_y+curView_height );

	mov	eax, DWORD PTR ?curView_y@@3HA
	add	eax, DWORD PTR ?curView_height@@3HA
	cvtsi2ss xmm0, eax
	push	ecx
	movss	DWORD PTR [esp], xmm0
	mov	ecx, DWORD PTR ?curView_x@@3HA
	add	ecx, DWORD PTR ?curView_width@@3HA
	cvtsi2ss xmm0, ecx
	push	ecx
	movss	DWORD PTR [esp], xmm0
	call	DWORD PTR ?pglVertex2f@@3P6GXMM@ZA	; pglVertex2f

; 267  : 		pglTexCoord2f( sampleText_tcw, sampleText_tch );

	push	ecx
	movss	xmm0, DWORD PTR ?sampleText_tch@@3MA
	movss	DWORD PTR [esp], xmm0
	push	ecx
	movss	xmm0, DWORD PTR ?sampleText_tcw@@3MA
	movss	DWORD PTR [esp], xmm0
	call	DWORD PTR ?pglTexCoord2f@@3P6GXMM@ZA	; pglTexCoord2f

; 268  : 		pglVertex2f( curView_x+curView_width, curView_y );

	cvtsi2ss xmm0, DWORD PTR ?curView_y@@3HA
	push	ecx
	movss	DWORD PTR [esp], xmm0
	mov	eax, DWORD PTR ?curView_x@@3HA
	add	eax, DWORD PTR ?curView_width@@3HA
	cvtsi2ss xmm0, eax
	push	ecx
	movss	DWORD PTR [esp], xmm0
	call	DWORD PTR ?pglVertex2f@@3P6GXMM@ZA	; pglVertex2f

; 269  : 	pglEnd();

	call	DWORD PTR ?pglEnd@@3P6GXXZA		; pglEnd

; 270  : 
; 271  : 	pglDisable( GL_BLEND );

	push	3042					; 00000be2H
	call	DWORD PTR ?pglDisable@@3P6GXI@ZA	; pglDisable

; 272  : }

	pop	edi
	pop	esi
	pop	ebx
	mov	esp, ebp
	pop	ebp
	ret	0
?R_Bloom_DrawEffect@@YAXXZ ENDP				; R_Bloom_DrawEffect
_TEXT	ENDS
; Function compile flags: /Odtp /ZI
; File d:\!diffusion 2020\source code 2022\client-server\client\render\r_bloom.cpp
;	COMDAT ?R_Bloom_Quad@@YAXHHHHMM@Z
_TEXT	SEGMENT
_x$ = 8							; size = 4
_y$ = 12						; size = 4
_w$ = 16						; size = 4
_h$ = 20						; size = 4
_texwidth$ = 24						; size = 4
_texheight$ = 28					; size = 4
?R_Bloom_Quad@@YAXHHHHMM@Z PROC				; R_Bloom_Quad, COMDAT

; 234  : {

	push	ebp
	mov	ebp, esp
	sub	esp, 64					; 00000040H
	push	ebx
	push	esi
	push	edi

; 235  : 	pglBegin( GL_QUADS );

	push	7
	call	DWORD PTR ?pglBegin@@3P6GXI@ZA		; pglBegin

; 236  : 		pglTexCoord2f( 0, texheight );

	push	ecx
	movss	xmm0, DWORD PTR _texheight$[ebp]
	movss	DWORD PTR [esp], xmm0
	push	ecx
	xorps	xmm0, xmm0
	movss	DWORD PTR [esp], xmm0
	call	DWORD PTR ?pglTexCoord2f@@3P6GXMM@ZA	; pglTexCoord2f

; 237  : 		pglVertex2f( x, y );

	cvtsi2ss xmm0, DWORD PTR _y$[ebp]
	push	ecx
	movss	DWORD PTR [esp], xmm0
	cvtsi2ss xmm0, DWORD PTR _x$[ebp]
	push	ecx
	movss	DWORD PTR [esp], xmm0
	call	DWORD PTR ?pglVertex2f@@3P6GXMM@ZA	; pglVertex2f

; 238  : 		pglTexCoord2f( 0, 0 );

	push	ecx
	xorps	xmm0, xmm0
	movss	DWORD PTR [esp], xmm0
	push	ecx
	xorps	xmm0, xmm0
	movss	DWORD PTR [esp], xmm0
	call	DWORD PTR ?pglTexCoord2f@@3P6GXMM@ZA	; pglTexCoord2f

; 239  : 		pglVertex2f( x, y+h );

	mov	eax, DWORD PTR _y$[ebp]
	add	eax, DWORD PTR _h$[ebp]
	cvtsi2ss xmm0, eax
	push	ecx
	movss	DWORD PTR [esp], xmm0
	cvtsi2ss xmm0, DWORD PTR _x$[ebp]
	push	ecx
	movss	DWORD PTR [esp], xmm0
	call	DWORD PTR ?pglVertex2f@@3P6GXMM@ZA	; pglVertex2f

; 240  : 		pglTexCoord2f( texwidth, 0 );

	push	ecx
	xorps	xmm0, xmm0
	movss	DWORD PTR [esp], xmm0
	push	ecx
	movss	xmm0, DWORD PTR _texwidth$[ebp]
	movss	DWORD PTR [esp], xmm0
	call	DWORD PTR ?pglTexCoord2f@@3P6GXMM@ZA	; pglTexCoord2f

; 241  : 		pglVertex2f( x+w, y+h );

	mov	eax, DWORD PTR _y$[ebp]
	add	eax, DWORD PTR _h$[ebp]
	cvtsi2ss xmm0, eax
	push	ecx
	movss	DWORD PTR [esp], xmm0
	mov	ecx, DWORD PTR _x$[ebp]
	add	ecx, DWORD PTR _w$[ebp]
	cvtsi2ss xmm0, ecx
	push	ecx
	movss	DWORD PTR [esp], xmm0
	call	DWORD PTR ?pglVertex2f@@3P6GXMM@ZA	; pglVertex2f

; 242  : 		pglTexCoord2f( texwidth, texheight );

	push	ecx
	movss	xmm0, DWORD PTR _texheight$[ebp]
	movss	DWORD PTR [esp], xmm0
	push	ecx
	movss	xmm0, DWORD PTR _texwidth$[ebp]
	movss	DWORD PTR [esp], xmm0
	call	DWORD PTR ?pglTexCoord2f@@3P6GXMM@ZA	; pglTexCoord2f

; 243  : 		pglVertex2f( x+w, y );

	cvtsi2ss xmm0, DWORD PTR _y$[ebp]
	push	ecx
	movss	DWORD PTR [esp], xmm0
	mov	eax, DWORD PTR _x$[ebp]
	add	eax, DWORD PTR _w$[ebp]
	cvtsi2ss xmm0, eax
	push	ecx
	movss	DWORD PTR [esp], xmm0
	call	DWORD PTR ?pglVertex2f@@3P6GXMM@ZA	; pglVertex2f

; 244  : 	pglEnd();

	call	DWORD PTR ?pglEnd@@3P6GXXZA		; pglEnd

; 245  : }

	pop	edi
	pop	esi
	pop	ebx
	mov	esp, ebp
	pop	ebp
	ret	0
?R_Bloom_Quad@@YAXHHHHMM@Z ENDP				; R_Bloom_Quad
_TEXT	ENDS
; Function compile flags: /Odtp /ZI
; File d:\!diffusion 2020\source code 2022\client-server\client\render\r_bloom.cpp
;	COMDAT ?R_Bloom_SamplePass@@YAXHH@Z
_TEXT	SEGMENT
_xpos$ = 8						; size = 4
_ypos$ = 12						; size = 4
?R_Bloom_SamplePass@@YAXHH@Z PROC			; R_Bloom_SamplePass, COMDAT

; 215  : {

	push	ebp
	mov	ebp, esp
	sub	esp, 64					; 00000040H
	push	ebx
	push	esi
	push	edi

; 216  : 	pglBegin( GL_QUADS );

	push	7
	call	DWORD PTR ?pglBegin@@3P6GXI@ZA		; pglBegin

; 217  : 		pglTexCoord2f( 0, sampleText_tch );

	push	ecx
	movss	xmm0, DWORD PTR ?sampleText_tch@@3MA
	movss	DWORD PTR [esp], xmm0
	push	ecx
	xorps	xmm0, xmm0
	movss	DWORD PTR [esp], xmm0
	call	DWORD PTR ?pglTexCoord2f@@3P6GXMM@ZA	; pglTexCoord2f

; 218  : 		pglVertex2f( xpos, ypos );

	cvtsi2ss xmm0, DWORD PTR _ypos$[ebp]
	push	ecx
	movss	DWORD PTR [esp], xmm0
	cvtsi2ss xmm0, DWORD PTR _xpos$[ebp]
	push	ecx
	movss	DWORD PTR [esp], xmm0
	call	DWORD PTR ?pglVertex2f@@3P6GXMM@ZA	; pglVertex2f

; 219  : 		pglTexCoord2f( 0, 0 );

	push	ecx
	xorps	xmm0, xmm0
	movss	DWORD PTR [esp], xmm0
	push	ecx
	xorps	xmm0, xmm0
	movss	DWORD PTR [esp], xmm0
	call	DWORD PTR ?pglTexCoord2f@@3P6GXMM@ZA	; pglTexCoord2f

; 220  : 		pglVertex2f( xpos, ypos+sample_height );

	mov	eax, DWORD PTR _ypos$[ebp]
	add	eax, DWORD PTR ?sample_height@@3HA
	cvtsi2ss xmm0, eax
	push	ecx
	movss	DWORD PTR [esp], xmm0
	cvtsi2ss xmm0, DWORD PTR _xpos$[ebp]
	push	ecx
	movss	DWORD PTR [esp], xmm0
	call	DWORD PTR ?pglVertex2f@@3P6GXMM@ZA	; pglVertex2f

; 221  : 		pglTexCoord2f( sampleText_tcw, 0 );

	push	ecx
	xorps	xmm0, xmm0
	movss	DWORD PTR [esp], xmm0
	push	ecx
	movss	xmm0, DWORD PTR ?sampleText_tcw@@3MA
	movss	DWORD PTR [esp], xmm0
	call	DWORD PTR ?pglTexCoord2f@@3P6GXMM@ZA	; pglTexCoord2f

; 222  : 		pglVertex2f( xpos+sample_width, ypos+sample_height );

	mov	eax, DWORD PTR _ypos$[ebp]
	add	eax, DWORD PTR ?sample_height@@3HA
	cvtsi2ss xmm0, eax
	push	ecx
	movss	DWORD PTR [esp], xmm0
	mov	ecx, DWORD PTR _xpos$[ebp]
	add	ecx, DWORD PTR ?sample_width@@3HA
	cvtsi2ss xmm0, ecx
	push	ecx
	movss	DWORD PTR [esp], xmm0
	call	DWORD PTR ?pglVertex2f@@3P6GXMM@ZA	; pglVertex2f

; 223  : 		pglTexCoord2f( sampleText_tcw, sampleText_tch );

	push	ecx
	movss	xmm0, DWORD PTR ?sampleText_tch@@3MA
	movss	DWORD PTR [esp], xmm0
	push	ecx
	movss	xmm0, DWORD PTR ?sampleText_tcw@@3MA
	movss	DWORD PTR [esp], xmm0
	call	DWORD PTR ?pglTexCoord2f@@3P6GXMM@ZA	; pglTexCoord2f

; 224  : 		pglVertex2f( xpos+sample_width, ypos );

	cvtsi2ss xmm0, DWORD PTR _ypos$[ebp]
	push	ecx
	movss	DWORD PTR [esp], xmm0
	mov	eax, DWORD PTR _xpos$[ebp]
	add	eax, DWORD PTR ?sample_width@@3HA
	cvtsi2ss xmm0, eax
	push	ecx
	movss	DWORD PTR [esp], xmm0
	call	DWORD PTR ?pglVertex2f@@3P6GXMM@ZA	; pglVertex2f

; 225  : 	pglEnd();

	call	DWORD PTR ?pglEnd@@3P6GXXZA		; pglEnd

; 226  : }

	pop	edi
	pop	esi
	pop	ebx
	mov	esp, ebp
	pop	ebp
	ret	0
?R_Bloom_SamplePass@@YAXHH@Z ENDP			; R_Bloom_SamplePass
_TEXT	ENDS
; Function compile flags: /Odtp /ZI
; File d:\!diffusion 2020\source code 2022\client-server\client\render\r_bloom.cpp
;	COMDAT ?R_Bloom_InitTextures@@YAXXZ
_TEXT	SEGMENT
?R_Bloom_InitTextures@@YAXXZ PROC			; R_Bloom_InitTextures, COMDAT

; 138  : {

	push	ebp
	mov	ebp, esp
	sub	esp, 64					; 00000040H
	push	ebx
	push	esi
	push	edi

; 139  : 	if( GL_Support( R_ARB_TEXTURE_NPOT_EXT ))

	push	16					; 00000010H
	call	?GL_Support@@YA_NH@Z			; GL_Support
	add	esp, 4
	movzx	eax, al
	test	eax, eax
	je	SHORT $LN8@R_Bloom_In

; 140  : 	{
; 141  : 		screen_texture_width = glState.width;

	mov	eax, DWORD PTR ?glState@@3UglState_t@@A
	mov	DWORD PTR ?screen_texture_width@@3HA, eax

; 142  : 		screen_texture_height = glState.height;

	mov	eax, DWORD PTR ?glState@@3UglState_t@@A+4
	mov	DWORD PTR ?screen_texture_height@@3HA, eax

; 143  : 	}
; 144  : 	else

	jmp	SHORT $LN6@R_Bloom_In
$LN8@R_Bloom_In:

; 145  : 	{
; 146  : 		// find closer power of 2 to screen size 
; 147  : 		for( screen_texture_width = 1; screen_texture_width < glState.width; screen_texture_width <<= 1 );

	mov	DWORD PTR ?screen_texture_width@@3HA, 1
	jmp	SHORT $LN4@R_Bloom_In
$LN2@R_Bloom_In:
	mov	eax, DWORD PTR ?screen_texture_width@@3HA
	shl	eax, 1
	mov	DWORD PTR ?screen_texture_width@@3HA, eax
$LN4@R_Bloom_In:
	mov	eax, DWORD PTR ?screen_texture_width@@3HA
	cmp	eax, DWORD PTR ?glState@@3UglState_t@@A
	jge	SHORT $LN3@R_Bloom_In
	jmp	SHORT $LN2@R_Bloom_In
$LN3@R_Bloom_In:

; 148  : 		for( screen_texture_height = 1; screen_texture_height < glState.height; screen_texture_height <<= 1 );

	mov	DWORD PTR ?screen_texture_height@@3HA, 1
	jmp	SHORT $LN7@R_Bloom_In
$LN5@R_Bloom_In:
	mov	eax, DWORD PTR ?screen_texture_height@@3HA
	shl	eax, 1
	mov	DWORD PTR ?screen_texture_height@@3HA, eax
$LN7@R_Bloom_In:
	mov	eax, DWORD PTR ?screen_texture_height@@3HA
	cmp	eax, DWORD PTR ?glState@@3UglState_t@@A+4
	jge	SHORT $LN6@R_Bloom_In
	jmp	SHORT $LN5@R_Bloom_In
$LN6@R_Bloom_In:

; 149  : 	}
; 150  : 
; 151  : 	// disable blooms if we can't handle a texture of that size
; 152  : 	if( screen_texture_width > glConfig.max_2d_texture_size || screen_texture_height > glConfig.max_2d_texture_size )

	mov	eax, DWORD PTR ?screen_texture_width@@3HA
	cmp	eax, DWORD PTR ?glConfig@@3UglConfig_t@@A+56
	jg	SHORT $LN11@R_Bloom_In
	mov	eax, DWORD PTR ?screen_texture_height@@3HA
	cmp	eax, DWORD PTR ?glConfig@@3UglConfig_t@@A+56
	jle	SHORT $LN10@R_Bloom_In
$LN11@R_Bloom_In:

; 153  : 	{
; 154  : 		screen_texture_width = screen_texture_height = 0;

	mov	DWORD PTR ?screen_texture_height@@3HA, 0
	mov	eax, DWORD PTR ?screen_texture_height@@3HA
	mov	DWORD PTR ?screen_texture_width@@3HA, eax

; 155  : 		CVAR_SET_FLOAT( "r_bloom", 0.0f );

	push	ecx
	xorps	xmm0, xmm0
	movss	DWORD PTR [esp], xmm0
	push	OFFSET ??_C@_07EIFGGFJK@r_bloom?$AA@
	call	DWORD PTR ?gEngfuncs@@3Ucl_enginefuncs_s@@A+148
	add	esp, 8

; 156  : 		ALERT( at_warning, "'R_InitBloomScreenTexture' too high resolution for light bloom, effect disabled\n" );

	push	OFFSET ??_C@_0FB@PFBJHCAK@?8R_InitBloomScreenTexture?8?5too?5h@
	push	3
	call	?ALERT@@YAXW4ALERT_TYPE@@PADZZ		; ALERT
	add	esp, 8

; 157  : 		return;

	jmp	$LN1@R_Bloom_In
$LN10@R_Bloom_In:

; 158  : 	}
; 159  : 
; 160  : 	r_bloomscreentexture = CREATE_TEXTURE( "*bloomscreentexture", screen_texture_width, screen_texture_height, NULL, TF_IMAGE ); 

	push	6144					; 00001800H
	push	0
	mov	eax, DWORD PTR ?screen_texture_height@@3HA
	push	eax
	mov	ecx, DWORD PTR ?screen_texture_width@@3HA
	push	ecx
	push	OFFSET ??_C@_0BE@IDDGNGLN@?$CKbloomscreentexture?$AA@
	call	DWORD PTR ?gRenderfuncs@@3Urender_api_s@@A+64
	add	esp, 20					; 00000014H
	mov	DWORD PTR ?r_bloomscreentexture@@3HA, eax

; 161  : 
; 162  : 	// validate bloom size and init the bloom effect texture
; 163  : 	R_Bloom_InitEffectTexture();

	call	?R_Bloom_InitEffectTexture@@YAXXZ	; R_Bloom_InitEffectTexture

; 164  : 
; 165  : 	// if screensize is more than 2x the bloom effect texture, set up for stepped downsampling
; 166  : 	r_bloomdownsamplingtexture = 0;

	mov	DWORD PTR ?r_bloomdownsamplingtexture@@3HA, 0

; 167  : 	r_screendownsamplingtexture_size = 0;

	mov	DWORD PTR ?r_screendownsamplingtexture_size@@3HA, 0

; 168  : 
; 169  : 	if(( glState.width > (BLOOM_SIZE * 2) || glState.height > (BLOOM_SIZE * 2)) && !r_bloom_fast_sample->value )

	mov	eax, DWORD PTR ?BLOOM_SIZE@@3HA
	shl	eax, 1
	cmp	DWORD PTR ?glState@@3UglState_t@@A, eax
	jg	SHORT $LN13@R_Bloom_In
	mov	eax, DWORD PTR ?BLOOM_SIZE@@3HA
	shl	eax, 1
	cmp	DWORD PTR ?glState@@3UglState_t@@A+4, eax
	jle	SHORT $LN12@R_Bloom_In
$LN13@R_Bloom_In:
	mov	eax, DWORD PTR ?r_bloom_fast_sample@@3PAUcvar_s@@A ; r_bloom_fast_sample
	movss	xmm0, DWORD PTR [eax+12]
	ucomiss	xmm0, DWORD PTR __real@00000000
	lahf
	test	ah, 68					; 00000044H
	jp	SHORT $LN12@R_Bloom_In

; 170  : 	{
; 171  : 		r_screendownsamplingtexture_size = (int)( BLOOM_SIZE * 2 );

	mov	eax, DWORD PTR ?BLOOM_SIZE@@3HA
	shl	eax, 1
	mov	DWORD PTR ?r_screendownsamplingtexture_size@@3HA, eax

; 172  : 		r_bloomdownsamplingtexture = CREATE_TEXTURE( "*bloomdownsampletexture", r_screendownsamplingtexture_size,

	push	6144					; 00001800H
	push	0
	mov	eax, DWORD PTR ?r_screendownsamplingtexture_size@@3HA
	push	eax
	mov	ecx, DWORD PTR ?r_screendownsamplingtexture_size@@3HA
	push	ecx
	push	OFFSET ??_C@_0BI@MJLADFKC@?$CKbloomdownsampletexture?$AA@
	call	DWORD PTR ?gRenderfuncs@@3Urender_api_s@@A+64
	add	esp, 20					; 00000014H
	mov	DWORD PTR ?r_bloomdownsamplingtexture@@3HA, eax
$LN12@R_Bloom_In:

; 173  : 		r_screendownsamplingtexture_size, NULL, TF_IMAGE ); 
; 174  : 	}
; 175  : 
; 176  : 	// init the screen backup texture
; 177  : 	if( r_screendownsamplingtexture_size )

	cmp	DWORD PTR ?r_screendownsamplingtexture_size@@3HA, 0
	je	SHORT $LN14@R_Bloom_In

; 178  : 		R_Bloom_InitBackUpTexture( r_screendownsamplingtexture_size, r_screendownsamplingtexture_size );

	mov	eax, DWORD PTR ?r_screendownsamplingtexture_size@@3HA
	push	eax
	mov	ecx, DWORD PTR ?r_screendownsamplingtexture_size@@3HA
	push	ecx
	call	?R_Bloom_InitBackUpTexture@@YAXHH@Z	; R_Bloom_InitBackUpTexture
	add	esp, 8
	jmp	SHORT $LN15@R_Bloom_In
$LN14@R_Bloom_In:

; 179  : 	else R_Bloom_InitBackUpTexture( BLOOM_SIZE, BLOOM_SIZE );

	mov	eax, DWORD PTR ?BLOOM_SIZE@@3HA
	push	eax
	mov	ecx, DWORD PTR ?BLOOM_SIZE@@3HA
	push	ecx
	call	?R_Bloom_InitBackUpTexture@@YAXHH@Z	; R_Bloom_InitBackUpTexture
	add	esp, 8
$LN15@R_Bloom_In:
$LN1@R_Bloom_In:

; 180  : }

	pop	edi
	pop	esi
	pop	ebx
	mov	esp, ebp
	pop	ebp
	ret	0
?R_Bloom_InitTextures@@YAXXZ ENDP			; R_Bloom_InitTextures
_TEXT	ENDS
; Function compile flags: /Odtp /ZI
; File d:\!diffusion 2020\source code 2022\client-server\client\render\r_bloom.cpp
;	COMDAT ?R_Bloom_InitEffectTexture@@YAXXZ
_TEXT	SEGMENT
tv75 = -80						; size = 4
tv77 = -76						; size = 4
tv70 = -72						; size = 4
_limit$ = -4						; size = 4
?R_Bloom_InitEffectTexture@@YAXXZ PROC			; R_Bloom_InitEffectTexture, COMDAT

; 108  : {

	push	ebp
	mov	ebp, esp
	sub	esp, 80					; 00000050H
	push	ebx
	push	esi
	push	edi

; 109  : 	int	limit;
; 110  : 	
; 111  : 	if( r_bloom_sample_size->value < 32.0f )

	mov	eax, DWORD PTR ?r_bloom_sample_size@@3PAUcvar_s@@A ; r_bloom_sample_size
	movss	xmm0, DWORD PTR __real@42000000
	comiss	xmm0, DWORD PTR [eax+12]
	jbe	SHORT $LN5@R_Bloom_In

; 112  : 		CVAR_SET_FLOAT( "r_bloom_sample_size", 32.0f );

	push	ecx
	movss	xmm0, DWORD PTR __real@42000000
	movss	DWORD PTR [esp], xmm0
	push	OFFSET ??_C@_0BE@FEEHIPNM@r_bloom_sample_size?$AA@
	call	DWORD PTR ?gEngfuncs@@3Ucl_enginefuncs_s@@A+148
	add	esp, 8
$LN5@R_Bloom_In:

; 113  : 
; 114  : 	// make sure bloom size doesn't have stupid values
; 115  : 	limit = min( r_bloom_sample_size->value, min( screen_texture_width, screen_texture_height ) );

	mov	eax, DWORD PTR ?screen_texture_width@@3HA
	cmp	eax, DWORD PTR ?screen_texture_height@@3HA
	jge	SHORT $LN10@R_Bloom_In
	mov	ecx, DWORD PTR ?screen_texture_width@@3HA
	mov	DWORD PTR tv70[ebp], ecx
	jmp	SHORT $LN11@R_Bloom_In
$LN10@R_Bloom_In:
	mov	edx, DWORD PTR ?screen_texture_height@@3HA
	mov	DWORD PTR tv70[ebp], edx
$LN11@R_Bloom_In:
	cvtsi2ss xmm0, DWORD PTR tv70[ebp]
	mov	eax, DWORD PTR ?r_bloom_sample_size@@3PAUcvar_s@@A ; r_bloom_sample_size
	comiss	xmm0, DWORD PTR [eax+12]
	jbe	SHORT $LN14@R_Bloom_In
	mov	ecx, DWORD PTR ?r_bloom_sample_size@@3PAUcvar_s@@A ; r_bloom_sample_size
	movss	xmm0, DWORD PTR [ecx+12]
	movss	DWORD PTR tv77[ebp], xmm0
	jmp	SHORT $LN15@R_Bloom_In
$LN14@R_Bloom_In:
	mov	edx, DWORD PTR ?screen_texture_width@@3HA
	cmp	edx, DWORD PTR ?screen_texture_height@@3HA
	jge	SHORT $LN12@R_Bloom_In
	mov	eax, DWORD PTR ?screen_texture_width@@3HA
	mov	DWORD PTR tv75[ebp], eax
	jmp	SHORT $LN13@R_Bloom_In
$LN12@R_Bloom_In:
	mov	ecx, DWORD PTR ?screen_texture_height@@3HA
	mov	DWORD PTR tv75[ebp], ecx
$LN13@R_Bloom_In:
	cvtsi2ss xmm0, DWORD PTR tv75[ebp]
	movss	DWORD PTR tv77[ebp], xmm0
$LN15@R_Bloom_In:
	cvttss2si edx, DWORD PTR tv77[ebp]
	mov	DWORD PTR _limit$[ebp], edx

; 116  : 
; 117  : 	if( GL_Support( R_ARB_TEXTURE_NPOT_EXT ))

	push	16					; 00000010H
	call	?GL_Support@@YA_NH@Z			; GL_Support
	add	esp, 4
	movzx	eax, al
	test	eax, eax
	je	SHORT $LN6@R_Bloom_In

; 118  : 	{
; 119  : 		BLOOM_SIZE = limit;

	mov	eax, DWORD PTR _limit$[ebp]
	mov	DWORD PTR ?BLOOM_SIZE@@3HA, eax

; 120  : 	}
; 121  : 	else

	jmp	SHORT $LN3@R_Bloom_In
$LN6@R_Bloom_In:

; 122  : 	{	// make sure bloom size is a power of 2
; 123  : 		for( BLOOM_SIZE = 16; (BLOOM_SIZE<<1) <= limit; BLOOM_SIZE <<= 1 );

	mov	DWORD PTR ?BLOOM_SIZE@@3HA, 16		; 00000010H
	jmp	SHORT $LN4@R_Bloom_In
$LN2@R_Bloom_In:
	mov	eax, DWORD PTR ?BLOOM_SIZE@@3HA
	shl	eax, 1
	mov	DWORD PTR ?BLOOM_SIZE@@3HA, eax
$LN4@R_Bloom_In:
	mov	eax, DWORD PTR ?BLOOM_SIZE@@3HA
	shl	eax, 1
	cmp	eax, DWORD PTR _limit$[ebp]
	jg	SHORT $LN3@R_Bloom_In
	jmp	SHORT $LN2@R_Bloom_In
$LN3@R_Bloom_In:

; 124  : 	}
; 125  : 
; 126  : 	if( BLOOM_SIZE != r_bloom_sample_size->value )

	cvtsi2ss xmm0, DWORD PTR ?BLOOM_SIZE@@3HA
	mov	eax, DWORD PTR ?r_bloom_sample_size@@3PAUcvar_s@@A ; r_bloom_sample_size
	ucomiss	xmm0, DWORD PTR [eax+12]
	lahf
	test	ah, 68					; 00000044H
	jnp	SHORT $LN8@R_Bloom_In

; 127  : 		CVAR_SET_FLOAT( "r_bloom_sample_size", BLOOM_SIZE );

	cvtsi2ss xmm0, DWORD PTR ?BLOOM_SIZE@@3HA
	push	ecx
	movss	DWORD PTR [esp], xmm0
	push	OFFSET ??_C@_0BE@FEEHIPNM@r_bloom_sample_size?$AA@
	call	DWORD PTR ?gEngfuncs@@3Ucl_enginefuncs_s@@A+148
	add	esp, 8
$LN8@R_Bloom_In:

; 128  : 
; 129  : 	r_bloomeffecttexture = CREATE_TEXTURE( "*bloomeffecttexture", BLOOM_SIZE, BLOOM_SIZE, NULL, TF_IMAGE ); 

	push	6144					; 00001800H
	push	0
	mov	eax, DWORD PTR ?BLOOM_SIZE@@3HA
	push	eax
	mov	ecx, DWORD PTR ?BLOOM_SIZE@@3HA
	push	ecx
	push	OFFSET ??_C@_0BE@DLIHHMFP@?$CKbloomeffecttexture?$AA@
	call	DWORD PTR ?gRenderfuncs@@3Urender_api_s@@A+64
	add	esp, 20					; 00000014H
	mov	DWORD PTR ?r_bloomeffecttexture@@3HA, eax

; 130  : }

	pop	edi
	pop	esi
	pop	ebx
	mov	esp, ebp
	pop	ebp
	ret	0
?R_Bloom_InitEffectTexture@@YAXXZ ENDP			; R_Bloom_InitEffectTexture
_TEXT	ENDS
; Function compile flags: /Odtp /ZI
; File d:\!diffusion 2020\source code 2022\client-server\client\render\r_bloom.cpp
;	COMDAT ?R_Bloom_InitBackUpTexture@@YAXHH@Z
_TEXT	SEGMENT
_width$ = 8						; size = 4
_height$ = 12						; size = 4
?R_Bloom_InitBackUpTexture@@YAXHH@Z PROC		; R_Bloom_InitBackUpTexture, COMDAT

; 95   : {

	push	ebp
	mov	ebp, esp
	sub	esp, 64					; 00000040H
	push	ebx
	push	esi
	push	edi

; 96   : 	r_screenbackuptexture_width = width;

	mov	eax, DWORD PTR _width$[ebp]
	mov	DWORD PTR ?r_screenbackuptexture_width@@3HA, eax

; 97   : 	r_screenbackuptexture_height = height;

	mov	eax, DWORD PTR _height$[ebp]
	mov	DWORD PTR ?r_screenbackuptexture_height@@3HA, eax

; 98   : 
; 99   : 	r_bloombackuptexture = CREATE_TEXTURE( "*bloombackuptexture", width, height, NULL, TF_IMAGE ); 

	push	6144					; 00001800H
	push	0
	mov	eax, DWORD PTR _height$[ebp]
	push	eax
	mov	ecx, DWORD PTR _width$[ebp]
	push	ecx
	push	OFFSET ??_C@_0BE@JOLACMHC@?$CKbloombackuptexture?$AA@
	call	DWORD PTR ?gRenderfuncs@@3Urender_api_s@@A+64
	add	esp, 20					; 00000014H
	mov	DWORD PTR ?r_bloombackuptexture@@3HA, eax

; 100  : }

	pop	edi
	pop	esi
	pop	ebx
	mov	esp, ebp
	pop	ebp
	ret	0
?R_Bloom_InitBackUpTexture@@YAXHH@Z ENDP		; R_Bloom_InitBackUpTexture
_TEXT	ENDS
; Function compile flags: /Odtp /ZI
; File d:\!diffusion 2020\source code 2022\client-server\client\render\r_bloom.cpp
;	COMDAT ?R_BloomBlend@@YAXXZ
_TEXT	SEGMENT
?R_BloomBlend@@YAXXZ PROC				; R_BloomBlend, COMDAT

; 430  : {

	push	ebp
	mov	ebp, esp
	sub	esp, 64					; 00000040H
	push	ebx
	push	esi
	push	edi

; 431  : 	if( !r_bloom->value )

	mov	eax, DWORD PTR ?r_bloom@@3PAUcvar_s@@A	; r_bloom
	movss	xmm0, DWORD PTR [eax+12]
	ucomiss	xmm0, DWORD PTR __real@00000000
	lahf
	test	ah, 68					; 00000044H
	jp	SHORT $LN2@R_BloomBle

; 432  : 		return;

	jmp	$LN1@R_BloomBle
$LN2@R_BloomBle:

; 433  : 
; 434  : 	if( !BLOOM_SIZE )

	cmp	DWORD PTR ?BLOOM_SIZE@@3HA, 0
	jne	SHORT $LN3@R_BloomBle

; 435  : 		R_Bloom_InitTextures();

	call	?R_Bloom_InitTextures@@YAXXZ		; R_Bloom_InitTextures
$LN3@R_BloomBle:

; 436  : 
; 437  : 	if( screen_texture_width < BLOOM_SIZE || screen_texture_height < BLOOM_SIZE )

	mov	eax, DWORD PTR ?screen_texture_width@@3HA
	cmp	eax, DWORD PTR ?BLOOM_SIZE@@3HA
	jl	SHORT $LN5@R_BloomBle
	mov	eax, DWORD PTR ?screen_texture_height@@3HA
	cmp	eax, DWORD PTR ?BLOOM_SIZE@@3HA
	jge	SHORT $LN4@R_BloomBle
$LN5@R_BloomBle:

; 438  : 		return;

	jmp	$LN1@R_BloomBle
$LN4@R_BloomBle:

; 439  : 
; 440  : 	// set up full screen workspace
; 441  : 	pglScissor( 0, 0, glState.width, glState.height );

	mov	eax, DWORD PTR ?glState@@3UglState_t@@A+4
	push	eax
	mov	ecx, DWORD PTR ?glState@@3UglState_t@@A
	push	ecx
	push	0
	push	0
	call	DWORD PTR ?pglScissor@@3P6GXHHHH@ZA	; pglScissor

; 442  : 	pglViewport( 0, 0, glState.width, glState.height );

	mov	eax, DWORD PTR ?glState@@3UglState_t@@A+4
	push	eax
	mov	ecx, DWORD PTR ?glState@@3UglState_t@@A
	push	ecx
	push	0
	push	0
	call	DWORD PTR ?pglViewport@@3P6GXHHHH@ZA	; pglViewport

; 443  : 	pglMatrixMode( GL_PROJECTION );

	push	5889					; 00001701H
	call	DWORD PTR ?pglMatrixMode@@3P6GXI@ZA	; pglMatrixMode

; 444  : 	pglLoadIdentity();

	call	DWORD PTR ?pglLoadIdentity@@3P6GXXZA	; pglLoadIdentity

; 445  : 	
; 446  : 	pglOrtho( 0, glState.width, glState.height, 0, -10, 100 );

	sub	esp, 8
	movsd	xmm0, QWORD PTR __real@4059000000000000
	movsd	QWORD PTR [esp], xmm0
	sub	esp, 8
	movsd	xmm0, QWORD PTR __real@c024000000000000
	movsd	QWORD PTR [esp], xmm0
	sub	esp, 8
	xorps	xmm0, xmm0
	movsd	QWORD PTR [esp], xmm0
	cvtsi2sd xmm0, DWORD PTR ?glState@@3UglState_t@@A+4
	sub	esp, 8
	movsd	QWORD PTR [esp], xmm0
	cvtsi2sd xmm0, DWORD PTR ?glState@@3UglState_t@@A
	sub	esp, 8
	movsd	QWORD PTR [esp], xmm0
	sub	esp, 8
	xorps	xmm0, xmm0
	movsd	QWORD PTR [esp], xmm0
	call	DWORD PTR ?pglOrtho@@3P6GXNNNNNN@ZA	; pglOrtho

; 447  : 
; 448  : 	pglMatrixMode( GL_MODELVIEW );

	push	5888					; 00001700H
	call	DWORD PTR ?pglMatrixMode@@3P6GXI@ZA	; pglMatrixMode

; 449  : 	pglLoadIdentity();

	call	DWORD PTR ?pglLoadIdentity@@3P6GXXZA	; pglLoadIdentity

; 450  : 	
; 451  : 	pglDisable( GL_DEPTH_TEST );

	push	2929					; 00000b71H
	call	DWORD PTR ?pglDisable@@3P6GXI@ZA	; pglDisable

; 452  : 	pglDisable( GL_ALPHA_TEST );

	push	3008					; 00000bc0H
	call	DWORD PTR ?pglDisable@@3P6GXI@ZA	; pglDisable

; 453  : 	pglDepthMask( GL_FALSE );

	push	0
	call	DWORD PTR ?pglDepthMask@@3P6GXE@ZA	; pglDepthMask

; 454  : 	pglDisable( GL_BLEND );

	push	3042					; 00000be2H
	call	DWORD PTR ?pglDisable@@3P6GXI@ZA	; pglDisable

; 455  : 	
; 456  : 	GL_Cull( 0 );

	push	0
	call	?GL_Cull@@YAXI@Z			; GL_Cull
	add	esp, 4

; 457  : 	pglColor4f( 1.0f, 1.0f, 1.0f, 1.0f );

	push	ecx
	movss	xmm0, DWORD PTR __real@3f800000
	movss	DWORD PTR [esp], xmm0
	push	ecx
	movss	xmm0, DWORD PTR __real@3f800000
	movss	DWORD PTR [esp], xmm0
	push	ecx
	movss	xmm0, DWORD PTR __real@3f800000
	movss	DWORD PTR [esp], xmm0
	push	ecx
	movss	xmm0, DWORD PTR __real@3f800000
	movss	DWORD PTR [esp], xmm0
	call	DWORD PTR ?pglColor4f@@3P6GXMMMM@ZA	; pglColor4f

; 458  : 	pglTexEnvf( GL_TEXTURE_ENV, GL_TEXTURE_ENV_MODE, GL_MODULATE );

	push	ecx
	movss	xmm0, DWORD PTR __real@46040000
	movss	DWORD PTR [esp], xmm0
	push	8704					; 00002200H
	push	8960					; 00002300H
	call	DWORD PTR ?pglTexEnvf@@3P6GXIIM@ZA	; pglTexEnvf

; 459  : 
; 460  : 	// set up current sizes
; 461  : 	curView_x = RI->viewport[0];

	mov	eax, 4
	imul	ecx, eax, 0
	mov	edx, DWORD PTR ?RI@@3PAUref_instance_t@@A ; RI
	mov	eax, DWORD PTR [edx+ecx+32]
	mov	DWORD PTR ?curView_x@@3HA, eax

; 462  : 	curView_y = RI->viewport[1];

	mov	eax, 4
	shl	eax, 0
	mov	ecx, DWORD PTR ?RI@@3PAUref_instance_t@@A ; RI
	mov	edx, DWORD PTR [ecx+eax+32]
	mov	DWORD PTR ?curView_y@@3HA, edx

; 463  : 	curView_width = RI->viewport[2];

	mov	eax, 4
	shl	eax, 1
	mov	ecx, DWORD PTR ?RI@@3PAUref_instance_t@@A ; RI
	mov	edx, DWORD PTR [ecx+eax+32]
	mov	DWORD PTR ?curView_width@@3HA, edx

; 464  : 	curView_height = RI->viewport[3];

	mov	eax, 4
	imul	ecx, eax, 3
	mov	edx, DWORD PTR ?RI@@3PAUref_instance_t@@A ; RI
	mov	eax, DWORD PTR [edx+ecx+32]
	mov	DWORD PTR ?curView_height@@3HA, eax

; 465  : 	
; 466  : 	screenTex_tcw = ( (float)curView_width / (float)screen_texture_width );

	cvtsi2ss xmm0, DWORD PTR ?curView_width@@3HA
	cvtsi2ss xmm1, DWORD PTR ?screen_texture_width@@3HA
	divss	xmm0, xmm1
	movss	DWORD PTR ?screenTex_tcw@@3MA, xmm0

; 467  : 	screenTex_tch = ( (float)curView_height / (float)screen_texture_height );

	cvtsi2ss xmm0, DWORD PTR ?curView_height@@3HA
	cvtsi2ss xmm1, DWORD PTR ?screen_texture_height@@3HA
	divss	xmm0, xmm1
	movss	DWORD PTR ?screenTex_tch@@3MA, xmm0

; 468  : 
; 469  : 	if( curView_height > curView_width )

	mov	eax, DWORD PTR ?curView_height@@3HA
	cmp	eax, DWORD PTR ?curView_width@@3HA
	jle	SHORT $LN6@R_BloomBle

; 470  : 	{
; 471  : 		// diffusion - FIXME: I made those as 1 instead, because of a strange black line on 1280x1024 resolution,
; 472  : 		// maybe some other resolutions as well. It seems to work but I don't know why this is done here like this in the first place.
; 473  : 		sampleText_tcw = 1;// ((float)curView_width / (float)curView_height);

	movss	xmm0, DWORD PTR __real@3f800000
	movss	DWORD PTR ?sampleText_tcw@@3MA, xmm0

; 474  : 		sampleText_tch = 1.0f;

	movss	xmm0, DWORD PTR __real@3f800000
	movss	DWORD PTR ?sampleText_tch@@3MA, xmm0

; 475  : 	}
; 476  : 	else

	jmp	SHORT $LN7@R_BloomBle
$LN6@R_BloomBle:

; 477  : 	{
; 478  : 		sampleText_tcw = 1.0f;

	movss	xmm0, DWORD PTR __real@3f800000
	movss	DWORD PTR ?sampleText_tcw@@3MA, xmm0

; 479  : 		sampleText_tch = 1;// ((float)curView_height / (float)curView_width);

	movss	xmm0, DWORD PTR __real@3f800000
	movss	DWORD PTR ?sampleText_tch@@3MA, xmm0
$LN7@R_BloomBle:

; 480  : 	}
; 481  : 
; 482  : 	sample_width = ( BLOOM_SIZE * sampleText_tcw );

	cvtsi2ss xmm0, DWORD PTR ?BLOOM_SIZE@@3HA
	mulss	xmm0, DWORD PTR ?sampleText_tcw@@3MA
	cvttss2si eax, xmm0
	mov	DWORD PTR ?sample_width@@3HA, eax

; 483  : 	sample_height = ( BLOOM_SIZE * sampleText_tch );

	cvtsi2ss xmm0, DWORD PTR ?BLOOM_SIZE@@3HA
	mulss	xmm0, DWORD PTR ?sampleText_tch@@3MA
	cvttss2si eax, xmm0
	mov	DWORD PTR ?sample_height@@3HA, eax

; 484  : 
; 485  : 	// copy the screen space we'll use to work into the backup texture
; 486  : 	GL_Bind( GL_TEXTURE0, r_bloombackuptexture );

	mov	eax, DWORD PTR ?r_bloombackuptexture@@3HA
	push	eax
	push	0
	call	DWORD PTR ?gRenderfuncs@@3Urender_api_s@@A+132
	add	esp, 8

; 487  : 	pglCopyTexSubImage2D( GL_TEXTURE_2D, 0, 0, 0, 0, 0, r_screenbackuptexture_width * sampleText_tcw, r_screenbackuptexture_height * sampleText_tch );

	cvtsi2ss xmm0, DWORD PTR ?r_screenbackuptexture_height@@3HA
	mulss	xmm0, DWORD PTR ?sampleText_tch@@3MA
	cvttss2si eax, xmm0
	push	eax
	cvtsi2ss xmm0, DWORD PTR ?r_screenbackuptexture_width@@3HA
	mulss	xmm0, DWORD PTR ?sampleText_tcw@@3MA
	cvttss2si ecx, xmm0
	push	ecx
	push	0
	push	0
	push	0
	push	0
	push	0
	push	3553					; 00000de1H
	call	DWORD PTR ?pglCopyTexSubImage2D@@3P6GXIHHHHHHH@ZA ; pglCopyTexSubImage2D

; 488  : 
; 489  : 	// create the bloom image
; 490  : 	R_Bloom_DownsampleView();

	call	?R_Bloom_DownsampleView@@YAXXZ		; R_Bloom_DownsampleView

; 491  : 	R_Bloom_GeneratexDiamonds();

	call	?R_Bloom_GeneratexDiamonds@@YAXXZ	; R_Bloom_GeneratexDiamonds

; 492  : 
; 493  : 	pglDisable( GL_BLEND );

	push	3042					; 00000be2H
	call	DWORD PTR ?pglDisable@@3P6GXI@ZA	; pglDisable

; 494  : 	// restore the screen-backup to the screen
; 495  : 	GL_Bind( GL_TEXTURE0, r_bloombackuptexture );

	mov	eax, DWORD PTR ?r_bloombackuptexture@@3HA
	push	eax
	push	0
	call	DWORD PTR ?gRenderfuncs@@3Urender_api_s@@A+132
	add	esp, 8

; 496  : 
; 497  : 	pglColor4f( 1, 1, 1, 1 );

	push	ecx
	movss	xmm0, DWORD PTR __real@3f800000
	movss	DWORD PTR [esp], xmm0
	push	ecx
	movss	xmm0, DWORD PTR __real@3f800000
	movss	DWORD PTR [esp], xmm0
	push	ecx
	movss	xmm0, DWORD PTR __real@3f800000
	movss	DWORD PTR [esp], xmm0
	push	ecx
	movss	xmm0, DWORD PTR __real@3f800000
	movss	DWORD PTR [esp], xmm0
	call	DWORD PTR ?pglColor4f@@3P6GXMMMM@ZA	; pglColor4f

; 498  : 
; 499  : 	R_Bloom_Quad( 0, 

	push	ecx
	movss	xmm0, DWORD PTR ?sampleText_tch@@3MA
	movss	DWORD PTR [esp], xmm0
	push	ecx
	movss	xmm0, DWORD PTR ?sampleText_tcw@@3MA
	movss	DWORD PTR [esp], xmm0
	cvtsi2ss xmm0, DWORD PTR ?r_screenbackuptexture_height@@3HA
	mulss	xmm0, DWORD PTR ?sampleText_tch@@3MA
	cvttss2si eax, xmm0
	push	eax
	cvtsi2ss xmm0, DWORD PTR ?r_screenbackuptexture_width@@3HA
	mulss	xmm0, DWORD PTR ?sampleText_tcw@@3MA
	cvttss2si ecx, xmm0
	push	ecx
	cvtsi2ss xmm0, DWORD PTR ?glState@@3UglState_t@@A+4
	cvtsi2ss xmm1, DWORD PTR ?r_screenbackuptexture_height@@3HA
	mulss	xmm1, DWORD PTR ?sampleText_tch@@3MA
	subss	xmm0, xmm1
	cvttss2si edx, xmm0
	push	edx
	push	0
	call	?R_Bloom_Quad@@YAXHHHHMM@Z		; R_Bloom_Quad
	add	esp, 24					; 00000018H

; 500  : 		glState.height - (r_screenbackuptexture_height * sampleText_tch),
; 501  : 		r_screenbackuptexture_width * sampleText_tcw,
; 502  : 		r_screenbackuptexture_height * sampleText_tch,
; 503  : 		sampleText_tcw, sampleText_tch );
; 504  : 
; 505  : 	R_Bloom_DrawEffect();

	call	?R_Bloom_DrawEffect@@YAXXZ		; R_Bloom_DrawEffect
$LN1@R_BloomBle:

; 506  : }

	pop	edi
	pop	esi
	pop	ebx
	mov	esp, ebp
	pop	ebp
	ret	0
?R_BloomBlend@@YAXXZ ENDP				; R_BloomBlend
_TEXT	ENDS
; Function compile flags: /Odtp /ZI
; File d:\!diffusion 2020\source code 2022\client-server\client\render\r_bloom.cpp
;	COMDAT ?R_InitBloomTextures@@YAXXZ
_TEXT	SEGMENT
?R_InitBloomTextures@@YAXXZ PROC			; R_InitBloomTextures, COMDAT

; 188  : {

	push	ebp
	mov	ebp, esp
	sub	esp, 64					; 00000040H
	push	ebx
	push	esi
	push	edi

; 189  : 	BLOOM_SIZE = 0;

	mov	DWORD PTR ?BLOOM_SIZE@@3HA, 0

; 190  : 
; 191  : 	if( r_bloomscreentexture )

	cmp	DWORD PTR ?r_bloomscreentexture@@3HA, 0
	je	SHORT $LN2@R_InitBloo

; 192  : 		FREE_TEXTURE( r_bloomscreentexture );

	mov	eax, DWORD PTR ?r_bloomscreentexture@@3HA
	push	eax
	call	DWORD PTR ?gRenderfuncs@@3Urender_api_s@@A+76
	add	esp, 4
$LN2@R_InitBloo:

; 193  : 	if( r_bloomeffecttexture )

	cmp	DWORD PTR ?r_bloomeffecttexture@@3HA, 0
	je	SHORT $LN3@R_InitBloo

; 194  : 		FREE_TEXTURE( r_bloomeffecttexture );

	mov	eax, DWORD PTR ?r_bloomeffecttexture@@3HA
	push	eax
	call	DWORD PTR ?gRenderfuncs@@3Urender_api_s@@A+76
	add	esp, 4
$LN3@R_InitBloo:

; 195  : 	if( r_bloombackuptexture )

	cmp	DWORD PTR ?r_bloombackuptexture@@3HA, 0
	je	SHORT $LN4@R_InitBloo

; 196  : 		FREE_TEXTURE( r_bloombackuptexture );

	mov	eax, DWORD PTR ?r_bloombackuptexture@@3HA
	push	eax
	call	DWORD PTR ?gRenderfuncs@@3Urender_api_s@@A+76
	add	esp, 4
$LN4@R_InitBloo:

; 197  : 	if( r_bloomdownsamplingtexture )

	cmp	DWORD PTR ?r_bloomdownsamplingtexture@@3HA, 0
	je	SHORT $LN5@R_InitBloo

; 198  : 		FREE_TEXTURE( r_bloomdownsamplingtexture );

	mov	eax, DWORD PTR ?r_bloomdownsamplingtexture@@3HA
	push	eax
	call	DWORD PTR ?gRenderfuncs@@3Urender_api_s@@A+76
	add	esp, 4
$LN5@R_InitBloo:

; 199  : 
; 200  : 	r_bloomscreentexture = r_bloomeffecttexture = 0;

	mov	DWORD PTR ?r_bloomeffecttexture@@3HA, 0
	mov	eax, DWORD PTR ?r_bloomeffecttexture@@3HA
	mov	DWORD PTR ?r_bloomscreentexture@@3HA, eax

; 201  : 	r_bloombackuptexture = r_bloomdownsamplingtexture = 0;

	mov	DWORD PTR ?r_bloomdownsamplingtexture@@3HA, 0
	mov	eax, DWORD PTR ?r_bloomdownsamplingtexture@@3HA
	mov	DWORD PTR ?r_bloombackuptexture@@3HA, eax

; 202  : 
; 203  : 	if( !r_bloom->value )

	mov	eax, DWORD PTR ?r_bloom@@3PAUcvar_s@@A	; r_bloom
	movss	xmm0, DWORD PTR [eax+12]
	ucomiss	xmm0, DWORD PTR __real@00000000
	lahf
	test	ah, 68					; 00000044H
	jp	SHORT $LN6@R_InitBloo

; 204  : 		return;

	jmp	SHORT $LN1@R_InitBloo
$LN6@R_InitBloo:

; 205  : 
; 206  : 	R_Bloom_InitTextures();

	call	?R_Bloom_InitTextures@@YAXXZ		; R_Bloom_InitTextures
$LN1@R_InitBloo:

; 207  : }

	pop	edi
	pop	esi
	pop	ebx
	mov	esp, ebp
	pop	ebp
	ret	0
?R_InitBloomTextures@@YAXXZ ENDP			; R_InitBloomTextures
_TEXT	ENDS
; Function compile flags: /Odtp /ZI
;	COMDAT ??__G@YGXPAX0IIP6EPAX00@Z@Z
_TEXT	SEGMENT
tv66 = -68						; size = 4
___t$ = 8						; size = 4
___u$ = 12						; size = 4
___s$ = 16						; size = 4
___n$ = 20						; size = 4
___f$ = 24						; size = 4
??__G@YGXPAX0IIP6EPAX00@Z@Z PROC			; `vector copy constructor iterator', COMDAT
	push	ebp
	mov	ebp, esp
	sub	esp, 68					; 00000044H
	push	ebx
	push	esi
	push	edi
$LN2@vector:
	mov	eax, DWORD PTR ___n$[ebp]
	mov	DWORD PTR tv66[ebp], eax
	mov	ecx, DWORD PTR ___n$[ebp]
	sub	ecx, 1
	mov	DWORD PTR ___n$[ebp], ecx
	cmp	DWORD PTR tv66[ebp], 0
	jbe	SHORT $LN1@vector
	mov	eax, DWORD PTR ___u$[ebp]
	push	eax
	mov	ecx, DWORD PTR ___t$[ebp]
	call	DWORD PTR ___f$[ebp]
	mov	eax, DWORD PTR ___t$[ebp]
	add	eax, DWORD PTR ___s$[ebp]
	mov	DWORD PTR ___t$[ebp], eax
	mov	eax, DWORD PTR ___u$[ebp]
	add	eax, DWORD PTR ___s$[ebp]
	mov	DWORD PTR ___u$[ebp], eax
	jmp	SHORT $LN2@vector
$LN1@vector:
	pop	edi
	pop	esi
	pop	ebx
	mov	esp, ebp
	pop	ebp
	ret	20					; 00000014H
??__G@YGXPAX0IIP6EPAX00@Z@Z ENDP			; `vector copy constructor iterator'
_TEXT	ENDS
; Function compile flags: /Odtp /ZI
;	COMDAT ??_H@YGXPAXIIP6EPAX0@Z@Z
_TEXT	SEGMENT
tv66 = -68						; size = 4
___t$ = 8						; size = 4
___s$ = 12						; size = 4
___n$ = 16						; size = 4
___f$ = 20						; size = 4
??_H@YGXPAXIIP6EPAX0@Z@Z PROC				; `vector constructor iterator', COMDAT
	push	ebp
	mov	ebp, esp
	sub	esp, 68					; 00000044H
	push	ebx
	push	esi
	push	edi
$LN2@vector:
	mov	eax, DWORD PTR ___n$[ebp]
	mov	DWORD PTR tv66[ebp], eax
	mov	ecx, DWORD PTR ___n$[ebp]
	sub	ecx, 1
	mov	DWORD PTR ___n$[ebp], ecx
	cmp	DWORD PTR tv66[ebp], 0
	jbe	SHORT $LN1@vector
	mov	ecx, DWORD PTR ___t$[ebp]
	call	DWORD PTR ___f$[ebp]
	mov	eax, DWORD PTR ___t$[ebp]
	add	eax, DWORD PTR ___s$[ebp]
	mov	DWORD PTR ___t$[ebp], eax
	jmp	SHORT $LN2@vector
$LN1@vector:
	pop	edi
	pop	esi
	pop	ebx
	mov	esp, ebp
	pop	ebp
	ret	16					; 00000010H
??_H@YGXPAXIIP6EPAX0@Z@Z ENDP				; `vector constructor iterator'
_TEXT	ENDS
END
