; Listing generated by Microsoft (R) Optimizing Compiler Version 19.00.24247.2 

	TITLE	D:\!DIFFUSION 2020\source code 2022\client-server\client\render\r_brushdecals.cpp
	.686P
	.XMM
	include listing.inc
	.model	flat

INCLUDELIB LIBCMT
INCLUDELIB OLDNAMES

PUBLIC	??_H@YGXPAXIIP6EPAX0@Z@Z			; `vector constructor iterator'
PUBLIC	??__G@YGXPAX0IIP6EPAX00@Z@Z			; `vector copy constructor iterator'
PUBLIC	?SinCos@@YAXMPAM0@Z				; SinCos
PUBLIC	??0Vector@@QAE@XZ				; Vector::Vector
PUBLIC	??0Vector@@QAE@MMM@Z				; Vector::Vector
PUBLIC	??0Vector@@QAE@ABV0@@Z				; Vector::Vector
PUBLIC	??0Vector@@QAE@QAM@Z				; Vector::Vector
PUBLIC	??GVector@@QBE?AV0@XZ				; Vector::operator-
PUBLIC	??HVector@@QBE?AV0@ABV0@@Z			; Vector::operator+
PUBLIC	??DVector@@QBE?AV0@M@Z				; Vector::operator*
PUBLIC	??BVector@@QAEPAMXZ				; Vector::operator float *
PUBLIC	??BVector@@QBEPBMXZ				; Vector::operator float const *
PUBLIC	??0Vector4D@@QAE@XZ				; Vector4D::Vector4D
PUBLIC	?Init@Vector4D@@QAEXMMMM@Z			; Vector4D::Init
PUBLIC	??BVector4D@@QAEPAMXZ				; Vector4D::operator float *
PUBLIC	??0matrix4x4@@QAE@ABVVector@@0M@Z		; matrix4x4::matrix4x4
PUBLIC	?DrawDecalsBatch@@YAXXZ				; DrawDecalsBatch
PUBLIC	??0decalarray_s@@QAE@XZ				; decalarray_s::decalarray_s
PUBLIC	?R_DrawProjectDecal@@YAXPAUdecal_s@@PAMH@Z	; R_DrawProjectDecal
PUBLIC	?DrawSingleDecal@@YA_NPAUdecal_s@@AAG_N@Z	; DrawSingleDecal
PUBLIC	?DrawSurfaceDecals@@YAXPAUmsurface_s@@_N1@Z	; DrawSurfaceDecals
PUBLIC	?__LINE__Var@?0??DrawDecalsBatch@@YAXXZ@4JA	; `DrawDecalsBatch'::`1'::__LINE__Var
PUBLIC	??_C@_0FC@FMNBKNPL@d?3?2?$CBdiffusion?52020?2source?5code?52@ ; `string'
PUBLIC	??_C@_0BI@FECCGOFJ@assert?5failed?5at?5?$CFs?3?$CFi?6?$AA@ ; `string'
PUBLIC	__real@00000000
PUBLIC	__real@3d4ccccd
PUBLIC	__real@3f000000
PUBLIC	__real@3f800000
PUBLIC	__real@3f91df46a2529d39
PUBLIC	__real@bf800000
PUBLIC	__xmm@41f00000000000000000000000000000
PUBLIC	__xmm@80000000800000008000000080000000
EXTRN	_memcpy:PROC
EXTRN	_cos:PROC
EXTRN	_sin:PROC
EXTRN	??4matrix4x4@@QAEAAV0@ABV0@@Z:PROC		; matrix4x4::operator=
EXTRN	?VectorTransform@matrix4x4@@QBE?AVVector@@ABV2@@Z:PROC ; matrix4x4::VectorTransform
EXTRN	?GL_Cull@@YAXI@Z:PROC				; GL_Cull
EXTRN	?R_BeginDrawProjectionGLSL@@YA_NPAUplight_s@@M@Z:PROC ; R_BeginDrawProjectionGLSL
EXTRN	?R_EndDrawProjectionGLSL@@YAXXZ:PROC		; R_EndDrawProjectionGLSL
EXTRN	?R_CountPlights@@YAH_N@Z:PROC			; R_CountPlights
EXTRN	?R_LightmapCoords@@YAXPAUmsurface_s@@ABVVector@@PAMH@Z:PROC ; R_LightmapCoords
EXTRN	?GL_BindShader@@YAXPAUglsl_prog_s@@@Z:PROC	; GL_BindShader
EXTRN	?GL_UberShaderForBmodelDecal@@YAGPAUdecal_s@@@Z:PROC ; GL_UberShaderForBmodelDecal
EXTRN	@__security_check_cookie@4:PROC
EXTRN	__chkstk:PROC
EXTRN	?gEngfuncs@@3Ucl_enginefuncs_s@@A:BYTE		; gEngfuncs
EXTRN	?gRenderfuncs@@3Urender_api_s@@A:BYTE		; gRenderfuncs
EXTRN	?pglBegin@@3P6GXI@ZA:DWORD			; pglBegin
EXTRN	?pglBlendFunc@@3P6GXII@ZA:DWORD			; pglBlendFunc
EXTRN	?pglDepthMask@@3P6GXE@ZA:DWORD			; pglDepthMask
EXTRN	?pglDisable@@3P6GXI@ZA:DWORD			; pglDisable
EXTRN	?pglDrawArrays@@3P6GXIHH@ZA:DWORD		; pglDrawArrays
EXTRN	?pglEnable@@3P6GXI@ZA:DWORD			; pglEnable
EXTRN	?pglEnd@@3P6GXXZA:DWORD				; pglEnd
EXTRN	?pglPolygonOffset@@3P6GXMM@ZA:DWORD		; pglPolygonOffset
EXTRN	?pglTexCoord2f@@3P6GXMM@ZA:DWORD		; pglTexCoord2f
EXTRN	?pglVertex3fv@@3P6GXPBM@ZA:DWORD		; pglVertex3fv
EXTRN	?pglUniform4fARB@@3P6GXHMMMM@ZA:DWORD		; pglUniform4fARB
EXTRN	?pglUniform1fvARB@@3P6GXHHPBM@ZA:DWORD		; pglUniform1fvARB
EXTRN	?pglUniformMatrix4fvARB@@3P6GXHHEPBM@ZA:DWORD	; pglUniformMatrix4fvARB
EXTRN	?pglVertexAttribPointerARB@@3P6GXIHIEHPBX@ZA:DWORD ; pglVertexAttribPointerARB
EXTRN	?pglEnableVertexAttribArrayARB@@3P6GXI@ZA:DWORD	; pglEnableVertexAttribArrayARB
EXTRN	?pglBindBufferARB@@3P6GXII@ZA:DWORD		; pglBindBufferARB
EXTRN	?pglGenBuffersARB@@3P6GXHPAI@ZA:DWORD		; pglGenBuffersARB
EXTRN	?pglBufferDataARB@@3P6GXIHPBXI@ZA:DWORD		; pglBufferDataARB
EXTRN	?pglBindVertexArray@@3P6GXI@ZA:DWORD		; pglBindVertexArray
EXTRN	?pglGenVertexArrays@@3P6GXHPBI@ZA:DWORD		; pglGenVertexArrays
EXTRN	?r_polyoffset@@3PAUcvar_s@@A:DWORD		; r_polyoffset
EXTRN	?RI@@3PAUref_instance_t@@A:DWORD		; RI
EXTRN	?tr@@3Uref_globals_t@@A:BYTE			; tr
EXTRN	?r_stats@@3Uref_stats_t@@A:BYTE			; r_stats
EXTRN	?cl_plights@@3PAUplight_s@@A:BYTE		; cl_plights
EXTRN	?glConfig@@3UglConfig_t@@A:BYTE			; glConfig
EXTRN	?glsl_programs@@3PAUglsl_prog_s@@A:BYTE		; glsl_programs
EXTRN	?world@@3PAUgl_world_t@@A:DWORD			; world
EXTRN	___security_cookie:DWORD
EXTRN	__fltused:DWORD
_BSS	SEGMENT
?decal_verts@@3PAUdecalarray_s@@A DB 0800H DUP (?)	; decal_verts
?decal_vao@@3IA DD 01H DUP (?)				; decal_vao
?decal_vbo@@3IA DD 01H DUP (?)				; decal_vbo
_BSS	ENDS
CRT$XCU	SEGMENT
?decal_verts$initializer$@@3P6AXXZA DD FLAT:??__Edecal_verts@@YAXXZ ; decal_verts$initializer$
CRT$XCU	ENDS
;	COMDAT __xmm@80000000800000008000000080000000
CONST	SEGMENT
__xmm@80000000800000008000000080000000 DB 00H, 00H, 00H, 080H, 00H, 00H, 00H
	DB	080H, 00H, 00H, 00H, 080H, 00H, 00H, 00H, 080H
CONST	ENDS
;	COMDAT __xmm@41f00000000000000000000000000000
CONST	SEGMENT
__xmm@41f00000000000000000000000000000 DB 00H, 00H, 00H, 00H, 00H, 00H, 00H
	DB	00H, 00H, 00H, 00H, 00H, 00H, 00H, 0f0H, 'A'
CONST	ENDS
;	COMDAT __real@bf800000
CONST	SEGMENT
__real@bf800000 DD 0bf800000r			; -1
CONST	ENDS
;	COMDAT __real@3f91df46a2529d39
CONST	SEGMENT
__real@3f91df46a2529d39 DQ 03f91df46a2529d39r	; 0.0174533
CONST	ENDS
;	COMDAT __real@3f800000
CONST	SEGMENT
__real@3f800000 DD 03f800000r			; 1
CONST	ENDS
;	COMDAT __real@3f000000
CONST	SEGMENT
__real@3f000000 DD 03f000000r			; 0.5
CONST	ENDS
;	COMDAT __real@3d4ccccd
CONST	SEGMENT
__real@3d4ccccd DD 03d4ccccdr			; 0.05
CONST	ENDS
;	COMDAT __real@00000000
CONST	SEGMENT
__real@00000000 DD 000000000r			; 0
CONST	ENDS
;	COMDAT ??_C@_0BI@FECCGOFJ@assert?5failed?5at?5?$CFs?3?$CFi?6?$AA@
CONST	SEGMENT
??_C@_0BI@FECCGOFJ@assert?5failed?5at?5?$CFs?3?$CFi?6?$AA@ DB 'assert fai'
	DB	'led at %s:%i', 0aH, 00H			; `string'
CONST	ENDS
;	COMDAT ??_C@_0FC@FMNBKNPL@d?3?2?$CBdiffusion?52020?2source?5code?52@
CONST	SEGMENT
??_C@_0FC@FMNBKNPL@d?3?2?$CBdiffusion?52020?2source?5code?52@ DB 'd:\!dif'
	DB	'fusion 2020\source code 2022\client-server\client\render\r_br'
	DB	'ushdecals.cpp', 00H				; `string'
CONST	ENDS
;	COMDAT ?__LINE__Var@?0??DrawDecalsBatch@@YAXXZ@4JA
_DATA	SEGMENT
?__LINE__Var@?0??DrawDecalsBatch@@YAXXZ@4JA DD 0cbH	; `DrawDecalsBatch'::`1'::__LINE__Var
_DATA	ENDS
; Function compile flags: /Odtp /ZI
; File d:\!diffusion 2020\source code 2022\client-server\client\render\r_brushdecals.cpp
;	COMDAT ?DrawSurfaceDecals@@YAXPAUmsurface_s@@_N1@Z
_TEXT	SEGMENT
_count$1 = -4116					; size = 4
_i$2 = -4112						; size = 4
_list$3 = -4108						; size = 4096
_p$ = -12						; size = 4
_hLastShader$ = -8					; size = 2
__$ArrayPad$ = -4					; size = 4
_fa$ = 8						; size = 4
_reverse$ = 12						; size = 1
_project$ = 16						; size = 1
?DrawSurfaceDecals@@YAXPAUmsurface_s@@_N1@Z PROC	; DrawSurfaceDecals, COMDAT

; 176  : {

	push	ebp
	mov	ebp, esp
	mov	eax, 4628				; 00001214H
	call	__chkstk
	mov	eax, DWORD PTR ___security_cookie
	xor	eax, ebp
	mov	DWORD PTR __$ArrayPad$[ebp], eax
	push	ebx
	push	esi
	push	edi

; 177  : 	word	hLastShader = 0xFFFF;

	mov	eax, 65535				; 0000ffffH
	mov	WORD PTR _hLastShader$[ebp], ax

; 178  : 	decal_t* p;
; 179  : 
; 180  : 	if (!fa->pdecals) return;

	mov	eax, DWORD PTR _fa$[ebp]
	cmp	DWORD PTR [eax+88], 0
	jne	SHORT $LN11@DrawSurfac
	jmp	$LN1@DrawSurfac
$LN11@DrawSurfac:

; 181  : 
; 182  : 	if (reverse && ((RI->currententity->curstate.rendermode == kRenderTransTexture) || (RI->currententity->curstate.rendermode == kRenderFade)))

	movzx	eax, BYTE PTR _reverse$[ebp]
	test	eax, eax
	je	$LN12@DrawSurfac
	mov	eax, DWORD PTR ?RI@@3PAUref_instance_t@@A ; RI
	mov	ecx, DWORD PTR [eax+16]
	cmp	DWORD PTR [ecx+760], 2
	je	SHORT $LN14@DrawSurfac
	mov	eax, DWORD PTR ?RI@@3PAUref_instance_t@@A ; RI
	mov	ecx, DWORD PTR [eax+16]
	cmp	DWORD PTR [ecx+760], 6
	jne	$LN12@DrawSurfac
$LN14@DrawSurfac:

; 183  : 	{
; 184  : 		decal_t* list[1024];
; 185  : 		int	i, count;
; 186  : 
; 187  : 		for (p = fa->pdecals, count = 0; p && count < 1024; p = p->pnext)

	mov	eax, DWORD PTR _fa$[ebp]
	mov	ecx, DWORD PTR [eax+88]
	mov	DWORD PTR _p$[ebp], ecx
	mov	DWORD PTR _count$1[ebp], 0
	jmp	SHORT $LN4@DrawSurfac
$LN2@DrawSurfac:
	mov	eax, DWORD PTR _p$[ebp]
	mov	ecx, DWORD PTR [eax]
	mov	DWORD PTR _p$[ebp], ecx
$LN4@DrawSurfac:
	cmp	DWORD PTR _p$[ebp], 0
	je	SHORT $LN3@DrawSurfac
	cmp	DWORD PTR _count$1[ebp], 1024		; 00000400H
	jge	SHORT $LN3@DrawSurfac

; 188  : 			if (p->texture) list[count++] = p;

	mov	eax, DWORD PTR _p$[ebp]
	movsx	ecx, WORD PTR [eax+20]
	test	ecx, ecx
	je	SHORT $LN15@DrawSurfac
	mov	eax, DWORD PTR _count$1[ebp]
	mov	ecx, DWORD PTR _p$[ebp]
	mov	DWORD PTR _list$3[ebp+eax*4], ecx
	mov	edx, DWORD PTR _count$1[ebp]
	add	edx, 1
	mov	DWORD PTR _count$1[ebp], edx
$LN15@DrawSurfac:

; 189  : 
; 190  : 		for (i = count - 1; i >= 0; i--)

	jmp	SHORT $LN2@DrawSurfac
$LN3@DrawSurfac:
	mov	eax, DWORD PTR _count$1[ebp]
	sub	eax, 1
	mov	DWORD PTR _i$2[ebp], eax
	jmp	SHORT $LN7@DrawSurfac
$LN5@DrawSurfac:
	mov	eax, DWORD PTR _i$2[ebp]
	sub	eax, 1
	mov	DWORD PTR _i$2[ebp], eax
$LN7@DrawSurfac:
	cmp	DWORD PTR _i$2[ebp], 0
	jl	SHORT $LN6@DrawSurfac

; 191  : 			DrawSingleDecal(list[i], hLastShader, project);

	movzx	eax, BYTE PTR _project$[ebp]
	push	eax
	lea	ecx, DWORD PTR _hLastShader$[ebp]
	push	ecx
	mov	edx, DWORD PTR _i$2[ebp]
	mov	eax, DWORD PTR _list$3[ebp+edx*4]
	push	eax
	call	?DrawSingleDecal@@YA_NPAUdecal_s@@AAG_N@Z ; DrawSingleDecal
	add	esp, 12					; 0000000cH
	jmp	SHORT $LN5@DrawSurfac
$LN6@DrawSurfac:

; 192  : 	}
; 193  : 	else

	jmp	SHORT $LN1@DrawSurfac
$LN12@DrawSurfac:

; 194  : 	{
; 195  : 		for (p = fa->pdecals; p; p = p->pnext)

	mov	eax, DWORD PTR _fa$[ebp]
	mov	ecx, DWORD PTR [eax+88]
	mov	DWORD PTR _p$[ebp], ecx
	jmp	SHORT $LN10@DrawSurfac
$LN8@DrawSurfac:
	mov	eax, DWORD PTR _p$[ebp]
	mov	ecx, DWORD PTR [eax]
	mov	DWORD PTR _p$[ebp], ecx
$LN10@DrawSurfac:
	cmp	DWORD PTR _p$[ebp], 0
	je	SHORT $LN1@DrawSurfac

; 196  : 		{
; 197  : 			DrawSingleDecal(p, hLastShader, project);

	movzx	eax, BYTE PTR _project$[ebp]
	push	eax
	lea	ecx, DWORD PTR _hLastShader$[ebp]
	push	ecx
	mov	edx, DWORD PTR _p$[ebp]
	push	edx
	call	?DrawSingleDecal@@YA_NPAUdecal_s@@AAG_N@Z ; DrawSingleDecal
	add	esp, 12					; 0000000cH

; 198  : 		}

	jmp	SHORT $LN8@DrawSurfac
$LN1@DrawSurfac:

; 199  : 	}
; 200  : }

	pop	edi
	pop	esi
	pop	ebx
	mov	ecx, DWORD PTR __$ArrayPad$[ebp]
	xor	ecx, ebp
	call	@__security_check_cookie@4
	mov	esp, ebp
	pop	ebp
	ret	0
?DrawSurfaceDecals@@YAXPAUmsurface_s@@_N1@Z ENDP	; DrawSurfaceDecals
_TEXT	ENDS
; Function compile flags: /Odtp /ZI
; File d:\!diffusion 2020\source code 2022\client-server\client\render\r_brushdecals.cpp
;	COMDAT ?DrawSingleDecal@@YA_NPAUdecal_s@@AAG_N@Z
_TEXT	SEGMENT
tv537 = -268						; size = 8
tv510 = -268						; size = 8
tv533 = -260						; size = 4
tv506 = -260						; size = 4
tv155 = -260						; size = 4
tv334 = -257						; size = 1
$T1 = -256						; size = 12
$T2 = -244						; size = 12
$T3 = -232						; size = 12
$T4 = -220						; size = 12
$T5 = -208						; size = 12
$T6 = -196						; size = 12
$T7 = -184						; size = 12
$T8 = -172						; size = 12
$T9 = -160						; size = 4
_i$10 = -92						; size = 4
_glm$ = -88						; size = 4
_decalFlags$ = -84					; size = 4
_normal$ = -80						; size = 12
_tex$ = -68						; size = 4
_surf$ = -64						; size = 4
_mv$ = -60						; size = 4
_es$ = -56						; size = 4
_e$ = -52						; size = 4
_lmcoord1$ = -48					; size = 16
_lmcoord0$ = -32					; size = 16
_t$ = -16						; size = 4
_s$ = -12						; size = 4
_v$ = -8						; size = 4
_numVerts$ = -4						; size = 4
_decal$ = 8						; size = 4
_hLastShader$ = 12					; size = 4
_project$ = 16						; size = 1
?DrawSingleDecal@@YA_NPAUdecal_s@@AAG_N@Z PROC		; DrawSingleDecal, COMDAT

; 93   : {

	push	ebp
	mov	ebp, esp
	sub	esp, 268				; 0000010cH
	push	ebx
	push	esi
	push	edi

; 94   : 	int	numVerts;
; 95   : 	float* v, s, t;
; 96   : 	Vector4D	lmcoord0, lmcoord1;

	lea	ecx, DWORD PTR _lmcoord0$[ebp]
	call	??0Vector4D@@QAE@XZ			; Vector4D::Vector4D
	lea	ecx, DWORD PTR _lmcoord1$[ebp]
	call	??0Vector4D@@QAE@XZ			; Vector4D::Vector4D

; 97   : 
; 98   : 	// check for valid
; 99   : 	if (!decal->psurface)

	mov	eax, DWORD PTR _decal$[ebp]
	cmp	DWORD PTR [eax+4], 0
	jne	SHORT $LN5@DrawSingle

; 100  : 		return false; // bad decal?

	xor	al, al
	jmp	$LN1@DrawSingle
$LN5@DrawSingle:

; 101  : 
; 102  : 	cl_entity_t* e = GET_ENTITY(decal->entityIndex);

	mov	eax, DWORD PTR _decal$[ebp]
	movsx	ecx, WORD PTR [eax+24]
	push	ecx
	call	DWORD PTR ?gEngfuncs@@3Ucl_enginefuncs_s@@A+212
	add	esp, 4
	mov	DWORD PTR _e$[ebp], eax

; 103  : 	v = DECAL_SETUP_VERTS(decal, decal->psurface, decal->texture, &numVerts);

	lea	eax, DWORD PTR _numVerts$[ebp]
	push	eax
	mov	ecx, DWORD PTR _decal$[ebp]
	movsx	edx, WORD PTR [ecx+20]
	push	edx
	mov	eax, DWORD PTR _decal$[ebp]
	mov	ecx, DWORD PTR [eax+4]
	push	ecx
	mov	edx, DWORD PTR _decal$[ebp]
	push	edx
	call	DWORD PTR ?gRenderfuncs@@3Urender_api_s@@A+84
	add	esp, 16					; 00000010H
	mov	DWORD PTR _v$[ebp], eax

; 104  : 
; 105  : 	if (numVerts > MAX_DECALCLIPVERT) // engine limit > renderer limit

	cmp	DWORD PTR _numVerts$[ebp], 32		; 00000020H
	jle	SHORT $LN6@DrawSingle

; 106  : 		numVerts = MAX_DECALCLIPVERT;

	mov	DWORD PTR _numVerts$[ebp], 32		; 00000020H
$LN6@DrawSingle:

; 107  : 
; 108  : 	if (project)

	movzx	eax, BYTE PTR _project$[ebp]
	test	eax, eax
	je	SHORT $LN7@DrawSingle

; 109  : 	{
; 110  : 		R_DrawProjectDecal(decal, v, numVerts);

	mov	eax, DWORD PTR _numVerts$[ebp]
	push	eax
	mov	ecx, DWORD PTR _v$[ebp]
	push	ecx
	mov	edx, DWORD PTR _decal$[ebp]
	push	edx
	call	?R_DrawProjectDecal@@YAXPAUdecal_s@@PAMH@Z ; R_DrawProjectDecal
	add	esp, 12					; 0000000cH

; 111  : 		return true;

	mov	al, 1
	jmp	$LN1@DrawSingle
$LN7@DrawSingle:

; 112  : 	}
; 113  : 
; 114  : 	// initialize decal shader
; 115  : 	if (!R_ChooseDecalProgram(decal))

	mov	eax, DWORD PTR _decal$[ebp]
	push	eax
	call	?R_ChooseDecalProgram@@YAGPAUdecal_s@@@Z ; R_ChooseDecalProgram
	add	esp, 4
	movzx	ecx, ax
	test	ecx, ecx
	jne	SHORT $LN8@DrawSingle

; 116  : 		return false;

	xor	al, al
	jmp	$LN1@DrawSingle
$LN8@DrawSingle:

; 117  : 
; 118  : 	if (hLastShader != decal->shaderNum)

	mov	eax, DWORD PTR _hLastShader$[ebp]
	movzx	ecx, WORD PTR [eax]
	mov	edx, DWORD PTR _decal$[ebp]
	movzx	eax, WORD PTR [edx+48]
	cmp	ecx, eax
	je	SHORT $LN9@DrawSingle

; 119  : 	{
; 120  : 		GL_BindShader(&glsl_programs[decal->shaderNum]);

	mov	eax, DWORD PTR _decal$[ebp]
	movzx	ecx, WORD PTR [eax+48]
	imul	edx, ecx, 972
	add	edx, OFFSET ?glsl_programs@@3PAUglsl_prog_s@@A ; glsl_programs
	push	edx
	call	?GL_BindShader@@YAXPAUglsl_prog_s@@@Z	; GL_BindShader
	add	esp, 4

; 121  : 		hLastShader = decal->shaderNum;

	mov	eax, DWORD PTR _hLastShader$[ebp]
	mov	ecx, DWORD PTR _decal$[ebp]
	mov	dx, WORD PTR [ecx+48]
	mov	WORD PTR [eax], dx
$LN9@DrawSingle:

; 122  : 	}
; 123  : 
; 124  : 	mextrasurf_t* es = decal->psurface->info;

	mov	eax, DWORD PTR _decal$[ebp]
	mov	ecx, DWORD PTR [eax+4]
	mov	edx, DWORD PTR [ecx+80]
	mov	DWORD PTR _es$[ebp], edx

; 125  : 	bvert_t* mv = &world->vertexes[es->firstvertex];

	mov	eax, DWORD PTR _es$[ebp]
	imul	ecx, DWORD PTR [eax+128], 100
	mov	edx, DWORD PTR ?world@@3PAUgl_world_t@@A ; world
	add	ecx, DWORD PTR [edx+112]
	mov	DWORD PTR _mv$[ebp], ecx

; 126  : 	msurface_t* surf = decal->psurface;

	mov	eax, DWORD PTR _decal$[ebp]
	mov	ecx, DWORD PTR [eax+4]
	mov	DWORD PTR _surf$[ebp], ecx

; 127  : 	mtexinfo_t* tex = surf->texinfo;

	mov	eax, DWORD PTR _surf$[ebp]
	mov	ecx, DWORD PTR [eax+44]
	mov	DWORD PTR _tex$[ebp], ecx

; 128  : 	Vector normal = FBitSet(surf->flags, SURF_PLANEBACK) ? -surf->plane->normal : surf->plane->normal;

	mov	eax, DWORD PTR _surf$[ebp]
	mov	ecx, DWORD PTR [eax+8]
	and	ecx, 2
	je	SHORT $LN14@DrawSingle
	lea	edx, DWORD PTR $T8[ebp]
	push	edx
	mov	eax, DWORD PTR _surf$[ebp]
	mov	ecx, DWORD PTR [eax+4]
	call	??GVector@@QBE?AV0@XZ			; Vector::operator-
	mov	DWORD PTR tv155[ebp], eax
	jmp	SHORT $LN15@DrawSingle
$LN14@DrawSingle:
	mov	ecx, DWORD PTR _surf$[ebp]
	mov	edx, DWORD PTR [ecx+4]
	push	edx
	lea	ecx, DWORD PTR $T7[ebp]
	call	??0Vector@@QAE@ABV0@@Z			; Vector::Vector
	mov	DWORD PTR tv155[ebp], eax
$LN15@DrawSingle:
	mov	eax, DWORD PTR tv155[ebp]
	mov	DWORD PTR $T9[ebp], eax
	mov	ecx, DWORD PTR $T9[ebp]
	push	ecx
	lea	ecx, DWORD PTR _normal$[ebp]
	call	??0Vector@@QAE@ABV0@@Z			; Vector::Vector

; 129  : 	int decalFlags = 0;

	mov	DWORD PTR _decalFlags$[ebp], 0

; 130  : 
; 131  : 	pglBlendFunc(GL_SRC_ALPHA, GL_ONE_MINUS_SRC_ALPHA);

	push	771					; 00000303H
	push	770					; 00000302H
	call	DWORD PTR ?pglBlendFunc@@3P6GXII@ZA	; pglBlendFunc

; 132  : 
; 133  : 	pglUniform1fvARB(RI->currentshader->u_LightStyleValues, MAX_LIGHTSTYLES, &tr.lightstyles[0]);

	mov	eax, 4
	imul	ecx, eax, 0
	add	ecx, OFFSET ?tr@@3Uref_globals_t@@A+531440
	push	ecx
	push	64					; 00000040H
	mov	edx, DWORD PTR ?RI@@3PAUref_instance_t@@A ; RI
	mov	eax, DWORD PTR [edx+28]
	mov	ecx, DWORD PTR [eax+768]
	push	ecx
	call	DWORD PTR ?pglUniform1fvARB@@3P6GXHHPBM@ZA ; pglUniform1fvARB

; 134  : 	pglUniform4fARB(RI->currentshader->u_FogParams, tr.fogColor[0], tr.fogColor[1], tr.fogColor[2], tr.fogDensity);

	push	ecx
	movss	xmm0, DWORD PTR ?tr@@3Uref_globals_t@@A+5830908
	movss	DWORD PTR [esp], xmm0
	mov	ecx, OFFSET ?tr@@3Uref_globals_t@@A+5830896
	call	??BVector@@QAEPAMXZ			; Vector::operator float *
	mov	ecx, 4
	shl	ecx, 1
	push	ecx
	movss	xmm0, DWORD PTR [eax+ecx]
	movss	DWORD PTR [esp], xmm0
	mov	ecx, OFFSET ?tr@@3Uref_globals_t@@A+5830896
	call	??BVector@@QAEPAMXZ			; Vector::operator float *
	mov	edx, 4
	shl	edx, 0
	push	ecx
	movss	xmm0, DWORD PTR [eax+edx]
	movss	DWORD PTR [esp], xmm0
	mov	ecx, OFFSET ?tr@@3Uref_globals_t@@A+5830896
	call	??BVector@@QAEPAMXZ			; Vector::operator float *
	mov	ecx, 4
	imul	edx, ecx, 0
	push	ecx
	movss	xmm0, DWORD PTR [eax+edx]
	movss	DWORD PTR [esp], xmm0
	mov	eax, DWORD PTR ?RI@@3PAUref_instance_t@@A ; RI
	mov	ecx, DWORD PTR [eax+28]
	mov	edx, DWORD PTR [ecx+788]
	push	edx
	call	DWORD PTR ?pglUniform4fARB@@3P6GXHMMMM@ZA ; pglUniform4fARB

; 135  : 
; 136  : 	GL_Bind(GL_TEXTURE0, decal->texture);

	mov	eax, DWORD PTR _decal$[ebp]
	movsx	ecx, WORD PTR [eax+20]
	push	ecx
	push	0
	call	DWORD PTR ?gRenderfuncs@@3Urender_api_s@@A+132
	add	esp, 8

; 137  : 	GL_Bind(GL_TEXTURE1, surf->texinfo->texture->gl_texturenum);

	mov	eax, DWORD PTR _surf$[ebp]
	mov	ecx, DWORD PTR [eax+44]
	mov	edx, DWORD PTR [ecx+36]
	mov	eax, DWORD PTR [edx+24]
	push	eax
	push	1
	call	DWORD PTR ?gRenderfuncs@@3Urender_api_s@@A+132
	add	esp, 8

; 138  : 	GL_Bind(GL_TEXTURE2, tr.lightmaps[es->lightmaptexturenum].lightmap);

	mov	eax, DWORD PTR _es$[ebp]
	movzx	ecx, WORD PTR [eax+164]
	imul	edx, ecx, 8204
	mov	eax, DWORD PTR ?tr@@3Uref_globals_t@@A[edx+539892]
	push	eax
	push	2
	call	DWORD PTR ?gRenderfuncs@@3Urender_api_s@@A+132
	add	esp, 8

; 139  : 
; 140  : 	// update transformation matrix
; 141  : 	gl_state_t* glm = &tr.cached_state[e->hCachedMatrix];

	mov	eax, DWORD PTR _e$[ebp]
	movzx	ecx, WORD PTR [eax+2976]
	shl	ecx, 7
	add	ecx, OFFSET ?tr@@3Uref_globals_t@@A+6892
	mov	DWORD PTR _glm$[ebp], ecx

; 142  : 	pglUniformMatrix4fvARB(RI->currentshader->u_ModelMatrix, 1, GL_FALSE, &glm->modelMatrix[0]);

	mov	eax, 4
	imul	ecx, eax, 0
	add	ecx, DWORD PTR _glm$[ebp]
	push	ecx
	push	0
	push	1
	mov	edx, DWORD PTR ?RI@@3PAUref_instance_t@@A ; RI
	mov	eax, DWORD PTR [edx+28]
	mov	ecx, DWORD PTR [eax+688]
	push	ecx
	call	DWORD PTR ?pglUniformMatrix4fvARB@@3P6GXHHEPBM@ZA ; pglUniformMatrix4fvARB

; 143  : 	r_stats.c_total_tris += (numVerts - 2);

	mov	eax, DWORD PTR _numVerts$[ebp]
	mov	ecx, DWORD PTR ?r_stats@@3Uref_stats_t@@A+60
	lea	edx, DWORD PTR [ecx+eax-2]
	mov	DWORD PTR ?r_stats@@3Uref_stats_t@@A+60, edx

; 144  : 
; 145  : 	// prepare decal_array for rendering
; 146  : 	for (int i = 0; i < numVerts; i++, v += VERTEXSIZE)

	mov	DWORD PTR _i$10[ebp], 0
	jmp	SHORT $LN4@DrawSingle
$LN2@DrawSingle:
	mov	eax, DWORD PTR _i$10[ebp]
	add	eax, 1
	mov	DWORD PTR _i$10[ebp], eax
	mov	ecx, DWORD PTR _v$[ebp]
	add	ecx, 28					; 0000001cH
	mov	DWORD PTR _v$[ebp], ecx
$LN4@DrawSingle:
	mov	eax, DWORD PTR _i$10[ebp]
	cmp	eax, DWORD PTR _numVerts$[ebp]
	jge	$LN3@DrawSingle

; 147  : 	{
; 148  : 		s = (DotProductA(v, tex->vecs[0]) + tex->vecs[0][3]) / tex->texture->width;

	mov	eax, 4
	imul	ecx, eax, 0
	mov	edx, 16					; 00000010H
	imul	eax, edx, 0
	add	eax, DWORD PTR _tex$[ebp]
	mov	edx, 4
	imul	edx, edx, 0
	mov	esi, DWORD PTR _v$[ebp]
	movss	xmm0, DWORD PTR [esi+ecx]
	mulss	xmm0, DWORD PTR [eax+edx]
	mov	eax, 4
	shl	eax, 0
	mov	ecx, 16					; 00000010H
	imul	edx, ecx, 0
	add	edx, DWORD PTR _tex$[ebp]
	mov	ecx, 4
	shl	ecx, 0
	mov	esi, DWORD PTR _v$[ebp]
	movss	xmm1, DWORD PTR [esi+eax]
	mulss	xmm1, DWORD PTR [edx+ecx]
	addss	xmm0, xmm1
	mov	edx, 4
	shl	edx, 1
	mov	eax, 16					; 00000010H
	imul	ecx, eax, 0
	add	ecx, DWORD PTR _tex$[ebp]
	mov	eax, 4
	shl	eax, 1
	mov	esi, DWORD PTR _v$[ebp]
	movss	xmm1, DWORD PTR [esi+edx]
	mulss	xmm1, DWORD PTR [ecx+eax]
	addss	xmm0, xmm1
	mov	ecx, 16					; 00000010H
	imul	edx, ecx, 0
	add	edx, DWORD PTR _tex$[ebp]
	mov	eax, 4
	imul	ecx, eax, 3
	addss	xmm0, DWORD PTR [edx+ecx]
	mov	edx, DWORD PTR _tex$[ebp]
	mov	eax, DWORD PTR [edx+36]
	mov	ecx, DWORD PTR [eax+16]
	mov	DWORD PTR tv506[ebp], ecx
	cvtsi2sd xmm1, DWORD PTR tv506[ebp]
	mov	edx, DWORD PTR tv506[ebp]
	shr	edx, 31					; 0000001fH
	addsd	xmm1, QWORD PTR __xmm@41f00000000000000000000000000000[edx*8]
	movsd	QWORD PTR tv510[ebp], xmm1
	cvtsd2ss xmm1, QWORD PTR tv510[ebp]
	divss	xmm0, xmm1
	movss	DWORD PTR _s$[ebp], xmm0

; 149  : 		t = (DotProductA(v, tex->vecs[1]) + tex->vecs[1][3]) / tex->texture->height;

	mov	eax, 4
	imul	ecx, eax, 0
	mov	edx, 16					; 00000010H
	shl	edx, 0
	add	edx, DWORD PTR _tex$[ebp]
	mov	eax, 4
	imul	eax, eax, 0
	mov	esi, DWORD PTR _v$[ebp]
	movss	xmm0, DWORD PTR [esi+ecx]
	mulss	xmm0, DWORD PTR [edx+eax]
	mov	ecx, 4
	shl	ecx, 0
	mov	edx, 16					; 00000010H
	shl	edx, 0
	add	edx, DWORD PTR _tex$[ebp]
	mov	eax, 4
	shl	eax, 0
	mov	esi, DWORD PTR _v$[ebp]
	movss	xmm1, DWORD PTR [esi+ecx]
	mulss	xmm1, DWORD PTR [edx+eax]
	addss	xmm0, xmm1
	mov	ecx, 4
	shl	ecx, 1
	mov	edx, 16					; 00000010H
	shl	edx, 0
	add	edx, DWORD PTR _tex$[ebp]
	mov	eax, 4
	shl	eax, 1
	mov	esi, DWORD PTR _v$[ebp]
	movss	xmm1, DWORD PTR [esi+ecx]
	mulss	xmm1, DWORD PTR [edx+eax]
	addss	xmm0, xmm1
	mov	ecx, 16					; 00000010H
	shl	ecx, 0
	add	ecx, DWORD PTR _tex$[ebp]
	mov	edx, 4
	imul	eax, edx, 3
	addss	xmm0, DWORD PTR [ecx+eax]
	mov	ecx, DWORD PTR _tex$[ebp]
	mov	edx, DWORD PTR [ecx+36]
	mov	eax, DWORD PTR [edx+20]
	mov	DWORD PTR tv533[ebp], eax
	cvtsi2sd xmm1, DWORD PTR tv533[ebp]
	mov	ecx, DWORD PTR tv533[ebp]
	shr	ecx, 31					; 0000001fH
	addsd	xmm1, QWORD PTR __xmm@41f00000000000000000000000000000[ecx*8]
	movsd	QWORD PTR tv537[ebp], xmm1
	cvtsd2ss xmm1, QWORD PTR tv537[ebp]
	divss	xmm0, xmm1
	movss	DWORD PTR _t$[ebp], xmm0

; 150  : 		R_LightmapCoords(surf, v, lmcoord0, 0); // styles 0-1

	mov	eax, DWORD PTR _v$[ebp]
	push	eax
	lea	ecx, DWORD PTR $T6[ebp]
	call	??0Vector@@QAE@QAM@Z			; Vector::Vector
	push	0
	lea	ecx, DWORD PTR _lmcoord0$[ebp]
	call	??BVector4D@@QAEPAMXZ			; Vector4D::operator float *
	push	eax
	lea	ecx, DWORD PTR $T6[ebp]
	push	ecx
	mov	edx, DWORD PTR _surf$[ebp]
	push	edx
	call	?R_LightmapCoords@@YAXPAUmsurface_s@@ABVVector@@PAMH@Z ; R_LightmapCoords
	add	esp, 16					; 00000010H

; 151  : 		R_LightmapCoords(surf, v, lmcoord1, 2); // styles 2-3

	mov	eax, DWORD PTR _v$[ebp]
	push	eax
	lea	ecx, DWORD PTR $T5[ebp]
	call	??0Vector@@QAE@QAM@Z			; Vector::Vector
	push	2
	lea	ecx, DWORD PTR _lmcoord1$[ebp]
	call	??BVector4D@@QAEPAMXZ			; Vector4D::operator float *
	push	eax
	lea	ecx, DWORD PTR $T5[ebp]
	push	ecx
	mov	edx, DWORD PTR _surf$[ebp]
	push	edx
	call	?R_LightmapCoords@@YAXPAUmsurface_s@@ABVVector@@PAMH@Z ; R_LightmapCoords
	add	esp, 16					; 00000010H

; 152  : 		decal_verts[i].texcoord0.Init(v[3], v[4], s, t);

	push	ecx
	movss	xmm0, DWORD PTR _t$[ebp]
	movss	DWORD PTR [esp], xmm0
	push	ecx
	movss	xmm0, DWORD PTR _s$[ebp]
	movss	DWORD PTR [esp], xmm0
	mov	eax, 4
	shl	eax, 2
	mov	ecx, DWORD PTR _v$[ebp]
	push	ecx
	movss	xmm0, DWORD PTR [ecx+eax]
	movss	DWORD PTR [esp], xmm0
	mov	edx, 4
	imul	eax, edx, 3
	mov	ecx, DWORD PTR _v$[ebp]
	push	ecx
	movss	xmm0, DWORD PTR [ecx+eax]
	movss	DWORD PTR [esp], xmm0
	mov	ecx, DWORD PTR _i$10[ebp]
	shl	ecx, 6
	add	ecx, OFFSET ?decal_verts@@3PAUdecalarray_s@@A
	call	?Init@Vector4D@@QAEXMMMM@Z		; Vector4D::Init

; 153  : 		decal_verts[i].texcoord1 = lmcoord0;

	mov	eax, DWORD PTR _i$10[ebp]
	shl	eax, 6
	add	eax, OFFSET ?decal_verts@@3PAUdecalarray_s@@A+16
	mov	ecx, DWORD PTR _lmcoord0$[ebp]
	mov	DWORD PTR [eax], ecx
	mov	edx, DWORD PTR _lmcoord0$[ebp+4]
	mov	DWORD PTR [eax+4], edx
	mov	ecx, DWORD PTR _lmcoord0$[ebp+8]
	mov	DWORD PTR [eax+8], ecx
	mov	edx, DWORD PTR _lmcoord0$[ebp+12]
	mov	DWORD PTR [eax+12], edx

; 154  : 		decal_verts[i].texcoord2 = lmcoord1;

	mov	eax, DWORD PTR _i$10[ebp]
	shl	eax, 6
	add	eax, OFFSET ?decal_verts@@3PAUdecalarray_s@@A+32
	mov	ecx, DWORD PTR _lmcoord1$[ebp]
	mov	DWORD PTR [eax], ecx
	mov	edx, DWORD PTR _lmcoord1$[ebp+4]
	mov	DWORD PTR [eax+4], edx
	mov	ecx, DWORD PTR _lmcoord1$[ebp+8]
	mov	DWORD PTR [eax+8], ecx
	mov	edx, DWORD PTR _lmcoord1$[ebp+12]
	mov	DWORD PTR [eax+12], edx

; 155  : 		memcpy(decal_verts[i].lightstyles, surf->styles, 4);

	push	4
	mov	eax, DWORD PTR _surf$[ebp]
	add	eax, 60					; 0000003cH
	push	eax
	mov	ecx, DWORD PTR _i$10[ebp]
	shl	ecx, 6
	add	ecx, OFFSET ?decal_verts@@3PAUdecalarray_s@@A+48
	push	ecx
	call	_memcpy
	add	esp, 12					; 0000000cH

; 156  : 
; 157  : 		if (!CVAR_TO_BOOL(r_polyoffset))

	cmp	DWORD PTR ?r_polyoffset@@3PAUcvar_s@@A, 0 ; r_polyoffset
	je	SHORT $LN16@DrawSingle
	mov	eax, DWORD PTR ?r_polyoffset@@3PAUcvar_s@@A ; r_polyoffset
	movss	xmm0, DWORD PTR [eax+12]
	ucomiss	xmm0, DWORD PTR __real@00000000
	lahf
	test	ah, 68					; 00000044H
	jnp	SHORT $LN16@DrawSingle
	mov	BYTE PTR tv334[ebp], 1
	jmp	SHORT $LN17@DrawSingle
$LN16@DrawSingle:
	mov	BYTE PTR tv334[ebp], 0
$LN17@DrawSingle:
	movzx	ecx, BYTE PTR tv334[ebp]
	test	ecx, ecx
	jne	SHORT $LN10@DrawSingle

; 158  : 			decal_verts[i].position = Vector(v) + normal * 0.05;

	push	ecx
	movss	xmm0, DWORD PTR __real@3d4ccccd
	movss	DWORD PTR [esp], xmm0
	lea	eax, DWORD PTR $T3[ebp]
	push	eax
	lea	ecx, DWORD PTR _normal$[ebp]
	call	??DVector@@QBE?AV0@M@Z			; Vector::operator*
	push	eax
	lea	ecx, DWORD PTR $T2[ebp]
	push	ecx
	mov	edx, DWORD PTR _v$[ebp]
	push	edx
	lea	ecx, DWORD PTR $T4[ebp]
	call	??0Vector@@QAE@QAM@Z			; Vector::Vector
	mov	ecx, eax
	call	??HVector@@QBE?AV0@ABV0@@Z		; Vector::operator+
	mov	ecx, DWORD PTR _i$10[ebp]
	shl	ecx, 6
	add	ecx, OFFSET ?decal_verts@@3PAUdecalarray_s@@A+52
	mov	edx, DWORD PTR [eax]
	mov	DWORD PTR [ecx], edx
	mov	edx, DWORD PTR [eax+4]
	mov	DWORD PTR [ecx+4], edx
	mov	eax, DWORD PTR [eax+8]
	mov	DWORD PTR [ecx+8], eax
	jmp	SHORT $LN11@DrawSingle
$LN10@DrawSingle:

; 159  : 		else decal_verts[i].position = v;

	mov	eax, DWORD PTR _v$[ebp]
	push	eax
	lea	ecx, DWORD PTR $T1[ebp]
	call	??0Vector@@QAE@QAM@Z			; Vector::Vector
	mov	ecx, DWORD PTR _i$10[ebp]
	shl	ecx, 6
	add	ecx, OFFSET ?decal_verts@@3PAUdecalarray_s@@A+52
	mov	edx, DWORD PTR $T1[ebp]
	mov	DWORD PTR [ecx], edx
	mov	eax, DWORD PTR $T1[ebp+4]
	mov	DWORD PTR [ecx+4], eax
	mov	edx, DWORD PTR $T1[ebp+8]
	mov	DWORD PTR [ecx+8], edx
$LN11@DrawSingle:

; 160  : 	}

	jmp	$LN2@DrawSingle
$LN3@DrawSingle:

; 161  : 
; 162  : 	// TODO: sort decal by programs to make this batch
; 163  : 	if (!decal_vao)

	cmp	DWORD PTR ?decal_vao@@3IA, 0
	jne	SHORT $LN12@DrawSingle

; 164  : 		R_CreateDecalsVAO();

	call	?R_CreateDecalsVAO@@YAXXZ		; R_CreateDecalsVAO
$LN12@DrawSingle:

; 165  : 
; 166  : 	pglBindVertexArray(decal_vao);

	mov	eax, DWORD PTR ?decal_vao@@3IA
	push	eax
	call	DWORD PTR ?pglBindVertexArray@@3P6GXI@ZA ; pglBindVertexArray

; 167  : 	pglBindBufferARB(GL_ARRAY_BUFFER_ARB, decal_vbo);

	mov	eax, DWORD PTR ?decal_vbo@@3IA
	push	eax
	push	34962					; 00008892H
	call	DWORD PTR ?pglBindBufferARB@@3P6GXII@ZA	; pglBindBufferARB

; 168  : 	pglBufferDataARB(GL_ARRAY_BUFFER_ARB, sizeof(decal_verts[0]) * numVerts, decal_verts, GL_STATIC_DRAW_ARB);

	push	35044					; 000088e4H
	push	OFFSET ?decal_verts@@3PAUdecalarray_s@@A
	mov	eax, DWORD PTR _numVerts$[ebp]
	shl	eax, 6
	push	eax
	push	34962					; 00008892H
	call	DWORD PTR ?pglBufferDataARB@@3P6GXIHPBXI@ZA ; pglBufferDataARB

; 169  : 	pglDrawArrays(GL_POLYGON, 0, numVerts);

	mov	eax, DWORD PTR _numVerts$[ebp]
	push	eax
	push	0
	push	9
	call	DWORD PTR ?pglDrawArrays@@3P6GXIHH@ZA	; pglDrawArrays

; 170  : 	pglBindVertexArray(0);

	push	0
	call	DWORD PTR ?pglBindVertexArray@@3P6GXI@ZA ; pglBindVertexArray

; 171  : 	pglBindBufferARB(GL_ARRAY_BUFFER_ARB, 0);

	push	0
	push	34962					; 00008892H
	call	DWORD PTR ?pglBindBufferARB@@3P6GXII@ZA	; pglBindBufferARB

; 172  : 	return true;

	mov	al, 1
$LN1@DrawSingle:

; 173  : }

	pop	edi
	pop	esi
	pop	ebx
	mov	esp, ebp
	pop	ebp
	ret	0
?DrawSingleDecal@@YA_NPAUdecal_s@@AAG_N@Z ENDP		; DrawSingleDecal
_TEXT	ENDS
; Function compile flags: /Odtp /ZI
; File d:\!diffusion 2020\source code 2022\client-server\client\render\r_brushdecals.cpp
;	COMDAT ?R_DrawProjectDecal@@YAXPAUdecal_s@@PAMH@Z
_TEXT	SEGMENT
$T1 = -92						; size = 12
_av$2 = -16						; size = 12
_i$3 = -4						; size = 4
_decal$ = 8						; size = 4
_v$ = 12						; size = 4
_numVerts$ = 16						; size = 4
?R_DrawProjectDecal@@YAXPAUdecal_s@@PAMH@Z PROC		; R_DrawProjectDecal, COMDAT

; 74   : {

	push	ebp
	mov	ebp, esp
	sub	esp, 92					; 0000005cH
	push	ebx
	push	esi
	push	edi

; 75   : 	GL_Bind(GL_TEXTURE0, decal->texture);

	mov	eax, DWORD PTR _decal$[ebp]
	movsx	ecx, WORD PTR [eax+20]
	push	ecx
	push	0
	call	DWORD PTR ?gRenderfuncs@@3Urender_api_s@@A+132
	add	esp, 8

; 76   : 
; 77   : 	pglBegin(GL_POLYGON);

	push	9
	call	DWORD PTR ?pglBegin@@3P6GXI@ZA		; pglBegin

; 78   : 	for (int i = 0; i < numVerts; i++, v += VERTEXSIZE)

	mov	DWORD PTR _i$3[ebp], 0
	jmp	SHORT $LN4@R_DrawProj
$LN2@R_DrawProj:
	mov	eax, DWORD PTR _i$3[ebp]
	add	eax, 1
	mov	DWORD PTR _i$3[ebp], eax
	mov	ecx, DWORD PTR _v$[ebp]
	add	ecx, 28					; 0000001cH
	mov	DWORD PTR _v$[ebp], ecx
$LN4@R_DrawProj:
	mov	eax, DWORD PTR _i$3[ebp]
	cmp	eax, DWORD PTR _numVerts$[ebp]
	jge	SHORT $LN3@R_DrawProj

; 79   : 	{
; 80   : 		Vector av = RI->objectMatrix.VectorTransform(Vector(v));

	mov	eax, DWORD PTR _v$[ebp]
	push	eax
	lea	ecx, DWORD PTR $T1[ebp]
	call	??0Vector@@QAE@QAM@Z			; Vector::Vector
	push	eax
	lea	ecx, DWORD PTR _av$2[ebp]
	push	ecx
	mov	ecx, DWORD PTR ?RI@@3PAUref_instance_t@@A ; RI
	add	ecx, 364				; 0000016cH
	call	?VectorTransform@matrix4x4@@QBE?AVVector@@ABV2@@Z ; matrix4x4::VectorTransform

; 81   : 		pglTexCoord2f(v[3], v[4]);

	mov	eax, 4
	shl	eax, 2
	mov	ecx, DWORD PTR _v$[ebp]
	push	ecx
	movss	xmm0, DWORD PTR [ecx+eax]
	movss	DWORD PTR [esp], xmm0
	mov	edx, 4
	imul	eax, edx, 3
	mov	ecx, DWORD PTR _v$[ebp]
	push	ecx
	movss	xmm0, DWORD PTR [ecx+eax]
	movss	DWORD PTR [esp], xmm0
	call	DWORD PTR ?pglTexCoord2f@@3P6GXMM@ZA	; pglTexCoord2f

; 82   : 		pglVertex3fv(av);

	lea	ecx, DWORD PTR _av$2[ebp]
	call	??BVector@@QAEPAMXZ			; Vector::operator float *
	push	eax
	call	DWORD PTR ?pglVertex3fv@@3P6GXPBM@ZA	; pglVertex3fv

; 83   : 	}

	jmp	SHORT $LN2@R_DrawProj
$LN3@R_DrawProj:

; 84   : 	pglEnd();

	call	DWORD PTR ?pglEnd@@3P6GXXZA		; pglEnd

; 85   : }

	pop	edi
	pop	esi
	pop	ebx
	mov	esp, ebp
	pop	ebp
	ret	0
?R_DrawProjectDecal@@YAXPAUdecal_s@@PAMH@Z ENDP		; R_DrawProjectDecal
_TEXT	ENDS
; Function compile flags: /Odtp /ZI
; File d:\!diffusion 2020\source code 2022\client-server\client\render\r_brushdecals.cpp
;	COMDAT ?R_ChooseDecalProgram@@YAGPAUdecal_s@@@Z
_TEXT	SEGMENT
_decal$ = 8						; size = 4
?R_ChooseDecalProgram@@YAGPAUdecal_s@@@Z PROC		; R_ChooseDecalProgram, COMDAT

; 64   : {

	push	ebp
	mov	ebp, esp
	sub	esp, 64					; 00000040H
	push	ebx
	push	esi
	push	edi

; 65   : 	return GL_UberShaderForBmodelDecal(decal);

	mov	eax, DWORD PTR _decal$[ebp]
	push	eax
	call	?GL_UberShaderForBmodelDecal@@YAGPAUdecal_s@@@Z ; GL_UberShaderForBmodelDecal
	add	esp, 4

; 66   : }

	pop	edi
	pop	esi
	pop	ebx
	mov	esp, ebp
	pop	ebp
	ret	0
?R_ChooseDecalProgram@@YAGPAUdecal_s@@@Z ENDP		; R_ChooseDecalProgram
_TEXT	ENDS
; Function compile flags: /Odtp /ZI
; File d:\!diffusion 2020\source code 2022\client-server\client\render\r_brushdecals.cpp
;	COMDAT ?R_CreateDecalsVAO@@YAXXZ
_TEXT	SEGMENT
_decalSize$ = -4					; size = 4
?R_CreateDecalsVAO@@YAXXZ PROC				; R_CreateDecalsVAO, COMDAT

; 36   : {

	push	ebp
	mov	ebp, esp
	sub	esp, 68					; 00000044H
	push	ebx
	push	esi
	push	edi

; 37   : 	const int decalSize = sizeof(struct decalarray_s);

	mov	DWORD PTR _decalSize$[ebp], 64		; 00000040H

; 38   : 	pglGenVertexArrays(1, &decal_vao);

	push	OFFSET ?decal_vao@@3IA
	push	1
	call	DWORD PTR ?pglGenVertexArrays@@3P6GXHPBI@ZA ; pglGenVertexArrays

; 39   : 	pglGenBuffersARB(1, &decal_vbo);

	push	OFFSET ?decal_vbo@@3IA
	push	1
	call	DWORD PTR ?pglGenBuffersARB@@3P6GXHPAI@ZA ; pglGenBuffersARB

; 40   : 	pglBindVertexArray(decal_vao);

	mov	eax, DWORD PTR ?decal_vao@@3IA
	push	eax
	call	DWORD PTR ?pglBindVertexArray@@3P6GXI@ZA ; pglBindVertexArray

; 41   : 	pglBindBufferARB(GL_ARRAY_BUFFER_ARB, decal_vbo);

	mov	eax, DWORD PTR ?decal_vbo@@3IA
	push	eax
	push	34962					; 00008892H
	call	DWORD PTR ?pglBindBufferARB@@3P6GXII@ZA	; pglBindBufferARB

; 42   : 
; 43   : 	pglVertexAttribPointerARB(ATTR_INDEX_TEXCOORD0, 4, GL_FLOAT, GL_FALSE, decalSize, (void*)offsetof(decalarray_s, texcoord0));

	push	0
	push	64					; 00000040H
	push	0
	push	5126					; 00001406H
	push	4
	push	4
	call	DWORD PTR ?pglVertexAttribPointerARB@@3P6GXIHIEHPBX@ZA ; pglVertexAttribPointerARB

; 44   : 	pglEnableVertexAttribArrayARB(ATTR_INDEX_TEXCOORD0);

	push	4
	call	DWORD PTR ?pglEnableVertexAttribArrayARB@@3P6GXI@ZA ; pglEnableVertexAttribArrayARB

; 45   : 	pglVertexAttribPointerARB(ATTR_INDEX_TEXCOORD1, 4, GL_FLOAT, GL_FALSE, decalSize, (void*)offsetof(decalarray_s, texcoord1));

	push	16					; 00000010H
	push	64					; 00000040H
	push	0
	push	5126					; 00001406H
	push	4
	push	5
	call	DWORD PTR ?pglVertexAttribPointerARB@@3P6GXIHIEHPBX@ZA ; pglVertexAttribPointerARB

; 46   : 	pglEnableVertexAttribArrayARB(ATTR_INDEX_TEXCOORD1);

	push	5
	call	DWORD PTR ?pglEnableVertexAttribArrayARB@@3P6GXI@ZA ; pglEnableVertexAttribArrayARB

; 47   : 	pglVertexAttribPointerARB(ATTR_INDEX_TEXCOORD2, 4, GL_FLOAT, GL_FALSE, decalSize, (void*)offsetof(decalarray_s, texcoord2));

	push	32					; 00000020H
	push	64					; 00000040H
	push	0
	push	5126					; 00001406H
	push	4
	push	6
	call	DWORD PTR ?pglVertexAttribPointerARB@@3P6GXIHIEHPBX@ZA ; pglVertexAttribPointerARB

; 48   : 	pglEnableVertexAttribArrayARB(ATTR_INDEX_TEXCOORD2);

	push	6
	call	DWORD PTR ?pglEnableVertexAttribArrayARB@@3P6GXI@ZA ; pglEnableVertexAttribArrayARB

; 49   : 	pglVertexAttribPointerARB(ATTR_INDEX_LIGHT_STYLES, 4, GL_UNSIGNED_BYTE, GL_FALSE, decalSize, (void*)offsetof(decalarray_s, lightstyles));

	push	48					; 00000030H
	push	64					; 00000040H
	push	0
	push	5121					; 00001401H
	push	4
	push	9
	call	DWORD PTR ?pglVertexAttribPointerARB@@3P6GXIHIEHPBX@ZA ; pglVertexAttribPointerARB

; 50   : 	pglEnableVertexAttribArrayARB(ATTR_INDEX_LIGHT_STYLES);

	push	9
	call	DWORD PTR ?pglEnableVertexAttribArrayARB@@3P6GXI@ZA ; pglEnableVertexAttribArrayARB

; 51   : 	pglVertexAttribPointerARB(ATTR_INDEX_POSITION, 3, GL_FLOAT, GL_FALSE, decalSize, (void*)offsetof(decalarray_s, position));

	push	52					; 00000034H
	push	64					; 00000040H
	push	0
	push	5126					; 00001406H
	push	3
	push	0
	call	DWORD PTR ?pglVertexAttribPointerARB@@3P6GXIHIEHPBX@ZA ; pglVertexAttribPointerARB

; 52   : 	pglEnableVertexAttribArrayARB(ATTR_INDEX_POSITION);

	push	0
	call	DWORD PTR ?pglEnableVertexAttribArrayARB@@3P6GXI@ZA ; pglEnableVertexAttribArrayARB

; 53   : 	pglBindVertexArray(0);

	push	0
	call	DWORD PTR ?pglBindVertexArray@@3P6GXI@ZA ; pglBindVertexArray

; 54   : }

	pop	edi
	pop	esi
	pop	ebx
	mov	esp, ebp
	pop	ebp
	ret	0
?R_CreateDecalsVAO@@YAXXZ ENDP				; R_CreateDecalsVAO
_TEXT	ENDS
; Function compile flags: /Odtp /ZI
; File d:\!diffusion 2020\source code 2022\client-server\client\render\r_brushdecals.cpp
;	COMDAT ??__Edecal_verts@@YAXXZ
text$di	SEGMENT
??__Edecal_verts@@YAXXZ PROC				; `dynamic initializer for 'decal_verts'', COMDAT

; 30   : } decal_verts[MAX_DECALCLIPVERT];

	push	ebp
	mov	ebp, esp
	sub	esp, 64					; 00000040H
	push	ebx
	push	esi
	push	edi
	push	OFFSET ??0decalarray_s@@QAE@XZ
	push	32					; 00000020H
	push	64					; 00000040H
	push	OFFSET ?decal_verts@@3PAUdecalarray_s@@A
	call	??_H@YGXPAXIIP6EPAX0@Z@Z
	pop	edi
	pop	esi
	pop	ebx
	mov	esp, ebp
	pop	ebp
	ret	0
??__Edecal_verts@@YAXXZ ENDP				; `dynamic initializer for 'decal_verts''
text$di	ENDS
; Function compile flags: /Odtp /ZI
;	COMDAT ??0decalarray_s@@QAE@XZ
_TEXT	SEGMENT
_this$ = -4						; size = 4
??0decalarray_s@@QAE@XZ PROC				; decalarray_s::decalarray_s, COMDAT
; _this$ = ecx
	push	ebp
	mov	ebp, esp
	sub	esp, 68					; 00000044H
	push	ebx
	push	esi
	push	edi
	mov	DWORD PTR _this$[ebp], ecx
	mov	ecx, DWORD PTR _this$[ebp]
	call	??0Vector4D@@QAE@XZ			; Vector4D::Vector4D
	mov	ecx, DWORD PTR _this$[ebp]
	add	ecx, 16					; 00000010H
	call	??0Vector4D@@QAE@XZ			; Vector4D::Vector4D
	mov	ecx, DWORD PTR _this$[ebp]
	add	ecx, 32					; 00000020H
	call	??0Vector4D@@QAE@XZ			; Vector4D::Vector4D
	mov	ecx, DWORD PTR _this$[ebp]
	add	ecx, 52					; 00000034H
	call	??0Vector@@QAE@XZ			; Vector::Vector
	mov	eax, DWORD PTR _this$[ebp]
	pop	edi
	pop	esi
	pop	ebx
	mov	esp, ebp
	pop	ebp
	ret	0
??0decalarray_s@@QAE@XZ ENDP				; decalarray_s::decalarray_s
_TEXT	ENDS
; Function compile flags: /Odtp /ZI
; File d:\!diffusion 2020\source code 2022\client-server\client\render\r_brushdecals.cpp
;	COMDAT ?DrawDecalsBatch@@YAXXZ
_TEXT	SEGMENT
tv179 = -149						; size = 1
tv89 = -149						; size = 1
$T1 = -148						; size = 64
_k$2 = -20						; size = 4
_pl$3 = -16						; size = 4
_i$ = -12						; size = 4
_e$ = -8						; size = 4
__$ArrayPad$ = -4					; size = 4
?DrawDecalsBatch@@YAXXZ PROC				; DrawDecalsBatch, COMDAT

; 203  : {

	push	ebp
	mov	ebp, esp
	sub	esp, 152				; 00000098H
	mov	eax, DWORD PTR ___security_cookie
	xor	eax, ebp
	mov	DWORD PTR __$ArrayPad$[ebp], eax
	push	ebx
	push	esi
	push	edi

; 204  : 	cl_entity_t* e;
; 205  : 	int	i;
; 206  : 
; 207  : 	if (!tr.num_draw_decals)

	cmp	DWORD PTR ?tr@@3Uref_globals_t@@A+5830644, 0
	jne	SHORT $LN11@DrawDecals

; 208  : 		return;

	jmp	$LN1@DrawDecals
$LN11@DrawDecals:

; 209  : 
; 210  : 	e = RI->currententity;

	mov	eax, DWORD PTR ?RI@@3PAUref_instance_t@@A ; RI
	mov	ecx, DWORD PTR [eax+16]
	mov	DWORD PTR _e$[ebp], ecx

; 211  : 	ASSERT(e != NULL);

	cmp	DWORD PTR _e$[ebp], 0
	jne	SHORT $LN12@DrawDecals
	mov	eax, DWORD PTR ?__LINE__Var@?0??DrawDecalsBatch@@YAXXZ@4JA
	add	eax, 8
	push	eax
	push	OFFSET ??_C@_0FC@FMNBKNPL@d?3?2?$CBdiffusion?52020?2source?5code?52@
	push	OFFSET ??_C@_0BI@FECCGOFJ@assert?5failed?5at?5?$CFs?3?$CFi?6?$AA@
	call	DWORD PTR ?gRenderfuncs@@3Urender_api_s@@A+236
	add	esp, 12					; 0000000cH
$LN12@DrawDecals:

; 212  : 	pglDisable(GL_ALPHA_TEST);

	push	3008					; 00000bc0H
	call	DWORD PTR ?pglDisable@@3P6GXI@ZA	; pglDisable

; 213  : 
; 214  : //	if ( (e->curstate.rendermode != kRenderTransTexture) && (e->curstate.rendermode != kRenderFade) ) // diffusion - why?
; 215  : //	{
; 216  : 		pglEnable(GL_BLEND);

	push	3042					; 00000be2H
	call	DWORD PTR ?pglEnable@@3P6GXI@ZA		; pglEnable

; 217  : 		pglBlendFunc(GL_SRC_ALPHA, GL_ONE_MINUS_SRC_ALPHA);

	push	771					; 00000303H
	push	770					; 00000302H
	call	DWORD PTR ?pglBlendFunc@@3P6GXII@ZA	; pglBlendFunc

; 218  : 		pglDepthMask(GL_FALSE);

	push	0
	call	DWORD PTR ?pglDepthMask@@3P6GXE@ZA	; pglDepthMask

; 219  : //	}
; 220  : 
; 221  : 	if ((e->curstate.rendermode == kRenderTransTexture) || (e->curstate.rendermode == kRenderTransAdd) || (e->curstate.rendermode == kRenderFade))

	mov	eax, DWORD PTR _e$[ebp]
	cmp	DWORD PTR [eax+760], 2
	je	SHORT $LN14@DrawDecals
	mov	eax, DWORD PTR _e$[ebp]
	cmp	DWORD PTR [eax+760], 5
	je	SHORT $LN14@DrawDecals
	mov	eax, DWORD PTR _e$[ebp]
	cmp	DWORD PTR [eax+760], 6
	jne	SHORT $LN13@DrawDecals
$LN14@DrawDecals:

; 222  : 		GL_Cull(GL_NONE);

	push	0
	call	?GL_Cull@@YAXI@Z			; GL_Cull
	add	esp, 4
$LN13@DrawDecals:

; 223  : 
; 224  : 	if (CVAR_TO_BOOL(r_polyoffset))

	cmp	DWORD PTR ?r_polyoffset@@3PAUcvar_s@@A, 0 ; r_polyoffset
	je	SHORT $LN24@DrawDecals
	mov	eax, DWORD PTR ?r_polyoffset@@3PAUcvar_s@@A ; r_polyoffset
	movss	xmm0, DWORD PTR [eax+12]
	ucomiss	xmm0, DWORD PTR __real@00000000
	lahf
	test	ah, 68					; 00000044H
	jnp	SHORT $LN24@DrawDecals
	mov	BYTE PTR tv89[ebp], 1
	jmp	SHORT $LN25@DrawDecals
$LN24@DrawDecals:
	mov	BYTE PTR tv89[ebp], 0
$LN25@DrawDecals:
	movzx	ecx, BYTE PTR tv89[ebp]
	test	ecx, ecx
	je	SHORT $LN15@DrawDecals

; 225  : 	{
; 226  : 		pglEnable(GL_POLYGON_OFFSET_FILL);

	push	32823					; 00008037H
	call	DWORD PTR ?pglEnable@@3P6GXI@ZA		; pglEnable

; 227  : 		pglPolygonOffset(-1.0f, -r_polyoffset->value);

	mov	eax, DWORD PTR ?r_polyoffset@@3PAUcvar_s@@A ; r_polyoffset
	movss	xmm0, DWORD PTR [eax+12]
	xorps	xmm0, DWORD PTR __xmm@80000000800000008000000080000000
	push	ecx
	movss	DWORD PTR [esp], xmm0
	push	ecx
	movss	xmm0, DWORD PTR __real@bf800000
	movss	DWORD PTR [esp], xmm0
	call	DWORD PTR ?pglPolygonOffset@@3P6GXMM@ZA	; pglPolygonOffset
$LN15@DrawDecals:

; 228  : 	}
; 229  : 
; 230  : 	for (i = 0; i < tr.num_draw_decals; i++)

	mov	DWORD PTR _i$[ebp], 0
	jmp	SHORT $LN4@DrawDecals
$LN2@DrawDecals:
	mov	eax, DWORD PTR _i$[ebp]
	add	eax, 1
	mov	DWORD PTR _i$[ebp], eax
$LN4@DrawDecals:
	mov	eax, DWORD PTR _i$[ebp]
	cmp	eax, DWORD PTR ?tr@@3Uref_globals_t@@A+5830644
	jge	SHORT $LN3@DrawDecals

; 231  : 		DrawSurfaceDecals(tr.draw_decals[i], false, false);

	push	0
	push	0
	mov	eax, DWORD PTR _i$[ebp]
	mov	ecx, DWORD PTR ?tr@@3Uref_globals_t@@A[eax*4+5814260]
	push	ecx
	call	?DrawSurfaceDecals@@YAXPAUmsurface_s@@_N1@Z ; DrawSurfaceDecals
	add	esp, 12					; 0000000cH
	jmp	SHORT $LN2@DrawDecals
$LN3@DrawDecals:

; 232  : 
; 233  : 	if (R_CountPlights())

	push	0
	call	?R_CountPlights@@YAH_N@Z		; R_CountPlights
	add	esp, 4
	test	eax, eax
	je	$LN6@DrawDecals

; 234  : 	{
; 235  : 		RI->objectMatrix = matrix4x4(e->origin, e->angles);	// FIXME

	push	ecx
	movss	xmm0, DWORD PTR __real@3f800000
	movss	DWORD PTR [esp], xmm0
	mov	eax, DWORD PTR _e$[ebp]
	add	eax, 2900				; 00000b54H
	push	eax
	mov	ecx, DWORD PTR _e$[ebp]
	add	ecx, 2888				; 00000b48H
	push	ecx
	lea	ecx, DWORD PTR $T1[ebp]
	call	??0matrix4x4@@QAE@ABVVector@@0M@Z	; matrix4x4::matrix4x4
	push	eax
	mov	ecx, DWORD PTR ?RI@@3PAUref_instance_t@@A ; RI
	add	ecx, 364				; 0000016cH
	call	??4matrix4x4@@QAEAAV0@ABV0@@Z		; matrix4x4::operator=

; 236  : 
; 237  : 		for (i = 0; i < MAX_PLIGHTS; i++)

	mov	DWORD PTR _i$[ebp], 0
	jmp	SHORT $LN7@DrawDecals
$LN5@DrawDecals:
	mov	eax, DWORD PTR _i$[ebp]
	add	eax, 1
	mov	DWORD PTR _i$[ebp], eax
$LN7@DrawDecals:
	cmp	DWORD PTR _i$[ebp], 96			; 00000060H
	jge	$LN6@DrawDecals

; 238  : 		{
; 239  : 			plight_t* pl = &cl_plights[i];

	imul	eax, DWORD PTR _i$[ebp], 768
	add	eax, OFFSET ?cl_plights@@3PAUplight_s@@A ; cl_plights
	mov	DWORD PTR _pl$3[ebp], eax

; 240  : 
; 241  : 			if (pl->die < tr.time || !pl->radius || pl->culled)

	mov	eax, DWORD PTR _pl$3[ebp]
	cvtss2sd xmm0, DWORD PTR [eax+32]
	movsd	xmm1, QWORD PTR ?tr@@3Uref_globals_t@@A+8
	comisd	xmm1, xmm0
	ja	SHORT $LN18@DrawDecals
	mov	eax, DWORD PTR _pl$3[ebp]
	movss	xmm0, DWORD PTR [eax+24]
	ucomiss	xmm0, DWORD PTR __real@00000000
	lahf
	test	ah, 68					; 00000044H
	jnp	SHORT $LN18@DrawDecals
	mov	eax, DWORD PTR _pl$3[ebp]
	movzx	ecx, BYTE PTR [eax+46]
	test	ecx, ecx
	je	SHORT $LN17@DrawDecals
$LN18@DrawDecals:

; 242  : 				continue;

	jmp	SHORT $LN5@DrawDecals
$LN17@DrawDecals:

; 243  : 
; 244  : 			if (!R_BeginDrawProjectionGLSL(pl, 0.5f))

	push	ecx
	movss	xmm0, DWORD PTR __real@3f000000
	movss	DWORD PTR [esp], xmm0
	mov	eax, DWORD PTR _pl$3[ebp]
	push	eax
	call	?R_BeginDrawProjectionGLSL@@YA_NPAUplight_s@@M@Z ; R_BeginDrawProjectionGLSL
	add	esp, 8
	movzx	ecx, al
	test	ecx, ecx
	jne	SHORT $LN19@DrawDecals

; 245  : 				continue;

	jmp	SHORT $LN5@DrawDecals
$LN19@DrawDecals:

; 246  : 
; 247  : 			for (int k = 0; k < tr.num_draw_decals; k++)

	mov	DWORD PTR _k$2[ebp], 0
	jmp	SHORT $LN10@DrawDecals
$LN8@DrawDecals:
	mov	eax, DWORD PTR _k$2[ebp]
	add	eax, 1
	mov	DWORD PTR _k$2[ebp], eax
$LN10@DrawDecals:
	mov	eax, DWORD PTR _k$2[ebp]
	cmp	eax, DWORD PTR ?tr@@3Uref_globals_t@@A+5830644
	jge	SHORT $LN9@DrawDecals

; 248  : 				DrawSurfaceDecals(tr.draw_decals[k], false, true);

	push	1
	push	0
	mov	eax, DWORD PTR _k$2[ebp]
	mov	ecx, DWORD PTR ?tr@@3Uref_globals_t@@A[eax*4+5814260]
	push	ecx
	call	?DrawSurfaceDecals@@YAXPAUmsurface_s@@_N1@Z ; DrawSurfaceDecals
	add	esp, 12					; 0000000cH
	jmp	SHORT $LN8@DrawDecals
$LN9@DrawDecals:

; 249  : 
; 250  : 			R_EndDrawProjectionGLSL();

	call	?R_EndDrawProjectionGLSL@@YAXXZ		; R_EndDrawProjectionGLSL

; 251  : 		}

	jmp	$LN5@DrawDecals
$LN6@DrawDecals:

; 252  : 	}
; 253  : 
; 254  : //	if ((e->curstate.rendermode != kRenderTransTexture) && (e->curstate.rendermode != kRenderFade))
; 255  : //	{
; 256  : 		pglDepthMask(GL_TRUE);

	push	1
	call	DWORD PTR ?pglDepthMask@@3P6GXE@ZA	; pglDepthMask

; 257  : 		pglDisable(GL_BLEND);

	push	3042					; 00000be2H
	call	DWORD PTR ?pglDisable@@3P6GXI@ZA	; pglDisable

; 258  : 		pglDisable(GL_ALPHA_TEST);

	push	3008					; 00000bc0H
	call	DWORD PTR ?pglDisable@@3P6GXI@ZA	; pglDisable

; 259  : //	}
; 260  : 
; 261  : 	if (CVAR_TO_BOOL(r_polyoffset))

	cmp	DWORD PTR ?r_polyoffset@@3PAUcvar_s@@A, 0 ; r_polyoffset
	je	SHORT $LN26@DrawDecals
	mov	eax, DWORD PTR ?r_polyoffset@@3PAUcvar_s@@A ; r_polyoffset
	movss	xmm0, DWORD PTR [eax+12]
	ucomiss	xmm0, DWORD PTR __real@00000000
	lahf
	test	ah, 68					; 00000044H
	jnp	SHORT $LN26@DrawDecals
	mov	BYTE PTR tv179[ebp], 1
	jmp	SHORT $LN27@DrawDecals
$LN26@DrawDecals:
	mov	BYTE PTR tv179[ebp], 0
$LN27@DrawDecals:
	movzx	ecx, BYTE PTR tv179[ebp]
	test	ecx, ecx
	je	SHORT $LN20@DrawDecals

; 262  : 		pglDisable(GL_POLYGON_OFFSET_FILL);

	push	32823					; 00008037H
	call	DWORD PTR ?pglDisable@@3P6GXI@ZA	; pglDisable
$LN20@DrawDecals:

; 263  : 
; 264  : 	if ((e->curstate.rendermode == kRenderTransTexture) || (e->curstate.rendermode == kRenderTransAdd) || (e->curstate.rendermode == kRenderFade) )

	mov	eax, DWORD PTR _e$[ebp]
	cmp	DWORD PTR [eax+760], 2
	je	SHORT $LN22@DrawDecals
	mov	eax, DWORD PTR _e$[ebp]
	cmp	DWORD PTR [eax+760], 5
	je	SHORT $LN22@DrawDecals
	mov	eax, DWORD PTR _e$[ebp]
	cmp	DWORD PTR [eax+760], 6
	jne	SHORT $LN21@DrawDecals
$LN22@DrawDecals:

; 265  : 		GL_Cull(GL_FRONT);

	push	1028					; 00000404H
	call	?GL_Cull@@YAXI@Z			; GL_Cull
	add	esp, 4
$LN21@DrawDecals:

; 266  : 
; 267  : 	GL_SelectTexture(glConfig.max_texture_units - 1); // force to cleanup all the units

	mov	eax, DWORD PTR ?glConfig@@3UglConfig_t@@A+52
	sub	eax, 1
	push	eax
	call	DWORD PTR ?gRenderfuncs@@3Urender_api_s@@A+136
	add	esp, 4

; 268  : 	GL_CleanUpTextureUnits(0);

	push	0
	call	DWORD PTR ?gRenderfuncs@@3Urender_api_s@@A+148
	add	esp, 4

; 269  : 	GL_BindShader(NULL);

	push	0
	call	?GL_BindShader@@YAXPAUglsl_prog_s@@@Z	; GL_BindShader
	add	esp, 4

; 270  : 
; 271  : 	tr.num_draw_decals = 0;

	mov	DWORD PTR ?tr@@3Uref_globals_t@@A+5830644, 0
$LN1@DrawDecals:

; 272  : }

	pop	edi
	pop	esi
	pop	ebx
	mov	ecx, DWORD PTR __$ArrayPad$[ebp]
	xor	ecx, ebp
	call	@__security_check_cookie@4
	mov	esp, ebp
	pop	ebp
	ret	0
?DrawDecalsBatch@@YAXXZ ENDP				; DrawDecalsBatch
_TEXT	ENDS
; Function compile flags: /Odtp /ZI
; File d:\!diffusion 2020\source code 2022\client-server\game_shared\matrix.h
;	COMDAT ??0matrix4x4@@QAE@ABVVector@@0M@Z
_TEXT	SEGMENT
tv1056 = -100						; size = 4
tv1054 = -100						; size = 4
tv1052 = -100						; size = 4
tv1050 = -100						; size = 4
tv1048 = -100						; size = 4
tv1046 = -100						; size = 4
tv1044 = -100						; size = 4
tv1042 = -100						; size = 4
tv1040 = -100						; size = 4
tv1038 = -100						; size = 4
tv1036 = -100						; size = 4
tv1034 = -100						; size = 4
tv1032 = -100						; size = 4
tv1030 = -100						; size = 4
tv1028 = -100						; size = 4
tv1026 = -100						; size = 4
tv1024 = -100						; size = 4
tv1022 = -100						; size = 4
tv1020 = -100						; size = 4
tv1018 = -100						; size = 4
tv1016 = -100						; size = 4
_cy$ = -32						; size = 4
_cp$ = -28						; size = 4
_cr$ = -24						; size = 4
_sy$ = -20						; size = 4
_sp$ = -16						; size = 4
_sr$ = -12						; size = 4
_angle$ = -8						; size = 4
_this$ = -4						; size = 4
_origin$ = 8						; size = 4
_angles$ = 12						; size = 4
_scale$ = 16						; size = 4
??0matrix4x4@@QAE@ABVVector@@0M@Z PROC			; matrix4x4::matrix4x4, COMDAT
; _this$ = ecx

; 701  : 	_forceinline matrix4x4( const Vector &origin, const Vector &angles, float scale = 1.0f )

	push	ebp
	mov	ebp, esp
	sub	esp, 100				; 00000064H
	push	ebx
	push	esi
	push	edi
	mov	DWORD PTR _this$[ebp], ecx

; 702  : 	{

	push	OFFSET ??0Vector4D@@QAE@XZ		; Vector4D::Vector4D
	push	4
	push	16					; 00000010H
	mov	eax, DWORD PTR _this$[ebp]
	push	eax
	call	??_H@YGXPAXIIP6EPAX0@Z@Z

; 703  : 		float	angle, sr, sp, sy, cr, cp, cy;
; 704  : 
; 705  : 		if( angles[ROLL] )

	mov	ecx, DWORD PTR _angles$[ebp]
	call	??BVector@@QBEPBMXZ			; Vector::operator float const *
	mov	ecx, 4
	shl	ecx, 1
	movss	xmm0, DWORD PTR [eax+ecx]
	ucomiss	xmm0, DWORD PTR __real@00000000
	lahf
	test	ah, 68					; 00000044H
	jnp	$LN2@matrix4x4

; 706  : 		{
; 707  : 			angle = angles[YAW] * (M_PI*2 / 360);

	mov	ecx, DWORD PTR _angles$[ebp]
	call	??BVector@@QBEPBMXZ			; Vector::operator float const *
	mov	ecx, 4
	shl	ecx, 0
	cvtss2sd xmm0, DWORD PTR [eax+ecx]
	mulsd	xmm0, QWORD PTR __real@3f91df46a2529d39
	cvtsd2ss xmm0, xmm0
	movss	DWORD PTR _angle$[ebp], xmm0

; 708  : 			SinCos( angle, &sy, &cy );

	lea	eax, DWORD PTR _cy$[ebp]
	push	eax
	lea	ecx, DWORD PTR _sy$[ebp]
	push	ecx
	push	ecx
	movss	xmm0, DWORD PTR _angle$[ebp]
	movss	DWORD PTR [esp], xmm0
	call	?SinCos@@YAXMPAM0@Z			; SinCos
	add	esp, 12					; 0000000cH

; 709  : 			angle = angles[PITCH] * (M_PI*2 / 360);

	mov	ecx, DWORD PTR _angles$[ebp]
	call	??BVector@@QBEPBMXZ			; Vector::operator float const *
	mov	ecx, 4
	imul	edx, ecx, 0
	cvtss2sd xmm0, DWORD PTR [eax+edx]
	mulsd	xmm0, QWORD PTR __real@3f91df46a2529d39
	cvtsd2ss xmm0, xmm0
	movss	DWORD PTR _angle$[ebp], xmm0

; 710  : 			SinCos( angle, &sp, &cp );

	lea	eax, DWORD PTR _cp$[ebp]
	push	eax
	lea	ecx, DWORD PTR _sp$[ebp]
	push	ecx
	push	ecx
	movss	xmm0, DWORD PTR _angle$[ebp]
	movss	DWORD PTR [esp], xmm0
	call	?SinCos@@YAXMPAM0@Z			; SinCos
	add	esp, 12					; 0000000cH

; 711  : 			angle = angles[ROLL] * (M_PI*2 / 360);

	mov	ecx, DWORD PTR _angles$[ebp]
	call	??BVector@@QBEPBMXZ			; Vector::operator float const *
	mov	ecx, 4
	shl	ecx, 1
	cvtss2sd xmm0, DWORD PTR [eax+ecx]
	mulsd	xmm0, QWORD PTR __real@3f91df46a2529d39
	cvtsd2ss xmm0, xmm0
	movss	DWORD PTR _angle$[ebp], xmm0

; 712  : 			SinCos( angle, &sr, &cr );

	lea	eax, DWORD PTR _cr$[ebp]
	push	eax
	lea	ecx, DWORD PTR _sr$[ebp]
	push	ecx
	push	ecx
	movss	xmm0, DWORD PTR _angle$[ebp]
	movss	DWORD PTR [esp], xmm0
	call	?SinCos@@YAXMPAM0@Z			; SinCos
	add	esp, 12					; 0000000cH

; 713  : 
; 714  : 			mat[0][0] = (cp*cy) * scale;

	movss	xmm0, DWORD PTR _cp$[ebp]
	mulss	xmm0, DWORD PTR _cy$[ebp]
	mulss	xmm0, DWORD PTR _scale$[ebp]
	mov	eax, 16					; 00000010H
	imul	ecx, eax, 0
	add	ecx, DWORD PTR _this$[ebp]
	movss	DWORD PTR tv1016[ebp], xmm0
	call	??BVector4D@@QAEPAMXZ			; Vector4D::operator float *
	mov	ecx, 4
	imul	edx, ecx, 0
	movss	xmm0, DWORD PTR tv1016[ebp]
	movss	DWORD PTR [eax+edx], xmm0

; 715  : 			mat[1][0] = (sr*sp*cy+cr*-sy) * scale;

	movss	xmm0, DWORD PTR _sr$[ebp]
	mulss	xmm0, DWORD PTR _sp$[ebp]
	mulss	xmm0, DWORD PTR _cy$[ebp]
	movss	xmm1, DWORD PTR _sy$[ebp]
	xorps	xmm1, DWORD PTR __xmm@80000000800000008000000080000000
	mulss	xmm1, DWORD PTR _cr$[ebp]
	addss	xmm0, xmm1
	mulss	xmm0, DWORD PTR _scale$[ebp]
	mov	ecx, 16					; 00000010H
	shl	ecx, 0
	add	ecx, DWORD PTR _this$[ebp]
	movss	DWORD PTR tv1018[ebp], xmm0
	call	??BVector4D@@QAEPAMXZ			; Vector4D::operator float *
	mov	ecx, 4
	imul	edx, ecx, 0
	movss	xmm0, DWORD PTR tv1018[ebp]
	movss	DWORD PTR [eax+edx], xmm0

; 716  : 			mat[2][0] = (cr*sp*cy+-sr*-sy) * scale;

	movss	xmm0, DWORD PTR _cr$[ebp]
	mulss	xmm0, DWORD PTR _sp$[ebp]
	mulss	xmm0, DWORD PTR _cy$[ebp]
	movss	xmm1, DWORD PTR _sr$[ebp]
	xorps	xmm1, DWORD PTR __xmm@80000000800000008000000080000000
	movss	xmm2, DWORD PTR _sy$[ebp]
	xorps	xmm2, DWORD PTR __xmm@80000000800000008000000080000000
	mulss	xmm1, xmm2
	addss	xmm0, xmm1
	mulss	xmm0, DWORD PTR _scale$[ebp]
	mov	ecx, 16					; 00000010H
	shl	ecx, 1
	add	ecx, DWORD PTR _this$[ebp]
	movss	DWORD PTR tv1020[ebp], xmm0
	call	??BVector4D@@QAEPAMXZ			; Vector4D::operator float *
	mov	ecx, 4
	imul	edx, ecx, 0
	movss	xmm0, DWORD PTR tv1020[ebp]
	movss	DWORD PTR [eax+edx], xmm0

; 717  : 			mat[3][0] = origin.x;

	mov	eax, 16					; 00000010H
	imul	ecx, eax, 3
	add	ecx, DWORD PTR _this$[ebp]
	call	??BVector4D@@QAEPAMXZ			; Vector4D::operator float *
	mov	ecx, 4
	imul	edx, ecx, 0
	mov	ecx, DWORD PTR _origin$[ebp]
	mov	ecx, DWORD PTR [ecx]
	mov	DWORD PTR [eax+edx], ecx

; 718  : 			mat[0][1] = (cp*sy) * scale;

	movss	xmm0, DWORD PTR _cp$[ebp]
	mulss	xmm0, DWORD PTR _sy$[ebp]
	mulss	xmm0, DWORD PTR _scale$[ebp]
	mov	eax, 16					; 00000010H
	imul	ecx, eax, 0
	add	ecx, DWORD PTR _this$[ebp]
	movss	DWORD PTR tv1022[ebp], xmm0
	call	??BVector4D@@QAEPAMXZ			; Vector4D::operator float *
	mov	ecx, 4
	shl	ecx, 0
	movss	xmm0, DWORD PTR tv1022[ebp]
	movss	DWORD PTR [eax+ecx], xmm0

; 719  : 			mat[1][1] = (sr*sp*sy+cr*cy) * scale;

	movss	xmm0, DWORD PTR _sr$[ebp]
	mulss	xmm0, DWORD PTR _sp$[ebp]
	mulss	xmm0, DWORD PTR _sy$[ebp]
	movss	xmm1, DWORD PTR _cr$[ebp]
	mulss	xmm1, DWORD PTR _cy$[ebp]
	addss	xmm0, xmm1
	mulss	xmm0, DWORD PTR _scale$[ebp]
	mov	ecx, 16					; 00000010H
	shl	ecx, 0
	add	ecx, DWORD PTR _this$[ebp]
	movss	DWORD PTR tv1024[ebp], xmm0
	call	??BVector4D@@QAEPAMXZ			; Vector4D::operator float *
	mov	ecx, 4
	shl	ecx, 0
	movss	xmm0, DWORD PTR tv1024[ebp]
	movss	DWORD PTR [eax+ecx], xmm0

; 720  : 			mat[2][1] = (cr*sp*sy+-sr*cy) * scale;

	movss	xmm0, DWORD PTR _cr$[ebp]
	mulss	xmm0, DWORD PTR _sp$[ebp]
	mulss	xmm0, DWORD PTR _sy$[ebp]
	movss	xmm1, DWORD PTR _sr$[ebp]
	xorps	xmm1, DWORD PTR __xmm@80000000800000008000000080000000
	mulss	xmm1, DWORD PTR _cy$[ebp]
	addss	xmm0, xmm1
	mulss	xmm0, DWORD PTR _scale$[ebp]
	mov	ecx, 16					; 00000010H
	shl	ecx, 1
	add	ecx, DWORD PTR _this$[ebp]
	movss	DWORD PTR tv1026[ebp], xmm0
	call	??BVector4D@@QAEPAMXZ			; Vector4D::operator float *
	mov	ecx, 4
	shl	ecx, 0
	movss	xmm0, DWORD PTR tv1026[ebp]
	movss	DWORD PTR [eax+ecx], xmm0

; 721  : 			mat[3][1] = origin.y;

	mov	eax, 16					; 00000010H
	imul	ecx, eax, 3
	add	ecx, DWORD PTR _this$[ebp]
	call	??BVector4D@@QAEPAMXZ			; Vector4D::operator float *
	mov	ecx, 4
	shl	ecx, 0
	mov	edx, DWORD PTR _origin$[ebp]
	mov	edx, DWORD PTR [edx+4]
	mov	DWORD PTR [eax+ecx], edx

; 722  : 			mat[0][2] = (-sp) * scale;

	movss	xmm0, DWORD PTR _sp$[ebp]
	xorps	xmm0, DWORD PTR __xmm@80000000800000008000000080000000
	mulss	xmm0, DWORD PTR _scale$[ebp]
	mov	eax, 16					; 00000010H
	imul	ecx, eax, 0
	add	ecx, DWORD PTR _this$[ebp]
	movss	DWORD PTR tv1028[ebp], xmm0
	call	??BVector4D@@QAEPAMXZ			; Vector4D::operator float *
	mov	ecx, 4
	shl	ecx, 1
	movss	xmm0, DWORD PTR tv1028[ebp]
	movss	DWORD PTR [eax+ecx], xmm0

; 723  : 			mat[1][2] = (sr*cp) * scale;

	movss	xmm0, DWORD PTR _sr$[ebp]
	mulss	xmm0, DWORD PTR _cp$[ebp]
	mulss	xmm0, DWORD PTR _scale$[ebp]
	mov	ecx, 16					; 00000010H
	shl	ecx, 0
	add	ecx, DWORD PTR _this$[ebp]
	movss	DWORD PTR tv1030[ebp], xmm0
	call	??BVector4D@@QAEPAMXZ			; Vector4D::operator float *
	mov	ecx, 4
	shl	ecx, 1
	movss	xmm0, DWORD PTR tv1030[ebp]
	movss	DWORD PTR [eax+ecx], xmm0

; 724  : 			mat[2][2] = (cr*cp) * scale;

	movss	xmm0, DWORD PTR _cr$[ebp]
	mulss	xmm0, DWORD PTR _cp$[ebp]
	mulss	xmm0, DWORD PTR _scale$[ebp]
	mov	ecx, 16					; 00000010H
	shl	ecx, 1
	add	ecx, DWORD PTR _this$[ebp]
	movss	DWORD PTR tv1032[ebp], xmm0
	call	??BVector4D@@QAEPAMXZ			; Vector4D::operator float *
	mov	ecx, 4
	shl	ecx, 1
	movss	xmm0, DWORD PTR tv1032[ebp]
	movss	DWORD PTR [eax+ecx], xmm0

; 725  : 			mat[3][2] = origin.z;

	mov	eax, 16					; 00000010H
	imul	ecx, eax, 3
	add	ecx, DWORD PTR _this$[ebp]
	call	??BVector4D@@QAEPAMXZ			; Vector4D::operator float *
	mov	ecx, 4
	shl	ecx, 1
	mov	edx, DWORD PTR _origin$[ebp]
	mov	edx, DWORD PTR [edx+8]
	mov	DWORD PTR [eax+ecx], edx

; 726  : 			mat[0][3] = 0;

	mov	eax, 16					; 00000010H
	imul	ecx, eax, 0
	add	ecx, DWORD PTR _this$[ebp]
	call	??BVector4D@@QAEPAMXZ			; Vector4D::operator float *
	mov	ecx, 4
	imul	edx, ecx, 3
	xorps	xmm0, xmm0
	movss	DWORD PTR [eax+edx], xmm0

; 727  : 			mat[1][3] = 0;

	mov	ecx, 16					; 00000010H
	shl	ecx, 0
	add	ecx, DWORD PTR _this$[ebp]
	call	??BVector4D@@QAEPAMXZ			; Vector4D::operator float *
	mov	ecx, 4
	imul	edx, ecx, 3
	xorps	xmm0, xmm0
	movss	DWORD PTR [eax+edx], xmm0

; 728  : 			mat[2][3] = 0;

	mov	ecx, 16					; 00000010H
	shl	ecx, 1
	add	ecx, DWORD PTR _this$[ebp]
	call	??BVector4D@@QAEPAMXZ			; Vector4D::operator float *
	mov	ecx, 4
	imul	edx, ecx, 3
	xorps	xmm0, xmm0
	movss	DWORD PTR [eax+edx], xmm0

; 729  : 			mat[3][3] = 1;

	mov	eax, 16					; 00000010H
	imul	ecx, eax, 3
	add	ecx, DWORD PTR _this$[ebp]
	call	??BVector4D@@QAEPAMXZ			; Vector4D::operator float *
	mov	ecx, 4
	imul	edx, ecx, 3
	movss	xmm0, DWORD PTR __real@3f800000
	movss	DWORD PTR [eax+edx], xmm0
	jmp	$LN7@matrix4x4
$LN2@matrix4x4:

; 730  : 		}
; 731  : 		else if( angles[PITCH] )

	mov	ecx, DWORD PTR _angles$[ebp]
	call	??BVector@@QBEPBMXZ			; Vector::operator float const *
	mov	ecx, 4
	imul	edx, ecx, 0
	movss	xmm0, DWORD PTR [eax+edx]
	ucomiss	xmm0, DWORD PTR __real@00000000
	lahf
	test	ah, 68					; 00000044H
	jnp	$LN4@matrix4x4

; 732  : 		{
; 733  : 			angle = angles[YAW] * (M_PI*2 / 360);

	mov	ecx, DWORD PTR _angles$[ebp]
	call	??BVector@@QBEPBMXZ			; Vector::operator float const *
	mov	ecx, 4
	shl	ecx, 0
	cvtss2sd xmm0, DWORD PTR [eax+ecx]
	mulsd	xmm0, QWORD PTR __real@3f91df46a2529d39
	cvtsd2ss xmm0, xmm0
	movss	DWORD PTR _angle$[ebp], xmm0

; 734  : 			SinCos( angle, &sy, &cy );

	lea	eax, DWORD PTR _cy$[ebp]
	push	eax
	lea	ecx, DWORD PTR _sy$[ebp]
	push	ecx
	push	ecx
	movss	xmm0, DWORD PTR _angle$[ebp]
	movss	DWORD PTR [esp], xmm0
	call	?SinCos@@YAXMPAM0@Z			; SinCos
	add	esp, 12					; 0000000cH

; 735  : 			angle = angles[PITCH] * (M_PI*2 / 360);

	mov	ecx, DWORD PTR _angles$[ebp]
	call	??BVector@@QBEPBMXZ			; Vector::operator float const *
	mov	ecx, 4
	imul	edx, ecx, 0
	cvtss2sd xmm0, DWORD PTR [eax+edx]
	mulsd	xmm0, QWORD PTR __real@3f91df46a2529d39
	cvtsd2ss xmm0, xmm0
	movss	DWORD PTR _angle$[ebp], xmm0

; 736  : 			SinCos( angle, &sp, &cp );

	lea	eax, DWORD PTR _cp$[ebp]
	push	eax
	lea	ecx, DWORD PTR _sp$[ebp]
	push	ecx
	push	ecx
	movss	xmm0, DWORD PTR _angle$[ebp]
	movss	DWORD PTR [esp], xmm0
	call	?SinCos@@YAXMPAM0@Z			; SinCos
	add	esp, 12					; 0000000cH

; 737  : 
; 738  : 			mat[0][0] = (cp*cy) * scale;

	movss	xmm0, DWORD PTR _cp$[ebp]
	mulss	xmm0, DWORD PTR _cy$[ebp]
	mulss	xmm0, DWORD PTR _scale$[ebp]
	mov	eax, 16					; 00000010H
	imul	ecx, eax, 0
	add	ecx, DWORD PTR _this$[ebp]
	movss	DWORD PTR tv1034[ebp], xmm0
	call	??BVector4D@@QAEPAMXZ			; Vector4D::operator float *
	mov	ecx, 4
	imul	edx, ecx, 0
	movss	xmm0, DWORD PTR tv1034[ebp]
	movss	DWORD PTR [eax+edx], xmm0

; 739  : 			mat[1][0] = (-sy) * scale;

	movss	xmm0, DWORD PTR _sy$[ebp]
	xorps	xmm0, DWORD PTR __xmm@80000000800000008000000080000000
	mulss	xmm0, DWORD PTR _scale$[ebp]
	mov	ecx, 16					; 00000010H
	shl	ecx, 0
	add	ecx, DWORD PTR _this$[ebp]
	movss	DWORD PTR tv1036[ebp], xmm0
	call	??BVector4D@@QAEPAMXZ			; Vector4D::operator float *
	mov	ecx, 4
	imul	edx, ecx, 0
	movss	xmm0, DWORD PTR tv1036[ebp]
	movss	DWORD PTR [eax+edx], xmm0

; 740  : 			mat[2][0] = (sp*cy) * scale;

	movss	xmm0, DWORD PTR _sp$[ebp]
	mulss	xmm0, DWORD PTR _cy$[ebp]
	mulss	xmm0, DWORD PTR _scale$[ebp]
	mov	ecx, 16					; 00000010H
	shl	ecx, 1
	add	ecx, DWORD PTR _this$[ebp]
	movss	DWORD PTR tv1038[ebp], xmm0
	call	??BVector4D@@QAEPAMXZ			; Vector4D::operator float *
	mov	ecx, 4
	imul	edx, ecx, 0
	movss	xmm0, DWORD PTR tv1038[ebp]
	movss	DWORD PTR [eax+edx], xmm0

; 741  : 			mat[3][0] = origin.x;

	mov	eax, 16					; 00000010H
	imul	ecx, eax, 3
	add	ecx, DWORD PTR _this$[ebp]
	call	??BVector4D@@QAEPAMXZ			; Vector4D::operator float *
	mov	ecx, 4
	imul	edx, ecx, 0
	mov	ecx, DWORD PTR _origin$[ebp]
	mov	ecx, DWORD PTR [ecx]
	mov	DWORD PTR [eax+edx], ecx

; 742  : 			mat[0][1] = (cp*sy) * scale;

	movss	xmm0, DWORD PTR _cp$[ebp]
	mulss	xmm0, DWORD PTR _sy$[ebp]
	mulss	xmm0, DWORD PTR _scale$[ebp]
	mov	eax, 16					; 00000010H
	imul	ecx, eax, 0
	add	ecx, DWORD PTR _this$[ebp]
	movss	DWORD PTR tv1040[ebp], xmm0
	call	??BVector4D@@QAEPAMXZ			; Vector4D::operator float *
	mov	ecx, 4
	shl	ecx, 0
	movss	xmm0, DWORD PTR tv1040[ebp]
	movss	DWORD PTR [eax+ecx], xmm0

; 743  : 			mat[1][1] = (cy) * scale;

	movss	xmm0, DWORD PTR _cy$[ebp]
	mulss	xmm0, DWORD PTR _scale$[ebp]
	mov	ecx, 16					; 00000010H
	shl	ecx, 0
	add	ecx, DWORD PTR _this$[ebp]
	movss	DWORD PTR tv1042[ebp], xmm0
	call	??BVector4D@@QAEPAMXZ			; Vector4D::operator float *
	mov	ecx, 4
	shl	ecx, 0
	movss	xmm0, DWORD PTR tv1042[ebp]
	movss	DWORD PTR [eax+ecx], xmm0

; 744  : 			mat[2][1] = (sp*sy) * scale;

	movss	xmm0, DWORD PTR _sp$[ebp]
	mulss	xmm0, DWORD PTR _sy$[ebp]
	mulss	xmm0, DWORD PTR _scale$[ebp]
	mov	ecx, 16					; 00000010H
	shl	ecx, 1
	add	ecx, DWORD PTR _this$[ebp]
	movss	DWORD PTR tv1044[ebp], xmm0
	call	??BVector4D@@QAEPAMXZ			; Vector4D::operator float *
	mov	ecx, 4
	shl	ecx, 0
	movss	xmm0, DWORD PTR tv1044[ebp]
	movss	DWORD PTR [eax+ecx], xmm0

; 745  : 			mat[3][1] = origin.y;

	mov	eax, 16					; 00000010H
	imul	ecx, eax, 3
	add	ecx, DWORD PTR _this$[ebp]
	call	??BVector4D@@QAEPAMXZ			; Vector4D::operator float *
	mov	ecx, 4
	shl	ecx, 0
	mov	edx, DWORD PTR _origin$[ebp]
	mov	edx, DWORD PTR [edx+4]
	mov	DWORD PTR [eax+ecx], edx

; 746  : 			mat[0][2] = (-sp) * scale;

	movss	xmm0, DWORD PTR _sp$[ebp]
	xorps	xmm0, DWORD PTR __xmm@80000000800000008000000080000000
	mulss	xmm0, DWORD PTR _scale$[ebp]
	mov	eax, 16					; 00000010H
	imul	ecx, eax, 0
	add	ecx, DWORD PTR _this$[ebp]
	movss	DWORD PTR tv1046[ebp], xmm0
	call	??BVector4D@@QAEPAMXZ			; Vector4D::operator float *
	mov	ecx, 4
	shl	ecx, 1
	movss	xmm0, DWORD PTR tv1046[ebp]
	movss	DWORD PTR [eax+ecx], xmm0

; 747  : 			mat[1][2] = 0;

	mov	ecx, 16					; 00000010H
	shl	ecx, 0
	add	ecx, DWORD PTR _this$[ebp]
	call	??BVector4D@@QAEPAMXZ			; Vector4D::operator float *
	mov	ecx, 4
	shl	ecx, 1
	xorps	xmm0, xmm0
	movss	DWORD PTR [eax+ecx], xmm0

; 748  : 			mat[2][2] = (cp) * scale;

	movss	xmm0, DWORD PTR _cp$[ebp]
	mulss	xmm0, DWORD PTR _scale$[ebp]
	mov	ecx, 16					; 00000010H
	shl	ecx, 1
	add	ecx, DWORD PTR _this$[ebp]
	movss	DWORD PTR tv1048[ebp], xmm0
	call	??BVector4D@@QAEPAMXZ			; Vector4D::operator float *
	mov	ecx, 4
	shl	ecx, 1
	movss	xmm0, DWORD PTR tv1048[ebp]
	movss	DWORD PTR [eax+ecx], xmm0

; 749  : 			mat[3][2] = origin.z;

	mov	eax, 16					; 00000010H
	imul	ecx, eax, 3
	add	ecx, DWORD PTR _this$[ebp]
	call	??BVector4D@@QAEPAMXZ			; Vector4D::operator float *
	mov	ecx, 4
	shl	ecx, 1
	mov	edx, DWORD PTR _origin$[ebp]
	mov	edx, DWORD PTR [edx+8]
	mov	DWORD PTR [eax+ecx], edx

; 750  : 			mat[0][3] = 0;

	mov	eax, 16					; 00000010H
	imul	ecx, eax, 0
	add	ecx, DWORD PTR _this$[ebp]
	call	??BVector4D@@QAEPAMXZ			; Vector4D::operator float *
	mov	ecx, 4
	imul	edx, ecx, 3
	xorps	xmm0, xmm0
	movss	DWORD PTR [eax+edx], xmm0

; 751  : 			mat[1][3] = 0;

	mov	ecx, 16					; 00000010H
	shl	ecx, 0
	add	ecx, DWORD PTR _this$[ebp]
	call	??BVector4D@@QAEPAMXZ			; Vector4D::operator float *
	mov	ecx, 4
	imul	edx, ecx, 3
	xorps	xmm0, xmm0
	movss	DWORD PTR [eax+edx], xmm0

; 752  : 			mat[2][3] = 0;

	mov	ecx, 16					; 00000010H
	shl	ecx, 1
	add	ecx, DWORD PTR _this$[ebp]
	call	??BVector4D@@QAEPAMXZ			; Vector4D::operator float *
	mov	ecx, 4
	imul	edx, ecx, 3
	xorps	xmm0, xmm0
	movss	DWORD PTR [eax+edx], xmm0

; 753  : 			mat[3][3] = 1;

	mov	eax, 16					; 00000010H
	imul	ecx, eax, 3
	add	ecx, DWORD PTR _this$[ebp]
	call	??BVector4D@@QAEPAMXZ			; Vector4D::operator float *
	mov	ecx, 4
	imul	edx, ecx, 3
	movss	xmm0, DWORD PTR __real@3f800000
	movss	DWORD PTR [eax+edx], xmm0
	jmp	$LN7@matrix4x4
$LN4@matrix4x4:

; 754  : 		}
; 755  : 		else if( angles[YAW] )

	mov	ecx, DWORD PTR _angles$[ebp]
	call	??BVector@@QBEPBMXZ			; Vector::operator float const *
	mov	ecx, 4
	shl	ecx, 0
	movss	xmm0, DWORD PTR [eax+ecx]
	ucomiss	xmm0, DWORD PTR __real@00000000
	lahf
	test	ah, 68					; 00000044H
	jnp	$LN6@matrix4x4

; 756  : 		{
; 757  : 			angle = angles[YAW] * (M_PI*2 / 360);

	mov	ecx, DWORD PTR _angles$[ebp]
	call	??BVector@@QBEPBMXZ			; Vector::operator float const *
	mov	ecx, 4
	shl	ecx, 0
	cvtss2sd xmm0, DWORD PTR [eax+ecx]
	mulsd	xmm0, QWORD PTR __real@3f91df46a2529d39
	cvtsd2ss xmm0, xmm0
	movss	DWORD PTR _angle$[ebp], xmm0

; 758  : 			SinCos( angle, &sy, &cy );

	lea	eax, DWORD PTR _cy$[ebp]
	push	eax
	lea	ecx, DWORD PTR _sy$[ebp]
	push	ecx
	push	ecx
	movss	xmm0, DWORD PTR _angle$[ebp]
	movss	DWORD PTR [esp], xmm0
	call	?SinCos@@YAXMPAM0@Z			; SinCos
	add	esp, 12					; 0000000cH

; 759  : 
; 760  : 			mat[0][0] = (cy) * scale;

	movss	xmm0, DWORD PTR _cy$[ebp]
	mulss	xmm0, DWORD PTR _scale$[ebp]
	mov	eax, 16					; 00000010H
	imul	ecx, eax, 0
	add	ecx, DWORD PTR _this$[ebp]
	movss	DWORD PTR tv1050[ebp], xmm0
	call	??BVector4D@@QAEPAMXZ			; Vector4D::operator float *
	mov	ecx, 4
	imul	edx, ecx, 0
	movss	xmm0, DWORD PTR tv1050[ebp]
	movss	DWORD PTR [eax+edx], xmm0

; 761  : 			mat[1][0] = (-sy) * scale;

	movss	xmm0, DWORD PTR _sy$[ebp]
	xorps	xmm0, DWORD PTR __xmm@80000000800000008000000080000000
	mulss	xmm0, DWORD PTR _scale$[ebp]
	mov	ecx, 16					; 00000010H
	shl	ecx, 0
	add	ecx, DWORD PTR _this$[ebp]
	movss	DWORD PTR tv1052[ebp], xmm0
	call	??BVector4D@@QAEPAMXZ			; Vector4D::operator float *
	mov	ecx, 4
	imul	edx, ecx, 0
	movss	xmm0, DWORD PTR tv1052[ebp]
	movss	DWORD PTR [eax+edx], xmm0

; 762  : 			mat[2][0] = 0;

	mov	ecx, 16					; 00000010H
	shl	ecx, 1
	add	ecx, DWORD PTR _this$[ebp]
	call	??BVector4D@@QAEPAMXZ			; Vector4D::operator float *
	mov	ecx, 4
	imul	edx, ecx, 0
	xorps	xmm0, xmm0
	movss	DWORD PTR [eax+edx], xmm0

; 763  : 			mat[3][0] = origin.x;

	mov	eax, 16					; 00000010H
	imul	ecx, eax, 3
	add	ecx, DWORD PTR _this$[ebp]
	call	??BVector4D@@QAEPAMXZ			; Vector4D::operator float *
	mov	ecx, 4
	imul	edx, ecx, 0
	mov	ecx, DWORD PTR _origin$[ebp]
	mov	ecx, DWORD PTR [ecx]
	mov	DWORD PTR [eax+edx], ecx

; 764  : 			mat[0][1] = (sy) * scale;

	movss	xmm0, DWORD PTR _sy$[ebp]
	mulss	xmm0, DWORD PTR _scale$[ebp]
	mov	eax, 16					; 00000010H
	imul	ecx, eax, 0
	add	ecx, DWORD PTR _this$[ebp]
	movss	DWORD PTR tv1054[ebp], xmm0
	call	??BVector4D@@QAEPAMXZ			; Vector4D::operator float *
	mov	ecx, 4
	shl	ecx, 0
	movss	xmm0, DWORD PTR tv1054[ebp]
	movss	DWORD PTR [eax+ecx], xmm0

; 765  : 			mat[1][1] = (cy) * scale;

	movss	xmm0, DWORD PTR _cy$[ebp]
	mulss	xmm0, DWORD PTR _scale$[ebp]
	mov	ecx, 16					; 00000010H
	shl	ecx, 0
	add	ecx, DWORD PTR _this$[ebp]
	movss	DWORD PTR tv1056[ebp], xmm0
	call	??BVector4D@@QAEPAMXZ			; Vector4D::operator float *
	mov	ecx, 4
	shl	ecx, 0
	movss	xmm0, DWORD PTR tv1056[ebp]
	movss	DWORD PTR [eax+ecx], xmm0

; 766  : 			mat[2][1] = 0;

	mov	ecx, 16					; 00000010H
	shl	ecx, 1
	add	ecx, DWORD PTR _this$[ebp]
	call	??BVector4D@@QAEPAMXZ			; Vector4D::operator float *
	mov	ecx, 4
	shl	ecx, 0
	xorps	xmm0, xmm0
	movss	DWORD PTR [eax+ecx], xmm0

; 767  : 			mat[3][1] = origin.y;

	mov	eax, 16					; 00000010H
	imul	ecx, eax, 3
	add	ecx, DWORD PTR _this$[ebp]
	call	??BVector4D@@QAEPAMXZ			; Vector4D::operator float *
	mov	ecx, 4
	shl	ecx, 0
	mov	edx, DWORD PTR _origin$[ebp]
	mov	edx, DWORD PTR [edx+4]
	mov	DWORD PTR [eax+ecx], edx

; 768  : 			mat[0][2] = 0;

	mov	eax, 16					; 00000010H
	imul	ecx, eax, 0
	add	ecx, DWORD PTR _this$[ebp]
	call	??BVector4D@@QAEPAMXZ			; Vector4D::operator float *
	mov	ecx, 4
	shl	ecx, 1
	xorps	xmm0, xmm0
	movss	DWORD PTR [eax+ecx], xmm0

; 769  : 			mat[1][2] = 0;

	mov	ecx, 16					; 00000010H
	shl	ecx, 0
	add	ecx, DWORD PTR _this$[ebp]
	call	??BVector4D@@QAEPAMXZ			; Vector4D::operator float *
	mov	ecx, 4
	shl	ecx, 1
	xorps	xmm0, xmm0
	movss	DWORD PTR [eax+ecx], xmm0

; 770  : 			mat[2][2] = scale;

	mov	ecx, 16					; 00000010H
	shl	ecx, 1
	add	ecx, DWORD PTR _this$[ebp]
	call	??BVector4D@@QAEPAMXZ			; Vector4D::operator float *
	mov	ecx, 4
	shl	ecx, 1
	movss	xmm0, DWORD PTR _scale$[ebp]
	movss	DWORD PTR [eax+ecx], xmm0

; 771  : 			mat[3][2] = origin.z;

	mov	eax, 16					; 00000010H
	imul	ecx, eax, 3
	add	ecx, DWORD PTR _this$[ebp]
	call	??BVector4D@@QAEPAMXZ			; Vector4D::operator float *
	mov	ecx, 4
	shl	ecx, 1
	mov	edx, DWORD PTR _origin$[ebp]
	mov	edx, DWORD PTR [edx+8]
	mov	DWORD PTR [eax+ecx], edx

; 772  : 			mat[0][3] = 0;

	mov	eax, 16					; 00000010H
	imul	ecx, eax, 0
	add	ecx, DWORD PTR _this$[ebp]
	call	??BVector4D@@QAEPAMXZ			; Vector4D::operator float *
	mov	ecx, 4
	imul	edx, ecx, 3
	xorps	xmm0, xmm0
	movss	DWORD PTR [eax+edx], xmm0

; 773  : 			mat[1][3] = 0;

	mov	ecx, 16					; 00000010H
	shl	ecx, 0
	add	ecx, DWORD PTR _this$[ebp]
	call	??BVector4D@@QAEPAMXZ			; Vector4D::operator float *
	mov	ecx, 4
	imul	edx, ecx, 3
	xorps	xmm0, xmm0
	movss	DWORD PTR [eax+edx], xmm0

; 774  : 			mat[2][3] = 0;

	mov	ecx, 16					; 00000010H
	shl	ecx, 1
	add	ecx, DWORD PTR _this$[ebp]
	call	??BVector4D@@QAEPAMXZ			; Vector4D::operator float *
	mov	ecx, 4
	imul	edx, ecx, 3
	xorps	xmm0, xmm0
	movss	DWORD PTR [eax+edx], xmm0

; 775  : 			mat[3][3] = 1;

	mov	eax, 16					; 00000010H
	imul	ecx, eax, 3
	add	ecx, DWORD PTR _this$[ebp]
	call	??BVector4D@@QAEPAMXZ			; Vector4D::operator float *
	mov	ecx, 4
	imul	edx, ecx, 3
	movss	xmm0, DWORD PTR __real@3f800000
	movss	DWORD PTR [eax+edx], xmm0

; 776  : 		}
; 777  : 		else

	jmp	$LN7@matrix4x4
$LN6@matrix4x4:

; 778  : 		{
; 779  : 			mat[0][0] = scale;

	mov	eax, 16					; 00000010H
	imul	ecx, eax, 0
	add	ecx, DWORD PTR _this$[ebp]
	call	??BVector4D@@QAEPAMXZ			; Vector4D::operator float *
	mov	ecx, 4
	imul	edx, ecx, 0
	movss	xmm0, DWORD PTR _scale$[ebp]
	movss	DWORD PTR [eax+edx], xmm0

; 780  : 			mat[1][0] = 0;

	mov	ecx, 16					; 00000010H
	shl	ecx, 0
	add	ecx, DWORD PTR _this$[ebp]
	call	??BVector4D@@QAEPAMXZ			; Vector4D::operator float *
	mov	ecx, 4
	imul	edx, ecx, 0
	xorps	xmm0, xmm0
	movss	DWORD PTR [eax+edx], xmm0

; 781  : 			mat[2][0] = 0;

	mov	ecx, 16					; 00000010H
	shl	ecx, 1
	add	ecx, DWORD PTR _this$[ebp]
	call	??BVector4D@@QAEPAMXZ			; Vector4D::operator float *
	mov	ecx, 4
	imul	edx, ecx, 0
	xorps	xmm0, xmm0
	movss	DWORD PTR [eax+edx], xmm0

; 782  : 			mat[3][0] = origin.x;

	mov	eax, 16					; 00000010H
	imul	ecx, eax, 3
	add	ecx, DWORD PTR _this$[ebp]
	call	??BVector4D@@QAEPAMXZ			; Vector4D::operator float *
	mov	ecx, 4
	imul	edx, ecx, 0
	mov	ecx, DWORD PTR _origin$[ebp]
	mov	ecx, DWORD PTR [ecx]
	mov	DWORD PTR [eax+edx], ecx

; 783  : 			mat[0][1] = 0;

	mov	eax, 16					; 00000010H
	imul	ecx, eax, 0
	add	ecx, DWORD PTR _this$[ebp]
	call	??BVector4D@@QAEPAMXZ			; Vector4D::operator float *
	mov	ecx, 4
	shl	ecx, 0
	xorps	xmm0, xmm0
	movss	DWORD PTR [eax+ecx], xmm0

; 784  : 			mat[1][1] = scale;

	mov	ecx, 16					; 00000010H
	shl	ecx, 0
	add	ecx, DWORD PTR _this$[ebp]
	call	??BVector4D@@QAEPAMXZ			; Vector4D::operator float *
	mov	ecx, 4
	shl	ecx, 0
	movss	xmm0, DWORD PTR _scale$[ebp]
	movss	DWORD PTR [eax+ecx], xmm0

; 785  : 			mat[2][1] = 0;

	mov	ecx, 16					; 00000010H
	shl	ecx, 1
	add	ecx, DWORD PTR _this$[ebp]
	call	??BVector4D@@QAEPAMXZ			; Vector4D::operator float *
	mov	ecx, 4
	shl	ecx, 0
	xorps	xmm0, xmm0
	movss	DWORD PTR [eax+ecx], xmm0

; 786  : 			mat[3][1] = origin.y;

	mov	eax, 16					; 00000010H
	imul	ecx, eax, 3
	add	ecx, DWORD PTR _this$[ebp]
	call	??BVector4D@@QAEPAMXZ			; Vector4D::operator float *
	mov	ecx, 4
	shl	ecx, 0
	mov	edx, DWORD PTR _origin$[ebp]
	mov	edx, DWORD PTR [edx+4]
	mov	DWORD PTR [eax+ecx], edx

; 787  : 			mat[0][2] = 0;

	mov	eax, 16					; 00000010H
	imul	ecx, eax, 0
	add	ecx, DWORD PTR _this$[ebp]
	call	??BVector4D@@QAEPAMXZ			; Vector4D::operator float *
	mov	ecx, 4
	shl	ecx, 1
	xorps	xmm0, xmm0
	movss	DWORD PTR [eax+ecx], xmm0

; 788  : 			mat[1][2] = 0;

	mov	ecx, 16					; 00000010H
	shl	ecx, 0
	add	ecx, DWORD PTR _this$[ebp]
	call	??BVector4D@@QAEPAMXZ			; Vector4D::operator float *
	mov	ecx, 4
	shl	ecx, 1
	xorps	xmm0, xmm0
	movss	DWORD PTR [eax+ecx], xmm0

; 789  : 			mat[2][2] = scale;

	mov	ecx, 16					; 00000010H
	shl	ecx, 1
	add	ecx, DWORD PTR _this$[ebp]
	call	??BVector4D@@QAEPAMXZ			; Vector4D::operator float *
	mov	ecx, 4
	shl	ecx, 1
	movss	xmm0, DWORD PTR _scale$[ebp]
	movss	DWORD PTR [eax+ecx], xmm0

; 790  : 			mat[3][2] = origin.z;

	mov	eax, 16					; 00000010H
	imul	ecx, eax, 3
	add	ecx, DWORD PTR _this$[ebp]
	call	??BVector4D@@QAEPAMXZ			; Vector4D::operator float *
	mov	ecx, 4
	shl	ecx, 1
	mov	edx, DWORD PTR _origin$[ebp]
	mov	edx, DWORD PTR [edx+8]
	mov	DWORD PTR [eax+ecx], edx

; 791  : 			mat[0][3] = 0;

	mov	eax, 16					; 00000010H
	imul	ecx, eax, 0
	add	ecx, DWORD PTR _this$[ebp]
	call	??BVector4D@@QAEPAMXZ			; Vector4D::operator float *
	mov	ecx, 4
	imul	edx, ecx, 3
	xorps	xmm0, xmm0
	movss	DWORD PTR [eax+edx], xmm0

; 792  : 			mat[1][3] = 0;

	mov	ecx, 16					; 00000010H
	shl	ecx, 0
	add	ecx, DWORD PTR _this$[ebp]
	call	??BVector4D@@QAEPAMXZ			; Vector4D::operator float *
	mov	ecx, 4
	imul	edx, ecx, 3
	xorps	xmm0, xmm0
	movss	DWORD PTR [eax+edx], xmm0

; 793  : 			mat[2][3] = 0;

	mov	ecx, 16					; 00000010H
	shl	ecx, 1
	add	ecx, DWORD PTR _this$[ebp]
	call	??BVector4D@@QAEPAMXZ			; Vector4D::operator float *
	mov	ecx, 4
	imul	edx, ecx, 3
	xorps	xmm0, xmm0
	movss	DWORD PTR [eax+edx], xmm0

; 794  : 			mat[3][3] = 1;

	mov	eax, 16					; 00000010H
	imul	ecx, eax, 3
	add	ecx, DWORD PTR _this$[ebp]
	call	??BVector4D@@QAEPAMXZ			; Vector4D::operator float *
	mov	ecx, 4
	imul	edx, ecx, 3
	movss	xmm0, DWORD PTR __real@3f800000
	movss	DWORD PTR [eax+edx], xmm0
$LN7@matrix4x4:

; 795  : 		}
; 796  : 	}

	mov	eax, DWORD PTR _this$[ebp]
	pop	edi
	pop	esi
	pop	ebx
	mov	esp, ebp
	pop	ebp
	ret	12					; 0000000cH
??0matrix4x4@@QAE@ABVVector@@0M@Z ENDP			; matrix4x4::matrix4x4
_TEXT	ENDS
; Function compile flags: /Odtp /ZI
; File d:\!diffusion 2020\source code 2022\client-server\game_shared\vector.h
;	COMDAT ??BVector4D@@QAEPAMXZ
_TEXT	SEGMENT
_this$ = -4						; size = 4
??BVector4D@@QAEPAMXZ PROC				; Vector4D::operator float *, COMDAT
; _this$ = ecx

; 344  : 	operator float *()					{ return &x; }

	push	ebp
	mov	ebp, esp
	sub	esp, 68					; 00000044H
	push	ebx
	push	esi
	push	edi
	mov	DWORD PTR _this$[ebp], ecx
	mov	eax, DWORD PTR _this$[ebp]
	pop	edi
	pop	esi
	pop	ebx
	mov	esp, ebp
	pop	ebp
	ret	0
??BVector4D@@QAEPAMXZ ENDP				; Vector4D::operator float *
_TEXT	ENDS
; Function compile flags: /Odtp /ZI
; File d:\!diffusion 2020\source code 2022\client-server\game_shared\vector.h
;	COMDAT ?Init@Vector4D@@QAEXMMMM@Z
_TEXT	SEGMENT
_this$ = -4						; size = 4
_ix$ = 8						; size = 4
_iy$ = 12						; size = 4
_iz$ = 16						; size = 4
_iw$ = 20						; size = 4
?Init@Vector4D@@QAEXMMMM@Z PROC				; Vector4D::Init, COMDAT
; _this$ = ecx

; 339  : 	{

	push	ebp
	mov	ebp, esp
	sub	esp, 68					; 00000044H
	push	ebx
	push	esi
	push	edi
	mov	DWORD PTR _this$[ebp], ecx

; 340  : 		x = ix; y = iy; z = iz; w = iw;

	mov	eax, DWORD PTR _this$[ebp]
	movss	xmm0, DWORD PTR _ix$[ebp]
	movss	DWORD PTR [eax], xmm0
	mov	eax, DWORD PTR _this$[ebp]
	movss	xmm0, DWORD PTR _iy$[ebp]
	movss	DWORD PTR [eax+4], xmm0
	mov	eax, DWORD PTR _this$[ebp]
	movss	xmm0, DWORD PTR _iz$[ebp]
	movss	DWORD PTR [eax+8], xmm0
	mov	eax, DWORD PTR _this$[ebp]
	movss	xmm0, DWORD PTR _iw$[ebp]
	movss	DWORD PTR [eax+12], xmm0

; 341  : 	}

	pop	edi
	pop	esi
	pop	ebx
	mov	esp, ebp
	pop	ebp
	ret	16					; 00000010H
?Init@Vector4D@@QAEXMMMM@Z ENDP				; Vector4D::Init
_TEXT	ENDS
; Function compile flags: /Odtp /ZI
; File d:\!diffusion 2020\source code 2022\client-server\game_shared\vector.h
;	COMDAT ??0Vector4D@@QAE@XZ
_TEXT	SEGMENT
_this$ = -4						; size = 4
??0Vector4D@@QAE@XZ PROC				; Vector4D::Vector4D, COMDAT
; _this$ = ecx

; 330  : 	inline Vector4D( void ) { }

	push	ebp
	mov	ebp, esp
	sub	esp, 68					; 00000044H
	push	ebx
	push	esi
	push	edi
	mov	DWORD PTR _this$[ebp], ecx
	mov	eax, DWORD PTR _this$[ebp]
	pop	edi
	pop	esi
	pop	ebx
	mov	esp, ebp
	pop	ebp
	ret	0
??0Vector4D@@QAE@XZ ENDP				; Vector4D::Vector4D
_TEXT	ENDS
; Function compile flags: /Odtp /ZI
; File d:\!diffusion 2020\source code 2022\client-server\game_shared\vector.h
;	COMDAT ??BVector@@QBEPBMXZ
_TEXT	SEGMENT
_this$ = -4						; size = 4
??BVector@@QBEPBMXZ PROC				; Vector::operator float const *, COMDAT
; _this$ = ecx

; 248  : 	operator const float *() const		{ return &x; } 

	push	ebp
	mov	ebp, esp
	sub	esp, 68					; 00000044H
	push	ebx
	push	esi
	push	edi
	mov	DWORD PTR _this$[ebp], ecx
	mov	eax, DWORD PTR _this$[ebp]
	pop	edi
	pop	esi
	pop	ebx
	mov	esp, ebp
	pop	ebp
	ret	0
??BVector@@QBEPBMXZ ENDP				; Vector::operator float const *
_TEXT	ENDS
; Function compile flags: /Odtp /ZI
; File d:\!diffusion 2020\source code 2022\client-server\game_shared\vector.h
;	COMDAT ??BVector@@QAEPAMXZ
_TEXT	SEGMENT
_this$ = -4						; size = 4
??BVector@@QAEPAMXZ PROC				; Vector::operator float *, COMDAT
; _this$ = ecx

; 247  : 	operator float *()				{ return &x; } // Vectors will now automatically convert to float * when needed

	push	ebp
	mov	ebp, esp
	sub	esp, 68					; 00000044H
	push	ebx
	push	esi
	push	edi
	mov	DWORD PTR _this$[ebp], ecx
	mov	eax, DWORD PTR _this$[ebp]
	pop	edi
	pop	esi
	pop	ebx
	mov	esp, ebp
	pop	ebp
	ret	0
??BVector@@QAEPAMXZ ENDP				; Vector::operator float *
_TEXT	ENDS
; Function compile flags: /Odtp /ZI
; File d:\!diffusion 2020\source code 2022\client-server\game_shared\vector.h
;	COMDAT ??DVector@@QBE?AV0@M@Z
_TEXT	SEGMENT
_this$ = -4						; size = 4
___$ReturnUdt$ = 8					; size = 4
_fl$ = 12						; size = 4
??DVector@@QBE?AV0@M@Z PROC				; Vector::operator*, COMDAT
; _this$ = ecx

; 162  : 	inline Vector operator*(float fl) const		{ return Vector(x*fl, y*fl, z*fl);	   }

	push	ebp
	mov	ebp, esp
	sub	esp, 68					; 00000044H
	push	ebx
	push	esi
	push	edi
	mov	DWORD PTR _this$[ebp], ecx
	mov	eax, DWORD PTR _this$[ebp]
	movss	xmm0, DWORD PTR [eax+8]
	mulss	xmm0, DWORD PTR _fl$[ebp]
	push	ecx
	movss	DWORD PTR [esp], xmm0
	mov	ecx, DWORD PTR _this$[ebp]
	movss	xmm0, DWORD PTR [ecx+4]
	mulss	xmm0, DWORD PTR _fl$[ebp]
	push	ecx
	movss	DWORD PTR [esp], xmm0
	mov	edx, DWORD PTR _this$[ebp]
	movss	xmm0, DWORD PTR [edx]
	mulss	xmm0, DWORD PTR _fl$[ebp]
	push	ecx
	movss	DWORD PTR [esp], xmm0
	mov	ecx, DWORD PTR ___$ReturnUdt$[ebp]
	call	??0Vector@@QAE@MMM@Z			; Vector::Vector
	mov	eax, DWORD PTR ___$ReturnUdt$[ebp]
	pop	edi
	pop	esi
	pop	ebx
	mov	esp, ebp
	pop	ebp
	ret	8
??DVector@@QBE?AV0@M@Z ENDP				; Vector::operator*
_TEXT	ENDS
; Function compile flags: /Odtp /ZI
; File d:\!diffusion 2020\source code 2022\client-server\game_shared\vector.h
;	COMDAT ??HVector@@QBE?AV0@ABV0@@Z
_TEXT	SEGMENT
_this$ = -4						; size = 4
___$ReturnUdt$ = 8					; size = 4
_v$ = 12						; size = 4
??HVector@@QBE?AV0@ABV0@@Z PROC				; Vector::operator+, COMDAT
; _this$ = ecx

; 158  : 	inline Vector operator+(const Vector& v) const	{ return Vector(x+v.x, y+v.y, z+v.z);	   }

	push	ebp
	mov	ebp, esp
	sub	esp, 68					; 00000044H
	push	ebx
	push	esi
	push	edi
	mov	DWORD PTR _this$[ebp], ecx
	mov	eax, DWORD PTR _this$[ebp]
	mov	ecx, DWORD PTR _v$[ebp]
	movss	xmm0, DWORD PTR [eax+8]
	addss	xmm0, DWORD PTR [ecx+8]
	push	ecx
	movss	DWORD PTR [esp], xmm0
	mov	edx, DWORD PTR _this$[ebp]
	mov	eax, DWORD PTR _v$[ebp]
	movss	xmm0, DWORD PTR [edx+4]
	addss	xmm0, DWORD PTR [eax+4]
	push	ecx
	movss	DWORD PTR [esp], xmm0
	mov	ecx, DWORD PTR _this$[ebp]
	mov	edx, DWORD PTR _v$[ebp]
	movss	xmm0, DWORD PTR [ecx]
	addss	xmm0, DWORD PTR [edx]
	push	ecx
	movss	DWORD PTR [esp], xmm0
	mov	ecx, DWORD PTR ___$ReturnUdt$[ebp]
	call	??0Vector@@QAE@MMM@Z			; Vector::Vector
	mov	eax, DWORD PTR ___$ReturnUdt$[ebp]
	pop	edi
	pop	esi
	pop	ebx
	mov	esp, ebp
	pop	ebp
	ret	8
??HVector@@QBE?AV0@ABV0@@Z ENDP				; Vector::operator+
_TEXT	ENDS
; Function compile flags: /Odtp /ZI
; File d:\!diffusion 2020\source code 2022\client-server\game_shared\vector.h
;	COMDAT ??GVector@@QBE?AV0@XZ
_TEXT	SEGMENT
_this$ = -4						; size = 4
___$ReturnUdt$ = 8					; size = 4
??GVector@@QBE?AV0@XZ PROC				; Vector::operator-, COMDAT
; _this$ = ecx

; 155  : 	inline Vector operator-(void) const		{ return Vector(-x,-y,-z);		   }

	push	ebp
	mov	ebp, esp
	sub	esp, 68					; 00000044H
	push	ebx
	push	esi
	push	edi
	mov	DWORD PTR _this$[ebp], ecx
	mov	eax, DWORD PTR _this$[ebp]
	movss	xmm0, DWORD PTR [eax+8]
	xorps	xmm0, DWORD PTR __xmm@80000000800000008000000080000000
	push	ecx
	movss	DWORD PTR [esp], xmm0
	mov	ecx, DWORD PTR _this$[ebp]
	movss	xmm0, DWORD PTR [ecx+4]
	xorps	xmm0, DWORD PTR __xmm@80000000800000008000000080000000
	push	ecx
	movss	DWORD PTR [esp], xmm0
	mov	edx, DWORD PTR _this$[ebp]
	movss	xmm0, DWORD PTR [edx]
	xorps	xmm0, DWORD PTR __xmm@80000000800000008000000080000000
	push	ecx
	movss	DWORD PTR [esp], xmm0
	mov	ecx, DWORD PTR ___$ReturnUdt$[ebp]
	call	??0Vector@@QAE@MMM@Z			; Vector::Vector
	mov	eax, DWORD PTR ___$ReturnUdt$[ebp]
	pop	edi
	pop	esi
	pop	ebx
	mov	esp, ebp
	pop	ebp
	ret	4
??GVector@@QBE?AV0@XZ ENDP				; Vector::operator-
_TEXT	ENDS
; Function compile flags: /Odtp /ZI
; File d:\!diffusion 2020\source code 2022\client-server\game_shared\vector.h
;	COMDAT ??0Vector@@QAE@QAM@Z
_TEXT	SEGMENT
_this$ = -4						; size = 4
_rgfl$ = 8						; size = 4
??0Vector@@QAE@QAM@Z PROC				; Vector::Vector, COMDAT
; _this$ = ecx

; 147  : 	inline Vector(float rgfl[3])			{ x = rgfl[0]; y = rgfl[1]; z = rgfl[2];   }

	push	ebp
	mov	ebp, esp
	sub	esp, 68					; 00000044H
	push	ebx
	push	esi
	push	edi
	mov	DWORD PTR _this$[ebp], ecx
	mov	eax, 4
	imul	ecx, eax, 0
	mov	edx, DWORD PTR _this$[ebp]
	mov	eax, DWORD PTR _rgfl$[ebp]
	mov	ecx, DWORD PTR [eax+ecx]
	mov	DWORD PTR [edx], ecx
	mov	eax, 4
	shl	eax, 0
	mov	ecx, DWORD PTR _this$[ebp]
	mov	edx, DWORD PTR _rgfl$[ebp]
	mov	eax, DWORD PTR [edx+eax]
	mov	DWORD PTR [ecx+4], eax
	mov	eax, 4
	shl	eax, 1
	mov	ecx, DWORD PTR _this$[ebp]
	mov	edx, DWORD PTR _rgfl$[ebp]
	mov	eax, DWORD PTR [edx+eax]
	mov	DWORD PTR [ecx+8], eax
	mov	eax, DWORD PTR _this$[ebp]
	pop	edi
	pop	esi
	pop	ebx
	mov	esp, ebp
	pop	ebp
	ret	4
??0Vector@@QAE@QAM@Z ENDP				; Vector::Vector
_TEXT	ENDS
; Function compile flags: /Odtp /ZI
; File d:\!diffusion 2020\source code 2022\client-server\game_shared\vector.h
;	COMDAT ??0Vector@@QAE@ABV0@@Z
_TEXT	SEGMENT
_this$ = -4						; size = 4
_v$ = 8							; size = 4
??0Vector@@QAE@ABV0@@Z PROC				; Vector::Vector, COMDAT
; _this$ = ecx

; 145  : 	inline Vector(const Vector& v)		{ x = v.x; y = v.y; z = v.z;		   }

	push	ebp
	mov	ebp, esp
	sub	esp, 68					; 00000044H
	push	ebx
	push	esi
	push	edi
	mov	DWORD PTR _this$[ebp], ecx
	mov	eax, DWORD PTR _this$[ebp]
	mov	ecx, DWORD PTR _v$[ebp]
	mov	edx, DWORD PTR [ecx]
	mov	DWORD PTR [eax], edx
	mov	eax, DWORD PTR _this$[ebp]
	mov	ecx, DWORD PTR _v$[ebp]
	mov	edx, DWORD PTR [ecx+4]
	mov	DWORD PTR [eax+4], edx
	mov	eax, DWORD PTR _this$[ebp]
	mov	ecx, DWORD PTR _v$[ebp]
	mov	edx, DWORD PTR [ecx+8]
	mov	DWORD PTR [eax+8], edx
	mov	eax, DWORD PTR _this$[ebp]
	pop	edi
	pop	esi
	pop	ebx
	mov	esp, ebp
	pop	ebp
	ret	4
??0Vector@@QAE@ABV0@@Z ENDP				; Vector::Vector
_TEXT	ENDS
; Function compile flags: /Odtp /ZI
; File d:\!diffusion 2020\source code 2022\client-server\game_shared\vector.h
;	COMDAT ??0Vector@@QAE@MMM@Z
_TEXT	SEGMENT
_this$ = -4						; size = 4
_X$ = 8							; size = 4
_Y$ = 12						; size = 4
_Z$ = 16						; size = 4
??0Vector@@QAE@MMM@Z PROC				; Vector::Vector, COMDAT
; _this$ = ecx

; 144  : 	inline Vector(float X, float Y, float Z)	{ x = X; y = Y; z = Z;                     }

	push	ebp
	mov	ebp, esp
	sub	esp, 68					; 00000044H
	push	ebx
	push	esi
	push	edi
	mov	DWORD PTR _this$[ebp], ecx
	mov	eax, DWORD PTR _this$[ebp]
	movss	xmm0, DWORD PTR _X$[ebp]
	movss	DWORD PTR [eax], xmm0
	mov	eax, DWORD PTR _this$[ebp]
	movss	xmm0, DWORD PTR _Y$[ebp]
	movss	DWORD PTR [eax+4], xmm0
	mov	eax, DWORD PTR _this$[ebp]
	movss	xmm0, DWORD PTR _Z$[ebp]
	movss	DWORD PTR [eax+8], xmm0
	mov	eax, DWORD PTR _this$[ebp]
	pop	edi
	pop	esi
	pop	ebx
	mov	esp, ebp
	pop	ebp
	ret	12					; 0000000cH
??0Vector@@QAE@MMM@Z ENDP				; Vector::Vector
_TEXT	ENDS
; Function compile flags: /Odtp /ZI
; File d:\!diffusion 2020\source code 2022\client-server\game_shared\vector.h
;	COMDAT ??0Vector@@QAE@XZ
_TEXT	SEGMENT
_this$ = -4						; size = 4
??0Vector@@QAE@XZ PROC					; Vector::Vector, COMDAT
; _this$ = ecx

; 143  : 	inline Vector(void)				{ }

	push	ebp
	mov	ebp, esp
	sub	esp, 68					; 00000044H
	push	ebx
	push	esi
	push	edi
	mov	DWORD PTR _this$[ebp], ecx
	mov	eax, DWORD PTR _this$[ebp]
	pop	edi
	pop	esi
	pop	ebx
	mov	esp, ebp
	pop	ebp
	ret	0
??0Vector@@QAE@XZ ENDP					; Vector::Vector
_TEXT	ENDS
; Function compile flags: /Odtp /ZI
; File d:\!diffusion 2020\source code 2022\client-server\game_shared\vector.h
;	COMDAT ?SinCos@@YAXMPAM0@Z
_TEXT	SEGMENT
_angle$ = 8						; size = 4
_sine$ = 12						; size = 4
_cosine$ = 16						; size = 4
?SinCos@@YAXMPAM0@Z PROC				; SinCos, COMDAT

; 36   : {

	push	ebp
	mov	ebp, esp
	sub	esp, 64					; 00000040H
	push	ebx
	push	esi
	push	edi

; 37   : 	/*
; 38   : 	__asm
; 39   : 	{
; 40   : 		push	ecx
; 41   : 		fld	dword ptr angle
; 42   : 		fsincos
; 43   : 		mov	ecx, dword ptr[cosine]
; 44   : 		fstp      dword ptr [ecx]
; 45   : 		mov 	ecx, dword ptr[sine]
; 46   : 		fstp	dword ptr [ecx]
; 47   : 		pop	ecx
; 48   : 	}*/
; 49   : 	*sine = sin( angle );

	cvtss2sd xmm0, DWORD PTR _angle$[ebp]
	sub	esp, 8
	movsd	QWORD PTR [esp], xmm0
	call	_sin
	add	esp, 8
	mov	eax, DWORD PTR _sine$[ebp]
	fstp	DWORD PTR [eax]

; 50   : 	*cosine = cos( angle );

	cvtss2sd xmm0, DWORD PTR _angle$[ebp]
	sub	esp, 8
	movsd	QWORD PTR [esp], xmm0
	call	_cos
	add	esp, 8
	mov	eax, DWORD PTR _cosine$[ebp]
	fstp	DWORD PTR [eax]

; 51   : }

	pop	edi
	pop	esi
	pop	ebx
	mov	esp, ebp
	pop	ebp
	ret	0
?SinCos@@YAXMPAM0@Z ENDP				; SinCos
_TEXT	ENDS
; Function compile flags: /Odtp /ZI
;	COMDAT ??__G@YGXPAX0IIP6EPAX00@Z@Z
_TEXT	SEGMENT
tv66 = -68						; size = 4
___t$ = 8						; size = 4
___u$ = 12						; size = 4
___s$ = 16						; size = 4
___n$ = 20						; size = 4
___f$ = 24						; size = 4
??__G@YGXPAX0IIP6EPAX00@Z@Z PROC			; `vector copy constructor iterator', COMDAT
	push	ebp
	mov	ebp, esp
	sub	esp, 68					; 00000044H
	push	ebx
	push	esi
	push	edi
$LN2@vector:
	mov	eax, DWORD PTR ___n$[ebp]
	mov	DWORD PTR tv66[ebp], eax
	mov	ecx, DWORD PTR ___n$[ebp]
	sub	ecx, 1
	mov	DWORD PTR ___n$[ebp], ecx
	cmp	DWORD PTR tv66[ebp], 0
	jbe	SHORT $LN1@vector
	mov	eax, DWORD PTR ___u$[ebp]
	push	eax
	mov	ecx, DWORD PTR ___t$[ebp]
	call	DWORD PTR ___f$[ebp]
	mov	eax, DWORD PTR ___t$[ebp]
	add	eax, DWORD PTR ___s$[ebp]
	mov	DWORD PTR ___t$[ebp], eax
	mov	eax, DWORD PTR ___u$[ebp]
	add	eax, DWORD PTR ___s$[ebp]
	mov	DWORD PTR ___u$[ebp], eax
	jmp	SHORT $LN2@vector
$LN1@vector:
	pop	edi
	pop	esi
	pop	ebx
	mov	esp, ebp
	pop	ebp
	ret	20					; 00000014H
??__G@YGXPAX0IIP6EPAX00@Z@Z ENDP			; `vector copy constructor iterator'
_TEXT	ENDS
; Function compile flags: /Odtp /ZI
;	COMDAT ??_H@YGXPAXIIP6EPAX0@Z@Z
_TEXT	SEGMENT
tv66 = -68						; size = 4
___t$ = 8						; size = 4
___s$ = 12						; size = 4
___n$ = 16						; size = 4
___f$ = 20						; size = 4
??_H@YGXPAXIIP6EPAX0@Z@Z PROC				; `vector constructor iterator', COMDAT
	push	ebp
	mov	ebp, esp
	sub	esp, 68					; 00000044H
	push	ebx
	push	esi
	push	edi
$LN2@vector:
	mov	eax, DWORD PTR ___n$[ebp]
	mov	DWORD PTR tv66[ebp], eax
	mov	ecx, DWORD PTR ___n$[ebp]
	sub	ecx, 1
	mov	DWORD PTR ___n$[ebp], ecx
	cmp	DWORD PTR tv66[ebp], 0
	jbe	SHORT $LN1@vector
	mov	ecx, DWORD PTR ___t$[ebp]
	call	DWORD PTR ___f$[ebp]
	mov	eax, DWORD PTR ___t$[ebp]
	add	eax, DWORD PTR ___s$[ebp]
	mov	DWORD PTR ___t$[ebp], eax
	jmp	SHORT $LN2@vector
$LN1@vector:
	pop	edi
	pop	esi
	pop	ebx
	mov	esp, ebp
	pop	ebp
	ret	16					; 00000010H
??_H@YGXPAXIIP6EPAX0@Z@Z ENDP				; `vector constructor iterator'
_TEXT	ENDS
END
