; Listing generated by Microsoft (R) Optimizing Compiler Version 19.00.24247.2 

	TITLE	D:\!DIFFUSION 2020\source code 2022\client-server\client\render\r_cull.cpp
	.686P
	.XMM
	include listing.inc
	.model	flat

INCLUDELIB LIBCMT
INCLUDELIB OLDNAMES

PUBLIC	??_H@YGXPAXIIP6EPAX0@Z@Z			; `vector constructor iterator'
PUBLIC	??__G@YGXPAX0IIP6EPAX00@Z@Z			; `vector copy constructor iterator'
PUBLIC	??0Vector2D@@QAE@XZ				; Vector2D::Vector2D
PUBLIC	??0Vector@@QAE@XZ				; Vector::Vector
PUBLIC	??0Vector@@QAE@MMM@Z				; Vector::Vector
PUBLIC	??8Vector@@QBEHABV0@@Z				; Vector::operator==
PUBLIC	??9Vector@@QBEHABV0@@Z				; Vector::operator!=
PUBLIC	??HVector@@QBE?AV0@ABV0@@Z			; Vector::operator+
PUBLIC	??GVector@@QBE?AV0@ABV0@@Z			; Vector::operator-
PUBLIC	??DVector@@QBE?AV0@M@Z				; Vector::operator*
PUBLIC	??BVector@@QAEPAMXZ				; Vector::operator float *
PUBLIC	?DotProduct@@YAMABVVector@@0@Z			; DotProduct
PUBLIC	?R_CullModel@@YA_NPAUcl_entity_s@@ABVVector@@1@Z ; R_CullModel
PUBLIC	?R_CullSurfaceExt@@YAHPAUmsurface_s@@PAVCFrustum@@@Z ; R_CullSurfaceExt
PUBLIC	?R_CullNodeTopView@@YA_NPBUmworldnode_s@@@Z	; R_CullNodeTopView
PUBLIC	__real@00000000
PUBLIC	__real@3c23d70a
PUBLIC	__real@3f000000
PUBLIC	__real@bc23d70a
EXTRN	_fabs:PROC
EXTRN	?VectorRotate@matrix4x4@@QBE?AVVector@@ABV2@@Z:PROC ; matrix4x4::VectorRotate
EXTRN	?UTIL_IsLocal@@YA_NH@Z:PROC			; UTIL_IsLocal
EXTRN	?CullBox@CFrustum@@QAE_NABVVector@@0H@Z:PROC	; CFrustum::CullBox
EXTRN	?g_vecZero@@3VVector@@B:BYTE			; g_vecZero
EXTRN	?gEngfuncs@@3Ucl_enginefuncs_s@@A:BYTE		; gEngfuncs
EXTRN	?r_nocull@@3PAUcvar_s@@A:DWORD			; r_nocull
EXTRN	?RI@@3PAUref_instance_t@@A:DWORD		; RI
EXTRN	?tr@@3Uref_globals_t@@A:BYTE			; tr
EXTRN	?glState@@3UglState_t@@A:BYTE			; glState
EXTRN	?world@@3PAUgl_world_t@@A:DWORD			; world
EXTRN	__fltused:DWORD
;	COMDAT __real@bc23d70a
CONST	SEGMENT
__real@bc23d70a DD 0bc23d70ar			; -0.01
CONST	ENDS
;	COMDAT __real@3f000000
CONST	SEGMENT
__real@3f000000 DD 03f000000r			; 0.5
CONST	ENDS
;	COMDAT __real@3c23d70a
CONST	SEGMENT
__real@3c23d70a DD 03c23d70ar			; 0.01
CONST	ENDS
;	COMDAT __real@00000000
CONST	SEGMENT
__real@00000000 DD 000000000r			; 0
CONST	ENDS
; Function compile flags: /Odtp /ZI
; File d:\!diffusion 2020\source code 2022\client-server\client\render\r_cull.cpp
;	COMDAT ?R_CullNodeTopView@@YA_NPBUmworldnode_s@@@Z
_TEXT	SEGMENT
tv139 = -160						; size = 4
tv187 = -156						; size = 8
tv182 = -148						; size = 8
$T1 = -140						; size = 12
$T2 = -128						; size = 12
$T3 = -116						; size = 12
_half$ = -40						; size = 12
_center$ = -28						; size = 12
_size$ = -16						; size = 8
_delta$ = -8						; size = 8
_node$ = 8						; size = 4
?R_CullNodeTopView@@YA_NPBUmworldnode_s@@@Z PROC	; R_CullNodeTopView, COMDAT

; 152  : {

	push	ebp
	mov	ebp, esp
	sub	esp, 160				; 000000a0H
	push	ebx
	push	esi
	push	edi

; 153  : 	Vector2D	delta, size;

	lea	ecx, DWORD PTR _delta$[ebp]
	call	??0Vector2D@@QAE@XZ			; Vector2D::Vector2D
	lea	ecx, DWORD PTR _size$[ebp]
	call	??0Vector2D@@QAE@XZ			; Vector2D::Vector2D

; 154  : 	Vector	center, half;

	lea	ecx, DWORD PTR _center$[ebp]
	call	??0Vector@@QAE@XZ			; Vector::Vector
	lea	ecx, DWORD PTR _half$[ebp]
	call	??0Vector@@QAE@XZ			; Vector::Vector

; 155  : 
; 156  : 	// build the node center and half-diagonal
; 157  : 	center = (node->mins + node->maxs) * 0.5f;

	push	ecx
	movss	xmm0, DWORD PTR __real@3f000000
	movss	DWORD PTR [esp], xmm0
	lea	eax, DWORD PTR $T2[ebp]
	push	eax
	mov	ecx, DWORD PTR _node$[ebp]
	add	ecx, 48					; 00000030H
	push	ecx
	lea	edx, DWORD PTR $T3[ebp]
	push	edx
	mov	ecx, DWORD PTR _node$[ebp]
	add	ecx, 36					; 00000024H
	call	??HVector@@QBE?AV0@ABV0@@Z		; Vector::operator+
	mov	ecx, eax
	call	??DVector@@QBE?AV0@M@Z			; Vector::operator*
	mov	ecx, DWORD PTR [eax]
	mov	DWORD PTR _center$[ebp], ecx
	mov	edx, DWORD PTR [eax+4]
	mov	DWORD PTR _center$[ebp+4], edx
	mov	eax, DWORD PTR [eax+8]
	mov	DWORD PTR _center$[ebp+8], eax

; 158  : 	half = node->maxs - center;

	lea	eax, DWORD PTR _center$[ebp]
	push	eax
	lea	ecx, DWORD PTR $T1[ebp]
	push	ecx
	mov	ecx, DWORD PTR _node$[ebp]
	add	ecx, 48					; 00000030H
	call	??GVector@@QBE?AV0@ABV0@@Z		; Vector::operator-
	mov	edx, DWORD PTR [eax]
	mov	DWORD PTR _half$[ebp], edx
	mov	ecx, DWORD PTR [eax+4]
	mov	DWORD PTR _half$[ebp+4], ecx
	mov	edx, DWORD PTR [eax+8]
	mov	DWORD PTR _half$[ebp+8], edx

; 159  : 
; 160  : 	// cull against the screen frustum or the appropriate area's frustum.
; 161  : 	delta.x = center.x - world->orthocenter.x;

	mov	eax, DWORD PTR ?world@@3PAUgl_world_t@@A ; world
	movss	xmm0, DWORD PTR _center$[ebp]
	subss	xmm0, DWORD PTR [eax+148]
	movss	DWORD PTR _delta$[ebp], xmm0

; 162  : 	delta.y = center.y - world->orthocenter.y;

	mov	eax, DWORD PTR ?world@@3PAUgl_world_t@@A ; world
	movss	xmm0, DWORD PTR _center$[ebp+4]
	subss	xmm0, DWORD PTR [eax+152]
	movss	DWORD PTR _delta$[ebp+4], xmm0

; 163  : 	size.x = half.x + world->orthohalf.x;

	mov	eax, DWORD PTR ?world@@3PAUgl_world_t@@A ; world
	movss	xmm0, DWORD PTR _half$[ebp]
	addss	xmm0, DWORD PTR [eax+156]
	movss	DWORD PTR _size$[ebp], xmm0

; 164  : 	size.y = half.y + world->orthohalf.y;

	mov	eax, DWORD PTR ?world@@3PAUgl_world_t@@A ; world
	movss	xmm0, DWORD PTR _half$[ebp+4]
	addss	xmm0, DWORD PTR [eax+160]
	movss	DWORD PTR _size$[ebp+4], xmm0

; 165  : 
; 166  : 	return ( fabs( delta.x ) > size.x ) || ( fabs( delta.y ) > size.y );

	cvtss2sd xmm0, DWORD PTR _delta$[ebp]
	sub	esp, 8
	movsd	QWORD PTR [esp], xmm0
	call	_fabs
	add	esp, 8
	fstp	QWORD PTR tv182[ebp]
	movsd	xmm0, QWORD PTR tv182[ebp]
	cvtss2sd xmm1, DWORD PTR _size$[ebp]
	comisd	xmm0, xmm1
	ja	SHORT $LN3@R_CullNode
	cvtss2sd xmm0, DWORD PTR _delta$[ebp+4]
	sub	esp, 8
	movsd	QWORD PTR [esp], xmm0
	call	_fabs
	add	esp, 8
	fstp	QWORD PTR tv187[ebp]
	movsd	xmm0, QWORD PTR tv187[ebp]
	cvtss2sd xmm1, DWORD PTR _size$[ebp+4]
	comisd	xmm0, xmm1
	ja	SHORT $LN3@R_CullNode
	mov	DWORD PTR tv139[ebp], 0
	jmp	SHORT $LN4@R_CullNode
$LN3@R_CullNode:
	mov	DWORD PTR tv139[ebp], 1
$LN4@R_CullNode:
	mov	al, BYTE PTR tv139[ebp]

; 167  : }

	pop	edi
	pop	esi
	pop	ebx
	mov	esp, ebp
	pop	ebp
	ret	0
?R_CullNodeTopView@@YA_NPBUmworldnode_s@@@Z ENDP	; R_CullNodeTopView
_TEXT	ENDS
; Function compile flags: /Odtp /ZI
; File d:\!diffusion 2020\source code 2022\client-server\client\render\r_cull.cpp
;	COMDAT ?R_CullSurfaceExt@@YAHPAUmsurface_s@@PAVCFrustum@@@Z
_TEXT	SEGMENT
tv166 = -100						; size = 4
tv74 = -97						; size = 1
$T1 = -96						; size = 12
_orthonormal$2 = -20					; size = 12
_dist$3 = -8						; size = 4
_e$ = -4						; size = 4
_surf$ = 8						; size = 4
_frustum$ = 12						; size = 4
?R_CullSurfaceExt@@YAHPAUmsurface_s@@PAVCFrustum@@@Z PROC ; R_CullSurfaceExt, COMDAT

; 82   : {

	push	ebp
	mov	ebp, esp
	sub	esp, 100				; 00000064H
	push	ebx
	push	esi
	push	edi

; 83   : 	cl_entity_t	*e = RI->currententity;

	mov	eax, DWORD PTR ?RI@@3PAUref_instance_t@@A ; RI
	mov	ecx, DWORD PTR [eax+16]
	mov	DWORD PTR _e$[ebp], ecx

; 84   : 
; 85   : 	if( !surf || !surf->texinfo || !surf->texinfo->texture )

	cmp	DWORD PTR _surf$[ebp], 0
	je	SHORT $LN3@R_CullSurf
	mov	eax, DWORD PTR _surf$[ebp]
	cmp	DWORD PTR [eax+44], 0
	je	SHORT $LN3@R_CullSurf
	mov	eax, DWORD PTR _surf$[ebp]
	mov	ecx, DWORD PTR [eax+44]
	cmp	DWORD PTR [ecx+36], 0
	jne	SHORT $LN2@R_CullSurf
$LN3@R_CullSurf:

; 86   : 		return CULL_OTHER;

	mov	eax, 3
	jmp	$LN1@R_CullSurf
$LN2@R_CullSurf:

; 87   : 
; 88   : 	if( CVAR_TO_BOOL( r_nocull ) )

	cmp	DWORD PTR ?r_nocull@@3PAUcvar_s@@A, 0	; r_nocull
	je	SHORT $LN25@R_CullSurf
	mov	eax, DWORD PTR ?r_nocull@@3PAUcvar_s@@A	; r_nocull
	movss	xmm0, DWORD PTR [eax+12]
	ucomiss	xmm0, DWORD PTR __real@00000000
	lahf
	test	ah, 68					; 00000044H
	jnp	SHORT $LN25@R_CullSurf
	mov	BYTE PTR tv74[ebp], 1
	jmp	SHORT $LN26@R_CullSurf
$LN25@R_CullSurf:
	mov	BYTE PTR tv74[ebp], 0
$LN26@R_CullSurf:
	movzx	ecx, BYTE PTR tv74[ebp]
	test	ecx, ecx
	je	SHORT $LN4@R_CullSurf

; 89   : 		return CULL_VISIBLE;

	xor	eax, eax
	jmp	$LN1@R_CullSurf
$LN4@R_CullSurf:

; 90   : 
; 91   : 	// only static ents can be culled by frustum
; 92   : 	if( !R_StaticEntity( e ))

	push	OFFSET ?g_vecZero@@3VVector@@B		; g_vecZero
	mov	ecx, DWORD PTR _e$[ebp]
	add	ecx, 2888				; 00000b48H
	call	??8Vector@@QBEHABV0@@Z			; Vector::operator==
	test	eax, eax
	je	SHORT $LN6@R_CullSurf
	push	OFFSET ?g_vecZero@@3VVector@@B		; g_vecZero
	mov	ecx, DWORD PTR _e$[ebp]
	add	ecx, 2900				; 00000b54H
	call	??8Vector@@QBEHABV0@@Z			; Vector::operator==
	test	eax, eax
	jne	SHORT $LN5@R_CullSurf
$LN6@R_CullSurf:

; 93   : 		frustum = NULL;

	mov	DWORD PTR _frustum$[ebp], 0
$LN5@R_CullSurf:

; 94   : 
; 95   : 	if( surf->plane->normal != g_vecZero )

	push	OFFSET ?g_vecZero@@3VVector@@B		; g_vecZero
	mov	eax, DWORD PTR _surf$[ebp]
	mov	ecx, DWORD PTR [eax+4]
	call	??9Vector@@QBEHABV0@@Z			; Vector::operator!=
	test	eax, eax
	je	$LN22@R_CullSurf

; 96   : 	{
; 97   : 		float	dist;
; 98   : 
; 99   : 		if( FBitSet( RI->params, RP_OVERVIEW ))

	mov	eax, DWORD PTR ?RI@@3PAUref_instance_t@@A ; RI
	mov	ecx, DWORD PTR [eax]
	and	ecx, 512				; 00000200H
	je	SHORT $LN8@R_CullSurf

; 100  : 		{
; 101  : 			Vector	orthonormal;

	lea	ecx, DWORD PTR _orthonormal$2[ebp]
	call	??0Vector@@QAE@XZ			; Vector::Vector

; 102  : 
; 103  : 			if( e == GET_ENTITY( 0 )) orthonormal[2] = surf->plane->normal[2];

	push	0
	call	DWORD PTR ?gEngfuncs@@3Ucl_enginefuncs_s@@A+212
	add	esp, 4
	cmp	DWORD PTR _e$[ebp], eax
	jne	SHORT $LN10@R_CullSurf
	mov	eax, DWORD PTR _surf$[ebp]
	mov	ecx, DWORD PTR [eax+4]
	call	??BVector@@QAEPAMXZ			; Vector::operator float *
	mov	esi, eax
	mov	edi, 4
	shl	edi, 1
	lea	ecx, DWORD PTR _orthonormal$2[ebp]
	call	??BVector@@QAEPAMXZ			; Vector::operator float *
	mov	ecx, 4
	shl	ecx, 1
	mov	edx, DWORD PTR [esi+edi]
	mov	DWORD PTR [eax+ecx], edx
	jmp	SHORT $LN11@R_CullSurf
$LN10@R_CullSurf:

; 104  : 			else orthonormal = RI->objectMatrix.VectorRotate( surf->plane->normal );

	mov	eax, DWORD PTR _surf$[ebp]
	mov	ecx, DWORD PTR [eax+4]
	push	ecx
	lea	edx, DWORD PTR $T1[ebp]
	push	edx
	mov	ecx, DWORD PTR ?RI@@3PAUref_instance_t@@A ; RI
	add	ecx, 364				; 0000016cH
	call	?VectorRotate@matrix4x4@@QBE?AVVector@@ABV2@@Z ; matrix4x4::VectorRotate
	mov	ecx, DWORD PTR [eax]
	mov	DWORD PTR _orthonormal$2[ebp], ecx
	mov	edx, DWORD PTR [eax+4]
	mov	DWORD PTR _orthonormal$2[ebp+4], edx
	mov	eax, DWORD PTR [eax+8]
	mov	DWORD PTR _orthonormal$2[ebp+8], eax
$LN11@R_CullSurf:

; 105  : 
; 106  : 			dist = orthonormal.z;

	movss	xmm0, DWORD PTR _orthonormal$2[ebp+8]
	movss	DWORD PTR _dist$3[ebp], xmm0
	jmp	SHORT $LN9@R_CullSurf
$LN8@R_CullSurf:

; 107  : 		}
; 108  : 		else dist = PlaneDiff( tr.modelorg, surf->plane );

	mov	eax, DWORD PTR _surf$[ebp]
	mov	ecx, DWORD PTR [eax+4]
	movzx	edx, BYTE PTR [ecx+16]
	cmp	edx, 3
	jge	SHORT $LN27@R_CullSurf
	mov	ecx, OFFSET ?tr@@3Uref_globals_t@@A+5852544
	call	??BVector@@QAEPAMXZ			; Vector::operator float *
	mov	ecx, DWORD PTR _surf$[ebp]
	mov	edx, DWORD PTR [ecx+4]
	movzx	ecx, BYTE PTR [edx+16]
	movss	xmm0, DWORD PTR [eax+ecx*4]
	movss	DWORD PTR tv166[ebp], xmm0
	jmp	SHORT $LN28@R_CullSurf
$LN27@R_CullSurf:
	mov	edx, DWORD PTR _surf$[ebp]
	mov	eax, DWORD PTR [edx+4]
	push	eax
	push	OFFSET ?tr@@3Uref_globals_t@@A+5852544
	call	?DotProduct@@YAMABVVector@@0@Z		; DotProduct
	add	esp, 8
	fstp	DWORD PTR tv166[ebp]
$LN28@R_CullSurf:
	mov	ecx, DWORD PTR _surf$[ebp]
	mov	edx, DWORD PTR [ecx+4]
	movss	xmm0, DWORD PTR tv166[ebp]
	subss	xmm0, DWORD PTR [edx+12]
	movss	DWORD PTR _dist$3[ebp], xmm0
$LN9@R_CullSurf:

; 109  : 
; 110  : 		if( glState.faceCull == GL_FRONT )

	cmp	DWORD PTR ?glState@@3UglState_t@@A+16, 1028 ; 00000404H
	jne	SHORT $LN12@R_CullSurf

; 111  : 		{
; 112  : 			if( surf->flags & SURF_PLANEBACK )

	mov	eax, DWORD PTR _surf$[ebp]
	mov	ecx, DWORD PTR [eax+8]
	and	ecx, 2
	je	SHORT $LN14@R_CullSurf

; 113  : 			{
; 114  : 				if( dist >= -BACKFACE_EPSILON )

	movss	xmm0, DWORD PTR _dist$3[ebp]
	comiss	xmm0, DWORD PTR __real@bc23d70a
	jb	SHORT $LN16@R_CullSurf

; 115  : 					return CULL_BACKSIDE; // wrong side

	mov	eax, 1
	jmp	$LN1@R_CullSurf
$LN16@R_CullSurf:

; 116  : 			}
; 117  : 			else

	jmp	SHORT $LN17@R_CullSurf
$LN14@R_CullSurf:

; 118  : 			{
; 119  : 				if( dist <= BACKFACE_EPSILON )

	movss	xmm0, DWORD PTR __real@3c23d70a
	comiss	xmm0, DWORD PTR _dist$3[ebp]
	jb	SHORT $LN17@R_CullSurf

; 120  : 					return CULL_BACKSIDE; // wrong side

	mov	eax, 1
	jmp	SHORT $LN1@R_CullSurf
$LN17@R_CullSurf:

; 121  : 			}

	jmp	SHORT $LN22@R_CullSurf
$LN12@R_CullSurf:

; 122  : 		}
; 123  : 		else if( glState.faceCull == GL_BACK )

	cmp	DWORD PTR ?glState@@3UglState_t@@A+16, 1029 ; 00000405H
	jne	SHORT $LN22@R_CullSurf

; 124  : 		{
; 125  : 			if( surf->flags & SURF_PLANEBACK )

	mov	eax, DWORD PTR _surf$[ebp]
	mov	ecx, DWORD PTR [eax+8]
	and	ecx, 2
	je	SHORT $LN19@R_CullSurf

; 126  : 			{
; 127  : 				if( dist <= BACKFACE_EPSILON )

	movss	xmm0, DWORD PTR __real@3c23d70a
	comiss	xmm0, DWORD PTR _dist$3[ebp]
	jb	SHORT $LN21@R_CullSurf

; 128  : 					return CULL_BACKSIDE; // wrong side

	mov	eax, 1
	jmp	SHORT $LN1@R_CullSurf
$LN21@R_CullSurf:

; 129  : 			}
; 130  : 			else

	jmp	SHORT $LN22@R_CullSurf
$LN19@R_CullSurf:

; 131  : 			{
; 132  : 				if( dist >= -BACKFACE_EPSILON )

	movss	xmm0, DWORD PTR _dist$3[ebp]
	comiss	xmm0, DWORD PTR __real@bc23d70a
	jb	SHORT $LN22@R_CullSurf

; 133  : 					return CULL_BACKSIDE; // wrong side

	mov	eax, 1
	jmp	SHORT $LN1@R_CullSurf
$LN22@R_CullSurf:

; 134  : 			}
; 135  : 		}
; 136  : 	}
; 137  : 
; 138  : 	if( frustum && frustum->CullBox( surf->info->mins, surf->info->maxs ))

	cmp	DWORD PTR _frustum$[ebp], 0
	je	SHORT $LN23@R_CullSurf
	push	0
	mov	eax, DWORD PTR _surf$[ebp]
	mov	ecx, DWORD PTR [eax+80]
	add	ecx, 12					; 0000000cH
	push	ecx
	mov	edx, DWORD PTR _surf$[ebp]
	mov	eax, DWORD PTR [edx+80]
	push	eax
	mov	ecx, DWORD PTR _frustum$[ebp]
	call	?CullBox@CFrustum@@QAE_NABVVector@@0H@Z	; CFrustum::CullBox
	movzx	ecx, al
	test	ecx, ecx
	je	SHORT $LN23@R_CullSurf

; 139  : 		return CULL_FRUSTUM;

	mov	eax, 2
	jmp	SHORT $LN1@R_CullSurf
$LN23@R_CullSurf:

; 140  : 
; 141  : 	return CULL_VISIBLE;

	xor	eax, eax
$LN1@R_CullSurf:

; 142  : }

	pop	edi
	pop	esi
	pop	ebx
	mov	esp, ebp
	pop	ebp
	ret	0
?R_CullSurfaceExt@@YAHPAUmsurface_s@@PAVCFrustum@@@Z ENDP ; R_CullSurfaceExt
_TEXT	ENDS
; Function compile flags: /Odtp /ZI
; File d:\!diffusion 2020\source code 2022\client-server\client\render\r_cull.cpp
;	COMDAT ?R_CullModel@@YA_NPAUcl_entity_s@@ABVVector@@1@Z
_TEXT	SEGMENT
_e$ = 8							; size = 4
_absmin$ = 12						; size = 4
_absmax$ = 16						; size = 4
?R_CullModel@@YA_NPAUcl_entity_s@@ABVVector@@1@Z PROC	; R_CullModel, COMDAT

; 35   : {

	push	ebp
	mov	ebp, esp
	sub	esp, 64					; 00000040H
	push	ebx
	push	esi
	push	edi

; 36   : 	if( e == GET_VIEWMODEL( ))

	call	DWORD PTR ?gEngfuncs@@3Ucl_enginefuncs_s@@A+208
	cmp	DWORD PTR _e$[ebp], eax
	jne	SHORT $LN2@R_CullMode

; 37   : 	{
; 38   : 		if( FBitSet( RI->params, RP_NONVIEWERREF ))

	mov	eax, DWORD PTR ?RI@@3PAUref_instance_t@@A ; RI
	mov	ecx, DWORD PTR [eax]
	and	ecx, 483				; 000001e3H
	je	SHORT $LN3@R_CullMode

; 39   : 			return true;

	mov	al, 1
	jmp	$LN1@R_CullMode
$LN3@R_CullMode:

; 40   : 		return false;

	xor	al, al
	jmp	$LN1@R_CullMode
$LN2@R_CullMode:

; 41   : 	}
; 42   : 
; 43   : 	// don't reflect this entity in mirrors
; 44   : 	if( FBitSet( e->curstate.effects, EF_NOREFLECT ) && FBitSet( RI->params, RP_MIRRORVIEW ))

	mov	eax, DWORD PTR _e$[ebp]
	mov	ecx, DWORD PTR [eax+748]
	and	ecx, 16777216				; 01000000H
	je	SHORT $LN4@R_CullMode
	mov	eax, DWORD PTR ?RI@@3PAUref_instance_t@@A ; RI
	mov	ecx, DWORD PTR [eax]
	and	ecx, 1
	je	SHORT $LN4@R_CullMode

; 45   : 		return true;

	mov	al, 1
	jmp	$LN1@R_CullMode
$LN4@R_CullMode:

; 46   : 
; 47   : 	// draw only in mirrors
; 48   : 	if( FBitSet( e->curstate.effects, EF_REFLECTONLY ) && !FBitSet( RI->params, RP_MIRRORVIEW ))

	mov	eax, DWORD PTR _e$[ebp]
	mov	ecx, DWORD PTR [eax+748]
	and	ecx, 33554432				; 02000000H
	je	SHORT $LN5@R_CullMode
	mov	eax, DWORD PTR ?RI@@3PAUref_instance_t@@A ; RI
	mov	ecx, DWORD PTR [eax]
	and	ecx, 1
	jne	SHORT $LN5@R_CullMode

; 49   : 		return true;

	mov	al, 1
	jmp	$LN1@R_CullMode
$LN5@R_CullMode:

; 50   : 
; 51   : 	// never draw playermodel for his flashlight while shadowpass is active
; 52   : 	if( FBitSet( RI->params, RP_SHADOWPASS ) && RI->currentlight != NULL )

	mov	eax, DWORD PTR ?RI@@3PAUref_instance_t@@A ; RI
	mov	ecx, DWORD PTR [eax]
	and	ecx, 256				; 00000100H
	je	SHORT $LN6@R_CullMode
	mov	eax, DWORD PTR ?RI@@3PAUref_instance_t@@A ; RI
	cmp	DWORD PTR [eax+24], 0
	je	SHORT $LN6@R_CullMode

; 53   : 	{
; 54   : 		if( UTIL_IsLocal( e->index ) && UTIL_IsLocal( RI->currentlight->key ))

	mov	eax, DWORD PTR _e$[ebp]
	mov	ecx, DWORD PTR [eax]
	push	ecx
	call	?UTIL_IsLocal@@YA_NH@Z			; UTIL_IsLocal
	add	esp, 4
	movzx	edx, al
	test	edx, edx
	je	SHORT $LN6@R_CullMode
	mov	eax, DWORD PTR ?RI@@3PAUref_instance_t@@A ; RI
	mov	ecx, DWORD PTR [eax+24]
	mov	edx, DWORD PTR [ecx+40]
	push	edx
	call	?UTIL_IsLocal@@YA_NH@Z			; UTIL_IsLocal
	add	esp, 4
	movzx	eax, al
	test	eax, eax
	je	SHORT $LN6@R_CullMode

; 55   : 			return true;

	mov	al, 1
	jmp	$LN1@R_CullMode
$LN6@R_CullMode:

; 56   : 	}
; 57   : 
; 58   : 	if( RP_LOCALCLIENT( e ))

	call	DWORD PTR ?gEngfuncs@@3Ucl_enginefuncs_s@@A+204
	test	eax, eax
	je	SHORT $LN8@R_CullMode
	call	DWORD PTR ?gEngfuncs@@3Ucl_enginefuncs_s@@A+204
	mov	ecx, DWORD PTR _e$[ebp]
	mov	edx, DWORD PTR [ecx]
	cmp	edx, DWORD PTR [eax]
	jne	SHORT $LN8@R_CullMode
	mov	eax, DWORD PTR _e$[ebp]
	cmp	DWORD PTR [eax+4], 0
	je	SHORT $LN8@R_CullMode

; 59   : 	{
; 60   : 		if( FBitSet( RI->params, RP_FORCE_NOPLAYER ))

	mov	eax, DWORD PTR ?RI@@3PAUref_instance_t@@A ; RI
	mov	ecx, DWORD PTR [eax]
	and	ecx, 16					; 00000010H
	je	SHORT $LN9@R_CullMode

; 61   : 			return true;

	mov	al, 1
	jmp	SHORT $LN1@R_CullMode
$LN9@R_CullMode:

; 62   : 
; 63   : 		if( !FBitSet( RI->params, RP_THIRDPERSON ) && UTIL_IsLocal( RI->viewentity ))

	mov	eax, DWORD PTR ?RI@@3PAUref_instance_t@@A ; RI
	mov	ecx, DWORD PTR [eax]
	and	ecx, 8192				; 00002000H
	jne	SHORT $LN8@R_CullMode
	mov	eax, DWORD PTR ?RI@@3PAUref_instance_t@@A ; RI
	mov	ecx, DWORD PTR [eax+4]
	push	ecx
	call	?UTIL_IsLocal@@YA_NH@Z			; UTIL_IsLocal
	add	esp, 4
	movzx	edx, al
	test	edx, edx
	je	SHORT $LN8@R_CullMode

; 64   : 		{
; 65   : 			// player can view himself from the portal camera
; 66   : 			if(!( RI->params & ( RP_MIRRORVIEW|RP_PORTALVIEW|RP_SCREENVIEW|RP_SHADOWPASS )))

	mov	eax, DWORD PTR ?RI@@3PAUref_instance_t@@A ; RI
	mov	ecx, DWORD PTR [eax]
	and	ecx, 449				; 000001c1H
	jne	SHORT $LN8@R_CullMode

; 67   : 				return true;

	mov	al, 1
	jmp	SHORT $LN1@R_CullMode
$LN8@R_CullMode:

; 68   : 		}
; 69   : 	}
; 70   : 
; 71   : 	return R_CullBox( absmin, absmax );

	push	0
	mov	eax, DWORD PTR _absmax$[ebp]
	push	eax
	mov	ecx, DWORD PTR _absmin$[ebp]
	push	ecx
	mov	ecx, DWORD PTR ?RI@@3PAUref_instance_t@@A ; RI
	add	ecx, 48					; 00000030H
	call	?CullBox@CFrustum@@QAE_NABVVector@@0H@Z	; CFrustum::CullBox
$LN1@R_CullMode:

; 72   : }

	pop	edi
	pop	esi
	pop	ebx
	mov	esp, ebp
	pop	ebp
	ret	0
?R_CullModel@@YA_NPAUcl_entity_s@@ABVVector@@1@Z ENDP	; R_CullModel
_TEXT	ENDS
; Function compile flags: /Odtp /ZI
; File d:\!diffusion 2020\source code 2022\client-server\game_shared\vector.h
;	COMDAT ?DotProduct@@YAMABVVector@@0@Z
_TEXT	SEGMENT
tv86 = -68						; size = 4
_a$ = 8							; size = 4
_b$ = 12						; size = 4
?DotProduct@@YAMABVVector@@0@Z PROC			; DotProduct, COMDAT

; 308  : inline float DotProduct(const Vector& a, const Vector& b ) { return( a.x * b.x + a.y * b.y + a.z * b.z ); }

	push	ebp
	mov	ebp, esp
	sub	esp, 68					; 00000044H
	push	ebx
	push	esi
	push	edi
	mov	eax, DWORD PTR _a$[ebp]
	mov	ecx, DWORD PTR _b$[ebp]
	movss	xmm0, DWORD PTR [eax]
	mulss	xmm0, DWORD PTR [ecx]
	mov	edx, DWORD PTR _a$[ebp]
	mov	eax, DWORD PTR _b$[ebp]
	movss	xmm1, DWORD PTR [edx+4]
	mulss	xmm1, DWORD PTR [eax+4]
	addss	xmm0, xmm1
	mov	ecx, DWORD PTR _a$[ebp]
	mov	edx, DWORD PTR _b$[ebp]
	movss	xmm1, DWORD PTR [ecx+8]
	mulss	xmm1, DWORD PTR [edx+8]
	addss	xmm0, xmm1
	movss	DWORD PTR tv86[ebp], xmm0
	fld	DWORD PTR tv86[ebp]
	pop	edi
	pop	esi
	pop	ebx
	mov	esp, ebp
	pop	ebp
	ret	0
?DotProduct@@YAMABVVector@@0@Z ENDP			; DotProduct
_TEXT	ENDS
; Function compile flags: /Odtp /ZI
; File d:\!diffusion 2020\source code 2022\client-server\game_shared\vector.h
;	COMDAT ??BVector@@QAEPAMXZ
_TEXT	SEGMENT
_this$ = -4						; size = 4
??BVector@@QAEPAMXZ PROC				; Vector::operator float *, COMDAT
; _this$ = ecx

; 247  : 	operator float *()				{ return &x; } // Vectors will now automatically convert to float * when needed

	push	ebp
	mov	ebp, esp
	sub	esp, 68					; 00000044H
	push	ebx
	push	esi
	push	edi
	mov	DWORD PTR _this$[ebp], ecx
	mov	eax, DWORD PTR _this$[ebp]
	pop	edi
	pop	esi
	pop	ebx
	mov	esp, ebp
	pop	ebp
	ret	0
??BVector@@QAEPAMXZ ENDP				; Vector::operator float *
_TEXT	ENDS
; Function compile flags: /Odtp /ZI
; File d:\!diffusion 2020\source code 2022\client-server\game_shared\vector.h
;	COMDAT ??DVector@@QBE?AV0@M@Z
_TEXT	SEGMENT
_this$ = -4						; size = 4
___$ReturnUdt$ = 8					; size = 4
_fl$ = 12						; size = 4
??DVector@@QBE?AV0@M@Z PROC				; Vector::operator*, COMDAT
; _this$ = ecx

; 162  : 	inline Vector operator*(float fl) const		{ return Vector(x*fl, y*fl, z*fl);	   }

	push	ebp
	mov	ebp, esp
	sub	esp, 68					; 00000044H
	push	ebx
	push	esi
	push	edi
	mov	DWORD PTR _this$[ebp], ecx
	mov	eax, DWORD PTR _this$[ebp]
	movss	xmm0, DWORD PTR [eax+8]
	mulss	xmm0, DWORD PTR _fl$[ebp]
	push	ecx
	movss	DWORD PTR [esp], xmm0
	mov	ecx, DWORD PTR _this$[ebp]
	movss	xmm0, DWORD PTR [ecx+4]
	mulss	xmm0, DWORD PTR _fl$[ebp]
	push	ecx
	movss	DWORD PTR [esp], xmm0
	mov	edx, DWORD PTR _this$[ebp]
	movss	xmm0, DWORD PTR [edx]
	mulss	xmm0, DWORD PTR _fl$[ebp]
	push	ecx
	movss	DWORD PTR [esp], xmm0
	mov	ecx, DWORD PTR ___$ReturnUdt$[ebp]
	call	??0Vector@@QAE@MMM@Z			; Vector::Vector
	mov	eax, DWORD PTR ___$ReturnUdt$[ebp]
	pop	edi
	pop	esi
	pop	ebx
	mov	esp, ebp
	pop	ebp
	ret	8
??DVector@@QBE?AV0@M@Z ENDP				; Vector::operator*
_TEXT	ENDS
; Function compile flags: /Odtp /ZI
; File d:\!diffusion 2020\source code 2022\client-server\game_shared\vector.h
;	COMDAT ??GVector@@QBE?AV0@ABV0@@Z
_TEXT	SEGMENT
_this$ = -4						; size = 4
___$ReturnUdt$ = 8					; size = 4
_v$ = 12						; size = 4
??GVector@@QBE?AV0@ABV0@@Z PROC				; Vector::operator-, COMDAT
; _this$ = ecx

; 159  : 	inline Vector operator-(const Vector& v) const	{ return Vector(x-v.x, y-v.y, z-v.z);	   }

	push	ebp
	mov	ebp, esp
	sub	esp, 68					; 00000044H
	push	ebx
	push	esi
	push	edi
	mov	DWORD PTR _this$[ebp], ecx
	mov	eax, DWORD PTR _this$[ebp]
	mov	ecx, DWORD PTR _v$[ebp]
	movss	xmm0, DWORD PTR [eax+8]
	subss	xmm0, DWORD PTR [ecx+8]
	push	ecx
	movss	DWORD PTR [esp], xmm0
	mov	edx, DWORD PTR _this$[ebp]
	mov	eax, DWORD PTR _v$[ebp]
	movss	xmm0, DWORD PTR [edx+4]
	subss	xmm0, DWORD PTR [eax+4]
	push	ecx
	movss	DWORD PTR [esp], xmm0
	mov	ecx, DWORD PTR _this$[ebp]
	mov	edx, DWORD PTR _v$[ebp]
	movss	xmm0, DWORD PTR [ecx]
	subss	xmm0, DWORD PTR [edx]
	push	ecx
	movss	DWORD PTR [esp], xmm0
	mov	ecx, DWORD PTR ___$ReturnUdt$[ebp]
	call	??0Vector@@QAE@MMM@Z			; Vector::Vector
	mov	eax, DWORD PTR ___$ReturnUdt$[ebp]
	pop	edi
	pop	esi
	pop	ebx
	mov	esp, ebp
	pop	ebp
	ret	8
??GVector@@QBE?AV0@ABV0@@Z ENDP				; Vector::operator-
_TEXT	ENDS
; Function compile flags: /Odtp /ZI
; File d:\!diffusion 2020\source code 2022\client-server\game_shared\vector.h
;	COMDAT ??HVector@@QBE?AV0@ABV0@@Z
_TEXT	SEGMENT
_this$ = -4						; size = 4
___$ReturnUdt$ = 8					; size = 4
_v$ = 12						; size = 4
??HVector@@QBE?AV0@ABV0@@Z PROC				; Vector::operator+, COMDAT
; _this$ = ecx

; 158  : 	inline Vector operator+(const Vector& v) const	{ return Vector(x+v.x, y+v.y, z+v.z);	   }

	push	ebp
	mov	ebp, esp
	sub	esp, 68					; 00000044H
	push	ebx
	push	esi
	push	edi
	mov	DWORD PTR _this$[ebp], ecx
	mov	eax, DWORD PTR _this$[ebp]
	mov	ecx, DWORD PTR _v$[ebp]
	movss	xmm0, DWORD PTR [eax+8]
	addss	xmm0, DWORD PTR [ecx+8]
	push	ecx
	movss	DWORD PTR [esp], xmm0
	mov	edx, DWORD PTR _this$[ebp]
	mov	eax, DWORD PTR _v$[ebp]
	movss	xmm0, DWORD PTR [edx+4]
	addss	xmm0, DWORD PTR [eax+4]
	push	ecx
	movss	DWORD PTR [esp], xmm0
	mov	ecx, DWORD PTR _this$[ebp]
	mov	edx, DWORD PTR _v$[ebp]
	movss	xmm0, DWORD PTR [ecx]
	addss	xmm0, DWORD PTR [edx]
	push	ecx
	movss	DWORD PTR [esp], xmm0
	mov	ecx, DWORD PTR ___$ReturnUdt$[ebp]
	call	??0Vector@@QAE@MMM@Z			; Vector::Vector
	mov	eax, DWORD PTR ___$ReturnUdt$[ebp]
	pop	edi
	pop	esi
	pop	ebx
	mov	esp, ebp
	pop	ebp
	ret	8
??HVector@@QBE?AV0@ABV0@@Z ENDP				; Vector::operator+
_TEXT	ENDS
; Function compile flags: /Odtp /ZI
; File d:\!diffusion 2020\source code 2022\client-server\game_shared\vector.h
;	COMDAT ??9Vector@@QBEHABV0@@Z
_TEXT	SEGMENT
tv68 = -72						; size = 4
_this$ = -4						; size = 4
_v$ = 8							; size = 4
??9Vector@@QBEHABV0@@Z PROC				; Vector::operator!=, COMDAT
; _this$ = ecx

; 157  : 	inline int operator!=(const Vector& v) const	{ return !(*this==v);		   }

	push	ebp
	mov	ebp, esp
	sub	esp, 72					; 00000048H
	push	ebx
	push	esi
	push	edi
	mov	DWORD PTR _this$[ebp], ecx
	mov	eax, DWORD PTR _v$[ebp]
	push	eax
	mov	ecx, DWORD PTR _this$[ebp]
	call	??8Vector@@QBEHABV0@@Z			; Vector::operator==
	test	eax, eax
	jne	SHORT $LN3@operator
	mov	DWORD PTR tv68[ebp], 1
	jmp	SHORT $LN4@operator
$LN3@operator:
	mov	DWORD PTR tv68[ebp], 0
$LN4@operator:
	mov	eax, DWORD PTR tv68[ebp]
	pop	edi
	pop	esi
	pop	ebx
	mov	esp, ebp
	pop	ebp
	ret	4
??9Vector@@QBEHABV0@@Z ENDP				; Vector::operator!=
_TEXT	ENDS
; Function compile flags: /Odtp /ZI
; File d:\!diffusion 2020\source code 2022\client-server\game_shared\vector.h
;	COMDAT ??8Vector@@QBEHABV0@@Z
_TEXT	SEGMENT
tv73 = -72						; size = 4
_this$ = -4						; size = 4
_v$ = 8							; size = 4
??8Vector@@QBEHABV0@@Z PROC				; Vector::operator==, COMDAT
; _this$ = ecx

; 156  : 	inline int operator==(const Vector& v) const	{ return x==v.x && y==v.y && z==v.z;	   }

	push	ebp
	mov	ebp, esp
	sub	esp, 72					; 00000048H
	push	ebx
	push	esi
	push	edi
	mov	DWORD PTR _this$[ebp], ecx
	mov	eax, DWORD PTR _this$[ebp]
	mov	ecx, DWORD PTR _v$[ebp]
	movss	xmm0, DWORD PTR [eax]
	ucomiss	xmm0, DWORD PTR [ecx]
	lahf
	test	ah, 68					; 00000044H
	jp	SHORT $LN3@operator
	mov	edx, DWORD PTR _this$[ebp]
	mov	eax, DWORD PTR _v$[ebp]
	movss	xmm0, DWORD PTR [edx+4]
	ucomiss	xmm0, DWORD PTR [eax+4]
	lahf
	test	ah, 68					; 00000044H
	jp	SHORT $LN3@operator
	mov	ecx, DWORD PTR _this$[ebp]
	mov	edx, DWORD PTR _v$[ebp]
	movss	xmm0, DWORD PTR [ecx+8]
	ucomiss	xmm0, DWORD PTR [edx+8]
	lahf
	test	ah, 68					; 00000044H
	jp	SHORT $LN3@operator
	mov	DWORD PTR tv73[ebp], 1
	jmp	SHORT $LN4@operator
$LN3@operator:
	mov	DWORD PTR tv73[ebp], 0
$LN4@operator:
	mov	eax, DWORD PTR tv73[ebp]
	pop	edi
	pop	esi
	pop	ebx
	mov	esp, ebp
	pop	ebp
	ret	4
??8Vector@@QBEHABV0@@Z ENDP				; Vector::operator==
_TEXT	ENDS
; Function compile flags: /Odtp /ZI
; File d:\!diffusion 2020\source code 2022\client-server\game_shared\vector.h
;	COMDAT ??0Vector@@QAE@MMM@Z
_TEXT	SEGMENT
_this$ = -4						; size = 4
_X$ = 8							; size = 4
_Y$ = 12						; size = 4
_Z$ = 16						; size = 4
??0Vector@@QAE@MMM@Z PROC				; Vector::Vector, COMDAT
; _this$ = ecx

; 144  : 	inline Vector(float X, float Y, float Z)	{ x = X; y = Y; z = Z;                     }

	push	ebp
	mov	ebp, esp
	sub	esp, 68					; 00000044H
	push	ebx
	push	esi
	push	edi
	mov	DWORD PTR _this$[ebp], ecx
	mov	eax, DWORD PTR _this$[ebp]
	movss	xmm0, DWORD PTR _X$[ebp]
	movss	DWORD PTR [eax], xmm0
	mov	eax, DWORD PTR _this$[ebp]
	movss	xmm0, DWORD PTR _Y$[ebp]
	movss	DWORD PTR [eax+4], xmm0
	mov	eax, DWORD PTR _this$[ebp]
	movss	xmm0, DWORD PTR _Z$[ebp]
	movss	DWORD PTR [eax+8], xmm0
	mov	eax, DWORD PTR _this$[ebp]
	pop	edi
	pop	esi
	pop	ebx
	mov	esp, ebp
	pop	ebp
	ret	12					; 0000000cH
??0Vector@@QAE@MMM@Z ENDP				; Vector::Vector
_TEXT	ENDS
; Function compile flags: /Odtp /ZI
; File d:\!diffusion 2020\source code 2022\client-server\game_shared\vector.h
;	COMDAT ??0Vector@@QAE@XZ
_TEXT	SEGMENT
_this$ = -4						; size = 4
??0Vector@@QAE@XZ PROC					; Vector::Vector, COMDAT
; _this$ = ecx

; 143  : 	inline Vector(void)				{ }

	push	ebp
	mov	ebp, esp
	sub	esp, 68					; 00000044H
	push	ebx
	push	esi
	push	edi
	mov	DWORD PTR _this$[ebp], ecx
	mov	eax, DWORD PTR _this$[ebp]
	pop	edi
	pop	esi
	pop	ebx
	mov	esp, ebp
	pop	ebp
	ret	0
??0Vector@@QAE@XZ ENDP					; Vector::Vector
_TEXT	ENDS
; Function compile flags: /Odtp /ZI
; File d:\!diffusion 2020\source code 2022\client-server\game_shared\vector.h
;	COMDAT ??0Vector2D@@QAE@XZ
_TEXT	SEGMENT
_this$ = -4						; size = 4
??0Vector2D@@QAE@XZ PROC				; Vector2D::Vector2D, COMDAT
; _this$ = ecx

; 60   : 	inline Vector2D(void) { }

	push	ebp
	mov	ebp, esp
	sub	esp, 68					; 00000044H
	push	ebx
	push	esi
	push	edi
	mov	DWORD PTR _this$[ebp], ecx
	mov	eax, DWORD PTR _this$[ebp]
	pop	edi
	pop	esi
	pop	ebx
	mov	esp, ebp
	pop	ebp
	ret	0
??0Vector2D@@QAE@XZ ENDP				; Vector2D::Vector2D
_TEXT	ENDS
; Function compile flags: /Odtp /ZI
;	COMDAT ??__G@YGXPAX0IIP6EPAX00@Z@Z
_TEXT	SEGMENT
tv66 = -68						; size = 4
___t$ = 8						; size = 4
___u$ = 12						; size = 4
___s$ = 16						; size = 4
___n$ = 20						; size = 4
___f$ = 24						; size = 4
??__G@YGXPAX0IIP6EPAX00@Z@Z PROC			; `vector copy constructor iterator', COMDAT
	push	ebp
	mov	ebp, esp
	sub	esp, 68					; 00000044H
	push	ebx
	push	esi
	push	edi
$LN2@vector:
	mov	eax, DWORD PTR ___n$[ebp]
	mov	DWORD PTR tv66[ebp], eax
	mov	ecx, DWORD PTR ___n$[ebp]
	sub	ecx, 1
	mov	DWORD PTR ___n$[ebp], ecx
	cmp	DWORD PTR tv66[ebp], 0
	jbe	SHORT $LN1@vector
	mov	eax, DWORD PTR ___u$[ebp]
	push	eax
	mov	ecx, DWORD PTR ___t$[ebp]
	call	DWORD PTR ___f$[ebp]
	mov	eax, DWORD PTR ___t$[ebp]
	add	eax, DWORD PTR ___s$[ebp]
	mov	DWORD PTR ___t$[ebp], eax
	mov	eax, DWORD PTR ___u$[ebp]
	add	eax, DWORD PTR ___s$[ebp]
	mov	DWORD PTR ___u$[ebp], eax
	jmp	SHORT $LN2@vector
$LN1@vector:
	pop	edi
	pop	esi
	pop	ebx
	mov	esp, ebp
	pop	ebp
	ret	20					; 00000014H
??__G@YGXPAX0IIP6EPAX00@Z@Z ENDP			; `vector copy constructor iterator'
_TEXT	ENDS
; Function compile flags: /Odtp /ZI
;	COMDAT ??_H@YGXPAXIIP6EPAX0@Z@Z
_TEXT	SEGMENT
tv66 = -68						; size = 4
___t$ = 8						; size = 4
___s$ = 12						; size = 4
___n$ = 16						; size = 4
___f$ = 20						; size = 4
??_H@YGXPAXIIP6EPAX0@Z@Z PROC				; `vector constructor iterator', COMDAT
	push	ebp
	mov	ebp, esp
	sub	esp, 68					; 00000044H
	push	ebx
	push	esi
	push	edi
$LN2@vector:
	mov	eax, DWORD PTR ___n$[ebp]
	mov	DWORD PTR tv66[ebp], eax
	mov	ecx, DWORD PTR ___n$[ebp]
	sub	ecx, 1
	mov	DWORD PTR ___n$[ebp], ecx
	cmp	DWORD PTR tv66[ebp], 0
	jbe	SHORT $LN1@vector
	mov	ecx, DWORD PTR ___t$[ebp]
	call	DWORD PTR ___f$[ebp]
	mov	eax, DWORD PTR ___t$[ebp]
	add	eax, DWORD PTR ___s$[ebp]
	mov	DWORD PTR ___t$[ebp], eax
	jmp	SHORT $LN2@vector
$LN1@vector:
	pop	edi
	pop	esi
	pop	ebx
	mov	esp, ebp
	pop	ebp
	ret	16					; 00000010H
??_H@YGXPAXIIP6EPAX0@Z@Z ENDP				; `vector constructor iterator'
_TEXT	ENDS
END
