; Listing generated by Microsoft (R) Optimizing Compiler Version 19.00.24247.2 

	TITLE	D:\!DIFFUSION 2020\source code 2022\client-server\client\render\r_cubemaps.cpp
	.686P
	.XMM
	include listing.inc
	.model	flat

INCLUDELIB LIBCMT
INCLUDELIB OLDNAMES

PUBLIC	??_H@YGXPAXIIP6EPAX0@Z@Z			; `vector constructor iterator'
PUBLIC	??__G@YGXPAX0IIP6EPAX00@Z@Z			; `vector copy constructor iterator'
PUBLIC	??0Vector@@QAE@XZ				; Vector::Vector
PUBLIC	??0Vector@@QAE@MMM@Z				; Vector::Vector
PUBLIC	??GVector@@QBE?AV0@XZ				; Vector::operator-
PUBLIC	??HVector@@QBE?AV0@ABV0@@Z			; Vector::operator+
PUBLIC	??GVector@@QBE?AV0@ABV0@@Z			; Vector::operator-
PUBLIC	??DVector@@QBE?AV0@M@Z				; Vector::operator*
PUBLIC	?Length@Vector@@QBEMXZ				; Vector::Length
PUBLIC	??BVector@@QAEPAMXZ				; Vector::operator float *
PUBLIC	??BVector@@QBEPBMXZ				; Vector::operator float const *
PUBLIC	?DotProduct@@YAMABVVector@@0@Z			; DotProduct
PUBLIC	??0mplane_s@@QAE@XZ				; mplane_s::mplane_s
PUBLIC	?FILE_EXISTS@@YA_NPBD@Z				; FILE_EXISTS
PUBLIC	??0pmplane_t@@QAE@XZ				; pmplane_t::pmplane_t
PUBLIC	??0pmtrace_s@@QAE@XZ				; pmtrace_s::pmtrace_s
PUBLIC	?CL_FindNearestCubeMap@@YAXABVVector@@PAPAUmcubemap_s@@@Z ; CL_FindNearestCubeMap
PUBLIC	?CL_FindTwoNearestCubeMap@@YAXABVVector@@PAPAUmcubemap_s@@1@Z ; CL_FindTwoNearestCubeMap
PUBLIC	?CL_FindNearestCubeMapForSurface@@YAXABVVector@@PBUmsurface_s@@PAPAUmcubemap_s@@@Z ; CL_FindNearestCubeMapForSurface
PUBLIC	?CL_FindTwoNearestCubeMapForSurface@@YAXABVVector@@PBUmsurface_s@@PAPAUmcubemap_s@@2@Z ; CL_FindTwoNearestCubeMapForSurface
PUBLIC	?CL_BuildCubemaps_f@@YAXXZ			; CL_BuildCubemaps_f
PUBLIC	?R_InitCubemaps@@YAXXZ				; R_InitCubemaps
PUBLIC	?GL_LoadAndRebuildCubemaps@@YAXH@Z		; GL_LoadAndRebuildCubemaps
PUBLIC	?Mod_LoadCubemaps@@YAXPBEPBUdlump_t@@@Z		; Mod_LoadCubemaps
PUBLIC	?Mod_FreeCubemaps@@YAXXZ			; Mod_FreeCubemaps
PUBLIC	??_C@_02LDKJLNED@px?$AA@			; `string'
PUBLIC	??_C@_02KFBBDDDJ@nx?$AA@			; `string'
PUBLIC	??_C@_02KKLCIMAC@py?$AA@			; `string'
PUBLIC	??_C@_02LMAKACHI@ny?$AA@			; `string'
PUBLIC	??_C@_02IBJPNPMB@pz?$AA@			; `string'
PUBLIC	??_C@_02JHCHFBLL@nz?$AA@			; `string'
PUBLIC	??_C@_0BD@MMKAIIME@maps?1env?1?$CFs?1?$CFs?4dds?$AA@ ; `string'
PUBLIC	??_C@_0BF@OOMLEMDD@maps?1env?1?$CFs?1?$CFs?$CFs?4tga?$AA@ ; `string'
PUBLIC	??_C@_0CD@CJIPBMEE@Mod_LoadCubemaps?3?5funny?5lump?5siz@ ; `string'
PUBLIC	??_C@_0FC@BMKHBIFE@Mod_LoadCubemaps?3?5map?5contain?5to@ ; `string'
PUBLIC	??_C@_0BE@OCJLKCJC@maps?1env?1?$CFs?1default?$AA@ ; `string'
PUBLIC	??_C@_07DLHCIBDH@default?$AA@			; `string'
PUBLIC	??_C@_0L@JMLEAHMH@?$CKwhiteCube?$AA@		; `string'
PUBLIC	??_C@_0BE@IPNAFJLO@maps?1env?1?$CFs?1cube?$CD?$CFi?$AA@ ; `string'
PUBLIC	??_C@_07FGDJHKBL@cube?$CD?$CFi?$AA@		; `string'
PUBLIC	??_C@_0O@KEIAHEAI@buildcubemaps?$AA@		; `string'
PUBLIC	??_C@_0DB@MPNBFOG@GL_RebuildCubemaps?3?5can?8t?5build?5@ ; `string'
PUBLIC	??_C@_06NJHCGIDI@?$CFs?4tga?$AA@		; `string'
PUBLIC	??_C@_0CJ@MEPBLGCK@GL_RebuildCubemaps?3?5can?8t?5build?5@ ; `string'
PUBLIC	__real@00000000
PUBLIC	__real@3f000000
PUBLIC	__real@3f800000
PUBLIC	__real@45800000
PUBLIC	__real@47c34f80
PUBLIC	__real@bf800000
PUBLIC	__xmm@80000000800000008000000080000000
EXTRN	_memset:PROC
EXTRN	_sqrt:PROC
EXTRN	?NearestPOW@@YAHH_N@Z:PROC			; NearestPOW
EXTRN	?ClearBounds@@YAXAAVVector@@0@Z:PROC		; ClearBounds
EXTRN	?AddPointToBounds@@YAXABVVector@@AAV1@1M@Z:PROC	; AddPointToBounds
EXTRN	?Q_snprintf@@YAHPADIPBDZZ:PROC			; Q_snprintf
EXTRN	?va@@YAPADPBDZZ:PROC				; va
EXTRN	?ALERT@@YAXW4ALERT_TYPE@@PADZZ:PROC		; ALERT
EXTRN	?Sys_RemoveFile@@YA_NPBD@Z:PROC			; Sys_RemoveFile
EXTRN	?GL_Support@@YA_NH@Z:PROC			; GL_Support
EXTRN	@__security_check_cookie@4:PROC
EXTRN	?gEngfuncs@@3Ucl_enginefuncs_s@@A:BYTE		; gEngfuncs
EXTRN	?gRenderfuncs@@3Urender_api_s@@A:BYTE		; gRenderfuncs
EXTRN	?vid_gamma@@3PAUcvar_s@@A:DWORD			; vid_gamma
EXTRN	?vid_brightness@@3PAUcvar_s@@A:DWORD		; vid_brightness
EXTRN	?worldmodel@@3PAUmodel_s@@A:DWORD		; worldmodel
EXTRN	?tr@@3Uref_globals_t@@A:BYTE			; tr
EXTRN	?world@@3PAUgl_world_t@@A:DWORD			; world
EXTRN	___security_cookie:DWORD
EXTRN	__fltused:DWORD
_BSS	SEGMENT
?env_dir@@3PAVVector@@A DB 048H DUP (?)			; env_dir
_BSS	ENDS
CRT$XCU	SEGMENT
?env_dir$initializer$@@3P6AXXZA DD FLAT:??__Eenv_dir@@YAXXZ ; env_dir$initializer$
CRT$XCU	ENDS
;	COMDAT __xmm@80000000800000008000000080000000
CONST	SEGMENT
__xmm@80000000800000008000000080000000 DB 00H, 00H, 00H, 080H, 00H, 00H, 00H
	DB	080H, 00H, 00H, 00H, 080H, 00H, 00H, 00H, 080H
CONST	ENDS
;	COMDAT __real@bf800000
CONST	SEGMENT
__real@bf800000 DD 0bf800000r			; -1
CONST	ENDS
;	COMDAT __real@47c34f80
CONST	SEGMENT
__real@47c34f80 DD 047c34f80r			; 99999
CONST	ENDS
;	COMDAT __real@45800000
CONST	SEGMENT
__real@45800000 DD 045800000r			; 4096
CONST	ENDS
;	COMDAT __real@3f800000
CONST	SEGMENT
__real@3f800000 DD 03f800000r			; 1
CONST	ENDS
;	COMDAT __real@3f000000
CONST	SEGMENT
__real@3f000000 DD 03f000000r			; 0.5
CONST	ENDS
;	COMDAT __real@00000000
CONST	SEGMENT
__real@00000000 DD 000000000r			; 0
CONST	ENDS
;	COMDAT ??_C@_0CJ@MEPBLGCK@GL_RebuildCubemaps?3?5can?8t?5build?5@
CONST	SEGMENT
??_C@_0CJ@MEPBLGCK@GL_RebuildCubemaps?3?5can?8t?5build?5@ DB 'GL_RebuildC'
	DB	'ubemaps: can''t build cube#%i', 0aH, 00H	; `string'
CONST	ENDS
;	COMDAT ??_C@_06NJHCGIDI@?$CFs?4tga?$AA@
CONST	SEGMENT
??_C@_06NJHCGIDI@?$CFs?4tga?$AA@ DB '%s.tga', 00H	; `string'
CONST	ENDS
;	COMDAT ??_C@_0DB@MPNBFOG@GL_RebuildCubemaps?3?5can?8t?5build?5@
CONST	SEGMENT
??_C@_0DB@MPNBFOG@GL_RebuildCubemaps?3?5can?8t?5build?5@ DB 'GL_RebuildCu'
	DB	'bemaps: can''t build default cubemap', 0aH, 00H ; `string'
CONST	ENDS
;	COMDAT ??_C@_0O@KEIAHEAI@buildcubemaps?$AA@
CONST	SEGMENT
??_C@_0O@KEIAHEAI@buildcubemaps?$AA@ DB 'buildcubemaps', 00H ; `string'
CONST	ENDS
;	COMDAT ??_C@_07FGDJHKBL@cube?$CD?$CFi?$AA@
CONST	SEGMENT
??_C@_07FGDJHKBL@cube?$CD?$CFi?$AA@ DB 'cube#%i', 00H	; `string'
CONST	ENDS
;	COMDAT ??_C@_0BE@IPNAFJLO@maps?1env?1?$CFs?1cube?$CD?$CFi?$AA@
CONST	SEGMENT
??_C@_0BE@IPNAFJLO@maps?1env?1?$CFs?1cube?$CD?$CFi?$AA@ DB 'maps/env/%s/c'
	DB	'ube#%i', 00H				; `string'
CONST	ENDS
;	COMDAT ??_C@_0L@JMLEAHMH@?$CKwhiteCube?$AA@
CONST	SEGMENT
??_C@_0L@JMLEAHMH@?$CKwhiteCube?$AA@ DB '*whiteCube', 00H ; `string'
CONST	ENDS
;	COMDAT ??_C@_07DLHCIBDH@default?$AA@
CONST	SEGMENT
??_C@_07DLHCIBDH@default?$AA@ DB 'default', 00H		; `string'
CONST	ENDS
;	COMDAT ??_C@_0BE@OCJLKCJC@maps?1env?1?$CFs?1default?$AA@
CONST	SEGMENT
??_C@_0BE@OCJLKCJC@maps?1env?1?$CFs?1default?$AA@ DB 'maps/env/%s/default'
	DB	00H						; `string'
CONST	ENDS
;	COMDAT ??_C@_0FC@BMKHBIFE@Mod_LoadCubemaps?3?5map?5contain?5to@
CONST	SEGMENT
??_C@_0FC@BMKHBIFE@Mod_LoadCubemaps?3?5map?5contain?5to@ DB 'Mod_LoadCube'
	DB	'maps: map contain too many cubemaps. Will handle only first %'
	DB	'i items', 0aH, 00H				; `string'
CONST	ENDS
;	COMDAT ??_C@_0CD@CJIPBMEE@Mod_LoadCubemaps?3?5funny?5lump?5siz@
CONST	SEGMENT
??_C@_0CD@CJIPBMEE@Mod_LoadCubemaps?3?5funny?5lump?5siz@ DB 'Mod_LoadCube'
	DB	'maps: funny lump size', 0aH, 00H		; `string'
CONST	ENDS
;	COMDAT ??_C@_0BF@OOMLEMDD@maps?1env?1?$CFs?1?$CFs?$CFs?4tga?$AA@
CONST	SEGMENT
??_C@_0BF@OOMLEMDD@maps?1env?1?$CFs?1?$CFs?$CFs?4tga?$AA@ DB 'maps/env/%s'
	DB	'/%s%s.tga', 00H				; `string'
CONST	ENDS
;	COMDAT ??_C@_0BD@MMKAIIME@maps?1env?1?$CFs?1?$CFs?4dds?$AA@
CONST	SEGMENT
??_C@_0BD@MMKAIIME@maps?1env?1?$CFs?1?$CFs?4dds?$AA@ DB 'maps/env/%s/%s.d'
	DB	'ds', 00H					; `string'
CONST	ENDS
;	COMDAT ??_C@_02JHCHFBLL@nz?$AA@
CONST	SEGMENT
??_C@_02JHCHFBLL@nz?$AA@ DB 'nz', 00H			; `string'
CONST	ENDS
;	COMDAT ??_C@_02IBJPNPMB@pz?$AA@
CONST	SEGMENT
??_C@_02IBJPNPMB@pz?$AA@ DB 'pz', 00H			; `string'
CONST	ENDS
;	COMDAT ??_C@_02LMAKACHI@ny?$AA@
CONST	SEGMENT
??_C@_02LMAKACHI@ny?$AA@ DB 'ny', 00H			; `string'
CONST	ENDS
;	COMDAT ??_C@_02KKLCIMAC@py?$AA@
CONST	SEGMENT
??_C@_02KKLCIMAC@py?$AA@ DB 'py', 00H			; `string'
CONST	ENDS
;	COMDAT ??_C@_02KFBBDDDJ@nx?$AA@
CONST	SEGMENT
??_C@_02KFBBDDDJ@nx?$AA@ DB 'nx', 00H			; `string'
CONST	ENDS
;	COMDAT ??_C@_02LDKJLNED@px?$AA@
CONST	SEGMENT
??_C@_02LDKJLNED@px?$AA@ DB 'px', 00H			; `string'
CONST	ENDS
; Function compile flags: /Odtp /ZI
; File d:\!diffusion 2020\source code 2022\client-server\client\render\r_cubemaps.cpp
;	COMDAT ?Mod_LoadCubemap@@YA_NPAUmcubemap_s@@@Z
_TEXT	SEGMENT
_flags$ = -4						; size = 4
_m$ = 8							; size = 4
?Mod_LoadCubemap@@YA_NPAUmcubemap_s@@@Z PROC		; Mod_LoadCubemap, COMDAT

; 132  : {

	push	ebp
	mov	ebp, esp
	sub	esp, 68					; 00000044H
	push	ebx
	push	esi
	push	edi

; 133  : 	int flags = 0;

	mov	DWORD PTR _flags$[ebp], 0

; 134  : 
; 135  : 	if( m->valid && !m->texture )

	mov	eax, DWORD PTR _m$[ebp]
	movzx	ecx, BYTE PTR [eax+92]
	test	ecx, ecx
	je	$LN2@Mod_LoadCu
	mov	eax, DWORD PTR _m$[ebp]
	cmp	DWORD PTR [eax+64], 0
	jne	$LN2@Mod_LoadCu

; 136  : 	{
; 137  : 		if( GL_Support( R_SEAMLESS_CUBEMAP ) )

	push	23					; 00000017H
	call	?GL_Support@@YA_NH@Z			; GL_Support
	add	esp, 4
	movzx	eax, al
	test	eax, eax
	je	SHORT $LN3@Mod_LoadCu

; 138  : 			SetBits( flags, TF_BORDER );	// seamless cubemaps have support for border

	mov	eax, DWORD PTR _flags$[ebp]
	or	eax, 524288				; 00080000H
	mov	DWORD PTR _flags$[ebp], eax
	jmp	SHORT $LN4@Mod_LoadCu
$LN3@Mod_LoadCu:

; 139  : 		else SetBits( flags, TF_CLAMP ); // default method

	mov	eax, DWORD PTR _flags$[ebp]
	or	eax, 2048				; 00000800H
	mov	DWORD PTR _flags$[ebp], eax
$LN4@Mod_LoadCu:

; 140  : 		m->texture = LOAD_TEXTURE( m->name, NULL, 0, flags );

	mov	eax, DWORD PTR _flags$[ebp]
	push	eax
	push	0
	push	0
	mov	ecx, DWORD PTR _m$[ebp]
	push	ecx
	call	DWORD PTR ?gRenderfuncs@@3Urender_api_s@@A+60
	add	esp, 16					; 00000010H
	mov	edx, DWORD PTR _m$[ebp]
	mov	DWORD PTR [edx+64], eax

; 141  : 
; 142  : 		// make sure what is really cubemap
; 143  : 		if( RENDER_GET_PARM( PARM_TEX_TARGET, m->texture ) == GL_TEXTURE_CUBE_MAP_ARB )

	mov	eax, DWORD PTR _m$[ebp]
	mov	ecx, DWORD PTR [eax+64]
	push	ecx
	push	8
	call	DWORD PTR ?gRenderfuncs@@3Urender_api_s@@A
	add	esp, 8
	cmp	eax, 34067				; 00008513H
	jne	SHORT $LN5@Mod_LoadCu

; 144  : 			m->valid = true;

	mov	eax, DWORD PTR _m$[ebp]
	mov	BYTE PTR [eax+92], 1
	jmp	SHORT $LN6@Mod_LoadCu
$LN5@Mod_LoadCu:

; 145  : 		else m->valid = false;

	mov	eax, DWORD PTR _m$[ebp]
	mov	BYTE PTR [eax+92], 0
$LN6@Mod_LoadCu:

; 146  : 
; 147  : 		// NOTE: old DDS cubemaps has no mip-levels
; 148  : 		m->numMips = RENDER_GET_PARM( PARM_TEX_MIPCOUNT, m->texture );

	mov	eax, DWORD PTR _m$[ebp]
	mov	ecx, DWORD PTR [eax+64]
	push	ecx
	push	15					; 0000000fH
	call	DWORD PTR ?gRenderfuncs@@3Urender_api_s@@A
	add	esp, 8
	mov	edx, DWORD PTR _m$[ebp]
	mov	BYTE PTR [edx+110], al
$LN2@Mod_LoadCu:

; 149  : 	}
; 150  : 
; 151  : 	return m->valid;

	mov	eax, DWORD PTR _m$[ebp]
	mov	al, BYTE PTR [eax+92]

; 152  : }

	pop	edi
	pop	esi
	pop	ebx
	mov	esp, ebp
	pop	ebp
	ret	0
?Mod_LoadCubemap@@YA_NPAUmcubemap_s@@@Z ENDP		; Mod_LoadCubemap
_TEXT	ENDS
; Function compile flags: /Odtp /ZI
; File d:\!diffusion 2020\source code 2022\client-server\client\render\r_cubemaps.cpp
;	COMDAT ?Mod_DeleteCubemap@@YAXPBD@Z
_TEXT	SEGMENT
_i$1 = -96						; size = 4
_sidename$ = -92					; size = 64
_suf$ = -28						; size = 24
__$ArrayPad$ = -4					; size = 4
_name$ = 8						; size = 4
?Mod_DeleteCubemap@@YAXPBD@Z PROC			; Mod_DeleteCubemap, COMDAT

; 110  : {

	push	ebp
	mov	ebp, esp
	sub	esp, 160				; 000000a0H
	mov	eax, DWORD PTR ___security_cookie
	xor	eax, ebp
	mov	DWORD PTR __$ArrayPad$[ebp], eax
	push	ebx
	push	esi
	push	edi

; 111  : 	char *suf[6] = { "px", "nx", "py", "ny", "pz", "nz" };

	mov	DWORD PTR _suf$[ebp], OFFSET ??_C@_02LDKJLNED@px?$AA@
	mov	DWORD PTR _suf$[ebp+4], OFFSET ??_C@_02KFBBDDDJ@nx?$AA@
	mov	DWORD PTR _suf$[ebp+8], OFFSET ??_C@_02KKLCIMAC@py?$AA@
	mov	DWORD PTR _suf$[ebp+12], OFFSET ??_C@_02LMAKACHI@ny?$AA@
	mov	DWORD PTR _suf$[ebp+16], OFFSET ??_C@_02IBJPNPMB@pz?$AA@
	mov	DWORD PTR _suf$[ebp+20], OFFSET ??_C@_02JHCHFBLL@nz?$AA@

; 112  : 	char	sidename[64];
; 113  : 
; 114  : 	for( int i = 0; i < 6; i++ )

	mov	DWORD PTR _i$1[ebp], 0
	jmp	SHORT $LN4@Mod_Delete
$LN2@Mod_Delete:
	mov	eax, DWORD PTR _i$1[ebp]
	add	eax, 1
	mov	DWORD PTR _i$1[ebp], eax
$LN4@Mod_Delete:
	cmp	DWORD PTR _i$1[ebp], 6
	jge	SHORT $LN1@Mod_Delete

; 115  : 	{
; 116  : 		Q_snprintf( sidename, sizeof( sidename ), "maps/env/%s/%s%s.tga", world->name, name, suf[i] );

	mov	eax, DWORD PTR _i$1[ebp]
	mov	ecx, DWORD PTR _suf$[ebp+eax*4]
	push	ecx
	mov	edx, DWORD PTR _name$[ebp]
	push	edx
	mov	eax, DWORD PTR ?world@@3PAUgl_world_t@@A ; world
	push	eax
	push	OFFSET ??_C@_0BF@OOMLEMDD@maps?1env?1?$CFs?1?$CFs?$CFs?4tga?$AA@
	push	64					; 00000040H
	lea	ecx, DWORD PTR _sidename$[ebp]
	push	ecx
	call	?Q_snprintf@@YAHPADIPBDZZ		; Q_snprintf
	add	esp, 24					; 00000018H

; 117  : 
; 118  : 		if( FILE_EXISTS( sidename ) )

	lea	eax, DWORD PTR _sidename$[ebp]
	push	eax
	call	?FILE_EXISTS@@YA_NPBD@Z			; FILE_EXISTS
	add	esp, 4
	movzx	ecx, al
	test	ecx, ecx
	je	SHORT $LN5@Mod_Delete

; 119  : 			Sys_RemoveFile( sidename );

	lea	eax, DWORD PTR _sidename$[ebp]
	push	eax
	call	?Sys_RemoveFile@@YA_NPBD@Z		; Sys_RemoveFile
	add	esp, 4
$LN5@Mod_Delete:

; 120  : 	}

	jmp	SHORT $LN2@Mod_Delete
$LN1@Mod_Delete:

; 121  : }

	pop	edi
	pop	esi
	pop	ebx
	mov	ecx, DWORD PTR __$ArrayPad$[ebp]
	xor	ecx, ebp
	call	@__security_check_cookie@4
	mov	esp, ebp
	pop	ebp
	ret	0
?Mod_DeleteCubemap@@YAXPBD@Z ENDP			; Mod_DeleteCubemap
_TEXT	ENDS
; Function compile flags: /Odtp /ZI
; File d:\!diffusion 2020\source code 2022\client-server\client\render\r_cubemaps.cpp
;	COMDAT ?Mod_CheckCubemap@@YA_NPBD@Z
_TEXT	SEGMENT
tv93 = -169						; size = 1
_i$1 = -104						; size = 4
_iCompare$ = -100					; size = 4
_sidename$ = -96					; size = 64
_valid_sides$ = -32					; size = 4
_suf$ = -28						; size = 24
__$ArrayPad$ = -4					; size = 4
_name$ = 8						; size = 4
?Mod_CheckCubemap@@YA_NPBD@Z PROC			; Mod_CheckCubemap, COMDAT

; 81   : {

	push	ebp
	mov	ebp, esp
	sub	esp, 172				; 000000acH
	mov	eax, DWORD PTR ___security_cookie
	xor	eax, ebp
	mov	DWORD PTR __$ArrayPad$[ebp], eax
	push	ebx
	push	esi
	push	edi

; 82   : 	char *suf[6] = { "px", "nx", "py", "ny", "pz", "nz" };

	mov	DWORD PTR _suf$[ebp], OFFSET ??_C@_02LDKJLNED@px?$AA@
	mov	DWORD PTR _suf$[ebp+4], OFFSET ??_C@_02KFBBDDDJ@nx?$AA@
	mov	DWORD PTR _suf$[ebp+8], OFFSET ??_C@_02KKLCIMAC@py?$AA@
	mov	DWORD PTR _suf$[ebp+12], OFFSET ??_C@_02LMAKACHI@ny?$AA@
	mov	DWORD PTR _suf$[ebp+16], OFFSET ??_C@_02IBJPNPMB@pz?$AA@
	mov	DWORD PTR _suf$[ebp+20], OFFSET ??_C@_02JHCHFBLL@nz?$AA@

; 83   : 	int	valid_sides = 0;

	mov	DWORD PTR _valid_sides$[ebp], 0

; 84   : 	char	sidename[64];
; 85   : 	int	iCompare;
; 86   : 
; 87   : 	// FIXME: potentially unsafe checking: looking for DDS_CUBEMAP bit?
; 88   : 	if( FILE_EXISTS( va( "maps/env/%s/%s.dds", world->name, name ) ) )

	mov	eax, DWORD PTR _name$[ebp]
	push	eax
	mov	ecx, DWORD PTR ?world@@3PAUgl_world_t@@A ; world
	push	ecx
	push	OFFSET ??_C@_0BD@MMKAIIME@maps?1env?1?$CFs?1?$CFs?4dds?$AA@
	call	?va@@YAPADPBDZZ				; va
	add	esp, 12					; 0000000cH
	push	eax
	call	?FILE_EXISTS@@YA_NPBD@Z			; FILE_EXISTS
	add	esp, 4
	movzx	edx, al
	test	edx, edx
	je	SHORT $LN5@Mod_CheckC

; 89   : 		return true;

	mov	al, 1
	jmp	$LN1@Mod_CheckC
$LN5@Mod_CheckC:

; 90   : 
; 91   : 	for( int i = 0; i < 6; i++ )

	mov	DWORD PTR _i$1[ebp], 0
	jmp	SHORT $LN4@Mod_CheckC
$LN2@Mod_CheckC:
	mov	eax, DWORD PTR _i$1[ebp]
	add	eax, 1
	mov	DWORD PTR _i$1[ebp], eax
$LN4@Mod_CheckC:
	cmp	DWORD PTR _i$1[ebp], 6
	jge	SHORT $LN3@Mod_CheckC

; 92   : 	{
; 93   : 		Q_snprintf( sidename, sizeof( sidename ), "maps/env/%s/%s%s.tga", world->name, name, suf[i] );

	mov	eax, DWORD PTR _i$1[ebp]
	mov	ecx, DWORD PTR _suf$[ebp+eax*4]
	push	ecx
	mov	edx, DWORD PTR _name$[ebp]
	push	edx
	mov	eax, DWORD PTR ?world@@3PAUgl_world_t@@A ; world
	push	eax
	push	OFFSET ??_C@_0BF@OOMLEMDD@maps?1env?1?$CFs?1?$CFs?$CFs?4tga?$AA@
	push	64					; 00000040H
	lea	ecx, DWORD PTR _sidename$[ebp]
	push	ecx
	call	?Q_snprintf@@YAHPADIPBDZZ		; Q_snprintf
	add	esp, 24					; 00000018H

; 94   : 
; 95   : 		if( COMPARE_FILE_TIME( worldmodel->name, sidename, &iCompare ) && iCompare <= 0 )

	lea	eax, DWORD PTR _iCompare$[ebp]
	push	eax
	lea	ecx, DWORD PTR _sidename$[ebp]
	push	ecx
	mov	edx, DWORD PTR ?worldmodel@@3PAUmodel_s@@A ; worldmodel
	push	edx
	call	DWORD PTR ?gRenderfuncs@@3Urender_api_s@@A+232
	add	esp, 12					; 0000000cH
	test	eax, eax
	je	SHORT $LN6@Mod_CheckC
	cmp	DWORD PTR _iCompare$[ebp], 0
	jg	SHORT $LN6@Mod_CheckC

; 96   : 			valid_sides++;

	mov	eax, DWORD PTR _valid_sides$[ebp]
	add	eax, 1
	mov	DWORD PTR _valid_sides$[ebp], eax
$LN6@Mod_CheckC:

; 97   : 	}

	jmp	SHORT $LN2@Mod_CheckC
$LN3@Mod_CheckC:

; 98   : 
; 99   : 	return (valid_sides == 6) ? true : false;

	cmp	DWORD PTR _valid_sides$[ebp], 6
	jne	SHORT $LN8@Mod_CheckC
	mov	BYTE PTR tv93[ebp], 1
	jmp	SHORT $LN9@Mod_CheckC
$LN8@Mod_CheckC:
	mov	BYTE PTR tv93[ebp], 0
$LN9@Mod_CheckC:
	mov	al, BYTE PTR tv93[ebp]
$LN1@Mod_CheckC:

; 100  : }

	pop	edi
	pop	esi
	pop	ebx
	mov	ecx, DWORD PTR __$ArrayPad$[ebp]
	xor	ecx, ebp
	call	@__security_check_cookie@4
	mov	esp, ebp
	pop	ebp
	ret	0
?Mod_CheckCubemap@@YA_NPBD@Z ENDP			; Mod_CheckCubemap
_TEXT	ENDS
; Function compile flags: /Odtp /ZI
; File d:\!diffusion 2020\source code 2022\client-server\client\render\r_cubemaps.cpp
;	COMDAT ?Mod_FreeCubemap@@YAXPAUmcubemap_s@@@Z
_TEXT	SEGMENT
_m$ = 8							; size = 4
?Mod_FreeCubemap@@YAXPAUmcubemap_s@@@Z PROC		; Mod_FreeCubemap, COMDAT

; 45   : {

	push	ebp
	mov	ebp, esp
	sub	esp, 64					; 00000040H
	push	ebx
	push	esi
	push	edi

; 46   : 	if( m->valid && m->texture && m->texture != tr.whiteCubeTexture )

	mov	eax, DWORD PTR _m$[ebp]
	movzx	ecx, BYTE PTR [eax+92]
	test	ecx, ecx
	je	SHORT $LN2@Mod_FreeCu
	mov	eax, DWORD PTR _m$[ebp]
	cmp	DWORD PTR [eax+64], 0
	je	SHORT $LN2@Mod_FreeCu
	mov	eax, DWORD PTR _m$[ebp]
	mov	ecx, DWORD PTR [eax+64]
	cmp	ecx, DWORD PTR ?tr@@3Uref_globals_t@@A+5724
	je	SHORT $LN2@Mod_FreeCu

; 47   : 		FREE_TEXTURE( m->texture );

	mov	eax, DWORD PTR _m$[ebp]
	mov	ecx, DWORD PTR [eax+64]
	push	ecx
	call	DWORD PTR ?gRenderfuncs@@3Urender_api_s@@A+76
	add	esp, 4
$LN2@Mod_FreeCu:

; 48   : 
; 49   : 	memset( m, 0, sizeof( *m ) );

	push	112					; 00000070H
	push	0
	mov	eax, DWORD PTR _m$[ebp]
	push	eax
	call	_memset
	add	esp, 12					; 0000000cH

; 50   : }

	pop	edi
	pop	esi
	pop	ebx
	mov	esp, ebp
	pop	ebp
	ret	0
?Mod_FreeCubemap@@YAXPAUmcubemap_s@@@Z ENDP		; Mod_FreeCubemap
_TEXT	ENDS
; Function compile flags: /Odtp /ZI
; File d:\!diffusion 2020\source code 2022\client-server\client\render\r_cubemaps.cpp
;	COMDAT ??__Eenv_dir@@YAXXZ
text$di	SEGMENT
??__Eenv_dir@@YAXXZ PROC				; `dynamic initializer for 'env_dir'', COMDAT

; 35   : };

	push	ebp
	mov	ebp, esp
	sub	esp, 64					; 00000040H
	push	ebx
	push	esi
	push	edi

; 29   : 	Vector( 1.0f,  0.0f,  0.0f ),

	push	ecx
	xorps	xmm0, xmm0
	movss	DWORD PTR [esp], xmm0
	push	ecx
	xorps	xmm0, xmm0
	movss	DWORD PTR [esp], xmm0
	push	ecx
	movss	xmm0, DWORD PTR __real@3f800000
	movss	DWORD PTR [esp], xmm0
	mov	ecx, OFFSET ?env_dir@@3PAVVector@@A
	call	??0Vector@@QAE@MMM@Z			; Vector::Vector

; 30   : 	Vector( -1.0f,  0.0f,  0.0f ),

	push	ecx
	xorps	xmm0, xmm0
	movss	DWORD PTR [esp], xmm0
	push	ecx
	xorps	xmm0, xmm0
	movss	DWORD PTR [esp], xmm0
	push	ecx
	movss	xmm0, DWORD PTR __real@bf800000
	movss	DWORD PTR [esp], xmm0
	mov	ecx, OFFSET ?env_dir@@3PAVVector@@A+12
	call	??0Vector@@QAE@MMM@Z			; Vector::Vector

; 31   : 	Vector( 0.0f,  1.0f,  0.0f ),

	push	ecx
	xorps	xmm0, xmm0
	movss	DWORD PTR [esp], xmm0
	push	ecx
	movss	xmm0, DWORD PTR __real@3f800000
	movss	DWORD PTR [esp], xmm0
	push	ecx
	xorps	xmm0, xmm0
	movss	DWORD PTR [esp], xmm0
	mov	ecx, OFFSET ?env_dir@@3PAVVector@@A+24
	call	??0Vector@@QAE@MMM@Z			; Vector::Vector

; 32   : 	Vector( 0.0f, -1.0f,  0.0f ),

	push	ecx
	xorps	xmm0, xmm0
	movss	DWORD PTR [esp], xmm0
	push	ecx
	movss	xmm0, DWORD PTR __real@bf800000
	movss	DWORD PTR [esp], xmm0
	push	ecx
	xorps	xmm0, xmm0
	movss	DWORD PTR [esp], xmm0
	mov	ecx, OFFSET ?env_dir@@3PAVVector@@A+36
	call	??0Vector@@QAE@MMM@Z			; Vector::Vector

; 33   : 	Vector( 0.0f,  0.0f,  1.0f ),

	push	ecx
	movss	xmm0, DWORD PTR __real@3f800000
	movss	DWORD PTR [esp], xmm0
	push	ecx
	xorps	xmm0, xmm0
	movss	DWORD PTR [esp], xmm0
	push	ecx
	xorps	xmm0, xmm0
	movss	DWORD PTR [esp], xmm0
	mov	ecx, OFFSET ?env_dir@@3PAVVector@@A+48
	call	??0Vector@@QAE@MMM@Z			; Vector::Vector

; 34   : 	Vector( 0.0f,  0.0f, -1.0f )

	push	ecx
	movss	xmm0, DWORD PTR __real@bf800000
	movss	DWORD PTR [esp], xmm0
	push	ecx
	xorps	xmm0, xmm0
	movss	DWORD PTR [esp], xmm0
	push	ecx
	xorps	xmm0, xmm0
	movss	DWORD PTR [esp], xmm0
	mov	ecx, OFFSET ?env_dir@@3PAVVector@@A+60
	call	??0Vector@@QAE@MMM@Z			; Vector::Vector
	pop	edi
	pop	esi
	pop	ebx
	mov	esp, ebp
	pop	ebp
	ret	0
??__Eenv_dir@@YAXXZ ENDP				; `dynamic initializer for 'env_dir''
text$di	ENDS
; Function compile flags: /Odtp /ZI
; File d:\!diffusion 2020\source code 2022\client-server\client\render\r_cubemaps.cpp
;	COMDAT ?Mod_FreeCubemaps@@YAXXZ
_TEXT	SEGMENT
_i$1 = -4						; size = 4
?Mod_FreeCubemaps@@YAXXZ PROC				; Mod_FreeCubemaps, COMDAT

; 61   : {

	push	ebp
	mov	ebp, esp
	sub	esp, 68					; 00000044H
	push	ebx
	push	esi
	push	edi

; 62   : 	for( int i = 0; i < world->num_cubemaps; i++ )

	mov	DWORD PTR _i$1[ebp], 0
	jmp	SHORT $LN4@Mod_FreeCu
$LN2@Mod_FreeCu:
	mov	eax, DWORD PTR _i$1[ebp]
	add	eax, 1
	mov	DWORD PTR _i$1[ebp], eax
$LN4@Mod_FreeCu:
	mov	eax, DWORD PTR ?world@@3PAUgl_world_t@@A ; world
	mov	ecx, DWORD PTR _i$1[ebp]
	cmp	ecx, DWORD PTR [eax+114976]
	jge	SHORT $LN3@Mod_FreeCu

; 63   : 		Mod_FreeCubemap( &world->cubemaps[i] );

	imul	eax, DWORD PTR _i$1[ebp], 112
	mov	ecx, DWORD PTR ?world@@3PAUgl_world_t@@A ; world
	lea	edx, DWORD PTR [ecx+eax+176]
	push	edx
	call	?Mod_FreeCubemap@@YAXPAUmcubemap_s@@@Z	; Mod_FreeCubemap
	add	esp, 4
	jmp	SHORT $LN2@Mod_FreeCu
$LN3@Mod_FreeCu:

; 64   : 	Mod_FreeCubemap( &world->defaultCubemap );

	mov	eax, DWORD PTR ?world@@3PAUgl_world_t@@A ; world
	add	eax, 114864				; 0001c0b0H
	push	eax
	call	?Mod_FreeCubemap@@YAXPAUmcubemap_s@@@Z	; Mod_FreeCubemap
	add	esp, 4

; 65   : 
; 66   : 	world->rebuilding_cubemaps = CMREBUILD_INACTIVE;

	mov	eax, DWORD PTR ?world@@3PAUgl_world_t@@A ; world
	mov	DWORD PTR [eax+168], 0

; 67   : 	world->build_default_cubemap = false;

	mov	eax, DWORD PTR ?world@@3PAUgl_world_t@@A ; world
	mov	BYTE PTR [eax+165], 0

; 68   : 	world->loading_cubemaps = false;

	mov	eax, DWORD PTR ?world@@3PAUgl_world_t@@A ; world
	mov	BYTE PTR [eax+164], 0

; 69   : 	world->cubemap_build_number = 0;

	mov	eax, DWORD PTR ?world@@3PAUgl_world_t@@A ; world
	mov	DWORD PTR [eax+172], 0

; 70   : 	world->num_cubemaps = 0;

	mov	eax, DWORD PTR ?world@@3PAUgl_world_t@@A ; world
	mov	DWORD PTR [eax+114976], 0

; 71   : }

	pop	edi
	pop	esi
	pop	ebx
	mov	esp, ebp
	pop	ebp
	ret	0
?Mod_FreeCubemaps@@YAXXZ ENDP				; Mod_FreeCubemaps
_TEXT	ENDS
; Function compile flags: /Odtp /ZI
; File d:\!diffusion 2020\source code 2022\client-server\client\render\r_cubemaps.cpp
;	COMDAT ?Mod_LoadCubemaps@@YAXPBEPBUdlump_t@@@Z
_TEXT	SEGMENT
tv217 = -148						; size = 4
tv375 = -144						; size = 4
tv245 = -144						; size = 4
tv373 = -140						; size = 4
tv244 = -140						; size = 4
tv80 = -137						; size = 1
$T1 = -136						; size = 12
$T2 = -124						; size = 12
$T3 = -112						; size = 12
$T4 = -100						; size = 12
_cm$5 = -24						; size = 4
_cm$6 = -20						; size = 4
_count$ = -16						; size = 4
_i$ = -12						; size = 4
_out$ = -8						; size = 4
_in$ = -4						; size = 4
_base$ = 8						; size = 4
_l$ = 12						; size = 4
?Mod_LoadCubemaps@@YAXPBEPBUdlump_t@@@Z PROC		; Mod_LoadCubemaps, COMDAT

; 160  : {

	push	ebp
	mov	ebp, esp
	sub	esp, 148				; 00000094H
	push	ebx
	push	esi
	push	edi

; 161  : 	dcubemap_t *in;
; 162  : 	mcubemap_t *out;
; 163  : 	int	i, count;
; 164  : 
; 165  : 	in = (dcubemap_t *)(base + l->fileofs);

	mov	eax, DWORD PTR _l$[ebp]
	mov	ecx, DWORD PTR _base$[ebp]
	add	ecx, DWORD PTR [eax]
	mov	DWORD PTR _in$[ebp], ecx

; 166  : 	if( l->filelen % sizeof( *in ) )

	mov	eax, DWORD PTR _l$[ebp]
	mov	eax, DWORD PTR [eax+4]
	xor	edx, edx
	mov	ecx, 8
	div	ecx
	test	edx, edx
	je	SHORT $LN5@Mod_LoadCu

; 167  : 		HOST_ERROR( "Mod_LoadCubemaps: funny lump size\n" );

	push	OFFSET ??_C@_0CD@CJIPBMEE@Mod_LoadCubemaps?3?5funny?5lump?5siz@
	call	DWORD PTR ?gRenderfuncs@@3Urender_api_s@@A+236
	add	esp, 4
$LN5@Mod_LoadCu:

; 168  : 	count = l->filelen / sizeof( *in );

	mov	eax, DWORD PTR _l$[ebp]
	mov	ecx, DWORD PTR [eax+4]
	shr	ecx, 3
	mov	DWORD PTR _count$[ebp], ecx

; 169  : 
; 170  : 	if( count >= MAX_MAP_CUBEMAPS )

	cmp	DWORD PTR _count$[ebp], 1024		; 00000400H
	jl	SHORT $LN6@Mod_LoadCu

; 171  : 	{
; 172  : 		ALERT( at_error, "Mod_LoadCubemaps: map contain too many cubemaps. Will handle only first %i items\n", MAX_MAP_CUBEMAPS );

	push	1024					; 00000400H
	push	OFFSET ??_C@_0FC@BMKHBIFE@Mod_LoadCubemaps?3?5map?5contain?5to@
	push	4
	call	?ALERT@@YAXW4ALERT_TYPE@@PADZZ		; ALERT
	add	esp, 12					; 0000000cH

; 173  : 		count = MAX_MAP_CUBEMAPS;

	mov	DWORD PTR _count$[ebp], 1024		; 00000400H
$LN6@Mod_LoadCu:

; 174  : 	}
; 175  : 
; 176  : 	out = world->cubemaps;

	mov	eax, DWORD PTR ?world@@3PAUgl_world_t@@A ; world
	add	eax, 176				; 000000b0H
	mov	DWORD PTR _out$[ebp], eax

; 177  : 	world->num_cubemaps = count;

	mov	eax, DWORD PTR ?world@@3PAUgl_world_t@@A ; world
	mov	ecx, DWORD PTR _count$[ebp]
	mov	DWORD PTR [eax+114976], ecx

; 178  : 	world->loading_cubemaps = (count > 0) ? true : false;

	cmp	DWORD PTR _count$[ebp], 0
	jle	SHORT $LN14@Mod_LoadCu
	mov	BYTE PTR tv80[ebp], 1
	jmp	SHORT $LN15@Mod_LoadCu
$LN14@Mod_LoadCu:
	mov	BYTE PTR tv80[ebp], 0
$LN15@Mod_LoadCu:
	mov	eax, DWORD PTR ?world@@3PAUgl_world_t@@A ; world
	mov	cl, BYTE PTR tv80[ebp]
	mov	BYTE PTR [eax+164], cl

; 179  : 
; 180  : 	// makes an default cubemap from skybox
; 181  : 	if( FBitSet( world->features, WORLD_HAS_SKYBOX ) && (count > 0) )

	mov	eax, DWORD PTR ?world@@3PAUgl_world_t@@A ; world
	movzx	ecx, WORD PTR [eax+64]
	and	ecx, 64					; 00000040H
	je	$LN7@Mod_LoadCu
	cmp	DWORD PTR _count$[ebp], 0
	jle	$LN7@Mod_LoadCu

; 182  : 	{
; 183  : 		mcubemap_t *cm = &world->defaultCubemap;

	mov	eax, DWORD PTR ?world@@3PAUgl_world_t@@A ; world
	add	eax, 114864				; 0001c0b0H
	mov	DWORD PTR _cm$6[ebp], eax

; 184  : 		Q_snprintf( cm->name, sizeof( cm->name ), "maps/env/%s/default", world->name );

	mov	eax, DWORD PTR ?world@@3PAUgl_world_t@@A ; world
	push	eax
	push	OFFSET ??_C@_0BE@OCJLKCJC@maps?1env?1?$CFs?1default?$AA@
	push	64					; 00000040H
	mov	ecx, DWORD PTR _cm$6[ebp]
	push	ecx
	call	?Q_snprintf@@YAHPADIPBDZZ		; Q_snprintf
	add	esp, 16					; 00000010H

; 185  : 		cm->origin = (worldmodel->mins + worldmodel->maxs) * 0.5f;

	push	ecx
	movss	xmm0, DWORD PTR __real@3f000000
	movss	DWORD PTR [esp], xmm0
	lea	eax, DWORD PTR $T3[ebp]
	push	eax
	mov	ecx, DWORD PTR ?worldmodel@@3PAUmodel_s@@A ; worldmodel
	add	ecx, 96					; 00000060H
	push	ecx
	lea	edx, DWORD PTR $T4[ebp]
	push	edx
	mov	ecx, DWORD PTR ?worldmodel@@3PAUmodel_s@@A ; worldmodel
	add	ecx, 84					; 00000054H
	call	??HVector@@QBE?AV0@ABV0@@Z		; Vector::operator+
	mov	ecx, eax
	call	??DVector@@QBE?AV0@M@Z			; Vector::operator*
	mov	ecx, DWORD PTR _cm$6[ebp]
	add	ecx, 96					; 00000060H
	mov	edx, DWORD PTR [eax]
	mov	DWORD PTR [ecx], edx
	mov	edx, DWORD PTR [eax+4]
	mov	DWORD PTR [ecx+4], edx
	mov	eax, DWORD PTR [eax+8]
	mov	DWORD PTR [ecx+8], eax

; 186  : 		cm->size = 256; // default cubemap larger than others

	mov	eax, 256				; 00000100H
	mov	ecx, DWORD PTR _cm$6[ebp]
	mov	WORD PTR [ecx+108], ax

; 187  : 		cm->valid = Mod_CheckCubemap( "default" ); // need for rebuild?

	push	OFFSET ??_C@_07DLHCIBDH@default?$AA@
	call	?Mod_CheckCubemap@@YA_NPBD@Z		; Mod_CheckCubemap
	add	esp, 4
	mov	ecx, DWORD PTR _cm$6[ebp]
	mov	BYTE PTR [ecx+92], al

; 188  : 		world->loading_cubemaps = true;

	mov	eax, DWORD PTR ?world@@3PAUgl_world_t@@A ; world
	mov	BYTE PTR [eax+164], 1

; 189  : 
; 190  : 		if( !cm->valid )

	mov	eax, DWORD PTR _cm$6[ebp]
	movzx	ecx, BYTE PTR [eax+92]
	test	ecx, ecx
	jne	SHORT $LN9@Mod_LoadCu

; 191  : 		{
; 192  : 			world->rebuilding_cubemaps = CMREBUILD_CHECKING;

	mov	eax, DWORD PTR ?world@@3PAUgl_world_t@@A ; world
	mov	DWORD PTR [eax+168], 1

; 193  : 			world->build_default_cubemap = true;

	mov	eax, DWORD PTR ?world@@3PAUgl_world_t@@A ; world
	mov	BYTE PTR [eax+165], 1
$LN9@Mod_LoadCu:

; 194  : 		}
; 195  : 	}
; 196  : 	else

	jmp	$LN8@Mod_LoadCu
$LN7@Mod_LoadCu:

; 197  : 	{
; 198  : 		// using stub as default cubemap
; 199  : 		mcubemap_t *cm = &world->defaultCubemap;

	mov	eax, DWORD PTR ?world@@3PAUgl_world_t@@A ; world
	add	eax, 114864				; 0001c0b0H
	mov	DWORD PTR _cm$5[ebp], eax

; 200  : 		Q_snprintf( cm->name, sizeof( cm->name ), "*whiteCube" );

	push	OFFSET ??_C@_0L@JMLEAHMH@?$CKwhiteCube?$AA@
	push	64					; 00000040H
	mov	eax, DWORD PTR _cm$5[ebp]
	push	eax
	call	?Q_snprintf@@YAHPADIPBDZZ		; Q_snprintf
	add	esp, 12					; 0000000cH

; 201  : 		cm->origin = (worldmodel->mins + worldmodel->maxs) * 0.5f;

	push	ecx
	movss	xmm0, DWORD PTR __real@3f000000
	movss	DWORD PTR [esp], xmm0
	lea	eax, DWORD PTR $T1[ebp]
	push	eax
	mov	ecx, DWORD PTR ?worldmodel@@3PAUmodel_s@@A ; worldmodel
	add	ecx, 96					; 00000060H
	push	ecx
	lea	edx, DWORD PTR $T2[ebp]
	push	edx
	mov	ecx, DWORD PTR ?worldmodel@@3PAUmodel_s@@A ; worldmodel
	add	ecx, 84					; 00000054H
	call	??HVector@@QBE?AV0@ABV0@@Z		; Vector::operator+
	mov	ecx, eax
	call	??DVector@@QBE?AV0@M@Z			; Vector::operator*
	mov	ecx, DWORD PTR _cm$5[ebp]
	add	ecx, 96					; 00000060H
	mov	edx, DWORD PTR [eax]
	mov	DWORD PTR [ecx], edx
	mov	edx, DWORD PTR [eax+4]
	mov	DWORD PTR [ecx+4], edx
	mov	eax, DWORD PTR [eax+8]
	mov	DWORD PTR [ecx+8], eax

; 202  : 		cm->texture = tr.whiteCubeTexture;

	mov	eax, DWORD PTR _cm$5[ebp]
	mov	ecx, DWORD PTR ?tr@@3Uref_globals_t@@A+5724
	mov	DWORD PTR [eax+64], ecx

; 203  : 		cm->valid = true;

	mov	eax, DWORD PTR _cm$5[ebp]
	mov	BYTE PTR [eax+92], 1

; 204  : 		cm->size = 4;

	mov	eax, 4
	mov	ecx, DWORD PTR _cm$5[ebp]
	mov	WORD PTR [ecx+108], ax
$LN8@Mod_LoadCu:

; 205  : 	}
; 206  : 
; 207  : 	for( i = 0; i < count; i++, in++, out++ )

	mov	DWORD PTR _i$[ebp], 0
	jmp	SHORT $LN4@Mod_LoadCu
$LN2@Mod_LoadCu:
	mov	eax, DWORD PTR _i$[ebp]
	add	eax, 1
	mov	DWORD PTR _i$[ebp], eax
	mov	ecx, DWORD PTR _in$[ebp]
	add	ecx, 8
	mov	DWORD PTR _in$[ebp], ecx
	mov	edx, DWORD PTR _out$[ebp]
	add	edx, 112				; 00000070H
	mov	DWORD PTR _out$[ebp], edx
$LN4@Mod_LoadCu:
	mov	eax, DWORD PTR _i$[ebp]
	cmp	eax, DWORD PTR _count$[ebp]
	jge	$LN3@Mod_LoadCu

; 208  : 	{
; 209  : 		// build a cubemap name like enum
; 210  : 		Q_snprintf( out->name, sizeof( out->name ), "maps/env/%s/cube#%i", world->name, i );

	mov	eax, DWORD PTR _i$[ebp]
	push	eax
	mov	ecx, DWORD PTR ?world@@3PAUgl_world_t@@A ; world
	push	ecx
	push	OFFSET ??_C@_0BE@IPNAFJLO@maps?1env?1?$CFs?1cube?$CD?$CFi?$AA@
	push	64					; 00000040H
	mov	edx, DWORD PTR _out$[ebp]
	push	edx
	call	?Q_snprintf@@YAHPADIPBDZZ		; Q_snprintf
	add	esp, 20					; 00000014H

; 211  : 		out->valid = Mod_CheckCubemap( va( "cube#%i", i ) ); // need for rebuild?

	mov	eax, DWORD PTR _i$[ebp]
	push	eax
	push	OFFSET ??_C@_07FGDJHKBL@cube?$CD?$CFi?$AA@
	call	?va@@YAPADPBDZZ				; va
	add	esp, 8
	push	eax
	call	?Mod_CheckCubemap@@YA_NPBD@Z		; Mod_CheckCubemap
	add	esp, 4
	mov	ecx, DWORD PTR _out$[ebp]
	mov	BYTE PTR [ecx+92], al

; 212  : 		if( !out->valid ) world->rebuilding_cubemaps = CMREBUILD_CHECKING;

	mov	eax, DWORD PTR _out$[ebp]
	movzx	ecx, BYTE PTR [eax+92]
	test	ecx, ecx
	jne	SHORT $LN10@Mod_LoadCu
	mov	eax, DWORD PTR ?world@@3PAUgl_world_t@@A ; world
	mov	DWORD PTR [eax+168], 1
$LN10@Mod_LoadCu:

; 213  : 		VectorCopy( in->origin, out->origin );

	mov	eax, 2
	imul	ecx, eax, 0
	mov	edx, DWORD PTR _in$[ebp]
	movsx	eax, WORD PTR [edx+ecx]
	cvtsi2ss xmm0, eax
	mov	ecx, DWORD PTR _out$[ebp]
	add	ecx, 96					; 00000060H
	movss	DWORD PTR tv373[ebp], xmm0
	call	??BVector@@QAEPAMXZ			; Vector::operator float *
	mov	ecx, 4
	imul	edx, ecx, 0
	movss	xmm0, DWORD PTR tv373[ebp]
	movss	DWORD PTR [eax+edx], xmm0
	mov	eax, 2
	shl	eax, 0
	mov	ecx, DWORD PTR _in$[ebp]
	movsx	edx, WORD PTR [ecx+eax]
	cvtsi2ss xmm0, edx
	mov	ecx, DWORD PTR _out$[ebp]
	add	ecx, 96					; 00000060H
	movss	DWORD PTR tv375[ebp], xmm0
	call	??BVector@@QAEPAMXZ			; Vector::operator float *
	mov	ecx, 4
	shl	ecx, 0
	movss	xmm0, DWORD PTR tv375[ebp]
	movss	DWORD PTR [eax+ecx], xmm0
	mov	edx, 2
	shl	edx, 1
	mov	eax, DWORD PTR _in$[ebp]
	movsx	ecx, WORD PTR [eax+edx]
	cvtsi2ss xmm0, ecx
	movss	DWORD PTR tv217[ebp], xmm0
	mov	ecx, DWORD PTR _out$[ebp]
	add	ecx, 96					; 00000060H
	call	??BVector@@QAEPAMXZ			; Vector::operator float *
	mov	edx, 4
	shl	edx, 1
	movss	xmm0, DWORD PTR tv217[ebp]
	movss	DWORD PTR [eax+edx], xmm0

; 214  : 		ClearBounds( out->mins, out->maxs );

	mov	eax, DWORD PTR _out$[ebp]
	add	eax, 80					; 00000050H
	push	eax
	mov	ecx, DWORD PTR _out$[ebp]
	add	ecx, 68					; 00000044H
	push	ecx
	call	?ClearBounds@@YAXAAVVector@@0@Z		; ClearBounds
	add	esp, 8

; 215  : 		out->size = in->size;

	mov	eax, DWORD PTR _out$[ebp]
	mov	ecx, DWORD PTR _in$[ebp]
	mov	dx, WORD PTR [ecx+6]
	mov	WORD PTR [eax+108], dx

; 216  : 
; 217  : 		if( out->size <= 0 )

	mov	eax, DWORD PTR _out$[ebp]
	movsx	ecx, WORD PTR [eax+108]
	test	ecx, ecx
	jg	SHORT $LN11@Mod_LoadCu

; 218  : 			out->size = DEFAULT_CUBEMAP_SIZE;

	mov	eax, 32					; 00000020H
	mov	ecx, DWORD PTR _out$[ebp]
	mov	WORD PTR [ecx+108], ax
$LN11@Mod_LoadCu:

; 219  : 		out->size = NearestPOW( out->size, false );

	push	0
	mov	eax, DWORD PTR _out$[ebp]
	movsx	ecx, WORD PTR [eax+108]
	push	ecx
	call	?NearestPOW@@YAHH_N@Z			; NearestPOW
	add	esp, 8
	mov	edx, DWORD PTR _out$[ebp]
	mov	WORD PTR [edx+108], ax

; 220  : 		out->size = bound( 1, out->size, 512 );

	mov	eax, DWORD PTR _out$[ebp]
	movsx	ecx, WORD PTR [eax+108]
	cmp	ecx, 1
	jl	SHORT $LN18@Mod_LoadCu
	mov	edx, DWORD PTR _out$[ebp]
	movsx	eax, WORD PTR [edx+108]
	cmp	eax, 512				; 00000200H
	jge	SHORT $LN16@Mod_LoadCu
	mov	ecx, DWORD PTR _out$[ebp]
	movsx	edx, WORD PTR [ecx+108]
	mov	DWORD PTR tv244[ebp], edx
	jmp	SHORT $LN17@Mod_LoadCu
$LN16@Mod_LoadCu:
	mov	DWORD PTR tv244[ebp], 512		; 00000200H
$LN17@Mod_LoadCu:
	mov	eax, DWORD PTR tv244[ebp]
	mov	DWORD PTR tv245[ebp], eax
	jmp	SHORT $LN19@Mod_LoadCu
$LN18@Mod_LoadCu:
	mov	DWORD PTR tv245[ebp], 1
$LN19@Mod_LoadCu:
	mov	ecx, DWORD PTR _out$[ebp]
	mov	dx, WORD PTR tv245[ebp]
	mov	WORD PTR [ecx+108], dx

; 221  : 	}

	jmp	$LN2@Mod_LoadCu
$LN3@Mod_LoadCu:

; 222  : 
; 223  : 	// user request for disable autorebuild
; 224  : 	if( 1 )//gEngfuncs.CheckParm( "-noautorebuildcubemaps", NULL ) )

	mov	eax, 1
	test	eax, eax
	je	SHORT $LN12@Mod_LoadCu

; 225  : 	{
; 226  : 		world->rebuilding_cubemaps = CMREBUILD_INACTIVE;

	mov	eax, DWORD PTR ?world@@3PAUgl_world_t@@A ; world
	mov	DWORD PTR [eax+168], 0

; 227  : 		world->build_default_cubemap = false;

	mov	eax, DWORD PTR ?world@@3PAUgl_world_t@@A ; world
	mov	BYTE PTR [eax+165], 0
$LN12@Mod_LoadCu:

; 228  : 	}
; 229  : }

	pop	edi
	pop	esi
	pop	ebx
	mov	esp, ebp
	pop	ebp
	ret	0
?Mod_LoadCubemaps@@YAXPBEPBUdlump_t@@@Z ENDP		; Mod_LoadCubemaps
_TEXT	ENDS
; Function compile flags: /Odtp /ZI
; File d:\!diffusion 2020\source code 2022\client-server\client\render\r_cubemaps.cpp
;	COMDAT ?GL_LoadAndRebuildCubemaps@@YAXH@Z
_TEXT	SEGMENT
$T1 = -252						; size = 12
$T2 = -240						; size = 12
$T3 = -228						; size = 12
$T4 = -216						; size = 12
$T5 = -204						; size = 12
_dist1$6 = -128						; size = 4
_dist0$7 = -124						; size = 4
_es$8 = -120						; size = 4
_surf$9 = -116						; size = 4
_pmtrace$10 = -112					; size = 68
_vecEnd$11 = -44					; size = 12
_vecStart$12 = -32					; size = 12
_cm$13 = -20						; size = 4
_j$14 = -16						; size = 4
_i$15 = -12						; size = 4
_cm$16 = -8						; size = 4
_cm$17 = -4						; size = 4
_refParams$ = 8						; size = 4
?GL_LoadAndRebuildCubemaps@@YAXH@Z PROC			; GL_LoadAndRebuildCubemaps, COMDAT

; 451  : {

	push	ebp
	mov	ebp, esp
	sub	esp, 252				; 000000fcH
	push	ebx
	push	esi
	push	edi

; 452  : 	if( !world->loading_cubemaps && world->rebuilding_cubemaps == CMREBUILD_INACTIVE )

	mov	eax, DWORD PTR ?world@@3PAUgl_world_t@@A ; world
	movzx	ecx, BYTE PTR [eax+164]
	test	ecx, ecx
	jne	SHORT $LN14@GL_LoadAnd
	mov	eax, DWORD PTR ?world@@3PAUgl_world_t@@A ; world
	cmp	DWORD PTR [eax+168], 0
	jne	SHORT $LN14@GL_LoadAnd

; 453  : 		return; // job is done

	jmp	$LN1@GL_LoadAnd
$LN14@GL_LoadAnd:

; 454  : 
; 455  : 	// we are in cubemap-rendering mode
; 456  : 	if( FBitSet( refParams, RP_ENVVIEW ) )

	mov	eax, DWORD PTR _refParams$[ebp]
	and	eax, 2
	je	SHORT $LN15@GL_LoadAnd

; 457  : 		return;

	jmp	$LN1@GL_LoadAnd
$LN15@GL_LoadAnd:

; 458  : 
; 459  : 	if( world->rebuilding_cubemaps != CMREBUILD_INACTIVE )

	mov	eax, DWORD PTR ?world@@3PAUgl_world_t@@A ; world
	cmp	DWORD PTR [eax+168], 0
	je	$LN16@GL_LoadAnd

; 460  : 	{
; 461  : 		if( world->build_default_cubemap )

	mov	eax, DWORD PTR ?world@@3PAUgl_world_t@@A ; world
	movzx	ecx, BYTE PTR [eax+165]
	test	ecx, ecx
	je	$LN20@GL_LoadAnd

; 462  : 		{
; 463  : 			mcubemap_t *cm = &world->defaultCubemap;

	mov	eax, DWORD PTR ?world@@3PAUgl_world_t@@A ; world
	add	eax, 114864				; 0001c0b0H
	mov	DWORD PTR _cm$17[ebp], eax

; 464  : 
; 465  : 			if( world->rebuilding_cubemaps == CMREBUILD_WAITING )

	mov	eax, DWORD PTR ?world@@3PAUgl_world_t@@A ; world
	cmp	DWORD PTR [eax+168], 2
	jne	SHORT $LN18@GL_LoadAnd

; 466  : 			{
; 467  : 				cm->valid = Mod_CheckCubemap( "default" ); // need for rebuild?

	push	OFFSET ??_C@_07DLHCIBDH@default?$AA@
	call	?Mod_CheckCubemap@@YA_NPBD@Z		; Mod_CheckCubemap
	add	esp, 4
	mov	ecx, DWORD PTR _cm$17[ebp]
	mov	BYTE PTR [ecx+92], al

; 468  : 				world->rebuilding_cubemaps = CMREBUILD_CHECKING;

	mov	eax, DWORD PTR ?world@@3PAUgl_world_t@@A ; world
	mov	DWORD PTR [eax+168], 1

; 469  : 
; 470  : 				if( !cm->valid )

	mov	eax, DWORD PTR _cm$17[ebp]
	movzx	ecx, BYTE PTR [eax+92]
	test	ecx, ecx
	jne	SHORT $LN19@GL_LoadAnd

; 471  : 					ALERT( at_error, "GL_RebuildCubemaps: can't build default cubemap\n" );

	push	OFFSET ??_C@_0DB@MPNBFOG@GL_RebuildCubemaps?3?5can?8t?5build?5@
	push	4
	call	?ALERT@@YAXW4ALERT_TYPE@@PADZZ		; ALERT
	add	esp, 8
$LN19@GL_LoadAnd:

; 472  : 				world->build_default_cubemap = false; // done

	mov	eax, DWORD PTR ?world@@3PAUgl_world_t@@A ; world
	mov	BYTE PTR [eax+165], 0
$LN18@GL_LoadAnd:

; 473  : 			}
; 474  : 
; 475  : 			if( world->build_default_cubemap )

	mov	eax, DWORD PTR ?world@@3PAUgl_world_t@@A ; world
	movzx	ecx, BYTE PTR [eax+165]
	test	ecx, ecx
	je	SHORT $LN20@GL_LoadAnd

; 476  : 			{
; 477  : 				Mod_DeleteCubemap( "default" );

	push	OFFSET ??_C@_07DLHCIBDH@default?$AA@
	call	?Mod_DeleteCubemap@@YAXPBD@Z		; Mod_DeleteCubemap
	add	esp, 4

; 478  : 
; 479  : 				// NOTE: engine function EnvShot not makes shots immediately
; 480  : 				// but create a queue. So we will wait for a next frame
; 481  : 				ENV_SHOT( cm->origin, va( "%s.tga", cm->name ), false, cm->size );

	mov	eax, DWORD PTR _cm$17[ebp]
	movsx	ecx, WORD PTR [eax+108]
	push	ecx
	push	0
	mov	edx, DWORD PTR _cm$17[ebp]
	push	edx
	push	OFFSET ??_C@_06NJHCGIDI@?$CFs?4tga?$AA@
	call	?va@@YAPADPBDZZ				; va
	add	esp, 8
	push	eax
	mov	ecx, DWORD PTR _cm$17[ebp]
	add	ecx, 96					; 00000060H
	call	??BVector@@QAEPAMXZ			; Vector::operator float *
	push	eax
	call	DWORD PTR ?gRenderfuncs@@3Urender_api_s@@A+184
	add	esp, 16					; 00000010H

; 482  : 				world->rebuilding_cubemaps = CMREBUILD_WAITING;

	mov	eax, DWORD PTR ?world@@3PAUgl_world_t@@A ; world
	mov	DWORD PTR [eax+168], 2

; 483  : 				return;

	jmp	$LN1@GL_LoadAnd
$LN20@GL_LoadAnd:

; 484  : 			}
; 485  : 		}
; 486  : 
; 487  : 		for( ; world->cubemap_build_number < world->num_cubemaps; world->cubemap_build_number++ )

	jmp	SHORT $LN4@GL_LoadAnd
$LN2@GL_LoadAnd:
	mov	eax, DWORD PTR ?world@@3PAUgl_world_t@@A ; world
	mov	ecx, DWORD PTR [eax+172]
	add	ecx, 1
	mov	edx, DWORD PTR ?world@@3PAUgl_world_t@@A ; world
	mov	DWORD PTR [edx+172], ecx
$LN4@GL_LoadAnd:
	mov	eax, DWORD PTR ?world@@3PAUgl_world_t@@A ; world
	mov	ecx, DWORD PTR ?world@@3PAUgl_world_t@@A ; world
	mov	edx, DWORD PTR [eax+172]
	cmp	edx, DWORD PTR [ecx+114976]
	jge	$LN3@GL_LoadAnd

; 488  : 		{
; 489  : 			mcubemap_t *cm = &world->cubemaps[world->cubemap_build_number];

	mov	eax, DWORD PTR ?world@@3PAUgl_world_t@@A ; world
	imul	ecx, DWORD PTR [eax+172], 112
	mov	edx, DWORD PTR ?world@@3PAUgl_world_t@@A ; world
	lea	eax, DWORD PTR [edx+ecx+176]
	mov	DWORD PTR _cm$16[ebp], eax

; 490  : 
; 491  : 			if( world->rebuilding_cubemaps == CMREBUILD_WAITING )

	mov	eax, DWORD PTR ?world@@3PAUgl_world_t@@A ; world
	cmp	DWORD PTR [eax+168], 2
	jne	SHORT $LN22@GL_LoadAnd

; 492  : 			{
; 493  : 				cm->valid = Mod_CheckCubemap( va( "cube#%i", world->cubemap_build_number ) ); // need for rebuild?

	mov	eax, DWORD PTR ?world@@3PAUgl_world_t@@A ; world
	mov	ecx, DWORD PTR [eax+172]
	push	ecx
	push	OFFSET ??_C@_07FGDJHKBL@cube?$CD?$CFi?$AA@
	call	?va@@YAPADPBDZZ				; va
	add	esp, 8
	push	eax
	call	?Mod_CheckCubemap@@YA_NPBD@Z		; Mod_CheckCubemap
	add	esp, 4
	mov	edx, DWORD PTR _cm$16[ebp]
	mov	BYTE PTR [edx+92], al

; 494  : 				world->rebuilding_cubemaps = CMREBUILD_CHECKING;

	mov	eax, DWORD PTR ?world@@3PAUgl_world_t@@A ; world
	mov	DWORD PTR [eax+168], 1

; 495  : 
; 496  : 				if( !cm->valid )

	mov	eax, DWORD PTR _cm$16[ebp]
	movzx	ecx, BYTE PTR [eax+92]
	test	ecx, ecx
	jne	SHORT $LN22@GL_LoadAnd

; 497  : 				{
; 498  : 					ALERT( at_error, "GL_RebuildCubemaps: can't build cube#%i\n", world->cubemap_build_number );

	mov	eax, DWORD PTR ?world@@3PAUgl_world_t@@A ; world
	mov	ecx, DWORD PTR [eax+172]
	push	ecx
	push	OFFSET ??_C@_0CJ@MEPBLGCK@GL_RebuildCubemaps?3?5can?8t?5build?5@
	push	4
	call	?ALERT@@YAXW4ALERT_TYPE@@PADZZ		; ALERT
	add	esp, 12					; 0000000cH

; 499  : 					continue; // to avoid infinity cycle

	jmp	$LN2@GL_LoadAnd
$LN22@GL_LoadAnd:

; 500  : 				}
; 501  : 			}
; 502  : 
; 503  : 			if( cm->valid ) continue; // it's valid cubemap

	mov	eax, DWORD PTR _cm$16[ebp]
	movzx	ecx, BYTE PTR [eax+92]
	test	ecx, ecx
	je	SHORT $LN23@GL_LoadAnd
	jmp	$LN2@GL_LoadAnd
$LN23@GL_LoadAnd:

; 504  : 
; 505  : 			Mod_DeleteCubemap( va( "cube#%i", world->cubemap_build_number ) );

	mov	eax, DWORD PTR ?world@@3PAUgl_world_t@@A ; world
	mov	ecx, DWORD PTR [eax+172]
	push	ecx
	push	OFFSET ??_C@_07FGDJHKBL@cube?$CD?$CFi?$AA@
	call	?va@@YAPADPBDZZ				; va
	add	esp, 8
	push	eax
	call	?Mod_DeleteCubemap@@YAXPBD@Z		; Mod_DeleteCubemap
	add	esp, 4

; 506  : 
; 507  : 			// NOTE: engine function EnvShot not makes shots immediately
; 508  : 			// but create a queue. So we will wait for a next frame
; 509  : 			ENV_SHOT( cm->origin, va( "%s.tga", cm->name ), false, cm->size );

	mov	eax, DWORD PTR _cm$16[ebp]
	movsx	ecx, WORD PTR [eax+108]
	push	ecx
	push	0
	mov	edx, DWORD PTR _cm$16[ebp]
	push	edx
	push	OFFSET ??_C@_06NJHCGIDI@?$CFs?4tga?$AA@
	call	?va@@YAPADPBDZZ				; va
	add	esp, 8
	push	eax
	mov	ecx, DWORD PTR _cm$16[ebp]
	add	ecx, 96					; 00000060H
	call	??BVector@@QAEPAMXZ			; Vector::operator float *
	push	eax
	call	DWORD PTR ?gRenderfuncs@@3Urender_api_s@@A+184
	add	esp, 16					; 00000010H

; 510  : 			world->rebuilding_cubemaps = CMREBUILD_WAITING;

	mov	eax, DWORD PTR ?world@@3PAUgl_world_t@@A ; world
	mov	DWORD PTR [eax+168], 2

; 511  : 			return;

	jmp	$LN1@GL_LoadAnd

; 512  : 		}

	jmp	$LN2@GL_LoadAnd
$LN3@GL_LoadAnd:

; 513  : 
; 514  : 		// we reached the end of list
; 515  : 		// next frame will be restored gamma
; 516  : 		SetBits( vid_brightness->flags, FCVAR_CHANGED );

	mov	eax, DWORD PTR ?vid_brightness@@3PAUcvar_s@@A ; vid_brightness
	mov	ecx, DWORD PTR [eax+8]
	or	ecx, 8192				; 00002000H
	mov	edx, DWORD PTR ?vid_brightness@@3PAUcvar_s@@A ; vid_brightness
	mov	DWORD PTR [edx+8], ecx

; 517  : 		SetBits( vid_gamma->flags, FCVAR_CHANGED );

	mov	eax, DWORD PTR ?vid_gamma@@3PAUcvar_s@@A ; vid_gamma
	mov	ecx, DWORD PTR [eax+8]
	or	ecx, 8192				; 00002000H
	mov	edx, DWORD PTR ?vid_gamma@@3PAUcvar_s@@A ; vid_gamma
	mov	DWORD PTR [edx+8], ecx

; 518  : 		world->rebuilding_cubemaps = CMREBUILD_INACTIVE;

	mov	eax, DWORD PTR ?world@@3PAUgl_world_t@@A ; world
	mov	DWORD PTR [eax+168], 0

; 519  : 		world->cubemap_build_number = 0;

	mov	eax, DWORD PTR ?world@@3PAUgl_world_t@@A ; world
	mov	DWORD PTR [eax+172], 0

; 520  : 		tr.params_changed = true;

	mov	BYTE PTR ?tr@@3Uref_globals_t@@A+5830932, 1

; 521  : 		tr.glsl_valid_sequence++;

	mov	eax, DWORD PTR ?tr@@3Uref_globals_t@@A+5830936
	add	eax, 1
	mov	DWORD PTR ?tr@@3Uref_globals_t@@A+5830936, eax

; 522  : 		tr.fClearScreen = false;

	mov	BYTE PTR ?tr@@3Uref_globals_t@@A+2, 0
$LN16@GL_LoadAnd:

; 523  : 	}
; 524  : 
; 525  : 	// now all the cubemaps are recreated, so we can starts to upload them
; 526  : 	if( world->loading_cubemaps )

	mov	eax, DWORD PTR ?world@@3PAUgl_world_t@@A ; world
	movzx	ecx, BYTE PTR [eax+164]
	test	ecx, ecx
	je	$LN24@GL_LoadAnd

; 527  : 	{
; 528  : 		Mod_LoadCubemap( &world->defaultCubemap );

	mov	eax, DWORD PTR ?world@@3PAUgl_world_t@@A ; world
	add	eax, 114864				; 0001c0b0H
	push	eax
	call	?Mod_LoadCubemap@@YA_NPAUmcubemap_s@@@Z	; Mod_LoadCubemap
	add	esp, 4

; 529  : 		int i, j;
; 530  : 		for( i = 0; i < world->num_cubemaps; i++ )

	mov	DWORD PTR _i$15[ebp], 0
	jmp	SHORT $LN7@GL_LoadAnd
$LN5@GL_LoadAnd:
	mov	eax, DWORD PTR _i$15[ebp]
	add	eax, 1
	mov	DWORD PTR _i$15[ebp], eax
$LN7@GL_LoadAnd:
	mov	eax, DWORD PTR ?world@@3PAUgl_world_t@@A ; world
	mov	ecx, DWORD PTR _i$15[ebp]
	cmp	ecx, DWORD PTR [eax+114976]
	jge	$LN6@GL_LoadAnd

; 531  : 		{
; 532  : 			mcubemap_t *cm = &world->cubemaps[i];

	imul	eax, DWORD PTR _i$15[ebp], 112
	mov	ecx, DWORD PTR ?world@@3PAUgl_world_t@@A ; world
	lea	edx, DWORD PTR [ecx+eax+176]
	mov	DWORD PTR _cm$13[ebp], edx

; 533  : 			Vector vecStart, vecEnd;

	lea	ecx, DWORD PTR _vecStart$12[ebp]
	call	??0Vector@@QAE@XZ			; Vector::Vector
	lea	ecx, DWORD PTR _vecEnd$11[ebp]
	call	??0Vector@@QAE@XZ			; Vector::Vector

; 534  : 			pmtrace_t pmtrace;

	lea	ecx, DWORD PTR _pmtrace$10[ebp]
	call	??0pmtrace_s@@QAE@XZ

; 535  : 
; 536  : 			Mod_LoadCubemap( cm );

	mov	eax, DWORD PTR _cm$13[ebp]
	push	eax
	call	?Mod_LoadCubemap@@YA_NPAUmcubemap_s@@@Z	; Mod_LoadCubemap
	add	esp, 4

; 537  : 			
; 538  : 			// compute viewbox size
; 539  : 			for( j = 0; j < 6; j++ )

	mov	DWORD PTR _j$14[ebp], 0
	jmp	SHORT $LN10@GL_LoadAnd
$LN8@GL_LoadAnd:
	mov	eax, DWORD PTR _j$14[ebp]
	add	eax, 1
	mov	DWORD PTR _j$14[ebp], eax
$LN10@GL_LoadAnd:
	cmp	DWORD PTR _j$14[ebp], 6
	jge	$LN9@GL_LoadAnd

; 540  : 			{
; 541  : 				vecStart = cm->origin;

	mov	eax, DWORD PTR _cm$13[ebp]
	add	eax, 96					; 00000060H
	mov	ecx, DWORD PTR [eax]
	mov	DWORD PTR _vecStart$12[ebp], ecx
	mov	edx, DWORD PTR [eax+4]
	mov	DWORD PTR _vecStart$12[ebp+4], edx
	mov	eax, DWORD PTR [eax+8]
	mov	DWORD PTR _vecStart$12[ebp+8], eax

; 542  : 				vecEnd = vecStart + env_dir[j] * 4096.0f;

	push	ecx
	movss	xmm0, DWORD PTR __real@45800000
	movss	DWORD PTR [esp], xmm0
	lea	eax, DWORD PTR $T5[ebp]
	push	eax
	imul	ecx, DWORD PTR _j$14[ebp], 12
	add	ecx, OFFSET ?env_dir@@3PAVVector@@A
	call	??DVector@@QBE?AV0@M@Z			; Vector::operator*
	push	eax
	lea	ecx, DWORD PTR $T4[ebp]
	push	ecx
	lea	ecx, DWORD PTR _vecStart$12[ebp]
	call	??HVector@@QBE?AV0@ABV0@@Z		; Vector::operator+
	mov	edx, DWORD PTR [eax]
	mov	DWORD PTR _vecEnd$11[ebp], edx
	mov	ecx, DWORD PTR [eax+4]
	mov	DWORD PTR _vecEnd$11[ebp+4], ecx
	mov	edx, DWORD PTR [eax+8]
	mov	DWORD PTR _vecEnd$11[ebp+8], edx

; 543  : 				gEngfuncs.pEventAPI->EV_SetTraceHull( 2 );

	push	2
	mov	eax, DWORD PTR ?gEngfuncs@@3Ucl_enginefuncs_s@@A+336
	mov	ecx, DWORD PTR [eax+56]
	call	ecx
	add	esp, 4

; 544  : 				gEngfuncs.pEventAPI->EV_PlayerTrace( vecStart, vecStart + vecEnd, PM_WORLD_ONLY, -1, &pmtrace );

	lea	eax, DWORD PTR _pmtrace$10[ebp]
	push	eax
	push	-1
	push	8
	lea	ecx, DWORD PTR _vecEnd$11[ebp]
	push	ecx
	lea	edx, DWORD PTR $T3[ebp]
	push	edx
	lea	ecx, DWORD PTR _vecStart$12[ebp]
	call	??HVector@@QBE?AV0@ABV0@@Z		; Vector::operator+
	mov	ecx, eax
	call	??BVector@@QAEPAMXZ			; Vector::operator float *
	push	eax
	lea	ecx, DWORD PTR _vecStart$12[ebp]
	call	??BVector@@QAEPAMXZ			; Vector::operator float *
	push	eax
	mov	eax, DWORD PTR ?gEngfuncs@@3Ucl_enginefuncs_s@@A+336
	mov	ecx, DWORD PTR [eax+60]
	call	ecx
	add	esp, 20					; 00000014H

; 545  : 				AddPointToBounds( pmtrace.endpos, cm->mins, cm->maxs );

	push	ecx
	xorps	xmm0, xmm0
	movss	DWORD PTR [esp], xmm0
	mov	eax, DWORD PTR _cm$13[ebp]
	add	eax, 80					; 00000050H
	push	eax
	mov	ecx, DWORD PTR _cm$13[ebp]
	add	ecx, 68					; 00000044H
	push	ecx
	lea	edx, DWORD PTR _pmtrace$10[ebp+20]
	push	edx
	call	?AddPointToBounds@@YAXABVVector@@AAV1@1M@Z ; AddPointToBounds
	add	esp, 16					; 00000010H

; 546  : 			}

	jmp	$LN8@GL_LoadAnd
$LN9@GL_LoadAnd:

; 547  : 		}

	jmp	$LN5@GL_LoadAnd
$LN6@GL_LoadAnd:

; 548  : 
; 549  : 		// bind cubemaps onto world surfaces
; 550  : 		// so we don't need to search them again
; 551  : 		for( i = 0; i < worldmodel->numsurfaces; i++ )

	mov	DWORD PTR _i$15[ebp], 0
	jmp	SHORT $LN13@GL_LoadAnd
$LN11@GL_LoadAnd:
	mov	eax, DWORD PTR _i$15[ebp]
	add	eax, 1
	mov	DWORD PTR _i$15[ebp], eax
$LN13@GL_LoadAnd:
	mov	eax, DWORD PTR ?worldmodel@@3PAUmodel_s@@A ; worldmodel
	mov	ecx, DWORD PTR _i$15[ebp]
	cmp	ecx, DWORD PTR [eax+176]
	jge	$LN12@GL_LoadAnd

; 552  : 		{
; 553  : 			msurface_t *surf = &worldmodel->surfaces[i];

	imul	eax, DWORD PTR _i$15[ebp], 92
	mov	ecx, DWORD PTR ?worldmodel@@3PAUmodel_s@@A ; worldmodel
	add	eax, DWORD PTR [ecx+180]
	mov	DWORD PTR _surf$9[ebp], eax

; 554  : 			mextrasurf_t *es = surf->info;

	mov	eax, DWORD PTR _surf$9[ebp]
	mov	ecx, DWORD PTR [eax+80]
	mov	DWORD PTR _es$8[ebp], ecx

; 555  : 			CL_FindTwoNearestCubeMapForSurface( es->origin, surf, &es->cubemap[0], &es->cubemap[1] );

	mov	eax, 4
	shl	eax, 0
	mov	ecx, DWORD PTR _es$8[ebp]
	lea	edx, DWORD PTR [ecx+eax+200]
	push	edx
	mov	eax, 4
	imul	ecx, eax, 0
	mov	edx, DWORD PTR _es$8[ebp]
	lea	eax, DWORD PTR [edx+ecx+200]
	push	eax
	mov	ecx, DWORD PTR _surf$9[ebp]
	push	ecx
	mov	edx, DWORD PTR _es$8[ebp]
	add	edx, 24					; 00000018H
	push	edx
	call	?CL_FindTwoNearestCubeMapForSurface@@YAXABVVector@@PBUmsurface_s@@PAPAUmcubemap_s@@2@Z ; CL_FindTwoNearestCubeMapForSurface
	add	esp, 16					; 00000010H

; 556  : 
; 557  : 			// compute lerp factor
; 558  : 			float dist0 = (es->cubemap[0]->origin - es->origin).Length();

	mov	eax, DWORD PTR _es$8[ebp]
	add	eax, 24					; 00000018H
	push	eax
	lea	ecx, DWORD PTR $T2[ebp]
	push	ecx
	mov	edx, 4
	imul	eax, edx, 0
	mov	ecx, DWORD PTR _es$8[ebp]
	mov	ecx, DWORD PTR [ecx+eax+200]
	add	ecx, 96					; 00000060H
	call	??GVector@@QBE?AV0@ABV0@@Z		; Vector::operator-
	mov	ecx, eax
	call	?Length@Vector@@QBEMXZ			; Vector::Length
	fstp	DWORD PTR _dist0$7[ebp]

; 559  : 			float dist1 = (es->cubemap[1]->origin - es->origin).Length();

	mov	eax, DWORD PTR _es$8[ebp]
	add	eax, 24					; 00000018H
	push	eax
	lea	ecx, DWORD PTR $T1[ebp]
	push	ecx
	mov	edx, 4
	shl	edx, 0
	mov	eax, DWORD PTR _es$8[ebp]
	mov	ecx, DWORD PTR [eax+edx+200]
	add	ecx, 96					; 00000060H
	call	??GVector@@QBE?AV0@ABV0@@Z		; Vector::operator-
	mov	ecx, eax
	call	?Length@Vector@@QBEMXZ			; Vector::Length
	fstp	DWORD PTR _dist1$6[ebp]

; 560  : 			es->lerpFactor = dist0 / (dist0 + dist1);

	movss	xmm0, DWORD PTR _dist0$7[ebp]
	addss	xmm0, DWORD PTR _dist1$6[ebp]
	movss	xmm1, DWORD PTR _dist0$7[ebp]
	divss	xmm1, xmm0
	mov	eax, DWORD PTR _es$8[ebp]
	movss	DWORD PTR [eax+208], xmm1

; 561  : 		}

	jmp	$LN11@GL_LoadAnd
$LN12@GL_LoadAnd:

; 562  : 
; 563  : 		world->loading_cubemaps = false;

	mov	eax, DWORD PTR ?world@@3PAUgl_world_t@@A ; world
	mov	BYTE PTR [eax+164], 0
$LN24@GL_LoadAnd:
$LN1@GL_LoadAnd:

; 564  : 	}
; 565  : }

	pop	edi
	pop	esi
	pop	ebx
	mov	esp, ebp
	pop	ebp
	ret	0
?GL_LoadAndRebuildCubemaps@@YAXH@Z ENDP			; GL_LoadAndRebuildCubemaps
_TEXT	ENDS
; Function compile flags: /Odtp /ZI
; File d:\!diffusion 2020\source code 2022\client-server\client\render\r_cubemaps.cpp
;	COMDAT ?R_InitCubemaps@@YAXXZ
_TEXT	SEGMENT
?R_InitCubemaps@@YAXXZ PROC				; R_InitCubemaps, COMDAT

; 438  : {

	push	ebp
	mov	ebp, esp
	sub	esp, 64					; 00000040H
	push	ebx
	push	esi
	push	edi

; 439  : 	gEngfuncs.pfnAddCommand("buildcubemaps", CL_BuildCubemaps_f);

	push	OFFSET ?CL_BuildCubemaps_f@@YAXXZ	; CL_BuildCubemaps_f
	push	OFFSET ??_C@_0O@KEIAHEAI@buildcubemaps?$AA@
	call	DWORD PTR ?gEngfuncs@@3Ucl_enginefuncs_s@@A+68
	add	esp, 8

; 440  : }

	pop	edi
	pop	esi
	pop	ebx
	mov	esp, ebp
	pop	ebp
	ret	0
?R_InitCubemaps@@YAXXZ ENDP				; R_InitCubemaps
_TEXT	ENDS
; Function compile flags: /Odtp /ZI
; File d:\!diffusion 2020\source code 2022\client-server\client\render\r_cubemaps.cpp
;	COMDAT ?CL_BuildCubemaps_f@@YAXXZ
_TEXT	SEGMENT
_m$1 = -12						; size = 4
_i$2 = -8						; size = 4
_m$ = -4						; size = 4
?CL_BuildCubemaps_f@@YAXXZ PROC				; CL_BuildCubemaps_f, COMDAT

; 416  : {

	push	ebp
	mov	ebp, esp
	sub	esp, 76					; 0000004cH
	push	ebx
	push	esi
	push	edi

; 417  : 	mcubemap_t *m = &world->defaultCubemap;

	mov	eax, DWORD PTR ?world@@3PAUgl_world_t@@A ; world
	add	eax, 114864				; 0001c0b0H
	mov	DWORD PTR _m$[ebp], eax

; 418  : 
; 419  : 	FREE_TEXTURE( m->texture );

	mov	eax, DWORD PTR _m$[ebp]
	mov	ecx, DWORD PTR [eax+64]
	push	ecx
	call	DWORD PTR ?gRenderfuncs@@3Urender_api_s@@A+76
	add	esp, 4

; 420  : 
; 421  : 	m->valid = m->texture = false;

	mov	eax, DWORD PTR _m$[ebp]
	mov	DWORD PTR [eax+64], 0
	mov	ecx, DWORD PTR _m$[ebp]
	mov	BYTE PTR [ecx+92], 0

; 422  : 
; 423  : 	for( int i = 0; i < world->num_cubemaps; i++ )

	mov	DWORD PTR _i$2[ebp], 0
	jmp	SHORT $LN4@CL_BuildCu
$LN2@CL_BuildCu:
	mov	eax, DWORD PTR _i$2[ebp]
	add	eax, 1
	mov	DWORD PTR _i$2[ebp], eax
$LN4@CL_BuildCu:
	mov	eax, DWORD PTR ?world@@3PAUgl_world_t@@A ; world
	mov	ecx, DWORD PTR _i$2[ebp]
	cmp	ecx, DWORD PTR [eax+114976]
	jge	SHORT $LN3@CL_BuildCu

; 424  : 	{
; 425  : 		mcubemap_t *m = &world->cubemaps[i];

	imul	eax, DWORD PTR _i$2[ebp], 112
	mov	ecx, DWORD PTR ?world@@3PAUgl_world_t@@A ; world
	lea	edx, DWORD PTR [ecx+eax+176]
	mov	DWORD PTR _m$1[ebp], edx

; 426  : 		FREE_TEXTURE( m->texture );

	mov	eax, DWORD PTR _m$1[ebp]
	mov	ecx, DWORD PTR [eax+64]
	push	ecx
	call	DWORD PTR ?gRenderfuncs@@3Urender_api_s@@A+76
	add	esp, 4

; 427  : 		m->valid = m->texture = false;

	mov	eax, DWORD PTR _m$1[ebp]
	mov	DWORD PTR [eax+64], 0
	mov	ecx, DWORD PTR _m$1[ebp]
	mov	BYTE PTR [ecx+92], 0

; 428  : 	}

	jmp	SHORT $LN2@CL_BuildCu
$LN3@CL_BuildCu:

; 429  : 
; 430  : 	if( FBitSet( world->features, WORLD_HAS_SKYBOX ) )

	mov	eax, DWORD PTR ?world@@3PAUgl_world_t@@A ; world
	movzx	ecx, WORD PTR [eax+64]
	and	ecx, 64					; 00000040H
	je	SHORT $LN5@CL_BuildCu

; 431  : 		world->build_default_cubemap = true;

	mov	eax, DWORD PTR ?world@@3PAUgl_world_t@@A ; world
	mov	BYTE PTR [eax+165], 1
$LN5@CL_BuildCu:

; 432  : 
; 433  : 	world->rebuilding_cubemaps = CMREBUILD_CHECKING;

	mov	eax, DWORD PTR ?world@@3PAUgl_world_t@@A ; world
	mov	DWORD PTR [eax+168], 1

; 434  : 	world->loading_cubemaps = true;

	mov	eax, DWORD PTR ?world@@3PAUgl_world_t@@A ; world
	mov	BYTE PTR [eax+164], 1

; 435  : }

	pop	edi
	pop	esi
	pop	ebx
	mov	esp, ebp
	pop	ebp
	ret	0
?CL_BuildCubemaps_f@@YAXXZ ENDP				; CL_BuildCubemaps_f
_TEXT	ENDS
; Function compile flags: /Odtp /ZI
; File d:\!diffusion 2020\source code 2022\client-server\client\render\r_cubemaps.cpp
;	COMDAT ?CL_FindTwoNearestCubeMapForSurface@@YAXABVVector@@PBUmsurface_s@@PAPAUmcubemap_s@@2@Z
_TEXT	SEGMENT
tv317 = -140						; size = 4
tv315 = -136						; size = 4
tv313 = -132						; size = 4
tv311 = -128						; size = 4
tv309 = -124						; size = 4
tv199 = -124						; size = 4
$T1 = -120						; size = 12
_dist$2 = -44						; size = 4
_check$3 = -40						; size = 4
_i$4 = -36						; size = 4
_plane$ = -32						; size = 20
_maxDist2$ = -12					; size = 4
_maxDist1$ = -8						; size = 4
__$ArrayPad$ = -4					; size = 4
_pos$ = 8						; size = 4
_surf$ = 12						; size = 4
_result1$ = 16						; size = 4
_result2$ = 20						; size = 4
?CL_FindTwoNearestCubeMapForSurface@@YAXABVVector@@PBUmsurface_s@@PAPAUmcubemap_s@@2@Z PROC ; CL_FindTwoNearestCubeMapForSurface, COMDAT

; 362  : {

	push	ebp
	mov	ebp, esp
	sub	esp, 140				; 0000008cH
	mov	eax, DWORD PTR ___security_cookie
	xor	eax, ebp
	mov	DWORD PTR __$ArrayPad$[ebp], eax
	push	ebx
	push	esi
	push	edi

; 363  : 	if (!result1 || !result2) return;

	cmp	DWORD PTR _result1$[ebp], 0
	je	SHORT $LN6@CL_FindTwo
	cmp	DWORD PTR _result2$[ebp], 0
	jne	SHORT $LN5@CL_FindTwo
$LN6@CL_FindTwo:
	jmp	$LN1@CL_FindTwo
$LN5@CL_FindTwo:

; 364  : 
; 365  : 	float maxDist1 = 99999.0f;

	movss	xmm0, DWORD PTR __real@47c34f80
	movss	DWORD PTR _maxDist1$[ebp], xmm0

; 366  : 	float maxDist2 = 99999.0f;

	movss	xmm0, DWORD PTR __real@47c34f80
	movss	DWORD PTR _maxDist2$[ebp], xmm0

; 367  : 	mplane_t plane;

	lea	ecx, DWORD PTR _plane$[ebp]
	call	??0mplane_s@@QAE@XZ

; 368  : 	*result1 = NULL;

	mov	eax, DWORD PTR _result1$[ebp]
	mov	DWORD PTR [eax], 0

; 369  : 	*result2 = NULL;

	mov	eax, DWORD PTR _result2$[ebp]
	mov	DWORD PTR [eax], 0

; 370  : 
; 371  : 	plane = *surf->plane;

	mov	eax, DWORD PTR _surf$[ebp]
	mov	ecx, DWORD PTR [eax+4]
	mov	edx, DWORD PTR [ecx]
	mov	DWORD PTR _plane$[ebp], edx
	mov	eax, DWORD PTR [ecx+4]
	mov	DWORD PTR _plane$[ebp+4], eax
	mov	edx, DWORD PTR [ecx+8]
	mov	DWORD PTR _plane$[ebp+8], edx
	mov	eax, DWORD PTR [ecx+12]
	mov	DWORD PTR _plane$[ebp+12], eax
	mov	ecx, DWORD PTR [ecx+16]
	mov	DWORD PTR _plane$[ebp+16], ecx

; 372  : 
; 373  : 	if (FBitSet(surf->flags, SURF_PLANEBACK))

	mov	eax, DWORD PTR _surf$[ebp]
	mov	ecx, DWORD PTR [eax+8]
	and	ecx, 2
	je	SHORT $LN7@CL_FindTwo

; 374  : 	{
; 375  : 		plane.normal = -plane.normal;

	lea	eax, DWORD PTR $T1[ebp]
	push	eax
	lea	ecx, DWORD PTR _plane$[ebp]
	call	??GVector@@QBE?AV0@XZ			; Vector::operator-
	mov	ecx, DWORD PTR [eax]
	mov	DWORD PTR _plane$[ebp], ecx
	mov	edx, DWORD PTR [eax+4]
	mov	DWORD PTR _plane$[ebp+4], edx
	mov	eax, DWORD PTR [eax+8]
	mov	DWORD PTR _plane$[ebp+8], eax

; 376  : 		plane.dist = -plane.dist;

	movss	xmm0, DWORD PTR _plane$[ebp+12]
	xorps	xmm0, DWORD PTR __xmm@80000000800000008000000080000000
	movss	DWORD PTR _plane$[ebp+12], xmm0
$LN7@CL_FindTwo:

; 377  : 	}
; 378  : 
; 379  : 	for (int i = 0; i < world->num_cubemaps; i++)

	mov	DWORD PTR _i$4[ebp], 0
	jmp	SHORT $LN4@CL_FindTwo
$LN2@CL_FindTwo:
	mov	eax, DWORD PTR _i$4[ebp]
	add	eax, 1
	mov	DWORD PTR _i$4[ebp], eax
$LN4@CL_FindTwo:
	mov	eax, DWORD PTR ?world@@3PAUgl_world_t@@A ; world
	mov	ecx, DWORD PTR _i$4[ebp]
	cmp	ecx, DWORD PTR [eax+114976]
	jge	$LN3@CL_FindTwo

; 380  : 	{
; 381  : 		mcubemap_t* check = &world->cubemaps[i];

	imul	eax, DWORD PTR _i$4[ebp], 112
	mov	ecx, DWORD PTR ?world@@3PAUgl_world_t@@A ; world
	lea	edx, DWORD PTR [ecx+eax+176]
	mov	DWORD PTR _check$3[ebp], edx

; 382  : 		float dist = VectorDistance(check->origin, pos);

	mov	ecx, DWORD PTR _check$3[ebp]
	add	ecx, 96					; 00000060H
	call	??BVector@@QAEPAMXZ			; Vector::operator float *
	mov	esi, eax
	mov	eax, 4
	imul	edi, eax, 0
	mov	ecx, DWORD PTR _pos$[ebp]
	call	??BVector@@QBEPBMXZ			; Vector::operator float const *
	mov	ecx, 4
	imul	edx, ecx, 0
	movss	xmm0, DWORD PTR [esi+edi]
	subss	xmm0, DWORD PTR [eax+edx]
	mov	ecx, DWORD PTR _check$3[ebp]
	add	ecx, 96					; 00000060H
	movss	DWORD PTR tv309[ebp], xmm0
	call	??BVector@@QAEPAMXZ			; Vector::operator float *
	mov	esi, eax
	mov	eax, 4
	imul	edi, eax, 0
	mov	ecx, DWORD PTR _pos$[ebp]
	call	??BVector@@QBEPBMXZ			; Vector::operator float const *
	mov	ecx, 4
	imul	edx, ecx, 0
	movss	xmm0, DWORD PTR [esi+edi]
	subss	xmm0, DWORD PTR [eax+edx]
	movss	xmm1, DWORD PTR tv309[ebp]
	mulss	xmm1, xmm0
	mov	ecx, DWORD PTR _check$3[ebp]
	add	ecx, 96					; 00000060H
	movss	DWORD PTR tv311[ebp], xmm1
	call	??BVector@@QAEPAMXZ			; Vector::operator float *
	mov	esi, eax
	mov	edi, 4
	shl	edi, 0
	mov	ecx, DWORD PTR _pos$[ebp]
	call	??BVector@@QBEPBMXZ			; Vector::operator float const *
	mov	ecx, 4
	shl	ecx, 0
	movss	xmm0, DWORD PTR [esi+edi]
	subss	xmm0, DWORD PTR [eax+ecx]
	mov	ecx, DWORD PTR _check$3[ebp]
	add	ecx, 96					; 00000060H
	movss	DWORD PTR tv313[ebp], xmm0
	call	??BVector@@QAEPAMXZ			; Vector::operator float *
	mov	esi, eax
	mov	edi, 4
	shl	edi, 0
	mov	ecx, DWORD PTR _pos$[ebp]
	call	??BVector@@QBEPBMXZ			; Vector::operator float const *
	mov	edx, 4
	shl	edx, 0
	movss	xmm0, DWORD PTR [esi+edi]
	subss	xmm0, DWORD PTR [eax+edx]
	movss	xmm1, DWORD PTR tv313[ebp]
	mulss	xmm1, xmm0
	movss	xmm0, DWORD PTR tv311[ebp]
	addss	xmm0, xmm1
	mov	ecx, DWORD PTR _check$3[ebp]
	add	ecx, 96					; 00000060H
	movss	DWORD PTR tv315[ebp], xmm0
	call	??BVector@@QAEPAMXZ			; Vector::operator float *
	mov	esi, eax
	mov	edi, 4
	shl	edi, 1
	mov	ecx, DWORD PTR _pos$[ebp]
	call	??BVector@@QBEPBMXZ			; Vector::operator float const *
	mov	ecx, 4
	shl	ecx, 1
	movss	xmm0, DWORD PTR [esi+edi]
	subss	xmm0, DWORD PTR [eax+ecx]
	mov	ecx, DWORD PTR _check$3[ebp]
	add	ecx, 96					; 00000060H
	movss	DWORD PTR tv317[ebp], xmm0
	call	??BVector@@QAEPAMXZ			; Vector::operator float *
	mov	esi, eax
	mov	edi, 4
	shl	edi, 1
	mov	ecx, DWORD PTR _pos$[ebp]
	call	??BVector@@QBEPBMXZ			; Vector::operator float const *
	mov	edx, 4
	shl	edx, 1
	movss	xmm0, DWORD PTR [esi+edi]
	subss	xmm0, DWORD PTR [eax+edx]
	movss	xmm1, DWORD PTR tv317[ebp]
	mulss	xmm1, xmm0
	movss	xmm0, DWORD PTR tv315[ebp]
	addss	xmm0, xmm1
	cvtss2sd xmm0, xmm0
	sub	esp, 8
	movsd	QWORD PTR [esp], xmm0
	call	_sqrt
	add	esp, 8
	fstp	DWORD PTR _dist$2[ebp]

; 383  : 
; 384  : 		if (dist < maxDist1 && PlaneDiff(check->origin, &plane) >= 0.0f)

	movss	xmm0, DWORD PTR _maxDist1$[ebp]
	comiss	xmm0, DWORD PTR _dist$2[ebp]
	jbe	SHORT $LN8@CL_FindTwo
	movzx	eax, BYTE PTR _plane$[ebp+16]
	cmp	eax, 3
	jge	SHORT $LN14@CL_FindTwo
	mov	ecx, DWORD PTR _check$3[ebp]
	add	ecx, 96					; 00000060H
	call	??BVector@@QAEPAMXZ			; Vector::operator float *
	movzx	ecx, BYTE PTR _plane$[ebp+16]
	movss	xmm0, DWORD PTR [eax+ecx*4]
	movss	DWORD PTR tv199[ebp], xmm0
	jmp	SHORT $LN15@CL_FindTwo
$LN14@CL_FindTwo:
	lea	edx, DWORD PTR _plane$[ebp]
	push	edx
	mov	eax, DWORD PTR _check$3[ebp]
	add	eax, 96					; 00000060H
	push	eax
	call	?DotProduct@@YAMABVVector@@0@Z		; DotProduct
	add	esp, 8
	fstp	DWORD PTR tv199[ebp]
$LN15@CL_FindTwo:
	movss	xmm0, DWORD PTR tv199[ebp]
	subss	xmm0, DWORD PTR _plane$[ebp+12]
	comiss	xmm0, DWORD PTR __real@00000000
	jb	SHORT $LN8@CL_FindTwo

; 385  : 		{
; 386  : 			*result1 = check;

	mov	eax, DWORD PTR _result1$[ebp]
	mov	ecx, DWORD PTR _check$3[ebp]
	mov	DWORD PTR [eax], ecx

; 387  : 			maxDist1 = dist;

	movss	xmm0, DWORD PTR _dist$2[ebp]
	movss	DWORD PTR _maxDist1$[ebp], xmm0
	jmp	SHORT $LN10@CL_FindTwo
$LN8@CL_FindTwo:

; 388  : 		}
; 389  : 		else if (dist < maxDist2 && dist > maxDist1)

	movss	xmm0, DWORD PTR _maxDist2$[ebp]
	comiss	xmm0, DWORD PTR _dist$2[ebp]
	jbe	SHORT $LN10@CL_FindTwo
	movss	xmm0, DWORD PTR _dist$2[ebp]
	comiss	xmm0, DWORD PTR _maxDist1$[ebp]
	jbe	SHORT $LN10@CL_FindTwo

; 390  : 		{
; 391  : 			*result2 = check;

	mov	eax, DWORD PTR _result2$[ebp]
	mov	ecx, DWORD PTR _check$3[ebp]
	mov	DWORD PTR [eax], ecx

; 392  : 			maxDist2 = dist;

	movss	xmm0, DWORD PTR _dist$2[ebp]
	movss	DWORD PTR _maxDist2$[ebp], xmm0
$LN10@CL_FindTwo:

; 393  : 		}
; 394  : 	}

	jmp	$LN2@CL_FindTwo
$LN3@CL_FindTwo:

; 395  : 
; 396  : 	if (*result1)

	mov	eax, DWORD PTR _result1$[ebp]
	cmp	DWORD PTR [eax], 0
	je	SHORT $LN11@CL_FindTwo

; 397  : 	{
; 398  : 		if (!*result2)

	mov	eax, DWORD PTR _result2$[ebp]
	cmp	DWORD PTR [eax], 0
	jne	SHORT $LN12@CL_FindTwo

; 399  : 			*result2 = *result1;

	mov	eax, DWORD PTR _result2$[ebp]
	mov	ecx, DWORD PTR _result1$[ebp]
	mov	edx, DWORD PTR [ecx]
	mov	DWORD PTR [eax], edx
$LN12@CL_FindTwo:

; 400  : 		return;

	jmp	SHORT $LN1@CL_FindTwo
$LN11@CL_FindTwo:

; 401  : 	}
; 402  : 
; 403  : 	// fallback to default method
; 404  : 	CL_FindTwoNearestCubeMap(pos, result1, result2);

	mov	eax, DWORD PTR _result2$[ebp]
	push	eax
	mov	ecx, DWORD PTR _result1$[ebp]
	push	ecx
	mov	edx, DWORD PTR _pos$[ebp]
	push	edx
	call	?CL_FindTwoNearestCubeMap@@YAXABVVector@@PAPAUmcubemap_s@@1@Z ; CL_FindTwoNearestCubeMap
	add	esp, 12					; 0000000cH
$LN1@CL_FindTwo:

; 405  : }

	pop	edi
	pop	esi
	pop	ebx
	mov	ecx, DWORD PTR __$ArrayPad$[ebp]
	xor	ecx, ebp
	call	@__security_check_cookie@4
	mov	esp, ebp
	pop	ebp
	ret	0
?CL_FindTwoNearestCubeMapForSurface@@YAXABVVector@@PBUmsurface_s@@PAPAUmcubemap_s@@2@Z ENDP ; CL_FindTwoNearestCubeMapForSurface
_TEXT	ENDS
; Function compile flags: /Odtp /ZI
; File d:\!diffusion 2020\source code 2022\client-server\client\render\r_cubemaps.cpp
;	COMDAT ?CL_FindNearestCubeMapForSurface@@YAXABVVector@@PBUmsurface_s@@PAPAUmcubemap_s@@@Z
_TEXT	SEGMENT
tv300 = -136						; size = 4
tv298 = -132						; size = 4
tv296 = -128						; size = 4
tv294 = -124						; size = 4
tv292 = -120						; size = 4
tv198 = -120						; size = 4
$T1 = -116						; size = 12
_dist$2 = -40						; size = 4
_check$3 = -36						; size = 4
_i$4 = -32						; size = 4
_plane$ = -28						; size = 20
_maxDist$ = -8						; size = 4
__$ArrayPad$ = -4					; size = 4
_pos$ = 8						; size = 4
_surf$ = 12						; size = 4
_result$ = 16						; size = 4
?CL_FindNearestCubeMapForSurface@@YAXABVVector@@PBUmsurface_s@@PAPAUmcubemap_s@@@Z PROC ; CL_FindNearestCubeMapForSurface, COMDAT

; 273  : {

	push	ebp
	mov	ebp, esp
	sub	esp, 136				; 00000088H
	mov	eax, DWORD PTR ___security_cookie
	xor	eax, ebp
	mov	DWORD PTR __$ArrayPad$[ebp], eax
	push	ebx
	push	esi
	push	edi

; 274  : 	if (!result) return;

	cmp	DWORD PTR _result$[ebp], 0
	jne	SHORT $LN5@CL_FindNea
	jmp	$LN1@CL_FindNea
$LN5@CL_FindNea:

; 275  : 
; 276  : 	float maxDist = 99999.0f;

	movss	xmm0, DWORD PTR __real@47c34f80
	movss	DWORD PTR _maxDist$[ebp], xmm0

; 277  : 	mplane_t plane;

	lea	ecx, DWORD PTR _plane$[ebp]
	call	??0mplane_s@@QAE@XZ

; 278  : 	*result = NULL;

	mov	eax, DWORD PTR _result$[ebp]
	mov	DWORD PTR [eax], 0

; 279  : 
; 280  : 	plane = *surf->plane;

	mov	eax, DWORD PTR _surf$[ebp]
	mov	ecx, DWORD PTR [eax+4]
	mov	edx, DWORD PTR [ecx]
	mov	DWORD PTR _plane$[ebp], edx
	mov	eax, DWORD PTR [ecx+4]
	mov	DWORD PTR _plane$[ebp+4], eax
	mov	edx, DWORD PTR [ecx+8]
	mov	DWORD PTR _plane$[ebp+8], edx
	mov	eax, DWORD PTR [ecx+12]
	mov	DWORD PTR _plane$[ebp+12], eax
	mov	ecx, DWORD PTR [ecx+16]
	mov	DWORD PTR _plane$[ebp+16], ecx

; 281  : 
; 282  : 	if (FBitSet(surf->flags, SURF_PLANEBACK))

	mov	eax, DWORD PTR _surf$[ebp]
	mov	ecx, DWORD PTR [eax+8]
	and	ecx, 2
	je	SHORT $LN6@CL_FindNea

; 283  : 	{
; 284  : 		plane.normal = -plane.normal;

	lea	eax, DWORD PTR $T1[ebp]
	push	eax
	lea	ecx, DWORD PTR _plane$[ebp]
	call	??GVector@@QBE?AV0@XZ			; Vector::operator-
	mov	ecx, DWORD PTR [eax]
	mov	DWORD PTR _plane$[ebp], ecx
	mov	edx, DWORD PTR [eax+4]
	mov	DWORD PTR _plane$[ebp+4], edx
	mov	eax, DWORD PTR [eax+8]
	mov	DWORD PTR _plane$[ebp+8], eax

; 285  : 		plane.dist = -plane.dist;

	movss	xmm0, DWORD PTR _plane$[ebp+12]
	xorps	xmm0, DWORD PTR __xmm@80000000800000008000000080000000
	movss	DWORD PTR _plane$[ebp+12], xmm0
$LN6@CL_FindNea:

; 286  : 	}
; 287  : 
; 288  : 	for (int i = 0; i < world->num_cubemaps; i++)

	mov	DWORD PTR _i$4[ebp], 0
	jmp	SHORT $LN4@CL_FindNea
$LN2@CL_FindNea:
	mov	eax, DWORD PTR _i$4[ebp]
	add	eax, 1
	mov	DWORD PTR _i$4[ebp], eax
$LN4@CL_FindNea:
	mov	eax, DWORD PTR ?world@@3PAUgl_world_t@@A ; world
	mov	ecx, DWORD PTR _i$4[ebp]
	cmp	ecx, DWORD PTR [eax+114976]
	jge	$LN3@CL_FindNea

; 289  : 	{
; 290  : 		mcubemap_t* check = &world->cubemaps[i];

	imul	eax, DWORD PTR _i$4[ebp], 112
	mov	ecx, DWORD PTR ?world@@3PAUgl_world_t@@A ; world
	lea	edx, DWORD PTR [ecx+eax+176]
	mov	DWORD PTR _check$3[ebp], edx

; 291  : 		float dist = VectorDistance(check->origin, pos);

	mov	ecx, DWORD PTR _check$3[ebp]
	add	ecx, 96					; 00000060H
	call	??BVector@@QAEPAMXZ			; Vector::operator float *
	mov	esi, eax
	mov	eax, 4
	imul	edi, eax, 0
	mov	ecx, DWORD PTR _pos$[ebp]
	call	??BVector@@QBEPBMXZ			; Vector::operator float const *
	mov	ecx, 4
	imul	edx, ecx, 0
	movss	xmm0, DWORD PTR [esi+edi]
	subss	xmm0, DWORD PTR [eax+edx]
	mov	ecx, DWORD PTR _check$3[ebp]
	add	ecx, 96					; 00000060H
	movss	DWORD PTR tv292[ebp], xmm0
	call	??BVector@@QAEPAMXZ			; Vector::operator float *
	mov	esi, eax
	mov	eax, 4
	imul	edi, eax, 0
	mov	ecx, DWORD PTR _pos$[ebp]
	call	??BVector@@QBEPBMXZ			; Vector::operator float const *
	mov	ecx, 4
	imul	edx, ecx, 0
	movss	xmm0, DWORD PTR [esi+edi]
	subss	xmm0, DWORD PTR [eax+edx]
	movss	xmm1, DWORD PTR tv292[ebp]
	mulss	xmm1, xmm0
	mov	ecx, DWORD PTR _check$3[ebp]
	add	ecx, 96					; 00000060H
	movss	DWORD PTR tv294[ebp], xmm1
	call	??BVector@@QAEPAMXZ			; Vector::operator float *
	mov	esi, eax
	mov	edi, 4
	shl	edi, 0
	mov	ecx, DWORD PTR _pos$[ebp]
	call	??BVector@@QBEPBMXZ			; Vector::operator float const *
	mov	ecx, 4
	shl	ecx, 0
	movss	xmm0, DWORD PTR [esi+edi]
	subss	xmm0, DWORD PTR [eax+ecx]
	mov	ecx, DWORD PTR _check$3[ebp]
	add	ecx, 96					; 00000060H
	movss	DWORD PTR tv296[ebp], xmm0
	call	??BVector@@QAEPAMXZ			; Vector::operator float *
	mov	esi, eax
	mov	edi, 4
	shl	edi, 0
	mov	ecx, DWORD PTR _pos$[ebp]
	call	??BVector@@QBEPBMXZ			; Vector::operator float const *
	mov	edx, 4
	shl	edx, 0
	movss	xmm0, DWORD PTR [esi+edi]
	subss	xmm0, DWORD PTR [eax+edx]
	movss	xmm1, DWORD PTR tv296[ebp]
	mulss	xmm1, xmm0
	movss	xmm0, DWORD PTR tv294[ebp]
	addss	xmm0, xmm1
	mov	ecx, DWORD PTR _check$3[ebp]
	add	ecx, 96					; 00000060H
	movss	DWORD PTR tv298[ebp], xmm0
	call	??BVector@@QAEPAMXZ			; Vector::operator float *
	mov	esi, eax
	mov	edi, 4
	shl	edi, 1
	mov	ecx, DWORD PTR _pos$[ebp]
	call	??BVector@@QBEPBMXZ			; Vector::operator float const *
	mov	ecx, 4
	shl	ecx, 1
	movss	xmm0, DWORD PTR [esi+edi]
	subss	xmm0, DWORD PTR [eax+ecx]
	mov	ecx, DWORD PTR _check$3[ebp]
	add	ecx, 96					; 00000060H
	movss	DWORD PTR tv300[ebp], xmm0
	call	??BVector@@QAEPAMXZ			; Vector::operator float *
	mov	esi, eax
	mov	edi, 4
	shl	edi, 1
	mov	ecx, DWORD PTR _pos$[ebp]
	call	??BVector@@QBEPBMXZ			; Vector::operator float const *
	mov	edx, 4
	shl	edx, 1
	movss	xmm0, DWORD PTR [esi+edi]
	subss	xmm0, DWORD PTR [eax+edx]
	movss	xmm1, DWORD PTR tv300[ebp]
	mulss	xmm1, xmm0
	movss	xmm0, DWORD PTR tv298[ebp]
	addss	xmm0, xmm1
	cvtss2sd xmm0, xmm0
	sub	esp, 8
	movsd	QWORD PTR [esp], xmm0
	call	_sqrt
	add	esp, 8
	fstp	DWORD PTR _dist$2[ebp]

; 292  : 
; 293  : 		if (dist < maxDist && PlaneDiff(check->origin, &plane) >= 0.0f)

	movss	xmm0, DWORD PTR _maxDist$[ebp]
	comiss	xmm0, DWORD PTR _dist$2[ebp]
	jbe	SHORT $LN7@CL_FindNea
	movzx	eax, BYTE PTR _plane$[ebp+16]
	cmp	eax, 3
	jge	SHORT $LN10@CL_FindNea
	mov	ecx, DWORD PTR _check$3[ebp]
	add	ecx, 96					; 00000060H
	call	??BVector@@QAEPAMXZ			; Vector::operator float *
	movzx	ecx, BYTE PTR _plane$[ebp+16]
	movss	xmm0, DWORD PTR [eax+ecx*4]
	movss	DWORD PTR tv198[ebp], xmm0
	jmp	SHORT $LN11@CL_FindNea
$LN10@CL_FindNea:
	lea	edx, DWORD PTR _plane$[ebp]
	push	edx
	mov	eax, DWORD PTR _check$3[ebp]
	add	eax, 96					; 00000060H
	push	eax
	call	?DotProduct@@YAMABVVector@@0@Z		; DotProduct
	add	esp, 8
	fstp	DWORD PTR tv198[ebp]
$LN11@CL_FindNea:
	movss	xmm0, DWORD PTR tv198[ebp]
	subss	xmm0, DWORD PTR _plane$[ebp+12]
	comiss	xmm0, DWORD PTR __real@00000000
	jb	SHORT $LN7@CL_FindNea

; 294  : 		{
; 295  : 			*result = check;

	mov	eax, DWORD PTR _result$[ebp]
	mov	ecx, DWORD PTR _check$3[ebp]
	mov	DWORD PTR [eax], ecx

; 296  : 			maxDist = dist;

	movss	xmm0, DWORD PTR _dist$2[ebp]
	movss	DWORD PTR _maxDist$[ebp], xmm0
$LN7@CL_FindNea:

; 297  : 		}
; 298  : 	}

	jmp	$LN2@CL_FindNea
$LN3@CL_FindNea:

; 299  : 
; 300  : 	if (*result) return;

	mov	eax, DWORD PTR _result$[ebp]
	cmp	DWORD PTR [eax], 0
	je	SHORT $LN8@CL_FindNea
	jmp	SHORT $LN1@CL_FindNea
$LN8@CL_FindNea:

; 301  : 
; 302  : 	// fallback to default method
; 303  : 	CL_FindNearestCubeMap(pos, result);

	mov	eax, DWORD PTR _result$[ebp]
	push	eax
	mov	ecx, DWORD PTR _pos$[ebp]
	push	ecx
	call	?CL_FindNearestCubeMap@@YAXABVVector@@PAPAUmcubemap_s@@@Z ; CL_FindNearestCubeMap
	add	esp, 8
$LN1@CL_FindNea:

; 304  : }

	pop	edi
	pop	esi
	pop	ebx
	mov	ecx, DWORD PTR __$ArrayPad$[ebp]
	xor	ecx, ebp
	call	@__security_check_cookie@4
	mov	esp, ebp
	pop	ebp
	ret	0
?CL_FindNearestCubeMapForSurface@@YAXABVVector@@PBUmsurface_s@@PAPAUmcubemap_s@@@Z ENDP ; CL_FindNearestCubeMapForSurface
_TEXT	ENDS
; Function compile flags: /Odtp /ZI
; File d:\!diffusion 2020\source code 2022\client-server\client\render\r_cubemaps.cpp
;	COMDAT ?CL_FindTwoNearestCubeMap@@YAXABVVector@@PAPAUmcubemap_s@@1@Z
_TEXT	SEGMENT
tv252 = -104						; size = 4
tv250 = -100						; size = 4
tv248 = -96						; size = 4
tv246 = -92						; size = 4
tv244 = -88						; size = 4
_dist$1 = -20						; size = 4
_check$2 = -16						; size = 4
_i$3 = -12						; size = 4
_maxDist2$ = -8						; size = 4
_maxDist1$ = -4						; size = 4
_pos$ = 8						; size = 4
_result1$ = 12						; size = 4
_result2$ = 16						; size = 4
?CL_FindTwoNearestCubeMap@@YAXABVVector@@PAPAUmcubemap_s@@1@Z PROC ; CL_FindTwoNearestCubeMap, COMDAT

; 314  : {

	push	ebp
	mov	ebp, esp
	sub	esp, 104				; 00000068H
	push	ebx
	push	esi
	push	edi

; 315  : 	if (!result1 || !result2)

	cmp	DWORD PTR _result1$[ebp], 0
	je	SHORT $LN6@CL_FindTwo
	cmp	DWORD PTR _result2$[ebp], 0
	jne	SHORT $LN5@CL_FindTwo
$LN6@CL_FindTwo:

; 316  : 		return;

	jmp	$LN1@CL_FindTwo
$LN5@CL_FindTwo:

; 317  : 
; 318  : 	float maxDist1 = 99999.0f;

	movss	xmm0, DWORD PTR __real@47c34f80
	movss	DWORD PTR _maxDist1$[ebp], xmm0

; 319  : 	float maxDist2 = 99999.0f;

	movss	xmm0, DWORD PTR __real@47c34f80
	movss	DWORD PTR _maxDist2$[ebp], xmm0

; 320  : 	*result1 = *result2 = NULL;

	mov	eax, DWORD PTR _result2$[ebp]
	mov	DWORD PTR [eax], 0
	mov	ecx, DWORD PTR _result1$[ebp]
	mov	DWORD PTR [ecx], 0

; 321  : 
; 322  : 	for (int i = 0; i < world->num_cubemaps; i++)

	mov	DWORD PTR _i$3[ebp], 0
	jmp	SHORT $LN4@CL_FindTwo
$LN2@CL_FindTwo:
	mov	eax, DWORD PTR _i$3[ebp]
	add	eax, 1
	mov	DWORD PTR _i$3[ebp], eax
$LN4@CL_FindTwo:
	mov	eax, DWORD PTR ?world@@3PAUgl_world_t@@A ; world
	mov	ecx, DWORD PTR _i$3[ebp]
	cmp	ecx, DWORD PTR [eax+114976]
	jge	$LN3@CL_FindTwo

; 323  : 	{
; 324  : 		mcubemap_t* check = &world->cubemaps[i];

	imul	eax, DWORD PTR _i$3[ebp], 112
	mov	ecx, DWORD PTR ?world@@3PAUgl_world_t@@A ; world
	lea	edx, DWORD PTR [ecx+eax+176]
	mov	DWORD PTR _check$2[ebp], edx

; 325  : 		float dist = VectorDistance(check->origin, pos);

	mov	ecx, DWORD PTR _check$2[ebp]
	add	ecx, 96					; 00000060H
	call	??BVector@@QAEPAMXZ			; Vector::operator float *
	mov	esi, eax
	mov	eax, 4
	imul	edi, eax, 0
	mov	ecx, DWORD PTR _pos$[ebp]
	call	??BVector@@QBEPBMXZ			; Vector::operator float const *
	mov	ecx, 4
	imul	edx, ecx, 0
	movss	xmm0, DWORD PTR [esi+edi]
	subss	xmm0, DWORD PTR [eax+edx]
	mov	ecx, DWORD PTR _check$2[ebp]
	add	ecx, 96					; 00000060H
	movss	DWORD PTR tv244[ebp], xmm0
	call	??BVector@@QAEPAMXZ			; Vector::operator float *
	mov	esi, eax
	mov	eax, 4
	imul	edi, eax, 0
	mov	ecx, DWORD PTR _pos$[ebp]
	call	??BVector@@QBEPBMXZ			; Vector::operator float const *
	mov	ecx, 4
	imul	edx, ecx, 0
	movss	xmm0, DWORD PTR [esi+edi]
	subss	xmm0, DWORD PTR [eax+edx]
	movss	xmm1, DWORD PTR tv244[ebp]
	mulss	xmm1, xmm0
	mov	ecx, DWORD PTR _check$2[ebp]
	add	ecx, 96					; 00000060H
	movss	DWORD PTR tv246[ebp], xmm1
	call	??BVector@@QAEPAMXZ			; Vector::operator float *
	mov	esi, eax
	mov	edi, 4
	shl	edi, 0
	mov	ecx, DWORD PTR _pos$[ebp]
	call	??BVector@@QBEPBMXZ			; Vector::operator float const *
	mov	ecx, 4
	shl	ecx, 0
	movss	xmm0, DWORD PTR [esi+edi]
	subss	xmm0, DWORD PTR [eax+ecx]
	mov	ecx, DWORD PTR _check$2[ebp]
	add	ecx, 96					; 00000060H
	movss	DWORD PTR tv248[ebp], xmm0
	call	??BVector@@QAEPAMXZ			; Vector::operator float *
	mov	esi, eax
	mov	edi, 4
	shl	edi, 0
	mov	ecx, DWORD PTR _pos$[ebp]
	call	??BVector@@QBEPBMXZ			; Vector::operator float const *
	mov	edx, 4
	shl	edx, 0
	movss	xmm0, DWORD PTR [esi+edi]
	subss	xmm0, DWORD PTR [eax+edx]
	movss	xmm1, DWORD PTR tv248[ebp]
	mulss	xmm1, xmm0
	movss	xmm0, DWORD PTR tv246[ebp]
	addss	xmm0, xmm1
	mov	ecx, DWORD PTR _check$2[ebp]
	add	ecx, 96					; 00000060H
	movss	DWORD PTR tv250[ebp], xmm0
	call	??BVector@@QAEPAMXZ			; Vector::operator float *
	mov	esi, eax
	mov	edi, 4
	shl	edi, 1
	mov	ecx, DWORD PTR _pos$[ebp]
	call	??BVector@@QBEPBMXZ			; Vector::operator float const *
	mov	ecx, 4
	shl	ecx, 1
	movss	xmm0, DWORD PTR [esi+edi]
	subss	xmm0, DWORD PTR [eax+ecx]
	mov	ecx, DWORD PTR _check$2[ebp]
	add	ecx, 96					; 00000060H
	movss	DWORD PTR tv252[ebp], xmm0
	call	??BVector@@QAEPAMXZ			; Vector::operator float *
	mov	esi, eax
	mov	edi, 4
	shl	edi, 1
	mov	ecx, DWORD PTR _pos$[ebp]
	call	??BVector@@QBEPBMXZ			; Vector::operator float const *
	mov	edx, 4
	shl	edx, 1
	movss	xmm0, DWORD PTR [esi+edi]
	subss	xmm0, DWORD PTR [eax+edx]
	movss	xmm1, DWORD PTR tv252[ebp]
	mulss	xmm1, xmm0
	movss	xmm0, DWORD PTR tv250[ebp]
	addss	xmm0, xmm1
	cvtss2sd xmm0, xmm0
	sub	esp, 8
	movsd	QWORD PTR [esp], xmm0
	call	_sqrt
	add	esp, 8
	fstp	DWORD PTR _dist$1[ebp]

; 326  : 
; 327  : 		if (dist < maxDist1)

	movss	xmm0, DWORD PTR _maxDist1$[ebp]
	comiss	xmm0, DWORD PTR _dist$1[ebp]
	jbe	SHORT $LN7@CL_FindTwo

; 328  : 		{
; 329  : 			*result1 = check;

	mov	eax, DWORD PTR _result1$[ebp]
	mov	ecx, DWORD PTR _check$2[ebp]
	mov	DWORD PTR [eax], ecx

; 330  : 			maxDist1 = dist;

	movss	xmm0, DWORD PTR _dist$1[ebp]
	movss	DWORD PTR _maxDist1$[ebp], xmm0
	jmp	SHORT $LN9@CL_FindTwo
$LN7@CL_FindTwo:

; 331  : 		}
; 332  : 		else if (dist < maxDist2 && dist > maxDist1)

	movss	xmm0, DWORD PTR _maxDist2$[ebp]
	comiss	xmm0, DWORD PTR _dist$1[ebp]
	jbe	SHORT $LN9@CL_FindTwo
	movss	xmm0, DWORD PTR _dist$1[ebp]
	comiss	xmm0, DWORD PTR _maxDist1$[ebp]
	jbe	SHORT $LN9@CL_FindTwo

; 333  : 		{
; 334  : 			*result2 = check;

	mov	eax, DWORD PTR _result2$[ebp]
	mov	ecx, DWORD PTR _check$2[ebp]
	mov	DWORD PTR [eax], ecx

; 335  : 			maxDist2 = dist;

	movss	xmm0, DWORD PTR _dist$1[ebp]
	movss	DWORD PTR _maxDist2$[ebp], xmm0
$LN9@CL_FindTwo:

; 336  : 		}
; 337  : 	}

	jmp	$LN2@CL_FindTwo
$LN3@CL_FindTwo:

; 338  : 
; 339  : 	if (!*result1)

	mov	eax, DWORD PTR _result1$[ebp]
	cmp	DWORD PTR [eax], 0
	jne	SHORT $LN10@CL_FindTwo

; 340  : 	{
; 341  : 		// this may happen if map
; 342  : 		// doesn't have any cubemaps
; 343  : 		*result1 = &world->defaultCubemap;

	mov	eax, DWORD PTR ?world@@3PAUgl_world_t@@A ; world
	add	eax, 114864				; 0001c0b0H
	mov	ecx, DWORD PTR _result1$[ebp]
	mov	DWORD PTR [ecx], eax
$LN10@CL_FindTwo:

; 344  : 	}
; 345  : 
; 346  : 	if (!*result2)

	mov	eax, DWORD PTR _result2$[ebp]
	cmp	DWORD PTR [eax], 0
	jne	SHORT $LN11@CL_FindTwo

; 347  : 	{
; 348  : 		// this may happen if map
; 349  : 		// doesn't have any cubemaps
; 350  : 		*result2 = *result1;

	mov	eax, DWORD PTR _result2$[ebp]
	mov	ecx, DWORD PTR _result1$[ebp]
	mov	edx, DWORD PTR [ecx]
	mov	DWORD PTR [eax], edx
$LN11@CL_FindTwo:
$LN1@CL_FindTwo:

; 351  : 	}
; 352  : }

	pop	edi
	pop	esi
	pop	ebx
	mov	esp, ebp
	pop	ebp
	ret	0
?CL_FindTwoNearestCubeMap@@YAXABVVector@@PAPAUmcubemap_s@@1@Z ENDP ; CL_FindTwoNearestCubeMap
_TEXT	ENDS
; Function compile flags: /Odtp /ZI
; File d:\!diffusion 2020\source code 2022\client-server\client\render\r_cubemaps.cpp
;	COMDAT ?CL_FindNearestCubeMap@@YAXABVVector@@PAPAUmcubemap_s@@@Z
_TEXT	SEGMENT
tv237 = -100						; size = 4
tv235 = -96						; size = 4
tv233 = -92						; size = 4
tv231 = -88						; size = 4
tv229 = -84						; size = 4
_dist$1 = -16						; size = 4
_check$2 = -12						; size = 4
_i$3 = -8						; size = 4
_maxDist$ = -4						; size = 4
_pos$ = 8						; size = 4
_result$ = 12						; size = 4
?CL_FindNearestCubeMap@@YAXABVVector@@PAPAUmcubemap_s@@@Z PROC ; CL_FindNearestCubeMap, COMDAT

; 239  : {

	push	ebp
	mov	ebp, esp
	sub	esp, 100				; 00000064H
	push	ebx
	push	esi
	push	edi

; 240  : 	if( !result ) return;

	cmp	DWORD PTR _result$[ebp], 0
	jne	SHORT $LN5@CL_FindNea
	jmp	$LN1@CL_FindNea
$LN5@CL_FindNea:

; 241  : 
; 242  : 	float maxDist = 99999.0f;

	movss	xmm0, DWORD PTR __real@47c34f80
	movss	DWORD PTR _maxDist$[ebp], xmm0

; 243  : 	*result = NULL;

	mov	eax, DWORD PTR _result$[ebp]
	mov	DWORD PTR [eax], 0

; 244  : 
; 245  : 	for( int i = 0; i < world->num_cubemaps; i++ )

	mov	DWORD PTR _i$3[ebp], 0
	jmp	SHORT $LN4@CL_FindNea
$LN2@CL_FindNea:
	mov	eax, DWORD PTR _i$3[ebp]
	add	eax, 1
	mov	DWORD PTR _i$3[ebp], eax
$LN4@CL_FindNea:
	mov	eax, DWORD PTR ?world@@3PAUgl_world_t@@A ; world
	mov	ecx, DWORD PTR _i$3[ebp]
	cmp	ecx, DWORD PTR [eax+114976]
	jge	$LN3@CL_FindNea

; 246  : 	{
; 247  : 		mcubemap_t *check = &world->cubemaps[i];

	imul	eax, DWORD PTR _i$3[ebp], 112
	mov	ecx, DWORD PTR ?world@@3PAUgl_world_t@@A ; world
	lea	edx, DWORD PTR [ecx+eax+176]
	mov	DWORD PTR _check$2[ebp], edx

; 248  : 		float dist = VectorDistance( check->origin, pos );

	mov	ecx, DWORD PTR _check$2[ebp]
	add	ecx, 96					; 00000060H
	call	??BVector@@QAEPAMXZ			; Vector::operator float *
	mov	esi, eax
	mov	eax, 4
	imul	edi, eax, 0
	mov	ecx, DWORD PTR _pos$[ebp]
	call	??BVector@@QBEPBMXZ			; Vector::operator float const *
	mov	ecx, 4
	imul	edx, ecx, 0
	movss	xmm0, DWORD PTR [esi+edi]
	subss	xmm0, DWORD PTR [eax+edx]
	mov	ecx, DWORD PTR _check$2[ebp]
	add	ecx, 96					; 00000060H
	movss	DWORD PTR tv229[ebp], xmm0
	call	??BVector@@QAEPAMXZ			; Vector::operator float *
	mov	esi, eax
	mov	eax, 4
	imul	edi, eax, 0
	mov	ecx, DWORD PTR _pos$[ebp]
	call	??BVector@@QBEPBMXZ			; Vector::operator float const *
	mov	ecx, 4
	imul	edx, ecx, 0
	movss	xmm0, DWORD PTR [esi+edi]
	subss	xmm0, DWORD PTR [eax+edx]
	movss	xmm1, DWORD PTR tv229[ebp]
	mulss	xmm1, xmm0
	mov	ecx, DWORD PTR _check$2[ebp]
	add	ecx, 96					; 00000060H
	movss	DWORD PTR tv231[ebp], xmm1
	call	??BVector@@QAEPAMXZ			; Vector::operator float *
	mov	esi, eax
	mov	edi, 4
	shl	edi, 0
	mov	ecx, DWORD PTR _pos$[ebp]
	call	??BVector@@QBEPBMXZ			; Vector::operator float const *
	mov	ecx, 4
	shl	ecx, 0
	movss	xmm0, DWORD PTR [esi+edi]
	subss	xmm0, DWORD PTR [eax+ecx]
	mov	ecx, DWORD PTR _check$2[ebp]
	add	ecx, 96					; 00000060H
	movss	DWORD PTR tv233[ebp], xmm0
	call	??BVector@@QAEPAMXZ			; Vector::operator float *
	mov	esi, eax
	mov	edi, 4
	shl	edi, 0
	mov	ecx, DWORD PTR _pos$[ebp]
	call	??BVector@@QBEPBMXZ			; Vector::operator float const *
	mov	edx, 4
	shl	edx, 0
	movss	xmm0, DWORD PTR [esi+edi]
	subss	xmm0, DWORD PTR [eax+edx]
	movss	xmm1, DWORD PTR tv233[ebp]
	mulss	xmm1, xmm0
	movss	xmm0, DWORD PTR tv231[ebp]
	addss	xmm0, xmm1
	mov	ecx, DWORD PTR _check$2[ebp]
	add	ecx, 96					; 00000060H
	movss	DWORD PTR tv235[ebp], xmm0
	call	??BVector@@QAEPAMXZ			; Vector::operator float *
	mov	esi, eax
	mov	edi, 4
	shl	edi, 1
	mov	ecx, DWORD PTR _pos$[ebp]
	call	??BVector@@QBEPBMXZ			; Vector::operator float const *
	mov	ecx, 4
	shl	ecx, 1
	movss	xmm0, DWORD PTR [esi+edi]
	subss	xmm0, DWORD PTR [eax+ecx]
	mov	ecx, DWORD PTR _check$2[ebp]
	add	ecx, 96					; 00000060H
	movss	DWORD PTR tv237[ebp], xmm0
	call	??BVector@@QAEPAMXZ			; Vector::operator float *
	mov	esi, eax
	mov	edi, 4
	shl	edi, 1
	mov	ecx, DWORD PTR _pos$[ebp]
	call	??BVector@@QBEPBMXZ			; Vector::operator float const *
	mov	edx, 4
	shl	edx, 1
	movss	xmm0, DWORD PTR [esi+edi]
	subss	xmm0, DWORD PTR [eax+edx]
	movss	xmm1, DWORD PTR tv237[ebp]
	mulss	xmm1, xmm0
	movss	xmm0, DWORD PTR tv235[ebp]
	addss	xmm0, xmm1
	cvtss2sd xmm0, xmm0
	sub	esp, 8
	movsd	QWORD PTR [esp], xmm0
	call	_sqrt
	add	esp, 8
	fstp	DWORD PTR _dist$1[ebp]

; 249  : 
; 250  : 		if( dist < maxDist )

	movss	xmm0, DWORD PTR _maxDist$[ebp]
	comiss	xmm0, DWORD PTR _dist$1[ebp]
	jbe	SHORT $LN6@CL_FindNea

; 251  : 		{
; 252  : 			*result = check;

	mov	eax, DWORD PTR _result$[ebp]
	mov	ecx, DWORD PTR _check$2[ebp]
	mov	DWORD PTR [eax], ecx

; 253  : 			maxDist = dist;

	movss	xmm0, DWORD PTR _dist$1[ebp]
	movss	DWORD PTR _maxDist$[ebp], xmm0
$LN6@CL_FindNea:

; 254  : 		}
; 255  : 	}

	jmp	$LN2@CL_FindNea
$LN3@CL_FindNea:

; 256  : 
; 257  : 	if( !*result )

	mov	eax, DWORD PTR _result$[ebp]
	cmp	DWORD PTR [eax], 0
	jne	SHORT $LN7@CL_FindNea

; 258  : 	{
; 259  : 		// this may happens if map
; 260  : 		// doesn't have any cubemaps
; 261  : 		*result = &world->defaultCubemap;

	mov	eax, DWORD PTR ?world@@3PAUgl_world_t@@A ; world
	add	eax, 114864				; 0001c0b0H
	mov	ecx, DWORD PTR _result$[ebp]
	mov	DWORD PTR [ecx], eax
$LN7@CL_FindNea:
$LN1@CL_FindNea:

; 262  : 	}
; 263  : }

	pop	edi
	pop	esi
	pop	ebx
	mov	esp, ebp
	pop	ebp
	ret	0
?CL_FindNearestCubeMap@@YAXABVVector@@PAPAUmcubemap_s@@@Z ENDP ; CL_FindNearestCubeMap
_TEXT	ENDS
; Function compile flags: /Odtp /ZI
;	COMDAT ??0pmtrace_s@@QAE@XZ
_TEXT	SEGMENT
_this$ = -4						; size = 4
??0pmtrace_s@@QAE@XZ PROC				; pmtrace_s::pmtrace_s, COMDAT
; _this$ = ecx
	push	ebp
	mov	ebp, esp
	sub	esp, 68					; 00000044H
	push	ebx
	push	esi
	push	edi
	mov	DWORD PTR _this$[ebp], ecx
	mov	ecx, DWORD PTR _this$[ebp]
	add	ecx, 20					; 00000014H
	call	??0Vector@@QAE@XZ			; Vector::Vector
	mov	ecx, DWORD PTR _this$[ebp]
	add	ecx, 32					; 00000020H
	call	??0pmplane_t@@QAE@XZ
	mov	ecx, DWORD PTR _this$[ebp]
	add	ecx, 52					; 00000034H
	call	??0Vector@@QAE@XZ			; Vector::Vector
	mov	eax, DWORD PTR _this$[ebp]
	pop	edi
	pop	esi
	pop	ebx
	mov	esp, ebp
	pop	ebp
	ret	0
??0pmtrace_s@@QAE@XZ ENDP				; pmtrace_s::pmtrace_s
_TEXT	ENDS
; Function compile flags: /Odtp /ZI
;	COMDAT ??0pmplane_t@@QAE@XZ
_TEXT	SEGMENT
_this$ = -4						; size = 4
??0pmplane_t@@QAE@XZ PROC				; pmplane_t::pmplane_t, COMDAT
; _this$ = ecx
	push	ebp
	mov	ebp, esp
	sub	esp, 68					; 00000044H
	push	ebx
	push	esi
	push	edi
	mov	DWORD PTR _this$[ebp], ecx
	mov	ecx, DWORD PTR _this$[ebp]
	call	??0Vector@@QAE@XZ			; Vector::Vector
	mov	eax, DWORD PTR _this$[ebp]
	pop	edi
	pop	esi
	pop	ebx
	mov	esp, ebp
	pop	ebp
	ret	0
??0pmplane_t@@QAE@XZ ENDP				; pmplane_t::pmplane_t
_TEXT	ENDS
; Function compile flags: /Odtp /ZI
; File d:\!diffusion 2020\source code 2022\client-server\client\enginecallback.h
;	COMDAT ?FILE_EXISTS@@YA_NPBD@Z
_TEXT	SEGMENT
_iCompare$ = -4						; size = 4
_filename$ = 8						; size = 4
?FILE_EXISTS@@YA_NPBD@Z PROC				; FILE_EXISTS, COMDAT

; 159  : {

	push	ebp
	mov	ebp, esp
	sub	esp, 68					; 00000044H
	push	ebx
	push	esi
	push	edi

; 160  : 	int iCompare;
; 161  : 
; 162  : 	// verify file exists
; 163  : 	// g-cont. idea! use COMPARE_FILE_TIME instead of COM_LoadFile
; 164  : 	if( COMPARE_FILE_TIME( filename, filename, &iCompare ))

	lea	eax, DWORD PTR _iCompare$[ebp]
	push	eax
	mov	ecx, DWORD PTR _filename$[ebp]
	push	ecx
	mov	edx, DWORD PTR _filename$[ebp]
	push	edx
	call	DWORD PTR ?gRenderfuncs@@3Urender_api_s@@A+232
	add	esp, 12					; 0000000cH
	test	eax, eax
	je	SHORT $LN2@FILE_EXIST

; 165  : 		return true;

	mov	al, 1
	jmp	SHORT $LN1@FILE_EXIST
$LN2@FILE_EXIST:

; 166  : 	return false;

	xor	al, al
$LN1@FILE_EXIST:

; 167  : }

	pop	edi
	pop	esi
	pop	ebx
	mov	esp, ebp
	pop	ebp
	ret	0
?FILE_EXISTS@@YA_NPBD@Z ENDP				; FILE_EXISTS
_TEXT	ENDS
; Function compile flags: /Odtp /ZI
;	COMDAT ??0mplane_s@@QAE@XZ
_TEXT	SEGMENT
_this$ = -4						; size = 4
??0mplane_s@@QAE@XZ PROC				; mplane_s::mplane_s, COMDAT
; _this$ = ecx
	push	ebp
	mov	ebp, esp
	sub	esp, 68					; 00000044H
	push	ebx
	push	esi
	push	edi
	mov	DWORD PTR _this$[ebp], ecx
	mov	ecx, DWORD PTR _this$[ebp]
	call	??0Vector@@QAE@XZ			; Vector::Vector
	mov	eax, DWORD PTR _this$[ebp]
	pop	edi
	pop	esi
	pop	ebx
	mov	esp, ebp
	pop	ebp
	ret	0
??0mplane_s@@QAE@XZ ENDP				; mplane_s::mplane_s
_TEXT	ENDS
; Function compile flags: /Odtp /ZI
; File d:\!diffusion 2020\source code 2022\client-server\game_shared\vector.h
;	COMDAT ?DotProduct@@YAMABVVector@@0@Z
_TEXT	SEGMENT
tv86 = -68						; size = 4
_a$ = 8							; size = 4
_b$ = 12						; size = 4
?DotProduct@@YAMABVVector@@0@Z PROC			; DotProduct, COMDAT

; 308  : inline float DotProduct(const Vector& a, const Vector& b ) { return( a.x * b.x + a.y * b.y + a.z * b.z ); }

	push	ebp
	mov	ebp, esp
	sub	esp, 68					; 00000044H
	push	ebx
	push	esi
	push	edi
	mov	eax, DWORD PTR _a$[ebp]
	mov	ecx, DWORD PTR _b$[ebp]
	movss	xmm0, DWORD PTR [eax]
	mulss	xmm0, DWORD PTR [ecx]
	mov	edx, DWORD PTR _a$[ebp]
	mov	eax, DWORD PTR _b$[ebp]
	movss	xmm1, DWORD PTR [edx+4]
	mulss	xmm1, DWORD PTR [eax+4]
	addss	xmm0, xmm1
	mov	ecx, DWORD PTR _a$[ebp]
	mov	edx, DWORD PTR _b$[ebp]
	movss	xmm1, DWORD PTR [ecx+8]
	mulss	xmm1, DWORD PTR [edx+8]
	addss	xmm0, xmm1
	movss	DWORD PTR tv86[ebp], xmm0
	fld	DWORD PTR tv86[ebp]
	pop	edi
	pop	esi
	pop	ebx
	mov	esp, ebp
	pop	ebp
	ret	0
?DotProduct@@YAMABVVector@@0@Z ENDP			; DotProduct
_TEXT	ENDS
; Function compile flags: /Odtp /ZI
; File d:\!diffusion 2020\source code 2022\client-server\game_shared\vector.h
;	COMDAT ??BVector@@QBEPBMXZ
_TEXT	SEGMENT
_this$ = -4						; size = 4
??BVector@@QBEPBMXZ PROC				; Vector::operator float const *, COMDAT
; _this$ = ecx

; 248  : 	operator const float *() const		{ return &x; } 

	push	ebp
	mov	ebp, esp
	sub	esp, 68					; 00000044H
	push	ebx
	push	esi
	push	edi
	mov	DWORD PTR _this$[ebp], ecx
	mov	eax, DWORD PTR _this$[ebp]
	pop	edi
	pop	esi
	pop	ebx
	mov	esp, ebp
	pop	ebp
	ret	0
??BVector@@QBEPBMXZ ENDP				; Vector::operator float const *
_TEXT	ENDS
; Function compile flags: /Odtp /ZI
; File d:\!diffusion 2020\source code 2022\client-server\game_shared\vector.h
;	COMDAT ??BVector@@QAEPAMXZ
_TEXT	SEGMENT
_this$ = -4						; size = 4
??BVector@@QAEPAMXZ PROC				; Vector::operator float *, COMDAT
; _this$ = ecx

; 247  : 	operator float *()				{ return &x; } // Vectors will now automatically convert to float * when needed

	push	ebp
	mov	ebp, esp
	sub	esp, 68					; 00000044H
	push	ebx
	push	esi
	push	edi
	mov	DWORD PTR _this$[ebp], ecx
	mov	eax, DWORD PTR _this$[ebp]
	pop	edi
	pop	esi
	pop	ebx
	mov	esp, ebp
	pop	ebp
	ret	0
??BVector@@QAEPAMXZ ENDP				; Vector::operator float *
_TEXT	ENDS
; Function compile flags: /Odtp /ZI
; File d:\!diffusion 2020\source code 2022\client-server\game_shared\vector.h
;	COMDAT ?Length@Vector@@QBEMXZ
_TEXT	SEGMENT
tv91 = -72						; size = 4
_this$ = -4						; size = 4
?Length@Vector@@QBEMXZ PROC				; Vector::Length, COMDAT
; _this$ = ecx

; 245  : 	inline float Length(void) const		{ return sqrt( x*x + y*y + z*z ); }

	push	ebp
	mov	ebp, esp
	sub	esp, 72					; 00000048H
	push	ebx
	push	esi
	push	edi
	mov	DWORD PTR _this$[ebp], ecx
	mov	eax, DWORD PTR _this$[ebp]
	mov	ecx, DWORD PTR _this$[ebp]
	movss	xmm0, DWORD PTR [eax]
	mulss	xmm0, DWORD PTR [ecx]
	mov	edx, DWORD PTR _this$[ebp]
	mov	eax, DWORD PTR _this$[ebp]
	movss	xmm1, DWORD PTR [edx+4]
	mulss	xmm1, DWORD PTR [eax+4]
	addss	xmm0, xmm1
	mov	ecx, DWORD PTR _this$[ebp]
	mov	edx, DWORD PTR _this$[ebp]
	movss	xmm1, DWORD PTR [ecx+8]
	mulss	xmm1, DWORD PTR [edx+8]
	addss	xmm0, xmm1
	cvtss2sd xmm0, xmm0
	sub	esp, 8
	movsd	QWORD PTR [esp], xmm0
	call	_sqrt
	add	esp, 8
	fstp	DWORD PTR tv91[ebp]
	fld	DWORD PTR tv91[ebp]
	pop	edi
	pop	esi
	pop	ebx
	mov	esp, ebp
	pop	ebp
	ret	0
?Length@Vector@@QBEMXZ ENDP				; Vector::Length
_TEXT	ENDS
; Function compile flags: /Odtp /ZI
; File d:\!diffusion 2020\source code 2022\client-server\game_shared\vector.h
;	COMDAT ??DVector@@QBE?AV0@M@Z
_TEXT	SEGMENT
_this$ = -4						; size = 4
___$ReturnUdt$ = 8					; size = 4
_fl$ = 12						; size = 4
??DVector@@QBE?AV0@M@Z PROC				; Vector::operator*, COMDAT
; _this$ = ecx

; 162  : 	inline Vector operator*(float fl) const		{ return Vector(x*fl, y*fl, z*fl);	   }

	push	ebp
	mov	ebp, esp
	sub	esp, 68					; 00000044H
	push	ebx
	push	esi
	push	edi
	mov	DWORD PTR _this$[ebp], ecx
	mov	eax, DWORD PTR _this$[ebp]
	movss	xmm0, DWORD PTR [eax+8]
	mulss	xmm0, DWORD PTR _fl$[ebp]
	push	ecx
	movss	DWORD PTR [esp], xmm0
	mov	ecx, DWORD PTR _this$[ebp]
	movss	xmm0, DWORD PTR [ecx+4]
	mulss	xmm0, DWORD PTR _fl$[ebp]
	push	ecx
	movss	DWORD PTR [esp], xmm0
	mov	edx, DWORD PTR _this$[ebp]
	movss	xmm0, DWORD PTR [edx]
	mulss	xmm0, DWORD PTR _fl$[ebp]
	push	ecx
	movss	DWORD PTR [esp], xmm0
	mov	ecx, DWORD PTR ___$ReturnUdt$[ebp]
	call	??0Vector@@QAE@MMM@Z			; Vector::Vector
	mov	eax, DWORD PTR ___$ReturnUdt$[ebp]
	pop	edi
	pop	esi
	pop	ebx
	mov	esp, ebp
	pop	ebp
	ret	8
??DVector@@QBE?AV0@M@Z ENDP				; Vector::operator*
_TEXT	ENDS
; Function compile flags: /Odtp /ZI
; File d:\!diffusion 2020\source code 2022\client-server\game_shared\vector.h
;	COMDAT ??GVector@@QBE?AV0@ABV0@@Z
_TEXT	SEGMENT
_this$ = -4						; size = 4
___$ReturnUdt$ = 8					; size = 4
_v$ = 12						; size = 4
??GVector@@QBE?AV0@ABV0@@Z PROC				; Vector::operator-, COMDAT
; _this$ = ecx

; 159  : 	inline Vector operator-(const Vector& v) const	{ return Vector(x-v.x, y-v.y, z-v.z);	   }

	push	ebp
	mov	ebp, esp
	sub	esp, 68					; 00000044H
	push	ebx
	push	esi
	push	edi
	mov	DWORD PTR _this$[ebp], ecx
	mov	eax, DWORD PTR _this$[ebp]
	mov	ecx, DWORD PTR _v$[ebp]
	movss	xmm0, DWORD PTR [eax+8]
	subss	xmm0, DWORD PTR [ecx+8]
	push	ecx
	movss	DWORD PTR [esp], xmm0
	mov	edx, DWORD PTR _this$[ebp]
	mov	eax, DWORD PTR _v$[ebp]
	movss	xmm0, DWORD PTR [edx+4]
	subss	xmm0, DWORD PTR [eax+4]
	push	ecx
	movss	DWORD PTR [esp], xmm0
	mov	ecx, DWORD PTR _this$[ebp]
	mov	edx, DWORD PTR _v$[ebp]
	movss	xmm0, DWORD PTR [ecx]
	subss	xmm0, DWORD PTR [edx]
	push	ecx
	movss	DWORD PTR [esp], xmm0
	mov	ecx, DWORD PTR ___$ReturnUdt$[ebp]
	call	??0Vector@@QAE@MMM@Z			; Vector::Vector
	mov	eax, DWORD PTR ___$ReturnUdt$[ebp]
	pop	edi
	pop	esi
	pop	ebx
	mov	esp, ebp
	pop	ebp
	ret	8
??GVector@@QBE?AV0@ABV0@@Z ENDP				; Vector::operator-
_TEXT	ENDS
; Function compile flags: /Odtp /ZI
; File d:\!diffusion 2020\source code 2022\client-server\game_shared\vector.h
;	COMDAT ??HVector@@QBE?AV0@ABV0@@Z
_TEXT	SEGMENT
_this$ = -4						; size = 4
___$ReturnUdt$ = 8					; size = 4
_v$ = 12						; size = 4
??HVector@@QBE?AV0@ABV0@@Z PROC				; Vector::operator+, COMDAT
; _this$ = ecx

; 158  : 	inline Vector operator+(const Vector& v) const	{ return Vector(x+v.x, y+v.y, z+v.z);	   }

	push	ebp
	mov	ebp, esp
	sub	esp, 68					; 00000044H
	push	ebx
	push	esi
	push	edi
	mov	DWORD PTR _this$[ebp], ecx
	mov	eax, DWORD PTR _this$[ebp]
	mov	ecx, DWORD PTR _v$[ebp]
	movss	xmm0, DWORD PTR [eax+8]
	addss	xmm0, DWORD PTR [ecx+8]
	push	ecx
	movss	DWORD PTR [esp], xmm0
	mov	edx, DWORD PTR _this$[ebp]
	mov	eax, DWORD PTR _v$[ebp]
	movss	xmm0, DWORD PTR [edx+4]
	addss	xmm0, DWORD PTR [eax+4]
	push	ecx
	movss	DWORD PTR [esp], xmm0
	mov	ecx, DWORD PTR _this$[ebp]
	mov	edx, DWORD PTR _v$[ebp]
	movss	xmm0, DWORD PTR [ecx]
	addss	xmm0, DWORD PTR [edx]
	push	ecx
	movss	DWORD PTR [esp], xmm0
	mov	ecx, DWORD PTR ___$ReturnUdt$[ebp]
	call	??0Vector@@QAE@MMM@Z			; Vector::Vector
	mov	eax, DWORD PTR ___$ReturnUdt$[ebp]
	pop	edi
	pop	esi
	pop	ebx
	mov	esp, ebp
	pop	ebp
	ret	8
??HVector@@QBE?AV0@ABV0@@Z ENDP				; Vector::operator+
_TEXT	ENDS
; Function compile flags: /Odtp /ZI
; File d:\!diffusion 2020\source code 2022\client-server\game_shared\vector.h
;	COMDAT ??GVector@@QBE?AV0@XZ
_TEXT	SEGMENT
_this$ = -4						; size = 4
___$ReturnUdt$ = 8					; size = 4
??GVector@@QBE?AV0@XZ PROC				; Vector::operator-, COMDAT
; _this$ = ecx

; 155  : 	inline Vector operator-(void) const		{ return Vector(-x,-y,-z);		   }

	push	ebp
	mov	ebp, esp
	sub	esp, 68					; 00000044H
	push	ebx
	push	esi
	push	edi
	mov	DWORD PTR _this$[ebp], ecx
	mov	eax, DWORD PTR _this$[ebp]
	movss	xmm0, DWORD PTR [eax+8]
	xorps	xmm0, DWORD PTR __xmm@80000000800000008000000080000000
	push	ecx
	movss	DWORD PTR [esp], xmm0
	mov	ecx, DWORD PTR _this$[ebp]
	movss	xmm0, DWORD PTR [ecx+4]
	xorps	xmm0, DWORD PTR __xmm@80000000800000008000000080000000
	push	ecx
	movss	DWORD PTR [esp], xmm0
	mov	edx, DWORD PTR _this$[ebp]
	movss	xmm0, DWORD PTR [edx]
	xorps	xmm0, DWORD PTR __xmm@80000000800000008000000080000000
	push	ecx
	movss	DWORD PTR [esp], xmm0
	mov	ecx, DWORD PTR ___$ReturnUdt$[ebp]
	call	??0Vector@@QAE@MMM@Z			; Vector::Vector
	mov	eax, DWORD PTR ___$ReturnUdt$[ebp]
	pop	edi
	pop	esi
	pop	ebx
	mov	esp, ebp
	pop	ebp
	ret	4
??GVector@@QBE?AV0@XZ ENDP				; Vector::operator-
_TEXT	ENDS
; Function compile flags: /Odtp /ZI
; File d:\!diffusion 2020\source code 2022\client-server\game_shared\vector.h
;	COMDAT ??0Vector@@QAE@MMM@Z
_TEXT	SEGMENT
_this$ = -4						; size = 4
_X$ = 8							; size = 4
_Y$ = 12						; size = 4
_Z$ = 16						; size = 4
??0Vector@@QAE@MMM@Z PROC				; Vector::Vector, COMDAT
; _this$ = ecx

; 144  : 	inline Vector(float X, float Y, float Z)	{ x = X; y = Y; z = Z;                     }

	push	ebp
	mov	ebp, esp
	sub	esp, 68					; 00000044H
	push	ebx
	push	esi
	push	edi
	mov	DWORD PTR _this$[ebp], ecx
	mov	eax, DWORD PTR _this$[ebp]
	movss	xmm0, DWORD PTR _X$[ebp]
	movss	DWORD PTR [eax], xmm0
	mov	eax, DWORD PTR _this$[ebp]
	movss	xmm0, DWORD PTR _Y$[ebp]
	movss	DWORD PTR [eax+4], xmm0
	mov	eax, DWORD PTR _this$[ebp]
	movss	xmm0, DWORD PTR _Z$[ebp]
	movss	DWORD PTR [eax+8], xmm0
	mov	eax, DWORD PTR _this$[ebp]
	pop	edi
	pop	esi
	pop	ebx
	mov	esp, ebp
	pop	ebp
	ret	12					; 0000000cH
??0Vector@@QAE@MMM@Z ENDP				; Vector::Vector
_TEXT	ENDS
; Function compile flags: /Odtp /ZI
; File d:\!diffusion 2020\source code 2022\client-server\game_shared\vector.h
;	COMDAT ??0Vector@@QAE@XZ
_TEXT	SEGMENT
_this$ = -4						; size = 4
??0Vector@@QAE@XZ PROC					; Vector::Vector, COMDAT
; _this$ = ecx

; 143  : 	inline Vector(void)				{ }

	push	ebp
	mov	ebp, esp
	sub	esp, 68					; 00000044H
	push	ebx
	push	esi
	push	edi
	mov	DWORD PTR _this$[ebp], ecx
	mov	eax, DWORD PTR _this$[ebp]
	pop	edi
	pop	esi
	pop	ebx
	mov	esp, ebp
	pop	ebp
	ret	0
??0Vector@@QAE@XZ ENDP					; Vector::Vector
_TEXT	ENDS
; Function compile flags: /Odtp /ZI
;	COMDAT ??__G@YGXPAX0IIP6EPAX00@Z@Z
_TEXT	SEGMENT
tv66 = -68						; size = 4
___t$ = 8						; size = 4
___u$ = 12						; size = 4
___s$ = 16						; size = 4
___n$ = 20						; size = 4
___f$ = 24						; size = 4
??__G@YGXPAX0IIP6EPAX00@Z@Z PROC			; `vector copy constructor iterator', COMDAT
	push	ebp
	mov	ebp, esp
	sub	esp, 68					; 00000044H
	push	ebx
	push	esi
	push	edi
$LN2@vector:
	mov	eax, DWORD PTR ___n$[ebp]
	mov	DWORD PTR tv66[ebp], eax
	mov	ecx, DWORD PTR ___n$[ebp]
	sub	ecx, 1
	mov	DWORD PTR ___n$[ebp], ecx
	cmp	DWORD PTR tv66[ebp], 0
	jbe	SHORT $LN1@vector
	mov	eax, DWORD PTR ___u$[ebp]
	push	eax
	mov	ecx, DWORD PTR ___t$[ebp]
	call	DWORD PTR ___f$[ebp]
	mov	eax, DWORD PTR ___t$[ebp]
	add	eax, DWORD PTR ___s$[ebp]
	mov	DWORD PTR ___t$[ebp], eax
	mov	eax, DWORD PTR ___u$[ebp]
	add	eax, DWORD PTR ___s$[ebp]
	mov	DWORD PTR ___u$[ebp], eax
	jmp	SHORT $LN2@vector
$LN1@vector:
	pop	edi
	pop	esi
	pop	ebx
	mov	esp, ebp
	pop	ebp
	ret	20					; 00000014H
??__G@YGXPAX0IIP6EPAX00@Z@Z ENDP			; `vector copy constructor iterator'
_TEXT	ENDS
; Function compile flags: /Odtp /ZI
;	COMDAT ??_H@YGXPAXIIP6EPAX0@Z@Z
_TEXT	SEGMENT
tv66 = -68						; size = 4
___t$ = 8						; size = 4
___s$ = 12						; size = 4
___n$ = 16						; size = 4
___f$ = 20						; size = 4
??_H@YGXPAXIIP6EPAX0@Z@Z PROC				; `vector constructor iterator', COMDAT
	push	ebp
	mov	ebp, esp
	sub	esp, 68					; 00000044H
	push	ebx
	push	esi
	push	edi
$LN2@vector:
	mov	eax, DWORD PTR ___n$[ebp]
	mov	DWORD PTR tv66[ebp], eax
	mov	ecx, DWORD PTR ___n$[ebp]
	sub	ecx, 1
	mov	DWORD PTR ___n$[ebp], ecx
	cmp	DWORD PTR tv66[ebp], 0
	jbe	SHORT $LN1@vector
	mov	ecx, DWORD PTR ___t$[ebp]
	call	DWORD PTR ___f$[ebp]
	mov	eax, DWORD PTR ___t$[ebp]
	add	eax, DWORD PTR ___s$[ebp]
	mov	DWORD PTR ___t$[ebp], eax
	jmp	SHORT $LN2@vector
$LN1@vector:
	pop	edi
	pop	esi
	pop	ebx
	mov	esp, ebp
	pop	ebp
	ret	16					; 00000010H
??_H@YGXPAXIIP6EPAX0@Z@Z ENDP				; `vector constructor iterator'
_TEXT	ENDS
END
