; Listing generated by Microsoft (R) Optimizing Compiler Version 19.00.24247.2 

	TITLE	D:\!DIFFUSION 2020\source code 2022\client-server\client\render\r_debug.cpp
	.686P
	.XMM
	include listing.inc
	.model	flat

INCLUDELIB LIBCMT
INCLUDELIB OLDNAMES

PUBLIC	??_H@YGXPAXIIP6EPAX0@Z@Z			; `vector constructor iterator'
PUBLIC	??__G@YGXPAX0IIP6EPAX00@Z@Z			; `vector copy constructor iterator'
PUBLIC	??0Vector@@QAE@XZ				; Vector::Vector
PUBLIC	??0Vector@@QAE@MMM@Z				; Vector::Vector
PUBLIC	??0Vector@@QAE@ABV0@@Z				; Vector::Vector
PUBLIC	??HVector@@QBE?AV0@ABV0@@Z			; Vector::operator+
PUBLIC	??DVector@@QBE?AV0@M@Z				; Vector::operator*
PUBLIC	??BVector@@QAEPAMXZ				; Vector::operator float *
PUBLIC	??BVector@@QBEPBMXZ				; Vector::operator float const *
PUBLIC	?R_DrawScissorRectangle@@YAXMMMM@Z		; R_DrawScissorRectangle
PUBLIC	?DBG_DrawBBox@@YAXABVVector@@0@Z		; DBG_DrawBBox
PUBLIC	?R_DrawRenderPasses@@YAXH@Z			; R_DrawRenderPasses
PUBLIC	?R_DrawLightScissors@@YAXXZ			; R_DrawLightScissors
PUBLIC	?DrawLightProbes@@YAXXZ				; DrawLightProbes
PUBLIC	?DrawWireFrame@@YAXXZ				; DrawWireFrame
PUBLIC	?DrawNormals@@YAXXZ				; DrawNormals
PUBLIC	?ValidateFBO@@YA_NXZ				; ValidateFBO
PUBLIC	?R_RenderLightProbe@@YAXPAUmlightprobe_t@@@Z	; R_RenderLightProbe
PUBLIC	??_C@_0CJ@IKIHKAAN@ValidateFBO?3?5attachment?5is?5NOT?5c@ ; `string'
PUBLIC	??_C@_0CK@EINOHLAP@ValidateFBO?3?5no?5image?5is?5attache@ ; `string'
PUBLIC	??_C@_0DI@PAADALD@ValidateFBO?3?5attached?5images?5hav@ ; `string'
PUBLIC	??_C@_0EE@PBAHJGBK@ValidateFBO?3?5color?5attached?5imag@ ; `string'
PUBLIC	??_C@_0CF@MDFDFHFB@ValidateFBO?3?5draw?5buffer?5incompl@ ; `string'
PUBLIC	??_C@_0CF@ELDEPENB@ValidateFBO?3?5read?5buffer?5incompl@ ; `string'
PUBLIC	??_C@_0DI@FCGOENLJ@ValidateFBO?3?5unsupported?5by?5curr@ ; `string'
PUBLIC	??_C@_0BM@FEEOMNJC@ValidateFBO?3?5unknown?5error?6?$AA@ ; `string'
PUBLIC	__real@00000000
PUBLIC	__real@3dcccccd
PUBLIC	__real@3f000000
PUBLIC	__real@3f7d70a4
PUBLIC	__real@3f800000
PUBLIC	__real@40800000
PUBLIC	__real@45f00800
PUBLIC	__xmm@80000000800000008000000080000000
EXTRN	__Init_thread_header:PROC
EXTRN	__Init_thread_abort:PROC
EXTRN	__Init_thread_footer:PROC
EXTRN	?ALERT@@YAXW4ALERT_TYPE@@PADZZ:PROC		; ALERT
EXTRN	?Mod_CheckBoxVisible@@YA_NABVVector@@0@Z:PROC	; Mod_CheckBoxVisible
EXTRN	?UTIL_IsLocal@@YA_NH@Z:PROC			; UTIL_IsLocal
EXTRN	?DrawFrustumDebug@CFrustum@@QAEXXZ:PROC		; CFrustum::DrawFrustumDebug
EXTRN	?CullBox@CFrustum@@QAE_NABVVector@@0H@Z:PROC	; CFrustum::CullBox
EXTRN	?GL_Support@@YA_NH@Z:PROC			; GL_Support
EXTRN	?GL_Blend@@YAXH@Z:PROC				; GL_Blend
EXTRN	?GL_Setup2D@@YAXXZ:PROC				; GL_Setup2D
EXTRN	?GL_Setup3D@@YAXXZ:PROC				; GL_Setup3D
EXTRN	@__security_check_cookie@4:PROC
EXTRN	___CxxFrameHandler3:PROC
EXTRN	__Init_thread_epoch:DWORD
EXTRN	?gRenderfuncs@@3Urender_api_s@@A:BYTE		; gRenderfuncs
EXTRN	?pglBegin@@3P6GXI@ZA:DWORD			; pglBegin
EXTRN	?pglBlendFunc@@3P6GXII@ZA:DWORD			; pglBlendFunc
EXTRN	?pglColor3f@@3P6GXMMM@ZA:DWORD			; pglColor3f
EXTRN	?pglColor3ub@@3P6GXEEE@ZA:DWORD			; pglColor3ub
EXTRN	?pglColor4f@@3P6GXMMMM@ZA:DWORD			; pglColor4f
EXTRN	?pglDisable@@3P6GXI@ZA:DWORD			; pglDisable
EXTRN	?pglEnable@@3P6GXI@ZA:DWORD			; pglEnable
EXTRN	?pglEnd@@3P6GXXZA:DWORD				; pglEnd
EXTRN	?pglHint@@3P6GXII@ZA:DWORD			; pglHint
EXTRN	?pglPolygonMode@@3P6GXII@ZA:DWORD		; pglPolygonMode
EXTRN	?pglTexCoord2f@@3P6GXMM@ZA:DWORD		; pglTexCoord2f
EXTRN	?pglTexEnvf@@3P6GXIIM@ZA:DWORD			; pglTexEnvf
EXTRN	?pglVertex2f@@3P6GXMM@ZA:DWORD			; pglVertex2f
EXTRN	?pglVertex3fv@@3P6GXPBM@ZA:DWORD		; pglVertex3fv
EXTRN	?pglCheckFramebufferStatus@@3P6GII@ZA:DWORD	; pglCheckFramebufferStatus
EXTRN	?r_wireframe@@3PAUcvar_s@@A:DWORD		; r_wireframe
EXTRN	?worldmodel@@3PAUmodel_s@@A:DWORD		; worldmodel
EXTRN	?RI@@3PAUref_instance_t@@A:DWORD		; RI
EXTRN	?tr@@3Uref_globals_t@@A:BYTE			; tr
EXTRN	?cl_plights@@3PAUplight_s@@A:BYTE		; cl_plights
EXTRN	?glState@@3UglState_t@@A:BYTE			; glState
EXTRN	?world@@3PAUgl_world_t@@A:DWORD			; world
EXTRN	___security_cookie:DWORD
EXTRN	__fltused:DWORD
EXTRN	__tls_array:DWORD
EXTRN	__tls_index:DWORD
_BSS	SEGMENT
?side@?1??CubeSide@@YAPAMVVector@@MH@Z@4V2@A DB 0cH DUP (?) ; `CubeSide'::`2'::side
?$TSS0@?1??CubeSide@@YAPAMVVector@@MH@Z@4HA DD 01H DUP (?) ; `CubeSide'::`2'::$TSS0
_BSS	ENDS
;	COMDAT __xmm@80000000800000008000000080000000
CONST	SEGMENT
__xmm@80000000800000008000000080000000 DB 00H, 00H, 00H, 080H, 00H, 00H, 00H
	DB	080H, 00H, 00H, 00H, 080H, 00H, 00H, 00H, 080H
CONST	ENDS
;	COMDAT __real@45f00800
CONST	SEGMENT
__real@45f00800 DD 045f00800r			; 7681
CONST	ENDS
;	COMDAT __real@40800000
CONST	SEGMENT
__real@40800000 DD 040800000r			; 4
CONST	ENDS
;	COMDAT __real@3f800000
CONST	SEGMENT
__real@3f800000 DD 03f800000r			; 1
CONST	ENDS
;	COMDAT __real@3f7d70a4
CONST	SEGMENT
__real@3f7d70a4 DD 03f7d70a4r			; 0.99
CONST	ENDS
;	COMDAT __real@3f000000
CONST	SEGMENT
__real@3f000000 DD 03f000000r			; 0.5
CONST	ENDS
;	COMDAT __real@3dcccccd
CONST	SEGMENT
__real@3dcccccd DD 03dcccccdr			; 0.1
CONST	ENDS
;	COMDAT __real@00000000
CONST	SEGMENT
__real@00000000 DD 000000000r			; 0
CONST	ENDS
;	COMDAT ??_C@_0BM@FEEOMNJC@ValidateFBO?3?5unknown?5error?6?$AA@
CONST	SEGMENT
??_C@_0BM@FEEOMNJC@ValidateFBO?3?5unknown?5error?6?$AA@ DB 'ValidateFBO: '
	DB	'unknown error', 0aH, 00H			; `string'
CONST	ENDS
;	COMDAT ??_C@_0DI@FCGOENLJ@ValidateFBO?3?5unsupported?5by?5curr@
CONST	SEGMENT
??_C@_0DI@FCGOENLJ@ValidateFBO?3?5unsupported?5by?5curr@ DB 'ValidateFBO:'
	DB	' unsupported by current FBO implementation', 0aH, 00H ; `string'
CONST	ENDS
;	COMDAT ??_C@_0CF@ELDEPENB@ValidateFBO?3?5read?5buffer?5incompl@
CONST	SEGMENT
??_C@_0CF@ELDEPENB@ValidateFBO?3?5read?5buffer?5incompl@ DB 'ValidateFBO:'
	DB	' read buffer incomplete', 0aH, 00H		; `string'
CONST	ENDS
;	COMDAT ??_C@_0CF@MDFDFHFB@ValidateFBO?3?5draw?5buffer?5incompl@
CONST	SEGMENT
??_C@_0CF@MDFDFHFB@ValidateFBO?3?5draw?5buffer?5incompl@ DB 'ValidateFBO:'
	DB	' draw buffer incomplete', 0aH, 00H		; `string'
CONST	ENDS
;	COMDAT ??_C@_0EE@PBAHJGBK@ValidateFBO?3?5color?5attached?5imag@
CONST	SEGMENT
??_C@_0EE@PBAHJGBK@ValidateFBO?3?5color?5attached?5imag@ DB 'ValidateFBO:'
	DB	' color attached images have different internal formats', 0aH, 00H ; `string'
CONST	ENDS
;	COMDAT ??_C@_0DI@PAADALD@ValidateFBO?3?5attached?5images?5hav@
CONST	SEGMENT
??_C@_0DI@PAADALD@ValidateFBO?3?5attached?5images?5hav@ DB 'ValidateFBO: '
	DB	'attached images have different dimensions', 0aH, 00H ; `string'
CONST	ENDS
;	COMDAT ??_C@_0CK@EINOHLAP@ValidateFBO?3?5no?5image?5is?5attache@
CONST	SEGMENT
??_C@_0CK@EINOHLAP@ValidateFBO?3?5no?5image?5is?5attache@ DB 'ValidateFBO'
	DB	': no image is attached to FBO', 0aH, 00H	; `string'
CONST	ENDS
;	COMDAT ??_C@_0CJ@IKIHKAAN@ValidateFBO?3?5attachment?5is?5NOT?5c@
CONST	SEGMENT
??_C@_0CJ@IKIHKAAN@ValidateFBO?3?5attachment?5is?5NOT?5c@ DB 'ValidateFBO'
	DB	': attachment is NOT complete', 0aH, 00H	; `string'
CONST	ENDS
;	COMDAT xdata$x
xdata$x	SEGMENT
__unwindtable$?CubeSide@@YAPAMVVector@@MH@Z DD 0ffffffffH
	DD	FLAT:__unwindfunclet$?CubeSide@@YAPAMVVector@@MH@Z$0
__ehfuncinfo$?CubeSide@@YAPAMVVector@@MH@Z DD 019930522H
	DD	01H
	DD	FLAT:__unwindtable$?CubeSide@@YAPAMVVector@@MH@Z
	DD	2 DUP(00H)
	DD	2 DUP(00H)
	DD	00H
	DD	01H
xdata$x	ENDS
; Function compile flags: /Odtp /ZI
; File d:\!diffusion 2020\source code 2022\client-server\client\render\r_debug.cpp
;	COMDAT ?R_RenderLightProbe@@YAXPAUmlightprobe_t@@@Z
_TEXT	SEGMENT
_rad$ = -4						; size = 4
_probe$ = 8						; size = 4
?R_RenderLightProbe@@YAXPAUmlightprobe_t@@@Z PROC	; R_RenderLightProbe, COMDAT

; 58   : {

	push	ebp
	mov	ebp, esp
	sub	esp, 92					; 0000005cH
	push	ebx
	push	esi
	push	edi

; 59   : 	float	rad = 4.0f;

	movss	xmm0, DWORD PTR __real@40800000
	movss	DWORD PTR _rad$[ebp], xmm0

; 60   : 
; 61   : 	pglBegin( GL_QUADS );

	push	7
	call	DWORD PTR ?pglBegin@@3P6GXI@ZA		; pglBegin

; 62   : 
; 63   : 	CubeFace( probe->origin, 4, 6, 2, 0, rad, probe->cube.color[0] );

	mov	eax, 3
	imul	ecx, eax, 0
	add	ecx, DWORD PTR _probe$[ebp]
	push	ecx
	push	ecx
	movss	xmm0, DWORD PTR _rad$[ebp]
	movss	DWORD PTR [esp], xmm0
	push	0
	push	2
	push	6
	push	4
	mov	edx, DWORD PTR _probe$[ebp]
	add	edx, 20					; 00000014H
	sub	esp, 12					; 0000000cH
	mov	ecx, esp
	push	edx
	call	??0Vector@@QAE@ABV0@@Z			; Vector::Vector
	call	?CubeFace@@YAXVVector@@HHHHMPBE@Z	; CubeFace
	add	esp, 36					; 00000024H

; 64   : 	CubeFace( probe->origin, 7, 5, 1, 3, rad, probe->cube.color[1] );

	mov	eax, 3
	shl	eax, 0
	add	eax, DWORD PTR _probe$[ebp]
	push	eax
	push	ecx
	movss	xmm0, DWORD PTR _rad$[ebp]
	movss	DWORD PTR [esp], xmm0
	push	3
	push	1
	push	5
	push	7
	mov	ecx, DWORD PTR _probe$[ebp]
	add	ecx, 20					; 00000014H
	sub	esp, 12					; 0000000cH
	mov	edx, esp
	push	ecx
	mov	ecx, edx
	call	??0Vector@@QAE@ABV0@@Z			; Vector::Vector
	call	?CubeFace@@YAXVVector@@HHHHMPBE@Z	; CubeFace
	add	esp, 36					; 00000024H

; 65   : 	CubeFace( probe->origin, 0, 1, 5, 4, rad, probe->cube.color[2] );

	mov	eax, 3
	shl	eax, 1
	add	eax, DWORD PTR _probe$[ebp]
	push	eax
	push	ecx
	movss	xmm0, DWORD PTR _rad$[ebp]
	movss	DWORD PTR [esp], xmm0
	push	4
	push	5
	push	1
	push	0
	mov	ecx, DWORD PTR _probe$[ebp]
	add	ecx, 20					; 00000014H
	sub	esp, 12					; 0000000cH
	mov	edx, esp
	push	ecx
	mov	ecx, edx
	call	??0Vector@@QAE@ABV0@@Z			; Vector::Vector
	call	?CubeFace@@YAXVVector@@HHHHMPBE@Z	; CubeFace
	add	esp, 36					; 00000024H

; 66   : 	CubeFace( probe->origin, 3, 2, 6, 7, rad, probe->cube.color[3] );

	mov	eax, 3
	imul	ecx, eax, 3
	add	ecx, DWORD PTR _probe$[ebp]
	push	ecx
	push	ecx
	movss	xmm0, DWORD PTR _rad$[ebp]
	movss	DWORD PTR [esp], xmm0
	push	7
	push	6
	push	2
	push	3
	mov	edx, DWORD PTR _probe$[ebp]
	add	edx, 20					; 00000014H
	sub	esp, 12					; 0000000cH
	mov	ecx, esp
	push	edx
	call	??0Vector@@QAE@ABV0@@Z			; Vector::Vector
	call	?CubeFace@@YAXVVector@@HHHHMPBE@Z	; CubeFace
	add	esp, 36					; 00000024H

; 67   : 	CubeFace( probe->origin, 2, 3, 1, 0, rad, probe->cube.color[4] );

	mov	eax, 3
	shl	eax, 2
	add	eax, DWORD PTR _probe$[ebp]
	push	eax
	push	ecx
	movss	xmm0, DWORD PTR _rad$[ebp]
	movss	DWORD PTR [esp], xmm0
	push	0
	push	1
	push	3
	push	2
	mov	ecx, DWORD PTR _probe$[ebp]
	add	ecx, 20					; 00000014H
	sub	esp, 12					; 0000000cH
	mov	edx, esp
	push	ecx
	mov	ecx, edx
	call	??0Vector@@QAE@ABV0@@Z			; Vector::Vector
	call	?CubeFace@@YAXVVector@@HHHHMPBE@Z	; CubeFace
	add	esp, 36					; 00000024H

; 68   : 	CubeFace( probe->origin, 4, 5, 7, 6, rad, probe->cube.color[5] );

	mov	eax, 3
	imul	ecx, eax, 5
	add	ecx, DWORD PTR _probe$[ebp]
	push	ecx
	push	ecx
	movss	xmm0, DWORD PTR _rad$[ebp]
	movss	DWORD PTR [esp], xmm0
	push	6
	push	7
	push	5
	push	4
	mov	edx, DWORD PTR _probe$[ebp]
	add	edx, 20					; 00000014H
	sub	esp, 12					; 0000000cH
	mov	ecx, esp
	push	edx
	call	??0Vector@@QAE@ABV0@@Z			; Vector::Vector
	call	?CubeFace@@YAXVVector@@HHHHMPBE@Z	; CubeFace
	add	esp, 36					; 00000024H

; 69   : 
; 70   : 	pglEnd ();

	call	DWORD PTR ?pglEnd@@3P6GXXZA		; pglEnd

; 71   : }

	pop	edi
	pop	esi
	pop	ebx
	mov	esp, ebp
	pop	ebp
	ret	0
?R_RenderLightProbe@@YAXPAUmlightprobe_t@@@Z ENDP	; R_RenderLightProbe
_TEXT	ENDS
; Function compile flags: /Odtp /ZI
; File d:\!diffusion 2020\source code 2022\client-server\client\render\r_debug.cpp
;	COMDAT ?CubeFace@@YAXVVector@@HHHHMPBE@Z
_TEXT	SEGMENT
tv151 = -116						; size = 4
tv141 = -116						; size = 4
tv131 = -116						; size = 4
_col$ = -32						; size = 12
_unclamped$ = -20					; size = 12
_scale$ = -8						; size = 4
__$ArrayPad$ = -4					; size = 4
_org$ = 8						; size = 12
_v0$ = 20						; size = 4
_v1$ = 24						; size = 4
_v2$ = 28						; size = 4
_v3$ = 32						; size = 4
_size$ = 36						; size = 4
_color$ = 40						; size = 4
?CubeFace@@YAXVVector@@HHHHMPBE@Z PROC			; CubeFace, COMDAT

; 36   : {

	push	ebp
	mov	ebp, esp
	sub	esp, 116				; 00000074H
	mov	eax, DWORD PTR ___security_cookie
	xor	eax, ebp
	mov	DWORD PTR __$ArrayPad$[ebp], eax
	push	ebx
	push	esi
	push	edi

; 37   : 	unsigned int scale = tr.lightstylevalue[0];

	mov	eax, 4
	imul	ecx, eax, 0
	mov	edx, DWORD PTR ?tr@@3Uref_globals_t@@A[ecx+531184]
	mov	DWORD PTR _scale$[ebp], edx

; 38   : 	unsigned int unclamped[3];
; 39   : 	int col[3];
; 40   : 
; 41   : 	unclamped[0] = TEXTURE_TO_TEXGAMMA( color[0] ) * scale;

	mov	eax, 1
	imul	ecx, eax, 0
	mov	edx, DWORD PTR _color$[ebp]
	movzx	eax, BYTE PTR [edx+ecx]
	push	eax
	call	DWORD PTR ?gRenderfuncs@@3Urender_api_s@@A+24
	add	esp, 4
	movzx	ecx, al
	imul	ecx, DWORD PTR _scale$[ebp]
	mov	edx, 4
	imul	eax, edx, 0
	mov	DWORD PTR _unclamped$[ebp+eax], ecx

; 42   : 	unclamped[1] = TEXTURE_TO_TEXGAMMA( color[1] ) * scale;

	mov	eax, 1
	shl	eax, 0
	mov	ecx, DWORD PTR _color$[ebp]
	movzx	edx, BYTE PTR [ecx+eax]
	push	edx
	call	DWORD PTR ?gRenderfuncs@@3Urender_api_s@@A+24
	add	esp, 4
	movzx	eax, al
	imul	eax, DWORD PTR _scale$[ebp]
	mov	ecx, 4
	shl	ecx, 0
	mov	DWORD PTR _unclamped$[ebp+ecx], eax

; 43   : 	unclamped[2] = TEXTURE_TO_TEXGAMMA( color[2] ) * scale;

	mov	eax, 1
	shl	eax, 1
	mov	ecx, DWORD PTR _color$[ebp]
	movzx	edx, BYTE PTR [ecx+eax]
	push	edx
	call	DWORD PTR ?gRenderfuncs@@3Urender_api_s@@A+24
	add	esp, 4
	movzx	eax, al
	imul	eax, DWORD PTR _scale$[ebp]
	mov	ecx, 4
	shl	ecx, 1
	mov	DWORD PTR _unclamped$[ebp+ecx], eax

; 44   : 
; 45   : 	col[0] = Q_min((unclamped[0] >> 7), 255 );

	mov	eax, 4
	imul	ecx, eax, 0
	mov	edx, DWORD PTR _unclamped$[ebp+ecx]
	shr	edx, 7
	cmp	edx, 255				; 000000ffH
	jae	SHORT $LN3@CubeFace
	mov	eax, 4
	imul	ecx, eax, 0
	mov	edx, DWORD PTR _unclamped$[ebp+ecx]
	shr	edx, 7
	mov	DWORD PTR tv131[ebp], edx
	jmp	SHORT $LN4@CubeFace
$LN3@CubeFace:
	mov	DWORD PTR tv131[ebp], 255		; 000000ffH
$LN4@CubeFace:
	mov	eax, 4
	imul	ecx, eax, 0
	mov	edx, DWORD PTR tv131[ebp]
	mov	DWORD PTR _col$[ebp+ecx], edx

; 46   : 	col[1] = Q_min((unclamped[1] >> 7), 255 );

	mov	eax, 4
	shl	eax, 0
	mov	ecx, DWORD PTR _unclamped$[ebp+eax]
	shr	ecx, 7
	cmp	ecx, 255				; 000000ffH
	jae	SHORT $LN5@CubeFace
	mov	edx, 4
	shl	edx, 0
	mov	eax, DWORD PTR _unclamped$[ebp+edx]
	shr	eax, 7
	mov	DWORD PTR tv141[ebp], eax
	jmp	SHORT $LN6@CubeFace
$LN5@CubeFace:
	mov	DWORD PTR tv141[ebp], 255		; 000000ffH
$LN6@CubeFace:
	mov	ecx, 4
	shl	ecx, 0
	mov	edx, DWORD PTR tv141[ebp]
	mov	DWORD PTR _col$[ebp+ecx], edx

; 47   : 	col[2] = Q_min((unclamped[2] >> 7), 255 );

	mov	eax, 4
	shl	eax, 1
	mov	ecx, DWORD PTR _unclamped$[ebp+eax]
	shr	ecx, 7
	cmp	ecx, 255				; 000000ffH
	jae	SHORT $LN7@CubeFace
	mov	edx, 4
	shl	edx, 1
	mov	eax, DWORD PTR _unclamped$[ebp+edx]
	shr	eax, 7
	mov	DWORD PTR tv151[ebp], eax
	jmp	SHORT $LN8@CubeFace
$LN7@CubeFace:
	mov	DWORD PTR tv151[ebp], 255		; 000000ffH
$LN8@CubeFace:
	mov	ecx, 4
	shl	ecx, 1
	mov	edx, DWORD PTR tv151[ebp]
	mov	DWORD PTR _col$[ebp+ecx], edx

; 48   : 
; 49   : //	pglColor3ub( col[0], col[1], col[2] );
; 50   : 	pglColor3ub( color[0], color[1], color[2] );

	mov	eax, 1
	shl	eax, 1
	mov	ecx, DWORD PTR _color$[ebp]
	movzx	edx, BYTE PTR [ecx+eax]
	push	edx
	mov	eax, 1
	shl	eax, 0
	mov	ecx, DWORD PTR _color$[ebp]
	movzx	edx, BYTE PTR [ecx+eax]
	push	edx
	mov	eax, 1
	imul	ecx, eax, 0
	mov	edx, DWORD PTR _color$[ebp]
	movzx	eax, BYTE PTR [edx+ecx]
	push	eax
	call	DWORD PTR ?pglColor3ub@@3P6GXEEE@ZA	; pglColor3ub

; 51   : 	pglVertex3fv( CubeSide( org, size, v0 ));

	mov	eax, DWORD PTR _v0$[ebp]
	push	eax
	push	ecx
	movss	xmm0, DWORD PTR _size$[ebp]
	movss	DWORD PTR [esp], xmm0
	sub	esp, 12					; 0000000cH
	mov	ecx, esp
	lea	edx, DWORD PTR _org$[ebp]
	push	edx
	call	??0Vector@@QAE@ABV0@@Z			; Vector::Vector
	call	?CubeSide@@YAPAMVVector@@MH@Z		; CubeSide
	add	esp, 20					; 00000014H
	push	eax
	call	DWORD PTR ?pglVertex3fv@@3P6GXPBM@ZA	; pglVertex3fv

; 52   : 	pglVertex3fv( CubeSide( org, size, v1 ));

	mov	eax, DWORD PTR _v1$[ebp]
	push	eax
	push	ecx
	movss	xmm0, DWORD PTR _size$[ebp]
	movss	DWORD PTR [esp], xmm0
	sub	esp, 12					; 0000000cH
	mov	ecx, esp
	lea	edx, DWORD PTR _org$[ebp]
	push	edx
	call	??0Vector@@QAE@ABV0@@Z			; Vector::Vector
	call	?CubeSide@@YAPAMVVector@@MH@Z		; CubeSide
	add	esp, 20					; 00000014H
	push	eax
	call	DWORD PTR ?pglVertex3fv@@3P6GXPBM@ZA	; pglVertex3fv

; 53   : 	pglVertex3fv( CubeSide( org, size, v2 ));

	mov	eax, DWORD PTR _v2$[ebp]
	push	eax
	push	ecx
	movss	xmm0, DWORD PTR _size$[ebp]
	movss	DWORD PTR [esp], xmm0
	sub	esp, 12					; 0000000cH
	mov	ecx, esp
	lea	edx, DWORD PTR _org$[ebp]
	push	edx
	call	??0Vector@@QAE@ABV0@@Z			; Vector::Vector
	call	?CubeSide@@YAPAMVVector@@MH@Z		; CubeSide
	add	esp, 20					; 00000014H
	push	eax
	call	DWORD PTR ?pglVertex3fv@@3P6GXPBM@ZA	; pglVertex3fv

; 54   : 	pglVertex3fv( CubeSide( org, size, v3 ));

	mov	eax, DWORD PTR _v3$[ebp]
	push	eax
	push	ecx
	movss	xmm0, DWORD PTR _size$[ebp]
	movss	DWORD PTR [esp], xmm0
	sub	esp, 12					; 0000000cH
	mov	ecx, esp
	lea	edx, DWORD PTR _org$[ebp]
	push	edx
	call	??0Vector@@QAE@ABV0@@Z			; Vector::Vector
	call	?CubeSide@@YAPAMVVector@@MH@Z		; CubeSide
	add	esp, 20					; 00000014H
	push	eax
	call	DWORD PTR ?pglVertex3fv@@3P6GXPBM@ZA	; pglVertex3fv

; 55   : }

	pop	edi
	pop	esi
	pop	ebx
	mov	ecx, DWORD PTR __$ArrayPad$[ebp]
	xor	ecx, ebp
	call	@__security_check_cookie@4
	mov	esp, ebp
	pop	ebp
	ret	0
?CubeFace@@YAXVVector@@HHHHMPBE@Z ENDP			; CubeFace
_TEXT	ENDS
; Function compile flags: /Odtp /ZI
; File d:\!diffusion 2020\source code 2022\client-server\client\render\r_debug.cpp
;	COMDAT ?CubeSide@@YAPAMVVector@@MH@Z
_TEXT	SEGMENT
tv133 = -84						; size = 4
tv91 = -84						; size = 4
tv81 = -84						; size = 4
tv132 = -80						; size = 4
tv90 = -80						; size = 4
tv80 = -80						; size = 4
__$EHRec$ = -12						; size = 12
_pos$ = 8						; size = 12
_size$ = 20						; size = 4
_vert$ = 24						; size = 4
?CubeSide@@YAPAMVVector@@MH@Z PROC			; CubeSide, COMDAT

; 24   : {

	push	ebp
	mov	ebp, esp
	push	-1
	push	__ehhandler$?CubeSide@@YAPAMVVector@@MH@Z
	mov	eax, DWORD PTR fs:0
	push	eax
	sub	esp, 72					; 00000048H
	push	ebx
	push	esi
	push	edi
	mov	eax, DWORD PTR ___security_cookie
	xor	eax, ebp
	push	eax
	lea	eax, DWORD PTR __$EHRec$[ebp]
	mov	DWORD PTR fs:0, eax

; 25   : 	static vec3_t	side;

	mov	eax, DWORD PTR __tls_index
	mov	ecx, DWORD PTR fs:__tls_array
	mov	edx, DWORD PTR [ecx+eax*4]
	mov	eax, DWORD PTR ?$TSS0@?1??CubeSide@@YAPAMVVector@@MH@Z@4HA
	cmp	eax, DWORD PTR __Init_thread_epoch[edx]
	jle	SHORT $LN2@CubeSide
	push	OFFSET ?$TSS0@?1??CubeSide@@YAPAMVVector@@MH@Z@4HA
	call	__Init_thread_header
	add	esp, 4
	cmp	DWORD PTR ?$TSS0@?1??CubeSide@@YAPAMVVector@@MH@Z@4HA, -1
	jne	SHORT $LN2@CubeSide
	mov	DWORD PTR __$EHRec$[ebp+8], 0
	mov	ecx, OFFSET ?side@?1??CubeSide@@YAPAMVVector@@MH@Z@4V2@A
	call	??0Vector@@QAE@XZ			; Vector::Vector
	mov	DWORD PTR __$EHRec$[ebp+8], -1
	push	OFFSET ?$TSS0@?1??CubeSide@@YAPAMVVector@@MH@Z@4HA
	call	__Init_thread_footer
	add	esp, 4
$LN2@CubeSide:

; 26   : 
; 27   : 	side = pos;

	mov	eax, DWORD PTR _pos$[ebp]
	mov	DWORD PTR ?side@?1??CubeSide@@YAPAMVVector@@MH@Z@4V2@A, eax
	mov	ecx, DWORD PTR _pos$[ebp+4]
	mov	DWORD PTR ?side@?1??CubeSide@@YAPAMVVector@@MH@Z@4V2@A+4, ecx
	mov	edx, DWORD PTR _pos$[ebp+8]
	mov	DWORD PTR ?side@?1??CubeSide@@YAPAMVVector@@MH@Z@4V2@A+8, edx

; 28   : 	side[0] += (vert & 1) ? -size : size;

	mov	eax, DWORD PTR _vert$[ebp]
	and	eax, 1
	je	SHORT $LN4@CubeSide
	movss	xmm0, DWORD PTR _size$[ebp]
	xorps	xmm0, DWORD PTR __xmm@80000000800000008000000080000000
	movss	DWORD PTR tv80[ebp], xmm0
	jmp	SHORT $LN5@CubeSide
$LN4@CubeSide:
	movss	xmm0, DWORD PTR _size$[ebp]
	movss	DWORD PTR tv80[ebp], xmm0
$LN5@CubeSide:
	mov	ecx, OFFSET ?side@?1??CubeSide@@YAPAMVVector@@MH@Z@4V2@A
	call	??BVector@@QAEPAMXZ			; Vector::operator float *
	mov	ecx, 4
	imul	edx, ecx, 0
	add	eax, edx
	mov	DWORD PTR tv81[ebp], eax
	mov	eax, DWORD PTR tv81[ebp]
	movss	xmm0, DWORD PTR [eax]
	addss	xmm0, DWORD PTR tv80[ebp]
	mov	ecx, DWORD PTR tv81[ebp]
	movss	DWORD PTR [ecx], xmm0

; 29   : 	side[1] += (vert & 2) ? -size : size;

	mov	eax, DWORD PTR _vert$[ebp]
	and	eax, 2
	je	SHORT $LN6@CubeSide
	movss	xmm0, DWORD PTR _size$[ebp]
	xorps	xmm0, DWORD PTR __xmm@80000000800000008000000080000000
	movss	DWORD PTR tv90[ebp], xmm0
	jmp	SHORT $LN7@CubeSide
$LN6@CubeSide:
	movss	xmm0, DWORD PTR _size$[ebp]
	movss	DWORD PTR tv90[ebp], xmm0
$LN7@CubeSide:
	mov	ecx, OFFSET ?side@?1??CubeSide@@YAPAMVVector@@MH@Z@4V2@A
	call	??BVector@@QAEPAMXZ			; Vector::operator float *
	mov	ecx, 4
	shl	ecx, 0
	add	eax, ecx
	mov	DWORD PTR tv91[ebp], eax
	mov	edx, DWORD PTR tv91[ebp]
	movss	xmm0, DWORD PTR [edx]
	addss	xmm0, DWORD PTR tv90[ebp]
	mov	eax, DWORD PTR tv91[ebp]
	movss	DWORD PTR [eax], xmm0

; 30   : 	side[2] += (vert & 4) ? -size : size;

	mov	eax, DWORD PTR _vert$[ebp]
	and	eax, 4
	je	SHORT $LN8@CubeSide
	movss	xmm0, DWORD PTR _size$[ebp]
	xorps	xmm0, DWORD PTR __xmm@80000000800000008000000080000000
	movss	DWORD PTR tv132[ebp], xmm0
	jmp	SHORT $LN9@CubeSide
$LN8@CubeSide:
	movss	xmm0, DWORD PTR _size$[ebp]
	movss	DWORD PTR tv132[ebp], xmm0
$LN9@CubeSide:
	mov	ecx, OFFSET ?side@?1??CubeSide@@YAPAMVVector@@MH@Z@4V2@A
	call	??BVector@@QAEPAMXZ			; Vector::operator float *
	mov	ecx, 4
	shl	ecx, 1
	add	eax, ecx
	mov	DWORD PTR tv133[ebp], eax
	mov	edx, DWORD PTR tv133[ebp]
	movss	xmm0, DWORD PTR [edx]
	addss	xmm0, DWORD PTR tv132[ebp]
	mov	eax, DWORD PTR tv133[ebp]
	movss	DWORD PTR [eax], xmm0

; 31   : 
; 32   : 	return side;

	mov	ecx, OFFSET ?side@?1??CubeSide@@YAPAMVVector@@MH@Z@4V2@A
	call	??BVector@@QAEPAMXZ			; Vector::operator float *

; 33   : }

	mov	ecx, DWORD PTR __$EHRec$[ebp]
	mov	DWORD PTR fs:0, ecx
	pop	ecx
	pop	edi
	pop	esi
	pop	ebx
	mov	esp, ebp
	pop	ebp
	ret	0
_TEXT	ENDS
;	COMDAT text$x
text$x	SEGMENT
__unwindfunclet$?CubeSide@@YAPAMVVector@@MH@Z$0:
	push	OFFSET ?$TSS0@?1??CubeSide@@YAPAMVVector@@MH@Z@4HA
	call	__Init_thread_abort
	pop	ecx
	ret	0
__ehhandler$?CubeSide@@YAPAMVVector@@MH@Z:
	mov	edx, DWORD PTR [esp+8]
	lea	eax, DWORD PTR [edx+12]
	mov	ecx, DWORD PTR [edx-88]
	xor	ecx, eax
	call	@__security_check_cookie@4
	mov	eax, OFFSET __ehfuncinfo$?CubeSide@@YAPAMVVector@@MH@Z
	jmp	___CxxFrameHandler3
text$x	ENDS
?CubeSide@@YAPAMVVector@@MH@Z ENDP			; CubeSide
; Function compile flags: /Odtp /ZI
; File d:\!diffusion 2020\source code 2022\client-server\client\render\r_debug.cpp
;	COMDAT ?ValidateFBO@@YA_NXZ
_TEXT	SEGMENT
tv70 = -72						; size = 4
_status$ = -4						; size = 4
?ValidateFBO@@YA_NXZ PROC				; ValidateFBO, COMDAT

; 320  : {

	push	ebp
	mov	ebp, esp
	sub	esp, 72					; 00000048H
	push	ebx
	push	esi
	push	edi

; 321  : 	if( !GL_Support( R_FRAMEBUFFER_OBJECT ) )

	push	20					; 00000014H
	call	?GL_Support@@YA_NH@Z			; GL_Support
	add	esp, 4
	movzx	eax, al
	test	eax, eax
	jne	SHORT $LN4@ValidateFB

; 322  : 		return false;

	xor	al, al
	jmp	$LN1@ValidateFB
$LN4@ValidateFB:

; 323  : 
; 324  : 	// check FBO status
; 325  : 	GLenum status = pglCheckFramebufferStatus( GL_FRAMEBUFFER_EXT );

	push	36160					; 00008d40H
	call	DWORD PTR ?pglCheckFramebufferStatus@@3P6GII@ZA ; pglCheckFramebufferStatus
	mov	DWORD PTR _status$[ebp], eax

; 326  : 
; 327  : 	switch( status )

	mov	eax, DWORD PTR _status$[ebp]
	mov	DWORD PTR tv70[ebp], eax
	mov	ecx, DWORD PTR tv70[ebp]
	sub	ecx, 36053				; 00008cd5H
	mov	DWORD PTR tv70[ebp], ecx
	cmp	DWORD PTR tv70[ebp], 8
	ja	$LN13@ValidateFB
	mov	edx, DWORD PTR tv70[ebp]
	jmp	DWORD PTR $LN15@ValidateFB[edx*4]
$LN5@ValidateFB:

; 328  : 	{
; 329  : 	case GL_FRAMEBUFFER_COMPLETE_EXT:
; 330  : 		return true;

	mov	al, 1
	jmp	$LN1@ValidateFB
$LN6@ValidateFB:

; 331  : 	case GL_FRAMEBUFFER_INCOMPLETE_ATTACHMENT_EXT:
; 332  : 		ALERT( at_error, "ValidateFBO: attachment is NOT complete\n" );

	push	OFFSET ??_C@_0CJ@IKIHKAAN@ValidateFBO?3?5attachment?5is?5NOT?5c@
	push	4
	call	?ALERT@@YAXW4ALERT_TYPE@@PADZZ		; ALERT
	add	esp, 8

; 333  : 		return false;

	xor	al, al
	jmp	$LN1@ValidateFB
$LN7@ValidateFB:

; 334  : 	case GL_FRAMEBUFFER_INCOMPLETE_MISSING_ATTACHMENT_EXT:
; 335  : 		ALERT( at_error, "ValidateFBO: no image is attached to FBO\n" );

	push	OFFSET ??_C@_0CK@EINOHLAP@ValidateFBO?3?5no?5image?5is?5attache@
	push	4
	call	?ALERT@@YAXW4ALERT_TYPE@@PADZZ		; ALERT
	add	esp, 8

; 336  : 		return false;

	xor	al, al
	jmp	SHORT $LN1@ValidateFB
$LN8@ValidateFB:

; 337  : 	case GL_FRAMEBUFFER_INCOMPLETE_DIMENSIONS_EXT:
; 338  : 		ALERT( at_error, "ValidateFBO: attached images have different dimensions\n" );

	push	OFFSET ??_C@_0DI@PAADALD@ValidateFBO?3?5attached?5images?5hav@
	push	4
	call	?ALERT@@YAXW4ALERT_TYPE@@PADZZ		; ALERT
	add	esp, 8

; 339  : 		return false;

	xor	al, al
	jmp	SHORT $LN1@ValidateFB
$LN9@ValidateFB:

; 340  : 	case GL_FRAMEBUFFER_INCOMPLETE_FORMATS_EXT:
; 341  : 		ALERT( at_error, "ValidateFBO: color attached images have different internal formats\n" );

	push	OFFSET ??_C@_0EE@PBAHJGBK@ValidateFBO?3?5color?5attached?5imag@
	push	4
	call	?ALERT@@YAXW4ALERT_TYPE@@PADZZ		; ALERT
	add	esp, 8

; 342  : 		return false;

	xor	al, al
	jmp	SHORT $LN1@ValidateFB
$LN10@ValidateFB:

; 343  : 	case GL_FRAMEBUFFER_INCOMPLETE_DRAW_BUFFER_EXT:
; 344  : 		ALERT( at_error, "ValidateFBO: draw buffer incomplete\n" );

	push	OFFSET ??_C@_0CF@MDFDFHFB@ValidateFBO?3?5draw?5buffer?5incompl@
	push	4
	call	?ALERT@@YAXW4ALERT_TYPE@@PADZZ		; ALERT
	add	esp, 8

; 345  : 		return false;

	xor	al, al
	jmp	SHORT $LN1@ValidateFB
$LN11@ValidateFB:

; 346  : 	case GL_FRAMEBUFFER_INCOMPLETE_READ_BUFFER_EXT:
; 347  : 		ALERT( at_error, "ValidateFBO: read buffer incomplete\n" );

	push	OFFSET ??_C@_0CF@ELDEPENB@ValidateFBO?3?5read?5buffer?5incompl@
	push	4
	call	?ALERT@@YAXW4ALERT_TYPE@@PADZZ		; ALERT
	add	esp, 8

; 348  : 		return false;

	xor	al, al
	jmp	SHORT $LN1@ValidateFB
$LN12@ValidateFB:

; 349  : 	case GL_FRAMEBUFFER_UNSUPPORTED_EXT:
; 350  : 		ALERT( at_error, "ValidateFBO: unsupported by current FBO implementation\n" );

	push	OFFSET ??_C@_0DI@FCGOENLJ@ValidateFBO?3?5unsupported?5by?5curr@
	push	4
	call	?ALERT@@YAXW4ALERT_TYPE@@PADZZ		; ALERT
	add	esp, 8

; 351  : 		return false;

	xor	al, al
	jmp	SHORT $LN1@ValidateFB
$LN13@ValidateFB:

; 352  : 	default:
; 353  : 		ALERT( at_error, "ValidateFBO: unknown error\n" );

	push	OFFSET ??_C@_0BM@FEEOMNJC@ValidateFBO?3?5unknown?5error?6?$AA@
	push	4
	call	?ALERT@@YAXW4ALERT_TYPE@@PADZZ		; ALERT
	add	esp, 8

; 354  : 		return false;

	xor	al, al
$LN1@ValidateFB:

; 355  : 	}
; 356  : }

	pop	edi
	pop	esi
	pop	ebx
	mov	esp, ebp
	pop	ebp
	ret	0
$LN15@ValidateFB:
	DD	$LN5@ValidateFB
	DD	$LN6@ValidateFB
	DD	$LN7@ValidateFB
	DD	$LN13@ValidateFB
	DD	$LN8@ValidateFB
	DD	$LN9@ValidateFB
	DD	$LN10@ValidateFB
	DD	$LN11@ValidateFB
	DD	$LN12@ValidateFB
?ValidateFBO@@YA_NXZ ENDP				; ValidateFBO
_TEXT	ENDS
; Function compile flags: /Odtp /ZI
; File d:\!diffusion 2020\source code 2022\client-server\client\render\r_debug.cpp
;	COMDAT ?DrawNormals@@YAXXZ
_TEXT	SEGMENT
tv89 = -125						; size = 1
$T1 = -124						; size = 12
$T2 = -112						; size = 12
_j$3 = -36						; size = 4
_mv$4 = -32						; size = 4
_esrf$5 = -28						; size = 4
_surf$6 = -24						; size = 4
_i$7 = -20						; size = 4
_vecLen$ = -16						; size = 4
_temp$ = -12						; size = 12
?DrawNormals@@YAXXZ PROC				; DrawNormals, COMDAT

; 115  : {

	push	ebp
	mov	ebp, esp
	sub	esp, 128				; 00000080H
	push	ebx
	push	esi
	push	edi

; 116  : 	Vector	temp;

	lea	ecx, DWORD PTR _temp$[ebp]
	call	??0Vector@@QAE@XZ			; Vector::Vector

; 117  : 	float	vecLen = 4.0f;

	movss	xmm0, DWORD PTR __real@40800000
	movss	DWORD PTR _vecLen$[ebp], xmm0

; 118  : 
; 119  : 	pglDisable( GL_TEXTURE_2D );

	push	3553					; 00000de1H
	call	DWORD PTR ?pglDisable@@3P6GXI@ZA	; pglDisable

; 120  : 	pglDisable( GL_DEPTH_TEST );

	push	2929					; 00000b71H
	call	DWORD PTR ?pglDisable@@3P6GXI@ZA	; pglDisable

; 121  : 	GL_Blend( GL_FALSE );

	push	0
	call	?GL_Blend@@YAXH@Z			; GL_Blend
	add	esp, 4

; 122  : 	pglBegin( GL_LINES );

	push	1
	call	DWORD PTR ?pglBegin@@3P6GXI@ZA		; pglBegin

; 123  : 
; 124  : 	for( int i = 0; i < worldmodel->nummodelsurfaces; i++ )

	mov	DWORD PTR _i$7[ebp], 0
	jmp	SHORT $LN4@DrawNormal
$LN2@DrawNormal:
	mov	eax, DWORD PTR _i$7[ebp]
	add	eax, 1
	mov	DWORD PTR _i$7[ebp], eax
$LN4@DrawNormal:
	mov	eax, DWORD PTR ?worldmodel@@3PAUmodel_s@@A ; worldmodel
	mov	ecx, DWORD PTR _i$7[ebp]
	cmp	ecx, DWORD PTR [eax+116]
	jge	$LN3@DrawNormal

; 125  : 	{
; 126  : 		msurface_t *surf = &worldmodel->surfaces[i];

	imul	eax, DWORD PTR _i$7[ebp], 92
	mov	ecx, DWORD PTR ?worldmodel@@3PAUmodel_s@@A ; worldmodel
	add	eax, DWORD PTR [ecx+180]
	mov	DWORD PTR _surf$6[ebp], eax

; 127  : 		mextrasurf_t *esrf = surf->info;

	mov	eax, DWORD PTR _surf$6[ebp]
	mov	ecx, DWORD PTR [eax+80]
	mov	DWORD PTR _esrf$5[ebp], ecx

; 128  : 
; 129  : 		if( FBitSet( surf->flags, SURF_WATER|SURF_DRAWSKY ))

	mov	eax, DWORD PTR _surf$6[ebp]
	mov	ecx, DWORD PTR [eax+8]
	and	ecx, 20					; 00000014H
	je	SHORT $LN8@DrawNormal

; 130  : 			continue;

	jmp	SHORT $LN2@DrawNormal
$LN8@DrawNormal:

; 131  : 
; 132  : 		if( !CHECKVISBIT( RI->visfaces, i ))

	cmp	DWORD PTR _i$7[ebp], 0
	jl	SHORT $LN11@DrawNormal
	mov	eax, DWORD PTR _i$7[ebp]
	sar	eax, 3
	mov	ecx, DWORD PTR ?RI@@3PAUref_instance_t@@A ; RI
	movzx	edx, BYTE PTR [ecx+eax+4779]
	mov	ecx, DWORD PTR _i$7[ebp]
	and	ecx, 7
	mov	eax, 1
	shl	eax, cl
	and	edx, eax
	mov	BYTE PTR tv89[ebp], dl
	jmp	SHORT $LN12@DrawNormal
$LN11@DrawNormal:
	mov	BYTE PTR tv89[ebp], 0
$LN12@DrawNormal:
	movzx	ecx, BYTE PTR tv89[ebp]
	test	ecx, ecx
	jne	SHORT $LN9@DrawNormal

; 133  : 			continue;

	jmp	SHORT $LN2@DrawNormal
$LN9@DrawNormal:

; 134  : 
; 135  : 		bvert_t *mv = &world->vertexes[esrf->firstvertex];

	mov	eax, DWORD PTR _esrf$5[ebp]
	imul	ecx, DWORD PTR [eax+128], 100
	mov	edx, DWORD PTR ?world@@3PAUgl_world_t@@A ; world
	add	ecx, DWORD PTR [edx+112]
	mov	DWORD PTR _mv$4[ebp], ecx

; 136  : 
; 137  : 		for( int j = 0; j < esrf->numverts; j++, mv++ )

	mov	DWORD PTR _j$3[ebp], 0
	jmp	SHORT $LN7@DrawNormal
$LN5@DrawNormal:
	mov	eax, DWORD PTR _j$3[ebp]
	add	eax, 1
	mov	DWORD PTR _j$3[ebp], eax
	mov	ecx, DWORD PTR _mv$4[ebp]
	add	ecx, 100				; 00000064H
	mov	DWORD PTR _mv$4[ebp], ecx
$LN7@DrawNormal:
	mov	eax, DWORD PTR _esrf$5[ebp]
	movzx	ecx, WORD PTR [eax+126]
	cmp	DWORD PTR _j$3[ebp], ecx
	jge	$LN6@DrawNormal

; 138  : 		{
; 139  : 			pglColor3f( 0.0f, 0.0f, 1.0f );

	push	ecx
	movss	xmm0, DWORD PTR __real@3f800000
	movss	DWORD PTR [esp], xmm0
	push	ecx
	xorps	xmm0, xmm0
	movss	DWORD PTR [esp], xmm0
	push	ecx
	xorps	xmm0, xmm0
	movss	DWORD PTR [esp], xmm0
	call	DWORD PTR ?pglColor3f@@3P6GXMMM@ZA	; pglColor3f

; 140  : 			pglVertex3fv( mv->vertex );

	mov	ecx, DWORD PTR _mv$4[ebp]
	call	??BVector@@QAEPAMXZ			; Vector::operator float *
	push	eax
	call	DWORD PTR ?pglVertex3fv@@3P6GXPBM@ZA	; pglVertex3fv

; 141  : 			temp = mv->vertex + mv->normal * vecLen;

	push	ecx
	movss	xmm0, DWORD PTR _vecLen$[ebp]
	movss	DWORD PTR [esp], xmm0
	lea	eax, DWORD PTR $T2[ebp]
	push	eax
	mov	ecx, DWORD PTR _mv$4[ebp]
	add	ecx, 36					; 00000024H
	call	??DVector@@QBE?AV0@M@Z			; Vector::operator*
	push	eax
	lea	ecx, DWORD PTR $T1[ebp]
	push	ecx
	mov	ecx, DWORD PTR _mv$4[ebp]
	call	??HVector@@QBE?AV0@ABV0@@Z		; Vector::operator+
	mov	edx, DWORD PTR [eax]
	mov	DWORD PTR _temp$[ebp], edx
	mov	ecx, DWORD PTR [eax+4]
	mov	DWORD PTR _temp$[ebp+4], ecx
	mov	edx, DWORD PTR [eax+8]
	mov	DWORD PTR _temp$[ebp+8], edx

; 142  : 			pglVertex3fv( temp );

	lea	ecx, DWORD PTR _temp$[ebp]
	call	??BVector@@QAEPAMXZ			; Vector::operator float *
	push	eax
	call	DWORD PTR ?pglVertex3fv@@3P6GXPBM@ZA	; pglVertex3fv

; 143  : 		}

	jmp	$LN5@DrawNormal
$LN6@DrawNormal:

; 144  : 	}

	jmp	$LN2@DrawNormal
$LN3@DrawNormal:

; 145  : 
; 146  : 	pglEnd();

	call	DWORD PTR ?pglEnd@@3P6GXXZA		; pglEnd

; 147  : 	pglEnable( GL_DEPTH_TEST );

	push	2929					; 00000b71H
	call	DWORD PTR ?pglEnable@@3P6GXI@ZA		; pglEnable

; 148  : 	pglEnable( GL_TEXTURE_2D );

	push	3553					; 00000de1H
	call	DWORD PTR ?pglEnable@@3P6GXI@ZA		; pglEnable

; 149  : }

	pop	edi
	pop	esi
	pop	ebx
	mov	esp, ebp
	pop	ebp
	ret	0
?DrawNormals@@YAXXZ ENDP				; DrawNormals
_TEXT	ENDS
; Function compile flags: /Odtp /ZI
; File d:\!diffusion 2020\source code 2022\client-server\client\render\r_debug.cpp
;	COMDAT ?DrawWireFrame@@YAXXZ
_TEXT	SEGMENT
tv67 = -185						; size = 1
$T1 = -184						; size = 12
$T2 = -172						; size = 12
$T3 = -160						; size = 12
$T4 = -148						; size = 12
$T5 = -136						; size = 12
$T6 = -124						; size = 12
$T7 = -112						; size = 12
$T8 = -100						; size = 12
_j$9 = -24						; size = 4
_j$10 = -20						; size = 4
_v$11 = -16						; size = 4
_es$12 = -12						; size = 4
_surf$13 = -8						; size = 4
_i$ = -4						; size = 4
?DrawWireFrame@@YAXXZ PROC				; DrawWireFrame, COMDAT

; 152  : {

	push	ebp
	mov	ebp, esp
	sub	esp, 188				; 000000bcH
	push	ebx
	push	esi
	push	edi

; 153  : 	if( !CVAR_TO_BOOL( r_wireframe ))

	cmp	DWORD PTR ?r_wireframe@@3PAUcvar_s@@A, 0 ; r_wireframe
	je	SHORT $LN15@DrawWireFr
	mov	eax, DWORD PTR ?r_wireframe@@3PAUcvar_s@@A ; r_wireframe
	movss	xmm0, DWORD PTR [eax+12]
	ucomiss	xmm0, DWORD PTR __real@00000000
	lahf
	test	ah, 68					; 00000044H
	jnp	SHORT $LN15@DrawWireFr
	mov	BYTE PTR tv67[ebp], 1
	jmp	SHORT $LN16@DrawWireFr
$LN15@DrawWireFr:
	mov	BYTE PTR tv67[ebp], 0
$LN16@DrawWireFr:
	movzx	ecx, BYTE PTR tv67[ebp]
	test	ecx, ecx
	jne	SHORT $LN11@DrawWireFr

; 154  : 		return;

	jmp	$LN1@DrawWireFr
$LN11@DrawWireFr:

; 155  : 
; 156  : 	pglEnable( GL_BLEND );

	push	3042					; 00000be2H
	call	DWORD PTR ?pglEnable@@3P6GXI@ZA		; pglEnable

; 157  : 	pglBlendFunc( GL_SRC_ALPHA, GL_ONE_MINUS_SRC_ALPHA );

	push	771					; 00000303H
	push	770					; 00000302H
	call	DWORD PTR ?pglBlendFunc@@3P6GXII@ZA	; pglBlendFunc

; 158  : 	pglPolygonMode( GL_FRONT_AND_BACK, GL_LINE );

	push	6913					; 00001b01H
	push	1032					; 00000408H
	call	DWORD PTR ?pglPolygonMode@@3P6GXII@ZA	; pglPolygonMode

; 159  : 	pglColor4f( 1.0f, 1.0f, 1.0f, 0.99f ); 

	push	ecx
	movss	xmm0, DWORD PTR __real@3f7d70a4
	movss	DWORD PTR [esp], xmm0
	push	ecx
	movss	xmm0, DWORD PTR __real@3f800000
	movss	DWORD PTR [esp], xmm0
	push	ecx
	movss	xmm0, DWORD PTR __real@3f800000
	movss	DWORD PTR [esp], xmm0
	push	ecx
	movss	xmm0, DWORD PTR __real@3f800000
	movss	DWORD PTR [esp], xmm0
	call	DWORD PTR ?pglColor4f@@3P6GXMMMM@ZA	; pglColor4f

; 160  : 
; 161  : 	pglDisable( GL_DEPTH_TEST );

	push	2929					; 00000b71H
	call	DWORD PTR ?pglDisable@@3P6GXI@ZA	; pglDisable

; 162  : 	pglEnable( GL_LINE_SMOOTH );

	push	2848					; 00000b20H
	call	DWORD PTR ?pglEnable@@3P6GXI@ZA		; pglEnable

; 163  : 	pglDisable( GL_TEXTURE_2D );

	push	3553					; 00000de1H
	call	DWORD PTR ?pglDisable@@3P6GXI@ZA	; pglDisable

; 164  : 	pglEnable( GL_POLYGON_SMOOTH );

	push	2881					; 00000b41H
	call	DWORD PTR ?pglEnable@@3P6GXI@ZA		; pglEnable

; 165  : 	pglHint( GL_LINE_SMOOTH_HINT, GL_NICEST );

	push	4354					; 00001102H
	push	3154					; 00000c52H
	call	DWORD PTR ?pglHint@@3P6GXII@ZA		; pglHint

; 166  : 	pglHint( GL_POLYGON_SMOOTH_HINT, GL_NICEST );

	push	4354					; 00001102H
	push	3155					; 00000c53H
	call	DWORD PTR ?pglHint@@3P6GXII@ZA		; pglHint

; 167  : 
; 168  : 	int	i;
; 169  : 	for( i = 0; i < tr.num_draw_surfaces; i++ )

	mov	DWORD PTR _i$[ebp], 0
	jmp	SHORT $LN4@DrawWireFr
$LN2@DrawWireFr:
	mov	eax, DWORD PTR _i$[ebp]
	add	eax, 1
	mov	DWORD PTR _i$[ebp], eax
$LN4@DrawWireFr:
	mov	eax, DWORD PTR _i$[ebp]
	cmp	eax, DWORD PTR ?tr@@3Uref_globals_t@@A+5289972
	jge	$LN3@DrawWireFr

; 170  : 	{
; 171  : 		msurface_t *surf = tr.draw_surfaces[i].surface;

	mov	eax, DWORD PTR _i$[ebp]
	mov	ecx, DWORD PTR ?tr@@3Uref_globals_t@@A[eax*8+4765692]
	mov	DWORD PTR _surf$13[ebp], ecx

; 172  : 		mextrasurf_t *es = surf->info;

	mov	eax, DWORD PTR _surf$13[ebp]
	mov	ecx, DWORD PTR [eax+80]
	mov	DWORD PTR _es$12[ebp], ecx

; 173  : 		bvert_t *v;
; 174  : 
; 175  : 		if( FBitSet( surf->flags, SURF_WATER ))

	mov	eax, DWORD PTR _surf$13[ebp]
	mov	ecx, DWORD PTR [eax+8]
	and	ecx, 16					; 00000010H
	je	$LN12@DrawWireFr

; 176  : 		{
; 177  : 			for( int j = 0; j < es->numindexes; j += 3 )

	mov	DWORD PTR _j$10[ebp], 0
	jmp	SHORT $LN7@DrawWireFr
$LN5@DrawWireFr:
	mov	eax, DWORD PTR _j$10[ebp]
	add	eax, 3
	mov	DWORD PTR _j$10[ebp], eax
$LN7@DrawWireFr:
	mov	eax, DWORD PTR _es$12[ebp]
	movzx	ecx, WORD PTR [eax+220]
	cmp	DWORD PTR _j$10[ebp], ecx
	jge	$LN6@DrawWireFr

; 178  : 			{
; 179  : 				pglBegin( GL_TRIANGLES );

	push	4
	call	DWORD PTR ?pglBegin@@3P6GXI@ZA		; pglBegin

; 180  : 				v = &world->vertexes[es->firstvertex + es->indexes[j+0]];

	mov	eax, DWORD PTR _es$12[ebp]
	mov	ecx, DWORD PTR [eax+216]
	mov	edx, DWORD PTR _j$10[ebp]
	movzx	eax, WORD PTR [ecx+edx*2]
	mov	ecx, DWORD PTR _es$12[ebp]
	mov	edx, DWORD PTR [ecx+128]
	add	edx, eax
	imul	eax, edx, 100
	mov	ecx, DWORD PTR ?world@@3PAUgl_world_t@@A ; world
	add	eax, DWORD PTR [ecx+112]
	mov	DWORD PTR _v$11[ebp], eax

; 181  : 				pglVertex3fv( v->vertex + v->normal * 0.1f );

	push	ecx
	movss	xmm0, DWORD PTR __real@3dcccccd
	movss	DWORD PTR [esp], xmm0
	lea	eax, DWORD PTR $T8[ebp]
	push	eax
	mov	ecx, DWORD PTR _v$11[ebp]
	add	ecx, 36					; 00000024H
	call	??DVector@@QBE?AV0@M@Z			; Vector::operator*
	push	eax
	lea	ecx, DWORD PTR $T7[ebp]
	push	ecx
	mov	ecx, DWORD PTR _v$11[ebp]
	call	??HVector@@QBE?AV0@ABV0@@Z		; Vector::operator+
	mov	ecx, eax
	call	??BVector@@QAEPAMXZ			; Vector::operator float *
	push	eax
	call	DWORD PTR ?pglVertex3fv@@3P6GXPBM@ZA	; pglVertex3fv

; 182  : 				v = &world->vertexes[es->firstvertex + es->indexes[j+1]];

	mov	eax, DWORD PTR _es$12[ebp]
	mov	ecx, DWORD PTR [eax+216]
	mov	edx, DWORD PTR _j$10[ebp]
	movzx	eax, WORD PTR [ecx+edx*2+2]
	mov	ecx, DWORD PTR _es$12[ebp]
	mov	edx, DWORD PTR [ecx+128]
	add	edx, eax
	imul	eax, edx, 100
	mov	ecx, DWORD PTR ?world@@3PAUgl_world_t@@A ; world
	add	eax, DWORD PTR [ecx+112]
	mov	DWORD PTR _v$11[ebp], eax

; 183  : 				pglVertex3fv( v->vertex + v->normal * 0.1f );

	push	ecx
	movss	xmm0, DWORD PTR __real@3dcccccd
	movss	DWORD PTR [esp], xmm0
	lea	eax, DWORD PTR $T6[ebp]
	push	eax
	mov	ecx, DWORD PTR _v$11[ebp]
	add	ecx, 36					; 00000024H
	call	??DVector@@QBE?AV0@M@Z			; Vector::operator*
	push	eax
	lea	ecx, DWORD PTR $T5[ebp]
	push	ecx
	mov	ecx, DWORD PTR _v$11[ebp]
	call	??HVector@@QBE?AV0@ABV0@@Z		; Vector::operator+
	mov	ecx, eax
	call	??BVector@@QAEPAMXZ			; Vector::operator float *
	push	eax
	call	DWORD PTR ?pglVertex3fv@@3P6GXPBM@ZA	; pglVertex3fv

; 184  : 				v = &world->vertexes[es->firstvertex + es->indexes[j+2]];

	mov	eax, DWORD PTR _es$12[ebp]
	mov	ecx, DWORD PTR [eax+216]
	mov	edx, DWORD PTR _j$10[ebp]
	movzx	eax, WORD PTR [ecx+edx*2+4]
	mov	ecx, DWORD PTR _es$12[ebp]
	mov	edx, DWORD PTR [ecx+128]
	add	edx, eax
	imul	eax, edx, 100
	mov	ecx, DWORD PTR ?world@@3PAUgl_world_t@@A ; world
	add	eax, DWORD PTR [ecx+112]
	mov	DWORD PTR _v$11[ebp], eax

; 185  : 				pglVertex3fv( v->vertex + v->normal * 0.1f );

	push	ecx
	movss	xmm0, DWORD PTR __real@3dcccccd
	movss	DWORD PTR [esp], xmm0
	lea	eax, DWORD PTR $T4[ebp]
	push	eax
	mov	ecx, DWORD PTR _v$11[ebp]
	add	ecx, 36					; 00000024H
	call	??DVector@@QBE?AV0@M@Z			; Vector::operator*
	push	eax
	lea	ecx, DWORD PTR $T3[ebp]
	push	ecx
	mov	ecx, DWORD PTR _v$11[ebp]
	call	??HVector@@QBE?AV0@ABV0@@Z		; Vector::operator+
	mov	ecx, eax
	call	??BVector@@QAEPAMXZ			; Vector::operator float *
	push	eax
	call	DWORD PTR ?pglVertex3fv@@3P6GXPBM@ZA	; pglVertex3fv

; 186  : 				pglEnd();

	call	DWORD PTR ?pglEnd@@3P6GXXZA		; pglEnd

; 187  : 			}

	jmp	$LN5@DrawWireFr
$LN6@DrawWireFr:

; 188  : 		}
; 189  : 		else

	jmp	$LN13@DrawWireFr
$LN12@DrawWireFr:

; 190  : 		{
; 191  : 			pglBegin( GL_POLYGON );

	push	9
	call	DWORD PTR ?pglBegin@@3P6GXI@ZA		; pglBegin

; 192  : 			for( int j = 0; j < es->numverts; j++ )

	mov	DWORD PTR _j$9[ebp], 0
	jmp	SHORT $LN10@DrawWireFr
$LN8@DrawWireFr:
	mov	eax, DWORD PTR _j$9[ebp]
	add	eax, 1
	mov	DWORD PTR _j$9[ebp], eax
$LN10@DrawWireFr:
	mov	eax, DWORD PTR _es$12[ebp]
	movzx	ecx, WORD PTR [eax+126]
	cmp	DWORD PTR _j$9[ebp], ecx
	jge	SHORT $LN9@DrawWireFr

; 193  : 			{
; 194  : 				v = &world->vertexes[es->firstvertex + j];

	mov	eax, DWORD PTR _es$12[ebp]
	mov	ecx, DWORD PTR [eax+128]
	add	ecx, DWORD PTR _j$9[ebp]
	imul	edx, ecx, 100
	mov	eax, DWORD PTR ?world@@3PAUgl_world_t@@A ; world
	add	edx, DWORD PTR [eax+112]
	mov	DWORD PTR _v$11[ebp], edx

; 195  : 				pglVertex3fv( v->vertex + v->normal * 0.1f );

	push	ecx
	movss	xmm0, DWORD PTR __real@3dcccccd
	movss	DWORD PTR [esp], xmm0
	lea	eax, DWORD PTR $T2[ebp]
	push	eax
	mov	ecx, DWORD PTR _v$11[ebp]
	add	ecx, 36					; 00000024H
	call	??DVector@@QBE?AV0@M@Z			; Vector::operator*
	push	eax
	lea	ecx, DWORD PTR $T1[ebp]
	push	ecx
	mov	ecx, DWORD PTR _v$11[ebp]
	call	??HVector@@QBE?AV0@ABV0@@Z		; Vector::operator+
	mov	ecx, eax
	call	??BVector@@QAEPAMXZ			; Vector::operator float *
	push	eax
	call	DWORD PTR ?pglVertex3fv@@3P6GXPBM@ZA	; pglVertex3fv

; 196  : 			}

	jmp	SHORT $LN8@DrawWireFr
$LN9@DrawWireFr:

; 197  : 			pglEnd();

	call	DWORD PTR ?pglEnd@@3P6GXXZA		; pglEnd
$LN13@DrawWireFr:

; 198  : 		}
; 199  : 	}

	jmp	$LN2@DrawWireFr
$LN3@DrawWireFr:

; 200  : 
; 201  : 	pglPolygonMode( GL_FRONT_AND_BACK, GL_FILL );

	push	6914					; 00001b02H
	push	1032					; 00000408H
	call	DWORD PTR ?pglPolygonMode@@3P6GXII@ZA	; pglPolygonMode

; 202  : 	pglDisable( GL_POLYGON_SMOOTH );

	push	2881					; 00000b41H
	call	DWORD PTR ?pglDisable@@3P6GXI@ZA	; pglDisable

; 203  : 	pglDisable( GL_LINE_SMOOTH );

	push	2848					; 00000b20H
	call	DWORD PTR ?pglDisable@@3P6GXI@ZA	; pglDisable

; 204  : 	pglEnable( GL_TEXTURE_2D );

	push	3553					; 00000de1H
	call	DWORD PTR ?pglEnable@@3P6GXI@ZA		; pglEnable

; 205  : 	pglEnable( GL_DEPTH_TEST );

	push	2929					; 00000b71H
	call	DWORD PTR ?pglEnable@@3P6GXI@ZA		; pglEnable

; 206  : 	pglDisable( GL_BLEND );

	push	3042					; 00000be2H
	call	DWORD PTR ?pglDisable@@3P6GXI@ZA	; pglDisable
$LN1@DrawWireFr:

; 207  : }

	pop	edi
	pop	esi
	pop	ebx
	mov	esp, ebp
	pop	ebp
	ret	0
?DrawWireFrame@@YAXXZ ENDP				; DrawWireFrame
_TEXT	ENDS
; Function compile flags: /Odtp /ZI
; File d:\!diffusion 2020\source code 2022\client-server\client\render\r_debug.cpp
;	COMDAT ?DrawLightProbes@@YAXXZ
_TEXT	SEGMENT
tv85 = -81						; size = 1
_leaf$ = -16						; size = 4
_probe$ = -12						; size = 4
_j$ = -8						; size = 4
_i$ = -4						; size = 4
?DrawLightProbes@@YAXXZ PROC				; DrawLightProbes, COMDAT

; 79   : {

	push	ebp
	mov	ebp, esp
	sub	esp, 84					; 00000054H
	push	ebx
	push	esi
	push	edi

; 80   : 	int		i, j;
; 81   : 	mlightprobe_t	*probe;
; 82   : 	mworldleaf_t	*leaf;
; 83   : 
; 84   : 	GL_Blend( GL_FALSE );

	push	0
	call	?GL_Blend@@YAXH@Z			; GL_Blend
	add	esp, 4

; 85   : 
; 86   : 	pglDisable( GL_TEXTURE_2D );

	push	3553					; 00000de1H
	call	DWORD PTR ?pglDisable@@3P6GXI@ZA	; pglDisable

; 87   : 
; 88   : 	// draw the all visible probes
; 89   : 	for( i = 1; i < world->numleafs; i++ )

	mov	DWORD PTR _i$[ebp], 1
	jmp	SHORT $LN4@DrawLightP
$LN2@DrawLightP:
	mov	eax, DWORD PTR _i$[ebp]
	add	eax, 1
	mov	DWORD PTR _i$[ebp], eax
$LN4@DrawLightP:
	mov	eax, DWORD PTR ?world@@3PAUgl_world_t@@A ; world
	mov	ecx, DWORD PTR _i$[ebp]
	cmp	ecx, DWORD PTR [eax+72]
	jge	$LN3@DrawLightP

; 90   : 	{
; 91   : 		leaf = &world->leafs[i];

	imul	eax, DWORD PTR _i$[ebp], 88
	mov	ecx, DWORD PTR ?world@@3PAUgl_world_t@@A ; world
	add	eax, DWORD PTR [ecx+68]
	mov	DWORD PTR _leaf$[ebp], eax

; 92   : 
; 93   : 		if( !CHECKVISBIT( RI->visbytes, leaf->cluster ))

	mov	eax, DWORD PTR _leaf$[ebp]
	cmp	DWORD PTR [eax+76], 0
	jl	SHORT $LN10@DrawLightP
	mov	ecx, DWORD PTR _leaf$[ebp]
	mov	edx, DWORD PTR [ecx+76]
	sar	edx, 3
	mov	eax, DWORD PTR ?RI@@3PAUref_instance_t@@A ; RI
	movzx	edx, BYTE PTR [eax+edx+684]
	mov	eax, DWORD PTR _leaf$[ebp]
	mov	ecx, DWORD PTR [eax+76]
	and	ecx, 7
	mov	eax, 1
	shl	eax, cl
	and	edx, eax
	mov	BYTE PTR tv85[ebp], dl
	jmp	SHORT $LN11@DrawLightP
$LN10@DrawLightP:
	mov	BYTE PTR tv85[ebp], 0
$LN11@DrawLightP:
	movzx	ecx, BYTE PTR tv85[ebp]
	test	ecx, ecx
	jne	SHORT $LN8@DrawLightP

; 94   : 			continue;	// not visible from player

	jmp	SHORT $LN2@DrawLightP
$LN8@DrawLightP:

; 95   : 
; 96   : 		for( j = 0; j < leaf->num_lightprobes; j++ )

	mov	DWORD PTR _j$[ebp], 0
	jmp	SHORT $LN7@DrawLightP
$LN5@DrawLightP:
	mov	eax, DWORD PTR _j$[ebp]
	add	eax, 1
	mov	DWORD PTR _j$[ebp], eax
$LN7@DrawLightP:
	mov	eax, DWORD PTR _leaf$[ebp]
	movzx	ecx, BYTE PTR [eax+84]
	cmp	DWORD PTR _j$[ebp], ecx
	jge	SHORT $LN6@DrawLightP

; 97   : 		{
; 98   : 			probe = leaf->ambient_light + j;

	imul	eax, DWORD PTR _j$[ebp], 36
	mov	ecx, DWORD PTR _leaf$[ebp]
	add	eax, DWORD PTR [ecx+80]
	mov	DWORD PTR _probe$[ebp], eax

; 99   : 			R_RenderLightProbe( probe );

	mov	eax, DWORD PTR _probe$[ebp]
	push	eax
	call	?R_RenderLightProbe@@YAXPAUmlightprobe_t@@@Z ; R_RenderLightProbe
	add	esp, 4

; 100  : 		}

	jmp	SHORT $LN5@DrawLightP
$LN6@DrawLightP:

; 101  : 	}

	jmp	$LN2@DrawLightP
$LN3@DrawLightP:

; 102  : 
; 103  : 	pglColor3f( 1.0f, 1.0f, 1.0f );

	push	ecx
	movss	xmm0, DWORD PTR __real@3f800000
	movss	DWORD PTR [esp], xmm0
	push	ecx
	movss	xmm0, DWORD PTR __real@3f800000
	movss	DWORD PTR [esp], xmm0
	push	ecx
	movss	xmm0, DWORD PTR __real@3f800000
	movss	DWORD PTR [esp], xmm0
	call	DWORD PTR ?pglColor3f@@3P6GXMMM@ZA	; pglColor3f

; 104  : 	pglEnable( GL_TEXTURE_2D );

	push	3553					; 00000de1H
	call	DWORD PTR ?pglEnable@@3P6GXI@ZA		; pglEnable

; 105  : }

	pop	edi
	pop	esi
	pop	ebx
	mov	esp, ebp
	pop	ebp
	ret	0
?DrawLightProbes@@YAXXZ ENDP				; DrawLightProbes
_TEXT	ENDS
; Function compile flags: /Odtp /ZI
; File d:\!diffusion 2020\source code 2022\client-server\client\render\r_debug.cpp
;	COMDAT ?R_DrawLightScissors@@YAXXZ
_TEXT	SEGMENT
_i$1 = -8						; size = 4
_pl$ = -4						; size = 4
?R_DrawLightScissors@@YAXXZ PROC			; R_DrawLightScissors, COMDAT

; 269  : {

	push	ebp
	mov	ebp, esp
	sub	esp, 72					; 00000048H
	push	ebx
	push	esi
	push	edi

; 270  : 	plight_t *pl = cl_plights;

	mov	DWORD PTR _pl$[ebp], OFFSET ?cl_plights@@3PAUplight_s@@A ; cl_plights

; 271  : 
; 272  : 	for( int i = 0; i < MAX_PLIGHTS; i++, pl++ )

	mov	DWORD PTR _i$1[ebp], 0
	jmp	SHORT $LN4@R_DrawLigh
$LN2@R_DrawLigh:
	mov	eax, DWORD PTR _i$1[ebp]
	add	eax, 1
	mov	DWORD PTR _i$1[ebp], eax
	mov	ecx, DWORD PTR _pl$[ebp]
	add	ecx, 768				; 00000300H
	mov	DWORD PTR _pl$[ebp], ecx
$LN4@R_DrawLigh:
	cmp	DWORD PTR _i$1[ebp], 96			; 00000060H
	jge	$LN3@R_DrawLigh

; 273  : 	{
; 274  : 		if( pl->die < tr.time || !pl->radius || pl->culled )

	mov	eax, DWORD PTR _pl$[ebp]
	cvtss2sd xmm0, DWORD PTR [eax+32]
	movsd	xmm1, QWORD PTR ?tr@@3Uref_globals_t@@A+8
	comisd	xmm1, xmm0
	ja	SHORT $LN6@R_DrawLigh
	mov	eax, DWORD PTR _pl$[ebp]
	movss	xmm0, DWORD PTR [eax+24]
	ucomiss	xmm0, DWORD PTR __real@00000000
	lahf
	test	ah, 68					; 00000044H
	jnp	SHORT $LN6@R_DrawLigh
	mov	eax, DWORD PTR _pl$[ebp]
	movzx	ecx, BYTE PTR [eax+46]
	test	ecx, ecx
	je	SHORT $LN5@R_DrawLigh
$LN6@R_DrawLigh:

; 275  : 			continue;

	jmp	SHORT $LN2@R_DrawLigh
$LN5@R_DrawLigh:

; 276  : 
; 277  : 		RI->currentlight = pl;

	mov	eax, DWORD PTR ?RI@@3PAUref_instance_t@@A ; RI
	mov	ecx, DWORD PTR _pl$[ebp]
	mov	DWORD PTR [eax+24], ecx

; 278  : 
; 279  : 		if( !Mod_CheckBoxVisible( pl->absmin, pl->absmax ))

	mov	eax, DWORD PTR _pl$[ebp]
	add	eax, 316				; 0000013cH
	push	eax
	mov	ecx, DWORD PTR _pl$[ebp]
	add	ecx, 304				; 00000130H
	push	ecx
	call	?Mod_CheckBoxVisible@@YA_NABVVector@@0@Z ; Mod_CheckBoxVisible
	add	esp, 8
	movzx	edx, al
	test	edx, edx
	jne	SHORT $LN7@R_DrawLigh

; 280  : 			continue;

	jmp	$LN2@R_DrawLigh
$LN7@R_DrawLigh:

; 281  : 
; 282  : 		if( R_CullBox( pl->absmin, pl->absmax ))

	push	0
	mov	eax, DWORD PTR _pl$[ebp]
	add	eax, 316				; 0000013cH
	push	eax
	mov	ecx, DWORD PTR _pl$[ebp]
	add	ecx, 304				; 00000130H
	push	ecx
	mov	ecx, DWORD PTR ?RI@@3PAUref_instance_t@@A ; RI
	add	ecx, 48					; 00000030H
	call	?CullBox@CFrustum@@QAE_NABVVector@@0H@Z	; CFrustum::CullBox
	movzx	edx, al
	test	edx, edx
	je	SHORT $LN8@R_DrawLigh

; 283  : 			continue;

	jmp	$LN2@R_DrawLigh
$LN8@R_DrawLigh:

; 284  : 
; 285  : 		if( !UTIL_IsLocal( pl->key ) || FBitSet( RI->params, RP_THIRDPERSON ))

	mov	eax, DWORD PTR _pl$[ebp]
	mov	ecx, DWORD PTR [eax+40]
	push	ecx
	call	?UTIL_IsLocal@@YA_NH@Z			; UTIL_IsLocal
	add	esp, 4
	movzx	edx, al
	test	edx, edx
	je	SHORT $LN10@R_DrawLigh
	mov	eax, DWORD PTR ?RI@@3PAUref_instance_t@@A ; RI
	mov	ecx, DWORD PTR [eax]
	and	ecx, 8192				; 00002000H
	je	SHORT $LN9@R_DrawLigh
$LN10@R_DrawLigh:

; 286  : 			pl->frustum.DrawFrustumDebug();

	mov	ecx, DWORD PTR _pl$[ebp]
	add	ecx, 328				; 00000148H
	call	?DrawFrustumDebug@CFrustum@@QAEXXZ	; CFrustum::DrawFrustumDebug
$LN9@R_DrawLigh:

; 287  : 
; 288  : //		DBG_DrawBBox( pl->absmin, pl->absmax );
; 289  : 		R_DrawScissorRectangle( pl->x, pl->y, pl->w, pl->h );

	mov	eax, DWORD PTR _pl$[ebp]
	push	ecx
	movss	xmm0, DWORD PTR [eax+736]
	movss	DWORD PTR [esp], xmm0
	mov	ecx, DWORD PTR _pl$[ebp]
	push	ecx
	movss	xmm0, DWORD PTR [ecx+732]
	movss	DWORD PTR [esp], xmm0
	mov	edx, DWORD PTR _pl$[ebp]
	push	ecx
	movss	xmm0, DWORD PTR [edx+728]
	movss	DWORD PTR [esp], xmm0
	mov	eax, DWORD PTR _pl$[ebp]
	push	ecx
	movss	xmm0, DWORD PTR [eax+724]
	movss	DWORD PTR [esp], xmm0
	call	?R_DrawScissorRectangle@@YAXMMMM@Z	; R_DrawScissorRectangle
	add	esp, 16					; 00000010H

; 290  : 	}

	jmp	$LN2@R_DrawLigh
$LN3@R_DrawLigh:

; 291  : 
; 292  : 	RI->currentlight = NULL;

	mov	eax, DWORD PTR ?RI@@3PAUref_instance_t@@A ; RI
	mov	DWORD PTR [eax+24], 0

; 293  : }

	pop	edi
	pop	esi
	pop	ebx
	mov	esp, ebp
	pop	ebp
	ret	0
?R_DrawLightScissors@@YAXXZ ENDP			; R_DrawLightScissors
_TEXT	ENDS
; Function compile flags: /Odtp /ZI
; File d:\!diffusion 2020\source code 2022\client-server\client\render\r_debug.cpp
;	COMDAT ?R_DrawRenderPasses@@YAXH@Z
_TEXT	SEGMENT
tv67 = -72						; size = 4
tv66 = -68						; size = 4
_passnum$ = 8						; size = 4
?R_DrawRenderPasses@@YAXH@Z PROC			; R_DrawRenderPasses, COMDAT

; 296  : {

	push	ebp
	mov	ebp, esp
	sub	esp, 72					; 00000048H
	push	ebx
	push	esi
	push	edi

; 297  : 	passnum = bound( 0, passnum, MAX_SUBVIEW_TEXTURES - 1 );

	cmp	DWORD PTR _passnum$[ebp], 0
	jl	SHORT $LN6@R_DrawRend
	cmp	DWORD PTR _passnum$[ebp], 63		; 0000003fH
	jge	SHORT $LN4@R_DrawRend
	mov	eax, DWORD PTR _passnum$[ebp]
	mov	DWORD PTR tv66[ebp], eax
	jmp	SHORT $LN5@R_DrawRend
$LN4@R_DrawRend:
	mov	DWORD PTR tv66[ebp], 63			; 0000003fH
$LN5@R_DrawRend:
	mov	ecx, DWORD PTR tv66[ebp]
	mov	DWORD PTR tv67[ebp], ecx
	jmp	SHORT $LN7@R_DrawRend
$LN6@R_DrawRend:
	mov	DWORD PTR tv67[ebp], 0
$LN7@R_DrawRend:
	mov	edx, DWORD PTR tv67[ebp]
	mov	DWORD PTR _passnum$[ebp], edx

; 298  : 
; 299  : 	if( tr.subviewTextures[passnum].texframe != tr.realframecount )

	imul	eax, DWORD PTR _passnum$[ebp], 76
	mov	ecx, DWORD PTR ?tr@@3Uref_globals_t@@A[eax+84]
	cmp	ecx, DWORD PTR ?tr@@3Uref_globals_t@@A+5830928
	je	SHORT $LN2@R_DrawRend

; 300  : 		return; // not used

	jmp	$LN1@R_DrawRend
$LN2@R_DrawRend:

; 301  : 
; 302  : 	GL_Setup2D();

	call	?GL_Setup2D@@YAXXZ			; GL_Setup2D

; 303  : 	GL_Bind( GL_TEXTURE0, tr.subviewTextures[passnum].texturenum );

	imul	eax, DWORD PTR _passnum$[ebp], 76
	mov	ecx, DWORD PTR ?tr@@3Uref_globals_t@@A[eax+80]
	push	ecx
	push	0
	call	DWORD PTR ?gRenderfuncs@@3Urender_api_s@@A+132
	add	esp, 8

; 304  : 	pglTexEnvf( GL_TEXTURE_ENV, GL_TEXTURE_ENV_MODE, GL_REPLACE );

	push	ecx
	movss	xmm0, DWORD PTR __real@45f00800
	movss	DWORD PTR [esp], xmm0
	push	8704					; 00002200H
	push	8960					; 00002300H
	call	DWORD PTR ?pglTexEnvf@@3P6GXIIM@ZA	; pglTexEnvf

; 305  : 
; 306  : 	pglBegin( GL_QUADS );

	push	7
	call	DWORD PTR ?pglBegin@@3P6GXI@ZA		; pglBegin

; 307  : 		pglTexCoord2f( 0.0f, 1.0f );

	push	ecx
	movss	xmm0, DWORD PTR __real@3f800000
	movss	DWORD PTR [esp], xmm0
	push	ecx
	xorps	xmm0, xmm0
	movss	DWORD PTR [esp], xmm0
	call	DWORD PTR ?pglTexCoord2f@@3P6GXMM@ZA	; pglTexCoord2f

; 308  : 		pglVertex2f( 0.0f, 0.0f );

	push	ecx
	xorps	xmm0, xmm0
	movss	DWORD PTR [esp], xmm0
	push	ecx
	xorps	xmm0, xmm0
	movss	DWORD PTR [esp], xmm0
	call	DWORD PTR ?pglVertex2f@@3P6GXMM@ZA	; pglVertex2f

; 309  : 		pglTexCoord2f( 1.0f, 1.0f );

	push	ecx
	movss	xmm0, DWORD PTR __real@3f800000
	movss	DWORD PTR [esp], xmm0
	push	ecx
	movss	xmm0, DWORD PTR __real@3f800000
	movss	DWORD PTR [esp], xmm0
	call	DWORD PTR ?pglTexCoord2f@@3P6GXMM@ZA	; pglTexCoord2f

; 310  : 		pglVertex2f( glState.width, 0.0f );

	push	ecx
	xorps	xmm0, xmm0
	movss	DWORD PTR [esp], xmm0
	cvtsi2ss xmm0, DWORD PTR ?glState@@3UglState_t@@A
	push	ecx
	movss	DWORD PTR [esp], xmm0
	call	DWORD PTR ?pglVertex2f@@3P6GXMM@ZA	; pglVertex2f

; 311  : 		pglTexCoord2f( 1.0f, 0.0f );

	push	ecx
	xorps	xmm0, xmm0
	movss	DWORD PTR [esp], xmm0
	push	ecx
	movss	xmm0, DWORD PTR __real@3f800000
	movss	DWORD PTR [esp], xmm0
	call	DWORD PTR ?pglTexCoord2f@@3P6GXMM@ZA	; pglTexCoord2f

; 312  : 		pglVertex2f( glState.width, glState.height );

	cvtsi2ss xmm0, DWORD PTR ?glState@@3UglState_t@@A+4
	push	ecx
	movss	DWORD PTR [esp], xmm0
	cvtsi2ss xmm0, DWORD PTR ?glState@@3UglState_t@@A
	push	ecx
	movss	DWORD PTR [esp], xmm0
	call	DWORD PTR ?pglVertex2f@@3P6GXMM@ZA	; pglVertex2f

; 313  : 		pglTexCoord2f( 0.0f, 0.0f );

	push	ecx
	xorps	xmm0, xmm0
	movss	DWORD PTR [esp], xmm0
	push	ecx
	xorps	xmm0, xmm0
	movss	DWORD PTR [esp], xmm0
	call	DWORD PTR ?pglTexCoord2f@@3P6GXMM@ZA	; pglTexCoord2f

; 314  : 		pglVertex2f( 0.0f, glState.height );

	cvtsi2ss xmm0, DWORD PTR ?glState@@3UglState_t@@A+4
	push	ecx
	movss	DWORD PTR [esp], xmm0
	push	ecx
	xorps	xmm0, xmm0
	movss	DWORD PTR [esp], xmm0
	call	DWORD PTR ?pglVertex2f@@3P6GXMM@ZA	; pglVertex2f

; 315  : 	pglEnd();

	call	DWORD PTR ?pglEnd@@3P6GXXZA		; pglEnd

; 316  : 	GL_Setup3D();

	call	?GL_Setup3D@@YAXXZ			; GL_Setup3D
$LN1@R_DrawRend:

; 317  : }

	pop	edi
	pop	esi
	pop	ebx
	mov	esp, ebp
	pop	ebp
	ret	0
?R_DrawRenderPasses@@YAXH@Z ENDP			; R_DrawRenderPasses
_TEXT	ENDS
; Function compile flags: /Odtp /ZI
; File d:\!diffusion 2020\source code 2022\client-server\client\render\r_debug.cpp
;	COMDAT ?DBG_DrawBBox@@YAXABVVector@@0@Z
_TEXT	SEGMENT
tv152 = -172						; size = 4
tv135 = -172						; size = 4
tv86 = -172						; size = 4
_i$ = -104						; size = 4
_bbox$ = -100						; size = 96
__$ArrayPad$ = -4					; size = 4
_mins$ = 8						; size = 4
_maxs$ = 12						; size = 4
?DBG_DrawBBox@@YAXABVVector@@0@Z PROC			; DBG_DrawBBox, COMDAT

; 233  : {

	push	ebp
	mov	ebp, esp
	sub	esp, 172				; 000000acH
	mov	eax, DWORD PTR ___security_cookie
	xor	eax, ebp
	mov	DWORD PTR __$ArrayPad$[ebp], eax
	push	ebx
	push	esi
	push	edi

; 234  : 	Vector bbox[8];

	push	OFFSET ??0Vector@@QAE@XZ		; Vector::Vector
	push	8
	push	12					; 0000000cH
	lea	eax, DWORD PTR _bbox$[ebp]
	push	eax
	call	??_H@YGXPAXIIP6EPAX0@Z@Z

; 235  : 	int i;
; 236  : 
; 237  : 	for( i = 0; i < 8; i++ )

	mov	DWORD PTR _i$[ebp], 0
	jmp	SHORT $LN4@DBG_DrawBB
$LN2@DBG_DrawBB:
	mov	eax, DWORD PTR _i$[ebp]
	add	eax, 1
	mov	DWORD PTR _i$[ebp], eax
$LN4@DBG_DrawBB:
	cmp	DWORD PTR _i$[ebp], 8
	jge	$LN3@DBG_DrawBB

; 238  : 	{
; 239  :   		bbox[i][0] = ( i & 1 ) ? mins[0] : maxs[0];

	mov	eax, DWORD PTR _i$[ebp]
	and	eax, 1
	je	SHORT $LN9@DBG_DrawBB
	mov	ecx, DWORD PTR _mins$[ebp]
	call	??BVector@@QBEPBMXZ			; Vector::operator float const *
	mov	ecx, 4
	imul	edx, ecx, 0
	movss	xmm0, DWORD PTR [eax+edx]
	movss	DWORD PTR tv86[ebp], xmm0
	jmp	SHORT $LN10@DBG_DrawBB
$LN9@DBG_DrawBB:
	mov	ecx, DWORD PTR _maxs$[ebp]
	call	??BVector@@QBEPBMXZ			; Vector::operator float const *
	mov	ecx, 4
	imul	edx, ecx, 0
	movss	xmm0, DWORD PTR [eax+edx]
	movss	DWORD PTR tv86[ebp], xmm0
$LN10@DBG_DrawBB:
	imul	eax, DWORD PTR _i$[ebp], 12
	lea	ecx, DWORD PTR _bbox$[ebp+eax]
	call	??BVector@@QAEPAMXZ			; Vector::operator float *
	mov	ecx, 4
	imul	edx, ecx, 0
	movss	xmm0, DWORD PTR tv86[ebp]
	movss	DWORD PTR [eax+edx], xmm0

; 240  :   		bbox[i][1] = ( i & 2 ) ? mins[1] : maxs[1];

	mov	eax, DWORD PTR _i$[ebp]
	and	eax, 2
	je	SHORT $LN11@DBG_DrawBB
	mov	ecx, DWORD PTR _mins$[ebp]
	call	??BVector@@QBEPBMXZ			; Vector::operator float const *
	mov	ecx, 4
	shl	ecx, 0
	movss	xmm0, DWORD PTR [eax+ecx]
	movss	DWORD PTR tv135[ebp], xmm0
	jmp	SHORT $LN12@DBG_DrawBB
$LN11@DBG_DrawBB:
	mov	ecx, DWORD PTR _maxs$[ebp]
	call	??BVector@@QBEPBMXZ			; Vector::operator float const *
	mov	edx, 4
	shl	edx, 0
	movss	xmm0, DWORD PTR [eax+edx]
	movss	DWORD PTR tv135[ebp], xmm0
$LN12@DBG_DrawBB:
	imul	eax, DWORD PTR _i$[ebp], 12
	lea	ecx, DWORD PTR _bbox$[ebp+eax]
	call	??BVector@@QAEPAMXZ			; Vector::operator float *
	mov	ecx, 4
	shl	ecx, 0
	movss	xmm0, DWORD PTR tv135[ebp]
	movss	DWORD PTR [eax+ecx], xmm0

; 241  :   		bbox[i][2] = ( i & 4 ) ? mins[2] : maxs[2];

	mov	eax, DWORD PTR _i$[ebp]
	and	eax, 4
	je	SHORT $LN13@DBG_DrawBB
	mov	ecx, DWORD PTR _mins$[ebp]
	call	??BVector@@QBEPBMXZ			; Vector::operator float const *
	mov	ecx, 4
	shl	ecx, 1
	movss	xmm0, DWORD PTR [eax+ecx]
	movss	DWORD PTR tv152[ebp], xmm0
	jmp	SHORT $LN14@DBG_DrawBB
$LN13@DBG_DrawBB:
	mov	ecx, DWORD PTR _maxs$[ebp]
	call	??BVector@@QBEPBMXZ			; Vector::operator float const *
	mov	edx, 4
	shl	edx, 1
	movss	xmm0, DWORD PTR [eax+edx]
	movss	DWORD PTR tv152[ebp], xmm0
$LN14@DBG_DrawBB:
	imul	eax, DWORD PTR _i$[ebp], 12
	lea	ecx, DWORD PTR _bbox$[ebp+eax]
	call	??BVector@@QAEPAMXZ			; Vector::operator float *
	mov	ecx, 4
	shl	ecx, 1
	movss	xmm0, DWORD PTR tv152[ebp]
	movss	DWORD PTR [eax+ecx], xmm0

; 242  : 	}

	jmp	$LN2@DBG_DrawBB
$LN3@DBG_DrawBB:

; 243  : 
; 244  : 	pglColor4f( 1.0f, 0.0f, 1.0f, 1.0f );	// yellow bboxes for frustum

	push	ecx
	movss	xmm0, DWORD PTR __real@3f800000
	movss	DWORD PTR [esp], xmm0
	push	ecx
	movss	xmm0, DWORD PTR __real@3f800000
	movss	DWORD PTR [esp], xmm0
	push	ecx
	xorps	xmm0, xmm0
	movss	DWORD PTR [esp], xmm0
	push	ecx
	movss	xmm0, DWORD PTR __real@3f800000
	movss	DWORD PTR [esp], xmm0
	call	DWORD PTR ?pglColor4f@@3P6GXMMMM@ZA	; pglColor4f

; 245  : 	pglDisable( GL_TEXTURE_2D );

	push	3553					; 00000de1H
	call	DWORD PTR ?pglDisable@@3P6GXI@ZA	; pglDisable

; 246  : 	pglBegin( GL_LINES );

	push	1
	call	DWORD PTR ?pglBegin@@3P6GXI@ZA		; pglBegin

; 247  : 
; 248  : 	for( i = 0; i < 2; i += 1 )

	mov	DWORD PTR _i$[ebp], 0
	jmp	SHORT $LN7@DBG_DrawBB
$LN5@DBG_DrawBB:
	mov	eax, DWORD PTR _i$[ebp]
	add	eax, 1
	mov	DWORD PTR _i$[ebp], eax
$LN7@DBG_DrawBB:
	cmp	DWORD PTR _i$[ebp], 2
	jge	$LN6@DBG_DrawBB

; 249  : 	{
; 250  : 		pglVertex3fv( bbox[i+0] );

	imul	eax, DWORD PTR _i$[ebp], 12
	lea	ecx, DWORD PTR _bbox$[ebp+eax]
	call	??BVector@@QAEPAMXZ			; Vector::operator float *
	push	eax
	call	DWORD PTR ?pglVertex3fv@@3P6GXPBM@ZA	; pglVertex3fv

; 251  : 		pglVertex3fv( bbox[i+2] );

	mov	eax, DWORD PTR _i$[ebp]
	add	eax, 2
	imul	ecx, eax, 12
	lea	ecx, DWORD PTR _bbox$[ebp+ecx]
	call	??BVector@@QAEPAMXZ			; Vector::operator float *
	push	eax
	call	DWORD PTR ?pglVertex3fv@@3P6GXPBM@ZA	; pglVertex3fv

; 252  : 		pglVertex3fv( bbox[i+4] );

	mov	eax, DWORD PTR _i$[ebp]
	add	eax, 4
	imul	ecx, eax, 12
	lea	ecx, DWORD PTR _bbox$[ebp+ecx]
	call	??BVector@@QAEPAMXZ			; Vector::operator float *
	push	eax
	call	DWORD PTR ?pglVertex3fv@@3P6GXPBM@ZA	; pglVertex3fv

; 253  : 		pglVertex3fv( bbox[i+6] );

	mov	eax, DWORD PTR _i$[ebp]
	add	eax, 6
	imul	ecx, eax, 12
	lea	ecx, DWORD PTR _bbox$[ebp+ecx]
	call	??BVector@@QAEPAMXZ			; Vector::operator float *
	push	eax
	call	DWORD PTR ?pglVertex3fv@@3P6GXPBM@ZA	; pglVertex3fv

; 254  : 		pglVertex3fv( bbox[i+0] );

	imul	eax, DWORD PTR _i$[ebp], 12
	lea	ecx, DWORD PTR _bbox$[ebp+eax]
	call	??BVector@@QAEPAMXZ			; Vector::operator float *
	push	eax
	call	DWORD PTR ?pglVertex3fv@@3P6GXPBM@ZA	; pglVertex3fv

; 255  : 		pglVertex3fv( bbox[i+4] );

	mov	eax, DWORD PTR _i$[ebp]
	add	eax, 4
	imul	ecx, eax, 12
	lea	ecx, DWORD PTR _bbox$[ebp+ecx]
	call	??BVector@@QAEPAMXZ			; Vector::operator float *
	push	eax
	call	DWORD PTR ?pglVertex3fv@@3P6GXPBM@ZA	; pglVertex3fv

; 256  : 		pglVertex3fv( bbox[i+2] );

	mov	eax, DWORD PTR _i$[ebp]
	add	eax, 2
	imul	ecx, eax, 12
	lea	ecx, DWORD PTR _bbox$[ebp+ecx]
	call	??BVector@@QAEPAMXZ			; Vector::operator float *
	push	eax
	call	DWORD PTR ?pglVertex3fv@@3P6GXPBM@ZA	; pglVertex3fv

; 257  : 		pglVertex3fv( bbox[i+6] );

	mov	eax, DWORD PTR _i$[ebp]
	add	eax, 6
	imul	ecx, eax, 12
	lea	ecx, DWORD PTR _bbox$[ebp+ecx]
	call	??BVector@@QAEPAMXZ			; Vector::operator float *
	push	eax
	call	DWORD PTR ?pglVertex3fv@@3P6GXPBM@ZA	; pglVertex3fv

; 258  : 		pglVertex3fv( bbox[i*2+0] );

	mov	eax, DWORD PTR _i$[ebp]
	shl	eax, 1
	imul	ecx, eax, 12
	lea	ecx, DWORD PTR _bbox$[ebp+ecx]
	call	??BVector@@QAEPAMXZ			; Vector::operator float *
	push	eax
	call	DWORD PTR ?pglVertex3fv@@3P6GXPBM@ZA	; pglVertex3fv

; 259  : 		pglVertex3fv( bbox[i*2+1] );

	mov	eax, DWORD PTR _i$[ebp]
	lea	ecx, DWORD PTR [eax+eax+1]
	imul	edx, ecx, 12
	lea	ecx, DWORD PTR _bbox$[ebp+edx]
	call	??BVector@@QAEPAMXZ			; Vector::operator float *
	push	eax
	call	DWORD PTR ?pglVertex3fv@@3P6GXPBM@ZA	; pglVertex3fv

; 260  : 		pglVertex3fv( bbox[i*2+4] );

	mov	eax, DWORD PTR _i$[ebp]
	lea	ecx, DWORD PTR [eax+eax+4]
	imul	edx, ecx, 12
	lea	ecx, DWORD PTR _bbox$[ebp+edx]
	call	??BVector@@QAEPAMXZ			; Vector::operator float *
	push	eax
	call	DWORD PTR ?pglVertex3fv@@3P6GXPBM@ZA	; pglVertex3fv

; 261  : 		pglVertex3fv( bbox[i*2+5] );

	mov	eax, DWORD PTR _i$[ebp]
	lea	ecx, DWORD PTR [eax+eax+5]
	imul	edx, ecx, 12
	lea	ecx, DWORD PTR _bbox$[ebp+edx]
	call	??BVector@@QAEPAMXZ			; Vector::operator float *
	push	eax
	call	DWORD PTR ?pglVertex3fv@@3P6GXPBM@ZA	; pglVertex3fv

; 262  : 	}

	jmp	$LN5@DBG_DrawBB
$LN6@DBG_DrawBB:

; 263  : 	pglEnd();

	call	DWORD PTR ?pglEnd@@3P6GXXZA		; pglEnd

; 264  : 
; 265  : 	pglEnable( GL_TEXTURE_2D );

	push	3553					; 00000de1H
	call	DWORD PTR ?pglEnable@@3P6GXI@ZA		; pglEnable

; 266  : }

	pop	edi
	pop	esi
	pop	ebx
	mov	ecx, DWORD PTR __$ArrayPad$[ebp]
	xor	ecx, ebp
	call	@__security_check_cookie@4
	mov	esp, ebp
	pop	ebp
	ret	0
?DBG_DrawBBox@@YAXABVVector@@0@Z ENDP			; DBG_DrawBBox
_TEXT	ENDS
; Function compile flags: /Odtp /ZI
; File d:\!diffusion 2020\source code 2022\client-server\client\render\r_debug.cpp
;	COMDAT ?R_DrawScissorRectangle@@YAXMMMM@Z
_TEXT	SEGMENT
_x$ = 8							; size = 4
_y$ = 12						; size = 4
_w$ = 16						; size = 4
_h$ = 20						; size = 4
?R_DrawScissorRectangle@@YAXMMMM@Z PROC			; R_DrawScissorRectangle, COMDAT

; 211  : {

	push	ebp
	mov	ebp, esp
	sub	esp, 64					; 00000040H
	push	ebx
	push	esi
	push	edi

; 212  : 	pglDisable( GL_TEXTURE_2D );

	push	3553					; 00000de1H
	call	DWORD PTR ?pglDisable@@3P6GXI@ZA	; pglDisable

; 213  : 	GL_Setup2D();

	call	?GL_Setup2D@@YAXXZ			; GL_Setup2D

; 214  : 
; 215  : 	pglColor3f( 1, 0.5, 0 );

	push	ecx
	xorps	xmm0, xmm0
	movss	DWORD PTR [esp], xmm0
	push	ecx
	movss	xmm0, DWORD PTR __real@3f000000
	movss	DWORD PTR [esp], xmm0
	push	ecx
	movss	xmm0, DWORD PTR __real@3f800000
	movss	DWORD PTR [esp], xmm0
	call	DWORD PTR ?pglColor3f@@3P6GXMMM@ZA	; pglColor3f

; 216  : 
; 217  : 	pglBegin( GL_LINES );

	push	1
	call	DWORD PTR ?pglBegin@@3P6GXI@ZA		; pglBegin

; 218  : 		pglVertex2f( x, y );

	push	ecx
	movss	xmm0, DWORD PTR _y$[ebp]
	movss	DWORD PTR [esp], xmm0
	push	ecx
	movss	xmm0, DWORD PTR _x$[ebp]
	movss	DWORD PTR [esp], xmm0
	call	DWORD PTR ?pglVertex2f@@3P6GXMM@ZA	; pglVertex2f

; 219  : 		pglVertex2f( x + w, y );

	push	ecx
	movss	xmm0, DWORD PTR _y$[ebp]
	movss	DWORD PTR [esp], xmm0
	movss	xmm0, DWORD PTR _x$[ebp]
	addss	xmm0, DWORD PTR _w$[ebp]
	push	ecx
	movss	DWORD PTR [esp], xmm0
	call	DWORD PTR ?pglVertex2f@@3P6GXMM@ZA	; pglVertex2f

; 220  : 		pglVertex2f( x, y );

	push	ecx
	movss	xmm0, DWORD PTR _y$[ebp]
	movss	DWORD PTR [esp], xmm0
	push	ecx
	movss	xmm0, DWORD PTR _x$[ebp]
	movss	DWORD PTR [esp], xmm0
	call	DWORD PTR ?pglVertex2f@@3P6GXMM@ZA	; pglVertex2f

; 221  : 		pglVertex2f( x, y + h );

	movss	xmm0, DWORD PTR _y$[ebp]
	addss	xmm0, DWORD PTR _h$[ebp]
	push	ecx
	movss	DWORD PTR [esp], xmm0
	push	ecx
	movss	xmm0, DWORD PTR _x$[ebp]
	movss	DWORD PTR [esp], xmm0
	call	DWORD PTR ?pglVertex2f@@3P6GXMM@ZA	; pglVertex2f

; 222  : 		pglVertex2f( x + w, y );

	push	ecx
	movss	xmm0, DWORD PTR _y$[ebp]
	movss	DWORD PTR [esp], xmm0
	movss	xmm0, DWORD PTR _x$[ebp]
	addss	xmm0, DWORD PTR _w$[ebp]
	push	ecx
	movss	DWORD PTR [esp], xmm0
	call	DWORD PTR ?pglVertex2f@@3P6GXMM@ZA	; pglVertex2f

; 223  : 		pglVertex2f( x + w, y + h );

	movss	xmm0, DWORD PTR _y$[ebp]
	addss	xmm0, DWORD PTR _h$[ebp]
	push	ecx
	movss	DWORD PTR [esp], xmm0
	movss	xmm0, DWORD PTR _x$[ebp]
	addss	xmm0, DWORD PTR _w$[ebp]
	push	ecx
	movss	DWORD PTR [esp], xmm0
	call	DWORD PTR ?pglVertex2f@@3P6GXMM@ZA	; pglVertex2f

; 224  : 		pglVertex2f( x, y + h );

	movss	xmm0, DWORD PTR _y$[ebp]
	addss	xmm0, DWORD PTR _h$[ebp]
	push	ecx
	movss	DWORD PTR [esp], xmm0
	push	ecx
	movss	xmm0, DWORD PTR _x$[ebp]
	movss	DWORD PTR [esp], xmm0
	call	DWORD PTR ?pglVertex2f@@3P6GXMM@ZA	; pglVertex2f

; 225  : 		pglVertex2f( x + w, y + h );

	movss	xmm0, DWORD PTR _y$[ebp]
	addss	xmm0, DWORD PTR _h$[ebp]
	push	ecx
	movss	DWORD PTR [esp], xmm0
	movss	xmm0, DWORD PTR _x$[ebp]
	addss	xmm0, DWORD PTR _w$[ebp]
	push	ecx
	movss	DWORD PTR [esp], xmm0
	call	DWORD PTR ?pglVertex2f@@3P6GXMM@ZA	; pglVertex2f

; 226  : 	pglEnd();

	call	DWORD PTR ?pglEnd@@3P6GXXZA		; pglEnd

; 227  : 
; 228  : 	pglEnable( GL_TEXTURE_2D );

	push	3553					; 00000de1H
	call	DWORD PTR ?pglEnable@@3P6GXI@ZA		; pglEnable

; 229  : 	GL_Setup3D();

	call	?GL_Setup3D@@YAXXZ			; GL_Setup3D

; 230  : }

	pop	edi
	pop	esi
	pop	ebx
	mov	esp, ebp
	pop	ebp
	ret	0
?R_DrawScissorRectangle@@YAXMMMM@Z ENDP			; R_DrawScissorRectangle
_TEXT	ENDS
; Function compile flags: /Odtp /ZI
; File d:\!diffusion 2020\source code 2022\client-server\game_shared\vector.h
;	COMDAT ??BVector@@QBEPBMXZ
_TEXT	SEGMENT
_this$ = -4						; size = 4
??BVector@@QBEPBMXZ PROC				; Vector::operator float const *, COMDAT
; _this$ = ecx

; 248  : 	operator const float *() const		{ return &x; } 

	push	ebp
	mov	ebp, esp
	sub	esp, 68					; 00000044H
	push	ebx
	push	esi
	push	edi
	mov	DWORD PTR _this$[ebp], ecx
	mov	eax, DWORD PTR _this$[ebp]
	pop	edi
	pop	esi
	pop	ebx
	mov	esp, ebp
	pop	ebp
	ret	0
??BVector@@QBEPBMXZ ENDP				; Vector::operator float const *
_TEXT	ENDS
; Function compile flags: /Odtp /ZI
; File d:\!diffusion 2020\source code 2022\client-server\game_shared\vector.h
;	COMDAT ??BVector@@QAEPAMXZ
_TEXT	SEGMENT
_this$ = -4						; size = 4
??BVector@@QAEPAMXZ PROC				; Vector::operator float *, COMDAT
; _this$ = ecx

; 247  : 	operator float *()				{ return &x; } // Vectors will now automatically convert to float * when needed

	push	ebp
	mov	ebp, esp
	sub	esp, 68					; 00000044H
	push	ebx
	push	esi
	push	edi
	mov	DWORD PTR _this$[ebp], ecx
	mov	eax, DWORD PTR _this$[ebp]
	pop	edi
	pop	esi
	pop	ebx
	mov	esp, ebp
	pop	ebp
	ret	0
??BVector@@QAEPAMXZ ENDP				; Vector::operator float *
_TEXT	ENDS
; Function compile flags: /Odtp /ZI
; File d:\!diffusion 2020\source code 2022\client-server\game_shared\vector.h
;	COMDAT ??DVector@@QBE?AV0@M@Z
_TEXT	SEGMENT
_this$ = -4						; size = 4
___$ReturnUdt$ = 8					; size = 4
_fl$ = 12						; size = 4
??DVector@@QBE?AV0@M@Z PROC				; Vector::operator*, COMDAT
; _this$ = ecx

; 162  : 	inline Vector operator*(float fl) const		{ return Vector(x*fl, y*fl, z*fl);	   }

	push	ebp
	mov	ebp, esp
	sub	esp, 68					; 00000044H
	push	ebx
	push	esi
	push	edi
	mov	DWORD PTR _this$[ebp], ecx
	mov	eax, DWORD PTR _this$[ebp]
	movss	xmm0, DWORD PTR [eax+8]
	mulss	xmm0, DWORD PTR _fl$[ebp]
	push	ecx
	movss	DWORD PTR [esp], xmm0
	mov	ecx, DWORD PTR _this$[ebp]
	movss	xmm0, DWORD PTR [ecx+4]
	mulss	xmm0, DWORD PTR _fl$[ebp]
	push	ecx
	movss	DWORD PTR [esp], xmm0
	mov	edx, DWORD PTR _this$[ebp]
	movss	xmm0, DWORD PTR [edx]
	mulss	xmm0, DWORD PTR _fl$[ebp]
	push	ecx
	movss	DWORD PTR [esp], xmm0
	mov	ecx, DWORD PTR ___$ReturnUdt$[ebp]
	call	??0Vector@@QAE@MMM@Z			; Vector::Vector
	mov	eax, DWORD PTR ___$ReturnUdt$[ebp]
	pop	edi
	pop	esi
	pop	ebx
	mov	esp, ebp
	pop	ebp
	ret	8
??DVector@@QBE?AV0@M@Z ENDP				; Vector::operator*
_TEXT	ENDS
; Function compile flags: /Odtp /ZI
; File d:\!diffusion 2020\source code 2022\client-server\game_shared\vector.h
;	COMDAT ??HVector@@QBE?AV0@ABV0@@Z
_TEXT	SEGMENT
_this$ = -4						; size = 4
___$ReturnUdt$ = 8					; size = 4
_v$ = 12						; size = 4
??HVector@@QBE?AV0@ABV0@@Z PROC				; Vector::operator+, COMDAT
; _this$ = ecx

; 158  : 	inline Vector operator+(const Vector& v) const	{ return Vector(x+v.x, y+v.y, z+v.z);	   }

	push	ebp
	mov	ebp, esp
	sub	esp, 68					; 00000044H
	push	ebx
	push	esi
	push	edi
	mov	DWORD PTR _this$[ebp], ecx
	mov	eax, DWORD PTR _this$[ebp]
	mov	ecx, DWORD PTR _v$[ebp]
	movss	xmm0, DWORD PTR [eax+8]
	addss	xmm0, DWORD PTR [ecx+8]
	push	ecx
	movss	DWORD PTR [esp], xmm0
	mov	edx, DWORD PTR _this$[ebp]
	mov	eax, DWORD PTR _v$[ebp]
	movss	xmm0, DWORD PTR [edx+4]
	addss	xmm0, DWORD PTR [eax+4]
	push	ecx
	movss	DWORD PTR [esp], xmm0
	mov	ecx, DWORD PTR _this$[ebp]
	mov	edx, DWORD PTR _v$[ebp]
	movss	xmm0, DWORD PTR [ecx]
	addss	xmm0, DWORD PTR [edx]
	push	ecx
	movss	DWORD PTR [esp], xmm0
	mov	ecx, DWORD PTR ___$ReturnUdt$[ebp]
	call	??0Vector@@QAE@MMM@Z			; Vector::Vector
	mov	eax, DWORD PTR ___$ReturnUdt$[ebp]
	pop	edi
	pop	esi
	pop	ebx
	mov	esp, ebp
	pop	ebp
	ret	8
??HVector@@QBE?AV0@ABV0@@Z ENDP				; Vector::operator+
_TEXT	ENDS
; Function compile flags: /Odtp /ZI
; File d:\!diffusion 2020\source code 2022\client-server\game_shared\vector.h
;	COMDAT ??0Vector@@QAE@ABV0@@Z
_TEXT	SEGMENT
_this$ = -4						; size = 4
_v$ = 8							; size = 4
??0Vector@@QAE@ABV0@@Z PROC				; Vector::Vector, COMDAT
; _this$ = ecx

; 145  : 	inline Vector(const Vector& v)		{ x = v.x; y = v.y; z = v.z;		   }

	push	ebp
	mov	ebp, esp
	sub	esp, 68					; 00000044H
	push	ebx
	push	esi
	push	edi
	mov	DWORD PTR _this$[ebp], ecx
	mov	eax, DWORD PTR _this$[ebp]
	mov	ecx, DWORD PTR _v$[ebp]
	mov	edx, DWORD PTR [ecx]
	mov	DWORD PTR [eax], edx
	mov	eax, DWORD PTR _this$[ebp]
	mov	ecx, DWORD PTR _v$[ebp]
	mov	edx, DWORD PTR [ecx+4]
	mov	DWORD PTR [eax+4], edx
	mov	eax, DWORD PTR _this$[ebp]
	mov	ecx, DWORD PTR _v$[ebp]
	mov	edx, DWORD PTR [ecx+8]
	mov	DWORD PTR [eax+8], edx
	mov	eax, DWORD PTR _this$[ebp]
	pop	edi
	pop	esi
	pop	ebx
	mov	esp, ebp
	pop	ebp
	ret	4
??0Vector@@QAE@ABV0@@Z ENDP				; Vector::Vector
_TEXT	ENDS
; Function compile flags: /Odtp /ZI
; File d:\!diffusion 2020\source code 2022\client-server\game_shared\vector.h
;	COMDAT ??0Vector@@QAE@MMM@Z
_TEXT	SEGMENT
_this$ = -4						; size = 4
_X$ = 8							; size = 4
_Y$ = 12						; size = 4
_Z$ = 16						; size = 4
??0Vector@@QAE@MMM@Z PROC				; Vector::Vector, COMDAT
; _this$ = ecx

; 144  : 	inline Vector(float X, float Y, float Z)	{ x = X; y = Y; z = Z;                     }

	push	ebp
	mov	ebp, esp
	sub	esp, 68					; 00000044H
	push	ebx
	push	esi
	push	edi
	mov	DWORD PTR _this$[ebp], ecx
	mov	eax, DWORD PTR _this$[ebp]
	movss	xmm0, DWORD PTR _X$[ebp]
	movss	DWORD PTR [eax], xmm0
	mov	eax, DWORD PTR _this$[ebp]
	movss	xmm0, DWORD PTR _Y$[ebp]
	movss	DWORD PTR [eax+4], xmm0
	mov	eax, DWORD PTR _this$[ebp]
	movss	xmm0, DWORD PTR _Z$[ebp]
	movss	DWORD PTR [eax+8], xmm0
	mov	eax, DWORD PTR _this$[ebp]
	pop	edi
	pop	esi
	pop	ebx
	mov	esp, ebp
	pop	ebp
	ret	12					; 0000000cH
??0Vector@@QAE@MMM@Z ENDP				; Vector::Vector
_TEXT	ENDS
; Function compile flags: /Odtp /ZI
; File d:\!diffusion 2020\source code 2022\client-server\game_shared\vector.h
;	COMDAT ??0Vector@@QAE@XZ
_TEXT	SEGMENT
_this$ = -4						; size = 4
??0Vector@@QAE@XZ PROC					; Vector::Vector, COMDAT
; _this$ = ecx

; 143  : 	inline Vector(void)				{ }

	push	ebp
	mov	ebp, esp
	sub	esp, 68					; 00000044H
	push	ebx
	push	esi
	push	edi
	mov	DWORD PTR _this$[ebp], ecx
	mov	eax, DWORD PTR _this$[ebp]
	pop	edi
	pop	esi
	pop	ebx
	mov	esp, ebp
	pop	ebp
	ret	0
??0Vector@@QAE@XZ ENDP					; Vector::Vector
_TEXT	ENDS
; Function compile flags: /Odtp /ZI
;	COMDAT ??__G@YGXPAX0IIP6EPAX00@Z@Z
_TEXT	SEGMENT
tv66 = -68						; size = 4
___t$ = 8						; size = 4
___u$ = 12						; size = 4
___s$ = 16						; size = 4
___n$ = 20						; size = 4
___f$ = 24						; size = 4
??__G@YGXPAX0IIP6EPAX00@Z@Z PROC			; `vector copy constructor iterator', COMDAT
	push	ebp
	mov	ebp, esp
	sub	esp, 68					; 00000044H
	push	ebx
	push	esi
	push	edi
$LN2@vector:
	mov	eax, DWORD PTR ___n$[ebp]
	mov	DWORD PTR tv66[ebp], eax
	mov	ecx, DWORD PTR ___n$[ebp]
	sub	ecx, 1
	mov	DWORD PTR ___n$[ebp], ecx
	cmp	DWORD PTR tv66[ebp], 0
	jbe	SHORT $LN1@vector
	mov	eax, DWORD PTR ___u$[ebp]
	push	eax
	mov	ecx, DWORD PTR ___t$[ebp]
	call	DWORD PTR ___f$[ebp]
	mov	eax, DWORD PTR ___t$[ebp]
	add	eax, DWORD PTR ___s$[ebp]
	mov	DWORD PTR ___t$[ebp], eax
	mov	eax, DWORD PTR ___u$[ebp]
	add	eax, DWORD PTR ___s$[ebp]
	mov	DWORD PTR ___u$[ebp], eax
	jmp	SHORT $LN2@vector
$LN1@vector:
	pop	edi
	pop	esi
	pop	ebx
	mov	esp, ebp
	pop	ebp
	ret	20					; 00000014H
??__G@YGXPAX0IIP6EPAX00@Z@Z ENDP			; `vector copy constructor iterator'
_TEXT	ENDS
; Function compile flags: /Odtp /ZI
;	COMDAT ??_H@YGXPAXIIP6EPAX0@Z@Z
_TEXT	SEGMENT
tv66 = -68						; size = 4
___t$ = 8						; size = 4
___s$ = 12						; size = 4
___n$ = 16						; size = 4
___f$ = 20						; size = 4
??_H@YGXPAXIIP6EPAX0@Z@Z PROC				; `vector constructor iterator', COMDAT
	push	ebp
	mov	ebp, esp
	sub	esp, 68					; 00000044H
	push	ebx
	push	esi
	push	edi
$LN2@vector:
	mov	eax, DWORD PTR ___n$[ebp]
	mov	DWORD PTR tv66[ebp], eax
	mov	ecx, DWORD PTR ___n$[ebp]
	sub	ecx, 1
	mov	DWORD PTR ___n$[ebp], ecx
	cmp	DWORD PTR tv66[ebp], 0
	jbe	SHORT $LN1@vector
	mov	ecx, DWORD PTR ___t$[ebp]
	call	DWORD PTR ___f$[ebp]
	mov	eax, DWORD PTR ___t$[ebp]
	add	eax, DWORD PTR ___s$[ebp]
	mov	DWORD PTR ___t$[ebp], eax
	jmp	SHORT $LN2@vector
$LN1@vector:
	pop	edi
	pop	esi
	pop	ebx
	mov	esp, ebp
	pop	ebp
	ret	16					; 00000010H
??_H@YGXPAXIIP6EPAX0@Z@Z ENDP				; `vector constructor iterator'
_TEXT	ENDS
END
