; Listing generated by Microsoft (R) Optimizing Compiler Version 19.00.24247.2 

	TITLE	D:\!DIFFUSION 2020\source code 2022\client-server\client\render\r_frustum.cpp
	.686P
	.XMM
	include listing.inc
	.model	flat

INCLUDELIB LIBCMT
INCLUDELIB OLDNAMES

PUBLIC	??_H@YGXPAXIIP6EPAX0@Z@Z			; `vector constructor iterator'
PUBLIC	??__G@YGXPAX0IIP6EPAX00@Z@Z			; `vector copy constructor iterator'
PUBLIC	?SinCos@@YAXMPAM0@Z				; SinCos
PUBLIC	??0Vector@@QAE@XZ				; Vector::Vector
PUBLIC	??0Vector@@QAE@MMM@Z				; Vector::Vector
PUBLIC	??0Vector@@QAE@ABV0@@Z				; Vector::Vector
PUBLIC	??GVector@@QBE?AV0@XZ				; Vector::operator-
PUBLIC	??8Vector@@QBEHABV0@@Z				; Vector::operator==
PUBLIC	??9Vector@@QBEHABV0@@Z				; Vector::operator!=
PUBLIC	??HVector@@QBE?AV0@ABV0@@Z			; Vector::operator+
PUBLIC	??DVector@@QBE?AV0@M@Z				; Vector::operator*
PUBLIC	?Length@Vector@@QBEMXZ				; Vector::Length
PUBLIC	??BVector@@QAEPAMXZ				; Vector::operator float *
PUBLIC	?DotProduct@@YAMABVVector@@0@Z			; DotProduct
PUBLIC	??BVector4D@@QBEPBMXZ				; Vector4D::operator float const *
PUBLIC	??BVector4D@@QBE?BVVector@@XZ			; Vector4D::operator Vector const 
PUBLIC	??Amatrix4x4@@QBEPBMH@Z				; matrix4x4::operator[]
PUBLIC	?GetForward@matrix4x4@@QBE?AVVector@@XZ		; matrix4x4::GetForward
PUBLIC	?GetRight@matrix4x4@@QBE?AVVector@@XZ		; matrix4x4::GetRight
PUBLIC	?GetUp@matrix4x4@@QBE?AVVector@@XZ		; matrix4x4::GetUp
PUBLIC	?GetOrigin@matrix4x4@@QBE?AVVector@@XZ		; matrix4x4::GetOrigin
PUBLIC	?InitProjection@CFrustum@@QAEXABVmatrix4x4@@MMMM@Z ; CFrustum::InitProjection
PUBLIC	?InitOrthogonal@CFrustum@@QAEXABVmatrix4x4@@MMMMMM@Z ; CFrustum::InitOrthogonal
PUBLIC	?InitBoxFrustum@CFrustum@@QAEXABVVector@@M@Z	; CFrustum::InitBoxFrustum
PUBLIC	?InitProjectionFromMatrix@CFrustum@@QAEXABVmatrix4x4@@@Z ; CFrustum::InitProjectionFromMatrix
PUBLIC	?SetPlane@CFrustum@@QAEXHABVVector@@M@Z		; CFrustum::SetPlane
PUBLIC	?NormalizePlane@CFrustum@@QAEXH@Z		; CFrustum::NormalizePlane
PUBLIC	?ComputeFrustumBounds@CFrustum@@QAEXAAVVector@@0@Z ; CFrustum::ComputeFrustumBounds
PUBLIC	?ComputeFrustumCorners@CFrustum@@QAEXQAVVector@@@Z ; CFrustum::ComputeFrustumCorners
PUBLIC	?DrawFrustumDebug@CFrustum@@QAEXXZ		; CFrustum::DrawFrustumDebug
PUBLIC	?ClearFrustum@CFrustum@@QAEXXZ			; CFrustum::ClearFrustum
PUBLIC	?CullBox@CFrustum@@QAE_NABVVector@@0H@Z		; CFrustum::CullBox
PUBLIC	?CullSphere@CFrustum@@QAE_NABVVector@@MH@Z	; CFrustum::CullSphere
PUBLIC	?EnablePlane@CFrustum@@QAEXH@Z			; CFrustum::EnablePlane
PUBLIC	?DisablePlane@CFrustum@@QAEXH@Z			; CFrustum::DisablePlane
PUBLIC	?__LINE__Var@?0??EnablePlane@CFrustum@@QAEXH@Z@4JA ; `CFrustum::EnablePlane'::`1'::__LINE__Var
PUBLIC	??_C@_0EO@IFNGPKKG@d?3?2?$CBdiffusion?52020?2source?5code?52@ ; `string'
PUBLIC	??_C@_0BI@FECCGOFJ@assert?5failed?5at?5?$CFs?3?$CFi?6?$AA@ ; `string'
PUBLIC	?__LINE__Var@?0??DisablePlane@CFrustum@@QAEXH@Z@4JA ; `CFrustum::DisablePlane'::`1'::__LINE__Var
PUBLIC	?__LINE__Var@?0??SetPlane@CFrustum@@QAEXHABVVector@@M@Z@4JA ; `CFrustum::SetPlane'::`1'::__LINE__Var
PUBLIC	?__LINE__Var@?0??NormalizePlane@CFrustum@@QAEXH@Z@4JA ; `CFrustum::NormalizePlane'::`1'::__LINE__Var
PUBLIC	__real@00000000
PUBLIC	__real@3c8efa35
PUBLIC	__real@3f000000
PUBLIC	__real@3f800000
PUBLIC	__real@bf800000
PUBLIC	__xmm@80000000800000008000000080000000
EXTRN	_memset:PROC
EXTRN	_cos:PROC
EXTRN	_sin:PROC
EXTRN	_sqrt:PROC
EXTRN	?PlanesGetIntersectionPoint@@YA_NPBUmplane_s@@00AAVVector@@@Z:PROC ; PlanesGetIntersectionPoint
EXTRN	?PlaneTypeForNormal@@YAHABVVector@@@Z:PROC	; PlaneTypeForNormal
EXTRN	?SignbitsForPlane@@YAHABVVector@@@Z:PROC	; SignbitsForPlane
EXTRN	?ClearBounds@@YAXAAVVector@@0@Z:PROC		; ClearBounds
EXTRN	?AddPointToBounds@@YAXABVVector@@AAV1@1M@Z:PROC	; AddPointToBounds
EXTRN	@__security_check_cookie@4:PROC
EXTRN	?g_vecZero@@3VVector@@B:BYTE			; g_vecZero
EXTRN	?gRenderfuncs@@3Urender_api_s@@A:BYTE		; gRenderfuncs
EXTRN	?pglBegin@@3P6GXI@ZA:DWORD			; pglBegin
EXTRN	?pglColor4f@@3P6GXMMMM@ZA:DWORD			; pglColor4f
EXTRN	?pglDisable@@3P6GXI@ZA:DWORD			; pglDisable
EXTRN	?pglEnable@@3P6GXI@ZA:DWORD			; pglEnable
EXTRN	?pglEnd@@3P6GXXZA:DWORD				; pglEnd
EXTRN	?pglVertex3fv@@3P6GXPBM@ZA:DWORD		; pglVertex3fv
EXTRN	?r_nocull@@3PAUcvar_s@@A:DWORD			; r_nocull
EXTRN	___security_cookie:DWORD
EXTRN	__fltused:DWORD
;	COMDAT __xmm@80000000800000008000000080000000
CONST	SEGMENT
__xmm@80000000800000008000000080000000 DB 00H, 00H, 00H, 080H, 00H, 00H, 00H
	DB	080H, 00H, 00H, 00H, 080H, 00H, 00H, 00H, 080H
CONST	ENDS
;	COMDAT __real@bf800000
CONST	SEGMENT
__real@bf800000 DD 0bf800000r			; -1
CONST	ENDS
;	COMDAT __real@3f800000
CONST	SEGMENT
__real@3f800000 DD 03f800000r			; 1
CONST	ENDS
;	COMDAT __real@3f000000
CONST	SEGMENT
__real@3f000000 DD 03f000000r			; 0.5
CONST	ENDS
;	COMDAT __real@3c8efa35
CONST	SEGMENT
__real@3c8efa35 DD 03c8efa35r			; 0.0174533
CONST	ENDS
;	COMDAT __real@00000000
CONST	SEGMENT
__real@00000000 DD 000000000r			; 0
CONST	ENDS
;	COMDAT ?__LINE__Var@?0??NormalizePlane@CFrustum@@QAEXH@Z@4JA
_DATA	SEGMENT
?__LINE__Var@?0??NormalizePlane@CFrustum@@QAEXH@Z@4JA DD 0acH ; `CFrustum::NormalizePlane'::`1'::__LINE__Var
_DATA	ENDS
;	COMDAT ?__LINE__Var@?0??SetPlane@CFrustum@@QAEXHABVVector@@M@Z@4JA
_DATA	SEGMENT
?__LINE__Var@?0??SetPlane@CFrustum@@QAEXHABVVector@@M@Z@4JA DD 0a0H ; `CFrustum::SetPlane'::`1'::__LINE__Var
_DATA	ENDS
;	COMDAT ?__LINE__Var@?0??DisablePlane@CFrustum@@QAEXH@Z@4JA
_DATA	SEGMENT
?__LINE__Var@?0??DisablePlane@CFrustum@@QAEXH@Z@4JA DD 029H ; `CFrustum::DisablePlane'::`1'::__LINE__Var
_DATA	ENDS
;	COMDAT ??_C@_0BI@FECCGOFJ@assert?5failed?5at?5?$CFs?3?$CFi?6?$AA@
CONST	SEGMENT
??_C@_0BI@FECCGOFJ@assert?5failed?5at?5?$CFs?3?$CFi?6?$AA@ DB 'assert fai'
	DB	'led at %s:%i', 0aH, 00H			; `string'
CONST	ENDS
;	COMDAT ??_C@_0EO@IFNGPKKG@d?3?2?$CBdiffusion?52020?2source?5code?52@
CONST	SEGMENT
??_C@_0EO@IFNGPKKG@d?3?2?$CBdiffusion?52020?2source?5code?52@ DB 'd:\!dif'
	DB	'fusion 2020\source code 2022\client-server\client\render\r_fr'
	DB	'ustum.cpp', 00H				; `string'
CONST	ENDS
;	COMDAT ?__LINE__Var@?0??EnablePlane@CFrustum@@QAEXH@Z@4JA
_DATA	SEGMENT
?__LINE__Var@?0??EnablePlane@CFrustum@@QAEXH@Z@4JA DD 020H ; `CFrustum::EnablePlane'::`1'::__LINE__Var
_DATA	ENDS
; Function compile flags: /Odtp /ZI
; File d:\!diffusion 2020\source code 2022\client-server\client\render\r_frustum.cpp
;	COMDAT ?DisablePlane@CFrustum@@QAEXH@Z
_TEXT	SEGMENT
_this$ = -4						; size = 4
_side$ = 8						; size = 4
?DisablePlane@CFrustum@@QAEXH@Z PROC			; CFrustum::DisablePlane, COMDAT
; _this$ = ecx

; 41   : {

	push	ebp
	mov	ebp, esp
	sub	esp, 68					; 00000044H
	push	ebx
	push	esi
	push	edi
	mov	DWORD PTR _this$[ebp], ecx

; 42   : 	ASSERT( side >= 0 && side < FRUSTUM_PLANES );

	cmp	DWORD PTR _side$[ebp], 0
	jl	SHORT $LN3@DisablePla
	cmp	DWORD PTR _side$[ebp], 6
	jl	SHORT $LN2@DisablePla
$LN3@DisablePla:
	mov	eax, DWORD PTR ?__LINE__Var@?0??DisablePlane@CFrustum@@QAEXH@Z@4JA
	add	eax, 1
	push	eax
	push	OFFSET ??_C@_0EO@IFNGPKKG@d?3?2?$CBdiffusion?52020?2source?5code?52@
	push	OFFSET ??_C@_0BI@FECCGOFJ@assert?5failed?5at?5?$CFs?3?$CFi?6?$AA@
	call	DWORD PTR ?gRenderfuncs@@3Urender_api_s@@A+236
	add	esp, 12					; 0000000cH
$LN2@DisablePla:

; 43   : 	ClearBits( clipFlags, BIT( side ));

	mov	eax, 1
	mov	ecx, DWORD PTR _side$[ebp]
	shl	eax, cl
	not	eax
	mov	ecx, DWORD PTR _this$[ebp]
	and	eax, DWORD PTR [ecx+120]
	mov	edx, DWORD PTR _this$[ebp]
	mov	DWORD PTR [edx+120], eax

; 44   : }

	pop	edi
	pop	esi
	pop	ebx
	mov	esp, ebp
	pop	ebp
	ret	4
?DisablePlane@CFrustum@@QAEXH@Z ENDP			; CFrustum::DisablePlane
_TEXT	ENDS
; Function compile flags: /Odtp /ZI
; File d:\!diffusion 2020\source code 2022\client-server\client\render\r_frustum.cpp
;	COMDAT ?EnablePlane@CFrustum@@QAEXH@Z
_TEXT	SEGMENT
_this$ = -4						; size = 4
_side$ = 8						; size = 4
?EnablePlane@CFrustum@@QAEXH@Z PROC			; CFrustum::EnablePlane, COMDAT
; _this$ = ecx

; 32   : {

	push	ebp
	mov	ebp, esp
	sub	esp, 68					; 00000044H
	push	ebx
	push	esi
	push	edi
	mov	DWORD PTR _this$[ebp], ecx

; 33   : 	ASSERT( side >= 0 && side < FRUSTUM_PLANES );

	cmp	DWORD PTR _side$[ebp], 0
	jl	SHORT $LN3@EnablePlan
	cmp	DWORD PTR _side$[ebp], 6
	jl	SHORT $LN2@EnablePlan
$LN3@EnablePlan:
	mov	eax, DWORD PTR ?__LINE__Var@?0??EnablePlane@CFrustum@@QAEXH@Z@4JA
	add	eax, 1
	push	eax
	push	OFFSET ??_C@_0EO@IFNGPKKG@d?3?2?$CBdiffusion?52020?2source?5code?52@
	push	OFFSET ??_C@_0BI@FECCGOFJ@assert?5failed?5at?5?$CFs?3?$CFi?6?$AA@
	call	DWORD PTR ?gRenderfuncs@@3Urender_api_s@@A+236
	add	esp, 12					; 0000000cH
$LN2@EnablePlan:

; 34   : 
; 35   : 	// make sure that plane is ready
; 36   : 	if( planes[side].normal != g_vecZero )

	push	OFFSET ?g_vecZero@@3VVector@@B		; g_vecZero
	imul	ecx, DWORD PTR _side$[ebp], 20
	add	ecx, DWORD PTR _this$[ebp]
	call	??9Vector@@QBEHABV0@@Z			; Vector::operator!=
	test	eax, eax
	je	SHORT $LN1@EnablePlan

; 37   : 		SetBits( clipFlags, BIT( side ));

	mov	eax, 1
	mov	ecx, DWORD PTR _side$[ebp]
	shl	eax, cl
	mov	ecx, DWORD PTR _this$[ebp]
	or	eax, DWORD PTR [ecx+120]
	mov	edx, DWORD PTR _this$[ebp]
	mov	DWORD PTR [edx+120], eax
$LN1@EnablePlan:

; 38   : }

	pop	edi
	pop	esi
	pop	ebx
	mov	esp, ebp
	pop	ebp
	ret	4
?EnablePlane@CFrustum@@QAEXH@Z ENDP			; CFrustum::EnablePlane
_TEXT	ENDS
; Function compile flags: /Odtp /ZI
; File d:\!diffusion 2020\source code 2022\client-server\client\render\r_frustum.cpp
;	COMDAT ?CullSphere@CFrustum@@QAE_NABVVector@@MH@Z
_TEXT	SEGMENT
tv136 = -84						; size = 4
tv67 = -81						; size = 1
_p$1 = -16						; size = 4
_i$2 = -12						; size = 4
_iClipFlags$ = -8					; size = 4
_this$ = -4						; size = 4
_centre$ = 8						; size = 4
_radius$ = 12						; size = 4
_userClipFlags$ = 16					; size = 4
?CullSphere@CFrustum@@QAE_NABVVector@@MH@Z PROC		; CFrustum::CullSphere, COMDAT
; _this$ = ecx

; 323  : {

	push	ebp
	mov	ebp, esp
	sub	esp, 84					; 00000054H
	push	ebx
	push	esi
	push	edi
	mov	DWORD PTR _this$[ebp], ecx

; 324  : 	int iClipFlags;
; 325  : 	
; 326  : 	if( CVAR_TO_BOOL( r_nocull ) )

	cmp	DWORD PTR ?r_nocull@@3PAUcvar_s@@A, 0	; r_nocull
	je	SHORT $LN11@CullSphere
	mov	eax, DWORD PTR ?r_nocull@@3PAUcvar_s@@A	; r_nocull
	movss	xmm0, DWORD PTR [eax+12]
	ucomiss	xmm0, DWORD PTR __real@00000000
	lahf
	test	ah, 68					; 00000044H
	jnp	SHORT $LN11@CullSphere
	mov	BYTE PTR tv67[ebp], 1
	jmp	SHORT $LN12@CullSphere
$LN11@CullSphere:
	mov	BYTE PTR tv67[ebp], 0
$LN12@CullSphere:
	movzx	ecx, BYTE PTR tv67[ebp]
	test	ecx, ecx
	je	SHORT $LN5@CullSphere

; 327  : 		return false;

	xor	al, al
	jmp	$LN1@CullSphere
$LN5@CullSphere:

; 328  : 
; 329  : 	if( userClipFlags != 0 )

	cmp	DWORD PTR _userClipFlags$[ebp], 0
	je	SHORT $LN6@CullSphere

; 330  : 		iClipFlags = userClipFlags;

	mov	eax, DWORD PTR _userClipFlags$[ebp]
	mov	DWORD PTR _iClipFlags$[ebp], eax
	jmp	SHORT $LN7@CullSphere
$LN6@CullSphere:

; 331  : 	else iClipFlags = clipFlags;

	mov	eax, DWORD PTR _this$[ebp]
	mov	ecx, DWORD PTR [eax+120]
	mov	DWORD PTR _iClipFlags$[ebp], ecx
$LN7@CullSphere:

; 332  : 
; 333  : 	for( int i = 0; i < FRUSTUM_PLANES; i++ )

	mov	DWORD PTR _i$2[ebp], 0
	jmp	SHORT $LN4@CullSphere
$LN2@CullSphere:
	mov	eax, DWORD PTR _i$2[ebp]
	add	eax, 1
	mov	DWORD PTR _i$2[ebp], eax
$LN4@CullSphere:
	cmp	DWORD PTR _i$2[ebp], 6
	jge	SHORT $LN3@CullSphere

; 334  : 	{
; 335  : 		if( !FBitSet( iClipFlags, BIT( i )))

	mov	eax, 1
	mov	ecx, DWORD PTR _i$2[ebp]
	shl	eax, cl
	and	eax, DWORD PTR _iClipFlags$[ebp]
	jne	SHORT $LN8@CullSphere

; 336  : 			continue;

	jmp	SHORT $LN2@CullSphere
$LN8@CullSphere:

; 337  : 
; 338  : 		const mplane_t *p = &planes[i];

	imul	eax, DWORD PTR _i$2[ebp], 20
	add	eax, DWORD PTR _this$[ebp]
	mov	DWORD PTR _p$1[ebp], eax

; 339  : 
; 340  : 		if( DotProduct( centre, p->normal ) - p->dist <= -radius )

	mov	eax, DWORD PTR _p$1[ebp]
	push	eax
	mov	ecx, DWORD PTR _centre$[ebp]
	push	ecx
	call	?DotProduct@@YAMABVVector@@0@Z		; DotProduct
	add	esp, 8
	fstp	DWORD PTR tv136[ebp]
	movss	xmm0, DWORD PTR tv136[ebp]
	mov	edx, DWORD PTR _p$1[ebp]
	subss	xmm0, DWORD PTR [edx+12]
	movss	xmm1, DWORD PTR _radius$[ebp]
	xorps	xmm1, DWORD PTR __xmm@80000000800000008000000080000000
	comiss	xmm1, xmm0
	jb	SHORT $LN9@CullSphere

; 341  : 			return true;

	mov	al, 1
	jmp	SHORT $LN1@CullSphere
$LN9@CullSphere:

; 342  : 	}

	jmp	SHORT $LN2@CullSphere
$LN3@CullSphere:

; 343  : 
; 344  : 	return false;

	xor	al, al
$LN1@CullSphere:

; 345  : }

	pop	edi
	pop	esi
	pop	ebx
	mov	esp, ebp
	pop	ebp
	ret	12					; 0000000cH
?CullSphere@CFrustum@@QAE_NABVVector@@MH@Z ENDP		; CFrustum::CullSphere
_TEXT	ENDS
; Function compile flags: /Odtp /ZI
; File d:\!diffusion 2020\source code 2022\client-server\client\render\r_frustum.cpp
;	COMDAT ?CullBox@CFrustum@@QAE_NABVVector@@0H@Z
_TEXT	SEGMENT
tv82 = -84						; size = 4
tv67 = -81						; size = 1
_p$1 = -16						; size = 4
_i$2 = -12						; size = 4
_iClipFlags$ = -8					; size = 4
_this$ = -4						; size = 4
_mins$ = 8						; size = 4
_maxs$ = 12						; size = 4
_userClipFlags$ = 16					; size = 4
?CullBox@CFrustum@@QAE_NABVVector@@0H@Z PROC		; CFrustum::CullBox, COMDAT
; _this$ = ecx

; 260  : {

	push	ebp
	mov	ebp, esp
	sub	esp, 84					; 00000054H
	push	ebx
	push	esi
	push	edi
	mov	DWORD PTR _this$[ebp], ecx

; 261  : 	int iClipFlags;
; 262  : 
; 263  : //	if( world->rebuilding_cubemaps != CMREBUILD_INACTIVE ) // !!! diffusioncubemaps - TTTEST
; 264  : //		return false;
; 265  : 
; 266  : 	if( CVAR_TO_BOOL( r_nocull ) )

	cmp	DWORD PTR ?r_nocull@@3PAUcvar_s@@A, 0	; r_nocull
	je	SHORT $LN29@CullBox
	mov	eax, DWORD PTR ?r_nocull@@3PAUcvar_s@@A	; r_nocull
	movss	xmm0, DWORD PTR [eax+12]
	ucomiss	xmm0, DWORD PTR __real@00000000
	lahf
	test	ah, 68					; 00000044H
	jnp	SHORT $LN29@CullBox
	mov	BYTE PTR tv67[ebp], 1
	jmp	SHORT $LN30@CullBox
$LN29@CullBox:
	mov	BYTE PTR tv67[ebp], 0
$LN30@CullBox:
	movzx	ecx, BYTE PTR tv67[ebp]
	test	ecx, ecx
	je	SHORT $LN7@CullBox

; 267  : 		return false;

	xor	al, al
	jmp	$LN1@CullBox
$LN7@CullBox:

; 268  : 
; 269  : 	if( userClipFlags != 0 )

	cmp	DWORD PTR _userClipFlags$[ebp], 0
	je	SHORT $LN8@CullBox

; 270  : 		iClipFlags = userClipFlags;

	mov	eax, DWORD PTR _userClipFlags$[ebp]
	mov	DWORD PTR _iClipFlags$[ebp], eax
	jmp	SHORT $LN9@CullBox
$LN8@CullBox:

; 271  : 	else iClipFlags = clipFlags;

	mov	eax, DWORD PTR _this$[ebp]
	mov	ecx, DWORD PTR [eax+120]
	mov	DWORD PTR _iClipFlags$[ebp], ecx
$LN9@CullBox:

; 272  : 
; 273  : 	for( int i = 0; i < FRUSTUM_PLANES; i++ )

	mov	DWORD PTR _i$2[ebp], 0
	jmp	SHORT $LN4@CullBox
$LN2@CullBox:
	mov	eax, DWORD PTR _i$2[ebp]
	add	eax, 1
	mov	DWORD PTR _i$2[ebp], eax
$LN4@CullBox:
	cmp	DWORD PTR _i$2[ebp], 6
	jge	$LN3@CullBox

; 274  : 	{
; 275  : 		if( !FBitSet( iClipFlags, BIT( i )))

	mov	eax, 1
	mov	ecx, DWORD PTR _i$2[ebp]
	shl	eax, cl
	and	eax, DWORD PTR _iClipFlags$[ebp]
	jne	SHORT $LN10@CullBox

; 276  : 			continue;

	jmp	SHORT $LN2@CullBox
$LN10@CullBox:

; 277  : 
; 278  : 		const mplane_t *p = &planes[i];

	imul	eax, DWORD PTR _i$2[ebp], 20
	add	eax, DWORD PTR _this$[ebp]
	mov	DWORD PTR _p$1[ebp], eax

; 279  : 
; 280  : 		switch( p->signbits )

	mov	eax, DWORD PTR _p$1[ebp]
	movzx	ecx, BYTE PTR [eax+17]
	mov	DWORD PTR tv82[ebp], ecx
	cmp	DWORD PTR tv82[ebp], 7
	ja	$LN27@CullBox
	mov	edx, DWORD PTR tv82[ebp]
	jmp	DWORD PTR $LN31@CullBox[edx*4]
$LN11@CullBox:

; 281  : 		{
; 282  : 		case 0:
; 283  : 			if( p->normal.x * maxs.x + p->normal.y * maxs.y + p->normal.z * maxs.z < p->dist )

	mov	eax, DWORD PTR _p$1[ebp]
	mov	ecx, DWORD PTR _maxs$[ebp]
	movss	xmm0, DWORD PTR [eax]
	mulss	xmm0, DWORD PTR [ecx]
	mov	edx, DWORD PTR _p$1[ebp]
	mov	eax, DWORD PTR _maxs$[ebp]
	movss	xmm1, DWORD PTR [edx+4]
	mulss	xmm1, DWORD PTR [eax+4]
	addss	xmm0, xmm1
	mov	ecx, DWORD PTR _p$1[ebp]
	mov	edx, DWORD PTR _maxs$[ebp]
	movss	xmm1, DWORD PTR [ecx+8]
	mulss	xmm1, DWORD PTR [edx+8]
	addss	xmm0, xmm1
	mov	eax, DWORD PTR _p$1[ebp]
	movss	xmm1, DWORD PTR [eax+12]
	comiss	xmm1, xmm0
	jbe	SHORT $LN12@CullBox

; 284  : 				return true;

	mov	al, 1
	jmp	$LN1@CullBox
$LN12@CullBox:

; 285  : 			break;

	jmp	$LN5@CullBox
$LN13@CullBox:

; 286  : 		case 1:
; 287  : 			if( p->normal.x * mins.x + p->normal.y * maxs.y + p->normal.z * maxs.z < p->dist )

	mov	eax, DWORD PTR _p$1[ebp]
	mov	ecx, DWORD PTR _mins$[ebp]
	movss	xmm0, DWORD PTR [eax]
	mulss	xmm0, DWORD PTR [ecx]
	mov	edx, DWORD PTR _p$1[ebp]
	mov	eax, DWORD PTR _maxs$[ebp]
	movss	xmm1, DWORD PTR [edx+4]
	mulss	xmm1, DWORD PTR [eax+4]
	addss	xmm0, xmm1
	mov	ecx, DWORD PTR _p$1[ebp]
	mov	edx, DWORD PTR _maxs$[ebp]
	movss	xmm1, DWORD PTR [ecx+8]
	mulss	xmm1, DWORD PTR [edx+8]
	addss	xmm0, xmm1
	mov	eax, DWORD PTR _p$1[ebp]
	movss	xmm1, DWORD PTR [eax+12]
	comiss	xmm1, xmm0
	jbe	SHORT $LN14@CullBox

; 288  : 				return true;

	mov	al, 1
	jmp	$LN1@CullBox
$LN14@CullBox:

; 289  : 			break;

	jmp	$LN5@CullBox
$LN15@CullBox:

; 290  : 		case 2:
; 291  : 			if( p->normal.x * maxs.x + p->normal.y * mins.y + p->normal.z * maxs.z < p->dist )

	mov	eax, DWORD PTR _p$1[ebp]
	mov	ecx, DWORD PTR _maxs$[ebp]
	movss	xmm0, DWORD PTR [eax]
	mulss	xmm0, DWORD PTR [ecx]
	mov	edx, DWORD PTR _p$1[ebp]
	mov	eax, DWORD PTR _mins$[ebp]
	movss	xmm1, DWORD PTR [edx+4]
	mulss	xmm1, DWORD PTR [eax+4]
	addss	xmm0, xmm1
	mov	ecx, DWORD PTR _p$1[ebp]
	mov	edx, DWORD PTR _maxs$[ebp]
	movss	xmm1, DWORD PTR [ecx+8]
	mulss	xmm1, DWORD PTR [edx+8]
	addss	xmm0, xmm1
	mov	eax, DWORD PTR _p$1[ebp]
	movss	xmm1, DWORD PTR [eax+12]
	comiss	xmm1, xmm0
	jbe	SHORT $LN16@CullBox

; 292  : 				return true;

	mov	al, 1
	jmp	$LN1@CullBox
$LN16@CullBox:

; 293  : 			break;

	jmp	$LN5@CullBox
$LN17@CullBox:

; 294  : 		case 3:
; 295  : 			if( p->normal.x * mins.x + p->normal.y * mins.y + p->normal.z * maxs.z < p->dist )

	mov	eax, DWORD PTR _p$1[ebp]
	mov	ecx, DWORD PTR _mins$[ebp]
	movss	xmm0, DWORD PTR [eax]
	mulss	xmm0, DWORD PTR [ecx]
	mov	edx, DWORD PTR _p$1[ebp]
	mov	eax, DWORD PTR _mins$[ebp]
	movss	xmm1, DWORD PTR [edx+4]
	mulss	xmm1, DWORD PTR [eax+4]
	addss	xmm0, xmm1
	mov	ecx, DWORD PTR _p$1[ebp]
	mov	edx, DWORD PTR _maxs$[ebp]
	movss	xmm1, DWORD PTR [ecx+8]
	mulss	xmm1, DWORD PTR [edx+8]
	addss	xmm0, xmm1
	mov	eax, DWORD PTR _p$1[ebp]
	movss	xmm1, DWORD PTR [eax+12]
	comiss	xmm1, xmm0
	jbe	SHORT $LN18@CullBox

; 296  : 				return true;

	mov	al, 1
	jmp	$LN1@CullBox
$LN18@CullBox:

; 297  : 			break;

	jmp	$LN5@CullBox
$LN19@CullBox:

; 298  : 		case 4:
; 299  : 			if( p->normal.x * maxs.x + p->normal.y * maxs.y + p->normal.z * mins.z < p->dist )

	mov	eax, DWORD PTR _p$1[ebp]
	mov	ecx, DWORD PTR _maxs$[ebp]
	movss	xmm0, DWORD PTR [eax]
	mulss	xmm0, DWORD PTR [ecx]
	mov	edx, DWORD PTR _p$1[ebp]
	mov	eax, DWORD PTR _maxs$[ebp]
	movss	xmm1, DWORD PTR [edx+4]
	mulss	xmm1, DWORD PTR [eax+4]
	addss	xmm0, xmm1
	mov	ecx, DWORD PTR _p$1[ebp]
	mov	edx, DWORD PTR _mins$[ebp]
	movss	xmm1, DWORD PTR [ecx+8]
	mulss	xmm1, DWORD PTR [edx+8]
	addss	xmm0, xmm1
	mov	eax, DWORD PTR _p$1[ebp]
	movss	xmm1, DWORD PTR [eax+12]
	comiss	xmm1, xmm0
	jbe	SHORT $LN20@CullBox

; 300  : 				return true;

	mov	al, 1
	jmp	$LN1@CullBox
$LN20@CullBox:

; 301  : 			break;

	jmp	$LN5@CullBox
$LN21@CullBox:

; 302  : 		case 5:
; 303  : 			if( p->normal.x * mins.x + p->normal.y * maxs.y + p->normal.z * mins.z < p->dist )

	mov	eax, DWORD PTR _p$1[ebp]
	mov	ecx, DWORD PTR _mins$[ebp]
	movss	xmm0, DWORD PTR [eax]
	mulss	xmm0, DWORD PTR [ecx]
	mov	edx, DWORD PTR _p$1[ebp]
	mov	eax, DWORD PTR _maxs$[ebp]
	movss	xmm1, DWORD PTR [edx+4]
	mulss	xmm1, DWORD PTR [eax+4]
	addss	xmm0, xmm1
	mov	ecx, DWORD PTR _p$1[ebp]
	mov	edx, DWORD PTR _mins$[ebp]
	movss	xmm1, DWORD PTR [ecx+8]
	mulss	xmm1, DWORD PTR [edx+8]
	addss	xmm0, xmm1
	mov	eax, DWORD PTR _p$1[ebp]
	movss	xmm1, DWORD PTR [eax+12]
	comiss	xmm1, xmm0
	jbe	SHORT $LN22@CullBox

; 304  : 				return true;

	mov	al, 1
	jmp	$LN1@CullBox
$LN22@CullBox:

; 305  : 			break;

	jmp	$LN5@CullBox
$LN23@CullBox:

; 306  : 		case 6:
; 307  : 			if( p->normal.x * maxs.x + p->normal.y * mins.y + p->normal.z * mins.z < p->dist)

	mov	eax, DWORD PTR _p$1[ebp]
	mov	ecx, DWORD PTR _maxs$[ebp]
	movss	xmm0, DWORD PTR [eax]
	mulss	xmm0, DWORD PTR [ecx]
	mov	edx, DWORD PTR _p$1[ebp]
	mov	eax, DWORD PTR _mins$[ebp]
	movss	xmm1, DWORD PTR [edx+4]
	mulss	xmm1, DWORD PTR [eax+4]
	addss	xmm0, xmm1
	mov	ecx, DWORD PTR _p$1[ebp]
	mov	edx, DWORD PTR _mins$[ebp]
	movss	xmm1, DWORD PTR [ecx+8]
	mulss	xmm1, DWORD PTR [edx+8]
	addss	xmm0, xmm1
	mov	eax, DWORD PTR _p$1[ebp]
	movss	xmm1, DWORD PTR [eax+12]
	comiss	xmm1, xmm0
	jbe	SHORT $LN24@CullBox

; 308  : 				return true;

	mov	al, 1
	jmp	SHORT $LN1@CullBox
$LN24@CullBox:

; 309  : 			break;

	jmp	SHORT $LN5@CullBox
$LN25@CullBox:

; 310  : 		case 7:
; 311  : 			if( p->normal.x * mins.x + p->normal.y * mins.y + p->normal.z * mins.z < p->dist )

	mov	eax, DWORD PTR _p$1[ebp]
	mov	ecx, DWORD PTR _mins$[ebp]
	movss	xmm0, DWORD PTR [eax]
	mulss	xmm0, DWORD PTR [ecx]
	mov	edx, DWORD PTR _p$1[ebp]
	mov	eax, DWORD PTR _mins$[ebp]
	movss	xmm1, DWORD PTR [edx+4]
	mulss	xmm1, DWORD PTR [eax+4]
	addss	xmm0, xmm1
	mov	ecx, DWORD PTR _p$1[ebp]
	mov	edx, DWORD PTR _mins$[ebp]
	movss	xmm1, DWORD PTR [ecx+8]
	mulss	xmm1, DWORD PTR [edx+8]
	addss	xmm0, xmm1
	mov	eax, DWORD PTR _p$1[ebp]
	movss	xmm1, DWORD PTR [eax+12]
	comiss	xmm1, xmm0
	jbe	SHORT $LN26@CullBox

; 312  : 				return true;

	mov	al, 1
	jmp	SHORT $LN1@CullBox
$LN26@CullBox:

; 313  : 			break;

	jmp	SHORT $LN5@CullBox
$LN27@CullBox:

; 314  : 		default:
; 315  : 			return false;

	xor	al, al
	jmp	SHORT $LN1@CullBox
$LN5@CullBox:

; 316  : 		}
; 317  : 	}

	jmp	$LN2@CullBox
$LN3@CullBox:

; 318  : 
; 319  : 	return false;

	xor	al, al
$LN1@CullBox:

; 320  : }

	pop	edi
	pop	esi
	pop	ebx
	mov	esp, ebp
	pop	ebp
	ret	12					; 0000000cH
	npad	3
$LN31@CullBox:
	DD	$LN11@CullBox
	DD	$LN13@CullBox
	DD	$LN15@CullBox
	DD	$LN17@CullBox
	DD	$LN19@CullBox
	DD	$LN21@CullBox
	DD	$LN23@CullBox
	DD	$LN25@CullBox
?CullBox@CFrustum@@QAE_NABVVector@@0H@Z ENDP		; CFrustum::CullBox
_TEXT	ENDS
; Function compile flags: /Odtp /ZI
; File d:\!diffusion 2020\source code 2022\client-server\client\render\r_frustum.cpp
;	COMDAT ?ClearFrustum@CFrustum@@QAEXXZ
_TEXT	SEGMENT
_this$ = -4						; size = 4
?ClearFrustum@CFrustum@@QAEXXZ PROC			; CFrustum::ClearFrustum, COMDAT
; _this$ = ecx

; 26   : {

	push	ebp
	mov	ebp, esp
	sub	esp, 68					; 00000044H
	push	ebx
	push	esi
	push	edi
	mov	DWORD PTR _this$[ebp], ecx

; 27   : 	memset( planes, 0, sizeof( planes ));

	push	120					; 00000078H
	push	0
	mov	eax, DWORD PTR _this$[ebp]
	push	eax
	call	_memset
	add	esp, 12					; 0000000cH

; 28   : 	clipFlags = 0;

	mov	eax, DWORD PTR _this$[ebp]
	mov	DWORD PTR [eax+120], 0

; 29   : }

	pop	edi
	pop	esi
	pop	ebx
	mov	esp, ebp
	pop	ebp
	ret	0
?ClearFrustum@CFrustum@@QAEXXZ ENDP			; CFrustum::ClearFrustum
_TEXT	ENDS
; Function compile flags: /Odtp /ZI
; File d:\!diffusion 2020\source code 2022\client-server\client\render\r_frustum.cpp
;	COMDAT ?DrawFrustumDebug@CFrustum@@QAEXXZ
_TEXT	SEGMENT
_i$1 = -108						; size = 4
_bbox$ = -104						; size = 96
_this$ = -8						; size = 4
__$ArrayPad$ = -4					; size = 4
?DrawFrustumDebug@CFrustum@@QAEXXZ PROC			; CFrustum::DrawFrustumDebug, COMDAT
; _this$ = ecx

; 229  : {

	push	ebp
	mov	ebp, esp
	sub	esp, 172				; 000000acH
	mov	eax, DWORD PTR ___security_cookie
	xor	eax, ebp
	mov	DWORD PTR __$ArrayPad$[ebp], eax
	push	ebx
	push	esi
	push	edi
	mov	DWORD PTR _this$[ebp], ecx

; 230  : 	Vector	bbox[8];

	push	OFFSET ??0Vector@@QAE@XZ		; Vector::Vector
	push	8
	push	12					; 0000000cH
	lea	eax, DWORD PTR _bbox$[ebp]
	push	eax
	call	??_H@YGXPAXIIP6EPAX0@Z@Z

; 231  : 
; 232  : 	ComputeFrustumCorners( bbox );

	lea	eax, DWORD PTR _bbox$[ebp]
	push	eax
	mov	ecx, DWORD PTR _this$[ebp]
	call	?ComputeFrustumCorners@CFrustum@@QAEXQAVVector@@@Z ; CFrustum::ComputeFrustumCorners

; 233  : 
; 234  : 	// g-cont. frustum must be yellow :-)
; 235  : 	pglColor4f( 1.0f, 1.0f, 0.0f, 1.0f );

	push	ecx
	movss	xmm0, DWORD PTR __real@3f800000
	movss	DWORD PTR [esp], xmm0
	push	ecx
	xorps	xmm0, xmm0
	movss	DWORD PTR [esp], xmm0
	push	ecx
	movss	xmm0, DWORD PTR __real@3f800000
	movss	DWORD PTR [esp], xmm0
	push	ecx
	movss	xmm0, DWORD PTR __real@3f800000
	movss	DWORD PTR [esp], xmm0
	call	DWORD PTR ?pglColor4f@@3P6GXMMMM@ZA	; pglColor4f

; 236  : 	pglDisable( GL_TEXTURE_2D );

	push	3553					; 00000de1H
	call	DWORD PTR ?pglDisable@@3P6GXI@ZA	; pglDisable

; 237  : 	pglBegin( GL_LINES );

	push	1
	call	DWORD PTR ?pglBegin@@3P6GXI@ZA		; pglBegin

; 238  : 
; 239  : 	for( int i = 0; i < 2; i += 1 )

	mov	DWORD PTR _i$1[ebp], 0
	jmp	SHORT $LN4@DrawFrustu
$LN2@DrawFrustu:
	mov	eax, DWORD PTR _i$1[ebp]
	add	eax, 1
	mov	DWORD PTR _i$1[ebp], eax
$LN4@DrawFrustu:
	cmp	DWORD PTR _i$1[ebp], 2
	jge	$LN3@DrawFrustu

; 240  : 	{
; 241  : 		pglVertex3fv( bbox[i+0] );

	imul	eax, DWORD PTR _i$1[ebp], 12
	lea	ecx, DWORD PTR _bbox$[ebp+eax]
	call	??BVector@@QAEPAMXZ			; Vector::operator float *
	push	eax
	call	DWORD PTR ?pglVertex3fv@@3P6GXPBM@ZA	; pglVertex3fv

; 242  : 		pglVertex3fv( bbox[i+2] );

	mov	eax, DWORD PTR _i$1[ebp]
	add	eax, 2
	imul	ecx, eax, 12
	lea	ecx, DWORD PTR _bbox$[ebp+ecx]
	call	??BVector@@QAEPAMXZ			; Vector::operator float *
	push	eax
	call	DWORD PTR ?pglVertex3fv@@3P6GXPBM@ZA	; pglVertex3fv

; 243  : 		pglVertex3fv( bbox[i+4] );

	mov	eax, DWORD PTR _i$1[ebp]
	add	eax, 4
	imul	ecx, eax, 12
	lea	ecx, DWORD PTR _bbox$[ebp+ecx]
	call	??BVector@@QAEPAMXZ			; Vector::operator float *
	push	eax
	call	DWORD PTR ?pglVertex3fv@@3P6GXPBM@ZA	; pglVertex3fv

; 244  : 		pglVertex3fv( bbox[i+6] );

	mov	eax, DWORD PTR _i$1[ebp]
	add	eax, 6
	imul	ecx, eax, 12
	lea	ecx, DWORD PTR _bbox$[ebp+ecx]
	call	??BVector@@QAEPAMXZ			; Vector::operator float *
	push	eax
	call	DWORD PTR ?pglVertex3fv@@3P6GXPBM@ZA	; pglVertex3fv

; 245  : 		pglVertex3fv( bbox[i+0] );

	imul	eax, DWORD PTR _i$1[ebp], 12
	lea	ecx, DWORD PTR _bbox$[ebp+eax]
	call	??BVector@@QAEPAMXZ			; Vector::operator float *
	push	eax
	call	DWORD PTR ?pglVertex3fv@@3P6GXPBM@ZA	; pglVertex3fv

; 246  : 		pglVertex3fv( bbox[i+4] );

	mov	eax, DWORD PTR _i$1[ebp]
	add	eax, 4
	imul	ecx, eax, 12
	lea	ecx, DWORD PTR _bbox$[ebp+ecx]
	call	??BVector@@QAEPAMXZ			; Vector::operator float *
	push	eax
	call	DWORD PTR ?pglVertex3fv@@3P6GXPBM@ZA	; pglVertex3fv

; 247  : 		pglVertex3fv( bbox[i+2] );

	mov	eax, DWORD PTR _i$1[ebp]
	add	eax, 2
	imul	ecx, eax, 12
	lea	ecx, DWORD PTR _bbox$[ebp+ecx]
	call	??BVector@@QAEPAMXZ			; Vector::operator float *
	push	eax
	call	DWORD PTR ?pglVertex3fv@@3P6GXPBM@ZA	; pglVertex3fv

; 248  : 		pglVertex3fv( bbox[i+6] );

	mov	eax, DWORD PTR _i$1[ebp]
	add	eax, 6
	imul	ecx, eax, 12
	lea	ecx, DWORD PTR _bbox$[ebp+ecx]
	call	??BVector@@QAEPAMXZ			; Vector::operator float *
	push	eax
	call	DWORD PTR ?pglVertex3fv@@3P6GXPBM@ZA	; pglVertex3fv

; 249  : 		pglVertex3fv( bbox[i*2+0] );

	mov	eax, DWORD PTR _i$1[ebp]
	shl	eax, 1
	imul	ecx, eax, 12
	lea	ecx, DWORD PTR _bbox$[ebp+ecx]
	call	??BVector@@QAEPAMXZ			; Vector::operator float *
	push	eax
	call	DWORD PTR ?pglVertex3fv@@3P6GXPBM@ZA	; pglVertex3fv

; 250  : 		pglVertex3fv( bbox[i*2+1] );

	mov	eax, DWORD PTR _i$1[ebp]
	lea	ecx, DWORD PTR [eax+eax+1]
	imul	edx, ecx, 12
	lea	ecx, DWORD PTR _bbox$[ebp+edx]
	call	??BVector@@QAEPAMXZ			; Vector::operator float *
	push	eax
	call	DWORD PTR ?pglVertex3fv@@3P6GXPBM@ZA	; pglVertex3fv

; 251  : 		pglVertex3fv( bbox[i*2+4] );

	mov	eax, DWORD PTR _i$1[ebp]
	lea	ecx, DWORD PTR [eax+eax+4]
	imul	edx, ecx, 12
	lea	ecx, DWORD PTR _bbox$[ebp+edx]
	call	??BVector@@QAEPAMXZ			; Vector::operator float *
	push	eax
	call	DWORD PTR ?pglVertex3fv@@3P6GXPBM@ZA	; pglVertex3fv

; 252  : 		pglVertex3fv( bbox[i*2+5] );

	mov	eax, DWORD PTR _i$1[ebp]
	lea	ecx, DWORD PTR [eax+eax+5]
	imul	edx, ecx, 12
	lea	ecx, DWORD PTR _bbox$[ebp+edx]
	call	??BVector@@QAEPAMXZ			; Vector::operator float *
	push	eax
	call	DWORD PTR ?pglVertex3fv@@3P6GXPBM@ZA	; pglVertex3fv

; 253  : 	}

	jmp	$LN2@DrawFrustu
$LN3@DrawFrustu:

; 254  : 
; 255  : 	pglEnd();

	call	DWORD PTR ?pglEnd@@3P6GXXZA		; pglEnd

; 256  : 	pglEnable( GL_TEXTURE_2D );

	push	3553					; 00000de1H
	call	DWORD PTR ?pglEnable@@3P6GXI@ZA		; pglEnable

; 257  : }

	pop	edi
	pop	esi
	pop	ebx
	mov	ecx, DWORD PTR __$ArrayPad$[ebp]
	xor	ecx, ebp
	call	@__security_check_cookie@4
	mov	esp, ebp
	pop	ebp
	ret	0
?DrawFrustumDebug@CFrustum@@QAEXXZ ENDP			; CFrustum::DrawFrustumDebug
_TEXT	ENDS
; Function compile flags: /Odtp /ZI
; File d:\!diffusion 2020\source code 2022\client-server\client\render\r_frustum.cpp
;	COMDAT ?ComputeFrustumCorners@CFrustum@@QAEXQAVVector@@@Z
_TEXT	SEGMENT
_this$ = -4						; size = 4
_corners$ = 8						; size = 4
?ComputeFrustumCorners@CFrustum@@QAEXQAVVector@@@Z PROC	; CFrustum::ComputeFrustumCorners, COMDAT
; _this$ = ecx

; 194  : {

	push	ebp
	mov	ebp, esp
	sub	esp, 68					; 00000044H
	push	ebx
	push	esi
	push	edi
	mov	DWORD PTR _this$[ebp], ecx

; 195  : 	memset( corners, 0, sizeof( Vector ) * 8 );

	push	96					; 00000060H
	push	0
	mov	eax, DWORD PTR _corners$[ebp]
	push	eax
	call	_memset
	add	esp, 12					; 0000000cH

; 196  : 
; 197  : 	PlanesGetIntersectionPoint( &planes[FRUSTUM_LEFT], &planes[FRUSTUM_TOP], &planes[FRUSTUM_FAR], corners[0] );

	mov	eax, 12					; 0000000cH
	imul	ecx, eax, 0
	add	ecx, DWORD PTR _corners$[ebp]
	push	ecx
	mov	edx, 20					; 00000014H
	shl	edx, 2
	add	edx, DWORD PTR _this$[ebp]
	push	edx
	mov	eax, 20					; 00000014H
	imul	ecx, eax, 3
	add	ecx, DWORD PTR _this$[ebp]
	push	ecx
	mov	edx, 20					; 00000014H
	imul	eax, edx, 0
	add	eax, DWORD PTR _this$[ebp]
	push	eax
	call	?PlanesGetIntersectionPoint@@YA_NPBUmplane_s@@00AAVVector@@@Z ; PlanesGetIntersectionPoint
	add	esp, 16					; 00000010H

; 198  : 	PlanesGetIntersectionPoint( &planes[FRUSTUM_RIGHT], &planes[FRUSTUM_TOP], &planes[FRUSTUM_FAR], corners[1] );

	mov	eax, 12					; 0000000cH
	shl	eax, 0
	add	eax, DWORD PTR _corners$[ebp]
	push	eax
	mov	ecx, 20					; 00000014H
	shl	ecx, 2
	add	ecx, DWORD PTR _this$[ebp]
	push	ecx
	mov	edx, 20					; 00000014H
	imul	eax, edx, 3
	add	eax, DWORD PTR _this$[ebp]
	push	eax
	mov	ecx, 20					; 00000014H
	shl	ecx, 0
	add	ecx, DWORD PTR _this$[ebp]
	push	ecx
	call	?PlanesGetIntersectionPoint@@YA_NPBUmplane_s@@00AAVVector@@@Z ; PlanesGetIntersectionPoint
	add	esp, 16					; 00000010H

; 199  : 	PlanesGetIntersectionPoint( &planes[FRUSTUM_LEFT], &planes[FRUSTUM_BOTTOM], &planes[FRUSTUM_FAR], corners[2] );

	mov	eax, 12					; 0000000cH
	shl	eax, 1
	add	eax, DWORD PTR _corners$[ebp]
	push	eax
	mov	ecx, 20					; 00000014H
	shl	ecx, 2
	add	ecx, DWORD PTR _this$[ebp]
	push	ecx
	mov	edx, 20					; 00000014H
	shl	edx, 1
	add	edx, DWORD PTR _this$[ebp]
	push	edx
	mov	eax, 20					; 00000014H
	imul	ecx, eax, 0
	add	ecx, DWORD PTR _this$[ebp]
	push	ecx
	call	?PlanesGetIntersectionPoint@@YA_NPBUmplane_s@@00AAVVector@@@Z ; PlanesGetIntersectionPoint
	add	esp, 16					; 00000010H

; 200  : 	PlanesGetIntersectionPoint( &planes[FRUSTUM_RIGHT], &planes[FRUSTUM_BOTTOM], &planes[FRUSTUM_FAR], corners[3] );

	mov	eax, 12					; 0000000cH
	imul	ecx, eax, 3
	add	ecx, DWORD PTR _corners$[ebp]
	push	ecx
	mov	edx, 20					; 00000014H
	shl	edx, 2
	add	edx, DWORD PTR _this$[ebp]
	push	edx
	mov	eax, 20					; 00000014H
	shl	eax, 1
	add	eax, DWORD PTR _this$[ebp]
	push	eax
	mov	ecx, 20					; 00000014H
	shl	ecx, 0
	add	ecx, DWORD PTR _this$[ebp]
	push	ecx
	call	?PlanesGetIntersectionPoint@@YA_NPBUmplane_s@@00AAVVector@@@Z ; PlanesGetIntersectionPoint
	add	esp, 16					; 00000010H

; 201  : 
; 202  : 	if( FBitSet( clipFlags, BIT( FRUSTUM_NEAR )))

	mov	eax, DWORD PTR _this$[ebp]
	mov	ecx, DWORD PTR [eax+120]
	and	ecx, 32					; 00000020H
	je	$LN2@ComputeFru

; 203  : 	{
; 204  : 		PlanesGetIntersectionPoint( &planes[FRUSTUM_LEFT], &planes[FRUSTUM_TOP], &planes[FRUSTUM_NEAR], corners[4] );

	mov	eax, 12					; 0000000cH
	shl	eax, 2
	add	eax, DWORD PTR _corners$[ebp]
	push	eax
	mov	ecx, 20					; 00000014H
	imul	edx, ecx, 5
	add	edx, DWORD PTR _this$[ebp]
	push	edx
	mov	eax, 20					; 00000014H
	imul	ecx, eax, 3
	add	ecx, DWORD PTR _this$[ebp]
	push	ecx
	mov	edx, 20					; 00000014H
	imul	eax, edx, 0
	add	eax, DWORD PTR _this$[ebp]
	push	eax
	call	?PlanesGetIntersectionPoint@@YA_NPBUmplane_s@@00AAVVector@@@Z ; PlanesGetIntersectionPoint
	add	esp, 16					; 00000010H

; 205  : 		PlanesGetIntersectionPoint( &planes[FRUSTUM_RIGHT], &planes[FRUSTUM_TOP], &planes[FRUSTUM_NEAR], corners[5] );

	mov	eax, 12					; 0000000cH
	imul	ecx, eax, 5
	add	ecx, DWORD PTR _corners$[ebp]
	push	ecx
	mov	edx, 20					; 00000014H
	imul	eax, edx, 5
	add	eax, DWORD PTR _this$[ebp]
	push	eax
	mov	ecx, 20					; 00000014H
	imul	edx, ecx, 3
	add	edx, DWORD PTR _this$[ebp]
	push	edx
	mov	eax, 20					; 00000014H
	shl	eax, 0
	add	eax, DWORD PTR _this$[ebp]
	push	eax
	call	?PlanesGetIntersectionPoint@@YA_NPBUmplane_s@@00AAVVector@@@Z ; PlanesGetIntersectionPoint
	add	esp, 16					; 00000010H

; 206  : 		PlanesGetIntersectionPoint( &planes[FRUSTUM_LEFT], &planes[FRUSTUM_BOTTOM], &planes[FRUSTUM_NEAR], corners[6] );

	mov	eax, 12					; 0000000cH
	imul	ecx, eax, 6
	add	ecx, DWORD PTR _corners$[ebp]
	push	ecx
	mov	edx, 20					; 00000014H
	imul	eax, edx, 5
	add	eax, DWORD PTR _this$[ebp]
	push	eax
	mov	ecx, 20					; 00000014H
	shl	ecx, 1
	add	ecx, DWORD PTR _this$[ebp]
	push	ecx
	mov	edx, 20					; 00000014H
	imul	eax, edx, 0
	add	eax, DWORD PTR _this$[ebp]
	push	eax
	call	?PlanesGetIntersectionPoint@@YA_NPBUmplane_s@@00AAVVector@@@Z ; PlanesGetIntersectionPoint
	add	esp, 16					; 00000010H

; 207  : 		PlanesGetIntersectionPoint( &planes[FRUSTUM_RIGHT], &planes[FRUSTUM_BOTTOM], &planes[FRUSTUM_NEAR], corners[7] );

	mov	eax, 12					; 0000000cH
	imul	ecx, eax, 7
	add	ecx, DWORD PTR _corners$[ebp]
	push	ecx
	mov	edx, 20					; 00000014H
	imul	eax, edx, 5
	add	eax, DWORD PTR _this$[ebp]
	push	eax
	mov	ecx, 20					; 00000014H
	shl	ecx, 1
	add	ecx, DWORD PTR _this$[ebp]
	push	ecx
	mov	edx, 20					; 00000014H
	shl	edx, 0
	add	edx, DWORD PTR _this$[ebp]
	push	edx
	call	?PlanesGetIntersectionPoint@@YA_NPBUmplane_s@@00AAVVector@@@Z ; PlanesGetIntersectionPoint
	add	esp, 16					; 00000010H

; 208  : 	}
; 209  : 	else

	jmp	$LN1@ComputeFru
$LN2@ComputeFru:

; 210  : 	{
; 211  : 		PlanesGetIntersectionPoint( &planes[FRUSTUM_LEFT], &planes[FRUSTUM_RIGHT], &planes[FRUSTUM_TOP], corners[4] );

	mov	eax, 12					; 0000000cH
	shl	eax, 2
	add	eax, DWORD PTR _corners$[ebp]
	push	eax
	mov	ecx, 20					; 00000014H
	imul	edx, ecx, 3
	add	edx, DWORD PTR _this$[ebp]
	push	edx
	mov	eax, 20					; 00000014H
	shl	eax, 0
	add	eax, DWORD PTR _this$[ebp]
	push	eax
	mov	ecx, 20					; 00000014H
	imul	edx, ecx, 0
	add	edx, DWORD PTR _this$[ebp]
	push	edx
	call	?PlanesGetIntersectionPoint@@YA_NPBUmplane_s@@00AAVVector@@@Z ; PlanesGetIntersectionPoint
	add	esp, 16					; 00000010H

; 212  : 		corners[7] = corners[6] = corners[5] = corners[4];

	mov	eax, 12					; 0000000cH
	shl	eax, 2
	add	eax, DWORD PTR _corners$[ebp]
	mov	ecx, 12					; 0000000cH
	imul	edx, ecx, 5
	add	edx, DWORD PTR _corners$[ebp]
	mov	ecx, DWORD PTR [eax]
	mov	DWORD PTR [edx], ecx
	mov	ecx, DWORD PTR [eax+4]
	mov	DWORD PTR [edx+4], ecx
	mov	eax, DWORD PTR [eax+8]
	mov	DWORD PTR [edx+8], eax
	mov	ecx, 12					; 0000000cH
	imul	edx, ecx, 5
	add	edx, DWORD PTR _corners$[ebp]
	mov	eax, 12					; 0000000cH
	imul	ecx, eax, 6
	add	ecx, DWORD PTR _corners$[ebp]
	mov	eax, DWORD PTR [edx]
	mov	DWORD PTR [ecx], eax
	mov	eax, DWORD PTR [edx+4]
	mov	DWORD PTR [ecx+4], eax
	mov	edx, DWORD PTR [edx+8]
	mov	DWORD PTR [ecx+8], edx
	mov	eax, 12					; 0000000cH
	imul	ecx, eax, 6
	add	ecx, DWORD PTR _corners$[ebp]
	mov	edx, 12					; 0000000cH
	imul	eax, edx, 7
	add	eax, DWORD PTR _corners$[ebp]
	mov	edx, DWORD PTR [ecx]
	mov	DWORD PTR [eax], edx
	mov	edx, DWORD PTR [ecx+4]
	mov	DWORD PTR [eax+4], edx
	mov	ecx, DWORD PTR [ecx+8]
	mov	DWORD PTR [eax+8], ecx
$LN1@ComputeFru:

; 213  : 	}
; 214  : }

	pop	edi
	pop	esi
	pop	ebx
	mov	esp, ebp
	pop	ebp
	ret	4
?ComputeFrustumCorners@CFrustum@@QAEXQAVVector@@@Z ENDP	; CFrustum::ComputeFrustumCorners
_TEXT	ENDS
; Function compile flags: /Odtp /ZI
; File d:\!diffusion 2020\source code 2022\client-server\client\render\r_frustum.cpp
;	COMDAT ?ComputeFrustumBounds@CFrustum@@QAEXAAVVector@@0@Z
_TEXT	SEGMENT
_i$1 = -108						; size = 4
_corners$ = -104					; size = 96
_this$ = -8						; size = 4
__$ArrayPad$ = -4					; size = 4
_mins$ = 8						; size = 4
_maxs$ = 12						; size = 4
?ComputeFrustumBounds@CFrustum@@QAEXAAVVector@@0@Z PROC	; CFrustum::ComputeFrustumBounds, COMDAT
; _this$ = ecx

; 217  : {

	push	ebp
	mov	ebp, esp
	sub	esp, 172				; 000000acH
	mov	eax, DWORD PTR ___security_cookie
	xor	eax, ebp
	mov	DWORD PTR __$ArrayPad$[ebp], eax
	push	ebx
	push	esi
	push	edi
	mov	DWORD PTR _this$[ebp], ecx

; 218  : 	Vector	corners[8];

	push	OFFSET ??0Vector@@QAE@XZ		; Vector::Vector
	push	8
	push	12					; 0000000cH
	lea	eax, DWORD PTR _corners$[ebp]
	push	eax
	call	??_H@YGXPAXIIP6EPAX0@Z@Z

; 219  : 
; 220  : 	ComputeFrustumCorners( corners );

	lea	eax, DWORD PTR _corners$[ebp]
	push	eax
	mov	ecx, DWORD PTR _this$[ebp]
	call	?ComputeFrustumCorners@CFrustum@@QAEXQAVVector@@@Z ; CFrustum::ComputeFrustumCorners

; 221  : 
; 222  : 	ClearBounds( mins, maxs );

	mov	eax, DWORD PTR _maxs$[ebp]
	push	eax
	mov	ecx, DWORD PTR _mins$[ebp]
	push	ecx
	call	?ClearBounds@@YAXAAVVector@@0@Z		; ClearBounds
	add	esp, 8

; 223  : 
; 224  : 	for( int i = 0; i < 8; i++ )

	mov	DWORD PTR _i$1[ebp], 0
	jmp	SHORT $LN4@ComputeFru
$LN2@ComputeFru:
	mov	eax, DWORD PTR _i$1[ebp]
	add	eax, 1
	mov	DWORD PTR _i$1[ebp], eax
$LN4@ComputeFru:
	cmp	DWORD PTR _i$1[ebp], 8
	jge	SHORT $LN3@ComputeFru

; 225  : 		AddPointToBounds( corners[i], mins, maxs );

	push	ecx
	xorps	xmm0, xmm0
	movss	DWORD PTR [esp], xmm0
	mov	eax, DWORD PTR _maxs$[ebp]
	push	eax
	mov	ecx, DWORD PTR _mins$[ebp]
	push	ecx
	imul	edx, DWORD PTR _i$1[ebp], 12
	lea	eax, DWORD PTR _corners$[ebp+edx]
	push	eax
	call	?AddPointToBounds@@YAXABVVector@@AAV1@1M@Z ; AddPointToBounds
	add	esp, 16					; 00000010H
	jmp	SHORT $LN2@ComputeFru
$LN3@ComputeFru:

; 226  : }

	pop	edi
	pop	esi
	pop	ebx
	mov	ecx, DWORD PTR __$ArrayPad$[ebp]
	xor	ecx, ebp
	call	@__security_check_cookie@4
	mov	esp, ebp
	pop	ebp
	ret	8
?ComputeFrustumBounds@CFrustum@@QAEXAAVVector@@0@Z ENDP	; CFrustum::ComputeFrustumBounds
_TEXT	ENDS
; Function compile flags: /Odtp /ZI
; File d:\!diffusion 2020\source code 2022\client-server\client\render\r_frustum.cpp
;	COMDAT ?NormalizePlane@CFrustum@@QAEXH@Z
_TEXT	SEGMENT
_ilength$1 = -12					; size = 4
_length$ = -8						; size = 4
_this$ = -4						; size = 4
_side$ = 8						; size = 4
?NormalizePlane@CFrustum@@QAEXH@Z PROC			; CFrustum::NormalizePlane, COMDAT
; _this$ = ecx

; 172  : {

	push	ebp
	mov	ebp, esp
	sub	esp, 76					; 0000004cH
	push	ebx
	push	esi
	push	edi
	mov	DWORD PTR _this$[ebp], ecx

; 173  : 	ASSERT( side >= 0 && side < FRUSTUM_PLANES );

	cmp	DWORD PTR _side$[ebp], 0
	jl	SHORT $LN3@NormalizeP
	cmp	DWORD PTR _side$[ebp], 6
	jl	SHORT $LN2@NormalizeP
$LN3@NormalizeP:
	mov	eax, DWORD PTR ?__LINE__Var@?0??NormalizePlane@CFrustum@@QAEXH@Z@4JA
	add	eax, 1
	push	eax
	push	OFFSET ??_C@_0EO@IFNGPKKG@d?3?2?$CBdiffusion?52020?2source?5code?52@
	push	OFFSET ??_C@_0BI@FECCGOFJ@assert?5failed?5at?5?$CFs?3?$CFi?6?$AA@
	call	DWORD PTR ?gRenderfuncs@@3Urender_api_s@@A+236
	add	esp, 12					; 0000000cH
$LN2@NormalizeP:

; 174  : 
; 175  : 	// normalize
; 176  : 	float length = planes[side].normal.Length();

	imul	ecx, DWORD PTR _side$[ebp], 20
	add	ecx, DWORD PTR _this$[ebp]
	call	?Length@Vector@@QBEMXZ			; Vector::Length
	fstp	DWORD PTR _length$[ebp]

; 177  : 
; 178  : 	if( length )

	movss	xmm0, DWORD PTR _length$[ebp]
	ucomiss	xmm0, DWORD PTR __real@00000000
	lahf
	test	ah, 68					; 00000044H
	jnp	$LN4@NormalizeP

; 179  : 	{
; 180  : 		float ilength = (1.0f / length);

	movss	xmm0, DWORD PTR __real@3f800000
	divss	xmm0, DWORD PTR _length$[ebp]
	movss	DWORD PTR _ilength$1[ebp], xmm0

; 181  : 		planes[side].normal.x *= ilength;

	imul	eax, DWORD PTR _side$[ebp], 20
	mov	ecx, DWORD PTR _this$[ebp]
	movss	xmm0, DWORD PTR [ecx+eax]
	mulss	xmm0, DWORD PTR _ilength$1[ebp]
	imul	edx, DWORD PTR _side$[ebp], 20
	mov	eax, DWORD PTR _this$[ebp]
	movss	DWORD PTR [eax+edx], xmm0

; 182  : 		planes[side].normal.y *= ilength;

	imul	eax, DWORD PTR _side$[ebp], 20
	mov	ecx, DWORD PTR _this$[ebp]
	movss	xmm0, DWORD PTR [ecx+eax+4]
	mulss	xmm0, DWORD PTR _ilength$1[ebp]
	imul	edx, DWORD PTR _side$[ebp], 20
	mov	eax, DWORD PTR _this$[ebp]
	movss	DWORD PTR [eax+edx+4], xmm0

; 183  : 		planes[side].normal.z *= ilength;

	imul	eax, DWORD PTR _side$[ebp], 20
	mov	ecx, DWORD PTR _this$[ebp]
	movss	xmm0, DWORD PTR [ecx+eax+8]
	mulss	xmm0, DWORD PTR _ilength$1[ebp]
	imul	edx, DWORD PTR _side$[ebp], 20
	mov	eax, DWORD PTR _this$[ebp]
	movss	DWORD PTR [eax+edx+8], xmm0

; 184  : 		planes[side].dist *= ilength;

	imul	eax, DWORD PTR _side$[ebp], 20
	mov	ecx, DWORD PTR _this$[ebp]
	movss	xmm0, DWORD PTR [ecx+eax+12]
	mulss	xmm0, DWORD PTR _ilength$1[ebp]
	imul	edx, DWORD PTR _side$[ebp], 20
	mov	eax, DWORD PTR _this$[ebp]
	movss	DWORD PTR [eax+edx+12], xmm0
$LN4@NormalizeP:

; 185  : 	}
; 186  : 
; 187  : 	planes[side].type = PlaneTypeForNormal( planes[side].normal );

	imul	eax, DWORD PTR _side$[ebp], 20
	add	eax, DWORD PTR _this$[ebp]
	push	eax
	call	?PlaneTypeForNormal@@YAHABVVector@@@Z	; PlaneTypeForNormal
	add	esp, 4
	imul	ecx, DWORD PTR _side$[ebp], 20
	mov	edx, DWORD PTR _this$[ebp]
	mov	BYTE PTR [edx+ecx+16], al

; 188  : 	planes[side].signbits = SignbitsForPlane( planes[side].normal );

	imul	eax, DWORD PTR _side$[ebp], 20
	add	eax, DWORD PTR _this$[ebp]
	push	eax
	call	?SignbitsForPlane@@YAHABVVector@@@Z	; SignbitsForPlane
	add	esp, 4
	imul	ecx, DWORD PTR _side$[ebp], 20
	mov	edx, DWORD PTR _this$[ebp]
	mov	BYTE PTR [edx+ecx+17], al

; 189  : 
; 190  : 	clipFlags |= BIT( side );

	mov	eax, 1
	mov	ecx, DWORD PTR _side$[ebp]
	shl	eax, cl
	mov	ecx, DWORD PTR _this$[ebp]
	or	eax, DWORD PTR [ecx+120]
	mov	edx, DWORD PTR _this$[ebp]
	mov	DWORD PTR [edx+120], eax

; 191  : }

	pop	edi
	pop	esi
	pop	ebx
	mov	esp, ebp
	pop	ebp
	ret	4
?NormalizePlane@CFrustum@@QAEXH@Z ENDP			; CFrustum::NormalizePlane
_TEXT	ENDS
; Function compile flags: /Odtp /ZI
; File d:\!diffusion 2020\source code 2022\client-server\client\render\r_frustum.cpp
;	COMDAT ?SetPlane@CFrustum@@QAEXHABVVector@@M@Z
_TEXT	SEGMENT
_this$ = -4						; size = 4
_side$ = 8						; size = 4
_vecNormal$ = 12					; size = 4
_flDist$ = 16						; size = 4
?SetPlane@CFrustum@@QAEXHABVVector@@M@Z PROC		; CFrustum::SetPlane, COMDAT
; _this$ = ecx

; 160  : {

	push	ebp
	mov	ebp, esp
	sub	esp, 68					; 00000044H
	push	ebx
	push	esi
	push	edi
	mov	DWORD PTR _this$[ebp], ecx

; 161  : 	ASSERT( side >= 0 && side < FRUSTUM_PLANES );

	cmp	DWORD PTR _side$[ebp], 0
	jl	SHORT $LN3@SetPlane
	cmp	DWORD PTR _side$[ebp], 6
	jl	SHORT $LN2@SetPlane
$LN3@SetPlane:
	mov	eax, DWORD PTR ?__LINE__Var@?0??SetPlane@CFrustum@@QAEXHABVVector@@M@Z@4JA
	add	eax, 1
	push	eax
	push	OFFSET ??_C@_0EO@IFNGPKKG@d?3?2?$CBdiffusion?52020?2source?5code?52@
	push	OFFSET ??_C@_0BI@FECCGOFJ@assert?5failed?5at?5?$CFs?3?$CFi?6?$AA@
	call	DWORD PTR ?gRenderfuncs@@3Urender_api_s@@A+236
	add	esp, 12					; 0000000cH
$LN2@SetPlane:

; 162  : 
; 163  : 	planes[side].type = PlaneTypeForNormal( vecNormal );

	mov	eax, DWORD PTR _vecNormal$[ebp]
	push	eax
	call	?PlaneTypeForNormal@@YAHABVVector@@@Z	; PlaneTypeForNormal
	add	esp, 4
	imul	ecx, DWORD PTR _side$[ebp], 20
	mov	edx, DWORD PTR _this$[ebp]
	mov	BYTE PTR [edx+ecx+16], al

; 164  : 	planes[side].signbits = SignbitsForPlane( vecNormal );

	mov	eax, DWORD PTR _vecNormal$[ebp]
	push	eax
	call	?SignbitsForPlane@@YAHABVVector@@@Z	; SignbitsForPlane
	add	esp, 4
	imul	ecx, DWORD PTR _side$[ebp], 20
	mov	edx, DWORD PTR _this$[ebp]
	mov	BYTE PTR [edx+ecx+17], al

; 165  : 	planes[side].normal = vecNormal;

	imul	eax, DWORD PTR _side$[ebp], 20
	add	eax, DWORD PTR _this$[ebp]
	mov	ecx, DWORD PTR _vecNormal$[ebp]
	mov	edx, DWORD PTR [ecx]
	mov	DWORD PTR [eax], edx
	mov	edx, DWORD PTR [ecx+4]
	mov	DWORD PTR [eax+4], edx
	mov	ecx, DWORD PTR [ecx+8]
	mov	DWORD PTR [eax+8], ecx

; 166  : 	planes[side].dist = flDist;

	imul	eax, DWORD PTR _side$[ebp], 20
	mov	ecx, DWORD PTR _this$[ebp]
	movss	xmm0, DWORD PTR _flDist$[ebp]
	movss	DWORD PTR [ecx+eax+12], xmm0

; 167  : 
; 168  : 	clipFlags |= BIT( side );

	mov	eax, 1
	mov	ecx, DWORD PTR _side$[ebp]
	shl	eax, cl
	mov	ecx, DWORD PTR _this$[ebp]
	or	eax, DWORD PTR [ecx+120]
	mov	edx, DWORD PTR _this$[ebp]
	mov	DWORD PTR [edx+120], eax

; 169  : }

	pop	edi
	pop	esi
	pop	ebx
	mov	esp, ebp
	pop	ebp
	ret	12					; 0000000cH
?SetPlane@CFrustum@@QAEXHABVVector@@M@Z ENDP		; CFrustum::SetPlane
_TEXT	ENDS
; Function compile flags: /Odtp /ZI
; File d:\!diffusion 2020\source code 2022\client-server\client\render\r_frustum.cpp
;	COMDAT ?InitProjectionFromMatrix@CFrustum@@QAEXABVmatrix4x4@@@Z
_TEXT	SEGMENT
tv767 = -76						; size = 4
tv765 = -76						; size = 4
tv763 = -76						; size = 4
tv761 = -76						; size = 4
tv759 = -76						; size = 4
tv757 = -76						; size = 4
tv755 = -76						; size = 4
tv753 = -76						; size = 4
tv751 = -76						; size = 4
tv749 = -76						; size = 4
tv747 = -76						; size = 4
tv745 = -76						; size = 4
tv743 = -76						; size = 4
tv741 = -76						; size = 4
tv739 = -76						; size = 4
tv737 = -76						; size = 4
tv735 = -76						; size = 4
tv733 = -76						; size = 4
_i$1 = -8						; size = 4
_this$ = -4						; size = 4
_projection$ = 8					; size = 4
?InitProjectionFromMatrix@CFrustum@@QAEXABVmatrix4x4@@@Z PROC ; CFrustum::InitProjectionFromMatrix, COMDAT
; _this$ = ecx

; 116  : {

	push	ebp
	mov	ebp, esp
	sub	esp, 76					; 0000004cH
	push	ebx
	push	esi
	push	edi
	mov	DWORD PTR _this$[ebp], ecx

; 117  : 	// left
; 118  : 	planes[FRUSTUM_LEFT].normal[0] =	  projection[0][3] + projection[0][0];

	push	0
	mov	ecx, DWORD PTR _projection$[ebp]
	call	??Amatrix4x4@@QBEPBMH@Z			; matrix4x4::operator[]
	mov	esi, eax
	mov	eax, 4
	imul	edi, eax, 3
	push	0
	mov	ecx, DWORD PTR _projection$[ebp]
	call	??Amatrix4x4@@QBEPBMH@Z			; matrix4x4::operator[]
	mov	ecx, 4
	imul	edx, ecx, 0
	movss	xmm0, DWORD PTR [esi+edi]
	addss	xmm0, DWORD PTR [eax+edx]
	mov	eax, 20					; 00000014H
	imul	ecx, eax, 0
	add	ecx, DWORD PTR _this$[ebp]
	movss	DWORD PTR tv733[ebp], xmm0
	call	??BVector@@QAEPAMXZ			; Vector::operator float *
	mov	ecx, 4
	imul	edx, ecx, 0
	movss	xmm0, DWORD PTR tv733[ebp]
	movss	DWORD PTR [eax+edx], xmm0

; 119  : 	planes[FRUSTUM_LEFT].normal[1] =	  projection[1][3] + projection[1][0];

	push	1
	mov	ecx, DWORD PTR _projection$[ebp]
	call	??Amatrix4x4@@QBEPBMH@Z			; matrix4x4::operator[]
	mov	esi, eax
	mov	eax, 4
	imul	edi, eax, 3
	push	1
	mov	ecx, DWORD PTR _projection$[ebp]
	call	??Amatrix4x4@@QBEPBMH@Z			; matrix4x4::operator[]
	mov	ecx, 4
	imul	edx, ecx, 0
	movss	xmm0, DWORD PTR [esi+edi]
	addss	xmm0, DWORD PTR [eax+edx]
	mov	eax, 20					; 00000014H
	imul	ecx, eax, 0
	add	ecx, DWORD PTR _this$[ebp]
	movss	DWORD PTR tv735[ebp], xmm0
	call	??BVector@@QAEPAMXZ			; Vector::operator float *
	mov	ecx, 4
	shl	ecx, 0
	movss	xmm0, DWORD PTR tv735[ebp]
	movss	DWORD PTR [eax+ecx], xmm0

; 120  : 	planes[FRUSTUM_LEFT].normal[2] =	  projection[2][3] + projection[2][0];

	push	2
	mov	ecx, DWORD PTR _projection$[ebp]
	call	??Amatrix4x4@@QBEPBMH@Z			; matrix4x4::operator[]
	mov	esi, eax
	mov	eax, 4
	imul	edi, eax, 3
	push	2
	mov	ecx, DWORD PTR _projection$[ebp]
	call	??Amatrix4x4@@QBEPBMH@Z			; matrix4x4::operator[]
	mov	ecx, 4
	imul	edx, ecx, 0
	movss	xmm0, DWORD PTR [esi+edi]
	addss	xmm0, DWORD PTR [eax+edx]
	mov	eax, 20					; 00000014H
	imul	ecx, eax, 0
	add	ecx, DWORD PTR _this$[ebp]
	movss	DWORD PTR tv737[ebp], xmm0
	call	??BVector@@QAEPAMXZ			; Vector::operator float *
	mov	ecx, 4
	shl	ecx, 1
	movss	xmm0, DWORD PTR tv737[ebp]
	movss	DWORD PTR [eax+ecx], xmm0

; 121  : 	planes[FRUSTUM_LEFT].dist =		-(projection[3][3] + projection[3][0]);

	push	3
	mov	ecx, DWORD PTR _projection$[ebp]
	call	??Amatrix4x4@@QBEPBMH@Z			; matrix4x4::operator[]
	mov	esi, eax
	mov	eax, 4
	imul	edi, eax, 3
	push	3
	mov	ecx, DWORD PTR _projection$[ebp]
	call	??Amatrix4x4@@QBEPBMH@Z			; matrix4x4::operator[]
	mov	ecx, 4
	imul	edx, ecx, 0
	movss	xmm0, DWORD PTR [esi+edi]
	addss	xmm0, DWORD PTR [eax+edx]
	xorps	xmm0, DWORD PTR __xmm@80000000800000008000000080000000
	mov	eax, 20					; 00000014H
	imul	ecx, eax, 0
	mov	edx, DWORD PTR _this$[ebp]
	movss	DWORD PTR [edx+ecx+12], xmm0

; 122  : 
; 123  : 	// right
; 124  : 	planes[FRUSTUM_RIGHT].normal[0] =	  projection[0][3] - projection[0][0];

	push	0
	mov	ecx, DWORD PTR _projection$[ebp]
	call	??Amatrix4x4@@QBEPBMH@Z			; matrix4x4::operator[]
	mov	esi, eax
	mov	eax, 4
	imul	edi, eax, 3
	push	0
	mov	ecx, DWORD PTR _projection$[ebp]
	call	??Amatrix4x4@@QBEPBMH@Z			; matrix4x4::operator[]
	mov	ecx, 4
	imul	edx, ecx, 0
	movss	xmm0, DWORD PTR [esi+edi]
	subss	xmm0, DWORD PTR [eax+edx]
	mov	ecx, 20					; 00000014H
	shl	ecx, 0
	add	ecx, DWORD PTR _this$[ebp]
	movss	DWORD PTR tv739[ebp], xmm0
	call	??BVector@@QAEPAMXZ			; Vector::operator float *
	mov	ecx, 4
	imul	edx, ecx, 0
	movss	xmm0, DWORD PTR tv739[ebp]
	movss	DWORD PTR [eax+edx], xmm0

; 125  : 	planes[FRUSTUM_RIGHT].normal[1] =	  projection[1][3] - projection[1][0];

	push	1
	mov	ecx, DWORD PTR _projection$[ebp]
	call	??Amatrix4x4@@QBEPBMH@Z			; matrix4x4::operator[]
	mov	esi, eax
	mov	eax, 4
	imul	edi, eax, 3
	push	1
	mov	ecx, DWORD PTR _projection$[ebp]
	call	??Amatrix4x4@@QBEPBMH@Z			; matrix4x4::operator[]
	mov	ecx, 4
	imul	edx, ecx, 0
	movss	xmm0, DWORD PTR [esi+edi]
	subss	xmm0, DWORD PTR [eax+edx]
	mov	ecx, 20					; 00000014H
	shl	ecx, 0
	add	ecx, DWORD PTR _this$[ebp]
	movss	DWORD PTR tv741[ebp], xmm0
	call	??BVector@@QAEPAMXZ			; Vector::operator float *
	mov	ecx, 4
	shl	ecx, 0
	movss	xmm0, DWORD PTR tv741[ebp]
	movss	DWORD PTR [eax+ecx], xmm0

; 126  : 	planes[FRUSTUM_RIGHT].normal[2] =	  projection[2][3] - projection[2][0];

	push	2
	mov	ecx, DWORD PTR _projection$[ebp]
	call	??Amatrix4x4@@QBEPBMH@Z			; matrix4x4::operator[]
	mov	esi, eax
	mov	eax, 4
	imul	edi, eax, 3
	push	2
	mov	ecx, DWORD PTR _projection$[ebp]
	call	??Amatrix4x4@@QBEPBMH@Z			; matrix4x4::operator[]
	mov	ecx, 4
	imul	edx, ecx, 0
	movss	xmm0, DWORD PTR [esi+edi]
	subss	xmm0, DWORD PTR [eax+edx]
	mov	ecx, 20					; 00000014H
	shl	ecx, 0
	add	ecx, DWORD PTR _this$[ebp]
	movss	DWORD PTR tv743[ebp], xmm0
	call	??BVector@@QAEPAMXZ			; Vector::operator float *
	mov	ecx, 4
	shl	ecx, 1
	movss	xmm0, DWORD PTR tv743[ebp]
	movss	DWORD PTR [eax+ecx], xmm0

; 127  : 	planes[FRUSTUM_RIGHT].dist =		-(projection[3][3] - projection[3][0]);

	push	3
	mov	ecx, DWORD PTR _projection$[ebp]
	call	??Amatrix4x4@@QBEPBMH@Z			; matrix4x4::operator[]
	mov	esi, eax
	mov	eax, 4
	imul	edi, eax, 3
	push	3
	mov	ecx, DWORD PTR _projection$[ebp]
	call	??Amatrix4x4@@QBEPBMH@Z			; matrix4x4::operator[]
	mov	ecx, 4
	imul	edx, ecx, 0
	movss	xmm0, DWORD PTR [esi+edi]
	subss	xmm0, DWORD PTR [eax+edx]
	xorps	xmm0, DWORD PTR __xmm@80000000800000008000000080000000
	mov	eax, 20					; 00000014H
	shl	eax, 0
	mov	ecx, DWORD PTR _this$[ebp]
	movss	DWORD PTR [ecx+eax+12], xmm0

; 128  : 
; 129  : 	// bottom
; 130  : 	planes[FRUSTUM_BOTTOM].normal[0] =	  projection[0][3] + projection[0][1];

	push	0
	mov	ecx, DWORD PTR _projection$[ebp]
	call	??Amatrix4x4@@QBEPBMH@Z			; matrix4x4::operator[]
	mov	esi, eax
	mov	eax, 4
	imul	edi, eax, 3
	push	0
	mov	ecx, DWORD PTR _projection$[ebp]
	call	??Amatrix4x4@@QBEPBMH@Z			; matrix4x4::operator[]
	mov	ecx, 4
	shl	ecx, 0
	movss	xmm0, DWORD PTR [esi+edi]
	addss	xmm0, DWORD PTR [eax+ecx]
	mov	ecx, 20					; 00000014H
	shl	ecx, 1
	add	ecx, DWORD PTR _this$[ebp]
	movss	DWORD PTR tv745[ebp], xmm0
	call	??BVector@@QAEPAMXZ			; Vector::operator float *
	mov	edx, 4
	imul	ecx, edx, 0
	movss	xmm0, DWORD PTR tv745[ebp]
	movss	DWORD PTR [eax+ecx], xmm0

; 131  : 	planes[FRUSTUM_BOTTOM].normal[1] =	  projection[1][3] + projection[1][1];

	push	1
	mov	ecx, DWORD PTR _projection$[ebp]
	call	??Amatrix4x4@@QBEPBMH@Z			; matrix4x4::operator[]
	mov	esi, eax
	mov	eax, 4
	imul	edi, eax, 3
	push	1
	mov	ecx, DWORD PTR _projection$[ebp]
	call	??Amatrix4x4@@QBEPBMH@Z			; matrix4x4::operator[]
	mov	ecx, 4
	shl	ecx, 0
	movss	xmm0, DWORD PTR [esi+edi]
	addss	xmm0, DWORD PTR [eax+ecx]
	mov	ecx, 20					; 00000014H
	shl	ecx, 1
	add	ecx, DWORD PTR _this$[ebp]
	movss	DWORD PTR tv747[ebp], xmm0
	call	??BVector@@QAEPAMXZ			; Vector::operator float *
	mov	edx, 4
	shl	edx, 0
	movss	xmm0, DWORD PTR tv747[ebp]
	movss	DWORD PTR [eax+edx], xmm0

; 132  : 	planes[FRUSTUM_BOTTOM].normal[2] =	  projection[2][3] + projection[2][1];

	push	2
	mov	ecx, DWORD PTR _projection$[ebp]
	call	??Amatrix4x4@@QBEPBMH@Z			; matrix4x4::operator[]
	mov	esi, eax
	mov	eax, 4
	imul	edi, eax, 3
	push	2
	mov	ecx, DWORD PTR _projection$[ebp]
	call	??Amatrix4x4@@QBEPBMH@Z			; matrix4x4::operator[]
	mov	ecx, 4
	shl	ecx, 0
	movss	xmm0, DWORD PTR [esi+edi]
	addss	xmm0, DWORD PTR [eax+ecx]
	mov	ecx, 20					; 00000014H
	shl	ecx, 1
	add	ecx, DWORD PTR _this$[ebp]
	movss	DWORD PTR tv749[ebp], xmm0
	call	??BVector@@QAEPAMXZ			; Vector::operator float *
	mov	edx, 4
	shl	edx, 1
	movss	xmm0, DWORD PTR tv749[ebp]
	movss	DWORD PTR [eax+edx], xmm0

; 133  : 	planes[FRUSTUM_BOTTOM].dist =		-(projection[3][3] + projection[3][1]);

	push	3
	mov	ecx, DWORD PTR _projection$[ebp]
	call	??Amatrix4x4@@QBEPBMH@Z			; matrix4x4::operator[]
	mov	esi, eax
	mov	eax, 4
	imul	edi, eax, 3
	push	3
	mov	ecx, DWORD PTR _projection$[ebp]
	call	??Amatrix4x4@@QBEPBMH@Z			; matrix4x4::operator[]
	mov	ecx, 4
	shl	ecx, 0
	movss	xmm0, DWORD PTR [esi+edi]
	addss	xmm0, DWORD PTR [eax+ecx]
	xorps	xmm0, DWORD PTR __xmm@80000000800000008000000080000000
	mov	edx, 20					; 00000014H
	shl	edx, 1
	mov	eax, DWORD PTR _this$[ebp]
	movss	DWORD PTR [eax+edx+12], xmm0

; 134  : 
; 135  : 	// top
; 136  : 	planes[FRUSTUM_TOP].normal[0]	=  	  projection[0][3] - projection[0][1];

	push	0
	mov	ecx, DWORD PTR _projection$[ebp]
	call	??Amatrix4x4@@QBEPBMH@Z			; matrix4x4::operator[]
	mov	esi, eax
	mov	eax, 4
	imul	edi, eax, 3
	push	0
	mov	ecx, DWORD PTR _projection$[ebp]
	call	??Amatrix4x4@@QBEPBMH@Z			; matrix4x4::operator[]
	mov	ecx, 4
	shl	ecx, 0
	movss	xmm0, DWORD PTR [esi+edi]
	subss	xmm0, DWORD PTR [eax+ecx]
	mov	edx, 20					; 00000014H
	imul	ecx, edx, 3
	add	ecx, DWORD PTR _this$[ebp]
	movss	DWORD PTR tv751[ebp], xmm0
	call	??BVector@@QAEPAMXZ			; Vector::operator float *
	mov	ecx, 4
	imul	edx, ecx, 0
	movss	xmm0, DWORD PTR tv751[ebp]
	movss	DWORD PTR [eax+edx], xmm0

; 137  : 	planes[FRUSTUM_TOP].normal[1]	=  	  projection[1][3] - projection[1][1];

	push	1
	mov	ecx, DWORD PTR _projection$[ebp]
	call	??Amatrix4x4@@QBEPBMH@Z			; matrix4x4::operator[]
	mov	esi, eax
	mov	eax, 4
	imul	edi, eax, 3
	push	1
	mov	ecx, DWORD PTR _projection$[ebp]
	call	??Amatrix4x4@@QBEPBMH@Z			; matrix4x4::operator[]
	mov	ecx, 4
	shl	ecx, 0
	movss	xmm0, DWORD PTR [esi+edi]
	subss	xmm0, DWORD PTR [eax+ecx]
	mov	edx, 20					; 00000014H
	imul	ecx, edx, 3
	add	ecx, DWORD PTR _this$[ebp]
	movss	DWORD PTR tv753[ebp], xmm0
	call	??BVector@@QAEPAMXZ			; Vector::operator float *
	mov	ecx, 4
	shl	ecx, 0
	movss	xmm0, DWORD PTR tv753[ebp]
	movss	DWORD PTR [eax+ecx], xmm0

; 138  : 	planes[FRUSTUM_TOP].normal[2]	=  	  projection[2][3] - projection[2][1];

	push	2
	mov	ecx, DWORD PTR _projection$[ebp]
	call	??Amatrix4x4@@QBEPBMH@Z			; matrix4x4::operator[]
	mov	esi, eax
	mov	eax, 4
	imul	edi, eax, 3
	push	2
	mov	ecx, DWORD PTR _projection$[ebp]
	call	??Amatrix4x4@@QBEPBMH@Z			; matrix4x4::operator[]
	mov	ecx, 4
	shl	ecx, 0
	movss	xmm0, DWORD PTR [esi+edi]
	subss	xmm0, DWORD PTR [eax+ecx]
	mov	edx, 20					; 00000014H
	imul	ecx, edx, 3
	add	ecx, DWORD PTR _this$[ebp]
	movss	DWORD PTR tv755[ebp], xmm0
	call	??BVector@@QAEPAMXZ			; Vector::operator float *
	mov	ecx, 4
	shl	ecx, 1
	movss	xmm0, DWORD PTR tv755[ebp]
	movss	DWORD PTR [eax+ecx], xmm0

; 139  : 	planes[FRUSTUM_TOP].dist =		-(projection[3][3] - projection[3][1]);

	push	3
	mov	ecx, DWORD PTR _projection$[ebp]
	call	??Amatrix4x4@@QBEPBMH@Z			; matrix4x4::operator[]
	mov	esi, eax
	mov	eax, 4
	imul	edi, eax, 3
	push	3
	mov	ecx, DWORD PTR _projection$[ebp]
	call	??Amatrix4x4@@QBEPBMH@Z			; matrix4x4::operator[]
	mov	ecx, 4
	shl	ecx, 0
	movss	xmm0, DWORD PTR [esi+edi]
	subss	xmm0, DWORD PTR [eax+ecx]
	xorps	xmm0, DWORD PTR __xmm@80000000800000008000000080000000
	mov	edx, 20					; 00000014H
	imul	eax, edx, 3
	mov	ecx, DWORD PTR _this$[ebp]
	movss	DWORD PTR [ecx+eax+12], xmm0

; 140  : 
; 141  : 	// near
; 142  : 	planes[FRUSTUM_NEAR].normal[0] =	  projection[0][3] + projection[0][2];

	push	0
	mov	ecx, DWORD PTR _projection$[ebp]
	call	??Amatrix4x4@@QBEPBMH@Z			; matrix4x4::operator[]
	mov	esi, eax
	mov	eax, 4
	imul	edi, eax, 3
	push	0
	mov	ecx, DWORD PTR _projection$[ebp]
	call	??Amatrix4x4@@QBEPBMH@Z			; matrix4x4::operator[]
	mov	ecx, 4
	shl	ecx, 1
	movss	xmm0, DWORD PTR [esi+edi]
	addss	xmm0, DWORD PTR [eax+ecx]
	mov	edx, 20					; 00000014H
	imul	ecx, edx, 5
	add	ecx, DWORD PTR _this$[ebp]
	movss	DWORD PTR tv757[ebp], xmm0
	call	??BVector@@QAEPAMXZ			; Vector::operator float *
	mov	ecx, 4
	imul	edx, ecx, 0
	movss	xmm0, DWORD PTR tv757[ebp]
	movss	DWORD PTR [eax+edx], xmm0

; 143  : 	planes[FRUSTUM_NEAR].normal[1] =	  projection[1][3] + projection[1][2];

	push	1
	mov	ecx, DWORD PTR _projection$[ebp]
	call	??Amatrix4x4@@QBEPBMH@Z			; matrix4x4::operator[]
	mov	esi, eax
	mov	eax, 4
	imul	edi, eax, 3
	push	1
	mov	ecx, DWORD PTR _projection$[ebp]
	call	??Amatrix4x4@@QBEPBMH@Z			; matrix4x4::operator[]
	mov	ecx, 4
	shl	ecx, 1
	movss	xmm0, DWORD PTR [esi+edi]
	addss	xmm0, DWORD PTR [eax+ecx]
	mov	edx, 20					; 00000014H
	imul	ecx, edx, 5
	add	ecx, DWORD PTR _this$[ebp]
	movss	DWORD PTR tv759[ebp], xmm0
	call	??BVector@@QAEPAMXZ			; Vector::operator float *
	mov	ecx, 4
	shl	ecx, 0
	movss	xmm0, DWORD PTR tv759[ebp]
	movss	DWORD PTR [eax+ecx], xmm0

; 144  : 	planes[FRUSTUM_NEAR].normal[2] =	  projection[2][3] + projection[2][2];

	push	2
	mov	ecx, DWORD PTR _projection$[ebp]
	call	??Amatrix4x4@@QBEPBMH@Z			; matrix4x4::operator[]
	mov	esi, eax
	mov	eax, 4
	imul	edi, eax, 3
	push	2
	mov	ecx, DWORD PTR _projection$[ebp]
	call	??Amatrix4x4@@QBEPBMH@Z			; matrix4x4::operator[]
	mov	ecx, 4
	shl	ecx, 1
	movss	xmm0, DWORD PTR [esi+edi]
	addss	xmm0, DWORD PTR [eax+ecx]
	mov	edx, 20					; 00000014H
	imul	ecx, edx, 5
	add	ecx, DWORD PTR _this$[ebp]
	movss	DWORD PTR tv761[ebp], xmm0
	call	??BVector@@QAEPAMXZ			; Vector::operator float *
	mov	ecx, 4
	shl	ecx, 1
	movss	xmm0, DWORD PTR tv761[ebp]
	movss	DWORD PTR [eax+ecx], xmm0

; 145  : 	planes[FRUSTUM_NEAR].dist =		-(projection[3][3] + projection[3][2]);

	push	3
	mov	ecx, DWORD PTR _projection$[ebp]
	call	??Amatrix4x4@@QBEPBMH@Z			; matrix4x4::operator[]
	mov	esi, eax
	mov	eax, 4
	imul	edi, eax, 3
	push	3
	mov	ecx, DWORD PTR _projection$[ebp]
	call	??Amatrix4x4@@QBEPBMH@Z			; matrix4x4::operator[]
	mov	ecx, 4
	shl	ecx, 1
	movss	xmm0, DWORD PTR [esi+edi]
	addss	xmm0, DWORD PTR [eax+ecx]
	xorps	xmm0, DWORD PTR __xmm@80000000800000008000000080000000
	mov	edx, 20					; 00000014H
	imul	eax, edx, 5
	mov	ecx, DWORD PTR _this$[ebp]
	movss	DWORD PTR [ecx+eax+12], xmm0

; 146  : 
; 147  : 	// far
; 148  : 	planes[FRUSTUM_FAR].normal[0]	=  	  projection[0][3] - projection[0][2];

	push	0
	mov	ecx, DWORD PTR _projection$[ebp]
	call	??Amatrix4x4@@QBEPBMH@Z			; matrix4x4::operator[]
	mov	esi, eax
	mov	eax, 4
	imul	edi, eax, 3
	push	0
	mov	ecx, DWORD PTR _projection$[ebp]
	call	??Amatrix4x4@@QBEPBMH@Z			; matrix4x4::operator[]
	mov	ecx, 4
	shl	ecx, 1
	movss	xmm0, DWORD PTR [esi+edi]
	subss	xmm0, DWORD PTR [eax+ecx]
	mov	ecx, 20					; 00000014H
	shl	ecx, 2
	add	ecx, DWORD PTR _this$[ebp]
	movss	DWORD PTR tv763[ebp], xmm0
	call	??BVector@@QAEPAMXZ			; Vector::operator float *
	mov	edx, 4
	imul	ecx, edx, 0
	movss	xmm0, DWORD PTR tv763[ebp]
	movss	DWORD PTR [eax+ecx], xmm0

; 149  : 	planes[FRUSTUM_FAR].normal[1]	=  	  projection[1][3] - projection[1][2];

	push	1
	mov	ecx, DWORD PTR _projection$[ebp]
	call	??Amatrix4x4@@QBEPBMH@Z			; matrix4x4::operator[]
	mov	esi, eax
	mov	eax, 4
	imul	edi, eax, 3
	push	1
	mov	ecx, DWORD PTR _projection$[ebp]
	call	??Amatrix4x4@@QBEPBMH@Z			; matrix4x4::operator[]
	mov	ecx, 4
	shl	ecx, 1
	movss	xmm0, DWORD PTR [esi+edi]
	subss	xmm0, DWORD PTR [eax+ecx]
	mov	ecx, 20					; 00000014H
	shl	ecx, 2
	add	ecx, DWORD PTR _this$[ebp]
	movss	DWORD PTR tv765[ebp], xmm0
	call	??BVector@@QAEPAMXZ			; Vector::operator float *
	mov	edx, 4
	shl	edx, 0
	movss	xmm0, DWORD PTR tv765[ebp]
	movss	DWORD PTR [eax+edx], xmm0

; 150  : 	planes[FRUSTUM_FAR].normal[2]	=  	  projection[2][3] - projection[2][2];

	push	2
	mov	ecx, DWORD PTR _projection$[ebp]
	call	??Amatrix4x4@@QBEPBMH@Z			; matrix4x4::operator[]
	mov	esi, eax
	mov	eax, 4
	imul	edi, eax, 3
	push	2
	mov	ecx, DWORD PTR _projection$[ebp]
	call	??Amatrix4x4@@QBEPBMH@Z			; matrix4x4::operator[]
	mov	ecx, 4
	shl	ecx, 1
	movss	xmm0, DWORD PTR [esi+edi]
	subss	xmm0, DWORD PTR [eax+ecx]
	mov	ecx, 20					; 00000014H
	shl	ecx, 2
	add	ecx, DWORD PTR _this$[ebp]
	movss	DWORD PTR tv767[ebp], xmm0
	call	??BVector@@QAEPAMXZ			; Vector::operator float *
	mov	edx, 4
	shl	edx, 1
	movss	xmm0, DWORD PTR tv767[ebp]
	movss	DWORD PTR [eax+edx], xmm0

; 151  : 	planes[FRUSTUM_FAR].dist =		-(projection[3][3] - projection[3][2]);

	push	3
	mov	ecx, DWORD PTR _projection$[ebp]
	call	??Amatrix4x4@@QBEPBMH@Z			; matrix4x4::operator[]
	mov	esi, eax
	mov	eax, 4
	imul	edi, eax, 3
	push	3
	mov	ecx, DWORD PTR _projection$[ebp]
	call	??Amatrix4x4@@QBEPBMH@Z			; matrix4x4::operator[]
	mov	ecx, 4
	shl	ecx, 1
	movss	xmm0, DWORD PTR [esi+edi]
	subss	xmm0, DWORD PTR [eax+ecx]
	xorps	xmm0, DWORD PTR __xmm@80000000800000008000000080000000
	mov	edx, 20					; 00000014H
	shl	edx, 2
	mov	eax, DWORD PTR _this$[ebp]
	movss	DWORD PTR [eax+edx+12], xmm0

; 152  : 
; 153  : 	for( int i = 0; i < FRUSTUM_PLANES; i++ )

	mov	DWORD PTR _i$1[ebp], 0
	jmp	SHORT $LN4@InitProjec
$LN2@InitProjec:
	mov	eax, DWORD PTR _i$1[ebp]
	add	eax, 1
	mov	DWORD PTR _i$1[ebp], eax
$LN4@InitProjec:
	cmp	DWORD PTR _i$1[ebp], 6
	jge	SHORT $LN3@InitProjec

; 154  : 	{
; 155  : 		NormalizePlane( i );

	mov	eax, DWORD PTR _i$1[ebp]
	push	eax
	mov	ecx, DWORD PTR _this$[ebp]
	call	?NormalizePlane@CFrustum@@QAEXH@Z	; CFrustum::NormalizePlane

; 156  : 	}

	jmp	SHORT $LN2@InitProjec
$LN3@InitProjec:

; 157  : }

	pop	edi
	pop	esi
	pop	ebx
	mov	esp, ebp
	pop	ebp
	ret	4
?InitProjectionFromMatrix@CFrustum@@QAEXABVmatrix4x4@@@Z ENDP ; CFrustum::InitProjectionFromMatrix
_TEXT	ENDS
; Function compile flags: /Odtp /ZI
; File d:\!diffusion 2020\source code 2022\client-server\client\render\r_frustum.cpp
;	COMDAT ?InitBoxFrustum@CFrustum@@QAEXABVVector@@M@Z
_TEXT	SEGMENT
tv136 = -88						; size = 4
tv77 = -88						; size = 4
_normal$1 = -20						; size = 12
_i$2 = -8						; size = 4
_this$ = -4						; size = 4
_org$ = 8						; size = 4
_radius$ = 12						; size = 4
?InitBoxFrustum@CFrustum@@QAEXABVVector@@M@Z PROC	; CFrustum::InitBoxFrustum, COMDAT
; _this$ = ecx

; 105  : {

	push	ebp
	mov	ebp, esp
	sub	esp, 88					; 00000058H
	push	ebx
	push	esi
	push	edi
	mov	DWORD PTR _this$[ebp], ecx

; 106  : 	for( int i = 0; i < 6; i++ )

	mov	DWORD PTR _i$2[ebp], 0
	jmp	SHORT $LN4@InitBoxFru
$LN2@InitBoxFru:
	mov	eax, DWORD PTR _i$2[ebp]
	add	eax, 1
	mov	DWORD PTR _i$2[ebp], eax
$LN4@InitBoxFru:
	cmp	DWORD PTR _i$2[ebp], 6
	jge	$LN3@InitBoxFru

; 107  : 	{
; 108  : 		// setup normal for each direction
; 109  : 		Vector normal = g_vecZero;

	push	OFFSET ?g_vecZero@@3VVector@@B		; g_vecZero
	lea	ecx, DWORD PTR _normal$1[ebp]
	call	??0Vector@@QAE@ABV0@@Z			; Vector::Vector

; 110  : 		normal[((i >> 1) + 1) % 3] = (i & 1) ? 1.0f : -1.0f;

	mov	eax, DWORD PTR _i$2[ebp]
	and	eax, 1
	je	SHORT $LN6@InitBoxFru
	movss	xmm0, DWORD PTR __real@3f800000
	movss	DWORD PTR tv77[ebp], xmm0
	jmp	SHORT $LN7@InitBoxFru
$LN6@InitBoxFru:
	movss	xmm0, DWORD PTR __real@bf800000
	movss	DWORD PTR tv77[ebp], xmm0
$LN7@InitBoxFru:
	lea	ecx, DWORD PTR _normal$1[ebp]
	call	??BVector@@QAEPAMXZ			; Vector::operator float *
	mov	ecx, eax
	mov	eax, DWORD PTR _i$2[ebp]
	sar	eax, 1
	add	eax, 1
	cdq
	mov	esi, 3
	idiv	esi
	movss	xmm0, DWORD PTR tv77[ebp]
	movss	DWORD PTR [ecx+edx*4], xmm0

; 111  : 		SetPlane( i, normal, DotProduct( org, normal ) - radius );

	lea	eax, DWORD PTR _normal$1[ebp]
	push	eax
	mov	ecx, DWORD PTR _org$[ebp]
	push	ecx
	call	?DotProduct@@YAMABVVector@@0@Z		; DotProduct
	add	esp, 8
	fstp	DWORD PTR tv136[ebp]
	movss	xmm0, DWORD PTR tv136[ebp]
	subss	xmm0, DWORD PTR _radius$[ebp]
	push	ecx
	movss	DWORD PTR [esp], xmm0
	lea	edx, DWORD PTR _normal$1[ebp]
	push	edx
	mov	eax, DWORD PTR _i$2[ebp]
	push	eax
	mov	ecx, DWORD PTR _this$[ebp]
	call	?SetPlane@CFrustum@@QAEXHABVVector@@M@Z	; CFrustum::SetPlane

; 112  : 	}

	jmp	$LN2@InitBoxFru
$LN3@InitBoxFru:

; 113  : }

	pop	edi
	pop	esi
	pop	ebx
	mov	esp, ebp
	pop	ebp
	ret	8
?InitBoxFrustum@CFrustum@@QAEXABVVector@@M@Z ENDP	; CFrustum::InitBoxFrustum
_TEXT	ENDS
; Function compile flags: /Odtp /ZI
; File d:\!diffusion 2020\source code 2022\client-server\client\render\r_frustum.cpp
;	COMDAT ?InitOrthogonal@CFrustum@@QAEXABVmatrix4x4@@MMMMMM@Z
_TEXT	SEGMENT
$T1 = -252						; size = 12
$T2 = -240						; size = 12
$T3 = -228						; size = 12
$T4 = -216						; size = 12
$T5 = -204						; size = 12
$T6 = -192						; size = 12
$T7 = -180						; size = 12
$T8 = -168						; size = 12
$T9 = -156						; size = 12
$T10 = -144						; size = 12
$T11 = -132						; size = 12
$T12 = -120						; size = 12
$T13 = -108						; size = 12
$T14 = -96						; size = 12
$T15 = -84						; size = 12
_orgOffset$ = -8					; size = 4
_this$ = -4						; size = 4
_view$ = 8						; size = 4
_xLeft$ = 12						; size = 4
_xRight$ = 16						; size = 4
_yTop$ = 20						; size = 4
_yBottom$ = 24						; size = 4
_flZNear$ = 28						; size = 4
_flZFar$ = 32						; size = 4
?InitOrthogonal@CFrustum@@QAEXABVmatrix4x4@@MMMMMM@Z PROC ; CFrustum::InitOrthogonal, COMDAT
; _this$ = ecx

; 84   : {

	push	ebp
	mov	ebp, esp
	sub	esp, 252				; 000000fcH
	push	ebx
	push	esi
	push	edi
	mov	DWORD PTR _this$[ebp], ecx

; 85   : 	// setup the near and far planes
; 86   : 	float orgOffset = DotProduct( view.GetOrigin(), view.GetForward() );

	lea	eax, DWORD PTR $T15[ebp]
	push	eax
	mov	ecx, DWORD PTR _view$[ebp]
	call	?GetForward@matrix4x4@@QBE?AVVector@@XZ	; matrix4x4::GetForward
	push	eax
	lea	ecx, DWORD PTR $T14[ebp]
	push	ecx
	mov	ecx, DWORD PTR _view$[ebp]
	call	?GetOrigin@matrix4x4@@QBE?AVVector@@XZ	; matrix4x4::GetOrigin
	push	eax
	call	?DotProduct@@YAMABVVector@@0@Z		; DotProduct
	add	esp, 8
	fstp	DWORD PTR _orgOffset$[ebp]

; 87   : 
; 88   : 	SetPlane( FRUSTUM_FAR, -view.GetForward(), -flZNear - orgOffset );

	movss	xmm0, DWORD PTR _flZNear$[ebp]
	xorps	xmm0, DWORD PTR __xmm@80000000800000008000000080000000
	subss	xmm0, DWORD PTR _orgOffset$[ebp]
	push	ecx
	movss	DWORD PTR [esp], xmm0
	lea	eax, DWORD PTR $T12[ebp]
	push	eax
	lea	ecx, DWORD PTR $T13[ebp]
	push	ecx
	mov	ecx, DWORD PTR _view$[ebp]
	call	?GetForward@matrix4x4@@QBE?AVVector@@XZ	; matrix4x4::GetForward
	mov	ecx, eax
	call	??GVector@@QBE?AV0@XZ			; Vector::operator-
	push	eax
	push	4
	mov	ecx, DWORD PTR _this$[ebp]
	call	?SetPlane@CFrustum@@QAEXHABVVector@@M@Z	; CFrustum::SetPlane

; 89   : 	SetPlane( FRUSTUM_NEAR, view.GetForward(), flZFar + orgOffset );

	movss	xmm0, DWORD PTR _flZFar$[ebp]
	addss	xmm0, DWORD PTR _orgOffset$[ebp]
	push	ecx
	movss	DWORD PTR [esp], xmm0
	lea	eax, DWORD PTR $T11[ebp]
	push	eax
	mov	ecx, DWORD PTR _view$[ebp]
	call	?GetForward@matrix4x4@@QBE?AVVector@@XZ	; matrix4x4::GetForward
	push	eax
	push	5
	mov	ecx, DWORD PTR _this$[ebp]
	call	?SetPlane@CFrustum@@QAEXHABVVector@@M@Z	; CFrustum::SetPlane

; 90   : 
; 91   : 	// setup left and right planes
; 92   : 	orgOffset = DotProduct( view.GetOrigin(), view.GetRight() );

	lea	eax, DWORD PTR $T10[ebp]
	push	eax
	mov	ecx, DWORD PTR _view$[ebp]
	call	?GetRight@matrix4x4@@QBE?AVVector@@XZ	; matrix4x4::GetRight
	push	eax
	lea	ecx, DWORD PTR $T9[ebp]
	push	ecx
	mov	ecx, DWORD PTR _view$[ebp]
	call	?GetOrigin@matrix4x4@@QBE?AVVector@@XZ	; matrix4x4::GetOrigin
	push	eax
	call	?DotProduct@@YAMABVVector@@0@Z		; DotProduct
	add	esp, 8
	fstp	DWORD PTR _orgOffset$[ebp]

; 93   : 
; 94   : 	SetPlane( FRUSTUM_LEFT, view.GetRight(), xLeft + orgOffset );

	movss	xmm0, DWORD PTR _xLeft$[ebp]
	addss	xmm0, DWORD PTR _orgOffset$[ebp]
	push	ecx
	movss	DWORD PTR [esp], xmm0
	lea	eax, DWORD PTR $T8[ebp]
	push	eax
	mov	ecx, DWORD PTR _view$[ebp]
	call	?GetRight@matrix4x4@@QBE?AVVector@@XZ	; matrix4x4::GetRight
	push	eax
	push	0
	mov	ecx, DWORD PTR _this$[ebp]
	call	?SetPlane@CFrustum@@QAEXHABVVector@@M@Z	; CFrustum::SetPlane

; 95   : 	SetPlane( FRUSTUM_RIGHT, -view.GetRight(), -xRight - orgOffset );

	movss	xmm0, DWORD PTR _xRight$[ebp]
	xorps	xmm0, DWORD PTR __xmm@80000000800000008000000080000000
	subss	xmm0, DWORD PTR _orgOffset$[ebp]
	push	ecx
	movss	DWORD PTR [esp], xmm0
	lea	eax, DWORD PTR $T6[ebp]
	push	eax
	lea	ecx, DWORD PTR $T7[ebp]
	push	ecx
	mov	ecx, DWORD PTR _view$[ebp]
	call	?GetRight@matrix4x4@@QBE?AVVector@@XZ	; matrix4x4::GetRight
	mov	ecx, eax
	call	??GVector@@QBE?AV0@XZ			; Vector::operator-
	push	eax
	push	1
	mov	ecx, DWORD PTR _this$[ebp]
	call	?SetPlane@CFrustum@@QAEXHABVVector@@M@Z	; CFrustum::SetPlane

; 96   : 
; 97   : 	// setup top and buttom planes
; 98   : 	orgOffset = DotProduct( view.GetOrigin(), view.GetUp() );

	lea	eax, DWORD PTR $T5[ebp]
	push	eax
	mov	ecx, DWORD PTR _view$[ebp]
	call	?GetUp@matrix4x4@@QBE?AVVector@@XZ	; matrix4x4::GetUp
	push	eax
	lea	ecx, DWORD PTR $T4[ebp]
	push	ecx
	mov	ecx, DWORD PTR _view$[ebp]
	call	?GetOrigin@matrix4x4@@QBE?AVVector@@XZ	; matrix4x4::GetOrigin
	push	eax
	call	?DotProduct@@YAMABVVector@@0@Z		; DotProduct
	add	esp, 8
	fstp	DWORD PTR _orgOffset$[ebp]

; 99   : 
; 100  : 	SetPlane( FRUSTUM_TOP, view.GetUp(), yTop + orgOffset );

	movss	xmm0, DWORD PTR _yTop$[ebp]
	addss	xmm0, DWORD PTR _orgOffset$[ebp]
	push	ecx
	movss	DWORD PTR [esp], xmm0
	lea	eax, DWORD PTR $T3[ebp]
	push	eax
	mov	ecx, DWORD PTR _view$[ebp]
	call	?GetUp@matrix4x4@@QBE?AVVector@@XZ	; matrix4x4::GetUp
	push	eax
	push	3
	mov	ecx, DWORD PTR _this$[ebp]
	call	?SetPlane@CFrustum@@QAEXHABVVector@@M@Z	; CFrustum::SetPlane

; 101  : 	SetPlane( FRUSTUM_BOTTOM, -view.GetUp(), -yBottom - orgOffset );

	movss	xmm0, DWORD PTR _yBottom$[ebp]
	xorps	xmm0, DWORD PTR __xmm@80000000800000008000000080000000
	subss	xmm0, DWORD PTR _orgOffset$[ebp]
	push	ecx
	movss	DWORD PTR [esp], xmm0
	lea	eax, DWORD PTR $T1[ebp]
	push	eax
	lea	ecx, DWORD PTR $T2[ebp]
	push	ecx
	mov	ecx, DWORD PTR _view$[ebp]
	call	?GetUp@matrix4x4@@QBE?AVVector@@XZ	; matrix4x4::GetUp
	mov	ecx, eax
	call	??GVector@@QBE?AV0@XZ			; Vector::operator-
	push	eax
	push	2
	mov	ecx, DWORD PTR _this$[ebp]
	call	?SetPlane@CFrustum@@QAEXHABVVector@@M@Z	; CFrustum::SetPlane

; 102  : }

	pop	edi
	pop	esi
	pop	ebx
	mov	esp, ebp
	pop	ebp
	ret	28					; 0000001cH
?InitOrthogonal@CFrustum@@QAEXABVmatrix4x4@@MMMMMM@Z ENDP ; CFrustum::InitOrthogonal
_TEXT	ENDS
; Function compile flags: /Odtp /ZI
; File d:\!diffusion 2020\source code 2022\client-server\client\render\r_frustum.cpp
;	COMDAT ?InitProjection@CFrustum@@QAEXABVmatrix4x4@@MMMM@Z
_TEXT	SEGMENT
$T1 = -544						; size = 12
$T2 = -532						; size = 12
$T3 = -520						; size = 12
$T4 = -508						; size = 12
$T5 = -496						; size = 12
$T6 = -484						; size = 12
$T7 = -472						; size = 12
$T8 = -460						; size = 12
$T9 = -448						; size = 12
$T10 = -436						; size = 12
$T11 = -424						; size = 12
$T12 = -412						; size = 12
$T13 = -400						; size = 12
$T14 = -388						; size = 12
$T15 = -376						; size = 12
$T16 = -364						; size = 12
$T17 = -352						; size = 12
$T18 = -340						; size = 12
$T19 = -328						; size = 12
$T20 = -316						; size = 12
$T21 = -304						; size = 12
$T22 = -292						; size = 12
$T23 = -280						; size = 12
$T24 = -268						; size = 12
$T25 = -256						; size = 12
$T26 = -244						; size = 12
$T27 = -232						; size = 12
$T28 = -220						; size = 12
$T29 = -208						; size = 12
$T30 = -196						; size = 12
$T31 = -184						; size = 12
$T32 = -172						; size = 12
$T33 = -160						; size = 12
$T34 = -148						; size = 12
$T35 = -136						; size = 12
$T36 = -124						; size = 12
$T37 = -112						; size = 12
$T38 = -100						; size = 12
_normal$ = -24						; size = 12
_xc$ = -12						; size = 4
_xs$ = -8						; size = 4
_this$ = -4						; size = 4
_view$ = 8						; size = 4
_flZNear$ = 12						; size = 4
_flZFar$ = 16						; size = 4
_flFovX$ = 20						; size = 4
_flFovY$ = 24						; size = 4
?InitProjection@CFrustum@@QAEXABVmatrix4x4@@MMMM@Z PROC	; CFrustum::InitProjection, COMDAT
; _this$ = ecx

; 47   : {

	push	ebp
	mov	ebp, esp
	sub	esp, 544				; 00000220H
	push	ebx
	push	esi
	push	edi
	mov	DWORD PTR _this$[ebp], ecx

; 48   : 	float	xs, xc;
; 49   : 	Vector	normal;	

	lea	ecx, DWORD PTR _normal$[ebp]
	call	??0Vector@@QAE@XZ			; Vector::Vector

; 50   : 
; 51   : 	// horizontal fov used for left and right planes
; 52   : 	SinCos( DEG2RAD( flFovX ) * 0.5f, &xs, &xc );

	lea	eax, DWORD PTR _xc$[ebp]
	push	eax
	lea	ecx, DWORD PTR _xs$[ebp]
	push	ecx
	movss	xmm0, DWORD PTR _flFovX$[ebp]
	mulss	xmm0, DWORD PTR __real@3c8efa35
	mulss	xmm0, DWORD PTR __real@3f000000
	push	ecx
	movss	DWORD PTR [esp], xmm0
	call	?SinCos@@YAXMPAM0@Z			; SinCos
	add	esp, 12					; 0000000cH

; 53   : 
; 54   : 	// setup left plane
; 55   : 	normal = view.GetForward() * xs + view.GetRight() * -xc;

	movss	xmm0, DWORD PTR _xc$[ebp]
	xorps	xmm0, DWORD PTR __xmm@80000000800000008000000080000000
	push	ecx
	movss	DWORD PTR [esp], xmm0
	lea	eax, DWORD PTR $T35[ebp]
	push	eax
	lea	ecx, DWORD PTR $T36[ebp]
	push	ecx
	mov	ecx, DWORD PTR _view$[ebp]
	call	?GetRight@matrix4x4@@QBE?AVVector@@XZ	; matrix4x4::GetRight
	mov	ecx, eax
	call	??DVector@@QBE?AV0@M@Z			; Vector::operator*
	push	eax
	lea	edx, DWORD PTR $T34[ebp]
	push	edx
	push	ecx
	movss	xmm0, DWORD PTR _xs$[ebp]
	movss	DWORD PTR [esp], xmm0
	lea	eax, DWORD PTR $T37[ebp]
	push	eax
	lea	ecx, DWORD PTR $T38[ebp]
	push	ecx
	mov	ecx, DWORD PTR _view$[ebp]
	call	?GetForward@matrix4x4@@QBE?AVVector@@XZ	; matrix4x4::GetForward
	mov	ecx, eax
	call	??DVector@@QBE?AV0@M@Z			; Vector::operator*
	mov	ecx, eax
	call	??HVector@@QBE?AV0@ABV0@@Z		; Vector::operator+
	mov	edx, DWORD PTR [eax]
	mov	DWORD PTR _normal$[ebp], edx
	mov	ecx, DWORD PTR [eax+4]
	mov	DWORD PTR _normal$[ebp+4], ecx
	mov	edx, DWORD PTR [eax+8]
	mov	DWORD PTR _normal$[ebp+8], edx

; 56   : 	SetPlane( FRUSTUM_LEFT, normal, DotProduct( view.GetOrigin(), normal ));

	lea	eax, DWORD PTR _normal$[ebp]
	push	eax
	lea	ecx, DWORD PTR $T33[ebp]
	push	ecx
	mov	ecx, DWORD PTR _view$[ebp]
	call	?GetOrigin@matrix4x4@@QBE?AVVector@@XZ	; matrix4x4::GetOrigin
	push	eax
	call	?DotProduct@@YAMABVVector@@0@Z		; DotProduct
	add	esp, 4
	fstp	DWORD PTR [esp]
	lea	edx, DWORD PTR _normal$[ebp]
	push	edx
	push	0
	mov	ecx, DWORD PTR _this$[ebp]
	call	?SetPlane@CFrustum@@QAEXHABVVector@@M@Z	; CFrustum::SetPlane

; 57   : 
; 58   : 	// setup right plane
; 59   : 	normal = view.GetForward() * xs + view.GetRight() * xc;

	push	ecx
	movss	xmm0, DWORD PTR _xc$[ebp]
	movss	DWORD PTR [esp], xmm0
	lea	eax, DWORD PTR $T29[ebp]
	push	eax
	lea	ecx, DWORD PTR $T30[ebp]
	push	ecx
	mov	ecx, DWORD PTR _view$[ebp]
	call	?GetRight@matrix4x4@@QBE?AVVector@@XZ	; matrix4x4::GetRight
	mov	ecx, eax
	call	??DVector@@QBE?AV0@M@Z			; Vector::operator*
	push	eax
	lea	edx, DWORD PTR $T28[ebp]
	push	edx
	push	ecx
	movss	xmm0, DWORD PTR _xs$[ebp]
	movss	DWORD PTR [esp], xmm0
	lea	eax, DWORD PTR $T31[ebp]
	push	eax
	lea	ecx, DWORD PTR $T32[ebp]
	push	ecx
	mov	ecx, DWORD PTR _view$[ebp]
	call	?GetForward@matrix4x4@@QBE?AVVector@@XZ	; matrix4x4::GetForward
	mov	ecx, eax
	call	??DVector@@QBE?AV0@M@Z			; Vector::operator*
	mov	ecx, eax
	call	??HVector@@QBE?AV0@ABV0@@Z		; Vector::operator+
	mov	edx, DWORD PTR [eax]
	mov	DWORD PTR _normal$[ebp], edx
	mov	ecx, DWORD PTR [eax+4]
	mov	DWORD PTR _normal$[ebp+4], ecx
	mov	edx, DWORD PTR [eax+8]
	mov	DWORD PTR _normal$[ebp+8], edx

; 60   : 	SetPlane( FRUSTUM_RIGHT, normal, DotProduct( view.GetOrigin(), normal ));

	lea	eax, DWORD PTR _normal$[ebp]
	push	eax
	lea	ecx, DWORD PTR $T27[ebp]
	push	ecx
	mov	ecx, DWORD PTR _view$[ebp]
	call	?GetOrigin@matrix4x4@@QBE?AVVector@@XZ	; matrix4x4::GetOrigin
	push	eax
	call	?DotProduct@@YAMABVVector@@0@Z		; DotProduct
	add	esp, 4
	fstp	DWORD PTR [esp]
	lea	edx, DWORD PTR _normal$[ebp]
	push	edx
	push	1
	mov	ecx, DWORD PTR _this$[ebp]
	call	?SetPlane@CFrustum@@QAEXHABVVector@@M@Z	; CFrustum::SetPlane

; 61   : 
; 62   : 	// vertical fov used for top and bottom planes
; 63   : 	SinCos( DEG2RAD( flFovY ) * 0.5f, &xs, &xc );

	lea	eax, DWORD PTR _xc$[ebp]
	push	eax
	lea	ecx, DWORD PTR _xs$[ebp]
	push	ecx
	movss	xmm0, DWORD PTR _flFovY$[ebp]
	mulss	xmm0, DWORD PTR __real@3c8efa35
	mulss	xmm0, DWORD PTR __real@3f000000
	push	ecx
	movss	DWORD PTR [esp], xmm0
	call	?SinCos@@YAXMPAM0@Z			; SinCos
	add	esp, 12					; 0000000cH

; 64   : 
; 65   : 	// setup bottom plane
; 66   : 	normal = view.GetForward() * xs + view.GetUp() * -xc;

	movss	xmm0, DWORD PTR _xc$[ebp]
	xorps	xmm0, DWORD PTR __xmm@80000000800000008000000080000000
	push	ecx
	movss	DWORD PTR [esp], xmm0
	lea	eax, DWORD PTR $T23[ebp]
	push	eax
	lea	ecx, DWORD PTR $T24[ebp]
	push	ecx
	mov	ecx, DWORD PTR _view$[ebp]
	call	?GetUp@matrix4x4@@QBE?AVVector@@XZ	; matrix4x4::GetUp
	mov	ecx, eax
	call	??DVector@@QBE?AV0@M@Z			; Vector::operator*
	push	eax
	lea	edx, DWORD PTR $T22[ebp]
	push	edx
	push	ecx
	movss	xmm0, DWORD PTR _xs$[ebp]
	movss	DWORD PTR [esp], xmm0
	lea	eax, DWORD PTR $T25[ebp]
	push	eax
	lea	ecx, DWORD PTR $T26[ebp]
	push	ecx
	mov	ecx, DWORD PTR _view$[ebp]
	call	?GetForward@matrix4x4@@QBE?AVVector@@XZ	; matrix4x4::GetForward
	mov	ecx, eax
	call	??DVector@@QBE?AV0@M@Z			; Vector::operator*
	mov	ecx, eax
	call	??HVector@@QBE?AV0@ABV0@@Z		; Vector::operator+
	mov	edx, DWORD PTR [eax]
	mov	DWORD PTR _normal$[ebp], edx
	mov	ecx, DWORD PTR [eax+4]
	mov	DWORD PTR _normal$[ebp+4], ecx
	mov	edx, DWORD PTR [eax+8]
	mov	DWORD PTR _normal$[ebp+8], edx

; 67   : 	SetPlane( FRUSTUM_BOTTOM, normal, DotProduct( view.GetOrigin(), normal ));

	lea	eax, DWORD PTR _normal$[ebp]
	push	eax
	lea	ecx, DWORD PTR $T21[ebp]
	push	ecx
	mov	ecx, DWORD PTR _view$[ebp]
	call	?GetOrigin@matrix4x4@@QBE?AVVector@@XZ	; matrix4x4::GetOrigin
	push	eax
	call	?DotProduct@@YAMABVVector@@0@Z		; DotProduct
	add	esp, 4
	fstp	DWORD PTR [esp]
	lea	edx, DWORD PTR _normal$[ebp]
	push	edx
	push	2
	mov	ecx, DWORD PTR _this$[ebp]
	call	?SetPlane@CFrustum@@QAEXHABVVector@@M@Z	; CFrustum::SetPlane

; 68   : 
; 69   : 	// setup top plane
; 70   : 	normal = view.GetForward() * xs + view.GetUp() * xc;

	push	ecx
	movss	xmm0, DWORD PTR _xc$[ebp]
	movss	DWORD PTR [esp], xmm0
	lea	eax, DWORD PTR $T17[ebp]
	push	eax
	lea	ecx, DWORD PTR $T18[ebp]
	push	ecx
	mov	ecx, DWORD PTR _view$[ebp]
	call	?GetUp@matrix4x4@@QBE?AVVector@@XZ	; matrix4x4::GetUp
	mov	ecx, eax
	call	??DVector@@QBE?AV0@M@Z			; Vector::operator*
	push	eax
	lea	edx, DWORD PTR $T16[ebp]
	push	edx
	push	ecx
	movss	xmm0, DWORD PTR _xs$[ebp]
	movss	DWORD PTR [esp], xmm0
	lea	eax, DWORD PTR $T19[ebp]
	push	eax
	lea	ecx, DWORD PTR $T20[ebp]
	push	ecx
	mov	ecx, DWORD PTR _view$[ebp]
	call	?GetForward@matrix4x4@@QBE?AVVector@@XZ	; matrix4x4::GetForward
	mov	ecx, eax
	call	??DVector@@QBE?AV0@M@Z			; Vector::operator*
	mov	ecx, eax
	call	??HVector@@QBE?AV0@ABV0@@Z		; Vector::operator+
	mov	edx, DWORD PTR [eax]
	mov	DWORD PTR _normal$[ebp], edx
	mov	ecx, DWORD PTR [eax+4]
	mov	DWORD PTR _normal$[ebp+4], ecx
	mov	edx, DWORD PTR [eax+8]
	mov	DWORD PTR _normal$[ebp+8], edx

; 71   : 	SetPlane( FRUSTUM_TOP, normal, DotProduct( view.GetOrigin(), normal ));

	lea	eax, DWORD PTR _normal$[ebp]
	push	eax
	lea	ecx, DWORD PTR $T15[ebp]
	push	ecx
	mov	ecx, DWORD PTR _view$[ebp]
	call	?GetOrigin@matrix4x4@@QBE?AVVector@@XZ	; matrix4x4::GetOrigin
	push	eax
	call	?DotProduct@@YAMABVVector@@0@Z		; DotProduct
	add	esp, 4
	fstp	DWORD PTR [esp]
	lea	edx, DWORD PTR _normal$[ebp]
	push	edx
	push	3
	mov	ecx, DWORD PTR _this$[ebp]
	call	?SetPlane@CFrustum@@QAEXHABVVector@@M@Z	; CFrustum::SetPlane

; 72   : 
; 73   : 	// setup far plane
; 74   : 	SetPlane( FRUSTUM_FAR, -view.GetForward(), DotProduct( -view.GetForward(), ( view.GetOrigin() + view.GetForward() * flZFar )));

	push	ecx
	movss	xmm0, DWORD PTR _flZFar$[ebp]
	movss	DWORD PTR [esp], xmm0
	lea	eax, DWORD PTR $T12[ebp]
	push	eax
	lea	ecx, DWORD PTR $T13[ebp]
	push	ecx
	mov	ecx, DWORD PTR _view$[ebp]
	call	?GetForward@matrix4x4@@QBE?AVVector@@XZ	; matrix4x4::GetForward
	mov	ecx, eax
	call	??DVector@@QBE?AV0@M@Z			; Vector::operator*
	push	eax
	lea	edx, DWORD PTR $T11[ebp]
	push	edx
	lea	eax, DWORD PTR $T14[ebp]
	push	eax
	mov	ecx, DWORD PTR _view$[ebp]
	call	?GetOrigin@matrix4x4@@QBE?AVVector@@XZ	; matrix4x4::GetOrigin
	mov	ecx, eax
	call	??HVector@@QBE?AV0@ABV0@@Z		; Vector::operator+
	push	eax
	lea	ecx, DWORD PTR $T9[ebp]
	push	ecx
	lea	edx, DWORD PTR $T10[ebp]
	push	edx
	mov	ecx, DWORD PTR _view$[ebp]
	call	?GetForward@matrix4x4@@QBE?AVVector@@XZ	; matrix4x4::GetForward
	mov	ecx, eax
	call	??GVector@@QBE?AV0@XZ			; Vector::operator-
	push	eax
	call	?DotProduct@@YAMABVVector@@0@Z		; DotProduct
	add	esp, 4
	fstp	DWORD PTR [esp]
	lea	eax, DWORD PTR $T7[ebp]
	push	eax
	lea	ecx, DWORD PTR $T8[ebp]
	push	ecx
	mov	ecx, DWORD PTR _view$[ebp]
	call	?GetForward@matrix4x4@@QBE?AVVector@@XZ	; matrix4x4::GetForward
	mov	ecx, eax
	call	??GVector@@QBE?AV0@XZ			; Vector::operator-
	push	eax
	push	4
	mov	ecx, DWORD PTR _this$[ebp]
	call	?SetPlane@CFrustum@@QAEXHABVVector@@M@Z	; CFrustum::SetPlane

; 75   : 
; 76   : 	// no need to setup backplane for general view. It's only used for portals and mirrors
; 77   : 	if( flZNear == 0.0f ) return;

	movss	xmm0, DWORD PTR _flZNear$[ebp]
	ucomiss	xmm0, DWORD PTR __real@00000000
	lahf
	test	ah, 68					; 00000044H
	jp	SHORT $LN2@InitProjec
	jmp	SHORT $LN1@InitProjec
$LN2@InitProjec:

; 78   : 
; 79   : 	// setup near plane
; 80   : 	SetPlane( FRUSTUM_NEAR, view.GetForward(), DotProduct( view.GetForward(), ( view.GetOrigin() + view.GetForward() * flZNear )));

	push	ecx
	movss	xmm0, DWORD PTR _flZNear$[ebp]
	movss	DWORD PTR [esp], xmm0
	lea	eax, DWORD PTR $T4[ebp]
	push	eax
	lea	ecx, DWORD PTR $T5[ebp]
	push	ecx
	mov	ecx, DWORD PTR _view$[ebp]
	call	?GetForward@matrix4x4@@QBE?AVVector@@XZ	; matrix4x4::GetForward
	mov	ecx, eax
	call	??DVector@@QBE?AV0@M@Z			; Vector::operator*
	push	eax
	lea	edx, DWORD PTR $T3[ebp]
	push	edx
	lea	eax, DWORD PTR $T6[ebp]
	push	eax
	mov	ecx, DWORD PTR _view$[ebp]
	call	?GetOrigin@matrix4x4@@QBE?AVVector@@XZ	; matrix4x4::GetOrigin
	mov	ecx, eax
	call	??HVector@@QBE?AV0@ABV0@@Z		; Vector::operator+
	push	eax
	lea	ecx, DWORD PTR $T2[ebp]
	push	ecx
	mov	ecx, DWORD PTR _view$[ebp]
	call	?GetForward@matrix4x4@@QBE?AVVector@@XZ	; matrix4x4::GetForward
	push	eax
	call	?DotProduct@@YAMABVVector@@0@Z		; DotProduct
	add	esp, 4
	fstp	DWORD PTR [esp]
	lea	edx, DWORD PTR $T1[ebp]
	push	edx
	mov	ecx, DWORD PTR _view$[ebp]
	call	?GetForward@matrix4x4@@QBE?AVVector@@XZ	; matrix4x4::GetForward
	push	eax
	push	5
	mov	ecx, DWORD PTR _this$[ebp]
	call	?SetPlane@CFrustum@@QAEXHABVVector@@M@Z	; CFrustum::SetPlane
$LN1@InitProjec:

; 81   : }

	pop	edi
	pop	esi
	pop	ebx
	mov	esp, ebp
	pop	ebp
	ret	20					; 00000014H
?InitProjection@CFrustum@@QAEXABVmatrix4x4@@MMMM@Z ENDP	; CFrustum::InitProjection
_TEXT	ENDS
; Function compile flags: /Odtp /ZI
; File d:\!diffusion 2020\source code 2022\client-server\game_shared\matrix.h
;	COMDAT ?GetOrigin@matrix4x4@@QBE?AVVector@@XZ
_TEXT	SEGMENT
$T1 = -80						; size = 12
_this$ = -4						; size = 4
___$ReturnUdt$ = 8					; size = 4
?GetOrigin@matrix4x4@@QBE?AVVector@@XZ PROC		; matrix4x4::GetOrigin, COMDAT
; _this$ = ecx

; 980  : 	Vector	GetOrigin() const { return mat[3]; };

	push	ebp
	mov	ebp, esp
	sub	esp, 80					; 00000050H
	push	ebx
	push	esi
	push	edi
	mov	DWORD PTR _this$[ebp], ecx
	lea	eax, DWORD PTR $T1[ebp]
	push	eax
	mov	ecx, 16					; 00000010H
	imul	ecx, ecx, 3
	add	ecx, DWORD PTR _this$[ebp]
	call	??BVector4D@@QBE?BVVector@@XZ		; Vector4D::operator Vector const 
	lea	edx, DWORD PTR $T1[ebp]
	push	edx
	mov	ecx, DWORD PTR ___$ReturnUdt$[ebp]
	call	??0Vector@@QAE@ABV0@@Z			; Vector::Vector
	mov	eax, DWORD PTR ___$ReturnUdt$[ebp]
	pop	edi
	pop	esi
	pop	ebx
	mov	esp, ebp
	pop	ebp
	ret	4
?GetOrigin@matrix4x4@@QBE?AVVector@@XZ ENDP		; matrix4x4::GetOrigin
_TEXT	ENDS
; Function compile flags: /Odtp /ZI
; File d:\!diffusion 2020\source code 2022\client-server\game_shared\matrix.h
;	COMDAT ?GetUp@matrix4x4@@QBE?AVVector@@XZ
_TEXT	SEGMENT
$T1 = -80						; size = 12
_this$ = -4						; size = 4
___$ReturnUdt$ = 8					; size = 4
?GetUp@matrix4x4@@QBE?AVVector@@XZ PROC			; matrix4x4::GetUp, COMDAT
; _this$ = ecx

; 978  : 	Vector	GetUp() const { return mat[2]; };

	push	ebp
	mov	ebp, esp
	sub	esp, 80					; 00000050H
	push	ebx
	push	esi
	push	edi
	mov	DWORD PTR _this$[ebp], ecx
	lea	eax, DWORD PTR $T1[ebp]
	push	eax
	mov	ecx, 16					; 00000010H
	shl	ecx, 1
	add	ecx, DWORD PTR _this$[ebp]
	call	??BVector4D@@QBE?BVVector@@XZ		; Vector4D::operator Vector const 
	lea	ecx, DWORD PTR $T1[ebp]
	push	ecx
	mov	ecx, DWORD PTR ___$ReturnUdt$[ebp]
	call	??0Vector@@QAE@ABV0@@Z			; Vector::Vector
	mov	eax, DWORD PTR ___$ReturnUdt$[ebp]
	pop	edi
	pop	esi
	pop	ebx
	mov	esp, ebp
	pop	ebp
	ret	4
?GetUp@matrix4x4@@QBE?AVVector@@XZ ENDP			; matrix4x4::GetUp
_TEXT	ENDS
; Function compile flags: /Odtp /ZI
; File d:\!diffusion 2020\source code 2022\client-server\game_shared\matrix.h
;	COMDAT ?GetRight@matrix4x4@@QBE?AVVector@@XZ
_TEXT	SEGMENT
$T1 = -80						; size = 12
_this$ = -4						; size = 4
___$ReturnUdt$ = 8					; size = 4
?GetRight@matrix4x4@@QBE?AVVector@@XZ PROC		; matrix4x4::GetRight, COMDAT
; _this$ = ecx

; 977  : 	Vector	GetRight() const { return mat[1]; };

	push	ebp
	mov	ebp, esp
	sub	esp, 80					; 00000050H
	push	ebx
	push	esi
	push	edi
	mov	DWORD PTR _this$[ebp], ecx
	lea	eax, DWORD PTR $T1[ebp]
	push	eax
	mov	ecx, 16					; 00000010H
	shl	ecx, 0
	add	ecx, DWORD PTR _this$[ebp]
	call	??BVector4D@@QBE?BVVector@@XZ		; Vector4D::operator Vector const 
	lea	ecx, DWORD PTR $T1[ebp]
	push	ecx
	mov	ecx, DWORD PTR ___$ReturnUdt$[ebp]
	call	??0Vector@@QAE@ABV0@@Z			; Vector::Vector
	mov	eax, DWORD PTR ___$ReturnUdt$[ebp]
	pop	edi
	pop	esi
	pop	ebx
	mov	esp, ebp
	pop	ebp
	ret	4
?GetRight@matrix4x4@@QBE?AVVector@@XZ ENDP		; matrix4x4::GetRight
_TEXT	ENDS
; Function compile flags: /Odtp /ZI
; File d:\!diffusion 2020\source code 2022\client-server\game_shared\matrix.h
;	COMDAT ?GetForward@matrix4x4@@QBE?AVVector@@XZ
_TEXT	SEGMENT
$T1 = -80						; size = 12
_this$ = -4						; size = 4
___$ReturnUdt$ = 8					; size = 4
?GetForward@matrix4x4@@QBE?AVVector@@XZ PROC		; matrix4x4::GetForward, COMDAT
; _this$ = ecx

; 976  : 	Vector	GetForward() const { return mat[0]; };

	push	ebp
	mov	ebp, esp
	sub	esp, 80					; 00000050H
	push	ebx
	push	esi
	push	edi
	mov	DWORD PTR _this$[ebp], ecx
	lea	eax, DWORD PTR $T1[ebp]
	push	eax
	mov	ecx, 16					; 00000010H
	imul	ecx, ecx, 0
	add	ecx, DWORD PTR _this$[ebp]
	call	??BVector4D@@QBE?BVVector@@XZ		; Vector4D::operator Vector const 
	lea	edx, DWORD PTR $T1[ebp]
	push	edx
	mov	ecx, DWORD PTR ___$ReturnUdt$[ebp]
	call	??0Vector@@QAE@ABV0@@Z			; Vector::Vector
	mov	eax, DWORD PTR ___$ReturnUdt$[ebp]
	pop	edi
	pop	esi
	pop	ebx
	mov	esp, ebp
	pop	ebp
	ret	4
?GetForward@matrix4x4@@QBE?AVVector@@XZ ENDP		; matrix4x4::GetForward
_TEXT	ENDS
; Function compile flags: /Odtp /ZI
; File d:\!diffusion 2020\source code 2022\client-server\game_shared\matrix.h
;	COMDAT ??Amatrix4x4@@QBEPBMH@Z
_TEXT	SEGMENT
_this$ = -4						; size = 4
_i$ = 8							; size = 4
??Amatrix4x4@@QBEPBMH@Z PROC				; matrix4x4::operator[], COMDAT
; _this$ = ecx

; 953  : 	float const* operator[]( int i ) const { return mat[i]; }

	push	ebp
	mov	ebp, esp
	sub	esp, 68					; 00000044H
	push	ebx
	push	esi
	push	edi
	mov	DWORD PTR _this$[ebp], ecx
	mov	ecx, DWORD PTR _i$[ebp]
	shl	ecx, 4
	add	ecx, DWORD PTR _this$[ebp]
	call	??BVector4D@@QBEPBMXZ			; Vector4D::operator float const *
	pop	edi
	pop	esi
	pop	ebx
	mov	esp, ebp
	pop	ebp
	ret	4
??Amatrix4x4@@QBEPBMH@Z ENDP				; matrix4x4::operator[]
_TEXT	ENDS
; Function compile flags: /Odtp /ZI
; File d:\!diffusion 2020\source code 2022\client-server\game_shared\vector.h
;	COMDAT ??BVector4D@@QBE?BVVector@@XZ
_TEXT	SEGMENT
_this$ = -4						; size = 4
___$ReturnUdt$ = 8					; size = 4
??BVector4D@@QBE?BVVector@@XZ PROC			; Vector4D::operator Vector const , COMDAT
; _this$ = ecx

; 349  : 	operator const Vector() const				{ return Vector( x, y, z ); } 

	push	ebp
	mov	ebp, esp
	sub	esp, 68					; 00000044H
	push	ebx
	push	esi
	push	edi
	mov	DWORD PTR _this$[ebp], ecx
	mov	eax, DWORD PTR _this$[ebp]
	push	ecx
	movss	xmm0, DWORD PTR [eax+8]
	movss	DWORD PTR [esp], xmm0
	mov	ecx, DWORD PTR _this$[ebp]
	push	ecx
	movss	xmm0, DWORD PTR [ecx+4]
	movss	DWORD PTR [esp], xmm0
	mov	edx, DWORD PTR _this$[ebp]
	push	ecx
	movss	xmm0, DWORD PTR [edx]
	movss	DWORD PTR [esp], xmm0
	mov	ecx, DWORD PTR ___$ReturnUdt$[ebp]
	call	??0Vector@@QAE@MMM@Z			; Vector::Vector
	mov	eax, DWORD PTR ___$ReturnUdt$[ebp]
	pop	edi
	pop	esi
	pop	ebx
	mov	esp, ebp
	pop	ebp
	ret	4
??BVector4D@@QBE?BVVector@@XZ ENDP			; Vector4D::operator Vector const 
_TEXT	ENDS
; Function compile flags: /Odtp /ZI
; File d:\!diffusion 2020\source code 2022\client-server\game_shared\vector.h
;	COMDAT ??BVector4D@@QBEPBMXZ
_TEXT	SEGMENT
_this$ = -4						; size = 4
??BVector4D@@QBEPBMXZ PROC				; Vector4D::operator float const *, COMDAT
; _this$ = ecx

; 345  : 	operator const float *() const			{ return &x; } 

	push	ebp
	mov	ebp, esp
	sub	esp, 68					; 00000044H
	push	ebx
	push	esi
	push	edi
	mov	DWORD PTR _this$[ebp], ecx
	mov	eax, DWORD PTR _this$[ebp]
	pop	edi
	pop	esi
	pop	ebx
	mov	esp, ebp
	pop	ebp
	ret	0
??BVector4D@@QBEPBMXZ ENDP				; Vector4D::operator float const *
_TEXT	ENDS
; Function compile flags: /Odtp /ZI
; File d:\!diffusion 2020\source code 2022\client-server\game_shared\vector.h
;	COMDAT ?DotProduct@@YAMABVVector@@0@Z
_TEXT	SEGMENT
tv86 = -68						; size = 4
_a$ = 8							; size = 4
_b$ = 12						; size = 4
?DotProduct@@YAMABVVector@@0@Z PROC			; DotProduct, COMDAT

; 308  : inline float DotProduct(const Vector& a, const Vector& b ) { return( a.x * b.x + a.y * b.y + a.z * b.z ); }

	push	ebp
	mov	ebp, esp
	sub	esp, 68					; 00000044H
	push	ebx
	push	esi
	push	edi
	mov	eax, DWORD PTR _a$[ebp]
	mov	ecx, DWORD PTR _b$[ebp]
	movss	xmm0, DWORD PTR [eax]
	mulss	xmm0, DWORD PTR [ecx]
	mov	edx, DWORD PTR _a$[ebp]
	mov	eax, DWORD PTR _b$[ebp]
	movss	xmm1, DWORD PTR [edx+4]
	mulss	xmm1, DWORD PTR [eax+4]
	addss	xmm0, xmm1
	mov	ecx, DWORD PTR _a$[ebp]
	mov	edx, DWORD PTR _b$[ebp]
	movss	xmm1, DWORD PTR [ecx+8]
	mulss	xmm1, DWORD PTR [edx+8]
	addss	xmm0, xmm1
	movss	DWORD PTR tv86[ebp], xmm0
	fld	DWORD PTR tv86[ebp]
	pop	edi
	pop	esi
	pop	ebx
	mov	esp, ebp
	pop	ebp
	ret	0
?DotProduct@@YAMABVVector@@0@Z ENDP			; DotProduct
_TEXT	ENDS
; Function compile flags: /Odtp /ZI
; File d:\!diffusion 2020\source code 2022\client-server\game_shared\vector.h
;	COMDAT ??BVector@@QAEPAMXZ
_TEXT	SEGMENT
_this$ = -4						; size = 4
??BVector@@QAEPAMXZ PROC				; Vector::operator float *, COMDAT
; _this$ = ecx

; 247  : 	operator float *()				{ return &x; } // Vectors will now automatically convert to float * when needed

	push	ebp
	mov	ebp, esp
	sub	esp, 68					; 00000044H
	push	ebx
	push	esi
	push	edi
	mov	DWORD PTR _this$[ebp], ecx
	mov	eax, DWORD PTR _this$[ebp]
	pop	edi
	pop	esi
	pop	ebx
	mov	esp, ebp
	pop	ebp
	ret	0
??BVector@@QAEPAMXZ ENDP				; Vector::operator float *
_TEXT	ENDS
; Function compile flags: /Odtp /ZI
; File d:\!diffusion 2020\source code 2022\client-server\game_shared\vector.h
;	COMDAT ?Length@Vector@@QBEMXZ
_TEXT	SEGMENT
tv91 = -72						; size = 4
_this$ = -4						; size = 4
?Length@Vector@@QBEMXZ PROC				; Vector::Length, COMDAT
; _this$ = ecx

; 245  : 	inline float Length(void) const		{ return sqrt( x*x + y*y + z*z ); }

	push	ebp
	mov	ebp, esp
	sub	esp, 72					; 00000048H
	push	ebx
	push	esi
	push	edi
	mov	DWORD PTR _this$[ebp], ecx
	mov	eax, DWORD PTR _this$[ebp]
	mov	ecx, DWORD PTR _this$[ebp]
	movss	xmm0, DWORD PTR [eax]
	mulss	xmm0, DWORD PTR [ecx]
	mov	edx, DWORD PTR _this$[ebp]
	mov	eax, DWORD PTR _this$[ebp]
	movss	xmm1, DWORD PTR [edx+4]
	mulss	xmm1, DWORD PTR [eax+4]
	addss	xmm0, xmm1
	mov	ecx, DWORD PTR _this$[ebp]
	mov	edx, DWORD PTR _this$[ebp]
	movss	xmm1, DWORD PTR [ecx+8]
	mulss	xmm1, DWORD PTR [edx+8]
	addss	xmm0, xmm1
	cvtss2sd xmm0, xmm0
	sub	esp, 8
	movsd	QWORD PTR [esp], xmm0
	call	_sqrt
	add	esp, 8
	fstp	DWORD PTR tv91[ebp]
	fld	DWORD PTR tv91[ebp]
	pop	edi
	pop	esi
	pop	ebx
	mov	esp, ebp
	pop	ebp
	ret	0
?Length@Vector@@QBEMXZ ENDP				; Vector::Length
_TEXT	ENDS
; Function compile flags: /Odtp /ZI
; File d:\!diffusion 2020\source code 2022\client-server\game_shared\vector.h
;	COMDAT ??DVector@@QBE?AV0@M@Z
_TEXT	SEGMENT
_this$ = -4						; size = 4
___$ReturnUdt$ = 8					; size = 4
_fl$ = 12						; size = 4
??DVector@@QBE?AV0@M@Z PROC				; Vector::operator*, COMDAT
; _this$ = ecx

; 162  : 	inline Vector operator*(float fl) const		{ return Vector(x*fl, y*fl, z*fl);	   }

	push	ebp
	mov	ebp, esp
	sub	esp, 68					; 00000044H
	push	ebx
	push	esi
	push	edi
	mov	DWORD PTR _this$[ebp], ecx
	mov	eax, DWORD PTR _this$[ebp]
	movss	xmm0, DWORD PTR [eax+8]
	mulss	xmm0, DWORD PTR _fl$[ebp]
	push	ecx
	movss	DWORD PTR [esp], xmm0
	mov	ecx, DWORD PTR _this$[ebp]
	movss	xmm0, DWORD PTR [ecx+4]
	mulss	xmm0, DWORD PTR _fl$[ebp]
	push	ecx
	movss	DWORD PTR [esp], xmm0
	mov	edx, DWORD PTR _this$[ebp]
	movss	xmm0, DWORD PTR [edx]
	mulss	xmm0, DWORD PTR _fl$[ebp]
	push	ecx
	movss	DWORD PTR [esp], xmm0
	mov	ecx, DWORD PTR ___$ReturnUdt$[ebp]
	call	??0Vector@@QAE@MMM@Z			; Vector::Vector
	mov	eax, DWORD PTR ___$ReturnUdt$[ebp]
	pop	edi
	pop	esi
	pop	ebx
	mov	esp, ebp
	pop	ebp
	ret	8
??DVector@@QBE?AV0@M@Z ENDP				; Vector::operator*
_TEXT	ENDS
; Function compile flags: /Odtp /ZI
; File d:\!diffusion 2020\source code 2022\client-server\game_shared\vector.h
;	COMDAT ??HVector@@QBE?AV0@ABV0@@Z
_TEXT	SEGMENT
_this$ = -4						; size = 4
___$ReturnUdt$ = 8					; size = 4
_v$ = 12						; size = 4
??HVector@@QBE?AV0@ABV0@@Z PROC				; Vector::operator+, COMDAT
; _this$ = ecx

; 158  : 	inline Vector operator+(const Vector& v) const	{ return Vector(x+v.x, y+v.y, z+v.z);	   }

	push	ebp
	mov	ebp, esp
	sub	esp, 68					; 00000044H
	push	ebx
	push	esi
	push	edi
	mov	DWORD PTR _this$[ebp], ecx
	mov	eax, DWORD PTR _this$[ebp]
	mov	ecx, DWORD PTR _v$[ebp]
	movss	xmm0, DWORD PTR [eax+8]
	addss	xmm0, DWORD PTR [ecx+8]
	push	ecx
	movss	DWORD PTR [esp], xmm0
	mov	edx, DWORD PTR _this$[ebp]
	mov	eax, DWORD PTR _v$[ebp]
	movss	xmm0, DWORD PTR [edx+4]
	addss	xmm0, DWORD PTR [eax+4]
	push	ecx
	movss	DWORD PTR [esp], xmm0
	mov	ecx, DWORD PTR _this$[ebp]
	mov	edx, DWORD PTR _v$[ebp]
	movss	xmm0, DWORD PTR [ecx]
	addss	xmm0, DWORD PTR [edx]
	push	ecx
	movss	DWORD PTR [esp], xmm0
	mov	ecx, DWORD PTR ___$ReturnUdt$[ebp]
	call	??0Vector@@QAE@MMM@Z			; Vector::Vector
	mov	eax, DWORD PTR ___$ReturnUdt$[ebp]
	pop	edi
	pop	esi
	pop	ebx
	mov	esp, ebp
	pop	ebp
	ret	8
??HVector@@QBE?AV0@ABV0@@Z ENDP				; Vector::operator+
_TEXT	ENDS
; Function compile flags: /Odtp /ZI
; File d:\!diffusion 2020\source code 2022\client-server\game_shared\vector.h
;	COMDAT ??9Vector@@QBEHABV0@@Z
_TEXT	SEGMENT
tv68 = -72						; size = 4
_this$ = -4						; size = 4
_v$ = 8							; size = 4
??9Vector@@QBEHABV0@@Z PROC				; Vector::operator!=, COMDAT
; _this$ = ecx

; 157  : 	inline int operator!=(const Vector& v) const	{ return !(*this==v);		   }

	push	ebp
	mov	ebp, esp
	sub	esp, 72					; 00000048H
	push	ebx
	push	esi
	push	edi
	mov	DWORD PTR _this$[ebp], ecx
	mov	eax, DWORD PTR _v$[ebp]
	push	eax
	mov	ecx, DWORD PTR _this$[ebp]
	call	??8Vector@@QBEHABV0@@Z			; Vector::operator==
	test	eax, eax
	jne	SHORT $LN3@operator
	mov	DWORD PTR tv68[ebp], 1
	jmp	SHORT $LN4@operator
$LN3@operator:
	mov	DWORD PTR tv68[ebp], 0
$LN4@operator:
	mov	eax, DWORD PTR tv68[ebp]
	pop	edi
	pop	esi
	pop	ebx
	mov	esp, ebp
	pop	ebp
	ret	4
??9Vector@@QBEHABV0@@Z ENDP				; Vector::operator!=
_TEXT	ENDS
; Function compile flags: /Odtp /ZI
; File d:\!diffusion 2020\source code 2022\client-server\game_shared\vector.h
;	COMDAT ??8Vector@@QBEHABV0@@Z
_TEXT	SEGMENT
tv73 = -72						; size = 4
_this$ = -4						; size = 4
_v$ = 8							; size = 4
??8Vector@@QBEHABV0@@Z PROC				; Vector::operator==, COMDAT
; _this$ = ecx

; 156  : 	inline int operator==(const Vector& v) const	{ return x==v.x && y==v.y && z==v.z;	   }

	push	ebp
	mov	ebp, esp
	sub	esp, 72					; 00000048H
	push	ebx
	push	esi
	push	edi
	mov	DWORD PTR _this$[ebp], ecx
	mov	eax, DWORD PTR _this$[ebp]
	mov	ecx, DWORD PTR _v$[ebp]
	movss	xmm0, DWORD PTR [eax]
	ucomiss	xmm0, DWORD PTR [ecx]
	lahf
	test	ah, 68					; 00000044H
	jp	SHORT $LN3@operator
	mov	edx, DWORD PTR _this$[ebp]
	mov	eax, DWORD PTR _v$[ebp]
	movss	xmm0, DWORD PTR [edx+4]
	ucomiss	xmm0, DWORD PTR [eax+4]
	lahf
	test	ah, 68					; 00000044H
	jp	SHORT $LN3@operator
	mov	ecx, DWORD PTR _this$[ebp]
	mov	edx, DWORD PTR _v$[ebp]
	movss	xmm0, DWORD PTR [ecx+8]
	ucomiss	xmm0, DWORD PTR [edx+8]
	lahf
	test	ah, 68					; 00000044H
	jp	SHORT $LN3@operator
	mov	DWORD PTR tv73[ebp], 1
	jmp	SHORT $LN4@operator
$LN3@operator:
	mov	DWORD PTR tv73[ebp], 0
$LN4@operator:
	mov	eax, DWORD PTR tv73[ebp]
	pop	edi
	pop	esi
	pop	ebx
	mov	esp, ebp
	pop	ebp
	ret	4
??8Vector@@QBEHABV0@@Z ENDP				; Vector::operator==
_TEXT	ENDS
; Function compile flags: /Odtp /ZI
; File d:\!diffusion 2020\source code 2022\client-server\game_shared\vector.h
;	COMDAT ??GVector@@QBE?AV0@XZ
_TEXT	SEGMENT
_this$ = -4						; size = 4
___$ReturnUdt$ = 8					; size = 4
??GVector@@QBE?AV0@XZ PROC				; Vector::operator-, COMDAT
; _this$ = ecx

; 155  : 	inline Vector operator-(void) const		{ return Vector(-x,-y,-z);		   }

	push	ebp
	mov	ebp, esp
	sub	esp, 68					; 00000044H
	push	ebx
	push	esi
	push	edi
	mov	DWORD PTR _this$[ebp], ecx
	mov	eax, DWORD PTR _this$[ebp]
	movss	xmm0, DWORD PTR [eax+8]
	xorps	xmm0, DWORD PTR __xmm@80000000800000008000000080000000
	push	ecx
	movss	DWORD PTR [esp], xmm0
	mov	ecx, DWORD PTR _this$[ebp]
	movss	xmm0, DWORD PTR [ecx+4]
	xorps	xmm0, DWORD PTR __xmm@80000000800000008000000080000000
	push	ecx
	movss	DWORD PTR [esp], xmm0
	mov	edx, DWORD PTR _this$[ebp]
	movss	xmm0, DWORD PTR [edx]
	xorps	xmm0, DWORD PTR __xmm@80000000800000008000000080000000
	push	ecx
	movss	DWORD PTR [esp], xmm0
	mov	ecx, DWORD PTR ___$ReturnUdt$[ebp]
	call	??0Vector@@QAE@MMM@Z			; Vector::Vector
	mov	eax, DWORD PTR ___$ReturnUdt$[ebp]
	pop	edi
	pop	esi
	pop	ebx
	mov	esp, ebp
	pop	ebp
	ret	4
??GVector@@QBE?AV0@XZ ENDP				; Vector::operator-
_TEXT	ENDS
; Function compile flags: /Odtp /ZI
; File d:\!diffusion 2020\source code 2022\client-server\game_shared\vector.h
;	COMDAT ??0Vector@@QAE@ABV0@@Z
_TEXT	SEGMENT
_this$ = -4						; size = 4
_v$ = 8							; size = 4
??0Vector@@QAE@ABV0@@Z PROC				; Vector::Vector, COMDAT
; _this$ = ecx

; 145  : 	inline Vector(const Vector& v)		{ x = v.x; y = v.y; z = v.z;		   }

	push	ebp
	mov	ebp, esp
	sub	esp, 68					; 00000044H
	push	ebx
	push	esi
	push	edi
	mov	DWORD PTR _this$[ebp], ecx
	mov	eax, DWORD PTR _this$[ebp]
	mov	ecx, DWORD PTR _v$[ebp]
	mov	edx, DWORD PTR [ecx]
	mov	DWORD PTR [eax], edx
	mov	eax, DWORD PTR _this$[ebp]
	mov	ecx, DWORD PTR _v$[ebp]
	mov	edx, DWORD PTR [ecx+4]
	mov	DWORD PTR [eax+4], edx
	mov	eax, DWORD PTR _this$[ebp]
	mov	ecx, DWORD PTR _v$[ebp]
	mov	edx, DWORD PTR [ecx+8]
	mov	DWORD PTR [eax+8], edx
	mov	eax, DWORD PTR _this$[ebp]
	pop	edi
	pop	esi
	pop	ebx
	mov	esp, ebp
	pop	ebp
	ret	4
??0Vector@@QAE@ABV0@@Z ENDP				; Vector::Vector
_TEXT	ENDS
; Function compile flags: /Odtp /ZI
; File d:\!diffusion 2020\source code 2022\client-server\game_shared\vector.h
;	COMDAT ??0Vector@@QAE@MMM@Z
_TEXT	SEGMENT
_this$ = -4						; size = 4
_X$ = 8							; size = 4
_Y$ = 12						; size = 4
_Z$ = 16						; size = 4
??0Vector@@QAE@MMM@Z PROC				; Vector::Vector, COMDAT
; _this$ = ecx

; 144  : 	inline Vector(float X, float Y, float Z)	{ x = X; y = Y; z = Z;                     }

	push	ebp
	mov	ebp, esp
	sub	esp, 68					; 00000044H
	push	ebx
	push	esi
	push	edi
	mov	DWORD PTR _this$[ebp], ecx
	mov	eax, DWORD PTR _this$[ebp]
	movss	xmm0, DWORD PTR _X$[ebp]
	movss	DWORD PTR [eax], xmm0
	mov	eax, DWORD PTR _this$[ebp]
	movss	xmm0, DWORD PTR _Y$[ebp]
	movss	DWORD PTR [eax+4], xmm0
	mov	eax, DWORD PTR _this$[ebp]
	movss	xmm0, DWORD PTR _Z$[ebp]
	movss	DWORD PTR [eax+8], xmm0
	mov	eax, DWORD PTR _this$[ebp]
	pop	edi
	pop	esi
	pop	ebx
	mov	esp, ebp
	pop	ebp
	ret	12					; 0000000cH
??0Vector@@QAE@MMM@Z ENDP				; Vector::Vector
_TEXT	ENDS
; Function compile flags: /Odtp /ZI
; File d:\!diffusion 2020\source code 2022\client-server\game_shared\vector.h
;	COMDAT ??0Vector@@QAE@XZ
_TEXT	SEGMENT
_this$ = -4						; size = 4
??0Vector@@QAE@XZ PROC					; Vector::Vector, COMDAT
; _this$ = ecx

; 143  : 	inline Vector(void)				{ }

	push	ebp
	mov	ebp, esp
	sub	esp, 68					; 00000044H
	push	ebx
	push	esi
	push	edi
	mov	DWORD PTR _this$[ebp], ecx
	mov	eax, DWORD PTR _this$[ebp]
	pop	edi
	pop	esi
	pop	ebx
	mov	esp, ebp
	pop	ebp
	ret	0
??0Vector@@QAE@XZ ENDP					; Vector::Vector
_TEXT	ENDS
; Function compile flags: /Odtp /ZI
; File d:\!diffusion 2020\source code 2022\client-server\game_shared\vector.h
;	COMDAT ?SinCos@@YAXMPAM0@Z
_TEXT	SEGMENT
_angle$ = 8						; size = 4
_sine$ = 12						; size = 4
_cosine$ = 16						; size = 4
?SinCos@@YAXMPAM0@Z PROC				; SinCos, COMDAT

; 36   : {

	push	ebp
	mov	ebp, esp
	sub	esp, 64					; 00000040H
	push	ebx
	push	esi
	push	edi

; 37   : 	/*
; 38   : 	__asm
; 39   : 	{
; 40   : 		push	ecx
; 41   : 		fld	dword ptr angle
; 42   : 		fsincos
; 43   : 		mov	ecx, dword ptr[cosine]
; 44   : 		fstp      dword ptr [ecx]
; 45   : 		mov 	ecx, dword ptr[sine]
; 46   : 		fstp	dword ptr [ecx]
; 47   : 		pop	ecx
; 48   : 	}*/
; 49   : 	*sine = sin( angle );

	cvtss2sd xmm0, DWORD PTR _angle$[ebp]
	sub	esp, 8
	movsd	QWORD PTR [esp], xmm0
	call	_sin
	add	esp, 8
	mov	eax, DWORD PTR _sine$[ebp]
	fstp	DWORD PTR [eax]

; 50   : 	*cosine = cos( angle );

	cvtss2sd xmm0, DWORD PTR _angle$[ebp]
	sub	esp, 8
	movsd	QWORD PTR [esp], xmm0
	call	_cos
	add	esp, 8
	mov	eax, DWORD PTR _cosine$[ebp]
	fstp	DWORD PTR [eax]

; 51   : }

	pop	edi
	pop	esi
	pop	ebx
	mov	esp, ebp
	pop	ebp
	ret	0
?SinCos@@YAXMPAM0@Z ENDP				; SinCos
_TEXT	ENDS
; Function compile flags: /Odtp /ZI
;	COMDAT ??__G@YGXPAX0IIP6EPAX00@Z@Z
_TEXT	SEGMENT
tv66 = -68						; size = 4
___t$ = 8						; size = 4
___u$ = 12						; size = 4
___s$ = 16						; size = 4
___n$ = 20						; size = 4
___f$ = 24						; size = 4
??__G@YGXPAX0IIP6EPAX00@Z@Z PROC			; `vector copy constructor iterator', COMDAT
	push	ebp
	mov	ebp, esp
	sub	esp, 68					; 00000044H
	push	ebx
	push	esi
	push	edi
$LN2@vector:
	mov	eax, DWORD PTR ___n$[ebp]
	mov	DWORD PTR tv66[ebp], eax
	mov	ecx, DWORD PTR ___n$[ebp]
	sub	ecx, 1
	mov	DWORD PTR ___n$[ebp], ecx
	cmp	DWORD PTR tv66[ebp], 0
	jbe	SHORT $LN1@vector
	mov	eax, DWORD PTR ___u$[ebp]
	push	eax
	mov	ecx, DWORD PTR ___t$[ebp]
	call	DWORD PTR ___f$[ebp]
	mov	eax, DWORD PTR ___t$[ebp]
	add	eax, DWORD PTR ___s$[ebp]
	mov	DWORD PTR ___t$[ebp], eax
	mov	eax, DWORD PTR ___u$[ebp]
	add	eax, DWORD PTR ___s$[ebp]
	mov	DWORD PTR ___u$[ebp], eax
	jmp	SHORT $LN2@vector
$LN1@vector:
	pop	edi
	pop	esi
	pop	ebx
	mov	esp, ebp
	pop	ebp
	ret	20					; 00000014H
??__G@YGXPAX0IIP6EPAX00@Z@Z ENDP			; `vector copy constructor iterator'
_TEXT	ENDS
; Function compile flags: /Odtp /ZI
;	COMDAT ??_H@YGXPAXIIP6EPAX0@Z@Z
_TEXT	SEGMENT
tv66 = -68						; size = 4
___t$ = 8						; size = 4
___s$ = 12						; size = 4
___n$ = 16						; size = 4
___f$ = 20						; size = 4
??_H@YGXPAXIIP6EPAX0@Z@Z PROC				; `vector constructor iterator', COMDAT
	push	ebp
	mov	ebp, esp
	sub	esp, 68					; 00000044H
	push	ebx
	push	esi
	push	edi
$LN2@vector:
	mov	eax, DWORD PTR ___n$[ebp]
	mov	DWORD PTR tv66[ebp], eax
	mov	ecx, DWORD PTR ___n$[ebp]
	sub	ecx, 1
	mov	DWORD PTR ___n$[ebp], ecx
	cmp	DWORD PTR tv66[ebp], 0
	jbe	SHORT $LN1@vector
	mov	ecx, DWORD PTR ___t$[ebp]
	call	DWORD PTR ___f$[ebp]
	mov	eax, DWORD PTR ___t$[ebp]
	add	eax, DWORD PTR ___s$[ebp]
	mov	DWORD PTR ___t$[ebp], eax
	jmp	SHORT $LN2@vector
$LN1@vector:
	pop	edi
	pop	esi
	pop	ebx
	mov	esp, ebp
	pop	ebp
	ret	16					; 00000010H
??_H@YGXPAXIIP6EPAX0@Z@Z ENDP				; `vector constructor iterator'
_TEXT	ENDS
END
