; Listing generated by Microsoft (R) Optimizing Compiler Version 19.00.24247.2 

	TITLE	D:\!DIFFUSION 2020\source code 2022\client-server\client\render\r_grass.cpp
	.686P
	.XMM
	include listing.inc
	.model	flat

INCLUDELIB LIBCMT
INCLUDELIB OLDNAMES

PUBLIC	?grass_surfaces@@3PAPAUgrass_s@@A		; grass_surfaces
PUBLIC	?grass_lighting@@3PAPAUgrass_s@@A		; grass_lighting
PUBLIC	?grassverts@@3PAUgrassvert_s@@A			; grassverts
PUBLIC	?grasstexs@@3PAUgrasstex_s@@A			; grasstexs
_BSS	SEGMENT
?grass_surfaces@@3PAPAUgrass_s@@A DD 0100H DUP (?)	; grass_surfaces
?grass_lighting@@3PAPAUgrass_s@@A DD 0100H DUP (?)	; grass_lighting
?grassverts@@3PAUgrassvert_s@@A DB 0140000H DUP (?)	; grassverts
?grasstexs@@3PAUgrasstex_s@@A DB 010800H DUP (?)	; grasstexs
?m_iTotalVerts@@3HA DD 01H DUP (?)			; m_iTotalVerts
_BSS	ENDS
_DATA	SEGMENT
?random_seed@?1??R_GrassInit@@YAXXZ@4HA DD 01H		; `R_GrassInit'::`2'::random_seed
_DATA	ENDS
PUBLIC	??_H@YGXPAXIIP6EPAX0@Z@Z			; `vector constructor iterator'
PUBLIC	??__G@YGXPAX0IIP6EPAX00@Z@Z			; `vector copy constructor iterator'
PUBLIC	?SinCos@@YAXMPAM0@Z				; SinCos
PUBLIC	??0Vector@@QAE@XZ				; Vector::Vector
PUBLIC	??0Vector@@QAE@MMM@Z				; Vector::Vector
PUBLIC	??0Vector@@QAE@ABV0@@Z				; Vector::Vector
PUBLIC	??0Vector@@QAE@QAM@Z				; Vector::Vector
PUBLIC	??8Vector@@QBEHABV0@@Z				; Vector::operator==
PUBLIC	??9Vector@@QBEHABV0@@Z				; Vector::operator!=
PUBLIC	??HVector@@QBE?AV0@ABV0@@Z			; Vector::operator+
PUBLIC	??GVector@@QBE?AV0@ABV0@@Z			; Vector::operator-
PUBLIC	??DVector@@QBE?AV0@M@Z				; Vector::operator*
PUBLIC	?Length@Vector@@QBEMXZ				; Vector::Length
PUBLIC	??BVector@@QAEPAMXZ				; Vector::operator float *
PUBLIC	?Normalize@Vector@@QBE?AV1@XZ			; Vector::Normalize
PUBLIC	?DotProduct@@YAMABVVector@@0@Z			; DotProduct
PUBLIC	?CrossProduct@@YA?AVVector@@ABV1@0@Z		; CrossProduct
PUBLIC	??BVector4D@@QAEPAMXZ				; Vector4D::operator float *
PUBLIC	??BVector4D@@QBEPBMXZ				; Vector4D::operator float const *
PUBLIC	??Amatrix4x4@@QAEPAMH@Z				; matrix4x4::operator[]
PUBLIC	?CopyToArray@matrix4x4@@QBEXPAM@Z		; matrix4x4::CopyToArray
PUBLIC	?GetPlane@CFrustum@@QBEPBUmplane_s@@H@Z		; CFrustum::GetPlane
PUBLIC	??2@YAPAXIPAX@Z					; operator new
PUBLIC	?UtlMemory_CalcNewAllocationCount@@YAHHHHH@Z	; UtlMemory_CalcNewAllocationCount
PUBLIC	?R_GrassInit@@YAXXZ				; R_GrassInit
PUBLIC	?R_GrassShutdown@@YAXXZ				; R_GrassShutdown
PUBLIC	?R_GrassInitForSurface@@YAXPAUmsurface_s@@@Z	; R_GrassInitForSurface
PUBLIC	?R_DrawGrass@@YAXH@Z				; R_DrawGrass
PUBLIC	?R_ReLightGrass@@YAXPAUmsurface_s@@_N@Z		; R_ReLightGrass
PUBLIC	?R_RenderGrassOnList@@YAXXZ			; R_RenderGrassOnList
PUBLIC	?R_GrassPrepareFrame@@YAXXZ			; R_GrassPrepareFrame
PUBLIC	?R_GrassPrepareLight@@YAXXZ			; R_GrassPrepareLight
PUBLIC	?R_RenderShadowGrassOnList@@YAXXZ		; R_RenderShadowGrassOnList
PUBLIC	?R_DrawLightForGrass@@YAXPAUplight_s@@@Z	; R_DrawLightForGrass
PUBLIC	?R_AddGrassToChain@@YA_NPAUmsurface_s@@PAVCFrustum@@_NPAUmworldleaf_s@@@Z ; R_AddGrassToChain
PUBLIC	?R_RemoveGrassForSurface@@YAXPAUmextrasurf_s@@@Z ; R_RemoveGrassForSurface
PUBLIC	?R_DrawGrassLight@@YAXPAUplight_s@@@Z		; R_DrawGrassLight
PUBLIC	?R_UnloadFarGrass@@YAXXZ			; R_UnloadFarGrass
PUBLIC	?R_GrassUseBufferObject@@YA_NXZ			; R_GrassUseBufferObject
PUBLIC	??0?$CUtlArray@Ugrassentry_s@@V?$CUtlMemory@Ugrassentry_s@@H@@@@QAE@HH@Z ; CUtlArray<grassentry_s,CUtlMemory<grassentry_s,int> >::CUtlArray<grassentry_s,CUtlMemory<grassentry_s,int> >
PUBLIC	??1?$CUtlArray@Ugrassentry_s@@V?$CUtlMemory@Ugrassentry_s@@H@@@@QAE@XZ ; CUtlArray<grassentry_s,CUtlMemory<grassentry_s,int> >::~CUtlArray<grassentry_s,CUtlMemory<grassentry_s,int> >
PUBLIC	??A?$CUtlArray@Ugrassentry_s@@V?$CUtlMemory@Ugrassentry_s@@H@@@@QAEAAUgrassentry_s@@H@Z ; CUtlArray<grassentry_s,CUtlMemory<grassentry_s,int> >::operator[]
PUBLIC	?Element@?$CUtlArray@Ugrassentry_s@@V?$CUtlMemory@Ugrassentry_s@@H@@@@QAEAAUgrassentry_s@@H@Z ; CUtlArray<grassentry_s,CUtlMemory<grassentry_s,int> >::Element
PUBLIC	?Base@?$CUtlArray@Ugrassentry_s@@V?$CUtlMemory@Ugrassentry_s@@H@@@@QAEPAUgrassentry_s@@XZ ; CUtlArray<grassentry_s,CUtlMemory<grassentry_s,int> >::Base
PUBLIC	?Count@?$CUtlArray@Ugrassentry_s@@V?$CUtlMemory@Ugrassentry_s@@H@@@@QBEHXZ ; CUtlArray<grassentry_s,CUtlMemory<grassentry_s,int> >::Count
PUBLIC	?IsValidIndex@?$CUtlArray@Ugrassentry_s@@V?$CUtlMemory@Ugrassentry_s@@H@@@@QBE_NH@Z ; CUtlArray<grassentry_s,CUtlMemory<grassentry_s,int> >::IsValidIndex
PUBLIC	?AddToTail@?$CUtlArray@Ugrassentry_s@@V?$CUtlMemory@Ugrassentry_s@@H@@@@QAEHABUgrassentry_s@@@Z ; CUtlArray<grassentry_s,CUtlMemory<grassentry_s,int> >::AddToTail
PUBLIC	?InsertBefore@?$CUtlArray@Ugrassentry_s@@V?$CUtlMemory@Ugrassentry_s@@H@@@@QAEHHABUgrassentry_s@@@Z ; CUtlArray<grassentry_s,CUtlMemory<grassentry_s,int> >::InsertBefore
PUBLIC	?RemoveAll@?$CUtlArray@Ugrassentry_s@@V?$CUtlMemory@Ugrassentry_s@@H@@@@QAEXXZ ; CUtlArray<grassentry_s,CUtlMemory<grassentry_s,int> >::RemoveAll
PUBLIC	?Purge@?$CUtlArray@Ugrassentry_s@@V?$CUtlMemory@Ugrassentry_s@@H@@@@QAEXXZ ; CUtlArray<grassentry_s,CUtlMemory<grassentry_s,int> >::Purge
PUBLIC	?GrowVector@?$CUtlArray@Ugrassentry_s@@V?$CUtlMemory@Ugrassentry_s@@H@@@@IAEXH@Z ; CUtlArray<grassentry_s,CUtlMemory<grassentry_s,int> >::GrowVector
PUBLIC	?ShiftElementsRight@?$CUtlArray@Ugrassentry_s@@V?$CUtlMemory@Ugrassentry_s@@H@@@@IAEXHH@Z ; CUtlArray<grassentry_s,CUtlMemory<grassentry_s,int> >::ShiftElementsRight
PUBLIC	??0?$CUtlMemory@Ugrassentry_s@@H@@QAE@HH@Z	; CUtlMemory<grassentry_s,int>::CUtlMemory<grassentry_s,int>
PUBLIC	??1?$CUtlMemory@Ugrassentry_s@@H@@QAE@XZ	; CUtlMemory<grassentry_s,int>::~CUtlMemory<grassentry_s,int>
PUBLIC	??A?$CUtlMemory@Ugrassentry_s@@H@@QAEAAUgrassentry_s@@H@Z ; CUtlMemory<grassentry_s,int>::operator[]
PUBLIC	?IsIdxValid@?$CUtlMemory@Ugrassentry_s@@H@@QBE_NH@Z ; CUtlMemory<grassentry_s,int>::IsIdxValid
PUBLIC	?Base@?$CUtlMemory@Ugrassentry_s@@H@@QAEPAUgrassentry_s@@XZ ; CUtlMemory<grassentry_s,int>::Base
PUBLIC	?NumAllocated@?$CUtlMemory@Ugrassentry_s@@H@@QBEHXZ ; CUtlMemory<grassentry_s,int>::NumAllocated
PUBLIC	?Grow@?$CUtlMemory@Ugrassentry_s@@H@@QAEXH@Z	; CUtlMemory<grassentry_s,int>::Grow
PUBLIC	?Purge@?$CUtlMemory@Ugrassentry_s@@H@@QAEXXZ	; CUtlMemory<grassentry_s,int>::Purge
PUBLIC	?IsExternallyAllocated@?$CUtlMemory@Ugrassentry_s@@H@@QBE_NXZ ; CUtlMemory<grassentry_s,int>::IsExternallyAllocated
PUBLIC	?IsReadOnly@?$CUtlMemory@Ugrassentry_s@@H@@QBE_NXZ ; CUtlMemory<grassentry_s,int>::IsReadOnly
PUBLIC	?ValidateGrowSize@?$CUtlMemory@Ugrassentry_s@@H@@IAEXXZ ; CUtlMemory<grassentry_s,int>::ValidateGrowSize
PUBLIC	?ResetDbgInfo@?$CUtlArray@Ugrassentry_s@@V?$CUtlMemory@Ugrassentry_s@@H@@@@IAEXXZ ; CUtlArray<grassentry_s,CUtlMemory<grassentry_s,int> >::ResetDbgInfo
PUBLIC	?R_GrassAdvanceVertex@@YA_NXZ			; R_GrassAdvanceVertex
PUBLIC	?R_GrassLightForVertex@@YAXPAUmsurface_s@@PAUmextrasurf_s@@ABVVector@@MQAM@Z ; R_GrassLightForVertex
PUBLIC	?R_CreateSingleBush@@YA_NPAUmsurface_s@@PAUmextrasurf_s@@PAUgrasshdr_s@@ABVVector@@M@Z ; R_CreateSingleBush
PUBLIC	?R_CreateSurfaceVBO@@YAXPAUgrass_s@@@Z		; R_CreateSurfaceVBO
PUBLIC	?R_DeleteSurfaceVBO@@YAXPAUgrass_s@@@Z		; R_DeleteSurfaceVBO
PUBLIC	?R_BuildGrassMesh@@YA_NPAUmsurface_s@@PAUmextrasurf_s@@PAUgrassentry_s@@PAUgrasshdr_s@@PAUgrass_s@@@Z ; R_BuildGrassMesh
PUBLIC	?R_ConstructGrassVBO@@YAXPAUmsurface_s@@@Z	; R_ConstructGrassVBO
PUBLIC	?R_DrawGrassMeshFromBuffer@@YAXPBUgrass_s@@@Z	; R_DrawGrassMeshFromBuffer
PUBLIC	?R_DrawGrassMesh@@YAXPAUgrass_s@@HAAG1@Z	; R_DrawGrassMesh
PUBLIC	?R_DrawGrassShadowMesh@@YAXPAUgrass_s@@HAAG@Z	; R_DrawGrassShadowMesh
PUBLIC	?R_DrawLightForGrassMesh@@YAXPAUplight_s@@PAUgrass_s@@HAAG2@Z ; R_DrawLightForGrassMesh
PUBLIC	?R_ChooseGrassProgram@@YAGPAUmsurface_s@@PAUgrass_s@@_N@Z ; R_ChooseGrassProgram
PUBLIC	?R_BuildGrassMesh@@YAXPAUgrasshdr_s@@PAUgrass_s@@@Z ; R_BuildGrassMesh
PUBLIC	?R_ConstructGrass@@YAXPAUmsurface_s@@@Z		; R_ConstructGrass
PUBLIC	?R_GrassTextureForName@@YAEPBD@Z		; R_GrassTextureForName
PUBLIC	??$CopyConstruct@Ugrassentry_s@@@@YAXPAUgrassentry_s@@ABU0@@Z ; CopyConstruct<grassentry_s>
PUBLIC	??$Destruct@Ugrassentry_s@@@@YAXPAUgrassentry_s@@@Z ; Destruct<grassentry_s>
PUBLIC	?grassInfo@@3V?$CUtlArray@Ugrassentry_s@@V?$CUtlMemory@Ugrassentry_s@@H@@@@A ; grassInfo
PUBLIC	?__LINE__Var@?0??R_ConstructGrassVBO@@YAXPAUmsurface_s@@@Z@4JA ; `R_ConstructGrassVBO'::`1'::__LINE__Var
PUBLIC	??_C@_0EM@FOOGKCCC@d?3?2?$CBdiffusion?52020?2source?5code?52@ ; `string'
PUBLIC	?__LINE__Var@?0??R_RemoveGrassForSurface@@YAXPAUmextrasurf_s@@@Z@4JA ; `R_RemoveGrassForSurface'::`1'::__LINE__Var
PUBLIC	?__LINE__Var@?0??R_DrawGrassMesh@@YAXPAUgrass_s@@HAAG1@Z@4JA ; `R_DrawGrassMesh'::`1'::__LINE__Var
PUBLIC	??_C@_0BI@FECCGOFJ@assert?5failed?5at?5?$CFs?3?$CFi?6?$AA@ ; `string'
PUBLIC	?__LINE__Var@?0??R_DrawLightForGrassMesh@@YAXPAUplight_s@@PAUgrass_s@@HAAG2@Z@4JA ; `R_DrawLightForGrassMesh'::`1'::__LINE__Var
PUBLIC	??_C@_0CD@PLCNDBBL@R_BuildGrassMesh?3?5g?9?$DOmesh?5?$DN?$DN?5NUL@ ; `string'
PUBLIC	??_C@_0BP@OPJNCMAJ@Surface?5?$CFi?0?5?$CFi?5bushes?5created?6?$AA@ ; `string'
PUBLIC	??_C@_0DK@NHHCLPEC@R_ConstructGrass?3?5overflow?5?$CFi?5?$DO?5@ ; `string'
PUBLIC	??_C@_0BC@HJBMIBGI@couldn?8t?5load?5?$CFs?6?$AA@ ; `string'
PUBLIC	??_C@_0BD@KGNLHDOM@data?1grassinfo?4txt?$AA@	; `string'
PUBLIC	??_C@_0BN@NMCGGFIN@couldn?8t?5load?5grassinfo?4txt?6?$AA@ ; `string'
PUBLIC	??_C@_0DD@IPGDBLAB@R_GrassInit?3?5missed?5grass?5textur@ ; `string'
PUBLIC	??_C@_0CO@CCKDCGJE@R_GrassInit?3?5missed?5grass?5densit@ ; `string'
PUBLIC	??_C@_0DA@MNCOHNFM@R_GrassInit?3?5missed?5grass?5min?5sc@ ; `string'
PUBLIC	??_C@_0DA@IMDJECNK@R_GrassInit?3?5missed?5grass?5max?5sc@ ; `string'
PUBLIC	?__LINE__Var@?0??R_DrawGrassLight@@YAXPAUplight_s@@@Z@4JA ; `R_DrawGrassLight'::`1'::__LINE__Var
PUBLIC	??_C@_1JC@EMNIBBBG@?$AAd?$AA?3?$AA?2?$AA?$CB?$AAd?$AAi?$AAf?$AAf?$AAu?$AAs?$AAi?$AAo?$AAn?$AA?5?$AA2?$AA0?$AA2?$AA0?$AA?2?$AAs?$AAo?$AAu?$AAr?$AAc?$AAe?$AA?5?$AAc?$AAo?$AAd?$AAe?$AA?5?$AA2@ ; `string'
PUBLIC	??_C@_1IK@DGJDJNN@?$AA?$CI?$AAB?$AAa?$AAs?$AAe?$AA?$CI?$AA?$CJ?$AA?5?$AA?$DN?$AA?$DN?$AA?5?$AAN?$AAU?$AAL?$AAL?$AA?$CJ?$AA?5?$AA?$HM?$AA?$HM?$AA?5?$AA?$CI?$AA?$CG?$AAs?$AAr?$AAc?$AA?5?$AA?$DM?$AA?5?$AAB?$AAa?$AAs?$AAe@ ; `string'
PUBLIC	??_C@_1JE@CIIIAKCN@?$AAd?$AA?3?$AA?2?$AA?$CB?$AAd?$AAi?$AAf?$AAf?$AAu?$AAs?$AAi?$AAo?$AAn?$AA?5?$AA2?$AA0?$AA2?$AA0?$AA?2?$AAs?$AAo?$AAu?$AAr?$AAc?$AAe?$AA?5?$AAc?$AAo?$AAd?$AAe?$AA?5?$AA2@ ; `string'
PUBLIC	??_C@_1BO@FOOHAONO@?$AAn?$AAG?$AAr?$AAo?$AAw?$AAS?$AAi?$AAz?$AAe?$AA?5?$AA?$DO?$AA?$DN?$AA?5?$AA0?$AA?$AA@ ; `string'
PUBLIC	??_C@_1BM@PFNFCCHH@?$AA?$CB?$AAI?$AAs?$AAR?$AAe?$AAa?$AAd?$AAO?$AAn?$AAl?$AAy?$AA?$CI?$AA?$CJ?$AA?$AA@ ; `string'
PUBLIC	??_C@_1BM@CKILBAKK@?$AAI?$AAs?$AAI?$AAd?$AAx?$AAV?$AAa?$AAl?$AAi?$AAd?$AA?$CI?$AAi?$AA?$CJ?$AA?$AA@ ; `string'
PUBLIC	??_C@_1FA@BPFBJKPF@?$AA?$CI?$AAe?$AAl?$AAe?$AAm?$AA?5?$AA?$DN?$AA?$DN?$AA?5?$AAC?$AAo?$AAu?$AAn?$AAt?$AA?$CI?$AA?$CJ?$AA?$CJ?$AA?5?$AA?$HM?$AA?$HM?$AA?5?$AAI?$AAs?$AAV?$AAa?$AAl?$AAi?$AAd?$AAI?$AAn?$AAd?$AAe@ ; `string'
PUBLIC	??_C@_1GM@CDMJDFPA@?$AAI?$AAs?$AAV?$AAa?$AAl?$AAi?$AAd?$AAI?$AAn?$AAd?$AAe?$AAx?$AA?$CI?$AAe?$AAl?$AAe?$AAm?$AA?$CJ?$AA?5?$AA?$HM?$AA?$HM?$AA?5?$AA?$CI?$AA?5?$AAm?$AA_?$AAS?$AAi?$AAz?$AAe?$AA?5?$AA?$DN@ ; `string'
PUBLIC	??_C@_1BA@PKCLMAEA@?$AAn?$AAu?$AAm?$AA?5?$AA?$DO?$AA?5?$AA0?$AA?$AA@ ; `string'
PUBLIC	??_C@_13COJANIEC@?$AA0?$AA?$AA@			; `string'
PUBLIC	??_C@_1BE@OPPFELHC@?$AAm?$AA_?$AAp?$AAM?$AAe?$AAm?$AAo?$AAr?$AAy?$AA?$AA@ ; `string'
PUBLIC	__real@00000000
PUBLIC	__real@38d1b717
PUBLIC	__real@3c23d70a
PUBLIC	__real@3dcccccd
PUBLIC	__real@3ecccccd
PUBLIC	__real@3f000000
PUBLIC	__real@3f800000
PUBLIC	__real@3f99999a
PUBLIC	__real@3fa99999a0000000
PUBLIC	__real@3fb99999a0000000
PUBLIC	__real@41400000
PUBLIC	__real@4170000000000000
PUBLIC	__real@41800000
PUBLIC	__real@41c00000
PUBLIC	__real@41f00000
PUBLIC	__real@42000000
PUBLIC	__real@428c0000
PUBLIC	__real@42c80000
PUBLIC	__real@437f0000
PUBLIC	__real@44000000
PUBLIC	__real@47c34f80
PUBLIC	__real@becccccd
PUBLIC	__real@bf800000
PUBLIC	__xmm@80000000800000008000000080000000
EXTRN	_atexit:PROC
EXTRN	_memcpy:PROC
EXTRN	_memmove:PROC
EXTRN	_memset:PROC
EXTRN	_free:PROC
EXTRN	_malloc:PROC
EXTRN	_realloc:PROC
EXTRN	_cos:PROC
EXTRN	_fabs:PROC
EXTRN	_sin:PROC
EXTRN	_sqrt:PROC
EXTRN	?AddPointToBounds@@YAXABVVector@@AAV1@1M@Z:PROC	; AddPointToBounds
EXTRN	?RadiusFromBounds@@YAMABVVector@@0@Z:PROC	; RadiusFromBounds
EXTRN	?FloatToHalf@@YAGM@Z:PROC			; FloatToHalf
EXTRN	?Q_strncpy@@YAIPADPBDI@Z:PROC			; Q_strncpy
EXTRN	?Q_atoi@@YAHPBD@Z:PROC				; Q_atoi
EXTRN	?Q_atof@@YAMPBD@Z:PROC				; Q_atof
EXTRN	?Q_strnicmp@@YAHPBD0H@Z:PROC			; Q_strnicmp
EXTRN	?COM_ParseFileExt@@YAPADPAD0J_N@Z:PROC		; COM_ParseFileExt
EXTRN	__wassert:PROC
EXTRN	?ALERT@@YAXW4ALERT_TYPE@@PADZZ:PROC		; ALERT
EXTRN	?CullBox@CFrustum@@QAE_NABVVector@@0H@Z:PROC	; CFrustum::CullBox
EXTRN	?GL_Support@@YA_NH@Z:PROC			; GL_Support
EXTRN	?GL_Cull@@YAXI@Z:PROC				; GL_Cull
EXTRN	?GL_AlphaTest@@YAXH@Z:PROC			; GL_AlphaTest
EXTRN	?Mod_SampleSizeForFace@@YAHPAUmsurface_s@@@Z:PROC ; Mod_SampleSizeForFace
EXTRN	?GL_BindShader@@YAXPAUglsl_prog_s@@@Z:PROC	; GL_BindShader
EXTRN	?GL_UberShaderForGrassSolid@@YAGPAUmsurface_s@@PAUgrass_s@@@Z:PROC ; GL_UberShaderForGrassSolid
EXTRN	?GL_UberShaderForGrassDlight@@YAGPAUplight_s@@PAUgrass_s@@@Z:PROC ; GL_UberShaderForGrassDlight
EXTRN	?GL_UberShaderForDlightGeneric@@YAGPBUplight_s@@@Z:PROC ; GL_UberShaderForDlightGeneric
EXTRN	?Mod_CheckLayerNameForSurf@@YA_NPAUmsurface_s@@PBD@Z:PROC ; Mod_CheckLayerNameForSurf
EXTRN	?Mod_CheckLayerNameForPixel@@YA_NPAUmfaceinfo_t@@ABVVector@@PBD@Z:PROC ; Mod_CheckLayerNameForPixel
EXTRN	@__security_check_cookie@4:PROC
EXTRN	___CxxFrameHandler3:PROC
EXTRN	?g_vecZero@@3VVector@@B:BYTE			; g_vecZero
EXTRN	?gEngfuncs@@3Ucl_enginefuncs_s@@A:BYTE		; gEngfuncs
EXTRN	?gRenderfuncs@@3Urender_api_s@@A:BYTE		; gRenderfuncs
EXTRN	?pglAlphaFunc@@3P6GXIM@ZA:DWORD			; pglAlphaFunc
EXTRN	?pglColor4f@@3P6GXMMMM@ZA:DWORD			; pglColor4f
EXTRN	?pglDisable@@3P6GXI@ZA:DWORD			; pglDisable
EXTRN	?pglDisableClientState@@3P6GXI@ZA:DWORD		; pglDisableClientState
EXTRN	?pglDrawArrays@@3P6GXIHH@ZA:DWORD		; pglDrawArrays
EXTRN	?pglEnable@@3P6GXI@ZA:DWORD			; pglEnable
EXTRN	?pglEnableClientState@@3P6GXI@ZA:DWORD		; pglEnableClientState
EXTRN	?pglTexEnvi@@3P6GXIIH@ZA:DWORD			; pglTexEnvi
EXTRN	?pglDrawRangeElementsEXT@@3P6GXIIIHIPBX@ZA:DWORD ; pglDrawRangeElementsEXT
EXTRN	?pglDrawElements@@3P6GXIHIPBX@ZA:DWORD		; pglDrawElements
EXTRN	?pglVertexPointer@@3P6GXHIHPBX@ZA:DWORD		; pglVertexPointer
EXTRN	?pglColorPointer@@3P6GXHIHPBX@ZA:DWORD		; pglColorPointer
EXTRN	?pglTexCoordPointer@@3P6GXHIHPBX@ZA:DWORD	; pglTexCoordPointer
EXTRN	?pglUniform1fARB@@3P6GXHM@ZA:DWORD		; pglUniform1fARB
EXTRN	?pglUniform3fARB@@3P6GXHMMM@ZA:DWORD		; pglUniform3fARB
EXTRN	?pglUniform4fARB@@3P6GXHMMMM@ZA:DWORD		; pglUniform4fARB
EXTRN	?pglUniform1fvARB@@3P6GXHHPBM@ZA:DWORD		; pglUniform1fvARB
EXTRN	?pglUniform4fvARB@@3P6GXHHPBM@ZA:DWORD		; pglUniform4fvARB
EXTRN	?pglUniformMatrix4fvARB@@3P6GXHHEPBM@ZA:DWORD	; pglUniformMatrix4fvARB
EXTRN	?pglVertexAttribPointerARB@@3P6GXIHIEHPBX@ZA:DWORD ; pglVertexAttribPointerARB
EXTRN	?pglEnableVertexAttribArrayARB@@3P6GXI@ZA:DWORD	; pglEnableVertexAttribArrayARB
EXTRN	?pglBindBufferARB@@3P6GXII@ZA:DWORD		; pglBindBufferARB
EXTRN	?pglDeleteBuffersARB@@3P6GXHPBI@ZA:DWORD	; pglDeleteBuffersARB
EXTRN	?pglGenBuffersARB@@3P6GXHPAI@ZA:DWORD		; pglGenBuffersARB
EXTRN	?pglBufferDataARB@@3P6GXIHPBXI@ZA:DWORD		; pglBufferDataARB
EXTRN	?pglBindVertexArray@@3P6GXI@ZA:DWORD		; pglBindVertexArray
EXTRN	?pglDeleteVertexArrays@@3P6GXHPBI@ZA:DWORD	; pglDeleteVertexArrays
EXTRN	?pglGenVertexArrays@@3P6GXHPBI@ZA:DWORD		; pglGenVertexArrays
EXTRN	?r_dynamic@@3PAUcvar_s@@A:DWORD			; r_dynamic
EXTRN	?r_lightmap@@3PAUcvar_s@@A:DWORD		; r_lightmap
EXTRN	?r_fullbright@@3PAUcvar_s@@A:DWORD		; r_fullbright
EXTRN	?r_grass@@3PAUcvar_s@@A:DWORD			; r_grass
EXTRN	?r_grass_alpha@@3PAUcvar_s@@A:DWORD		; r_grass_alpha
EXTRN	?r_grass_lighting@@3PAUcvar_s@@A:DWORD		; r_grass_lighting
EXTRN	?r_grass_shadows@@3PAUcvar_s@@A:DWORD		; r_grass_shadows
EXTRN	?r_grass_fade_start@@3PAUcvar_s@@A:DWORD	; r_grass_fade_start
EXTRN	?r_grass_fade_dist@@3PAUcvar_s@@A:DWORD		; r_grass_fade_dist
EXTRN	?IEngineStudio@@3Uengine_studio_api_s@@A:BYTE	; IEngineStudio
EXTRN	?worldmodel@@3PAUmodel_s@@A:DWORD		; worldmodel
EXTRN	?RI@@3PAUref_instance_t@@A:DWORD		; RI
EXTRN	?tr@@3Uref_globals_t@@A:BYTE			; tr
EXTRN	?r_stats@@3Uref_stats_t@@A:BYTE			; r_stats
EXTRN	?glConfig@@3UglConfig_t@@A:BYTE			; glConfig
EXTRN	?world@@3PAUgl_world_t@@A:DWORD			; world
EXTRN	?glsl_programs@@3PAUglsl_prog_s@@A:BYTE		; glsl_programs
EXTRN	?glsl@@3Uref_shaders_t@@A:BYTE			; glsl
EXTRN	___security_cookie:DWORD
EXTRN	__fltused:DWORD
_BSS	SEGMENT
?grassInfo@@3V?$CUtlArray@Ugrassentry_s@@V?$CUtlMemory@Ugrassentry_s@@H@@@@A DB 014H DUP (?) ; grassInfo
?m_arraygvert@@3PAUgvert_s@@A DB 0120000H DUP (?)	; m_arraygvert
?m_indexarray@@3PAGA DW 010010H DUP (?)			; m_indexarray
?m_iNumVertex@@3HA DD 01H DUP (?)			; m_iNumVertex
?m_iNumIndex@@3HA DD 01H DUP (?)			; m_iNumIndex
?m_iVertexState@@3HA DD 01H DUP (?)			; m_iVertexState
?m_iTextureWidth@@3HA DD 01H DUP (?)			; m_iTextureWidth
?m_iTextureHeight@@3HA DD 01H DUP (?)			; m_iTextureHeight
?m_flGrassFadeStart@@3MA DD 01H DUP (?)			; m_flGrassFadeStart
?m_flGrassFadeDist@@3MA DD 01H DUP (?)			; m_flGrassFadeDist
?m_flGrassFadeEnd@@3MA DD 01H DUP (?)			; m_flGrassFadeEnd
?m_bGrassUseVBO@@3_NA DB 01H DUP (?)			; m_bGrassUseVBO
_BSS	ENDS
CRT$XCU	SEGMENT
?grassInfo$initializer$@@3P6AXXZA DD FLAT:??__EgrassInfo@@YAXXZ ; grassInfo$initializer$
CRT$XCU	ENDS
;	COMDAT __xmm@80000000800000008000000080000000
CONST	SEGMENT
__xmm@80000000800000008000000080000000 DB 00H, 00H, 00H, 080H, 00H, 00H, 00H
	DB	080H, 00H, 00H, 00H, 080H, 00H, 00H, 00H, 080H
CONST	ENDS
;	COMDAT __real@bf800000
CONST	SEGMENT
__real@bf800000 DD 0bf800000r			; -1
CONST	ENDS
;	COMDAT __real@becccccd
CONST	SEGMENT
__real@becccccd DD 0becccccdr			; -0.4
CONST	ENDS
;	COMDAT __real@47c34f80
CONST	SEGMENT
__real@47c34f80 DD 047c34f80r			; 99999
CONST	ENDS
;	COMDAT __real@44000000
CONST	SEGMENT
__real@44000000 DD 044000000r			; 512
CONST	ENDS
;	COMDAT __real@437f0000
CONST	SEGMENT
__real@437f0000 DD 0437f0000r			; 255
CONST	ENDS
;	COMDAT __real@42c80000
CONST	SEGMENT
__real@42c80000 DD 042c80000r			; 100
CONST	ENDS
;	COMDAT __real@428c0000
CONST	SEGMENT
__real@428c0000 DD 0428c0000r			; 70
CONST	ENDS
;	COMDAT __real@42000000
CONST	SEGMENT
__real@42000000 DD 042000000r			; 32
CONST	ENDS
;	COMDAT __real@41f00000
CONST	SEGMENT
__real@41f00000 DD 041f00000r			; 30
CONST	ENDS
;	COMDAT __real@41c00000
CONST	SEGMENT
__real@41c00000 DD 041c00000r			; 24
CONST	ENDS
;	COMDAT __real@41800000
CONST	SEGMENT
__real@41800000 DD 041800000r			; 16
CONST	ENDS
;	COMDAT __real@4170000000000000
CONST	SEGMENT
__real@4170000000000000 DQ 04170000000000000r	; 1.67772e+07
CONST	ENDS
;	COMDAT __real@41400000
CONST	SEGMENT
__real@41400000 DD 041400000r			; 12
CONST	ENDS
;	COMDAT __real@3fb99999a0000000
CONST	SEGMENT
__real@3fb99999a0000000 DQ 03fb99999a0000000r	; 0.1
CONST	ENDS
;	COMDAT __real@3fa99999a0000000
CONST	SEGMENT
__real@3fa99999a0000000 DQ 03fa99999a0000000r	; 0.05
CONST	ENDS
;	COMDAT __real@3f99999a
CONST	SEGMENT
__real@3f99999a DD 03f99999ar			; 1.2
CONST	ENDS
;	COMDAT __real@3f800000
CONST	SEGMENT
__real@3f800000 DD 03f800000r			; 1
CONST	ENDS
;	COMDAT __real@3f000000
CONST	SEGMENT
__real@3f000000 DD 03f000000r			; 0.5
CONST	ENDS
;	COMDAT __real@3ecccccd
CONST	SEGMENT
__real@3ecccccd DD 03ecccccdr			; 0.4
CONST	ENDS
;	COMDAT __real@3dcccccd
CONST	SEGMENT
__real@3dcccccd DD 03dcccccdr			; 0.1
CONST	ENDS
;	COMDAT __real@3c23d70a
CONST	SEGMENT
__real@3c23d70a DD 03c23d70ar			; 0.01
CONST	ENDS
;	COMDAT __real@38d1b717
CONST	SEGMENT
__real@38d1b717 DD 038d1b717r			; 0.0001
CONST	ENDS
;	COMDAT __real@00000000
CONST	SEGMENT
__real@00000000 DD 000000000r			; 0
CONST	ENDS
;	COMDAT ??_C@_1BE@OPPFELHC@?$AAm?$AA_?$AAp?$AAM?$AAe?$AAm?$AAo?$AAr?$AAy?$AA?$AA@
CONST	SEGMENT
??_C@_1BE@OPPFELHC@?$AAm?$AA_?$AAp?$AAM?$AAe?$AAm?$AAo?$AAr?$AAy?$AA?$AA@ DB 'm'
	DB	00H, '_', 00H, 'p', 00H, 'M', 00H, 'e', 00H, 'm', 00H, 'o', 00H
	DB	'r', 00H, 'y', 00H, 00H, 00H			; `string'
CONST	ENDS
;	COMDAT ??_C@_13COJANIEC@?$AA0?$AA?$AA@
CONST	SEGMENT
??_C@_13COJANIEC@?$AA0?$AA?$AA@ DB '0', 00H, 00H, 00H	; `string'
CONST	ENDS
;	COMDAT ??_C@_1BA@PKCLMAEA@?$AAn?$AAu?$AAm?$AA?5?$AA?$DO?$AA?5?$AA0?$AA?$AA@
CONST	SEGMENT
??_C@_1BA@PKCLMAEA@?$AAn?$AAu?$AAm?$AA?5?$AA?$DO?$AA?5?$AA0?$AA?$AA@ DB 'n'
	DB	00H, 'u', 00H, 'm', 00H, ' ', 00H, '>', 00H, ' ', 00H, '0', 00H
	DB	00H, 00H					; `string'
CONST	ENDS
;	COMDAT ??_C@_1GM@CDMJDFPA@?$AAI?$AAs?$AAV?$AAa?$AAl?$AAi?$AAd?$AAI?$AAn?$AAd?$AAe?$AAx?$AA?$CI?$AAe?$AAl?$AAe?$AAm?$AA?$CJ?$AA?5?$AA?$HM?$AA?$HM?$AA?5?$AA?$CI?$AA?5?$AAm?$AA_?$AAS?$AAi?$AAz?$AAe?$AA?5?$AA?$DN@
CONST	SEGMENT
??_C@_1GM@CDMJDFPA@?$AAI?$AAs?$AAV?$AAa?$AAl?$AAi?$AAd?$AAI?$AAn?$AAd?$AAe?$AAx?$AA?$CI?$AAe?$AAl?$AAe?$AAm?$AA?$CJ?$AA?5?$AA?$HM?$AA?$HM?$AA?5?$AA?$CI?$AA?5?$AAm?$AA_?$AAS?$AAi?$AAz?$AAe?$AA?5?$AA?$DN@ DB 'I'
	DB	00H, 's', 00H, 'V', 00H, 'a', 00H, 'l', 00H, 'i', 00H, 'd', 00H
	DB	'I', 00H, 'n', 00H, 'd', 00H, 'e', 00H, 'x', 00H, '(', 00H, 'e'
	DB	00H, 'l', 00H, 'e', 00H, 'm', 00H, ')', 00H, ' ', 00H, '|', 00H
	DB	'|', 00H, ' ', 00H, '(', 00H, ' ', 00H, 'm', 00H, '_', 00H, 'S'
	DB	00H, 'i', 00H, 'z', 00H, 'e', 00H, ' ', 00H, '=', 00H, '=', 00H
	DB	' ', 00H, '0', 00H, ' ', 00H, ')', 00H, ' ', 00H, '|', 00H, '|'
	DB	00H, ' ', 00H, '(', 00H, ' ', 00H, 'n', 00H, 'u', 00H, 'm', 00H
	DB	' ', 00H, '=', 00H, '=', 00H, ' ', 00H, '0', 00H, ' ', 00H, ')'
	DB	00H, 00H, 00H				; `string'
CONST	ENDS
;	COMDAT ??_C@_1FA@BPFBJKPF@?$AA?$CI?$AAe?$AAl?$AAe?$AAm?$AA?5?$AA?$DN?$AA?$DN?$AA?5?$AAC?$AAo?$AAu?$AAn?$AAt?$AA?$CI?$AA?$CJ?$AA?$CJ?$AA?5?$AA?$HM?$AA?$HM?$AA?5?$AAI?$AAs?$AAV?$AAa?$AAl?$AAi?$AAd?$AAI?$AAn?$AAd?$AAe@
CONST	SEGMENT
??_C@_1FA@BPFBJKPF@?$AA?$CI?$AAe?$AAl?$AAe?$AAm?$AA?5?$AA?$DN?$AA?$DN?$AA?5?$AAC?$AAo?$AAu?$AAn?$AAt?$AA?$CI?$AA?$CJ?$AA?$CJ?$AA?5?$AA?$HM?$AA?$HM?$AA?5?$AAI?$AAs?$AAV?$AAa?$AAl?$AAi?$AAd?$AAI?$AAn?$AAd?$AAe@ DB '('
	DB	00H, 'e', 00H, 'l', 00H, 'e', 00H, 'm', 00H, ' ', 00H, '=', 00H
	DB	'=', 00H, ' ', 00H, 'C', 00H, 'o', 00H, 'u', 00H, 'n', 00H, 't'
	DB	00H, '(', 00H, ')', 00H, ')', 00H, ' ', 00H, '|', 00H, '|', 00H
	DB	' ', 00H, 'I', 00H, 's', 00H, 'V', 00H, 'a', 00H, 'l', 00H, 'i'
	DB	00H, 'd', 00H, 'I', 00H, 'n', 00H, 'd', 00H, 'e', 00H, 'x', 00H
	DB	'(', 00H, 'e', 00H, 'l', 00H, 'e', 00H, 'm', 00H, ')', 00H, 00H
	DB	00H						; `string'
CONST	ENDS
;	COMDAT ??_C@_1BM@CKILBAKK@?$AAI?$AAs?$AAI?$AAd?$AAx?$AAV?$AAa?$AAl?$AAi?$AAd?$AA?$CI?$AAi?$AA?$CJ?$AA?$AA@
CONST	SEGMENT
??_C@_1BM@CKILBAKK@?$AAI?$AAs?$AAI?$AAd?$AAx?$AAV?$AAa?$AAl?$AAi?$AAd?$AA?$CI?$AAi?$AA?$CJ?$AA?$AA@ DB 'I'
	DB	00H, 's', 00H, 'I', 00H, 'd', 00H, 'x', 00H, 'V', 00H, 'a', 00H
	DB	'l', 00H, 'i', 00H, 'd', 00H, '(', 00H, 'i', 00H, ')', 00H, 00H
	DB	00H						; `string'
CONST	ENDS
;	COMDAT ??_C@_1BM@PFNFCCHH@?$AA?$CB?$AAI?$AAs?$AAR?$AAe?$AAa?$AAd?$AAO?$AAn?$AAl?$AAy?$AA?$CI?$AA?$CJ?$AA?$AA@
CONST	SEGMENT
??_C@_1BM@PFNFCCHH@?$AA?$CB?$AAI?$AAs?$AAR?$AAe?$AAa?$AAd?$AAO?$AAn?$AAl?$AAy?$AA?$CI?$AA?$CJ?$AA?$AA@ DB '!'
	DB	00H, 'I', 00H, 's', 00H, 'R', 00H, 'e', 00H, 'a', 00H, 'd', 00H
	DB	'O', 00H, 'n', 00H, 'l', 00H, 'y', 00H, '(', 00H, ')', 00H, 00H
	DB	00H						; `string'
CONST	ENDS
;	COMDAT ??_C@_1BO@FOOHAONO@?$AAn?$AAG?$AAr?$AAo?$AAw?$AAS?$AAi?$AAz?$AAe?$AA?5?$AA?$DO?$AA?$DN?$AA?5?$AA0?$AA?$AA@
CONST	SEGMENT
??_C@_1BO@FOOHAONO@?$AAn?$AAG?$AAr?$AAo?$AAw?$AAS?$AAi?$AAz?$AAe?$AA?5?$AA?$DO?$AA?$DN?$AA?5?$AA0?$AA?$AA@ DB 'n'
	DB	00H, 'G', 00H, 'r', 00H, 'o', 00H, 'w', 00H, 'S', 00H, 'i', 00H
	DB	'z', 00H, 'e', 00H, ' ', 00H, '>', 00H, '=', 00H, ' ', 00H, '0'
	DB	00H, 00H, 00H				; `string'
CONST	ENDS
;	COMDAT ??_C@_1JE@CIIIAKCN@?$AAd?$AA?3?$AA?2?$AA?$CB?$AAd?$AAi?$AAf?$AAf?$AAu?$AAs?$AAi?$AAo?$AAn?$AA?5?$AA2?$AA0?$AA2?$AA0?$AA?2?$AAs?$AAo?$AAu?$AAr?$AAc?$AAe?$AA?5?$AAc?$AAo?$AAd?$AAe?$AA?5?$AA2@
CONST	SEGMENT
??_C@_1JE@CIIIAKCN@?$AAd?$AA?3?$AA?2?$AA?$CB?$AAd?$AAi?$AAf?$AAf?$AAu?$AAs?$AAi?$AAo?$AAn?$AA?5?$AA2?$AA0?$AA2?$AA0?$AA?2?$AAs?$AAo?$AAu?$AAr?$AAc?$AAe?$AA?5?$AAc?$AAo?$AAd?$AAe?$AA?5?$AA2@ DB 'd'
	DB	00H, ':', 00H, '\', 00H, '!', 00H, 'd', 00H, 'i', 00H, 'f', 00H
	DB	'f', 00H, 'u', 00H, 's', 00H, 'i', 00H, 'o', 00H, 'n', 00H, ' '
	DB	00H, '2', 00H, '0', 00H, '2', 00H, '0', 00H, '\', 00H, 's', 00H
	DB	'o', 00H, 'u', 00H, 'r', 00H, 'c', 00H, 'e', 00H, ' ', 00H, 'c'
	DB	00H, 'o', 00H, 'd', 00H, 'e', 00H, ' ', 00H, '2', 00H, '0', 00H
	DB	'2', 00H, '2', 00H, '\', 00H, 'c', 00H, 'l', 00H, 'i', 00H, 'e'
	DB	00H, 'n', 00H, 't', 00H, '-', 00H, 's', 00H, 'e', 00H, 'r', 00H
	DB	'v', 00H, 'e', 00H, 'r', 00H, '\', 00H, 'g', 00H, 'a', 00H, 'm'
	DB	00H, 'e', 00H, '_', 00H, 's', 00H, 'h', 00H, 'a', 00H, 'r', 00H
	DB	'e', 00H, 'd', 00H, '\', 00H, 'u', 00H, 't', 00H, 'l', 00H, 'm'
	DB	00H, 'e', 00H, 'm', 00H, 'o', 00H, 'r', 00H, 'y', 00H, '.', 00H
	DB	'h', 00H, 00H, 00H				; `string'
CONST	ENDS
;	COMDAT ??_C@_1IK@DGJDJNN@?$AA?$CI?$AAB?$AAa?$AAs?$AAe?$AA?$CI?$AA?$CJ?$AA?5?$AA?$DN?$AA?$DN?$AA?5?$AAN?$AAU?$AAL?$AAL?$AA?$CJ?$AA?5?$AA?$HM?$AA?$HM?$AA?5?$AA?$CI?$AA?$CG?$AAs?$AAr?$AAc?$AA?5?$AA?$DM?$AA?5?$AAB?$AAa?$AAs?$AAe@
CONST	SEGMENT
??_C@_1IK@DGJDJNN@?$AA?$CI?$AAB?$AAa?$AAs?$AAe?$AA?$CI?$AA?$CJ?$AA?5?$AA?$DN?$AA?$DN?$AA?5?$AAN?$AAU?$AAL?$AAL?$AA?$CJ?$AA?5?$AA?$HM?$AA?$HM?$AA?5?$AA?$CI?$AA?$CG?$AAs?$AAr?$AAc?$AA?5?$AA?$DM?$AA?5?$AAB?$AAa?$AAs?$AAe@ DB '('
	DB	00H, 'B', 00H, 'a', 00H, 's', 00H, 'e', 00H, '(', 00H, ')', 00H
	DB	' ', 00H, '=', 00H, '=', 00H, ' ', 00H, 'N', 00H, 'U', 00H, 'L'
	DB	00H, 'L', 00H, ')', 00H, ' ', 00H, '|', 00H, '|', 00H, ' ', 00H
	DB	'(', 00H, '&', 00H, 's', 00H, 'r', 00H, 'c', 00H, ' ', 00H, '<'
	DB	00H, ' ', 00H, 'B', 00H, 'a', 00H, 's', 00H, 'e', 00H, '(', 00H
	DB	')', 00H, ')', 00H, ' ', 00H, '|', 00H, '|', 00H, ' ', 00H, '('
	DB	00H, '&', 00H, 's', 00H, 'r', 00H, 'c', 00H, ' ', 00H, '>', 00H
	DB	'=', 00H, ' ', 00H, '(', 00H, 'B', 00H, 'a', 00H, 's', 00H, 'e'
	DB	00H, '(', 00H, ')', 00H, ' ', 00H, '+', 00H, ' ', 00H, 'C', 00H
	DB	'o', 00H, 'u', 00H, 'n', 00H, 't', 00H, '(', 00H, ')', 00H, ')'
	DB	00H, ' ', 00H, ')', 00H, 00H, 00H		; `string'
CONST	ENDS
;	COMDAT ??_C@_1JC@EMNIBBBG@?$AAd?$AA?3?$AA?2?$AA?$CB?$AAd?$AAi?$AAf?$AAf?$AAu?$AAs?$AAi?$AAo?$AAn?$AA?5?$AA2?$AA0?$AA2?$AA0?$AA?2?$AAs?$AAo?$AAu?$AAr?$AAc?$AAe?$AA?5?$AAc?$AAo?$AAd?$AAe?$AA?5?$AA2@
CONST	SEGMENT
??_C@_1JC@EMNIBBBG@?$AAd?$AA?3?$AA?2?$AA?$CB?$AAd?$AAi?$AAf?$AAf?$AAu?$AAs?$AAi?$AAo?$AAn?$AA?5?$AA2?$AA0?$AA2?$AA0?$AA?2?$AAs?$AAo?$AAu?$AAr?$AAc?$AAe?$AA?5?$AAc?$AAo?$AAd?$AAe?$AA?5?$AA2@ DB 'd'
	DB	00H, ':', 00H, '\', 00H, '!', 00H, 'd', 00H, 'i', 00H, 'f', 00H
	DB	'f', 00H, 'u', 00H, 's', 00H, 'i', 00H, 'o', 00H, 'n', 00H, ' '
	DB	00H, '2', 00H, '0', 00H, '2', 00H, '0', 00H, '\', 00H, 's', 00H
	DB	'o', 00H, 'u', 00H, 'r', 00H, 'c', 00H, 'e', 00H, ' ', 00H, 'c'
	DB	00H, 'o', 00H, 'd', 00H, 'e', 00H, ' ', 00H, '2', 00H, '0', 00H
	DB	'2', 00H, '2', 00H, '\', 00H, 'c', 00H, 'l', 00H, 'i', 00H, 'e'
	DB	00H, 'n', 00H, 't', 00H, '-', 00H, 's', 00H, 'e', 00H, 'r', 00H
	DB	'v', 00H, 'e', 00H, 'r', 00H, '\', 00H, 'g', 00H, 'a', 00H, 'm'
	DB	00H, 'e', 00H, '_', 00H, 's', 00H, 'h', 00H, 'a', 00H, 'r', 00H
	DB	'e', 00H, 'd', 00H, '\', 00H, 'u', 00H, 't', 00H, 'l', 00H, 'a'
	DB	00H, 'r', 00H, 'r', 00H, 'a', 00H, 'y', 00H, '.', 00H, 'h', 00H
	DB	00H, 00H					; `string'
CONST	ENDS
;	COMDAT ?__LINE__Var@?0??R_DrawGrassLight@@YAXPAUplight_s@@@Z@4JA
_DATA	SEGMENT
?__LINE__Var@?0??R_DrawGrassLight@@YAXPAUplight_s@@@Z@4JA DD 0647H ; `R_DrawGrassLight'::`1'::__LINE__Var
_DATA	ENDS
;	COMDAT ??_C@_0DA@IMDJECNK@R_GrassInit?3?5missed?5grass?5max?5sc@
CONST	SEGMENT
??_C@_0DA@IMDJECNK@R_GrassInit?3?5missed?5grass?5max?5sc@ DB 'R_GrassInit'
	DB	': missed grass max scale at line %i', 0aH, 00H ; `string'
CONST	ENDS
;	COMDAT ??_C@_0DA@MNCOHNFM@R_GrassInit?3?5missed?5grass?5min?5sc@
CONST	SEGMENT
??_C@_0DA@MNCOHNFM@R_GrassInit?3?5missed?5grass?5min?5sc@ DB 'R_GrassInit'
	DB	': missed grass min scale at line %i', 0aH, 00H ; `string'
CONST	ENDS
;	COMDAT ??_C@_0CO@CCKDCGJE@R_GrassInit?3?5missed?5grass?5densit@
CONST	SEGMENT
??_C@_0CO@CCKDCGJE@R_GrassInit?3?5missed?5grass?5densit@ DB 'R_GrassInit:'
	DB	' missed grass density at line %i', 0aH, 00H	; `string'
CONST	ENDS
;	COMDAT ??_C@_0DD@IPGDBLAB@R_GrassInit?3?5missed?5grass?5textur@
CONST	SEGMENT
??_C@_0DD@IPGDBLAB@R_GrassInit?3?5missed?5grass?5textur@ DB 'R_GrassInit:'
	DB	' missed grass texture path at line %i', 0aH, 00H ; `string'
CONST	ENDS
;	COMDAT ??_C@_0BN@NMCGGFIN@couldn?8t?5load?5grassinfo?4txt?6?$AA@
CONST	SEGMENT
??_C@_0BN@NMCGGFIN@couldn?8t?5load?5grassinfo?4txt?6?$AA@ DB 'couldn''t l'
	DB	'oad grassinfo.txt', 0aH, 00H		; `string'
CONST	ENDS
;	COMDAT ??_C@_0BD@KGNLHDOM@data?1grassinfo?4txt?$AA@
CONST	SEGMENT
??_C@_0BD@KGNLHDOM@data?1grassinfo?4txt?$AA@ DB 'data/grassinfo.txt', 00H ; `string'
CONST	ENDS
;	COMDAT ??_C@_0BC@HJBMIBGI@couldn?8t?5load?5?$CFs?6?$AA@
CONST	SEGMENT
??_C@_0BC@HJBMIBGI@couldn?8t?5load?5?$CFs?6?$AA@ DB 'couldn''t load %s', 0aH
	DB	00H						; `string'
CONST	ENDS
;	COMDAT ??_C@_0DK@NHHCLPEC@R_ConstructGrass?3?5overflow?5?$CFi?5?$DO?5@
CONST	SEGMENT
??_C@_0DK@NHHCLPEC@R_ConstructGrass?3?5overflow?5?$CFi?5?$DO?5@ DB 'R_Con'
	DB	'structGrass: overflow %i > %i. Memory is corrupted!', 0aH, 00H ; `string'
CONST	ENDS
;	COMDAT ??_C@_0BP@OPJNCMAJ@Surface?5?$CFi?0?5?$CFi?5bushes?5created?6?$AA@
CONST	SEGMENT
??_C@_0BP@OPJNCMAJ@Surface?5?$CFi?0?5?$CFi?5bushes?5created?6?$AA@ DB 'Su'
	DB	'rface %i, %i bushes created', 0aH, 00H	; `string'
CONST	ENDS
;	COMDAT ??_C@_0CD@PLCNDBBL@R_BuildGrassMesh?3?5g?9?$DOmesh?5?$DN?$DN?5NUL@
CONST	SEGMENT
??_C@_0CD@PLCNDBBL@R_BuildGrassMesh?3?5g?9?$DOmesh?5?$DN?$DN?5NUL@ DB 'R_'
	DB	'BuildGrassMesh: g->mesh == NULL', 0aH, 00H	; `string'
CONST	ENDS
;	COMDAT ?__LINE__Var@?0??R_DrawLightForGrassMesh@@YAXPAUplight_s@@PAUgrass_s@@HAAG2@Z@4JA
_DATA	SEGMENT
?__LINE__Var@?0??R_DrawLightForGrassMesh@@YAXPAUplight_s@@PAUgrass_s@@HAAG2@Z@4JA DD 0212H ; `R_DrawLightForGrassMesh'::`1'::__LINE__Var
_DATA	ENDS
;	COMDAT ??_C@_0BI@FECCGOFJ@assert?5failed?5at?5?$CFs?3?$CFi?6?$AA@
CONST	SEGMENT
??_C@_0BI@FECCGOFJ@assert?5failed?5at?5?$CFs?3?$CFi?6?$AA@ DB 'assert fai'
	DB	'led at %s:%i', 0aH, 00H			; `string'
CONST	ENDS
;	COMDAT ?__LINE__Var@?0??R_DrawGrassMesh@@YAXPAUgrass_s@@HAAG1@Z@4JA
_DATA	SEGMENT
?__LINE__Var@?0??R_DrawGrassMesh@@YAXPAUgrass_s@@HAAG1@Z@4JA DD 01b4H ; `R_DrawGrassMesh'::`1'::__LINE__Var
_DATA	ENDS
;	COMDAT ?__LINE__Var@?0??R_RemoveGrassForSurface@@YAXPAUmextrasurf_s@@@Z@4JA
_DATA	SEGMENT
?__LINE__Var@?0??R_RemoveGrassForSurface@@YAXPAUmextrasurf_s@@@Z@4JA DD 0186H ; `R_RemoveGrassForSurface'::`1'::__LINE__Var
_DATA	ENDS
;	COMDAT ??_C@_0EM@FOOGKCCC@d?3?2?$CBdiffusion?52020?2source?5code?52@
CONST	SEGMENT
??_C@_0EM@FOOGKCCC@d?3?2?$CBdiffusion?52020?2source?5code?52@ DB 'd:\!dif'
	DB	'fusion 2020\source code 2022\client-server\client\render\r_gr'
	DB	'ass.cpp', 00H				; `string'
CONST	ENDS
;	COMDAT ?__LINE__Var@?0??R_ConstructGrassVBO@@YAXPAUmsurface_s@@@Z@4JA
_DATA	SEGMENT
?__LINE__Var@?0??R_ConstructGrassVBO@@YAXPAUmsurface_s@@@Z@4JA DD 0156H ; `R_ConstructGrassVBO'::`1'::__LINE__Var
_DATA	ENDS
;	COMDAT xdata$x
xdata$x	SEGMENT
__ehfuncinfo$??1?$CUtlMemory@Ugrassentry_s@@H@@QAE@XZ DD 019930522H
	DD	00H
	DD	00H
	DD	2 DUP(00H)
	DD	2 DUP(00H)
	DD	00H
	DD	05H
xdata$x	ENDS
;	COMDAT xdata$x
xdata$x	SEGMENT
__ehfuncinfo$??1?$CUtlArray@Ugrassentry_s@@V?$CUtlMemory@Ugrassentry_s@@H@@@@QAE@XZ DD 019930522H
	DD	00H
	DD	00H
	DD	2 DUP(00H)
	DD	2 DUP(00H)
	DD	00H
	DD	05H
xdata$x	ENDS
;	COMDAT xdata$x
xdata$x	SEGMENT
__unwindtable$??0?$CUtlArray@Ugrassentry_s@@V?$CUtlMemory@Ugrassentry_s@@H@@@@QAE@HH@Z DD 0ffffffffH
	DD	FLAT:__unwindfunclet$??0?$CUtlArray@Ugrassentry_s@@V?$CUtlMemory@Ugrassentry_s@@H@@@@QAE@HH@Z$0
__ehfuncinfo$??0?$CUtlArray@Ugrassentry_s@@V?$CUtlMemory@Ugrassentry_s@@H@@@@QAE@HH@Z DD 019930522H
	DD	01H
	DD	FLAT:__unwindtable$??0?$CUtlArray@Ugrassentry_s@@V?$CUtlMemory@Ugrassentry_s@@H@@@@QAE@HH@Z
	DD	2 DUP(00H)
	DD	2 DUP(00H)
	DD	00H
	DD	01H
xdata$x	ENDS
; Function compile flags: /Odtp /ZI
; File d:\!diffusion 2020\source code 2022\client-server\game_shared\utlmemory.h
;	COMDAT ??$Destruct@Ugrassentry_s@@@@YAXPAUgrassentry_s@@@Z
_TEXT	SEGMENT
_pMemory$ = 8						; size = 4
??$Destruct@Ugrassentry_s@@@@YAXPAUgrassentry_s@@@Z PROC ; Destruct<grassentry_s>, COMDAT

; 49   : {

	push	ebp
	mov	ebp, esp
	sub	esp, 64					; 00000040H
	push	ebx
	push	esi
	push	edi

; 50   : 	pMemory->~T();
; 51   : 
; 52   : #ifdef _DEBUG
; 53   : 	memset( pMemory, 0xDD, sizeof(T) );

	push	36					; 00000024H
	push	221					; 000000ddH
	mov	eax, DWORD PTR _pMemory$[ebp]
	push	eax
	call	_memset
	add	esp, 12					; 0000000cH

; 54   : #endif
; 55   : }

	pop	edi
	pop	esi
	pop	ebx
	mov	esp, ebp
	pop	ebp
	ret	0
??$Destruct@Ugrassentry_s@@@@YAXPAUgrassentry_s@@@Z ENDP ; Destruct<grassentry_s>
_TEXT	ENDS
; Function compile flags: /Odtp /ZI
; File d:\!diffusion 2020\source code 2022\client-server\game_shared\utlmemory.h
;	COMDAT ??$CopyConstruct@Ugrassentry_s@@@@YAXPAUgrassentry_s@@ABU0@@Z
_TEXT	SEGMENT
tv72 = -72						; size = 4
$T1 = -68						; size = 4
_pMemory$ = 8						; size = 4
_src$ = 12						; size = 4
??$CopyConstruct@Ugrassentry_s@@@@YAXPAUgrassentry_s@@ABU0@@Z PROC ; CopyConstruct<grassentry_s>, COMDAT

; 43   : {

	push	ebp
	mov	ebp, esp
	sub	esp, 72					; 00000048H
	push	ebx
	push	esi
	push	edi

; 44   : 	new( pMemory ) T(src);

	mov	eax, DWORD PTR _pMemory$[ebp]
	push	eax
	push	36					; 00000024H
	call	??2@YAPAXIPAX@Z				; operator new
	add	esp, 8
	mov	DWORD PTR $T1[ebp], eax
	cmp	DWORD PTR $T1[ebp], 0
	je	SHORT $LN3@CopyConstr
	mov	ecx, 9
	mov	esi, DWORD PTR _src$[ebp]
	mov	edi, DWORD PTR $T1[ebp]
	rep movsd
	mov	ecx, DWORD PTR $T1[ebp]
	mov	DWORD PTR tv72[ebp], ecx
	jmp	SHORT $LN1@CopyConstr
$LN3@CopyConstr:
	mov	DWORD PTR tv72[ebp], 0
$LN1@CopyConstr:

; 45   : }

	pop	edi
	pop	esi
	pop	ebx
	mov	esp, ebp
	pop	ebp
	ret	0
??$CopyConstruct@Ugrassentry_s@@@@YAXPAUgrassentry_s@@ABU0@@Z ENDP ; CopyConstruct<grassentry_s>
_TEXT	ENDS
; Function compile flags: /Odtp /ZI
; File d:\!diffusion 2020\source code 2022\client-server\client\render\r_grass.cpp
;	COMDAT ?R_AnimateGrass@@YAXPAUgrass_s@@M@Z
_TEXT	SEGMENT
_movey$ = -20						; size = 4
_movex$ = -16						; size = 4
_s3$ = -12						; size = 4
_s2$ = -8						; size = 4
_s1$ = -4						; size = 4
_g$ = 8							; size = 4
_time$ = 12						; size = 4
?R_AnimateGrass@@YAXPAUgrass_s@@M@Z PROC		; R_AnimateGrass, COMDAT

; 1252 : {

	push	ebp
	mov	ebp, esp
	sub	esp, 84					; 00000054H
	push	ebx
	push	esi
	push	edi

; 1253 : 	float s1 = 12.0f * g->cva.size;

	mov	eax, DWORD PTR _g$[ebp]
	movss	xmm0, DWORD PTR __real@41400000
	mulss	xmm0, DWORD PTR [eax+16]
	movss	DWORD PTR _s1$[ebp], xmm0

; 1254 : 	float s2 = 16.0f * g->cva.size;

	mov	eax, DWORD PTR _g$[ebp]
	movss	xmm0, DWORD PTR __real@41800000
	mulss	xmm0, DWORD PTR [eax+16]
	movss	DWORD PTR _s2$[ebp], xmm0

; 1255 : 	float s3 = 24.0f * g->cva.size;

	mov	eax, DWORD PTR _g$[ebp]
	movss	xmm0, DWORD PTR __real@41c00000
	mulss	xmm0, DWORD PTR [eax+16]
	movss	DWORD PTR _s3$[ebp], xmm0

; 1256 : 
; 1257 : 	float movex, movey;
; 1258 : 	SinCos( g->cva.pos[0] + g->cva.pos[1] + time, &movex, &movey );

	lea	eax, DWORD PTR _movey$[ebp]
	push	eax
	lea	ecx, DWORD PTR _movex$[ebp]
	push	ecx
	mov	edx, 4
	imul	eax, edx, 0
	mov	ecx, 4
	shl	ecx, 0
	mov	edx, DWORD PTR _g$[ebp]
	mov	esi, DWORD PTR _g$[ebp]
	movss	xmm0, DWORD PTR [edx+eax+4]
	addss	xmm0, DWORD PTR [esi+ecx+4]
	addss	xmm0, DWORD PTR _time$[ebp]
	push	ecx
	movss	DWORD PTR [esp], xmm0
	call	?SinCos@@YAXMPAM0@Z			; SinCos
	add	esp, 12					; 0000000cH

; 1259 : 
; 1260 : 	g->cva.mesh[0].v[0] = g->cva.pos[0] - s2;		g->cva.mesh[0].v[1] = g->cva.pos[1];			g->cva.mesh[0].v[2] = g->cva.pos[2];

	mov	eax, 4
	imul	ecx, eax, 0
	mov	edx, DWORD PTR _g$[ebp]
	movss	xmm0, DWORD PTR [edx+ecx+4]
	subss	xmm0, DWORD PTR _s2$[ebp]
	mov	eax, 20					; 00000014H
	imul	ecx, eax, 0
	mov	edx, DWORD PTR _g$[ebp]
	add	ecx, DWORD PTR [edx+24]
	mov	eax, 4
	imul	edx, eax, 0
	movss	DWORD PTR [ecx+edx], xmm0
	mov	eax, 4
	shl	eax, 0
	mov	ecx, 20					; 00000014H
	imul	edx, ecx, 0
	mov	ecx, DWORD PTR _g$[ebp]
	add	edx, DWORD PTR [ecx+24]
	mov	ecx, 4
	shl	ecx, 0
	mov	esi, DWORD PTR _g$[ebp]
	mov	eax, DWORD PTR [esi+eax+4]
	mov	DWORD PTR [edx+ecx], eax
	mov	eax, 4
	shl	eax, 1
	mov	ecx, 20					; 00000014H
	imul	edx, ecx, 0
	mov	ecx, DWORD PTR _g$[ebp]
	add	edx, DWORD PTR [ecx+24]
	mov	ecx, 4
	shl	ecx, 1
	mov	esi, DWORD PTR _g$[ebp]
	mov	eax, DWORD PTR [esi+eax+4]
	mov	DWORD PTR [edx+ecx], eax

; 1261 : 	g->cva.mesh[1].v[0] = g->cva.pos[0] - s2 + movex;	g->cva.mesh[1].v[1] = g->cva.pos[1] + movey;		g->cva.mesh[1].v[2] = g->cva.pos[2] + s3;

	mov	eax, 4
	imul	ecx, eax, 0
	mov	edx, DWORD PTR _g$[ebp]
	movss	xmm0, DWORD PTR [edx+ecx+4]
	subss	xmm0, DWORD PTR _s2$[ebp]
	addss	xmm0, DWORD PTR _movex$[ebp]
	mov	eax, 20					; 00000014H
	shl	eax, 0
	mov	ecx, DWORD PTR _g$[ebp]
	add	eax, DWORD PTR [ecx+24]
	mov	edx, 4
	imul	ecx, edx, 0
	movss	DWORD PTR [eax+ecx], xmm0
	mov	eax, 4
	shl	eax, 0
	mov	ecx, DWORD PTR _g$[ebp]
	movss	xmm0, DWORD PTR [ecx+eax+4]
	addss	xmm0, DWORD PTR _movey$[ebp]
	mov	edx, 20					; 00000014H
	shl	edx, 0
	mov	eax, DWORD PTR _g$[ebp]
	add	edx, DWORD PTR [eax+24]
	mov	ecx, 4
	shl	ecx, 0
	movss	DWORD PTR [edx+ecx], xmm0
	mov	eax, 4
	shl	eax, 1
	mov	ecx, DWORD PTR _g$[ebp]
	movss	xmm0, DWORD PTR [ecx+eax+4]
	addss	xmm0, DWORD PTR _s3$[ebp]
	mov	edx, 20					; 00000014H
	shl	edx, 0
	mov	eax, DWORD PTR _g$[ebp]
	add	edx, DWORD PTR [eax+24]
	mov	ecx, 4
	shl	ecx, 1
	movss	DWORD PTR [edx+ecx], xmm0

; 1262 : 	g->cva.mesh[2].v[0] = g->cva.pos[0] + s2 + movex;	g->cva.mesh[2].v[1] = g->cva.pos[1] + movey;		g->cva.mesh[2].v[2] = g->cva.pos[2] + s3;

	mov	eax, 4
	imul	ecx, eax, 0
	mov	edx, DWORD PTR _g$[ebp]
	movss	xmm0, DWORD PTR [edx+ecx+4]
	addss	xmm0, DWORD PTR _s2$[ebp]
	addss	xmm0, DWORD PTR _movex$[ebp]
	mov	eax, 20					; 00000014H
	shl	eax, 1
	mov	ecx, DWORD PTR _g$[ebp]
	add	eax, DWORD PTR [ecx+24]
	mov	edx, 4
	imul	ecx, edx, 0
	movss	DWORD PTR [eax+ecx], xmm0
	mov	eax, 4
	shl	eax, 0
	mov	ecx, DWORD PTR _g$[ebp]
	movss	xmm0, DWORD PTR [ecx+eax+4]
	addss	xmm0, DWORD PTR _movey$[ebp]
	mov	edx, 20					; 00000014H
	shl	edx, 1
	mov	eax, DWORD PTR _g$[ebp]
	add	edx, DWORD PTR [eax+24]
	mov	ecx, 4
	shl	ecx, 0
	movss	DWORD PTR [edx+ecx], xmm0
	mov	eax, 4
	shl	eax, 1
	mov	ecx, DWORD PTR _g$[ebp]
	movss	xmm0, DWORD PTR [ecx+eax+4]
	addss	xmm0, DWORD PTR _s3$[ebp]
	mov	edx, 20					; 00000014H
	shl	edx, 1
	mov	eax, DWORD PTR _g$[ebp]
	add	edx, DWORD PTR [eax+24]
	mov	ecx, 4
	shl	ecx, 1
	movss	DWORD PTR [edx+ecx], xmm0

; 1263 : 	g->cva.mesh[3].v[0] = g->cva.pos[0] + s2;		g->cva.mesh[3].v[1] = g->cva.pos[1];			g->cva.mesh[3].v[2] = g->cva.pos[2];

	mov	eax, 4
	imul	ecx, eax, 0
	mov	edx, DWORD PTR _g$[ebp]
	movss	xmm0, DWORD PTR [edx+ecx+4]
	addss	xmm0, DWORD PTR _s2$[ebp]
	mov	eax, 20					; 00000014H
	imul	ecx, eax, 3
	mov	edx, DWORD PTR _g$[ebp]
	add	ecx, DWORD PTR [edx+24]
	mov	eax, 4
	imul	edx, eax, 0
	movss	DWORD PTR [ecx+edx], xmm0
	mov	eax, 4
	shl	eax, 0
	mov	ecx, 20					; 00000014H
	imul	edx, ecx, 3
	mov	ecx, DWORD PTR _g$[ebp]
	add	edx, DWORD PTR [ecx+24]
	mov	ecx, 4
	shl	ecx, 0
	mov	esi, DWORD PTR _g$[ebp]
	mov	eax, DWORD PTR [esi+eax+4]
	mov	DWORD PTR [edx+ecx], eax
	mov	eax, 4
	shl	eax, 1
	mov	ecx, 20					; 00000014H
	imul	edx, ecx, 3
	mov	ecx, DWORD PTR _g$[ebp]
	add	edx, DWORD PTR [ecx+24]
	mov	ecx, 4
	shl	ecx, 1
	mov	esi, DWORD PTR _g$[ebp]
	mov	eax, DWORD PTR [esi+eax+4]
	mov	DWORD PTR [edx+ecx], eax

; 1264 : 
; 1265 : 	g->cva.mesh[4].v[0] = g->cva.pos[0];			g->cva.mesh[4].v[1] = g->cva.pos[1] - s2;		g->cva.mesh[4].v[2] = g->cva.pos[2];

	mov	eax, 4
	imul	ecx, eax, 0
	mov	edx, 20					; 00000014H
	shl	edx, 2
	mov	eax, DWORD PTR _g$[ebp]
	add	edx, DWORD PTR [eax+24]
	mov	eax, 4
	imul	eax, eax, 0
	mov	esi, DWORD PTR _g$[ebp]
	mov	ecx, DWORD PTR [esi+ecx+4]
	mov	DWORD PTR [edx+eax], ecx
	mov	eax, 4
	shl	eax, 0
	mov	ecx, DWORD PTR _g$[ebp]
	movss	xmm0, DWORD PTR [ecx+eax+4]
	subss	xmm0, DWORD PTR _s2$[ebp]
	mov	edx, 20					; 00000014H
	shl	edx, 2
	mov	eax, DWORD PTR _g$[ebp]
	add	edx, DWORD PTR [eax+24]
	mov	ecx, 4
	shl	ecx, 0
	movss	DWORD PTR [edx+ecx], xmm0
	mov	eax, 4
	shl	eax, 1
	mov	ecx, 20					; 00000014H
	shl	ecx, 2
	mov	edx, DWORD PTR _g$[ebp]
	add	ecx, DWORD PTR [edx+24]
	mov	edx, 4
	shl	edx, 1
	mov	esi, DWORD PTR _g$[ebp]
	mov	eax, DWORD PTR [esi+eax+4]
	mov	DWORD PTR [ecx+edx], eax

; 1266 : 	g->cva.mesh[5].v[0] = g->cva.pos[0] + movex;		g->cva.mesh[5].v[1] = g->cva.pos[1] - s2 + movey;	g->cva.mesh[5].v[2] = g->cva.pos[2] + s3;

	mov	eax, 4
	imul	ecx, eax, 0
	mov	edx, DWORD PTR _g$[ebp]
	movss	xmm0, DWORD PTR [edx+ecx+4]
	addss	xmm0, DWORD PTR _movex$[ebp]
	mov	eax, 20					; 00000014H
	imul	ecx, eax, 5
	mov	edx, DWORD PTR _g$[ebp]
	add	ecx, DWORD PTR [edx+24]
	mov	eax, 4
	imul	edx, eax, 0
	movss	DWORD PTR [ecx+edx], xmm0
	mov	eax, 4
	shl	eax, 0
	mov	ecx, DWORD PTR _g$[ebp]
	movss	xmm0, DWORD PTR [ecx+eax+4]
	subss	xmm0, DWORD PTR _s2$[ebp]
	addss	xmm0, DWORD PTR _movey$[ebp]
	mov	edx, 20					; 00000014H
	imul	eax, edx, 5
	mov	ecx, DWORD PTR _g$[ebp]
	add	eax, DWORD PTR [ecx+24]
	mov	edx, 4
	shl	edx, 0
	movss	DWORD PTR [eax+edx], xmm0
	mov	eax, 4
	shl	eax, 1
	mov	ecx, DWORD PTR _g$[ebp]
	movss	xmm0, DWORD PTR [ecx+eax+4]
	addss	xmm0, DWORD PTR _s3$[ebp]
	mov	edx, 20					; 00000014H
	imul	eax, edx, 5
	mov	ecx, DWORD PTR _g$[ebp]
	add	eax, DWORD PTR [ecx+24]
	mov	edx, 4
	shl	edx, 1
	movss	DWORD PTR [eax+edx], xmm0

; 1267 : 	g->cva.mesh[6].v[0] = g->cva.pos[0] + movex;		g->cva.mesh[6].v[1] = g->cva.pos[1] + s2 + movey;	g->cva.mesh[6].v[2] = g->cva.pos[2] + s3;

	mov	eax, 4
	imul	ecx, eax, 0
	mov	edx, DWORD PTR _g$[ebp]
	movss	xmm0, DWORD PTR [edx+ecx+4]
	addss	xmm0, DWORD PTR _movex$[ebp]
	mov	eax, 20					; 00000014H
	imul	ecx, eax, 6
	mov	edx, DWORD PTR _g$[ebp]
	add	ecx, DWORD PTR [edx+24]
	mov	eax, 4
	imul	edx, eax, 0
	movss	DWORD PTR [ecx+edx], xmm0
	mov	eax, 4
	shl	eax, 0
	mov	ecx, DWORD PTR _g$[ebp]
	movss	xmm0, DWORD PTR [ecx+eax+4]
	addss	xmm0, DWORD PTR _s2$[ebp]
	addss	xmm0, DWORD PTR _movey$[ebp]
	mov	edx, 20					; 00000014H
	imul	eax, edx, 6
	mov	ecx, DWORD PTR _g$[ebp]
	add	eax, DWORD PTR [ecx+24]
	mov	edx, 4
	shl	edx, 0
	movss	DWORD PTR [eax+edx], xmm0
	mov	eax, 4
	shl	eax, 1
	mov	ecx, DWORD PTR _g$[ebp]
	movss	xmm0, DWORD PTR [ecx+eax+4]
	addss	xmm0, DWORD PTR _s3$[ebp]
	mov	edx, 20					; 00000014H
	imul	eax, edx, 6
	mov	ecx, DWORD PTR _g$[ebp]
	add	eax, DWORD PTR [ecx+24]
	mov	edx, 4
	shl	edx, 1
	movss	DWORD PTR [eax+edx], xmm0

; 1268 : 	g->cva.mesh[7].v[0] = g->cva.pos[0];			g->cva.mesh[7].v[1] = g->cva.pos[1] + s2;		g->cva.mesh[7].v[2] = g->cva.pos[2];

	mov	eax, 4
	imul	ecx, eax, 0
	mov	edx, 20					; 00000014H
	imul	eax, edx, 7
	mov	edx, DWORD PTR _g$[ebp]
	add	eax, DWORD PTR [edx+24]
	mov	edx, 4
	imul	edx, edx, 0
	mov	esi, DWORD PTR _g$[ebp]
	mov	ecx, DWORD PTR [esi+ecx+4]
	mov	DWORD PTR [eax+edx], ecx
	mov	eax, 4
	shl	eax, 0
	mov	ecx, DWORD PTR _g$[ebp]
	movss	xmm0, DWORD PTR [ecx+eax+4]
	addss	xmm0, DWORD PTR _s2$[ebp]
	mov	edx, 20					; 00000014H
	imul	eax, edx, 7
	mov	ecx, DWORD PTR _g$[ebp]
	add	eax, DWORD PTR [ecx+24]
	mov	edx, 4
	shl	edx, 0
	movss	DWORD PTR [eax+edx], xmm0
	mov	eax, 4
	shl	eax, 1
	mov	ecx, 20					; 00000014H
	imul	edx, ecx, 7
	mov	ecx, DWORD PTR _g$[ebp]
	add	edx, DWORD PTR [ecx+24]
	mov	ecx, 4
	shl	ecx, 1
	mov	esi, DWORD PTR _g$[ebp]
	mov	eax, DWORD PTR [esi+eax+4]
	mov	DWORD PTR [edx+ecx], eax

; 1269 : 
; 1270 : 	g->cva.mesh[8].v[0] = g->cva.pos[0] - s1;		g->cva.mesh[8].v[1] = g->cva.pos[1] - s1;		g->cva.mesh[8].v[2] = g->cva.pos[2];

	mov	eax, 4
	imul	ecx, eax, 0
	mov	edx, DWORD PTR _g$[ebp]
	movss	xmm0, DWORD PTR [edx+ecx+4]
	subss	xmm0, DWORD PTR _s1$[ebp]
	mov	eax, 20					; 00000014H
	shl	eax, 3
	mov	ecx, DWORD PTR _g$[ebp]
	add	eax, DWORD PTR [ecx+24]
	mov	edx, 4
	imul	ecx, edx, 0
	movss	DWORD PTR [eax+ecx], xmm0
	mov	eax, 4
	shl	eax, 0
	mov	ecx, DWORD PTR _g$[ebp]
	movss	xmm0, DWORD PTR [ecx+eax+4]
	subss	xmm0, DWORD PTR _s1$[ebp]
	mov	edx, 20					; 00000014H
	shl	edx, 3
	mov	eax, DWORD PTR _g$[ebp]
	add	edx, DWORD PTR [eax+24]
	mov	ecx, 4
	shl	ecx, 0
	movss	DWORD PTR [edx+ecx], xmm0
	mov	eax, 4
	shl	eax, 1
	mov	ecx, 20					; 00000014H
	shl	ecx, 3
	mov	edx, DWORD PTR _g$[ebp]
	add	ecx, DWORD PTR [edx+24]
	mov	edx, 4
	shl	edx, 1
	mov	esi, DWORD PTR _g$[ebp]
	mov	eax, DWORD PTR [esi+eax+4]
	mov	DWORD PTR [ecx+edx], eax

; 1271 : 	g->cva.mesh[9].v[0] = g->cva.pos[0] - s1 + movex;	g->cva.mesh[9].v[1] = g->cva.pos[1] - s1 + movey;	g->cva.mesh[9].v[2] = g->cva.pos[2] + s3;

	mov	eax, 4
	imul	ecx, eax, 0
	mov	edx, DWORD PTR _g$[ebp]
	movss	xmm0, DWORD PTR [edx+ecx+4]
	subss	xmm0, DWORD PTR _s1$[ebp]
	addss	xmm0, DWORD PTR _movex$[ebp]
	mov	eax, 20					; 00000014H
	imul	ecx, eax, 9
	mov	edx, DWORD PTR _g$[ebp]
	add	ecx, DWORD PTR [edx+24]
	mov	eax, 4
	imul	edx, eax, 0
	movss	DWORD PTR [ecx+edx], xmm0
	mov	eax, 4
	shl	eax, 0
	mov	ecx, DWORD PTR _g$[ebp]
	movss	xmm0, DWORD PTR [ecx+eax+4]
	subss	xmm0, DWORD PTR _s1$[ebp]
	addss	xmm0, DWORD PTR _movey$[ebp]
	mov	edx, 20					; 00000014H
	imul	eax, edx, 9
	mov	ecx, DWORD PTR _g$[ebp]
	add	eax, DWORD PTR [ecx+24]
	mov	edx, 4
	shl	edx, 0
	movss	DWORD PTR [eax+edx], xmm0
	mov	eax, 4
	shl	eax, 1
	mov	ecx, DWORD PTR _g$[ebp]
	movss	xmm0, DWORD PTR [ecx+eax+4]
	addss	xmm0, DWORD PTR _s3$[ebp]
	mov	edx, 20					; 00000014H
	imul	eax, edx, 9
	mov	ecx, DWORD PTR _g$[ebp]
	add	eax, DWORD PTR [ecx+24]
	mov	edx, 4
	shl	edx, 1
	movss	DWORD PTR [eax+edx], xmm0

; 1272 : 	g->cva.mesh[10].v[0] = g->cva.pos[0] + s1 + movex;	g->cva.mesh[10].v[1] = g->cva.pos[1] + s1 + movey;	g->cva.mesh[10].v[2] = g->cva.pos[2] + s3;

	mov	eax, 4
	imul	ecx, eax, 0
	mov	edx, DWORD PTR _g$[ebp]
	movss	xmm0, DWORD PTR [edx+ecx+4]
	addss	xmm0, DWORD PTR _s1$[ebp]
	addss	xmm0, DWORD PTR _movex$[ebp]
	mov	eax, 20					; 00000014H
	imul	ecx, eax, 10
	mov	edx, DWORD PTR _g$[ebp]
	add	ecx, DWORD PTR [edx+24]
	mov	eax, 4
	imul	edx, eax, 0
	movss	DWORD PTR [ecx+edx], xmm0
	mov	eax, 4
	shl	eax, 0
	mov	ecx, DWORD PTR _g$[ebp]
	movss	xmm0, DWORD PTR [ecx+eax+4]
	addss	xmm0, DWORD PTR _s1$[ebp]
	addss	xmm0, DWORD PTR _movey$[ebp]
	mov	edx, 20					; 00000014H
	imul	eax, edx, 10
	mov	ecx, DWORD PTR _g$[ebp]
	add	eax, DWORD PTR [ecx+24]
	mov	edx, 4
	shl	edx, 0
	movss	DWORD PTR [eax+edx], xmm0
	mov	eax, 4
	shl	eax, 1
	mov	ecx, DWORD PTR _g$[ebp]
	movss	xmm0, DWORD PTR [ecx+eax+4]
	addss	xmm0, DWORD PTR _s3$[ebp]
	mov	edx, 20					; 00000014H
	imul	eax, edx, 10
	mov	ecx, DWORD PTR _g$[ebp]
	add	eax, DWORD PTR [ecx+24]
	mov	edx, 4
	shl	edx, 1
	movss	DWORD PTR [eax+edx], xmm0

; 1273 : 	g->cva.mesh[11].v[0] = g->cva.pos[0] + s1;		g->cva.mesh[11].v[1] = g->cva.pos[1] + s1;		g->cva.mesh[11].v[2] = g->cva.pos[2];

	mov	eax, 4
	imul	ecx, eax, 0
	mov	edx, DWORD PTR _g$[ebp]
	movss	xmm0, DWORD PTR [edx+ecx+4]
	addss	xmm0, DWORD PTR _s1$[ebp]
	mov	eax, 20					; 00000014H
	imul	ecx, eax, 11
	mov	edx, DWORD PTR _g$[ebp]
	add	ecx, DWORD PTR [edx+24]
	mov	eax, 4
	imul	edx, eax, 0
	movss	DWORD PTR [ecx+edx], xmm0
	mov	eax, 4
	shl	eax, 0
	mov	ecx, DWORD PTR _g$[ebp]
	movss	xmm0, DWORD PTR [ecx+eax+4]
	addss	xmm0, DWORD PTR _s1$[ebp]
	mov	edx, 20					; 00000014H
	imul	eax, edx, 11
	mov	ecx, DWORD PTR _g$[ebp]
	add	eax, DWORD PTR [ecx+24]
	mov	edx, 4
	shl	edx, 0
	movss	DWORD PTR [eax+edx], xmm0
	mov	eax, 4
	shl	eax, 1
	mov	ecx, 20					; 00000014H
	imul	edx, ecx, 11
	mov	ecx, DWORD PTR _g$[ebp]
	add	edx, DWORD PTR [ecx+24]
	mov	ecx, 4
	shl	ecx, 1
	mov	esi, DWORD PTR _g$[ebp]
	mov	eax, DWORD PTR [esi+eax+4]
	mov	DWORD PTR [edx+ecx], eax

; 1274 : 
; 1275 : 	g->cva.mesh[12].v[0] = g->cva.pos[0] - s1;		g->cva.mesh[12].v[1] = g->cva.pos[1] + s1;		g->cva.mesh[12].v[2] = g->cva.pos[2];

	mov	eax, 4
	imul	ecx, eax, 0
	mov	edx, DWORD PTR _g$[ebp]
	movss	xmm0, DWORD PTR [edx+ecx+4]
	subss	xmm0, DWORD PTR _s1$[ebp]
	mov	eax, 20					; 00000014H
	imul	ecx, eax, 12
	mov	edx, DWORD PTR _g$[ebp]
	add	ecx, DWORD PTR [edx+24]
	mov	eax, 4
	imul	edx, eax, 0
	movss	DWORD PTR [ecx+edx], xmm0
	mov	eax, 4
	shl	eax, 0
	mov	ecx, DWORD PTR _g$[ebp]
	movss	xmm0, DWORD PTR [ecx+eax+4]
	addss	xmm0, DWORD PTR _s1$[ebp]
	mov	edx, 20					; 00000014H
	imul	eax, edx, 12
	mov	ecx, DWORD PTR _g$[ebp]
	add	eax, DWORD PTR [ecx+24]
	mov	edx, 4
	shl	edx, 0
	movss	DWORD PTR [eax+edx], xmm0
	mov	eax, 4
	shl	eax, 1
	mov	ecx, 20					; 00000014H
	imul	edx, ecx, 12
	mov	ecx, DWORD PTR _g$[ebp]
	add	edx, DWORD PTR [ecx+24]
	mov	ecx, 4
	shl	ecx, 1
	mov	esi, DWORD PTR _g$[ebp]
	mov	eax, DWORD PTR [esi+eax+4]
	mov	DWORD PTR [edx+ecx], eax

; 1276 : 	g->cva.mesh[13].v[0] = g->cva.pos[0] - s1 + movex;	g->cva.mesh[13].v[1] = g->cva.pos[1] + s1 + movey;	g->cva.mesh[13].v[2] = g->cva.pos[2] + s3;

	mov	eax, 4
	imul	ecx, eax, 0
	mov	edx, DWORD PTR _g$[ebp]
	movss	xmm0, DWORD PTR [edx+ecx+4]
	subss	xmm0, DWORD PTR _s1$[ebp]
	addss	xmm0, DWORD PTR _movex$[ebp]
	mov	eax, 20					; 00000014H
	imul	ecx, eax, 13
	mov	edx, DWORD PTR _g$[ebp]
	add	ecx, DWORD PTR [edx+24]
	mov	eax, 4
	imul	edx, eax, 0
	movss	DWORD PTR [ecx+edx], xmm0
	mov	eax, 4
	shl	eax, 0
	mov	ecx, DWORD PTR _g$[ebp]
	movss	xmm0, DWORD PTR [ecx+eax+4]
	addss	xmm0, DWORD PTR _s1$[ebp]
	addss	xmm0, DWORD PTR _movey$[ebp]
	mov	edx, 20					; 00000014H
	imul	eax, edx, 13
	mov	ecx, DWORD PTR _g$[ebp]
	add	eax, DWORD PTR [ecx+24]
	mov	edx, 4
	shl	edx, 0
	movss	DWORD PTR [eax+edx], xmm0
	mov	eax, 4
	shl	eax, 1
	mov	ecx, DWORD PTR _g$[ebp]
	movss	xmm0, DWORD PTR [ecx+eax+4]
	addss	xmm0, DWORD PTR _s3$[ebp]
	mov	edx, 20					; 00000014H
	imul	eax, edx, 13
	mov	ecx, DWORD PTR _g$[ebp]
	add	eax, DWORD PTR [ecx+24]
	mov	edx, 4
	shl	edx, 1
	movss	DWORD PTR [eax+edx], xmm0

; 1277 : 	g->cva.mesh[14].v[0] = g->cva.pos[0] + s1 + movex;	g->cva.mesh[14].v[1] = g->cva.pos[1] - s1 + movey;	g->cva.mesh[14].v[2] = g->cva.pos[2] + s3;

	mov	eax, 4
	imul	ecx, eax, 0
	mov	edx, DWORD PTR _g$[ebp]
	movss	xmm0, DWORD PTR [edx+ecx+4]
	addss	xmm0, DWORD PTR _s1$[ebp]
	addss	xmm0, DWORD PTR _movex$[ebp]
	mov	eax, 20					; 00000014H
	imul	ecx, eax, 14
	mov	edx, DWORD PTR _g$[ebp]
	add	ecx, DWORD PTR [edx+24]
	mov	eax, 4
	imul	edx, eax, 0
	movss	DWORD PTR [ecx+edx], xmm0
	mov	eax, 4
	shl	eax, 0
	mov	ecx, DWORD PTR _g$[ebp]
	movss	xmm0, DWORD PTR [ecx+eax+4]
	subss	xmm0, DWORD PTR _s1$[ebp]
	addss	xmm0, DWORD PTR _movey$[ebp]
	mov	edx, 20					; 00000014H
	imul	eax, edx, 14
	mov	ecx, DWORD PTR _g$[ebp]
	add	eax, DWORD PTR [ecx+24]
	mov	edx, 4
	shl	edx, 0
	movss	DWORD PTR [eax+edx], xmm0
	mov	eax, 4
	shl	eax, 1
	mov	ecx, DWORD PTR _g$[ebp]
	movss	xmm0, DWORD PTR [ecx+eax+4]
	addss	xmm0, DWORD PTR _s3$[ebp]
	mov	edx, 20					; 00000014H
	imul	eax, edx, 14
	mov	ecx, DWORD PTR _g$[ebp]
	add	eax, DWORD PTR [ecx+24]
	mov	edx, 4
	shl	edx, 1
	movss	DWORD PTR [eax+edx], xmm0

; 1278 : 	g->cva.mesh[15].v[0] = g->cva.pos[0] + s1;		g->cva.mesh[15].v[1] = g->cva.pos[1] - s1;		g->cva.mesh[15].v[2] = g->cva.pos[2];

	mov	eax, 4
	imul	ecx, eax, 0
	mov	edx, DWORD PTR _g$[ebp]
	movss	xmm0, DWORD PTR [edx+ecx+4]
	addss	xmm0, DWORD PTR _s1$[ebp]
	mov	eax, 20					; 00000014H
	imul	ecx, eax, 15
	mov	edx, DWORD PTR _g$[ebp]
	add	ecx, DWORD PTR [edx+24]
	mov	eax, 4
	imul	edx, eax, 0
	movss	DWORD PTR [ecx+edx], xmm0
	mov	eax, 4
	shl	eax, 0
	mov	ecx, DWORD PTR _g$[ebp]
	movss	xmm0, DWORD PTR [ecx+eax+4]
	subss	xmm0, DWORD PTR _s1$[ebp]
	mov	edx, 20					; 00000014H
	imul	eax, edx, 15
	mov	ecx, DWORD PTR _g$[ebp]
	add	eax, DWORD PTR [ecx+24]
	mov	edx, 4
	shl	edx, 0
	movss	DWORD PTR [eax+edx], xmm0
	mov	eax, 4
	shl	eax, 1
	mov	ecx, 20					; 00000014H
	imul	edx, ecx, 15
	mov	ecx, DWORD PTR _g$[ebp]
	add	edx, DWORD PTR [ecx+24]
	mov	ecx, 4
	shl	ecx, 1
	mov	esi, DWORD PTR _g$[ebp]
	mov	eax, DWORD PTR [esi+eax+4]
	mov	DWORD PTR [edx+ecx], eax

; 1279 : }

	pop	edi
	pop	esi
	pop	ebx
	mov	esp, ebp
	pop	ebp
	ret	0
?R_AnimateGrass@@YAXPAUgrass_s@@M@Z ENDP		; R_AnimateGrass
_TEXT	ENDS
; Function compile flags: /Odtp /ZI
; File d:\!diffusion 2020\source code 2022\client-server\client\render\r_grass.cpp
;	COMDAT ?R_ReSizeGrass@@YAXPAUgrass_s@@M@Z
_TEXT	SEGMENT
_s3$ = -16						; size = 4
_s2$ = -12						; size = 4
_s1$ = -8						; size = 4
_scale$ = -4						; size = 4
_g$ = 8							; size = 4
_s$ = 12						; size = 4
?R_ReSizeGrass@@YAXPAUgrass_s@@M@Z PROC			; R_ReSizeGrass, COMDAT

; 1216 : {

	push	ebp
	mov	ebp, esp
	sub	esp, 80					; 00000050H
	push	ebx
	push	esi
	push	edi

; 1217 : 	float scale = s * g->cva.size;

	mov	eax, DWORD PTR _g$[ebp]
	movss	xmm0, DWORD PTR _s$[ebp]
	mulss	xmm0, DWORD PTR [eax+16]
	movss	DWORD PTR _scale$[ebp], xmm0

; 1218 : 
; 1219 : 	float s1 = 12.0f * scale;

	movss	xmm0, DWORD PTR __real@41400000
	mulss	xmm0, DWORD PTR _scale$[ebp]
	movss	DWORD PTR _s1$[ebp], xmm0

; 1220 : 	float s2 = 16.0f * scale;

	movss	xmm0, DWORD PTR __real@41800000
	mulss	xmm0, DWORD PTR _scale$[ebp]
	movss	DWORD PTR _s2$[ebp], xmm0

; 1221 : 	float s3 = 24.0f * scale;

	movss	xmm0, DWORD PTR __real@41c00000
	mulss	xmm0, DWORD PTR _scale$[ebp]
	movss	DWORD PTR _s3$[ebp], xmm0

; 1222 : 
; 1223 : 	g->cva.mesh[0].v[0] = g->cva.pos[0] - s2;	g->cva.mesh[0].v[1] = g->cva.pos[1];		g->cva.mesh[0].v[2] = g->cva.pos[2];

	mov	eax, 4
	imul	ecx, eax, 0
	mov	edx, DWORD PTR _g$[ebp]
	movss	xmm0, DWORD PTR [edx+ecx+4]
	subss	xmm0, DWORD PTR _s2$[ebp]
	mov	eax, 20					; 00000014H
	imul	ecx, eax, 0
	mov	edx, DWORD PTR _g$[ebp]
	add	ecx, DWORD PTR [edx+24]
	mov	eax, 4
	imul	edx, eax, 0
	movss	DWORD PTR [ecx+edx], xmm0
	mov	eax, 4
	shl	eax, 0
	mov	ecx, 20					; 00000014H
	imul	edx, ecx, 0
	mov	ecx, DWORD PTR _g$[ebp]
	add	edx, DWORD PTR [ecx+24]
	mov	ecx, 4
	shl	ecx, 0
	mov	esi, DWORD PTR _g$[ebp]
	mov	eax, DWORD PTR [esi+eax+4]
	mov	DWORD PTR [edx+ecx], eax
	mov	eax, 4
	shl	eax, 1
	mov	ecx, 20					; 00000014H
	imul	edx, ecx, 0
	mov	ecx, DWORD PTR _g$[ebp]
	add	edx, DWORD PTR [ecx+24]
	mov	ecx, 4
	shl	ecx, 1
	mov	esi, DWORD PTR _g$[ebp]
	mov	eax, DWORD PTR [esi+eax+4]
	mov	DWORD PTR [edx+ecx], eax

; 1224 : 	g->cva.mesh[1].v[0] = g->cva.pos[0] - s2;	g->cva.mesh[1].v[1] = g->cva.pos[1];		g->cva.mesh[1].v[2] = g->cva.pos[2] + s3;

	mov	eax, 4
	imul	ecx, eax, 0
	mov	edx, DWORD PTR _g$[ebp]
	movss	xmm0, DWORD PTR [edx+ecx+4]
	subss	xmm0, DWORD PTR _s2$[ebp]
	mov	eax, 20					; 00000014H
	shl	eax, 0
	mov	ecx, DWORD PTR _g$[ebp]
	add	eax, DWORD PTR [ecx+24]
	mov	edx, 4
	imul	ecx, edx, 0
	movss	DWORD PTR [eax+ecx], xmm0
	mov	eax, 4
	shl	eax, 0
	mov	ecx, 20					; 00000014H
	shl	ecx, 0
	mov	edx, DWORD PTR _g$[ebp]
	add	ecx, DWORD PTR [edx+24]
	mov	edx, 4
	shl	edx, 0
	mov	esi, DWORD PTR _g$[ebp]
	mov	eax, DWORD PTR [esi+eax+4]
	mov	DWORD PTR [ecx+edx], eax
	mov	eax, 4
	shl	eax, 1
	mov	ecx, DWORD PTR _g$[ebp]
	movss	xmm0, DWORD PTR [ecx+eax+4]
	addss	xmm0, DWORD PTR _s3$[ebp]
	mov	edx, 20					; 00000014H
	shl	edx, 0
	mov	eax, DWORD PTR _g$[ebp]
	add	edx, DWORD PTR [eax+24]
	mov	ecx, 4
	shl	ecx, 1
	movss	DWORD PTR [edx+ecx], xmm0

; 1225 : 	g->cva.mesh[2].v[0] = g->cva.pos[0] + s2;	g->cva.mesh[2].v[1] = g->cva.pos[1];		g->cva.mesh[2].v[2] = g->cva.pos[2] + s3;

	mov	eax, 4
	imul	ecx, eax, 0
	mov	edx, DWORD PTR _g$[ebp]
	movss	xmm0, DWORD PTR [edx+ecx+4]
	addss	xmm0, DWORD PTR _s2$[ebp]
	mov	eax, 20					; 00000014H
	shl	eax, 1
	mov	ecx, DWORD PTR _g$[ebp]
	add	eax, DWORD PTR [ecx+24]
	mov	edx, 4
	imul	ecx, edx, 0
	movss	DWORD PTR [eax+ecx], xmm0
	mov	eax, 4
	shl	eax, 0
	mov	ecx, 20					; 00000014H
	shl	ecx, 1
	mov	edx, DWORD PTR _g$[ebp]
	add	ecx, DWORD PTR [edx+24]
	mov	edx, 4
	shl	edx, 0
	mov	esi, DWORD PTR _g$[ebp]
	mov	eax, DWORD PTR [esi+eax+4]
	mov	DWORD PTR [ecx+edx], eax
	mov	eax, 4
	shl	eax, 1
	mov	ecx, DWORD PTR _g$[ebp]
	movss	xmm0, DWORD PTR [ecx+eax+4]
	addss	xmm0, DWORD PTR _s3$[ebp]
	mov	edx, 20					; 00000014H
	shl	edx, 1
	mov	eax, DWORD PTR _g$[ebp]
	add	edx, DWORD PTR [eax+24]
	mov	ecx, 4
	shl	ecx, 1
	movss	DWORD PTR [edx+ecx], xmm0

; 1226 : 	g->cva.mesh[3].v[0] = g->cva.pos[0] + s2;	g->cva.mesh[3].v[1] = g->cva.pos[1];		g->cva.mesh[3].v[2] = g->cva.pos[2];

	mov	eax, 4
	imul	ecx, eax, 0
	mov	edx, DWORD PTR _g$[ebp]
	movss	xmm0, DWORD PTR [edx+ecx+4]
	addss	xmm0, DWORD PTR _s2$[ebp]
	mov	eax, 20					; 00000014H
	imul	ecx, eax, 3
	mov	edx, DWORD PTR _g$[ebp]
	add	ecx, DWORD PTR [edx+24]
	mov	eax, 4
	imul	edx, eax, 0
	movss	DWORD PTR [ecx+edx], xmm0
	mov	eax, 4
	shl	eax, 0
	mov	ecx, 20					; 00000014H
	imul	edx, ecx, 3
	mov	ecx, DWORD PTR _g$[ebp]
	add	edx, DWORD PTR [ecx+24]
	mov	ecx, 4
	shl	ecx, 0
	mov	esi, DWORD PTR _g$[ebp]
	mov	eax, DWORD PTR [esi+eax+4]
	mov	DWORD PTR [edx+ecx], eax
	mov	eax, 4
	shl	eax, 1
	mov	ecx, 20					; 00000014H
	imul	edx, ecx, 3
	mov	ecx, DWORD PTR _g$[ebp]
	add	edx, DWORD PTR [ecx+24]
	mov	ecx, 4
	shl	ecx, 1
	mov	esi, DWORD PTR _g$[ebp]
	mov	eax, DWORD PTR [esi+eax+4]
	mov	DWORD PTR [edx+ecx], eax

; 1227 : 
; 1228 : 	g->cva.mesh[4].v[0] = g->cva.pos[0];		g->cva.mesh[4].v[1] = g->cva.pos[1] - s2;	g->cva.mesh[4].v[2] = g->cva.pos[2];

	mov	eax, 4
	imul	ecx, eax, 0
	mov	edx, 20					; 00000014H
	shl	edx, 2
	mov	eax, DWORD PTR _g$[ebp]
	add	edx, DWORD PTR [eax+24]
	mov	eax, 4
	imul	eax, eax, 0
	mov	esi, DWORD PTR _g$[ebp]
	mov	ecx, DWORD PTR [esi+ecx+4]
	mov	DWORD PTR [edx+eax], ecx
	mov	eax, 4
	shl	eax, 0
	mov	ecx, DWORD PTR _g$[ebp]
	movss	xmm0, DWORD PTR [ecx+eax+4]
	subss	xmm0, DWORD PTR _s2$[ebp]
	mov	edx, 20					; 00000014H
	shl	edx, 2
	mov	eax, DWORD PTR _g$[ebp]
	add	edx, DWORD PTR [eax+24]
	mov	ecx, 4
	shl	ecx, 0
	movss	DWORD PTR [edx+ecx], xmm0
	mov	eax, 4
	shl	eax, 1
	mov	ecx, 20					; 00000014H
	shl	ecx, 2
	mov	edx, DWORD PTR _g$[ebp]
	add	ecx, DWORD PTR [edx+24]
	mov	edx, 4
	shl	edx, 1
	mov	esi, DWORD PTR _g$[ebp]
	mov	eax, DWORD PTR [esi+eax+4]
	mov	DWORD PTR [ecx+edx], eax

; 1229 : 	g->cva.mesh[5].v[0] = g->cva.pos[0];		g->cva.mesh[5].v[1] = g->cva.pos[1] - s2;	g->cva.mesh[5].v[2] = g->cva.pos[2] + s3;

	mov	eax, 4
	imul	ecx, eax, 0
	mov	edx, 20					; 00000014H
	imul	eax, edx, 5
	mov	edx, DWORD PTR _g$[ebp]
	add	eax, DWORD PTR [edx+24]
	mov	edx, 4
	imul	edx, edx, 0
	mov	esi, DWORD PTR _g$[ebp]
	mov	ecx, DWORD PTR [esi+ecx+4]
	mov	DWORD PTR [eax+edx], ecx
	mov	eax, 4
	shl	eax, 0
	mov	ecx, DWORD PTR _g$[ebp]
	movss	xmm0, DWORD PTR [ecx+eax+4]
	subss	xmm0, DWORD PTR _s2$[ebp]
	mov	edx, 20					; 00000014H
	imul	eax, edx, 5
	mov	ecx, DWORD PTR _g$[ebp]
	add	eax, DWORD PTR [ecx+24]
	mov	edx, 4
	shl	edx, 0
	movss	DWORD PTR [eax+edx], xmm0
	mov	eax, 4
	shl	eax, 1
	mov	ecx, DWORD PTR _g$[ebp]
	movss	xmm0, DWORD PTR [ecx+eax+4]
	addss	xmm0, DWORD PTR _s3$[ebp]
	mov	edx, 20					; 00000014H
	imul	eax, edx, 5
	mov	ecx, DWORD PTR _g$[ebp]
	add	eax, DWORD PTR [ecx+24]
	mov	edx, 4
	shl	edx, 1
	movss	DWORD PTR [eax+edx], xmm0

; 1230 : 	g->cva.mesh[6].v[0] = g->cva.pos[0];		g->cva.mesh[6].v[1] = g->cva.pos[1] + s2;	g->cva.mesh[6].v[2] = g->cva.pos[2] + s3;

	mov	eax, 4
	imul	ecx, eax, 0
	mov	edx, 20					; 00000014H
	imul	eax, edx, 6
	mov	edx, DWORD PTR _g$[ebp]
	add	eax, DWORD PTR [edx+24]
	mov	edx, 4
	imul	edx, edx, 0
	mov	esi, DWORD PTR _g$[ebp]
	mov	ecx, DWORD PTR [esi+ecx+4]
	mov	DWORD PTR [eax+edx], ecx
	mov	eax, 4
	shl	eax, 0
	mov	ecx, DWORD PTR _g$[ebp]
	movss	xmm0, DWORD PTR [ecx+eax+4]
	addss	xmm0, DWORD PTR _s2$[ebp]
	mov	edx, 20					; 00000014H
	imul	eax, edx, 6
	mov	ecx, DWORD PTR _g$[ebp]
	add	eax, DWORD PTR [ecx+24]
	mov	edx, 4
	shl	edx, 0
	movss	DWORD PTR [eax+edx], xmm0
	mov	eax, 4
	shl	eax, 1
	mov	ecx, DWORD PTR _g$[ebp]
	movss	xmm0, DWORD PTR [ecx+eax+4]
	addss	xmm0, DWORD PTR _s3$[ebp]
	mov	edx, 20					; 00000014H
	imul	eax, edx, 6
	mov	ecx, DWORD PTR _g$[ebp]
	add	eax, DWORD PTR [ecx+24]
	mov	edx, 4
	shl	edx, 1
	movss	DWORD PTR [eax+edx], xmm0

; 1231 : 	g->cva.mesh[7].v[0] = g->cva.pos[0];		g->cva.mesh[7].v[1] = g->cva.pos[1] + s2;	g->cva.mesh[7].v[2] = g->cva.pos[2];

	mov	eax, 4
	imul	ecx, eax, 0
	mov	edx, 20					; 00000014H
	imul	eax, edx, 7
	mov	edx, DWORD PTR _g$[ebp]
	add	eax, DWORD PTR [edx+24]
	mov	edx, 4
	imul	edx, edx, 0
	mov	esi, DWORD PTR _g$[ebp]
	mov	ecx, DWORD PTR [esi+ecx+4]
	mov	DWORD PTR [eax+edx], ecx
	mov	eax, 4
	shl	eax, 0
	mov	ecx, DWORD PTR _g$[ebp]
	movss	xmm0, DWORD PTR [ecx+eax+4]
	addss	xmm0, DWORD PTR _s2$[ebp]
	mov	edx, 20					; 00000014H
	imul	eax, edx, 7
	mov	ecx, DWORD PTR _g$[ebp]
	add	eax, DWORD PTR [ecx+24]
	mov	edx, 4
	shl	edx, 0
	movss	DWORD PTR [eax+edx], xmm0
	mov	eax, 4
	shl	eax, 1
	mov	ecx, 20					; 00000014H
	imul	edx, ecx, 7
	mov	ecx, DWORD PTR _g$[ebp]
	add	edx, DWORD PTR [ecx+24]
	mov	ecx, 4
	shl	ecx, 1
	mov	esi, DWORD PTR _g$[ebp]
	mov	eax, DWORD PTR [esi+eax+4]
	mov	DWORD PTR [edx+ecx], eax

; 1232 : 
; 1233 : 	g->cva.mesh[8].v[0] = g->cva.pos[0] - s1;	g->cva.mesh[8].v[1] = g->cva.pos[1] - s1;	g->cva.mesh[8].v[2] = g->cva.pos[2];

	mov	eax, 4
	imul	ecx, eax, 0
	mov	edx, DWORD PTR _g$[ebp]
	movss	xmm0, DWORD PTR [edx+ecx+4]
	subss	xmm0, DWORD PTR _s1$[ebp]
	mov	eax, 20					; 00000014H
	shl	eax, 3
	mov	ecx, DWORD PTR _g$[ebp]
	add	eax, DWORD PTR [ecx+24]
	mov	edx, 4
	imul	ecx, edx, 0
	movss	DWORD PTR [eax+ecx], xmm0
	mov	eax, 4
	shl	eax, 0
	mov	ecx, DWORD PTR _g$[ebp]
	movss	xmm0, DWORD PTR [ecx+eax+4]
	subss	xmm0, DWORD PTR _s1$[ebp]
	mov	edx, 20					; 00000014H
	shl	edx, 3
	mov	eax, DWORD PTR _g$[ebp]
	add	edx, DWORD PTR [eax+24]
	mov	ecx, 4
	shl	ecx, 0
	movss	DWORD PTR [edx+ecx], xmm0
	mov	eax, 4
	shl	eax, 1
	mov	ecx, 20					; 00000014H
	shl	ecx, 3
	mov	edx, DWORD PTR _g$[ebp]
	add	ecx, DWORD PTR [edx+24]
	mov	edx, 4
	shl	edx, 1
	mov	esi, DWORD PTR _g$[ebp]
	mov	eax, DWORD PTR [esi+eax+4]
	mov	DWORD PTR [ecx+edx], eax

; 1234 : 	g->cva.mesh[9].v[0] = g->cva.pos[0] - s1;	g->cva.mesh[9].v[1] = g->cva.pos[1] - s1;	g->cva.mesh[9].v[2] = g->cva.pos[2] + s3;

	mov	eax, 4
	imul	ecx, eax, 0
	mov	edx, DWORD PTR _g$[ebp]
	movss	xmm0, DWORD PTR [edx+ecx+4]
	subss	xmm0, DWORD PTR _s1$[ebp]
	mov	eax, 20					; 00000014H
	imul	ecx, eax, 9
	mov	edx, DWORD PTR _g$[ebp]
	add	ecx, DWORD PTR [edx+24]
	mov	eax, 4
	imul	edx, eax, 0
	movss	DWORD PTR [ecx+edx], xmm0
	mov	eax, 4
	shl	eax, 0
	mov	ecx, DWORD PTR _g$[ebp]
	movss	xmm0, DWORD PTR [ecx+eax+4]
	subss	xmm0, DWORD PTR _s1$[ebp]
	mov	edx, 20					; 00000014H
	imul	eax, edx, 9
	mov	ecx, DWORD PTR _g$[ebp]
	add	eax, DWORD PTR [ecx+24]
	mov	edx, 4
	shl	edx, 0
	movss	DWORD PTR [eax+edx], xmm0
	mov	eax, 4
	shl	eax, 1
	mov	ecx, DWORD PTR _g$[ebp]
	movss	xmm0, DWORD PTR [ecx+eax+4]
	addss	xmm0, DWORD PTR _s3$[ebp]
	mov	edx, 20					; 00000014H
	imul	eax, edx, 9
	mov	ecx, DWORD PTR _g$[ebp]
	add	eax, DWORD PTR [ecx+24]
	mov	edx, 4
	shl	edx, 1
	movss	DWORD PTR [eax+edx], xmm0

; 1235 : 	g->cva.mesh[10].v[0] = g->cva.pos[0] + s1;	g->cva.mesh[10].v[1] = g->cva.pos[1] + s1;	g->cva.mesh[10].v[2] = g->cva.pos[2] + s3;

	mov	eax, 4
	imul	ecx, eax, 0
	mov	edx, DWORD PTR _g$[ebp]
	movss	xmm0, DWORD PTR [edx+ecx+4]
	addss	xmm0, DWORD PTR _s1$[ebp]
	mov	eax, 20					; 00000014H
	imul	ecx, eax, 10
	mov	edx, DWORD PTR _g$[ebp]
	add	ecx, DWORD PTR [edx+24]
	mov	eax, 4
	imul	edx, eax, 0
	movss	DWORD PTR [ecx+edx], xmm0
	mov	eax, 4
	shl	eax, 0
	mov	ecx, DWORD PTR _g$[ebp]
	movss	xmm0, DWORD PTR [ecx+eax+4]
	addss	xmm0, DWORD PTR _s1$[ebp]
	mov	edx, 20					; 00000014H
	imul	eax, edx, 10
	mov	ecx, DWORD PTR _g$[ebp]
	add	eax, DWORD PTR [ecx+24]
	mov	edx, 4
	shl	edx, 0
	movss	DWORD PTR [eax+edx], xmm0
	mov	eax, 4
	shl	eax, 1
	mov	ecx, DWORD PTR _g$[ebp]
	movss	xmm0, DWORD PTR [ecx+eax+4]
	addss	xmm0, DWORD PTR _s3$[ebp]
	mov	edx, 20					; 00000014H
	imul	eax, edx, 10
	mov	ecx, DWORD PTR _g$[ebp]
	add	eax, DWORD PTR [ecx+24]
	mov	edx, 4
	shl	edx, 1
	movss	DWORD PTR [eax+edx], xmm0

; 1236 : 	g->cva.mesh[11].v[0] = g->cva.pos[0] + s1;	g->cva.mesh[11].v[1] = g->cva.pos[1] + s1;	g->cva.mesh[11].v[2] = g->cva.pos[2];

	mov	eax, 4
	imul	ecx, eax, 0
	mov	edx, DWORD PTR _g$[ebp]
	movss	xmm0, DWORD PTR [edx+ecx+4]
	addss	xmm0, DWORD PTR _s1$[ebp]
	mov	eax, 20					; 00000014H
	imul	ecx, eax, 11
	mov	edx, DWORD PTR _g$[ebp]
	add	ecx, DWORD PTR [edx+24]
	mov	eax, 4
	imul	edx, eax, 0
	movss	DWORD PTR [ecx+edx], xmm0
	mov	eax, 4
	shl	eax, 0
	mov	ecx, DWORD PTR _g$[ebp]
	movss	xmm0, DWORD PTR [ecx+eax+4]
	addss	xmm0, DWORD PTR _s1$[ebp]
	mov	edx, 20					; 00000014H
	imul	eax, edx, 11
	mov	ecx, DWORD PTR _g$[ebp]
	add	eax, DWORD PTR [ecx+24]
	mov	edx, 4
	shl	edx, 0
	movss	DWORD PTR [eax+edx], xmm0
	mov	eax, 4
	shl	eax, 1
	mov	ecx, 20					; 00000014H
	imul	edx, ecx, 11
	mov	ecx, DWORD PTR _g$[ebp]
	add	edx, DWORD PTR [ecx+24]
	mov	ecx, 4
	shl	ecx, 1
	mov	esi, DWORD PTR _g$[ebp]
	mov	eax, DWORD PTR [esi+eax+4]
	mov	DWORD PTR [edx+ecx], eax

; 1237 : 
; 1238 : 	g->cva.mesh[12].v[0] = g->cva.pos[0] - s1;	g->cva.mesh[12].v[1] = g->cva.pos[1] + s1;	g->cva.mesh[12].v[2] = g->cva.pos[2];

	mov	eax, 4
	imul	ecx, eax, 0
	mov	edx, DWORD PTR _g$[ebp]
	movss	xmm0, DWORD PTR [edx+ecx+4]
	subss	xmm0, DWORD PTR _s1$[ebp]
	mov	eax, 20					; 00000014H
	imul	ecx, eax, 12
	mov	edx, DWORD PTR _g$[ebp]
	add	ecx, DWORD PTR [edx+24]
	mov	eax, 4
	imul	edx, eax, 0
	movss	DWORD PTR [ecx+edx], xmm0
	mov	eax, 4
	shl	eax, 0
	mov	ecx, DWORD PTR _g$[ebp]
	movss	xmm0, DWORD PTR [ecx+eax+4]
	addss	xmm0, DWORD PTR _s1$[ebp]
	mov	edx, 20					; 00000014H
	imul	eax, edx, 12
	mov	ecx, DWORD PTR _g$[ebp]
	add	eax, DWORD PTR [ecx+24]
	mov	edx, 4
	shl	edx, 0
	movss	DWORD PTR [eax+edx], xmm0
	mov	eax, 4
	shl	eax, 1
	mov	ecx, 20					; 00000014H
	imul	edx, ecx, 12
	mov	ecx, DWORD PTR _g$[ebp]
	add	edx, DWORD PTR [ecx+24]
	mov	ecx, 4
	shl	ecx, 1
	mov	esi, DWORD PTR _g$[ebp]
	mov	eax, DWORD PTR [esi+eax+4]
	mov	DWORD PTR [edx+ecx], eax

; 1239 : 	g->cva.mesh[13].v[0] = g->cva.pos[0] - s1;	g->cva.mesh[13].v[1] = g->cva.pos[1] + s1;	g->cva.mesh[13].v[2] = g->cva.pos[2] + s3;

	mov	eax, 4
	imul	ecx, eax, 0
	mov	edx, DWORD PTR _g$[ebp]
	movss	xmm0, DWORD PTR [edx+ecx+4]
	subss	xmm0, DWORD PTR _s1$[ebp]
	mov	eax, 20					; 00000014H
	imul	ecx, eax, 13
	mov	edx, DWORD PTR _g$[ebp]
	add	ecx, DWORD PTR [edx+24]
	mov	eax, 4
	imul	edx, eax, 0
	movss	DWORD PTR [ecx+edx], xmm0
	mov	eax, 4
	shl	eax, 0
	mov	ecx, DWORD PTR _g$[ebp]
	movss	xmm0, DWORD PTR [ecx+eax+4]
	addss	xmm0, DWORD PTR _s1$[ebp]
	mov	edx, 20					; 00000014H
	imul	eax, edx, 13
	mov	ecx, DWORD PTR _g$[ebp]
	add	eax, DWORD PTR [ecx+24]
	mov	edx, 4
	shl	edx, 0
	movss	DWORD PTR [eax+edx], xmm0
	mov	eax, 4
	shl	eax, 1
	mov	ecx, DWORD PTR _g$[ebp]
	movss	xmm0, DWORD PTR [ecx+eax+4]
	addss	xmm0, DWORD PTR _s3$[ebp]
	mov	edx, 20					; 00000014H
	imul	eax, edx, 13
	mov	ecx, DWORD PTR _g$[ebp]
	add	eax, DWORD PTR [ecx+24]
	mov	edx, 4
	shl	edx, 1
	movss	DWORD PTR [eax+edx], xmm0

; 1240 : 	g->cva.mesh[14].v[0] = g->cva.pos[0] + s1;	g->cva.mesh[14].v[1] = g->cva.pos[1] - s1;	g->cva.mesh[14].v[2] = g->cva.pos[2] + s3;

	mov	eax, 4
	imul	ecx, eax, 0
	mov	edx, DWORD PTR _g$[ebp]
	movss	xmm0, DWORD PTR [edx+ecx+4]
	addss	xmm0, DWORD PTR _s1$[ebp]
	mov	eax, 20					; 00000014H
	imul	ecx, eax, 14
	mov	edx, DWORD PTR _g$[ebp]
	add	ecx, DWORD PTR [edx+24]
	mov	eax, 4
	imul	edx, eax, 0
	movss	DWORD PTR [ecx+edx], xmm0
	mov	eax, 4
	shl	eax, 0
	mov	ecx, DWORD PTR _g$[ebp]
	movss	xmm0, DWORD PTR [ecx+eax+4]
	subss	xmm0, DWORD PTR _s1$[ebp]
	mov	edx, 20					; 00000014H
	imul	eax, edx, 14
	mov	ecx, DWORD PTR _g$[ebp]
	add	eax, DWORD PTR [ecx+24]
	mov	edx, 4
	shl	edx, 0
	movss	DWORD PTR [eax+edx], xmm0
	mov	eax, 4
	shl	eax, 1
	mov	ecx, DWORD PTR _g$[ebp]
	movss	xmm0, DWORD PTR [ecx+eax+4]
	addss	xmm0, DWORD PTR _s3$[ebp]
	mov	edx, 20					; 00000014H
	imul	eax, edx, 14
	mov	ecx, DWORD PTR _g$[ebp]
	add	eax, DWORD PTR [ecx+24]
	mov	edx, 4
	shl	edx, 1
	movss	DWORD PTR [eax+edx], xmm0

; 1241 : 	g->cva.mesh[15].v[0] = g->cva.pos[0] + s1;	g->cva.mesh[15].v[1] = g->cva.pos[1] - s1;	g->cva.mesh[15].v[2] = g->cva.pos[2];

	mov	eax, 4
	imul	ecx, eax, 0
	mov	edx, DWORD PTR _g$[ebp]
	movss	xmm0, DWORD PTR [edx+ecx+4]
	addss	xmm0, DWORD PTR _s1$[ebp]
	mov	eax, 20					; 00000014H
	imul	ecx, eax, 15
	mov	edx, DWORD PTR _g$[ebp]
	add	ecx, DWORD PTR [edx+24]
	mov	eax, 4
	imul	edx, eax, 0
	movss	DWORD PTR [ecx+edx], xmm0
	mov	eax, 4
	shl	eax, 0
	mov	ecx, DWORD PTR _g$[ebp]
	movss	xmm0, DWORD PTR [ecx+eax+4]
	subss	xmm0, DWORD PTR _s1$[ebp]
	mov	edx, 20					; 00000014H
	imul	eax, edx, 15
	mov	ecx, DWORD PTR _g$[ebp]
	add	eax, DWORD PTR [ecx+24]
	mov	edx, 4
	shl	edx, 0
	movss	DWORD PTR [eax+edx], xmm0
	mov	eax, 4
	shl	eax, 1
	mov	ecx, 20					; 00000014H
	imul	edx, ecx, 15
	mov	ecx, DWORD PTR _g$[ebp]
	add	edx, DWORD PTR [ecx+24]
	mov	ecx, 4
	shl	ecx, 1
	mov	esi, DWORD PTR _g$[ebp]
	mov	eax, DWORD PTR [esi+eax+4]
	mov	DWORD PTR [edx+ecx], eax

; 1242 : }

	pop	edi
	pop	esi
	pop	ebx
	mov	esp, ebp
	pop	ebp
	ret	0
?R_ReSizeGrass@@YAXPAUgrass_s@@M@Z ENDP			; R_ReSizeGrass
_TEXT	ENDS
; Function compile flags: /Odtp /ZI
; File d:\!diffusion 2020\source code 2022\client-server\client\render\r_grass.cpp
;	COMDAT ?R_GrassTextureForName@@YAEPBD@Z
_TEXT	SEGMENT
_i$ = -1						; size = 1
_name$ = 8						; size = 4
?R_GrassTextureForName@@YAEPBD@Z PROC			; R_GrassTextureForName, COMDAT

; 1078 : {

	push	ebp
	mov	ebp, esp
	sub	esp, 68					; 00000044H
	push	ebx
	push	esi
	push	edi

; 1079 : 	byte i;
; 1080 : 	for( i = 0; i < GRASS_TEXTURES && grasstexs[i].name[0]; i++ )

	mov	BYTE PTR _i$[ebp], 0
	jmp	SHORT $LN4@R_GrassTex
$LN2@R_GrassTex:
	mov	al, BYTE PTR _i$[ebp]
	add	al, 1
	mov	BYTE PTR _i$[ebp], al
$LN4@R_GrassTex:
	movzx	eax, BYTE PTR _i$[ebp]
	cmp	eax, 256				; 00000100H
	jge	SHORT $LN3@R_GrassTex
	movzx	eax, BYTE PTR _i$[ebp]
	imul	ecx, eax, 264
	mov	edx, 1
	imul	eax, edx, 0
	movsx	ecx, BYTE PTR ?grasstexs@@3PAUgrasstex_s@@A[ecx+eax]
	test	ecx, ecx
	je	SHORT $LN3@R_GrassTex

; 1081 : 	{
; 1082 : 		if( !Q_stricmp( grasstexs[i].name, name ))

	push	99999					; 0001869fH
	mov	eax, DWORD PTR _name$[ebp]
	push	eax
	movzx	ecx, BYTE PTR _i$[ebp]
	imul	edx, ecx, 264
	add	edx, OFFSET ?grasstexs@@3PAUgrasstex_s@@A ; grasstexs
	push	edx
	call	?Q_strnicmp@@YAHPBD0H@Z			; Q_strnicmp
	add	esp, 12					; 0000000cH
	test	eax, eax
	jne	SHORT $LN5@R_GrassTex

; 1083 : 			return i;	// found

	mov	al, BYTE PTR _i$[ebp]
	jmp	$LN1@R_GrassTex
$LN5@R_GrassTex:

; 1084 : 	}

	jmp	SHORT $LN2@R_GrassTex
$LN3@R_GrassTex:

; 1085 : 
; 1086 : 	// allocate a new one
; 1087 : 	Q_strncpy( grasstexs[i].name, name, sizeof( grasstexs[i].name ));

	push	256					; 00000100H
	mov	eax, DWORD PTR _name$[ebp]
	push	eax
	movzx	ecx, BYTE PTR _i$[ebp]
	imul	edx, ecx, 264
	add	edx, OFFSET ?grasstexs@@3PAUgrasstex_s@@A ; grasstexs
	push	edx
	call	?Q_strncpy@@YAIPADPBDI@Z		; Q_strncpy
	add	esp, 12					; 0000000cH

; 1088 : 	grasstexs[i].gl_texturenum = LOAD_TEXTURE( name, NULL, 0, TF_CLAMP );

	push	2048					; 00000800H
	push	0
	push	0
	mov	eax, DWORD PTR _name$[ebp]
	push	eax
	call	DWORD PTR ?gRenderfuncs@@3Urender_api_s@@A+60
	add	esp, 16					; 00000010H
	movzx	ecx, BYTE PTR _i$[ebp]
	imul	edx, ecx, 264
	mov	DWORD PTR ?grasstexs@@3PAUgrasstex_s@@A[edx+256], eax

; 1089 : 
; 1090 : 	if( !grasstexs[i].gl_texturenum )

	movzx	eax, BYTE PTR _i$[ebp]
	imul	ecx, eax, 264
	cmp	DWORD PTR ?grasstexs@@3PAUgrasstex_s@@A[ecx+256], 0
	jne	SHORT $LN6@R_GrassTex

; 1091 : 	{
; 1092 : 		ALERT( at_warning, "couldn't load %s\n", name );

	mov	eax, DWORD PTR _name$[ebp]
	push	eax
	push	OFFSET ??_C@_0BC@HJBMIBGI@couldn?8t?5load?5?$CFs?6?$AA@
	push	3
	call	?ALERT@@YAXW4ALERT_TYPE@@PADZZ		; ALERT
	add	esp, 12					; 0000000cH

; 1093 : 		grasstexs[i].gl_texturenum = tr.defaultTexture;

	movzx	eax, BYTE PTR _i$[ebp]
	imul	ecx, eax, 264
	mov	edx, DWORD PTR ?tr@@3Uref_globals_t@@A+44
	mov	DWORD PTR ?grasstexs@@3PAUgrasstex_s@@A[ecx+256], edx
$LN6@R_GrassTex:

; 1094 : 	}
; 1095 : 
; 1096 : 	return i;

	mov	al, BYTE PTR _i$[ebp]
$LN1@R_GrassTex:

; 1097 : }

	pop	edi
	pop	esi
	pop	ebx
	mov	esp, ebp
	pop	ebp
	ret	0
?R_GrassTextureForName@@YAEPBD@Z ENDP			; R_GrassTextureForName
_TEXT	ENDS
; Function compile flags: /Odtp /ZI
; File d:\!diffusion 2020\source code 2022\client-server\client\render\r_grass.cpp
;	COMDAT ?R_ConstructGrass@@YAXPAUmsurface_s@@@Z
_TEXT	SEGMENT
tv131 = -260						; size = 4
$T1 = -256						; size = 12
$T2 = -244						; size = 12
$T3 = -232						; size = 12
$T4 = -220						; size = 12
_pos$5 = -144						; size = 12
_v$6 = -132						; size = 4
_u$7 = -128						; size = 4
_k$8 = -124						; size = 4
_g$9 = -120						; size = 4
_numSamples$10 = -116					; size = 4
_area$11 = -112						; size = 4
_normalLength$12 = -108					; size = 4
_areaVec$13 = -104					; size = 12
_e2$14 = -92						; size = 12
_e1$15 = -80						; size = 12
_j$16 = -68						; size = 4
_g$17 = -64						; size = 4
_k$18 = -60						; size = 4
_ptr$19 = -56						; size = 4
_grasshdr_size$20 = -52					; size = 4
_meshes_size$21 = -48					; size = 4
_mesh_size$22 = -44					; size = 4
_i$23 = -40						; size = 4
_total$ = -36						; size = 4
_hdr$ = -32						; size = 4
_entry$ = -28						; size = 4
_v2$ = -24						; size = 4
_v1$ = -20						; size = 4
_v0$ = -16						; size = 4
_es$ = -12						; size = 4
_land$ = -8						; size = 4
_texname$ = -4						; size = 4
_psurf$ = 8						; size = 4
?R_ConstructGrass@@YAXPAUmsurface_s@@@Z PROC		; R_ConstructGrass, COMDAT

; 960  : {

	push	ebp
	mov	ebp, esp
	sub	esp, 260				; 00000104H
	push	ebx
	push	esi
	push	edi

; 961  : 	char *texname = psurf->texinfo->texture->name;

	mov	eax, DWORD PTR _psurf$[ebp]
	mov	ecx, DWORD PTR [eax+44]
	mov	edx, DWORD PTR [ecx+36]
	mov	DWORD PTR _texname$[ebp], edx

; 962  : 	mfaceinfo_t *land = psurf->texinfo->faceinfo;

	mov	eax, DWORD PTR _psurf$[ebp]
	mov	ecx, DWORD PTR [eax+44]
	mov	edx, DWORD PTR [ecx+32]
	mov	DWORD PTR _land$[ebp], edx

; 963  : 	mextrasurf_t *es = psurf->info;

	mov	eax, DWORD PTR _psurf$[ebp]
	mov	ecx, DWORD PTR [eax+80]
	mov	DWORD PTR _es$[ebp], ecx

; 964  : 	bvert_t *v0, *v1, *v2;
; 965  : 	grassentry_t *entry;
; 966  : 	grasshdr_t *hdr;
; 967  : 	int total = 0;

	mov	DWORD PTR _total$[ebp], 0

; 968  : 
; 969  : 	// already init or not specified?
; 970  : 	if( es->grass || !es->grasscount )

	mov	eax, DWORD PTR _es$[ebp]
	cmp	DWORD PTR [eax+120], 0
	jne	SHORT $LN15@R_Construc
	mov	eax, DWORD PTR _es$[ebp]
	movzx	ecx, WORD PTR [eax+124]
	test	ecx, ecx
	jne	SHORT $LN14@R_Construc
$LN15@R_Construc:

; 971  : 		return;

	jmp	$LN1@R_Construc
$LN14@R_Construc:

; 972  : 
; 973  : 	for( int i = 0; i < grassInfo.Count(); i++ )

	mov	DWORD PTR _i$23[ebp], 0
	jmp	SHORT $LN4@R_Construc
$LN2@R_Construc:
	mov	eax, DWORD PTR _i$23[ebp]
	add	eax, 1
	mov	DWORD PTR _i$23[ebp], eax
$LN4@R_Construc:
	mov	ecx, OFFSET ?grassInfo@@3V?$CUtlArray@Ugrassentry_s@@V?$CUtlMemory@Ugrassentry_s@@H@@@@A ; grassInfo
	call	?Count@?$CUtlArray@Ugrassentry_s@@V?$CUtlMemory@Ugrassentry_s@@H@@@@QBEHXZ ; CUtlArray<grassentry_s,CUtlMemory<grassentry_s,int> >::Count
	cmp	DWORD PTR _i$23[ebp], eax
	jge	$LN3@R_Construc

; 974  : 	{
; 975  : 		entry = &grassInfo[i];

	mov	eax, DWORD PTR _i$23[ebp]
	push	eax
	mov	ecx, OFFSET ?grassInfo@@3V?$CUtlArray@Ugrassentry_s@@V?$CUtlMemory@Ugrassentry_s@@H@@@@A ; grassInfo
	call	??A?$CUtlArray@Ugrassentry_s@@V?$CUtlMemory@Ugrassentry_s@@H@@@@QAEAAUgrassentry_s@@H@Z ; CUtlArray<grassentry_s,CUtlMemory<grassentry_s,int> >::operator[]
	mov	DWORD PTR _entry$[ebp], eax

; 976  : 
; 977  : 		if( !Mod_CheckLayerNameForSurf( psurf, entry->name ))

	mov	eax, DWORD PTR _entry$[ebp]
	push	eax
	mov	ecx, DWORD PTR _psurf$[ebp]
	push	ecx
	call	?Mod_CheckLayerNameForSurf@@YA_NPAUmsurface_s@@PBD@Z ; Mod_CheckLayerNameForSurf
	add	esp, 8
	movzx	edx, al
	test	edx, edx
	jne	SHORT $LN16@R_Construc

; 978  : 			continue;

	jmp	SHORT $LN2@R_Construc
$LN16@R_Construc:

; 979  : 
; 980  : 		hdr = es->grass;

	mov	eax, DWORD PTR _es$[ebp]
	mov	ecx, DWORD PTR [eax+120]
	mov	DWORD PTR _hdr$[ebp], ecx

; 981  : 
; 982  : 		if( !hdr ) // first call?

	cmp	DWORD PTR _hdr$[ebp], 0
	jne	$LN6@R_Construc

; 983  : 		{
; 984  : 			size_t mesh_size = sizeof( grassvert_t ) * 16; // single mesh

	mov	DWORD PTR _mesh_size$22[ebp], 320	; 00000140H

; 985  : 			size_t meshes_size = mesh_size * es->grasscount;	// all meshes

	mov	eax, DWORD PTR _es$[ebp]
	movzx	ecx, WORD PTR [eax+124]
	imul	ecx, DWORD PTR _mesh_size$22[ebp]
	mov	DWORD PTR _meshes_size$21[ebp], ecx

; 986  : 			size_t grasshdr_size = sizeof( grasshdr_t ) + sizeof( grass_t ) * ( es->grasscount - 1 );

	mov	eax, DWORD PTR _es$[ebp]
	movzx	ecx, WORD PTR [eax+124]
	sub	ecx, 1
	imul	edx, ecx, 44
	add	edx, 104				; 00000068H
	mov	DWORD PTR _grasshdr_size$20[ebp], edx

; 987  : 			hdr = es->grass = (grasshdr_t *)IEngineStudio.Mem_Calloc( 1, grasshdr_size + meshes_size );

	mov	eax, DWORD PTR _grasshdr_size$20[ebp]
	add	eax, DWORD PTR _meshes_size$21[ebp]
	push	eax
	push	1
	call	DWORD PTR ?IEngineStudio@@3Uengine_studio_api_s@@A
	add	esp, 8
	mov	DWORD PTR tv131[ebp], eax
	mov	ecx, DWORD PTR _es$[ebp]
	mov	edx, DWORD PTR tv131[ebp]
	mov	DWORD PTR [ecx+120], edx
	mov	eax, DWORD PTR tv131[ebp]
	mov	DWORD PTR _hdr$[ebp], eax

; 988  : 			memset( hdr->cached_light, -1, sizeof( hdr->cached_light )); // relight for next update

	push	16					; 00000010H
	push	-1
	mov	eax, DWORD PTR _hdr$[ebp]
	push	eax
	call	_memset
	add	esp, 12					; 0000000cH

; 989  : 			tr.grass_total_size += grasshdr_size + meshes_size;

	mov	eax, DWORD PTR _grasshdr_size$20[ebp]
	add	eax, DWORD PTR _meshes_size$21[ebp]
	add	eax, DWORD PTR ?tr@@3Uref_globals_t@@A+5852556
	mov	DWORD PTR ?tr@@3Uref_globals_t@@A+5852556, eax

; 990  : 			hdr->mins = es->mins;

	mov	eax, DWORD PTR _hdr$[ebp]
	add	eax, 16					; 00000010H
	mov	ecx, DWORD PTR _es$[ebp]
	mov	edx, DWORD PTR [ecx]
	mov	DWORD PTR [eax], edx
	mov	edx, DWORD PTR [ecx+4]
	mov	DWORD PTR [eax+4], edx
	mov	ecx, DWORD PTR [ecx+8]
	mov	DWORD PTR [eax+8], ecx

; 991  : 			hdr->maxs = es->maxs;

	mov	eax, DWORD PTR _es$[ebp]
	add	eax, 12					; 0000000cH
	mov	ecx, DWORD PTR _hdr$[ebp]
	add	ecx, 28					; 0000001cH
	mov	edx, DWORD PTR [eax]
	mov	DWORD PTR [ecx], edx
	mov	edx, DWORD PTR [eax+4]
	mov	DWORD PTR [ecx+4], edx
	mov	eax, DWORD PTR [eax+8]
	mov	DWORD PTR [ecx+8], eax

; 992  : 			hdr->dist = -1.0f;

	mov	eax, DWORD PTR _hdr$[ebp]
	movss	xmm0, DWORD PTR __real@bf800000
	movss	DWORD PTR [eax+56], xmm0

; 993  : 
; 994  : 			byte *ptr = (byte *)hdr + grasshdr_size; // grass meshes goes immediately after all grass_t

	mov	eax, DWORD PTR _hdr$[ebp]
	add	eax, DWORD PTR _grasshdr_size$20[ebp]
	mov	DWORD PTR _ptr$19[ebp], eax

; 995  : 
; 996  : 			// set pointers for meshes
; 997  : 			for( int k = 0; k < es->grasscount; k++ )

	mov	DWORD PTR _k$18[ebp], 0
	jmp	SHORT $LN7@R_Construc
$LN5@R_Construc:
	mov	eax, DWORD PTR _k$18[ebp]
	add	eax, 1
	mov	DWORD PTR _k$18[ebp], eax
$LN7@R_Construc:
	mov	eax, DWORD PTR _es$[ebp]
	movzx	ecx, WORD PTR [eax+124]
	cmp	DWORD PTR _k$18[ebp], ecx
	jge	SHORT $LN6@R_Construc

; 998  : 			{
; 999  : 				grass_t *g = &hdr->g[k];

	imul	eax, DWORD PTR _k$18[ebp], 44
	mov	ecx, DWORD PTR _hdr$[ebp]
	lea	edx, DWORD PTR [ecx+eax+60]
	mov	DWORD PTR _g$17[ebp], edx

; 1000 : 				g->cva.mesh = (grassvert_t *)ptr;

	mov	eax, DWORD PTR _g$17[ebp]
	mov	ecx, DWORD PTR _ptr$19[ebp]
	mov	DWORD PTR [eax+24], ecx

; 1001 : 				ptr += mesh_size;

	mov	eax, DWORD PTR _ptr$19[ebp]
	add	eax, DWORD PTR _mesh_size$22[ebp]
	mov	DWORD PTR _ptr$19[ebp], eax

; 1002 : 			}

	jmp	SHORT $LN5@R_Construc
$LN6@R_Construc:

; 1003 : 		}
; 1004 : 
; 1005 : 		// update random set to get predictable positions for grass 'random' placement
; 1006 : 		RANDOM_SEED(( psurf - worldmodel->surfaces ) * entry->seed );

	mov	eax, DWORD PTR ?worldmodel@@3PAUmodel_s@@A ; worldmodel
	mov	ecx, DWORD PTR _psurf$[ebp]
	sub	ecx, DWORD PTR [eax+180]
	mov	eax, ecx
	cdq
	mov	ecx, 92					; 0000005cH
	idiv	ecx
	mov	edx, DWORD PTR _entry$[ebp]
	imul	eax, DWORD PTR [edx+32]
	push	eax
	call	DWORD PTR ?gRenderfuncs@@3Urender_api_s@@A+256
	add	esp, 4

; 1007 : 
; 1008 : 		// turn the face into a bunch of polygons, and compute the area of each
; 1009 : 		v0 = &world->vertexes[es->firstvertex];

	mov	eax, DWORD PTR _es$[ebp]
	imul	ecx, DWORD PTR [eax+128], 100
	mov	edx, DWORD PTR ?world@@3PAUgl_world_t@@A ; world
	add	ecx, DWORD PTR [edx+112]
	mov	DWORD PTR _v0$[ebp], ecx

; 1010 : 
; 1011 : 		for( int j = 1; j < es->numverts - 1; j++ )

	mov	DWORD PTR _j$16[ebp], 1
	jmp	SHORT $LN10@R_Construc
$LN8@R_Construc:
	mov	eax, DWORD PTR _j$16[ebp]
	add	eax, 1
	mov	DWORD PTR _j$16[ebp], eax
$LN10@R_Construc:
	mov	eax, DWORD PTR _es$[ebp]
	movzx	ecx, WORD PTR [eax+126]
	sub	ecx, 1
	cmp	DWORD PTR _j$16[ebp], ecx
	jge	$LN9@R_Construc

; 1012 : 		{
; 1013 : 			v1 = &world->vertexes[es->firstvertex+j+0];

	mov	eax, DWORD PTR _es$[ebp]
	mov	ecx, DWORD PTR [eax+128]
	add	ecx, DWORD PTR _j$16[ebp]
	imul	edx, ecx, 100
	mov	eax, DWORD PTR ?world@@3PAUgl_world_t@@A ; world
	add	edx, DWORD PTR [eax+112]
	mov	DWORD PTR _v1$[ebp], edx

; 1014 : 			v2 = &world->vertexes[es->firstvertex+j+1];

	mov	eax, DWORD PTR _es$[ebp]
	mov	ecx, DWORD PTR [eax+128]
	mov	edx, DWORD PTR _j$16[ebp]
	lea	eax, DWORD PTR [ecx+edx+1]
	imul	ecx, eax, 100
	mov	edx, DWORD PTR ?world@@3PAUgl_world_t@@A ; world
	add	ecx, DWORD PTR [edx+112]
	mov	DWORD PTR _v2$[ebp], ecx

; 1015 : 
; 1016 : 			// compute two triangle edges
; 1017 : 			Vector e1 = v1->vertex - v0->vertex;

	mov	eax, DWORD PTR _v0$[ebp]
	push	eax
	lea	ecx, DWORD PTR _e1$15[ebp]
	push	ecx
	mov	ecx, DWORD PTR _v1$[ebp]
	call	??GVector@@QBE?AV0@ABV0@@Z		; Vector::operator-

; 1018 : 			Vector e2 = v2->vertex - v0->vertex;

	mov	eax, DWORD PTR _v0$[ebp]
	push	eax
	lea	ecx, DWORD PTR _e2$14[ebp]
	push	ecx
	mov	ecx, DWORD PTR _v2$[ebp]
	call	??GVector@@QBE?AV0@ABV0@@Z		; Vector::operator-

; 1019 : 
; 1020 : 			// compute the triangle area
; 1021 : 			Vector areaVec = CrossProduct( e1, e2 );

	lea	eax, DWORD PTR _e2$14[ebp]
	push	eax
	lea	ecx, DWORD PTR _e1$15[ebp]
	push	ecx
	lea	edx, DWORD PTR _areaVec$13[ebp]
	push	edx
	call	?CrossProduct@@YA?AVVector@@ABV1@0@Z	; CrossProduct
	add	esp, 12					; 0000000cH

; 1022 : 			float normalLength = areaVec.Length();

	lea	ecx, DWORD PTR _areaVec$13[ebp]
	call	?Length@Vector@@QBEMXZ			; Vector::Length
	fstp	DWORD PTR _normalLength$12[ebp]

; 1023 : 			float area = 0.5f * normalLength;

	movss	xmm0, DWORD PTR __real@3f000000
	mulss	xmm0, DWORD PTR _normalLength$12[ebp]
	movss	DWORD PTR _area$11[ebp], xmm0

; 1024 : 
; 1025 : 			// compute the number of samples to take
; 1026 : 			int numSamples = area * entry->density * DENSITY_FACTOR;

	mov	eax, DWORD PTR _entry$[ebp]
	movss	xmm0, DWORD PTR _area$11[ebp]
	mulss	xmm0, DWORD PTR [eax+20]
	mulss	xmm0, DWORD PTR __real@38d1b717
	cvttss2si ecx, xmm0
	mov	DWORD PTR _numSamples$10[ebp], ecx

; 1027 : 			grass_t *g = &hdr->g[hdr->count];

	mov	eax, DWORD PTR _hdr$[ebp]
	imul	ecx, DWORD PTR [eax+52], 44
	mov	edx, DWORD PTR _hdr$[ebp]
	lea	eax, DWORD PTR [edx+ecx+60]
	mov	DWORD PTR _g$9[ebp], eax

; 1028 : 
; 1029 : 			for( int k = 0; k < numSamples; k++ )

	mov	DWORD PTR _k$8[ebp], 0
	jmp	SHORT $LN13@R_Construc
$LN11@R_Construc:
	mov	eax, DWORD PTR _k$8[ebp]
	add	eax, 1
	mov	DWORD PTR _k$8[ebp], eax
$LN13@R_Construc:
	mov	eax, DWORD PTR _k$8[ebp]
	cmp	eax, DWORD PTR _numSamples$10[ebp]
	jge	$LN12@R_Construc

; 1030 : 			{
; 1031 : 				// Create a random sample...
; 1032 : 				float u = RANDOM_FLOAT( 0.0f, 1.0f );

	push	ecx
	movss	xmm0, DWORD PTR __real@3f800000
	movss	DWORD PTR [esp], xmm0
	push	ecx
	xorps	xmm0, xmm0
	movss	DWORD PTR [esp], xmm0
	call	DWORD PTR ?gEngfuncs@@3Ucl_enginefuncs_s@@A+268
	add	esp, 8
	fstp	DWORD PTR _u$7[ebp]

; 1033 : 				float v = RANDOM_FLOAT( 0.0f, 1.0f );

	push	ecx
	movss	xmm0, DWORD PTR __real@3f800000
	movss	DWORD PTR [esp], xmm0
	push	ecx
	xorps	xmm0, xmm0
	movss	DWORD PTR [esp], xmm0
	call	DWORD PTR ?gEngfuncs@@3Ucl_enginefuncs_s@@A+268
	add	esp, 8
	fstp	DWORD PTR _v$6[ebp]

; 1034 : 
; 1035 : 				if( v > ( 1.0f - u ))

	movss	xmm0, DWORD PTR __real@3f800000
	subss	xmm0, DWORD PTR _u$7[ebp]
	movss	xmm1, DWORD PTR _v$6[ebp]
	comiss	xmm1, xmm0
	jbe	SHORT $LN18@R_Construc

; 1036 : 				{
; 1037 : 					u = 1.0f - u;

	movss	xmm0, DWORD PTR __real@3f800000
	subss	xmm0, DWORD PTR _u$7[ebp]
	movss	DWORD PTR _u$7[ebp], xmm0

; 1038 : 					v = 1.0f - v;

	movss	xmm0, DWORD PTR __real@3f800000
	subss	xmm0, DWORD PTR _v$6[ebp]
	movss	DWORD PTR _v$6[ebp], xmm0
$LN18@R_Construc:

; 1039 : 				}
; 1040 : 
; 1041 : 				Vector pos = v0->vertex + e1 * u + e2 * v;

	push	ecx
	movss	xmm0, DWORD PTR _v$6[ebp]
	movss	DWORD PTR [esp], xmm0
	lea	eax, DWORD PTR $T2[ebp]
	push	eax
	lea	ecx, DWORD PTR _e2$14[ebp]
	call	??DVector@@QBE?AV0@M@Z			; Vector::operator*
	push	eax
	lea	ecx, DWORD PTR _pos$5[ebp]
	push	ecx
	push	ecx
	movss	xmm0, DWORD PTR _u$7[ebp]
	movss	DWORD PTR [esp], xmm0
	lea	edx, DWORD PTR $T4[ebp]
	push	edx
	lea	ecx, DWORD PTR _e1$15[ebp]
	call	??DVector@@QBE?AV0@M@Z			; Vector::operator*
	push	eax
	lea	eax, DWORD PTR $T3[ebp]
	push	eax
	mov	ecx, DWORD PTR _v0$[ebp]
	call	??HVector@@QBE?AV0@ABV0@@Z		; Vector::operator+
	mov	ecx, eax
	call	??HVector@@QBE?AV0@ABV0@@Z		; Vector::operator+

; 1042 : 				VectorCopy( pos, g->cva.pos );

	lea	ecx, DWORD PTR _pos$5[ebp]
	call	??BVector@@QAEPAMXZ			; Vector::operator float *
	mov	ecx, 4
	imul	edx, ecx, 0
	mov	ecx, 4
	imul	ecx, ecx, 0
	mov	esi, DWORD PTR _g$9[ebp]
	mov	edx, DWORD PTR [eax+edx]
	mov	DWORD PTR [esi+ecx+4], edx
	lea	ecx, DWORD PTR _pos$5[ebp]
	call	??BVector@@QAEPAMXZ			; Vector::operator float *
	mov	ecx, 4
	shl	ecx, 0
	mov	edx, 4
	shl	edx, 0
	mov	esi, DWORD PTR _g$9[ebp]
	mov	eax, DWORD PTR [eax+ecx]
	mov	DWORD PTR [esi+edx+4], eax
	lea	ecx, DWORD PTR _pos$5[ebp]
	call	??BVector@@QAEPAMXZ			; Vector::operator float *
	mov	ecx, 4
	shl	ecx, 1
	mov	edx, 4
	shl	edx, 1
	mov	esi, DWORD PTR _g$9[ebp]
	mov	eax, DWORD PTR [eax+ecx]
	mov	DWORD PTR [esi+edx+4], eax

; 1043 : 
; 1044 : 				if( !Mod_CheckLayerNameForPixel( land, g->cva.pos, entry->name ))

	mov	eax, DWORD PTR _g$9[ebp]
	add	eax, 4
	push	eax
	lea	ecx, DWORD PTR $T1[ebp]
	call	??0Vector@@QAE@QAM@Z			; Vector::Vector
	mov	ecx, DWORD PTR _entry$[ebp]
	push	ecx
	lea	edx, DWORD PTR $T1[ebp]
	push	edx
	mov	eax, DWORD PTR _land$[ebp]
	push	eax
	call	?Mod_CheckLayerNameForPixel@@YA_NPAUmfaceinfo_t@@ABVVector@@PBD@Z ; Mod_CheckLayerNameForPixel
	add	esp, 12					; 0000000cH
	movzx	ecx, al
	test	ecx, ecx
	jne	SHORT $LN19@R_Construc

; 1045 : 					continue;

	jmp	$LN11@R_Construc
$LN19@R_Construc:

; 1046 : 
; 1047 : 				g->cva.color[0] = g->cva.color[1] = g->cva.color[2] = g->cva.color[3] = 255;

	mov	eax, 1
	imul	ecx, eax, 3
	mov	edx, DWORD PTR _g$9[ebp]
	mov	BYTE PTR [edx+ecx+20], 255		; 000000ffH
	mov	eax, 1
	shl	eax, 1
	mov	ecx, DWORD PTR _g$9[ebp]
	mov	BYTE PTR [ecx+eax+20], 255		; 000000ffH
	mov	edx, 1
	shl	edx, 0
	mov	eax, DWORD PTR _g$9[ebp]
	mov	BYTE PTR [eax+edx+20], 255		; 000000ffH
	mov	ecx, 1
	imul	edx, ecx, 0
	mov	eax, DWORD PTR _g$9[ebp]
	mov	BYTE PTR [eax+edx+20], 255		; 000000ffH

; 1048 : 
; 1049 : 				g->texture = entry->texture;

	mov	eax, DWORD PTR _g$9[ebp]
	mov	ecx, DWORD PTR _entry$[ebp]
	mov	dl, BYTE PTR [ecx+16]
	mov	BYTE PTR [eax], dl

; 1050 : 				g->cva.size = RANDOM_FLOAT( entry->min, entry->max );

	mov	eax, DWORD PTR _entry$[ebp]
	push	ecx
	movss	xmm0, DWORD PTR [eax+28]
	movss	DWORD PTR [esp], xmm0
	mov	ecx, DWORD PTR _entry$[ebp]
	push	ecx
	movss	xmm0, DWORD PTR [ecx+24]
	movss	DWORD PTR [esp], xmm0
	call	DWORD PTR ?gEngfuncs@@3Ucl_enginefuncs_s@@A+268
	add	esp, 8
	mov	edx, DWORD PTR _g$9[ebp]
	fstp	DWORD PTR [edx+16]

; 1051 : 
; 1052 : 				R_BuildGrassMesh( hdr, g );

	mov	eax, DWORD PTR _g$9[ebp]
	push	eax
	mov	ecx, DWORD PTR _hdr$[ebp]
	push	ecx
	call	?R_BuildGrassMesh@@YAXPAUgrasshdr_s@@PAUgrass_s@@@Z ; R_BuildGrassMesh
	add	esp, 8

; 1053 : 				hdr->radius = RadiusFromBounds( hdr->mins, hdr->maxs );

	mov	eax, DWORD PTR _hdr$[ebp]
	add	eax, 28					; 0000001cH
	push	eax
	mov	ecx, DWORD PTR _hdr$[ebp]
	add	ecx, 16					; 00000010H
	push	ecx
	call	?RadiusFromBounds@@YAMABVVector@@0@Z	; RadiusFromBounds
	add	esp, 8
	mov	edx, DWORD PTR _hdr$[ebp]
	fstp	DWORD PTR [edx+44]

; 1054 : 
; 1055 : 				hdr->count++;

	mov	eax, DWORD PTR _hdr$[ebp]
	mov	ecx, DWORD PTR [eax+52]
	add	ecx, 1
	mov	edx, DWORD PTR _hdr$[ebp]
	mov	DWORD PTR [edx+52], ecx

; 1056 : 				total++;

	mov	eax, DWORD PTR _total$[ebp]
	add	eax, 1
	mov	DWORD PTR _total$[ebp], eax

; 1057 : 				g++;

	mov	eax, DWORD PTR _g$9[ebp]
	add	eax, 44					; 0000002cH
	mov	DWORD PTR _g$9[ebp], eax

; 1058 : 			}

	jmp	$LN11@R_Construc
$LN12@R_Construc:

; 1059 : 		}

	jmp	$LN8@R_Construc
$LN9@R_Construc:

; 1060 : 	}

	jmp	$LN2@R_Construc
$LN3@R_Construc:

; 1061 : 
; 1062 : 	if( total ) ALERT( at_aiconsole, "Surface %i, %i bushes created\n", psurf - worldmodel->surfaces, total );

	cmp	DWORD PTR _total$[ebp], 0
	je	SHORT $LN20@R_Construc
	mov	eax, DWORD PTR _total$[ebp]
	push	eax
	mov	ecx, DWORD PTR ?worldmodel@@3PAUmodel_s@@A ; worldmodel
	mov	eax, DWORD PTR _psurf$[ebp]
	sub	eax, DWORD PTR [ecx+180]
	cdq
	mov	ecx, 92					; 0000005cH
	idiv	ecx
	push	eax
	push	OFFSET ??_C@_0BP@OPJNCMAJ@Surface?5?$CFi?0?5?$CFi?5bushes?5created?6?$AA@
	push	2
	call	?ALERT@@YAXW4ALERT_TYPE@@PADZZ		; ALERT
	add	esp, 16					; 00000010H
$LN20@R_Construc:

; 1063 : 	if( total > psurf->info->grasscount )

	mov	eax, DWORD PTR _psurf$[ebp]
	mov	ecx, DWORD PTR [eax+80]
	movzx	edx, WORD PTR [ecx+124]
	cmp	DWORD PTR _total$[ebp], edx
	jle	SHORT $LN21@R_Construc

; 1064 : 		ALERT( at_error, "R_ConstructGrass: overflow %i > %i. Memory is corrupted!\n", total, psurf->info->grasscount );

	mov	eax, DWORD PTR _psurf$[ebp]
	mov	ecx, DWORD PTR [eax+80]
	movzx	edx, WORD PTR [ecx+124]
	push	edx
	mov	eax, DWORD PTR _total$[ebp]
	push	eax
	push	OFFSET ??_C@_0DK@NHHCLPEC@R_ConstructGrass?3?5overflow?5?$CFi?5?$DO?5@
	push	4
	call	?ALERT@@YAXW4ALERT_TYPE@@PADZZ		; ALERT
	add	esp, 16					; 00000010H
$LN21@R_Construc:

; 1065 : 
; 1066 : 	// restore normal randomization
; 1067 : 	RANDOM_SEED( 0 );

	push	0
	call	DWORD PTR ?gRenderfuncs@@3Urender_api_s@@A+256
	add	esp, 4
$LN1@R_Construc:

; 1068 : }

	pop	edi
	pop	esi
	pop	ebx
	mov	esp, ebp
	pop	ebp
	ret	0
?R_ConstructGrass@@YAXPAUmsurface_s@@@Z ENDP		; R_ConstructGrass
_TEXT	ENDS
; Function compile flags: /Odtp /ZI
; File d:\!diffusion 2020\source code 2022\client-server\client\render\r_grass.cpp
;	COMDAT ?R_BuildGrassMesh@@YAXPAUgrasshdr_s@@PAUgrass_s@@@Z
_TEXT	SEGMENT
_i$ = -16						; size = 4
_pos$ = -12						; size = 4
_s3$ = -8						; size = 4
_s2$ = -4						; size = 4
_grass$ = 8						; size = 4
_g$ = 12						; size = 4
?R_BuildGrassMesh@@YAXPAUgrasshdr_s@@PAUgrass_s@@@Z PROC ; R_BuildGrassMesh, COMDAT

; 904  : {

	push	ebp
	mov	ebp, esp
	sub	esp, 80					; 00000050H
	push	ebx
	push	esi
	push	edi

; 905  : 	float s2 = 16.0f * g->cva.size;

	mov	eax, DWORD PTR _g$[ebp]
	movss	xmm0, DWORD PTR __real@41800000
	mulss	xmm0, DWORD PTR [eax+16]
	movss	DWORD PTR _s2$[ebp], xmm0

; 906  : 	float s3 = 24.0f * g->cva.size;

	mov	eax, DWORD PTR _g$[ebp]
	movss	xmm0, DWORD PTR __real@41c00000
	mulss	xmm0, DWORD PTR [eax+16]
	movss	DWORD PTR _s3$[ebp], xmm0

; 907  : 	float pos;
; 908  : 	int i;
; 909  : 
; 910  : 	if( !g->cva.mesh )

	mov	eax, DWORD PTR _g$[ebp]
	cmp	DWORD PTR [eax+24], 0
	jne	SHORT $LN8@R_BuildGra

; 911  : 	{
; 912  : 		ALERT( at_error, "R_BuildGrassMesh: g->mesh == NULL\n" );

	push	OFFSET ??_C@_0CD@PLCNDBBL@R_BuildGrassMesh?3?5g?9?$DOmesh?5?$DN?$DN?5NUL@
	push	4
	call	?ALERT@@YAXW4ALERT_TYPE@@PADZZ		; ALERT
	add	esp, 8

; 913  : 		return;

	jmp	$LN1@R_BuildGra
$LN8@R_BuildGra:

; 914  : 	}
; 915  : 
; 916  : 	for( i = 0; i < 16; i++ )

	mov	DWORD PTR _i$[ebp], 0
	jmp	SHORT $LN4@R_BuildGra
$LN2@R_BuildGra:
	mov	eax, DWORD PTR _i$[ebp]
	add	eax, 1
	mov	DWORD PTR _i$[ebp], eax
$LN4@R_BuildGra:
	cmp	DWORD PTR _i$[ebp], 16			; 00000010H
	jge	SHORT $LN3@R_BuildGra

; 917  : 		*(int *)g->cva.mesh[i].c = *(int *)g->cva.color;

	imul	eax, DWORD PTR _i$[ebp], 20
	mov	ecx, DWORD PTR _g$[ebp]
	mov	edx, DWORD PTR [ecx+24]
	mov	ecx, DWORD PTR _g$[ebp]
	mov	ecx, DWORD PTR [ecx+20]
	mov	DWORD PTR [edx+eax+12], ecx
	jmp	SHORT $LN2@R_BuildGra
$LN3@R_BuildGra:

; 918  : 
; 919  : 	for( i = 0; i < 16; i += 4 )

	mov	DWORD PTR _i$[ebp], 0
	jmp	SHORT $LN7@R_BuildGra
$LN5@R_BuildGra:
	mov	eax, DWORD PTR _i$[ebp]
	add	eax, 4
	mov	DWORD PTR _i$[ebp], eax
$LN7@R_BuildGra:
	cmp	DWORD PTR _i$[ebp], 16			; 00000010H
	jge	$LN6@R_BuildGra

; 920  : 	{
; 921  : 		g->cva.mesh[i+0].t[0] = 0;

	imul	eax, DWORD PTR _i$[ebp], 20
	mov	ecx, DWORD PTR _g$[ebp]
	add	eax, DWORD PTR [ecx+24]
	mov	edx, 2
	imul	ecx, edx, 0
	xor	edx, edx
	mov	WORD PTR [eax+ecx+16], dx

; 922  : 		g->cva.mesh[i+0].t[1] = 1;

	imul	eax, DWORD PTR _i$[ebp], 20
	mov	ecx, DWORD PTR _g$[ebp]
	add	eax, DWORD PTR [ecx+24]
	mov	edx, 2
	shl	edx, 0
	mov	ecx, 1
	mov	WORD PTR [eax+edx+16], cx

; 923  : 		g->cva.mesh[i+1].t[0] = 0;

	mov	eax, DWORD PTR _i$[ebp]
	add	eax, 1
	imul	ecx, eax, 20
	mov	edx, DWORD PTR _g$[ebp]
	add	ecx, DWORD PTR [edx+24]
	mov	eax, 2
	imul	edx, eax, 0
	xor	eax, eax
	mov	WORD PTR [ecx+edx+16], ax

; 924  : 		g->cva.mesh[i+1].t[1] = 0;

	mov	eax, DWORD PTR _i$[ebp]
	add	eax, 1
	imul	ecx, eax, 20
	mov	edx, DWORD PTR _g$[ebp]
	add	ecx, DWORD PTR [edx+24]
	mov	eax, 2
	shl	eax, 0
	xor	edx, edx
	mov	WORD PTR [ecx+eax+16], dx

; 925  : 		g->cva.mesh[i+2].t[0] = 1;

	mov	eax, DWORD PTR _i$[ebp]
	add	eax, 2
	imul	ecx, eax, 20
	mov	edx, DWORD PTR _g$[ebp]
	add	ecx, DWORD PTR [edx+24]
	mov	eax, 2
	imul	edx, eax, 0
	mov	eax, 1
	mov	WORD PTR [ecx+edx+16], ax

; 926  : 		g->cva.mesh[i+2].t[1] = 0;

	mov	eax, DWORD PTR _i$[ebp]
	add	eax, 2
	imul	ecx, eax, 20
	mov	edx, DWORD PTR _g$[ebp]
	add	ecx, DWORD PTR [edx+24]
	mov	eax, 2
	shl	eax, 0
	xor	edx, edx
	mov	WORD PTR [ecx+eax+16], dx

; 927  : 		g->cva.mesh[i+3].t[0] = 1;

	mov	eax, DWORD PTR _i$[ebp]
	add	eax, 3
	imul	ecx, eax, 20
	mov	edx, DWORD PTR _g$[ebp]
	add	ecx, DWORD PTR [edx+24]
	mov	eax, 2
	imul	edx, eax, 0
	mov	eax, 1
	mov	WORD PTR [ecx+edx+16], ax

; 928  : 		g->cva.mesh[i+3].t[1] = 1;

	mov	eax, DWORD PTR _i$[ebp]
	add	eax, 3
	imul	ecx, eax, 20
	mov	edx, DWORD PTR _g$[ebp]
	add	ecx, DWORD PTR [edx+24]
	mov	eax, 2
	shl	eax, 0
	mov	edx, 1
	mov	WORD PTR [ecx+eax+16], dx

; 929  : 	}

	jmp	$LN5@R_BuildGra
$LN6@R_BuildGra:

; 930  : 
; 931  : 	pos = g->cva.pos[0] + s2;

	mov	eax, 4
	imul	ecx, eax, 0
	mov	edx, DWORD PTR _g$[ebp]
	movss	xmm0, DWORD PTR [edx+ecx+4]
	addss	xmm0, DWORD PTR _s2$[ebp]
	movss	DWORD PTR _pos$[ebp], xmm0

; 932  : 	if( pos > grass->maxs[0] )

	mov	ecx, DWORD PTR _grass$[ebp]
	add	ecx, 28					; 0000001cH
	call	??BVector@@QAEPAMXZ			; Vector::operator float *
	mov	ecx, 4
	imul	edx, ecx, 0
	movss	xmm0, DWORD PTR _pos$[ebp]
	comiss	xmm0, DWORD PTR [eax+edx]
	jbe	SHORT $LN9@R_BuildGra

; 933  : 		grass->maxs[0] = pos;

	mov	ecx, DWORD PTR _grass$[ebp]
	add	ecx, 28					; 0000001cH
	call	??BVector@@QAEPAMXZ			; Vector::operator float *
	mov	ecx, 4
	imul	edx, ecx, 0
	movss	xmm0, DWORD PTR _pos$[ebp]
	movss	DWORD PTR [eax+edx], xmm0
$LN9@R_BuildGra:

; 934  : 
; 935  : 	pos = g->cva.pos[0] - s2;

	mov	eax, 4
	imul	ecx, eax, 0
	mov	edx, DWORD PTR _g$[ebp]
	movss	xmm0, DWORD PTR [edx+ecx+4]
	subss	xmm0, DWORD PTR _s2$[ebp]
	movss	DWORD PTR _pos$[ebp], xmm0

; 936  : 	if( pos < grass->mins[0] )

	mov	ecx, DWORD PTR _grass$[ebp]
	add	ecx, 16					; 00000010H
	call	??BVector@@QAEPAMXZ			; Vector::operator float *
	mov	ecx, 4
	imul	edx, ecx, 0
	movss	xmm0, DWORD PTR [eax+edx]
	comiss	xmm0, DWORD PTR _pos$[ebp]
	jbe	SHORT $LN10@R_BuildGra

; 937  : 		grass->mins[0] = pos;

	mov	ecx, DWORD PTR _grass$[ebp]
	add	ecx, 16					; 00000010H
	call	??BVector@@QAEPAMXZ			; Vector::operator float *
	mov	ecx, 4
	imul	edx, ecx, 0
	movss	xmm0, DWORD PTR _pos$[ebp]
	movss	DWORD PTR [eax+edx], xmm0
$LN10@R_BuildGra:

; 938  : 
; 939  : 	pos = g->cva.pos[1] + s2;

	mov	eax, 4
	shl	eax, 0
	mov	ecx, DWORD PTR _g$[ebp]
	movss	xmm0, DWORD PTR [ecx+eax+4]
	addss	xmm0, DWORD PTR _s2$[ebp]
	movss	DWORD PTR _pos$[ebp], xmm0

; 940  : 	if( pos > grass->maxs[1] )

	mov	ecx, DWORD PTR _grass$[ebp]
	add	ecx, 28					; 0000001cH
	call	??BVector@@QAEPAMXZ			; Vector::operator float *
	mov	ecx, 4
	shl	ecx, 0
	movss	xmm0, DWORD PTR _pos$[ebp]
	comiss	xmm0, DWORD PTR [eax+ecx]
	jbe	SHORT $LN11@R_BuildGra

; 941  : 		grass->maxs[1] = pos;

	mov	ecx, DWORD PTR _grass$[ebp]
	add	ecx, 28					; 0000001cH
	call	??BVector@@QAEPAMXZ			; Vector::operator float *
	mov	ecx, 4
	shl	ecx, 0
	movss	xmm0, DWORD PTR _pos$[ebp]
	movss	DWORD PTR [eax+ecx], xmm0
$LN11@R_BuildGra:

; 942  : 
; 943  : 	pos = g->cva.pos[1] - s2;

	mov	eax, 4
	shl	eax, 0
	mov	ecx, DWORD PTR _g$[ebp]
	movss	xmm0, DWORD PTR [ecx+eax+4]
	subss	xmm0, DWORD PTR _s2$[ebp]
	movss	DWORD PTR _pos$[ebp], xmm0

; 944  : 	if( pos < grass->mins[1] )

	mov	ecx, DWORD PTR _grass$[ebp]
	add	ecx, 16					; 00000010H
	call	??BVector@@QAEPAMXZ			; Vector::operator float *
	mov	ecx, 4
	shl	ecx, 0
	movss	xmm0, DWORD PTR [eax+ecx]
	comiss	xmm0, DWORD PTR _pos$[ebp]
	jbe	SHORT $LN12@R_BuildGra

; 945  : 		grass->mins[1] = pos;

	mov	ecx, DWORD PTR _grass$[ebp]
	add	ecx, 16					; 00000010H
	call	??BVector@@QAEPAMXZ			; Vector::operator float *
	mov	ecx, 4
	shl	ecx, 0
	movss	xmm0, DWORD PTR _pos$[ebp]
	movss	DWORD PTR [eax+ecx], xmm0
$LN12@R_BuildGra:

; 946  : 
; 947  : 	pos = g->cva.pos[2] + s3;

	mov	eax, 4
	shl	eax, 1
	mov	ecx, DWORD PTR _g$[ebp]
	movss	xmm0, DWORD PTR [ecx+eax+4]
	addss	xmm0, DWORD PTR _s3$[ebp]
	movss	DWORD PTR _pos$[ebp], xmm0

; 948  : 	if( pos > grass->maxs[2] )

	mov	ecx, DWORD PTR _grass$[ebp]
	add	ecx, 28					; 0000001cH
	call	??BVector@@QAEPAMXZ			; Vector::operator float *
	mov	ecx, 4
	shl	ecx, 1
	movss	xmm0, DWORD PTR _pos$[ebp]
	comiss	xmm0, DWORD PTR [eax+ecx]
	jbe	SHORT $LN13@R_BuildGra

; 949  : 		grass->maxs[2] = pos;

	mov	ecx, DWORD PTR _grass$[ebp]
	add	ecx, 28					; 0000001cH
	call	??BVector@@QAEPAMXZ			; Vector::operator float *
	mov	ecx, 4
	shl	ecx, 1
	movss	xmm0, DWORD PTR _pos$[ebp]
	movss	DWORD PTR [eax+ecx], xmm0
$LN13@R_BuildGra:
$LN1@R_BuildGra:

; 950  : }

	pop	edi
	pop	esi
	pop	ebx
	mov	esp, ebp
	pop	ebp
	ret	0
?R_BuildGrassMesh@@YAXPAUgrasshdr_s@@PAUgrass_s@@@Z ENDP ; R_BuildGrassMesh
_TEXT	ENDS
; Function compile flags: /Odtp /ZI
; File d:\!diffusion 2020\source code 2022\client-server\client\render\r_grass.cpp
;	COMDAT ?R_ChooseGrassProgram@@YAGPAUmsurface_s@@PAUgrass_s@@_N@Z
_TEXT	SEGMENT
_s$ = 8							; size = 4
_g$ = 12						; size = 4
_lightpass$ = 16					; size = 1
?R_ChooseGrassProgram@@YAGPAUmsurface_s@@PAUgrass_s@@_N@Z PROC ; R_ChooseGrassProgram, COMDAT

; 714  : {

	push	ebp
	mov	ebp, esp
	sub	esp, 64					; 00000040H
	push	ebx
	push	esi
	push	edi

; 715  : 	if( FBitSet( RI->params, RP_SHADOWPASS )) // shadow pass

	mov	eax, DWORD PTR ?RI@@3PAUref_instance_t@@A ; RI
	mov	ecx, DWORD PTR [eax]
	and	ecx, 256				; 00000100H
	je	SHORT $LN2@R_ChooseGr

; 716  : 		return (glsl.grassDepthFill - glsl_programs);

	mov	eax, DWORD PTR ?glsl@@3Uref_shaders_t@@A+36
	sub	eax, OFFSET ?glsl_programs@@3PAUglsl_prog_s@@A ; glsl_programs
	cdq
	mov	ecx, 972				; 000003ccH
	idiv	ecx
	jmp	SHORT $LN1@R_ChooseGr
$LN2@R_ChooseGr:

; 717  : 
; 718  : 	if( lightpass )

	movzx	eax, BYTE PTR _lightpass$[ebp]
	test	eax, eax
	je	SHORT $LN3@R_ChooseGr

; 719  : 		return GL_UberShaderForGrassDlight( RI->currentlight, g );

	mov	eax, DWORD PTR _g$[ebp]
	push	eax
	mov	ecx, DWORD PTR ?RI@@3PAUref_instance_t@@A ; RI
	mov	edx, DWORD PTR [ecx+24]
	push	edx
	call	?GL_UberShaderForGrassDlight@@YAGPAUplight_s@@PAUgrass_s@@@Z ; GL_UberShaderForGrassDlight
	add	esp, 8
	jmp	SHORT $LN1@R_ChooseGr
$LN3@R_ChooseGr:

; 720  : 
; 721  : 	return GL_UberShaderForGrassSolid( s, g );

	mov	eax, DWORD PTR _g$[ebp]
	push	eax
	mov	ecx, DWORD PTR _s$[ebp]
	push	ecx
	call	?GL_UberShaderForGrassSolid@@YAGPAUmsurface_s@@PAUgrass_s@@@Z ; GL_UberShaderForGrassSolid
	add	esp, 8
$LN1@R_ChooseGr:

; 722  : }

	pop	edi
	pop	esi
	pop	ebx
	mov	esp, ebp
	pop	ebp
	ret	0
?R_ChooseGrassProgram@@YAGPAUmsurface_s@@PAUgrass_s@@_N@Z ENDP ; R_ChooseGrassProgram
_TEXT	ENDS
; Function compile flags: /Odtp /ZI
; File d:\!diffusion 2020\source code 2022\client-server\client\render\r_grass.cpp
;	COMDAT ?R_DrawLightForGrassMesh@@YAXPAUplight_s@@PAUgrass_s@@HAAG2@Z
_TEXT	SEGMENT
_glm$1 = -92						; size = 4
_shadowHeight$2 = -88					; size = 4
_shadowWidth$3 = -84					; size = 4
_lightdir$4 = -80					; size = 12
_gl_lightViewProjMatrix$ = -68				; size = 64
__$ArrayPad$ = -4					; size = 4
_pl$ = 8						; size = 4
_grass$ = 12						; size = 4
_tex$ = 16						; size = 4
_hLastShader$ = 20					; size = 4
_hCachedMatrix$ = 24					; size = 4
?R_DrawLightForGrassMesh@@YAXPAUplight_s@@PAUgrass_s@@HAAG2@Z PROC ; R_DrawLightForGrassMesh, COMDAT

; 530  : {	

	push	ebp
	mov	ebp, esp
	sub	esp, 156				; 0000009cH
	mov	eax, DWORD PTR ___security_cookie
	xor	eax, ebp
	mov	DWORD PTR __$ArrayPad$[ebp], eax
	push	ebx
	push	esi
	push	edi

; 531  : 	if( pl->flags & CF_NOGRASSLIGHTING )

	mov	eax, DWORD PTR _pl$[ebp]
	mov	ecx, DWORD PTR [eax+744]
	and	ecx, 4096				; 00001000H
	je	SHORT $LN2@R_DrawLigh

; 532  : 		return;

	jmp	$LN1@R_DrawLigh
$LN2@R_DrawLigh:

; 533  : 
; 534  : 	GLfloat gl_lightViewProjMatrix[16];
; 535  : 
; 536  : 	if( hLastShader != grass->vbo.hLightShader )

	mov	eax, DWORD PTR _hLastShader$[ebp]
	movzx	ecx, WORD PTR [eax]
	mov	edx, DWORD PTR _grass$[ebp]
	movzx	eax, WORD PTR [edx+6]
	cmp	ecx, eax
	je	$LN3@R_DrawLigh

; 537  : 	{
; 538  : 		Vector lightdir = pl->frustum.GetPlane( FRUSTUM_FAR )->normal;

	push	4
	mov	ecx, DWORD PTR _pl$[ebp]
	add	ecx, 328				; 00000148H
	call	?GetPlane@CFrustum@@QBEPBUmplane_s@@H@Z	; CFrustum::GetPlane
	push	eax
	lea	ecx, DWORD PTR _lightdir$4[ebp]
	call	??0Vector@@QAE@ABV0@@Z			; Vector::Vector

; 539  : 		pl->lightviewProjMatrix.CopyToArray( gl_lightViewProjMatrix );

	lea	eax, DWORD PTR _gl_lightViewProjMatrix$[ebp]
	push	eax
	mov	ecx, DWORD PTR _pl$[ebp]
	add	ecx, 176				; 000000b0H
	call	?CopyToArray@matrix4x4@@QBEXPAM@Z	; matrix4x4::CopyToArray

; 540  : 
; 541  : 		GL_BindShader( &glsl_programs[grass->vbo.hLightShader] );

	mov	eax, DWORD PTR _grass$[ebp]
	movzx	ecx, WORD PTR [eax+6]
	imul	edx, ecx, 972
	add	edx, OFFSET ?glsl_programs@@3PAUglsl_prog_s@@A ; glsl_programs
	push	edx
	call	?GL_BindShader@@YAXPAUglsl_prog_s@@@Z	; GL_BindShader
	add	esp, 4

; 542  : 
; 543  : 		ASSERT( RI->currentshader != NULL );

	mov	eax, DWORD PTR ?RI@@3PAUref_instance_t@@A ; RI
	cmp	DWORD PTR [eax+28], 0
	jne	SHORT $LN4@R_DrawLigh
	mov	eax, DWORD PTR ?__LINE__Var@?0??R_DrawLightForGrassMesh@@YAXPAUplight_s@@PAUgrass_s@@HAAG2@Z@4JA
	add	eax, 13					; 0000000dH
	push	eax
	push	OFFSET ??_C@_0EM@FOOGKCCC@d?3?2?$CBdiffusion?52020?2source?5code?52@
	push	OFFSET ??_C@_0BI@FECCGOFJ@assert?5failed?5at?5?$CFs?3?$CFi?6?$AA@
	call	DWORD PTR ?gRenderfuncs@@3Urender_api_s@@A+236
	add	esp, 12					; 0000000cH
$LN4@R_DrawLigh:

; 544  : 
; 545  : 		// write constants
; 546  : 		pglUniformMatrix4fvARB( RI->currentshader->u_LightViewProjectionMatrix, 1, GL_FALSE, &gl_lightViewProjMatrix[0] );

	mov	eax, 4
	imul	ecx, eax, 0
	lea	edx, DWORD PTR _gl_lightViewProjMatrix$[ebp+ecx]
	push	edx
	push	0
	push	1
	mov	eax, DWORD PTR ?RI@@3PAUref_instance_t@@A ; RI
	mov	ecx, DWORD PTR [eax+28]
	mov	edx, DWORD PTR [ecx+696]
	push	edx
	call	DWORD PTR ?pglUniformMatrix4fvARB@@3P6GXHHEPBM@ZA ; pglUniformMatrix4fvARB

; 547  : 		float shadowWidth = 1.0f / (float)RENDER_GET_PARM( PARM_TEX_WIDTH, pl->shadowTexture[0] );

	mov	eax, 4
	imul	ecx, eax, 0
	mov	edx, DWORD PTR _pl$[ebp]
	mov	eax, DWORD PTR [edx+ecx+468]
	push	eax
	push	1
	call	DWORD PTR ?gRenderfuncs@@3Urender_api_s@@A
	add	esp, 8
	cvtsi2ss xmm0, eax
	movss	xmm1, DWORD PTR __real@3f800000
	divss	xmm1, xmm0
	movss	DWORD PTR _shadowWidth$3[ebp], xmm1

; 548  : 		float shadowHeight = 1.0f / (float)RENDER_GET_PARM( PARM_TEX_HEIGHT, pl->shadowTexture[0] );

	mov	eax, 4
	imul	ecx, eax, 0
	mov	edx, DWORD PTR _pl$[ebp]
	mov	eax, DWORD PTR [edx+ecx+468]
	push	eax
	push	2
	call	DWORD PTR ?gRenderfuncs@@3Urender_api_s@@A
	add	esp, 8
	cvtsi2ss xmm0, eax
	movss	xmm1, DWORD PTR __real@3f800000
	divss	xmm1, xmm0
	movss	DWORD PTR _shadowHeight$2[ebp], xmm1

; 549  : 
; 550  : 		// depth scale and bias and shadowmap resolution
; 551  : 		pglUniform4fARB( RI->currentshader->u_LightDir, lightdir.x, lightdir.y, lightdir.z, pl->fov );

	mov	eax, DWORD PTR _pl$[ebp]
	push	ecx
	movss	xmm0, DWORD PTR [eax+748]
	movss	DWORD PTR [esp], xmm0
	push	ecx
	movss	xmm0, DWORD PTR _lightdir$4[ebp+8]
	movss	DWORD PTR [esp], xmm0
	push	ecx
	movss	xmm0, DWORD PTR _lightdir$4[ebp+4]
	movss	DWORD PTR [esp], xmm0
	push	ecx
	movss	xmm0, DWORD PTR _lightdir$4[ebp]
	movss	DWORD PTR [esp], xmm0
	mov	ecx, DWORD PTR ?RI@@3PAUref_instance_t@@A ; RI
	mov	edx, DWORD PTR [ecx+28]
	mov	eax, DWORD PTR [edx+744]
	push	eax
	call	DWORD PTR ?pglUniform4fARB@@3P6GXHMMMM@ZA ; pglUniform4fARB

; 552  : 		pglUniform4fARB( RI->currentshader->u_LightDiffuse, pl->color.r / 255.0f, pl->color.g / 255.0f, pl->color.b / 255.0f, pl->lightFalloff );

	mov	eax, DWORD PTR _pl$[ebp]
	push	ecx
	movss	xmm0, DWORD PTR [eax+740]
	movss	DWORD PTR [esp], xmm0
	mov	ecx, DWORD PTR _pl$[ebp]
	movzx	edx, BYTE PTR [ecx+30]
	cvtsi2ss xmm0, edx
	divss	xmm0, DWORD PTR __real@437f0000
	push	ecx
	movss	DWORD PTR [esp], xmm0
	mov	eax, DWORD PTR _pl$[ebp]
	movzx	ecx, BYTE PTR [eax+29]
	cvtsi2ss xmm0, ecx
	divss	xmm0, DWORD PTR __real@437f0000
	push	ecx
	movss	DWORD PTR [esp], xmm0
	mov	edx, DWORD PTR _pl$[ebp]
	movzx	eax, BYTE PTR [edx+28]
	cvtsi2ss xmm0, eax
	divss	xmm0, DWORD PTR __real@437f0000
	push	ecx
	movss	DWORD PTR [esp], xmm0
	mov	ecx, DWORD PTR ?RI@@3PAUref_instance_t@@A ; RI
	mov	edx, DWORD PTR [ecx+28]
	mov	eax, DWORD PTR [edx+760]
	push	eax
	call	DWORD PTR ?pglUniform4fARB@@3P6GXHMMMM@ZA ; pglUniform4fARB

; 553  : 		pglUniform4fARB( RI->currentshader->u_ShadowParams, shadowWidth, shadowHeight, -pl->projectionMatrix[2][2], pl->projectionMatrix[3][2] );

	push	3
	mov	ecx, DWORD PTR _pl$[ebp]
	add	ecx, 48					; 00000030H
	call	??Amatrix4x4@@QAEPAMH@Z			; matrix4x4::operator[]
	mov	ecx, 4
	shl	ecx, 1
	push	ecx
	movss	xmm0, DWORD PTR [eax+ecx]
	movss	DWORD PTR [esp], xmm0
	push	2
	mov	ecx, DWORD PTR _pl$[ebp]
	add	ecx, 48					; 00000030H
	call	??Amatrix4x4@@QAEPAMH@Z			; matrix4x4::operator[]
	mov	edx, 4
	shl	edx, 1
	movss	xmm0, DWORD PTR [eax+edx]
	xorps	xmm0, DWORD PTR __xmm@80000000800000008000000080000000
	push	ecx
	movss	DWORD PTR [esp], xmm0
	push	ecx
	movss	xmm0, DWORD PTR _shadowHeight$2[ebp]
	movss	DWORD PTR [esp], xmm0
	push	ecx
	movss	xmm0, DWORD PTR _shadowWidth$3[ebp]
	movss	DWORD PTR [esp], xmm0
	mov	eax, DWORD PTR ?RI@@3PAUref_instance_t@@A ; RI
	mov	ecx, DWORD PTR [eax+28]
	mov	edx, DWORD PTR [ecx+836]
	push	edx
	call	DWORD PTR ?pglUniform4fARB@@3P6GXHMMMM@ZA ; pglUniform4fARB

; 554  : 		pglUniform4fARB( RI->currentshader->u_LightOrigin, pl->origin.x, pl->origin.y, pl->origin.z, ( 1.0f / pl->radius ));

	mov	eax, DWORD PTR _pl$[ebp]
	movss	xmm0, DWORD PTR __real@3f800000
	divss	xmm0, DWORD PTR [eax+24]
	push	ecx
	movss	DWORD PTR [esp], xmm0
	mov	ecx, DWORD PTR _pl$[ebp]
	push	ecx
	movss	xmm0, DWORD PTR [ecx+8]
	movss	DWORD PTR [esp], xmm0
	mov	edx, DWORD PTR _pl$[ebp]
	push	ecx
	movss	xmm0, DWORD PTR [edx+4]
	movss	DWORD PTR [esp], xmm0
	mov	eax, DWORD PTR _pl$[ebp]
	push	ecx
	movss	xmm0, DWORD PTR [eax]
	movss	DWORD PTR [esp], xmm0
	mov	ecx, DWORD PTR ?RI@@3PAUref_instance_t@@A ; RI
	mov	edx, DWORD PTR [ecx+28]
	mov	eax, DWORD PTR [edx+792]
	push	eax
	call	DWORD PTR ?pglUniform4fARB@@3P6GXHMMMM@ZA ; pglUniform4fARB

; 555  : 		pglUniform4fARB( RI->currentshader->u_FogParams, tr.fogColor[0], tr.fogColor[1], tr.fogColor[2], tr.fogDensity );

	push	ecx
	movss	xmm0, DWORD PTR ?tr@@3Uref_globals_t@@A+5830908
	movss	DWORD PTR [esp], xmm0
	mov	ecx, OFFSET ?tr@@3Uref_globals_t@@A+5830896
	call	??BVector@@QAEPAMXZ			; Vector::operator float *
	mov	ecx, 4
	shl	ecx, 1
	push	ecx
	movss	xmm0, DWORD PTR [eax+ecx]
	movss	DWORD PTR [esp], xmm0
	mov	ecx, OFFSET ?tr@@3Uref_globals_t@@A+5830896
	call	??BVector@@QAEPAMXZ			; Vector::operator float *
	mov	edx, 4
	shl	edx, 0
	push	ecx
	movss	xmm0, DWORD PTR [eax+edx]
	movss	DWORD PTR [esp], xmm0
	mov	ecx, OFFSET ?tr@@3Uref_globals_t@@A+5830896
	call	??BVector@@QAEPAMXZ			; Vector::operator float *
	mov	ecx, 4
	imul	edx, ecx, 0
	push	ecx
	movss	xmm0, DWORD PTR [eax+edx]
	movss	DWORD PTR [esp], xmm0
	mov	eax, DWORD PTR ?RI@@3PAUref_instance_t@@A ; RI
	mov	ecx, DWORD PTR [eax+28]
	mov	edx, DWORD PTR [ecx+788]
	push	edx
	call	DWORD PTR ?pglUniform4fARB@@3P6GXHMMMM@ZA ; pglUniform4fARB

; 556  : 		pglUniform1fARB( RI->currentshader->u_DynLightBrightness, pl->brightness );

	mov	eax, DWORD PTR _pl$[ebp]
	push	ecx
	movss	xmm0, DWORD PTR [eax+764]
	movss	DWORD PTR [esp], xmm0
	mov	ecx, DWORD PTR ?RI@@3PAUref_instance_t@@A ; RI
	mov	edx, DWORD PTR [ecx+28]
	mov	eax, DWORD PTR [edx+912]
	push	eax
	call	DWORD PTR ?pglUniform1fARB@@3P6GXHM@ZA	; pglUniform1fARB

; 557  : 
; 558  : 		GL_Bind( GL_TEXTURE1, pl->projectionTexture );

	mov	eax, DWORD PTR _pl$[ebp]
	mov	ecx, DWORD PTR [eax+452]
	push	ecx
	push	1
	call	DWORD PTR ?gRenderfuncs@@3Urender_api_s@@A+132
	add	esp, 8

; 559  : 		GL_Bind( GL_TEXTURE2, pl->shadowTexture[0] );

	mov	eax, 4
	imul	ecx, eax, 0
	mov	edx, DWORD PTR _pl$[ebp]
	mov	eax, DWORD PTR [edx+ecx+468]
	push	eax
	push	2
	call	DWORD PTR ?gRenderfuncs@@3Urender_api_s@@A+132
	add	esp, 8

; 560  : 
; 561  : 		pglUniform3fARB( RI->currentshader->u_ViewOrigin, tr.cached_vieworigin.x, tr.cached_vieworigin.y, tr.cached_vieworigin.z );

	push	ecx
	movss	xmm0, DWORD PTR ?tr@@3Uref_globals_t@@A+5836108
	movss	DWORD PTR [esp], xmm0
	push	ecx
	movss	xmm0, DWORD PTR ?tr@@3Uref_globals_t@@A+5836104
	movss	DWORD PTR [esp], xmm0
	push	ecx
	movss	xmm0, DWORD PTR ?tr@@3Uref_globals_t@@A+5836100
	movss	DWORD PTR [esp], xmm0
	mov	eax, DWORD PTR ?RI@@3PAUref_instance_t@@A ; RI
	mov	ecx, DWORD PTR [eax+28]
	mov	edx, DWORD PTR [ecx+800]
	push	edx
	call	DWORD PTR ?pglUniform3fARB@@3P6GXHMMM@ZA ; pglUniform3fARB

; 562  : 	//	pglUniform3fARB( RI->currentshader->u_ViewOrigin, RI->vieworg.x, RI->vieworg.y, RI->vieworg.z ); // diffusion - use render view origin, not eyes
; 563  : 		pglUniform1fARB( RI->currentshader->u_GrassFadeStart, m_flGrassFadeStart );

	push	ecx
	movss	xmm0, DWORD PTR ?m_flGrassFadeStart@@3MA
	movss	DWORD PTR [esp], xmm0
	mov	eax, DWORD PTR ?RI@@3PAUref_instance_t@@A ; RI
	mov	ecx, DWORD PTR [eax+28]
	mov	edx, DWORD PTR [ecx+888]
	push	edx
	call	DWORD PTR ?pglUniform1fARB@@3P6GXHM@ZA	; pglUniform1fARB

; 564  : 		pglUniform1fARB( RI->currentshader->u_GrassFadeDist, m_flGrassFadeDist );

	push	ecx
	movss	xmm0, DWORD PTR ?m_flGrassFadeDist@@3MA
	movss	DWORD PTR [esp], xmm0
	mov	eax, DWORD PTR ?RI@@3PAUref_instance_t@@A ; RI
	mov	ecx, DWORD PTR [eax+28]
	mov	edx, DWORD PTR [ecx+892]
	push	edx
	call	DWORD PTR ?pglUniform1fARB@@3P6GXHM@ZA	; pglUniform1fARB

; 565  : 		pglUniform1fARB( RI->currentshader->u_GrassFadeEnd, m_flGrassFadeEnd );

	push	ecx
	movss	xmm0, DWORD PTR ?m_flGrassFadeEnd@@3MA
	movss	DWORD PTR [esp], xmm0
	mov	eax, DWORD PTR ?RI@@3PAUref_instance_t@@A ; RI
	mov	ecx, DWORD PTR [eax+28]
	mov	edx, DWORD PTR [ecx+896]
	push	edx
	call	DWORD PTR ?pglUniform1fARB@@3P6GXHM@ZA	; pglUniform1fARB

; 566  : 		pglUniform1fARB( RI->currentshader->u_RealTime, tr.time );

	cvtsd2ss xmm0, QWORD PTR ?tr@@3Uref_globals_t@@A+8
	push	ecx
	movss	DWORD PTR [esp], xmm0
	mov	eax, DWORD PTR ?RI@@3PAUref_instance_t@@A ; RI
	mov	ecx, DWORD PTR [eax+28]
	mov	edx, DWORD PTR [ecx+868]
	push	edx
	call	DWORD PTR ?pglUniform1fARB@@3P6GXHM@ZA	; pglUniform1fARB

; 567  : 
; 568  : 		hLastShader = grass->vbo.hLightShader;

	mov	eax, DWORD PTR _hLastShader$[ebp]
	mov	ecx, DWORD PTR _grass$[ebp]
	mov	dx, WORD PTR [ecx+6]
	mov	WORD PTR [eax], dx

; 569  : 		hCachedMatrix = -1;

	mov	eax, 65535				; 0000ffffH
	mov	ecx, DWORD PTR _hCachedMatrix$[ebp]
	mov	WORD PTR [ecx], ax
$LN3@R_DrawLigh:

; 570  : 	}
; 571  : 
; 572  : 	GL_Bind( GL_TEXTURE0, grasstexs[tex].gl_texturenum );

	imul	eax, DWORD PTR _tex$[ebp], 264
	mov	ecx, DWORD PTR ?grasstexs@@3PAUgrasstex_s@@A[eax+256]
	push	ecx
	push	0
	call	DWORD PTR ?gRenderfuncs@@3Urender_api_s@@A+132
	add	esp, 8

; 573  : 
; 574  : 	if( grass->hCachedMatrix != hCachedMatrix )

	mov	eax, DWORD PTR _grass$[ebp]
	movzx	ecx, WORD PTR [eax+40]
	mov	edx, DWORD PTR _hCachedMatrix$[ebp]
	movzx	eax, WORD PTR [edx]
	cmp	ecx, eax
	je	SHORT $LN5@R_DrawLigh

; 575  : 	{
; 576  : 		gl_state_t *glm = &tr.cached_state[grass->hCachedMatrix];

	mov	eax, DWORD PTR _grass$[ebp]
	movzx	ecx, WORD PTR [eax+40]
	shl	ecx, 7
	add	ecx, OFFSET ?tr@@3Uref_globals_t@@A+6892
	mov	DWORD PTR _glm$1[ebp], ecx

; 577  : 
; 578  : 		pglUniformMatrix4fvARB( RI->currentshader->u_ModelMatrix, 1, GL_FALSE, &glm->modelMatrix[0] );

	mov	eax, 4
	imul	ecx, eax, 0
	add	ecx, DWORD PTR _glm$1[ebp]
	push	ecx
	push	0
	push	1
	mov	edx, DWORD PTR ?RI@@3PAUref_instance_t@@A ; RI
	mov	eax, DWORD PTR [edx+28]
	mov	ecx, DWORD PTR [eax+688]
	push	ecx
	call	DWORD PTR ?pglUniformMatrix4fvARB@@3P6GXHHEPBM@ZA ; pglUniformMatrix4fvARB

; 579  : 		hCachedMatrix = grass->hCachedMatrix;

	mov	eax, DWORD PTR _hCachedMatrix$[ebp]
	mov	ecx, DWORD PTR _grass$[ebp]
	mov	dx, WORD PTR [ecx+40]
	mov	WORD PTR [eax], dx
$LN5@R_DrawLigh:

; 580  : 	}
; 581  : 
; 582  : 	// render light for grass meshes
; 583  : 	R_DrawGrassMeshFromBuffer( grass );

	mov	eax, DWORD PTR _grass$[ebp]
	push	eax
	call	?R_DrawGrassMeshFromBuffer@@YAXPBUgrass_s@@@Z ; R_DrawGrassMeshFromBuffer
	add	esp, 4
$LN1@R_DrawLigh:

; 584  : }

	pop	edi
	pop	esi
	pop	ebx
	mov	ecx, DWORD PTR __$ArrayPad$[ebp]
	xor	ecx, ebp
	call	@__security_check_cookie@4
	mov	esp, ebp
	pop	ebp
	ret	0
?R_DrawLightForGrassMesh@@YAXPAUplight_s@@PAUgrass_s@@HAAG2@Z ENDP ; R_DrawLightForGrassMesh
_TEXT	ENDS
; Function compile flags: /Odtp /ZI
; File d:\!diffusion 2020\source code 2022\client-server\client\render\r_grass.cpp
;	COMDAT ?R_DrawGrassShadowMesh@@YAXPAUgrass_s@@HAAG@Z
_TEXT	SEGMENT
_glm$1 = -4						; size = 4
_grass$ = 8						; size = 4
_tex$ = 12						; size = 4
_hCachedMatrix$ = 16					; size = 4
?R_DrawGrassShadowMesh@@YAXPAUgrass_s@@HAAG@Z PROC	; R_DrawGrassShadowMesh, COMDAT

; 478  : {

	push	ebp
	mov	ebp, esp
	sub	esp, 68					; 00000044H
	push	ebx
	push	esi
	push	edi

; 479  : 	GL_Bind( GL_TEXTURE0, grasstexs[tex].gl_texturenum );

	imul	eax, DWORD PTR _tex$[ebp], 264
	mov	ecx, DWORD PTR ?grasstexs@@3PAUgrasstex_s@@A[eax+256]
	push	ecx
	push	0
	call	DWORD PTR ?gRenderfuncs@@3Urender_api_s@@A+132
	add	esp, 8

; 480  : 
; 481  : 	if( grass->hCachedMatrix != hCachedMatrix )

	mov	eax, DWORD PTR _grass$[ebp]
	movzx	ecx, WORD PTR [eax+40]
	mov	edx, DWORD PTR _hCachedMatrix$[ebp]
	movzx	eax, WORD PTR [edx]
	cmp	ecx, eax
	je	SHORT $LN2@R_DrawGras

; 482  : 	{
; 483  : 		gl_state_t *glm = &tr.cached_state[grass->hCachedMatrix];

	mov	eax, DWORD PTR _grass$[ebp]
	movzx	ecx, WORD PTR [eax+40]
	shl	ecx, 7
	add	ecx, OFFSET ?tr@@3Uref_globals_t@@A+6892
	mov	DWORD PTR _glm$1[ebp], ecx

; 484  : 		pglUniformMatrix4fvARB( RI->currentshader->u_ModelMatrix, 1, GL_FALSE, &glm->modelMatrix[0] );

	mov	eax, 4
	imul	ecx, eax, 0
	add	ecx, DWORD PTR _glm$1[ebp]
	push	ecx
	push	0
	push	1
	mov	edx, DWORD PTR ?RI@@3PAUref_instance_t@@A ; RI
	mov	eax, DWORD PTR [edx+28]
	mov	ecx, DWORD PTR [eax+688]
	push	ecx
	call	DWORD PTR ?pglUniformMatrix4fvARB@@3P6GXHHEPBM@ZA ; pglUniformMatrix4fvARB

; 485  : 		hCachedMatrix = grass->hCachedMatrix;

	mov	eax, DWORD PTR _hCachedMatrix$[ebp]
	mov	ecx, DWORD PTR _grass$[ebp]
	mov	dx, WORD PTR [ecx+40]
	mov	WORD PTR [eax], dx
$LN2@R_DrawGras:

; 486  : 	}
; 487  : 
; 488  : 	// render grass meshes
; 489  : 	R_DrawGrassMeshFromBuffer( grass );

	mov	eax, DWORD PTR _grass$[ebp]
	push	eax
	call	?R_DrawGrassMeshFromBuffer@@YAXPBUgrass_s@@@Z ; R_DrawGrassMeshFromBuffer
	add	esp, 4

; 490  : }

	pop	edi
	pop	esi
	pop	ebx
	mov	esp, ebp
	pop	ebp
	ret	0
?R_DrawGrassShadowMesh@@YAXPAUgrass_s@@HAAG@Z ENDP	; R_DrawGrassShadowMesh
_TEXT	ENDS
; Function compile flags: /Odtp /ZI
; File d:\!diffusion 2020\source code 2022\client-server\client\render\r_grass.cpp
;	COMDAT ?R_DrawGrassMesh@@YAXPAUgrass_s@@HAAG1@Z
_TEXT	SEGMENT
tv184 = -69						; size = 1
tv178 = -69						; size = 1
_glm$1 = -4						; size = 4
_grass$ = 8						; size = 4
_tex$ = 12						; size = 4
_hLastShader$ = 16					; size = 4
_hCachedMatrix$ = 20					; size = 4
?R_DrawGrassMesh@@YAXPAUgrass_s@@HAAG1@Z PROC		; R_DrawGrassMesh, COMDAT

; 436  : {

	push	ebp
	mov	ebp, esp
	sub	esp, 72					; 00000048H
	push	ebx
	push	esi
	push	edi

; 437  : 	if( hLastShader != grass->vbo.shaderNum )

	mov	eax, DWORD PTR _hLastShader$[ebp]
	movzx	ecx, WORD PTR [eax]
	mov	edx, DWORD PTR _grass$[ebp]
	movzx	eax, WORD PTR [edx+4]
	cmp	ecx, eax
	je	$LN2@R_DrawGras

; 438  : 	{
; 439  : 		GL_BindShader( &glsl_programs[grass->vbo.shaderNum] );

	mov	eax, DWORD PTR _grass$[ebp]
	movzx	ecx, WORD PTR [eax+4]
	imul	edx, ecx, 972
	add	edx, OFFSET ?glsl_programs@@3PAUglsl_prog_s@@A ; glsl_programs
	push	edx
	call	?GL_BindShader@@YAXPAUglsl_prog_s@@@Z	; GL_BindShader
	add	esp, 4

; 440  : 
; 441  : 		ASSERT( RI->currentshader != NULL );

	mov	eax, DWORD PTR ?RI@@3PAUref_instance_t@@A ; RI
	cmp	DWORD PTR [eax+28], 0
	jne	SHORT $LN3@R_DrawGras
	mov	eax, DWORD PTR ?__LINE__Var@?0??R_DrawGrassMesh@@YAXPAUgrass_s@@HAAG1@Z@4JA
	add	eax, 5
	push	eax
	push	OFFSET ??_C@_0EM@FOOGKCCC@d?3?2?$CBdiffusion?52020?2source?5code?52@
	push	OFFSET ??_C@_0BI@FECCGOFJ@assert?5failed?5at?5?$CFs?3?$CFi?6?$AA@
	call	DWORD PTR ?gRenderfuncs@@3Urender_api_s@@A+236
	add	esp, 12					; 0000000cH
$LN3@R_DrawGras:

; 442  : 
; 443  : 		pglUniform1fvARB( RI->currentshader->u_LightStyleValues, MAX_LIGHTSTYLES, &tr.lightstyles[0] );

	mov	eax, 4
	imul	ecx, eax, 0
	add	ecx, OFFSET ?tr@@3Uref_globals_t@@A+531440
	push	ecx
	push	64					; 00000040H
	mov	edx, DWORD PTR ?RI@@3PAUref_instance_t@@A ; RI
	mov	eax, DWORD PTR [edx+28]
	mov	ecx, DWORD PTR [eax+768]
	push	ecx
	call	DWORD PTR ?pglUniform1fvARB@@3P6GXHHPBM@ZA ; pglUniform1fvARB

; 444  : 		pglUniform3fARB( RI->currentshader->u_ViewOrigin, tr.cached_vieworigin.x, tr.cached_vieworigin.y, tr.cached_vieworigin.z );

	push	ecx
	movss	xmm0, DWORD PTR ?tr@@3Uref_globals_t@@A+5836108
	movss	DWORD PTR [esp], xmm0
	push	ecx
	movss	xmm0, DWORD PTR ?tr@@3Uref_globals_t@@A+5836104
	movss	DWORD PTR [esp], xmm0
	push	ecx
	movss	xmm0, DWORD PTR ?tr@@3Uref_globals_t@@A+5836100
	movss	DWORD PTR [esp], xmm0
	mov	eax, DWORD PTR ?RI@@3PAUref_instance_t@@A ; RI
	mov	ecx, DWORD PTR [eax+28]
	mov	edx, DWORD PTR [ecx+800]
	push	edx
	call	DWORD PTR ?pglUniform3fARB@@3P6GXHMMM@ZA ; pglUniform3fARB

; 445  : 		pglUniform4fARB( RI->currentshader->u_FogParams, tr.fogColor[0], tr.fogColor[1], tr.fogColor[2], tr.fogDensity );

	push	ecx
	movss	xmm0, DWORD PTR ?tr@@3Uref_globals_t@@A+5830908
	movss	DWORD PTR [esp], xmm0
	mov	ecx, OFFSET ?tr@@3Uref_globals_t@@A+5830896
	call	??BVector@@QAEPAMXZ			; Vector::operator float *
	mov	ecx, 4
	shl	ecx, 1
	push	ecx
	movss	xmm0, DWORD PTR [eax+ecx]
	movss	DWORD PTR [esp], xmm0
	mov	ecx, OFFSET ?tr@@3Uref_globals_t@@A+5830896
	call	??BVector@@QAEPAMXZ			; Vector::operator float *
	mov	edx, 4
	shl	edx, 0
	push	ecx
	movss	xmm0, DWORD PTR [eax+edx]
	movss	DWORD PTR [esp], xmm0
	mov	ecx, OFFSET ?tr@@3Uref_globals_t@@A+5830896
	call	??BVector@@QAEPAMXZ			; Vector::operator float *
	mov	ecx, 4
	imul	edx, ecx, 0
	push	ecx
	movss	xmm0, DWORD PTR [eax+edx]
	movss	DWORD PTR [esp], xmm0
	mov	eax, DWORD PTR ?RI@@3PAUref_instance_t@@A ; RI
	mov	ecx, DWORD PTR [eax+28]
	mov	edx, DWORD PTR [ecx+788]
	push	edx
	call	DWORD PTR ?pglUniform4fARB@@3P6GXHMMMM@ZA ; pglUniform4fARB

; 446  : 		pglUniform4fvARB( RI->currentshader->u_GammaTable, 64, &tr.gamma_table[0][0] );

	mov	eax, 16					; 00000010H
	imul	ecx, eax, 0
	add	ecx, OFFSET ?tr@@3Uref_globals_t@@A+5835076
	call	??BVector4D@@QAEPAMXZ			; Vector4D::operator float *
	mov	ecx, 4
	imul	edx, ecx, 0
	add	eax, edx
	push	eax
	push	64					; 00000040H
	mov	eax, DWORD PTR ?RI@@3PAUref_instance_t@@A ; RI
	mov	ecx, DWORD PTR [eax+28]
	mov	edx, DWORD PTR [ecx+680]
	push	edx
	call	DWORD PTR ?pglUniform4fvARB@@3P6GXHHPBM@ZA ; pglUniform4fvARB

; 447  : 		pglUniform1fARB( RI->currentshader->u_GrassFadeStart, m_flGrassFadeStart );

	push	ecx
	movss	xmm0, DWORD PTR ?m_flGrassFadeStart@@3MA
	movss	DWORD PTR [esp], xmm0
	mov	eax, DWORD PTR ?RI@@3PAUref_instance_t@@A ; RI
	mov	ecx, DWORD PTR [eax+28]
	mov	edx, DWORD PTR [ecx+888]
	push	edx
	call	DWORD PTR ?pglUniform1fARB@@3P6GXHM@ZA	; pglUniform1fARB

; 448  : 		pglUniform1fARB( RI->currentshader->u_GrassFadeDist, m_flGrassFadeDist );

	push	ecx
	movss	xmm0, DWORD PTR ?m_flGrassFadeDist@@3MA
	movss	DWORD PTR [esp], xmm0
	mov	eax, DWORD PTR ?RI@@3PAUref_instance_t@@A ; RI
	mov	ecx, DWORD PTR [eax+28]
	mov	edx, DWORD PTR [ecx+892]
	push	edx
	call	DWORD PTR ?pglUniform1fARB@@3P6GXHM@ZA	; pglUniform1fARB

; 449  : 		pglUniform1fARB( RI->currentshader->u_GrassFadeEnd, m_flGrassFadeEnd );

	push	ecx
	movss	xmm0, DWORD PTR ?m_flGrassFadeEnd@@3MA
	movss	DWORD PTR [esp], xmm0
	mov	eax, DWORD PTR ?RI@@3PAUref_instance_t@@A ; RI
	mov	ecx, DWORD PTR [eax+28]
	mov	edx, DWORD PTR [ecx+896]
	push	edx
	call	DWORD PTR ?pglUniform1fARB@@3P6GXHM@ZA	; pglUniform1fARB

; 450  : 		pglUniform1fARB( RI->currentshader->u_RealTime, tr.time );

	cvtsd2ss xmm0, QWORD PTR ?tr@@3Uref_globals_t@@A+8
	push	ecx
	movss	DWORD PTR [esp], xmm0
	mov	eax, DWORD PTR ?RI@@3PAUref_instance_t@@A ; RI
	mov	ecx, DWORD PTR [eax+28]
	mov	edx, DWORD PTR [ecx+868]
	push	edx
	call	DWORD PTR ?pglUniform1fARB@@3P6GXHM@ZA	; pglUniform1fARB

; 451  : 		hLastShader = grass->vbo.shaderNum;

	mov	eax, DWORD PTR _hLastShader$[ebp]
	mov	ecx, DWORD PTR _grass$[ebp]
	mov	dx, WORD PTR [ecx+4]
	mov	WORD PTR [eax], dx

; 452  : 		hCachedMatrix = -1;

	mov	eax, 65535				; 0000ffffH
	mov	ecx, DWORD PTR _hCachedMatrix$[ebp]
	mov	WORD PTR [ecx], ax
$LN2@R_DrawGras:

; 453  : 	}
; 454  : 
; 455  : 	if( CVAR_TO_BOOL( r_lightmap ) && !CVAR_TO_BOOL( r_fullbright ))

	cmp	DWORD PTR ?r_lightmap@@3PAUcvar_s@@A, 0	; r_lightmap
	je	SHORT $LN8@R_DrawGras
	mov	eax, DWORD PTR ?r_lightmap@@3PAUcvar_s@@A ; r_lightmap
	movss	xmm0, DWORD PTR [eax+12]
	ucomiss	xmm0, DWORD PTR __real@00000000
	lahf
	test	ah, 68					; 00000044H
	jnp	SHORT $LN8@R_DrawGras
	mov	BYTE PTR tv178[ebp], 1
	jmp	SHORT $LN9@R_DrawGras
$LN8@R_DrawGras:
	mov	BYTE PTR tv178[ebp], 0
$LN9@R_DrawGras:
	movzx	ecx, BYTE PTR tv178[ebp]
	test	ecx, ecx
	je	SHORT $LN4@R_DrawGras
	cmp	DWORD PTR ?r_fullbright@@3PAUcvar_s@@A, 0 ; r_fullbright
	je	SHORT $LN10@R_DrawGras
	mov	eax, DWORD PTR ?r_fullbright@@3PAUcvar_s@@A ; r_fullbright
	movss	xmm0, DWORD PTR [eax+12]
	ucomiss	xmm0, DWORD PTR __real@00000000
	lahf
	test	ah, 68					; 00000044H
	jnp	SHORT $LN10@R_DrawGras
	mov	BYTE PTR tv184[ebp], 1
	jmp	SHORT $LN11@R_DrawGras
$LN10@R_DrawGras:
	mov	BYTE PTR tv184[ebp], 0
$LN11@R_DrawGras:
	movzx	ecx, BYTE PTR tv184[ebp]
	test	ecx, ecx
	jne	SHORT $LN4@R_DrawGras

; 456  : 		GL_Bind( GL_TEXTURE0, tr.whiteTexture );

	mov	eax, DWORD PTR ?tr@@3Uref_globals_t@@A+32
	push	eax
	push	0
	call	DWORD PTR ?gRenderfuncs@@3Urender_api_s@@A+132
	add	esp, 8
	jmp	SHORT $LN5@R_DrawGras
$LN4@R_DrawGras:

; 457  : 	else GL_Bind( GL_TEXTURE0, grasstexs[tex].gl_texturenum );

	imul	eax, DWORD PTR _tex$[ebp], 264
	mov	ecx, DWORD PTR ?grasstexs@@3PAUgrasstex_s@@A[eax+256]
	push	ecx
	push	0
	call	DWORD PTR ?gRenderfuncs@@3Urender_api_s@@A+132
	add	esp, 8
$LN5@R_DrawGras:

; 458  : 
; 459  : 	if( grass->hCachedMatrix != hCachedMatrix )

	mov	eax, DWORD PTR _grass$[ebp]
	movzx	ecx, WORD PTR [eax+40]
	mov	edx, DWORD PTR _hCachedMatrix$[ebp]
	movzx	eax, WORD PTR [edx]
	cmp	ecx, eax
	je	SHORT $LN6@R_DrawGras

; 460  : 	{
; 461  : 		gl_state_t *glm = &tr.cached_state[grass->hCachedMatrix];

	mov	eax, DWORD PTR _grass$[ebp]
	movzx	ecx, WORD PTR [eax+40]
	shl	ecx, 7
	add	ecx, OFFSET ?tr@@3Uref_globals_t@@A+6892
	mov	DWORD PTR _glm$1[ebp], ecx

; 462  : 		pglUniformMatrix4fvARB( RI->currentshader->u_ModelMatrix, 1, GL_FALSE, &glm->modelMatrix[0] );

	mov	eax, 4
	imul	ecx, eax, 0
	add	ecx, DWORD PTR _glm$1[ebp]
	push	ecx
	push	0
	push	1
	mov	edx, DWORD PTR ?RI@@3PAUref_instance_t@@A ; RI
	mov	eax, DWORD PTR [edx+28]
	mov	ecx, DWORD PTR [eax+688]
	push	ecx
	call	DWORD PTR ?pglUniformMatrix4fvARB@@3P6GXHHEPBM@ZA ; pglUniformMatrix4fvARB

; 463  : 		hCachedMatrix = grass->hCachedMatrix;

	mov	eax, DWORD PTR _hCachedMatrix$[ebp]
	mov	ecx, DWORD PTR _grass$[ebp]
	mov	dx, WORD PTR [ecx+40]
	mov	WORD PTR [eax], dx
$LN6@R_DrawGras:

; 464  : 	}
; 465  : 
; 466  : 	// render grass meshes
; 467  : 	R_DrawGrassMeshFromBuffer( grass );

	mov	eax, DWORD PTR _grass$[ebp]
	push	eax
	call	?R_DrawGrassMeshFromBuffer@@YAXPBUgrass_s@@@Z ; R_DrawGrassMeshFromBuffer
	add	esp, 4

; 468  : }

	pop	edi
	pop	esi
	pop	ebx
	mov	esp, ebp
	pop	ebp
	ret	0
?R_DrawGrassMesh@@YAXPAUgrass_s@@HAAG1@Z ENDP		; R_DrawGrassMesh
_TEXT	ENDS
; Function compile flags: /Odtp /ZI
; File d:\!diffusion 2020\source code 2022\client-server\client\render\r_grass.cpp
;	COMDAT ?R_DrawGrassMeshFromBuffer@@YAXPBUgrass_s@@@Z
_TEXT	SEGMENT
_mesh$ = 8						; size = 4
?R_DrawGrassMeshFromBuffer@@YAXPBUgrass_s@@@Z PROC	; R_DrawGrassMeshFromBuffer, COMDAT

; 414  : {

	push	ebp
	mov	ebp, esp
	sub	esp, 64					; 00000040H
	push	ebx
	push	esi
	push	edi

; 415  : 	pglBindVertexArray( mesh->vbo.vao );

	mov	eax, DWORD PTR _mesh$[ebp]
	mov	ecx, DWORD PTR [eax+20]
	push	ecx
	call	DWORD PTR ?pglBindVertexArray@@3P6GXI@ZA ; pglBindVertexArray

; 416  : 	pglBindBufferARB( GL_ELEMENT_ARRAY_BUFFER_ARB, mesh->vbo.ibo );

	mov	eax, DWORD PTR _mesh$[ebp]
	mov	ecx, DWORD PTR [eax+24]
	push	ecx
	push	34963					; 00008893H
	call	DWORD PTR ?pglBindBufferARB@@3P6GXII@ZA	; pglBindBufferARB

; 417  : 
; 418  : 	if( GL_Support( R_DRAW_RANGEELEMENTS_EXT ))

	push	11					; 0000000bH
	call	?GL_Support@@YA_NH@Z			; GL_Support
	add	esp, 4
	movzx	eax, al
	test	eax, eax
	je	SHORT $LN2@R_DrawGras

; 419  : 		pglDrawRangeElementsEXT( GL_TRIANGLES, 0, mesh->vbo.numVerts - 1, mesh->vbo.numElems, GL_UNSIGNED_SHORT, 0 );

	push	0
	push	5123					; 00001403H
	mov	eax, DWORD PTR _mesh$[ebp]
	movzx	ecx, WORD PTR [eax+12]
	push	ecx
	mov	edx, DWORD PTR _mesh$[ebp]
	movzx	eax, WORD PTR [edx+10]
	sub	eax, 1
	push	eax
	push	0
	push	4
	call	DWORD PTR ?pglDrawRangeElementsEXT@@3P6GXIIIHIPBX@ZA ; pglDrawRangeElementsEXT

; 420  : 	else

	jmp	SHORT $LN3@R_DrawGras
$LN2@R_DrawGras:

; 421  : 		pglDrawElements( GL_TRIANGLES, mesh->vbo.numElems, GL_UNSIGNED_SHORT, 0 );

	push	0
	push	5123					; 00001403H
	mov	eax, DWORD PTR _mesh$[ebp]
	movzx	ecx, WORD PTR [eax+12]
	push	ecx
	push	4
	call	DWORD PTR ?pglDrawElements@@3P6GXIHIPBX@ZA ; pglDrawElements
$LN3@R_DrawGras:

; 422  : 
; 423  : 	r_stats.c_total_tris += (mesh->vbo.numVerts / 2);

	mov	eax, DWORD PTR _mesh$[ebp]
	movzx	eax, WORD PTR [eax+10]
	cdq
	sub	eax, edx
	sar	eax, 1
	add	eax, DWORD PTR ?r_stats@@3Uref_stats_t@@A+60
	mov	DWORD PTR ?r_stats@@3Uref_stats_t@@A+60, eax

; 424  : 	r_stats.c_grass_polys += (mesh->vbo.numVerts / 4);

	mov	eax, DWORD PTR _mesh$[ebp]
	movzx	eax, WORD PTR [eax+10]
	cdq
	and	edx, 3
	add	eax, edx
	sar	eax, 2
	add	eax, DWORD PTR ?r_stats@@3Uref_stats_t@@A+16
	mov	DWORD PTR ?r_stats@@3Uref_stats_t@@A+16, eax

; 425  : 	r_stats.num_flushes++;

	mov	eax, DWORD PTR ?r_stats@@3Uref_stats_t@@A+88
	add	eax, 1
	mov	DWORD PTR ?r_stats@@3Uref_stats_t@@A+88, eax

; 426  : }

	pop	edi
	pop	esi
	pop	ebx
	mov	esp, ebp
	pop	ebp
	ret	0
?R_DrawGrassMeshFromBuffer@@YAXPBUgrass_s@@@Z ENDP	; R_DrawGrassMeshFromBuffer
_TEXT	ENDS
; Function compile flags: /Odtp /ZI
; File d:\!diffusion 2020\source code 2022\client-server\client\render\r_grass.cpp
;	COMDAT ?R_ConstructGrassVBO@@YAXPAUmsurface_s@@@Z
_TEXT	SEGMENT
tv77 = -88						; size = 4
_entry$1 = -20						; size = 4
_i$2 = -16						; size = 4
_hdr$ = -12						; size = 4
_grasshdr_size$ = -8					; size = 4
_es$ = -4						; size = 4
_surf$ = 8						; size = 4
?R_ConstructGrassVBO@@YAXPAUmsurface_s@@@Z PROC		; R_ConstructGrassVBO, COMDAT

; 342  : {

	push	ebp
	mov	ebp, esp
	sub	esp, 88					; 00000058H
	push	ebx
	push	esi
	push	edi

; 343  : 	mextrasurf_t *es = surf->info;

	mov	eax, DWORD PTR _surf$[ebp]
	mov	ecx, DWORD PTR [eax+80]
	mov	DWORD PTR _es$[ebp], ecx

; 344  : 
; 345  : 	// already init or not specified?
; 346  : 	if( es->grass || !es->grasscount )

	mov	eax, DWORD PTR _es$[ebp]
	cmp	DWORD PTR [eax+120], 0
	jne	SHORT $LN6@R_Construc
	mov	eax, DWORD PTR _es$[ebp]
	movzx	ecx, WORD PTR [eax+124]
	test	ecx, ecx
	jne	SHORT $LN5@R_Construc
$LN6@R_Construc:

; 347  : 		return;

	jmp	$LN1@R_Construc
$LN5@R_Construc:

; 348  : 
; 349  : 	pglBindVertexArray( GL_FALSE );

	push	0
	call	DWORD PTR ?pglBindVertexArray@@3P6GXI@ZA ; pglBindVertexArray

; 350  : 
; 351  : 	size_t grasshdr_size = sizeof( grasshdr_t ) + sizeof( grass_t ) * ( es->grasscount - 1 );

	mov	eax, DWORD PTR _es$[ebp]
	movzx	ecx, WORD PTR [eax+124]
	sub	ecx, 1
	imul	edx, ecx, 44
	add	edx, 104				; 00000068H
	mov	DWORD PTR _grasshdr_size$[ebp], edx

; 352  : 	grasshdr_t *hdr = es->grass = (grasshdr_t *)IEngineStudio.Mem_Calloc( 1, grasshdr_size );

	mov	eax, DWORD PTR _grasshdr_size$[ebp]
	push	eax
	push	1
	call	DWORD PTR ?IEngineStudio@@3Uengine_studio_api_s@@A
	add	esp, 8
	mov	DWORD PTR tv77[ebp], eax
	mov	ecx, DWORD PTR _es$[ebp]
	mov	edx, DWORD PTR tv77[ebp]
	mov	DWORD PTR [ecx+120], edx
	mov	eax, DWORD PTR tv77[ebp]
	mov	DWORD PTR _hdr$[ebp], eax

; 353  : 	hdr->mins = es->mins;

	mov	eax, DWORD PTR _hdr$[ebp]
	add	eax, 16					; 00000010H
	mov	ecx, DWORD PTR _es$[ebp]
	mov	edx, DWORD PTR [ecx]
	mov	DWORD PTR [eax], edx
	mov	edx, DWORD PTR [ecx+4]
	mov	DWORD PTR [eax+4], edx
	mov	ecx, DWORD PTR [ecx+8]
	mov	DWORD PTR [eax+8], ecx

; 354  : 	hdr->maxs = es->maxs;

	mov	eax, DWORD PTR _es$[ebp]
	add	eax, 12					; 0000000cH
	mov	ecx, DWORD PTR _hdr$[ebp]
	add	ecx, 28					; 0000001cH
	mov	edx, DWORD PTR [eax]
	mov	DWORD PTR [ecx], edx
	mov	edx, DWORD PTR [eax+4]
	mov	DWORD PTR [ecx+4], edx
	mov	eax, DWORD PTR [eax+8]
	mov	DWORD PTR [ecx+8], eax

; 355  : 	hdr->dist = -1.0f;

	mov	eax, DWORD PTR _hdr$[ebp]
	movss	xmm0, DWORD PTR __real@bf800000
	movss	DWORD PTR [eax+56], xmm0

; 356  : 	hdr->count = 0;

	mov	eax, DWORD PTR _hdr$[ebp]
	mov	DWORD PTR [eax+52], 0

; 357  : 
; 358  : 	for( int i = 0; i < grassInfo.Count(); i++ )

	mov	DWORD PTR _i$2[ebp], 0
	jmp	SHORT $LN4@R_Construc
$LN2@R_Construc:
	mov	eax, DWORD PTR _i$2[ebp]
	add	eax, 1
	mov	DWORD PTR _i$2[ebp], eax
$LN4@R_Construc:
	mov	ecx, OFFSET ?grassInfo@@3V?$CUtlArray@Ugrassentry_s@@V?$CUtlMemory@Ugrassentry_s@@H@@@@A ; grassInfo
	call	?Count@?$CUtlArray@Ugrassentry_s@@V?$CUtlMemory@Ugrassentry_s@@H@@@@QBEHXZ ; CUtlArray<grassentry_s,CUtlMemory<grassentry_s,int> >::Count
	cmp	DWORD PTR _i$2[ebp], eax
	jge	SHORT $LN3@R_Construc

; 359  : 	{
; 360  : 		grassentry_t *entry = &grassInfo[i];

	mov	eax, DWORD PTR _i$2[ebp]
	push	eax
	mov	ecx, OFFSET ?grassInfo@@3V?$CUtlArray@Ugrassentry_s@@V?$CUtlMemory@Ugrassentry_s@@H@@@@A ; grassInfo
	call	??A?$CUtlArray@Ugrassentry_s@@V?$CUtlMemory@Ugrassentry_s@@H@@@@QAEAAUgrassentry_s@@H@Z ; CUtlArray<grassentry_s,CUtlMemory<grassentry_s,int> >::operator[]
	mov	DWORD PTR _entry$1[ebp], eax

; 361  : 
; 362  : 		if( !Mod_CheckLayerNameForSurf( surf, entry->name ))

	mov	eax, DWORD PTR _entry$1[ebp]
	push	eax
	mov	ecx, DWORD PTR _surf$[ebp]
	push	ecx
	call	?Mod_CheckLayerNameForSurf@@YA_NPAUmsurface_s@@PBD@Z ; Mod_CheckLayerNameForSurf
	add	esp, 8
	movzx	edx, al
	test	edx, edx
	jne	SHORT $LN7@R_Construc

; 363  : 			continue;

	jmp	SHORT $LN2@R_Construc
$LN7@R_Construc:

; 364  : 
; 365  : 		// create a single mesh for all the bushes that have same texture
; 366  : 		if( !R_BuildGrassMesh( surf, es, entry, hdr, &hdr->g[hdr->count] ))

	mov	eax, DWORD PTR _hdr$[ebp]
	imul	ecx, DWORD PTR [eax+52], 44
	mov	edx, DWORD PTR _hdr$[ebp]
	lea	eax, DWORD PTR [edx+ecx+60]
	push	eax
	mov	ecx, DWORD PTR _hdr$[ebp]
	push	ecx
	mov	edx, DWORD PTR _entry$1[ebp]
	push	edx
	mov	eax, DWORD PTR _es$[ebp]
	push	eax
	mov	ecx, DWORD PTR _surf$[ebp]
	push	ecx
	call	?R_BuildGrassMesh@@YA_NPAUmsurface_s@@PAUmextrasurf_s@@PAUgrassentry_s@@PAUgrasshdr_s@@PAUgrass_s@@@Z ; R_BuildGrassMesh
	add	esp, 20					; 00000014H
	movzx	edx, al
	test	edx, edx
	jne	SHORT $LN8@R_Construc

; 367  : 			continue;	// failed to build for some reasons

	jmp	SHORT $LN2@R_Construc
$LN8@R_Construc:

; 368  : 
; 369  : 		hdr->count++;

	mov	eax, DWORD PTR _hdr$[ebp]
	mov	ecx, DWORD PTR [eax+52]
	add	ecx, 1
	mov	edx, DWORD PTR _hdr$[ebp]
	mov	DWORD PTR [edx+52], ecx

; 370  : 	}

	jmp	$LN2@R_Construc
$LN3@R_Construc:

; 371  : 
; 372  : 	// for rotating bmodels
; 373  : 	hdr->radius = RadiusFromBounds( hdr->mins, hdr->maxs );

	mov	eax, DWORD PTR _hdr$[ebp]
	add	eax, 28					; 0000001cH
	push	eax
	mov	ecx, DWORD PTR _hdr$[ebp]
	add	ecx, 16					; 00000010H
	push	ecx
	call	?RadiusFromBounds@@YAMABVVector@@0@Z	; RadiusFromBounds
	add	esp, 8
	mov	edx, DWORD PTR _hdr$[ebp]
	fstp	DWORD PTR [edx+44]

; 374  : 
; 375  : 	// bah! failed to create
; 376  : 	if( !hdr->count )

	mov	eax, DWORD PTR _hdr$[ebp]
	cmp	DWORD PTR [eax+52], 0
	jne	SHORT $LN9@R_Construc

; 377  : 	{
; 378  : 		Mem_Free( es->grass );

	mov	eax, DWORD PTR ?__LINE__Var@?0??R_ConstructGrassVBO@@YAXPAUmsurface_s@@@Z@4JA
	add	eax, 36					; 00000024H
	push	eax
	push	OFFSET ??_C@_0EM@FOOGKCCC@d?3?2?$CBdiffusion?52020?2source?5code?52@
	mov	ecx, DWORD PTR _es$[ebp]
	mov	edx, DWORD PTR [ecx+120]
	push	edx
	call	DWORD PTR ?gRenderfuncs@@3Urender_api_s@@A+220
	add	esp, 12					; 0000000cH

; 379  : 		es->grasscount = 0;

	xor	eax, eax
	mov	ecx, DWORD PTR _es$[ebp]
	mov	WORD PTR [ecx+124], ax

; 380  : 		es->grass = NULL;

	mov	eax, DWORD PTR _es$[ebp]
	mov	DWORD PTR [eax+120], 0
$LN9@R_Construc:

; 381  : 	}
; 382  : 
; 383  : 	pglBindVertexArray( world->vertex_array_object ); // restore old binding

	mov	eax, DWORD PTR ?world@@3PAUgl_world_t@@A ; world
	mov	ecx, DWORD PTR [eax+128]
	push	ecx
	call	DWORD PTR ?pglBindVertexArray@@3P6GXI@ZA ; pglBindVertexArray

; 384  : 
; 385  : 	// restore normal randomization
; 386  : 	RANDOM_SEED( 0 );

	push	0
	call	DWORD PTR ?gRenderfuncs@@3Urender_api_s@@A+256
	add	esp, 4
$LN1@R_Construc:

; 387  : }

	pop	edi
	pop	esi
	pop	ebx
	mov	esp, ebp
	pop	ebp
	ret	0
?R_ConstructGrassVBO@@YAXPAUmsurface_s@@@Z ENDP		; R_ConstructGrassVBO
_TEXT	ENDS
; Function compile flags: /Odtp /ZI
; File d:\!diffusion 2020\source code 2022\client-server\client\render\r_grass.cpp
;	COMDAT ?R_BuildGrassMesh@@YA_NPAUmsurface_s@@PAUmextrasurf_s@@PAUgrassentry_s@@PAUgrasshdr_s@@PAUgrass_s@@@Z
_TEXT	SEGMENT
$T1 = -196						; size = 12
$T2 = -184						; size = 12
$T3 = -172						; size = 12
_size$4 = -96						; size = 4
_pos$5 = -92						; size = 12
_v$6 = -80						; size = 4
_u$7 = -76						; size = 4
_j$8 = -72						; size = 4
_numSamples$9 = -68					; size = 4
_area$10 = -64						; size = 4
_normalLength$11 = -60					; size = 4
_areaVec$12 = -56					; size = 12
_e2$13 = -44						; size = 12
_e1$14 = -32						; size = 12
_i$15 = -20						; size = 4
_v2$ = -16						; size = 4
_v1$ = -12						; size = 4
_v0$ = -8						; size = 4
_land$ = -4						; size = 4
_surf$ = 8						; size = 4
_es$ = 12						; size = 4
_entry$ = 16						; size = 4
_hdr$ = 20						; size = 4
_out$ = 24						; size = 4
?R_BuildGrassMesh@@YA_NPAUmsurface_s@@PAUmextrasurf_s@@PAUgrassentry_s@@PAUgrasshdr_s@@PAUgrass_s@@@Z PROC ; R_BuildGrassMesh, COMDAT

; 264  : {

	push	ebp
	mov	ebp, esp
	sub	esp, 196				; 000000c4H
	push	ebx
	push	esi
	push	edi

; 265  : 	mfaceinfo_t *land = surf->texinfo->faceinfo;

	mov	eax, DWORD PTR _surf$[ebp]
	mov	ecx, DWORD PTR [eax+44]
	mov	edx, DWORD PTR [ecx+32]
	mov	DWORD PTR _land$[ebp], edx

; 266  : 	bvert_t *v0, *v1, *v2;
; 267  : 	
; 268  : 	// update random set to get predictable positions for grass 'random' placement
; 269  : 	RANDOM_SEED(( surf - worldmodel->surfaces ) * entry->seed );

	mov	eax, DWORD PTR ?worldmodel@@3PAUmodel_s@@A ; worldmodel
	mov	ecx, DWORD PTR _surf$[ebp]
	sub	ecx, DWORD PTR [eax+180]
	mov	eax, ecx
	cdq
	mov	ecx, 92					; 0000005cH
	idiv	ecx
	mov	edx, DWORD PTR _entry$[ebp]
	imul	eax, DWORD PTR [edx+32]
	push	eax
	call	DWORD PTR ?gRenderfuncs@@3Urender_api_s@@A+256
	add	esp, 4

; 270  : 
; 271  : 	m_iNumVertex = m_iNumIndex = m_iVertexState = 0;

	mov	DWORD PTR ?m_iVertexState@@3HA, 0
	mov	eax, DWORD PTR ?m_iVertexState@@3HA
	mov	DWORD PTR ?m_iNumIndex@@3HA, eax
	mov	ecx, DWORD PTR ?m_iNumIndex@@3HA
	mov	DWORD PTR ?m_iNumVertex@@3HA, ecx

; 272  : 
; 273  : 	m_iTextureWidth = RENDER_GET_PARM( PARM_TEX_WIDTH, grasstexs[entry->texture].gl_texturenum );

	mov	eax, DWORD PTR _entry$[ebp]
	movzx	ecx, BYTE PTR [eax+16]
	imul	edx, ecx, 264
	mov	eax, DWORD PTR ?grasstexs@@3PAUgrasstex_s@@A[edx+256]
	push	eax
	push	1
	call	DWORD PTR ?gRenderfuncs@@3Urender_api_s@@A
	add	esp, 8
	mov	DWORD PTR ?m_iTextureWidth@@3HA, eax

; 274  : 	m_iTextureHeight = RENDER_GET_PARM( PARM_TEX_HEIGHT, grasstexs[entry->texture].gl_texturenum );

	mov	eax, DWORD PTR _entry$[ebp]
	movzx	ecx, BYTE PTR [eax+16]
	imul	edx, ecx, 264
	mov	eax, DWORD PTR ?grasstexs@@3PAUgrasstex_s@@A[edx+256]
	push	eax
	push	2
	call	DWORD PTR ?gRenderfuncs@@3Urender_api_s@@A
	add	esp, 8
	mov	DWORD PTR ?m_iTextureHeight@@3HA, eax

; 275  : 
; 276  : 	// turn the face into a bunch of polygons, and compute the area of each
; 277  : 	v0 = &world->vertexes[es->firstvertex];

	mov	eax, DWORD PTR _es$[ebp]
	imul	ecx, DWORD PTR [eax+128], 100
	mov	edx, DWORD PTR ?world@@3PAUgl_world_t@@A ; world
	add	ecx, DWORD PTR [edx+112]
	mov	DWORD PTR _v0$[ebp], ecx

; 278  : 
; 279  : 	for( int i = 1; i < es->numverts - 1; i++ )

	mov	DWORD PTR _i$15[ebp], 1
	jmp	SHORT $LN4@R_BuildGra
$LN2@R_BuildGra:
	mov	eax, DWORD PTR _i$15[ebp]
	add	eax, 1
	mov	DWORD PTR _i$15[ebp], eax
$LN4@R_BuildGra:
	mov	eax, DWORD PTR _es$[ebp]
	movzx	ecx, WORD PTR [eax+126]
	sub	ecx, 1
	cmp	DWORD PTR _i$15[ebp], ecx
	jge	$LN3@R_BuildGra

; 280  : 	{
; 281  : 		v1 = &world->vertexes[es->firstvertex+i+0];

	mov	eax, DWORD PTR _es$[ebp]
	mov	ecx, DWORD PTR [eax+128]
	add	ecx, DWORD PTR _i$15[ebp]
	imul	edx, ecx, 100
	mov	eax, DWORD PTR ?world@@3PAUgl_world_t@@A ; world
	add	edx, DWORD PTR [eax+112]
	mov	DWORD PTR _v1$[ebp], edx

; 282  : 		v2 = &world->vertexes[es->firstvertex+i+1];

	mov	eax, DWORD PTR _es$[ebp]
	mov	ecx, DWORD PTR [eax+128]
	mov	edx, DWORD PTR _i$15[ebp]
	lea	eax, DWORD PTR [ecx+edx+1]
	imul	ecx, eax, 100
	mov	edx, DWORD PTR ?world@@3PAUgl_world_t@@A ; world
	add	ecx, DWORD PTR [edx+112]
	mov	DWORD PTR _v2$[ebp], ecx

; 283  : 
; 284  : 		// compute two triangle edges
; 285  : 		Vector e1 = v1->vertex - v0->vertex;

	mov	eax, DWORD PTR _v0$[ebp]
	push	eax
	lea	ecx, DWORD PTR _e1$14[ebp]
	push	ecx
	mov	ecx, DWORD PTR _v1$[ebp]
	call	??GVector@@QBE?AV0@ABV0@@Z		; Vector::operator-

; 286  : 		Vector e2 = v2->vertex - v0->vertex;

	mov	eax, DWORD PTR _v0$[ebp]
	push	eax
	lea	ecx, DWORD PTR _e2$13[ebp]
	push	ecx
	mov	ecx, DWORD PTR _v2$[ebp]
	call	??GVector@@QBE?AV0@ABV0@@Z		; Vector::operator-

; 287  : 
; 288  : 		// compute the triangle area
; 289  : 		Vector areaVec = CrossProduct( e1, e2 );

	lea	eax, DWORD PTR _e2$13[ebp]
	push	eax
	lea	ecx, DWORD PTR _e1$14[ebp]
	push	ecx
	lea	edx, DWORD PTR _areaVec$12[ebp]
	push	edx
	call	?CrossProduct@@YA?AVVector@@ABV1@0@Z	; CrossProduct
	add	esp, 12					; 0000000cH

; 290  : 		float normalLength = areaVec.Length();

	lea	ecx, DWORD PTR _areaVec$12[ebp]
	call	?Length@Vector@@QBEMXZ			; Vector::Length
	fstp	DWORD PTR _normalLength$11[ebp]

; 291  : 		float area = 0.5f * normalLength;

	movss	xmm0, DWORD PTR __real@3f000000
	mulss	xmm0, DWORD PTR _normalLength$11[ebp]
	movss	DWORD PTR _area$10[ebp], xmm0

; 292  : 
; 293  : 		// compute the number of samples to take
; 294  : 		int numSamples = area * entry->density * DENSITY_FACTOR;

	mov	eax, DWORD PTR _entry$[ebp]
	movss	xmm0, DWORD PTR _area$10[ebp]
	mulss	xmm0, DWORD PTR [eax+20]
	mulss	xmm0, DWORD PTR __real@38d1b717
	cvttss2si ecx, xmm0
	mov	DWORD PTR _numSamples$9[ebp], ecx

; 295  : 
; 296  : 		// now take a sample, and randomly place an object there
; 297  : 		for( int j = 0; j < numSamples; j++ )

	mov	DWORD PTR _j$8[ebp], 0
	jmp	SHORT $LN7@R_BuildGra
$LN5@R_BuildGra:
	mov	eax, DWORD PTR _j$8[ebp]
	add	eax, 1
	mov	DWORD PTR _j$8[ebp], eax
$LN7@R_BuildGra:
	mov	eax, DWORD PTR _j$8[ebp]
	cmp	eax, DWORD PTR _numSamples$9[ebp]
	jge	$LN6@R_BuildGra

; 298  : 		{
; 299  : 			// Create a random sample...
; 300  : 			float u = RANDOM_FLOAT( 0.0f, 1.0f );

	push	ecx
	movss	xmm0, DWORD PTR __real@3f800000
	movss	DWORD PTR [esp], xmm0
	push	ecx
	xorps	xmm0, xmm0
	movss	DWORD PTR [esp], xmm0
	call	DWORD PTR ?gEngfuncs@@3Ucl_enginefuncs_s@@A+268
	add	esp, 8
	fstp	DWORD PTR _u$7[ebp]

; 301  : 			float v = RANDOM_FLOAT( 0.0f, 1.0f );

	push	ecx
	movss	xmm0, DWORD PTR __real@3f800000
	movss	DWORD PTR [esp], xmm0
	push	ecx
	xorps	xmm0, xmm0
	movss	DWORD PTR [esp], xmm0
	call	DWORD PTR ?gEngfuncs@@3Ucl_enginefuncs_s@@A+268
	add	esp, 8
	fstp	DWORD PTR _v$6[ebp]

; 302  : 
; 303  : 			if( v > ( 1.0f - u ))

	movss	xmm0, DWORD PTR __real@3f800000
	subss	xmm0, DWORD PTR _u$7[ebp]
	movss	xmm1, DWORD PTR _v$6[ebp]
	comiss	xmm1, xmm0
	jbe	SHORT $LN8@R_BuildGra

; 304  : 			{
; 305  : 				u = 1.0f - u;

	movss	xmm0, DWORD PTR __real@3f800000
	subss	xmm0, DWORD PTR _u$7[ebp]
	movss	DWORD PTR _u$7[ebp], xmm0

; 306  : 				v = 1.0f - v;

	movss	xmm0, DWORD PTR __real@3f800000
	subss	xmm0, DWORD PTR _v$6[ebp]
	movss	DWORD PTR _v$6[ebp], xmm0
$LN8@R_BuildGra:

; 307  : 			}
; 308  : 
; 309  : 			Vector pos = v0->vertex + e1 * u + e2 * v;

	push	ecx
	movss	xmm0, DWORD PTR _v$6[ebp]
	movss	DWORD PTR [esp], xmm0
	lea	eax, DWORD PTR $T1[ebp]
	push	eax
	lea	ecx, DWORD PTR _e2$13[ebp]
	call	??DVector@@QBE?AV0@M@Z			; Vector::operator*
	push	eax
	lea	ecx, DWORD PTR _pos$5[ebp]
	push	ecx
	push	ecx
	movss	xmm0, DWORD PTR _u$7[ebp]
	movss	DWORD PTR [esp], xmm0
	lea	edx, DWORD PTR $T3[ebp]
	push	edx
	lea	ecx, DWORD PTR _e1$14[ebp]
	call	??DVector@@QBE?AV0@M@Z			; Vector::operator*
	push	eax
	lea	eax, DWORD PTR $T2[ebp]
	push	eax
	mov	ecx, DWORD PTR _v0$[ebp]
	call	??HVector@@QBE?AV0@ABV0@@Z		; Vector::operator+
	mov	ecx, eax
	call	??HVector@@QBE?AV0@ABV0@@Z		; Vector::operator+

; 310  : 
; 311  : 			if( !Mod_CheckLayerNameForPixel( land, pos, entry->name ))

	mov	eax, DWORD PTR _entry$[ebp]
	push	eax
	lea	ecx, DWORD PTR _pos$5[ebp]
	push	ecx
	mov	edx, DWORD PTR _land$[ebp]
	push	edx
	call	?Mod_CheckLayerNameForPixel@@YA_NPAUmfaceinfo_t@@ABVVector@@PBD@Z ; Mod_CheckLayerNameForPixel
	add	esp, 12					; 0000000cH
	movzx	eax, al
	test	eax, eax
	jne	SHORT $LN9@R_BuildGra

; 312  : 				continue;	// rejected by heightmap

	jmp	$LN5@R_BuildGra
$LN9@R_BuildGra:

; 313  : 
; 314  : 			float size = RANDOM_FLOAT( entry->min, entry->max );

	mov	eax, DWORD PTR _entry$[ebp]
	push	ecx
	movss	xmm0, DWORD PTR [eax+28]
	movss	DWORD PTR [esp], xmm0
	mov	ecx, DWORD PTR _entry$[ebp]
	push	ecx
	movss	xmm0, DWORD PTR [ecx+24]
	movss	DWORD PTR [esp], xmm0
	call	DWORD PTR ?gEngfuncs@@3Ucl_enginefuncs_s@@A+268
	add	esp, 8
	fstp	DWORD PTR _size$4[ebp]

; 315  : 
; 316  : 			if( !R_CreateSingleBush( surf, es, hdr, pos, size ))

	push	ecx
	movss	xmm0, DWORD PTR _size$4[ebp]
	movss	DWORD PTR [esp], xmm0
	lea	eax, DWORD PTR _pos$5[ebp]
	push	eax
	mov	ecx, DWORD PTR _hdr$[ebp]
	push	ecx
	mov	edx, DWORD PTR _es$[ebp]
	push	edx
	mov	eax, DWORD PTR _surf$[ebp]
	push	eax
	call	?R_CreateSingleBush@@YA_NPAUmsurface_s@@PAUmextrasurf_s@@PAUgrasshdr_s@@ABVVector@@M@Z ; R_CreateSingleBush
	add	esp, 20					; 00000014H
	movzx	ecx, al
	test	ecx, ecx
	jne	SHORT $LN10@R_BuildGra

; 317  : 				goto build_mesh; // vertices is out (more than 2048 bushes per surface created)

	jmp	SHORT $LN11@R_BuildGra
	jmp	SHORT $build_mesh$14
$LN10@R_BuildGra:

; 318  : 		}

	jmp	$LN5@R_BuildGra
$LN6@R_BuildGra:

; 319  : 	}

	jmp	$LN2@R_BuildGra
$LN3@R_BuildGra:

; 320  : 
; 321  : 	// nothing to be added?
; 322  : 	if( !m_iNumVertex ) return false;

	cmp	DWORD PTR ?m_iNumVertex@@3HA, 0
	jne	SHORT $LN12@R_BuildGra
	xor	al, al
	jmp	SHORT $LN1@R_BuildGra
$LN12@R_BuildGra:
$LN11@R_BuildGra:
$build_mesh$14:

; 323  : 
; 324  : build_mesh:
; 325  : 	out->texture = entry->texture;

	mov	eax, DWORD PTR _out$[ebp]
	mov	ecx, DWORD PTR _entry$[ebp]
	mov	dl, BYTE PTR [ecx+16]
	mov	BYTE PTR [eax], dl

; 326  : 	out->vbo.numVerts = m_iNumVertex;

	mov	eax, DWORD PTR _out$[ebp]
	mov	cx, WORD PTR ?m_iNumVertex@@3HA
	mov	WORD PTR [eax+10], cx

; 327  : 	out->vbo.numElems = m_iNumIndex;

	mov	eax, DWORD PTR _out$[ebp]
	mov	cx, WORD PTR ?m_iNumIndex@@3HA
	mov	WORD PTR [eax+12], cx

; 328  : 	R_CreateSurfaceVBO( out );

	mov	eax, DWORD PTR _out$[ebp]
	push	eax
	call	?R_CreateSurfaceVBO@@YAXPAUgrass_s@@@Z	; R_CreateSurfaceVBO
	add	esp, 4

; 329  : 
; 330  : 	return true;

	mov	al, 1
$LN1@R_BuildGra:

; 331  : }

	pop	edi
	pop	esi
	pop	ebx
	mov	esp, ebp
	pop	ebp
	ret	0
?R_BuildGrassMesh@@YA_NPAUmsurface_s@@PAUmextrasurf_s@@PAUgrassentry_s@@PAUgrasshdr_s@@PAUgrass_s@@@Z ENDP ; R_BuildGrassMesh
_TEXT	ENDS
; Function compile flags: /Odtp /ZI
; File d:\!diffusion 2020\source code 2022\client-server\client\render\r_grass.cpp
;	COMDAT ?R_DeleteSurfaceVBO@@YAXPAUgrass_s@@@Z
_TEXT	SEGMENT
_out$ = 8						; size = 4
?R_DeleteSurfaceVBO@@YAXPAUgrass_s@@@Z PROC		; R_DeleteSurfaceVBO, COMDAT

; 247  : {

	push	ebp
	mov	ebp, esp
	sub	esp, 64					; 00000040H
	push	ebx
	push	esi
	push	edi

; 248  : 	if( out->vbo.vao ) pglDeleteVertexArrays( 1, &out->vbo.vao );

	mov	eax, DWORD PTR _out$[ebp]
	cmp	DWORD PTR [eax+20], 0
	je	SHORT $LN2@R_DeleteSu
	mov	eax, DWORD PTR _out$[ebp]
	add	eax, 20					; 00000014H
	push	eax
	push	1
	call	DWORD PTR ?pglDeleteVertexArrays@@3P6GXHPBI@ZA ; pglDeleteVertexArrays
$LN2@R_DeleteSu:

; 249  : 	if( out->vbo.vbo ) pglDeleteBuffersARB( 1, &out->vbo.vbo );

	mov	eax, DWORD PTR _out$[ebp]
	cmp	DWORD PTR [eax+16], 0
	je	SHORT $LN3@R_DeleteSu
	mov	eax, DWORD PTR _out$[ebp]
	add	eax, 16					; 00000010H
	push	eax
	push	1
	call	DWORD PTR ?pglDeleteBuffersARB@@3P6GXHPBI@ZA ; pglDeleteBuffersARB
$LN3@R_DeleteSu:

; 250  : 	if( out->vbo.ibo ) pglDeleteBuffersARB( 1, &out->vbo.ibo );

	mov	eax, DWORD PTR _out$[ebp]
	cmp	DWORD PTR [eax+24], 0
	je	SHORT $LN4@R_DeleteSu
	mov	eax, DWORD PTR _out$[ebp]
	add	eax, 24					; 00000018H
	push	eax
	push	1
	call	DWORD PTR ?pglDeleteBuffersARB@@3P6GXHPBI@ZA ; pglDeleteBuffersARB
$LN4@R_DeleteSu:

; 251  : 
; 252  : 	world->grassmem -= sizeof( gvert_t ) * out->vbo.numVerts;

	mov	eax, DWORD PTR _out$[ebp]
	movzx	ecx, WORD PTR [eax+10]
	imul	edx, ecx, 36
	mov	eax, DWORD PTR ?world@@3PAUgl_world_t@@A ; world
	mov	ecx, DWORD PTR [eax+144]
	sub	ecx, edx
	mov	edx, DWORD PTR ?world@@3PAUgl_world_t@@A ; world
	mov	DWORD PTR [edx+144], ecx

; 253  : 	world->grasscount -= out->vbo.numVerts;

	mov	eax, DWORD PTR _out$[ebp]
	movzx	ecx, WORD PTR [eax+10]
	mov	edx, DWORD PTR ?world@@3PAUgl_world_t@@A ; world
	mov	eax, DWORD PTR [edx+140]
	sub	eax, ecx
	mov	ecx, DWORD PTR ?world@@3PAUgl_world_t@@A ; world
	mov	DWORD PTR [ecx+140], eax

; 254  : }

	pop	edi
	pop	esi
	pop	ebx
	mov	esp, ebp
	pop	ebp
	ret	0
?R_DeleteSurfaceVBO@@YAXPAUgrass_s@@@Z ENDP		; R_DeleteSurfaceVBO
_TEXT	ENDS
; Function compile flags: /Odtp /ZI
; File d:\!diffusion 2020\source code 2022\client-server\client\render\r_grass.cpp
;	COMDAT ?R_CreateSurfaceVBO@@YAXPAUgrass_s@@@Z
_TEXT	SEGMENT
_out$ = 8						; size = 4
?R_CreateSurfaceVBO@@YAXPAUgrass_s@@@Z PROC		; R_CreateSurfaceVBO, COMDAT

; 201  : {

	push	ebp
	mov	ebp, esp
	sub	esp, 64					; 00000040H
	push	ebx
	push	esi
	push	edi

; 202  : 	if( !m_iNumVertex ) return; // empty mesh?

	cmp	DWORD PTR ?m_iNumVertex@@3HA, 0
	jne	SHORT $LN2@R_CreateSu
	jmp	$LN1@R_CreateSu
$LN2@R_CreateSu:

; 203  : 
; 204  : 	// create GPU static buffer
; 205  : 	pglGenBuffersARB( 1, &out->vbo.vbo );

	mov	eax, DWORD PTR _out$[ebp]
	add	eax, 16					; 00000010H
	push	eax
	push	1
	call	DWORD PTR ?pglGenBuffersARB@@3P6GXHPAI@ZA ; pglGenBuffersARB

; 206  : 	pglGenVertexArrays( 1, &out->vbo.vao );

	mov	eax, DWORD PTR _out$[ebp]
	add	eax, 20					; 00000014H
	push	eax
	push	1
	call	DWORD PTR ?pglGenVertexArrays@@3P6GXHPBI@ZA ; pglGenVertexArrays

; 207  : 
; 208  : 	// create vertex array object
; 209  : 	pglBindVertexArray( out->vbo.vao );

	mov	eax, DWORD PTR _out$[ebp]
	mov	ecx, DWORD PTR [eax+20]
	push	ecx
	call	DWORD PTR ?pglBindVertexArray@@3P6GXI@ZA ; pglBindVertexArray

; 210  : 
; 211  : 	pglBindBufferARB( GL_ARRAY_BUFFER_ARB, out->vbo.vbo );

	mov	eax, DWORD PTR _out$[ebp]
	mov	ecx, DWORD PTR [eax+16]
	push	ecx
	push	34962					; 00008892H
	call	DWORD PTR ?pglBindBufferARB@@3P6GXII@ZA	; pglBindBufferARB

; 212  : 	pglBufferDataARB( GL_ARRAY_BUFFER_ARB, m_iNumVertex * sizeof( gvert_t ), &m_arraygvert[0], GL_STATIC_DRAW_ARB );

	push	35044					; 000088e4H
	mov	eax, 36					; 00000024H
	imul	ecx, eax, 0
	add	ecx, OFFSET ?m_arraygvert@@3PAUgvert_s@@A
	push	ecx
	imul	edx, DWORD PTR ?m_iNumVertex@@3HA, 36
	push	edx
	push	34962					; 00008892H
	call	DWORD PTR ?pglBufferDataARB@@3P6GXIHPBXI@ZA ; pglBufferDataARB

; 213  : #ifdef GRASS_PACKED_VERTEX
; 214  : 	pglVertexAttribPointerARB( ATTR_INDEX_POSITION, 4, GL_HALF_FLOAT_ARB, GL_FALSE, sizeof( gvert_t ), (void *)offsetof( gvert_t, center ));

	push	0
	push	36					; 00000024H
	push	0
	push	5131					; 0000140bH
	push	4
	push	0
	call	DWORD PTR ?pglVertexAttribPointerARB@@3P6GXIHIEHPBX@ZA ; pglVertexAttribPointerARB

; 215  : 	pglEnableVertexAttribArrayARB( ATTR_INDEX_POSITION );

	push	0
	call	DWORD PTR ?pglEnableVertexAttribArrayARB@@3P6GXI@ZA ; pglEnableVertexAttribArrayARB

; 216  : 
; 217  : 	pglVertexAttribPointerARB( ATTR_INDEX_NORMAL, 4, GL_HALF_FLOAT_ARB, GL_FALSE, sizeof( gvert_t ), (void *)offsetof( gvert_t, normal ));

	push	8
	push	36					; 00000024H
	push	0
	push	5131					; 0000140bH
	push	4
	push	3
	call	DWORD PTR ?pglVertexAttribPointerARB@@3P6GXIHIEHPBX@ZA ; pglVertexAttribPointerARB

; 218  : 	pglEnableVertexAttribArrayARB( ATTR_INDEX_NORMAL );

	push	3
	call	DWORD PTR ?pglEnableVertexAttribArrayARB@@3P6GXI@ZA ; pglEnableVertexAttribArrayARB

; 219  : #else
; 220  : 	pglVertexAttribPointerARB( ATTR_INDEX_POSITION, 4, GL_FLOAT, GL_FALSE, sizeof( gvert_t ), (void *)offsetof( gvert_t, center ));
; 221  : 	pglEnableVertexAttribArrayARB( ATTR_INDEX_POSITION );
; 222  : 
; 223  : 	pglVertexAttribPointerARB( ATTR_INDEX_NORMAL, 4, GL_FLOAT, GL_FALSE, sizeof( gvert_t ), (void *)offsetof( gvert_t, normal ));
; 224  : 	pglEnableVertexAttribArrayARB( ATTR_INDEX_NORMAL );
; 225  : #endif
; 226  : 	pglVertexAttribPointerARB( ATTR_INDEX_LIGHT_COLOR, 4, GL_FLOAT, GL_FALSE, sizeof( gvert_t ), (void *)offsetof( gvert_t, light )); 

	push	16					; 00000010H
	push	36					; 00000024H
	push	0
	push	5126					; 00001406H
	push	4
	push	10					; 0000000aH
	call	DWORD PTR ?pglVertexAttribPointerARB@@3P6GXIHIEHPBX@ZA ; pglVertexAttribPointerARB

; 227  : 	pglEnableVertexAttribArrayARB( ATTR_INDEX_LIGHT_COLOR );

	push	10					; 0000000aH
	call	DWORD PTR ?pglEnableVertexAttribArrayARB@@3P6GXI@ZA ; pglEnableVertexAttribArrayARB

; 228  : 
; 229  : 	pglVertexAttribPointerARB( ATTR_INDEX_LIGHT_STYLES, 4, GL_UNSIGNED_BYTE, GL_FALSE, sizeof( gvert_t ), (void *)offsetof( gvert_t, styles ));

	push	32					; 00000020H
	push	36					; 00000024H
	push	0
	push	5121					; 00001401H
	push	4
	push	9
	call	DWORD PTR ?pglVertexAttribPointerARB@@3P6GXIHIEHPBX@ZA ; pglVertexAttribPointerARB

; 230  : 	pglEnableVertexAttribArrayARB( ATTR_INDEX_LIGHT_STYLES );

	push	9
	call	DWORD PTR ?pglEnableVertexAttribArrayARB@@3P6GXI@ZA ; pglEnableVertexAttribArrayARB

; 231  : 
; 232  : 	// create index array buffer
; 233  : 	pglGenBuffersARB( 1, &out->vbo.ibo );

	mov	eax, DWORD PTR _out$[ebp]
	add	eax, 24					; 00000018H
	push	eax
	push	1
	call	DWORD PTR ?pglGenBuffersARB@@3P6GXHPAI@ZA ; pglGenBuffersARB

; 234  : 	pglBindBufferARB( GL_ELEMENT_ARRAY_BUFFER_ARB, out->vbo.ibo );

	mov	eax, DWORD PTR _out$[ebp]
	mov	ecx, DWORD PTR [eax+24]
	push	ecx
	push	34963					; 00008893H
	call	DWORD PTR ?pglBindBufferARB@@3P6GXII@ZA	; pglBindBufferARB

; 235  : 	pglBufferDataARB( GL_ELEMENT_ARRAY_BUFFER_ARB, m_iNumIndex * sizeof( unsigned short ), &m_indexarray[0], GL_STATIC_DRAW_ARB );

	push	35044					; 000088e4H
	mov	eax, 2
	imul	ecx, eax, 0
	add	ecx, OFFSET ?m_indexarray@@3PAGA
	push	ecx
	mov	edx, DWORD PTR ?m_iNumIndex@@3HA
	shl	edx, 1
	push	edx
	push	34963					; 00008893H
	call	DWORD PTR ?pglBufferDataARB@@3P6GXIHPBXI@ZA ; pglBufferDataARB

; 236  : 
; 237  : 	// don't forget to unbind them
; 238  : 	pglBindVertexArray( GL_FALSE );

	push	0
	call	DWORD PTR ?pglBindVertexArray@@3P6GXI@ZA ; pglBindVertexArray

; 239  : 	pglBindBufferARB( GL_ARRAY_BUFFER_ARB, 0 );

	push	0
	push	34962					; 00008892H
	call	DWORD PTR ?pglBindBufferARB@@3P6GXII@ZA	; pglBindBufferARB

; 240  : 	pglBindBufferARB( GL_ELEMENT_ARRAY_BUFFER_ARB, 0 );

	push	0
	push	34963					; 00008893H
	call	DWORD PTR ?pglBindBufferARB@@3P6GXII@ZA	; pglBindBufferARB

; 241  : 
; 242  : 	world->grassmem += sizeof( gvert_t ) * m_iNumVertex;

	imul	eax, DWORD PTR ?m_iNumVertex@@3HA, 36
	mov	ecx, DWORD PTR ?world@@3PAUgl_world_t@@A ; world
	add	eax, DWORD PTR [ecx+144]
	mov	edx, DWORD PTR ?world@@3PAUgl_world_t@@A ; world
	mov	DWORD PTR [edx+144], eax

; 243  : 	world->grasscount += m_iNumVertex;

	mov	eax, DWORD PTR ?world@@3PAUgl_world_t@@A ; world
	mov	ecx, DWORD PTR [eax+140]
	add	ecx, DWORD PTR ?m_iNumVertex@@3HA
	mov	edx, DWORD PTR ?world@@3PAUgl_world_t@@A ; world
	mov	DWORD PTR [edx+140], ecx
$LN1@R_CreateSu:

; 244  : }

	pop	edi
	pop	esi
	pop	ebx
	mov	esp, ebp
	pop	ebp
	ret	0
?R_CreateSurfaceVBO@@YAXPAUgrass_s@@@Z ENDP		; R_CreateSurfaceVBO
_TEXT	ENDS
; Function compile flags: /Odtp /ZI
; File d:\!diffusion 2020\source code 2022\client-server\client\render\r_grass.cpp
;	COMDAT ?R_CreateSingleBush@@YA_NPAUmsurface_s@@PAUmextrasurf_s@@PAUgrasshdr_s@@ABVVector@@M@Z
_TEXT	SEGMENT
$T1 = -124						; size = 12
$T2 = -112						; size = 12
_scale$3 = -36						; size = 4
_dir$4 = -32						; size = 12
_vertex$5 = -20						; size = 12
_entry$6 = -8						; size = 4
_i$7 = -4						; size = 4
_surf$ = 8						; size = 4
_es$ = 12						; size = 4
_hdr$ = 16						; size = 4
_pos$ = 20						; size = 4
_size$ = 24						; size = 4
?R_CreateSingleBush@@YA_NPAUmsurface_s@@PAUmextrasurf_s@@PAUgrasshdr_s@@ABVVector@@M@Z PROC ; R_CreateSingleBush, COMDAT

; 166  : {

	push	ebp
	mov	ebp, esp
	sub	esp, 124				; 0000007cH
	push	ebx
	push	esi
	push	edi

; 167  : 	for( int i = 0; i < 16; i++ )

	mov	DWORD PTR _i$7[ebp], 0
	jmp	SHORT $LN4@R_CreateSi
$LN2@R_CreateSi:
	mov	eax, DWORD PTR _i$7[ebp]
	add	eax, 1
	mov	DWORD PTR _i$7[ebp], eax
$LN4@R_CreateSi:
	cmp	DWORD PTR _i$7[ebp], 16			; 00000010H
	jge	$LN3@R_CreateSi

; 168  : 	{
; 169  : 		gvert_t *entry = &m_arraygvert[m_iNumVertex];

	imul	eax, DWORD PTR ?m_iNumVertex@@3HA, 36
	add	eax, OFFSET ?m_arraygvert@@3PAUgvert_s@@A
	mov	DWORD PTR _entry$6[ebp], eax

; 170  : 		Vector vertex = R_GetPointForBush( i, pos, size );

	push	ecx
	movss	xmm0, DWORD PTR _size$[ebp]
	movss	DWORD PTR [esp], xmm0
	mov	eax, DWORD PTR _pos$[ebp]
	push	eax
	mov	ecx, DWORD PTR _i$7[ebp]
	push	ecx
	lea	edx, DWORD PTR _vertex$5[ebp]
	push	edx
	call	?R_GetPointForBush@@YA?BVVector@@HABV1@M@Z ; R_GetPointForBush
	add	esp, 16					; 00000010H

; 171  : 		memcpy( entry->styles, surf->styles, sizeof( entry->styles ));

	push	4
	mov	eax, DWORD PTR _surf$[ebp]
	add	eax, 60					; 0000003cH
	push	eax
	mov	ecx, DWORD PTR _entry$6[ebp]
	add	ecx, 32					; 00000020H
	push	ecx
	call	_memcpy
	add	esp, 12					; 0000000cH

; 172  : 		R_GrassLightForVertex( surf, es, vertex, pos.z, entry->light );

	mov	eax, DWORD PTR _entry$6[ebp]
	add	eax, 16					; 00000010H
	push	eax
	mov	ecx, DWORD PTR _pos$[ebp]
	push	ecx
	movss	xmm0, DWORD PTR [ecx+8]
	movss	DWORD PTR [esp], xmm0
	lea	edx, DWORD PTR _vertex$5[ebp]
	push	edx
	mov	eax, DWORD PTR _es$[ebp]
	push	eax
	mov	ecx, DWORD PTR _surf$[ebp]
	push	ecx
	call	?R_GrassLightForVertex@@YAXPAUmsurface_s@@PAUmextrasurf_s@@ABVVector@@MQAM@Z ; R_GrassLightForVertex
	add	esp, 20					; 00000014H

; 173  : 		AddPointToBounds( vertex, hdr->mins, hdr->maxs ); // build bbox for grass

	push	ecx
	xorps	xmm0, xmm0
	movss	DWORD PTR [esp], xmm0
	mov	eax, DWORD PTR _hdr$[ebp]
	add	eax, 28					; 0000001cH
	push	eax
	mov	ecx, DWORD PTR _hdr$[ebp]
	add	ecx, 16					; 00000010H
	push	ecx
	lea	edx, DWORD PTR _vertex$5[ebp]
	push	edx
	call	?AddPointToBounds@@YAXABVVector@@AAV1@1M@Z ; AddPointToBounds
	add	esp, 16					; 00000010H

; 174  : 		Vector dir = ( vertex - pos ).Normalize();

	lea	eax, DWORD PTR _dir$4[ebp]
	push	eax
	mov	ecx, DWORD PTR _pos$[ebp]
	push	ecx
	lea	edx, DWORD PTR $T2[ebp]
	push	edx
	lea	ecx, DWORD PTR _vertex$5[ebp]
	call	??GVector@@QBE?AV0@ABV0@@Z		; Vector::operator-
	mov	ecx, eax
	call	?Normalize@Vector@@QBE?AV1@XZ		; Vector::Normalize

; 175  : 		float scale = ( vertex - pos ).Length();

	mov	eax, DWORD PTR _pos$[ebp]
	push	eax
	lea	ecx, DWORD PTR $T1[ebp]
	push	ecx
	lea	ecx, DWORD PTR _vertex$5[ebp]
	call	??GVector@@QBE?AV0@ABV0@@Z		; Vector::operator-
	mov	ecx, eax
	call	?Length@Vector@@QBEMXZ			; Vector::Length
	fstp	DWORD PTR _scale$3[ebp]

; 176  : #ifdef GRASS_PACKED_VERTEX
; 177  : 		entry->normal[0] = FloatToHalf( dir.x );

	push	ecx
	movss	xmm0, DWORD PTR _dir$4[ebp]
	movss	DWORD PTR [esp], xmm0
	call	?FloatToHalf@@YAGM@Z			; FloatToHalf
	add	esp, 4
	mov	ecx, 2
	imul	edx, ecx, 0
	mov	ecx, DWORD PTR _entry$6[ebp]
	mov	WORD PTR [ecx+edx+8], ax

; 178  : 		entry->normal[1] = FloatToHalf( dir.y );

	push	ecx
	movss	xmm0, DWORD PTR _dir$4[ebp+4]
	movss	DWORD PTR [esp], xmm0
	call	?FloatToHalf@@YAGM@Z			; FloatToHalf
	add	esp, 4
	mov	ecx, 2
	shl	ecx, 0
	mov	edx, DWORD PTR _entry$6[ebp]
	mov	WORD PTR [edx+ecx+8], ax

; 179  : 		entry->normal[2] = FloatToHalf( dir.z );

	push	ecx
	movss	xmm0, DWORD PTR _dir$4[ebp+8]
	movss	DWORD PTR [esp], xmm0
	call	?FloatToHalf@@YAGM@Z			; FloatToHalf
	add	esp, 4
	mov	ecx, 2
	shl	ecx, 1
	mov	edx, DWORD PTR _entry$6[ebp]
	mov	WORD PTR [edx+ecx+8], ax

; 180  : 		entry->normal[3] = FloatToHalf( scale );

	push	ecx
	movss	xmm0, DWORD PTR _scale$3[ebp]
	movss	DWORD PTR [esp], xmm0
	call	?FloatToHalf@@YAGM@Z			; FloatToHalf
	add	esp, 4
	mov	ecx, 2
	imul	edx, ecx, 3
	mov	ecx, DWORD PTR _entry$6[ebp]
	mov	WORD PTR [ecx+edx+8], ax

; 181  : 		entry->center[0] = FloatToHalf( pos.x );

	mov	eax, DWORD PTR _pos$[ebp]
	push	ecx
	movss	xmm0, DWORD PTR [eax]
	movss	DWORD PTR [esp], xmm0
	call	?FloatToHalf@@YAGM@Z			; FloatToHalf
	add	esp, 4
	mov	ecx, 2
	imul	edx, ecx, 0
	mov	ecx, DWORD PTR _entry$6[ebp]
	mov	WORD PTR [ecx+edx], ax

; 182  : 		entry->center[1] = FloatToHalf( pos.y );

	mov	eax, DWORD PTR _pos$[ebp]
	push	ecx
	movss	xmm0, DWORD PTR [eax+4]
	movss	DWORD PTR [esp], xmm0
	call	?FloatToHalf@@YAGM@Z			; FloatToHalf
	add	esp, 4
	mov	ecx, 2
	shl	ecx, 0
	mov	edx, DWORD PTR _entry$6[ebp]
	mov	WORD PTR [edx+ecx], ax

; 183  : 		entry->center[2] = FloatToHalf( pos.z );

	mov	eax, DWORD PTR _pos$[ebp]
	push	ecx
	movss	xmm0, DWORD PTR [eax+8]
	movss	DWORD PTR [esp], xmm0
	call	?FloatToHalf@@YAGM@Z			; FloatToHalf
	add	esp, 4
	mov	ecx, 2
	shl	ecx, 1
	mov	edx, DWORD PTR _entry$6[ebp]
	mov	WORD PTR [edx+ecx], ax

; 184  : 		entry->center[3] = FloatToHalf( i );

	cvtsi2ss xmm0, DWORD PTR _i$7[ebp]
	push	ecx
	movss	DWORD PTR [esp], xmm0
	call	?FloatToHalf@@YAGM@Z			; FloatToHalf
	add	esp, 4
	mov	ecx, 2
	imul	edx, ecx, 3
	mov	ecx, DWORD PTR _entry$6[ebp]
	mov	WORD PTR [ecx+edx], ax

; 185  : #else
; 186  : 		entry->normal = Vector4D( dir.x, dir.y, dir.z, scale );
; 187  : 		entry->center = Vector4D( pos.x, pos.y, pos.z, i );
; 188  : #endif
; 189  : 		// generate indices
; 190  : 		if( !R_GrassAdvanceVertex( ))

	call	?R_GrassAdvanceVertex@@YA_NXZ		; R_GrassAdvanceVertex
	movzx	eax, al
	test	eax, eax
	jne	SHORT $LN5@R_CreateSi

; 191  : 		{
; 192  : 			// vertexes is out
; 193  : 			return false;

	xor	al, al
	jmp	SHORT $LN1@R_CreateSi
$LN5@R_CreateSi:

; 194  : 		}
; 195  : 	}

	jmp	$LN2@R_CreateSi
$LN3@R_CreateSi:

; 196  : 
; 197  : 	return true;

	mov	al, 1
$LN1@R_CreateSi:

; 198  : }

	pop	edi
	pop	esi
	pop	ebx
	mov	esp, ebp
	pop	ebp
	ret	0
?R_CreateSingleBush@@YA_NPAUmsurface_s@@PAUmextrasurf_s@@PAUgrasshdr_s@@ABVVector@@M@Z ENDP ; R_CreateSingleBush
_TEXT	ENDS
; Function compile flags: /Odtp /ZI
; File d:\!diffusion 2020\source code 2022\client-server\client\render\r_grass.cpp
;	COMDAT ?R_GrassLightForVertex@@YAXPAUmsurface_s@@PAUmextrasurf_s@@ABVVector@@MQAM@Z
_TEXT	SEGMENT
tv227 = -140						; size = 4
tv205 = -140						; size = 4
tv189 = -140						; size = 4
tv305 = -136						; size = 4
tv292 = -136						; size = 4
tv216 = -136						; size = 4
tv204 = -136						; size = 4
tv188 = -136						; size = 4
$T1 = -132						; size = 12
$T2 = -120						; size = 12
_lm$ = -44						; size = 4
_map$ = -40						; size = 4
_size$ = -36						; size = 4
_tmax$ = -32						; size = 4
_smax$ = -28						; size = 4
_t$ = -24						; size = 4
_s$ = -20						; size = 4
_pos$ = -16						; size = 12
_sample_size$ = -4					; size = 4
_fa$ = 8						; size = 4
_es$ = 12						; size = 4
_vertex$ = 16						; size = 4
_posz$ = 20						; size = 4
_light$ = 24						; size = 4
?R_GrassLightForVertex@@YAXPAUmsurface_s@@PAUmextrasurf_s@@ABVVector@@MQAM@Z PROC ; R_GrassLightForVertex, COMDAT

; 130  : {

	push	ebp
	mov	ebp, esp
	sub	esp, 140				; 0000008cH
	push	ebx
	push	esi
	push	edi

; 131  : 	if( !worldmodel->lightdata || !fa->samples )

	mov	eax, DWORD PTR ?worldmodel@@3PAUmodel_s@@A ; worldmodel
	cmp	DWORD PTR [eax+380], 0
	je	SHORT $LN6@R_GrassLig
	mov	eax, DWORD PTR _fa$[ebp]
	cmp	DWORD PTR [eax+84], 0
	jne	SHORT $LN5@R_GrassLig
$LN6@R_GrassLig:

; 132  : 		return;

	jmp	$LN1@R_GrassLig
$LN5@R_GrassLig:

; 133  : 
; 134  : 	float sample_size = Mod_SampleSizeForFace( fa );

	mov	eax, DWORD PTR _fa$[ebp]
	push	eax
	call	?Mod_SampleSizeForFace@@YAHPAUmsurface_s@@@Z ; Mod_SampleSizeForFace
	add	esp, 4
	cvtsi2ss xmm0, eax
	movss	DWORD PTR _sample_size$[ebp], xmm0

; 135  : 	Vector pos = Vector( vertex.x, vertex.y, posz ); // drop to floor

	push	ecx
	movss	xmm0, DWORD PTR _posz$[ebp]
	movss	DWORD PTR [esp], xmm0
	mov	eax, DWORD PTR _vertex$[ebp]
	push	ecx
	movss	xmm0, DWORD PTR [eax+4]
	movss	DWORD PTR [esp], xmm0
	mov	ecx, DWORD PTR _vertex$[ebp]
	push	ecx
	movss	xmm0, DWORD PTR [ecx]
	movss	DWORD PTR [esp], xmm0
	lea	ecx, DWORD PTR _pos$[ebp]
	call	??0Vector@@QAE@MMM@Z			; Vector::Vector

; 136  : 	float s = DotProduct( pos, fa->info->lmvecs[0] ) + fa->info->lmvecs[0][3] - fa->info->lightmapmins[0];

	mov	eax, DWORD PTR _fa$[ebp]
	mov	ecx, DWORD PTR [eax+80]
	mov	edx, 16					; 00000010H
	imul	eax, edx, 0
	lea	ecx, DWORD PTR [ecx+eax+56]
	push	ecx
	lea	ecx, DWORD PTR $T2[ebp]
	call	??0Vector@@QAE@QAM@Z			; Vector::Vector
	lea	edx, DWORD PTR $T2[ebp]
	push	edx
	lea	eax, DWORD PTR _pos$[ebp]
	push	eax
	call	?DotProduct@@YAMABVVector@@0@Z		; DotProduct
	add	esp, 8
	fstp	DWORD PTR tv292[ebp]
	movss	xmm0, DWORD PTR tv292[ebp]
	mov	ecx, DWORD PTR _fa$[ebp]
	mov	edx, DWORD PTR [ecx+80]
	mov	eax, 16					; 00000010H
	imul	ecx, eax, 0
	lea	edx, DWORD PTR [edx+ecx+56]
	mov	eax, 4
	imul	ecx, eax, 3
	addss	xmm0, DWORD PTR [edx+ecx]
	mov	edx, DWORD PTR _fa$[ebp]
	mov	eax, DWORD PTR [edx+80]
	mov	ecx, 2
	imul	edx, ecx, 0
	movsx	eax, WORD PTR [eax+edx+48]
	cvtsi2ss xmm1, eax
	subss	xmm0, xmm1
	movss	DWORD PTR _s$[ebp], xmm0

; 137  : 	float t = DotProduct( pos, fa->info->lmvecs[1] ) + fa->info->lmvecs[1][3] - fa->info->lightmapmins[1];

	mov	eax, DWORD PTR _fa$[ebp]
	mov	ecx, DWORD PTR [eax+80]
	mov	edx, 16					; 00000010H
	shl	edx, 0
	lea	eax, DWORD PTR [ecx+edx+56]
	push	eax
	lea	ecx, DWORD PTR $T1[ebp]
	call	??0Vector@@QAE@QAM@Z			; Vector::Vector
	lea	ecx, DWORD PTR $T1[ebp]
	push	ecx
	lea	edx, DWORD PTR _pos$[ebp]
	push	edx
	call	?DotProduct@@YAMABVVector@@0@Z		; DotProduct
	add	esp, 8
	fstp	DWORD PTR tv305[ebp]
	movss	xmm0, DWORD PTR tv305[ebp]
	mov	eax, DWORD PTR _fa$[ebp]
	mov	ecx, DWORD PTR [eax+80]
	mov	edx, 16					; 00000010H
	shl	edx, 0
	lea	eax, DWORD PTR [ecx+edx+56]
	mov	ecx, 4
	imul	edx, ecx, 3
	addss	xmm0, DWORD PTR [eax+edx]
	mov	eax, DWORD PTR _fa$[ebp]
	mov	ecx, DWORD PTR [eax+80]
	mov	edx, 2
	shl	edx, 0
	movsx	eax, WORD PTR [ecx+edx+48]
	cvtsi2ss xmm1, eax
	subss	xmm0, xmm1
	movss	DWORD PTR _t$[ebp], xmm0

; 138  : 	int smax = (fa->info->lightextents[0] / sample_size) + 1;

	mov	eax, DWORD PTR _fa$[ebp]
	mov	ecx, DWORD PTR [eax+80]
	mov	edx, 2
	imul	eax, edx, 0
	movsx	ecx, WORD PTR [ecx+eax+52]
	cvtsi2ss xmm0, ecx
	divss	xmm0, DWORD PTR _sample_size$[ebp]
	addss	xmm0, DWORD PTR __real@3f800000
	cvttss2si edx, xmm0
	mov	DWORD PTR _smax$[ebp], edx

; 139  : 	int tmax = (fa->info->lightextents[1] / sample_size) + 1;

	mov	eax, DWORD PTR _fa$[ebp]
	mov	ecx, DWORD PTR [eax+80]
	mov	edx, 2
	shl	edx, 0
	movsx	eax, WORD PTR [ecx+edx+52]
	cvtsi2ss xmm0, eax
	divss	xmm0, DWORD PTR _sample_size$[ebp]
	addss	xmm0, DWORD PTR __real@3f800000
	cvttss2si ecx, xmm0
	mov	DWORD PTR _tmax$[ebp], ecx

; 140  : 	int size = smax * tmax;

	mov	eax, DWORD PTR _smax$[ebp]
	imul	eax, DWORD PTR _tmax$[ebp]
	mov	DWORD PTR _size$[ebp], eax

; 141  : 	int map;
; 142  : 
; 143  : 	// some bushes may be out of current poly
; 144  : 	s = bound( 0, s, fa->info->lightextents[0] );

	movss	xmm0, DWORD PTR _s$[ebp]
	comiss	xmm0, DWORD PTR __real@00000000
	jb	SHORT $LN10@R_GrassLig
	mov	eax, DWORD PTR _fa$[ebp]
	mov	ecx, DWORD PTR [eax+80]
	mov	edx, 2
	imul	eax, edx, 0
	movsx	ecx, WORD PTR [ecx+eax+52]
	cvtsi2ss xmm0, ecx
	comiss	xmm0, DWORD PTR _s$[ebp]
	jbe	SHORT $LN8@R_GrassLig
	movss	xmm0, DWORD PTR _s$[ebp]
	movss	DWORD PTR tv188[ebp], xmm0
	jmp	SHORT $LN9@R_GrassLig
$LN8@R_GrassLig:
	mov	edx, DWORD PTR _fa$[ebp]
	mov	eax, DWORD PTR [edx+80]
	mov	ecx, 2
	imul	edx, ecx, 0
	movsx	eax, WORD PTR [eax+edx+52]
	cvtsi2ss xmm0, eax
	movss	DWORD PTR tv188[ebp], xmm0
$LN9@R_GrassLig:
	movss	xmm0, DWORD PTR tv188[ebp]
	movss	DWORD PTR tv189[ebp], xmm0
	jmp	SHORT $LN11@R_GrassLig
$LN10@R_GrassLig:
	xorps	xmm0, xmm0
	movss	DWORD PTR tv189[ebp], xmm0
$LN11@R_GrassLig:
	movss	xmm0, DWORD PTR tv189[ebp]
	movss	DWORD PTR _s$[ebp], xmm0

; 145  : 	t = bound( 0, t, fa->info->lightextents[1] );

	movss	xmm0, DWORD PTR _t$[ebp]
	comiss	xmm0, DWORD PTR __real@00000000
	jb	SHORT $LN14@R_GrassLig
	mov	eax, DWORD PTR _fa$[ebp]
	mov	ecx, DWORD PTR [eax+80]
	mov	edx, 2
	shl	edx, 0
	movsx	eax, WORD PTR [ecx+edx+52]
	cvtsi2ss xmm0, eax
	comiss	xmm0, DWORD PTR _t$[ebp]
	jbe	SHORT $LN12@R_GrassLig
	movss	xmm0, DWORD PTR _t$[ebp]
	movss	DWORD PTR tv204[ebp], xmm0
	jmp	SHORT $LN13@R_GrassLig
$LN12@R_GrassLig:
	mov	ecx, DWORD PTR _fa$[ebp]
	mov	edx, DWORD PTR [ecx+80]
	mov	eax, 2
	shl	eax, 0
	movsx	ecx, WORD PTR [edx+eax+52]
	cvtsi2ss xmm0, ecx
	movss	DWORD PTR tv204[ebp], xmm0
$LN13@R_GrassLig:
	movss	xmm0, DWORD PTR tv204[ebp]
	movss	DWORD PTR tv205[ebp], xmm0
	jmp	SHORT $LN15@R_GrassLig
$LN14@R_GrassLig:
	xorps	xmm0, xmm0
	movss	DWORD PTR tv205[ebp], xmm0
$LN15@R_GrassLig:
	movss	xmm0, DWORD PTR tv205[ebp]
	movss	DWORD PTR _t$[ebp], xmm0

; 146  : 	s /= sample_size;

	movss	xmm0, DWORD PTR _s$[ebp]
	divss	xmm0, DWORD PTR _sample_size$[ebp]
	movss	DWORD PTR _s$[ebp], xmm0

; 147  : 	t /= sample_size;

	movss	xmm0, DWORD PTR _t$[ebp]
	divss	xmm0, DWORD PTR _sample_size$[ebp]
	movss	DWORD PTR _t$[ebp], xmm0

; 148  : 
; 149  : 	color24 *lm = fa->samples + Q_rint( t ) * smax + Q_rint( s );

	xorps	xmm0, xmm0
	comiss	xmm0, DWORD PTR _t$[ebp]
	jbe	SHORT $LN16@R_GrassLig
	movss	xmm0, DWORD PTR _t$[ebp]
	subss	xmm0, DWORD PTR __real@3f000000
	cvttss2si eax, xmm0
	mov	DWORD PTR tv216[ebp], eax
	jmp	SHORT $LN17@R_GrassLig
$LN16@R_GrassLig:
	movss	xmm0, DWORD PTR _t$[ebp]
	addss	xmm0, DWORD PTR __real@3f000000
	cvttss2si ecx, xmm0
	mov	DWORD PTR tv216[ebp], ecx
$LN17@R_GrassLig:
	xorps	xmm0, xmm0
	comiss	xmm0, DWORD PTR _s$[ebp]
	jbe	SHORT $LN18@R_GrassLig
	movss	xmm0, DWORD PTR _s$[ebp]
	subss	xmm0, DWORD PTR __real@3f000000
	cvttss2si edx, xmm0
	mov	DWORD PTR tv227[ebp], edx
	jmp	SHORT $LN19@R_GrassLig
$LN18@R_GrassLig:
	movss	xmm0, DWORD PTR _s$[ebp]
	addss	xmm0, DWORD PTR __real@3f000000
	cvttss2si eax, xmm0
	mov	DWORD PTR tv227[ebp], eax
$LN19@R_GrassLig:
	mov	ecx, DWORD PTR tv216[ebp]
	imul	ecx, DWORD PTR _smax$[ebp]
	imul	edx, ecx, 3
	mov	eax, DWORD PTR _fa$[ebp]
	mov	ecx, DWORD PTR [eax+84]
	add	ecx, edx
	imul	edx, DWORD PTR tv227[ebp], 3
	add	ecx, edx
	mov	DWORD PTR _lm$[ebp], ecx

; 150  : 
; 151  : 	for( map = 0; map < MAXLIGHTMAPS && fa->styles[map] != 255; map++ )

	mov	DWORD PTR _map$[ebp], 0
	jmp	SHORT $LN4@R_GrassLig
$LN2@R_GrassLig:
	mov	eax, DWORD PTR _map$[ebp]
	add	eax, 1
	mov	DWORD PTR _map$[ebp], eax
$LN4@R_GrassLig:
	cmp	DWORD PTR _map$[ebp], 4
	jge	SHORT $LN3@R_GrassLig
	mov	eax, DWORD PTR _fa$[ebp]
	add	eax, DWORD PTR _map$[ebp]
	movzx	ecx, BYTE PTR [eax+60]
	cmp	ecx, 255				; 000000ffH
	je	SHORT $LN3@R_GrassLig

; 152  : 	{
; 153  : 		light[map] = (float)((double)((lm->r << 16) | (lm->g << 8) | lm->b) / (double)(1 << 24));

	mov	eax, DWORD PTR _lm$[ebp]
	movzx	ecx, BYTE PTR [eax]
	shl	ecx, 16					; 00000010H
	mov	edx, DWORD PTR _lm$[ebp]
	movzx	eax, BYTE PTR [edx+1]
	shl	eax, 8
	or	ecx, eax
	mov	edx, DWORD PTR _lm$[ebp]
	movzx	eax, BYTE PTR [edx+2]
	or	ecx, eax
	cvtsi2sd xmm0, ecx
	divsd	xmm0, QWORD PTR __real@4170000000000000
	cvtsd2ss xmm0, xmm0
	mov	ecx, DWORD PTR _map$[ebp]
	mov	edx, DWORD PTR _light$[ebp]
	movss	DWORD PTR [edx+ecx*4], xmm0

; 154  : 		lm += size; // skip to next lightmap

	imul	eax, DWORD PTR _size$[ebp], 3
	add	eax, DWORD PTR _lm$[ebp]
	mov	DWORD PTR _lm$[ebp], eax

; 155  : 	}

	jmp	SHORT $LN2@R_GrassLig
$LN3@R_GrassLig:
$LN1@R_GrassLig:

; 156  : }

	pop	edi
	pop	esi
	pop	ebx
	mov	esp, ebp
	pop	ebp
	ret	0
?R_GrassLightForVertex@@YAXPAUmsurface_s@@PAUmextrasurf_s@@ABVVector@@MQAM@Z ENDP ; R_GrassLightForVertex
_TEXT	ENDS
; Function compile flags: /Odtp /ZI
; File d:\!diffusion 2020\source code 2022\client-server\client\render\r_grass.cpp
;	COMDAT ?R_GrassAdvanceVertex@@YA_NXZ
_TEXT	SEGMENT
tv70 = -68						; size = 4
?R_GrassAdvanceVertex@@YA_NXZ PROC			; R_GrassAdvanceVertex, COMDAT

; 100  : {

	push	ebp
	mov	ebp, esp
	sub	esp, 68					; 00000044H
	push	ebx
	push	esi
	push	edi

; 101  : 	if((( m_iNumIndex + 6 ) >= MAX_GRASS_ELEMS ) || (( m_iNumVertex + 4 ) >= MAX_GRASS_VERTS ))

	mov	eax, DWORD PTR ?m_iNumIndex@@3HA
	add	eax, 6
	cmp	eax, 65536				; 00010000H
	jge	SHORT $LN3@R_GrassAdv
	mov	eax, DWORD PTR ?m_iNumVertex@@3HA
	add	eax, 4
	cmp	eax, 32768				; 00008000H
	jl	SHORT $LN2@R_GrassAdv
$LN3@R_GrassAdv:

; 102  : 		return false;

	xor	al, al
	jmp	$LN1@R_GrassAdv
$LN2@R_GrassAdv:

; 103  : 
; 104  : 	if( m_iVertexState++ < 3 )

	mov	eax, DWORD PTR ?m_iVertexState@@3HA
	mov	DWORD PTR tv70[ebp], eax
	mov	ecx, DWORD PTR ?m_iVertexState@@3HA
	add	ecx, 1
	mov	DWORD PTR ?m_iVertexState@@3HA, ecx
	cmp	DWORD PTR tv70[ebp], 3
	jge	SHORT $LN4@R_GrassAdv

; 105  : 	{
; 106  : 		m_indexarray[m_iNumIndex++] = m_iNumVertex;

	mov	eax, DWORD PTR ?m_iNumIndex@@3HA
	mov	cx, WORD PTR ?m_iNumVertex@@3HA
	mov	WORD PTR ?m_indexarray@@3PAGA[eax*2], cx
	mov	edx, DWORD PTR ?m_iNumIndex@@3HA
	add	edx, 1
	mov	DWORD PTR ?m_iNumIndex@@3HA, edx

; 107  : 	}
; 108  : 	else

	jmp	SHORT $LN5@R_GrassAdv
$LN4@R_GrassAdv:

; 109  : 	{
; 110  : 		// we've already done triangle (0, 1, 2), now draw (2, 3, 0)
; 111  : 		m_indexarray[m_iNumIndex++] = m_iNumVertex - 1;

	mov	eax, DWORD PTR ?m_iNumVertex@@3HA
	sub	eax, 1
	mov	ecx, DWORD PTR ?m_iNumIndex@@3HA
	mov	WORD PTR ?m_indexarray@@3PAGA[ecx*2], ax
	mov	edx, DWORD PTR ?m_iNumIndex@@3HA
	add	edx, 1
	mov	DWORD PTR ?m_iNumIndex@@3HA, edx

; 112  : 		m_indexarray[m_iNumIndex++] = m_iNumVertex;

	mov	eax, DWORD PTR ?m_iNumIndex@@3HA
	mov	cx, WORD PTR ?m_iNumVertex@@3HA
	mov	WORD PTR ?m_indexarray@@3PAGA[eax*2], cx
	mov	edx, DWORD PTR ?m_iNumIndex@@3HA
	add	edx, 1
	mov	DWORD PTR ?m_iNumIndex@@3HA, edx

; 113  : 		m_indexarray[m_iNumIndex++] = m_iNumVertex - 3;

	mov	eax, DWORD PTR ?m_iNumVertex@@3HA
	sub	eax, 3
	mov	ecx, DWORD PTR ?m_iNumIndex@@3HA
	mov	WORD PTR ?m_indexarray@@3PAGA[ecx*2], ax
	mov	edx, DWORD PTR ?m_iNumIndex@@3HA
	add	edx, 1
	mov	DWORD PTR ?m_iNumIndex@@3HA, edx

; 114  : 		m_iVertexState = 0;

	mov	DWORD PTR ?m_iVertexState@@3HA, 0
$LN5@R_GrassAdv:

; 115  : 	}
; 116  : 	m_iNumVertex++;

	mov	eax, DWORD PTR ?m_iNumVertex@@3HA
	add	eax, 1
	mov	DWORD PTR ?m_iNumVertex@@3HA, eax

; 117  : 
; 118  : 	return true;

	mov	al, 1
$LN1@R_GrassAdv:

; 119  : }

	pop	edi
	pop	esi
	pop	ebx
	mov	esp, ebp
	pop	ebp
	ret	0
?R_GrassAdvanceVertex@@YA_NXZ ENDP			; R_GrassAdvanceVertex
_TEXT	ENDS
; Function compile flags: /Odtp /ZI
; File d:\!diffusion 2020\source code 2022\client-server\client\render\r_grass.cpp
;	COMDAT ?R_GetPointForBush@@YA?BVVector@@HABV1@M@Z
_TEXT	SEGMENT
tv68 = -80						; size = 4
_s3$ = -12						; size = 4
_s2$ = -8						; size = 4
_s1$ = -4						; size = 4
___$ReturnUdt$ = 8					; size = 4
_vertexNum$ = 12					; size = 4
_pos$ = 16						; size = 4
_scale$ = 20						; size = 4
?R_GetPointForBush@@YA?BVVector@@HABV1@M@Z PROC		; R_GetPointForBush, COMDAT

; 64   : {

	push	ebp
	mov	ebp, esp
	sub	esp, 80					; 00000050H
	push	ebx
	push	esi
	push	edi

; 65   : 	float s1 = 12.0f * scale;

	movss	xmm0, DWORD PTR __real@41400000
	mulss	xmm0, DWORD PTR _scale$[ebp]
	movss	DWORD PTR _s1$[ebp], xmm0

; 66   : 	float s2 = 16.0f * scale;

	movss	xmm0, DWORD PTR __real@41800000
	mulss	xmm0, DWORD PTR _scale$[ebp]
	movss	DWORD PTR _s2$[ebp], xmm0

; 67   : 	float s3 = 24.0f * scale;

	movss	xmm0, DWORD PTR __real@41c00000
	mulss	xmm0, DWORD PTR _scale$[ebp]
	movss	DWORD PTR _s3$[ebp], xmm0

; 68   : 
; 69   : 	switch(( vertexNum & 15 ))

	mov	eax, DWORD PTR _vertexNum$[ebp]
	and	eax, 15					; 0000000fH
	mov	DWORD PTR tv68[ebp], eax
	cmp	DWORD PTR tv68[ebp], 15			; 0000000fH
	ja	$LN2@R_GetPoint
	mov	ecx, DWORD PTR tv68[ebp]
	jmp	DWORD PTR $LN21@R_GetPoint[ecx*4]
$LN4@R_GetPoint:

; 70   : 	{
; 71   : 	case 0:  return Vector( pos.x - s2, pos.y, pos.z );

	mov	eax, DWORD PTR _pos$[ebp]
	push	ecx
	movss	xmm0, DWORD PTR [eax+8]
	movss	DWORD PTR [esp], xmm0
	mov	ecx, DWORD PTR _pos$[ebp]
	push	ecx
	movss	xmm0, DWORD PTR [ecx+4]
	movss	DWORD PTR [esp], xmm0
	mov	edx, DWORD PTR _pos$[ebp]
	movss	xmm0, DWORD PTR [edx]
	subss	xmm0, DWORD PTR _s2$[ebp]
	push	ecx
	movss	DWORD PTR [esp], xmm0
	mov	ecx, DWORD PTR ___$ReturnUdt$[ebp]
	call	??0Vector@@QAE@MMM@Z			; Vector::Vector
	mov	eax, DWORD PTR ___$ReturnUdt$[ebp]
	jmp	$LN1@R_GetPoint
$LN5@R_GetPoint:

; 72   : 	case 1:  return Vector( pos.x - s2, pos.y, pos.z + s3 );

	mov	eax, DWORD PTR _pos$[ebp]
	movss	xmm0, DWORD PTR [eax+8]
	addss	xmm0, DWORD PTR _s3$[ebp]
	push	ecx
	movss	DWORD PTR [esp], xmm0
	mov	ecx, DWORD PTR _pos$[ebp]
	push	ecx
	movss	xmm0, DWORD PTR [ecx+4]
	movss	DWORD PTR [esp], xmm0
	mov	edx, DWORD PTR _pos$[ebp]
	movss	xmm0, DWORD PTR [edx]
	subss	xmm0, DWORD PTR _s2$[ebp]
	push	ecx
	movss	DWORD PTR [esp], xmm0
	mov	ecx, DWORD PTR ___$ReturnUdt$[ebp]
	call	??0Vector@@QAE@MMM@Z			; Vector::Vector
	mov	eax, DWORD PTR ___$ReturnUdt$[ebp]
	jmp	$LN1@R_GetPoint
$LN6@R_GetPoint:

; 73   : 	case 2:  return Vector( pos.x + s2, pos.y, pos.z + s3 );

	mov	eax, DWORD PTR _pos$[ebp]
	movss	xmm0, DWORD PTR [eax+8]
	addss	xmm0, DWORD PTR _s3$[ebp]
	push	ecx
	movss	DWORD PTR [esp], xmm0
	mov	ecx, DWORD PTR _pos$[ebp]
	push	ecx
	movss	xmm0, DWORD PTR [ecx+4]
	movss	DWORD PTR [esp], xmm0
	mov	edx, DWORD PTR _pos$[ebp]
	movss	xmm0, DWORD PTR [edx]
	addss	xmm0, DWORD PTR _s2$[ebp]
	push	ecx
	movss	DWORD PTR [esp], xmm0
	mov	ecx, DWORD PTR ___$ReturnUdt$[ebp]
	call	??0Vector@@QAE@MMM@Z			; Vector::Vector
	mov	eax, DWORD PTR ___$ReturnUdt$[ebp]
	jmp	$LN1@R_GetPoint
$LN7@R_GetPoint:

; 74   : 	case 3:  return Vector( pos.x + s2, pos.y, pos.z );

	mov	eax, DWORD PTR _pos$[ebp]
	push	ecx
	movss	xmm0, DWORD PTR [eax+8]
	movss	DWORD PTR [esp], xmm0
	mov	ecx, DWORD PTR _pos$[ebp]
	push	ecx
	movss	xmm0, DWORD PTR [ecx+4]
	movss	DWORD PTR [esp], xmm0
	mov	edx, DWORD PTR _pos$[ebp]
	movss	xmm0, DWORD PTR [edx]
	addss	xmm0, DWORD PTR _s2$[ebp]
	push	ecx
	movss	DWORD PTR [esp], xmm0
	mov	ecx, DWORD PTR ___$ReturnUdt$[ebp]
	call	??0Vector@@QAE@MMM@Z			; Vector::Vector
	mov	eax, DWORD PTR ___$ReturnUdt$[ebp]
	jmp	$LN1@R_GetPoint
$LN8@R_GetPoint:

; 75   : 	case 4:  return Vector( pos.x, pos.y - s2, pos.z );

	mov	eax, DWORD PTR _pos$[ebp]
	push	ecx
	movss	xmm0, DWORD PTR [eax+8]
	movss	DWORD PTR [esp], xmm0
	mov	ecx, DWORD PTR _pos$[ebp]
	movss	xmm0, DWORD PTR [ecx+4]
	subss	xmm0, DWORD PTR _s2$[ebp]
	push	ecx
	movss	DWORD PTR [esp], xmm0
	mov	edx, DWORD PTR _pos$[ebp]
	push	ecx
	movss	xmm0, DWORD PTR [edx]
	movss	DWORD PTR [esp], xmm0
	mov	ecx, DWORD PTR ___$ReturnUdt$[ebp]
	call	??0Vector@@QAE@MMM@Z			; Vector::Vector
	mov	eax, DWORD PTR ___$ReturnUdt$[ebp]
	jmp	$LN1@R_GetPoint
$LN9@R_GetPoint:

; 76   : 	case 5:  return Vector( pos.x, pos.y - s2, pos.z + s3 );

	mov	eax, DWORD PTR _pos$[ebp]
	movss	xmm0, DWORD PTR [eax+8]
	addss	xmm0, DWORD PTR _s3$[ebp]
	push	ecx
	movss	DWORD PTR [esp], xmm0
	mov	ecx, DWORD PTR _pos$[ebp]
	movss	xmm0, DWORD PTR [ecx+4]
	subss	xmm0, DWORD PTR _s2$[ebp]
	push	ecx
	movss	DWORD PTR [esp], xmm0
	mov	edx, DWORD PTR _pos$[ebp]
	push	ecx
	movss	xmm0, DWORD PTR [edx]
	movss	DWORD PTR [esp], xmm0
	mov	ecx, DWORD PTR ___$ReturnUdt$[ebp]
	call	??0Vector@@QAE@MMM@Z			; Vector::Vector
	mov	eax, DWORD PTR ___$ReturnUdt$[ebp]
	jmp	$LN1@R_GetPoint
$LN10@R_GetPoint:

; 77   : 	case 6:  return Vector( pos.x, pos.y + s2, pos.z + s3 );

	mov	eax, DWORD PTR _pos$[ebp]
	movss	xmm0, DWORD PTR [eax+8]
	addss	xmm0, DWORD PTR _s3$[ebp]
	push	ecx
	movss	DWORD PTR [esp], xmm0
	mov	ecx, DWORD PTR _pos$[ebp]
	movss	xmm0, DWORD PTR [ecx+4]
	addss	xmm0, DWORD PTR _s2$[ebp]
	push	ecx
	movss	DWORD PTR [esp], xmm0
	mov	edx, DWORD PTR _pos$[ebp]
	push	ecx
	movss	xmm0, DWORD PTR [edx]
	movss	DWORD PTR [esp], xmm0
	mov	ecx, DWORD PTR ___$ReturnUdt$[ebp]
	call	??0Vector@@QAE@MMM@Z			; Vector::Vector
	mov	eax, DWORD PTR ___$ReturnUdt$[ebp]
	jmp	$LN1@R_GetPoint
$LN11@R_GetPoint:

; 78   : 	case 7:  return Vector( pos.x, pos.y + s2, pos.z );

	mov	eax, DWORD PTR _pos$[ebp]
	push	ecx
	movss	xmm0, DWORD PTR [eax+8]
	movss	DWORD PTR [esp], xmm0
	mov	ecx, DWORD PTR _pos$[ebp]
	movss	xmm0, DWORD PTR [ecx+4]
	addss	xmm0, DWORD PTR _s2$[ebp]
	push	ecx
	movss	DWORD PTR [esp], xmm0
	mov	edx, DWORD PTR _pos$[ebp]
	push	ecx
	movss	xmm0, DWORD PTR [edx]
	movss	DWORD PTR [esp], xmm0
	mov	ecx, DWORD PTR ___$ReturnUdt$[ebp]
	call	??0Vector@@QAE@MMM@Z			; Vector::Vector
	mov	eax, DWORD PTR ___$ReturnUdt$[ebp]
	jmp	$LN1@R_GetPoint
$LN12@R_GetPoint:

; 79   : 	case 8:  return Vector( pos.x - s1, pos.y - s1, pos.z );

	mov	eax, DWORD PTR _pos$[ebp]
	push	ecx
	movss	xmm0, DWORD PTR [eax+8]
	movss	DWORD PTR [esp], xmm0
	mov	ecx, DWORD PTR _pos$[ebp]
	movss	xmm0, DWORD PTR [ecx+4]
	subss	xmm0, DWORD PTR _s1$[ebp]
	push	ecx
	movss	DWORD PTR [esp], xmm0
	mov	edx, DWORD PTR _pos$[ebp]
	movss	xmm0, DWORD PTR [edx]
	subss	xmm0, DWORD PTR _s1$[ebp]
	push	ecx
	movss	DWORD PTR [esp], xmm0
	mov	ecx, DWORD PTR ___$ReturnUdt$[ebp]
	call	??0Vector@@QAE@MMM@Z			; Vector::Vector
	mov	eax, DWORD PTR ___$ReturnUdt$[ebp]
	jmp	$LN1@R_GetPoint
$LN13@R_GetPoint:

; 80   : 	case 9:  return Vector( pos.x - s1, pos.y - s1, pos.z + s3 );

	mov	eax, DWORD PTR _pos$[ebp]
	movss	xmm0, DWORD PTR [eax+8]
	addss	xmm0, DWORD PTR _s3$[ebp]
	push	ecx
	movss	DWORD PTR [esp], xmm0
	mov	ecx, DWORD PTR _pos$[ebp]
	movss	xmm0, DWORD PTR [ecx+4]
	subss	xmm0, DWORD PTR _s1$[ebp]
	push	ecx
	movss	DWORD PTR [esp], xmm0
	mov	edx, DWORD PTR _pos$[ebp]
	movss	xmm0, DWORD PTR [edx]
	subss	xmm0, DWORD PTR _s1$[ebp]
	push	ecx
	movss	DWORD PTR [esp], xmm0
	mov	ecx, DWORD PTR ___$ReturnUdt$[ebp]
	call	??0Vector@@QAE@MMM@Z			; Vector::Vector
	mov	eax, DWORD PTR ___$ReturnUdt$[ebp]
	jmp	$LN1@R_GetPoint
$LN14@R_GetPoint:

; 81   : 	case 10: return Vector( pos.x + s1, pos.y + s1, pos.z + s3 );

	mov	eax, DWORD PTR _pos$[ebp]
	movss	xmm0, DWORD PTR [eax+8]
	addss	xmm0, DWORD PTR _s3$[ebp]
	push	ecx
	movss	DWORD PTR [esp], xmm0
	mov	ecx, DWORD PTR _pos$[ebp]
	movss	xmm0, DWORD PTR [ecx+4]
	addss	xmm0, DWORD PTR _s1$[ebp]
	push	ecx
	movss	DWORD PTR [esp], xmm0
	mov	edx, DWORD PTR _pos$[ebp]
	movss	xmm0, DWORD PTR [edx]
	addss	xmm0, DWORD PTR _s1$[ebp]
	push	ecx
	movss	DWORD PTR [esp], xmm0
	mov	ecx, DWORD PTR ___$ReturnUdt$[ebp]
	call	??0Vector@@QAE@MMM@Z			; Vector::Vector
	mov	eax, DWORD PTR ___$ReturnUdt$[ebp]
	jmp	$LN1@R_GetPoint
$LN15@R_GetPoint:

; 82   : 	case 11: return Vector( pos.x + s1, pos.y + s1, pos.z );

	mov	eax, DWORD PTR _pos$[ebp]
	push	ecx
	movss	xmm0, DWORD PTR [eax+8]
	movss	DWORD PTR [esp], xmm0
	mov	ecx, DWORD PTR _pos$[ebp]
	movss	xmm0, DWORD PTR [ecx+4]
	addss	xmm0, DWORD PTR _s1$[ebp]
	push	ecx
	movss	DWORD PTR [esp], xmm0
	mov	edx, DWORD PTR _pos$[ebp]
	movss	xmm0, DWORD PTR [edx]
	addss	xmm0, DWORD PTR _s1$[ebp]
	push	ecx
	movss	DWORD PTR [esp], xmm0
	mov	ecx, DWORD PTR ___$ReturnUdt$[ebp]
	call	??0Vector@@QAE@MMM@Z			; Vector::Vector
	mov	eax, DWORD PTR ___$ReturnUdt$[ebp]
	jmp	$LN1@R_GetPoint
$LN16@R_GetPoint:

; 83   : 	case 12: return Vector( pos.x - s1, pos.y + s1, pos.z );

	mov	eax, DWORD PTR _pos$[ebp]
	push	ecx
	movss	xmm0, DWORD PTR [eax+8]
	movss	DWORD PTR [esp], xmm0
	mov	ecx, DWORD PTR _pos$[ebp]
	movss	xmm0, DWORD PTR [ecx+4]
	addss	xmm0, DWORD PTR _s1$[ebp]
	push	ecx
	movss	DWORD PTR [esp], xmm0
	mov	edx, DWORD PTR _pos$[ebp]
	movss	xmm0, DWORD PTR [edx]
	subss	xmm0, DWORD PTR _s1$[ebp]
	push	ecx
	movss	DWORD PTR [esp], xmm0
	mov	ecx, DWORD PTR ___$ReturnUdt$[ebp]
	call	??0Vector@@QAE@MMM@Z			; Vector::Vector
	mov	eax, DWORD PTR ___$ReturnUdt$[ebp]
	jmp	$LN1@R_GetPoint
$LN17@R_GetPoint:

; 84   : 	case 13: return Vector( pos.x - s1, pos.y + s1, pos.z + s3 );

	mov	eax, DWORD PTR _pos$[ebp]
	movss	xmm0, DWORD PTR [eax+8]
	addss	xmm0, DWORD PTR _s3$[ebp]
	push	ecx
	movss	DWORD PTR [esp], xmm0
	mov	ecx, DWORD PTR _pos$[ebp]
	movss	xmm0, DWORD PTR [ecx+4]
	addss	xmm0, DWORD PTR _s1$[ebp]
	push	ecx
	movss	DWORD PTR [esp], xmm0
	mov	edx, DWORD PTR _pos$[ebp]
	movss	xmm0, DWORD PTR [edx]
	subss	xmm0, DWORD PTR _s1$[ebp]
	push	ecx
	movss	DWORD PTR [esp], xmm0
	mov	ecx, DWORD PTR ___$ReturnUdt$[ebp]
	call	??0Vector@@QAE@MMM@Z			; Vector::Vector
	mov	eax, DWORD PTR ___$ReturnUdt$[ebp]
	jmp	$LN1@R_GetPoint
$LN18@R_GetPoint:

; 85   : 	case 14: return Vector( pos.x + s1, pos.y - s1, pos.z + s3 );

	mov	eax, DWORD PTR _pos$[ebp]
	movss	xmm0, DWORD PTR [eax+8]
	addss	xmm0, DWORD PTR _s3$[ebp]
	push	ecx
	movss	DWORD PTR [esp], xmm0
	mov	ecx, DWORD PTR _pos$[ebp]
	movss	xmm0, DWORD PTR [ecx+4]
	subss	xmm0, DWORD PTR _s1$[ebp]
	push	ecx
	movss	DWORD PTR [esp], xmm0
	mov	edx, DWORD PTR _pos$[ebp]
	movss	xmm0, DWORD PTR [edx]
	addss	xmm0, DWORD PTR _s1$[ebp]
	push	ecx
	movss	DWORD PTR [esp], xmm0
	mov	ecx, DWORD PTR ___$ReturnUdt$[ebp]
	call	??0Vector@@QAE@MMM@Z			; Vector::Vector
	mov	eax, DWORD PTR ___$ReturnUdt$[ebp]
	jmp	SHORT $LN1@R_GetPoint
$LN19@R_GetPoint:

; 86   : 	case 15: return Vector( pos.x + s1, pos.y - s1, pos.z );

	mov	eax, DWORD PTR _pos$[ebp]
	push	ecx
	movss	xmm0, DWORD PTR [eax+8]
	movss	DWORD PTR [esp], xmm0
	mov	ecx, DWORD PTR _pos$[ebp]
	movss	xmm0, DWORD PTR [ecx+4]
	subss	xmm0, DWORD PTR _s1$[ebp]
	push	ecx
	movss	DWORD PTR [esp], xmm0
	mov	edx, DWORD PTR _pos$[ebp]
	movss	xmm0, DWORD PTR [edx]
	addss	xmm0, DWORD PTR _s1$[ebp]
	push	ecx
	movss	DWORD PTR [esp], xmm0
	mov	ecx, DWORD PTR ___$ReturnUdt$[ebp]
	call	??0Vector@@QAE@MMM@Z			; Vector::Vector
	mov	eax, DWORD PTR ___$ReturnUdt$[ebp]
	jmp	SHORT $LN1@R_GetPoint
$LN2@R_GetPoint:

; 87   : 	}
; 88   : 
; 89   : 	return g_vecZero; // error

	push	OFFSET ?g_vecZero@@3VVector@@B		; g_vecZero
	mov	ecx, DWORD PTR ___$ReturnUdt$[ebp]
	call	??0Vector@@QAE@ABV0@@Z			; Vector::Vector
	mov	eax, DWORD PTR ___$ReturnUdt$[ebp]
$LN1@R_GetPoint:

; 90   : }

	pop	edi
	pop	esi
	pop	ebx
	mov	esp, ebp
	pop	ebp
	ret	0
	npad	3
$LN21@R_GetPoint:
	DD	$LN4@R_GetPoint
	DD	$LN5@R_GetPoint
	DD	$LN6@R_GetPoint
	DD	$LN7@R_GetPoint
	DD	$LN8@R_GetPoint
	DD	$LN9@R_GetPoint
	DD	$LN10@R_GetPoint
	DD	$LN11@R_GetPoint
	DD	$LN12@R_GetPoint
	DD	$LN13@R_GetPoint
	DD	$LN14@R_GetPoint
	DD	$LN15@R_GetPoint
	DD	$LN16@R_GetPoint
	DD	$LN17@R_GetPoint
	DD	$LN18@R_GetPoint
	DD	$LN19@R_GetPoint
?R_GetPointForBush@@YA?BVVector@@HABV1@M@Z ENDP		; R_GetPointForBush
_TEXT	ENDS
; Function compile flags: /Odtp /ZI
;	COMDAT ??__FgrassInfo@@YAXXZ
text$yd	SEGMENT
??__FgrassInfo@@YAXXZ PROC				; `dynamic atexit destructor for 'grassInfo'', COMDAT
	push	ebp
	mov	ebp, esp
	sub	esp, 64					; 00000040H
	push	ebx
	push	esi
	push	edi
	mov	ecx, OFFSET ?grassInfo@@3V?$CUtlArray@Ugrassentry_s@@V?$CUtlMemory@Ugrassentry_s@@H@@@@A ; grassInfo
	call	??1?$CUtlArray@Ugrassentry_s@@V?$CUtlMemory@Ugrassentry_s@@H@@@@QAE@XZ ; CUtlArray<grassentry_s,CUtlMemory<grassentry_s,int> >::~CUtlArray<grassentry_s,CUtlMemory<grassentry_s,int> >
	pop	edi
	pop	esi
	pop	ebx
	mov	esp, ebp
	pop	ebp
	ret	0
??__FgrassInfo@@YAXXZ ENDP				; `dynamic atexit destructor for 'grassInfo''
text$yd	ENDS
; Function compile flags: /Odtp /ZI
; File d:\!diffusion 2020\source code 2022\client-server\client\render\r_grass.cpp
;	COMDAT ??__EgrassInfo@@YAXXZ
text$di	SEGMENT
??__EgrassInfo@@YAXXZ PROC				; `dynamic initializer for 'grassInfo'', COMDAT

; 30   : CUtlArray<grassentry_t>	grassInfo;

	push	ebp
	mov	ebp, esp
	sub	esp, 64					; 00000040H
	push	ebx
	push	esi
	push	edi
	push	0
	push	0
	mov	ecx, OFFSET ?grassInfo@@3V?$CUtlArray@Ugrassentry_s@@V?$CUtlMemory@Ugrassentry_s@@H@@@@A ; grassInfo
	call	??0?$CUtlArray@Ugrassentry_s@@V?$CUtlMemory@Ugrassentry_s@@H@@@@QAE@HH@Z ; CUtlArray<grassentry_s,CUtlMemory<grassentry_s,int> >::CUtlArray<grassentry_s,CUtlMemory<grassentry_s,int> >
	push	OFFSET ??__FgrassInfo@@YAXXZ		; `dynamic atexit destructor for 'grassInfo''
	call	_atexit
	add	esp, 4
	pop	edi
	pop	esi
	pop	ebx
	mov	esp, ebp
	pop	ebp
	ret	0
??__EgrassInfo@@YAXXZ ENDP				; `dynamic initializer for 'grassInfo''
text$di	ENDS
; Function compile flags: /Odtp /ZI
; File d:\!diffusion 2020\source code 2022\client-server\game_shared\utlarray.h
;	COMDAT ?ResetDbgInfo@?$CUtlArray@Ugrassentry_s@@V?$CUtlMemory@Ugrassentry_s@@H@@@@IAEXXZ
_TEXT	SEGMENT
_this$ = -4						; size = 4
?ResetDbgInfo@?$CUtlArray@Ugrassentry_s@@V?$CUtlMemory@Ugrassentry_s@@H@@@@IAEXXZ PROC ; CUtlArray<grassentry_s,CUtlMemory<grassentry_s,int> >::ResetDbgInfo, COMDAT
; _this$ = ecx

; 160  : 	{

	push	ebp
	mov	ebp, esp
	sub	esp, 68					; 00000044H
	push	ebx
	push	esi
	push	edi
	mov	DWORD PTR _this$[ebp], ecx

; 161  : 		m_pElements = Base();

	mov	ecx, DWORD PTR _this$[ebp]
	call	?Base@?$CUtlArray@Ugrassentry_s@@V?$CUtlMemory@Ugrassentry_s@@H@@@@QAEPAUgrassentry_s@@XZ ; CUtlArray<grassentry_s,CUtlMemory<grassentry_s,int> >::Base
	mov	ecx, DWORD PTR _this$[ebp]
	mov	DWORD PTR [ecx+16], eax

; 162  : 	}

	pop	edi
	pop	esi
	pop	ebx
	mov	esp, ebp
	pop	ebp
	ret	0
?ResetDbgInfo@?$CUtlArray@Ugrassentry_s@@V?$CUtlMemory@Ugrassentry_s@@H@@@@IAEXXZ ENDP ; CUtlArray<grassentry_s,CUtlMemory<grassentry_s,int> >::ResetDbgInfo
_TEXT	ENDS
; Function compile flags: /Odtp /ZI
; File d:\!diffusion 2020\source code 2022\client-server\game_shared\utlmemory.h
;	COMDAT ?ValidateGrowSize@?$CUtlMemory@Ugrassentry_s@@H@@IAEXXZ
_TEXT	SEGMENT
_this$ = -4						; size = 4
?ValidateGrowSize@?$CUtlMemory@Ugrassentry_s@@H@@IAEXXZ PROC ; CUtlMemory<grassentry_s,int>::ValidateGrowSize, COMDAT
; _this$ = ecx

; 148  : 	{

	push	ebp
	mov	ebp, esp
	sub	esp, 68					; 00000044H
	push	ebx
	push	esi
	push	edi
	mov	DWORD PTR _this$[ebp], ecx

; 149  : #ifdef _X360
; 150  : 		if ( m_nGrowSize && m_nGrowSize != EXTERNAL_BUFFER_MARKER )
; 151  : 		{
; 152  : 			// Max grow size at 128 bytes on XBOX
; 153  : 			const int MAX_GROW = 128;
; 154  : 			if ( m_nGrowSize * sizeof(T) > MAX_GROW )
; 155  : 			{
; 156  : 				m_nGrowSize = max( 1, MAX_GROW / sizeof(T) );
; 157  : 			}
; 158  : 		}
; 159  : #endif
; 160  : 	}

	pop	edi
	pop	esi
	pop	ebx
	mov	esp, ebp
	pop	ebp
	ret	0
?ValidateGrowSize@?$CUtlMemory@Ugrassentry_s@@H@@IAEXXZ ENDP ; CUtlMemory<grassentry_s,int>::ValidateGrowSize
_TEXT	ENDS
; Function compile flags: /Odtp /ZI
; File d:\!diffusion 2020\source code 2022\client-server\game_shared\utlmemory.h
;	COMDAT ?IsReadOnly@?$CUtlMemory@Ugrassentry_s@@H@@QBE_NXZ
_TEXT	SEGMENT
tv66 = -72						; size = 4
_this$ = -4						; size = 4
?IsReadOnly@?$CUtlMemory@Ugrassentry_s@@H@@QBE_NXZ PROC	; CUtlMemory<grassentry_s,int>::IsReadOnly, COMDAT
; _this$ = ecx

; 467  : {

	push	ebp
	mov	ebp, esp
	sub	esp, 72					; 00000048H
	push	ebx
	push	esi
	push	edi
	mov	DWORD PTR _this$[ebp], ecx

; 468  : 	return (m_nGrowSize == EXTERNAL_CONST_BUFFER_MARKER);

	mov	eax, DWORD PTR _this$[ebp]
	cmp	DWORD PTR [eax+8], -2			; fffffffeH
	jne	SHORT $LN3@IsReadOnly
	mov	DWORD PTR tv66[ebp], 1
	jmp	SHORT $LN4@IsReadOnly
$LN3@IsReadOnly:
	mov	DWORD PTR tv66[ebp], 0
$LN4@IsReadOnly:
	mov	al, BYTE PTR tv66[ebp]

; 469  : }

	pop	edi
	pop	esi
	pop	ebx
	mov	esp, ebp
	pop	ebp
	ret	0
?IsReadOnly@?$CUtlMemory@Ugrassentry_s@@H@@QBE_NXZ ENDP	; CUtlMemory<grassentry_s,int>::IsReadOnly
_TEXT	ENDS
; Function compile flags: /Odtp /ZI
; File d:\!diffusion 2020\source code 2022\client-server\game_shared\utlmemory.h
;	COMDAT ?IsExternallyAllocated@?$CUtlMemory@Ugrassentry_s@@H@@QBE_NXZ
_TEXT	SEGMENT
tv66 = -72						; size = 4
_this$ = -4						; size = 4
?IsExternallyAllocated@?$CUtlMemory@Ugrassentry_s@@H@@QBE_NXZ PROC ; CUtlMemory<grassentry_s,int>::IsExternallyAllocated, COMDAT
; _this$ = ecx

; 457  : {

	push	ebp
	mov	ebp, esp
	sub	esp, 72					; 00000048H
	push	ebx
	push	esi
	push	edi
	mov	DWORD PTR _this$[ebp], ecx

; 458  : 	return (m_nGrowSize < 0);

	mov	eax, DWORD PTR _this$[ebp]
	cmp	DWORD PTR [eax+8], 0
	jge	SHORT $LN3@IsExternal
	mov	DWORD PTR tv66[ebp], 1
	jmp	SHORT $LN4@IsExternal
$LN3@IsExternal:
	mov	DWORD PTR tv66[ebp], 0
$LN4@IsExternal:
	mov	al, BYTE PTR tv66[ebp]

; 459  : }

	pop	edi
	pop	esi
	pop	ebx
	mov	esp, ebp
	pop	ebp
	ret	0
?IsExternallyAllocated@?$CUtlMemory@Ugrassentry_s@@H@@QBE_NXZ ENDP ; CUtlMemory<grassentry_s,int>::IsExternallyAllocated
_TEXT	ENDS
; Function compile flags: /Odtp /ZI
; File d:\!diffusion 2020\source code 2022\client-server\game_shared\utlmemory.h
;	COMDAT ?Purge@?$CUtlMemory@Ugrassentry_s@@H@@QAEXXZ
_TEXT	SEGMENT
_this$ = -4						; size = 4
?Purge@?$CUtlMemory@Ugrassentry_s@@H@@QAEXXZ PROC	; CUtlMemory<grassentry_s,int>::Purge, COMDAT
; _this$ = ecx

; 645  : {

	push	ebp
	mov	ebp, esp
	sub	esp, 68					; 00000044H
	push	ebx
	push	esi
	push	edi
	mov	DWORD PTR _this$[ebp], ecx

; 646  : 	if ( !IsExternallyAllocated() )

	mov	ecx, DWORD PTR _this$[ebp]
	call	?IsExternallyAllocated@?$CUtlMemory@Ugrassentry_s@@H@@QBE_NXZ ; CUtlMemory<grassentry_s,int>::IsExternallyAllocated
	movzx	eax, al
	test	eax, eax
	jne	SHORT $LN1@Purge

; 647  : 	{
; 648  : 		if (m_pMemory)

	mov	eax, DWORD PTR _this$[ebp]
	cmp	DWORD PTR [eax], 0
	je	SHORT $LN3@Purge

; 649  : 		{
; 650  : 			free( (void*)m_pMemory );

	mov	eax, DWORD PTR _this$[ebp]
	mov	ecx, DWORD PTR [eax]
	push	ecx
	call	_free
	add	esp, 4

; 651  : 			m_pMemory = 0;

	mov	eax, DWORD PTR _this$[ebp]
	mov	DWORD PTR [eax], 0
$LN3@Purge:

; 652  : 		}
; 653  : 		m_nAllocationCount = 0;

	mov	eax, DWORD PTR _this$[ebp]
	mov	DWORD PTR [eax+4], 0
$LN1@Purge:

; 654  : 	}
; 655  : }

	pop	edi
	pop	esi
	pop	ebx
	mov	esp, ebp
	pop	ebp
	ret	0
?Purge@?$CUtlMemory@Ugrassentry_s@@H@@QAEXXZ ENDP	; CUtlMemory<grassentry_s,int>::Purge
_TEXT	ENDS
; Function compile flags: /Odtp /ZI
; File d:\!diffusion 2020\source code 2022\client-server\game_shared\utlmemory.h
;	COMDAT ?Grow@?$CUtlMemory@Ugrassentry_s@@H@@QAEXH@Z
_TEXT	SEGMENT
_nAllocationRequested$ = -8				; size = 4
_this$ = -4						; size = 4
_num$ = 8						; size = 4
?Grow@?$CUtlMemory@Ugrassentry_s@@H@@QAEXH@Z PROC	; CUtlMemory<grassentry_s,int>::Grow, COMDAT
; _this$ = ecx

; 560  : {

	push	ebp
	mov	ebp, esp
	sub	esp, 72					; 00000048H
	push	ebx
	push	esi
	push	edi
	mov	DWORD PTR _this$[ebp], ecx

; 561  : 	assert( num > 0 );

	cmp	DWORD PTR _num$[ebp], 0
	jg	SHORT $LN12@Grow
	push	561					; 00000231H
	push	OFFSET ??_C@_1JE@CIIIAKCN@?$AAd?$AA?3?$AA?2?$AA?$CB?$AAd?$AAi?$AAf?$AAf?$AAu?$AAs?$AAi?$AAo?$AAn?$AA?5?$AA2?$AA0?$AA2?$AA0?$AA?2?$AAs?$AAo?$AAu?$AAr?$AAc?$AAe?$AA?5?$AAc?$AAo?$AAd?$AAe?$AA?5?$AA2@
	push	OFFSET ??_C@_1BA@PKCLMAEA@?$AAn?$AAu?$AAm?$AA?5?$AA?$DO?$AA?5?$AA0?$AA?$AA@
	call	__wassert
	add	esp, 12					; 0000000cH
$LN12@Grow:

; 562  : 
; 563  : 	if ( IsExternallyAllocated() )

	mov	ecx, DWORD PTR _this$[ebp]
	call	?IsExternallyAllocated@?$CUtlMemory@Ugrassentry_s@@H@@QBE_NXZ ; CUtlMemory<grassentry_s,int>::IsExternallyAllocated
	movzx	eax, al
	test	eax, eax
	je	SHORT $LN4@Grow

; 564  : 	{
; 565  : 		// Can't grow a buffer whose memory was externally allocated 
; 566  : 		assert(0);

	xor	eax, eax
	jne	SHORT $LN13@Grow
	push	566					; 00000236H
	push	OFFSET ??_C@_1JE@CIIIAKCN@?$AAd?$AA?3?$AA?2?$AA?$CB?$AAd?$AAi?$AAf?$AAf?$AAu?$AAs?$AAi?$AAo?$AAn?$AA?5?$AA2?$AA0?$AA2?$AA0?$AA?2?$AAs?$AAo?$AAu?$AAr?$AAc?$AAe?$AA?5?$AAc?$AAo?$AAd?$AAe?$AA?5?$AA2@
	push	OFFSET ??_C@_13COJANIEC@?$AA0?$AA?$AA@
	call	__wassert
	add	esp, 12					; 0000000cH
$LN13@Grow:

; 567  : 		return;

	jmp	$LN1@Grow
$LN4@Grow:

; 568  : 	}
; 569  : 
; 570  : 	// Make sure we have at least numallocated + num allocations.
; 571  : 	// Use the grow rules specified for this memory (in m_nGrowSize)
; 572  : 	int nAllocationRequested = m_nAllocationCount + num;

	mov	eax, DWORD PTR _this$[ebp]
	mov	ecx, DWORD PTR [eax+4]
	add	ecx, DWORD PTR _num$[ebp]
	mov	DWORD PTR _nAllocationRequested$[ebp], ecx

; 573  : 
; 574  : 	m_nAllocationCount = UtlMemory_CalcNewAllocationCount( m_nAllocationCount, m_nGrowSize, nAllocationRequested, sizeof(T) );

	push	36					; 00000024H
	mov	eax, DWORD PTR _nAllocationRequested$[ebp]
	push	eax
	mov	ecx, DWORD PTR _this$[ebp]
	mov	edx, DWORD PTR [ecx+8]
	push	edx
	mov	eax, DWORD PTR _this$[ebp]
	mov	ecx, DWORD PTR [eax+4]
	push	ecx
	call	?UtlMemory_CalcNewAllocationCount@@YAHHHHH@Z ; UtlMemory_CalcNewAllocationCount
	add	esp, 16					; 00000010H
	mov	edx, DWORD PTR _this$[ebp]
	mov	DWORD PTR [edx+4], eax

; 575  : 
; 576  : 	// if m_nAllocationRequested wraps index type I, recalculate
; 577  : 	if ( ( int )( I )m_nAllocationCount < nAllocationRequested )

	mov	eax, DWORD PTR _this$[ebp]
	mov	ecx, DWORD PTR [eax+4]
	cmp	ecx, DWORD PTR _nAllocationRequested$[ebp]
	jge	SHORT $LN5@Grow

; 578  : 	{
; 579  : 		if ( ( int )( I )m_nAllocationCount == 0 && ( int )( I )( m_nAllocationCount - 1 ) >= nAllocationRequested )

	mov	eax, DWORD PTR _this$[ebp]
	cmp	DWORD PTR [eax+4], 0
	jne	SHORT $LN6@Grow
	mov	eax, DWORD PTR _this$[ebp]
	mov	ecx, DWORD PTR [eax+4]
	sub	ecx, 1
	cmp	ecx, DWORD PTR _nAllocationRequested$[ebp]
	jl	SHORT $LN6@Grow

; 580  : 		{
; 581  : 			--m_nAllocationCount; // deal w/ the common case of m_nAllocationCount == MAX_USHORT + 1

	mov	eax, DWORD PTR _this$[ebp]
	mov	ecx, DWORD PTR [eax+4]
	sub	ecx, 1
	mov	edx, DWORD PTR _this$[ebp]
	mov	DWORD PTR [edx+4], ecx

; 582  : 		}
; 583  : 		else

	jmp	SHORT $LN5@Grow
$LN6@Grow:

; 584  : 		{
; 585  : 			if ( ( int )( I )nAllocationRequested != nAllocationRequested )

	mov	eax, DWORD PTR _nAllocationRequested$[ebp]
	cmp	eax, DWORD PTR _nAllocationRequested$[ebp]
	je	SHORT $LN2@Grow

; 586  : 			{
; 587  : 				// we've been asked to grow memory to a size s.t. the index type can't address the requested amount of memory
; 588  : 				assert( 0 );

	xor	eax, eax
	jne	SHORT $LN14@Grow
	push	588					; 0000024cH
	push	OFFSET ??_C@_1JE@CIIIAKCN@?$AAd?$AA?3?$AA?2?$AA?$CB?$AAd?$AAi?$AAf?$AAf?$AAu?$AAs?$AAi?$AAo?$AAn?$AA?5?$AA2?$AA0?$AA2?$AA0?$AA?2?$AAs?$AAo?$AAu?$AAr?$AAc?$AAe?$AA?5?$AAc?$AAo?$AAd?$AAe?$AA?5?$AA2@
	push	OFFSET ??_C@_13COJANIEC@?$AA0?$AA?$AA@
	call	__wassert
	add	esp, 12					; 0000000cH
$LN14@Grow:

; 589  : 				return;

	jmp	$LN1@Grow
$LN2@Grow:

; 590  : 			}
; 591  : 			while ( ( int )( I )m_nAllocationCount < nAllocationRequested )

	mov	eax, DWORD PTR _this$[ebp]
	mov	ecx, DWORD PTR [eax+4]
	cmp	ecx, DWORD PTR _nAllocationRequested$[ebp]
	jge	SHORT $LN5@Grow

; 592  : 			{
; 593  : 				m_nAllocationCount = ( m_nAllocationCount + nAllocationRequested ) / 2;

	mov	eax, DWORD PTR _this$[ebp]
	mov	eax, DWORD PTR [eax+4]
	add	eax, DWORD PTR _nAllocationRequested$[ebp]
	cdq
	sub	eax, edx
	sar	eax, 1
	mov	ecx, DWORD PTR _this$[ebp]
	mov	DWORD PTR [ecx+4], eax

; 594  : 			}

	jmp	SHORT $LN2@Grow
$LN5@Grow:

; 595  : 		}
; 596  : 	}
; 597  : 
; 598  : 	if (m_pMemory)

	mov	eax, DWORD PTR _this$[ebp]
	cmp	DWORD PTR [eax], 0
	je	SHORT $LN9@Grow

; 599  : 	{
; 600  : 		m_pMemory = (T*)realloc( m_pMemory, m_nAllocationCount * sizeof(T) );

	mov	eax, DWORD PTR _this$[ebp]
	imul	ecx, DWORD PTR [eax+4], 36
	push	ecx
	mov	edx, DWORD PTR _this$[ebp]
	mov	eax, DWORD PTR [edx]
	push	eax
	call	_realloc
	add	esp, 8
	mov	ecx, DWORD PTR _this$[ebp]
	mov	DWORD PTR [ecx], eax

; 601  : 		assert( m_pMemory );

	mov	eax, DWORD PTR _this$[ebp]
	cmp	DWORD PTR [eax], 0
	jne	SHORT $LN15@Grow
	push	601					; 00000259H
	push	OFFSET ??_C@_1JE@CIIIAKCN@?$AAd?$AA?3?$AA?2?$AA?$CB?$AAd?$AAi?$AAf?$AAf?$AAu?$AAs?$AAi?$AAo?$AAn?$AA?5?$AA2?$AA0?$AA2?$AA0?$AA?2?$AAs?$AAo?$AAu?$AAr?$AAc?$AAe?$AA?5?$AAc?$AAo?$AAd?$AAe?$AA?5?$AA2@
	push	OFFSET ??_C@_1BE@OPPFELHC@?$AAm?$AA_?$AAp?$AAM?$AAe?$AAm?$AAo?$AAr?$AAy?$AA?$AA@
	call	__wassert
	add	esp, 12					; 0000000cH
$LN15@Grow:

; 602  : 	}
; 603  : 	else

	jmp	SHORT $LN1@Grow
$LN9@Grow:

; 604  : 	{
; 605  : 		m_pMemory = (T*)malloc( m_nAllocationCount * sizeof(T) );

	mov	eax, DWORD PTR _this$[ebp]
	imul	ecx, DWORD PTR [eax+4], 36
	push	ecx
	call	_malloc
	add	esp, 4
	mov	edx, DWORD PTR _this$[ebp]
	mov	DWORD PTR [edx], eax

; 606  : 		assert( m_pMemory );

	mov	eax, DWORD PTR _this$[ebp]
	cmp	DWORD PTR [eax], 0
	jne	SHORT $LN1@Grow
	push	606					; 0000025eH
	push	OFFSET ??_C@_1JE@CIIIAKCN@?$AAd?$AA?3?$AA?2?$AA?$CB?$AAd?$AAi?$AAf?$AAf?$AAu?$AAs?$AAi?$AAo?$AAn?$AA?5?$AA2?$AA0?$AA2?$AA0?$AA?2?$AAs?$AAo?$AAu?$AAr?$AAc?$AAe?$AA?5?$AAc?$AAo?$AAd?$AAe?$AA?5?$AA2@
	push	OFFSET ??_C@_1BE@OPPFELHC@?$AAm?$AA_?$AAp?$AAM?$AAe?$AAm?$AAo?$AAr?$AAy?$AA?$AA@
	call	__wassert
	add	esp, 12					; 0000000cH
$LN1@Grow:

; 607  : 	}
; 608  : }

	pop	edi
	pop	esi
	pop	ebx
	mov	esp, ebp
	pop	ebp
	ret	4
?Grow@?$CUtlMemory@Ugrassentry_s@@H@@QAEXH@Z ENDP	; CUtlMemory<grassentry_s,int>::Grow
_TEXT	ENDS
; Function compile flags: /Odtp /ZI
; File d:\!diffusion 2020\source code 2022\client-server\game_shared\utlmemory.h
;	COMDAT ?NumAllocated@?$CUtlMemory@Ugrassentry_s@@H@@QBEHXZ
_TEXT	SEGMENT
_this$ = -4						; size = 4
?NumAllocated@?$CUtlMemory@Ugrassentry_s@@H@@QBEHXZ PROC ; CUtlMemory<grassentry_s,int>::NumAllocated, COMDAT
; _this$ = ecx

; 504  : {

	push	ebp
	mov	ebp, esp
	sub	esp, 68					; 00000044H
	push	ebx
	push	esi
	push	edi
	mov	DWORD PTR _this$[ebp], ecx

; 505  : 	return m_nAllocationCount;

	mov	eax, DWORD PTR _this$[ebp]
	mov	eax, DWORD PTR [eax+4]

; 506  : }

	pop	edi
	pop	esi
	pop	ebx
	mov	esp, ebp
	pop	ebp
	ret	0
?NumAllocated@?$CUtlMemory@Ugrassentry_s@@H@@QBEHXZ ENDP ; CUtlMemory<grassentry_s,int>::NumAllocated
_TEXT	ENDS
; Function compile flags: /Odtp /ZI
; File d:\!diffusion 2020\source code 2022\client-server\game_shared\utlmemory.h
;	COMDAT ?Base@?$CUtlMemory@Ugrassentry_s@@H@@QAEPAUgrassentry_s@@XZ
_TEXT	SEGMENT
_this$ = -4						; size = 4
?Base@?$CUtlMemory@Ugrassentry_s@@H@@QAEPAUgrassentry_s@@XZ PROC ; CUtlMemory<grassentry_s,int>::Base, COMDAT
; _this$ = ecx

; 487  : {

	push	ebp
	mov	ebp, esp
	sub	esp, 68					; 00000044H
	push	ebx
	push	esi
	push	edi
	mov	DWORD PTR _this$[ebp], ecx

; 488  : 	assert( !IsReadOnly() );

	mov	ecx, DWORD PTR _this$[ebp]
	call	?IsReadOnly@?$CUtlMemory@Ugrassentry_s@@H@@QBE_NXZ ; CUtlMemory<grassentry_s,int>::IsReadOnly
	movzx	eax, al
	test	eax, eax
	je	SHORT $LN3@Base
	push	488					; 000001e8H
	push	OFFSET ??_C@_1JE@CIIIAKCN@?$AAd?$AA?3?$AA?2?$AA?$CB?$AAd?$AAi?$AAf?$AAf?$AAu?$AAs?$AAi?$AAo?$AAn?$AA?5?$AA2?$AA0?$AA2?$AA0?$AA?2?$AAs?$AAo?$AAu?$AAr?$AAc?$AAe?$AA?5?$AAc?$AAo?$AAd?$AAe?$AA?5?$AA2@
	push	OFFSET ??_C@_1BM@PFNFCCHH@?$AA?$CB?$AAI?$AAs?$AAR?$AAe?$AAa?$AAd?$AAO?$AAn?$AAl?$AAy?$AA?$CI?$AA?$CJ?$AA?$AA@
	call	__wassert
	add	esp, 12					; 0000000cH
$LN3@Base:

; 489  : 	return m_pMemory;

	mov	eax, DWORD PTR _this$[ebp]
	mov	eax, DWORD PTR [eax]

; 490  : }

	pop	edi
	pop	esi
	pop	ebx
	mov	esp, ebp
	pop	ebp
	ret	0
?Base@?$CUtlMemory@Ugrassentry_s@@H@@QAEPAUgrassentry_s@@XZ ENDP ; CUtlMemory<grassentry_s,int>::Base
_TEXT	ENDS
; Function compile flags: /Odtp /ZI
; File d:\!diffusion 2020\source code 2022\client-server\game_shared\utlmemory.h
;	COMDAT ?IsIdxValid@?$CUtlMemory@Ugrassentry_s@@H@@QBE_NH@Z
_TEXT	SEGMENT
tv67 = -72						; size = 4
_this$ = -4						; size = 4
_i$ = 8							; size = 4
?IsIdxValid@?$CUtlMemory@Ugrassentry_s@@H@@QBE_NH@Z PROC ; CUtlMemory<grassentry_s,int>::IsIdxValid, COMDAT
; _this$ = ecx

; 520  : {

	push	ebp
	mov	ebp, esp
	sub	esp, 72					; 00000048H
	push	ebx
	push	esi
	push	edi
	mov	DWORD PTR _this$[ebp], ecx

; 521  : 	return ( ((int) i) >= 0 ) && ( ((int) i) < m_nAllocationCount );

	cmp	DWORD PTR _i$[ebp], 0
	jl	SHORT $LN3@IsIdxValid
	mov	eax, DWORD PTR _this$[ebp]
	mov	ecx, DWORD PTR _i$[ebp]
	cmp	ecx, DWORD PTR [eax+4]
	jge	SHORT $LN3@IsIdxValid
	mov	DWORD PTR tv67[ebp], 1
	jmp	SHORT $LN4@IsIdxValid
$LN3@IsIdxValid:
	mov	DWORD PTR tv67[ebp], 0
$LN4@IsIdxValid:
	mov	al, BYTE PTR tv67[ebp]

; 522  : }

	pop	edi
	pop	esi
	pop	ebx
	mov	esp, ebp
	pop	ebp
	ret	4
?IsIdxValid@?$CUtlMemory@Ugrassentry_s@@H@@QBE_NH@Z ENDP ; CUtlMemory<grassentry_s,int>::IsIdxValid
_TEXT	ENDS
; Function compile flags: /Odtp /ZI
; File d:\!diffusion 2020\source code 2022\client-server\game_shared\utlmemory.h
;	COMDAT ??A?$CUtlMemory@Ugrassentry_s@@H@@QAEAAUgrassentry_s@@H@Z
_TEXT	SEGMENT
_this$ = -4						; size = 4
_i$ = 8							; size = 4
??A?$CUtlMemory@Ugrassentry_s@@H@@QAEAAUgrassentry_s@@H@Z PROC ; CUtlMemory<grassentry_s,int>::operator[], COMDAT
; _this$ = ecx

; 423  : {

	push	ebp
	mov	ebp, esp
	sub	esp, 68					; 00000044H
	push	ebx
	push	esi
	push	edi
	mov	DWORD PTR _this$[ebp], ecx

; 424  : 	assert( !IsReadOnly() );

	mov	ecx, DWORD PTR _this$[ebp]
	call	?IsReadOnly@?$CUtlMemory@Ugrassentry_s@@H@@QBE_NXZ ; CUtlMemory<grassentry_s,int>::IsReadOnly
	movzx	eax, al
	test	eax, eax
	je	SHORT $LN3@operator
	push	424					; 000001a8H
	push	OFFSET ??_C@_1JE@CIIIAKCN@?$AAd?$AA?3?$AA?2?$AA?$CB?$AAd?$AAi?$AAf?$AAf?$AAu?$AAs?$AAi?$AAo?$AAn?$AA?5?$AA2?$AA0?$AA2?$AA0?$AA?2?$AAs?$AAo?$AAu?$AAr?$AAc?$AAe?$AA?5?$AAc?$AAo?$AAd?$AAe?$AA?5?$AA2@
	push	OFFSET ??_C@_1BM@PFNFCCHH@?$AA?$CB?$AAI?$AAs?$AAR?$AAe?$AAa?$AAd?$AAO?$AAn?$AAl?$AAy?$AA?$CI?$AA?$CJ?$AA?$AA@
	call	__wassert
	add	esp, 12					; 0000000cH
$LN3@operator:

; 425  : 	assert( IsIdxValid(i) );

	mov	eax, DWORD PTR _i$[ebp]
	push	eax
	mov	ecx, DWORD PTR _this$[ebp]
	call	?IsIdxValid@?$CUtlMemory@Ugrassentry_s@@H@@QBE_NH@Z ; CUtlMemory<grassentry_s,int>::IsIdxValid
	movzx	ecx, al
	test	ecx, ecx
	jne	SHORT $LN4@operator
	push	425					; 000001a9H
	push	OFFSET ??_C@_1JE@CIIIAKCN@?$AAd?$AA?3?$AA?2?$AA?$CB?$AAd?$AAi?$AAf?$AAf?$AAu?$AAs?$AAi?$AAo?$AAn?$AA?5?$AA2?$AA0?$AA2?$AA0?$AA?2?$AAs?$AAo?$AAu?$AAr?$AAc?$AAe?$AA?5?$AAc?$AAo?$AAd?$AAe?$AA?5?$AA2@
	push	OFFSET ??_C@_1BM@CKILBAKK@?$AAI?$AAs?$AAI?$AAd?$AAx?$AAV?$AAa?$AAl?$AAi?$AAd?$AA?$CI?$AAi?$AA?$CJ?$AA?$AA@
	call	__wassert
	add	esp, 12					; 0000000cH
$LN4@operator:

; 426  : 	return m_pMemory[i];

	imul	eax, DWORD PTR _i$[ebp], 36
	mov	ecx, DWORD PTR _this$[ebp]
	add	eax, DWORD PTR [ecx]

; 427  : }

	pop	edi
	pop	esi
	pop	ebx
	mov	esp, ebp
	pop	ebp
	ret	4
??A?$CUtlMemory@Ugrassentry_s@@H@@QAEAAUgrassentry_s@@H@Z ENDP ; CUtlMemory<grassentry_s,int>::operator[]
_TEXT	ENDS
; Function compile flags: /Odtp /ZI
; File d:\!diffusion 2020\source code 2022\client-server\game_shared\utlmemory.h
;	COMDAT ??1?$CUtlMemory@Ugrassentry_s@@H@@QAE@XZ
_TEXT	SEGMENT
_this$ = -16						; size = 4
__$EHRec$ = -12						; size = 12
??1?$CUtlMemory@Ugrassentry_s@@H@@QAE@XZ PROC		; CUtlMemory<grassentry_s,int>::~CUtlMemory<grassentry_s,int>, COMDAT
; _this$ = ecx

; 322  : {

	push	ebp
	mov	ebp, esp
	push	-1
	push	__ehhandler$??1?$CUtlMemory@Ugrassentry_s@@H@@QAE@XZ
	mov	eax, DWORD PTR fs:0
	push	eax
	sub	esp, 68					; 00000044H
	push	ebx
	push	esi
	push	edi
	mov	eax, DWORD PTR ___security_cookie
	xor	eax, ebp
	push	eax
	lea	eax, DWORD PTR __$EHRec$[ebp]
	mov	DWORD PTR fs:0, eax
	mov	DWORD PTR _this$[ebp], ecx

; 323  : 	Purge();

	mov	ecx, DWORD PTR _this$[ebp]
	call	?Purge@?$CUtlMemory@Ugrassentry_s@@H@@QAEXXZ ; CUtlMemory<grassentry_s,int>::Purge

; 324  : }

	mov	ecx, DWORD PTR __$EHRec$[ebp]
	mov	DWORD PTR fs:0, ecx
	pop	ecx
	pop	edi
	pop	esi
	pop	ebx
	mov	esp, ebp
	pop	ebp
	ret	0
_TEXT	ENDS
;	COMDAT text$x
text$x	SEGMENT
__ehhandler$??1?$CUtlMemory@Ugrassentry_s@@H@@QAE@XZ:
	mov	edx, DWORD PTR [esp+8]
	lea	eax, DWORD PTR [edx+12]
	mov	ecx, DWORD PTR [edx-84]
	xor	ecx, eax
	call	@__security_check_cookie@4
	mov	eax, OFFSET __ehfuncinfo$??1?$CUtlMemory@Ugrassentry_s@@H@@QAE@XZ
	jmp	___CxxFrameHandler3
text$x	ENDS
??1?$CUtlMemory@Ugrassentry_s@@H@@QAE@XZ ENDP		; CUtlMemory<grassentry_s,int>::~CUtlMemory<grassentry_s,int>
; Function compile flags: /Odtp /ZI
; File d:\!diffusion 2020\source code 2022\client-server\game_shared\utlmemory.h
;	COMDAT ??0?$CUtlMemory@Ugrassentry_s@@H@@QAE@HH@Z
_TEXT	SEGMENT
_this$ = -4						; size = 4
_nGrowSize$ = 8						; size = 4
_nInitAllocationCount$ = 12				; size = 4
??0?$CUtlMemory@Ugrassentry_s@@H@@QAE@HH@Z PROC		; CUtlMemory<grassentry_s,int>::CUtlMemory<grassentry_s,int>, COMDAT
; _this$ = ecx

; 295  : {

	push	ebp
	mov	ebp, esp
	sub	esp, 68					; 00000044H
	push	ebx
	push	esi
	push	edi
	mov	DWORD PTR _this$[ebp], ecx

; 293  : CUtlMemory<T,I>::CUtlMemory( int nGrowSize, int nInitAllocationCount ) : m_pMemory(0), 

	mov	eax, DWORD PTR _this$[ebp]
	mov	DWORD PTR [eax], 0

; 294  : 	m_nAllocationCount( nInitAllocationCount ), m_nGrowSize( nGrowSize )

	mov	eax, DWORD PTR _this$[ebp]
	mov	ecx, DWORD PTR _nInitAllocationCount$[ebp]
	mov	DWORD PTR [eax+4], ecx
	mov	eax, DWORD PTR _this$[ebp]
	mov	ecx, DWORD PTR _nGrowSize$[ebp]
	mov	DWORD PTR [eax+8], ecx

; 296  : 	ValidateGrowSize();

	mov	ecx, DWORD PTR _this$[ebp]
	call	?ValidateGrowSize@?$CUtlMemory@Ugrassentry_s@@H@@IAEXXZ ; CUtlMemory<grassentry_s,int>::ValidateGrowSize

; 297  : 	assert( nGrowSize >= 0 );

	cmp	DWORD PTR _nGrowSize$[ebp], 0
	jge	SHORT $LN4@CUtlMemory
	push	297					; 00000129H
	push	OFFSET ??_C@_1JE@CIIIAKCN@?$AAd?$AA?3?$AA?2?$AA?$CB?$AAd?$AAi?$AAf?$AAf?$AAu?$AAs?$AAi?$AAo?$AAn?$AA?5?$AA2?$AA0?$AA2?$AA0?$AA?2?$AAs?$AAo?$AAu?$AAr?$AAc?$AAe?$AA?5?$AAc?$AAo?$AAd?$AAe?$AA?5?$AA2@
	push	OFFSET ??_C@_1BO@FOOHAONO@?$AAn?$AAG?$AAr?$AAo?$AAw?$AAS?$AAi?$AAz?$AAe?$AA?5?$AA?$DO?$AA?$DN?$AA?5?$AA0?$AA?$AA@
	call	__wassert
	add	esp, 12					; 0000000cH
$LN4@CUtlMemory:

; 298  : 	if (m_nAllocationCount)

	mov	eax, DWORD PTR _this$[ebp]
	cmp	DWORD PTR [eax+4], 0
	je	SHORT $LN1@CUtlMemory

; 299  : 	{
; 300  : 		m_pMemory = (T*)malloc( m_nAllocationCount * sizeof(T) );

	mov	eax, DWORD PTR _this$[ebp]
	imul	ecx, DWORD PTR [eax+4], 36
	push	ecx
	call	_malloc
	add	esp, 4
	mov	edx, DWORD PTR _this$[ebp]
	mov	DWORD PTR [edx], eax
$LN1@CUtlMemory:

; 301  : 	}
; 302  : }

	mov	eax, DWORD PTR _this$[ebp]
	pop	edi
	pop	esi
	pop	ebx
	mov	esp, ebp
	pop	ebp
	ret	8
??0?$CUtlMemory@Ugrassentry_s@@H@@QAE@HH@Z ENDP		; CUtlMemory<grassentry_s,int>::CUtlMemory<grassentry_s,int>
_TEXT	ENDS
; Function compile flags: /Odtp /ZI
; File d:\!diffusion 2020\source code 2022\client-server\game_shared\utlarray.h
;	COMDAT ?ShiftElementsRight@?$CUtlArray@Ugrassentry_s@@V?$CUtlMemory@Ugrassentry_s@@H@@@@IAEXHH@Z
_TEXT	SEGMENT
_numToMove$ = -8					; size = 4
_this$ = -4						; size = 4
_elem$ = 8						; size = 4
_num$ = 12						; size = 4
?ShiftElementsRight@?$CUtlArray@Ugrassentry_s@@V?$CUtlMemory@Ugrassentry_s@@H@@@@IAEXHH@Z PROC ; CUtlArray<grassentry_s,CUtlMemory<grassentry_s,int> >::ShiftElementsRight, COMDAT
; _this$ = ecx

; 447  : {

	push	ebp
	mov	ebp, esp
	sub	esp, 72					; 00000048H
	push	ebx
	push	esi
	push	edi
	mov	DWORD PTR _this$[ebp], ecx

; 448  : 	assert( IsValidIndex(elem) || ( m_Size == 0 ) || ( num == 0 ));

	mov	eax, DWORD PTR _elem$[ebp]
	push	eax
	mov	ecx, DWORD PTR _this$[ebp]
	call	?IsValidIndex@?$CUtlArray@Ugrassentry_s@@V?$CUtlMemory@Ugrassentry_s@@H@@@@QBE_NH@Z ; CUtlArray<grassentry_s,CUtlMemory<grassentry_s,int> >::IsValidIndex
	movzx	ecx, al
	test	ecx, ecx
	jne	SHORT $LN4@ShiftEleme
	mov	edx, DWORD PTR _this$[ebp]
	cmp	DWORD PTR [edx+12], 0
	je	SHORT $LN4@ShiftEleme
	cmp	DWORD PTR _num$[ebp], 0
	je	SHORT $LN4@ShiftEleme
	push	448					; 000001c0H
	push	OFFSET ??_C@_1JC@EMNIBBBG@?$AAd?$AA?3?$AA?2?$AA?$CB?$AAd?$AAi?$AAf?$AAf?$AAu?$AAs?$AAi?$AAo?$AAn?$AA?5?$AA2?$AA0?$AA2?$AA0?$AA?2?$AAs?$AAo?$AAu?$AAr?$AAc?$AAe?$AA?5?$AAc?$AAo?$AAd?$AAe?$AA?5?$AA2@
	push	OFFSET ??_C@_1GM@CDMJDFPA@?$AAI?$AAs?$AAV?$AAa?$AAl?$AAi?$AAd?$AAI?$AAn?$AAd?$AAe?$AAx?$AA?$CI?$AAe?$AAl?$AAe?$AAm?$AA?$CJ?$AA?5?$AA?$HM?$AA?$HM?$AA?5?$AA?$CI?$AA?5?$AAm?$AA_?$AAS?$AAi?$AAz?$AAe?$AA?5?$AA?$DN@
	call	__wassert
	add	esp, 12					; 0000000cH
$LN4@ShiftEleme:

; 449  : 	int numToMove = m_Size - elem - num;

	mov	eax, DWORD PTR _this$[ebp]
	mov	ecx, DWORD PTR [eax+12]
	sub	ecx, DWORD PTR _elem$[ebp]
	sub	ecx, DWORD PTR _num$[ebp]
	mov	DWORD PTR _numToMove$[ebp], ecx

; 450  : 	if ((numToMove > 0) && (num > 0))

	cmp	DWORD PTR _numToMove$[ebp], 0
	jle	SHORT $LN1@ShiftEleme
	cmp	DWORD PTR _num$[ebp], 0
	jle	SHORT $LN1@ShiftEleme

; 451  : 		memmove( &Element(elem+num), &Element(elem), numToMove * sizeof(T) );

	imul	eax, DWORD PTR _numToMove$[ebp], 36
	push	eax
	mov	ecx, DWORD PTR _elem$[ebp]
	push	ecx
	mov	ecx, DWORD PTR _this$[ebp]
	call	?Element@?$CUtlArray@Ugrassentry_s@@V?$CUtlMemory@Ugrassentry_s@@H@@@@QAEAAUgrassentry_s@@H@Z ; CUtlArray<grassentry_s,CUtlMemory<grassentry_s,int> >::Element
	push	eax
	mov	edx, DWORD PTR _elem$[ebp]
	add	edx, DWORD PTR _num$[ebp]
	push	edx
	mov	ecx, DWORD PTR _this$[ebp]
	call	?Element@?$CUtlArray@Ugrassentry_s@@V?$CUtlMemory@Ugrassentry_s@@H@@@@QAEAAUgrassentry_s@@H@Z ; CUtlArray<grassentry_s,CUtlMemory<grassentry_s,int> >::Element
	push	eax
	call	_memmove
	add	esp, 12					; 0000000cH
$LN1@ShiftEleme:

; 452  : }

	pop	edi
	pop	esi
	pop	ebx
	mov	esp, ebp
	pop	ebp
	ret	8
?ShiftElementsRight@?$CUtlArray@Ugrassentry_s@@V?$CUtlMemory@Ugrassentry_s@@H@@@@IAEXHH@Z ENDP ; CUtlArray<grassentry_s,CUtlMemory<grassentry_s,int> >::ShiftElementsRight
_TEXT	ENDS
; Function compile flags: /Odtp /ZI
; File d:\!diffusion 2020\source code 2022\client-server\game_shared\utlarray.h
;	COMDAT ?GrowVector@?$CUtlArray@Ugrassentry_s@@V?$CUtlMemory@Ugrassentry_s@@H@@@@IAEXH@Z
_TEXT	SEGMENT
_this$ = -4						; size = 4
_num$ = 8						; size = 4
?GrowVector@?$CUtlArray@Ugrassentry_s@@V?$CUtlMemory@Ugrassentry_s@@H@@@@IAEXH@Z PROC ; CUtlArray<grassentry_s,CUtlMemory<grassentry_s,int> >::GrowVector, COMDAT
; _this$ = ecx

; 374  : {

	push	ebp
	mov	ebp, esp
	sub	esp, 68					; 00000044H
	push	ebx
	push	esi
	push	edi
	mov	DWORD PTR _this$[ebp], ecx

; 375  : 	if (m_Size + num > m_Memory.NumAllocated())

	mov	eax, DWORD PTR _this$[ebp]
	mov	esi, DWORD PTR [eax+12]
	add	esi, DWORD PTR _num$[ebp]
	mov	ecx, DWORD PTR _this$[ebp]
	call	?NumAllocated@?$CUtlMemory@Ugrassentry_s@@H@@QBEHXZ ; CUtlMemory<grassentry_s,int>::NumAllocated
	cmp	esi, eax
	jle	SHORT $LN2@GrowVector

; 376  : 	{
; 377  : 		m_Memory.Grow( m_Size + num - m_Memory.NumAllocated() );

	mov	eax, DWORD PTR _this$[ebp]
	mov	esi, DWORD PTR [eax+12]
	add	esi, DWORD PTR _num$[ebp]
	mov	ecx, DWORD PTR _this$[ebp]
	call	?NumAllocated@?$CUtlMemory@Ugrassentry_s@@H@@QBEHXZ ; CUtlMemory<grassentry_s,int>::NumAllocated
	sub	esi, eax
	push	esi
	mov	ecx, DWORD PTR _this$[ebp]
	call	?Grow@?$CUtlMemory@Ugrassentry_s@@H@@QAEXH@Z ; CUtlMemory<grassentry_s,int>::Grow
$LN2@GrowVector:

; 378  : 	}
; 379  : 
; 380  : 	m_Size += num;

	mov	eax, DWORD PTR _this$[ebp]
	mov	ecx, DWORD PTR [eax+12]
	add	ecx, DWORD PTR _num$[ebp]
	mov	edx, DWORD PTR _this$[ebp]
	mov	DWORD PTR [edx+12], ecx

; 381  : 	ResetDbgInfo();

	mov	ecx, DWORD PTR _this$[ebp]
	call	?ResetDbgInfo@?$CUtlArray@Ugrassentry_s@@V?$CUtlMemory@Ugrassentry_s@@H@@@@IAEXXZ ; CUtlArray<grassentry_s,CUtlMemory<grassentry_s,int> >::ResetDbgInfo

; 382  : }

	pop	edi
	pop	esi
	pop	ebx
	mov	esp, ebp
	pop	ebp
	ret	4
?GrowVector@?$CUtlArray@Ugrassentry_s@@V?$CUtlMemory@Ugrassentry_s@@H@@@@IAEXH@Z ENDP ; CUtlArray<grassentry_s,CUtlMemory<grassentry_s,int> >::GrowVector
_TEXT	ENDS
; Function compile flags: /Odtp /ZI
; File d:\!diffusion 2020\source code 2022\client-server\game_shared\utlarray.h
;	COMDAT ?Purge@?$CUtlArray@Ugrassentry_s@@V?$CUtlMemory@Ugrassentry_s@@H@@@@QAEXXZ
_TEXT	SEGMENT
_this$ = -4						; size = 4
?Purge@?$CUtlArray@Ugrassentry_s@@V?$CUtlMemory@Ugrassentry_s@@H@@@@QAEXXZ PROC ; CUtlArray<grassentry_s,CUtlMemory<grassentry_s,int> >::Purge, COMDAT
; _this$ = ecx

; 742  : {

	push	ebp
	mov	ebp, esp
	sub	esp, 68					; 00000044H
	push	ebx
	push	esi
	push	edi
	mov	DWORD PTR _this$[ebp], ecx

; 743  : 	RemoveAll();

	mov	ecx, DWORD PTR _this$[ebp]
	call	?RemoveAll@?$CUtlArray@Ugrassentry_s@@V?$CUtlMemory@Ugrassentry_s@@H@@@@QAEXXZ ; CUtlArray<grassentry_s,CUtlMemory<grassentry_s,int> >::RemoveAll

; 744  : 	m_Memory.Purge();

	mov	ecx, DWORD PTR _this$[ebp]
	call	?Purge@?$CUtlMemory@Ugrassentry_s@@H@@QAEXXZ ; CUtlMemory<grassentry_s,int>::Purge

; 745  : 	ResetDbgInfo();

	mov	ecx, DWORD PTR _this$[ebp]
	call	?ResetDbgInfo@?$CUtlArray@Ugrassentry_s@@V?$CUtlMemory@Ugrassentry_s@@H@@@@IAEXXZ ; CUtlArray<grassentry_s,CUtlMemory<grassentry_s,int> >::ResetDbgInfo

; 746  : }

	pop	edi
	pop	esi
	pop	ebx
	mov	esp, ebp
	pop	ebp
	ret	0
?Purge@?$CUtlArray@Ugrassentry_s@@V?$CUtlMemory@Ugrassentry_s@@H@@@@QAEXXZ ENDP ; CUtlArray<grassentry_s,CUtlMemory<grassentry_s,int> >::Purge
_TEXT	ENDS
; Function compile flags: /Odtp /ZI
; File d:\!diffusion 2020\source code 2022\client-server\game_shared\utlarray.h
;	COMDAT ?RemoveAll@?$CUtlArray@Ugrassentry_s@@V?$CUtlMemory@Ugrassentry_s@@H@@@@QAEXXZ
_TEXT	SEGMENT
_i$1 = -8						; size = 4
_this$ = -4						; size = 4
?RemoveAll@?$CUtlArray@Ugrassentry_s@@V?$CUtlMemory@Ugrassentry_s@@H@@@@QAEXXZ PROC ; CUtlArray<grassentry_s,CUtlMemory<grassentry_s,int> >::RemoveAll, COMDAT
; _this$ = ecx

; 726  : {

	push	ebp
	mov	ebp, esp
	sub	esp, 72					; 00000048H
	push	ebx
	push	esi
	push	edi
	mov	DWORD PTR _this$[ebp], ecx

; 727  : 	for (int i = m_Size; --i >= 0; )

	mov	eax, DWORD PTR _this$[ebp]
	mov	ecx, DWORD PTR [eax+12]
	mov	DWORD PTR _i$1[ebp], ecx
$LN4@RemoveAll:
	mov	eax, DWORD PTR _i$1[ebp]
	sub	eax, 1
	mov	DWORD PTR _i$1[ebp], eax
	js	SHORT $LN3@RemoveAll

; 728  : 	{
; 729  : 		Destruct(&Element(i));

	mov	eax, DWORD PTR _i$1[ebp]
	push	eax
	mov	ecx, DWORD PTR _this$[ebp]
	call	?Element@?$CUtlArray@Ugrassentry_s@@V?$CUtlMemory@Ugrassentry_s@@H@@@@QAEAAUgrassentry_s@@H@Z ; CUtlArray<grassentry_s,CUtlMemory<grassentry_s,int> >::Element
	push	eax
	call	??$Destruct@Ugrassentry_s@@@@YAXPAUgrassentry_s@@@Z ; Destruct<grassentry_s>
	add	esp, 4

; 730  : 	}

	jmp	SHORT $LN4@RemoveAll
$LN3@RemoveAll:

; 731  : 
; 732  : 	m_Size = 0;

	mov	eax, DWORD PTR _this$[ebp]
	mov	DWORD PTR [eax+12], 0

; 733  : }

	pop	edi
	pop	esi
	pop	ebx
	mov	esp, ebp
	pop	ebp
	ret	0
?RemoveAll@?$CUtlArray@Ugrassentry_s@@V?$CUtlMemory@Ugrassentry_s@@H@@@@QAEXXZ ENDP ; CUtlArray<grassentry_s,CUtlMemory<grassentry_s,int> >::RemoveAll
_TEXT	ENDS
; Function compile flags: /Odtp /ZI
; File d:\!diffusion 2020\source code 2022\client-server\game_shared\utlarray.h
;	COMDAT ?InsertBefore@?$CUtlArray@Ugrassentry_s@@V?$CUtlMemory@Ugrassentry_s@@H@@@@QAEHHABUgrassentry_s@@@Z
_TEXT	SEGMENT
_this$ = -4						; size = 4
_elem$ = 8						; size = 4
_src$ = 12						; size = 4
?InsertBefore@?$CUtlArray@Ugrassentry_s@@V?$CUtlMemory@Ugrassentry_s@@H@@@@QAEHHABUgrassentry_s@@@Z PROC ; CUtlArray<grassentry_s,CUtlMemory<grassentry_s,int> >::InsertBefore, COMDAT
; _this$ = ecx

; 533  : {

	push	ebp
	mov	ebp, esp
	sub	esp, 68					; 00000044H
	push	ebx
	push	esi
	push	edi
	mov	DWORD PTR _this$[ebp], ecx

; 534  : 	// Can't insert something that's in the list... reallocation may hose us
; 535  : 	assert( (Base() == NULL) || (&src < Base()) || (&src >= (Base() + Count()) ) ); 

	mov	ecx, DWORD PTR _this$[ebp]
	call	?Base@?$CUtlArray@Ugrassentry_s@@V?$CUtlMemory@Ugrassentry_s@@H@@@@QAEPAUgrassentry_s@@XZ ; CUtlArray<grassentry_s,CUtlMemory<grassentry_s,int> >::Base
	test	eax, eax
	je	SHORT $LN3@InsertBefo
	mov	ecx, DWORD PTR _this$[ebp]
	call	?Base@?$CUtlArray@Ugrassentry_s@@V?$CUtlMemory@Ugrassentry_s@@H@@@@QAEPAUgrassentry_s@@XZ ; CUtlArray<grassentry_s,CUtlMemory<grassentry_s,int> >::Base
	cmp	DWORD PTR _src$[ebp], eax
	jb	SHORT $LN3@InsertBefo
	mov	ecx, DWORD PTR _this$[ebp]
	call	?Base@?$CUtlArray@Ugrassentry_s@@V?$CUtlMemory@Ugrassentry_s@@H@@@@QAEPAUgrassentry_s@@XZ ; CUtlArray<grassentry_s,CUtlMemory<grassentry_s,int> >::Base
	mov	esi, eax
	mov	ecx, DWORD PTR _this$[ebp]
	call	?Count@?$CUtlArray@Ugrassentry_s@@V?$CUtlMemory@Ugrassentry_s@@H@@@@QBEHXZ ; CUtlArray<grassentry_s,CUtlMemory<grassentry_s,int> >::Count
	imul	eax, eax, 36
	add	esi, eax
	cmp	DWORD PTR _src$[ebp], esi
	jae	SHORT $LN3@InsertBefo
	push	535					; 00000217H
	push	OFFSET ??_C@_1JC@EMNIBBBG@?$AAd?$AA?3?$AA?2?$AA?$CB?$AAd?$AAi?$AAf?$AAf?$AAu?$AAs?$AAi?$AAo?$AAn?$AA?5?$AA2?$AA0?$AA2?$AA0?$AA?2?$AAs?$AAo?$AAu?$AAr?$AAc?$AAe?$AA?5?$AAc?$AAo?$AAd?$AAe?$AA?5?$AA2@
	push	OFFSET ??_C@_1IK@DGJDJNN@?$AA?$CI?$AAB?$AAa?$AAs?$AAe?$AA?$CI?$AA?$CJ?$AA?5?$AA?$DN?$AA?$DN?$AA?5?$AAN?$AAU?$AAL?$AAL?$AA?$CJ?$AA?5?$AA?$HM?$AA?$HM?$AA?5?$AA?$CI?$AA?$CG?$AAs?$AAr?$AAc?$AA?5?$AA?$DM?$AA?5?$AAB?$AAa?$AAs?$AAe@
	call	__wassert
	add	esp, 12					; 0000000cH
$LN3@InsertBefo:

; 536  : 
; 537  : 	// Can insert at the end
; 538  : 	assert( (elem == Count()) || IsValidIndex(elem) );

	mov	ecx, DWORD PTR _this$[ebp]
	call	?Count@?$CUtlArray@Ugrassentry_s@@V?$CUtlMemory@Ugrassentry_s@@H@@@@QBEHXZ ; CUtlArray<grassentry_s,CUtlMemory<grassentry_s,int> >::Count
	cmp	DWORD PTR _elem$[ebp], eax
	je	SHORT $LN4@InsertBefo
	mov	eax, DWORD PTR _elem$[ebp]
	push	eax
	mov	ecx, DWORD PTR _this$[ebp]
	call	?IsValidIndex@?$CUtlArray@Ugrassentry_s@@V?$CUtlMemory@Ugrassentry_s@@H@@@@QBE_NH@Z ; CUtlArray<grassentry_s,CUtlMemory<grassentry_s,int> >::IsValidIndex
	movzx	ecx, al
	test	ecx, ecx
	jne	SHORT $LN4@InsertBefo
	push	538					; 0000021aH
	push	OFFSET ??_C@_1JC@EMNIBBBG@?$AAd?$AA?3?$AA?2?$AA?$CB?$AAd?$AAi?$AAf?$AAf?$AAu?$AAs?$AAi?$AAo?$AAn?$AA?5?$AA2?$AA0?$AA2?$AA0?$AA?2?$AAs?$AAo?$AAu?$AAr?$AAc?$AAe?$AA?5?$AAc?$AAo?$AAd?$AAe?$AA?5?$AA2@
	push	OFFSET ??_C@_1FA@BPFBJKPF@?$AA?$CI?$AAe?$AAl?$AAe?$AAm?$AA?5?$AA?$DN?$AA?$DN?$AA?5?$AAC?$AAo?$AAu?$AAn?$AAt?$AA?$CI?$AA?$CJ?$AA?$CJ?$AA?5?$AA?$HM?$AA?$HM?$AA?5?$AAI?$AAs?$AAV?$AAa?$AAl?$AAi?$AAd?$AAI?$AAn?$AAd?$AAe@
	call	__wassert
	add	esp, 12					; 0000000cH
$LN4@InsertBefo:

; 539  : 
; 540  : 	GrowVector();

	push	1
	mov	ecx, DWORD PTR _this$[ebp]
	call	?GrowVector@?$CUtlArray@Ugrassentry_s@@V?$CUtlMemory@Ugrassentry_s@@H@@@@IAEXH@Z ; CUtlArray<grassentry_s,CUtlMemory<grassentry_s,int> >::GrowVector

; 541  : 	ShiftElementsRight(elem);

	push	1
	mov	eax, DWORD PTR _elem$[ebp]
	push	eax
	mov	ecx, DWORD PTR _this$[ebp]
	call	?ShiftElementsRight@?$CUtlArray@Ugrassentry_s@@V?$CUtlMemory@Ugrassentry_s@@H@@@@IAEXHH@Z ; CUtlArray<grassentry_s,CUtlMemory<grassentry_s,int> >::ShiftElementsRight

; 542  : 	CopyConstruct( &Element(elem), src );

	mov	eax, DWORD PTR _src$[ebp]
	push	eax
	mov	ecx, DWORD PTR _elem$[ebp]
	push	ecx
	mov	ecx, DWORD PTR _this$[ebp]
	call	?Element@?$CUtlArray@Ugrassentry_s@@V?$CUtlMemory@Ugrassentry_s@@H@@@@QAEAAUgrassentry_s@@H@Z ; CUtlArray<grassentry_s,CUtlMemory<grassentry_s,int> >::Element
	push	eax
	call	??$CopyConstruct@Ugrassentry_s@@@@YAXPAUgrassentry_s@@ABU0@@Z ; CopyConstruct<grassentry_s>
	add	esp, 8

; 543  : 	return elem;

	mov	eax, DWORD PTR _elem$[ebp]

; 544  : }

	pop	edi
	pop	esi
	pop	ebx
	mov	esp, ebp
	pop	ebp
	ret	8
?InsertBefore@?$CUtlArray@Ugrassentry_s@@V?$CUtlMemory@Ugrassentry_s@@H@@@@QAEHHABUgrassentry_s@@@Z ENDP ; CUtlArray<grassentry_s,CUtlMemory<grassentry_s,int> >::InsertBefore
_TEXT	ENDS
; Function compile flags: /Odtp /ZI
; File d:\!diffusion 2020\source code 2022\client-server\game_shared\utlarray.h
;	COMDAT ?AddToTail@?$CUtlArray@Ugrassentry_s@@V?$CUtlMemory@Ugrassentry_s@@H@@@@QAEHABUgrassentry_s@@@Z
_TEXT	SEGMENT
_this$ = -4						; size = 4
_src$ = 8						; size = 4
?AddToTail@?$CUtlArray@Ugrassentry_s@@V?$CUtlMemory@Ugrassentry_s@@H@@@@QAEHABUgrassentry_s@@@Z PROC ; CUtlArray<grassentry_s,CUtlMemory<grassentry_s,int> >::AddToTail, COMDAT
; _this$ = ecx

; 517  : {

	push	ebp
	mov	ebp, esp
	sub	esp, 68					; 00000044H
	push	ebx
	push	esi
	push	edi
	mov	DWORD PTR _this$[ebp], ecx

; 518  : 	// Can't insert something that's in the list... reallocation may hose us
; 519  : 	assert( (Base() == NULL) || (&src < Base()) || (&src >= (Base() + Count()) ) ); 

	mov	ecx, DWORD PTR _this$[ebp]
	call	?Base@?$CUtlArray@Ugrassentry_s@@V?$CUtlMemory@Ugrassentry_s@@H@@@@QAEPAUgrassentry_s@@XZ ; CUtlArray<grassentry_s,CUtlMemory<grassentry_s,int> >::Base
	test	eax, eax
	je	SHORT $LN3@AddToTail
	mov	ecx, DWORD PTR _this$[ebp]
	call	?Base@?$CUtlArray@Ugrassentry_s@@V?$CUtlMemory@Ugrassentry_s@@H@@@@QAEPAUgrassentry_s@@XZ ; CUtlArray<grassentry_s,CUtlMemory<grassentry_s,int> >::Base
	cmp	DWORD PTR _src$[ebp], eax
	jb	SHORT $LN3@AddToTail
	mov	ecx, DWORD PTR _this$[ebp]
	call	?Base@?$CUtlArray@Ugrassentry_s@@V?$CUtlMemory@Ugrassentry_s@@H@@@@QAEPAUgrassentry_s@@XZ ; CUtlArray<grassentry_s,CUtlMemory<grassentry_s,int> >::Base
	mov	esi, eax
	mov	ecx, DWORD PTR _this$[ebp]
	call	?Count@?$CUtlArray@Ugrassentry_s@@V?$CUtlMemory@Ugrassentry_s@@H@@@@QBEHXZ ; CUtlArray<grassentry_s,CUtlMemory<grassentry_s,int> >::Count
	imul	eax, eax, 36
	add	esi, eax
	cmp	DWORD PTR _src$[ebp], esi
	jae	SHORT $LN3@AddToTail
	push	519					; 00000207H
	push	OFFSET ??_C@_1JC@EMNIBBBG@?$AAd?$AA?3?$AA?2?$AA?$CB?$AAd?$AAi?$AAf?$AAf?$AAu?$AAs?$AAi?$AAo?$AAn?$AA?5?$AA2?$AA0?$AA2?$AA0?$AA?2?$AAs?$AAo?$AAu?$AAr?$AAc?$AAe?$AA?5?$AAc?$AAo?$AAd?$AAe?$AA?5?$AA2@
	push	OFFSET ??_C@_1IK@DGJDJNN@?$AA?$CI?$AAB?$AAa?$AAs?$AAe?$AA?$CI?$AA?$CJ?$AA?5?$AA?$DN?$AA?$DN?$AA?5?$AAN?$AAU?$AAL?$AAL?$AA?$CJ?$AA?5?$AA?$HM?$AA?$HM?$AA?5?$AA?$CI?$AA?$CG?$AAs?$AAr?$AAc?$AA?5?$AA?$DM?$AA?5?$AAB?$AAa?$AAs?$AAe@
	call	__wassert
	add	esp, 12					; 0000000cH
$LN3@AddToTail:

; 520  : 	return InsertBefore( m_Size, src );

	mov	eax, DWORD PTR _src$[ebp]
	push	eax
	mov	ecx, DWORD PTR _this$[ebp]
	mov	edx, DWORD PTR [ecx+12]
	push	edx
	mov	ecx, DWORD PTR _this$[ebp]
	call	?InsertBefore@?$CUtlArray@Ugrassentry_s@@V?$CUtlMemory@Ugrassentry_s@@H@@@@QAEHHABUgrassentry_s@@@Z ; CUtlArray<grassentry_s,CUtlMemory<grassentry_s,int> >::InsertBefore

; 521  : }

	pop	edi
	pop	esi
	pop	ebx
	mov	esp, ebp
	pop	ebp
	ret	4
?AddToTail@?$CUtlArray@Ugrassentry_s@@V?$CUtlMemory@Ugrassentry_s@@H@@@@QAEHABUgrassentry_s@@@Z ENDP ; CUtlArray<grassentry_s,CUtlMemory<grassentry_s,int> >::AddToTail
_TEXT	ENDS
; Function compile flags: /Odtp /ZI
; File d:\!diffusion 2020\source code 2022\client-server\game_shared\utlarray.h
;	COMDAT ?IsValidIndex@?$CUtlArray@Ugrassentry_s@@V?$CUtlMemory@Ugrassentry_s@@H@@@@QBE_NH@Z
_TEXT	SEGMENT
tv67 = -72						; size = 4
_this$ = -4						; size = 4
_i$ = 8							; size = 4
?IsValidIndex@?$CUtlArray@Ugrassentry_s@@V?$CUtlMemory@Ugrassentry_s@@H@@@@QBE_NH@Z PROC ; CUtlArray<grassentry_s,CUtlMemory<grassentry_s,int> >::IsValidIndex, COMDAT
; _this$ = ecx

; 354  : {

	push	ebp
	mov	ebp, esp
	sub	esp, 72					; 00000048H
	push	ebx
	push	esi
	push	edi
	mov	DWORD PTR _this$[ebp], ecx

; 355  : 	return (i >= 0) && (i < m_Size);

	cmp	DWORD PTR _i$[ebp], 0
	jl	SHORT $LN3@IsValidInd
	mov	eax, DWORD PTR _this$[ebp]
	mov	ecx, DWORD PTR _i$[ebp]
	cmp	ecx, DWORD PTR [eax+12]
	jge	SHORT $LN3@IsValidInd
	mov	DWORD PTR tv67[ebp], 1
	jmp	SHORT $LN4@IsValidInd
$LN3@IsValidInd:
	mov	DWORD PTR tv67[ebp], 0
$LN4@IsValidInd:
	mov	al, BYTE PTR tv67[ebp]

; 356  : }

	pop	edi
	pop	esi
	pop	ebx
	mov	esp, ebp
	pop	ebp
	ret	4
?IsValidIndex@?$CUtlArray@Ugrassentry_s@@V?$CUtlMemory@Ugrassentry_s@@H@@@@QBE_NH@Z ENDP ; CUtlArray<grassentry_s,CUtlMemory<grassentry_s,int> >::IsValidIndex
_TEXT	ENDS
; Function compile flags: /Odtp /ZI
; File d:\!diffusion 2020\source code 2022\client-server\game_shared\utlarray.h
;	COMDAT ?Count@?$CUtlArray@Ugrassentry_s@@V?$CUtlMemory@Ugrassentry_s@@H@@@@QBEHXZ
_TEXT	SEGMENT
_this$ = -4						; size = 4
?Count@?$CUtlArray@Ugrassentry_s@@V?$CUtlMemory@Ugrassentry_s@@H@@@@QBEHXZ PROC ; CUtlArray<grassentry_s,CUtlMemory<grassentry_s,int> >::Count, COMDAT
; _this$ = ecx

; 344  : {

	push	ebp
	mov	ebp, esp
	sub	esp, 68					; 00000044H
	push	ebx
	push	esi
	push	edi
	mov	DWORD PTR _this$[ebp], ecx

; 345  : 	return m_Size;

	mov	eax, DWORD PTR _this$[ebp]
	mov	eax, DWORD PTR [eax+12]

; 346  : }

	pop	edi
	pop	esi
	pop	ebx
	mov	esp, ebp
	pop	ebp
	ret	0
?Count@?$CUtlArray@Ugrassentry_s@@V?$CUtlMemory@Ugrassentry_s@@H@@@@QBEHXZ ENDP ; CUtlArray<grassentry_s,CUtlMemory<grassentry_s,int> >::Count
_TEXT	ENDS
; Function compile flags: /Odtp /ZI
; File d:\!diffusion 2020\source code 2022\client-server\game_shared\utlarray.h
;	COMDAT ?Base@?$CUtlArray@Ugrassentry_s@@V?$CUtlMemory@Ugrassentry_s@@H@@@@QAEPAUgrassentry_s@@XZ
_TEXT	SEGMENT
_this$ = -4						; size = 4
?Base@?$CUtlArray@Ugrassentry_s@@V?$CUtlMemory@Ugrassentry_s@@H@@@@QAEPAUgrassentry_s@@XZ PROC ; CUtlArray<grassentry_s,CUtlMemory<grassentry_s,int> >::Base, COMDAT
; _this$ = ecx

; 60   : 	T* Base()								{ return m_Memory.Base(); }

	push	ebp
	mov	ebp, esp
	sub	esp, 68					; 00000044H
	push	ebx
	push	esi
	push	edi
	mov	DWORD PTR _this$[ebp], ecx
	mov	ecx, DWORD PTR _this$[ebp]
	call	?Base@?$CUtlMemory@Ugrassentry_s@@H@@QAEPAUgrassentry_s@@XZ ; CUtlMemory<grassentry_s,int>::Base
	pop	edi
	pop	esi
	pop	ebx
	mov	esp, ebp
	pop	ebp
	ret	0
?Base@?$CUtlArray@Ugrassentry_s@@V?$CUtlMemory@Ugrassentry_s@@H@@@@QAEPAUgrassentry_s@@XZ ENDP ; CUtlArray<grassentry_s,CUtlMemory<grassentry_s,int> >::Base
_TEXT	ENDS
; Function compile flags: /Odtp /ZI
; File d:\!diffusion 2020\source code 2022\client-server\game_shared\utlarray.h
;	COMDAT ?Element@?$CUtlArray@Ugrassentry_s@@V?$CUtlMemory@Ugrassentry_s@@H@@@@QAEAAUgrassentry_s@@H@Z
_TEXT	SEGMENT
_this$ = -4						; size = 4
_i$ = 8							; size = 4
?Element@?$CUtlArray@Ugrassentry_s@@V?$CUtlMemory@Ugrassentry_s@@H@@@@QAEAAUgrassentry_s@@H@Z PROC ; CUtlArray<grassentry_s,CUtlMemory<grassentry_s,int> >::Element, COMDAT
; _this$ = ecx

; 294  : {

	push	ebp
	mov	ebp, esp
	sub	esp, 68					; 00000044H
	push	ebx
	push	esi
	push	edi
	mov	DWORD PTR _this$[ebp], ecx

; 295  : 	return m_Memory[ i ];

	mov	eax, DWORD PTR _i$[ebp]
	push	eax
	mov	ecx, DWORD PTR _this$[ebp]
	call	??A?$CUtlMemory@Ugrassentry_s@@H@@QAEAAUgrassentry_s@@H@Z ; CUtlMemory<grassentry_s,int>::operator[]

; 296  : }

	pop	edi
	pop	esi
	pop	ebx
	mov	esp, ebp
	pop	ebp
	ret	4
?Element@?$CUtlArray@Ugrassentry_s@@V?$CUtlMemory@Ugrassentry_s@@H@@@@QAEAAUgrassentry_s@@H@Z ENDP ; CUtlArray<grassentry_s,CUtlMemory<grassentry_s,int> >::Element
_TEXT	ENDS
; Function compile flags: /Odtp /ZI
; File d:\!diffusion 2020\source code 2022\client-server\game_shared\utlarray.h
;	COMDAT ??A?$CUtlArray@Ugrassentry_s@@V?$CUtlMemory@Ugrassentry_s@@H@@@@QAEAAUgrassentry_s@@H@Z
_TEXT	SEGMENT
_this$ = -4						; size = 4
_i$ = 8							; size = 4
??A?$CUtlArray@Ugrassentry_s@@V?$CUtlMemory@Ugrassentry_s@@H@@@@QAEAAUgrassentry_s@@H@Z PROC ; CUtlArray<grassentry_s,CUtlMemory<grassentry_s,int> >::operator[], COMDAT
; _this$ = ecx

; 282  : {

	push	ebp
	mov	ebp, esp
	sub	esp, 68					; 00000044H
	push	ebx
	push	esi
	push	edi
	mov	DWORD PTR _this$[ebp], ecx

; 283  : 	return m_Memory[ i ];

	mov	eax, DWORD PTR _i$[ebp]
	push	eax
	mov	ecx, DWORD PTR _this$[ebp]
	call	??A?$CUtlMemory@Ugrassentry_s@@H@@QAEAAUgrassentry_s@@H@Z ; CUtlMemory<grassentry_s,int>::operator[]

; 284  : }

	pop	edi
	pop	esi
	pop	ebx
	mov	esp, ebp
	pop	ebp
	ret	4
??A?$CUtlArray@Ugrassentry_s@@V?$CUtlMemory@Ugrassentry_s@@H@@@@QAEAAUgrassentry_s@@H@Z ENDP ; CUtlArray<grassentry_s,CUtlMemory<grassentry_s,int> >::operator[]
_TEXT	ENDS
; Function compile flags: /Odtp /ZI
; File d:\!diffusion 2020\source code 2022\client-server\game_shared\utlarray.h
;	COMDAT ??1?$CUtlArray@Ugrassentry_s@@V?$CUtlMemory@Ugrassentry_s@@H@@@@QAE@XZ
_TEXT	SEGMENT
_this$ = -16						; size = 4
__$EHRec$ = -12						; size = 12
??1?$CUtlArray@Ugrassentry_s@@V?$CUtlMemory@Ugrassentry_s@@H@@@@QAE@XZ PROC ; CUtlArray<grassentry_s,CUtlMemory<grassentry_s,int> >::~CUtlArray<grassentry_s,CUtlMemory<grassentry_s,int> >, COMDAT
; _this$ = ecx

; 260  : {

	push	ebp
	mov	ebp, esp
	push	-1
	push	__ehhandler$??1?$CUtlArray@Ugrassentry_s@@V?$CUtlMemory@Ugrassentry_s@@H@@@@QAE@XZ
	mov	eax, DWORD PTR fs:0
	push	eax
	sub	esp, 68					; 00000044H
	push	ebx
	push	esi
	push	edi
	mov	eax, DWORD PTR ___security_cookie
	xor	eax, ebp
	push	eax
	lea	eax, DWORD PTR __$EHRec$[ebp]
	mov	DWORD PTR fs:0, eax
	mov	DWORD PTR _this$[ebp], ecx

; 261  : 	Purge();

	mov	ecx, DWORD PTR _this$[ebp]
	call	?Purge@?$CUtlArray@Ugrassentry_s@@V?$CUtlMemory@Ugrassentry_s@@H@@@@QAEXXZ ; CUtlArray<grassentry_s,CUtlMemory<grassentry_s,int> >::Purge

; 262  : }

	mov	ecx, DWORD PTR _this$[ebp]
	call	??1?$CUtlMemory@Ugrassentry_s@@H@@QAE@XZ ; CUtlMemory<grassentry_s,int>::~CUtlMemory<grassentry_s,int>
	mov	ecx, DWORD PTR __$EHRec$[ebp]
	mov	DWORD PTR fs:0, ecx
	pop	ecx
	pop	edi
	pop	esi
	pop	ebx
	mov	esp, ebp
	pop	ebp
	ret	0
_TEXT	ENDS
;	COMDAT text$x
text$x	SEGMENT
__ehhandler$??1?$CUtlArray@Ugrassentry_s@@V?$CUtlMemory@Ugrassentry_s@@H@@@@QAE@XZ:
	mov	edx, DWORD PTR [esp+8]
	lea	eax, DWORD PTR [edx+12]
	mov	ecx, DWORD PTR [edx-84]
	xor	ecx, eax
	call	@__security_check_cookie@4
	mov	eax, OFFSET __ehfuncinfo$??1?$CUtlArray@Ugrassentry_s@@V?$CUtlMemory@Ugrassentry_s@@H@@@@QAE@XZ
	jmp	___CxxFrameHandler3
text$x	ENDS
??1?$CUtlArray@Ugrassentry_s@@V?$CUtlMemory@Ugrassentry_s@@H@@@@QAE@XZ ENDP ; CUtlArray<grassentry_s,CUtlMemory<grassentry_s,int> >::~CUtlArray<grassentry_s,CUtlMemory<grassentry_s,int> >
; Function compile flags: /Odtp /ZI
; File d:\!diffusion 2020\source code 2022\client-server\game_shared\utlarray.h
;	COMDAT ??0?$CUtlArray@Ugrassentry_s@@V?$CUtlMemory@Ugrassentry_s@@H@@@@QAE@HH@Z
_TEXT	SEGMENT
_this$ = -16						; size = 4
__$EHRec$ = -12						; size = 12
_growSize$ = 8						; size = 4
_initSize$ = 12						; size = 4
??0?$CUtlArray@Ugrassentry_s@@V?$CUtlMemory@Ugrassentry_s@@H@@@@QAE@HH@Z PROC ; CUtlArray<grassentry_s,CUtlMemory<grassentry_s,int> >::CUtlArray<grassentry_s,CUtlMemory<grassentry_s,int> >, COMDAT
; _this$ = ecx

; 247  : {

	push	ebp
	mov	ebp, esp
	push	-1
	push	__ehhandler$??0?$CUtlArray@Ugrassentry_s@@V?$CUtlMemory@Ugrassentry_s@@H@@@@QAE@HH@Z
	mov	eax, DWORD PTR fs:0
	push	eax
	sub	esp, 68					; 00000044H
	push	ebx
	push	esi
	push	edi
	mov	eax, DWORD PTR ___security_cookie
	xor	eax, ebp
	push	eax
	lea	eax, DWORD PTR __$EHRec$[ebp]
	mov	DWORD PTR fs:0, eax
	mov	DWORD PTR _this$[ebp], ecx

; 246  : 	m_Memory(growSize, initSize), m_Size(0)

	mov	eax, DWORD PTR _initSize$[ebp]
	push	eax
	mov	ecx, DWORD PTR _growSize$[ebp]
	push	ecx
	mov	ecx, DWORD PTR _this$[ebp]
	call	??0?$CUtlMemory@Ugrassentry_s@@H@@QAE@HH@Z ; CUtlMemory<grassentry_s,int>::CUtlMemory<grassentry_s,int>
	mov	DWORD PTR __$EHRec$[ebp+8], 0
	mov	eax, DWORD PTR _this$[ebp]
	mov	DWORD PTR [eax+12], 0

; 248  : 	ResetDbgInfo();

	mov	ecx, DWORD PTR _this$[ebp]
	call	?ResetDbgInfo@?$CUtlArray@Ugrassentry_s@@V?$CUtlMemory@Ugrassentry_s@@H@@@@IAEXXZ ; CUtlArray<grassentry_s,CUtlMemory<grassentry_s,int> >::ResetDbgInfo

; 249  : }

	mov	DWORD PTR __$EHRec$[ebp+8], -1
	mov	eax, DWORD PTR _this$[ebp]
	mov	ecx, DWORD PTR __$EHRec$[ebp]
	mov	DWORD PTR fs:0, ecx
	pop	ecx
	pop	edi
	pop	esi
	pop	ebx
	mov	esp, ebp
	pop	ebp
	ret	8
_TEXT	ENDS
;	COMDAT text$x
text$x	SEGMENT
__unwindfunclet$??0?$CUtlArray@Ugrassentry_s@@V?$CUtlMemory@Ugrassentry_s@@H@@@@QAE@HH@Z$0:
	mov	ecx, DWORD PTR _this$[ebp]
	jmp	??1?$CUtlMemory@Ugrassentry_s@@H@@QAE@XZ ; CUtlMemory<grassentry_s,int>::~CUtlMemory<grassentry_s,int>
__ehhandler$??0?$CUtlArray@Ugrassentry_s@@V?$CUtlMemory@Ugrassentry_s@@H@@@@QAE@HH@Z:
	mov	edx, DWORD PTR [esp+8]
	lea	eax, DWORD PTR [edx+12]
	mov	ecx, DWORD PTR [edx-84]
	xor	ecx, eax
	call	@__security_check_cookie@4
	mov	eax, OFFSET __ehfuncinfo$??0?$CUtlArray@Ugrassentry_s@@V?$CUtlMemory@Ugrassentry_s@@H@@@@QAE@HH@Z
	jmp	___CxxFrameHandler3
text$x	ENDS
??0?$CUtlArray@Ugrassentry_s@@V?$CUtlMemory@Ugrassentry_s@@H@@@@QAE@HH@Z ENDP ; CUtlArray<grassentry_s,CUtlMemory<grassentry_s,int> >::CUtlArray<grassentry_s,CUtlMemory<grassentry_s,int> >
; Function compile flags: /Odtp /ZI
; File d:\!diffusion 2020\source code 2022\client-server\client\render\r_grass.cpp
;	COMDAT ?R_GrassUseBufferObject@@YA_NXZ
_TEXT	SEGMENT
?R_GrassUseBufferObject@@YA_NXZ PROC			; R_GrassUseBufferObject, COMDAT

; 52   : {

	push	ebp
	mov	ebp, esp
	sub	esp, 64					; 00000040H
	push	ebx
	push	esi
	push	edi

; 53   : 	return m_bGrassUseVBO;

	mov	al, BYTE PTR ?m_bGrassUseVBO@@3_NA

; 54   : }

	pop	edi
	pop	esi
	pop	ebx
	mov	esp, ebp
	pop	ebp
	ret	0
?R_GrassUseBufferObject@@YA_NXZ ENDP			; R_GrassUseBufferObject
_TEXT	ENDS
; Function compile flags: /Odtp /ZI
; File d:\!diffusion 2020\source code 2022\client-server\client\render\r_grass.cpp
;	COMDAT ?R_UnloadFarGrass@@YAXXZ
_TEXT	SEGMENT
$T1 = -96						; size = 12
_curdist$2 = -20					; size = 4
_es$3 = -16						; size = 4
_surf$4 = -12						; size = 4
_i$5 = -8						; size = 4
_draw_dist$ = -4					; size = 4
?R_UnloadFarGrass@@YAXXZ PROC				; R_UnloadFarGrass, COMDAT

; 1468 : {

	push	ebp
	mov	ebp, esp
	sub	esp, 96					; 00000060H
	push	ebx
	push	esi
	push	edi

; 1469 : 	if( !FBitSet( world->features, WORLD_HAS_GRASS ))

	mov	eax, DWORD PTR ?world@@3PAUgl_world_t@@A ; world
	movzx	ecx, WORD PTR [eax+64]
	and	ecx, 16					; 00000010H
	jne	SHORT $LN5@R_UnloadFa

; 1470 : 		return; // don't waste time

	jmp	$LN1@R_UnloadFa
$LN5@R_UnloadFa:

; 1471 : 
; 1472 : 	if( ++tr.grassunloadframe < 1000 )

	mov	eax, DWORD PTR ?tr@@3Uref_globals_t@@A+5830952
	add	eax, 1
	mov	DWORD PTR ?tr@@3Uref_globals_t@@A+5830952, eax
	cmp	DWORD PTR ?tr@@3Uref_globals_t@@A+5830952, 1000 ; 000003e8H
	jge	SHORT $LN6@R_UnloadFa

; 1473 : 		return; // thinking ~one tick per second

	jmp	$LN1@R_UnloadFa
$LN6@R_UnloadFa:

; 1474 : 
; 1475 : 	float draw_dist = m_flGrassFadeStart;

	movss	xmm0, DWORD PTR ?m_flGrassFadeStart@@3MA
	movss	DWORD PTR _draw_dist$[ebp], xmm0

; 1476 : 
; 1477 : 	if( draw_dist < GRASS_ANIM_DIST )

	movss	xmm0, DWORD PTR __real@44000000
	comiss	xmm0, DWORD PTR _draw_dist$[ebp]
	jbe	SHORT $LN7@R_UnloadFa

; 1478 : 		draw_dist = GRASS_ANIM_DIST;

	movss	xmm0, DWORD PTR __real@44000000
	movss	DWORD PTR _draw_dist$[ebp], xmm0
$LN7@R_UnloadFa:

; 1479 : 	draw_dist += m_flGrassFadeDist;

	movss	xmm0, DWORD PTR _draw_dist$[ebp]
	addss	xmm0, DWORD PTR ?m_flGrassFadeDist@@3MA
	movss	DWORD PTR _draw_dist$[ebp], xmm0

; 1480 : 
; 1481 : 	// check surfaces
; 1482 : 	for( int i = 0; i < worldmodel->numsurfaces; i++ )

	mov	DWORD PTR _i$5[ebp], 0
	jmp	SHORT $LN4@R_UnloadFa
$LN2@R_UnloadFa:
	mov	eax, DWORD PTR _i$5[ebp]
	add	eax, 1
	mov	DWORD PTR _i$5[ebp], eax
$LN4@R_UnloadFa:
	mov	eax, DWORD PTR ?worldmodel@@3PAUmodel_s@@A ; worldmodel
	mov	ecx, DWORD PTR _i$5[ebp]
	cmp	ecx, DWORD PTR [eax+176]
	jge	SHORT $LN3@R_UnloadFa

; 1483 : 	{
; 1484 : 		msurface_t *surf = &worldmodel->surfaces[i];

	imul	eax, DWORD PTR _i$5[ebp], 92
	mov	ecx, DWORD PTR ?worldmodel@@3PAUmodel_s@@A ; worldmodel
	add	eax, DWORD PTR [ecx+180]
	mov	DWORD PTR _surf$4[ebp], eax

; 1485 : 		mextrasurf_t *es = surf->info;

	mov	eax, DWORD PTR _surf$4[ebp]
	mov	ecx, DWORD PTR [eax+80]
	mov	DWORD PTR _es$3[ebp], ecx

; 1486 : 
; 1487 : 		if( !es->grasscount )

	mov	eax, DWORD PTR _es$3[ebp]
	movzx	ecx, WORD PTR [eax+124]
	test	ecx, ecx
	jne	SHORT $LN8@R_UnloadFa

; 1488 : 			continue; // surface doesn't contain grass

	jmp	SHORT $LN2@R_UnloadFa
$LN8@R_UnloadFa:

; 1489 : 
; 1490 : 		float curdist = ( tr.cached_vieworigin - es->origin ).Length();

	mov	eax, DWORD PTR _es$3[ebp]
	add	eax, 24					; 00000018H
	push	eax
	lea	ecx, DWORD PTR $T1[ebp]
	push	ecx
	mov	ecx, OFFSET ?tr@@3Uref_globals_t@@A+5836100
	call	??GVector@@QBE?AV0@ABV0@@Z		; Vector::operator-
	mov	ecx, eax
	call	?Length@Vector@@QBEMXZ			; Vector::Length
	fstp	DWORD PTR _curdist$2[ebp]

; 1491 : 
; 1492 : 		if( curdist > ( draw_dist * 1.2f ) && es->grass )

	movss	xmm0, DWORD PTR _draw_dist$[ebp]
	mulss	xmm0, DWORD PTR __real@3f99999a
	movss	xmm1, DWORD PTR _curdist$2[ebp]
	comiss	xmm1, xmm0
	jbe	SHORT $LN9@R_UnloadFa
	mov	eax, DWORD PTR _es$3[ebp]
	cmp	DWORD PTR [eax+120], 0
	je	SHORT $LN9@R_UnloadFa

; 1493 : 			R_RemoveGrassForSurface( es );

	mov	eax, DWORD PTR _es$3[ebp]
	push	eax
	call	?R_RemoveGrassForSurface@@YAXPAUmextrasurf_s@@@Z ; R_RemoveGrassForSurface
	add	esp, 4
$LN9@R_UnloadFa:

; 1494 : 	}

	jmp	$LN2@R_UnloadFa
$LN3@R_UnloadFa:

; 1495 : 
; 1496 : 	tr.grassunloadframe = 0;

	mov	DWORD PTR ?tr@@3Uref_globals_t@@A+5830952, 0
$LN1@R_UnloadFa:

; 1497 : }

	pop	edi
	pop	esi
	pop	ebx
	mov	esp, ebp
	pop	ebp
	ret	0
?R_UnloadFarGrass@@YAXXZ ENDP				; R_UnloadFarGrass
_TEXT	ENDS
; Function compile flags: /Odtp /ZI
; File d:\!diffusion 2020\source code 2022\client-server\client\render\r_grass.cpp
;	COMDAT ?R_DrawGrassLight@@YAXPAUplight_s@@@Z
_TEXT	SEGMENT
_shadowHeight$ = -92					; size = 4
_shadowWidth$ = -88					; size = 4
_lightdir$ = -84					; size = 12
_gl_lightViewProjMatrix$ = -72				; size = 64
_shaderNum$ = -8					; size = 2
__$ArrayPad$ = -4					; size = 4
_pl$ = 8						; size = 4
?R_DrawGrassLight@@YAXPAUplight_s@@@Z PROC		; R_DrawGrassLight, COMDAT

; 1607 : {

	push	ebp
	mov	ebp, esp
	sub	esp, 156				; 0000009cH
	mov	eax, DWORD PTR ___security_cookie
	xor	eax, ebp
	mov	DWORD PTR __$ArrayPad$[ebp], eax
	push	ebx
	push	esi
	push	edi

; 1608 : 	word	shaderNum = GL_UberShaderForDlightGeneric( pl );

	mov	eax, DWORD PTR _pl$[ebp]
	push	eax
	call	?GL_UberShaderForDlightGeneric@@YAGPBUplight_s@@@Z ; GL_UberShaderForDlightGeneric
	add	esp, 4
	mov	WORD PTR _shaderNum$[ebp], ax

; 1609 : 	GLfloat	gl_lightViewProjMatrix[16];
; 1610 : 
; 1611 : 	if( !tr.num_light_grass || !shaderNum || tr.nodlights )

	cmp	DWORD PTR ?tr@@3Uref_globals_t@@A+5830948, 0
	je	SHORT $LN3@R_DrawGras
	movzx	eax, WORD PTR _shaderNum$[ebp]
	test	eax, eax
	je	SHORT $LN3@R_DrawGras
	movzx	eax, BYTE PTR ?tr@@3Uref_globals_t@@A+5835056
	test	eax, eax
	je	SHORT $LN2@R_DrawGras
$LN3@R_DrawGras:

; 1612 : 		return;

	jmp	$LN1@R_DrawGras
$LN2@R_DrawGras:

; 1613 : 
; 1614 : 	pglBindVertexArray( GL_FALSE );

	push	0
	call	DWORD PTR ?pglBindVertexArray@@3P6GXI@ZA ; pglBindVertexArray

; 1615 : 	GL_BindShader( &glsl_programs[shaderNum] );			

	movzx	eax, WORD PTR _shaderNum$[ebp]
	imul	ecx, eax, 972
	add	ecx, OFFSET ?glsl_programs@@3PAUglsl_prog_s@@A ; glsl_programs
	push	ecx
	call	?GL_BindShader@@YAXPAUglsl_prog_s@@@Z	; GL_BindShader
	add	esp, 4

; 1616 : 	ASSERT( RI->currentshader != NULL );

	mov	eax, DWORD PTR ?RI@@3PAUref_instance_t@@A ; RI
	cmp	DWORD PTR [eax+28], 0
	jne	SHORT $LN4@R_DrawGras
	mov	eax, DWORD PTR ?__LINE__Var@?0??R_DrawGrassLight@@YAXPAUplight_s@@@Z@4JA
	add	eax, 9
	push	eax
	push	OFFSET ??_C@_0EM@FOOGKCCC@d?3?2?$CBdiffusion?52020?2source?5code?52@
	push	OFFSET ??_C@_0BI@FECCGOFJ@assert?5failed?5at?5?$CFs?3?$CFi?6?$AA@
	call	DWORD PTR ?gRenderfuncs@@3Urender_api_s@@A+236
	add	esp, 12					; 0000000cH
$LN4@R_DrawGras:

; 1617 : 
; 1618 : 	Vector lightdir = pl->frustum.GetPlane( FRUSTUM_FAR )->normal;

	push	4
	mov	ecx, DWORD PTR _pl$[ebp]
	add	ecx, 328				; 00000148H
	call	?GetPlane@CFrustum@@QBEPBUmplane_s@@H@Z	; CFrustum::GetPlane
	push	eax
	lea	ecx, DWORD PTR _lightdir$[ebp]
	call	??0Vector@@QAE@ABV0@@Z			; Vector::Vector

; 1619 : 	pl->lightviewProjMatrix.CopyToArray( gl_lightViewProjMatrix );

	lea	eax, DWORD PTR _gl_lightViewProjMatrix$[ebp]
	push	eax
	mov	ecx, DWORD PTR _pl$[ebp]
	add	ecx, 176				; 000000b0H
	call	?CopyToArray@matrix4x4@@QBEXPAM@Z	; matrix4x4::CopyToArray

; 1620 : 
; 1621 : 	// write constants
; 1622 : 	pglUniformMatrix4fvARB( RI->currentshader->u_LightViewProjectionMatrix, 1, GL_FALSE, &gl_lightViewProjMatrix[0] );

	mov	eax, 4
	imul	ecx, eax, 0
	lea	edx, DWORD PTR _gl_lightViewProjMatrix$[ebp+ecx]
	push	edx
	push	0
	push	1
	mov	eax, DWORD PTR ?RI@@3PAUref_instance_t@@A ; RI
	mov	ecx, DWORD PTR [eax+28]
	mov	edx, DWORD PTR [ecx+696]
	push	edx
	call	DWORD PTR ?pglUniformMatrix4fvARB@@3P6GXHHEPBM@ZA ; pglUniformMatrix4fvARB

; 1623 : 	float shadowWidth = 1.0f / (float)RENDER_GET_PARM( PARM_TEX_WIDTH, pl->shadowTexture[0] );

	mov	eax, 4
	imul	ecx, eax, 0
	mov	edx, DWORD PTR _pl$[ebp]
	mov	eax, DWORD PTR [edx+ecx+468]
	push	eax
	push	1
	call	DWORD PTR ?gRenderfuncs@@3Urender_api_s@@A
	add	esp, 8
	cvtsi2ss xmm0, eax
	movss	xmm1, DWORD PTR __real@3f800000
	divss	xmm1, xmm0
	movss	DWORD PTR _shadowWidth$[ebp], xmm1

; 1624 : 	float shadowHeight = 1.0f / (float)RENDER_GET_PARM( PARM_TEX_HEIGHT, pl->shadowTexture[0] );

	mov	eax, 4
	imul	ecx, eax, 0
	mov	edx, DWORD PTR _pl$[ebp]
	mov	eax, DWORD PTR [edx+ecx+468]
	push	eax
	push	2
	call	DWORD PTR ?gRenderfuncs@@3Urender_api_s@@A
	add	esp, 8
	cvtsi2ss xmm0, eax
	movss	xmm1, DWORD PTR __real@3f800000
	divss	xmm1, xmm0
	movss	DWORD PTR _shadowHeight$[ebp], xmm1

; 1625 : 
; 1626 : 	// depth scale and bias and shadowmap resolution
; 1627 : 	pglUniform4fARB( RI->currentshader->u_LightDir, lightdir.x, lightdir.y, lightdir.z, pl->fov );

	mov	eax, DWORD PTR _pl$[ebp]
	push	ecx
	movss	xmm0, DWORD PTR [eax+748]
	movss	DWORD PTR [esp], xmm0
	push	ecx
	movss	xmm0, DWORD PTR _lightdir$[ebp+8]
	movss	DWORD PTR [esp], xmm0
	push	ecx
	movss	xmm0, DWORD PTR _lightdir$[ebp+4]
	movss	DWORD PTR [esp], xmm0
	push	ecx
	movss	xmm0, DWORD PTR _lightdir$[ebp]
	movss	DWORD PTR [esp], xmm0
	mov	ecx, DWORD PTR ?RI@@3PAUref_instance_t@@A ; RI
	mov	edx, DWORD PTR [ecx+28]
	mov	eax, DWORD PTR [edx+744]
	push	eax
	call	DWORD PTR ?pglUniform4fARB@@3P6GXHMMMM@ZA ; pglUniform4fARB

; 1628 : 	pglUniform4fARB( RI->currentshader->u_LightDiffuse, pl->color.r / 255.0f, pl->color.g / 255.0f, pl->color.b / 255.0f, pl->lightFalloff );

	mov	eax, DWORD PTR _pl$[ebp]
	push	ecx
	movss	xmm0, DWORD PTR [eax+740]
	movss	DWORD PTR [esp], xmm0
	mov	ecx, DWORD PTR _pl$[ebp]
	movzx	edx, BYTE PTR [ecx+30]
	cvtsi2ss xmm0, edx
	divss	xmm0, DWORD PTR __real@437f0000
	push	ecx
	movss	DWORD PTR [esp], xmm0
	mov	eax, DWORD PTR _pl$[ebp]
	movzx	ecx, BYTE PTR [eax+29]
	cvtsi2ss xmm0, ecx
	divss	xmm0, DWORD PTR __real@437f0000
	push	ecx
	movss	DWORD PTR [esp], xmm0
	mov	edx, DWORD PTR _pl$[ebp]
	movzx	eax, BYTE PTR [edx+28]
	cvtsi2ss xmm0, eax
	divss	xmm0, DWORD PTR __real@437f0000
	push	ecx
	movss	DWORD PTR [esp], xmm0
	mov	ecx, DWORD PTR ?RI@@3PAUref_instance_t@@A ; RI
	mov	edx, DWORD PTR [ecx+28]
	mov	eax, DWORD PTR [edx+760]
	push	eax
	call	DWORD PTR ?pglUniform4fARB@@3P6GXHMMMM@ZA ; pglUniform4fARB

; 1629 : 	pglUniform4fARB( RI->currentshader->u_ShadowParams, shadowWidth, shadowHeight, -pl->projectionMatrix[2][2], pl->projectionMatrix[3][2] );

	push	3
	mov	ecx, DWORD PTR _pl$[ebp]
	add	ecx, 48					; 00000030H
	call	??Amatrix4x4@@QAEPAMH@Z			; matrix4x4::operator[]
	mov	ecx, 4
	shl	ecx, 1
	push	ecx
	movss	xmm0, DWORD PTR [eax+ecx]
	movss	DWORD PTR [esp], xmm0
	push	2
	mov	ecx, DWORD PTR _pl$[ebp]
	add	ecx, 48					; 00000030H
	call	??Amatrix4x4@@QAEPAMH@Z			; matrix4x4::operator[]
	mov	edx, 4
	shl	edx, 1
	movss	xmm0, DWORD PTR [eax+edx]
	xorps	xmm0, DWORD PTR __xmm@80000000800000008000000080000000
	push	ecx
	movss	DWORD PTR [esp], xmm0
	push	ecx
	movss	xmm0, DWORD PTR _shadowHeight$[ebp]
	movss	DWORD PTR [esp], xmm0
	push	ecx
	movss	xmm0, DWORD PTR _shadowWidth$[ebp]
	movss	DWORD PTR [esp], xmm0
	mov	eax, DWORD PTR ?RI@@3PAUref_instance_t@@A ; RI
	mov	ecx, DWORD PTR [eax+28]
	mov	edx, DWORD PTR [ecx+836]
	push	edx
	call	DWORD PTR ?pglUniform4fARB@@3P6GXHMMMM@ZA ; pglUniform4fARB

; 1630 : 	pglUniform4fARB( RI->currentshader->u_LightOrigin, pl->origin.x, pl->origin.y, pl->origin.z, ( 1.0f / pl->radius ));

	mov	eax, DWORD PTR _pl$[ebp]
	movss	xmm0, DWORD PTR __real@3f800000
	divss	xmm0, DWORD PTR [eax+24]
	push	ecx
	movss	DWORD PTR [esp], xmm0
	mov	ecx, DWORD PTR _pl$[ebp]
	push	ecx
	movss	xmm0, DWORD PTR [ecx+8]
	movss	DWORD PTR [esp], xmm0
	mov	edx, DWORD PTR _pl$[ebp]
	push	ecx
	movss	xmm0, DWORD PTR [edx+4]
	movss	DWORD PTR [esp], xmm0
	mov	eax, DWORD PTR _pl$[ebp]
	push	ecx
	movss	xmm0, DWORD PTR [eax]
	movss	DWORD PTR [esp], xmm0
	mov	ecx, DWORD PTR ?RI@@3PAUref_instance_t@@A ; RI
	mov	edx, DWORD PTR [ecx+28]
	mov	eax, DWORD PTR [edx+792]
	push	eax
	call	DWORD PTR ?pglUniform4fARB@@3P6GXHMMMM@ZA ; pglUniform4fARB

; 1631 : 	pglUniform4fARB( RI->currentshader->u_FogParams, tr.fogColor[0], tr.fogColor[1], tr.fogColor[2], tr.fogDensity );

	push	ecx
	movss	xmm0, DWORD PTR ?tr@@3Uref_globals_t@@A+5830908
	movss	DWORD PTR [esp], xmm0
	mov	ecx, OFFSET ?tr@@3Uref_globals_t@@A+5830896
	call	??BVector@@QAEPAMXZ			; Vector::operator float *
	mov	ecx, 4
	shl	ecx, 1
	push	ecx
	movss	xmm0, DWORD PTR [eax+ecx]
	movss	DWORD PTR [esp], xmm0
	mov	ecx, OFFSET ?tr@@3Uref_globals_t@@A+5830896
	call	??BVector@@QAEPAMXZ			; Vector::operator float *
	mov	edx, 4
	shl	edx, 0
	push	ecx
	movss	xmm0, DWORD PTR [eax+edx]
	movss	DWORD PTR [esp], xmm0
	mov	ecx, OFFSET ?tr@@3Uref_globals_t@@A+5830896
	call	??BVector@@QAEPAMXZ			; Vector::operator float *
	mov	ecx, 4
	imul	edx, ecx, 0
	push	ecx
	movss	xmm0, DWORD PTR [eax+edx]
	movss	DWORD PTR [esp], xmm0
	mov	eax, DWORD PTR ?RI@@3PAUref_instance_t@@A ; RI
	mov	ecx, DWORD PTR [eax+28]
	mov	edx, DWORD PTR [ecx+788]
	push	edx
	call	DWORD PTR ?pglUniform4fARB@@3P6GXHMMMM@ZA ; pglUniform4fARB

; 1632 : 	pglUniform1fARB( RI->currentshader->u_LightScale, 1.0f );

	push	ecx
	movss	xmm0, DWORD PTR __real@3f800000
	movss	DWORD PTR [esp], xmm0
	mov	eax, DWORD PTR ?RI@@3PAUref_instance_t@@A ; RI
	mov	ecx, DWORD PTR [eax+28]
	mov	edx, DWORD PTR [ecx+796]
	push	edx
	call	DWORD PTR ?pglUniform1fARB@@3P6GXHM@ZA	; pglUniform1fARB

; 1633 : 	pglUniform1fARB( RI->currentshader->u_DynLightBrightness, pl->brightness );

	mov	eax, DWORD PTR _pl$[ebp]
	push	ecx
	movss	xmm0, DWORD PTR [eax+764]
	movss	DWORD PTR [esp], xmm0
	mov	ecx, DWORD PTR ?RI@@3PAUref_instance_t@@A ; RI
	mov	edx, DWORD PTR [ecx+28]
	mov	eax, DWORD PTR [edx+912]
	push	eax
	call	DWORD PTR ?pglUniform1fARB@@3P6GXHM@ZA	; pglUniform1fARB

; 1634 : 
; 1635 : 	GL_Bind( GL_TEXTURE1, pl->projectionTexture );

	mov	eax, DWORD PTR _pl$[ebp]
	mov	ecx, DWORD PTR [eax+452]
	push	ecx
	push	1
	call	DWORD PTR ?gRenderfuncs@@3Urender_api_s@@A+132
	add	esp, 8

; 1636 : 	GL_Bind( GL_TEXTURE2, pl->shadowTexture[0] );

	mov	eax, 4
	imul	ecx, eax, 0
	mov	edx, DWORD PTR _pl$[ebp]
	mov	eax, DWORD PTR [edx+ecx+468]
	push	eax
	push	2
	call	DWORD PTR ?gRenderfuncs@@3Urender_api_s@@A+132
	add	esp, 8

; 1637 : 
; 1638 : 	R_DrawGrass( true );

	push	1
	call	?R_DrawGrass@@YAXH@Z			; R_DrawGrass
	add	esp, 4

; 1639 : 
; 1640 : 	pglBindVertexArray( world->vertex_array_object );

	mov	eax, DWORD PTR ?world@@3PAUgl_world_t@@A ; world
	mov	ecx, DWORD PTR [eax+128]
	push	ecx
	call	DWORD PTR ?pglBindVertexArray@@3P6GXI@ZA ; pglBindVertexArray

; 1641 : //	pglBindVertexArray( GL_FALSE );
; 1642 : 	GL_SelectTexture( glConfig.max_texture_units - 1 ); // force to cleanup all the units

	mov	eax, DWORD PTR ?glConfig@@3UglConfig_t@@A+52
	sub	eax, 1
	push	eax
	call	DWORD PTR ?gRenderfuncs@@3Urender_api_s@@A+136
	add	esp, 4

; 1643 : 	GL_CleanUpTextureUnits( 0 );

	push	0
	call	DWORD PTR ?gRenderfuncs@@3Urender_api_s@@A+148
	add	esp, 4
$LN1@R_DrawGras:

; 1644 : }

	pop	edi
	pop	esi
	pop	ebx
	mov	ecx, DWORD PTR __$ArrayPad$[ebp]
	xor	ecx, ebp
	call	@__security_check_cookie@4
	mov	esp, ebp
	pop	ebp
	ret	0
?R_DrawGrassLight@@YAXPAUplight_s@@@Z ENDP		; R_DrawGrassLight
_TEXT	ENDS
; Function compile flags: /Odtp /ZI
; File d:\!diffusion 2020\source code 2022\client-server\client\render\r_grass.cpp
;	COMDAT ?R_RemoveGrassForSurface@@YAXPAUmextrasurf_s@@@Z
_TEXT	SEGMENT
_grasshdr_size$1 = -20					; size = 4
_meshes_size$2 = -16					; size = 4
_mesh_size$3 = -12					; size = 4
_i$4 = -8						; size = 4
_hdr$ = -4						; size = 4
_es$ = 8						; size = 4
?R_RemoveGrassForSurface@@YAXPAUmextrasurf_s@@@Z PROC	; R_RemoveGrassForSurface, COMDAT

; 390  : {

	push	ebp
	mov	ebp, esp
	sub	esp, 84					; 00000054H
	push	ebx
	push	esi
	push	edi

; 391  : 	// not specified?
; 392  : 	if( !es->grass ) return;

	mov	eax, DWORD PTR _es$[ebp]
	cmp	DWORD PTR [eax+120], 0
	jne	SHORT $LN5@R_RemoveGr
	jmp	$LN1@R_RemoveGr
$LN5@R_RemoveGr:

; 393  : 
; 394  : 	grasshdr_t *hdr = es->grass;

	mov	eax, DWORD PTR _es$[ebp]
	mov	ecx, DWORD PTR [eax+120]
	mov	DWORD PTR _hdr$[ebp], ecx

; 395  : 
; 396  : 	if( m_bGrassUseVBO )

	movzx	eax, BYTE PTR ?m_bGrassUseVBO@@3_NA
	test	eax, eax
	je	SHORT $LN6@R_RemoveGr

; 397  : 	{
; 398  : 		for( int i = 0; i < hdr->count; i++ )

	mov	DWORD PTR _i$4[ebp], 0
	jmp	SHORT $LN4@R_RemoveGr
$LN2@R_RemoveGr:
	mov	eax, DWORD PTR _i$4[ebp]
	add	eax, 1
	mov	DWORD PTR _i$4[ebp], eax
$LN4@R_RemoveGr:
	mov	eax, DWORD PTR _hdr$[ebp]
	mov	ecx, DWORD PTR _i$4[ebp]
	cmp	ecx, DWORD PTR [eax+52]
	jge	SHORT $LN3@R_RemoveGr

; 399  : 			R_DeleteSurfaceVBO( &hdr->g[i] );

	imul	eax, DWORD PTR _i$4[ebp], 44
	mov	ecx, DWORD PTR _hdr$[ebp]
	lea	edx, DWORD PTR [ecx+eax+60]
	push	edx
	call	?R_DeleteSurfaceVBO@@YAXPAUgrass_s@@@Z	; R_DeleteSurfaceVBO
	add	esp, 4
	jmp	SHORT $LN2@R_RemoveGr
$LN3@R_RemoveGr:

; 400  : 	}
; 401  : 	else

	jmp	SHORT $LN7@R_RemoveGr
$LN6@R_RemoveGr:

; 402  : 	{
; 403  : 		size_t mesh_size = sizeof( grassvert_t ) * 16; // single mesh

	mov	DWORD PTR _mesh_size$3[ebp], 320	; 00000140H

; 404  : 		size_t meshes_size = mesh_size * es->grasscount;	// all meshes

	mov	eax, DWORD PTR _es$[ebp]
	movzx	ecx, WORD PTR [eax+124]
	imul	ecx, DWORD PTR _mesh_size$3[ebp]
	mov	DWORD PTR _meshes_size$2[ebp], ecx

; 405  : 		size_t grasshdr_size = sizeof( grasshdr_t ) + sizeof( grass_t ) * ( es->grasscount - 1 );

	mov	eax, DWORD PTR _es$[ebp]
	movzx	ecx, WORD PTR [eax+124]
	sub	ecx, 1
	imul	edx, ecx, 44
	add	edx, 104				; 00000068H
	mov	DWORD PTR _grasshdr_size$1[ebp], edx

; 406  : 		tr.grass_total_size -= grasshdr_size + meshes_size;

	mov	eax, DWORD PTR _grasshdr_size$1[ebp]
	add	eax, DWORD PTR _meshes_size$2[ebp]
	mov	ecx, DWORD PTR ?tr@@3Uref_globals_t@@A+5852556
	sub	ecx, eax
	mov	DWORD PTR ?tr@@3Uref_globals_t@@A+5852556, ecx
$LN7@R_RemoveGr:

; 407  : 	}
; 408  : 
; 409  : 	es->grass = NULL;

	mov	eax, DWORD PTR _es$[ebp]
	mov	DWORD PTR [eax+120], 0

; 410  : 	Mem_Free( hdr );

	mov	eax, DWORD PTR ?__LINE__Var@?0??R_RemoveGrassForSurface@@YAXPAUmextrasurf_s@@@Z@4JA
	add	eax, 20					; 00000014H
	push	eax
	push	OFFSET ??_C@_0EM@FOOGKCCC@d?3?2?$CBdiffusion?52020?2source?5code?52@
	mov	ecx, DWORD PTR _hdr$[ebp]
	push	ecx
	call	DWORD PTR ?gRenderfuncs@@3Urender_api_s@@A+220
	add	esp, 12					; 0000000cH
$LN1@R_RemoveGr:

; 411  : }

	pop	edi
	pop	esi
	pop	ebx
	mov	esp, ebp
	pop	ebp
	ret	0
?R_RemoveGrassForSurface@@YAXPAUmextrasurf_s@@@Z ENDP	; R_RemoveGrassForSurface
_TEXT	ENDS
; Function compile flags: /Odtp /ZI
