; Listing generated by Microsoft (R) Optimizing Compiler Version 19.00.24247.2 

	TITLE	D:\!DIFFUSION 2020\source code 2022\client-server\client\render\r_lightmap.cpp
	.686P
	.XMM
	include listing.inc
	.model	flat

INCLUDELIB LIBCMT
INCLUDELIB OLDNAMES

PUBLIC	??_H@YGXPAXIIP6EPAX0@Z@Z			; `vector constructor iterator'
PUBLIC	??__G@YGXPAX0IIP6EPAX00@Z@Z			; `vector copy constructor iterator'
PUBLIC	?SinCos@@YAXMPAM0@Z				; SinCos
PUBLIC	??0Vector@@QAE@XZ				; Vector::Vector
PUBLIC	??0Vector@@QAE@QAM@Z				; Vector::Vector
PUBLIC	??BVector@@QAEPAMXZ				; Vector::operator float *
PUBLIC	??BVector@@QBEPBMXZ				; Vector::operator float const *
PUBLIC	?DotProduct@@YAMABVVector@@0@Z			; DotProduct
PUBLIC	?R_UpdateSurfaceParams@@YAXPAUmsurface_s@@@Z	; R_UpdateSurfaceParams
PUBLIC	?GL_BeginBuildingLightmaps@@YAXXZ		; GL_BeginBuildingLightmaps
PUBLIC	?GL_AllocLightmapForFace@@YAXPAUmsurface_s@@@Z	; GL_AllocLightmapForFace
PUBLIC	?GL_EndBuildingLightmaps@@YAX_N0@Z		; GL_EndBuildingLightmaps
PUBLIC	?R_TextureCoords@@YAXPAUmsurface_s@@ABVVector@@PAM@Z ; R_TextureCoords
PUBLIC	?R_GlobalCoords@@YAXPAUmsurface_s@@ABVVector@@PAM@Z ; R_GlobalCoords
PUBLIC	?R_GlobalCoords@@YAXPAUmsurface_s@@ABVVector@@11MPAM@Z ; R_GlobalCoords
PUBLIC	?R_LightmapCoords@@YAXPAUmsurface_s@@ABVVector@@PAMH@Z ; R_LightmapCoords
PUBLIC	??_C@_0L@EFLJIPOP@?$CKdiffuse?$CFi?$AA@		; `string'
PUBLIC	??_C@_0L@NEPCEFBK@?$CKnormals?$CFi?$AA@		; `string'
PUBLIC	??_C@_0BN@BIPPPBEJ@MAX_LIGHTMAPS?5limit?5exceded?6?$AA@ ; `string'
PUBLIC	?__LINE__Var@?0??R_BuildLightMapForStyle@@YAXPAUmsurface_s@@PAEH@Z@4JA ; `R_BuildLightMapForStyle'::`1'::__LINE__Var
PUBLIC	??_C@_0EP@MCLLMMPE@d?3?2?$CBdiffusion?52020?2source?5code?52@ ; `string'
PUBLIC	??_C@_0BI@FECCGOFJ@assert?5failed?5at?5?$CFs?3?$CFi?6?$AA@ ; `string'
PUBLIC	?__LINE__Var@?0??R_BuildDeluxMapForStyle@@YAXPAUmsurface_s@@PAEH@Z@4JA ; `R_BuildDeluxMapForStyle'::`1'::__LINE__Var
PUBLIC	__real@00000000
PUBLIC	__real@3c8efa35
PUBLIC	__real@3f000000
PUBLIC	__real@3f800000
PUBLIC	__real@41800000
PUBLIC	__real@43340000
PUBLIC	__real@45800000
PUBLIC	__xmm@41f00000000000000000000000000000
PUBLIC	__xmm@80000000800000008000000080000000
EXTRN	_memset:PROC
EXTRN	_cos:PROC
EXTRN	_fabs:PROC
EXTRN	_sin:PROC
EXTRN	?Q_snprintf@@YAHPADIPBDZZ:PROC			; Q_snprintf
EXTRN	?R_ReLightGrass@@YAXPAUmsurface_s@@_N@Z:PROC	; R_ReLightGrass
EXTRN	?Mod_SampleSizeForFace@@YAHPAUmsurface_s@@@Z:PROC ; Mod_SampleSizeForFace
EXTRN	?R_UpdateCinematic@@YAXPBUmsurface_s@@@Z:PROC	; R_UpdateCinematic
EXTRN	?R_TextureAnimation@@YAPAUtexture_s@@PAUmsurface_s@@@Z:PROC ; R_TextureAnimation
EXTRN	@__security_check_cookie@4:PROC
EXTRN	__chkstk:PROC
EXTRN	?gRenderfuncs@@3Urender_api_s@@A:BYTE		; gRenderfuncs
EXTRN	?pglTexSubImage2D@@3P6GXIHHHHHIIPBX@ZA:DWORD	; pglTexSubImage2D
EXTRN	?r_lightmap@@3PAUcvar_s@@A:DWORD		; r_lightmap
EXTRN	?r_detailtextures@@3PAUcvar_s@@A:DWORD		; r_detailtextures
EXTRN	?RI@@3PAUref_instance_t@@A:DWORD		; RI
EXTRN	?tr@@3Uref_globals_t@@A:BYTE			; tr
EXTRN	?world@@3PAUgl_world_t@@A:DWORD			; world
EXTRN	___security_cookie:DWORD
EXTRN	__fltused:DWORD
;	COMDAT __xmm@80000000800000008000000080000000
CONST	SEGMENT
__xmm@80000000800000008000000080000000 DB 00H, 00H, 00H, 080H, 00H, 00H, 00H
	DB	080H, 00H, 00H, 00H, 080H, 00H, 00H, 00H, 080H
CONST	ENDS
;	COMDAT __xmm@41f00000000000000000000000000000
CONST	SEGMENT
__xmm@41f00000000000000000000000000000 DB 00H, 00H, 00H, 00H, 00H, 00H, 00H
	DB	00H, 00H, 00H, 00H, 00H, 00H, 00H, 0f0H, 'A'
CONST	ENDS
;	COMDAT __real@45800000
CONST	SEGMENT
__real@45800000 DD 045800000r			; 4096
CONST	ENDS
;	COMDAT __real@43340000
CONST	SEGMENT
__real@43340000 DD 043340000r			; 180
CONST	ENDS
;	COMDAT __real@41800000
CONST	SEGMENT
__real@41800000 DD 041800000r			; 16
CONST	ENDS
;	COMDAT __real@3f800000
CONST	SEGMENT
__real@3f800000 DD 03f800000r			; 1
CONST	ENDS
;	COMDAT __real@3f000000
CONST	SEGMENT
__real@3f000000 DD 03f000000r			; 0.5
CONST	ENDS
;	COMDAT __real@3c8efa35
CONST	SEGMENT
__real@3c8efa35 DD 03c8efa35r			; 0.0174533
CONST	ENDS
;	COMDAT __real@00000000
CONST	SEGMENT
__real@00000000 DD 000000000r			; 0
CONST	ENDS
;	COMDAT ?__LINE__Var@?0??R_BuildDeluxMapForStyle@@YAXPAUmsurface_s@@PAEH@Z@4JA
_DATA	SEGMENT
?__LINE__Var@?0??R_BuildDeluxMapForStyle@@YAXPAUmsurface_s@@PAEH@Z@4JA DD 0f9H ; `R_BuildDeluxMapForStyle'::`1'::__LINE__Var
_DATA	ENDS
;	COMDAT ??_C@_0BI@FECCGOFJ@assert?5failed?5at?5?$CFs?3?$CFi?6?$AA@
CONST	SEGMENT
??_C@_0BI@FECCGOFJ@assert?5failed?5at?5?$CFs?3?$CFi?6?$AA@ DB 'assert fai'
	DB	'led at %s:%i', 0aH, 00H			; `string'
CONST	ENDS
;	COMDAT ??_C@_0EP@MCLLMMPE@d?3?2?$CBdiffusion?52020?2source?5code?52@
CONST	SEGMENT
??_C@_0EP@MCLLMMPE@d?3?2?$CBdiffusion?52020?2source?5code?52@ DB 'd:\!dif'
	DB	'fusion 2020\source code 2022\client-server\client\render\r_li'
	DB	'ghtmap.cpp', 00H				; `string'
CONST	ENDS
;	COMDAT ?__LINE__Var@?0??R_BuildLightMapForStyle@@YAXPAUmsurface_s@@PAEH@Z@4JA
_DATA	SEGMENT
?__LINE__Var@?0??R_BuildLightMapForStyle@@YAXPAUmsurface_s@@PAEH@Z@4JA DD 0c2H ; `R_BuildLightMapForStyle'::`1'::__LINE__Var
_DATA	ENDS
;	COMDAT ??_C@_0BN@BIPPPBEJ@MAX_LIGHTMAPS?5limit?5exceded?6?$AA@
CONST	SEGMENT
??_C@_0BN@BIPPPBEJ@MAX_LIGHTMAPS?5limit?5exceded?6?$AA@ DB 'MAX_LIGHTMAPS'
	DB	' limit exceded', 0aH, 00H			; `string'
CONST	ENDS
;	COMDAT ??_C@_0L@NEPCEFBK@?$CKnormals?$CFi?$AA@
CONST	SEGMENT
??_C@_0L@NEPCEFBK@?$CKnormals?$CFi?$AA@ DB '*normals%i', 00H ; `string'
CONST	ENDS
;	COMDAT ??_C@_0L@EFLJIPOP@?$CKdiffuse?$CFi?$AA@
CONST	SEGMENT
??_C@_0L@EFLJIPOP@?$CKdiffuse?$CFi?$AA@ DB '*diffuse%i', 00H ; `string'
CONST	ENDS
; Function compile flags: /Odtp /ZI
; File d:\!diffusion 2020\source code 2022\client-server\client\render\r_lightmap.cpp
;	COMDAT ?R_UpdateLightMap@@YAXPAUmsurface_s@@@Z
_TEXT	SEGMENT
_sample_size$ = -69720					; size = 4
_tmax$ = -69716						; size = 4
_smax$ = -69712						; size = 4
_map$ = -69708						; size = 4
_buf$ = -69704						; size = 69696
_esrf$ = -8						; size = 4
__$ArrayPad$ = -4					; size = 4
_surf$ = 8						; size = 4
?R_UpdateLightMap@@YAXPAUmsurface_s@@@Z PROC		; R_UpdateLightMap, COMDAT

; 301  : {

	push	ebp
	mov	ebp, esp
	mov	eax, 70232				; 00011258H
	call	__chkstk
	mov	eax, DWORD PTR ___security_cookie
	xor	eax, ebp
	mov	DWORD PTR __$ArrayPad$[ebp], eax
	push	ebx
	push	esi
	push	edi

; 302  : 	mextrasurf_t	*esrf = surf->info;

	mov	eax, DWORD PTR _surf$[ebp]
	mov	ecx, DWORD PTR [eax+80]
	mov	DWORD PTR _esrf$[ebp], ecx

; 303  : 	byte		buf[132*132*4];
; 304  : 	int		map, smax, tmax;
; 305  : 
; 306  : 	// always reject the sky faces
; 307  : 	if( FBitSet( surf->flags, SURF_DRAWSKY ))

	mov	eax, DWORD PTR _surf$[ebp]
	mov	ecx, DWORD PTR [eax+8]
	and	ecx, 4
	je	SHORT $LN8@R_UpdateLi

; 308  : 		return;

	jmp	$LN1@R_UpdateLi
$LN8@R_UpdateLi:

; 309  : 
; 310  : 	int sample_size = Mod_SampleSizeForFace( surf );

	mov	eax, DWORD PTR _surf$[ebp]
	push	eax
	call	?Mod_SampleSizeForFace@@YAHPAUmsurface_s@@@Z ; Mod_SampleSizeForFace
	add	esp, 4
	mov	DWORD PTR _sample_size$[ebp], eax

; 311  : 	smax = ( surf->info->lightextents[0] / sample_size ) + 1;

	mov	eax, DWORD PTR _surf$[ebp]
	mov	ecx, DWORD PTR [eax+80]
	mov	edx, 2
	imul	eax, edx, 0
	movsx	eax, WORD PTR [ecx+eax+52]
	cdq
	idiv	DWORD PTR _sample_size$[ebp]
	add	eax, 1
	mov	DWORD PTR _smax$[ebp], eax

; 312  : 	tmax = ( surf->info->lightextents[1] / sample_size ) + 1;

	mov	eax, DWORD PTR _surf$[ebp]
	mov	ecx, DWORD PTR [eax+80]
	mov	edx, 2
	shl	edx, 0
	movsx	eax, WORD PTR [ecx+edx+52]
	cdq
	idiv	DWORD PTR _sample_size$[ebp]
	add	eax, 1
	mov	DWORD PTR _tmax$[ebp], eax

; 313  : 
; 314  : 	// upload the lightmap
; 315  : 	if( surf->samples != NULL && FBitSet( surf->flags, SURF_LM_UPDATE ))

	mov	eax, DWORD PTR _surf$[ebp]
	cmp	DWORD PTR [eax+84], 0
	je	$LN9@R_UpdateLi
	mov	eax, DWORD PTR _surf$[ebp]
	mov	ecx, DWORD PTR [eax+8]
	and	ecx, 268435456				; 10000000H
	je	$LN9@R_UpdateLi

; 316  : 	{
; 317  : 		GL_Bind( GL_TEXTURE0, tr.lightmaps[esrf->lightmaptexturenum].lightmap );

	mov	eax, DWORD PTR _esrf$[ebp]
	movzx	ecx, WORD PTR [eax+164]
	imul	edx, ecx, 8204
	mov	eax, DWORD PTR ?tr@@3Uref_globals_t@@A[edx+539892]
	push	eax
	push	0
	call	DWORD PTR ?gRenderfuncs@@3Urender_api_s@@A+132
	add	esp, 8

; 318  : 
; 319  : 		// write lightmaps into page
; 320  : 		for( map = 0; map < MAXLIGHTMAPS && surf->styles[map] != LS_NONE; map++ )

	mov	DWORD PTR _map$[ebp], 0
	jmp	SHORT $LN4@R_UpdateLi
$LN2@R_UpdateLi:
	mov	eax, DWORD PTR _map$[ebp]
	add	eax, 1
	mov	DWORD PTR _map$[ebp], eax
$LN4@R_UpdateLi:
	cmp	DWORD PTR _map$[ebp], 4
	jge	$LN3@R_UpdateLi
	mov	eax, DWORD PTR _surf$[ebp]
	add	eax, DWORD PTR _map$[ebp]
	movzx	ecx, BYTE PTR [eax+60]
	cmp	ecx, 255				; 000000ffH
	je	SHORT $LN3@R_UpdateLi

; 321  : 		{
; 322  : 			R_BuildLightMapForStyle( surf, buf, map );

	mov	eax, DWORD PTR _map$[ebp]
	push	eax
	lea	ecx, DWORD PTR _buf$[ebp]
	push	ecx
	mov	edx, DWORD PTR _surf$[ebp]
	push	edx
	call	?R_BuildLightMapForStyle@@YAXPAUmsurface_s@@PAEH@Z ; R_BuildLightMapForStyle
	add	esp, 12					; 0000000cH

; 323  : 			pglTexSubImage2D( GL_TEXTURE_2D, 0, esrf->light_s[map], esrf->light_t[map], smax, tmax, GL_RGBA, GL_UNSIGNED_BYTE, buf );

	lea	eax, DWORD PTR _buf$[ebp]
	push	eax
	push	5121					; 00001401H
	push	6408					; 00001908H
	mov	ecx, DWORD PTR _tmax$[ebp]
	push	ecx
	mov	edx, DWORD PTR _smax$[ebp]
	push	edx
	mov	eax, DWORD PTR _map$[ebp]
	mov	ecx, DWORD PTR _esrf$[ebp]
	movzx	edx, WORD PTR [ecx+eax*2+156]
	push	edx
	mov	eax, DWORD PTR _map$[ebp]
	mov	ecx, DWORD PTR _esrf$[ebp]
	movzx	edx, WORD PTR [ecx+eax*2+148]
	push	edx
	push	0
	push	3553					; 00000de1H
	call	DWORD PTR ?pglTexSubImage2D@@3P6GXIHHHHHIIPBX@ZA ; pglTexSubImage2D

; 324  : 		}

	jmp	$LN2@R_UpdateLi
$LN3@R_UpdateLi:

; 325  : 
; 326  : 		R_ReLightGrass( surf, true );

	push	1
	mov	eax, DWORD PTR _surf$[ebp]
	push	eax
	call	?R_ReLightGrass@@YAXPAUmsurface_s@@_N@Z	; R_ReLightGrass
	add	esp, 8
$LN9@R_UpdateLi:

; 327  : 	}
; 328  : 
; 329  : 	ClearBits( surf->flags, SURF_LM_UPDATE );

	mov	eax, DWORD PTR _surf$[ebp]
	mov	ecx, DWORD PTR [eax+8]
	and	ecx, -268435457				; efffffffH
	mov	edx, DWORD PTR _surf$[ebp]
	mov	DWORD PTR [edx+8], ecx

; 330  : 
; 331  : 	// upload the deluxemap
; 332  : 	if( esrf->deluxemap != NULL && FBitSet( surf->flags, SURF_DM_UPDATE ))

	mov	eax, DWORD PTR _esrf$[ebp]
	cmp	DWORD PTR [eax+88], 0
	je	$LN10@R_UpdateLi
	mov	eax, DWORD PTR _surf$[ebp]
	mov	ecx, DWORD PTR [eax+8]
	and	ecx, 536870912				; 20000000H
	je	$LN10@R_UpdateLi

; 333  : 	{
; 334  : 		GL_Bind( GL_TEXTURE0, tr.lightmaps[esrf->lightmaptexturenum].deluxmap );

	mov	eax, DWORD PTR _esrf$[ebp]
	movzx	ecx, WORD PTR [eax+164]
	imul	edx, ecx, 8204
	mov	eax, DWORD PTR ?tr@@3Uref_globals_t@@A[edx+539896]
	push	eax
	push	0
	call	DWORD PTR ?gRenderfuncs@@3Urender_api_s@@A+132
	add	esp, 8

; 335  : 
; 336  : 		// write lightmaps into page
; 337  : 		for( map = 0; map < MAXLIGHTMAPS && surf->styles[map] != LS_NONE; map++ )

	mov	DWORD PTR _map$[ebp], 0
	jmp	SHORT $LN7@R_UpdateLi
$LN5@R_UpdateLi:
	mov	eax, DWORD PTR _map$[ebp]
	add	eax, 1
	mov	DWORD PTR _map$[ebp], eax
$LN7@R_UpdateLi:
	cmp	DWORD PTR _map$[ebp], 4
	jge	$LN10@R_UpdateLi
	mov	eax, DWORD PTR _surf$[ebp]
	add	eax, DWORD PTR _map$[ebp]
	movzx	ecx, BYTE PTR [eax+60]
	cmp	ecx, 255				; 000000ffH
	je	SHORT $LN10@R_UpdateLi

; 338  : 		{
; 339  : 			R_BuildDeluxMapForStyle( surf, buf, map );

	mov	eax, DWORD PTR _map$[ebp]
	push	eax
	lea	ecx, DWORD PTR _buf$[ebp]
	push	ecx
	mov	edx, DWORD PTR _surf$[ebp]
	push	edx
	call	?R_BuildDeluxMapForStyle@@YAXPAUmsurface_s@@PAEH@Z ; R_BuildDeluxMapForStyle
	add	esp, 12					; 0000000cH

; 340  : 			pglTexSubImage2D( GL_TEXTURE_2D, 0, esrf->light_s[map], esrf->light_t[map], smax, tmax, GL_RGBA, GL_UNSIGNED_BYTE, buf );

	lea	eax, DWORD PTR _buf$[ebp]
	push	eax
	push	5121					; 00001401H
	push	6408					; 00001908H
	mov	ecx, DWORD PTR _tmax$[ebp]
	push	ecx
	mov	edx, DWORD PTR _smax$[ebp]
	push	edx
	mov	eax, DWORD PTR _map$[ebp]
	mov	ecx, DWORD PTR _esrf$[ebp]
	movzx	edx, WORD PTR [ecx+eax*2+156]
	push	edx
	mov	eax, DWORD PTR _map$[ebp]
	mov	ecx, DWORD PTR _esrf$[ebp]
	movzx	edx, WORD PTR [ecx+eax*2+148]
	push	edx
	push	0
	push	3553					; 00000de1H
	call	DWORD PTR ?pglTexSubImage2D@@3P6GXIHHHHHIIPBX@ZA ; pglTexSubImage2D

; 341  : 		}

	jmp	$LN5@R_UpdateLi
$LN10@R_UpdateLi:

; 342  : 	}
; 343  : 
; 344  : 	ClearBits( surf->flags, SURF_DM_UPDATE );

	mov	eax, DWORD PTR _surf$[ebp]
	mov	ecx, DWORD PTR [eax+8]
	and	ecx, -536870913				; dfffffffH
	mov	edx, DWORD PTR _surf$[ebp]
	mov	DWORD PTR [edx+8], ecx
$LN1@R_UpdateLi:

; 345  : }

	pop	edi
	pop	esi
	pop	ebx
	mov	ecx, DWORD PTR __$ArrayPad$[ebp]
	xor	ecx, ebp
	call	@__security_check_cookie@4
	mov	esp, ebp
	pop	ebp
	ret	0
?R_UpdateLightMap@@YAXPAUmsurface_s@@@Z ENDP		; R_UpdateLightMap
_TEXT	ENDS
; Function compile flags: /Odtp /ZI
; File d:\!diffusion 2020\source code 2022\client-server\client\render\r_lightmap.cpp
;	COMDAT ?R_BuildDeluxMapForStyle@@YAXPAUmsurface_s@@PAEH@Z
_TEXT	SEGMENT
_sample_size$ = -36					; size = 4
_dm$ = -32						; size = 4
_t$ = -28						; size = 4
_s$ = -24						; size = 4
_tmax$ = -20						; size = 4
_smax$ = -16						; size = 4
_size$ = -12						; size = 4
_stride$ = -8						; size = 4
_esrf$ = -4						; size = 4
_surf$ = 8						; size = 4
_dest$ = 12						; size = 4
_style$ = 16						; size = 4
?R_BuildDeluxMapForStyle@@YAXPAUmsurface_s@@PAEH@Z PROC	; R_BuildDeluxMapForStyle, COMDAT

; 249  : {

	push	ebp
	mov	ebp, esp
	sub	esp, 100				; 00000064H
	push	ebx
	push	esi
	push	edi

; 250  : 	mextrasurf_t	*esrf = surf->info;

	mov	eax, DWORD PTR _surf$[ebp]
	mov	ecx, DWORD PTR [eax+80]
	mov	DWORD PTR _esrf$[ebp], ecx

; 251  : 	int		stride, size;
; 252  : 	int		smax, tmax;
; 253  : 	int		s, t;
; 254  : 	color24		*dm;
; 255  : 
; 256  : 	ASSERT( style >= 0 && style < MAXLIGHTMAPS );

	cmp	DWORD PTR _style$[ebp], 0
	jl	SHORT $LN9@R_BuildDel
	cmp	DWORD PTR _style$[ebp], 4
	jl	SHORT $LN8@R_BuildDel
$LN9@R_BuildDel:
	mov	eax, DWORD PTR ?__LINE__Var@?0??R_BuildDeluxMapForStyle@@YAXPAUmsurface_s@@PAEH@Z@4JA
	add	eax, 7
	push	eax
	push	OFFSET ??_C@_0EP@MCLLMMPE@d?3?2?$CBdiffusion?52020?2source?5code?52@
	push	OFFSET ??_C@_0BI@FECCGOFJ@assert?5failed?5at?5?$CFs?3?$CFi?6?$AA@
	call	DWORD PTR ?gRenderfuncs@@3Urender_api_s@@A+236
	add	esp, 12					; 0000000cH
$LN8@R_BuildDel:

; 257  : 
; 258  : 	// always reject the sky faces
; 259  : 	if( FBitSet( surf->flags, SURF_DRAWSKY ))

	mov	eax, DWORD PTR _surf$[ebp]
	mov	ecx, DWORD PTR [eax+8]
	and	ecx, 4
	je	SHORT $LN10@R_BuildDel

; 260  : 		return;

	jmp	$LN1@R_BuildDel
$LN10@R_BuildDel:

; 261  : 
; 262  : 	// no lightdata or style missed
; 263  : 	if( !esrf->deluxemap || surf->styles[style] == LS_NONE )

	mov	eax, DWORD PTR _esrf$[ebp]
	cmp	DWORD PTR [eax+88], 0
	je	SHORT $LN12@R_BuildDel
	mov	eax, DWORD PTR _surf$[ebp]
	add	eax, DWORD PTR _style$[ebp]
	movzx	ecx, BYTE PTR [eax+60]
	cmp	ecx, 255				; 000000ffH
	jne	SHORT $LN11@R_BuildDel
$LN12@R_BuildDel:

; 264  : 		return;

	jmp	$LN1@R_BuildDel
$LN11@R_BuildDel:

; 265  : 
; 266  : 	int sample_size = Mod_SampleSizeForFace( surf );

	mov	eax, DWORD PTR _surf$[ebp]
	push	eax
	call	?Mod_SampleSizeForFace@@YAHPAUmsurface_s@@@Z ; Mod_SampleSizeForFace
	add	esp, 4
	mov	DWORD PTR _sample_size$[ebp], eax

; 267  : 	smax = ( surf->info->lightextents[0] / sample_size ) + 1;

	mov	eax, DWORD PTR _surf$[ebp]
	mov	ecx, DWORD PTR [eax+80]
	mov	edx, 2
	imul	eax, edx, 0
	movsx	eax, WORD PTR [ecx+eax+52]
	cdq
	idiv	DWORD PTR _sample_size$[ebp]
	add	eax, 1
	mov	DWORD PTR _smax$[ebp], eax

; 268  : 	tmax = ( surf->info->lightextents[1] / sample_size ) + 1;

	mov	eax, DWORD PTR _surf$[ebp]
	mov	ecx, DWORD PTR [eax+80]
	mov	edx, 2
	shl	edx, 0
	movsx	eax, WORD PTR [ecx+edx+52]
	cdq
	idiv	DWORD PTR _sample_size$[ebp]
	add	eax, 1
	mov	DWORD PTR _tmax$[ebp], eax

; 269  : 	size = smax * tmax;

	mov	eax, DWORD PTR _smax$[ebp]
	imul	eax, DWORD PTR _tmax$[ebp]
	mov	DWORD PTR _size$[ebp], eax

; 270  : 
; 271  : 	// jump to specified style
; 272  : 	dm = esrf->deluxemap + size * style;

	mov	eax, DWORD PTR _size$[ebp]
	imul	eax, DWORD PTR _style$[ebp]
	imul	ecx, eax, 3
	mov	edx, DWORD PTR _esrf$[ebp]
	add	ecx, DWORD PTR [edx+88]
	mov	DWORD PTR _dm$[ebp], ecx

; 273  : 
; 274  : 	// put into texture format
; 275  : 	stride = (smax * 4) - (smax << 2);

	mov	eax, DWORD PTR _smax$[ebp]
	shl	eax, 2
	mov	ecx, DWORD PTR _smax$[ebp]
	shl	ecx, 2
	sub	eax, ecx
	mov	DWORD PTR _stride$[ebp], eax

; 276  : 
; 277  : 	for( t = 0; t < tmax; t++, dest += stride )

	mov	DWORD PTR _t$[ebp], 0
	jmp	SHORT $LN4@R_BuildDel
$LN2@R_BuildDel:
	mov	eax, DWORD PTR _t$[ebp]
	add	eax, 1
	mov	DWORD PTR _t$[ebp], eax
	mov	ecx, DWORD PTR _dest$[ebp]
	add	ecx, DWORD PTR _stride$[ebp]
	mov	DWORD PTR _dest$[ebp], ecx
$LN4@R_BuildDel:
	mov	eax, DWORD PTR _t$[ebp]
	cmp	eax, DWORD PTR _tmax$[ebp]
	jge	SHORT $LN1@R_BuildDel

; 278  : 	{
; 279  : 		for( s = 0; s < smax; s++ )

	mov	DWORD PTR _s$[ebp], 0
	jmp	SHORT $LN7@R_BuildDel
$LN5@R_BuildDel:
	mov	eax, DWORD PTR _s$[ebp]
	add	eax, 1
	mov	DWORD PTR _s$[ebp], eax
$LN7@R_BuildDel:
	mov	eax, DWORD PTR _s$[ebp]
	cmp	eax, DWORD PTR _smax$[ebp]
	jge	SHORT $LN6@R_BuildDel

; 280  : 		{
; 281  : 			dest[0] = dm->r;

	mov	eax, 1
	imul	ecx, eax, 0
	mov	edx, DWORD PTR _dest$[ebp]
	mov	eax, DWORD PTR _dm$[ebp]
	mov	al, BYTE PTR [eax]
	mov	BYTE PTR [edx+ecx], al

; 282  : 			dest[1] = dm->g;

	mov	eax, 1
	shl	eax, 0
	mov	ecx, DWORD PTR _dest$[ebp]
	mov	edx, DWORD PTR _dm$[ebp]
	mov	dl, BYTE PTR [edx+1]
	mov	BYTE PTR [ecx+eax], dl

; 283  : 			dest[2] = dm->b;

	mov	eax, 1
	shl	eax, 1
	mov	ecx, DWORD PTR _dest$[ebp]
	mov	edx, DWORD PTR _dm$[ebp]
	mov	dl, BYTE PTR [edx+2]
	mov	BYTE PTR [ecx+eax], dl

; 284  : 			dest[3] = 255;	// unused

	mov	eax, 1
	imul	ecx, eax, 3
	mov	edx, DWORD PTR _dest$[ebp]
	mov	BYTE PTR [edx+ecx], 255			; 000000ffH

; 285  : 
; 286  : 			dest += 4;

	mov	eax, DWORD PTR _dest$[ebp]
	add	eax, 4
	mov	DWORD PTR _dest$[ebp], eax

; 287  : 			dm++;

	mov	eax, DWORD PTR _dm$[ebp]
	add	eax, 3
	mov	DWORD PTR _dm$[ebp], eax

; 288  : 		}

	jmp	SHORT $LN5@R_BuildDel
$LN6@R_BuildDel:

; 289  : 	}

	jmp	$LN2@R_BuildDel
$LN1@R_BuildDel:

; 290  : }

	pop	edi
	pop	esi
	pop	ebx
	mov	esp, ebp
	pop	ebp
	ret	0
?R_BuildDeluxMapForStyle@@YAXPAUmsurface_s@@PAEH@Z ENDP	; R_BuildDeluxMapForStyle
_TEXT	ENDS
; Function compile flags: /Odtp /ZI
; File d:\!diffusion 2020\source code 2022\client-server\client\render\r_lightmap.cpp
;	COMDAT ?R_BuildLightMapForStyle@@YAXPAUmsurface_s@@PAEH@Z
_TEXT	SEGMENT
_sample_size$ = -40					; size = 4
_sm$ = -36						; size = 4
_lm$ = -32						; size = 4
_t$ = -28						; size = 4
_s$ = -24						; size = 4
_tmax$ = -20						; size = 4
_smax$ = -16						; size = 4
_size$ = -12						; size = 4
_stride$ = -8						; size = 4
_esrf$ = -4						; size = 4
_surf$ = 8						; size = 4
_dest$ = 12						; size = 4
_style$ = 16						; size = 4
?R_BuildLightMapForStyle@@YAXPAUmsurface_s@@PAEH@Z PROC	; R_BuildLightMapForStyle, COMDAT

; 194  : {

	push	ebp
	mov	ebp, esp
	sub	esp, 104				; 00000068H
	push	ebx
	push	esi
	push	edi

; 195  : 	mextrasurf_t	*esrf = surf->info;

	mov	eax, DWORD PTR _surf$[ebp]
	mov	ecx, DWORD PTR [eax+80]
	mov	DWORD PTR _esrf$[ebp], ecx

; 196  : 	int		stride, size;
; 197  : 	int		smax, tmax;
; 198  : 	int		s, t;
; 199  : 	color24		*lm;
; 200  : 	byte		*sm;
; 201  : 
; 202  : 	ASSERT( style >= 0 && style < MAXLIGHTMAPS );

	cmp	DWORD PTR _style$[ebp], 0
	jl	SHORT $LN9@R_BuildLig
	cmp	DWORD PTR _style$[ebp], 4
	jl	SHORT $LN8@R_BuildLig
$LN9@R_BuildLig:
	mov	eax, DWORD PTR ?__LINE__Var@?0??R_BuildLightMapForStyle@@YAXPAUmsurface_s@@PAEH@Z@4JA
	add	eax, 8
	push	eax
	push	OFFSET ??_C@_0EP@MCLLMMPE@d?3?2?$CBdiffusion?52020?2source?5code?52@
	push	OFFSET ??_C@_0BI@FECCGOFJ@assert?5failed?5at?5?$CFs?3?$CFi?6?$AA@
	call	DWORD PTR ?gRenderfuncs@@3Urender_api_s@@A+236
	add	esp, 12					; 0000000cH
$LN8@R_BuildLig:

; 203  : 
; 204  : 	// always reject the sky faces
; 205  : 	if( FBitSet( surf->flags, SURF_DRAWSKY ))

	mov	eax, DWORD PTR _surf$[ebp]
	mov	ecx, DWORD PTR [eax+8]
	and	ecx, 4
	je	SHORT $LN10@R_BuildLig

; 206  : 		return;

	jmp	$LN1@R_BuildLig
$LN10@R_BuildLig:

; 207  : 
; 208  : 	// no lightdata or style missed
; 209  : 	if( !surf->samples || surf->styles[style] == LS_NONE )

	mov	eax, DWORD PTR _surf$[ebp]
	cmp	DWORD PTR [eax+84], 0
	je	SHORT $LN12@R_BuildLig
	mov	eax, DWORD PTR _surf$[ebp]
	add	eax, DWORD PTR _style$[ebp]
	movzx	ecx, BYTE PTR [eax+60]
	cmp	ecx, 255				; 000000ffH
	jne	SHORT $LN11@R_BuildLig
$LN12@R_BuildLig:

; 210  : 		return;

	jmp	$LN1@R_BuildLig
$LN11@R_BuildLig:

; 211  : 
; 212  : 	int sample_size = Mod_SampleSizeForFace( surf );

	mov	eax, DWORD PTR _surf$[ebp]
	push	eax
	call	?Mod_SampleSizeForFace@@YAHPAUmsurface_s@@@Z ; Mod_SampleSizeForFace
	add	esp, 4
	mov	DWORD PTR _sample_size$[ebp], eax

; 213  : 	smax = ( surf->info->lightextents[0] / sample_size ) + 1;

	mov	eax, DWORD PTR _surf$[ebp]
	mov	ecx, DWORD PTR [eax+80]
	mov	edx, 2
	imul	eax, edx, 0
	movsx	eax, WORD PTR [ecx+eax+52]
	cdq
	idiv	DWORD PTR _sample_size$[ebp]
	add	eax, 1
	mov	DWORD PTR _smax$[ebp], eax

; 214  : 	tmax = ( surf->info->lightextents[1] / sample_size ) + 1;

	mov	eax, DWORD PTR _surf$[ebp]
	mov	ecx, DWORD PTR [eax+80]
	mov	edx, 2
	shl	edx, 0
	movsx	eax, WORD PTR [ecx+edx+52]
	cdq
	idiv	DWORD PTR _sample_size$[ebp]
	add	eax, 1
	mov	DWORD PTR _tmax$[ebp], eax

; 215  : 	size = smax * tmax;

	mov	eax, DWORD PTR _smax$[ebp]
	imul	eax, DWORD PTR _tmax$[ebp]
	mov	DWORD PTR _size$[ebp], eax

; 216  : 
; 217  : 	// jump to specified style
; 218  : 	lm = surf->samples + size * style;

	mov	eax, DWORD PTR _size$[ebp]
	imul	eax, DWORD PTR _style$[ebp]
	imul	ecx, eax, 3
	mov	edx, DWORD PTR _surf$[ebp]
	add	ecx, DWORD PTR [edx+84]
	mov	DWORD PTR _lm$[ebp], ecx

; 219  : 	sm = esrf->shadowmap + size * style;

	mov	eax, DWORD PTR _size$[ebp]
	imul	eax, DWORD PTR _style$[ebp]
	mov	ecx, DWORD PTR _esrf$[ebp]
	add	eax, DWORD PTR [ecx+92]
	mov	DWORD PTR _sm$[ebp], eax

; 220  : 
; 221  : 	// put into texture format
; 222  : 	stride = (smax * 4) - (smax << 2);

	mov	eax, DWORD PTR _smax$[ebp]
	shl	eax, 2
	mov	ecx, DWORD PTR _smax$[ebp]
	shl	ecx, 2
	sub	eax, ecx
	mov	DWORD PTR _stride$[ebp], eax

; 223  : 
; 224  : 	for( t = 0; t < tmax; t++, dest += stride )

	mov	DWORD PTR _t$[ebp], 0
	jmp	SHORT $LN4@R_BuildLig
$LN2@R_BuildLig:
	mov	eax, DWORD PTR _t$[ebp]
	add	eax, 1
	mov	DWORD PTR _t$[ebp], eax
	mov	ecx, DWORD PTR _dest$[ebp]
	add	ecx, DWORD PTR _stride$[ebp]
	mov	DWORD PTR _dest$[ebp], ecx
$LN4@R_BuildLig:
	mov	eax, DWORD PTR _t$[ebp]
	cmp	eax, DWORD PTR _tmax$[ebp]
	jge	$LN1@R_BuildLig

; 225  : 	{
; 226  : 		for( s = 0; s < smax; s++ )

	mov	DWORD PTR _s$[ebp], 0
	jmp	SHORT $LN7@R_BuildLig
$LN5@R_BuildLig:
	mov	eax, DWORD PTR _s$[ebp]
	add	eax, 1
	mov	DWORD PTR _s$[ebp], eax
$LN7@R_BuildLig:
	mov	eax, DWORD PTR _s$[ebp]
	cmp	eax, DWORD PTR _smax$[ebp]
	jge	$LN6@R_BuildLig

; 227  : 		{
; 228  : 			dest[0] = TEXTURE_TO_TEXGAMMA( lm->r );

	mov	eax, DWORD PTR _lm$[ebp]
	movzx	ecx, BYTE PTR [eax]
	push	ecx
	call	DWORD PTR ?gRenderfuncs@@3Urender_api_s@@A+24
	add	esp, 4
	mov	edx, 1
	imul	ecx, edx, 0
	mov	edx, DWORD PTR _dest$[ebp]
	mov	BYTE PTR [edx+ecx], al

; 229  : 			dest[1] = TEXTURE_TO_TEXGAMMA( lm->g );

	mov	eax, DWORD PTR _lm$[ebp]
	movzx	ecx, BYTE PTR [eax+1]
	push	ecx
	call	DWORD PTR ?gRenderfuncs@@3Urender_api_s@@A+24
	add	esp, 4
	mov	edx, 1
	shl	edx, 0
	mov	ecx, DWORD PTR _dest$[ebp]
	mov	BYTE PTR [ecx+edx], al

; 230  : 			dest[2] = TEXTURE_TO_TEXGAMMA( lm->b );

	mov	eax, DWORD PTR _lm$[ebp]
	movzx	ecx, BYTE PTR [eax+2]
	push	ecx
	call	DWORD PTR ?gRenderfuncs@@3Urender_api_s@@A+24
	add	esp, 4
	mov	edx, 1
	shl	edx, 1
	mov	ecx, DWORD PTR _dest$[ebp]
	mov	BYTE PTR [ecx+edx], al

; 231  : 			if( esrf->shadowmap != NULL )

	mov	eax, DWORD PTR _esrf$[ebp]
	cmp	DWORD PTR [eax+92], 0
	je	SHORT $LN13@R_BuildLig

; 232  : 				dest[3] = *sm++;

	mov	eax, 1
	imul	ecx, eax, 3
	mov	edx, DWORD PTR _dest$[ebp]
	mov	eax, DWORD PTR _sm$[ebp]
	mov	al, BYTE PTR [eax]
	mov	BYTE PTR [edx+ecx], al
	mov	ecx, DWORD PTR _sm$[ebp]
	add	ecx, 1
	mov	DWORD PTR _sm$[ebp], ecx
	jmp	SHORT $LN14@R_BuildLig
$LN13@R_BuildLig:

; 233  : 			else dest[3] = 255;

	mov	eax, 1
	imul	ecx, eax, 3
	mov	edx, DWORD PTR _dest$[ebp]
	mov	BYTE PTR [edx+ecx], 255			; 000000ffH
$LN14@R_BuildLig:

; 234  : 
; 235  : 			dest += 4;

	mov	eax, DWORD PTR _dest$[ebp]
	add	eax, 4
	mov	DWORD PTR _dest$[ebp], eax

; 236  : 			lm++;

	mov	eax, DWORD PTR _lm$[ebp]
	add	eax, 3
	mov	DWORD PTR _lm$[ebp], eax

; 237  : 		}

	jmp	$LN5@R_BuildLig
$LN6@R_BuildLig:

; 238  : 	}

	jmp	$LN2@R_BuildLig
$LN1@R_BuildLig:

; 239  : }

	pop	edi
	pop	esi
	pop	ebx
	mov	esp, ebp
	pop	ebp
	ret	0
?R_BuildLightMapForStyle@@YAXPAUmsurface_s@@PAEH@Z ENDP	; R_BuildLightMapForStyle
_TEXT	ENDS
; Function compile flags: /Odtp /ZI
; File d:\!diffusion 2020\source code 2022\client-server\client\render\r_lightmap.cpp
;	COMDAT ?LM_GoToNextPage@@YAXXZ
_TEXT	SEGMENT
_lms$ = -4						; size = 4
?LM_GoToNextPage@@YAXXZ PROC				; LM_GoToNextPage, COMDAT

; 103  : {

	push	ebp
	mov	ebp, esp
	sub	esp, 68					; 00000044H
	push	ebx
	push	esi
	push	edi

; 104  : 	gl_lightmap_t *lms = &tr.lightmaps[tr.current_lightmap_texture];

	movzx	eax, BYTE PTR ?tr@@3Uref_globals_t@@A+4732144
	imul	ecx, eax, 8204
	add	ecx, OFFSET ?tr@@3Uref_globals_t@@A+531696
	mov	DWORD PTR _lms$[ebp], ecx

; 105  : 
; 106  : 	if( lms->state != LM_DONE ) return; // current atlas not completed

	mov	eax, DWORD PTR _lms$[ebp]
	cmp	DWORD PTR [eax], 2
	je	SHORT $LN2@LM_GoToNex
	jmp	SHORT $LN1@LM_GoToNex
$LN2@LM_GoToNex:

; 107  : 
; 108  : 	if( ++tr.current_lightmap_texture == MAX_LIGHTMAPS )

	mov	al, BYTE PTR ?tr@@3Uref_globals_t@@A+4732144
	add	al, 1
	mov	BYTE PTR ?tr@@3Uref_globals_t@@A+4732144, al
	movzx	ecx, BYTE PTR ?tr@@3Uref_globals_t@@A+4732144
	cmp	ecx, 512				; 00000200H
	jne	SHORT $LN1@LM_GoToNex

; 109  : 		HOST_ERROR( "MAX_LIGHTMAPS limit exceded\n" );

	push	OFFSET ??_C@_0BN@BIPPPBEJ@MAX_LIGHTMAPS?5limit?5exceded?6?$AA@
	call	DWORD PTR ?gRenderfuncs@@3Urender_api_s@@A+236
	add	esp, 4
$LN1@LM_GoToNex:

; 110  : }

	pop	edi
	pop	esi
	pop	ebx
	mov	esp, ebp
	pop	ebp
	ret	0
?LM_GoToNextPage@@YAXXZ ENDP				; LM_GoToNextPage
_TEXT	ENDS
; Function compile flags: /Odtp /ZI
; File d:\!diffusion 2020\source code 2022\client-server\client\render\r_lightmap.cpp
;	COMDAT ?LM_UploadPages@@YAX_N0@Z
_TEXT	SEGMENT
_lms$1 = -28						; size = 4
_i$ = -24						; size = 4
_lmName$ = -20						; size = 16
__$ArrayPad$ = -4					; size = 4
_lightmap$ = 8						; size = 1
_deluxmap$ = 12						; size = 1
?LM_UploadPages@@YAX_N0@Z PROC				; LM_UploadPages, COMDAT

; 80   : {

	push	ebp
	mov	ebp, esp
	sub	esp, 92					; 0000005cH
	mov	eax, DWORD PTR ___security_cookie
	xor	eax, ebp
	mov	DWORD PTR __$ArrayPad$[ebp], eax
	push	ebx
	push	esi
	push	edi

; 81   : 	char	lmName[16];
; 82   : 	int	i;
; 83   : 
; 84   : 	for( i = 0; i < MAX_LIGHTMAPS && tr.lightmaps[i].state != LM_FREE; i++ )

	mov	DWORD PTR _i$[ebp], 0
	jmp	SHORT $LN4@LM_UploadP
$LN2@LM_UploadP:
	mov	eax, DWORD PTR _i$[ebp]
	add	eax, 1
	mov	DWORD PTR _i$[ebp], eax
$LN4@LM_UploadP:
	cmp	DWORD PTR _i$[ebp], 512			; 00000200H
	jge	$LN1@LM_UploadP
	imul	eax, DWORD PTR _i$[ebp], 8204
	cmp	DWORD PTR ?tr@@3Uref_globals_t@@A[eax+531696], 0
	je	$LN1@LM_UploadP

; 85   : 	{
; 86   : 		gl_lightmap_t	*lms = &tr.lightmaps[i];

	imul	eax, DWORD PTR _i$[ebp], 8204
	add	eax, OFFSET ?tr@@3Uref_globals_t@@A+531696
	mov	DWORD PTR _lms$1[ebp], eax

; 87   : 
; 88   : 		if( lightmap && !lms->lightmap )

	movzx	eax, BYTE PTR _lightmap$[ebp]
	test	eax, eax
	je	SHORT $LN5@LM_UploadP
	mov	eax, DWORD PTR _lms$1[ebp]
	cmp	DWORD PTR [eax+8196], 0
	jne	SHORT $LN5@LM_UploadP

; 89   : 		{
; 90   : 			Q_snprintf( lmName, sizeof( lmName ), "*diffuse%i", i );

	mov	eax, DWORD PTR _i$[ebp]
	push	eax
	push	OFFSET ??_C@_0L@EFLJIPOP@?$CKdiffuse?$CFi?$AA@
	push	16					; 00000010H
	lea	ecx, DWORD PTR _lmName$[ebp]
	push	ecx
	call	?Q_snprintf@@YAHPADIPBDZZ		; Q_snprintf
	add	esp, 16					; 00000010H

; 91   : 			lms->lightmap = CREATE_TEXTURE( lmName, BLOCK_SIZE, BLOCK_SIZE, NULL, TF_LIGHTMAP ); 

	push	2166784					; 00211000H
	push	0
	push	4096					; 00001000H
	push	4096					; 00001000H
	lea	eax, DWORD PTR _lmName$[ebp]
	push	eax
	call	DWORD PTR ?gRenderfuncs@@3Urender_api_s@@A+64
	add	esp, 20					; 00000014H
	mov	ecx, DWORD PTR _lms$1[ebp]
	mov	DWORD PTR [ecx+8196], eax
$LN5@LM_UploadP:

; 92   : 		}
; 93   : 
; 94   : 		if( deluxmap && !lms->deluxmap )

	movzx	eax, BYTE PTR _deluxmap$[ebp]
	test	eax, eax
	je	SHORT $LN6@LM_UploadP
	mov	eax, DWORD PTR _lms$1[ebp]
	cmp	DWORD PTR [eax+8200], 0
	jne	SHORT $LN6@LM_UploadP

; 95   : 		{
; 96   : 			Q_snprintf( lmName, sizeof( lmName ), "*normals%i", i );

	mov	eax, DWORD PTR _i$[ebp]
	push	eax
	push	OFFSET ??_C@_0L@NEPCEFBK@?$CKnormals?$CFi?$AA@
	push	16					; 00000010H
	lea	ecx, DWORD PTR _lmName$[ebp]
	push	ecx
	call	?Q_snprintf@@YAHPADIPBDZZ		; Q_snprintf
	add	esp, 16					; 00000010H

; 97   : 			lms->deluxmap = CREATE_TEXTURE( lmName, BLOCK_SIZE, BLOCK_SIZE, NULL, TF_DELUXMAP );

	push	2134016					; 00209000H
	push	0
	push	4096					; 00001000H
	push	4096					; 00001000H
	lea	eax, DWORD PTR _lmName$[ebp]
	push	eax
	call	DWORD PTR ?gRenderfuncs@@3Urender_api_s@@A+64
	add	esp, 20					; 00000014H
	mov	ecx, DWORD PTR _lms$1[ebp]
	mov	DWORD PTR [ecx+8200], eax
$LN6@LM_UploadP:

; 98   : 		}
; 99   : 	}

	jmp	$LN2@LM_UploadP
$LN1@LM_UploadP:

; 100  : }

	pop	edi
	pop	esi
	pop	ebx
	mov	ecx, DWORD PTR __$ArrayPad$[ebp]
	xor	ecx, ebp
	call	@__security_check_cookie@4
	mov	esp, ebp
	pop	ebp
	ret	0
?LM_UploadPages@@YAX_N0@Z ENDP				; LM_UploadPages
_TEXT	ENDS
; Function compile flags: /Odtp /ZI
; File d:\!diffusion 2020\source code 2022\client-server\client\render\r_lightmap.cpp
;	COMDAT ?LM_AllocBlock@@YAHGGPAG0@Z
_TEXT	SEGMENT
_best2$ = -20						; size = 2
_best$ = -16						; size = 2
_j$ = -12						; size = 2
_i$ = -8						; size = 2
_lms$ = -4						; size = 4
_w$ = 8							; size = 2
_h$ = 12						; size = 2
_x$ = 16						; size = 4
_y$ = 20						; size = 4
?LM_AllocBlock@@YAHGGPAG0@Z PROC			; LM_AllocBlock, COMDAT

; 39   : {

	push	ebp
	mov	ebp, esp
	sub	esp, 84					; 00000054H
	push	ebx
	push	esi
	push	edi

; 40   : 	gl_lightmap_t	*lms = &tr.lightmaps[tr.current_lightmap_texture];

	movzx	eax, BYTE PTR ?tr@@3Uref_globals_t@@A+4732144
	imul	ecx, eax, 8204
	add	ecx, OFFSET ?tr@@3Uref_globals_t@@A+531696
	mov	DWORD PTR _lms$[ebp], ecx

; 41   : 	unsigned short	i, j, best, best2;
; 42   : 
; 43   : 	best = BLOCK_SIZE;

	mov	eax, 4096				; 00001000H
	mov	WORD PTR _best$[ebp], ax

; 44   : 
; 45   : 	for( i = 0; i < BLOCK_SIZE - w; i++ )

	xor	eax, eax
	mov	WORD PTR _i$[ebp], ax
	jmp	SHORT $LN4@LM_AllocBl
$LN2@LM_AllocBl:
	mov	ax, WORD PTR _i$[ebp]
	add	ax, 1
	mov	WORD PTR _i$[ebp], ax
$LN4@LM_AllocBl:
	movzx	eax, WORD PTR _i$[ebp]
	movzx	ecx, WORD PTR _w$[ebp]
	mov	edx, 4096				; 00001000H
	sub	edx, ecx
	cmp	eax, edx
	jge	$LN3@LM_AllocBl

; 46   : 	{
; 47   : 		best2 = 0;

	xor	eax, eax
	mov	WORD PTR _best2$[ebp], ax

; 48   : 
; 49   : 		for( j = 0; j < w; j++ )

	xor	eax, eax
	mov	WORD PTR _j$[ebp], ax
	jmp	SHORT $LN7@LM_AllocBl
$LN5@LM_AllocBl:
	mov	ax, WORD PTR _j$[ebp]
	add	ax, 1
	mov	WORD PTR _j$[ebp], ax
$LN7@LM_AllocBl:
	movzx	eax, WORD PTR _j$[ebp]
	movzx	ecx, WORD PTR _w$[ebp]
	cmp	eax, ecx
	jge	SHORT $LN6@LM_AllocBl

; 50   : 		{
; 51   : 			if( lms->allocated[i+j] >= best )

	movzx	eax, WORD PTR _i$[ebp]
	movzx	ecx, WORD PTR _j$[ebp]
	add	eax, ecx
	mov	edx, DWORD PTR _lms$[ebp]
	movzx	eax, WORD PTR [edx+eax*2+4]
	movzx	ecx, WORD PTR _best$[ebp]
	cmp	eax, ecx
	jl	SHORT $LN11@LM_AllocBl

; 52   : 				break;

	jmp	SHORT $LN6@LM_AllocBl
$LN11@LM_AllocBl:

; 53   : 			if( lms->allocated[i+j] > best2 )

	movzx	eax, WORD PTR _i$[ebp]
	movzx	ecx, WORD PTR _j$[ebp]
	add	eax, ecx
	mov	edx, DWORD PTR _lms$[ebp]
	movzx	eax, WORD PTR [edx+eax*2+4]
	movzx	ecx, WORD PTR _best2$[ebp]
	cmp	eax, ecx
	jle	SHORT $LN12@LM_AllocBl

; 54   : 				best2 = lms->allocated[i+j];

	movzx	eax, WORD PTR _i$[ebp]
	movzx	ecx, WORD PTR _j$[ebp]
	add	eax, ecx
	mov	edx, DWORD PTR _lms$[ebp]
	mov	ax, WORD PTR [edx+eax*2+4]
	mov	WORD PTR _best2$[ebp], ax
$LN12@LM_AllocBl:

; 55   : 		}

	jmp	SHORT $LN5@LM_AllocBl
$LN6@LM_AllocBl:

; 56   : 
; 57   : 		if( j == w )

	movzx	eax, WORD PTR _j$[ebp]
	movzx	ecx, WORD PTR _w$[ebp]
	cmp	eax, ecx
	jne	SHORT $LN13@LM_AllocBl

; 58   : 		{	
; 59   : 			// this is a valid spot
; 60   : 			*x = i;

	mov	eax, DWORD PTR _x$[ebp]
	mov	cx, WORD PTR _i$[ebp]
	mov	WORD PTR [eax], cx

; 61   : 			*y = best = best2;

	mov	ax, WORD PTR _best2$[ebp]
	mov	WORD PTR _best$[ebp], ax
	mov	ecx, DWORD PTR _y$[ebp]
	mov	dx, WORD PTR _best$[ebp]
	mov	WORD PTR [ecx], dx
$LN13@LM_AllocBl:

; 62   : 		}
; 63   : 	}

	jmp	$LN2@LM_AllocBl
$LN3@LM_AllocBl:

; 64   : 
; 65   : 	if( best + h > BLOCK_SIZE )

	movzx	eax, WORD PTR _best$[ebp]
	movzx	ecx, WORD PTR _h$[ebp]
	add	eax, ecx
	cmp	eax, 4096				; 00001000H
	jle	SHORT $LN14@LM_AllocBl

; 66   : 	{
; 67   : 		// current lightmap is full
; 68   : 		lms->state = LM_DONE;

	mov	eax, DWORD PTR _lms$[ebp]
	mov	DWORD PTR [eax], 2

; 69   : 		return false;

	xor	eax, eax
	jmp	SHORT $LN1@LM_AllocBl
$LN14@LM_AllocBl:

; 70   :           }
; 71   : 
; 72   : 	for( i = 0; i < w; i++ )

	xor	eax, eax
	mov	WORD PTR _i$[ebp], ax
	jmp	SHORT $LN10@LM_AllocBl
$LN8@LM_AllocBl:
	mov	ax, WORD PTR _i$[ebp]
	add	ax, 1
	mov	WORD PTR _i$[ebp], ax
$LN10@LM_AllocBl:
	movzx	eax, WORD PTR _i$[ebp]
	movzx	ecx, WORD PTR _w$[ebp]
	cmp	eax, ecx
	jge	SHORT $LN9@LM_AllocBl

; 73   : 		lms->allocated[*x + i] = best + h;

	movzx	eax, WORD PTR _best$[ebp]
	movzx	ecx, WORD PTR _h$[ebp]
	add	eax, ecx
	mov	edx, DWORD PTR _x$[ebp]
	movzx	ecx, WORD PTR [edx]
	movzx	edx, WORD PTR _i$[ebp]
	add	ecx, edx
	mov	edx, DWORD PTR _lms$[ebp]
	mov	WORD PTR [edx+ecx*2+4], ax
	jmp	SHORT $LN8@LM_AllocBl
$LN9@LM_AllocBl:

; 74   : 	lms->state = LM_USED; // lightmap in use

	mov	eax, DWORD PTR _lms$[ebp]
	mov	DWORD PTR [eax], 1

; 75   : 
; 76   : 	return true;

	mov	eax, 1
$LN1@LM_AllocBl:

; 77   : }

	pop	edi
	pop	esi
	pop	ebx
	mov	esp, ebp
	pop	ebp
	ret	0
?LM_AllocBlock@@YAHGGPAG0@Z ENDP			; LM_AllocBlock
_TEXT	ENDS
; Function compile flags: /Odtp /ZI
; File d:\!diffusion 2020\source code 2022\client-server\client\render\r_lightmap.cpp
;	COMDAT ?LM_InitBlock@@YAXXZ
_TEXT	SEGMENT
_lms$ = -4						; size = 4
?LM_InitBlock@@YAXXZ PROC				; LM_InitBlock, COMDAT

; 33   : {

	push	ebp
	mov	ebp, esp
	sub	esp, 68					; 00000044H
	push	ebx
	push	esi
	push	edi

; 34   : 	gl_lightmap_t *lms = &tr.lightmaps[tr.current_lightmap_texture];

	movzx	eax, BYTE PTR ?tr@@3Uref_globals_t@@A+4732144
	imul	ecx, eax, 8204
	add	ecx, OFFSET ?tr@@3Uref_globals_t@@A+531696
	mov	DWORD PTR _lms$[ebp], ecx

; 35   : 	memset( lms->allocated, 0, sizeof( lms->allocated ));

	push	8192					; 00002000H
	push	0
	mov	eax, DWORD PTR _lms$[ebp]
	add	eax, 4
	push	eax
	call	_memset
	add	esp, 12					; 0000000cH

; 36   : }

	pop	edi
	pop	esi
	pop	ebx
	mov	esp, ebp
	pop	ebp
	ret	0
?LM_InitBlock@@YAXXZ ENDP				; LM_InitBlock
_TEXT	ENDS
; Function compile flags: /Odtp /ZI
; File d:\!diffusion 2020\source code 2022\client-server\client\render\r_lightmap.cpp
;	COMDAT ?R_LightmapCoords@@YAXPAUmsurface_s@@ABVVector@@PAMH@Z
_TEXT	SEGMENT
tv228 = -112						; size = 4
tv207 = -112						; size = 4
$T1 = -108						; size = 12
$T2 = -96						; size = 12
_i$3 = -20						; size = 4
_t$ = -16						; size = 4
_s$ = -12						; size = 4
_esrf$ = -8						; size = 4
_sample_size$ = -4					; size = 4
_surf$ = 8						; size = 4
_vec$ = 12						; size = 4
_coords$ = 16						; size = 4
_style$ = 20						; size = 4
?R_LightmapCoords@@YAXPAUmsurface_s@@ABVVector@@PAMH@Z PROC ; R_LightmapCoords, COMDAT

; 424  : {

	push	ebp
	mov	ebp, esp
	sub	esp, 112				; 00000070H
	push	ebx
	push	esi
	push	edi

; 425  : 	float		sample_size = Mod_SampleSizeForFace( surf );

	mov	eax, DWORD PTR _surf$[ebp]
	push	eax
	call	?Mod_SampleSizeForFace@@YAHPAUmsurface_s@@@Z ; Mod_SampleSizeForFace
	add	esp, 4
	cvtsi2ss xmm0, eax
	movss	DWORD PTR _sample_size$[ebp], xmm0

; 426  : 	mextrasurf_t	*esrf = surf->info;

	mov	eax, DWORD PTR _surf$[ebp]
	mov	ecx, DWORD PTR [eax+80]
	mov	DWORD PTR _esrf$[ebp], ecx

; 427  : 	float		s, t;
; 428  : 
; 429  : 	for( int i = 0; i < 2; i++ )

	mov	DWORD PTR _i$3[ebp], 0
	jmp	SHORT $LN4@R_Lightmap
$LN2@R_Lightmap:
	mov	eax, DWORD PTR _i$3[ebp]
	add	eax, 1
	mov	DWORD PTR _i$3[ebp], eax
$LN4@R_Lightmap:
	cmp	DWORD PTR _i$3[ebp], 2
	jge	$LN3@R_Lightmap

; 430  : 	{
; 431  : 		if( surf->styles[style+i] == LS_NONE )

	mov	eax, DWORD PTR _style$[ebp]
	add	eax, DWORD PTR _i$3[ebp]
	mov	ecx, DWORD PTR _surf$[ebp]
	movzx	edx, BYTE PTR [ecx+eax+60]
	cmp	edx, 255				; 000000ffH
	jne	SHORT $LN5@R_Lightmap

; 432  : 			return; // end of styles

	jmp	$LN1@R_Lightmap
$LN5@R_Lightmap:

; 433  : 
; 434  : 		s = DotProduct( vec, surf->info->lmvecs[0] ) + surf->info->lmvecs[0][3];

	mov	eax, DWORD PTR _surf$[ebp]
	mov	ecx, DWORD PTR [eax+80]
	mov	edx, 16					; 00000010H
	imul	eax, edx, 0
	lea	ecx, DWORD PTR [ecx+eax+56]
	push	ecx
	lea	ecx, DWORD PTR $T2[ebp]
	call	??0Vector@@QAE@QAM@Z			; Vector::Vector
	lea	edx, DWORD PTR $T2[ebp]
	push	edx
	mov	eax, DWORD PTR _vec$[ebp]
	push	eax
	call	?DotProduct@@YAMABVVector@@0@Z		; DotProduct
	add	esp, 8
	fstp	DWORD PTR tv207[ebp]
	movss	xmm0, DWORD PTR tv207[ebp]
	mov	ecx, DWORD PTR _surf$[ebp]
	mov	edx, DWORD PTR [ecx+80]
	mov	eax, 16					; 00000010H
	imul	ecx, eax, 0
	lea	edx, DWORD PTR [edx+ecx+56]
	mov	eax, 4
	imul	ecx, eax, 3
	addss	xmm0, DWORD PTR [edx+ecx]
	movss	DWORD PTR _s$[ebp], xmm0

; 435  : 		s -= surf->info->lightmapmins[0];

	mov	eax, DWORD PTR _surf$[ebp]
	mov	ecx, DWORD PTR [eax+80]
	mov	edx, 2
	imul	eax, edx, 0
	movsx	ecx, WORD PTR [ecx+eax+48]
	cvtsi2ss xmm0, ecx
	movss	xmm1, DWORD PTR _s$[ebp]
	subss	xmm1, xmm0
	movss	DWORD PTR _s$[ebp], xmm1

; 436  : 		s += esrf->light_s[style+i] * sample_size;

	mov	eax, DWORD PTR _style$[ebp]
	add	eax, DWORD PTR _i$3[ebp]
	mov	ecx, DWORD PTR _esrf$[ebp]
	movzx	edx, WORD PTR [ecx+eax*2+148]
	cvtsi2ss xmm0, edx
	mulss	xmm0, DWORD PTR _sample_size$[ebp]
	addss	xmm0, DWORD PTR _s$[ebp]
	movss	DWORD PTR _s$[ebp], xmm0

; 437  : 		s += sample_size * 0.5f;

	movss	xmm0, DWORD PTR _sample_size$[ebp]
	mulss	xmm0, DWORD PTR __real@3f000000
	addss	xmm0, DWORD PTR _s$[ebp]
	movss	DWORD PTR _s$[ebp], xmm0

; 438  : 		s /= BLOCK_SIZE * sample_size;

	movss	xmm0, DWORD PTR __real@45800000
	mulss	xmm0, DWORD PTR _sample_size$[ebp]
	movss	xmm1, DWORD PTR _s$[ebp]
	divss	xmm1, xmm0
	movss	DWORD PTR _s$[ebp], xmm1

; 439  : 
; 440  : 		t = DotProduct( vec, surf->info->lmvecs[1] ) + surf->info->lmvecs[1][3];

	mov	eax, DWORD PTR _surf$[ebp]
	mov	ecx, DWORD PTR [eax+80]
	mov	edx, 16					; 00000010H
	shl	edx, 0
	lea	eax, DWORD PTR [ecx+edx+56]
	push	eax
	lea	ecx, DWORD PTR $T1[ebp]
	call	??0Vector@@QAE@QAM@Z			; Vector::Vector
	lea	ecx, DWORD PTR $T1[ebp]
	push	ecx
	mov	edx, DWORD PTR _vec$[ebp]
	push	edx
	call	?DotProduct@@YAMABVVector@@0@Z		; DotProduct
	add	esp, 8
	fstp	DWORD PTR tv228[ebp]
	movss	xmm0, DWORD PTR tv228[ebp]
	mov	eax, DWORD PTR _surf$[ebp]
	mov	ecx, DWORD PTR [eax+80]
	mov	edx, 16					; 00000010H
	shl	edx, 0
	lea	eax, DWORD PTR [ecx+edx+56]
	mov	ecx, 4
	imul	edx, ecx, 3
	addss	xmm0, DWORD PTR [eax+edx]
	movss	DWORD PTR _t$[ebp], xmm0

; 441  : 		t -= surf->info->lightmapmins[1];

	mov	eax, DWORD PTR _surf$[ebp]
	mov	ecx, DWORD PTR [eax+80]
	mov	edx, 2
	shl	edx, 0
	movsx	eax, WORD PTR [ecx+edx+48]
	cvtsi2ss xmm0, eax
	movss	xmm1, DWORD PTR _t$[ebp]
	subss	xmm1, xmm0
	movss	DWORD PTR _t$[ebp], xmm1

; 442  : 		t += esrf->light_t[style+i] * sample_size;

	mov	eax, DWORD PTR _style$[ebp]
	add	eax, DWORD PTR _i$3[ebp]
	mov	ecx, DWORD PTR _esrf$[ebp]
	movzx	edx, WORD PTR [ecx+eax*2+156]
	cvtsi2ss xmm0, edx
	mulss	xmm0, DWORD PTR _sample_size$[ebp]
	addss	xmm0, DWORD PTR _t$[ebp]
	movss	DWORD PTR _t$[ebp], xmm0

; 443  : 		t += sample_size * 0.5f;

	movss	xmm0, DWORD PTR _sample_size$[ebp]
	mulss	xmm0, DWORD PTR __real@3f000000
	addss	xmm0, DWORD PTR _t$[ebp]
	movss	DWORD PTR _t$[ebp], xmm0

; 444  : 		t /= BLOCK_SIZE * sample_size;

	movss	xmm0, DWORD PTR __real@45800000
	mulss	xmm0, DWORD PTR _sample_size$[ebp]
	movss	xmm1, DWORD PTR _t$[ebp]
	divss	xmm1, xmm0
	movss	DWORD PTR _t$[ebp], xmm1

; 445  : 
; 446  : 		coords[i*2+0] = s;

	mov	eax, DWORD PTR _i$3[ebp]
	shl	eax, 1
	mov	ecx, DWORD PTR _coords$[ebp]
	movss	xmm0, DWORD PTR _s$[ebp]
	movss	DWORD PTR [ecx+eax*4], xmm0

; 447  : 		coords[i*2+1] = t;

	mov	eax, DWORD PTR _i$3[ebp]
	shl	eax, 1
	mov	ecx, DWORD PTR _coords$[ebp]
	movss	xmm0, DWORD PTR _t$[ebp]
	movss	DWORD PTR [ecx+eax*4+4], xmm0

; 448  : 	}

	jmp	$LN2@R_Lightmap
$LN3@R_Lightmap:
$LN1@R_Lightmap:

; 449  : }

	pop	edi
	pop	esi
	pop	ebx
	mov	esp, ebp
	pop	ebp
	ret	0
?R_LightmapCoords@@YAXPAUmsurface_s@@ABVVector@@PAMH@Z ENDP ; R_LightmapCoords
_TEXT	ENDS
; Function compile flags: /Odtp /ZI
; File d:\!diffusion 2020\source code 2022\client-server\client\render\r_lightmap.cpp
;	COMDAT ?R_GlobalCoords@@YAXPAUmsurface_s@@ABVVector@@11MPAM@Z
_TEXT	SEGMENT
tv176 = -84						; size = 4
tv174 = -84						; size = 4
tv172 = -84						; size = 4
_i$1 = -16						; size = 4
_size$ = -12						; size = 12
_surf$ = 8						; size = 4
_point$ = 12						; size = 4
_absmin$ = 16						; size = 4
_absmax$ = 20						; size = 4
_scale$ = 24						; size = 4
_out$ = 28						; size = 4
?R_GlobalCoords@@YAXPAUmsurface_s@@ABVVector@@11MPAM@Z PROC ; R_GlobalCoords, COMDAT

; 406  : {

	push	ebp
	mov	ebp, esp
	sub	esp, 84					; 00000054H
	push	ebx
	push	esi
	push	edi

; 407  : 	Vector	size;

	lea	ecx, DWORD PTR _size$[ebp]
	call	??0Vector@@QAE@XZ			; Vector::Vector

; 408  : 
; 409  : 	for( int i = 0; i < 3; i++ )

	mov	DWORD PTR _i$1[ebp], 0
	jmp	SHORT $LN4@R_GlobalCo
$LN2@R_GlobalCo:
	mov	eax, DWORD PTR _i$1[ebp]
	add	eax, 1
	mov	DWORD PTR _i$1[ebp], eax
$LN4@R_GlobalCo:
	cmp	DWORD PTR _i$1[ebp], 3
	jge	SHORT $LN3@R_GlobalCo

; 410  : 		size[i] = absmax[i] - absmin[i];

	mov	ecx, DWORD PTR _absmax$[ebp]
	call	??BVector@@QBEPBMXZ			; Vector::operator float const *
	mov	esi, eax
	mov	ecx, DWORD PTR _absmin$[ebp]
	call	??BVector@@QBEPBMXZ			; Vector::operator float const *
	mov	ecx, DWORD PTR _i$1[ebp]
	mov	edx, DWORD PTR _i$1[ebp]
	movss	xmm0, DWORD PTR [esi+ecx*4]
	subss	xmm0, DWORD PTR [eax+edx*4]
	lea	ecx, DWORD PTR _size$[ebp]
	movss	DWORD PTR tv172[ebp], xmm0
	call	??BVector@@QAEPAMXZ			; Vector::operator float *
	mov	ecx, DWORD PTR _i$1[ebp]
	movss	xmm0, DWORD PTR tv172[ebp]
	movss	DWORD PTR [eax+ecx*4], xmm0
	jmp	SHORT $LN2@R_GlobalCo
$LN3@R_GlobalCo:

; 411  : 
; 412  : 	out[2] = ((point[0] - absmin[0]) / size[0]) * scale;

	mov	ecx, DWORD PTR _point$[ebp]
	call	??BVector@@QBEPBMXZ			; Vector::operator float const *
	mov	esi, eax
	mov	eax, 4
	imul	edi, eax, 0
	mov	ecx, DWORD PTR _absmin$[ebp]
	call	??BVector@@QBEPBMXZ			; Vector::operator float const *
	mov	ecx, 4
	imul	edx, ecx, 0
	movss	xmm0, DWORD PTR [esi+edi]
	subss	xmm0, DWORD PTR [eax+edx]
	lea	ecx, DWORD PTR _size$[ebp]
	movss	DWORD PTR tv174[ebp], xmm0
	call	??BVector@@QAEPAMXZ			; Vector::operator float *
	mov	ecx, 4
	imul	edx, ecx, 0
	movss	xmm0, DWORD PTR tv174[ebp]
	divss	xmm0, DWORD PTR [eax+edx]
	mulss	xmm0, DWORD PTR _scale$[ebp]
	mov	eax, 4
	shl	eax, 1
	mov	ecx, DWORD PTR _out$[ebp]
	movss	DWORD PTR [ecx+eax], xmm0

; 413  : 	out[3] = ((absmax[1] - point[1]) / size[1]) * scale;

	mov	ecx, DWORD PTR _absmax$[ebp]
	call	??BVector@@QBEPBMXZ			; Vector::operator float const *
	mov	esi, eax
	mov	edi, 4
	shl	edi, 0
	mov	ecx, DWORD PTR _point$[ebp]
	call	??BVector@@QBEPBMXZ			; Vector::operator float const *
	mov	ecx, 4
	shl	ecx, 0
	movss	xmm0, DWORD PTR [esi+edi]
	subss	xmm0, DWORD PTR [eax+ecx]
	lea	ecx, DWORD PTR _size$[ebp]
	movss	DWORD PTR tv176[ebp], xmm0
	call	??BVector@@QAEPAMXZ			; Vector::operator float *
	mov	edx, 4
	shl	edx, 0
	movss	xmm0, DWORD PTR tv176[ebp]
	divss	xmm0, DWORD PTR [eax+edx]
	mulss	xmm0, DWORD PTR _scale$[ebp]
	mov	eax, 4
	imul	ecx, eax, 3
	mov	edx, DWORD PTR _out$[ebp]
	movss	DWORD PTR [edx+ecx], xmm0

; 414  : }

	pop	edi
	pop	esi
	pop	ebx
	mov	esp, ebp
	pop	ebp
	ret	0
?R_GlobalCoords@@YAXPAUmsurface_s@@ABVVector@@11MPAM@Z ENDP ; R_GlobalCoords
_TEXT	ENDS
; Function compile flags: /Odtp /ZI
; File d:\!diffusion 2020\source code 2022\client-server\client\render\r_lightmap.cpp
;	COMDAT ?R_GlobalCoords@@YAXPAUmsurface_s@@ABVVector@@PAM@Z
_TEXT	SEGMENT
tv192 = -88						; size = 4
tv190 = -88						; size = 4
tv188 = -88						; size = 4
_i$1 = -20						; size = 4
_size$ = -16						; size = 12
_land$ = -4						; size = 4
_surf$ = 8						; size = 4
_point$ = 12						; size = 4
_out$ = 16						; size = 4
?R_GlobalCoords@@YAXPAUmsurface_s@@ABVVector@@PAM@Z PROC ; R_GlobalCoords, COMDAT

; 384  : {

	push	ebp
	mov	ebp, esp
	sub	esp, 88					; 00000058H
	push	ebx
	push	esi
	push	edi

; 385  : 	mfaceinfo_t	*land = surf->texinfo->faceinfo;

	mov	eax, DWORD PTR _surf$[ebp]
	mov	ecx, DWORD PTR [eax+44]
	mov	edx, DWORD PTR [ecx+32]
	mov	DWORD PTR _land$[ebp], edx

; 386  : 	Vector		size;

	lea	ecx, DWORD PTR _size$[ebp]
	call	??0Vector@@QAE@XZ			; Vector::Vector

; 387  : 
; 388  : 	if( !land || land->groupid == -1 )

	cmp	DWORD PTR _land$[ebp], 0
	je	SHORT $LN6@R_GlobalCo
	mov	eax, DWORD PTR _land$[ebp]
	movsx	ecx, WORD PTR [eax+20]
	cmp	ecx, -1
	jne	SHORT $LN5@R_GlobalCo
$LN6@R_GlobalCo:

; 389  : 		return;

	jmp	$LN1@R_GlobalCo
$LN5@R_GlobalCo:

; 390  : 
; 391  : 	for( int i = 0; i < 3; i++ )

	mov	DWORD PTR _i$1[ebp], 0
	jmp	SHORT $LN4@R_GlobalCo
$LN2@R_GlobalCo:
	mov	eax, DWORD PTR _i$1[ebp]
	add	eax, 1
	mov	DWORD PTR _i$1[ebp], eax
$LN4@R_GlobalCo:
	cmp	DWORD PTR _i$1[ebp], 3
	jge	SHORT $LN3@R_GlobalCo

; 392  : 		size[i] = land->maxs[i] - land->mins[i];

	mov	ecx, DWORD PTR _land$[ebp]
	add	ecx, 36					; 00000024H
	call	??BVector@@QAEPAMXZ			; Vector::operator float *
	mov	esi, eax
	mov	ecx, DWORD PTR _land$[ebp]
	add	ecx, 24					; 00000018H
	call	??BVector@@QAEPAMXZ			; Vector::operator float *
	mov	ecx, DWORD PTR _i$1[ebp]
	mov	edx, DWORD PTR _i$1[ebp]
	movss	xmm0, DWORD PTR [esi+ecx*4]
	subss	xmm0, DWORD PTR [eax+edx*4]
	lea	ecx, DWORD PTR _size$[ebp]
	movss	DWORD PTR tv188[ebp], xmm0
	call	??BVector@@QAEPAMXZ			; Vector::operator float *
	mov	ecx, DWORD PTR _i$1[ebp]
	movss	xmm0, DWORD PTR tv188[ebp]
	movss	DWORD PTR [eax+ecx*4], xmm0
	jmp	SHORT $LN2@R_GlobalCo
$LN3@R_GlobalCo:

; 393  : 
; 394  : 	out[2] = ( point[0] - land->mins[0] ) / size[0];

	mov	ecx, DWORD PTR _point$[ebp]
	call	??BVector@@QBEPBMXZ			; Vector::operator float const *
	mov	esi, eax
	mov	eax, 4
	imul	edi, eax, 0
	mov	ecx, DWORD PTR _land$[ebp]
	add	ecx, 24					; 00000018H
	call	??BVector@@QAEPAMXZ			; Vector::operator float *
	mov	ecx, 4
	imul	edx, ecx, 0
	movss	xmm0, DWORD PTR [esi+edi]
	subss	xmm0, DWORD PTR [eax+edx]
	lea	ecx, DWORD PTR _size$[ebp]
	movss	DWORD PTR tv190[ebp], xmm0
	call	??BVector@@QAEPAMXZ			; Vector::operator float *
	mov	ecx, 4
	imul	edx, ecx, 0
	movss	xmm0, DWORD PTR tv190[ebp]
	divss	xmm0, DWORD PTR [eax+edx]
	mov	eax, 4
	shl	eax, 1
	mov	ecx, DWORD PTR _out$[ebp]
	movss	DWORD PTR [ecx+eax], xmm0

; 395  : 	out[3] = ( land->maxs[1] - point[1] ) / size[1];

	mov	ecx, DWORD PTR _land$[ebp]
	add	ecx, 36					; 00000024H
	call	??BVector@@QAEPAMXZ			; Vector::operator float *
	mov	esi, eax
	mov	edi, 4
	shl	edi, 0
	mov	ecx, DWORD PTR _point$[ebp]
	call	??BVector@@QBEPBMXZ			; Vector::operator float const *
	mov	ecx, 4
	shl	ecx, 0
	movss	xmm0, DWORD PTR [esi+edi]
	subss	xmm0, DWORD PTR [eax+ecx]
	lea	ecx, DWORD PTR _size$[ebp]
	movss	DWORD PTR tv192[ebp], xmm0
	call	??BVector@@QAEPAMXZ			; Vector::operator float *
	mov	edx, 4
	shl	edx, 0
	movss	xmm0, DWORD PTR tv192[ebp]
	divss	xmm0, DWORD PTR [eax+edx]
	mov	eax, 4
	imul	ecx, eax, 3
	mov	edx, DWORD PTR _out$[ebp]
	movss	DWORD PTR [edx+ecx], xmm0
$LN1@R_GlobalCo:

; 396  : }

	pop	edi
	pop	esi
	pop	ebx
	mov	esp, ebp
	pop	ebp
	ret	0
?R_GlobalCoords@@YAXPAUmsurface_s@@ABVVector@@PAM@Z ENDP ; R_GlobalCoords
_TEXT	ENDS
; Function compile flags: /Odtp /ZI
; File d:\!diffusion 2020\source code 2022\client-server\client\render\r_lightmap.cpp
;	COMDAT ?R_TextureCoords@@YAXPAUmsurface_s@@ABVVector@@PAM@Z
_TEXT	SEGMENT
tv231 = -132						; size = 8
tv209 = -132						; size = 8
tv227 = -124						; size = 4
tv221 = -124						; size = 4
tv205 = -124						; size = 4
tv199 = -124						; size = 4
$T1 = -120						; size = 12
$T2 = -108						; size = 12
$T3 = -96						; size = 12
$T4 = -84						; size = 12
_t$ = -8						; size = 4
_s$ = -4						; size = 4
_surf$ = 8						; size = 4
_vec$ = 12						; size = 4
_out$ = 16						; size = 4
?R_TextureCoords@@YAXPAUmsurface_s@@ABVVector@@PAM@Z PROC ; R_TextureCoords, COMDAT

; 355  : {

	push	ebp
	mov	ebp, esp
	sub	esp, 132				; 00000084H
	push	ebx
	push	esi
	push	edi

; 356  : 	float s, t;
; 357  : 
; 358  : 	if( FBitSet( surf->flags, SURF_WATER ))

	mov	eax, DWORD PTR _surf$[ebp]
	mov	ecx, DWORD PTR [eax+8]
	and	ecx, 16					; 00000010H
	je	SHORT $LN2@R_TextureC

; 359  : 	{
; 360  : 		s = DotProduct( vec, surf->texinfo->vecs[0] );

	mov	eax, DWORD PTR _surf$[ebp]
	mov	ecx, DWORD PTR [eax+44]
	mov	edx, 16					; 00000010H
	imul	eax, edx, 0
	add	ecx, eax
	push	ecx
	lea	ecx, DWORD PTR $T4[ebp]
	call	??0Vector@@QAE@QAM@Z			; Vector::Vector
	lea	ecx, DWORD PTR $T4[ebp]
	push	ecx
	mov	edx, DWORD PTR _vec$[ebp]
	push	edx
	call	?DotProduct@@YAMABVVector@@0@Z		; DotProduct
	add	esp, 8
	fstp	DWORD PTR _s$[ebp]

; 361  : 		t = DotProduct( vec, surf->texinfo->vecs[1] );

	mov	eax, DWORD PTR _surf$[ebp]
	mov	ecx, DWORD PTR [eax+44]
	mov	edx, 16					; 00000010H
	shl	edx, 0
	add	ecx, edx
	push	ecx
	lea	ecx, DWORD PTR $T3[ebp]
	call	??0Vector@@QAE@QAM@Z			; Vector::Vector
	lea	eax, DWORD PTR $T3[ebp]
	push	eax
	mov	ecx, DWORD PTR _vec$[ebp]
	push	ecx
	call	?DotProduct@@YAMABVVector@@0@Z		; DotProduct
	add	esp, 8
	fstp	DWORD PTR _t$[ebp]

; 362  : 	}
; 363  : 	else

	jmp	$LN3@R_TextureC
$LN2@R_TextureC:

; 364  : 	{
; 365  : 		s = DotProduct( vec, surf->texinfo->vecs[0] ) + surf->texinfo->vecs[0][3];

	mov	eax, DWORD PTR _surf$[ebp]
	mov	ecx, DWORD PTR [eax+44]
	mov	edx, 16					; 00000010H
	imul	eax, edx, 0
	add	ecx, eax
	push	ecx
	lea	ecx, DWORD PTR $T2[ebp]
	call	??0Vector@@QAE@QAM@Z			; Vector::Vector
	lea	ecx, DWORD PTR $T2[ebp]
	push	ecx
	mov	edx, DWORD PTR _vec$[ebp]
	push	edx
	call	?DotProduct@@YAMABVVector@@0@Z		; DotProduct
	add	esp, 8
	fstp	DWORD PTR tv199[ebp]
	movss	xmm0, DWORD PTR tv199[ebp]
	mov	eax, DWORD PTR _surf$[ebp]
	mov	ecx, DWORD PTR [eax+44]
	mov	edx, 16					; 00000010H
	imul	eax, edx, 0
	add	ecx, eax
	mov	edx, 4
	imul	eax, edx, 3
	addss	xmm0, DWORD PTR [ecx+eax]
	movss	DWORD PTR _s$[ebp], xmm0

; 366  : 		s /= surf->texinfo->texture->width;

	mov	eax, DWORD PTR _surf$[ebp]
	mov	ecx, DWORD PTR [eax+44]
	mov	edx, DWORD PTR [ecx+36]
	mov	eax, DWORD PTR [edx+16]
	mov	DWORD PTR tv205[ebp], eax
	cvtsi2sd xmm0, DWORD PTR tv205[ebp]
	mov	ecx, DWORD PTR tv205[ebp]
	shr	ecx, 31					; 0000001fH
	addsd	xmm0, QWORD PTR __xmm@41f00000000000000000000000000000[ecx*8]
	movsd	QWORD PTR tv209[ebp], xmm0
	cvtsd2ss xmm0, QWORD PTR tv209[ebp]
	movss	xmm1, DWORD PTR _s$[ebp]
	divss	xmm1, xmm0
	movss	DWORD PTR _s$[ebp], xmm1

; 367  : 		t = DotProduct( vec, surf->texinfo->vecs[1] ) + surf->texinfo->vecs[1][3];

	mov	eax, DWORD PTR _surf$[ebp]
	mov	ecx, DWORD PTR [eax+44]
	mov	edx, 16					; 00000010H
	shl	edx, 0
	add	ecx, edx
	push	ecx
	lea	ecx, DWORD PTR $T1[ebp]
	call	??0Vector@@QAE@QAM@Z			; Vector::Vector
	lea	eax, DWORD PTR $T1[ebp]
	push	eax
	mov	ecx, DWORD PTR _vec$[ebp]
	push	ecx
	call	?DotProduct@@YAMABVVector@@0@Z		; DotProduct
	add	esp, 8
	fstp	DWORD PTR tv221[ebp]
	movss	xmm0, DWORD PTR tv221[ebp]
	mov	edx, DWORD PTR _surf$[ebp]
	mov	eax, DWORD PTR [edx+44]
	mov	ecx, 16					; 00000010H
	shl	ecx, 0
	add	eax, ecx
	mov	edx, 4
	imul	ecx, edx, 3
	addss	xmm0, DWORD PTR [eax+ecx]
	movss	DWORD PTR _t$[ebp], xmm0

; 368  : 		t /= surf->texinfo->texture->height;

	mov	eax, DWORD PTR _surf$[ebp]
	mov	ecx, DWORD PTR [eax+44]
	mov	edx, DWORD PTR [ecx+36]
	mov	eax, DWORD PTR [edx+20]
	mov	DWORD PTR tv227[ebp], eax
	cvtsi2sd xmm0, DWORD PTR tv227[ebp]
	mov	ecx, DWORD PTR tv227[ebp]
	shr	ecx, 31					; 0000001fH
	addsd	xmm0, QWORD PTR __xmm@41f00000000000000000000000000000[ecx*8]
	movsd	QWORD PTR tv231[ebp], xmm0
	cvtsd2ss xmm0, QWORD PTR tv231[ebp]
	movss	xmm1, DWORD PTR _t$[ebp]
	divss	xmm1, xmm0
	movss	DWORD PTR _t$[ebp], xmm1
$LN3@R_TextureC:

; 369  : 	}
; 370  : 
; 371  : 	// fill the global coords with same
; 372  : 	out[0] = out[2] = s;

	mov	eax, 4
	shl	eax, 1
	mov	ecx, DWORD PTR _out$[ebp]
	movss	xmm0, DWORD PTR _s$[ebp]
	movss	DWORD PTR [ecx+eax], xmm0
	mov	edx, 4
	imul	eax, edx, 0
	mov	ecx, DWORD PTR _out$[ebp]
	movss	xmm0, DWORD PTR _s$[ebp]
	movss	DWORD PTR [ecx+eax], xmm0

; 373  : 	out[1] = out[3] = t;

	mov	eax, 4
	imul	ecx, eax, 3
	mov	edx, DWORD PTR _out$[ebp]
	movss	xmm0, DWORD PTR _t$[ebp]
	movss	DWORD PTR [edx+ecx], xmm0
	mov	eax, 4
	shl	eax, 0
	mov	ecx, DWORD PTR _out$[ebp]
	movss	xmm0, DWORD PTR _t$[ebp]
	movss	DWORD PTR [ecx+eax], xmm0

; 374  : }

	pop	edi
	pop	esi
	pop	ebx
	mov	esp, ebp
	pop	ebp
	ret	0
?R_TextureCoords@@YAXPAUmsurface_s@@ABVVector@@PAM@Z ENDP ; R_TextureCoords
_TEXT	ENDS
; Function compile flags: /Odtp /ZI
; File d:\!diffusion 2020\source code 2022\client-server\client\render\r_lightmap.cpp
;	COMDAT ?GL_EndBuildingLightmaps@@YAX_N0@Z
_TEXT	SEGMENT
_lightmap$ = 8						; size = 1
_deluxmap$ = 12						; size = 1
?GL_EndBuildingLightmaps@@YAX_N0@Z PROC			; GL_EndBuildingLightmaps, COMDAT

; 182  : {

	push	ebp
	mov	ebp, esp
	sub	esp, 64					; 00000040H
	push	ebx
	push	esi
	push	edi

; 183  : 	LM_UploadPages( lightmap, deluxmap );

	movzx	eax, BYTE PTR _deluxmap$[ebp]
	push	eax
	movzx	ecx, BYTE PTR _lightmap$[ebp]
	push	ecx
	call	?LM_UploadPages@@YAX_N0@Z		; LM_UploadPages
	add	esp, 8

; 184  : }

	pop	edi
	pop	esi
	pop	ebx
	mov	esp, ebp
	pop	ebp
	ret	0
?GL_EndBuildingLightmaps@@YAX_N0@Z ENDP			; GL_EndBuildingLightmaps
_TEXT	ENDS
; Function compile flags: /Odtp /ZI
; File d:\!diffusion 2020\source code 2022\client-server\client\render\r_lightmap.cpp
;	COMDAT ?GL_AllocLightmapForFace@@YAXPAUmsurface_s@@@Z
_TEXT	SEGMENT
_sample_size$ = -20					; size = 4
_map$ = -16						; size = 4
_tmax$ = -12						; size = 2
_smax$ = -8						; size = 2
_esrf$ = -4						; size = 4
_surf$ = 8						; size = 4
?GL_AllocLightmapForFace@@YAXPAUmsurface_s@@@Z PROC	; GL_AllocLightmapForFace, COMDAT

; 142  : {

	push	ebp
	mov	ebp, esp
	sub	esp, 84					; 00000054H
	push	ebx
	push	esi
	push	edi

; 143  : 	mextrasurf_t	*esrf = surf->info;

	mov	eax, DWORD PTR _surf$[ebp]
	mov	ecx, DWORD PTR [eax+80]
	mov	DWORD PTR _esrf$[ebp], ecx

; 144  : 	word		smax, tmax;
; 145  : 	int		map;
; 146  : 
; 147  : 	// always reject the tiled faces
; 148  : 	if( FBitSet( surf->flags, SURF_DRAWSKY ))

	mov	eax, DWORD PTR _surf$[ebp]
	mov	ecx, DWORD PTR [eax+8]
	and	ecx, 4
	je	SHORT $LN5@GL_AllocLi

; 149  : 		return;

	jmp	$LN1@GL_AllocLi
$LN5@GL_AllocLi:

; 150  : 
; 151  : 	// no lightdata and no deluxdata
; 152  : 	if( !surf->samples && !esrf->deluxemap )

	mov	eax, DWORD PTR _surf$[ebp]
	cmp	DWORD PTR [eax+84], 0
	jne	SHORT $LN6@GL_AllocLi
	mov	eax, DWORD PTR _esrf$[ebp]
	cmp	DWORD PTR [eax+88], 0
	jne	SHORT $LN6@GL_AllocLi

; 153  : 		return;

	jmp	$LN1@GL_AllocLi
$LN6@GL_AllocLi:

; 154  : 
; 155  : 	int sample_size = Mod_SampleSizeForFace( surf );

	mov	eax, DWORD PTR _surf$[ebp]
	push	eax
	call	?Mod_SampleSizeForFace@@YAHPAUmsurface_s@@@Z ; Mod_SampleSizeForFace
	add	esp, 4
	mov	DWORD PTR _sample_size$[ebp], eax

; 156  : 	smax = ( surf->info->lightextents[0] / sample_size ) + 1;

	mov	eax, DWORD PTR _surf$[ebp]
	mov	ecx, DWORD PTR [eax+80]
	mov	edx, 2
	imul	eax, edx, 0
	movsx	eax, WORD PTR [ecx+eax+52]
	cdq
	idiv	DWORD PTR _sample_size$[ebp]
	add	eax, 1
	mov	WORD PTR _smax$[ebp], ax

; 157  : 	tmax = ( surf->info->lightextents[1] / sample_size ) + 1;

	mov	eax, DWORD PTR _surf$[ebp]
	mov	ecx, DWORD PTR [eax+80]
	mov	edx, 2
	shl	edx, 0
	movsx	eax, WORD PTR [ecx+edx+52]
	cdq
	idiv	DWORD PTR _sample_size$[ebp]
	add	eax, 1
	mov	WORD PTR _tmax$[ebp], ax
$new_page$9:

; 158  : new_page:
; 159  : 	// alloc blocks for all the styles on current page
; 160  : 	for( map = 0; map < MAXLIGHTMAPS && surf->styles[map] != LS_NONE; map++ )

	mov	DWORD PTR _map$[ebp], 0
	jmp	SHORT $LN4@GL_AllocLi
$LN2@GL_AllocLi:
	mov	eax, DWORD PTR _map$[ebp]
	add	eax, 1
	mov	DWORD PTR _map$[ebp], eax
$LN4@GL_AllocLi:
	cmp	DWORD PTR _map$[ebp], 4
	jge	SHORT $LN3@GL_AllocLi
	mov	eax, DWORD PTR _surf$[ebp]
	add	eax, DWORD PTR _map$[ebp]
	movzx	ecx, BYTE PTR [eax+60]
	cmp	ecx, 255				; 000000ffH
	je	SHORT $LN3@GL_AllocLi

; 161  : 	{
; 162  : 		if( !LM_AllocBlock( smax, tmax, &esrf->light_s[map], &esrf->light_t[map] ))

	mov	eax, DWORD PTR _map$[ebp]
	mov	ecx, DWORD PTR _esrf$[ebp]
	lea	edx, DWORD PTR [ecx+eax*2+156]
	push	edx
	mov	eax, DWORD PTR _map$[ebp]
	mov	ecx, DWORD PTR _esrf$[ebp]
	lea	edx, DWORD PTR [ecx+eax*2+148]
	push	edx
	movzx	eax, WORD PTR _tmax$[ebp]
	push	eax
	movzx	ecx, WORD PTR _smax$[ebp]
	push	ecx
	call	?LM_AllocBlock@@YAHGGPAG0@Z		; LM_AllocBlock
	add	esp, 16					; 00000010H
	test	eax, eax
	jne	SHORT $LN7@GL_AllocLi

; 163  : 		{
; 164  : 			// current page is not enough room for next 1-4 blocks
; 165  : 			LM_GoToNextPage();

	call	?LM_GoToNextPage@@YAXXZ			; LM_GoToNextPage

; 166  : 			LM_InitBlock();

	call	?LM_InitBlock@@YAXXZ			; LM_InitBlock

; 167  : 			goto new_page;

	jmp	SHORT $new_page$9
$LN7@GL_AllocLi:

; 168  : 		}
; 169  : 	}

	jmp	SHORT $LN2@GL_AllocLi
$LN3@GL_AllocLi:

; 170  : 
; 171  : 	// lightmap will be uploaded as far as player can see it
; 172  : 	esrf->lightmaptexturenum = tr.current_lightmap_texture;

	movzx	ax, BYTE PTR ?tr@@3Uref_globals_t@@A+4732144
	mov	ecx, DWORD PTR _esrf$[ebp]
	mov	WORD PTR [ecx+164], ax

; 173  : 	SetBits( surf->flags, SURF_LM_UPDATE|SURF_DM_UPDATE );

	mov	eax, DWORD PTR _surf$[ebp]
	mov	ecx, DWORD PTR [eax+8]
	or	ecx, 805306368				; 30000000H
	mov	edx, DWORD PTR _surf$[ebp]
	mov	DWORD PTR [edx+8], ecx
$LN1@GL_AllocLi:

; 174  : }

	pop	edi
	pop	esi
	pop	ebx
	mov	esp, ebp
	pop	ebp
	ret	0
?GL_AllocLightmapForFace@@YAXPAUmsurface_s@@@Z ENDP	; GL_AllocLightmapForFace
_TEXT	ENDS
; Function compile flags: /Odtp /ZI
; File d:\!diffusion 2020\source code 2022\client-server\client\render\r_lightmap.cpp
;	COMDAT ?GL_BeginBuildingLightmaps@@YAXXZ
_TEXT	SEGMENT
_i$ = -4						; size = 4
?GL_BeginBuildingLightmaps@@YAXXZ PROC			; GL_BeginBuildingLightmaps, COMDAT

; 119  : {

	push	ebp
	mov	ebp, esp
	sub	esp, 68					; 00000044H
	push	ebx
	push	esi
	push	edi

; 120  : 	int	i;
; 121  : 
; 122  : 	// release old lightmaps first
; 123  : 	for( i = 0; i < MAX_LIGHTMAPS && tr.lightmaps[i].state != LM_FREE; i++ )

	mov	DWORD PTR _i$[ebp], 0
	jmp	SHORT $LN4@GL_BeginBu
$LN2@GL_BeginBu:
	mov	eax, DWORD PTR _i$[ebp]
	add	eax, 1
	mov	DWORD PTR _i$[ebp], eax
$LN4@GL_BeginBu:
	cmp	DWORD PTR _i$[ebp], 512			; 00000200H
	jge	SHORT $LN3@GL_BeginBu
	imul	eax, DWORD PTR _i$[ebp], 8204
	cmp	DWORD PTR ?tr@@3Uref_globals_t@@A[eax+531696], 0
	je	SHORT $LN3@GL_BeginBu

; 124  : 	{
; 125  : 		FREE_TEXTURE( tr.lightmaps[i].lightmap );

	imul	eax, DWORD PTR _i$[ebp], 8204
	mov	ecx, DWORD PTR ?tr@@3Uref_globals_t@@A[eax+539892]
	push	ecx
	call	DWORD PTR ?gRenderfuncs@@3Urender_api_s@@A+76
	add	esp, 4

; 126  : 		FREE_TEXTURE( tr.lightmaps[i].deluxmap );

	imul	eax, DWORD PTR _i$[ebp], 8204
	mov	ecx, DWORD PTR ?tr@@3Uref_globals_t@@A[eax+539896]
	push	ecx
	call	DWORD PTR ?gRenderfuncs@@3Urender_api_s@@A+76
	add	esp, 4

; 127  : 	}

	jmp	SHORT $LN2@GL_BeginBu
$LN3@GL_BeginBu:

; 128  : 
; 129  : 	memset( tr.lightmaps, 0, sizeof( tr.lightmaps ));

	push	4200448					; 00401800H
	push	0
	push	OFFSET ?tr@@3Uref_globals_t@@A+531696
	call	_memset
	add	esp, 12					; 0000000cH

; 130  : 	tr.current_lightmap_texture = 0;

	mov	BYTE PTR ?tr@@3Uref_globals_t@@A+4732144, 0

; 131  : }

	pop	edi
	pop	esi
	pop	ebx
	mov	esp, ebp
	pop	ebp
	ret	0
?GL_BeginBuildingLightmaps@@YAXXZ ENDP			; GL_BeginBuildingLightmaps
_TEXT	ENDS
; Function compile flags: /Odtp /ZI
; File d:\!diffusion 2020\source code 2022\client-server\client\render\r_lightmap.cpp
;	COMDAT ?R_UpdateSurfaceParams@@YAXPAUmsurface_s@@@Z
_TEXT	SEGMENT
tv460 = -132						; size = 8
tv276 = -128						; size = 4
tv231 = -128						; size = 4
tv152 = -125						; size = 1
tv90 = -125						; size = 1
_cy$1 = -60						; size = 4
_tOffset$2 = -56					; size = 4
_sy$3 = -52						; size = 4
_sOffset$4 = -48					; size = 4
_flConveyorPos$5 = -44					; size = 4
_flConveyorSpeed$6 = -40				; size = 4
_flWidth$7 = -36					; size = 4
_flAngle$8 = -32					; size = 4
_flRate$9 = -28						; size = 4
_tex$ = -24						; size = 4
_land$ = -20						; size = 4
_tx$ = -16						; size = 4
_clmodel$ = -12						; size = 4
_e$ = -8						; size = 4
_esrf$ = -4						; size = 4
_surf$ = 8						; size = 4
?R_UpdateSurfaceParams@@YAXPAUmsurface_s@@@Z PROC	; R_UpdateSurfaceParams, COMDAT

; 460  : {

	push	ebp
	mov	ebp, esp
	sub	esp, 132				; 00000084H
	push	ebx
	push	esi
	push	edi

; 461  : 	mextrasurf_t	*esrf = surf->info;

	mov	eax, DWORD PTR _surf$[ebp]
	mov	ecx, DWORD PTR [eax+80]
	mov	DWORD PTR _esrf$[ebp], ecx

; 462  : 	cl_entity_t	*e = RI->currententity;

	mov	eax, DWORD PTR ?RI@@3PAUref_instance_t@@A ; RI
	mov	ecx, DWORD PTR [eax+16]
	mov	DWORD PTR _e$[ebp], ecx

; 463  : 	model_t		*clmodel = e->model;

	mov	eax, DWORD PTR _e$[ebp]
	mov	ecx, DWORD PTR [eax+2964]
	mov	DWORD PTR _clmodel$[ebp], ecx

; 464  : 	mtexinfo_t	*tx = surf->texinfo;

	mov	eax, DWORD PTR _surf$[ebp]
	mov	ecx, DWORD PTR [eax+44]
	mov	DWORD PTR _tx$[ebp], ecx

; 465  : 	mfaceinfo_t	*land = tx->faceinfo;

	mov	eax, DWORD PTR _tx$[ebp]
	mov	ecx, DWORD PTR [eax+32]
	mov	DWORD PTR _land$[ebp], ecx

; 466  : 	texture_t		*tex;
; 467  : 
; 468  : 	// diffusion - added cubepass check
; 469  : 	if( (esrf->cached_frame == tr.realframecount) && (world->rebuilding_cubemaps == CMREBUILD_INACTIVE) )

	mov	eax, DWORD PTR _esrf$[ebp]
	mov	ecx, DWORD PTR [eax+212]
	cmp	ecx, DWORD PTR ?tr@@3Uref_globals_t@@A+5830928
	jne	SHORT $LN2@R_UpdateSu
	mov	eax, DWORD PTR ?world@@3PAUgl_world_t@@A ; world
	cmp	DWORD PTR [eax+168], 0
	jne	SHORT $LN2@R_UpdateSu

; 470  : 		return; // already updated?

	jmp	$LN1@R_UpdateSu
$LN2@R_UpdateSu:

; 471  : 
; 472  : 	// update texture animation if needs
; 473  : 	tex = R_TextureAnimation( surf );

	mov	eax, DWORD PTR _surf$[ebp]
	push	eax
	call	?R_TextureAnimation@@YAPAUtexture_s@@PAUmsurface_s@@@Z ; R_TextureAnimation
	add	esp, 4
	mov	DWORD PTR _tex$[ebp], eax

; 474  : 
; 475  : 	if( FBitSet( surf->flags, SURF_MOVIE ) && RI->currententity->curstate.body )

	mov	eax, DWORD PTR _surf$[ebp]
	mov	ecx, DWORD PTR [eax+8]
	and	ecx, 2048				; 00000800H
	je	SHORT $LN3@R_UpdateSu
	mov	eax, DWORD PTR ?RI@@3PAUref_instance_t@@A ; RI
	mov	ecx, DWORD PTR [eax+16]
	cmp	DWORD PTR [ecx+788], 0
	je	SHORT $LN3@R_UpdateSu

; 476  : 	{
; 477  : 		esrf->gl_texturenum = tr.cinTextures[esrf->cintexturenum-1];

	mov	eax, DWORD PTR _esrf$[ebp]
	mov	ecx, DWORD PTR [eax+96]
	mov	edx, DWORD PTR _esrf$[ebp]
	mov	ax, WORD PTR ?tr@@3Uref_globals_t@@A[ecx*4+4936]
	mov	WORD PTR [edx+238], ax
	jmp	$LN9@R_UpdateSu
$LN3@R_UpdateSu:

; 478  : 	}
; 479  : 	else if( CVAR_TO_BOOL( r_lightmap ) || e->curstate.rendermode == kRenderTransColor )

	cmp	DWORD PTR ?r_lightmap@@3PAUcvar_s@@A, 0	; r_lightmap
	je	SHORT $LN32@R_UpdateSu
	mov	eax, DWORD PTR ?r_lightmap@@3PAUcvar_s@@A ; r_lightmap
	movss	xmm0, DWORD PTR [eax+12]
	ucomiss	xmm0, DWORD PTR __real@00000000
	lahf
	test	ah, 68					; 00000044H
	jnp	SHORT $LN32@R_UpdateSu
	mov	BYTE PTR tv90[ebp], 1
	jmp	SHORT $LN33@R_UpdateSu
$LN32@R_UpdateSu:
	mov	BYTE PTR tv90[ebp], 0
$LN33@R_UpdateSu:
	movzx	ecx, BYTE PTR tv90[ebp]
	test	ecx, ecx
	jne	SHORT $LN7@R_UpdateSu
	mov	eax, DWORD PTR _e$[ebp]
	cmp	DWORD PTR [eax+760], 1
	jne	SHORT $LN5@R_UpdateSu
$LN7@R_UpdateSu:

; 480  : 	{
; 481  : 		esrf->gl_texturenum = tr.whiteTexture;

	mov	eax, DWORD PTR _esrf$[ebp]
	mov	cx, WORD PTR ?tr@@3Uref_globals_t@@A+32
	mov	WORD PTR [eax+238], cx
	jmp	$LN9@R_UpdateSu
$LN5@R_UpdateSu:

; 482  : 	}
; 483  : 	else if( FBitSet( surf->flags, SURF_LANDSCAPE ) && land && land->terrain )

	mov	eax, DWORD PTR _surf$[ebp]
	mov	ecx, DWORD PTR [eax+8]
	and	ecx, 8192				; 00002000H
	je	$LN8@R_UpdateSu
	cmp	DWORD PTR _land$[ebp], 0
	je	$LN8@R_UpdateSu
	mov	eax, DWORD PTR _land$[ebp]
	cmp	DWORD PTR [eax+48], 0
	je	$LN8@R_UpdateSu

; 484  : 	{
; 485  : 		if( land->terrain->layermap.gl_diffuse_id )

	mov	eax, DWORD PTR _land$[ebp]
	mov	ecx, DWORD PTR [eax+48]
	movzx	edx, WORD PTR [ecx+2208]
	test	edx, edx
	je	SHORT $LN10@R_UpdateSu

; 486  : 			esrf->gl_texturenum = land->terrain->layermap.gl_diffuse_id;

	mov	eax, DWORD PTR _land$[ebp]
	mov	ecx, DWORD PTR [eax+48]
	mov	edx, DWORD PTR _esrf$[ebp]
	mov	ax, WORD PTR [ecx+2208]
	mov	WORD PTR [edx+238], ax
	jmp	SHORT $LN13@R_UpdateSu
$LN10@R_UpdateSu:

; 487  : 		else if( land->terrain->indexmap.gl_diffuse_id && CVAR_TO_BOOL( r_detailtextures ))

	mov	eax, DWORD PTR _land$[ebp]
	mov	ecx, DWORD PTR [eax+48]
	movzx	edx, WORD PTR [ecx+144]
	test	edx, edx
	je	SHORT $LN12@R_UpdateSu
	cmp	DWORD PTR ?r_detailtextures@@3PAUcvar_s@@A, 0 ; r_detailtextures
	je	SHORT $LN34@R_UpdateSu
	mov	eax, DWORD PTR ?r_detailtextures@@3PAUcvar_s@@A ; r_detailtextures
	movss	xmm0, DWORD PTR [eax+12]
	ucomiss	xmm0, DWORD PTR __real@00000000
	lahf
	test	ah, 68					; 00000044H
	jnp	SHORT $LN34@R_UpdateSu
	mov	BYTE PTR tv152[ebp], 1
	jmp	SHORT $LN35@R_UpdateSu
$LN34@R_UpdateSu:
	mov	BYTE PTR tv152[ebp], 0
$LN35@R_UpdateSu:
	movzx	ecx, BYTE PTR tv152[ebp]
	test	ecx, ecx
	je	SHORT $LN12@R_UpdateSu

; 488  : 			esrf->gl_texturenum = tr.grayTexture;

	mov	eax, DWORD PTR _esrf$[ebp]
	mov	cx, WORD PTR ?tr@@3Uref_globals_t@@A+36
	mov	WORD PTR [eax+238], cx
	jmp	SHORT $LN13@R_UpdateSu
$LN12@R_UpdateSu:

; 489  : 		else esrf->gl_texturenum = tex->gl_texturenum;

	mov	eax, DWORD PTR _esrf$[ebp]
	mov	ecx, DWORD PTR _tex$[ebp]
	mov	dx, WORD PTR [ecx+24]
	mov	WORD PTR [eax+238], dx
$LN13@R_UpdateSu:

; 490  : 	}
; 491  : 	else

	jmp	SHORT $LN9@R_UpdateSu
$LN8@R_UpdateSu:

; 492  : 	{
; 493  : 		esrf->gl_texturenum = tex->gl_texturenum;

	mov	eax, DWORD PTR _esrf$[ebp]
	mov	ecx, DWORD PTR _tex$[ebp]
	mov	dx, WORD PTR [ecx+24]
	mov	WORD PTR [eax+238], dx
$LN9@R_UpdateSu:

; 494  : 	}
; 495  : 
; 496  : 	if( land && land->terrain && land->terrain->indexmap.gl_diffuse_id != 0 )

	cmp	DWORD PTR _land$[ebp], 0
	je	SHORT $LN14@R_UpdateSu
	mov	eax, DWORD PTR _land$[ebp]
	cmp	DWORD PTR [eax+48], 0
	je	SHORT $LN14@R_UpdateSu
	mov	eax, DWORD PTR _land$[ebp]
	mov	ecx, DWORD PTR [eax+48]
	movzx	edx, WORD PTR [ecx+144]
	test	edx, edx
	je	SHORT $LN14@R_UpdateSu

; 497  : 		esrf->dt_texturenum = land->terrain->indexmap.gl_diffuse_id;

	mov	eax, DWORD PTR _land$[ebp]
	mov	ecx, DWORD PTR [eax+48]
	mov	edx, DWORD PTR _esrf$[ebp]
	mov	ax, WORD PTR [ecx+144]
	mov	WORD PTR [edx+240], ax
	jmp	SHORT $LN15@R_UpdateSu
$LN14@R_UpdateSu:

; 498  : 	else esrf->dt_texturenum = tex->dt_texturenum;

	mov	eax, DWORD PTR _esrf$[ebp]
	mov	ecx, DWORD PTR _tex$[ebp]
	mov	dx, WORD PTR [ecx+54]
	mov	WORD PTR [eax+240], dx
$LN15@R_UpdateSu:

; 499  : 
; 500  : 	// check for lightmap modification
; 501  : 	if( FBitSet( surf->flags, SURF_LM_UPDATE|SURF_DM_UPDATE ))

	mov	eax, DWORD PTR _surf$[ebp]
	mov	ecx, DWORD PTR [eax+8]
	and	ecx, 805306368				; 30000000H
	je	SHORT $LN16@R_UpdateSu

; 502  : 		R_UpdateLightMap( surf );

	mov	eax, DWORD PTR _surf$[ebp]
	push	eax
	call	?R_UpdateLightMap@@YAXPAUmsurface_s@@@Z	; R_UpdateLightMap
	add	esp, 4
$LN16@R_UpdateSu:

; 503  : 
; 504  : 	if( FBitSet( surf->flags, SURF_MOVIE ))

	mov	eax, DWORD PTR _surf$[ebp]
	mov	ecx, DWORD PTR [eax+8]
	and	ecx, 2048				; 00000800H
	je	SHORT $LN17@R_UpdateSu

; 505  : 		R_UpdateCinematic( surf );

	mov	eax, DWORD PTR _surf$[ebp]
	push	eax
	call	?R_UpdateCinematic@@YAXPBUmsurface_s@@@Z ; R_UpdateCinematic
	add	esp, 4
$LN17@R_UpdateSu:

; 506  : 
; 507  : 	// handle conveyor movement
; 508  : 	if( FBitSet( clmodel->flags, MODEL_CONVEYOR ) && FBitSet( surf->flags, SURF_CONVEYOR ))

	mov	eax, DWORD PTR _clmodel$[ebp]
	mov	ecx, DWORD PTR [eax+80]
	and	ecx, 1
	je	$LN18@R_UpdateSu
	mov	eax, DWORD PTR _surf$[ebp]
	mov	ecx, DWORD PTR [eax+8]
	and	ecx, 64					; 00000040H
	je	$LN18@R_UpdateSu

; 509  : 	{
; 510  : 		float	flRate, flAngle;
; 511  : 		float	flWidth, flConveyorSpeed;
; 512  : 		float	flConveyorPos;
; 513  : 		float	sOffset, sy;
; 514  : 		float	tOffset, cy;
; 515  : 
; 516  : 		if( !FBitSet( e->curstate.effects, EF_CONVEYOR ))

	mov	eax, DWORD PTR _e$[ebp]
	mov	ecx, DWORD PTR [eax+748]
	and	ecx, 32768				; 00008000H
	jne	SHORT $LN20@R_UpdateSu

; 517  : 		{
; 518  : 			flConveyorSpeed = (e->curstate.rendercolor.g<<8|e->curstate.rendercolor.b) / 16.0f;

	mov	eax, DWORD PTR _e$[ebp]
	movzx	ecx, BYTE PTR [eax+769]
	shl	ecx, 8
	mov	edx, DWORD PTR _e$[ebp]
	movzx	eax, BYTE PTR [edx+770]
	or	ecx, eax
	cvtsi2ss xmm0, ecx
	divss	xmm0, DWORD PTR __real@41800000
	movss	DWORD PTR _flConveyorSpeed$6[ebp], xmm0

; 519  : 			if( e->curstate.rendercolor.r ) flConveyorSpeed = -flConveyorSpeed;

	mov	eax, DWORD PTR _e$[ebp]
	movzx	ecx, BYTE PTR [eax+768]
	test	ecx, ecx
	je	SHORT $LN22@R_UpdateSu
	movss	xmm0, DWORD PTR _flConveyorSpeed$6[ebp]
	xorps	xmm0, DWORD PTR __xmm@80000000800000008000000080000000
	movss	DWORD PTR _flConveyorSpeed$6[ebp], xmm0
$LN22@R_UpdateSu:

; 520  : 		}

	jmp	SHORT $LN21@R_UpdateSu
$LN20@R_UpdateSu:

; 521  : 		else flConveyorPos = e->curstate.fuser1;

	mov	eax, DWORD PTR _e$[ebp]
	movss	xmm0, DWORD PTR [eax+964]
	movss	DWORD PTR _flConveyorPos$5[ebp], xmm0
$LN21@R_UpdateSu:

; 522  : 		flWidth = (float)RENDER_GET_PARM( PARM_TEX_SRC_WIDTH, surf->texinfo->texture->gl_texturenum );

	mov	eax, DWORD PTR _surf$[ebp]
	mov	ecx, DWORD PTR [eax+44]
	mov	edx, DWORD PTR [ecx+36]
	mov	eax, DWORD PTR [edx+24]
	push	eax
	push	3
	call	DWORD PTR ?gRenderfuncs@@3Urender_api_s@@A
	add	esp, 8
	cvtsi2ss xmm0, eax
	movss	DWORD PTR _flWidth$7[ebp], xmm0

; 523  : 
; 524  : 		if( flWidth != 0.0f )

	movss	xmm0, DWORD PTR _flWidth$7[ebp]
	ucomiss	xmm0, DWORD PTR __real@00000000
	lahf
	test	ah, 68					; 00000044H
	jnp	$LN23@R_UpdateSu

; 525  : 		{
; 526  : 			if( !FBitSet( e->curstate.effects, EF_CONVEYOR ))

	mov	eax, DWORD PTR _e$[ebp]
	mov	ecx, DWORD PTR [eax+748]
	and	ecx, 32768				; 00008000H
	jne	$LN25@R_UpdateSu

; 527  : 			{
; 528  : 				// additive speed not position-based
; 529  : 				flRate = fabs( flConveyorSpeed ) / flWidth;

	cvtss2sd xmm0, DWORD PTR _flConveyorSpeed$6[ebp]
	sub	esp, 8
	movsd	QWORD PTR [esp], xmm0
	call	_fabs
	add	esp, 8
	fstp	QWORD PTR tv460[ebp]
	movsd	xmm0, QWORD PTR tv460[ebp]
	cvtss2sd xmm1, DWORD PTR _flWidth$7[ebp]
	divsd	xmm0, xmm1
	cvtsd2ss xmm0, xmm0
	movss	DWORD PTR _flRate$9[ebp], xmm0

; 530  : 				flAngle = ( flConveyorSpeed >= 0.0f ) ? 180.0f : 0.0f;

	movss	xmm0, DWORD PTR _flConveyorSpeed$6[ebp]
	comiss	xmm0, DWORD PTR __real@00000000
	jb	SHORT $LN36@R_UpdateSu
	movss	xmm0, DWORD PTR __real@43340000
	movss	DWORD PTR tv231[ebp], xmm0
	jmp	SHORT $LN37@R_UpdateSu
$LN36@R_UpdateSu:
	xorps	xmm0, xmm0
	movss	DWORD PTR tv231[ebp], xmm0
$LN37@R_UpdateSu:
	movss	xmm0, DWORD PTR tv231[ebp]
	movss	DWORD PTR _flAngle$8[ebp], xmm0

; 531  : 
; 532  : 				SinCos( DEG2RAD( flAngle ), &sy, &cy );

	lea	eax, DWORD PTR _cy$1[ebp]
	push	eax
	lea	ecx, DWORD PTR _sy$3[ebp]
	push	ecx
	movss	xmm0, DWORD PTR _flAngle$8[ebp]
	mulss	xmm0, DWORD PTR __real@3c8efa35
	push	ecx
	movss	DWORD PTR [esp], xmm0
	call	?SinCos@@YAXMPAM0@Z			; SinCos
	add	esp, 12					; 0000000cH

; 533  : 				sOffset = tr.time * cy * flRate;

	cvtss2sd xmm0, DWORD PTR _cy$1[ebp]
	mulsd	xmm0, QWORD PTR ?tr@@3Uref_globals_t@@A+8
	cvtss2sd xmm1, DWORD PTR _flRate$9[ebp]
	mulsd	xmm0, xmm1
	cvtsd2ss xmm0, xmm0
	movss	DWORD PTR _sOffset$4[ebp], xmm0

; 534  : 				tOffset = tr.time * sy * flRate;

	cvtss2sd xmm0, DWORD PTR _sy$3[ebp]
	mulsd	xmm0, QWORD PTR ?tr@@3Uref_globals_t@@A+8
	cvtss2sd xmm1, DWORD PTR _flRate$9[ebp]
	mulsd	xmm0, xmm1
	cvtsd2ss xmm0, xmm0
	movss	DWORD PTR _tOffset$2[ebp], xmm0

; 535  : 	
; 536  : 				// make sure that we are positive
; 537  : 				if( sOffset < 0.0f ) sOffset += 1.0f + -(int)sOffset;

	xorps	xmm0, xmm0
	comiss	xmm0, DWORD PTR _sOffset$4[ebp]
	jbe	SHORT $LN27@R_UpdateSu
	cvttss2si eax, DWORD PTR _sOffset$4[ebp]
	neg	eax
	cvtsi2ss xmm0, eax
	addss	xmm0, DWORD PTR __real@3f800000
	addss	xmm0, DWORD PTR _sOffset$4[ebp]
	movss	DWORD PTR _sOffset$4[ebp], xmm0
$LN27@R_UpdateSu:

; 538  : 				if( tOffset < 0.0f ) tOffset += 1.0f + -(int)tOffset;

	xorps	xmm0, xmm0
	comiss	xmm0, DWORD PTR _tOffset$2[ebp]
	jbe	SHORT $LN28@R_UpdateSu
	cvttss2si eax, DWORD PTR _tOffset$2[ebp]
	neg	eax
	cvtsi2ss xmm0, eax
	addss	xmm0, DWORD PTR __real@3f800000
	addss	xmm0, DWORD PTR _tOffset$2[ebp]
	movss	DWORD PTR _tOffset$2[ebp], xmm0
$LN28@R_UpdateSu:

; 539  : 
; 540  : 				// make sure that we are in a [0,1] range
; 541  : 				sOffset = sOffset - (int)sOffset;

	cvttss2si eax, DWORD PTR _sOffset$4[ebp]
	cvtsi2ss xmm0, eax
	movss	xmm1, DWORD PTR _sOffset$4[ebp]
	subss	xmm1, xmm0
	movss	DWORD PTR _sOffset$4[ebp], xmm1

; 542  : 				tOffset = tOffset - (int)tOffset;

	cvttss2si eax, DWORD PTR _tOffset$2[ebp]
	cvtsi2ss xmm0, eax
	movss	xmm1, DWORD PTR _tOffset$2[ebp]
	subss	xmm1, xmm0
	movss	DWORD PTR _tOffset$2[ebp], xmm1

; 543  : 
; 544  : 				esrf->texofs[0] = sOffset;

	mov	eax, 4
	imul	ecx, eax, 0
	mov	edx, DWORD PTR _esrf$[ebp]
	movss	xmm0, DWORD PTR _sOffset$4[ebp]
	movss	DWORD PTR [edx+ecx+192], xmm0

; 545  : 				esrf->texofs[1] = tOffset;

	mov	eax, 4
	shl	eax, 0
	mov	ecx, DWORD PTR _esrf$[ebp]
	movss	xmm0, DWORD PTR _tOffset$2[ebp]
	movss	DWORD PTR [ecx+eax+192], xmm0

; 546  : 			}
; 547  : 			else

	jmp	$LN26@R_UpdateSu
$LN25@R_UpdateSu:

; 548  : 			{
; 549  : 				// receive absolute position, not a speed
; 550  : 				flRate = fabs( flConveyorPos );

	cvtss2sd xmm0, DWORD PTR _flConveyorPos$5[ebp]
	sub	esp, 8
	movsd	QWORD PTR [esp], xmm0
	call	_fabs
	add	esp, 8
	fstp	DWORD PTR _flRate$9[ebp]

; 551  : 				flAngle = ( flConveyorPos >= 0.0f ) ? 180.0f : 0.0f;

	movss	xmm0, DWORD PTR _flConveyorPos$5[ebp]
	comiss	xmm0, DWORD PTR __real@00000000
	jb	SHORT $LN38@R_UpdateSu
	movss	xmm0, DWORD PTR __real@43340000
	movss	DWORD PTR tv276[ebp], xmm0
	jmp	SHORT $LN39@R_UpdateSu
$LN38@R_UpdateSu:
	xorps	xmm0, xmm0
	movss	DWORD PTR tv276[ebp], xmm0
$LN39@R_UpdateSu:
	movss	xmm0, DWORD PTR tv276[ebp]
	movss	DWORD PTR _flAngle$8[ebp], xmm0

; 552  : 
; 553  : 				SinCos( DEG2RAD( flAngle ), &sy, &cy );

	lea	eax, DWORD PTR _cy$1[ebp]
	push	eax
	lea	ecx, DWORD PTR _sy$3[ebp]
	push	ecx
	movss	xmm0, DWORD PTR _flAngle$8[ebp]
	mulss	xmm0, DWORD PTR __real@3c8efa35
	push	ecx
	movss	DWORD PTR [esp], xmm0
	call	?SinCos@@YAXMPAM0@Z			; SinCos
	add	esp, 12					; 0000000cH

; 554  : 				esrf->texofs[0] = cy * flRate;

	movss	xmm0, DWORD PTR _cy$1[ebp]
	mulss	xmm0, DWORD PTR _flRate$9[ebp]
	mov	eax, 4
	imul	ecx, eax, 0
	mov	edx, DWORD PTR _esrf$[ebp]
	movss	DWORD PTR [edx+ecx+192], xmm0

; 555  : 				esrf->texofs[1] = sy * flRate;

	movss	xmm0, DWORD PTR _sy$3[ebp]
	mulss	xmm0, DWORD PTR _flRate$9[ebp]
	mov	eax, 4
	shl	eax, 0
	mov	ecx, DWORD PTR _esrf$[ebp]
	movss	DWORD PTR [ecx+eax+192], xmm0

; 556  : 
; 557  : 				// make sure that we are positive
; 558  : 				if( esrf->texofs[0] < 0.0f ) esrf->texofs[0] += 1.0f + -(int)esrf->texofs[0];

	mov	eax, 4
	imul	ecx, eax, 0
	mov	edx, DWORD PTR _esrf$[ebp]
	xorps	xmm0, xmm0
	comiss	xmm0, DWORD PTR [edx+ecx+192]
	jbe	SHORT $LN29@R_UpdateSu
	mov	eax, 4
	imul	ecx, eax, 0
	mov	edx, 4
	imul	eax, edx, 0
	mov	edx, DWORD PTR _esrf$[ebp]
	cvttss2si eax, DWORD PTR [edx+eax+192]
	neg	eax
	cvtsi2ss xmm0, eax
	addss	xmm0, DWORD PTR __real@3f800000
	mov	edx, DWORD PTR _esrf$[ebp]
	addss	xmm0, DWORD PTR [edx+ecx+192]
	mov	eax, 4
	imul	ecx, eax, 0
	mov	edx, DWORD PTR _esrf$[ebp]
	movss	DWORD PTR [edx+ecx+192], xmm0
$LN29@R_UpdateSu:

; 559  : 				if( esrf->texofs[1] < 0.0f ) esrf->texofs[1] += 1.0f + -(int)esrf->texofs[1];

	mov	eax, 4
	shl	eax, 0
	mov	ecx, DWORD PTR _esrf$[ebp]
	xorps	xmm0, xmm0
	comiss	xmm0, DWORD PTR [ecx+eax+192]
	jbe	SHORT $LN30@R_UpdateSu
	mov	eax, 4
	shl	eax, 0
	mov	ecx, 4
	shl	ecx, 0
	mov	edx, DWORD PTR _esrf$[ebp]
	cvttss2si ecx, DWORD PTR [edx+ecx+192]
	neg	ecx
	cvtsi2ss xmm0, ecx
	addss	xmm0, DWORD PTR __real@3f800000
	mov	edx, DWORD PTR _esrf$[ebp]
	addss	xmm0, DWORD PTR [edx+eax+192]
	mov	eax, 4
	shl	eax, 0
	mov	ecx, DWORD PTR _esrf$[ebp]
	movss	DWORD PTR [ecx+eax+192], xmm0
$LN30@R_UpdateSu:

; 560  : 
; 561  : 				// make sure that we are in a [0,1] range
; 562  : 				esrf->texofs[0] = esrf->texofs[0] - (int)esrf->texofs[0];

	mov	eax, 4
	imul	ecx, eax, 0
	mov	edx, 4
	imul	eax, edx, 0
	mov	edx, DWORD PTR _esrf$[ebp]
	cvttss2si eax, DWORD PTR [edx+eax+192]
	cvtsi2ss xmm0, eax
	mov	edx, DWORD PTR _esrf$[ebp]
	movss	xmm1, DWORD PTR [edx+ecx+192]
	subss	xmm1, xmm0
	mov	eax, 4
	imul	ecx, eax, 0
	mov	edx, DWORD PTR _esrf$[ebp]
	movss	DWORD PTR [edx+ecx+192], xmm1

; 563  : 				esrf->texofs[1] = esrf->texofs[1] - (int)esrf->texofs[1];

	mov	eax, 4
	shl	eax, 0
	mov	ecx, 4
	shl	ecx, 0
	mov	edx, DWORD PTR _esrf$[ebp]
	cvttss2si ecx, DWORD PTR [edx+ecx+192]
	cvtsi2ss xmm0, ecx
	mov	edx, DWORD PTR _esrf$[ebp]
	movss	xmm1, DWORD PTR [edx+eax+192]
	subss	xmm1, xmm0
	mov	eax, 4
	shl	eax, 0
	mov	ecx, DWORD PTR _esrf$[ebp]
	movss	DWORD PTR [ecx+eax+192], xmm1
$LN26@R_UpdateSu:

; 564  : 			}
; 565  : 		}
; 566  : 		else

	jmp	SHORT $LN24@R_UpdateSu
$LN23@R_UpdateSu:

; 567  : 		{
; 568  : 			// no conveyor
; 569  :  			esrf->texofs[0] = 0.0f;

	mov	eax, 4
	imul	ecx, eax, 0
	mov	edx, DWORD PTR _esrf$[ebp]
	xorps	xmm0, xmm0
	movss	DWORD PTR [edx+ecx+192], xmm0

; 570  :  			esrf->texofs[1] = 0.0f;

	mov	eax, 4
	shl	eax, 0
	mov	ecx, DWORD PTR _esrf$[ebp]
	xorps	xmm0, xmm0
	movss	DWORD PTR [ecx+eax+192], xmm0
$LN24@R_UpdateSu:

; 571  : 		}
; 572  : 	}
; 573  : 	else

	jmp	SHORT $LN19@R_UpdateSu
$LN18@R_UpdateSu:

; 574  : 	{
; 575  : 		// no conveyor
; 576  :  		esrf->texofs[0] = 0.0f;

	mov	eax, 4
	imul	ecx, eax, 0
	mov	edx, DWORD PTR _esrf$[ebp]
	xorps	xmm0, xmm0
	movss	DWORD PTR [edx+ecx+192], xmm0

; 577  :  		esrf->texofs[1] = 0.0f;

	mov	eax, 4
	shl	eax, 0
	mov	ecx, DWORD PTR _esrf$[ebp]
	xorps	xmm0, xmm0
	movss	DWORD PTR [ecx+eax+192], xmm0
$LN19@R_UpdateSu:

; 578  : 	}
; 579  : 
; 580  : 	esrf->cached_frame = tr.realframecount;

	mov	eax, DWORD PTR _esrf$[ebp]
	mov	ecx, DWORD PTR ?tr@@3Uref_globals_t@@A+5830928
	mov	DWORD PTR [eax+212], ecx
$LN1@R_UpdateSu:

; 581  : }

	pop	edi
	pop	esi
	pop	ebx
	mov	esp, ebp
	pop	ebp
	ret	0
?R_UpdateSurfaceParams@@YAXPAUmsurface_s@@@Z ENDP	; R_UpdateSurfaceParams
_TEXT	ENDS
; Function compile flags: /Odtp /ZI
; File d:\!diffusion 2020\source code 2022\client-server\game_shared\vector.h
;	COMDAT ?DotProduct@@YAMABVVector@@0@Z
_TEXT	SEGMENT
tv86 = -68						; size = 4
_a$ = 8							; size = 4
_b$ = 12						; size = 4
?DotProduct@@YAMABVVector@@0@Z PROC			; DotProduct, COMDAT

; 308  : inline float DotProduct(const Vector& a, const Vector& b ) { return( a.x * b.x + a.y * b.y + a.z * b.z ); }

	push	ebp
	mov	ebp, esp
	sub	esp, 68					; 00000044H
	push	ebx
	push	esi
	push	edi
	mov	eax, DWORD PTR _a$[ebp]
	mov	ecx, DWORD PTR _b$[ebp]
	movss	xmm0, DWORD PTR [eax]
	mulss	xmm0, DWORD PTR [ecx]
	mov	edx, DWORD PTR _a$[ebp]
	mov	eax, DWORD PTR _b$[ebp]
	movss	xmm1, DWORD PTR [edx+4]
	mulss	xmm1, DWORD PTR [eax+4]
	addss	xmm0, xmm1
	mov	ecx, DWORD PTR _a$[ebp]
	mov	edx, DWORD PTR _b$[ebp]
	movss	xmm1, DWORD PTR [ecx+8]
	mulss	xmm1, DWORD PTR [edx+8]
	addss	xmm0, xmm1
	movss	DWORD PTR tv86[ebp], xmm0
	fld	DWORD PTR tv86[ebp]
	pop	edi
	pop	esi
	pop	ebx
	mov	esp, ebp
	pop	ebp
	ret	0
?DotProduct@@YAMABVVector@@0@Z ENDP			; DotProduct
_TEXT	ENDS
; Function compile flags: /Odtp /ZI
; File d:\!diffusion 2020\source code 2022\client-server\game_shared\vector.h
;	COMDAT ??BVector@@QBEPBMXZ
_TEXT	SEGMENT
_this$ = -4						; size = 4
??BVector@@QBEPBMXZ PROC				; Vector::operator float const *, COMDAT
; _this$ = ecx

; 248  : 	operator const float *() const		{ return &x; } 

	push	ebp
	mov	ebp, esp
	sub	esp, 68					; 00000044H
	push	ebx
	push	esi
	push	edi
	mov	DWORD PTR _this$[ebp], ecx
	mov	eax, DWORD PTR _this$[ebp]
	pop	edi
	pop	esi
	pop	ebx
	mov	esp, ebp
	pop	ebp
	ret	0
??BVector@@QBEPBMXZ ENDP				; Vector::operator float const *
_TEXT	ENDS
; Function compile flags: /Odtp /ZI
; File d:\!diffusion 2020\source code 2022\client-server\game_shared\vector.h
;	COMDAT ??BVector@@QAEPAMXZ
_TEXT	SEGMENT
_this$ = -4						; size = 4
??BVector@@QAEPAMXZ PROC				; Vector::operator float *, COMDAT
; _this$ = ecx

; 247  : 	operator float *()				{ return &x; } // Vectors will now automatically convert to float * when needed

	push	ebp
	mov	ebp, esp
	sub	esp, 68					; 00000044H
	push	ebx
	push	esi
	push	edi
	mov	DWORD PTR _this$[ebp], ecx
	mov	eax, DWORD PTR _this$[ebp]
	pop	edi
	pop	esi
	pop	ebx
	mov	esp, ebp
	pop	ebp
	ret	0
??BVector@@QAEPAMXZ ENDP				; Vector::operator float *
_TEXT	ENDS
; Function compile flags: /Odtp /ZI
; File d:\!diffusion 2020\source code 2022\client-server\game_shared\vector.h
;	COMDAT ??0Vector@@QAE@QAM@Z
_TEXT	SEGMENT
_this$ = -4						; size = 4
_rgfl$ = 8						; size = 4
??0Vector@@QAE@QAM@Z PROC				; Vector::Vector, COMDAT
; _this$ = ecx

; 147  : 	inline Vector(float rgfl[3])			{ x = rgfl[0]; y = rgfl[1]; z = rgfl[2];   }

	push	ebp
	mov	ebp, esp
	sub	esp, 68					; 00000044H
	push	ebx
	push	esi
	push	edi
	mov	DWORD PTR _this$[ebp], ecx
	mov	eax, 4
	imul	ecx, eax, 0
	mov	edx, DWORD PTR _this$[ebp]
	mov	eax, DWORD PTR _rgfl$[ebp]
	mov	ecx, DWORD PTR [eax+ecx]
	mov	DWORD PTR [edx], ecx
	mov	eax, 4
	shl	eax, 0
	mov	ecx, DWORD PTR _this$[ebp]
	mov	edx, DWORD PTR _rgfl$[ebp]
	mov	eax, DWORD PTR [edx+eax]
	mov	DWORD PTR [ecx+4], eax
	mov	eax, 4
	shl	eax, 1
	mov	ecx, DWORD PTR _this$[ebp]
	mov	edx, DWORD PTR _rgfl$[ebp]
	mov	eax, DWORD PTR [edx+eax]
	mov	DWORD PTR [ecx+8], eax
	mov	eax, DWORD PTR _this$[ebp]
	pop	edi
	pop	esi
	pop	ebx
	mov	esp, ebp
	pop	ebp
	ret	4
??0Vector@@QAE@QAM@Z ENDP				; Vector::Vector
_TEXT	ENDS
; Function compile flags: /Odtp /ZI
; File d:\!diffusion 2020\source code 2022\client-server\game_shared\vector.h
;	COMDAT ??0Vector@@QAE@XZ
_TEXT	SEGMENT
_this$ = -4						; size = 4
??0Vector@@QAE@XZ PROC					; Vector::Vector, COMDAT
; _this$ = ecx

; 143  : 	inline Vector(void)				{ }

	push	ebp
	mov	ebp, esp
	sub	esp, 68					; 00000044H
	push	ebx
	push	esi
	push	edi
	mov	DWORD PTR _this$[ebp], ecx
	mov	eax, DWORD PTR _this$[ebp]
	pop	edi
	pop	esi
	pop	ebx
	mov	esp, ebp
	pop	ebp
	ret	0
??0Vector@@QAE@XZ ENDP					; Vector::Vector
_TEXT	ENDS
; Function compile flags: /Odtp /ZI
; File d:\!diffusion 2020\source code 2022\client-server\game_shared\vector.h
;	COMDAT ?SinCos@@YAXMPAM0@Z
_TEXT	SEGMENT
_angle$ = 8						; size = 4
_sine$ = 12						; size = 4
_cosine$ = 16						; size = 4
?SinCos@@YAXMPAM0@Z PROC				; SinCos, COMDAT

; 36   : {

	push	ebp
	mov	ebp, esp
	sub	esp, 64					; 00000040H
	push	ebx
	push	esi
	push	edi

; 37   : 	/*
; 38   : 	__asm
; 39   : 	{
; 40   : 		push	ecx
; 41   : 		fld	dword ptr angle
; 42   : 		fsincos
; 43   : 		mov	ecx, dword ptr[cosine]
; 44   : 		fstp      dword ptr [ecx]
; 45   : 		mov 	ecx, dword ptr[sine]
; 46   : 		fstp	dword ptr [ecx]
; 47   : 		pop	ecx
; 48   : 	}*/
; 49   : 	*sine = sin( angle );

	cvtss2sd xmm0, DWORD PTR _angle$[ebp]
	sub	esp, 8
	movsd	QWORD PTR [esp], xmm0
	call	_sin
	add	esp, 8
	mov	eax, DWORD PTR _sine$[ebp]
	fstp	DWORD PTR [eax]

; 50   : 	*cosine = cos( angle );

	cvtss2sd xmm0, DWORD PTR _angle$[ebp]
	sub	esp, 8
	movsd	QWORD PTR [esp], xmm0
	call	_cos
	add	esp, 8
	mov	eax, DWORD PTR _cosine$[ebp]
	fstp	DWORD PTR [eax]

; 51   : }

	pop	edi
	pop	esi
	pop	ebx
	mov	esp, ebp
	pop	ebp
	ret	0
?SinCos@@YAXMPAM0@Z ENDP				; SinCos
_TEXT	ENDS
; Function compile flags: /Odtp /ZI
;	COMDAT ??__G@YGXPAX0IIP6EPAX00@Z@Z
_TEXT	SEGMENT
tv66 = -68						; size = 4
___t$ = 8						; size = 4
___u$ = 12						; size = 4
___s$ = 16						; size = 4
___n$ = 20						; size = 4
___f$ = 24						; size = 4
??__G@YGXPAX0IIP6EPAX00@Z@Z PROC			; `vector copy constructor iterator', COMDAT
	push	ebp
	mov	ebp, esp
	sub	esp, 68					; 00000044H
	push	ebx
	push	esi
	push	edi
$LN2@vector:
	mov	eax, DWORD PTR ___n$[ebp]
	mov	DWORD PTR tv66[ebp], eax
	mov	ecx, DWORD PTR ___n$[ebp]
	sub	ecx, 1
	mov	DWORD PTR ___n$[ebp], ecx
	cmp	DWORD PTR tv66[ebp], 0
	jbe	SHORT $LN1@vector
	mov	eax, DWORD PTR ___u$[ebp]
	push	eax
	mov	ecx, DWORD PTR ___t$[ebp]
	call	DWORD PTR ___f$[ebp]
	mov	eax, DWORD PTR ___t$[ebp]
	add	eax, DWORD PTR ___s$[ebp]
	mov	DWORD PTR ___t$[ebp], eax
	mov	eax, DWORD PTR ___u$[ebp]
	add	eax, DWORD PTR ___s$[ebp]
	mov	DWORD PTR ___u$[ebp], eax
	jmp	SHORT $LN2@vector
$LN1@vector:
	pop	edi
	pop	esi
	pop	ebx
	mov	esp, ebp
	pop	ebp
	ret	20					; 00000014H
??__G@YGXPAX0IIP6EPAX00@Z@Z ENDP			; `vector copy constructor iterator'
_TEXT	ENDS
; Function compile flags: /Odtp /ZI
;	COMDAT ??_H@YGXPAXIIP6EPAX0@Z@Z
_TEXT	SEGMENT
tv66 = -68						; size = 4
___t$ = 8						; size = 4
___s$ = 12						; size = 4
___n$ = 16						; size = 4
___f$ = 20						; size = 4
??_H@YGXPAXIIP6EPAX0@Z@Z PROC				; `vector constructor iterator', COMDAT
	push	ebp
	mov	ebp, esp
	sub	esp, 68					; 00000044H
	push	ebx
	push	esi
	push	edi
$LN2@vector:
	mov	eax, DWORD PTR ___n$[ebp]
	mov	DWORD PTR tv66[ebp], eax
	mov	ecx, DWORD PTR ___n$[ebp]
	sub	ecx, 1
	mov	DWORD PTR ___n$[ebp], ecx
	cmp	DWORD PTR tv66[ebp], 0
	jbe	SHORT $LN1@vector
	mov	ecx, DWORD PTR ___t$[ebp]
	call	DWORD PTR ___f$[ebp]
	mov	eax, DWORD PTR ___t$[ebp]
	add	eax, DWORD PTR ___s$[ebp]
	mov	DWORD PTR ___t$[ebp], eax
	jmp	SHORT $LN2@vector
$LN1@vector:
	pop	edi
	pop	esi
	pop	ebx
	mov	esp, ebp
	pop	ebp
	ret	16					; 00000010H
??_H@YGXPAXIIP6EPAX0@Z@Z ENDP				; `vector constructor iterator'
_TEXT	ENDS
END
