; Listing generated by Microsoft (R) Optimizing Compiler Version 19.00.24247.2 

	TITLE	D:\!DIFFUSION 2020\source code 2022\client-server\client\render\r_light.cpp
	.686P
	.XMM
	include listing.inc
	.model	flat

INCLUDELIB LIBCMT
INCLUDELIB OLDNAMES

PUBLIC	??_H@YGXPAXIIP6EPAX0@Z@Z			; `vector constructor iterator'
PUBLIC	??__G@YGXPAX0IIP6EPAX00@Z@Z			; `vector copy constructor iterator'
PUBLIC	?SinCos@@YAXMPAM0@Z				; SinCos
PUBLIC	??0Vector@@QAE@XZ				; Vector::Vector
PUBLIC	??0Vector@@QAE@MMM@Z				; Vector::Vector
PUBLIC	??0Vector@@QAE@ABV0@@Z				; Vector::Vector
PUBLIC	??8Vector@@QBEHABV0@@Z				; Vector::operator==
PUBLIC	??9Vector@@QBEHABV0@@Z				; Vector::operator!=
PUBLIC	??GVector@@QBE?AV0@ABV0@@Z			; Vector::operator-
PUBLIC	??DVector@@QBE?AV0@M@Z				; Vector::operator*
PUBLIC	??YVector@@QAEAAV0@ABV0@@Z			; Vector::operator+=
PUBLIC	??XVector@@QAEAAV0@M@Z				; Vector::operator*=
PUBLIC	?Length@Vector@@QBEMXZ				; Vector::Length
PUBLIC	??BVector@@QBEPBMXZ				; Vector::operator float const *
PUBLIC	?Normalize@Vector@@QBE?AV1@XZ			; Vector::Normalize
PUBLIC	?DotProduct@@YAMABVVector@@0@Z			; DotProduct
PUBLIC	??0Vector4D@@QAE@XZ				; Vector4D::Vector4D
PUBLIC	??0Vector4D@@QAE@ABV0@@Z			; Vector4D::Vector4D
PUBLIC	??BVector4D@@QAEPAMXZ				; Vector4D::operator float *
PUBLIC	??0matrix4x4@@QAE@ABVVector@@0M@Z		; matrix4x4::matrix4x4
PUBLIC	?ConcatTranslate@matrix4x4@@QAEXMMM@Z		; matrix4x4::ConcatTranslate
PUBLIC	?ConcatRotate@matrix4x4@@QAEXMMMM@Z		; matrix4x4::ConcatRotate
PUBLIC	??0matrix4x4@@QAE@ABV0@@Z			; matrix4x4::matrix4x4
PUBLIC	??0mplane_s@@QAE@XZ				; mplane_s::mplane_s
PUBLIC	?GetPlane@CFrustum@@QBEPBUmplane_s@@H@Z		; CFrustum::GetPlane
PUBLIC	??0CFrustum@@QAE@XZ				; CFrustum::CFrustum
PUBLIC	?R_StudioAttachmentTransform@@YAXPBUcl_entity_s@@HPAVVector@@1H@Z ; R_StudioAttachmentTransform
PUBLIC	??0plight_s@@QAE@XZ				; plight_s::plight_s
PUBLIC	?R_AnimateLight@@YAXXZ				; R_AnimateLight
PUBLIC	?R_PushDlights@@YAXXZ				; R_PushDlights
PUBLIC	?R_CountPlights@@YAH_N@Z			; R_CountPlights
PUBLIC	?R_LightsForPoint@@YA?AVVector@@ABV1@M@Z	; R_LightsForPoint
PUBLIC	?R_GetLightVectors@@YAXPAUcl_entity_s@@AAVVector@@1@Z ; R_GetLightVectors
PUBLIC	?R_SetupLightProjection@@YAXPAUplight_s@@ABVVector@@1MM@Z ; R_SetupLightProjection
PUBLIC	?R_SetupLightProjectionTexture@@YAXPAUplight_s@@PAUcl_entity_s@@@Z ; R_SetupLightProjectionTexture
PUBLIC	?R_SetupLightAttenuationTexture@@YAXPAUplight_s@@H@Z ; R_SetupLightAttenuationTexture
PUBLIC	?CL_AllocPlight@@YAPAUplight_s@@H@Z		; CL_AllocPlight
PUBLIC	?CL_DecayLights@@YAXXZ				; CL_DecayLights
PUBLIC	?CL_ClearPlights@@YAXXZ				; CL_ClearPlights
PUBLIC	?cl_plights@@3PAUplight_s@@A			; cl_plights
PUBLIC	??_C@_03CBDDAJHO@dds?$AA@			; `string'
PUBLIC	??_C@_03LJIJAGL@tga?$AA@			; `string'
PUBLIC	??_C@_03HPMOIGGE@mip?$AA@			; `string'
PUBLIC	??_C@_0BK@BLOJDODF@couldn?8t?5find?5texture?5?$CFs?6?$AA@ ; `string'
PUBLIC	??_C@_03PELOGHMK@?$CFi?6?$AA@			; `string'
PUBLIC	??_C@_0BJ@BLMHNICB@couldn?8t?5find?5sprite?5?$CFs?6?$AA@ ; `string'
PUBLIC	__real@00000000
PUBLIC	__real@0000000000000000
PUBLIC	__real@3c8efa35
PUBLIC	__real@3dcccccd
PUBLIC	__real@3e800000
PUBLIC	__real@3f000000
PUBLIC	__real@3f333333
PUBLIC	__real@3f4ccccd
PUBLIC	__real@3f800000
PUBLIC	__real@3f91df46a2529d39
PUBLIC	__real@3fa00000
PUBLIC	__real@3fc00000
PUBLIC	__real@3ff0000000000000
PUBLIC	__real@400ccccd
PUBLIC	__real@40600000
PUBLIC	__real@41200000
PUBLIC	__real@41b00000
PUBLIC	__real@42b40000
PUBLIC	__real@437f0000
PUBLIC	__real@43800000
PUBLIC	__real@43960000
PUBLIC	__real@44480000
PUBLIC	__real@47800000
PUBLIC	__xmm@80000000800000008000000080000000
EXTRN	_memset:PROC
EXTRN	_cos:PROC
EXTRN	_fmod:PROC
EXTRN	_pow:PROC
EXTRN	_sin:PROC
EXTRN	_sqrt:PROC
EXTRN	??0matrix4x4@@QAE@XZ:PROC			; matrix4x4::matrix4x4
EXTRN	?CreateModelview@matrix4x4@@QAEXXZ:PROC		; matrix4x4::CreateModelview
EXTRN	?CreateProjection@matrix4x4@@QAEXMMMM@Z:PROC	; matrix4x4::CreateProjection
EXTRN	?CreateTranslate@matrix4x4@@QAEXMMM@Z:PROC	; matrix4x4::CreateTranslate
EXTRN	?CreateRotate@matrix4x4@@QAEXMMMM@Z:PROC	; matrix4x4::CreateRotate
EXTRN	??4matrix4x4@@QAEAAV0@ABV0@@Z:PROC		; matrix4x4::operator=
EXTRN	?Concat@matrix4x4@@QAE?AV1@V1@@Z:PROC		; matrix4x4::Concat
EXTRN	?UTIL_FileExtension@@YAPBDPBD@Z:PROC		; UTIL_FileExtension
EXTRN	?Q_strnicmp@@YAHPBD0H@Z:PROC			; Q_strnicmp
EXTRN	?ALERT@@YAXW4ALERT_TYPE@@PADZZ:PROC		; ALERT
EXTRN	?R_ScissorForCorners@@YA_NQBVVector@@PAM111@Z:PROC ; R_ScissorForCorners
EXTRN	?InitProjection@CFrustum@@QAEXABVmatrix4x4@@MMMM@Z:PROC ; CFrustum::InitProjection
EXTRN	?InitBoxFrustum@CFrustum@@QAEXABVVector@@M@Z:PROC ; CFrustum::InitBoxFrustum
EXTRN	?ComputeFrustumBounds@CFrustum@@QAEXAAVVector@@0@Z:PROC ; CFrustum::ComputeFrustumBounds
EXTRN	?ComputeFrustumCorners@CFrustum@@QAEXQAVVector@@@Z:PROC ; CFrustum::ComputeFrustumCorners
EXTRN	?CullSphere@CFrustum@@QAE_NABVVector@@MH@Z:PROC	; CFrustum::CullSphere
EXTRN	?StudioGetAttachment@CStudioModelRenderer@@QAEXPBUcl_entity_s@@HPAVVector@@1H@Z:PROC ; CStudioModelRenderer::StudioGetAttachment
EXTRN	?R_GetSpriteTexture@@YAHPBUmodel_s@@H@Z:PROC	; R_GetSpriteTexture
EXTRN	?R_PrecacheCinematic@@YAHPBD@Z:PROC		; R_PrecacheCinematic
EXTRN	?R_AllocateCinematicTexture@@YAHI@Z:PROC	; R_AllocateCinematicTexture
EXTRN	@__security_check_cookie@4:PROC
EXTRN	?g_vecZero@@3VVector@@B:BYTE			; g_vecZero
EXTRN	?gEngfuncs@@3Ucl_enginefuncs_s@@A:BYTE		; gEngfuncs
EXTRN	?gRenderfuncs@@3Urender_api_s@@A:BYTE		; gRenderfuncs
EXTRN	?g_fRenderInitialized@@3HA:DWORD		; g_fRenderInitialized
EXTRN	?r_fullbright@@3PAUcvar_s@@A:DWORD		; r_fullbright
EXTRN	?r_lighting_modulate@@3PAUcvar_s@@A:DWORD	; r_lighting_modulate
EXTRN	?r_lightstyle_lerping@@3PAUcvar_s@@A:DWORD	; r_lightstyle_lerping
EXTRN	?g_StudioRenderer@@3VCStudioModelRenderer@@A:BYTE ; g_StudioRenderer
EXTRN	?IEngineStudio@@3Uengine_studio_api_s@@A:BYTE	; IEngineStudio
EXTRN	?worldmodel@@3PAUmodel_s@@A:DWORD		; worldmodel
EXTRN	?tr@@3Uref_globals_t@@A:BYTE			; tr
EXTRN	?r_stats@@3Uref_stats_t@@A:BYTE			; r_stats
EXTRN	___security_cookie:DWORD
EXTRN	__fltused:DWORD
_BSS	SEGMENT
?cl_plights@@3PAUplight_s@@A DB 012000H DUP (?)		; cl_plights
_BSS	ENDS
CRT$XCU	SEGMENT
?cl_plights$initializer$@@3P6AXXZA DD FLAT:??__Ecl_plights@@YAXXZ ; cl_plights$initializer$
CRT$XCU	ENDS
;	COMDAT __xmm@80000000800000008000000080000000
CONST	SEGMENT
__xmm@80000000800000008000000080000000 DB 00H, 00H, 00H, 080H, 00H, 00H, 00H
	DB	080H, 00H, 00H, 00H, 080H, 00H, 00H, 00H, 080H
CONST	ENDS
;	COMDAT __real@47800000
CONST	SEGMENT
__real@47800000 DD 047800000r			; 65536
CONST	ENDS
;	COMDAT __real@44480000
CONST	SEGMENT
__real@44480000 DD 044480000r			; 800
CONST	ENDS
;	COMDAT __real@43960000
CONST	SEGMENT
__real@43960000 DD 043960000r			; 300
CONST	ENDS
;	COMDAT __real@43800000
CONST	SEGMENT
__real@43800000 DD 043800000r			; 256
CONST	ENDS
;	COMDAT __real@437f0000
CONST	SEGMENT
__real@437f0000 DD 0437f0000r			; 255
CONST	ENDS
;	COMDAT __real@42b40000
CONST	SEGMENT
__real@42b40000 DD 042b40000r			; 90
CONST	ENDS
;	COMDAT __real@41b00000
CONST	SEGMENT
__real@41b00000 DD 041b00000r			; 22
CONST	ENDS
;	COMDAT __real@41200000
CONST	SEGMENT
__real@41200000 DD 041200000r			; 10
CONST	ENDS
;	COMDAT __real@40600000
CONST	SEGMENT
__real@40600000 DD 040600000r			; 3.5
CONST	ENDS
;	COMDAT __real@400ccccd
CONST	SEGMENT
__real@400ccccd DD 0400ccccdr			; 2.2
CONST	ENDS
;	COMDAT __real@3ff0000000000000
CONST	SEGMENT
__real@3ff0000000000000 DQ 03ff0000000000000r	; 1
CONST	ENDS
;	COMDAT __real@3fc00000
CONST	SEGMENT
__real@3fc00000 DD 03fc00000r			; 1.5
CONST	ENDS
;	COMDAT __real@3fa00000
CONST	SEGMENT
__real@3fa00000 DD 03fa00000r			; 1.25
CONST	ENDS
;	COMDAT __real@3f91df46a2529d39
CONST	SEGMENT
__real@3f91df46a2529d39 DQ 03f91df46a2529d39r	; 0.0174533
CONST	ENDS
;	COMDAT __real@3f800000
CONST	SEGMENT
__real@3f800000 DD 03f800000r			; 1
CONST	ENDS
;	COMDAT __real@3f4ccccd
CONST	SEGMENT
__real@3f4ccccd DD 03f4ccccdr			; 0.8
CONST	ENDS
;	COMDAT __real@3f333333
CONST	SEGMENT
__real@3f333333 DD 03f333333r			; 0.7
CONST	ENDS
;	COMDAT __real@3f000000
CONST	SEGMENT
__real@3f000000 DD 03f000000r			; 0.5
CONST	ENDS
;	COMDAT __real@3e800000
CONST	SEGMENT
__real@3e800000 DD 03e800000r			; 0.25
CONST	ENDS
;	COMDAT __real@3dcccccd
CONST	SEGMENT
__real@3dcccccd DD 03dcccccdr			; 0.1
CONST	ENDS
;	COMDAT __real@3c8efa35
CONST	SEGMENT
__real@3c8efa35 DD 03c8efa35r			; 0.0174533
CONST	ENDS
;	COMDAT __real@0000000000000000
CONST	SEGMENT
__real@0000000000000000 DQ 00000000000000000r	; 0
CONST	ENDS
;	COMDAT __real@00000000
CONST	SEGMENT
__real@00000000 DD 000000000r			; 0
CONST	ENDS
;	COMDAT ??_C@_0BJ@BLMHNICB@couldn?8t?5find?5sprite?5?$CFs?6?$AA@
CONST	SEGMENT
??_C@_0BJ@BLMHNICB@couldn?8t?5find?5sprite?5?$CFs?6?$AA@ DB 'couldn''t fi'
	DB	'nd sprite %s', 0aH, 00H			; `string'
CONST	ENDS
;	COMDAT ??_C@_03PELOGHMK@?$CFi?6?$AA@
CONST	SEGMENT
??_C@_03PELOGHMK@?$CFi?6?$AA@ DB '%i', 0aH, 00H		; `string'
CONST	ENDS
;	COMDAT ??_C@_0BK@BLOJDODF@couldn?8t?5find?5texture?5?$CFs?6?$AA@
CONST	SEGMENT
??_C@_0BK@BLOJDODF@couldn?8t?5find?5texture?5?$CFs?6?$AA@ DB 'couldn''t f'
	DB	'ind texture %s', 0aH, 00H			; `string'
CONST	ENDS
;	COMDAT ??_C@_03HPMOIGGE@mip?$AA@
CONST	SEGMENT
??_C@_03HPMOIGGE@mip?$AA@ DB 'mip', 00H			; `string'
CONST	ENDS
;	COMDAT ??_C@_03LJIJAGL@tga?$AA@
CONST	SEGMENT
??_C@_03LJIJAGL@tga?$AA@ DB 'tga', 00H			; `string'
CONST	ENDS
;	COMDAT ??_C@_03CBDDAJHO@dds?$AA@
CONST	SEGMENT
??_C@_03CBDDAJHO@dds?$AA@ DB 'dds', 00H			; `string'
CONST	ENDS
; Function compile flags: /Odtp /ZI
; File d:\!diffusion 2020\source code 2022\client-server\client\render\r_light.cpp
;	COMDAT ??__Ecl_plights@@YAXXZ
text$di	SEGMENT
??__Ecl_plights@@YAXXZ PROC				; `dynamic initializer for 'cl_plights'', COMDAT

; 32   : plight_t	cl_plights[MAX_PLIGHTS];

	push	ebp
	mov	ebp, esp
	sub	esp, 64					; 00000040H
	push	ebx
	push	esi
	push	edi
	push	OFFSET ??0plight_s@@QAE@XZ
	push	96					; 00000060H
	push	768					; 00000300H
	push	OFFSET ?cl_plights@@3PAUplight_s@@A	; cl_plights
	call	??_H@YGXPAXIIP6EPAX0@Z@Z
	pop	edi
	pop	esi
	pop	ebx
	mov	esp, ebp
	pop	ebp
	ret	0
??__Ecl_plights@@YAXXZ ENDP				; `dynamic initializer for 'cl_plights''
text$di	ENDS
; Function compile flags: /Odtp /ZI
; File d:\!diffusion 2020\source code 2022\client-server\client\render\r_light.cpp
;	COMDAT ?CL_ClearPlights@@YAXXZ
_TEXT	SEGMENT
?CL_ClearPlights@@YAXXZ PROC				; CL_ClearPlights, COMDAT

; 40   : {

	push	ebp
	mov	ebp, esp
	sub	esp, 64					; 00000040H
	push	ebx
	push	esi
	push	edi

; 41   : 	memset( cl_plights, 0, sizeof( cl_plights ));

	push	73728					; 00012000H
	push	0
	push	OFFSET ?cl_plights@@3PAUplight_s@@A	; cl_plights
	call	_memset
	add	esp, 12					; 0000000cH

; 42   : }

	pop	edi
	pop	esi
	pop	ebx
	mov	esp, ebp
	pop	ebp
	ret	0
?CL_ClearPlights@@YAXXZ ENDP				; CL_ClearPlights
_TEXT	ENDS
; Function compile flags: /Odtp /ZI
; File d:\!diffusion 2020\source code 2022\client-server\client\render\r_light.cpp
;	COMDAT ?CL_DecayLights@@YAXXZ
_TEXT	SEGMENT
_i$ = -8						; size = 4
_pl$ = -4						; size = 4
?CL_DecayLights@@YAXXZ PROC				; CL_DecayLights, COMDAT

; 377  : {

	push	ebp
	mov	ebp, esp
	sub	esp, 72					; 00000048H
	push	ebx
	push	esi
	push	edi

; 378  : 	plight_t	*pl;
; 379  : 	int	i;
; 380  : 
; 381  : 	for( i = 0, pl = cl_plights; i < MAX_USER_PLIGHTS; i++, pl++ )

	mov	DWORD PTR _i$[ebp], 0
	mov	DWORD PTR _pl$[ebp], OFFSET ?cl_plights@@3PAUplight_s@@A ; cl_plights
	jmp	SHORT $LN4@CL_DecayLi
$LN2@CL_DecayLi:
	mov	eax, DWORD PTR _i$[ebp]
	add	eax, 1
	mov	DWORD PTR _i$[ebp], eax
	mov	ecx, DWORD PTR _pl$[ebp]
	add	ecx, 768				; 00000300H
	mov	DWORD PTR _pl$[ebp], ecx
$LN4@CL_DecayLi:
	cmp	DWORD PTR _i$[ebp], 64			; 00000040H
	jge	$LN3@CL_DecayLi

; 382  : 	{
; 383  : 		if( !pl->radius ) continue;

	mov	eax, DWORD PTR _pl$[ebp]
	movss	xmm0, DWORD PTR [eax+24]
	ucomiss	xmm0, DWORD PTR __real@00000000
	lahf
	test	ah, 68					; 00000044H
	jp	SHORT $LN5@CL_DecayLi
	jmp	SHORT $LN2@CL_DecayLi
$LN5@CL_DecayLi:

; 384  : 
; 385  : 		pl->radius -= (tr.time - tr.oldtime) * pl->decay;

	movsd	xmm0, QWORD PTR ?tr@@3Uref_globals_t@@A+8
	subsd	xmm0, QWORD PTR ?tr@@3Uref_globals_t@@A+16
	mov	eax, DWORD PTR _pl$[ebp]
	cvtss2sd xmm1, DWORD PTR [eax+36]
	mulsd	xmm0, xmm1
	mov	ecx, DWORD PTR _pl$[ebp]
	cvtss2sd xmm1, DWORD PTR [ecx+24]
	subsd	xmm1, xmm0
	cvtsd2ss xmm0, xmm1
	mov	edx, DWORD PTR _pl$[ebp]
	movss	DWORD PTR [edx+24], xmm0

; 386  : 		if( pl->radius < 0 ) pl->radius = 0;

	mov	eax, DWORD PTR _pl$[ebp]
	xorps	xmm0, xmm0
	comiss	xmm0, DWORD PTR [eax+24]
	jbe	SHORT $LN6@CL_DecayLi
	mov	eax, DWORD PTR _pl$[ebp]
	xorps	xmm0, xmm0
	movss	DWORD PTR [eax+24], xmm0
$LN6@CL_DecayLi:

; 387  : 
; 388  : 		if( pl->die < tr.time || !pl->radius ) 

	mov	eax, DWORD PTR _pl$[ebp]
	cvtss2sd xmm0, DWORD PTR [eax+32]
	movsd	xmm1, QWORD PTR ?tr@@3Uref_globals_t@@A+8
	comisd	xmm1, xmm0
	ja	SHORT $LN8@CL_DecayLi
	mov	eax, DWORD PTR _pl$[ebp]
	movss	xmm0, DWORD PTR [eax+24]
	ucomiss	xmm0, DWORD PTR __real@00000000
	lahf
	test	ah, 68					; 00000044H
	jp	SHORT $LN7@CL_DecayLi
$LN8@CL_DecayLi:

; 389  : 			memset( pl, 0, sizeof( *pl ));

	push	768					; 00000300H
	push	0
	mov	eax, DWORD PTR _pl$[ebp]
	push	eax
	call	_memset
	add	esp, 12					; 0000000cH
$LN7@CL_DecayLi:

; 390  : 	}

	jmp	$LN2@CL_DecayLi
$LN3@CL_DecayLi:

; 391  : }

	pop	edi
	pop	esi
	pop	ebx
	mov	esp, ebp
	pop	ebp
	ret	0
?CL_DecayLights@@YAXXZ ENDP				; CL_DecayLights
_TEXT	ENDS
; Function compile flags: /Odtp /ZI
; File d:\!diffusion 2020\source code 2022\client-server\client\render\r_light.cpp
;	COMDAT ?CL_AllocPlight@@YAPAUplight_s@@H@Z
_TEXT	SEGMENT
_i$ = -8						; size = 4
_pl$ = -4						; size = 4
_key$ = 8						; size = 4
?CL_AllocPlight@@YAPAUplight_s@@H@Z PROC		; CL_AllocPlight, COMDAT

; 52   : {

	push	ebp
	mov	ebp, esp
	sub	esp, 72					; 00000048H
	push	ebx
	push	esi
	push	edi

; 53   : 	plight_t *pl;
; 54   : 	int i;
; 55   : 
; 56   : 	// first look for an exact key match
; 57   : 	if( key != 0 )

	cmp	DWORD PTR _key$[ebp], 0
	je	SHORT $LN3@CL_AllocPl

; 58   : 	{
; 59   : 		for( i = 0, pl = cl_plights; i < MAX_USER_PLIGHTS; i++, pl++ )

	mov	DWORD PTR _i$[ebp], 0
	mov	DWORD PTR _pl$[ebp], OFFSET ?cl_plights@@3PAUplight_s@@A ; cl_plights
	jmp	SHORT $LN4@CL_AllocPl
$LN2@CL_AllocPl:
	mov	eax, DWORD PTR _i$[ebp]
	add	eax, 1
	mov	DWORD PTR _i$[ebp], eax
	mov	ecx, DWORD PTR _pl$[ebp]
	add	ecx, 768				; 00000300H
	mov	DWORD PTR _pl$[ebp], ecx
$LN4@CL_AllocPl:
	cmp	DWORD PTR _i$[ebp], 64			; 00000040H
	jge	SHORT $LN3@CL_AllocPl

; 60   : 		{
; 61   : 			if( pl->key == key )

	mov	eax, DWORD PTR _pl$[ebp]
	mov	ecx, DWORD PTR [eax+40]
	cmp	ecx, DWORD PTR _key$[ebp]
	jne	SHORT $LN9@CL_AllocPl

; 62   : 			{
; 63   : 				// reuse this light
; 64   : 				return pl;

	mov	eax, DWORD PTR _pl$[ebp]
	jmp	$LN1@CL_AllocPl
$LN9@CL_AllocPl:

; 65   : 			}
; 66   : 		}

	jmp	SHORT $LN2@CL_AllocPl
$LN3@CL_AllocPl:

; 67   : 	}
; 68   : 
; 69   : 	// then look for anything else
; 70   : 	for( i = 0, pl = cl_plights; i < MAX_USER_PLIGHTS; i++, pl++ )

	mov	DWORD PTR _i$[ebp], 0
	mov	DWORD PTR _pl$[ebp], OFFSET ?cl_plights@@3PAUplight_s@@A ; cl_plights
	jmp	SHORT $LN7@CL_AllocPl
$LN5@CL_AllocPl:
	mov	eax, DWORD PTR _i$[ebp]
	add	eax, 1
	mov	DWORD PTR _i$[ebp], eax
	mov	ecx, DWORD PTR _pl$[ebp]
	add	ecx, 768				; 00000300H
	mov	DWORD PTR _pl$[ebp], ecx
$LN7@CL_AllocPl:
	cmp	DWORD PTR _i$[ebp], 64			; 00000040H
	jge	SHORT $LN6@CL_AllocPl

; 71   : 	{
; 72   : 		if( pl->die < tr.time && pl->key == 0 )

	mov	eax, DWORD PTR _pl$[ebp]
	cvtss2sd xmm0, DWORD PTR [eax+32]
	movsd	xmm1, QWORD PTR ?tr@@3Uref_globals_t@@A+8
	comisd	xmm1, xmm0
	jbe	SHORT $LN10@CL_AllocPl
	mov	eax, DWORD PTR _pl$[ebp]
	cmp	DWORD PTR [eax+40], 0
	jne	SHORT $LN10@CL_AllocPl

; 73   : 		{
; 74   : 			memset( pl, 0, sizeof( *pl ));

	push	768					; 00000300H
	push	0
	mov	eax, DWORD PTR _pl$[ebp]
	push	eax
	call	_memset
	add	esp, 12					; 0000000cH

; 75   : 			pl->key = key;

	mov	eax, DWORD PTR _pl$[ebp]
	mov	ecx, DWORD PTR _key$[ebp]
	mov	DWORD PTR [eax+40], ecx

; 76   : 
; 77   : 			return pl;

	mov	eax, DWORD PTR _pl$[ebp]
	jmp	SHORT $LN1@CL_AllocPl
$LN10@CL_AllocPl:

; 78   : 		}
; 79   : 	}

	jmp	SHORT $LN5@CL_AllocPl
$LN6@CL_AllocPl:

; 80   : 
; 81   : 	// otherwise grab first dlight
; 82   : 	pl = &cl_plights[0];

	mov	eax, 768				; 00000300H
	imul	ecx, eax, 0
	add	ecx, OFFSET ?cl_plights@@3PAUplight_s@@A ; cl_plights
	mov	DWORD PTR _pl$[ebp], ecx

; 83   : 	memset( pl, 0, sizeof( *pl ));

	push	768					; 00000300H
	push	0
	mov	eax, DWORD PTR _pl$[ebp]
	push	eax
	call	_memset
	add	esp, 12					; 0000000cH

; 84   : 	pl->key = key;

	mov	eax, DWORD PTR _pl$[ebp]
	mov	ecx, DWORD PTR _key$[ebp]
	mov	DWORD PTR [eax+40], ecx

; 85   : 
; 86   : 	return pl;

	mov	eax, DWORD PTR _pl$[ebp]
$LN1@CL_AllocPl:

; 87   : }

	pop	edi
	pop	esi
	pop	ebx
	mov	esp, ebp
	pop	ebp
	ret	0
?CL_AllocPlight@@YAPAUplight_s@@H@Z ENDP		; CL_AllocPlight
_TEXT	ENDS
; Function compile flags: /Odtp /ZI
; File d:\!diffusion 2020\source code 2022\client-server\client\render\r_light.cpp
;	COMDAT ?R_SetupLightAttenuationTexture@@YAXPAUplight_s@@H@Z
_TEXT	SEGMENT
tv84 = -76						; size = 4
tv83 = -72						; size = 4
tv82 = -68						; size = 4
_pl$ = 8						; size = 4
_falloff$ = 12						; size = 4
?R_SetupLightAttenuationTexture@@YAXPAUplight_s@@H@Z PROC ; R_SetupLightAttenuationTexture, COMDAT

; 337  : {	

	push	ebp
	mov	ebp, esp
	sub	esp, 76					; 0000004cH
	push	ebx
	push	esi
	push	edi

; 338  : 	if( pl->pointlight )

	mov	eax, DWORD PTR _pl$[ebp]
	movzx	ecx, BYTE PTR [eax+44]
	test	ecx, ecx
	je	SHORT $LN4@R_SetupLig

; 339  : 	{
; 340  : 		pl->lightFalloff = 2.2f;

	mov	eax, DWORD PTR _pl$[ebp]
	movss	xmm0, DWORD PTR __real@400ccccd
	movss	DWORD PTR [eax+740], xmm0

; 341  : 		return;

	jmp	$LN1@R_SetupLig
$LN4@R_SetupLig:

; 342  : 	}
; 343  : 
; 344  : 	if( falloff <= 0 )

	cmp	DWORD PTR _falloff$[ebp], 0
	jg	$LN5@R_SetupLig

; 345  : 	{
; 346  : 		if( pl->radius <= 300 )

	mov	eax, DWORD PTR _pl$[ebp]
	movss	xmm0, DWORD PTR __real@43960000
	comiss	xmm0, DWORD PTR [eax+24]
	jb	SHORT $LN7@R_SetupLig

; 347  : 			pl->lightFalloff = 3.5f;

	mov	eax, DWORD PTR _pl$[ebp]
	movss	xmm0, DWORD PTR __real@40600000
	movss	DWORD PTR [eax+740], xmm0
	jmp	SHORT $LN11@R_SetupLig
$LN7@R_SetupLig:

; 348  : 		else if( pl->radius > 300 && pl->radius <= 800 )

	mov	eax, DWORD PTR _pl$[ebp]
	movss	xmm0, DWORD PTR [eax+24]
	comiss	xmm0, DWORD PTR __real@43960000
	jbe	SHORT $LN9@R_SetupLig
	mov	eax, DWORD PTR _pl$[ebp]
	movss	xmm0, DWORD PTR __real@44480000
	comiss	xmm0, DWORD PTR [eax+24]
	jb	SHORT $LN9@R_SetupLig

; 349  : 			pl->lightFalloff = 1.5f;

	mov	eax, DWORD PTR _pl$[ebp]
	movss	xmm0, DWORD PTR __real@3fc00000
	movss	DWORD PTR [eax+740], xmm0
	jmp	SHORT $LN11@R_SetupLig
$LN9@R_SetupLig:

; 350  : 		else if( pl->radius > 800 )

	mov	eax, DWORD PTR _pl$[ebp]
	movss	xmm0, DWORD PTR [eax+24]
	comiss	xmm0, DWORD PTR __real@44480000
	jbe	SHORT $LN11@R_SetupLig

; 351  : 			pl->lightFalloff = 0.5f;

	mov	eax, DWORD PTR _pl$[ebp]
	movss	xmm0, DWORD PTR __real@3f000000
	movss	DWORD PTR [eax+740], xmm0
$LN11@R_SetupLig:

; 352  : 	}
; 353  : 	else

	jmp	$LN2@R_SetupLig
$LN5@R_SetupLig:

; 354  : 	{
; 355  : 		switch( bound( 1, falloff, 3 ))

	cmp	DWORD PTR _falloff$[ebp], 1
	jl	SHORT $LN18@R_SetupLig
	cmp	DWORD PTR _falloff$[ebp], 3
	jge	SHORT $LN16@R_SetupLig
	mov	eax, DWORD PTR _falloff$[ebp]
	mov	DWORD PTR tv82[ebp], eax
	jmp	SHORT $LN17@R_SetupLig
$LN16@R_SetupLig:
	mov	DWORD PTR tv82[ebp], 3
$LN17@R_SetupLig:
	mov	ecx, DWORD PTR tv82[ebp]
	mov	DWORD PTR tv83[ebp], ecx
	jmp	SHORT $LN19@R_SetupLig
$LN18@R_SetupLig:
	mov	DWORD PTR tv83[ebp], 1
$LN19@R_SetupLig:
	mov	edx, DWORD PTR tv83[ebp]
	mov	DWORD PTR tv84[ebp], edx
	cmp	DWORD PTR tv84[ebp], 1
	je	SHORT $LN12@R_SetupLig
	cmp	DWORD PTR tv84[ebp], 2
	je	SHORT $LN13@R_SetupLig
	cmp	DWORD PTR tv84[ebp], 3
	je	SHORT $LN14@R_SetupLig
	jmp	SHORT $LN2@R_SetupLig
$LN12@R_SetupLig:

; 356  : 		{
; 357  : 		case 1:
; 358  : 			pl->lightFalloff = 0.5f;

	mov	eax, DWORD PTR _pl$[ebp]
	movss	xmm0, DWORD PTR __real@3f000000
	movss	DWORD PTR [eax+740], xmm0

; 359  : 			break;

	jmp	SHORT $LN2@R_SetupLig
$LN13@R_SetupLig:

; 360  : 		case 2:
; 361  : 			pl->lightFalloff = 1.5f;

	mov	eax, DWORD PTR _pl$[ebp]
	movss	xmm0, DWORD PTR __real@3fc00000
	movss	DWORD PTR [eax+740], xmm0

; 362  : 			break;

	jmp	SHORT $LN2@R_SetupLig
$LN14@R_SetupLig:

; 363  : 		case 3:
; 364  : 			pl->lightFalloff = 3.5f;

	mov	eax, DWORD PTR _pl$[ebp]
	movss	xmm0, DWORD PTR __real@40600000
	movss	DWORD PTR [eax+740], xmm0
$LN2@R_SetupLig:
$LN1@R_SetupLig:

; 365  : 			break;
; 366  : 		}
; 367  : 	}
; 368  : }

	pop	edi
	pop	esi
	pop	ebx
	mov	esp, ebp
	pop	ebp
	ret	0
?R_SetupLightAttenuationTexture@@YAXPAUplight_s@@H@Z ENDP ; R_SetupLightAttenuationTexture
_TEXT	ENDS
; Function compile flags: /Odtp /ZI
; File d:\!diffusion 2020\source code 2022\client-server\client\render\r_light.cpp
;	COMDAT ?R_SetupLightProjectionTexture@@YAXPAUplight_s@@PAUcl_entity_s@@@Z
_TEXT	SEGMENT
_raw$1 = -44						; size = 4
_cin_frame$2 = -40					; size = 4
_cin_time$3 = -36					; size = 4
_cin$4 = -32						; size = 4
_hCin$5 = -28						; size = 4
_cinname$6 = -24					; size = 4
_texture$7 = -20					; size = 4
_handle$8 = -16						; size = 4
_sprname$9 = -12					; size = 4
_ext$10 = -8						; size = 4
_txname$11 = -4						; size = 4
_pl$ = 8						; size = 4
_pEnt$ = 12						; size = 4
?R_SetupLightProjectionTexture@@YAXPAUplight_s@@PAUcl_entity_s@@@Z PROC ; R_SetupLightProjectionTexture, COMDAT

; 225  : {

	push	ebp
	mov	ebp, esp
	sub	esp, 108				; 0000006cH
	push	ebx
	push	esi
	push	edi

; 226  : 	// select the cinematic texture
; 227  : 	if( pl->flags & CF_TEXTURE )

	mov	eax, DWORD PTR _pl$[ebp]
	mov	ecx, DWORD PTR [eax+744]
	and	ecx, 2
	je	$LN2@R_SetupLig

; 228  : 	{
; 229  : 		if( !pl->projectionTexture )

	mov	eax, DWORD PTR _pl$[ebp]
	cmp	DWORD PTR [eax+452], 0
	jne	$LN8@R_SetupLig

; 230  : 		{
; 231  : 			const char* txname = gRenderfuncs.GetFileByIndex(pEnt->curstate.sequence);

	mov	eax, DWORD PTR _pEnt$[ebp]
	mov	ecx, DWORD PTR [eax+732]
	push	ecx
	call	DWORD PTR ?gRenderfuncs@@3Urender_api_s@@A+204
	add	esp, 4
	mov	DWORD PTR _txname$11[ebp], eax

; 232  : 
; 233  : 			if( txname && *txname )

	cmp	DWORD PTR _txname$11[ebp], 0
	je	$LN6@R_SetupLig
	mov	eax, DWORD PTR _txname$11[ebp]
	movsx	ecx, BYTE PTR [eax]
	test	ecx, ecx
	je	SHORT $LN6@R_SetupLig

; 234  : 			{
; 235  : 				const char *ext = UTIL_FileExtension( txname );

	mov	eax, DWORD PTR _txname$11[ebp]
	push	eax
	call	?UTIL_FileExtension@@YAPBDPBD@Z		; UTIL_FileExtension
	add	esp, 4
	mov	DWORD PTR _ext$10[ebp], eax

; 236  : 
; 237  : 				if( !Q_stricmp( ext, "dds" ) || !Q_stricmp( ext, "tga" ) || !Q_stricmp( ext, "mip" ))

	push	99999					; 0001869fH
	push	OFFSET ??_C@_03CBDDAJHO@dds?$AA@
	mov	eax, DWORD PTR _ext$10[ebp]
	push	eax
	call	?Q_strnicmp@@YAHPBD0H@Z			; Q_strnicmp
	add	esp, 12					; 0000000cH
	test	eax, eax
	je	SHORT $LN7@R_SetupLig
	push	99999					; 0001869fH
	push	OFFSET ??_C@_03LJIJAGL@tga?$AA@
	mov	eax, DWORD PTR _ext$10[ebp]
	push	eax
	call	?Q_strnicmp@@YAHPBD0H@Z			; Q_strnicmp
	add	esp, 12					; 0000000cH
	test	eax, eax
	je	SHORT $LN7@R_SetupLig
	push	99999					; 0001869fH
	push	OFFSET ??_C@_03HPMOIGGE@mip?$AA@
	mov	eax, DWORD PTR _ext$10[ebp]
	push	eax
	call	?Q_strnicmp@@YAHPBD0H@Z			; Q_strnicmp
	add	esp, 12					; 0000000cH
	test	eax, eax
	jne	SHORT $LN6@R_SetupLig
$LN7@R_SetupLig:

; 238  : 					pl->projectionTexture = LOAD_TEXTURE(txname, NULL, 0, TF_SPOTLIGHT);

	push	524288					; 00080000H
	push	0
	push	0
	mov	eax, DWORD PTR _txname$11[ebp]
	push	eax
	call	DWORD PTR ?gRenderfuncs@@3Urender_api_s@@A+60
	add	esp, 16					; 00000010H
	mov	ecx, DWORD PTR _pl$[ebp]
	mov	DWORD PTR [ecx+452], eax
$LN6@R_SetupLig:

; 239  : 			}
; 240  : 
; 241  : 			if( !pl->projectionTexture )

	mov	eax, DWORD PTR _pl$[ebp]
	cmp	DWORD PTR [eax+452], 0
	jne	SHORT $LN8@R_SetupLig

; 242  : 			{
; 243  : 				ALERT( at_error, "couldn't find texture %s\n", txname );

	mov	eax, DWORD PTR _txname$11[ebp]
	push	eax
	push	OFFSET ??_C@_0BK@BLOJDODF@couldn?8t?5find?5texture?5?$CFs?6?$AA@
	push	4
	call	?ALERT@@YAXW4ALERT_TYPE@@PADZZ		; ALERT
	add	esp, 12					; 0000000cH

; 244  : 				gEngfuncs.Con_NPrintf(1, "%i\n", pEnt->curstate.sequence);

	mov	eax, DWORD PTR _pEnt$[ebp]
	mov	ecx, DWORD PTR [eax+732]
	push	ecx
	push	OFFSET ??_C@_03PELOGHMK@?$CFi?6?$AA@
	push	1
	call	DWORD PTR ?gEngfuncs@@3Ucl_enginefuncs_s@@A+168
	add	esp, 12					; 0000000cH

; 245  : 				pl->projectionTexture = tr.spotlightTexture;

	mov	eax, DWORD PTR _pl$[ebp]
	mov	ecx, DWORD PTR ?tr@@3Uref_globals_t@@A+5744
	mov	DWORD PTR [eax+452], ecx
$LN8@R_SetupLig:

; 246  : 			}
; 247  : 		}
; 248  : 	}

	jmp	$LN16@R_SetupLig
$LN2@R_SetupLig:

; 249  : 	else if( pl->flags & CF_SPRITE )

	mov	eax, DWORD PTR _pl$[ebp]
	mov	ecx, DWORD PTR [eax+744]
	and	ecx, 4
	je	$LN9@R_SetupLig

; 250  : 	{
; 251  : 		if( !pl->pSprite && !pl->projectionTexture )

	mov	eax, DWORD PTR _pl$[ebp]
	cmp	DWORD PTR [eax+456], 0
	jne	SHORT $LN12@R_SetupLig
	mov	eax, DWORD PTR _pl$[ebp]
	cmp	DWORD PTR [eax+452], 0
	jne	SHORT $LN12@R_SetupLig

; 252  : 		{
; 253  : 			// setup the sprite
; 254  : 			const char *sprname = gRenderfuncs.GetFileByIndex( pEnt->curstate.sequence );

	mov	eax, DWORD PTR _pEnt$[ebp]
	mov	ecx, DWORD PTR [eax+732]
	push	ecx
	call	DWORD PTR ?gRenderfuncs@@3Urender_api_s@@A+204
	add	esp, 4
	mov	DWORD PTR _sprname$9[ebp], eax

; 255  : 			SpriteHandle handle = SPR_LoadEx( sprname, TF_BORDER );

	push	524288					; 00080000H
	mov	eax, DWORD PTR _sprname$9[ebp]
	push	eax
	call	DWORD PTR ?gRenderfuncs@@3Urender_api_s@@A+188
	add	esp, 8
	mov	DWORD PTR _handle$8[ebp], eax

; 256  : 			pl->pSprite = (model_t *)gEngfuncs.GetSpritePointer( handle );

	mov	eax, DWORD PTR _handle$8[ebp]
	push	eax
	call	DWORD PTR ?gEngfuncs@@3Ucl_enginefuncs_s@@A+248
	add	esp, 4
	mov	ecx, DWORD PTR _pl$[ebp]
	mov	DWORD PTR [ecx+456], eax

; 257  : 
; 258  : 			if( !pl->pSprite )

	mov	eax, DWORD PTR _pl$[ebp]
	cmp	DWORD PTR [eax+456], 0
	jne	SHORT $LN12@R_SetupLig

; 259  : 			{
; 260  : 				ALERT( at_error, "couldn't find sprite %s\n", sprname );

	mov	eax, DWORD PTR _sprname$9[ebp]
	push	eax
	push	OFFSET ??_C@_0BJ@BLMHNICB@couldn?8t?5find?5sprite?5?$CFs?6?$AA@
	push	4
	call	?ALERT@@YAXW4ALERT_TYPE@@PADZZ		; ALERT
	add	esp, 12					; 0000000cH

; 261  : 				pl->projectionTexture = tr.spotlightTexture;

	mov	eax, DWORD PTR _pl$[ebp]
	mov	ecx, DWORD PTR ?tr@@3Uref_globals_t@@A+5744
	mov	DWORD PTR [eax+452], ecx
$LN12@R_SetupLig:

; 262  : 			}
; 263  : 		}
; 264  : 
; 265  : 		if( pl->pSprite )

	mov	eax, DWORD PTR _pl$[ebp]
	cmp	DWORD PTR [eax+456], 0
	je	SHORT $LN14@R_SetupLig

; 266  : 		{
; 267  : 			// animate frames!
; 268  : 			int texture = R_GetSpriteTexture( pl->pSprite, pEnt->curstate.frame );

	mov	eax, DWORD PTR _pEnt$[ebp]
	cvttss2si ecx, DWORD PTR [eax+736]
	push	ecx
	mov	edx, DWORD PTR _pl$[ebp]
	mov	eax, DWORD PTR [edx+456]
	push	eax
	call	?R_GetSpriteTexture@@YAHPBUmodel_s@@H@Z	; R_GetSpriteTexture
	add	esp, 8
	mov	DWORD PTR _texture$7[ebp], eax

; 269  : 			if( texture != 0 ) pl->projectionTexture = texture;

	cmp	DWORD PTR _texture$7[ebp], 0
	je	SHORT $LN14@R_SetupLig
	mov	eax, DWORD PTR _pl$[ebp]
	mov	ecx, DWORD PTR _texture$7[ebp]
	mov	DWORD PTR [eax+452], ecx
$LN14@R_SetupLig:

; 270  : 		}
; 271  : 	}

	jmp	$LN16@R_SetupLig
$LN9@R_SetupLig:

; 272  : 	else if( pl->flags & CF_MOVIE )

	mov	eax, DWORD PTR _pl$[ebp]
	mov	ecx, DWORD PTR [eax+744]
	and	ecx, 8
	je	$LN15@R_SetupLig

; 273  : 	{
; 274  : 		if( pl->projectionTexture == tr.spotlightTexture )

	mov	eax, DWORD PTR _pl$[ebp]
	mov	ecx, DWORD PTR [eax+452]
	cmp	ecx, DWORD PTR ?tr@@3Uref_globals_t@@A+5744
	jne	SHORT $LN17@R_SetupLig

; 275  : 			return;	// bad video texture

	jmp	$LN1@R_SetupLig
$LN17@R_SetupLig:

; 276  : 
; 277  : 		// found the corresponding cinstate
; 278  : 		const char *cinname = gRenderfuncs.GetFileByIndex( pEnt->curstate.sequence );

	mov	eax, DWORD PTR _pEnt$[ebp]
	mov	ecx, DWORD PTR [eax+732]
	push	ecx
	call	DWORD PTR ?gRenderfuncs@@3Urender_api_s@@A+204
	add	esp, 4
	mov	DWORD PTR _cinname$6[ebp], eax

; 279  : 		int hCin = R_PrecacheCinematic( cinname );

	mov	eax, DWORD PTR _cinname$6[ebp]
	push	eax
	call	?R_PrecacheCinematic@@YAHPBD@Z		; R_PrecacheCinematic
	add	esp, 4
	mov	DWORD PTR _hCin$5[ebp], eax

; 280  : 
; 281  : 		if( hCin >= 0 && !pl->cinTexturenum )

	cmp	DWORD PTR _hCin$5[ebp], 0
	jl	SHORT $LN18@R_SetupLig
	mov	eax, DWORD PTR _pl$[ebp]
	cmp	DWORD PTR [eax+460], 0
	jne	SHORT $LN18@R_SetupLig

; 282  : 			pl->cinTexturenum = R_AllocateCinematicTexture( TF_SPOTLIGHT );

	push	524288					; 00080000H
	call	?R_AllocateCinematicTexture@@YAHI@Z	; R_AllocateCinematicTexture
	add	esp, 4
	mov	ecx, DWORD PTR _pl$[ebp]
	mov	DWORD PTR [ecx+460], eax
$LN18@R_SetupLig:

; 283  : 
; 284  : 		if( hCin == -1 || pl->cinTexturenum <= 0 || !CIN_IS_ACTIVE( tr.cinematics[hCin].state ))

	cmp	DWORD PTR _hCin$5[ebp], -1
	je	SHORT $LN20@R_SetupLig
	mov	eax, DWORD PTR _pl$[ebp]
	cmp	DWORD PTR [eax+460], 0
	jle	SHORT $LN20@R_SetupLig
	imul	eax, DWORD PTR _hCin$5[ebp], 48
	mov	ecx, DWORD PTR ?tr@@3Uref_globals_t@@A[eax+4764948]
	push	ecx
	call	DWORD PTR ?gRenderfuncs@@3Urender_api_s@@A+116
	add	esp, 4
	test	eax, eax
	jne	SHORT $LN19@R_SetupLig
$LN20@R_SetupLig:

; 285  : 		{
; 286  : 			// cinematic textures limit exceeded or movie not found
; 287  : 			pl->projectionTexture = tr.spotlightTexture;

	mov	eax, DWORD PTR _pl$[ebp]
	mov	ecx, DWORD PTR ?tr@@3Uref_globals_t@@A+5744
	mov	DWORD PTR [eax+452], ecx

; 288  : 			return;

	jmp	$LN1@R_SetupLig
$LN19@R_SetupLig:

; 289  : 		}
; 290  : 
; 291  : 		gl_movie_t *cin = &tr.cinematics[hCin];

	imul	eax, DWORD PTR _hCin$5[ebp], 48
	add	eax, OFFSET ?tr@@3Uref_globals_t@@A+4764916
	mov	DWORD PTR _cin$4[ebp], eax

; 292  : 
; 293  : 		// advances cinematic time
; 294  : 		float cin_time = fmod( pEnt->curstate.fuser2, cin->length );

	mov	eax, DWORD PTR _cin$4[ebp]
	cvtss2sd xmm0, DWORD PTR [eax+36]
	sub	esp, 8
	movsd	QWORD PTR [esp], xmm0
	mov	ecx, DWORD PTR _pEnt$[ebp]
	cvtss2sd xmm0, DWORD PTR [ecx+968]
	sub	esp, 8
	movsd	QWORD PTR [esp], xmm0
	call	_fmod
	add	esp, 16					; 00000010H
	fstp	DWORD PTR _cin_time$3[ebp]

; 295  : 
; 296  : 		// read the next frame
; 297  : 		int cin_frame = CIN_GET_FRAME_NUMBER( cin->state, cin_time );

	push	ecx
	movss	xmm0, DWORD PTR _cin_time$3[ebp]
	movss	DWORD PTR [esp], xmm0
	mov	eax, DWORD PTR _cin$4[ebp]
	mov	ecx, DWORD PTR [eax+32]
	push	ecx
	call	DWORD PTR ?gRenderfuncs@@3Urender_api_s@@A+100
	add	esp, 8
	mov	DWORD PTR _cin_frame$2[ebp], eax

; 298  : 
; 299  : 		if( cin_frame != pl->lastframe )

	mov	eax, DWORD PTR _pl$[ebp]
	mov	ecx, DWORD PTR _cin_frame$2[ebp]
	cmp	ecx, DWORD PTR [eax+464]
	je	SHORT $LN21@R_SetupLig

; 300  : 		{
; 301  : 			// upload the new frame
; 302  : 			byte *raw = CIN_GET_FRAMEDATA( cin->state, cin_frame );

	mov	eax, DWORD PTR _cin_frame$2[ebp]
	push	eax
	mov	ecx, DWORD PTR _cin$4[ebp]
	mov	edx, DWORD PTR [ecx+32]
	push	edx
	call	DWORD PTR ?gRenderfuncs@@3Urender_api_s@@A+104
	add	esp, 8
	mov	DWORD PTR _raw$1[ebp], eax

; 303  : 			CIN_UPLOAD_FRAME( tr.cinTextures[pl->cinTexturenum-1],

	mov	eax, DWORD PTR _raw$1[ebp]
	push	eax
	mov	ecx, DWORD PTR _cin$4[ebp]
	mov	edx, DWORD PTR [ecx+44]
	push	edx
	mov	eax, DWORD PTR _cin$4[ebp]
	mov	ecx, DWORD PTR [eax+40]
	push	ecx
	mov	edx, DWORD PTR _cin$4[ebp]
	mov	eax, DWORD PTR [edx+44]
	push	eax
	mov	ecx, DWORD PTR _cin$4[ebp]
	mov	edx, DWORD PTR [ecx+40]
	push	edx
	mov	eax, DWORD PTR _pl$[ebp]
	mov	ecx, DWORD PTR [eax+460]
	mov	edx, DWORD PTR ?tr@@3Uref_globals_t@@A[ecx*4+4936]
	push	edx
	call	DWORD PTR ?gRenderfuncs@@3Urender_api_s@@A+108
	add	esp, 24					; 00000018H

; 304  : 				cin->xres, cin->yres, cin->xres, cin->yres, raw );
; 305  : 			pl->lastframe = cin_frame;

	mov	eax, DWORD PTR _pl$[ebp]
	mov	ecx, DWORD PTR _cin_frame$2[ebp]
	mov	DWORD PTR [eax+464], ecx
$LN21@R_SetupLig:

; 306  : 		}
; 307  : 
; 308  : 		// have valid cinematic texture
; 309  : 		pl->projectionTexture = tr.cinTextures[pl->cinTexturenum-1];

	mov	eax, DWORD PTR _pl$[ebp]
	mov	ecx, DWORD PTR [eax+460]
	mov	edx, DWORD PTR _pl$[ebp]
	mov	eax, DWORD PTR ?tr@@3Uref_globals_t@@A[ecx*4+4936]
	mov	DWORD PTR [edx+452], eax

; 310  : 	}
; 311  : 	else

	jmp	SHORT $LN16@R_SetupLig
$LN15@R_SetupLig:

; 312  : 	{
; 313  : 		// just use default texture
; 314  : 		pl->projectionTexture = tr.spotlightTexture;

	mov	eax, DWORD PTR _pl$[ebp]
	mov	ecx, DWORD PTR ?tr@@3Uref_globals_t@@A+5744
	mov	DWORD PTR [eax+452], ecx
$LN16@R_SetupLig:

; 315  : 	}
; 316  : 
; 317  : 	// check for valid
; 318  : 	if( pl->projectionTexture <= 0 )

	mov	eax, DWORD PTR _pl$[ebp]
	cmp	DWORD PTR [eax+452], 0
	jg	SHORT $LN22@R_SetupLig

; 319  : 		pl->projectionTexture = tr.spotlightTexture;

	mov	eax, DWORD PTR _pl$[ebp]
	mov	ecx, DWORD PTR ?tr@@3Uref_globals_t@@A+5744
	mov	DWORD PTR [eax+452], ecx
$LN22@R_SetupLig:

; 320  : 
; 321  : 	// set cubemap flag for easy check
; 322  : 	if( RENDER_GET_PARM( PARM_TEX_TARGET, pl->projectionTexture ) == GL_TEXTURE_CUBE_MAP_ARB )

	mov	eax, DWORD PTR _pl$[ebp]
	mov	ecx, DWORD PTR [eax+452]
	push	ecx
	push	8
	call	DWORD PTR ?gRenderfuncs@@3Urender_api_s@@A
	add	esp, 8
	cmp	eax, 34067				; 00008513H
	jne	SHORT $LN23@R_SetupLig

; 323  : 	{
; 324  : 		pl->flags |= CF_CUBEMAP;

	mov	eax, DWORD PTR _pl$[ebp]
	mov	ecx, DWORD PTR [eax+744]
	or	ecx, 128				; 00000080H
	mov	edx, DWORD PTR _pl$[ebp]
	mov	DWORD PTR [edx+744], ecx

; 325  : 		pl->pointlight = true; // in case of

	mov	eax, DWORD PTR _pl$[ebp]
	mov	BYTE PTR [eax+44], 1
$LN23@R_SetupLig:
$LN1@R_SetupLig:

; 326  : 	}
; 327  : }

	pop	edi
	pop	esi
	pop	ebx
	mov	esp, ebp
	pop	ebp
	ret	0
?R_SetupLightProjectionTexture@@YAXPAUplight_s@@PAUcl_entity_s@@@Z ENDP ; R_SetupLightProjectionTexture
_TEXT	ENDS
; Function compile flags: /Odtp /ZI
; File d:\!diffusion 2020\source code 2022\client-server\client\render\r_light.cpp
;	COMDAT ?R_SetupLightProjection@@YAXPAUplight_s@@ABVVector@@1MM@Z
_TEXT	SEGMENT
$T1 = -336						; size = 64
$T2 = -268						; size = 64
$T3 = -204						; size = 64
_projectionView$4 = -76					; size = 64
_fov_y$5 = -12						; size = 4
_fov_x$6 = -8						; size = 4
__$ArrayPad$ = -4					; size = 4
_pl$ = 8						; size = 4
_origin$ = 12						; size = 4
_angles$ = 16						; size = 4
_radius$ = 20						; size = 4
_fov$ = 24						; size = 4
?R_SetupLightProjection@@YAXPAUplight_s@@ABVVector@@1MM@Z PROC ; R_SetupLightProjection, COMDAT

; 147  : {

	push	ebp
	mov	ebp, esp
	sub	esp, 336				; 00000150H
	mov	eax, DWORD PTR ___security_cookie
	xor	eax, ebp
	mov	DWORD PTR __$ArrayPad$[ebp], eax
	push	ebx
	push	esi
	push	edi

; 148  : 	if( pl->brightness == 0 )

	mov	eax, DWORD PTR _pl$[ebp]
	movss	xmm0, DWORD PTR [eax+764]
	ucomiss	xmm0, DWORD PTR __real@00000000
	lahf
	test	ah, 68					; 00000044H
	jp	SHORT $LN2@R_SetupLig

; 149  : 		pl->brightness = 1; // diffusion - set default

	mov	eax, DWORD PTR _pl$[ebp]
	movss	xmm0, DWORD PTR __real@3f800000
	movss	DWORD PTR [eax+764], xmm0
$LN2@R_SetupLig:

; 150  : 	
; 151  : 	if( pl->origin != origin || pl->angles != angles || pl->fov != fov || pl->radius != radius )

	mov	eax, DWORD PTR _origin$[ebp]
	push	eax
	mov	ecx, DWORD PTR _pl$[ebp]
	call	??9Vector@@QBEHABV0@@Z			; Vector::operator!=
	test	eax, eax
	jne	SHORT $LN4@R_SetupLig
	mov	eax, DWORD PTR _angles$[ebp]
	push	eax
	mov	ecx, DWORD PTR _pl$[ebp]
	add	ecx, 12					; 0000000cH
	call	??9Vector@@QBEHABV0@@Z			; Vector::operator!=
	test	eax, eax
	jne	SHORT $LN4@R_SetupLig
	mov	eax, DWORD PTR _pl$[ebp]
	movss	xmm0, DWORD PTR [eax+748]
	ucomiss	xmm0, DWORD PTR _fov$[ebp]
	lahf
	test	ah, 68					; 00000044H
	jp	SHORT $LN4@R_SetupLig
	mov	eax, DWORD PTR _pl$[ebp]
	movss	xmm0, DWORD PTR [eax+24]
	ucomiss	xmm0, DWORD PTR _radius$[ebp]
	lahf
	test	ah, 68					; 00000044H
	jnp	SHORT $LN3@R_SetupLig
$LN4@R_SetupLig:

; 152  : 	{
; 153  : 		pl->origin = origin;

	mov	eax, DWORD PTR _origin$[ebp]
	mov	ecx, DWORD PTR _pl$[ebp]
	mov	edx, DWORD PTR [eax]
	mov	DWORD PTR [ecx], edx
	mov	edx, DWORD PTR [eax+4]
	mov	DWORD PTR [ecx+4], edx
	mov	eax, DWORD PTR [eax+8]
	mov	DWORD PTR [ecx+8], eax

; 154  : 		pl->angles = angles;

	mov	eax, DWORD PTR _pl$[ebp]
	add	eax, 12					; 0000000cH
	mov	ecx, DWORD PTR _angles$[ebp]
	mov	edx, DWORD PTR [ecx]
	mov	DWORD PTR [eax], edx
	mov	edx, DWORD PTR [ecx+4]
	mov	DWORD PTR [eax+4], edx
	mov	ecx, DWORD PTR [ecx+8]
	mov	DWORD PTR [eax+8], ecx

; 155  : 		pl->radius = radius;

	mov	eax, DWORD PTR _pl$[ebp]
	movss	xmm0, DWORD PTR _radius$[ebp]
	movss	DWORD PTR [eax+24], xmm0

; 156  : 		pl->fov = fov;

	mov	eax, DWORD PTR _pl$[ebp]
	movss	xmm0, DWORD PTR _fov$[ebp]
	movss	DWORD PTR [eax+748], xmm0

; 157  : 		pl->update = true;

	mov	eax, DWORD PTR _pl$[ebp]
	mov	BYTE PTR [eax+45], 1
$LN3@R_SetupLig:

; 158  : 	}
; 159  : 
; 160  : 	// update the frustum only if needs
; 161  : 	if( pl->update )

	mov	eax, DWORD PTR _pl$[ebp]
	movzx	ecx, BYTE PTR [eax+45]
	test	ecx, ecx
	je	$LN5@R_SetupLig

; 162  : 	{
; 163  : 		if( pl->pointlight )

	mov	eax, DWORD PTR _pl$[ebp]
	movzx	ecx, BYTE PTR [eax+44]
	test	ecx, ecx
	je	$LN6@R_SetupLig

; 164  : 		{
; 165  : 			pl->modelviewMatrix.CreateModelview();

	mov	ecx, DWORD PTR _pl$[ebp]
	add	ecx, 112				; 00000070H
	call	?CreateModelview@matrix4x4@@QAEXXZ	; matrix4x4::CreateModelview

; 166  : 			pl->viewMatrix = matrix4x4( pl->origin, g_vecZero );

	push	ecx
	movss	xmm0, DWORD PTR __real@3f800000
	movss	DWORD PTR [esp], xmm0
	push	OFFSET ?g_vecZero@@3VVector@@B		; g_vecZero
	mov	eax, DWORD PTR _pl$[ebp]
	push	eax
	lea	ecx, DWORD PTR $T3[ebp]
	call	??0matrix4x4@@QAE@ABVVector@@0M@Z	; matrix4x4::matrix4x4
	push	eax
	mov	ecx, DWORD PTR _pl$[ebp]
	add	ecx, 240				; 000000f0H
	call	??4matrix4x4@@QAEAAV0@ABV0@@Z		; matrix4x4::operator=

; 167  : 			pl->projectionMatrix.CreateProjection( 90.0f, 90.0f, Z_NEAR_LIGHT, pl->radius );

	mov	eax, DWORD PTR _pl$[ebp]
	push	ecx
	movss	xmm0, DWORD PTR [eax+24]
	movss	DWORD PTR [esp], xmm0
	push	ecx
	movss	xmm0, DWORD PTR __real@3dcccccd
	movss	DWORD PTR [esp], xmm0
	push	ecx
	movss	xmm0, DWORD PTR __real@42b40000
	movss	DWORD PTR [esp], xmm0
	push	ecx
	movss	xmm0, DWORD PTR __real@42b40000
	movss	DWORD PTR [esp], xmm0
	mov	ecx, DWORD PTR _pl$[ebp]
	add	ecx, 48					; 00000030H
	call	?CreateProjection@matrix4x4@@QAEXMMMM@Z	; matrix4x4::CreateProjection

; 168  : 
; 169  : 			pl->modelviewMatrix.ConcatTranslate( -pl->origin.x, -pl->origin.y, -pl->origin.z );

	mov	eax, DWORD PTR _pl$[ebp]
	movss	xmm0, DWORD PTR [eax+8]
	xorps	xmm0, DWORD PTR __xmm@80000000800000008000000080000000
	push	ecx
	movss	DWORD PTR [esp], xmm0
	mov	ecx, DWORD PTR _pl$[ebp]
	movss	xmm0, DWORD PTR [ecx+4]
	xorps	xmm0, DWORD PTR __xmm@80000000800000008000000080000000
	push	ecx
	movss	DWORD PTR [esp], xmm0
	mov	edx, DWORD PTR _pl$[ebp]
	movss	xmm0, DWORD PTR [edx]
	xorps	xmm0, DWORD PTR __xmm@80000000800000008000000080000000
	push	ecx
	movss	DWORD PTR [esp], xmm0
	mov	ecx, DWORD PTR _pl$[ebp]
	add	ecx, 112				; 00000070H
	call	?ConcatTranslate@matrix4x4@@QAEXMMM@Z	; matrix4x4::ConcatTranslate

; 170  : 
; 171  : 			pl->frustum.InitBoxFrustum( pl->origin, pl->radius );

	mov	eax, DWORD PTR _pl$[ebp]
	push	ecx
	movss	xmm0, DWORD PTR [eax+24]
	movss	DWORD PTR [esp], xmm0
	mov	ecx, DWORD PTR _pl$[ebp]
	push	ecx
	mov	ecx, DWORD PTR _pl$[ebp]
	add	ecx, 328				; 00000148H
	call	?InitBoxFrustum@CFrustum@@QAEXABVVector@@M@Z ; CFrustum::InitBoxFrustum

; 172  : 			pl->frustum.ComputeFrustumBounds( pl->absmin, pl->absmax );

	mov	eax, DWORD PTR _pl$[ebp]
	add	eax, 316				; 0000013cH
	push	eax
	mov	ecx, DWORD PTR _pl$[ebp]
	add	ecx, 304				; 00000130H
	push	ecx
	mov	ecx, DWORD PTR _pl$[ebp]
	add	ecx, 328				; 00000148H
	call	?ComputeFrustumBounds@CFrustum@@QAEXAAVVector@@0@Z ; CFrustum::ComputeFrustumBounds

; 173  : 		}
; 174  : 		else

	jmp	$LN7@R_SetupLig
$LN6@R_SetupLig:

; 175  : 		{
; 176  : 			float	fov_x, fov_y;
; 177  : 
; 178  : 			// BUGBUG: we use 5:4 aspect not an 4:3 
; 179  : 			if( pl->flags & CF_ASPECT3X4 )

	mov	eax, DWORD PTR _pl$[ebp]
	mov	ecx, DWORD PTR [eax+744]
	and	ecx, 32					; 00000020H
	je	SHORT $LN8@R_SetupLig

; 180  : 				fov_y = pl->fov * (5.0f / 4.0f);

	mov	eax, DWORD PTR _pl$[ebp]
	movss	xmm0, DWORD PTR [eax+748]
	mulss	xmm0, DWORD PTR __real@3fa00000
	movss	DWORD PTR _fov_y$5[ebp], xmm0
	jmp	SHORT $LN11@R_SetupLig
$LN8@R_SetupLig:

; 181  : 			else if( pl->flags & CF_ASPECT4X3 )

	mov	eax, DWORD PTR _pl$[ebp]
	mov	ecx, DWORD PTR [eax+744]
	and	ecx, 16					; 00000010H
	je	SHORT $LN10@R_SetupLig

; 182  : 				fov_y = pl->fov * (4.0f / 5.0f);

	mov	eax, DWORD PTR _pl$[ebp]
	movss	xmm0, DWORD PTR [eax+748]
	mulss	xmm0, DWORD PTR __real@3f4ccccd
	movss	DWORD PTR _fov_y$5[ebp], xmm0

; 183  : 			else

	jmp	SHORT $LN11@R_SetupLig
$LN10@R_SetupLig:

; 184  : 				fov_y = pl->fov;

	mov	eax, DWORD PTR _pl$[ebp]
	movss	xmm0, DWORD PTR [eax+748]
	movss	DWORD PTR _fov_y$5[ebp], xmm0
$LN11@R_SetupLig:

; 185  : 
; 186  : 			// e.g. for fake cinema projectors
; 187  : 			if( FBitSet( pl->flags, CF_FLIPTEXTURE ) )

	mov	eax, DWORD PTR _pl$[ebp]
	mov	ecx, DWORD PTR [eax+744]
	and	ecx, 2048				; 00000800H
	je	SHORT $LN12@R_SetupLig

; 188  : 				fov_x = -pl->fov;

	mov	eax, DWORD PTR _pl$[ebp]
	movss	xmm0, DWORD PTR [eax+748]
	xorps	xmm0, DWORD PTR __xmm@80000000800000008000000080000000
	movss	DWORD PTR _fov_x$6[ebp], xmm0
	jmp	SHORT $LN13@R_SetupLig
$LN12@R_SetupLig:

; 189  : 			else fov_x = pl->fov;

	mov	eax, DWORD PTR _pl$[ebp]
	movss	xmm0, DWORD PTR [eax+748]
	movss	DWORD PTR _fov_x$6[ebp], xmm0
$LN13@R_SetupLig:

; 190  : 
; 191  : 			pl->projectionMatrix.CreateProjection( fov_x, fov_y, Z_NEAR_LIGHT, pl->radius );

	mov	eax, DWORD PTR _pl$[ebp]
	push	ecx
	movss	xmm0, DWORD PTR [eax+24]
	movss	DWORD PTR [esp], xmm0
	push	ecx
	movss	xmm0, DWORD PTR __real@3dcccccd
	movss	DWORD PTR [esp], xmm0
	push	ecx
	movss	xmm0, DWORD PTR _fov_y$5[ebp]
	movss	DWORD PTR [esp], xmm0
	push	ecx
	movss	xmm0, DWORD PTR _fov_x$6[ebp]
	movss	DWORD PTR [esp], xmm0
	mov	ecx, DWORD PTR _pl$[ebp]
	add	ecx, 48					; 00000030H
	call	?CreateProjection@matrix4x4@@QAEXMMMM@Z	; matrix4x4::CreateProjection

; 192  : 			pl->modelviewMatrix.CreateModelview(); // init quake world orientation

	mov	ecx, DWORD PTR _pl$[ebp]
	add	ecx, 112				; 00000070H
	call	?CreateModelview@matrix4x4@@QAEXXZ	; matrix4x4::CreateModelview

; 193  : 
; 194  : 			pl->viewMatrix = matrix4x4( pl->origin, pl->angles );

	push	ecx
	movss	xmm0, DWORD PTR __real@3f800000
	movss	DWORD PTR [esp], xmm0
	mov	eax, DWORD PTR _pl$[ebp]
	add	eax, 12					; 0000000cH
	push	eax
	mov	ecx, DWORD PTR _pl$[ebp]
	push	ecx
	lea	ecx, DWORD PTR $T2[ebp]
	call	??0matrix4x4@@QAE@ABVVector@@0M@Z	; matrix4x4::matrix4x4
	push	eax
	mov	ecx, DWORD PTR _pl$[ebp]
	add	ecx, 240				; 000000f0H
	call	??4matrix4x4@@QAEAAV0@ABV0@@Z		; matrix4x4::operator=

; 195  : 
; 196  : 			// transform projector by position and angles
; 197  : 			pl->modelviewMatrix.ConcatRotate( -pl->angles.z, 1, 0, 0 );

	push	ecx
	xorps	xmm0, xmm0
	movss	DWORD PTR [esp], xmm0
	push	ecx
	xorps	xmm0, xmm0
	movss	DWORD PTR [esp], xmm0
	push	ecx
	movss	xmm0, DWORD PTR __real@3f800000
	movss	DWORD PTR [esp], xmm0
	mov	eax, DWORD PTR _pl$[ebp]
	movss	xmm0, DWORD PTR [eax+20]
	xorps	xmm0, DWORD PTR __xmm@80000000800000008000000080000000
	push	ecx
	movss	DWORD PTR [esp], xmm0
	mov	ecx, DWORD PTR _pl$[ebp]
	add	ecx, 112				; 00000070H
	call	?ConcatRotate@matrix4x4@@QAEXMMMM@Z	; matrix4x4::ConcatRotate

; 198  : 			pl->modelviewMatrix.ConcatRotate( -pl->angles.x, 0, 1, 0 );

	push	ecx
	xorps	xmm0, xmm0
	movss	DWORD PTR [esp], xmm0
	push	ecx
	movss	xmm0, DWORD PTR __real@3f800000
	movss	DWORD PTR [esp], xmm0
	push	ecx
	xorps	xmm0, xmm0
	movss	DWORD PTR [esp], xmm0
	mov	eax, DWORD PTR _pl$[ebp]
	movss	xmm0, DWORD PTR [eax+12]
	xorps	xmm0, DWORD PTR __xmm@80000000800000008000000080000000
	push	ecx
	movss	DWORD PTR [esp], xmm0
	mov	ecx, DWORD PTR _pl$[ebp]
	add	ecx, 112				; 00000070H
	call	?ConcatRotate@matrix4x4@@QAEXMMMM@Z	; matrix4x4::ConcatRotate

; 199  : 			pl->modelviewMatrix.ConcatRotate( -pl->angles.y, 0, 0, 1 );

	push	ecx
	movss	xmm0, DWORD PTR __real@3f800000
	movss	DWORD PTR [esp], xmm0
	push	ecx
	xorps	xmm0, xmm0
	movss	DWORD PTR [esp], xmm0
	push	ecx
	xorps	xmm0, xmm0
	movss	DWORD PTR [esp], xmm0
	mov	eax, DWORD PTR _pl$[ebp]
	movss	xmm0, DWORD PTR [eax+16]
	xorps	xmm0, DWORD PTR __xmm@80000000800000008000000080000000
	push	ecx
	movss	DWORD PTR [esp], xmm0
	mov	ecx, DWORD PTR _pl$[ebp]
	add	ecx, 112				; 00000070H
	call	?ConcatRotate@matrix4x4@@QAEXMMMM@Z	; matrix4x4::ConcatRotate

; 200  : 			pl->modelviewMatrix.ConcatTranslate( -pl->origin.x, -pl->origin.y, -pl->origin.z );

	mov	eax, DWORD PTR _pl$[ebp]
	movss	xmm0, DWORD PTR [eax+8]
	xorps	xmm0, DWORD PTR __xmm@80000000800000008000000080000000
	push	ecx
	movss	DWORD PTR [esp], xmm0
	mov	ecx, DWORD PTR _pl$[ebp]
	movss	xmm0, DWORD PTR [ecx+4]
	xorps	xmm0, DWORD PTR __xmm@80000000800000008000000080000000
	push	ecx
	movss	DWORD PTR [esp], xmm0
	mov	edx, DWORD PTR _pl$[ebp]
	movss	xmm0, DWORD PTR [edx]
	xorps	xmm0, DWORD PTR __xmm@80000000800000008000000080000000
	push	ecx
	movss	DWORD PTR [esp], xmm0
	mov	ecx, DWORD PTR _pl$[ebp]
	add	ecx, 112				; 00000070H
	call	?ConcatTranslate@matrix4x4@@QAEXMMM@Z	; matrix4x4::ConcatTranslate

; 201  : 
; 202  : 			pl->frustum.InitProjection( pl->viewMatrix, Z_NEAR_LIGHT, pl->radius, pl->fov, fov_y );

	push	ecx
	movss	xmm0, DWORD PTR _fov_y$5[ebp]
	movss	DWORD PTR [esp], xmm0
	mov	eax, DWORD PTR _pl$[ebp]
	push	ecx
	movss	xmm0, DWORD PTR [eax+748]
	movss	DWORD PTR [esp], xmm0
	mov	ecx, DWORD PTR _pl$[ebp]
	push	ecx
	movss	xmm0, DWORD PTR [ecx+24]
	movss	DWORD PTR [esp], xmm0
	push	ecx
	movss	xmm0, DWORD PTR __real@3dcccccd
	movss	DWORD PTR [esp], xmm0
	mov	edx, DWORD PTR _pl$[ebp]
	add	edx, 240				; 000000f0H
	push	edx
	mov	ecx, DWORD PTR _pl$[ebp]
	add	ecx, 328				; 00000148H
	call	?InitProjection@CFrustum@@QAEXABVmatrix4x4@@MMMM@Z ; CFrustum::InitProjection

; 203  : 			pl->frustum.ComputeFrustumBounds( pl->absmin, pl->absmax );

	mov	eax, DWORD PTR _pl$[ebp]
	add	eax, 316				; 0000013cH
	push	eax
	mov	ecx, DWORD PTR _pl$[ebp]
	add	ecx, 304				; 00000130H
	push	ecx
	mov	ecx, DWORD PTR _pl$[ebp]
	add	ecx, 328				; 00000148H
	call	?ComputeFrustumBounds@CFrustum@@QAEXAAVVector@@0@Z ; CFrustum::ComputeFrustumBounds
$LN7@R_SetupLig:

; 204  : 
; 205  : 		//	pl->frustum.DisablePlane( FRUSTUM_FAR ); // only use plane.normal // diffusion - this adds too many surfaces. I don't think it was needed.
; 206  : 		}
; 207  : 
; 208  : 		matrix4x4 projectionView;//, m1, s1;

	lea	ecx, DWORD PTR _projectionView$4[ebp]
	call	??0matrix4x4@@QAE@XZ			; matrix4x4::matrix4x4

; 209  : 
; 210  : 		projectionView = pl->projectionMatrix.Concat( pl->modelviewMatrix );

	mov	eax, DWORD PTR _pl$[ebp]
	add	eax, 112				; 00000070H
	sub	esp, 64					; 00000040H
	mov	ecx, esp
	push	eax
	call	??0matrix4x4@@QAE@ABV0@@Z
	lea	ecx, DWORD PTR $T1[ebp]
	push	ecx
	mov	ecx, DWORD PTR _pl$[ebp]
	add	ecx, 48					; 00000030H
	call	?Concat@matrix4x4@@QAE?AV1@V1@@Z	; matrix4x4::Concat
	push	eax
	lea	ecx, DWORD PTR _projectionView$4[ebp]
	call	??4matrix4x4@@QAEAAV0@ABV0@@Z		; matrix4x4::operator=

; 211  : 		pl->lightviewProjMatrix = projectionView;

	lea	eax, DWORD PTR _projectionView$4[ebp]
	push	eax
	mov	ecx, DWORD PTR _pl$[ebp]
	add	ecx, 176				; 000000b0H
	call	??4matrix4x4@@QAEAAV0@ABV0@@Z		; matrix4x4::operator=

; 212  : 
; 213  : 		pl->update = false;

	mov	eax, DWORD PTR _pl$[ebp]
	mov	BYTE PTR [eax+45], 0
$LN5@R_SetupLig:

; 214  : 	}
; 215  : }

	pop	edi
	pop	esi
	pop	ebx
	mov	ecx, DWORD PTR __$ArrayPad$[ebp]
	xor	ecx, ebp
	call	@__security_check_cookie@4
	mov	esp, ebp
	pop	ebp
	ret	0
?R_SetupLightProjection@@YAXPAUplight_s@@ABVVector@@1MM@Z ENDP ; R_SetupLightProjection
_TEXT	ENDS
; Function compile flags: /Odtp /ZI
; File d:\!diffusion 2020\source code 2022\client-server\client\render\r_light.cpp
;	COMDAT ?R_GetLightVectors@@YAXPAUcl_entity_s@@AAVVector@@1@Z
_TEXT	SEGMENT
tv132 = -108						; size = 4
tv131 = -104						; size = 4
$T1 = -100						; size = 12
_viewpos$2 = -24					; size = 12
_num$3 = -12						; size = 4
_pStudioHeader$4 = -8					; size = 4
_pParent$5 = -4						; size = 4
_pEnt$ = 8						; size = 4
_origin$ = 12						; size = 4
_angles$ = 16						; size = 4
?R_GetLightVectors@@YAXPAUcl_entity_s@@AAVVector@@1@Z PROC ; R_GetLightVectors, COMDAT

; 95   : {

	push	ebp
	mov	ebp, esp
	sub	esp, 108				; 0000006cH
	push	ebx
	push	esi
	push	edi

; 96   : 	// fill default case
; 97   : 	origin = pEnt->origin;

	mov	eax, DWORD PTR _pEnt$[ebp]
	add	eax, 2888				; 00000b48H
	mov	ecx, DWORD PTR _origin$[ebp]
	mov	edx, DWORD PTR [eax]
	mov	DWORD PTR [ecx], edx
	mov	edx, DWORD PTR [eax+4]
	mov	DWORD PTR [ecx+4], edx
	mov	eax, DWORD PTR [eax+8]
	mov	DWORD PTR [ecx+8], eax

; 98   : 	angles = pEnt->angles; 

	mov	eax, DWORD PTR _pEnt$[ebp]
	add	eax, 2900				; 00000b54H
	mov	ecx, DWORD PTR _angles$[ebp]
	mov	edx, DWORD PTR [eax]
	mov	DWORD PTR [ecx], edx
	mov	edx, DWORD PTR [eax+4]
	mov	DWORD PTR [ecx+4], edx
	mov	eax, DWORD PTR [eax+8]
	mov	DWORD PTR [ecx+8], eax

; 99   : 
; 100  : 	// try to grab position from attachment
; 101  : 	if( pEnt->curstate.aiment > 0 && pEnt->curstate.movetype == MOVETYPE_FOLLOW )

	mov	eax, DWORD PTR _pEnt$[ebp]
	cmp	DWORD PTR [eax+836], 0
	jle	$LN7@R_GetLight
	mov	eax, DWORD PTR _pEnt$[ebp]
	cmp	DWORD PTR [eax+776], 12			; 0000000cH
	jne	$LN7@R_GetLight

; 102  : 	{
; 103  : 		cl_entity_t *pParent = GET_ENTITY( pEnt->curstate.aiment );

	mov	eax, DWORD PTR _pEnt$[ebp]
	mov	ecx, DWORD PTR [eax+836]
	push	ecx
	call	DWORD PTR ?gEngfuncs@@3Ucl_enginefuncs_s@@A+212
	add	esp, 4
	mov	DWORD PTR _pParent$5[ebp], eax

; 104  : 		studiohdr_t *pStudioHeader = (studiohdr_t *)IEngineStudio.Mod_Extradata( pParent->model );

	mov	eax, DWORD PTR _pParent$5[ebp]
	mov	ecx, DWORD PTR [eax+2964]
	push	ecx
	call	DWORD PTR ?IEngineStudio@@3Uengine_studio_api_s@@A+16
	add	esp, 4
	mov	DWORD PTR _pStudioHeader$4[ebp], eax

; 105  : 
; 106  : 		if( pParent && pParent->model && pStudioHeader != NULL )

	cmp	DWORD PTR _pParent$5[ebp], 0
	je	$LN7@R_GetLight
	mov	eax, DWORD PTR _pParent$5[ebp]
	cmp	DWORD PTR [eax+2964], 0
	je	$LN7@R_GetLight
	cmp	DWORD PTR _pStudioHeader$4[ebp], 0
	je	$LN7@R_GetLight

; 107  : 		{
; 108  : 			// make sure that model really has attachements
; 109  : 			if( pEnt->curstate.body > 0 && ( pStudioHeader && pStudioHeader->numattachments > 0 ))

	mov	eax, DWORD PTR _pEnt$[ebp]
	cmp	DWORD PTR [eax+788], 0
	jle	SHORT $LN4@R_GetLight
	cmp	DWORD PTR _pStudioHeader$4[ebp], 0
	je	SHORT $LN4@R_GetLight
	mov	eax, DWORD PTR _pStudioHeader$4[ebp]
	cmp	DWORD PTR [eax+212], 0
	jle	SHORT $LN4@R_GetLight

; 110  : 			{
; 111  : 				int num = bound( 1, pEnt->curstate.body, MAXSTUDIOATTACHMENTS );

	mov	eax, DWORD PTR _pEnt$[ebp]
	cmp	DWORD PTR [eax+788], 1
	jl	SHORT $LN13@R_GetLight
	mov	ecx, DWORD PTR _pEnt$[ebp]
	cmp	DWORD PTR [ecx+788], 64			; 00000040H
	jge	SHORT $LN11@R_GetLight
	mov	edx, DWORD PTR _pEnt$[ebp]
	mov	eax, DWORD PTR [edx+788]
	mov	DWORD PTR tv131[ebp], eax
	jmp	SHORT $LN12@R_GetLight
$LN11@R_GetLight:
	mov	DWORD PTR tv131[ebp], 64		; 00000040H
$LN12@R_GetLight:
	mov	ecx, DWORD PTR tv131[ebp]
	mov	DWORD PTR tv132[ebp], ecx
	jmp	SHORT $LN14@R_GetLight
$LN13@R_GetLight:
	mov	DWORD PTR tv132[ebp], 1
$LN14@R_GetLight:
	mov	edx, DWORD PTR tv132[ebp]
	mov	DWORD PTR _num$3[ebp], edx

; 112  : 				R_StudioAttachmentTransform( pParent, num - 1, &origin, &angles );

	push	0
	mov	eax, DWORD PTR _angles$[ebp]
	push	eax
	mov	ecx, DWORD PTR _origin$[ebp]
	push	ecx
	mov	edx, DWORD PTR _num$3[ebp]
	sub	edx, 1
	push	edx
	mov	eax, DWORD PTR _pParent$5[ebp]
	push	eax
	call	?R_StudioAttachmentTransform@@YAXPBUcl_entity_s@@HPAVVector@@1H@Z ; R_StudioAttachmentTransform
	add	esp, 20					; 00000014H
	jmp	$LN7@R_GetLight
$LN4@R_GetLight:

; 113  : 			}
; 114  : 			else if( pParent->curstate.movetype == MOVETYPE_STEP )

	mov	eax, DWORD PTR _pParent$5[ebp]
	cmp	DWORD PTR [eax+776], 4
	jne	$LN6@R_GetLight

; 115  : 			{
; 116  : 				origin = pParent->origin;

	mov	eax, DWORD PTR _pParent$5[ebp]
	add	eax, 2888				; 00000b48H
	mov	ecx, DWORD PTR _origin$[ebp]
	mov	edx, DWORD PTR [eax]
	mov	DWORD PTR [ecx], edx
	mov	edx, DWORD PTR [eax+4]
	mov	DWORD PTR [ecx+4], edx
	mov	eax, DWORD PTR [eax+8]
	mov	DWORD PTR [ecx+8], eax

; 117  : 				angles = pParent->angles;

	mov	eax, DWORD PTR _pParent$5[ebp]
	add	eax, 2900				; 00000b54H
	mov	ecx, DWORD PTR _angles$[ebp]
	mov	edx, DWORD PTR [eax]
	mov	DWORD PTR [ecx], edx
	mov	edx, DWORD PTR [eax+4]
	mov	DWORD PTR [ecx+4], edx
	mov	eax, DWORD PTR [eax+8]
	mov	DWORD PTR [ecx+8], eax

; 118  : 
; 119  : 				// add the eye position for monster
; 120  : 				if( FBitSet( pParent->curstate.eflags, EFLAG_SLERP ))

	mov	eax, DWORD PTR _pParent$5[ebp]
	movzx	ecx, BYTE PTR [eax+756]
	and	ecx, 1
	je	SHORT $LN8@R_GetLight

; 121  : 				{
; 122  : 					Vector viewpos = pStudioHeader->eyeposition;

	mov	eax, DWORD PTR _pStudioHeader$4[ebp]
	add	eax, 76					; 0000004cH
	push	eax
	lea	ecx, DWORD PTR _viewpos$2[ebp]
	call	??0Vector@@QAE@ABV0@@Z			; Vector::Vector

; 123  : 					if( viewpos == g_vecZero )

	push	OFFSET ?g_vecZero@@3VVector@@B		; g_vecZero
	lea	ecx, DWORD PTR _viewpos$2[ebp]
	call	??8Vector@@QBEHABV0@@Z			; Vector::operator==
	test	eax, eax
	je	SHORT $LN9@R_GetLight

; 124  : 						viewpos = Vector( 0, 0, 0.1f );	// monster_cockroach

	push	ecx
	movss	xmm0, DWORD PTR __real@3dcccccd
	movss	DWORD PTR [esp], xmm0
	push	ecx
	xorps	xmm0, xmm0
	movss	DWORD PTR [esp], xmm0
	push	ecx
	xorps	xmm0, xmm0
	movss	DWORD PTR [esp], xmm0
	lea	ecx, DWORD PTR $T1[ebp]
	call	??0Vector@@QAE@MMM@Z			; Vector::Vector
	mov	ecx, DWORD PTR [eax]
	mov	DWORD PTR _viewpos$2[ebp], ecx
	mov	edx, DWORD PTR [eax+4]
	mov	DWORD PTR _viewpos$2[ebp+4], edx
	mov	eax, DWORD PTR [eax+8]
	mov	DWORD PTR _viewpos$2[ebp+8], eax
$LN9@R_GetLight:

; 125  : 					origin += viewpos;

	lea	eax, DWORD PTR _viewpos$2[ebp]
	push	eax
	mov	ecx, DWORD PTR _origin$[ebp]
	call	??YVector@@QAEAAV0@ABV0@@Z		; Vector::operator+=
$LN8@R_GetLight:

; 126  : 				}
; 127  : 			} 
; 128  : 			else

	jmp	SHORT $LN7@R_GetLight
$LN6@R_GetLight:

; 129  : 			{
; 130  : 				origin = pParent->origin;

	mov	eax, DWORD PTR _pParent$5[ebp]
	add	eax, 2888				; 00000b48H
	mov	ecx, DWORD PTR _origin$[ebp]
	mov	edx, DWORD PTR [eax]
	mov	DWORD PTR [ecx], edx
	mov	edx, DWORD PTR [eax+4]
	mov	DWORD PTR [ecx+4], edx
	mov	eax, DWORD PTR [eax+8]
	mov	DWORD PTR [ecx+8], eax

; 131  : 				angles = pParent->angles;

	mov	eax, DWORD PTR _pParent$5[ebp]
	add	eax, 2900				; 00000b54H
	mov	ecx, DWORD PTR _angles$[ebp]
	mov	edx, DWORD PTR [eax]
	mov	DWORD PTR [ecx], edx
	mov	edx, DWORD PTR [eax+4]
	mov	DWORD PTR [ecx+4], edx
	mov	eax, DWORD PTR [eax+8]
	mov	DWORD PTR [ecx+8], eax
$LN7@R_GetLight:

; 132  : 			}
; 133  : 		}
; 134  : 	}
; 135  : 	// all other parent types will be attached on the server
; 136  : }

	pop	edi
	pop	esi
	pop	ebx
	mov	esp, ebp
	pop	ebp
	ret	0
?R_GetLightVectors@@YAXPAUcl_entity_s@@AAVVector@@1@Z ENDP ; R_GetLightVectors
_TEXT	ENDS
; Function compile flags: /Odtp /ZI
; File d:\!diffusion 2020\source code 2022\client-server\client\render\r_light.cpp
;	COMDAT ?R_LightsForPoint@@YA?AVVector@@ABV1@M@Z
_TEXT	SEGMENT
tv157 = -216						; size = 8
tv156 = -208						; size = 8
tv334 = -200						; size = 8
tv236 = -196						; size = 4
tv324 = -192						; size = 8
tv235 = -192						; size = 4
tv232 = -188						; size = 4
$T1 = -184						; size = 12
$T2 = -172						; size = 12
$T3 = -160						; size = 12
_f$ = -84						; size = 4
_light$4 = -80						; size = 12
_spotCos$5 = -68					; size = 4
_spotDot$6 = -64					; size = 4
_fov_y$7 = -60						; size = 4
_fov_x$8 = -56						; size = 4
_lightDir$9 = -52					; size = 12
_dist$10 = -40						; size = 4
_dir$11 = -36						; size = 12
_atten$12 = -24						; size = 4
_pl$13 = -20						; size = 4
_lnum$14 = -16						; size = 4
_lightColor$ = -12					; size = 12
___$ReturnUdt$ = 8					; size = 4
_point$ = 12						; size = 4
_radius$ = 16						; size = 4
?R_LightsForPoint@@YA?AVVector@@ABV1@M@Z PROC		; R_LightsForPoint, COMDAT

; 575  : {

	push	ebp
	mov	ebp, esp
	sub	esp, 216				; 000000d8H
	push	ebx
	push	esi
	push	edi

; 576  : 	Vector	lightColor;

	lea	ecx, DWORD PTR _lightColor$[ebp]
	call	??0Vector@@QAE@XZ			; Vector::Vector

; 577  : 
; 578  : 	if( radius <= 0.0f )

	xorps	xmm0, xmm0
	comiss	xmm0, DWORD PTR _radius$[ebp]
	jb	SHORT $LN5@R_LightsFo

; 579  : 		radius = 1.0f;

	movss	xmm0, DWORD PTR __real@3f800000
	movss	DWORD PTR _radius$[ebp], xmm0
$LN5@R_LightsFo:

; 580  : 
; 581  : 	lightColor = g_vecZero;

	mov	eax, DWORD PTR ?g_vecZero@@3VVector@@B
	mov	DWORD PTR _lightColor$[ebp], eax
	mov	ecx, DWORD PTR ?g_vecZero@@3VVector@@B+4
	mov	DWORD PTR _lightColor$[ebp+4], ecx
	mov	edx, DWORD PTR ?g_vecZero@@3VVector@@B+8
	mov	DWORD PTR _lightColor$[ebp+8], edx

; 582  : 
; 583  : 	for( int lnum = 0; lnum < MAX_PLIGHTS; lnum++ )

	mov	DWORD PTR _lnum$14[ebp], 0
	jmp	SHORT $LN4@R_LightsFo
$LN2@R_LightsFo:
	mov	eax, DWORD PTR _lnum$14[ebp]
	add	eax, 1
	mov	DWORD PTR _lnum$14[ebp], eax
$LN4@R_LightsFo:
	cmp	DWORD PTR _lnum$14[ebp], 96		; 00000060H
	jge	$LN3@R_LightsFo

; 584  : 	{
; 585  : 		plight_t *pl = &cl_plights[lnum];

	imul	eax, DWORD PTR _lnum$14[ebp], 768
	add	eax, OFFSET ?cl_plights@@3PAUplight_s@@A ; cl_plights
	mov	DWORD PTR _pl$13[ebp], eax

; 586  : 		float atten = 1.0f;

	movss	xmm0, DWORD PTR __real@3f800000
	movss	DWORD PTR _atten$12[ebp], xmm0

; 587  : 
; 588  : 		if( pl->die < tr.time || !pl->radius )

	mov	eax, DWORD PTR _pl$13[ebp]
	cvtss2sd xmm0, DWORD PTR [eax+32]
	movsd	xmm1, QWORD PTR ?tr@@3Uref_globals_t@@A+8
	comisd	xmm1, xmm0
	ja	SHORT $LN7@R_LightsFo
	mov	eax, DWORD PTR _pl$13[ebp]
	movss	xmm0, DWORD PTR [eax+24]
	ucomiss	xmm0, DWORD PTR __real@00000000
	lahf
	test	ah, 68					; 00000044H
	jp	SHORT $LN6@R_LightsFo
$LN7@R_LightsFo:

; 589  : 			continue;

	jmp	SHORT $LN2@R_LightsFo
$LN6@R_LightsFo:

; 590  : 
; 591  : 		Vector dir = (pl->origin - point);

	mov	eax, DWORD PTR _point$[ebp]
	push	eax
	lea	ecx, DWORD PTR _dir$11[ebp]
	push	ecx
	mov	ecx, DWORD PTR _pl$13[ebp]
	call	??GVector@@QBE?AV0@ABV0@@Z		; Vector::operator-

; 592  : 		float dist = dir.Length();

	lea	ecx, DWORD PTR _dir$11[ebp]
	call	?Length@Vector@@QBEMXZ			; Vector::Length
	fstp	DWORD PTR _dist$10[ebp]

; 593  : 
; 594  : 		if( !dist || dist > ( pl->radius + radius ))

	movss	xmm0, DWORD PTR _dist$10[ebp]
	ucomiss	xmm0, DWORD PTR __real@00000000
	lahf
	test	ah, 68					; 00000044H
	jnp	SHORT $LN9@R_LightsFo
	mov	eax, DWORD PTR _pl$13[ebp]
	movss	xmm0, DWORD PTR [eax+24]
	addss	xmm0, DWORD PTR _radius$[ebp]
	movss	xmm1, DWORD PTR _dist$10[ebp]
	comiss	xmm1, xmm0
	jbe	SHORT $LN8@R_LightsFo
$LN9@R_LightsFo:

; 595  : 			continue;

	jmp	$LN2@R_LightsFo
$LN8@R_LightsFo:

; 596  : 
; 597  : 		if( pl->frustum.CullSphere( point, radius ))

	push	0
	push	ecx
	movss	xmm0, DWORD PTR _radius$[ebp]
	movss	DWORD PTR [esp], xmm0
	mov	eax, DWORD PTR _point$[ebp]
	push	eax
	mov	ecx, DWORD PTR _pl$13[ebp]
	add	ecx, 328				; 00000148H
	call	?CullSphere@CFrustum@@QAE_NABVVector@@MH@Z ; CFrustum::CullSphere
	movzx	ecx, al
	test	ecx, ecx
	je	SHORT $LN10@R_LightsFo

; 598  : 			continue;

	jmp	$LN2@R_LightsFo
$LN10@R_LightsFo:

; 599  : 
; 600  : 		if( pl->lightFalloff > 0.0f )

	mov	eax, DWORD PTR _pl$13[ebp]
	movss	xmm0, DWORD PTR [eax+740]
	comiss	xmm0, DWORD PTR __real@00000000
	jbe	$LN12@R_LightsFo

; 601  : 		{
; 602  : 			atten = 1.0 - saturate( pow( dist * ( 1.0f / pl->radius ), pl->lightFalloff ));

	mov	eax, DWORD PTR _pl$13[ebp]
	cvtss2sd xmm0, DWORD PTR [eax+740]
	sub	esp, 8
	movsd	QWORD PTR [esp], xmm0
	mov	ecx, DWORD PTR _pl$13[ebp]
	movss	xmm0, DWORD PTR __real@3f800000
	divss	xmm0, DWORD PTR [ecx+24]
	mulss	xmm0, DWORD PTR _dist$10[ebp]
	cvtss2sd xmm0, xmm0
	sub	esp, 8
	movsd	QWORD PTR [esp], xmm0
	call	_pow
	add	esp, 16					; 00000010H
	fstp	QWORD PTR tv324[ebp]
	movsd	xmm0, QWORD PTR tv324[ebp]
	comisd	xmm0, QWORD PTR __real@0000000000000000
	jb	$LN23@R_LightsFo
	mov	edx, DWORD PTR _pl$13[ebp]
	cvtss2sd xmm0, DWORD PTR [edx+740]
	sub	esp, 8
	movsd	QWORD PTR [esp], xmm0
	mov	eax, DWORD PTR _pl$13[ebp]
	movss	xmm0, DWORD PTR __real@3f800000
	divss	xmm0, DWORD PTR [eax+24]
	mulss	xmm0, DWORD PTR _dist$10[ebp]
	cvtss2sd xmm0, xmm0
	sub	esp, 8
	movsd	QWORD PTR [esp], xmm0
	call	_pow
	add	esp, 16					; 00000010H
	fstp	QWORD PTR tv334[ebp]
	movsd	xmm0, QWORD PTR __real@3ff0000000000000
	comisd	xmm0, QWORD PTR tv334[ebp]
	jbe	SHORT $LN21@R_LightsFo
	mov	ecx, DWORD PTR _pl$13[ebp]
	cvtss2sd xmm0, DWORD PTR [ecx+740]
	sub	esp, 8
	movsd	QWORD PTR [esp], xmm0
	mov	edx, DWORD PTR _pl$13[ebp]
	movss	xmm0, DWORD PTR __real@3f800000
	divss	xmm0, DWORD PTR [edx+24]
	mulss	xmm0, DWORD PTR _dist$10[ebp]
	cvtss2sd xmm0, xmm0
	sub	esp, 8
	movsd	QWORD PTR [esp], xmm0
	call	_pow
	add	esp, 16					; 00000010H
	fstp	QWORD PTR tv156[ebp]
	jmp	SHORT $LN22@R_LightsFo
$LN21@R_LightsFo:
	movsd	xmm0, QWORD PTR __real@3ff0000000000000
	movsd	QWORD PTR tv156[ebp], xmm0
$LN22@R_LightsFo:
	movsd	xmm0, QWORD PTR tv156[ebp]
	movsd	QWORD PTR tv157[ebp], xmm0
	jmp	SHORT $LN24@R_LightsFo
$LN23@R_LightsFo:
	xorps	xmm0, xmm0
	movsd	QWORD PTR tv157[ebp], xmm0
$LN24@R_LightsFo:
	movsd	xmm0, QWORD PTR __real@3ff0000000000000
	subsd	xmm0, QWORD PTR tv157[ebp]
	cvtsd2ss xmm0, xmm0
	movss	DWORD PTR _atten$12[ebp], xmm0

; 603  : 			if( atten <= 0.0 ) continue; // fast reject

	cvtss2sd xmm0, DWORD PTR _atten$12[ebp]
	xorps	xmm1, xmm1
	comisd	xmm1, xmm0
	jb	SHORT $LN12@R_LightsFo
	jmp	$LN2@R_LightsFo
$LN12@R_LightsFo:

; 604  : 		}
; 605  : 
; 606  : 		if( !pl->pointlight )

	mov	eax, DWORD PTR _pl$13[ebp]
	movzx	ecx, BYTE PTR [eax+44]
	test	ecx, ecx
	jne	$LN18@R_LightsFo

; 607  : 		{
; 608  : 			Vector lightDir = pl->frustum.GetPlane( FRUSTUM_FAR )->normal.Normalize();

	lea	eax, DWORD PTR _lightDir$9[ebp]
	push	eax
	push	4
	mov	ecx, DWORD PTR _pl$13[ebp]
	add	ecx, 328				; 00000148H
	call	?GetPlane@CFrustum@@QBEPBUmplane_s@@H@Z	; CFrustum::GetPlane
	mov	ecx, eax
	call	?Normalize@Vector@@QBE?AV1@XZ		; Vector::Normalize

; 609  : 			float fov_x, fov_y;
; 610  : 
; 611  : 			// BUGBUG: we use 5:4 aspect not an 4:3 
; 612  : 			if( pl->flags & CF_ASPECT3X4 )

	mov	eax, DWORD PTR _pl$13[ebp]
	mov	ecx, DWORD PTR [eax+744]
	and	ecx, 32					; 00000020H
	je	SHORT $LN14@R_LightsFo

; 613  : 				fov_y = pl->fov * (5.0f / 4.0f); 

	mov	eax, DWORD PTR _pl$13[ebp]
	movss	xmm0, DWORD PTR [eax+748]
	mulss	xmm0, DWORD PTR __real@3fa00000
	movss	DWORD PTR _fov_y$7[ebp], xmm0
	jmp	SHORT $LN17@R_LightsFo
$LN14@R_LightsFo:

; 614  : 			else if( pl->flags & CF_ASPECT4X3 )

	mov	eax, DWORD PTR _pl$13[ebp]
	mov	ecx, DWORD PTR [eax+744]
	and	ecx, 16					; 00000010H
	je	SHORT $LN16@R_LightsFo

; 615  : 				fov_y = pl->fov * (4.0f / 5.0f);

	mov	eax, DWORD PTR _pl$13[ebp]
	movss	xmm0, DWORD PTR [eax+748]
	mulss	xmm0, DWORD PTR __real@3f4ccccd
	movss	DWORD PTR _fov_y$7[ebp], xmm0
	jmp	SHORT $LN17@R_LightsFo
$LN16@R_LightsFo:

; 616  : 			else fov_y = pl->fov;

	mov	eax, DWORD PTR _pl$13[ebp]
	movss	xmm0, DWORD PTR [eax+748]
	movss	DWORD PTR _fov_y$7[ebp], xmm0
$LN17@R_LightsFo:

; 617  : 			fov_x = pl->fov;

	mov	eax, DWORD PTR _pl$13[ebp]
	movss	xmm0, DWORD PTR [eax+748]
	movss	DWORD PTR _fov_x$8[ebp], xmm0

; 618  : 
; 619  : 			// spot attenuation
; 620  : 			float spotDot = DotProduct( dir.Normalize(), lightDir );

	lea	eax, DWORD PTR _lightDir$9[ebp]
	push	eax
	lea	ecx, DWORD PTR $T3[ebp]
	push	ecx
	lea	ecx, DWORD PTR _dir$11[ebp]
	call	?Normalize@Vector@@QBE?AV1@XZ		; Vector::Normalize
	push	eax
	call	?DotProduct@@YAMABVVector@@0@Z		; DotProduct
	add	esp, 8
	fstp	DWORD PTR _spotDot$6[ebp]

; 621  : 			fov_x = DEG2RAD( fov_x * 0.25f );

	movss	xmm0, DWORD PTR _fov_x$8[ebp]
	mulss	xmm0, DWORD PTR __real@3e800000
	mulss	xmm0, DWORD PTR __real@3c8efa35
	movss	DWORD PTR _fov_x$8[ebp], xmm0

; 622  : 			fov_y = DEG2RAD( fov_y * 0.25f );

	movss	xmm0, DWORD PTR _fov_y$7[ebp]
	mulss	xmm0, DWORD PTR __real@3e800000
	mulss	xmm0, DWORD PTR __real@3c8efa35
	movss	DWORD PTR _fov_y$7[ebp], xmm0

; 623  : 			float spotCos = cos( fov_x + fov_y );

	movss	xmm0, DWORD PTR _fov_x$8[ebp]
	addss	xmm0, DWORD PTR _fov_y$7[ebp]
	cvtss2sd xmm0, xmm0
	sub	esp, 8
	movsd	QWORD PTR [esp], xmm0
	call	_cos
	add	esp, 8
	fstp	DWORD PTR _spotCos$5[ebp]

; 624  : 			if( spotDot < spotCos ) continue;

	movss	xmm0, DWORD PTR _spotCos$5[ebp]
	comiss	xmm0, DWORD PTR _spotDot$6[ebp]
	jbe	SHORT $LN18@R_LightsFo
	jmp	$LN2@R_LightsFo
$LN18@R_LightsFo:

; 625  : 		}
; 626  : 
; 627  : 		Vector light = Vector( pl->color.r / 255.0f, pl->color.g / 255.0f, pl->color.b / 255.0f );

	mov	eax, DWORD PTR _pl$13[ebp]
	movzx	ecx, BYTE PTR [eax+30]
	cvtsi2ss xmm0, ecx
	divss	xmm0, DWORD PTR __real@437f0000
	push	ecx
	movss	DWORD PTR [esp], xmm0
	mov	edx, DWORD PTR _pl$13[ebp]
	movzx	eax, BYTE PTR [edx+29]
	cvtsi2ss xmm0, eax
	divss	xmm0, DWORD PTR __real@437f0000
	push	ecx
	movss	DWORD PTR [esp], xmm0
	mov	ecx, DWORD PTR _pl$13[ebp]
	movzx	edx, BYTE PTR [ecx+28]
	cvtsi2ss xmm0, edx
	divss	xmm0, DWORD PTR __real@437f0000
	push	ecx
	movss	DWORD PTR [esp], xmm0
	lea	ecx, DWORD PTR _light$4[ebp]
	call	??0Vector@@QAE@MMM@Z			; Vector::Vector

; 628  : 		lightColor += (light * NORMAL_FLATSHADE * atten);

	push	ecx
	movss	xmm0, DWORD PTR _atten$12[ebp]
	movss	DWORD PTR [esp], xmm0
	lea	eax, DWORD PTR $T1[ebp]
	push	eax
	push	ecx
	movss	xmm0, DWORD PTR __real@3f333333
	movss	DWORD PTR [esp], xmm0
	lea	ecx, DWORD PTR $T2[ebp]
	push	ecx
	lea	ecx, DWORD PTR _light$4[ebp]
	call	??DVector@@QBE?AV0@M@Z			; Vector::operator*
	mov	ecx, eax
	call	??DVector@@QBE?AV0@M@Z			; Vector::operator*
	push	eax
	lea	ecx, DWORD PTR _lightColor$[ebp]
	call	??YVector@@QAEAAV0@ABV0@@Z		; Vector::operator+=

; 629  : 	}

	jmp	$LN2@R_LightsFo
$LN3@R_LightsFo:

; 630  : 
; 631  : 	float f = Q_max( Q_max( lightColor.x, lightColor.y ), lightColor.z );

	movss	xmm0, DWORD PTR _lightColor$[ebp]
	comiss	xmm0, DWORD PTR _lightColor$[ebp+4]
	jbe	SHORT $LN25@R_LightsFo
	movss	xmm0, DWORD PTR _lightColor$[ebp]
	movss	DWORD PTR tv232[ebp], xmm0
	jmp	SHORT $LN26@R_LightsFo
$LN25@R_LightsFo:
	movss	xmm0, DWORD PTR _lightColor$[ebp+4]
	movss	DWORD PTR tv232[ebp], xmm0
$LN26@R_LightsFo:
	movss	xmm0, DWORD PTR tv232[ebp]
	comiss	xmm0, DWORD PTR _lightColor$[ebp+8]
	jbe	SHORT $LN29@R_LightsFo
	movss	xmm0, DWORD PTR _lightColor$[ebp]
	comiss	xmm0, DWORD PTR _lightColor$[ebp+4]
	jbe	SHORT $LN27@R_LightsFo
	movss	xmm0, DWORD PTR _lightColor$[ebp]
	movss	DWORD PTR tv235[ebp], xmm0
	jmp	SHORT $LN28@R_LightsFo
$LN27@R_LightsFo:
	movss	xmm0, DWORD PTR _lightColor$[ebp+4]
	movss	DWORD PTR tv235[ebp], xmm0
$LN28@R_LightsFo:
	movss	xmm0, DWORD PTR tv235[ebp]
	movss	DWORD PTR tv236[ebp], xmm0
	jmp	SHORT $LN30@R_LightsFo
$LN29@R_LightsFo:
	movss	xmm0, DWORD PTR _lightColor$[ebp+8]
	movss	DWORD PTR tv236[ebp], xmm0
$LN30@R_LightsFo:
	movss	xmm0, DWORD PTR tv236[ebp]
	movss	DWORD PTR _f$[ebp], xmm0

; 632  : 	if( f > 1.0f ) lightColor *= ( 1.0f / f );

	movss	xmm0, DWORD PTR _f$[ebp]
	comiss	xmm0, DWORD PTR __real@3f800000
	jbe	SHORT $LN19@R_LightsFo
	movss	xmm0, DWORD PTR __real@3f800000
	divss	xmm0, DWORD PTR _f$[ebp]
	push	ecx
	movss	DWORD PTR [esp], xmm0
	lea	ecx, DWORD PTR _lightColor$[ebp]
	call	??XVector@@QAEAAV0@M@Z			; Vector::operator*=
$LN19@R_LightsFo:

; 633  : 
; 634  : 	return lightColor;

	lea	eax, DWORD PTR _lightColor$[ebp]
	push	eax
	mov	ecx, DWORD PTR ___$ReturnUdt$[ebp]
	call	??0Vector@@QAE@ABV0@@Z			; Vector::Vector
	mov	eax, DWORD PTR ___$ReturnUdt$[ebp]

; 635  : }

	pop	edi
	pop	esi
	pop	ebx
	mov	esp, ebp
	pop	ebp
	ret	0
?R_LightsForPoint@@YA?AVVector@@ABV1@M@Z ENDP		; R_LightsForPoint
_TEXT	ENDS
; Function compile flags: /Odtp /ZI
; File d:\!diffusion 2020\source code 2022\client-server\client\render\r_light.cpp
;	COMDAT ?R_CountPlights@@YAH_N@Z
_TEXT	SEGMENT
_pl$1 = -12						; size = 4
_i$2 = -8						; size = 4
_numPlights$ = -4					; size = 4
_countShadowLights$ = 8					; size = 1
?R_CountPlights@@YAH_N@Z PROC				; R_CountPlights, COMDAT

; 399  : {

	push	ebp
	mov	ebp, esp
	sub	esp, 76					; 0000004cH
	push	ebx
	push	esi
	push	edi

; 400  : 	int numPlights = 0;

	mov	DWORD PTR _numPlights$[ebp], 0

; 401  : 
; 402  : 	if( !g_fRenderInitialized )

	cmp	DWORD PTR ?g_fRenderInitialized@@3HA, 0	; g_fRenderInitialized
	jne	SHORT $LN5@R_CountPli

; 403  : 		return 0;

	xor	eax, eax
	jmp	$LN1@R_CountPli
$LN5@R_CountPli:

; 404  : 
; 405  : 	if( !worldmodel->lightdata || r_fullbright->value )

	mov	eax, DWORD PTR ?worldmodel@@3PAUmodel_s@@A ; worldmodel
	cmp	DWORD PTR [eax+380], 0
	je	SHORT $LN7@R_CountPli
	mov	eax, DWORD PTR ?r_fullbright@@3PAUcvar_s@@A ; r_fullbright
	movss	xmm0, DWORD PTR [eax+12]
	ucomiss	xmm0, DWORD PTR __real@00000000
	lahf
	test	ah, 68					; 00000044H
	jnp	SHORT $LN6@R_CountPli
$LN7@R_CountPli:

; 406  : 		return 0;

	xor	eax, eax
	jmp	$LN1@R_CountPli
$LN6@R_CountPli:

; 407  : 
; 408  : 	for( int i = 0; i < MAX_PLIGHTS; i++ )

	mov	DWORD PTR _i$2[ebp], 0
	jmp	SHORT $LN4@R_CountPli
$LN2@R_CountPli:
	mov	eax, DWORD PTR _i$2[ebp]
	add	eax, 1
	mov	DWORD PTR _i$2[ebp], eax
$LN4@R_CountPli:
	cmp	DWORD PTR _i$2[ebp], 96			; 00000060H
	jge	SHORT $LN3@R_CountPli

; 409  : 	{
; 410  : 		plight_t *pl = &cl_plights[i];

	imul	eax, DWORD PTR _i$2[ebp], 768
	add	eax, OFFSET ?cl_plights@@3PAUplight_s@@A ; cl_plights
	mov	DWORD PTR _pl$1[ebp], eax

; 411  : 
; 412  : 		if( pl->die < tr.time || !pl->radius || pl->culled )

	mov	eax, DWORD PTR _pl$1[ebp]
	cvtss2sd xmm0, DWORD PTR [eax+32]
	movsd	xmm1, QWORD PTR ?tr@@3Uref_globals_t@@A+8
	comisd	xmm1, xmm0
	ja	SHORT $LN9@R_CountPli
	mov	eax, DWORD PTR _pl$1[ebp]
	movss	xmm0, DWORD PTR [eax+24]
	ucomiss	xmm0, DWORD PTR __real@00000000
	lahf
	test	ah, 68					; 00000044H
	jnp	SHORT $LN9@R_CountPli
	mov	eax, DWORD PTR _pl$1[ebp]
	movzx	ecx, BYTE PTR [eax+46]
	test	ecx, ecx
	je	SHORT $LN8@R_CountPli
$LN9@R_CountPli:

; 413  : 			continue;

	jmp	SHORT $LN2@R_CountPli
$LN8@R_CountPli:

; 414  : 
; 415  : 		if( (FBitSet( pl->flags, CF_NOSHADOWS )) && countShadowLights )

	mov	eax, DWORD PTR _pl$1[ebp]
	mov	ecx, DWORD PTR [eax+744]
	and	ecx, 1024				; 00000400H
	je	SHORT $LN10@R_CountPli
	movzx	eax, BYTE PTR _countShadowLights$[ebp]
	test	eax, eax
	je	SHORT $LN10@R_CountPli

; 416  : 			continue;

	jmp	SHORT $LN2@R_CountPli
$LN10@R_CountPli:

; 417  : 
; 418  : 		numPlights++;

	mov	eax, DWORD PTR _numPlights$[ebp]
	add	eax, 1
	mov	DWORD PTR _numPlights$[ebp], eax

; 419  : 	}

	jmp	SHORT $LN2@R_CountPli
$LN3@R_CountPli:

; 420  : 	
; 421  : 	return numPlights;

	mov	eax, DWORD PTR _numPlights$[ebp]
$LN1@R_CountPli:

; 422  : }

	pop	edi
	pop	esi
	pop	ebx
	mov	esp, ebp
	pop	ebp
	ret	0
?R_CountPlights@@YAH_N@Z ENDP				; R_CountPlights
_TEXT	ENDS
; Function compile flags: /Odtp /ZI
; File d:\!diffusion 2020\source code 2022\client-server\client\render\r_light.cpp
;	COMDAT ?R_PushDlights@@YAXXZ
_TEXT	SEGMENT
_lnum$ = -112						; size = 4
_dl$ = -108						; size = 4
_pl$ = -104						; size = 4
_bbox$ = -100						; size = 96
__$ArrayPad$ = -4					; size = 4
?R_PushDlights@@YAXXZ PROC				; R_PushDlights, COMDAT

; 432  : {

	push	ebp
	mov	ebp, esp
	sub	esp, 176				; 000000b0H
	mov	eax, DWORD PTR ___security_cookie
	xor	eax, ebp
	mov	DWORD PTR __$ArrayPad$[ebp], eax
	push	ebx
	push	esi
	push	edi

; 433  : 	Vector	bbox[8];

	push	OFFSET ??0Vector@@QAE@XZ		; Vector::Vector
	push	8
	push	12					; 0000000cH
	lea	eax, DWORD PTR _bbox$[ebp]
	push	eax
	call	??_H@YGXPAXIIP6EPAX0@Z@Z

; 434  : 	plight_t	*pl;
; 435  : 	dlight_t	*dl;
; 436  : 	int lnum;
; 437  : 
; 438  : 	for( lnum = 0; lnum < MAX_DLIGHTS; lnum++ )

	mov	DWORD PTR _lnum$[ebp], 0
	jmp	SHORT $LN4@R_PushDlig
$LN2@R_PushDlig:
	mov	eax, DWORD PTR _lnum$[ebp]
	add	eax, 1
	mov	DWORD PTR _lnum$[ebp], eax
$LN4@R_PushDlig:
	cmp	DWORD PTR _lnum$[ebp], 32		; 00000020H
	jge	$LN3@R_PushDlig

; 439  : 	{
; 440  : 		dl = GET_DYNAMIC_LIGHT( lnum );

	mov	eax, DWORD PTR _lnum$[ebp]
	push	eax
	call	DWORD PTR ?gRenderfuncs@@3Urender_api_s@@A+16
	add	esp, 4
	mov	DWORD PTR _dl$[ebp], eax

; 441  : 		pl = &cl_plights[MAX_USER_PLIGHTS+lnum];

	mov	eax, DWORD PTR _lnum$[ebp]
	add	eax, 64					; 00000040H
	imul	ecx, eax, 768
	add	ecx, OFFSET ?cl_plights@@3PAUplight_s@@A ; cl_plights
	mov	DWORD PTR _pl$[ebp], ecx

; 442  : 		
; 443  : 		// NOTE: here we copy dlight settings 'as-is'
; 444  : 		// without reallocating by key because key may
; 445  : 		// be set indirectly without calling CL_AllocDlight
; 446  : 		if( dl->die < tr.time || !dl->radius )

	mov	eax, DWORD PTR _dl$[ebp]
	cvtss2sd xmm0, DWORD PTR [eax+20]
	movsd	xmm1, QWORD PTR ?tr@@3Uref_globals_t@@A+8
	comisd	xmm1, xmm0
	ja	SHORT $LN9@R_PushDlig
	mov	eax, DWORD PTR _dl$[ebp]
	movss	xmm0, DWORD PTR [eax+12]
	ucomiss	xmm0, DWORD PTR __real@00000000
	lahf
	test	ah, 68					; 00000044H
	jp	SHORT $LN8@R_PushDlig
$LN9@R_PushDlig:

; 447  : 		{
; 448  : 			// light is expired. Clear it
; 449  : 			memset( pl, 0, sizeof( *pl ));

	push	768					; 00000300H
	push	0
	mov	eax, DWORD PTR _pl$[ebp]
	push	eax
	call	_memset
	add	esp, 12					; 0000000cH

; 450  : 			continue;

	jmp	SHORT $LN2@R_PushDlig
$LN8@R_PushDlig:

; 451  : 		}
; 452  : 
; 453  : 		pl->key = dl->key;

	mov	eax, DWORD PTR _pl$[ebp]
	mov	ecx, DWORD PTR _dl$[ebp]
	mov	edx, DWORD PTR [ecx+32]
	mov	DWORD PTR [eax+40], edx

; 454  : 		pl->die = dl->die;

	mov	eax, DWORD PTR _pl$[ebp]
	mov	ecx, DWORD PTR _dl$[ebp]
	mov	edx, DWORD PTR [ecx+20]
	mov	DWORD PTR [eax+32], edx

; 455  : 		pl->decay = dl->decay;

	mov	eax, DWORD PTR _pl$[ebp]
	mov	ecx, DWORD PTR _dl$[ebp]
	mov	edx, DWORD PTR [ecx+24]
	mov	DWORD PTR [eax+36], edx

; 456  : 		pl->pointlight = true;

	mov	eax, DWORD PTR _pl$[ebp]
	mov	BYTE PTR [eax+44], 1

; 457  : 		pl->color.r = dl->color.r;

	mov	eax, DWORD PTR _pl$[ebp]
	mov	ecx, DWORD PTR _dl$[ebp]
	mov	dl, BYTE PTR [ecx+16]
	mov	BYTE PTR [eax+28], dl

; 458  : 		pl->color.g = dl->color.g;

	mov	eax, DWORD PTR _pl$[ebp]
	mov	ecx, DWORD PTR _dl$[ebp]
	mov	dl, BYTE PTR [ecx+17]
	mov	BYTE PTR [eax+29], dl

; 459  : 		pl->color.b = dl->color.b;	

	mov	eax, DWORD PTR _pl$[ebp]
	mov	ecx, DWORD PTR _dl$[ebp]
	mov	dl, BYTE PTR [ecx+18]
	mov	BYTE PTR [eax+30], dl

; 460  : 		pl->projectionTexture = tr.whiteCubeTexture;

	mov	eax, DWORD PTR _pl$[ebp]
	mov	ecx, DWORD PTR ?tr@@3Uref_globals_t@@A+5724
	mov	DWORD PTR [eax+452], ecx

; 461  : 			
; 462  : 		R_SetupLightProjection( pl, dl->origin, g_vecZero, dl->radius, 90.0f );

	push	ecx
	movss	xmm0, DWORD PTR __real@42b40000
	movss	DWORD PTR [esp], xmm0
	mov	eax, DWORD PTR _dl$[ebp]
	push	ecx
	movss	xmm0, DWORD PTR [eax+12]
	movss	DWORD PTR [esp], xmm0
	push	OFFSET ?g_vecZero@@3VVector@@B		; g_vecZero
	mov	ecx, DWORD PTR _dl$[ebp]
	push	ecx
	mov	edx, DWORD PTR _pl$[ebp]
	push	edx
	call	?R_SetupLightProjection@@YAXPAUplight_s@@ABVVector@@1MM@Z ; R_SetupLightProjection
	add	esp, 20					; 00000014H

; 463  : 		R_SetupLightAttenuationTexture( pl );

	push	-1
	mov	eax, DWORD PTR _pl$[ebp]
	push	eax
	call	?R_SetupLightAttenuationTexture@@YAXPAUplight_s@@H@Z ; R_SetupLightAttenuationTexture
	add	esp, 8

; 464  : 	}

	jmp	$LN2@R_PushDlig
$LN3@R_PushDlig:

; 465  : 
; 466  : 	// setup light scissors for each viewpass
; 467  : 	for( lnum = 0; lnum < MAX_PLIGHTS; lnum++ )

	mov	DWORD PTR _lnum$[ebp], 0
	jmp	SHORT $LN7@R_PushDlig
$LN5@R_PushDlig:
	mov	eax, DWORD PTR _lnum$[ebp]
	add	eax, 1
	mov	DWORD PTR _lnum$[ebp], eax
$LN7@R_PushDlig:
	cmp	DWORD PTR _lnum$[ebp], 96		; 00000060H
	jge	$LN6@R_PushDlig

; 468  : 	{
; 469  : 		pl = &cl_plights[lnum];

	imul	eax, DWORD PTR _lnum$[ebp], 768
	add	eax, OFFSET ?cl_plights@@3PAUplight_s@@A ; cl_plights
	mov	DWORD PTR _pl$[ebp], eax

; 470  : 
; 471  : 		if( pl->die < tr.time || !pl->radius )

	mov	eax, DWORD PTR _pl$[ebp]
	cvtss2sd xmm0, DWORD PTR [eax+32]
	movsd	xmm1, QWORD PTR ?tr@@3Uref_globals_t@@A+8
	comisd	xmm1, xmm0
	ja	SHORT $LN11@R_PushDlig
	mov	eax, DWORD PTR _pl$[ebp]
	movss	xmm0, DWORD PTR [eax+24]
	ucomiss	xmm0, DWORD PTR __real@00000000
	lahf
	test	ah, 68					; 00000044H
	jp	SHORT $LN10@R_PushDlig
$LN11@R_PushDlig:

; 472  : 			continue;

	jmp	SHORT $LN5@R_PushDlig
$LN10@R_PushDlig:

; 473  : 
; 474  : 		pl->culled = false;

	mov	eax, DWORD PTR _pl$[ebp]
	mov	BYTE PTR [eax+46], 0

; 475  : 		pl->frustum.ComputeFrustumCorners( bbox );

	lea	eax, DWORD PTR _bbox$[ebp]
	push	eax
	mov	ecx, DWORD PTR _pl$[ebp]
	add	ecx, 328				; 00000148H
	call	?ComputeFrustumCorners@CFrustum@@QAEXQAVVector@@@Z ; CFrustum::ComputeFrustumCorners

; 476  : 
; 477  : 		// compute scissor by real frustum corners to get more precision
; 478  : 		if( !R_ScissorForCorners( bbox, &pl->x, &pl->y, &pl->w, &pl->h ))

	mov	eax, DWORD PTR _pl$[ebp]
	add	eax, 736				; 000002e0H
	push	eax
	mov	ecx, DWORD PTR _pl$[ebp]
	add	ecx, 732				; 000002dcH
	push	ecx
	mov	edx, DWORD PTR _pl$[ebp]
	add	edx, 728				; 000002d8H
	push	edx
	mov	eax, DWORD PTR _pl$[ebp]
	add	eax, 724				; 000002d4H
	push	eax
	lea	ecx, DWORD PTR _bbox$[ebp]
	push	ecx
	call	?R_ScissorForCorners@@YA_NQBVVector@@PAM111@Z ; R_ScissorForCorners
	add	esp, 20					; 00000014H
	movzx	edx, al
	test	edx, edx
	jne	SHORT $LN12@R_PushDlig

; 479  : 			pl->culled = true;	// light was culled by scissor

	mov	eax, DWORD PTR _pl$[ebp]
	mov	BYTE PTR [eax+46], 1

; 480  : 		else

	jmp	SHORT $LN13@R_PushDlig
$LN12@R_PushDlig:

; 481  : 			r_stats.c_plights++;

	mov	eax, DWORD PTR ?r_stats@@3Uref_stats_t@@A+64
	add	eax, 1
	mov	DWORD PTR ?r_stats@@3Uref_stats_t@@A+64, eax
$LN13@R_PushDlig:

; 482  : 	}

	jmp	$LN5@R_PushDlig
$LN6@R_PushDlig:

; 483  : }

	pop	edi
	pop	esi
	pop	ebx
	mov	ecx, DWORD PTR __$ArrayPad$[ebp]
	xor	ecx, ebp
	call	@__security_check_cookie@4
	mov	esp, ebp
	pop	ebp
	ret	0
?R_PushDlights@@YAXXZ ENDP				; R_PushDlights
_TEXT	ENDS
; Function compile flags: /Odtp /ZI
; File d:\!diffusion 2020\source code 2022\client-server\client\render\r_light.cpp
;	COMDAT ?R_AnimateLight@@YAXXZ
_TEXT	SEGMENT
_i$1 = -36						; size = 4
_ls$ = -32						; size = 4
_scale$ = -28						; size = 4
_backlerp$ = -24					; size = 4
_lerpfrac$ = -20					; size = 4
_l$ = -16						; size = 4
_clight$ = -12						; size = 4
_flight$ = -8						; size = 4
_k$ = -4						; size = 4
?R_AnimateLight@@YAXXZ PROC				; R_AnimateLight, COMDAT

; 499  : {

	push	ebp
	mov	ebp, esp
	sub	esp, 100				; 00000064H
	push	ebx
	push	esi
	push	edi

; 500  : 	int		k, flight, clight;
; 501  : 	float		l, lerpfrac, backlerp;
; 502  : 	float		scale;
; 503  : 	const lightstyle_t	*ls;
; 504  : 
; 505  : 	if( !worldmodel )

	cmp	DWORD PTR ?worldmodel@@3PAUmodel_s@@A, 0 ; worldmodel
	jne	SHORT $LN5@R_AnimateL

; 506  : 		return;

	jmp	$LN1@R_AnimateL
$LN5@R_AnimateL:

; 507  : 
; 508  : 	scale = r_lighting_modulate->value;

	mov	eax, DWORD PTR ?r_lighting_modulate@@3PAUcvar_s@@A ; r_lighting_modulate
	movss	xmm0, DWORD PTR [eax+12]
	movss	DWORD PTR _scale$[ebp], xmm0

; 509  : 
; 510  : 	// light animations
; 511  : 	// 'm' is normal light, 'a' is no light, 'z' is double bright
; 512  : 	for( int i = 0; i < MAX_LIGHTSTYLES; i++ )

	mov	DWORD PTR _i$1[ebp], 0
	jmp	SHORT $LN4@R_AnimateL
$LN2@R_AnimateL:
	mov	eax, DWORD PTR _i$1[ebp]
	add	eax, 1
	mov	DWORD PTR _i$1[ebp], eax
$LN4@R_AnimateL:
	cmp	DWORD PTR _i$1[ebp], 64			; 00000040H
	jge	$LN3@R_AnimateL

; 513  : 	{
; 514  : 		ls = GET_LIGHTSTYLE( i );

	mov	eax, DWORD PTR _i$1[ebp]
	push	eax
	call	DWORD PTR ?gRenderfuncs@@3Urender_api_s@@A+12
	add	esp, 4
	mov	DWORD PTR _ls$[ebp], eax

; 515  : 
; 516  : 		if( r_fullbright->value || !worldmodel->lightdata )

	mov	eax, DWORD PTR ?r_fullbright@@3PAUcvar_s@@A ; r_fullbright
	movss	xmm0, DWORD PTR [eax+12]
	ucomiss	xmm0, DWORD PTR __real@00000000
	lahf
	test	ah, 68					; 00000044H
	jp	SHORT $LN7@R_AnimateL
	mov	eax, DWORD PTR ?worldmodel@@3PAUmodel_s@@A ; worldmodel
	cmp	DWORD PTR [eax+380], 0
	jne	SHORT $LN6@R_AnimateL
$LN7@R_AnimateL:

; 517  : 		{
; 518  : 			tr.lightstylevalue[i] = 256 * 256;

	mov	eax, DWORD PTR _i$1[ebp]
	mov	DWORD PTR ?tr@@3Uref_globals_t@@A[eax*4+531184], 65536 ; 00010000H

; 519  : 			tr.lightstyles[i] = 256.0f * 256.0f;

	mov	eax, DWORD PTR _i$1[ebp]
	movss	xmm0, DWORD PTR __real@47800000
	movss	DWORD PTR ?tr@@3Uref_globals_t@@A[eax*4+531440], xmm0

; 520  : 			continue;

	jmp	SHORT $LN2@R_AnimateL
$LN6@R_AnimateL:

; 521  : 		}
; 522  : 
; 523  : 		flight = (int)Q_floor( ls->time * 10 );

	mov	eax, DWORD PTR _ls$[ebp]
	movss	xmm0, DWORD PTR [eax+1292]
	mulss	xmm0, DWORD PTR __real@41200000
	cvttss2si ecx, xmm0
	cvtsi2ss xmm0, ecx
	cvttss2si edx, xmm0
	mov	DWORD PTR _flight$[ebp], edx

; 524  : 		clight = (int)Q_ceil( ls->time * 10 );

	mov	eax, DWORD PTR _ls$[ebp]
	movss	xmm0, DWORD PTR [eax+1292]
	mulss	xmm0, DWORD PTR __real@41200000
	addss	xmm0, DWORD PTR __real@3f800000
	cvttss2si ecx, xmm0
	cvtsi2ss xmm0, ecx
	cvttss2si edx, xmm0
	mov	DWORD PTR _clight$[ebp], edx

; 525  : 		lerpfrac = ( ls->time * 10 ) - flight;

	mov	eax, DWORD PTR _ls$[ebp]
	movss	xmm0, DWORD PTR [eax+1292]
	mulss	xmm0, DWORD PTR __real@41200000
	cvtsi2ss xmm1, DWORD PTR _flight$[ebp]
	subss	xmm0, xmm1
	movss	DWORD PTR _lerpfrac$[ebp], xmm0

; 526  : 		backlerp = 1.0f - lerpfrac;

	movss	xmm0, DWORD PTR __real@3f800000
	subss	xmm0, DWORD PTR _lerpfrac$[ebp]
	movss	DWORD PTR _backlerp$[ebp], xmm0

; 527  : 
; 528  : 		if( !ls->length )

	mov	eax, DWORD PTR _ls$[ebp]
	cmp	DWORD PTR [eax+1280], 0
	jne	SHORT $LN8@R_AnimateL

; 529  : 		{
; 530  : 			tr.lightstylevalue[i] = 256 * scale;

	movss	xmm0, DWORD PTR __real@43800000
	mulss	xmm0, DWORD PTR _scale$[ebp]
	cvttss2si eax, xmm0
	mov	ecx, DWORD PTR _i$1[ebp]
	mov	DWORD PTR ?tr@@3Uref_globals_t@@A[ecx*4+531184], eax

; 531  : 			tr.lightstyles[i] = 256.0f * scale;

	movss	xmm0, DWORD PTR __real@43800000
	mulss	xmm0, DWORD PTR _scale$[ebp]
	mov	eax, DWORD PTR _i$1[ebp]
	movss	DWORD PTR ?tr@@3Uref_globals_t@@A[eax*4+531440], xmm0

; 532  : 			continue;

	jmp	$LN2@R_AnimateL
	jmp	$LN12@R_AnimateL
$LN8@R_AnimateL:

; 533  : 		}
; 534  : 		else if( ls->length == 1 )

	mov	eax, DWORD PTR _ls$[ebp]
	cmp	DWORD PTR [eax+1280], 1
	jne	SHORT $LN10@R_AnimateL

; 535  : 		{
; 536  : 			// single length style so don't bother interpolating
; 537  : 			tr.lightstylevalue[i] = ls->map[0] * 22 * scale;

	mov	eax, 4
	imul	ecx, eax, 0
	mov	edx, DWORD PTR _ls$[ebp]
	movss	xmm0, DWORD PTR [edx+ecx+256]
	mulss	xmm0, DWORD PTR __real@41b00000
	mulss	xmm0, DWORD PTR _scale$[ebp]
	cvttss2si eax, xmm0
	mov	ecx, DWORD PTR _i$1[ebp]
	mov	DWORD PTR ?tr@@3Uref_globals_t@@A[ecx*4+531184], eax

; 538  : 			tr.lightstyles[i] = ls->map[0] * 22.0f * scale;

	mov	eax, 4
	imul	ecx, eax, 0
	mov	edx, DWORD PTR _ls$[ebp]
	movss	xmm0, DWORD PTR [edx+ecx+256]
	mulss	xmm0, DWORD PTR __real@41b00000
	mulss	xmm0, DWORD PTR _scale$[ebp]
	mov	eax, DWORD PTR _i$1[ebp]
	movss	DWORD PTR ?tr@@3Uref_globals_t@@A[eax*4+531440], xmm0

; 539  : 			continue;

	jmp	$LN2@R_AnimateL
	jmp	$LN12@R_AnimateL
$LN10@R_AnimateL:

; 540  : 		}
; 541  : 		else if( !ls->interp || !r_lightstyle_lerping->value )

	mov	eax, DWORD PTR _ls$[ebp]
	cmp	DWORD PTR [eax+1288], 0
	je	SHORT $LN13@R_AnimateL
	mov	eax, DWORD PTR ?r_lightstyle_lerping@@3PAUcvar_s@@A ; r_lightstyle_lerping
	movss	xmm0, DWORD PTR [eax+12]
	ucomiss	xmm0, DWORD PTR __real@00000000
	lahf
	test	ah, 68					; 00000044H
	jp	SHORT $LN12@R_AnimateL
$LN13@R_AnimateL:

; 542  : 		{
; 543  : 			tr.lightstylevalue[i] = ls->map[flight%ls->length] * 22 * scale;

	mov	ecx, DWORD PTR _ls$[ebp]
	mov	eax, DWORD PTR _flight$[ebp]
	cdq
	idiv	DWORD PTR [ecx+1280]
	mov	eax, DWORD PTR _ls$[ebp]
	movss	xmm0, DWORD PTR [eax+edx*4+256]
	mulss	xmm0, DWORD PTR __real@41b00000
	mulss	xmm0, DWORD PTR _scale$[ebp]
	cvttss2si ecx, xmm0
	mov	edx, DWORD PTR _i$1[ebp]
	mov	DWORD PTR ?tr@@3Uref_globals_t@@A[edx*4+531184], ecx

; 544  : 			tr.lightstyles[i] = ls->map[flight%ls->length] * 22.0f * scale;

	mov	ecx, DWORD PTR _ls$[ebp]
	mov	eax, DWORD PTR _flight$[ebp]
	cdq
	idiv	DWORD PTR [ecx+1280]
	mov	eax, DWORD PTR _ls$[ebp]
	movss	xmm0, DWORD PTR [eax+edx*4+256]
	mulss	xmm0, DWORD PTR __real@41b00000
	mulss	xmm0, DWORD PTR _scale$[ebp]
	mov	ecx, DWORD PTR _i$1[ebp]
	movss	DWORD PTR ?tr@@3Uref_globals_t@@A[ecx*4+531440], xmm0

; 545  : 			continue;

	jmp	$LN2@R_AnimateL
$LN12@R_AnimateL:

; 546  : 		}
; 547  : 
; 548  : 		// interpolate animating light
; 549  : 		// frame just gone
; 550  : 		k = ls->map[flight % ls->length];

	mov	ecx, DWORD PTR _ls$[ebp]
	mov	eax, DWORD PTR _flight$[ebp]
	cdq
	idiv	DWORD PTR [ecx+1280]
	mov	eax, DWORD PTR _ls$[ebp]
	cvttss2si ecx, DWORD PTR [eax+edx*4+256]
	mov	DWORD PTR _k$[ebp], ecx

; 551  : 		l = (float)( k * 22.0f ) * backlerp;

	cvtsi2ss xmm0, DWORD PTR _k$[ebp]
	mulss	xmm0, DWORD PTR __real@41b00000
	mulss	xmm0, DWORD PTR _backlerp$[ebp]
	movss	DWORD PTR _l$[ebp], xmm0

; 552  : 
; 553  : 		// upcoming frame
; 554  : 		k = ls->map[clight % ls->length];

	mov	ecx, DWORD PTR _ls$[ebp]
	mov	eax, DWORD PTR _clight$[ebp]
	cdq
	idiv	DWORD PTR [ecx+1280]
	mov	eax, DWORD PTR _ls$[ebp]
	cvttss2si ecx, DWORD PTR [eax+edx*4+256]
	mov	DWORD PTR _k$[ebp], ecx

; 555  : 		l += (float)( k * 22.0f ) * lerpfrac;

	cvtsi2ss xmm0, DWORD PTR _k$[ebp]
	mulss	xmm0, DWORD PTR __real@41b00000
	mulss	xmm0, DWORD PTR _lerpfrac$[ebp]
	addss	xmm0, DWORD PTR _l$[ebp]
	movss	DWORD PTR _l$[ebp], xmm0

; 556  : 
; 557  : 		tr.lightstylevalue[i] = (int)l * scale;

	cvttss2si eax, DWORD PTR _l$[ebp]
	cvtsi2ss xmm0, eax
	mulss	xmm0, DWORD PTR _scale$[ebp]
	cvttss2si ecx, xmm0
	mov	edx, DWORD PTR _i$1[ebp]
	mov	DWORD PTR ?tr@@3Uref_globals_t@@A[edx*4+531184], ecx

; 558  : 		tr.lightstyles[i] = l * scale;

	movss	xmm0, DWORD PTR _l$[ebp]
	mulss	xmm0, DWORD PTR _scale$[ebp]
	mov	eax, DWORD PTR _i$1[ebp]
	movss	DWORD PTR ?tr@@3Uref_globals_t@@A[eax*4+531440], xmm0

; 559  : 	}

	jmp	$LN2@R_AnimateL
$LN3@R_AnimateL:
$LN1@R_AnimateL:

; 560  : }

	pop	edi
	pop	esi
	pop	ebx
	mov	esp, ebp
	pop	ebp
	ret	0
?R_AnimateLight@@YAXXZ ENDP				; R_AnimateLight
_TEXT	ENDS
; Function compile flags: /Odtp /ZI
;	COMDAT ??0plight_s@@QAE@XZ
_TEXT	SEGMENT
_this$ = -4						; size = 4
??0plight_s@@QAE@XZ PROC				; plight_s::plight_s, COMDAT
; _this$ = ecx
	push	ebp
	mov	ebp, esp
	sub	esp, 68					; 00000044H
	push	ebx
	push	esi
	push	edi
	mov	DWORD PTR _this$[ebp], ecx
	mov	ecx, DWORD PTR _this$[ebp]
	call	??0Vector@@QAE@XZ			; Vector::Vector
	mov	ecx, DWORD PTR _this$[ebp]
	add	ecx, 12					; 0000000cH
	call	??0Vector@@QAE@XZ			; Vector::Vector
	mov	ecx, DWORD PTR _this$[ebp]
	add	ecx, 48					; 00000030H
	call	??0matrix4x4@@QAE@XZ			; matrix4x4::matrix4x4
	mov	ecx, DWORD PTR _this$[ebp]
	add	ecx, 112				; 00000070H
	call	??0matrix4x4@@QAE@XZ			; matrix4x4::matrix4x4
	mov	ecx, DWORD PTR _this$[ebp]
	add	ecx, 176				; 000000b0H
	call	??0matrix4x4@@QAE@XZ			; matrix4x4::matrix4x4
	mov	ecx, DWORD PTR _this$[ebp]
	add	ecx, 240				; 000000f0H
	call	??0matrix4x4@@QAE@XZ			; matrix4x4::matrix4x4
	mov	ecx, DWORD PTR _this$[ebp]
	add	ecx, 304				; 00000130H
	call	??0Vector@@QAE@XZ			; Vector::Vector
	mov	ecx, DWORD PTR _this$[ebp]
	add	ecx, 316				; 0000013cH
	call	??0Vector@@QAE@XZ			; Vector::Vector
	mov	ecx, DWORD PTR _this$[ebp]
	add	ecx, 328				; 00000148H
	call	??0CFrustum@@QAE@XZ
	mov	eax, DWORD PTR _this$[ebp]
	pop	edi
	pop	esi
	pop	ebx
	mov	esp, ebp
	pop	ebp
	ret	0
??0plight_s@@QAE@XZ ENDP				; plight_s::plight_s
_TEXT	ENDS
; Function compile flags: /Odtp /ZI
; File d:\!diffusion 2020\source code 2022\client-server\client\render\r_studio.h
;	COMDAT ?R_StudioAttachmentTransform@@YAXPBUcl_entity_s@@HPAVVector@@1H@Z
_TEXT	SEGMENT
_ent$ = 8						; size = 4
_num$ = 12						; size = 4
_origin$ = 16						; size = 4
_angles$ = 20						; size = 4
_flags$ = 24						; size = 4
?R_StudioAttachmentTransform@@YAXPBUcl_entity_s@@HPAVVector@@1H@Z PROC ; R_StudioAttachmentTransform, COMDAT

; 740  : {

	push	ebp
	mov	ebp, esp
	sub	esp, 64					; 00000040H
	push	ebx
	push	esi
	push	edi

; 741  : 	g_StudioRenderer.StudioGetAttachment( ent, num, origin, angles, flags );

	mov	eax, DWORD PTR _flags$[ebp]
	push	eax
	mov	ecx, DWORD PTR _angles$[ebp]
	push	ecx
	mov	edx, DWORD PTR _origin$[ebp]
	push	edx
	mov	eax, DWORD PTR _num$[ebp]
	push	eax
	mov	ecx, DWORD PTR _ent$[ebp]
	push	ecx
	mov	ecx, OFFSET ?g_StudioRenderer@@3VCStudioModelRenderer@@A ; g_StudioRenderer
	call	?StudioGetAttachment@CStudioModelRenderer@@QAEXPBUcl_entity_s@@HPAVVector@@1H@Z ; CStudioModelRenderer::StudioGetAttachment

; 742  : }

	pop	edi
	pop	esi
	pop	ebx
	mov	esp, ebp
	pop	ebp
	ret	0
?R_StudioAttachmentTransform@@YAXPBUcl_entity_s@@HPAVVector@@1H@Z ENDP ; R_StudioAttachmentTransform
_TEXT	ENDS
; Function compile flags: /Odtp /ZI
;	COMDAT ??0CFrustum@@QAE@XZ
_TEXT	SEGMENT
_this$ = -4						; size = 4
??0CFrustum@@QAE@XZ PROC				; CFrustum::CFrustum, COMDAT
; _this$ = ecx
	push	ebp
	mov	ebp, esp
	sub	esp, 68					; 00000044H
	push	ebx
	push	esi
	push	edi
	mov	DWORD PTR _this$[ebp], ecx
	push	OFFSET ??0mplane_s@@QAE@XZ
	push	6
	push	20					; 00000014H
	mov	eax, DWORD PTR _this$[ebp]
	push	eax
	call	??_H@YGXPAXIIP6EPAX0@Z@Z
	mov	eax, DWORD PTR _this$[ebp]
	pop	edi
	pop	esi
	pop	ebx
	mov	esp, ebp
	pop	ebp
	ret	0
??0CFrustum@@QAE@XZ ENDP				; CFrustum::CFrustum
_TEXT	ENDS
; Function compile flags: /Odtp /ZI
; File d:\!diffusion 2020\source code 2022\client-server\client\render\r_frustum.h
;	COMDAT ?GetPlane@CFrustum@@QBEPBUmplane_s@@H@Z
_TEXT	SEGMENT
_this$ = -4						; size = 4
_side$ = 8						; size = 4
?GetPlane@CFrustum@@QBEPBUmplane_s@@H@Z PROC		; CFrustum::GetPlane, COMDAT
; _this$ = ecx

; 39   : 	const mplane_t *GetPlane( int side ) const { return &planes[side]; }

	push	ebp
	mov	ebp, esp
	sub	esp, 68					; 00000044H
	push	ebx
	push	esi
	push	edi
	mov	DWORD PTR _this$[ebp], ecx
	imul	eax, DWORD PTR _side$[ebp], 20
	add	eax, DWORD PTR _this$[ebp]
	pop	edi
	pop	esi
	pop	ebx
	mov	esp, ebp
	pop	ebp
	ret	4
?GetPlane@CFrustum@@QBEPBUmplane_s@@H@Z ENDP		; CFrustum::GetPlane
_TEXT	ENDS
; Function compile flags: /Odtp /ZI
;	COMDAT ??0mplane_s@@QAE@XZ
_TEXT	SEGMENT
_this$ = -4						; size = 4
??0mplane_s@@QAE@XZ PROC				; mplane_s::mplane_s, COMDAT
; _this$ = ecx
	push	ebp
	mov	ebp, esp
	sub	esp, 68					; 00000044H
	push	ebx
	push	esi
	push	edi
	mov	DWORD PTR _this$[ebp], ecx
	mov	ecx, DWORD PTR _this$[ebp]
	call	??0Vector@@QAE@XZ			; Vector::Vector
	mov	eax, DWORD PTR _this$[ebp]
	pop	edi
	pop	esi
	pop	ebx
	mov	esp, ebp
	pop	ebp
	ret	0
??0mplane_s@@QAE@XZ ENDP				; mplane_s::mplane_s
_TEXT	ENDS
; Function compile flags: /Odtp /ZI
;	COMDAT ??0matrix4x4@@QAE@ABV0@@Z
_TEXT	SEGMENT
_this$ = -4						; size = 4
___that$ = 8						; size = 4
??0matrix4x4@@QAE@ABV0@@Z PROC				; matrix4x4::matrix4x4, COMDAT
; _this$ = ecx
	push	ebp
	mov	ebp, esp
	sub	esp, 68					; 00000044H
	push	ebx
	push	esi
	push	edi
	mov	DWORD PTR _this$[ebp], ecx
	push	OFFSET ??0Vector4D@@QAE@ABV0@@Z		; Vector4D::Vector4D
	push	4
	push	16					; 00000010H
	mov	eax, DWORD PTR ___that$[ebp]
	push	eax
	mov	ecx, DWORD PTR _this$[ebp]
	push	ecx
	call	??__G@YGXPAX0IIP6EPAX00@Z@Z
	mov	eax, DWORD PTR _this$[ebp]
	pop	edi
	pop	esi
	pop	ebx
	mov	esp, ebp
	pop	ebp
	ret	4
??0matrix4x4@@QAE@ABV0@@Z ENDP				; matrix4x4::matrix4x4
_TEXT	ENDS
; Function compile flags: /Odtp /ZI
; File d:\!diffusion 2020\source code 2022\client-server\game_shared\matrix.h
;	COMDAT ?ConcatRotate@matrix4x4@@QAEXMMMM@Z
_TEXT	SEGMENT
$T1 = -204						; size = 64
_temp$ = -72						; size = 64
_this$ = -8						; size = 4
__$ArrayPad$ = -4					; size = 4
_angle$ = 8						; size = 4
_x$ = 12						; size = 4
_y$ = 16						; size = 4
_z$ = 20						; size = 4
?ConcatRotate@matrix4x4@@QAEXMMMM@Z PROC		; matrix4x4::ConcatRotate, COMDAT
; _this$ = ecx

; 1100 : 	{

	push	ebp
	mov	ebp, esp
	sub	esp, 204				; 000000ccH
	mov	eax, DWORD PTR ___security_cookie
	xor	eax, ebp
	mov	DWORD PTR __$ArrayPad$[ebp], eax
	push	ebx
	push	esi
	push	edi
	mov	DWORD PTR _this$[ebp], ecx

; 1101 : 		matrix4x4 temp;

	lea	ecx, DWORD PTR _temp$[ebp]
	call	??0matrix4x4@@QAE@XZ			; matrix4x4::matrix4x4

; 1102 : 		temp.CreateRotate( angle, x, y, z );

	push	ecx
	movss	xmm0, DWORD PTR _z$[ebp]
	movss	DWORD PTR [esp], xmm0
	push	ecx
	movss	xmm0, DWORD PTR _y$[ebp]
	movss	DWORD PTR [esp], xmm0
	push	ecx
	movss	xmm0, DWORD PTR _x$[ebp]
	movss	DWORD PTR [esp], xmm0
	push	ecx
	movss	xmm0, DWORD PTR _angle$[ebp]
	movss	DWORD PTR [esp], xmm0
	lea	ecx, DWORD PTR _temp$[ebp]
	call	?CreateRotate@matrix4x4@@QAEXMMMM@Z	; matrix4x4::CreateRotate

; 1103 : 		*this = Concat( temp );

	sub	esp, 64					; 00000040H
	mov	ecx, esp
	lea	eax, DWORD PTR _temp$[ebp]
	push	eax
	call	??0matrix4x4@@QAE@ABV0@@Z
	lea	ecx, DWORD PTR $T1[ebp]
	push	ecx
	mov	ecx, DWORD PTR _this$[ebp]
	call	?Concat@matrix4x4@@QAE?AV1@V1@@Z	; matrix4x4::Concat
	push	eax
	mov	ecx, DWORD PTR _this$[ebp]
	call	??4matrix4x4@@QAEAAV0@ABV0@@Z		; matrix4x4::operator=

; 1104 : 	}

	pop	edi
	pop	esi
	pop	ebx
	mov	ecx, DWORD PTR __$ArrayPad$[ebp]
	xor	ecx, ebp
	call	@__security_check_cookie@4
	mov	esp, ebp
	pop	ebp
	ret	16					; 00000010H
?ConcatRotate@matrix4x4@@QAEXMMMM@Z ENDP		; matrix4x4::ConcatRotate
_TEXT	ENDS
; Function compile flags: /Odtp /ZI
; File d:\!diffusion 2020\source code 2022\client-server\game_shared\matrix.h
;	COMDAT ?ConcatTranslate@matrix4x4@@QAEXMMM@Z
_TEXT	SEGMENT
$T1 = -204						; size = 64
_temp$ = -72						; size = 64
_this$ = -8						; size = 4
__$ArrayPad$ = -4					; size = 4
_x$ = 8							; size = 4
_y$ = 12						; size = 4
_z$ = 16						; size = 4
?ConcatTranslate@matrix4x4@@QAEXMMM@Z PROC		; matrix4x4::ConcatTranslate, COMDAT
; _this$ = ecx

; 1093 : 	{

	push	ebp
	mov	ebp, esp
	sub	esp, 204				; 000000ccH
	mov	eax, DWORD PTR ___security_cookie
	xor	eax, ebp
	mov	DWORD PTR __$ArrayPad$[ebp], eax
	push	ebx
	push	esi
	push	edi
	mov	DWORD PTR _this$[ebp], ecx

; 1094 : 		matrix4x4 temp;

	lea	ecx, DWORD PTR _temp$[ebp]
	call	??0matrix4x4@@QAE@XZ			; matrix4x4::matrix4x4

; 1095 : 		temp.CreateTranslate( x, y, z );

	push	ecx
	movss	xmm0, DWORD PTR _z$[ebp]
	movss	DWORD PTR [esp], xmm0
	push	ecx
	movss	xmm0, DWORD PTR _y$[ebp]
	movss	DWORD PTR [esp], xmm0
	push	ecx
	movss	xmm0, DWORD PTR _x$[ebp]
	movss	DWORD PTR [esp], xmm0
	lea	ecx, DWORD PTR _temp$[ebp]
	call	?CreateTranslate@matrix4x4@@QAEXMMM@Z	; matrix4x4::CreateTranslate

; 1096 : 		*this = Concat( temp );

	sub	esp, 64					; 00000040H
	mov	ecx, esp
	lea	eax, DWORD PTR _temp$[ebp]
	push	eax
	call	??0matrix4x4@@QAE@ABV0@@Z
	lea	ecx, DWORD PTR $T1[ebp]
	push	ecx
	mov	ecx, DWORD PTR _this$[ebp]
	call	?Concat@matrix4x4@@QAE?AV1@V1@@Z	; matrix4x4::Concat
	push	eax
	mov	ecx, DWORD PTR _this$[ebp]
	call	??4matrix4x4@@QAEAAV0@ABV0@@Z		; matrix4x4::operator=

; 1097 : 	}

	pop	edi
	pop	esi
	pop	ebx
	mov	ecx, DWORD PTR __$ArrayPad$[ebp]
	xor	ecx, ebp
	call	@__security_check_cookie@4
	mov	esp, ebp
	pop	ebp
	ret	12					; 0000000cH
?ConcatTranslate@matrix4x4@@QAEXMMM@Z ENDP		; matrix4x4::ConcatTranslate
_TEXT	ENDS
; Function compile flags: /Odtp /ZI
; File d:\!diffusion 2020\source code 2022\client-server\game_shared\matrix.h
;	COMDAT ??0matrix4x4@@QAE@ABVVector@@0M@Z
_TEXT	SEGMENT
tv1056 = -100						; size = 4
tv1054 = -100						; size = 4
tv1052 = -100						; size = 4
tv1050 = -100						; size = 4
tv1048 = -100						; size = 4
tv1046 = -100						; size = 4
tv1044 = -100						; size = 4
tv1042 = -100						; size = 4
tv1040 = -100						; size = 4
tv1038 = -100						; size = 4
tv1036 = -100						; size = 4
tv1034 = -100						; size = 4
tv1032 = -100						; size = 4
tv1030 = -100						; size = 4
tv1028 = -100						; size = 4
tv1026 = -100						; size = 4
tv1024 = -100						; size = 4
tv1022 = -100						; size = 4
tv1020 = -100						; size = 4
tv1018 = -100						; size = 4
tv1016 = -100						; size = 4
_cy$ = -32						; size = 4
_cp$ = -28						; size = 4
_cr$ = -24						; size = 4
_sy$ = -20						; size = 4
_sp$ = -16						; size = 4
_sr$ = -12						; size = 4
_angle$ = -8						; size = 4
_this$ = -4						; size = 4
_origin$ = 8						; size = 4
_angles$ = 12						; size = 4
_scale$ = 16						; size = 4
??0matrix4x4@@QAE@ABVVector@@0M@Z PROC			; matrix4x4::matrix4x4, COMDAT
; _this$ = ecx

; 701  : 	_forceinline matrix4x4( const Vector &origin, const Vector &angles, float scale = 1.0f )

	push	ebp
	mov	ebp, esp
	sub	esp, 100				; 00000064H
	push	ebx
	push	esi
	push	edi
	mov	DWORD PTR _this$[ebp], ecx

; 702  : 	{

	push	OFFSET ??0Vector4D@@QAE@XZ		; Vector4D::Vector4D
	push	4
	push	16					; 00000010H
	mov	eax, DWORD PTR _this$[ebp]
	push	eax
	call	??_H@YGXPAXIIP6EPAX0@Z@Z

; 703  : 		float	angle, sr, sp, sy, cr, cp, cy;
; 704  : 
; 705  : 		if( angles[ROLL] )

	mov	ecx, DWORD PTR _angles$[ebp]
	call	??BVector@@QBEPBMXZ			; Vector::operator float const *
	mov	ecx, 4
	shl	ecx, 1
	movss	xmm0, DWORD PTR [eax+ecx]
	ucomiss	xmm0, DWORD PTR __real@00000000
	lahf
	test	ah, 68					; 00000044H
	jnp	$LN2@matrix4x4

; 706  : 		{
; 707  : 			angle = angles[YAW] * (M_PI*2 / 360);

	mov	ecx, DWORD PTR _angles$[ebp]
	call	??BVector@@QBEPBMXZ			; Vector::operator float const *
	mov	ecx, 4
	shl	ecx, 0
	cvtss2sd xmm0, DWORD PTR [eax+ecx]
	mulsd	xmm0, QWORD PTR __real@3f91df46a2529d39
	cvtsd2ss xmm0, xmm0
	movss	DWORD PTR _angle$[ebp], xmm0

; 708  : 			SinCos( angle, &sy, &cy );

	lea	eax, DWORD PTR _cy$[ebp]
	push	eax
	lea	ecx, DWORD PTR _sy$[ebp]
	push	ecx
	push	ecx
	movss	xmm0, DWORD PTR _angle$[ebp]
	movss	DWORD PTR [esp], xmm0
	call	?SinCos@@YAXMPAM0@Z			; SinCos
	add	esp, 12					; 0000000cH

; 709  : 			angle = angles[PITCH] * (M_PI*2 / 360);

	mov	ecx, DWORD PTR _angles$[ebp]
	call	??BVector@@QBEPBMXZ			; Vector::operator float const *
	mov	ecx, 4
	imul	edx, ecx, 0
	cvtss2sd xmm0, DWORD PTR [eax+edx]
	mulsd	xmm0, QWORD PTR __real@3f91df46a2529d39
	cvtsd2ss xmm0, xmm0
	movss	DWORD PTR _angle$[ebp], xmm0

; 710  : 			SinCos( angle, &sp, &cp );

	lea	eax, DWORD PTR _cp$[ebp]
	push	eax
	lea	ecx, DWORD PTR _sp$[ebp]
	push	ecx
	push	ecx
	movss	xmm0, DWORD PTR _angle$[ebp]
	movss	DWORD PTR [esp], xmm0
	call	?SinCos@@YAXMPAM0@Z			; SinCos
	add	esp, 12					; 0000000cH

; 711  : 			angle = angles[ROLL] * (M_PI*2 / 360);

	mov	ecx, DWORD PTR _angles$[ebp]
	call	??BVector@@QBEPBMXZ			; Vector::operator float const *
	mov	ecx, 4
	shl	ecx, 1
	cvtss2sd xmm0, DWORD PTR [eax+ecx]
	mulsd	xmm0, QWORD PTR __real@3f91df46a2529d39
	cvtsd2ss xmm0, xmm0
	movss	DWORD PTR _angle$[ebp], xmm0

; 712  : 			SinCos( angle, &sr, &cr );

	lea	eax, DWORD PTR _cr$[ebp]
	push	eax
	lea	ecx, DWORD PTR _sr$[ebp]
	push	ecx
	push	ecx
	movss	xmm0, DWORD PTR _angle$[ebp]
	movss	DWORD PTR [esp], xmm0
	call	?SinCos@@YAXMPAM0@Z			; SinCos
	add	esp, 12					; 0000000cH

; 713  : 
; 714  : 			mat[0][0] = (cp*cy) * scale;

	movss	xmm0, DWORD PTR _cp$[ebp]
	mulss	xmm0, DWORD PTR _cy$[ebp]
	mulss	xmm0, DWORD PTR _scale$[ebp]
	mov	eax, 16					; 00000010H
	imul	ecx, eax, 0
	add	ecx, DWORD PTR _this$[ebp]
	movss	DWORD PTR tv1016[ebp], xmm0
	call	??BVector4D@@QAEPAMXZ			; Vector4D::operator float *
	mov	ecx, 4
	imul	edx, ecx, 0
	movss	xmm0, DWORD PTR tv1016[ebp]
	movss	DWORD PTR [eax+edx], xmm0

; 715  : 			mat[1][0] = (sr*sp*cy+cr*-sy) * scale;

	movss	xmm0, DWORD PTR _sr$[ebp]
	mulss	xmm0, DWORD PTR _sp$[ebp]
	mulss	xmm0, DWORD PTR _cy$[ebp]
	movss	xmm1, DWORD PTR _sy$[ebp]
	xorps	xmm1, DWORD PTR __xmm@80000000800000008000000080000000
	mulss	xmm1, DWORD PTR _cr$[ebp]
	addss	xmm0, xmm1
	mulss	xmm0, DWORD PTR _scale$[ebp]
	mov	ecx, 16					; 00000010H
	shl	ecx, 0
	add	ecx, DWORD PTR _this$[ebp]
	movss	DWORD PTR tv1018[ebp], xmm0
	call	??BVector4D@@QAEPAMXZ			; Vector4D::operator float *
	mov	ecx, 4
	imul	edx, ecx, 0
	movss	xmm0, DWORD PTR tv1018[ebp]
	movss	DWORD PTR [eax+edx], xmm0

; 716  : 			mat[2][0] = (cr*sp*cy+-sr*-sy) * scale;

	movss	xmm0, DWORD PTR _cr$[ebp]
	mulss	xmm0, DWORD PTR _sp$[ebp]
	mulss	xmm0, DWORD PTR _cy$[ebp]
	movss	xmm1, DWORD PTR _sr$[ebp]
	xorps	xmm1, DWORD PTR __xmm@80000000800000008000000080000000
	movss	xmm2, DWORD PTR _sy$[ebp]
	xorps	xmm2, DWORD PTR __xmm@80000000800000008000000080000000
	mulss	xmm1, xmm2
	addss	xmm0, xmm1
	mulss	xmm0, DWORD PTR _scale$[ebp]
	mov	ecx, 16					; 00000010H
	shl	ecx, 1
	add	ecx, DWORD PTR _this$[ebp]
	movss	DWORD PTR tv1020[ebp], xmm0
	call	??BVector4D@@QAEPAMXZ			; Vector4D::operator float *
	mov	ecx, 4
	imul	edx, ecx, 0
	movss	xmm0, DWORD PTR tv1020[ebp]
	movss	DWORD PTR [eax+edx], xmm0

; 717  : 			mat[3][0] = origin.x;

	mov	eax, 16					; 00000010H
	imul	ecx, eax, 3
	add	ecx, DWORD PTR _this$[ebp]
	call	??BVector4D@@QAEPAMXZ			; Vector4D::operator float *
	mov	ecx, 4
	imul	edx, ecx, 0
	mov	ecx, DWORD PTR _origin$[ebp]
	mov	ecx, DWORD PTR [ecx]
	mov	DWORD PTR [eax+edx], ecx

; 718  : 			mat[0][1] = (cp*sy) * scale;

	movss	xmm0, DWORD PTR _cp$[ebp]
	mulss	xmm0, DWORD PTR _sy$[ebp]
	mulss	xmm0, DWORD PTR _scale$[ebp]
	mov	eax, 16					; 00000010H
	imul	ecx, eax, 0
	add	ecx, DWORD PTR _this$[ebp]
	movss	DWORD PTR tv1022[ebp], xmm0
	call	??BVector4D@@QAEPAMXZ			; Vector4D::operator float *
	mov	ecx, 4
	shl	ecx, 0
	movss	xmm0, DWORD PTR tv1022[ebp]
	movss	DWORD PTR [eax+ecx], xmm0

; 719  : 			mat[1][1] = (sr*sp*sy+cr*cy) * scale;

	movss	xmm0, DWORD PTR _sr$[ebp]
	mulss	xmm0, DWORD PTR _sp$[ebp]
	mulss	xmm0, DWORD PTR _sy$[ebp]
	movss	xmm1, DWORD PTR _cr$[ebp]
	mulss	xmm1, DWORD PTR _cy$[ebp]
	addss	xmm0, xmm1
	mulss	xmm0, DWORD PTR _scale$[ebp]
	mov	ecx, 16					; 00000010H
	shl	ecx, 0
	add	ecx, DWORD PTR _this$[ebp]
	movss	DWORD PTR tv1024[ebp], xmm0
	call	??BVector4D@@QAEPAMXZ			; Vector4D::operator float *
	mov	ecx, 4
	shl	ecx, 0
	movss	xmm0, DWORD PTR tv1024[ebp]
	movss	DWORD PTR [eax+ecx], xmm0

; 720  : 			mat[2][1] = (cr*sp*sy+-sr*cy) * scale;

	movss	xmm0, DWORD PTR _cr$[ebp]
	mulss	xmm0, DWORD PTR _sp$[ebp]
	mulss	xmm0, DWORD PTR _sy$[ebp]
	movss	xmm1, DWORD PTR _sr$[ebp]
	xorps	xmm1, DWORD PTR __xmm@80000000800000008000000080000000
	mulss	xmm1, DWORD PTR _cy$[ebp]
	addss	xmm0, xmm1
	mulss	xmm0, DWORD PTR _scale$[ebp]
	mov	ecx, 16					; 00000010H
	shl	ecx, 1
	add	ecx, DWORD PTR _this$[ebp]
	movss	DWORD PTR tv1026[ebp], xmm0
	call	??BVector4D@@QAEPAMXZ			; Vector4D::operator float *
	mov	ecx, 4
	shl	ecx, 0
	movss	xmm0, DWORD PTR tv1026[ebp]
	movss	DWORD PTR [eax+ecx], xmm0

; 721  : 			mat[3][1] = origin.y;

	mov	eax, 16					; 00000010H
	imul	ecx, eax, 3
	add	ecx, DWORD PTR _this$[ebp]
	call	??BVector4D@@QAEPAMXZ			; Vector4D::operator float *
	mov	ecx, 4
	shl	ecx, 0
	mov	edx, DWORD PTR _origin$[ebp]
	mov	edx, DWORD PTR [edx+4]
	mov	DWORD PTR [eax+ecx], edx

; 722  : 			mat[0][2] = (-sp) * scale;

	movss	xmm0, DWORD PTR _sp$[ebp]
	xorps	xmm0, DWORD PTR __xmm@80000000800000008000000080000000
	mulss	xmm0, DWORD PTR _scale$[ebp]
	mov	eax, 16					; 00000010H
	imul	ecx, eax, 0
	add	ecx, DWORD PTR _this$[ebp]
	movss	DWORD PTR tv1028[ebp], xmm0
	call	??BVector4D@@QAEPAMXZ			; Vector4D::operator float *
	mov	ecx, 4
	shl	ecx, 1
	movss	xmm0, DWORD PTR tv1028[ebp]
	movss	DWORD PTR [eax+ecx], xmm0

; 723  : 			mat[1][2] = (sr*cp) * scale;

	movss	xmm0, DWORD PTR _sr$[ebp]
	mulss	xmm0, DWORD PTR _cp$[ebp]
	mulss	xmm0, DWORD PTR _scale$[ebp]
	mov	ecx, 16					; 00000010H
	shl	ecx, 0
	add	ecx, DWORD PTR _this$[ebp]
	movss	DWORD PTR tv1030[ebp], xmm0
	call	??BVector4D@@QAEPAMXZ			; Vector4D::operator float *
	mov	ecx, 4
	shl	ecx, 1
	movss	xmm0, DWORD PTR tv1030[ebp]
	movss	DWORD PTR [eax+ecx], xmm0

; 724  : 			mat[2][2] = (cr*cp) * scale;

	movss	xmm0, DWORD PTR _cr$[ebp]
	mulss	xmm0, DWORD PTR _cp$[ebp]
	mulss	xmm0, DWORD PTR _scale$[ebp]
	mov	ecx, 16					; 00000010H
	shl	ecx, 1
	add	ecx, DWORD PTR _this$[ebp]
	movss	DWORD PTR tv1032[ebp], xmm0
	call	??BVector4D@@QAEPAMXZ			; Vector4D::operator float *
	mov	ecx, 4
	shl	ecx, 1
	movss	xmm0, DWORD PTR tv1032[ebp]
	movss	DWORD PTR [eax+ecx], xmm0

; 725  : 			mat[3][2] = origin.z;

	mov	eax, 16					; 00000010H
	imul	ecx, eax, 3
	add	ecx, DWORD PTR _this$[ebp]
	call	??BVector4D@@QAEPAMXZ			; Vector4D::operator float *
	mov	ecx, 4
	shl	ecx, 1
	mov	edx, DWORD PTR _origin$[ebp]
	mov	edx, DWORD PTR [edx+8]
	mov	DWORD PTR [eax+ecx], edx

; 726  : 			mat[0][3] = 0;

	mov	eax, 16					; 00000010H
	imul	ecx, eax, 0
	add	ecx, DWORD PTR _this$[ebp]
	call	??BVector4D@@QAEPAMXZ			; Vector4D::operator float *
	mov	ecx, 4
	imul	edx, ecx, 3
	xorps	xmm0, xmm0
	movss	DWORD PTR [eax+edx], xmm0

; 727  : 			mat[1][3] = 0;

	mov	ecx, 16					; 00000010H
	shl	ecx, 0
	add	ecx, DWORD PTR _this$[ebp]
	call	??BVector4D@@QAEPAMXZ			; Vector4D::operator float *
	mov	ecx, 4
	imul	edx, ecx, 3
	xorps	xmm0, xmm0
	movss	DWORD PTR [eax+edx], xmm0

; 728  : 			mat[2][3] = 0;

	mov	ecx, 16					; 00000010H
	shl	ecx, 1
	add	ecx, DWORD PTR _this$[ebp]
	call	??BVector4D@@QAEPAMXZ			; Vector4D::operator float *
	mov	ecx, 4
	imul	edx, ecx, 3
	xorps	xmm0, xmm0
	movss	DWORD PTR [eax+edx], xmm0

; 729  : 			mat[3][3] = 1;

	mov	eax, 16					; 00000010H
	imul	ecx, eax, 3
	add	ecx, DWORD PTR _this$[ebp]
	call	??BVector4D@@QAEPAMXZ			; Vector4D::operator float *
	mov	ecx, 4
	imul	edx, ecx, 3
	movss	xmm0, DWORD PTR __real@3f800000
	movss	DWORD PTR [eax+edx], xmm0
	jmp	$LN7@matrix4x4
$LN2@matrix4x4:

; 730  : 		}
; 731  : 		else if( angles[PITCH] )

	mov	ecx, DWORD PTR _angles$[ebp]
	call	??BVector@@QBEPBMXZ			; Vector::operator float const *
	mov	ecx, 4
	imul	edx, ecx, 0
	movss	xmm0, DWORD PTR [eax+edx]
	ucomiss	xmm0, DWORD PTR __real@00000000
	lahf
	test	ah, 68					; 00000044H
	jnp	$LN4@matrix4x4

; 732  : 		{
; 733  : 			angle = angles[YAW] * (M_PI*2 / 360);

	mov	ecx, DWORD PTR _angles$[ebp]
	call	??BVector@@QBEPBMXZ			; Vector::operator float const *
	mov	ecx, 4
	shl	ecx, 0
	cvtss2sd xmm0, DWORD PTR [eax+ecx]
	mulsd	xmm0, QWORD PTR __real@3f91df46a2529d39
	cvtsd2ss xmm0, xmm0
	movss	DWORD PTR _angle$[ebp], xmm0

; 734  : 			SinCos( angle, &sy, &cy );

	lea	eax, DWORD PTR _cy$[ebp]
	push	eax
	lea	ecx, DWORD PTR _sy$[ebp]
	push	ecx
	push	ecx
	movss	xmm0, DWORD PTR _angle$[ebp]
	movss	DWORD PTR [esp], xmm0
	call	?SinCos@@YAXMPAM0@Z			; SinCos
	add	esp, 12					; 0000000cH

; 735  : 			angle = angles[PITCH] * (M_PI*2 / 360);

	mov	ecx, DWORD PTR _angles$[ebp]
	call	??BVector@@QBEPBMXZ			; Vector::operator float const *
	mov	ecx, 4
	imul	edx, ecx, 0
	cvtss2sd xmm0, DWORD PTR [eax+edx]
	mulsd	xmm0, QWORD PTR __real@3f91df46a2529d39
	cvtsd2ss xmm0, xmm0
	movss	DWORD PTR _angle$[ebp], xmm0

; 736  : 			SinCos( angle, &sp, &cp );

	lea	eax, DWORD PTR _cp$[ebp]
	push	eax
	lea	ecx, DWORD PTR _sp$[ebp]
	push	ecx
	push	ecx
	movss	xmm0, DWORD PTR _angle$[ebp]
	movss	DWORD PTR [esp], xmm0
	call	?SinCos@@YAXMPAM0@Z			; SinCos
	add	esp, 12					; 0000000cH

; 737  : 
; 738  : 			mat[0][0] = (cp*cy) * scale;

	movss	xmm0, DWORD PTR _cp$[ebp]
	mulss	xmm0, DWORD PTR _cy$[ebp]
	mulss	xmm0, DWORD PTR _scale$[ebp]
	mov	eax, 16					; 00000010H
	imul	ecx, eax, 0
	add	ecx, DWORD PTR _this$[ebp]
	movss	DWORD PTR tv1034[ebp], xmm0
	call	??BVector4D@@QAEPAMXZ			; Vector4D::operator float *
	mov	ecx, 4
	imul	edx, ecx, 0
	movss	xmm0, DWORD PTR tv1034[ebp]
	movss	DWORD PTR [eax+edx], xmm0

; 739  : 			mat[1][0] = (-sy) * scale;

	movss	xmm0, DWORD PTR _sy$[ebp]
	xorps	xmm0, DWORD PTR __xmm@80000000800000008000000080000000
	mulss	xmm0, DWORD PTR _scale$[ebp]
	mov	ecx, 16					; 00000010H
	shl	ecx, 0
	add	ecx, DWORD PTR _this$[ebp]
	movss	DWORD PTR tv1036[ebp], xmm0
	call	??BVector4D@@QAEPAMXZ			; Vector4D::operator float *
	mov	ecx, 4
	imul	edx, ecx, 0
	movss	xmm0, DWORD PTR tv1036[ebp]
	movss	DWORD PTR [eax+edx], xmm0

; 740  : 			mat[2][0] = (sp*cy) * scale;

	movss	xmm0, DWORD PTR _sp$[ebp]
	mulss	xmm0, DWORD PTR _cy$[ebp]
	mulss	xmm0, DWORD PTR _scale$[ebp]
	mov	ecx, 16					; 00000010H
	shl	ecx, 1
	add	ecx, DWORD PTR _this$[ebp]
	movss	DWORD PTR tv1038[ebp], xmm0
	call	??BVector4D@@QAEPAMXZ			; Vector4D::operator float *
	mov	ecx, 4
	imul	edx, ecx, 0
	movss	xmm0, DWORD PTR tv1038[ebp]
	movss	DWORD PTR [eax+edx], xmm0

; 741  : 			mat[3][0] = origin.x;

	mov	eax, 16					; 00000010H
	imul	ecx, eax, 3
	add	ecx, DWORD PTR _this$[ebp]
	call	??BVector4D@@QAEPAMXZ			; Vector4D::operator float *
	mov	ecx, 4
	imul	edx, ecx, 0
	mov	ecx, DWORD PTR _origin$[ebp]
	mov	ecx, DWORD PTR [ecx]
	mov	DWORD PTR [eax+edx], ecx

; 742  : 			mat[0][1] = (cp*sy) * scale;

	movss	xmm0, DWORD PTR _cp$[ebp]
	mulss	xmm0, DWORD PTR _sy$[ebp]
	mulss	xmm0, DWORD PTR _scale$[ebp]
	mov	eax, 16					; 00000010H
	imul	ecx, eax, 0
	add	ecx, DWORD PTR _this$[ebp]
	movss	DWORD PTR tv1040[ebp], xmm0
	call	??BVector4D@@QAEPAMXZ			; Vector4D::operator float *
	mov	ecx, 4
	shl	ecx, 0
	movss	xmm0, DWORD PTR tv1040[ebp]
	movss	DWORD PTR [eax+ecx], xmm0

; 743  : 			mat[1][1] = (cy) * scale;

	movss	xmm0, DWORD PTR _cy$[ebp]
	mulss	xmm0, DWORD PTR _scale$[ebp]
	mov	ecx, 16					; 00000010H
	shl	ecx, 0
	add	ecx, DWORD PTR _this$[ebp]
	movss	DWORD PTR tv1042[ebp], xmm0
	call	??BVector4D@@QAEPAMXZ			; Vector4D::operator float *
	mov	ecx, 4
	shl	ecx, 0
	movss	xmm0, DWORD PTR tv1042[ebp]
	movss	DWORD PTR [eax+ecx], xmm0

; 744  : 			mat[2][1] = (sp*sy) * scale;

	movss	xmm0, DWORD PTR _sp$[ebp]
	mulss	xmm0, DWORD PTR _sy$[ebp]
	mulss	xmm0, DWORD PTR _scale$[ebp]
	mov	ecx, 16					; 00000010H
	shl	ecx, 1
	add	ecx, DWORD PTR _this$[ebp]
	movss	DWORD PTR tv1044[ebp], xmm0
	call	??BVector4D@@QAEPAMXZ			; Vector4D::operator float *
	mov	ecx, 4
	shl	ecx, 0
	movss	xmm0, DWORD PTR tv1044[ebp]
	movss	DWORD PTR [eax+ecx], xmm0

; 745  : 			mat[3][1] = origin.y;

	mov	eax, 16					; 00000010H
	imul	ecx, eax, 3
	add	ecx, DWORD PTR _this$[ebp]
	call	??BVector4D@@QAEPAMXZ			; Vector4D::operator float *
	mov	ecx, 4
	shl	ecx, 0
	mov	edx, DWORD PTR _origin$[ebp]
	mov	edx, DWORD PTR [edx+4]
	mov	DWORD PTR [eax+ecx], edx

; 746  : 			mat[0][2] = (-sp) * scale;

	movss	xmm0, DWORD PTR _sp$[ebp]
	xorps	xmm0, DWORD PTR __xmm@80000000800000008000000080000000
	mulss	xmm0, DWORD PTR _scale$[ebp]
	mov	eax, 16					; 00000010H
	imul	ecx, eax, 0
	add	ecx, DWORD PTR _this$[ebp]
	movss	DWORD PTR tv1046[ebp], xmm0
	call	??BVector4D@@QAEPAMXZ			; Vector4D::operator float *
	mov	ecx, 4
	shl	ecx, 1
	movss	xmm0, DWORD PTR tv1046[ebp]
	movss	DWORD PTR [eax+ecx], xmm0

; 747  : 			mat[1][2] = 0;

	mov	ecx, 16					; 00000010H
	shl	ecx, 0
	add	ecx, DWORD PTR _this$[ebp]
	call	??BVector4D@@QAEPAMXZ			; Vector4D::operator float *
	mov	ecx, 4
	shl	ecx, 1
	xorps	xmm0, xmm0
	movss	DWORD PTR [eax+ecx], xmm0

; 748  : 			mat[2][2] = (cp) * scale;

	movss	xmm0, DWORD PTR _cp$[ebp]
	mulss	xmm0, DWORD PTR _scale$[ebp]
	mov	ecx, 16					; 00000010H
	shl	ecx, 1
	add	ecx, DWORD PTR _this$[ebp]
	movss	DWORD PTR tv1048[ebp], xmm0
	call	??BVector4D@@QAEPAMXZ			; Vector4D::operator float *
	mov	ecx, 4
	shl	ecx, 1
	movss	xmm0, DWORD PTR tv1048[ebp]
	movss	DWORD PTR [eax+ecx], xmm0

; 749  : 			mat[3][2] = origin.z;

	mov	eax, 16					; 00000010H
	imul	ecx, eax, 3
	add	ecx, DWORD PTR _this$[ebp]
	call	??BVector4D@@QAEPAMXZ			; Vector4D::operator float *
	mov	ecx, 4
	shl	ecx, 1
	mov	edx, DWORD PTR _origin$[ebp]
	mov	edx, DWORD PTR [edx+8]
	mov	DWORD PTR [eax+ecx], edx

; 750  : 			mat[0][3] = 0;

	mov	eax, 16					; 00000010H
	imul	ecx, eax, 0
	add	ecx, DWORD PTR _this$[ebp]
	call	??BVector4D@@QAEPAMXZ			; Vector4D::operator float *
	mov	ecx, 4
	imul	edx, ecx, 3
	xorps	xmm0, xmm0
	movss	DWORD PTR [eax+edx], xmm0

; 751  : 			mat[1][3] = 0;

	mov	ecx, 16					; 00000010H
	shl	ecx, 0
	add	ecx, DWORD PTR _this$[ebp]
	call	??BVector4D@@QAEPAMXZ			; Vector4D::operator float *
	mov	ecx, 4
	imul	edx, ecx, 3
	xorps	xmm0, xmm0
	movss	DWORD PTR [eax+edx], xmm0

; 752  : 			mat[2][3] = 0;

	mov	ecx, 16					; 00000010H
	shl	ecx, 1
	add	ecx, DWORD PTR _this$[ebp]
	call	??BVector4D@@QAEPAMXZ			; Vector4D::operator float *
	mov	ecx, 4
	imul	edx, ecx, 3
	xorps	xmm0, xmm0
	movss	DWORD PTR [eax+edx], xmm0

; 753  : 			mat[3][3] = 1;

	mov	eax, 16					; 00000010H
	imul	ecx, eax, 3
	add	ecx, DWORD PTR _this$[ebp]
	call	??BVector4D@@QAEPAMXZ			; Vector4D::operator float *
	mov	ecx, 4
	imul	edx, ecx, 3
	movss	xmm0, DWORD PTR __real@3f800000
	movss	DWORD PTR [eax+edx], xmm0
	jmp	$LN7@matrix4x4
$LN4@matrix4x4:

; 754  : 		}
; 755  : 		else if( angles[YAW] )

	mov	ecx, DWORD PTR _angles$[ebp]
	call	??BVector@@QBEPBMXZ			; Vector::operator float const *
	mov	ecx, 4
	shl	ecx, 0
	movss	xmm0, DWORD PTR [eax+ecx]
	ucomiss	xmm0, DWORD PTR __real@00000000
	lahf
	test	ah, 68					; 00000044H
	jnp	$LN6@matrix4x4

; 756  : 		{
; 757  : 			angle = angles[YAW] * (M_PI*2 / 360);

	mov	ecx, DWORD PTR _angles$[ebp]
	call	??BVector@@QBEPBMXZ			; Vector::operator float const *
	mov	ecx, 4
	shl	ecx, 0
	cvtss2sd xmm0, DWORD PTR [eax+ecx]
	mulsd	xmm0, QWORD PTR __real@3f91df46a2529d39
	cvtsd2ss xmm0, xmm0
	movss	DWORD PTR _angle$[ebp], xmm0

; 758  : 			SinCos( angle, &sy, &cy );

	lea	eax, DWORD PTR _cy$[ebp]
	push	eax
	lea	ecx, DWORD PTR _sy$[ebp]
	push	ecx
	push	ecx
	movss	xmm0, DWORD PTR _angle$[ebp]
	movss	DWORD PTR [esp], xmm0
	call	?SinCos@@YAXMPAM0@Z			; SinCos
	add	esp, 12					; 0000000cH

; 759  : 
; 760  : 			mat[0][0] = (cy) * scale;

	movss	xmm0, DWORD PTR _cy$[ebp]
	mulss	xmm0, DWORD PTR _scale$[ebp]
	mov	eax, 16					; 00000010H
	imul	ecx, eax, 0
	add	ecx, DWORD PTR _this$[ebp]
	movss	DWORD PTR tv1050[ebp], xmm0
	call	??BVector4D@@QAEPAMXZ			; Vector4D::operator float *
	mov	ecx, 4
	imul	edx, ecx, 0
	movss	xmm0, DWORD PTR tv1050[ebp]
	movss	DWORD PTR [eax+edx], xmm0

; 761  : 			mat[1][0] = (-sy) * scale;

	movss	xmm0, DWORD PTR _sy$[ebp]
	xorps	xmm0, DWORD PTR __xmm@80000000800000008000000080000000
	mulss	xmm0, DWORD PTR _scale$[ebp]
	mov	ecx, 16					; 00000010H
	shl	ecx, 0
	add	ecx, DWORD PTR _this$[ebp]
	movss	DWORD PTR tv1052[ebp], xmm0
	call	??BVector4D@@QAEPAMXZ			; Vector4D::operator float *
	mov	ecx, 4
	imul	edx, ecx, 0
	movss	xmm0, DWORD PTR tv1052[ebp]
	movss	DWORD PTR [eax+edx], xmm0

; 762  : 			mat[2][0] = 0;

	mov	ecx, 16					; 00000010H
	shl	ecx, 1
	add	ecx, DWORD PTR _this$[ebp]
	call	??BVector4D@@QAEPAMXZ			; Vector4D::operator float *
	mov	ecx, 4
	imul	edx, ecx, 0
	xorps	xmm0, xmm0
	movss	DWORD PTR [eax+edx], xmm0

; 763  : 			mat[3][0] = origin.x;

	mov	eax, 16					; 00000010H
	imul	ecx, eax, 3
	add	ecx, DWORD PTR _this$[ebp]
	call	??BVector4D@@QAEPAMXZ			; Vector4D::operator float *
	mov	ecx, 4
	imul	edx, ecx, 0
	mov	ecx, DWORD PTR _origin$[ebp]
	mov	ecx, DWORD PTR [ecx]
	mov	DWORD PTR [eax+edx], ecx

; 764  : 			mat[0][1] = (sy) * scale;

	movss	xmm0, DWORD PTR _sy$[ebp]
	mulss	xmm0, DWORD PTR _scale$[ebp]
	mov	eax, 16					; 00000010H
	imul	ecx, eax, 0
	add	ecx, DWORD PTR _this$[ebp]
	movss	DWORD PTR tv1054[ebp], xmm0
	call	??BVector4D@@QAEPAMXZ			; Vector4D::operator float *
	mov	ecx, 4
	shl	ecx, 0
	movss	xmm0, DWORD PTR tv1054[ebp]
	movss	DWORD PTR [eax+ecx], xmm0

; 765  : 			mat[1][1] = (cy) * scale;

	movss	xmm0, DWORD PTR _cy$[ebp]
	mulss	xmm0, DWORD PTR _scale$[ebp]
	mov	ecx, 16					; 00000010H
	shl	ecx, 0
	add	ecx, DWORD PTR _this$[ebp]
	movss	DWORD PTR tv1056[ebp], xmm0
	call	??BVector4D@@QAEPAMXZ			; Vector4D::operator float *
	mov	ecx, 4
	shl	ecx, 0
	movss	xmm0, DWORD PTR tv1056[ebp]
	movss	DWORD PTR [eax+ecx], xmm0

; 766  : 			mat[2][1] = 0;

	mov	ecx, 16					; 00000010H
	shl	ecx, 1
	add	ecx, DWORD PTR _this$[ebp]
	call	??BVector4D@@QAEPAMXZ			; Vector4D::operator float *
	mov	ecx, 4
	shl	ecx, 0
	xorps	xmm0, xmm0
	movss	DWORD PTR [eax+ecx], xmm0

; 767  : 			mat[3][1] = origin.y;

	mov	eax, 16					; 00000010H
	imul	ecx, eax, 3
	add	ecx, DWORD PTR _this$[ebp]
	call	??BVector4D@@QAEPAMXZ			; Vector4D::operator float *
	mov	ecx, 4
	shl	ecx, 0
	mov	edx, DWORD PTR _origin$[ebp]
	mov	edx, DWORD PTR [edx+4]
	mov	DWORD PTR [eax+ecx], edx

; 768  : 			mat[0][2] = 0;

	mov	eax, 16					; 00000010H
	imul	ecx, eax, 0
	add	ecx, DWORD PTR _this$[ebp]
	call	??BVector4D@@QAEPAMXZ			; Vector4D::operator float *
	mov	ecx, 4
	shl	ecx, 1
	xorps	xmm0, xmm0
	movss	DWORD PTR [eax+ecx], xmm0

; 769  : 			mat[1][2] = 0;

	mov	ecx, 16					; 00000010H
	shl	ecx, 0
	add	ecx, DWORD PTR _this$[ebp]
	call	??BVector4D@@QAEPAMXZ			; Vector4D::operator float *
	mov	ecx, 4
	shl	ecx, 1
	xorps	xmm0, xmm0
	movss	DWORD PTR [eax+ecx], xmm0

; 770  : 			mat[2][2] = scale;

	mov	ecx, 16					; 00000010H
	shl	ecx, 1
	add	ecx, DWORD PTR _this$[ebp]
	call	??BVector4D@@QAEPAMXZ			; Vector4D::operator float *
	mov	ecx, 4
	shl	ecx, 1
	movss	xmm0, DWORD PTR _scale$[ebp]
	movss	DWORD PTR [eax+ecx], xmm0

; 771  : 			mat[3][2] = origin.z;

	mov	eax, 16					; 00000010H
	imul	ecx, eax, 3
	add	ecx, DWORD PTR _this$[ebp]
	call	??BVector4D@@QAEPAMXZ			; Vector4D::operator float *
	mov	ecx, 4
	shl	ecx, 1
	mov	edx, DWORD PTR _origin$[ebp]
	mov	edx, DWORD PTR [edx+8]
	mov	DWORD PTR [eax+ecx], edx

; 772  : 			mat[0][3] = 0;

	mov	eax, 16					; 00000010H
	imul	ecx, eax, 0
	add	ecx, DWORD PTR _this$[ebp]
	call	??BVector4D@@QAEPAMXZ			; Vector4D::operator float *
	mov	ecx, 4
	imul	edx, ecx, 3
	xorps	xmm0, xmm0
	movss	DWORD PTR [eax+edx], xmm0

; 773  : 			mat[1][3] = 0;

	mov	ecx, 16					; 00000010H
	shl	ecx, 0
	add	ecx, DWORD PTR _this$[ebp]
	call	??BVector4D@@QAEPAMXZ			; Vector4D::operator float *
	mov	ecx, 4
	imul	edx, ecx, 3
	xorps	xmm0, xmm0
	movss	DWORD PTR [eax+edx], xmm0

; 774  : 			mat[2][3] = 0;

	mov	ecx, 16					; 00000010H
	shl	ecx, 1
	add	ecx, DWORD PTR _this$[ebp]
	call	??BVector4D@@QAEPAMXZ			; Vector4D::operator float *
	mov	ecx, 4
	imul	edx, ecx, 3
	xorps	xmm0, xmm0
	movss	DWORD PTR [eax+edx], xmm0

; 775  : 			mat[3][3] = 1;

	mov	eax, 16					; 00000010H
	imul	ecx, eax, 3
	add	ecx, DWORD PTR _this$[ebp]
	call	??BVector4D@@QAEPAMXZ			; Vector4D::operator float *
	mov	ecx, 4
	imul	edx, ecx, 3
	movss	xmm0, DWORD PTR __real@3f800000
	movss	DWORD PTR [eax+edx], xmm0

; 776  : 		}
; 777  : 		else

	jmp	$LN7@matrix4x4
$LN6@matrix4x4:

; 778  : 		{
; 779  : 			mat[0][0] = scale;

	mov	eax, 16					; 00000010H
	imul	ecx, eax, 0
	add	ecx, DWORD PTR _this$[ebp]
	call	??BVector4D@@QAEPAMXZ			; Vector4D::operator float *
	mov	ecx, 4
	imul	edx, ecx, 0
	movss	xmm0, DWORD PTR _scale$[ebp]
	movss	DWORD PTR [eax+edx], xmm0

; 780  : 			mat[1][0] = 0;

	mov	ecx, 16					; 00000010H
	shl	ecx, 0
	add	ecx, DWORD PTR _this$[ebp]
	call	??BVector4D@@QAEPAMXZ			; Vector4D::operator float *
	mov	ecx, 4
	imul	edx, ecx, 0
	xorps	xmm0, xmm0
	movss	DWORD PTR [eax+edx], xmm0

; 781  : 			mat[2][0] = 0;

	mov	ecx, 16					; 00000010H
	shl	ecx, 1
	add	ecx, DWORD PTR _this$[ebp]
	call	??BVector4D@@QAEPAMXZ			; Vector4D::operator float *
	mov	ecx, 4
	imul	edx, ecx, 0
	xorps	xmm0, xmm0
	movss	DWORD PTR [eax+edx], xmm0

; 782  : 			mat[3][0] = origin.x;

	mov	eax, 16					; 00000010H
	imul	ecx, eax, 3
	add	ecx, DWORD PTR _this$[ebp]
	call	??BVector4D@@QAEPAMXZ			; Vector4D::operator float *
	mov	ecx, 4
	imul	edx, ecx, 0
	mov	ecx, DWORD PTR _origin$[ebp]
	mov	ecx, DWORD PTR [ecx]
	mov	DWORD PTR [eax+edx], ecx

; 783  : 			mat[0][1] = 0;

	mov	eax, 16					; 00000010H
	imul	ecx, eax, 0
	add	ecx, DWORD PTR _this$[ebp]
	call	??BVector4D@@QAEPAMXZ			; Vector4D::operator float *
	mov	ecx, 4
	shl	ecx, 0
	xorps	xmm0, xmm0
	movss	DWORD PTR [eax+ecx], xmm0

; 784  : 			mat[1][1] = scale;

	mov	ecx, 16					; 00000010H
	shl	ecx, 0
	add	ecx, DWORD PTR _this$[ebp]
	call	??BVector4D@@QAEPAMXZ			; Vector4D::operator float *
	mov	ecx, 4
	shl	ecx, 0
	movss	xmm0, DWORD PTR _scale$[ebp]
	movss	DWORD PTR [eax+ecx], xmm0

; 785  : 			mat[2][1] = 0;

	mov	ecx, 16					; 00000010H
	shl	ecx, 1
	add	ecx, DWORD PTR _this$[ebp]
	call	??BVector4D@@QAEPAMXZ			; Vector4D::operator float *
	mov	ecx, 4
	shl	ecx, 0
	xorps	xmm0, xmm0
	movss	DWORD PTR [eax+ecx], xmm0

; 786  : 			mat[3][1] = origin.y;

	mov	eax, 16					; 00000010H
	imul	ecx, eax, 3
	add	ecx, DWORD PTR _this$[ebp]
	call	??BVector4D@@QAEPAMXZ			; Vector4D::operator float *
	mov	ecx, 4
	shl	ecx, 0
	mov	edx, DWORD PTR _origin$[ebp]
	mov	edx, DWORD PTR [edx+4]
	mov	DWORD PTR [eax+ecx], edx

; 787  : 			mat[0][2] = 0;

	mov	eax, 16					; 00000010H
	imul	ecx, eax, 0
	add	ecx, DWORD PTR _this$[ebp]
	call	??BVector4D@@QAEPAMXZ			; Vector4D::operator float *
	mov	ecx, 4
	shl	ecx, 1
	xorps	xmm0, xmm0
	movss	DWORD PTR [eax+ecx], xmm0

; 788  : 			mat[1][2] = 0;

	mov	ecx, 16					; 00000010H
	shl	ecx, 0
	add	ecx, DWORD PTR _this$[ebp]
	call	??BVector4D@@QAEPAMXZ			; Vector4D::operator float *
	mov	ecx, 4
	shl	ecx, 1
	xorps	xmm0, xmm0
	movss	DWORD PTR [eax+ecx], xmm0

; 789  : 			mat[2][2] = scale;

	mov	ecx, 16					; 00000010H
	shl	ecx, 1
	add	ecx, DWORD PTR _this$[ebp]
	call	??BVector4D@@QAEPAMXZ			; Vector4D::operator float *
	mov	ecx, 4
	shl	ecx, 1
	movss	xmm0, DWORD PTR _scale$[ebp]
	movss	DWORD PTR [eax+ecx], xmm0

; 790  : 			mat[3][2] = origin.z;

	mov	eax, 16					; 00000010H
	imul	ecx, eax, 3
	add	ecx, DWORD PTR _this$[ebp]
	call	??BVector4D@@QAEPAMXZ			; Vector4D::operator float *
	mov	ecx, 4
	shl	ecx, 1
	mov	edx, DWORD PTR _origin$[ebp]
	mov	edx, DWORD PTR [edx+8]
	mov	DWORD PTR [eax+ecx], edx

; 791  : 			mat[0][3] = 0;

	mov	eax, 16					; 00000010H
	imul	ecx, eax, 0
	add	ecx, DWORD PTR _this$[ebp]
	call	??BVector4D@@QAEPAMXZ			; Vector4D::operator float *
	mov	ecx, 4
	imul	edx, ecx, 3
	xorps	xmm0, xmm0
	movss	DWORD PTR [eax+edx], xmm0

; 792  : 			mat[1][3] = 0;

	mov	ecx, 16					; 00000010H
	shl	ecx, 0
	add	ecx, DWORD PTR _this$[ebp]
	call	??BVector4D@@QAEPAMXZ			; Vector4D::operator float *
	mov	ecx, 4
	imul	edx, ecx, 3
	xorps	xmm0, xmm0
	movss	DWORD PTR [eax+edx], xmm0

; 793  : 			mat[2][3] = 0;

	mov	ecx, 16					; 00000010H
	shl	ecx, 1
	add	ecx, DWORD PTR _this$[ebp]
	call	??BVector4D@@QAEPAMXZ			; Vector4D::operator float *
	mov	ecx, 4
	imul	edx, ecx, 3
	xorps	xmm0, xmm0
	movss	DWORD PTR [eax+edx], xmm0

; 794  : 			mat[3][3] = 1;

	mov	eax, 16					; 00000010H
	imul	ecx, eax, 3
	add	ecx, DWORD PTR _this$[ebp]
	call	??BVector4D@@QAEPAMXZ			; Vector4D::operator float *
	mov	ecx, 4
	imul	edx, ecx, 3
	movss	xmm0, DWORD PTR __real@3f800000
	movss	DWORD PTR [eax+edx], xmm0
$LN7@matrix4x4:

; 795  : 		}
; 796  : 	}

	mov	eax, DWORD PTR _this$[ebp]
	pop	edi
	pop	esi
	pop	ebx
	mov	esp, ebp
	pop	ebp
	ret	12					; 0000000cH
??0matrix4x4@@QAE@ABVVector@@0M@Z ENDP			; matrix4x4::matrix4x4
_TEXT	ENDS
; Function compile flags: /Odtp /ZI
; File d:\!diffusion 2020\source code 2022\client-server\game_shared\vector.h
;	COMDAT ??BVector4D@@QAEPAMXZ
_TEXT	SEGMENT
_this$ = -4						; size = 4
??BVector4D@@QAEPAMXZ PROC				; Vector4D::operator float *, COMDAT
; _this$ = ecx

; 344  : 	operator float *()					{ return &x; }

	push	ebp
	mov	ebp, esp
	sub	esp, 68					; 00000044H
	push	ebx
	push	esi
	push	edi
	mov	DWORD PTR _this$[ebp], ecx
	mov	eax, DWORD PTR _this$[ebp]
	pop	edi
	pop	esi
	pop	ebx
	mov	esp, ebp
	pop	ebp
	ret	0
??BVector4D@@QAEPAMXZ ENDP				; Vector4D::operator float *
_TEXT	ENDS
; Function compile flags: /Odtp /ZI
; File d:\!diffusion 2020\source code 2022\client-server\game_shared\vector.h
;	COMDAT ??0Vector4D@@QAE@ABV0@@Z
_TEXT	SEGMENT
_this$ = -4						; size = 4
_v$ = 8							; size = 4
??0Vector4D@@QAE@ABV0@@Z PROC				; Vector4D::Vector4D, COMDAT
; _this$ = ecx

; 332  : 	inline Vector4D( const Vector4D& v ) { x = v.x; y = v.y; z = v.z, w = v.w; } 

	push	ebp
	mov	ebp, esp
	sub	esp, 68					; 00000044H
	push	ebx
	push	esi
	push	edi
	mov	DWORD PTR _this$[ebp], ecx
	mov	eax, DWORD PTR _this$[ebp]
	mov	ecx, DWORD PTR _v$[ebp]
	mov	edx, DWORD PTR [ecx]
	mov	DWORD PTR [eax], edx
	mov	eax, DWORD PTR _this$[ebp]
	mov	ecx, DWORD PTR _v$[ebp]
	mov	edx, DWORD PTR [ecx+4]
	mov	DWORD PTR [eax+4], edx
	mov	eax, DWORD PTR _this$[ebp]
	mov	ecx, DWORD PTR _v$[ebp]
	mov	edx, DWORD PTR [ecx+8]
	mov	DWORD PTR [eax+8], edx
	mov	eax, DWORD PTR _this$[ebp]
	mov	ecx, DWORD PTR _v$[ebp]
	mov	edx, DWORD PTR [ecx+12]
	mov	DWORD PTR [eax+12], edx
	mov	eax, DWORD PTR _this$[ebp]
	pop	edi
	pop	esi
	pop	ebx
	mov	esp, ebp
	pop	ebp
	ret	4
??0Vector4D@@QAE@ABV0@@Z ENDP				; Vector4D::Vector4D
_TEXT	ENDS
; Function compile flags: /Odtp /ZI
; File d:\!diffusion 2020\source code 2022\client-server\game_shared\vector.h
;	COMDAT ??0Vector4D@@QAE@XZ
_TEXT	SEGMENT
_this$ = -4						; size = 4
??0Vector4D@@QAE@XZ PROC				; Vector4D::Vector4D, COMDAT
; _this$ = ecx

; 330  : 	inline Vector4D( void ) { }

	push	ebp
	mov	ebp, esp
	sub	esp, 68					; 00000044H
	push	ebx
	push	esi
	push	edi
	mov	DWORD PTR _this$[ebp], ecx
	mov	eax, DWORD PTR _this$[ebp]
	pop	edi
	pop	esi
	pop	ebx
	mov	esp, ebp
	pop	ebp
	ret	0
??0Vector4D@@QAE@XZ ENDP				; Vector4D::Vector4D
_TEXT	ENDS
; Function compile flags: /Odtp /ZI
; File d:\!diffusion 2020\source code 2022\client-server\game_shared\vector.h
;	COMDAT ?DotProduct@@YAMABVVector@@0@Z
_TEXT	SEGMENT
tv86 = -68						; size = 4
_a$ = 8							; size = 4
_b$ = 12						; size = 4
?DotProduct@@YAMABVVector@@0@Z PROC			; DotProduct, COMDAT

; 308  : inline float DotProduct(const Vector& a, const Vector& b ) { return( a.x * b.x + a.y * b.y + a.z * b.z ); }

	push	ebp
	mov	ebp, esp
	sub	esp, 68					; 00000044H
	push	ebx
	push	esi
	push	edi
	mov	eax, DWORD PTR _a$[ebp]
	mov	ecx, DWORD PTR _b$[ebp]
	movss	xmm0, DWORD PTR [eax]
	mulss	xmm0, DWORD PTR [ecx]
	mov	edx, DWORD PTR _a$[ebp]
	mov	eax, DWORD PTR _b$[ebp]
	movss	xmm1, DWORD PTR [edx+4]
	mulss	xmm1, DWORD PTR [eax+4]
	addss	xmm0, xmm1
	mov	ecx, DWORD PTR _a$[ebp]
	mov	edx, DWORD PTR _b$[ebp]
	movss	xmm1, DWORD PTR [ecx+8]
	mulss	xmm1, DWORD PTR [edx+8]
	addss	xmm0, xmm1
	movss	DWORD PTR tv86[ebp], xmm0
	fld	DWORD PTR tv86[ebp]
	pop	edi
	pop	esi
	pop	ebx
	mov	esp, ebp
	pop	ebp
	ret	0
?DotProduct@@YAMABVVector@@0@Z ENDP			; DotProduct
_TEXT	ENDS
; Function compile flags: /Odtp /ZI
; File d:\!diffusion 2020\source code 2022\client-server\game_shared\vector.h
;	COMDAT ?Normalize@Vector@@QBE?AV1@XZ
_TEXT	SEGMENT
_flLen$ = -8						; size = 4
_this$ = -4						; size = 4
___$ReturnUdt$ = 8					; size = 4
?Normalize@Vector@@QBE?AV1@XZ PROC			; Vector::Normalize, COMDAT
; _this$ = ecx

; 251  : 	{

	push	ebp
	mov	ebp, esp
	sub	esp, 72					; 00000048H
	push	ebx
	push	esi
	push	edi
	mov	DWORD PTR _this$[ebp], ecx

; 252  : 		float flLen = Length();

	mov	ecx, DWORD PTR _this$[ebp]
	call	?Length@Vector@@QBEMXZ			; Vector::Length
	fstp	DWORD PTR _flLen$[ebp]

; 253  : 
; 254  : 		if( flLen )

	movss	xmm0, DWORD PTR _flLen$[ebp]
	ucomiss	xmm0, DWORD PTR __real@00000000
	lahf
	test	ah, 68					; 00000044H
	jnp	SHORT $LN2@Normalize

; 255  : 		{
; 256  : 			flLen = 1.0f / flLen;

	movss	xmm0, DWORD PTR __real@3f800000
	divss	xmm0, DWORD PTR _flLen$[ebp]
	movss	DWORD PTR _flLen$[ebp], xmm0

; 257  : 			return Vector( x * flLen, y * flLen, z * flLen );

	mov	eax, DWORD PTR _this$[ebp]
	movss	xmm0, DWORD PTR [eax+8]
	mulss	xmm0, DWORD PTR _flLen$[ebp]
	push	ecx
	movss	DWORD PTR [esp], xmm0
	mov	ecx, DWORD PTR _this$[ebp]
	movss	xmm0, DWORD PTR [ecx+4]
	mulss	xmm0, DWORD PTR _flLen$[ebp]
	push	ecx
	movss	DWORD PTR [esp], xmm0
	mov	edx, DWORD PTR _this$[ebp]
	movss	xmm0, DWORD PTR [edx]
	mulss	xmm0, DWORD PTR _flLen$[ebp]
	push	ecx
	movss	DWORD PTR [esp], xmm0
	mov	ecx, DWORD PTR ___$ReturnUdt$[ebp]
	call	??0Vector@@QAE@MMM@Z			; Vector::Vector
	mov	eax, DWORD PTR ___$ReturnUdt$[ebp]
	jmp	SHORT $LN1@Normalize
$LN2@Normalize:

; 258  : 		}
; 259  : 
; 260  : 		return *this; // can't normalize

	mov	eax, DWORD PTR _this$[ebp]
	push	eax
	mov	ecx, DWORD PTR ___$ReturnUdt$[ebp]
	call	??0Vector@@QAE@ABV0@@Z			; Vector::Vector
	mov	eax, DWORD PTR ___$ReturnUdt$[ebp]
$LN1@Normalize:

; 261  : 	}

	pop	edi
	pop	esi
	pop	ebx
	mov	esp, ebp
	pop	ebp
	ret	4
?Normalize@Vector@@QBE?AV1@XZ ENDP			; Vector::Normalize
_TEXT	ENDS
; Function compile flags: /Odtp /ZI
; File d:\!diffusion 2020\source code 2022\client-server\game_shared\vector.h
;	COMDAT ??BVector@@QBEPBMXZ
_TEXT	SEGMENT
_this$ = -4						; size = 4
??BVector@@QBEPBMXZ PROC				; Vector::operator float const *, COMDAT
; _this$ = ecx

; 248  : 	operator const float *() const		{ return &x; } 

	push	ebp
	mov	ebp, esp
	sub	esp, 68					; 00000044H
	push	ebx
	push	esi
	push	edi
	mov	DWORD PTR _this$[ebp], ecx
	mov	eax, DWORD PTR _this$[ebp]
	pop	edi
	pop	esi
	pop	ebx
	mov	esp, ebp
	pop	ebp
	ret	0
??BVector@@QBEPBMXZ ENDP				; Vector::operator float const *
_TEXT	ENDS
; Function compile flags: /Odtp /ZI
; File d:\!diffusion 2020\source code 2022\client-server\game_shared\vector.h
;	COMDAT ?Length@Vector@@QBEMXZ
_TEXT	SEGMENT
tv91 = -72						; size = 4
_this$ = -4						; size = 4
?Length@Vector@@QBEMXZ PROC				; Vector::Length, COMDAT
; _this$ = ecx

; 245  : 	inline float Length(void) const		{ return sqrt( x*x + y*y + z*z ); }

	push	ebp
	mov	ebp, esp
	sub	esp, 72					; 00000048H
	push	ebx
	push	esi
	push	edi
	mov	DWORD PTR _this$[ebp], ecx
	mov	eax, DWORD PTR _this$[ebp]
	mov	ecx, DWORD PTR _this$[ebp]
	movss	xmm0, DWORD PTR [eax]
	mulss	xmm0, DWORD PTR [ecx]
	mov	edx, DWORD PTR _this$[ebp]
	mov	eax, DWORD PTR _this$[ebp]
	movss	xmm1, DWORD PTR [edx+4]
	mulss	xmm1, DWORD PTR [eax+4]
	addss	xmm0, xmm1
	mov	ecx, DWORD PTR _this$[ebp]
	mov	edx, DWORD PTR _this$[ebp]
	movss	xmm1, DWORD PTR [ecx+8]
	mulss	xmm1, DWORD PTR [edx+8]
	addss	xmm0, xmm1
	cvtss2sd xmm0, xmm0
	sub	esp, 8
	movsd	QWORD PTR [esp], xmm0
	call	_sqrt
	add	esp, 8
	fstp	DWORD PTR tv91[ebp]
	fld	DWORD PTR tv91[ebp]
	pop	edi
	pop	esi
	pop	ebx
	mov	esp, ebp
	pop	ebp
	ret	0
?Length@Vector@@QBEMXZ ENDP				; Vector::Length
_TEXT	ENDS
; Function compile flags: /Odtp /ZI
; File d:\!diffusion 2020\source code 2022\client-server\game_shared\vector.h
;	COMDAT ??XVector@@QAEAAV0@M@Z
_TEXT	SEGMENT
_this$ = -4						; size = 4
_s$ = 8							; size = 4
??XVector@@QAEAAV0@M@Z PROC				; Vector::operator*=, COMDAT
; _this$ = ecx

; 183  : 	{

	push	ebp
	mov	ebp, esp
	sub	esp, 68					; 00000044H
	push	ebx
	push	esi
	push	edi
	mov	DWORD PTR _this$[ebp], ecx

; 184  : 		x *= s; y *= s; z *= s;

	mov	eax, DWORD PTR _this$[ebp]
	movss	xmm0, DWORD PTR [eax]
	mulss	xmm0, DWORD PTR _s$[ebp]
	mov	ecx, DWORD PTR _this$[ebp]
	movss	DWORD PTR [ecx], xmm0
	mov	eax, DWORD PTR _this$[ebp]
	movss	xmm0, DWORD PTR [eax+4]
	mulss	xmm0, DWORD PTR _s$[ebp]
	mov	ecx, DWORD PTR _this$[ebp]
	movss	DWORD PTR [ecx+4], xmm0
	mov	eax, DWORD PTR _this$[ebp]
	movss	xmm0, DWORD PTR [eax+8]
	mulss	xmm0, DWORD PTR _s$[ebp]
	mov	ecx, DWORD PTR _this$[ebp]
	movss	DWORD PTR [ecx+8], xmm0

; 185  : 		return *this;

	mov	eax, DWORD PTR _this$[ebp]

; 186  : 	}

	pop	edi
	pop	esi
	pop	ebx
	mov	esp, ebp
	pop	ebp
	ret	4
??XVector@@QAEAAV0@M@Z ENDP				; Vector::operator*=
_TEXT	ENDS
; Function compile flags: /Odtp /ZI
; File d:\!diffusion 2020\source code 2022\client-server\game_shared\vector.h
;	COMDAT ??YVector@@QAEAAV0@ABV0@@Z
_TEXT	SEGMENT
_this$ = -4						; size = 4
_v$ = 8							; size = 4
??YVector@@QAEAAV0@ABV0@@Z PROC				; Vector::operator+=, COMDAT
; _this$ = ecx

; 168  : 	{

	push	ebp
	mov	ebp, esp
	sub	esp, 68					; 00000044H
	push	ebx
	push	esi
	push	edi
	mov	DWORD PTR _this$[ebp], ecx

; 169  : 		x+=v.x; y+=v.y; z += v.z;	

	mov	eax, DWORD PTR _this$[ebp]
	mov	ecx, DWORD PTR _v$[ebp]
	movss	xmm0, DWORD PTR [eax]
	addss	xmm0, DWORD PTR [ecx]
	mov	edx, DWORD PTR _this$[ebp]
	movss	DWORD PTR [edx], xmm0
	mov	eax, DWORD PTR _this$[ebp]
	mov	ecx, DWORD PTR _v$[ebp]
	movss	xmm0, DWORD PTR [eax+4]
	addss	xmm0, DWORD PTR [ecx+4]
	mov	edx, DWORD PTR _this$[ebp]
	movss	DWORD PTR [edx+4], xmm0
	mov	eax, DWORD PTR _this$[ebp]
	mov	ecx, DWORD PTR _v$[ebp]
	movss	xmm0, DWORD PTR [eax+8]
	addss	xmm0, DWORD PTR [ecx+8]
	mov	edx, DWORD PTR _this$[ebp]
	movss	DWORD PTR [edx+8], xmm0

; 170  : 		return *this;

	mov	eax, DWORD PTR _this$[ebp]

; 171  : 	}			

	pop	edi
	pop	esi
	pop	ebx
	mov	esp, ebp
	pop	ebp
	ret	4
??YVector@@QAEAAV0@ABV0@@Z ENDP				; Vector::operator+=
_TEXT	ENDS
; Function compile flags: /Odtp /ZI
; File d:\!diffusion 2020\source code 2022\client-server\game_shared\vector.h
;	COMDAT ??DVector@@QBE?AV0@M@Z
_TEXT	SEGMENT
_this$ = -4						; size = 4
___$ReturnUdt$ = 8					; size = 4
_fl$ = 12						; size = 4
??DVector@@QBE?AV0@M@Z PROC				; Vector::operator*, COMDAT
; _this$ = ecx

; 162  : 	inline Vector operator*(float fl) const		{ return Vector(x*fl, y*fl, z*fl);	   }

	push	ebp
	mov	ebp, esp
	sub	esp, 68					; 00000044H
	push	ebx
	push	esi
	push	edi
	mov	DWORD PTR _this$[ebp], ecx
	mov	eax, DWORD PTR _this$[ebp]
	movss	xmm0, DWORD PTR [eax+8]
	mulss	xmm0, DWORD PTR _fl$[ebp]
	push	ecx
	movss	DWORD PTR [esp], xmm0
	mov	ecx, DWORD PTR _this$[ebp]
	movss	xmm0, DWORD PTR [ecx+4]
	mulss	xmm0, DWORD PTR _fl$[ebp]
	push	ecx
	movss	DWORD PTR [esp], xmm0
	mov	edx, DWORD PTR _this$[ebp]
	movss	xmm0, DWORD PTR [edx]
	mulss	xmm0, DWORD PTR _fl$[ebp]
	push	ecx
	movss	DWORD PTR [esp], xmm0
	mov	ecx, DWORD PTR ___$ReturnUdt$[ebp]
	call	??0Vector@@QAE@MMM@Z			; Vector::Vector
	mov	eax, DWORD PTR ___$ReturnUdt$[ebp]
	pop	edi
	pop	esi
	pop	ebx
	mov	esp, ebp
	pop	ebp
	ret	8
??DVector@@QBE?AV0@M@Z ENDP				; Vector::operator*
_TEXT	ENDS
; Function compile flags: /Odtp /ZI
; File d:\!diffusion 2020\source code 2022\client-server\game_shared\vector.h
;	COMDAT ??GVector@@QBE?AV0@ABV0@@Z
_TEXT	SEGMENT
_this$ = -4						; size = 4
___$ReturnUdt$ = 8					; size = 4
_v$ = 12						; size = 4
??GVector@@QBE?AV0@ABV0@@Z PROC				; Vector::operator-, COMDAT
; _this$ = ecx

; 159  : 	inline Vector operator-(const Vector& v) const	{ return Vector(x-v.x, y-v.y, z-v.z);	   }

	push	ebp
	mov	ebp, esp
	sub	esp, 68					; 00000044H
	push	ebx
	push	esi
	push	edi
	mov	DWORD PTR _this$[ebp], ecx
	mov	eax, DWORD PTR _this$[ebp]
	mov	ecx, DWORD PTR _v$[ebp]
	movss	xmm0, DWORD PTR [eax+8]
	subss	xmm0, DWORD PTR [ecx+8]
	push	ecx
	movss	DWORD PTR [esp], xmm0
	mov	edx, DWORD PTR _this$[ebp]
	mov	eax, DWORD PTR _v$[ebp]
	movss	xmm0, DWORD PTR [edx+4]
	subss	xmm0, DWORD PTR [eax+4]
	push	ecx
	movss	DWORD PTR [esp], xmm0
	mov	ecx, DWORD PTR _this$[ebp]
	mov	edx, DWORD PTR _v$[ebp]
	movss	xmm0, DWORD PTR [ecx]
	subss	xmm0, DWORD PTR [edx]
	push	ecx
	movss	DWORD PTR [esp], xmm0
	mov	ecx, DWORD PTR ___$ReturnUdt$[ebp]
	call	??0Vector@@QAE@MMM@Z			; Vector::Vector
	mov	eax, DWORD PTR ___$ReturnUdt$[ebp]
	pop	edi
	pop	esi
	pop	ebx
	mov	esp, ebp
	pop	ebp
	ret	8
??GVector@@QBE?AV0@ABV0@@Z ENDP				; Vector::operator-
_TEXT	ENDS
; Function compile flags: /Odtp /ZI
; File d:\!diffusion 2020\source code 2022\client-server\game_shared\vector.h
;	COMDAT ??9Vector@@QBEHABV0@@Z
_TEXT	SEGMENT
tv68 = -72						; size = 4
_this$ = -4						; size = 4
_v$ = 8							; size = 4
??9Vector@@QBEHABV0@@Z PROC				; Vector::operator!=, COMDAT
; _this$ = ecx

; 157  : 	inline int operator!=(const Vector& v) const	{ return !(*this==v);		   }

	push	ebp
	mov	ebp, esp
	sub	esp, 72					; 00000048H
	push	ebx
	push	esi
	push	edi
	mov	DWORD PTR _this$[ebp], ecx
	mov	eax, DWORD PTR _v$[ebp]
	push	eax
	mov	ecx, DWORD PTR _this$[ebp]
	call	??8Vector@@QBEHABV0@@Z			; Vector::operator==
	test	eax, eax
	jne	SHORT $LN3@operator
	mov	DWORD PTR tv68[ebp], 1
	jmp	SHORT $LN4@operator
$LN3@operator:
	mov	DWORD PTR tv68[ebp], 0
$LN4@operator:
	mov	eax, DWORD PTR tv68[ebp]
	pop	edi
	pop	esi
	pop	ebx
	mov	esp, ebp
	pop	ebp
	ret	4
??9Vector@@QBEHABV0@@Z ENDP				; Vector::operator!=
_TEXT	ENDS
; Function compile flags: /Odtp /ZI
; File d:\!diffusion 2020\source code 2022\client-server\game_shared\vector.h
;	COMDAT ??8Vector@@QBEHABV0@@Z
_TEXT	SEGMENT
tv73 = -72						; size = 4
_this$ = -4						; size = 4
_v$ = 8							; size = 4
??8Vector@@QBEHABV0@@Z PROC				; Vector::operator==, COMDAT
; _this$ = ecx

; 156  : 	inline int operator==(const Vector& v) const	{ return x==v.x && y==v.y && z==v.z;	   }

	push	ebp
	mov	ebp, esp
	sub	esp, 72					; 00000048H
	push	ebx
	push	esi
	push	edi
	mov	DWORD PTR _this$[ebp], ecx
	mov	eax, DWORD PTR _this$[ebp]
	mov	ecx, DWORD PTR _v$[ebp]
	movss	xmm0, DWORD PTR [eax]
	ucomiss	xmm0, DWORD PTR [ecx]
	lahf
	test	ah, 68					; 00000044H
	jp	SHORT $LN3@operator
	mov	edx, DWORD PTR _this$[ebp]
	mov	eax, DWORD PTR _v$[ebp]
	movss	xmm0, DWORD PTR [edx+4]
	ucomiss	xmm0, DWORD PTR [eax+4]
	lahf
	test	ah, 68					; 00000044H
	jp	SHORT $LN3@operator
	mov	ecx, DWORD PTR _this$[ebp]
	mov	edx, DWORD PTR _v$[ebp]
	movss	xmm0, DWORD PTR [ecx+8]
	ucomiss	xmm0, DWORD PTR [edx+8]
	lahf
	test	ah, 68					; 00000044H
	jp	SHORT $LN3@operator
	mov	DWORD PTR tv73[ebp], 1
	jmp	SHORT $LN4@operator
$LN3@operator:
	mov	DWORD PTR tv73[ebp], 0
$LN4@operator:
	mov	eax, DWORD PTR tv73[ebp]
	pop	edi
	pop	esi
	pop	ebx
	mov	esp, ebp
	pop	ebp
	ret	4
??8Vector@@QBEHABV0@@Z ENDP				; Vector::operator==
_TEXT	ENDS
; Function compile flags: /Odtp /ZI
; File d:\!diffusion 2020\source code 2022\client-server\game_shared\vector.h
;	COMDAT ??0Vector@@QAE@ABV0@@Z
_TEXT	SEGMENT
_this$ = -4						; size = 4
_v$ = 8							; size = 4
??0Vector@@QAE@ABV0@@Z PROC				; Vector::Vector, COMDAT
; _this$ = ecx

; 145  : 	inline Vector(const Vector& v)		{ x = v.x; y = v.y; z = v.z;		   }

	push	ebp
	mov	ebp, esp
	sub	esp, 68					; 00000044H
	push	ebx
	push	esi
	push	edi
	mov	DWORD PTR _this$[ebp], ecx
	mov	eax, DWORD PTR _this$[ebp]
	mov	ecx, DWORD PTR _v$[ebp]
	mov	edx, DWORD PTR [ecx]
	mov	DWORD PTR [eax], edx
	mov	eax, DWORD PTR _this$[ebp]
	mov	ecx, DWORD PTR _v$[ebp]
	mov	edx, DWORD PTR [ecx+4]
	mov	DWORD PTR [eax+4], edx
	mov	eax, DWORD PTR _this$[ebp]
	mov	ecx, DWORD PTR _v$[ebp]
	mov	edx, DWORD PTR [ecx+8]
	mov	DWORD PTR [eax+8], edx
	mov	eax, DWORD PTR _this$[ebp]
	pop	edi
	pop	esi
	pop	ebx
	mov	esp, ebp
	pop	ebp
	ret	4
??0Vector@@QAE@ABV0@@Z ENDP				; Vector::Vector
_TEXT	ENDS
; Function compile flags: /Odtp /ZI
; File d:\!diffusion 2020\source code 2022\client-server\game_shared\vector.h
;	COMDAT ??0Vector@@QAE@MMM@Z
_TEXT	SEGMENT
_this$ = -4						; size = 4
_X$ = 8							; size = 4
_Y$ = 12						; size = 4
_Z$ = 16						; size = 4
??0Vector@@QAE@MMM@Z PROC				; Vector::Vector, COMDAT
; _this$ = ecx

; 144  : 	inline Vector(float X, float Y, float Z)	{ x = X; y = Y; z = Z;                     }

	push	ebp
	mov	ebp, esp
	sub	esp, 68					; 00000044H
	push	ebx
	push	esi
	push	edi
	mov	DWORD PTR _this$[ebp], ecx
	mov	eax, DWORD PTR _this$[ebp]
	movss	xmm0, DWORD PTR _X$[ebp]
	movss	DWORD PTR [eax], xmm0
	mov	eax, DWORD PTR _this$[ebp]
	movss	xmm0, DWORD PTR _Y$[ebp]
	movss	DWORD PTR [eax+4], xmm0
	mov	eax, DWORD PTR _this$[ebp]
	movss	xmm0, DWORD PTR _Z$[ebp]
	movss	DWORD PTR [eax+8], xmm0
	mov	eax, DWORD PTR _this$[ebp]
	pop	edi
	pop	esi
	pop	ebx
	mov	esp, ebp
	pop	ebp
	ret	12					; 0000000cH
??0Vector@@QAE@MMM@Z ENDP				; Vector::Vector
_TEXT	ENDS
; Function compile flags: /Odtp /ZI
; File d:\!diffusion 2020\source code 2022\client-server\game_shared\vector.h
;	COMDAT ??0Vector@@QAE@XZ
_TEXT	SEGMENT
_this$ = -4						; size = 4
??0Vector@@QAE@XZ PROC					; Vector::Vector, COMDAT
; _this$ = ecx

; 143  : 	inline Vector(void)				{ }

	push	ebp
	mov	ebp, esp
	sub	esp, 68					; 00000044H
	push	ebx
	push	esi
	push	edi
	mov	DWORD PTR _this$[ebp], ecx
	mov	eax, DWORD PTR _this$[ebp]
	pop	edi
	pop	esi
	pop	ebx
	mov	esp, ebp
	pop	ebp
	ret	0
??0Vector@@QAE@XZ ENDP					; Vector::Vector
_TEXT	ENDS
; Function compile flags: /Odtp /ZI
; File d:\!diffusion 2020\source code 2022\client-server\game_shared\vector.h
;	COMDAT ?SinCos@@YAXMPAM0@Z
_TEXT	SEGMENT
_angle$ = 8						; size = 4
_sine$ = 12						; size = 4
_cosine$ = 16						; size = 4
?SinCos@@YAXMPAM0@Z PROC				; SinCos, COMDAT

; 36   : {

	push	ebp
	mov	ebp, esp
	sub	esp, 64					; 00000040H
	push	ebx
	push	esi
	push	edi

; 37   : 	/*
; 38   : 	__asm
; 39   : 	{
; 40   : 		push	ecx
; 41   : 		fld	dword ptr angle
; 42   : 		fsincos
; 43   : 		mov	ecx, dword ptr[cosine]
; 44   : 		fstp      dword ptr [ecx]
; 45   : 		mov 	ecx, dword ptr[sine]
; 46   : 		fstp	dword ptr [ecx]
; 47   : 		pop	ecx
; 48   : 	}*/
; 49   : 	*sine = sin( angle );

	cvtss2sd xmm0, DWORD PTR _angle$[ebp]
	sub	esp, 8
	movsd	QWORD PTR [esp], xmm0
	call	_sin
	add	esp, 8
	mov	eax, DWORD PTR _sine$[ebp]
	fstp	DWORD PTR [eax]

; 50   : 	*cosine = cos( angle );

	cvtss2sd xmm0, DWORD PTR _angle$[ebp]
	sub	esp, 8
	movsd	QWORD PTR [esp], xmm0
	call	_cos
	add	esp, 8
	mov	eax, DWORD PTR _cosine$[ebp]
	fstp	DWORD PTR [eax]

; 51   : }

	pop	edi
	pop	esi
	pop	ebx
	mov	esp, ebp
	pop	ebp
	ret	0
?SinCos@@YAXMPAM0@Z ENDP				; SinCos
_TEXT	ENDS
; Function compile flags: /Odtp /ZI
;	COMDAT ??__G@YGXPAX0IIP6EPAX00@Z@Z
_TEXT	SEGMENT
tv66 = -68						; size = 4
___t$ = 8						; size = 4
___u$ = 12						; size = 4
___s$ = 16						; size = 4
___n$ = 20						; size = 4
___f$ = 24						; size = 4
??__G@YGXPAX0IIP6EPAX00@Z@Z PROC			; `vector copy constructor iterator', COMDAT
	push	ebp
	mov	ebp, esp
	sub	esp, 68					; 00000044H
	push	ebx
	push	esi
	push	edi
$LN2@vector:
	mov	eax, DWORD PTR ___n$[ebp]
	mov	DWORD PTR tv66[ebp], eax
	mov	ecx, DWORD PTR ___n$[ebp]
	sub	ecx, 1
	mov	DWORD PTR ___n$[ebp], ecx
	cmp	DWORD PTR tv66[ebp], 0
	jbe	SHORT $LN1@vector
	mov	eax, DWORD PTR ___u$[ebp]
	push	eax
	mov	ecx, DWORD PTR ___t$[ebp]
	call	DWORD PTR ___f$[ebp]
	mov	eax, DWORD PTR ___t$[ebp]
	add	eax, DWORD PTR ___s$[ebp]
	mov	DWORD PTR ___t$[ebp], eax
	mov	eax, DWORD PTR ___u$[ebp]
	add	eax, DWORD PTR ___s$[ebp]
	mov	DWORD PTR ___u$[ebp], eax
	jmp	SHORT $LN2@vector
$LN1@vector:
	pop	edi
	pop	esi
	pop	ebx
	mov	esp, ebp
	pop	ebp
	ret	20					; 00000014H
??__G@YGXPAX0IIP6EPAX00@Z@Z ENDP			; `vector copy constructor iterator'
_TEXT	ENDS
; Function compile flags: /Odtp /ZI
;	COMDAT ??_H@YGXPAXIIP6EPAX0@Z@Z
_TEXT	SEGMENT
tv66 = -68						; size = 4
___t$ = 8						; size = 4
___s$ = 12						; size = 4
___n$ = 16						; size = 4
___f$ = 20						; size = 4
??_H@YGXPAXIIP6EPAX0@Z@Z PROC				; `vector constructor iterator', COMDAT
	push	ebp
	mov	ebp, esp
	sub	esp, 68					; 00000044H
	push	ebx
	push	esi
	push	edi
$LN2@vector:
	mov	eax, DWORD PTR ___n$[ebp]
	mov	DWORD PTR tv66[ebp], eax
	mov	ecx, DWORD PTR ___n$[ebp]
	sub	ecx, 1
	mov	DWORD PTR ___n$[ebp], ecx
	cmp	DWORD PTR tv66[ebp], 0
	jbe	SHORT $LN1@vector
	mov	ecx, DWORD PTR ___t$[ebp]
	call	DWORD PTR ___f$[ebp]
	mov	eax, DWORD PTR ___t$[ebp]
	add	eax, DWORD PTR ___s$[ebp]
	mov	DWORD PTR ___t$[ebp], eax
	jmp	SHORT $LN2@vector
$LN1@vector:
	pop	edi
	pop	esi
	pop	ebx
	mov	esp, ebp
	pop	ebp
	ret	16					; 00000010H
??_H@YGXPAXIIP6EPAX0@Z@Z ENDP				; `vector constructor iterator'
_TEXT	ENDS
END
