; Listing generated by Microsoft (R) Optimizing Compiler Version 19.00.24247.2 

	TITLE	D:\!DIFFUSION 2020\source code 2022\client-server\client\render\r_main.cpp
	.686P
	.XMM
	include listing.inc
	.model	flat

INCLUDELIB LIBCMT
INCLUDELIB OLDNAMES

PUBLIC	?R_CreateStudioDecalList@@YAHPAUdecallist_s@@H@Z ; R_CreateStudioDecalList
PUBLIC	?R_ClearStudioDecals@@YAXXZ			; R_ClearStudioDecals
PUBLIC	?gldepthmin@@3MA				; gldepthmin
PUBLIC	?gldepthmax@@3MA				; gldepthmax
PUBLIC	?worldmodel@@3PAUmodel_s@@A			; worldmodel
PUBLIC	?RI@@3PAUref_instance_t@@A			; RI
PUBLIC	?r_stats@@3Uref_stats_t@@A			; r_stats
PUBLIC	?HUD_RenderFrame@@YAHPBUref_viewpass_s@@@Z	; HUD_RenderFrame
PUBLIC	?HUD_SpeedsMessage@@YAHPADI@Z			; HUD_SpeedsMessage
PUBLIC	?HUD_ProcessEntData@@YAXH@Z			; HUD_ProcessEntData
PUBLIC	?HUD_ProcessModelData@@YAXPAUmodel_s@@HPBE@Z	; HUD_ProcessModelData
PUBLIC	?r_speeds_msg@@3PADA				; r_speeds_msg
PUBLIC	?r_depth_msg@@3PADA				; r_depth_msg
PUBLIC	?R_ClearScene@@YAXXZ				; R_ClearScene
PUBLIC	?r_currentMessageNum@@3HA			; r_currentMessageNum
PUBLIC	?g_fRenderInitialized@@3HA			; g_fRenderInitialized
EXTRN	?Mod_SetOrthoBounds@@YAXPBM0@Z:PROC		; Mod_SetOrthoBounds
EXTRN	?glState@@3UglState_t@@A:BYTE			; glState
EXTRN	?R_NewMap@@YAXXZ:PROC				; R_NewMap
EXTRN	?HUD_BuildLightmaps@@YAXXZ:PROC			; HUD_BuildLightmaps
EXTRN	?Mod_GetEngineVis@@YAPAEXZ:PROC			; Mod_GetEngineVis
_BSS	SEGMENT
?gldepthmin@@3MA DD 01H DUP (?)				; gldepthmin
?gldepthmax@@3MA DD 01H DUP (?)				; gldepthmax
?worldmodel@@3PAUmodel_s@@A DD 01H DUP (?)		; worldmodel
?r_stats@@3Uref_stats_t@@A DB 0a0H DUP (?)		; r_stats
?r_speeds_msg@@3PADA DB 0800H DUP (?)			; r_speeds_msg
?r_depth_msg@@3PADA DB 0800H DUP (?)			; r_depth_msg
?r_currentMessageNum@@3HA DD 01H DUP (?)		; r_currentMessageNum
?g_fRenderInitialized@@3HA DD 01H DUP (?)		; g_fRenderInitialized
_BSS	ENDS
_DATA	SEGMENT
?RI@@3PAUref_instance_t@@A DD FLAT:?glState@@3UglState_t@@A+40 ; RI
?gRenderInterface@@3Urender_interface_s@@A DD 025H	; gRenderInterface
	DD	FLAT:?HUD_RenderFrame@@YAHPBUref_viewpass_s@@@Z
	DD	FLAT:?HUD_BuildLightmaps@@YAXXZ
	DD	FLAT:?Mod_SetOrthoBounds@@YAXPBM0@Z
	DD	FLAT:?R_CreateStudioDecalList@@YAHPAUdecallist_s@@H@Z
	DD	FLAT:?R_ClearStudioDecals@@YAXXZ
	DD	FLAT:?HUD_SpeedsMessage@@YAHPADI@Z
	DD	FLAT:?HUD_ProcessModelData@@YAXPAUmodel_s@@HPBE@Z
	DD	FLAT:?HUD_ProcessEntData@@YAXH@Z
	DD	FLAT:?Mod_GetEngineVis@@YAPAEXZ
	DD	FLAT:?R_NewMap@@YAXXZ
	DD	FLAT:?R_ClearScene@@YAXXZ
_DATA	ENDS
PUBLIC	??_H@YGXPAXIIP6EPAX0@Z@Z			; `vector constructor iterator'
PUBLIC	??__G@YGXPAX0IIP6EPAX00@Z@Z			; `vector copy constructor iterator'
PUBLIC	___local_stdio_printf_options
PUBLIC	__vsprintf_s_l
PUBLIC	_vsprintf_s
PUBLIC	?SinCos@@YAXMPAM0@Z				; SinCos
PUBLIC	??0Vector2D@@QAE@XZ				; Vector2D::Vector2D
PUBLIC	??0Vector@@QAE@XZ				; Vector::Vector
PUBLIC	??0Vector@@QAE@MMM@Z				; Vector::Vector
PUBLIC	??0Vector@@QAE@ABV0@@Z				; Vector::Vector
PUBLIC	??8Vector@@QBEHABV0@@Z				; Vector::operator==
PUBLIC	??9Vector@@QBEHABV0@@Z				; Vector::operator!=
PUBLIC	??HVector@@QBE?AV0@ABV0@@Z			; Vector::operator+
PUBLIC	??GVector@@QBE?AV0@ABV0@@Z			; Vector::operator-
PUBLIC	??DVector@@QBE?AV0@M@Z				; Vector::operator*
PUBLIC	??KVector@@QBE?AV0@M@Z				; Vector::operator/
PUBLIC	??XVector@@QAEAAV0@M@Z				; Vector::operator*=
PUBLIC	?Length@Vector@@QBEMXZ				; Vector::Length
PUBLIC	??BVector@@QAEPAMXZ				; Vector::operator float *
PUBLIC	??BVector@@QBEPBMXZ				; Vector::operator float const *
PUBLIC	?DotProduct@@YAMABVVector@@0@Z			; DotProduct
PUBLIC	??0Vector4D@@QAE@XZ				; Vector4D::Vector4D
PUBLIC	??0Vector4D@@QAE@MMMM@Z				; Vector4D::Vector4D
PUBLIC	??0Vector4D@@QAE@ABV0@@Z			; Vector4D::Vector4D
PUBLIC	??BVector4D@@QAEPAMXZ				; Vector4D::operator float *
PUBLIC	??BVector4D@@QBEPBMXZ				; Vector4D::operator float const *
PUBLIC	??0matrix4x4@@QAE@ABVVector@@0M@Z		; matrix4x4::matrix4x4
PUBLIC	??Amatrix4x4@@QAEPAMH@Z				; matrix4x4::operator[]
PUBLIC	?SetForward@matrix4x4@@QAEXABVVector@@@Z	; matrix4x4::SetForward
PUBLIC	?SetRight@matrix4x4@@QAEXABVVector@@@Z		; matrix4x4::SetRight
PUBLIC	?SetUp@matrix4x4@@QAEXABVVector@@@Z		; matrix4x4::SetUp
PUBLIC	?SetOrigin@matrix4x4@@QAEXABVVector@@@Z		; matrix4x4::SetOrigin
PUBLIC	?CopyToArray@matrix4x4@@QBEXPAM@Z		; matrix4x4::CopyToArray
PUBLIC	?ConcatTranslate@matrix4x4@@QAEXMMM@Z		; matrix4x4::ConcatTranslate
PUBLIC	?ConcatRotate@matrix4x4@@QAEXMMMM@Z		; matrix4x4::ConcatRotate
PUBLIC	??0matrix4x4@@QAE@ABV0@@Z			; matrix4x4::matrix4x4
PUBLIC	?VectorClear@@YAXPAM@Z				; VectorClear
PUBLIC	?VectorNormalize@@YAMVVector@@@Z		; VectorNormalize
PUBLIC	??0material_s@@QAE@XZ				; material_s::material_s
PUBLIC	??0mplane_s@@QAE@XZ				; mplane_s::mplane_s
PUBLIC	?HUD_GetRenderInterface@@YAHHPAUrender_api_s@@PAUrender_interface_s@@@Z ; HUD_GetRenderInterface
PUBLIC	??0ref_params_s@@QAE@XZ				; ref_params_s::ref_params_s
PUBLIC	??0ref_viewpass_s@@QAE@XZ			; ref_viewpass_s::ref_viewpass_s
PUBLIC	??0CFrustum@@QAE@XZ				; CFrustum::CFrustum
PUBLIC	??0pmplane_t@@QAE@XZ				; pmplane_t::pmplane_t
PUBLIC	??0pmtrace_s@@QAE@XZ				; pmtrace_s::pmtrace_s
PUBLIC	?R_DrawStudioModel@@YAXPAUcl_entity_s@@@Z	; R_DrawStudioModel
PUBLIC	?R_RunViewmodelEvents@@YAXXZ			; R_RunViewmodelEvents
PUBLIC	?R_DrawViewModel@@YAXXZ				; R_DrawViewModel
PUBLIC	?R_ProcessStudioData@@YAXPAUmodel_s@@HPBE@Z	; R_ProcessStudioData
PUBLIC	?R_GetEntityRenderMode@@YAHPAUcl_entity_s@@@Z	; R_GetEntityRenderMode
PUBLIC	?R_StudioClearLightCache@@YAXXZ			; R_StudioClearLightCache
PUBLIC	??0gl_state_t@@QAE@XZ				; gl_state_t::gl_state_t
PUBLIC	??0gl_texbuffer_s@@QAE@XZ			; gl_texbuffer_s::gl_texbuffer_s
PUBLIC	??0plight_s@@QAE@XZ				; plight_s::plight_s
PUBLIC	??0ref_globals_t@@QAE@XZ			; ref_globals_t::ref_globals_t
PUBLIC	?GL_CacheState@@YAGABVVector@@0@Z		; GL_CacheState
PUBLIC	?R_AddEntity@@YAHPAUcl_entity_s@@H@Z		; R_AddEntity
PUBLIC	?R_WorldToScreen@@YAHABVVector@@AAV1@@Z		; R_WorldToScreen
PUBLIC	?R_SetupProjectionMatrix@@YAXMMAAVmatrix4x4@@@Z	; R_SetupProjectionMatrix
PUBLIC	?R_ScreenToWorld@@YAXABVVector@@AAV1@@Z		; R_ScreenToWorld
PUBLIC	?ScreenToWorld@@YAXHHMABVVector@@0AAV1@@Z	; ScreenToWorld
PUBLIC	?R_SetupModelviewMatrix@@YAXAAVmatrix4x4@@@Z	; R_SetupModelviewMatrix
PUBLIC	?R_DrawParticles@@YAXH@Z			; R_DrawParticles
PUBLIC	?R_CheckChanges@@YAXXZ				; R_CheckChanges
PUBLIC	?R_RenderScene@@YAXXZ				; R_RenderScene
PUBLIC	?CL_FxBlend@@YAHPAUcl_entity_s@@@Z		; CL_FxBlend
PUBLIC	?R_LoadIdentity@@YAXXZ				; R_LoadIdentity
PUBLIC	?R_RotateForEntity@@YAXPAUcl_entity_s@@@Z	; R_RotateForEntity
PUBLIC	?R_TranslateForEntity@@YAXPAUcl_entity_s@@@Z	; R_TranslateForEntity
PUBLIC	?R_TransformForEntity@@YAXABVmatrix4x4@@@Z	; R_TransformForEntity
PUBLIC	?R_GetNameForView@@YAPBDXZ			; R_GetNameForView
PUBLIC	?R_AllowFog@@YAXH@Z				; R_AllowFog
PUBLIC	?R_FindViewLeaf@@YAXXZ				; R_FindViewLeaf
PUBLIC	?R_SetupFrustum@@YAXXZ				; R_SetupFrustum
PUBLIC	?R_InitRefState@@YAXXZ				; R_InitRefState
PUBLIC	?R_ResetRefState@@YAXXZ				; R_ResetRefState
PUBLIC	?R_PushRefState@@YAXXZ				; R_PushRefState
PUBLIC	?R_PopRefState@@YAXXZ				; R_PopRefState
PUBLIC	?R_GetPrevInstance@@YAPAUref_instance_t@@XZ	; R_GetPrevInstance
PUBLIC	?R_DrawPostEffects@@YAXXZ			; R_DrawPostEffects
PUBLIC	?R_ComputeFadingDistance@@YAMPAUcl_entity_s@@@Z	; R_ComputeFadingDistance
PUBLIC	?R_DrawEntitiesOnList@@YAXXZ			; R_DrawEntitiesOnList
PUBLIC	?R_DrawSolidEntities@@YAXXZ			; R_DrawSolidEntities
PUBLIC	?R_DrawTranslucentEntities@@YAXXZ		; R_DrawTranslucentEntities
PUBLIC	?R_DrawSpriteModel@@YAXPAUcl_entity_s@@@Z	; R_DrawSpriteModel
PUBLIC	?R_RenderCubemap@@YAXPAUmcubemap_s@@@Z		; R_RenderCubemap
PUBLIC	?R_DrawCubeMaps@@YAXXZ				; R_DrawCubeMaps
PUBLIC	?ScaleFOVByWidthRatio@@YAMMM@Z			; ScaleFOVByWidthRatio
PUBLIC	??$sprintf_s@$0CA@@@YAHAAY0CA@DPBDZZ		; sprintf_s<32>
PUBLIC	?R_RestoreGLState@@YAXXZ			; R_RestoreGLState
PUBLIC	?R_DrawFog@@YAXXZ				; R_DrawFog
PUBLIC	?R_Speeds_Printf@@YAXPBDZZ			; R_Speeds_Printf
PUBLIC	??$__vcrt_va_start_verify_argument_type@PBD@@YAXXZ ; __vcrt_va_start_verify_argument_type<char const *>
PUBLIC	?HUD_PrintStats@@YAXXZ				; HUD_PrintStats
PUBLIC	?R_RenderDebugSurface@@YAXXZ			; R_RenderDebugSurface
PUBLIC	?R_CheckMonsterView@@YA_NPBUref_viewpass_s@@@Z	; R_CheckMonsterView
PUBLIC	?R_SetupRefParams@@YAXPBUref_viewpass_s@@@Z	; R_SetupRefParams
PUBLIC	?_OptionsStorage@?1??__local_stdio_printf_options@@9@4_KA ; `__local_stdio_printf_options'::`2'::_OptionsStorage
PUBLIC	?PrevViewAngles@@3VVector@@A			; PrevViewAngles
PUBLIC	?PrevViewOrg@@3VVector@@A			; PrevViewOrg
PUBLIC	?tr@@3Uref_globals_t@@A				; tr
PUBLIC	??_C@_07KLFBPMGG@mirror?5?$AA@			; `string'
PUBLIC	??_C@_08PPPFGFIJ@cubemap?5?$AA@			; `string'
PUBLIC	??_C@_06PEIMEPGC@3dsky?5?$AA@			; `string'
PUBLIC	??_C@_07FGBIOBEP@portal?5?$AA@			; `string'
PUBLIC	??_C@_07MOFBHBND@screen?5?$AA@			; `string'
PUBLIC	??_C@_07IDOAEDH@shadow?5?$AA@			; `string'
PUBLIC	??_C@_08OOIODFJN@general?5?$AA@			; `string'
PUBLIC	?__LINE__Var@?0??R_ResetRefState@@YAXXZ@4JA	; `R_ResetRefState'::`1'::__LINE__Var
PUBLIC	??_C@_0EL@DEHOCIID@d?3?2?$CBdiffusion?52020?2source?5code?52@ ; `string'
PUBLIC	??_C@_0BI@FECCGOFJ@assert?5failed?5at?5?$CFs?3?$CFi?6?$AA@ ; `string'
PUBLIC	??_C@_0BI@LAFPELPE@Refresh?5stack?5overflow?6?$AA@ ; `string'
PUBLIC	??_C@_0BJ@OFIEJFPO@Refresh?5stack?5underflow?6?$AA@ ; `string'
PUBLIC	?__LINE__Var@?0??R_GetPrevInstance@@YAPAUref_instance_t@@XZ@4JA ; `R_GetPrevInstance'::`1'::__LINE__Var
PUBLIC	??_C@_0BD@ELMLAENJ@gl_recursion_depth?$AA@	; `string'
PUBLIC	??_C@_0DM@PGFHLEML@Making?5a?5cubeshot?5at?5origin?5?$CI?$CFi?5@ ; `string'
PUBLIC	??_C@_0DP@EDKCAJPE@Usage?3?5cubeshot?5?$DMorg?4x?$DO?5?$DMorg?4y?$DO?5@ ; `string'
PUBLIC	??_C@_08JEIAHPPN@cubeshot?$AA@			; `string'
PUBLIC	??_C@_0CC@JMILOOIP@too?5many?5brush?5entities?5in?5frame@ ; `string'
PUBLIC	??_C@_08CDPCOEFH@viewsize?$AA@			; `string'
PUBLIC	?__LINE__Var@?0??R_RecursiveFindWaterTexture@@YAHPBUmnode_s@@0H@Z@4JA ; `R_RecursiveFindWaterTexture'::`1'::__LINE__Var
PUBLIC	??_C@_1JG@IKLGJBMM@?$AAd?$AA?3?$AA?2?$AA?$CB?$AAd?$AAi?$AAf?$AAf?$AAu?$AAs?$AAi?$AAo?$AAn?$AA?5?$AA2?$AA0?$AA2?$AA0?$AA?2?$AAs?$AAo?$AAu?$AAr?$AAc?$AAe?$AA?5?$AAc?$AAo?$AAd?$AAe?$AA?5?$AA2@ ; `string'
PUBLIC	??_C@_1BK@IEOLDBLK@?$AAn?$AAo?$AAd?$AAe?$AA?5?$AA?$CB?$AA?$DN?$AA?5?$AAN?$AAU?$AAL?$AAL?$AA?$AA@ ; `string'
PUBLIC	?__LINE__Var@?0??R_DrawEntitiesOnList@@YAXXZ@4JA ; `R_DrawEntitiesOnList'::`1'::__LINE__Var
PUBLIC	?__LINE__Var@?0??R_DrawSolidEntities@@YAXXZ@4JA	; `R_DrawSolidEntities'::`1'::__LINE__Var
PUBLIC	?__LINE__Var@?0??R_DrawTranslucentEntities@@YAXXZ@4JA ; `R_DrawTranslucentEntities'::`1'::__LINE__Var
PUBLIC	??_C@_0CA@IDJNKNLN@R_RenderScene?3?5NULL?5worldmodel?6?$AA@ ; `string'
PUBLIC	??_C@_0BI@HFNLNGL@?$CFs?9?$DO?$CFd?5?$CFs?5?$CI?$CFd?5subview?$CJ?6?$AA@ ; `string'
PUBLIC	??_C@_0BH@DLFJHKCJ@Renderer?3?5?$FO2XashXT?$FO7?6?6?$AA@ ; `string'
PUBLIC	??_C@_0BF@HDMMJHIF@?$CF3i?5wpoly?5?$CF3i?5epoly?6?$AA@ ; `string'
PUBLIC	??_C@_0BF@GAEOHMBG@?$CF3i?5spoly?5?$CF3i?5grass?6?$AA@ ; `string'
PUBLIC	??_C@_0CL@DDFBBACK@visible?5leafs?3?6?$CF3i?5leafs?6current@ ; `string'
PUBLIC	??_C@_0DF@ODFCEEBD@RecursiveWorldNode?3?5?$CF3lf?5secs?6Dr@ ; `string'
PUBLIC	??_C@_0CJ@BPHJMIB@PVS?5culling?5?1?5render?5time?5ratio?3@ ; `string'
PUBLIC	??_C@_0FA@LKOOPJM@?$CF3i?5static?5entities?6?$CF3i?5normal?5e@ ; `string'
PUBLIC	??_C@_0BD@GJBAHHHN@?$CF3i?5studio?5models?6?$AA@ ; `string'
PUBLIC	??_C@_0BD@OBCAOGNF@?$CF3i?5sprite?5models?6?$AA@ ; `string'
PUBLIC	??_C@_0BD@PPMLNGFF@?$CF3i?5temp?5entities?6?$AA@ ; `string'
PUBLIC	??_C@_0BK@KLENDGGL@?$CF3i?5particles?5?$CI?$CFi?5total?$CJ?6?$AA@ ; `string'
PUBLIC	??_C@_0N@HADAAIKB@?$CF3i?5mirrors?6?$AA@	; `string'
PUBLIC	??_C@_0N@DCHPNJNA@?$CF3i?5portals?6?$AA@	; `string'
PUBLIC	??_C@_0N@MLFOEPCP@?$CF3i?5screens?6?$AA@	; `string'
PUBLIC	??_C@_0N@GMPPAGDL@?$CF3i?5shadows?6?$AA@	; `string'
PUBLIC	??_C@_0M@JKLOHNGK@?$CF3i?53d?5sky?6?$AA@	; `string'
PUBLIC	??_C@_0L@DMKOEEAE@?$CF3i?5total?6?$AA@		; `string'
PUBLIC	??_C@_0BP@GMAFLHDL@DIP?5count?5?$CF3i?6Shader?5bind?5?$CF3i?6?$AA@ ; `string'
PUBLIC	??_C@_0BI@KIKJOMJI@Total?5GLSL?5shaders?5?$CF3i?6?$AA@ ; `string'
PUBLIC	??_C@_0BG@GEADDJLC@frame?5total?5tris?5?$CF3i?6?$AA@ ; `string'
PUBLIC	??_C@_0O@IHHFGCN@Surf?3?5?$FO1?$CFs?$FO7?6?$AA@	; `string'
PUBLIC	??_C@_0BE@NGGEHBJM@Shader?3?5?$FO3?$CD?$CFi?5?$CFs?$FO7?6?$AA@ ; `string'
PUBLIC	??_C@_0P@PPFIIBEH@List?5Options?3?6?$AA@	; `string'
PUBLIC	??_C@_03OFAPEBGM@?$CFs?6?$AA@			; `string'
PUBLIC	??_C@_0BF@EACMDKLF@?$CFs?5grass?5total?5size?6?$AA@ ; `string'
PUBLIC	??_C@_0BC@DIKOHGDD@Active?5shaders?3?6?6?$AA@	; `string'
PUBLIC	??_C@_0P@CBGBCGCE@?$CF3ix?5sunshaft?6?$AA@	; `string'
PUBLIC	??_C@_0BC@LKCIEGDJ@?$CF3ix?5motion?5blur?6?$AA@	; `string'
PUBLIC	??_C@_0BB@HLPAHHHE@?$CF3ix?5gauss?5blur?6?$AA@	; `string'
PUBLIC	??_C@_0BG@KKGFDGFH@?$CF3ix?5horizontal?5blur?6?$AA@ ; `string'
PUBLIC	??_C@_0BD@EDPCOAPE@?$CF3ix?5screen?5water?6?$AA@ ; `string'
PUBLIC	??_C@_0N@FBLCPHEM@?$CF3ix?5glitch?6?$AA@	; `string'
PUBLIC	??_C@_0BB@JFOGMHJC@?$CF3ix?5monochrome?6?$AA@	; `string'
PUBLIC	??_C@_0L@PHJHACJG@?$CF3ix?5SSAO?6?$AA@		; `string'
PUBLIC	??_C@_0BB@EJHEHJPH@?$CF3ix?5waterdrops?6?$AA@	; `string'
PUBLIC	??_C@_0BC@LKJHPOMG@Dynamic?5lights?3?6?6?$AA@	; `string'
PUBLIC	??_C@_0BM@GOMCEDKG@?$CF3i?5studio?5models?5affected?6?$AA@ ; `string'
PUBLIC	??_C@_0BN@IBBABCKC@?$CF3i?5world?5surfaces?5affected?6?$AA@ ; `string'
PUBLIC	__real@00000000
PUBLIC	__real@36a7c5ac
PUBLIC	__real@3851b717
PUBLIC	__real@38d1b717
PUBLIC	__real@3a83126f
PUBLIC	__real@3b23d70a
PUBLIC	__real@3c8efa35
PUBLIC	__real@3dcccccd
PUBLIC	__real@3eb0c6f7a0b5ed8d
PUBLIC	__real@3eb851ec
PUBLIC	__real@3f000000
PUBLIC	__real@3f400000
PUBLIC	__real@3f7d70a4
PUBLIC	__real@3f800000
PUBLIC	__real@3f81df46a2529d39
PUBLIC	__real@3f91df46a2529d39
PUBLIC	__real@3fdd70a4
PUBLIC	__real@40000000
PUBLIC	__real@4000000000000000
PUBLIC	__real@400921fb54442d18
PUBLIC	__real@4010000000000000
PUBLIC	__real@4020000000000000
PUBLIC	__real@4030000000000000
PUBLIC	__real@4031000000000000
PUBLIC	__real@4034000000000000
PUBLIC	__real@4037000000000000
PUBLIC	__real@40400000
PUBLIC	__real@4042000000000000
PUBLIC	__real@404ca5dc1a63c1f8
PUBLIC	__real@4050000000000000
PUBLIC	__real@4060000000000000
PUBLIC	__real@4076800000000000
PUBLIC	__real@40800000
PUBLIC	__real@40c00000
PUBLIC	__real@41000000
PUBLIC	__real@41f00000
PUBLIC	__real@428c0000
PUBLIC	__real@42c80000
PUBLIC	__real@42f00000
PUBLIC	__real@437f0000
PUBLIC	__real@43800000
PUBLIC	__real@43b58000
PUBLIC	__real@46040000
PUBLIC	__real@47c35000
PUBLIC	__real@4e6e6b28
PUBLIC	__real@c0000000
PUBLIC	__xmm@41f00000000000000000000000000000
PUBLIC	__xmm@80000000800000008000000080000000
EXTRN	___report_rangecheckfailure:PROC
EXTRN	__Init_thread_header:PROC
EXTRN	__Init_thread_abort:PROC
EXTRN	__Init_thread_footer:PROC
EXTRN	_memcmp:PROC
EXTRN	_memcpy:PROC
EXTRN	_memset:PROC
EXTRN	_strlen:PROC
EXTRN	_qsort:PROC
EXTRN	_atoi:PROC
EXTRN	_atan:PROC
EXTRN	_cos:PROC
EXTRN	_sin:PROC
EXTRN	_sqrt:PROC
EXTRN	_tan:PROC
EXTRN	_ceil:PROC
EXTRN	_floor:PROC
EXTRN	___stdio_common_vsprintf_s:PROC
EXTRN	??0matrix4x4@@QAE@XZ:PROC			; matrix4x4::matrix4x4
EXTRN	?Identity@matrix4x4@@QAEXXZ:PROC		; matrix4x4::Identity
EXTRN	?CreateModelview@matrix4x4@@QAEXXZ:PROC		; matrix4x4::CreateModelview
EXTRN	?CreateProjection@matrix4x4@@QAEXMMMM@Z:PROC	; matrix4x4::CreateProjection
EXTRN	?CreateOrtho@matrix4x4@@QAEXMMMMMM@Z:PROC	; matrix4x4::CreateOrtho
EXTRN	?CreateTranslate@matrix4x4@@QAEXMMM@Z:PROC	; matrix4x4::CreateTranslate
EXTRN	?CreateRotate@matrix4x4@@QAEXMMMM@Z:PROC	; matrix4x4::CreateRotate
EXTRN	??4matrix4x4@@QAEAAV0@ABV0@@Z:PROC		; matrix4x4::operator=
EXTRN	?InvertFull@matrix4x4@@QBE?AV1@XZ:PROC		; matrix4x4::InvertFull
EXTRN	?ConcatTransforms@matrix4x4@@QAE?AV1@V1@@Z:PROC	; matrix4x4::ConcatTransforms
EXTRN	?Concat@matrix4x4@@QAE?AV1@V1@@Z:PROC		; matrix4x4::Concat
EXTRN	?Q_strncat@@YAIPADPBDI@Z:PROC			; Q_strncat
EXTRN	?Q_strncpy@@YAIPADPBDI@Z:PROC			; Q_strncpy
EXTRN	?Q_vsnprintf@@YAHPADIPBD0@Z:PROC		; Q_vsnprintf
EXTRN	?Q_pretifymem@@YAPADMH@Z:PROC			; Q_pretifymem
EXTRN	?va@@YAPADPBDZZ:PROC				; va
EXTRN	?V_ChangeView@@YAXXZ:PROC			; V_ChangeView
EXTRN	__wassert:PROC
EXTRN	?ALERT@@YAXW4ALERT_TYPE@@PADZZ:PROC		; ALERT
EXTRN	?Mod_PointInLeaf@@YAPAUmleaf_s@@VVector@@PAUmnode_s@@@Z:PROC ; Mod_PointInLeaf
EXTRN	?HUD_DrawNormalTriangles@@YAXXZ:PROC		; HUD_DrawNormalTriangles
EXTRN	?HUD_DrawTransparentTriangles@@YAXXZ:PROC	; HUD_DrawTransparentTriangles
EXTRN	?InitProjection@CFrustum@@QAEXABVmatrix4x4@@MMMM@Z:PROC ; CFrustum::InitProjection
EXTRN	?InitOrthogonal@CFrustum@@QAEXABVmatrix4x4@@MMMMMM@Z:PROC ; CFrustum::InitOrthogonal
EXTRN	?StudioDecalList@CStudioModelRenderer@@QAEHPAUdecallist_s@@H@Z:PROC ; CStudioModelRenderer::StudioDecalList
EXTRN	?StudioClearDecals@CStudioModelRenderer@@QAEXXZ:PROC ; CStudioModelRenderer::StudioClearDecals
EXTRN	?ProcessUserData@CStudioModelRenderer@@QAEXPAUmodel_s@@HPBE@Z:PROC ; CStudioModelRenderer::ProcessUserData
EXTRN	?GetEntityRenderMode@CStudioModelRenderer@@QAEHPAUcl_entity_s@@@Z:PROC ; CStudioModelRenderer::GetEntityRenderMode
EXTRN	?DrawStudioModelInternal@CStudioModelRenderer@@QAEXPAUcl_entity_s@@@Z:PROC ; CStudioModelRenderer::DrawStudioModelInternal
EXTRN	?RunViewModelEvents@CStudioModelRenderer@@QAEXXZ:PROC ; CStudioModelRenderer::RunViewModelEvents
EXTRN	?DrawViewModel@CStudioModelRenderer@@QAEXXZ:PROC ; CStudioModelRenderer::DrawViewModel
EXTRN	?ClearLightCache@CStudioModelRenderer@@QAEXXZ:PROC ; CStudioModelRenderer::ClearLightCache
EXTRN	?R_UnloadFarGrass@@YAXXZ:PROC			; R_UnloadFarGrass
EXTRN	?GL_Support@@YA_NH@Z:PROC			; GL_Support
EXTRN	?GL_CheckForErrors_@@YAXPBDH@Z:PROC		; GL_CheckForErrors_
EXTRN	?GL_LoadMatrix@@YAXVmatrix4x4@@@Z:PROC		; GL_LoadMatrix
EXTRN	?GL_Cull@@YAXI@Z:PROC				; GL_Cull
EXTRN	?GL_DepthMask@@YAXH@Z:PROC			; GL_DepthMask
EXTRN	?GL_Blend@@YAXH@Z:PROC				; GL_Blend
EXTRN	?GL_Setup2D@@YAXXZ:PROC				; GL_Setup2D
EXTRN	?GL_Setup3D@@YAXXZ:PROC				; GL_Setup3D
EXTRN	?R_DrawRenderPasses@@YAXH@Z:PROC		; R_DrawRenderPasses
EXTRN	?R_DrawLightScissors@@YAXXZ:PROC		; R_DrawLightScissors
EXTRN	?DrawLightProbes@@YAXXZ:PROC			; DrawLightProbes
EXTRN	?DrawNormals@@YAXXZ:PROC			; DrawNormals
EXTRN	?R_AnimateLight@@YAXXZ:PROC			; R_AnimateLight
EXTRN	?R_PushDlights@@YAXXZ:PROC			; R_PushDlights
EXTRN	?CL_DecayLights@@YAXXZ:PROC			; CL_DecayLights
EXTRN	?Mod_ThrowModelInstances@@YAXXZ:PROC		; Mod_ThrowModelInstances
EXTRN	?Mod_PrepareModelInstances@@YAXXZ:PROC		; Mod_PrepareModelInstances
EXTRN	?FuncRotatingClient@@YAXPAUcl_entity_s@@@Z:PROC	; FuncRotatingClient
EXTRN	?RenderSunShafts@@YAXXZ:PROC			; RenderSunShafts
EXTRN	?GaussBlur@@YAXXZ:PROC				; GaussBlur
EXTRN	?MotionBlur@@YAXXZ:PROC				; MotionBlur
EXTRN	?HorizontalBlur@@YAXXZ:PROC			; HorizontalBlur
EXTRN	?ScreenWater@@YAXXZ:PROC			; ScreenWater
EXTRN	?Glitch@@YAXXZ:PROC				; Glitch
EXTRN	?Monochrome@@YAXXZ:PROC				; Monochrome
EXTRN	?SSAO@@YAXXZ:PROC				; SSAO
EXTRN	?ToneMap@@YAXXZ:PROC				; ToneMap
EXTRN	?Bloom@@YAXXZ:PROC				; Bloom
EXTRN	?Enhance@@YAXXZ:PROC				; Enhance
EXTRN	?WaterDrops@@YAXXZ:PROC				; WaterDrops
EXTRN	?R_RenderShadowmaps@@YAXXZ:PROC			; R_RenderShadowmaps
EXTRN	?R_RenderSubview@@YAXXZ:PROC			; R_RenderSubview
EXTRN	?GL_PretifyListOptions@@YAPBDPBD_N@Z:PROC	; GL_PretifyListOptions
EXTRN	?GL_BindShader@@YAXPAUglsl_prog_s@@@Z:PROC	; GL_BindShader
EXTRN	?V_CalcFov@@YAMAAMMM@Z:PROC			; V_CalcFov
EXTRN	?GL_LoadAndRebuildCubemaps@@YAXH@Z:PROC		; GL_LoadAndRebuildCubemaps
EXTRN	?R_DrawWorld@@YAXXZ:PROC			; R_DrawWorld
EXTRN	?R_DrawBrushModel@@YAXPAUcl_entity_s@@_N@Z:PROC	; R_DrawBrushModel
EXTRN	?R_ProcessWorldData@@YAXPAUmodel_s@@HPBE@Z:PROC	; R_ProcessWorldData
EXTRN	?R_CheckSkyPortal@@YAXPAUcl_entity_s@@@Z:PROC	; R_CheckSkyPortal
EXTRN	?DrawSpriteModelInternal@CSpriteModelRenderer@@QAEXPAUcl_entity_s@@@Z:PROC ; CSpriteModelRenderer::DrawSpriteModelInternal
EXTRN	@__security_check_cookie@4:PROC
EXTRN	___CxxFrameHandler3:PROC
EXTRN	__ftol2_sse:PROC
EXTRN	__ftoui3:PROC
EXTRN	__Init_thread_epoch:DWORD
EXTRN	?g_vecZero@@3VVector@@B:BYTE			; g_vecZero
EXTRN	?gEngfuncs@@3Ucl_enginefuncs_s@@A:BYTE		; gEngfuncs
EXTRN	?gRenderfuncs@@3Urender_api_s@@A:BYTE		; gRenderfuncs
EXTRN	?gHUD@@3VCHud@@A:BYTE				; gHUD
EXTRN	?pglBegin@@3P6GXI@ZA:DWORD			; pglBegin
EXTRN	?pglBlendFunc@@3P6GXII@ZA:DWORD			; pglBlendFunc
EXTRN	?pglClear@@3P6GXI@ZA:DWORD			; pglClear
EXTRN	?pglClearColor@@3P6GXMMMM@ZA:DWORD		; pglClearColor
EXTRN	?pglIsEnabled@@3P6GEI@ZA:DWORD			; pglIsEnabled
EXTRN	?pglClipPlane@@3P6GXIPBN@ZA:DWORD		; pglClipPlane
EXTRN	?pglColor3f@@3P6GXMMM@ZA:DWORD			; pglColor3f
EXTRN	?pglColor3ub@@3P6GXEEE@ZA:DWORD			; pglColor3ub
EXTRN	?pglColor4f@@3P6GXMMMM@ZA:DWORD			; pglColor4f
EXTRN	?pglDepthFunc@@3P6GXI@ZA:DWORD			; pglDepthFunc
EXTRN	?pglDepthMask@@3P6GXE@ZA:DWORD			; pglDepthMask
EXTRN	?pglDepthRange@@3P6GXNN@ZA:DWORD		; pglDepthRange
EXTRN	?pglDisable@@3P6GXI@ZA:DWORD			; pglDisable
EXTRN	?pglEnable@@3P6GXI@ZA:DWORD			; pglEnable
EXTRN	?pglEnd@@3P6GXXZA:DWORD				; pglEnd
EXTRN	?pglFogf@@3P6GXIM@ZA:DWORD			; pglFogf
EXTRN	?pglFogfv@@3P6GXIPBM@ZA:DWORD			; pglFogfv
EXTRN	?pglFogi@@3P6GXIH@ZA:DWORD			; pglFogi
EXTRN	?pglHint@@3P6GXII@ZA:DWORD			; pglHint
EXTRN	?pglLineWidth@@3P6GXM@ZA:DWORD			; pglLineWidth
EXTRN	?pglMatrixMode@@3P6GXI@ZA:DWORD			; pglMatrixMode
EXTRN	?pglPolygonMode@@3P6GXII@ZA:DWORD		; pglPolygonMode
EXTRN	?pglTexEnvf@@3P6GXIIM@ZA:DWORD			; pglTexEnvf
EXTRN	?pglTexEnvi@@3P6GXIIH@ZA:DWORD			; pglTexEnvi
EXTRN	?pglVertex3fv@@3P6GXPBM@ZA:DWORD		; pglVertex3fv
EXTRN	?pglViewport@@3P6GXHHHH@ZA:DWORD		; pglViewport
EXTRN	?gl_renderer@@3PAUcvar_s@@A:DWORD		; gl_renderer
EXTRN	?gl_test@@3PAUcvar_s@@A:DWORD			; gl_test
EXTRN	?r_shadows@@3PAUcvar_s@@A:DWORD			; r_shadows
EXTRN	?r_clear@@3PAUcvar_s@@A:DWORD			; r_clear
EXTRN	?r_speeds@@3PAUcvar_s@@A:DWORD			; r_speeds
EXTRN	?cl_viewsize@@3PAUcvar_s@@A:DWORD		; cl_viewsize
EXTRN	?r_nosort@@3PAUcvar_s@@A:DWORD			; r_nosort
EXTRN	?r_lightmap@@3PAUcvar_s@@A:DWORD		; r_lightmap
EXTRN	?r_fullbright@@3PAUcvar_s@@A:DWORD		; r_fullbright
EXTRN	?r_drawentities@@3PAUcvar_s@@A:DWORD		; r_drawentities
EXTRN	?gl_allow_portals@@3PAUcvar_s@@A:DWORD		; gl_allow_portals
EXTRN	?gl_allow_screens@@3PAUcvar_s@@A:DWORD		; gl_allow_screens
EXTRN	?r_recursion_depth@@3PAUcvar_s@@A:DWORD		; r_recursion_depth
EXTRN	?r_detailtextures@@3PAUcvar_s@@A:DWORD		; r_detailtextures
EXTRN	?r_lighting_modulate@@3PAUcvar_s@@A:DWORD	; r_lighting_modulate
EXTRN	?r_recursive_world_node@@3PAUcvar_s@@A:DWORD	; r_recursive_world_node
EXTRN	?r_grass@@3PAUcvar_s@@A:DWORD			; r_grass
EXTRN	?vid_gamma@@3PAUcvar_s@@A:DWORD			; vid_gamma
EXTRN	?vid_brightness@@3PAUcvar_s@@A:DWORD		; vid_brightness
EXTRN	?r_show_renderpass@@3PAUcvar_s@@A:DWORD		; r_show_renderpass
EXTRN	?r_show_light_scissors@@3PAUcvar_s@@A:DWORD	; r_show_light_scissors
EXTRN	?r_show_normals@@3PAUcvar_s@@A:DWORD		; r_show_normals
EXTRN	?r_show_lightprobes@@3PAUcvar_s@@A:DWORD	; r_show_lightprobes
EXTRN	?r_fade_props@@3PAUcvar_s@@A:DWORD		; r_fade_props
EXTRN	?r_show_cubemaps@@3PAUcvar_s@@A:DWORD		; r_show_cubemaps
EXTRN	?r_bloom_sprites@@3PAUcvar_s@@A:DWORD		; r_bloom_sprites
EXTRN	?gl_ssao@@3PAUcvar_s@@A:DWORD			; gl_ssao
EXTRN	?thirdperson@@3PAUcvar_s@@A:DWORD		; thirdperson
EXTRN	?r_sun_allowed@@3PAUcvar_s@@A:DWORD		; r_sun_allowed
EXTRN	?r_mirrorquality@@3PAUcvar_s@@A:DWORD		; r_mirrorquality
EXTRN	?gl_water_refraction@@3PAUcvar_s@@A:DWORD	; gl_water_refraction
EXTRN	?gl_water_planar@@3PAUcvar_s@@A:DWORD		; gl_water_planar
EXTRN	?gl_emboss@@3PAUcvar_s@@A:DWORD			; gl_emboss
EXTRN	?gl_specular@@3PAUcvar_s@@A:DWORD		; gl_specular
EXTRN	?gl_cubemaps@@3PAUcvar_s@@A:DWORD		; gl_cubemaps
EXTRN	?gl_bump@@3PAUcvar_s@@A:DWORD			; gl_bump
EXTRN	?cubeshot@@3PAUcvar_s@@A:DWORD			; cubeshot
EXTRN	?g_StudioRenderer@@3VCStudioModelRenderer@@A:BYTE ; g_StudioRenderer
EXTRN	?g_SpriteRenderer@@3VCSpriteModelRenderer@@A:BYTE ; g_SpriteRenderer
EXTRN	?glsl_programs@@3PAUglsl_prog_s@@A:BYTE		; glsl_programs
EXTRN	?num_glsl_programs@@3IA:DWORD			; num_glsl_programs
EXTRN	?world@@3PAUgl_world_t@@A:DWORD			; world
EXTRN	___security_cookie:DWORD
EXTRN	__fltused:DWORD
EXTRN	__tls_array:DWORD
EXTRN	__tls_index:DWORD
;	COMDAT ?_OptionsStorage@?1??__local_stdio_printf_options@@9@4_KA
_BSS	SEGMENT
?_OptionsStorage@?1??__local_stdio_printf_options@@9@4_KA DQ 01H DUP (?) ; `__local_stdio_printf_options'::`2'::_OptionsStorage
_BSS	ENDS
_BSS	SEGMENT
?PrevViewAngles@@3VVector@@A DB 0cH DUP (?)		; PrevViewAngles
?PrevViewOrg@@3VVector@@A DB 0cH DUP (?)		; PrevViewOrg
?tr@@3Uref_globals_t@@A DB 072d3e8H DUP (?)		; tr
?side@?1??CubeSide@@YAPAMVVector@@MH@Z@4V2@A DB 0cH DUP (?) ; `CubeSide'::`2'::side
?$TSS0@?1??CubeSide@@YAPAMVVector@@MH@Z@4HA DD 01H DUP (?) ; `CubeSide'::`2'::$TSS0
?passName@?1??R_GetNameForView@@YAPBDXZ@4PADA DB 0100H DUP (?) ; `R_GetNameForView'::`2'::passName
?isFogEnabled@?1??R_AllowFog@@YAXH@Z@4HA DD 01H DUP (?)	; `R_AllowFog'::`2'::isFogEnabled
?fog_enabled_old@?1??R_CheckChanges@@YAXXZ@4_NA DB 01H DUP (?) ; `R_CheckChanges'::`2'::fog_enabled_old
	ALIGN	4

?waveheight_old@?1??R_CheckChanges@@YAXXZ@4MA DD 01H DUP (?) ; `R_CheckChanges'::`2'::waveheight_old
_BSS	ENDS
CRT$XCU	SEGMENT
?tr$initializer$@@3P6AXXZA DD FLAT:??__Etr@@YAXXZ	; tr$initializer$
CRT$XCU	ENDS
;	COMDAT __xmm@80000000800000008000000080000000
CONST	SEGMENT
__xmm@80000000800000008000000080000000 DB 00H, 00H, 00H, 080H, 00H, 00H, 00H
	DB	080H, 00H, 00H, 00H, 080H, 00H, 00H, 00H, 080H
CONST	ENDS
;	COMDAT __xmm@41f00000000000000000000000000000
CONST	SEGMENT
__xmm@41f00000000000000000000000000000 DB 00H, 00H, 00H, 00H, 00H, 00H, 00H
	DB	00H, 00H, 00H, 00H, 00H, 00H, 00H, 0f0H, 'A'
CONST	ENDS
;	COMDAT __real@c0000000
CONST	SEGMENT
__real@c0000000 DD 0c0000000r			; -2
CONST	ENDS
;	COMDAT __real@4e6e6b28
CONST	SEGMENT
__real@4e6e6b28 DD 04e6e6b28r			; 1e+09
CONST	ENDS
;	COMDAT __real@47c35000
CONST	SEGMENT
__real@47c35000 DD 047c35000r			; 100000
CONST	ENDS
;	COMDAT __real@46040000
CONST	SEGMENT
__real@46040000 DD 046040000r			; 8448
CONST	ENDS
;	COMDAT __real@43b58000
CONST	SEGMENT
__real@43b58000 DD 043b58000r			; 363
CONST	ENDS
;	COMDAT __real@43800000
CONST	SEGMENT
__real@43800000 DD 043800000r			; 256
CONST	ENDS
;	COMDAT __real@437f0000
CONST	SEGMENT
__real@437f0000 DD 0437f0000r			; 255
CONST	ENDS
;	COMDAT __real@42f00000
CONST	SEGMENT
__real@42f00000 DD 042f00000r			; 120
CONST	ENDS
;	COMDAT __real@42c80000
CONST	SEGMENT
__real@42c80000 DD 042c80000r			; 100
CONST	ENDS
;	COMDAT __real@428c0000
CONST	SEGMENT
__real@428c0000 DD 0428c0000r			; 70
CONST	ENDS
;	COMDAT __real@41f00000
CONST	SEGMENT
__real@41f00000 DD 041f00000r			; 30
CONST	ENDS
;	COMDAT __real@41000000
CONST	SEGMENT
__real@41000000 DD 041000000r			; 8
CONST	ENDS
;	COMDAT __real@40c00000
CONST	SEGMENT
__real@40c00000 DD 040c00000r			; 6
CONST	ENDS
;	COMDAT __real@40800000
CONST	SEGMENT
__real@40800000 DD 040800000r			; 4
CONST	ENDS
;	COMDAT __real@4076800000000000
CONST	SEGMENT
__real@4076800000000000 DQ 04076800000000000r	; 360
CONST	ENDS
;	COMDAT __real@4060000000000000
CONST	SEGMENT
__real@4060000000000000 DQ 04060000000000000r	; 128
CONST	ENDS
;	COMDAT __real@4050000000000000
CONST	SEGMENT
__real@4050000000000000 DQ 04050000000000000r	; 64
CONST	ENDS
;	COMDAT __real@404ca5dc1a63c1f8
CONST	SEGMENT
__real@404ca5dc1a63c1f8 DQ 0404ca5dc1a63c1f8r	; 57.2958
CONST	ENDS
;	COMDAT __real@4042000000000000
CONST	SEGMENT
__real@4042000000000000 DQ 04042000000000000r	; 36
CONST	ENDS
;	COMDAT __real@40400000
CONST	SEGMENT
__real@40400000 DD 040400000r			; 3
CONST	ENDS
;	COMDAT __real@4037000000000000
CONST	SEGMENT
__real@4037000000000000 DQ 04037000000000000r	; 23
CONST	ENDS
;	COMDAT __real@4034000000000000
CONST	SEGMENT
__real@4034000000000000 DQ 04034000000000000r	; 20
CONST	ENDS
;	COMDAT __real@4031000000000000
CONST	SEGMENT
__real@4031000000000000 DQ 04031000000000000r	; 17
CONST	ENDS
;	COMDAT __real@4030000000000000
CONST	SEGMENT
__real@4030000000000000 DQ 04030000000000000r	; 16
CONST	ENDS
;	COMDAT __real@4020000000000000
CONST	SEGMENT
__real@4020000000000000 DQ 04020000000000000r	; 8
CONST	ENDS
;	COMDAT __real@4010000000000000
CONST	SEGMENT
__real@4010000000000000 DQ 04010000000000000r	; 4
CONST	ENDS
;	COMDAT __real@400921fb54442d18
CONST	SEGMENT
__real@400921fb54442d18 DQ 0400921fb54442d18r	; 3.14159
CONST	ENDS
;	COMDAT __real@4000000000000000
CONST	SEGMENT
__real@4000000000000000 DQ 04000000000000000r	; 2
CONST	ENDS
;	COMDAT __real@40000000
CONST	SEGMENT
__real@40000000 DD 040000000r			; 2
CONST	ENDS
;	COMDAT __real@3fdd70a4
CONST	SEGMENT
__real@3fdd70a4 DD 03fdd70a4r			; 1.73
CONST	ENDS
;	COMDAT __real@3f91df46a2529d39
CONST	SEGMENT
__real@3f91df46a2529d39 DQ 03f91df46a2529d39r	; 0.0174533
CONST	ENDS
;	COMDAT __real@3f81df46a2529d39
CONST	SEGMENT
__real@3f81df46a2529d39 DQ 03f81df46a2529d39r	; 0.00872665
CONST	ENDS
;	COMDAT __real@3f800000
CONST	SEGMENT
__real@3f800000 DD 03f800000r			; 1
CONST	ENDS
;	COMDAT __real@3f7d70a4
CONST	SEGMENT
__real@3f7d70a4 DD 03f7d70a4r			; 0.99
CONST	ENDS
;	COMDAT __real@3f400000
CONST	SEGMENT
__real@3f400000 DD 03f400000r			; 0.75
CONST	ENDS
;	COMDAT __real@3f000000
CONST	SEGMENT
__real@3f000000 DD 03f000000r			; 0.5
CONST	ENDS
;	COMDAT __real@3eb851ec
CONST	SEGMENT
__real@3eb851ec DD 03eb851ecr			; 0.36
CONST	ENDS
;	COMDAT __real@3eb0c6f7a0b5ed8d
CONST	SEGMENT
__real@3eb0c6f7a0b5ed8d DQ 03eb0c6f7a0b5ed8dr	; 1e-06
CONST	ENDS
;	COMDAT __real@3dcccccd
CONST	SEGMENT
__real@3dcccccd DD 03dcccccdr			; 0.1
CONST	ENDS
;	COMDAT __real@3c8efa35
CONST	SEGMENT
__real@3c8efa35 DD 03c8efa35r			; 0.0174533
CONST	ENDS
;	COMDAT __real@3b23d70a
CONST	SEGMENT
__real@3b23d70a DD 03b23d70ar			; 0.0025
CONST	ENDS
;	COMDAT __real@3a83126f
CONST	SEGMENT
__real@3a83126f DD 03a83126fr			; 0.001
CONST	ENDS
;	COMDAT __real@38d1b717
CONST	SEGMENT
__real@38d1b717 DD 038d1b717r			; 0.0001
CONST	ENDS
;	COMDAT __real@3851b717
CONST	SEGMENT
__real@3851b717 DD 03851b717r			; 5e-05
CONST	ENDS
;	COMDAT __real@36a7c5ac
CONST	SEGMENT
__real@36a7c5ac DD 036a7c5acr			; 5e-06
CONST	ENDS
;	COMDAT __real@00000000
CONST	SEGMENT
__real@00000000 DD 000000000r			; 0
CONST	ENDS
;	COMDAT ??_C@_0BN@IBBABCKC@?$CF3i?5world?5surfaces?5affected?6?$AA@
CONST	SEGMENT
??_C@_0BN@IBBABCKC@?$CF3i?5world?5surfaces?5affected?6?$AA@ DB '%3i world'
	DB	' surfaces affected', 0aH, 00H		; `string'
CONST	ENDS
;	COMDAT ??_C@_0BM@GOMCEDKG@?$CF3i?5studio?5models?5affected?6?$AA@
CONST	SEGMENT
??_C@_0BM@GOMCEDKG@?$CF3i?5studio?5models?5affected?6?$AA@ DB '%3i studio'
	DB	' models affected', 0aH, 00H			; `string'
CONST	ENDS
;	COMDAT ??_C@_0BC@LKJHPOMG@Dynamic?5lights?3?6?6?$AA@
CONST	SEGMENT
??_C@_0BC@LKJHPOMG@Dynamic?5lights?3?6?6?$AA@ DB 'Dynamic lights:', 0aH, 0aH
	DB	00H						; `string'
CONST	ENDS
;	COMDAT ??_C@_0BB@EJHEHJPH@?$CF3ix?5waterdrops?6?$AA@
CONST	SEGMENT
??_C@_0BB@EJHEHJPH@?$CF3ix?5waterdrops?6?$AA@ DB '%3ix waterdrops', 0aH, 00H ; `string'
CONST	ENDS
;	COMDAT ??_C@_0L@PHJHACJG@?$CF3ix?5SSAO?6?$AA@
CONST	SEGMENT
??_C@_0L@PHJHACJG@?$CF3ix?5SSAO?6?$AA@ DB '%3ix SSAO', 0aH, 00H ; `string'
CONST	ENDS
;	COMDAT ??_C@_0BB@JFOGMHJC@?$CF3ix?5monochrome?6?$AA@
CONST	SEGMENT
??_C@_0BB@JFOGMHJC@?$CF3ix?5monochrome?6?$AA@ DB '%3ix monochrome', 0aH, 00H ; `string'
CONST	ENDS
;	COMDAT ??_C@_0N@FBLCPHEM@?$CF3ix?5glitch?6?$AA@
CONST	SEGMENT
??_C@_0N@FBLCPHEM@?$CF3ix?5glitch?6?$AA@ DB '%3ix glitch', 0aH, 00H ; `string'
CONST	ENDS
;	COMDAT ??_C@_0BD@EDPCOAPE@?$CF3ix?5screen?5water?6?$AA@
CONST	SEGMENT
??_C@_0BD@EDPCOAPE@?$CF3ix?5screen?5water?6?$AA@ DB '%3ix screen water', 0aH
	DB	00H						; `string'
CONST	ENDS
;	COMDAT ??_C@_0BG@KKGFDGFH@?$CF3ix?5horizontal?5blur?6?$AA@
CONST	SEGMENT
??_C@_0BG@KKGFDGFH@?$CF3ix?5horizontal?5blur?6?$AA@ DB '%3ix horizontal b'
	DB	'lur', 0aH, 00H				; `string'
CONST	ENDS
;	COMDAT ??_C@_0BB@HLPAHHHE@?$CF3ix?5gauss?5blur?6?$AA@
CONST	SEGMENT
??_C@_0BB@HLPAHHHE@?$CF3ix?5gauss?5blur?6?$AA@ DB '%3ix gauss blur', 0aH, 00H ; `string'
CONST	ENDS
;	COMDAT ??_C@_0BC@LKCIEGDJ@?$CF3ix?5motion?5blur?6?$AA@
CONST	SEGMENT
??_C@_0BC@LKCIEGDJ@?$CF3ix?5motion?5blur?6?$AA@ DB '%3ix motion blur', 0aH
	DB	00H						; `string'
CONST	ENDS
;	COMDAT ??_C@_0P@CBGBCGCE@?$CF3ix?5sunshaft?6?$AA@
CONST	SEGMENT
??_C@_0P@CBGBCGCE@?$CF3ix?5sunshaft?6?$AA@ DB '%3ix sunshaft', 0aH, 00H ; `string'
CONST	ENDS
;	COMDAT ??_C@_0BC@DIKOHGDD@Active?5shaders?3?6?6?$AA@
CONST	SEGMENT
??_C@_0BC@DIKOHGDD@Active?5shaders?3?6?6?$AA@ DB 'Active shaders:', 0aH, 0aH
	DB	00H						; `string'
CONST	ENDS
;	COMDAT ??_C@_0BF@EACMDKLF@?$CFs?5grass?5total?5size?6?$AA@
CONST	SEGMENT
??_C@_0BF@EACMDKLF@?$CFs?5grass?5total?5size?6?$AA@ DB '%s grass total si'
	DB	'ze', 0aH, 00H				; `string'
CONST	ENDS
;	COMDAT ??_C@_03OFAPEBGM@?$CFs?6?$AA@
CONST	SEGMENT
??_C@_03OFAPEBGM@?$CFs?6?$AA@ DB '%s', 0aH, 00H		; `string'
CONST	ENDS
;	COMDAT ??_C@_0P@PPFIIBEH@List?5Options?3?6?$AA@
CONST	SEGMENT
??_C@_0P@PPFIIBEH@List?5Options?3?6?$AA@ DB 'List Options:', 0aH, 00H ; `string'
CONST	ENDS
;	COMDAT ??_C@_0BE@NGGEHBJM@Shader?3?5?$FO3?$CD?$CFi?5?$CFs?$FO7?6?$AA@
CONST	SEGMENT
??_C@_0BE@NGGEHBJM@Shader?3?5?$FO3?$CD?$CFi?5?$CFs?$FO7?6?$AA@ DB 'Shader'
	DB	': ^3#%i %s^7', 0aH, 00H			; `string'
CONST	ENDS
;	COMDAT ??_C@_0O@IHHFGCN@Surf?3?5?$FO1?$CFs?$FO7?6?$AA@
CONST	SEGMENT
??_C@_0O@IHHFGCN@Surf?3?5?$FO1?$CFs?$FO7?6?$AA@ DB 'Surf: ^1%s^7', 0aH, 00H ; `string'
CONST	ENDS
;	COMDAT ??_C@_0BG@GEADDJLC@frame?5total?5tris?5?$CF3i?6?$AA@
CONST	SEGMENT
??_C@_0BG@GEADDJLC@frame?5total?5tris?5?$CF3i?6?$AA@ DB 'frame total tris'
	DB	' %3i', 0aH, 00H				; `string'
CONST	ENDS
;	COMDAT ??_C@_0BI@KIKJOMJI@Total?5GLSL?5shaders?5?$CF3i?6?$AA@
CONST	SEGMENT
??_C@_0BI@KIKJOMJI@Total?5GLSL?5shaders?5?$CF3i?6?$AA@ DB 'Total GLSL sha'
	DB	'ders %3i', 0aH, 00H				; `string'
CONST	ENDS
;	COMDAT ??_C@_0BP@GMAFLHDL@DIP?5count?5?$CF3i?6Shader?5bind?5?$CF3i?6?$AA@
CONST	SEGMENT
??_C@_0BP@GMAFLHDL@DIP?5count?5?$CF3i?6Shader?5bind?5?$CF3i?6?$AA@ DB 'DI'
	DB	'P count %3i', 0aH, 'Shader bind %3i', 0aH, 00H ; `string'
CONST	ENDS
;	COMDAT ??_C@_0L@DMKOEEAE@?$CF3i?5total?6?$AA@
CONST	SEGMENT
??_C@_0L@DMKOEEAE@?$CF3i?5total?6?$AA@ DB '%3i total', 0aH, 00H ; `string'
CONST	ENDS
;	COMDAT ??_C@_0M@JKLOHNGK@?$CF3i?53d?5sky?6?$AA@
CONST	SEGMENT
??_C@_0M@JKLOHNGK@?$CF3i?53d?5sky?6?$AA@ DB '%3i 3d sky', 0aH, 00H ; `string'
CONST	ENDS
;	COMDAT ??_C@_0N@GMPPAGDL@?$CF3i?5shadows?6?$AA@
CONST	SEGMENT
??_C@_0N@GMPPAGDL@?$CF3i?5shadows?6?$AA@ DB '%3i shadows', 0aH, 00H ; `string'
CONST	ENDS
;	COMDAT ??_C@_0N@MLFOEPCP@?$CF3i?5screens?6?$AA@
CONST	SEGMENT
??_C@_0N@MLFOEPCP@?$CF3i?5screens?6?$AA@ DB '%3i screens', 0aH, 00H ; `string'
CONST	ENDS
;	COMDAT ??_C@_0N@DCHPNJNA@?$CF3i?5portals?6?$AA@
CONST	SEGMENT
??_C@_0N@DCHPNJNA@?$CF3i?5portals?6?$AA@ DB '%3i portals', 0aH, 00H ; `string'
CONST	ENDS
;	COMDAT ??_C@_0N@HADAAIKB@?$CF3i?5mirrors?6?$AA@
CONST	SEGMENT
??_C@_0N@HADAAIKB@?$CF3i?5mirrors?6?$AA@ DB '%3i mirrors', 0aH, 00H ; `string'
CONST	ENDS
;	COMDAT ??_C@_0BK@KLENDGGL@?$CF3i?5particles?5?$CI?$CFi?5total?$CJ?6?$AA@
CONST	SEGMENT
??_C@_0BK@KLENDGGL@?$CF3i?5particles?5?$CI?$CFi?5total?$CJ?6?$AA@ DB '%3i'
	DB	' particles (%i total)', 0aH, 00H		; `string'
CONST	ENDS
;	COMDAT ??_C@_0BD@PPMLNGFF@?$CF3i?5temp?5entities?6?$AA@
CONST	SEGMENT
??_C@_0BD@PPMLNGFF@?$CF3i?5temp?5entities?6?$AA@ DB '%3i temp entities', 0aH
	DB	00H						; `string'
CONST	ENDS
;	COMDAT ??_C@_0BD@OBCAOGNF@?$CF3i?5sprite?5models?6?$AA@
CONST	SEGMENT
??_C@_0BD@OBCAOGNF@?$CF3i?5sprite?5models?6?$AA@ DB '%3i sprite models', 0aH
	DB	00H						; `string'
CONST	ENDS
;	COMDAT ??_C@_0BD@GJBAHHHN@?$CF3i?5studio?5models?6?$AA@
CONST	SEGMENT
??_C@_0BD@GJBAHHHN@?$CF3i?5studio?5models?6?$AA@ DB '%3i studio models', 0aH
	DB	00H						; `string'
CONST	ENDS
;	COMDAT ??_C@_0FA@LKOOPJM@?$CF3i?5static?5entities?6?$CF3i?5normal?5e@
CONST	SEGMENT
??_C@_0FA@LKOOPJM@?$CF3i?5static?5entities?6?$CF3i?5normal?5e@ DB '%3i st'
	DB	'atic entities', 0aH, '%3i normal entities', 0aH, '%3i fading '
	DB	'entities', 0aH, '%3i faded entities', 0aH, 00H ; `string'
CONST	ENDS
;	COMDAT ??_C@_0CJ@BPHJMIB@PVS?5culling?5?1?5render?5time?5ratio?3@
CONST	SEGMENT
??_C@_0CJ@BPHJMIB@PVS?5culling?5?1?5render?5time?5ratio?3@ DB 'PVS cullin'
	DB	'g / render time ratio: %2.2lf', 0aH, 00H	; `string'
CONST	ENDS
;	COMDAT ??_C@_0DF@ODFCEEBD@RecursiveWorldNode?3?5?$CF3lf?5secs?6Dr@
CONST	SEGMENT
??_C@_0DF@ODFCEEBD@RecursiveWorldNode?3?5?$CF3lf?5secs?6Dr@ DB 'Recursive'
	DB	'WorldNode: %3lf secs', 0aH, 'DrawTextureChains %lf', 0aH, 00H ; `string'
CONST	ENDS
;	COMDAT ??_C@_0CL@DDFBBACK@visible?5leafs?3?6?$CF3i?5leafs?6current@
CONST	SEGMENT
??_C@_0CL@DDFBBACK@visible?5leafs?3?6?$CF3i?5leafs?6current@ DB 'visible '
	DB	'leafs:', 0aH, '%3i leafs', 0aH, 'current leaf %3i', 0aH, 00H ; `string'
CONST	ENDS
;	COMDAT ??_C@_0BF@GAEOHMBG@?$CF3i?5spoly?5?$CF3i?5grass?6?$AA@
CONST	SEGMENT
??_C@_0BF@GAEOHMBG@?$CF3i?5spoly?5?$CF3i?5grass?6?$AA@ DB '%3i spoly %3i '
	DB	'grass', 0aH, 00H				; `string'
CONST	ENDS
;	COMDAT ??_C@_0BF@HDMMJHIF@?$CF3i?5wpoly?5?$CF3i?5epoly?6?$AA@
CONST	SEGMENT
??_C@_0BF@HDMMJHIF@?$CF3i?5wpoly?5?$CF3i?5epoly?6?$AA@ DB '%3i wpoly %3i '
	DB	'epoly', 0aH, 00H				; `string'
CONST	ENDS
;	COMDAT ??_C@_0BH@DLFJHKCJ@Renderer?3?5?$FO2XashXT?$FO7?6?6?$AA@
CONST	SEGMENT
??_C@_0BH@DLFJHKCJ@Renderer?3?5?$FO2XashXT?$FO7?6?6?$AA@ DB 'Renderer: ^2'
	DB	'XashXT^7', 0aH, 0aH, 00H			; `string'
CONST	ENDS
;	COMDAT ??_C@_0BI@HFNLNGL@?$CFs?9?$DO?$CFd?5?$CFs?5?$CI?$CFd?5subview?$CJ?6?$AA@
CONST	SEGMENT
??_C@_0BI@HFNLNGL@?$CFs?9?$DO?$CFd?5?$CFs?5?$CI?$CFd?5subview?$CJ?6?$AA@ DB '%'
	DB	's->%d %s (%d subview)', 0aH, 00H		; `string'
CONST	ENDS
;	COMDAT ??_C@_0CA@IDJNKNLN@R_RenderScene?3?5NULL?5worldmodel?6?$AA@
CONST	SEGMENT
??_C@_0CA@IDJNKNLN@R_RenderScene?3?5NULL?5worldmodel?6?$AA@ DB 'R_RenderS'
	DB	'cene: NULL worldmodel', 0aH, 00H		; `string'
CONST	ENDS
;	COMDAT ?__LINE__Var@?0??R_DrawTranslucentEntities@@YAXXZ@4JA
_DATA	SEGMENT
?__LINE__Var@?0??R_DrawTranslucentEntities@@YAXXZ@4JA DD 065aH ; `R_DrawTranslucentEntities'::`1'::__LINE__Var
_DATA	ENDS
;	COMDAT ?__LINE__Var@?0??R_DrawSolidEntities@@YAXXZ@4JA
_DATA	SEGMENT
?__LINE__Var@?0??R_DrawSolidEntities@@YAXXZ@4JA DD 061cH ; `R_DrawSolidEntities'::`1'::__LINE__Var
_DATA	ENDS
;	COMDAT ?__LINE__Var@?0??R_DrawEntitiesOnList@@YAXXZ@4JA
_DATA	SEGMENT
?__LINE__Var@?0??R_DrawEntitiesOnList@@YAXXZ@4JA DD 05f6H ; `R_DrawEntitiesOnList'::`1'::__LINE__Var
_DATA	ENDS
;	COMDAT ??_C@_1BK@IEOLDBLK@?$AAn?$AAo?$AAd?$AAe?$AA?5?$AA?$CB?$AA?$DN?$AA?5?$AAN?$AAU?$AAL?$AAL?$AA?$AA@
CONST	SEGMENT
??_C@_1BK@IEOLDBLK@?$AAn?$AAo?$AAd?$AAe?$AA?5?$AA?$CB?$AA?$DN?$AA?5?$AAN?$AAU?$AAL?$AAL?$AA?$AA@ DB 'n'
	DB	00H, 'o', 00H, 'd', 00H, 'e', 00H, ' ', 00H, '!', 00H, '=', 00H
	DB	' ', 00H, 'N', 00H, 'U', 00H, 'L', 00H, 'L', 00H, 00H, 00H ; `string'
CONST	ENDS
;	COMDAT ??_C@_1JG@IKLGJBMM@?$AAd?$AA?3?$AA?2?$AA?$CB?$AAd?$AAi?$AAf?$AAf?$AAu?$AAs?$AAi?$AAo?$AAn?$AA?5?$AA2?$AA0?$AA2?$AA0?$AA?2?$AAs?$AAo?$AAu?$AAr?$AAc?$AAe?$AA?5?$AAc?$AAo?$AAd?$AAe?$AA?5?$AA2@
CONST	SEGMENT
??_C@_1JG@IKLGJBMM@?$AAd?$AA?3?$AA?2?$AA?$CB?$AAd?$AAi?$AAf?$AAf?$AAu?$AAs?$AAi?$AAo?$AAn?$AA?5?$AA2?$AA0?$AA2?$AA0?$AA?2?$AAs?$AAo?$AAu?$AAr?$AAc?$AAe?$AA?5?$AAc?$AAo?$AAd?$AAe?$AA?5?$AA2@ DB 'd'
	DB	00H, ':', 00H, '\', 00H, '!', 00H, 'd', 00H, 'i', 00H, 'f', 00H
	DB	'f', 00H, 'u', 00H, 's', 00H, 'i', 00H, 'o', 00H, 'n', 00H, ' '
	DB	00H, '2', 00H, '0', 00H, '2', 00H, '0', 00H, '\', 00H, 's', 00H
	DB	'o', 00H, 'u', 00H, 'r', 00H, 'c', 00H, 'e', 00H, ' ', 00H, 'c'
	DB	00H, 'o', 00H, 'd', 00H, 'e', 00H, ' ', 00H, '2', 00H, '0', 00H
	DB	'2', 00H, '2', 00H, '\', 00H, 'c', 00H, 'l', 00H, 'i', 00H, 'e'
	DB	00H, 'n', 00H, 't', 00H, '-', 00H, 's', 00H, 'e', 00H, 'r', 00H
	DB	'v', 00H, 'e', 00H, 'r', 00H, '\', 00H, 'c', 00H, 'l', 00H, 'i'
	DB	00H, 'e', 00H, 'n', 00H, 't', 00H, '\', 00H, 'r', 00H, 'e', 00H
	DB	'n', 00H, 'd', 00H, 'e', 00H, 'r', 00H, '\', 00H, 'r', 00H, '_'
	DB	00H, 'm', 00H, 'a', 00H, 'i', 00H, 'n', 00H, '.', 00H, 'c', 00H
	DB	'p', 00H, 'p', 00H, 00H, 00H			; `string'
CONST	ENDS
;	COMDAT ?__LINE__Var@?0??R_RecursiveFindWaterTexture@@YAHPBUmnode_s@@0H@Z@4JA
_DATA	SEGMENT
?__LINE__Var@?0??R_RecursiveFindWaterTexture@@YAHPBUmnode_s@@0H@Z@4JA DD 0477H ; `R_RecursiveFindWaterTexture'::`1'::__LINE__Var
_DATA	ENDS
;	COMDAT ??_C@_08CDPCOEFH@viewsize?$AA@
CONST	SEGMENT
??_C@_08CDPCOEFH@viewsize?$AA@ DB 'viewsize', 00H	; `string'
CONST	ENDS
;	COMDAT ??_C@_0CC@JMILOOIP@too?5many?5brush?5entities?5in?5frame@
CONST	SEGMENT
??_C@_0CC@JMILOOIP@too?5many?5brush?5entities?5in?5frame@ DB 'too many br'
	DB	'ush entities in frame', 0aH, 00H		; `string'
CONST	ENDS
;	COMDAT ??_C@_08JEIAHPPN@cubeshot?$AA@
CONST	SEGMENT
??_C@_08JEIAHPPN@cubeshot?$AA@ DB 'cubeshot', 00H	; `string'
CONST	ENDS
;	COMDAT ??_C@_0DP@EDKCAJPE@Usage?3?5cubeshot?5?$DMorg?4x?$DO?5?$DMorg?4y?$DO?5@
CONST	SEGMENT
??_C@_0DP@EDKCAJPE@Usage?3?5cubeshot?5?$DMorg?4x?$DO?5?$DMorg?4y?$DO?5@ DB 'U'
	DB	'sage: cubeshot <org.x> <org.y> <org.z> <filename> <cubesize>', 0aH
	DB	00H						; `string'
CONST	ENDS
;	COMDAT ??_C@_0DM@PGFHLEML@Making?5a?5cubeshot?5at?5origin?5?$CI?$CFi?5@
CONST	SEGMENT
??_C@_0DM@PGFHLEML@Making?5a?5cubeshot?5at?5origin?5?$CI?$CFi?5@ DB 'Maki'
	DB	'ng a cubeshot at origin (%i %i %i), "%s", size = %i...', 0aH, 00H ; `string'
CONST	ENDS
;	COMDAT ??_C@_0BD@ELMLAENJ@gl_recursion_depth?$AA@
CONST	SEGMENT
??_C@_0BD@ELMLAENJ@gl_recursion_depth?$AA@ DB 'gl_recursion_depth', 00H ; `string'
CONST	ENDS
;	COMDAT ?__LINE__Var@?0??R_GetPrevInstance@@YAPAUref_instance_t@@XZ@4JA
_DATA	SEGMENT
?__LINE__Var@?0??R_GetPrevInstance@@YAPAUref_instance_t@@XZ@4JA DD 0d5H ; `R_GetPrevInstance'::`1'::__LINE__Var
_DATA	ENDS
;	COMDAT ??_C@_0BJ@OFIEJFPO@Refresh?5stack?5underflow?6?$AA@
CONST	SEGMENT
??_C@_0BJ@OFIEJFPO@Refresh?5stack?5underflow?6?$AA@ DB 'Refresh stack und'
	DB	'erflow', 0aH, 00H				; `string'
CONST	ENDS
;	COMDAT ??_C@_0BI@LAFPELPE@Refresh?5stack?5overflow?6?$AA@
CONST	SEGMENT
??_C@_0BI@LAFPELPE@Refresh?5stack?5overflow?6?$AA@ DB 'Refresh stack over'
	DB	'flow', 0aH, 00H				; `string'
CONST	ENDS
;	COMDAT ??_C@_0BI@FECCGOFJ@assert?5failed?5at?5?$CFs?3?$CFi?6?$AA@
CONST	SEGMENT
??_C@_0BI@FECCGOFJ@assert?5failed?5at?5?$CFs?3?$CFi?6?$AA@ DB 'assert fai'
	DB	'led at %s:%i', 0aH, 00H			; `string'
CONST	ENDS
;	COMDAT ??_C@_0EL@DEHOCIID@d?3?2?$CBdiffusion?52020?2source?5code?52@
CONST	SEGMENT
??_C@_0EL@DEHOCIID@d?3?2?$CBdiffusion?52020?2source?5code?52@ DB 'd:\!dif'
	DB	'fusion 2020\source code 2022\client-server\client\render\r_ma'
	DB	'in.cpp', 00H				; `string'
CONST	ENDS
;	COMDAT ?__LINE__Var@?0??R_ResetRefState@@YAXXZ@4JA
_DATA	SEGMENT
?__LINE__Var@?0??R_ResetRefState@@YAXXZ@4JA DD 0a0H	; `R_ResetRefState'::`1'::__LINE__Var
_DATA	ENDS
;	COMDAT ??_C@_08OOIODFJN@general?5?$AA@
CONST	SEGMENT
??_C@_08OOIODFJN@general?5?$AA@ DB 'general ', 00H	; `string'
CONST	ENDS
;	COMDAT ??_C@_07IDOAEDH@shadow?5?$AA@
CONST	SEGMENT
??_C@_07IDOAEDH@shadow?5?$AA@ DB 'shadow ', 00H		; `string'
CONST	ENDS
;	COMDAT ??_C@_07MOFBHBND@screen?5?$AA@
CONST	SEGMENT
??_C@_07MOFBHBND@screen?5?$AA@ DB 'screen ', 00H	; `string'
CONST	ENDS
;	COMDAT ??_C@_07FGBIOBEP@portal?5?$AA@
CONST	SEGMENT
??_C@_07FGBIOBEP@portal?5?$AA@ DB 'portal ', 00H	; `string'
CONST	ENDS
;	COMDAT ??_C@_06PEIMEPGC@3dsky?5?$AA@
CONST	SEGMENT
??_C@_06PEIMEPGC@3dsky?5?$AA@ DB '3dsky ', 00H		; `string'
CONST	ENDS
;	COMDAT ??_C@_08PPPFGFIJ@cubemap?5?$AA@
CONST	SEGMENT
??_C@_08PPPFGFIJ@cubemap?5?$AA@ DB 'cubemap ', 00H	; `string'
CONST	ENDS
;	COMDAT ??_C@_07KLFBPMGG@mirror?5?$AA@
CONST	SEGMENT
??_C@_07KLFBPMGG@mirror?5?$AA@ DB 'mirror ', 00H	; `string'
CONST	ENDS
;	COMDAT xdata$x
xdata$x	SEGMENT
__unwindtable$?CubeSide@@YAPAMVVector@@MH@Z DD 0ffffffffH
	DD	FLAT:__unwindfunclet$?CubeSide@@YAPAMVVector@@MH@Z$0
__ehfuncinfo$?CubeSide@@YAPAMVVector@@MH@Z DD 019930522H
	DD	01H
	DD	FLAT:__unwindtable$?CubeSide@@YAPAMVVector@@MH@Z
	DD	2 DUP(00H)
	DD	2 DUP(00H)
	DD	00H
	DD	01H
xdata$x	ENDS
CRT$XCU	SEGMENT
?PrevViewAngles$initializer$@@3P6AXXZA DD FLAT:??__EPrevViewAngles@@YAXXZ ; PrevViewAngles$initializer$
CRT$XCU	ENDS
CRT$XCU	SEGMENT
?PrevViewOrg$initializer$@@3P6AXXZA DD FLAT:??__EPrevViewOrg@@YAXXZ ; PrevViewOrg$initializer$
CRT$XCU	ENDS
; Function compile flags: /Odtp /ZI
; File d:\!diffusion 2020\source code 2022\client-server\client\render\r_main.cpp
;	COMDAT ?HUD_ProcessModelData@@YAXPAUmodel_s@@HPBE@Z
_TEXT	SEGMENT
_mod$ = 8						; size = 4
_create$ = 12						; size = 4
_buffer$ = 16						; size = 4
?HUD_ProcessModelData@@YAXPAUmodel_s@@HPBE@Z PROC	; HUD_ProcessModelData, COMDAT

; 2215 : {

	push	ebp
	mov	ebp, esp
	sub	esp, 64					; 00000040H
	push	ebx
	push	esi
	push	edi

; 2216 : 	if( !g_fRenderInitialized ) return;

	cmp	DWORD PTR ?g_fRenderInitialized@@3HA, 0	; g_fRenderInitialized
	jne	SHORT $LN2@HUD_Proces
	jmp	SHORT $LN1@HUD_Proces
$LN2@HUD_Proces:

; 2217 : 
; 2218 : 	// g-cont. probably this is redundant :-)
; 2219 : 	if( RENDER_GET_PARM( PARM_DEDICATED_SERVER, 0 ))

	push	0
	push	32					; 00000020H
	call	DWORD PTR ?gRenderfuncs@@3Urender_api_s@@A
	add	esp, 8
	test	eax, eax
	je	SHORT $LN3@HUD_Proces

; 2220 : 		return;

	jmp	SHORT $LN1@HUD_Proces
$LN3@HUD_Proces:

; 2221 : 
; 2222 : 	if( FBitSet( mod->flags, MODEL_WORLD ))

	mov	eax, DWORD PTR _mod$[ebp]
	mov	ecx, DWORD PTR [eax+80]
	and	ecx, 536870912				; 20000000H
	je	SHORT $LN4@HUD_Proces

; 2223 : 		R_ProcessWorldData( mod, create, buffer );

	mov	eax, DWORD PTR _buffer$[ebp]
	push	eax
	mov	ecx, DWORD PTR _create$[ebp]
	push	ecx
	mov	edx, DWORD PTR _mod$[ebp]
	push	edx
	call	?R_ProcessWorldData@@YAXPAUmodel_s@@HPBE@Z ; R_ProcessWorldData
	add	esp, 12					; 0000000cH
	jmp	SHORT $LN1@HUD_Proces
$LN4@HUD_Proces:

; 2224 : 	else R_ProcessStudioData( mod, create, buffer );

	mov	eax, DWORD PTR _buffer$[ebp]
	push	eax
	mov	ecx, DWORD PTR _create$[ebp]
	push	ecx
	mov	edx, DWORD PTR _mod$[ebp]
	push	edx
	call	?R_ProcessStudioData@@YAXPAUmodel_s@@HPBE@Z ; R_ProcessStudioData
	add	esp, 12					; 0000000cH
$LN1@HUD_Proces:

; 2225 : }

	pop	edi
	pop	esi
	pop	ebx
	mov	esp, ebp
	pop	ebp
	ret	0
?HUD_ProcessModelData@@YAXPAUmodel_s@@HPBE@Z ENDP	; HUD_ProcessModelData
_TEXT	ENDS
; Function compile flags: /Odtp /ZI
; File d:\!diffusion 2020\source code 2022\client-server\client\render\r_main.cpp
;	COMDAT ?HUD_ProcessEntData@@YAXH@Z
_TEXT	SEGMENT
_allocate$ = 8						; size = 4
?HUD_ProcessEntData@@YAXH@Z PROC			; HUD_ProcessEntData, COMDAT

; 2200 : {

	push	ebp
	mov	ebp, esp
	sub	esp, 64					; 00000040H
	push	ebx
	push	esi
	push	edi

; 2201 : 	if (allocate)

	cmp	DWORD PTR _allocate$[ebp], 0
	je	SHORT $LN2@HUD_Proces

; 2202 : 	{
; 2203 : 		Mod_PrepareModelInstances();

	call	?Mod_PrepareModelInstances@@YAXXZ	; Mod_PrepareModelInstances

; 2204 : 		if (strlen(world->name) < 1)

	mov	eax, DWORD PTR ?world@@3PAUgl_world_t@@A ; world
	push	eax
	call	_strlen
	add	esp, 4
	cmp	eax, 1
	jae	SHORT $LN4@HUD_Proces

; 2205 : 		{
; 2206 : 			// flush world name, cached in GL_InitModelLightCache
; 2207 : 			world->ignore_restart_check = true;

	mov	eax, DWORD PTR ?world@@3PAUgl_world_t@@A ; world
	mov	BYTE PTR [eax+114980], 1
$LN4@HUD_Proces:

; 2208 : 		}
; 2209 : 	}

	jmp	SHORT $LN1@HUD_Proces
$LN2@HUD_Proces:

; 2210 : 	else Mod_ThrowModelInstances();

	call	?Mod_ThrowModelInstances@@YAXXZ		; Mod_ThrowModelInstances
$LN1@HUD_Proces:

; 2211 : 
; 2212 : }

	pop	edi
	pop	esi
	pop	ebx
	mov	esp, ebp
	pop	ebp
	ret	0
?HUD_ProcessEntData@@YAXH@Z ENDP			; HUD_ProcessEntData
_TEXT	ENDS
; Function compile flags: /Odtp /ZI
; File d:\!diffusion 2020\source code 2022\client-server\client\render\r_main.cpp
;	COMDAT ?HUD_SpeedsMessage@@YAHPADI@Z
_TEXT	SEGMENT
tv68 = -65						; size = 1
_out$ = 8						; size = 4
_size$ = 12						; size = 4
?HUD_SpeedsMessage@@YAHPADI@Z PROC			; HUD_SpeedsMessage, COMDAT

; 2187 : {

	push	ebp
	mov	ebp, esp
	sub	esp, 68					; 00000044H
	push	ebx
	push	esi
	push	edi

; 2188 : 	if( !g_fRenderInitialized || !CVAR_TO_BOOL( gl_renderer ))

	cmp	DWORD PTR ?g_fRenderInitialized@@3HA, 0	; g_fRenderInitialized
	je	SHORT $LN3@HUD_Speeds
	cmp	DWORD PTR ?gl_renderer@@3PAUcvar_s@@A, 0 ; gl_renderer
	je	SHORT $LN7@HUD_Speeds
	mov	eax, DWORD PTR ?gl_renderer@@3PAUcvar_s@@A ; gl_renderer
	movss	xmm0, DWORD PTR [eax+12]
	ucomiss	xmm0, DWORD PTR __real@00000000
	lahf
	test	ah, 68					; 00000044H
	jnp	SHORT $LN7@HUD_Speeds
	mov	BYTE PTR tv68[ebp], 1
	jmp	SHORT $LN8@HUD_Speeds
$LN7@HUD_Speeds:
	mov	BYTE PTR tv68[ebp], 0
$LN8@HUD_Speeds:
	movzx	ecx, BYTE PTR tv68[ebp]
	test	ecx, ecx
	jne	SHORT $LN2@HUD_Speeds
$LN3@HUD_Speeds:

; 2189 : 		return false; // let the engine use built-in counters

	xor	eax, eax
	jmp	SHORT $LN1@HUD_Speeds
$LN2@HUD_Speeds:

; 2190 : 
; 2191 : 	if( r_speeds->value <= 0 || !out || !size )

	mov	eax, DWORD PTR ?r_speeds@@3PAUcvar_s@@A	; r_speeds
	xorps	xmm0, xmm0
	comiss	xmm0, DWORD PTR [eax+12]
	jae	SHORT $LN5@HUD_Speeds
	cmp	DWORD PTR _out$[ebp], 0
	je	SHORT $LN5@HUD_Speeds
	cmp	DWORD PTR _size$[ebp], 0
	jne	SHORT $LN4@HUD_Speeds
$LN5@HUD_Speeds:

; 2192 : 		return false;

	xor	eax, eax
	jmp	SHORT $LN1@HUD_Speeds
$LN4@HUD_Speeds:

; 2193 : 
; 2194 : 	Q_strncpy( out, r_speeds_msg, size );

	mov	eax, DWORD PTR _size$[ebp]
	push	eax
	push	OFFSET ?r_speeds_msg@@3PADA		; r_speeds_msg
	mov	ecx, DWORD PTR _out$[ebp]
	push	ecx
	call	?Q_strncpy@@YAIPADPBDI@Z		; Q_strncpy
	add	esp, 12					; 0000000cH

; 2195 : 
; 2196 : 	return true;

	mov	eax, 1
$LN1@HUD_Speeds:

; 2197 : }

	pop	edi
	pop	esi
	pop	ebx
	mov	esp, ebp
	pop	ebp
	ret	0
?HUD_SpeedsMessage@@YAHPADI@Z ENDP			; HUD_SpeedsMessage
_TEXT	ENDS
; Function compile flags: /Odtp /ZI
; File d:\!diffusion 2020\source code 2022\client-server\client\render\r_main.cpp
;	COMDAT ?HUD_RenderFrame@@YAHPBUref_viewpass_s@@@Z
_TEXT	SEGMENT
tv146 = -69						; size = 1
tv140 = -69						; size = 1
tv134 = -69						; size = 1
tv92 = -69						; size = 1
tv80 = -69						; size = 1
$T1 = -68						; size = 4
_rvp$ = 8						; size = 4
?HUD_RenderFrame@@YAHPBUref_viewpass_s@@@Z PROC		; HUD_RenderFrame, COMDAT

; 2129 : {	

	push	ebp
	mov	ebp, esp
	sub	esp, 72					; 00000048H
	push	ebx
	push	esi
	push	edi

; 2130 : 	r_speeds_msg[0] = r_depth_msg[0] = '\0';

	mov	eax, 1
	imul	ecx, eax, 0
	mov	DWORD PTR $T1[ebp], ecx
	cmp	DWORD PTR $T1[ebp], 2048		; 00000800H
	jae	SHORT $LN11@HUD_Render
	jmp	SHORT $LN12@HUD_Render
$LN11@HUD_Render:
	call	___report_rangecheckfailure
$LN12@HUD_Render:
	mov	edx, DWORD PTR $T1[ebp]
	mov	BYTE PTR ?r_depth_msg@@3PADA[edx], 0
	mov	eax, 1
	imul	ecx, eax, 0
	mov	BYTE PTR ?r_speeds_msg@@3PADA[ecx], 0

; 2131 : 	tr.fCustomRendering = false;

	mov	BYTE PTR ?tr@@3Uref_globals_t@@A+1, 0

; 2132 : 
; 2133 : 	// it's playersetup overview, ignore it	
; 2134 : 	if( !FBitSet( rvp->flags, RF_DRAW_WORLD ))

	mov	eax, DWORD PTR _rvp$[ebp]
	mov	ecx, DWORD PTR [eax+52]
	and	ecx, 1
	jne	SHORT $LN2@HUD_Render

; 2135 : 		return 0;

	xor	eax, eax
	jmp	$LN1@HUD_Render
$LN2@HUD_Render:

; 2136 : 
; 2137 : 	// draw client things through engine renderer
; 2138 : 	if( FBitSet( rvp->flags, RF_ONLY_CLIENTDRAW ))

	mov	eax, DWORD PTR _rvp$[ebp]
	mov	ecx, DWORD PTR [eax+52]
	and	ecx, 8
	je	SHORT $LN3@HUD_Render

; 2139 : 		return 0;

	xor	eax, eax
	jmp	$LN1@HUD_Render
$LN3@HUD_Render:

; 2140 : 
; 2141 : 	R_SetupRefParams( rvp );

	mov	eax, DWORD PTR _rvp$[ebp]
	push	eax
	call	?R_SetupRefParams@@YAXPBUref_viewpass_s@@@Z ; R_SetupRefParams
	add	esp, 4

; 2142 : 
; 2143 : 	if( !g_fRenderInitialized )

	cmp	DWORD PTR ?g_fRenderInitialized@@3HA, 0	; g_fRenderInitialized
	jne	SHORT $LN4@HUD_Render

; 2144 : 		return 0;

	xor	eax, eax
	jmp	$LN1@HUD_Render
$LN4@HUD_Render:

; 2145 : 
; 2146 : 	// use engine renderer
; 2147 : 	if( !CVAR_TO_BOOL( gl_renderer ))

	cmp	DWORD PTR ?gl_renderer@@3PAUcvar_s@@A, 0 ; gl_renderer
	je	SHORT $LN13@HUD_Render
	mov	eax, DWORD PTR ?gl_renderer@@3PAUcvar_s@@A ; gl_renderer
	movss	xmm0, DWORD PTR [eax+12]
	ucomiss	xmm0, DWORD PTR __real@00000000
	lahf
	test	ah, 68					; 00000044H
	jnp	SHORT $LN13@HUD_Render
	mov	BYTE PTR tv80[ebp], 1
	jmp	SHORT $LN14@HUD_Render
$LN13@HUD_Render:
	mov	BYTE PTR tv80[ebp], 0
$LN14@HUD_Render:
	movzx	ecx, BYTE PTR tv80[ebp]
	test	ecx, ecx
	jne	SHORT $LN5@HUD_Render

; 2148 : 	{
; 2149 : 		tr.fResetVis = true;

	mov	BYTE PTR ?tr@@3Uref_globals_t@@A, 1

; 2150 : 		return 0;

	xor	eax, eax
	jmp	$LN1@HUD_Render
$LN5@HUD_Render:

; 2151 : 	}
; 2152 : 
; 2153 : 	memset( tr.visbytes, 0, tr.pvssize );

	mov	eax, DWORD PTR ?tr@@3Uref_globals_t@@A+5835052
	push	eax
	push	0
	push	OFFSET ?tr@@3Uref_globals_t@@A+5830956
	call	_memset
	add	esp, 12					; 0000000cH

; 2154 : 
; 2155 : 	GL_LoadAndRebuildCubemaps( RI->params );  // diffusioncubemaps

	mov	eax, DWORD PTR ?RI@@3PAUref_instance_t@@A ; RI
	mov	ecx, DWORD PTR [eax]
	push	ecx
	call	?GL_LoadAndRebuildCubemaps@@YAXH@Z	; GL_LoadAndRebuildCubemaps
	add	esp, 4

; 2156 : 
; 2157 : 	tr.fCustomRendering = true;

	mov	BYTE PTR ?tr@@3Uref_globals_t@@A+1, 1

; 2158 : 	tr.realframecount++;

	mov	eax, DWORD PTR ?tr@@3Uref_globals_t@@A+5830928
	add	eax, 1
	mov	DWORD PTR ?tr@@3Uref_globals_t@@A+5830928, eax

; 2159 : 
; 2160 : 	// draw main view
; 2161 : 	R_RenderScene();

	call	?R_RenderScene@@YAXXZ			; R_RenderScene

; 2162 : 
; 2163 : 	R_RestoreGLState();

	call	?R_RestoreGLState@@YAXXZ		; R_RestoreGLState

; 2164 : 
; 2165 : 	R_RenderDebugSurface ();

	call	?R_RenderDebugSurface@@YAXXZ		; R_RenderDebugSurface

; 2166 : 
; 2167 : 	if( CVAR_TO_BOOL( r_show_renderpass ))

	cmp	DWORD PTR ?r_show_renderpass@@3PAUcvar_s@@A, 0 ; r_show_renderpass
	je	SHORT $LN15@HUD_Render
	mov	eax, DWORD PTR ?r_show_renderpass@@3PAUcvar_s@@A ; r_show_renderpass
	movss	xmm0, DWORD PTR [eax+12]
	ucomiss	xmm0, DWORD PTR __real@00000000
	lahf
	test	ah, 68					; 00000044H
	jnp	SHORT $LN15@HUD_Render
	mov	BYTE PTR tv92[ebp], 1
	jmp	SHORT $LN16@HUD_Render
$LN15@HUD_Render:
	mov	BYTE PTR tv92[ebp], 0
$LN16@HUD_Render:
	movzx	ecx, BYTE PTR tv92[ebp]
	test	ecx, ecx
	je	SHORT $LN6@HUD_Render

; 2168 : 		R_DrawRenderPasses( (int)r_show_renderpass->value - 1 );

	mov	eax, DWORD PTR ?r_show_renderpass@@3PAUcvar_s@@A ; r_show_renderpass
	cvttss2si ecx, DWORD PTR [eax+12]
	sub	ecx, 1
	push	ecx
	call	?R_DrawRenderPasses@@YAXH@Z		; R_DrawRenderPasses
	add	esp, 4
$LN6@HUD_Render:

; 2169 : 
; 2170 : 	if( CVAR_TO_BOOL( r_show_light_scissors ))

	cmp	DWORD PTR ?r_show_light_scissors@@3PAUcvar_s@@A, 0 ; r_show_light_scissors
	je	SHORT $LN17@HUD_Render
	mov	eax, DWORD PTR ?r_show_light_scissors@@3PAUcvar_s@@A ; r_show_light_scissors
	movss	xmm0, DWORD PTR [eax+12]
	ucomiss	xmm0, DWORD PTR __real@00000000
	lahf
	test	ah, 68					; 00000044H
	jnp	SHORT $LN17@HUD_Render
	mov	BYTE PTR tv134[ebp], 1
	jmp	SHORT $LN18@HUD_Render
$LN17@HUD_Render:
	mov	BYTE PTR tv134[ebp], 0
$LN18@HUD_Render:
	movzx	ecx, BYTE PTR tv134[ebp]
	test	ecx, ecx
	je	SHORT $LN7@HUD_Render

; 2171 : 		R_DrawLightScissors();

	call	?R_DrawLightScissors@@YAXXZ		; R_DrawLightScissors
$LN7@HUD_Render:

; 2172 : 
; 2173 : 	if( CVAR_TO_BOOL( r_show_lightprobes ))

	cmp	DWORD PTR ?r_show_lightprobes@@3PAUcvar_s@@A, 0 ; r_show_lightprobes
	je	SHORT $LN19@HUD_Render
	mov	eax, DWORD PTR ?r_show_lightprobes@@3PAUcvar_s@@A ; r_show_lightprobes
	movss	xmm0, DWORD PTR [eax+12]
	ucomiss	xmm0, DWORD PTR __real@00000000
	lahf
	test	ah, 68					; 00000044H
	jnp	SHORT $LN19@HUD_Render
	mov	BYTE PTR tv140[ebp], 1
	jmp	SHORT $LN20@HUD_Render
$LN19@HUD_Render:
	mov	BYTE PTR tv140[ebp], 0
$LN20@HUD_Render:
	movzx	ecx, BYTE PTR tv140[ebp]
	test	ecx, ecx
	je	SHORT $LN8@HUD_Render

; 2174 : 		DrawLightProbes();

	call	?DrawLightProbes@@YAXXZ			; DrawLightProbes
$LN8@HUD_Render:

; 2175 : 
; 2176 : 	if( CVAR_TO_BOOL( r_show_normals ))

	cmp	DWORD PTR ?r_show_normals@@3PAUcvar_s@@A, 0 ; r_show_normals
	je	SHORT $LN21@HUD_Render
	mov	eax, DWORD PTR ?r_show_normals@@3PAUcvar_s@@A ; r_show_normals
	movss	xmm0, DWORD PTR [eax+12]
	ucomiss	xmm0, DWORD PTR __real@00000000
	lahf
	test	ah, 68					; 00000044H
	jnp	SHORT $LN21@HUD_Render
	mov	BYTE PTR tv146[ebp], 1
	jmp	SHORT $LN22@HUD_Render
$LN21@HUD_Render:
	mov	BYTE PTR tv146[ebp], 0
$LN22@HUD_Render:
	movzx	ecx, BYTE PTR tv146[ebp]
	test	ecx, ecx
	je	SHORT $LN9@HUD_Render

; 2177 : 		DrawNormals();

	call	?DrawNormals@@YAXXZ			; DrawNormals
$LN9@HUD_Render:

; 2178 : 
; 2179 : 	R_UnloadFarGrass();

	call	?R_UnloadFarGrass@@YAXXZ		; R_UnloadFarGrass

; 2180 : 
; 2181 : 	HUD_PrintStats();

	call	?HUD_PrintStats@@YAXXZ			; HUD_PrintStats

; 2182 : 
; 2183 : 	return 1;

	mov	eax, 1
$LN1@HUD_Render:

; 2184 : }

	pop	edi
	pop	esi
	pop	ebx
	mov	esp, ebp
	pop	ebp
	ret	0
?HUD_RenderFrame@@YAHPBUref_viewpass_s@@@Z ENDP		; HUD_RenderFrame
_TEXT	ENDS
; Function compile flags: /Odtp /ZI
; File d:\!diffusion 2020\source code 2022\client-server\client\render\r_main.cpp
;	COMDAT ?R_SetupRefParams@@YAXPBUref_viewpass_s@@@Z
_TEXT	SEGMENT
_rvp$ = 8						; size = 4
?R_SetupRefParams@@YAXPBUref_viewpass_s@@@Z PROC	; R_SetupRefParams, COMDAT

; 2049 : {

	push	ebp
	mov	ebp, esp
	sub	esp, 64					; 00000040H
	push	ebx
	push	esi
	push	edi

; 2050 : 	RI->params = RP_NONE;

	mov	eax, DWORD PTR ?RI@@3PAUref_instance_t@@A ; RI
	mov	DWORD PTR [eax], 0

; 2051 : 	RI->farClip = 0;

	mov	eax, DWORD PTR ?RI@@3PAUref_instance_t@@A ; RI
	xorps	xmm0, xmm0
	movss	DWORD PTR [eax+264], xmm0

; 2052 : 
; 2053 : 	tr.time = GET_CLIENT_TIME();

	call	DWORD PTR ?gEngfuncs@@3Ucl_enginefuncs_s@@A+216
	fstp	QWORD PTR ?tr@@3Uref_globals_t@@A+8

; 2054 : 	tr.oldtime = GET_CLIENT_OLDTIME();

	call	DWORD PTR ?gEngfuncs@@3Ucl_enginefuncs_s@@A+420
	fstp	QWORD PTR ?tr@@3Uref_globals_t@@A+16

; 2055 : 	tr.fGamePaused = RENDER_GET_PARM( PARAM_GAMEPAUSED, 0 );

	push	0
	push	18					; 00000012H
	call	DWORD PTR ?gRenderfuncs@@3Urender_api_s@@A
	add	esp, 8
	mov	DWORD PTR ?tr@@3Uref_globals_t@@A+4, eax

; 2056 : 
; 2057 : 	if( !FBitSet( rvp->flags, RF_DRAW_CUBEMAP ))

	mov	eax, DWORD PTR _rvp$[ebp]
	mov	ecx, DWORD PTR [eax+52]
	and	ecx, 2
	jne	SHORT $LN2@R_SetupRef

; 2058 : 	{
; 2059 : 		if( FBitSet( rvp->flags, RF_DRAW_OVERVIEW ))

	mov	eax, DWORD PTR _rvp$[ebp]
	mov	ecx, DWORD PTR [eax+52]
	and	ecx, 4
	je	SHORT $LN4@R_SetupRef

; 2060 : 		{
; 2061 : 			SetBits( RI->params, RP_THIRDPERSON );

	mov	eax, DWORD PTR ?RI@@3PAUref_instance_t@@A ; RI
	mov	ecx, DWORD PTR [eax]
	or	ecx, 8192				; 00002000H
	mov	edx, DWORD PTR ?RI@@3PAUref_instance_t@@A ; RI
	mov	DWORD PTR [edx], ecx

; 2062 : 			SetBits( RI->params, RP_OVERVIEW );

	mov	eax, DWORD PTR ?RI@@3PAUref_instance_t@@A ; RI
	mov	ecx, DWORD PTR [eax]
	or	ecx, 512				; 00000200H
	mov	edx, DWORD PTR ?RI@@3PAUref_instance_t@@A ; RI
	mov	DWORD PTR [edx], ecx
$LN4@R_SetupRef:

; 2063 : 		}
; 2064 : 
; 2065 : 		if( gHUD.m_iCameraMode )

	cmp	DWORD PTR ?gHUD@@3VCHud@@A+100, 0
	je	SHORT $LN5@R_SetupRef

; 2066 : 			SetBits( RI->params, RP_THIRDPERSON );

	mov	eax, DWORD PTR ?RI@@3PAUref_instance_t@@A ; RI
	mov	ecx, DWORD PTR [eax]
	or	ecx, 8192				; 00002000H
	mov	edx, DWORD PTR ?RI@@3PAUref_instance_t@@A ; RI
	mov	DWORD PTR [edx], ecx
$LN5@R_SetupRef:

; 2067 : 	}
; 2068 : 	else

	jmp	SHORT $LN3@R_SetupRef
$LN2@R_SetupRef:

; 2069 : 	{
; 2070 : 		SetBits( RI->params, RP_ENVVIEW );

	mov	eax, DWORD PTR ?RI@@3PAUref_instance_t@@A ; RI
	mov	ecx, DWORD PTR [eax]
	or	ecx, 2
	mov	edx, DWORD PTR ?RI@@3PAUref_instance_t@@A ; RI
	mov	DWORD PTR [edx], ecx

; 2071 : 
; 2072 : 		// now all uber-shaders are invalidate
; 2073 : 		// and possible need for recompile
; 2074 : 		tr.params_changed = true;

	mov	BYTE PTR ?tr@@3Uref_globals_t@@A+5830932, 1

; 2075 : 		tr.glsl_valid_sequence++;

	mov	eax, DWORD PTR ?tr@@3Uref_globals_t@@A+5830936
	add	eax, 1
	mov	DWORD PTR ?tr@@3Uref_globals_t@@A+5830936, eax
$LN3@R_SetupRef:

; 2076 : 	}
; 2077 : 
; 2078 : 	// setup viewport
; 2079 : 	RI->viewport[0] = rvp->viewport[0];

	mov	eax, 4
	imul	ecx, eax, 0
	mov	edx, 4
	imul	eax, edx, 0
	mov	edx, DWORD PTR ?RI@@3PAUref_instance_t@@A ; RI
	mov	esi, DWORD PTR _rvp$[ebp]
	mov	ecx, DWORD PTR [esi+ecx]
	mov	DWORD PTR [edx+eax+32], ecx

; 2080 : 	RI->viewport[1] = rvp->viewport[1];

	mov	eax, 4
	shl	eax, 0
	mov	ecx, 4
	shl	ecx, 0
	mov	edx, DWORD PTR ?RI@@3PAUref_instance_t@@A ; RI
	mov	esi, DWORD PTR _rvp$[ebp]
	mov	eax, DWORD PTR [esi+eax]
	mov	DWORD PTR [edx+ecx+32], eax

; 2081 : 	RI->viewport[2] = rvp->viewport[2];

	mov	eax, 4
	shl	eax, 1
	mov	ecx, 4
	shl	ecx, 1
	mov	edx, DWORD PTR ?RI@@3PAUref_instance_t@@A ; RI
	mov	esi, DWORD PTR _rvp$[ebp]
	mov	eax, DWORD PTR [esi+eax]
	mov	DWORD PTR [edx+ecx+32], eax

; 2082 : 	RI->viewport[3] = rvp->viewport[3];

	mov	eax, 4
	imul	ecx, eax, 3
	mov	edx, 4
	imul	eax, edx, 3
	mov	edx, DWORD PTR ?RI@@3PAUref_instance_t@@A ; RI
	mov	esi, DWORD PTR _rvp$[ebp]
	mov	ecx, DWORD PTR [esi+ecx]
	mov	DWORD PTR [edx+eax+32], ecx

; 2083 : 
; 2084 : 	// calc FOV
; 2085 : 	if( R_CheckMonsterView( rvp ))

	mov	eax, DWORD PTR _rvp$[ebp]
	push	eax
	call	?R_CheckMonsterView@@YA_NPBUref_viewpass_s@@@Z ; R_CheckMonsterView
	add	esp, 4
	movzx	ecx, al
	test	ecx, ecx
	je	SHORT $LN6@R_SetupRef

; 2086 : 	{
; 2087 : 		RI->fov_x = 100; // adjust fov for monster view

	mov	eax, DWORD PTR ?RI@@3PAUref_instance_t@@A ; RI
	movss	xmm0, DWORD PTR __real@42c80000
	movss	DWORD PTR [eax+8], xmm0

; 2088 : 		RI->fov_y = V_CalcFov( RI->fov_x, RI->viewport[2], RI->viewport[3] );

	mov	eax, 4
	imul	ecx, eax, 3
	mov	edx, DWORD PTR ?RI@@3PAUref_instance_t@@A ; RI
	cvtsi2ss xmm0, DWORD PTR [edx+ecx+32]
	push	ecx
	movss	DWORD PTR [esp], xmm0
	mov	eax, 4
	shl	eax, 1
	mov	ecx, DWORD PTR ?RI@@3PAUref_instance_t@@A ; RI
	cvtsi2ss xmm0, DWORD PTR [ecx+eax+32]
	push	ecx
	movss	DWORD PTR [esp], xmm0
	mov	edx, DWORD PTR ?RI@@3PAUref_instance_t@@A ; RI
	add	edx, 8
	push	edx
	call	?V_CalcFov@@YAMAAMMM@Z			; V_CalcFov
	add	esp, 12					; 0000000cH
	mov	eax, DWORD PTR ?RI@@3PAUref_instance_t@@A ; RI
	fstp	DWORD PTR [eax+12]

; 2089 : 	}
; 2090 : 	else

	jmp	SHORT $LN7@R_SetupRef
$LN6@R_SetupRef:

; 2091 : 	{
; 2092 : 		RI->fov_x = rvp->fov_x;

	mov	eax, DWORD PTR ?RI@@3PAUref_instance_t@@A ; RI
	mov	ecx, DWORD PTR _rvp$[ebp]
	mov	edx, DWORD PTR [ecx+44]
	mov	DWORD PTR [eax+8], edx

; 2093 : 		RI->fov_y = rvp->fov_y;

	mov	eax, DWORD PTR ?RI@@3PAUref_instance_t@@A ; RI
	mov	ecx, DWORD PTR _rvp$[ebp]
	mov	edx, DWORD PTR [ecx+48]
	mov	DWORD PTR [eax+12], edx
$LN7@R_SetupRef:

; 2094 : 	}
; 2095 : 
; 2096 : 	RI->vieworg = rvp->vieworigin;

	mov	eax, DWORD PTR _rvp$[ebp]
	add	eax, 16					; 00000010H
	mov	ecx, DWORD PTR ?RI@@3PAUref_instance_t@@A ; RI
	add	ecx, 204				; 000000ccH
	mov	edx, DWORD PTR [eax]
	mov	DWORD PTR [ecx], edx
	mov	edx, DWORD PTR [eax+4]
	mov	DWORD PTR [ecx+4], edx
	mov	eax, DWORD PTR [eax+8]
	mov	DWORD PTR [ecx+8], eax

; 2097 : 	RI->viewangles = rvp->viewangles;

	mov	eax, DWORD PTR _rvp$[ebp]
	add	eax, 28					; 0000001cH
	mov	ecx, DWORD PTR ?RI@@3PAUref_instance_t@@A ; RI
	add	ecx, 192				; 000000c0H
	mov	edx, DWORD PTR [eax]
	mov	DWORD PTR [ecx], edx
	mov	edx, DWORD PTR [eax+4]
	mov	DWORD PTR [ecx+4], edx
	mov	eax, DWORD PTR [eax+8]
	mov	DWORD PTR [ecx+8], eax

; 2098 : 	RI->pvsorigin = rvp->vieworigin;

	mov	eax, DWORD PTR _rvp$[ebp]
	add	eax, 16					; 00000010H
	mov	ecx, DWORD PTR ?RI@@3PAUref_instance_t@@A ; RI
	add	ecx, 180				; 000000b4H
	mov	edx, DWORD PTR [eax]
	mov	DWORD PTR [ecx], edx
	mov	edx, DWORD PTR [eax+4]
	mov	DWORD PTR [ecx+4], edx
	mov	eax, DWORD PTR [eax+8]
	mov	DWORD PTR [ecx+8], eax

; 2099 : 	RI->viewentity = rvp->viewentity;

	mov	eax, DWORD PTR ?RI@@3PAUref_instance_t@@A ; RI
	mov	ecx, DWORD PTR _rvp$[ebp]
	mov	edx, DWORD PTR [ecx+40]
	mov	DWORD PTR [eax+4], edx

; 2100 : 	RI->num_subview_faces = 0;

	mov	eax, DWORD PTR ?RI@@3PAUref_instance_t@@A ; RI
	mov	DWORD PTR [eax+14000], 0

; 2101 : 
; 2102 : 	tr.cached_vieworigin = rvp->vieworigin;

	mov	eax, DWORD PTR _rvp$[ebp]
	add	eax, 16					; 00000010H
	mov	ecx, DWORD PTR [eax]
	mov	DWORD PTR ?tr@@3Uref_globals_t@@A+5836100, ecx
	mov	edx, DWORD PTR [eax+4]
	mov	DWORD PTR ?tr@@3Uref_globals_t@@A+5836104, edx
	mov	eax, DWORD PTR [eax+8]
	mov	DWORD PTR ?tr@@3Uref_globals_t@@A+5836108, eax

; 2103 : 	tr.cached_viewangles = rvp->viewangles;

	mov	eax, DWORD PTR _rvp$[ebp]
	add	eax, 28					; 0000001cH
	mov	ecx, DWORD PTR [eax]
	mov	DWORD PTR ?tr@@3Uref_globals_t@@A+5836112, ecx
	mov	edx, DWORD PTR [eax+4]
	mov	DWORD PTR ?tr@@3Uref_globals_t@@A+5836116, edx
	mov	eax, DWORD PTR [eax+8]
	mov	DWORD PTR ?tr@@3Uref_globals_t@@A+5836120, eax

; 2104 : 
; 2105 : 	// setup skyparams
; 2106 : 	tr.sky_normal.x = tr.movevars->skyvec_x;

	mov	eax, DWORD PTR ?tr@@3Uref_globals_t@@A+5830888
	movss	xmm0, DWORD PTR [eax+120]
	movss	DWORD PTR ?tr@@3Uref_globals_t@@A+5836136, xmm0

; 2107 : 	tr.sky_normal.y = tr.movevars->skyvec_y;

	mov	eax, DWORD PTR ?tr@@3Uref_globals_t@@A+5830888
	movss	xmm0, DWORD PTR [eax+124]
	movss	DWORD PTR ?tr@@3Uref_globals_t@@A+5836140, xmm0

; 2108 : 	tr.sky_normal.z = tr.movevars->skyvec_z;

	mov	eax, DWORD PTR ?tr@@3Uref_globals_t@@A+5830888
	movss	xmm0, DWORD PTR [eax+128]
	movss	DWORD PTR ?tr@@3Uref_globals_t@@A+5836144, xmm0

; 2109 : 	
; 2110 : 	tr.sky_ambient.x = tr.movevars->skycolor_r;

	mov	eax, DWORD PTR ?tr@@3Uref_globals_t@@A+5830888
	movss	xmm0, DWORD PTR [eax+108]
	movss	DWORD PTR ?tr@@3Uref_globals_t@@A+5836148, xmm0

; 2111 : 	tr.sky_ambient.y = tr.movevars->skycolor_g;

	mov	eax, DWORD PTR ?tr@@3Uref_globals_t@@A+5830888
	movss	xmm0, DWORD PTR [eax+112]
	movss	DWORD PTR ?tr@@3Uref_globals_t@@A+5836152, xmm0

; 2112 : 	tr.sky_ambient.z = tr.movevars->skycolor_b;

	mov	eax, DWORD PTR ?tr@@3Uref_globals_t@@A+5830888
	movss	xmm0, DWORD PTR [eax+116]
	movss	DWORD PTR ?tr@@3Uref_globals_t@@A+5836156, xmm0

; 2113 : 
; 2114 : 	GL_Setup3D(); // diffusion - add

	call	?GL_Setup3D@@YAXXZ			; GL_Setup3D

; 2115 : }

	pop	edi
	pop	esi
	pop	ebx
	mov	esp, ebp
	pop	ebp
	ret	0
?R_SetupRefParams@@YAXPBUref_viewpass_s@@@Z ENDP	; R_SetupRefParams
_TEXT	ENDS
; Function compile flags: /Odtp /ZI
; File d:\!diffusion 2020\source code 2022\client-server\client\render\r_main.cpp
;	COMDAT ?R_CheckMonsterView@@YA_NPBUref_viewpass_s@@@Z
_TEXT	SEGMENT
_view$ = -4						; size = 4
_rvp$ = 8						; size = 4
?R_CheckMonsterView@@YA_NPBUref_viewpass_s@@@Z PROC	; R_CheckMonsterView, COMDAT

; 2029 : {

	push	ebp
	mov	ebp, esp
	sub	esp, 68					; 00000044H
	push	ebx
	push	esi
	push	edi

; 2030 : 	if( rvp->viewentity <= tr.viewparams.maxclients )

	mov	eax, DWORD PTR _rvp$[ebp]
	mov	ecx, DWORD PTR [eax+40]
	cmp	ecx, DWORD PTR ?tr@@3Uref_globals_t@@A+5830828
	jg	SHORT $LN2@R_CheckMon

; 2031 : 		return false;

	xor	al, al
	jmp	SHORT $LN1@R_CheckMon
$LN2@R_CheckMon:

; 2032 : 
; 2033 : 	// get viewentity and monster eyeposition
; 2034 : 	cl_entity_t *view = GET_ENTITY( rvp->viewentity );

	mov	eax, DWORD PTR _rvp$[ebp]
	mov	ecx, DWORD PTR [eax+40]
	push	ecx
	call	DWORD PTR ?gEngfuncs@@3Ucl_enginefuncs_s@@A+212
	add	esp, 4
	mov	DWORD PTR _view$[ebp], eax

; 2035 : 
; 2036 :  	if( view && view->model && view->model->type == mod_studio && FBitSet( view->curstate.eflags, EFLAG_SLERP ))

	cmp	DWORD PTR _view$[ebp], 0
	je	SHORT $LN3@R_CheckMon
	mov	eax, DWORD PTR _view$[ebp]
	cmp	DWORD PTR [eax+2964], 0
	je	SHORT $LN3@R_CheckMon
	mov	eax, DWORD PTR _view$[ebp]
	mov	ecx, DWORD PTR [eax+2964]
	cmp	DWORD PTR [ecx+68], 3
	jne	SHORT $LN3@R_CheckMon
	mov	eax, DWORD PTR _view$[ebp]
	movzx	ecx, BYTE PTR [eax+756]
	and	ecx, 1
	je	SHORT $LN3@R_CheckMon

; 2037 : 		return true;

	mov	al, 1
	jmp	SHORT $LN1@R_CheckMon
$LN3@R_CheckMon:

; 2038 : 	return false;

	xor	al, al
$LN1@R_CheckMon:

; 2039 : }

	pop	edi
	pop	esi
	pop	ebx
	mov	esp, ebp
	pop	ebp
	ret	0
?R_CheckMonsterView@@YA_NPBUref_viewpass_s@@@Z ENDP	; R_CheckMonsterView
_TEXT	ENDS
; Function compile flags: /Odtp /ZI
; File d:\!diffusion 2020\source code 2022\client-server\client\render\r_main.cpp
;	COMDAT ?R_RenderDebugSurface@@YAXXZ
_TEXT	SEGMENT
tv132 = -216						; size = 4
$T1 = -212						; size = 12
$T2 = -200						; size = 12
$T3 = -188						; size = 12
_v$4 = -112						; size = 4
_j$5 = -108						; size = 4
_es$ = -104						; size = 4
_ent$ = -100						; size = 4
_pe$ = -96						; size = 4
_trace$ = -92						; size = 68
_vecEnd$ = -24						; size = 12
_vecSrc$ = -12						; size = 12
?R_RenderDebugSurface@@YAXXZ PROC			; R_RenderDebugSurface, COMDAT

; 1970 : {

	push	ebp
	mov	ebp, esp
	sub	esp, 216				; 000000d8H
	push	ebx
	push	esi
	push	edi

; 1971 : 	r_stats.debug_surface = NULL;

	mov	DWORD PTR ?r_stats@@3Uref_stats_t@@A+140, 0

; 1972 : 
; 1973 : 	if( r_speeds->value != 8 )

	mov	eax, DWORD PTR ?r_speeds@@3PAUcvar_s@@A	; r_speeds
	movss	xmm0, DWORD PTR [eax+12]
	ucomiss	xmm0, DWORD PTR __real@41000000
	lahf
	test	ah, 68					; 00000044H
	jnp	SHORT $LN5@R_RenderDe

; 1974 : 		return;

	jmp	$LN1@R_RenderDe
$LN5@R_RenderDe:

; 1975 : 
; 1976 : 	Vector vecSrc = RI->vieworg;

	mov	eax, DWORD PTR ?RI@@3PAUref_instance_t@@A ; RI
	add	eax, 204				; 000000ccH
	push	eax
	lea	ecx, DWORD PTR _vecSrc$[ebp]
	call	??0Vector@@QAE@ABV0@@Z			; Vector::Vector

; 1977 : 	Vector vecEnd = vecSrc + RI->vforward * RI->farClip;

	mov	eax, DWORD PTR ?RI@@3PAUref_instance_t@@A ; RI
	push	ecx
	movss	xmm0, DWORD PTR [eax+264]
	movss	DWORD PTR [esp], xmm0
	lea	ecx, DWORD PTR $T3[ebp]
	push	ecx
	mov	ecx, DWORD PTR ?RI@@3PAUref_instance_t@@A ; RI
	add	ecx, 228				; 000000e4H
	call	??DVector@@QBE?AV0@M@Z			; Vector::operator*
	push	eax
	lea	edx, DWORD PTR _vecEnd$[ebp]
	push	edx
	lea	ecx, DWORD PTR _vecSrc$[ebp]
	call	??HVector@@QBE?AV0@ABV0@@Z		; Vector::operator+

; 1978 : 	pmtrace_t trace;

	lea	ecx, DWORD PTR _trace$[ebp]
	call	??0pmtrace_s@@QAE@XZ

; 1979 : 
; 1980 : 	gEngfuncs.pEventAPI->EV_SetTraceHull( 2 );

	push	2
	mov	eax, DWORD PTR ?gEngfuncs@@3Ucl_enginefuncs_s@@A+336
	mov	ecx, DWORD PTR [eax+56]
	call	ecx
	add	esp, 4

; 1981 : 	gEngfuncs.pEventAPI->EV_PlayerTrace( (float *)&vecSrc, (float *)&vecEnd, 0, -1, &trace );

	lea	eax, DWORD PTR _trace$[ebp]
	push	eax
	push	-1
	push	0
	lea	ecx, DWORD PTR _vecEnd$[ebp]
	push	ecx
	lea	edx, DWORD PTR _vecSrc$[ebp]
	push	edx
	mov	eax, DWORD PTR ?gEngfuncs@@3Ucl_enginefuncs_s@@A+336
	mov	ecx, DWORD PTR [eax+60]
	call	ecx
	add	esp, 20					; 00000014H

; 1982 : 	r_stats.debug_surface = gEngfuncs.pEventAPI->EV_TraceSurface( trace.ent, (float *)&vecSrc, (float *)&vecEnd );

	lea	eax, DWORD PTR _vecEnd$[ebp]
	push	eax
	lea	ecx, DWORD PTR _vecSrc$[ebp]
	push	ecx
	mov	edx, DWORD PTR _trace$[ebp+48]
	push	edx
	mov	eax, DWORD PTR ?gEngfuncs@@3Ucl_enginefuncs_s@@A+336
	mov	ecx, DWORD PTR [eax+96]
	call	ecx
	add	esp, 12					; 0000000cH
	mov	DWORD PTR ?r_stats@@3Uref_stats_t@@A+140, eax

; 1983 : 	if( !r_stats.debug_surface ) return;

	cmp	DWORD PTR ?r_stats@@3Uref_stats_t@@A+140, 0
	jne	SHORT $LN6@R_RenderDe
	jmp	$LN1@R_RenderDe
$LN6@R_RenderDe:

; 1984 : 
; 1985 : 	physent_t *pe = gEngfuncs.pEventAPI->EV_GetPhysent( trace.ent );

	mov	eax, DWORD PTR _trace$[ebp+48]
	push	eax
	mov	ecx, DWORD PTR ?gEngfuncs@@3Ucl_enginefuncs_s@@A+336
	mov	edx, DWORD PTR [ecx+36]
	call	edx
	add	esp, 4
	mov	DWORD PTR _pe$[ebp], eax

; 1986 : 	cl_entity_t *ent = (pe) ? GET_ENTITY( pe->info ) : NULL;

	cmp	DWORD PTR _pe$[ebp], 0
	je	SHORT $LN12@R_RenderDe
	mov	eax, DWORD PTR _pe$[ebp]
	mov	ecx, DWORD PTR [eax+80]
	push	ecx
	call	DWORD PTR ?gEngfuncs@@3Ucl_enginefuncs_s@@A+212
	add	esp, 4
	mov	DWORD PTR tv132[ebp], eax
	jmp	SHORT $LN13@R_RenderDe
$LN12@R_RenderDe:
	mov	DWORD PTR tv132[ebp], 0
$LN13@R_RenderDe:
	mov	edx, DWORD PTR tv132[ebp]
	mov	DWORD PTR _ent$[ebp], edx

; 1987 : 
; 1988 : 	if( !ent || !ent->model || ent->model->type != mod_brush )

	cmp	DWORD PTR _ent$[ebp], 0
	je	SHORT $LN8@R_RenderDe
	mov	eax, DWORD PTR _ent$[ebp]
	cmp	DWORD PTR [eax+2964], 0
	je	SHORT $LN8@R_RenderDe
	mov	eax, DWORD PTR _ent$[ebp]
	mov	ecx, DWORD PTR [eax+2964]
	cmp	DWORD PTR [ecx+68], 0
	je	SHORT $LN7@R_RenderDe
$LN8@R_RenderDe:

; 1989 : 		return;

	jmp	$LN1@R_RenderDe
$LN7@R_RenderDe:

; 1990 : 
; 1991 : 	if( ent->curstate.angles != g_vecZero )

	push	OFFSET ?g_vecZero@@3VVector@@B		; g_vecZero
	mov	ecx, DWORD PTR _ent$[ebp]
	add	ecx, 716				; 000002ccH
	call	??9Vector@@QBEHABV0@@Z			; Vector::operator!=
	test	eax, eax
	je	SHORT $LN9@R_RenderDe

; 1992 : 		R_RotateForEntity( ent );

	mov	eax, DWORD PTR _ent$[ebp]
	push	eax
	call	?R_RotateForEntity@@YAXPAUcl_entity_s@@@Z ; R_RotateForEntity
	add	esp, 4
	jmp	SHORT $LN10@R_RenderDe
$LN9@R_RenderDe:

; 1993 : 	else R_TranslateForEntity( ent );

	mov	eax, DWORD PTR _ent$[ebp]
	push	eax
	call	?R_TranslateForEntity@@YAXPAUcl_entity_s@@@Z ; R_TranslateForEntity
	add	esp, 4
$LN10@R_RenderDe:

; 1994 : 
; 1995 : 	pglEnable( GL_BLEND );

	push	3042					; 00000be2H
	call	DWORD PTR ?pglEnable@@3P6GXI@ZA		; pglEnable

; 1996 : 	pglBlendFunc( GL_SRC_ALPHA, GL_ONE_MINUS_SRC_ALPHA );

	push	771					; 00000303H
	push	770					; 00000302H
	call	DWORD PTR ?pglBlendFunc@@3P6GXII@ZA	; pglBlendFunc

; 1997 : 	pglPolygonMode( GL_FRONT_AND_BACK, GL_LINE );

	push	6913					; 00001b01H
	push	1032					; 00000408H
	call	DWORD PTR ?pglPolygonMode@@3P6GXII@ZA	; pglPolygonMode

; 1998 : 	pglColor4f( 0.5f, 1.0f, 0.36f, 0.99f ); 

	push	ecx
	movss	xmm0, DWORD PTR __real@3f7d70a4
	movss	DWORD PTR [esp], xmm0
	push	ecx
	movss	xmm0, DWORD PTR __real@3eb851ec
	movss	DWORD PTR [esp], xmm0
	push	ecx
	movss	xmm0, DWORD PTR __real@3f800000
	movss	DWORD PTR [esp], xmm0
	push	ecx
	movss	xmm0, DWORD PTR __real@3f000000
	movss	DWORD PTR [esp], xmm0
	call	DWORD PTR ?pglColor4f@@3P6GXMMMM@ZA	; pglColor4f

; 1999 : 	pglDisable( GL_TEXTURE_2D );

	push	3553					; 00000de1H
	call	DWORD PTR ?pglDisable@@3P6GXI@ZA	; pglDisable

; 2000 : 	pglLineWidth( 2.0f );

	push	ecx
	movss	xmm0, DWORD PTR __real@40000000
	movss	DWORD PTR [esp], xmm0
	call	DWORD PTR ?pglLineWidth@@3P6GXM@ZA	; pglLineWidth

; 2001 : 
; 2002 : 	pglDisable( GL_DEPTH_TEST );

	push	2929					; 00000b71H
	call	DWORD PTR ?pglDisable@@3P6GXI@ZA	; pglDisable

; 2003 : 	pglEnable( GL_LINE_SMOOTH );

	push	2848					; 00000b20H
	call	DWORD PTR ?pglEnable@@3P6GXI@ZA		; pglEnable

; 2004 : 	pglEnable( GL_POLYGON_SMOOTH );

	push	2881					; 00000b41H
	call	DWORD PTR ?pglEnable@@3P6GXI@ZA		; pglEnable

; 2005 : 	pglHint( GL_LINE_SMOOTH_HINT, GL_NICEST );

	push	4354					; 00001102H
	push	3154					; 00000c52H
	call	DWORD PTR ?pglHint@@3P6GXII@ZA		; pglHint

; 2006 : 	pglHint( GL_POLYGON_SMOOTH_HINT, GL_NICEST );

	push	4354					; 00001102H
	push	3155					; 00000c53H
	call	DWORD PTR ?pglHint@@3P6GXII@ZA		; pglHint

; 2007 : 
; 2008 : 	mextrasurf_t *es = r_stats.debug_surface->info;

	mov	eax, DWORD PTR ?r_stats@@3Uref_stats_t@@A+140
	mov	ecx, DWORD PTR [eax+80]
	mov	DWORD PTR _es$[ebp], ecx

; 2009 : 
; 2010 : 	pglBegin( GL_POLYGON );

	push	9
	call	DWORD PTR ?pglBegin@@3P6GXI@ZA		; pglBegin

; 2011 : 	for( int j = 0; j < es->numverts; j++ )

	mov	DWORD PTR _j$5[ebp], 0
	jmp	SHORT $LN4@R_RenderDe
$LN2@R_RenderDe:
	mov	eax, DWORD PTR _j$5[ebp]
	add	eax, 1
	mov	DWORD PTR _j$5[ebp], eax
$LN4@R_RenderDe:
	mov	eax, DWORD PTR _es$[ebp]
	movzx	ecx, WORD PTR [eax+126]
	cmp	DWORD PTR _j$5[ebp], ecx
	jge	SHORT $LN3@R_RenderDe

; 2012 : 	{
; 2013 : 		bvert_t *v = &world->vertexes[es->firstvertex + j];

	mov	eax, DWORD PTR _es$[ebp]
	mov	ecx, DWORD PTR [eax+128]
	add	ecx, DWORD PTR _j$5[ebp]
	imul	edx, ecx, 100
	mov	eax, DWORD PTR ?world@@3PAUgl_world_t@@A ; world
	add	edx, DWORD PTR [eax+112]
	mov	DWORD PTR _v$4[ebp], edx

; 2014 : 		pglVertex3fv( v->vertex + v->normal * 0.1f );

	push	ecx
	movss	xmm0, DWORD PTR __real@3dcccccd
	movss	DWORD PTR [esp], xmm0
	lea	eax, DWORD PTR $T2[ebp]
	push	eax
	mov	ecx, DWORD PTR _v$4[ebp]
	add	ecx, 36					; 00000024H
	call	??DVector@@QBE?AV0@M@Z			; Vector::operator*
	push	eax
	lea	ecx, DWORD PTR $T1[ebp]
	push	ecx
	mov	ecx, DWORD PTR _v$4[ebp]
	call	??HVector@@QBE?AV0@ABV0@@Z		; Vector::operator+
	mov	ecx, eax
	call	??BVector@@QAEPAMXZ			; Vector::operator float *
	push	eax
	call	DWORD PTR ?pglVertex3fv@@3P6GXPBM@ZA	; pglVertex3fv

; 2015 : 	}

	jmp	SHORT $LN2@R_RenderDe
$LN3@R_RenderDe:

; 2016 : 	pglEnd();

	call	DWORD PTR ?pglEnd@@3P6GXXZA		; pglEnd

; 2017 : 
; 2018 : 	pglEnable( GL_TEXTURE_2D );

	push	3553					; 00000de1H
	call	DWORD PTR ?pglEnable@@3P6GXI@ZA		; pglEnable

; 2019 : 	pglPolygonMode( GL_FRONT_AND_BACK, GL_FILL );

	push	6914					; 00001b02H
	push	1032					; 00000408H
	call	DWORD PTR ?pglPolygonMode@@3P6GXII@ZA	; pglPolygonMode

; 2020 : 	pglDisable( GL_POLYGON_SMOOTH );

	push	2881					; 00000b41H
	call	DWORD PTR ?pglDisable@@3P6GXI@ZA	; pglDisable

; 2021 : 	pglDisable( GL_LINE_SMOOTH );

	push	2848					; 00000b20H
	call	DWORD PTR ?pglDisable@@3P6GXI@ZA	; pglDisable

; 2022 : 	pglEnable( GL_DEPTH_TEST );

	push	2929					; 00000b71H
	call	DWORD PTR ?pglEnable@@3P6GXI@ZA		; pglEnable

; 2023 : 	pglDisable( GL_BLEND );

	push	3042					; 00000be2H
	call	DWORD PTR ?pglDisable@@3P6GXI@ZA	; pglDisable

; 2024 : 	pglLineWidth( 1.0f );

	push	ecx
	movss	xmm0, DWORD PTR __real@3f800000
	movss	DWORD PTR [esp], xmm0
	call	DWORD PTR ?pglLineWidth@@3P6GXM@ZA	; pglLineWidth

; 2025 : 	R_LoadIdentity ();

	call	?R_LoadIdentity@@YAXXZ			; R_LoadIdentity
$LN1@R_RenderDe:

; 2026 : }

	pop	edi
	pop	esi
	pop	ebx
	mov	esp, ebp
	pop	ebp
	ret	0
?R_RenderDebugSurface@@YAXXZ ENDP			; R_RenderDebugSurface
_TEXT	ENDS
; Function compile flags: /Odtp /ZI
; File d:\!diffusion 2020\source code 2022\client-server\client\render\r_main.cpp
;	COMDAT ?HUD_PrintStats@@YAXXZ
_TEXT	SEGMENT
tv407 = -88						; size = 8
tv403 = -80						; size = 4
tv227 = -80						; size = 4
tv74 = -80						; size = 4
tv67 = -77						; size = 1
_cur$1 = -12						; size = 4
_curleaf$ = -8						; size = 4
_surf$ = -4						; size = 4
?HUD_PrintStats@@YAXXZ PROC				; HUD_PrintStats, COMDAT

; 1885 : {

	push	ebp
	mov	ebp, esp
	sub	esp, 88					; 00000058H
	push	ebx
	push	esi
	push	edi

; 1886 : 	if( !CVAR_TO_BOOL( r_speeds ))

	cmp	DWORD PTR ?r_speeds@@3PAUcvar_s@@A, 0	; r_speeds
	je	SHORT $LN19@HUD_PrintS
	mov	eax, DWORD PTR ?r_speeds@@3PAUcvar_s@@A	; r_speeds
	movss	xmm0, DWORD PTR [eax+12]
	ucomiss	xmm0, DWORD PTR __real@00000000
	lahf
	test	ah, 68					; 00000044H
	jnp	SHORT $LN19@HUD_PrintS
	mov	BYTE PTR tv67[ebp], 1
	jmp	SHORT $LN20@HUD_PrintS
$LN19@HUD_PrintS:
	mov	BYTE PTR tv67[ebp], 0
$LN20@HUD_PrintS:
	movzx	ecx, BYTE PTR tv67[ebp]
	test	ecx, ecx
	jne	SHORT $LN4@HUD_PrintS

; 1887 : 		return;

	jmp	$LN1@HUD_PrintS
$LN4@HUD_PrintS:

; 1888 : 
; 1889 : 	msurface_t *surf = r_stats.debug_surface;

	mov	eax, DWORD PTR ?r_stats@@3Uref_stats_t@@A+140
	mov	DWORD PTR _surf$[ebp], eax

; 1890 : 	mleaf_t *curleaf = RI->viewleaf;

	mov	eax, DWORD PTR ?RI@@3PAUref_instance_t@@A ; RI
	mov	ecx, DWORD PTR [eax+172]
	mov	DWORD PTR _curleaf$[ebp], ecx

; 1891 : 
; 1892 : 	R_Speeds_Printf( "Renderer: ^2XashXT^7\n\n" );

	push	OFFSET ??_C@_0BH@DLFJHKCJ@Renderer?3?5?$FO2XashXT?$FO7?6?6?$AA@
	call	?R_Speeds_Printf@@YAXPBDZZ		; R_Speeds_Printf
	add	esp, 4

; 1893 : 
; 1894 : 	switch( (int)r_speeds->value )

	mov	eax, DWORD PTR ?r_speeds@@3PAUcvar_s@@A	; r_speeds
	cvttss2si ecx, DWORD PTR [eax+12]
	mov	DWORD PTR tv74[ebp], ecx
	mov	edx, DWORD PTR tv74[ebp]
	sub	edx, 1
	mov	DWORD PTR tv74[ebp], edx
	cmp	DWORD PTR tv74[ebp], 10			; 0000000aH
	ja	$LN2@HUD_PrintS
	mov	eax, DWORD PTR tv74[ebp]
	jmp	DWORD PTR $LN23@HUD_PrintS[eax*4]
$LN5@HUD_PrintS:

; 1895 : 	{
; 1896 : 	case 1:
; 1897 : 		R_Speeds_Printf( "%3i wpoly %3i epoly\n", r_stats.c_world_polys, r_stats.c_studio_polys );

	mov	eax, DWORD PTR ?r_stats@@3Uref_stats_t@@A+4
	push	eax
	mov	ecx, DWORD PTR ?r_stats@@3Uref_stats_t@@A
	push	ecx
	push	OFFSET ??_C@_0BF@HDMMJHIF@?$CF3i?5wpoly?5?$CF3i?5epoly?6?$AA@
	call	?R_Speeds_Printf@@YAXPBDZZ		; R_Speeds_Printf
	add	esp, 12					; 0000000cH

; 1898 : 		R_Speeds_Printf( "%3i spoly %3i grass\n", r_stats.c_sprite_polys, r_stats.c_grass_polys );

	mov	eax, DWORD PTR ?r_stats@@3Uref_stats_t@@A+16
	push	eax
	mov	ecx, DWORD PTR ?r_stats@@3Uref_stats_t@@A+8
	push	ecx
	push	OFFSET ??_C@_0BF@GAEOHMBG@?$CF3i?5spoly?5?$CF3i?5grass?6?$AA@
	call	?R_Speeds_Printf@@YAXPBDZZ		; R_Speeds_Printf
	add	esp, 12					; 0000000cH

; 1899 : 		break;		

	jmp	$LN2@HUD_PrintS
$LN6@HUD_PrintS:

; 1900 : 	case 2:
; 1901 : 		if( !curleaf ) curleaf = worldmodel->leafs;

	cmp	DWORD PTR _curleaf$[ebp], 0
	jne	SHORT $LN7@HUD_PrintS
	mov	eax, DWORD PTR ?worldmodel@@3PAUmodel_s@@A ; worldmodel
	mov	ecx, DWORD PTR [eax+140]
	mov	DWORD PTR _curleaf$[ebp], ecx
$LN7@HUD_PrintS:

; 1902 : 		R_Speeds_Printf( "visible leafs:\n%3i leafs\ncurrent leaf %3i\n", r_stats.c_world_leafs, curleaf - worldmodel->leafs );

	mov	eax, DWORD PTR ?worldmodel@@3PAUmodel_s@@A ; worldmodel
	mov	ecx, DWORD PTR _curleaf$[ebp]
	sub	ecx, DWORD PTR [eax+140]
	mov	eax, ecx
	cdq
	mov	ecx, 60					; 0000003cH
	idiv	ecx
	push	eax
	mov	edx, DWORD PTR ?r_stats@@3Uref_stats_t@@A+12
	push	edx
	push	OFFSET ??_C@_0CL@DDFBBACK@visible?5leafs?3?6?$CF3i?5leafs?6current@
	call	?R_Speeds_Printf@@YAXPBDZZ		; R_Speeds_Printf
	add	esp, 12					; 0000000cH

; 1903 : 		R_Speeds_Printf( "RecursiveWorldNode: %3lf secs\nDrawTextureChains %lf\n", r_stats.t_world_node, r_stats.t_world_draw );

	sub	esp, 8
	movsd	xmm0, QWORD PTR ?r_stats@@3Uref_stats_t@@A+152
	movsd	QWORD PTR [esp], xmm0
	sub	esp, 8
	movsd	xmm0, QWORD PTR ?r_stats@@3Uref_stats_t@@A+144
	movsd	QWORD PTR [esp], xmm0
	push	OFFSET ??_C@_0DF@ODFCEEBD@RecursiveWorldNode?3?5?$CF3lf?5secs?6Dr@
	call	?R_Speeds_Printf@@YAXPBDZZ		; R_Speeds_Printf
	add	esp, 20					; 00000014H

; 1904 : 		R_Speeds_Printf( "PVS culling / render time ratio: %2.2lf\n", r_stats.t_world_node / r_stats.t_world_draw );

	movsd	xmm0, QWORD PTR ?r_stats@@3Uref_stats_t@@A+144
	divsd	xmm0, QWORD PTR ?r_stats@@3Uref_stats_t@@A+152
	sub	esp, 8
	movsd	QWORD PTR [esp], xmm0
	push	OFFSET ??_C@_0CJ@BPHJMIB@PVS?5culling?5?1?5render?5time?5ratio?3@
	call	?R_Speeds_Printf@@YAXPBDZZ		; R_Speeds_Printf
	add	esp, 12					; 0000000cH

; 1905 : 		break;

	jmp	$LN2@HUD_PrintS
$LN8@HUD_PrintS:

; 1906 : 	case 3:
; 1907 : 		// FIXME num_faded_ents is always 0 because the entites never come to the client, but can be seen with sv_fade_props disabled
; 1908 : 		R_Speeds_Printf( "%3i static entities\n%3i normal entities\n%3i fading entities\n%3i faded entities\n", r_numStatics, r_numEntities - r_numStatics, r_stats.num_fading_ents, r_stats.num_faded_ents );

	mov	eax, DWORD PTR ?r_stats@@3Uref_stats_t@@A+92
	push	eax
	mov	ecx, DWORD PTR ?r_stats@@3Uref_stats_t@@A+96
	push	ecx
	mov	edx, DWORD PTR ?tr@@3Uref_globals_t@@A+4765684
	add	edx, DWORD PTR ?tr@@3Uref_globals_t@@A+4765688
	sub	edx, DWORD PTR ?r_stats@@3Uref_stats_t@@A+72
	sub	edx, DWORD PTR ?r_stats@@3Uref_stats_t@@A+72
	push	edx
	mov	eax, DWORD PTR ?r_stats@@3Uref_stats_t@@A+72
	push	eax
	push	OFFSET ??_C@_0FA@LKOOPJM@?$CF3i?5static?5entities?6?$CF3i?5normal?5e@
	call	?R_Speeds_Printf@@YAXPBDZZ		; R_Speeds_Printf
	add	esp, 20					; 00000014H

; 1909 : 		break;

	jmp	$LN2@HUD_PrintS
$LN9@HUD_PrintS:

; 1910 : 	case 4:
; 1911 : 		R_Speeds_Printf( "%3i studio models\n", r_stats.c_studio_models_drawn );

	mov	eax, DWORD PTR ?r_stats@@3Uref_stats_t@@A+24
	push	eax
	push	OFFSET ??_C@_0BD@GJBAHHHN@?$CF3i?5studio?5models?6?$AA@
	call	?R_Speeds_Printf@@YAXPBDZZ		; R_Speeds_Printf
	add	esp, 8

; 1912 : 		R_Speeds_Printf( "%3i sprite models\n", r_stats.c_sprite_models_drawn );

	mov	eax, DWORD PTR ?r_stats@@3Uref_stats_t@@A+28
	push	eax
	push	OFFSET ??_C@_0BD@OBCAOGNF@?$CF3i?5sprite?5models?6?$AA@
	call	?R_Speeds_Printf@@YAXPBDZZ		; R_Speeds_Printf
	add	esp, 8

; 1913 : 		R_Speeds_Printf( "%3i temp entities\n", r_stats.c_active_tents_count );

	mov	eax, DWORD PTR ?r_stats@@3Uref_stats_t@@A+20
	push	eax
	push	OFFSET ??_C@_0BD@PPMLNGFF@?$CF3i?5temp?5entities?6?$AA@
	call	?R_Speeds_Printf@@YAXPBDZZ		; R_Speeds_Printf
	add	esp, 8

; 1914 : 		R_Speeds_Printf( "%3i particles (%i total)\n", r_stats.c_particles_total - r_stats.c_particles_culled, r_stats.c_particles_total );

	mov	eax, DWORD PTR ?r_stats@@3Uref_stats_t@@A+32
	push	eax
	mov	ecx, DWORD PTR ?r_stats@@3Uref_stats_t@@A+32
	sub	ecx, DWORD PTR ?r_stats@@3Uref_stats_t@@A+36
	push	ecx
	push	OFFSET ??_C@_0BK@KLENDGGL@?$CF3i?5particles?5?$CI?$CFi?5total?$CJ?6?$AA@
	call	?R_Speeds_Printf@@YAXPBDZZ		; R_Speeds_Printf
	add	esp, 12					; 0000000cH

; 1915 : 		break;

	jmp	$LN2@HUD_PrintS
$LN10@HUD_PrintS:

; 1916 : 	case 5:
; 1917 : 		R_Speeds_Printf( "%3i mirrors\n", r_stats.c_mirror_passes );

	mov	eax, DWORD PTR ?r_stats@@3Uref_stats_t@@A+44
	push	eax
	push	OFFSET ??_C@_0N@HADAAIKB@?$CF3i?5mirrors?6?$AA@
	call	?R_Speeds_Printf@@YAXPBDZZ		; R_Speeds_Printf
	add	esp, 8

; 1918 : 		R_Speeds_Printf( "%3i portals\n", r_stats.c_portal_passes );

	mov	eax, DWORD PTR ?r_stats@@3Uref_stats_t@@A+40
	push	eax
	push	OFFSET ??_C@_0N@DCHPNJNA@?$CF3i?5portals?6?$AA@
	call	?R_Speeds_Printf@@YAXPBDZZ		; R_Speeds_Printf
	add	esp, 8

; 1919 : 		R_Speeds_Printf( "%3i screens\n", r_stats.c_screen_passes );

	mov	eax, DWORD PTR ?r_stats@@3Uref_stats_t@@A+48
	push	eax
	push	OFFSET ??_C@_0N@MLFOEPCP@?$CF3i?5screens?6?$AA@
	call	?R_Speeds_Printf@@YAXPBDZZ		; R_Speeds_Printf
	add	esp, 8

; 1920 : 		R_Speeds_Printf( "%3i shadows\n", r_stats.c_shadow_passes );

	mov	eax, DWORD PTR ?r_stats@@3Uref_stats_t@@A+52
	push	eax
	push	OFFSET ??_C@_0N@GMPPAGDL@?$CF3i?5shadows?6?$AA@
	call	?R_Speeds_Printf@@YAXPBDZZ		; R_Speeds_Printf
	add	esp, 8

; 1921 : 		R_Speeds_Printf( "%3i 3d sky\n", r_stats.c_sky_passes );

	mov	eax, DWORD PTR ?r_stats@@3Uref_stats_t@@A+56
	push	eax
	push	OFFSET ??_C@_0M@JKLOHNGK@?$CF3i?53d?5sky?6?$AA@
	call	?R_Speeds_Printf@@YAXPBDZZ		; R_Speeds_Printf
	add	esp, 8

; 1922 : 		R_Speeds_Printf( "%3i total\n", r_stats.num_passes );

	mov	eax, DWORD PTR ?r_stats@@3Uref_stats_t@@A+80
	push	eax
	push	OFFSET ??_C@_0L@DMKOEEAE@?$CF3i?5total?6?$AA@
	call	?R_Speeds_Printf@@YAXPBDZZ		; R_Speeds_Printf
	add	esp, 8

; 1923 : 		break;

	jmp	$LN2@HUD_PrintS
$LN11@HUD_PrintS:

; 1924 : 	case 6:
; 1925 : 		R_Speeds_Printf( "DIP count %3i\nShader bind %3i\n", r_stats.num_flushes, r_stats.num_shader_binds );

	mov	eax, DWORD PTR ?r_stats@@3Uref_stats_t@@A+84
	push	eax
	mov	ecx, DWORD PTR ?r_stats@@3Uref_stats_t@@A+88
	push	ecx
	push	OFFSET ??_C@_0BP@GMAFLHDL@DIP?5count?5?$CF3i?6Shader?5bind?5?$CF3i?6?$AA@
	call	?R_Speeds_Printf@@YAXPBDZZ		; R_Speeds_Printf
	add	esp, 12					; 0000000cH

; 1926 : 		R_Speeds_Printf( "Total GLSL shaders %3i\n", Q_max( num_glsl_programs - 1, 0 ));

	mov	eax, DWORD PTR ?num_glsl_programs@@3IA	; num_glsl_programs
	sub	eax, 1
	je	SHORT $LN21@HUD_PrintS
	mov	ecx, DWORD PTR ?num_glsl_programs@@3IA	; num_glsl_programs
	sub	ecx, 1
	mov	DWORD PTR tv227[ebp], ecx
	jmp	SHORT $LN22@HUD_PrintS
$LN21@HUD_PrintS:
	mov	DWORD PTR tv227[ebp], 0
$LN22@HUD_PrintS:
	mov	edx, DWORD PTR tv227[ebp]
	push	edx
	push	OFFSET ??_C@_0BI@KIKJOMJI@Total?5GLSL?5shaders?5?$CF3i?6?$AA@
	call	?R_Speeds_Printf@@YAXPBDZZ		; R_Speeds_Printf
	add	esp, 8

; 1927 : 		R_Speeds_Printf( "frame total tris %3i\n", r_stats.c_total_tris );

	mov	eax, DWORD PTR ?r_stats@@3Uref_stats_t@@A+60
	push	eax
	push	OFFSET ??_C@_0BG@GEADDJLC@frame?5total?5tris?5?$CF3i?6?$AA@
	call	?R_Speeds_Printf@@YAXPBDZZ		; R_Speeds_Printf
	add	esp, 8

; 1928 : 		break;

	jmp	$LN2@HUD_PrintS
$LN12@HUD_PrintS:

; 1929 : 	case 7:
; 1930 : 		// draw hierarchy map of recursion calls
; 1931 : 		Q_strncpy( r_speeds_msg, r_depth_msg, sizeof( r_speeds_msg ));

	push	2048					; 00000800H
	push	OFFSET ?r_depth_msg@@3PADA		; r_depth_msg
	push	OFFSET ?r_speeds_msg@@3PADA		; r_speeds_msg
	call	?Q_strncpy@@YAIPADPBDI@Z		; Q_strncpy
	add	esp, 12					; 0000000cH

; 1932 : 		break;

	jmp	$LN2@HUD_PrintS
$LN13@HUD_PrintS:

; 1933 : 	case 8:
; 1934 : 		if( surf && surf->texinfo && surf->texinfo->texture )

	cmp	DWORD PTR _surf$[ebp], 0
	je	$LN14@HUD_PrintS
	mov	eax, DWORD PTR _surf$[ebp]
	cmp	DWORD PTR [eax+44], 0
	je	$LN14@HUD_PrintS
	mov	eax, DWORD PTR _surf$[ebp]
	mov	ecx, DWORD PTR [eax+44]
	cmp	DWORD PTR [ecx+36], 0
	je	$LN14@HUD_PrintS

; 1935 : 		{
; 1936 : 			glsl_program_t *cur = &glsl_programs[surf->info->shaderNum[0]];

	mov	eax, DWORD PTR _surf$[ebp]
	mov	ecx, DWORD PTR [eax+80]
	mov	edx, 2
	imul	eax, edx, 0
	movzx	ecx, WORD PTR [ecx+eax+166]
	imul	edx, ecx, 972
	add	edx, OFFSET ?glsl_programs@@3PAUglsl_prog_s@@A ; glsl_programs
	mov	DWORD PTR _cur$1[ebp], edx

; 1937 : 			R_Speeds_Printf( "Surf: ^1%s^7\n", surf->texinfo->texture->name );

	mov	eax, DWORD PTR _surf$[ebp]
	mov	ecx, DWORD PTR [eax+44]
	mov	edx, DWORD PTR [ecx+36]
	push	edx
	push	OFFSET ??_C@_0O@IHHFGCN@Surf?3?5?$FO1?$CFs?$FO7?6?$AA@
	call	?R_Speeds_Printf@@YAXPBDZZ		; R_Speeds_Printf
	add	esp, 8

; 1938 : 			R_Speeds_Printf( "Shader: ^3#%i %s^7\n", surf->info->shaderNum[0], cur->name );

	mov	eax, DWORD PTR _cur$1[ebp]
	push	eax
	mov	ecx, DWORD PTR _surf$[ebp]
	mov	edx, DWORD PTR [ecx+80]
	mov	eax, 2
	imul	ecx, eax, 0
	movzx	edx, WORD PTR [edx+ecx+166]
	push	edx
	push	OFFSET ??_C@_0BE@NGGEHBJM@Shader?3?5?$FO3?$CD?$CFi?5?$CFs?$FO7?6?$AA@
	call	?R_Speeds_Printf@@YAXPBDZZ		; R_Speeds_Printf
	add	esp, 12					; 0000000cH

; 1939 : 			R_Speeds_Printf( "List Options:\n" ); 

	push	OFFSET ??_C@_0P@PPFIIBEH@List?5Options?3?6?$AA@
	call	?R_Speeds_Printf@@YAXPBDZZ		; R_Speeds_Printf
	add	esp, 4

; 1940 : 			R_Speeds_Printf( "%s\n", GL_PretifyListOptions( cur->options, true ));

	push	1
	mov	eax, DWORD PTR _cur$1[ebp]
	add	eax, 64					; 00000040H
	push	eax
	call	?GL_PretifyListOptions@@YAPBDPBD_N@Z	; GL_PretifyListOptions
	add	esp, 8
	push	eax
	push	OFFSET ??_C@_03OFAPEBGM@?$CFs?6?$AA@
	call	?R_Speeds_Printf@@YAXPBDZZ		; R_Speeds_Printf
	add	esp, 8
$LN14@HUD_PrintS:

; 1941 : 		}
; 1942 : 		break;

	jmp	$LN2@HUD_PrintS
$LN15@HUD_PrintS:

; 1943 : 	case 9:
; 1944 : 		R_Speeds_Printf( "%s grass total size\n", Q_memprint( tr.grass_total_size ));

	push	2
	mov	eax, DWORD PTR ?tr@@3Uref_globals_t@@A+5852556
	mov	DWORD PTR tv403[ebp], eax
	cvtsi2sd xmm0, DWORD PTR tv403[ebp]
	mov	ecx, DWORD PTR tv403[ebp]
	shr	ecx, 31					; 0000001fH
	addsd	xmm0, QWORD PTR __xmm@41f00000000000000000000000000000[ecx*8]
	movsd	QWORD PTR tv407[ebp], xmm0
	cvtsd2ss xmm0, QWORD PTR tv407[ebp]
	push	ecx
	movss	DWORD PTR [esp], xmm0
	call	?Q_pretifymem@@YAPADMH@Z		; Q_pretifymem
	add	esp, 8
	push	eax
	push	OFFSET ??_C@_0BF@EACMDKLF@?$CFs?5grass?5total?5size?6?$AA@
	call	?R_Speeds_Printf@@YAXPBDZZ		; R_Speeds_Printf
	add	esp, 8

; 1945 : 		break;

	jmp	$LN2@HUD_PrintS
$LN16@HUD_PrintS:

; 1946 : 	case 10:
; 1947 : 		R_Speeds_Printf( "Active shaders:\n\n" );

	push	OFFSET ??_C@_0BC@DIKOHGDD@Active?5shaders?3?6?6?$AA@
	call	?R_Speeds_Printf@@YAXPBDZZ		; R_Speeds_Printf
	add	esp, 4

; 1948 : 		R_Speeds_Printf( "%3ix sunshaft\n", r_stats.sh_sunshafts_pass );

	mov	eax, DWORD PTR ?r_stats@@3Uref_stats_t@@A+104
	push	eax
	push	OFFSET ??_C@_0P@CBGBCGCE@?$CF3ix?5sunshaft?6?$AA@
	call	?R_Speeds_Printf@@YAXPBDZZ		; R_Speeds_Printf
	add	esp, 8

; 1949 : 		R_Speeds_Printf( "%3ix motion blur\n", r_stats.sh_motionblur_pass );

	mov	eax, DWORD PTR ?r_stats@@3Uref_stats_t@@A+108
	push	eax
	push	OFFSET ??_C@_0BC@LKCIEGDJ@?$CF3ix?5motion?5blur?6?$AA@
	call	?R_Speeds_Printf@@YAXPBDZZ		; R_Speeds_Printf
	add	esp, 8

; 1950 : 		R_Speeds_Printf( "%3ix gauss blur\n", r_stats.sh_gaussblur_pass );

	mov	eax, DWORD PTR ?r_stats@@3Uref_stats_t@@A+112
	push	eax
	push	OFFSET ??_C@_0BB@HLPAHHHE@?$CF3ix?5gauss?5blur?6?$AA@
	call	?R_Speeds_Printf@@YAXPBDZZ		; R_Speeds_Printf
	add	esp, 8

; 1951 : 		R_Speeds_Printf( "%3ix horizontal blur\n", r_stats.sh_horizontalblur_pass );

	mov	eax, DWORD PTR ?r_stats@@3Uref_stats_t@@A+116
	push	eax
	push	OFFSET ??_C@_0BG@KKGFDGFH@?$CF3ix?5horizontal?5blur?6?$AA@
	call	?R_Speeds_Printf@@YAXPBDZZ		; R_Speeds_Printf
	add	esp, 8

; 1952 : 		R_Speeds_Printf( "%3ix screen water\n", r_stats.sh_screenwater_pass );

	mov	eax, DWORD PTR ?r_stats@@3Uref_stats_t@@A+120
	push	eax
	push	OFFSET ??_C@_0BD@EDPCOAPE@?$CF3ix?5screen?5water?6?$AA@
	call	?R_Speeds_Printf@@YAXPBDZZ		; R_Speeds_Printf
	add	esp, 8

; 1953 : 		R_Speeds_Printf( "%3ix glitch\n", r_stats.sh_glitch_pass );

	mov	eax, DWORD PTR ?r_stats@@3Uref_stats_t@@A+136
	push	eax
	push	OFFSET ??_C@_0N@FBLCPHEM@?$CF3ix?5glitch?6?$AA@
	call	?R_Speeds_Printf@@YAXPBDZZ		; R_Speeds_Printf
	add	esp, 8

; 1954 : 		R_Speeds_Printf( "%3ix monochrome\n", r_stats.sh_monochrome_pass );

	mov	eax, DWORD PTR ?r_stats@@3Uref_stats_t@@A+124
	push	eax
	push	OFFSET ??_C@_0BB@JFOGMHJC@?$CF3ix?5monochrome?6?$AA@
	call	?R_Speeds_Printf@@YAXPBDZZ		; R_Speeds_Printf
	add	esp, 8

; 1955 : 		R_Speeds_Printf( "%3ix SSAO\n", r_stats.sh_ssao_pass );

	mov	eax, DWORD PTR ?r_stats@@3Uref_stats_t@@A+128
	push	eax
	push	OFFSET ??_C@_0L@PHJHACJG@?$CF3ix?5SSAO?6?$AA@
	call	?R_Speeds_Printf@@YAXPBDZZ		; R_Speeds_Printf
	add	esp, 8

; 1956 : 		R_Speeds_Printf( "%3ix waterdrops\n", r_stats.sh_waterdrops_pass );

	mov	eax, DWORD PTR ?r_stats@@3Uref_stats_t@@A+132
	push	eax
	push	OFFSET ??_C@_0BB@EJHEHJPH@?$CF3ix?5waterdrops?6?$AA@
	call	?R_Speeds_Printf@@YAXPBDZZ		; R_Speeds_Printf
	add	esp, 8

; 1957 : 		break;

	jmp	SHORT $LN2@HUD_PrintS
$LN17@HUD_PrintS:

; 1958 : 	case 11:
; 1959 : 		R_Speeds_Printf( "Dynamic lights:\n\n" );

	push	OFFSET ??_C@_0BC@LKJHPOMG@Dynamic?5lights?3?6?6?$AA@
	call	?R_Speeds_Printf@@YAXPBDZZ		; R_Speeds_Printf
	add	esp, 4

; 1960 : 		R_Speeds_Printf( "%3i total\n", r_stats.c_plights );

	mov	eax, DWORD PTR ?r_stats@@3Uref_stats_t@@A+64
	push	eax
	push	OFFSET ??_C@_0L@DMKOEEAE@?$CF3i?5total?6?$AA@
	call	?R_Speeds_Printf@@YAXPBDZZ		; R_Speeds_Printf
	add	esp, 8

; 1961 : 		R_Speeds_Printf( "%3i studio models affected\n", r_stats.c_plights_meshes );

	mov	eax, DWORD PTR ?r_stats@@3Uref_stats_t@@A+68
	push	eax
	push	OFFSET ??_C@_0BM@GOMCEDKG@?$CF3i?5studio?5models?5affected?6?$AA@
	call	?R_Speeds_Printf@@YAXPBDZZ		; R_Speeds_Printf
	add	esp, 8

; 1962 : 		R_Speeds_Printf( "%3i world surfaces affected\n", r_stats.num_light_surfaces );

	mov	eax, DWORD PTR ?r_stats@@3Uref_stats_t@@A+100
	push	eax
	push	OFFSET ??_C@_0BN@IBBABCKC@?$CF3i?5world?5surfaces?5affected?6?$AA@
	call	?R_Speeds_Printf@@YAXPBDZZ		; R_Speeds_Printf
	add	esp, 8
$LN2@HUD_PrintS:

; 1963 : 		break;
; 1964 : 	}
; 1965 : 
; 1966 : 	memset( &r_stats, 0, sizeof( r_stats ));

	push	160					; 000000a0H
	push	0
	push	OFFSET ?r_stats@@3Uref_stats_t@@A	; r_stats
	call	_memset
	add	esp, 12					; 0000000cH
$LN1@HUD_PrintS:

; 1967 : }

	pop	edi
	pop	esi
	pop	ebx
	mov	esp, ebp
	pop	ebp
	ret	0
	npad	1
$LN23@HUD_PrintS:
	DD	$LN5@HUD_PrintS
	DD	$LN6@HUD_PrintS
	DD	$LN8@HUD_PrintS
	DD	$LN9@HUD_PrintS
	DD	$LN10@HUD_PrintS
	DD	$LN11@HUD_PrintS
	DD	$LN12@HUD_PrintS
	DD	$LN13@HUD_PrintS
	DD	$LN15@HUD_PrintS
	DD	$LN16@HUD_PrintS
	DD	$LN17@HUD_PrintS
?HUD_PrintStats@@YAXXZ ENDP				; HUD_PrintStats
_TEXT	ENDS
; Function compile flags: /Odtp /ZI
; File c:\program files (x86)\microsoft visual studio 14.0\vc\include\vadefs.h
;	COMDAT ??$__vcrt_va_start_verify_argument_type@PBD@@YAXXZ
_TEXT	SEGMENT
??$__vcrt_va_start_verify_argument_type@PBD@@YAXXZ PROC	; __vcrt_va_start_verify_argument_type<char const *>, COMDAT

; 144  :         {

	push	ebp
	mov	ebp, esp
	sub	esp, 64					; 00000040H
	push	ebx
	push	esi
	push	edi

; 145  :             static_assert(!__vcrt_va_list_is_reference<_Ty>::__the_value, "va_start argument must not have reference type and must not be parenthesized");
; 146  :         }

	pop	edi
	pop	esi
	pop	ebx
	mov	esp, ebp
	pop	ebp
	ret	0
??$__vcrt_va_start_verify_argument_type@PBD@@YAXXZ ENDP	; __vcrt_va_start_verify_argument_type<char const *>
_TEXT	ENDS
; Function compile flags: /Odtp /ZI
; File d:\!diffusion 2020\source code 2022\client-server\client\render\r_main.cpp
;	COMDAT ?R_Speeds_Printf@@YAXPBDZZ
_TEXT	SEGMENT
_text$ = -2056						; size = 2048
_argptr$ = -8						; size = 4
__$ArrayPad$ = -4					; size = 4
_msg$ = 8						; size = 4
?R_Speeds_Printf@@YAXPBDZZ PROC				; R_Speeds_Printf, COMDAT

; 1873 : {

	push	ebp
	mov	ebp, esp
	sub	esp, 2376				; 00000948H
	mov	eax, DWORD PTR ___security_cookie
	xor	eax, ebp
	mov	DWORD PTR __$ArrayPad$[ebp], eax
	push	ebx
	push	esi
	push	edi

; 1874 : 	va_list	argptr;
; 1875 : 	char	text[2048];
; 1876 : 
; 1877 : 	va_start( argptr, msg );

	call	??$__vcrt_va_start_verify_argument_type@PBD@@YAXXZ ; __vcrt_va_start_verify_argument_type<char const *>
	lea	eax, DWORD PTR _msg$[ebp+4]
	mov	DWORD PTR _argptr$[ebp], eax

; 1878 : 	Q_vsprintf( text, msg, argptr );

	mov	eax, DWORD PTR _argptr$[ebp]
	push	eax
	mov	ecx, DWORD PTR _msg$[ebp]
	push	ecx
	push	99999					; 0001869fH
	lea	edx, DWORD PTR _text$[ebp]
	push	edx
	call	?Q_vsnprintf@@YAHPADIPBD0@Z		; Q_vsnprintf
	add	esp, 16					; 00000010H

; 1879 : 	va_end( argptr );

	mov	DWORD PTR _argptr$[ebp], 0

; 1880 : 
; 1881 : 	Q_strncat( r_speeds_msg, text, sizeof( r_speeds_msg ));

	push	2048					; 00000800H
	lea	eax, DWORD PTR _text$[ebp]
	push	eax
	push	OFFSET ?r_speeds_msg@@3PADA		; r_speeds_msg
	call	?Q_strncat@@YAIPADPBDI@Z		; Q_strncat
	add	esp, 12					; 0000000cH

; 1882 : }

	pop	edi
	pop	esi
	pop	ebx
	mov	ecx, DWORD PTR __$ArrayPad$[ebp]
	xor	ecx, ebp
	call	@__security_check_cookie@4
	mov	esp, ebp
	pop	ebp
	ret	0
?R_Speeds_Printf@@YAXPBDZZ ENDP				; R_Speeds_Printf
_TEXT	ENDS
; Function compile flags: /Odtp /ZI
; File d:\!diffusion 2020\source code 2022\client-server\client\render\r_main.cpp
;	COMDAT ?R_DrawFog@@YAXXZ
_TEXT	SEGMENT
?R_DrawFog@@YAXXZ PROC					; R_DrawFog, COMDAT

; 1282 : {

	push	ebp
	mov	ebp, esp
	sub	esp, 64					; 00000040H
	push	ebx
	push	esi
	push	edi

; 1283 : 	if( !tr.fogEnabled ) return;

	movzx	eax, BYTE PTR ?tr@@3Uref_globals_t@@A+5830892
	test	eax, eax
	jne	SHORT $LN2@R_DrawFog
	jmp	SHORT $LN1@R_DrawFog
$LN2@R_DrawFog:

; 1284 : 
; 1285 : 	pglEnable( GL_FOG );

	push	2912					; 00000b60H
	call	DWORD PTR ?pglEnable@@3P6GXI@ZA		; pglEnable

; 1286 : 	pglFogi( GL_FOG_MODE, GL_EXP );

	push	2048					; 00000800H
	push	2917					; 00000b65H
	call	DWORD PTR ?pglFogi@@3P6GXIH@ZA		; pglFogi

; 1287 : 	pglFogf( GL_FOG_DENSITY, tr.fogDensity );

	push	ecx
	movss	xmm0, DWORD PTR ?tr@@3Uref_globals_t@@A+5830908
	movss	DWORD PTR [esp], xmm0
	push	2914					; 00000b62H
	call	DWORD PTR ?pglFogf@@3P6GXIM@ZA		; pglFogf

; 1288 : 	pglFogfv( GL_FOG_COLOR, tr.fogColor );

	mov	ecx, OFFSET ?tr@@3Uref_globals_t@@A+5830896
	call	??BVector@@QAEPAMXZ			; Vector::operator float *
	push	eax
	push	2918					; 00000b66H
	call	DWORD PTR ?pglFogfv@@3P6GXIPBM@ZA	; pglFogfv

; 1289 : 	pglHint( GL_FOG_HINT, GL_NICEST );

	push	4354					; 00001102H
	push	3156					; 00000c54H
	call	DWORD PTR ?pglHint@@3P6GXII@ZA		; pglHint
$LN1@R_DrawFog:

; 1290 : }

	pop	edi
	pop	esi
	pop	ebx
	mov	esp, ebp
	pop	ebp
	ret	0
?R_DrawFog@@YAXXZ ENDP					; R_DrawFog
_TEXT	ENDS
; Function compile flags: /Odtp /ZI
; File d:\!diffusion 2020\source code 2022\client-server\client\render\r_main.cpp
;	COMDAT ?R_CheckFog@@YAXXZ
_TEXT	SEGMENT
tv275 = -108						; size = 4
tv222 = -104						; size = 8
tv285 = -96						; size = 4
tv283 = -96						; size = 4
tv281 = -96						; size = 4
tv279 = -96						; size = 4
tv277 = -96						; size = 4
tv219 = -96						; size = 4
_surf$1 = -28						; size = 4
_i$2 = -24						; size = 4
_fogDensity$ = -17					; size = 1
_fogColor$ = -16					; size = 3
_waterEntity$ = -12					; size = 4
_texture$ = -8						; size = 4
_ent$ = -4						; size = 4
?R_CheckFog@@YAXXZ PROC					; R_CheckFog, COMDAT

; 1215 : {

	push	ebp
	mov	ebp, esp
	sub	esp, 108				; 0000006cH
	push	ebx
	push	esi
	push	edi

; 1216 : 	cl_entity_t	*ent = NULL;

	mov	DWORD PTR _ent$[ebp], 0

; 1217 : 	int		texture = -1;

	mov	DWORD PTR _texture$[ebp], -1

; 1218 : 	int		waterEntity;
; 1219 : 	color24		fogColor;
; 1220 : 	byte		fogDensity;
; 1221 : 
; 1222 : 	tr.fogEnabled = false;

	mov	BYTE PTR ?tr@@3Uref_globals_t@@A+5830892, 0

; 1223 : 
; 1224 : 	// eyes above water
; 1225 : 	if( tr.viewparams.waterlevel < 3 )

	cmp	DWORD PTR ?tr@@3Uref_globals_t@@A+5830740, 3
	jge	$LN5@R_CheckFog

; 1226 : 	{
; 1227 : 		if( tr.movevars->fog_settings != 0x00000000 )

	mov	eax, DWORD PTR ?tr@@3Uref_globals_t@@A+5830888
	cmp	DWORD PTR [eax+136], 0
	je	$LN6@R_CheckFog

; 1228 : 		{
; 1229 : 			// enable global exponential color
; 1230 : 			tr.fogColor[0] = ((tr.movevars->fog_settings & 0xFF000000) >> 24) / 255.0f;

	mov	eax, DWORD PTR ?tr@@3Uref_globals_t@@A+5830888
	mov	ecx, DWORD PTR [eax+136]
	and	ecx, -16777216				; ff000000H
	shr	ecx, 24					; 00000018H
	mov	DWORD PTR tv219[ebp], ecx
	cvtsi2sd xmm0, DWORD PTR tv219[ebp]
	mov	edx, DWORD PTR tv219[ebp]
	shr	edx, 31					; 0000001fH
	addsd	xmm0, QWORD PTR __xmm@41f00000000000000000000000000000[edx*8]
	movsd	QWORD PTR tv222[ebp], xmm0
	cvtsd2ss xmm0, QWORD PTR tv222[ebp]
	divss	xmm0, DWORD PTR __real@437f0000
	mov	ecx, OFFSET ?tr@@3Uref_globals_t@@A+5830896
	movss	DWORD PTR tv275[ebp], xmm0
	call	??BVector@@QAEPAMXZ			; Vector::operator float *
	mov	ecx, 4
	imul	edx, ecx, 0
	movss	xmm0, DWORD PTR tv275[ebp]
	movss	DWORD PTR [eax+edx], xmm0

; 1231 : 			tr.fogColor[1] = ((tr.movevars->fog_settings & 0xFF0000) >> 16) / 255.0f;

	mov	eax, DWORD PTR ?tr@@3Uref_globals_t@@A+5830888
	mov	ecx, DWORD PTR [eax+136]
	and	ecx, 16711680				; 00ff0000H
	sar	ecx, 16					; 00000010H
	cvtsi2ss xmm0, ecx
	divss	xmm0, DWORD PTR __real@437f0000
	mov	ecx, OFFSET ?tr@@3Uref_globals_t@@A+5830896
	movss	DWORD PTR tv277[ebp], xmm0
	call	??BVector@@QAEPAMXZ			; Vector::operator float *
	mov	edx, 4
	shl	edx, 0
	movss	xmm0, DWORD PTR tv277[ebp]
	movss	DWORD PTR [eax+edx], xmm0

; 1232 : 			tr.fogColor[2] = ((tr.movevars->fog_settings & 0xFF00) >> 8) / 255.0f;

	mov	eax, DWORD PTR ?tr@@3Uref_globals_t@@A+5830888
	mov	ecx, DWORD PTR [eax+136]
	and	ecx, 65280				; 0000ff00H
	sar	ecx, 8
	cvtsi2ss xmm0, ecx
	divss	xmm0, DWORD PTR __real@437f0000
	mov	ecx, OFFSET ?tr@@3Uref_globals_t@@A+5830896
	movss	DWORD PTR tv279[ebp], xmm0
	call	??BVector@@QAEPAMXZ			; Vector::operator float *
	mov	edx, 4
	shl	edx, 1
	movss	xmm0, DWORD PTR tv279[ebp]
	movss	DWORD PTR [eax+edx], xmm0

; 1233 : 			if( FBitSet( RI->params, RP_SKYPORTALVIEW ))

	mov	eax, DWORD PTR ?RI@@3PAUref_instance_t@@A ; RI
	mov	ecx, DWORD PTR [eax]
	and	ecx, 32					; 00000020H
	je	SHORT $LN7@R_CheckFog

; 1234 : 				tr.fogDensity = (tr.movevars->fog_settings & 0xFF) * 0.00005f;

	mov	eax, DWORD PTR ?tr@@3Uref_globals_t@@A+5830888
	mov	ecx, DWORD PTR [eax+136]
	and	ecx, 255				; 000000ffH
	cvtsi2ss xmm0, ecx
	mulss	xmm0, DWORD PTR __real@3851b717
	movss	DWORD PTR ?tr@@3Uref_globals_t@@A+5830908, xmm0
	jmp	SHORT $LN8@R_CheckFog
$LN7@R_CheckFog:

; 1235 : 			else tr.fogDensity = (tr.movevars->fog_settings & 0xFF) * 0.000005f;

	mov	eax, DWORD PTR ?tr@@3Uref_globals_t@@A+5830888
	mov	ecx, DWORD PTR [eax+136]
	and	ecx, 255				; 000000ffH
	cvtsi2ss xmm0, ecx
	mulss	xmm0, DWORD PTR __real@36a7c5ac
	movss	DWORD PTR ?tr@@3Uref_globals_t@@A+5830908, xmm0
$LN8@R_CheckFog:

; 1236 : 			tr.fogEnabled = true;

	mov	BYTE PTR ?tr@@3Uref_globals_t@@A+5830892, 1
$LN6@R_CheckFog:

; 1237 : 		}
; 1238 : 		return;

	jmp	$LN1@R_CheckFog
$LN5@R_CheckFog:

; 1239 : 	}
; 1240 : 
; 1241 : 	waterEntity = WATER_ENTITY( RI->vieworg );

	mov	ecx, DWORD PTR ?RI@@3PAUref_instance_t@@A ; RI
	add	ecx, 204				; 000000ccH
	call	??BVector@@QAEPAMXZ			; Vector::operator float *
	push	eax
	call	DWORD PTR ?gEngfuncs@@3Ucl_enginefuncs_s@@A+232
	add	esp, 4
	mov	DWORD PTR _waterEntity$[ebp], eax

; 1242 : 	if( waterEntity >= 0 && waterEntity < tr.viewparams.max_entities )

	cmp	DWORD PTR _waterEntity$[ebp], 0
	jl	SHORT $LN9@R_CheckFog
	mov	eax, DWORD PTR _waterEntity$[ebp]
	cmp	eax, DWORD PTR ?tr@@3Uref_globals_t@@A+5830840
	jge	SHORT $LN9@R_CheckFog

; 1243 : 		ent = GET_ENTITY( waterEntity );

	mov	eax, DWORD PTR _waterEntity$[ebp]
	push	eax
	call	DWORD PTR ?gEngfuncs@@3Ucl_enginefuncs_s@@A+212
	add	esp, 4
	mov	DWORD PTR _ent$[ebp], eax
$LN9@R_CheckFog:

; 1244 : 
; 1245 : 	// check for water texture
; 1246 : 	if( ent && ent->model && ent->model->type == mod_brush )

	cmp	DWORD PTR _ent$[ebp], 0
	je	$LN10@R_CheckFog
	mov	eax, DWORD PTR _ent$[ebp]
	cmp	DWORD PTR [eax+2964], 0
	je	SHORT $LN10@R_CheckFog
	mov	eax, DWORD PTR _ent$[ebp]
	mov	ecx, DWORD PTR [eax+2964]
	cmp	DWORD PTR [ecx+68], 0
	jne	SHORT $LN10@R_CheckFog

; 1247 : 	{
; 1248 : 		for( int i = 0; i < ent->model->nummodelsurfaces; i++ )

	mov	DWORD PTR _i$2[ebp], 0
	jmp	SHORT $LN4@R_CheckFog
$LN2@R_CheckFog:
	mov	eax, DWORD PTR _i$2[ebp]
	add	eax, 1
	mov	DWORD PTR _i$2[ebp], eax
$LN4@R_CheckFog:
	mov	eax, DWORD PTR _ent$[ebp]
	mov	ecx, DWORD PTR [eax+2964]
	mov	edx, DWORD PTR _i$2[ebp]
	cmp	edx, DWORD PTR [ecx+116]
	jge	SHORT $LN3@R_CheckFog

; 1249 : 		{
; 1250 : 			msurface_t *surf = &ent->model->surfaces[ent->model->firstmodelsurface+i];

	mov	eax, DWORD PTR _ent$[ebp]
	mov	ecx, DWORD PTR [eax+2964]
	mov	edx, DWORD PTR _ent$[ebp]
	mov	eax, DWORD PTR [edx+2964]
	mov	edx, DWORD PTR [eax+112]
	add	edx, DWORD PTR _i$2[ebp]
	imul	eax, edx, 92
	add	eax, DWORD PTR [ecx+180]
	mov	DWORD PTR _surf$1[ebp], eax

; 1251 : 			if( FBitSet( surf->flags, SURF_WATER ))

	mov	eax, DWORD PTR _surf$1[ebp]
	mov	ecx, DWORD PTR [eax+8]
	and	ecx, 16					; 00000010H
	je	SHORT $LN12@R_CheckFog

; 1252 : 			{
; 1253 : 				texture = surf->texinfo->texture->gl_texturenum;

	mov	eax, DWORD PTR _surf$1[ebp]
	mov	ecx, DWORD PTR [eax+44]
	mov	edx, DWORD PTR [ecx+36]
	mov	eax, DWORD PTR [edx+24]
	mov	DWORD PTR _texture$[ebp], eax

; 1254 : 				break;

	jmp	SHORT $LN3@R_CheckFog
$LN12@R_CheckFog:

; 1255 : 			}
; 1256 : 		}

	jmp	SHORT $LN2@R_CheckFog
$LN3@R_CheckFog:

; 1257 : 	}
; 1258 : 	else if( RI->viewleaf )

	jmp	SHORT $LN13@R_CheckFog
$LN10@R_CheckFog:
	mov	eax, DWORD PTR ?RI@@3PAUref_instance_t@@A ; RI
	cmp	DWORD PTR [eax+172], 0
	je	SHORT $LN13@R_CheckFog

; 1259 : 	{
; 1260 : 		texture = R_RecursiveFindWaterTexture( RI->viewleaf->parent, NULL, false );

	push	0
	push	0
	mov	eax, DWORD PTR ?RI@@3PAUref_instance_t@@A ; RI
	mov	ecx, DWORD PTR [eax+172]
	mov	edx, DWORD PTR [ecx+32]
	push	edx
	call	?R_RecursiveFindWaterTexture@@YAHPBUmnode_s@@0H@Z ; R_RecursiveFindWaterTexture
	add	esp, 12					; 0000000cH
	mov	DWORD PTR _texture$[ebp], eax
$LN13@R_CheckFog:

; 1261 : 	}
; 1262 : 	if( texture == -1 ) return; // no valid fogs

	cmp	DWORD PTR _texture$[ebp], -1
	jne	SHORT $LN14@R_CheckFog
	jmp	$LN1@R_CheckFog
$LN14@R_CheckFog:

; 1263 : 
; 1264 : 	// extract fog settings from texture palette
; 1265 : 	GET_EXTRA_PARAMS( texture, &fogColor.r, &fogColor.g, &fogColor.b, &fogDensity );

	lea	eax, DWORD PTR _fogDensity$[ebp]
	push	eax
	lea	ecx, DWORD PTR _fogColor$[ebp+2]
	push	ecx
	lea	edx, DWORD PTR _fogColor$[ebp+1]
	push	edx
	lea	eax, DWORD PTR _fogColor$[ebp]
	push	eax
	mov	ecx, DWORD PTR _texture$[ebp]
	push	ecx
	call	DWORD PTR ?gRenderfuncs@@3Urender_api_s@@A+8
	add	esp, 20					; 00000014H

; 1266 : 
; 1267 : 	// copy fog params
; 1268 : 	tr.fogColor[0] = fogColor.r / 255.0f;

	movzx	eax, BYTE PTR _fogColor$[ebp]
	cvtsi2ss xmm0, eax
	divss	xmm0, DWORD PTR __real@437f0000
	mov	ecx, OFFSET ?tr@@3Uref_globals_t@@A+5830896
	movss	DWORD PTR tv281[ebp], xmm0
	call	??BVector@@QAEPAMXZ			; Vector::operator float *
	mov	ecx, 4
	imul	edx, ecx, 0
	movss	xmm0, DWORD PTR tv281[ebp]
	movss	DWORD PTR [eax+edx], xmm0

; 1269 : 	tr.fogColor[1] = fogColor.g / 255.0f;

	movzx	eax, BYTE PTR _fogColor$[ebp+1]
	cvtsi2ss xmm0, eax
	divss	xmm0, DWORD PTR __real@437f0000
	mov	ecx, OFFSET ?tr@@3Uref_globals_t@@A+5830896
	movss	DWORD PTR tv283[ebp], xmm0
	call	??BVector@@QAEPAMXZ			; Vector::operator float *
	mov	ecx, 4
	shl	ecx, 0
	movss	xmm0, DWORD PTR tv283[ebp]
	movss	DWORD PTR [eax+ecx], xmm0

; 1270 : 	tr.fogColor[2] = fogColor.b / 255.0f;

	movzx	eax, BYTE PTR _fogColor$[ebp+2]
	cvtsi2ss xmm0, eax
	divss	xmm0, DWORD PTR __real@437f0000
	mov	ecx, OFFSET ?tr@@3Uref_globals_t@@A+5830896
	movss	DWORD PTR tv285[ebp], xmm0
	call	??BVector@@QAEPAMXZ			; Vector::operator float *
	mov	ecx, 4
	shl	ecx, 1
	movss	xmm0, DWORD PTR tv285[ebp]
	movss	DWORD PTR [eax+ecx], xmm0

; 1271 : 	tr.fogDensity = fogDensity * 0.000005f;

	movzx	eax, BYTE PTR _fogDensity$[ebp]
	cvtsi2ss xmm0, eax
	mulss	xmm0, DWORD PTR __real@36a7c5ac
	movss	DWORD PTR ?tr@@3Uref_globals_t@@A+5830908, xmm0

; 1272 : 	tr.fogEnabled = true;

	mov	BYTE PTR ?tr@@3Uref_globals_t@@A+5830892, 1
$LN1@R_CheckFog:

; 1273 : }

	pop	edi
	pop	esi
	pop	ebx
	mov	esp, ebp
	pop	ebp
	ret	0
?R_CheckFog@@YAXXZ ENDP					; R_CheckFog
_TEXT	ENDS
; Function compile flags: /Odtp /ZI
; File d:\!diffusion 2020\source code 2022\client-server\client\render\r_main.cpp
;	COMDAT ?R_RecursiveFindWaterTexture@@YAHPBUmnode_s@@0H@Z
_TEXT	SEGMENT
_c$1 = -20						; size = 4
_i$2 = -16						; size = 4
_mark$3 = -12						; size = 4
_pleaf$4 = -8						; size = 4
_tex$ = -4						; size = 4
_node$ = 8						; size = 4
_ignore$ = 12						; size = 4
_down$ = 16						; size = 4
?R_RecursiveFindWaterTexture@@YAHPBUmnode_s@@0H@Z PROC	; R_RecursiveFindWaterTexture, COMDAT

; 1143 : {

	push	ebp
	mov	ebp, esp
	sub	esp, 84					; 00000054H
	push	ebx
	push	esi
	push	edi

; 1144 : 	int tex = -1;

	mov	DWORD PTR _tex$[ebp], -1

; 1145 : 
; 1146 : 	// assure the initial node is not null
; 1147 : 	// we could check it here, but we would rather check it 
; 1148 : 	// outside the call to get rid of one additional recursion level
; 1149 : 	assert( node != NULL );

	cmp	DWORD PTR _node$[ebp], 0
	jne	SHORT $LN16@R_Recursiv
	mov	eax, DWORD PTR ?__LINE__Var@?0??R_RecursiveFindWaterTexture@@YAHPBUmnode_s@@0H@Z@4JA
	add	eax, 6
	push	eax
	push	OFFSET ??_C@_1JG@IKLGJBMM@?$AAd?$AA?3?$AA?2?$AA?$CB?$AAd?$AAi?$AAf?$AAf?$AAu?$AAs?$AAi?$AAo?$AAn?$AA?5?$AA2?$AA0?$AA2?$AA0?$AA?2?$AAs?$AAo?$AAu?$AAr?$AAc?$AAe?$AA?5?$AAc?$AAo?$AAd?$AAe?$AA?5?$AA2@
	push	OFFSET ??_C@_1BK@IEOLDBLK@?$AAn?$AAo?$AAd?$AAe?$AA?5?$AA?$CB?$AA?$DN?$AA?5?$AAN?$AAU?$AAL?$AAL?$AA?$AA@
	call	__wassert
	add	esp, 12					; 0000000cH
$LN16@R_Recursiv:

; 1150 : 
; 1151 : 	// ignore solid nodes
; 1152 : 	if( node->contents == CONTENTS_SOLID )

	mov	eax, DWORD PTR _node$[ebp]
	cmp	DWORD PTR [eax], -2			; fffffffeH
	jne	SHORT $LN5@R_Recursiv

; 1153 : 		return -1;

	or	eax, -1
	jmp	$LN1@R_Recursiv
$LN5@R_Recursiv:

; 1154 : 
; 1155 : 	if( node->contents < 0 )

	mov	eax, DWORD PTR _node$[ebp]
	cmp	DWORD PTR [eax], 0
	jge	$LN6@R_Recursiv

; 1156 : 	{
; 1157 : 		mleaf_t		*pleaf;
; 1158 : 		msurface_t	**mark;
; 1159 : 		int		i, c;
; 1160 : 
; 1161 : 		// ignore non-liquid leaves
; 1162 : 		if( !IsLiquidContents( node->contents ))

	mov	eax, DWORD PTR _node$[ebp]
	cmp	DWORD PTR [eax], -3			; fffffffdH
	je	SHORT $LN7@R_Recursiv
	mov	eax, DWORD PTR _node$[ebp]
	cmp	DWORD PTR [eax], -4			; fffffffcH
	je	SHORT $LN7@R_Recursiv
	mov	eax, DWORD PTR _node$[ebp]
	cmp	DWORD PTR [eax], -5			; fffffffbH
	je	SHORT $LN7@R_Recursiv

; 1163 : 			 return -1;

	or	eax, -1
	jmp	$LN1@R_Recursiv
$LN7@R_Recursiv:

; 1164 : 
; 1165 : 		// find texture
; 1166 : 		pleaf = (mleaf_t *)node;

	mov	eax, DWORD PTR _node$[ebp]
	mov	DWORD PTR _pleaf$4[ebp], eax

; 1167 : 		mark = pleaf->firstmarksurface;

	mov	eax, DWORD PTR _pleaf$4[ebp]
	mov	ecx, DWORD PTR [eax+44]
	mov	DWORD PTR _mark$3[ebp], ecx

; 1168 : 		c = pleaf->nummarksurfaces;	

	mov	eax, DWORD PTR _pleaf$4[ebp]
	mov	ecx, DWORD PTR [eax+48]
	mov	DWORD PTR _c$1[ebp], ecx

; 1169 : 
; 1170 : 		for( i = 0; i < c; i++, mark++ )

	mov	DWORD PTR _i$2[ebp], 0
	jmp	SHORT $LN4@R_Recursiv
$LN2@R_Recursiv:
	mov	eax, DWORD PTR _i$2[ebp]
	add	eax, 1
	mov	DWORD PTR _i$2[ebp], eax
	mov	ecx, DWORD PTR _mark$3[ebp]
	add	ecx, 4
	mov	DWORD PTR _mark$3[ebp], ecx
$LN4@R_Recursiv:
	mov	eax, DWORD PTR _i$2[ebp]
	cmp	eax, DWORD PTR _c$1[ebp]
	jge	SHORT $LN3@R_Recursiv

; 1171 : 		{
; 1172 : 			if( (*mark)->flags & SURF_WATER && (*mark)->texinfo && (*mark)->texinfo->texture )

	mov	eax, DWORD PTR _mark$3[ebp]
	mov	ecx, DWORD PTR [eax]
	mov	edx, DWORD PTR [ecx+8]
	and	edx, 16					; 00000010H
	je	SHORT $LN8@R_Recursiv
	mov	eax, DWORD PTR _mark$3[ebp]
	mov	ecx, DWORD PTR [eax]
	cmp	DWORD PTR [ecx+44], 0
	je	SHORT $LN8@R_Recursiv
	mov	eax, DWORD PTR _mark$3[ebp]
	mov	ecx, DWORD PTR [eax]
	mov	edx, DWORD PTR [ecx+44]
	cmp	DWORD PTR [edx+36], 0
	je	SHORT $LN8@R_Recursiv

; 1173 : 				return (*mark)->texinfo->texture->gl_texturenum;

	mov	eax, DWORD PTR _mark$3[ebp]
	mov	ecx, DWORD PTR [eax]
	mov	edx, DWORD PTR [ecx+44]
	mov	eax, DWORD PTR [edx+36]
	mov	eax, DWORD PTR [eax+24]
	jmp	$LN1@R_Recursiv
$LN8@R_Recursiv:

; 1174 : 		}

	jmp	SHORT $LN2@R_Recursiv
$LN3@R_Recursiv:

; 1175 : 
; 1176 : 		// texture not found
; 1177 : 		return -1;

	or	eax, -1
	jmp	$LN1@R_Recursiv
$LN6@R_Recursiv:

; 1178 : 	}
; 1179 : 
; 1180 : 	// this is a regular node
; 1181 : 	// traverse children
; 1182 : 	if( node->children[0] && ( node->children[0] != ignore ))

	mov	eax, 4
	imul	ecx, eax, 0
	mov	edx, DWORD PTR _node$[ebp]
	cmp	DWORD PTR [edx+ecx+40], 0
	je	SHORT $LN9@R_Recursiv
	mov	eax, 4
	imul	ecx, eax, 0
	mov	edx, DWORD PTR _node$[ebp]
	mov	eax, DWORD PTR [edx+ecx+40]
	cmp	eax, DWORD PTR _ignore$[ebp]
	je	SHORT $LN9@R_Recursiv

; 1183 : 	{
; 1184 : 		tex = R_RecursiveFindWaterTexture( node->children[0], node, true );

	push	1
	mov	eax, DWORD PTR _node$[ebp]
	push	eax
	mov	ecx, 4
	imul	edx, ecx, 0
	mov	eax, DWORD PTR _node$[ebp]
	mov	ecx, DWORD PTR [eax+edx+40]
	push	ecx
	call	?R_RecursiveFindWaterTexture@@YAHPBUmnode_s@@0H@Z ; R_RecursiveFindWaterTexture
	add	esp, 12					; 0000000cH
	mov	DWORD PTR _tex$[ebp], eax

; 1185 : 		if( tex != -1 ) return tex;

	cmp	DWORD PTR _tex$[ebp], -1
	je	SHORT $LN9@R_Recursiv
	mov	eax, DWORD PTR _tex$[ebp]
	jmp	$LN1@R_Recursiv
$LN9@R_Recursiv:

; 1186 : 	}
; 1187 : 
; 1188 : 	if( node->children[1] && ( node->children[1] != ignore ))

	mov	eax, 4
	shl	eax, 0
	mov	ecx, DWORD PTR _node$[ebp]
	cmp	DWORD PTR [ecx+eax+40], 0
	je	SHORT $LN11@R_Recursiv
	mov	eax, 4
	shl	eax, 0
	mov	ecx, DWORD PTR _node$[ebp]
	mov	edx, DWORD PTR [ecx+eax+40]
	cmp	edx, DWORD PTR _ignore$[ebp]
	je	SHORT $LN11@R_Recursiv

; 1189 : 	{
; 1190 : 		tex = R_RecursiveFindWaterTexture( node->children[1], node, true );

	push	1
	mov	eax, DWORD PTR _node$[ebp]
	push	eax
	mov	ecx, 4
	shl	ecx, 0
	mov	edx, DWORD PTR _node$[ebp]
	mov	eax, DWORD PTR [edx+ecx+40]
	push	eax
	call	?R_RecursiveFindWaterTexture@@YAHPBUmnode_s@@0H@Z ; R_RecursiveFindWaterTexture
	add	esp, 12					; 0000000cH
	mov	DWORD PTR _tex$[ebp], eax

; 1191 : 		if( tex != -1 ) return tex;

	cmp	DWORD PTR _tex$[ebp], -1
	je	SHORT $LN11@R_Recursiv
	mov	eax, DWORD PTR _tex$[ebp]
	jmp	SHORT $LN1@R_Recursiv
$LN11@R_Recursiv:

; 1192 : 	}
; 1193 : 
; 1194 : 	// for down recursion, return immediately
; 1195 : 	if( down ) return -1;

	cmp	DWORD PTR _down$[ebp], 0
	je	SHORT $LN13@R_Recursiv
	or	eax, -1
	jmp	SHORT $LN1@R_Recursiv
$LN13@R_Recursiv:

; 1196 : 
; 1197 : 	// texture not found, step up if any
; 1198 : 	if( node->parent )

	mov	eax, DWORD PTR _node$[ebp]
	cmp	DWORD PTR [eax+32], 0
	je	SHORT $LN14@R_Recursiv

; 1199 : 		return R_RecursiveFindWaterTexture( node->parent, node, false );

	push	0
	mov	eax, DWORD PTR _node$[ebp]
	push	eax
	mov	ecx, DWORD PTR _node$[ebp]
	mov	edx, DWORD PTR [ecx+32]
	push	edx
	call	?R_RecursiveFindWaterTexture@@YAHPBUmnode_s@@0H@Z ; R_RecursiveFindWaterTexture
	add	esp, 12					; 0000000cH
	jmp	SHORT $LN1@R_Recursiv
$LN14@R_Recursiv:

; 1200 : 
; 1201 : 	// top-level node, bail out
; 1202 : 	return -1;

	or	eax, -1
$LN1@R_Recursiv:

; 1203 : }

	pop	edi
	pop	esi
	pop	ebx
	mov	esp, ebp
	pop	ebp
	ret	0
?R_RecursiveFindWaterTexture@@YAHPBUmnode_s@@0H@Z ENDP	; R_RecursiveFindWaterTexture
_TEXT	ENDS
; Function compile flags: /Odtp /ZI
; File d:\!diffusion 2020\source code 2022\client-server\client\render\r_main.cpp
;	COMDAT ?R_EndGL@@YAXXZ
_TEXT	SEGMENT
?R_EndGL@@YAXXZ PROC					; R_EndGL, COMDAT

; 1129 : {

	push	ebp
	mov	ebp, esp
	sub	esp, 64					; 00000040H
	push	ebx
	push	esi
	push	edi

; 1130 : 	if( FBitSet( RI->params, RP_CLIPPLANE ))

	mov	eax, DWORD PTR ?RI@@3PAUref_instance_t@@A ; RI
	mov	ecx, DWORD PTR [eax]
	and	ecx, 8
	je	SHORT $LN1@R_EndGL

; 1131 : 		pglDisable( GL_CLIP_PLANE0 );

	push	12288					; 00003000H
	call	DWORD PTR ?pglDisable@@3P6GXI@ZA	; pglDisable
$LN1@R_EndGL:

; 1132 : }

	pop	edi
	pop	esi
	pop	ebx
	mov	esp, ebp
	pop	ebp
	ret	0
?R_EndGL@@YAXXZ ENDP					; R_EndGL
_TEXT	ENDS
; Function compile flags: /Odtp /ZI
; File d:\!diffusion 2020\source code 2022\client-server\client\render\r_main.cpp
;	COMDAT ?R_SetupGL@@YAXXZ
_TEXT	SEGMENT
$T1 = -188						; size = 64
_p$2 = -56						; size = 4
_clip$3 = -52						; size = 32
_y2$4 = -20						; size = 4
_y$5 = -16						; size = 4
_x2$6 = -12						; size = 4
_x$7 = -8						; size = 4
__$ArrayPad$ = -4					; size = 4
?R_SetupGL@@YAXXZ PROC					; R_SetupGL, COMDAT

; 1075 : {

	push	ebp
	mov	ebp, esp
	sub	esp, 196				; 000000c4H
	mov	eax, DWORD PTR ___security_cookie
	xor	eax, ebp
	mov	DWORD PTR __$ArrayPad$[ebp], eax
	push	ebx
	push	esi
	push	edi

; 1076 : 	R_SetupModelviewMatrix( RI->worldviewMatrix );

	mov	eax, DWORD PTR ?RI@@3PAUref_instance_t@@A ; RI
	add	eax, 428				; 000001acH
	push	eax
	call	?R_SetupModelviewMatrix@@YAXAAVmatrix4x4@@@Z ; R_SetupModelviewMatrix
	add	esp, 4

; 1077 : 	R_SetupProjectionMatrix( RI->fov_x, RI->fov_y, RI->projectionMatrix );

	mov	eax, DWORD PTR ?RI@@3PAUref_instance_t@@A ; RI
	add	eax, 556				; 0000022cH
	push	eax
	mov	ecx, DWORD PTR ?RI@@3PAUref_instance_t@@A ; RI
	push	ecx
	movss	xmm0, DWORD PTR [ecx+12]
	movss	DWORD PTR [esp], xmm0
	mov	edx, DWORD PTR ?RI@@3PAUref_instance_t@@A ; RI
	push	ecx
	movss	xmm0, DWORD PTR [edx+8]
	movss	DWORD PTR [esp], xmm0
	call	?R_SetupProjectionMatrix@@YAXMMAAVmatrix4x4@@@Z ; R_SetupProjectionMatrix
	add	esp, 12					; 0000000cH

; 1078 : 
; 1079 : 	RI->worldviewProjectionMatrix = RI->projectionMatrix.Concat( RI->worldviewMatrix );

	mov	eax, DWORD PTR ?RI@@3PAUref_instance_t@@A ; RI
	add	eax, 428				; 000001acH
	sub	esp, 64					; 00000040H
	mov	ecx, esp
	push	eax
	call	??0matrix4x4@@QAE@ABV0@@Z
	lea	ecx, DWORD PTR $T1[ebp]
	push	ecx
	mov	ecx, DWORD PTR ?RI@@3PAUref_instance_t@@A ; RI
	add	ecx, 556				; 0000022cH
	call	?Concat@matrix4x4@@QAE?AV1@V1@@Z	; matrix4x4::Concat
	push	eax
	mov	ecx, DWORD PTR ?RI@@3PAUref_instance_t@@A ; RI
	add	ecx, 620				; 0000026cH
	call	??4matrix4x4@@QAEAAV0@ABV0@@Z		; matrix4x4::operator=

; 1080 : 
; 1081 : 	if( RP_NORMALPASS( ))

	mov	eax, DWORD PTR ?RI@@3PAUref_instance_t@@A ; RI
	mov	ecx, DWORD PTR [eax]
	and	ecx, 483				; 000001e3H
	jne	$LN2@R_SetupGL

; 1082 : 	{
; 1083 : 		// setup main viewport
; 1084 : 		int x = floor( RI->viewport[0] * glState.width / glState.width );

	mov	eax, 4
	imul	ecx, eax, 0
	mov	edx, DWORD PTR ?RI@@3PAUref_instance_t@@A ; RI
	mov	eax, DWORD PTR [edx+ecx+32]
	imul	eax, DWORD PTR ?glState@@3UglState_t@@A
	cdq
	idiv	DWORD PTR ?glState@@3UglState_t@@A
	cvtsi2sd xmm0, eax
	sub	esp, 8
	movsd	QWORD PTR [esp], xmm0
	call	_floor
	add	esp, 8
	call	__ftol2_sse
	mov	DWORD PTR _x$7[ebp], eax

; 1085 : 		int x2 = ceil(( RI->viewport[0] + RI->viewport[2] ) * glState.width / glState.width );

	mov	eax, 4
	imul	ecx, eax, 0
	mov	edx, 4
	shl	edx, 1
	mov	eax, DWORD PTR ?RI@@3PAUref_instance_t@@A ; RI
	mov	eax, DWORD PTR [eax+ecx+32]
	mov	ecx, DWORD PTR ?RI@@3PAUref_instance_t@@A ; RI
	add	eax, DWORD PTR [ecx+edx+32]
	imul	eax, DWORD PTR ?glState@@3UglState_t@@A
	cdq
	idiv	DWORD PTR ?glState@@3UglState_t@@A
	cvtsi2sd xmm0, eax
	sub	esp, 8
	movsd	QWORD PTR [esp], xmm0
	call	_ceil
	add	esp, 8
	call	__ftol2_sse
	mov	DWORD PTR _x2$6[ebp], eax

; 1086 : 		int y = floor( glState.height - RI->viewport[1] * glState.height / glState.height );

	mov	eax, 4
	shl	eax, 0
	mov	ecx, DWORD PTR ?RI@@3PAUref_instance_t@@A ; RI
	mov	eax, DWORD PTR [ecx+eax+32]
	imul	eax, DWORD PTR ?glState@@3UglState_t@@A+4
	cdq
	idiv	DWORD PTR ?glState@@3UglState_t@@A+4
	mov	edx, DWORD PTR ?glState@@3UglState_t@@A+4
	sub	edx, eax
	cvtsi2sd xmm0, edx
	sub	esp, 8
	movsd	QWORD PTR [esp], xmm0
	call	_floor
	add	esp, 8
	call	__ftol2_sse
	mov	DWORD PTR _y$5[ebp], eax

; 1087 : 		int y2 = ceil( glState.height - ( RI->viewport[1] + RI->viewport[3] ) * glState.height / glState.height );

	mov	eax, 4
	shl	eax, 0
	mov	ecx, 4
	imul	edx, ecx, 3
	mov	ecx, DWORD PTR ?RI@@3PAUref_instance_t@@A ; RI
	mov	eax, DWORD PTR [ecx+eax+32]
	mov	ecx, DWORD PTR ?RI@@3PAUref_instance_t@@A ; RI
	add	eax, DWORD PTR [ecx+edx+32]
	imul	eax, DWORD PTR ?glState@@3UglState_t@@A+4
	cdq
	idiv	DWORD PTR ?glState@@3UglState_t@@A+4
	mov	edx, DWORD PTR ?glState@@3UglState_t@@A+4
	sub	edx, eax
	cvtsi2sd xmm0, edx
	sub	esp, 8
	movsd	QWORD PTR [esp], xmm0
	call	_ceil
	add	esp, 8
	call	__ftol2_sse
	mov	DWORD PTR _y2$4[ebp], eax

; 1088 : 		pglViewport( x, y2, x2 - x, y - y2 );

	mov	eax, DWORD PTR _y$5[ebp]
	sub	eax, DWORD PTR _y2$4[ebp]
	push	eax
	mov	ecx, DWORD PTR _x2$6[ebp]
	sub	ecx, DWORD PTR _x$7[ebp]
	push	ecx
	mov	edx, DWORD PTR _y2$4[ebp]
	push	edx
	mov	eax, DWORD PTR _x$7[ebp]
	push	eax
	call	DWORD PTR ?pglViewport@@3P6GXHHHH@ZA	; pglViewport

; 1089 : 	}
; 1090 : 	else

	jmp	SHORT $LN3@R_SetupGL
$LN2@R_SetupGL:

; 1091 : 	{
; 1092 : 		// setup sub viewport
; 1093 : 		pglViewport( RI->viewport[0], RI->viewport[1], RI->viewport[2], RI->viewport[3] );

	mov	eax, 4
	imul	ecx, eax, 3
	mov	edx, DWORD PTR ?RI@@3PAUref_instance_t@@A ; RI
	mov	eax, DWORD PTR [edx+ecx+32]
	push	eax
	mov	ecx, 4
	shl	ecx, 1
	mov	edx, DWORD PTR ?RI@@3PAUref_instance_t@@A ; RI
	mov	eax, DWORD PTR [edx+ecx+32]
	push	eax
	mov	ecx, 4
	shl	ecx, 0
	mov	edx, DWORD PTR ?RI@@3PAUref_instance_t@@A ; RI
	mov	eax, DWORD PTR [edx+ecx+32]
	push	eax
	mov	ecx, 4
	imul	edx, ecx, 0
	mov	eax, DWORD PTR ?RI@@3PAUref_instance_t@@A ; RI
	mov	ecx, DWORD PTR [eax+edx+32]
	push	ecx
	call	DWORD PTR ?pglViewport@@3P6GXHHHH@ZA	; pglViewport
$LN3@R_SetupGL:

; 1094 : 	}
; 1095 : 
; 1096 : 	pglMatrixMode( GL_PROJECTION );

	push	5889					; 00001701H
	call	DWORD PTR ?pglMatrixMode@@3P6GXI@ZA	; pglMatrixMode

; 1097 : 	GL_LoadMatrix( RI->projectionMatrix );

	mov	eax, DWORD PTR ?RI@@3PAUref_instance_t@@A ; RI
	add	eax, 556				; 0000022cH
	sub	esp, 64					; 00000040H
	mov	ecx, esp
	push	eax
	call	??0matrix4x4@@QAE@ABV0@@Z
	call	?GL_LoadMatrix@@YAXVmatrix4x4@@@Z	; GL_LoadMatrix
	add	esp, 64					; 00000040H

; 1098 : 
; 1099 : 	pglMatrixMode( GL_MODELVIEW );

	push	5888					; 00001700H
	call	DWORD PTR ?pglMatrixMode@@3P6GXI@ZA	; pglMatrixMode

; 1100 : 	GL_LoadMatrix( RI->worldviewMatrix );

	mov	eax, DWORD PTR ?RI@@3PAUref_instance_t@@A ; RI
	add	eax, 428				; 000001acH
	sub	esp, 64					; 00000040H
	mov	ecx, esp
	push	eax
	call	??0matrix4x4@@QAE@ABV0@@Z
	call	?GL_LoadMatrix@@YAXVmatrix4x4@@@Z	; GL_LoadMatrix
	add	esp, 64					; 00000040H

; 1101 : 
; 1102 : 	if( FBitSet( RI->params, RP_CLIPPLANE ))

	mov	eax, DWORD PTR ?RI@@3PAUref_instance_t@@A ; RI
	mov	ecx, DWORD PTR [eax]
	and	ecx, 8
	je	$LN4@R_SetupGL

; 1103 : 	{
; 1104 : 		GLdouble	clip[4];
; 1105 : 		mplane_t	*p = &RI->clipPlane;

	mov	eax, DWORD PTR ?RI@@3PAUref_instance_t@@A ; RI
	add	eax, 14012				; 000036bcH
	mov	DWORD PTR _p$2[ebp], eax

; 1106 : 
; 1107 : 		clip[0] = p->normal[0];

	mov	ecx, DWORD PTR _p$2[ebp]
	call	??BVector@@QAEPAMXZ			; Vector::operator float *
	mov	ecx, 4
	imul	edx, ecx, 0
	cvtss2sd xmm0, DWORD PTR [eax+edx]
	mov	eax, 8
	imul	ecx, eax, 0
	movsd	QWORD PTR _clip$3[ebp+ecx], xmm0

; 1108 : 		clip[1] = p->normal[1];

	mov	ecx, DWORD PTR _p$2[ebp]
	call	??BVector@@QAEPAMXZ			; Vector::operator float *
	mov	ecx, 4
	shl	ecx, 0
	cvtss2sd xmm0, DWORD PTR [eax+ecx]
	mov	edx, 8
	shl	edx, 0
	movsd	QWORD PTR _clip$3[ebp+edx], xmm0

; 1109 : 		clip[2] = p->normal[2];

	mov	ecx, DWORD PTR _p$2[ebp]
	call	??BVector@@QAEPAMXZ			; Vector::operator float *
	mov	ecx, 4
	shl	ecx, 1
	cvtss2sd xmm0, DWORD PTR [eax+ecx]
	mov	edx, 8
	shl	edx, 1
	movsd	QWORD PTR _clip$3[ebp+edx], xmm0

; 1110 : 		clip[3] = -p->dist;

	mov	eax, DWORD PTR _p$2[ebp]
	movss	xmm0, DWORD PTR [eax+12]
	xorps	xmm0, DWORD PTR __xmm@80000000800000008000000080000000
	cvtss2sd xmm0, xmm0
	mov	ecx, 8
	imul	edx, ecx, 3
	movsd	QWORD PTR _clip$3[ebp+edx], xmm0

; 1111 : 
; 1112 : 		pglClipPlane( GL_CLIP_PLANE0, clip );

	lea	eax, DWORD PTR _clip$3[ebp]
	push	eax
	push	12288					; 00003000H
	call	DWORD PTR ?pglClipPlane@@3P6GXIPBN@ZA	; pglClipPlane

; 1113 : 		pglEnable( GL_CLIP_PLANE0 );

	push	12288					; 00003000H
	call	DWORD PTR ?pglEnable@@3P6GXI@ZA		; pglEnable
$LN4@R_SetupGL:

; 1114 : 	}
; 1115 : 
; 1116 : 	GL_Cull( GL_FRONT );

	push	1028					; 00000404H
	call	?GL_Cull@@YAXI@Z			; GL_Cull
	add	esp, 4

; 1117 : 
; 1118 : 	pglDisable( GL_BLEND );

	push	3042					; 00000be2H
	call	DWORD PTR ?pglDisable@@3P6GXI@ZA	; pglDisable

; 1119 : 	pglDisable( GL_ALPHA_TEST );

	push	3008					; 00000bc0H
	call	DWORD PTR ?pglDisable@@3P6GXI@ZA	; pglDisable

; 1120 : 	pglColor4f( 1.0f, 1.0f, 1.0f, 1.0f );

	push	ecx
	movss	xmm0, DWORD PTR __real@3f800000
	movss	DWORD PTR [esp], xmm0
	push	ecx
	movss	xmm0, DWORD PTR __real@3f800000
	movss	DWORD PTR [esp], xmm0
	push	ecx
	movss	xmm0, DWORD PTR __real@3f800000
	movss	DWORD PTR [esp], xmm0
	push	ecx
	movss	xmm0, DWORD PTR __real@3f800000
	movss	DWORD PTR [esp], xmm0
	call	DWORD PTR ?pglColor4f@@3P6GXMMMM@ZA	; pglColor4f

; 1121 : }

	pop	edi
	pop	esi
	pop	ebx
	mov	ecx, DWORD PTR __$ArrayPad$[ebp]
	xor	ecx, ebp
	call	@__security_check_cookie@4
	mov	esp, ebp
	pop	ebp
	ret	0
?R_SetupGL@@YAXXZ ENDP					; R_SetupGL
_TEXT	ENDS
; Function compile flags: /Odtp /ZI
; File d:\!diffusion 2020\source code 2022\client-server\client\render\r_main.cpp
;	COMDAT ?R_SetupFrame@@YAXXZ
_TEXT	SEGMENT
tv73 = -65						; size = 1
?R_SetupFrame@@YAXXZ PROC				; R_SetupFrame, COMDAT

; 1054 : {

	push	ebp
	mov	ebp, esp
	sub	esp, 68					; 00000044H
	push	ebx
	push	esi
	push	edi

; 1055 : 	// setup viewplane dist
; 1056 : 	RI->viewplanedist = DotProduct( RI->vieworg, RI->vforward );

	mov	eax, DWORD PTR ?RI@@3PAUref_instance_t@@A ; RI
	add	eax, 228				; 000000e4H
	push	eax
	mov	ecx, DWORD PTR ?RI@@3PAUref_instance_t@@A ; RI
	add	ecx, 204				; 000000ccH
	push	ecx
	call	?DotProduct@@YAMABVVector@@0@Z		; DotProduct
	add	esp, 8
	mov	edx, DWORD PTR ?RI@@3PAUref_instance_t@@A ; RI
	fstp	DWORD PTR [edx+14008]

; 1057 : 
; 1058 : 	if( !CVAR_TO_BOOL( r_nosort ))

	cmp	DWORD PTR ?r_nosort@@3PAUcvar_s@@A, 0	; r_nosort
	je	SHORT $LN5@R_SetupFra
	mov	eax, DWORD PTR ?r_nosort@@3PAUcvar_s@@A	; r_nosort
	movss	xmm0, DWORD PTR [eax+12]
	ucomiss	xmm0, DWORD PTR __real@00000000
	lahf
	test	ah, 68					; 00000044H
	jnp	SHORT $LN5@R_SetupFra
	mov	BYTE PTR tv73[ebp], 1
	jmp	SHORT $LN6@R_SetupFra
$LN5@R_SetupFra:
	mov	BYTE PTR tv73[ebp], 0
$LN6@R_SetupFra:
	movzx	ecx, BYTE PTR tv73[ebp]
	test	ecx, ecx
	jne	SHORT $LN2@R_SetupFra

; 1059 : 	{
; 1060 : 		// sort translucents entities by rendermode and distance
; 1061 : 		qsort( tr.trans_entities, tr.num_trans_entities, sizeof( cl_entity_t* ), (cmpfunc)R_TransEntityCompare );

	push	OFFSET ?R_TransEntityCompare@@YAHPAPBUcl_entity_s@@0@Z ; R_TransEntityCompare
	push	4
	mov	eax, DWORD PTR ?tr@@3Uref_globals_t@@A+4765688
	push	eax
	push	OFFSET ?tr@@3Uref_globals_t@@A+4748532
	call	_qsort
	add	esp, 16					; 00000010H
$LN2@R_SetupFra:

; 1062 : 	}
; 1063 : 
; 1064 : 	// current viewleaf
; 1065 : 	if( !FBitSet( RI->params, RP_OLDVIEWLEAF ))

	mov	eax, DWORD PTR ?RI@@3PAUref_instance_t@@A ; RI
	mov	ecx, DWORD PTR [eax]
	and	ecx, 4
	jne	SHORT $LN3@R_SetupFra

; 1066 : 		R_FindViewLeaf();

	call	?R_FindViewLeaf@@YAXXZ			; R_FindViewLeaf
$LN3@R_SetupFra:

; 1067 : }

	pop	edi
	pop	esi
	pop	ebx
	mov	esp, ebp
	pop	ebp
	ret	0
?R_SetupFrame@@YAXXZ ENDP				; R_SetupFrame
_TEXT	ENDS
; Function compile flags: /Odtp /ZI
; File d:\!diffusion 2020\source code 2022\client-server\client\render\r_main.cpp
;	COMDAT ?R_GetFarClip@@YAMXZ
_TEXT	SEGMENT
tv69 = -68						; size = 4
?R_GetFarClip@@YAMXZ PROC				; R_GetFarClip, COMDAT

; 867  : {

	push	ebp
	mov	ebp, esp
	sub	esp, 68					; 00000044H
	push	ebx
	push	esi
	push	edi

; 868  : 	return tr.movevars->zmax * 1.73f;

	mov	eax, DWORD PTR ?tr@@3Uref_globals_t@@A+5830888
	movss	xmm0, DWORD PTR [eax+56]
	mulss	xmm0, DWORD PTR __real@3fdd70a4
	movss	DWORD PTR tv69[ebp], xmm0
	fld	DWORD PTR tv69[ebp]

; 869  : }

	pop	edi
	pop	esi
	pop	ebx
	mov	esp, ebp
	pop	ebp
	ret	0
?R_GetFarClip@@YAMXZ ENDP				; R_GetFarClip
_TEXT	ENDS
; Function compile flags: /Odtp /ZI
; File d:\!diffusion 2020\source code 2022\client-server\client\render\r_main.cpp
;	COMDAT ?R_RestoreGLState@@YAXXZ
_TEXT	SEGMENT
?R_RestoreGLState@@YAXXZ PROC				; R_RestoreGLState, COMDAT

; 845  : {

	push	ebp
	mov	ebp, esp
	sub	esp, 72					; 00000048H
	push	ebx
	push	esi
	push	edi

; 846  : 	pglViewport( RI->viewport[0], RI->viewport[1], RI->viewport[2], RI->viewport[3] );

	mov	eax, 4
	imul	ecx, eax, 3
	mov	edx, DWORD PTR ?RI@@3PAUref_instance_t@@A ; RI
	mov	eax, DWORD PTR [edx+ecx+32]
	push	eax
	mov	ecx, 4
	shl	ecx, 1
	mov	edx, DWORD PTR ?RI@@3PAUref_instance_t@@A ; RI
	mov	eax, DWORD PTR [edx+ecx+32]
	push	eax
	mov	ecx, 4
	shl	ecx, 0
	mov	edx, DWORD PTR ?RI@@3PAUref_instance_t@@A ; RI
	mov	eax, DWORD PTR [edx+ecx+32]
	push	eax
	mov	ecx, 4
	imul	edx, ecx, 0
	mov	eax, DWORD PTR ?RI@@3PAUref_instance_t@@A ; RI
	mov	ecx, DWORD PTR [eax+edx+32]
	push	ecx
	call	DWORD PTR ?pglViewport@@3P6GXHHHH@ZA	; pglViewport

; 847  : 
; 848  : 	pglMatrixMode( GL_PROJECTION );

	push	5889					; 00001701H
	call	DWORD PTR ?pglMatrixMode@@3P6GXI@ZA	; pglMatrixMode

; 849  : 	GL_LoadMatrix( RI->projectionMatrix );

	mov	eax, DWORD PTR ?RI@@3PAUref_instance_t@@A ; RI
	add	eax, 556				; 0000022cH
	sub	esp, 64					; 00000040H
	mov	ecx, esp
	push	eax
	call	??0matrix4x4@@QAE@ABV0@@Z
	call	?GL_LoadMatrix@@YAXVmatrix4x4@@@Z	; GL_LoadMatrix
	add	esp, 64					; 00000040H

; 850  : 
; 851  : 	pglMatrixMode( GL_MODELVIEW );

	push	5888					; 00001700H
	call	DWORD PTR ?pglMatrixMode@@3P6GXI@ZA	; pglMatrixMode

; 852  : 	GL_LoadMatrix( RI->worldviewMatrix );

	mov	eax, DWORD PTR ?RI@@3PAUref_instance_t@@A ; RI
	add	eax, 428				; 000001acH
	sub	esp, 64					; 00000040H
	mov	ecx, esp
	push	eax
	call	??0matrix4x4@@QAE@ABV0@@Z
	call	?GL_LoadMatrix@@YAXVmatrix4x4@@@Z	; GL_LoadMatrix
	add	esp, 64					; 00000040H

; 853  : 
; 854  : 	pglEnable( GL_DEPTH_TEST );

	push	2929					; 00000b71H
	call	DWORD PTR ?pglEnable@@3P6GXI@ZA		; pglEnable

; 855  : 	pglDepthMask( GL_TRUE );

	push	1
	call	DWORD PTR ?pglDepthMask@@3P6GXE@ZA	; pglDepthMask

; 856  : 	pglDisable( GL_BLEND );

	push	3042					; 00000be2H
	call	DWORD PTR ?pglDisable@@3P6GXI@ZA	; pglDisable

; 857  : 	GL_Cull( GL_FRONT );

	push	1028					; 00000404H
	call	?GL_Cull@@YAXI@Z			; GL_Cull
	add	esp, 4

; 858  : }

	pop	edi
	pop	esi
	pop	ebx
	mov	esp, ebp
	pop	ebp
	ret	0
?R_RestoreGLState@@YAXXZ ENDP				; R_RestoreGLState
_TEXT	ENDS
; Function compile flags: /Odtp /ZI
; File d:\!diffusion 2020\source code 2022\client-server\client\render\r_main.cpp
;	COMDAT ?R_Clear@@YAXH@Z
_TEXT	SEGMENT
_bits$ = -4						; size = 4
_bitMask$ = 8						; size = 4
?R_Clear@@YAXH@Z PROC					; R_Clear, COMDAT

; 796  : {

	push	ebp
	mov	ebp, esp
	sub	esp, 68					; 00000044H
	push	ebx
	push	esi
	push	edi

; 797  : 	int	bits = GL_DEPTH_BUFFER_BIT;

	mov	DWORD PTR _bits$[ebp], 256		; 00000100H

; 798  : 	// NOTE: mask should be enabled to properly clear buffer
; 799  : 	GL_DepthMask( GL_TRUE );

	push	1
	call	?GL_DepthMask@@YAXH@Z			; GL_DepthMask
	add	esp, 4

; 800  : 
; 801  : 	if( FBitSet( RI->params, RP_OVERVIEW ))

	mov	eax, DWORD PTR ?RI@@3PAUref_instance_t@@A ; RI
	mov	ecx, DWORD PTR [eax]
	and	ecx, 512				; 00000200H
	je	SHORT $LN2@R_Clear

; 802  : 		pglClearColor( 0.0f, 1.0f, 0.0f, 1.0f ); // green background (Valve rules)

	push	ecx
	movss	xmm0, DWORD PTR __real@3f800000
	movss	DWORD PTR [esp], xmm0
	push	ecx
	xorps	xmm0, xmm0
	movss	DWORD PTR [esp], xmm0
	push	ecx
	movss	xmm0, DWORD PTR __real@3f800000
	movss	DWORD PTR [esp], xmm0
	push	ecx
	xorps	xmm0, xmm0
	movss	DWORD PTR [esp], xmm0
	call	DWORD PTR ?pglClearColor@@3P6GXMMMM@ZA	; pglClearColor

; 803  : 	else

	jmp	$LN7@R_Clear
$LN2@R_Clear:

; 804  : 	{
; 805  : 		if( r_clear->value == 2 )

	mov	eax, DWORD PTR ?r_clear@@3PAUcvar_s@@A	; r_clear
	movss	xmm0, DWORD PTR [eax+12]
	ucomiss	xmm0, DWORD PTR __real@40000000
	lahf
	test	ah, 68					; 00000044H
	jp	SHORT $LN4@R_Clear

; 806  : 			pglClearColor( 1, 1, 1, 1.0f );

	push	ecx
	movss	xmm0, DWORD PTR __real@3f800000
	movss	DWORD PTR [esp], xmm0
	push	ecx
	movss	xmm0, DWORD PTR __real@3f800000
	movss	DWORD PTR [esp], xmm0
	push	ecx
	movss	xmm0, DWORD PTR __real@3f800000
	movss	DWORD PTR [esp], xmm0
	push	ecx
	movss	xmm0, DWORD PTR __real@3f800000
	movss	DWORD PTR [esp], xmm0
	call	DWORD PTR ?pglClearColor@@3P6GXMMMM@ZA	; pglClearColor
	jmp	$LN7@R_Clear
$LN4@R_Clear:

; 807  : 		else if( r_clear->value == 3 ) // Clear the back buffer to random colors every frame. Helps spot open seams in geometry.

	mov	eax, DWORD PTR ?r_clear@@3PAUcvar_s@@A	; r_clear
	movss	xmm0, DWORD PTR [eax+12]
	ucomiss	xmm0, DWORD PTR __real@40400000
	lahf
	test	ah, 68					; 00000044H
	jp	SHORT $LN6@R_Clear

; 808  : 			pglClearColor( RANDOM_FLOAT( 0.0f, 1.0f ), RANDOM_FLOAT( 0.0f, 1.0f ), RANDOM_FLOAT( 0.0f, 1.0f ), 1.0f );

	push	ecx
	movss	xmm0, DWORD PTR __real@3f800000
	movss	DWORD PTR [esp], xmm0
	push	ecx
	movss	xmm0, DWORD PTR __real@3f800000
	movss	DWORD PTR [esp], xmm0
	push	ecx
	xorps	xmm0, xmm0
	movss	DWORD PTR [esp], xmm0
	call	DWORD PTR ?gEngfuncs@@3Ucl_enginefuncs_s@@A+268
	add	esp, 4
	fstp	DWORD PTR [esp]
	push	ecx
	movss	xmm0, DWORD PTR __real@3f800000
	movss	DWORD PTR [esp], xmm0
	push	ecx
	xorps	xmm0, xmm0
	movss	DWORD PTR [esp], xmm0
	call	DWORD PTR ?gEngfuncs@@3Ucl_enginefuncs_s@@A+268
	add	esp, 4
	fstp	DWORD PTR [esp]
	push	ecx
	movss	xmm0, DWORD PTR __real@3f800000
	movss	DWORD PTR [esp], xmm0
	push	ecx
	xorps	xmm0, xmm0
	movss	DWORD PTR [esp], xmm0
	call	DWORD PTR ?gEngfuncs@@3Ucl_enginefuncs_s@@A+268
	add	esp, 4
	fstp	DWORD PTR [esp]
	call	DWORD PTR ?pglClearColor@@3P6GXMMMM@ZA	; pglClearColor

; 809  : 		else

	jmp	SHORT $LN7@R_Clear
$LN6@R_Clear:

; 810  : 			pglClearColor( 0, 0, 0, 1.0f );

	push	ecx
	movss	xmm0, DWORD PTR __real@3f800000
	movss	DWORD PTR [esp], xmm0
	push	ecx
	xorps	xmm0, xmm0
	movss	DWORD PTR [esp], xmm0
	push	ecx
	xorps	xmm0, xmm0
	movss	DWORD PTR [esp], xmm0
	push	ecx
	xorps	xmm0, xmm0
	movss	DWORD PTR [esp], xmm0
	call	DWORD PTR ?pglClearColor@@3P6GXMMMM@ZA	; pglClearColor
$LN7@R_Clear:

; 811  : 	}
; 812  : 
; 813  : 	// force to clear screen to avoid ugly blur
; 814  : 	if( tr.fClearScreen && (r_clear->value == 0) )

	movzx	eax, BYTE PTR ?tr@@3Uref_globals_t@@A+2
	test	eax, eax
	je	SHORT $LN8@R_Clear
	mov	eax, DWORD PTR ?r_clear@@3PAUcvar_s@@A	; r_clear
	movss	xmm0, DWORD PTR [eax+12]
	ucomiss	xmm0, DWORD PTR __real@00000000
	lahf
	test	ah, 68					; 00000044H
	jp	SHORT $LN8@R_Clear

; 815  : 		bits |= GL_COLOR_BUFFER_BIT;

	mov	eax, DWORD PTR _bits$[ebp]
	or	eax, 16384				; 00004000H
	mov	DWORD PTR _bits$[ebp], eax
$LN8@R_Clear:

; 816  : #if 0
; 817  : 	if( glState.stencilEnabled )
; 818  : 		bits |= GL_STENCIL_BUFFER_BIT;
; 819  : #endif
; 820  : 	bits &= bitMask;

	mov	eax, DWORD PTR _bits$[ebp]
	and	eax, DWORD PTR _bitMask$[ebp]
	mov	DWORD PTR _bits$[ebp], eax

; 821  : 
; 822  : 	pglClear( bits );

	mov	eax, DWORD PTR _bits$[ebp]
	push	eax
	call	DWORD PTR ?pglClear@@3P6GXI@ZA		; pglClear

; 823  : 	pglDepthFunc( GL_LEQUAL );

	push	515					; 00000203H
	call	DWORD PTR ?pglDepthFunc@@3P6GXI@ZA	; pglDepthFunc

; 824  : 	GL_Cull( GL_FRONT );

	push	1028					; 00000404H
	call	?GL_Cull@@YAXI@Z			; GL_Cull
	add	esp, 4

; 825  : 
; 826  : 	// change ordering for overview
; 827  : 	if( FBitSet( RI->params, RP_OVERVIEW ))

	mov	eax, DWORD PTR ?RI@@3PAUref_instance_t@@A ; RI
	mov	ecx, DWORD PTR [eax]
	and	ecx, 512				; 00000200H
	je	SHORT $LN9@R_Clear

; 828  : 	{
; 829  : 		gldepthmin = 1.0f;

	movss	xmm0, DWORD PTR __real@3f800000
	movss	DWORD PTR ?gldepthmin@@3MA, xmm0

; 830  : 		gldepthmax = 0.0f;

	xorps	xmm0, xmm0
	movss	DWORD PTR ?gldepthmax@@3MA, xmm0

; 831  : 	}
; 832  : 	else

	jmp	SHORT $LN10@R_Clear
$LN9@R_Clear:

; 833  : 	{
; 834  : 		if( GL_Support( R_PARANOIA_EXT ))

	push	25					; 00000019H
	call	?GL_Support@@YA_NH@Z			; GL_Support
	add	esp, 4
	movzx	eax, al
	test	eax, eax
	je	SHORT $LN11@R_Clear

; 835  : 			gldepthmin = 0.0001f;

	movss	xmm0, DWORD PTR __real@38d1b717
	movss	DWORD PTR ?gldepthmin@@3MA, xmm0
	jmp	SHORT $LN12@R_Clear
$LN11@R_Clear:

; 836  : 		else gldepthmin = 0.0f;

	xorps	xmm0, xmm0
	movss	DWORD PTR ?gldepthmin@@3MA, xmm0
$LN12@R_Clear:

; 837  : 		gldepthmax = 1.0f;

	movss	xmm0, DWORD PTR __real@3f800000
	movss	DWORD PTR ?gldepthmax@@3MA, xmm0
$LN10@R_Clear:

; 838  : 	}
; 839  : 
; 840  : 	pglDepthRange( gldepthmin, gldepthmax );

	cvtss2sd xmm0, DWORD PTR ?gldepthmax@@3MA
	sub	esp, 8
	movsd	QWORD PTR [esp], xmm0
	cvtss2sd xmm0, DWORD PTR ?gldepthmin@@3MA
	sub	esp, 8
	movsd	QWORD PTR [esp], xmm0
	call	DWORD PTR ?pglDepthRange@@3P6GXNN@ZA	; pglDepthRange

; 841  : }

	pop	edi
	pop	esi
	pop	ebx
	mov	esp, ebp
	pop	ebp
	ret	0
?R_Clear@@YAXH@Z ENDP					; R_Clear
_TEXT	ENDS
; Function compile flags: /Odtp /ZI
; File c:\program files (x86)\windows kits\10\include\10.0.10240.0\ucrt\stdio.h
;	COMDAT ??$sprintf_s@$0CA@@@YAHAAY0CA@DPBDZZ
_TEXT	SEGMENT
__ArgList$ = -4						; size = 4
__Buffer$ = 8						; size = 4
__Format$ = 12						; size = 4
??$sprintf_s@$0CA@@@YAHAAY0CA@DPBDZZ PROC		; sprintf_s<32>, COMDAT

; 1850 :     )

	push	ebp
	mov	ebp, esp
	sub	esp, 68					; 00000044H
	push	ebx
	push	esi
	push	edi

; 1846 : __DEFINE_CPP_OVERLOAD_SECURE_FUNC_0_1_ARGLIST(

	call	??$__vcrt_va_start_verify_argument_type@PBD@@YAXXZ ; __vcrt_va_start_verify_argument_type<char const *>
	lea	eax, DWORD PTR __Format$[ebp+4]
	mov	DWORD PTR __ArgList$[ebp], eax
	mov	eax, DWORD PTR __ArgList$[ebp]
	push	eax
	mov	ecx, DWORD PTR __Format$[ebp]
	push	ecx
	push	32					; 00000020H
	mov	edx, DWORD PTR __Buffer$[ebp]
	push	edx
	call	_vsprintf_s
	add	esp, 16					; 00000010H
	pop	edi
	pop	esi
	pop	ebx
	mov	esp, ebp
	pop	ebp
	ret	0
??$sprintf_s@$0CA@@@YAHAAY0CA@DPBDZZ ENDP		; sprintf_s<32>
_TEXT	ENDS
; Function compile flags: /Odtp /ZI
; File d:\!diffusion 2020\source code 2022\client-server\client\render\r_main.cpp
;	COMDAT ?ScaleFOVByWidthRatio@@YAMMM@Z
_TEXT	SEGMENT
tv88 = -84						; size = 8
tv92 = -80						; size = 4
_retDegrees$ = -12					; size = 4
_t$ = -8						; size = 4
_halfAngleRadians$ = -4					; size = 4
_fovDegrees$ = 8					; size = 4
_ratio$ = 12						; size = 4
?ScaleFOVByWidthRatio@@YAMMM@Z PROC			; ScaleFOVByWidthRatio, COMDAT

; 365  : {

	push	ebp
	mov	ebp, esp
	sub	esp, 84					; 00000054H
	push	ebx
	push	esi
	push	edi

; 366  : 	float halfAngleRadians = fovDegrees * (0.5f * M_PI / 180.0f);

	cvtss2sd xmm0, DWORD PTR _fovDegrees$[ebp]
	mulsd	xmm0, QWORD PTR __real@3f81df46a2529d39
	cvtsd2ss xmm0, xmm0
	movss	DWORD PTR _halfAngleRadians$[ebp], xmm0

; 367  : 	float t = tan( halfAngleRadians );

	cvtss2sd xmm0, DWORD PTR _halfAngleRadians$[ebp]
	sub	esp, 8
	movsd	QWORD PTR [esp], xmm0
	call	_tan
	add	esp, 8
	fstp	DWORD PTR _t$[ebp]

; 368  : 	t *= ratio;

	movss	xmm0, DWORD PTR _t$[ebp]
	mulss	xmm0, DWORD PTR _ratio$[ebp]
	movss	DWORD PTR _t$[ebp], xmm0

; 369  : 	float retDegrees = (180.0f / M_PI) * atan( t );

	cvtss2sd xmm0, DWORD PTR _t$[ebp]
	sub	esp, 8
	movsd	QWORD PTR [esp], xmm0
	call	_atan
	add	esp, 8
	fstp	QWORD PTR tv88[ebp]
	movsd	xmm0, QWORD PTR tv88[ebp]
	mulsd	xmm0, QWORD PTR __real@404ca5dc1a63c1f8
	cvtsd2ss xmm0, xmm0
	movss	DWORD PTR _retDegrees$[ebp], xmm0

; 370  : 	return retDegrees * 2.0f;

	movss	xmm0, DWORD PTR _retDegrees$[ebp]
	mulss	xmm0, DWORD PTR __real@40000000
	movss	DWORD PTR tv92[ebp], xmm0
	fld	DWORD PTR tv92[ebp]

; 371  : }

	pop	edi
	pop	esi
	pop	ebx
	mov	esp, ebp
	pop	ebp
	ret	0
?ScaleFOVByWidthRatio@@YAMMM@Z ENDP			; ScaleFOVByWidthRatio
_TEXT	ENDS
; Function compile flags: /Odtp /ZI
; File d:\!diffusion 2020\source code 2022\client-server\client\render\r_main.cpp
;	COMDAT ?R_TransEntityCompare@@YAHPAPBUcl_entity_s@@0@Z
_TEXT	SEGMENT
$T1 = -184						; size = 12
$T2 = -172						; size = 12
$T3 = -160						; size = 12
$T4 = -148						; size = 12
_vecLen$5 = -72						; size = 12
_org$6 = -60						; size = 12
_vecLen$7 = -48						; size = 12
_org$8 = -36						; size = 12
_dist2$ = -24						; size = 4
_dist1$ = -20						; size = 4
_rendermode2$ = -16					; size = 4
_rendermode1$ = -12					; size = 4
_ent2$ = -8						; size = 4
_ent1$ = -4						; size = 4
_a$ = 8							; size = 4
_b$ = 12						; size = 4
?R_TransEntityCompare@@YAHPAPBUcl_entity_s@@0@Z PROC	; R_TransEntityCompare, COMDAT

; 277  : {

	push	ebp
	mov	ebp, esp
	sub	esp, 184				; 000000b8H
	push	ebx
	push	esi
	push	edi

; 278  : 	cl_entity_t *ent1 = (cl_entity_t *)*a;

	mov	eax, DWORD PTR _a$[ebp]
	mov	ecx, DWORD PTR [eax]
	mov	DWORD PTR _ent1$[ebp], ecx

; 279  : 	cl_entity_t *ent2 = (cl_entity_t *)*b;

	mov	eax, DWORD PTR _b$[ebp]
	mov	ecx, DWORD PTR [eax]
	mov	DWORD PTR _ent2$[ebp], ecx

; 280  : 	int rendermode1 = R_GetEntityRenderMode( ent1 );

	mov	eax, DWORD PTR _ent1$[ebp]
	push	eax
	call	?R_GetEntityRenderMode@@YAHPAUcl_entity_s@@@Z ; R_GetEntityRenderMode
	add	esp, 4
	mov	DWORD PTR _rendermode1$[ebp], eax

; 281  : 	int rendermode2 = R_GetEntityRenderMode( ent2 );

	mov	eax, DWORD PTR _ent2$[ebp]
	push	eax
	call	?R_GetEntityRenderMode@@YAHPAUcl_entity_s@@@Z ; R_GetEntityRenderMode
	add	esp, 4
	mov	DWORD PTR _rendermode2$[ebp], eax

; 282  : 	float dist1, dist2;
; 283  : 
; 284  : 	// sort by distance
; 285  : 	if( ent1->model->type != mod_brush || rendermode1 != kRenderTransAlpha )

	mov	eax, DWORD PTR _ent1$[ebp]
	mov	ecx, DWORD PTR [eax+2964]
	cmp	DWORD PTR [ecx+68], 0
	jne	SHORT $LN4@R_TransEnt
	cmp	DWORD PTR _rendermode1$[ebp], 4
	je	$LN2@R_TransEnt
$LN4@R_TransEnt:

; 286  : 	{
; 287  : 		Vector org = ent1->origin + ((ent1->model->mins + ent1->model->maxs) * 0.5f);

	push	ecx
	movss	xmm0, DWORD PTR __real@3f000000
	movss	DWORD PTR [esp], xmm0
	lea	eax, DWORD PTR $T3[ebp]
	push	eax
	mov	ecx, DWORD PTR _ent1$[ebp]
	mov	edx, DWORD PTR [ecx+2964]
	add	edx, 96					; 00000060H
	push	edx
	lea	eax, DWORD PTR $T4[ebp]
	push	eax
	mov	ecx, DWORD PTR _ent1$[ebp]
	mov	ecx, DWORD PTR [ecx+2964]
	add	ecx, 84					; 00000054H
	call	??HVector@@QBE?AV0@ABV0@@Z		; Vector::operator+
	mov	ecx, eax
	call	??DVector@@QBE?AV0@M@Z			; Vector::operator*
	push	eax
	lea	edx, DWORD PTR _org$8[ebp]
	push	edx
	mov	ecx, DWORD PTR _ent1$[ebp]
	add	ecx, 2888				; 00000b48H
	call	??HVector@@QBE?AV0@ABV0@@Z		; Vector::operator+

; 288  : 		Vector vecLen = RI->vieworg - org;

	lea	eax, DWORD PTR _org$8[ebp]
	push	eax
	lea	ecx, DWORD PTR _vecLen$7[ebp]
	push	ecx
	mov	ecx, DWORD PTR ?RI@@3PAUref_instance_t@@A ; RI
	add	ecx, 204				; 000000ccH
	call	??GVector@@QBE?AV0@ABV0@@Z		; Vector::operator-

; 289  : 		dist1 = DotProduct( vecLen, vecLen );

	lea	eax, DWORD PTR _vecLen$7[ebp]
	push	eax
	lea	ecx, DWORD PTR _vecLen$7[ebp]
	push	ecx
	call	?DotProduct@@YAMABVVector@@0@Z		; DotProduct
	add	esp, 8
	fstp	DWORD PTR _dist1$[ebp]
	jmp	SHORT $LN3@R_TransEnt
$LN2@R_TransEnt:

; 290  : 	}
; 291  : 	else dist1 = 1000000000;

	movss	xmm0, DWORD PTR __real@4e6e6b28
	movss	DWORD PTR _dist1$[ebp], xmm0
$LN3@R_TransEnt:

; 292  : 
; 293  : 	if( ent2->model->type != mod_brush || rendermode2 != kRenderTransAlpha )

	mov	eax, DWORD PTR _ent2$[ebp]
	mov	ecx, DWORD PTR [eax+2964]
	cmp	DWORD PTR [ecx+68], 0
	jne	SHORT $LN7@R_TransEnt
	cmp	DWORD PTR _rendermode2$[ebp], 4
	je	$LN5@R_TransEnt
$LN7@R_TransEnt:

; 294  : 	{
; 295  : 		Vector org = ent2->origin + ((ent2->model->mins + ent2->model->maxs) * 0.5f);

	push	ecx
	movss	xmm0, DWORD PTR __real@3f000000
	movss	DWORD PTR [esp], xmm0
	lea	eax, DWORD PTR $T1[ebp]
	push	eax
	mov	ecx, DWORD PTR _ent2$[ebp]
	mov	edx, DWORD PTR [ecx+2964]
	add	edx, 96					; 00000060H
	push	edx
	lea	eax, DWORD PTR $T2[ebp]
	push	eax
	mov	ecx, DWORD PTR _ent2$[ebp]
	mov	ecx, DWORD PTR [ecx+2964]
	add	ecx, 84					; 00000054H
	call	??HVector@@QBE?AV0@ABV0@@Z		; Vector::operator+
	mov	ecx, eax
	call	??DVector@@QBE?AV0@M@Z			; Vector::operator*
	push	eax
	lea	edx, DWORD PTR _org$6[ebp]
	push	edx
	mov	ecx, DWORD PTR _ent2$[ebp]
	add	ecx, 2888				; 00000b48H
	call	??HVector@@QBE?AV0@ABV0@@Z		; Vector::operator+

; 296  : 		Vector vecLen = RI->vieworg - org;

	lea	eax, DWORD PTR _org$6[ebp]
	push	eax
	lea	ecx, DWORD PTR _vecLen$5[ebp]
	push	ecx
	mov	ecx, DWORD PTR ?RI@@3PAUref_instance_t@@A ; RI
	add	ecx, 204				; 000000ccH
	call	??GVector@@QBE?AV0@ABV0@@Z		; Vector::operator-

; 297  : 		dist2 = DotProduct( vecLen, vecLen );

	lea	eax, DWORD PTR _vecLen$5[ebp]
	push	eax
	lea	ecx, DWORD PTR _vecLen$5[ebp]
	push	ecx
	call	?DotProduct@@YAMABVVector@@0@Z		; DotProduct
	add	esp, 8
	fstp	DWORD PTR _dist2$[ebp]
	jmp	SHORT $LN6@R_TransEnt
$LN5@R_TransEnt:

; 298  : 	}
; 299  : 	else dist2 = 1000000000;

	movss	xmm0, DWORD PTR __real@4e6e6b28
	movss	DWORD PTR _dist2$[ebp], xmm0
$LN6@R_TransEnt:

; 300  : 
; 301  : 	if( dist1 > dist2 )

	movss	xmm0, DWORD PTR _dist1$[ebp]
	comiss	xmm0, DWORD PTR _dist2$[ebp]
	jbe	SHORT $LN8@R_TransEnt

; 302  : 		return -1;

	or	eax, -1
	jmp	SHORT $LN1@R_TransEnt
$LN8@R_TransEnt:

; 303  : 	if( dist1 < dist2 )

	movss	xmm0, DWORD PTR _dist2$[ebp]
	comiss	xmm0, DWORD PTR _dist1$[ebp]
	jbe	SHORT $LN9@R_TransEnt

; 304  : 		return 1;

	mov	eax, 1
	jmp	SHORT $LN1@R_TransEnt
$LN9@R_TransEnt:

; 305  : 
; 306  : 	// then sort by rendermode
; 307  : 	if( R_RankForRenderMode( rendermode1 ) > R_RankForRenderMode( rendermode2 ))

	mov	eax, DWORD PTR _rendermode1$[ebp]
	push	eax
	call	?R_RankForRenderMode@@YAHH@Z		; R_RankForRenderMode
	add	esp, 4
	mov	esi, eax
	mov	ecx, DWORD PTR _rendermode2$[ebp]
	push	ecx
	call	?R_RankForRenderMode@@YAHH@Z		; R_RankForRenderMode
	add	esp, 4
	cmp	esi, eax
	jle	SHORT $LN10@R_TransEnt

; 308  : 		return 1;

	mov	eax, 1
	jmp	SHORT $LN1@R_TransEnt
$LN10@R_TransEnt:

; 309  : 	if( R_RankForRenderMode( rendermode1 ) < R_RankForRenderMode( rendermode2 ))

	mov	eax, DWORD PTR _rendermode1$[ebp]
	push	eax
	call	?R_RankForRenderMode@@YAHH@Z		; R_RankForRenderMode
	add	esp, 4
	mov	esi, eax
	mov	ecx, DWORD PTR _rendermode2$[ebp]
	push	ecx
	call	?R_RankForRenderMode@@YAHH@Z		; R_RankForRenderMode
	add	esp, 4
	cmp	esi, eax
	jge	SHORT $LN11@R_TransEnt

; 310  : 		return -1;

	or	eax, -1
	jmp	SHORT $LN1@R_TransEnt
$LN11@R_TransEnt:

; 311  : 
; 312  : 	return 0;

	xor	eax, eax
$LN1@R_TransEnt:

; 313  : }

	pop	edi
	pop	esi
	pop	ebx
	mov	esp, ebp
	pop	ebp
	ret	0
?R_TransEntityCompare@@YAHPAPBUcl_entity_s@@0@Z ENDP	; R_TransEntityCompare
_TEXT	ENDS
; Function compile flags: /Odtp /ZI
; File d:\!diffusion 2020\source code 2022\client-server\client\render\r_main.cpp
;	COMDAT ?R_OpaqueEntity@@YAHPAUcl_entity_s@@@Z
_TEXT	SEGMENT
_rendermode$ = -4					; size = 4
_ent$ = 8						; size = 4
?R_OpaqueEntity@@YAHPAUcl_entity_s@@@Z PROC		; R_OpaqueEntity, COMDAT

; 261  : {

	push	ebp
	mov	ebp, esp
	sub	esp, 68					; 00000044H
	push	ebx
	push	esi
	push	edi

; 262  : 	int rendermode = R_GetEntityRenderMode( ent );

	mov	eax, DWORD PTR _ent$[ebp]
	push	eax
	call	?R_GetEntityRenderMode@@YAHPAUcl_entity_s@@@Z ; R_GetEntityRenderMode
	add	esp, 4
	mov	DWORD PTR _rendermode$[ebp], eax

; 263  : 
; 264  : 	if( R_ModelOpaque( rendermode, ent->curstate.renderamt ))

	cmp	DWORD PTR _rendermode$[ebp], 0
	je	SHORT $LN3@R_OpaqueEn
	cmp	DWORD PTR _rendermode$[ebp], 4
	jne	SHORT $LN2@R_OpaqueEn
$LN3@R_OpaqueEn:

; 265  : 		return true;

	mov	eax, 1
	jmp	SHORT $LN1@R_OpaqueEn
$LN2@R_OpaqueEn:

; 266  : 	return false;

	xor	eax, eax
$LN1@R_OpaqueEn:

; 267  : }

	pop	edi
	pop	esi
	pop	ebx
	mov	esp, ebp
	pop	ebp
	ret	0
?R_OpaqueEntity@@YAHPAUcl_entity_s@@@Z ENDP		; R_OpaqueEntity
_TEXT	ENDS
; Function compile flags: /Odtp /ZI
; File d:\!diffusion 2020\source code 2022\client-server\client\render\r_main.cpp
;	COMDAT ?R_RankForRenderMode@@YAHH@Z
_TEXT	SEGMENT
tv64 = -68						; size = 4
_rendermode$ = 8					; size = 4
?R_RankForRenderMode@@YAHH@Z PROC			; R_RankForRenderMode, COMDAT

; 220  : {

	push	ebp
	mov	ebp, esp
	sub	esp, 68					; 00000044H
	push	ebx
	push	esi
	push	edi

; 221  : 	switch( rendermode )

	mov	eax, DWORD PTR _rendermode$[ebp]
	mov	DWORD PTR tv64[ebp], eax
	mov	ecx, DWORD PTR tv64[ebp]
	sub	ecx, 2
	mov	DWORD PTR tv64[ebp], ecx
	cmp	DWORD PTR tv64[ebp], 5
	ja	SHORT $LN2@R_RankForR
	mov	edx, DWORD PTR tv64[ebp]
	jmp	DWORD PTR $LN8@R_RankForR[edx*4]
$LN4@R_RankForR:

; 222  : 	{
; 223  : 	case kRenderTransTexture:
; 224  : 	case kRenderFade:
; 225  : 		return 1;	// draw second

	mov	eax, 1
	jmp	SHORT $LN1@R_RankForR
$LN5@R_RankForR:

; 226  : 	case kRenderTransAdd:
; 227  : 		return 2;	// draw third

	mov	eax, 2
	jmp	SHORT $LN1@R_RankForR
$LN6@R_RankForR:

; 228  : 	case kRenderGlow:
; 229  : 	case kRenderConstantGlow:
; 230  : 		return 3;	// must be last!

	mov	eax, 3
	jmp	SHORT $LN1@R_RankForR
$LN2@R_RankForR:

; 231  : 	}
; 232  : 	return 0;

	xor	eax, eax
$LN1@R_RankForR:

; 233  : }

	pop	edi
	pop	esi
	pop	ebx
	mov	esp, ebp
	pop	ebp
	ret	0
	npad	2
$LN8@R_RankForR:
	DD	$LN4@R_RankForR
	DD	$LN6@R_RankForR
	DD	$LN2@R_RankForR
	DD	$LN5@R_RankForR
	DD	$LN4@R_RankForR
	DD	$LN6@R_RankForR
?R_RankForRenderMode@@YAHH@Z ENDP			; R_RankForRenderMode
_TEXT	ENDS
; Function compile flags: /Odtp /ZI
; File d:\!diffusion 2020\source code 2022\client-server\client\render\r_main.cpp
;	COMDAT ?R_DrawCubeMaps@@YAXXZ
_TEXT	SEGMENT
tv67 = -73						; size = 1
_i$1 = -8						; size = 4
_cm$ = -4						; size = 4
?R_DrawCubeMaps@@YAXXZ PROC				; R_DrawCubeMaps, COMDAT

; 107  : {

	push	ebp
	mov	ebp, esp
	sub	esp, 76					; 0000004cH
	push	ebx
	push	esi
	push	edi

; 108  : 	mcubemap_t* cm;
; 109  : 
; 110  : 	if (!CVAR_TO_BOOL(r_show_cubemaps))

	cmp	DWORD PTR ?r_show_cubemaps@@3PAUcvar_s@@A, 0 ; r_show_cubemaps
	je	SHORT $LN7@R_DrawCube
	mov	eax, DWORD PTR ?r_show_cubemaps@@3PAUcvar_s@@A ; r_show_cubemaps
	movss	xmm0, DWORD PTR [eax+12]
	ucomiss	xmm0, DWORD PTR __real@00000000
	lahf
	test	ah, 68					; 00000044H
	jnp	SHORT $LN7@R_DrawCube
	mov	BYTE PTR tv67[ebp], 1
	jmp	SHORT $LN8@R_DrawCube
$LN7@R_DrawCube:
	mov	BYTE PTR tv67[ebp], 0
$LN8@R_DrawCube:
	movzx	ecx, BYTE PTR tv67[ebp]
	test	ecx, ecx
	jne	SHORT $LN5@R_DrawCube

; 111  : 		return;

	jmp	$LN1@R_DrawCube
$LN5@R_DrawCube:

; 112  : 
; 113  : 	GL_Blend(GL_FALSE);

	push	0
	call	?GL_Blend@@YAXH@Z			; GL_Blend
	add	esp, 4

; 114  : 	GL_Bind(GL_TEXTURE0, tr.whiteTexture);

	mov	eax, DWORD PTR ?tr@@3Uref_globals_t@@A+32
	push	eax
	push	0
	call	DWORD PTR ?gRenderfuncs@@3Urender_api_s@@A+132
	add	esp, 8

; 115  : 	pglTexEnvf(GL_TEXTURE_ENV, GL_TEXTURE_ENV_MODE, GL_MODULATE);

	push	ecx
	movss	xmm0, DWORD PTR __real@46040000
	movss	DWORD PTR [esp], xmm0
	push	8704					; 00002200H
	push	8960					; 00002300H
	call	DWORD PTR ?pglTexEnvf@@3P6GXIIM@ZA	; pglTexEnvf

; 116  : 
; 117  : 	// draw the all cubemaps
; 118  : 	for (int i = 0; i < world->num_cubemaps; i++)

	mov	DWORD PTR _i$1[ebp], 0
	jmp	SHORT $LN4@R_DrawCube
$LN2@R_DrawCube:
	mov	eax, DWORD PTR _i$1[ebp]
	add	eax, 1
	mov	DWORD PTR _i$1[ebp], eax
$LN4@R_DrawCube:
	mov	eax, DWORD PTR ?world@@3PAUgl_world_t@@A ; world
	mov	ecx, DWORD PTR _i$1[ebp]
	cmp	ecx, DWORD PTR [eax+114976]
	jge	SHORT $LN3@R_DrawCube

; 119  : 	{
; 120  : 		cm = &world->cubemaps[i];

	imul	eax, DWORD PTR _i$1[ebp], 112
	mov	ecx, DWORD PTR ?world@@3PAUgl_world_t@@A ; world
	lea	edx, DWORD PTR [ecx+eax+176]
	mov	DWORD PTR _cm$[ebp], edx

; 121  : 		R_RenderCubemap(cm);

	mov	eax, DWORD PTR _cm$[ebp]
	push	eax
	call	?R_RenderCubemap@@YAXPAUmcubemap_s@@@Z	; R_RenderCubemap
	add	esp, 4

; 122  : 	}

	jmp	SHORT $LN2@R_DrawCube
$LN3@R_DrawCube:

; 123  : 
; 124  : 	pglColor3f(1.0f, 1.0f, 1.0f);

	push	ecx
	movss	xmm0, DWORD PTR __real@3f800000
	movss	DWORD PTR [esp], xmm0
	push	ecx
	movss	xmm0, DWORD PTR __real@3f800000
	movss	DWORD PTR [esp], xmm0
	push	ecx
	movss	xmm0, DWORD PTR __real@3f800000
	movss	DWORD PTR [esp], xmm0
	call	DWORD PTR ?pglColor3f@@3P6GXMMM@ZA	; pglColor3f
$LN1@R_DrawCube:

; 125  : }

	pop	edi
	pop	esi
	pop	ebx
	mov	esp, ebp
	pop	ebp
	ret	0
?R_DrawCubeMaps@@YAXXZ ENDP				; R_DrawCubeMaps
_TEXT	ENDS
; Function compile flags: /Odtp /ZI
; File d:\!diffusion 2020\source code 2022\client-server\client\render\r_main.cpp
;	COMDAT ?R_RenderCubemap@@YAXPAUmcubemap_s@@@Z
_TEXT	SEGMENT
_color$ = -8						; size = 3
_rad$ = -4						; size = 4
_cube$ = 8						; size = 4
?R_RenderCubemap@@YAXPAUmcubemap_s@@@Z PROC		; R_RenderCubemap, COMDAT

; 85   : {

	push	ebp
	mov	ebp, esp
	sub	esp, 96					; 00000060H
	push	ebx
	push	esi
	push	edi

; 86   : 	float	rad = (float)cube->size * 0.1f;

	mov	eax, DWORD PTR _cube$[ebp]
	movsx	ecx, WORD PTR [eax+108]
	cvtsi2ss xmm0, ecx
	mulss	xmm0, DWORD PTR __real@3dcccccd
	movss	DWORD PTR _rad$[ebp], xmm0

; 87   : 	byte	color[3] = { 127, 127, 127 };

	mov	BYTE PTR _color$[ebp], 127		; 0000007fH
	mov	BYTE PTR _color$[ebp+1], 127		; 0000007fH
	mov	BYTE PTR _color$[ebp+2], 127		; 0000007fH

; 88   : 
; 89   : 	pglBegin(GL_QUADS);

	push	7
	call	DWORD PTR ?pglBegin@@3P6GXI@ZA		; pglBegin

; 90   : 
; 91   : 	CubeFace(cube->origin, 4, 6, 2, 0, rad, color);

	lea	eax, DWORD PTR _color$[ebp]
	push	eax
	push	ecx
	movss	xmm0, DWORD PTR _rad$[ebp]
	movss	DWORD PTR [esp], xmm0
	push	0
	push	2
	push	6
	push	4
	mov	ecx, DWORD PTR _cube$[ebp]
	add	ecx, 96					; 00000060H
	sub	esp, 12					; 0000000cH
	mov	edx, esp
	push	ecx
	mov	ecx, edx
	call	??0Vector@@QAE@ABV0@@Z			; Vector::Vector
	call	?CubeFace@@YAXVVector@@HHHHMPBE@Z	; CubeFace
	add	esp, 36					; 00000024H

; 92   : 	CubeFace(cube->origin, 7, 5, 1, 3, rad, color);

	lea	eax, DWORD PTR _color$[ebp]
	push	eax
	push	ecx
	movss	xmm0, DWORD PTR _rad$[ebp]
	movss	DWORD PTR [esp], xmm0
	push	3
	push	1
	push	5
	push	7
	mov	ecx, DWORD PTR _cube$[ebp]
	add	ecx, 96					; 00000060H
	sub	esp, 12					; 0000000cH
	mov	edx, esp
	push	ecx
	mov	ecx, edx
	call	??0Vector@@QAE@ABV0@@Z			; Vector::Vector
	call	?CubeFace@@YAXVVector@@HHHHMPBE@Z	; CubeFace
	add	esp, 36					; 00000024H

; 93   : 	CubeFace(cube->origin, 0, 1, 5, 4, rad, color);

	lea	eax, DWORD PTR _color$[ebp]
	push	eax
	push	ecx
	movss	xmm0, DWORD PTR _rad$[ebp]
	movss	DWORD PTR [esp], xmm0
	push	4
	push	5
	push	1
	push	0
	mov	ecx, DWORD PTR _cube$[ebp]
	add	ecx, 96					; 00000060H
	sub	esp, 12					; 0000000cH
	mov	edx, esp
	push	ecx
	mov	ecx, edx
	call	??0Vector@@QAE@ABV0@@Z			; Vector::Vector
	call	?CubeFace@@YAXVVector@@HHHHMPBE@Z	; CubeFace
	add	esp, 36					; 00000024H

; 94   : 	CubeFace(cube->origin, 3, 2, 6, 7, rad, color);

	lea	eax, DWORD PTR _color$[ebp]
	push	eax
	push	ecx
	movss	xmm0, DWORD PTR _rad$[ebp]
	movss	DWORD PTR [esp], xmm0
	push	7
	push	6
	push	2
	push	3
	mov	ecx, DWORD PTR _cube$[ebp]
	add	ecx, 96					; 00000060H
	sub	esp, 12					; 0000000cH
	mov	edx, esp
	push	ecx
	mov	ecx, edx
	call	??0Vector@@QAE@ABV0@@Z			; Vector::Vector
	call	?CubeFace@@YAXVVector@@HHHHMPBE@Z	; CubeFace
	add	esp, 36					; 00000024H

; 95   : 	CubeFace(cube->origin, 2, 3, 1, 0, rad, color);

	lea	eax, DWORD PTR _color$[ebp]
	push	eax
	push	ecx
	movss	xmm0, DWORD PTR _rad$[ebp]
	movss	DWORD PTR [esp], xmm0
	push	0
	push	1
	push	3
	push	2
	mov	ecx, DWORD PTR _cube$[ebp]
	add	ecx, 96					; 00000060H
	sub	esp, 12					; 0000000cH
	mov	edx, esp
	push	ecx
	mov	ecx, edx
	call	??0Vector@@QAE@ABV0@@Z			; Vector::Vector
	call	?CubeFace@@YAXVVector@@HHHHMPBE@Z	; CubeFace
	add	esp, 36					; 00000024H

; 96   : 	CubeFace(cube->origin, 4, 5, 7, 6, rad, color);

	lea	eax, DWORD PTR _color$[ebp]
	push	eax
	push	ecx
	movss	xmm0, DWORD PTR _rad$[ebp]
	movss	DWORD PTR [esp], xmm0
	push	6
	push	7
	push	5
	push	4
	mov	ecx, DWORD PTR _cube$[ebp]
	add	ecx, 96					; 00000060H
	sub	esp, 12					; 0000000cH
	mov	edx, esp
	push	ecx
	mov	ecx, edx
	call	??0Vector@@QAE@ABV0@@Z			; Vector::Vector
	call	?CubeFace@@YAXVVector@@HHHHMPBE@Z	; CubeFace
	add	esp, 36					; 00000024H

; 97   : 
; 98   : 	pglEnd();

	call	DWORD PTR ?pglEnd@@3P6GXXZA		; pglEnd

; 99   : }

	pop	edi
	pop	esi
	pop	ebx
	mov	esp, ebp
	pop	ebp
	ret	0
?R_RenderCubemap@@YAXPAUmcubemap_s@@@Z ENDP		; R_RenderCubemap
_TEXT	ENDS
; Function compile flags: /Odtp /ZI
; File d:\!diffusion 2020\source code 2022\client-server\client\render\r_main.cpp
;	COMDAT ?CubeFace@@YAXVVector@@HHHHMPBE@Z
_TEXT	SEGMENT
tv152 = -116						; size = 4
tv142 = -116						; size = 4
tv132 = -116						; size = 4
_col$ = -32						; size = 12
_unclamped$ = -20					; size = 12
_scale$ = -8						; size = 4
__$ArrayPad$ = -4					; size = 4
_org$ = 8						; size = 12
_v0$ = 20						; size = 4
_v1$ = 24						; size = 4
_v2$ = 28						; size = 4
_v3$ = 32						; size = 4
_size$ = 36						; size = 4
_color$ = 40						; size = 4
?CubeFace@@YAXVVector@@HHHHMPBE@Z PROC			; CubeFace, COMDAT

; 63   : {

	push	ebp
	mov	ebp, esp
	sub	esp, 116				; 00000074H
	mov	eax, DWORD PTR ___security_cookie
	xor	eax, ebp
	mov	DWORD PTR __$ArrayPad$[ebp], eax
	push	ebx
	push	esi
	push	edi

; 64   : 	uint scale = tr.lightstyles[0];

	mov	eax, 4
	imul	ecx, eax, 0
	movss	xmm0, DWORD PTR ?tr@@3Uref_globals_t@@A[ecx+531440]
	call	__ftoui3
	mov	DWORD PTR _scale$[ebp], eax

; 65   : 	uint unclamped[3];
; 66   : 	int col[3];
; 67   : 
; 68   : 	unclamped[0] = TEXTURE_TO_TEXGAMMA(color[0]) * scale;

	mov	eax, 1
	imul	ecx, eax, 0
	mov	edx, DWORD PTR _color$[ebp]
	movzx	eax, BYTE PTR [edx+ecx]
	push	eax
	call	DWORD PTR ?gRenderfuncs@@3Urender_api_s@@A+24
	add	esp, 4
	movzx	ecx, al
	imul	ecx, DWORD PTR _scale$[ebp]
	mov	edx, 4
	imul	eax, edx, 0
	mov	DWORD PTR _unclamped$[ebp+eax], ecx

; 69   : 	unclamped[1] = TEXTURE_TO_TEXGAMMA(color[1]) * scale;

	mov	eax, 1
	shl	eax, 0
	mov	ecx, DWORD PTR _color$[ebp]
	movzx	edx, BYTE PTR [ecx+eax]
	push	edx
	call	DWORD PTR ?gRenderfuncs@@3Urender_api_s@@A+24
	add	esp, 4
	movzx	eax, al
	imul	eax, DWORD PTR _scale$[ebp]
	mov	ecx, 4
	shl	ecx, 0
	mov	DWORD PTR _unclamped$[ebp+ecx], eax

; 70   : 	unclamped[2] = TEXTURE_TO_TEXGAMMA(color[2]) * scale;

	mov	eax, 1
	shl	eax, 1
	mov	ecx, DWORD PTR _color$[ebp]
	movzx	edx, BYTE PTR [ecx+eax]
	push	edx
	call	DWORD PTR ?gRenderfuncs@@3Urender_api_s@@A+24
	add	esp, 4
	movzx	eax, al
	imul	eax, DWORD PTR _scale$[ebp]
	mov	ecx, 4
	shl	ecx, 1
	mov	DWORD PTR _unclamped$[ebp+ecx], eax

; 71   : 
; 72   : 	col[0] = min((unclamped[0] >> 7), 255);

	mov	eax, 4
	imul	ecx, eax, 0
	mov	edx, DWORD PTR _unclamped$[ebp+ecx]
	shr	edx, 7
	cmp	edx, 255				; 000000ffH
	jae	SHORT $LN3@CubeFace
	mov	eax, 4
	imul	ecx, eax, 0
	mov	edx, DWORD PTR _unclamped$[ebp+ecx]
	shr	edx, 7
	mov	DWORD PTR tv132[ebp], edx
	jmp	SHORT $LN4@CubeFace
$LN3@CubeFace:
	mov	DWORD PTR tv132[ebp], 255		; 000000ffH
$LN4@CubeFace:
	mov	eax, 4
	imul	ecx, eax, 0
	mov	edx, DWORD PTR tv132[ebp]
	mov	DWORD PTR _col$[ebp+ecx], edx

; 73   : 	col[1] = min((unclamped[1] >> 7), 255);

	mov	eax, 4
	shl	eax, 0
	mov	ecx, DWORD PTR _unclamped$[ebp+eax]
	shr	ecx, 7
	cmp	ecx, 255				; 000000ffH
	jae	SHORT $LN5@CubeFace
	mov	edx, 4
	shl	edx, 0
	mov	eax, DWORD PTR _unclamped$[ebp+edx]
	shr	eax, 7
	mov	DWORD PTR tv142[ebp], eax
	jmp	SHORT $LN6@CubeFace
$LN5@CubeFace:
	mov	DWORD PTR tv142[ebp], 255		; 000000ffH
$LN6@CubeFace:
	mov	ecx, 4
	shl	ecx, 0
	mov	edx, DWORD PTR tv142[ebp]
	mov	DWORD PTR _col$[ebp+ecx], edx

; 74   : 	col[2] = min((unclamped[2] >> 7), 255);

	mov	eax, 4
	shl	eax, 1
	mov	ecx, DWORD PTR _unclamped$[ebp+eax]
	shr	ecx, 7
	cmp	ecx, 255				; 000000ffH
	jae	SHORT $LN7@CubeFace
	mov	edx, 4
	shl	edx, 1
	mov	eax, DWORD PTR _unclamped$[ebp+edx]
	shr	eax, 7
	mov	DWORD PTR tv152[ebp], eax
	jmp	SHORT $LN8@CubeFace
$LN7@CubeFace:
	mov	DWORD PTR tv152[ebp], 255		; 000000ffH
$LN8@CubeFace:
	mov	ecx, 4
	shl	ecx, 1
	mov	edx, DWORD PTR tv152[ebp]
	mov	DWORD PTR _col$[ebp+ecx], edx

; 75   : 
; 76   : 	//	pglColor3ub( col[0], col[1], col[2] );
; 77   : 	pglColor3ub(color[0], color[1], color[2]);

	mov	eax, 1
	shl	eax, 1
	mov	ecx, DWORD PTR _color$[ebp]
	movzx	edx, BYTE PTR [ecx+eax]
	push	edx
	mov	eax, 1
	shl	eax, 0
	mov	ecx, DWORD PTR _color$[ebp]
	movzx	edx, BYTE PTR [ecx+eax]
	push	edx
	mov	eax, 1
	imul	ecx, eax, 0
	mov	edx, DWORD PTR _color$[ebp]
	movzx	eax, BYTE PTR [edx+ecx]
	push	eax
	call	DWORD PTR ?pglColor3ub@@3P6GXEEE@ZA	; pglColor3ub

; 78   : 	pglVertex3fv(CubeSide(org, size, v0));

	mov	eax, DWORD PTR _v0$[ebp]
	push	eax
	push	ecx
	movss	xmm0, DWORD PTR _size$[ebp]
	movss	DWORD PTR [esp], xmm0
	sub	esp, 12					; 0000000cH
	mov	ecx, esp
	lea	edx, DWORD PTR _org$[ebp]
	push	edx
	call	??0Vector@@QAE@ABV0@@Z			; Vector::Vector
	call	?CubeSide@@YAPAMVVector@@MH@Z		; CubeSide
	add	esp, 20					; 00000014H
	push	eax
	call	DWORD PTR ?pglVertex3fv@@3P6GXPBM@ZA	; pglVertex3fv

; 79   : 	pglVertex3fv(CubeSide(org, size, v1));

	mov	eax, DWORD PTR _v1$[ebp]
	push	eax
	push	ecx
	movss	xmm0, DWORD PTR _size$[ebp]
	movss	DWORD PTR [esp], xmm0
	sub	esp, 12					; 0000000cH
	mov	ecx, esp
	lea	edx, DWORD PTR _org$[ebp]
	push	edx
	call	??0Vector@@QAE@ABV0@@Z			; Vector::Vector
	call	?CubeSide@@YAPAMVVector@@MH@Z		; CubeSide
	add	esp, 20					; 00000014H
	push	eax
	call	DWORD PTR ?pglVertex3fv@@3P6GXPBM@ZA	; pglVertex3fv

; 80   : 	pglVertex3fv(CubeSide(org, size, v2));

	mov	eax, DWORD PTR _v2$[ebp]
	push	eax
	push	ecx
	movss	xmm0, DWORD PTR _size$[ebp]
	movss	DWORD PTR [esp], xmm0
	sub	esp, 12					; 0000000cH
	mov	ecx, esp
	lea	edx, DWORD PTR _org$[ebp]
	push	edx
	call	??0Vector@@QAE@ABV0@@Z			; Vector::Vector
	call	?CubeSide@@YAPAMVVector@@MH@Z		; CubeSide
	add	esp, 20					; 00000014H
	push	eax
	call	DWORD PTR ?pglVertex3fv@@3P6GXPBM@ZA	; pglVertex3fv

; 81   : 	pglVertex3fv(CubeSide(org, size, v3));

	mov	eax, DWORD PTR _v3$[ebp]
	push	eax
	push	ecx
	movss	xmm0, DWORD PTR _size$[ebp]
	movss	DWORD PTR [esp], xmm0
	sub	esp, 12					; 0000000cH
	mov	ecx, esp
	lea	edx, DWORD PTR _org$[ebp]
	push	edx
	call	??0Vector@@QAE@ABV0@@Z			; Vector::Vector
	call	?CubeSide@@YAPAMVVector@@MH@Z		; CubeSide
	add	esp, 20					; 00000014H
	push	eax
	call	DWORD PTR ?pglVertex3fv@@3P6GXPBM@ZA	; pglVertex3fv

; 82   : }

	pop	edi
	pop	esi
	pop	ebx
	mov	ecx, DWORD PTR __$ArrayPad$[ebp]
	xor	ecx, ebp
	call	@__security_check_cookie@4
	mov	esp, ebp
	pop	ebp
	ret	0
?CubeFace@@YAXVVector@@HHHHMPBE@Z ENDP			; CubeFace
_TEXT	ENDS
; Function compile flags: /Odtp /ZI
; File d:\!diffusion 2020\source code 2022\client-server\client\render\r_main.cpp
;	COMDAT ?CubeSide@@YAPAMVVector@@MH@Z
_TEXT	SEGMENT
tv158 = -84						; size = 4
tv148 = -84						; size = 4
tv138 = -84						; size = 4
tv157 = -80						; size = 4
tv147 = -80						; size = 4
tv137 = -80						; size = 4
tv129 = -80						; size = 4
__$EHRec$ = -12						; size = 12
_pos$ = 8						; size = 12
_size$ = 20						; size = 4
_vert$ = 24						; size = 4
?CubeSide@@YAPAMVVector@@MH@Z PROC			; CubeSide, COMDAT

; 51   : {

	push	ebp
	mov	ebp, esp
	push	-1
	push	__ehhandler$?CubeSide@@YAPAMVVector@@MH@Z
	mov	eax, DWORD PTR fs:0
	push	eax
	sub	esp, 72					; 00000048H
	push	ebx
	push	esi
	push	edi
	mov	eax, DWORD PTR ___security_cookie
	xor	eax, ebp
	push	eax
	lea	eax, DWORD PTR __$EHRec$[ebp]
	mov	DWORD PTR fs:0, eax

; 52   : 	static vec3_t	side;

	mov	eax, DWORD PTR __tls_index
	mov	ecx, DWORD PTR fs:__tls_array
	mov	edx, DWORD PTR [ecx+eax*4]
	mov	eax, DWORD PTR ?$TSS0@?1??CubeSide@@YAPAMVVector@@MH@Z@4HA
	cmp	eax, DWORD PTR __Init_thread_epoch[edx]
	jle	SHORT $LN2@CubeSide
	push	OFFSET ?$TSS0@?1??CubeSide@@YAPAMVVector@@MH@Z@4HA
	call	__Init_thread_header
	add	esp, 4
	cmp	DWORD PTR ?$TSS0@?1??CubeSide@@YAPAMVVector@@MH@Z@4HA, -1
	jne	SHORT $LN2@CubeSide
	mov	DWORD PTR __$EHRec$[ebp+8], 0
	mov	ecx, OFFSET ?side@?1??CubeSide@@YAPAMVVector@@MH@Z@4V2@A
	call	??0Vector@@QAE@XZ			; Vector::Vector
	mov	DWORD PTR __$EHRec$[ebp+8], -1
	push	OFFSET ?$TSS0@?1??CubeSide@@YAPAMVVector@@MH@Z@4HA
	call	__Init_thread_footer
	add	esp, 4
$LN2@CubeSide:

; 53   : 
; 54   : 	VectorCopy(pos, side);

	lea	ecx, DWORD PTR _pos$[ebp]
	call	??BVector@@QBEPBMXZ			; Vector::operator float const *
	mov	esi, eax
	mov	eax, 4
	imul	edi, eax, 0
	mov	ecx, OFFSET ?side@?1??CubeSide@@YAPAMVVector@@MH@Z@4V2@A
	call	??BVector@@QAEPAMXZ			; Vector::operator float *
	mov	ecx, 4
	imul	edx, ecx, 0
	mov	ecx, DWORD PTR [esi+edi]
	mov	DWORD PTR [eax+edx], ecx
	lea	ecx, DWORD PTR _pos$[ebp]
	call	??BVector@@QBEPBMXZ			; Vector::operator float const *
	mov	esi, eax
	mov	edi, 4
	shl	edi, 0
	mov	ecx, OFFSET ?side@?1??CubeSide@@YAPAMVVector@@MH@Z@4V2@A
	call	??BVector@@QAEPAMXZ			; Vector::operator float *
	mov	edx, 4
	shl	edx, 0
	mov	ecx, DWORD PTR [esi+edi]
	mov	DWORD PTR [eax+edx], ecx
	mov	ecx, OFFSET ?side@?1??CubeSide@@YAPAMVVector@@MH@Z@4V2@A
	call	??BVector@@QAEPAMXZ			; Vector::operator float *
	mov	edx, 4
	shl	edx, 1
	add	eax, edx
	mov	DWORD PTR tv129[ebp], eax
	mov	esi, 4
	shl	esi, 1
	lea	ecx, DWORD PTR _pos$[ebp]
	call	??BVector@@QBEPBMXZ			; Vector::operator float const *
	mov	ecx, DWORD PTR tv129[ebp]
	mov	edx, DWORD PTR [eax+esi]
	mov	DWORD PTR [ecx], edx

; 55   : 	side[0] += (vert & 1) ? -size : size;

	mov	eax, DWORD PTR _vert$[ebp]
	and	eax, 1
	je	SHORT $LN4@CubeSide
	movss	xmm0, DWORD PTR _size$[ebp]
	xorps	xmm0, DWORD PTR __xmm@80000000800000008000000080000000
	movss	DWORD PTR tv137[ebp], xmm0
	jmp	SHORT $LN5@CubeSide
$LN4@CubeSide:
	movss	xmm0, DWORD PTR _size$[ebp]
	movss	DWORD PTR tv137[ebp], xmm0
$LN5@CubeSide:
	mov	ecx, OFFSET ?side@?1??CubeSide@@YAPAMVVector@@MH@Z@4V2@A
	call	??BVector@@QAEPAMXZ			; Vector::operator float *
	mov	ecx, 4
	imul	edx, ecx, 0
	add	eax, edx
	mov	DWORD PTR tv138[ebp], eax
	mov	eax, DWORD PTR tv138[ebp]
	movss	xmm0, DWORD PTR [eax]
	addss	xmm0, DWORD PTR tv137[ebp]
	mov	ecx, DWORD PTR tv138[ebp]
	movss	DWORD PTR [ecx], xmm0

; 56   : 	side[1] += (vert & 2) ? -size : size;

	mov	eax, DWORD PTR _vert$[ebp]
	and	eax, 2
	je	SHORT $LN6@CubeSide
	movss	xmm0, DWORD PTR _size$[ebp]
	xorps	xmm0, DWORD PTR __xmm@80000000800000008000000080000000
	movss	DWORD PTR tv147[ebp], xmm0
	jmp	SHORT $LN7@CubeSide
$LN6@CubeSide:
	movss	xmm0, DWORD PTR _size$[ebp]
	movss	DWORD PTR tv147[ebp], xmm0
$LN7@CubeSide:
	mov	ecx, OFFSET ?side@?1??CubeSide@@YAPAMVVector@@MH@Z@4V2@A
	call	??BVector@@QAEPAMXZ			; Vector::operator float *
	mov	ecx, 4
	shl	ecx, 0
	add	eax, ecx
	mov	DWORD PTR tv148[ebp], eax
	mov	edx, DWORD PTR tv148[ebp]
	movss	xmm0, DWORD PTR [edx]
	addss	xmm0, DWORD PTR tv147[ebp]
	mov	eax, DWORD PTR tv148[ebp]
	movss	DWORD PTR [eax], xmm0

; 57   : 	side[2] += (vert & 4) ? -size : size;

	mov	eax, DWORD PTR _vert$[ebp]
	and	eax, 4
	je	SHORT $LN8@CubeSide
	movss	xmm0, DWORD PTR _size$[ebp]
	xorps	xmm0, DWORD PTR __xmm@80000000800000008000000080000000
	movss	DWORD PTR tv157[ebp], xmm0
	jmp	SHORT $LN9@CubeSide
$LN8@CubeSide:
	movss	xmm0, DWORD PTR _size$[ebp]
	movss	DWORD PTR tv157[ebp], xmm0
$LN9@CubeSide:
	mov	ecx, OFFSET ?side@?1??CubeSide@@YAPAMVVector@@MH@Z@4V2@A
	call	??BVector@@QAEPAMXZ			; Vector::operator float *
	mov	ecx, 4
	shl	ecx, 1
	add	eax, ecx
	mov	DWORD PTR tv158[ebp], eax
	mov	edx, DWORD PTR tv158[ebp]
	movss	xmm0, DWORD PTR [edx]
	addss	xmm0, DWORD PTR tv157[ebp]
	mov	eax, DWORD PTR tv158[ebp]
	movss	DWORD PTR [eax], xmm0

; 58   : 
; 59   : 	return side;

	mov	ecx, OFFSET ?side@?1??CubeSide@@YAPAMVVector@@MH@Z@4V2@A
	call	??BVector@@QAEPAMXZ			; Vector::operator float *

; 60   : }

	mov	ecx, DWORD PTR __$EHRec$[ebp]
	mov	DWORD PTR fs:0, ecx
	pop	ecx
	pop	edi
	pop	esi
	pop	ebx
	mov	esp, ebp
	pop	ebp
	ret	0
_TEXT	ENDS
;	COMDAT text$x
text$x	SEGMENT
__unwindfunclet$?CubeSide@@YAPAMVVector@@MH@Z$0:
	push	OFFSET ?$TSS0@?1??CubeSide@@YAPAMVVector@@MH@Z@4HA
	call	__Init_thread_abort
	pop	ecx
	ret	0
__ehhandler$?CubeSide@@YAPAMVVector@@MH@Z:
	mov	edx, DWORD PTR [esp+8]
	lea	eax, DWORD PTR [edx+12]
	mov	ecx, DWORD PTR [edx-88]
	xor	ecx, eax
	call	@__security_check_cookie@4
	mov	eax, OFFSET __ehfuncinfo$?CubeSide@@YAPAMVVector@@MH@Z
	jmp	___CxxFrameHandler3
text$x	ENDS
?CubeSide@@YAPAMVVector@@MH@Z ENDP			; CubeSide
; Function compile flags: /Odtp /ZI
; File d:\!diffusion 2020\source code 2022\client-server\client\render\r_main.cpp
;	COMDAT ??__EPrevViewOrg@@YAXXZ
text$di	SEGMENT
??__EPrevViewOrg@@YAXXZ PROC				; `dynamic initializer for 'PrevViewOrg'', COMDAT

; 47   : Vector PrevViewOrg = g_vecZero;

	push	ebp
	mov	ebp, esp
	sub	esp, 64					; 00000040H
	push	ebx
	push	esi
	push	edi
	push	OFFSET ?g_vecZero@@3VVector@@B		; g_vecZero
	mov	ecx, OFFSET ?PrevViewOrg@@3VVector@@A	; PrevViewOrg
	call	??0Vector@@QAE@ABV0@@Z			; Vector::Vector
	pop	edi
	pop	esi
	pop	ebx
	mov	esp, ebp
	pop	ebp
	ret	0
??__EPrevViewOrg@@YAXXZ ENDP				; `dynamic initializer for 'PrevViewOrg''
text$di	ENDS
; Function compile flags: /Odtp /ZI
; File d:\!diffusion 2020\source code 2022\client-server\client\render\r_main.cpp
;	COMDAT ??__EPrevViewAngles@@YAXXZ
text$di	SEGMENT
??__EPrevViewAngles@@YAXXZ PROC				; `dynamic initializer for 'PrevViewAngles'', COMDAT

; 46   : Vector PrevViewAngles = g_vecZero;

	push	ebp
	mov	ebp, esp
	sub	esp, 64					; 00000040H
	push	ebx
	push	esi
	push	edi
	push	OFFSET ?g_vecZero@@3VVector@@B		; g_vecZero
	mov	ecx, OFFSET ?PrevViewAngles@@3VVector@@A ; PrevViewAngles
	call	??0Vector@@QAE@ABV0@@Z			; Vector::Vector
	pop	edi
	pop	esi
	pop	ebx
	mov	esp, ebp
	pop	ebp
	ret	0
??__EPrevViewAngles@@YAXXZ ENDP				; `dynamic initializer for 'PrevViewAngles''
text$di	ENDS
; Function compile flags: /Odtp /ZI
; File d:\!diffusion 2020\source code 2022\client-server\client\render\r_main.cpp
;	COMDAT ??__Etr@@YAXXZ
text$di	SEGMENT
??__Etr@@YAXXZ PROC					; `dynamic initializer for 'tr'', COMDAT

; 37   : ref_globals_t	tr;

	push	ebp
	mov	ebp, esp
	sub	esp, 64					; 00000040H
	push	ebx
	push	esi
	push	edi
	mov	ecx, OFFSET ?tr@@3Uref_globals_t@@A	; tr
	call	??0ref_globals_t@@QAE@XZ
	pop	edi
	pop	esi
	pop	ebx
	mov	esp, ebp
	pop	ebp
	ret	0
??__Etr@@YAXXZ ENDP					; `dynamic initializer for 'tr''
text$di	ENDS
; Function compile flags: /Odtp /ZI
; File d:\!diffusion 2020\source code 2022\client-server\client\render\r_sprite.h
;	COMDAT ?R_DrawSpriteModel@@YAXPAUcl_entity_s@@@Z
_TEXT	SEGMENT
_e$ = 8							; size = 4
?R_DrawSpriteModel@@YAXPAUcl_entity_s@@@Z PROC		; R_DrawSpriteModel, COMDAT

; 106  : inline void R_DrawSpriteModel( cl_entity_t *e ) { g_SpriteRenderer.DrawSpriteModelInternal( e ); }

	push	ebp
	mov	ebp, esp
	sub	esp, 64					; 00000040H
	push	ebx
	push	esi
	push	edi
	mov	eax, DWORD PTR _e$[ebp]
	push	eax
	mov	ecx, OFFSET ?g_SpriteRenderer@@3VCSpriteModelRenderer@@A ; g_SpriteRenderer
	call	?DrawSpriteModelInternal@CSpriteModelRenderer@@QAEXPAUcl_entity_s@@@Z ; CSpriteModelRenderer::DrawSpriteModelInternal
	pop	edi
	pop	esi
	pop	ebx
	mov	esp, ebp
	pop	ebp
	ret	0
?R_DrawSpriteModel@@YAXPAUcl_entity_s@@@Z ENDP		; R_DrawSpriteModel
_TEXT	ENDS
; Function compile flags: /Odtp /ZI
; File d:\!diffusion 2020\source code 2022\client-server\client\render\r_main.cpp
;	COMDAT ?R_DrawTranslucentEntities@@YAXXZ
_TEXT	SEGMENT
_i$ = -4						; size = 4
?R_DrawTranslucentEntities@@YAXXZ PROC			; R_DrawTranslucentEntities, COMDAT

; 1626 : {

	push	ebp
	mov	ebp, esp
	sub	esp, 68					; 00000044H
	push	ebx
	push	esi
	push	edi

; 1627 : 	int i;
; 1628 : 	
; 1629 : 	glState.drawTrans = true;

	mov	DWORD PTR ?glState@@3UglState_t@@A+32, 1

; 1630 : 
; 1631 : 	// diffusioncubemaps
; 1632 : 	if( GL_Support( R_SEAMLESS_CUBEMAP ) )

	push	23					; 00000017H
	call	?GL_Support@@YA_NH@Z			; GL_Support
	add	esp, 4
	movzx	eax, al
	test	eax, eax
	je	SHORT $LN11@R_DrawTran

; 1633 : 		pglEnable( GL_TEXTURE_CUBE_MAP_SEAMLESS );

	push	34895					; 0000884fH
	call	DWORD PTR ?pglEnable@@3P6GXI@ZA		; pglEnable
$LN11@R_DrawTran:

; 1634 : 
; 1635 : 	// brushes:
; 1636 : 	for( i = 0; i < tr.num_trans_entities; i++ )

	mov	DWORD PTR _i$[ebp], 0
	jmp	SHORT $LN4@R_DrawTran
$LN2@R_DrawTran:
	mov	eax, DWORD PTR _i$[ebp]
	add	eax, 1
	mov	DWORD PTR _i$[ebp], eax
$LN4@R_DrawTran:
	mov	eax, DWORD PTR _i$[ebp]
	cmp	eax, DWORD PTR ?tr@@3Uref_globals_t@@A+4765688
	jge	$LN3@R_DrawTran

; 1637 : 	{
; 1638 : 		RI->currententity = tr.trans_entities[i];

	mov	eax, DWORD PTR ?RI@@3PAUref_instance_t@@A ; RI
	mov	ecx, DWORD PTR _i$[ebp]
	mov	edx, DWORD PTR ?tr@@3Uref_globals_t@@A[ecx*4+4748532]
	mov	DWORD PTR [eax+16], edx

; 1639 : 		RI->currentmodel = RI->currententity->model;

	mov	eax, DWORD PTR ?RI@@3PAUref_instance_t@@A ; RI
	mov	ecx, DWORD PTR [eax+16]
	mov	edx, DWORD PTR ?RI@@3PAUref_instance_t@@A ; RI
	mov	eax, DWORD PTR [ecx+2964]
	mov	DWORD PTR [edx+20], eax

; 1640 : 
; 1641 : 		if( RI->currentmodel->type != mod_brush )

	mov	eax, DWORD PTR ?RI@@3PAUref_instance_t@@A ; RI
	mov	ecx, DWORD PTR [eax+20]
	cmp	DWORD PTR [ecx+68], 0
	je	SHORT $LN12@R_DrawTran

; 1642 : 			continue;

	jmp	SHORT $LN2@R_DrawTran
$LN12@R_DrawTran:

; 1643 : 
; 1644 : 		// tell engine about current entity
; 1645 : 		SET_CURRENT_ENTITY( RI->currententity );

	mov	eax, DWORD PTR ?RI@@3PAUref_instance_t@@A ; RI
	mov	ecx, DWORD PTR [eax+16]
	push	ecx
	call	DWORD PTR ?gRenderfuncs@@3Urender_api_s@@A+32
	add	esp, 4

; 1646 : 
; 1647 : 		// handle studiomodels with custom rendermodes on texture
; 1648 : 		if( RI->currententity->curstate.rendermode != kRenderNormal )

	mov	eax, DWORD PTR ?RI@@3PAUref_instance_t@@A ; RI
	mov	ecx, DWORD PTR [eax+16]
	cmp	DWORD PTR [ecx+760], 0
	je	SHORT $LN13@R_DrawTran

; 1649 : 			tr.blend = CL_FxBlend( RI->currententity ) / 255.0f;

	mov	eax, DWORD PTR ?RI@@3PAUref_instance_t@@A ; RI
	mov	ecx, DWORD PTR [eax+16]
	push	ecx
	call	?CL_FxBlend@@YAHPAUcl_entity_s@@@Z	; CL_FxBlend
	add	esp, 4
	cvtsi2ss xmm0, eax
	divss	xmm0, DWORD PTR __real@437f0000
	movss	DWORD PTR ?tr@@3Uref_globals_t@@A+5830912, xmm0
	jmp	SHORT $LN14@R_DrawTran
$LN13@R_DrawTran:

; 1650 : 		else tr.blend = 1.0f; // draw as solid but sorted by distance

	movss	xmm0, DWORD PTR __real@3f800000
	movss	DWORD PTR ?tr@@3Uref_globals_t@@A+5830912, xmm0
$LN14@R_DrawTran:

; 1651 : 
; 1652 : 		if( RI->currententity->index < MAX_FADING_ENTS )

	mov	eax, DWORD PTR ?RI@@3PAUref_instance_t@@A ; RI
	mov	ecx, DWORD PTR [eax+16]
	cmp	DWORD PTR [ecx], 8192			; 00002000H
	jge	SHORT $LN16@R_DrawTran

; 1653 : 		{
; 1654 : 			if( tr.fadeblend[RI->currententity->index] < 1.0f )

	mov	eax, DWORD PTR ?RI@@3PAUref_instance_t@@A ; RI
	mov	ecx, DWORD PTR [eax+16]
	mov	edx, DWORD PTR [ecx]
	movss	xmm0, DWORD PTR __real@3f800000
	comiss	xmm0, DWORD PTR ?tr@@3Uref_globals_t@@A[edx*4+5852564]
	jbe	SHORT $LN16@R_DrawTran

; 1655 : 				tr.blend = tr.fadeblend[RI->currententity->index];

	mov	eax, DWORD PTR ?RI@@3PAUref_instance_t@@A ; RI
	mov	ecx, DWORD PTR [eax+16]
	mov	edx, DWORD PTR [ecx]
	movss	xmm0, DWORD PTR ?tr@@3Uref_globals_t@@A[edx*4+5852564]
	movss	DWORD PTR ?tr@@3Uref_globals_t@@A+5830912, xmm0
$LN16@R_DrawTran:

; 1656 : 		}
; 1657 : 
; 1658 : 		if( tr.blend <= 0.0f ) continue;

	xorps	xmm0, xmm0
	comiss	xmm0, DWORD PTR ?tr@@3Uref_globals_t@@A+5830912
	jb	SHORT $LN17@R_DrawTran
	jmp	$LN2@R_DrawTran
$LN17@R_DrawTran:

; 1659 : 
; 1660 : 		R_DrawBrushModel( RI->currententity, true );

	push	1
	mov	eax, DWORD PTR ?RI@@3PAUref_instance_t@@A ; RI
	mov	ecx, DWORD PTR [eax+16]
	push	ecx
	call	?R_DrawBrushModel@@YAXPAUcl_entity_s@@_N@Z ; R_DrawBrushModel
	add	esp, 8

; 1661 : 	}

	jmp	$LN2@R_DrawTran
$LN3@R_DrawTran:

; 1662 : 
; 1663 : 	GL_CheckForErrors();

	mov	eax, DWORD PTR ?__LINE__Var@?0??R_DrawTranslucentEntities@@YAXXZ@4JA
	add	eax, 37					; 00000025H
	push	eax
	push	OFFSET ??_C@_0EL@DEHOCIID@d?3?2?$CBdiffusion?52020?2source?5code?52@
	call	?GL_CheckForErrors_@@YAXPBDH@Z		; GL_CheckForErrors_
	add	esp, 8

; 1664 : 
; 1665 : 	// models:
; 1666 : 	for( i = 0; i < tr.num_trans_entities; i++ )

	mov	DWORD PTR _i$[ebp], 0
	jmp	SHORT $LN7@R_DrawTran
$LN5@R_DrawTran:
	mov	eax, DWORD PTR _i$[ebp]
	add	eax, 1
	mov	DWORD PTR _i$[ebp], eax
$LN7@R_DrawTran:
	mov	eax, DWORD PTR _i$[ebp]
	cmp	eax, DWORD PTR ?tr@@3Uref_globals_t@@A+4765688
	jge	$LN6@R_DrawTran

; 1667 : 	{
; 1668 : 		RI->currententity = tr.trans_entities[i];

	mov	eax, DWORD PTR ?RI@@3PAUref_instance_t@@A ; RI
	mov	ecx, DWORD PTR _i$[ebp]
	mov	edx, DWORD PTR ?tr@@3Uref_globals_t@@A[ecx*4+4748532]
	mov	DWORD PTR [eax+16], edx

; 1669 : 		RI->currentmodel = RI->currententity->model;

	mov	eax, DWORD PTR ?RI@@3PAUref_instance_t@@A ; RI
	mov	ecx, DWORD PTR [eax+16]
	mov	edx, DWORD PTR ?RI@@3PAUref_instance_t@@A ; RI
	mov	eax, DWORD PTR [ecx+2964]
	mov	DWORD PTR [edx+20], eax

; 1670 : 
; 1671 : 		if( RI->currentmodel->type != mod_studio )

	mov	eax, DWORD PTR ?RI@@3PAUref_instance_t@@A ; RI
	mov	ecx, DWORD PTR [eax+20]
	cmp	DWORD PTR [ecx+68], 3
	je	SHORT $LN18@R_DrawTran

; 1672 : 			continue;

	jmp	SHORT $LN5@R_DrawTran
$LN18@R_DrawTran:

; 1673 : 
; 1674 : 		SET_CURRENT_ENTITY( RI->currententity );

	mov	eax, DWORD PTR ?RI@@3PAUref_instance_t@@A ; RI
	mov	ecx, DWORD PTR [eax+16]
	push	ecx
	call	DWORD PTR ?gRenderfuncs@@3Urender_api_s@@A+32
	add	esp, 4

; 1675 : 
; 1676 : 		if( RI->currententity->curstate.rendermode != kRenderNormal )

	mov	eax, DWORD PTR ?RI@@3PAUref_instance_t@@A ; RI
	mov	ecx, DWORD PTR [eax+16]
	cmp	DWORD PTR [ecx+760], 0
	je	SHORT $LN19@R_DrawTran

; 1677 : 			tr.blend = CL_FxBlend( RI->currententity ) / 255.0f;

	mov	eax, DWORD PTR ?RI@@3PAUref_instance_t@@A ; RI
	mov	ecx, DWORD PTR [eax+16]
	push	ecx
	call	?CL_FxBlend@@YAHPAUcl_entity_s@@@Z	; CL_FxBlend
	add	esp, 4
	cvtsi2ss xmm0, eax
	divss	xmm0, DWORD PTR __real@437f0000
	movss	DWORD PTR ?tr@@3Uref_globals_t@@A+5830912, xmm0
	jmp	SHORT $LN20@R_DrawTran
$LN19@R_DrawTran:

; 1678 : 		else tr.blend = 1.0f;

	movss	xmm0, DWORD PTR __real@3f800000
	movss	DWORD PTR ?tr@@3Uref_globals_t@@A+5830912, xmm0
$LN20@R_DrawTran:

; 1679 : 
; 1680 : 		if( RI->currententity->index < MAX_FADING_ENTS )

	mov	eax, DWORD PTR ?RI@@3PAUref_instance_t@@A ; RI
	mov	ecx, DWORD PTR [eax+16]
	cmp	DWORD PTR [ecx], 8192			; 00002000H
	jge	SHORT $LN22@R_DrawTran

; 1681 : 		{
; 1682 : 			if( tr.fadeblend[RI->currententity->index] < 1.0f )

	mov	eax, DWORD PTR ?RI@@3PAUref_instance_t@@A ; RI
	mov	ecx, DWORD PTR [eax+16]
	mov	edx, DWORD PTR [ecx]
	movss	xmm0, DWORD PTR __real@3f800000
	comiss	xmm0, DWORD PTR ?tr@@3Uref_globals_t@@A[edx*4+5852564]
	jbe	SHORT $LN22@R_DrawTran

; 1683 : 				tr.blend = tr.fadeblend[RI->currententity->index];

	mov	eax, DWORD PTR ?RI@@3PAUref_instance_t@@A ; RI
	mov	ecx, DWORD PTR [eax+16]
	mov	edx, DWORD PTR [ecx]
	movss	xmm0, DWORD PTR ?tr@@3Uref_globals_t@@A[edx*4+5852564]
	movss	DWORD PTR ?tr@@3Uref_globals_t@@A+5830912, xmm0
$LN22@R_DrawTran:

; 1684 : 		}
; 1685 : 
; 1686 : 		if( tr.blend <= 0.0f ) continue;

	xorps	xmm0, xmm0
	comiss	xmm0, DWORD PTR ?tr@@3Uref_globals_t@@A+5830912
	jb	SHORT $LN23@R_DrawTran
	jmp	$LN5@R_DrawTran
$LN23@R_DrawTran:

; 1687 : 
; 1688 : 		R_DrawStudioModel( RI->currententity );

	mov	eax, DWORD PTR ?RI@@3PAUref_instance_t@@A ; RI
	mov	ecx, DWORD PTR [eax+16]
	push	ecx
	call	?R_DrawStudioModel@@YAXPAUcl_entity_s@@@Z ; R_DrawStudioModel
	add	esp, 4

; 1689 : 	}

	jmp	$LN5@R_DrawTran
$LN6@R_DrawTran:

; 1690 : 
; 1691 : 	GL_CheckForErrors();

	mov	eax, DWORD PTR ?__LINE__Var@?0??R_DrawTranslucentEntities@@YAXXZ@4JA
	add	eax, 65					; 00000041H
	push	eax
	push	OFFSET ??_C@_0EL@DEHOCIID@d?3?2?$CBdiffusion?52020?2source?5code?52@
	call	?GL_CheckForErrors_@@YAXPBDH@Z		; GL_CheckForErrors_
	add	esp, 8

; 1692 : 
; 1693 : 	// diffusion - do not bloom sprites.
; 1694 : 	if( RP_NORMALPASS() && (r_bloom_sprites->value == 0) )

	mov	eax, DWORD PTR ?RI@@3PAUref_instance_t@@A ; RI
	mov	ecx, DWORD PTR [eax]
	and	ecx, 483				; 000001e3H
	jne	SHORT $LN24@R_DrawTran
	mov	eax, DWORD PTR ?r_bloom_sprites@@3PAUcvar_s@@A ; r_bloom_sprites
	movss	xmm0, DWORD PTR [eax+12]
	ucomiss	xmm0, DWORD PTR __real@00000000
	lahf
	test	ah, 68					; 00000044H
	jp	SHORT $LN24@R_DrawTran

; 1695 : 	{
; 1696 : 		GL_Setup2D();

	call	?GL_Setup2D@@YAXXZ			; GL_Setup2D

; 1697 : 		Bloom();

	call	?Bloom@@YAXXZ				; Bloom

; 1698 : 		GL_Setup3D();

	call	?GL_Setup3D@@YAXXZ			; GL_Setup3D
$LN24@R_DrawTran:

; 1699 : 
; 1700 : 	//	GL_Setup2D();
; 1701 : 	//	R_BloomBlend();
; 1702 : 	//	GL_Setup3D();
; 1703 : 	}
; 1704 : 
; 1705 : 	// sprites:
; 1706 : 	for( i = 0; i < tr.num_trans_entities; i++ )

	mov	DWORD PTR _i$[ebp], 0
	jmp	SHORT $LN10@R_DrawTran
$LN8@R_DrawTran:
	mov	eax, DWORD PTR _i$[ebp]
	add	eax, 1
	mov	DWORD PTR _i$[ebp], eax
$LN10@R_DrawTran:
	mov	eax, DWORD PTR _i$[ebp]
	cmp	eax, DWORD PTR ?tr@@3Uref_globals_t@@A+4765688
	jge	$LN9@R_DrawTran

; 1707 : 	{
; 1708 : 		RI->currententity = tr.trans_entities[i];

	mov	eax, DWORD PTR ?RI@@3PAUref_instance_t@@A ; RI
	mov	ecx, DWORD PTR _i$[ebp]
	mov	edx, DWORD PTR ?tr@@3Uref_globals_t@@A[ecx*4+4748532]
	mov	DWORD PTR [eax+16], edx

; 1709 : 		RI->currentmodel = RI->currententity->model;

	mov	eax, DWORD PTR ?RI@@3PAUref_instance_t@@A ; RI
	mov	ecx, DWORD PTR [eax+16]
	mov	edx, DWORD PTR ?RI@@3PAUref_instance_t@@A ; RI
	mov	eax, DWORD PTR [ecx+2964]
	mov	DWORD PTR [edx+20], eax

; 1710 : 
; 1711 : 		if( RI->currentmodel->type != mod_sprite )

	mov	eax, DWORD PTR ?RI@@3PAUref_instance_t@@A ; RI
	mov	ecx, DWORD PTR [eax+20]
	cmp	DWORD PTR [ecx+68], 1
	je	SHORT $LN25@R_DrawTran

; 1712 : 			continue;

	jmp	SHORT $LN8@R_DrawTran
$LN25@R_DrawTran:

; 1713 : 
; 1714 : 		SET_CURRENT_ENTITY( RI->currententity );

	mov	eax, DWORD PTR ?RI@@3PAUref_instance_t@@A ; RI
	mov	ecx, DWORD PTR [eax+16]
	push	ecx
	call	DWORD PTR ?gRenderfuncs@@3Urender_api_s@@A+32
	add	esp, 4

; 1715 : 
; 1716 : 		if( RI->currententity->curstate.rendermode != kRenderNormal )

	mov	eax, DWORD PTR ?RI@@3PAUref_instance_t@@A ; RI
	mov	ecx, DWORD PTR [eax+16]
	cmp	DWORD PTR [ecx+760], 0
	je	SHORT $LN26@R_DrawTran

; 1717 : 			tr.blend = CL_FxBlend( RI->currententity ) / 255.0f;

	mov	eax, DWORD PTR ?RI@@3PAUref_instance_t@@A ; RI
	mov	ecx, DWORD PTR [eax+16]
	push	ecx
	call	?CL_FxBlend@@YAHPAUcl_entity_s@@@Z	; CL_FxBlend
	add	esp, 4
	cvtsi2ss xmm0, eax
	divss	xmm0, DWORD PTR __real@437f0000
	movss	DWORD PTR ?tr@@3Uref_globals_t@@A+5830912, xmm0
	jmp	SHORT $LN27@R_DrawTran
$LN26@R_DrawTran:

; 1718 : 		else tr.blend = 1.0f;

	movss	xmm0, DWORD PTR __real@3f800000
	movss	DWORD PTR ?tr@@3Uref_globals_t@@A+5830912, xmm0
$LN27@R_DrawTran:

; 1719 : 
; 1720 : 		if( RI->currententity->index < MAX_FADING_ENTS )

	mov	eax, DWORD PTR ?RI@@3PAUref_instance_t@@A ; RI
	mov	ecx, DWORD PTR [eax+16]
	cmp	DWORD PTR [ecx], 8192			; 00002000H
	jge	SHORT $LN29@R_DrawTran

; 1721 : 		{
; 1722 : 			if( tr.fadeblend[RI->currententity->index] < 1.0f )

	mov	eax, DWORD PTR ?RI@@3PAUref_instance_t@@A ; RI
	mov	ecx, DWORD PTR [eax+16]
	mov	edx, DWORD PTR [ecx]
	movss	xmm0, DWORD PTR __real@3f800000
	comiss	xmm0, DWORD PTR ?tr@@3Uref_globals_t@@A[edx*4+5852564]
	jbe	SHORT $LN29@R_DrawTran

; 1723 : 				tr.blend = tr.fadeblend[RI->currententity->index];

	mov	eax, DWORD PTR ?RI@@3PAUref_instance_t@@A ; RI
	mov	ecx, DWORD PTR [eax+16]
	mov	edx, DWORD PTR [ecx]
	movss	xmm0, DWORD PTR ?tr@@3Uref_globals_t@@A[edx*4+5852564]
	movss	DWORD PTR ?tr@@3Uref_globals_t@@A+5830912, xmm0
$LN29@R_DrawTran:

; 1724 : 		}
; 1725 : 
; 1726 : 		if( tr.blend <= 0.0f ) continue;

	xorps	xmm0, xmm0
	comiss	xmm0, DWORD PTR ?tr@@3Uref_globals_t@@A+5830912
	jb	SHORT $LN30@R_DrawTran
	jmp	$LN8@R_DrawTran
$LN30@R_DrawTran:

; 1727 : 
; 1728 : 		R_DrawSpriteModel( RI->currententity );

	mov	eax, DWORD PTR ?RI@@3PAUref_instance_t@@A ; RI
	mov	ecx, DWORD PTR [eax+16]
	push	ecx
	call	?R_DrawSpriteModel@@YAXPAUcl_entity_s@@@Z ; R_DrawSpriteModel
	add	esp, 4

; 1729 : 	}

	jmp	$LN8@R_DrawTran
$LN9@R_DrawTran:

; 1730 : 
; 1731 : 	GL_CheckForErrors();

	mov	eax, DWORD PTR ?__LINE__Var@?0??R_DrawTranslucentEntities@@YAXXZ@4JA
	add	eax, 105				; 00000069H
	push	eax
	push	OFFSET ??_C@_0EL@DEHOCIID@d?3?2?$CBdiffusion?52020?2source?5code?52@
	call	?GL_CheckForErrors_@@YAXPBDH@Z		; GL_CheckForErrors_
	add	esp, 8

; 1732 : 
; 1733 : 	// diffusioncubemaps
; 1734 : 	if( GL_Support( R_SEAMLESS_CUBEMAP ) )

	push	23					; 00000017H
	call	?GL_Support@@YA_NH@Z			; GL_Support
	add	esp, 4
	movzx	eax, al
	test	eax, eax
	je	SHORT $LN31@R_DrawTran

; 1735 : 		pglDisable( GL_TEXTURE_CUBE_MAP_SEAMLESS );

	push	34895					; 0000884fH
	call	DWORD PTR ?pglDisable@@3P6GXI@ZA	; pglDisable
$LN31@R_DrawTran:

; 1736 : 
; 1737 : 	GL_CheckForErrors();

	mov	eax, DWORD PTR ?__LINE__Var@?0??R_DrawTranslucentEntities@@YAXXZ@4JA
	add	eax, 111				; 0000006fH
	push	eax
	push	OFFSET ??_C@_0EL@DEHOCIID@d?3?2?$CBdiffusion?52020?2source?5code?52@
	call	?GL_CheckForErrors_@@YAXPBDH@Z		; GL_CheckForErrors_
	add	esp, 8

; 1738 : }

	pop	edi
	pop	esi
	pop	ebx
	mov	esp, ebp
	pop	ebp
	ret	0
?R_DrawTranslucentEntities@@YAXXZ ENDP			; R_DrawTranslucentEntities
_TEXT	ENDS
; Function compile flags: /Odtp /ZI
; File d:\!diffusion 2020\source code 2022\client-server\client\render\r_main.cpp
;	COMDAT ?R_DrawSolidEntities@@YAXXZ
_TEXT	SEGMENT
_i$ = -4						; size = 4
?R_DrawSolidEntities@@YAXXZ PROC			; R_DrawSolidEntities, COMDAT

; 1564 : {

	push	ebp
	mov	ebp, esp
	sub	esp, 68					; 00000044H
	push	ebx
	push	esi
	push	edi

; 1565 : 	int	i;
; 1566 : 
; 1567 : 	glState.drawTrans = false;

	mov	DWORD PTR ?glState@@3UglState_t@@A+32, 0

; 1568 : 	GL_CheckForErrors();

	mov	eax, DWORD PTR ?__LINE__Var@?0??R_DrawSolidEntities@@YAXXZ@4JA
	add	eax, 4
	push	eax
	push	OFFSET ??_C@_0EL@DEHOCIID@d?3?2?$CBdiffusion?52020?2source?5code?52@
	call	?GL_CheckForErrors_@@YAXPBDH@Z		; GL_CheckForErrors_
	add	esp, 8

; 1569 : 	tr.blend = 1.0f;

	movss	xmm0, DWORD PTR __real@3f800000
	movss	DWORD PTR ?tr@@3Uref_globals_t@@A+5830912, xmm0

; 1570 : 	
; 1571 : 	// 1: brush entities
; 1572 : 	for( i = 0; i < tr.num_solid_entities; i++ )

	mov	DWORD PTR _i$[ebp], 0
	jmp	SHORT $LN4@R_DrawSoli
$LN2@R_DrawSoli:
	mov	eax, DWORD PTR _i$[ebp]
	add	eax, 1
	mov	DWORD PTR _i$[ebp], eax
$LN4@R_DrawSoli:
	mov	eax, DWORD PTR _i$[ebp]
	cmp	eax, DWORD PTR ?tr@@3Uref_globals_t@@A+4765684
	jge	SHORT $LN3@R_DrawSoli

; 1573 : 	{
; 1574 : 		RI->currententity = tr.solid_entities[i];

	mov	eax, DWORD PTR ?RI@@3PAUref_instance_t@@A ; RI
	mov	ecx, DWORD PTR _i$[ebp]
	mov	edx, DWORD PTR ?tr@@3Uref_globals_t@@A[ecx*4+4732148]
	mov	DWORD PTR [eax+16], edx

; 1575 : 		RI->currentmodel = RI->currententity->model;

	mov	eax, DWORD PTR ?RI@@3PAUref_instance_t@@A ; RI
	mov	ecx, DWORD PTR [eax+16]
	mov	edx, DWORD PTR ?RI@@3PAUref_instance_t@@A ; RI
	mov	eax, DWORD PTR [ecx+2964]
	mov	DWORD PTR [edx+20], eax

; 1576 : 
; 1577 : 		if( RI->currentmodel->type != mod_brush )

	mov	eax, DWORD PTR ?RI@@3PAUref_instance_t@@A ; RI
	mov	ecx, DWORD PTR [eax+20]
	cmp	DWORD PTR [ecx+68], 0
	je	SHORT $LN11@R_DrawSoli

; 1578 : 			continue;

	jmp	SHORT $LN2@R_DrawSoli
$LN11@R_DrawSoli:

; 1579 : 
; 1580 : 		// tell engine about current entity
; 1581 : 		SET_CURRENT_ENTITY( RI->currententity );

	mov	eax, DWORD PTR ?RI@@3PAUref_instance_t@@A ; RI
	mov	ecx, DWORD PTR [eax+16]
	push	ecx
	call	DWORD PTR ?gRenderfuncs@@3Urender_api_s@@A+32
	add	esp, 4

; 1582 : 
; 1583 : 		R_DrawBrushModel( RI->currententity, false );

	push	0
	mov	eax, DWORD PTR ?RI@@3PAUref_instance_t@@A ; RI
	mov	ecx, DWORD PTR [eax+16]
	push	ecx
	call	?R_DrawBrushModel@@YAXPAUcl_entity_s@@_N@Z ; R_DrawBrushModel
	add	esp, 8

; 1584 : 	}

	jmp	SHORT $LN2@R_DrawSoli
$LN3@R_DrawSoli:

; 1585 : 
; 1586 : 	GL_CheckForErrors();

	mov	eax, DWORD PTR ?__LINE__Var@?0??R_DrawSolidEntities@@YAXXZ@4JA
	add	eax, 22					; 00000016H
	push	eax
	push	OFFSET ??_C@_0EL@DEHOCIID@d?3?2?$CBdiffusion?52020?2source?5code?52@
	call	?GL_CheckForErrors_@@YAXPBDH@Z		; GL_CheckForErrors_
	add	esp, 8

; 1587 : 
; 1588 : 	// 2: studio models
; 1589 : 	for( i = 0; i < tr.num_solid_entities; i++ )

	mov	DWORD PTR _i$[ebp], 0
	jmp	SHORT $LN7@R_DrawSoli
$LN5@R_DrawSoli:
	mov	eax, DWORD PTR _i$[ebp]
	add	eax, 1
	mov	DWORD PTR _i$[ebp], eax
$LN7@R_DrawSoli:
	mov	eax, DWORD PTR _i$[ebp]
	cmp	eax, DWORD PTR ?tr@@3Uref_globals_t@@A+4765684
	jge	SHORT $LN6@R_DrawSoli

; 1590 : 	{
; 1591 : 		RI->currententity = tr.solid_entities[i];

	mov	eax, DWORD PTR ?RI@@3PAUref_instance_t@@A ; RI
	mov	ecx, DWORD PTR _i$[ebp]
	mov	edx, DWORD PTR ?tr@@3Uref_globals_t@@A[ecx*4+4732148]
	mov	DWORD PTR [eax+16], edx

; 1592 : 		RI->currentmodel = RI->currententity->model;

	mov	eax, DWORD PTR ?RI@@3PAUref_instance_t@@A ; RI
	mov	ecx, DWORD PTR [eax+16]
	mov	edx, DWORD PTR ?RI@@3PAUref_instance_t@@A ; RI
	mov	eax, DWORD PTR [ecx+2964]
	mov	DWORD PTR [edx+20], eax

; 1593 : 
; 1594 : 		if( RI->currentmodel->type != mod_studio )

	mov	eax, DWORD PTR ?RI@@3PAUref_instance_t@@A ; RI
	mov	ecx, DWORD PTR [eax+20]
	cmp	DWORD PTR [ecx+68], 3
	je	SHORT $LN12@R_DrawSoli

; 1595 : 			continue;

	jmp	SHORT $LN5@R_DrawSoli
$LN12@R_DrawSoli:

; 1596 : 
; 1597 : 		SET_CURRENT_ENTITY( RI->currententity );

	mov	eax, DWORD PTR ?RI@@3PAUref_instance_t@@A ; RI
	mov	ecx, DWORD PTR [eax+16]
	push	ecx
	call	DWORD PTR ?gRenderfuncs@@3Urender_api_s@@A+32
	add	esp, 4

; 1598 : 
; 1599 : 		R_DrawStudioModel( RI->currententity );

	mov	eax, DWORD PTR ?RI@@3PAUref_instance_t@@A ; RI
	mov	ecx, DWORD PTR [eax+16]
	push	ecx
	call	?R_DrawStudioModel@@YAXPAUcl_entity_s@@@Z ; R_DrawStudioModel
	add	esp, 4

; 1600 : 	}

	jmp	SHORT $LN5@R_DrawSoli
$LN6@R_DrawSoli:

; 1601 : 
; 1602 : 	GL_CheckForErrors();

	mov	eax, DWORD PTR ?__LINE__Var@?0??R_DrawSolidEntities@@YAXXZ@4JA
	add	eax, 38					; 00000026H
	push	eax
	push	OFFSET ??_C@_0EL@DEHOCIID@d?3?2?$CBdiffusion?52020?2source?5code?52@
	call	?GL_CheckForErrors_@@YAXPBDH@Z		; GL_CheckForErrors_
	add	esp, 8

; 1603 : 
; 1604 : 	// 3: sprites
; 1605 : 	for( i = 0; i < tr.num_solid_entities; i++ )

	mov	DWORD PTR _i$[ebp], 0
	jmp	SHORT $LN10@R_DrawSoli
$LN8@R_DrawSoli:
	mov	eax, DWORD PTR _i$[ebp]
	add	eax, 1
	mov	DWORD PTR _i$[ebp], eax
$LN10@R_DrawSoli:
	mov	eax, DWORD PTR _i$[ebp]
	cmp	eax, DWORD PTR ?tr@@3Uref_globals_t@@A+4765684
	jge	SHORT $LN9@R_DrawSoli

; 1606 : 	{
; 1607 : 		RI->currententity = tr.solid_entities[i];

	mov	eax, DWORD PTR ?RI@@3PAUref_instance_t@@A ; RI
	mov	ecx, DWORD PTR _i$[ebp]
	mov	edx, DWORD PTR ?tr@@3Uref_globals_t@@A[ecx*4+4732148]
	mov	DWORD PTR [eax+16], edx

; 1608 : 		RI->currentmodel = RI->currententity->model;

	mov	eax, DWORD PTR ?RI@@3PAUref_instance_t@@A ; RI
	mov	ecx, DWORD PTR [eax+16]
	mov	edx, DWORD PTR ?RI@@3PAUref_instance_t@@A ; RI
	mov	eax, DWORD PTR [ecx+2964]
	mov	DWORD PTR [edx+20], eax

; 1609 : 
; 1610 : 		if( RI->currentmodel->type != mod_sprite )

	mov	eax, DWORD PTR ?RI@@3PAUref_instance_t@@A ; RI
	mov	ecx, DWORD PTR [eax+20]
	cmp	DWORD PTR [ecx+68], 1
	je	SHORT $LN13@R_DrawSoli

; 1611 : 			continue;

	jmp	SHORT $LN8@R_DrawSoli
$LN13@R_DrawSoli:

; 1612 : 
; 1613 : 		SET_CURRENT_ENTITY( RI->currententity );

	mov	eax, DWORD PTR ?RI@@3PAUref_instance_t@@A ; RI
	mov	ecx, DWORD PTR [eax+16]
	push	ecx
	call	DWORD PTR ?gRenderfuncs@@3Urender_api_s@@A+32
	add	esp, 4

; 1614 : 
; 1615 : 		R_DrawSpriteModel( RI->currententity );

	mov	eax, DWORD PTR ?RI@@3PAUref_instance_t@@A ; RI
	mov	ecx, DWORD PTR [eax+16]
	push	ecx
	call	?R_DrawSpriteModel@@YAXPAUcl_entity_s@@@Z ; R_DrawSpriteModel
	add	esp, 4

; 1616 : 	}

	jmp	SHORT $LN8@R_DrawSoli
$LN9@R_DrawSoli:

; 1617 : 
; 1618 : 	GL_CheckForErrors();

	mov	eax, DWORD PTR ?__LINE__Var@?0??R_DrawSolidEntities@@YAXXZ@4JA
	add	eax, 54					; 00000036H
	push	eax
	push	OFFSET ??_C@_0EL@DEHOCIID@d?3?2?$CBdiffusion?52020?2source?5code?52@
	call	?GL_CheckForErrors_@@YAXPBDH@Z		; GL_CheckForErrors_
	add	esp, 8

; 1619 : }

	pop	edi
	pop	esi
	pop	ebx
	mov	esp, ebp
	pop	ebp
	ret	0
?R_DrawSolidEntities@@YAXXZ ENDP			; R_DrawSolidEntities
_TEXT	ENDS
; Function compile flags: /Odtp /ZI
; File d:\!diffusion 2020\source code 2022\client-server\client\render\r_main.cpp
;	COMDAT ?R_DrawEntitiesOnList@@YAXXZ
_TEXT	SEGMENT
?R_DrawEntitiesOnList@@YAXXZ PROC			; R_DrawEntitiesOnList, COMDAT

; 1526 : {	

	push	ebp
	mov	ebp, esp
	sub	esp, 64					; 00000040H
	push	ebx
	push	esi
	push	edi

; 1527 : 	R_RunViewmodelEvents(); // diffusion - FIXED!!!

	call	?R_RunViewmodelEvents@@YAXXZ		; R_RunViewmodelEvents

; 1528 : 	
; 1529 : 	// solid ents first
; 1530 : 	R_DrawSolidEntities();

	call	?R_DrawSolidEntities@@YAXXZ		; R_DrawSolidEntities

; 1531 : 
; 1532 : 	R_DrawParticles( false );

	push	0
	call	?R_DrawParticles@@YAXH@Z		; R_DrawParticles
	add	esp, 4

; 1533 : 
; 1534 : 	GL_CheckForErrors();

	mov	eax, DWORD PTR ?__LINE__Var@?0??R_DrawEntitiesOnList@@YAXXZ@4JA
	add	eax, 8
	push	eax
	push	OFFSET ??_C@_0EL@DEHOCIID@d?3?2?$CBdiffusion?52020?2source?5code?52@
	call	?GL_CheckForErrors_@@YAXPBDH@Z		; GL_CheckForErrors_
	add	esp, 8

; 1535 : 
; 1536 : 	HUD_DrawNormalTriangles();

	call	?HUD_DrawNormalTriangles@@YAXXZ		; HUD_DrawNormalTriangles

; 1537 : 
; 1538 : 	GL_CheckForErrors();

	mov	eax, DWORD PTR ?__LINE__Var@?0??R_DrawEntitiesOnList@@YAXXZ@4JA
	add	eax, 12					; 0000000cH
	push	eax
	push	OFFSET ??_C@_0EL@DEHOCIID@d?3?2?$CBdiffusion?52020?2source?5code?52@
	call	?GL_CheckForErrors_@@YAXPBDH@Z		; GL_CheckForErrors_
	add	esp, 8

; 1539 : 
; 1540 : 	// then translucent ents
; 1541 : 	R_DrawTranslucentEntities();

	call	?R_DrawTranslucentEntities@@YAXXZ	; R_DrawTranslucentEntities

; 1542 : 	
; 1543 : 	R_RestoreGLState();

	call	?R_RestoreGLState@@YAXXZ		; R_RestoreGLState

; 1544 : 	pglTexEnvi( GL_TEXTURE_ENV, GL_TEXTURE_ENV_MODE, GL_MODULATE );

	push	8448					; 00002100H
	push	8704					; 00002200H
	push	8960					; 00002300H
	call	DWORD PTR ?pglTexEnvi@@3P6GXIIH@ZA	; pglTexEnvi

; 1545 : 	HUD_DrawTransparentTriangles();

	call	?HUD_DrawTransparentTriangles@@YAXXZ	; HUD_DrawTransparentTriangles

; 1546 : 
; 1547 : 	GL_CheckForErrors();

	mov	eax, DWORD PTR ?__LINE__Var@?0??R_DrawEntitiesOnList@@YAXXZ@4JA
	add	eax, 21					; 00000015H
	push	eax
	push	OFFSET ??_C@_0EL@DEHOCIID@d?3?2?$CBdiffusion?52020?2source?5code?52@
	call	?GL_CheckForErrors_@@YAXPBDH@Z		; GL_CheckForErrors_
	add	esp, 8

; 1548 : 
; 1549 : 	R_AllowFog( false );

	push	0
	call	?R_AllowFog@@YAXH@Z			; R_AllowFog
	add	esp, 4

; 1550 : 	R_DrawParticles( true );

	push	1
	call	?R_DrawParticles@@YAXH@Z		; R_DrawParticles
	add	esp, 4

; 1551 : 	R_AllowFog( true );

	push	1
	call	?R_AllowFog@@YAXH@Z			; R_AllowFog
	add	esp, 4

; 1552 : 	
; 1553 : 	GL_CheckForErrors();

	mov	eax, DWORD PTR ?__LINE__Var@?0??R_DrawEntitiesOnList@@YAXXZ@4JA
	add	eax, 27					; 0000001bH
	push	eax
	push	OFFSET ??_C@_0EL@DEHOCIID@d?3?2?$CBdiffusion?52020?2source?5code?52@
	call	?GL_CheckForErrors_@@YAXPBDH@Z		; GL_CheckForErrors_
	add	esp, 8

; 1554 : 
; 1555 : 	glState.drawTrans = false;

	mov	DWORD PTR ?glState@@3UglState_t@@A+32, 0

; 1556 : }

	pop	edi
	pop	esi
	pop	ebx
	mov	esp, ebp
	pop	ebp
	ret	0
?R_DrawEntitiesOnList@@YAXXZ ENDP			; R_DrawEntitiesOnList
_TEXT	ENDS
; Function compile flags: /Odtp /ZI
; File d:\!diffusion 2020\source code 2022\client-server\client\render\r_main.cpp
;	COMDAT ?R_ComputeFadingDistance@@YAMPAUcl_entity_s@@@Z
_TEXT	SEGMENT
tv207 = -168						; size = 4
tv134 = -168						; size = 4
tv302 = -164						; size = 4
tv295 = -164						; size = 4
tv284 = -164						; size = 4
tv206 = -164						; size = 4
tv133 = -164						; size = 4
$T1 = -160						; size = 12
$T2 = -148						; size = 12
$T3 = -136						; size = 12
$T4 = -124						; size = 12
_EntRenderAmt$ = -48					; size = 4
_ViewOrigin$ = -44					; size = 12
_FadeDistance$ = -32					; size = 4
_FOVfactor$ = -28					; size = 4
_EntOrigin$ = -24					; size = 12
_CenterOffset$ = -12					; size = 12
_e$ = 8							; size = 4
?R_ComputeFadingDistance@@YAMPAUcl_entity_s@@@Z PROC	; R_ComputeFadingDistance, COMDAT

; 1466 : {

	push	ebp
	mov	ebp, esp
	sub	esp, 168				; 000000a8H
	push	ebx
	push	esi
	push	edi

; 1467 : 	if( e->index >= MAX_FADING_ENTS )

	mov	eax, DWORD PTR _e$[ebp]
	cmp	DWORD PTR [eax], 8192			; 00002000H
	jl	SHORT $LN2@R_ComputeF

; 1468 : 		return 1.0f;

	fld1
	jmp	$LN1@R_ComputeF
$LN2@R_ComputeF:

; 1469 : 	
; 1470 : 	tr.fadeblend[e->index] = 1.0f;

	mov	eax, DWORD PTR _e$[ebp]
	mov	ecx, DWORD PTR [eax]
	movss	xmm0, DWORD PTR __real@3f800000
	movss	DWORD PTR ?tr@@3Uref_globals_t@@A[ecx*4+5852564], xmm0

; 1471 : 
; 1472 : 	if( r_fade_props->value <= 0 )

	mov	eax, DWORD PTR ?r_fade_props@@3PAUcvar_s@@A ; r_fade_props
	xorps	xmm0, xmm0
	comiss	xmm0, DWORD PTR [eax+12]
	jb	SHORT $LN3@R_ComputeF

; 1473 : 		return tr.fadeblend[e->index];

	mov	eax, DWORD PTR _e$[ebp]
	mov	ecx, DWORD PTR [eax]
	fld	DWORD PTR ?tr@@3Uref_globals_t@@A[ecx*4+5852564]
	jmp	$LN1@R_ComputeF
$LN3@R_ComputeF:

; 1474 : 
; 1475 : 	// fade distance is not set in the entity
; 1476 : 	if( e->curstate.iuser4 <= 0 )

	mov	eax, DWORD PTR _e$[ebp]
	cmp	DWORD PTR [eax+960], 0
	jg	SHORT $LN4@R_ComputeF

; 1477 : 		return tr.fadeblend[e->index];

	mov	eax, DWORD PTR _e$[ebp]
	mov	ecx, DWORD PTR [eax]
	fld	DWORD PTR ?tr@@3Uref_globals_t@@A[ecx*4+5852564]
	jmp	$LN1@R_ComputeF
$LN4@R_ComputeF:

; 1478 : 
; 1479 : 	// calculate correct origin (helps for brush ents)
; 1480 : 	Vector CenterOffset = (e->curstate.mins + e->curstate.maxs) / 2.f;

	push	ecx
	movss	xmm0, DWORD PTR __real@40000000
	movss	DWORD PTR [esp], xmm0
	lea	eax, DWORD PTR _CenterOffset$[ebp]
	push	eax
	mov	ecx, DWORD PTR _e$[ebp]
	add	ecx, 824				; 00000338H
	push	ecx
	lea	edx, DWORD PTR $T4[ebp]
	push	edx
	mov	ecx, DWORD PTR _e$[ebp]
	add	ecx, 812				; 0000032cH
	call	??HVector@@QBE?AV0@ABV0@@Z		; Vector::operator+
	mov	ecx, eax
	call	??KVector@@QBE?AV0@M@Z			; Vector::operator/

; 1481 : 	Vector EntOrigin = e->curstate.origin + CenterOffset;

	lea	eax, DWORD PTR _CenterOffset$[ebp]
	push	eax
	lea	ecx, DWORD PTR _EntOrigin$[ebp]
	push	ecx
	mov	ecx, DWORD PTR _e$[ebp]
	add	ecx, 704				; 000002c0H
	call	??HVector@@QBE?AV0@ABV0@@Z		; Vector::operator+

; 1482 : 
; 1483 : 	// calculate new, increased fade distance if we are zoomed
; 1484 : 	// for FOV above 70 it is assumed that distance remains unchanged
; 1485 : 	float FOVfactor = bound( 30, RI->fov_x, 70 ) / 70;

	mov	eax, DWORD PTR ?RI@@3PAUref_instance_t@@A ; RI
	movss	xmm0, DWORD PTR [eax+8]
	comiss	xmm0, DWORD PTR __real@41f00000
	jb	SHORT $LN17@R_ComputeF
	mov	ecx, DWORD PTR ?RI@@3PAUref_instance_t@@A ; RI
	movss	xmm0, DWORD PTR __real@428c0000
	comiss	xmm0, DWORD PTR [ecx+8]
	jbe	SHORT $LN15@R_ComputeF
	mov	edx, DWORD PTR ?RI@@3PAUref_instance_t@@A ; RI
	movss	xmm0, DWORD PTR [edx+8]
	movss	DWORD PTR tv133[ebp], xmm0
	jmp	SHORT $LN16@R_ComputeF
$LN15@R_ComputeF:
	movss	xmm0, DWORD PTR __real@428c0000
	movss	DWORD PTR tv133[ebp], xmm0
$LN16@R_ComputeF:
	movss	xmm0, DWORD PTR tv133[ebp]
	movss	DWORD PTR tv134[ebp], xmm0
	jmp	SHORT $LN18@R_ComputeF
$LN17@R_ComputeF:
	movss	xmm0, DWORD PTR __real@41f00000
	movss	DWORD PTR tv134[ebp], xmm0
$LN18@R_ComputeF:
	movss	xmm0, DWORD PTR tv134[ebp]
	divss	xmm0, DWORD PTR __real@428c0000
	movss	DWORD PTR _FOVfactor$[ebp], xmm0

; 1486 : 	int FadeDistance = e->curstate.iuser4 * (1 / FOVfactor);

	mov	eax, DWORD PTR _e$[ebp]
	cvtsi2ss xmm0, DWORD PTR [eax+960]
	movss	xmm1, DWORD PTR __real@3f800000
	divss	xmm1, DWORD PTR _FOVfactor$[ebp]
	mulss	xmm0, xmm1
	cvttss2si ecx, xmm0
	mov	DWORD PTR _FadeDistance$[ebp], ecx

; 1487 : 
; 1488 : 	// FIXME: entities in monitor/portal view are not counted
; 1489 : 	// they could be culled serverside already, because I only count the distance from the player (host) and entity directly
; 1490 : 	Vector ViewOrigin = tr.viewparams.vieworg;

	push	OFFSET ?tr@@3Uref_globals_t@@A+5830656
	lea	ecx, DWORD PTR _ViewOrigin$[ebp]
	call	??0Vector@@QAE@ABV0@@Z			; Vector::Vector

; 1491 : 
; 1492 : 	// player within range, no need to fade
; 1493 : 	if( (ViewOrigin - EntOrigin).Length() <= FadeDistance )

	lea	eax, DWORD PTR _EntOrigin$[ebp]
	push	eax
	lea	ecx, DWORD PTR $T3[ebp]
	push	ecx
	lea	ecx, DWORD PTR _ViewOrigin$[ebp]
	call	??GVector@@QBE?AV0@ABV0@@Z		; Vector::operator-
	mov	ecx, eax
	call	?Length@Vector@@QBEMXZ			; Vector::Length
	fstp	DWORD PTR tv284[ebp]
	cvtsi2ss xmm0, DWORD PTR _FadeDistance$[ebp]
	comiss	xmm0, DWORD PTR tv284[ebp]
	jb	SHORT $LN5@R_ComputeF

; 1494 : 		return tr.fadeblend[e->index];

	mov	eax, DWORD PTR _e$[ebp]
	mov	ecx, DWORD PTR [eax]
	fld	DWORD PTR ?tr@@3Uref_globals_t@@A[ecx*4+5852564]
	jmp	$LN1@R_ComputeF
$LN5@R_ComputeF:

; 1495 : 
; 1496 : 	//	int EntRenderAmt = 255; // set default render amt for opaque ents
; 1497 : 	int EntRenderAmt = e->curstate.renderamt;

	mov	eax, DWORD PTR _e$[ebp]
	mov	ecx, DWORD PTR [eax+764]
	mov	DWORD PTR _EntRenderAmt$[ebp], ecx

; 1498 : 	if( EntRenderAmt == 0 )

	cmp	DWORD PTR _EntRenderAmt$[ebp], 0
	jne	SHORT $LN6@R_ComputeF

; 1499 : 		EntRenderAmt = 255;

	mov	DWORD PTR _EntRenderAmt$[ebp], 255	; 000000ffH
$LN6@R_ComputeF:

; 1500 : 
; 1501 : 	// if the distance from model origin and the player exceeds desired fade distance, start fading
; 1502 : 	if( (int)(ViewOrigin - EntOrigin).Length() > FadeDistance )

	lea	eax, DWORD PTR _EntOrigin$[ebp]
	push	eax
	lea	ecx, DWORD PTR $T2[ebp]
	push	ecx
	lea	ecx, DWORD PTR _ViewOrigin$[ebp]
	call	??GVector@@QBE?AV0@ABV0@@Z		; Vector::operator-
	mov	ecx, eax
	call	?Length@Vector@@QBEMXZ			; Vector::Length
	fstp	DWORD PTR tv295[ebp]
	movss	xmm0, DWORD PTR tv295[ebp]
	cvttss2si edx, xmm0
	cmp	edx, DWORD PTR _FadeDistance$[ebp]
	jle	SHORT $LN7@R_ComputeF

; 1503 : 		tr.fadeblend[e->index] = (EntRenderAmt - ((int)(ViewOrigin - EntOrigin).Length() - FadeDistance)) / 255.0f;

	lea	eax, DWORD PTR _EntOrigin$[ebp]
	push	eax
	lea	ecx, DWORD PTR $T1[ebp]
	push	ecx
	lea	ecx, DWORD PTR _ViewOrigin$[ebp]
	call	??GVector@@QBE?AV0@ABV0@@Z		; Vector::operator-
	mov	ecx, eax
	call	?Length@Vector@@QBEMXZ			; Vector::Length
	fstp	DWORD PTR tv302[ebp]
	movss	xmm0, DWORD PTR tv302[ebp]
	cvttss2si edx, xmm0
	sub	edx, DWORD PTR _FadeDistance$[ebp]
	mov	eax, DWORD PTR _EntRenderAmt$[ebp]
	sub	eax, edx
	cvtsi2ss xmm0, eax
	divss	xmm0, DWORD PTR __real@437f0000
	mov	ecx, DWORD PTR _e$[ebp]
	mov	edx, DWORD PTR [ecx]
	movss	DWORD PTR ?tr@@3Uref_globals_t@@A[edx*4+5852564], xmm0
$LN7@R_ComputeF:

; 1504 : 
; 1505 : 	// keep the custom render mode intact, only switch to Fade if Normal or Solid (those can't fade)
; 1506 : 	if( tr.fadeblend[e->index] < 1.0f )

	mov	eax, DWORD PTR _e$[ebp]
	mov	ecx, DWORD PTR [eax]
	movss	xmm0, DWORD PTR __real@3f800000
	comiss	xmm0, DWORD PTR ?tr@@3Uref_globals_t@@A[ecx*4+5852564]
	jbe	SHORT $LN9@R_ComputeF

; 1507 : 	{
; 1508 : 		if( (e->curstate.rendermode == kRenderNormal) || (e->curstate.rendermode == kRenderTransAlpha) )

	mov	eax, DWORD PTR _e$[ebp]
	cmp	DWORD PTR [eax+760], 0
	je	SHORT $LN10@R_ComputeF
	mov	eax, DWORD PTR _e$[ebp]
	cmp	DWORD PTR [eax+760], 4
	jne	SHORT $LN9@R_ComputeF
$LN10@R_ComputeF:

; 1509 : 			e->curstate.rendermode = kRenderFade; // this is a 100% clone of Texture, the only difference is light brightness (Texture has much less - see BMODEL_KRENDERTRANSTEXTURE)

	mov	eax, DWORD PTR _e$[ebp]
	mov	DWORD PTR [eax+760], 6
$LN9@R_ComputeF:

; 1510 : 	}
; 1511 : 
; 1512 : 	tr.fadeblend[e->index] = bound( 0, tr.fadeblend[e->index], 1.0f );

	mov	eax, DWORD PTR _e$[ebp]
	mov	ecx, DWORD PTR [eax]
	movss	xmm0, DWORD PTR ?tr@@3Uref_globals_t@@A[ecx*4+5852564]
	comiss	xmm0, DWORD PTR __real@00000000
	jb	SHORT $LN21@R_ComputeF
	mov	edx, DWORD PTR _e$[ebp]
	mov	eax, DWORD PTR [edx]
	movss	xmm0, DWORD PTR __real@3f800000
	comiss	xmm0, DWORD PTR ?tr@@3Uref_globals_t@@A[eax*4+5852564]
	jbe	SHORT $LN19@R_ComputeF
	mov	ecx, DWORD PTR _e$[ebp]
	mov	edx, DWORD PTR [ecx]
	movss	xmm0, DWORD PTR ?tr@@3Uref_globals_t@@A[edx*4+5852564]
	movss	DWORD PTR tv206[ebp], xmm0
	jmp	SHORT $LN20@R_ComputeF
$LN19@R_ComputeF:
	movss	xmm0, DWORD PTR __real@3f800000
	movss	DWORD PTR tv206[ebp], xmm0
$LN20@R_ComputeF:
	movss	xmm0, DWORD PTR tv206[ebp]
	movss	DWORD PTR tv207[ebp], xmm0
	jmp	SHORT $LN22@R_ComputeF
$LN21@R_ComputeF:
	xorps	xmm0, xmm0
	movss	DWORD PTR tv207[ebp], xmm0
$LN22@R_ComputeF:
	mov	eax, DWORD PTR _e$[ebp]
	mov	ecx, DWORD PTR [eax]
	movss	xmm0, DWORD PTR tv207[ebp]
	movss	DWORD PTR ?tr@@3Uref_globals_t@@A[ecx*4+5852564], xmm0

; 1513 : 
; 1514 : 	if( tr.fadeblend[e->index] <= 0 )

	mov	eax, DWORD PTR _e$[ebp]
	mov	ecx, DWORD PTR [eax]
	xorps	xmm0, xmm0
	comiss	xmm0, DWORD PTR ?tr@@3Uref_globals_t@@A[ecx*4+5852564]
	jb	SHORT $LN11@R_ComputeF

; 1515 : 		r_stats.num_faded_ents++; // to see this, sv_fade_props must be disabled

	mov	eax, DWORD PTR ?r_stats@@3Uref_stats_t@@A+92
	add	eax, 1
	mov	DWORD PTR ?r_stats@@3Uref_stats_t@@A+92, eax
	jmp	SHORT $LN13@R_ComputeF
$LN11@R_ComputeF:

; 1516 : 	else if( tr.fadeblend[e->index] > 0 && tr.fadeblend[e->index] < 1 )

	mov	eax, DWORD PTR _e$[ebp]
	mov	ecx, DWORD PTR [eax]
	movss	xmm0, DWORD PTR ?tr@@3Uref_globals_t@@A[ecx*4+5852564]
	comiss	xmm0, DWORD PTR __real@00000000
	jbe	SHORT $LN13@R_ComputeF
	mov	eax, DWORD PTR _e$[ebp]
	mov	ecx, DWORD PTR [eax]
	movss	xmm0, DWORD PTR __real@3f800000
	comiss	xmm0, DWORD PTR ?tr@@3Uref_globals_t@@A[ecx*4+5852564]
	jbe	SHORT $LN13@R_ComputeF

; 1517 : 		r_stats.num_fading_ents++;

	mov	eax, DWORD PTR ?r_stats@@3Uref_stats_t@@A+96
	add	eax, 1
	mov	DWORD PTR ?r_stats@@3Uref_stats_t@@A+96, eax
$LN13@R_ComputeF:

; 1518 : 
; 1519 : 	return tr.fadeblend[e->index];

	mov	eax, DWORD PTR _e$[ebp]
	mov	ecx, DWORD PTR [eax]
	fld	DWORD PTR ?tr@@3Uref_globals_t@@A[ecx*4+5852564]
$LN1@R_ComputeF:

; 1520 : }

	pop	edi
	pop	esi
	pop	ebx
	mov	esp, ebp
	pop	ebp
	ret	0
?R_ComputeFadingDistance@@YAMPAUcl_entity_s@@@Z ENDP	; R_ComputeFadingDistance
_TEXT	ENDS
; Function compile flags: /Odtp /ZI
; File d:\!diffusion 2020\source code 2022\client-server\client\render\r_main.cpp
;	COMDAT ?R_DrawPostEffects@@YAXXZ
_TEXT	SEGMENT
?R_DrawPostEffects@@YAXXZ PROC				; R_DrawPostEffects, COMDAT

; 1820 : {

	push	ebp
	mov	ebp, esp
	sub	esp, 64					; 00000040H
	push	ebx
	push	esi
	push	edi

; 1821 : 	GL_Setup2D();

	call	?GL_Setup2D@@YAXXZ			; GL_Setup2D

; 1822 : 
; 1823 : 	if( RP_NORMALPASS() )

	mov	eax, DWORD PTR ?RI@@3PAUref_instance_t@@A ; RI
	mov	ecx, DWORD PTR [eax]
	and	ecx, 483				; 000001e3H
	jne	SHORT $LN3@R_DrawPost

; 1824 : 	{
; 1825 : 		if( r_bloom_sprites->value > 0 )

	mov	eax, DWORD PTR ?r_bloom_sprites@@3PAUcvar_s@@A ; r_bloom_sprites
	movss	xmm0, DWORD PTR [eax+12]
	comiss	xmm0, DWORD PTR __real@00000000
	jbe	SHORT $LN3@R_DrawPost

; 1826 : 		{
; 1827 : 			Bloom();

	call	?Bloom@@YAXXZ				; Bloom
$LN3@R_DrawPost:

; 1828 : 		//	R_BloomBlend();
; 1829 : 		}
; 1830 : 	}
; 1831 : 
; 1832 : 	// diffusionFIXME - this looks bad and I have no idea why it works like this,
; 1833 : 	// but it fixed almost all issues with sunshafts (except the bug below)
; 1834 : 	if( tr.sky_camera == NULL ) // there's no 3D sky

	cmp	DWORD PTR ?tr@@3Uref_globals_t@@A+5830648, 0
	jne	SHORT $LN4@R_DrawPost

; 1835 : 	{
; 1836 : 		if( RP_NORMALPASS() )

	mov	eax, DWORD PTR ?RI@@3PAUref_instance_t@@A ; RI
	mov	ecx, DWORD PTR [eax]
	and	ecx, 483				; 000001e3H
	jne	SHORT $LN7@R_DrawPost

; 1837 : 		{
; 1838 : 			if( FBitSet( RI->params, RP_SKYBOXRENDERED ) )

	mov	eax, DWORD PTR ?RI@@3PAUref_instance_t@@A ; RI
	mov	ecx, DWORD PTR [eax]
	and	ecx, 16384				; 00004000H
	je	SHORT $LN7@R_DrawPost

; 1839 : 				RenderSunShafts();

	call	?RenderSunShafts@@YAXXZ			; RenderSunShafts
$LN7@R_DrawPost:

; 1840 : 		}
; 1841 : 	}
; 1842 : 	else // there's a 3D sky on the map

	jmp	SHORT $LN8@R_DrawPost
$LN4@R_DrawPost:

; 1843 : 	{
; 1844 : 		// BUGBUG brushes and models in 3d skybox also generate sunshafts!
; 1845 : 		if( !FBitSet( RI->params, RP_MIRRORVIEW | RP_ENVVIEW | RP_SHADOWPASS | RP_SKYPORTALVIEW | RP_SKYBOXRENDERED ) )

	mov	eax, DWORD PTR ?RI@@3PAUref_instance_t@@A ; RI
	mov	ecx, DWORD PTR [eax]
	and	ecx, 16675				; 00004123H
	jne	SHORT $LN8@R_DrawPost

; 1846 : 			RenderSunShafts();

	call	?RenderSunShafts@@YAXXZ			; RenderSunShafts
$LN8@R_DrawPost:

; 1847 : 	}
; 1848 : 
; 1849 : 	if( RP_NORMALPASS() )

	mov	eax, DWORD PTR ?RI@@3PAUref_instance_t@@A ; RI
	mov	ecx, DWORD PTR [eax]
	and	ecx, 483				; 000001e3H
	jne	SHORT $LN9@R_DrawPost

; 1850 : 	{
; 1851 : 		ToneMap();

	call	?ToneMap@@YAXXZ				; ToneMap

; 1852 : 		ScreenWater();

	call	?ScreenWater@@YAXXZ			; ScreenWater

; 1853 : 		WaterDrops();

	call	?WaterDrops@@YAXXZ			; WaterDrops

; 1854 : 		Glitch();

	call	?Glitch@@YAXXZ				; Glitch

; 1855 : 		Monochrome();

	call	?Monochrome@@YAXXZ			; Monochrome

; 1856 : 		MotionBlur();

	call	?MotionBlur@@YAXXZ			; MotionBlur

; 1857 : 		Enhance();

	call	?Enhance@@YAXXZ				; Enhance
$LN9@R_DrawPost:

; 1858 : 	}
; 1859 : 
; 1860 : 	GaussBlur();

	call	?GaussBlur@@YAXXZ			; GaussBlur

; 1861 : 
; 1862 : 	GL_Setup3D();

	call	?GL_Setup3D@@YAXXZ			; GL_Setup3D

; 1863 : }

	pop	edi
	pop	esi
	pop	ebx
	mov	esp, ebp
	pop	ebp
	ret	0
?R_DrawPostEffects@@YAXXZ ENDP				; R_DrawPostEffects
_TEXT	ENDS
; Function compile flags: /Odtp /ZI
; File d:\!diffusion 2020\source code 2022\client-server\client\render\r_main.cpp
;	COMDAT ?R_GetPrevInstance@@YAPAUref_instance_t@@XZ
_TEXT	SEGMENT
?R_GetPrevInstance@@YAPAUref_instance_t@@XZ PROC	; R_GetPrevInstance, COMDAT

; 213  : {

	push	ebp
	mov	ebp, esp
	sub	esp, 64					; 00000040H
	push	ebx
	push	esi
	push	edi

; 214  : 	ASSERT( glState.stack_position > 0 );

	cmp	DWORD PTR ?glState@@3UglState_t@@A+112296, 0
	ja	SHORT $LN2@R_GetPrevI
	mov	eax, DWORD PTR ?__LINE__Var@?0??R_GetPrevInstance@@YAPAUref_instance_t@@XZ@4JA
	add	eax, 1
	push	eax
	push	OFFSET ??_C@_0EL@DEHOCIID@d?3?2?$CBdiffusion?52020?2source?5code?52@
	push	OFFSET ??_C@_0BI@FECCGOFJ@assert?5failed?5at?5?$CFs?3?$CFi?6?$AA@
	call	DWORD PTR ?gRenderfuncs@@3Urender_api_s@@A+236
	add	esp, 12					; 0000000cH
$LN2@R_GetPrevI:

; 215  : 
; 216  : 	return &glState.stack[glState.stack_position - 1];

	mov	eax, DWORD PTR ?glState@@3UglState_t@@A+112296
	sub	eax, 1
	imul	eax, eax, 14032
	add	eax, OFFSET ?glState@@3UglState_t@@A+40

; 217  : }

	pop	edi
	pop	esi
	pop	ebx
	mov	esp, ebp
	pop	ebp
	ret	0
?R_GetPrevInstance@@YAPAUref_instance_t@@XZ ENDP	; R_GetPrevInstance
_TEXT	ENDS
; Function compile flags: /Odtp /ZI
; File d:\!diffusion 2020\source code 2022\client-server\client\render\r_main.cpp
;	COMDAT ?R_PopRefState@@YAXXZ
_TEXT	SEGMENT
?R_PopRefState@@YAXXZ PROC				; R_PopRefState, COMDAT

; 206  : {

	push	ebp
	mov	ebp, esp
	sub	esp, 64					; 00000040H
	push	ebx
	push	esi
	push	edi

; 207  : 	if( --glState.stack_position < 0 )

	mov	eax, DWORD PTR ?glState@@3UglState_t@@A+112296
	sub	eax, 1
	mov	DWORD PTR ?glState@@3UglState_t@@A+112296, eax
	jmp	SHORT $LN2@R_PopRefSt

; 208  : 		HOST_ERROR( "Refresh stack underflow\n" );

	push	OFFSET ??_C@_0BJ@OFIEJFPO@Refresh?5stack?5underflow?6?$AA@
	call	DWORD PTR ?gRenderfuncs@@3Urender_api_s@@A+236
	add	esp, 4
$LN2@R_PopRefSt:

; 209  : 	RI = &glState.stack[glState.stack_position];

	imul	eax, DWORD PTR ?glState@@3UglState_t@@A+112296, 14032
	add	eax, OFFSET ?glState@@3UglState_t@@A+40
	mov	DWORD PTR ?RI@@3PAUref_instance_t@@A, eax ; RI

; 210  : }

	pop	edi
	pop	esi
	pop	ebx
	mov	esp, ebp
	pop	ebp
	ret	0
?R_PopRefState@@YAXXZ ENDP				; R_PopRefState
_TEXT	ENDS
; Function compile flags: /Odtp /ZI
; File d:\!diffusion 2020\source code 2022\client-server\client\render\r_main.cpp
;	COMDAT ?R_PushRefState@@YAXXZ
_TEXT	SEGMENT
?R_PushRefState@@YAXXZ PROC				; R_PushRefState, COMDAT

; 197  : {

	push	ebp
	mov	ebp, esp
	sub	esp, 64					; 00000040H
	push	ebx
	push	esi
	push	edi

; 198  : 	if( ++glState.stack_position >= MAX_REF_STACK )

	mov	eax, DWORD PTR ?glState@@3UglState_t@@A+112296
	add	eax, 1
	mov	DWORD PTR ?glState@@3UglState_t@@A+112296, eax
	cmp	DWORD PTR ?glState@@3UglState_t@@A+112296, 8
	jb	SHORT $LN2@R_PushRefS

; 199  : 		HOST_ERROR( "Refresh stack overflow\n" );

	push	OFFSET ??_C@_0BI@LAFPELPE@Refresh?5stack?5overflow?6?$AA@
	call	DWORD PTR ?gRenderfuncs@@3Urender_api_s@@A+236
	add	esp, 4
$LN2@R_PushRefS:

; 200  : 
; 201  : 	RI = &glState.stack[glState.stack_position];

	imul	eax, DWORD PTR ?glState@@3UglState_t@@A+112296, 14032
	add	eax, OFFSET ?glState@@3UglState_t@@A+40
	mov	DWORD PTR ?RI@@3PAUref_instance_t@@A, eax ; RI

; 202  : 	R_ResetRefState();

	call	?R_ResetRefState@@YAXXZ			; R_ResetRefState

; 203  : }

	pop	edi
	pop	esi
	pop	ebx
	mov	esp, ebp
	pop	ebp
	ret	0
?R_PushRefState@@YAXXZ ENDP				; R_PushRefState
_TEXT	ENDS
; Function compile flags: /Odtp /ZI
; File d:\!diffusion 2020\source code 2022\client-server\client\render\r_main.cpp
;	COMDAT ?R_ResetRefState@@YAXXZ
_TEXT	SEGMENT
_prevRI$ = -4						; size = 4
?R_ResetRefState@@YAXXZ PROC				; R_ResetRefState, COMDAT

; 160  : {

	push	ebp
	mov	ebp, esp
	sub	esp, 68					; 00000044H
	push	ebx
	push	esi
	push	edi

; 161  : 	ref_instance_t	*prevRI;
; 162  : 
; 163  : 	ASSERT( glState.stack_position > 0 );

	cmp	DWORD PTR ?glState@@3UglState_t@@A+112296, 0
	ja	SHORT $LN2@R_ResetRef
	mov	eax, DWORD PTR ?__LINE__Var@?0??R_ResetRefState@@YAXXZ@4JA
	add	eax, 3
	push	eax
	push	OFFSET ??_C@_0EL@DEHOCIID@d?3?2?$CBdiffusion?52020?2source?5code?52@
	push	OFFSET ??_C@_0BI@FECCGOFJ@assert?5failed?5at?5?$CFs?3?$CFi?6?$AA@
	call	DWORD PTR ?gRenderfuncs@@3Urender_api_s@@A+236
	add	esp, 12					; 0000000cH
$LN2@R_ResetRef:

; 164  : 
; 165  : 	prevRI = &glState.stack[glState.stack_position - 1];

	mov	eax, DWORD PTR ?glState@@3UglState_t@@A+112296
	sub	eax, 1
	imul	ecx, eax, 14032
	add	ecx, OFFSET ?glState@@3UglState_t@@A+40
	mov	DWORD PTR _prevRI$[ebp], ecx

; 166  : 	RI = &glState.stack[glState.stack_position];

	imul	eax, DWORD PTR ?glState@@3UglState_t@@A+112296, 14032
	add	eax, OFFSET ?glState@@3UglState_t@@A+40
	mov	DWORD PTR ?RI@@3PAUref_instance_t@@A, eax ; RI

; 167  : 
; 168  : 	// copy params from old refresh
; 169  : 	RI->params = prevRI->params;

	mov	eax, DWORD PTR ?RI@@3PAUref_instance_t@@A ; RI
	mov	ecx, DWORD PTR _prevRI$[ebp]
	mov	edx, DWORD PTR [ecx]
	mov	DWORD PTR [eax], edx

; 170  : 	RI->viewentity = prevRI->viewentity;

	mov	eax, DWORD PTR ?RI@@3PAUref_instance_t@@A ; RI
	mov	ecx, DWORD PTR _prevRI$[ebp]
	mov	edx, DWORD PTR [ecx+4]
	mov	DWORD PTR [eax+4], edx

; 171  : 	RI->fov_x = prevRI->fov_x;

	mov	eax, DWORD PTR ?RI@@3PAUref_instance_t@@A ; RI
	mov	ecx, DWORD PTR _prevRI$[ebp]
	mov	edx, DWORD PTR [ecx+8]
	mov	DWORD PTR [eax+8], edx

; 172  : 	RI->fov_y = prevRI->fov_y;

	mov	eax, DWORD PTR ?RI@@3PAUref_instance_t@@A ; RI
	mov	ecx, DWORD PTR _prevRI$[ebp]
	mov	edx, DWORD PTR [ecx+12]
	mov	DWORD PTR [eax+12], edx

; 173  : 	memcpy( RI->viewport, prevRI->viewport, sizeof( int[4] ));

	push	16					; 00000010H
	mov	eax, DWORD PTR _prevRI$[ebp]
	add	eax, 32					; 00000020H
	push	eax
	mov	ecx, DWORD PTR ?RI@@3PAUref_instance_t@@A ; RI
	add	ecx, 32					; 00000020H
	push	ecx
	call	_memcpy
	add	esp, 12					; 0000000cH

; 174  : 	RI->frustum = prevRI->frustum;

	mov	esi, DWORD PTR _prevRI$[ebp]
	add	esi, 48					; 00000030H
	mov	edi, DWORD PTR ?RI@@3PAUref_instance_t@@A ; RI
	add	edi, 48					; 00000030H
	mov	ecx, 31					; 0000001fH
	rep movsd

; 175  : 	RI->pvsorigin = prevRI->pvsorigin;

	mov	eax, DWORD PTR _prevRI$[ebp]
	add	eax, 180				; 000000b4H
	mov	ecx, DWORD PTR ?RI@@3PAUref_instance_t@@A ; RI
	add	ecx, 180				; 000000b4H
	mov	edx, DWORD PTR [eax]
	mov	DWORD PTR [ecx], edx
	mov	edx, DWORD PTR [eax+4]
	mov	DWORD PTR [ecx+4], edx
	mov	eax, DWORD PTR [eax+8]
	mov	DWORD PTR [ecx+8], eax

; 176  : 	RI->viewangles = prevRI->viewangles;

	mov	eax, DWORD PTR _prevRI$[ebp]
	add	eax, 192				; 000000c0H
	mov	ecx, DWORD PTR ?RI@@3PAUref_instance_t@@A ; RI
	add	ecx, 192				; 000000c0H
	mov	edx, DWORD PTR [eax]
	mov	DWORD PTR [ecx], edx
	mov	edx, DWORD PTR [eax+4]
	mov	DWORD PTR [ecx+4], edx
	mov	eax, DWORD PTR [eax+8]
	mov	DWORD PTR [ecx+8], eax

; 177  : 	RI->vieworg = prevRI->vieworg;

	mov	eax, DWORD PTR _prevRI$[ebp]
	add	eax, 204				; 000000ccH
	mov	ecx, DWORD PTR ?RI@@3PAUref_instance_t@@A ; RI
	add	ecx, 204				; 000000ccH
	mov	edx, DWORD PTR [eax]
	mov	DWORD PTR [ecx], edx
	mov	edx, DWORD PTR [eax+4]
	mov	DWORD PTR [ecx+4], edx
	mov	eax, DWORD PTR [eax+8]
	mov	DWORD PTR [ecx+8], eax

; 178  : 	RI->vforward = prevRI->vforward;

	mov	eax, DWORD PTR _prevRI$[ebp]
	add	eax, 228				; 000000e4H
	mov	ecx, DWORD PTR ?RI@@3PAUref_instance_t@@A ; RI
	add	ecx, 228				; 000000e4H
	mov	edx, DWORD PTR [eax]
	mov	DWORD PTR [ecx], edx
	mov	edx, DWORD PTR [eax+4]
	mov	DWORD PTR [ecx+4], edx
	mov	eax, DWORD PTR [eax+8]
	mov	DWORD PTR [ecx+8], eax

; 179  : 	RI->vright = prevRI->vright;

	mov	eax, DWORD PTR _prevRI$[ebp]
	add	eax, 240				; 000000f0H
	mov	ecx, DWORD PTR ?RI@@3PAUref_instance_t@@A ; RI
	add	ecx, 240				; 000000f0H
	mov	edx, DWORD PTR [eax]
	mov	DWORD PTR [ecx], edx
	mov	edx, DWORD PTR [eax+4]
	mov	DWORD PTR [ecx+4], edx
	mov	eax, DWORD PTR [eax+8]
	mov	DWORD PTR [ecx+8], eax

; 180  : 	RI->vup = prevRI->vup;

	mov	eax, DWORD PTR _prevRI$[ebp]
	add	eax, 252				; 000000fcH
	mov	ecx, DWORD PTR ?RI@@3PAUref_instance_t@@A ; RI
	add	ecx, 252				; 000000fcH
	mov	edx, DWORD PTR [eax]
	mov	DWORD PTR [ecx], edx
	mov	edx, DWORD PTR [eax+4]
	mov	DWORD PTR [ecx+4], edx
	mov	eax, DWORD PTR [eax+8]
	mov	DWORD PTR [ecx+8], eax

; 181  : 
; 182  : 	// store PVS data
; 183  : 	RI->viewleaf = prevRI->viewleaf;

	mov	eax, DWORD PTR ?RI@@3PAUref_instance_t@@A ; RI
	mov	ecx, DWORD PTR _prevRI$[ebp]
	mov	edx, DWORD PTR [ecx+172]
	mov	DWORD PTR [eax+172], edx

; 184  : 	RI->oldviewleaf = prevRI->oldviewleaf;

	mov	eax, DWORD PTR ?RI@@3PAUref_instance_t@@A ; RI
	mov	ecx, DWORD PTR _prevRI$[ebp]
	mov	edx, DWORD PTR [ecx+176]
	mov	DWORD PTR [eax+176], edx

; 185  : 	memcpy( RI->visbytes, prevRI->visbytes, MAX_MAP_LEAFS / 8 );

	push	4095					; 00000fffH
	mov	eax, DWORD PTR _prevRI$[ebp]
	add	eax, 684				; 000002acH
	push	eax
	mov	ecx, DWORD PTR ?RI@@3PAUref_instance_t@@A ; RI
	add	ecx, 684				; 000002acH
	push	ecx
	call	_memcpy
	add	esp, 12					; 0000000cH

; 186  : 
; 187  : 	// reset some global pointers
; 188  : 	RI->num_subview_faces = 0;

	mov	eax, DWORD PTR ?RI@@3PAUref_instance_t@@A ; RI
	mov	DWORD PTR [eax+14000], 0

; 189  : 	RI->currententity = NULL;

	mov	eax, DWORD PTR ?RI@@3PAUref_instance_t@@A ; RI
	mov	DWORD PTR [eax+16], 0

; 190  : 	RI->currentmodel = NULL;

	mov	eax, DWORD PTR ?RI@@3PAUref_instance_t@@A ; RI
	mov	DWORD PTR [eax+20], 0

; 191  : 	RI->currentlight = NULL;

	mov	eax, DWORD PTR ?RI@@3PAUref_instance_t@@A ; RI
	mov	DWORD PTR [eax+24], 0

; 192  : 	RI->reject_face = NULL;

	mov	eax, DWORD PTR ?RI@@3PAUref_instance_t@@A ; RI
	mov	DWORD PTR [eax+14004], 0

; 193  : 	GL_BindShader( NULL );

	push	0
	call	?GL_BindShader@@YAXPAUglsl_prog_s@@@Z	; GL_BindShader
	add	esp, 4

; 194  : }

	pop	edi
	pop	esi
	pop	ebx
	mov	esp, ebp
	pop	ebp
	ret	0
?R_ResetRefState@@YAXXZ ENDP				; R_ResetRefState
_TEXT	ENDS
; Function compile flags: /Odtp /ZI
; File d:\!diffusion 2020\source code 2022\client-server\client\render\r_main.cpp
;	COMDAT ?R_InitRefState@@YAXXZ
_TEXT	SEGMENT
?R_InitRefState@@YAXXZ PROC				; R_InitRefState, COMDAT

; 152  : {

	push	ebp
	mov	ebp, esp
	sub	esp, 64					; 00000040H
	push	ebx
	push	esi
	push	edi

; 153  : 	memset( glState.stack, 0, sizeof( glState.stack ));

	push	112256					; 0001b680H
	push	0
	push	OFFSET ?glState@@3UglState_t@@A+40
	call	_memset
	add	esp, 12					; 0000000cH

; 154  : 	glState.stack_position = 0;

	mov	DWORD PTR ?glState@@3UglState_t@@A+112296, 0

; 155  : 
; 156  : 	RI = &glState.stack[glState.stack_position];

	imul	eax, DWORD PTR ?glState@@3UglState_t@@A+112296, 14032
	add	eax, OFFSET ?glState@@3UglState_t@@A+40
	mov	DWORD PTR ?RI@@3PAUref_instance_t@@A, eax ; RI

; 157  : }

	pop	edi
	pop	esi
	pop	ebx
	mov	esp, ebp
	pop	ebp
	ret	0
?R_InitRefState@@YAXXZ ENDP				; R_InitRefState
_TEXT	ENDS
; Function compile flags: /Odtp /ZI
; File d:\!diffusion 2020\source code 2022\client-server\client\render\r_main.cpp
;	COMDAT ?R_SetupFrustum@@YAXXZ
_TEXT	SEGMENT
tv90 = -144						; size = 4
tv186 = -140						; size = 4
_cullMatrix$ = -72					; size = 64
_ov$ = -8						; size = 4
__$ArrayPad$ = -4					; size = 4
?R_SetupFrustum@@YAXXZ PROC				; R_SetupFrustum, COMDAT

; 877  : {

	push	ebp
	mov	ebp, esp
	sub	esp, 144				; 00000090H
	mov	eax, DWORD PTR ___security_cookie
	xor	eax, ebp
	mov	DWORD PTR __$ArrayPad$[ebp], eax
	push	ebx
	push	esi
	push	edi

; 878  : 	const ref_overview_t *ov = GET_OVERVIEW_PARMS();

	call	DWORD PTR ?gRenderfuncs@@3Urender_api_s@@A+200
	mov	DWORD PTR _ov$[ebp], eax

; 879  : 	matrix4x4 cullMatrix;

	lea	ecx, DWORD PTR _cullMatrix$[ebp]
	call	??0matrix4x4@@QAE@XZ			; matrix4x4::matrix4x4

; 880  : 
; 881  : 	if( RP_NORMALPASS() && ( tr.viewparams.waterlevel >= 3 ))
; 882  : 	{
; 883  : 		// diffusion - disable screen jerking underwater
; 884  : 	//	RI->fov_x = atan( tan( DEG2RAD( RI->fov_x ) / 2 ) * ( 0.97 + sin( tr.time * 1.5 ) * 0.03 )) * 2 / (M_PI / 180.0);
; 885  : 	//	RI->fov_y = atan( tan( DEG2RAD( RI->fov_y ) / 2 ) * ( 1.03 - sin( tr.time * 1.5 ) * 0.03 )) * 2 / (M_PI / 180.0);
; 886  : 	}
; 887  : 
; 888  : 	// build the transformation matrix for the given view angles
; 889  : 	AngleVectors( RI->viewangles, RI->vforward, RI->vright, RI->vup );

	mov	ecx, DWORD PTR ?RI@@3PAUref_instance_t@@A ; RI
	add	ecx, 252				; 000000fcH
	call	??BVector@@QAEPAMXZ			; Vector::operator float *
	push	eax
	mov	ecx, DWORD PTR ?RI@@3PAUref_instance_t@@A ; RI
	add	ecx, 240				; 000000f0H
	call	??BVector@@QAEPAMXZ			; Vector::operator float *
	push	eax
	mov	ecx, DWORD PTR ?RI@@3PAUref_instance_t@@A ; RI
	add	ecx, 228				; 000000e4H
	call	??BVector@@QAEPAMXZ			; Vector::operator float *
	push	eax
	mov	ecx, DWORD PTR ?RI@@3PAUref_instance_t@@A ; RI
	add	ecx, 192				; 000000c0H
	call	??BVector@@QAEPAMXZ			; Vector::operator float *
	push	eax
	call	DWORD PTR ?gEngfuncs@@3Ucl_enginefuncs_s@@A+96
	add	esp, 16					; 00000010H

; 890  : 	RI->farClip = Q_max( 256.0f, R_GetFarClip());

	call	?R_GetFarClip@@YAMXZ			; R_GetFarClip
	fstp	DWORD PTR tv186[ebp]
	movss	xmm0, DWORD PTR __real@43800000
	comiss	xmm0, DWORD PTR tv186[ebp]
	jbe	SHORT $LN6@R_SetupFru
	movss	xmm0, DWORD PTR __real@43800000
	movss	DWORD PTR tv90[ebp], xmm0
	jmp	SHORT $LN7@R_SetupFru
$LN6@R_SetupFru:
	call	?R_GetFarClip@@YAMXZ			; R_GetFarClip
	fstp	DWORD PTR tv90[ebp]
$LN7@R_SetupFru:
	mov	eax, DWORD PTR ?RI@@3PAUref_instance_t@@A ; RI
	movss	xmm0, DWORD PTR tv90[ebp]
	movss	DWORD PTR [eax+264], xmm0

; 891  : 	cullMatrix.SetForward( RI->vforward );

	mov	eax, DWORD PTR ?RI@@3PAUref_instance_t@@A ; RI
	add	eax, 228				; 000000e4H
	push	eax
	lea	ecx, DWORD PTR _cullMatrix$[ebp]
	call	?SetForward@matrix4x4@@QAEXABVVector@@@Z ; matrix4x4::SetForward

; 892  : 	cullMatrix.SetRight( RI->vright );

	mov	eax, DWORD PTR ?RI@@3PAUref_instance_t@@A ; RI
	add	eax, 240				; 000000f0H
	push	eax
	lea	ecx, DWORD PTR _cullMatrix$[ebp]
	call	?SetRight@matrix4x4@@QAEXABVVector@@@Z	; matrix4x4::SetRight

; 893  : 	cullMatrix.SetUp( RI->vup );

	mov	eax, DWORD PTR ?RI@@3PAUref_instance_t@@A ; RI
	add	eax, 252				; 000000fcH
	push	eax
	lea	ecx, DWORD PTR _cullMatrix$[ebp]
	call	?SetUp@matrix4x4@@QAEXABVVector@@@Z	; matrix4x4::SetUp

; 894  : 	cullMatrix.SetOrigin( RI->vieworg );

	mov	eax, DWORD PTR ?RI@@3PAUref_instance_t@@A ; RI
	add	eax, 204				; 000000ccH
	push	eax
	lea	ecx, DWORD PTR _cullMatrix$[ebp]
	call	?SetOrigin@matrix4x4@@QAEXABVVector@@@Z	; matrix4x4::SetOrigin

; 895  : 
; 896  : 	if( FBitSet( RI->params, RP_OVERVIEW ))

	mov	eax, DWORD PTR ?RI@@3PAUref_instance_t@@A ; RI
	mov	ecx, DWORD PTR [eax]
	and	ecx, 512				; 00000200H
	je	SHORT $LN3@R_SetupFru

; 897  : 		RI->frustum.InitOrthogonal( cullMatrix, ov->xLeft, ov->xRight, ov->yTop, ov->yBottom, ov->zNear, ov->zFar );

	mov	eax, DWORD PTR _ov$[ebp]
	push	ecx
	movss	xmm0, DWORD PTR [eax+32]
	movss	DWORD PTR [esp], xmm0
	mov	ecx, DWORD PTR _ov$[ebp]
	push	ecx
	movss	xmm0, DWORD PTR [ecx+36]
	movss	DWORD PTR [esp], xmm0
	mov	edx, DWORD PTR _ov$[ebp]
	push	ecx
	movss	xmm0, DWORD PTR [edx+28]
	movss	DWORD PTR [esp], xmm0
	mov	eax, DWORD PTR _ov$[ebp]
	push	ecx
	movss	xmm0, DWORD PTR [eax+24]
	movss	DWORD PTR [esp], xmm0
	mov	ecx, DWORD PTR _ov$[ebp]
	push	ecx
	movss	xmm0, DWORD PTR [ecx+20]
	movss	DWORD PTR [esp], xmm0
	mov	edx, DWORD PTR _ov$[ebp]
	push	ecx
	movss	xmm0, DWORD PTR [edx+16]
	movss	DWORD PTR [esp], xmm0
	lea	eax, DWORD PTR _cullMatrix$[ebp]
	push	eax
	mov	ecx, DWORD PTR ?RI@@3PAUref_instance_t@@A ; RI
	add	ecx, 48					; 00000030H
	call	?InitOrthogonal@CFrustum@@QAEXABVmatrix4x4@@MMMMMM@Z ; CFrustum::InitOrthogonal
	jmp	SHORT $LN4@R_SetupFru
$LN3@R_SetupFru:

; 898  : 	else RI->frustum.InitProjection( cullMatrix, 0.0f, RI->farClip, RI->fov_x, RI->fov_y ); // NOTE: we ignore nearplane here (mirrors only)

	mov	eax, DWORD PTR ?RI@@3PAUref_instance_t@@A ; RI
	push	ecx
	movss	xmm0, DWORD PTR [eax+12]
	movss	DWORD PTR [esp], xmm0
	mov	ecx, DWORD PTR ?RI@@3PAUref_instance_t@@A ; RI
	push	ecx
	movss	xmm0, DWORD PTR [ecx+8]
	movss	DWORD PTR [esp], xmm0
	mov	edx, DWORD PTR ?RI@@3PAUref_instance_t@@A ; RI
	push	ecx
	movss	xmm0, DWORD PTR [edx+264]
	movss	DWORD PTR [esp], xmm0
	push	ecx
	xorps	xmm0, xmm0
	movss	DWORD PTR [esp], xmm0
	lea	eax, DWORD PTR _cullMatrix$[ebp]
	push	eax
	mov	ecx, DWORD PTR ?RI@@3PAUref_instance_t@@A ; RI
	add	ecx, 48					; 00000030H
	call	?InitProjection@CFrustum@@QAEXABVmatrix4x4@@MMMM@Z ; CFrustum::InitProjection
$LN4@R_SetupFru:

; 899  : 
; 900  : 	tr.lodScale = tan( DEG2RAD( RI->fov_x ) * 0.5f );

	mov	eax, DWORD PTR ?RI@@3PAUref_instance_t@@A ; RI
	movss	xmm0, DWORD PTR [eax+8]
	mulss	xmm0, DWORD PTR __real@3c8efa35
	mulss	xmm0, DWORD PTR __real@3f000000
	cvtss2sd xmm0, xmm0
	sub	esp, 8
	movsd	QWORD PTR [esp], xmm0
	call	_tan
	add	esp, 8
	fstp	DWORD PTR ?tr@@3Uref_globals_t@@A+5830916

; 901  : }

	pop	edi
	pop	esi
	pop	ebx
	mov	ecx, DWORD PTR __$ArrayPad$[ebp]
	xor	ecx, ebp
	call	@__security_check_cookie@4
	mov	esp, ebp
	pop	ebp
	ret	0
?R_SetupFrustum@@YAXXZ ENDP				; R_SetupFrustum
_TEXT	ENDS
; Function compile flags: /Odtp /ZI
; File d:\!diffusion 2020\source code 2022\client-server\client\render\r_main.cpp
;	COMDAT ?R_FindViewLeaf@@YAXXZ
_TEXT	SEGMENT
?R_FindViewLeaf@@YAXXZ PROC				; R_FindViewLeaf, COMDAT

; 1043 : {

	push	ebp
	mov	ebp, esp
	sub	esp, 68					; 00000044H
	push	ebx
	push	esi
	push	edi

; 1044 : 	RI->oldviewleaf = RI->viewleaf;

	mov	eax, DWORD PTR ?RI@@3PAUref_instance_t@@A ; RI
	mov	ecx, DWORD PTR ?RI@@3PAUref_instance_t@@A ; RI
	mov	edx, DWORD PTR [ecx+172]
	mov	DWORD PTR [eax+176], edx

; 1045 : 	RI->viewleaf = Mod_PointInLeaf( RI->pvsorigin, worldmodel->nodes );

	mov	eax, DWORD PTR ?worldmodel@@3PAUmodel_s@@A ; worldmodel
	mov	ecx, DWORD PTR [eax+164]
	push	ecx
	mov	edx, DWORD PTR ?RI@@3PAUref_instance_t@@A ; RI
	add	edx, 180				; 000000b4H
	sub	esp, 12					; 0000000cH
	mov	ecx, esp
	push	edx
	call	??0Vector@@QAE@ABV0@@Z			; Vector::Vector
	call	?Mod_PointInLeaf@@YAPAUmleaf_s@@VVector@@PAUmnode_s@@@Z ; Mod_PointInLeaf
	add	esp, 16					; 00000010H
	mov	ecx, DWORD PTR ?RI@@3PAUref_instance_t@@A ; RI
	mov	DWORD PTR [ecx+172], eax

; 1046 : }

	pop	edi
	pop	esi
	pop	ebx
	mov	esp, ebp
	pop	ebp
	ret	0
?R_FindViewLeaf@@YAXXZ ENDP				; R_FindViewLeaf
_TEXT	ENDS
; Function compile flags: /Odtp /ZI
; File d:\!diffusion 2020\source code 2022\client-server\client\render\r_main.cpp
;	COMDAT ?R_AllowFog@@YAXH@Z
_TEXT	SEGMENT
_allowed$ = 8						; size = 4
?R_AllowFog@@YAXH@Z PROC				; R_AllowFog, COMDAT

; 236  : {

	push	ebp
	mov	ebp, esp
	sub	esp, 64					; 00000040H
	push	ebx
	push	esi
	push	edi

; 237  : 	static int	isFogEnabled;
; 238  : 
; 239  : 	if( allowed )

	cmp	DWORD PTR _allowed$[ebp], 0
	je	SHORT $LN2@R_AllowFog

; 240  : 	{
; 241  : 		if( isFogEnabled )

	cmp	DWORD PTR ?isFogEnabled@?1??R_AllowFog@@YAXH@Z@4HA, 0
	je	SHORT $LN4@R_AllowFog

; 242  : 			pglEnable( GL_FOG );

	push	2912					; 00000b60H
	call	DWORD PTR ?pglEnable@@3P6GXI@ZA		; pglEnable
$LN4@R_AllowFog:

; 243  : 	}
; 244  : 	else

	jmp	SHORT $LN1@R_AllowFog
$LN2@R_AllowFog:

; 245  : 	{
; 246  : 		isFogEnabled = pglIsEnabled( GL_FOG );

	push	2912					; 00000b60H
	call	DWORD PTR ?pglIsEnabled@@3P6GEI@ZA	; pglIsEnabled
	movzx	eax, al
	mov	DWORD PTR ?isFogEnabled@?1??R_AllowFog@@YAXH@Z@4HA, eax

; 247  : 
; 248  : 		if( isFogEnabled )

	cmp	DWORD PTR ?isFogEnabled@?1??R_AllowFog@@YAXH@Z@4HA, 0
	je	SHORT $LN1@R_AllowFog

; 249  : 			pglDisable( GL_FOG );

	push	2912					; 00000b60H
	call	DWORD PTR ?pglDisable@@3P6GXI@ZA	; pglDisable
$LN1@R_AllowFog:

; 250  : 	}
; 251  : }

	pop	edi
	pop	esi
	pop	ebx
	mov	esp, ebp
	pop	ebp
	ret	0
?R_AllowFog@@YAXH@Z ENDP				; R_AllowFog
_TEXT	ENDS
; Function compile flags: /Odtp /ZI
; File d:\!diffusion 2020\source code 2022\client-server\client\render\r_main.cpp
;	COMDAT ?R_GetNameForView@@YAPBDXZ
_TEXT	SEGMENT
$T1 = -68						; size = 4
?R_GetNameForView@@YAPBDXZ PROC				; R_GetNameForView, COMDAT

; 128  : {

	push	ebp
	mov	ebp, esp
	sub	esp, 68					; 00000044H
	push	ebx
	push	esi
	push	edi

; 129  : 	static char	passName[256];
; 130  : 
; 131  : 	passName[0] = '\0';

	mov	eax, 1
	imul	ecx, eax, 0
	mov	DWORD PTR $T1[ebp], ecx
	cmp	DWORD PTR $T1[ebp], 256			; 00000100H
	jae	SHORT $LN10@R_GetNameF
	jmp	SHORT $LN11@R_GetNameF
$LN10@R_GetNameF:
	call	___report_rangecheckfailure
$LN11@R_GetNameF:
	mov	edx, DWORD PTR $T1[ebp]
	mov	BYTE PTR ?passName@?1??R_GetNameForView@@YAPBDXZ@4PADA[edx], 0

; 132  : 
; 133  : 	if( FBitSet( RI->params, RP_MIRRORVIEW ))

	mov	eax, DWORD PTR ?RI@@3PAUref_instance_t@@A ; RI
	mov	ecx, DWORD PTR [eax]
	and	ecx, 1
	je	SHORT $LN2@R_GetNameF

; 134  : 		Q_strncat( passName, "mirror ", sizeof( passName ));

	push	256					; 00000100H
	push	OFFSET ??_C@_07KLFBPMGG@mirror?5?$AA@
	push	OFFSET ?passName@?1??R_GetNameForView@@YAPBDXZ@4PADA
	call	?Q_strncat@@YAIPADPBDI@Z		; Q_strncat
	add	esp, 12					; 0000000cH
$LN2@R_GetNameF:

; 135  : 	if( FBitSet( RI->params, RP_ENVVIEW ))

	mov	eax, DWORD PTR ?RI@@3PAUref_instance_t@@A ; RI
	mov	ecx, DWORD PTR [eax]
	and	ecx, 2
	je	SHORT $LN3@R_GetNameF

; 136  : 		Q_strncat( passName, "cubemap ", sizeof( passName ));	

	push	256					; 00000100H
	push	OFFSET ??_C@_08PPPFGFIJ@cubemap?5?$AA@
	push	OFFSET ?passName@?1??R_GetNameForView@@YAPBDXZ@4PADA
	call	?Q_strncat@@YAIPADPBDI@Z		; Q_strncat
	add	esp, 12					; 0000000cH
$LN3@R_GetNameF:

; 137  : 	if( FBitSet( RI->params, RP_SKYPORTALVIEW ))

	mov	eax, DWORD PTR ?RI@@3PAUref_instance_t@@A ; RI
	mov	ecx, DWORD PTR [eax]
	and	ecx, 32					; 00000020H
	je	SHORT $LN4@R_GetNameF

; 138  : 		Q_strncat( passName, "3dsky ", sizeof( passName ));	

	push	256					; 00000100H
	push	OFFSET ??_C@_06PEIMEPGC@3dsky?5?$AA@
	push	OFFSET ?passName@?1??R_GetNameForView@@YAPBDXZ@4PADA
	call	?Q_strncat@@YAIPADPBDI@Z		; Q_strncat
	add	esp, 12					; 0000000cH
$LN4@R_GetNameF:

; 139  : 	if( FBitSet( RI->params, RP_PORTALVIEW ))

	mov	eax, DWORD PTR ?RI@@3PAUref_instance_t@@A ; RI
	mov	ecx, DWORD PTR [eax]
	and	ecx, 64					; 00000040H
	je	SHORT $LN5@R_GetNameF

; 140  : 		Q_strncat( passName, "portal ", sizeof( passName ));	

	push	256					; 00000100H
	push	OFFSET ??_C@_07FGBIOBEP@portal?5?$AA@
	push	OFFSET ?passName@?1??R_GetNameForView@@YAPBDXZ@4PADA
	call	?Q_strncat@@YAIPADPBDI@Z		; Q_strncat
	add	esp, 12					; 0000000cH
$LN5@R_GetNameF:

; 141  : 	if( FBitSet( RI->params, RP_SCREENVIEW ))

	mov	eax, DWORD PTR ?RI@@3PAUref_instance_t@@A ; RI
	mov	ecx, DWORD PTR [eax]
	and	ecx, 128				; 00000080H
	je	SHORT $LN6@R_GetNameF

; 142  : 		Q_strncat( passName, "screen ", sizeof( passName ));	

	push	256					; 00000100H
	push	OFFSET ??_C@_07MOFBHBND@screen?5?$AA@
	push	OFFSET ?passName@?1??R_GetNameForView@@YAPBDXZ@4PADA
	call	?Q_strncat@@YAIPADPBDI@Z		; Q_strncat
	add	esp, 12					; 0000000cH
$LN6@R_GetNameF:

; 143  : 	if( FBitSet( RI->params, RP_SHADOWPASS ))

	mov	eax, DWORD PTR ?RI@@3PAUref_instance_t@@A ; RI
	mov	ecx, DWORD PTR [eax]
	and	ecx, 256				; 00000100H
	je	SHORT $LN7@R_GetNameF

; 144  : 		Q_strncat( passName, "shadow ", sizeof( passName ));

	push	256					; 00000100H
	push	OFFSET ??_C@_07IDOAEDH@shadow?5?$AA@
	push	OFFSET ?passName@?1??R_GetNameForView@@YAPBDXZ@4PADA
	call	?Q_strncat@@YAIPADPBDI@Z		; Q_strncat
	add	esp, 12					; 0000000cH
$LN7@R_GetNameF:

; 145  : 	if( RP_NORMALPASS( ))

	mov	eax, DWORD PTR ?RI@@3PAUref_instance_t@@A ; RI
	mov	ecx, DWORD PTR [eax]
	and	ecx, 483				; 000001e3H
	jne	SHORT $LN8@R_GetNameF

; 146  : 		Q_strncat( passName, "general ", sizeof( passName ));

	push	256					; 00000100H
	push	OFFSET ??_C@_08OOIODFJN@general?5?$AA@
	push	OFFSET ?passName@?1??R_GetNameForView@@YAPBDXZ@4PADA
	call	?Q_strncat@@YAIPADPBDI@Z		; Q_strncat
	add	esp, 12					; 0000000cH
$LN8@R_GetNameF:

; 147  : 
; 148  : 	return passName;	

	mov	eax, OFFSET ?passName@?1??R_GetNameForView@@YAPBDXZ@4PADA
$LN9@R_GetNameF:

; 149  : }

	pop	edi
	pop	esi
	pop	ebx
	mov	esp, ebp
	pop	ebp
	ret	0
?R_GetNameForView@@YAPBDXZ ENDP				; R_GetNameForView
_TEXT	ENDS
; Function compile flags: /Odtp /ZI
; File d:\!diffusion 2020\source code 2022\client-server\client\render\r_main.cpp
;	COMDAT ?R_TransformForEntity@@YAXABVmatrix4x4@@@Z
_TEXT	SEGMENT
$T1 = -136						; size = 64
__$ArrayPad$ = -4					; size = 4
_transform$ = 8						; size = 4
?R_TransformForEntity@@YAXABVmatrix4x4@@@Z PROC		; R_TransformForEntity, COMDAT

; 1028 : {

	push	ebp
	mov	ebp, esp
	sub	esp, 140				; 0000008cH
	mov	eax, DWORD PTR ___security_cookie
	xor	eax, ebp
	mov	DWORD PTR __$ArrayPad$[ebp], eax
	push	ebx
	push	esi
	push	edi

; 1029 : 	RI->objectMatrix = transform;

	mov	eax, DWORD PTR _transform$[ebp]
	push	eax
	mov	ecx, DWORD PTR ?RI@@3PAUref_instance_t@@A ; RI
	add	ecx, 364				; 0000016cH
	call	??4matrix4x4@@QAEAAV0@ABV0@@Z		; matrix4x4::operator=

; 1030 : 	RI->modelviewMatrix = RI->worldviewMatrix.ConcatTransforms( RI->objectMatrix );

	mov	eax, DWORD PTR ?RI@@3PAUref_instance_t@@A ; RI
	add	eax, 364				; 0000016cH
	sub	esp, 64					; 00000040H
	mov	ecx, esp
	push	eax
	call	??0matrix4x4@@QAE@ABV0@@Z
	lea	ecx, DWORD PTR $T1[ebp]
	push	ecx
	mov	ecx, DWORD PTR ?RI@@3PAUref_instance_t@@A ; RI
	add	ecx, 428				; 000001acH
	call	?ConcatTransforms@matrix4x4@@QAE?AV1@V1@@Z ; matrix4x4::ConcatTransforms
	push	eax
	mov	ecx, DWORD PTR ?RI@@3PAUref_instance_t@@A ; RI
	add	ecx, 492				; 000001ecH
	call	??4matrix4x4@@QAEAAV0@ABV0@@Z		; matrix4x4::operator=

; 1031 : 
; 1032 : 	pglMatrixMode( GL_MODELVIEW );

	push	5888					; 00001700H
	call	DWORD PTR ?pglMatrixMode@@3P6GXI@ZA	; pglMatrixMode

; 1033 : 	GL_LoadMatrix( RI->modelviewMatrix );

	mov	eax, DWORD PTR ?RI@@3PAUref_instance_t@@A ; RI
	add	eax, 492				; 000001ecH
	sub	esp, 64					; 00000040H
	mov	ecx, esp
	push	eax
	call	??0matrix4x4@@QAE@ABV0@@Z
	call	?GL_LoadMatrix@@YAXVmatrix4x4@@@Z	; GL_LoadMatrix
	add	esp, 64					; 00000040H

; 1034 : 	tr.modelviewIdentity = false;

	mov	BYTE PTR ?tr@@3Uref_globals_t@@A+5830920, 0

; 1035 : }

	pop	edi
	pop	esi
	pop	ebx
	mov	ecx, DWORD PTR __$ArrayPad$[ebp]
	xor	ecx, ebp
	call	@__security_check_cookie@4
	mov	esp, ebp
	pop	ebp
	ret	0
?R_TransformForEntity@@YAXABVmatrix4x4@@@Z ENDP		; R_TransformForEntity
_TEXT	ENDS
; Function compile flags: /Odtp /ZI
; File d:\!diffusion 2020\source code 2022\client-server\client\render\r_main.cpp
;	COMDAT ?R_TranslateForEntity@@YAXPAUcl_entity_s@@@Z
_TEXT	SEGMENT
$T1 = -208						; size = 64
$T2 = -140						; size = 64
_glm$3 = -12						; size = 4
_scale$ = -8						; size = 4
__$ArrayPad$ = -4					; size = 4
_e$ = 8							; size = 4
?R_TranslateForEntity@@YAXPAUcl_entity_s@@@Z PROC	; R_TranslateForEntity, COMDAT

; 994  : {

	push	ebp
	mov	ebp, esp
	sub	esp, 212				; 000000d4H
	mov	eax, DWORD PTR ___security_cookie
	xor	eax, ebp
	mov	DWORD PTR __$ArrayPad$[ebp], eax
	push	ebx
	push	esi
	push	edi

; 995  : 	float	scale = 1.0f;

	movss	xmm0, DWORD PTR __real@3f800000
	movss	DWORD PTR _scale$[ebp], xmm0

; 996  : 
; 997  : 	if( e == GET_ENTITY( 0 ))

	push	0
	call	DWORD PTR ?gEngfuncs@@3Ucl_enginefuncs_s@@A+212
	add	esp, 4
	cmp	DWORD PTR _e$[ebp], eax
	jne	SHORT $LN2@R_Translat

; 998  : 	{
; 999  : 		R_LoadIdentity();

	call	?R_LoadIdentity@@YAXXZ			; R_LoadIdentity

; 1000 : 		return;

	jmp	$LN1@R_Translat
$LN2@R_Translat:

; 1001 : 	}
; 1002 : 
; 1003 : 	if( e->model->type != mod_brush && e->curstate.scale > 0.0f )

	mov	eax, DWORD PTR _e$[ebp]
	mov	ecx, DWORD PTR [eax+2964]
	cmp	DWORD PTR [ecx+68], 0
	je	SHORT $LN3@R_Translat
	mov	eax, DWORD PTR _e$[ebp]
	movss	xmm0, DWORD PTR [eax+752]
	comiss	xmm0, DWORD PTR __real@00000000
	jbe	SHORT $LN3@R_Translat

; 1004 : 		scale = e->curstate.scale;

	mov	eax, DWORD PTR _e$[ebp]
	movss	xmm0, DWORD PTR [eax+752]
	movss	DWORD PTR _scale$[ebp], xmm0
$LN3@R_Translat:

; 1005 : 
; 1006 : 	if( e->model->type == mod_brush )

	mov	eax, DWORD PTR _e$[ebp]
	mov	ecx, DWORD PTR [eax+2964]
	cmp	DWORD PTR [ecx+68], 0
	jne	SHORT $LN4@R_Translat

; 1007 : 	{
; 1008 : 		gl_state_t *glm = &tr.cached_state[e->hCachedMatrix];

	mov	eax, DWORD PTR _e$[ebp]
	movzx	ecx, WORD PTR [eax+2976]
	shl	ecx, 7
	add	ecx, OFFSET ?tr@@3Uref_globals_t@@A+6892
	mov	DWORD PTR _glm$3[ebp], ecx

; 1009 : 		RI->objectMatrix = glm->transform;

	mov	eax, DWORD PTR _glm$3[ebp]
	add	eax, 64					; 00000040H
	push	eax
	mov	ecx, DWORD PTR ?RI@@3PAUref_instance_t@@A ; RI
	add	ecx, 364				; 0000016cH
	call	??4matrix4x4@@QAEAAV0@ABV0@@Z		; matrix4x4::operator=

; 1010 : 	}
; 1011 : 	else

	jmp	SHORT $LN5@R_Translat
$LN4@R_Translat:

; 1012 : 	{
; 1013 : 		RI->objectMatrix = matrix4x4( e->origin, g_vecZero, scale );

	push	ecx
	movss	xmm0, DWORD PTR _scale$[ebp]
	movss	DWORD PTR [esp], xmm0
	push	OFFSET ?g_vecZero@@3VVector@@B		; g_vecZero
	mov	eax, DWORD PTR _e$[ebp]
	add	eax, 2888				; 00000b48H
	push	eax
	lea	ecx, DWORD PTR $T2[ebp]
	call	??0matrix4x4@@QAE@ABVVector@@0M@Z	; matrix4x4::matrix4x4
	push	eax
	mov	ecx, DWORD PTR ?RI@@3PAUref_instance_t@@A ; RI
	add	ecx, 364				; 0000016cH
	call	??4matrix4x4@@QAEAAV0@ABV0@@Z		; matrix4x4::operator=
$LN5@R_Translat:

; 1014 : 	}
; 1015 : 	RI->modelviewMatrix = RI->worldviewMatrix.ConcatTransforms( RI->objectMatrix );

	mov	eax, DWORD PTR ?RI@@3PAUref_instance_t@@A ; RI
	add	eax, 364				; 0000016cH
	sub	esp, 64					; 00000040H
	mov	ecx, esp
	push	eax
	call	??0matrix4x4@@QAE@ABV0@@Z
	lea	ecx, DWORD PTR $T1[ebp]
	push	ecx
	mov	ecx, DWORD PTR ?RI@@3PAUref_instance_t@@A ; RI
	add	ecx, 428				; 000001acH
	call	?ConcatTransforms@matrix4x4@@QAE?AV1@V1@@Z ; matrix4x4::ConcatTransforms
	push	eax
	mov	ecx, DWORD PTR ?RI@@3PAUref_instance_t@@A ; RI
	add	ecx, 492				; 000001ecH
	call	??4matrix4x4@@QAEAAV0@ABV0@@Z		; matrix4x4::operator=

; 1016 : 
; 1017 : 	pglMatrixMode( GL_MODELVIEW );

	push	5888					; 00001700H
	call	DWORD PTR ?pglMatrixMode@@3P6GXI@ZA	; pglMatrixMode

; 1018 : 	GL_LoadMatrix( RI->modelviewMatrix );

	mov	eax, DWORD PTR ?RI@@3PAUref_instance_t@@A ; RI
	add	eax, 492				; 000001ecH
	sub	esp, 64					; 00000040H
	mov	ecx, esp
	push	eax
	call	??0matrix4x4@@QAE@ABV0@@Z
	call	?GL_LoadMatrix@@YAXVmatrix4x4@@@Z	; GL_LoadMatrix
	add	esp, 64					; 00000040H

; 1019 : 	tr.modelviewIdentity = false;

	mov	BYTE PTR ?tr@@3Uref_globals_t@@A+5830920, 0
$LN1@R_Translat:

; 1020 : }

	pop	edi
	pop	esi
	pop	ebx
	mov	ecx, DWORD PTR __$ArrayPad$[ebp]
	xor	ecx, ebp
	call	@__security_check_cookie@4
	mov	esp, ebp
	pop	ebp
	ret	0
?R_TranslateForEntity@@YAXPAUcl_entity_s@@@Z ENDP	; R_TranslateForEntity
_TEXT	ENDS
; Function compile flags: /Odtp /ZI
; File d:\!diffusion 2020\source code 2022\client-server\client\render\r_main.cpp
;	COMDAT ?R_RotateForEntity@@YAXPAUcl_entity_s@@@Z
_TEXT	SEGMENT
$T1 = -208						; size = 64
$T2 = -140						; size = 64
_glm$3 = -12						; size = 4
_scale$ = -8						; size = 4
__$ArrayPad$ = -4					; size = 4
_e$ = 8							; size = 4
?R_RotateForEntity@@YAXPAUcl_entity_s@@@Z PROC		; R_RotateForEntity, COMDAT

; 959  : {

	push	ebp
	mov	ebp, esp
	sub	esp, 212				; 000000d4H
	mov	eax, DWORD PTR ___security_cookie
	xor	eax, ebp
	mov	DWORD PTR __$ArrayPad$[ebp], eax
	push	ebx
	push	esi
	push	edi

; 960  : 	float	scale = 1.0f;

	movss	xmm0, DWORD PTR __real@3f800000
	movss	DWORD PTR _scale$[ebp], xmm0

; 961  : 
; 962  : 	if( e == GET_ENTITY( 0 ))

	push	0
	call	DWORD PTR ?gEngfuncs@@3Ucl_enginefuncs_s@@A+212
	add	esp, 4
	cmp	DWORD PTR _e$[ebp], eax
	jne	SHORT $LN2@R_RotateFo

; 963  : 	{
; 964  : 		R_LoadIdentity();

	call	?R_LoadIdentity@@YAXXZ			; R_LoadIdentity

; 965  : 		return;

	jmp	$LN1@R_RotateFo
$LN2@R_RotateFo:

; 966  : 	}
; 967  : 
; 968  : 	if( e->model->type != mod_brush && e->curstate.scale > 0.0f )

	mov	eax, DWORD PTR _e$[ebp]
	mov	ecx, DWORD PTR [eax+2964]
	cmp	DWORD PTR [ecx+68], 0
	je	SHORT $LN3@R_RotateFo
	mov	eax, DWORD PTR _e$[ebp]
	movss	xmm0, DWORD PTR [eax+752]
	comiss	xmm0, DWORD PTR __real@00000000
	jbe	SHORT $LN3@R_RotateFo

; 969  : 		scale = e->curstate.scale;

	mov	eax, DWORD PTR _e$[ebp]
	movss	xmm0, DWORD PTR [eax+752]
	movss	DWORD PTR _scale$[ebp], xmm0
$LN3@R_RotateFo:

; 970  : 
; 971  : 	if( e->model->type == mod_brush )

	mov	eax, DWORD PTR _e$[ebp]
	mov	ecx, DWORD PTR [eax+2964]
	cmp	DWORD PTR [ecx+68], 0
	jne	SHORT $LN4@R_RotateFo

; 972  : 	{
; 973  : 		
; 974  : 		gl_state_t *glm = &tr.cached_state[e->hCachedMatrix];

	mov	eax, DWORD PTR _e$[ebp]
	movzx	ecx, WORD PTR [eax+2976]
	shl	ecx, 7
	add	ecx, OFFSET ?tr@@3Uref_globals_t@@A+6892
	mov	DWORD PTR _glm$3[ebp], ecx

; 975  : 		RI->objectMatrix = glm->transform;

	mov	eax, DWORD PTR _glm$3[ebp]
	add	eax, 64					; 00000040H
	push	eax
	mov	ecx, DWORD PTR ?RI@@3PAUref_instance_t@@A ; RI
	add	ecx, 364				; 0000016cH
	call	??4matrix4x4@@QAEAAV0@ABV0@@Z		; matrix4x4::operator=

; 976  : 	}
; 977  : 	else

	jmp	SHORT $LN5@R_RotateFo
$LN4@R_RotateFo:

; 978  : 	{
; 979  : 		RI->objectMatrix = matrix4x4( e->origin, e->angles, scale );

	push	ecx
	movss	xmm0, DWORD PTR _scale$[ebp]
	movss	DWORD PTR [esp], xmm0
	mov	eax, DWORD PTR _e$[ebp]
	add	eax, 2900				; 00000b54H
	push	eax
	mov	ecx, DWORD PTR _e$[ebp]
	add	ecx, 2888				; 00000b48H
	push	ecx
	lea	ecx, DWORD PTR $T2[ebp]
	call	??0matrix4x4@@QAE@ABVVector@@0M@Z	; matrix4x4::matrix4x4
	push	eax
	mov	ecx, DWORD PTR ?RI@@3PAUref_instance_t@@A ; RI
	add	ecx, 364				; 0000016cH
	call	??4matrix4x4@@QAEAAV0@ABV0@@Z		; matrix4x4::operator=
$LN5@R_RotateFo:

; 980  : 	}
; 981  : 	RI->modelviewMatrix = RI->worldviewMatrix.ConcatTransforms( RI->objectMatrix );

	mov	eax, DWORD PTR ?RI@@3PAUref_instance_t@@A ; RI
	add	eax, 364				; 0000016cH
	sub	esp, 64					; 00000040H
	mov	ecx, esp
	push	eax
	call	??0matrix4x4@@QAE@ABV0@@Z
	lea	ecx, DWORD PTR $T1[ebp]
	push	ecx
	mov	ecx, DWORD PTR ?RI@@3PAUref_instance_t@@A ; RI
	add	ecx, 428				; 000001acH
	call	?ConcatTransforms@matrix4x4@@QAE?AV1@V1@@Z ; matrix4x4::ConcatTransforms
	push	eax
	mov	ecx, DWORD PTR ?RI@@3PAUref_instance_t@@A ; RI
	add	ecx, 492				; 000001ecH
	call	??4matrix4x4@@QAEAAV0@ABV0@@Z		; matrix4x4::operator=

; 982  : 
; 983  : 	pglMatrixMode( GL_MODELVIEW );

	push	5888					; 00001700H
	call	DWORD PTR ?pglMatrixMode@@3P6GXI@ZA	; pglMatrixMode

; 984  : 	GL_LoadMatrix( RI->modelviewMatrix );

	mov	eax, DWORD PTR ?RI@@3PAUref_instance_t@@A ; RI
	add	eax, 492				; 000001ecH
	sub	esp, 64					; 00000040H
	mov	ecx, esp
	push	eax
	call	??0matrix4x4@@QAE@ABV0@@Z
	call	?GL_LoadMatrix@@YAXVmatrix4x4@@@Z	; GL_LoadMatrix
	add	esp, 64					; 00000040H

; 985  : 	tr.modelviewIdentity = false;

	mov	BYTE PTR ?tr@@3Uref_globals_t@@A+5830920, 0
$LN1@R_RotateFo:

; 986  : }

	pop	edi
	pop	esi
	pop	ebx
	mov	ecx, DWORD PTR __$ArrayPad$[ebp]
	xor	ecx, ebp
	call	@__security_check_cookie@4
	mov	esp, ebp
	pop	ebp
	ret	0
?R_RotateForEntity@@YAXPAUcl_entity_s@@@Z ENDP		; R_RotateForEntity
_TEXT	ENDS
; Function compile flags: /Odtp /ZI
; File d:\!diffusion 2020\source code 2022\client-server\client\render\r_main.cpp
;	COMDAT ?R_LoadIdentity@@YAXXZ
_TEXT	SEGMENT
?R_LoadIdentity@@YAXXZ PROC				; R_LoadIdentity, COMDAT

; 942  : {

	push	ebp
	mov	ebp, esp
	sub	esp, 68					; 00000044H
	push	ebx
	push	esi
	push	edi

; 943  : 	if( tr.modelviewIdentity ) return;

	movzx	eax, BYTE PTR ?tr@@3Uref_globals_t@@A+5830920
	test	eax, eax
	je	SHORT $LN2@R_LoadIden
	jmp	SHORT $LN1@R_LoadIden
$LN2@R_LoadIden:

; 944  : 
; 945  : 	RI->objectMatrix.Identity();

	mov	ecx, DWORD PTR ?RI@@3PAUref_instance_t@@A ; RI
	add	ecx, 364				; 0000016cH
	call	?Identity@matrix4x4@@QAEXXZ		; matrix4x4::Identity

; 946  : 	RI->modelviewMatrix = RI->worldviewMatrix;

	mov	eax, DWORD PTR ?RI@@3PAUref_instance_t@@A ; RI
	add	eax, 428				; 000001acH
	push	eax
	mov	ecx, DWORD PTR ?RI@@3PAUref_instance_t@@A ; RI
	add	ecx, 492				; 000001ecH
	call	??4matrix4x4@@QAEAAV0@ABV0@@Z		; matrix4x4::operator=

; 947  : 
; 948  : 	pglMatrixMode( GL_MODELVIEW );

	push	5888					; 00001700H
	call	DWORD PTR ?pglMatrixMode@@3P6GXI@ZA	; pglMatrixMode

; 949  : 	GL_LoadMatrix( RI->modelviewMatrix );

	mov	eax, DWORD PTR ?RI@@3PAUref_instance_t@@A ; RI
	add	eax, 492				; 000001ecH
	sub	esp, 64					; 00000040H
	mov	ecx, esp
	push	eax
	call	??0matrix4x4@@QAE@ABV0@@Z
	call	?GL_LoadMatrix@@YAXVmatrix4x4@@@Z	; GL_LoadMatrix
	add	esp, 64					; 00000040H

; 950  : 	tr.modelviewIdentity = true;

	mov	BYTE PTR ?tr@@3Uref_globals_t@@A+5830920, 1
$LN1@R_LoadIden:

; 951  : }

	pop	edi
	pop	esi
	pop	ebx
	mov	esp, ebp
	pop	ebp
	ret	0
?R_LoadIdentity@@YAXXZ ENDP				; R_LoadIdentity
_TEXT	ENDS
; Function compile flags: /Odtp /ZI
; File d:\!diffusion 2020\source code 2022\client-server\client\render\r_main.cpp
;	COMDAT ?CL_FxBlend@@YAHPAUcl_entity_s@@@Z
_TEXT	SEGMENT
tv451 = -124						; size = 8
tv436 = -124						; size = 8
tv499 = -116						; size = 8
tv497 = -116						; size = 8
tv364 = -116						; size = 8
tv356 = -116						; size = 8
tv348 = -116						; size = 8
tv340 = -116						; size = 8
tv495 = -108						; size = 8
tv493 = -108						; size = 8
tv491 = -108						; size = 8
tv489 = -108						; size = 8
tv445 = -108						; size = 8
tv430 = -108						; size = 8
tv421 = -108						; size = 8
tv412 = -108						; size = 8
tv403 = -108						; size = 8
tv311 = -108						; size = 4
tv310 = -104						; size = 4
tv76 = -104						; size = 4
$T1 = -100						; size = 12
_tmp$ = -24						; size = 12
_dist$ = -12						; size = 4
_offset$ = -8						; size = 4
_blend$ = -4						; size = 4
_e$ = 8							; size = 4
?CL_FxBlend@@YAHPAUcl_entity_s@@@Z PROC			; CL_FxBlend, COMDAT

; 609  : {

	push	ebp
	mov	ebp, esp
	sub	esp, 124				; 0000007cH
	push	ebx
	push	esi
	push	edi

; 610  : 	int	blend = 0;

	mov	DWORD PTR _blend$[ebp], 0

; 611  : 	float offset, dist;
; 612  : 	Vector	tmp;

	lea	ecx, DWORD PTR _tmp$[ebp]
	call	??0Vector@@QAE@XZ			; Vector::Vector

; 613  : 
; 614  : 	if( RENDER_GET_PARM( PARAM_GAMEPAUSED, 0 ))

	push	0
	push	18					; 00000012H
	call	DWORD PTR ?gRenderfuncs@@3Urender_api_s@@A
	add	esp, 8
	test	eax, eax
	je	SHORT $LN4@CL_FxBlend

; 615  : 		return e->curstate.renderamt;

	mov	eax, DWORD PTR _e$[ebp]
	mov	eax, DWORD PTR [eax+764]
	jmp	$LN1@CL_FxBlend
$LN4@CL_FxBlend:

; 616  : 
; 617  : 	offset = ((int)e->index ) * 363.0f; // Use ent index to de-sync these fx

	mov	eax, DWORD PTR _e$[ebp]
	cvtsi2ss xmm0, DWORD PTR [eax]
	mulss	xmm0, DWORD PTR __real@43b58000
	movss	DWORD PTR _offset$[ebp], xmm0

; 618  : 
; 619  : 	switch( e->curstate.renderfx ) 

	mov	eax, DWORD PTR _e$[ebp]
	mov	ecx, DWORD PTR [eax+772]
	mov	DWORD PTR tv76[ebp], ecx
	mov	edx, DWORD PTR tv76[ebp]
	sub	edx, 1
	mov	DWORD PTR tv76[ebp], edx
	cmp	DWORD PTR tv76[ebp], 15			; 0000000fH
	ja	$LN46@CL_FxBlend
	mov	eax, DWORD PTR tv76[ebp]
	jmp	DWORD PTR $LN52@CL_FxBlend[eax*4]
$LN5@CL_FxBlend:

; 620  : 	{
; 621  : 	case kRenderFxPulseSlowWide:
; 622  : 		blend = e->curstate.renderamt + 0x80 * sin( tr.time * 2 + offset );	

	mov	eax, DWORD PTR _e$[ebp]
	cvtsi2sd xmm0, DWORD PTR [eax+764]
	movsd	xmm1, QWORD PTR ?tr@@3Uref_globals_t@@A+8
	mulsd	xmm1, QWORD PTR __real@4000000000000000
	cvtss2sd xmm2, DWORD PTR _offset$[ebp]
	addsd	xmm1, xmm2
	sub	esp, 8
	movsd	QWORD PTR [esp], xmm1
	movsd	QWORD PTR tv489[ebp], xmm0
	call	_sin
	add	esp, 8
	fstp	QWORD PTR tv340[ebp]
	movsd	xmm0, QWORD PTR tv340[ebp]
	mulsd	xmm0, QWORD PTR __real@4060000000000000
	movsd	xmm1, QWORD PTR tv489[ebp]
	addsd	xmm1, xmm0
	cvttsd2si ecx, xmm1
	mov	DWORD PTR _blend$[ebp], ecx

; 623  : 		break;

	jmp	$LN2@CL_FxBlend
$LN6@CL_FxBlend:

; 624  : 	case kRenderFxPulseFastWide:
; 625  : 		blend = e->curstate.renderamt + 0x80 * sin( tr.time * 8 + offset );

	mov	eax, DWORD PTR _e$[ebp]
	cvtsi2sd xmm0, DWORD PTR [eax+764]
	movsd	xmm1, QWORD PTR ?tr@@3Uref_globals_t@@A+8
	mulsd	xmm1, QWORD PTR __real@4020000000000000
	cvtss2sd xmm2, DWORD PTR _offset$[ebp]
	addsd	xmm1, xmm2
	sub	esp, 8
	movsd	QWORD PTR [esp], xmm1
	movsd	QWORD PTR tv491[ebp], xmm0
	call	_sin
	add	esp, 8
	fstp	QWORD PTR tv348[ebp]
	movsd	xmm0, QWORD PTR tv348[ebp]
	mulsd	xmm0, QWORD PTR __real@4060000000000000
	movsd	xmm1, QWORD PTR tv491[ebp]
	addsd	xmm1, xmm0
	cvttsd2si ecx, xmm1
	mov	DWORD PTR _blend$[ebp], ecx

; 626  : 		break;

	jmp	$LN2@CL_FxBlend
$LN7@CL_FxBlend:

; 627  : 	case kRenderFxPulseSlow:
; 628  : 		blend = e->curstate.renderamt + 0x40 * sin( tr.time * 2 + offset );

	mov	eax, DWORD PTR _e$[ebp]
	cvtsi2sd xmm0, DWORD PTR [eax+764]
	movsd	xmm1, QWORD PTR ?tr@@3Uref_globals_t@@A+8
	mulsd	xmm1, QWORD PTR __real@4000000000000000
	cvtss2sd xmm2, DWORD PTR _offset$[ebp]
	addsd	xmm1, xmm2
	sub	esp, 8
	movsd	QWORD PTR [esp], xmm1
	movsd	QWORD PTR tv493[ebp], xmm0
	call	_sin
	add	esp, 8
	fstp	QWORD PTR tv356[ebp]
	movsd	xmm0, QWORD PTR tv356[ebp]
	mulsd	xmm0, QWORD PTR __real@4050000000000000
	movsd	xmm1, QWORD PTR tv493[ebp]
	addsd	xmm1, xmm0
	cvttsd2si ecx, xmm1
	mov	DWORD PTR _blend$[ebp], ecx

; 629  : 		break;

	jmp	$LN2@CL_FxBlend
$LN8@CL_FxBlend:

; 630  : 	case kRenderFxPulseFast:
; 631  : 		blend = e->curstate.renderamt + 0x40 * sin( tr.time * 8 + offset );

	mov	eax, DWORD PTR _e$[ebp]
	cvtsi2sd xmm0, DWORD PTR [eax+764]
	movsd	xmm1, QWORD PTR ?tr@@3Uref_globals_t@@A+8
	mulsd	xmm1, QWORD PTR __real@4020000000000000
	cvtss2sd xmm2, DWORD PTR _offset$[ebp]
	addsd	xmm1, xmm2
	sub	esp, 8
	movsd	QWORD PTR [esp], xmm1
	movsd	QWORD PTR tv495[ebp], xmm0
	call	_sin
	add	esp, 8
	fstp	QWORD PTR tv364[ebp]
	movsd	xmm0, QWORD PTR tv364[ebp]
	mulsd	xmm0, QWORD PTR __real@4050000000000000
	movsd	xmm1, QWORD PTR tv495[ebp]
	addsd	xmm1, xmm0
	cvttsd2si ecx, xmm1
	mov	DWORD PTR _blend$[ebp], ecx

; 632  : 		break;

	jmp	$LN2@CL_FxBlend
$LN9@CL_FxBlend:

; 633  : 	case kRenderFxFadeSlow:			
; 634  : 		if( RP_NORMALPASS( ))

	mov	eax, DWORD PTR ?RI@@3PAUref_instance_t@@A ; RI
	mov	ecx, DWORD PTR [eax]
	and	ecx, 483				; 000001e3H
	jne	SHORT $LN12@CL_FxBlend

; 635  : 		{
; 636  : 			if( e->curstate.renderamt > 0 ) 

	mov	eax, DWORD PTR _e$[ebp]
	cmp	DWORD PTR [eax+764], 0
	jle	SHORT $LN11@CL_FxBlend

; 637  : 				e->curstate.renderamt -= 1;

	mov	eax, DWORD PTR _e$[ebp]
	mov	ecx, DWORD PTR [eax+764]
	sub	ecx, 1
	mov	edx, DWORD PTR _e$[ebp]
	mov	DWORD PTR [edx+764], ecx
	jmp	SHORT $LN12@CL_FxBlend
$LN11@CL_FxBlend:

; 638  : 			else e->curstate.renderamt = 0;

	mov	eax, DWORD PTR _e$[ebp]
	mov	DWORD PTR [eax+764], 0
$LN12@CL_FxBlend:

; 639  : 		}
; 640  : 		blend = e->curstate.renderamt;

	mov	eax, DWORD PTR _e$[ebp]
	mov	ecx, DWORD PTR [eax+764]
	mov	DWORD PTR _blend$[ebp], ecx

; 641  : 		break;

	jmp	$LN2@CL_FxBlend
$LN13@CL_FxBlend:

; 642  : 	case kRenderFxFadeFast:
; 643  : 		if( RP_NORMALPASS( ))

	mov	eax, DWORD PTR ?RI@@3PAUref_instance_t@@A ; RI
	mov	ecx, DWORD PTR [eax]
	and	ecx, 483				; 000001e3H
	jne	SHORT $LN16@CL_FxBlend

; 644  : 		{
; 645  : 			if( e->curstate.renderamt > 3 ) 

	mov	eax, DWORD PTR _e$[ebp]
	cmp	DWORD PTR [eax+764], 3
	jle	SHORT $LN15@CL_FxBlend

; 646  : 				e->curstate.renderamt -= 4;

	mov	eax, DWORD PTR _e$[ebp]
	mov	ecx, DWORD PTR [eax+764]
	sub	ecx, 4
	mov	edx, DWORD PTR _e$[ebp]
	mov	DWORD PTR [edx+764], ecx
	jmp	SHORT $LN16@CL_FxBlend
$LN15@CL_FxBlend:

; 647  : 			else e->curstate.renderamt = 0;

	mov	eax, DWORD PTR _e$[ebp]
	mov	DWORD PTR [eax+764], 0
$LN16@CL_FxBlend:

; 648  : 		}
; 649  : 		blend = e->curstate.renderamt;

	mov	eax, DWORD PTR _e$[ebp]
	mov	ecx, DWORD PTR [eax+764]
	mov	DWORD PTR _blend$[ebp], ecx

; 650  : 		break;

	jmp	$LN2@CL_FxBlend
$LN17@CL_FxBlend:

; 651  : 	case kRenderFxSolidSlow:
; 652  : 		if( RP_NORMALPASS( ))

	mov	eax, DWORD PTR ?RI@@3PAUref_instance_t@@A ; RI
	mov	ecx, DWORD PTR [eax]
	and	ecx, 483				; 000001e3H
	jne	SHORT $LN20@CL_FxBlend

; 653  : 		{
; 654  : 			if( e->curstate.renderamt < 255 ) 

	mov	eax, DWORD PTR _e$[ebp]
	cmp	DWORD PTR [eax+764], 255		; 000000ffH
