; Listing generated by Microsoft (R) Optimizing Compiler Version 19.00.24247.2 

	TITLE	D:\!DIFFUSION 2020\source code 2022\client-server\client\render\r_movie.cpp
	.686P
	.XMM
	include listing.inc
	.model	flat

INCLUDELIB LIBCMT
INCLUDELIB OLDNAMES

PUBLIC	??_H@YGXPAXIIP6EPAX0@Z@Z			; `vector constructor iterator'
PUBLIC	??__G@YGXPAX0IIP6EPAX00@Z@Z			; `vector copy constructor iterator'
PUBLIC	?R_PrecacheCinematic@@YAHPBD@Z			; R_PrecacheCinematic
PUBLIC	?R_InitCinematics@@YAXXZ			; R_InitCinematics
PUBLIC	?R_FreeCinematics@@YAXXZ			; R_FreeCinematics
PUBLIC	?R_AllocateCinematicTexture@@YAHI@Z		; R_AllocateCinematicTexture
PUBLIC	?R_UpdateCinematic@@YAXPBUmsurface_s@@@Z	; R_UpdateCinematic
PUBLIC	?R_UpdateCinSound@@YAXPAUcl_entity_s@@@Z	; R_UpdateCinSound
PUBLIC	??_C@_03LJGCHEIJ@avi?$AA@			; `string'
PUBLIC	??_C@_0DE@IDBJIGLA@R_PrecacheCinematic?3?5cinematic?5l@ ; `string'
PUBLIC	??_C@_0BN@LLBELHHG@Reused?5cin?5state?5?$CFi?5with?5?$CFs?6?$AA@ ; `string'
PUBLIC	??_C@_05MHNANJII@sound?$AA@			; `string'
PUBLIC	??_C@_05GALFLNME@muted?$AA@			; `string'
PUBLIC	??_C@_0BL@NFKJJJCK@Loading?5cinematic?5?$CFs?5?$FL?$CFs?$FN?6?$AA@ ; `string'
PUBLIC	??_C@_0BG@JFOOIMMD@release?5cinematic?5?$CFs?6?$AA@ ; `string'
PUBLIC	??_C@_0DL@MHPNOJGK@R_AllocateCinematicTexture?3?5cine@ ; `string'
PUBLIC	??_C@_0N@BFLBNGBL@?$CKcinematic?$CFi?$AA@	; `string'
PUBLIC	__real@3f800000
PUBLIC	__real@40000000
EXTRN	_memset:PROC
EXTRN	_fmod:PROC
EXTRN	?UTIL_FileExtension@@YAPBDPBD@Z:PROC		; UTIL_FileExtension
EXTRN	?Q_strncpy@@YAIPADPBDI@Z:PROC			; Q_strncpy
EXTRN	?Q_strnicmp@@YAHPBD0H@Z:PROC			; Q_strnicmp
EXTRN	?Q_snprintf@@YAHPADIPBDZZ:PROC			; Q_snprintf
EXTRN	?ALERT@@YAXW4ALERT_TYPE@@PADZZ:PROC		; ALERT
EXTRN	@__security_check_cookie@4:PROC
EXTRN	?gRenderfuncs@@3Urender_api_s@@A:BYTE		; gRenderfuncs
EXTRN	?g_iXashEngineBuildNumber@@3HA:DWORD		; g_iXashEngineBuildNumber
EXTRN	?RI@@3PAUref_instance_t@@A:DWORD		; RI
EXTRN	?tr@@3Uref_globals_t@@A:BYTE			; tr
EXTRN	?world@@3PAUgl_world_t@@A:DWORD			; world
EXTRN	___security_cookie:DWORD
EXTRN	__fltused:DWORD
;	COMDAT __real@40000000
CONST	SEGMENT
__real@40000000 DD 040000000r			; 2
CONST	ENDS
;	COMDAT __real@3f800000
CONST	SEGMENT
__real@3f800000 DD 03f800000r			; 1
CONST	ENDS
;	COMDAT ??_C@_0N@BFLBNGBL@?$CKcinematic?$CFi?$AA@
CONST	SEGMENT
??_C@_0N@BFLBNGBL@?$CKcinematic?$CFi?$AA@ DB '*cinematic%i', 00H ; `string'
CONST	ENDS
;	COMDAT ??_C@_0DL@MHPNOJGK@R_AllocateCinematicTexture?3?5cine@
CONST	SEGMENT
??_C@_0DL@MHPNOJGK@R_AllocateCinematicTexture?3?5cine@ DB 'R_AllocateCine'
	DB	'maticTexture: cine textures limit exceeded!', 0aH, 00H ; `string'
CONST	ENDS
;	COMDAT ??_C@_0BG@JFOOIMMD@release?5cinematic?5?$CFs?6?$AA@
CONST	SEGMENT
??_C@_0BG@JFOOIMMD@release?5cinematic?5?$CFs?6?$AA@ DB 'release cinematic'
	DB	' %s', 0aH, 00H				; `string'
CONST	ENDS
;	COMDAT ??_C@_0BL@NFKJJJCK@Loading?5cinematic?5?$CFs?5?$FL?$CFs?$FN?6?$AA@
CONST	SEGMENT
??_C@_0BL@NFKJJJCK@Loading?5cinematic?5?$CFs?5?$FL?$CFs?$FN?6?$AA@ DB 'Lo'
	DB	'ading cinematic %s [%s]', 0aH, 00H		; `string'
CONST	ENDS
;	COMDAT ??_C@_05GALFLNME@muted?$AA@
CONST	SEGMENT
??_C@_05GALFLNME@muted?$AA@ DB 'muted', 00H		; `string'
CONST	ENDS
;	COMDAT ??_C@_05MHNANJII@sound?$AA@
CONST	SEGMENT
??_C@_05MHNANJII@sound?$AA@ DB 'sound', 00H		; `string'
CONST	ENDS
;	COMDAT ??_C@_0BN@LLBELHHG@Reused?5cin?5state?5?$CFi?5with?5?$CFs?6?$AA@
CONST	SEGMENT
??_C@_0BN@LLBELHHG@Reused?5cin?5state?5?$CFi?5with?5?$CFs?6?$AA@ DB 'Reus'
	DB	'ed cin state %i with %s', 0aH, 00H		; `string'
CONST	ENDS
;	COMDAT ??_C@_0DE@IDBJIGLA@R_PrecacheCinematic?3?5cinematic?5l@
CONST	SEGMENT
??_C@_0DE@IDBJIGLA@R_PrecacheCinematic?3?5cinematic?5l@ DB 'R_PrecacheCin'
	DB	'ematic: cinematic list limit exceeded', 0aH, 00H ; `string'
CONST	ENDS
;	COMDAT ??_C@_03LJGCHEIJ@avi?$AA@
CONST	SEGMENT
??_C@_03LJGCHEIJ@avi?$AA@ DB 'avi', 00H			; `string'
CONST	ENDS
; Function compile flags: /Odtp /ZI
; File d:\!diffusion 2020\source code 2022\client-server\client\render\r_movie.cpp
;	COMDAT ?R_UpdateCinSound@@YAXPAUcl_entity_s@@@Z
_TEXT	SEGMENT
_cin_time$ = -16					; size = 4
_cin$ = -12						; size = 4
_cinhandle$ = -8					; size = 4
_cinname$ = -4						; size = 4
_e$ = 8							; size = 4
?R_UpdateCinSound@@YAXPAUcl_entity_s@@@Z PROC		; R_UpdateCinSound, COMDAT

; 201  : {

	push	ebp
	mov	ebp, esp
	sub	esp, 80					; 00000050H
	push	ebx
	push	esi
	push	edi

; 202  : 	if( g_iXashEngineBuildNumber < 4256 )

	cmp	DWORD PTR ?g_iXashEngineBuildNumber@@3HA, 4256 ; g_iXashEngineBuildNumber, 000010a0H
	jge	SHORT $LN2@R_UpdateCi

; 203  : 		return; // too old for this feature

	jmp	$LN1@R_UpdateCi
$LN2@R_UpdateCi:

; 204  : 
; 205  : 	if( !e->curstate.body || !FBitSet( e->curstate.iuser1, CF_MOVIE_SOUND ))

	mov	eax, DWORD PTR _e$[ebp]
	cmp	DWORD PTR [eax+788], 0
	je	SHORT $LN4@R_UpdateCi
	mov	eax, DWORD PTR _e$[ebp]
	mov	ecx, DWORD PTR [eax+948]
	and	ecx, 4
	jne	SHORT $LN3@R_UpdateCi
$LN4@R_UpdateCi:

; 206  : 		return; // just disabled

	jmp	$LN1@R_UpdateCi
$LN3@R_UpdateCi:

; 207  : 
; 208  : 	// found the corresponding cinstate
; 209  : 	const char *cinname = gRenderfuncs.GetFileByIndex( e->curstate.sequence );

	mov	eax, DWORD PTR _e$[ebp]
	mov	ecx, DWORD PTR [eax+732]
	push	ecx
	call	DWORD PTR ?gRenderfuncs@@3Urender_api_s@@A+204
	add	esp, 4
	mov	DWORD PTR _cinname$[ebp], eax

; 210  : 	int cinhandle = R_PrecacheCinematic( cinname );

	mov	eax, DWORD PTR _cinname$[ebp]
	push	eax
	call	?R_PrecacheCinematic@@YAHPBD@Z		; R_PrecacheCinematic
	add	esp, 4
	mov	DWORD PTR _cinhandle$[ebp], eax

; 211  : 
; 212  : 	if( cinhandle == -1 || CIN_IS_ACTIVE( tr.cinematics[cinhandle].state ) == false )

	cmp	DWORD PTR _cinhandle$[ebp], -1
	je	SHORT $LN6@R_UpdateCi
	imul	eax, DWORD PTR _cinhandle$[ebp], 48
	mov	ecx, DWORD PTR ?tr@@3Uref_globals_t@@A[eax+4764948]
	push	ecx
	call	DWORD PTR ?gRenderfuncs@@3Urender_api_s@@A+116
	add	esp, 4
	test	eax, eax
	jne	SHORT $LN5@R_UpdateCi
$LN6@R_UpdateCi:

; 213  : 		return;

	jmp	$LN1@R_UpdateCi
$LN5@R_UpdateCi:

; 214  : 
; 215  : 	gl_movie_t *cin = &tr.cinematics[cinhandle];

	imul	eax, DWORD PTR _cinhandle$[ebp], 48
	add	eax, OFFSET ?tr@@3Uref_globals_t@@A+4764916
	mov	DWORD PTR _cin$[ebp], eax

; 216  : 	float cin_time;
; 217  : 
; 218  : 	if( FBitSet( e->curstate.iuser1, CF_LOOPED_MOVIE ))

	mov	eax, DWORD PTR _e$[ebp]
	mov	ecx, DWORD PTR [eax+948]
	and	ecx, 1
	je	SHORT $LN7@R_UpdateCi

; 219  : 	{
; 220  : 		// advances cinematic time
; 221  : 		cin_time = fmod( e->curstate.fuser2, cin->length );

	mov	eax, DWORD PTR _cin$[ebp]
	cvtss2sd xmm0, DWORD PTR [eax+36]
	sub	esp, 8
	movsd	QWORD PTR [esp], xmm0
	mov	ecx, DWORD PTR _e$[ebp]
	cvtss2sd xmm0, DWORD PTR [ecx+968]
	sub	esp, 8
	movsd	QWORD PTR [esp], xmm0
	call	_fmod
	add	esp, 16					; 00000010H
	fstp	DWORD PTR _cin_time$[ebp]

; 222  : 	}
; 223  : 	else

	jmp	SHORT $LN8@R_UpdateCi
$LN7@R_UpdateCi:

; 224  : 	{
; 225  : 		cin_time = e->curstate.fuser2;

	mov	eax, DWORD PTR _e$[ebp]
	movss	xmm0, DWORD PTR [eax+968]
	movss	DWORD PTR _cin_time$[ebp], xmm0
$LN8@R_UpdateCi:

; 226  : 	}
; 227  : 
; 228  : 	// stream avi sound
; 229  : 	CIN_UPDATE_SOUND( cin->state, e->index, VOL_NORM, ATTN_IDLE, cin_time );

	push	ecx
	movss	xmm0, DWORD PTR _cin_time$[ebp]
	movss	DWORD PTR [esp], xmm0
	push	ecx
	movss	xmm0, DWORD PTR __real@40000000
	movss	DWORD PTR [esp], xmm0
	push	ecx
	movss	xmm0, DWORD PTR __real@3f800000
	movss	DWORD PTR [esp], xmm0
	mov	eax, DWORD PTR _e$[ebp]
	mov	ecx, DWORD PTR [eax]
	push	ecx
	mov	edx, DWORD PTR _cin$[ebp]
	mov	eax, DWORD PTR [edx+32]
	push	eax
	call	DWORD PTR ?gRenderfuncs@@3Urender_api_s@@A+120
	add	esp, 20					; 00000014H
$LN1@R_UpdateCi:

; 230  : }

	pop	edi
	pop	esi
	pop	ebx
	mov	esp, ebp
	pop	ebp
	ret	0
?R_UpdateCinSound@@YAXPAUcl_entity_s@@@Z ENDP		; R_UpdateCinSound
_TEXT	ENDS
; Function compile flags: /Odtp /ZI
; File d:\!diffusion 2020\source code 2022\client-server\client\render\r_movie.cpp
;	COMDAT ?R_UpdateCinematic@@YAXPBUmsurface_s@@@Z
_TEXT	SEGMENT
_raw$1 = -28						; size = 4
_cin_frame$ = -24					; size = 4
_cin_time$ = -20					; size = 4
_cin$ = -16						; size = 4
_cinhandle$ = -12					; size = 4
_cinname$ = -8						; size = 4
_es$ = -4						; size = 4
_surf$ = 8						; size = 4
?R_UpdateCinematic@@YAXPBUmsurface_s@@@Z PROC		; R_UpdateCinematic, COMDAT

; 153  : {

	push	ebp
	mov	ebp, esp
	sub	esp, 92					; 0000005cH
	push	ebx
	push	esi
	push	edi

; 154  : 	if( !RI->currententity->curstate.body )

	mov	eax, DWORD PTR ?RI@@3PAUref_instance_t@@A ; RI
	mov	ecx, DWORD PTR [eax+16]
	cmp	DWORD PTR [ecx+788], 0
	jne	SHORT $LN2@R_UpdateCi

; 155  : 		return; // just disabled

	jmp	$LN1@R_UpdateCi
$LN2@R_UpdateCi:

; 156  : 
; 157  : 	// draw the cinematic
; 158  : 	mextrasurf_t *es = surf->info;

	mov	eax, DWORD PTR _surf$[ebp]
	mov	ecx, DWORD PTR [eax+80]
	mov	DWORD PTR _es$[ebp], ecx

; 159  : 
; 160  : 	// found the corresponding cinstate
; 161  : 	const char *cinname = gRenderfuncs.GetFileByIndex( RI->currententity->curstate.sequence );

	mov	eax, DWORD PTR ?RI@@3PAUref_instance_t@@A ; RI
	mov	ecx, DWORD PTR [eax+16]
	mov	edx, DWORD PTR [ecx+732]
	push	edx
	call	DWORD PTR ?gRenderfuncs@@3Urender_api_s@@A+204
	add	esp, 4
	mov	DWORD PTR _cinname$[ebp], eax

; 162  : 	int cinhandle = R_PrecacheCinematic( cinname );

	mov	eax, DWORD PTR _cinname$[ebp]
	push	eax
	call	?R_PrecacheCinematic@@YAHPBD@Z		; R_PrecacheCinematic
	add	esp, 4
	mov	DWORD PTR _cinhandle$[ebp], eax

; 163  : 
; 164  : 	if( cinhandle >= 0 && es->cintexturenum <= 0 )

	cmp	DWORD PTR _cinhandle$[ebp], 0
	jl	SHORT $LN3@R_UpdateCi
	mov	eax, DWORD PTR _es$[ebp]
	cmp	DWORD PTR [eax+96], 0
	jg	SHORT $LN3@R_UpdateCi

; 165  : 		es->cintexturenum = R_AllocateCinematicTexture( TF_NOMIPMAP );

	push	4096					; 00001000H
	call	?R_AllocateCinematicTexture@@YAHI@Z	; R_AllocateCinematicTexture
	add	esp, 4
	mov	ecx, DWORD PTR _es$[ebp]
	mov	DWORD PTR [ecx+96], eax
$LN3@R_UpdateCi:

; 166  : 
; 167  : 	if( cinhandle == -1 || es->cintexturenum <= 0 || CIN_IS_ACTIVE( tr.cinematics[cinhandle].state ) == false )

	cmp	DWORD PTR _cinhandle$[ebp], -1
	je	SHORT $LN5@R_UpdateCi
	mov	eax, DWORD PTR _es$[ebp]
	cmp	DWORD PTR [eax+96], 0
	jle	SHORT $LN5@R_UpdateCi
	imul	eax, DWORD PTR _cinhandle$[ebp], 48
	mov	ecx, DWORD PTR ?tr@@3Uref_globals_t@@A[eax+4764948]
	push	ecx
	call	DWORD PTR ?gRenderfuncs@@3Urender_api_s@@A+116
	add	esp, 4
	test	eax, eax
	jne	SHORT $LN4@R_UpdateCi
$LN5@R_UpdateCi:

; 168  : 	{
; 169  : 		// cinematic textures limit exceeded, so remove SURF_MOVIE flag
; 170  : 		((msurface_t *)surf)->flags &= ~SURF_MOVIE;

	mov	eax, DWORD PTR _surf$[ebp]
	mov	ecx, DWORD PTR [eax+8]
	and	ecx, -2049				; fffff7ffH
	mov	edx, DWORD PTR _surf$[ebp]
	mov	DWORD PTR [edx+8], ecx

; 171  : 		return;

	jmp	$LN1@R_UpdateCi
$LN4@R_UpdateCi:

; 172  : 	}
; 173  : 
; 174  : 	gl_movie_t *cin = &tr.cinematics[cinhandle];

	imul	eax, DWORD PTR _cinhandle$[ebp], 48
	add	eax, OFFSET ?tr@@3Uref_globals_t@@A+4764916
	mov	DWORD PTR _cin$[ebp], eax

; 175  : 	float cin_time;
; 176  : 
; 177  : 	if( FBitSet( RI->currententity->curstate.iuser1, CF_LOOPED_MOVIE ))

	mov	eax, DWORD PTR ?RI@@3PAUref_instance_t@@A ; RI
	mov	ecx, DWORD PTR [eax+16]
	mov	edx, DWORD PTR [ecx+948]
	and	edx, 1
	je	SHORT $LN6@R_UpdateCi

; 178  : 	{
; 179  : 		// advances cinematic time
; 180  : 		cin_time = fmod( RI->currententity->curstate.fuser2, cin->length );

	mov	eax, DWORD PTR _cin$[ebp]
	cvtss2sd xmm0, DWORD PTR [eax+36]
	sub	esp, 8
	movsd	QWORD PTR [esp], xmm0
	mov	ecx, DWORD PTR ?RI@@3PAUref_instance_t@@A ; RI
	mov	edx, DWORD PTR [ecx+16]
	cvtss2sd xmm0, DWORD PTR [edx+968]
	sub	esp, 8
	movsd	QWORD PTR [esp], xmm0
	call	_fmod
	add	esp, 16					; 00000010H
	fstp	DWORD PTR _cin_time$[ebp]

; 181  : 	}
; 182  : 	else

	jmp	SHORT $LN7@R_UpdateCi
$LN6@R_UpdateCi:

; 183  : 	{
; 184  : 		cin_time = RI->currententity->curstate.fuser2;

	mov	eax, DWORD PTR ?RI@@3PAUref_instance_t@@A ; RI
	mov	ecx, DWORD PTR [eax+16]
	movss	xmm0, DWORD PTR [ecx+968]
	movss	DWORD PTR _cin_time$[ebp], xmm0
$LN7@R_UpdateCi:

; 185  : 	}
; 186  : 
; 187  : 	// read the next frame
; 188  : 	int cin_frame = CIN_GET_FRAME_NUMBER( cin->state, cin_time );

	push	ecx
	movss	xmm0, DWORD PTR _cin_time$[ebp]
	movss	DWORD PTR [esp], xmm0
	mov	eax, DWORD PTR _cin$[ebp]
	mov	ecx, DWORD PTR [eax+32]
	push	ecx
	call	DWORD PTR ?gRenderfuncs@@3Urender_api_s@@A+100
	add	esp, 8
	mov	DWORD PTR _cin_frame$[ebp], eax

; 189  : 
; 190  : 	// upload the new frame
; 191  : 	if( cin_frame != es->checkcount )

	mov	eax, DWORD PTR _es$[ebp]
	mov	ecx, DWORD PTR _cin_frame$[ebp]
	cmp	ecx, DWORD PTR [eax+140]
	je	SHORT $LN8@R_UpdateCi

; 192  : 	{
; 193  : 		GL_SelectTexture( GL_TEXTURE0 ); // doesn't matter. select 0-th unit just as default

	push	0
	call	DWORD PTR ?gRenderfuncs@@3Urender_api_s@@A+136
	add	esp, 4

; 194  : 		byte *raw = CIN_GET_FRAMEDATA( cin->state, cin_frame );

	mov	eax, DWORD PTR _cin_frame$[ebp]
	push	eax
	mov	ecx, DWORD PTR _cin$[ebp]
	mov	edx, DWORD PTR [ecx+32]
	push	edx
	call	DWORD PTR ?gRenderfuncs@@3Urender_api_s@@A+104
	add	esp, 8
	mov	DWORD PTR _raw$1[ebp], eax

; 195  : 		CIN_UPLOAD_FRAME( tr.cinTextures[es->cintexturenum-1], cin->xres, cin->yres, cin->xres, cin->yres, raw );

	mov	eax, DWORD PTR _raw$1[ebp]
	push	eax
	mov	ecx, DWORD PTR _cin$[ebp]
	mov	edx, DWORD PTR [ecx+44]
	push	edx
	mov	eax, DWORD PTR _cin$[ebp]
	mov	ecx, DWORD PTR [eax+40]
	push	ecx
	mov	edx, DWORD PTR _cin$[ebp]
	mov	eax, DWORD PTR [edx+44]
	push	eax
	mov	ecx, DWORD PTR _cin$[ebp]
	mov	edx, DWORD PTR [ecx+40]
	push	edx
	mov	eax, DWORD PTR _es$[ebp]
	mov	ecx, DWORD PTR [eax+96]
	mov	edx, DWORD PTR ?tr@@3Uref_globals_t@@A[ecx*4+4936]
	push	edx
	call	DWORD PTR ?gRenderfuncs@@3Urender_api_s@@A+108
	add	esp, 24					; 00000018H

; 196  : 		es->checkcount = cin_frame;

	mov	eax, DWORD PTR _es$[ebp]
	mov	ecx, DWORD PTR _cin_frame$[ebp]
	mov	DWORD PTR [eax+140], ecx
$LN8@R_UpdateCi:
$LN1@R_UpdateCi:

; 197  : 	}
; 198  : }

	pop	edi
	pop	esi
	pop	ebx
	mov	esp, ebp
	pop	ebp
	ret	0
?R_UpdateCinematic@@YAXPBUmsurface_s@@@Z ENDP		; R_UpdateCinematic
_TEXT	ENDS
; Function compile flags: /Odtp /ZI
; File d:\!diffusion 2020\source code 2022\client-server\client\render\r_movie.cpp
;	COMDAT ?R_AllocateCinematicTexture@@YAHI@Z
_TEXT	SEGMENT
_txName$1 = -24						; size = 16
_i$ = -8						; size = 4
__$ArrayPad$ = -4					; size = 4
_txFlags$ = 8						; size = 4
?R_AllocateCinematicTexture@@YAHI@Z PROC		; R_AllocateCinematicTexture, COMDAT

; 128  : {

	push	ebp
	mov	ebp, esp
	sub	esp, 88					; 00000058H
	mov	eax, DWORD PTR ___security_cookie
	xor	eax, ebp
	mov	DWORD PTR __$ArrayPad$[ebp], eax
	push	ebx
	push	esi
	push	edi

; 129  : 	int i = tr.num_cin_used;

	mov	eax, DWORD PTR ?tr@@3Uref_globals_t@@A+5720
	mov	DWORD PTR _i$[ebp], eax

; 130  : 
; 131  : 	if( i >= MAX_MOVIE_TEXTURES )

	cmp	DWORD PTR _i$[ebp], 64			; 00000040H
	jl	SHORT $LN2@R_Allocate

; 132  : 	{
; 133  : 		ALERT( at_error, "R_AllocateCinematicTexture: cine textures limit exceeded!\n" );

	push	OFFSET ??_C@_0DL@MHPNOJGK@R_AllocateCinematicTexture?3?5cine@
	push	4
	call	?ALERT@@YAXW4ALERT_TYPE@@PADZZ		; ALERT
	add	esp, 8

; 134  : 		return 0; // disable

	xor	eax, eax
	jmp	SHORT $LN1@R_Allocate
$LN2@R_Allocate:

; 135  : 	}
; 136  : 	tr.num_cin_used++;

	mov	eax, DWORD PTR ?tr@@3Uref_globals_t@@A+5720
	add	eax, 1
	mov	DWORD PTR ?tr@@3Uref_globals_t@@A+5720, eax

; 137  : 
; 138  : 	if( !tr.cinTextures[i] )

	mov	eax, DWORD PTR _i$[ebp]
	cmp	DWORD PTR ?tr@@3Uref_globals_t@@A[eax*4+4940], 0
	jne	SHORT $LN3@R_Allocate

; 139  : 	{
; 140  : 		char txName[16];
; 141  : 
; 142  : 		Q_snprintf( txName, sizeof( txName ), "*cinematic%i", i );

	mov	eax, DWORD PTR _i$[ebp]
	push	eax
	push	OFFSET ??_C@_0N@BFLBNGBL@?$CKcinematic?$CFi?$AA@
	push	16					; 00000010H
	lea	ecx, DWORD PTR _txName$1[ebp]
	push	ecx
	call	?Q_snprintf@@YAHPADIPBDZZ		; Q_snprintf
	add	esp, 16					; 00000010H

; 143  : 
; 144  : 		// create new cinematic texture
; 145  : 		// NOTE: dimension of texture is no matter because CIN_UPLOAD_FRAME will be rescale texture
; 146  : 		tr.cinTextures[i] = CREATE_TEXTURE( txName, 256, 256, NULL, txFlags ); 

	mov	eax, DWORD PTR _txFlags$[ebp]
	push	eax
	push	0
	push	256					; 00000100H
	push	256					; 00000100H
	lea	ecx, DWORD PTR _txName$1[ebp]
	push	ecx
	call	DWORD PTR ?gRenderfuncs@@3Urender_api_s@@A+64
	add	esp, 20					; 00000014H
	mov	edx, DWORD PTR _i$[ebp]
	mov	DWORD PTR ?tr@@3Uref_globals_t@@A[edx*4+4940], eax
$LN3@R_Allocate:

; 147  : 	}
; 148  : 
; 149  : 	return (i+1);

	mov	eax, DWORD PTR _i$[ebp]
	add	eax, 1
$LN1@R_Allocate:

; 150  : }

	pop	edi
	pop	esi
	pop	ebx
	mov	ecx, DWORD PTR __$ArrayPad$[ebp]
	xor	ecx, ebp
	call	@__security_check_cookie@4
	mov	esp, ebp
	pop	ebp
	ret	0
?R_AllocateCinematicTexture@@YAHI@Z ENDP		; R_AllocateCinematicTexture
_TEXT	ENDS
; Function compile flags: /Odtp /ZI
; File d:\!diffusion 2020\source code 2022\client-server\client\render\r_movie.cpp
;	COMDAT ?R_FreeCinematics@@YAXXZ
_TEXT	SEGMENT
_i$ = -4						; size = 4
?R_FreeCinematics@@YAXXZ PROC				; R_FreeCinematics, COMDAT

; 105  : {

	push	ebp
	mov	ebp, esp
	sub	esp, 68					; 00000044H
	push	ebx
	push	esi
	push	edi

; 106  : 	int i;
; 107  : 	for( i = 0; i < MAX_MOVIES; i++ )

	mov	DWORD PTR _i$[ebp], 0
	jmp	SHORT $LN4@R_FreeCine
$LN2@R_FreeCine:
	mov	eax, DWORD PTR _i$[ebp]
	add	eax, 1
	mov	DWORD PTR _i$[ebp], eax
$LN4@R_FreeCine:
	cmp	DWORD PTR _i$[ebp], 16			; 00000010H
	jge	SHORT $LN3@R_FreeCine

; 108  : 	{
; 109  : 		if( tr.cinematics[i].state )

	imul	eax, DWORD PTR _i$[ebp], 48
	cmp	DWORD PTR ?tr@@3Uref_globals_t@@A[eax+4764948], 0
	je	SHORT $LN8@R_FreeCine

; 110  : 		{
; 111  : 			ALERT( at_notice, "release cinematic %s\n", tr.cinematics[i].name );

	imul	eax, DWORD PTR _i$[ebp], 48
	add	eax, OFFSET ?tr@@3Uref_globals_t@@A+4764916
	push	eax
	push	OFFSET ??_C@_0BG@JFOOIMMD@release?5cinematic?5?$CFs?6?$AA@
	push	0
	call	?ALERT@@YAXW4ALERT_TYPE@@PADZZ		; ALERT
	add	esp, 12					; 0000000cH

; 112  : 			FREE_CINEMATIC( tr.cinematics[i].state );

	imul	eax, DWORD PTR _i$[ebp], 48
	mov	ecx, DWORD PTR ?tr@@3Uref_globals_t@@A[eax+4764948]
	push	ecx
	call	DWORD PTR ?gRenderfuncs@@3Urender_api_s@@A+112
	add	esp, 4
$LN8@R_FreeCine:

; 113  : 		}
; 114  : 	}

	jmp	SHORT $LN2@R_FreeCine
$LN3@R_FreeCine:

; 115  : 
; 116  : 	memset( tr.cinematics, 0, sizeof( tr.cinematics ));

	push	768					; 00000300H
	push	0
	push	OFFSET ?tr@@3Uref_globals_t@@A+4764916
	call	_memset
	add	esp, 12					; 0000000cH

; 117  : 
; 118  : 	for( i = 0; i < MAX_MOVIE_TEXTURES; i++ )

	mov	DWORD PTR _i$[ebp], 0
	jmp	SHORT $LN7@R_FreeCine
$LN5@R_FreeCine:
	mov	eax, DWORD PTR _i$[ebp]
	add	eax, 1
	mov	DWORD PTR _i$[ebp], eax
$LN7@R_FreeCine:
	cmp	DWORD PTR _i$[ebp], 64			; 00000040H
	jge	SHORT $LN6@R_FreeCine

; 119  : 	{
; 120  : 		if( !tr.cinTextures[i] ) break;

	mov	eax, DWORD PTR _i$[ebp]
	cmp	DWORD PTR ?tr@@3Uref_globals_t@@A[eax*4+4940], 0
	jne	SHORT $LN9@R_FreeCine
	jmp	SHORT $LN6@R_FreeCine
$LN9@R_FreeCine:

; 121  : 		FREE_TEXTURE( tr.cinTextures[i] );

	mov	eax, DWORD PTR _i$[ebp]
	mov	ecx, DWORD PTR ?tr@@3Uref_globals_t@@A[eax*4+4940]
	push	ecx
	call	DWORD PTR ?gRenderfuncs@@3Urender_api_s@@A+76
	add	esp, 4

; 122  : 	}

	jmp	SHORT $LN5@R_FreeCine
$LN6@R_FreeCine:

; 123  : 
; 124  : 	memset( tr.cinTextures, 0, sizeof( tr.cinTextures ));

	push	256					; 00000100H
	push	0
	push	OFFSET ?tr@@3Uref_globals_t@@A+4940
	call	_memset
	add	esp, 12					; 0000000cH

; 125  : }

	pop	edi
	pop	esi
	pop	ebx
	mov	esp, ebp
	pop	ebp
	ret	0
?R_FreeCinematics@@YAXXZ ENDP				; R_FreeCinematics
_TEXT	ENDS
; Function compile flags: /Odtp /ZI
; File d:\!diffusion 2020\source code 2022\client-server\client\render\r_movie.cpp
;	COMDAT ?R_InitCinematics@@YAXXZ
_TEXT	SEGMENT
_i$1 = -12						; size = 4
_ext$ = -8						; size = 4
_name$ = -4						; size = 4
?R_InitCinematics@@YAXXZ PROC				; R_InitCinematics, COMDAT

; 83   : {

	push	ebp
	mov	ebp, esp
	sub	esp, 76					; 0000004cH
	push	ebx
	push	esi
	push	edi

; 84   : 	const char *name, *ext;
; 85   : 
; 86   : 	// make sure what we have texture to draw cinematics
; 87   : 	if( !FBitSet( world->features, WORLD_HAS_MOVIES ))

	mov	eax, DWORD PTR ?world@@3PAUgl_world_t@@A ; world
	movzx	ecx, WORD PTR [eax+64]
	and	ecx, 1
	jne	SHORT $LN5@R_InitCine

; 88   : 		return;

	jmp	SHORT $LN1@R_InitCine
$LN5@R_InitCine:

; 89   : 
; 90   : 	for( int i = 1; i < 1024; i++ )

	mov	DWORD PTR _i$1[ebp], 1
	jmp	SHORT $LN4@R_InitCine
$LN2@R_InitCine:
	mov	eax, DWORD PTR _i$1[ebp]
	add	eax, 1
	mov	DWORD PTR _i$1[ebp], eax
$LN4@R_InitCine:
	cmp	DWORD PTR _i$1[ebp], 1024		; 00000400H
	jge	SHORT $LN1@R_InitCine

; 91   : 	{
; 92   : 		name = gRenderfuncs.GetFileByIndex( i );

	mov	eax, DWORD PTR _i$1[ebp]
	push	eax
	call	DWORD PTR ?gRenderfuncs@@3Urender_api_s@@A+204
	add	esp, 4
	mov	DWORD PTR _name$[ebp], eax

; 93   : 
; 94   : 		if( !name || !*name ) break; // end of files array

	cmp	DWORD PTR _name$[ebp], 0
	je	SHORT $LN7@R_InitCine
	mov	eax, DWORD PTR _name$[ebp]
	movsx	ecx, BYTE PTR [eax]
	test	ecx, ecx
	jne	SHORT $LN6@R_InitCine
$LN7@R_InitCine:
	jmp	SHORT $LN1@R_InitCine
$LN6@R_InitCine:

; 95   : 
; 96   : 		ext = UTIL_FileExtension( name );

	mov	eax, DWORD PTR _name$[ebp]
	push	eax
	call	?UTIL_FileExtension@@YAPBDPBD@Z		; UTIL_FileExtension
	add	esp, 4
	mov	DWORD PTR _ext$[ebp], eax

; 97   : 		if( Q_stricmp( ext, "avi" )) continue;	// not AVI

	push	99999					; 0001869fH
	push	OFFSET ??_C@_03LJGCHEIJ@avi?$AA@
	mov	eax, DWORD PTR _ext$[ebp]
	push	eax
	call	?Q_strnicmp@@YAHPBD0H@Z			; Q_strnicmp
	add	esp, 12					; 0000000cH
	test	eax, eax
	je	SHORT $LN8@R_InitCine
	jmp	SHORT $LN2@R_InitCine
$LN8@R_InitCine:

; 98   : 
; 99   : 		if( R_PrecacheCinematic( name ) == -1 )

	mov	eax, DWORD PTR _name$[ebp]
	push	eax
	call	?R_PrecacheCinematic@@YAHPBD@Z		; R_PrecacheCinematic
	add	esp, 4
	cmp	eax, -1
	jne	SHORT $LN9@R_InitCine

; 100  : 			break; // full

	jmp	SHORT $LN1@R_InitCine
$LN9@R_InitCine:

; 101  : 	}

	jmp	SHORT $LN2@R_InitCine
$LN1@R_InitCine:

; 102  : }

	pop	edi
	pop	esi
	pop	ebx
	mov	esp, ebp
	pop	ebp
	ret	0
?R_InitCinematics@@YAXXZ ENDP				; R_InitCinematics
_TEXT	ENDS
; Function compile flags: /Odtp /ZI
; File d:\!diffusion 2020\source code 2022\client-server\client\render\r_movie.cpp
;	COMDAT ?R_PrecacheCinematic@@YAHPBD@Z
_TEXT	SEGMENT
tv154 = -76						; size = 4
_i$ = -8						; size = 4
_load_sound$ = -4					; size = 4
_cinname$ = 8						; size = 4
?R_PrecacheCinematic@@YAHPBD@Z PROC			; R_PrecacheCinematic, COMDAT

; 23   : {

	push	ebp
	mov	ebp, esp
	sub	esp, 76					; 0000004cH
	push	ebx
	push	esi
	push	edi

; 24   : 	int load_sound = 0;

	mov	DWORD PTR _load_sound$[ebp], 0

; 25   : 
; 26   : 	if( !cinname || !*cinname )

	cmp	DWORD PTR _cinname$[ebp], 0
	je	SHORT $LN9@R_Precache
	mov	eax, DWORD PTR _cinname$[ebp]
	movsx	ecx, BYTE PTR [eax]
	test	ecx, ecx
	jne	SHORT $LN8@R_Precache
$LN9@R_Precache:

; 27   : 		return -1;

	or	eax, -1
	jmp	$LN1@R_Precache
$LN8@R_Precache:

; 28   : 
; 29   : 	if( *cinname == '*' )

	mov	eax, DWORD PTR _cinname$[ebp]
	movsx	ecx, BYTE PTR [eax]
	cmp	ecx, 42					; 0000002aH
	jne	SHORT $LN10@R_Precache

; 30   : 	{
; 31   : 		if( g_iXashEngineBuildNumber >= 4256 )

	cmp	DWORD PTR ?g_iXashEngineBuildNumber@@3HA, 4256 ; g_iXashEngineBuildNumber, 000010a0H
	jl	SHORT $LN11@R_Precache

; 32   : 			load_sound = 1;

	mov	DWORD PTR _load_sound$[ebp], 1
$LN11@R_Precache:

; 33   : 		cinname++;

	mov	eax, DWORD PTR _cinname$[ebp]
	add	eax, 1
	mov	DWORD PTR _cinname$[ebp], eax
$LN10@R_Precache:

; 34   : 	}
; 35   : 
; 36   : 	// not AVI file
; 37   : 	if( Q_stricmp( UTIL_FileExtension( cinname ), "avi" ))

	push	99999					; 0001869fH
	push	OFFSET ??_C@_03LJGCHEIJ@avi?$AA@
	mov	eax, DWORD PTR _cinname$[ebp]
	push	eax
	call	?UTIL_FileExtension@@YAPBDPBD@Z		; UTIL_FileExtension
	add	esp, 4
	push	eax
	call	?Q_strnicmp@@YAHPBD0H@Z			; Q_strnicmp
	add	esp, 12					; 0000000cH
	test	eax, eax
	je	SHORT $LN12@R_Precache

; 38   : 		return -1;

	or	eax, -1
	jmp	$LN1@R_Precache
$LN12@R_Precache:

; 39   : 
; 40   : 	// first check for co-existing
; 41   : 	int i;
; 42   : 	for( i = 0; i < MAX_MOVIES; i++ )

	mov	DWORD PTR _i$[ebp], 0
	jmp	SHORT $LN4@R_Precache
$LN2@R_Precache:
	mov	eax, DWORD PTR _i$[ebp]
	add	eax, 1
	mov	DWORD PTR _i$[ebp], eax
$LN4@R_Precache:
	cmp	DWORD PTR _i$[ebp], 16			; 00000010H
	jge	SHORT $LN3@R_Precache

; 43   : 	{
; 44   : 		if( !Q_stricmp( tr.cinematics[i].name, cinname ))

	push	99999					; 0001869fH
	mov	eax, DWORD PTR _cinname$[ebp]
	push	eax
	imul	ecx, DWORD PTR _i$[ebp], 48
	add	ecx, OFFSET ?tr@@3Uref_globals_t@@A+4764916
	push	ecx
	call	?Q_strnicmp@@YAHPBD0H@Z			; Q_strnicmp
	add	esp, 12					; 0000000cH
	test	eax, eax
	jne	SHORT $LN13@R_Precache

; 45   : 		{
; 46   : 			// already existed
; 47   : 			return i;

	mov	eax, DWORD PTR _i$[ebp]
	jmp	$LN1@R_Precache
$LN13@R_Precache:

; 48   : 		}
; 49   : 	}

	jmp	SHORT $LN2@R_Precache
$LN3@R_Precache:

; 50   : 
; 51   : 	// found an empty slot
; 52   : 	for( i = 0; i < MAX_MOVIES; i++ )

	mov	DWORD PTR _i$[ebp], 0
	jmp	SHORT $LN7@R_Precache
$LN5@R_Precache:
	mov	eax, DWORD PTR _i$[ebp]
	add	eax, 1
	mov	DWORD PTR _i$[ebp], eax
$LN7@R_Precache:
	cmp	DWORD PTR _i$[ebp], 16			; 00000010H
	jge	SHORT $LN6@R_Precache

; 53   : 	{
; 54   : 		if( !tr.cinematics[i].name[0] )

	imul	eax, DWORD PTR _i$[ebp], 48
	mov	ecx, 1
	imul	edx, ecx, 0
	movsx	eax, BYTE PTR ?tr@@3Uref_globals_t@@A[eax+edx+4764916]
	test	eax, eax
	jne	SHORT $LN14@R_Precache

; 55   : 			break;

	jmp	SHORT $LN6@R_Precache
$LN14@R_Precache:

; 56   : 	}

	jmp	SHORT $LN5@R_Precache
$LN6@R_Precache:

; 57   : 
; 58   : 	if( i == MAX_MOVIES )

	cmp	DWORD PTR _i$[ebp], 16			; 00000010H
	jne	SHORT $LN15@R_Precache

; 59   : 	{
; 60   : 		ALERT( at_error, "R_PrecacheCinematic: cinematic list limit exceeded\n" );

	push	OFFSET ??_C@_0DE@IDBJIGLA@R_PrecacheCinematic?3?5cinematic?5l@
	push	4
	call	?ALERT@@YAXW4ALERT_TYPE@@PADZZ		; ALERT
	add	esp, 8

; 61   : 		return -1;

	or	eax, -1
	jmp	$LN1@R_Precache
$LN15@R_Precache:

; 62   : 	}
; 63   : 
; 64   : 	// register new cinematic
; 65   : 	Q_strncpy( tr.cinematics[i].name, cinname, sizeof( tr.cinematics[0].name ));

	push	32					; 00000020H
	mov	eax, DWORD PTR _cinname$[ebp]
	push	eax
	imul	ecx, DWORD PTR _i$[ebp], 48
	add	ecx, OFFSET ?tr@@3Uref_globals_t@@A+4764916
	push	ecx
	call	?Q_strncpy@@YAIPADPBDI@Z		; Q_strncpy
	add	esp, 12					; 0000000cH

; 66   : 	if( tr.cinematics[i].state )

	imul	eax, DWORD PTR _i$[ebp], 48
	cmp	DWORD PTR ?tr@@3Uref_globals_t@@A[eax+4764948], 0
	je	SHORT $LN16@R_Precache

; 67   : 	{
; 68   : 		ALERT( at_warning, "Reused cin state %i with %s\n", i, tr.cinematics[i].name );

	imul	eax, DWORD PTR _i$[ebp], 48
	add	eax, OFFSET ?tr@@3Uref_globals_t@@A+4764916
	push	eax
	mov	ecx, DWORD PTR _i$[ebp]
	push	ecx
	push	OFFSET ??_C@_0BN@LLBELHHG@Reused?5cin?5state?5?$CFi?5with?5?$CFs?6?$AA@
	push	3
	call	?ALERT@@YAXW4ALERT_TYPE@@PADZZ		; ALERT
	add	esp, 16					; 00000010H

; 69   : 		FREE_CINEMATIC( tr.cinematics[i].state );

	imul	eax, DWORD PTR _i$[ebp], 48
	mov	ecx, DWORD PTR ?tr@@3Uref_globals_t@@A[eax+4764948]
	push	ecx
	call	DWORD PTR ?gRenderfuncs@@3Urender_api_s@@A+112
	add	esp, 4
$LN16@R_Precache:

; 70   : 	}
; 71   : 
; 72   : 	ALERT( at_console, "Loading cinematic %s [%s]\n", cinname, load_sound ? "sound" : "muted" );

	cmp	DWORD PTR _load_sound$[ebp], 0
	je	SHORT $LN19@R_Precache
	mov	DWORD PTR tv154[ebp], OFFSET ??_C@_05MHNANJII@sound?$AA@
	jmp	SHORT $LN20@R_Precache
$LN19@R_Precache:
	mov	DWORD PTR tv154[ebp], OFFSET ??_C@_05GALFLNME@muted?$AA@
$LN20@R_Precache:
	mov	eax, DWORD PTR tv154[ebp]
	push	eax
	mov	ecx, DWORD PTR _cinname$[ebp]
	push	ecx
	push	OFFSET ??_C@_0BL@NFKJJJCK@Loading?5cinematic?5?$CFs?5?$FL?$CFs?$FN?6?$AA@
	push	1
	call	?ALERT@@YAXW4ALERT_TYPE@@PADZZ		; ALERT
	add	esp, 16					; 00000010H

; 73   : 	tr.cinematics[i].state = OPEN_CINEMATIC( tr.cinematics[i].name, load_sound );

	mov	eax, DWORD PTR _load_sound$[ebp]
	push	eax
	imul	ecx, DWORD PTR _i$[ebp], 48
	add	ecx, OFFSET ?tr@@3Uref_globals_t@@A+4764916
	push	ecx
	call	DWORD PTR ?gRenderfuncs@@3Urender_api_s@@A+92
	add	esp, 8
	imul	edx, DWORD PTR _i$[ebp], 48
	mov	DWORD PTR ?tr@@3Uref_globals_t@@A[edx+4764948], eax

; 74   : 
; 75   : 	// grab info about movie
; 76   : 	if( tr.cinematics[i].state != NULL )

	imul	eax, DWORD PTR _i$[ebp], 48
	cmp	DWORD PTR ?tr@@3Uref_globals_t@@A[eax+4764948], 0
	je	SHORT $LN17@R_Precache

; 77   : 		CIN_GET_VIDEO_INFO( tr.cinematics[i].state, &tr.cinematics[i].xres, &tr.cinematics[i].yres, &tr.cinematics[i].length );

	imul	eax, DWORD PTR _i$[ebp], 48
	add	eax, OFFSET ?tr@@3Uref_globals_t@@A+4764952
	push	eax
	imul	ecx, DWORD PTR _i$[ebp], 48
	add	ecx, OFFSET ?tr@@3Uref_globals_t@@A+4764960
	push	ecx
	imul	edx, DWORD PTR _i$[ebp], 48
	add	edx, OFFSET ?tr@@3Uref_globals_t@@A+4764956
	push	edx
	imul	eax, DWORD PTR _i$[ebp], 48
	mov	ecx, DWORD PTR ?tr@@3Uref_globals_t@@A[eax+4764948]
	push	ecx
	call	DWORD PTR ?gRenderfuncs@@3Urender_api_s@@A+96
	add	esp, 16					; 00000010H
$LN17@R_Precache:

; 78   : 
; 79   : 	return i;

	mov	eax, DWORD PTR _i$[ebp]
$LN1@R_Precache:

; 80   : }

	pop	edi
	pop	esi
	pop	ebx
	mov	esp, ebp
	pop	ebp
	ret	0
?R_PrecacheCinematic@@YAHPBD@Z ENDP			; R_PrecacheCinematic
_TEXT	ENDS
; Function compile flags: /Odtp /ZI
;	COMDAT ??__G@YGXPAX0IIP6EPAX00@Z@Z
_TEXT	SEGMENT
tv66 = -68						; size = 4
___t$ = 8						; size = 4
___u$ = 12						; size = 4
___s$ = 16						; size = 4
___n$ = 20						; size = 4
___f$ = 24						; size = 4
??__G@YGXPAX0IIP6EPAX00@Z@Z PROC			; `vector copy constructor iterator', COMDAT
	push	ebp
	mov	ebp, esp
	sub	esp, 68					; 00000044H
	push	ebx
	push	esi
	push	edi
$LN2@vector:
	mov	eax, DWORD PTR ___n$[ebp]
	mov	DWORD PTR tv66[ebp], eax
	mov	ecx, DWORD PTR ___n$[ebp]
	sub	ecx, 1
	mov	DWORD PTR ___n$[ebp], ecx
	cmp	DWORD PTR tv66[ebp], 0
	jbe	SHORT $LN1@vector
	mov	eax, DWORD PTR ___u$[ebp]
	push	eax
	mov	ecx, DWORD PTR ___t$[ebp]
	call	DWORD PTR ___f$[ebp]
	mov	eax, DWORD PTR ___t$[ebp]
	add	eax, DWORD PTR ___s$[ebp]
	mov	DWORD PTR ___t$[ebp], eax
	mov	eax, DWORD PTR ___u$[ebp]
	add	eax, DWORD PTR ___s$[ebp]
	mov	DWORD PTR ___u$[ebp], eax
	jmp	SHORT $LN2@vector
$LN1@vector:
	pop	edi
	pop	esi
	pop	ebx
	mov	esp, ebp
	pop	ebp
	ret	20					; 00000014H
??__G@YGXPAX0IIP6EPAX00@Z@Z ENDP			; `vector copy constructor iterator'
_TEXT	ENDS
; Function compile flags: /Odtp /ZI
;	COMDAT ??_H@YGXPAXIIP6EPAX0@Z@Z
_TEXT	SEGMENT
tv66 = -68						; size = 4
___t$ = 8						; size = 4
___s$ = 12						; size = 4
___n$ = 16						; size = 4
___f$ = 20						; size = 4
??_H@YGXPAXIIP6EPAX0@Z@Z PROC				; `vector constructor iterator', COMDAT
	push	ebp
	mov	ebp, esp
	sub	esp, 68					; 00000044H
	push	ebx
	push	esi
	push	edi
$LN2@vector:
	mov	eax, DWORD PTR ___n$[ebp]
	mov	DWORD PTR tv66[ebp], eax
	mov	ecx, DWORD PTR ___n$[ebp]
	sub	ecx, 1
	mov	DWORD PTR ___n$[ebp], ecx
	cmp	DWORD PTR tv66[ebp], 0
	jbe	SHORT $LN1@vector
	mov	ecx, DWORD PTR ___t$[ebp]
	call	DWORD PTR ___f$[ebp]
	mov	eax, DWORD PTR ___t$[ebp]
	add	eax, DWORD PTR ___s$[ebp]
	mov	DWORD PTR ___t$[ebp], eax
	jmp	SHORT $LN2@vector
$LN1@vector:
	pop	edi
	pop	esi
	pop	ebx
	mov	esp, ebp
	pop	ebp
	ret	16					; 00000010H
??_H@YGXPAXIIP6EPAX0@Z@Z ENDP				; `vector constructor iterator'
_TEXT	ENDS
END
