; Listing generated by Microsoft (R) Optimizing Compiler Version 19.00.24247.2 

	TITLE	D:\!DIFFUSION 2020\source code 2022\client-server\client\render\r_opengl.cpp
	.686P
	.XMM
	include listing.inc
	.model	flat

INCLUDELIB LIBCMT
INCLUDELIB OLDNAMES

PUBLIC	?pglEvalCoord2fv@@3P6GXPBM@ZA			; pglEvalCoord2fv
PUBLIC	?pglGetProgramivARB@@3P6GXIIPAH@ZA		; pglGetProgramivARB
PUBLIC	?pglUniform1fARB@@3P6GXHM@ZA			; pglUniform1fARB
PUBLIC	?pglEvalMesh1@@3P6GXIHH@ZA			; pglEvalMesh1
PUBLIC	?pglUniform2fARB@@3P6GXHMM@ZA			; pglUniform2fARB
PUBLIC	?pglEvalMesh2@@3P6GXIHHHH@ZA			; pglEvalMesh2
PUBLIC	?pglEvalPoint1@@3P6GXH@ZA			; pglEvalPoint1
PUBLIC	?pglUniform3fARB@@3P6GXHMMM@ZA			; pglUniform3fARB
PUBLIC	?pglEvalPoint2@@3P6GXHH@ZA			; pglEvalPoint2
PUBLIC	?pglUniform4fARB@@3P6GXHMMMM@ZA			; pglUniform4fARB
PUBLIC	?pglFeedbackBuffer@@3P6GXHIPAM@ZA		; pglFeedbackBuffer
PUBLIC	?pglUniform1iARB@@3P6GXHH@ZA			; pglUniform1iARB
PUBLIC	?pglFinish@@3P6GXXZA				; pglFinish
PUBLIC	?pglFlush@@3P6GXXZA				; pglFlush
PUBLIC	?pglUniform2iARB@@3P6GXHHH@ZA			; pglUniform2iARB
PUBLIC	?pglFogf@@3P6GXIM@ZA				; pglFogf
PUBLIC	?pglFogfv@@3P6GXIPBM@ZA				; pglFogfv
PUBLIC	?pglUniform3iARB@@3P6GXHHHH@ZA			; pglUniform3iARB
PUBLIC	?pglFogi@@3P6GXIH@ZA				; pglFogi
PUBLIC	?pglFogiv@@3P6GXIPBH@ZA				; pglFogiv
PUBLIC	?pglUniform4iARB@@3P6GXHHHHH@ZA			; pglUniform4iARB
PUBLIC	?pglFrontFace@@3P6GXI@ZA			; pglFrontFace
PUBLIC	?pglUniform1fvARB@@3P6GXHHPBM@ZA		; pglUniform1fvARB
PUBLIC	?pglUniform2fvARB@@3P6GXHHPBM@ZA		; pglUniform2fvARB
PUBLIC	?pglFrustum@@3P6GXNNNNNN@ZA			; pglFrustum
PUBLIC	?pglGenTextures@@3P6GXHPAI@ZA			; pglGenTextures
PUBLIC	?pglUniform3fvARB@@3P6GXHHPBM@ZA		; pglUniform3fvARB
PUBLIC	?pglGetBooleanv@@3P6GXIPAE@ZA			; pglGetBooleanv
PUBLIC	?pglUniform4fvARB@@3P6GXHHPBM@ZA		; pglUniform4fvARB
PUBLIC	?pglGetClipPlane@@3P6GXIPAN@ZA			; pglGetClipPlane
PUBLIC	?pglGetDoublev@@3P6GXIPAN@ZA			; pglGetDoublev
PUBLIC	?pglUniform1ivARB@@3P6GXHHPBH@ZA		; pglUniform1ivARB
PUBLIC	?pglGetFloatv@@3P6GXIPAM@ZA			; pglGetFloatv
PUBLIC	?pglUniform2ivARB@@3P6GXHHPBH@ZA		; pglUniform2ivARB
PUBLIC	?pglGetIntegerv@@3P6GXIPAH@ZA			; pglGetIntegerv
PUBLIC	?pglUniform3ivARB@@3P6GXHHPBH@ZA		; pglUniform3ivARB
PUBLIC	?pglGetLightfv@@3P6GXIIPAM@ZA			; pglGetLightfv
PUBLIC	?pglUniform4ivARB@@3P6GXHHPBH@ZA		; pglUniform4ivARB
PUBLIC	?pglGetLightiv@@3P6GXIIPAH@ZA			; pglGetLightiv
PUBLIC	?pglUniformMatrix2fvARB@@3P6GXHHEPBM@ZA		; pglUniformMatrix2fvARB
PUBLIC	?pglGetMapdv@@3P6GXIIPAN@ZA			; pglGetMapdv
PUBLIC	?pglUniformMatrix3fvARB@@3P6GXHHEPBM@ZA		; pglUniformMatrix3fvARB
PUBLIC	?pglGetMapfv@@3P6GXIIPAM@ZA			; pglGetMapfv
PUBLIC	?pglGetMapiv@@3P6GXIIPAH@ZA			; pglGetMapiv
PUBLIC	?pglUniformMatrix4fvARB@@3P6GXHHEPBM@ZA		; pglUniformMatrix4fvARB
PUBLIC	?pglGetMaterialfv@@3P6GXIIPAM@ZA		; pglGetMaterialfv
PUBLIC	?pglGetObjectParameterfvARB@@3P6GXIIPAM@ZA	; pglGetObjectParameterfvARB
PUBLIC	?pglGetMaterialiv@@3P6GXIIPAH@ZA		; pglGetMaterialiv
PUBLIC	?pglGetObjectParameterivARB@@3P6GXIIPAH@ZA	; pglGetObjectParameterivARB
PUBLIC	?pglGetPixelMapfv@@3P6GXIPAM@ZA			; pglGetPixelMapfv
PUBLIC	?pglGetInfoLogARB@@3P6GXIHPAHPAD@ZA		; pglGetInfoLogARB
PUBLIC	?pglGetPixelMapuiv@@3P6GXIPAI@ZA		; pglGetPixelMapuiv
PUBLIC	?pglGetPixelMapusv@@3P6GXIPAG@ZA		; pglGetPixelMapusv
PUBLIC	?pglGetAttachedObjectsARB@@3P6GXIHPAHPAI@ZA	; pglGetAttachedObjectsARB
PUBLIC	?pglGetPointerv@@3P6GXIPAPAX@ZA			; pglGetPointerv
PUBLIC	?pglGetPolygonStipple@@3P6GXPAE@ZA		; pglGetPolygonStipple
PUBLIC	?pglGetUniformLocationARB@@3P6GHIPBD@ZA		; pglGetUniformLocationARB
PUBLIC	?pglGetTexEnvfv@@3P6GXIIPAM@ZA			; pglGetTexEnvfv
PUBLIC	?pglGetActiveUniformARB@@3P6GXIIHPAH0PAIPAD@ZA	; pglGetActiveUniformARB
PUBLIC	?pglGetTexEnviv@@3P6GXIIPAH@ZA			; pglGetTexEnviv
PUBLIC	?pglGetTexGendv@@3P6GXIIPAN@ZA			; pglGetTexGendv
PUBLIC	?pglGetUniformfvARB@@3P6GXIHPAM@ZA		; pglGetUniformfvARB
PUBLIC	?pglGetTexGenfv@@3P6GXIIPAM@ZA			; pglGetTexGenfv
PUBLIC	?pglGetUniformivARB@@3P6GXIHPAH@ZA		; pglGetUniformivARB
PUBLIC	?pglGetTexGeniv@@3P6GXIIPAH@ZA			; pglGetTexGeniv
PUBLIC	?pglGetShaderSourceARB@@3P6GXIHPAHPAD@ZA	; pglGetShaderSourceARB
PUBLIC	?pglGetTexImage@@3P6GXIHIIPAX@ZA		; pglGetTexImage
PUBLIC	?pglGetTexLevelParameterfv@@3P6GXIHIPAM@ZA	; pglGetTexLevelParameterfv
PUBLIC	?pglTexImage3D@@3P6GXIHIHHHHIIPBX@ZA		; pglTexImage3D
PUBLIC	?pglGetTexLevelParameteriv@@3P6GXIHIPAH@ZA	; pglGetTexLevelParameteriv
PUBLIC	?pglGetTexParameterfv@@3P6GXIIPAM@ZA		; pglGetTexParameterfv
PUBLIC	?pglTexSubImage3D@@3P6GXIHHHHHHHIIPBX@ZA	; pglTexSubImage3D
PUBLIC	?pglGetTexParameteriv@@3P6GXIIPAH@ZA		; pglGetTexParameteriv
PUBLIC	?pglHint@@3P6GXII@ZA				; pglHint
PUBLIC	?pglIndexMask@@3P6GXI@ZA			; pglIndexMask
PUBLIC	?pglIndexPointer@@3P6GXIHPBX@ZA			; pglIndexPointer
PUBLIC	?pglCopyTexSubImage3D@@3P6GXIHHHHHHHH@ZA	; pglCopyTexSubImage3D
PUBLIC	?pglIndexd@@3P6GXN@ZA				; pglIndexd
PUBLIC	?pglBlendEquationEXT@@3P6GXI@ZA			; pglBlendEquationEXT
PUBLIC	?pglIndexdv@@3P6GXPBN@ZA			; pglIndexdv
PUBLIC	?pglIndexf@@3P6GXM@ZA				; pglIndexf
PUBLIC	?pglStencilOpSeparate@@3P6GXIIII@ZA		; pglStencilOpSeparate
PUBLIC	?pglIndexfv@@3P6GXPBM@ZA			; pglIndexfv
PUBLIC	?pglIndexi@@3P6GXH@ZA				; pglIndexi
PUBLIC	?pglIndexiv@@3P6GXPBH@ZA			; pglIndexiv
PUBLIC	?pglStencilFuncSeparate@@3P6GXIIHI@ZA		; pglStencilFuncSeparate
PUBLIC	?pglIndexs@@3P6GXF@ZA				; pglIndexs
PUBLIC	?pglActiveStencilFaceEXT@@3P6GXI@ZA		; pglActiveStencilFaceEXT
PUBLIC	?pglIndexsv@@3P6GXPBF@ZA			; pglIndexsv
PUBLIC	?pglIndexub@@3P6GXE@ZA				; pglIndexub
PUBLIC	?pglIndexubv@@3P6GXPBE@ZA			; pglIndexubv
PUBLIC	?pglBlendFuncSeparate@@3P6GXIIII@ZA		; pglBlendFuncSeparate
PUBLIC	?pglInitNames@@3P6GXXZA				; pglInitNames
PUBLIC	?pglInterleavedArrays@@3P6GXIHPBX@ZA		; pglInterleavedArrays
PUBLIC	?pglVertexAttribPointerARB@@3P6GXIHIEHPBX@ZA	; pglVertexAttribPointerARB
PUBLIC	?pglEnableVertexAttribArrayARB@@3P6GXI@ZA	; pglEnableVertexAttribArrayARB
PUBLIC	?pglLightModelf@@3P6GXIM@ZA			; pglLightModelf
PUBLIC	?pglDisableVertexAttribArrayARB@@3P6GXI@ZA	; pglDisableVertexAttribArrayARB
PUBLIC	?pglLightModelfv@@3P6GXIPBM@ZA			; pglLightModelfv
PUBLIC	?pglBindAttribLocationARB@@3P6GXIIPBD@ZA	; pglBindAttribLocationARB
PUBLIC	?pglLightModeli@@3P6GXIH@ZA			; pglLightModeli
PUBLIC	?pglLightModeliv@@3P6GXIPBH@ZA			; pglLightModeliv
PUBLIC	?pglLightf@@3P6GXIIM@ZA				; pglLightf
PUBLIC	?pglGetActiveAttribARB@@3P6GXIIHPAH0PAIPAD@ZA	; pglGetActiveAttribARB
PUBLIC	?pglGetAttribLocationARB@@3P6GHIPBD@ZA		; pglGetAttribLocationARB
PUBLIC	?pglLightfv@@3P6GXIIPBM@ZA			; pglLightfv
PUBLIC	?pglBindFragDataLocation@@3P6GXIIPBD@ZA		; pglBindFragDataLocation
PUBLIC	?pglLighti@@3P6GXIIH@ZA				; pglLighti
PUBLIC	?pglLightiv@@3P6GXIIPBH@ZA			; pglLightiv
PUBLIC	?pglVertexAttrib2fARB@@3P6GXIMM@ZA		; pglVertexAttrib2fARB
PUBLIC	?pglVertexAttrib2fvARB@@3P6GXIPBM@ZA		; pglVertexAttrib2fvARB
PUBLIC	?pglLineStipple@@3P6GXHG@ZA			; pglLineStipple
PUBLIC	?pglLineWidth@@3P6GXM@ZA			; pglLineWidth
PUBLIC	?pglVertexAttrib3fvARB@@3P6GXIPBM@ZA		; pglVertexAttrib3fvARB
PUBLIC	?pglListBase@@3P6GXI@ZA				; pglListBase
PUBLIC	?pglLoadIdentity@@3P6GXXZA			; pglLoadIdentity
PUBLIC	?pglLoadMatrixd@@3P6GXPBN@ZA			; pglLoadMatrixd
PUBLIC	?pglVertexAttrib4fARB@@3P6GXIMMMM@ZA		; pglVertexAttrib4fARB
PUBLIC	?pglLoadMatrixf@@3P6GXPBM@ZA			; pglLoadMatrixf
PUBLIC	?pglVertexAttrib4fvARB@@3P6GXIPBM@ZA		; pglVertexAttrib4fvARB
PUBLIC	?pglLoadName@@3P6GXI@ZA				; pglLoadName
PUBLIC	?pglLogicOp@@3P6GXI@ZA				; pglLogicOp
PUBLIC	?pglVertexAttrib4ubvARB@@3P6GXIPBE@ZA		; pglVertexAttrib4ubvARB
PUBLIC	?pglBindBufferARB@@3P6GXII@ZA			; pglBindBufferARB
PUBLIC	?pglMap1d@@3P6GXINNHHPBN@ZA			; pglMap1d
PUBLIC	?pglDeleteBuffersARB@@3P6GXHPBI@ZA		; pglDeleteBuffersARB
PUBLIC	?pglGenBuffersARB@@3P6GXHPAI@ZA			; pglGenBuffersARB
PUBLIC	?pglIsBufferARB@@3P6GEI@ZA			; pglIsBufferARB
PUBLIC	?pglMap1f@@3P6GXIMMHHPBM@ZA			; pglMap1f
PUBLIC	?pglMapBufferARB@@3P6GPAXII@ZA			; pglMapBufferARB
PUBLIC	?pglUnmapBufferARB@@3P6GEI@ZA			; pglUnmapBufferARB
PUBLIC	?pglBufferDataARB@@3P6GXIHPBXI@ZA		; pglBufferDataARB
PUBLIC	?pglMap2d@@3P6GXINNHHNNHHPBN@ZA			; pglMap2d
PUBLIC	?pglBufferSubDataARB@@3P6GXIHHPBX@ZA		; pglBufferSubDataARB
PUBLIC	?pglGenQueriesARB@@3P6GXHPAI@ZA			; pglGenQueriesARB
PUBLIC	?pglDeleteQueriesARB@@3P6GXHPBI@ZA		; pglDeleteQueriesARB
PUBLIC	?pglIsQueryARB@@3P6GEI@ZA			; pglIsQueryARB
PUBLIC	?pglMap2f@@3P6GXIMMHHMMHHPBM@ZA			; pglMap2f
PUBLIC	?pglBeginQueryARB@@3P6GXII@ZA			; pglBeginQueryARB
PUBLIC	?pglMapGrid1d@@3P6GXHNN@ZA			; pglMapGrid1d
PUBLIC	?pglEndQueryARB@@3P6GXI@ZA			; pglEndQueryARB
PUBLIC	?pglMapGrid1f@@3P6GXHMM@ZA			; pglMapGrid1f
PUBLIC	?pglGetQueryivARB@@3P6GXIIPAH@ZA		; pglGetQueryivARB
PUBLIC	?pglGetQueryObjectivARB@@3P6GXIIPAH@ZA		; pglGetQueryObjectivARB
PUBLIC	?pglMapGrid2d@@3P6GXHNNHNN@ZA			; pglMapGrid2d
PUBLIC	?pglGetQueryObjectuivARB@@3P6GXIIPAI@ZA		; pglGetQueryObjectuivARB
PUBLIC	?pglSelectTextureSGIS@@3P6GXI@ZA		; pglSelectTextureSGIS
PUBLIC	?pglMapGrid2f@@3P6GXHMMHMM@ZA			; pglMapGrid2f
PUBLIC	?pglMTexCoord2fSGIS@@3P6GXIMM@ZA		; pglMTexCoord2fSGIS
PUBLIC	?pglSwapInterval@@3P6GXH@ZA			; pglSwapInterval
PUBLIC	?pglMaterialf@@3P6GXIIM@ZA			; pglMaterialf
PUBLIC	?pglIsRenderbuffer@@3P6GEI@ZA			; pglIsRenderbuffer
PUBLIC	?pglBindRenderbuffer@@3P6GXII@ZA		; pglBindRenderbuffer
PUBLIC	?pglMaterialfv@@3P6GXIIPBM@ZA			; pglMaterialfv
PUBLIC	?pglDeleteRenderbuffers@@3P6GXHPBI@ZA		; pglDeleteRenderbuffers
PUBLIC	?pglMateriali@@3P6GXIIH@ZA			; pglMateriali
PUBLIC	?pglGenRenderbuffers@@3P6GXHPAI@ZA		; pglGenRenderbuffers
PUBLIC	?pglMaterialiv@@3P6GXIIPBH@ZA			; pglMaterialiv
PUBLIC	?pglRenderbufferStorage@@3P6GXIIHH@ZA		; pglRenderbufferStorage
PUBLIC	?pglMatrixMode@@3P6GXI@ZA			; pglMatrixMode
PUBLIC	?pglMultMatrixd@@3P6GXPBN@ZA			; pglMultMatrixd
PUBLIC	?pglMultMatrixf@@3P6GXPBM@ZA			; pglMultMatrixf
PUBLIC	?pglRenderbufferStorageMultisample@@3P6GXIHIHH@ZA ; pglRenderbufferStorageMultisample
PUBLIC	?pglNewList@@3P6GXII@ZA				; pglNewList
PUBLIC	?pglGetRenderbufferParameteriv@@3P6GXIIPAH@ZA	; pglGetRenderbufferParameteriv
PUBLIC	?pglNormal3b@@3P6GXCCC@ZA			; pglNormal3b
PUBLIC	?pglIsFramebuffer@@3P6GEI@ZA			; pglIsFramebuffer
PUBLIC	?pglNormal3bv@@3P6GXPBC@ZA			; pglNormal3bv
PUBLIC	?pglBindFramebuffer@@3P6GXII@ZA			; pglBindFramebuffer
PUBLIC	?pglNormal3d@@3P6GXNNN@ZA			; pglNormal3d
PUBLIC	?pglDeleteFramebuffers@@3P6GXHPBI@ZA		; pglDeleteFramebuffers
PUBLIC	?pglNormal3dv@@3P6GXPBN@ZA			; pglNormal3dv
PUBLIC	?pglGenFramebuffers@@3P6GXHPAI@ZA		; pglGenFramebuffers
PUBLIC	?pglCheckFramebufferStatus@@3P6GII@ZA		; pglCheckFramebufferStatus
PUBLIC	?pglNormal3f@@3P6GXMMM@ZA			; pglNormal3f
PUBLIC	?pglNormal3fv@@3P6GXPBM@ZA			; pglNormal3fv
PUBLIC	?pglNormal3i@@3P6GXHHH@ZA			; pglNormal3i
PUBLIC	?pglFramebufferTexture1D@@3P6GXIIIIH@ZA		; pglFramebufferTexture1D
PUBLIC	?pglNormal3iv@@3P6GXPBH@ZA			; pglNormal3iv
PUBLIC	?pglNormal3s@@3P6GXFFF@ZA			; pglNormal3s
PUBLIC	?pglFramebufferTexture2D@@3P6GXIIIIH@ZA		; pglFramebufferTexture2D
PUBLIC	?pglNormal3sv@@3P6GXPBF@ZA			; pglNormal3sv
PUBLIC	?pglFramebufferTexture3D@@3P6GXIIIIHH@ZA	; pglFramebufferTexture3D
PUBLIC	?pglOrtho@@3P6GXNNNNNN@ZA			; pglOrtho
PUBLIC	?pglPassThrough@@3P6GXM@ZA			; pglPassThrough
PUBLIC	?pglFramebufferTextureLayer@@3P6GXIIIHH@ZA	; pglFramebufferTextureLayer
PUBLIC	?pglPixelMapfv@@3P6GXIHPBM@ZA			; pglPixelMapfv
PUBLIC	?pglFramebufferRenderbuffer@@3P6GXIIII@ZA	; pglFramebufferRenderbuffer
PUBLIC	?pglPixelMapuiv@@3P6GXIHPBI@ZA			; pglPixelMapuiv
PUBLIC	?pglGetFramebufferAttachmentParameteriv@@3P6GXIIIPAH@ZA ; pglGetFramebufferAttachmentParameteriv
PUBLIC	?pglPixelMapusv@@3P6GXIHPBG@ZA			; pglPixelMapusv
PUBLIC	?pglPixelStoref@@3P6GXIM@ZA			; pglPixelStoref
PUBLIC	?pglPixelStorei@@3P6GXIH@ZA			; pglPixelStorei
PUBLIC	?pglPixelTransferf@@3P6GXIM@ZA			; pglPixelTransferf
PUBLIC	?pglBlitFramebuffer@@3P6GXHHHHHHHHII@ZA		; pglBlitFramebuffer
PUBLIC	?pglPixelTransferi@@3P6GXIH@ZA			; pglPixelTransferi
PUBLIC	?pglPixelZoom@@3P6GXMM@ZA			; pglPixelZoom
PUBLIC	?pglPointSize@@3P6GXM@ZA			; pglPointSize
PUBLIC	?pglPolygonMode@@3P6GXII@ZA			; pglPolygonMode
PUBLIC	?pglPolygonOffset@@3P6GXMM@ZA			; pglPolygonOffset
PUBLIC	?pglPolygonStipple@@3P6GXPBE@ZA			; pglPolygonStipple
PUBLIC	?pglPopAttrib@@3P6GXXZA				; pglPopAttrib
PUBLIC	?pglCopyImageSubData@@3P6GXIIHHHHIIHHHHHHH@ZA	; pglCopyImageSubData
PUBLIC	?pglGenerateMipmap@@3P6GXI@ZA			; pglGenerateMipmap
PUBLIC	?pglPopClientAttrib@@3P6GXXZA			; pglPopClientAttrib
PUBLIC	?pglPopMatrix@@3P6GXXZA				; pglPopMatrix
PUBLIC	?pwglGetProcAddress@@3P6GP6GHXZPBD@ZA		; pwglGetProcAddress
PUBLIC	?pglBindVertexArray@@3P6GXI@ZA			; pglBindVertexArray
PUBLIC	?pglPopName@@3P6GXXZA				; pglPopName
PUBLIC	?pglPushAttrib@@3P6GXI@ZA			; pglPushAttrib
PUBLIC	?pglDeleteVertexArrays@@3P6GXHPBI@ZA		; pglDeleteVertexArrays
PUBLIC	?pglPushClientAttrib@@3P6GXI@ZA			; pglPushClientAttrib
PUBLIC	?pglGenVertexArrays@@3P6GXHPBI@ZA		; pglGenVertexArrays
PUBLIC	?pglPushMatrix@@3P6GXXZA			; pglPushMatrix
PUBLIC	?pglIsVertexArray@@3P6GEI@ZA			; pglIsVertexArray
PUBLIC	?pglPushName@@3P6GXI@ZA				; pglPushName
PUBLIC	?pglRasterPos2d@@3P6GXNN@ZA			; pglRasterPos2d
PUBLIC	?pglRasterPos2dv@@3P6GXPBN@ZA			; pglRasterPos2dv
PUBLIC	?pglRasterPos2f@@3P6GXMM@ZA			; pglRasterPos2f
PUBLIC	?pglRasterPos2fv@@3P6GXPBM@ZA			; pglRasterPos2fv
PUBLIC	?pglRasterPos2i@@3P6GXHH@ZA			; pglRasterPos2i
PUBLIC	?pglDebugMessageControlARB@@3P6GXIIIHPBIE@ZA	; pglDebugMessageControlARB
PUBLIC	?pglRasterPos2iv@@3P6GXPBH@ZA			; pglRasterPos2iv
PUBLIC	?pglRasterPos2s@@3P6GXFF@ZA			; pglRasterPos2s
PUBLIC	?pglRasterPos2sv@@3P6GXPBF@ZA			; pglRasterPos2sv
PUBLIC	?pglDebugMessageInsertARB@@3P6GXIIIIHPBD@ZA	; pglDebugMessageInsertARB
PUBLIC	?pglRasterPos3d@@3P6GXNNN@ZA			; pglRasterPos3d
PUBLIC	?pglDebugMessageCallbackARB@@3P6GXP6GXIIIIHPBDPAX@Z1@ZA ; pglDebugMessageCallbackARB
PUBLIC	?pglRasterPos3dv@@3P6GXPBN@ZA			; pglRasterPos3dv
PUBLIC	?pglRasterPos3f@@3P6GXMMM@ZA			; pglRasterPos3f
PUBLIC	?pglRasterPos3fv@@3P6GXPBM@ZA			; pglRasterPos3fv
PUBLIC	?pglGetDebugMessageLogARB@@3P6GIIHPAI000PAHPAD@ZA ; pglGetDebugMessageLogARB
PUBLIC	?pglAlphaToCoverageDitherControlNV@@3P6GXI@ZA	; pglAlphaToCoverageDitherControlNV
PUBLIC	?pglRasterPos3i@@3P6GXHHH@ZA			; pglRasterPos3i
PUBLIC	?pglRasterPos3iv@@3P6GXPBH@ZA			; pglRasterPos3iv
PUBLIC	?pglCreateShader@@3P6GII@ZA			; pglCreateShader
PUBLIC	?pglAttachShader@@3P6GXII@ZA			; pglAttachShader
PUBLIC	?pglRasterPos3s@@3P6GXFFF@ZA			; pglRasterPos3s
PUBLIC	?pglDetachShader@@3P6GXII@ZA			; pglDetachShader
PUBLIC	?pglRasterPos3sv@@3P6GXPBF@ZA			; pglRasterPos3sv
PUBLIC	?pglCompileShader@@3P6GXI@ZA			; pglCompileShader
PUBLIC	?pglRasterPos4d@@3P6GXNNNN@ZA			; pglRasterPos4d
PUBLIC	?pglRasterPos4dv@@3P6GXPBN@ZA			; pglRasterPos4dv
PUBLIC	?pglGetShaderSource@@3P6GXIHPAHPAD@ZA		; pglGetShaderSource
PUBLIC	?pglRasterPos4f@@3P6GXMMMM@ZA			; pglRasterPos4f
PUBLIC	?pglShaderSource@@3P6GXIHPBQBDPBH@ZA		; pglShaderSource
PUBLIC	?pglRasterPos4fv@@3P6GXPBM@ZA			; pglRasterPos4fv
PUBLIC	?pglGetShaderiv@@3P6GXIIPAH@ZA			; pglGetShaderiv
PUBLIC	?pglDeleteShader@@3P6GXI@ZA			; pglDeleteShader
PUBLIC	?pglRasterPos4i@@3P6GXHHHH@ZA			; pglRasterPos4i
PUBLIC	?pglLinkProgram@@3P6GXI@ZA			; pglLinkProgram
PUBLIC	?pglRasterPos4iv@@3P6GXPBH@ZA			; pglRasterPos4iv
PUBLIC	?pglUseProgram@@3P6GXI@ZA			; pglUseProgram
PUBLIC	?pglValidateProgram@@3P6GXI@ZA			; pglValidateProgram
PUBLIC	?pglCreateProgram@@3P6GIXZA			; pglCreateProgram
PUBLIC	?pglRasterPos4s@@3P6GXFFFF@ZA			; pglRasterPos4s
PUBLIC	?pglRasterPos4sv@@3P6GXPBF@ZA			; pglRasterPos4sv
PUBLIC	?pglDeleteProgram@@3P6GXI@ZA			; pglDeleteProgram
PUBLIC	?pglReadBuffer@@3P6GXI@ZA			; pglReadBuffer
PUBLIC	?pglGetShaderInfoLog@@3P6GXIHPAHPAD@ZA		; pglGetShaderInfoLog
PUBLIC	?pglReadPixels@@3P6GXHHHHIIPAX@ZA		; pglReadPixels
PUBLIC	?pglGetProgramInfoLog@@3P6GXIHPAHPAD@ZA		; pglGetProgramInfoLog
PUBLIC	?pglRectd@@3P6GXNNNN@ZA				; pglRectd
PUBLIC	?pglRectdv@@3P6GXPBN0@ZA			; pglRectdv
PUBLIC	?pglGetActiveUniform@@3P6GXIIHPAH0PAIPAD@ZA	; pglGetActiveUniform
PUBLIC	?pglGetUniformLocation@@3P6GHIPBD@ZA		; pglGetUniformLocation
PUBLIC	?pglRectf@@3P6GXMMMM@ZA				; pglRectf
PUBLIC	?pglGetProgramiv@@3P6GXIIPAH@ZA			; pglGetProgramiv
PUBLIC	?pglRectfv@@3P6GXPBM0@ZA			; pglRectfv
PUBLIC	?pglBlendEquation@@3P6GXI@ZA			; pglBlendEquation
PUBLIC	?pglDrawBuffersARB@@3P6GXHPBI@ZA		; pglDrawBuffersARB
PUBLIC	??_C@_0N@OGLMDNKC@glClearColor?$AA@		; `string'
PUBLIC	?pglRecti@@3P6GXHHHH@ZA				; pglRecti
PUBLIC	??_C@_07IBAPPAHJ@glClear?$AA@			; `string'
PUBLIC	??_C@_0M@BJGLMKCC@glAlphaFunc?$AA@		; `string'
PUBLIC	??_C@_0M@PFBKOKOH@glBlendFunc?$AA@		; `string'
PUBLIC	?pglRectiv@@3P6GXPBH0@ZA			; pglRectiv
PUBLIC	??_C@_0L@BAPBLHME@glCullFace?$AA@		; `string'
PUBLIC	??_C@_0N@EKCLGPL@glDrawBuffer?$AA@		; `string'
PUBLIC	??_C@_0N@HFKHBECK@glReadBuffer?$AA@		; `string'
PUBLIC	??_C@_07LNIJJMEN@glAccum?$AA@			; `string'
PUBLIC	??_C@_08OOEHEKOP@glEnable?$AA@			; `string'
PUBLIC	?pglRects@@3P6GXFFFF@ZA				; pglRects
PUBLIC	??_C@_09MHGMIMKN@glDisable?$AA@			; `string'
PUBLIC	??_C@_0BE@KECPKGNE@glEnableClientState?$AA@	; `string'
PUBLIC	??_C@_0BF@LJDHBNBP@glDisableClientState?$AA@	; `string'
PUBLIC	?pglRectsv@@3P6GXPBF0@ZA			; pglRectsv
PUBLIC	??_C@_0O@NLMELLCJ@glGetBooleanv?$AA@		; `string'
PUBLIC	??_C@_0N@OFBMMCDH@glGetDoublev?$AA@		; `string'
PUBLIC	??_C@_0M@CKCOBONE@glGetFloatv?$AA@		; `string'
PUBLIC	??_C@_0O@DHHDCCLF@glGetIntegerv?$AA@		; `string'
PUBLIC	??_C@_0L@FPKAMKHB@glGetError?$AA@		; `string'
PUBLIC	?pglRotated@@3P6GXNNNN@ZA			; pglRotated
PUBLIC	??_C@_0M@OPOBFDCB@glGetString?$AA@		; `string'
PUBLIC	??_C@_08DFCPOKBK@glFinish?$AA@			; `string'
PUBLIC	??_C@_07COFELLJA@glFlush?$AA@			; `string'
PUBLIC	??_C@_0N@LJIELNG@glClearDepth?$AA@		; `string'
PUBLIC	??_C@_0M@NEJABAEP@glDepthFunc?$AA@		; `string'
PUBLIC	?pglRotatef@@3P6GXMMMM@ZA			; pglRotatef
PUBLIC	??_C@_0M@KABMFLLN@glDepthMask?$AA@		; `string'
PUBLIC	??_C@_0N@PEBDIKOA@glDepthRange?$AA@		; `string'
PUBLIC	??_C@_0M@ILBMDJDA@glFrontFace?$AA@		; `string'
PUBLIC	??_C@_0P@MENFIFGE@glDrawElements?$AA@		; `string'
PUBLIC	?pglScaled@@3P6GXNNN@ZA				; pglScaled
PUBLIC	??_C@_0N@CMNPPOHA@glDrawArrays?$AA@		; `string'
PUBLIC	??_C@_0M@DLGOAHPH@glColorMask?$AA@		; `string'
PUBLIC	??_C@_0P@KGJBLKPD@glIndexPointer?$AA@		; `string'
PUBLIC	??_C@_0BA@HAHECJNK@glVertexPointer?$AA@		; `string'
PUBLIC	?pglScalef@@3P6GXMMM@ZA				; pglScalef
PUBLIC	??_C@_0BA@DCLMCEOP@glNormalPointer?$AA@		; `string'
PUBLIC	??_C@_0P@DPKEGLKI@glColorPointer?$AA@		; `string'
PUBLIC	??_C@_0BC@DAOMILMO@glTexCoordPointer?$AA@	; `string'
PUBLIC	??_C@_0P@CKCIJELG@glArrayElement?$AA@		; `string'
PUBLIC	??_C@_09PPBNNDHA@glColor3f?$AA@			; `string'
PUBLIC	?pglScissor@@3P6GXHHHH@ZA			; pglScissor
PUBLIC	??_C@_0L@CJJPLCJP@glColor3fv?$AA@		; `string'
PUBLIC	??_C@_09PKFCMFPF@glColor4f?$AA@			; `string'
PUBLIC	??_C@_0L@LEEIIKCG@glColor4fv?$AA@		; `string'
PUBLIC	?pglSelectBuffer@@3P6GXHPAI@ZA			; pglSelectBuffer
PUBLIC	??_C@_0L@BJFBHIOD@glColor3ub?$AA@		; `string'
PUBLIC	??_C@_0L@IEIGEAFK@glColor4ub?$AA@		; `string'
PUBLIC	?pglShadeModel@@3P6GXI@ZA			; pglShadeModel
PUBLIC	??_C@_0M@PCFPOANK@glColor4ubv?$AA@		; `string'
PUBLIC	??_C@_0N@BIJHJAFN@glTexCoord1f?$AA@		; `string'
PUBLIC	??_C@_0N@BKNBCOAE@glTexCoord2f?$AA@		; `string'
PUBLIC	??_C@_0N@BLBDEEDD@glTexCoord3f?$AA@		; `string'
PUBLIC	?pglStencilFunc@@3P6GXIHI@ZA			; pglStencilFunc
PUBLIC	??_C@_0N@BOFMFCLG@glTexCoord4f?$AA@		; `string'
PUBLIC	??_C@_0O@GMKHGEKJ@glTexCoord1fv?$AA@		; `string'
PUBLIC	?pglStencilMask@@3P6GXI@ZA			; pglStencilMask
PUBLIC	??_C@_0O@HOBCMLEH@glTexCoord2fv?$AA@		; `string'
PUBLIC	??_C@_0O@MGKOKMCC@glTexCoord3fv?$AA@		; `string'
PUBLIC	??_C@_0O@FLHJJEJL@glTexCoord4fv?$AA@		; `string'
PUBLIC	??_C@_09ONEPECIB@glTexGenf?$AA@			; `string'
PUBLIC	?pglStencilOp@@3P6GXIII@ZA			; pglStencilOp
PUBLIC	??_C@_0L@ODDHCCIE@glTexGenfv?$AA@		; `string'
PUBLIC	??_C@_09GKNHFOEO@glTexGeni?$AA@			; `string'
PUBLIC	?pglTexCoord1d@@3P6GXN@ZA			; pglTexCoord1d
PUBLIC	??_C@_0L@LPFKLMDB@glVertex2f?$AA@		; `string'
PUBLIC	??_C@_0L@LOJINGAG@glVertex3f?$AA@		; `string'
PUBLIC	?pglTexCoord1dv@@3P6GXPBN@ZA			; pglTexCoord1dv
PUBLIC	??_C@_0M@JALIODJD@glVertex3fv?$AA@		; `string'
PUBLIC	??_C@_0L@DGGCBPPM@glNormal3f?$AA@		; `string'
PUBLIC	?pglTexCoord1f@@3P6GXM@ZA			; pglTexCoord1f
PUBLIC	??_C@_0M@MNFIACFI@glNormal3fv?$AA@		; `string'
PUBLIC	??_C@_07FCOIFMD@glBegin?$AA@			; `string'
PUBLIC	?pglTexCoord1fv@@3P6GXPBM@ZA			; pglTexCoord1fv
PUBLIC	??_C@_05OIBMBLHE@glEnd?$AA@			; `string'
PUBLIC	??_C@_0M@CFLGNFPG@glLineWidth?$AA@		; `string'
PUBLIC	?pglTexCoord1i@@3P6GXH@ZA			; pglTexCoord1i
PUBLIC	??_C@_0M@EEAPMMNM@glPointSize?$AA@		; `string'
PUBLIC	??_C@_0N@KDLNHKEJ@glMatrixMode?$AA@		; `string'
PUBLIC	?pglTexCoord1iv@@3P6GXPBH@ZA			; pglTexCoord1iv
PUBLIC	??_C@_07DBAFHOII@glOrtho?$AA@			; `string'
PUBLIC	??_C@_0O@DLOEJEEG@glRasterPos2f?$AA@		; `string'
PUBLIC	?pglTexCoord1s@@3P6GXF@ZA			; pglTexCoord1s
PUBLIC	??_C@_09ICLFHOKP@glFrustum?$AA@			; `string'
PUBLIC	??_C@_0L@KBLIPDFH@glViewport?$AA@		; `string'
PUBLIC	?pglTexCoord1sv@@3P6GXPBF@ZA			; pglTexCoord1sv
PUBLIC	??_C@_0N@IHFNHGBL@glPushMatrix?$AA@		; `string'
PUBLIC	??_C@_0M@JPEAAEEK@glPopMatrix?$AA@		; `string'
PUBLIC	??_C@_0N@KDMLHFJM@glPushAttrib?$AA@		; `string'
PUBLIC	?pglTexCoord2d@@3P6GXNN@ZA			; pglTexCoord2d
PUBLIC	??_C@_0M@LLNGAHMN@glPopAttrib?$AA@		; `string'
PUBLIC	??_C@_0P@EJAFHEPO@glLoadIdentity?$AA@		; `string'
PUBLIC	?pglTexCoord2dv@@3P6GXPBN@ZA			; pglTexCoord2dv
PUBLIC	??_C@_0O@LFHKEMK@glLoadMatrixd?$AA@		; `string'
PUBLIC	??_C@_0O@DJGBMGEI@glLoadMatrixf?$AA@		; `string'
PUBLIC	??_C@_0O@IFJFLNCL@glMultMatrixd?$AA@		; `string'
PUBLIC	?pglTexCoord2f@@3P6GXMM@ZA			; pglTexCoord2f
PUBLIC	??_C@_0O@LHKDNPKJ@glMultMatrixf?$AA@		; `string'
PUBLIC	??_C@_09GANFLDAO@glRotated?$AA@			; `string'
PUBLIC	?pglTexCoord2fv@@3P6GXPBM@ZA			; pglTexCoord2fv
PUBLIC	??_C@_09FCODNBIM@glRotatef?$AA@			; `string'
PUBLIC	??_C@_08KAMCINDI@glScaled?$AA@			; `string'
PUBLIC	??_C@_08JCPEOPLK@glScalef?$AA@			; `string'
PUBLIC	?pglTexCoord2i@@3P6GXHH@ZA			; pglTexCoord2i
PUBLIC	??_C@_0N@LHMFFDFG@glTranslated?$AA@		; `string'
PUBLIC	??_C@_0N@IFPDDBNE@glTranslatef?$AA@		; `string'
PUBLIC	?pglTexCoord2iv@@3P6GXPBH@ZA			; pglTexCoord2iv
PUBLIC	??_C@_0N@CKFNNHOO@glReadPixels?$AA@		; `string'
PUBLIC	??_C@_0N@FLFIHFDP@glDrawPixels?$AA@		; `string'
PUBLIC	??_C@_0O@ENNLLOLN@glStencilFunc?$AA@		; `string'
PUBLIC	?pglTexCoord2s@@3P6GXFF@ZA			; pglTexCoord2s
PUBLIC	??_C@_0O@DJFHPFEP@glStencilMask?$AA@		; `string'
PUBLIC	??_C@_0M@BILBNGF@glStencilOp?$AA@		; `string'
PUBLIC	?pglTexCoord2sv@@3P6GXPBF@ZA			; pglTexCoord2sv
PUBLIC	??_C@_0P@KBLPBBFP@glClearStencil?$AA@		; `string'
PUBLIC	??_C@_0M@INHMIHKC@glIsEnabled?$AA@		; `string'
PUBLIC	??_C@_08DMFMJKDH@glIsList?$AA@			; `string'
PUBLIC	??_C@_0M@NJHAEPDN@glIsTexture?$AA@		; `string'
PUBLIC	?pglTexCoord3d@@3P6GXNNN@ZA			; pglTexCoord3d
PUBLIC	??_C@_09FCLLGECI@glTexEnvf?$AA@			; `string'
PUBLIC	??_C@_0L@EMICMNOO@glTexEnvfv?$AA@		; `string'
PUBLIC	?pglTexCoord3dv@@3P6GXPBN@ZA			; pglTexCoord3dv
PUBLIC	??_C@_09NFCDHIOH@glTexEnvi?$AA@			; `string'
PUBLIC	??_C@_0BA@INKFIMGP@glTexParameterf?$AA@		; `string'
PUBLIC	??_C@_0BB@KEOFAHDF@glTexParameterfv?$AA@	; `string'
PUBLIC	??_C@_0BA@KDNJAKA@glTexParameteri?$AA@		; `string'
PUBLIC	?pglTexCoord3f@@3P6GXMMM@ZA			; pglTexCoord3f
PUBLIC	??_C@_06HEADGMBC@glHint?$AA@			; `string'
PUBLIC	??_C@_0O@BFLAHHCK@glPixelStoref?$AA@		; `string'
PUBLIC	?pglTexCoord3fv@@3P6GXPBM@ZA			; pglTexCoord3fv
PUBLIC	??_C@_0O@JCCIGLOF@glPixelStorei?$AA@		; `string'
PUBLIC	??_C@_0O@LLMANLNK@glGenTextures?$AA@		; `string'
PUBLIC	??_C@_0BB@KMPLFJIC@glDeleteTextures?$AA@	; `string'
PUBLIC	??_C@_0O@JKKCIBGC@glBindTexture?$AA@		; `string'
PUBLIC	?pglTexCoord3i@@3P6GXHHH@ZA			; pglTexCoord3i
PUBLIC	??_C@_0N@JDMMMFHL@glTexImage1D?$AA@		; `string'
PUBLIC	??_C@_0N@JBIKHLCC@glTexImage2D?$AA@		; `string'
PUBLIC	?pglTexCoord3iv@@3P6GXPBH@ZA			; pglTexCoord3iv
PUBLIC	??_C@_0BA@NFOOCKJD@glTexSubImage1D?$AA@		; `string'
PUBLIC	??_C@_0BA@NHKIJEMK@glTexSubImage2D?$AA@		; `string'
PUBLIC	?glConfig@@3UglConfig_t@@A			; glConfig
PUBLIC	??_C@_0BB@MEEDBHPL@glCopyTexImage1D?$AA@	; `string'
PUBLIC	??_C@_0BB@MGAFKJKC@glCopyTexImage2D?$AA@	; `string'
PUBLIC	?pglTexCoord3s@@3P6GXFFF@ZA			; pglTexCoord3s
PUBLIC	??_C@_0BE@PKNCAIGI@glCopyTexSubImage1D?$AA@	; `string'
PUBLIC	??_C@_0BE@PIJELGDB@glCopyTexSubImage2D?$AA@	; `string'
PUBLIC	?pglTexCoord3sv@@3P6GXPBF@ZA			; pglTexCoord3sv
PUBLIC	??_C@_09ECGPAEPL@glScissor?$AA@			; `string'
PUBLIC	??_C@_0O@DOIIJLAD@glGetTexImage?$AA@		; `string'
PUBLIC	??_C@_0O@KIFFCCBG@glGetTexEnviv?$AA@		; `string'
PUBLIC	??_C@_0BA@FFBJGNC@glPolygonOffset?$AA@		; `string'
PUBLIC	??_C@_0O@DKMNBFMB@glPolygonMode?$AA@		; `string'
PUBLIC	?pglTexCoord4d@@3P6GXNNNN@ZA			; pglTexCoord4d
PUBLIC	??_C@_0BB@GIADEJGP@glPolygonStipple?$AA@	; `string'
PUBLIC	??_C@_0M@OHCNGGFF@glClipPlane?$AA@		; `string'
PUBLIC	?pglTexCoord4dv@@3P6GXPBN@ZA			; pglTexCoord4dv
PUBLIC	??_C@_0P@MMMNLMC@glGetClipPlane?$AA@		; `string'
PUBLIC	??_C@_0N@NALMFHKN@glShadeModel?$AA@		; `string'
PUBLIC	??_C@_0BJ@GLJHCPGI@glGetTexLevelParameteriv?$AA@ ; `string'
PUBLIC	??_C@_0BJ@GAMLGIFF@glGetTexLevelParameterfv?$AA@ ; `string'
PUBLIC	??_C@_07FNEIAABA@glFogfv?$AA@			; `string'
PUBLIC	?pglTexCoord4f@@3P6GXMMMM@ZA			; pglTexCoord4f
PUBLIC	??_C@_06JJHNMGPD@glFogf?$AA@			; `string'
PUBLIC	??_C@_06BOOFNKDM@glFogi?$AA@			; `string'
PUBLIC	?pglTexCoord4fv@@3P6GXPBM@ZA			; pglTexCoord4fv
PUBLIC	??_C@_0N@JAEIBBBF@glTexImage3D?$AA@		; `string'
PUBLIC	??_C@_0BA@NGGKPOPN@glTexSubImage3D?$AA@		; `string'
PUBLIC	??_C@_0BE@PJFGNMAG@glCopyTexSubImage3D?$AA@	; `string'
PUBLIC	?pglTexCoord4i@@3P6GXHHHH@ZA			; pglTexCoord4i
PUBLIC	?pglTexCoord4iv@@3P6GXPBH@ZA			; pglTexCoord4iv
PUBLIC	?pglTexCoord4s@@3P6GXFFFF@ZA			; pglTexCoord4s
PUBLIC	?pglTexCoord4sv@@3P6GXPBF@ZA			; pglTexCoord4sv
PUBLIC	?pglTexEnvf@@3P6GXIIM@ZA			; pglTexEnvf
PUBLIC	?pglTexEnvfv@@3P6GXIIPBM@ZA			; pglTexEnvfv
PUBLIC	?pglTexEnvi@@3P6GXIIH@ZA			; pglTexEnvi
PUBLIC	?pglTexEnviv@@3P6GXIIPBH@ZA			; pglTexEnviv
PUBLIC	?pglTexGend@@3P6GXIIN@ZA			; pglTexGend
PUBLIC	?pglTexGendv@@3P6GXIIPBN@ZA			; pglTexGendv
PUBLIC	?pglTexGenf@@3P6GXIIM@ZA			; pglTexGenf
PUBLIC	?pglTexGenfv@@3P6GXIIPBM@ZA			; pglTexGenfv
PUBLIC	?pglTexGeni@@3P6GXIIH@ZA			; pglTexGeni
PUBLIC	?pglTexGeniv@@3P6GXIIPBH@ZA			; pglTexGeniv
PUBLIC	?pglTexImage1D@@3P6GXIHHHHIIPBX@ZA		; pglTexImage1D
PUBLIC	??_C@_0P@HGHBNC@glCreateShader?$AA@		; `string'
PUBLIC	??_C@_0P@LDMLEABL@glAttachShader?$AA@		; `string'
PUBLIC	??_C@_0P@DJFJFCJL@glDetachShader?$AA@		; `string'
PUBLIC	??_C@_0BA@DGIEGONF@glCompileShader?$AA@		; `string'
PUBLIC	??_C@_0P@DFHCPFMO@glShaderSource?$AA@		; `string'
PUBLIC	??_C@_0BC@ELEIFJEL@glGetShaderSource?$AA@	; `string'
PUBLIC	??_C@_0O@JBDFPDMG@glGetShaderiv?$AA@		; `string'
PUBLIC	??_C@_0P@HHCDONAG@glDeleteShader?$AA@		; `string'
PUBLIC	??_C@_0N@ICBDHBI@glUseProgram?$AA@		; `string'
PUBLIC	??_C@_0O@PIOEEBPO@glLinkProgram?$AA@		; `string'
PUBLIC	?pglTexImage2D@@3P6GXIHHHHHIIPBX@ZA		; pglTexImage2D
PUBLIC	??_C@_0BC@MAPGDLJK@glValidateProgram?$AA@	; `string'
PUBLIC	??_C@_0BA@FLKLHNKP@glCreateProgram?$AA@		; `string'
PUBLIC	??_C@_0BA@NKGCDOPO@glDeleteProgram?$AA@		; `string'
PUBLIC	??_C@_0BD@GIABBCMO@glGetShaderInfoLog?$AA@	; `string'
PUBLIC	?pglTexParameterf@@3P6GXIIM@ZA			; pglTexParameterf
PUBLIC	??_C@_0BE@DHGHAJFL@glGetProgramInfoLog?$AA@	; `string'
PUBLIC	??_C@_0BD@NIMHLLKN@glGetActiveUniform?$AA@	; `string'
PUBLIC	??_C@_0BF@KIOPGICP@glGetUniformLocation?$AA@	; `string'
PUBLIC	??_C@_0P@FMMDFLCO@glGetProgramiv?$AA@		; `string'
PUBLIC	?pglTexParameterfv@@3P6GXIIPBM@ZA		; pglTexParameterfv
PUBLIC	??_C@_0BA@PFHILPAN@glBlendEquation?$AA@		; `string'
PUBLIC	??_C@_0BG@JPNNNPKG@glVertexAttribPointer?$AA@	; `string'
PUBLIC	??_C@_0BK@EHBAHNHE@glEnableVertexAttribArray?$AA@ ; `string'
PUBLIC	??_C@_0BL@NKHLOFFF@glDisableVertexAttribArray?$AA@ ; `string'
PUBLIC	?pglTexParameteri@@3P6GXIIH@ZA			; pglTexParameteri
PUBLIC	??_C@_0BF@MHKEFIHM@glBindAttribLocation?$AA@	; `string'
PUBLIC	??_C@_0BC@MBALAOHF@glGetActiveAttrib?$AA@	; `string'
PUBLIC	??_C@_0BE@BEPGJDMM@glGetAttribLocation?$AA@	; `string'
PUBLIC	??_C@_0BE@IHNAGJGJ@glDrawRangeElements?$AA@	; `string'
PUBLIC	?pglTexParameteriv@@3P6GXIIPBH@ZA		; pglTexParameteriv
PUBLIC	??_C@_0O@COHJKDBH@glDrawBuffers?$AA@		; `string'
PUBLIC	??_C@_0BC@LFEJJHHN@glMultiTexCoord1f?$AA@	; `string'
PUBLIC	??_C@_0BC@LHAPCJCE@glMultiTexCoord2f?$AA@	; `string'
PUBLIC	??_C@_0BC@LGMNEDBD@glMultiTexCoord3f?$AA@	; `string'
PUBLIC	??_C@_0BC@LDICFFJG@glMultiTexCoord4f?$AA@	; `string'
PUBLIC	??_C@_0BA@KOBBIKOF@glActiveTexture?$AA@		; `string'
PUBLIC	??_C@_0BD@JIBJELHD@glUniformMatrix2fv?$AA@	; `string'
PUBLIC	??_C@_0BD@CAKFCMBG@glUniformMatrix3fv?$AA@	; `string'
PUBLIC	?pglTexSubImage1D@@3P6GXIHHHIIPBX@ZA		; pglTexSubImage1D
PUBLIC	??_C@_0BD@LNHCBEKP@glUniformMatrix4fv?$AA@	; `string'
PUBLIC	??_C@_0M@MLICAPOF@glUniform1f?$AA@		; `string'
PUBLIC	??_C@_0M@MJMELBLM@glUniform2f?$AA@		; `string'
PUBLIC	??_C@_0M@MIAGNLIL@glUniform3f?$AA@		; `string'
PUBLIC	??_C@_0M@MNEJMNAO@glUniform4f?$AA@		; `string'
PUBLIC	??_C@_0M@EMBKBDCK@glUniform1i?$AA@		; `string'
PUBLIC	??_C@_0M@EOFMKNHD@glUniform2i?$AA@		; `string'
PUBLIC	??_C@_0M@EPJOMHEE@glUniform3i?$AA@		; `string'
PUBLIC	??_C@_0M@EKNBNBMB@glUniform4i?$AA@		; `string'
PUBLIC	??_C@_0N@KJMOEKII@glUniform1fv?$AA@		; `string'
PUBLIC	?pglTexSubImage2D@@3P6GXIHHHHHIIPBX@ZA		; pglTexSubImage2D
PUBLIC	??_C@_0N@LLHLOFGG@glUniform2fv?$AA@		; `string'
PUBLIC	??_C@_0N@DMHICAD@glUniform3fv?$AA@		; `string'
PUBLIC	??_C@_0N@JOBALKLK@glUniform4fv?$AA@		; `string'
PUBLIC	??_C@_0N@KCJCANLF@glUniform1iv?$AA@		; `string'
PUBLIC	?pglTranslated@@3P6GXNNN@ZA			; pglTranslated
PUBLIC	??_C@_0N@LACHKCFL@glUniform2iv?$AA@		; `string'
PUBLIC	??_C@_0N@IJLMFDO@glUniform3iv?$AA@		; `string'
PUBLIC	??_C@_0N@JFEMPNIH@glUniform4iv?$AA@		; `string'
PUBLIC	??_C@_0BB@MIJLCBCJ@glVertexAttrib2f?$AA@	; `string'
PUBLIC	?pglTranslatef@@3P6GXMMM@ZA			; pglTranslatef
PUBLIC	??_C@_0BC@DLBPNNDN@glVertexAttrib2fv?$AA@	; `string'
PUBLIC	??_C@_0BC@IDKDLKFI@glVertexAttrib3fv?$AA@	; `string'
PUBLIC	??_C@_0BC@BOHEICOB@glVertexAttrib4fv?$AA@	; `string'
PUBLIC	?pglVertex2d@@3P6GXNN@ZA			; pglVertex2d
PUBLIC	??_C@_0BD@PHPFILMB@glVertexAttrib4ubv?$AA@	; `string'
PUBLIC	?pglVertex2dv@@3P6GXPBN@ZA			; pglVertex2dv
PUBLIC	?pglVertex2f@@3P6GXMM@ZA			; pglVertex2f
PUBLIC	?pglGetError@@3P6GIXZA				; pglGetError
PUBLIC	??_C@_0BH@GFFILNEF@glDrawRangeElementsEXT?$AA@	; `string'
PUBLIC	?pglGetString@@3P6GPBDI@ZA			; pglGetString
PUBLIC	?pglVertex2fv@@3P6GXPBM@ZA			; pglVertex2fv
PUBLIC	?pglAccum@@3P6GXIM@ZA				; pglAccum
PUBLIC	?pglVertex2i@@3P6GXHH@ZA			; pglVertex2i
PUBLIC	??_C@_0BJ@IAEPICEJ@glDebugMessageControlARB?$AA@ ; `string'
PUBLIC	?pglVertex2iv@@3P6GXPBH@ZA			; pglVertex2iv
PUBLIC	??_C@_0BI@IFLDELCL@glDebugMessageInsertARB?$AA@	; `string'
PUBLIC	?pglAlphaFunc@@3P6GXIM@ZA			; pglAlphaFunc
PUBLIC	??_C@_0BK@IEHNBEGE@glDebugMessageCallbackARB?$AA@ ; `string'
PUBLIC	??_C@_0BI@JOLPFNOB@glGetDebugMessageLogARB?$AA@	; `string'
PUBLIC	?pglBegin@@3P6GXI@ZA				; pglBegin
PUBLIC	?pglVertex2s@@3P6GXFF@ZA			; pglVertex2s
PUBLIC	?pglVertex2sv@@3P6GXPBF@ZA			; pglVertex2sv
PUBLIC	?pglBindTexture@@3P6GXII@ZA			; pglBindTexture
PUBLIC	?pglVertex3d@@3P6GXNNN@ZA			; pglVertex3d
PUBLIC	?pglVertex3dv@@3P6GXPBN@ZA			; pglVertex3dv
PUBLIC	??_C@_0BF@ODPGPGFO@glMultiTexCoord1fARB?$AA@	; `string'
PUBLIC	??_C@_0BF@GFGCIEPA@glMultiTexCoord2fARB?$AA@	; `string'
PUBLIC	?pglBitmap@@3P6GXHHMMMMPBE@ZA			; pglBitmap
PUBLIC	??_C@_0BF@KODOFHFF@glMultiTexCoord3fARB?$AA@	; `string'
PUBLIC	?pglVertex3f@@3P6GXMMM@ZA			; pglVertex3f
PUBLIC	??_C@_0BF@LDDLGHON@glMultiTexCoord4fARB?$AA@	; `string'
PUBLIC	??_C@_0BD@IKCKKKNH@glActiveTextureARB?$AA@	; `string'
PUBLIC	?pglBlendFunc@@3P6GXII@ZA			; pglBlendFunc
PUBLIC	?pglVertex3fv@@3P6GXPBM@ZA			; pglVertex3fv
PUBLIC	??_C@_0BJ@PBJNGLJH@glClientActiveTextureARB?$AA@ ; `string'
PUBLIC	?pglCallList@@3P6GXI@ZA				; pglCallList
PUBLIC	?pglVertex3i@@3P6GXHHH@ZA			; pglVertex3i
PUBLIC	??_C@_0BA@CBIBMEOO@glTexImage3DEXT?$AA@		; `string'
PUBLIC	?pglVertex3iv@@3P6GXPBH@ZA			; pglVertex3iv
PUBLIC	?pglCallLists@@3P6GXHIPBX@ZA			; pglCallLists
PUBLIC	??_C@_0BD@IKPGOLHH@glTexSubImage3DEXT?$AA@	; `string'
PUBLIC	??_C@_0BH@LLLKENMO@glCopyTexSubImage3DEXT?$AA@	; `string'
PUBLIC	?pglClear@@3P6GXI@ZA				; pglClear
PUBLIC	?pglVertex3s@@3P6GXFFF@ZA			; pglVertex3s
PUBLIC	??_C@_0BH@GFPLHCKF@glBlendFuncSeparateEXT?$AA@	; `string'
PUBLIC	?pglVertex3sv@@3P6GXPBF@ZA			; pglVertex3sv
PUBLIC	?pglClearAccum@@3P6GXMMMM@ZA			; pglClearAccum
PUBLIC	??_C@_0BD@CFOJJHII@glBlendEquationEXT?$AA@	; `string'
PUBLIC	?pglVertex4d@@3P6GXNNNN@ZA			; pglVertex4d
PUBLIC	?pglClearColor@@3P6GXMMMM@ZA			; pglClearColor
PUBLIC	?pglVertex4dv@@3P6GXPBN@ZA			; pglVertex4dv
PUBLIC	?pglClearDepth@@3P6GXN@ZA			; pglClearDepth
PUBLIC	?pglClearIndex@@3P6GXM@ZA			; pglClearIndex
PUBLIC	?pglVertex4f@@3P6GXMMMM@ZA			; pglVertex4f
PUBLIC	?pglClearStencil@@3P6GXH@ZA			; pglClearStencil
PUBLIC	?pglIsEnabled@@3P6GEI@ZA			; pglIsEnabled
PUBLIC	?pglVertex4fv@@3P6GXPBM@ZA			; pglVertex4fv
PUBLIC	?pglIsList@@3P6GEI@ZA				; pglIsList
PUBLIC	?pglIsTexture@@3P6GEI@ZA			; pglIsTexture
PUBLIC	?pglVertex4i@@3P6GXHHHH@ZA			; pglVertex4i
PUBLIC	?pglClipPlane@@3P6GXIPBN@ZA			; pglClipPlane
PUBLIC	?pglVertex4iv@@3P6GXPBH@ZA			; pglVertex4iv
PUBLIC	?pglColor3b@@3P6GXCCC@ZA			; pglColor3b
PUBLIC	?pglVertex4s@@3P6GXFFFF@ZA			; pglVertex4s
PUBLIC	?pglColor3bv@@3P6GXPBC@ZA			; pglColor3bv
PUBLIC	?pglVertex4sv@@3P6GXPBF@ZA			; pglVertex4sv
PUBLIC	?pglColor3d@@3P6GXNNN@ZA			; pglColor3d
PUBLIC	?pglColor3dv@@3P6GXPBN@ZA			; pglColor3dv
PUBLIC	?pglViewport@@3P6GXHHHH@ZA			; pglViewport
PUBLIC	?pglPointParameterfEXT@@3P6GXIM@ZA		; pglPointParameterfEXT
PUBLIC	?pglColor3f@@3P6GXMMM@ZA			; pglColor3f
PUBLIC	?pglPointParameterfvEXT@@3P6GXIPBM@ZA		; pglPointParameterfvEXT
PUBLIC	?pglColor3fv@@3P6GXPBM@ZA			; pglColor3fv
PUBLIC	?pglLockArraysEXT@@3P6GXHH@ZA			; pglLockArraysEXT
PUBLIC	?pglColor3i@@3P6GXHHH@ZA			; pglColor3i
PUBLIC	?pglUnlockArraysEXT@@3P6GXXZA			; pglUnlockArraysEXT
PUBLIC	?pglColor3iv@@3P6GXPBH@ZA			; pglColor3iv
PUBLIC	?pglActiveTextureARB@@3P6GXI@ZA			; pglActiveTextureARB
PUBLIC	?pglClientActiveTextureARB@@3P6GXI@ZA		; pglClientActiveTextureARB
PUBLIC	?pglColor3s@@3P6GXFFF@ZA			; pglColor3s
PUBLIC	?pglColor3sv@@3P6GXPBF@ZA			; pglColor3sv
PUBLIC	?pglGetCompressedTexImage@@3P6GXIHPBX@ZA	; pglGetCompressedTexImage
PUBLIC	??_C@_0BC@MJFNICLA@glDeleteObjectARB?$AA@	; `string'
PUBLIC	?pglColor3ub@@3P6GXEEE@ZA			; pglColor3ub
PUBLIC	??_C@_0P@LFBJNCKO@glGetHandleARB?$AA@		; `string'
PUBLIC	??_C@_0BC@OPBLIDAI@glDetachObjectARB?$AA@	; `string'
PUBLIC	?pglColor3ubv@@3P6GXPBE@ZA			; pglColor3ubv
PUBLIC	??_C@_0BI@FMNPOEGE@glCreateShaderObjectARB?$AA@	; `string'
PUBLIC	??_C@_0BC@MCCOFGJG@glShaderSourceARB?$AA@	; `string'
PUBLIC	?pglDrawRangeElements@@3P6GXIIIHIPBX@ZA		; pglDrawRangeElements
PUBLIC	??_C@_0BD@BEDGBOPM@glCompileShaderARB?$AA@	; `string'
PUBLIC	??_C@_0BJ@KGMBEPBI@glCreateProgramObjectARB?$AA@ ; `string'
PUBLIC	?pglColor3ui@@3P6GXIII@ZA			; pglColor3ui
PUBLIC	??_C@_0BC@GINLBKLJ@glAttachObjectARB?$AA@	; `string'
PUBLIC	??_C@_0BB@HPIAOOAG@glLinkProgramARB?$AA@	; `string'
PUBLIC	?pglColor3uiv@@3P6GXPBI@ZA			; pglColor3uiv
PUBLIC	??_C@_0BG@JEOFPDIM@glUseProgramObjectARB?$AA@	; `string'
PUBLIC	??_C@_0BF@BGDHGNPG@glValidateProgramARB?$AA@	; `string'
PUBLIC	??_C@_0P@KFNIAEEC@glUniform1fARB?$AA@		; `string'
PUBLIC	?pglDrawRangeElementsEXT@@3P6GXIIIHIPBX@ZA	; pglDrawRangeElementsEXT
PUBLIC	??_C@_0P@CDEMHGOM@glUniform2fARB?$AA@		; `string'
PUBLIC	?pglColor3us@@3P6GXGGG@ZA			; pglColor3us
PUBLIC	??_C@_0P@OIBAKFEJ@glUniform3fARB?$AA@		; `string'
PUBLIC	??_C@_0P@PFBFJFPB@glUniform4fARB?$AA@		; `string'
PUBLIC	?pglColor3usv@@3P6GXPBG@ZA			; pglColor3usv
PUBLIC	??_C@_0P@CHIIJDJD@glUniform1iARB?$AA@		; `string'
PUBLIC	??_C@_0P@KBBMOBDN@glUniform2iARB?$AA@		; `string'
PUBLIC	?pglDrawElements@@3P6GXIHIPBX@ZA		; pglDrawElements
PUBLIC	??_C@_0P@GKEADCJI@glUniform3iARB?$AA@		; `string'
PUBLIC	??_C@_0P@HHEFACCA@glUniform4iARB?$AA@		; `string'
PUBLIC	??_C@_0BA@BHLDOKKI@glUniform1fvARB?$AA@		; `string'
PUBLIC	?pglColor4b@@3P6GXCCCC@ZA			; pglColor4b
PUBLIC	??_C@_0BA@CGFLPADF@glUniform2fvARB?$AA@		; `string'
PUBLIC	??_C@_0BA@IACMPLIB@glUniform3fvARB?$AA@		; `string'
PUBLIC	?pglColor4bv@@3P6GXPBC@ZA			; pglColor4bv
PUBLIC	??_C@_0BA@EFILMFAP@glUniform4fvARB?$AA@		; `string'
PUBLIC	?pglDrawElementsInstanced@@3P6GXIHIPBXH@ZA	; pglDrawElementsInstanced
PUBLIC	??_C@_0BA@OGOFFIHN@glUniform1ivARB?$AA@		; `string'
PUBLIC	??_C@_0BA@NHANECOA@glUniform2ivARB?$AA@		; `string'
PUBLIC	??_C@_0BA@HBHKEJFE@glUniform3ivARB?$AA@		; `string'
PUBLIC	??_C@_0BA@LENNHHNK@glUniform4ivARB?$AA@		; `string'
PUBLIC	?pglColor4d@@3P6GXNNNN@ZA			; pglColor4d
PUBLIC	??_C@_0BG@KPIOAAJO@glUniformMatrix2fvARB?$AA@	; `string'
PUBLIC	?pglVertexPointer@@3P6GXHIHPBX@ZA		; pglVertexPointer
PUBLIC	??_C@_0BG@JPJALCK@glUniformMatrix3fvARB?$AA@	; `string'
PUBLIC	?pglColor4dv@@3P6GXPBN@ZA			; pglColor4dv
PUBLIC	??_C@_0BG@MMFODFKE@glUniformMatrix4fvARB?$AA@	; `string'
PUBLIC	??_C@_0BK@HCFOBODO@glGetObjectParameterfvARB?$AA@ ; `string'
PUBLIC	??_C@_0BK@IDAIKMOL@glGetObjectParameterivARB?$AA@ ; `string'
PUBLIC	?pglNormalPointer@@3P6GXIHPBX@ZA		; pglNormalPointer
PUBLIC	??_C@_0BA@FLIOBLOG@glGetInfoLogARB?$AA@		; `string'
PUBLIC	??_C@_0BI@KFAABOIL@glGetAttachedObjectsARB?$AA@	; `string'
PUBLIC	?pglColor4f@@3P6GXMMMM@ZA			; pglColor4f
PUBLIC	??_C@_0BI@CAFPPHDC@glGetUniformLocationARB?$AA@	; `string'
PUBLIC	??_C@_0BG@FNEOAGIK@glGetActiveUniformARB?$AA@	; `string'
PUBLIC	?pglColor4fv@@3P6GXPBM@ZA			; pglColor4fv
PUBLIC	??_C@_0BC@KKIJAHAK@glGetUniformfvARB?$AA@	; `string'
PUBLIC	?pglColorPointer@@3P6GXHIHPBX@ZA		; pglColorPointer
PUBLIC	??_C@_0BC@FLNPLFNP@glGetUniformivARB?$AA@	; `string'
PUBLIC	??_C@_0BF@OBGOKFNE@glGetShaderSourceARB?$AA@	; `string'
PUBLIC	??_C@_0BJ@KNOILOPF@glVertexAttribPointerARB?$AA@ ; `string'
PUBLIC	??_C@_0BN@FKABDPBF@glEnableVertexAttribArrayARB?$AA@ ; `string'
PUBLIC	?pglColor4i@@3P6GXHHHH@ZA			; pglColor4i
PUBLIC	??_C@_0BO@HGKLJN@glDisableVertexAttribArrayARB?$AA@ ; `string'
PUBLIC	?pglTexCoordPointer@@3P6GXHIHPBX@ZA		; pglTexCoordPointer
PUBLIC	??_C@_0BI@HAONMJFP@glBindAttribLocationARB?$AA@	; `string'
PUBLIC	?pglColor4iv@@3P6GXPBH@ZA			; pglColor4iv
PUBLIC	??_C@_0BF@NFLELGHN@glGetActiveAttribARB?$AA@	; `string'
PUBLIC	?pglArrayElement@@3P6GXH@ZA			; pglArrayElement
PUBLIC	??_C@_0BH@BINIAJMB@glGetAttribLocationARB?$AA@	; `string'
PUBLIC	??_C@_0BB@MMBGFNJL@glVertexAttrib4f?$AA@	; `string'
PUBLIC	?pglMultiTexCoord1f@@3P6GXIM@ZA			; pglMultiTexCoord1f
PUBLIC	?pglColor4s@@3P6GXFFFF@ZA			; pglColor4s
PUBLIC	?pglColor4sv@@3P6GXPBF@ZA			; pglColor4sv
PUBLIC	?pglMultiTexCoord2f@@3P6GXIMM@ZA		; pglMultiTexCoord2f
PUBLIC	?pglColor4ub@@3P6GXEEEE@ZA			; pglColor4ub
PUBLIC	?pglMultiTexCoord3f@@3P6GXIMMM@ZA		; pglMultiTexCoord3f
PUBLIC	?pglColor4ubv@@3P6GXPBE@ZA			; pglColor4ubv
PUBLIC	?pglMultiTexCoord4f@@3P6GXIMMMM@ZA		; pglMultiTexCoord4f
PUBLIC	?pglColor4ui@@3P6GXIIII@ZA			; pglColor4ui
PUBLIC	??_C@_0BA@FDIFNALK@glBindBufferARB?$AA@		; `string'
PUBLIC	??_C@_0BD@FPFIIGCI@glDeleteBuffersARB?$AA@	; `string'
PUBLIC	?pglColor4uiv@@3P6GXPBI@ZA			; pglColor4uiv
PUBLIC	?pglActiveTexture@@3P6GXI@ZA			; pglActiveTexture
PUBLIC	??_C@_0BA@COIMKEED@glGenBuffersARB?$AA@		; `string'
PUBLIC	??_C@_0O@BCHKDNEE@glIsBufferARB?$AA@		; `string'
PUBLIC	?pglClientActiveTexture@@3P6GXI@ZA		; pglClientActiveTexture
PUBLIC	??_C@_0P@GLCCGPAH@glMapBufferARB?$AA@		; `string'
PUBLIC	??_C@_0BB@IODLHHEP@glUnmapBufferARB?$AA@	; `string'
PUBLIC	??_C@_0BA@HLIGBCAN@glBufferDataARB?$AA@		; `string'
PUBLIC	?pglColor4us@@3P6GXGGGG@ZA			; pglColor4us
PUBLIC	??_C@_0BD@KFMFAAJP@glBufferSubDataARB?$AA@	; `string'
PUBLIC	?pglColor4usv@@3P6GXPBG@ZA			; pglColor4usv
PUBLIC	??_C@_0BC@LHBAHFAN@glBindVertexArray?$AA@	; `string'
PUBLIC	?pglCompressedTexImage3DARB@@3P6GXIHIHHHHHPBX@ZA ; pglCompressedTexImage3DARB
PUBLIC	?pglColorMask@@3P6GXEEEE@ZA			; pglColorMask
PUBLIC	??_C@_0BF@BMPCJLEF@glDeleteVertexArrays?$AA@	; `string'
PUBLIC	??_C@_0BC@EPJLBJBJ@glGenVertexArrays?$AA@	; `string'
PUBLIC	??_C@_0BA@ODJEGGAE@glIsVertexArray?$AA@		; `string'
PUBLIC	?pglColorMaterial@@3P6GXII@ZA			; pglColorMaterial
PUBLIC	?pglCompressedTexImage2DARB@@3P6GXIHIHHHHPBX@ZA	; pglCompressedTexImage2DARB
PUBLIC	?pglCopyPixels@@3P6GXHHHHI@ZA			; pglCopyPixels
PUBLIC	?pglCompressedTexImage1DARB@@3P6GXIHIHHHPBX@ZA	; pglCompressedTexImage1DARB
PUBLIC	?pglCopyTexImage1D@@3P6GXIHIHHHH@ZA		; pglCopyTexImage1D
PUBLIC	??_C@_0BB@DGGHKKOH@glIsRenderbuffer?$AA@	; `string'
PUBLIC	??_C@_0BD@EPOPJGFA@glBindRenderbuffer?$AA@	; `string'
PUBLIC	??_C@_0BG@KKOKEJDE@glDeleteRenderbuffers?$AA@	; `string'
PUBLIC	??_C@_0BD@MIGEDNGJ@glGenRenderbuffers?$AA@	; `string'
PUBLIC	??_C@_0BG@EOIILGMJ@glRenderbufferStorage?$AA@	; `string'
PUBLIC	?pglCopyTexImage2D@@3P6GXIHIHHHHH@ZA		; pglCopyTexImage2D
PUBLIC	??_C@_0BN@FGKAECKO@glGetRenderbufferParameteriv?$AA@ ; `string'
PUBLIC	??_C@_0BA@FGBIJCNH@glIsFramebuffer?$AA@		; `string'
PUBLIC	??_C@_0BC@CJMIBNO@glBindFramebuffer?$AA@	; `string'
PUBLIC	?pglCompressedTexSubImage3DARB@@3P6GXIHHHHHHHIHPBX@ZA ; pglCompressedTexSubImage3DARB
PUBLIC	??_C@_0BF@DJNJENP@glDeleteFramebuffers?$AA@	; `string'
PUBLIC	??_C@_0BC@FAPEBGID@glGenFramebuffers?$AA@	; `string'
PUBLIC	??_C@_0BJ@GIOLHEAD@glCheckFramebufferStatus?$AA@ ; `string'
PUBLIC	??_C@_0BH@JAMDNNBM@glFramebufferTexture1D?$AA@	; `string'
PUBLIC	?pglCopyTexSubImage1D@@3P6GXIHHHHH@ZA		; pglCopyTexSubImage1D
PUBLIC	??_C@_0BH@JCIFGDEF@glFramebufferTexture2D?$AA@	; `string'
PUBLIC	??_C@_0BH@JDEHAJHC@glFramebufferTexture3D?$AA@	; `string'
PUBLIC	??_C@_0BK@OJDINAOA@glFramebufferRenderbuffer?$AA@ ; `string'
PUBLIC	??_C@_0CG@KLDGJEON@glGetFramebufferAttachmentParame@ ; `string'
PUBLIC	??_C@_0BB@BHNIMGDM@glGenerateMipmap?$AA@	; `string'
PUBLIC	?pglCompressedTexSubImage2DARB@@3P6GXIHHHHHIHPBX@ZA ; pglCompressedTexSubImage2DARB
PUBLIC	?pglCopyTexSubImage2D@@3P6GXIHHHHHHH@ZA		; pglCopyTexSubImage2D
PUBLIC	?pglCullFace@@3P6GXI@ZA				; pglCullFace
PUBLIC	?pglCompressedTexSubImage1DARB@@3P6GXIHHHIHPBX@ZA ; pglCompressedTexSubImage1DARB
PUBLIC	?pglDeleteLists@@3P6GXIH@ZA			; pglDeleteLists
PUBLIC	??_C@_0BA@BJHFNMK@glGenQueriesARB?$AA@		; `string'
PUBLIC	??_C@_0BD@HAEDHPKB@glDeleteQueriesARB?$AA@	; `string'
PUBLIC	?pglDeleteObjectARB@@3P6GXI@ZA			; pglDeleteObjectARB
PUBLIC	??_C@_0N@HKMIDCPF@glIsQueryARB?$AA@		; `string'
PUBLIC	?pglDeleteTextures@@3P6GXHPBI@ZA		; pglDeleteTextures
PUBLIC	??_C@_0BA@LPKBABEB@glBeginQueryARB?$AA@		; `string'
PUBLIC	?pglGetHandleARB@@3P6GII@ZA			; pglGetHandleARB
PUBLIC	??_C@_0O@EFJDHGFG@glEndQueryARB?$AA@		; `string'
PUBLIC	?pglDepthFunc@@3P6GXI@ZA			; pglDepthFunc
PUBLIC	??_C@_0BA@DPEEILJC@glGetQueryivARB?$AA@		; `string'
PUBLIC	??_C@_0BG@EDFKPCGN@glGetQueryObjectivARB?$AA@	; `string'
PUBLIC	?pglDepthMask@@3P6GXE@ZA			; pglDepthMask
PUBLIC	?pglDetachObjectARB@@3P6GXII@ZA			; pglDetachObjectARB
PUBLIC	??_C@_0BH@OOHKBDPD@glGetQueryObjectuivARB?$AA@	; `string'
PUBLIC	?pglCreateShaderObjectARB@@3P6GII@ZA		; pglCreateShaderObjectARB
PUBLIC	?pglDepthRange@@3P6GXNN@ZA			; pglDepthRange
PUBLIC	??_C@_0CB@FDKGLPFF@glAlphaToCoverageDitherControlNV@ ; `string'
PUBLIC	?pglDisable@@3P6GXI@ZA				; pglDisable
PUBLIC	?pglShaderSourceARB@@3P6GXIHPAPBDPBH@ZA		; pglShaderSourceARB
PUBLIC	?pglDisableClientState@@3P6GXI@ZA		; pglDisableClientState
PUBLIC	?pglCompileShaderARB@@3P6GXI@ZA			; pglCompileShaderARB
PUBLIC	?pglCreateProgramObjectARB@@3P6GIXZA		; pglCreateProgramObjectARB
PUBLIC	?pglDrawArrays@@3P6GXIHH@ZA			; pglDrawArrays
PUBLIC	?pglDrawBuffer@@3P6GXI@ZA			; pglDrawBuffer
PUBLIC	?pglAttachObjectARB@@3P6GXII@ZA			; pglAttachObjectARB
PUBLIC	?pglLinkProgramARB@@3P6GXI@ZA			; pglLinkProgramARB
PUBLIC	?pglUseProgramObjectARB@@3P6GXI@ZA		; pglUseProgramObjectARB
PUBLIC	?pglDrawPixels@@3P6GXHHIIPBX@ZA			; pglDrawPixels
PUBLIC	?pglValidateProgramARB@@3P6GXI@ZA		; pglValidateProgramARB
PUBLIC	?pglEdgeFlag@@3P6GXE@ZA				; pglEdgeFlag
PUBLIC	?pglBindProgramARB@@3P6GXII@ZA			; pglBindProgramARB
PUBLIC	?pglEdgeFlagPointer@@3P6GXHPBX@ZA		; pglEdgeFlagPointer
PUBLIC	?pglDeleteProgramsARB@@3P6GXHPBI@ZA		; pglDeleteProgramsARB
PUBLIC	?pglEdgeFlagv@@3P6GXPBE@ZA			; pglEdgeFlagv
PUBLIC	?pglEnable@@3P6GXI@ZA				; pglEnable
PUBLIC	?pglGenProgramsARB@@3P6GXHPAI@ZA		; pglGenProgramsARB
PUBLIC	?pglEnableClientState@@3P6GXI@ZA		; pglEnableClientState
PUBLIC	?pglEnd@@3P6GXXZA				; pglEnd
PUBLIC	?pglProgramStringARB@@3P6GXIIHPBX@ZA		; pglProgramStringARB
PUBLIC	?pglEndList@@3P6GXXZA				; pglEndList
PUBLIC	?pglEvalCoord1d@@3P6GXN@ZA			; pglEvalCoord1d
PUBLIC	?pglEvalCoord1dv@@3P6GXPBN@ZA			; pglEvalCoord1dv
PUBLIC	?pglEvalCoord1f@@3P6GXM@ZA			; pglEvalCoord1f
PUBLIC	?pglProgramEnvParameter4fARB@@3P6GXIIMMMM@ZA	; pglProgramEnvParameter4fARB
PUBLIC	?pglEvalCoord1fv@@3P6GXPBM@ZA			; pglEvalCoord1fv
PUBLIC	?pglEvalCoord2d@@3P6GXNN@ZA			; pglEvalCoord2d
PUBLIC	?pglEvalCoord2dv@@3P6GXPBN@ZA			; pglEvalCoord2dv
PUBLIC	?pglProgramLocalParameter4fARB@@3P6GXIIMMMM@ZA	; pglProgramLocalParameter4fARB
PUBLIC	?pglEvalCoord2f@@3P6GXMM@ZA			; pglEvalCoord2f
_BSS	SEGMENT
?pglEvalCoord2fv@@3P6GXPBM@ZA DD 01H DUP (?)		; pglEvalCoord2fv
?pglGetProgramivARB@@3P6GXIIPAH@ZA DD 01H DUP (?)	; pglGetProgramivARB
?pglUniform1fARB@@3P6GXHM@ZA DD 01H DUP (?)		; pglUniform1fARB
?pglEvalMesh1@@3P6GXIHH@ZA DD 01H DUP (?)		; pglEvalMesh1
?pglUniform2fARB@@3P6GXHMM@ZA DD 01H DUP (?)		; pglUniform2fARB
?pglEvalMesh2@@3P6GXIHHHH@ZA DD 01H DUP (?)		; pglEvalMesh2
?pglEvalPoint1@@3P6GXH@ZA DD 01H DUP (?)		; pglEvalPoint1
?pglUniform3fARB@@3P6GXHMMM@ZA DD 01H DUP (?)		; pglUniform3fARB
?pglEvalPoint2@@3P6GXHH@ZA DD 01H DUP (?)		; pglEvalPoint2
?pglUniform4fARB@@3P6GXHMMMM@ZA DD 01H DUP (?)		; pglUniform4fARB
?pglFeedbackBuffer@@3P6GXHIPAM@ZA DD 01H DUP (?)	; pglFeedbackBuffer
?pglUniform1iARB@@3P6GXHH@ZA DD 01H DUP (?)		; pglUniform1iARB
?pglFinish@@3P6GXXZA DD 01H DUP (?)			; pglFinish
?pglFlush@@3P6GXXZA DD 01H DUP (?)			; pglFlush
?pglUniform2iARB@@3P6GXHHH@ZA DD 01H DUP (?)		; pglUniform2iARB
?pglFogf@@3P6GXIM@ZA DD 01H DUP (?)			; pglFogf
?pglFogfv@@3P6GXIPBM@ZA DD 01H DUP (?)			; pglFogfv
?pglUniform3iARB@@3P6GXHHHH@ZA DD 01H DUP (?)		; pglUniform3iARB
?pglFogi@@3P6GXIH@ZA DD 01H DUP (?)			; pglFogi
?pglFogiv@@3P6GXIPBH@ZA DD 01H DUP (?)			; pglFogiv
?pglUniform4iARB@@3P6GXHHHHH@ZA DD 01H DUP (?)		; pglUniform4iARB
?pglFrontFace@@3P6GXI@ZA DD 01H DUP (?)			; pglFrontFace
?pglUniform1fvARB@@3P6GXHHPBM@ZA DD 01H DUP (?)		; pglUniform1fvARB
?pglUniform2fvARB@@3P6GXHHPBM@ZA DD 01H DUP (?)		; pglUniform2fvARB
?pglFrustum@@3P6GXNNNNNN@ZA DD 01H DUP (?)		; pglFrustum
?pglGenTextures@@3P6GXHPAI@ZA DD 01H DUP (?)		; pglGenTextures
?pglUniform3fvARB@@3P6GXHHPBM@ZA DD 01H DUP (?)		; pglUniform3fvARB
?pglGetBooleanv@@3P6GXIPAE@ZA DD 01H DUP (?)		; pglGetBooleanv
?pglUniform4fvARB@@3P6GXHHPBM@ZA DD 01H DUP (?)		; pglUniform4fvARB
?pglGetClipPlane@@3P6GXIPAN@ZA DD 01H DUP (?)		; pglGetClipPlane
?pglGetDoublev@@3P6GXIPAN@ZA DD 01H DUP (?)		; pglGetDoublev
?pglUniform1ivARB@@3P6GXHHPBH@ZA DD 01H DUP (?)		; pglUniform1ivARB
?pglGetFloatv@@3P6GXIPAM@ZA DD 01H DUP (?)		; pglGetFloatv
?pglUniform2ivARB@@3P6GXHHPBH@ZA DD 01H DUP (?)		; pglUniform2ivARB
?pglGetIntegerv@@3P6GXIPAH@ZA DD 01H DUP (?)		; pglGetIntegerv
?pglUniform3ivARB@@3P6GXHHPBH@ZA DD 01H DUP (?)		; pglUniform3ivARB
?pglGetLightfv@@3P6GXIIPAM@ZA DD 01H DUP (?)		; pglGetLightfv
?pglUniform4ivARB@@3P6GXHHPBH@ZA DD 01H DUP (?)		; pglUniform4ivARB
?pglGetLightiv@@3P6GXIIPAH@ZA DD 01H DUP (?)		; pglGetLightiv
?pglUniformMatrix2fvARB@@3P6GXHHEPBM@ZA DD 01H DUP (?)	; pglUniformMatrix2fvARB
?pglGetMapdv@@3P6GXIIPAN@ZA DD 01H DUP (?)		; pglGetMapdv
?pglUniformMatrix3fvARB@@3P6GXHHEPBM@ZA DD 01H DUP (?)	; pglUniformMatrix3fvARB
?pglGetMapfv@@3P6GXIIPAM@ZA DD 01H DUP (?)		; pglGetMapfv
?pglGetMapiv@@3P6GXIIPAH@ZA DD 01H DUP (?)		; pglGetMapiv
?pglUniformMatrix4fvARB@@3P6GXHHEPBM@ZA DD 01H DUP (?)	; pglUniformMatrix4fvARB
?pglGetMaterialfv@@3P6GXIIPAM@ZA DD 01H DUP (?)		; pglGetMaterialfv
?pglGetObjectParameterfvARB@@3P6GXIIPAM@ZA DD 01H DUP (?) ; pglGetObjectParameterfvARB
?pglGetMaterialiv@@3P6GXIIPAH@ZA DD 01H DUP (?)		; pglGetMaterialiv
?pglGetObjectParameterivARB@@3P6GXIIPAH@ZA DD 01H DUP (?) ; pglGetObjectParameterivARB
?pglGetPixelMapfv@@3P6GXIPAM@ZA DD 01H DUP (?)		; pglGetPixelMapfv
?pglGetInfoLogARB@@3P6GXIHPAHPAD@ZA DD 01H DUP (?)	; pglGetInfoLogARB
?pglGetPixelMapuiv@@3P6GXIPAI@ZA DD 01H DUP (?)		; pglGetPixelMapuiv
?pglGetPixelMapusv@@3P6GXIPAG@ZA DD 01H DUP (?)		; pglGetPixelMapusv
?pglGetAttachedObjectsARB@@3P6GXIHPAHPAI@ZA DD 01H DUP (?) ; pglGetAttachedObjectsARB
?pglGetPointerv@@3P6GXIPAPAX@ZA DD 01H DUP (?)		; pglGetPointerv
?pglGetPolygonStipple@@3P6GXPAE@ZA DD 01H DUP (?)	; pglGetPolygonStipple
?pglGetUniformLocationARB@@3P6GHIPBD@ZA DD 01H DUP (?)	; pglGetUniformLocationARB
?pglGetTexEnvfv@@3P6GXIIPAM@ZA DD 01H DUP (?)		; pglGetTexEnvfv
?pglGetActiveUniformARB@@3P6GXIIHPAH0PAIPAD@ZA DD 01H DUP (?) ; pglGetActiveUniformARB
?pglGetTexEnviv@@3P6GXIIPAH@ZA DD 01H DUP (?)		; pglGetTexEnviv
?pglGetTexGendv@@3P6GXIIPAN@ZA DD 01H DUP (?)		; pglGetTexGendv
?pglGetUniformfvARB@@3P6GXIHPAM@ZA DD 01H DUP (?)	; pglGetUniformfvARB
?pglGetTexGenfv@@3P6GXIIPAM@ZA DD 01H DUP (?)		; pglGetTexGenfv
?pglGetUniformivARB@@3P6GXIHPAH@ZA DD 01H DUP (?)	; pglGetUniformivARB
?pglGetTexGeniv@@3P6GXIIPAH@ZA DD 01H DUP (?)		; pglGetTexGeniv
?pglGetShaderSourceARB@@3P6GXIHPAHPAD@ZA DD 01H DUP (?)	; pglGetShaderSourceARB
?pglGetTexImage@@3P6GXIHIIPAX@ZA DD 01H DUP (?)		; pglGetTexImage
?pglGetTexLevelParameterfv@@3P6GXIHIPAM@ZA DD 01H DUP (?) ; pglGetTexLevelParameterfv
?pglTexImage3D@@3P6GXIHIHHHHIIPBX@ZA DD 01H DUP (?)	; pglTexImage3D
?pglGetTexLevelParameteriv@@3P6GXIHIPAH@ZA DD 01H DUP (?) ; pglGetTexLevelParameteriv
?pglGetTexParameterfv@@3P6GXIIPAM@ZA DD 01H DUP (?)	; pglGetTexParameterfv
?pglTexSubImage3D@@3P6GXIHHHHHHHIIPBX@ZA DD 01H DUP (?)	; pglTexSubImage3D
?pglGetTexParameteriv@@3P6GXIIPAH@ZA DD 01H DUP (?)	; pglGetTexParameteriv
?pglHint@@3P6GXII@ZA DD 01H DUP (?)			; pglHint
?pglIndexMask@@3P6GXI@ZA DD 01H DUP (?)			; pglIndexMask
?pglIndexPointer@@3P6GXIHPBX@ZA DD 01H DUP (?)		; pglIndexPointer
?pglCopyTexSubImage3D@@3P6GXIHHHHHHHH@ZA DD 01H DUP (?)	; pglCopyTexSubImage3D
?pglIndexd@@3P6GXN@ZA DD 01H DUP (?)			; pglIndexd
?pglBlendEquationEXT@@3P6GXI@ZA DD 01H DUP (?)		; pglBlendEquationEXT
?pglIndexdv@@3P6GXPBN@ZA DD 01H DUP (?)			; pglIndexdv
?pglIndexf@@3P6GXM@ZA DD 01H DUP (?)			; pglIndexf
?pglStencilOpSeparate@@3P6GXIIII@ZA DD 01H DUP (?)	; pglStencilOpSeparate
?pglIndexfv@@3P6GXPBM@ZA DD 01H DUP (?)			; pglIndexfv
?pglIndexi@@3P6GXH@ZA DD 01H DUP (?)			; pglIndexi
?pglIndexiv@@3P6GXPBH@ZA DD 01H DUP (?)			; pglIndexiv
?pglStencilFuncSeparate@@3P6GXIIHI@ZA DD 01H DUP (?)	; pglStencilFuncSeparate
?pglIndexs@@3P6GXF@ZA DD 01H DUP (?)			; pglIndexs
?pglActiveStencilFaceEXT@@3P6GXI@ZA DD 01H DUP (?)	; pglActiveStencilFaceEXT
?pglIndexsv@@3P6GXPBF@ZA DD 01H DUP (?)			; pglIndexsv
?pglIndexub@@3P6GXE@ZA DD 01H DUP (?)			; pglIndexub
?pglIndexubv@@3P6GXPBE@ZA DD 01H DUP (?)		; pglIndexubv
?pglBlendFuncSeparate@@3P6GXIIII@ZA DD 01H DUP (?)	; pglBlendFuncSeparate
?pglInitNames@@3P6GXXZA DD 01H DUP (?)			; pglInitNames
?pglInterleavedArrays@@3P6GXIHPBX@ZA DD 01H DUP (?)	; pglInterleavedArrays
?pglVertexAttribPointerARB@@3P6GXIHIEHPBX@ZA DD 01H DUP (?) ; pglVertexAttribPointerARB
?pglEnableVertexAttribArrayARB@@3P6GXI@ZA DD 01H DUP (?) ; pglEnableVertexAttribArrayARB
?pglLightModelf@@3P6GXIM@ZA DD 01H DUP (?)		; pglLightModelf
?pglDisableVertexAttribArrayARB@@3P6GXI@ZA DD 01H DUP (?) ; pglDisableVertexAttribArrayARB
?pglLightModelfv@@3P6GXIPBM@ZA DD 01H DUP (?)		; pglLightModelfv
?pglBindAttribLocationARB@@3P6GXIIPBD@ZA DD 01H DUP (?)	; pglBindAttribLocationARB
?pglLightModeli@@3P6GXIH@ZA DD 01H DUP (?)		; pglLightModeli
?pglLightModeliv@@3P6GXIPBH@ZA DD 01H DUP (?)		; pglLightModeliv
?pglLightf@@3P6GXIIM@ZA DD 01H DUP (?)			; pglLightf
?pglGetActiveAttribARB@@3P6GXIIHPAH0PAIPAD@ZA DD 01H DUP (?) ; pglGetActiveAttribARB
?pglGetAttribLocationARB@@3P6GHIPBD@ZA DD 01H DUP (?)	; pglGetAttribLocationARB
?pglLightfv@@3P6GXIIPBM@ZA DD 01H DUP (?)		; pglLightfv
?pglBindFragDataLocation@@3P6GXIIPBD@ZA DD 01H DUP (?)	; pglBindFragDataLocation
?pglLighti@@3P6GXIIH@ZA DD 01H DUP (?)			; pglLighti
?pglLightiv@@3P6GXIIPBH@ZA DD 01H DUP (?)		; pglLightiv
?pglVertexAttrib2fARB@@3P6GXIMM@ZA DD 01H DUP (?)	; pglVertexAttrib2fARB
?pglVertexAttrib2fvARB@@3P6GXIPBM@ZA DD 01H DUP (?)	; pglVertexAttrib2fvARB
?pglLineStipple@@3P6GXHG@ZA DD 01H DUP (?)		; pglLineStipple
?pglLineWidth@@3P6GXM@ZA DD 01H DUP (?)			; pglLineWidth
?pglVertexAttrib3fvARB@@3P6GXIPBM@ZA DD 01H DUP (?)	; pglVertexAttrib3fvARB
?pglListBase@@3P6GXI@ZA DD 01H DUP (?)			; pglListBase
?pglLoadIdentity@@3P6GXXZA DD 01H DUP (?)		; pglLoadIdentity
?pglLoadMatrixd@@3P6GXPBN@ZA DD 01H DUP (?)		; pglLoadMatrixd
?pglVertexAttrib4fARB@@3P6GXIMMMM@ZA DD 01H DUP (?)	; pglVertexAttrib4fARB
?pglLoadMatrixf@@3P6GXPBM@ZA DD 01H DUP (?)		; pglLoadMatrixf
?pglVertexAttrib4fvARB@@3P6GXIPBM@ZA DD 01H DUP (?)	; pglVertexAttrib4fvARB
?pglLoadName@@3P6GXI@ZA DD 01H DUP (?)			; pglLoadName
?pglLogicOp@@3P6GXI@ZA DD 01H DUP (?)			; pglLogicOp
?pglVertexAttrib4ubvARB@@3P6GXIPBE@ZA DD 01H DUP (?)	; pglVertexAttrib4ubvARB
?pglBindBufferARB@@3P6GXII@ZA DD 01H DUP (?)		; pglBindBufferARB
?pglMap1d@@3P6GXINNHHPBN@ZA DD 01H DUP (?)		; pglMap1d
?pglDeleteBuffersARB@@3P6GXHPBI@ZA DD 01H DUP (?)	; pglDeleteBuffersARB
?pglGenBuffersARB@@3P6GXHPAI@ZA DD 01H DUP (?)		; pglGenBuffersARB
?pglIsBufferARB@@3P6GEI@ZA DD 01H DUP (?)		; pglIsBufferARB
?pglMap1f@@3P6GXIMMHHPBM@ZA DD 01H DUP (?)		; pglMap1f
?pglMapBufferARB@@3P6GPAXII@ZA DD 01H DUP (?)		; pglMapBufferARB
?pglUnmapBufferARB@@3P6GEI@ZA DD 01H DUP (?)		; pglUnmapBufferARB
?pglBufferDataARB@@3P6GXIHPBXI@ZA DD 01H DUP (?)	; pglBufferDataARB
?pglMap2d@@3P6GXINNHHNNHHPBN@ZA DD 01H DUP (?)		; pglMap2d
?pglBufferSubDataARB@@3P6GXIHHPBX@ZA DD 01H DUP (?)	; pglBufferSubDataARB
?pglGenQueriesARB@@3P6GXHPAI@ZA DD 01H DUP (?)		; pglGenQueriesARB
?pglDeleteQueriesARB@@3P6GXHPBI@ZA DD 01H DUP (?)	; pglDeleteQueriesARB
?pglIsQueryARB@@3P6GEI@ZA DD 01H DUP (?)		; pglIsQueryARB
?pglMap2f@@3P6GXIMMHHMMHHPBM@ZA DD 01H DUP (?)		; pglMap2f
?pglBeginQueryARB@@3P6GXII@ZA DD 01H DUP (?)		; pglBeginQueryARB
?pglMapGrid1d@@3P6GXHNN@ZA DD 01H DUP (?)		; pglMapGrid1d
?pglEndQueryARB@@3P6GXI@ZA DD 01H DUP (?)		; pglEndQueryARB
?pglMapGrid1f@@3P6GXHMM@ZA DD 01H DUP (?)		; pglMapGrid1f
?pglGetQueryivARB@@3P6GXIIPAH@ZA DD 01H DUP (?)		; pglGetQueryivARB
?pglGetQueryObjectivARB@@3P6GXIIPAH@ZA DD 01H DUP (?)	; pglGetQueryObjectivARB
?pglMapGrid2d@@3P6GXHNNHNN@ZA DD 01H DUP (?)		; pglMapGrid2d
?pglGetQueryObjectuivARB@@3P6GXIIPAI@ZA DD 01H DUP (?)	; pglGetQueryObjectuivARB
?pglSelectTextureSGIS@@3P6GXI@ZA DD 01H DUP (?)		; pglSelectTextureSGIS
?pglMapGrid2f@@3P6GXHMMHMM@ZA DD 01H DUP (?)		; pglMapGrid2f
?pglMTexCoord2fSGIS@@3P6GXIMM@ZA DD 01H DUP (?)		; pglMTexCoord2fSGIS
?pglSwapInterval@@3P6GXH@ZA DD 01H DUP (?)		; pglSwapInterval
?pglMaterialf@@3P6GXIIM@ZA DD 01H DUP (?)		; pglMaterialf
?pglIsRenderbuffer@@3P6GEI@ZA DD 01H DUP (?)		; pglIsRenderbuffer
?pglBindRenderbuffer@@3P6GXII@ZA DD 01H DUP (?)		; pglBindRenderbuffer
?pglMaterialfv@@3P6GXIIPBM@ZA DD 01H DUP (?)		; pglMaterialfv
?pglDeleteRenderbuffers@@3P6GXHPBI@ZA DD 01H DUP (?)	; pglDeleteRenderbuffers
?pglMateriali@@3P6GXIIH@ZA DD 01H DUP (?)		; pglMateriali
?pglGenRenderbuffers@@3P6GXHPAI@ZA DD 01H DUP (?)	; pglGenRenderbuffers
?pglMaterialiv@@3P6GXIIPBH@ZA DD 01H DUP (?)		; pglMaterialiv
?pglRenderbufferStorage@@3P6GXIIHH@ZA DD 01H DUP (?)	; pglRenderbufferStorage
?pglMatrixMode@@3P6GXI@ZA DD 01H DUP (?)		; pglMatrixMode
?pglMultMatrixd@@3P6GXPBN@ZA DD 01H DUP (?)		; pglMultMatrixd
?pglMultMatrixf@@3P6GXPBM@ZA DD 01H DUP (?)		; pglMultMatrixf
?pglRenderbufferStorageMultisample@@3P6GXIHIHH@ZA DD 01H DUP (?) ; pglRenderbufferStorageMultisample
?pglNewList@@3P6GXII@ZA DD 01H DUP (?)			; pglNewList
?pglGetRenderbufferParameteriv@@3P6GXIIPAH@ZA DD 01H DUP (?) ; pglGetRenderbufferParameteriv
?pglNormal3b@@3P6GXCCC@ZA DD 01H DUP (?)		; pglNormal3b
?pglIsFramebuffer@@3P6GEI@ZA DD 01H DUP (?)		; pglIsFramebuffer
?pglNormal3bv@@3P6GXPBC@ZA DD 01H DUP (?)		; pglNormal3bv
?pglBindFramebuffer@@3P6GXII@ZA DD 01H DUP (?)		; pglBindFramebuffer
?pglNormal3d@@3P6GXNNN@ZA DD 01H DUP (?)		; pglNormal3d
?pglDeleteFramebuffers@@3P6GXHPBI@ZA DD 01H DUP (?)	; pglDeleteFramebuffers
?pglNormal3dv@@3P6GXPBN@ZA DD 01H DUP (?)		; pglNormal3dv
?pglGenFramebuffers@@3P6GXHPAI@ZA DD 01H DUP (?)	; pglGenFramebuffers
?pglCheckFramebufferStatus@@3P6GII@ZA DD 01H DUP (?)	; pglCheckFramebufferStatus
?pglNormal3f@@3P6GXMMM@ZA DD 01H DUP (?)		; pglNormal3f
?pglNormal3fv@@3P6GXPBM@ZA DD 01H DUP (?)		; pglNormal3fv
?pglNormal3i@@3P6GXHHH@ZA DD 01H DUP (?)		; pglNormal3i
?pglFramebufferTexture1D@@3P6GXIIIIH@ZA DD 01H DUP (?)	; pglFramebufferTexture1D
?pglNormal3iv@@3P6GXPBH@ZA DD 01H DUP (?)		; pglNormal3iv
?pglNormal3s@@3P6GXFFF@ZA DD 01H DUP (?)		; pglNormal3s
?pglFramebufferTexture2D@@3P6GXIIIIH@ZA DD 01H DUP (?)	; pglFramebufferTexture2D
?pglNormal3sv@@3P6GXPBF@ZA DD 01H DUP (?)		; pglNormal3sv
?pglFramebufferTexture3D@@3P6GXIIIIHH@ZA DD 01H DUP (?)	; pglFramebufferTexture3D
?pglOrtho@@3P6GXNNNNNN@ZA DD 01H DUP (?)		; pglOrtho
?pglPassThrough@@3P6GXM@ZA DD 01H DUP (?)		; pglPassThrough
?pglFramebufferTextureLayer@@3P6GXIIIHH@ZA DD 01H DUP (?) ; pglFramebufferTextureLayer
?pglPixelMapfv@@3P6GXIHPBM@ZA DD 01H DUP (?)		; pglPixelMapfv
?pglFramebufferRenderbuffer@@3P6GXIIII@ZA DD 01H DUP (?) ; pglFramebufferRenderbuffer
?pglPixelMapuiv@@3P6GXIHPBI@ZA DD 01H DUP (?)		; pglPixelMapuiv
?pglGetFramebufferAttachmentParameteriv@@3P6GXIIIPAH@ZA DD 01H DUP (?) ; pglGetFramebufferAttachmentParameteriv
?pglPixelMapusv@@3P6GXIHPBG@ZA DD 01H DUP (?)		; pglPixelMapusv
?pglPixelStoref@@3P6GXIM@ZA DD 01H DUP (?)		; pglPixelStoref
?pglPixelStorei@@3P6GXIH@ZA DD 01H DUP (?)		; pglPixelStorei
?pglPixelTransferf@@3P6GXIM@ZA DD 01H DUP (?)		; pglPixelTransferf
?pglBlitFramebuffer@@3P6GXHHHHHHHHII@ZA DD 01H DUP (?)	; pglBlitFramebuffer
?pglPixelTransferi@@3P6GXIH@ZA DD 01H DUP (?)		; pglPixelTransferi
?pglPixelZoom@@3P6GXMM@ZA DD 01H DUP (?)		; pglPixelZoom
?pglPointSize@@3P6GXM@ZA DD 01H DUP (?)			; pglPointSize
?pglPolygonMode@@3P6GXII@ZA DD 01H DUP (?)		; pglPolygonMode
?pglPolygonOffset@@3P6GXMM@ZA DD 01H DUP (?)		; pglPolygonOffset
?pglPolygonStipple@@3P6GXPBE@ZA DD 01H DUP (?)		; pglPolygonStipple
?pglPopAttrib@@3P6GXXZA DD 01H DUP (?)			; pglPopAttrib
?pglCopyImageSubData@@3P6GXIIHHHHIIHHHHHHH@ZA DD 01H DUP (?) ; pglCopyImageSubData
?pglGenerateMipmap@@3P6GXI@ZA DD 01H DUP (?)		; pglGenerateMipmap
?pglPopClientAttrib@@3P6GXXZA DD 01H DUP (?)		; pglPopClientAttrib
?pglPopMatrix@@3P6GXXZA DD 01H DUP (?)			; pglPopMatrix
?pwglGetProcAddress@@3P6GP6GHXZPBD@ZA DD 01H DUP (?)	; pwglGetProcAddress
?pglBindVertexArray@@3P6GXI@ZA DD 01H DUP (?)		; pglBindVertexArray
?pglPopName@@3P6GXXZA DD 01H DUP (?)			; pglPopName
?pglPushAttrib@@3P6GXI@ZA DD 01H DUP (?)		; pglPushAttrib
?pglDeleteVertexArrays@@3P6GXHPBI@ZA DD 01H DUP (?)	; pglDeleteVertexArrays
?pglPushClientAttrib@@3P6GXI@ZA DD 01H DUP (?)		; pglPushClientAttrib
?pglGenVertexArrays@@3P6GXHPBI@ZA DD 01H DUP (?)	; pglGenVertexArrays
?pglPushMatrix@@3P6GXXZA DD 01H DUP (?)			; pglPushMatrix
?pglIsVertexArray@@3P6GEI@ZA DD 01H DUP (?)		; pglIsVertexArray
?pglPushName@@3P6GXI@ZA DD 01H DUP (?)			; pglPushName
?pglRasterPos2d@@3P6GXNN@ZA DD 01H DUP (?)		; pglRasterPos2d
?pglRasterPos2dv@@3P6GXPBN@ZA DD 01H DUP (?)		; pglRasterPos2dv
?pglRasterPos2f@@3P6GXMM@ZA DD 01H DUP (?)		; pglRasterPos2f
?pglRasterPos2fv@@3P6GXPBM@ZA DD 01H DUP (?)		; pglRasterPos2fv
?pglRasterPos2i@@3P6GXHH@ZA DD 01H DUP (?)		; pglRasterPos2i
?pglDebugMessageControlARB@@3P6GXIIIHPBIE@ZA DD 01H DUP (?) ; pglDebugMessageControlARB
?pglRasterPos2iv@@3P6GXPBH@ZA DD 01H DUP (?)		; pglRasterPos2iv
?pglRasterPos2s@@3P6GXFF@ZA DD 01H DUP (?)		; pglRasterPos2s
?pglRasterPos2sv@@3P6GXPBF@ZA DD 01H DUP (?)		; pglRasterPos2sv
?pglDebugMessageInsertARB@@3P6GXIIIIHPBD@ZA DD 01H DUP (?) ; pglDebugMessageInsertARB
?pglRasterPos3d@@3P6GXNNN@ZA DD 01H DUP (?)		; pglRasterPos3d
?pglDebugMessageCallbackARB@@3P6GXP6GXIIIIHPBDPAX@Z1@ZA DD 01H DUP (?) ; pglDebugMessageCallbackARB
?pglRasterPos3dv@@3P6GXPBN@ZA DD 01H DUP (?)		; pglRasterPos3dv
?pglRasterPos3f@@3P6GXMMM@ZA DD 01H DUP (?)		; pglRasterPos3f
?pglRasterPos3fv@@3P6GXPBM@ZA DD 01H DUP (?)		; pglRasterPos3fv
?pglGetDebugMessageLogARB@@3P6GIIHPAI000PAHPAD@ZA DD 01H DUP (?) ; pglGetDebugMessageLogARB
?pglAlphaToCoverageDitherControlNV@@3P6GXI@ZA DD 01H DUP (?) ; pglAlphaToCoverageDitherControlNV
?pglRasterPos3i@@3P6GXHHH@ZA DD 01H DUP (?)		; pglRasterPos3i
?pglRasterPos3iv@@3P6GXPBH@ZA DD 01H DUP (?)		; pglRasterPos3iv
?pglCreateShader@@3P6GII@ZA DD 01H DUP (?)		; pglCreateShader
?pglAttachShader@@3P6GXII@ZA DD 01H DUP (?)		; pglAttachShader
?pglRasterPos3s@@3P6GXFFF@ZA DD 01H DUP (?)		; pglRasterPos3s
?pglDetachShader@@3P6GXII@ZA DD 01H DUP (?)		; pglDetachShader
?pglRasterPos3sv@@3P6GXPBF@ZA DD 01H DUP (?)		; pglRasterPos3sv
?pglCompileShader@@3P6GXI@ZA DD 01H DUP (?)		; pglCompileShader
?pglRasterPos4d@@3P6GXNNNN@ZA DD 01H DUP (?)		; pglRasterPos4d
?pglRasterPos4dv@@3P6GXPBN@ZA DD 01H DUP (?)		; pglRasterPos4dv
?pglGetShaderSource@@3P6GXIHPAHPAD@ZA DD 01H DUP (?)	; pglGetShaderSource
?pglRasterPos4f@@3P6GXMMMM@ZA DD 01H DUP (?)		; pglRasterPos4f
?pglShaderSource@@3P6GXIHPBQBDPBH@ZA DD 01H DUP (?)	; pglShaderSource
?pglRasterPos4fv@@3P6GXPBM@ZA DD 01H DUP (?)		; pglRasterPos4fv
?pglGetShaderiv@@3P6GXIIPAH@ZA DD 01H DUP (?)		; pglGetShaderiv
?pglDeleteShader@@3P6GXI@ZA DD 01H DUP (?)		; pglDeleteShader
?pglRasterPos4i@@3P6GXHHHH@ZA DD 01H DUP (?)		; pglRasterPos4i
?pglLinkProgram@@3P6GXI@ZA DD 01H DUP (?)		; pglLinkProgram
?pglRasterPos4iv@@3P6GXPBH@ZA DD 01H DUP (?)		; pglRasterPos4iv
?pglUseProgram@@3P6GXI@ZA DD 01H DUP (?)		; pglUseProgram
?pglValidateProgram@@3P6GXI@ZA DD 01H DUP (?)		; pglValidateProgram
?pglCreateProgram@@3P6GIXZA DD 01H DUP (?)		; pglCreateProgram
?pglRasterPos4s@@3P6GXFFFF@ZA DD 01H DUP (?)		; pglRasterPos4s
?pglRasterPos4sv@@3P6GXPBF@ZA DD 01H DUP (?)		; pglRasterPos4sv
?pglDeleteProgram@@3P6GXI@ZA DD 01H DUP (?)		; pglDeleteProgram
?pglReadBuffer@@3P6GXI@ZA DD 01H DUP (?)		; pglReadBuffer
?pglGetShaderInfoLog@@3P6GXIHPAHPAD@ZA DD 01H DUP (?)	; pglGetShaderInfoLog
?pglReadPixels@@3P6GXHHHHIIPAX@ZA DD 01H DUP (?)	; pglReadPixels
?pglGetProgramInfoLog@@3P6GXIHPAHPAD@ZA DD 01H DUP (?)	; pglGetProgramInfoLog
?pglRectd@@3P6GXNNNN@ZA DD 01H DUP (?)			; pglRectd
?pglRectdv@@3P6GXPBN0@ZA DD 01H DUP (?)			; pglRectdv
?pglGetActiveUniform@@3P6GXIIHPAH0PAIPAD@ZA DD 01H DUP (?) ; pglGetActiveUniform
?pglGetUniformLocation@@3P6GHIPBD@ZA DD 01H DUP (?)	; pglGetUniformLocation
?pglRectf@@3P6GXMMMM@ZA DD 01H DUP (?)			; pglRectf
?pglGetProgramiv@@3P6GXIIPAH@ZA DD 01H DUP (?)		; pglGetProgramiv
?pglRectfv@@3P6GXPBM0@ZA DD 01H DUP (?)			; pglRectfv
?pglBlendEquation@@3P6GXI@ZA DD 01H DUP (?)		; pglBlendEquation
?pglDrawBuffersARB@@3P6GXHPBI@ZA DD 01H DUP (?)		; pglDrawBuffersARB
?pglRecti@@3P6GXHHHH@ZA DD 01H DUP (?)			; pglRecti
?pglRectiv@@3P6GXPBH0@ZA DD 01H DUP (?)			; pglRectiv
?pglRects@@3P6GXFFFF@ZA DD 01H DUP (?)			; pglRects
?pglRectsv@@3P6GXPBF0@ZA DD 01H DUP (?)			; pglRectsv
?pglRotated@@3P6GXNNNN@ZA DD 01H DUP (?)		; pglRotated
?pglRotatef@@3P6GXMMMM@ZA DD 01H DUP (?)		; pglRotatef
?pglScaled@@3P6GXNNN@ZA DD 01H DUP (?)			; pglScaled
?pglScalef@@3P6GXMMM@ZA DD 01H DUP (?)			; pglScalef
?pglScissor@@3P6GXHHHH@ZA DD 01H DUP (?)		; pglScissor
?pglSelectBuffer@@3P6GXHPAI@ZA DD 01H DUP (?)		; pglSelectBuffer
?pglShadeModel@@3P6GXI@ZA DD 01H DUP (?)		; pglShadeModel
?pglStencilFunc@@3P6GXIHI@ZA DD 01H DUP (?)		; pglStencilFunc
?pglStencilMask@@3P6GXI@ZA DD 01H DUP (?)		; pglStencilMask
?pglStencilOp@@3P6GXIII@ZA DD 01H DUP (?)		; pglStencilOp
?pglTexCoord1d@@3P6GXN@ZA DD 01H DUP (?)		; pglTexCoord1d
?pglTexCoord1dv@@3P6GXPBN@ZA DD 01H DUP (?)		; pglTexCoord1dv
?pglTexCoord1f@@3P6GXM@ZA DD 01H DUP (?)		; pglTexCoord1f
?pglTexCoord1fv@@3P6GXPBM@ZA DD 01H DUP (?)		; pglTexCoord1fv
?pglTexCoord1i@@3P6GXH@ZA DD 01H DUP (?)		; pglTexCoord1i
?pglTexCoord1iv@@3P6GXPBH@ZA DD 01H DUP (?)		; pglTexCoord1iv
?pglTexCoord1s@@3P6GXF@ZA DD 01H DUP (?)		; pglTexCoord1s
?pglTexCoord1sv@@3P6GXPBF@ZA DD 01H DUP (?)		; pglTexCoord1sv
?pglTexCoord2d@@3P6GXNN@ZA DD 01H DUP (?)		; pglTexCoord2d
?pglTexCoord2dv@@3P6GXPBN@ZA DD 01H DUP (?)		; pglTexCoord2dv
?pglTexCoord2f@@3P6GXMM@ZA DD 01H DUP (?)		; pglTexCoord2f
?pglTexCoord2fv@@3P6GXPBM@ZA DD 01H DUP (?)		; pglTexCoord2fv
?pglTexCoord2i@@3P6GXHH@ZA DD 01H DUP (?)		; pglTexCoord2i
?pglTexCoord2iv@@3P6GXPBH@ZA DD 01H DUP (?)		; pglTexCoord2iv
?pglTexCoord2s@@3P6GXFF@ZA DD 01H DUP (?)		; pglTexCoord2s
?pglTexCoord2sv@@3P6GXPBF@ZA DD 01H DUP (?)		; pglTexCoord2sv
?pglTexCoord3d@@3P6GXNNN@ZA DD 01H DUP (?)		; pglTexCoord3d
?pglTexCoord3dv@@3P6GXPBN@ZA DD 01H DUP (?)		; pglTexCoord3dv
?pglTexCoord3f@@3P6GXMMM@ZA DD 01H DUP (?)		; pglTexCoord3f
?pglTexCoord3fv@@3P6GXPBM@ZA DD 01H DUP (?)		; pglTexCoord3fv
?pglTexCoord3i@@3P6GXHHH@ZA DD 01H DUP (?)		; pglTexCoord3i
?pglTexCoord3iv@@3P6GXPBH@ZA DD 01H DUP (?)		; pglTexCoord3iv
?glConfig@@3UglConfig_t@@A DB 068H DUP (?)		; glConfig
?pglTexCoord3s@@3P6GXFFF@ZA DD 01H DUP (?)		; pglTexCoord3s
?pglTexCoord3sv@@3P6GXPBF@ZA DD 01H DUP (?)		; pglTexCoord3sv
?pglTexCoord4d@@3P6GXNNNN@ZA DD 01H DUP (?)		; pglTexCoord4d
?pglTexCoord4dv@@3P6GXPBN@ZA DD 01H DUP (?)		; pglTexCoord4dv
?pglTexCoord4f@@3P6GXMMMM@ZA DD 01H DUP (?)		; pglTexCoord4f
?pglTexCoord4fv@@3P6GXPBM@ZA DD 01H DUP (?)		; pglTexCoord4fv
?pglTexCoord4i@@3P6GXHHHH@ZA DD 01H DUP (?)		; pglTexCoord4i
?pglTexCoord4iv@@3P6GXPBH@ZA DD 01H DUP (?)		; pglTexCoord4iv
?pglTexCoord4s@@3P6GXFFFF@ZA DD 01H DUP (?)		; pglTexCoord4s
?pglTexCoord4sv@@3P6GXPBF@ZA DD 01H DUP (?)		; pglTexCoord4sv
?pglTexEnvf@@3P6GXIIM@ZA DD 01H DUP (?)			; pglTexEnvf
?pglTexEnvfv@@3P6GXIIPBM@ZA DD 01H DUP (?)		; pglTexEnvfv
?pglTexEnvi@@3P6GXIIH@ZA DD 01H DUP (?)			; pglTexEnvi
?pglTexEnviv@@3P6GXIIPBH@ZA DD 01H DUP (?)		; pglTexEnviv
?pglTexGend@@3P6GXIIN@ZA DD 01H DUP (?)			; pglTexGend
?pglTexGendv@@3P6GXIIPBN@ZA DD 01H DUP (?)		; pglTexGendv
?pglTexGenf@@3P6GXIIM@ZA DD 01H DUP (?)			; pglTexGenf
?pglTexGenfv@@3P6GXIIPBM@ZA DD 01H DUP (?)		; pglTexGenfv
?pglTexGeni@@3P6GXIIH@ZA DD 01H DUP (?)			; pglTexGeni
?pglTexGeniv@@3P6GXIIPBH@ZA DD 01H DUP (?)		; pglTexGeniv
?pglTexImage1D@@3P6GXIHHHHIIPBX@ZA DD 01H DUP (?)	; pglTexImage1D
?pglTexImage2D@@3P6GXIHHHHHIIPBX@ZA DD 01H DUP (?)	; pglTexImage2D
?pglTexParameterf@@3P6GXIIM@ZA DD 01H DUP (?)		; pglTexParameterf
?pglTexParameterfv@@3P6GXIIPBM@ZA DD 01H DUP (?)	; pglTexParameterfv
?pglTexParameteri@@3P6GXIIH@ZA DD 01H DUP (?)		; pglTexParameteri
?pglTexParameteriv@@3P6GXIIPBH@ZA DD 01H DUP (?)	; pglTexParameteriv
?pglTexSubImage1D@@3P6GXIHHHIIPBX@ZA DD 01H DUP (?)	; pglTexSubImage1D
?pglTexSubImage2D@@3P6GXIHHHHHIIPBX@ZA DD 01H DUP (?)	; pglTexSubImage2D
?pglTranslated@@3P6GXNNN@ZA DD 01H DUP (?)		; pglTranslated
?pglTranslatef@@3P6GXMMM@ZA DD 01H DUP (?)		; pglTranslatef
?pglVertex2d@@3P6GXNN@ZA DD 01H DUP (?)			; pglVertex2d
?pglVertex2dv@@3P6GXPBN@ZA DD 01H DUP (?)		; pglVertex2dv
?pglVertex2f@@3P6GXMM@ZA DD 01H DUP (?)			; pglVertex2f
?pglGetError@@3P6GIXZA DD 01H DUP (?)			; pglGetError
?pglGetString@@3P6GPBDI@ZA DD 01H DUP (?)		; pglGetString
?pglVertex2fv@@3P6GXPBM@ZA DD 01H DUP (?)		; pglVertex2fv
?pglAccum@@3P6GXIM@ZA DD 01H DUP (?)			; pglAccum
?pglVertex2i@@3P6GXHH@ZA DD 01H DUP (?)			; pglVertex2i
?pglVertex2iv@@3P6GXPBH@ZA DD 01H DUP (?)		; pglVertex2iv
?pglAlphaFunc@@3P6GXIM@ZA DD 01H DUP (?)		; pglAlphaFunc
?pglBegin@@3P6GXI@ZA DD 01H DUP (?)			; pglBegin
?pglVertex2s@@3P6GXFF@ZA DD 01H DUP (?)			; pglVertex2s
?pglVertex2sv@@3P6GXPBF@ZA DD 01H DUP (?)		; pglVertex2sv
?pglBindTexture@@3P6GXII@ZA DD 01H DUP (?)		; pglBindTexture
?pglVertex3d@@3P6GXNNN@ZA DD 01H DUP (?)		; pglVertex3d
?pglVertex3dv@@3P6GXPBN@ZA DD 01H DUP (?)		; pglVertex3dv
?pglBitmap@@3P6GXHHMMMMPBE@ZA DD 01H DUP (?)		; pglBitmap
?pglVertex3f@@3P6GXMMM@ZA DD 01H DUP (?)		; pglVertex3f
?pglBlendFunc@@3P6GXII@ZA DD 01H DUP (?)		; pglBlendFunc
?pglVertex3fv@@3P6GXPBM@ZA DD 01H DUP (?)		; pglVertex3fv
?pglCallList@@3P6GXI@ZA DD 01H DUP (?)			; pglCallList
?pglVertex3i@@3P6GXHHH@ZA DD 01H DUP (?)		; pglVertex3i
?pglVertex3iv@@3P6GXPBH@ZA DD 01H DUP (?)		; pglVertex3iv
?pglCallLists@@3P6GXHIPBX@ZA DD 01H DUP (?)		; pglCallLists
?pglClear@@3P6GXI@ZA DD 01H DUP (?)			; pglClear
?pglVertex3s@@3P6GXFFF@ZA DD 01H DUP (?)		; pglVertex3s
?pglVertex3sv@@3P6GXPBF@ZA DD 01H DUP (?)		; pglVertex3sv
?pglClearAccum@@3P6GXMMMM@ZA DD 01H DUP (?)		; pglClearAccum
?pglVertex4d@@3P6GXNNNN@ZA DD 01H DUP (?)		; pglVertex4d
?pglClearColor@@3P6GXMMMM@ZA DD 01H DUP (?)		; pglClearColor
?pglVertex4dv@@3P6GXPBN@ZA DD 01H DUP (?)		; pglVertex4dv
?pglClearDepth@@3P6GXN@ZA DD 01H DUP (?)		; pglClearDepth
?pglClearIndex@@3P6GXM@ZA DD 01H DUP (?)		; pglClearIndex
?pglVertex4f@@3P6GXMMMM@ZA DD 01H DUP (?)		; pglVertex4f
?pglClearStencil@@3P6GXH@ZA DD 01H DUP (?)		; pglClearStencil
?pglIsEnabled@@3P6GEI@ZA DD 01H DUP (?)			; pglIsEnabled
?pglVertex4fv@@3P6GXPBM@ZA DD 01H DUP (?)		; pglVertex4fv
?pglIsList@@3P6GEI@ZA DD 01H DUP (?)			; pglIsList
?pglIsTexture@@3P6GEI@ZA DD 01H DUP (?)			; pglIsTexture
?pglVertex4i@@3P6GXHHHH@ZA DD 01H DUP (?)		; pglVertex4i
?pglClipPlane@@3P6GXIPBN@ZA DD 01H DUP (?)		; pglClipPlane
?pglVertex4iv@@3P6GXPBH@ZA DD 01H DUP (?)		; pglVertex4iv
?pglColor3b@@3P6GXCCC@ZA DD 01H DUP (?)			; pglColor3b
?pglVertex4s@@3P6GXFFFF@ZA DD 01H DUP (?)		; pglVertex4s
?pglColor3bv@@3P6GXPBC@ZA DD 01H DUP (?)		; pglColor3bv
?pglVertex4sv@@3P6GXPBF@ZA DD 01H DUP (?)		; pglVertex4sv
?pglColor3d@@3P6GXNNN@ZA DD 01H DUP (?)			; pglColor3d
?pglColor3dv@@3P6GXPBN@ZA DD 01H DUP (?)		; pglColor3dv
?pglViewport@@3P6GXHHHH@ZA DD 01H DUP (?)		; pglViewport
?pglPointParameterfEXT@@3P6GXIM@ZA DD 01H DUP (?)	; pglPointParameterfEXT
?pglColor3f@@3P6GXMMM@ZA DD 01H DUP (?)			; pglColor3f
?pglPointParameterfvEXT@@3P6GXIPBM@ZA DD 01H DUP (?)	; pglPointParameterfvEXT
?pglColor3fv@@3P6GXPBM@ZA DD 01H DUP (?)		; pglColor3fv
?pglLockArraysEXT@@3P6GXHH@ZA DD 01H DUP (?)		; pglLockArraysEXT
?pglColor3i@@3P6GXHHH@ZA DD 01H DUP (?)			; pglColor3i
?pglUnlockArraysEXT@@3P6GXXZA DD 01H DUP (?)		; pglUnlockArraysEXT
?pglColor3iv@@3P6GXPBH@ZA DD 01H DUP (?)		; pglColor3iv
?pglActiveTextureARB@@3P6GXI@ZA DD 01H DUP (?)		; pglActiveTextureARB
?pglClientActiveTextureARB@@3P6GXI@ZA DD 01H DUP (?)	; pglClientActiveTextureARB
?pglColor3s@@3P6GXFFF@ZA DD 01H DUP (?)			; pglColor3s
?pglColor3sv@@3P6GXPBF@ZA DD 01H DUP (?)		; pglColor3sv
?pglGetCompressedTexImage@@3P6GXIHPBX@ZA DD 01H DUP (?)	; pglGetCompressedTexImage
?pglColor3ub@@3P6GXEEE@ZA DD 01H DUP (?)		; pglColor3ub
?pglColor3ubv@@3P6GXPBE@ZA DD 01H DUP (?)		; pglColor3ubv
?pglDrawRangeElements@@3P6GXIIIHIPBX@ZA DD 01H DUP (?)	; pglDrawRangeElements
?pglColor3ui@@3P6GXIII@ZA DD 01H DUP (?)		; pglColor3ui
?pglColor3uiv@@3P6GXPBI@ZA DD 01H DUP (?)		; pglColor3uiv
?pglDrawRangeElementsEXT@@3P6GXIIIHIPBX@ZA DD 01H DUP (?) ; pglDrawRangeElementsEXT
?pglColor3us@@3P6GXGGG@ZA DD 01H DUP (?)		; pglColor3us
?pglColor3usv@@3P6GXPBG@ZA DD 01H DUP (?)		; pglColor3usv
?pglDrawElements@@3P6GXIHIPBX@ZA DD 01H DUP (?)		; pglDrawElements
?pglColor4b@@3P6GXCCCC@ZA DD 01H DUP (?)		; pglColor4b
?pglColor4bv@@3P6GXPBC@ZA DD 01H DUP (?)		; pglColor4bv
?pglDrawElementsInstanced@@3P6GXIHIPBXH@ZA DD 01H DUP (?) ; pglDrawElementsInstanced
?pglColor4d@@3P6GXNNNN@ZA DD 01H DUP (?)		; pglColor4d
?pglVertexPointer@@3P6GXHIHPBX@ZA DD 01H DUP (?)	; pglVertexPointer
?pglColor4dv@@3P6GXPBN@ZA DD 01H DUP (?)		; pglColor4dv
?pglNormalPointer@@3P6GXIHPBX@ZA DD 01H DUP (?)		; pglNormalPointer
?pglColor4f@@3P6GXMMMM@ZA DD 01H DUP (?)		; pglColor4f
?pglColor4fv@@3P6GXPBM@ZA DD 01H DUP (?)		; pglColor4fv
?pglColorPointer@@3P6GXHIHPBX@ZA DD 01H DUP (?)		; pglColorPointer
?pglColor4i@@3P6GXHHHH@ZA DD 01H DUP (?)		; pglColor4i
?pglTexCoordPointer@@3P6GXHIHPBX@ZA DD 01H DUP (?)	; pglTexCoordPointer
?pglColor4iv@@3P6GXPBH@ZA DD 01H DUP (?)		; pglColor4iv
?pglArrayElement@@3P6GXH@ZA DD 01H DUP (?)		; pglArrayElement
?pglMultiTexCoord1f@@3P6GXIM@ZA DD 01H DUP (?)		; pglMultiTexCoord1f
?pglColor4s@@3P6GXFFFF@ZA DD 01H DUP (?)		; pglColor4s
?pglColor4sv@@3P6GXPBF@ZA DD 01H DUP (?)		; pglColor4sv
?pglMultiTexCoord2f@@3P6GXIMM@ZA DD 01H DUP (?)		; pglMultiTexCoord2f
?pglColor4ub@@3P6GXEEEE@ZA DD 01H DUP (?)		; pglColor4ub
?pglMultiTexCoord3f@@3P6GXIMMM@ZA DD 01H DUP (?)	; pglMultiTexCoord3f
?pglColor4ubv@@3P6GXPBE@ZA DD 01H DUP (?)		; pglColor4ubv
?pglMultiTexCoord4f@@3P6GXIMMMM@ZA DD 01H DUP (?)	; pglMultiTexCoord4f
?pglColor4ui@@3P6GXIIII@ZA DD 01H DUP (?)		; pglColor4ui
?pglColor4uiv@@3P6GXPBI@ZA DD 01H DUP (?)		; pglColor4uiv
?pglActiveTexture@@3P6GXI@ZA DD 01H DUP (?)		; pglActiveTexture
?pglClientActiveTexture@@3P6GXI@ZA DD 01H DUP (?)	; pglClientActiveTexture
?pglColor4us@@3P6GXGGGG@ZA DD 01H DUP (?)		; pglColor4us
?pglColor4usv@@3P6GXPBG@ZA DD 01H DUP (?)		; pglColor4usv
?pglCompressedTexImage3DARB@@3P6GXIHIHHHHHPBX@ZA DD 01H DUP (?) ; pglCompressedTexImage3DARB
?pglColorMask@@3P6GXEEEE@ZA DD 01H DUP (?)		; pglColorMask
?pglColorMaterial@@3P6GXII@ZA DD 01H DUP (?)		; pglColorMaterial
?pglCompressedTexImage2DARB@@3P6GXIHIHHHHPBX@ZA DD 01H DUP (?) ; pglCompressedTexImage2DARB
?pglCopyPixels@@3P6GXHHHHI@ZA DD 01H DUP (?)		; pglCopyPixels
?pglCompressedTexImage1DARB@@3P6GXIHIHHHPBX@ZA DD 01H DUP (?) ; pglCompressedTexImage1DARB
?pglCopyTexImage1D@@3P6GXIHIHHHH@ZA DD 01H DUP (?)	; pglCopyTexImage1D
?pglCopyTexImage2D@@3P6GXIHIHHHHH@ZA DD 01H DUP (?)	; pglCopyTexImage2D
?pglCompressedTexSubImage3DARB@@3P6GXIHHHHHHHIHPBX@ZA DD 01H DUP (?) ; pglCompressedTexSubImage3DARB
?pglCopyTexSubImage1D@@3P6GXIHHHHH@ZA DD 01H DUP (?)	; pglCopyTexSubImage1D
?pglCompressedTexSubImage2DARB@@3P6GXIHHHHHIHPBX@ZA DD 01H DUP (?) ; pglCompressedTexSubImage2DARB
?pglCopyTexSubImage2D@@3P6GXIHHHHHHH@ZA DD 01H DUP (?)	; pglCopyTexSubImage2D
?pglCullFace@@3P6GXI@ZA DD 01H DUP (?)			; pglCullFace
?pglCompressedTexSubImage1DARB@@3P6GXIHHHIHPBX@ZA DD 01H DUP (?) ; pglCompressedTexSubImage1DARB
?pglDeleteLists@@3P6GXIH@ZA DD 01H DUP (?)		; pglDeleteLists
?pglDeleteObjectARB@@3P6GXI@ZA DD 01H DUP (?)		; pglDeleteObjectARB
?pglDeleteTextures@@3P6GXHPBI@ZA DD 01H DUP (?)		; pglDeleteTextures
?pglGetHandleARB@@3P6GII@ZA DD 01H DUP (?)		; pglGetHandleARB
?pglDepthFunc@@3P6GXI@ZA DD 01H DUP (?)			; pglDepthFunc
?pglDepthMask@@3P6GXE@ZA DD 01H DUP (?)			; pglDepthMask
?pglDetachObjectARB@@3P6GXII@ZA DD 01H DUP (?)		; pglDetachObjectARB
?pglCreateShaderObjectARB@@3P6GII@ZA DD 01H DUP (?)	; pglCreateShaderObjectARB
?pglDepthRange@@3P6GXNN@ZA DD 01H DUP (?)		; pglDepthRange
?pglDisable@@3P6GXI@ZA DD 01H DUP (?)			; pglDisable
?pglShaderSourceARB@@3P6GXIHPAPBDPBH@ZA DD 01H DUP (?)	; pglShaderSourceARB
?pglDisableClientState@@3P6GXI@ZA DD 01H DUP (?)	; pglDisableClientState
?pglCompileShaderARB@@3P6GXI@ZA DD 01H DUP (?)		; pglCompileShaderARB
?pglCreateProgramObjectARB@@3P6GIXZA DD 01H DUP (?)	; pglCreateProgramObjectARB
?pglDrawArrays@@3P6GXIHH@ZA DD 01H DUP (?)		; pglDrawArrays
?pglDrawBuffer@@3P6GXI@ZA DD 01H DUP (?)		; pglDrawBuffer
?pglAttachObjectARB@@3P6GXII@ZA DD 01H DUP (?)		; pglAttachObjectARB
?pglLinkProgramARB@@3P6GXI@ZA DD 01H DUP (?)		; pglLinkProgramARB
?pglUseProgramObjectARB@@3P6GXI@ZA DD 01H DUP (?)	; pglUseProgramObjectARB
?pglDrawPixels@@3P6GXHHIIPBX@ZA DD 01H DUP (?)		; pglDrawPixels
?pglValidateProgramARB@@3P6GXI@ZA DD 01H DUP (?)	; pglValidateProgramARB
?pglEdgeFlag@@3P6GXE@ZA DD 01H DUP (?)			; pglEdgeFlag
?pglBindProgramARB@@3P6GXII@ZA DD 01H DUP (?)		; pglBindProgramARB
?pglEdgeFlagPointer@@3P6GXHPBX@ZA DD 01H DUP (?)	; pglEdgeFlagPointer
?pglDeleteProgramsARB@@3P6GXHPBI@ZA DD 01H DUP (?)	; pglDeleteProgramsARB
?pglEdgeFlagv@@3P6GXPBE@ZA DD 01H DUP (?)		; pglEdgeFlagv
?pglEnable@@3P6GXI@ZA DD 01H DUP (?)			; pglEnable
?pglGenProgramsARB@@3P6GXHPAI@ZA DD 01H DUP (?)		; pglGenProgramsARB
?pglEnableClientState@@3P6GXI@ZA DD 01H DUP (?)		; pglEnableClientState
?pglEnd@@3P6GXXZA DD 01H DUP (?)			; pglEnd
?pglProgramStringARB@@3P6GXIIHPBX@ZA DD 01H DUP (?)	; pglProgramStringARB
?pglEndList@@3P6GXXZA DD 01H DUP (?)			; pglEndList
?pglEvalCoord1d@@3P6GXN@ZA DD 01H DUP (?)		; pglEvalCoord1d
?pglEvalCoord1dv@@3P6GXPBN@ZA DD 01H DUP (?)		; pglEvalCoord1dv
?pglEvalCoord1f@@3P6GXM@ZA DD 01H DUP (?)		; pglEvalCoord1f
?pglProgramEnvParameter4fARB@@3P6GXIIMMMM@ZA DD 01H DUP (?) ; pglProgramEnvParameter4fARB
?pglEvalCoord1fv@@3P6GXPBM@ZA DD 01H DUP (?)		; pglEvalCoord1fv
?pglEvalCoord2d@@3P6GXNN@ZA DD 01H DUP (?)		; pglEvalCoord2d
?pglEvalCoord2dv@@3P6GXPBN@ZA DD 01H DUP (?)		; pglEvalCoord2dv
?pglProgramLocalParameter4fARB@@3P6GXIIMMMM@ZA DD 01H DUP (?) ; pglProgramLocalParameter4fARB
?pglEvalCoord2f@@3P6GXMM@ZA DD 01H DUP (?)		; pglEvalCoord2f
_BSS	ENDS
;	COMDAT ??_C@_0CB@FDKGLPFF@glAlphaToCoverageDitherControlNV@
CONST	SEGMENT
??_C@_0CB@FDKGLPFF@glAlphaToCoverageDitherControlNV@ DB 'glAlphaToCoverag'
	DB	'eDitherControlNV', 00H			; `string'
CONST	ENDS
;	COMDAT ??_C@_0BH@OOHKBDPD@glGetQueryObjectuivARB?$AA@
CONST	SEGMENT
??_C@_0BH@OOHKBDPD@glGetQueryObjectuivARB?$AA@ DB 'glGetQueryObjectuivARB'
	DB	00H						; `string'
CONST	ENDS
;	COMDAT ??_C@_0BG@EDFKPCGN@glGetQueryObjectivARB?$AA@
CONST	SEGMENT
??_C@_0BG@EDFKPCGN@glGetQueryObjectivARB?$AA@ DB 'glGetQueryObjectivARB', 00H ; `string'
CONST	ENDS
;	COMDAT ??_C@_0BA@DPEEILJC@glGetQueryivARB?$AA@
CONST	SEGMENT
??_C@_0BA@DPEEILJC@glGetQueryivARB?$AA@ DB 'glGetQueryivARB', 00H ; `string'
CONST	ENDS
;	COMDAT ??_C@_0O@EFJDHGFG@glEndQueryARB?$AA@
CONST	SEGMENT
??_C@_0O@EFJDHGFG@glEndQueryARB?$AA@ DB 'glEndQueryARB', 00H ; `string'
CONST	ENDS
;	COMDAT ??_C@_0BA@LPKBABEB@glBeginQueryARB?$AA@
CONST	SEGMENT
??_C@_0BA@LPKBABEB@glBeginQueryARB?$AA@ DB 'glBeginQueryARB', 00H ; `string'
CONST	ENDS
;	COMDAT ??_C@_0N@HKMIDCPF@glIsQueryARB?$AA@
CONST	SEGMENT
??_C@_0N@HKMIDCPF@glIsQueryARB?$AA@ DB 'glIsQueryARB', 00H ; `string'
CONST	ENDS
;	COMDAT ??_C@_0BD@HAEDHPKB@glDeleteQueriesARB?$AA@
CONST	SEGMENT
??_C@_0BD@HAEDHPKB@glDeleteQueriesARB?$AA@ DB 'glDeleteQueriesARB', 00H ; `string'
CONST	ENDS
;	COMDAT ??_C@_0BA@BJHFNMK@glGenQueriesARB?$AA@
CONST	SEGMENT
??_C@_0BA@BJHFNMK@glGenQueriesARB?$AA@ DB 'glGenQueriesARB', 00H ; `string'
CONST	ENDS
;	COMDAT ??_C@_0BB@BHNIMGDM@glGenerateMipmap?$AA@
CONST	SEGMENT
??_C@_0BB@BHNIMGDM@glGenerateMipmap?$AA@ DB 'glGenerateMipmap', 00H ; `string'
CONST	ENDS
;	COMDAT ??_C@_0CG@KLDGJEON@glGetFramebufferAttachmentParame@
CONST	SEGMENT
??_C@_0CG@KLDGJEON@glGetFramebufferAttachmentParame@ DB 'glGetFramebuffer'
	DB	'AttachmentParameteriv', 00H			; `string'
CONST	ENDS
;	COMDAT ??_C@_0BK@OJDINAOA@glFramebufferRenderbuffer?$AA@
CONST	SEGMENT
??_C@_0BK@OJDINAOA@glFramebufferRenderbuffer?$AA@ DB 'glFramebufferRender'
	DB	'buffer', 00H				; `string'
CONST	ENDS
;	COMDAT ??_C@_0BH@JDEHAJHC@glFramebufferTexture3D?$AA@
CONST	SEGMENT
??_C@_0BH@JDEHAJHC@glFramebufferTexture3D?$AA@ DB 'glFramebufferTexture3D'
	DB	00H						; `string'
CONST	ENDS
;	COMDAT ??_C@_0BH@JCIFGDEF@glFramebufferTexture2D?$AA@
CONST	SEGMENT
??_C@_0BH@JCIFGDEF@glFramebufferTexture2D?$AA@ DB 'glFramebufferTexture2D'
	DB	00H						; `string'
CONST	ENDS
;	COMDAT ??_C@_0BH@JAMDNNBM@glFramebufferTexture1D?$AA@
CONST	SEGMENT
??_C@_0BH@JAMDNNBM@glFramebufferTexture1D?$AA@ DB 'glFramebufferTexture1D'
	DB	00H						; `string'
CONST	ENDS
;	COMDAT ??_C@_0BJ@GIOLHEAD@glCheckFramebufferStatus?$AA@
CONST	SEGMENT
??_C@_0BJ@GIOLHEAD@glCheckFramebufferStatus?$AA@ DB 'glCheckFramebufferSt'
	DB	'atus', 00H					; `string'
CONST	ENDS
;	COMDAT ??_C@_0BC@FAPEBGID@glGenFramebuffers?$AA@
CONST	SEGMENT
??_C@_0BC@FAPEBGID@glGenFramebuffers?$AA@ DB 'glGenFramebuffers', 00H ; `string'
CONST	ENDS
;	COMDAT ??_C@_0BF@DJNJENP@glDeleteFramebuffers?$AA@
CONST	SEGMENT
??_C@_0BF@DJNJENP@glDeleteFramebuffers?$AA@ DB 'glDeleteFramebuffers', 00H ; `string'
CONST	ENDS
;	COMDAT ??_C@_0BC@CJMIBNO@glBindFramebuffer?$AA@
CONST	SEGMENT
??_C@_0BC@CJMIBNO@glBindFramebuffer?$AA@ DB 'glBindFramebuffer', 00H ; `string'
CONST	ENDS
;	COMDAT ??_C@_0BA@FGBIJCNH@glIsFramebuffer?$AA@
CONST	SEGMENT
??_C@_0BA@FGBIJCNH@glIsFramebuffer?$AA@ DB 'glIsFramebuffer', 00H ; `string'
CONST	ENDS
;	COMDAT ??_C@_0BN@FGKAECKO@glGetRenderbufferParameteriv?$AA@
CONST	SEGMENT
??_C@_0BN@FGKAECKO@glGetRenderbufferParameteriv?$AA@ DB 'glGetRenderbuffe'
	DB	'rParameteriv', 00H				; `string'
CONST	ENDS
;	COMDAT ??_C@_0BG@EOIILGMJ@glRenderbufferStorage?$AA@
CONST	SEGMENT
??_C@_0BG@EOIILGMJ@glRenderbufferStorage?$AA@ DB 'glRenderbufferStorage', 00H ; `string'
CONST	ENDS
;	COMDAT ??_C@_0BD@MIGEDNGJ@glGenRenderbuffers?$AA@
CONST	SEGMENT
??_C@_0BD@MIGEDNGJ@glGenRenderbuffers?$AA@ DB 'glGenRenderbuffers', 00H ; `string'
CONST	ENDS
;	COMDAT ??_C@_0BG@KKOKEJDE@glDeleteRenderbuffers?$AA@
CONST	SEGMENT
??_C@_0BG@KKOKEJDE@glDeleteRenderbuffers?$AA@ DB 'glDeleteRenderbuffers', 00H ; `string'
CONST	ENDS
;	COMDAT ??_C@_0BD@EPOPJGFA@glBindRenderbuffer?$AA@
CONST	SEGMENT
??_C@_0BD@EPOPJGFA@glBindRenderbuffer?$AA@ DB 'glBindRenderbuffer', 00H ; `string'
CONST	ENDS
;	COMDAT ??_C@_0BB@DGGHKKOH@glIsRenderbuffer?$AA@
CONST	SEGMENT
??_C@_0BB@DGGHKKOH@glIsRenderbuffer?$AA@ DB 'glIsRenderbuffer', 00H ; `string'
CONST	ENDS
;	COMDAT ??_C@_0BA@ODJEGGAE@glIsVertexArray?$AA@
CONST	SEGMENT
??_C@_0BA@ODJEGGAE@glIsVertexArray?$AA@ DB 'glIsVertexArray', 00H ; `string'
CONST	ENDS
;	COMDAT ??_C@_0BC@EPJLBJBJ@glGenVertexArrays?$AA@
CONST	SEGMENT
??_C@_0BC@EPJLBJBJ@glGenVertexArrays?$AA@ DB 'glGenVertexArrays', 00H ; `string'
CONST	ENDS
;	COMDAT ??_C@_0BF@BMPCJLEF@glDeleteVertexArrays?$AA@
CONST	SEGMENT
??_C@_0BF@BMPCJLEF@glDeleteVertexArrays?$AA@ DB 'glDeleteVertexArrays', 00H ; `string'
CONST	ENDS
;	COMDAT ??_C@_0BC@LHBAHFAN@glBindVertexArray?$AA@
CONST	SEGMENT
??_C@_0BC@LHBAHFAN@glBindVertexArray?$AA@ DB 'glBindVertexArray', 00H ; `string'
CONST	ENDS
;	COMDAT ??_C@_0BD@KFMFAAJP@glBufferSubDataARB?$AA@
CONST	SEGMENT
??_C@_0BD@KFMFAAJP@glBufferSubDataARB?$AA@ DB 'glBufferSubDataARB', 00H ; `string'
CONST	ENDS
;	COMDAT ??_C@_0BA@HLIGBCAN@glBufferDataARB?$AA@
CONST	SEGMENT
??_C@_0BA@HLIGBCAN@glBufferDataARB?$AA@ DB 'glBufferDataARB', 00H ; `string'
CONST	ENDS
;	COMDAT ??_C@_0BB@IODLHHEP@glUnmapBufferARB?$AA@
CONST	SEGMENT
??_C@_0BB@IODLHHEP@glUnmapBufferARB?$AA@ DB 'glUnmapBufferARB', 00H ; `string'
CONST	ENDS
;	COMDAT ??_C@_0P@GLCCGPAH@glMapBufferARB?$AA@
CONST	SEGMENT
??_C@_0P@GLCCGPAH@glMapBufferARB?$AA@ DB 'glMapBufferARB', 00H ; `string'
CONST	ENDS
;	COMDAT ??_C@_0O@BCHKDNEE@glIsBufferARB?$AA@
CONST	SEGMENT
??_C@_0O@BCHKDNEE@glIsBufferARB?$AA@ DB 'glIsBufferARB', 00H ; `string'
CONST	ENDS
;	COMDAT ??_C@_0BA@COIMKEED@glGenBuffersARB?$AA@
CONST	SEGMENT
??_C@_0BA@COIMKEED@glGenBuffersARB?$AA@ DB 'glGenBuffersARB', 00H ; `string'
CONST	ENDS
;	COMDAT ??_C@_0BD@FPFIIGCI@glDeleteBuffersARB?$AA@
CONST	SEGMENT
??_C@_0BD@FPFIIGCI@glDeleteBuffersARB?$AA@ DB 'glDeleteBuffersARB', 00H ; `string'
CONST	ENDS
;	COMDAT ??_C@_0BA@FDIFNALK@glBindBufferARB?$AA@
CONST	SEGMENT
??_C@_0BA@FDIFNALK@glBindBufferARB?$AA@ DB 'glBindBufferARB', 00H ; `string'
CONST	ENDS
;	COMDAT ??_C@_0BB@MMBGFNJL@glVertexAttrib4f?$AA@
CONST	SEGMENT
??_C@_0BB@MMBGFNJL@glVertexAttrib4f?$AA@ DB 'glVertexAttrib4f', 00H ; `string'
CONST	ENDS
;	COMDAT ??_C@_0BH@BINIAJMB@glGetAttribLocationARB?$AA@
CONST	SEGMENT
??_C@_0BH@BINIAJMB@glGetAttribLocationARB?$AA@ DB 'glGetAttribLocationARB'
	DB	00H						; `string'
CONST	ENDS
;	COMDAT ??_C@_0BF@NFLELGHN@glGetActiveAttribARB?$AA@
CONST	SEGMENT
??_C@_0BF@NFLELGHN@glGetActiveAttribARB?$AA@ DB 'glGetActiveAttribARB', 00H ; `string'
CONST	ENDS
;	COMDAT ??_C@_0BI@HAONMJFP@glBindAttribLocationARB?$AA@
CONST	SEGMENT
??_C@_0BI@HAONMJFP@glBindAttribLocationARB?$AA@ DB 'glBindAttribLocationA'
	DB	'RB', 00H					; `string'
CONST	ENDS
;	COMDAT ??_C@_0BO@HGKLJN@glDisableVertexAttribArrayARB?$AA@
CONST	SEGMENT
??_C@_0BO@HGKLJN@glDisableVertexAttribArrayARB?$AA@ DB 'glDisableVertexAt'
	DB	'tribArrayARB', 00H				; `string'
CONST	ENDS
;	COMDAT ??_C@_0BN@FKABDPBF@glEnableVertexAttribArrayARB?$AA@
CONST	SEGMENT
??_C@_0BN@FKABDPBF@glEnableVertexAttribArrayARB?$AA@ DB 'glEnableVertexAt'
	DB	'tribArrayARB', 00H				; `string'
CONST	ENDS
;	COMDAT ??_C@_0BJ@KNOILOPF@glVertexAttribPointerARB?$AA@
CONST	SEGMENT
??_C@_0BJ@KNOILOPF@glVertexAttribPointerARB?$AA@ DB 'glVertexAttribPointe'
	DB	'rARB', 00H					; `string'
CONST	ENDS
;	COMDAT ??_C@_0BF@OBGOKFNE@glGetShaderSourceARB?$AA@
CONST	SEGMENT
??_C@_0BF@OBGOKFNE@glGetShaderSourceARB?$AA@ DB 'glGetShaderSourceARB', 00H ; `string'
CONST	ENDS
;	COMDAT ??_C@_0BC@FLNPLFNP@glGetUniformivARB?$AA@
CONST	SEGMENT
??_C@_0BC@FLNPLFNP@glGetUniformivARB?$AA@ DB 'glGetUniformivARB', 00H ; `string'
CONST	ENDS
;	COMDAT ??_C@_0BC@KKIJAHAK@glGetUniformfvARB?$AA@
CONST	SEGMENT
??_C@_0BC@KKIJAHAK@glGetUniformfvARB?$AA@ DB 'glGetUniformfvARB', 00H ; `string'
CONST	ENDS
;	COMDAT ??_C@_0BG@FNEOAGIK@glGetActiveUniformARB?$AA@
CONST	SEGMENT
??_C@_0BG@FNEOAGIK@glGetActiveUniformARB?$AA@ DB 'glGetActiveUniformARB', 00H ; `string'
CONST	ENDS
;	COMDAT ??_C@_0BI@CAFPPHDC@glGetUniformLocationARB?$AA@
CONST	SEGMENT
??_C@_0BI@CAFPPHDC@glGetUniformLocationARB?$AA@ DB 'glGetUniformLocationA'
	DB	'RB', 00H					; `string'
CONST	ENDS
;	COMDAT ??_C@_0BI@KFAABOIL@glGetAttachedObjectsARB?$AA@
CONST	SEGMENT
??_C@_0BI@KFAABOIL@glGetAttachedObjectsARB?$AA@ DB 'glGetAttachedObjectsA'
	DB	'RB', 00H					; `string'
CONST	ENDS
;	COMDAT ??_C@_0BA@FLIOBLOG@glGetInfoLogARB?$AA@
CONST	SEGMENT
??_C@_0BA@FLIOBLOG@glGetInfoLogARB?$AA@ DB 'glGetInfoLogARB', 00H ; `string'
CONST	ENDS
;	COMDAT ??_C@_0BK@IDAIKMOL@glGetObjectParameterivARB?$AA@
CONST	SEGMENT
??_C@_0BK@IDAIKMOL@glGetObjectParameterivARB?$AA@ DB 'glGetObjectParamete'
	DB	'rivARB', 00H				; `string'
CONST	ENDS
;	COMDAT ??_C@_0BK@HCFOBODO@glGetObjectParameterfvARB?$AA@
CONST	SEGMENT
??_C@_0BK@HCFOBODO@glGetObjectParameterfvARB?$AA@ DB 'glGetObjectParamete'
	DB	'rfvARB', 00H				; `string'
CONST	ENDS
;	COMDAT ??_C@_0BG@MMFODFKE@glUniformMatrix4fvARB?$AA@
CONST	SEGMENT
??_C@_0BG@MMFODFKE@glUniformMatrix4fvARB?$AA@ DB 'glUniformMatrix4fvARB', 00H ; `string'
CONST	ENDS
;	COMDAT ??_C@_0BG@JPJALCK@glUniformMatrix3fvARB?$AA@
CONST	SEGMENT
??_C@_0BG@JPJALCK@glUniformMatrix3fvARB?$AA@ DB 'glUniformMatrix3fvARB', 00H ; `string'
CONST	ENDS
;	COMDAT ??_C@_0BG@KPIOAAJO@glUniformMatrix2fvARB?$AA@
CONST	SEGMENT
??_C@_0BG@KPIOAAJO@glUniformMatrix2fvARB?$AA@ DB 'glUniformMatrix2fvARB', 00H ; `string'
CONST	ENDS
;	COMDAT ??_C@_0BA@LENNHHNK@glUniform4ivARB?$AA@
CONST	SEGMENT
??_C@_0BA@LENNHHNK@glUniform4ivARB?$AA@ DB 'glUniform4ivARB', 00H ; `string'
CONST	ENDS
;	COMDAT ??_C@_0BA@HBHKEJFE@glUniform3ivARB?$AA@
CONST	SEGMENT
??_C@_0BA@HBHKEJFE@glUniform3ivARB?$AA@ DB 'glUniform3ivARB', 00H ; `string'
CONST	ENDS
;	COMDAT ??_C@_0BA@NHANECOA@glUniform2ivARB?$AA@
CONST	SEGMENT
??_C@_0BA@NHANECOA@glUniform2ivARB?$AA@ DB 'glUniform2ivARB', 00H ; `string'
CONST	ENDS
;	COMDAT ??_C@_0BA@OGOFFIHN@glUniform1ivARB?$AA@
CONST	SEGMENT
??_C@_0BA@OGOFFIHN@glUniform1ivARB?$AA@ DB 'glUniform1ivARB', 00H ; `string'
CONST	ENDS
;	COMDAT ??_C@_0BA@EFILMFAP@glUniform4fvARB?$AA@
CONST	SEGMENT
??_C@_0BA@EFILMFAP@glUniform4fvARB?$AA@ DB 'glUniform4fvARB', 00H ; `string'
CONST	ENDS
;	COMDAT ??_C@_0BA@IACMPLIB@glUniform3fvARB?$AA@
CONST	SEGMENT
??_C@_0BA@IACMPLIB@glUniform3fvARB?$AA@ DB 'glUniform3fvARB', 00H ; `string'
CONST	ENDS
;	COMDAT ??_C@_0BA@CGFLPADF@glUniform2fvARB?$AA@
CONST	SEGMENT
??_C@_0BA@CGFLPADF@glUniform2fvARB?$AA@ DB 'glUniform2fvARB', 00H ; `string'
CONST	ENDS
;	COMDAT ??_C@_0BA@BHLDOKKI@glUniform1fvARB?$AA@
CONST	SEGMENT
??_C@_0BA@BHLDOKKI@glUniform1fvARB?$AA@ DB 'glUniform1fvARB', 00H ; `string'
CONST	ENDS
;	COMDAT ??_C@_0P@HHEFACCA@glUniform4iARB?$AA@
CONST	SEGMENT
??_C@_0P@HHEFACCA@glUniform4iARB?$AA@ DB 'glUniform4iARB', 00H ; `string'
CONST	ENDS
;	COMDAT ??_C@_0P@GKEADCJI@glUniform3iARB?$AA@
CONST	SEGMENT
??_C@_0P@GKEADCJI@glUniform3iARB?$AA@ DB 'glUniform3iARB', 00H ; `string'
CONST	ENDS
;	COMDAT ??_C@_0P@KBBMOBDN@glUniform2iARB?$AA@
CONST	SEGMENT
??_C@_0P@KBBMOBDN@glUniform2iARB?$AA@ DB 'glUniform2iARB', 00H ; `string'
CONST	ENDS
;	COMDAT ??_C@_0P@CHIIJDJD@glUniform1iARB?$AA@
CONST	SEGMENT
??_C@_0P@CHIIJDJD@glUniform1iARB?$AA@ DB 'glUniform1iARB', 00H ; `string'
CONST	ENDS
;	COMDAT ??_C@_0P@PFBFJFPB@glUniform4fARB?$AA@
CONST	SEGMENT
??_C@_0P@PFBFJFPB@glUniform4fARB?$AA@ DB 'glUniform4fARB', 00H ; `string'
CONST	ENDS
;	COMDAT ??_C@_0P@OIBAKFEJ@glUniform3fARB?$AA@
CONST	SEGMENT
??_C@_0P@OIBAKFEJ@glUniform3fARB?$AA@ DB 'glUniform3fARB', 00H ; `string'
CONST	ENDS
;	COMDAT ??_C@_0P@CDEMHGOM@glUniform2fARB?$AA@
CONST	SEGMENT
??_C@_0P@CDEMHGOM@glUniform2fARB?$AA@ DB 'glUniform2fARB', 00H ; `string'
CONST	ENDS
;	COMDAT ??_C@_0P@KFNIAEEC@glUniform1fARB?$AA@
CONST	SEGMENT
??_C@_0P@KFNIAEEC@glUniform1fARB?$AA@ DB 'glUniform1fARB', 00H ; `string'
CONST	ENDS
;	COMDAT ??_C@_0BF@BGDHGNPG@glValidateProgramARB?$AA@
CONST	SEGMENT
??_C@_0BF@BGDHGNPG@glValidateProgramARB?$AA@ DB 'glValidateProgramARB', 00H ; `string'
CONST	ENDS
;	COMDAT ??_C@_0BG@JEOFPDIM@glUseProgramObjectARB?$AA@
CONST	SEGMENT
??_C@_0BG@JEOFPDIM@glUseProgramObjectARB?$AA@ DB 'glUseProgramObjectARB', 00H ; `string'
CONST	ENDS
;	COMDAT ??_C@_0BB@HPIAOOAG@glLinkProgramARB?$AA@
CONST	SEGMENT
??_C@_0BB@HPIAOOAG@glLinkProgramARB?$AA@ DB 'glLinkProgramARB', 00H ; `string'
CONST	ENDS
;	COMDAT ??_C@_0BC@GINLBKLJ@glAttachObjectARB?$AA@
CONST	SEGMENT
??_C@_0BC@GINLBKLJ@glAttachObjectARB?$AA@ DB 'glAttachObjectARB', 00H ; `string'
CONST	ENDS
;	COMDAT ??_C@_0BJ@KGMBEPBI@glCreateProgramObjectARB?$AA@
CONST	SEGMENT
??_C@_0BJ@KGMBEPBI@glCreateProgramObjectARB?$AA@ DB 'glCreateProgramObjec'
	DB	'tARB', 00H					; `string'
CONST	ENDS
;	COMDAT ??_C@_0BD@BEDGBOPM@glCompileShaderARB?$AA@
CONST	SEGMENT
??_C@_0BD@BEDGBOPM@glCompileShaderARB?$AA@ DB 'glCompileShaderARB', 00H ; `string'
CONST	ENDS
;	COMDAT ??_C@_0BC@MCCOFGJG@glShaderSourceARB?$AA@
CONST	SEGMENT
??_C@_0BC@MCCOFGJG@glShaderSourceARB?$AA@ DB 'glShaderSourceARB', 00H ; `string'
CONST	ENDS
;	COMDAT ??_C@_0BI@FMNPOEGE@glCreateShaderObjectARB?$AA@
CONST	SEGMENT
??_C@_0BI@FMNPOEGE@glCreateShaderObjectARB?$AA@ DB 'glCreateShaderObjectA'
	DB	'RB', 00H					; `string'
CONST	ENDS
;	COMDAT ??_C@_0BC@OPBLIDAI@glDetachObjectARB?$AA@
CONST	SEGMENT
??_C@_0BC@OPBLIDAI@glDetachObjectARB?$AA@ DB 'glDetachObjectARB', 00H ; `string'
CONST	ENDS
;	COMDAT ??_C@_0P@LFBJNCKO@glGetHandleARB?$AA@
CONST	SEGMENT
??_C@_0P@LFBJNCKO@glGetHandleARB?$AA@ DB 'glGetHandleARB', 00H ; `string'
CONST	ENDS
;	COMDAT ??_C@_0BC@MJFNICLA@glDeleteObjectARB?$AA@
CONST	SEGMENT
??_C@_0BC@MJFNICLA@glDeleteObjectARB?$AA@ DB 'glDeleteObjectARB', 00H ; `string'
CONST	ENDS
;	COMDAT ??_C@_0BD@CFOJJHII@glBlendEquationEXT?$AA@
CONST	SEGMENT
??_C@_0BD@CFOJJHII@glBlendEquationEXT?$AA@ DB 'glBlendEquationEXT', 00H ; `string'
CONST	ENDS
;	COMDAT ??_C@_0BH@GFPLHCKF@glBlendFuncSeparateEXT?$AA@
CONST	SEGMENT
??_C@_0BH@GFPLHCKF@glBlendFuncSeparateEXT?$AA@ DB 'glBlendFuncSeparateEXT'
	DB	00H						; `string'
CONST	ENDS
;	COMDAT ??_C@_0BH@LLLKENMO@glCopyTexSubImage3DEXT?$AA@
CONST	SEGMENT
??_C@_0BH@LLLKENMO@glCopyTexSubImage3DEXT?$AA@ DB 'glCopyTexSubImage3DEXT'
	DB	00H						; `string'
CONST	ENDS
;	COMDAT ??_C@_0BD@IKPGOLHH@glTexSubImage3DEXT?$AA@
CONST	SEGMENT
??_C@_0BD@IKPGOLHH@glTexSubImage3DEXT?$AA@ DB 'glTexSubImage3DEXT', 00H ; `string'
CONST	ENDS
;	COMDAT ??_C@_0BA@CBIBMEOO@glTexImage3DEXT?$AA@
CONST	SEGMENT
??_C@_0BA@CBIBMEOO@glTexImage3DEXT?$AA@ DB 'glTexImage3DEXT', 00H ; `string'
CONST	ENDS
;	COMDAT ??_C@_0BJ@PBJNGLJH@glClientActiveTextureARB?$AA@
CONST	SEGMENT
??_C@_0BJ@PBJNGLJH@glClientActiveTextureARB?$AA@ DB 'glClientActiveTextur'
	DB	'eARB', 00H					; `string'
CONST	ENDS
;	COMDAT ??_C@_0BD@IKCKKKNH@glActiveTextureARB?$AA@
CONST	SEGMENT
??_C@_0BD@IKCKKKNH@glActiveTextureARB?$AA@ DB 'glActiveTextureARB', 00H ; `string'
CONST	ENDS
;	COMDAT ??_C@_0BF@LDDLGHON@glMultiTexCoord4fARB?$AA@
CONST	SEGMENT
??_C@_0BF@LDDLGHON@glMultiTexCoord4fARB?$AA@ DB 'glMultiTexCoord4fARB', 00H ; `string'
CONST	ENDS
;	COMDAT ??_C@_0BF@KODOFHFF@glMultiTexCoord3fARB?$AA@
CONST	SEGMENT
??_C@_0BF@KODOFHFF@glMultiTexCoord3fARB?$AA@ DB 'glMultiTexCoord3fARB', 00H ; `string'
CONST	ENDS
;	COMDAT ??_C@_0BF@GFGCIEPA@glMultiTexCoord2fARB?$AA@
CONST	SEGMENT
??_C@_0BF@GFGCIEPA@glMultiTexCoord2fARB?$AA@ DB 'glMultiTexCoord2fARB', 00H ; `string'
CONST	ENDS
;	COMDAT ??_C@_0BF@ODPGPGFO@glMultiTexCoord1fARB?$AA@
CONST	SEGMENT
??_C@_0BF@ODPGPGFO@glMultiTexCoord1fARB?$AA@ DB 'glMultiTexCoord1fARB', 00H ; `string'
CONST	ENDS
;	COMDAT ??_C@_0BI@JOLPFNOB@glGetDebugMessageLogARB?$AA@
CONST	SEGMENT
??_C@_0BI@JOLPFNOB@glGetDebugMessageLogARB?$AA@ DB 'glGetDebugMessageLogA'
	DB	'RB', 00H					; `string'
CONST	ENDS
;	COMDAT ??_C@_0BK@IEHNBEGE@glDebugMessageCallbackARB?$AA@
CONST	SEGMENT
??_C@_0BK@IEHNBEGE@glDebugMessageCallbackARB?$AA@ DB 'glDebugMessageCallb'
	DB	'ackARB', 00H				; `string'
CONST	ENDS
;	COMDAT ??_C@_0BI@IFLDELCL@glDebugMessageInsertARB?$AA@
CONST	SEGMENT
??_C@_0BI@IFLDELCL@glDebugMessageInsertARB?$AA@ DB 'glDebugMessageInsertA'
	DB	'RB', 00H					; `string'
CONST	ENDS
;	COMDAT ??_C@_0BJ@IAEPICEJ@glDebugMessageControlARB?$AA@
CONST	SEGMENT
??_C@_0BJ@IAEPICEJ@glDebugMessageControlARB?$AA@ DB 'glDebugMessageContro'
	DB	'lARB', 00H					; `string'
CONST	ENDS
;	COMDAT ??_C@_0BH@GFFILNEF@glDrawRangeElementsEXT?$AA@
CONST	SEGMENT
??_C@_0BH@GFFILNEF@glDrawRangeElementsEXT?$AA@ DB 'glDrawRangeElementsEXT'
	DB	00H						; `string'
CONST	ENDS
;	COMDAT ??_C@_0BD@PHPFILMB@glVertexAttrib4ubv?$AA@
CONST	SEGMENT
??_C@_0BD@PHPFILMB@glVertexAttrib4ubv?$AA@ DB 'glVertexAttrib4ubv', 00H ; `string'
CONST	ENDS
;	COMDAT ??_C@_0BC@BOHEICOB@glVertexAttrib4fv?$AA@
CONST	SEGMENT
??_C@_0BC@BOHEICOB@glVertexAttrib4fv?$AA@ DB 'glVertexAttrib4fv', 00H ; `string'
CONST	ENDS
;	COMDAT ??_C@_0BC@IDKDLKFI@glVertexAttrib3fv?$AA@
CONST	SEGMENT
??_C@_0BC@IDKDLKFI@glVertexAttrib3fv?$AA@ DB 'glVertexAttrib3fv', 00H ; `string'
CONST	ENDS
;	COMDAT ??_C@_0BC@DLBPNNDN@glVertexAttrib2fv?$AA@
CONST	SEGMENT
??_C@_0BC@DLBPNNDN@glVertexAttrib2fv?$AA@ DB 'glVertexAttrib2fv', 00H ; `string'
CONST	ENDS
;	COMDAT ??_C@_0BB@MIJLCBCJ@glVertexAttrib2f?$AA@
CONST	SEGMENT
??_C@_0BB@MIJLCBCJ@glVertexAttrib2f?$AA@ DB 'glVertexAttrib2f', 00H ; `string'
CONST	ENDS
;	COMDAT ??_C@_0N@JFEMPNIH@glUniform4iv?$AA@
CONST	SEGMENT
??_C@_0N@JFEMPNIH@glUniform4iv?$AA@ DB 'glUniform4iv', 00H ; `string'
CONST	ENDS
;	COMDAT ??_C@_0N@IJLMFDO@glUniform3iv?$AA@
CONST	SEGMENT
??_C@_0N@IJLMFDO@glUniform3iv?$AA@ DB 'glUniform3iv', 00H ; `string'
CONST	ENDS
;	COMDAT ??_C@_0N@LACHKCFL@glUniform2iv?$AA@
CONST	SEGMENT
??_C@_0N@LACHKCFL@glUniform2iv?$AA@ DB 'glUniform2iv', 00H ; `string'
CONST	ENDS
;	COMDAT ??_C@_0N@KCJCANLF@glUniform1iv?$AA@
CONST	SEGMENT
??_C@_0N@KCJCANLF@glUniform1iv?$AA@ DB 'glUniform1iv', 00H ; `string'
CONST	ENDS
;	COMDAT ??_C@_0N@JOBALKLK@glUniform4fv?$AA@
CONST	SEGMENT
??_C@_0N@JOBALKLK@glUniform4fv?$AA@ DB 'glUniform4fv', 00H ; `string'
CONST	ENDS
;	COMDAT ??_C@_0N@DMHICAD@glUniform3fv?$AA@
CONST	SEGMENT
??_C@_0N@DMHICAD@glUniform3fv?$AA@ DB 'glUniform3fv', 00H ; `string'
CONST	ENDS
;	COMDAT ??_C@_0N@LLHLOFGG@glUniform2fv?$AA@
CONST	SEGMENT
??_C@_0N@LLHLOFGG@glUniform2fv?$AA@ DB 'glUniform2fv', 00H ; `string'
CONST	ENDS
;	COMDAT ??_C@_0N@KJMOEKII@glUniform1fv?$AA@
CONST	SEGMENT
??_C@_0N@KJMOEKII@glUniform1fv?$AA@ DB 'glUniform1fv', 00H ; `string'
CONST	ENDS
;	COMDAT ??_C@_0M@EKNBNBMB@glUniform4i?$AA@
CONST	SEGMENT
??_C@_0M@EKNBNBMB@glUniform4i?$AA@ DB 'glUniform4i', 00H ; `string'
CONST	ENDS
;	COMDAT ??_C@_0M@EPJOMHEE@glUniform3i?$AA@
CONST	SEGMENT
??_C@_0M@EPJOMHEE@glUniform3i?$AA@ DB 'glUniform3i', 00H ; `string'
CONST	ENDS
;	COMDAT ??_C@_0M@EOFMKNHD@glUniform2i?$AA@
CONST	SEGMENT
??_C@_0M@EOFMKNHD@glUniform2i?$AA@ DB 'glUniform2i', 00H ; `string'
CONST	ENDS
;	COMDAT ??_C@_0M@EMBKBDCK@glUniform1i?$AA@
CONST	SEGMENT
??_C@_0M@EMBKBDCK@glUniform1i?$AA@ DB 'glUniform1i', 00H ; `string'
CONST	ENDS
;	COMDAT ??_C@_0M@MNEJMNAO@glUniform4f?$AA@
CONST	SEGMENT
??_C@_0M@MNEJMNAO@glUniform4f?$AA@ DB 'glUniform4f', 00H ; `string'
CONST	ENDS
;	COMDAT ??_C@_0M@MIAGNLIL@glUniform3f?$AA@
CONST	SEGMENT
??_C@_0M@MIAGNLIL@glUniform3f?$AA@ DB 'glUniform3f', 00H ; `string'
CONST	ENDS
;	COMDAT ??_C@_0M@MJMELBLM@glUniform2f?$AA@
CONST	SEGMENT
??_C@_0M@MJMELBLM@glUniform2f?$AA@ DB 'glUniform2f', 00H ; `string'
CONST	ENDS
;	COMDAT ??_C@_0M@MLICAPOF@glUniform1f?$AA@
CONST	SEGMENT
??_C@_0M@MLICAPOF@glUniform1f?$AA@ DB 'glUniform1f', 00H ; `string'
CONST	ENDS
;	COMDAT ??_C@_0BD@LNHCBEKP@glUniformMatrix4fv?$AA@
CONST	SEGMENT
??_C@_0BD@LNHCBEKP@glUniformMatrix4fv?$AA@ DB 'glUniformMatrix4fv', 00H ; `string'
CONST	ENDS
;	COMDAT ??_C@_0BD@CAKFCMBG@glUniformMatrix3fv?$AA@
CONST	SEGMENT
??_C@_0BD@CAKFCMBG@glUniformMatrix3fv?$AA@ DB 'glUniformMatrix3fv', 00H ; `string'
CONST	ENDS
;	COMDAT ??_C@_0BD@JIBJELHD@glUniformMatrix2fv?$AA@
CONST	SEGMENT
??_C@_0BD@JIBJELHD@glUniformMatrix2fv?$AA@ DB 'glUniformMatrix2fv', 00H ; `string'
CONST	ENDS
;	COMDAT ??_C@_0BA@KOBBIKOF@glActiveTexture?$AA@
CONST	SEGMENT
??_C@_0BA@KOBBIKOF@glActiveTexture?$AA@ DB 'glActiveTexture', 00H ; `string'
CONST	ENDS
;	COMDAT ??_C@_0BC@LDICFFJG@glMultiTexCoord4f?$AA@
CONST	SEGMENT
??_C@_0BC@LDICFFJG@glMultiTexCoord4f?$AA@ DB 'glMultiTexCoord4f', 00H ; `string'
CONST	ENDS
;	COMDAT ??_C@_0BC@LGMNEDBD@glMultiTexCoord3f?$AA@
CONST	SEGMENT
??_C@_0BC@LGMNEDBD@glMultiTexCoord3f?$AA@ DB 'glMultiTexCoord3f', 00H ; `string'
CONST	ENDS
;	COMDAT ??_C@_0BC@LHAPCJCE@glMultiTexCoord2f?$AA@
CONST	SEGMENT
??_C@_0BC@LHAPCJCE@glMultiTexCoord2f?$AA@ DB 'glMultiTexCoord2f', 00H ; `string'
CONST	ENDS
;	COMDAT ??_C@_0BC@LFEJJHHN@glMultiTexCoord1f?$AA@
CONST	SEGMENT
??_C@_0BC@LFEJJHHN@glMultiTexCoord1f?$AA@ DB 'glMultiTexCoord1f', 00H ; `string'
CONST	ENDS
;	COMDAT ??_C@_0O@COHJKDBH@glDrawBuffers?$AA@
CONST	SEGMENT
??_C@_0O@COHJKDBH@glDrawBuffers?$AA@ DB 'glDrawBuffers', 00H ; `string'
CONST	ENDS
;	COMDAT ??_C@_0BE@IHNAGJGJ@glDrawRangeElements?$AA@
CONST	SEGMENT
??_C@_0BE@IHNAGJGJ@glDrawRangeElements?$AA@ DB 'glDrawRangeElements', 00H ; `string'
CONST	ENDS
;	COMDAT ??_C@_0BE@BEPGJDMM@glGetAttribLocation?$AA@
CONST	SEGMENT
??_C@_0BE@BEPGJDMM@glGetAttribLocation?$AA@ DB 'glGetAttribLocation', 00H ; `string'
CONST	ENDS
;	COMDAT ??_C@_0BC@MBALAOHF@glGetActiveAttrib?$AA@
CONST	SEGMENT
??_C@_0BC@MBALAOHF@glGetActiveAttrib?$AA@ DB 'glGetActiveAttrib', 00H ; `string'
CONST	ENDS
;	COMDAT ??_C@_0BF@MHKEFIHM@glBindAttribLocation?$AA@
CONST	SEGMENT
??_C@_0BF@MHKEFIHM@glBindAttribLocation?$AA@ DB 'glBindAttribLocation', 00H ; `string'
CONST	ENDS
;	COMDAT ??_C@_0BL@NKHLOFFF@glDisableVertexAttribArray?$AA@
CONST	SEGMENT
??_C@_0BL@NKHLOFFF@glDisableVertexAttribArray?$AA@ DB 'glDisableVertexAtt'
	DB	'ribArray', 00H				; `string'
CONST	ENDS
;	COMDAT ??_C@_0BK@EHBAHNHE@glEnableVertexAttribArray?$AA@
CONST	SEGMENT
??_C@_0BK@EHBAHNHE@glEnableVertexAttribArray?$AA@ DB 'glEnableVertexAttri'
	DB	'bArray', 00H				; `string'
CONST	ENDS
;	COMDAT ??_C@_0BG@JPNNNPKG@glVertexAttribPointer?$AA@
CONST	SEGMENT
??_C@_0BG@JPNNNPKG@glVertexAttribPointer?$AA@ DB 'glVertexAttribPointer', 00H ; `string'
CONST	ENDS
;	COMDAT ??_C@_0BA@PFHILPAN@glBlendEquation?$AA@
CONST	SEGMENT
??_C@_0BA@PFHILPAN@glBlendEquation?$AA@ DB 'glBlendEquation', 00H ; `string'
CONST	ENDS
;	COMDAT ??_C@_0P@FMMDFLCO@glGetProgramiv?$AA@
CONST	SEGMENT
??_C@_0P@FMMDFLCO@glGetProgramiv?$AA@ DB 'glGetProgramiv', 00H ; `string'
CONST	ENDS
;	COMDAT ??_C@_0BF@KIOPGICP@glGetUniformLocation?$AA@
CONST	SEGMENT
??_C@_0BF@KIOPGICP@glGetUniformLocation?$AA@ DB 'glGetUniformLocation', 00H ; `string'
CONST	ENDS
;	COMDAT ??_C@_0BD@NIMHLLKN@glGetActiveUniform?$AA@
CONST	SEGMENT
??_C@_0BD@NIMHLLKN@glGetActiveUniform?$AA@ DB 'glGetActiveUniform', 00H ; `string'
CONST	ENDS
;	COMDAT ??_C@_0BE@DHGHAJFL@glGetProgramInfoLog?$AA@
CONST	SEGMENT
??_C@_0BE@DHGHAJFL@glGetProgramInfoLog?$AA@ DB 'glGetProgramInfoLog', 00H ; `string'
CONST	ENDS
;	COMDAT ??_C@_0BD@GIABBCMO@glGetShaderInfoLog?$AA@
CONST	SEGMENT
??_C@_0BD@GIABBCMO@glGetShaderInfoLog?$AA@ DB 'glGetShaderInfoLog', 00H ; `string'
CONST	ENDS
;	COMDAT ??_C@_0BA@NKGCDOPO@glDeleteProgram?$AA@
CONST	SEGMENT
??_C@_0BA@NKGCDOPO@glDeleteProgram?$AA@ DB 'glDeleteProgram', 00H ; `string'
CONST	ENDS
;	COMDAT ??_C@_0BA@FLKLHNKP@glCreateProgram?$AA@
CONST	SEGMENT
??_C@_0BA@FLKLHNKP@glCreateProgram?$AA@ DB 'glCreateProgram', 00H ; `string'
CONST	ENDS
;	COMDAT ??_C@_0BC@MAPGDLJK@glValidateProgram?$AA@
CONST	SEGMENT
??_C@_0BC@MAPGDLJK@glValidateProgram?$AA@ DB 'glValidateProgram', 00H ; `string'
CONST	ENDS
;	COMDAT ??_C@_0O@PIOEEBPO@glLinkProgram?$AA@
CONST	SEGMENT
??_C@_0O@PIOEEBPO@glLinkProgram?$AA@ DB 'glLinkProgram', 00H ; `string'
CONST	ENDS
;	COMDAT ??_C@_0N@ICBDHBI@glUseProgram?$AA@
CONST	SEGMENT
??_C@_0N@ICBDHBI@glUseProgram?$AA@ DB 'glUseProgram', 00H ; `string'
CONST	ENDS
;	COMDAT ??_C@_0P@HHCDONAG@glDeleteShader?$AA@
CONST	SEGMENT
??_C@_0P@HHCDONAG@glDeleteShader?$AA@ DB 'glDeleteShader', 00H ; `string'
CONST	ENDS
;	COMDAT ??_C@_0O@JBDFPDMG@glGetShaderiv?$AA@
CONST	SEGMENT
??_C@_0O@JBDFPDMG@glGetShaderiv?$AA@ DB 'glGetShaderiv', 00H ; `string'
CONST	ENDS
;	COMDAT ??_C@_0BC@ELEIFJEL@glGetShaderSource?$AA@
CONST	SEGMENT
??_C@_0BC@ELEIFJEL@glGetShaderSource?$AA@ DB 'glGetShaderSource', 00H ; `string'
CONST	ENDS
;	COMDAT ??_C@_0P@DFHCPFMO@glShaderSource?$AA@
CONST	SEGMENT
??_C@_0P@DFHCPFMO@glShaderSource?$AA@ DB 'glShaderSource', 00H ; `string'
CONST	ENDS
;	COMDAT ??_C@_0BA@DGIEGONF@glCompileShader?$AA@
CONST	SEGMENT
??_C@_0BA@DGIEGONF@glCompileShader?$AA@ DB 'glCompileShader', 00H ; `string'
CONST	ENDS
;	COMDAT ??_C@_0P@DJFJFCJL@glDetachShader?$AA@
CONST	SEGMENT
??_C@_0P@DJFJFCJL@glDetachShader?$AA@ DB 'glDetachShader', 00H ; `string'
CONST	ENDS
;	COMDAT ??_C@_0P@LDMLEABL@glAttachShader?$AA@
CONST	SEGMENT
??_C@_0P@LDMLEABL@glAttachShader?$AA@ DB 'glAttachShader', 00H ; `string'
CONST	ENDS
;	COMDAT ??_C@_0P@HGHBNC@glCreateShader?$AA@
CONST	SEGMENT
??_C@_0P@HGHBNC@glCreateShader?$AA@ DB 'glCreateShader', 00H ; `string'
CONST	ENDS
;	COMDAT ??_C@_0BE@PJFGNMAG@glCopyTexSubImage3D?$AA@
CONST	SEGMENT
??_C@_0BE@PJFGNMAG@glCopyTexSubImage3D?$AA@ DB 'glCopyTexSubImage3D', 00H ; `string'
CONST	ENDS
;	COMDAT ??_C@_0BA@NGGKPOPN@glTexSubImage3D?$AA@
CONST	SEGMENT
??_C@_0BA@NGGKPOPN@glTexSubImage3D?$AA@ DB 'glTexSubImage3D', 00H ; `string'
CONST	ENDS
;	COMDAT ??_C@_0N@JAEIBBBF@glTexImage3D?$AA@
CONST	SEGMENT
??_C@_0N@JAEIBBBF@glTexImage3D?$AA@ DB 'glTexImage3D', 00H ; `string'
CONST	ENDS
;	COMDAT ??_C@_06BOOFNKDM@glFogi?$AA@
CONST	SEGMENT
??_C@_06BOOFNKDM@glFogi?$AA@ DB 'glFogi', 00H		; `string'
CONST	ENDS
;	COMDAT ??_C@_06JJHNMGPD@glFogf?$AA@
CONST	SEGMENT
??_C@_06JJHNMGPD@glFogf?$AA@ DB 'glFogf', 00H		; `string'
CONST	ENDS
;	COMDAT ??_C@_07FNEIAABA@glFogfv?$AA@
CONST	SEGMENT
??_C@_07FNEIAABA@glFogfv?$AA@ DB 'glFogfv', 00H		; `string'
CONST	ENDS
;	COMDAT ??_C@_0BJ@GAMLGIFF@glGetTexLevelParameterfv?$AA@
CONST	SEGMENT
??_C@_0BJ@GAMLGIFF@glGetTexLevelParameterfv?$AA@ DB 'glGetTexLevelParamet'
	DB	'erfv', 00H					; `string'
CONST	ENDS
;	COMDAT ??_C@_0BJ@GLJHCPGI@glGetTexLevelParameteriv?$AA@
CONST	SEGMENT
??_C@_0BJ@GLJHCPGI@glGetTexLevelParameteriv?$AA@ DB 'glGetTexLevelParamet'
	DB	'eriv', 00H					; `string'
CONST	ENDS
;	COMDAT ??_C@_0N@NALMFHKN@glShadeModel?$AA@
CONST	SEGMENT
??_C@_0N@NALMFHKN@glShadeModel?$AA@ DB 'glShadeModel', 00H ; `string'
CONST	ENDS
;	COMDAT ??_C@_0P@MMMNLMC@glGetClipPlane?$AA@
CONST	SEGMENT
??_C@_0P@MMMNLMC@glGetClipPlane?$AA@ DB 'glGetClipPlane', 00H ; `string'
CONST	ENDS
;	COMDAT ??_C@_0M@OHCNGGFF@glClipPlane?$AA@
CONST	SEGMENT
??_C@_0M@OHCNGGFF@glClipPlane?$AA@ DB 'glClipPlane', 00H ; `string'
CONST	ENDS
;	COMDAT ??_C@_0BB@GIADEJGP@glPolygonStipple?$AA@
CONST	SEGMENT
??_C@_0BB@GIADEJGP@glPolygonStipple?$AA@ DB 'glPolygonStipple', 00H ; `string'
CONST	ENDS
;	COMDAT ??_C@_0O@DKMNBFMB@glPolygonMode?$AA@
CONST	SEGMENT
??_C@_0O@DKMNBFMB@glPolygonMode?$AA@ DB 'glPolygonMode', 00H ; `string'
CONST	ENDS
;	COMDAT ??_C@_0BA@FFBJGNC@glPolygonOffset?$AA@
CONST	SEGMENT
??_C@_0BA@FFBJGNC@glPolygonOffset?$AA@ DB 'glPolygonOffset', 00H ; `string'
CONST	ENDS
;	COMDAT ??_C@_0O@KIFFCCBG@glGetTexEnviv?$AA@
CONST	SEGMENT
??_C@_0O@KIFFCCBG@glGetTexEnviv?$AA@ DB 'glGetTexEnviv', 00H ; `string'
CONST	ENDS
;	COMDAT ??_C@_0O@DOIIJLAD@glGetTexImage?$AA@
CONST	SEGMENT
??_C@_0O@DOIIJLAD@glGetTexImage?$AA@ DB 'glGetTexImage', 00H ; `string'
CONST	ENDS
;	COMDAT ??_C@_09ECGPAEPL@glScissor?$AA@
CONST	SEGMENT
??_C@_09ECGPAEPL@glScissor?$AA@ DB 'glScissor', 00H	; `string'
CONST	ENDS
;	COMDAT ??_C@_0BE@PIJELGDB@glCopyTexSubImage2D?$AA@
CONST	SEGMENT
??_C@_0BE@PIJELGDB@glCopyTexSubImage2D?$AA@ DB 'glCopyTexSubImage2D', 00H ; `string'
CONST	ENDS
;	COMDAT ??_C@_0BE@PKNCAIGI@glCopyTexSubImage1D?$AA@
CONST	SEGMENT
??_C@_0BE@PKNCAIGI@glCopyTexSubImage1D?$AA@ DB 'glCopyTexSubImage1D', 00H ; `string'
CONST	ENDS
;	COMDAT ??_C@_0BB@MGAFKJKC@glCopyTexImage2D?$AA@
CONST	SEGMENT
??_C@_0BB@MGAFKJKC@glCopyTexImage2D?$AA@ DB 'glCopyTexImage2D', 00H ; `string'
CONST	ENDS
;	COMDAT ??_C@_0BB@MEEDBHPL@glCopyTexImage1D?$AA@
CONST	SEGMENT
??_C@_0BB@MEEDBHPL@glCopyTexImage1D?$AA@ DB 'glCopyTexImage1D', 00H ; `string'
CONST	ENDS
;	COMDAT ??_C@_0BA@NHKIJEMK@glTexSubImage2D?$AA@
CONST	SEGMENT
??_C@_0BA@NHKIJEMK@glTexSubImage2D?$AA@ DB 'glTexSubImage2D', 00H ; `string'
CONST	ENDS
;	COMDAT ??_C@_0BA@NFOOCKJD@glTexSubImage1D?$AA@
CONST	SEGMENT
??_C@_0BA@NFOOCKJD@glTexSubImage1D?$AA@ DB 'glTexSubImage1D', 00H ; `string'
CONST	ENDS
;	COMDAT ??_C@_0N@JBIKHLCC@glTexImage2D?$AA@
CONST	SEGMENT
??_C@_0N@JBIKHLCC@glTexImage2D?$AA@ DB 'glTexImage2D', 00H ; `string'
CONST	ENDS
;	COMDAT ??_C@_0N@JDMMMFHL@glTexImage1D?$AA@
CONST	SEGMENT
??_C@_0N@JDMMMFHL@glTexImage1D?$AA@ DB 'glTexImage1D', 00H ; `string'
CONST	ENDS
;	COMDAT ??_C@_0O@JKKCIBGC@glBindTexture?$AA@
CONST	SEGMENT
??_C@_0O@JKKCIBGC@glBindTexture?$AA@ DB 'glBindTexture', 00H ; `string'
CONST	ENDS
;	COMDAT ??_C@_0BB@KMPLFJIC@glDeleteTextures?$AA@
CONST	SEGMENT
??_C@_0BB@KMPLFJIC@glDeleteTextures?$AA@ DB 'glDeleteTextures', 00H ; `string'
CONST	ENDS
;	COMDAT ??_C@_0O@LLMANLNK@glGenTextures?$AA@
CONST	SEGMENT
??_C@_0O@LLMANLNK@glGenTextures?$AA@ DB 'glGenTextures', 00H ; `string'
CONST	ENDS
;	COMDAT ??_C@_0O@JCCIGLOF@glPixelStorei?$AA@
CONST	SEGMENT
??_C@_0O@JCCIGLOF@glPixelStorei?$AA@ DB 'glPixelStorei', 00H ; `string'
CONST	ENDS
;	COMDAT ??_C@_0O@BFLAHHCK@glPixelStoref?$AA@
CONST	SEGMENT
??_C@_0O@BFLAHHCK@glPixelStoref?$AA@ DB 'glPixelStoref', 00H ; `string'
CONST	ENDS
;	COMDAT ??_C@_06HEADGMBC@glHint?$AA@
CONST	SEGMENT
??_C@_06HEADGMBC@glHint?$AA@ DB 'glHint', 00H		; `string'
CONST	ENDS
;	COMDAT ??_C@_0BA@KDNJAKA@glTexParameteri?$AA@
CONST	SEGMENT
??_C@_0BA@KDNJAKA@glTexParameteri?$AA@ DB 'glTexParameteri', 00H ; `string'
CONST	ENDS
;	COMDAT ??_C@_0BB@KEOFAHDF@glTexParameterfv?$AA@
CONST	SEGMENT
??_C@_0BB@KEOFAHDF@glTexParameterfv?$AA@ DB 'glTexParameterfv', 00H ; `string'
CONST	ENDS
;	COMDAT ??_C@_0BA@INKFIMGP@glTexParameterf?$AA@
CONST	SEGMENT
??_C@_0BA@INKFIMGP@glTexParameterf?$AA@ DB 'glTexParameterf', 00H ; `string'
CONST	ENDS
;	COMDAT ??_C@_09NFCDHIOH@glTexEnvi?$AA@
CONST	SEGMENT
??_C@_09NFCDHIOH@glTexEnvi?$AA@ DB 'glTexEnvi', 00H	; `string'
CONST	ENDS
;	COMDAT ??_C@_0L@EMICMNOO@glTexEnvfv?$AA@
CONST	SEGMENT
??_C@_0L@EMICMNOO@glTexEnvfv?$AA@ DB 'glTexEnvfv', 00H	; `string'
CONST	ENDS
;	COMDAT ??_C@_09FCLLGECI@glTexEnvf?$AA@
CONST	SEGMENT
??_C@_09FCLLGECI@glTexEnvf?$AA@ DB 'glTexEnvf', 00H	; `string'
CONST	ENDS
;	COMDAT ??_C@_0M@NJHAEPDN@glIsTexture?$AA@
CONST	SEGMENT
??_C@_0M@NJHAEPDN@glIsTexture?$AA@ DB 'glIsTexture', 00H ; `string'
CONST	ENDS
;	COMDAT ??_C@_08DMFMJKDH@glIsList?$AA@
CONST	SEGMENT
??_C@_08DMFMJKDH@glIsList?$AA@ DB 'glIsList', 00H	; `string'
CONST	ENDS
;	COMDAT ??_C@_0M@INHMIHKC@glIsEnabled?$AA@
CONST	SEGMENT
??_C@_0M@INHMIHKC@glIsEnabled?$AA@ DB 'glIsEnabled', 00H ; `string'
CONST	ENDS
;	COMDAT ??_C@_0P@KBLPBBFP@glClearStencil?$AA@
CONST	SEGMENT
??_C@_0P@KBLPBBFP@glClearStencil?$AA@ DB 'glClearStencil', 00H ; `string'
CONST	ENDS
;	COMDAT ??_C@_0M@BILBNGF@glStencilOp?$AA@
CONST	SEGMENT
??_C@_0M@BILBNGF@glStencilOp?$AA@ DB 'glStencilOp', 00H	; `string'
CONST	ENDS
;	COMDAT ??_C@_0O@DJFHPFEP@glStencilMask?$AA@
CONST	SEGMENT
??_C@_0O@DJFHPFEP@glStencilMask?$AA@ DB 'glStencilMask', 00H ; `string'
CONST	ENDS
;	COMDAT ??_C@_0O@ENNLLOLN@glStencilFunc?$AA@
CONST	SEGMENT
??_C@_0O@ENNLLOLN@glStencilFunc?$AA@ DB 'glStencilFunc', 00H ; `string'
CONST	ENDS
;	COMDAT ??_C@_0N@FLFIHFDP@glDrawPixels?$AA@
CONST	SEGMENT
??_C@_0N@FLFIHFDP@glDrawPixels?$AA@ DB 'glDrawPixels', 00H ; `string'
CONST	ENDS
;	COMDAT ??_C@_0N@CKFNNHOO@glReadPixels?$AA@
CONST	SEGMENT
??_C@_0N@CKFNNHOO@glReadPixels?$AA@ DB 'glReadPixels', 00H ; `string'
CONST	ENDS
;	COMDAT ??_C@_0N@IFPDDBNE@glTranslatef?$AA@
CONST	SEGMENT
??_C@_0N@IFPDDBNE@glTranslatef?$AA@ DB 'glTranslatef', 00H ; `string'
CONST	ENDS
;	COMDAT ??_C@_0N@LHMFFDFG@glTranslated?$AA@
CONST	SEGMENT
??_C@_0N@LHMFFDFG@glTranslated?$AA@ DB 'glTranslated', 00H ; `string'
CONST	ENDS
;	COMDAT ??_C@_08JCPEOPLK@glScalef?$AA@
CONST	SEGMENT
??_C@_08JCPEOPLK@glScalef?$AA@ DB 'glScalef', 00H	; `string'
CONST	ENDS
;	COMDAT ??_C@_08KAMCINDI@glScaled?$AA@
CONST	SEGMENT
??_C@_08KAMCINDI@glScaled?$AA@ DB 'glScaled', 00H	; `string'
CONST	ENDS
;	COMDAT ??_C@_09FCODNBIM@glRotatef?$AA@
CONST	SEGMENT
??_C@_09FCODNBIM@glRotatef?$AA@ DB 'glRotatef', 00H	; `string'
CONST	ENDS
;	COMDAT ??_C@_09GANFLDAO@glRotated?$AA@
CONST	SEGMENT
??_C@_09GANFLDAO@glRotated?$AA@ DB 'glRotated', 00H	; `string'
CONST	ENDS
;	COMDAT ??_C@_0O@LHKDNPKJ@glMultMatrixf?$AA@
CONST	SEGMENT
??_C@_0O@LHKDNPKJ@glMultMatrixf?$AA@ DB 'glMultMatrixf', 00H ; `string'
CONST	ENDS
;	COMDAT ??_C@_0O@IFJFLNCL@glMultMatrixd?$AA@
CONST	SEGMENT
??_C@_0O@IFJFLNCL@glMultMatrixd?$AA@ DB 'glMultMatrixd', 00H ; `string'
CONST	ENDS
;	COMDAT ??_C@_0O@DJGBMGEI@glLoadMatrixf?$AA@
CONST	SEGMENT
??_C@_0O@DJGBMGEI@glLoadMatrixf?$AA@ DB 'glLoadMatrixf', 00H ; `string'
CONST	ENDS
;	COMDAT ??_C@_0O@LFHKEMK@glLoadMatrixd?$AA@
CONST	SEGMENT
??_C@_0O@LFHKEMK@glLoadMatrixd?$AA@ DB 'glLoadMatrixd', 00H ; `string'
CONST	ENDS
;	COMDAT ??_C@_0P@EJAFHEPO@glLoadIdentity?$AA@
CONST	SEGMENT
??_C@_0P@EJAFHEPO@glLoadIdentity?$AA@ DB 'glLoadIdentity', 00H ; `string'
CONST	ENDS
;	COMDAT ??_C@_0M@LLNGAHMN@glPopAttrib?$AA@
CONST	SEGMENT
??_C@_0M@LLNGAHMN@glPopAttrib?$AA@ DB 'glPopAttrib', 00H ; `string'
CONST	ENDS
;	COMDAT ??_C@_0N@KDMLHFJM@glPushAttrib?$AA@
CONST	SEGMENT
??_C@_0N@KDMLHFJM@glPushAttrib?$AA@ DB 'glPushAttrib', 00H ; `string'
CONST	ENDS
;	COMDAT ??_C@_0M@JPEAAEEK@glPopMatrix?$AA@
CONST	SEGMENT
??_C@_0M@JPEAAEEK@glPopMatrix?$AA@ DB 'glPopMatrix', 00H ; `string'
CONST	ENDS
;	COMDAT ??_C@_0N@IHFNHGBL@glPushMatrix?$AA@
CONST	SEGMENT
??_C@_0N@IHFNHGBL@glPushMatrix?$AA@ DB 'glPushMatrix', 00H ; `string'
CONST	ENDS
;	COMDAT ??_C@_0L@KBLIPDFH@glViewport?$AA@
CONST	SEGMENT
??_C@_0L@KBLIPDFH@glViewport?$AA@ DB 'glViewport', 00H	; `string'
CONST	ENDS
;	COMDAT ??_C@_09ICLFHOKP@glFrustum?$AA@
CONST	SEGMENT
??_C@_09ICLFHOKP@glFrustum?$AA@ DB 'glFrustum', 00H	; `string'
CONST	ENDS
;	COMDAT ??_C@_0O@DLOEJEEG@glRasterPos2f?$AA@
CONST	SEGMENT
??_C@_0O@DLOEJEEG@glRasterPos2f?$AA@ DB 'glRasterPos2f', 00H ; `string'
CONST	ENDS
;	COMDAT ??_C@_07DBAFHOII@glOrtho?$AA@
CONST	SEGMENT
??_C@_07DBAFHOII@glOrtho?$AA@ DB 'glOrtho', 00H		; `string'
CONST	ENDS
;	COMDAT ??_C@_0N@KDLNHKEJ@glMatrixMode?$AA@
CONST	SEGMENT
??_C@_0N@KDLNHKEJ@glMatrixMode?$AA@ DB 'glMatrixMode', 00H ; `string'
CONST	ENDS
;	COMDAT ??_C@_0M@EEAPMMNM@glPointSize?$AA@
CONST	SEGMENT
??_C@_0M@EEAPMMNM@glPointSize?$AA@ DB 'glPointSize', 00H ; `string'
CONST	ENDS
;	COMDAT ??_C@_0M@CFLGNFPG@glLineWidth?$AA@
CONST	SEGMENT
??_C@_0M@CFLGNFPG@glLineWidth?$AA@ DB 'glLineWidth', 00H ; `string'
CONST	ENDS
;	COMDAT ??_C@_05OIBMBLHE@glEnd?$AA@
CONST	SEGMENT
??_C@_05OIBMBLHE@glEnd?$AA@ DB 'glEnd', 00H		; `string'
CONST	ENDS
;	COMDAT ??_C@_07FCOIFMD@glBegin?$AA@
CONST	SEGMENT
??_C@_07FCOIFMD@glBegin?$AA@ DB 'glBegin', 00H		; `string'
CONST	ENDS
;	COMDAT ??_C@_0M@MNFIACFI@glNormal3fv?$AA@
CONST	SEGMENT
??_C@_0M@MNFIACFI@glNormal3fv?$AA@ DB 'glNormal3fv', 00H ; `string'
CONST	ENDS
;	COMDAT ??_C@_0L@DGGCBPPM@glNormal3f?$AA@
CONST	SEGMENT
??_C@_0L@DGGCBPPM@glNormal3f?$AA@ DB 'glNormal3f', 00H	; `string'
CONST	ENDS
;	COMDAT ??_C@_0M@JALIODJD@glVertex3fv?$AA@
CONST	SEGMENT
??_C@_0M@JALIODJD@glVertex3fv?$AA@ DB 'glVertex3fv', 00H ; `string'
CONST	ENDS
;	COMDAT ??_C@_0L@LOJINGAG@glVertex3f?$AA@
CONST	SEGMENT
??_C@_0L@LOJINGAG@glVertex3f?$AA@ DB 'glVertex3f', 00H	; `string'
CONST	ENDS
;	COMDAT ??_C@_0L@LPFKLMDB@glVertex2f?$AA@
CONST	SEGMENT
??_C@_0L@LPFKLMDB@glVertex2f?$AA@ DB 'glVertex2f', 00H	; `string'
CONST	ENDS
;	COMDAT ??_C@_09GKNHFOEO@glTexGeni?$AA@
CONST	SEGMENT
??_C@_09GKNHFOEO@glTexGeni?$AA@ DB 'glTexGeni', 00H	; `string'
CONST	ENDS
;	COMDAT ??_C@_0L@ODDHCCIE@glTexGenfv?$AA@
CONST	SEGMENT
??_C@_0L@ODDHCCIE@glTexGenfv?$AA@ DB 'glTexGenfv', 00H	; `string'
CONST	ENDS
;	COMDAT ??_C@_09ONEPECIB@glTexGenf?$AA@
CONST	SEGMENT
??_C@_09ONEPECIB@glTexGenf?$AA@ DB 'glTexGenf', 00H	; `string'
CONST	ENDS
;	COMDAT ??_C@_0O@FLHJJEJL@glTexCoord4fv?$AA@
CONST	SEGMENT
??_C@_0O@FLHJJEJL@glTexCoord4fv?$AA@ DB 'glTexCoord4fv', 00H ; `string'
CONST	ENDS
;	COMDAT ??_C@_0O@MGKOKMCC@glTexCoord3fv?$AA@
CONST	SEGMENT
??_C@_0O@MGKOKMCC@glTexCoord3fv?$AA@ DB 'glTexCoord3fv', 00H ; `string'
CONST	ENDS
;	COMDAT ??_C@_0O@HOBCMLEH@glTexCoord2fv?$AA@
CONST	SEGMENT
??_C@_0O@HOBCMLEH@glTexCoord2fv?$AA@ DB 'glTexCoord2fv', 00H ; `string'
CONST	ENDS
;	COMDAT ??_C@_0O@GMKHGEKJ@glTexCoord1fv?$AA@
CONST	SEGMENT
??_C@_0O@GMKHGEKJ@glTexCoord1fv?$AA@ DB 'glTexCoord1fv', 00H ; `string'
CONST	ENDS
;	COMDAT ??_C@_0N@BOFMFCLG@glTexCoord4f?$AA@
CONST	SEGMENT
??_C@_0N@BOFMFCLG@glTexCoord4f?$AA@ DB 'glTexCoord4f', 00H ; `string'
CONST	ENDS
;	COMDAT ??_C@_0N@BLBDEEDD@glTexCoord3f?$AA@
CONST	SEGMENT
??_C@_0N@BLBDEEDD@glTexCoord3f?$AA@ DB 'glTexCoord3f', 00H ; `string'
CONST	ENDS
;	COMDAT ??_C@_0N@BKNBCOAE@glTexCoord2f?$AA@
CONST	SEGMENT
??_C@_0N@BKNBCOAE@glTexCoord2f?$AA@ DB 'glTexCoord2f', 00H ; `string'
CONST	ENDS
;	COMDAT ??_C@_0N@BIJHJAFN@glTexCoord1f?$AA@
CONST	SEGMENT
??_C@_0N@BIJHJAFN@glTexCoord1f?$AA@ DB 'glTexCoord1f', 00H ; `string'
CONST	ENDS
;	COMDAT ??_C@_0M@PCFPOANK@glColor4ubv?$AA@
CONST	SEGMENT
??_C@_0M@PCFPOANK@glColor4ubv?$AA@ DB 'glColor4ubv', 00H ; `string'
CONST	ENDS
;	COMDAT ??_C@_0L@IEIGEAFK@glColor4ub?$AA@
CONST	SEGMENT
??_C@_0L@IEIGEAFK@glColor4ub?$AA@ DB 'glColor4ub', 00H	; `string'
CONST	ENDS
;	COMDAT ??_C@_0L@BJFBHIOD@glColor3ub?$AA@
CONST	SEGMENT
??_C@_0L@BJFBHIOD@glColor3ub?$AA@ DB 'glColor3ub', 00H	; `string'
CONST	ENDS
;	COMDAT ??_C@_0L@LEEIIKCG@glColor4fv?$AA@
CONST	SEGMENT
??_C@_0L@LEEIIKCG@glColor4fv?$AA@ DB 'glColor4fv', 00H	; `string'
CONST	ENDS
;	COMDAT ??_C@_09PKFCMFPF@glColor4f?$AA@
CONST	SEGMENT
??_C@_09PKFCMFPF@glColor4f?$AA@ DB 'glColor4f', 00H	; `string'
CONST	ENDS
;	COMDAT ??_C@_0L@CJJPLCJP@glColor3fv?$AA@
CONST	SEGMENT
??_C@_0L@CJJPLCJP@glColor3fv?$AA@ DB 'glColor3fv', 00H	; `string'
CONST	ENDS
;	COMDAT ??_C@_09PPBNNDHA@glColor3f?$AA@
CONST	SEGMENT
??_C@_09PPBNNDHA@glColor3f?$AA@ DB 'glColor3f', 00H	; `string'
CONST	ENDS
;	COMDAT ??_C@_0P@CKCIJELG@glArrayElement?$AA@
CONST	SEGMENT
??_C@_0P@CKCIJELG@glArrayElement?$AA@ DB 'glArrayElement', 00H ; `string'
CONST	ENDS
;	COMDAT ??_C@_0BC@DAOMILMO@glTexCoordPointer?$AA@
CONST	SEGMENT
??_C@_0BC@DAOMILMO@glTexCoordPointer?$AA@ DB 'glTexCoordPointer', 00H ; `string'
CONST	ENDS
;	COMDAT ??_C@_0P@DPKEGLKI@glColorPointer?$AA@
CONST	SEGMENT
??_C@_0P@DPKEGLKI@glColorPointer?$AA@ DB 'glColorPointer', 00H ; `string'
CONST	ENDS
;	COMDAT ??_C@_0BA@DCLMCEOP@glNormalPointer?$AA@
CONST	SEGMENT
??_C@_0BA@DCLMCEOP@glNormalPointer?$AA@ DB 'glNormalPointer', 00H ; `string'
CONST	ENDS
;	COMDAT ??_C@_0BA@HAHECJNK@glVertexPointer?$AA@
CONST	SEGMENT
??_C@_0BA@HAHECJNK@glVertexPointer?$AA@ DB 'glVertexPointer', 00H ; `string'
CONST	ENDS
;	COMDAT ??_C@_0P@KGJBLKPD@glIndexPointer?$AA@
CONST	SEGMENT
??_C@_0P@KGJBLKPD@glIndexPointer?$AA@ DB 'glIndexPointer', 00H ; `string'
CONST	ENDS
;	COMDAT ??_C@_0M@DLGOAHPH@glColorMask?$AA@
CONST	SEGMENT
??_C@_0M@DLGOAHPH@glColorMask?$AA@ DB 'glColorMask', 00H ; `string'
CONST	ENDS
;	COMDAT ??_C@_0N@CMNPPOHA@glDrawArrays?$AA@
CONST	SEGMENT
??_C@_0N@CMNPPOHA@glDrawArrays?$AA@ DB 'glDrawArrays', 00H ; `string'
CONST	ENDS
;	COMDAT ??_C@_0P@MENFIFGE@glDrawElements?$AA@
CONST	SEGMENT
??_C@_0P@MENFIFGE@glDrawElements?$AA@ DB 'glDrawElements', 00H ; `string'
CONST	ENDS
;	COMDAT ??_C@_0M@ILBMDJDA@glFrontFace?$AA@
CONST	SEGMENT
??_C@_0M@ILBMDJDA@glFrontFace?$AA@ DB 'glFrontFace', 00H ; `string'
CONST	ENDS
;	COMDAT ??_C@_0N@PEBDIKOA@glDepthRange?$AA@
CONST	SEGMENT
??_C@_0N@PEBDIKOA@glDepthRange?$AA@ DB 'glDepthRange', 00H ; `string'
CONST	ENDS
;	COMDAT ??_C@_0M@KABMFLLN@glDepthMask?$AA@
CONST	SEGMENT
??_C@_0M@KABMFLLN@glDepthMask?$AA@ DB 'glDepthMask', 00H ; `string'
CONST	ENDS
;	COMDAT ??_C@_0M@NEJABAEP@glDepthFunc?$AA@
CONST	SEGMENT
??_C@_0M@NEJABAEP@glDepthFunc?$AA@ DB 'glDepthFunc', 00H ; `string'
CONST	ENDS
;	COMDAT ??_C@_0N@LJIELNG@glClearDepth?$AA@
CONST	SEGMENT
??_C@_0N@LJIELNG@glClearDepth?$AA@ DB 'glClearDepth', 00H ; `string'
CONST	ENDS
;	COMDAT ??_C@_07COFELLJA@glFlush?$AA@
CONST	SEGMENT
??_C@_07COFELLJA@glFlush?$AA@ DB 'glFlush', 00H		; `string'
CONST	ENDS
;	COMDAT ??_C@_08DFCPOKBK@glFinish?$AA@
CONST	SEGMENT
??_C@_08DFCPOKBK@glFinish?$AA@ DB 'glFinish', 00H	; `string'
CONST	ENDS
;	COMDAT ??_C@_0M@OPOBFDCB@glGetString?$AA@
CONST	SEGMENT
??_C@_0M@OPOBFDCB@glGetString?$AA@ DB 'glGetString', 00H ; `string'
CONST	ENDS
;	COMDAT ??_C@_0L@FPKAMKHB@glGetError?$AA@
CONST	SEGMENT
??_C@_0L@FPKAMKHB@glGetError?$AA@ DB 'glGetError', 00H	; `string'
CONST	ENDS
;	COMDAT ??_C@_0O@DHHDCCLF@glGetIntegerv?$AA@
CONST	SEGMENT
??_C@_0O@DHHDCCLF@glGetIntegerv?$AA@ DB 'glGetIntegerv', 00H ; `string'
CONST	ENDS
;	COMDAT ??_C@_0M@CKCOBONE@glGetFloatv?$AA@
CONST	SEGMENT
??_C@_0M@CKCOBONE@glGetFloatv?$AA@ DB 'glGetFloatv', 00H ; `string'
CONST	ENDS
;	COMDAT ??_C@_0N@OFBMMCDH@glGetDoublev?$AA@
CONST	SEGMENT
??_C@_0N@OFBMMCDH@glGetDoublev?$AA@ DB 'glGetDoublev', 00H ; `string'
CONST	ENDS
;	COMDAT ??_C@_0O@NLMELLCJ@glGetBooleanv?$AA@
CONST	SEGMENT
??_C@_0O@NLMELLCJ@glGetBooleanv?$AA@ DB 'glGetBooleanv', 00H ; `string'
CONST	ENDS
;	COMDAT ??_C@_0BF@LJDHBNBP@glDisableClientState?$AA@
CONST	SEGMENT
??_C@_0BF@LJDHBNBP@glDisableClientState?$AA@ DB 'glDisableClientState', 00H ; `string'
CONST	ENDS
;	COMDAT ??_C@_0BE@KECPKGNE@glEnableClientState?$AA@
CONST	SEGMENT
??_C@_0BE@KECPKGNE@glEnableClientState?$AA@ DB 'glEnableClientState', 00H ; `string'
CONST	ENDS
;	COMDAT ??_C@_09MHGMIMKN@glDisable?$AA@
CONST	SEGMENT
??_C@_09MHGMIMKN@glDisable?$AA@ DB 'glDisable', 00H	; `string'
CONST	ENDS
;	COMDAT ??_C@_08OOEHEKOP@glEnable?$AA@
CONST	SEGMENT
??_C@_08OOEHEKOP@glEnable?$AA@ DB 'glEnable', 00H	; `string'
CONST	ENDS
;	COMDAT ??_C@_07LNIJJMEN@glAccum?$AA@
CONST	SEGMENT
??_C@_07LNIJJMEN@glAccum?$AA@ DB 'glAccum', 00H		; `string'
CONST	ENDS
;	COMDAT ??_C@_0N@HFKHBECK@glReadBuffer?$AA@
CONST	SEGMENT
??_C@_0N@HFKHBECK@glReadBuffer?$AA@ DB 'glReadBuffer', 00H ; `string'
CONST	ENDS
;	COMDAT ??_C@_0N@EKCLGPL@glDrawBuffer?$AA@
CONST	SEGMENT
??_C@_0N@EKCLGPL@glDrawBuffer?$AA@ DB 'glDrawBuffer', 00H ; `string'
CONST	ENDS
;	COMDAT ??_C@_0L@BAPBLHME@glCullFace?$AA@
CONST	SEGMENT
??_C@_0L@BAPBLHME@glCullFace?$AA@ DB 'glCullFace', 00H	; `string'
CONST	ENDS
;	COMDAT ??_C@_0M@PFBKOKOH@glBlendFunc?$AA@
CONST	SEGMENT
??_C@_0M@PFBKOKOH@glBlendFunc?$AA@ DB 'glBlendFunc', 00H ; `string'
CONST	ENDS
;	COMDAT ??_C@_0M@BJGLMKCC@glAlphaFunc?$AA@
CONST	SEGMENT
??_C@_0M@BJGLMKCC@glAlphaFunc?$AA@ DB 'glAlphaFunc', 00H ; `string'
CONST	ENDS
;	COMDAT ??_C@_07IBAPPAHJ@glClear?$AA@
CONST	SEGMENT
??_C@_07IBAPPAHJ@glClear?$AA@ DB 'glClear', 00H		; `string'
CONST	ENDS
;	COMDAT ??_C@_0N@OGLMDNKC@glClearColor?$AA@
CONST	SEGMENT
??_C@_0N@OGLMDNKC@glClearColor?$AA@ DB 'glClearColor', 00H ; `string'
CONST	ENDS
_DATA	SEGMENT
?opengl_110funcs@@3PAUdllfunc_s@@A DD FLAT:??_C@_0N@OGLMDNKC@glClearColor?$AA@ ; opengl_110funcs
	DD	FLAT:?pglClearColor@@3P6GXMMMM@ZA
	DD	FLAT:??_C@_07IBAPPAHJ@glClear?$AA@
	DD	FLAT:?pglClear@@3P6GXI@ZA
	DD	FLAT:??_C@_0M@BJGLMKCC@glAlphaFunc?$AA@
	DD	FLAT:?pglAlphaFunc@@3P6GXIM@ZA
	DD	FLAT:??_C@_0M@PFBKOKOH@glBlendFunc?$AA@
	DD	FLAT:?pglBlendFunc@@3P6GXII@ZA
	DD	FLAT:??_C@_0L@BAPBLHME@glCullFace?$AA@
	DD	FLAT:?pglCullFace@@3P6GXI@ZA
	DD	FLAT:??_C@_0N@EKCLGPL@glDrawBuffer?$AA@
	DD	FLAT:?pglDrawBuffer@@3P6GXI@ZA
	DD	FLAT:??_C@_0N@HFKHBECK@glReadBuffer?$AA@
	DD	FLAT:?pglReadBuffer@@3P6GXI@ZA
	DD	FLAT:??_C@_07LNIJJMEN@glAccum?$AA@
	DD	FLAT:?pglAccum@@3P6GXIM@ZA
	DD	FLAT:??_C@_08OOEHEKOP@glEnable?$AA@
	DD	FLAT:?pglEnable@@3P6GXI@ZA
	DD	FLAT:??_C@_09MHGMIMKN@glDisable?$AA@
	DD	FLAT:?pglDisable@@3P6GXI@ZA
	DD	FLAT:??_C@_0BE@KECPKGNE@glEnableClientState?$AA@
	DD	FLAT:?pglEnableClientState@@3P6GXI@ZA
	DD	FLAT:??_C@_0BF@LJDHBNBP@glDisableClientState?$AA@
	DD	FLAT:?pglDisableClientState@@3P6GXI@ZA
	DD	FLAT:??_C@_0O@NLMELLCJ@glGetBooleanv?$AA@
	DD	FLAT:?pglGetBooleanv@@3P6GXIPAE@ZA
	DD	FLAT:??_C@_0N@OFBMMCDH@glGetDoublev?$AA@
	DD	FLAT:?pglGetDoublev@@3P6GXIPAN@ZA
	DD	FLAT:??_C@_0M@CKCOBONE@glGetFloatv?$AA@
	DD	FLAT:?pglGetFloatv@@3P6GXIPAM@ZA
	DD	FLAT:??_C@_0O@DHHDCCLF@glGetIntegerv?$AA@
	DD	FLAT:?pglGetIntegerv@@3P6GXIPAH@ZA
	DD	FLAT:??_C@_0L@FPKAMKHB@glGetError?$AA@
	DD	FLAT:?pglGetError@@3P6GIXZA
	DD	FLAT:??_C@_0M@OPOBFDCB@glGetString?$AA@
	DD	FLAT:?pglGetString@@3P6GPBDI@ZA
	DD	FLAT:??_C@_08DFCPOKBK@glFinish?$AA@
	DD	FLAT:?pglFinish@@3P6GXXZA
	DD	FLAT:??_C@_07COFELLJA@glFlush?$AA@
	DD	FLAT:?pglFlush@@3P6GXXZA
	DD	FLAT:??_C@_0N@LJIELNG@glClearDepth?$AA@
	DD	FLAT:?pglClearDepth@@3P6GXN@ZA
	DD	FLAT:??_C@_0M@NEJABAEP@glDepthFunc?$AA@
	DD	FLAT:?pglDepthFunc@@3P6GXI@ZA
	DD	FLAT:??_C@_0M@KABMFLLN@glDepthMask?$AA@
	DD	FLAT:?pglDepthMask@@3P6GXE@ZA
	DD	FLAT:??_C@_0N@PEBDIKOA@glDepthRange?$AA@
	DD	FLAT:?pglDepthRange@@3P6GXNN@ZA
	DD	FLAT:??_C@_0M@ILBMDJDA@glFrontFace?$AA@
	DD	FLAT:?pglFrontFace@@3P6GXI@ZA
	DD	FLAT:??_C@_0P@MENFIFGE@glDrawElements?$AA@
	DD	FLAT:?pglDrawElements@@3P6GXIHIPBX@ZA
	DD	FLAT:??_C@_0N@CMNPPOHA@glDrawArrays?$AA@
	DD	FLAT:?pglDrawArrays@@3P6GXIHH@ZA
	DD	FLAT:??_C@_0M@DLGOAHPH@glColorMask?$AA@
	DD	FLAT:?pglColorMask@@3P6GXEEEE@ZA
	DD	FLAT:??_C@_0P@KGJBLKPD@glIndexPointer?$AA@
	DD	FLAT:?pglIndexPointer@@3P6GXIHPBX@ZA
	DD	FLAT:??_C@_0BA@HAHECJNK@glVertexPointer?$AA@
	DD	FLAT:?pglVertexPointer@@3P6GXHIHPBX@ZA
	DD	FLAT:??_C@_0BA@DCLMCEOP@glNormalPointer?$AA@
	DD	FLAT:?pglNormalPointer@@3P6GXIHPBX@ZA
	DD	FLAT:??_C@_0P@DPKEGLKI@glColorPointer?$AA@
	DD	FLAT:?pglColorPointer@@3P6GXHIHPBX@ZA
	DD	FLAT:??_C@_0BC@DAOMILMO@glTexCoordPointer?$AA@
	DD	FLAT:?pglTexCoordPointer@@3P6GXHIHPBX@ZA
	DD	FLAT:??_C@_0P@CKCIJELG@glArrayElement?$AA@
	DD	FLAT:?pglArrayElement@@3P6GXH@ZA
	DD	FLAT:??_C@_09PPBNNDHA@glColor3f?$AA@
	DD	FLAT:?pglColor3f@@3P6GXMMM@ZA
	DD	FLAT:??_C@_0L@CJJPLCJP@glColor3fv?$AA@
	DD	FLAT:?pglColor3fv@@3P6GXPBM@ZA
	DD	FLAT:??_C@_09PKFCMFPF@glColor4f?$AA@
	DD	FLAT:?pglColor4f@@3P6GXMMMM@ZA
	DD	FLAT:??_C@_0L@LEEIIKCG@glColor4fv?$AA@
	DD	FLAT:?pglColor4fv@@3P6GXPBM@ZA
	DD	FLAT:??_C@_0L@BJFBHIOD@glColor3ub?$AA@
	DD	FLAT:?pglColor3ub@@3P6GXEEE@ZA
	DD	FLAT:??_C@_0L@IEIGEAFK@glColor4ub?$AA@
	DD	FLAT:?pglColor4ub@@3P6GXEEEE@ZA
	DD	FLAT:??_C@_0M@PCFPOANK@glColor4ubv?$AA@
	DD	FLAT:?pglColor4ubv@@3P6GXPBE@ZA
	DD	FLAT:??_C@_0N@BIJHJAFN@glTexCoord1f?$AA@
	DD	FLAT:?pglTexCoord1f@@3P6GXM@ZA
	DD	FLAT:??_C@_0N@BKNBCOAE@glTexCoord2f?$AA@
	DD	FLAT:?pglTexCoord2f@@3P6GXMM@ZA
	DD	FLAT:??_C@_0N@BLBDEEDD@glTexCoord3f?$AA@
	DD	FLAT:?pglTexCoord3f@@3P6GXMMM@ZA
	DD	FLAT:??_C@_0N@BOFMFCLG@glTexCoord4f?$AA@
	DD	FLAT:?pglTexCoord4f@@3P6GXMMMM@ZA
	DD	FLAT:??_C@_0O@GMKHGEKJ@glTexCoord1fv?$AA@
	DD	FLAT:?pglTexCoord1fv@@3P6GXPBM@ZA
	DD	FLAT:??_C@_0O@HOBCMLEH@glTexCoord2fv?$AA@
	DD	FLAT:?pglTexCoord2fv@@3P6GXPBM@ZA
	DD	FLAT:??_C@_0O@MGKOKMCC@glTexCoord3fv?$AA@
	DD	FLAT:?pglTexCoord3fv@@3P6GXPBM@ZA
	DD	FLAT:??_C@_0O@FLHJJEJL@glTexCoord4fv?$AA@
	DD	FLAT:?pglTexCoord4fv@@3P6GXPBM@ZA
	DD	FLAT:??_C@_09ONEPECIB@glTexGenf?$AA@
	DD	FLAT:?pglTexGenf@@3P6GXIIM@ZA
	DD	FLAT:??_C@_0L@ODDHCCIE@glTexGenfv?$AA@
	DD	FLAT:?pglTexGenfv@@3P6GXIIPBM@ZA
	DD	FLAT:??_C@_09GKNHFOEO@glTexGeni?$AA@
	DD	FLAT:?pglTexGeni@@3P6GXIIH@ZA
	DD	FLAT:??_C@_0L@LPFKLMDB@glVertex2f?$AA@
	DD	FLAT:?pglVertex2f@@3P6GXMM@ZA
	DD	FLAT:??_C@_0L@LOJINGAG@glVertex3f?$AA@
	DD	FLAT:?pglVertex3f@@3P6GXMMM@ZA
	DD	FLAT:??_C@_0M@JALIODJD@glVertex3fv?$AA@
	DD	FLAT:?pglVertex3fv@@3P6GXPBM@ZA
	DD	FLAT:??_C@_0L@DGGCBPPM@glNormal3f?$AA@
	DD	FLAT:?pglNormal3f@@3P6GXMMM@ZA
	DD	FLAT:??_C@_0M@MNFIACFI@glNormal3fv?$AA@
	DD	FLAT:?pglNormal3fv@@3P6GXPBM@ZA
	DD	FLAT:??_C@_07FCOIFMD@glBegin?$AA@
	DD	FLAT:?pglBegin@@3P6GXI@ZA
	DD	FLAT:??_C@_05OIBMBLHE@glEnd?$AA@
	DD	FLAT:?pglEnd@@3P6GXXZA
	DD	FLAT:??_C@_0M@CFLGNFPG@glLineWidth?$AA@
	DD	FLAT:?pglLineWidth@@3P6GXM@ZA
	DD	FLAT:??_C@_0M@EEAPMMNM@glPointSize?$AA@
	DD	FLAT:?pglPointSize@@3P6GXM@ZA
	DD	FLAT:??_C@_0N@KDLNHKEJ@glMatrixMode?$AA@
	DD	FLAT:?pglMatrixMode@@3P6GXI@ZA
	DD	FLAT:??_C@_07DBAFHOII@glOrtho?$AA@
	DD	FLAT:?pglOrtho@@3P6GXNNNNNN@ZA
	DD	FLAT:??_C@_0O@DLOEJEEG@glRasterPos2f?$AA@
	DD	FLAT:?pglRasterPos2f@@3P6GXMM@ZA
	DD	FLAT:??_C@_09ICLFHOKP@glFrustum?$AA@
	DD	FLAT:?pglFrustum@@3P6GXNNNNNN@ZA
	DD	FLAT:??_C@_0L@KBLIPDFH@glViewport?$AA@
	DD	FLAT:?pglViewport@@3P6GXHHHH@ZA
	DD	FLAT:??_C@_0N@IHFNHGBL@glPushMatrix?$AA@
	DD	FLAT:?pglPushMatrix@@3P6GXXZA
	DD	FLAT:??_C@_0M@JPEAAEEK@glPopMatrix?$AA@
	DD	FLAT:?pglPopMatrix@@3P6GXXZA
	DD	FLAT:??_C@_0N@KDMLHFJM@glPushAttrib?$AA@
	DD	FLAT:?pglPushAttrib@@3P6GXI@ZA
	DD	FLAT:??_C@_0M@LLNGAHMN@glPopAttrib?$AA@
	DD	FLAT:?pglPopAttrib@@3P6GXXZA
	DD	FLAT:??_C@_0P@EJAFHEPO@glLoadIdentity?$AA@
	DD	FLAT:?pglLoadIdentity@@3P6GXXZA
	DD	FLAT:??_C@_0O@LFHKEMK@glLoadMatrixd?$AA@
	DD	FLAT:?pglLoadMatrixd@@3P6GXPBN@ZA
	DD	FLAT:??_C@_0O@DJGBMGEI@glLoadMatrixf?$AA@
	DD	FLAT:?pglLoadMatrixf@@3P6GXPBM@ZA
	DD	FLAT:??_C@_0O@IFJFLNCL@glMultMatrixd?$AA@
	DD	FLAT:?pglMultMatrixd@@3P6GXPBN@ZA
	DD	FLAT:??_C@_0O@LHKDNPKJ@glMultMatrixf?$AA@
	DD	FLAT:?pglMultMatrixf@@3P6GXPBM@ZA
	DD	FLAT:??_C@_09GANFLDAO@glRotated?$AA@
	DD	FLAT:?pglRotated@@3P6GXNNNN@ZA
	DD	FLAT:??_C@_09FCODNBIM@glRotatef?$AA@
	DD	FLAT:?pglRotatef@@3P6GXMMMM@ZA
	DD	FLAT:??_C@_08KAMCINDI@glScaled?$AA@
	DD	FLAT:?pglScaled@@3P6GXNNN@ZA
	DD	FLAT:??_C@_08JCPEOPLK@glScalef?$AA@
	DD	FLAT:?pglScalef@@3P6GXMMM@ZA
	DD	FLAT:??_C@_0N@LHMFFDFG@glTranslated?$AA@
	DD	FLAT:?pglTranslated@@3P6GXNNN@ZA
	DD	FLAT:??_C@_0N@IFPDDBNE@glTranslatef?$AA@
	DD	FLAT:?pglTranslatef@@3P6GXMMM@ZA
	DD	FLAT:??_C@_0N@CKFNNHOO@glReadPixels?$AA@
	DD	FLAT:?pglReadPixels@@3P6GXHHHHIIPAX@ZA
	DD	FLAT:??_C@_0N@FLFIHFDP@glDrawPixels?$AA@
	DD	FLAT:?pglDrawPixels@@3P6GXHHIIPBX@ZA
	DD	FLAT:??_C@_0O@ENNLLOLN@glStencilFunc?$AA@
	DD	FLAT:?pglStencilFunc@@3P6GXIHI@ZA
	DD	FLAT:??_C@_0O@DJFHPFEP@glStencilMask?$AA@
	DD	FLAT:?pglStencilMask@@3P6GXI@ZA
	DD	FLAT:??_C@_0M@BILBNGF@glStencilOp?$AA@
	DD	FLAT:?pglStencilOp@@3P6GXIII@ZA
	DD	FLAT:??_C@_0P@KBLPBBFP@glClearStencil?$AA@
	DD	FLAT:?pglClearStencil@@3P6GXH@ZA
	DD	FLAT:??_C@_0M@INHMIHKC@glIsEnabled?$AA@
	DD	FLAT:?pglIsEnabled@@3P6GEI@ZA
	DD	FLAT:??_C@_08DMFMJKDH@glIsList?$AA@
	DD	FLAT:?pglIsList@@3P6GEI@ZA
	DD	FLAT:??_C@_0M@NJHAEPDN@glIsTexture?$AA@
	DD	FLAT:?pglIsTexture@@3P6GEI@ZA
	DD	FLAT:??_C@_09FCLLGECI@glTexEnvf?$AA@
	DD	FLAT:?pglTexEnvf@@3P6GXIIM@ZA
	DD	FLAT:??_C@_0L@EMICMNOO@glTexEnvfv?$AA@
	DD	FLAT:?pglTexEnvfv@@3P6GXIIPBM@ZA
	DD	FLAT:??_C@_09NFCDHIOH@glTexEnvi?$AA@
	DD	FLAT:?pglTexEnvi@@3P6GXIIH@ZA
	DD	FLAT:??_C@_0BA@INKFIMGP@glTexParameterf?$AA@
	DD	FLAT:?pglTexParameterf@@3P6GXIIM@ZA
	DD	FLAT:??_C@_0BB@KEOFAHDF@glTexParameterfv?$AA@
	DD	FLAT:?pglTexParameterfv@@3P6GXIIPBM@ZA
	DD	FLAT:??_C@_0BA@KDNJAKA@glTexParameteri?$AA@
	DD	FLAT:?pglTexParameteri@@3P6GXIIH@ZA
	DD	FLAT:??_C@_06HEADGMBC@glHint?$AA@
	DD	FLAT:?pglHint@@3P6GXII@ZA
	DD	FLAT:??_C@_0O@BFLAHHCK@glPixelStoref?$AA@
	DD	FLAT:?pglPixelStoref@@3P6GXIM@ZA
	DD	FLAT:??_C@_0O@JCCIGLOF@glPixelStorei?$AA@
	DD	FLAT:?pglPixelStorei@@3P6GXIH@ZA
	DD	FLAT:??_C@_0O@LLMANLNK@glGenTextures?$AA@
	DD	FLAT:?pglGenTextures@@3P6GXHPAI@ZA
	DD	FLAT:??_C@_0BB@KMPLFJIC@glDeleteTextures?$AA@
	DD	FLAT:?pglDeleteTextures@@3P6GXHPBI@ZA
	DD	FLAT:??_C@_0O@JKKCIBGC@glBindTexture?$AA@
	DD	FLAT:?pglBindTexture@@3P6GXII@ZA
	DD	FLAT:??_C@_0N@JDMMMFHL@glTexImage1D?$AA@
	DD	FLAT:?pglTexImage1D@@3P6GXIHHHHIIPBX@ZA
	DD	FLAT:??_C@_0N@JBIKHLCC@glTexImage2D?$AA@
	DD	FLAT:?pglTexImage2D@@3P6GXIHHHHHIIPBX@ZA
	DD	FLAT:??_C@_0BA@NFOOCKJD@glTexSubImage1D?$AA@
	DD	FLAT:?pglTexSubImage1D@@3P6GXIHHHIIPBX@ZA
	DD	FLAT:??_C@_0BA@NHKIJEMK@glTexSubImage2D?$AA@
	DD	FLAT:?pglTexSubImage2D@@3P6GXIHHHHHIIPBX@ZA
	DD	FLAT:??_C@_0BB@MEEDBHPL@glCopyTexImage1D?$AA@
	DD	FLAT:?pglCopyTexImage1D@@3P6GXIHIHHHH@ZA
	DD	FLAT:??_C@_0BB@MGAFKJKC@glCopyTexImage2D?$AA@
	DD	FLAT:?pglCopyTexImage2D@@3P6GXIHIHHHHH@ZA
	DD	FLAT:??_C@_0BE@PKNCAIGI@glCopyTexSubImage1D?$AA@
	DD	FLAT:?pglCopyTexSubImage1D@@3P6GXIHHHHH@ZA
	DD	FLAT:??_C@_0BE@PIJELGDB@glCopyTexSubImage2D?$AA@
	DD	FLAT:?pglCopyTexSubImage2D@@3P6GXIHHHHHHH@ZA
	DD	FLAT:??_C@_09ECGPAEPL@glScissor?$AA@
	DD	FLAT:?pglScissor@@3P6GXHHHH@ZA
	DD	FLAT:??_C@_0O@DOIIJLAD@glGetTexImage?$AA@
	DD	FLAT:?pglGetTexImage@@3P6GXIHIIPAX@ZA
	DD	FLAT:??_C@_0O@KIFFCCBG@glGetTexEnviv?$AA@
	DD	FLAT:?pglGetTexEnviv@@3P6GXIIPAH@ZA
	DD	FLAT:??_C@_0BA@FFBJGNC@glPolygonOffset?$AA@
	DD	FLAT:?pglPolygonOffset@@3P6GXMM@ZA
	DD	FLAT:??_C@_0O@DKMNBFMB@glPolygonMode?$AA@
	DD	FLAT:?pglPolygonMode@@3P6GXII@ZA
	DD	FLAT:??_C@_0BB@GIADEJGP@glPolygonStipple?$AA@
	DD	FLAT:?pglPolygonStipple@@3P6GXPBE@ZA
	DD	FLAT:??_C@_0M@OHCNGGFF@glClipPlane?$AA@
	DD	FLAT:?pglClipPlane@@3P6GXIPBN@ZA
	DD	FLAT:??_C@_0P@MMMNLMC@glGetClipPlane?$AA@
	DD	FLAT:?pglGetClipPlane@@3P6GXIPAN@ZA
	DD	FLAT:??_C@_0N@NALMFHKN@glShadeModel?$AA@
	DD	FLAT:?pglShadeModel@@3P6GXI@ZA
	DD	FLAT:??_C@_0BJ@GLJHCPGI@glGetTexLevelParameteriv?$AA@
	DD	FLAT:?pglGetTexLevelParameteriv@@3P6GXIHIPAH@ZA
	DD	FLAT:??_C@_0BJ@GAMLGIFF@glGetTexLevelParameterfv?$AA@
	DD	FLAT:?pglGetTexLevelParameterfv@@3P6GXIHIPAM@ZA
	DD	FLAT:??_C@_07FNEIAABA@glFogfv?$AA@
	DD	FLAT:?pglFogfv@@3P6GXIPBM@ZA
	DD	FLAT:??_C@_06JJHNMGPD@glFogf?$AA@
	DD	FLAT:?pglFogf@@3P6GXIM@ZA
	DD	FLAT:??_C@_06BOOFNKDM@glFogi?$AA@
	DD	FLAT:?pglFogi@@3P6GXIH@ZA
	DD	FLAT:??_C@_0N@JAEIBBBF@glTexImage3D?$AA@
	DD	FLAT:?pglTexImage3D@@3P6GXIHIHHHHIIPBX@ZA
	DD	FLAT:??_C@_0BA@NGGKPOPN@glTexSubImage3D?$AA@
	DD	FLAT:?pglTexSubImage3D@@3P6GXIHHHHHHHIIPBX@ZA
	DD	FLAT:??_C@_0BE@PJFGNMAG@glCopyTexSubImage3D?$AA@
	DD	FLAT:?pglCopyTexSubImage3D@@3P6GXIHHHHHHHH@ZA
	DD	00H
	DD	00H
?opengl_200funcs@@3PAUdllfunc_s@@A DD FLAT:??_C@_0P@HGHBNC@glCreateShader?$AA@ ; opengl_200funcs
	DD	FLAT:?pglCreateShader@@3P6GII@ZA
	DD	FLAT:??_C@_0P@LDMLEABL@glAttachShader?$AA@
	DD	FLAT:?pglAttachShader@@3P6GXII@ZA
	DD	FLAT:??_C@_0P@DJFJFCJL@glDetachShader?$AA@
	DD	FLAT:?pglDetachShader@@3P6GXII@ZA
	DD	FLAT:??_C@_0BA@DGIEGONF@glCompileShader?$AA@
	DD	FLAT:?pglCompileShader@@3P6GXI@ZA
	DD	FLAT:??_C@_0P@DFHCPFMO@glShaderSource?$AA@
	DD	FLAT:?pglShaderSource@@3P6GXIHPBQBDPBH@ZA
	DD	FLAT:??_C@_0BC@ELEIFJEL@glGetShaderSource?$AA@
	DD	FLAT:?pglGetShaderSource@@3P6GXIHPAHPAD@ZA
	DD	FLAT:??_C@_0O@JBDFPDMG@glGetShaderiv?$AA@
	DD	FLAT:?pglGetShaderiv@@3P6GXIIPAH@ZA
	DD	FLAT:??_C@_0P@HHCDONAG@glDeleteShader?$AA@
	DD	FLAT:?pglDeleteShader@@3P6GXI@ZA
	DD	FLAT:??_C@_0N@ICBDHBI@glUseProgram?$AA@
	DD	FLAT:?pglUseProgram@@3P6GXI@ZA
	DD	FLAT:??_C@_0O@PIOEEBPO@glLinkProgram?$AA@
	DD	FLAT:?pglLinkProgram@@3P6GXI@ZA
	DD	FLAT:??_C@_0BC@MAPGDLJK@glValidateProgram?$AA@
	DD	FLAT:?pglValidateProgram@@3P6GXI@ZA
	DD	FLAT:??_C@_0BA@FLKLHNKP@glCreateProgram?$AA@
	DD	FLAT:?pglCreateProgram@@3P6GIXZA
	DD	FLAT:??_C@_0BA@NKGCDOPO@glDeleteProgram?$AA@
	DD	FLAT:?pglDeleteProgram@@3P6GXI@ZA
	DD	FLAT:??_C@_0BD@GIABBCMO@glGetShaderInfoLog?$AA@
	DD	FLAT:?pglGetShaderInfoLog@@3P6GXIHPAHPAD@ZA
	DD	FLAT:??_C@_0BE@DHGHAJFL@glGetProgramInfoLog?$AA@
	DD	FLAT:?pglGetProgramInfoLog@@3P6GXIHPAHPAD@ZA
	DD	FLAT:??_C@_0BD@NIMHLLKN@glGetActiveUniform?$AA@
	DD	FLAT:?pglGetActiveUniform@@3P6GXIIHPAH0PAIPAD@ZA
	DD	FLAT:??_C@_0BF@KIOPGICP@glGetUniformLocation?$AA@
	DD	FLAT:?pglGetUniformLocation@@3P6GHIPBD@ZA
	DD	FLAT:??_C@_0P@FMMDFLCO@glGetProgramiv?$AA@
	DD	FLAT:?pglGetProgramiv@@3P6GXIIPAH@ZA
	DD	FLAT:??_C@_0BA@PFHILPAN@glBlendEquation?$AA@
	DD	FLAT:?pglBlendEquation@@3P6GXI@ZA
	DD	FLAT:??_C@_0BG@JPNNNPKG@glVertexAttribPointer?$AA@
	DD	FLAT:?pglVertexAttribPointerARB@@3P6GXIHIEHPBX@ZA
	DD	FLAT:??_C@_0BK@EHBAHNHE@glEnableVertexAttribArray?$AA@
	DD	FLAT:?pglEnableVertexAttribArrayARB@@3P6GXI@ZA
	DD	FLAT:??_C@_0BL@NKHLOFFF@glDisableVertexAttribArray?$AA@
	DD	FLAT:?pglDisableVertexAttribArrayARB@@3P6GXI@ZA
	DD	FLAT:??_C@_0BF@MHKEFIHM@glBindAttribLocation?$AA@
	DD	FLAT:?pglBindAttribLocationARB@@3P6GXIIPBD@ZA
	DD	FLAT:??_C@_0BC@MBALAOHF@glGetActiveAttrib?$AA@
	DD	FLAT:?pglGetActiveAttribARB@@3P6GXIIHPAH0PAIPAD@ZA
	DD	FLAT:??_C@_0BE@BEPGJDMM@glGetAttribLocation?$AA@
	DD	FLAT:?pglGetAttribLocationARB@@3P6GHIPBD@ZA
	DD	FLAT:??_C@_0N@JAEIBBBF@glTexImage3D?$AA@
	DD	FLAT:?pglTexImage3D@@3P6GXIHIHHHHIIPBX@ZA
	DD	FLAT:??_C@_0BA@NGGKPOPN@glTexSubImage3D?$AA@
	DD	FLAT:?pglTexSubImage3D@@3P6GXIHHHHHHHIIPBX@ZA
	DD	FLAT:??_C@_0BE@PJFGNMAG@glCopyTexSubImage3D?$AA@
	DD	FLAT:?pglCopyTexSubImage3D@@3P6GXIHHHHHHHH@ZA
	DD	FLAT:??_C@_0BE@IHNAGJGJ@glDrawRangeElements?$AA@
	DD	FLAT:?pglDrawRangeElements@@3P6GXIIIHIPBX@ZA
	DD	FLAT:??_C@_0O@COHJKDBH@glDrawBuffers?$AA@
	DD	FLAT:?pglDrawBuffersARB@@3P6GXHPBI@ZA
	DD	FLAT:??_C@_0BC@LFEJJHHN@glMultiTexCoord1f?$AA@
	DD	FLAT:?pglMultiTexCoord1f@@3P6GXIM@ZA
	DD	FLAT:??_C@_0BC@LHAPCJCE@glMultiTexCoord2f?$AA@
	DD	FLAT:?pglMultiTexCoord2f@@3P6GXIMM@ZA
	DD	FLAT:??_C@_0BC@LGMNEDBD@glMultiTexCoord3f?$AA@
	DD	FLAT:?pglMultiTexCoord3f@@3P6GXIMMM@ZA
	DD	FLAT:??_C@_0BC@LDICFFJG@glMultiTexCoord4f?$AA@
	DD	FLAT:?pglMultiTexCoord4f@@3P6GXIMMMM@ZA
	DD	FLAT:??_C@_0BA@KOBBIKOF@glActiveTexture?$AA@
	DD	FLAT:?pglActiveTexture@@3P6GXI@ZA
	DD	FLAT:??_C@_0BD@JIBJELHD@glUniformMatrix2fv?$AA@
	DD	FLAT:?pglUniformMatrix2fvARB@@3P6GXHHEPBM@ZA
	DD	FLAT:??_C@_0BD@CAKFCMBG@glUniformMatrix3fv?$AA@
	DD	FLAT:?pglUniformMatrix3fvARB@@3P6GXHHEPBM@ZA
	DD	FLAT:??_C@_0BD@LNHCBEKP@glUniformMatrix4fv?$AA@
	DD	FLAT:?pglUniformMatrix4fvARB@@3P6GXHHEPBM@ZA
	DD	FLAT:??_C@_0M@MLICAPOF@glUniform1f?$AA@
	DD	FLAT:?pglUniform1fARB@@3P6GXHM@ZA
	DD	FLAT:??_C@_0M@MJMELBLM@glUniform2f?$AA@
	DD	FLAT:?pglUniform2fARB@@3P6GXHMM@ZA
	DD	FLAT:??_C@_0M@MIAGNLIL@glUniform3f?$AA@
	DD	FLAT:?pglUniform3fARB@@3P6GXHMMM@ZA
	DD	FLAT:??_C@_0M@MNEJMNAO@glUniform4f?$AA@
	DD	FLAT:?pglUniform4fARB@@3P6GXHMMMM@ZA
	DD	FLAT:??_C@_0M@EMBKBDCK@glUniform1i?$AA@
	DD	FLAT:?pglUniform1iARB@@3P6GXHH@ZA
	DD	FLAT:??_C@_0M@EOFMKNHD@glUniform2i?$AA@
	DD	FLAT:?pglUniform2iARB@@3P6GXHHH@ZA
	DD	FLAT:??_C@_0M@EPJOMHEE@glUniform3i?$AA@
	DD	FLAT:?pglUniform3iARB@@3P6GXHHHH@ZA
	DD	FLAT:??_C@_0M@EKNBNBMB@glUniform4i?$AA@
	DD	FLAT:?pglUniform4iARB@@3P6GXHHHHH@ZA
	DD	FLAT:??_C@_0N@KJMOEKII@glUniform1fv?$AA@
	DD	FLAT:?pglUniform1fvARB@@3P6GXHHPBM@ZA
	DD	FLAT:??_C@_0N@LLHLOFGG@glUniform2fv?$AA@
	DD	FLAT:?pglUniform2fvARB@@3P6GXHHPBM@ZA
	DD	FLAT:??_C@_0N@DMHICAD@glUniform3fv?$AA@
	DD	FLAT:?pglUniform3fvARB@@3P6GXHHPBM@ZA
	DD	FLAT:??_C@_0N@JOBALKLK@glUniform4fv?$AA@
	DD	FLAT:?pglUniform4fvARB@@3P6GXHHPBM@ZA
	DD	FLAT:??_C@_0N@KCJCANLF@glUniform1iv?$AA@
	DD	FLAT:?pglUniform1ivARB@@3P6GXHHPBH@ZA
	DD	FLAT:??_C@_0N@LACHKCFL@glUniform2iv?$AA@
	DD	FLAT:?pglUniform2ivARB@@3P6GXHHPBH@ZA
	DD	FLAT:??_C@_0N@IJLMFDO@glUniform3iv?$AA@
	DD	FLAT:?pglUniform3ivARB@@3P6GXHHPBH@ZA
	DD	FLAT:??_C@_0N@JFEMPNIH@glUniform4iv?$AA@
	DD	FLAT:?pglUniform4ivARB@@3P6GXHHPBH@ZA
	DD	FLAT:??_C@_0BB@MIJLCBCJ@glVertexAttrib2f?$AA@
	DD	FLAT:?pglVertexAttrib2fARB@@3P6GXIMM@ZA
	DD	FLAT:??_C@_0BC@DLBPNNDN@glVertexAttrib2fv?$AA@
	DD	FLAT:?pglVertexAttrib2fvARB@@3P6GXIPBM@ZA
	DD	FLAT:??_C@_0BC@IDKDLKFI@glVertexAttrib3fv?$AA@
	DD	FLAT:?pglVertexAttrib3fvARB@@3P6GXIPBM@ZA
	DD	FLAT:??_C@_0BC@BOHEICOB@glVertexAttrib4fv?$AA@
	DD	FLAT:?pglVertexAttrib4fvARB@@3P6GXIPBM@ZA
	DD	FLAT:??_C@_0BD@PHPFILMB@glVertexAttrib4ubv?$AA@
	DD	FLAT:?pglVertexAttrib4ubvARB@@3P6GXIPBE@ZA
	DD	00H
	DD	00H
?drawrangeelementsfuncs@@3PAUdllfunc_s@@A DD FLAT:??_C@_0BE@IHNAGJGJ@glDrawRangeElements?$AA@ ; drawrangeelementsfuncs
	DD	FLAT:?pglDrawRangeElements@@3P6GXIIIHIPBX@ZA
	DD	00H
	DD	00H
?drawrangeelementsextfuncs@@3PAUdllfunc_s@@A DD FLAT:??_C@_0BH@GFFILNEF@glDrawRangeElementsEXT?$AA@ ; drawrangeelementsextfuncs
	DD	FLAT:?pglDrawRangeElementsEXT@@3P6GXIIIHIPBX@ZA
	DD	00H
	DD	00H
?debugoutputfuncs@@3PAUdllfunc_s@@A DD FLAT:??_C@_0BJ@IAEPICEJ@glDebugMessageControlARB?$AA@ ; debugoutputfuncs
	DD	FLAT:?pglDebugMessageControlARB@@3P6GXIIIHPBIE@ZA
	DD	FLAT:??_C@_0BI@IFLDELCL@glDebugMessageInsertARB?$AA@
	DD	FLAT:?pglDebugMessageInsertARB@@3P6GXIIIIHPBD@ZA
	DD	FLAT:??_C@_0BK@IEHNBEGE@glDebugMessageCallbackARB?$AA@
	DD	FLAT:?pglDebugMessageCallbackARB@@3P6GXP6GXIIIIHPBDPAX@Z1@ZA
	DD	FLAT:??_C@_0BI@JOLPFNOB@glGetDebugMessageLogARB?$AA@
	DD	FLAT:?pglGetDebugMessageLogARB@@3P6GIIHPAI000PAHPAD@ZA
	DD	00H
	DD	00H
?multitexturefuncs@@3PAUdllfunc_s@@A DD FLAT:??_C@_0BF@ODPGPGFO@glMultiTexCoord1fARB?$AA@ ; multitexturefuncs
	DD	FLAT:?pglMultiTexCoord1f@@3P6GXIM@ZA
	DD	FLAT:??_C@_0BF@GFGCIEPA@glMultiTexCoord2fARB?$AA@
	DD	FLAT:?pglMultiTexCoord2f@@3P6GXIMM@ZA
	DD	FLAT:??_C@_0BF@KODOFHFF@glMultiTexCoord3fARB?$AA@
	DD	FLAT:?pglMultiTexCoord3f@@3P6GXIMMM@ZA
	DD	FLAT:??_C@_0BF@LDDLGHON@glMultiTexCoord4fARB?$AA@
	DD	FLAT:?pglMultiTexCoord4f@@3P6GXIMMMM@ZA
	DD	FLAT:??_C@_0BD@IKCKKKNH@glActiveTextureARB?$AA@
	DD	FLAT:?pglActiveTexture@@3P6GXI@ZA
	DD	FLAT:??_C@_0BD@IKCKKKNH@glActiveTextureARB?$AA@
	DD	FLAT:?pglActiveTextureARB@@3P6GXI@ZA
	DD	FLAT:??_C@_0BJ@PBJNGLJH@glClientActiveTextureARB?$AA@
	DD	FLAT:?pglClientActiveTexture@@3P6GXI@ZA
	DD	FLAT:??_C@_0BJ@PBJNGLJH@glClientActiveTextureARB?$AA@
	DD	FLAT:?pglClientActiveTextureARB@@3P6GXI@ZA
	DD	00H
	DD	00H
?texture3dextfuncs@@3PAUdllfunc_s@@A DD FLAT:??_C@_0BA@CBIBMEOO@glTexImage3DEXT?$AA@ ; texture3dextfuncs
	DD	FLAT:?pglTexImage3D@@3P6GXIHIHHHHIIPBX@ZA
	DD	FLAT:??_C@_0BD@IKPGOLHH@glTexSubImage3DEXT?$AA@
	DD	FLAT:?pglTexSubImage3D@@3P6GXIHHHHHHHIIPBX@ZA
	DD	FLAT:??_C@_0BH@LLLKENMO@glCopyTexSubImage3DEXT?$AA@
	DD	FLAT:?pglCopyTexSubImage3D@@3P6GXIHHHHHHHH@ZA
	DD	00H
	DD	00H
?blendseparatefunc@@3PAUdllfunc_s@@A DD FLAT:??_C@_0BH@GFPLHCKF@glBlendFuncSeparateEXT?$AA@ ; blendseparatefunc
	DD	FLAT:?pglBlendFuncSeparate@@3P6GXIIII@ZA
	DD	00H
	DD	00H
?blendequationfuncs@@3PAUdllfunc_s@@A DD FLAT:??_C@_0BD@CFOJJHII@glBlendEquationEXT?$AA@ ; blendequationfuncs
	DD	FLAT:?pglBlendEquationEXT@@3P6GXI@ZA
	DD	00H
	DD	00H
?shaderobjectsfuncs@@3PAUdllfunc_s@@A DD FLAT:??_C@_0BC@MJFNICLA@glDeleteObjectARB?$AA@ ; shaderobjectsfuncs
	DD	FLAT:?pglDeleteObjectARB@@3P6GXI@ZA
	DD	FLAT:??_C@_0P@LFBJNCKO@glGetHandleARB?$AA@
	DD	FLAT:?pglGetHandleARB@@3P6GII@ZA
	DD	FLAT:??_C@_0BC@OPBLIDAI@glDetachObjectARB?$AA@
	DD	FLAT:?pglDetachObjectARB@@3P6GXII@ZA
	DD	FLAT:??_C@_0BI@FMNPOEGE@glCreateShaderObjectARB?$AA@
	DD	FLAT:?pglCreateShaderObjectARB@@3P6GII@ZA
	DD	FLAT:??_C@_0BC@MCCOFGJG@glShaderSourceARB?$AA@
	DD	FLAT:?pglShaderSourceARB@@3P6GXIHPAPBDPBH@ZA
	DD	FLAT:??_C@_0BD@BEDGBOPM@glCompileShaderARB?$AA@
	DD	FLAT:?pglCompileShaderARB@@3P6GXI@ZA
	DD	FLAT:??_C@_0BJ@KGMBEPBI@glCreateProgramObjectARB?$AA@
	DD	FLAT:?pglCreateProgramObjectARB@@3P6GIXZA
	DD	FLAT:??_C@_0BC@GINLBKLJ@glAttachObjectARB?$AA@
	DD	FLAT:?pglAttachObjectARB@@3P6GXII@ZA
	DD	FLAT:??_C@_0BB@HPIAOOAG@glLinkProgramARB?$AA@
	DD	FLAT:?pglLinkProgramARB@@3P6GXI@ZA
	DD	FLAT:??_C@_0BG@JEOFPDIM@glUseProgramObjectARB?$AA@
	DD	FLAT:?pglUseProgramObjectARB@@3P6GXI@ZA
	DD	FLAT:??_C@_0BF@BGDHGNPG@glValidateProgramARB?$AA@
	DD	FLAT:?pglValidateProgramARB@@3P6GXI@ZA
	DD	FLAT:??_C@_0P@KFNIAEEC@glUniform1fARB?$AA@
	DD	FLAT:?pglUniform1fARB@@3P6GXHM@ZA
	DD	FLAT:??_C@_0P@CDEMHGOM@glUniform2fARB?$AA@
	DD	FLAT:?pglUniform2fARB@@3P6GXHMM@ZA
	DD	FLAT:??_C@_0P@OIBAKFEJ@glUniform3fARB?$AA@
	DD	FLAT:?pglUniform3fARB@@3P6GXHMMM@ZA
	DD	FLAT:??_C@_0P@PFBFJFPB@glUniform4fARB?$AA@
	DD	FLAT:?pglUniform4fARB@@3P6GXHMMMM@ZA
	DD	FLAT:??_C@_0P@CHIIJDJD@glUniform1iARB?$AA@
	DD	FLAT:?pglUniform1iARB@@3P6GXHH@ZA
	DD	FLAT:??_C@_0P@KBBMOBDN@glUniform2iARB?$AA@
	DD	FLAT:?pglUniform2iARB@@3P6GXHHH@ZA
	DD	FLAT:??_C@_0P@GKEADCJI@glUniform3iARB?$AA@
	DD	FLAT:?pglUniform3iARB@@3P6GXHHHH@ZA
	DD	FLAT:??_C@_0P@HHEFACCA@glUniform4iARB?$AA@
	DD	FLAT:?pglUniform4iARB@@3P6GXHHHHH@ZA
	DD	FLAT:??_C@_0BA@BHLDOKKI@glUniform1fvARB?$AA@
	DD	FLAT:?pglUniform1fvARB@@3P6GXHHPBM@ZA
	DD	FLAT:??_C@_0BA@CGFLPADF@glUniform2fvARB?$AA@
	DD	FLAT:?pglUniform2fvARB@@3P6GXHHPBM@ZA
	DD	FLAT:??_C@_0BA@IACMPLIB@glUniform3fvARB?$AA@
	DD	FLAT:?pglUniform3fvARB@@3P6GXHHPBM@ZA
	DD	FLAT:??_C@_0BA@EFILMFAP@glUniform4fvARB?$AA@
	DD	FLAT:?pglUniform4fvARB@@3P6GXHHPBM@ZA
	DD	FLAT:??_C@_0BA@OGOFFIHN@glUniform1ivARB?$AA@
	DD	FLAT:?pglUniform1ivARB@@3P6GXHHPBH@ZA
	DD	FLAT:??_C@_0BA@NHANECOA@glUniform2ivARB?$AA@
	DD	FLAT:?pglUniform2ivARB@@3P6GXHHPBH@ZA
	DD	FLAT:??_C@_0BA@HBHKEJFE@glUniform3ivARB?$AA@
	DD	FLAT:?pglUniform3ivARB@@3P6GXHHPBH@ZA
	DD	FLAT:??_C@_0BA@LENNHHNK@glUniform4ivARB?$AA@
	DD	FLAT:?pglUniform4ivARB@@3P6GXHHPBH@ZA
	DD	FLAT:??_C@_0BG@KPIOAAJO@glUniformMatrix2fvARB?$AA@
	DD	FLAT:?pglUniformMatrix2fvARB@@3P6GXHHEPBM@ZA
	DD	FLAT:??_C@_0BG@JPJALCK@glUniformMatrix3fvARB?$AA@
	DD	FLAT:?pglUniformMatrix3fvARB@@3P6GXHHEPBM@ZA
	DD	FLAT:??_C@_0BG@MMFODFKE@glUniformMatrix4fvARB?$AA@
	DD	FLAT:?pglUniformMatrix4fvARB@@3P6GXHHEPBM@ZA
	DD	FLAT:??_C@_0BK@HCFOBODO@glGetObjectParameterfvARB?$AA@
	DD	FLAT:?pglGetObjectParameterfvARB@@3P6GXIIPAM@ZA
	DD	FLAT:??_C@_0BK@IDAIKMOL@glGetObjectParameterivARB?$AA@
	DD	FLAT:?pglGetObjectParameterivARB@@3P6GXIIPAH@ZA
	DD	FLAT:??_C@_0BA@FLIOBLOG@glGetInfoLogARB?$AA@
	DD	FLAT:?pglGetInfoLogARB@@3P6GXIHPAHPAD@ZA
	DD	FLAT:??_C@_0BI@KFAABOIL@glGetAttachedObjectsARB?$AA@
	DD	FLAT:?pglGetAttachedObjectsARB@@3P6GXIHPAHPAI@ZA
	DD	FLAT:??_C@_0BI@CAFPPHDC@glGetUniformLocationARB?$AA@
	DD	FLAT:?pglGetUniformLocationARB@@3P6GHIPBD@ZA
	DD	FLAT:??_C@_0BG@FNEOAGIK@glGetActiveUniformARB?$AA@
	DD	FLAT:?pglGetActiveUniformARB@@3P6GXIIHPAH0PAIPAD@ZA
	DD	FLAT:??_C@_0BC@KKIJAHAK@glGetUniformfvARB?$AA@
	DD	FLAT:?pglGetUniformfvARB@@3P6GXIHPAM@ZA
	DD	FLAT:??_C@_0BC@FLNPLFNP@glGetUniformivARB?$AA@
	DD	FLAT:?pglGetUniformivARB@@3P6GXIHPAH@ZA
	DD	FLAT:??_C@_0BF@OBGOKFNE@glGetShaderSourceARB?$AA@
	DD	FLAT:?pglGetShaderSourceARB@@3P6GXIHPAHPAD@ZA
	DD	FLAT:??_C@_0BJ@KNOILOPF@glVertexAttribPointerARB?$AA@
	DD	FLAT:?pglVertexAttribPointerARB@@3P6GXIHIEHPBX@ZA
	DD	FLAT:??_C@_0BN@FKABDPBF@glEnableVertexAttribArrayARB?$AA@
	DD	FLAT:?pglEnableVertexAttribArrayARB@@3P6GXI@ZA
	DD	FLAT:??_C@_0BO@HGKLJN@glDisableVertexAttribArrayARB?$AA@
	DD	FLAT:?pglDisableVertexAttribArrayARB@@3P6GXI@ZA
	DD	FLAT:??_C@_0BI@HAONMJFP@glBindAttribLocationARB?$AA@
	DD	FLAT:?pglBindAttribLocationARB@@3P6GXIIPBD@ZA
	DD	FLAT:??_C@_0BF@NFLELGHN@glGetActiveAttribARB?$AA@
	DD	FLAT:?pglGetActiveAttribARB@@3P6GXIIHPAH0PAIPAD@ZA
	DD	FLAT:??_C@_0BH@BINIAJMB@glGetAttribLocationARB?$AA@
	DD	FLAT:?pglGetAttribLocationARB@@3P6GHIPBD@ZA
	DD	FLAT:??_C@_0BB@MIJLCBCJ@glVertexAttrib2f?$AA@
	DD	FLAT:?pglVertexAttrib2fARB@@3P6GXIMM@ZA
	DD	FLAT:??_C@_0BC@DLBPNNDN@glVertexAttrib2fv?$AA@
	DD	FLAT:?pglVertexAttrib2fvARB@@3P6GXIPBM@ZA
	DD	FLAT:??_C@_0BC@IDKDLKFI@glVertexAttrib3fv?$AA@
	DD	FLAT:?pglVertexAttrib3fvARB@@3P6GXIPBM@ZA
	DD	FLAT:??_C@_0BB@MMBGFNJL@glVertexAttrib4f?$AA@
	DD	FLAT:?pglVertexAttrib4fARB@@3P6GXIMMMM@ZA
	DD	FLAT:??_C@_0BC@BOHEICOB@glVertexAttrib4fv?$AA@
	DD	FLAT:?pglVertexAttrib4fvARB@@3P6GXIPBM@ZA
	DD	FLAT:??_C@_0BD@PHPFILMB@glVertexAttrib4ubv?$AA@
	DD	FLAT:?pglVertexAttrib4ubvARB@@3P6GXIPBE@ZA
	DD	00H
	DD	00H
?vertexshaderfuncs@@3PAUdllfunc_s@@A DD FLAT:??_C@_0BJ@KNOILOPF@glVertexAttribPointerARB?$AA@ ; vertexshaderfuncs
	DD	FLAT:?pglVertexAttribPointerARB@@3P6GXIHIEHPBX@ZA
	DD	FLAT:??_C@_0BN@FKABDPBF@glEnableVertexAttribArrayARB?$AA@
	DD	FLAT:?pglEnableVertexAttribArrayARB@@3P6GXI@ZA
	DD	FLAT:??_C@_0BO@HGKLJN@glDisableVertexAttribArrayARB?$AA@
	DD	FLAT:?pglDisableVertexAttribArrayARB@@3P6GXI@ZA
	DD	FLAT:??_C@_0BI@HAONMJFP@glBindAttribLocationARB?$AA@
	DD	FLAT:?pglBindAttribLocationARB@@3P6GXIIPBD@ZA
	DD	FLAT:??_C@_0BF@NFLELGHN@glGetActiveAttribARB?$AA@
	DD	FLAT:?pglGetActiveAttribARB@@3P6GXIIHPAH0PAIPAD@ZA
	DD	FLAT:??_C@_0BH@BINIAJMB@glGetAttribLocationARB?$AA@
	DD	FLAT:?pglGetAttribLocationARB@@3P6GHIPBD@ZA
	DD	00H
	DD	00H
?vbofuncs@@3PAUdllfunc_s@@A DD FLAT:??_C@_0BA@FDIFNALK@glBindBufferARB?$AA@ ; vbofuncs
	DD	FLAT:?pglBindBufferARB@@3P6GXII@ZA
	DD	FLAT:??_C@_0BD@FPFIIGCI@glDeleteBuffersARB?$AA@
	DD	FLAT:?pglDeleteBuffersARB@@3P6GXHPBI@ZA
	DD	FLAT:??_C@_0BA@COIMKEED@glGenBuffersARB?$AA@
	DD	FLAT:?pglGenBuffersARB@@3P6GXHPAI@ZA
	DD	FLAT:??_C@_0O@BCHKDNEE@glIsBufferARB?$AA@
	DD	FLAT:?pglIsBufferARB@@3P6GEI@ZA
	DD	FLAT:??_C@_0P@GLCCGPAH@glMapBufferARB?$AA@
	DD	FLAT:?pglMapBufferARB@@3P6GPAXII@ZA
	DD	FLAT:??_C@_0BB@IODLHHEP@glUnmapBufferARB?$AA@
	DD	FLAT:?pglUnmapBufferARB@@3P6GEI@ZA
	DD	FLAT:??_C@_0BA@HLIGBCAN@glBufferDataARB?$AA@
	DD	FLAT:?pglBufferDataARB@@3P6GXIHPBXI@ZA
	DD	FLAT:??_C@_0BD@KFMFAAJP@glBufferSubDataARB?$AA@
	DD	FLAT:?pglBufferSubDataARB@@3P6GXIHHPBX@ZA
	DD	00H
	DD	00H
?vaofuncs@@3PAUdllfunc_s@@A DD FLAT:??_C@_0BC@LHBAHFAN@glBindVertexArray?$AA@ ; vaofuncs
	DD	FLAT:?pglBindVertexArray@@3P6GXI@ZA
	DD	FLAT:??_C@_0BF@BMPCJLEF@glDeleteVertexArrays?$AA@
	DD	FLAT:?pglDeleteVertexArrays@@3P6GXHPBI@ZA
	DD	FLAT:??_C@_0BC@EPJLBJBJ@glGenVertexArrays?$AA@
	DD	FLAT:?pglGenVertexArrays@@3P6GXHPBI@ZA
	DD	FLAT:??_C@_0BA@ODJEGGAE@glIsVertexArray?$AA@
	DD	FLAT:?pglIsVertexArray@@3P6GEI@ZA
	DD	00H
	DD	00H
?fbofuncs@@3PAUdllfunc_s@@A DD FLAT:??_C@_0BB@DGGHKKOH@glIsRenderbuffer?$AA@ ; fbofuncs
	DD	FLAT:?pglIsRenderbuffer@@3P6GEI@ZA
	DD	FLAT:??_C@_0BD@EPOPJGFA@glBindRenderbuffer?$AA@
	DD	FLAT:?pglBindRenderbuffer@@3P6GXII@ZA
	DD	FLAT:??_C@_0BG@KKOKEJDE@glDeleteRenderbuffers?$AA@
	DD	FLAT:?pglDeleteRenderbuffers@@3P6GXHPBI@ZA
	DD	FLAT:??_C@_0BD@MIGEDNGJ@glGenRenderbuffers?$AA@
	DD	FLAT:?pglGenRenderbuffers@@3P6GXHPAI@ZA
	DD	FLAT:??_C@_0BG@EOIILGMJ@glRenderbufferStorage?$AA@
	DD	FLAT:?pglRenderbufferStorage@@3P6GXIIHH@ZA
	DD	FLAT:??_C@_0BN@FGKAECKO@glGetRenderbufferParameteriv?$AA@
	DD	FLAT:?pglGetRenderbufferParameteriv@@3P6GXIIPAH@ZA
	DD	FLAT:??_C@_0BA@FGBIJCNH@glIsFramebuffer?$AA@
	DD	FLAT:?pglIsFramebuffer@@3P6GEI@ZA
	DD	FLAT:??_C@_0BC@CJMIBNO@glBindFramebuffer?$AA@
	DD	FLAT:?pglBindFramebuffer@@3P6GXII@ZA
	DD	FLAT:??_C@_0BF@DJNJENP@glDeleteFramebuffers?$AA@
	DD	FLAT:?pglDeleteFramebuffers@@3P6GXHPBI@ZA
	DD	FLAT:??_C@_0BC@FAPEBGID@glGenFramebuffers?$AA@
	DD	FLAT:?pglGenFramebuffers@@3P6GXHPAI@ZA
	DD	FLAT:??_C@_0BJ@GIOLHEAD@glCheckFramebufferStatus?$AA@
	DD	FLAT:?pglCheckFramebufferStatus@@3P6GII@ZA
	DD	FLAT:??_C@_0BH@JAMDNNBM@glFramebufferTexture1D?$AA@
	DD	FLAT:?pglFramebufferTexture1D@@3P6GXIIIIH@ZA
	DD	FLAT:??_C@_0BH@JCIFGDEF@glFramebufferTexture2D?$AA@
	DD	FLAT:?pglFramebufferTexture2D@@3P6GXIIIIH@ZA
	DD	FLAT:??_C@_0BH@JDEHAJHC@glFramebufferTexture3D?$AA@
	DD	FLAT:?pglFramebufferTexture3D@@3P6GXIIIIHH@ZA
	DD	FLAT:??_C@_0BK@OJDINAOA@glFramebufferRenderbuffer?$AA@
	DD	FLAT:?pglFramebufferRenderbuffer@@3P6GXIIII@ZA
	DD	FLAT:??_C@_0CG@KLDGJEON@glGetFramebufferAttachmentParame@
	DD	FLAT:?pglGetFramebufferAttachmentParameteriv@@3P6GXIIIPAH@ZA
	DD	FLAT:??_C@_0BB@BHNIMGDM@glGenerateMipmap?$AA@
	DD	FLAT:?pglGenerateMipmap@@3P6GXI@ZA
	DD	00H
	DD	00H
?occlusionfunc@@3PAUdllfunc_s@@A DD FLAT:??_C@_0BA@BJHFNMK@glGenQueriesARB?$AA@ ; occlusionfunc
	DD	FLAT:?pglGenQueriesARB@@3P6GXHPAI@ZA
	DD	FLAT:??_C@_0BD@HAEDHPKB@glDeleteQueriesARB?$AA@
	DD	FLAT:?pglDeleteQueriesARB@@3P6GXHPBI@ZA
	DD	FLAT:??_C@_0N@HKMIDCPF@glIsQueryARB?$AA@
	DD	FLAT:?pglIsQueryARB@@3P6GEI@ZA
	DD	FLAT:??_C@_0BA@LPKBABEB@glBeginQueryARB?$AA@
	DD	FLAT:?pglBeginQueryARB@@3P6GXII@ZA
	DD	FLAT:??_C@_0O@EFJDHGFG@glEndQueryARB?$AA@
	DD	FLAT:?pglEndQueryARB@@3P6GXI@ZA
	DD	FLAT:??_C@_0BA@DPEEILJC@glGetQueryivARB?$AA@
	DD	FLAT:?pglGetQueryivARB@@3P6GXIIPAH@ZA
	DD	FLAT:??_C@_0BG@EDFKPCGN@glGetQueryObjectivARB?$AA@
	DD	FLAT:?pglGetQueryObjectivARB@@3P6GXIIPAH@ZA
	DD	FLAT:??_C@_0BH@OOHKBDPD@glGetQueryObjectuivARB?$AA@
	DD	FLAT:?pglGetQueryObjectuivARB@@3P6GXIIPAI@ZA
	DD	00H
	DD	00H
?nv_dither_control_func@@3PAUdllfunc_s@@A DD FLAT:??_C@_0CB@FDKGLPFF@glAlphaToCoverageDitherControlNV@ ; nv_dither_control_func
	DD	FLAT:?pglAlphaToCoverageDitherControlNV@@3P6GXI@ZA
	DD	00H
	DD	00H
_DATA	ENDS
PUBLIC	??_H@YGXPAXIIP6EPAX0@Z@Z			; `vector constructor iterator'
PUBLIC	??__G@YGXPAX0IIP6EPAX00@Z@Z			; `vector copy constructor iterator'
PUBLIC	??0Vector@@QAE@XZ				; Vector::Vector
PUBLIC	??0mplane_s@@QAE@XZ				; mplane_s::mplane_s
PUBLIC	??0CFrustum@@QAE@XZ				; CFrustum::CFrustum
PUBLIC	??0ref_instance_t@@QAE@XZ			; ref_instance_t::ref_instance_t
PUBLIC	??0glState_t@@QAE@XZ				; glState_t::glState_t
PUBLIC	?R_Init@@YA_NXZ					; R_Init
PUBLIC	?R_Shutdown@@YAXXZ				; R_Shutdown
PUBLIC	?GL_Support@@YA_NH@Z				; GL_Support
PUBLIC	?GL_CheckForErrors_@@YAXPBDH@Z			; GL_CheckForErrors_
PUBLIC	?GL_SetExtension@@YAXHH@Z			; GL_SetExtension
PUBLIC	?GL_CheckExtension@@YAXPBDPBUdllfunc_s@@0H_N@Z	; GL_CheckExtension
PUBLIC	?R_CreateSpotLightTexture@@YAXXZ		; R_CreateSpotLightTexture
PUBLIC	?glState@@3UglState_t@@A			; glState
PUBLIC	??_C@_0BG@JJFGPKNN@?$FO1OpenGL?5Error?3?$FO7?5?$CFs?6?$AA@ ; `string'
PUBLIC	??_C@_0BI@BELGKLBK@?$FO3OpenGL?5Warning?3?$FO7?5?$CFs?6?$AA@ ; `string'
PUBLIC	??_C@_0BH@ONCPBIMA@OpenGL?5Perfomance?3?5?$CFs?6?$AA@ ; `string'
PUBLIC	??_C@_0M@GEPHGIFJ@OpenGL?3?5?$CFs?6?$AA@	; `string'
PUBLIC	??_C@_0CH@EIDGMENE@GL_SetExtension?3?5invalid?5extensi@ ; `string'
PUBLIC	??_C@_0CN@NLBPCJDK@?$FO3Error?3?$FO7?5GL_Support?3?5invalid?5e@ ; `string'
PUBLIC	??_C@_0BH@HNGPIHKB@GL_CheckExtension?3?5?$CFs?5?$AA@ ; `string'
PUBLIC	??_C@_0M@OLAKKIMP@?9?5?$FO1failed?6?$AA@	; `string'
PUBLIC	??_C@_01HIHLOKLC@1?$AA@				; `string'
PUBLIC	??_C@_0M@DMNJGNM@?9?5disabled?6?$AA@		; `string'
PUBLIC	??_C@_0N@EEFGEEA@?9?5?$FO2enabled?6?$AA@	; `string'
PUBLIC	??_C@_0FB@NLAEKKJG@too?5old?5version?5of?5Xash3D?5engine@ ; `string'
PUBLIC	??_C@_0N@LPDIHFOO@OpenGL?51?41?40?$AA@		; `string'
PUBLIC	??_C@_0L@HLFEJDBH@OpenGL?52?40?$AA@		; `string'
PUBLIC	??_C@_0DJ@JKHHHBAA@OpenGL?51?40?5can?8t?5be?5installed?4?5C@ ; `string'
PUBLIC	??_C@_07MPJPGECB@geforce?$AA@			; `string'
PUBLIC	??_C@_09IKHEJAGC@quadro?5fx?$AA@		; `string'
PUBLIC	??_C@_05ONNLOCAH@rv770?$AA@			; `string'
PUBLIC	??_C@_09BADJHFGO@radeon?5hd?$AA@		; `string'
PUBLIC	??_C@_07FHGIJLKP@eah4850?$AA@			; `string'
PUBLIC	??_C@_07FEOMEPMB@eah4870?$AA@			; `string'
PUBLIC	??_C@_06CHDCBPE@radeon?$AA@			; `string'
PUBLIC	??_C@_0BA@JPAPGMOA@GL_VERSION?3?5?$CFg?6?$AA@	; `string'
PUBLIC	??_C@_0BE@ILGNIII@gl_drawrangeelments?$AA@	; `string'
PUBLIC	??_C@_0BL@BBECEKLJ@GL_EXT_draw_range_elements?$AA@ ; `string'
PUBLIC	??_C@_0EE@DFOMCABP@GL_EXT_draw_range_elements?5not?5s@ ; `string'
PUBLIC	??_C@_0BE@EJOPKNEG@gl_arb_multitexture?$AA@	; `string'
PUBLIC	??_C@_0BE@MEMOPMEA@GL_ARB_multitexture?$AA@	; `string'
PUBLIC	??_C@_0EB@FFGNEIDP@GL_ARB_multitexture?5is?5not?5suppo@ ; `string'
PUBLIC	??_C@_0O@BKBMFEAO@gl_texture_3d?$AA@		; `string'
PUBLIC	??_C@_0BB@LCNIEGEB@GL_EXT_texture3D?$AA@	; `string'
PUBLIC	??_C@_0EC@GNIDDJLC@GL_EXT_texture3D?5reported?5bogus?5@ ; `string'
PUBLIC	??_C@_0BE@IGFCPAI@gl_texture_2d_array?$AA@	; `string'
PUBLIC	??_C@_0BF@NFIKFJJJ@GL_EXT_texture_array?$AA@	; `string'
PUBLIC	??_C@_0EE@JCCAJEJP@GL_EXT_texture_array?5not?5support@ ; `string'
PUBLIC	??_C@_0BF@HBKHGAN@gl_occlusion_queries?$AA@	; `string'
PUBLIC	??_C@_0BH@NKOBMOPI@GL_ARB_occlusion_query?$AA@	; `string'
PUBLIC	??_C@_0BC@GHPDFHE@gl_separate_blend?$AA@	; `string'
PUBLIC	??_C@_0BL@OHIMOMCA@GL_EXT_blend_func_separate?$AA@ ; `string'
PUBLIC	??_C@_0BD@HBEJEDLE@gl_texture_cubemap?$AA@	; `string'
PUBLIC	??_C@_0BI@GGDPEJMJ@GL_ARB_texture_cube_map?$AA@	; `string'
PUBLIC	??_C@_0BE@MLPLJBFM@gl_seamless_cubemap?$AA@	; `string'
PUBLIC	??_C@_0BJ@HMEOFOCO@GL_ARB_seamless_cube_map?$AA@ ; `string'
PUBLIC	??_C@_0FP@IKDABNBB@GL_ARB_texture_cube_map?5not?5supp@ ; `string'
PUBLIC	??_C@_0BA@OFKFFJCC@gl_texture_npot?$AA@		; `string'
PUBLIC	??_C@_0CA@IICOLDCN@GL_ARB_texture_non_power_of_two?$AA@ ; `string'
PUBLIC	??_C@_0BA@DEGJADPD@gl_draw_buffers?$AA@		; `string'
PUBLIC	??_C@_0BE@PIDMLBFI@GL_ARB_draw_buffers?$AA@	; `string'
PUBLIC	??_C@_0BI@NOKPGMMJ@gl_vertex_buffer_object?$AA@	; `string'
PUBLIC	??_C@_0BM@OOMEFFAE@GL_ARB_vertex_buffer_object?$AA@ ; `string'
PUBLIC	??_C@_0ED@OKFICHLO@GL_ARB_vertex_buffer_object?5not?5@ ; `string'
PUBLIC	??_C@_0BH@CDFMEDGE@gl_vertex_array_object?$AA@	; `string'
PUBLIC	??_C@_0BL@PNJKGHIL@GL_ARB_vertex_array_object?$AA@ ; `string'
PUBLIC	??_C@_0EC@JODGDGLN@GL_ARB_vertex_array_object?5not?5s@ ; `string'
PUBLIC	??_C@_0BD@OOEOAHDF@gl_ext_gpu_shader4?$AA@	; `string'
PUBLIC	??_C@_0BD@MHBCPECK@GL_EXT_gpu_shader4?$AA@	; `string'
PUBLIC	??_C@_0EL@BJHOLMP@GL_EXT_gpu_shader4?5not?5support?4?5@ ; `string'
PUBLIC	??_C@_0BE@OHIPHHMJ@GL_ARB_debug_output?$AA@	; `string'
PUBLIC	??_C@_0BG@LHADCHBD@gl_a2c_dither_control?$AA@	; `string'
PUBLIC	??_C@_0CH@BCGAPLPH@GL_NV_alpha_to_coverage_dither_c@ ; `string'
PUBLIC	??_C@_0BB@MKKMKLHO@gl_shaderobjects?$AA@	; `string'
PUBLIC	??_C@_0BG@OLLFAEMA@GL_ARB_shader_objects?$AA@	; `string'
PUBLIC	??_C@_0DN@NIGFAOGF@GL_ARB_shader_objects?5not?5suppor@ ; `string'
PUBLIC	??_C@_0BE@DCJHHPDO@gl_shading_language?$AA@	; `string'
PUBLIC	??_C@_0BM@IABMMANC@GL_ARB_shading_language_100?$AA@ ; `string'
PUBLIC	??_C@_0ED@DKJDGDBI@GL_ARB_shading_language_100?5not?5@ ; `string'
PUBLIC	??_C@_0BA@EBMBABPM@gl_vertexshader?$AA@		; `string'
PUBLIC	??_C@_0BF@GNLBPIJF@GL_ARB_vertex_shader?$AA@	; `string'
PUBLIC	??_C@_0DM@LFGGMPDD@GL_ARB_vertex_shader?5not?5support@ ; `string'
PUBLIC	??_C@_0P@HIBILMAM@gl_pixelshader?$AA@		; `string'
PUBLIC	??_C@_0BH@MOFIMEJB@GL_ARB_fragment_shader?$AA@	; `string'
PUBLIC	??_C@_0DO@MLDGNPNK@GL_ARB_fragment_shader?5not?5suppo@ ; `string'
PUBLIC	??_C@_0BA@DAIBOLLA@gl_depthtexture?$AA@		; `string'
PUBLIC	??_C@_0BF@OKLDDGBF@GL_ARB_depth_texture?$AA@	; `string'
PUBLIC	??_C@_0O@IKEDELBI@gl_arb_shadow?$AA@		; `string'
PUBLIC	??_C@_0O@LPGJHGJB@GL_ARB_shadow?$AA@		; `string'
PUBLIC	??_C@_0FD@EOLBHNMH@GL_ARB_depth_texture?5or?5GL_ARB_s@ ; `string'
PUBLIC	??_C@_0BA@NPKGONNF@gl_framebuffers?$AA@		; `string'
PUBLIC	??_C@_0BK@EJHLNENJ@GL_ARB_framebuffer_object?$AA@ ; `string'
PUBLIC	??_C@_0BC@NKKPIGPD@PARANOIA_HACKS_V1?$AA@	; `string'
PUBLIC	??_C@_0DL@GPIOBNPH@Hardware?5Skinning?5not?5supported?4@ ; `string'
PUBLIC	??_C@_0DD@GJONFIL@Hardware?5Skinning?5has?5a?5limitati@ ; `string'
PUBLIC	??_C@_0CL@PHMMBEDK@GL_InitExtensions?3?5max?5vertex?5un@ ; `string'
PUBLIC	??_C@_0CK@DDCFKOFE@GL_InitExtensions?3?5max?5varying?5f@ ; `string'
PUBLIC	??_C@_0CI@MBCGABNH@GL_InitExtensions?3?5MaxSkinned?5bo@ ; `string'
PUBLIC	??_C@_0L@EMAIBBOM@?$CKspotlight?$AA@		; `string'
PUBLIC	??_C@_06HODLCKLM@?$CKacont?$AA@			; `string'
PUBLIC	??_C@_0L@JMLEAHMH@?$CKwhiteCube?$AA@		; `string'
PUBLIC	??_C@_08KPIGECMN@?$CKdefault?$AA@		; `string'
PUBLIC	??_C@_06LLGHKAEB@?$CKwhite?$AA@			; `string'
PUBLIC	??_C@_05LFMGNIOO@?$CKgray?$AA@			; `string'
PUBLIC	??_C@_06FOAKHCJN@?$CKdepth?$AA@			; `string'
PUBLIC	??_C@_0BK@PEBJMJDG@gfx?1water?1water_normal_?$CFi?$AA@ ; `string'
PUBLIC	??_C@_0P@MNCNEOPO@?$CK?$CK?5GL?5ERROR?5?$CK?$CK?$AA@ ; `string'
PUBLIC	??_C@_00CNPNBAHC@?$AA@				; `string'
PUBLIC	??_C@_0DM@PGKPLHEG@GL?5CALLBACK?3?5?$CFs?5type?5?$DN?50x?$CFx?0?5sev@ ; `string'
PUBLIC	??_C@_0M@HHCNIMA@gl_renderer?$AA@		; `string'
PUBLIC	??_C@_0BC@DLCDMCHH@GL_STACK_OVERFLOW?$AA@	; `string'
PUBLIC	??_C@_0BD@KAJAFKFC@GL_STACK_UNDERFLOW?$AA@	; `string'
PUBLIC	??_C@_0BA@LLPLHEDK@GL_INVALID_ENUM?$AA@		; `string'
PUBLIC	??_C@_0BB@HDIPJELP@GL_INVALID_VALUE?$AA@	; `string'
PUBLIC	??_C@_0BF@NFNGKHIL@GL_INVALID_OPERATION?$AA@	; `string'
PUBLIC	??_C@_0BB@JMBJBKGI@GL_OUT_OF_MEMORY?$AA@	; `string'
PUBLIC	??_C@_0O@KGJDDGD@UNKNOWN?5ERROR?$AA@		; `string'
PUBLIC	??_C@_0CI@CEFKNKJA@?$FO3OpenGL?5Error?3?$FO7?5?$CFs?5?$CIcalled?5at?5@ ; `string'
PUBLIC	__real@00000000
PUBLIC	__real@3f000000
PUBLIC	__real@3ff921fb54442d18
PUBLIC	__real@41200000
PUBLIC	__real@437f0000
EXTRN	??_U@YAPAXI@Z:PROC				; operator new[]
EXTRN	??_V@YAXPAX@Z:PROC				; operator delete[]
EXTRN	_memset:PROC
EXTRN	_cos:PROC
EXTRN	_sqrt:PROC
EXTRN	??0matrix4x4@@QAE@XZ:PROC			; matrix4x4::matrix4x4
EXTRN	?Q_atof@@YAMPBD@Z:PROC				; Q_atof
EXTRN	?Q_strstr@@YAPADPBD0@Z:PROC			; Q_strstr
EXTRN	?Q_stristr@@YAPADPBD0@Z:PROC			; Q_stristr
EXTRN	?Q_snprintf@@YAHPADIPBDZZ:PROC			; Q_snprintf
EXTRN	?va@@YAPADPBDZZ:PROC				; va
EXTRN	?ALERT@@YAXW4ALERT_TYPE@@PADZZ:PROC		; ALERT
EXTRN	?FreeMeshCacheVL@CStudioModelRenderer@@QAEXXZ:PROC ; CStudioModelRenderer::FreeMeshCacheVL
EXTRN	?DestroyAllModelInstances@CStudioModelRenderer@@QAEXXZ:PROC ; CStudioModelRenderer::DestroyAllModelInstances
EXTRN	?R_GrassInit@@YAXXZ:PROC			; R_GrassInit
EXTRN	?R_GrassShutdown@@YAXXZ:PROC			; R_GrassShutdown
EXTRN	?R_InitRefState@@YAXXZ:PROC			; R_InitRefState
EXTRN	?R_FreeCinematics@@YAXXZ:PROC			; R_FreeCinematics
EXTRN	?InitPostEffects@@YAXXZ:PROC			; InitPostEffects
EXTRN	?GL_InitRandomTable@@YAXXZ:PROC			; GL_InitRandomTable
EXTRN	?GL_InitGPUShaders@@YAXXZ:PROC			; GL_InitGPUShaders
EXTRN	?GL_FreeGPUShaders@@YAXXZ:PROC			; GL_FreeGPUShaders
EXTRN	?R_InitWeather@@YAXXZ:PROC			; R_InitWeather
EXTRN	?R_ResetWeather@@YAXXZ:PROC			; R_ResetWeather
EXTRN	@__security_check_cookie@4:PROC
EXTRN	__chkstk:PROC
EXTRN	?gEngfuncs@@3Ucl_enginefuncs_s@@A:BYTE		; gEngfuncs
EXTRN	?gRenderfuncs@@3Urender_api_s@@A:BYTE		; gRenderfuncs
EXTRN	?developer_level@@3HA:DWORD			; developer_level
EXTRN	?g_iXashEngineBuildNumber@@3HA:DWORD		; g_iXashEngineBuildNumber
EXTRN	?g_fRenderInitialized@@3HA:DWORD		; g_fRenderInitialized
EXTRN	?r_extensions@@3PAUcvar_s@@A:DWORD		; r_extensions
EXTRN	?gl_check_errors@@3PAUcvar_s@@A:DWORD		; gl_check_errors
EXTRN	?g_StudioRenderer@@3VCStudioModelRenderer@@A:BYTE ; g_StudioRenderer
EXTRN	?tr@@3Uref_globals_t@@A:BYTE			; tr
EXTRN	___security_cookie:DWORD
EXTRN	__fltused:DWORD
_BSS	SEGMENT
?glState@@3UglState_t@@A DB 01b6acH DUP (?)		; glState
_BSS	ENDS
CRT$XCU	SEGMENT
?glState$initializer$@@3P6AXXZA DD FLAT:??__EglState@@YAXXZ ; glState$initializer$
CRT$XCU	ENDS
;	COMDAT __real@437f0000
CONST	SEGMENT
__real@437f0000 DD 0437f0000r			; 255
CONST	ENDS
;	COMDAT __real@41200000
CONST	SEGMENT
__real@41200000 DD 041200000r			; 10
CONST	ENDS
;	COMDAT __real@3ff921fb54442d18
CONST	SEGMENT
__real@3ff921fb54442d18 DQ 03ff921fb54442d18r	; 1.5708
CONST	ENDS
;	COMDAT __real@3f000000
CONST	SEGMENT
__real@3f000000 DD 03f000000r			; 0.5
CONST	ENDS
;	COMDAT __real@00000000
CONST	SEGMENT
__real@00000000 DD 000000000r			; 0
CONST	ENDS
;	COMDAT ??_C@_0CI@CEFKNKJA@?$FO3OpenGL?5Error?3?$FO7?5?$CFs?5?$CIcalled?5at?5@
CONST	SEGMENT
??_C@_0CI@CEFKNKJA@?$FO3OpenGL?5Error?3?$FO7?5?$CFs?5?$CIcalled?5at?5@ DB '^'
	DB	'3OpenGL Error:^7 %s (called at %s:%i)', 0aH, 00H ; `string'
CONST	ENDS
;	COMDAT ??_C@_0O@KGJDDGD@UNKNOWN?5ERROR?$AA@
CONST	SEGMENT
??_C@_0O@KGJDDGD@UNKNOWN?5ERROR?$AA@ DB 'UNKNOWN ERROR', 00H ; `string'
CONST	ENDS
;	COMDAT ??_C@_0BB@JMBJBKGI@GL_OUT_OF_MEMORY?$AA@
CONST	SEGMENT
??_C@_0BB@JMBJBKGI@GL_OUT_OF_MEMORY?$AA@ DB 'GL_OUT_OF_MEMORY', 00H ; `string'
CONST	ENDS
;	COMDAT ??_C@_0BF@NFNGKHIL@GL_INVALID_OPERATION?$AA@
CONST	SEGMENT
??_C@_0BF@NFNGKHIL@GL_INVALID_OPERATION?$AA@ DB 'GL_INVALID_OPERATION', 00H ; `string'
CONST	ENDS
;	COMDAT ??_C@_0BB@HDIPJELP@GL_INVALID_VALUE?$AA@
CONST	SEGMENT
??_C@_0BB@HDIPJELP@GL_INVALID_VALUE?$AA@ DB 'GL_INVALID_VALUE', 00H ; `string'
CONST	ENDS
;	COMDAT ??_C@_0BA@LLPLHEDK@GL_INVALID_ENUM?$AA@
CONST	SEGMENT
??_C@_0BA@LLPLHEDK@GL_INVALID_ENUM?$AA@ DB 'GL_INVALID_ENUM', 00H ; `string'
CONST	ENDS
;	COMDAT ??_C@_0BD@KAJAFKFC@GL_STACK_UNDERFLOW?$AA@
CONST	SEGMENT
??_C@_0BD@KAJAFKFC@GL_STACK_UNDERFLOW?$AA@ DB 'GL_STACK_UNDERFLOW', 00H ; `string'
CONST	ENDS
;	COMDAT ??_C@_0BC@DLCDMCHH@GL_STACK_OVERFLOW?$AA@
CONST	SEGMENT
??_C@_0BC@DLCDMCHH@GL_STACK_OVERFLOW?$AA@ DB 'GL_STACK_OVERFLOW', 00H ; `string'
CONST	ENDS
;	COMDAT ??_C@_0M@HHCNIMA@gl_renderer?$AA@
CONST	SEGMENT
??_C@_0M@HHCNIMA@gl_renderer?$AA@ DB 'gl_renderer', 00H	; `string'
CONST	ENDS
;	COMDAT ??_C@_0DM@PGKPLHEG@GL?5CALLBACK?3?5?$CFs?5type?5?$DN?50x?$CFx?0?5sev@
CONST	SEGMENT
??_C@_0DM@PGKPLHEG@GL?5CALLBACK?3?5?$CFs?5type?5?$DN?50x?$CFx?0?5sev@ DB 'G'
	DB	'L CALLBACK: %s type = 0x%x, severity = 0x%x, message = %s', 0aH
	DB	00H						; `string'
CONST	ENDS
;	COMDAT ??_C@_00CNPNBAHC@?$AA@
CONST	SEGMENT
??_C@_00CNPNBAHC@?$AA@ DB 00H				; `string'
CONST	ENDS
;	COMDAT ??_C@_0P@MNCNEOPO@?$CK?$CK?5GL?5ERROR?5?$CK?$CK?$AA@
CONST	SEGMENT
??_C@_0P@MNCNEOPO@?$CK?$CK?5GL?5ERROR?5?$CK?$CK?$AA@ DB '** GL ERROR **', 00H ; `string'
CONST	ENDS
;	COMDAT ??_C@_0BK@PEBJMJDG@gfx?1water?1water_normal_?$CFi?$AA@
CONST	SEGMENT
??_C@_0BK@PEBJMJDG@gfx?1water?1water_normal_?$CFi?$AA@ DB 'gfx/water/wate'
	DB	'r_normal_%i', 00H				; `string'
CONST	ENDS
;	COMDAT ??_C@_06FOAKHCJN@?$CKdepth?$AA@
CONST	SEGMENT
??_C@_06FOAKHCJN@?$CKdepth?$AA@ DB '*depth', 00H	; `string'
CONST	ENDS
;	COMDAT ??_C@_05LFMGNIOO@?$CKgray?$AA@
CONST	SEGMENT
??_C@_05LFMGNIOO@?$CKgray?$AA@ DB '*gray', 00H		; `string'
CONST	ENDS
;	COMDAT ??_C@_06LLGHKAEB@?$CKwhite?$AA@
CONST	SEGMENT
??_C@_06LLGHKAEB@?$CKwhite?$AA@ DB '*white', 00H	; `string'
CONST	ENDS
;	COMDAT ??_C@_08KPIGECMN@?$CKdefault?$AA@
CONST	SEGMENT
??_C@_08KPIGECMN@?$CKdefault?$AA@ DB '*default', 00H	; `string'
CONST	ENDS
;	COMDAT ??_C@_0L@JMLEAHMH@?$CKwhiteCube?$AA@
CONST	SEGMENT
??_C@_0L@JMLEAHMH@?$CKwhiteCube?$AA@ DB '*whiteCube', 00H ; `string'
CONST	ENDS
;	COMDAT ??_C@_06HODLCKLM@?$CKacont?$AA@
CONST	SEGMENT
??_C@_06HODLCKLM@?$CKacont?$AA@ DB '*acont', 00H	; `string'
CONST	ENDS
;	COMDAT ??_C@_0L@EMAIBBOM@?$CKspotlight?$AA@
CONST	SEGMENT
??_C@_0L@EMAIBBOM@?$CKspotlight?$AA@ DB '*spotlight', 00H ; `string'
CONST	ENDS
;	COMDAT ??_C@_0CI@MBCGABNH@GL_InitExtensions?3?5MaxSkinned?5bo@
CONST	SEGMENT
??_C@_0CI@MBCGABNH@GL_InitExtensions?3?5MaxSkinned?5bo@ DB 'GL_InitExtens'
	DB	'ions: MaxSkinned bones %i', 0aH, 00H	; `string'
CONST	ENDS
;	COMDAT ??_C@_0CK@DDCFKOFE@GL_InitExtensions?3?5max?5varying?5f@
CONST	SEGMENT
??_C@_0CK@DDCFKOFE@GL_InitExtensions?3?5max?5varying?5f@ DB 'GL_InitExten'
	DB	'sions: max varying floats %i', 0aH, 00H	; `string'
CONST	ENDS
;	COMDAT ??_C@_0CL@PHMMBEDK@GL_InitExtensions?3?5max?5vertex?5un@
CONST	SEGMENT
??_C@_0CL@PHMMBEDK@GL_InitExtensions?3?5max?5vertex?5un@ DB 'GL_InitExten'
	DB	'sions: max vertex uniforms %i', 0aH, 00H	; `string'
CONST	ENDS
;	COMDAT ??_C@_0DD@GJONFIL@Hardware?5Skinning?5has?5a?5limitati@
CONST	SEGMENT
??_C@_0DD@GJONFIL@Hardware?5Skinning?5has?5a?5limitati@ DB 'Hardware Skin'
	DB	'ning has a limitation (max %i bones)', 0aH, 00H ; `string'
CONST	ENDS
;	COMDAT ??_C@_0DL@GPIOBNPH@Hardware?5Skinning?5not?5supported?4@
CONST	SEGMENT
??_C@_0DL@GPIOBNPH@Hardware?5Skinning?5not?5supported?4@ DB 'Hardware Ski'
	DB	'nning not supported. Custom renderer disabled', 0aH, 00H ; `string'
CONST	ENDS
;	COMDAT ??_C@_0BC@NKKPIGPD@PARANOIA_HACKS_V1?$AA@
CONST	SEGMENT
??_C@_0BC@NKKPIGPD@PARANOIA_HACKS_V1?$AA@ DB 'PARANOIA_HACKS_V1', 00H ; `string'
CONST	ENDS
;	COMDAT ??_C@_0BK@EJHLNENJ@GL_ARB_framebuffer_object?$AA@
CONST	SEGMENT
??_C@_0BK@EJHLNENJ@GL_ARB_framebuffer_object?$AA@ DB 'GL_ARB_framebuffer_'
	DB	'object', 00H				; `string'
CONST	ENDS
;	COMDAT ??_C@_0BA@NPKGONNF@gl_framebuffers?$AA@
CONST	SEGMENT
??_C@_0BA@NPKGONNF@gl_framebuffers?$AA@ DB 'gl_framebuffers', 00H ; `string'
CONST	ENDS
;	COMDAT ??_C@_0FD@EOLBHNMH@GL_ARB_depth_texture?5or?5GL_ARB_s@
CONST	SEGMENT
??_C@_0FD@EOLBHNMH@GL_ARB_depth_texture?5or?5GL_ARB_s@ DB 'GL_ARB_depth_t'
	DB	'exture or GL_ARB_shadow not supported. Dynamic shadows are di'
	DB	'sabled', 0aH, 00H				; `string'
CONST	ENDS
;	COMDAT ??_C@_0O@LPGJHGJB@GL_ARB_shadow?$AA@
CONST	SEGMENT
??_C@_0O@LPGJHGJB@GL_ARB_shadow?$AA@ DB 'GL_ARB_shadow', 00H ; `string'
CONST	ENDS
;	COMDAT ??_C@_0O@IKEDELBI@gl_arb_shadow?$AA@
CONST	SEGMENT
??_C@_0O@IKEDELBI@gl_arb_shadow?$AA@ DB 'gl_arb_shadow', 00H ; `string'
CONST	ENDS
;	COMDAT ??_C@_0BF@OKLDDGBF@GL_ARB_depth_texture?$AA@
CONST	SEGMENT
??_C@_0BF@OKLDDGBF@GL_ARB_depth_texture?$AA@ DB 'GL_ARB_depth_texture', 00H ; `string'
CONST	ENDS
;	COMDAT ??_C@_0BA@DAIBOLLA@gl_depthtexture?$AA@
CONST	SEGMENT
??_C@_0BA@DAIBOLLA@gl_depthtexture?$AA@ DB 'gl_depthtexture', 00H ; `string'
CONST	ENDS
;	COMDAT ??_C@_0DO@MLDGNPNK@GL_ARB_fragment_shader?5not?5suppo@
CONST	SEGMENT
??_C@_0DO@MLDGNPNK@GL_ARB_fragment_shader?5not?5suppo@ DB 'GL_ARB_fragmen'
	DB	't_shader not support. Custom renderer disabled', 0aH, 00H ; `string'
CONST	ENDS
;	COMDAT ??_C@_0BH@MOFIMEJB@GL_ARB_fragment_shader?$AA@
CONST	SEGMENT
??_C@_0BH@MOFIMEJB@GL_ARB_fragment_shader?$AA@ DB 'GL_ARB_fragment_shader'
	DB	00H						; `string'
CONST	ENDS
;	COMDAT ??_C@_0P@HIBILMAM@gl_pixelshader?$AA@
CONST	SEGMENT
??_C@_0P@HIBILMAM@gl_pixelshader?$AA@ DB 'gl_pixelshader', 00H ; `string'
CONST	ENDS
;	COMDAT ??_C@_0DM@LFGGMPDD@GL_ARB_vertex_shader?5not?5support@
CONST	SEGMENT
??_C@_0DM@LFGGMPDD@GL_ARB_vertex_shader?5not?5support@ DB 'GL_ARB_vertex_'
	DB	'shader not support. Custom renderer disabled', 0aH, 00H ; `string'
CONST	ENDS
;	COMDAT ??_C@_0BF@GNLBPIJF@GL_ARB_vertex_shader?$AA@
CONST	SEGMENT
??_C@_0BF@GNLBPIJF@GL_ARB_vertex_shader?$AA@ DB 'GL_ARB_vertex_shader', 00H ; `string'
CONST	ENDS
;	COMDAT ??_C@_0BA@EBMBABPM@gl_vertexshader?$AA@
CONST	SEGMENT
??_C@_0BA@EBMBABPM@gl_vertexshader?$AA@ DB 'gl_vertexshader', 00H ; `string'
CONST	ENDS
;	COMDAT ??_C@_0ED@DKJDGDBI@GL_ARB_shading_language_100?5not?5@
CONST	SEGMENT
??_C@_0ED@DKJDGDBI@GL_ARB_shading_language_100?5not?5@ DB 'GL_ARB_shading'
	DB	'_language_100 not support. Custom renderer disabled', 0aH, 00H ; `string'
CONST	ENDS
;	COMDAT ??_C@_0BM@IABMMANC@GL_ARB_shading_language_100?$AA@
CONST	SEGMENT
??_C@_0BM@IABMMANC@GL_ARB_shading_language_100?$AA@ DB 'GL_ARB_shading_la'
	DB	'nguage_100', 00H				; `string'
CONST	ENDS
;	COMDAT ??_C@_0BE@DCJHHPDO@gl_shading_language?$AA@
CONST	SEGMENT
??_C@_0BE@DCJHHPDO@gl_shading_language?$AA@ DB 'gl_shading_language', 00H ; `string'
CONST	ENDS
;	COMDAT ??_C@_0DN@NIGFAOGF@GL_ARB_shader_objects?5not?5suppor@
CONST	SEGMENT
??_C@_0DN@NIGFAOGF@GL_ARB_shader_objects?5not?5suppor@ DB 'GL_ARB_shader_'
	DB	'objects not support. Custom renderer disabled', 0aH, 00H ; `string'
CONST	ENDS
;	COMDAT ??_C@_0BG@OLLFAEMA@GL_ARB_shader_objects?$AA@
CONST	SEGMENT
??_C@_0BG@OLLFAEMA@GL_ARB_shader_objects?$AA@ DB 'GL_ARB_shader_objects', 00H ; `string'
CONST	ENDS
;	COMDAT ??_C@_0BB@MKKMKLHO@gl_shaderobjects?$AA@
CONST	SEGMENT
??_C@_0BB@MKKMKLHO@gl_shaderobjects?$AA@ DB 'gl_shaderobjects', 00H ; `string'
CONST	ENDS
;	COMDAT ??_C@_0CH@BCGAPLPH@GL_NV_alpha_to_coverage_dither_c@
CONST	SEGMENT
??_C@_0CH@BCGAPLPH@GL_NV_alpha_to_coverage_dither_c@ DB 'GL_NV_alpha_to_c'
	DB	'overage_dither_control', 00H		; `string'
CONST	ENDS
;	COMDAT ??_C@_0BG@LHADCHBD@gl_a2c_dither_control?$AA@
CONST	SEGMENT
??_C@_0BG@LHADCHBD@gl_a2c_dither_control?$AA@ DB 'gl_a2c_dither_control', 00H ; `string'
CONST	ENDS
;	COMDAT ??_C@_0BE@OHIPHHMJ@GL_ARB_debug_output?$AA@
CONST	SEGMENT
??_C@_0BE@OHIPHHMJ@GL_ARB_debug_output?$AA@ DB 'GL_ARB_debug_output', 00H ; `string'
CONST	ENDS
;	COMDAT ??_C@_0EL@BJHOLMP@GL_EXT_gpu_shader4?5not?5support?4?5@
CONST	SEGMENT
??_C@_0EL@BJHOLMP@GL_EXT_gpu_shader4?5not?5support?4?5@ DB 'GL_EXT_gpu_sh'
	DB	'ader4 not support. Shadows from omni lights will be disabled', 0aH
	DB	00H						; `string'
CONST	ENDS
;	COMDAT ??_C@_0BD@MHBCPECK@GL_EXT_gpu_shader4?$AA@
CONST	SEGMENT
??_C@_0BD@MHBCPECK@GL_EXT_gpu_shader4?$AA@ DB 'GL_EXT_gpu_shader4', 00H ; `string'
CONST	ENDS
;	COMDAT ??_C@_0BD@OOEOAHDF@gl_ext_gpu_shader4?$AA@
CONST	SEGMENT
??_C@_0BD@OOEOAHDF@gl_ext_gpu_shader4?$AA@ DB 'gl_ext_gpu_shader4', 00H ; `string'
CONST	ENDS
;	COMDAT ??_C@_0EC@JODGDGLN@GL_ARB_vertex_array_object?5not?5s@
CONST	SEGMENT
??_C@_0EC@JODGDGLN@GL_ARB_vertex_array_object?5not?5s@ DB 'GL_ARB_vertex_'
	DB	'array_object not support. Custom renderer disabled', 0aH, 00H ; `string'
CONST	ENDS
;	COMDAT ??_C@_0BL@PNJKGHIL@GL_ARB_vertex_array_object?$AA@
CONST	SEGMENT
??_C@_0BL@PNJKGHIL@GL_ARB_vertex_array_object?$AA@ DB 'GL_ARB_vertex_arra'
	DB	'y_object', 00H				; `string'
CONST	ENDS
;	COMDAT ??_C@_0BH@CDFMEDGE@gl_vertex_array_object?$AA@
CONST	SEGMENT
??_C@_0BH@CDFMEDGE@gl_vertex_array_object?$AA@ DB 'gl_vertex_array_object'
	DB	00H						; `string'
CONST	ENDS
;	COMDAT ??_C@_0ED@OKFICHLO@GL_ARB_vertex_buffer_object?5not?5@
CONST	SEGMENT
??_C@_0ED@OKFICHLO@GL_ARB_vertex_buffer_object?5not?5@ DB 'GL_ARB_vertex_'
	DB	'buffer_object not support. Custom renderer disabled', 0aH, 00H ; `string'
CONST	ENDS
;	COMDAT ??_C@_0BM@OOMEFFAE@GL_ARB_vertex_buffer_object?$AA@
CONST	SEGMENT
??_C@_0BM@OOMEFFAE@GL_ARB_vertex_buffer_object?$AA@ DB 'GL_ARB_vertex_buf'
	DB	'fer_object', 00H				; `string'
CONST	ENDS
;	COMDAT ??_C@_0BI@NOKPGMMJ@gl_vertex_buffer_object?$AA@
CONST	SEGMENT
??_C@_0BI@NOKPGMMJ@gl_vertex_buffer_object?$AA@ DB 'gl_vertex_buffer_obje'
	DB	'ct', 00H					; `string'
CONST	ENDS
;	COMDAT ??_C@_0BE@PIDMLBFI@GL_ARB_draw_buffers?$AA@
CONST	SEGMENT
??_C@_0BE@PIDMLBFI@GL_ARB_draw_buffers?$AA@ DB 'GL_ARB_draw_buffers', 00H ; `string'
CONST	ENDS
;	COMDAT ??_C@_0BA@DEGJADPD@gl_draw_buffers?$AA@
CONST	SEGMENT
??_C@_0BA@DEGJADPD@gl_draw_buffers?$AA@ DB 'gl_draw_buffers', 00H ; `string'
CONST	ENDS
;	COMDAT ??_C@_0CA@IICOLDCN@GL_ARB_texture_non_power_of_two?$AA@
CONST	SEGMENT
??_C@_0CA@IICOLDCN@GL_ARB_texture_non_power_of_two?$AA@ DB 'GL_ARB_textur'
	DB	'e_non_power_of_two', 00H			; `string'
CONST	ENDS
;	COMDAT ??_C@_0BA@OFKFFJCC@gl_texture_npot?$AA@
CONST	SEGMENT
??_C@_0BA@OFKFFJCC@gl_texture_npot?$AA@ DB 'gl_texture_npot', 00H ; `string'
CONST	ENDS
;	COMDAT ??_C@_0FP@IKDABNBB@GL_ARB_texture_cube_map?5not?5supp@
CONST	SEGMENT
??_C@_0FP@IKDABNBB@GL_ARB_texture_cube_map?5not?5supp@ DB 'GL_ARB_texture'
	DB	'_cube_map not supported. Cubemap reflections and omni shadows'
	DB	' will be disabled.', 0aH, 00H		; `string'
CONST	ENDS
;	COMDAT ??_C@_0BJ@HMEOFOCO@GL_ARB_seamless_cube_map?$AA@
CONST	SEGMENT
??_C@_0BJ@HMEOFOCO@GL_ARB_seamless_cube_map?$AA@ DB 'GL_ARB_seamless_cube'
	DB	'_map', 00H					; `string'
CONST	ENDS
;	COMDAT ??_C@_0BE@MLPLJBFM@gl_seamless_cubemap?$AA@
CONST	SEGMENT
??_C@_0BE@MLPLJBFM@gl_seamless_cubemap?$AA@ DB 'gl_seamless_cubemap', 00H ; `string'
CONST	ENDS
;	COMDAT ??_C@_0BI@GGDPEJMJ@GL_ARB_texture_cube_map?$AA@
CONST	SEGMENT
??_C@_0BI@GGDPEJMJ@GL_ARB_texture_cube_map?$AA@ DB 'GL_ARB_texture_cube_m'
	DB	'ap', 00H					; `string'
CONST	ENDS
;	COMDAT ??_C@_0BD@HBEJEDLE@gl_texture_cubemap?$AA@
CONST	SEGMENT
??_C@_0BD@HBEJEDLE@gl_texture_cubemap?$AA@ DB 'gl_texture_cubemap', 00H ; `string'
CONST	ENDS
;	COMDAT ??_C@_0BL@OHIMOMCA@GL_EXT_blend_func_separate?$AA@
CONST	SEGMENT
??_C@_0BL@OHIMOMCA@GL_EXT_blend_func_separate?$AA@ DB 'GL_EXT_blend_func_'
	DB	'separate', 00H				; `string'
CONST	ENDS
;	COMDAT ??_C@_0BC@GHPDFHE@gl_separate_blend?$AA@
CONST	SEGMENT
??_C@_0BC@GHPDFHE@gl_separate_blend?$AA@ DB 'gl_separate_blend', 00H ; `string'
CONST	ENDS
;	COMDAT ??_C@_0BH@NKOBMOPI@GL_ARB_occlusion_query?$AA@
CONST	SEGMENT
??_C@_0BH@NKOBMOPI@GL_ARB_occlusion_query?$AA@ DB 'GL_ARB_occlusion_query'
	DB	00H						; `string'
CONST	ENDS
;	COMDAT ??_C@_0BF@HBKHGAN@gl_occlusion_queries?$AA@
CONST	SEGMENT
??_C@_0BF@HBKHGAN@gl_occlusion_queries?$AA@ DB 'gl_occlusion_queries', 00H ; `string'
CONST	ENDS
;	COMDAT ??_C@_0EE@JCCAJEJP@GL_EXT_texture_array?5not?5support@
CONST	SEGMENT
??_C@_0EE@JCCAJEJP@GL_EXT_texture_array?5not?5support@ DB 'GL_EXT_texture'
	DB	'_array not supported. Landscapes will be unavailable', 0aH, 00H ; `string'
CONST	ENDS
;	COMDAT ??_C@_0BF@NFIKFJJJ@GL_EXT_texture_array?$AA@
CONST	SEGMENT
??_C@_0BF@NFIKFJJJ@GL_EXT_texture_array?$AA@ DB 'GL_EXT_texture_array', 00H ; `string'
CONST	ENDS
;	COMDAT ??_C@_0BE@IGFCPAI@gl_texture_2d_array?$AA@
CONST	SEGMENT
??_C@_0BE@IGFCPAI@gl_texture_2d_array?$AA@ DB 'gl_texture_2d_array', 00H ; `string'
CONST	ENDS
;	COMDAT ??_C@_0EC@GNIDDJLC@GL_EXT_texture3D?5reported?5bogus?5@
CONST	SEGMENT
??_C@_0EC@GNIDDJLC@GL_EXT_texture3D?5reported?5bogus?5@ DB 'GL_EXT_textur'
	DB	'e3D reported bogus GL_MAX_3D_TEXTURE_SIZE, disabled', 0aH, 00H ; `string'
CONST	ENDS
;	COMDAT ??_C@_0BB@LCNIEGEB@GL_EXT_texture3D?$AA@
CONST	SEGMENT
??_C@_0BB@LCNIEGEB@GL_EXT_texture3D?$AA@ DB 'GL_EXT_texture3D', 00H ; `string'
CONST	ENDS
;	COMDAT ??_C@_0O@BKBMFEAO@gl_texture_3d?$AA@
CONST	SEGMENT
??_C@_0O@BKBMFEAO@gl_texture_3d?$AA@ DB 'gl_texture_3d', 00H ; `string'
CONST	ENDS
;	COMDAT ??_C@_0EB@FFGNEIDP@GL_ARB_multitexture?5is?5not?5suppo@
CONST	SEGMENT
??_C@_0EB@FFGNEIDP@GL_ARB_multitexture?5is?5not?5suppo@ DB 'GL_ARB_multit'
	DB	'exture is not supported. Custom renderer disabled.', 0aH, 00H ; `string'
CONST	ENDS
;	COMDAT ??_C@_0BE@MEMOPMEA@GL_ARB_multitexture?$AA@
CONST	SEGMENT
??_C@_0BE@MEMOPMEA@GL_ARB_multitexture?$AA@ DB 'GL_ARB_multitexture', 00H ; `string'
CONST	ENDS
;	COMDAT ??_C@_0BE@EJOPKNEG@gl_arb_multitexture?$AA@
CONST	SEGMENT
??_C@_0BE@EJOPKNEG@gl_arb_multitexture?$AA@ DB 'gl_arb_multitexture', 00H ; `string'
CONST	ENDS
;	COMDAT ??_C@_0EE@DFOMCABP@GL_EXT_draw_range_elements?5not?5s@
CONST	SEGMENT
??_C@_0EE@DFOMCABP@GL_EXT_draw_range_elements?5not?5s@ DB 'GL_EXT_draw_ra'
	DB	'nge_elements not supported. Custom renderer disabled', 0aH, 00H ; `string'
CONST	ENDS
;	COMDAT ??_C@_0BL@BBECEKLJ@GL_EXT_draw_range_elements?$AA@
CONST	SEGMENT
??_C@_0BL@BBECEKLJ@GL_EXT_draw_range_elements?$AA@ DB 'GL_EXT_draw_range_'
	DB	'elements', 00H				; `string'
CONST	ENDS
;	COMDAT ??_C@_0BE@ILGNIII@gl_drawrangeelments?$AA@
CONST	SEGMENT
??_C@_0BE@ILGNIII@gl_drawrangeelments?$AA@ DB 'gl_drawrangeelments', 00H ; `string'
CONST	ENDS
;	COMDAT ??_C@_0BA@JPAPGMOA@GL_VERSION?3?5?$CFg?6?$AA@
CONST	SEGMENT
??_C@_0BA@JPAPGMOA@GL_VERSION?3?5?$CFg?6?$AA@ DB 'GL_VERSION: %g', 0aH, 00H ; `string'
CONST	ENDS
;	COMDAT ??_C@_06CHDCBPE@radeon?$AA@
CONST	SEGMENT
??_C@_06CHDCBPE@radeon?$AA@ DB 'radeon', 00H		; `string'
CONST	ENDS
;	COMDAT ??_C@_07FEOMEPMB@eah4870?$AA@
CONST	SEGMENT
??_C@_07FEOMEPMB@eah4870?$AA@ DB 'eah4870', 00H		; `string'
CONST	ENDS
;	COMDAT ??_C@_07FHGIJLKP@eah4850?$AA@
CONST	SEGMENT
??_C@_07FHGIJLKP@eah4850?$AA@ DB 'eah4850', 00H		; `string'
CONST	ENDS
;	COMDAT ??_C@_09BADJHFGO@radeon?5hd?$AA@
CONST	SEGMENT
??_C@_09BADJHFGO@radeon?5hd?$AA@ DB 'radeon hd', 00H	; `string'
CONST	ENDS
;	COMDAT ??_C@_05ONNLOCAH@rv770?$AA@
CONST	SEGMENT
??_C@_05ONNLOCAH@rv770?$AA@ DB 'rv770', 00H		; `string'
CONST	ENDS
;	COMDAT ??_C@_09IKHEJAGC@quadro?5fx?$AA@
CONST	SEGMENT
??_C@_09IKHEJAGC@quadro?5fx?$AA@ DB 'quadro fx', 00H	; `string'
CONST	ENDS
;	COMDAT ??_C@_07MPJPGECB@geforce?$AA@
CONST	SEGMENT
??_C@_07MPJPGECB@geforce?$AA@ DB 'geforce', 00H		; `string'
CONST	ENDS
;	COMDAT ??_C@_0DJ@JKHHHBAA@OpenGL?51?40?5can?8t?5be?5installed?4?5C@
CONST	SEGMENT
??_C@_0DJ@JKHHHBAA@OpenGL?51?40?5can?8t?5be?5installed?4?5C@ DB 'OpenGL 1'
	DB	'.0 can''t be installed. Custom renderer disabled', 0aH, 00H ; `string'
CONST	ENDS
;	COMDAT ??_C@_0L@HLFEJDBH@OpenGL?52?40?$AA@
CONST	SEGMENT
??_C@_0L@HLFEJDBH@OpenGL?52?40?$AA@ DB 'OpenGL 2.0', 00H ; `string'
CONST	ENDS
;	COMDAT ??_C@_0N@LPDIHFOO@OpenGL?51?41?40?$AA@
CONST	SEGMENT
??_C@_0N@LPDIHFOO@OpenGL?51?41?40?$AA@ DB 'OpenGL 1.1.0', 00H ; `string'
CONST	ENDS
;	COMDAT ??_C@_0FB@NLAEKKJG@too?5old?5version?5of?5Xash3D?5engine@
CONST	SEGMENT
??_C@_0FB@NLAEKKJG@too?5old?5version?5of?5Xash3D?5engine@ DB 'too old ver'
	DB	'sion of Xash3D engine. XashXT required at least build 4140 or'
	DB	' higher', 0aH, 00H				; `string'
CONST	ENDS
;	COMDAT ??_C@_0N@EEFGEEA@?9?5?$FO2enabled?6?$AA@
CONST	SEGMENT
??_C@_0N@EEFGEEA@?9?5?$FO2enabled?6?$AA@ DB '- ^2enabled', 0aH, 00H ; `string'
CONST	ENDS
;	COMDAT ??_C@_0M@DMNJGNM@?9?5disabled?6?$AA@
CONST	SEGMENT
??_C@_0M@DMNJGNM@?9?5disabled?6?$AA@ DB '- disabled', 0aH, 00H ; `string'
CONST	ENDS
;	COMDAT ??_C@_01HIHLOKLC@1?$AA@
CONST	SEGMENT
??_C@_01HIHLOKLC@1?$AA@ DB '1', 00H			; `string'
CONST	ENDS
;	COMDAT ??_C@_0M@OLAKKIMP@?9?5?$FO1failed?6?$AA@
CONST	SEGMENT
??_C@_0M@OLAKKIMP@?9?5?$FO1failed?6?$AA@ DB '- ^1failed', 0aH, 00H ; `string'
CONST	ENDS
;	COMDAT ??_C@_0BH@HNGPIHKB@GL_CheckExtension?3?5?$CFs?5?$AA@
CONST	SEGMENT
??_C@_0BH@HNGPIHKB@GL_CheckExtension?3?5?$CFs?5?$AA@ DB 'GL_CheckExtensio'
	DB	'n: %s ', 00H				; `string'
CONST	ENDS
;	COMDAT ??_C@_0CN@NLBPCJDK@?$FO3Error?3?$FO7?5GL_Support?3?5invalid?5e@
CONST	SEGMENT
??_C@_0CN@NLBPCJDK@?$FO3Error?3?$FO7?5GL_Support?3?5invalid?5e@ DB '^3Err'
	DB	'or:^7 GL_Support: invalid extension %d', 0aH, 00H ; `string'
CONST	ENDS
;	COMDAT ??_C@_0CH@EIDGMENE@GL_SetExtension?3?5invalid?5extensi@
CONST	SEGMENT
??_C@_0CH@EIDGMENE@GL_SetExtension?3?5invalid?5extensi@ DB 'GL_SetExtensi'
	DB	'on: invalid extension %d', 0aH, 00H		; `string'
CONST	ENDS
;	COMDAT ??_C@_0M@GEPHGIFJ@OpenGL?3?5?$CFs?6?$AA@
CONST	SEGMENT
??_C@_0M@GEPHGIFJ@OpenGL?3?5?$CFs?6?$AA@ DB 'OpenGL: %s', 0aH, 00H ; `string'
CONST	ENDS
;	COMDAT ??_C@_0BH@ONCPBIMA@OpenGL?5Perfomance?3?5?$CFs?6?$AA@
CONST	SEGMENT
??_C@_0BH@ONCPBIMA@OpenGL?5Perfomance?3?5?$CFs?6?$AA@ DB 'OpenGL Perfoman'
	DB	'ce: %s', 0aH, 00H				; `string'
CONST	ENDS
;	COMDAT ??_C@_0BI@BELGKLBK@?$FO3OpenGL?5Warning?3?$FO7?5?$CFs?6?$AA@
CONST	SEGMENT
??_C@_0BI@BELGKLBK@?$FO3OpenGL?5Warning?3?$FO7?5?$CFs?6?$AA@ DB '^3OpenGL'
	DB	' Warning:^7 %s', 0aH, 00H			; `string'
CONST	ENDS
;	COMDAT ??_C@_0BG@JJFGPKNN@?$FO1OpenGL?5Error?3?$FO7?5?$CFs?6?$AA@
CONST	SEGMENT
??_C@_0BG@JJFGPKNN@?$FO1OpenGL?5Error?3?$FO7?5?$CFs?6?$AA@ DB '^1OpenGL E'
	DB	'rror:^7 %s', 0aH, 00H			; `string'
CONST	ENDS
; Function compile flags: /Odtp /ZI
; File d:\!diffusion 2020\source code 2022\client-server\client\render\r_opengl.cpp
;	COMDAT ?MessageCallback@@YGXIIIIHPBDPAX@Z
_TEXT	SEGMENT
tv68 = -68						; size = 4
_source$ = 8						; size = 4
_type$ = 12						; size = 4
_id$ = 16						; size = 4
_severity$ = 20						; size = 4
_length$ = 24						; size = 4
_message$ = 28						; size = 4
_userParam$ = 32					; size = 4
?MessageCallback@@YGXIIIIHPBDPAX@Z PROC			; MessageCallback, COMDAT

; 880  : {

	push	ebp
	mov	ebp, esp
	sub	esp, 68					; 00000044H
	push	ebx
	push	esi
	push	edi

; 881  : 	//	fprintf( stderr, "GL CALLBACK: %s type = 0x%x, severity = 0x%x, message = %s\n", (type == GL_DEBUG_TYPE_ERROR_ARB ? "** GL ERROR **" : ""), type, severity, message );
; 882  : 	ConPrintf( "GL CALLBACK: %s type = 0x%x, severity = 0x%x, message = %s\n", (type == GL_DEBUG_TYPE_ERROR_ARB ? "** GL ERROR **" : ""), type, severity, message );

	cmp	DWORD PTR _type$[ebp], 33356		; 0000824cH
	jne	SHORT $LN3@MessageCal
	mov	DWORD PTR tv68[ebp], OFFSET ??_C@_0P@MNCNEOPO@?$CK?$CK?5GL?5ERROR?5?$CK?$CK?$AA@
	jmp	SHORT $LN4@MessageCal
$LN3@MessageCal:
	mov	DWORD PTR tv68[ebp], OFFSET ??_C@_00CNPNBAHC@?$AA@
$LN4@MessageCal:
	mov	eax, DWORD PTR _message$[ebp]
	push	eax
	mov	ecx, DWORD PTR _severity$[ebp]
	push	ecx
	mov	edx, DWORD PTR _type$[ebp]
	push	edx
	mov	eax, DWORD PTR tv68[ebp]
	push	eax
	push	OFFSET ??_C@_0DM@PGKPLHEG@GL?5CALLBACK?3?5?$CFs?5type?5?$DN?50x?$CFx?0?5sev@
	call	DWORD PTR ?gEngfuncs@@3Ucl_enginefuncs_s@@A+160
	add	esp, 20					; 00000014H

; 883  : }

	pop	edi
	pop	esi
	pop	ebx
	mov	esp, ebp
	pop	ebp
	ret	28					; 0000001cH
?MessageCallback@@YGXIIIIHPBDPAX@Z ENDP			; MessageCallback
_TEXT	ENDS
; Function compile flags: /Odtp /ZI
; File d:\!diffusion 2020\source code 2022\client-server\client\render\r_opengl.cpp
;	COMDAT ?GL_InitTextures@@YAXXZ
_TEXT	SEGMENT
_path$1 = -264						; size = 256
_i$2 = -8						; size = 4
__$ArrayPad$ = -4					; size = 4
?GL_InitTextures@@YAXXZ PROC				; GL_InitTextures, COMDAT

; 856  : {

	push	ebp
	mov	ebp, esp
	sub	esp, 328				; 00000148H
	mov	eax, DWORD PTR ___security_cookie
	xor	eax, ebp
	mov	DWORD PTR __$ArrayPad$[ebp], eax
	push	ebx
	push	esi
	push	edi

; 857  : 	// NOTE: these textures already created by engine
; 858  : 	// get their texturenums for local using
; 859  : 	tr.defaultTexture = FIND_TEXTURE( "*default" );   	// use for bad textures

	push	OFFSET ??_C@_08KPIGECMN@?$CKdefault?$AA@
	call	DWORD PTR ?gRenderfuncs@@3Urender_api_s@@A+48
	add	esp, 4
	mov	DWORD PTR ?tr@@3Uref_globals_t@@A+44, eax

; 860  : 	tr.whiteTexture = FIND_TEXTURE( "*white" );

	push	OFFSET ??_C@_06LLGHKAEB@?$CKwhite?$AA@
	call	DWORD PTR ?gRenderfuncs@@3Urender_api_s@@A+48
	add	esp, 4
	mov	DWORD PTR ?tr@@3Uref_globals_t@@A+32, eax

; 861  : 	tr.grayTexture = FIND_TEXTURE( "*gray" );

	push	OFFSET ??_C@_05LFMGNIOO@?$CKgray?$AA@
	call	DWORD PTR ?gRenderfuncs@@3Urender_api_s@@A+48
	add	esp, 4
	mov	DWORD PTR ?tr@@3Uref_globals_t@@A+36, eax

; 862  : 	tr.depthTexture = CREATE_TEXTURE( "*depth", 8, 8, NULL, TF_SHADOW ); 

	push	2176					; 00000880H
	push	0
	push	8
	push	8
	push	OFFSET ??_C@_06FOAKHCJN@?$CKdepth?$AA@
	call	DWORD PTR ?gRenderfuncs@@3Urender_api_s@@A+64
	add	esp, 20					; 00000014H
	mov	DWORD PTR ?tr@@3Uref_globals_t@@A+40, eax

; 863  : 
; 864  : 	R_InitWhiteCubemap();

	call	?R_InitWhiteCubemap@@YAXXZ		; R_InitWhiteCubemap

; 865  : 
; 866  : 	R_CreateSpotLightTexture();

	call	?R_CreateSpotLightTexture@@YAXXZ	; R_CreateSpotLightTexture

; 867  : 
; 868  : 	R_InitAlphaContrast();

	call	?R_InitAlphaContrast@@YAXXZ		; R_InitAlphaContrast

; 869  : 
; 870  : 	// load water animation
; 871  : 	for( int i = 0; i < WATER_TEXTURES; i++ )

	mov	DWORD PTR _i$2[ebp], 0
	jmp	SHORT $LN4@GL_InitTex
$LN2@GL_InitTex:
	mov	eax, DWORD PTR _i$2[ebp]
	add	eax, 1
	mov	DWORD PTR _i$2[ebp], eax
$LN4@GL_InitTex:
	cmp	DWORD PTR _i$2[ebp], 29			; 0000001dH
	jge	SHORT $LN1@GL_InitTex

; 872  : 	{
; 873  : 		char path[256];
; 874  : 		Q_snprintf( path, sizeof( path ), "gfx/water/water_normal_%i", i );

	mov	eax, DWORD PTR _i$2[ebp]
	push	eax
	push	OFFSET ??_C@_0BK@PEBJMJDG@gfx?1water?1water_normal_?$CFi?$AA@
	push	256					; 00000100H
	lea	ecx, DWORD PTR _path$1[ebp]
	push	ecx
	call	?Q_snprintf@@YAHPADIPBDZZ		; Q_snprintf
	add	esp, 16					; 00000010H

; 875  : 		tr.waterTextures[i] = LOAD_TEXTURE( path, NULL, 0, TF_NORMALMAP );

	push	32768					; 00008000H
	push	0
	push	0
	lea	eax, DWORD PTR _path$1[ebp]
	push	eax
	call	DWORD PTR ?gRenderfuncs@@3Urender_api_s@@A+60
	add	esp, 16					; 00000010H
	mov	ecx, DWORD PTR _i$2[ebp]
	mov	DWORD PTR ?tr@@3Uref_globals_t@@A[ecx*4+5748], eax

; 876  : 	}

	jmp	SHORT $LN2@GL_InitTex
$LN1@GL_InitTex:

; 877  : }

	pop	edi
	pop	esi
	pop	ebx
	mov	ecx, DWORD PTR __$ArrayPad$[ebp]
	xor	ecx, ebp
	call	@__security_check_cookie@4
	mov	esp, ebp
	pop	ebp
	ret	0
?GL_InitTextures@@YAXXZ ENDP				; GL_InitTextures
_TEXT	ENDS
; Function compile flags: /Odtp /ZI
; File d:\!diffusion 2020\source code 2022\client-server\client\render\r_opengl.cpp
;	COMDAT ?R_InitWhiteCubemap@@YAXXZ
_TEXT	SEGMENT
_size$ = -392						; size = 4
_dataCM$ = -388						; size = 384
__$ArrayPad$ = -4					; size = 4
?R_InitWhiteCubemap@@YAXXZ PROC				; R_InitWhiteCubemap, COMDAT

; 842  : {

	push	ebp
	mov	ebp, esp
	sub	esp, 456				; 000001c8H
	mov	eax, DWORD PTR ___security_cookie
	xor	eax, ebp
	mov	DWORD PTR __$ArrayPad$[ebp], eax
	push	ebx
	push	esi
	push	edi

; 843  : 	byte	dataCM[4*4*6*4];
; 844  : 	int	size = 4;

	mov	DWORD PTR _size$[ebp], 4

; 845  : 
; 846  : 	if( !GL_Support( R_TEXTURECUBEMAP_EXT ))

	push	9
	call	?GL_Support@@YA_NH@Z			; GL_Support
	add	esp, 4
	movzx	eax, al
	test	eax, eax
	jne	SHORT $LN2@R_InitWhit

; 847  : 		return;

	jmp	SHORT $LN1@R_InitWhit
$LN2@R_InitWhit:

; 848  : 
; 849  : 	// white cubemap - just stub for pointlights
; 850  : 	memset( dataCM, 0xFF, sizeof( dataCM ));

	push	384					; 00000180H
	push	255					; 000000ffH
	lea	eax, DWORD PTR _dataCM$[ebp]
	push	eax
	call	_memset
	add	esp, 12					; 0000000cH

; 851  : 
; 852  : 	tr.whiteCubeTexture = CREATE_TEXTURE( "*whiteCube", size, size, dataCM, TF_NOMIPMAP|TF_CUBEMAP|TF_CLAMP ); 

	push	6208					; 00001840H
	lea	eax, DWORD PTR _dataCM$[ebp]
	push	eax
	mov	ecx, DWORD PTR _size$[ebp]
	push	ecx
	mov	edx, DWORD PTR _size$[ebp]
	push	edx
	push	OFFSET ??_C@_0L@JMLEAHMH@?$CKwhiteCube?$AA@
	call	DWORD PTR ?gRenderfuncs@@3Urender_api_s@@A+64
	add	esp, 20					; 00000014H
	mov	DWORD PTR ?tr@@3Uref_globals_t@@A+5724, eax
$LN1@R_InitWhit:

; 853  : }

	pop	edi
	pop	esi
	pop	ebx
	mov	ecx, DWORD PTR __$ArrayPad$[ebp]
	xor	ecx, ebp
	call	@__security_check_cookie@4
	mov	esp, ebp
	pop	ebp
	ret	0
?R_InitWhiteCubemap@@YAXXZ ENDP				; R_InitWhiteCubemap
_TEXT	ENDS
; Function compile flags: /Odtp /ZI
; File d:\!diffusion 2020\source code 2022\client-server\client\render\r_opengl.cpp
;	COMDAT ?R_InitAlphaContrast@@YAXXZ
_TEXT	SEGMENT
_size$ = -16392						; size = 4
_data$ = -16388						; size = 16384
__$ArrayPad$ = -4					; size = 4
?R_InitAlphaContrast@@YAXXZ PROC			; R_InitAlphaContrast, COMDAT

; 827  : {

	push	ebp
	mov	ebp, esp
	mov	eax, 16904				; 00004208H
	call	__chkstk
	mov	eax, DWORD PTR ___security_cookie
	xor	eax, ebp
	mov	DWORD PTR __$ArrayPad$[ebp], eax
	push	ebx
	push	esi
	push	edi

; 828  : 	byte	data[64*64*4];
; 829  : 	int	size = 64;

	mov	DWORD PTR _size$[ebp], 64		; 00000040H

; 830  : 
; 831  : 	memset( data, size, size * size * 4 );

	mov	eax, DWORD PTR _size$[ebp]
	imul	eax, DWORD PTR _size$[ebp]
	shl	eax, 2
	push	eax
	mov	ecx, DWORD PTR _size$[ebp]
	push	ecx
	lea	edx, DWORD PTR _data$[ebp]
	push	edx
	call	_memset
	add	esp, 12					; 0000000cH

; 832  : 
; 833  : 	tr.alphaContrastTexture = CREATE_TEXTURE( "*acont", size, size, data, TF_ALPHACONTRAST );

	push	4194304					; 00400000H
	lea	eax, DWORD PTR _data$[ebp]
	push	eax
	mov	ecx, DWORD PTR _size$[ebp]
	push	ecx
	mov	edx, DWORD PTR _size$[ebp]
	push	edx
	push	OFFSET ??_C@_06HODLCKLM@?$CKacont?$AA@
	call	DWORD PTR ?gRenderfuncs@@3Urender_api_s@@A+64
	add	esp, 20					; 00000014H
	mov	DWORD PTR ?tr@@3Uref_globals_t@@A+48, eax

; 834  : }

	pop	edi
	pop	esi
	pop	ebx
	mov	ecx, DWORD PTR __$ArrayPad$[ebp]
	xor	ecx, ebp
	call	@__security_check_cookie@4
	mov	esp, ebp
	pop	ebp
	ret	0
?R_InitAlphaContrast@@YAXXZ ENDP			; R_InitAlphaContrast
_TEXT	ENDS
; Function compile flags: /Odtp /ZI
; File d:\!diffusion 2020\source code 2022\client-server\client\render\r_opengl.cpp
;	COMDAT ?R_CreateSpotLightTexture@@YAXXZ
_TEXT	SEGMENT
tv184 = -120						; size = 8
tv155 = -116						; size = 4
tv150 = -116						; size = 4
tv145 = -116						; size = 4
tv140 = -116						; size = 4
tv135 = -116						; size = 4
$T1 = -112						; size = 4
$T2 = -108						; size = 4
_c$3 = -40						; size = 4
_r$4 = -36						; size = 4
_dx$5 = -32						; size = 4
_j$6 = -28						; size = 4
_dy$7 = -24						; size = 4
_i$8 = -20						; size = 4
_p$ = -16						; size = 4
_data$ = -12						; size = 4
_height$ = -8						; size = 4
_width$ = -4						; size = 4
?R_CreateSpotLightTexture@@YAXXZ PROC			; R_CreateSpotLightTexture, COMDAT

; 797  : {

	push	ebp
	mov	ebp, esp
	sub	esp, 120				; 00000078H
	push	ebx
	push	esi
	push	edi

; 798  : 	int width = 64, height = 64;

	mov	DWORD PTR _width$[ebp], 64		; 00000040H
	mov	DWORD PTR _height$[ebp], 64		; 00000040H

; 799  : 	byte *data = new byte[width*height*4];

	mov	eax, DWORD PTR _width$[ebp]
	imul	eax, DWORD PTR _height$[ebp]
	shl	eax, 2
	push	eax
	call	??_U@YAPAXI@Z				; operator new[]
	add	esp, 4
	mov	DWORD PTR $T2[ebp], eax
	mov	ecx, DWORD PTR $T2[ebp]
	mov	DWORD PTR _data$[ebp], ecx

; 800  : 	byte *p = data;

	mov	eax, DWORD PTR _data$[ebp]
	mov	DWORD PTR _p$[ebp], eax

; 801  : 
; 802  : 	for( int i = 0; i < height; i++ )

	mov	DWORD PTR _i$8[ebp], 0
	jmp	SHORT $LN4@R_CreateSp
$LN2@R_CreateSp:
	mov	eax, DWORD PTR _i$8[ebp]
	add	eax, 1
	mov	DWORD PTR _i$8[ebp], eax
$LN4@R_CreateSp:
	mov	eax, DWORD PTR _i$8[ebp]
	cmp	eax, DWORD PTR _height$[ebp]
	jge	$LN3@R_CreateSp

; 803  : 	{
; 804  : 		float dy = (height * 0.5f - i + 0.5f) / (height * 0.5f);

	cvtsi2ss xmm0, DWORD PTR _height$[ebp]
	mulss	xmm0, DWORD PTR __real@3f000000
	cvtsi2ss xmm1, DWORD PTR _i$8[ebp]
	subss	xmm0, xmm1
	addss	xmm0, DWORD PTR __real@3f000000
	cvtsi2ss xmm1, DWORD PTR _height$[ebp]
	mulss	xmm1, DWORD PTR __real@3f000000
	divss	xmm0, xmm1
	movss	DWORD PTR _dy$7[ebp], xmm0

; 805  : 
; 806  : 		for( int j = 0; j < width; j++ )

	mov	DWORD PTR _j$6[ebp], 0
	jmp	SHORT $LN7@R_CreateSp
$LN5@R_CreateSp:
	mov	eax, DWORD PTR _j$6[ebp]
	add	eax, 1
	mov	DWORD PTR _j$6[ebp], eax
$LN7@R_CreateSp:
	mov	eax, DWORD PTR _j$6[ebp]
	cmp	eax, DWORD PTR _width$[ebp]
	jge	$LN6@R_CreateSp

; 807  : 		{
; 808  : 			float dx = (width * 0.5f - j + 0.5f) / (width * 0.5f);

	cvtsi2ss xmm0, DWORD PTR _width$[ebp]
	mulss	xmm0, DWORD PTR __real@3f000000
	cvtsi2ss xmm1, DWORD PTR _j$6[ebp]
	subss	xmm0, xmm1
	addss	xmm0, DWORD PTR __real@3f000000
	cvtsi2ss xmm1, DWORD PTR _width$[ebp]
	mulss	xmm1, DWORD PTR __real@3f000000
	divss	xmm0, xmm1
	movss	DWORD PTR _dx$5[ebp], xmm0

; 809  : 			float r = cos( M_PI / 2.0f * sqrt(dx * dx + dy * dy));

	movss	xmm0, DWORD PTR _dx$5[ebp]
	mulss	xmm0, DWORD PTR _dx$5[ebp]
	movss	xmm1, DWORD PTR _dy$7[ebp]
	mulss	xmm1, DWORD PTR _dy$7[ebp]
	addss	xmm0, xmm1
	cvtss2sd xmm0, xmm0
	sub	esp, 8
	movsd	QWORD PTR [esp], xmm0
	call	_sqrt
	add	esp, 8
	fstp	QWORD PTR tv184[ebp]
	movsd	xmm0, QWORD PTR tv184[ebp]
	mulsd	xmm0, QWORD PTR __real@3ff921fb54442d18
	sub	esp, 8
	movsd	QWORD PTR [esp], xmm0
	call	_cos
	add	esp, 8
	fstp	DWORD PTR _r$4[ebp]

; 810  : 			float c;
; 811  : 
; 812  : 			r = (r < 0) ? 0 : r * r;

	xorps	xmm0, xmm0
	comiss	xmm0, DWORD PTR _r$4[ebp]
	jbe	SHORT $LN9@R_CreateSp
	xorps	xmm0, xmm0
	movss	DWORD PTR tv135[ebp], xmm0
	jmp	SHORT $LN10@R_CreateSp
$LN9@R_CreateSp:
	movss	xmm0, DWORD PTR _r$4[ebp]
	mulss	xmm0, DWORD PTR _r$4[ebp]
	movss	DWORD PTR tv135[ebp], xmm0
$LN10@R_CreateSp:
	movss	xmm0, DWORD PTR tv135[ebp]
	movss	DWORD PTR _r$4[ebp], xmm0

; 813  : 			c = 0xFF * r;

	movss	xmm0, DWORD PTR __real@437f0000
	mulss	xmm0, DWORD PTR _r$4[ebp]
	movss	DWORD PTR _c$3[ebp], xmm0

; 814  : 			p[0] = (c <= 0xFF) ? c : 0xFF;

	movss	xmm0, DWORD PTR __real@437f0000
	comiss	xmm0, DWORD PTR _c$3[ebp]
	jb	SHORT $LN11@R_CreateSp
	movss	xmm0, DWORD PTR _c$3[ebp]
	movss	DWORD PTR tv140[ebp], xmm0
	jmp	SHORT $LN12@R_CreateSp
$LN11@R_CreateSp:
	movss	xmm0, DWORD PTR __real@437f0000
	movss	DWORD PTR tv140[ebp], xmm0
$LN12@R_CreateSp:
	cvttss2si eax, DWORD PTR tv140[ebp]
	mov	ecx, 1
	imul	edx, ecx, 0
	mov	ecx, DWORD PTR _p$[ebp]
	mov	BYTE PTR [ecx+edx], al

; 815  : 			p[1] = (c <= 0xFF) ? c : 0xFF;

	movss	xmm0, DWORD PTR __real@437f0000
	comiss	xmm0, DWORD PTR _c$3[ebp]
	jb	SHORT $LN13@R_CreateSp
	movss	xmm0, DWORD PTR _c$3[ebp]
	movss	DWORD PTR tv145[ebp], xmm0
	jmp	SHORT $LN14@R_CreateSp
$LN13@R_CreateSp:
	movss	xmm0, DWORD PTR __real@437f0000
	movss	DWORD PTR tv145[ebp], xmm0
$LN14@R_CreateSp:
	cvttss2si eax, DWORD PTR tv145[ebp]
	mov	ecx, 1
	shl	ecx, 0
	mov	edx, DWORD PTR _p$[ebp]
	mov	BYTE PTR [edx+ecx], al

; 816  : 			p[2] = (c <= 0xFF) ? c : 0xFF;

	movss	xmm0, DWORD PTR __real@437f0000
	comiss	xmm0, DWORD PTR _c$3[ebp]
	jb	SHORT $LN15@R_CreateSp
	movss	xmm0, DWORD PTR _c$3[ebp]
	movss	DWORD PTR tv150[ebp], xmm0
	jmp	SHORT $LN16@R_CreateSp
$LN15@R_CreateSp:
	movss	xmm0, DWORD PTR __real@437f0000
	movss	DWORD PTR tv150[ebp], xmm0
$LN16@R_CreateSp:
	cvttss2si eax, DWORD PTR tv150[ebp]
	mov	ecx, 1
	shl	ecx, 1
	mov	edx, DWORD PTR _p$[ebp]
	mov	BYTE PTR [edx+ecx], al

; 817  : 			p[3] = (c <= 0xff) ? c : 0xFF;

	movss	xmm0, DWORD PTR __real@437f0000
	comiss	xmm0, DWORD PTR _c$3[ebp]
	jb	SHORT $LN17@R_CreateSp
	movss	xmm0, DWORD PTR _c$3[ebp]
	movss	DWORD PTR tv155[ebp], xmm0
	jmp	SHORT $LN18@R_CreateSp
$LN17@R_CreateSp:
	movss	xmm0, DWORD PTR __real@437f0000
	movss	DWORD PTR tv155[ebp], xmm0
$LN18@R_CreateSp:
	cvttss2si eax, DWORD PTR tv155[ebp]
	mov	ecx, 1
	imul	edx, ecx, 3
	mov	ecx, DWORD PTR _p$[ebp]
	mov	BYTE PTR [ecx+edx], al

; 818  : 			p += 4;

	mov	eax, DWORD PTR _p$[ebp]
	add	eax, 4
	mov	DWORD PTR _p$[ebp], eax

; 819  : 		}

	jmp	$LN5@R_CreateSp
$LN6@R_CreateSp:

; 820  : 	}

	jmp	$LN2@R_CreateSp
$LN3@R_CreateSp:

; 821  : 
; 822  : 	tr.spotlightTexture = CREATE_TEXTURE( "*spotlight", width, height, data, TF_SPOTLIGHT ); 

	push	524288					; 00080000H
	mov	eax, DWORD PTR _data$[ebp]
	push	eax
	mov	ecx, DWORD PTR _height$[ebp]
	push	ecx
	mov	edx, DWORD PTR _width$[ebp]
	push	edx
	push	OFFSET ??_C@_0L@EMAIBBOM@?$CKspotlight?$AA@
	call	DWORD PTR ?gRenderfuncs@@3Urender_api_s@@A+64
	add	esp, 20					; 00000014H
	mov	DWORD PTR ?tr@@3Uref_globals_t@@A+5744, eax

; 823  : 	delete [] data;

	mov	eax, DWORD PTR _data$[ebp]
	mov	DWORD PTR $T1[ebp], eax
	mov	ecx, DWORD PTR $T1[ebp]
	push	ecx
	call	??_V@YAXPAX@Z				; operator delete[]
	add	esp, 4

; 824  : }

	pop	edi
	pop	esi
	pop	ebx
	mov	esp, ebp
	pop	ebp
	ret	0
?R_CreateSpotLightTexture@@YAXXZ ENDP			; R_CreateSpotLightTexture
_TEXT	ENDS
; Function compile flags: /Odtp /ZI
; File d:\!diffusion 2020\source code 2022\client-server\client\render\r_opengl.cpp
;	COMDAT ?GL_SetDefaultState@@YAXXZ
_TEXT	SEGMENT
?GL_SetDefaultState@@YAXXZ PROC				; GL_SetDefaultState, COMDAT

; 787  : {

	push	ebp
	mov	ebp, esp
	sub	esp, 64					; 00000040H
	push	ebx
	push	esi
	push	edi

; 788  : 	if( RENDER_GET_PARM( PARM_STENCIL_ACTIVE, 0 ))

	push	0
	push	36					; 00000024H
	call	DWORD PTR ?gRenderfuncs@@3Urender_api_s@@A
	add	esp, 8
	test	eax, eax
	je	SHORT $LN2@GL_SetDefa

; 789  : 		glState.stencilEnabled = true;

	mov	DWORD PTR ?glState@@3UglState_t@@A+36, 1
	jmp	SHORT $LN3@GL_SetDefa
$LN2@GL_SetDefa:

; 790  : 	else glState.stencilEnabled = false;

	mov	DWORD PTR ?glState@@3UglState_t@@A+36, 0
$LN3@GL_SetDefa:

; 791  : 
; 792  : 	glState.frameBuffer = FBO_MAIN;

	mov	DWORD PTR ?glState@@3UglState_t@@A+24, -1

; 793  : 	glState.depthmask = -1;

	mov	DWORD PTR ?glState@@3UglState_t@@A+28, -1

; 794  : }

	pop	edi
	pop	esi
	pop	ebx
	mov	esp, ebp
	pop	ebp
	ret	0
?GL_SetDefaultState@@YAXXZ ENDP				; GL_SetDefaultState
_TEXT	ENDS
; Function compile flags: /Odtp /ZI
; File d:\!diffusion 2020\source code 2022\client-server\client\render\r_opengl.cpp
;	COMDAT ?GL_InitExtensions@@YAXXZ
_TEXT	SEGMENT
tv513 = -84						; size = 4
tv512 = -80						; size = 4
tv510 = -76						; size = 4
tv504 = -72						; size = 4
tv498 = -68						; size = 4
?GL_InitExtensions@@YAXXZ PROC				; GL_InitExtensions, COMDAT

; 524  : {

	push	ebp
	mov	ebp, esp
	sub	esp, 84					; 00000054H
	push	ebx
	push	esi
	push	edi

; 525  : 	if( g_iXashEngineBuildNumber < 4140 )

	cmp	DWORD PTR ?g_iXashEngineBuildNumber@@3HA, 4140 ; g_iXashEngineBuildNumber, 0000102cH
	jge	SHORT $LN2@GL_InitExt

; 526  : 	{
; 527  : 		ALERT( at_error, "too old version of Xash3D engine. XashXT required at least build 4140 or higher\n" );

	push	OFFSET ??_C@_0FB@NLAEKKJG@too?5old?5version?5of?5Xash3D?5engine@
	push	4
	call	?ALERT@@YAXW4ALERT_TYPE@@PADZZ		; ALERT
	add	esp, 8

; 528  : 		g_fRenderInitialized = FALSE;

	mov	DWORD PTR ?g_fRenderInitialized@@3HA, 0	; g_fRenderInitialized

; 529  : 		return;

	jmp	$LN1@GL_InitExt
$LN2@GL_InitExt:

; 530  : 	}
; 531  : 
; 532  : 	// initialize gl extensions
; 533  : 	GL_CheckExtension( "OpenGL 1.1.0", opengl_110funcs, NULL, R_OPENGL_110 );

	push	0
	push	0
	push	0
	push	OFFSET ?opengl_110funcs@@3PAUdllfunc_s@@A
	push	OFFSET ??_C@_0N@LPDIHFOO@OpenGL?51?41?40?$AA@
	call	?GL_CheckExtension@@YAXPBDPBUdllfunc_s@@0H_N@Z ; GL_CheckExtension
	add	esp, 20					; 00000014H

; 534  : 	GL_CheckExtension( "OpenGL 2.0", opengl_200funcs, NULL, R_OPENGL_200 );

	push	0
	push	1
	push	0
	push	OFFSET ?opengl_200funcs@@3PAUdllfunc_s@@A
	push	OFFSET ??_C@_0L@HLFEJDBH@OpenGL?52?40?$AA@
	call	?GL_CheckExtension@@YAXPBDPBUdllfunc_s@@0H_N@Z ; GL_CheckExtension
	add	esp, 20					; 00000014H

; 535  : 
; 536  : 	if( !GL_Support( R_OPENGL_110 ))

	push	0
	call	?GL_Support@@YA_NH@Z			; GL_Support
	add	esp, 4
	movzx	eax, al
	test	eax, eax
	jne	SHORT $LN3@GL_InitExt

; 537  : 	{
; 538  : 		ALERT( at_error, "OpenGL 1.0 can't be installed. Custom renderer disabled\n" );

	push	OFFSET ??_C@_0DJ@JKHHHBAA@OpenGL?51?40?5can?8t?5be?5installed?4?5C@
	push	4
	call	?ALERT@@YAXW4ALERT_TYPE@@PADZZ		; ALERT
	add	esp, 8

; 539  : 		g_fRenderInitialized = FALSE;

	mov	DWORD PTR ?g_fRenderInitialized@@3HA, 0	; g_fRenderInitialized

; 540  : 		return;

	jmp	$LN1@GL_InitExt
$LN3@GL_InitExt:

; 541  : 	}
; 542  : 
; 543  : 	// get our various GL strings
; 544  : 	glConfig.vendor_string = pglGetString( GL_VENDOR );

	push	7936					; 00001f00H
	call	DWORD PTR ?pglGetString@@3P6GPBDI@ZA	; pglGetString
	mov	DWORD PTR ?glConfig@@3UglConfig_t@@A+8, eax

; 545  : 	glConfig.renderer_string = pglGetString( GL_RENDERER );

	push	7937					; 00001f01H
	call	DWORD PTR ?pglGetString@@3P6GPBDI@ZA	; pglGetString
	mov	DWORD PTR ?glConfig@@3UglConfig_t@@A, eax

; 546  : 	glConfig.version_string = pglGetString( GL_VERSION );

	push	7938					; 00001f02H
	call	DWORD PTR ?pglGetString@@3P6GPBDI@ZA	; pglGetString
	mov	DWORD PTR ?glConfig@@3UglConfig_t@@A+4, eax

; 547  : 	glConfig.extensions_string = pglGetString( GL_EXTENSIONS );

	push	7939					; 00001f03H
	call	DWORD PTR ?pglGetString@@3P6GPBDI@ZA	; pglGetString
	mov	DWORD PTR ?glConfig@@3UglConfig_t@@A+16, eax

; 548  : 
; 549  : 	if( Q_stristr( glConfig.renderer_string, "geforce" ))

	push	OFFSET ??_C@_07MPJPGECB@geforce?$AA@
	mov	eax, DWORD PTR ?glConfig@@3UglConfig_t@@A
	push	eax
	call	?Q_stristr@@YAPADPBD0@Z			; Q_stristr
	add	esp, 8
	test	eax, eax
	je	SHORT $LN4@GL_InitExt

; 550  : 		glConfig.hardware_type = GLHW_NVIDIA;

	mov	DWORD PTR ?glConfig@@3UglConfig_t@@A+12, 2
	jmp	$LN16@GL_InitExt
$LN4@GL_InitExt:

; 551  : 	else if( Q_stristr( glConfig.renderer_string, "quadro fx" ))

	push	OFFSET ??_C@_09IKHEJAGC@quadro?5fx?$AA@
	mov	eax, DWORD PTR ?glConfig@@3UglConfig_t@@A
	push	eax
	call	?Q_stristr@@YAPADPBD0@Z			; Q_stristr
	add	esp, 8
	test	eax, eax
	je	SHORT $LN6@GL_InitExt

; 552  : 		glConfig.hardware_type = GLHW_NVIDIA;

	mov	DWORD PTR ?glConfig@@3UglConfig_t@@A+12, 2
	jmp	$LN16@GL_InitExt
$LN6@GL_InitExt:

; 553  : 	else if( Q_stristr(glConfig.renderer_string, "rv770" ))

	push	OFFSET ??_C@_05ONNLOCAH@rv770?$AA@
	mov	eax, DWORD PTR ?glConfig@@3UglConfig_t@@A
	push	eax
	call	?Q_stristr@@YAPADPBD0@Z			; Q_stristr
	add	esp, 8
	test	eax, eax
	je	SHORT $LN8@GL_InitExt

; 554  : 		glConfig.hardware_type = GLHW_RADEON;

	mov	DWORD PTR ?glConfig@@3UglConfig_t@@A+12, 1
	jmp	$LN16@GL_InitExt
$LN8@GL_InitExt:

; 555  : 	else if( Q_stristr(glConfig.renderer_string, "radeon hd" ))

	push	OFFSET ??_C@_09BADJHFGO@radeon?5hd?$AA@
	mov	eax, DWORD PTR ?glConfig@@3UglConfig_t@@A
	push	eax
	call	?Q_stristr@@YAPADPBD0@Z			; Q_stristr
	add	esp, 8
	test	eax, eax
	je	SHORT $LN10@GL_InitExt

; 556  : 		glConfig.hardware_type = GLHW_RADEON;

	mov	DWORD PTR ?glConfig@@3UglConfig_t@@A+12, 1
	jmp	SHORT $LN16@GL_InitExt
$LN10@GL_InitExt:

; 557  : 	else if( Q_stristr( glConfig.renderer_string, "eah4850" ) || Q_stristr( glConfig.renderer_string, "eah4870" ))

	push	OFFSET ??_C@_07FHGIJLKP@eah4850?$AA@
	mov	eax, DWORD PTR ?glConfig@@3UglConfig_t@@A
	push	eax
	call	?Q_stristr@@YAPADPBD0@Z			; Q_stristr
	add	esp, 8
	test	eax, eax
	jne	SHORT $LN14@GL_InitExt
	push	OFFSET ??_C@_07FEOMEPMB@eah4870?$AA@
	mov	eax, DWORD PTR ?glConfig@@3UglConfig_t@@A
	push	eax
	call	?Q_stristr@@YAPADPBD0@Z			; Q_stristr
	add	esp, 8
	test	eax, eax
	je	SHORT $LN12@GL_InitExt
$LN14@GL_InitExt:

; 558  : 		glConfig.hardware_type = GLHW_RADEON;

	mov	DWORD PTR ?glConfig@@3UglConfig_t@@A+12, 1
	jmp	SHORT $LN16@GL_InitExt
$LN12@GL_InitExt:

; 559  : 	else if( Q_stristr( glConfig.renderer_string, "radeon" ))

	push	OFFSET ??_C@_06CHDCBPE@radeon?$AA@
	mov	eax, DWORD PTR ?glConfig@@3UglConfig_t@@A
	push	eax
	call	?Q_stristr@@YAPADPBD0@Z			; Q_stristr
	add	esp, 8
	test	eax, eax
	je	SHORT $LN15@GL_InitExt

; 560  : 		glConfig.hardware_type = GLHW_RADEON;

	mov	DWORD PTR ?glConfig@@3UglConfig_t@@A+12, 1
	jmp	SHORT $LN16@GL_InitExt
$LN15@GL_InitExt:

; 561  : 	else glConfig.hardware_type = GLHW_GENERIC;

	mov	DWORD PTR ?glConfig@@3UglConfig_t@@A+12, 0
$LN16@GL_InitExt:

; 562  : 
; 563  : 	glConfig.version = Q_atof( glConfig.version_string );

	mov	eax, DWORD PTR ?glConfig@@3UglConfig_t@@A+4
	push	eax
	call	?Q_atof@@YAMPBD@Z			; Q_atof
	add	esp, 4
	fstp	DWORD PTR ?glConfig@@3UglConfig_t@@A+100

; 564  : 
; 565  : 	Msg( "GL_VERSION: %g\n", glConfig.version );

	cvtss2sd xmm0, DWORD PTR ?glConfig@@3UglConfig_t@@A+100
	sub	esp, 8
	movsd	QWORD PTR [esp], xmm0
	push	OFFSET ??_C@_0BA@JPAPGMOA@GL_VERSION?3?5?$CFg?6?$AA@
	call	DWORD PTR ?gEngfuncs@@3Ucl_enginefuncs_s@@A+160
	add	esp, 12					; 0000000cH

; 566  : 
; 567  : 	GL_CheckExtension( "glDrawRangeElements", drawrangeelementsfuncs, "gl_drawrangeelments", R_DRAW_RANGEELEMENTS_EXT );

	push	0
	push	11					; 0000000bH
	push	OFFSET ??_C@_0BE@ILGNIII@gl_drawrangeelments?$AA@
	push	OFFSET ?drawrangeelementsfuncs@@3PAUdllfunc_s@@A
	push	OFFSET ??_C@_0BE@IHNAGJGJ@glDrawRangeElements?$AA@
	call	?GL_CheckExtension@@YAXPBDPBUdllfunc_s@@0H_N@Z ; GL_CheckExtension
	add	esp, 20					; 00000014H

; 568  : 
; 569  : 	if( !GL_Support( R_DRAW_RANGEELEMENTS_EXT ))

	push	11					; 0000000bH
	call	?GL_Support@@YA_NH@Z			; GL_Support
	add	esp, 4
	movzx	eax, al
	test	eax, eax
	jne	SHORT $LN17@GL_InitExt

; 570  : 		GL_CheckExtension( "GL_EXT_draw_range_elements", drawrangeelementsextfuncs, "gl_drawrangeelments", R_DRAW_RANGEELEMENTS_EXT );

	push	0
	push	11					; 0000000bH
	push	OFFSET ??_C@_0BE@ILGNIII@gl_drawrangeelments?$AA@
	push	OFFSET ?drawrangeelementsextfuncs@@3PAUdllfunc_s@@A
	push	OFFSET ??_C@_0BL@BBECEKLJ@GL_EXT_draw_range_elements?$AA@
	call	?GL_CheckExtension@@YAXPBDPBUdllfunc_s@@0H_N@Z ; GL_CheckExtension
	add	esp, 20					; 00000014H
$LN17@GL_InitExt:

; 571  : 
; 572  : 	// we don't care if it's an extension or not, they are identical functions, so keep it simple in the rendering code
; 573  : 	if( pglDrawRangeElementsEXT == NULL ) pglDrawRangeElementsEXT = pglDrawRangeElements;

	cmp	DWORD PTR ?pglDrawRangeElementsEXT@@3P6GXIIIHIPBX@ZA, 0 ; pglDrawRangeElementsEXT
	jne	SHORT $LN18@GL_InitExt
	mov	eax, DWORD PTR ?pglDrawRangeElements@@3P6GXIIIHIPBX@ZA ; pglDrawRangeElements
	mov	DWORD PTR ?pglDrawRangeElementsEXT@@3P6GXIIIHIPBX@ZA, eax ; pglDrawRangeElementsEXT
$LN18@GL_InitExt:

; 574  : 
; 575  : 	if( !GL_Support( R_DRAW_RANGEELEMENTS_EXT ))

	push	11					; 0000000bH
	call	?GL_Support@@YA_NH@Z			; GL_Support
	add	esp, 4
	movzx	eax, al
	test	eax, eax
	jne	SHORT $LN19@GL_InitExt

; 576  : 	{
; 577  : 		ALERT( at_error, "GL_EXT_draw_range_elements not supported. Custom renderer disabled\n" );

	push	OFFSET ??_C@_0EE@DFOMCABP@GL_EXT_draw_range_elements?5not?5s@
	push	4
	call	?ALERT@@YAXW4ALERT_TYPE@@PADZZ		; ALERT
	add	esp, 8

; 578  : 		g_fRenderInitialized = FALSE;

	mov	DWORD PTR ?g_fRenderInitialized@@3HA, 0	; g_fRenderInitialized

; 579  : 		return;

	jmp	$LN1@GL_InitExt
$LN19@GL_InitExt:

; 580  : 	}
; 581  : 
; 582  : 	// multitexture
; 583  : 	glConfig.max_texture_units = 1;

	mov	DWORD PTR ?glConfig@@3UglConfig_t@@A+52, 1

; 584  : 	GL_CheckExtension( "GL_ARB_multitexture", multitexturefuncs, "gl_arb_multitexture", R_ARB_MULTITEXTURE, true );

	push	1
	push	8
	push	OFFSET ??_C@_0BE@EJOPKNEG@gl_arb_multitexture?$AA@
	push	OFFSET ?multitexturefuncs@@3PAUdllfunc_s@@A
	push	OFFSET ??_C@_0BE@MEMOPMEA@GL_ARB_multitexture?$AA@
	call	?GL_CheckExtension@@YAXPBDPBUdllfunc_s@@0H_N@Z ; GL_CheckExtension
	add	esp, 20					; 00000014H

; 585  : 
; 586  : 	if( GL_Support( R_ARB_MULTITEXTURE ))

	push	8
	call	?GL_Support@@YA_NH@Z			; GL_Support
	add	esp, 4
	movzx	eax, al
	test	eax, eax
	je	SHORT $LN20@GL_InitExt

; 587  : 		pglGetIntegerv( GL_MAX_TEXTURE_UNITS_ARB, &glConfig.max_texture_units );

	push	OFFSET ?glConfig@@3UglConfig_t@@A+52
	push	34018					; 000084e2H
	call	DWORD PTR ?pglGetIntegerv@@3P6GXIPAH@ZA	; pglGetIntegerv
$LN20@GL_InitExt:

; 588  : 
; 589  : 	if( glConfig.max_texture_units == 1 )

	cmp	DWORD PTR ?glConfig@@3UglConfig_t@@A+52, 1
	jne	SHORT $LN21@GL_InitExt

; 590  : 		GL_SetExtension( R_ARB_MULTITEXTURE, false );

	push	0
	push	8
	call	?GL_SetExtension@@YAXHH@Z		; GL_SetExtension
	add	esp, 8
$LN21@GL_InitExt:

; 591  : 
; 592  : 	if( !GL_Support( R_ARB_MULTITEXTURE ))

	push	8
	call	?GL_Support@@YA_NH@Z			; GL_Support
	add	esp, 4
	movzx	eax, al
	test	eax, eax
	jne	SHORT $LN22@GL_InitExt

; 593  : 	{
; 594  : 		ALERT( at_error, "GL_ARB_multitexture is not supported. Custom renderer disabled.\n" );

	push	OFFSET ??_C@_0EB@FFGNEIDP@GL_ARB_multitexture?5is?5not?5suppo@
	push	4
	call	?ALERT@@YAXW4ALERT_TYPE@@PADZZ		; ALERT
	add	esp, 8

; 595  : 		g_fRenderInitialized = FALSE;

	mov	DWORD PTR ?g_fRenderInitialized@@3HA, 0	; g_fRenderInitialized

; 596  : 		return;

	jmp	$LN1@GL_InitExt
$LN22@GL_InitExt:

; 597  : 	}
; 598  : 
; 599  : 	// 3d texture support
; 600  : 	GL_CheckExtension( "GL_EXT_texture3D", NULL, "gl_texture_3d", R_TEXTURE_3D_EXT, true );

	push	1
	push	12					; 0000000cH
	push	OFFSET ??_C@_0O@BKBMFEAO@gl_texture_3d?$AA@
	push	0
	push	OFFSET ??_C@_0BB@LCNIEGEB@GL_EXT_texture3D?$AA@
	call	?GL_CheckExtension@@YAXPBDPBUdllfunc_s@@0H_N@Z ; GL_CheckExtension
	add	esp, 20					; 00000014H

; 601  : 
; 602  : 	if( GL_Support( R_TEXTURE_3D_EXT ))

	push	12					; 0000000cH
	call	?GL_Support@@YA_NH@Z			; GL_Support
	add	esp, 4
	movzx	eax, al
	test	eax, eax
	je	SHORT $LN24@GL_InitExt

; 603  : 	{
; 604  : 		pglGetIntegerv( GL_MAX_3D_TEXTURE_SIZE, &glConfig.max_3d_texture_size );

	push	OFFSET ?glConfig@@3UglConfig_t@@A+60
	push	32883					; 00008073H
	call	DWORD PTR ?pglGetIntegerv@@3P6GXIPAH@ZA	; pglGetIntegerv

; 605  : 
; 606  : 		if( glConfig.max_3d_texture_size < 32 )

	cmp	DWORD PTR ?glConfig@@3UglConfig_t@@A+60, 32 ; 00000020H
	jge	SHORT $LN24@GL_InitExt

; 607  : 		{
; 608  : 			GL_SetExtension( R_TEXTURE_3D_EXT, false );

	push	0
	push	12					; 0000000cH
	call	?GL_SetExtension@@YAXHH@Z		; GL_SetExtension
	add	esp, 8

; 609  : 			ALERT( at_error, "GL_EXT_texture3D reported bogus GL_MAX_3D_TEXTURE_SIZE, disabled\n" );

	push	OFFSET ??_C@_0EC@GNIDDJLC@GL_EXT_texture3D?5reported?5bogus?5@
	push	4
	call	?ALERT@@YAXW4ALERT_TYPE@@PADZZ		; ALERT
	add	esp, 8
$LN24@GL_InitExt:

; 610  : 		}
; 611  : 	}
; 612  : 
; 613  : 	// 2d texture array support
; 614  : 	GL_CheckExtension( "GL_EXT_texture_array", NULL, "gl_texture_2d_array", R_TEXTURE_ARRAY_EXT, true );

	push	1
	push	5
	push	OFFSET ??_C@_0BE@IGFCPAI@gl_texture_2d_array?$AA@
	push	0
	push	OFFSET ??_C@_0BF@NFIKFJJJ@GL_EXT_texture_array?$AA@
	call	?GL_CheckExtension@@YAXPBDPBUdllfunc_s@@0H_N@Z ; GL_CheckExtension
	add	esp, 20					; 00000014H

; 615  : 
; 616  : 	if( !GL_Support( R_TEXTURE_ARRAY_EXT ))

	push	5
	call	?GL_Support@@YA_NH@Z			; GL_Support
	add	esp, 4
	movzx	eax, al
	test	eax, eax
	jne	SHORT $LN25@GL_InitExt

; 617  : 		ALERT( at_warning, "GL_EXT_texture_array not supported. Landscapes will be unavailable\n" );

	push	OFFSET ??_C@_0EE@JCCAJEJP@GL_EXT_texture_array?5not?5support@
	push	3
	call	?ALERT@@YAXW4ALERT_TYPE@@PADZZ		; ALERT
	add	esp, 8
$LN25@GL_InitExt:

; 618  : 
; 619  : 	// occlusion queries
; 620  : 	GL_CheckExtension( "GL_ARB_occlusion_query", occlusionfunc, "gl_occlusion_queries", R_OCCLUSION_QUERIES_EXT );

	push	0
	push	22					; 00000016H
	push	OFFSET ??_C@_0BF@HBKHGAN@gl_occlusion_queries?$AA@
	push	OFFSET ?occlusionfunc@@3PAUdllfunc_s@@A
	push	OFFSET ??_C@_0BH@NKOBMOPI@GL_ARB_occlusion_query?$AA@
	call	?GL_CheckExtension@@YAXPBDPBUdllfunc_s@@0H_N@Z ; GL_CheckExtension
	add	esp, 20					; 00000014H

; 621  : 
; 622  : 	// separate blend
; 623  : 	GL_CheckExtension( "GL_EXT_blend_func_separate", blendseparatefunc, "gl_separate_blend", R_SEPARATE_BLENDFUNC_EXT );

	push	0
	push	21					; 00000015H
	push	OFFSET ??_C@_0BC@GHPDFHE@gl_separate_blend?$AA@
	push	OFFSET ?blendseparatefunc@@3PAUdllfunc_s@@A
	push	OFFSET ??_C@_0BL@OHIMOMCA@GL_EXT_blend_func_separate?$AA@
	call	?GL_CheckExtension@@YAXPBDPBUdllfunc_s@@0H_N@Z ; GL_CheckExtension
	add	esp, 20					; 00000014H

; 624  : 
; 625  : 	// hardware cubemaps
; 626  : 	GL_CheckExtension( "GL_ARB_texture_cube_map", NULL, "gl_texture_cubemap", R_TEXTURECUBEMAP_EXT, true );

	push	1
	push	9
	push	OFFSET ??_C@_0BD@HBEJEDLE@gl_texture_cubemap?$AA@
	push	0
	push	OFFSET ??_C@_0BI@GGDPEJMJ@GL_ARB_texture_cube_map?$AA@
	call	?GL_CheckExtension@@YAXPBDPBUdllfunc_s@@0H_N@Z ; GL_CheckExtension
	add	esp, 20					; 00000014H

; 627  : 
; 628  : 	GL_CheckExtension( "GL_ARB_seamless_cube_map", NULL, "gl_seamless_cubemap", R_SEAMLESS_CUBEMAP );

	push	0
	push	23					; 00000017H
	push	OFFSET ??_C@_0BE@MLPLJBFM@gl_seamless_cubemap?$AA@
	push	0
	push	OFFSET ??_C@_0BJ@HMEOFOCO@GL_ARB_seamless_cube_map?$AA@
	call	?GL_CheckExtension@@YAXPBDPBUdllfunc_s@@0H_N@Z ; GL_CheckExtension
	add	esp, 20					; 00000014H

; 629  : 
; 630  : 	if( GL_Support( R_TEXTURECUBEMAP_EXT ))

	push	9
	call	?GL_Support@@YA_NH@Z			; GL_Support
	add	esp, 4
	movzx	eax, al
	test	eax, eax
	je	SHORT $LN26@GL_InitExt

; 631  : 		pglGetIntegerv( GL_MAX_CUBE_MAP_TEXTURE_SIZE_ARB, &glConfig.max_cubemap_size );

	push	OFFSET ?glConfig@@3UglConfig_t@@A+68
	push	34076					; 0000851cH
	call	DWORD PTR ?pglGetIntegerv@@3P6GXIPAH@ZA	; pglGetIntegerv

; 632  : 	else

	jmp	SHORT $LN27@GL_InitExt
$LN26@GL_InitExt:

; 633  : 		ALERT( at_warning, "GL_ARB_texture_cube_map not supported. Cubemap reflections and omni shadows will be disabled.\n" );

	push	OFFSET ??_C@_0FP@IKDABNBB@GL_ARB_texture_cube_map?5not?5supp@
	push	3
	call	?ALERT@@YAXW4ALERT_TYPE@@PADZZ		; ALERT
	add	esp, 8
$LN27@GL_InitExt:

; 634  : 
; 635  : 	GL_CheckExtension( "GL_ARB_texture_non_power_of_two", NULL, "gl_texture_npot", R_ARB_TEXTURE_NPOT_EXT, true );

	push	1
	push	16					; 00000010H
	push	OFFSET ??_C@_0BA@OFKFFJCC@gl_texture_npot?$AA@
	push	0
	push	OFFSET ??_C@_0CA@IICOLDCN@GL_ARB_texture_non_power_of_two?$AA@
	call	?GL_CheckExtension@@YAXPBDPBUdllfunc_s@@0H_N@Z ; GL_CheckExtension
	add	esp, 20					; 00000014H

; 636  : 
; 637  : 	GL_CheckExtension( "GL_ARB_draw_buffers", NULL, "gl_draw_buffers", R_DRAW_BUFFERS_EXT );

	push	0
	push	7
	push	OFFSET ??_C@_0BA@DEGJADPD@gl_draw_buffers?$AA@
	push	0
	push	OFFSET ??_C@_0BE@PIDMLBFI@GL_ARB_draw_buffers?$AA@
	call	?GL_CheckExtension@@YAXPBDPBUdllfunc_s@@0H_N@Z ; GL_CheckExtension
	add	esp, 20					; 00000014H

; 638  : 
; 639  : 	GL_CheckExtension( "GL_ARB_vertex_buffer_object", vbofuncs, "gl_vertex_buffer_object", R_ARB_VERTEX_BUFFER_OBJECT_EXT );

	push	0
	push	3
	push	OFFSET ??_C@_0BI@NOKPGMMJ@gl_vertex_buffer_object?$AA@
	push	OFFSET ?vbofuncs@@3PAUdllfunc_s@@A
	push	OFFSET ??_C@_0BM@OOMEFFAE@GL_ARB_vertex_buffer_object?$AA@
	call	?GL_CheckExtension@@YAXPBDPBUdllfunc_s@@0H_N@Z ; GL_CheckExtension
	add	esp, 20					; 00000014H

; 640  : 
; 641  : 	if( !GL_Support( R_ARB_VERTEX_BUFFER_OBJECT_EXT ))

	push	3
	call	?GL_Support@@YA_NH@Z			; GL_Support
	add	esp, 4
	movzx	eax, al
	test	eax, eax
	jne	SHORT $LN28@GL_InitExt

; 642  : 	{
; 643  : 		ALERT( at_error, "GL_ARB_vertex_buffer_object not support. Custom renderer disabled\n" );

	push	OFFSET ??_C@_0ED@OKFICHLO@GL_ARB_vertex_buffer_object?5not?5@
	push	4
	call	?ALERT@@YAXW4ALERT_TYPE@@PADZZ		; ALERT
	add	esp, 8

; 644  : 		g_fRenderInitialized = FALSE;

	mov	DWORD PTR ?g_fRenderInitialized@@3HA, 0	; g_fRenderInitialized

; 645  : 		return;

	jmp	$LN1@GL_InitExt
$LN28@GL_InitExt:

; 646  : 	}
; 647  : 
; 648  : 	GL_CheckExtension( "GL_ARB_vertex_array_object", vaofuncs, "gl_vertex_array_object", R_ARB_VERTEX_ARRAY_OBJECT_EXT );

	push	0
	push	4
	push	OFFSET ??_C@_0BH@CDFMEDGE@gl_vertex_array_object?$AA@
	push	OFFSET ?vaofuncs@@3PAUdllfunc_s@@A
	push	OFFSET ??_C@_0BL@PNJKGHIL@GL_ARB_vertex_array_object?$AA@
	call	?GL_CheckExtension@@YAXPBDPBUdllfunc_s@@0H_N@Z ; GL_CheckExtension
	add	esp, 20					; 00000014H

; 649  : 
; 650  : 	if( !GL_Support( R_ARB_VERTEX_ARRAY_OBJECT_EXT ))

	push	4
	call	?GL_Support@@YA_NH@Z			; GL_Support
	add	esp, 4
	movzx	eax, al
	test	eax, eax
	jne	SHORT $LN29@GL_InitExt

; 651  : 	{
; 652  : 		ALERT( at_error, "GL_ARB_vertex_array_object not support. Custom renderer disabled\n" );

	push	OFFSET ??_C@_0EC@JODGDGLN@GL_ARB_vertex_array_object?5not?5s@
	push	4
	call	?ALERT@@YAXW4ALERT_TYPE@@PADZZ		; ALERT
	add	esp, 8

; 653  : 		g_fRenderInitialized = FALSE;

	mov	DWORD PTR ?g_fRenderInitialized@@3HA, 0	; g_fRenderInitialized

; 654  : 		return;

	jmp	$LN1@GL_InitExt
$LN29@GL_InitExt:

; 655  : 	}
; 656  : 
; 657  : 	GL_CheckExtension( "GL_EXT_gpu_shader4", NULL, "gl_ext_gpu_shader4", R_EXT_GPU_SHADER4 );

	push	0
	push	6
	push	OFFSET ??_C@_0BD@OOEOAHDF@gl_ext_gpu_shader4?$AA@
	push	0
	push	OFFSET ??_C@_0BD@MHBCPECK@GL_EXT_gpu_shader4?$AA@
	call	?GL_CheckExtension@@YAXPBDPBUdllfunc_s@@0H_N@Z ; GL_CheckExtension
	add	esp, 20					; 00000014H

; 658  : 	if( !GL_Support( R_EXT_GPU_SHADER4 ) )

	push	6
	call	?GL_Support@@YA_NH@Z			; GL_Support
	add	esp, 4
	movzx	eax, al
	test	eax, eax
	jne	SHORT $LN30@GL_InitExt

; 659  : 		ALERT( at_warning, "GL_EXT_gpu_shader4 not support. Shadows from omni lights will be disabled\n" );

	push	OFFSET ??_C@_0EL@BJHOLMP@GL_EXT_gpu_shader4?5not?5support?4?5@
	push	3
	call	?ALERT@@YAXW4ALERT_TYPE@@PADZZ		; ALERT
	add	esp, 8
$LN30@GL_InitExt:

; 660  : 
; 661  : 	GL_CheckExtension( "GL_ARB_debug_output", debugoutputfuncs, NULL, R_DEBUG_OUTPUT );

	push	0
	push	26					; 0000001aH
	push	0
	push	OFFSET ?debugoutputfuncs@@3PAUdllfunc_s@@A
	push	OFFSET ??_C@_0BE@OHIPHHMJ@GL_ARB_debug_output?$AA@
	call	?GL_CheckExtension@@YAXPBDPBUdllfunc_s@@0H_N@Z ; GL_CheckExtension
	add	esp, 20					; 00000014H

; 662  : 
; 663  : 	GL_CheckExtension( "GL_NV_alpha_to_coverage_dither_control", nv_dither_control_func, "gl_a2c_dither_control", R_A2C_DITHER_CONTROL );

	push	0
	push	29					; 0000001dH
	push	OFFSET ??_C@_0BG@LHADCHBD@gl_a2c_dither_control?$AA@
	push	OFFSET ?nv_dither_control_func@@3PAUdllfunc_s@@A
	push	OFFSET ??_C@_0CH@BCGAPLPH@GL_NV_alpha_to_coverage_dither_c@
	call	?GL_CheckExtension@@YAXPBDPBUdllfunc_s@@0H_N@Z ; GL_CheckExtension
	add	esp, 20					; 00000014H

; 664  : 
; 665  : 	// vp and fp shaders
; 666  : 	GL_CheckExtension( "GL_ARB_shader_objects", shaderobjectsfuncs, "gl_shaderobjects", R_SHADER_OBJECTS_EXT );

	push	0
	push	13					; 0000000dH
	push	OFFSET ??_C@_0BB@MKKMKLHO@gl_shaderobjects?$AA@
	push	OFFSET ?shaderobjectsfuncs@@3PAUdllfunc_s@@A
	push	OFFSET ??_C@_0BG@OLLFAEMA@GL_ARB_shader_objects?$AA@
	call	?GL_CheckExtension@@YAXPBDPBUdllfunc_s@@0H_N@Z ; GL_CheckExtension
	add	esp, 20					; 00000014H

; 667  : 
; 668  : 	if( !GL_Support( R_SHADER_OBJECTS_EXT ))

	push	13					; 0000000dH
	call	?GL_Support@@YA_NH@Z			; GL_Support
	add	esp, 4
	movzx	eax, al
	test	eax, eax
	jne	SHORT $LN31@GL_InitExt

; 669  : 	{
; 670  : 		ALERT( at_error, "GL_ARB_shader_objects not support. Custom renderer disabled\n" );

	push	OFFSET ??_C@_0DN@NIGFAOGF@GL_ARB_shader_objects?5not?5suppor@
	push	4
	call	?ALERT@@YAXW4ALERT_TYPE@@PADZZ		; ALERT
	add	esp, 8

; 671  : 		g_fRenderInitialized = FALSE;

	mov	DWORD PTR ?g_fRenderInitialized@@3HA, 0	; g_fRenderInitialized

; 672  : 		return;

	jmp	$LN1@GL_InitExt
$LN31@GL_InitExt:

; 673  : 	}
; 674  : 
; 675  : 	GL_CheckExtension( "GL_ARB_shading_language_100", NULL, "gl_shading_language", R_SHADER_GLSL100_EXT );

	push	0
	push	10					; 0000000aH
	push	OFFSET ??_C@_0BE@DCJHHPDO@gl_shading_language?$AA@
	push	0
	push	OFFSET ??_C@_0BM@IABMMANC@GL_ARB_shading_language_100?$AA@
	call	?GL_CheckExtension@@YAXPBDPBUdllfunc_s@@0H_N@Z ; GL_CheckExtension
	add	esp, 20					; 00000014H

; 676  : 
; 677  : 	if( !GL_Support( R_SHADER_GLSL100_EXT ))

	push	10					; 0000000aH
	call	?GL_Support@@YA_NH@Z			; GL_Support
	add	esp, 4
	movzx	eax, al
	test	eax, eax
	jne	SHORT $LN32@GL_InitExt

; 678  : 	{
; 679  : 		ALERT( at_error, "GL_ARB_shading_language_100 not support. Custom renderer disabled\n" );

	push	OFFSET ??_C@_0ED@DKJDGDBI@GL_ARB_shading_language_100?5not?5@
	push	4
	call	?ALERT@@YAXW4ALERT_TYPE@@PADZZ		; ALERT
	add	esp, 8

; 680  : 		g_fRenderInitialized = FALSE;

	mov	DWORD PTR ?g_fRenderInitialized@@3HA, 0	; g_fRenderInitialized

; 681  : 		return;

	jmp	$LN1@GL_InitExt
$LN32@GL_InitExt:

; 682  : 	}
; 683  : 
; 684  : 	GL_CheckExtension( "GL_ARB_vertex_shader", vertexshaderfuncs, "gl_vertexshader", R_VERTEX_SHADER_EXT );

	push	0
	push	14					; 0000000eH
	push	OFFSET ??_C@_0BA@EBMBABPM@gl_vertexshader?$AA@
	push	OFFSET ?vertexshaderfuncs@@3PAUdllfunc_s@@A
	push	OFFSET ??_C@_0BF@GNLBPIJF@GL_ARB_vertex_shader?$AA@
	call	?GL_CheckExtension@@YAXPBDPBUdllfunc_s@@0H_N@Z ; GL_CheckExtension
	add	esp, 20					; 00000014H

; 685  : 
; 686  : 	if( !GL_Support( R_VERTEX_SHADER_EXT ))

	push	14					; 0000000eH
	call	?GL_Support@@YA_NH@Z			; GL_Support
	add	esp, 4
	movzx	eax, al
	test	eax, eax
	jne	SHORT $LN33@GL_InitExt

; 687  : 	{
; 688  : 		ALERT( at_error, "GL_ARB_vertex_shader not support. Custom renderer disabled\n" );

	push	OFFSET ??_C@_0DM@LFGGMPDD@GL_ARB_vertex_shader?5not?5support@
	push	4
	call	?ALERT@@YAXW4ALERT_TYPE@@PADZZ		; ALERT
	add	esp, 8

; 689  : 		g_fRenderInitialized = FALSE;

	mov	DWORD PTR ?g_fRenderInitialized@@3HA, 0	; g_fRenderInitialized

; 690  : 		return;

	jmp	$LN1@GL_InitExt
$LN33@GL_InitExt:

; 691  : 	}
; 692  : 
; 693  : 	GL_CheckExtension( "GL_ARB_fragment_shader", NULL, "gl_pixelshader", R_FRAGMENT_SHADER_EXT );

	push	0
	push	15					; 0000000fH
	push	OFFSET ??_C@_0P@HIBILMAM@gl_pixelshader?$AA@
	push	0
	push	OFFSET ??_C@_0BH@MOFIMEJB@GL_ARB_fragment_shader?$AA@
	call	?GL_CheckExtension@@YAXPBDPBUdllfunc_s@@0H_N@Z ; GL_CheckExtension
	add	esp, 20					; 00000014H

; 694  : 
; 695  : 	if( !GL_Support( R_FRAGMENT_SHADER_EXT ))

	push	15					; 0000000fH
	call	?GL_Support@@YA_NH@Z			; GL_Support
	add	esp, 4
	movzx	eax, al
	test	eax, eax
	jne	SHORT $LN34@GL_InitExt

; 696  : 	{
; 697  : 		ALERT( at_error, "GL_ARB_fragment_shader not support. Custom renderer disabled\n" );

	push	OFFSET ??_C@_0DO@MLDGNPNK@GL_ARB_fragment_shader?5not?5suppo@
	push	4
	call	?ALERT@@YAXW4ALERT_TYPE@@PADZZ		; ALERT
	add	esp, 8

; 698  : 		g_fRenderInitialized = FALSE;

	mov	DWORD PTR ?g_fRenderInitialized@@3HA, 0	; g_fRenderInitialized

; 699  : 		return;

	jmp	$LN1@GL_InitExt
$LN34@GL_InitExt:

; 700  : 	}
; 701  : 
; 702  : 	GL_CheckExtension( "GL_ARB_depth_texture", NULL, "gl_depthtexture", R_DEPTH_TEXTURE );

	push	0
	push	18					; 00000012H
	push	OFFSET ??_C@_0BA@DAIBOLLA@gl_depthtexture?$AA@
	push	0
	push	OFFSET ??_C@_0BF@OKLDDGBF@GL_ARB_depth_texture?$AA@
	call	?GL_CheckExtension@@YAXPBDPBUdllfunc_s@@0H_N@Z ; GL_CheckExtension
	add	esp, 20					; 00000014H

; 703  : 	GL_CheckExtension( "GL_ARB_shadow", NULL, "gl_arb_shadow", R_SHADOW_EXT );

	push	0
	push	19					; 00000013H
	push	OFFSET ??_C@_0O@IKEDELBI@gl_arb_shadow?$AA@
	push	0
	push	OFFSET ??_C@_0O@LPGJHGJB@GL_ARB_shadow?$AA@
	call	?GL_CheckExtension@@YAXPBDPBUdllfunc_s@@0H_N@Z ; GL_CheckExtension
	add	esp, 20					; 00000014H

; 704  : 
; 705  : 	if( !GL_Support( R_DEPTH_TEXTURE ) || !GL_Support( R_SHADOW_EXT ))

	push	18					; 00000012H
	call	?GL_Support@@YA_NH@Z			; GL_Support
	add	esp, 4
	movzx	eax, al
	test	eax, eax
	je	SHORT $LN36@GL_InitExt
	push	19					; 00000013H
	call	?GL_Support@@YA_NH@Z			; GL_Support
	add	esp, 4
	movzx	eax, al
	test	eax, eax
	jne	SHORT $LN35@GL_InitExt
$LN36@GL_InitExt:

; 706  : 	{
; 707  : 		ALERT( at_warning, "GL_ARB_depth_texture or GL_ARB_shadow not supported. Dynamic shadows are disabled\n" );

	push	OFFSET ??_C@_0FD@EOLBHNMH@GL_ARB_depth_texture?5or?5GL_ARB_s@
	push	3
	call	?ALERT@@YAXW4ALERT_TYPE@@PADZZ		; ALERT
	add	esp, 8

; 708  : 		tr.shadows_notsupport = true;

	mov	BYTE PTR ?tr@@3Uref_globals_t@@A+5830934, 1
$LN35@GL_InitExt:

; 709  : 	}
; 710  : 
; 711  : 	glConfig.max_2d_texture_size = 0;

	mov	DWORD PTR ?glConfig@@3UglConfig_t@@A+56, 0

; 712  : 	pglGetIntegerv( GL_MAX_TEXTURE_SIZE, &glConfig.max_2d_texture_size );

	push	OFFSET ?glConfig@@3UglConfig_t@@A+56
	push	3379					; 00000d33H
	call	DWORD PTR ?pglGetIntegerv@@3P6GXIPAH@ZA	; pglGetIntegerv

; 713  : 	if( glConfig.max_2d_texture_size <= 0 ) glConfig.max_2d_texture_size = 256;

	cmp	DWORD PTR ?glConfig@@3UglConfig_t@@A+56, 0
	jg	SHORT $LN37@GL_InitExt
	mov	DWORD PTR ?glConfig@@3UglConfig_t@@A+56, 256 ; 00000100H
$LN37@GL_InitExt:

; 714  : 
; 715  : 	// FBO support
; 716  : 	GL_CheckExtension( "GL_ARB_framebuffer_object", fbofuncs, "gl_framebuffers", R_FRAMEBUFFER_OBJECT );

	push	0
	push	20					; 00000014H
	push	OFFSET ??_C@_0BA@NPKGONNF@gl_framebuffers?$AA@
	push	OFFSET ?fbofuncs@@3PAUdllfunc_s@@A
	push	OFFSET ??_C@_0BK@EJHLNENJ@GL_ARB_framebuffer_object?$AA@
	call	?GL_CheckExtension@@YAXPBDPBUdllfunc_s@@0H_N@Z ; GL_CheckExtension
	add	esp, 20					; 00000014H

; 717  : 
; 718  : 	// Paranoia OpenGL32.dll may be eliminate shadows. Run special check for it
; 719  : 	GL_CheckExtension( "PARANOIA_HACKS_V1", NULL, NULL, R_PARANOIA_EXT );

	push	0
	push	25					; 00000019H
	push	0
	push	0
	push	OFFSET ??_C@_0BC@NKKPIGPD@PARANOIA_HACKS_V1?$AA@
	call	?GL_CheckExtension@@YAXPBDPBUdllfunc_s@@0H_N@Z ; GL_CheckExtension
	add	esp, 20					; 00000014H

; 720  : 
; 721  : 	// check for hardware skinning
; 722  : 	pglGetIntegerv( GL_MAX_VERTEX_UNIFORM_COMPONENTS_ARB, &glConfig.max_vertex_uniforms );

	push	OFFSET ?glConfig@@3UglConfig_t@@A+76
	push	35658					; 00008b4aH
	call	DWORD PTR ?pglGetIntegerv@@3P6GXIPAH@ZA	; pglGetIntegerv

; 723  : 	pglGetIntegerv( GL_MAX_VERTEX_ATTRIBS_ARB, &glConfig.max_vertex_attribs );

	push	OFFSET ?glConfig@@3UglConfig_t@@A+80
	push	34921					; 00008869H
	call	DWORD PTR ?pglGetIntegerv@@3P6GXIPAH@ZA	; pglGetIntegerv

; 724  : 	pglGetIntegerv( GL_MAX_VARYING_FLOATS_ARB, &glConfig.max_varying_floats );

	push	OFFSET ?glConfig@@3UglConfig_t@@A+84
	push	35659					; 00008b4bH
	call	DWORD PTR ?pglGetIntegerv@@3P6GXIPAH@ZA	; pglGetIntegerv

; 725  : 
; 726  : 	if( glConfig.hardware_type == GLHW_RADEON && glConfig.max_vertex_uniforms > 512 )

	cmp	DWORD PTR ?glConfig@@3UglConfig_t@@A+12, 1
	jne	SHORT $LN38@GL_InitExt
	cmp	DWORD PTR ?glConfig@@3UglConfig_t@@A+76, 512 ; 00000200H
	jle	SHORT $LN38@GL_InitExt

; 727  : 		glConfig.max_vertex_uniforms /= 4; // only radeon returns count of floats other returns count of vec4

	mov	eax, DWORD PTR ?glConfig@@3UglConfig_t@@A+76
	cdq
	and	edx, 3
	add	eax, edx
	sar	eax, 2
	mov	DWORD PTR ?glConfig@@3UglConfig_t@@A+76, eax
$LN38@GL_InitExt:

; 728  : 
; 729  : 	if( !glConfig.max_vertex_uniforms )

	cmp	DWORD PTR ?glConfig@@3UglConfig_t@@A+76, 0
	jne	SHORT $LN39@GL_InitExt

; 730  : 	{
; 731  : 		pglGetIntegerv( GL_MAX_VERTEX_UNIFORM_VECTORS, &glConfig.max_vertex_uniforms );

	push	OFFSET ?glConfig@@3UglConfig_t@@A+76
	push	36347					; 00008dfbH
	call	DWORD PTR ?pglGetIntegerv@@3P6GXIPAH@ZA	; pglGetIntegerv

; 732  : 		glConfig.max_vertex_uniforms *= 4;

	mov	eax, DWORD PTR ?glConfig@@3UglConfig_t@@A+76
	shl	eax, 2
	mov	DWORD PTR ?glConfig@@3UglConfig_t@@A+76, eax
$LN39@GL_InitExt:

; 733  : 	}
; 734  : 
; 735  : 	if( !glConfig.max_varying_floats )

	cmp	DWORD PTR ?glConfig@@3UglConfig_t@@A+84, 0
	jne	SHORT $LN40@GL_InitExt

; 736  : 	{
; 737  : 		pglGetIntegerv( GL_MAX_VARYING_VECTORS, &glConfig.max_varying_floats );

	push	OFFSET ?glConfig@@3UglConfig_t@@A+84
	push	36348					; 00008dfcH
	call	DWORD PTR ?pglGetIntegerv@@3P6GXIPAH@ZA	; pglGetIntegerv

; 738  : 		glConfig.max_varying_floats *= 4;

	mov	eax, DWORD PTR ?glConfig@@3UglConfig_t@@A+84
	shl	eax, 2
	mov	DWORD PTR ?glConfig@@3UglConfig_t@@A+84, eax
$LN40@GL_InitExt:

; 739  : 	}
; 740  : 
; 741  : 	glConfig.max_skinning_bones = bound( 0, ( Q_max( glConfig.max_vertex_uniforms - MAX_RESERVED_UNIFORMS, 0 ) / 7 ), MAXSTUDIOBONES );

	mov	eax, DWORD PTR ?glConfig@@3UglConfig_t@@A+76
	sub	eax, 22					; 00000016H
	test	eax, eax
	jle	SHORT $LN47@GL_InitExt
	mov	ecx, DWORD PTR ?glConfig@@3UglConfig_t@@A+76
	sub	ecx, 22					; 00000016H
	mov	DWORD PTR tv498[ebp], ecx
	jmp	SHORT $LN48@GL_InitExt
$LN47@GL_InitExt:
	mov	DWORD PTR tv498[ebp], 0
$LN48@GL_InitExt:
	mov	eax, DWORD PTR tv498[ebp]
	cdq
	mov	ecx, 7
	idiv	ecx
	test	eax, eax
	jl	SHORT $LN55@GL_InitExt
	mov	edx, DWORD PTR ?glConfig@@3UglConfig_t@@A+76
	sub	edx, 22					; 00000016H
	test	edx, edx
	jle	SHORT $LN49@GL_InitExt
	mov	eax, DWORD PTR ?glConfig@@3UglConfig_t@@A+76
	sub	eax, 22					; 00000016H
	mov	DWORD PTR tv504[ebp], eax
	jmp	SHORT $LN50@GL_InitExt
$LN49@GL_InitExt:
	mov	DWORD PTR tv504[ebp], 0
$LN50@GL_InitExt:
	mov	eax, DWORD PTR tv504[ebp]
	cdq
	mov	ecx, 7
	idiv	ecx
	cmp	eax, 128				; 00000080H
	jge	SHORT $LN53@GL_InitExt
	mov	edx, DWORD PTR ?glConfig@@3UglConfig_t@@A+76
	sub	edx, 22					; 00000016H
	test	edx, edx
	jle	SHORT $LN51@GL_InitExt
	mov	eax, DWORD PTR ?glConfig@@3UglConfig_t@@A+76
	sub	eax, 22					; 00000016H
	mov	DWORD PTR tv510[ebp], eax
	jmp	SHORT $LN52@GL_InitExt
$LN51@GL_InitExt:
	mov	DWORD PTR tv510[ebp], 0
$LN52@GL_InitExt:
	mov	eax, DWORD PTR tv510[ebp]
	cdq
	mov	ecx, 7
	idiv	ecx
	mov	DWORD PTR tv512[ebp], eax
	jmp	SHORT $LN54@GL_InitExt
$LN53@GL_InitExt:
	mov	DWORD PTR tv512[ebp], 128		; 00000080H
$LN54@GL_InitExt:
	mov	edx, DWORD PTR tv512[ebp]
	mov	DWORD PTR tv513[ebp], edx
	jmp	SHORT $LN56@GL_InitExt
$LN55@GL_InitExt:
	mov	DWORD PTR tv513[ebp], 0
$LN56@GL_InitExt:
	mov	eax, DWORD PTR tv513[ebp]
	mov	DWORD PTR ?glConfig@@3UglConfig_t@@A+88, eax

; 742  : 
; 743  : 	if( glConfig.max_skinning_bones < 32 )

	cmp	DWORD PTR ?glConfig@@3UglConfig_t@@A+88, 32 ; 00000020H
	jge	SHORT $LN41@GL_InitExt

; 744  : 	{
; 745  : 		ALERT( at_error, "Hardware Skinning not supported. Custom renderer disabled\n" );

	push	OFFSET ??_C@_0DL@GPIOBNPH@Hardware?5Skinning?5not?5supported?4@
	push	4
	call	?ALERT@@YAXW4ALERT_TYPE@@PADZZ		; ALERT
	add	esp, 8

; 746  : 		g_fRenderInitialized = FALSE;

	mov	DWORD PTR ?g_fRenderInitialized@@3HA, 0	; g_fRenderInitialized

; 747  : 		return;

	jmp	$LN1@GL_InitExt
	jmp	SHORT $LN43@GL_InitExt
$LN41@GL_InitExt:

; 748  : 	}
; 749  : 	else if( glConfig.max_skinning_bones < MAXSTUDIOBONES )

	cmp	DWORD PTR ?glConfig@@3UglConfig_t@@A+88, 128 ; 00000080H
	jge	SHORT $LN43@GL_InitExt

; 750  : 	{
; 751  : 		ALERT( at_warning, "Hardware Skinning has a limitation (max %i bones)\n", glConfig.max_skinning_bones );

	mov	eax, DWORD PTR ?glConfig@@3UglConfig_t@@A+88
	push	eax
	push	OFFSET ??_C@_0DD@GJONFIL@Hardware?5Skinning?5has?5a?5limitati@
	push	3
	call	?ALERT@@YAXW4ALERT_TYPE@@PADZZ		; ALERT
	add	esp, 12					; 0000000cH
$LN43@GL_InitExt:

; 752  : 
; 753  : 		// g-cont. this produces too many shaders...
; 754  : //		glConfig.uniforms_economy = true;
; 755  : 	}
; 756  : 
; 757  : 	ALERT( at_aiconsole, "GL_InitExtensions: max vertex uniforms %i\n", glConfig.max_vertex_uniforms );

	mov	eax, DWORD PTR ?glConfig@@3UglConfig_t@@A+76
	push	eax
	push	OFFSET ??_C@_0CL@PHMMBEDK@GL_InitExtensions?3?5max?5vertex?5un@
	push	2
	call	?ALERT@@YAXW4ALERT_TYPE@@PADZZ		; ALERT
	add	esp, 12					; 0000000cH

; 758  : 	ALERT( at_aiconsole, "GL_InitExtensions: max varying floats %i\n", glConfig.max_varying_floats );

	mov	eax, DWORD PTR ?glConfig@@3UglConfig_t@@A+84
	push	eax
	push	OFFSET ??_C@_0CK@DDCFKOFE@GL_InitExtensions?3?5max?5varying?5f@
	push	2
	call	?ALERT@@YAXW4ALERT_TYPE@@PADZZ		; ALERT
	add	esp, 12					; 0000000cH

; 759  : 	ALERT( at_aiconsole, "GL_InitExtensions: MaxSkinned bones %i\n", glConfig.max_skinning_bones );

	mov	eax, DWORD PTR ?glConfig@@3UglConfig_t@@A+88
	push	eax
	push	OFFSET ??_C@_0CI@MBCGABNH@GL_InitExtensions?3?5MaxSkinned?5bo@
	push	2
	call	?ALERT@@YAXW4ALERT_TYPE@@PADZZ		; ALERT
	add	esp, 12					; 0000000cH

; 760  : 
; 761  : 	glConfig.max_texture_units = RENDER_GET_PARM( PARM_MAX_IMAGE_UNITS, 0 );

	push	0
	push	29					; 0000001dH
	call	DWORD PTR ?gRenderfuncs@@3Urender_api_s@@A
	add	esp, 8
	mov	DWORD PTR ?glConfig@@3UglConfig_t@@A+52, eax

; 762  : 
; 763  : 	if( GL_Support( R_DEBUG_OUTPUT ))

	push	26					; 0000001aH
	call	?GL_Support@@YA_NH@Z			; GL_Support
	add	esp, 4
	movzx	eax, al
	test	eax, eax
	je	SHORT $LN44@GL_InitExt

; 764  : 	{
; 765  : 		pglDebugMessageCallbackARB( GL_DebugOutput, NULL );

	push	0
	push	OFFSET ?GL_DebugOutput@@YGXIIIIHPBDPAX@Z ; GL_DebugOutput
	call	DWORD PTR ?pglDebugMessageCallbackARB@@3P6GXP6GXIIIIHPBDPAX@Z1@ZA ; pglDebugMessageCallbackARB

; 766  : 
; 767  : 		// force everything to happen in the main thread instead of in a separate driver thread
; 768  : 		pglEnable( GL_DEBUG_OUTPUT_SYNCHRONOUS_ARB );

	push	33346					; 00008242H
	call	DWORD PTR ?pglEnable@@3P6GXI@ZA		; pglEnable

; 769  : 
; 770  : 		// enable all the low priority messages
; 771  : 		pglDebugMessageControlARB( GL_DONT_CARE, GL_DONT_CARE, GL_DEBUG_SEVERITY_LOW_ARB, 0, NULL, true );

	push	1
	push	0
	push	0
	push	37192					; 00009148H
	push	4352					; 00001100H
	push	4352					; 00001100H
	call	DWORD PTR ?pglDebugMessageControlARB@@3P6GXIIIHPBIE@ZA ; pglDebugMessageControlARB
$LN44@GL_InitExt:

; 772  : 	}
; 773  : 
; 774  : 	if( GL_Support( R_A2C_DITHER_CONTROL ) )

	push	29					; 0000001dH
	call	?GL_Support@@YA_NH@Z			; GL_Support
	add	esp, 4
	movzx	eax, al
	test	eax, eax
	je	SHORT $LN45@GL_InitExt

; 775  : 	{
; 776  : 		// we don't need alpha to coverage dithering because we're using alpha sharpening
; 777  : 		pglAlphaToCoverageDitherControlNV( GL_ALPHA_TO_COVERAGE_DITHER_DISABLE_NV );

	push	37711					; 0000934fH
	call	DWORD PTR ?pglAlphaToCoverageDitherControlNV@@3P6GXI@ZA ; pglAlphaToCoverageDitherControlNV
$LN45@GL_InitExt:
$LN1@GL_InitExt:

; 778  : 	}
; 779  : }

	pop	edi
	pop	esi
	pop	ebx
	mov	esp, ebp
	pop	ebp
	ret	0
?GL_InitExtensions@@YAXXZ ENDP				; GL_InitExtensions
_TEXT	ENDS
; Function compile flags: /Odtp /ZI
; File d:\!diffusion 2020\source code 2022\client-server\client\render\r_opengl.cpp
;	COMDAT ?GL_CheckExtension@@YAXPBDPBUdllfunc_s@@0H_N@Z
_TEXT	SEGMENT
tv156 = -76						; size = 4
tv133 = -73						; size = 1
tv95 = -73						; size = 1
_parm$ = -8						; size = 4
_func$ = -4						; size = 4
_name$ = 8						; size = 4
_funcs$ = 12						; size = 4
_cvarname$ = 16						; size = 4
_r_ext$ = 20						; size = 4
_cvar_from_engine$ = 24					; size = 1
?GL_CheckExtension@@YAXPBDPBUdllfunc_s@@0H_N@Z PROC	; GL_CheckExtension, COMDAT

; 478  : {

	push	ebp
	mov	ebp, esp
	sub	esp, 76					; 0000004cH
	push	ebx
	push	esi
	push	edi

; 479  : 	const dllfunc_t	*func;
; 480  : 	cvar_t		*parm;
; 481  : 
; 482  : 	ALERT( at_aiconsole, "GL_CheckExtension: %s ", name );

	mov	eax, DWORD PTR _name$[ebp]
	push	eax
	push	OFFSET ??_C@_0BH@HNGPIHKB@GL_CheckExtension?3?5?$CFs?5?$AA@
	push	2
	call	?ALERT@@YAXW4ALERT_TYPE@@PADZZ		; ALERT
	add	esp, 12					; 0000000cH

; 483  : 
; 484  : 	if(( name[2] == '_' || name[3] == '_' ) && !Q_strstr( glConfig.extensions_string, name ))

	mov	eax, 1
	shl	eax, 1
	mov	ecx, DWORD PTR _name$[ebp]
	movsx	edx, BYTE PTR [ecx+eax]
	cmp	edx, 95					; 0000005fH
	je	SHORT $LN9@GL_CheckEx
	mov	eax, 1
	imul	ecx, eax, 3
	mov	edx, DWORD PTR _name$[ebp]
	movsx	eax, BYTE PTR [edx+ecx]
	cmp	eax, 95					; 0000005fH
	jne	SHORT $LN8@GL_CheckEx
$LN9@GL_CheckEx:
	mov	eax, DWORD PTR _name$[ebp]
	push	eax
	mov	ecx, DWORD PTR ?glConfig@@3UglConfig_t@@A+16
	push	ecx
	call	?Q_strstr@@YAPADPBD0@Z			; Q_strstr
	add	esp, 8
	test	eax, eax
	jne	SHORT $LN8@GL_CheckEx

; 485  : 	{
; 486  : 		GL_SetExtension( r_ext, false );	// update render info

	push	0
	mov	eax, DWORD PTR _r_ext$[ebp]
	push	eax
	call	?GL_SetExtension@@YAXHH@Z		; GL_SetExtension
	add	esp, 8

; 487  : 		ALERT( at_aiconsole, "- ^1failed\n" );

	push	OFFSET ??_C@_0M@OLAKKIMP@?9?5?$FO1failed?6?$AA@
	push	2
	call	?ALERT@@YAXW4ALERT_TYPE@@PADZZ		; ALERT
	add	esp, 8

; 488  : 		return;

	jmp	$LN1@GL_CheckEx
$LN8@GL_CheckEx:

; 489  : 	}
; 490  : 
; 491  : 	if( cvarname )

	cmp	DWORD PTR _cvarname$[ebp], 0
	je	$LN10@GL_CheckEx

; 492  : 	{
; 493  : 		// NOTE: engine will be ignore cvar value if variable already exitsts (e.g. created on exec opengl.cfg)
; 494  : 		// so this call just update variable description (because Host_WriteOpenGLConfig won't archive cvars without it)
; 495  : 		if( cvar_from_engine ) parm = CVAR_GET_POINTER( cvarname );

	movzx	eax, BYTE PTR _cvar_from_engine$[ebp]
	test	eax, eax
	je	SHORT $LN11@GL_CheckEx
	mov	eax, DWORD PTR _cvarname$[ebp]
	push	eax
	call	DWORD PTR ?gEngfuncs@@3Ucl_enginefuncs_s@@A+288
	add	esp, 4
	mov	DWORD PTR _parm$[ebp], eax
	jmp	SHORT $LN12@GL_CheckEx
$LN11@GL_CheckEx:

; 496  : 		else parm = CVAR_REGISTER( (char *)cvarname, "1", FCVAR_GLCONFIG );

	push	4096					; 00001000H
	push	OFFSET ??_C@_01HIHLOKLC@1?$AA@
	mov	eax, DWORD PTR _cvarname$[ebp]
	push	eax
	call	DWORD PTR ?gEngfuncs@@3Ucl_enginefuncs_s@@A+56
	add	esp, 12					; 0000000cH
	mov	DWORD PTR _parm$[ebp], eax
$LN12@GL_CheckEx:

; 497  : 
; 498  : 		if( !CVAR_TO_BOOL( parm ) || ( !CVAR_TO_BOOL( r_extensions ) && r_ext != R_OPENGL_110 ))

	cmp	DWORD PTR _parm$[ebp], 0
	je	SHORT $LN18@GL_CheckEx
	mov	eax, DWORD PTR _parm$[ebp]
	movss	xmm0, DWORD PTR [eax+12]
	ucomiss	xmm0, DWORD PTR __real@00000000
	lahf
	test	ah, 68					; 00000044H
	jnp	SHORT $LN18@GL_CheckEx
	mov	BYTE PTR tv95[ebp], 1
	jmp	SHORT $LN19@GL_CheckEx
$LN18@GL_CheckEx:
	mov	BYTE PTR tv95[ebp], 0
$LN19@GL_CheckEx:
	movzx	ecx, BYTE PTR tv95[ebp]
	test	ecx, ecx
	je	SHORT $LN14@GL_CheckEx
	cmp	DWORD PTR ?r_extensions@@3PAUcvar_s@@A, 0 ; r_extensions
	je	SHORT $LN20@GL_CheckEx
	mov	eax, DWORD PTR ?r_extensions@@3PAUcvar_s@@A ; r_extensions
	movss	xmm0, DWORD PTR [eax+12]
	ucomiss	xmm0, DWORD PTR __real@00000000
	lahf
	test	ah, 68					; 00000044H
	jnp	SHORT $LN20@GL_CheckEx
	mov	BYTE PTR tv133[ebp], 1
	jmp	SHORT $LN21@GL_CheckEx
$LN20@GL_CheckEx:
	mov	BYTE PTR tv133[ebp], 0
$LN21@GL_CheckEx:
	movzx	ecx, BYTE PTR tv133[ebp]
	test	ecx, ecx
	jne	SHORT $LN13@GL_CheckEx
	cmp	DWORD PTR _r_ext$[ebp], 0
	je	SHORT $LN13@GL_CheckEx
$LN14@GL_CheckEx:

; 499  : 		{
; 500  : 			ALERT( at_aiconsole, "- disabled\n" );

	push	OFFSET ??_C@_0M@DMNJGNM@?9?5disabled?6?$AA@
	push	2
	call	?ALERT@@YAXW4ALERT_TYPE@@PADZZ		; ALERT
	add	esp, 8

; 501  : 			GL_SetExtension( r_ext, false );

	push	0
	mov	eax, DWORD PTR _r_ext$[ebp]
	push	eax
	call	?GL_SetExtension@@YAXHH@Z		; GL_SetExtension
	add	esp, 8

; 502  : 			return; // nothing to process at

	jmp	$LN1@GL_CheckEx
$LN13@GL_CheckEx:

; 503  : 		}
; 504  : 		GL_SetExtension( r_ext, true );

	push	1
	mov	eax, DWORD PTR _r_ext$[ebp]
	push	eax
	call	?GL_SetExtension@@YAXHH@Z		; GL_SetExtension
	add	esp, 8
$LN10@GL_CheckEx:

; 505  : 	}
; 506  : 
; 507  : 	// clear exports
; 508  : 	for( func = funcs; func && func->name; func++ )

	mov	eax, DWORD PTR _funcs$[ebp]
	mov	DWORD PTR _func$[ebp], eax
	jmp	SHORT $LN4@GL_CheckEx
$LN2@GL_CheckEx:
	mov	eax, DWORD PTR _func$[ebp]
	add	eax, 8
	mov	DWORD PTR _func$[ebp], eax
$LN4@GL_CheckEx:
	cmp	DWORD PTR _func$[ebp], 0
	je	SHORT $LN3@GL_CheckEx
	mov	eax, DWORD PTR _func$[ebp]
	cmp	DWORD PTR [eax], 0
	je	SHORT $LN3@GL_CheckEx

; 509  : 		*func->func = NULL;

	mov	eax, DWORD PTR _func$[ebp]
	mov	ecx, DWORD PTR [eax+4]
	mov	DWORD PTR [ecx], 0
	jmp	SHORT $LN2@GL_CheckEx
$LN3@GL_CheckEx:

; 510  : 
; 511  : 	GL_SetExtension( r_ext, true ); // predict extension state

	push	1
	mov	eax, DWORD PTR _r_ext$[ebp]
	push	eax
	call	?GL_SetExtension@@YAXHH@Z		; GL_SetExtension
	add	esp, 8

; 512  : 	for( func = funcs; func && func->name != NULL; func++ )

	mov	eax, DWORD PTR _funcs$[ebp]
	mov	DWORD PTR _func$[ebp], eax
	jmp	SHORT $LN7@GL_CheckEx
$LN5@GL_CheckEx:
	mov	eax, DWORD PTR _func$[ebp]
	add	eax, 8
	mov	DWORD PTR _func$[ebp], eax
$LN7@GL_CheckEx:
	cmp	DWORD PTR _func$[ebp], 0
	je	SHORT $LN6@GL_CheckEx
	mov	eax, DWORD PTR _func$[ebp]
	cmp	DWORD PTR [eax], 0
	je	SHORT $LN6@GL_CheckEx

; 513  : 	{
; 514  : 		// functions are cleared before all the extensions are evaluated
; 515  : 		if(!(*func->func = (void *)GL_GetProcAddress( func->name )))

	mov	eax, DWORD PTR _func$[ebp]
	mov	ecx, DWORD PTR [eax]
	push	ecx
	call	DWORD PTR ?gRenderfuncs@@3Urender_api_s@@A+164
	add	esp, 4
	mov	DWORD PTR tv156[ebp], eax
	mov	edx, DWORD PTR _func$[ebp]
	mov	eax, DWORD PTR [edx+4]
	mov	ecx, DWORD PTR tv156[ebp]
	mov	DWORD PTR [eax], ecx
	cmp	DWORD PTR tv156[ebp], 0
	jne	SHORT $LN15@GL_CheckEx

; 516  : 			GL_SetExtension( r_ext, false ); // one or more functions are invalid, extension will be disabled

	push	0
	mov	eax, DWORD PTR _r_ext$[ebp]
	push	eax
	call	?GL_SetExtension@@YAXHH@Z		; GL_SetExtension
	add	esp, 8
$LN15@GL_CheckEx:

; 517  : 	}

	jmp	SHORT $LN5@GL_CheckEx
$LN6@GL_CheckEx:

; 518  : 
; 519  : 	if( GL_Support( r_ext ))

	mov	eax, DWORD PTR _r_ext$[ebp]
	push	eax
	call	?GL_Support@@YA_NH@Z			; GL_Support
	add	esp, 4
	movzx	ecx, al
	test	ecx, ecx
	je	SHORT $LN16@GL_CheckEx

; 520  : 		ALERT( at_aiconsole, "- ^2enabled\n" );

	push	OFFSET ??_C@_0N@EEFGEEA@?9?5?$FO2enabled?6?$AA@
	push	2
	call	?ALERT@@YAXW4ALERT_TYPE@@PADZZ		; ALERT
	add	esp, 8
$LN16@GL_CheckEx:
$LN1@GL_CheckEx:

; 521  : }

	pop	edi
	pop	esi
	pop	ebx
	mov	esp, ebp
	pop	ebp
	ret	0
?GL_CheckExtension@@YAXPBDPBUdllfunc_s@@0H_N@Z ENDP	; GL_CheckExtension
_TEXT	ENDS
; Function compile flags: /Odtp /ZI
; File d:\!diffusion 2020\source code 2022\client-server\client\render\r_opengl.cpp
;	COMDAT ?GL_SetExtension@@YAXHH@Z
_TEXT	SEGMENT
tv69 = -68						; size = 4
_r_ext$ = 8						; size = 4
_enable$ = 12						; size = 4
?GL_SetExtension@@YAXHH@Z PROC				; GL_SetExtension, COMDAT

; 453  : {

	push	ebp
	mov	ebp, esp
	sub	esp, 68					; 00000044H
	push	ebx
	push	esi
	push	edi

; 454  : 	if( r_ext >= 0 && r_ext < R_EXTCOUNT )

	cmp	DWORD PTR _r_ext$[ebp], 0
	jl	SHORT $LN2@GL_SetExte
	cmp	DWORD PTR _r_ext$[ebp], 30		; 0000001eH
	jge	SHORT $LN2@GL_SetExte

; 455  : 		glConfig.extension[r_ext] = enable ? GL_TRUE : GL_FALSE;

	cmp	DWORD PTR _enable$[ebp], 0
	je	SHORT $LN5@GL_SetExte
	mov	DWORD PTR tv69[ebp], 1
	jmp	SHORT $LN6@GL_SetExte
$LN5@GL_SetExte:
	mov	DWORD PTR tv69[ebp], 0
$LN6@GL_SetExte:
	mov	eax, DWORD PTR _r_ext$[ebp]
	mov	cl, BYTE PTR tv69[ebp]
	mov	BYTE PTR ?glConfig@@3UglConfig_t@@A[eax+20], cl
	jmp	SHORT $LN1@GL_SetExte
$LN2@GL_SetExte:

; 456  : 	else ALERT( at_error, "GL_SetExtension: invalid extension %d\n", r_ext );

	mov	eax, DWORD PTR _r_ext$[ebp]
	push	eax
	push	OFFSET ??_C@_0CH@EIDGMENE@GL_SetExtension?3?5invalid?5extensi@
	push	4
	call	?ALERT@@YAXW4ALERT_TYPE@@PADZZ		; ALERT
	add	esp, 12					; 0000000cH
$LN1@GL_SetExte:

; 457  : }

	pop	edi
	pop	esi
	pop	ebx
	mov	esp, ebp
	pop	ebp
	ret	0
?GL_SetExtension@@YAXHH@Z ENDP				; GL_SetExtension
_TEXT	ENDS
; Function compile flags: /Odtp /ZI
; File d:\!diffusion 2020\source code 2022\client-server\client\render\r_opengl.cpp
;	COMDAT ?GL_DebugOutput@@YGXIIIIHPBDPAX@Z
_TEXT	SEGMENT
tv64 = -68						; size = 4
_source$ = 8						; size = 4
_type$ = 12						; size = 4
_id$ = 16						; size = 4
_severity$ = 20						; size = 4
_length$ = 24						; size = 4
_message$ = 28						; size = 4
_userParam$ = 32					; size = 4
?GL_DebugOutput@@YGXIIIIHPBDPAX@Z PROC			; GL_DebugOutput, COMDAT

; 418  : {

	push	ebp
	mov	ebp, esp
	sub	esp, 68					; 00000044H
	push	ebx
	push	esi
	push	edi

; 419  : 	switch( type )

	mov	eax, DWORD PTR _type$[ebp]
	mov	DWORD PTR tv64[ebp], eax
	mov	ecx, DWORD PTR tv64[ebp]
	sub	ecx, 33356				; 0000824cH
	mov	DWORD PTR tv64[ebp], ecx
	cmp	DWORD PTR tv64[ebp], 4
	ja	$LN10@GL_DebugOu
	mov	edx, DWORD PTR tv64[ebp]
	jmp	DWORD PTR $LN13@GL_DebugOu[edx*4]
$LN4@GL_DebugOu:

; 420  : 	{
; 421  : 	case GL_DEBUG_TYPE_ERROR_ARB:
; 422  : 		gEngfuncs.Con_Printf( va( "^1OpenGL Error:^7 %s\n", message ));

	mov	eax, DWORD PTR _message$[ebp]
	push	eax
	push	OFFSET ??_C@_0BG@JJFGPKNN@?$FO1OpenGL?5Error?3?$FO7?5?$CFs?6?$AA@
	call	?va@@YAPADPBDZZ				; va
	add	esp, 8
	push	eax
	call	DWORD PTR ?gEngfuncs@@3Ucl_enginefuncs_s@@A+160
	add	esp, 4

; 423  : 		break;

	jmp	$LN1@GL_DebugOu
$LN5@GL_DebugOu:

; 424  : 	case GL_DEBUG_TYPE_DEPRECATED_BEHAVIOR_ARB:
; 425  : 		gEngfuncs.Con_Printf( va( "^3OpenGL Warning:^7 %s\n", message ));

	mov	eax, DWORD PTR _message$[ebp]
	push	eax
	push	OFFSET ??_C@_0BI@BELGKLBK@?$FO3OpenGL?5Warning?3?$FO7?5?$CFs?6?$AA@
	call	?va@@YAPADPBDZZ				; va
	add	esp, 8
	push	eax
	call	DWORD PTR ?gEngfuncs@@3Ucl_enginefuncs_s@@A+160
	add	esp, 4

; 426  : 		break;

	jmp	$LN1@GL_DebugOu
$LN6@GL_DebugOu:

; 427  : 	case GL_DEBUG_TYPE_UNDEFINED_BEHAVIOR_ARB:
; 428  : 		gEngfuncs.Con_Printf( va( "^3OpenGL Warning:^7 %s\n", message ));

	mov	eax, DWORD PTR _message$[ebp]
	push	eax
	push	OFFSET ??_C@_0BI@BELGKLBK@?$FO3OpenGL?5Warning?3?$FO7?5?$CFs?6?$AA@
	call	?va@@YAPADPBDZZ				; va
	add	esp, 8
	push	eax
	call	DWORD PTR ?gEngfuncs@@3Ucl_enginefuncs_s@@A+160
	add	esp, 4

; 429  : 		break;

	jmp	SHORT $LN1@GL_DebugOu
$LN7@GL_DebugOu:

; 430  : 	case GL_DEBUG_TYPE_PORTABILITY_ARB:
; 431  : 		if( developer_level < DEV_EXTENDED )

	cmp	DWORD PTR ?developer_level@@3HA, 2	; developer_level
	jge	SHORT $LN8@GL_DebugOu

; 432  : 			return;

	jmp	SHORT $LN1@GL_DebugOu
$LN8@GL_DebugOu:

; 433  : 		gEngfuncs.Con_Printf( va( "^3OpenGL Warning:^7 %s\n", message ));

	mov	eax, DWORD PTR _message$[ebp]
	push	eax
	push	OFFSET ??_C@_0BI@BELGKLBK@?$FO3OpenGL?5Warning?3?$FO7?5?$CFs?6?$AA@
	call	?va@@YAPADPBDZZ				; va
	add	esp, 8
	push	eax
	call	DWORD PTR ?gEngfuncs@@3Ucl_enginefuncs_s@@A+160
	add	esp, 4

; 434  : 		break;

	jmp	SHORT $LN1@GL_DebugOu
$LN9@GL_DebugOu:

; 435  : 	case GL_DEBUG_TYPE_PERFORMANCE_ARB:
; 436  : 		gEngfuncs.Con_Printf( va( "OpenGL Perfomance: %s\n", message ));

	mov	eax, DWORD PTR _message$[ebp]
	push	eax
	push	OFFSET ??_C@_0BH@ONCPBIMA@OpenGL?5Perfomance?3?5?$CFs?6?$AA@
	call	?va@@YAPADPBDZZ				; va
	add	esp, 8
	push	eax
	call	DWORD PTR ?gEngfuncs@@3Ucl_enginefuncs_s@@A+160
	add	esp, 4

; 437  : 		break;

	jmp	SHORT $LN1@GL_DebugOu
$LN10@GL_DebugOu:

; 438  : 	case GL_DEBUG_TYPE_OTHER_ARB:
; 439  : 	default:
; 440  : 		if( developer_level < DEV_EXTENDED )

	cmp	DWORD PTR ?developer_level@@3HA, 2	; developer_level
	jge	SHORT $LN11@GL_DebugOu

; 441  : 			return;

	jmp	SHORT $LN1@GL_DebugOu
$LN11@GL_DebugOu:

; 442  : 		gEngfuncs.Con_Printf( va( "OpenGL: %s\n", message ));

	mov	eax, DWORD PTR _message$[ebp]
	push	eax
	push	OFFSET ??_C@_0M@GEPHGIFJ@OpenGL?3?5?$CFs?6?$AA@
	call	?va@@YAPADPBDZZ				; va
	add	esp, 8
	push	eax
	call	DWORD PTR ?gEngfuncs@@3Ucl_enginefuncs_s@@A+160
	add	esp, 4
$LN1@GL_DebugOu:

; 443  : 		break;
; 444  : 	}
; 445  : }

	pop	edi
	pop	esi
	pop	ebx
	mov	esp, ebp
	pop	ebp
	ret	28					; 0000001cH
$LN13@GL_DebugOu:
	DD	$LN4@GL_DebugOu
	DD	$LN5@GL_DebugOu
	DD	$LN6@GL_DebugOu
	DD	$LN7@GL_DebugOu
	DD	$LN9@GL_DebugOu
?GL_DebugOutput@@YGXIIIIHPBDPAX@Z ENDP			; GL_DebugOutput
_TEXT	ENDS
; Function compile flags: /Odtp /ZI
; File d:\!diffusion 2020\source code 2022\client-server\client\render\r_opengl.cpp
;	COMDAT ??__EglState@@YAXXZ
text$di	SEGMENT
??__EglState@@YAXXZ PROC				; `dynamic initializer for 'glState'', COMDAT

; 27   : glState_t		glState;

	push	ebp
	mov	ebp, esp
	sub	esp, 64					; 00000040H
	push	ebx
	push	esi
	push	edi
	mov	ecx, OFFSET ?glState@@3UglState_t@@A	; glState
	call	??0glState_t@@QAE@XZ
	pop	edi
	pop	esi
	pop	ebx
	mov	esp, ebp
	pop	ebp
	ret	0
??__EglState@@YAXXZ ENDP				; `dynamic initializer for 'glState''
text$di	ENDS
; Function compile flags: /Odtp /ZI
; File d:\!diffusion 2020\source code 2022\client-server\client\render\r_opengl.cpp
;	COMDAT ?GL_CheckForErrors_@@YAXPBDH@Z
_TEXT	SEGMENT
tv72 = -76						; size = 4
tv67 = -73						; size = 1
_str$ = -8						; size = 4
_err$ = -4						; size = 4
_filename$ = 8						; size = 4
_fileline$ = 12						; size = 4
?GL_CheckForErrors_@@YAXPBDH@Z PROC			; GL_CheckForErrors_, COMDAT

; 946  : {

	push	ebp
	mov	ebp, esp
	sub	esp, 76					; 0000004cH
	push	ebx
	push	esi
	push	edi

; 947  : 	int	err;
; 948  : 	char	*str;
; 949  : 
; 950  : 	if( !CVAR_TO_BOOL( gl_check_errors ))

	cmp	DWORD PTR ?gl_check_errors@@3PAUcvar_s@@A, 0 ; gl_check_errors
	je	SHORT $LN14@GL_CheckFo
	mov	eax, DWORD PTR ?gl_check_errors@@3PAUcvar_s@@A ; gl_check_errors
	movss	xmm0, DWORD PTR [eax+12]
	ucomiss	xmm0, DWORD PTR __real@00000000
	lahf
	test	ah, 68					; 00000044H
	jnp	SHORT $LN14@GL_CheckFo
	mov	BYTE PTR tv67[ebp], 1
	jmp	SHORT $LN15@GL_CheckFo
$LN14@GL_CheckFo:
	mov	BYTE PTR tv67[ebp], 0
$LN15@GL_CheckFo:
	movzx	ecx, BYTE PTR tv67[ebp]
	test	ecx, ecx
	jne	SHORT $LN4@GL_CheckFo

; 951  : 		return;

	jmp	$LN1@GL_CheckFo
$LN4@GL_CheckFo:

; 952  : 
; 953  : 	if(( err = pglGetError( )) == GL_NO_ERROR )

	call	DWORD PTR ?pglGetError@@3P6GIXZA	; pglGetError
	mov	DWORD PTR _err$[ebp], eax
	cmp	DWORD PTR _err$[ebp], 0
	jne	SHORT $LN5@GL_CheckFo

; 954  : 		return;

	jmp	SHORT $LN1@GL_CheckFo
$LN5@GL_CheckFo:

; 955  : 
; 956  : 	switch( err )

	mov	eax, DWORD PTR _err$[ebp]
	mov	DWORD PTR tv72[ebp], eax
	mov	ecx, DWORD PTR tv72[ebp]
	sub	ecx, 1280				; 00000500H
	mov	DWORD PTR tv72[ebp], ecx
	cmp	DWORD PTR tv72[ebp], 5
	ja	SHORT $LN12@GL_CheckFo
	mov	edx, DWORD PTR tv72[ebp]
	jmp	DWORD PTR $LN16@GL_CheckFo[edx*4]
$LN6@GL_CheckFo:

; 957  : 	{
; 958  : 	case GL_STACK_OVERFLOW:
; 959  : 		str = "GL_STACK_OVERFLOW";

	mov	DWORD PTR _str$[ebp], OFFSET ??_C@_0BC@DLCDMCHH@GL_STACK_OVERFLOW?$AA@

; 960  : 		break;

	jmp	SHORT $LN2@GL_CheckFo
$LN7@GL_CheckFo:

; 961  : 	case GL_STACK_UNDERFLOW:
; 962  : 		str = "GL_STACK_UNDERFLOW";

	mov	DWORD PTR _str$[ebp], OFFSET ??_C@_0BD@KAJAFKFC@GL_STACK_UNDERFLOW?$AA@

; 963  : 		break;

	jmp	SHORT $LN2@GL_CheckFo
$LN8@GL_CheckFo:

; 964  : 	case GL_INVALID_ENUM:
; 965  : 		str = "GL_INVALID_ENUM";

	mov	DWORD PTR _str$[ebp], OFFSET ??_C@_0BA@LLPLHEDK@GL_INVALID_ENUM?$AA@

; 966  : 		break;

	jmp	SHORT $LN2@GL_CheckFo
$LN9@GL_CheckFo:

; 967  : 	case GL_INVALID_VALUE:
; 968  : 		str = "GL_INVALID_VALUE";

	mov	DWORD PTR _str$[ebp], OFFSET ??_C@_0BB@HDIPJELP@GL_INVALID_VALUE?$AA@

; 969  : 		break;

	jmp	SHORT $LN2@GL_CheckFo
$LN10@GL_CheckFo:

; 970  : 	case GL_INVALID_OPERATION:
; 971  : 		str = "GL_INVALID_OPERATION";

	mov	DWORD PTR _str$[ebp], OFFSET ??_C@_0BF@NFNGKHIL@GL_INVALID_OPERATION?$AA@

; 972  : 		break;

	jmp	SHORT $LN2@GL_CheckFo
$LN11@GL_CheckFo:

; 973  : 	case GL_OUT_OF_MEMORY:
; 974  : 		str = "GL_OUT_OF_MEMORY";

	mov	DWORD PTR _str$[ebp], OFFSET ??_C@_0BB@JMBJBKGI@GL_OUT_OF_MEMORY?$AA@

; 975  : 		break;

	jmp	SHORT $LN2@GL_CheckFo
$LN12@GL_CheckFo:

; 976  : 	default:
; 977  : 		str = "UNKNOWN ERROR";

	mov	DWORD PTR _str$[ebp], OFFSET ??_C@_0O@KGJDDGD@UNKNOWN?5ERROR?$AA@
$LN2@GL_CheckFo:

; 978  : 		break;
; 979  : 	}
; 980  : 
; 981  : 	gEngfuncs.Con_Printf( "^3OpenGL Error:^7 %s (called at %s:%i)\n", str, filename, fileline );

	mov	eax, DWORD PTR _fileline$[ebp]
	push	eax
	mov	ecx, DWORD PTR _filename$[ebp]
	push	ecx
	mov	edx, DWORD PTR _str$[ebp]
	push	edx
	push	OFFSET ??_C@_0CI@CEFKNKJA@?$FO3OpenGL?5Error?3?$FO7?5?$CFs?5?$CIcalled?5at?5@
	call	DWORD PTR ?gEngfuncs@@3Ucl_enginefuncs_s@@A+160
	add	esp, 16					; 00000010H
$LN1@GL_CheckFo:

; 982  : }

	pop	edi
	pop	esi
	pop	ebx
	mov	esp, ebp
	pop	ebp
	ret	0
	npad	3
$LN16@GL_CheckFo:
	DD	$LN8@GL_CheckFo
	DD	$LN9@GL_CheckFo
	DD	$LN10@GL_CheckFo
	DD	$LN6@GL_CheckFo
	DD	$LN7@GL_CheckFo
	DD	$LN11@GL_CheckFo
?GL_CheckForErrors_@@YAXPBDH@Z ENDP			; GL_CheckForErrors_
_TEXT	ENDS
; Function compile flags: /Odtp /ZI
; File d:\!diffusion 2020\source code 2022\client-server\client\render\r_opengl.cpp
;	COMDAT ?GL_Support@@YA_NH@Z
_TEXT	SEGMENT
tv70 = -65						; size = 1
_r_ext$ = 8						; size = 4
?GL_Support@@YA_NH@Z PROC				; GL_Support, COMDAT

; 465  : {

	push	ebp
	mov	ebp, esp
	sub	esp, 68					; 00000044H
	push	ebx
	push	esi
	push	edi

; 466  : 	if( r_ext >= 0 && r_ext < R_EXTCOUNT )

	cmp	DWORD PTR _r_ext$[ebp], 0
	jl	SHORT $LN2@GL_Support
	cmp	DWORD PTR _r_ext$[ebp], 30		; 0000001eH
	jge	SHORT $LN2@GL_Support

; 467  : 		return glConfig.extension[r_ext] ? true : false;

	mov	eax, DWORD PTR _r_ext$[ebp]
	movzx	ecx, BYTE PTR ?glConfig@@3UglConfig_t@@A[eax+20]
	test	ecx, ecx
	je	SHORT $LN4@GL_Support
	mov	BYTE PTR tv70[ebp], 1
	jmp	SHORT $LN5@GL_Support
$LN4@GL_Support:
	mov	BYTE PTR tv70[ebp], 0
$LN5@GL_Support:
	mov	al, BYTE PTR tv70[ebp]
	jmp	SHORT $LN1@GL_Support
$LN2@GL_Support:

; 468  : 	ConPrintf( "^3Error:^7 GL_Support: invalid extension %d\n", r_ext );

	mov	eax, DWORD PTR _r_ext$[ebp]
	push	eax
	push	OFFSET ??_C@_0CN@NLBPCJDK@?$FO3Error?3?$FO7?5GL_Support?3?5invalid?5e@
	call	DWORD PTR ?gEngfuncs@@3Ucl_enginefuncs_s@@A+160
	add	esp, 8

; 469  : 	return false;		

	xor	al, al
$LN1@GL_Support:

; 470  : }

	pop	edi
	pop	esi
	pop	ebx
	mov	esp, ebp
	pop	ebp
	ret	0
?GL_Support@@YA_NH@Z ENDP				; GL_Support
_TEXT	ENDS
; Function compile flags: /Odtp /ZI
; File d:\!diffusion 2020\source code 2022\client-server\client\render\r_opengl.cpp
;	COMDAT ?R_Shutdown@@YAXXZ
_TEXT	SEGMENT
?R_Shutdown@@YAXXZ PROC					; R_Shutdown, COMDAT

; 925  : {

	push	ebp
	mov	ebp, esp
	sub	esp, 64					; 00000040H
	push	ebx
	push	esi
	push	edi

; 926  : 	g_StudioRenderer.DestroyAllModelInstances();

	mov	ecx, OFFSET ?g_StudioRenderer@@3VCStudioModelRenderer@@A ; g_StudioRenderer
	call	?DestroyAllModelInstances@CStudioModelRenderer@@QAEXXZ ; CStudioModelRenderer::DestroyAllModelInstances

; 927  : 	g_StudioRenderer.FreeMeshCacheVL();

	mov	ecx, OFFSET ?g_StudioRenderer@@3VCStudioModelRenderer@@A ; g_StudioRenderer
	call	?FreeMeshCacheVL@CStudioModelRenderer@@QAEXXZ ; CStudioModelRenderer::FreeMeshCacheVL

; 928  : 
; 929  : 	R_FreeCinematics();

	call	?R_FreeCinematics@@YAXXZ		; R_FreeCinematics

; 930  : 	R_ResetWeather();

	call	?R_ResetWeather@@YAXXZ			; R_ResetWeather

; 931  : 	R_GrassShutdown();

	call	?R_GrassShutdown@@YAXXZ			; R_GrassShutdown

; 932  : 	GL_FreeGPUShaders();

	call	?GL_FreeGPUShaders@@YAXXZ		; GL_FreeGPUShaders

; 933  : 
; 934  : 	// now all extensions are disabled
; 935  : 	memset( glConfig.extension, 0, sizeof( glConfig.extension[0] ) * R_EXTCOUNT );

	push	30					; 0000001eH
	push	0
	push	OFFSET ?glConfig@@3UglConfig_t@@A+20
	call	_memset
	add	esp, 12					; 0000000cH

; 936  : }

	pop	edi
	pop	esi
	pop	ebx
	mov	esp, ebp
	pop	ebp
	ret	0
?R_Shutdown@@YAXXZ ENDP					; R_Shutdown
_TEXT	ENDS
; Function compile flags: /Odtp /ZI
; File d:\!diffusion 2020\source code 2022\client-server\client\render\r_opengl.cpp
;	COMDAT ?R_Init@@YA_NXZ
_TEXT	SEGMENT
?R_Init@@YA_NXZ PROC					; R_Init, COMDAT

; 891  : {

	push	ebp
	mov	ebp, esp
	sub	esp, 64					; 00000040H
	push	ebx
	push	esi
	push	edi

; 892  : 	R_InitRefState();

	call	?R_InitRefState@@YAXXZ			; R_InitRefState

; 893  : 	GL_InitExtensions();

	call	?GL_InitExtensions@@YAXXZ		; GL_InitExtensions

; 894  : 
; 895  : 	if( !g_fRenderInitialized )

	cmp	DWORD PTR ?g_fRenderInitialized@@3HA, 0	; g_fRenderInitialized
	jne	SHORT $LN2@R_Init

; 896  : 	{
; 897  : 		CVAR_SET_FLOAT( "gl_renderer", 0 );

	push	ecx
	xorps	xmm0, xmm0
	movss	DWORD PTR [esp], xmm0
	push	OFFSET ??_C@_0M@HHCNIMA@gl_renderer?$AA@
	call	DWORD PTR ?gEngfuncs@@3Ucl_enginefuncs_s@@A+148
	add	esp, 8

; 898  : 		R_Shutdown();

	call	?R_Shutdown@@YAXXZ			; R_Shutdown

; 899  : 		return false;

	xor	al, al
	jmp	SHORT $LN1@R_Init
$LN2@R_Init:

; 900  : 	}
; 901  : 
; 902  : 	GL_InitGPUShaders();

	call	?GL_InitGPUShaders@@YAXXZ		; GL_InitGPUShaders

; 903  : 	GL_InitTextures();

	call	?GL_InitTextures@@YAXXZ			; GL_InitTextures

; 904  : 	GL_InitRandomTable();

	call	?GL_InitRandomTable@@YAXXZ		; GL_InitRandomTable

; 905  : 	GL_SetDefaultState();

	call	?GL_SetDefaultState@@YAXXZ		; GL_SetDefaultState

; 906  : 
; 907  : 	R_InitWeather();

	call	?R_InitWeather@@YAXXZ			; R_InitWeather

; 908  : 	R_GrassInit();

	call	?R_GrassInit@@YAXXZ			; R_GrassInit

; 909  : 	InitPostEffects();

	call	?InitPostEffects@@YAXXZ			; InitPostEffects

; 910  : 
; 911  : 	pglPointSize( 10.0f );

	push	ecx
	movss	xmm0, DWORD PTR __real@41200000
	movss	DWORD PTR [esp], xmm0
	call	DWORD PTR ?pglPointSize@@3P6GXM@ZA	; pglPointSize

; 912  : 
