; Listing generated by Microsoft (R) Optimizing Compiler Version 19.00.24247.2 

	TITLE	D:\!DIFFUSION 2020\source code 2022\client-server\client\render\r_particle.cpp
	.686P
	.XMM
	include listing.inc
	.model	flat

INCLUDELIB LIBCMT
INCLUDELIB OLDNAMES

PUBLIC	?c_fCosTable@CParticleSystem@@0PAMA		; CParticleSystem::c_fCosTable
PUBLIC	?c_bCosTableInit@CParticleSystem@@0_NA		; CParticleSystem::c_bCosTableInit
PUBLIC	?g_pParticleSystems@@3PAVCParticleSystemManager@@A ; g_pParticleSystems
_BSS	SEGMENT
?c_fCosTable@CParticleSystem@@0PAMA DD 01c2H DUP (?)	; CParticleSystem::c_fCosTable
?c_bCosTableInit@CParticleSystem@@0_NA DB 01H DUP (?)	; CParticleSystem::c_bCosTableInit
	ALIGN	4

?g_pParticleSystems@@3PAVCParticleSystemManager@@A DD 01H DUP (?) ; g_pParticleSystems
_BSS	ENDS
PUBLIC	??_H@YGXPAXIIP6EPAX0@Z@Z			; `vector constructor iterator'
PUBLIC	??__G@YGXPAX0IIP6EPAX00@Z@Z			; `vector copy constructor iterator'
PUBLIC	?SinCos@@YAXMPAM0@Z				; SinCos
PUBLIC	??0Vector@@QAE@XZ				; Vector::Vector
PUBLIC	??0Vector@@QAE@MMM@Z				; Vector::Vector
PUBLIC	??0Vector@@QAE@ABV0@@Z				; Vector::Vector
PUBLIC	??8Vector@@QBEHABV0@@Z				; Vector::operator==
PUBLIC	??9Vector@@QBEHABV0@@Z				; Vector::operator!=
PUBLIC	??HVector@@QBE?AV0@ABV0@@Z			; Vector::operator+
PUBLIC	??GVector@@QBE?AV0@ABV0@@Z			; Vector::operator-
PUBLIC	??DVector@@QBE?AV0@M@Z				; Vector::operator*
PUBLIC	??YVector@@QAEAAV0@ABV0@@Z			; Vector::operator+=
PUBLIC	??XVector@@QAEAAV0@M@Z				; Vector::operator*=
PUBLIC	?Length@Vector@@QBEMXZ				; Vector::Length
PUBLIC	??BVector@@QAEPAMXZ				; Vector::operator float *
PUBLIC	??BVector@@QBEPBMXZ				; Vector::operator float const *
PUBLIC	?DotProduct@@YAMABVVector@@0@Z			; DotProduct
PUBLIC	??0matrix3x3@@QAE@ABVVector@@@Z			; matrix3x3::matrix3x3
PUBLIC	?GetForward@matrix3x3@@QBE?AVVector@@XZ		; matrix3x3::GetForward
PUBLIC	??0RandomRange@@QAE@XZ				; RandomRange::RandomRange
PUBLIC	??0RandomRange@@QAE@M@Z				; RandomRange::RandomRange
PUBLIC	??0RandomRange@@QAE@PAD@Z			; RandomRange::RandomRange
PUBLIC	?Random@RandomRange@@QAEMXZ			; RandomRange::Random
PUBLIC	?GetInstance@RandomRange@@QAEMXZ		; RandomRange::GetInstance
PUBLIC	?GetOffset@RandomRange@@QAEMM@Z			; RandomRange::GetOffset
PUBLIC	?IsDefined@RandomRange@@QAE_NXZ			; RandomRange::IsDefined
PUBLIC	?UTIL_CreateAurora@@YAXPAUcl_entity_s@@PBDHM@Z	; UTIL_CreateAurora
PUBLIC	?UTIL_RemoveAurora@@YAXPAUcl_entity_s@@@Z	; UTIL_RemoveAurora
PUBLIC	?R_StudioAttachmentOrigin@@YA?AVVector@@PBUcl_entity_s@@HH@Z ; R_StudioAttachmentOrigin
PUBLIC	?R_StudioAttachmentAngles@@YA?AVVector@@PBUcl_entity_s@@HH@Z ; R_StudioAttachmentAngles
PUBLIC	??0CParticle@@QAE@XZ				; CParticle::CParticle
PUBLIC	??0CParticleType@@QAE@PAV0@@Z			; CParticleType::CParticleType
PUBLIC	?CreateParticle@CParticleType@@QAEPAUCParticle@@PAVCParticleSystem@@@Z ; CParticleType::CreateParticle
PUBLIC	?InitParticle@CParticleType@@QAEXPAUCParticle@@PAVCParticleSystem@@@Z ; CParticleType::InitParticle
PUBLIC	??0CParticleSystem@@QAE@PAUcl_entity_s@@PBDHM@Z	; CParticleSystem::CParticleSystem
PUBLIC	??1CParticleSystem@@QAE@XZ			; CParticleSystem::~CParticleSystem
PUBLIC	?AllocateParticles@CParticleSystem@@QAEXH@Z	; CParticleSystem::AllocateParticles
PUBLIC	?GetType@CParticleSystem@@QAEPAVCParticleType@@PBD@Z ; CParticleSystem::GetType
PUBLIC	?AddPlaceholderType@CParticleSystem@@QAEPAVCParticleType@@PBD@Z ; CParticleSystem::AddPlaceholderType
PUBLIC	?ParseType@CParticleSystem@@QAEPAVCParticleType@@AAPAD@Z ; CParticleSystem::ParseType
PUBLIC	?UpdateSystem@CParticleSystem@@QAE?AW4AURSTATE@@M@Z ; CParticleSystem::UpdateSystem
PUBLIC	?DrawSystem@CParticleSystem@@QAEXXZ		; CParticleSystem::DrawSystem
PUBLIC	?ActivateParticle@CParticleSystem@@QAEPAUCParticle@@XZ ; CParticleSystem::ActivateParticle
PUBLIC	?UpdateParticle@CParticleSystem@@QAE_NPAUCParticle@@M@Z ; CParticleSystem::UpdateParticle
PUBLIC	?DrawParticle@CParticleSystem@@QAEXPAUCParticle@@AAVVector@@1@Z ; CParticleSystem::DrawParticle
PUBLIC	?DrawQuad@CParticleSystem@@QAEXABVVector@@000@Z	; CParticleSystem::DrawQuad
PUBLIC	?MarkForDeletion@CParticleSystem@@QAEXXZ	; CParticleSystem::MarkForDeletion
PUBLIC	?ParticleIsVisible@CParticleSystem@@QAE_NPAUCParticle@@@Z ; CParticleSystem::ParticleIsVisible
PUBLIC	?CosLookup@CParticleSystem@@SAMH@Z		; CParticleSystem::CosLookup
PUBLIC	?SinLookup@CParticleSystem@@SAMH@Z		; CParticleSystem::SinLookup
PUBLIC	??_GCParticleSystem@@QAEPAXI@Z			; CParticleSystem::`scalar deleting destructor'
PUBLIC	??0CParticleSystemManager@@QAE@XZ		; CParticleSystemManager::CParticleSystemManager
PUBLIC	??1CParticleSystemManager@@QAE@XZ		; CParticleSystemManager::~CParticleSystemManager
PUBLIC	?FindSystem@CParticleSystemManager@@QAEPAVCParticleSystem@@PAV2@PAUcl_entity_s@@@Z ; CParticleSystemManager::FindSystem
PUBLIC	?MarkSystemForDeletion@CParticleSystemManager@@QAEXPAVCParticleSystem@@@Z ; CParticleSystemManager::MarkSystemForDeletion
PUBLIC	?AddSystem@CParticleSystemManager@@QAEXPAVCParticleSystem@@@Z ; CParticleSystemManager::AddSystem
PUBLIC	?UpdateSystems@CParticleSystemManager@@QAEXXZ	; CParticleSystemManager::UpdateSystems
PUBLIC	?ClearSystems@CParticleSystemManager@@QAEXXZ	; CParticleSystemManager::ClearSystems
PUBLIC	??$Lerp@M@@YAMMABM0@Z				; Lerp<float>
PUBLIC	??_C@_0CA@HDIPOCAB@CreateAurora?3?5couldn?8t?5load?5?$CFs?6?$AA@ ; `string'
PUBLIC	??_C@_0BD@IGLLPDFN@couldn?8t?5load?5?$CFs?4?6?$AA@ ; `string'
PUBLIC	??_C@_09JNOBNNGJ@particles?$AA@			; `string'
PUBLIC	??_C@_08NCFFBEDA@maintype?$AA@			; `string'
PUBLIC	??_C@_0L@HBDHCFKP@attachment?$AA@		; `string'
PUBLIC	??_C@_0L@FMHHHHCB@lightmodel?$AA@		; `string'
PUBLIC	??_C@_0O@MNLBIGGF@killcondition?$AA@		; `string'
PUBLIC	??_C@_05LBJMNBOG@empty?$AA@			; `string'
PUBLIC	??_C@_05ELAABIKM@water?$AA@			; `string'
PUBLIC	??_C@_05OPIONHBI@solid?$AA@			; `string'
PUBLIC	??_C@_01HCONENDN@?$HL?$AA@			; `string'
PUBLIC	??_C@_01CELHOKLL@?$HN?$AA@			; `string'
PUBLIC	??_C@_04MEMAJGDJ@name?$AA@			; `string'
PUBLIC	??_C@_0CN@PBNDAEIM@Particle?5type?5?$CFs?5is?5defined?5more@ ; `string'
PUBLIC	??_C@_07GFBFDLBM@gravity?$AA@			; `string'
PUBLIC	??_C@_07EDHGKPLO@windyaw?$AA@			; `string'
PUBLIC	??_C@_0N@OEIMJECI@windstrength?$AA@		; `string'
PUBLIC	??_C@_06DKHPLDLO@sprite?$AA@			; `string'
PUBLIC	??_C@_0L@HPCHIOGA@startalpha?$AA@		; `string'
PUBLIC	??_C@_08HLONNDJE@endalpha?$AA@			; `string'
PUBLIC	??_C@_08BBAAOJMA@startred?$AA@			; `string'
PUBLIC	??_C@_06GLOKDDBL@endred?$AA@			; `string'
PUBLIC	??_C@_0L@JOCJGMKP@startgreen?$AA@		; `string'
PUBLIC	??_C@_08JKODDBFL@endgreen?$AA@			; `string'
PUBLIC	??_C@_09IDPDEMPE@startblue?$AA@			; `string'
PUBLIC	??_C@_07JCIIKNHC@endblue?$AA@			; `string'
PUBLIC	??_C@_09OCPBEFMJ@startsize?$AA@			; `string'
PUBLIC	??_C@_09IJIMBHFH@sizedelta?$AA@			; `string'
PUBLIC	??_C@_07PDIKKEEP@endsize?$AA@			; `string'
PUBLIC	??_C@_0L@KLEMNPPO@startangle?$AA@		; `string'
PUBLIC	??_C@_0L@DAJNGOFD@angledelta?$AA@		; `string'
PUBLIC	??_C@_0L@DHPAKACO@startframe?$AA@		; `string'
PUBLIC	??_C@_08DDDKPNNK@endframe?$AA@			; `string'
PUBLIC	??_C@_09PLDKGHKD@framerate?$AA@			; `string'
PUBLIC	??_C@_08MOKDPMFA@lifetime?$AA@			; `string'
PUBLIC	??_C@_09EICPLJNJ@spraytype?$AA@			; `string'
PUBLIC	??_C@_0M@PBFGIGDJ@overlaytype?$AA@		; `string'
PUBLIC	??_C@_09FFMLJLNF@sprayrate?$AA@			; `string'
PUBLIC	??_C@_0L@OIPHKPKA@sprayforce?$AA@		; `string'
PUBLIC	??_C@_0L@CCPNJKBH@spraypitch?$AA@		; `string'
PUBLIC	??_C@_08PEJLLKC@sprayyaw?$AA@			; `string'
PUBLIC	??_C@_04PHPAONAP@drag?$AA@			; `string'
PUBLIC	??_C@_06DPMIMFNG@bounce?$AA@			; `string'
PUBLIC	??_C@_0P@CDFGFCIK@bouncefriction?$AA@		; `string'
PUBLIC	??_C@_0L@PCPPJFN@rendermode?$AA@		; `string'
PUBLIC	??_C@_08FEMHJDBF@additive?$AA@			; `string'
PUBLIC	??_C@_07JDHEGGGP@texture?$AA@			; `string'
PUBLIC	??_C@_05PEENBMOG@color?$AA@			; `string'
PUBLIC	??_C@_0O@NLJDGJIL@drawcondition?$AA@		; `string'
PUBLIC	??_C@_07BELCMIIP@special?$AA@			; `string'
PUBLIC	??_C@_08LLEOCLML@special1?$AA@			; `string'
PUBLIC	??_C@_08JAGDHIAI@special2?$AA@			; `string'
PUBLIC	??_C@_08IJHIEJEJ@special3?$AA@			; `string'
PUBLIC	??_C@_09KADGBPCF@spotlight?$AA@			; `string'
PUBLIC	__real@00000000
PUBLIC	__real@0000000000000000
PUBLIC	__real@3b808081
PUBLIC	__real@3f800000
PUBLIC	__real@3f91df46a2529d39
PUBLIC	__real@4000000000000000
PUBLIC	__real@400921fb54442d18
PUBLIC	__real@4066800000000000
PUBLIC	__real@42340000
PUBLIC	__real@43b40000
PUBLIC	__real@bf800000
PUBLIC	__xmm@80000000800000008000000080000000
EXTRN	??2@YAPAXI@Z:PROC				; operator new
EXTRN	??3@YAXPAXI@Z:PROC				; operator delete
EXTRN	??_U@YAPAXI@Z:PROC				; operator new[]
EXTRN	??_V@YAXPAX@Z:PROC				; operator delete[]
EXTRN	??_V@YAXPAXI@Z:PROC				; operator delete[]
EXTRN	_memset:PROC
EXTRN	_cos:PROC
EXTRN	_pow:PROC
EXTRN	_sin:PROC
EXTRN	_sqrt:PROC
EXTRN	??0matrix3x3@@QAE@XZ:PROC			; matrix3x3::matrix3x3
EXTRN	?Identity@matrix3x3@@QAEXXZ:PROC		; matrix3x3::Identity
EXTRN	?VectorRotate@matrix3x3@@QBE?AVVector@@ABV2@@Z:PROC ; matrix3x3::VectorRotate
EXTRN	?ClearBounds@@YAXAAVVector@@0@Z:PROC		; ClearBounds
EXTRN	?AddPointToBounds@@YAXABVVector@@AAV1@1M@Z:PROC	; AddPointToBounds
EXTRN	?Q_strncpy@@YAIPADPBDI@Z:PROC			; Q_strncpy
EXTRN	?Q_atoi@@YAHPBD@Z:PROC				; Q_atoi
EXTRN	?Q_atof@@YAMPBD@Z:PROC				; Q_atof
EXTRN	?Q_strnicmp@@YAHPBD0H@Z:PROC			; Q_strnicmp
EXTRN	?COM_ParseFileExt@@YAPADPAD0J_N@Z:PROC		; COM_ParseFileExt
EXTRN	?ALERT@@YAXW4ALERT_TYPE@@PADZZ:PROC		; ALERT
EXTRN	?Mod_CheckBoxVisible@@YA_NABVVector@@0@Z:PROC	; Mod_CheckBoxVisible
EXTRN	?CullSphere@CFrustum@@QAE_NABVVector@@MH@Z:PROC	; CFrustum::CullSphere
EXTRN	?StudioGetAttachment@CStudioModelRenderer@@QAEXPBUcl_entity_s@@HPAVVector@@1H@Z:PROC ; CStudioModelRenderer::StudioGetAttachment
EXTRN	?R_BeginDrawProjectionGLSL@@YA_NPAUplight_s@@M@Z:PROC ; R_BeginDrawProjectionGLSL
EXTRN	?R_EndDrawProjectionGLSL@@YAXXZ:PROC		; R_EndDrawProjectionGLSL
EXTRN	?R_CountPlights@@YAH_N@Z:PROC			; R_CountPlights
EXTRN	?R_LightsForPoint@@YA?AVVector@@ABV1@M@Z:PROC	; R_LightsForPoint
EXTRN	@__security_check_cookie@4:PROC
EXTRN	___CxxFrameHandler3:PROC
EXTRN	?g_vecZero@@3VVector@@B:BYTE			; g_vecZero
EXTRN	?gEngfuncs@@3Ucl_enginefuncs_s@@A:BYTE		; gEngfuncs
EXTRN	?gRenderfuncs@@3Urender_api_s@@A:BYTE		; gRenderfuncs
EXTRN	?r_currentMessageNum@@3HA:DWORD			; r_currentMessageNum
EXTRN	?g_fRenderInitialized@@3HA:DWORD		; g_fRenderInitialized
EXTRN	?g_StudioRenderer@@3VCStudioModelRenderer@@A:BYTE ; g_StudioRenderer
EXTRN	?RI@@3PAUref_instance_t@@A:DWORD		; RI
EXTRN	?tr@@3Uref_globals_t@@A:BYTE			; tr
EXTRN	?r_stats@@3Uref_stats_t@@A:BYTE			; r_stats
EXTRN	?cl_plights@@3PAUplight_s@@A:BYTE		; cl_plights
EXTRN	___security_cookie:DWORD
EXTRN	__fltused:DWORD
;	COMDAT __xmm@80000000800000008000000080000000
CONST	SEGMENT
__xmm@80000000800000008000000080000000 DB 00H, 00H, 00H, 080H, 00H, 00H, 00H
	DB	080H, 00H, 00H, 00H, 080H, 00H, 00H, 00H, 080H
CONST	ENDS
;	COMDAT __real@bf800000
CONST	SEGMENT
__real@bf800000 DD 0bf800000r			; -1
CONST	ENDS
;	COMDAT __real@43b40000
CONST	SEGMENT
__real@43b40000 DD 043b40000r			; 360
CONST	ENDS
;	COMDAT __real@42340000
CONST	SEGMENT
__real@42340000 DD 042340000r			; 45
CONST	ENDS
;	COMDAT __real@4066800000000000
CONST	SEGMENT
__real@4066800000000000 DQ 04066800000000000r	; 180
CONST	ENDS
;	COMDAT __real@400921fb54442d18
CONST	SEGMENT
__real@400921fb54442d18 DQ 0400921fb54442d18r	; 3.14159
CONST	ENDS
;	COMDAT __real@4000000000000000
CONST	SEGMENT
__real@4000000000000000 DQ 04000000000000000r	; 2
CONST	ENDS
;	COMDAT __real@3f91df46a2529d39
CONST	SEGMENT
__real@3f91df46a2529d39 DQ 03f91df46a2529d39r	; 0.0174533
CONST	ENDS
;	COMDAT __real@3f800000
CONST	SEGMENT
__real@3f800000 DD 03f800000r			; 1
CONST	ENDS
;	COMDAT __real@3b808081
CONST	SEGMENT
__real@3b808081 DD 03b808081r			; 0.00392157
CONST	ENDS
;	COMDAT __real@0000000000000000
CONST	SEGMENT
__real@0000000000000000 DQ 00000000000000000r	; 0
CONST	ENDS
;	COMDAT __real@00000000
CONST	SEGMENT
__real@00000000 DD 000000000r			; 0
CONST	ENDS
;	COMDAT ??_C@_09KADGBPCF@spotlight?$AA@
CONST	SEGMENT
??_C@_09KADGBPCF@spotlight?$AA@ DB 'spotlight', 00H	; `string'
CONST	ENDS
;	COMDAT ??_C@_08IJHIEJEJ@special3?$AA@
CONST	SEGMENT
??_C@_08IJHIEJEJ@special3?$AA@ DB 'special3', 00H	; `string'
CONST	ENDS
;	COMDAT ??_C@_08JAGDHIAI@special2?$AA@
CONST	SEGMENT
??_C@_08JAGDHIAI@special2?$AA@ DB 'special2', 00H	; `string'
CONST	ENDS
;	COMDAT ??_C@_08LLEOCLML@special1?$AA@
CONST	SEGMENT
??_C@_08LLEOCLML@special1?$AA@ DB 'special1', 00H	; `string'
CONST	ENDS
;	COMDAT ??_C@_07BELCMIIP@special?$AA@
CONST	SEGMENT
??_C@_07BELCMIIP@special?$AA@ DB 'special', 00H		; `string'
CONST	ENDS
;	COMDAT ??_C@_0O@NLJDGJIL@drawcondition?$AA@
CONST	SEGMENT
??_C@_0O@NLJDGJIL@drawcondition?$AA@ DB 'drawcondition', 00H ; `string'
CONST	ENDS
;	COMDAT ??_C@_05PEENBMOG@color?$AA@
CONST	SEGMENT
??_C@_05PEENBMOG@color?$AA@ DB 'color', 00H		; `string'
CONST	ENDS
;	COMDAT ??_C@_07JDHEGGGP@texture?$AA@
CONST	SEGMENT
??_C@_07JDHEGGGP@texture?$AA@ DB 'texture', 00H		; `string'
CONST	ENDS
;	COMDAT ??_C@_08FEMHJDBF@additive?$AA@
CONST	SEGMENT
??_C@_08FEMHJDBF@additive?$AA@ DB 'additive', 00H	; `string'
CONST	ENDS
;	COMDAT ??_C@_0L@PCPPJFN@rendermode?$AA@
CONST	SEGMENT
??_C@_0L@PCPPJFN@rendermode?$AA@ DB 'rendermode', 00H	; `string'
CONST	ENDS
;	COMDAT ??_C@_0P@CDFGFCIK@bouncefriction?$AA@
CONST	SEGMENT
??_C@_0P@CDFGFCIK@bouncefriction?$AA@ DB 'bouncefriction', 00H ; `string'
CONST	ENDS
;	COMDAT ??_C@_06DPMIMFNG@bounce?$AA@
CONST	SEGMENT
??_C@_06DPMIMFNG@bounce?$AA@ DB 'bounce', 00H		; `string'
CONST	ENDS
;	COMDAT ??_C@_04PHPAONAP@drag?$AA@
CONST	SEGMENT
??_C@_04PHPAONAP@drag?$AA@ DB 'drag', 00H		; `string'
CONST	ENDS
;	COMDAT ??_C@_08PEJLLKC@sprayyaw?$AA@
CONST	SEGMENT
??_C@_08PEJLLKC@sprayyaw?$AA@ DB 'sprayyaw', 00H	; `string'
CONST	ENDS
;	COMDAT ??_C@_0L@CCPNJKBH@spraypitch?$AA@
CONST	SEGMENT
??_C@_0L@CCPNJKBH@spraypitch?$AA@ DB 'spraypitch', 00H	; `string'
CONST	ENDS
;	COMDAT ??_C@_0L@OIPHKPKA@sprayforce?$AA@
CONST	SEGMENT
??_C@_0L@OIPHKPKA@sprayforce?$AA@ DB 'sprayforce', 00H	; `string'
CONST	ENDS
;	COMDAT ??_C@_09FFMLJLNF@sprayrate?$AA@
CONST	SEGMENT
??_C@_09FFMLJLNF@sprayrate?$AA@ DB 'sprayrate', 00H	; `string'
CONST	ENDS
;	COMDAT ??_C@_0M@PBFGIGDJ@overlaytype?$AA@
CONST	SEGMENT
??_C@_0M@PBFGIGDJ@overlaytype?$AA@ DB 'overlaytype', 00H ; `string'
CONST	ENDS
;	COMDAT ??_C@_09EICPLJNJ@spraytype?$AA@
CONST	SEGMENT
??_C@_09EICPLJNJ@spraytype?$AA@ DB 'spraytype', 00H	; `string'
CONST	ENDS
;	COMDAT ??_C@_08MOKDPMFA@lifetime?$AA@
CONST	SEGMENT
??_C@_08MOKDPMFA@lifetime?$AA@ DB 'lifetime', 00H	; `string'
CONST	ENDS
;	COMDAT ??_C@_09PLDKGHKD@framerate?$AA@
CONST	SEGMENT
??_C@_09PLDKGHKD@framerate?$AA@ DB 'framerate', 00H	; `string'
CONST	ENDS
;	COMDAT ??_C@_08DDDKPNNK@endframe?$AA@
CONST	SEGMENT
??_C@_08DDDKPNNK@endframe?$AA@ DB 'endframe', 00H	; `string'
CONST	ENDS
;	COMDAT ??_C@_0L@DHPAKACO@startframe?$AA@
CONST	SEGMENT
??_C@_0L@DHPAKACO@startframe?$AA@ DB 'startframe', 00H	; `string'
CONST	ENDS
;	COMDAT ??_C@_0L@DAJNGOFD@angledelta?$AA@
CONST	SEGMENT
??_C@_0L@DAJNGOFD@angledelta?$AA@ DB 'angledelta', 00H	; `string'
CONST	ENDS
;	COMDAT ??_C@_0L@KLEMNPPO@startangle?$AA@
CONST	SEGMENT
??_C@_0L@KLEMNPPO@startangle?$AA@ DB 'startangle', 00H	; `string'
CONST	ENDS
;	COMDAT ??_C@_07PDIKKEEP@endsize?$AA@
CONST	SEGMENT
??_C@_07PDIKKEEP@endsize?$AA@ DB 'endsize', 00H		; `string'
CONST	ENDS
;	COMDAT ??_C@_09IJIMBHFH@sizedelta?$AA@
CONST	SEGMENT
??_C@_09IJIMBHFH@sizedelta?$AA@ DB 'sizedelta', 00H	; `string'
CONST	ENDS
;	COMDAT ??_C@_09OCPBEFMJ@startsize?$AA@
CONST	SEGMENT
??_C@_09OCPBEFMJ@startsize?$AA@ DB 'startsize', 00H	; `string'
CONST	ENDS
;	COMDAT ??_C@_07JCIIKNHC@endblue?$AA@
CONST	SEGMENT
??_C@_07JCIIKNHC@endblue?$AA@ DB 'endblue', 00H		; `string'
CONST	ENDS
;	COMDAT ??_C@_09IDPDEMPE@startblue?$AA@
CONST	SEGMENT
??_C@_09IDPDEMPE@startblue?$AA@ DB 'startblue', 00H	; `string'
CONST	ENDS
;	COMDAT ??_C@_08JKODDBFL@endgreen?$AA@
CONST	SEGMENT
??_C@_08JKODDBFL@endgreen?$AA@ DB 'endgreen', 00H	; `string'
CONST	ENDS
;	COMDAT ??_C@_0L@JOCJGMKP@startgreen?$AA@
CONST	SEGMENT
??_C@_0L@JOCJGMKP@startgreen?$AA@ DB 'startgreen', 00H	; `string'
CONST	ENDS
;	COMDAT ??_C@_06GLOKDDBL@endred?$AA@
CONST	SEGMENT
??_C@_06GLOKDDBL@endred?$AA@ DB 'endred', 00H		; `string'
CONST	ENDS
;	COMDAT ??_C@_08BBAAOJMA@startred?$AA@
CONST	SEGMENT
??_C@_08BBAAOJMA@startred?$AA@ DB 'startred', 00H	; `string'
CONST	ENDS
;	COMDAT ??_C@_08HLONNDJE@endalpha?$AA@
CONST	SEGMENT
??_C@_08HLONNDJE@endalpha?$AA@ DB 'endalpha', 00H	; `string'
CONST	ENDS
;	COMDAT ??_C@_0L@HPCHIOGA@startalpha?$AA@
CONST	SEGMENT
??_C@_0L@HPCHIOGA@startalpha?$AA@ DB 'startalpha', 00H	; `string'
CONST	ENDS
;	COMDAT ??_C@_06DKHPLDLO@sprite?$AA@
CONST	SEGMENT
??_C@_06DKHPLDLO@sprite?$AA@ DB 'sprite', 00H		; `string'
CONST	ENDS
;	COMDAT ??_C@_0N@OEIMJECI@windstrength?$AA@
CONST	SEGMENT
??_C@_0N@OEIMJECI@windstrength?$AA@ DB 'windstrength', 00H ; `string'
CONST	ENDS
;	COMDAT ??_C@_07EDHGKPLO@windyaw?$AA@
CONST	SEGMENT
??_C@_07EDHGKPLO@windyaw?$AA@ DB 'windyaw', 00H		; `string'
CONST	ENDS
;	COMDAT ??_C@_07GFBFDLBM@gravity?$AA@
CONST	SEGMENT
??_C@_07GFBFDLBM@gravity?$AA@ DB 'gravity', 00H		; `string'
CONST	ENDS
;	COMDAT ??_C@_0CN@PBNDAEIM@Particle?5type?5?$CFs?5is?5defined?5more@
CONST	SEGMENT
??_C@_0CN@PBNDAEIM@Particle?5type?5?$CFs?5is?5defined?5more@ DB 'Particle'
	DB	' type %s is defined more than once!', 0aH, 00H ; `string'
CONST	ENDS
;	COMDAT ??_C@_04MEMAJGDJ@name?$AA@
CONST	SEGMENT
??_C@_04MEMAJGDJ@name?$AA@ DB 'name', 00H		; `string'
CONST	ENDS
;	COMDAT ??_C@_01CELHOKLL@?$HN?$AA@
CONST	SEGMENT
??_C@_01CELHOKLL@?$HN?$AA@ DB '}', 00H			; `string'
CONST	ENDS
;	COMDAT ??_C@_01HCONENDN@?$HL?$AA@
CONST	SEGMENT
??_C@_01HCONENDN@?$HL?$AA@ DB '{', 00H			; `string'
CONST	ENDS
;	COMDAT ??_C@_05OPIONHBI@solid?$AA@
CONST	SEGMENT
??_C@_05OPIONHBI@solid?$AA@ DB 'solid', 00H		; `string'
CONST	ENDS
;	COMDAT ??_C@_05ELAABIKM@water?$AA@
CONST	SEGMENT
??_C@_05ELAABIKM@water?$AA@ DB 'water', 00H		; `string'
CONST	ENDS
;	COMDAT ??_C@_05LBJMNBOG@empty?$AA@
CONST	SEGMENT
??_C@_05LBJMNBOG@empty?$AA@ DB 'empty', 00H		; `string'
CONST	ENDS
;	COMDAT ??_C@_0O@MNLBIGGF@killcondition?$AA@
CONST	SEGMENT
??_C@_0O@MNLBIGGF@killcondition?$AA@ DB 'killcondition', 00H ; `string'
CONST	ENDS
;	COMDAT ??_C@_0L@FMHHHHCB@lightmodel?$AA@
CONST	SEGMENT
??_C@_0L@FMHHHHCB@lightmodel?$AA@ DB 'lightmodel', 00H	; `string'
CONST	ENDS
;	COMDAT ??_C@_0L@HBDHCFKP@attachment?$AA@
CONST	SEGMENT
??_C@_0L@HBDHCFKP@attachment?$AA@ DB 'attachment', 00H	; `string'
CONST	ENDS
;	COMDAT ??_C@_08NCFFBEDA@maintype?$AA@
CONST	SEGMENT
??_C@_08NCFFBEDA@maintype?$AA@ DB 'maintype', 00H	; `string'
CONST	ENDS
;	COMDAT ??_C@_09JNOBNNGJ@particles?$AA@
CONST	SEGMENT
??_C@_09JNOBNNGJ@particles?$AA@ DB 'particles', 00H	; `string'
CONST	ENDS
;	COMDAT ??_C@_0BD@IGLLPDFN@couldn?8t?5load?5?$CFs?4?6?$AA@
CONST	SEGMENT
??_C@_0BD@IGLLPDFN@couldn?8t?5load?5?$CFs?4?6?$AA@ DB 'couldn''t load %s.'
	DB	0aH, 00H					; `string'
CONST	ENDS
;	COMDAT ??_C@_0CA@HDIPOCAB@CreateAurora?3?5couldn?8t?5load?5?$CFs?6?$AA@
CONST	SEGMENT
??_C@_0CA@HDIPOCAB@CreateAurora?3?5couldn?8t?5load?5?$CFs?6?$AA@ DB 'Crea'
	DB	'teAurora: couldn''t load %s', 0aH, 00H	; `string'
CONST	ENDS
;	COMDAT xdata$x
xdata$x	SEGMENT
__ehfuncinfo$??1CParticleSystemManager@@QAE@XZ DD 019930522H
	DD	00H
	DD	00H
	DD	2 DUP(00H)
	DD	2 DUP(00H)
	DD	00H
	DD	05H
xdata$x	ENDS
;	COMDAT xdata$x
xdata$x	SEGMENT
__unwindtable$?ParseType@CParticleSystem@@QAEPAVCParticleType@@AAPAD@Z DD 0ffffffffH
	DD	FLAT:__unwindfunclet$?ParseType@CParticleSystem@@QAEPAVCParticleType@@AAPAD@Z$0
__ehfuncinfo$?ParseType@CParticleSystem@@QAEPAVCParticleType@@AAPAD@Z DD 019930522H
	DD	01H
	DD	FLAT:__unwindtable$?ParseType@CParticleSystem@@QAEPAVCParticleType@@AAPAD@Z
	DD	2 DUP(00H)
	DD	2 DUP(00H)
	DD	00H
	DD	01H
xdata$x	ENDS
;	COMDAT xdata$x
xdata$x	SEGMENT
__unwindtable$?AddPlaceholderType@CParticleSystem@@QAEPAVCParticleType@@PBD@Z DD 0ffffffffH
	DD	FLAT:__unwindfunclet$?AddPlaceholderType@CParticleSystem@@QAEPAVCParticleType@@PBD@Z$0
__ehfuncinfo$?AddPlaceholderType@CParticleSystem@@QAEPAVCParticleType@@PBD@Z DD 019930522H
	DD	01H
	DD	FLAT:__unwindtable$?AddPlaceholderType@CParticleSystem@@QAEPAVCParticleType@@PBD@Z
	DD	2 DUP(00H)
	DD	2 DUP(00H)
	DD	00H
	DD	01H
xdata$x	ENDS
;	COMDAT xdata$x
xdata$x	SEGMENT
__unwindtable$?AllocateParticles@CParticleSystem@@QAEXH@Z DD 0ffffffffH
	DD	FLAT:__unwindfunclet$?AllocateParticles@CParticleSystem@@QAEXH@Z$0
__ehfuncinfo$?AllocateParticles@CParticleSystem@@QAEXH@Z DD 019930522H
	DD	01H
	DD	FLAT:__unwindtable$?AllocateParticles@CParticleSystem@@QAEXH@Z
	DD	2 DUP(00H)
	DD	2 DUP(00H)
	DD	00H
	DD	01H
xdata$x	ENDS
;	COMDAT xdata$x
xdata$x	SEGMENT
__unwindtable$?UTIL_CreateAurora@@YAXPAUcl_entity_s@@PBDHM@Z DD 0ffffffffH
	DD	FLAT:__unwindfunclet$?UTIL_CreateAurora@@YAXPAUcl_entity_s@@PBDHM@Z$0
__ehfuncinfo$?UTIL_CreateAurora@@YAXPAUcl_entity_s@@PBDHM@Z DD 019930522H
	DD	01H
	DD	FLAT:__unwindtable$?UTIL_CreateAurora@@YAXPAUcl_entity_s@@PBDHM@Z
	DD	2 DUP(00H)
	DD	2 DUP(00H)
	DD	00H
	DD	01H
xdata$x	ENDS
; Function compile flags: /Odtp /ZI
; File d:\!diffusion 2020\source code 2022\client-server\game_shared\mathlib.h
;	COMDAT ??$Lerp@M@@YAMMABM0@Z
_TEXT	SEGMENT
tv73 = -68						; size = 4
_flPercent$ = 8						; size = 4
_A$ = 12						; size = 4
_B$ = 16						; size = 4
??$Lerp@M@@YAMMABM0@Z PROC				; Lerp<float>, COMDAT

; 137  : {

	push	ebp
	mov	ebp, esp
	sub	esp, 68					; 00000044H
	push	ebx
	push	esi
	push	edi

; 138  : 	return A + (B - A) * flPercent;

	mov	eax, DWORD PTR _B$[ebp]
	mov	ecx, DWORD PTR _A$[ebp]
	movss	xmm0, DWORD PTR [eax]
	subss	xmm0, DWORD PTR [ecx]
	mulss	xmm0, DWORD PTR _flPercent$[ebp]
	mov	edx, DWORD PTR _A$[ebp]
	addss	xmm0, DWORD PTR [edx]
	movss	DWORD PTR tv73[ebp], xmm0
	fld	DWORD PTR tv73[ebp]

; 139  : }

	pop	edi
	pop	esi
	pop	ebx
	mov	esp, ebp
	pop	ebp
	ret	0
??$Lerp@M@@YAMMABM0@Z ENDP				; Lerp<float>
_TEXT	ENDS
; Function compile flags: /Odtp /ZI
; File d:\!diffusion 2020\source code 2022\client-server\client\render\r_particle.cpp
;	COMDAT ?ClearSystems@CParticleSystemManager@@QAEXXZ
_TEXT	SEGMENT
tv71 = -88						; size = 4
$T1 = -84						; size = 4
$T2 = -80						; size = 4
_pTemp$ = -12						; size = 4
_pSystem$ = -8						; size = 4
_this$ = -4						; size = 4
?ClearSystems@CParticleSystemManager@@QAEXXZ PROC	; CParticleSystemManager::ClearSystems, COMDAT
; _this$ = ecx

; 143  : {

	push	ebp
	mov	ebp, esp
	sub	esp, 88					; 00000058H
	push	ebx
	push	esi
	push	edi
	mov	DWORD PTR _this$[ebp], ecx

; 144  : 	CParticleSystem *pSystem = m_pFirstSystem;

	mov	eax, DWORD PTR _this$[ebp]
	mov	ecx, DWORD PTR [eax]
	mov	DWORD PTR _pSystem$[ebp], ecx
$LN2@ClearSyste:

; 145  : 	CParticleSystem *pTemp;
; 146  : 
; 147  : 	while( pSystem )

	cmp	DWORD PTR _pSystem$[ebp], 0
	je	SHORT $LN3@ClearSyste

; 148  : 	{
; 149  : 		pTemp = pSystem->m_pNextSystem;

	mov	eax, DWORD PTR _pSystem$[ebp]
	mov	ecx, DWORD PTR [eax]
	mov	DWORD PTR _pTemp$[ebp], ecx

; 150  : 		delete pSystem;

	mov	eax, DWORD PTR _pSystem$[ebp]
	mov	DWORD PTR $T1[ebp], eax
	mov	ecx, DWORD PTR $T1[ebp]
	mov	DWORD PTR $T2[ebp], ecx
	cmp	DWORD PTR $T2[ebp], 0
	je	SHORT $LN5@ClearSyste
	push	1
	mov	ecx, DWORD PTR $T2[ebp]
	call	??_GCParticleSystem@@QAEPAXI@Z
	mov	DWORD PTR tv71[ebp], eax
	jmp	SHORT $LN6@ClearSyste
$LN5@ClearSyste:
	mov	DWORD PTR tv71[ebp], 0
$LN6@ClearSyste:

; 151  : 		pSystem = pTemp;

	mov	eax, DWORD PTR _pTemp$[ebp]
	mov	DWORD PTR _pSystem$[ebp], eax

; 152  : 	}

	jmp	SHORT $LN2@ClearSyste
$LN3@ClearSyste:

; 153  : 
; 154  : 	m_pFirstSystem = NULL;

	mov	eax, DWORD PTR _this$[ebp]
	mov	DWORD PTR [eax], 0

; 155  : }

	pop	edi
	pop	esi
	pop	ebx
	mov	esp, ebp
	pop	ebp
	ret	0
?ClearSystems@CParticleSystemManager@@QAEXXZ ENDP	; CParticleSystemManager::ClearSystems
_TEXT	ENDS
; Function compile flags: /Odtp /ZI
; File d:\!diffusion 2020\source code 2022\client-server\client\render\r_particle.cpp
;	COMDAT ?UpdateSystems@CParticleSystemManager@@QAEXXZ
_TEXT	SEGMENT
tv92 = -100						; size = 4
tv84 = -100						; size = 4
$T1 = -96						; size = 4
$T2 = -92						; size = 4
$T3 = -88						; size = 4
$T4 = -84						; size = 4
_state$ = -16						; size = 4
_pLast$ = -12						; size = 4
_pSystem$ = -8						; size = 4
_this$ = -4						; size = 4
?UpdateSystems@CParticleSystemManager@@QAEXXZ PROC	; CParticleSystemManager::UpdateSystems, COMDAT
; _this$ = ecx

; 98   : {

	push	ebp
	mov	ebp, esp
	sub	esp, 100				; 00000064H
	push	ebx
	push	esi
	push	edi
	mov	DWORD PTR _this$[ebp], ecx

; 99   : 	if( FBitSet( RI->params, RP_ENVVIEW ) )

	mov	eax, DWORD PTR ?RI@@3PAUref_instance_t@@A ; RI
	mov	ecx, DWORD PTR [eax]
	and	ecx, 2
	je	SHORT $LN4@UpdateSyst

; 100  : 		return;

	jmp	$LN1@UpdateSyst
$LN4@UpdateSyst:

; 101  : 	
; 102  : 	CParticleSystem *pSystem;
; 103  : 	CParticleSystem *pLast = NULL;

	mov	DWORD PTR _pLast$[ebp], 0

; 104  : 	AURSTATE state;
; 105  : 
; 106  : 	pSystem = m_pFirstSystem;

	mov	eax, DWORD PTR _this$[ebp]
	mov	ecx, DWORD PTR [eax]
	mov	DWORD PTR _pSystem$[ebp], ecx
$LN2@UpdateSyst:

; 107  : 
; 108  : 	while( pSystem )

	cmp	DWORD PTR _pSystem$[ebp], 0
	je	$LN3@UpdateSyst

; 109  : 	{
; 110  : 		state = pSystem->UpdateSystem( tr.frametime );

	cvtsd2ss xmm0, QWORD PTR ?tr@@3Uref_globals_t@@A+24
	push	ecx
	movss	DWORD PTR [esp], xmm0
	mov	ecx, DWORD PTR _pSystem$[ebp]
	call	?UpdateSystem@CParticleSystem@@QAE?AW4AURSTATE@@M@Z ; CParticleSystem::UpdateSystem
	mov	DWORD PTR _state$[ebp], eax

; 111  : 
; 112  : 		if( state != AURORA_REMOVE )

	cmp	DWORD PTR _state$[ebp], 0
	je	SHORT $LN5@UpdateSyst

; 113  : 		{
; 114  : 			if( state == AURORA_DRAW )

	cmp	DWORD PTR _state$[ebp], 2
	jne	SHORT $LN7@UpdateSyst

; 115  : 				pSystem->DrawSystem();

	mov	ecx, DWORD PTR _pSystem$[ebp]
	call	?DrawSystem@CParticleSystem@@QAEXXZ	; CParticleSystem::DrawSystem
$LN7@UpdateSyst:

; 116  : 
; 117  : 			pLast = pSystem;

	mov	eax, DWORD PTR _pSystem$[ebp]
	mov	DWORD PTR _pLast$[ebp], eax

; 118  : 			pSystem = pSystem->m_pNextSystem;

	mov	eax, DWORD PTR _pSystem$[ebp]
	mov	ecx, DWORD PTR [eax]
	mov	DWORD PTR _pSystem$[ebp], ecx

; 119  : 		}
; 120  : 		else

	jmp	SHORT $LN9@UpdateSyst
$LN5@UpdateSyst:

; 121  : 		{
; 122  : 			// delete this system
; 123  : 			if( pLast )

	cmp	DWORD PTR _pLast$[ebp], 0
	je	SHORT $LN8@UpdateSyst

; 124  : 			{
; 125  : 				pLast->m_pNextSystem = pSystem->m_pNextSystem;

	mov	eax, DWORD PTR _pLast$[ebp]
	mov	ecx, DWORD PTR _pSystem$[ebp]
	mov	edx, DWORD PTR [ecx]
	mov	DWORD PTR [eax], edx

; 126  : 				delete pSystem;

	mov	eax, DWORD PTR _pSystem$[ebp]
	mov	DWORD PTR $T3[ebp], eax
	mov	ecx, DWORD PTR $T3[ebp]
	mov	DWORD PTR $T4[ebp], ecx
	cmp	DWORD PTR $T4[ebp], 0
	je	SHORT $LN11@UpdateSyst
	push	1
	mov	ecx, DWORD PTR $T4[ebp]
	call	??_GCParticleSystem@@QAEPAXI@Z
	mov	DWORD PTR tv84[ebp], eax
	jmp	SHORT $LN12@UpdateSyst
$LN11@UpdateSyst:
	mov	DWORD PTR tv84[ebp], 0
$LN12@UpdateSyst:

; 127  : 				pSystem = pLast->m_pNextSystem;

	mov	eax, DWORD PTR _pLast$[ebp]
	mov	ecx, DWORD PTR [eax]
	mov	DWORD PTR _pSystem$[ebp], ecx

; 128  : 			}
; 129  : 			else

	jmp	SHORT $LN9@UpdateSyst
$LN8@UpdateSyst:

; 130  : 			{
; 131  : 				// deleting the first system
; 132  : 				m_pFirstSystem = pSystem->m_pNextSystem;

	mov	eax, DWORD PTR _this$[ebp]
	mov	ecx, DWORD PTR _pSystem$[ebp]
	mov	edx, DWORD PTR [ecx]
	mov	DWORD PTR [eax], edx

; 133  : 				delete pSystem;

	mov	eax, DWORD PTR _pSystem$[ebp]
	mov	DWORD PTR $T1[ebp], eax
	mov	ecx, DWORD PTR $T1[ebp]
	mov	DWORD PTR $T2[ebp], ecx
	cmp	DWORD PTR $T2[ebp], 0
	je	SHORT $LN13@UpdateSyst
	push	1
	mov	ecx, DWORD PTR $T2[ebp]
	call	??_GCParticleSystem@@QAEPAXI@Z
	mov	DWORD PTR tv92[ebp], eax
	jmp	SHORT $LN14@UpdateSyst
$LN13@UpdateSyst:
	mov	DWORD PTR tv92[ebp], 0
$LN14@UpdateSyst:

; 134  : 				pSystem = m_pFirstSystem;

	mov	eax, DWORD PTR _this$[ebp]
	mov	ecx, DWORD PTR [eax]
	mov	DWORD PTR _pSystem$[ebp], ecx
$LN9@UpdateSyst:

; 135  : 			}
; 136  : 		}
; 137  : 	}

	jmp	$LN2@UpdateSyst
$LN3@UpdateSyst:

; 138  : 
; 139  : 	gEngfuncs.pTriAPI->RenderMode(kRenderNormal);

	push	0
	mov	eax, DWORD PTR ?gEngfuncs@@3Ucl_enginefuncs_s@@A+328
	mov	ecx, DWORD PTR [eax+4]
	call	ecx
	add	esp, 4
$LN1@UpdateSyst:

; 140  : }

	pop	edi
	pop	esi
	pop	ebx
	mov	esp, ebp
	pop	ebp
	ret	0
?UpdateSystems@CParticleSystemManager@@QAEXXZ ENDP	; CParticleSystemManager::UpdateSystems
_TEXT	ENDS
; Function compile flags: /Odtp /ZI
; File d:\!diffusion 2020\source code 2022\client-server\client\render\r_particle.cpp
;	COMDAT ?AddSystem@CParticleSystemManager@@QAEXPAVCParticleSystem@@@Z
_TEXT	SEGMENT
_this$ = -4						; size = 4
_pNewSystem$ = 8					; size = 4
?AddSystem@CParticleSystemManager@@QAEXPAVCParticleSystem@@@Z PROC ; CParticleSystemManager::AddSystem, COMDAT
; _this$ = ecx

; 67   : {

	push	ebp
	mov	ebp, esp
	sub	esp, 68					; 00000044H
	push	ebx
	push	esi
	push	edi
	mov	DWORD PTR _this$[ebp], ecx

; 68   : 	pNewSystem->m_pNextSystem = m_pFirstSystem;

	mov	eax, DWORD PTR _pNewSystem$[ebp]
	mov	ecx, DWORD PTR _this$[ebp]
	mov	edx, DWORD PTR [ecx]
	mov	DWORD PTR [eax], edx

; 69   : 	m_pFirstSystem = pNewSystem;

	mov	eax, DWORD PTR _this$[ebp]
	mov	ecx, DWORD PTR _pNewSystem$[ebp]
	mov	DWORD PTR [eax], ecx

; 70   : }

	pop	edi
	pop	esi
	pop	ebx
	mov	esp, ebp
	pop	ebp
	ret	4
?AddSystem@CParticleSystemManager@@QAEXPAVCParticleSystem@@@Z ENDP ; CParticleSystemManager::AddSystem
_TEXT	ENDS
; Function compile flags: /Odtp /ZI
; File d:\!diffusion 2020\source code 2022\client-server\client\render\r_particle.cpp
;	COMDAT ?MarkSystemForDeletion@CParticleSystemManager@@QAEXPAVCParticleSystem@@@Z
_TEXT	SEGMENT
_this$ = -4						; size = 4
_pSys$ = 8						; size = 4
?MarkSystemForDeletion@CParticleSystemManager@@QAEXPAVCParticleSystem@@@Z PROC ; CParticleSystemManager::MarkSystemForDeletion, COMDAT
; _this$ = ecx

; 91   : {

	push	ebp
	mov	ebp, esp
	sub	esp, 68					; 00000044H
	push	ebx
	push	esi
	push	edi
	mov	DWORD PTR _this$[ebp], ecx

; 92   : 	// parent entity is removed from server.
; 93   : 	pSys->MarkForDeletion();

	mov	ecx, DWORD PTR _pSys$[ebp]
	call	?MarkForDeletion@CParticleSystem@@QAEXXZ ; CParticleSystem::MarkForDeletion

; 94   : 	pSys->m_pEntity = NULL;

	mov	eax, DWORD PTR _pSys$[ebp]
	mov	DWORD PTR [eax+8], 0

; 95   : }

	pop	edi
	pop	esi
	pop	ebx
	mov	esp, ebp
	pop	ebp
	ret	4
?MarkSystemForDeletion@CParticleSystemManager@@QAEXPAVCParticleSystem@@@Z ENDP ; CParticleSystemManager::MarkSystemForDeletion
_TEXT	ENDS
; Function compile flags: /Odtp /ZI
; File d:\!diffusion 2020\source code 2022\client-server\client\render\r_particle.cpp
;	COMDAT ?FindSystem@CParticleSystemManager@@QAEPAVCParticleSystem@@PAV2@PAUcl_entity_s@@@Z
_TEXT	SEGMENT
_pSys$ = -8						; size = 4
_this$ = -4						; size = 4
_pFirstSystem$ = 8					; size = 4
_pEntity$ = 12						; size = 4
?FindSystem@CParticleSystemManager@@QAEPAVCParticleSystem@@PAV2@PAUcl_entity_s@@@Z PROC ; CParticleSystemManager::FindSystem, COMDAT
; _this$ = ecx

; 73   : {

	push	ebp
	mov	ebp, esp
	sub	esp, 72					; 00000048H
	push	ebx
	push	esi
	push	edi
	mov	DWORD PTR _this$[ebp], ecx

; 74   : 	CParticleSystem *pSys;
; 75   : 
; 76   : 	if( pFirstSystem != NULL )

	cmp	DWORD PTR _pFirstSystem$[ebp], 0
	je	SHORT $LN4@FindSystem

; 77   : 		pSys = pFirstSystem->m_pNextSystem;

	mov	eax, DWORD PTR _pFirstSystem$[ebp]
	mov	ecx, DWORD PTR [eax]
	mov	DWORD PTR _pSys$[ebp], ecx
	jmp	SHORT $LN2@FindSystem
$LN4@FindSystem:

; 78   : 	else pSys = m_pFirstSystem;

	mov	eax, DWORD PTR _this$[ebp]
	mov	ecx, DWORD PTR [eax]
	mov	DWORD PTR _pSys$[ebp], ecx
$LN2@FindSystem:

; 79   : 	
; 80   : 	while( pSys != NULL )

	cmp	DWORD PTR _pSys$[ebp], 0
	je	SHORT $LN3@FindSystem

; 81   : 	{
; 82   : 		if( pEntity == pSys->m_pEntity )

	mov	eax, DWORD PTR _pSys$[ebp]
	mov	ecx, DWORD PTR _pEntity$[ebp]
	cmp	ecx, DWORD PTR [eax+8]
	jne	SHORT $LN6@FindSystem

; 83   : 			return pSys;

	mov	eax, DWORD PTR _pSys$[ebp]
	jmp	SHORT $LN1@FindSystem
$LN6@FindSystem:

; 84   : 		pSys = pSys->m_pNextSystem;

	mov	eax, DWORD PTR _pSys$[ebp]
	mov	ecx, DWORD PTR [eax]
	mov	DWORD PTR _pSys$[ebp], ecx

; 85   : 	}

	jmp	SHORT $LN2@FindSystem
$LN3@FindSystem:

; 86   : 
; 87   : 	return NULL;

	xor	eax, eax
$LN1@FindSystem:

; 88   : }

	pop	edi
	pop	esi
	pop	ebx
	mov	esp, ebp
	pop	ebp
	ret	8
?FindSystem@CParticleSystemManager@@QAEPAVCParticleSystem@@PAV2@PAUcl_entity_s@@@Z ENDP ; CParticleSystemManager::FindSystem
_TEXT	ENDS
; Function compile flags: /Odtp /ZI
; File d:\!diffusion 2020\source code 2022\client-server\client\render\r_particle.cpp
;	COMDAT ??1CParticleSystemManager@@QAE@XZ
_TEXT	SEGMENT
_this$ = -16						; size = 4
__$EHRec$ = -12						; size = 12
??1CParticleSystemManager@@QAE@XZ PROC			; CParticleSystemManager::~CParticleSystemManager, COMDAT
; _this$ = ecx

; 62   : {

	push	ebp
	mov	ebp, esp
	push	-1
	push	__ehhandler$??1CParticleSystemManager@@QAE@XZ
	mov	eax, DWORD PTR fs:0
	push	eax
	sub	esp, 68					; 00000044H
	push	ebx
	push	esi
	push	edi
	mov	eax, DWORD PTR ___security_cookie
	xor	eax, ebp
	push	eax
	lea	eax, DWORD PTR __$EHRec$[ebp]
	mov	DWORD PTR fs:0, eax
	mov	DWORD PTR _this$[ebp], ecx

; 63   : 	ClearSystems();

	mov	ecx, DWORD PTR _this$[ebp]
	call	?ClearSystems@CParticleSystemManager@@QAEXXZ ; CParticleSystemManager::ClearSystems

; 64   : }

	mov	ecx, DWORD PTR __$EHRec$[ebp]
	mov	DWORD PTR fs:0, ecx
	pop	ecx
	pop	edi
	pop	esi
	pop	ebx
	mov	esp, ebp
	pop	ebp
	ret	0
_TEXT	ENDS
;	COMDAT text$x
text$x	SEGMENT
__ehhandler$??1CParticleSystemManager@@QAE@XZ:
	mov	edx, DWORD PTR [esp+8]
	lea	eax, DWORD PTR [edx+12]
	mov	ecx, DWORD PTR [edx-84]
	xor	ecx, eax
	call	@__security_check_cookie@4
	mov	eax, OFFSET __ehfuncinfo$??1CParticleSystemManager@@QAE@XZ
	jmp	___CxxFrameHandler3
text$x	ENDS
??1CParticleSystemManager@@QAE@XZ ENDP			; CParticleSystemManager::~CParticleSystemManager
; Function compile flags: /Odtp /ZI
; File d:\!diffusion 2020\source code 2022\client-server\client\render\r_particle.cpp
;	COMDAT ??0CParticleSystemManager@@QAE@XZ
_TEXT	SEGMENT
_this$ = -4						; size = 4
??0CParticleSystemManager@@QAE@XZ PROC			; CParticleSystemManager::CParticleSystemManager, COMDAT
; _this$ = ecx

; 57   : {

	push	ebp
	mov	ebp, esp
	sub	esp, 68					; 00000044H
	push	ebx
	push	esi
	push	edi
	mov	DWORD PTR _this$[ebp], ecx

; 58   : 	m_pFirstSystem = NULL;

	mov	eax, DWORD PTR _this$[ebp]
	mov	DWORD PTR [eax], 0

; 59   : }

	mov	eax, DWORD PTR _this$[ebp]
	pop	edi
	pop	esi
	pop	ebx
	mov	esp, ebp
	pop	ebp
	ret	0
??0CParticleSystemManager@@QAE@XZ ENDP			; CParticleSystemManager::CParticleSystemManager
_TEXT	ENDS
; Function compile flags: /Odtp /ZI
;	COMDAT ??_GCParticleSystem@@QAEPAXI@Z
_TEXT	SEGMENT
_this$ = -4						; size = 4
___flags$ = 8						; size = 4
??_GCParticleSystem@@QAEPAXI@Z PROC			; CParticleSystem::`scalar deleting destructor', COMDAT
; _this$ = ecx
	push	ebp
	mov	ebp, esp
	sub	esp, 68					; 00000044H
	push	ebx
	push	esi
	push	edi
	mov	DWORD PTR _this$[ebp], ecx
	mov	ecx, DWORD PTR _this$[ebp]
	call	??1CParticleSystem@@QAE@XZ		; CParticleSystem::~CParticleSystem
	mov	eax, DWORD PTR ___flags$[ebp]
	and	eax, 1
	je	SHORT $LN2@scalar
	push	112					; 00000070H
	mov	eax, DWORD PTR _this$[ebp]
	push	eax
	call	??3@YAXPAXI@Z				; operator delete
	add	esp, 8
$LN2@scalar:
	mov	eax, DWORD PTR _this$[ebp]
	pop	edi
	pop	esi
	pop	ebx
	mov	esp, ebp
	pop	ebp
	ret	4
??_GCParticleSystem@@QAEPAXI@Z ENDP			; CParticleSystem::`scalar deleting destructor'
_TEXT	ENDS
; Function compile flags: /Odtp /ZI
; File d:\!diffusion 2020\source code 2022\client-server\client\render\r_particle.h
;	COMDAT ?SinLookup@CParticleSystem@@SAMH@Z
_TEXT	SEGMENT
tv71 = -68						; size = 4
_angle$ = 8						; size = 4
?SinLookup@CParticleSystem@@SAMH@Z PROC			; CParticleSystem::SinLookup, COMDAT

; 160  : 	static float SinLookup( int angle ) { return angle < -90 ? c_fCosTable[angle+450] : c_fCosTable[angle+90]; }

	push	ebp
	mov	ebp, esp
	sub	esp, 68					; 00000044H
	push	ebx
	push	esi
	push	edi
	cmp	DWORD PTR _angle$[ebp], -90		; ffffffa6H
	jge	SHORT $LN3@SinLookup
	mov	eax, DWORD PTR _angle$[ebp]
	movss	xmm0, DWORD PTR ?c_fCosTable@CParticleSystem@@0PAMA[eax*4+1800]
	movss	DWORD PTR tv71[ebp], xmm0
	jmp	SHORT $LN4@SinLookup
$LN3@SinLookup:
	mov	ecx, DWORD PTR _angle$[ebp]
	movss	xmm0, DWORD PTR ?c_fCosTable@CParticleSystem@@0PAMA[ecx*4+360]
	movss	DWORD PTR tv71[ebp], xmm0
$LN4@SinLookup:
	fld	DWORD PTR tv71[ebp]
	pop	edi
	pop	esi
	pop	ebx
	mov	esp, ebp
	pop	ebp
	ret	0
?SinLookup@CParticleSystem@@SAMH@Z ENDP			; CParticleSystem::SinLookup
_TEXT	ENDS
; Function compile flags: /Odtp /ZI
; File d:\!diffusion 2020\source code 2022\client-server\client\render\r_particle.h
;	COMDAT ?CosLookup@CParticleSystem@@SAMH@Z
_TEXT	SEGMENT
tv70 = -68						; size = 4
_angle$ = 8						; size = 4
?CosLookup@CParticleSystem@@SAMH@Z PROC			; CParticleSystem::CosLookup, COMDAT

; 159  : 	static float CosLookup( int angle ) { return angle < 0 ? c_fCosTable[angle+360] : c_fCosTable[angle]; }

	push	ebp
	mov	ebp, esp
	sub	esp, 68					; 00000044H
	push	ebx
	push	esi
	push	edi
	cmp	DWORD PTR _angle$[ebp], 0
	jge	SHORT $LN3@CosLookup
	mov	eax, DWORD PTR _angle$[ebp]
	movss	xmm0, DWORD PTR ?c_fCosTable@CParticleSystem@@0PAMA[eax*4+1440]
	movss	DWORD PTR tv70[ebp], xmm0
	jmp	SHORT $LN4@CosLookup
$LN3@CosLookup:
	mov	ecx, DWORD PTR _angle$[ebp]
	movss	xmm0, DWORD PTR ?c_fCosTable@CParticleSystem@@0PAMA[ecx*4]
	movss	DWORD PTR tv70[ebp], xmm0
$LN4@CosLookup:
	fld	DWORD PTR tv70[ebp]
	pop	edi
	pop	esi
	pop	ebx
	mov	esp, ebp
	pop	ebp
	ret	0
?CosLookup@CParticleSystem@@SAMH@Z ENDP			; CParticleSystem::CosLookup
_TEXT	ENDS
; Function compile flags: /Odtp /ZI
; File d:\!diffusion 2020\source code 2022\client-server\client\render\r_particle.cpp
;	COMDAT ?ParticleIsVisible@CParticleSystem@@QAE_NPAUCParticle@@@Z
_TEXT	SEGMENT
_this$ = -4						; size = 4
_part$ = 8						; size = 4
?ParticleIsVisible@CParticleSystem@@QAE_NPAUCParticle@@@Z PROC ; CParticleSystem::ParticleIsVisible, COMDAT
; _this$ = ecx

; 882  : {

	push	ebp
	mov	ebp, esp
	sub	esp, 68					; 00000044H
	push	ebx
	push	esi
	push	edi
	mov	DWORD PTR _this$[ebp], ecx

; 883  : 	if( RI->currentlight )

	mov	eax, DWORD PTR ?RI@@3PAUref_instance_t@@A ; RI
	cmp	DWORD PTR [eax+24], 0
	je	SHORT $LN2@ParticleIs

; 884  : 	{
; 885  : 		if( RI->currentlight->frustum.CullSphere( part->origin, part->m_fSize + 1 ))

	push	0
	mov	eax, DWORD PTR _part$[ebp]
	movss	xmm0, DWORD PTR [eax+112]
	addss	xmm0, DWORD PTR __real@3f800000
	push	ecx
	movss	DWORD PTR [esp], xmm0
	mov	ecx, DWORD PTR _part$[ebp]
	add	ecx, 12					; 0000000cH
	push	ecx
	mov	edx, DWORD PTR ?RI@@3PAUref_instance_t@@A ; RI
	mov	ecx, DWORD PTR [edx+24]
	add	ecx, 328				; 00000148H
	call	?CullSphere@CFrustum@@QAE_NABVVector@@MH@Z ; CFrustum::CullSphere
	movzx	eax, al
	test	eax, eax
	je	SHORT $LN4@ParticleIs

; 886  : 			return false;

	xor	al, al
	jmp	SHORT $LN1@ParticleIs
$LN4@ParticleIs:

; 887  : 	}
; 888  : 	else

	jmp	SHORT $LN5@ParticleIs
$LN2@ParticleIs:

; 889  : 	{
; 890  : 		if( R_CullSphere( part->origin, part->m_fSize + 1 ))

	push	0
	mov	eax, DWORD PTR _part$[ebp]
	movss	xmm0, DWORD PTR [eax+112]
	addss	xmm0, DWORD PTR __real@3f800000
	push	ecx
	movss	DWORD PTR [esp], xmm0
	mov	ecx, DWORD PTR _part$[ebp]
	add	ecx, 12					; 0000000cH
	push	ecx
	mov	ecx, DWORD PTR ?RI@@3PAUref_instance_t@@A ; RI
	add	ecx, 48					; 00000030H
	call	?CullSphere@CFrustum@@QAE_NABVVector@@MH@Z ; CFrustum::CullSphere
	movzx	edx, al
	test	edx, edx
	je	SHORT $LN5@ParticleIs

; 891  : 			return false;

	xor	al, al
	jmp	SHORT $LN1@ParticleIs
$LN5@ParticleIs:

; 892  : 	}
; 893  : 	return true;

	mov	al, 1
$LN1@ParticleIs:

; 894  : }

	pop	edi
	pop	esi
	pop	ebx
	mov	esp, ebp
	pop	ebp
	ret	4
?ParticleIsVisible@CParticleSystem@@QAE_NPAUCParticle@@@Z ENDP ; CParticleSystem::ParticleIsVisible
_TEXT	ENDS
; Function compile flags: /Odtp /ZI
; File d:\!diffusion 2020\source code 2022\client-server\client\render\r_particle.cpp
;	COMDAT ?MarkForDeletion@CParticleSystem@@QAEXXZ
_TEXT	SEGMENT
_this$ = -4						; size = 4
?MarkForDeletion@CParticleSystem@@QAEXXZ PROC		; CParticleSystem::MarkForDeletion, COMDAT
; _this$ = ecx

; 716  : {

	push	ebp
	mov	ebp, esp
	sub	esp, 68					; 00000044H
	push	ebx
	push	esi
	push	edi
	mov	DWORD PTR _this$[ebp], ecx

; 717  : 	if( m_pMainParticle )

	mov	eax, DWORD PTR _this$[ebp]
	cmp	DWORD PTR [eax+100], 0
	je	SHORT $LN2@MarkForDel

; 718  : 	{
; 719  : 		m_pMainParticle->age_death = 0.0f; // die now

	mov	eax, DWORD PTR _this$[ebp]
	mov	ecx, DWORD PTR [eax+100]
	xorps	xmm0, xmm0
	movss	DWORD PTR [ecx+128], xmm0

; 720  : 		m_pMainParticle = NULL;

	mov	eax, DWORD PTR _this$[ebp]
	mov	DWORD PTR [eax+100], 0
$LN2@MarkForDel:

; 721  : 	}
; 722  : 
; 723  : 	// completely remove for time-based systems
; 724  : 	if( m_fLifeTime != 0.0f ) m_pEntity = NULL;

	mov	eax, DWORD PTR _this$[ebp]
	movss	xmm0, DWORD PTR [eax+60]
	ucomiss	xmm0, DWORD PTR __real@00000000
	lahf
	test	ah, 68					; 00000044H
	jnp	SHORT $LN3@MarkForDel
	mov	eax, DWORD PTR _this$[ebp]
	mov	DWORD PTR [eax+8], 0
$LN3@MarkForDel:

; 725  : }

	pop	edi
	pop	esi
	pop	ebx
	mov	esp, ebp
	pop	ebp
	ret	0
?MarkForDeletion@CParticleSystem@@QAEXXZ ENDP		; CParticleSystem::MarkForDeletion
_TEXT	ENDS
; Function compile flags: /Odtp /ZI
; File d:\!diffusion 2020\source code 2022\client-server\client\render\r_particle.cpp
;	COMDAT ?DrawQuad@CParticleSystem@@QAEXABVVector@@000@Z
_TEXT	SEGMENT
_this$ = -4						; size = 4
_p0$ = 8						; size = 4
_p1$ = 12						; size = 4
_p2$ = 16						; size = 4
_p3$ = 20						; size = 4
?DrawQuad@CParticleSystem@@QAEXABVVector@@000@Z PROC	; CParticleSystem::DrawQuad, COMDAT
; _this$ = ecx

; 1137 : {

	push	ebp
	mov	ebp, esp
	sub	esp, 68					; 00000044H
	push	ebx
	push	esi
	push	edi
	mov	DWORD PTR _this$[ebp], ecx

; 1138 : 	gEngfuncs.pTriAPI->Begin( TRI_QUADS );

	push	2
	mov	eax, DWORD PTR ?gEngfuncs@@3Ucl_enginefuncs_s@@A+328
	mov	ecx, DWORD PTR [eax+8]
	call	ecx
	add	esp, 4

; 1139 : 		gEngfuncs.pTriAPI->TexCoord2f( 0, 0 );

	push	ecx
	xorps	xmm0, xmm0
	movss	DWORD PTR [esp], xmm0
	push	ecx
	xorps	xmm0, xmm0
	movss	DWORD PTR [esp], xmm0
	mov	eax, DWORD PTR ?gEngfuncs@@3Ucl_enginefuncs_s@@A+328
	mov	ecx, DWORD PTR [eax+24]
	call	ecx
	add	esp, 8

; 1140 : 		gEngfuncs.pTriAPI->Vertex3fv( (float *)&p0 );

	mov	eax, DWORD PTR _p0$[ebp]
	push	eax
	mov	ecx, DWORD PTR ?gEngfuncs@@3Ucl_enginefuncs_s@@A+328
	mov	edx, DWORD PTR [ecx+28]
	call	edx
	add	esp, 4

; 1141 : 
; 1142 : 		gEngfuncs.pTriAPI->TexCoord2f( 1, 0 );

	push	ecx
	xorps	xmm0, xmm0
	movss	DWORD PTR [esp], xmm0
	push	ecx
	movss	xmm0, DWORD PTR __real@3f800000
	movss	DWORD PTR [esp], xmm0
	mov	eax, DWORD PTR ?gEngfuncs@@3Ucl_enginefuncs_s@@A+328
	mov	ecx, DWORD PTR [eax+24]
	call	ecx
	add	esp, 8

; 1143 : 		gEngfuncs.pTriAPI->Vertex3fv( (float *)&p1 );

	mov	eax, DWORD PTR _p1$[ebp]
	push	eax
	mov	ecx, DWORD PTR ?gEngfuncs@@3Ucl_enginefuncs_s@@A+328
	mov	edx, DWORD PTR [ecx+28]
	call	edx
	add	esp, 4

; 1144 : 
; 1145 : 		gEngfuncs.pTriAPI->TexCoord2f( 1, 1 );

	push	ecx
	movss	xmm0, DWORD PTR __real@3f800000
	movss	DWORD PTR [esp], xmm0
	push	ecx
	movss	xmm0, DWORD PTR __real@3f800000
	movss	DWORD PTR [esp], xmm0
	mov	eax, DWORD PTR ?gEngfuncs@@3Ucl_enginefuncs_s@@A+328
	mov	ecx, DWORD PTR [eax+24]
	call	ecx
	add	esp, 8

; 1146 : 		gEngfuncs.pTriAPI->Vertex3fv( (float *)&p2 );

	mov	eax, DWORD PTR _p2$[ebp]
	push	eax
	mov	ecx, DWORD PTR ?gEngfuncs@@3Ucl_enginefuncs_s@@A+328
	mov	edx, DWORD PTR [ecx+28]
	call	edx
	add	esp, 4

; 1147 : 
; 1148 : 		gEngfuncs.pTriAPI->TexCoord2f( 0, 1 );

	push	ecx
	movss	xmm0, DWORD PTR __real@3f800000
	movss	DWORD PTR [esp], xmm0
	push	ecx
	xorps	xmm0, xmm0
	movss	DWORD PTR [esp], xmm0
	mov	eax, DWORD PTR ?gEngfuncs@@3Ucl_enginefuncs_s@@A+328
	mov	ecx, DWORD PTR [eax+24]
	call	ecx
	add	esp, 8

; 1149 : 		gEngfuncs.pTriAPI->Vertex3fv( (float *)&p3 );

	mov	eax, DWORD PTR _p3$[ebp]
	push	eax
	mov	ecx, DWORD PTR ?gEngfuncs@@3Ucl_enginefuncs_s@@A+328
	mov	edx, DWORD PTR [ecx+28]
	call	edx
	add	esp, 4

; 1150 : 	gEngfuncs.pTriAPI->End();

	mov	eax, DWORD PTR ?gEngfuncs@@3Ucl_enginefuncs_s@@A+328
	mov	ecx, DWORD PTR [eax+12]
	call	ecx

; 1151 : 
; 1152 : 	r_stats.c_total_tris += 2;

	mov	eax, DWORD PTR ?r_stats@@3Uref_stats_t@@A+60
	add	eax, 2
	mov	DWORD PTR ?r_stats@@3Uref_stats_t@@A+60, eax

; 1153 : }

	pop	edi
	pop	esi
	pop	ebx
	mov	esp, ebp
	pop	ebp
	ret	16					; 00000010H
?DrawQuad@CParticleSystem@@QAEXABVVector@@000@Z ENDP	; CParticleSystem::DrawQuad
_TEXT	ENDS
; Function compile flags: /Odtp /ZI
; File d:\!diffusion 2020\source code 2022\client-server\client\render\r_particle.cpp
;	COMDAT ?DrawParticle@CParticleSystem@@QAEXPAUCParticle@@AAVVector@@1@Z
_TEXT	SEGMENT
tv362 = -424						; size = 4
tv614 = -420						; size = 4
tv402 = -420						; size = 4
tv397 = -420						; size = 4
tv361 = -420						; size = 4
$T1 = -416						; size = 4
$T2 = -412						; size = 12
$T3 = -400						; size = 12
$T4 = -388						; size = 12
$T5 = -376						; size = 12
$T6 = -364						; size = 12
$T7 = -352						; size = 12
$T8 = -340						; size = 12
$T9 = -328						; size = 12
$T10 = -316						; size = 12
$T11 = -304						; size = 12
$T12 = -292						; size = 12
$T13 = -280						; size = 12
$T14 = -268						; size = 12
$T15 = -256						; size = 12
$T16 = -244						; size = 12
$T17 = -232						; size = 12
$T18 = -220						; size = 12
$T19 = -208						; size = 12
_fogFactor$20 = -132					; size = 4
_depth$21 = -128					; size = 4
_lightColor$22 = -124					; size = 12
_partAlpha$23 = -112					; size = 4
_partColor$24 = -108					; size = 12
_pl$25 = -96						; size = 4
_i$26 = -92						; size = 4
_pDraw$27 = -88						; size = 4
_pModel$ = -84						; size = 4
_iContents$ = -80					; size = 4
_fSinSize$ = -76					; size = 4
_fCosSize$ = -72					; size = 4
_origin$ = -68						; size = 12
_point4$ = -56						; size = 12
_point3$ = -44						; size = 12
_point2$ = -32						; size = 12
_point1$ = -20						; size = 12
_fSize$ = -8						; size = 4
_this$ = -4						; size = 4
_part$ = 8						; size = 4
_right$ = 12						; size = 4
_up$ = 16						; size = 4
?DrawParticle@CParticleSystem@@QAEXPAUCParticle@@AAVVector@@1@Z PROC ; CParticleSystem::DrawParticle, COMDAT
; _this$ = ecx

; 1012 : {

	push	ebp
	mov	ebp, esp
	sub	esp, 424				; 000001a8H
	push	ebx
	push	esi
	push	edi
	mov	DWORD PTR _this$[ebp], ecx

; 1013 : 	float fSize = part->m_fSize;

	mov	eax, DWORD PTR _part$[ebp]
	movss	xmm0, DWORD PTR [eax+112]
	movss	DWORD PTR _fSize$[ebp], xmm0

; 1014 : 
; 1015 : 	// nothing to draw?
; 1016 : 	if( fSize <= 0 ) return;

	xorps	xmm0, xmm0
	comiss	xmm0, DWORD PTR _fSize$[ebp]
	jb	SHORT $LN12@DrawPartic
	jmp	$LN1@DrawPartic
$LN12@DrawPartic:

; 1017 : 
; 1018 : 	// frustrum visible check
; 1019 : 	if( !ParticleIsVisible( part ))

	mov	eax, DWORD PTR _part$[ebp]
	push	eax
	mov	ecx, DWORD PTR _this$[ebp]
	call	?ParticleIsVisible@CParticleSystem@@QAE_NPAUCParticle@@@Z ; CParticleSystem::ParticleIsVisible
	movzx	ecx, al
	test	ecx, ecx
	jne	SHORT $LN13@DrawPartic

; 1020 : 		return;

	jmp	$LN1@DrawPartic
$LN13@DrawPartic:

; 1021 : 
; 1022 : 	Vector point1, point2, point3, point4;

	lea	ecx, DWORD PTR _point1$[ebp]
	call	??0Vector@@QAE@XZ			; Vector::Vector
	lea	ecx, DWORD PTR _point2$[ebp]
	call	??0Vector@@QAE@XZ			; Vector::Vector
	lea	ecx, DWORD PTR _point3$[ebp]
	call	??0Vector@@QAE@XZ			; Vector::Vector
	lea	ecx, DWORD PTR _point4$[ebp]
	call	??0Vector@@QAE@XZ			; Vector::Vector

; 1023 : 	Vector origin = part->origin;

	mov	eax, DWORD PTR _part$[ebp]
	add	eax, 12					; 0000000cH
	push	eax
	lea	ecx, DWORD PTR _origin$[ebp]
	call	??0Vector@@QAE@ABV0@@Z			; Vector::Vector

; 1024 : 
; 1025 : 	float fCosSize = CosLookup( part->m_fAngle ) * fSize;

	mov	eax, DWORD PTR _part$[ebp]
	cvttss2si ecx, DWORD PTR [eax+104]
	push	ecx
	call	?CosLookup@CParticleSystem@@SAMH@Z	; CParticleSystem::CosLookup
	add	esp, 4
	fstp	DWORD PTR tv397[ebp]
	movss	xmm0, DWORD PTR tv397[ebp]
	mulss	xmm0, DWORD PTR _fSize$[ebp]
	movss	DWORD PTR _fCosSize$[ebp], xmm0

; 1026 : 	float fSinSize = SinLookup( part->m_fAngle ) * fSize;

	mov	eax, DWORD PTR _part$[ebp]
	cvttss2si ecx, DWORD PTR [eax+104]
	push	ecx
	call	?SinLookup@CParticleSystem@@SAMH@Z	; CParticleSystem::SinLookup
	add	esp, 4
	fstp	DWORD PTR tv402[ebp]
	movss	xmm0, DWORD PTR tv402[ebp]
	mulss	xmm0, DWORD PTR _fSize$[ebp]
	movss	DWORD PTR _fSinSize$[ebp], xmm0

; 1027 : 
; 1028 : 	// calculate the four corners of the sprite
; 1029 : 	point1 = origin + up * fSinSize + right * -fCosSize;

	movss	xmm0, DWORD PTR _fCosSize$[ebp]
	xorps	xmm0, DWORD PTR __xmm@80000000800000008000000080000000
	push	ecx
	movss	DWORD PTR [esp], xmm0
	lea	eax, DWORD PTR $T17[ebp]
	push	eax
	mov	ecx, DWORD PTR _right$[ebp]
	call	??DVector@@QBE?AV0@M@Z			; Vector::operator*
	push	eax
	lea	ecx, DWORD PTR $T16[ebp]
	push	ecx
	push	ecx
	movss	xmm0, DWORD PTR _fSinSize$[ebp]
	movss	DWORD PTR [esp], xmm0
	lea	edx, DWORD PTR $T19[ebp]
	push	edx
	mov	ecx, DWORD PTR _up$[ebp]
	call	??DVector@@QBE?AV0@M@Z			; Vector::operator*
	push	eax
	lea	eax, DWORD PTR $T18[ebp]
	push	eax
	lea	ecx, DWORD PTR _origin$[ebp]
	call	??HVector@@QBE?AV0@ABV0@@Z		; Vector::operator+
	mov	ecx, eax
	call	??HVector@@QBE?AV0@ABV0@@Z		; Vector::operator+
	mov	ecx, DWORD PTR [eax]
	mov	DWORD PTR _point1$[ebp], ecx
	mov	edx, DWORD PTR [eax+4]
	mov	DWORD PTR _point1$[ebp+4], edx
	mov	eax, DWORD PTR [eax+8]
	mov	DWORD PTR _point1$[ebp+8], eax

; 1030 : 	point2 = origin + up * fCosSize + right * fSinSize;

	push	ecx
	movss	xmm0, DWORD PTR _fSinSize$[ebp]
	movss	DWORD PTR [esp], xmm0
	lea	eax, DWORD PTR $T13[ebp]
	push	eax
	mov	ecx, DWORD PTR _right$[ebp]
	call	??DVector@@QBE?AV0@M@Z			; Vector::operator*
	push	eax
	lea	ecx, DWORD PTR $T12[ebp]
	push	ecx
	push	ecx
	movss	xmm0, DWORD PTR _fCosSize$[ebp]
	movss	DWORD PTR [esp], xmm0
	lea	edx, DWORD PTR $T15[ebp]
	push	edx
	mov	ecx, DWORD PTR _up$[ebp]
	call	??DVector@@QBE?AV0@M@Z			; Vector::operator*
	push	eax
	lea	eax, DWORD PTR $T14[ebp]
	push	eax
	lea	ecx, DWORD PTR _origin$[ebp]
	call	??HVector@@QBE?AV0@ABV0@@Z		; Vector::operator+
	mov	ecx, eax
	call	??HVector@@QBE?AV0@ABV0@@Z		; Vector::operator+
	mov	ecx, DWORD PTR [eax]
	mov	DWORD PTR _point2$[ebp], ecx
	mov	edx, DWORD PTR [eax+4]
	mov	DWORD PTR _point2$[ebp+4], edx
	mov	eax, DWORD PTR [eax+8]
	mov	DWORD PTR _point2$[ebp+8], eax

; 1031 : 	point3 = origin + up * -fSinSize + right * fCosSize;	

	push	ecx
	movss	xmm0, DWORD PTR _fCosSize$[ebp]
	movss	DWORD PTR [esp], xmm0
	lea	eax, DWORD PTR $T9[ebp]
	push	eax
	mov	ecx, DWORD PTR _right$[ebp]
	call	??DVector@@QBE?AV0@M@Z			; Vector::operator*
	push	eax
	lea	ecx, DWORD PTR $T8[ebp]
	push	ecx
	movss	xmm0, DWORD PTR _fSinSize$[ebp]
	xorps	xmm0, DWORD PTR __xmm@80000000800000008000000080000000
	push	ecx
	movss	DWORD PTR [esp], xmm0
	lea	edx, DWORD PTR $T11[ebp]
	push	edx
	mov	ecx, DWORD PTR _up$[ebp]
	call	??DVector@@QBE?AV0@M@Z			; Vector::operator*
	push	eax
	lea	eax, DWORD PTR $T10[ebp]
	push	eax
	lea	ecx, DWORD PTR _origin$[ebp]
	call	??HVector@@QBE?AV0@ABV0@@Z		; Vector::operator+
	mov	ecx, eax
	call	??HVector@@QBE?AV0@ABV0@@Z		; Vector::operator+
	mov	ecx, DWORD PTR [eax]
	mov	DWORD PTR _point3$[ebp], ecx
	mov	edx, DWORD PTR [eax+4]
	mov	DWORD PTR _point3$[ebp+4], edx
	mov	eax, DWORD PTR [eax+8]
	mov	DWORD PTR _point3$[ebp+8], eax

; 1032 : 	point4 = origin + up * -fCosSize + right * -fSinSize;

	movss	xmm0, DWORD PTR _fSinSize$[ebp]
	xorps	xmm0, DWORD PTR __xmm@80000000800000008000000080000000
	push	ecx
	movss	DWORD PTR [esp], xmm0
	lea	eax, DWORD PTR $T5[ebp]
	push	eax
	mov	ecx, DWORD PTR _right$[ebp]
	call	??DVector@@QBE?AV0@M@Z			; Vector::operator*
	push	eax
	lea	ecx, DWORD PTR $T4[ebp]
	push	ecx
	movss	xmm0, DWORD PTR _fCosSize$[ebp]
	xorps	xmm0, DWORD PTR __xmm@80000000800000008000000080000000
	push	ecx
	movss	DWORD PTR [esp], xmm0
	lea	edx, DWORD PTR $T7[ebp]
	push	edx
	mov	ecx, DWORD PTR _up$[ebp]
	call	??DVector@@QBE?AV0@M@Z			; Vector::operator*
	push	eax
	lea	eax, DWORD PTR $T6[ebp]
	push	eax
	lea	ecx, DWORD PTR _origin$[ebp]
	call	??HVector@@QBE?AV0@ABV0@@Z		; Vector::operator+
	mov	ecx, eax
	call	??HVector@@QBE?AV0@ABV0@@Z		; Vector::operator+
	mov	ecx, DWORD PTR [eax]
	mov	DWORD PTR _point4$[ebp], ecx
	mov	edx, DWORD PTR [eax+4]
	mov	DWORD PTR _point4$[ebp+4], edx
	mov	eax, DWORD PTR [eax+8]
	mov	DWORD PTR _point4$[ebp+8], eax

; 1033 : 
; 1034 : 	int iContents = CONTENTS_NONE;

	mov	DWORD PTR _iContents$[ebp], 0

; 1035 : 	model_t *pModel;
; 1036 : 
; 1037 : 	for( CParticle *pDraw = part; pDraw; pDraw = pDraw->m_pOverlay )

	mov	eax, DWORD PTR _part$[ebp]
	mov	DWORD PTR _pDraw$27[ebp], eax
	jmp	SHORT $LN4@DrawPartic
$LN2@DrawPartic:
	mov	eax, DWORD PTR _pDraw$27[ebp]
	mov	ecx, DWORD PTR [eax+4]
	mov	DWORD PTR _pDraw$27[ebp], ecx
$LN4@DrawPartic:
	cmp	DWORD PTR _pDraw$27[ebp], 0
	je	$LN3@DrawPartic

; 1038 : 	{
; 1039 : 		if( !pDraw->pType->m_hSprite )

	mov	eax, DWORD PTR _pDraw$27[ebp]
	mov	ecx, DWORD PTR [eax+8]
	cmp	DWORD PTR [ecx+348], 0
	jne	SHORT $LN14@DrawPartic

; 1040 : 			continue;

	jmp	SHORT $LN2@DrawPartic
$LN14@DrawPartic:

; 1041 : 
; 1042 : 		if( pDraw->pType->m_iDrawCond )

	mov	eax, DWORD PTR _pDraw$27[ebp]
	mov	ecx, DWORD PTR [eax+8]
	cmp	DWORD PTR [ecx+8], 0
	je	$LN25@DrawPartic

; 1043 : 		{
; 1044 : 			if( pDraw->pType->m_iDrawCond == CONTENT_SPOTLIGHT )

	mov	eax, DWORD PTR _pDraw$27[ebp]
	mov	ecx, DWORD PTR [eax+8]
	cmp	DWORD PTR [ecx+8], -23			; ffffffe9H
	jne	$LN16@DrawPartic

; 1045 : 			{
; 1046 : 				// test already paseed
; 1047 : 				if( !RI->currentlight )

	mov	eax, DWORD PTR ?RI@@3PAUref_instance_t@@A ; RI
	cmp	DWORD PTR [eax+24], 0
	jne	$LN23@DrawPartic

; 1048 : 				{
; 1049 : 					if( !R_CountPlights( ))

	push	0
	call	?R_CountPlights@@YAH_N@Z		; R_CountPlights
	add	esp, 4
	test	eax, eax
	jne	SHORT $LN19@DrawPartic

; 1050 : 						continue;	// fast reject

	jmp	SHORT $LN2@DrawPartic
$LN19@DrawPartic:

; 1051 : 
; 1052 : 					int i;
; 1053 : 					for( i = 0; i < MAX_PLIGHTS; i++ )

	mov	DWORD PTR _i$26[ebp], 0
	jmp	SHORT $LN7@DrawPartic
$LN5@DrawPartic:
	mov	eax, DWORD PTR _i$26[ebp]
	add	eax, 1
	mov	DWORD PTR _i$26[ebp], eax
$LN7@DrawPartic:
	cmp	DWORD PTR _i$26[ebp], 96		; 00000060H
	jge	SHORT $LN6@DrawPartic

; 1054 : 					{
; 1055 : 						plight_t *pl = &cl_plights[i];

	imul	eax, DWORD PTR _i$26[ebp], 768
	add	eax, OFFSET ?cl_plights@@3PAUplight_s@@A ; cl_plights
	mov	DWORD PTR _pl$25[ebp], eax

; 1056 : 
; 1057 : 						if( pl->die < tr.time || !pl->radius )

	mov	eax, DWORD PTR _pl$25[ebp]
	cvtss2sd xmm0, DWORD PTR [eax+32]
	movsd	xmm1, QWORD PTR ?tr@@3Uref_globals_t@@A+8
	comisd	xmm1, xmm0
	ja	SHORT $LN21@DrawPartic
	mov	eax, DWORD PTR _pl$25[ebp]
	movss	xmm0, DWORD PTR [eax+24]
	ucomiss	xmm0, DWORD PTR __real@00000000
	lahf
	test	ah, 68					; 00000044H
	jp	SHORT $LN20@DrawPartic
$LN21@DrawPartic:

; 1058 : 							continue;

	jmp	SHORT $LN5@DrawPartic
$LN20@DrawPartic:

; 1059 : 
; 1060 : 						if( !pl->frustum.CullSphere( part->origin, part->m_fSize + 1 ))

	push	0
	mov	eax, DWORD PTR _part$[ebp]
	movss	xmm0, DWORD PTR [eax+112]
	addss	xmm0, DWORD PTR __real@3f800000
	push	ecx
	movss	DWORD PTR [esp], xmm0
	mov	ecx, DWORD PTR _part$[ebp]
	add	ecx, 12					; 0000000cH
	push	ecx
	mov	ecx, DWORD PTR _pl$25[ebp]
	add	ecx, 328				; 00000148H
	call	?CullSphere@CFrustum@@QAE_NABVVector@@MH@Z ; CFrustum::CullSphere
	movzx	edx, al
	test	edx, edx
	jne	SHORT $LN22@DrawPartic

; 1061 : 							break; // cone intersected with particle

	jmp	SHORT $LN6@DrawPartic
$LN22@DrawPartic:

; 1062 : 
; 1063 : 					}

	jmp	$LN5@DrawPartic
$LN6@DrawPartic:

; 1064 : 
; 1065 : 					if( i == MAX_PLIGHTS )

	cmp	DWORD PTR _i$26[ebp], 96		; 00000060H
	jne	SHORT $LN23@DrawPartic

; 1066 : 						continue;	// no intersection

	jmp	$LN2@DrawPartic
$LN23@DrawPartic:

; 1067 : 				}
; 1068 : 			}
; 1069 : 			else

	jmp	SHORT $LN25@DrawPartic
$LN16@DrawPartic:

; 1070 : 			{
; 1071 : 				if( iContents == CONTENTS_NONE )

	cmp	DWORD PTR _iContents$[ebp], 0
	jne	SHORT $LN24@DrawPartic

; 1072 : 					iContents = POINT_CONTENTS( origin );

	push	0
	lea	ecx, DWORD PTR _origin$[ebp]
	call	??BVector@@QAEPAMXZ			; Vector::operator float *
	push	eax
	call	DWORD PTR ?gEngfuncs@@3Ucl_enginefuncs_s@@A+228
	add	esp, 8
	mov	DWORD PTR _iContents$[ebp], eax
$LN24@DrawPartic:

; 1073 : 
; 1074 : 				if( iContents != pDraw->pType->m_iDrawCond )

	mov	eax, DWORD PTR _pDraw$27[ebp]
	mov	ecx, DWORD PTR [eax+8]
	mov	edx, DWORD PTR _iContents$[ebp]
	cmp	edx, DWORD PTR [ecx+8]
	je	SHORT $LN25@DrawPartic

; 1075 : 					continue;

	jmp	$LN2@DrawPartic
$LN25@DrawPartic:

; 1076 : 			}
; 1077 : 		}
; 1078 : 
; 1079 : 		pModel = (model_t *)gEngfuncs.GetSpritePointer( pDraw->pType->m_hSprite );

	mov	eax, DWORD PTR _pDraw$27[ebp]
	mov	ecx, DWORD PTR [eax+8]
	mov	edx, DWORD PTR [ecx+348]
	push	edx
	call	DWORD PTR ?gEngfuncs@@3Ucl_enginefuncs_s@@A+248
	add	esp, 4
	mov	DWORD PTR _pModel$[ebp], eax
$LN8@DrawPartic:

; 1080 : 
; 1081 : 		// if we've reached the end of the sprite's frames, loop back
; 1082 : 		while (pDraw->frame > pModel->numframes)

	mov	eax, DWORD PTR _pModel$[ebp]
	cvtsi2ss xmm0, DWORD PTR [eax+72]
	mov	ecx, DWORD PTR _pDraw$27[ebp]
	movss	xmm1, DWORD PTR [ecx+96]
	comiss	xmm1, xmm0
	jbe	SHORT $LN9@DrawPartic

; 1083 : 			pDraw->frame -= pModel->numframes;

	mov	eax, DWORD PTR _pModel$[ebp]
	cvtsi2ss xmm0, DWORD PTR [eax+72]
	mov	ecx, DWORD PTR _pDraw$27[ebp]
	movss	xmm1, DWORD PTR [ecx+96]
	subss	xmm1, xmm0
	mov	edx, DWORD PTR _pDraw$27[ebp]
	movss	DWORD PTR [edx+96], xmm1
	jmp	SHORT $LN8@DrawPartic
$LN9@DrawPartic:

; 1084 : 
; 1085 : 		while (pDraw->frame < 0)

	mov	eax, DWORD PTR _pDraw$27[ebp]
	xorps	xmm0, xmm0
	comiss	xmm0, DWORD PTR [eax+96]
	jbe	SHORT $LN11@DrawPartic

; 1086 : 			pDraw->frame += pModel->numframes;

	mov	eax, DWORD PTR _pModel$[ebp]
	cvtsi2ss xmm0, DWORD PTR [eax+72]
	mov	ecx, DWORD PTR _pDraw$27[ebp]
	addss	xmm0, DWORD PTR [ecx+96]
	mov	edx, DWORD PTR _pDraw$27[ebp]
	movss	DWORD PTR [edx+96], xmm0
	jmp	SHORT $LN9@DrawPartic
$LN11@DrawPartic:

; 1087 : 
; 1088 : 		if( !gEngfuncs.pTriAPI->SpriteTexture( pModel, (int)pDraw->frame ))

	mov	eax, DWORD PTR _pDraw$27[ebp]
	cvttss2si ecx, DWORD PTR [eax+96]
	push	ecx
	mov	edx, DWORD PTR _pModel$[ebp]
	push	edx
	mov	eax, DWORD PTR ?gEngfuncs@@3Ucl_enginefuncs_s@@A+328
	mov	ecx, DWORD PTR [eax+44]
	call	ecx
	add	esp, 8
	test	eax, eax
	jne	SHORT $LN26@DrawPartic

; 1089 : 			continue;

	jmp	$LN2@DrawPartic
$LN26@DrawPartic:

; 1090 : 
; 1091 : 		if( !RI->currentlight )

	mov	eax, DWORD PTR ?RI@@3PAUref_instance_t@@A ; RI
	cmp	DWORD PTR [eax+24], 0
	jne	$LN27@DrawPartic

; 1092 : 		{
; 1093 : 			gEngfuncs.pTriAPI->RenderMode( pDraw->pType->m_iRenderMode );

	mov	eax, DWORD PTR _pDraw$27[ebp]
	mov	ecx, DWORD PTR [eax+8]
	mov	edx, DWORD PTR [ecx+4]
	push	edx
	mov	eax, DWORD PTR ?gEngfuncs@@3Ucl_enginefuncs_s@@A+328
	mov	ecx, DWORD PTR [eax+4]
	call	ecx
	add	esp, 4

; 1094 : 			Vector partColor; 

	lea	ecx, DWORD PTR _partColor$24[ebp]
	call	??0Vector@@QAE@XZ			; Vector::Vector

; 1095 : 			float partAlpha;
; 1096 : 
; 1097 : 			if( m_iLightingModel >= 1 )

	mov	eax, DWORD PTR _this$[ebp]
	cmp	DWORD PTR [eax+20], 1
	jl	$LN28@DrawPartic

; 1098 : 			{
; 1099 : 				Vector lightColor;

	lea	ecx, DWORD PTR _lightColor$22[ebp]
	call	??0Vector@@QAE@XZ			; Vector::Vector

; 1100 : 
; 1101 : 				gEngfuncs.pTriAPI->LightAtPoint( part->origin, (float *)&lightColor );

	lea	eax, DWORD PTR _lightColor$22[ebp]
	push	eax
	mov	ecx, DWORD PTR _part$[ebp]
	add	ecx, 12					; 0000000cH
	call	??BVector@@QAEPAMXZ			; Vector::operator float *
	push	eax
	mov	ecx, DWORD PTR ?gEngfuncs@@3Ucl_enginefuncs_s@@A+328
	mov	edx, DWORD PTR [ecx+68]
	call	edx
	add	esp, 8

; 1102 : 				lightColor *= (1.0f / 255.0f);

	push	ecx
	movss	xmm0, DWORD PTR __real@3b808081
	movss	DWORD PTR [esp], xmm0
	lea	ecx, DWORD PTR _lightColor$22[ebp]
	call	??XVector@@QAEAAV0@M@Z			; Vector::operator*=

; 1103 : 
; 1104 : 				if( m_iLightingModel == 1 ) // used single color for particle instead of perpixel projection

	mov	eax, DWORD PTR _this$[ebp]
	cmp	DWORD PTR [eax+20], 1
	jne	SHORT $LN30@DrawPartic

; 1105 : 					lightColor += R_LightsForPoint( part->origin, part->m_fSize + 1 );

	mov	eax, DWORD PTR _part$[ebp]
	movss	xmm0, DWORD PTR [eax+112]
	addss	xmm0, DWORD PTR __real@3f800000
	push	ecx
	movss	DWORD PTR [esp], xmm0
	mov	ecx, DWORD PTR _part$[ebp]
	add	ecx, 12					; 0000000cH
	push	ecx
	lea	edx, DWORD PTR $T3[ebp]
	push	edx
	call	?R_LightsForPoint@@YA?AVVector@@ABV1@M@Z ; R_LightsForPoint
	add	esp, 12					; 0000000cH
	push	eax
	lea	ecx, DWORD PTR _lightColor$22[ebp]
	call	??YVector@@QAEAAV0@ABV0@@Z		; Vector::operator+=
$LN30@DrawPartic:

; 1106 : 
; 1107 : 				// FIXME: this is not quite right but works
; 1108 : 				// We need a fake lightmap here like in sprite implementation
; 1109 : 				partColor.x = pDraw->m_fRed * lightColor.x;

	mov	eax, DWORD PTR _pDraw$27[ebp]
	movss	xmm0, DWORD PTR [eax+64]
	mulss	xmm0, DWORD PTR _lightColor$22[ebp]
	movss	DWORD PTR _partColor$24[ebp], xmm0

; 1110 : 				partColor.y = pDraw->m_fGreen * lightColor.y;

	mov	eax, DWORD PTR _pDraw$27[ebp]
	movss	xmm0, DWORD PTR [eax+68]
	mulss	xmm0, DWORD PTR _lightColor$22[ebp+4]
	movss	DWORD PTR _partColor$24[ebp+4], xmm0

; 1111 : 				partColor.z = pDraw->m_fBlue * lightColor.z;

	mov	eax, DWORD PTR _pDraw$27[ebp]
	movss	xmm0, DWORD PTR [eax+72]
	mulss	xmm0, DWORD PTR _lightColor$22[ebp+8]
	movss	DWORD PTR _partColor$24[ebp+8], xmm0

; 1112 : 				partAlpha = pDraw->m_fAlpha;

	mov	eax, DWORD PTR _pDraw$27[ebp]
	movss	xmm0, DWORD PTR [eax+88]
	movss	DWORD PTR _partAlpha$23[ebp], xmm0

; 1113 : 			}
; 1114 : 			else

	jmp	SHORT $LN29@DrawPartic
$LN28@DrawPartic:

; 1115 : 			{
; 1116 : 				partColor = Vector( pDraw->m_fRed, pDraw->m_fGreen, pDraw->m_fBlue );

	mov	eax, DWORD PTR _pDraw$27[ebp]
	push	ecx
	movss	xmm0, DWORD PTR [eax+72]
	movss	DWORD PTR [esp], xmm0
	mov	ecx, DWORD PTR _pDraw$27[ebp]
	push	ecx
	movss	xmm0, DWORD PTR [ecx+68]
	movss	DWORD PTR [esp], xmm0
	mov	edx, DWORD PTR _pDraw$27[ebp]
	push	ecx
	movss	xmm0, DWORD PTR [edx+64]
	movss	DWORD PTR [esp], xmm0
	lea	ecx, DWORD PTR $T2[ebp]
	call	??0Vector@@QAE@MMM@Z			; Vector::Vector
	mov	ecx, DWORD PTR [eax]
	mov	DWORD PTR _partColor$24[ebp], ecx
	mov	edx, DWORD PTR [eax+4]
	mov	DWORD PTR _partColor$24[ebp+4], edx
	mov	eax, DWORD PTR [eax+8]
	mov	DWORD PTR _partColor$24[ebp+8], eax

; 1117 : 				partAlpha = pDraw->m_fAlpha;

	mov	eax, DWORD PTR _pDraw$27[ebp]
	movss	xmm0, DWORD PTR [eax+88]
	movss	DWORD PTR _partAlpha$23[ebp], xmm0
$LN29@DrawPartic:

; 1118 : 			}
; 1119 : 
; 1120 : 			if( tr.fogEnabled )

	movzx	eax, BYTE PTR ?tr@@3Uref_globals_t@@A+5830892
	test	eax, eax
	je	$LN31@DrawPartic

; 1121 : 			{
; 1122 : 				// do software fog here
; 1123 : 				float depth = DotProduct( part->origin, RI->vforward ) - RI->viewplanedist;

	mov	eax, DWORD PTR ?RI@@3PAUref_instance_t@@A ; RI
	add	eax, 228				; 000000e4H
	push	eax
	mov	ecx, DWORD PTR _part$[ebp]
	add	ecx, 12					; 0000000cH
	push	ecx
	call	?DotProduct@@YAMABVVector@@0@Z		; DotProduct
	add	esp, 8
	fstp	DWORD PTR tv614[ebp]
	movss	xmm0, DWORD PTR tv614[ebp]
	mov	edx, DWORD PTR ?RI@@3PAUref_instance_t@@A ; RI
	subss	xmm0, DWORD PTR [edx+14008]
	movss	DWORD PTR _depth$21[ebp], xmm0

; 1124 : 				float fogFactor = pow( 2.0, -tr.fogDensity * depth );

	movss	xmm0, DWORD PTR ?tr@@3Uref_globals_t@@A+5830908
	xorps	xmm0, DWORD PTR __xmm@80000000800000008000000080000000
	mulss	xmm0, DWORD PTR _depth$21[ebp]
	cvtss2sd xmm0, xmm0
	sub	esp, 8
	movsd	QWORD PTR [esp], xmm0
	sub	esp, 8
	movsd	xmm0, QWORD PTR __real@4000000000000000
	movsd	QWORD PTR [esp], xmm0
	call	_pow
	add	esp, 16					; 00000010H
	fstp	DWORD PTR _fogFactor$20[ebp]

; 1125 : 				fogFactor = bound( 0.0f, fogFactor, 1.0f );

	movss	xmm0, DWORD PTR _fogFactor$20[ebp]
	comiss	xmm0, DWORD PTR __real@00000000
	jb	SHORT $LN35@DrawPartic
	movss	xmm0, DWORD PTR __real@3f800000
	comiss	xmm0, DWORD PTR _fogFactor$20[ebp]
	jbe	SHORT $LN33@DrawPartic
	movss	xmm0, DWORD PTR _fogFactor$20[ebp]
	movss	DWORD PTR tv361[ebp], xmm0
	jmp	SHORT $LN34@DrawPartic
$LN33@DrawPartic:
	movss	xmm0, DWORD PTR __real@3f800000
	movss	DWORD PTR tv361[ebp], xmm0
$LN34@DrawPartic:
	movss	xmm0, DWORD PTR tv361[ebp]
	movss	DWORD PTR tv362[ebp], xmm0
	jmp	SHORT $LN36@DrawPartic
$LN35@DrawPartic:
	xorps	xmm0, xmm0
	movss	DWORD PTR tv362[ebp], xmm0
$LN36@DrawPartic:
	movss	xmm0, DWORD PTR tv362[ebp]
	movss	DWORD PTR _fogFactor$20[ebp], xmm0

; 1126 : //				partColor = Lerp( fogFactor, tr.fogColor, partColor );
; 1127 : 				partAlpha = Lerp( fogFactor, 0.0f, partAlpha );

	xorps	xmm0, xmm0
	movss	DWORD PTR $T1[ebp], xmm0
	lea	eax, DWORD PTR _partAlpha$23[ebp]
	push	eax
	lea	ecx, DWORD PTR $T1[ebp]
	push	ecx
	push	ecx
	movss	xmm0, DWORD PTR _fogFactor$20[ebp]
	movss	DWORD PTR [esp], xmm0
	call	??$Lerp@M@@YAMMABM0@Z			; Lerp<float>
	add	esp, 12					; 0000000cH
	fstp	DWORD PTR _partAlpha$23[ebp]
$LN31@DrawPartic:

; 1128 : 			}
; 1129 : 			gEngfuncs.pTriAPI->Color4f( partColor.x, partColor.y, partColor.z, partAlpha );

	push	ecx
	movss	xmm0, DWORD PTR _partAlpha$23[ebp]
	movss	DWORD PTR [esp], xmm0
	push	ecx
	movss	xmm0, DWORD PTR _partColor$24[ebp+8]
	movss	DWORD PTR [esp], xmm0
	push	ecx
	movss	xmm0, DWORD PTR _partColor$24[ebp+4]
	movss	DWORD PTR [esp], xmm0
	push	ecx
	movss	xmm0, DWORD PTR _partColor$24[ebp]
	movss	DWORD PTR [esp], xmm0
	mov	eax, DWORD PTR ?gEngfuncs@@3Ucl_enginefuncs_s@@A+328
	mov	ecx, DWORD PTR [eax+16]
	call	ecx
	add	esp, 16					; 00000010H
$LN27@DrawPartic:

; 1130 : 		}
; 1131 : 
; 1132 : 		DrawQuad( point1, point2, point3, point4 );

	lea	eax, DWORD PTR _point4$[ebp]
	push	eax
	lea	ecx, DWORD PTR _point3$[ebp]
	push	ecx
	lea	edx, DWORD PTR _point2$[ebp]
	push	edx
	lea	eax, DWORD PTR _point1$[ebp]
	push	eax
	mov	ecx, DWORD PTR _this$[ebp]
	call	?DrawQuad@CParticleSystem@@QAEXABVVector@@000@Z ; CParticleSystem::DrawQuad

; 1133 : 	}

	jmp	$LN2@DrawPartic
$LN3@DrawPartic:
$LN1@DrawPartic:

; 1134 : }

	pop	edi
	pop	esi
	pop	ebx
	mov	esp, ebp
	pop	ebp
	ret	12					; 0000000cH
?DrawParticle@CParticleSystem@@QAEXPAUCParticle@@AAVVector@@1@Z ENDP ; CParticleSystem::DrawParticle
_TEXT	ENDS
; Function compile flags: /Odtp /ZI
; File d:\!diffusion 2020\source code 2022\client-server\client\render\r_particle.cpp
;	COMDAT ?UpdateParticle@CParticleSystem@@QAE_NPAUCParticle@@M@Z
_TEXT	SEGMENT
tv645 = -356						; size = 4
tv802 = -352						; size = 4
tv663 = -352						; size = 4
tv622 = -352						; size = 4
tv524 = -352						; size = 4
tv482 = -352						; size = 4
$T1 = -348						; size = 12
$T2 = -336						; size = 12
$T3 = -324						; size = 12
$T4 = -312						; size = 12
$T5 = -300						; size = 12
$T6 = -288						; size = 12
$T7 = -276						; size = 12
$T8 = -264						; size = 12
$T9 = -252						; size = 12
$T10 = -240						; size = 12
$T11 = -228						; size = 12
$T12 = -216						; size = 12
$T13 = -204						; size = 12
$T14 = -192						; size = 12
$T15 = -180						; size = 12
$T16 = -168						; size = 12
$T17 = -156						; size = 12
$T18 = -144						; size = 12
_vecSprayDir$19 = -68					; size = 12
_vecLocalAngles$20 = -56				; size = 12
_fSprayForce$21 = -44					; size = 4
_pChild$22 = -40					; size = 4
_newspeed$23 = -36					; size = 4
_bounceforce$24 = -32					; size = 4
_tr$25 = -28						; size = 4
_vecTarget$26 = -24					; size = 12
_flSpeed$27 = -12					; size = 4
_flSpeed$28 = -8					; size = 4
_this$ = -4						; size = 4
_part$ = 8						; size = 4
_frametime$ = 12					; size = 4
?UpdateParticle@CParticleSystem@@QAE_NPAUCParticle@@M@Z PROC ; CParticleSystem::UpdateParticle, COMDAT
; _this$ = ecx

; 897  : {

	push	ebp
	mov	ebp, esp
	sub	esp, 356				; 00000164H
	push	ebx
	push	esi
	push	edi
	mov	DWORD PTR _this$[ebp], ecx

; 898  : 	if( frametime == 0 )

	movss	xmm0, DWORD PTR _frametime$[ebp]
	ucomiss	xmm0, DWORD PTR __real@00000000
	lahf
	test	ah, 68					; 00000044H
	jp	SHORT $LN6@UpdatePart

; 899  : 		return true;

	mov	al, 1
	jmp	$LN1@UpdatePart
$LN6@UpdatePart:

; 900  : 
; 901  : 	part->age += frametime;

	mov	eax, DWORD PTR _part$[ebp]
	movss	xmm0, DWORD PTR [eax+124]
	addss	xmm0, DWORD PTR _frametime$[ebp]
	mov	ecx, DWORD PTR _part$[ebp]
	movss	DWORD PTR [ecx+124], xmm0

; 902  : 
; 903  : 	// is this particle bound to an entity?
; 904  : 	if( part->m_pEntity )

	mov	eax, DWORD PTR _part$[ebp]
	cmp	DWORD PTR [eax+60], 0
	je	$LN7@UpdatePart

; 905  : 	{
; 906  : 		if( enable )

	mov	eax, DWORD PTR _this$[ebp]
	movzx	ecx, BYTE PTR [eax+88]
	test	ecx, ecx
	je	$LN9@UpdatePart

; 907  : 		{
; 908  : 			if( m_iEntAttachment && m_pEntity->model->type == mod_studio )

	mov	eax, DWORD PTR _this$[ebp]
	cmp	DWORD PTR [eax+12], 0
	je	$LN11@UpdatePart
	mov	eax, DWORD PTR _this$[ebp]
	mov	ecx, DWORD PTR [eax+8]
	mov	edx, DWORD PTR [ecx+2964]
	cmp	DWORD PTR [edx+68], 3
	jne	$LN11@UpdatePart

; 909  : 			{
; 910  : 				float flSpeed = (R_StudioAttachmentOrigin( m_pEntity, m_iEntAttachment-1 ) - part->origin).Length() * frametime;

	mov	eax, DWORD PTR _part$[ebp]
	add	eax, 12					; 0000000cH
	push	eax
	lea	ecx, DWORD PTR $T17[ebp]
	push	ecx
	push	0
	mov	edx, DWORD PTR _this$[ebp]
	mov	eax, DWORD PTR [edx+12]
	sub	eax, 1
	push	eax
	mov	ecx, DWORD PTR _this$[ebp]
	mov	edx, DWORD PTR [ecx+8]
	push	edx
	lea	eax, DWORD PTR $T18[ebp]
	push	eax
	call	?R_StudioAttachmentOrigin@@YA?AVVector@@PBUcl_entity_s@@HH@Z ; R_StudioAttachmentOrigin
	add	esp, 16					; 00000010H
	mov	ecx, eax
	call	??GVector@@QBE?AV0@ABV0@@Z		; Vector::operator-
	mov	ecx, eax
	call	?Length@Vector@@QBEMXZ			; Vector::Length
	fstp	DWORD PTR tv482[ebp]
	movss	xmm0, DWORD PTR tv482[ebp]
	mulss	xmm0, DWORD PTR _frametime$[ebp]
	movss	DWORD PTR _flSpeed$28[ebp], xmm0

; 911  : 				part->velocity = entityMatrix.GetForward() * flSpeed;

	push	ecx
	movss	xmm0, DWORD PTR _flSpeed$28[ebp]
	movss	DWORD PTR [esp], xmm0
	lea	eax, DWORD PTR $T15[ebp]
	push	eax
	lea	ecx, DWORD PTR $T16[ebp]
	push	ecx
	mov	ecx, DWORD PTR _this$[ebp]
	add	ecx, 24					; 00000018H
	call	?GetForward@matrix3x3@@QBE?AVVector@@XZ	; matrix3x3::GetForward
	mov	ecx, eax
	call	??DVector@@QBE?AV0@M@Z			; Vector::operator*
	mov	edx, DWORD PTR _part$[ebp]
	add	edx, 24					; 00000018H
	mov	ecx, DWORD PTR [eax]
	mov	DWORD PTR [edx], ecx
	mov	ecx, DWORD PTR [eax+4]
	mov	DWORD PTR [edx+4], ecx
	mov	eax, DWORD PTR [eax+8]
	mov	DWORD PTR [edx+8], eax

; 912  : 				part->origin = R_StudioAttachmentOrigin( m_pEntity, m_iEntAttachment - 1 );

	push	0
	mov	eax, DWORD PTR _this$[ebp]
	mov	ecx, DWORD PTR [eax+12]
	sub	ecx, 1
	push	ecx
	mov	edx, DWORD PTR _this$[ebp]
	mov	eax, DWORD PTR [edx+8]
	push	eax
	lea	ecx, DWORD PTR $T14[ebp]
	push	ecx
	call	?R_StudioAttachmentOrigin@@YA?AVVector@@PBUcl_entity_s@@HH@Z ; R_StudioAttachmentOrigin
	add	esp, 16					; 00000010H
	mov	edx, DWORD PTR _part$[ebp]
	add	edx, 12					; 0000000cH
	mov	ecx, DWORD PTR [eax]
	mov	DWORD PTR [edx], ecx
	mov	ecx, DWORD PTR [eax+4]
	mov	DWORD PTR [edx+4], ecx
	mov	eax, DWORD PTR [eax+8]
	mov	DWORD PTR [edx+8], eax

; 913  : 			}
; 914  : 			else

	jmp	$LN12@UpdatePart
$LN11@UpdatePart:

; 915  : 			{
; 916  : 				float flSpeed = (m_pEntity->origin - part->origin).Length() * frametime;

	mov	eax, DWORD PTR _part$[ebp]
	add	eax, 12					; 0000000cH
	push	eax
	lea	ecx, DWORD PTR $T13[ebp]
	push	ecx
	mov	edx, DWORD PTR _this$[ebp]
	mov	ecx, DWORD PTR [edx+8]
	add	ecx, 2888				; 00000b48H
	call	??GVector@@QBE?AV0@ABV0@@Z		; Vector::operator-
	mov	ecx, eax
	call	?Length@Vector@@QBEMXZ			; Vector::Length
	fstp	DWORD PTR tv524[ebp]
	movss	xmm0, DWORD PTR tv524[ebp]
	mulss	xmm0, DWORD PTR _frametime$[ebp]
	movss	DWORD PTR _flSpeed$27[ebp], xmm0

; 917  : 				part->velocity = entityMatrix.GetForward() * flSpeed;

	push	ecx
	movss	xmm0, DWORD PTR _flSpeed$27[ebp]
	movss	DWORD PTR [esp], xmm0
	lea	eax, DWORD PTR $T11[ebp]
	push	eax
	lea	ecx, DWORD PTR $T12[ebp]
	push	ecx
	mov	ecx, DWORD PTR _this$[ebp]
	add	ecx, 24					; 00000018H
	call	?GetForward@matrix3x3@@QBE?AVVector@@XZ	; matrix3x3::GetForward
	mov	ecx, eax
	call	??DVector@@QBE?AV0@M@Z			; Vector::operator*
	mov	edx, DWORD PTR _part$[ebp]
	add	edx, 24					; 00000018H
	mov	ecx, DWORD PTR [eax]
	mov	DWORD PTR [edx], ecx
	mov	ecx, DWORD PTR [eax+4]
	mov	DWORD PTR [edx+4], ecx
	mov	eax, DWORD PTR [eax+8]
	mov	DWORD PTR [edx+8], eax

; 918  : 				part->origin = m_pEntity->origin;

	mov	eax, DWORD PTR _this$[ebp]
	mov	ecx, DWORD PTR [eax+8]
	add	ecx, 2888				; 00000b48H
	mov	edx, DWORD PTR _part$[ebp]
	add	edx, 12					; 0000000cH
	mov	eax, DWORD PTR [ecx]
	mov	DWORD PTR [edx], eax
	mov	eax, DWORD PTR [ecx+4]
	mov	DWORD PTR [edx+4], eax
	mov	ecx, DWORD PTR [ecx+8]
	mov	DWORD PTR [edx+8], ecx
$LN12@UpdatePart:

; 919  : 			}
; 920  : 		}
; 921  : 		else

	jmp	SHORT $LN10@UpdatePart
$LN9@UpdatePart:

; 922  : 		{
; 923  : 			// entity is switched off, die
; 924  : 			return false;

	xor	al, al
	jmp	$LN1@UpdatePart
$LN10@UpdatePart:

; 925  : 		}
; 926  : 	}
; 927  : 	else

	jmp	$LN16@UpdatePart
$LN7@UpdatePart:

; 928  : 	{
; 929  : 		// not tied to an entity, check whether it's time to die
; 930  : 		if( part->age_death >= 0.0f && part->age > part->age_death )

	mov	eax, DWORD PTR _part$[ebp]
	movss	xmm0, DWORD PTR [eax+128]
	comiss	xmm0, DWORD PTR __real@00000000
	jb	SHORT $LN13@UpdatePart
	mov	eax, DWORD PTR _part$[ebp]
	mov	ecx, DWORD PTR _part$[ebp]
	movss	xmm0, DWORD PTR [eax+124]
	comiss	xmm0, DWORD PTR [ecx+128]
	jbe	SHORT $LN13@UpdatePart

; 931  : 			return false;

	xor	al, al
	jmp	$LN1@UpdatePart
$LN13@UpdatePart:

; 932  : 
; 933  : 		// apply acceleration and velocity
; 934  : 		if( part->m_fDrag )

	mov	eax, DWORD PTR _part$[ebp]
	movss	xmm0, DWORD PTR [eax+120]
	ucomiss	xmm0, DWORD PTR __real@00000000
	lahf
	test	ah, 68					; 00000044H
	jnp	SHORT $LN14@UpdatePart

; 935  : 			part->velocity += (part->velocity - part->m_vecWind) * (-part->m_fDrag * frametime);

	mov	eax, DWORD PTR _part$[ebp]
	movss	xmm0, DWORD PTR [eax+120]
	xorps	xmm0, DWORD PTR __xmm@80000000800000008000000080000000
	mulss	xmm0, DWORD PTR _frametime$[ebp]
	push	ecx
	movss	DWORD PTR [esp], xmm0
	lea	ecx, DWORD PTR $T9[ebp]
	push	ecx
	mov	edx, DWORD PTR _part$[ebp]
	add	edx, 48					; 00000030H
	push	edx
	lea	eax, DWORD PTR $T10[ebp]
	push	eax
	mov	ecx, DWORD PTR _part$[ebp]
	add	ecx, 24					; 00000018H
	call	??GVector@@QBE?AV0@ABV0@@Z		; Vector::operator-
	mov	ecx, eax
	call	??DVector@@QBE?AV0@M@Z			; Vector::operator*
	push	eax
	mov	ecx, DWORD PTR _part$[ebp]
	add	ecx, 24					; 00000018H
	call	??YVector@@QAEAAV0@ABV0@@Z		; Vector::operator+=
$LN14@UpdatePart:

; 936  : 
; 937  : 		part->velocity += part->accel * frametime;

	push	ecx
	movss	xmm0, DWORD PTR _frametime$[ebp]
	movss	DWORD PTR [esp], xmm0
	lea	eax, DWORD PTR $T8[ebp]
	push	eax
	mov	ecx, DWORD PTR _part$[ebp]
	add	ecx, 36					; 00000024H
	call	??DVector@@QBE?AV0@M@Z			; Vector::operator*
	push	eax
	mov	ecx, DWORD PTR _part$[ebp]
	add	ecx, 24					; 00000018H
	call	??YVector@@QAEAAV0@ABV0@@Z		; Vector::operator+=

; 938  : 		part->origin += part->velocity * frametime;

	push	ecx
	movss	xmm0, DWORD PTR _frametime$[ebp]
	movss	DWORD PTR [esp], xmm0
	lea	eax, DWORD PTR $T7[ebp]
	push	eax
	mov	ecx, DWORD PTR _part$[ebp]
	add	ecx, 24					; 00000018H
	call	??DVector@@QBE?AV0@M@Z			; Vector::operator*
	push	eax
	mov	ecx, DWORD PTR _part$[ebp]
	add	ecx, 12					; 0000000cH
	call	??YVector@@QAEAAV0@ABV0@@Z		; Vector::operator+=

; 939  : 
; 940  : 		if( part->pType->m_bBouncing )

	mov	eax, DWORD PTR _part$[ebp]
	mov	ecx, DWORD PTR [eax+8]
	movzx	edx, BYTE PTR [ecx+36]
	test	edx, edx
	je	$LN16@UpdatePart

; 941  : 		{
; 942  : 			Vector vecTarget = part->origin + part->velocity * frametime;

	push	ecx
	movss	xmm0, DWORD PTR _frametime$[ebp]
	movss	DWORD PTR [esp], xmm0
	lea	eax, DWORD PTR $T6[ebp]
	push	eax
	mov	ecx, DWORD PTR _part$[ebp]
	add	ecx, 24					; 00000018H
	call	??DVector@@QBE?AV0@M@Z			; Vector::operator*
	push	eax
	lea	ecx, DWORD PTR _vecTarget$26[ebp]
	push	ecx
	mov	ecx, DWORD PTR _part$[ebp]
	add	ecx, 12					; 0000000cH
	call	??HVector@@QBE?AV0@ABV0@@Z		; Vector::operator+

; 943  : 			pmtrace_t *tr = gEngfuncs.PM_TraceLine( part->origin, vecTarget, PM_TRACELINE_PHYSENTSONLY, 2, -1 );

	push	-1
	push	2
	push	0
	lea	ecx, DWORD PTR _vecTarget$26[ebp]
	call	??BVector@@QAEPAMXZ			; Vector::operator float *
	push	eax
	mov	ecx, DWORD PTR _part$[ebp]
	add	ecx, 12					; 0000000cH
	call	??BVector@@QAEPAMXZ			; Vector::operator float *
	push	eax
	call	DWORD PTR ?gEngfuncs@@3Ucl_enginefuncs_s@@A+236
	add	esp, 20					; 00000014H
	mov	DWORD PTR _tr$25[ebp], eax

; 944  : 
; 945  : 			if( tr->fraction < 1.0f )

	mov	eax, DWORD PTR _tr$25[ebp]
	movss	xmm0, DWORD PTR __real@3f800000
	comiss	xmm0, DWORD PTR [eax+16]
	jbe	$LN16@UpdatePart

; 946  : 			{
; 947  : 				part->origin = tr->endpos;

	mov	eax, DWORD PTR _tr$25[ebp]
	add	eax, 20					; 00000014H
	mov	ecx, DWORD PTR _part$[ebp]
	add	ecx, 12					; 0000000cH
	mov	edx, DWORD PTR [eax]
	mov	DWORD PTR [ecx], edx
	mov	edx, DWORD PTR [eax+4]
	mov	DWORD PTR [ecx+4], edx
	mov	eax, DWORD PTR [eax+8]
	mov	DWORD PTR [ecx+8], eax

; 948  : 				float bounceforce = DotProduct( tr->plane.normal, part->velocity );

	mov	eax, DWORD PTR _part$[ebp]
	add	eax, 24					; 00000018H
	push	eax
	mov	ecx, DWORD PTR _tr$25[ebp]
	add	ecx, 32					; 00000020H
	push	ecx
	call	?DotProduct@@YAMABVVector@@0@Z		; DotProduct
	add	esp, 8
	fstp	DWORD PTR _bounceforce$24[ebp]

; 949  : 				float newspeed = (1.0f - part->pType->m_BounceFriction.GetInstance( ));

	mov	eax, DWORD PTR _part$[ebp]
	mov	ecx, DWORD PTR [eax+8]
	add	ecx, 24					; 00000018H
	call	?GetInstance@RandomRange@@QAEMXZ	; RandomRange::GetInstance
	fstp	DWORD PTR tv622[ebp]
	movss	xmm0, DWORD PTR __real@3f800000
	subss	xmm0, DWORD PTR tv622[ebp]
	movss	DWORD PTR _newspeed$23[ebp], xmm0

; 950  : 				part->velocity = part->velocity * newspeed;

	push	ecx
	movss	xmm0, DWORD PTR _newspeed$23[ebp]
	movss	DWORD PTR [esp], xmm0
	lea	eax, DWORD PTR $T5[ebp]
	push	eax
	mov	ecx, DWORD PTR _part$[ebp]
	add	ecx, 24					; 00000018H
	call	??DVector@@QBE?AV0@M@Z			; Vector::operator*
	mov	ecx, DWORD PTR _part$[ebp]
	add	ecx, 24					; 00000018H
	mov	edx, DWORD PTR [eax]
	mov	DWORD PTR [ecx], edx
	mov	edx, DWORD PTR [eax+4]
	mov	DWORD PTR [ecx+4], edx
	mov	eax, DWORD PTR [eax+8]
	mov	DWORD PTR [ecx+8], eax

; 951  : 				part->velocity += tr->plane.normal * (-bounceforce * (newspeed + part->pType->m_Bounce.GetInstance()));

	movss	xmm0, DWORD PTR _bounceforce$24[ebp]
	xorps	xmm0, DWORD PTR __xmm@80000000800000008000000080000000
	mov	eax, DWORD PTR _part$[ebp]
	mov	ecx, DWORD PTR [eax+8]
	add	ecx, 12					; 0000000cH
	movss	DWORD PTR tv802[ebp], xmm0
	call	?GetInstance@RandomRange@@QAEMXZ	; RandomRange::GetInstance
	fstp	DWORD PTR tv645[ebp]
	movss	xmm0, DWORD PTR tv645[ebp]
	addss	xmm0, DWORD PTR _newspeed$23[ebp]
	movss	xmm1, DWORD PTR tv802[ebp]
	mulss	xmm1, xmm0
	push	ecx
	movss	DWORD PTR [esp], xmm1
	lea	ecx, DWORD PTR $T4[ebp]
	push	ecx
	mov	ecx, DWORD PTR _tr$25[ebp]
	add	ecx, 32					; 00000020H
	call	??DVector@@QBE?AV0@M@Z			; Vector::operator*
	push	eax
	mov	ecx, DWORD PTR _part$[ebp]
	add	ecx, 24					; 00000018H
	call	??YVector@@QAEAAV0@ABV0@@Z		; Vector::operator+=
$LN16@UpdatePart:

; 952  : 			}
; 953  : 		}
; 954  : 	}
; 955  : 
; 956  : 	// spray children
; 957  : 	if( part->age_spray && part->age > part->age_spray )

	mov	eax, DWORD PTR _part$[ebp]
	movss	xmm0, DWORD PTR [eax+132]
	ucomiss	xmm0, DWORD PTR __real@00000000
	lahf
	test	ah, 68					; 00000044H
	jnp	$LN20@UpdatePart
	mov	eax, DWORD PTR _part$[ebp]
	mov	ecx, DWORD PTR _part$[ebp]
	movss	xmm0, DWORD PTR [eax+124]
	comiss	xmm0, DWORD PTR [ecx+132]
	jbe	$LN20@UpdatePart

; 958  : 	{
; 959  : 		part->age_spray = part->age + 1.0f / part->pType->m_SprayRate.GetInstance();

	mov	eax, DWORD PTR _part$[ebp]
	mov	ecx, DWORD PTR [eax+8]
	add	ecx, 248				; 000000f8H
	call	?GetInstance@RandomRange@@QAEMXZ	; RandomRange::GetInstance
	fstp	DWORD PTR tv663[ebp]
	movss	xmm0, DWORD PTR __real@3f800000
	divss	xmm0, DWORD PTR tv663[ebp]
	mov	ecx, DWORD PTR _part$[ebp]
	addss	xmm0, DWORD PTR [ecx+124]
	mov	edx, DWORD PTR _part$[ebp]
	movss	DWORD PTR [edx+132], xmm0

; 960  : 
; 961  : 		if( part->pType->m_pSprayType )

	mov	eax, DWORD PTR _part$[ebp]
	mov	ecx, DWORD PTR [eax+8]
	cmp	DWORD PTR [ecx+308], 0
	je	$LN20@UpdatePart

; 962  : 		{
; 963  : 			CParticle *pChild = part->pType->m_pSprayType->CreateParticle( this );

	mov	eax, DWORD PTR _this$[ebp]
	push	eax
	mov	ecx, DWORD PTR _part$[ebp]
	mov	edx, DWORD PTR [ecx+8]
	mov	ecx, DWORD PTR [edx+308]
	call	?CreateParticle@CParticleType@@QAEPAUCParticle@@PAVCParticleSystem@@@Z ; CParticleType::CreateParticle
	mov	DWORD PTR _pChild$22[ebp], eax

; 964  : 
; 965  : 			if( pChild )

	cmp	DWORD PTR _pChild$22[ebp], 0
	je	$LN20@UpdatePart

; 966  : 			{
; 967  : 				pChild->origin = part->origin;

	mov	eax, DWORD PTR _part$[ebp]
	add	eax, 12					; 0000000cH
	mov	ecx, DWORD PTR _pChild$22[ebp]
	add	ecx, 12					; 0000000cH
	mov	edx, DWORD PTR [eax]
	mov	DWORD PTR [ecx], edx
	mov	edx, DWORD PTR [eax+4]
	mov	DWORD PTR [ecx+4], edx
	mov	eax, DWORD PTR [eax+8]
	mov	DWORD PTR [ecx+8], eax

; 968  : 				pChild->velocity = part->velocity;

	mov	eax, DWORD PTR _part$[ebp]
	add	eax, 24					; 00000018H
	mov	ecx, DWORD PTR _pChild$22[ebp]
	add	ecx, 24					; 00000018H
	mov	edx, DWORD PTR [eax]
	mov	DWORD PTR [ecx], edx
	mov	edx, DWORD PTR [eax+4]
	mov	DWORD PTR [ecx+4], edx
	mov	eax, DWORD PTR [eax+8]
	mov	DWORD PTR [ecx+8], eax

; 969  : 				float fSprayForce = part->pType->m_SprayForce.GetInstance();

	mov	eax, DWORD PTR _part$[ebp]
	mov	ecx, DWORD PTR [eax+8]
	add	ecx, 260				; 00000104H
	call	?GetInstance@RandomRange@@QAEMXZ	; RandomRange::GetInstance
	fstp	DWORD PTR _fSprayForce$21[ebp]

; 970  : 
; 971  : 				if( fSprayForce )

	movss	xmm0, DWORD PTR _fSprayForce$21[ebp]
	ucomiss	xmm0, DWORD PTR __real@00000000
	lahf
	test	ah, 68					; 00000044H
	jnp	$LN20@UpdatePart

; 972  : 				{
; 973  : 					Vector vecLocalAngles, vecSprayDir;

	lea	ecx, DWORD PTR _vecLocalAngles$20[ebp]
	call	??0Vector@@QAE@XZ			; Vector::Vector
	lea	ecx, DWORD PTR _vecSprayDir$19[ebp]
	call	??0Vector@@QAE@XZ			; Vector::Vector

; 974  : 					vecLocalAngles.x = part->pType->m_SprayPitch.GetInstance();

	mov	eax, DWORD PTR _part$[ebp]
	mov	ecx, DWORD PTR [eax+8]
	add	ecx, 272				; 00000110H
	call	?GetInstance@RandomRange@@QAEMXZ	; RandomRange::GetInstance
	fstp	DWORD PTR _vecLocalAngles$20[ebp]

; 975  : 					vecLocalAngles.y = part->pType->m_SprayYaw.GetInstance();

	mov	eax, DWORD PTR _part$[ebp]
	mov	ecx, DWORD PTR [eax+8]
	add	ecx, 284				; 0000011cH
	call	?GetInstance@RandomRange@@QAEMXZ	; RandomRange::GetInstance
	fstp	DWORD PTR _vecLocalAngles$20[ebp+4]

; 976  : 					vecLocalAngles.z = 0.0f;

	xorps	xmm0, xmm0
	movss	DWORD PTR _vecLocalAngles$20[ebp+8], xmm0

; 977  : 
; 978  : 					// setup particle local direction
; 979  : 					if( vecLocalAngles != g_vecZero )

	push	OFFSET ?g_vecZero@@3VVector@@B		; g_vecZero
	lea	ecx, DWORD PTR _vecLocalAngles$20[ebp]
	call	??9Vector@@QBEHABV0@@Z			; Vector::operator!=
	test	eax, eax
	je	SHORT $LN21@UpdatePart

; 980  : 						AngleVectors( vecLocalAngles, vecSprayDir, NULL, NULL );

	push	0
	push	0
	lea	ecx, DWORD PTR _vecSprayDir$19[ebp]
	call	??BVector@@QAEPAMXZ			; Vector::operator float *
	push	eax
	lea	ecx, DWORD PTR _vecLocalAngles$20[ebp]
	call	??BVector@@QAEPAMXZ			; Vector::operator float *
	push	eax
	call	DWORD PTR ?gEngfuncs@@3Ucl_enginefuncs_s@@A+96
	add	esp, 16					; 00000010H
	jmp	SHORT $LN22@UpdatePart
$LN21@UpdatePart:

; 981  : 					else vecSprayDir = Vector( 1, 0, 0 ); // fast case

	push	ecx
	xorps	xmm0, xmm0
	movss	DWORD PTR [esp], xmm0
	push	ecx
	xorps	xmm0, xmm0
	movss	DWORD PTR [esp], xmm0
	push	ecx
	movss	xmm0, DWORD PTR __real@3f800000
	movss	DWORD PTR [esp], xmm0
	lea	ecx, DWORD PTR $T3[ebp]
	call	??0Vector@@QAE@MMM@Z			; Vector::Vector
	mov	ecx, DWORD PTR [eax]
	mov	DWORD PTR _vecSprayDir$19[ebp], ecx
	mov	edx, DWORD PTR [eax+4]
	mov	DWORD PTR _vecSprayDir$19[ebp+4], edx
	mov	eax, DWORD PTR [eax+8]
	mov	DWORD PTR _vecSprayDir$19[ebp+8], eax
$LN22@UpdatePart:

; 982  : 					pChild->velocity += entityMatrix.VectorRotate( vecSprayDir ) * fSprayForce;

	push	ecx
	movss	xmm0, DWORD PTR _fSprayForce$21[ebp]
	movss	DWORD PTR [esp], xmm0
	lea	eax, DWORD PTR $T1[ebp]
	push	eax
	lea	ecx, DWORD PTR _vecSprayDir$19[ebp]
	push	ecx
	lea	edx, DWORD PTR $T2[ebp]
	push	edx
	mov	ecx, DWORD PTR _this$[ebp]
	add	ecx, 24					; 00000018H
	call	?VectorRotate@matrix3x3@@QBE?AVVector@@ABV2@@Z ; matrix3x3::VectorRotate
	mov	ecx, eax
	call	??DVector@@QBE?AV0@M@Z			; Vector::operator*
	push	eax
	mov	ecx, DWORD PTR _pChild$22[ebp]
	add	ecx, 24					; 00000018H
	call	??YVector@@QAEAAV0@ABV0@@Z		; Vector::operator+=
$LN20@UpdatePart:

; 983  : 				}
; 984  : 			}
; 985  : 		}
; 986  : 	}
; 987  : 
; 988  : 	part->m_fSize += part->m_fSizeStep * frametime;

	mov	eax, DWORD PTR _part$[ebp]
	movss	xmm0, DWORD PTR [eax+116]
	mulss	xmm0, DWORD PTR _frametime$[ebp]
	mov	ecx, DWORD PTR _part$[ebp]
	addss	xmm0, DWORD PTR [ecx+112]
	mov	edx, DWORD PTR _part$[ebp]
	movss	DWORD PTR [edx+112], xmm0

; 989  : 	part->m_fAlpha += part->m_fAlphaStep * frametime;

	mov	eax, DWORD PTR _part$[ebp]
	movss	xmm0, DWORD PTR [eax+92]
	mulss	xmm0, DWORD PTR _frametime$[ebp]
	mov	ecx, DWORD PTR _part$[ebp]
	addss	xmm0, DWORD PTR [ecx+88]
	mov	edx, DWORD PTR _part$[ebp]
	movss	DWORD PTR [edx+88], xmm0

; 990  : 	part->m_fRed += part->m_fRedStep * frametime;

	mov	eax, DWORD PTR _part$[ebp]
	movss	xmm0, DWORD PTR [eax+76]
	mulss	xmm0, DWORD PTR _frametime$[ebp]
	mov	ecx, DWORD PTR _part$[ebp]
	addss	xmm0, DWORD PTR [ecx+64]
	mov	edx, DWORD PTR _part$[ebp]
	movss	DWORD PTR [edx+64], xmm0

; 991  : 	part->m_fGreen += part->m_fGreenStep * frametime;

	mov	eax, DWORD PTR _part$[ebp]
	movss	xmm0, DWORD PTR [eax+80]
	mulss	xmm0, DWORD PTR _frametime$[ebp]
	mov	ecx, DWORD PTR _part$[ebp]
	addss	xmm0, DWORD PTR [ecx+68]
	mov	edx, DWORD PTR _part$[ebp]
	movss	DWORD PTR [edx+68], xmm0

; 992  : 	part->m_fBlue += part->m_fBlueStep * frametime;

	mov	eax, DWORD PTR _part$[ebp]
	movss	xmm0, DWORD PTR [eax+84]
	mulss	xmm0, DWORD PTR _frametime$[ebp]
	mov	ecx, DWORD PTR _part$[ebp]
	addss	xmm0, DWORD PTR [ecx+72]
	mov	edx, DWORD PTR _part$[ebp]
	movss	DWORD PTR [edx+72], xmm0

; 993  : 	part->frame += part->m_fFrameStep * frametime;

	mov	eax, DWORD PTR _part$[ebp]
	movss	xmm0, DWORD PTR [eax+100]
	mulss	xmm0, DWORD PTR _frametime$[ebp]
	mov	ecx, DWORD PTR _part$[ebp]
	addss	xmm0, DWORD PTR [ecx+96]
	mov	edx, DWORD PTR _part$[ebp]
	movss	DWORD PTR [edx+96], xmm0

; 994  : 
; 995  : 	if( !part->m_pEntity && ( part->m_fSize <= 0.0f || part->m_fAlpha <= 0.0f ))

	mov	eax, DWORD PTR _part$[ebp]
	cmp	DWORD PTR [eax+60], 0
	jne	SHORT $LN23@UpdatePart
	mov	eax, DWORD PTR _part$[ebp]
	xorps	xmm0, xmm0
	comiss	xmm0, DWORD PTR [eax+112]
	jae	SHORT $LN24@UpdatePart
	mov	eax, DWORD PTR _part$[ebp]
	xorps	xmm0, xmm0
	comiss	xmm0, DWORD PTR [eax+88]
	jb	SHORT $LN23@UpdatePart
$LN24@UpdatePart:

; 996  : 		return false;

	xor	al, al
	jmp	$LN1@UpdatePart
$LN23@UpdatePart:

; 997  : 
; 998  : 	if( part->m_fAngleStep )

	mov	eax, DWORD PTR _part$[ebp]
	movss	xmm0, DWORD PTR [eax+108]
	ucomiss	xmm0, DWORD PTR __real@00000000
	lahf
	test	ah, 68					; 00000044H
	jnp	SHORT $LN5@UpdatePart

; 999  : 	{
; 1000 : 		part->m_fAngle += part->m_fAngleStep * frametime;

	mov	eax, DWORD PTR _part$[ebp]
	movss	xmm0, DWORD PTR [eax+108]
	mulss	xmm0, DWORD PTR _frametime$[ebp]
	mov	ecx, DWORD PTR _part$[ebp]
	addss	xmm0, DWORD PTR [ecx+104]
	mov	edx, DWORD PTR _part$[ebp]
	movss	DWORD PTR [edx+104], xmm0
$LN2@UpdatePart:

; 1001 : 		while( part->m_fAngle < 0 ) part->m_fAngle += 360;

	mov	eax, DWORD PTR _part$[ebp]
	xorps	xmm0, xmm0
	comiss	xmm0, DWORD PTR [eax+104]
	jbe	SHORT $LN3@UpdatePart
	mov	eax, DWORD PTR _part$[ebp]
	movss	xmm0, DWORD PTR [eax+104]
	addss	xmm0, DWORD PTR __real@43b40000
	mov	ecx, DWORD PTR _part$[ebp]
	movss	DWORD PTR [ecx+104], xmm0
	jmp	SHORT $LN2@UpdatePart
$LN3@UpdatePart:

; 1002 : 		while( part->m_fAngle > 360 ) part->m_fAngle -= 360;

	mov	eax, DWORD PTR _part$[ebp]
	movss	xmm0, DWORD PTR [eax+104]
	comiss	xmm0, DWORD PTR __real@43b40000
	jbe	SHORT $LN5@UpdatePart
	mov	eax, DWORD PTR _part$[ebp]
	movss	xmm0, DWORD PTR [eax+104]
	subss	xmm0, DWORD PTR __real@43b40000
	mov	ecx, DWORD PTR _part$[ebp]
	movss	DWORD PTR [ecx+104], xmm0
	jmp	SHORT $LN3@UpdatePart
$LN5@UpdatePart:

; 1003 : 	}
; 1004 : 
; 1005 : //	Vector point = (part->origin + part->velocity.Normalize() * part->m_fSize);
; 1006 : 	if( tr.frametime != 0.0 ) AddPointToBounds( part->origin, m_vecAbsMin, m_vecAbsMax );

	movsd	xmm0, QWORD PTR ?tr@@3Uref_globals_t@@A+24
	ucomisd	xmm0, QWORD PTR __real@0000000000000000
	lahf
	test	ah, 68					; 00000044H
	jnp	SHORT $LN26@UpdatePart
	push	ecx
	xorps	xmm0, xmm0
	movss	DWORD PTR [esp], xmm0
	mov	eax, DWORD PTR _this$[ebp]
	add	eax, 76					; 0000004cH
	push	eax
	mov	ecx, DWORD PTR _this$[ebp]
	add	ecx, 64					; 00000040H
	push	ecx
	mov	edx, DWORD PTR _part$[ebp]
	add	edx, 12					; 0000000cH
	push	edx
	call	?AddPointToBounds@@YAXABVVector@@AAV1@1M@Z ; AddPointToBounds
	add	esp, 16					; 00000010H
$LN26@UpdatePart:

; 1007 : 
; 1008 : 	return true;

	mov	al, 1
$LN1@UpdatePart:

; 1009 : }

	pop	edi
	pop	esi
	pop	ebx
	mov	esp, ebp
	pop	ebp
	ret	8
?UpdateParticle@CParticleSystem@@QAE_NPAUCParticle@@M@Z ENDP ; CParticleSystem::UpdateParticle
_TEXT	ENDS
; Function compile flags: /Odtp /ZI
; File d:\!diffusion 2020\source code 2022\client-server\client\render\r_particle.cpp
;	COMDAT ?ActivateParticle@CParticleSystem@@QAEPAUCParticle@@XZ
_TEXT	SEGMENT
_pActivated$ = -8					; size = 4
_this$ = -4						; size = 4
?ActivateParticle@CParticleSystem@@QAEPAUCParticle@@XZ PROC ; CParticleSystem::ActivateParticle, COMDAT
; _this$ = ecx

; 702  : {

	push	ebp
	mov	ebp, esp
	sub	esp, 72					; 00000048H
	push	ebx
	push	esi
	push	edi
	mov	DWORD PTR _this$[ebp], ecx

; 703  : 	CParticle	*pActivated = m_pFreeParticle;

	mov	eax, DWORD PTR _this$[ebp]
	mov	ecx, DWORD PTR [eax+96]
	mov	DWORD PTR _pActivated$[ebp], ecx

; 704  : 
; 705  : 	if( pActivated )

	cmp	DWORD PTR _pActivated$[ebp], 0
	je	SHORT $LN2@ActivatePa

; 706  : 	{
; 707  : 		m_pFreeParticle = pActivated->nextpart;

	mov	eax, DWORD PTR _this$[ebp]
	mov	ecx, DWORD PTR _pActivated$[ebp]
	mov	edx, DWORD PTR [ecx]
	mov	DWORD PTR [eax+96], edx

; 708  : 		pActivated->nextpart = m_pActiveParticle;

	mov	eax, DWORD PTR _pActivated$[ebp]
	mov	ecx, DWORD PTR _this$[ebp]
	mov	edx, DWORD PTR [ecx+4]
	mov	DWORD PTR [eax], edx

; 709  : 		m_pActiveParticle = pActivated;

	mov	eax, DWORD PTR _this$[ebp]
	mov	ecx, DWORD PTR _pActivated$[ebp]
	mov	DWORD PTR [eax+4], ecx
$LN2@ActivatePa:

; 710  : 	}
; 711  : 
; 712  : 	return pActivated;

	mov	eax, DWORD PTR _pActivated$[ebp]

; 713  : }

	pop	edi
	pop	esi
	pop	ebx
	mov	esp, ebp
	pop	ebp
	ret	0
?ActivateParticle@CParticleSystem@@QAEPAUCParticle@@XZ ENDP ; CParticleSystem::ActivateParticle
_TEXT	ENDS
; Function compile flags: /Odtp /ZI
; File d:\!diffusion 2020\source code 2022\client-server\client\render\r_particle.cpp
;	COMDAT ?DrawSystem@CParticleSystem@@QAEXXZ
_TEXT	SEGMENT
_pl$1 = -16						; size = 4
_i$2 = -12						; size = 4
_pParticle$ = -8					; size = 4
_this$ = -4						; size = 4
?DrawSystem@CParticleSystem@@QAEXXZ PROC		; CParticleSystem::DrawSystem, COMDAT
; _this$ = ecx

; 844  : {

	push	ebp
	mov	ebp, esp
	sub	esp, 80					; 00000050H
	push	ebx
	push	esi
	push	edi
	mov	DWORD PTR _this$[ebp], ecx

; 845  : 	CParticle *pParticle = m_pActiveParticle;

	mov	eax, DWORD PTR _this$[ebp]
	mov	ecx, DWORD PTR [eax+4]
	mov	DWORD PTR _pParticle$[ebp], ecx

; 846  : 
; 847  : 	if( m_pEntity != NULL )

	mov	eax, DWORD PTR _this$[ebp]
	cmp	DWORD PTR [eax+8], 0
	je	SHORT $LN12@DrawSystem

; 848  : 	{
; 849  : 		// don't draw if the system is outside the player's PVS.
; 850  : 		if( m_pEntity->curstate.messagenum != r_currentMessageNum )

	mov	eax, DWORD PTR _this$[ebp]
	mov	ecx, DWORD PTR [eax+8]
	mov	edx, DWORD PTR [ecx+700]
	cmp	edx, DWORD PTR ?r_currentMessageNum@@3HA ; r_currentMessageNum
	je	SHORT $LN12@DrawSystem

; 851  : 			return;

	jmp	$LN1@DrawSystem
$LN12@DrawSystem:

; 852  : 	}
; 853  : 
; 854  : 	for( pParticle = m_pActiveParticle; pParticle; pParticle = pParticle->nextpart )

	mov	eax, DWORD PTR _this$[ebp]
	mov	ecx, DWORD PTR [eax+4]
	mov	DWORD PTR _pParticle$[ebp], ecx
	jmp	SHORT $LN4@DrawSystem
$LN2@DrawSystem:
	mov	eax, DWORD PTR _pParticle$[ebp]
	mov	ecx, DWORD PTR [eax]
	mov	DWORD PTR _pParticle$[ebp], ecx
$LN4@DrawSystem:
	cmp	DWORD PTR _pParticle$[ebp], 0
	je	SHORT $LN3@DrawSystem

; 855  : 	{
; 856  : 		DrawParticle( pParticle, RI->vright, RI->vup );

	mov	eax, DWORD PTR ?RI@@3PAUref_instance_t@@A ; RI
	add	eax, 252				; 000000fcH
	push	eax
	mov	ecx, DWORD PTR ?RI@@3PAUref_instance_t@@A ; RI
	add	ecx, 240				; 000000f0H
	push	ecx
	mov	edx, DWORD PTR _pParticle$[ebp]
	push	edx
	mov	ecx, DWORD PTR _this$[ebp]
	call	?DrawParticle@CParticleSystem@@QAEXPAUCParticle@@AAVVector@@1@Z ; CParticleSystem::DrawParticle

; 857  : 	}

	jmp	SHORT $LN2@DrawSystem
$LN3@DrawSystem:

; 858  : 
; 859  : 	if( m_iLightingModel >= 2 && R_CountPlights( ))

	mov	eax, DWORD PTR _this$[ebp]
	cmp	DWORD PTR [eax+20], 2
	jl	$LN6@DrawSystem
	push	0
	call	?R_CountPlights@@YAH_N@Z		; R_CountPlights
	add	esp, 4
	test	eax, eax
	je	$LN6@DrawSystem

; 860  : 	{
; 861  : 		for( int i = 0; i < MAX_PLIGHTS; i++ )

	mov	DWORD PTR _i$2[ebp], 0
	jmp	SHORT $LN7@DrawSystem
$LN5@DrawSystem:
	mov	eax, DWORD PTR _i$2[ebp]
	add	eax, 1
	mov	DWORD PTR _i$2[ebp], eax
$LN7@DrawSystem:
	cmp	DWORD PTR _i$2[ebp], 96			; 00000060H
	jge	$LN6@DrawSystem

; 862  : 		{
; 863  : 			plight_t *pl = &cl_plights[i];

	imul	eax, DWORD PTR _i$2[ebp], 768
	add	eax, OFFSET ?cl_plights@@3PAUplight_s@@A ; cl_plights
	mov	DWORD PTR _pl$1[ebp], eax

; 864  : 
; 865  : 			if( pl->die < tr.time || !pl->radius || pl->culled )

	mov	eax, DWORD PTR _pl$1[ebp]
	cvtss2sd xmm0, DWORD PTR [eax+32]
	movsd	xmm1, QWORD PTR ?tr@@3Uref_globals_t@@A+8
	comisd	xmm1, xmm0
	ja	SHORT $LN15@DrawSystem
	mov	eax, DWORD PTR _pl$1[ebp]
	movss	xmm0, DWORD PTR [eax+24]
	ucomiss	xmm0, DWORD PTR __real@00000000
	lahf
	test	ah, 68					; 00000044H
	jnp	SHORT $LN15@DrawSystem
	mov	eax, DWORD PTR _pl$1[ebp]
	movzx	ecx, BYTE PTR [eax+46]
	test	ecx, ecx
	je	SHORT $LN14@DrawSystem
$LN15@DrawSystem:

; 866  : 				continue;

	jmp	SHORT $LN5@DrawSystem
$LN14@DrawSystem:

; 867  : 
; 868  : 			if( !R_BeginDrawProjectionGLSL( pl ))

	push	ecx
	movss	xmm0, DWORD PTR __real@3f800000
	movss	DWORD PTR [esp], xmm0
	mov	eax, DWORD PTR _pl$1[ebp]
	push	eax
	call	?R_BeginDrawProjectionGLSL@@YA_NPAUplight_s@@M@Z ; R_BeginDrawProjectionGLSL
	add	esp, 8
	movzx	ecx, al
	test	ecx, ecx
	jne	SHORT $LN16@DrawSystem

; 869  : 				continue;

	jmp	SHORT $LN5@DrawSystem
$LN16@DrawSystem:

; 870  : 
; 871  : 			for( pParticle = m_pActiveParticle; pParticle; pParticle = pParticle->nextpart )

	mov	eax, DWORD PTR _this$[ebp]
	mov	ecx, DWORD PTR [eax+4]
	mov	DWORD PTR _pParticle$[ebp], ecx
	jmp	SHORT $LN10@DrawSystem
$LN8@DrawSystem:
	mov	eax, DWORD PTR _pParticle$[ebp]
	mov	ecx, DWORD PTR [eax]
	mov	DWORD PTR _pParticle$[ebp], ecx
$LN10@DrawSystem:
	cmp	DWORD PTR _pParticle$[ebp], 0
	je	SHORT $LN9@DrawSystem

; 872  : 			{
; 873  : 				DrawParticle( pParticle, RI->vright, RI->vup );

	mov	eax, DWORD PTR ?RI@@3PAUref_instance_t@@A ; RI
	add	eax, 252				; 000000fcH
	push	eax
	mov	ecx, DWORD PTR ?RI@@3PAUref_instance_t@@A ; RI
	add	ecx, 240				; 000000f0H
	push	ecx
	mov	edx, DWORD PTR _pParticle$[ebp]
	push	edx
	mov	ecx, DWORD PTR _this$[ebp]
	call	?DrawParticle@CParticleSystem@@QAEXPAUCParticle@@AAVVector@@1@Z ; CParticleSystem::DrawParticle

; 874  : 			}

	jmp	SHORT $LN8@DrawSystem
$LN9@DrawSystem:

; 875  : 
; 876  : 			R_EndDrawProjectionGLSL();

	call	?R_EndDrawProjectionGLSL@@YAXXZ		; R_EndDrawProjectionGLSL

; 877  : 		}

	jmp	$LN5@DrawSystem
$LN6@DrawSystem:
$LN1@DrawSystem:

; 878  : 	}
; 879  : }

	pop	edi
	pop	esi
	pop	ebx
	mov	esp, ebp
	pop	ebp
	ret	0
?DrawSystem@CParticleSystem@@QAEXXZ ENDP		; CParticleSystem::DrawSystem
_TEXT	ENDS
; Function compile flags: /Odtp /ZI
; File d:\!diffusion 2020\source code 2022\client-server\client\render\r_particle.cpp
;	COMDAT ?UpdateSystem@CParticleSystem@@QAE?AW4AURSTATE@@M@Z
_TEXT	SEGMENT
tv87 = -157						; size = 1
tv81 = -157						; size = 1
$T1 = -156						; size = 12
$T2 = -144						; size = 36
$T3 = -108						; size = 12
_pLast$ = -32						; size = 4
_pParticle$ = -28					; size = 4
_pType$4 = -24						; size = 4
_angles$5 = -20						; size = 12
_this$ = -8						; size = 4
__$ArrayPad$ = -4					; size = 4
_frametime$ = 8						; size = 4
?UpdateSystem@CParticleSystem@@QAE?AW4AURSTATE@@M@Z PROC ; CParticleSystem::UpdateSystem, COMDAT
; _this$ = ecx

; 728  : {

	push	ebp
	mov	ebp, esp
	sub	esp, 160				; 000000a0H
	mov	eax, DWORD PTR ___security_cookie
	xor	eax, ebp
	mov	DWORD PTR __$ArrayPad$[ebp], eax
	push	ebx
	push	esi
	push	edi
	mov	DWORD PTR _this$[ebp], ecx

; 729  : 	if( m_pEntity != NULL )

	mov	eax, DWORD PTR _this$[ebp]
	cmp	DWORD PTR [eax+8], 0
	je	$LN4@UpdateSyst

; 730  : 	{
; 731  : 		// don't update if the system is outside the player's PVS.
; 732  : 		if( m_pEntity->curstate.messagenum != r_currentMessageNum )

	mov	eax, DWORD PTR _this$[ebp]
	mov	ecx, DWORD PTR [eax+8]
	mov	edx, DWORD PTR [ecx+700]
	cmp	edx, DWORD PTR ?r_currentMessageNum@@3HA ; r_currentMessageNum
	je	SHORT $LN7@UpdateSyst

; 733  : 		{
; 734  : 			// but always update rocket particles
; 735  : 			if( !FBitSet( m_pEntity->curstate.effects, EF_NUKE_ROCKET ))

	mov	eax, DWORD PTR _this$[ebp]
	mov	ecx, DWORD PTR [eax+8]
	mov	edx, DWORD PTR [ecx+748]
	and	edx, 4096				; 00001000H
	jne	SHORT $LN7@UpdateSyst

; 736  : 				return AURORA_INVISIBLE;

	mov	eax, 1
	jmp	$LN1@UpdateSyst
$LN7@UpdateSyst:

; 737  : 		}
; 738  : 
; 739  : 		// time-based particle system
; 740  : 		if( m_fLifeTime != 0.0f )

	mov	eax, DWORD PTR _this$[ebp]
	movss	xmm0, DWORD PTR [eax+60]
	ucomiss	xmm0, DWORD PTR __real@00000000
	lahf
	test	ah, 68					; 00000044H
	jnp	SHORT $LN8@UpdateSyst

; 741  : 		{
; 742  : 			enable = (m_fLifeTime >= tr.time) ? true : false;

	mov	eax, DWORD PTR _this$[ebp]
	cvtss2sd xmm0, DWORD PTR [eax+60]
	comisd	xmm0, QWORD PTR ?tr@@3Uref_globals_t@@A+8
	jb	SHORT $LN29@UpdateSyst
	mov	BYTE PTR tv81[ebp], 1
	jmp	SHORT $LN30@UpdateSyst
$LN29@UpdateSyst:
	mov	BYTE PTR tv81[ebp], 0
$LN30@UpdateSyst:
	mov	ecx, DWORD PTR _this$[ebp]
	mov	dl, BYTE PTR tv81[ebp]
	mov	BYTE PTR [ecx+88], dl

; 743  : 		}
; 744  : 		else

	jmp	SHORT $LN9@UpdateSyst
$LN8@UpdateSyst:

; 745  : 		{
; 746  : 			enable = (m_pEntity->curstate.renderfx == kRenderFxAurora) ? true : false;

	mov	eax, DWORD PTR _this$[ebp]
	mov	ecx, DWORD PTR [eax+8]
	cmp	DWORD PTR [ecx+772], 21			; 00000015H
	jne	SHORT $LN31@UpdateSyst
	mov	BYTE PTR tv87[ebp], 1
	jmp	SHORT $LN32@UpdateSyst
$LN31@UpdateSyst:
	mov	BYTE PTR tv87[ebp], 0
$LN32@UpdateSyst:
	mov	edx, DWORD PTR _this$[ebp]
	mov	al, BYTE PTR tv87[ebp]
	mov	BYTE PTR [edx+88], al
$LN9@UpdateSyst:

; 747  : 		}
; 748  : 
; 749  : 		// check for contents to remove
; 750  : 		if( m_iKillCondition == POINT_CONTENTS( m_pEntity->origin ))

	push	0
	mov	eax, DWORD PTR _this$[ebp]
	mov	ecx, DWORD PTR [eax+8]
	add	ecx, 2888				; 00000b48H
	call	??BVector@@QAEPAMXZ			; Vector::operator float *
	push	eax
	call	DWORD PTR ?gEngfuncs@@3Ucl_enginefuncs_s@@A+228
	add	esp, 8
	mov	ecx, DWORD PTR _this$[ebp]
	cmp	DWORD PTR [ecx+16], eax
	jne	SHORT $LN10@UpdateSyst

; 751  :           	{
; 752  : 			m_pEntity = NULL;

	mov	eax, DWORD PTR _this$[ebp]
	mov	DWORD PTR [eax+8], 0

; 753  :           		enable = false;

	mov	eax, DWORD PTR _this$[ebp]
	mov	BYTE PTR [eax+88], 0
$LN10@UpdateSyst:

; 754  :           	}
; 755  : 	}
; 756  : 	else

	jmp	SHORT $LN5@UpdateSyst
$LN4@UpdateSyst:

; 757  : 	{
; 758  : 		enable = false;

	mov	eax, DWORD PTR _this$[ebp]
	mov	BYTE PTR [eax+88], 0
$LN5@UpdateSyst:

; 759  : 	}
; 760  : 
; 761  : 	if( m_pEntity != NULL )

	mov	eax, DWORD PTR _this$[ebp]
	cmp	DWORD PTR [eax+8], 0
	je	SHORT $LN11@UpdateSyst

; 762  : 	{
; 763  : 		Vector angles = m_pEntity->angles;

	mov	eax, DWORD PTR _this$[ebp]
	mov	ecx, DWORD PTR [eax+8]
	add	ecx, 2900				; 00000b54H
	push	ecx
	lea	ecx, DWORD PTR _angles$5[ebp]
	call	??0Vector@@QAE@ABV0@@Z			; Vector::Vector

; 764  : 
; 765  : 		// get the system entity matrix
; 766  : 		if( m_iEntAttachment && m_pEntity->model->type == mod_studio )

	mov	eax, DWORD PTR _this$[ebp]
	cmp	DWORD PTR [eax+12], 0
	je	SHORT $LN12@UpdateSyst
	mov	eax, DWORD PTR _this$[ebp]
	mov	ecx, DWORD PTR [eax+8]
	mov	edx, DWORD PTR [ecx+2964]
	cmp	DWORD PTR [edx+68], 3
	jne	SHORT $LN12@UpdateSyst

; 767  : 			angles = R_StudioAttachmentAngles( m_pEntity, m_iEntAttachment - 1 );

	push	0
	mov	eax, DWORD PTR _this$[ebp]
	mov	ecx, DWORD PTR [eax+12]
	sub	ecx, 1
	push	ecx
	mov	edx, DWORD PTR _this$[ebp]
	mov	eax, DWORD PTR [edx+8]
	push	eax
	lea	ecx, DWORD PTR $T3[ebp]
	push	ecx
	call	?R_StudioAttachmentAngles@@YA?AVVector@@PBUcl_entity_s@@HH@Z ; R_StudioAttachmentAngles
	add	esp, 16					; 00000010H
	mov	edx, DWORD PTR [eax]
	mov	DWORD PTR _angles$5[ebp], edx
	mov	ecx, DWORD PTR [eax+4]
	mov	DWORD PTR _angles$5[ebp+4], ecx
	mov	edx, DWORD PTR [eax+8]
	mov	DWORD PTR _angles$5[ebp+8], edx
$LN12@UpdateSyst:

; 768  : 		entityMatrix = matrix3x3( angles );

	lea	eax, DWORD PTR _angles$5[ebp]
	push	eax
	lea	ecx, DWORD PTR $T2[ebp]
	call	??0matrix3x3@@QAE@ABVVector@@@Z		; matrix3x3::matrix3x3
	mov	edi, DWORD PTR _this$[ebp]
	add	edi, 24					; 00000018H
	mov	ecx, 9
	mov	esi, eax
	rep movsd
$LN11@UpdateSyst:

; 769  : 	}
; 770  : 
; 771  : 	if( m_pMainParticle == NULL )

	mov	eax, DWORD PTR _this$[ebp]
	cmp	DWORD PTR [eax+100], 0
	jne	$LN13@UpdateSyst

; 772  : 	{
; 773  : 		if( enable )

	mov	eax, DWORD PTR _this$[ebp]
	movzx	ecx, BYTE PTR [eax+88]
	test	ecx, ecx
	je	$LN17@UpdateSyst

; 774  : 		{
; 775  : 			CParticleType *pType = m_pMainType;

	mov	eax, DWORD PTR _this$[ebp]
	mov	ecx, DWORD PTR [eax+108]
	mov	DWORD PTR _pType$4[ebp], ecx

; 776  : 
; 777  : 			if( pType )

	cmp	DWORD PTR _pType$4[ebp], 0
	je	$LN17@UpdateSyst

; 778  : 			{
; 779  : 				m_pMainParticle = pType->CreateParticle( this );

	mov	eax, DWORD PTR _this$[ebp]
	push	eax
	mov	ecx, DWORD PTR _pType$4[ebp]
	call	?CreateParticle@CParticleType@@QAEPAUCParticle@@PAVCParticleSystem@@@Z ; CParticleType::CreateParticle
	mov	ecx, DWORD PTR _this$[ebp]
	mov	DWORD PTR [ecx+100], eax

; 780  : 
; 781  : 				if( m_pMainParticle )

	mov	eax, DWORD PTR _this$[ebp]
	cmp	DWORD PTR [eax+100], 0
	je	$LN17@UpdateSyst

; 782  : 				{
; 783  : 					// first origin initialize
; 784  : 					if( m_iEntAttachment && m_pEntity->model->type == mod_studio )

	mov	eax, DWORD PTR _this$[ebp]
	cmp	DWORD PTR [eax+12], 0
	je	SHORT $LN18@UpdateSyst
	mov	eax, DWORD PTR _this$[ebp]
	mov	ecx, DWORD PTR [eax+8]
	mov	edx, DWORD PTR [ecx+2964]
	cmp	DWORD PTR [edx+68], 3
	jne	SHORT $LN18@UpdateSyst

; 785  : 						m_pMainParticle->origin = R_StudioAttachmentOrigin( m_pEntity, m_iEntAttachment - 1 );

	push	0
	mov	eax, DWORD PTR _this$[ebp]
	mov	ecx, DWORD PTR [eax+12]
	sub	ecx, 1
	push	ecx
	mov	edx, DWORD PTR _this$[ebp]
	mov	eax, DWORD PTR [edx+8]
	push	eax
	lea	ecx, DWORD PTR $T1[ebp]
	push	ecx
	call	?R_StudioAttachmentOrigin@@YA?AVVector@@PBUcl_entity_s@@HH@Z ; R_StudioAttachmentOrigin
	add	esp, 16					; 00000010H
	mov	edx, DWORD PTR _this$[ebp]
	mov	ecx, DWORD PTR [edx+100]
	add	ecx, 12					; 0000000cH
	mov	edx, DWORD PTR [eax]
	mov	DWORD PTR [ecx], edx
	mov	edx, DWORD PTR [eax+4]
	mov	DWORD PTR [ecx+4], edx
	mov	eax, DWORD PTR [eax+8]
	mov	DWORD PTR [ecx+8], eax
	jmp	SHORT $LN19@UpdateSyst
$LN18@UpdateSyst:

; 786  : 					else m_pMainParticle->origin = m_pEntity->origin;

	mov	eax, DWORD PTR _this$[ebp]
	mov	ecx, DWORD PTR [eax+8]
	add	ecx, 2888				; 00000b48H
	mov	edx, DWORD PTR _this$[ebp]
	mov	eax, DWORD PTR [edx+100]
	add	eax, 12					; 0000000cH
	mov	edx, DWORD PTR [ecx]
	mov	DWORD PTR [eax], edx
	mov	edx, DWORD PTR [ecx+4]
	mov	DWORD PTR [eax+4], edx
	mov	ecx, DWORD PTR [ecx+8]
	mov	DWORD PTR [eax+8], ecx
$LN19@UpdateSyst:

; 787  : 
; 788  : 					m_pMainParticle->m_pEntity = m_pEntity;

	mov	eax, DWORD PTR _this$[ebp]
	mov	ecx, DWORD PTR [eax+100]
	mov	edx, DWORD PTR _this$[ebp]
	mov	eax, DWORD PTR [edx+8]
	mov	DWORD PTR [ecx+60], eax

; 789  : 					m_pMainParticle->age_death = -1.0f; // never die

	mov	eax, DWORD PTR _this$[ebp]
	mov	ecx, DWORD PTR [eax+100]
	movss	xmm0, DWORD PTR __real@bf800000
	movss	DWORD PTR [ecx+128], xmm0
$LN17@UpdateSyst:

; 790  : 				}
; 791  : 			}
; 792  : 		}
; 793  : 	}

	jmp	SHORT $LN20@UpdateSyst
$LN13@UpdateSyst:

; 794  : 	else if( !enable )

	mov	eax, DWORD PTR _this$[ebp]
	movzx	ecx, BYTE PTR [eax+88]
	test	ecx, ecx
	jne	SHORT $LN20@UpdateSyst

; 795  : 	{
; 796  : 		MarkForDeletion();

	mov	ecx, DWORD PTR _this$[ebp]
	call	?MarkForDeletion@CParticleSystem@@QAEXXZ ; CParticleSystem::MarkForDeletion
$LN20@UpdateSyst:

; 797  : 	}
; 798  : 
; 799  : 	// last particle is died, allow to remove partsystem
; 800  : 	if( !m_pEntity && !m_pActiveParticle )

	mov	eax, DWORD PTR _this$[ebp]
	cmp	DWORD PTR [eax+8], 0
	jne	SHORT $LN21@UpdateSyst
	mov	eax, DWORD PTR _this$[ebp]
	cmp	DWORD PTR [eax+4], 0
	jne	SHORT $LN21@UpdateSyst

; 801  : 		return AURORA_REMOVE;

	xor	eax, eax
	jmp	$LN1@UpdateSyst
$LN21@UpdateSyst:

; 802  : 
; 803  : 	CParticle	*pParticle = m_pActiveParticle;

	mov	eax, DWORD PTR _this$[ebp]
	mov	ecx, DWORD PTR [eax+4]
	mov	DWORD PTR _pParticle$[ebp], ecx

; 804  : 	CParticle	*pLast = NULL;

	mov	DWORD PTR _pLast$[ebp], 0

; 805  : 
; 806  : 	if( tr.frametime != 0.0 )

	movsd	xmm0, QWORD PTR ?tr@@3Uref_globals_t@@A+24
	ucomisd	xmm0, QWORD PTR __real@0000000000000000
	lahf
	test	ah, 68					; 00000044H
	jnp	SHORT $LN22@UpdateSyst

; 807  : 		ClearBounds( m_vecAbsMin, m_vecAbsMax );

	mov	eax, DWORD PTR _this$[ebp]
	add	eax, 76					; 0000004cH
	push	eax
	mov	ecx, DWORD PTR _this$[ebp]
	add	ecx, 64					; 00000040H
	push	ecx
	call	?ClearBounds@@YAXAAVVector@@0@Z		; ClearBounds
	add	esp, 8
$LN22@UpdateSyst:

; 808  : 
; 809  : 	while( pParticle )

	cmp	DWORD PTR _pParticle$[ebp], 0
	je	$LN3@UpdateSyst

; 810  : 	{
; 811  : 		if( UpdateParticle( pParticle, frametime ))

	push	ecx
	movss	xmm0, DWORD PTR _frametime$[ebp]
	movss	DWORD PTR [esp], xmm0
	mov	eax, DWORD PTR _pParticle$[ebp]
	push	eax
	mov	ecx, DWORD PTR _this$[ebp]
	call	?UpdateParticle@CParticleSystem@@QAE_NPAUCParticle@@M@Z ; CParticleSystem::UpdateParticle
	movzx	ecx, al
	test	ecx, ecx
	je	SHORT $LN23@UpdateSyst

; 812  : 		{
; 813  : 			pLast = pParticle;

	mov	eax, DWORD PTR _pParticle$[ebp]
	mov	DWORD PTR _pLast$[ebp], eax

; 814  : 			pParticle = pParticle->nextpart;

	mov	eax, DWORD PTR _pParticle$[ebp]
	mov	ecx, DWORD PTR [eax]
	mov	DWORD PTR _pParticle$[ebp], ecx

; 815  : 		}
; 816  : 		else

	jmp	SHORT $LN26@UpdateSyst
$LN23@UpdateSyst:

; 817  : 		{
; 818  : 			// deactivate it
; 819  : 			if( pLast )

	cmp	DWORD PTR _pLast$[ebp], 0
	je	SHORT $LN25@UpdateSyst

; 820  : 			{
; 821  : 				pLast->nextpart = pParticle->nextpart;

	mov	eax, DWORD PTR _pLast$[ebp]
	mov	ecx, DWORD PTR _pParticle$[ebp]
	mov	edx, DWORD PTR [ecx]
	mov	DWORD PTR [eax], edx

; 822  : 				pParticle->nextpart = m_pFreeParticle;

	mov	eax, DWORD PTR _pParticle$[ebp]
	mov	ecx, DWORD PTR _this$[ebp]
	mov	edx, DWORD PTR [ecx+96]
	mov	DWORD PTR [eax], edx

; 823  : 				m_pFreeParticle = pParticle;

	mov	eax, DWORD PTR _this$[ebp]
	mov	ecx, DWORD PTR _pParticle$[ebp]
	mov	DWORD PTR [eax+96], ecx

; 824  : 				pParticle = pLast->nextpart;

	mov	eax, DWORD PTR _pLast$[ebp]
	mov	ecx, DWORD PTR [eax]
	mov	DWORD PTR _pParticle$[ebp], ecx

; 825  : 			}
; 826  : 			else

	jmp	SHORT $LN26@UpdateSyst
$LN25@UpdateSyst:

; 827  : 			{
; 828  : 				// deactivate the first CParticle in the list
; 829  : 				m_pActiveParticle = pParticle->nextpart;

	mov	eax, DWORD PTR _this$[ebp]
	mov	ecx, DWORD PTR _pParticle$[ebp]
	mov	edx, DWORD PTR [ecx]
	mov	DWORD PTR [eax+4], edx

; 830  : 				pParticle->nextpart = m_pFreeParticle;

	mov	eax, DWORD PTR _pParticle$[ebp]
	mov	ecx, DWORD PTR _this$[ebp]
	mov	edx, DWORD PTR [ecx+96]
	mov	DWORD PTR [eax], edx

; 831  : 				m_pFreeParticle = pParticle;

	mov	eax, DWORD PTR _this$[ebp]
	mov	ecx, DWORD PTR _pParticle$[ebp]
	mov	DWORD PTR [eax+96], ecx

; 832  : 				pParticle = m_pActiveParticle;

	mov	eax, DWORD PTR _this$[ebp]
	mov	ecx, DWORD PTR [eax+4]
	mov	DWORD PTR _pParticle$[ebp], ecx
$LN26@UpdateSyst:

; 833  : 			}
; 834  : 		}
; 835  : 	}

	jmp	$LN22@UpdateSyst
$LN3@UpdateSyst:

; 836  : 
; 837  : 	if( !Mod_CheckBoxVisible( m_vecAbsMin, m_vecAbsMax ))

	mov	eax, DWORD PTR _this$[ebp]
	add	eax, 76					; 0000004cH
	push	eax
	mov	ecx, DWORD PTR _this$[ebp]
	add	ecx, 64					; 00000040H
	push	ecx
	call	?Mod_CheckBoxVisible@@YA_NABVVector@@0@Z ; Mod_CheckBoxVisible
	add	esp, 8
	movzx	edx, al
	test	edx, edx
	jne	SHORT $LN27@UpdateSyst

; 838  : 		return AURORA_INVISIBLE;

	mov	eax, 1
	jmp	SHORT $LN1@UpdateSyst
$LN27@UpdateSyst:

; 839  : 
; 840  : 	return AURORA_DRAW;

	mov	eax, 2
$LN1@UpdateSyst:

; 841  : }

	pop	edi
	pop	esi
	pop	ebx
	mov	ecx, DWORD PTR __$ArrayPad$[ebp]
	xor	ecx, ebp
	call	@__security_check_cookie@4
	mov	esp, ebp
	pop	ebp
	ret	4
?UpdateSystem@CParticleSystem@@QAE?AW4AURSTATE@@M@Z ENDP ; CParticleSystem::UpdateSystem
_TEXT	ENDS
; Function compile flags: /Odtp /ZI
; File d:\!diffusion 2020\source code 2022\client-server\client\render\r_particle.cpp
;	COMDAT ?ParseType@CParticleSystem@@QAEPAVCParticleType@@AAPAD@Z
_TEXT	SEGMENT
tv76 = -1592						; size = 4
$T2 = -1588						; size = 12
$T3 = -1576						; size = 12
$T4 = -1564						; size = 12
$T5 = -1552						; size = 12
$T6 = -1540						; size = 12
$T7 = -1528						; size = 12
$T8 = -1516						; size = 12
$T9 = -1504						; size = 12
$T10 = -1492						; size = 12
$T11 = -1480						; size = 12
$T12 = -1468						; size = 12
$T13 = -1456						; size = 12
$T14 = -1444						; size = 12
$T15 = -1432						; size = 12
$T16 = -1420						; size = 12
$T17 = -1408						; size = 12
$T18 = -1396						; size = 12
$T19 = -1384						; size = 12
$T20 = -1372						; size = 12
$T21 = -1360						; size = 12
$T22 = -1348						; size = 12
$T23 = -1336						; size = 12
$T24 = -1324						; size = 12
$T25 = -1312						; size = 12
$T26 = -1300						; size = 12
$T27 = -1288						; size = 12
$T28 = -1276						; size = 12
$T29 = -1264						; size = 4
$T30 = -1260						; size = 4
$T31 = -1256						; size = 4
_pTemp$32 = -1060					; size = 4
_pTemp$33 = -1056					; size = 4
_pTemp$34 = -1052					; size = 4
_szToken$ = -1048					; size = 1024
_pType$ = -24						; size = 4
_this$ = -20						; size = 4
__$ArrayPad$ = -16					; size = 4
__$EHRec$ = -12						; size = 12
_pfile$ = 8						; size = 4
?ParseType@CParticleSystem@@QAEPAVCParticleType@@AAPAD@Z PROC ; CParticleSystem::ParseType, COMDAT
; _this$ = ecx

; 435  : {

	push	ebp
	mov	ebp, esp
	push	-1
	push	__ehhandler$?ParseType@CParticleSystem@@QAEPAVCParticleType@@AAPAD@Z
	mov	eax, DWORD PTR fs:0
	push	eax
	sub	esp, 1580				; 0000062cH
	mov	eax, DWORD PTR ___security_cookie
	xor	eax, ebp
	mov	DWORD PTR __$ArrayPad$[ebp], eax
	push	ebx
	push	esi
	push	edi
	push	eax
	lea	eax, DWORD PTR __$EHRec$[ebp]
	mov	DWORD PTR fs:0, eax
	mov	DWORD PTR _this$[ebp], ecx

; 436  : 	CParticleType *pType = new CParticleType();

	push	404					; 00000194H
	call	??2@YAPAXI@Z				; operator new
	add	esp, 4
	mov	DWORD PTR $T30[ebp], eax
	mov	DWORD PTR __$EHRec$[ebp+8], 0
	cmp	DWORD PTR $T30[ebp], 0
	je	SHORT $LN101@ParseType
	push	0
	mov	ecx, DWORD PTR $T30[ebp]
	call	??0CParticleType@@QAE@PAV0@@Z		; CParticleType::CParticleType
	mov	DWORD PTR tv76[ebp], eax
	jmp	SHORT $LN102@ParseType
$LN101@ParseType:
	mov	DWORD PTR tv76[ebp], 0
$LN102@ParseType:
	mov	eax, DWORD PTR tv76[ebp]
	mov	DWORD PTR $T31[ebp], eax
	mov	DWORD PTR __$EHRec$[ebp+8], -1
	mov	ecx, DWORD PTR $T31[ebp]
	mov	DWORD PTR _pType$[ebp], ecx

; 437  : 
; 438  : 	// parse the .aur file
; 439  : 	char szToken[1024];
; 440  : 
; 441  : 	pfile = COM_ParseFile( pfile, szToken );

	push	1
	push	1024					; 00000400H
	lea	eax, DWORD PTR _szToken$[ebp]
	push	eax
	mov	ecx, DWORD PTR _pfile$[ebp]
	mov	edx, DWORD PTR [ecx]
	push	edx
	call	?COM_ParseFileExt@@YAPADPAD0J_N@Z	; COM_ParseFileExt
	add	esp, 16					; 00000010H
	mov	ecx, DWORD PTR _pfile$[ebp]
	mov	DWORD PTR [ecx], eax
$LN2@ParseType:

; 442  : 
; 443  : 	while( Q_stricmp( szToken, "}" ))

	push	99999					; 0001869fH
	push	OFFSET ??_C@_01CELHOKLL@?$HN?$AA@
	lea	eax, DWORD PTR _szToken$[ebp]
	push	eax
	call	?Q_strnicmp@@YAHPBD0H@Z			; Q_strnicmp
	add	esp, 12					; 0000000cH
	test	eax, eax
	je	$LN3@ParseType

; 444  : 	{
; 445  : 		if( !pfile ) break;

	mov	eax, DWORD PTR _pfile$[ebp]
	cmp	DWORD PTR [eax], 0
	jne	SHORT $LN4@ParseType
	jmp	$LN3@ParseType
$LN4@ParseType:

; 446  : 
; 447  : 		if( !Q_stricmp( szToken, "name" ))

	push	99999					; 0001869fH
	push	OFFSET ??_C@_04MEMAJGDJ@name?$AA@
	lea	eax, DWORD PTR _szToken$[ebp]
	push	eax
	call	?Q_strnicmp@@YAHPBD0H@Z			; Q_strnicmp
	add	esp, 12					; 0000000cH
	test	eax, eax
	jne	$LN5@ParseType

; 448  : 		{
; 449  : 			pfile = COM_ParseFile( pfile, szToken );

	push	1
	push	1024					; 00000400H
	lea	eax, DWORD PTR _szToken$[ebp]
	push	eax
	mov	ecx, DWORD PTR _pfile$[ebp]
	mov	edx, DWORD PTR [ecx]
	push	edx
	call	?COM_ParseFileExt@@YAPADPAD0J_N@Z	; COM_ParseFileExt
	add	esp, 16					; 00000010H
	mov	ecx, DWORD PTR _pfile$[ebp]
	mov	DWORD PTR [ecx], eax

; 450  : 			Q_strncpy( pType->m_szName, szToken, sizeof( pType->m_szName ));

	push	32					; 00000020H
	lea	eax, DWORD PTR _szToken$[ebp]
	push	eax
	mov	ecx, DWORD PTR _pType$[ebp]
	add	ecx, 372				; 00000174H
	push	ecx
	call	?Q_strncpy@@YAIPADPBDI@Z		; Q_strncpy
	add	esp, 12					; 0000000cH

; 451  : 
; 452  : 			CParticleType *pTemp = GetType( szToken );

	lea	eax, DWORD PTR _szToken$[ebp]
	push	eax
	mov	ecx, DWORD PTR _this$[ebp]
	call	?GetType@CParticleSystem@@QAEPAVCParticleType@@PBD@Z ; CParticleSystem::GetType
	mov	DWORD PTR _pTemp$34[ebp], eax

; 453  : 
; 454  : 			if( pTemp )

	cmp	DWORD PTR _pTemp$34[ebp], 0
	je	SHORT $LN7@ParseType

; 455  : 			{
; 456  : 				// there's already a type with this name
; 457  : 				if( pTemp->m_bIsDefined )

	mov	eax, DWORD PTR _pTemp$34[ebp]
	movzx	ecx, BYTE PTR [eax]
	test	ecx, ecx
	je	SHORT $LN8@ParseType

; 458  : 					ALERT( at_warning, "Particle type %s is defined more than once!\n", szToken );

	lea	eax, DWORD PTR _szToken$[ebp]
	push	eax
	push	OFFSET ??_C@_0CN@PBNDAEIM@Particle?5type?5?$CFs?5is?5defined?5more@
	push	3
	call	?ALERT@@YAXW4ALERT_TYPE@@PADZZ		; ALERT
	add	esp, 12					; 0000000cH
$LN8@ParseType:

; 459  : 
; 460  : 				// copy all our data into the existing type, throw away the type we were making
; 461  : 				*pTemp = *pType;

	mov	ecx, 101				; 00000065H
	mov	esi, DWORD PTR _pType$[ebp]
	mov	edi, DWORD PTR _pTemp$34[ebp]
	rep movsd

; 462  : 				delete pType;

	mov	eax, DWORD PTR _pType$[ebp]
	mov	DWORD PTR $T29[ebp], eax
	push	404					; 00000194H
	mov	ecx, DWORD PTR $T29[ebp]
	push	ecx
	call	??3@YAXPAXI@Z				; operator delete
	add	esp, 8

; 463  : 				pType = pTemp;

	mov	eax, DWORD PTR _pTemp$34[ebp]
	mov	DWORD PTR _pType$[ebp], eax

; 464  : 				pType->m_bIsDefined = true; // record the fact that it's defined, so we won't need to add it to the list

	mov	eax, DWORD PTR _pType$[ebp]
	mov	BYTE PTR [eax], 1
$LN7@ParseType:

; 465  : 			}
; 466  : 		}

	jmp	$LN98@ParseType
$LN5@ParseType:

; 467  : 		else if( !Q_stricmp( szToken, "gravity" ))

	push	99999					; 0001869fH
	push	OFFSET ??_C@_07GFBFDLBM@gravity?$AA@
	lea	eax, DWORD PTR _szToken$[ebp]
	push	eax
	call	?Q_strnicmp@@YAHPBD0H@Z			; Q_strnicmp
	add	esp, 12					; 0000000cH
	test	eax, eax
	jne	SHORT $LN9@ParseType

; 468  : 		{
; 469  : 			pfile = COM_ParseFile( pfile, szToken );

	push	1
	push	1024					; 00000400H
	lea	eax, DWORD PTR _szToken$[ebp]
	push	eax
	mov	ecx, DWORD PTR _pfile$[ebp]
	mov	edx, DWORD PTR [ecx]
	push	edx
	call	?COM_ParseFileExt@@YAPADPAD0J_N@Z	; COM_ParseFileExt
	add	esp, 16					; 00000010H
	mov	ecx, DWORD PTR _pfile$[ebp]
	mov	DWORD PTR [ecx], eax

; 470  : 			pType->m_Gravity = RandomRange( szToken );

	lea	eax, DWORD PTR _szToken$[ebp]
	push	eax
	lea	ecx, DWORD PTR $T28[ebp]
	call	??0RandomRange@@QAE@PAD@Z		; RandomRange::RandomRange
	mov	ecx, DWORD PTR _pType$[ebp]
	add	ecx, 312				; 00000138H
	mov	edx, DWORD PTR [eax]
	mov	DWORD PTR [ecx], edx
	mov	edx, DWORD PTR [eax+4]
	mov	DWORD PTR [ecx+4], edx
	mov	eax, DWORD PTR [eax+8]
	mov	DWORD PTR [ecx+8], eax
	jmp	$LN98@ParseType
$LN9@ParseType:

; 471  : 		}
; 472  : 		else if( !Q_stricmp( szToken, "windyaw" ))

	push	99999					; 0001869fH
	push	OFFSET ??_C@_07EDHGKPLO@windyaw?$AA@
	lea	eax, DWORD PTR _szToken$[ebp]
	push	eax
	call	?Q_strnicmp@@YAHPBD0H@Z			; Q_strnicmp
	add	esp, 12					; 0000000cH
	test	eax, eax
	jne	SHORT $LN11@ParseType

; 473  : 		{
; 474  : 			pfile = COM_ParseFile( pfile, szToken );

	push	1
	push	1024					; 00000400H
	lea	eax, DWORD PTR _szToken$[ebp]
	push	eax
	mov	ecx, DWORD PTR _pfile$[ebp]
	mov	edx, DWORD PTR [ecx]
	push	edx
	call	?COM_ParseFileExt@@YAPADPAD0J_N@Z	; COM_ParseFileExt
	add	esp, 16					; 00000010H
	mov	ecx, DWORD PTR _pfile$[ebp]
	mov	DWORD PTR [ecx], eax

; 475  : 			pType->m_WindYaw = RandomRange( szToken );

	lea	eax, DWORD PTR _szToken$[ebp]
	push	eax
	lea	ecx, DWORD PTR $T27[ebp]
	call	??0RandomRange@@QAE@PAD@Z		; RandomRange::RandomRange
	mov	ecx, DWORD PTR _pType$[ebp]
	add	ecx, 336				; 00000150H
	mov	edx, DWORD PTR [eax]
	mov	DWORD PTR [ecx], edx
	mov	edx, DWORD PTR [eax+4]
	mov	DWORD PTR [ecx+4], edx
	mov	eax, DWORD PTR [eax+8]
	mov	DWORD PTR [ecx+8], eax
	jmp	$LN98@ParseType
$LN11@ParseType:

; 476  : 		}
; 477  : 		else if( !Q_stricmp( szToken, "windstrength" ))

	push	99999					; 0001869fH
	push	OFFSET ??_C@_0N@OEIMJECI@windstrength?$AA@
	lea	eax, DWORD PTR _szToken$[ebp]
	push	eax
	call	?Q_strnicmp@@YAHPBD0H@Z			; Q_strnicmp
	add	esp, 12					; 0000000cH
	test	eax, eax
	jne	SHORT $LN13@ParseType

; 478  : 		{
; 479  : 			pfile = COM_ParseFile( pfile, szToken );

	push	1
	push	1024					; 00000400H
	lea	eax, DWORD PTR _szToken$[ebp]
	push	eax
	mov	ecx, DWORD PTR _pfile$[ebp]
	mov	edx, DWORD PTR [ecx]
	push	edx
	call	?COM_ParseFileExt@@YAPADPAD0J_N@Z	; COM_ParseFileExt
	add	esp, 16					; 00000010H
	mov	ecx, DWORD PTR _pfile$[ebp]
	mov	DWORD PTR [ecx], eax

; 480  : 			pType->m_WindStrength = RandomRange( szToken );

	lea	eax, DWORD PTR _szToken$[ebp]
	push	eax
	lea	ecx, DWORD PTR $T26[ebp]
	call	??0RandomRange@@QAE@PAD@Z		; RandomRange::RandomRange
	mov	ecx, DWORD PTR _pType$[ebp]
	add	ecx, 324				; 00000144H
	mov	edx, DWORD PTR [eax]
	mov	DWORD PTR [ecx], edx
	mov	edx, DWORD PTR [eax+4]
	mov	DWORD PTR [ecx+4], edx
	mov	eax, DWORD PTR [eax+8]
	mov	DWORD PTR [ecx+8], eax
	jmp	$LN98@ParseType
$LN13@ParseType:

; 481  : 		}
; 482  : 		else if( !Q_stricmp( szToken, "sprite" ))

	push	99999					; 0001869fH
	push	OFFSET ??_C@_06DKHPLDLO@sprite?$AA@
	lea	eax, DWORD PTR _szToken$[ebp]
	push	eax
	call	?Q_strnicmp@@YAHPBD0H@Z			; Q_strnicmp
	add	esp, 12					; 0000000cH
	test	eax, eax
	jne	SHORT $LN15@ParseType

; 483  : 		{
; 484  : 			pfile = COM_ParseFile( pfile, szToken );

	push	1
	push	1024					; 00000400H
	lea	eax, DWORD PTR _szToken$[ebp]
	push	eax
	mov	ecx, DWORD PTR _pfile$[ebp]
	mov	edx, DWORD PTR [ecx]
	push	edx
	call	?COM_ParseFileExt@@YAPADPAD0J_N@Z	; COM_ParseFileExt
	add	esp, 16					; 00000010H
	mov	ecx, DWORD PTR _pfile$[ebp]
	mov	DWORD PTR [ecx], eax

; 485  : 			pType->m_hSprite = SPR_Load( szToken );

	lea	eax, DWORD PTR _szToken$[ebp]
	push	eax
	call	DWORD PTR ?gEngfuncs@@3Ucl_enginefuncs_s@@A
	add	esp, 4
	mov	ecx, DWORD PTR _pType$[ebp]
	mov	DWORD PTR [ecx+348], eax
	jmp	$LN98@ParseType
$LN15@ParseType:

; 486  : 		}
; 487  : 		else if( !Q_stricmp( szToken, "startalpha" ))

	push	99999					; 0001869fH
	push	OFFSET ??_C@_0L@HPCHIOGA@startalpha?$AA@
	lea	eax, DWORD PTR _szToken$[ebp]
	push	eax
	call	?Q_strnicmp@@YAHPBD0H@Z			; Q_strnicmp
	add	esp, 12					; 0000000cH
	test	eax, eax
	jne	SHORT $LN17@ParseType

; 488  : 		{
; 489  : 			pfile = COM_ParseFile( pfile, szToken );

	push	1
	push	1024					; 00000400H
	lea	eax, DWORD PTR _szToken$[ebp]
	push	eax
	mov	ecx, DWORD PTR _pfile$[ebp]
	mov	edx, DWORD PTR [ecx]
	push	edx
	call	?COM_ParseFileExt@@YAPADPAD0J_N@Z	; COM_ParseFileExt
	add	esp, 16					; 00000010H
	mov	ecx, DWORD PTR _pfile$[ebp]
	mov	DWORD PTR [ecx], eax

; 490  : 			pType->m_StartAlpha = RandomRange( szToken );

	lea	eax, DWORD PTR _szToken$[ebp]
	push	eax
	lea	ecx, DWORD PTR $T25[ebp]
	call	??0RandomRange@@QAE@PAD@Z		; RandomRange::RandomRange
	mov	ecx, DWORD PTR _pType$[ebp]
	add	ecx, 52					; 00000034H
	mov	edx, DWORD PTR [eax]
	mov	DWORD PTR [ecx], edx
	mov	edx, DWORD PTR [eax+4]
	mov	DWORD PTR [ecx+4], edx
	mov	eax, DWORD PTR [eax+8]
	mov	DWORD PTR [ecx+8], eax
	jmp	$LN98@ParseType
$LN17@ParseType:

; 491  : 		}
; 492  : 		else if( !Q_stricmp( szToken, "endalpha" ))

	push	99999					; 0001869fH
	push	OFFSET ??_C@_08HLONNDJE@endalpha?$AA@
	lea	eax, DWORD PTR _szToken$[ebp]
	push	eax
	call	?Q_strnicmp@@YAHPBD0H@Z			; Q_strnicmp
	add	esp, 12					; 0000000cH
	test	eax, eax
	jne	SHORT $LN19@ParseType

; 493  : 		{
; 494  : 			pfile = COM_ParseFile( pfile, szToken );

	push	1
	push	1024					; 00000400H
	lea	eax, DWORD PTR _szToken$[ebp]
	push	eax
	mov	ecx, DWORD PTR _pfile$[ebp]
	mov	edx, DWORD PTR [ecx]
	push	edx
	call	?COM_ParseFileExt@@YAPADPAD0J_N@Z	; COM_ParseFileExt
	add	esp, 16					; 00000010H
	mov	ecx, DWORD PTR _pfile$[ebp]
	mov	DWORD PTR [ecx], eax

; 495  : 			pType->m_EndAlpha = RandomRange( szToken );

	lea	eax, DWORD PTR _szToken$[ebp]
	push	eax
	lea	ecx, DWORD PTR $T24[ebp]
	call	??0RandomRange@@QAE@PAD@Z		; RandomRange::RandomRange
	mov	ecx, DWORD PTR _pType$[ebp]
	add	ecx, 64					; 00000040H
	mov	edx, DWORD PTR [eax]
	mov	DWORD PTR [ecx], edx
	mov	edx, DWORD PTR [eax+4]
	mov	DWORD PTR [ecx+4], edx
	mov	eax, DWORD PTR [eax+8]
	mov	DWORD PTR [ecx+8], eax
	jmp	$LN98@ParseType
$LN19@ParseType:

; 496  : 		}
; 497  : 		else if( !Q_stricmp( szToken, "startred" ))

	push	99999					; 0001869fH
	push	OFFSET ??_C@_08BBAAOJMA@startred?$AA@
	lea	eax, DWORD PTR _szToken$[ebp]
	push	eax
	call	?Q_strnicmp@@YAHPBD0H@Z			; Q_strnicmp
	add	esp, 12					; 0000000cH
	test	eax, eax
	jne	SHORT $LN21@ParseType

; 498  : 		{
; 499  : 			pfile = COM_ParseFile( pfile, szToken );

	push	1
	push	1024					; 00000400H
	lea	eax, DWORD PTR _szToken$[ebp]
	push	eax
	mov	ecx, DWORD PTR _pfile$[ebp]
	mov	edx, DWORD PTR [ecx]
	push	edx
	call	?COM_ParseFileExt@@YAPADPAD0J_N@Z	; COM_ParseFileExt
	add	esp, 16					; 00000010H
	mov	ecx, DWORD PTR _pfile$[ebp]
	mov	DWORD PTR [ecx], eax

; 500  : 			pType->m_StartRed = RandomRange( szToken );

	lea	eax, DWORD PTR _szToken$[ebp]
	push	eax
	lea	ecx, DWORD PTR $T23[ebp]
	call	??0RandomRange@@QAE@PAD@Z		; RandomRange::RandomRange
	mov	ecx, DWORD PTR _pType$[ebp]
	add	ecx, 76					; 0000004cH
	mov	edx, DWORD PTR [eax]
	mov	DWORD PTR [ecx], edx
	mov	edx, DWORD PTR [eax+4]
	mov	DWORD PTR [ecx+4], edx
	mov	eax, DWORD PTR [eax+8]
	mov	DWORD PTR [ecx+8], eax
	jmp	$LN98@ParseType
$LN21@ParseType:

; 501  : 		}
; 502  : 		else if( !Q_stricmp( szToken, "endred" ))

	push	99999					; 0001869fH
	push	OFFSET ??_C@_06GLOKDDBL@endred?$AA@
	lea	eax, DWORD PTR _szToken$[ebp]
	push	eax
	call	?Q_strnicmp@@YAHPBD0H@Z			; Q_strnicmp
	add	esp, 12					; 0000000cH
	test	eax, eax
	jne	SHORT $LN23@ParseType

; 503  : 		{
; 504  : 			pfile = COM_ParseFile( pfile, szToken );

	push	1
	push	1024					; 00000400H
	lea	eax, DWORD PTR _szToken$[ebp]
	push	eax
	mov	ecx, DWORD PTR _pfile$[ebp]
	mov	edx, DWORD PTR [ecx]
	push	edx
	call	?COM_ParseFileExt@@YAPADPAD0J_N@Z	; COM_ParseFileExt
	add	esp, 16					; 00000010H
	mov	ecx, DWORD PTR _pfile$[ebp]
	mov	DWORD PTR [ecx], eax

; 505  : 			pType->m_EndRed = RandomRange( szToken );

	lea	eax, DWORD PTR _szToken$[ebp]
	push	eax
	lea	ecx, DWORD PTR $T22[ebp]
	call	??0RandomRange@@QAE@PAD@Z		; RandomRange::RandomRange
	mov	ecx, DWORD PTR _pType$[ebp]
	add	ecx, 88					; 00000058H
	mov	edx, DWORD PTR [eax]
	mov	DWORD PTR [ecx], edx
	mov	edx, DWORD PTR [eax+4]
	mov	DWORD PTR [ecx+4], edx
	mov	eax, DWORD PTR [eax+8]
	mov	DWORD PTR [ecx+8], eax
	jmp	$LN98@ParseType
$LN23@ParseType:

; 506  : 		}
; 507  : 		else if( !Q_stricmp( szToken, "startgreen" ))

	push	99999					; 0001869fH
	push	OFFSET ??_C@_0L@JOCJGMKP@startgreen?$AA@
	lea	eax, DWORD PTR _szToken$[ebp]
	push	eax
	call	?Q_strnicmp@@YAHPBD0H@Z			; Q_strnicmp
	add	esp, 12					; 0000000cH
	test	eax, eax
	jne	SHORT $LN25@ParseType

; 508  : 		{
; 509  : 			pfile = COM_ParseFile( pfile, szToken );

	push	1
	push	1024					; 00000400H
	lea	eax, DWORD PTR _szToken$[ebp]
	push	eax
	mov	ecx, DWORD PTR _pfile$[ebp]
	mov	edx, DWORD PTR [ecx]
	push	edx
	call	?COM_ParseFileExt@@YAPADPAD0J_N@Z	; COM_ParseFileExt
	add	esp, 16					; 00000010H
	mov	ecx, DWORD PTR _pfile$[ebp]
	mov	DWORD PTR [ecx], eax

; 510  : 			pType->m_StartGreen = RandomRange( szToken );

	lea	eax, DWORD PTR _szToken$[ebp]
	push	eax
	lea	ecx, DWORD PTR $T21[ebp]
	call	??0RandomRange@@QAE@PAD@Z		; RandomRange::RandomRange
	mov	ecx, DWORD PTR _pType$[ebp]
	add	ecx, 100				; 00000064H
	mov	edx, DWORD PTR [eax]
	mov	DWORD PTR [ecx], edx
	mov	edx, DWORD PTR [eax+4]
	mov	DWORD PTR [ecx+4], edx
	mov	eax, DWORD PTR [eax+8]
	mov	DWORD PTR [ecx+8], eax
	jmp	$LN98@ParseType
$LN25@ParseType:

; 511  : 		}
; 512  : 		else if( !Q_stricmp( szToken, "endgreen" ))

	push	99999					; 0001869fH
	push	OFFSET ??_C@_08JKODDBFL@endgreen?$AA@
	lea	eax, DWORD PTR _szToken$[ebp]
	push	eax
	call	?Q_strnicmp@@YAHPBD0H@Z			; Q_strnicmp
	add	esp, 12					; 0000000cH
	test	eax, eax
	jne	SHORT $LN27@ParseType

; 513  : 		{
; 514  : 			pfile = COM_ParseFile( pfile, szToken );

	push	1
	push	1024					; 00000400H
	lea	eax, DWORD PTR _szToken$[ebp]
	push	eax
	mov	ecx, DWORD PTR _pfile$[ebp]
	mov	edx, DWORD PTR [ecx]
	push	edx
	call	?COM_ParseFileExt@@YAPADPAD0J_N@Z	; COM_ParseFileExt
	add	esp, 16					; 00000010H
	mov	ecx, DWORD PTR _pfile$[ebp]
	mov	DWORD PTR [ecx], eax

; 515  : 			pType->m_EndGreen = RandomRange( szToken );

	lea	eax, DWORD PTR _szToken$[ebp]
	push	eax
	lea	ecx, DWORD PTR $T20[ebp]
	call	??0RandomRange@@QAE@PAD@Z		; RandomRange::RandomRange
	mov	ecx, DWORD PTR _pType$[ebp]
	add	ecx, 112				; 00000070H
	mov	edx, DWORD PTR [eax]
	mov	DWORD PTR [ecx], edx
	mov	edx, DWORD PTR [eax+4]
	mov	DWORD PTR [ecx+4], edx
	mov	eax, DWORD PTR [eax+8]
	mov	DWORD PTR [ecx+8], eax
	jmp	$LN98@ParseType
$LN27@ParseType:

; 516  : 		}
; 517  : 		else if( !Q_stricmp( szToken, "startblue" ))

	push	99999					; 0001869fH
	push	OFFSET ??_C@_09IDPDEMPE@startblue?$AA@
	lea	eax, DWORD PTR _szToken$[ebp]
	push	eax
	call	?Q_strnicmp@@YAHPBD0H@Z			; Q_strnicmp
	add	esp, 12					; 0000000cH
	test	eax, eax
	jne	SHORT $LN29@ParseType

; 518  : 		{
; 519  : 			pfile = COM_ParseFile( pfile, szToken );

	push	1
	push	1024					; 00000400H
	lea	eax, DWORD PTR _szToken$[ebp]
	push	eax
	mov	ecx, DWORD PTR _pfile$[ebp]
	mov	edx, DWORD PTR [ecx]
	push	edx
	call	?COM_ParseFileExt@@YAPADPAD0J_N@Z	; COM_ParseFileExt
	add	esp, 16					; 00000010H
	mov	ecx, DWORD PTR _pfile$[ebp]
	mov	DWORD PTR [ecx], eax

; 520  : 			pType->m_StartBlue = RandomRange( szToken );

	lea	eax, DWORD PTR _szToken$[ebp]
	push	eax
	lea	ecx, DWORD PTR $T19[ebp]
	call	??0RandomRange@@QAE@PAD@Z		; RandomRange::RandomRange
	mov	ecx, DWORD PTR _pType$[ebp]
	add	ecx, 124				; 0000007cH
	mov	edx, DWORD PTR [eax]
	mov	DWORD PTR [ecx], edx
	mov	edx, DWORD PTR [eax+4]
	mov	DWORD PTR [ecx+4], edx
	mov	eax, DWORD PTR [eax+8]
	mov	DWORD PTR [ecx+8], eax
	jmp	$LN98@ParseType
$LN29@ParseType:

; 521  : 		}
; 522  : 		else if( !Q_stricmp( szToken, "endblue" ))

	push	99999					; 0001869fH
	push	OFFSET ??_C@_07JCIIKNHC@endblue?$AA@
	lea	eax, DWORD PTR _szToken$[ebp]
	push	eax
	call	?Q_strnicmp@@YAHPBD0H@Z			; Q_strnicmp
	add	esp, 12					; 0000000cH
	test	eax, eax
	jne	SHORT $LN31@ParseType

; 523  : 		{
; 524  : 			pfile = COM_ParseFile( pfile, szToken );

	push	1
	push	1024					; 00000400H
	lea	eax, DWORD PTR _szToken$[ebp]
	push	eax
	mov	ecx, DWORD PTR _pfile$[ebp]
	mov	edx, DWORD PTR [ecx]
	push	edx
	call	?COM_ParseFileExt@@YAPADPAD0J_N@Z	; COM_ParseFileExt
	add	esp, 16					; 00000010H
	mov	ecx, DWORD PTR _pfile$[ebp]
	mov	DWORD PTR [ecx], eax

; 525  : 			pType->m_EndBlue = RandomRange( szToken );

	lea	eax, DWORD PTR _szToken$[ebp]
	push	eax
	lea	ecx, DWORD PTR $T18[ebp]
	call	??0RandomRange@@QAE@PAD@Z		; RandomRange::RandomRange
	mov	ecx, DWORD PTR _pType$[ebp]
	add	ecx, 136				; 00000088H
	mov	edx, DWORD PTR [eax]
	mov	DWORD PTR [ecx], edx
	mov	edx, DWORD PTR [eax+4]
	mov	DWORD PTR [ecx+4], edx
	mov	eax, DWORD PTR [eax+8]
	mov	DWORD PTR [ecx+8], eax
	jmp	$LN98@ParseType
$LN31@ParseType:

; 526  : 		}
; 527  : 		else if( !Q_stricmp( szToken, "startsize" ))

	push	99999					; 0001869fH
	push	OFFSET ??_C@_09OCPBEFMJ@startsize?$AA@
	lea	eax, DWORD PTR _szToken$[ebp]
	push	eax
	call	?Q_strnicmp@@YAHPBD0H@Z			; Q_strnicmp
	add	esp, 12					; 0000000cH
	test	eax, eax
	jne	SHORT $LN33@ParseType

; 528  : 		{
; 529  : 			pfile = COM_ParseFile( pfile, szToken );

	push	1
	push	1024					; 00000400H
	lea	eax, DWORD PTR _szToken$[ebp]
	push	eax
	mov	ecx, DWORD PTR _pfile$[ebp]
	mov	edx, DWORD PTR [ecx]
	push	edx
	call	?COM_ParseFileExt@@YAPADPAD0J_N@Z	; COM_ParseFileExt
	add	esp, 16					; 00000010H
	mov	ecx, DWORD PTR _pfile$[ebp]
	mov	DWORD PTR [ecx], eax

; 530  : 			pType->m_StartSize = RandomRange( szToken );

	lea	eax, DWORD PTR _szToken$[ebp]
	push	eax
	lea	ecx, DWORD PTR $T17[ebp]
	call	??0RandomRange@@QAE@PAD@Z		; RandomRange::RandomRange
	mov	ecx, DWORD PTR _pType$[ebp]
	add	ecx, 148				; 00000094H
	mov	edx, DWORD PTR [eax]
	mov	DWORD PTR [ecx], edx
	mov	edx, DWORD PTR [eax+4]
	mov	DWORD PTR [ecx+4], edx
	mov	eax, DWORD PTR [eax+8]
	mov	DWORD PTR [ecx+8], eax
	jmp	$LN98@ParseType
$LN33@ParseType:

; 531  : 		}
; 532  : 		else if( !Q_stricmp( szToken, "sizedelta" ))

	push	99999					; 0001869fH
	push	OFFSET ??_C@_09IJIMBHFH@sizedelta?$AA@
	lea	eax, DWORD PTR _szToken$[ebp]
	push	eax
	call	?Q_strnicmp@@YAHPBD0H@Z			; Q_strnicmp
	add	esp, 12					; 0000000cH
	test	eax, eax
	jne	SHORT $LN35@ParseType

; 533  : 		{
; 534  : 			pfile = COM_ParseFile( pfile, szToken );

	push	1
	push	1024					; 00000400H
	lea	eax, DWORD PTR _szToken$[ebp]
	push	eax
	mov	ecx, DWORD PTR _pfile$[ebp]
	mov	edx, DWORD PTR [ecx]
	push	edx
	call	?COM_ParseFileExt@@YAPADPAD0J_N@Z	; COM_ParseFileExt
	add	esp, 16					; 00000010H
	mov	ecx, DWORD PTR _pfile$[ebp]
	mov	DWORD PTR [ecx], eax

; 535  : 			pType->m_SizeDelta = RandomRange( szToken );

	lea	eax, DWORD PTR _szToken$[ebp]
	push	eax
	lea	ecx, DWORD PTR $T16[ebp]
	call	??0RandomRange@@QAE@PAD@Z		; RandomRange::RandomRange
	mov	ecx, DWORD PTR _pType$[ebp]
	add	ecx, 160				; 000000a0H
	mov	edx, DWORD PTR [eax]
	mov	DWORD PTR [ecx], edx
	mov	edx, DWORD PTR [eax+4]
	mov	DWORD PTR [ecx+4], edx
	mov	eax, DWORD PTR [eax+8]
	mov	DWORD PTR [ecx+8], eax
	jmp	$LN98@ParseType
$LN35@ParseType:

; 536  : 		}
; 537  : 		else if( !Q_stricmp( szToken, "endsize" ))

	push	99999					; 0001869fH
	push	OFFSET ??_C@_07PDIKKEEP@endsize?$AA@
	lea	eax, DWORD PTR _szToken$[ebp]
	push	eax
	call	?Q_strnicmp@@YAHPBD0H@Z			; Q_strnicmp
	add	esp, 12					; 0000000cH
	test	eax, eax
	jne	SHORT $LN37@ParseType

; 538  : 		{
; 539  : 			pfile = COM_ParseFile( pfile, szToken );

	push	1
	push	1024					; 00000400H
	lea	eax, DWORD PTR _szToken$[ebp]
	push	eax
	mov	ecx, DWORD PTR _pfile$[ebp]
	mov	edx, DWORD PTR [ecx]
	push	edx
	call	?COM_ParseFileExt@@YAPADPAD0J_N@Z	; COM_ParseFileExt
	add	esp, 16					; 00000010H
	mov	ecx, DWORD PTR _pfile$[ebp]
	mov	DWORD PTR [ecx], eax

; 540  : 			pType->m_EndSize = RandomRange( szToken );

	lea	eax, DWORD PTR _szToken$[ebp]
	push	eax
	lea	ecx, DWORD PTR $T15[ebp]
	call	??0RandomRange@@QAE@PAD@Z		; RandomRange::RandomRange
	mov	ecx, DWORD PTR _pType$[ebp]
	add	ecx, 172				; 000000acH
	mov	edx, DWORD PTR [eax]
	mov	DWORD PTR [ecx], edx
	mov	edx, DWORD PTR [eax+4]
	mov	DWORD PTR [ecx+4], edx
	mov	eax, DWORD PTR [eax+8]
	mov	DWORD PTR [ecx+8], eax
	jmp	$LN98@ParseType
$LN37@ParseType:

; 541  : 		}
; 542  : 		else if( !Q_stricmp( szToken, "startangle" ))

	push	99999					; 0001869fH
	push	OFFSET ??_C@_0L@KLEMNPPO@startangle?$AA@
	lea	eax, DWORD PTR _szToken$[ebp]
	push	eax
	call	?Q_strnicmp@@YAHPBD0H@Z			; Q_strnicmp
	add	esp, 12					; 0000000cH
	test	eax, eax
	jne	SHORT $LN39@ParseType

; 543  : 		{
; 544  : 			pfile = COM_ParseFile( pfile, szToken );

	push	1
	push	1024					; 00000400H
	lea	eax, DWORD PTR _szToken$[ebp]
	push	eax
	mov	ecx, DWORD PTR _pfile$[ebp]
	mov	edx, DWORD PTR [ecx]
	push	edx
	call	?COM_ParseFileExt@@YAPADPAD0J_N@Z	; COM_ParseFileExt
	add	esp, 16					; 00000010H
	mov	ecx, DWORD PTR _pfile$[ebp]
	mov	DWORD PTR [ecx], eax

; 545  : 			pType->m_StartAngle = RandomRange( szToken );

	lea	eax, DWORD PTR _szToken$[ebp]
	push	eax
	lea	ecx, DWORD PTR $T14[ebp]
	call	??0RandomRange@@QAE@PAD@Z		; RandomRange::RandomRange
	mov	ecx, DWORD PTR _pType$[ebp]
	add	ecx, 224				; 000000e0H
	mov	edx, DWORD PTR [eax]
	mov	DWORD PTR [ecx], edx
	mov	edx, DWORD PTR [eax+4]
	mov	DWORD PTR [ecx+4], edx
	mov	eax, DWORD PTR [eax+8]
	mov	DWORD PTR [ecx+8], eax
	jmp	$LN98@ParseType
$LN39@ParseType:

; 546  : 		}
; 547  : 		else if( !Q_stricmp( szToken, "angledelta" ))

	push	99999					; 0001869fH
	push	OFFSET ??_C@_0L@DAJNGOFD@angledelta?$AA@
	lea	eax, DWORD PTR _szToken$[ebp]
	push	eax
	call	?Q_strnicmp@@YAHPBD0H@Z			; Q_strnicmp
	add	esp, 12					; 0000000cH
	test	eax, eax
	jne	SHORT $LN41@ParseType

; 548  : 		{
; 549  : 			pfile = COM_ParseFile( pfile, szToken );

	push	1
	push	1024					; 00000400H
	lea	eax, DWORD PTR _szToken$[ebp]
	push	eax
	mov	ecx, DWORD PTR _pfile$[ebp]
	mov	edx, DWORD PTR [ecx]
	push	edx
	call	?COM_ParseFileExt@@YAPADPAD0J_N@Z	; COM_ParseFileExt
	add	esp, 16					; 00000010H
	mov	ecx, DWORD PTR _pfile$[ebp]
	mov	DWORD PTR [ecx], eax

; 550  : 			pType->m_AngleDelta = RandomRange( szToken );

	lea	eax, DWORD PTR _szToken$[ebp]
	push	eax
	lea	ecx, DWORD PTR $T13[ebp]
	call	??0RandomRange@@QAE@PAD@Z		; RandomRange::RandomRange
	mov	ecx, DWORD PTR _pType$[ebp]
	add	ecx, 236				; 000000ecH
	mov	edx, DWORD PTR [eax]
	mov	DWORD PTR [ecx], edx
	mov	edx, DWORD PTR [eax+4]
	mov	DWORD PTR [ecx+4], edx
	mov	eax, DWORD PTR [eax+8]
	mov	DWORD PTR [ecx+8], eax
	jmp	$LN98@ParseType
$LN41@ParseType:

; 551  : 		}
; 552  : 		else if( !Q_stricmp( szToken, "startframe" ))

	push	99999					; 0001869fH
	push	OFFSET ??_C@_0L@DHPAKACO@startframe?$AA@
	lea	eax, DWORD PTR _szToken$[ebp]
	push	eax
	call	?Q_strnicmp@@YAHPBD0H@Z			; Q_strnicmp
	add	esp, 12					; 0000000cH
	test	eax, eax
	jne	SHORT $LN43@ParseType

; 553  : 		{
; 554  : 			pfile = COM_ParseFile( pfile, szToken );

	push	1
	push	1024					; 00000400H
	lea	eax, DWORD PTR _szToken$[ebp]
	push	eax
	mov	ecx, DWORD PTR _pfile$[ebp]
	mov	edx, DWORD PTR [ecx]
	push	edx
	call	?COM_ParseFileExt@@YAPADPAD0J_N@Z	; COM_ParseFileExt
	add	esp, 16					; 00000010H
	mov	ecx, DWORD PTR _pfile$[ebp]
	mov	DWORD PTR [ecx], eax

; 555  : 			pType->m_StartFrame = RandomRange( szToken );

	lea	eax, DWORD PTR _szToken$[ebp]
	push	eax
	lea	ecx, DWORD PTR $T12[ebp]
	call	??0RandomRange@@QAE@PAD@Z		; RandomRange::RandomRange
	mov	ecx, DWORD PTR _pType$[ebp]
	add	ecx, 184				; 000000b8H
	mov	edx, DWORD PTR [eax]
	mov	DWORD PTR [ecx], edx
	mov	edx, DWORD PTR [eax+4]
	mov	DWORD PTR [ecx+4], edx
	mov	eax, DWORD PTR [eax+8]
	mov	DWORD PTR [ecx+8], eax
	jmp	$LN98@ParseType
$LN43@ParseType:

; 556  : 		}
; 557  : 		else if( !Q_stricmp( szToken, "endframe" ))

	push	99999					; 0001869fH
	push	OFFSET ??_C@_08DDDKPNNK@endframe?$AA@
	lea	eax, DWORD PTR _szToken$[ebp]
	push	eax
	call	?Q_strnicmp@@YAHPBD0H@Z			; Q_strnicmp
	add	esp, 12					; 0000000cH
	test	eax, eax
	jne	SHORT $LN45@ParseType

; 558  : 		{
; 559  : 			pfile = COM_ParseFile( pfile, szToken );

	push	1
	push	1024					; 00000400H
	lea	eax, DWORD PTR _szToken$[ebp]
	push	eax
	mov	ecx, DWORD PTR _pfile$[ebp]
	mov	edx, DWORD PTR [ecx]
	push	edx
	call	?COM_ParseFileExt@@YAPADPAD0J_N@Z	; COM_ParseFileExt
	add	esp, 16					; 00000010H
	mov	ecx, DWORD PTR _pfile$[ebp]
	mov	DWORD PTR [ecx], eax

; 560  : 			pType->m_EndFrame = RandomRange( szToken );

	lea	eax, DWORD PTR _szToken$[ebp]
	push	eax
	lea	ecx, DWORD PTR $T11[ebp]
	call	??0RandomRange@@QAE@PAD@Z		; RandomRange::RandomRange
	mov	ecx, DWORD PTR _pType$[ebp]
	add	ecx, 196				; 000000c4H
	mov	edx, DWORD PTR [eax]
	mov	DWORD PTR [ecx], edx
	mov	edx, DWORD PTR [eax+4]
	mov	DWORD PTR [ecx+4], edx
	mov	eax, DWORD PTR [eax+8]
	mov	DWORD PTR [ecx+8], eax

; 561  : 			pType->m_bEndFrame = true;

	mov	eax, DWORD PTR _pType$[ebp]
	mov	BYTE PTR [eax+220], 1
	jmp	$LN98@ParseType
$LN45@ParseType:

; 562  : 		}
; 563  : 		else if( !Q_stricmp( szToken, "framerate" ))

	push	99999					; 0001869fH
	push	OFFSET ??_C@_09PLDKGHKD@framerate?$AA@
	lea	eax, DWORD PTR _szToken$[ebp]
	push	eax
	call	?Q_strnicmp@@YAHPBD0H@Z			; Q_strnicmp
	add	esp, 12					; 0000000cH
	test	eax, eax
	jne	SHORT $LN47@ParseType

; 564  : 		{
; 565  : 			pfile = COM_ParseFile( pfile, szToken );

	push	1
	push	1024					; 00000400H
	lea	eax, DWORD PTR _szToken$[ebp]
	push	eax
	mov	ecx, DWORD PTR _pfile$[ebp]
	mov	edx, DWORD PTR [ecx]
	push	edx
	call	?COM_ParseFileExt@@YAPADPAD0J_N@Z	; COM_ParseFileExt
	add	esp, 16					; 00000010H
	mov	ecx, DWORD PTR _pfile$[ebp]
	mov	DWORD PTR [ecx], eax

; 566  : 			pType->m_FrameRate = RandomRange( szToken );

	lea	eax, DWORD PTR _szToken$[ebp]
	push	eax
	lea	ecx, DWORD PTR $T10[ebp]
	call	??0RandomRange@@QAE@PAD@Z		; RandomRange::RandomRange
	mov	ecx, DWORD PTR _pType$[ebp]
	add	ecx, 208				; 000000d0H
	mov	edx, DWORD PTR [eax]
	mov	DWORD PTR [ecx], edx
	mov	edx, DWORD PTR [eax+4]
	mov	DWORD PTR [ecx+4], edx
	mov	eax, DWORD PTR [eax+8]
	mov	DWORD PTR [ecx+8], eax
	jmp	$LN98@ParseType
$LN47@ParseType:

; 567  : 		}
; 568  : 		else if( !Q_stricmp( szToken, "lifetime" ))

	push	99999					; 0001869fH
	push	OFFSET ??_C@_08MOKDPMFA@lifetime?$AA@
	lea	eax, DWORD PTR _szToken$[ebp]
	push	eax
	call	?Q_strnicmp@@YAHPBD0H@Z			; Q_strnicmp
	add	esp, 12					; 0000000cH
	test	eax, eax
	jne	SHORT $LN49@ParseType

; 569  : 		{
; 570  : 			pfile = COM_ParseFile( pfile, szToken );

	push	1
	push	1024					; 00000400H
	lea	eax, DWORD PTR _szToken$[ebp]
	push	eax
	mov	ecx, DWORD PTR _pfile$[ebp]
	mov	edx, DWORD PTR [ecx]
	push	edx
	call	?COM_ParseFileExt@@YAPADPAD0J_N@Z	; COM_ParseFileExt
	add	esp, 16					; 00000010H
	mov	ecx, DWORD PTR _pfile$[ebp]
	mov	DWORD PTR [ecx], eax

; 571  : 			pType->m_Life = RandomRange( szToken );

	lea	eax, DWORD PTR _szToken$[ebp]
	push	eax
	lea	ecx, DWORD PTR $T9[ebp]
	call	??0RandomRange@@QAE@PAD@Z		; RandomRange::RandomRange
	mov	ecx, DWORD PTR _pType$[ebp]
	add	ecx, 40					; 00000028H
	mov	edx, DWORD PTR [eax]
	mov	DWORD PTR [ecx], edx
	mov	edx, DWORD PTR [eax+4]
	mov	DWORD PTR [ecx+4], edx
	mov	eax, DWORD PTR [eax+8]
	mov	DWORD PTR [ecx+8], eax
	jmp	$LN98@ParseType
$LN49@ParseType:

; 572  : 		}
; 573  : 		else if( !Q_stricmp( szToken, "spraytype" ))

	push	99999					; 0001869fH
	push	OFFSET ??_C@_09EICPLJNJ@spraytype?$AA@
	lea	eax, DWORD PTR _szToken$[ebp]
	push	eax
	call	?Q_strnicmp@@YAHPBD0H@Z			; Q_strnicmp
	add	esp, 12					; 0000000cH
	test	eax, eax
	jne	SHORT $LN51@ParseType

; 574  : 		{
; 575  : 			pfile = COM_ParseFile( pfile, szToken );

	push	1
	push	1024					; 00000400H
	lea	eax, DWORD PTR _szToken$[ebp]
	push	eax
	mov	ecx, DWORD PTR _pfile$[ebp]
	mov	edx, DWORD PTR [ecx]
	push	edx
	call	?COM_ParseFileExt@@YAPADPAD0J_N@Z	; COM_ParseFileExt
	add	esp, 16					; 00000010H
	mov	ecx, DWORD PTR _pfile$[ebp]
	mov	DWORD PTR [ecx], eax

; 576  : 			CParticleType *pTemp = GetType( szToken );

	lea	eax, DWORD PTR _szToken$[ebp]
	push	eax
	mov	ecx, DWORD PTR _this$[ebp]
	call	?GetType@CParticleSystem@@QAEPAVCParticleType@@PBD@Z ; CParticleSystem::GetType
	mov	DWORD PTR _pTemp$33[ebp], eax

; 577  : 
; 578  : 			if( pTemp )

	cmp	DWORD PTR _pTemp$33[ebp], 0
	je	SHORT $LN53@ParseType

; 579  : 				pType->m_pSprayType = pTemp;

	mov	eax, DWORD PTR _pType$[ebp]
	mov	ecx, DWORD PTR _pTemp$33[ebp]
	mov	DWORD PTR [eax+308], ecx

; 580  : 			else

	jmp	SHORT $LN54@ParseType
$LN53@ParseType:

; 581  : 				pType->m_pSprayType = AddPlaceholderType( szToken );

	lea	eax, DWORD PTR _szToken$[ebp]
	push	eax
	mov	ecx, DWORD PTR _this$[ebp]
	call	?AddPlaceholderType@CParticleSystem@@QAEPAVCParticleType@@PBD@Z ; CParticleSystem::AddPlaceholderType
	mov	ecx, DWORD PTR _pType$[ebp]
	mov	DWORD PTR [ecx+308], eax
$LN54@ParseType:
	jmp	$LN98@ParseType
$LN51@ParseType:

; 582  : 		}
; 583  : 		else if( !Q_stricmp( szToken, "overlaytype" ))

	push	99999					; 0001869fH
	push	OFFSET ??_C@_0M@PBFGIGDJ@overlaytype?$AA@
	lea	eax, DWORD PTR _szToken$[ebp]
	push	eax
	call	?Q_strnicmp@@YAHPBD0H@Z			; Q_strnicmp
	add	esp, 12					; 0000000cH
	test	eax, eax
	jne	SHORT $LN55@ParseType

; 584  : 		{
; 585  : 			pfile = COM_ParseFile( pfile, szToken );

	push	1
	push	1024					; 00000400H
	lea	eax, DWORD PTR _szToken$[ebp]
	push	eax
	mov	ecx, DWORD PTR _pfile$[ebp]
	mov	edx, DWORD PTR [ecx]
	push	edx
	call	?COM_ParseFileExt@@YAPADPAD0J_N@Z	; COM_ParseFileExt
	add	esp, 16					; 00000010H
	mov	ecx, DWORD PTR _pfile$[ebp]
	mov	DWORD PTR [ecx], eax

; 586  : 			CParticleType *pTemp = GetType( szToken );

	lea	eax, DWORD PTR _szToken$[ebp]
	push	eax
	mov	ecx, DWORD PTR _this$[ebp]
	call	?GetType@CParticleSystem@@QAEPAVCParticleType@@PBD@Z ; CParticleSystem::GetType
	mov	DWORD PTR _pTemp$32[ebp], eax

; 587  : 
; 588  : 			if( pTemp )

	cmp	DWORD PTR _pTemp$32[ebp], 0
	je	SHORT $LN57@ParseType

; 589  : 				pType->m_pOverlayType = pTemp;

	mov	eax, DWORD PTR _pType$[ebp]
	mov	ecx, DWORD PTR _pTemp$32[ebp]
	mov	DWORD PTR [eax+352], ecx

; 590  : 			else

	jmp	SHORT $LN58@ParseType
$LN57@ParseType:

; 591  : 				pType->m_pOverlayType = AddPlaceholderType( szToken );

	lea	eax, DWORD PTR _szToken$[ebp]
	push	eax
	mov	ecx, DWORD PTR _this$[ebp]
	call	?AddPlaceholderType@CParticleSystem@@QAEPAVCParticleType@@PBD@Z ; CParticleSystem::AddPlaceholderType
	mov	ecx, DWORD PTR _pType$[ebp]
	mov	DWORD PTR [ecx+352], eax
$LN58@ParseType:
	jmp	$LN98@ParseType
$LN55@ParseType:

; 592  : 		}
; 593  : 		else if( !Q_stricmp( szToken, "sprayrate" ))

	push	99999					; 0001869fH
	push	OFFSET ??_C@_09FFMLJLNF@sprayrate?$AA@
	lea	eax, DWORD PTR _szToken$[ebp]
	push	eax
	call	?Q_strnicmp@@YAHPBD0H@Z			; Q_strnicmp
	add	esp, 12					; 0000000cH
	test	eax, eax
	jne	SHORT $LN59@ParseType

; 594  : 		{
; 595  : 			pfile = COM_ParseFile( pfile, szToken );

	push	1
	push	1024					; 00000400H
	lea	eax, DWORD PTR _szToken$[ebp]
	push	eax
	mov	ecx, DWORD PTR _pfile$[ebp]
	mov	edx, DWORD PTR [ecx]
	push	edx
	call	?COM_ParseFileExt@@YAPADPAD0J_N@Z	; COM_ParseFileExt
	add	esp, 16					; 00000010H
	mov	ecx, DWORD PTR _pfile$[ebp]
	mov	DWORD PTR [ecx], eax

; 596  : 			pType->m_SprayRate = RandomRange( szToken );

	lea	eax, DWORD PTR _szToken$[ebp]
	push	eax
	lea	ecx, DWORD PTR $T8[ebp]
	call	??0RandomRange@@QAE@PAD@Z		; RandomRange::RandomRange
	mov	ecx, DWORD PTR _pType$[ebp]
	add	ecx, 248				; 000000f8H
	mov	edx, DWORD PTR [eax]
	mov	DWORD PTR [ecx], edx
	mov	edx, DWORD PTR [eax+4]
	mov	DWORD PTR [ecx+4], edx
	mov	eax, DWORD PTR [eax+8]
	mov	DWORD PTR [ecx+8], eax
	jmp	$LN98@ParseType
$LN59@ParseType:

; 597  : 		}
; 598  : 		else if( !Q_stricmp( szToken, "sprayforce" ))

	push	99999					; 0001869fH
	push	OFFSET ??_C@_0L@OIPHKPKA@sprayforce?$AA@
	lea	eax, DWORD PTR _szToken$[ebp]
	push	eax
	call	?Q_strnicmp@@YAHPBD0H@Z			; Q_strnicmp
	add	esp, 12					; 0000000cH
	test	eax, eax
	jne	SHORT $LN61@ParseType

; 599  : 		{
; 600  : 			pfile = COM_ParseFile( pfile, szToken );

	push	1
	push	1024					; 00000400H
	lea	eax, DWORD PTR _szToken$[ebp]
	push	eax
	mov	ecx, DWORD PTR _pfile$[ebp]
	mov	edx, DWORD PTR [ecx]
	push	edx
	call	?COM_ParseFileExt@@YAPADPAD0J_N@Z	; COM_ParseFileExt
	add	esp, 16					; 00000010H
	mov	ecx, DWORD PTR _pfile$[ebp]
	mov	DWORD PTR [ecx], eax

; 601  : 			pType->m_SprayForce = RandomRange( szToken );

	lea	eax, DWORD PTR _szToken$[ebp]
	push	eax
	lea	ecx, DWORD PTR $T7[ebp]
	call	??0RandomRange@@QAE@PAD@Z		; RandomRange::RandomRange
	mov	ecx, DWORD PTR _pType$[ebp]
	add	ecx, 260				; 00000104H
	mov	edx, DWORD PTR [eax]
	mov	DWORD PTR [ecx], edx
	mov	edx, DWORD PTR [eax+4]
	mov	DWORD PTR [ecx+4], edx
	mov	eax, DWORD PTR [eax+8]
	mov	DWORD PTR [ecx+8], eax
	jmp	$LN98@ParseType
$LN61@ParseType:

; 602  : 		}
; 603  : 		else if( !Q_stricmp( szToken, "spraypitch" ))

	push	99999					; 0001869fH
	push	OFFSET ??_C@_0L@CCPNJKBH@spraypitch?$AA@
	lea	eax, DWORD PTR _szToken$[ebp]
	push	eax
	call	?Q_strnicmp@@YAHPBD0H@Z			; Q_strnicmp
	add	esp, 12					; 0000000cH
	test	eax, eax
	jne	SHORT $LN63@ParseType

; 604  : 		{
; 605  : 			pfile = COM_ParseFile( pfile, szToken );

	push	1
	push	1024					; 00000400H
	lea	eax, DWORD PTR _szToken$[ebp]
	push	eax
	mov	ecx, DWORD PTR _pfile$[ebp]
	mov	edx, DWORD PTR [ecx]
	push	edx
	call	?COM_ParseFileExt@@YAPADPAD0J_N@Z	; COM_ParseFileExt
	add	esp, 16					; 00000010H
	mov	ecx, DWORD PTR _pfile$[ebp]
	mov	DWORD PTR [ecx], eax

; 606  : 			pType->m_SprayPitch = RandomRange( szToken );

	lea	eax, DWORD PTR _szToken$[ebp]
	push	eax
	lea	ecx, DWORD PTR $T6[ebp]
	call	??0RandomRange@@QAE@PAD@Z		; RandomRange::RandomRange
	mov	ecx, DWORD PTR _pType$[ebp]
	add	ecx, 272				; 00000110H
	mov	edx, DWORD PTR [eax]
	mov	DWORD PTR [ecx], edx
	mov	edx, DWORD PTR [eax+4]
	mov	DWORD PTR [ecx+4], edx
	mov	eax, DWORD PTR [eax+8]
	mov	DWORD PTR [ecx+8], eax
	jmp	$LN98@ParseType
$LN63@ParseType:

; 607  : 		}
; 608  : 		else if( !Q_stricmp( szToken, "sprayyaw" ))

	push	99999					; 0001869fH
	push	OFFSET ??_C@_08PEJLLKC@sprayyaw?$AA@
	lea	eax, DWORD PTR _szToken$[ebp]
	push	eax
	call	?Q_strnicmp@@YAHPBD0H@Z			; Q_strnicmp
	add	esp, 12					; 0000000cH
	test	eax, eax
	jne	SHORT $LN65@ParseType

; 609  : 		{
; 610  : 			pfile = COM_ParseFile( pfile, szToken );

	push	1
	push	1024					; 00000400H
	lea	eax, DWORD PTR _szToken$[ebp]
	push	eax
	mov	ecx, DWORD PTR _pfile$[ebp]
	mov	edx, DWORD PTR [ecx]
	push	edx
	call	?COM_ParseFileExt@@YAPADPAD0J_N@Z	; COM_ParseFileExt
	add	esp, 16					; 00000010H
	mov	ecx, DWORD PTR _pfile$[ebp]
	mov	DWORD PTR [ecx], eax

; 611  : 			pType->m_SprayYaw = RandomRange( szToken );

	lea	eax, DWORD PTR _szToken$[ebp]
	push	eax
	lea	ecx, DWORD PTR $T5[ebp]
	call	??0RandomRange@@QAE@PAD@Z		; RandomRange::RandomRange
	mov	ecx, DWORD PTR _pType$[ebp]
	add	ecx, 284				; 0000011cH
	mov	edx, DWORD PTR [eax]
	mov	DWORD PTR [ecx], edx
	mov	edx, DWORD PTR [eax+4]
	mov	DWORD PTR [ecx+4], edx
	mov	eax, DWORD PTR [eax+8]
	mov	DWORD PTR [ecx+8], eax
	jmp	$LN98@ParseType
$LN65@ParseType:

; 612  : 		}
; 613  : 		else if( !Q_stricmp( szToken, "drag" ))

	push	99999					; 0001869fH
	push	OFFSET ??_C@_04PHPAONAP@drag?$AA@
	lea	eax, DWORD PTR _szToken$[ebp]
	push	eax
	call	?Q_strnicmp@@YAHPBD0H@Z			; Q_strnicmp
	add	esp, 12					; 0000000cH
	test	eax, eax
	jne	SHORT $LN67@ParseType

; 614  : 		{
; 615  : 			pfile = COM_ParseFile( pfile, szToken );

	push	1
	push	1024					; 00000400H
	lea	eax, DWORD PTR _szToken$[ebp]
	push	eax
	mov	ecx, DWORD PTR _pfile$[ebp]
	mov	edx, DWORD PTR [ecx]
	push	edx
	call	?COM_ParseFileExt@@YAPADPAD0J_N@Z	; COM_ParseFileExt
	add	esp, 16					; 00000010H
	mov	ecx, DWORD PTR _pfile$[ebp]
	mov	DWORD PTR [ecx], eax

; 616  : 			pType->m_Drag = RandomRange( szToken );

	lea	eax, DWORD PTR _szToken$[ebp]
	push	eax
	lea	ecx, DWORD PTR $T4[ebp]
	call	??0RandomRange@@QAE@PAD@Z		; RandomRange::RandomRange
	mov	ecx, DWORD PTR _pType$[ebp]
	add	ecx, 356				; 00000164H
	mov	edx, DWORD PTR [eax]
	mov	DWORD PTR [ecx], edx
	mov	edx, DWORD PTR [eax+4]
	mov	DWORD PTR [ecx+4], edx
	mov	eax, DWORD PTR [eax+8]
	mov	DWORD PTR [ecx+8], eax
	jmp	$LN98@ParseType
$LN67@ParseType:

; 617  : 		}
; 618  : 		else if( !Q_stricmp( szToken, "bounce" ))

	push	99999					; 0001869fH
	push	OFFSET ??_C@_06DPMIMFNG@bounce?$AA@
	lea	eax, DWORD PTR _szToken$[ebp]
	push	eax
	call	?Q_strnicmp@@YAHPBD0H@Z			; Q_strnicmp
	add	esp, 12					; 0000000cH
	test	eax, eax
	jne	SHORT $LN69@ParseType

; 619  : 		{
; 620  : 			pfile = COM_ParseFile( pfile, szToken );

	push	1
	push	1024					; 00000400H
	lea	eax, DWORD PTR _szToken$[ebp]
	push	eax
	mov	ecx, DWORD PTR _pfile$[ebp]
	mov	edx, DWORD PTR [ecx]
	push	edx
	call	?COM_ParseFileExt@@YAPADPAD0J_N@Z	; COM_ParseFileExt
	add	esp, 16					; 00000010H
	mov	ecx, DWORD PTR _pfile$[ebp]
	mov	DWORD PTR [ecx], eax

; 621  : 			pType->m_Bounce = RandomRange( szToken );

	lea	eax, DWORD PTR _szToken$[ebp]
	push	eax
	lea	ecx, DWORD PTR $T3[ebp]
	call	??0RandomRange@@QAE@PAD@Z		; RandomRange::RandomRange
	mov	ecx, DWORD PTR _pType$[ebp]
	add	ecx, 12					; 0000000cH
	mov	edx, DWORD PTR [eax]
	mov	DWORD PTR [ecx], edx
	mov	edx, DWORD PTR [eax+4]
	mov	DWORD PTR [ecx+4], edx
	mov	eax, DWORD PTR [eax+8]
	mov	DWORD PTR [ecx+8], eax

; 622  : 
; 623  : 			if( pType->m_Bounce.m_flMin != 0 || pType->m_Bounce.m_flMax != 0 )

	mov	eax, DWORD PTR _pType$[ebp]
	movss	xmm0, DWORD PTR [eax+12]
	ucomiss	xmm0, DWORD PTR __real@00000000
	lahf
	test	ah, 68					; 00000044H
	jp	SHORT $LN72@ParseType
	mov	eax, DWORD PTR _pType$[ebp]
	movss	xmm0, DWORD PTR [eax+16]
	ucomiss	xmm0, DWORD PTR __real@00000000
	lahf
	test	ah, 68					; 00000044H
	jnp	SHORT $LN71@ParseType
$LN72@ParseType:

; 624  : 				pType->m_bBouncing = true;

	mov	eax, DWORD PTR _pType$[ebp]
	mov	BYTE PTR [eax+36], 1
$LN71@ParseType:

; 625  : 		}

	jmp	$LN98@ParseType
$LN69@ParseType:

; 626  : 		else if( !Q_stricmp( szToken, "bouncefriction" ))

	push	99999					; 0001869fH
	push	OFFSET ??_C@_0P@CDFGFCIK@bouncefriction?$AA@
	lea	eax, DWORD PTR _szToken$[ebp]
	push	eax
	call	?Q_strnicmp@@YAHPBD0H@Z			; Q_strnicmp
	add	esp, 12					; 0000000cH
	test	eax, eax
	jne	SHORT $LN73@ParseType

; 627  : 		{
; 628  : 			pfile = COM_ParseFile( pfile, szToken );

	push	1
	push	1024					; 00000400H
	lea	eax, DWORD PTR _szToken$[ebp]
	push	eax
	mov	ecx, DWORD PTR _pfile$[ebp]
	mov	edx, DWORD PTR [ecx]
	push	edx
	call	?COM_ParseFileExt@@YAPADPAD0J_N@Z	; COM_ParseFileExt
	add	esp, 16					; 00000010H
	mov	ecx, DWORD PTR _pfile$[ebp]
	mov	DWORD PTR [ecx], eax

; 629  : 			pType->m_BounceFriction = RandomRange( szToken );

	lea	eax, DWORD PTR _szToken$[ebp]
	push	eax
	lea	ecx, DWORD PTR $T2[ebp]
	call	??0RandomRange@@QAE@PAD@Z		; RandomRange::RandomRange
	mov	ecx, DWORD PTR _pType$[ebp]
	add	ecx, 24					; 00000018H
	mov	edx, DWORD PTR [eax]
	mov	DWORD PTR [ecx], edx
	mov	edx, DWORD PTR [eax+4]
	mov	DWORD PTR [ecx+4], edx
	mov	eax, DWORD PTR [eax+8]
	mov	DWORD PTR [ecx+8], eax
	jmp	$LN98@ParseType
$LN73@ParseType:

; 630  : 		}
; 631  : 		else if( !Q_stricmp( szToken, "rendermode" ))

	push	99999					; 0001869fH
	push	OFFSET ??_C@_0L@PCPPJFN@rendermode?$AA@
	lea	eax, DWORD PTR _szToken$[ebp]
	push	eax
	call	?Q_strnicmp@@YAHPBD0H@Z			; Q_strnicmp
	add	esp, 12					; 0000000cH
	test	eax, eax
	jne	$LN75@ParseType

; 632  : 		{
; 633  : 			pfile = COM_ParseFile( pfile, szToken );

	push	1
	push	1024					; 00000400H
	lea	eax, DWORD PTR _szToken$[ebp]
	push	eax
	mov	ecx, DWORD PTR _pfile$[ebp]
	mov	edx, DWORD PTR [ecx]
	push	edx
	call	?COM_ParseFileExt@@YAPADPAD0J_N@Z	; COM_ParseFileExt
	add	esp, 16					; 00000010H
	mov	ecx, DWORD PTR _pfile$[ebp]
	mov	DWORD PTR [ecx], eax

; 634  : 
; 635  : 			if( !Q_stricmp( szToken, "additive" ))

	push	99999					; 0001869fH
	push	OFFSET ??_C@_08FEMHJDBF@additive?$AA@
	lea	eax, DWORD PTR _szToken$[ebp]
	push	eax
	call	?Q_strnicmp@@YAHPBD0H@Z			; Q_strnicmp
	add	esp, 12					; 0000000cH
	test	eax, eax
	jne	SHORT $LN77@ParseType

; 636  : 			{
; 637  : 				pType->m_iRenderMode = kRenderTransAdd;

	mov	eax, DWORD PTR _pType$[ebp]
	mov	DWORD PTR [eax+4], 5
	jmp	SHORT $LN83@ParseType
$LN77@ParseType:

; 638  : 			}
; 639  : 			else if( !Q_stricmp( szToken, "solid" ))

	push	99999					; 0001869fH
	push	OFFSET ??_C@_05OPIONHBI@solid?$AA@
	lea	eax, DWORD PTR _szToken$[ebp]
	push	eax
	call	?Q_strnicmp@@YAHPBD0H@Z			; Q_strnicmp
	add	esp, 12					; 0000000cH
	test	eax, eax
	jne	SHORT $LN79@ParseType

; 640  : 			{
; 641  : 				pType->m_iRenderMode = kRenderTransAlpha;

	mov	eax, DWORD PTR _pType$[ebp]
	mov	DWORD PTR [eax+4], 4
	jmp	SHORT $LN83@ParseType
$LN79@ParseType:

; 642  : 			}
; 643  : 			else if( !Q_stricmp( szToken, "texture" ))

	push	99999					; 0001869fH
	push	OFFSET ??_C@_07JDHEGGGP@texture?$AA@
	lea	eax, DWORD PTR _szToken$[ebp]
	push	eax
	call	?Q_strnicmp@@YAHPBD0H@Z			; Q_strnicmp
	add	esp, 12					; 0000000cH
	test	eax, eax
	jne	SHORT $LN81@ParseType

; 644  : 			{
; 645  : 				pType->m_iRenderMode = kRenderTransTexture;

	mov	eax, DWORD PTR _pType$[ebp]
	mov	DWORD PTR [eax+4], 2
	jmp	SHORT $LN83@ParseType
$LN81@ParseType:

; 646  : 			}
; 647  : 			else if( !Q_stricmp( szToken, "color" ))

	push	99999					; 0001869fH
	push	OFFSET ??_C@_05PEENBMOG@color?$AA@
	lea	eax, DWORD PTR _szToken$[ebp]
	push	eax
	call	?Q_strnicmp@@YAHPBD0H@Z			; Q_strnicmp
	add	esp, 12					; 0000000cH
	test	eax, eax
	jne	SHORT $LN83@ParseType

; 648  : 			{
; 649  : 				pType->m_iRenderMode = kRenderTransColor;

	mov	eax, DWORD PTR _pType$[ebp]
	mov	DWORD PTR [eax+4], 1
$LN83@ParseType:

; 650  : 			}
; 651  : 		}

	jmp	$LN98@ParseType
$LN75@ParseType:

; 652  : 		else if( !Q_stricmp( szToken, "drawcondition" ))

	push	99999					; 0001869fH
	push	OFFSET ??_C@_0O@NLJDGJIL@drawcondition?$AA@
	lea	eax, DWORD PTR _szToken$[ebp]
	push	eax
	call	?Q_strnicmp@@YAHPBD0H@Z			; Q_strnicmp
	add	esp, 12					; 0000000cH
	test	eax, eax
	jne	$LN98@ParseType

; 653  : 		{
; 654  : 			pfile = COM_ParseFile( pfile, szToken );

	push	1
	push	1024					; 00000400H
	lea	eax, DWORD PTR _szToken$[ebp]
	push	eax
	mov	ecx, DWORD PTR _pfile$[ebp]
	mov	edx, DWORD PTR [ecx]
	push	edx
	call	?COM_ParseFileExt@@YAPADPAD0J_N@Z	; COM_ParseFileExt
	add	esp, 16					; 00000010H
	mov	ecx, DWORD PTR _pfile$[ebp]
	mov	DWORD PTR [ecx], eax

; 655  : 
; 656  : 			if( !Q_stricmp( szToken, "empty" ))

	push	99999					; 0001869fH
	push	OFFSET ??_C@_05LBJMNBOG@empty?$AA@
	lea	eax, DWORD PTR _szToken$[ebp]
	push	eax
	call	?Q_strnicmp@@YAHPBD0H@Z			; Q_strnicmp
	add	esp, 12					; 0000000cH
	test	eax, eax
	jne	SHORT $LN85@ParseType

; 657  : 			{
; 658  : 				pType->m_iDrawCond = CONTENTS_EMPTY;

	mov	eax, DWORD PTR _pType$[ebp]
	mov	DWORD PTR [eax+8], -1
	jmp	$LN98@ParseType
$LN85@ParseType:

; 659  : 			}
; 660  : 			else if( !Q_stricmp( szToken, "water" ))

	push	99999					; 0001869fH
	push	OFFSET ??_C@_05ELAABIKM@water?$AA@
	lea	eax, DWORD PTR _szToken$[ebp]
	push	eax
	call	?Q_strnicmp@@YAHPBD0H@Z			; Q_strnicmp
	add	esp, 12					; 0000000cH
	test	eax, eax
	jne	SHORT $LN87@ParseType

; 661  : 			{
; 662  : 				pType->m_iDrawCond = CONTENTS_WATER;

	mov	eax, DWORD PTR _pType$[ebp]
	mov	DWORD PTR [eax+8], -3			; fffffffdH
	jmp	$LN98@ParseType
$LN87@ParseType:

; 663  : 			}
; 664  : 			else if( !Q_stricmp( szToken, "solid" ))

	push	99999					; 0001869fH
	push	OFFSET ??_C@_05OPIONHBI@solid?$AA@
	lea	eax, DWORD PTR _szToken$[ebp]
	push	eax
	call	?Q_strnicmp@@YAHPBD0H@Z			; Q_strnicmp
	add	esp, 12					; 0000000cH
	test	eax, eax
	jne	SHORT $LN89@ParseType

; 665  : 			{
; 666  : 				pType->m_iDrawCond = CONTENTS_SOLID;

	mov	eax, DWORD PTR _pType$[ebp]
	mov	DWORD PTR [eax+8], -2			; fffffffeH
	jmp	$LN98@ParseType
$LN89@ParseType:

; 667  : 			}
; 668  : 			else if( !Q_stricmp( szToken, "special" ) || !Q_stricmp( szToken, "special1" ))

	push	99999					; 0001869fH
	push	OFFSET ??_C@_07BELCMIIP@special?$AA@
	lea	eax, DWORD PTR _szToken$[ebp]
	push	eax
	call	?Q_strnicmp@@YAHPBD0H@Z			; Q_strnicmp
	add	esp, 12					; 0000000cH
	test	eax, eax
	je	SHORT $LN93@ParseType
	push	99999					; 0001869fH
	push	OFFSET ??_C@_08LLEOCLML@special1?$AA@
	lea	eax, DWORD PTR _szToken$[ebp]
	push	eax
	call	?Q_strnicmp@@YAHPBD0H@Z			; Q_strnicmp
	add	esp, 12					; 0000000cH
	test	eax, eax
	jne	SHORT $LN91@ParseType
$LN93@ParseType:

; 669  : 			{
; 670  : 				pType->m_iDrawCond = CONTENT_SPECIAL1;

	mov	eax, DWORD PTR _pType$[ebp]
	mov	DWORD PTR [eax+8], -20			; ffffffecH
	jmp	SHORT $LN98@ParseType
$LN91@ParseType:

; 671  : 			}
; 672  : 			else if( !Q_stricmp( szToken, "special2" ))

	push	99999					; 0001869fH
	push	OFFSET ??_C@_08JAGDHIAI@special2?$AA@
	lea	eax, DWORD PTR _szToken$[ebp]
	push	eax
	call	?Q_strnicmp@@YAHPBD0H@Z			; Q_strnicmp
	add	esp, 12					; 0000000cH
	test	eax, eax
	jne	SHORT $LN94@ParseType

; 673  : 			{
; 674  : 				pType->m_iDrawCond = CONTENT_SPECIAL2;

	mov	eax, DWORD PTR _pType$[ebp]
	mov	DWORD PTR [eax+8], -21			; ffffffebH
	jmp	SHORT $LN98@ParseType
$LN94@ParseType:

; 675  : 			}
; 676  : 			else if( !Q_stricmp( szToken, "special3" ))

	push	99999					; 0001869fH
	push	OFFSET ??_C@_08IJHIEJEJ@special3?$AA@
	lea	eax, DWORD PTR _szToken$[ebp]
	push	eax
	call	?Q_strnicmp@@YAHPBD0H@Z			; Q_strnicmp
	add	esp, 12					; 0000000cH
	test	eax, eax
	jne	SHORT $LN96@ParseType

; 677  : 			{
; 678  : 				pType->m_iDrawCond = CONTENT_SPECIAL3;

	mov	eax, DWORD PTR _pType$[ebp]
	mov	DWORD PTR [eax+8], -22			; ffffffeaH
	jmp	SHORT $LN98@ParseType
$LN96@ParseType:

; 679  : 			}
; 680  : 			else if( !Q_stricmp( szToken, "spotlight" ))

	push	99999					; 0001869fH
	push	OFFSET ??_C@_09KADGBPCF@spotlight?$AA@
	lea	eax, DWORD PTR _szToken$[ebp]
	push	eax
	call	?Q_strnicmp@@YAHPBD0H@Z			; Q_strnicmp
	add	esp, 12					; 0000000cH
	test	eax, eax
	jne	SHORT $LN98@ParseType

; 681  : 			{
; 682  : 				pType->m_iDrawCond = CONTENT_SPOTLIGHT;

	mov	eax, DWORD PTR _pType$[ebp]
	mov	DWORD PTR [eax+8], -23			; ffffffe9H
$LN98@ParseType:

; 683  : 			}
; 684  : 		}
; 685  : 
; 686  : 		// get the next token
; 687  : 		pfile = COM_ParseFile( pfile, szToken );

	push	1
	push	1024					; 00000400H
	lea	eax, DWORD PTR _szToken$[ebp]
	push	eax
	mov	ecx, DWORD PTR _pfile$[ebp]
	mov	edx, DWORD PTR [ecx]
	push	edx
	call	?COM_ParseFileExt@@YAPADPAD0J_N@Z	; COM_ParseFileExt
	add	esp, 16					; 00000010H
	mov	ecx, DWORD PTR _pfile$[ebp]
	mov	DWORD PTR [ecx], eax

; 688  : 	}

	jmp	$LN2@ParseType
$LN3@ParseType:

; 689  : 
; 690  : 	if( !pType->m_bIsDefined )

	mov	eax, DWORD PTR _pType$[ebp]
	movzx	ecx, BYTE PTR [eax]
	test	ecx, ecx
	jne	SHORT $LN99@ParseType

; 691  : 	{
; 692  : 		// if this is a newly-defined type, we need to add it to the list
; 693  : 		pType->m_pNext = m_pFirstType;

	mov	eax, DWORD PTR _pType$[ebp]
	mov	ecx, DWORD PTR _this$[ebp]
	mov	edx, DWORD PTR [ecx+104]
	mov	DWORD PTR [eax+368], edx

; 694  : 		m_pFirstType = pType;

	mov	eax, DWORD PTR _this$[ebp]
	mov	ecx, DWORD PTR _pType$[ebp]
	mov	DWORD PTR [eax+104], ecx

; 695  : 		pType->m_bIsDefined = true;

	mov	eax, DWORD PTR _pType$[ebp]
	mov	BYTE PTR [eax], 1
$LN99@ParseType:

; 696  : 	}
; 697  : 
; 698  : 	return pType;

	mov	eax, DWORD PTR _pType$[ebp]

; 699  : }

	mov	ecx, DWORD PTR __$EHRec$[ebp]
	mov	DWORD PTR fs:0, ecx
	pop	ecx
	pop	edi
	pop	esi
	pop	ebx
	mov	ecx, DWORD PTR __$ArrayPad$[ebp]
	xor	ecx, ebp
	call	@__security_check_cookie@4
	mov	esp, ebp
	pop	ebp
	ret	4
_TEXT	ENDS
;	COMDAT text$x
text$x	SEGMENT
__unwindfunclet$?ParseType@CParticleSystem@@QAEPAVCParticleType@@AAPAD@Z$0:
	push	404					; 00000194H
	mov	eax, DWORD PTR $T30[ebp]
	push	eax
	call	??3@YAXPAXI@Z				; operator delete
	add	esp, 8
	ret	0
__ehhandler$?ParseType@CParticleSystem@@QAEPAVCParticleType@@AAPAD@Z:
	mov	edx, DWORD PTR [esp+8]
	lea	eax, DWORD PTR [edx+12]
	mov	ecx, DWORD PTR [edx-1596]
	xor	ecx, eax
	call	@__security_check_cookie@4
	mov	ecx, DWORD PTR [edx-4]
	xor	ecx, eax
	call	@__security_check_cookie@4
	mov	eax, OFFSET __ehfuncinfo$?ParseType@CParticleSystem@@QAEPAVCParticleType@@AAPAD@Z
	jmp	___CxxFrameHandler3
text$x	ENDS
?ParseType@CParticleSystem@@QAEPAVCParticleType@@AAPAD@Z ENDP ; CParticleSystem::ParseType
; Function compile flags: /Odtp /ZI
; File d:\!diffusion 2020\source code 2022\client-server\client\render\r_particle.cpp
;	COMDAT ?AddPlaceholderType@CParticleSystem@@QAEPAVCParticleType@@PBD@Z
_TEXT	SEGMENT
tv78 = -92						; size = 4
$T2 = -88						; size = 4
$T3 = -84						; size = 4
_this$ = -16						; size = 4
__$EHRec$ = -12						; size = 12
_szName$ = 8						; size = 4
?AddPlaceholderType@CParticleSystem@@QAEPAVCParticleType@@PBD@Z PROC ; CParticleSystem::AddPlaceholderType, COMDAT
; _this$ = ecx

; 425  : {

	push	ebp
	mov	ebp, esp
	push	-1
	push	__ehhandler$?AddPlaceholderType@CParticleSystem@@QAEPAVCParticleType@@PBD@Z
	mov	eax, DWORD PTR fs:0
	push	eax
	sub	esp, 80					; 00000050H
	push	ebx
	push	esi
	push	edi
	mov	eax, DWORD PTR ___security_cookie
	xor	eax, ebp
	push	eax
	lea	eax, DWORD PTR __$EHRec$[ebp]
	mov	DWORD PTR fs:0, eax
	mov	DWORD PTR _this$[ebp], ecx

; 426  : 	m_pFirstType = new CParticleType( m_pFirstType );

	push	404					; 00000194H
	call	??2@YAPAXI@Z				; operator new
	add	esp, 4
	mov	DWORD PTR $T2[ebp], eax
	mov	DWORD PTR __$EHRec$[ebp+8], 0
	cmp	DWORD PTR $T2[ebp], 0
	je	SHORT $LN3@AddPlaceho
	mov	eax, DWORD PTR _this$[ebp]
	mov	ecx, DWORD PTR [eax+104]
	push	ecx
	mov	ecx, DWORD PTR $T2[ebp]
	call	??0CParticleType@@QAE@PAV0@@Z		; CParticleType::CParticleType
	mov	DWORD PTR tv78[ebp], eax
	jmp	SHORT $LN4@AddPlaceho
$LN3@AddPlaceho:
	mov	DWORD PTR tv78[ebp], 0
$LN4@AddPlaceho:
	mov	edx, DWORD PTR tv78[ebp]
	mov	DWORD PTR $T3[ebp], edx
	mov	DWORD PTR __$EHRec$[ebp+8], -1
	mov	eax, DWORD PTR _this$[ebp]
	mov	ecx, DWORD PTR $T3[ebp]
	mov	DWORD PTR [eax+104], ecx

; 427  : 	Q_strncpy( m_pFirstType->m_szName, szName, sizeof( m_pFirstType->m_szName ));

	push	32					; 00000020H
	mov	eax, DWORD PTR _szName$[ebp]
	push	eax
	mov	ecx, DWORD PTR _this$[ebp]
	mov	edx, DWORD PTR [ecx+104]
	add	edx, 372				; 00000174H
	push	edx
	call	?Q_strncpy@@YAIPADPBDI@Z		; Q_strncpy
	add	esp, 12					; 0000000cH

; 428  : 
; 429  : 	return m_pFirstType;

	mov	eax, DWORD PTR _this$[ebp]
	mov	eax, DWORD PTR [eax+104]

; 430  : }

	mov	ecx, DWORD PTR __$EHRec$[ebp]
	mov	DWORD PTR fs:0, ecx
	pop	ecx
	pop	edi
	pop	esi
	pop	ebx
	mov	esp, ebp
	pop	ebp
	ret	4
_TEXT	ENDS
;	COMDAT text$x
text$x	SEGMENT
__unwindfunclet$?AddPlaceholderType@CParticleSystem@@QAEPAVCParticleType@@PBD@Z$0:
	push	404					; 00000194H
	mov	eax, DWORD PTR $T2[ebp]
	push	eax
	call	??3@YAXPAXI@Z				; operator delete
	add	esp, 8
	ret	0
__ehhandler$?AddPlaceholderType@CParticleSystem@@QAEPAVCParticleType@@PBD@Z:
	mov	edx, DWORD PTR [esp+8]
	lea	eax, DWORD PTR [edx+12]
	mov	ecx, DWORD PTR [edx-96]
	xor	ecx, eax
	call	@__security_check_cookie@4
	mov	eax, OFFSET __ehfuncinfo$?AddPlaceholderType@CParticleSystem@@QAEPAVCParticleType@@PBD@Z
	jmp	___CxxFrameHandler3
text$x	ENDS
?AddPlaceholderType@CParticleSystem@@QAEPAVCParticleType@@PBD@Z ENDP ; CParticleSystem::AddPlaceholderType
; Function compile flags: /Odtp /ZI
; File d:\!diffusion 2020\source code 2022\client-server\client\render\r_particle.cpp
;	COMDAT ?GetType@CParticleSystem@@QAEPAVCParticleType@@PBD@Z
_TEXT	SEGMENT
_pType$1 = -8						; size = 4
_this$ = -4						; size = 4
_szName$ = 8						; size = 4
?GetType@CParticleSystem@@QAEPAVCParticleType@@PBD@Z PROC ; CParticleSystem::GetType, COMDAT
; _this$ = ecx

; 415  : {

	push	ebp
	mov	ebp, esp
	sub	esp, 72					; 00000048H
	push	ebx
	push	esi
	push	edi
	mov	DWORD PTR _this$[ebp], ecx

; 416  : 	for( CParticleType *pType = m_pFirstType; pType != NULL; pType = pType->m_pNext )

	mov	eax, DWORD PTR _this$[ebp]
	mov	ecx, DWORD PTR [eax+104]
	mov	DWORD PTR _pType$1[ebp], ecx
	jmp	SHORT $LN4@GetType
$LN2@GetType:
	mov	eax, DWORD PTR _pType$1[ebp]
	mov	ecx, DWORD PTR [eax+368]
	mov	DWORD PTR _pType$1[ebp], ecx
$LN4@GetType:
	cmp	DWORD PTR _pType$1[ebp], 0
	je	SHORT $LN3@GetType

; 417  : 	{
; 418  : 		if( !Q_stricmp( pType->m_szName, szName ))

	push	99999					; 0001869fH
	mov	eax, DWORD PTR _szName$[ebp]
	push	eax
	mov	ecx, DWORD PTR _pType$1[ebp]
	add	ecx, 372				; 00000174H
	push	ecx
	call	?Q_strnicmp@@YAHPBD0H@Z			; Q_strnicmp
	add	esp, 12					; 0000000cH
	test	eax, eax
	jne	SHORT $LN5@GetType

; 419  : 			return pType;

	mov	eax, DWORD PTR _pType$1[ebp]
	jmp	SHORT $LN1@GetType
$LN5@GetType:

; 420  : 	}

	jmp	SHORT $LN2@GetType
$LN3@GetType:

; 421  : 	return NULL;

	xor	eax, eax
$LN1@GetType:

; 422  : }

	pop	edi
	pop	esi
	pop	ebx
	mov	esp, ebp
	pop	ebp
	ret	4
?GetType@CParticleSystem@@QAEPAVCParticleType@@PBD@Z ENDP ; CParticleSystem::GetType
_TEXT	ENDS
; Function compile flags: /Odtp /ZI
; File d:\!diffusion 2020\source code 2022\client-server\client\render\r_particle.cpp
;	COMDAT ?AllocateParticles@CParticleSystem@@QAEXH@Z
_TEXT	SEGMENT
tv88 = -108						; size = 4
$T2 = -104						; size = 4
$T3 = -100						; size = 4
$T4 = -96						; size = 4
_i$5 = -28						; size = 4
_pParticle$ = -24					; size = 4
_pLast$ = -20						; size = 4
_this$ = -16						; size = 4
__$EHRec$ = -12						; size = 12
_iParticles$ = 8					; size = 4
?AllocateParticles@CParticleSystem@@QAEXH@Z PROC	; CParticleSystem::AllocateParticles, COMDAT
; _this$ = ecx

; 377  : {

	push	ebp
	mov	ebp, esp
	push	-1
	push	__ehhandler$?AllocateParticles@CParticleSystem@@QAEXH@Z
	mov	eax, DWORD PTR fs:0
	push	eax
	sub	esp, 96					; 00000060H
	push	ebx
	push	esi
	push	edi
	mov	eax, DWORD PTR ___security_cookie
	xor	eax, ebp
	push	eax
	lea	eax, DWORD PTR __$EHRec$[ebp]
	mov	DWORD PTR fs:0, eax
	mov	DWORD PTR _this$[ebp], ecx

; 378  : 	m_pAllParticles = new CParticle[iParticles];

	mov	eax, DWORD PTR _iParticles$[ebp]
	mov	DWORD PTR $T4[ebp], eax
	xor	ecx, ecx
	mov	eax, DWORD PTR $T4[ebp]
	mov	edx, 136				; 00000088H
	mul	edx
	seto	cl
	neg	ecx
	or	ecx, eax
	push	ecx
	call	??_U@YAPAXI@Z				; operator new[]
	add	esp, 4
	mov	DWORD PTR $T2[ebp], eax
	mov	DWORD PTR __$EHRec$[ebp+8], 0
	cmp	DWORD PTR $T2[ebp], 0
	je	SHORT $LN6@AllocatePa
	push	OFFSET ??0CParticle@@QAE@XZ
	mov	eax, DWORD PTR $T4[ebp]
	push	eax
	push	136					; 00000088H
	mov	ecx, DWORD PTR $T2[ebp]
	push	ecx
	call	??_H@YGXPAXIIP6EPAX0@Z@Z
	mov	edx, DWORD PTR $T2[ebp]
	mov	DWORD PTR tv88[ebp], edx
	jmp	SHORT $LN7@AllocatePa
$LN6@AllocatePa:
	mov	DWORD PTR tv88[ebp], 0
$LN7@AllocatePa:
	mov	eax, DWORD PTR tv88[ebp]
	mov	DWORD PTR $T3[ebp], eax
	mov	DWORD PTR __$EHRec$[ebp+8], -1
	mov	ecx, DWORD PTR _this$[ebp]
	mov	edx, DWORD PTR $T3[ebp]
	mov	DWORD PTR [ecx+92], edx

; 379  : 	memset( m_pAllParticles, 0, sizeof( CParticle ) * iParticles );

	imul	eax, DWORD PTR _iParticles$[ebp], 136
	push	eax
	push	0
	mov	ecx, DWORD PTR _this$[ebp]
	mov	edx, DWORD PTR [ecx+92]
	push	edx
	call	_memset
	add	esp, 12					; 0000000cH

; 380  : 	m_pFreeParticle = m_pAllParticles;

	mov	eax, DWORD PTR _this$[ebp]
	mov	ecx, DWORD PTR _this$[ebp]
	mov	edx, DWORD PTR [ecx+92]
	mov	DWORD PTR [eax+96], edx

; 381  : 	m_pActiveParticle = NULL;

	mov	eax, DWORD PTR _this$[ebp]
	mov	DWORD PTR [eax+4], 0

; 382  : 	m_pMainParticle = NULL;

	mov	eax, DWORD PTR _this$[ebp]
	mov	DWORD PTR [eax+100], 0

; 383  : 
; 384  : 	// initialize the linked list
; 385  : 	CParticle *pLast = m_pAllParticles;

	mov	eax, DWORD PTR _this$[ebp]
	mov	ecx, DWORD PTR [eax+92]
	mov	DWORD PTR _pLast$[ebp], ecx

; 386  : 	CParticle *pParticle = pLast + 1;

	mov	eax, DWORD PTR _pLast$[ebp]
	add	eax, 136				; 00000088H
	mov	DWORD PTR _pParticle$[ebp], eax

; 387  : 
; 388  : 	for( int i = 1; i < iParticles; i++ )

	mov	DWORD PTR _i$5[ebp], 1
	jmp	SHORT $LN4@AllocatePa
$LN2@AllocatePa:
	mov	eax, DWORD PTR _i$5[ebp]
	add	eax, 1
	mov	DWORD PTR _i$5[ebp], eax
$LN4@AllocatePa:
	mov	eax, DWORD PTR _i$5[ebp]
	cmp	eax, DWORD PTR _iParticles$[ebp]
	jge	SHORT $LN3@AllocatePa

; 389  : 	{
; 390  : 		pLast->nextpart = pParticle;

	mov	eax, DWORD PTR _pLast$[ebp]
	mov	ecx, DWORD PTR _pParticle$[ebp]
	mov	DWORD PTR [eax], ecx

; 391  : 		pLast = pParticle;

	mov	eax, DWORD PTR _pParticle$[ebp]
	mov	DWORD PTR _pLast$[ebp], eax

; 392  : 		pParticle++;

	mov	eax, DWORD PTR _pParticle$[ebp]
	add	eax, 136				; 00000088H
	mov	DWORD PTR _pParticle$[ebp], eax

; 393  : 	}

	jmp	SHORT $LN2@AllocatePa
$LN3@AllocatePa:

; 394  : 
; 395  : 	pLast->nextpart = NULL;

	mov	eax, DWORD PTR _pLast$[ebp]
	mov	DWORD PTR [eax], 0

; 396  : }

	mov	ecx, DWORD PTR __$EHRec$[ebp]
	mov	DWORD PTR fs:0, ecx
	pop	ecx
	pop	edi
	pop	esi
	pop	ebx
	mov	esp, ebp
	pop	ebp
	ret	4
_TEXT	ENDS
;	COMDAT text$x
text$x	SEGMENT
__unwindfunclet$?AllocateParticles@CParticleSystem@@QAEXH@Z$0:
	xor	ebx, ebx
	mov	eax, DWORD PTR $T4[ebp]
	mov	ecx, 136				; 00000088H
	mul	ecx
	seto	bl
	neg	ebx
	or	ebx, eax
	push	ebx
	mov	eax, DWORD PTR $T2[ebp]
	push	eax
	call	??_V@YAXPAXI@Z				; operator delete[]
	add	esp, 8
	ret	0
__ehhandler$?AllocateParticles@CParticleSystem@@QAEXH@Z:
	mov	edx, DWORD PTR [esp+8]
	lea	eax, DWORD PTR [edx+12]
	mov	ecx, DWORD PTR [edx-112]
	xor	ecx, eax
	call	@__security_check_cookie@4
	mov	eax, OFFSET __ehfuncinfo$?AllocateParticles@CParticleSystem@@QAEXH@Z
	jmp	___CxxFrameHandler3
text$x	ENDS
?AllocateParticles@CParticleSystem@@QAEXH@Z ENDP	; CParticleSystem::AllocateParticles
; Function compile flags: /Odtp /ZI
; File d:\!diffusion 2020\source code 2022\client-server\client\render\r_particle.cpp
;	COMDAT ??1CParticleSystem@@QAE@XZ
_TEXT	SEGMENT
$T1 = -84						; size = 4
$T2 = -80						; size = 4
_pNext$ = -12						; size = 4
_pType$ = -8						; size = 4
_this$ = -4						; size = 4
??1CParticleSystem@@QAE@XZ PROC				; CParticleSystem::~CParticleSystem, COMDAT
; _this$ = ecx

; 399  : {

	push	ebp
	mov	ebp, esp
	sub	esp, 84					; 00000054H
	push	ebx
	push	esi
	push	edi
	mov	DWORD PTR _this$[ebp], ecx

; 400  : 	delete[] m_pAllParticles;

	mov	eax, DWORD PTR _this$[ebp]
	mov	ecx, DWORD PTR [eax+92]
	mov	DWORD PTR $T2[ebp], ecx
	mov	edx, DWORD PTR $T2[ebp]
	push	edx
	call	??_V@YAXPAX@Z				; operator delete[]
	add	esp, 4

; 401  : 
; 402  : 	CParticleType *pType = m_pFirstType;

	mov	eax, DWORD PTR _this$[ebp]
	mov	ecx, DWORD PTR [eax+104]
	mov	DWORD PTR _pType$[ebp], ecx
$LN2@CParticleS:

; 403  : 	CParticleType *pNext;
; 404  : 
; 405  : 	while( pType )

	cmp	DWORD PTR _pType$[ebp], 0
	je	SHORT $LN4@CParticleS

; 406  : 	{
; 407  : 		pNext = pType->m_pNext;

	mov	eax, DWORD PTR _pType$[ebp]
	mov	ecx, DWORD PTR [eax+368]
	mov	DWORD PTR _pNext$[ebp], ecx

; 408  : 		delete pType;

	mov	eax, DWORD PTR _pType$[ebp]
	mov	DWORD PTR $T1[ebp], eax
	push	404					; 00000194H
	mov	ecx, DWORD PTR $T1[ebp]
	push	ecx
	call	??3@YAXPAXI@Z				; operator delete
	add	esp, 8

; 409  : 		pType = pNext;

	mov	eax, DWORD PTR _pNext$[ebp]
	mov	DWORD PTR _pType$[ebp], eax

; 410  : 	}

	jmp	SHORT $LN2@CParticleS
$LN4@CParticleS:

; 411  : }

	pop	edi
	pop	esi
	pop	ebx
	mov	esp, ebp
	pop	ebp
	ret	0
??1CParticleSystem@@QAE@XZ ENDP				; CParticleSystem::~CParticleSystem
_TEXT	ENDS
; Function compile flags: /Odtp /ZI
; File d:\!diffusion 2020\source code 2022\client-server\client\render\r_particle.cpp
;	COMDAT ??0CParticleSystem@@QAE@PAUcl_entity_s@@PBDHM@Z
_TEXT	SEGMENT
_pfile$ = -1048						; size = 4
_szToken$ = -1044					; size = 1024
_afile$ = -20						; size = 4
_i$1 = -16						; size = 4
_iParticles$ = -12					; size = 4
_this$ = -8						; size = 4
__$ArrayPad$ = -4					; size = 4
_ent$ = 8						; size = 4
_szFilename$ = 12					; size = 4
_attachment$ = 16					; size = 4
_lifetime$ = 20						; size = 4
??0CParticleSystem@@QAE@PAUcl_entity_s@@PBDHM@Z PROC	; CParticleSystem::CParticleSystem, COMDAT
; _this$ = ecx

; 288  : {

	push	ebp
	mov	ebp, esp
	sub	esp, 1240				; 000004d8H
	mov	eax, DWORD PTR ___security_cookie
	xor	eax, ebp
	mov	DWORD PTR __$ArrayPad$[ebp], eax
	push	ebx
	push	esi
	push	edi
	mov	DWORD PTR _this$[ebp], ecx
	mov	ecx, DWORD PTR _this$[ebp]
	add	ecx, 24					; 00000018H
	call	??0matrix3x3@@QAE@XZ			; matrix3x3::matrix3x3
	mov	ecx, DWORD PTR _this$[ebp]
	add	ecx, 64					; 00000040H
	call	??0Vector@@QAE@XZ			; Vector::Vector
	mov	ecx, DWORD PTR _this$[ebp]
	add	ecx, 76					; 0000004cH
	call	??0Vector@@QAE@XZ			; Vector::Vector

; 289  : 	int iParticles = 100; // default

	mov	DWORD PTR _iParticles$[ebp], 100	; 00000064H

; 290  : 	m_iKillCondition = CONTENTS_NONE;

	mov	eax, DWORD PTR _this$[ebp]
	mov	DWORD PTR [eax+16], 0

; 291  : 	m_iEntAttachment = attachment;

	mov	eax, DWORD PTR _this$[ebp]
	mov	ecx, DWORD PTR _attachment$[ebp]
	mov	DWORD PTR [eax+12], ecx

; 292  : 	m_pActiveParticle = NULL;

	mov	eax, DWORD PTR _this$[ebp]
	mov	DWORD PTR [eax+4], 0

; 293  : 	m_pMainParticle = NULL;

	mov	eax, DWORD PTR _this$[ebp]
	mov	DWORD PTR [eax+100], 0

; 294  : 	m_fLifeTime = lifetime;

	mov	eax, DWORD PTR _this$[ebp]
	movss	xmm0, DWORD PTR _lifetime$[ebp]
	movss	DWORD PTR [eax+60], xmm0

; 295  : 	m_pNextSystem = NULL;

	mov	eax, DWORD PTR _this$[ebp]
	mov	DWORD PTR [eax], 0

; 296  : 	m_iLightingModel = 0;

	mov	eax, DWORD PTR _this$[ebp]
	mov	DWORD PTR [eax+20], 0

; 297  : 	m_pFirstType = NULL;

	mov	eax, DWORD PTR _this$[ebp]
	mov	DWORD PTR [eax+104], 0

; 298  : 	m_pEntity = ent;

	mov	eax, DWORD PTR _this$[ebp]
	mov	ecx, DWORD PTR _ent$[ebp]
	mov	DWORD PTR [eax+8], ecx

; 299  : 	enable = true;

	mov	eax, DWORD PTR _this$[ebp]
	mov	BYTE PTR [eax+88], 1

; 300  : 
; 301  : 	entityMatrix.Identity();

	mov	ecx, DWORD PTR _this$[ebp]
	add	ecx, 24					; 00000018H
	call	?Identity@matrix3x3@@QAEXXZ		; matrix3x3::Identity

; 302  : 
; 303  : 	if( !c_bCosTableInit )

	movzx	eax, BYTE PTR ?c_bCosTableInit@CParticleSystem@@0_NA ; CParticleSystem::c_bCosTableInit
	test	eax, eax
	jne	SHORT $LN7@CParticleS

; 304  : 	{
; 305  : 		for( int i = 0; i < 360 + 90; i++ )

	mov	DWORD PTR _i$1[ebp], 0
	jmp	SHORT $LN4@CParticleS
$LN2@CParticleS:
	mov	eax, DWORD PTR _i$1[ebp]
	add	eax, 1
	mov	DWORD PTR _i$1[ebp], eax
$LN4@CParticleS:
	cmp	DWORD PTR _i$1[ebp], 450		; 000001c2H
	jge	SHORT $LN3@CParticleS

; 306  : 			c_fCosTable[i] = cos( i * M_PI / 180.0f );

	cvtsi2sd xmm0, DWORD PTR _i$1[ebp]
	mulsd	xmm0, QWORD PTR __real@400921fb54442d18
	divsd	xmm0, QWORD PTR __real@4066800000000000
	sub	esp, 8
	movsd	QWORD PTR [esp], xmm0
	call	_cos
	add	esp, 8
	mov	eax, DWORD PTR _i$1[ebp]
	fstp	DWORD PTR ?c_fCosTable@CParticleSystem@@0PAMA[eax*4]
	jmp	SHORT $LN2@CParticleS
$LN3@CParticleS:

; 307  : 		c_bCosTableInit = true;

	mov	BYTE PTR ?c_bCosTableInit@CParticleSystem@@0_NA, 1 ; CParticleSystem::c_bCosTableInit
$LN7@CParticleS:

; 308  : 	}
; 309  : 
; 310  : 	char *afile = (char *)gEngfuncs.COM_LoadFile( (char *)szFilename, 5, NULL );

	push	0
	push	5
	mov	eax, DWORD PTR _szFilename$[ebp]
	push	eax
	call	DWORD PTR ?gEngfuncs@@3Ucl_enginefuncs_s@@A+316
	add	esp, 12					; 0000000cH
	mov	DWORD PTR _afile$[ebp], eax

; 311  : 	char szToken[1024];
; 312  : 	char *pfile = afile;

	mov	eax, DWORD PTR _afile$[ebp]
	mov	DWORD PTR _pfile$[ebp], eax

; 313  : 
; 314  : 	if( !pfile )

	cmp	DWORD PTR _pfile$[ebp], 0
	jne	SHORT $LN8@CParticleS

; 315  : 	{
; 316  : 		ALERT( at_error, "couldn't load %s.\n", szFilename );

	mov	eax, DWORD PTR _szFilename$[ebp]
	push	eax
	push	OFFSET ??_C@_0BD@IGLLPDFN@couldn?8t?5load?5?$CFs?4?6?$AA@
	push	4
	call	?ALERT@@YAXW4ALERT_TYPE@@PADZZ		; ALERT
	add	esp, 12					; 0000000cH

; 317  : 		return;

	jmp	$LN1@CParticleS

; 318  : 	}
; 319  : 	else

	jmp	$LN6@CParticleS
$LN8@CParticleS:

; 320  : 	{
; 321  : 		pfile = COM_ParseFile( pfile, szToken );

	push	1
	push	1024					; 00000400H
	lea	eax, DWORD PTR _szToken$[ebp]
	push	eax
	mov	ecx, DWORD PTR _pfile$[ebp]
	push	ecx
	call	?COM_ParseFileExt@@YAPADPAD0J_N@Z	; COM_ParseFileExt
	add	esp, 16					; 00000010H
	mov	DWORD PTR _pfile$[ebp], eax
$LN5@CParticleS:

; 322  : 
; 323  : 		while( pfile )

	cmp	DWORD PTR _pfile$[ebp], 0
	je	$LN6@CParticleS

; 324  : 		{
; 325  : 			if( !Q_stricmp( szToken, "particles" ))

	push	99999					; 0001869fH
	push	OFFSET ??_C@_09JNOBNNGJ@particles?$AA@
	lea	eax, DWORD PTR _szToken$[ebp]
	push	eax
	call	?Q_strnicmp@@YAHPBD0H@Z			; Q_strnicmp
	add	esp, 12					; 0000000cH
	test	eax, eax
	jne	SHORT $LN10@CParticleS

; 326  : 			{
; 327  : 				pfile = COM_ParseFile( pfile, szToken );

	push	1
	push	1024					; 00000400H
	lea	eax, DWORD PTR _szToken$[ebp]
	push	eax
	mov	ecx, DWORD PTR _pfile$[ebp]
	push	ecx
	call	?COM_ParseFileExt@@YAPADPAD0J_N@Z	; COM_ParseFileExt
	add	esp, 16					; 00000010H
	mov	DWORD PTR _pfile$[ebp], eax

; 328  : 				iParticles = Q_atoi( szToken );

	lea	eax, DWORD PTR _szToken$[ebp]
	push	eax
	call	?Q_atoi@@YAHPBD@Z			; Q_atoi
	add	esp, 4
	mov	DWORD PTR _iParticles$[ebp], eax
	jmp	$LN25@CParticleS
$LN10@CParticleS:

; 329  : 			}
; 330  : 			else if( !Q_stricmp( szToken, "maintype" ))

	push	99999					; 0001869fH
	push	OFFSET ??_C@_08NCFFBEDA@maintype?$AA@
	lea	eax, DWORD PTR _szToken$[ebp]
	push	eax
	call	?Q_strnicmp@@YAHPBD0H@Z			; Q_strnicmp
	add	esp, 12					; 0000000cH
	test	eax, eax
	jne	SHORT $LN12@CParticleS

; 331  : 			{
; 332  : 				pfile = COM_ParseFile( pfile, szToken );

	push	1
	push	1024					; 00000400H
	lea	eax, DWORD PTR _szToken$[ebp]
	push	eax
	mov	ecx, DWORD PTR _pfile$[ebp]
	push	ecx
	call	?COM_ParseFileExt@@YAPADPAD0J_N@Z	; COM_ParseFileExt
	add	esp, 16					; 00000010H
	mov	DWORD PTR _pfile$[ebp], eax

; 333  : 				m_pMainType = AddPlaceholderType( szToken );

	lea	eax, DWORD PTR _szToken$[ebp]
	push	eax
	mov	ecx, DWORD PTR _this$[ebp]
	call	?AddPlaceholderType@CParticleSystem@@QAEPAVCParticleType@@PBD@Z ; CParticleSystem::AddPlaceholderType
	mov	ecx, DWORD PTR _this$[ebp]
	mov	DWORD PTR [ecx+108], eax
	jmp	$LN25@CParticleS
$LN12@CParticleS:

; 334  : 			}
; 335  : 			else if( !Q_stricmp( szToken, "attachment" ))

	push	99999					; 0001869fH
	push	OFFSET ??_C@_0L@HBDHCFKP@attachment?$AA@
	lea	eax, DWORD PTR _szToken$[ebp]
	push	eax
	call	?Q_strnicmp@@YAHPBD0H@Z			; Q_strnicmp
	add	esp, 12					; 0000000cH
	test	eax, eax
	jne	SHORT $LN14@CParticleS

; 336  : 			{
; 337  : 				pfile = COM_ParseFile( pfile, szToken );

	push	1
	push	1024					; 00000400H
	lea	eax, DWORD PTR _szToken$[ebp]
	push	eax
	mov	ecx, DWORD PTR _pfile$[ebp]
	push	ecx
	call	?COM_ParseFileExt@@YAPADPAD0J_N@Z	; COM_ParseFileExt
	add	esp, 16					; 00000010H
	mov	DWORD PTR _pfile$[ebp], eax

; 338  : 				m_iEntAttachment = Q_atoi( szToken );

	lea	eax, DWORD PTR _szToken$[ebp]
	push	eax
	call	?Q_atoi@@YAHPBD@Z			; Q_atoi
	add	esp, 4
	mov	ecx, DWORD PTR _this$[ebp]
	mov	DWORD PTR [ecx+12], eax
	jmp	$LN25@CParticleS
$LN14@CParticleS:

; 339  : 			}
; 340  : 			else if( !Q_stricmp( szToken, "lightmodel" ))

	push	99999					; 0001869fH
	push	OFFSET ??_C@_0L@FMHHHHCB@lightmodel?$AA@
	lea	eax, DWORD PTR _szToken$[ebp]
	push	eax
	call	?Q_strnicmp@@YAHPBD0H@Z			; Q_strnicmp
	add	esp, 12					; 0000000cH
	test	eax, eax
	jne	SHORT $LN16@CParticleS

; 341  : 			{
; 342  : 				pfile = COM_ParseFile( pfile, szToken );

	push	1
	push	1024					; 00000400H
	lea	eax, DWORD PTR _szToken$[ebp]
	push	eax
	mov	ecx, DWORD PTR _pfile$[ebp]
	push	ecx
	call	?COM_ParseFileExt@@YAPADPAD0J_N@Z	; COM_ParseFileExt
	add	esp, 16					; 00000010H
	mov	DWORD PTR _pfile$[ebp], eax

; 343  : 				m_iLightingModel = Q_atoi( szToken );

	lea	eax, DWORD PTR _szToken$[ebp]
	push	eax
	call	?Q_atoi@@YAHPBD@Z			; Q_atoi
	add	esp, 4
	mov	ecx, DWORD PTR _this$[ebp]
	mov	DWORD PTR [ecx+20], eax
	jmp	$LN25@CParticleS
$LN16@CParticleS:

; 344  : 			}
; 345  : 			else if( !Q_stricmp( szToken, "killcondition" ))

	push	99999					; 0001869fH
	push	OFFSET ??_C@_0O@MNLBIGGF@killcondition?$AA@
	lea	eax, DWORD PTR _szToken$[ebp]
	push	eax
	call	?Q_strnicmp@@YAHPBD0H@Z			; Q_strnicmp
	add	esp, 12					; 0000000cH
	test	eax, eax
	jne	$LN18@CParticleS

; 346  : 			{
; 347  : 				pfile = COM_ParseFile( pfile, szToken );

	push	1
	push	1024					; 00000400H
	lea	eax, DWORD PTR _szToken$[ebp]
	push	eax
	mov	ecx, DWORD PTR _pfile$[ebp]
	push	ecx
	call	?COM_ParseFileExt@@YAPADPAD0J_N@Z	; COM_ParseFileExt
	add	esp, 16					; 00000010H
	mov	DWORD PTR _pfile$[ebp], eax

; 348  : 
; 349  : 				if( !Q_stricmp( szToken, "empty" ))

	push	99999					; 0001869fH
	push	OFFSET ??_C@_05LBJMNBOG@empty?$AA@
	lea	eax, DWORD PTR _szToken$[ebp]
	push	eax
	call	?Q_strnicmp@@YAHPBD0H@Z			; Q_strnicmp
	add	esp, 12					; 0000000cH
	test	eax, eax
	jne	SHORT $LN20@CParticleS

; 350  : 				{
; 351  : 					m_iKillCondition = CONTENTS_EMPTY;

	mov	eax, DWORD PTR _this$[ebp]
	mov	DWORD PTR [eax+16], -1
	jmp	SHORT $LN24@CParticleS
$LN20@CParticleS:

; 352  : 				}
; 353  : 				else if( !Q_stricmp( szToken, "water" ))

	push	99999					; 0001869fH
	push	OFFSET ??_C@_05ELAABIKM@water?$AA@
	lea	eax, DWORD PTR _szToken$[ebp]
	push	eax
	call	?Q_strnicmp@@YAHPBD0H@Z			; Q_strnicmp
	add	esp, 12					; 0000000cH
	test	eax, eax
	jne	SHORT $LN22@CParticleS

; 354  : 				{
; 355  : 					m_iKillCondition = CONTENTS_WATER;

	mov	eax, DWORD PTR _this$[ebp]
	mov	DWORD PTR [eax+16], -3			; fffffffdH
	jmp	SHORT $LN24@CParticleS
$LN22@CParticleS:

; 356  : 				}
; 357  : 				else if( !Q_stricmp( szToken, "solid" ))

	push	99999					; 0001869fH
	push	OFFSET ??_C@_05OPIONHBI@solid?$AA@
	lea	eax, DWORD PTR _szToken$[ebp]
	push	eax
	call	?Q_strnicmp@@YAHPBD0H@Z			; Q_strnicmp
	add	esp, 12					; 0000000cH
	test	eax, eax
	jne	SHORT $LN24@CParticleS

; 358  : 				{
; 359  : 					m_iKillCondition = CONTENTS_SOLID;

	mov	eax, DWORD PTR _this$[ebp]
	mov	DWORD PTR [eax+16], -2			; fffffffeH
$LN24@CParticleS:

; 360  : 				}
; 361  : 			}

	jmp	SHORT $LN25@CParticleS
$LN18@CParticleS:

; 362  : 			else if( !Q_stricmp( szToken, "{" ))

	push	99999					; 0001869fH
	push	OFFSET ??_C@_01HCONENDN@?$HL?$AA@
	lea	eax, DWORD PTR _szToken$[ebp]
	push	eax
	call	?Q_strnicmp@@YAHPBD0H@Z			; Q_strnicmp
	add	esp, 12					; 0000000cH
	test	eax, eax
	jne	SHORT $LN25@CParticleS

; 363  : 			{
; 364  : 				// parse new type
; 365  : 				this->ParseType( pfile );

	lea	eax, DWORD PTR _pfile$[ebp]
	push	eax
	mov	ecx, DWORD PTR _this$[ebp]
	call	?ParseType@CParticleSystem@@QAEPAVCParticleType@@AAPAD@Z ; CParticleSystem::ParseType
$LN25@CParticleS:

; 366  : 			}
; 367  : 
; 368  : 			pfile = COM_ParseFile( pfile, szToken );

	push	1
	push	1024					; 00000400H
	lea	eax, DWORD PTR _szToken$[ebp]
	push	eax
	mov	ecx, DWORD PTR _pfile$[ebp]
	push	ecx
	call	?COM_ParseFileExt@@YAPADPAD0J_N@Z	; COM_ParseFileExt
	add	esp, 16					; 00000010H
	mov	DWORD PTR _pfile$[ebp], eax

; 369  : 		}

	jmp	$LN5@CParticleS
$LN6@CParticleS:

; 370  : 	}
; 371  : 		
; 372  : 	gEngfuncs.COM_FreeFile( afile );

	mov	eax, DWORD PTR _afile$[ebp]
	push	eax
	call	DWORD PTR ?gEngfuncs@@3Ucl_enginefuncs_s@@A+324
	add	esp, 4

; 373  : 	AllocateParticles( iParticles );

	mov	eax, DWORD PTR _iParticles$[ebp]
	push	eax
	mov	ecx, DWORD PTR _this$[ebp]
	call	?AllocateParticles@CParticleSystem@@QAEXH@Z ; CParticleSystem::AllocateParticles
$LN1@CParticleS:

; 374  : }

	mov	eax, DWORD PTR _this$[ebp]
	pop	edi
	pop	esi
	pop	ebx
	mov	ecx, DWORD PTR __$ArrayPad$[ebp]
	xor	ecx, ebp
	call	@__security_check_cookie@4
	mov	esp, ebp
	pop	ebp
	ret	16					; 00000010H
??0CParticleSystem@@QAE@PAUcl_entity_s@@PBDHM@Z ENDP	; CParticleSystem::CParticleSystem
_TEXT	ENDS
; Function compile flags: /Odtp /ZI
; File d:\!diffusion 2020\source code 2022\client-server\client\render\r_particle.cpp
;	COMDAT ?InitParticle@CParticleType@@QAEXPAUCParticle@@PAVCParticleSystem@@@Z
_TEXT	SEGMENT
tv426 = -120						; size = 4
tv413 = -120						; size = 4
tv400 = -120						; size = 4
tv387 = -120						; size = 4
tv370 = -120						; size = 4
tv351 = -120						; size = 4
tv333 = -120						; size = 4
$T1 = -116						; size = 12
$T2 = -104						; size = 12
_fCosWindYaw$3 = -28					; size = 4
_fSinWindYaw$4 = -24					; size = 4
_fWindYaw$ = -20					; size = 4
_fWindStrength$ = -16					; size = 4
_pOverlay$ = -12					; size = 4
_fLifeRecip$ = -8					; size = 4
_this$ = -4						; size = 4
_pPart$ = 8						; size = 4
_pSys$ = 12						; size = 4
?InitParticle@CParticleType@@QAEXPAUCParticle@@PAVCParticleSystem@@@Z PROC ; CParticleType::InitParticle, COMDAT
; _this$ = ecx

; 191  : {

	push	ebp
	mov	ebp, esp
	sub	esp, 120				; 00000078H
	push	ebx
	push	esi
	push	edi
	mov	DWORD PTR _this$[ebp], ecx

; 192  : 	float fLifeRecip;
; 193  : 
; 194  : 	if( pPart->age_death > 0.0f )

	mov	eax, DWORD PTR _pPart$[ebp]
	movss	xmm0, DWORD PTR [eax+128]
	comiss	xmm0, DWORD PTR __real@00000000
	jbe	SHORT $LN2@InitPartic

; 195  : 		fLifeRecip = 1.0f / pPart->age_death;

	mov	eax, DWORD PTR _pPart$[ebp]
	movss	xmm0, DWORD PTR __real@3f800000
	divss	xmm0, DWORD PTR [eax+128]
	movss	DWORD PTR _fLifeRecip$[ebp], xmm0
	jmp	SHORT $LN3@InitPartic
$LN2@InitPartic:

; 196  : 	else fLifeRecip = 1.0f;

	movss	xmm0, DWORD PTR __real@3f800000
	movss	DWORD PTR _fLifeRecip$[ebp], xmm0
$LN3@InitPartic:

; 197  : 
; 198  : 	pPart->pType = this;

	mov	eax, DWORD PTR _pPart$[ebp]
	mov	ecx, DWORD PTR _this$[ebp]
	mov	DWORD PTR [eax+8], ecx

; 199  : 
; 200  : 	pPart->velocity = pPart->origin = g_vecZero;

	mov	eax, DWORD PTR _pPart$[ebp]
	add	eax, 12					; 0000000cH
	mov	ecx, DWORD PTR ?g_vecZero@@3VVector@@B
	mov	DWORD PTR [eax], ecx
	mov	edx, DWORD PTR ?g_vecZero@@3VVector@@B+4
	mov	DWORD PTR [eax+4], edx
	mov	ecx, DWORD PTR ?g_vecZero@@3VVector@@B+8
	mov	DWORD PTR [eax+8], ecx
	mov	edx, DWORD PTR _pPart$[ebp]
	add	edx, 12					; 0000000cH
	mov	eax, DWORD PTR _pPart$[ebp]
	add	eax, 24					; 00000018H
	mov	ecx, DWORD PTR [edx]
	mov	DWORD PTR [eax], ecx
	mov	ecx, DWORD PTR [edx+4]
	mov	DWORD PTR [eax+4], ecx
	mov	edx, DWORD PTR [edx+8]
	mov	DWORD PTR [eax+8], edx

; 201  : 	pPart->accel.x = pPart->accel.y = 0.0f;

	mov	eax, DWORD PTR _pPart$[ebp]
	xorps	xmm0, xmm0
	movss	DWORD PTR [eax+40], xmm0
	mov	ecx, DWORD PTR _pPart$[ebp]
	xorps	xmm0, xmm0
	movss	DWORD PTR [ecx+36], xmm0

; 202  : 	pPart->accel.z = m_Gravity.GetInstance();

	mov	ecx, DWORD PTR _this$[ebp]
	add	ecx, 312				; 00000138H
	call	?GetInstance@RandomRange@@QAEMXZ	; RandomRange::GetInstance
	mov	eax, DWORD PTR _pPart$[ebp]
	fstp	DWORD PTR [eax+44]

; 203  : 	pPart->m_pEntity = NULL;

	mov	eax, DWORD PTR _pPart$[ebp]
	mov	DWORD PTR [eax+60], 0

; 204  : 
; 205  : 	CParticle *pOverlay = NULL;

	mov	DWORD PTR _pOverlay$[ebp], 0

; 206  : 
; 207  : 	if( m_pOverlayType )

	mov	eax, DWORD PTR _this$[ebp]
	cmp	DWORD PTR [eax+352], 0
	je	SHORT $LN5@InitPartic

; 208  : 	{
; 209  : 		// create an overlay for this particle
; 210  : 		pOverlay = pSys->ActivateParticle();

	mov	ecx, DWORD PTR _pSys$[ebp]
	call	?ActivateParticle@CParticleSystem@@QAEPAUCParticle@@XZ ; CParticleSystem::ActivateParticle
	mov	DWORD PTR _pOverlay$[ebp], eax

; 211  : 
; 212  : 		if( pOverlay )

	cmp	DWORD PTR _pOverlay$[ebp], 0
	je	SHORT $LN5@InitPartic

; 213  : 		{
; 214  : 			pOverlay->age = pPart->age;

	mov	eax, DWORD PTR _pOverlay$[ebp]
	mov	ecx, DWORD PTR _pPart$[ebp]
	mov	edx, DWORD PTR [ecx+124]
	mov	DWORD PTR [eax+124], edx

; 215  : 			pOverlay->age_death = pPart->age_death;

	mov	eax, DWORD PTR _pOverlay$[ebp]
	mov	ecx, DWORD PTR _pPart$[ebp]
	mov	edx, DWORD PTR [ecx+128]
	mov	DWORD PTR [eax+128], edx

; 216  : 			m_pOverlayType->InitParticle( pOverlay, pSys );

	mov	eax, DWORD PTR _pSys$[ebp]
	push	eax
	mov	ecx, DWORD PTR _pOverlay$[ebp]
	push	ecx
	mov	edx, DWORD PTR _this$[ebp]
	mov	ecx, DWORD PTR [edx+352]
	call	?InitParticle@CParticleType@@QAEXPAUCParticle@@PAVCParticleSystem@@@Z ; CParticleType::InitParticle
$LN5@InitPartic:

; 217  : 		}
; 218  : 	}
; 219  : 
; 220  : 	pPart->m_pOverlay = pOverlay;

	mov	eax, DWORD PTR _pPart$[ebp]
	mov	ecx, DWORD PTR _pOverlay$[ebp]
	mov	DWORD PTR [eax+4], ecx

; 221  : 
; 222  : 	if( m_pSprayType )

	mov	eax, DWORD PTR _this$[ebp]
	cmp	DWORD PTR [eax+308], 0
	je	SHORT $LN6@InitPartic

; 223  : 		pPart->age_spray = 1.0f / m_SprayRate.GetInstance();

	mov	ecx, DWORD PTR _this$[ebp]
	add	ecx, 248				; 000000f8H
	call	?GetInstance@RandomRange@@QAEMXZ	; RandomRange::GetInstance
	fstp	DWORD PTR tv333[ebp]
	movss	xmm0, DWORD PTR __real@3f800000
	divss	xmm0, DWORD PTR tv333[ebp]
	mov	eax, DWORD PTR _pPart$[ebp]
	movss	DWORD PTR [eax+132], xmm0
	jmp	SHORT $LN7@InitPartic
$LN6@InitPartic:

; 224  : 	else pPart->age_spray = 0.0f;

	mov	eax, DWORD PTR _pPart$[ebp]
	xorps	xmm0, xmm0
	movss	DWORD PTR [eax+132], xmm0
$LN7@InitPartic:

; 225  : 
; 226  : 	pPart->m_fSize = m_StartSize.GetInstance();

	mov	ecx, DWORD PTR _this$[ebp]
	add	ecx, 148				; 00000094H
	call	?GetInstance@RandomRange@@QAEMXZ	; RandomRange::GetInstance
	mov	eax, DWORD PTR _pPart$[ebp]
	fstp	DWORD PTR [eax+112]

; 227  : 
; 228  : 	if( m_EndSize.IsDefined( ))

	mov	ecx, DWORD PTR _this$[ebp]
	add	ecx, 172				; 000000acH
	call	?IsDefined@RandomRange@@QAE_NXZ		; RandomRange::IsDefined
	movzx	eax, al
	test	eax, eax
	je	SHORT $LN8@InitPartic

; 229  : 		pPart->m_fSizeStep = m_EndSize.GetOffset( pPart->m_fSize ) * fLifeRecip;

	mov	eax, DWORD PTR _pPart$[ebp]
	push	ecx
	movss	xmm0, DWORD PTR [eax+112]
	movss	DWORD PTR [esp], xmm0
	mov	ecx, DWORD PTR _this$[ebp]
	add	ecx, 172				; 000000acH
	call	?GetOffset@RandomRange@@QAEMM@Z		; RandomRange::GetOffset
	fstp	DWORD PTR tv351[ebp]
	movss	xmm0, DWORD PTR tv351[ebp]
	mulss	xmm0, DWORD PTR _fLifeRecip$[ebp]
	mov	ecx, DWORD PTR _pPart$[ebp]
	movss	DWORD PTR [ecx+116], xmm0
	jmp	SHORT $LN9@InitPartic
$LN8@InitPartic:

; 230  : 	else pPart->m_fSizeStep = m_SizeDelta.GetInstance();

	mov	ecx, DWORD PTR _this$[ebp]
	add	ecx, 160				; 000000a0H
	call	?GetInstance@RandomRange@@QAEMXZ	; RandomRange::GetInstance
	mov	eax, DWORD PTR _pPart$[ebp]
	fstp	DWORD PTR [eax+116]
$LN9@InitPartic:

; 231  : 
; 232  : 	pPart->frame = m_StartFrame.GetInstance();

	mov	ecx, DWORD PTR _this$[ebp]
	add	ecx, 184				; 000000b8H
	call	?GetInstance@RandomRange@@QAEMXZ	; RandomRange::GetInstance
	mov	eax, DWORD PTR _pPart$[ebp]
	fstp	DWORD PTR [eax+96]

; 233  : 
; 234  : 	if( m_EndFrame.IsDefined( ))

	mov	ecx, DWORD PTR _this$[ebp]
	add	ecx, 196				; 000000c4H
	call	?IsDefined@RandomRange@@QAE_NXZ		; RandomRange::IsDefined
	movzx	eax, al
	test	eax, eax
	je	SHORT $LN10@InitPartic

; 235  : 		pPart->m_fFrameStep = m_EndFrame.GetOffset( pPart->frame ) * fLifeRecip;

	mov	eax, DWORD PTR _pPart$[ebp]
	push	ecx
	movss	xmm0, DWORD PTR [eax+96]
	movss	DWORD PTR [esp], xmm0
	mov	ecx, DWORD PTR _this$[ebp]
	add	ecx, 196				; 000000c4H
	call	?GetOffset@RandomRange@@QAEMM@Z		; RandomRange::GetOffset
	fstp	DWORD PTR tv370[ebp]
	movss	xmm0, DWORD PTR tv370[ebp]
	mulss	xmm0, DWORD PTR _fLifeRecip$[ebp]
	mov	ecx, DWORD PTR _pPart$[ebp]
	movss	DWORD PTR [ecx+100], xmm0
	jmp	SHORT $LN11@InitPartic
$LN10@InitPartic:

; 236  : 	else pPart->m_fFrameStep = m_FrameRate.GetInstance();

	mov	ecx, DWORD PTR _this$[ebp]
	add	ecx, 208				; 000000d0H
	call	?GetInstance@RandomRange@@QAEMXZ	; RandomRange::GetInstance
	mov	eax, DWORD PTR _pPart$[ebp]
	fstp	DWORD PTR [eax+100]
$LN11@InitPartic:

; 237  : 
; 238  : 	pPart->m_fAlpha = m_StartAlpha.GetInstance();

	mov	ecx, DWORD PTR _this$[ebp]
	add	ecx, 52					; 00000034H
	call	?GetInstance@RandomRange@@QAEMXZ	; RandomRange::GetInstance
	mov	eax, DWORD PTR _pPart$[ebp]
	fstp	DWORD PTR [eax+88]

; 239  : 	pPart->m_fAlphaStep = m_EndAlpha.GetOffset( pPart->m_fAlpha ) * fLifeRecip;

	mov	eax, DWORD PTR _pPart$[ebp]
	push	ecx
	movss	xmm0, DWORD PTR [eax+88]
	movss	DWORD PTR [esp], xmm0
	mov	ecx, DWORD PTR _this$[ebp]
	add	ecx, 64					; 00000040H
	call	?GetOffset@RandomRange@@QAEMM@Z		; RandomRange::GetOffset
	fstp	DWORD PTR tv387[ebp]
	movss	xmm0, DWORD PTR tv387[ebp]
	mulss	xmm0, DWORD PTR _fLifeRecip$[ebp]
	mov	ecx, DWORD PTR _pPart$[ebp]
	movss	DWORD PTR [ecx+92], xmm0

; 240  : 	pPart->m_fRed = m_StartRed.GetInstance();

	mov	ecx, DWORD PTR _this$[ebp]
	add	ecx, 76					; 0000004cH
	call	?GetInstance@RandomRange@@QAEMXZ	; RandomRange::GetInstance
	mov	eax, DWORD PTR _pPart$[ebp]
	fstp	DWORD PTR [eax+64]

; 241  : 	pPart->m_fRedStep = m_EndRed.GetOffset( pPart->m_fRed ) * fLifeRecip;

	mov	eax, DWORD PTR _pPart$[ebp]
	push	ecx
	movss	xmm0, DWORD PTR [eax+64]
	movss	DWORD PTR [esp], xmm0
	mov	ecx, DWORD PTR _this$[ebp]
	add	ecx, 88					; 00000058H
	call	?GetOffset@RandomRange@@QAEMM@Z		; RandomRange::GetOffset
	fstp	DWORD PTR tv400[ebp]
	movss	xmm0, DWORD PTR tv400[ebp]
	mulss	xmm0, DWORD PTR _fLifeRecip$[ebp]
	mov	ecx, DWORD PTR _pPart$[ebp]
	movss	DWORD PTR [ecx+76], xmm0

; 242  : 	pPart->m_fGreen = m_StartGreen.GetInstance();

	mov	ecx, DWORD PTR _this$[ebp]
	add	ecx, 100				; 00000064H
	call	?GetInstance@RandomRange@@QAEMXZ	; RandomRange::GetInstance
	mov	eax, DWORD PTR _pPart$[ebp]
	fstp	DWORD PTR [eax+68]

; 243  : 	pPart->m_fGreenStep = m_EndGreen.GetOffset( pPart->m_fGreen ) * fLifeRecip;

	mov	eax, DWORD PTR _pPart$[ebp]
	push	ecx
	movss	xmm0, DWORD PTR [eax+68]
	movss	DWORD PTR [esp], xmm0
	mov	ecx, DWORD PTR _this$[ebp]
	add	ecx, 112				; 00000070H
	call	?GetOffset@RandomRange@@QAEMM@Z		; RandomRange::GetOffset
	fstp	DWORD PTR tv413[ebp]
	movss	xmm0, DWORD PTR tv413[ebp]
	mulss	xmm0, DWORD PTR _fLifeRecip$[ebp]
	mov	ecx, DWORD PTR _pPart$[ebp]
	movss	DWORD PTR [ecx+80], xmm0

; 244  : 	pPart->m_fBlue = m_StartBlue.GetInstance();

	mov	ecx, DWORD PTR _this$[ebp]
	add	ecx, 124				; 0000007cH
	call	?GetInstance@RandomRange@@QAEMXZ	; RandomRange::GetInstance
	mov	eax, DWORD PTR _pPart$[ebp]
	fstp	DWORD PTR [eax+72]

; 245  : 	pPart->m_fBlueStep = m_EndBlue.GetOffset( pPart->m_fBlue ) * fLifeRecip;

	mov	eax, DWORD PTR _pPart$[ebp]
	push	ecx
	movss	xmm0, DWORD PTR [eax+72]
	movss	DWORD PTR [esp], xmm0
	mov	ecx, DWORD PTR _this$[ebp]
	add	ecx, 136				; 00000088H
	call	?GetOffset@RandomRange@@QAEMM@Z		; RandomRange::GetOffset
	fstp	DWORD PTR tv426[ebp]
	movss	xmm0, DWORD PTR tv426[ebp]
	mulss	xmm0, DWORD PTR _fLifeRecip$[ebp]
	mov	ecx, DWORD PTR _pPart$[ebp]
	movss	DWORD PTR [ecx+84], xmm0

; 246  : 
; 247  : 	pPart->m_fAngle = m_StartAngle.GetInstance();

	mov	ecx, DWORD PTR _this$[ebp]
	add	ecx, 224				; 000000e0H
	call	?GetInstance@RandomRange@@QAEMXZ	; RandomRange::GetInstance
	mov	eax, DWORD PTR _pPart$[ebp]
	fstp	DWORD PTR [eax+104]

; 248  : 	pPart->m_fAngleStep = m_AngleDelta.GetInstance();

	mov	ecx, DWORD PTR _this$[ebp]
	add	ecx, 236				; 000000ecH
	call	?GetInstance@RandomRange@@QAEMXZ	; RandomRange::GetInstance
	mov	eax, DWORD PTR _pPart$[ebp]
	fstp	DWORD PTR [eax+108]

; 249  : 
; 250  : 	pPart->m_fDrag = m_Drag.GetInstance();

	mov	ecx, DWORD PTR _this$[ebp]
	add	ecx, 356				; 00000164H
	call	?GetInstance@RandomRange@@QAEMXZ	; RandomRange::GetInstance
	mov	eax, DWORD PTR _pPart$[ebp]
	fstp	DWORD PTR [eax+120]

; 251  : 
; 252  : 	float fWindStrength = m_WindStrength.GetInstance();

	mov	ecx, DWORD PTR _this$[ebp]
	add	ecx, 324				; 00000144H
	call	?GetInstance@RandomRange@@QAEMXZ	; RandomRange::GetInstance
	fstp	DWORD PTR _fWindStrength$[ebp]

; 253  : 	float fWindYaw = m_WindYaw.GetInstance();

	mov	ecx, DWORD PTR _this$[ebp]
	add	ecx, 336				; 00000150H
	call	?GetInstance@RandomRange@@QAEMXZ	; RandomRange::GetInstance
	fstp	DWORD PTR _fWindYaw$[ebp]

; 254  : 
; 255  : 	if( fWindStrength != 0 )

	movss	xmm0, DWORD PTR _fWindStrength$[ebp]
	ucomiss	xmm0, DWORD PTR __real@00000000
	lahf
	test	ah, 68					; 00000044H
	jnp	$LN12@InitPartic

; 256  : 	{
; 257  : 		if( fWindYaw == 0 )

	movss	xmm0, DWORD PTR _fWindYaw$[ebp]
	ucomiss	xmm0, DWORD PTR __real@00000000
	lahf
	test	ah, 68					; 00000044H
	jp	SHORT $LN14@InitPartic

; 258  : 		{
; 259  : 			// angle = 0, sin 0, cos 1
; 260  : 			pPart->m_vecWind.x = 1.0f;

	mov	eax, DWORD PTR _pPart$[ebp]
	movss	xmm0, DWORD PTR __real@3f800000
	movss	DWORD PTR [eax+48], xmm0

; 261  : 			pPart->m_vecWind.y = 0.0f;

	mov	eax, DWORD PTR _pPart$[ebp]
	xorps	xmm0, xmm0
	movss	DWORD PTR [eax+52], xmm0

; 262  : 			pPart->m_vecWind.z = 0.0f;

	mov	eax, DWORD PTR _pPart$[ebp]
	xorps	xmm0, xmm0
	movss	DWORD PTR [eax+56], xmm0

; 263  : 		}
; 264  : 		else

	jmp	SHORT $LN15@InitPartic
$LN14@InitPartic:

; 265  : 		{
; 266  :                               float fSinWindYaw = CParticleSystem :: CosLookup( fWindYaw );

	cvttss2si eax, DWORD PTR _fWindYaw$[ebp]
	push	eax
	call	?CosLookup@CParticleSystem@@SAMH@Z	; CParticleSystem::CosLookup
	add	esp, 4
	fstp	DWORD PTR _fSinWindYaw$4[ebp]

; 267  : 			float fCosWindYaw = CParticleSystem :: SinLookup( fWindYaw );

	cvttss2si eax, DWORD PTR _fWindYaw$[ebp]
	push	eax
	call	?SinLookup@CParticleSystem@@SAMH@Z	; CParticleSystem::SinLookup
	add	esp, 4
	fstp	DWORD PTR _fCosWindYaw$3[ebp]

; 268  : 
; 269  : 			pPart->m_vecWind.x = fCosWindYaw;

	mov	eax, DWORD PTR _pPart$[ebp]
	movss	xmm0, DWORD PTR _fCosWindYaw$3[ebp]
	movss	DWORD PTR [eax+48], xmm0

; 270  : 			pPart->m_vecWind.y = fSinWindYaw;

	mov	eax, DWORD PTR _pPart$[ebp]
	movss	xmm0, DWORD PTR _fSinWindYaw$4[ebp]
	movss	DWORD PTR [eax+52], xmm0

; 271  : 			pPart->m_vecWind.z = 0;

	mov	eax, DWORD PTR _pPart$[ebp]
	xorps	xmm0, xmm0
	movss	DWORD PTR [eax+56], xmm0
$LN15@InitPartic:

; 272  : 		}
; 273  : 
; 274  : 		// rotate wind vector into world space
; 275  : 		pPart->m_vecWind = pSys->entityMatrix.VectorRotate( pPart->m_vecWind ) * fWindStrength;

	push	ecx
	movss	xmm0, DWORD PTR _fWindStrength$[ebp]
	movss	DWORD PTR [esp], xmm0
	lea	eax, DWORD PTR $T1[ebp]
	push	eax
	mov	ecx, DWORD PTR _pPart$[ebp]
	add	ecx, 48					; 00000030H
	push	ecx
	lea	edx, DWORD PTR $T2[ebp]
	push	edx
	mov	ecx, DWORD PTR _pSys$[ebp]
	add	ecx, 24					; 00000018H
	call	?VectorRotate@matrix3x3@@QBE?AVVector@@ABV2@@Z ; matrix3x3::VectorRotate
	mov	ecx, eax
	call	??DVector@@QBE?AV0@M@Z			; Vector::operator*
	mov	ecx, DWORD PTR _pPart$[ebp]
	add	ecx, 48					; 00000030H
	mov	edx, DWORD PTR [eax]
	mov	DWORD PTR [ecx], edx
	mov	edx, DWORD PTR [eax+4]
	mov	DWORD PTR [ecx+4], edx
	mov	eax, DWORD PTR [eax+8]
	mov	DWORD PTR [ecx+8], eax

; 276  : 	}
; 277  : 	else

	jmp	SHORT $LN13@InitPartic
$LN12@InitPartic:

; 278  : 	{
; 279  : 		pPart->m_vecWind = g_vecZero;

	mov	eax, DWORD PTR _pPart$[ebp]
	add	eax, 48					; 00000030H
	mov	ecx, DWORD PTR ?g_vecZero@@3VVector@@B
	mov	DWORD PTR [eax], ecx
	mov	edx, DWORD PTR ?g_vecZero@@3VVector@@B+4
	mov	DWORD PTR [eax+4], edx
	mov	ecx, DWORD PTR ?g_vecZero@@3VVector@@B+8
	mov	DWORD PTR [eax+8], ecx
$LN13@InitPartic:

; 280  : 	}
; 281  : }

	pop	edi
	pop	esi
	pop	ebx
	mov	esp, ebp
	pop	ebp
	ret	8
?InitParticle@CParticleType@@QAEXPAUCParticle@@PAVCParticleSystem@@@Z ENDP ; CParticleType::InitParticle
_TEXT	ENDS
; Function compile flags: /Odtp /ZI
; File d:\!diffusion 2020\source code 2022\client-server\client\render\r_particle.cpp
;	COMDAT ?CreateParticle@CParticleType@@QAEPAUCParticle@@PAVCParticleSystem@@@Z
_TEXT	SEGMENT
_pPart$ = -8						; size = 4
_this$ = -4						; size = 4
_pSys$ = 8						; size = 4
?CreateParticle@CParticleType@@QAEPAUCParticle@@PAVCParticleSystem@@@Z PROC ; CParticleType::CreateParticle, COMDAT
; _this$ = ecx

; 176  : {

	push	ebp
	mov	ebp, esp
	sub	esp, 72					; 00000048H
	push	ebx
	push	esi
	push	edi
	mov	DWORD PTR _this$[ebp], ecx

; 177  : 	if( !pSys ) return NULL;

	cmp	DWORD PTR _pSys$[ebp], 0
	jne	SHORT $LN2@CreatePart
	xor	eax, eax
	jmp	SHORT $LN1@CreatePart
$LN2@CreatePart:

; 178  : 
; 179  : 	CParticle *pPart = pSys->ActivateParticle();

	mov	ecx, DWORD PTR _pSys$[ebp]
	call	?ActivateParticle@CParticleSystem@@QAEPAUCParticle@@XZ ; CParticleSystem::ActivateParticle
	mov	DWORD PTR _pPart$[ebp], eax

; 180  : 	if( !pPart ) return NULL;

	cmp	DWORD PTR _pPart$[ebp], 0
	jne	SHORT $LN3@CreatePart
	xor	eax, eax
	jmp	SHORT $LN1@CreatePart
$LN3@CreatePart:

; 181  : 
; 182  : 	pPart->age = 0.0f;

	mov	eax, DWORD PTR _pPart$[ebp]
	xorps	xmm0, xmm0
	movss	DWORD PTR [eax+124], xmm0

; 183  : 	pPart->age_death = m_Life.GetInstance();

	mov	ecx, DWORD PTR _this$[ebp]
	add	ecx, 40					; 00000028H
	call	?GetInstance@RandomRange@@QAEMXZ	; RandomRange::GetInstance
	mov	eax, DWORD PTR _pPart$[ebp]
	fstp	DWORD PTR [eax+128]

; 184  : 
; 185  : 	InitParticle( pPart, pSys );

	mov	eax, DWORD PTR _pSys$[ebp]
	push	eax
	mov	ecx, DWORD PTR _pPart$[ebp]
	push	ecx
	mov	ecx, DWORD PTR _this$[ebp]
	call	?InitParticle@CParticleType@@QAEXPAUCParticle@@PAVCParticleSystem@@@Z ; CParticleType::InitParticle

; 186  : 
; 187  : 	return pPart;

	mov	eax, DWORD PTR _pPart$[ebp]
$LN1@CreatePart:

; 188  : }

	pop	edi
	pop	esi
	pop	ebx
	mov	esp, ebp
	pop	ebp
	ret	4
?CreateParticle@CParticleType@@QAEPAUCParticle@@PAVCParticleSystem@@@Z ENDP ; CParticleType::CreateParticle
_TEXT	ENDS
; Function compile flags: /Odtp /ZI
; File d:\!diffusion 2020\source code 2022\client-server\client\render\r_particle.cpp
;	COMDAT ??0CParticleType@@QAE@PAV0@@Z
_TEXT	SEGMENT
$T1 = -104						; size = 12
$T2 = -92						; size = 12
$T3 = -80						; size = 12
_this$ = -4						; size = 4
_pNext$ = 8						; size = 4
??0CParticleType@@QAE@PAV0@@Z PROC			; CParticleType::CParticleType, COMDAT
; _this$ = ecx

; 158  : {

	push	ebp
	mov	ebp, esp
	sub	esp, 104				; 00000068H
	push	ebx
	push	esi
	push	edi
	mov	DWORD PTR _this$[ebp], ecx
	mov	ecx, DWORD PTR _this$[ebp]
	add	ecx, 12					; 0000000cH
	call	??0RandomRange@@QAE@XZ			; RandomRange::RandomRange
	mov	ecx, DWORD PTR _this$[ebp]
	add	ecx, 24					; 00000018H
	call	??0RandomRange@@QAE@XZ			; RandomRange::RandomRange
	mov	ecx, DWORD PTR _this$[ebp]
	add	ecx, 40					; 00000028H
	call	??0RandomRange@@QAE@XZ			; RandomRange::RandomRange
	mov	ecx, DWORD PTR _this$[ebp]
	add	ecx, 52					; 00000034H
	call	??0RandomRange@@QAE@XZ			; RandomRange::RandomRange
	mov	ecx, DWORD PTR _this$[ebp]
	add	ecx, 64					; 00000040H
	call	??0RandomRange@@QAE@XZ			; RandomRange::RandomRange
	mov	ecx, DWORD PTR _this$[ebp]
	add	ecx, 76					; 0000004cH
	call	??0RandomRange@@QAE@XZ			; RandomRange::RandomRange
	mov	ecx, DWORD PTR _this$[ebp]
	add	ecx, 88					; 00000058H
	call	??0RandomRange@@QAE@XZ			; RandomRange::RandomRange
	mov	ecx, DWORD PTR _this$[ebp]
	add	ecx, 100				; 00000064H
	call	??0RandomRange@@QAE@XZ			; RandomRange::RandomRange
	mov	ecx, DWORD PTR _this$[ebp]
	add	ecx, 112				; 00000070H
	call	??0RandomRange@@QAE@XZ			; RandomRange::RandomRange
	mov	ecx, DWORD PTR _this$[ebp]
	add	ecx, 124				; 0000007cH
	call	??0RandomRange@@QAE@XZ			; RandomRange::RandomRange
	mov	ecx, DWORD PTR _this$[ebp]
	add	ecx, 136				; 00000088H
	call	??0RandomRange@@QAE@XZ			; RandomRange::RandomRange
	mov	ecx, DWORD PTR _this$[ebp]
	add	ecx, 148				; 00000094H
	call	??0RandomRange@@QAE@XZ			; RandomRange::RandomRange
	mov	ecx, DWORD PTR _this$[ebp]
	add	ecx, 160				; 000000a0H
	call	??0RandomRange@@QAE@XZ			; RandomRange::RandomRange
	mov	ecx, DWORD PTR _this$[ebp]
	add	ecx, 172				; 000000acH
	call	??0RandomRange@@QAE@XZ			; RandomRange::RandomRange
	mov	ecx, DWORD PTR _this$[ebp]
	add	ecx, 184				; 000000b8H
	call	??0RandomRange@@QAE@XZ			; RandomRange::RandomRange
	mov	ecx, DWORD PTR _this$[ebp]
	add	ecx, 196				; 000000c4H
	call	??0RandomRange@@QAE@XZ			; RandomRange::RandomRange
	mov	ecx, DWORD PTR _this$[ebp]
	add	ecx, 208				; 000000d0H
	call	??0RandomRange@@QAE@XZ			; RandomRange::RandomRange
	mov	ecx, DWORD PTR _this$[ebp]
	add	ecx, 224				; 000000e0H
	call	??0RandomRange@@QAE@XZ			; RandomRange::RandomRange
	mov	ecx, DWORD PTR _this$[ebp]
	add	ecx, 236				; 000000ecH
	call	??0RandomRange@@QAE@XZ			; RandomRange::RandomRange
	mov	ecx, DWORD PTR _this$[ebp]
	add	ecx, 248				; 000000f8H
	call	??0RandomRange@@QAE@XZ			; RandomRange::RandomRange
	mov	ecx, DWORD PTR _this$[ebp]
	add	ecx, 260				; 00000104H
	call	??0RandomRange@@QAE@XZ			; RandomRange::RandomRange
	mov	ecx, DWORD PTR _this$[ebp]
	add	ecx, 272				; 00000110H
	call	??0RandomRange@@QAE@XZ			; RandomRange::RandomRange
	mov	ecx, DWORD PTR _this$[ebp]
	add	ecx, 284				; 0000011cH
	call	??0RandomRange@@QAE@XZ			; RandomRange::RandomRange
	mov	ecx, DWORD PTR _this$[ebp]
	add	ecx, 296				; 00000128H
	call	??0RandomRange@@QAE@XZ			; RandomRange::RandomRange
	mov	ecx, DWORD PTR _this$[ebp]
	add	ecx, 312				; 00000138H
	call	??0RandomRange@@QAE@XZ			; RandomRange::RandomRange
	mov	ecx, DWORD PTR _this$[ebp]
	add	ecx, 324				; 00000144H
	call	??0RandomRange@@QAE@XZ			; RandomRange::RandomRange
	mov	ecx, DWORD PTR _this$[ebp]
	add	ecx, 336				; 00000150H
	call	??0RandomRange@@QAE@XZ			; RandomRange::RandomRange
	mov	ecx, DWORD PTR _this$[ebp]
	add	ecx, 356				; 00000164H
	call	??0RandomRange@@QAE@XZ			; RandomRange::RandomRange

; 159  : 	m_pSprayType = m_pOverlayType = NULL;

	mov	eax, DWORD PTR _this$[ebp]
	mov	DWORD PTR [eax+352], 0
	mov	ecx, DWORD PTR _this$[ebp]
	mov	DWORD PTR [ecx+308], 0

; 160  : 	m_StartAngle = RandomRange( 45.0f );

	push	ecx
	movss	xmm0, DWORD PTR __real@42340000
	movss	DWORD PTR [esp], xmm0
	lea	ecx, DWORD PTR $T3[ebp]
	call	??0RandomRange@@QAE@M@Z			; RandomRange::RandomRange
	mov	ecx, DWORD PTR _this$[ebp]
	add	ecx, 224				; 000000e0H
	mov	edx, DWORD PTR [eax]
	mov	DWORD PTR [ecx], edx
	mov	edx, DWORD PTR [eax+4]
	mov	DWORD PTR [ecx+4], edx
	mov	eax, DWORD PTR [eax+8]
	mov	DWORD PTR [ecx+8], eax

; 161  : 	m_pNext = pNext;

	mov	eax, DWORD PTR _this$[ebp]
	mov	ecx, DWORD PTR _pNext$[ebp]
	mov	DWORD PTR [eax+368], ecx

; 162  : 	m_szName[0] = 0;

	mov	eax, 1
	imul	ecx, eax, 0
	mov	edx, DWORD PTR _this$[ebp]
	mov	BYTE PTR [edx+ecx+372], 0

; 163  : 	m_hSprite = 0;

	mov	eax, DWORD PTR _this$[ebp]
	mov	DWORD PTR [eax+348], 0

; 164  : 
; 165  : 	m_StartRed = m_StartGreen = m_StartBlue = m_StartAlpha = RandomRange( 1.0f );

	push	ecx
	movss	xmm0, DWORD PTR __real@3f800000
	movss	DWORD PTR [esp], xmm0
	lea	ecx, DWORD PTR $T2[ebp]
	call	??0RandomRange@@QAE@M@Z			; RandomRange::RandomRange
	mov	ecx, DWORD PTR _this$[ebp]
	add	ecx, 52					; 00000034H
	mov	edx, DWORD PTR [eax]
	mov	DWORD PTR [ecx], edx
	mov	edx, DWORD PTR [eax+4]
	mov	DWORD PTR [ecx+4], edx
	mov	eax, DWORD PTR [eax+8]
	mov	DWORD PTR [ecx+8], eax
	mov	ecx, DWORD PTR _this$[ebp]
	add	ecx, 52					; 00000034H
	mov	edx, DWORD PTR _this$[ebp]
	add	edx, 124				; 0000007cH
	mov	eax, DWORD PTR [ecx]
	mov	DWORD PTR [edx], eax
	mov	eax, DWORD PTR [ecx+4]
	mov	DWORD PTR [edx+4], eax
	mov	ecx, DWORD PTR [ecx+8]
	mov	DWORD PTR [edx+8], ecx
	mov	edx, DWORD PTR _this$[ebp]
	add	edx, 124				; 0000007cH
	mov	eax, DWORD PTR _this$[ebp]
	add	eax, 100				; 00000064H
	mov	ecx, DWORD PTR [edx]
	mov	DWORD PTR [eax], ecx
	mov	ecx, DWORD PTR [edx+4]
	mov	DWORD PTR [eax+4], ecx
	mov	edx, DWORD PTR [edx+8]
	mov	DWORD PTR [eax+8], edx
	mov	eax, DWORD PTR _this$[ebp]
	add	eax, 100				; 00000064H
	mov	ecx, DWORD PTR _this$[ebp]
	add	ecx, 76					; 0000004cH
	mov	edx, DWORD PTR [eax]
	mov	DWORD PTR [ecx], edx
	mov	edx, DWORD PTR [eax+4]
	mov	DWORD PTR [ecx+4], edx
	mov	eax, DWORD PTR [eax+8]
	mov	DWORD PTR [ecx+8], eax

; 166  : 	m_EndRed = m_EndGreen = m_EndBlue = m_EndAlpha = RandomRange( 1.0f );

	push	ecx
	movss	xmm0, DWORD PTR __real@3f800000
	movss	DWORD PTR [esp], xmm0
	lea	ecx, DWORD PTR $T1[ebp]
	call	??0RandomRange@@QAE@M@Z			; RandomRange::RandomRange
	mov	ecx, DWORD PTR _this$[ebp]
	add	ecx, 64					; 00000040H
	mov	edx, DWORD PTR [eax]
	mov	DWORD PTR [ecx], edx
	mov	edx, DWORD PTR [eax+4]
	mov	DWORD PTR [ecx+4], edx
	mov	eax, DWORD PTR [eax+8]
	mov	DWORD PTR [ecx+8], eax
	mov	ecx, DWORD PTR _this$[ebp]
	add	ecx, 64					; 00000040H
	mov	edx, DWORD PTR _this$[ebp]
	add	edx, 136				; 00000088H
	mov	eax, DWORD PTR [ecx]
	mov	DWORD PTR [edx], eax
	mov	eax, DWORD PTR [ecx+4]
	mov	DWORD PTR [edx+4], eax
	mov	ecx, DWORD PTR [ecx+8]
	mov	DWORD PTR [edx+8], ecx
	mov	edx, DWORD PTR _this$[ebp]
	add	edx, 136				; 00000088H
	mov	eax, DWORD PTR _this$[ebp]
	add	eax, 112				; 00000070H
	mov	ecx, DWORD PTR [edx]
	mov	DWORD PTR [eax], ecx
	mov	ecx, DWORD PTR [edx+4]
	mov	DWORD PTR [eax+4], ecx
	mov	edx, DWORD PTR [edx+8]
	mov	DWORD PTR [eax+8], edx
	mov	eax, DWORD PTR _this$[ebp]
	add	eax, 112				; 00000070H
	mov	ecx, DWORD PTR _this$[ebp]
	add	ecx, 88					; 00000058H
	mov	edx, DWORD PTR [eax]
	mov	DWORD PTR [ecx], edx
	mov	edx, DWORD PTR [eax+4]
	mov	DWORD PTR [ecx+4], edx
	mov	eax, DWORD PTR [eax+8]
	mov	DWORD PTR [ecx+8], eax

; 167  : 
; 168  : 	m_iRenderMode = kRenderTransAdd;

	mov	eax, DWORD PTR _this$[ebp]
	mov	DWORD PTR [eax+4], 5

; 169  : 	m_iDrawCond = CONTENTS_NONE;

	mov	eax, DWORD PTR _this$[ebp]
	mov	DWORD PTR [eax+8], 0

; 170  : 	m_bIsDefined = false;

	mov	eax, DWORD PTR _this$[ebp]
	mov	BYTE PTR [eax], 0

; 171  : 	m_bEndFrame = false;

	mov	eax, DWORD PTR _this$[ebp]
	mov	BYTE PTR [eax+220], 0

; 172  : 	m_bBouncing = false;

	mov	eax, DWORD PTR _this$[ebp]
	mov	BYTE PTR [eax+36], 0

; 173  : }

	mov	eax, DWORD PTR _this$[ebp]
	pop	edi
	pop	esi
	pop	ebx
	mov	esp, ebp
	pop	ebp
	ret	4
??0CParticleType@@QAE@PAV0@@Z ENDP			; CParticleType::CParticleType
_TEXT	ENDS
; Function compile flags: /Odtp /ZI
;	COMDAT ??0CParticle@@QAE@XZ
_TEXT	SEGMENT
_this$ = -4						; size = 4
??0CParticle@@QAE@XZ PROC				; CParticle::CParticle, COMDAT
; _this$ = ecx
	push	ebp
	mov	ebp, esp
	sub	esp, 68					; 00000044H
	push	ebx
	push	esi
	push	edi
	mov	DWORD PTR _this$[ebp], ecx
	mov	ecx, DWORD PTR _this$[ebp]
	add	ecx, 12					; 0000000cH
	call	??0Vector@@QAE@XZ			; Vector::Vector
	mov	ecx, DWORD PTR _this$[ebp]
	add	ecx, 24					; 00000018H
	call	??0Vector@@QAE@XZ			; Vector::Vector
	mov	ecx, DWORD PTR _this$[ebp]
	add	ecx, 36					; 00000024H
	call	??0Vector@@QAE@XZ			; Vector::Vector
	mov	ecx, DWORD PTR _this$[ebp]
	add	ecx, 48					; 00000030H
	call	??0Vector@@QAE@XZ			; Vector::Vector
	mov	eax, DWORD PTR _this$[ebp]
	pop	edi
	pop	esi
	pop	ebx
	mov	esp, ebp
	pop	ebp
	ret	0
??0CParticle@@QAE@XZ ENDP				; CParticle::CParticle
_TEXT	ENDS
; Function compile flags: /Odtp /ZI
; File d:\!diffusion 2020\source code 2022\client-server\client\render\r_studio.h
;	COMDAT ?R_StudioAttachmentAngles@@YA?AVVector@@PBUcl_entity_s@@HH@Z
_TEXT	SEGMENT
_angles$ = -12						; size = 12
___$ReturnUdt$ = 8					; size = 4
_ent$ = 12						; size = 4
_num$ = 16						; size = 4
_flags$ = 20						; size = 4
?R_StudioAttachmentAngles@@YA?AVVector@@PBUcl_entity_s@@HH@Z PROC ; R_StudioAttachmentAngles, COMDAT

; 754  : {

	push	ebp
	mov	ebp, esp
	sub	esp, 76					; 0000004cH
	push	ebx
	push	esi
	push	edi

; 755  : 	Vector angles = g_vecZero;

	push	OFFSET ?g_vecZero@@3VVector@@B		; g_vecZero
	lea	ecx, DWORD PTR _angles$[ebp]
	call	??0Vector@@QAE@ABV0@@Z			; Vector::Vector

; 756  : 
; 757  : 	g_StudioRenderer.StudioGetAttachment( ent, num, NULL, &angles, flags );

	mov	eax, DWORD PTR _flags$[ebp]
	push	eax
	lea	ecx, DWORD PTR _angles$[ebp]
	push	ecx
	push	0
	mov	edx, DWORD PTR _num$[ebp]
	push	edx
	mov	eax, DWORD PTR _ent$[ebp]
	push	eax
	mov	ecx, OFFSET ?g_StudioRenderer@@3VCStudioModelRenderer@@A ; g_StudioRenderer
	call	?StudioGetAttachment@CStudioModelRenderer@@QAEXPBUcl_entity_s@@HPAVVector@@1H@Z ; CStudioModelRenderer::StudioGetAttachment

; 758  : 
; 759  : 	return angles;

	lea	eax, DWORD PTR _angles$[ebp]
	push	eax
	mov	ecx, DWORD PTR ___$ReturnUdt$[ebp]
	call	??0Vector@@QAE@ABV0@@Z			; Vector::Vector
	mov	eax, DWORD PTR ___$ReturnUdt$[ebp]

; 760  : }

	pop	edi
	pop	esi
	pop	ebx
	mov	esp, ebp
	pop	ebp
	ret	0
?R_StudioAttachmentAngles@@YA?AVVector@@PBUcl_entity_s@@HH@Z ENDP ; R_StudioAttachmentAngles
_TEXT	ENDS
; Function compile flags: /Odtp /ZI
; File d:\!diffusion 2020\source code 2022\client-server\client\render\r_studio.h
;	COMDAT ?R_StudioAttachmentOrigin@@YA?AVVector@@PBUcl_entity_s@@HH@Z
_TEXT	SEGMENT
_origin$ = -12						; size = 12
___$ReturnUdt$ = 8					; size = 4
_ent$ = 12						; size = 4
_num$ = 16						; size = 4
_flags$ = 20						; size = 4
?R_StudioAttachmentOrigin@@YA?AVVector@@PBUcl_entity_s@@HH@Z PROC ; R_StudioAttachmentOrigin, COMDAT

; 745  : {

	push	ebp
	mov	ebp, esp
	sub	esp, 76					; 0000004cH
	push	ebx
	push	esi
	push	edi

; 746  : 	Vector origin = g_vecZero;

	push	OFFSET ?g_vecZero@@3VVector@@B		; g_vecZero
	lea	ecx, DWORD PTR _origin$[ebp]
	call	??0Vector@@QAE@ABV0@@Z			; Vector::Vector

; 747  : 
; 748  : 	g_StudioRenderer.StudioGetAttachment( ent, num, &origin, NULL, flags );

	mov	eax, DWORD PTR _flags$[ebp]
	push	eax
	push	0
	lea	ecx, DWORD PTR _origin$[ebp]
	push	ecx
	mov	edx, DWORD PTR _num$[ebp]
	push	edx
	mov	eax, DWORD PTR _ent$[ebp]
	push	eax
	mov	ecx, OFFSET ?g_StudioRenderer@@3VCStudioModelRenderer@@A ; g_StudioRenderer
	call	?StudioGetAttachment@CStudioModelRenderer@@QAEXPBUcl_entity_s@@HPAVVector@@1H@Z ; CStudioModelRenderer::StudioGetAttachment

; 749  : 
; 750  : 	return origin;

	lea	eax, DWORD PTR _origin$[ebp]
	push	eax
	mov	ecx, DWORD PTR ___$ReturnUdt$[ebp]
	call	??0Vector@@QAE@ABV0@@Z			; Vector::Vector
	mov	eax, DWORD PTR ___$ReturnUdt$[ebp]

; 751  : }

	pop	edi
	pop	esi
	pop	ebx
	mov	esp, ebp
	pop	ebp
	ret	0
?R_StudioAttachmentOrigin@@YA?AVVector@@PBUcl_entity_s@@HH@Z ENDP ; R_StudioAttachmentOrigin
_TEXT	ENDS
; Function compile flags: /Odtp /ZI
; File d:\!diffusion 2020\source code 2022\client-server\client\render\r_particle.cpp
;	COMDAT ?UTIL_RemoveAurora@@YAXPAUcl_entity_s@@@Z
_TEXT	SEGMENT
_pSystem$ = -4						; size = 4
_ent$ = 8						; size = 4
?UTIL_RemoveAurora@@YAXPAUcl_entity_s@@@Z PROC		; UTIL_RemoveAurora, COMDAT

; 45   : {

	push	ebp
	mov	ebp, esp
	sub	esp, 68					; 00000044H
	push	ebx
	push	esi
	push	edi

; 46   : 	CParticleSystem *pSystem = g_pParticleSystems->FindSystem( NULL, ent );

	mov	eax, DWORD PTR _ent$[ebp]
	push	eax
	push	0
	mov	ecx, DWORD PTR ?g_pParticleSystems@@3PAVCParticleSystemManager@@A ; g_pParticleSystems
	call	?FindSystem@CParticleSystemManager@@QAEPAVCParticleSystem@@PAV2@PAUcl_entity_s@@@Z ; CParticleSystemManager::FindSystem
	mov	DWORD PTR _pSystem$[ebp], eax
$LN2@UTIL_Remov:

; 47   : 
; 48   : 	// find all the partsystems that attached with this entity
; 49   : 	while( pSystem != NULL )

	cmp	DWORD PTR _pSystem$[ebp], 0
	je	SHORT $LN1@UTIL_Remov

; 50   : 	{
; 51   : 		g_pParticleSystems->MarkSystemForDeletion( pSystem );

	mov	eax, DWORD PTR _pSystem$[ebp]
	push	eax
	mov	ecx, DWORD PTR ?g_pParticleSystems@@3PAVCParticleSystemManager@@A ; g_pParticleSystems
	call	?MarkSystemForDeletion@CParticleSystemManager@@QAEXPAVCParticleSystem@@@Z ; CParticleSystemManager::MarkSystemForDeletion

; 52   : 		pSystem = g_pParticleSystems->FindSystem( pSystem, ent );

	mov	eax, DWORD PTR _ent$[ebp]
	push	eax
	mov	ecx, DWORD PTR _pSystem$[ebp]
	push	ecx
	mov	ecx, DWORD PTR ?g_pParticleSystems@@3PAVCParticleSystemManager@@A ; g_pParticleSystems
	call	?FindSystem@CParticleSystemManager@@QAEPAVCParticleSystem@@PAV2@PAUcl_entity_s@@@Z ; CParticleSystemManager::FindSystem
	mov	DWORD PTR _pSystem$[ebp], eax

; 53   : 	}

	jmp	SHORT $LN2@UTIL_Remov
$LN1@UTIL_Remov:

; 54   : }

	pop	edi
	pop	esi
	pop	ebx
	mov	esp, ebp
	pop	ebp
	ret	0
?UTIL_RemoveAurora@@YAXPAUcl_entity_s@@@Z ENDP		; UTIL_RemoveAurora
_TEXT	ENDS
; Function compile flags: /Odtp /ZI
; File d:\!diffusion 2020\source code 2022\client-server\client\render\r_particle.cpp
;	COMDAT ?UTIL_CreateAurora@@YAXPAUcl_entity_s@@PBDHM@Z
_TEXT	SEGMENT
tv85 = -96						; size = 4
$T2 = -92						; size = 4
$T3 = -88						; size = 4
_pSystem$4 = -20					; size = 4
_iCompare$ = -16					; size = 4
__$EHRec$ = -12						; size = 12
_ent$ = 8						; size = 4
_file$ = 12						; size = 4
_attachment$ = 16					; size = 4
_lifetime$ = 20						; size = 4
?UTIL_CreateAurora@@YAXPAUcl_entity_s@@PBDHM@Z PROC	; UTIL_CreateAurora, COMDAT

; 28   : {

	push	ebp
	mov	ebp, esp
	push	-1
	push	__ehhandler$?UTIL_CreateAurora@@YAXPAUcl_entity_s@@PBDHM@Z
	mov	eax, DWORD PTR fs:0
	push	eax
	sub	esp, 84					; 00000054H
	push	ebx
	push	esi
	push	edi
	mov	eax, DWORD PTR ___security_cookie
	xor	eax, ebp
	push	eax
	lea	eax, DWORD PTR __$EHRec$[ebp]
	mov	DWORD PTR fs:0, eax

; 29   : 	int iCompare;
; 30   : 
; 31   : 	// verify file exists
; 32   : 	// g-cont. idea! use COMPARE_FILE_TIME instead of LOAD_FILE_FOR_ME
; 33   : 	if( !g_fRenderInitialized || COMPARE_FILE_TIME( file, file, &iCompare ))

	cmp	DWORD PTR ?g_fRenderInitialized@@3HA, 0	; g_fRenderInitialized
	je	SHORT $LN4@UTIL_Creat
	lea	eax, DWORD PTR _iCompare$[ebp]
	push	eax
	mov	ecx, DWORD PTR _file$[ebp]
	push	ecx
	mov	edx, DWORD PTR _file$[ebp]
	push	edx
	call	DWORD PTR ?gRenderfuncs@@3Urender_api_s@@A+232
	add	esp, 12					; 0000000cH
	test	eax, eax
	je	SHORT $LN2@UTIL_Creat
$LN4@UTIL_Creat:

; 34   : 	{
; 35   : 		CParticleSystem *pSystem = new CParticleSystem( ent, file, attachment, lifetime );

	push	112					; 00000070H
	call	??2@YAPAXI@Z				; operator new
	add	esp, 4
	mov	DWORD PTR $T2[ebp], eax
	mov	DWORD PTR __$EHRec$[ebp+8], 0
	cmp	DWORD PTR $T2[ebp], 0
	je	SHORT $LN6@UTIL_Creat
	push	ecx
	movss	xmm0, DWORD PTR _lifetime$[ebp]
	movss	DWORD PTR [esp], xmm0
	mov	eax, DWORD PTR _attachment$[ebp]
	push	eax
	mov	ecx, DWORD PTR _file$[ebp]
	push	ecx
	mov	edx, DWORD PTR _ent$[ebp]
	push	edx
	mov	ecx, DWORD PTR $T2[ebp]
	call	??0CParticleSystem@@QAE@PAUcl_entity_s@@PBDHM@Z ; CParticleSystem::CParticleSystem
	mov	DWORD PTR tv85[ebp], eax
	jmp	SHORT $LN7@UTIL_Creat
$LN6@UTIL_Creat:
	mov	DWORD PTR tv85[ebp], 0
$LN7@UTIL_Creat:
	mov	eax, DWORD PTR tv85[ebp]
	mov	DWORD PTR $T3[ebp], eax
	mov	DWORD PTR __$EHRec$[ebp+8], -1
	mov	ecx, DWORD PTR $T3[ebp]
	mov	DWORD PTR _pSystem$4[ebp], ecx

; 36   : 		g_pParticleSystems->AddSystem( pSystem );

	mov	eax, DWORD PTR _pSystem$4[ebp]
	push	eax
	mov	ecx, DWORD PTR ?g_pParticleSystems@@3PAVCParticleSystemManager@@A ; g_pParticleSystems
	call	?AddSystem@CParticleSystemManager@@QAEXPAVCParticleSystem@@@Z ; CParticleSystemManager::AddSystem

; 37   : 	}
; 38   : 	else

	jmp	SHORT $LN3@UTIL_Creat
$LN2@UTIL_Creat:

; 39   : 	{
; 40   : 		ALERT( at_error, "CreateAurora: couldn't load %s\n", file );

	mov	eax, DWORD PTR _file$[ebp]
	push	eax
	push	OFFSET ??_C@_0CA@HDIPOCAB@CreateAurora?3?5couldn?8t?5load?5?$CFs?6?$AA@
	push	4
	call	?ALERT@@YAXW4ALERT_TYPE@@PADZZ		; ALERT
	add	esp, 12					; 0000000cH
$LN3@UTIL_Creat:

; 41   : 	}
; 42   : }

	mov	ecx, DWORD PTR __$EHRec$[ebp]
	mov	DWORD PTR fs:0, ecx
	pop	ecx
	pop	edi
	pop	esi
	pop	ebx
	mov	esp, ebp
	pop	ebp
	ret	0
_TEXT	ENDS
;	COMDAT text$x
text$x	SEGMENT
__unwindfunclet$?UTIL_CreateAurora@@YAXPAUcl_entity_s@@PBDHM@Z$0:
	push	112					; 00000070H
	mov	eax, DWORD PTR $T2[ebp]
	push	eax
	call	??3@YAXPAXI@Z				; operator delete
	add	esp, 8
	ret	0
__ehhandler$?UTIL_CreateAurora@@YAXPAUcl_entity_s@@PBDHM@Z:
	mov	edx, DWORD PTR [esp+8]
	lea	eax, DWORD PTR [edx+12]
	mov	ecx, DWORD PTR [edx-100]
	xor	ecx, eax
	call	@__security_check_cookie@4
	mov	eax, OFFSET __ehfuncinfo$?UTIL_CreateAurora@@YAXPAUcl_entity_s@@PBDHM@Z
	jmp	___CxxFrameHandler3
text$x	ENDS
?UTIL_CreateAurora@@YAXPAUcl_entity_s@@PBDHM@Z ENDP	; UTIL_CreateAurora
; Function compile flags: /Odtp /ZI
; File d:\!diffusion 2020\source code 2022\client-server\game_shared\randomrange.h
;	COMDAT ?IsDefined@RandomRange@@QAE_NXZ
_TEXT	SEGMENT
_this$ = -4						; size = 4
?IsDefined@RandomRange@@QAE_NXZ PROC			; RandomRange::IsDefined, COMDAT
; _this$ = ecx

; 63   : 	bool IsDefined() { return m_bDefined; } 

	push	ebp
	mov	ebp, esp
	sub	esp, 68					; 00000044H
	push	ebx
	push	esi
	push	edi
	mov	DWORD PTR _this$[ebp], ecx
	mov	eax, DWORD PTR _this$[ebp]
	mov	al, BYTE PTR [eax+8]
	pop	edi
	pop	esi
	pop	ebx
	mov	esp, ebp
	pop	ebp
	ret	0
?IsDefined@RandomRange@@QAE_NXZ ENDP			; RandomRange::IsDefined
_TEXT	ENDS
; Function compile flags: /Odtp /ZI
; File d:\!diffusion 2020\source code 2022\client-server\game_shared\randomrange.h
;	COMDAT ?GetOffset@RandomRange@@QAEMM@Z
_TEXT	SEGMENT
tv73 = -76						; size = 4
tv71 = -72						; size = 4
_this$ = -4						; size = 4
_fBasis$ = 8						; size = 4
?GetOffset@RandomRange@@QAEMM@Z PROC			; RandomRange::GetOffset, COMDAT
; _this$ = ecx

; 61   : 	float GetOffset( float fBasis ) { return Random() - fBasis; }

	push	ebp
	mov	ebp, esp
	sub	esp, 76					; 0000004cH
	push	ebx
	push	esi
	push	edi
	mov	DWORD PTR _this$[ebp], ecx
	mov	ecx, DWORD PTR _this$[ebp]
	call	?Random@RandomRange@@QAEMXZ		; RandomRange::Random
	fstp	DWORD PTR tv71[ebp]
	movss	xmm0, DWORD PTR tv71[ebp]
	subss	xmm0, DWORD PTR _fBasis$[ebp]
	movss	DWORD PTR tv73[ebp], xmm0
	fld	DWORD PTR tv73[ebp]
	pop	edi
	pop	esi
	pop	ebx
	mov	esp, ebp
	pop	ebp
	ret	4
?GetOffset@RandomRange@@QAEMM@Z ENDP			; RandomRange::GetOffset
_TEXT	ENDS
; Function compile flags: /Odtp /ZI
; File d:\!diffusion 2020\source code 2022\client-server\game_shared\randomrange.h
;	COMDAT ?GetInstance@RandomRange@@QAEMXZ
_TEXT	SEGMENT
_this$ = -4						; size = 4
?GetInstance@RandomRange@@QAEMXZ PROC			; RandomRange::GetInstance, COMDAT
; _this$ = ecx

; 60   : 	float GetInstance() { return Random(); }

	push	ebp
	mov	ebp, esp
	sub	esp, 68					; 00000044H
	push	ebx
	push	esi
	push	edi
	mov	DWORD PTR _this$[ebp], ecx
	mov	ecx, DWORD PTR _this$[ebp]
	call	?Random@RandomRange@@QAEMXZ		; RandomRange::Random
	pop	edi
	pop	esi
	pop	ebx
	mov	esp, ebp
	pop	ebp
	ret	0
?GetInstance@RandomRange@@QAEMXZ ENDP			; RandomRange::GetInstance
_TEXT	ENDS
; Function compile flags: /Odtp /ZI
; File d:\!diffusion 2020\source code 2022\client-server\game_shared\randomrange.h
;	COMDAT ?Random@RandomRange@@QAEMXZ
_TEXT	SEGMENT
_this$ = -4						; size = 4
?Random@RandomRange@@QAEMXZ PROC			; RandomRange::Random, COMDAT
; _this$ = ecx

; 57   : 	float Random() { return RANDOM_FLOAT(m_flMin, m_flMax); }

	push	ebp
	mov	ebp, esp
	sub	esp, 68					; 00000044H
	push	ebx
	push	esi
	push	edi
	mov	DWORD PTR _this$[ebp], ecx
	mov	eax, DWORD PTR _this$[ebp]
	push	ecx
	movss	xmm0, DWORD PTR [eax+4]
	movss	DWORD PTR [esp], xmm0
	mov	ecx, DWORD PTR _this$[ebp]
	push	ecx
	movss	xmm0, DWORD PTR [ecx]
	movss	DWORD PTR [esp], xmm0
	call	DWORD PTR ?gEngfuncs@@3Ucl_enginefuncs_s@@A+268
	add	esp, 8
	pop	edi
	pop	esi
	pop	ebx
	mov	esp, ebp
	pop	ebp
	ret	0
?Random@RandomRange@@QAEMXZ ENDP			; RandomRange::Random
_TEXT	ENDS
; Function compile flags: /Odtp /ZI
; File d:\!diffusion 2020\source code 2022\client-server\game_shared\randomrange.h
;	COMDAT ??0RandomRange@@QAE@PAD@Z
_TEXT	SEGMENT
tv80 = -80						; size = 4
_c$1 = -12						; size = 4
_cOneDot$ = -8						; size = 4
_this$ = -4						; size = 4
_szToken$ = 8						; size = 4
??0RandomRange@@QAE@PAD@Z PROC				; RandomRange::RandomRange, COMDAT
; _this$ = ecx

; 28   : 	RandomRange( char *szToken )

	push	ebp
	mov	ebp, esp
	sub	esp, 80					; 00000050H
	push	ebx
	push	esi
	push	edi
	mov	DWORD PTR _this$[ebp], ecx

; 29   : 	{
; 30   : 		char *cOneDot = NULL;

	mov	DWORD PTR _cOneDot$[ebp], 0

; 31   : 		m_bDefined = true;

	mov	eax, DWORD PTR _this$[ebp]
	mov	BYTE PTR [eax+8], 1

; 32   : 	
; 33   : 		for( char *c = szToken; *c; c++ )

	mov	eax, DWORD PTR _szToken$[ebp]
	mov	DWORD PTR _c$1[ebp], eax
	jmp	SHORT $LN4@RandomRang
$LN2@RandomRang:
	mov	eax, DWORD PTR _c$1[ebp]
	add	eax, 1
	mov	DWORD PTR _c$1[ebp], eax
$LN4@RandomRang:
	mov	eax, DWORD PTR _c$1[ebp]
	movsx	ecx, BYTE PTR [eax]
	test	ecx, ecx
	je	SHORT $LN3@RandomRang

; 34   : 		{
; 35   : 			if( *c == '.' )

	mov	eax, DWORD PTR _c$1[ebp]
	movsx	ecx, BYTE PTR [eax]
	cmp	ecx, 46					; 0000002eH
	jne	SHORT $LN5@RandomRang

; 36   : 			{
; 37   : 				if( cOneDot != NULL )

	cmp	DWORD PTR _cOneDot$[ebp], 0
	je	SHORT $LN7@RandomRang

; 38   : 				{
; 39   : 					// found two dots in a row - it's a range
; 40   : 					*cOneDot = 0; // null terminate the first number

	mov	eax, DWORD PTR _cOneDot$[ebp]
	mov	BYTE PTR [eax], 0

; 41   : 					m_flMin = Q_atof( szToken ); // parse the first number

	mov	eax, DWORD PTR _szToken$[ebp]
	push	eax
	call	?Q_atof@@YAMPBD@Z			; Q_atof
	add	esp, 4
	mov	ecx, DWORD PTR _this$[ebp]
	fstp	DWORD PTR [ecx]

; 42   : 					*cOneDot = '.'; // change it back, just in case

	mov	eax, DWORD PTR _cOneDot$[ebp]
	mov	BYTE PTR [eax], 46			; 0000002eH

; 43   : 					c++;

	mov	eax, DWORD PTR _c$1[ebp]
	add	eax, 1
	mov	DWORD PTR _c$1[ebp], eax

; 44   : 					m_flMax = Q_atof( c ); // parse the second number

	mov	eax, DWORD PTR _c$1[ebp]
	push	eax
	call	?Q_atof@@YAMPBD@Z			; Q_atof
	add	esp, 4
	mov	ecx, DWORD PTR _this$[ebp]
	fstp	DWORD PTR [ecx+4]

; 45   : 					return;

	jmp	SHORT $LN1@RandomRang
	jmp	SHORT $LN8@RandomRang
$LN7@RandomRang:

; 46   : 				}
; 47   : 				else cOneDot = c;

	mov	eax, DWORD PTR _c$1[ebp]
	mov	DWORD PTR _cOneDot$[ebp], eax
$LN8@RandomRang:
	jmp	SHORT $LN6@RandomRang
$LN5@RandomRang:

; 48   : 			}
; 49   : 			else cOneDot = NULL;

	mov	DWORD PTR _cOneDot$[ebp], 0
$LN6@RandomRang:

; 50   : 		}

	jmp	SHORT $LN2@RandomRang
$LN3@RandomRang:

; 51   : 
; 52   : 		// no range, just record the number
; 53   : 		m_flMax = m_flMin = Q_atof( szToken );

	mov	eax, DWORD PTR _szToken$[ebp]
	push	eax
	call	?Q_atof@@YAMPBD@Z			; Q_atof
	add	esp, 4
	fstp	DWORD PTR tv80[ebp]
	mov	ecx, DWORD PTR _this$[ebp]
	movss	xmm0, DWORD PTR tv80[ebp]
	movss	DWORD PTR [ecx], xmm0
	mov	edx, DWORD PTR _this$[ebp]
	movss	xmm0, DWORD PTR tv80[ebp]
	movss	DWORD PTR [edx+4], xmm0
$LN1@RandomRang:

; 54   :           }

	mov	eax, DWORD PTR _this$[ebp]
	pop	edi
	pop	esi
	pop	ebx
	mov	esp, ebp
	pop	ebp
	ret	4
??0RandomRange@@QAE@PAD@Z ENDP				; RandomRange::RandomRange
_TEXT	ENDS
; Function compile flags: /Odtp /ZI
; File d:\!diffusion 2020\source code 2022\client-server\game_shared\randomrange.h
;	COMDAT ??0RandomRange@@QAE@M@Z
_TEXT	SEGMENT
_this$ = -4						; size = 4
_fValue$ = 8						; size = 4
??0RandomRange@@QAE@M@Z PROC				; RandomRange::RandomRange, COMDAT
; _this$ = ecx

; 26   : 	RandomRange( float fValue ) { m_flMin = m_flMax = fValue; m_bDefined = true; }

	push	ebp
	mov	ebp, esp
	sub	esp, 68					; 00000044H
	push	ebx
	push	esi
	push	edi
	mov	DWORD PTR _this$[ebp], ecx
	mov	eax, DWORD PTR _this$[ebp]
	movss	xmm0, DWORD PTR _fValue$[ebp]
	movss	DWORD PTR [eax+4], xmm0
	mov	ecx, DWORD PTR _this$[ebp]
	movss	xmm0, DWORD PTR _fValue$[ebp]
	movss	DWORD PTR [ecx], xmm0
	mov	eax, DWORD PTR _this$[ebp]
	mov	BYTE PTR [eax+8], 1
	mov	eax, DWORD PTR _this$[ebp]
	pop	edi
	pop	esi
	pop	ebx
	mov	esp, ebp
	pop	ebp
	ret	4
??0RandomRange@@QAE@M@Z ENDP				; RandomRange::RandomRange
_TEXT	ENDS
; Function compile flags: /Odtp /ZI
; File d:\!diffusion 2020\source code 2022\client-server\game_shared\randomrange.h
;	COMDAT ??0RandomRange@@QAE@XZ
_TEXT	SEGMENT
_this$ = -4						; size = 4
??0RandomRange@@QAE@XZ PROC				; RandomRange::RandomRange, COMDAT
; _this$ = ecx

; 25   : 	RandomRange() { m_flMin = m_flMax = 0; m_bDefined = false; }

	push	ebp
	mov	ebp, esp
	sub	esp, 68					; 00000044H
	push	ebx
	push	esi
	push	edi
	mov	DWORD PTR _this$[ebp], ecx
	mov	eax, DWORD PTR _this$[ebp]
	xorps	xmm0, xmm0
	movss	DWORD PTR [eax+4], xmm0
	mov	ecx, DWORD PTR _this$[ebp]
	xorps	xmm0, xmm0
	movss	DWORD PTR [ecx], xmm0
	mov	eax, DWORD PTR _this$[ebp]
	mov	BYTE PTR [eax+8], 0
	mov	eax, DWORD PTR _this$[ebp]
	pop	edi
	pop	esi
	pop	ebx
	mov	esp, ebp
	pop	ebp
	ret	0
??0RandomRange@@QAE@XZ ENDP				; RandomRange::RandomRange
_TEXT	ENDS
; Function compile flags: /Odtp /ZI
; File d:\!diffusion 2020\source code 2022\client-server\game_shared\matrix.h
;	COMDAT ?GetForward@matrix3x3@@QBE?AVVector@@XZ
_TEXT	SEGMENT
_this$ = -4						; size = 4
___$ReturnUdt$ = 8					; size = 4
?GetForward@matrix3x3@@QBE?AVVector@@XZ PROC		; matrix3x3::GetForward, COMDAT
; _this$ = ecx

; 154  : 	Vector	GetForward() const { return mat[0]; };

	push	ebp
	mov	ebp, esp
	sub	esp, 68					; 00000044H
	push	ebx
	push	esi
	push	edi
	mov	DWORD PTR _this$[ebp], ecx
	mov	eax, 12					; 0000000cH
	imul	ecx, eax, 0
	add	ecx, DWORD PTR _this$[ebp]
	push	ecx
	mov	ecx, DWORD PTR ___$ReturnUdt$[ebp]
	call	??0Vector@@QAE@ABV0@@Z			; Vector::Vector
	mov	eax, DWORD PTR ___$ReturnUdt$[ebp]
	pop	edi
	pop	esi
	pop	ebx
	mov	esp, ebp
	pop	ebp
	ret	4
?GetForward@matrix3x3@@QBE?AVVector@@XZ ENDP		; matrix3x3::GetForward
_TEXT	ENDS
; Function compile flags: /Odtp /ZI
; File d:\!diffusion 2020\source code 2022\client-server\game_shared\matrix.h
;	COMDAT ??0matrix3x3@@QAE@ABVVector@@@Z
_TEXT	SEGMENT
tv693 = -100						; size = 4
tv691 = -100						; size = 4
tv689 = -100						; size = 4
tv687 = -100						; size = 4
tv685 = -100						; size = 4
tv683 = -100						; size = 4
tv681 = -100						; size = 4
tv679 = -100						; size = 4
tv677 = -100						; size = 4
tv675 = -100						; size = 4
tv673 = -100						; size = 4
tv671 = -100						; size = 4
tv669 = -100						; size = 4
tv667 = -100						; size = 4
tv665 = -100						; size = 4
tv663 = -100						; size = 4
_cy$ = -32						; size = 4
_cp$ = -28						; size = 4
_cr$ = -24						; size = 4
_sy$ = -20						; size = 4
_sp$ = -16						; size = 4
_sr$ = -12						; size = 4
_angle$ = -8						; size = 4
_this$ = -4						; size = 4
_angles$ = 8						; size = 4
??0matrix3x3@@QAE@ABVVector@@@Z PROC			; matrix3x3::matrix3x3, COMDAT
; _this$ = ecx

; 50   : 	_forceinline matrix3x3( const Vector &angles )

	push	ebp
	mov	ebp, esp
	sub	esp, 100				; 00000064H
	push	ebx
	push	esi
	push	edi
	mov	DWORD PTR _this$[ebp], ecx

; 51   : 	{

	push	OFFSET ??0Vector@@QAE@XZ		; Vector::Vector
	push	3
	push	12					; 0000000cH
	mov	eax, DWORD PTR _this$[ebp]
	push	eax
	call	??_H@YGXPAXIIP6EPAX0@Z@Z

; 52   : 		float	angle, sr, sp, sy, cr, cp, cy;
; 53   : 
; 54   : 		if( angles[ROLL] )

	mov	ecx, DWORD PTR _angles$[ebp]
	call	??BVector@@QBEPBMXZ			; Vector::operator float const *
	mov	ecx, 4
	shl	ecx, 1
	movss	xmm0, DWORD PTR [eax+ecx]
	ucomiss	xmm0, DWORD PTR __real@00000000
	lahf
	test	ah, 68					; 00000044H
	jnp	$LN2@matrix3x3

; 55   : 		{
; 56   : 			angle = angles[YAW] * (M_PI*2 / 360);

	mov	ecx, DWORD PTR _angles$[ebp]
	call	??BVector@@QBEPBMXZ			; Vector::operator float const *
	mov	ecx, 4
	shl	ecx, 0
	cvtss2sd xmm0, DWORD PTR [eax+ecx]
	mulsd	xmm0, QWORD PTR __real@3f91df46a2529d39
	cvtsd2ss xmm0, xmm0
	movss	DWORD PTR _angle$[ebp], xmm0

; 57   : 			SinCos( angle, &sy, &cy );

	lea	eax, DWORD PTR _cy$[ebp]
	push	eax
	lea	ecx, DWORD PTR _sy$[ebp]
	push	ecx
	push	ecx
	movss	xmm0, DWORD PTR _angle$[ebp]
	movss	DWORD PTR [esp], xmm0
	call	?SinCos@@YAXMPAM0@Z			; SinCos
	add	esp, 12					; 0000000cH

; 58   : 			angle = angles[PITCH] * (M_PI*2 / 360);

	mov	ecx, DWORD PTR _angles$[ebp]
	call	??BVector@@QBEPBMXZ			; Vector::operator float const *
	mov	ecx, 4
	imul	edx, ecx, 0
	cvtss2sd xmm0, DWORD PTR [eax+edx]
	mulsd	xmm0, QWORD PTR __real@3f91df46a2529d39
	cvtsd2ss xmm0, xmm0
	movss	DWORD PTR _angle$[ebp], xmm0

; 59   : 			SinCos( angle, &sp, &cp );

	lea	eax, DWORD PTR _cp$[ebp]
	push	eax
	lea	ecx, DWORD PTR _sp$[ebp]
	push	ecx
	push	ecx
	movss	xmm0, DWORD PTR _angle$[ebp]
	movss	DWORD PTR [esp], xmm0
	call	?SinCos@@YAXMPAM0@Z			; SinCos
	add	esp, 12					; 0000000cH

; 60   : 			angle = angles[ROLL] * (M_PI*2 / 360);

	mov	ecx, DWORD PTR _angles$[ebp]
	call	??BVector@@QBEPBMXZ			; Vector::operator float const *
	mov	ecx, 4
	shl	ecx, 1
	cvtss2sd xmm0, DWORD PTR [eax+ecx]
	mulsd	xmm0, QWORD PTR __real@3f91df46a2529d39
	cvtsd2ss xmm0, xmm0
	movss	DWORD PTR _angle$[ebp], xmm0

; 61   : 			SinCos( angle, &sr, &cr );

	lea	eax, DWORD PTR _cr$[ebp]
	push	eax
	lea	ecx, DWORD PTR _sr$[ebp]
	push	ecx
	push	ecx
	movss	xmm0, DWORD PTR _angle$[ebp]
	movss	DWORD PTR [esp], xmm0
	call	?SinCos@@YAXMPAM0@Z			; SinCos
	add	esp, 12					; 0000000cH

; 62   : 
; 63   : 			mat[0][0] = (cp*cy);

	movss	xmm0, DWORD PTR _cp$[ebp]
	mulss	xmm0, DWORD PTR _cy$[ebp]
	mov	eax, 12					; 0000000cH
	imul	ecx, eax, 0
	add	ecx, DWORD PTR _this$[ebp]
	movss	DWORD PTR tv663[ebp], xmm0
	call	??BVector@@QAEPAMXZ			; Vector::operator float *
	mov	ecx, 4
	imul	edx, ecx, 0
	movss	xmm0, DWORD PTR tv663[ebp]
	movss	DWORD PTR [eax+edx], xmm0

; 64   : 			mat[1][0] = (sr*sp*cy+cr*-sy);

	movss	xmm0, DWORD PTR _sr$[ebp]
	mulss	xmm0, DWORD PTR _sp$[ebp]
	mulss	xmm0, DWORD PTR _cy$[ebp]
	movss	xmm1, DWORD PTR _sy$[ebp]
	xorps	xmm1, DWORD PTR __xmm@80000000800000008000000080000000
	mulss	xmm1, DWORD PTR _cr$[ebp]
	addss	xmm0, xmm1
	mov	ecx, 12					; 0000000cH
	shl	ecx, 0
	add	ecx, DWORD PTR _this$[ebp]
	movss	DWORD PTR tv665[ebp], xmm0
	call	??BVector@@QAEPAMXZ			; Vector::operator float *
	mov	ecx, 4
	imul	edx, ecx, 0
	movss	xmm0, DWORD PTR tv665[ebp]
	movss	DWORD PTR [eax+edx], xmm0

; 65   : 			mat[2][0] = (cr*sp*cy+-sr*-sy);

	movss	xmm0, DWORD PTR _cr$[ebp]
	mulss	xmm0, DWORD PTR _sp$[ebp]
	mulss	xmm0, DWORD PTR _cy$[ebp]
	movss	xmm1, DWORD PTR _sr$[ebp]
	xorps	xmm1, DWORD PTR __xmm@80000000800000008000000080000000
	movss	xmm2, DWORD PTR _sy$[ebp]
	xorps	xmm2, DWORD PTR __xmm@80000000800000008000000080000000
	mulss	xmm1, xmm2
	addss	xmm0, xmm1
	mov	ecx, 12					; 0000000cH
	shl	ecx, 1
	add	ecx, DWORD PTR _this$[ebp]
	movss	DWORD PTR tv667[ebp], xmm0
	call	??BVector@@QAEPAMXZ			; Vector::operator float *
	mov	ecx, 4
	imul	edx, ecx, 0
	movss	xmm0, DWORD PTR tv667[ebp]
	movss	DWORD PTR [eax+edx], xmm0

; 66   : 			mat[0][1] = (cp*sy);

	movss	xmm0, DWORD PTR _cp$[ebp]
	mulss	xmm0, DWORD PTR _sy$[ebp]
	mov	eax, 12					; 0000000cH
	imul	ecx, eax, 0
	add	ecx, DWORD PTR _this$[ebp]
	movss	DWORD PTR tv669[ebp], xmm0
	call	??BVector@@QAEPAMXZ			; Vector::operator float *
	mov	ecx, 4
	shl	ecx, 0
	movss	xmm0, DWORD PTR tv669[ebp]
	movss	DWORD PTR [eax+ecx], xmm0

; 67   : 			mat[1][1] = (sr*sp*sy+cr*cy);

	movss	xmm0, DWORD PTR _sr$[ebp]
	mulss	xmm0, DWORD PTR _sp$[ebp]
	mulss	xmm0, DWORD PTR _sy$[ebp]
	movss	xmm1, DWORD PTR _cr$[ebp]
	mulss	xmm1, DWORD PTR _cy$[ebp]
	addss	xmm0, xmm1
	mov	ecx, 12					; 0000000cH
	shl	ecx, 0
	add	ecx, DWORD PTR _this$[ebp]
	movss	DWORD PTR tv671[ebp], xmm0
	call	??BVector@@QAEPAMXZ			; Vector::operator float *
	mov	ecx, 4
	shl	ecx, 0
	movss	xmm0, DWORD PTR tv671[ebp]
	movss	DWORD PTR [eax+ecx], xmm0

; 68   : 			mat[2][1] = (cr*sp*sy+-sr*cy);

	movss	xmm0, DWORD PTR _cr$[ebp]
	mulss	xmm0, DWORD PTR _sp$[ebp]
	mulss	xmm0, DWORD PTR _sy$[ebp]
	movss	xmm1, DWORD PTR _sr$[ebp]
	xorps	xmm1, DWORD PTR __xmm@80000000800000008000000080000000
	mulss	xmm1, DWORD PTR _cy$[ebp]
	addss	xmm0, xmm1
	mov	ecx, 12					; 0000000cH
	shl	ecx, 1
	add	ecx, DWORD PTR _this$[ebp]
	movss	DWORD PTR tv673[ebp], xmm0
	call	??BVector@@QAEPAMXZ			; Vector::operator float *
	mov	ecx, 4
	shl	ecx, 0
	movss	xmm0, DWORD PTR tv673[ebp]
	movss	DWORD PTR [eax+ecx], xmm0

; 69   : 			mat[0][2] = (-sp);

	movss	xmm0, DWORD PTR _sp$[ebp]
	xorps	xmm0, DWORD PTR __xmm@80000000800000008000000080000000
	mov	eax, 12					; 0000000cH
	imul	ecx, eax, 0
	add	ecx, DWORD PTR _this$[ebp]
	movss	DWORD PTR tv675[ebp], xmm0
	call	??BVector@@QAEPAMXZ			; Vector::operator float *
	mov	ecx, 4
	shl	ecx, 1
	movss	xmm0, DWORD PTR tv675[ebp]
	movss	DWORD PTR [eax+ecx], xmm0

; 70   : 			mat[1][2] = (sr*cp);

	movss	xmm0, DWORD PTR _sr$[ebp]
	mulss	xmm0, DWORD PTR _cp$[ebp]
	mov	ecx, 12					; 0000000cH
	shl	ecx, 0
	add	ecx, DWORD PTR _this$[ebp]
	movss	DWORD PTR tv677[ebp], xmm0
	call	??BVector@@QAEPAMXZ			; Vector::operator float *
	mov	ecx, 4
	shl	ecx, 1
	movss	xmm0, DWORD PTR tv677[ebp]
	movss	DWORD PTR [eax+ecx], xmm0

; 71   : 			mat[2][2] = (cr*cp);

	movss	xmm0, DWORD PTR _cr$[ebp]
	mulss	xmm0, DWORD PTR _cp$[ebp]
	mov	ecx, 12					; 0000000cH
	shl	ecx, 1
	add	ecx, DWORD PTR _this$[ebp]
	movss	DWORD PTR tv679[ebp], xmm0
	call	??BVector@@QAEPAMXZ			; Vector::operator float *
	mov	ecx, 4
	shl	ecx, 1
	movss	xmm0, DWORD PTR tv679[ebp]
	movss	DWORD PTR [eax+ecx], xmm0
	jmp	$LN7@matrix3x3
$LN2@matrix3x3:

; 72   : 		}
; 73   : 		else if( angles[PITCH] )

	mov	ecx, DWORD PTR _angles$[ebp]
	call	??BVector@@QBEPBMXZ			; Vector::operator float const *
	mov	ecx, 4
	imul	edx, ecx, 0
	movss	xmm0, DWORD PTR [eax+edx]
	ucomiss	xmm0, DWORD PTR __real@00000000
	lahf
	test	ah, 68					; 00000044H
	jnp	$LN4@matrix3x3

; 74   : 		{
; 75   : 			angle = angles[YAW] * (M_PI*2 / 360);

	mov	ecx, DWORD PTR _angles$[ebp]
	call	??BVector@@QBEPBMXZ			; Vector::operator float const *
	mov	ecx, 4
	shl	ecx, 0
	cvtss2sd xmm0, DWORD PTR [eax+ecx]
	mulsd	xmm0, QWORD PTR __real@3f91df46a2529d39
	cvtsd2ss xmm0, xmm0
	movss	DWORD PTR _angle$[ebp], xmm0

; 76   : 			SinCos( angle, &sy, &cy );

	lea	eax, DWORD PTR _cy$[ebp]
	push	eax
	lea	ecx, DWORD PTR _sy$[ebp]
	push	ecx
	push	ecx
	movss	xmm0, DWORD PTR _angle$[ebp]
	movss	DWORD PTR [esp], xmm0
	call	?SinCos@@YAXMPAM0@Z			; SinCos
	add	esp, 12					; 0000000cH

; 77   : 			angle = angles[PITCH] * (M_PI*2 / 360);

	mov	ecx, DWORD PTR _angles$[ebp]
	call	??BVector@@QBEPBMXZ			; Vector::operator float const *
	mov	ecx, 4
	imul	edx, ecx, 0
	cvtss2sd xmm0, DWORD PTR [eax+edx]
	mulsd	xmm0, QWORD PTR __real@3f91df46a2529d39
	cvtsd2ss xmm0, xmm0
	movss	DWORD PTR _angle$[ebp], xmm0

; 78   : 			SinCos( angle, &sp, &cp );

	lea	eax, DWORD PTR _cp$[ebp]
	push	eax
	lea	ecx, DWORD PTR _sp$[ebp]
	push	ecx
	push	ecx
	movss	xmm0, DWORD PTR _angle$[ebp]
	movss	DWORD PTR [esp], xmm0
	call	?SinCos@@YAXMPAM0@Z			; SinCos
	add	esp, 12					; 0000000cH

; 79   : 
; 80   : 			mat[0][0] = (cp*cy);

	movss	xmm0, DWORD PTR _cp$[ebp]
	mulss	xmm0, DWORD PTR _cy$[ebp]
	mov	eax, 12					; 0000000cH
	imul	ecx, eax, 0
	add	ecx, DWORD PTR _this$[ebp]
	movss	DWORD PTR tv681[ebp], xmm0
	call	??BVector@@QAEPAMXZ			; Vector::operator float *
	mov	ecx, 4
	imul	edx, ecx, 0
	movss	xmm0, DWORD PTR tv681[ebp]
	movss	DWORD PTR [eax+edx], xmm0

; 81   : 			mat[1][0] = (-sy);

	movss	xmm0, DWORD PTR _sy$[ebp]
	xorps	xmm0, DWORD PTR __xmm@80000000800000008000000080000000
	mov	ecx, 12					; 0000000cH
	shl	ecx, 0
	add	ecx, DWORD PTR _this$[ebp]
	movss	DWORD PTR tv683[ebp], xmm0
	call	??BVector@@QAEPAMXZ			; Vector::operator float *
	mov	ecx, 4
	imul	edx, ecx, 0
	movss	xmm0, DWORD PTR tv683[ebp]
	movss	DWORD PTR [eax+edx], xmm0

; 82   : 			mat[2][0] = (sp*cy);

	movss	xmm0, DWORD PTR _sp$[ebp]
	mulss	xmm0, DWORD PTR _cy$[ebp]
	mov	ecx, 12					; 0000000cH
	shl	ecx, 1
	add	ecx, DWORD PTR _this$[ebp]
	movss	DWORD PTR tv685[ebp], xmm0
	call	??BVector@@QAEPAMXZ			; Vector::operator float *
	mov	ecx, 4
	imul	edx, ecx, 0
	movss	xmm0, DWORD PTR tv685[ebp]
	movss	DWORD PTR [eax+edx], xmm0

; 83   : 			mat[0][1] = (cp*sy);

	movss	xmm0, DWORD PTR _cp$[ebp]
	mulss	xmm0, DWORD PTR _sy$[ebp]
	mov	eax, 12					; 0000000cH
	imul	ecx, eax, 0
	add	ecx, DWORD PTR _this$[ebp]
	movss	DWORD PTR tv687[ebp], xmm0
	call	??BVector@@QAEPAMXZ			; Vector::operator float *
	mov	ecx, 4
	shl	ecx, 0
	movss	xmm0, DWORD PTR tv687[ebp]
	movss	DWORD PTR [eax+ecx], xmm0

; 84   : 			mat[1][1] = (cy);

	mov	ecx, 12					; 0000000cH
	shl	ecx, 0
	add	ecx, DWORD PTR _this$[ebp]
	call	??BVector@@QAEPAMXZ			; Vector::operator float *
	mov	ecx, 4
	shl	ecx, 0
	movss	xmm0, DWORD PTR _cy$[ebp]
	movss	DWORD PTR [eax+ecx], xmm0

; 85   : 			mat[2][1] = (sp*sy);

	movss	xmm0, DWORD PTR _sp$[ebp]
	mulss	xmm0, DWORD PTR _sy$[ebp]
	mov	ecx, 12					; 0000000cH
	shl	ecx, 1
	add	ecx, DWORD PTR _this$[ebp]
	movss	DWORD PTR tv689[ebp], xmm0
	call	??BVector@@QAEPAMXZ			; Vector::operator float *
	mov	ecx, 4
	shl	ecx, 0
	movss	xmm0, DWORD PTR tv689[ebp]
	movss	DWORD PTR [eax+ecx], xmm0

; 86   : 			mat[0][2] = (-sp);

	movss	xmm0, DWORD PTR _sp$[ebp]
	xorps	xmm0, DWORD PTR __xmm@80000000800000008000000080000000
	mov	eax, 12					; 0000000cH
	imul	ecx, eax, 0
	add	ecx, DWORD PTR _this$[ebp]
	movss	DWORD PTR tv691[ebp], xmm0
	call	??BVector@@QAEPAMXZ			; Vector::operator float *
	mov	ecx, 4
	shl	ecx, 1
	movss	xmm0, DWORD PTR tv691[ebp]
	movss	DWORD PTR [eax+ecx], xmm0

; 87   : 			mat[1][2] = 0;

	mov	ecx, 12					; 0000000cH
	shl	ecx, 0
	add	ecx, DWORD PTR _this$[ebp]
	call	??BVector@@QAEPAMXZ			; Vector::operator float *
	mov	ecx, 4
	shl	ecx, 1
	xorps	xmm0, xmm0
	movss	DWORD PTR [eax+ecx], xmm0

; 88   : 			mat[2][2] = (cp);

	mov	ecx, 12					; 0000000cH
	shl	ecx, 1
	add	ecx, DWORD PTR _this$[ebp]
	call	??BVector@@QAEPAMXZ			; Vector::operator float *
	mov	ecx, 4
	shl	ecx, 1
	movss	xmm0, DWORD PTR _cp$[ebp]
	movss	DWORD PTR [eax+ecx], xmm0
	jmp	$LN7@matrix3x3
$LN4@matrix3x3:

; 89   : 		}
; 90   : 		else if( angles[YAW] )

	mov	ecx, DWORD PTR _angles$[ebp]
	call	??BVector@@QBEPBMXZ			; Vector::operator float const *
	mov	ecx, 4
	shl	ecx, 0
	movss	xmm0, DWORD PTR [eax+ecx]
	ucomiss	xmm0, DWORD PTR __real@00000000
	lahf
	test	ah, 68					; 00000044H
	jnp	$LN6@matrix3x3

; 91   : 		{
; 92   : 			angle = angles[YAW] * (M_PI*2 / 360);

	mov	ecx, DWORD PTR _angles$[ebp]
	call	??BVector@@QBEPBMXZ			; Vector::operator float const *
	mov	ecx, 4
	shl	ecx, 0
	cvtss2sd xmm0, DWORD PTR [eax+ecx]
	mulsd	xmm0, QWORD PTR __real@3f91df46a2529d39
	cvtsd2ss xmm0, xmm0
	movss	DWORD PTR _angle$[ebp], xmm0

; 93   : 			SinCos( angle, &sy, &cy );

	lea	eax, DWORD PTR _cy$[ebp]
	push	eax
	lea	ecx, DWORD PTR _sy$[ebp]
	push	ecx
	push	ecx
	movss	xmm0, DWORD PTR _angle$[ebp]
	movss	DWORD PTR [esp], xmm0
	call	?SinCos@@YAXMPAM0@Z			; SinCos
	add	esp, 12					; 0000000cH

; 94   : 
; 95   : 			mat[0][0] = (cy);

	mov	eax, 12					; 0000000cH
	imul	ecx, eax, 0
	add	ecx, DWORD PTR _this$[ebp]
	call	??BVector@@QAEPAMXZ			; Vector::operator float *
	mov	ecx, 4
	imul	edx, ecx, 0
	movss	xmm0, DWORD PTR _cy$[ebp]
	movss	DWORD PTR [eax+edx], xmm0

; 96   : 			mat[1][0] = (-sy);

	movss	xmm0, DWORD PTR _sy$[ebp]
	xorps	xmm0, DWORD PTR __xmm@80000000800000008000000080000000
	mov	ecx, 12					; 0000000cH
	shl	ecx, 0
	add	ecx, DWORD PTR _this$[ebp]
	movss	DWORD PTR tv693[ebp], xmm0
	call	??BVector@@QAEPAMXZ			; Vector::operator float *
	mov	ecx, 4
	imul	edx, ecx, 0
	movss	xmm0, DWORD PTR tv693[ebp]
	movss	DWORD PTR [eax+edx], xmm0

; 97   : 			mat[2][0] = 0;

	mov	ecx, 12					; 0000000cH
	shl	ecx, 1
	add	ecx, DWORD PTR _this$[ebp]
	call	??BVector@@QAEPAMXZ			; Vector::operator float *
	mov	ecx, 4
	imul	edx, ecx, 0
	xorps	xmm0, xmm0
	movss	DWORD PTR [eax+edx], xmm0

; 98   : 			mat[0][1] = (sy);

	mov	eax, 12					; 0000000cH
	imul	ecx, eax, 0
	add	ecx, DWORD PTR _this$[ebp]
	call	??BVector@@QAEPAMXZ			; Vector::operator float *
	mov	ecx, 4
	shl	ecx, 0
	movss	xmm0, DWORD PTR _sy$[ebp]
	movss	DWORD PTR [eax+ecx], xmm0

; 99   : 			mat[1][1] = (cy);

	mov	ecx, 12					; 0000000cH
	shl	ecx, 0
	add	ecx, DWORD PTR _this$[ebp]
	call	??BVector@@QAEPAMXZ			; Vector::operator float *
	mov	ecx, 4
	shl	ecx, 0
	movss	xmm0, DWORD PTR _cy$[ebp]
	movss	DWORD PTR [eax+ecx], xmm0

; 100  : 			mat[2][1] = 0;

	mov	ecx, 12					; 0000000cH
	shl	ecx, 1
	add	ecx, DWORD PTR _this$[ebp]
	call	??BVector@@QAEPAMXZ			; Vector::operator float *
	mov	ecx, 4
	shl	ecx, 0
	xorps	xmm0, xmm0
	movss	DWORD PTR [eax+ecx], xmm0

; 101  : 			mat[0][2] = 0;

	mov	eax, 12					; 0000000cH
	imul	ecx, eax, 0
	add	ecx, DWORD PTR _this$[ebp]
	call	??BVector@@QAEPAMXZ			; Vector::operator float *
	mov	ecx, 4
	shl	ecx, 1
	xorps	xmm0, xmm0
	movss	DWORD PTR [eax+ecx], xmm0

; 102  : 			mat[1][2] = 0;

	mov	ecx, 12					; 0000000cH
	shl	ecx, 0
	add	ecx, DWORD PTR _this$[ebp]
	call	??BVector@@QAEPAMXZ			; Vector::operator float *
	mov	ecx, 4
	shl	ecx, 1
	xorps	xmm0, xmm0
	movss	DWORD PTR [eax+ecx], xmm0

; 103  : 			mat[2][2] = 1;

	mov	ecx, 12					; 0000000cH
	shl	ecx, 1
	add	ecx, DWORD PTR _this$[ebp]
	call	??BVector@@QAEPAMXZ			; Vector::operator float *
	mov	ecx, 4
	shl	ecx, 1
	movss	xmm0, DWORD PTR __real@3f800000
	movss	DWORD PTR [eax+ecx], xmm0

; 104  : 		}
; 105  : 		else

	jmp	$LN7@matrix3x3
$LN6@matrix3x3:

; 106  : 		{
; 107  : 			mat[0][0] = 1;

	mov	eax, 12					; 0000000cH
	imul	ecx, eax, 0
	add	ecx, DWORD PTR _this$[ebp]
	call	??BVector@@QAEPAMXZ			; Vector::operator float *
	mov	ecx, 4
	imul	edx, ecx, 0
	movss	xmm0, DWORD PTR __real@3f800000
	movss	DWORD PTR [eax+edx], xmm0

; 108  : 			mat[1][0] = 0;

	mov	ecx, 12					; 0000000cH
	shl	ecx, 0
	add	ecx, DWORD PTR _this$[ebp]
	call	??BVector@@QAEPAMXZ			; Vector::operator float *
	mov	ecx, 4
	imul	edx, ecx, 0
	xorps	xmm0, xmm0
	movss	DWORD PTR [eax+edx], xmm0

; 109  : 			mat[2][0] = 0;

	mov	ecx, 12					; 0000000cH
	shl	ecx, 1
	add	ecx, DWORD PTR _this$[ebp]
	call	??BVector@@QAEPAMXZ			; Vector::operator float *
	mov	ecx, 4
	imul	edx, ecx, 0
	xorps	xmm0, xmm0
	movss	DWORD PTR [eax+edx], xmm0

; 110  : 			mat[0][1] = 0;

	mov	eax, 12					; 0000000cH
	imul	ecx, eax, 0
	add	ecx, DWORD PTR _this$[ebp]
	call	??BVector@@QAEPAMXZ			; Vector::operator float *
	mov	ecx, 4
	shl	ecx, 0
	xorps	xmm0, xmm0
	movss	DWORD PTR [eax+ecx], xmm0

; 111  : 			mat[1][1] = 1;

	mov	ecx, 12					; 0000000cH
	shl	ecx, 0
	add	ecx, DWORD PTR _this$[ebp]
	call	??BVector@@QAEPAMXZ			; Vector::operator float *
	mov	ecx, 4
	shl	ecx, 0
	movss	xmm0, DWORD PTR __real@3f800000
	movss	DWORD PTR [eax+ecx], xmm0

; 112  : 			mat[2][1] = 0;

	mov	ecx, 12					; 0000000cH
	shl	ecx, 1
	add	ecx, DWORD PTR _this$[ebp]
	call	??BVector@@QAEPAMXZ			; Vector::operator float *
	mov	ecx, 4
	shl	ecx, 0
	xorps	xmm0, xmm0
	movss	DWORD PTR [eax+ecx], xmm0

; 113  : 			mat[0][2] = 0;

	mov	eax, 12					; 0000000cH
	imul	ecx, eax, 0
	add	ecx, DWORD PTR _this$[ebp]
	call	??BVector@@QAEPAMXZ			; Vector::operator float *
	mov	ecx, 4
	shl	ecx, 1
	xorps	xmm0, xmm0
	movss	DWORD PTR [eax+ecx], xmm0

; 114  : 			mat[1][2] = 0;

	mov	ecx, 12					; 0000000cH
	shl	ecx, 0
	add	ecx, DWORD PTR _this$[ebp]
	call	??BVector@@QAEPAMXZ			; Vector::operator float *
	mov	ecx, 4
	shl	ecx, 1
	xorps	xmm0, xmm0
	movss	DWORD PTR [eax+ecx], xmm0

; 115  : 			mat[2][2] = 1;

	mov	ecx, 12					; 0000000cH
	shl	ecx, 1
	add	ecx, DWORD PTR _this$[ebp]
	call	??BVector@@QAEPAMXZ			; Vector::operator float *
	mov	ecx, 4
	shl	ecx, 1
	movss	xmm0, DWORD PTR __real@3f800000
	movss	DWORD PTR [eax+ecx], xmm0
$LN7@matrix3x3:

; 116  : 		}
; 117  : 	}

	mov	eax, DWORD PTR _this$[ebp]
	pop	edi
	pop	esi
	pop	ebx
	mov	esp, ebp
	pop	ebp
	ret	4
??0matrix3x3@@QAE@ABVVector@@@Z ENDP			; matrix3x3::matrix3x3
_TEXT	ENDS
; Function compile flags: /Odtp /ZI
; File d:\!diffusion 2020\source code 2022\client-server\game_shared\vector.h
;	COMDAT ?DotProduct@@YAMABVVector@@0@Z
_TEXT	SEGMENT
tv86 = -68						; size = 4
_a$ = 8							; size = 4
_b$ = 12						; size = 4
?DotProduct@@YAMABVVector@@0@Z PROC			; DotProduct, COMDAT

; 308  : inline float DotProduct(const Vector& a, const Vector& b ) { return( a.x * b.x + a.y * b.y + a.z * b.z ); }

	push	ebp
	mov	ebp, esp
	sub	esp, 68					; 00000044H
	push	ebx
	push	esi
	push	edi
	mov	eax, DWORD PTR _a$[ebp]
	mov	ecx, DWORD PTR _b$[ebp]
	movss	xmm0, DWORD PTR [eax]
	mulss	xmm0, DWORD PTR [ecx]
	mov	edx, DWORD PTR _a$[ebp]
	mov	eax, DWORD PTR _b$[ebp]
	movss	xmm1, DWORD PTR [edx+4]
	mulss	xmm1, DWORD PTR [eax+4]
	addss	xmm0, xmm1
	mov	ecx, DWORD PTR _a$[ebp]
	mov	edx, DWORD PTR _b$[ebp]
	movss	xmm1, DWORD PTR [ecx+8]
	mulss	xmm1, DWORD PTR [edx+8]
	addss	xmm0, xmm1
	movss	DWORD PTR tv86[ebp], xmm0
	fld	DWORD PTR tv86[ebp]
	pop	edi
	pop	esi
	pop	ebx
	mov	esp, ebp
	pop	ebp
	ret	0
?DotProduct@@YAMABVVector@@0@Z ENDP			; DotProduct
_TEXT	ENDS
; Function compile flags: /Odtp /ZI
; File d:\!diffusion 2020\source code 2022\client-server\game_shared\vector.h
;	COMDAT ??BVector@@QBEPBMXZ
_TEXT	SEGMENT
_this$ = -4						; size = 4
??BVector@@QBEPBMXZ PROC				; Vector::operator float const *, COMDAT
; _this$ = ecx

; 248  : 	operator const float *() const		{ return &x; } 

	push	ebp
	mov	ebp, esp
	sub	esp, 68					; 00000044H
	push	ebx
	push	esi
	push	edi
	mov	DWORD PTR _this$[ebp], ecx
	mov	eax, DWORD PTR _this$[ebp]
	pop	edi
	pop	esi
	pop	ebx
	mov	esp, ebp
	pop	ebp
	ret	0
??BVector@@QBEPBMXZ ENDP				; Vector::operator float const *
_TEXT	ENDS
; Function compile flags: /Odtp /ZI
; File d:\!diffusion 2020\source code 2022\client-server\game_shared\vector.h
;	COMDAT ??BVector@@QAEPAMXZ
_TEXT	SEGMENT
_this$ = -4						; size = 4
??BVector@@QAEPAMXZ PROC				; Vector::operator float *, COMDAT
; _this$ = ecx

; 247  : 	operator float *()				{ return &x; } // Vectors will now automatically convert to float * when needed

	push	ebp
	mov	ebp, esp
	sub	esp, 68					; 00000044H
	push	ebx
	push	esi
	push	edi
	mov	DWORD PTR _this$[ebp], ecx
	mov	eax, DWORD PTR _this$[ebp]
	pop	edi
	pop	esi
	pop	ebx
	mov	esp, ebp
	pop	ebp
	ret	0
??BVector@@QAEPAMXZ ENDP				; Vector::operator float *
_TEXT	ENDS
; Function compile flags: /Odtp /ZI
; File d:\!diffusion 2020\source code 2022\client-server\game_shared\vector.h
;	COMDAT ?Length@Vector@@QBEMXZ
_TEXT	SEGMENT
tv91 = -72						; size = 4
_this$ = -4						; size = 4
?Length@Vector@@QBEMXZ PROC				; Vector::Length, COMDAT
; _this$ = ecx

; 245  : 	inline float Length(void) const		{ return sqrt( x*x + y*y + z*z ); }

	push	ebp
	mov	ebp, esp
	sub	esp, 72					; 00000048H
	push	ebx
	push	esi
	push	edi
	mov	DWORD PTR _this$[ebp], ecx
	mov	eax, DWORD PTR _this$[ebp]
	mov	ecx, DWORD PTR _this$[ebp]
	movss	xmm0, DWORD PTR [eax]
	mulss	xmm0, DWORD PTR [ecx]
	mov	edx, DWORD PTR _this$[ebp]
	mov	eax, DWORD PTR _this$[ebp]
	movss	xmm1, DWORD PTR [edx+4]
	mulss	xmm1, DWORD PTR [eax+4]
	addss	xmm0, xmm1
	mov	ecx, DWORD PTR _this$[ebp]
	mov	edx, DWORD PTR _this$[ebp]
	movss	xmm1, DWORD PTR [ecx+8]
	mulss	xmm1, DWORD PTR [edx+8]
	addss	xmm0, xmm1
	cvtss2sd xmm0, xmm0
	sub	esp, 8
	movsd	QWORD PTR [esp], xmm0
	call	_sqrt
	add	esp, 8
	fstp	DWORD PTR tv91[ebp]
	fld	DWORD PTR tv91[ebp]
	pop	edi
	pop	esi
	pop	ebx
	mov	esp, ebp
	pop	ebp
	ret	0
?Length@Vector@@QBEMXZ ENDP				; Vector::Length
_TEXT	ENDS
; Function compile flags: /Odtp /ZI
; File d:\!diffusion 2020\source code 2022\client-server\game_shared\vector.h
;	COMDAT ??XVector@@QAEAAV0@M@Z
_TEXT	SEGMENT
_this$ = -4						; size = 4
_s$ = 8							; size = 4
??XVector@@QAEAAV0@M@Z PROC				; Vector::operator*=, COMDAT
; _this$ = ecx

; 183  : 	{

	push	ebp
	mov	ebp, esp
	sub	esp, 68					; 00000044H
	push	ebx
	push	esi
	push	edi
	mov	DWORD PTR _this$[ebp], ecx

; 184  : 		x *= s; y *= s; z *= s;

	mov	eax, DWORD PTR _this$[ebp]
	movss	xmm0, DWORD PTR [eax]
	mulss	xmm0, DWORD PTR _s$[ebp]
	mov	ecx, DWORD PTR _this$[ebp]
	movss	DWORD PTR [ecx], xmm0
	mov	eax, DWORD PTR _this$[ebp]
	movss	xmm0, DWORD PTR [eax+4]
	mulss	xmm0, DWORD PTR _s$[ebp]
	mov	ecx, DWORD PTR _this$[ebp]
	movss	DWORD PTR [ecx+4], xmm0
	mov	eax, DWORD PTR _this$[ebp]
	movss	xmm0, DWORD PTR [eax+8]
	mulss	xmm0, DWORD PTR _s$[ebp]
	mov	ecx, DWORD PTR _this$[ebp]
	movss	DWORD PTR [ecx+8], xmm0

; 185  : 		return *this;

	mov	eax, DWORD PTR _this$[ebp]

; 186  : 	}

	pop	edi
	pop	esi
	pop	ebx
	mov	esp, ebp
	pop	ebp
	ret	4
??XVector@@QAEAAV0@M@Z ENDP				; Vector::operator*=
_TEXT	ENDS
; Function compile flags: /Odtp /ZI
; File d:\!diffusion 2020\source code 2022\client-server\game_shared\vector.h
;	COMDAT ??YVector@@QAEAAV0@ABV0@@Z
_TEXT	SEGMENT
_this$ = -4						; size = 4
_v$ = 8							; size = 4
??YVector@@QAEAAV0@ABV0@@Z PROC				; Vector::operator+=, COMDAT
; _this$ = ecx

; 168  : 	{

	push	ebp
	mov	ebp, esp
	sub	esp, 68					; 00000044H
	push	ebx
	push	esi
	push	edi
	mov	DWORD PTR _this$[ebp], ecx

; 169  : 		x+=v.x; y+=v.y; z += v.z;	

	mov	eax, DWORD PTR _this$[ebp]
	mov	ecx, DWORD PTR _v$[ebp]
	movss	xmm0, DWORD PTR [eax]
	addss	xmm0, DWORD PTR [ecx]
	mov	edx, DWORD PTR _this$[ebp]
	movss	DWORD PTR [edx], xmm0
	mov	eax, DWORD PTR _this$[ebp]
	mov	ecx, DWORD PTR _v$[ebp]
	movss	xmm0, DWORD PTR [eax+4]
	addss	xmm0, DWORD PTR [ecx+4]
	mov	edx, DWORD PTR _this$[ebp]
	movss	DWORD PTR [edx+4], xmm0
	mov	eax, DWORD PTR _this$[ebp]
	mov	ecx, DWORD PTR _v$[ebp]
	movss	xmm0, DWORD PTR [eax+8]
	addss	xmm0, DWORD PTR [ecx+8]
	mov	edx, DWORD PTR _this$[ebp]
	movss	DWORD PTR [edx+8], xmm0

; 170  : 		return *this;

	mov	eax, DWORD PTR _this$[ebp]

; 171  : 	}			

	pop	edi
	pop	esi
	pop	ebx
	mov	esp, ebp
	pop	ebp
	ret	4
??YVector@@QAEAAV0@ABV0@@Z ENDP				; Vector::operator+=
_TEXT	ENDS
; Function compile flags: /Odtp /ZI
; File d:\!diffusion 2020\source code 2022\client-server\game_shared\vector.h
;	COMDAT ??DVector@@QBE?AV0@M@Z
_TEXT	SEGMENT
_this$ = -4						; size = 4
___$ReturnUdt$ = 8					; size = 4
_fl$ = 12						; size = 4
??DVector@@QBE?AV0@M@Z PROC				; Vector::operator*, COMDAT
; _this$ = ecx

; 162  : 	inline Vector operator*(float fl) const		{ return Vector(x*fl, y*fl, z*fl);	   }

	push	ebp
	mov	ebp, esp
	sub	esp, 68					; 00000044H
