; Listing generated by Microsoft (R) Optimizing Compiler Version 19.00.24247.2 

	TITLE	D:\!DIFFUSION 2020\source code 2022\client-server\client\render\r_postprocess.cpp
	.686P
	.XMM
	include listing.inc
	.model	flat

INCLUDELIB LIBCMT
INCLUDELIB OLDNAMES

PUBLIC	?ScreenWaterTexture@@3HA			; ScreenWaterTexture
PUBLIC	?ScreenAO@@3HA					; ScreenAO
PUBLIC	?RotateMap@@3HA					; RotateMap
PUBLIC	?LuminanceTex@@3HA				; LuminanceTex
PUBLIC	?exposure_storage_texture@@3PAHA		; exposure_storage_texture
PUBLIC	?exposure_storage_fbo@@3PAIA			; exposure_storage_fbo
PUBLIC	?ApplyGaussBlur@@3_NA				; ApplyGaussBlur
PUBLIC	?ApplyDamageMonochrome@@3_NA			; ApplyDamageMonochrome
_BSS	SEGMENT
?ScreenWaterTexture@@3HA DD 01H DUP (?)			; ScreenWaterTexture
?ScreenAO@@3HA DD 01H DUP (?)				; ScreenAO
?RotateMap@@3HA DD 01H DUP (?)				; RotateMap
?LuminanceTex@@3HA DD 01H DUP (?)			; LuminanceTex
?exposure_storage_texture@@3PAHA DD 02H DUP (?)		; exposure_storage_texture
?exposure_storage_fbo@@3PAIA DD 02H DUP (?)		; exposure_storage_fbo
?ApplyGaussBlur@@3_NA DB 01H DUP (?)			; ApplyGaussBlur
	ALIGN	4

?ApplyDamageMonochrome@@3_NA DB 01H DUP (?)		; ApplyDamageMonochrome
	ALIGN	4

?Accum@?1??HorizontalBlur@@YAXXZ@4MA DD 01H DUP (?)	; `HorizontalBlur'::`2'::Accum
?DmgMonochrome@?1??Monochrome@@YAXXZ@4MA DD 01H DUP (?)	; `Monochrome'::`2'::DmgMonochrome
?DmgMonochromeTime@?1??Monochrome@@YAXXZ@4MA DD 01H DUP (?) ; `Monochrome'::`2'::DmgMonochromeTime
?Index@?1??RenderExposureStorage@@YAHXZ@4HA DD 01H DUP (?) ; `RenderExposureStorage'::`2'::Index
_BSS	ENDS
PUBLIC	??_H@YGXPAXIIP6EPAX0@Z@Z			; `vector constructor iterator'
PUBLIC	??__G@YGXPAX0IIP6EPAX00@Z@Z			; `vector copy constructor iterator'
PUBLIC	?SinCos@@YAXMPAM0@Z				; SinCos
PUBLIC	??0Vector@@QAE@XZ				; Vector::Vector
PUBLIC	??0Vector@@QAE@MMM@Z				; Vector::Vector
PUBLIC	??0Vector@@QAE@ABV0@@Z				; Vector::Vector
PUBLIC	??GVector@@QBE?AV0@XZ				; Vector::operator-
PUBLIC	??8Vector@@QBEHABV0@@Z				; Vector::operator==
PUBLIC	??HVector@@QBE?AV0@ABV0@@Z			; Vector::operator+
PUBLIC	??GVector@@QBE?AV0@ABV0@@Z			; Vector::operator-
PUBLIC	??DVector@@QBE?AV0@M@Z				; Vector::operator*
PUBLIC	?Length@Vector@@QBEMXZ				; Vector::Length
PUBLIC	??BVector@@QAEPAMXZ				; Vector::operator float *
PUBLIC	??BVector@@QBEPBMXZ				; Vector::operator float const *
PUBLIC	?Normalize@Vector@@QBE?AV1@XZ			; Vector::Normalize
PUBLIC	?DotProduct@@YAMABVVector@@0@Z			; DotProduct
PUBLIC	??Amatrix3x4@@QAEPAMH@Z				; matrix3x4::operator[]
PUBLIC	?HasWeapon@CHud@@QAEHH@Z			; CHud::HasWeapon
PUBLIC	??0pmplane_t@@QAE@XZ				; pmplane_t::pmplane_t
PUBLIC	??0pmtrace_s@@QAE@XZ				; pmtrace_s::pmtrace_s
PUBLIC	?InitPostTextures@@YAXXZ			; InitPostTextures
PUBLIC	?InitPostEffects@@YAXXZ				; InitPostEffects
PUBLIC	?RenderSunShafts@@YAXXZ				; RenderSunShafts
PUBLIC	?GaussBlur@@YAXXZ				; GaussBlur
PUBLIC	?RenderGaussBlur@@YAXMM@Z			; RenderGaussBlur
PUBLIC	?MotionBlur@@YAXXZ				; MotionBlur
PUBLIC	?HorizontalBlur@@YAXXZ				; HorizontalBlur
PUBLIC	?ScreenWater@@YAXXZ				; ScreenWater
PUBLIC	?Glitch@@YAXXZ					; Glitch
PUBLIC	?Monochrome@@YAXXZ				; Monochrome
PUBLIC	?SSAO@@YAXXZ					; SSAO
PUBLIC	?ToneMap@@YAXXZ					; ToneMap
PUBLIC	?Bloom@@YAXXZ					; Bloom
PUBLIC	?Enhance@@YAXXZ					; Enhance
PUBLIC	?WaterDrops@@YAXXZ				; WaterDrops
PUBLIC	?AngleMatrix@@YAXABVVector@@AAVmatrix3x4@@@Z	; AngleMatrix
PUBLIC	?InitAutoExposure@@YAXXZ			; InitAutoExposure
PUBLIC	?InitSSAO@@YAXXZ				; InitSSAO
PUBLIC	?RenderFSQ@@YAXHH@Z				; RenderFSQ
PUBLIC	?RenderExposureStorage@@YAHXZ			; RenderExposureStorage
PUBLIC	??_C@_0BH@FKJMGFIJ@?$CKavg_luminance_texture?$AA@ ; `string'
PUBLIC	??_C@_0BE@EEJIOOP@?$CKexposure_storage?$CFd?$AA@ ; `string'
PUBLIC	??_C@_09NBNFKNEB@?$CKscreenao?$AA@		; `string'
PUBLIC	??_C@_0N@BDNGALHE@?$CKscreendepth?$AA@		; `string'
PUBLIC	??_C@_0N@POPCHNAA@?$CKscreencolor?$AA@		; `string'
PUBLIC	??_C@_08OGEMMNIO@?$CKtarget0?$AA@		; `string'
PUBLIC	??_C@_0CA@KJELPDKP@sprites?1effects?1screenwater?4dds?$AA@ ; `string'
PUBLIC	??_C@_0BL@LPMICGLM@sprites?1effects?1rotate?4tga?$AA@ ; `string'
PUBLIC	??_C@_0BP@JBBAKCHD@?$CKscreen_temp_fbo_texture_color?$AA@ ; `string'
PUBLIC	?__LINE__Var@?0??RenderSunShafts@@YAXXZ@4JA	; `RenderSunShafts'::`1'::__LINE__Var
PUBLIC	??_C@_0FC@EOCCPBDF@d?3?2?$CBdiffusion?52020?2source?5code?52@ ; `string'
PUBLIC	??_C@_0BI@FECCGOFJ@assert?5failed?5at?5?$CFs?3?$CFi?6?$AA@ ; `string'
PUBLIC	?__LINE__Var@?0??MotionBlur@@YAXXZ@4JA		; `MotionBlur'::`1'::__LINE__Var
PUBLIC	??_C@_0BB@CAFICHGA@r_blur_threshold?$AA@	; `string'
PUBLIC	??_C@_0O@NGAMONDD@cl_background?$AA@		; `string'
PUBLIC	??_C@_03BNEOMJOP@sky?$AA@			; `string'
PUBLIC	?__LINE__Var@?0??RenderGaussBlur@@YAXMM@Z@4JA	; `RenderGaussBlur'::`1'::__LINE__Var
PUBLIC	?__LINE__Var@?0??HorizontalBlur@@YAXXZ@4JA	; `HorizontalBlur'::`1'::__LINE__Var
PUBLIC	??_C@_0BA@IGAEPFGJ@r_blur_strength?$AA@		; `string'
PUBLIC	?__LINE__Var@?0??ScreenWater@@YAXXZ@4JA		; `ScreenWater'::`1'::__LINE__Var
PUBLIC	?__LINE__Var@?0??Glitch@@YAXXZ@4JA		; `Glitch'::`1'::__LINE__Var
PUBLIC	?__LINE__Var@?0??Monochrome@@YAXXZ@4JA		; `Monochrome'::`1'::__LINE__Var
PUBLIC	?__LINE__Var@?0??SSAO@@YAXXZ@4JA		; `SSAO'::`1'::__LINE__Var
PUBLIC	?__LINE__Var@?0??Bloom@@YAXXZ@4JA		; `Bloom'::`1'::__LINE__Var
PUBLIC	?__LINE__Var@?0??RenderExposureStorage@@YAHXZ@4JA ; `RenderExposureStorage'::`1'::__LINE__Var
PUBLIC	?__LINE__Var@?0??ToneMap@@YAXXZ@4JA		; `ToneMap'::`1'::__LINE__Var
PUBLIC	?__LINE__Var@?0??Enhance@@YAXXZ@4JA		; `Enhance'::`1'::__LINE__Var
PUBLIC	?__LINE__Var@?0??WaterDrops@@YAXXZ@4JA		; `WaterDrops'::`1'::__LINE__Var
PUBLIC	__real@00000000
PUBLIC	__real@3c000000
PUBLIC	__real@3c23d70a
PUBLIC	__real@3c8efa35
PUBLIC	__real@3d088889
PUBLIC	__real@3d99999a
PUBLIC	__real@3dcccccd
PUBLIC	__real@3f1a36e2eb1c432d
PUBLIC	__real@3f400000
PUBLIC	__real@3f4ccccd
PUBLIC	__real@3f747ae147ae147b
PUBLIC	__real@3f800000
PUBLIC	__real@3f847ae147ae147b
PUBLIC	__real@3f947ae147ae147b
PUBLIC	__real@3fa47ae147ae147b
PUBLIC	__real@3fb999999999999a
PUBLIC	__real@3fc999999999999a
PUBLIC	__real@3fd0000000000000
PUBLIC	__real@3fe0000000000000
PUBLIC	__real@3fe8000000000000
PUBLIC	__real@3ff0000000000000
PUBLIC	__real@3ff8000000000000
PUBLIC	__real@4008000000000000
PUBLIC	__real@40400000
PUBLIC	__real@40800000
PUBLIC	__real@41200000
PUBLIC	__real@41a00000
PUBLIC	__real@41f00000
PUBLIC	__real@42340000
PUBLIC	__real@43340000
PUBLIC	__real@43800000
PUBLIC	__real@43b40000
PUBLIC	__real@447a0000
PUBLIC	__real@47435000
PUBLIC	__real@c2340000
PUBLIC	__real@c3340000
PUBLIC	__xmm@80000000800000008000000080000000
EXTRN	_cos:PROC
EXTRN	_fabs:PROC
EXTRN	_sin:PROC
EXTRN	_sqrt:PROC
EXTRN	_floor:PROC
EXTRN	_log2:PROC
EXTRN	??0matrix3x4@@QAE@XZ:PROC			; matrix3x4::matrix3x4
EXTRN	?ColorNormalize@@YAMABVVector@@AAV1@@Z:PROC	; ColorNormalize
EXTRN	?Q_strnicmp@@YAHPBD0H@Z:PROC			; Q_strnicmp
EXTRN	?va@@YAPADPBDZZ:PROC				; va
EXTRN	?CL_UTIL_Approach@@YAMMMM@Z:PROC		; CL_UTIL_Approach
EXTRN	?R_TransformWorldToDevice@@YAXABVVector@@AAV1@@Z:PROC ; R_TransformWorldToDevice
EXTRN	?R_TransformDeviceToScreen@@YAXABVVector@@AAV1@@Z:PROC ; R_TransformDeviceToScreen
EXTRN	?GL_Blend@@YAXH@Z:PROC				; GL_Blend
EXTRN	?GL_BindShader@@YAXPAUglsl_prog_s@@@Z:PROC	; GL_BindShader
EXTRN	@__security_check_cookie@4:PROC
EXTRN	__ftol2_sse:PROC
EXTRN	?g_vecZero@@3VVector@@B:BYTE			; g_vecZero
EXTRN	?gEngfuncs@@3Ucl_enginefuncs_s@@A:BYTE		; gEngfuncs
EXTRN	?gRenderfuncs@@3Urender_api_s@@A:BYTE		; gRenderfuncs
EXTRN	?gHUD@@3VCHud@@A:BYTE				; gHUD
EXTRN	?g_iUser1@@3HA:DWORD				; g_iUser1
EXTRN	?g_fFrametime@@3MA:DWORD			; g_fFrametime
EXTRN	?pglBegin@@3P6GXI@ZA:DWORD			; pglBegin
EXTRN	?pglBlendFunc@@3P6GXII@ZA:DWORD			; pglBlendFunc
EXTRN	?pglCopyTexSubImage2D@@3P6GXIHHHHHHH@ZA:DWORD	; pglCopyTexSubImage2D
EXTRN	?pglEnd@@3P6GXXZA:DWORD				; pglEnd
EXTRN	?pglTexCoord2f@@3P6GXMM@ZA:DWORD		; pglTexCoord2f
EXTRN	?pglTexParameterf@@3P6GXIIM@ZA:DWORD		; pglTexParameterf
EXTRN	?pglTexParameteri@@3P6GXIIH@ZA:DWORD		; pglTexParameteri
EXTRN	?pglTexSubImage2D@@3P6GXIHHHHHIIPBX@ZA:DWORD	; pglTexSubImage2D
EXTRN	?pglVertex2f@@3P6GXMM@ZA:DWORD			; pglVertex2f
EXTRN	?pglViewport@@3P6GXHHHH@ZA:DWORD		; pglViewport
EXTRN	?pglUniform1fARB@@3P6GXHM@ZA:DWORD		; pglUniform1fARB
EXTRN	?pglUniform2fARB@@3P6GXHMM@ZA:DWORD		; pglUniform2fARB
EXTRN	?pglUniform3fARB@@3P6GXHMMM@ZA:DWORD		; pglUniform3fARB
EXTRN	?pglUniform4fARB@@3P6GXHMMMM@ZA:DWORD		; pglUniform4fARB
EXTRN	?pglBindFramebuffer@@3P6GXII@ZA:DWORD		; pglBindFramebuffer
EXTRN	?pglGenFramebuffers@@3P6GXHPAI@ZA:DWORD		; pglGenFramebuffers
EXTRN	?pglFramebufferTexture2D@@3P6GXIIIIH@ZA:DWORD	; pglFramebufferTexture2D
EXTRN	?pglGenerateMipmap@@3P6GXI@ZA:DWORD		; pglGenerateMipmap
EXTRN	?r_lighting_modulate@@3PAUcvar_s@@A:DWORD	; r_lighting_modulate
EXTRN	?r_bloom@@3PAUcvar_s@@A:DWORD			; r_bloom
EXTRN	?r_blur@@3PAUcvar_s@@A:DWORD			; r_blur
EXTRN	?gl_sunshafts@@3PAUcvar_s@@A:DWORD		; gl_sunshafts
EXTRN	?gl_sunshafts_blur@@3PAUcvar_s@@A:DWORD		; gl_sunshafts_blur
EXTRN	?gl_sunshafts_brightness@@3PAUcvar_s@@A:DWORD	; gl_sunshafts_brightness
EXTRN	?gl_ssao@@3PAUcvar_s@@A:DWORD			; gl_ssao
EXTRN	?gl_ssao_debug@@3PAUcvar_s@@A:DWORD		; gl_ssao_debug
EXTRN	?gl_exposure@@3PAUcvar_s@@A:DWORD		; gl_exposure
EXTRN	?ui_is_active@@3PAUcvar_s@@A:DWORD		; ui_is_active
EXTRN	?PrevViewAngles@@3VVector@@A:BYTE		; PrevViewAngles
EXTRN	?PrevViewOrg@@3VVector@@A:BYTE			; PrevViewOrg
EXTRN	?RI@@3PAUref_instance_t@@A:DWORD		; RI
EXTRN	?tr@@3Uref_globals_t@@A:BYTE			; tr
EXTRN	?r_stats@@3Uref_stats_t@@A:BYTE			; r_stats
EXTRN	?glState@@3UglState_t@@A:BYTE			; glState
EXTRN	?glConfig@@3UglConfig_t@@A:BYTE			; glConfig
EXTRN	?glsl@@3Uref_shaders_t@@A:BYTE			; glsl
EXTRN	___security_cookie:DWORD
EXTRN	__fltused:DWORD
_BSS	SEGMENT
?skyblur@?1??GaussBlur@@YAXXZ@4MA DD 01H DUP (?)	; `GaussBlur'::`2'::skyblur
?screenblur@?1??GaussBlur@@YAXXZ@4MA DD 01H DUP (?)	; `GaussBlur'::`2'::screenblur
?pausedblur@?1??GaussBlur@@YAXXZ@4MA DD 01H DUP (?)	; `GaussBlur'::`2'::pausedblur
?waterblur@?1??GaussBlur@@YAXXZ@4MA DD 01H DUP (?)	; `GaussBlur'::`2'::waterblur
_BSS	ENDS
;	COMDAT __xmm@80000000800000008000000080000000
CONST	SEGMENT
__xmm@80000000800000008000000080000000 DB 00H, 00H, 00H, 080H, 00H, 00H, 00H
	DB	080H, 00H, 00H, 00H, 080H, 00H, 00H, 00H, 080H
CONST	ENDS
;	COMDAT __real@c3340000
CONST	SEGMENT
__real@c3340000 DD 0c3340000r			; -180
CONST	ENDS
;	COMDAT __real@c2340000
CONST	SEGMENT
__real@c2340000 DD 0c2340000r			; -45
CONST	ENDS
;	COMDAT __real@47435000
CONST	SEGMENT
__real@47435000 DD 047435000r			; 50000
CONST	ENDS
;	COMDAT __real@447a0000
CONST	SEGMENT
__real@447a0000 DD 0447a0000r			; 1000
CONST	ENDS
;	COMDAT __real@43b40000
CONST	SEGMENT
__real@43b40000 DD 043b40000r			; 360
CONST	ENDS
;	COMDAT __real@43800000
CONST	SEGMENT
__real@43800000 DD 043800000r			; 256
CONST	ENDS
;	COMDAT __real@43340000
CONST	SEGMENT
__real@43340000 DD 043340000r			; 180
CONST	ENDS
;	COMDAT __real@42340000
CONST	SEGMENT
__real@42340000 DD 042340000r			; 45
CONST	ENDS
;	COMDAT __real@41f00000
CONST	SEGMENT
__real@41f00000 DD 041f00000r			; 30
CONST	ENDS
;	COMDAT __real@41a00000
CONST	SEGMENT
__real@41a00000 DD 041a00000r			; 20
CONST	ENDS
;	COMDAT __real@41200000
CONST	SEGMENT
__real@41200000 DD 041200000r			; 10
CONST	ENDS
;	COMDAT __real@40800000
CONST	SEGMENT
__real@40800000 DD 040800000r			; 4
CONST	ENDS
;	COMDAT __real@40400000
CONST	SEGMENT
__real@40400000 DD 040400000r			; 3
CONST	ENDS
;	COMDAT __real@4008000000000000
CONST	SEGMENT
__real@4008000000000000 DQ 04008000000000000r	; 3
CONST	ENDS
;	COMDAT __real@3ff8000000000000
CONST	SEGMENT
__real@3ff8000000000000 DQ 03ff8000000000000r	; 1.5
CONST	ENDS
;	COMDAT __real@3ff0000000000000
CONST	SEGMENT
__real@3ff0000000000000 DQ 03ff0000000000000r	; 1
CONST	ENDS
;	COMDAT __real@3fe8000000000000
CONST	SEGMENT
__real@3fe8000000000000 DQ 03fe8000000000000r	; 0.75
CONST	ENDS
;	COMDAT __real@3fe0000000000000
CONST	SEGMENT
__real@3fe0000000000000 DQ 03fe0000000000000r	; 0.5
CONST	ENDS
;	COMDAT __real@3fd0000000000000
CONST	SEGMENT
__real@3fd0000000000000 DQ 03fd0000000000000r	; 0.25
CONST	ENDS
;	COMDAT __real@3fc999999999999a
CONST	SEGMENT
__real@3fc999999999999a DQ 03fc999999999999ar	; 0.2
CONST	ENDS
;	COMDAT __real@3fb999999999999a
CONST	SEGMENT
__real@3fb999999999999a DQ 03fb999999999999ar	; 0.1
CONST	ENDS
;	COMDAT __real@3fa47ae147ae147b
CONST	SEGMENT
__real@3fa47ae147ae147b DQ 03fa47ae147ae147br	; 0.04
CONST	ENDS
;	COMDAT __real@3f947ae147ae147b
CONST	SEGMENT
__real@3f947ae147ae147b DQ 03f947ae147ae147br	; 0.02
CONST	ENDS
;	COMDAT __real@3f847ae147ae147b
CONST	SEGMENT
__real@3f847ae147ae147b DQ 03f847ae147ae147br	; 0.01
CONST	ENDS
;	COMDAT __real@3f800000
CONST	SEGMENT
__real@3f800000 DD 03f800000r			; 1
CONST	ENDS
;	COMDAT __real@3f747ae147ae147b
CONST	SEGMENT
__real@3f747ae147ae147b DQ 03f747ae147ae147br	; 0.005
CONST	ENDS
;	COMDAT __real@3f4ccccd
CONST	SEGMENT
__real@3f4ccccd DD 03f4ccccdr			; 0.8
CONST	ENDS
;	COMDAT __real@3f400000
CONST	SEGMENT
__real@3f400000 DD 03f400000r			; 0.75
CONST	ENDS
;	COMDAT __real@3f1a36e2eb1c432d
CONST	SEGMENT
__real@3f1a36e2eb1c432d DQ 03f1a36e2eb1c432dr	; 0.0001
CONST	ENDS
;	COMDAT __real@3dcccccd
CONST	SEGMENT
__real@3dcccccd DD 03dcccccdr			; 0.1
CONST	ENDS
;	COMDAT __real@3d99999a
CONST	SEGMENT
__real@3d99999a DD 03d99999ar			; 0.075
CONST	ENDS
;	COMDAT __real@3d088889
CONST	SEGMENT
__real@3d088889 DD 03d088889r			; 0.0333333
CONST	ENDS
;	COMDAT __real@3c8efa35
CONST	SEGMENT
__real@3c8efa35 DD 03c8efa35r			; 0.0174533
CONST	ENDS
;	COMDAT __real@3c23d70a
CONST	SEGMENT
__real@3c23d70a DD 03c23d70ar			; 0.01
CONST	ENDS
;	COMDAT __real@3c000000
CONST	SEGMENT
__real@3c000000 DD 03c000000r			; 0.0078125
CONST	ENDS
;	COMDAT __real@00000000
CONST	SEGMENT
__real@00000000 DD 000000000r			; 0
CONST	ENDS
;	COMDAT ?__LINE__Var@?0??WaterDrops@@YAXXZ@4JA
_DATA	SEGMENT
?__LINE__Var@?0??WaterDrops@@YAXXZ@4JA DD 0448H		; `WaterDrops'::`1'::__LINE__Var
_DATA	ENDS
;	COMDAT ?__LINE__Var@?0??Enhance@@YAXXZ@4JA
_DATA	SEGMENT
?__LINE__Var@?0??Enhance@@YAXXZ@4JA DD 042cH		; `Enhance'::`1'::__LINE__Var
_DATA	ENDS
;	COMDAT ?__LINE__Var@?0??ToneMap@@YAXXZ@4JA
_DATA	SEGMENT
?__LINE__Var@?0??ToneMap@@YAXXZ@4JA DD 03e4H		; `ToneMap'::`1'::__LINE__Var
_DATA	ENDS
;	COMDAT ?__LINE__Var@?0??RenderExposureStorage@@YAHXZ@4JA
_DATA	SEGMENT
?__LINE__Var@?0??RenderExposureStorage@@YAHXZ@4JA DD 03c5H ; `RenderExposureStorage'::`1'::__LINE__Var
_DATA	ENDS
;	COMDAT ?__LINE__Var@?0??Bloom@@YAXXZ@4JA
_DATA	SEGMENT
?__LINE__Var@?0??Bloom@@YAXXZ@4JA DD 0389H		; `Bloom'::`1'::__LINE__Var
_DATA	ENDS
;	COMDAT ?__LINE__Var@?0??SSAO@@YAXXZ@4JA
_DATA	SEGMENT
?__LINE__Var@?0??SSAO@@YAXXZ@4JA DD 031aH		; `SSAO'::`1'::__LINE__Var
_DATA	ENDS
;	COMDAT ?__LINE__Var@?0??Monochrome@@YAXXZ@4JA
_DATA	SEGMENT
?__LINE__Var@?0??Monochrome@@YAXXZ@4JA DD 02ceH		; `Monochrome'::`1'::__LINE__Var
_DATA	ENDS
;	COMDAT ?__LINE__Var@?0??Glitch@@YAXXZ@4JA
_DATA	SEGMENT
?__LINE__Var@?0??Glitch@@YAXXZ@4JA DD 02afH		; `Glitch'::`1'::__LINE__Var
_DATA	ENDS
;	COMDAT ?__LINE__Var@?0??ScreenWater@@YAXXZ@4JA
_DATA	SEGMENT
?__LINE__Var@?0??ScreenWater@@YAXXZ@4JA DD 028dH	; `ScreenWater'::`1'::__LINE__Var
_DATA	ENDS
;	COMDAT ??_C@_0BA@IGAEPFGJ@r_blur_strength?$AA@
CONST	SEGMENT
??_C@_0BA@IGAEPFGJ@r_blur_strength?$AA@ DB 'r_blur_strength', 00H ; `string'
CONST	ENDS
;	COMDAT ?__LINE__Var@?0??HorizontalBlur@@YAXXZ@4JA
_DATA	SEGMENT
?__LINE__Var@?0??HorizontalBlur@@YAXXZ@4JA DD 0231H	; `HorizontalBlur'::`1'::__LINE__Var
_DATA	ENDS
;	COMDAT ?__LINE__Var@?0??RenderGaussBlur@@YAXMM@Z@4JA
_DATA	SEGMENT
?__LINE__Var@?0??RenderGaussBlur@@YAXMM@Z@4JA DD 0212H	; `RenderGaussBlur'::`1'::__LINE__Var
_DATA	ENDS
;	COMDAT ??_C@_03BNEOMJOP@sky?$AA@
CONST	SEGMENT
??_C@_03BNEOMJOP@sky?$AA@ DB 'sky', 00H			; `string'
CONST	ENDS
;	COMDAT ??_C@_0O@NGAMONDD@cl_background?$AA@
CONST	SEGMENT
??_C@_0O@NGAMONDD@cl_background?$AA@ DB 'cl_background', 00H ; `string'
CONST	ENDS
;	COMDAT ??_C@_0BB@CAFICHGA@r_blur_threshold?$AA@
CONST	SEGMENT
??_C@_0BB@CAFICHGA@r_blur_threshold?$AA@ DB 'r_blur_threshold', 00H ; `string'
CONST	ENDS
;	COMDAT ?__LINE__Var@?0??MotionBlur@@YAXXZ@4JA
_DATA	SEGMENT
?__LINE__Var@?0??MotionBlur@@YAXXZ@4JA DD 017aH		; `MotionBlur'::`1'::__LINE__Var
_DATA	ENDS
;	COMDAT ??_C@_0BI@FECCGOFJ@assert?5failed?5at?5?$CFs?3?$CFi?6?$AA@
CONST	SEGMENT
??_C@_0BI@FECCGOFJ@assert?5failed?5at?5?$CFs?3?$CFi?6?$AA@ DB 'assert fai'
	DB	'led at %s:%i', 0aH, 00H			; `string'
CONST	ENDS
;	COMDAT ??_C@_0FC@EOCCPBDF@d?3?2?$CBdiffusion?52020?2source?5code?52@
CONST	SEGMENT
??_C@_0FC@EOCCPBDF@d?3?2?$CBdiffusion?52020?2source?5code?52@ DB 'd:\!dif'
	DB	'fusion 2020\source code 2022\client-server\client\render\r_po'
	DB	'stprocess.cpp', 00H				; `string'
CONST	ENDS
;	COMDAT ?__LINE__Var@?0??RenderSunShafts@@YAXXZ@4JA
_DATA	SEGMENT
?__LINE__Var@?0??RenderSunShafts@@YAXXZ@4JA DD 0107H	; `RenderSunShafts'::`1'::__LINE__Var
_DATA	ENDS
;	COMDAT ??_C@_0BP@JBBAKCHD@?$CKscreen_temp_fbo_texture_color?$AA@
CONST	SEGMENT
??_C@_0BP@JBBAKCHD@?$CKscreen_temp_fbo_texture_color?$AA@ DB '*screen_tem'
	DB	'p_fbo_texture_color', 00H			; `string'
CONST	ENDS
;	COMDAT ??_C@_0BL@LPMICGLM@sprites?1effects?1rotate?4tga?$AA@
CONST	SEGMENT
??_C@_0BL@LPMICGLM@sprites?1effects?1rotate?4tga?$AA@ DB 'sprites/effects'
	DB	'/rotate.tga', 00H				; `string'
CONST	ENDS
;	COMDAT ??_C@_0CA@KJELPDKP@sprites?1effects?1screenwater?4dds?$AA@
CONST	SEGMENT
??_C@_0CA@KJELPDKP@sprites?1effects?1screenwater?4dds?$AA@ DB 'sprites/ef'
	DB	'fects/screenwater.dds', 00H			; `string'
CONST	ENDS
;	COMDAT ??_C@_08OGEMMNIO@?$CKtarget0?$AA@
CONST	SEGMENT
??_C@_08OGEMMNIO@?$CKtarget0?$AA@ DB '*target0', 00H	; `string'
CONST	ENDS
;	COMDAT ??_C@_0N@POPCHNAA@?$CKscreencolor?$AA@
CONST	SEGMENT
??_C@_0N@POPCHNAA@?$CKscreencolor?$AA@ DB '*screencolor', 00H ; `string'
CONST	ENDS
;	COMDAT ??_C@_0N@BDNGALHE@?$CKscreendepth?$AA@
CONST	SEGMENT
??_C@_0N@BDNGALHE@?$CKscreendepth?$AA@ DB '*screendepth', 00H ; `string'
CONST	ENDS
;	COMDAT ??_C@_09NBNFKNEB@?$CKscreenao?$AA@
CONST	SEGMENT
??_C@_09NBNFKNEB@?$CKscreenao?$AA@ DB '*screenao', 00H	; `string'
CONST	ENDS
;	COMDAT ??_C@_0BE@EEJIOOP@?$CKexposure_storage?$CFd?$AA@
CONST	SEGMENT
??_C@_0BE@EEJIOOP@?$CKexposure_storage?$CFd?$AA@ DB '*exposure_storage%d', 00H ; `string'
CONST	ENDS
;	COMDAT ??_C@_0BH@FKJMGFIJ@?$CKavg_luminance_texture?$AA@
CONST	SEGMENT
??_C@_0BH@FKJMGFIJ@?$CKavg_luminance_texture?$AA@ DB '*avg_luminance_text'
	DB	'ure', 00H					; `string'
CONST	ENDS
; Function compile flags: /Odtp /ZI
; File d:\!diffusion 2020\source code 2022\client-server\client\render\r_postprocess.cpp
;	COMDAT ?RenderExposureStorage@@YAHXZ
_TEXT	SEGMENT
tv202 = -88						; size = 8
tv70 = -80						; size = 4
_mipmap_count$ = -12					; size = 4
_destIndex$ = -8					; size = 4
_sourceIndex$ = -4					; size = 4
?RenderExposureStorage@@YAHXZ PROC			; RenderExposureStorage, COMDAT

; 965  : {

	push	ebp
	mov	ebp, esp
	sub	esp, 88					; 00000058H
	push	ebx
	push	esi
	push	edi

; 966  : 	static int Index = 0;
; 967  : 	const int sourceIndex = Index % 2;

	mov	eax, DWORD PTR ?Index@?1??RenderExposureStorage@@YAHXZ@4HA
	and	eax, -2147483647			; 80000001H
	jns	SHORT $LN6@RenderExpo
	dec	eax
	or	eax, -2					; fffffffeH
	inc	eax
$LN6@RenderExpo:
	mov	DWORD PTR _sourceIndex$[ebp], eax

; 968  : 	const int destIndex = (Index + 1) % 2;

	mov	eax, DWORD PTR ?Index@?1??RenderExposureStorage@@YAHXZ@4HA
	add	eax, 1
	and	eax, -2147483647			; 80000001H
	jns	SHORT $LN7@RenderExpo
	dec	eax
	or	eax, -2					; fffffffeH
	inc	eax
$LN7@RenderExpo:
	mov	DWORD PTR _destIndex$[ebp], eax

; 969  : 
; 970  : 	const int mipmap_count = 1 + floor( log2( Q_max( glState.width, glState.height ) ) );

	mov	eax, DWORD PTR ?glState@@3UglState_t@@A
	cmp	eax, DWORD PTR ?glState@@3UglState_t@@A+4
	jle	SHORT $LN4@RenderExpo
	mov	ecx, DWORD PTR ?glState@@3UglState_t@@A
	mov	DWORD PTR tv70[ebp], ecx
	jmp	SHORT $LN5@RenderExpo
$LN4@RenderExpo:
	mov	edx, DWORD PTR ?glState@@3UglState_t@@A+4
	mov	DWORD PTR tv70[ebp], edx
$LN5@RenderExpo:
	cvtsi2sd xmm0, DWORD PTR tv70[ebp]
	sub	esp, 8
	movsd	QWORD PTR [esp], xmm0
	call	_log2
	fstp	QWORD PTR [esp]
	call	_floor
	add	esp, 8
	fstp	QWORD PTR tv202[ebp]
	movsd	xmm0, QWORD PTR tv202[ebp]
	addsd	xmm0, QWORD PTR __real@3ff0000000000000
	cvttsd2si eax, xmm0
	mov	DWORD PTR _mipmap_count$[ebp], eax

; 971  : 
; 972  : 	GL_BindShader( glsl.GenExposure );

	mov	eax, DWORD PTR ?glsl@@3Uref_shaders_t@@A+92
	push	eax
	call	?GL_BindShader@@YAXPAUglsl_prog_s@@@Z	; GL_BindShader
	add	esp, 4

; 973  : 	ASSERT( RI->currentshader != NULL );

	mov	eax, DWORD PTR ?RI@@3PAUref_instance_t@@A ; RI
	cmp	DWORD PTR [eax+28], 0
	jne	SHORT $LN2@RenderExpo
	mov	eax, DWORD PTR ?__LINE__Var@?0??RenderExposureStorage@@YAHXZ@4JA
	add	eax, 8
	push	eax
	push	OFFSET ??_C@_0FC@EOCCPBDF@d?3?2?$CBdiffusion?52020?2source?5code?52@
	push	OFFSET ??_C@_0BI@FECCGOFJ@assert?5failed?5at?5?$CFs?3?$CFi?6?$AA@
	call	DWORD PTR ?gRenderfuncs@@3Urender_api_s@@A+236
	add	esp, 12					; 0000000cH
$LN2@RenderExpo:

; 974  : 
; 975  : 	Index = (Index + 1) % 2;

	mov	eax, DWORD PTR ?Index@?1??RenderExposureStorage@@YAHXZ@4HA
	add	eax, 1
	and	eax, -2147483647			; 80000001H
	jns	SHORT $LN8@RenderExpo
	dec	eax
	or	eax, -2					; fffffffeH
	inc	eax
$LN8@RenderExpo:
	mov	DWORD PTR ?Index@?1??RenderExposureStorage@@YAHXZ@4HA, eax

; 976  : 
; 977  : 	GL_Bind( GL_TEXTURE0, tr.avg_luminance_texture );

	mov	eax, DWORD PTR ?tr@@3Uref_globals_t@@A+5885332
	push	eax
	push	0
	call	DWORD PTR ?gRenderfuncs@@3Urender_api_s@@A+132
	add	esp, 8

; 978  : 	GL_Bind( GL_TEXTURE1, exposure_storage_texture[sourceIndex] );

	mov	eax, DWORD PTR _sourceIndex$[ebp]
	mov	ecx, DWORD PTR ?exposure_storage_texture@@3PAHA[eax*4]
	push	ecx
	push	1
	call	DWORD PTR ?gRenderfuncs@@3Urender_api_s@@A+132
	add	esp, 8

; 979  : 	pglUniform1fARB( RI->currentshader->u_MipLod, (float)(mipmap_count - 1) );

	mov	eax, DWORD PTR _mipmap_count$[ebp]
	sub	eax, 1
	cvtsi2ss xmm0, eax
	push	ecx
	movss	DWORD PTR [esp], xmm0
	mov	ecx, DWORD PTR ?RI@@3PAUref_instance_t@@A ; RI
	mov	edx, DWORD PTR [ecx+28]
	mov	eax, DWORD PTR [edx+952]
	push	eax
	call	DWORD PTR ?pglUniform1fARB@@3P6GXHM@ZA	; pglUniform1fARB

; 980  : 	pglUniform1fARB( RI->currentshader->u_TimeDelta, (float)g_fFrametime );

	push	ecx
	movss	xmm0, DWORD PTR ?g_fFrametime@@3MA
	movss	DWORD PTR [esp], xmm0
	mov	eax, DWORD PTR ?RI@@3PAUref_instance_t@@A ; RI
	mov	ecx, DWORD PTR [eax+28]
	mov	edx, DWORD PTR [ecx+960]
	push	edx
	call	DWORD PTR ?pglUniform1fARB@@3P6GXHM@ZA	; pglUniform1fARB

; 981  : 
; 982  : 	pglViewport( 0, 0, 1, 1 );

	push	1
	push	1
	push	0
	push	0
	call	DWORD PTR ?pglViewport@@3P6GXHHHH@ZA	; pglViewport

; 983  : 	pglBindFramebuffer( GL_FRAMEBUFFER_EXT, exposure_storage_fbo[destIndex] );

	mov	eax, DWORD PTR _destIndex$[ebp]
	mov	ecx, DWORD PTR ?exposure_storage_fbo@@3PAIA[eax*4]
	push	ecx
	push	36160					; 00008d40H
	call	DWORD PTR ?pglBindFramebuffer@@3P6GXII@ZA ; pglBindFramebuffer

; 984  : 	RenderFSQ( glState.width, glState.height );

	mov	eax, DWORD PTR ?glState@@3UglState_t@@A+4
	push	eax
	mov	ecx, DWORD PTR ?glState@@3UglState_t@@A
	push	ecx
	call	?RenderFSQ@@YAXHH@Z			; RenderFSQ
	add	esp, 8

; 985  : 
; 986  : 	// restore GL state
; 987  : 	pglViewport( 0, 0, glState.width, glState.height );

	mov	eax, DWORD PTR ?glState@@3UglState_t@@A+4
	push	eax
	mov	ecx, DWORD PTR ?glState@@3UglState_t@@A
	push	ecx
	push	0
	push	0
	call	DWORD PTR ?pglViewport@@3P6GXHHHH@ZA	; pglViewport

; 988  : 	pglBindFramebuffer( GL_FRAMEBUFFER_EXT, 0 );

	push	0
	push	36160					; 00008d40H
	call	DWORD PTR ?pglBindFramebuffer@@3P6GXII@ZA ; pglBindFramebuffer

; 989  : 	GL_SelectTexture( glConfig.max_texture_units - 1 );

	mov	eax, DWORD PTR ?glConfig@@3UglConfig_t@@A+52
	sub	eax, 1
	push	eax
	call	DWORD PTR ?gRenderfuncs@@3Urender_api_s@@A+136
	add	esp, 4

; 990  : 	GL_CleanUpTextureUnits( 0 );

	push	0
	call	DWORD PTR ?gRenderfuncs@@3Urender_api_s@@A+148
	add	esp, 4

; 991  : 
; 992  : 	return exposure_storage_texture[destIndex];

	mov	eax, DWORD PTR _destIndex$[ebp]
	mov	eax, DWORD PTR ?exposure_storage_texture@@3PAHA[eax*4]

; 993  : }

	pop	edi
	pop	esi
	pop	ebx
	mov	esp, ebp
	pop	ebp
	ret	0
?RenderExposureStorage@@YAHXZ ENDP			; RenderExposureStorage
_TEXT	ENDS
; Function compile flags: /Odtp /ZI
; File d:\!diffusion 2020\source code 2022\client-server\client\render\r_postprocess.cpp
;	COMDAT ?RenderFSQ@@YAXHH@Z
_TEXT	SEGMENT
_screenHeight$ = -8					; size = 4
_screenWidth$ = -4					; size = 4
_wide$ = 8						; size = 4
_tall$ = 12						; size = 4
?RenderFSQ@@YAXHH@Z PROC				; RenderFSQ, COMDAT

; 246  : {

	push	ebp
	mov	ebp, esp
	sub	esp, 72					; 00000048H
	push	ebx
	push	esi
	push	edi

; 247  : 	float screenWidth = (float)wide;

	cvtsi2ss xmm0, DWORD PTR _wide$[ebp]
	movss	DWORD PTR _screenWidth$[ebp], xmm0

; 248  : 	float screenHeight = (float)tall;

	cvtsi2ss xmm0, DWORD PTR _tall$[ebp]
	movss	DWORD PTR _screenHeight$[ebp], xmm0

; 249  : 
; 250  : 	pglBegin( GL_QUADS );

	push	7
	call	DWORD PTR ?pglBegin@@3P6GXI@ZA		; pglBegin

; 251  : 		pglTexCoord2f( 0.0f, 1.0f );

	push	ecx
	movss	xmm0, DWORD PTR __real@3f800000
	movss	DWORD PTR [esp], xmm0
	push	ecx
	xorps	xmm0, xmm0
	movss	DWORD PTR [esp], xmm0
	call	DWORD PTR ?pglTexCoord2f@@3P6GXMM@ZA	; pglTexCoord2f

; 252  : 		pglVertex2f( 0.0f, 0.0f );

	push	ecx
	xorps	xmm0, xmm0
	movss	DWORD PTR [esp], xmm0
	push	ecx
	xorps	xmm0, xmm0
	movss	DWORD PTR [esp], xmm0
	call	DWORD PTR ?pglVertex2f@@3P6GXMM@ZA	; pglVertex2f

; 253  : 		pglTexCoord2f( 1.0f, 1.0f );

	push	ecx
	movss	xmm0, DWORD PTR __real@3f800000
	movss	DWORD PTR [esp], xmm0
	push	ecx
	movss	xmm0, DWORD PTR __real@3f800000
	movss	DWORD PTR [esp], xmm0
	call	DWORD PTR ?pglTexCoord2f@@3P6GXMM@ZA	; pglTexCoord2f

; 254  : 		pglVertex2f( screenWidth, 0.0f );

	push	ecx
	xorps	xmm0, xmm0
	movss	DWORD PTR [esp], xmm0
	push	ecx
	movss	xmm0, DWORD PTR _screenWidth$[ebp]
	movss	DWORD PTR [esp], xmm0
	call	DWORD PTR ?pglVertex2f@@3P6GXMM@ZA	; pglVertex2f

; 255  : 		pglTexCoord2f( 1.0f, 0.0f );

	push	ecx
	xorps	xmm0, xmm0
	movss	DWORD PTR [esp], xmm0
	push	ecx
	movss	xmm0, DWORD PTR __real@3f800000
	movss	DWORD PTR [esp], xmm0
	call	DWORD PTR ?pglTexCoord2f@@3P6GXMM@ZA	; pglTexCoord2f

; 256  : 		pglVertex2f( screenWidth, screenHeight );

	push	ecx
	movss	xmm0, DWORD PTR _screenHeight$[ebp]
	movss	DWORD PTR [esp], xmm0
	push	ecx
	movss	xmm0, DWORD PTR _screenWidth$[ebp]
	movss	DWORD PTR [esp], xmm0
	call	DWORD PTR ?pglVertex2f@@3P6GXMM@ZA	; pglVertex2f

; 257  : 		pglTexCoord2f( 0.0f, 0.0f );

	push	ecx
	xorps	xmm0, xmm0
	movss	DWORD PTR [esp], xmm0
	push	ecx
	xorps	xmm0, xmm0
	movss	DWORD PTR [esp], xmm0
	call	DWORD PTR ?pglTexCoord2f@@3P6GXMM@ZA	; pglTexCoord2f

; 258  : 		pglVertex2f( 0.0f, screenHeight );

	push	ecx
	movss	xmm0, DWORD PTR _screenHeight$[ebp]
	movss	DWORD PTR [esp], xmm0
	push	ecx
	xorps	xmm0, xmm0
	movss	DWORD PTR [esp], xmm0
	call	DWORD PTR ?pglVertex2f@@3P6GXMM@ZA	; pglVertex2f

; 259  : 	pglEnd();

	call	DWORD PTR ?pglEnd@@3P6GXXZA		; pglEnd

; 260  : }

	pop	edi
	pop	esi
	pop	ebx
	mov	esp, ebp
	pop	ebp
	ret	0
?RenderFSQ@@YAXHH@Z ENDP				; RenderFSQ
_TEXT	ENDS
; Function compile flags: /Odtp /ZI
; File d:\!diffusion 2020\source code 2022\client-server\client\render\r_postprocess.cpp
;	COMDAT ?InitSSAO@@YAXXZ
_TEXT	SEGMENT
tv68 = -76						; size = 4
_height$ = -8						; size = 4
_width$ = -4						; size = 4
?InitSSAO@@YAXXZ PROC					; InitSSAO, COMDAT

; 131  : {

	push	ebp
	mov	ebp, esp
	sub	esp, 76					; 0000004cH
	push	ebx
	push	esi
	push	edi

; 132  : 	if( gl_ssao->value <= 0 )

	mov	eax, DWORD PTR ?gl_ssao@@3PAUcvar_s@@A	; gl_ssao
	xorps	xmm0, xmm0
	comiss	xmm0, DWORD PTR [eax+12]
	jb	SHORT $LN4@InitSSAO

; 133  : 		return;

	jmp	$LN1@InitSSAO
$LN4@InitSSAO:

; 134  : 
; 135  : 	int width = glState.width;

	mov	eax, DWORD PTR ?glState@@3UglState_t@@A
	mov	DWORD PTR _width$[ebp], eax

; 136  : 	int height = glState.height;

	mov	eax, DWORD PTR ?glState@@3UglState_t@@A+4
	mov	DWORD PTR _height$[ebp], eax

; 137  : 
; 138  : 	switch( (int)gl_ssao->value )

	mov	eax, DWORD PTR ?gl_ssao@@3PAUcvar_s@@A	; gl_ssao
	cvttss2si ecx, DWORD PTR [eax+12]
	mov	DWORD PTR tv68[ebp], ecx
	cmp	DWORD PTR tv68[ebp], 1
	je	SHORT $LN5@InitSSAO
	cmp	DWORD PTR tv68[ebp], 2
	je	SHORT $LN6@InitSSAO
	jmp	SHORT $LN2@InitSSAO
$LN5@InitSSAO:

; 139  : 	{
; 140  : 	case 1:
; 141  : 		width = glState.width / 4;

	mov	eax, DWORD PTR ?glState@@3UglState_t@@A
	cdq
	and	edx, 3
	add	eax, edx
	sar	eax, 2
	mov	DWORD PTR _width$[ebp], eax

; 142  : 		height = glState.height / 4;

	mov	eax, DWORD PTR ?glState@@3UglState_t@@A+4
	cdq
	and	edx, 3
	add	eax, edx
	sar	eax, 2
	mov	DWORD PTR _height$[ebp], eax

; 143  : 		break;

	jmp	SHORT $LN2@InitSSAO
$LN6@InitSSAO:

; 144  : 	case 2:
; 145  : 		width = glState.width / 2;

	mov	eax, DWORD PTR ?glState@@3UglState_t@@A
	cdq
	sub	eax, edx
	sar	eax, 1
	mov	DWORD PTR _width$[ebp], eax

; 146  : 		height = glState.height / 2;

	mov	eax, DWORD PTR ?glState@@3UglState_t@@A+4
	cdq
	sub	eax, edx
	sar	eax, 1
	mov	DWORD PTR _height$[ebp], eax
$LN2@InitSSAO:

; 147  : 		break;
; 148  : 	}
; 149  : 	
; 150  : 	if( ScreenAO )

	cmp	DWORD PTR ?ScreenAO@@3HA, 0		; ScreenAO
	je	SHORT $LN7@InitSSAO

; 151  : 	{
; 152  : 		FREE_TEXTURE( ScreenAO );

	mov	eax, DWORD PTR ?ScreenAO@@3HA		; ScreenAO
	push	eax
	call	DWORD PTR ?gRenderfuncs@@3Urender_api_s@@A+76
	add	esp, 4

; 153  : 		ScreenAO = 0;

	mov	DWORD PTR ?ScreenAO@@3HA, 0		; ScreenAO
$LN7@InitSSAO:

; 154  : 	}
; 155  : 
; 156  : 	if( !ScreenAO )

	cmp	DWORD PTR ?ScreenAO@@3HA, 0		; ScreenAO
	jne	SHORT $LN8@InitSSAO

; 157  : 		ScreenAO = CREATE_TEXTURE( "*screenao", width, height, NULL, (TF_COLORBUFFER | TF_ARB_16BIT) );

	push	268441601				; 10001801H
	push	0
	mov	eax, DWORD PTR _height$[ebp]
	push	eax
	mov	ecx, DWORD PTR _width$[ebp]
	push	ecx
	push	OFFSET ??_C@_09NBNFKNEB@?$CKscreenao?$AA@
	call	DWORD PTR ?gRenderfuncs@@3Urender_api_s@@A+64
	add	esp, 20					; 00000014H
	mov	DWORD PTR ?ScreenAO@@3HA, eax		; ScreenAO
$LN8@InitSSAO:
$LN1@InitSSAO:

; 158  : }

	pop	edi
	pop	esi
	pop	ebx
	mov	esp, ebp
	pop	ebp
	ret	0
?InitSSAO@@YAXXZ ENDP					; InitSSAO
_TEXT	ENDS
; Function compile flags: /Odtp /ZI
; File d:\!diffusion 2020\source code 2022\client-server\client\render\r_postprocess.cpp
;	COMDAT ?InitAutoExposure@@YAXXZ
_TEXT	SEGMENT
tv219 = -100						; size = 8
tv67 = -92						; size = 4
_i$1 = -24						; size = 4
_color$ = -20						; size = 12
_i$2 = -8						; size = 4
_mipmap_count$ = -4					; size = 4
?InitAutoExposure@@YAXXZ PROC				; InitAutoExposure, COMDAT

; 71   : {

	push	ebp
	mov	ebp, esp
	sub	esp, 100				; 00000064H
	push	ebx
	push	esi
	push	edi

; 72   : 	// init average luminance
; 73   : 	const int mipmap_count = 1 + floor( log2( Q_max( glState.width, glState.height ) ) );

	mov	eax, DWORD PTR ?glState@@3UglState_t@@A
	cmp	eax, DWORD PTR ?glState@@3UglState_t@@A+4
	jle	SHORT $LN14@InitAutoEx
	mov	ecx, DWORD PTR ?glState@@3UglState_t@@A
	mov	DWORD PTR tv67[ebp], ecx
	jmp	SHORT $LN15@InitAutoEx
$LN14@InitAutoEx:
	mov	edx, DWORD PTR ?glState@@3UglState_t@@A+4
	mov	DWORD PTR tv67[ebp], edx
$LN15@InitAutoEx:
	cvtsi2sd xmm0, DWORD PTR tv67[ebp]
	sub	esp, 8
	movsd	QWORD PTR [esp], xmm0
	call	_log2
	fstp	QWORD PTR [esp]
	call	_floor
	add	esp, 8
	fstp	QWORD PTR tv219[ebp]
	movsd	xmm0, QWORD PTR tv219[ebp]
	addsd	xmm0, QWORD PTR __real@3ff0000000000000
	cvttsd2si eax, xmm0
	mov	DWORD PTR _mipmap_count$[ebp], eax

; 74   : 
; 75   : 	if( tr.avg_luminance_texture )

	cmp	DWORD PTR ?tr@@3Uref_globals_t@@A+5885332, 0
	je	SHORT $LN8@InitAutoEx

; 76   : 	{
; 77   : 		FREE_TEXTURE( tr.avg_luminance_texture );

	mov	eax, DWORD PTR ?tr@@3Uref_globals_t@@A+5885332
	push	eax
	call	DWORD PTR ?gRenderfuncs@@3Urender_api_s@@A+76
	add	esp, 4

; 78   : 		tr.avg_luminance_texture = 0;

	mov	DWORD PTR ?tr@@3Uref_globals_t@@A+5885332, 0
$LN8@InitAutoEx:

; 79   : 	}
; 80   : 
; 81   : 	if( !tr.avg_luminance_texture )

	cmp	DWORD PTR ?tr@@3Uref_globals_t@@A+5885332, 0
	jne	SHORT $LN9@InitAutoEx

; 82   : 		tr.avg_luminance_texture = CREATE_TEXTURE( "*avg_luminance_texture", glState.width, glState.height, NULL, TF_CLAMP | TF_HAS_ALPHA | TF_ARB_16BIT );

	push	268503040				; 10010800H
	push	0
	mov	eax, DWORD PTR ?glState@@3UglState_t@@A+4
	push	eax
	mov	ecx, DWORD PTR ?glState@@3UglState_t@@A
	push	ecx
	push	OFFSET ??_C@_0BH@FKJMGFIJ@?$CKavg_luminance_texture?$AA@
	call	DWORD PTR ?gRenderfuncs@@3Urender_api_s@@A+64
	add	esp, 20					; 00000014H
	mov	DWORD PTR ?tr@@3Uref_globals_t@@A+5885332, eax
$LN9@InitAutoEx:

; 83   : 
; 84   : 	GL_Bind( GL_TEXTURE0, tr.avg_luminance_texture );

	mov	eax, DWORD PTR ?tr@@3Uref_globals_t@@A+5885332
	push	eax
	push	0
	call	DWORD PTR ?gRenderfuncs@@3Urender_api_s@@A+132
	add	esp, 8

; 85   : 	pglGenerateMipmap( GL_TEXTURE_2D );

	push	3553					; 00000de1H
	call	DWORD PTR ?pglGenerateMipmap@@3P6GXI@ZA	; pglGenerateMipmap

; 86   : 	pglTexParameteri( GL_TEXTURE_2D, GL_TEXTURE_MIN_FILTER, GL_LINEAR_MIPMAP_LINEAR );

	push	9987					; 00002703H
	push	10241					; 00002801H
	push	3553					; 00000de1H
	call	DWORD PTR ?pglTexParameteri@@3P6GXIIH@ZA ; pglTexParameteri

; 87   : 	GL_Bind( GL_TEXTURE0, 0 );

	push	0
	push	0
	call	DWORD PTR ?gRenderfuncs@@3Urender_api_s@@A+132
	add	esp, 8

; 88   : 
; 89   : 	// mips
; 90   : 	for( int i = 0; i < mipmap_count; ++i )

	mov	DWORD PTR _i$2[ebp], 0
	jmp	SHORT $LN4@InitAutoEx
$LN2@InitAutoEx:
	mov	eax, DWORD PTR _i$2[ebp]
	add	eax, 1
	mov	DWORD PTR _i$2[ebp], eax
$LN4@InitAutoEx:
	mov	eax, DWORD PTR _i$2[ebp]
	cmp	eax, DWORD PTR _mipmap_count$[ebp]
	jge	SHORT $LN3@InitAutoEx

; 91   : 	{
; 92   : 		if( tr.avg_luminance_fbo_mip[i] == 0 )

	mov	eax, DWORD PTR _i$2[ebp]
	cmp	DWORD PTR ?tr@@3Uref_globals_t@@A[eax*4+5885336], 0
	jne	SHORT $LN10@InitAutoEx

; 93   : 			pglGenFramebuffers( 1, &tr.avg_luminance_fbo_mip[i] );

	mov	eax, DWORD PTR _i$2[ebp]
	lea	ecx, DWORD PTR ?tr@@3Uref_globals_t@@A[eax*4+5885336]
	push	ecx
	push	1
	call	DWORD PTR ?pglGenFramebuffers@@3P6GXHPAI@ZA ; pglGenFramebuffers
$LN10@InitAutoEx:

; 94   : 		pglBindFramebuffer( GL_FRAMEBUFFER_EXT, tr.avg_luminance_fbo_mip[i] );

	mov	eax, DWORD PTR _i$2[ebp]
	mov	ecx, DWORD PTR ?tr@@3Uref_globals_t@@A[eax*4+5885336]
	push	ecx
	push	36160					; 00008d40H
	call	DWORD PTR ?pglBindFramebuffer@@3P6GXII@ZA ; pglBindFramebuffer

; 95   : 		pglFramebufferTexture2D( GL_FRAMEBUFFER_EXT, GL_COLOR_ATTACHMENT0_EXT, GL_TEXTURE_2D, RENDER_GET_PARM(PARM_TEX_TEXNUM, tr.avg_luminance_texture), i );

	mov	eax, DWORD PTR _i$2[ebp]
	push	eax
	mov	ecx, DWORD PTR ?tr@@3Uref_globals_t@@A+5885332
	push	ecx
	push	9
	call	DWORD PTR ?gRenderfuncs@@3Urender_api_s@@A
	add	esp, 8
	push	eax
	push	3553					; 00000de1H
	push	36064					; 00008ce0H
	push	36160					; 00008d40H
	call	DWORD PTR ?pglFramebufferTexture2D@@3P6GXIIIIH@ZA ; pglFramebufferTexture2D

; 96   : 	}

	jmp	SHORT $LN2@InitAutoEx
$LN3@InitAutoEx:

; 97   : 
; 98   : 	pglBindFramebuffer( GL_FRAMEBUFFER_EXT, 0 );

	push	0
	push	36160					; 00008d40H
	call	DWORD PTR ?pglBindFramebuffer@@3P6GXII@ZA ; pglBindFramebuffer

; 99   : 	
; 100  : 	const Vector color = Vector( 0.8f, 0.0f, 0.0f );

	push	ecx
	xorps	xmm0, xmm0
	movss	DWORD PTR [esp], xmm0
	push	ecx
	xorps	xmm0, xmm0
	movss	DWORD PTR [esp], xmm0
	push	ecx
	movss	xmm0, DWORD PTR __real@3f4ccccd
	movss	DWORD PTR [esp], xmm0
	lea	ecx, DWORD PTR _color$[ebp]
	call	??0Vector@@QAE@MMM@Z			; Vector::Vector

; 101  : 
; 102  : 	for( int i = 0; i < 2; ++i )

	mov	DWORD PTR _i$1[ebp], 0
	jmp	SHORT $LN7@InitAutoEx
$LN5@InitAutoEx:
	mov	eax, DWORD PTR _i$1[ebp]
	add	eax, 1
	mov	DWORD PTR _i$1[ebp], eax
$LN7@InitAutoEx:
	cmp	DWORD PTR _i$1[ebp], 2
	jge	$LN6@InitAutoEx

; 103  : 	{
; 104  : 		if( exposure_storage_texture[i] )

	mov	eax, DWORD PTR _i$1[ebp]
	cmp	DWORD PTR ?exposure_storage_texture@@3PAHA[eax*4], 0
	je	SHORT $LN11@InitAutoEx

; 105  : 		{
; 106  : 			FREE_TEXTURE( exposure_storage_texture[i] );

	mov	eax, DWORD PTR _i$1[ebp]
	mov	ecx, DWORD PTR ?exposure_storage_texture@@3PAHA[eax*4]
	push	ecx
	call	DWORD PTR ?gRenderfuncs@@3Urender_api_s@@A+76
	add	esp, 4

; 107  : 			exposure_storage_texture[i] = 0;

	mov	eax, DWORD PTR _i$1[ebp]
	mov	DWORD PTR ?exposure_storage_texture@@3PAHA[eax*4], 0
$LN11@InitAutoEx:

; 108  : 		}
; 109  : 
; 110  : 		exposure_storage_texture[i] = CREATE_TEXTURE( va( "*exposure_storage%d", i ), 1, 1, NULL, TF_IMAGE | TF_ARB_16BIT );

	push	268441600				; 10001800H
	push	0
	push	1
	push	1
	mov	eax, DWORD PTR _i$1[ebp]
	push	eax
	push	OFFSET ??_C@_0BE@EEJIOOP@?$CKexposure_storage?$CFd?$AA@
	call	?va@@YAPADPBDZZ				; va
	add	esp, 8
	push	eax
	call	DWORD PTR ?gRenderfuncs@@3Urender_api_s@@A+64
	add	esp, 20					; 00000014H
	mov	ecx, DWORD PTR _i$1[ebp]
	mov	DWORD PTR ?exposure_storage_texture@@3PAHA[ecx*4], eax

; 111  : 
; 112  : 		GL_Bind( GL_TEXTURE0, exposure_storage_texture[i] );

	mov	eax, DWORD PTR _i$1[ebp]
	mov	ecx, DWORD PTR ?exposure_storage_texture@@3PAHA[eax*4]
	push	ecx
	push	0
	call	DWORD PTR ?gRenderfuncs@@3Urender_api_s@@A+132
	add	esp, 8

; 113  : 		pglTexSubImage2D( GL_TEXTURE_2D, 0, 0, 0, 1, 1, GL_RGB, GL_FLOAT, &color.x );

	lea	eax, DWORD PTR _color$[ebp]
	push	eax
	push	5126					; 00001406H
	push	6407					; 00001907H
	push	1
	push	1
	push	0
	push	0
	push	0
	push	3553					; 00000de1H
	call	DWORD PTR ?pglTexSubImage2D@@3P6GXIHHHHHIIPBX@ZA ; pglTexSubImage2D

; 114  : 		GL_Bind( GL_TEXTURE0, 0 );

	push	0
	push	0
	call	DWORD PTR ?gRenderfuncs@@3Urender_api_s@@A+132
	add	esp, 8

; 115  : 
; 116  : 		if( exposure_storage_fbo[i] == 0 )

	mov	eax, DWORD PTR _i$1[ebp]
	cmp	DWORD PTR ?exposure_storage_fbo@@3PAIA[eax*4], 0
	jne	SHORT $LN12@InitAutoEx

; 117  : 			pglGenFramebuffers( 1, &exposure_storage_fbo[i] );

	mov	eax, DWORD PTR _i$1[ebp]
	lea	ecx, DWORD PTR ?exposure_storage_fbo@@3PAIA[eax*4]
	push	ecx
	push	1
	call	DWORD PTR ?pglGenFramebuffers@@3P6GXHPAI@ZA ; pglGenFramebuffers
$LN12@InitAutoEx:

; 118  : 		pglBindFramebuffer( GL_FRAMEBUFFER_EXT, exposure_storage_fbo[i] );

	mov	eax, DWORD PTR _i$1[ebp]
	mov	ecx, DWORD PTR ?exposure_storage_fbo@@3PAIA[eax*4]
	push	ecx
	push	36160					; 00008d40H
	call	DWORD PTR ?pglBindFramebuffer@@3P6GXII@ZA ; pglBindFramebuffer

; 119  : 		pglFramebufferTexture2D( GL_FRAMEBUFFER_EXT, GL_COLOR_ATTACHMENT0_EXT, GL_TEXTURE_2D, RENDER_GET_PARM(PARM_TEX_TEXNUM, exposure_storage_texture[i]), 0 );

	push	0
	mov	eax, DWORD PTR _i$1[ebp]
	mov	ecx, DWORD PTR ?exposure_storage_texture@@3PAHA[eax*4]
	push	ecx
	push	9
	call	DWORD PTR ?gRenderfuncs@@3Urender_api_s@@A
	add	esp, 8
	push	eax
	push	3553					; 00000de1H
	push	36064					; 00008ce0H
	push	36160					; 00008d40H
	call	DWORD PTR ?pglFramebufferTexture2D@@3P6GXIIIIH@ZA ; pglFramebufferTexture2D

; 120  : 	}

	jmp	$LN5@InitAutoEx
$LN6@InitAutoEx:

; 121  : 
; 122  : 	pglBindFramebuffer( GL_FRAMEBUFFER_EXT, 0 );

	push	0
	push	36160					; 00008d40H
	call	DWORD PTR ?pglBindFramebuffer@@3P6GXII@ZA ; pglBindFramebuffer

; 123  : }

	pop	edi
	pop	esi
	pop	ebx
	mov	esp, ebp
	pop	ebp
	ret	0
?InitAutoExposure@@YAXXZ ENDP				; InitAutoExposure
_TEXT	ENDS
; Function compile flags: /Odtp /ZI
; File d:\!diffusion 2020\source code 2022\client-server\client\render\r_postprocess.cpp
;	COMDAT ?AngleMatrix@@YAXABVVector@@AAVmatrix3x4@@@Z
_TEXT	SEGMENT
tv274 = -108						; size = 4
tv272 = -108						; size = 4
tv270 = -108						; size = 4
tv268 = -108						; size = 4
tv266 = -108						; size = 4
tv264 = -108						; size = 4
tv262 = -108						; size = 4
tv260 = -108						; size = 4
tv258 = -108						; size = 4
_srsy$ = -40						; size = 4
_srcy$ = -36						; size = 4
_crsy$ = -32						; size = 4
_crcy$ = -28						; size = 4
_cy$ = -24						; size = 4
_cp$ = -20						; size = 4
_cr$ = -16						; size = 4
_sy$ = -12						; size = 4
_sp$ = -8						; size = 4
_sr$ = -4						; size = 4
_angles$ = 8						; size = 4
_matrix$ = 12						; size = 4
?AngleMatrix@@YAXABVVector@@AAVmatrix3x4@@@Z PROC	; AngleMatrix, COMDAT

; 27   : {

	push	ebp
	mov	ebp, esp
	sub	esp, 108				; 0000006cH
	push	ebx
	push	esi
	push	edi

; 28   : 	float sr, sp, sy, cr, cp, cy;
; 29   : 
; 30   : 	SinCos( DEG2RAD( angles[YAW] ), &sy, &cy );

	lea	eax, DWORD PTR _cy$[ebp]
	push	eax
	lea	ecx, DWORD PTR _sy$[ebp]
	push	ecx
	mov	ecx, DWORD PTR _angles$[ebp]
	call	??BVector@@QBEPBMXZ			; Vector::operator float const *
	mov	edx, 4
	shl	edx, 0
	movss	xmm0, DWORD PTR [eax+edx]
	mulss	xmm0, DWORD PTR __real@3c8efa35
	push	ecx
	movss	DWORD PTR [esp], xmm0
	call	?SinCos@@YAXMPAM0@Z			; SinCos
	add	esp, 12					; 0000000cH

; 31   : 	SinCos( DEG2RAD( angles[PITCH] ), &sp, &cp );

	lea	eax, DWORD PTR _cp$[ebp]
	push	eax
	lea	ecx, DWORD PTR _sp$[ebp]
	push	ecx
	mov	ecx, DWORD PTR _angles$[ebp]
	call	??BVector@@QBEPBMXZ			; Vector::operator float const *
	mov	edx, 4
	imul	ecx, edx, 0
	movss	xmm0, DWORD PTR [eax+ecx]
	mulss	xmm0, DWORD PTR __real@3c8efa35
	push	ecx
	movss	DWORD PTR [esp], xmm0
	call	?SinCos@@YAXMPAM0@Z			; SinCos
	add	esp, 12					; 0000000cH

; 32   : 	SinCos( DEG2RAD( angles[ROLL] ), &sr, &cr );

	lea	eax, DWORD PTR _cr$[ebp]
	push	eax
	lea	ecx, DWORD PTR _sr$[ebp]
	push	ecx
	mov	ecx, DWORD PTR _angles$[ebp]
	call	??BVector@@QBEPBMXZ			; Vector::operator float const *
	mov	edx, 4
	shl	edx, 1
	movss	xmm0, DWORD PTR [eax+edx]
	mulss	xmm0, DWORD PTR __real@3c8efa35
	push	ecx
	movss	DWORD PTR [esp], xmm0
	call	?SinCos@@YAXMPAM0@Z			; SinCos
	add	esp, 12					; 0000000cH

; 33   : 
; 34   : 	// matrix = (YAW * PITCH) * ROLL
; 35   : 	matrix[0][0] = cp * cy;

	movss	xmm0, DWORD PTR _cp$[ebp]
	mulss	xmm0, DWORD PTR _cy$[ebp]
	push	0
	mov	ecx, DWORD PTR _matrix$[ebp]
	movss	DWORD PTR tv258[ebp], xmm0
	call	??Amatrix3x4@@QAEPAMH@Z			; matrix3x4::operator[]
	mov	ecx, 4
	imul	edx, ecx, 0
	movss	xmm0, DWORD PTR tv258[ebp]
	movss	DWORD PTR [eax+edx], xmm0

; 36   : 	matrix[1][0] = cp * sy;

	movss	xmm0, DWORD PTR _cp$[ebp]
	mulss	xmm0, DWORD PTR _sy$[ebp]
	push	1
	mov	ecx, DWORD PTR _matrix$[ebp]
	movss	DWORD PTR tv260[ebp], xmm0
	call	??Amatrix3x4@@QAEPAMH@Z			; matrix3x4::operator[]
	mov	ecx, 4
	imul	edx, ecx, 0
	movss	xmm0, DWORD PTR tv260[ebp]
	movss	DWORD PTR [eax+edx], xmm0

; 37   : 	matrix[2][0] = -sp;

	movss	xmm0, DWORD PTR _sp$[ebp]
	xorps	xmm0, DWORD PTR __xmm@80000000800000008000000080000000
	push	2
	mov	ecx, DWORD PTR _matrix$[ebp]
	movss	DWORD PTR tv262[ebp], xmm0
	call	??Amatrix3x4@@QAEPAMH@Z			; matrix3x4::operator[]
	mov	ecx, 4
	imul	edx, ecx, 0
	movss	xmm0, DWORD PTR tv262[ebp]
	movss	DWORD PTR [eax+edx], xmm0

; 38   : 
; 39   : 	float crcy = cr * cy;

	movss	xmm0, DWORD PTR _cr$[ebp]
	mulss	xmm0, DWORD PTR _cy$[ebp]
	movss	DWORD PTR _crcy$[ebp], xmm0

; 40   : 	float crsy = cr * sy;

	movss	xmm0, DWORD PTR _cr$[ebp]
	mulss	xmm0, DWORD PTR _sy$[ebp]
	movss	DWORD PTR _crsy$[ebp], xmm0

; 41   : 	float srcy = sr * cy;

	movss	xmm0, DWORD PTR _sr$[ebp]
	mulss	xmm0, DWORD PTR _cy$[ebp]
	movss	DWORD PTR _srcy$[ebp], xmm0

; 42   : 	float srsy = sr * sy;

	movss	xmm0, DWORD PTR _sr$[ebp]
	mulss	xmm0, DWORD PTR _sy$[ebp]
	movss	DWORD PTR _srsy$[ebp], xmm0

; 43   : 	matrix[0][1] = sp * srcy - crsy;

	movss	xmm0, DWORD PTR _sp$[ebp]
	mulss	xmm0, DWORD PTR _srcy$[ebp]
	subss	xmm0, DWORD PTR _crsy$[ebp]
	push	0
	mov	ecx, DWORD PTR _matrix$[ebp]
	movss	DWORD PTR tv264[ebp], xmm0
	call	??Amatrix3x4@@QAEPAMH@Z			; matrix3x4::operator[]
	mov	ecx, 4
	shl	ecx, 0
	movss	xmm0, DWORD PTR tv264[ebp]
	movss	DWORD PTR [eax+ecx], xmm0

; 44   : 	matrix[1][1] = sp * srsy + crcy;

	movss	xmm0, DWORD PTR _sp$[ebp]
	mulss	xmm0, DWORD PTR _srsy$[ebp]
	addss	xmm0, DWORD PTR _crcy$[ebp]
	push	1
	mov	ecx, DWORD PTR _matrix$[ebp]
	movss	DWORD PTR tv266[ebp], xmm0
	call	??Amatrix3x4@@QAEPAMH@Z			; matrix3x4::operator[]
	mov	ecx, 4
	shl	ecx, 0
	movss	xmm0, DWORD PTR tv266[ebp]
	movss	DWORD PTR [eax+ecx], xmm0

; 45   : 	matrix[2][1] = sr * cp;

	movss	xmm0, DWORD PTR _sr$[ebp]
	mulss	xmm0, DWORD PTR _cp$[ebp]
	push	2
	mov	ecx, DWORD PTR _matrix$[ebp]
	movss	DWORD PTR tv268[ebp], xmm0
	call	??Amatrix3x4@@QAEPAMH@Z			; matrix3x4::operator[]
	mov	ecx, 4
	shl	ecx, 0
	movss	xmm0, DWORD PTR tv268[ebp]
	movss	DWORD PTR [eax+ecx], xmm0

; 46   : 
; 47   : 	matrix[0][2] = (sp * crcy + srsy);

	movss	xmm0, DWORD PTR _sp$[ebp]
	mulss	xmm0, DWORD PTR _crcy$[ebp]
	addss	xmm0, DWORD PTR _srsy$[ebp]
	push	0
	mov	ecx, DWORD PTR _matrix$[ebp]
	movss	DWORD PTR tv270[ebp], xmm0
	call	??Amatrix3x4@@QAEPAMH@Z			; matrix3x4::operator[]
	mov	ecx, 4
	shl	ecx, 1
	movss	xmm0, DWORD PTR tv270[ebp]
	movss	DWORD PTR [eax+ecx], xmm0

; 48   : 	matrix[1][2] = (sp * crsy - srcy);

	movss	xmm0, DWORD PTR _sp$[ebp]
	mulss	xmm0, DWORD PTR _crsy$[ebp]
	subss	xmm0, DWORD PTR _srcy$[ebp]
	push	1
	mov	ecx, DWORD PTR _matrix$[ebp]
	movss	DWORD PTR tv272[ebp], xmm0
	call	??Amatrix3x4@@QAEPAMH@Z			; matrix3x4::operator[]
	mov	ecx, 4
	shl	ecx, 1
	movss	xmm0, DWORD PTR tv272[ebp]
	movss	DWORD PTR [eax+ecx], xmm0

; 49   : 	matrix[2][2] = cr * cp;

	movss	xmm0, DWORD PTR _cr$[ebp]
	mulss	xmm0, DWORD PTR _cp$[ebp]
	push	2
	mov	ecx, DWORD PTR _matrix$[ebp]
	movss	DWORD PTR tv274[ebp], xmm0
	call	??Amatrix3x4@@QAEPAMH@Z			; matrix3x4::operator[]
	mov	ecx, 4
	shl	ecx, 1
	movss	xmm0, DWORD PTR tv274[ebp]
	movss	DWORD PTR [eax+ecx], xmm0

; 50   : 
; 51   : 	matrix[0][3] = 0.0f;

	push	0
	mov	ecx, DWORD PTR _matrix$[ebp]
	call	??Amatrix3x4@@QAEPAMH@Z			; matrix3x4::operator[]
	mov	ecx, 4
	imul	edx, ecx, 3
	xorps	xmm0, xmm0
	movss	DWORD PTR [eax+edx], xmm0

; 52   : 	matrix[1][3] = 0.0f;

	push	1
	mov	ecx, DWORD PTR _matrix$[ebp]
	call	??Amatrix3x4@@QAEPAMH@Z			; matrix3x4::operator[]
	mov	ecx, 4
	imul	edx, ecx, 3
	xorps	xmm0, xmm0
	movss	DWORD PTR [eax+edx], xmm0

; 53   : 	matrix[2][3] = 0.0f;

	push	2
	mov	ecx, DWORD PTR _matrix$[ebp]
	call	??Amatrix3x4@@QAEPAMH@Z			; matrix3x4::operator[]
	mov	ecx, 4
	imul	edx, ecx, 3
	xorps	xmm0, xmm0
	movss	DWORD PTR [eax+edx], xmm0

; 54   : }

	pop	edi
	pop	esi
	pop	ebx
	mov	esp, ebp
	pop	ebp
	ret	0
?AngleMatrix@@YAXABVVector@@AAVmatrix3x4@@@Z ENDP	; AngleMatrix
_TEXT	ENDS
; Function compile flags: /Odtp /ZI
; File d:\!diffusion 2020\source code 2022\client-server\client\render\r_postprocess.cpp
;	COMDAT ?WaterDrops@@YAXXZ
_TEXT	SEGMENT
tv91 = -76						; size = 4
tv90 = -72						; size = 4
tv71 = -72						; size = 4
_Override$ = -1						; size = 1
?WaterDrops@@YAXXZ PROC					; WaterDrops, COMDAT

; 1096 : {

	push	ebp
	mov	ebp, esp
	sub	esp, 76					; 0000004cH
	push	ebx
	push	esi
	push	edi

; 1097 : 	// player is in car
; 1098 : 	if( gEngfuncs.GetLocalPlayer()->curstate.vuser1.y > 0.0f )

	call	DWORD PTR ?gEngfuncs@@3Ucl_enginefuncs_s@@A+204
	movss	xmm0, DWORD PTR [eax+984]
	comiss	xmm0, DWORD PTR __real@00000000
	jbe	SHORT $LN2@WaterDrops

; 1099 : 		gHUD.ScreenDrips_Visible = false;

	mov	BYTE PTR ?gHUD@@3VCHud@@A+160, 0
$LN2@WaterDrops:

; 1100 : 
; 1101 : 	bool Override = (gHUD.ScreenDrips_OverrideTime > tr.time);

	cvtss2sd xmm0, DWORD PTR ?gHUD@@3VCHud@@A+168
	comisd	xmm0, QWORD PTR ?tr@@3Uref_globals_t@@A+8
	jbe	SHORT $LN12@WaterDrops
	mov	DWORD PTR tv71[ebp], 1
	jmp	SHORT $LN13@WaterDrops
$LN12@WaterDrops:
	mov	DWORD PTR tv71[ebp], 0
$LN13@WaterDrops:
	mov	al, BYTE PTR tv71[ebp]
	mov	BYTE PTR _Override$[ebp], al

; 1102 : 
; 1103 : 	// do not allow water drips if we look too much down
; 1104 : 	if( !Override && tr.viewparams.viewangles.x > 30 )

	movzx	eax, BYTE PTR _Override$[ebp]
	test	eax, eax
	jne	SHORT $LN3@WaterDrops
	movss	xmm0, DWORD PTR ?tr@@3Uref_globals_t@@A+5830668
	comiss	xmm0, DWORD PTR __real@41f00000
	jbe	SHORT $LN3@WaterDrops

; 1105 : 		gHUD.ScreenDrips_Visible = false;

	mov	BYTE PTR ?gHUD@@3VCHud@@A+160, 0
$LN3@WaterDrops:

; 1106 : 
; 1107 : 	// https://www.youtube.com/watch?v=Bu8bH2P37kY
; 1108 : 	if( tr.viewparams.waterlevel > 2 )

	cmp	DWORD PTR ?tr@@3Uref_globals_t@@A+5830740, 2
	jle	SHORT $LN4@WaterDrops

; 1109 : 	{
; 1110 : 		gHUD.ScreenDrips_CurVisibility = 0.0f;

	xorps	xmm0, xmm0
	movss	DWORD PTR ?gHUD@@3VCHud@@A+156, xmm0

; 1111 : 		return;

	jmp	$LN1@WaterDrops
$LN4@WaterDrops:

; 1112 : 	}
; 1113 : 	
; 1114 : 	if( gHUD.ScreenDrips_Visible )

	movzx	eax, BYTE PTR ?gHUD@@3VCHud@@A+160
	test	eax, eax
	je	SHORT $LN5@WaterDrops

; 1115 : 	{
; 1116 : 		if( gHUD.ScreenDrips_CurVisibility < 1.0f )

	movss	xmm0, DWORD PTR __real@3f800000
	comiss	xmm0, DWORD PTR ?gHUD@@3VCHud@@A+156
	jbe	SHORT $LN7@WaterDrops

; 1117 : 			gHUD.ScreenDrips_CurVisibility += 0.25 * g_fFrametime;

	cvtss2sd xmm0, DWORD PTR ?g_fFrametime@@3MA
	mulsd	xmm0, QWORD PTR __real@3fd0000000000000
	cvtss2sd xmm1, DWORD PTR ?gHUD@@3VCHud@@A+156
	addsd	xmm1, xmm0
	cvtsd2ss xmm0, xmm1
	movss	DWORD PTR ?gHUD@@3VCHud@@A+156, xmm0
$LN7@WaterDrops:

; 1118 : 	}
; 1119 : 	else

	jmp	SHORT $LN8@WaterDrops
$LN5@WaterDrops:

; 1120 : 	{
; 1121 : 		if( gHUD.ScreenDrips_CurVisibility > 0.0f )

	movss	xmm0, DWORD PTR ?gHUD@@3VCHud@@A+156
	comiss	xmm0, DWORD PTR __real@00000000
	jbe	SHORT $LN8@WaterDrops

; 1122 : 			gHUD.ScreenDrips_CurVisibility -= 0.75f * g_fFrametime; // fade out fast

	movss	xmm0, DWORD PTR __real@3f400000
	mulss	xmm0, DWORD PTR ?g_fFrametime@@3MA
	movss	xmm1, DWORD PTR ?gHUD@@3VCHud@@A+156
	subss	xmm1, xmm0
	movss	DWORD PTR ?gHUD@@3VCHud@@A+156, xmm1
$LN8@WaterDrops:

; 1123 : 	}
; 1124 : 
; 1125 : 	gHUD.ScreenDrips_CurVisibility = bound( 0, gHUD.ScreenDrips_CurVisibility, 1 );

	movss	xmm0, DWORD PTR ?gHUD@@3VCHud@@A+156
	comiss	xmm0, DWORD PTR __real@00000000
	jb	SHORT $LN16@WaterDrops
	movss	xmm0, DWORD PTR __real@3f800000
	comiss	xmm0, DWORD PTR ?gHUD@@3VCHud@@A+156
	jbe	SHORT $LN14@WaterDrops
	movss	xmm0, DWORD PTR ?gHUD@@3VCHud@@A+156
	movss	DWORD PTR tv90[ebp], xmm0
	jmp	SHORT $LN15@WaterDrops
$LN14@WaterDrops:
	movss	xmm0, DWORD PTR __real@3f800000
	movss	DWORD PTR tv90[ebp], xmm0
$LN15@WaterDrops:
	movss	xmm0, DWORD PTR tv90[ebp]
	movss	DWORD PTR tv91[ebp], xmm0
	jmp	SHORT $LN17@WaterDrops
$LN16@WaterDrops:
	xorps	xmm0, xmm0
	movss	DWORD PTR tv91[ebp], xmm0
$LN17@WaterDrops:
	movss	xmm0, DWORD PTR tv91[ebp]
	movss	DWORD PTR ?gHUD@@3VCHud@@A+156, xmm0

; 1126 : 
; 1127 : 	if( gHUD.ScreenDrips_CurVisibility <= 0.0f )

	xorps	xmm0, xmm0
	comiss	xmm0, DWORD PTR ?gHUD@@3VCHud@@A+156
	jb	SHORT $LN9@WaterDrops

; 1128 : 		return;

	jmp	$LN1@WaterDrops
$LN9@WaterDrops:

; 1129 : 
; 1130 : 	// capture screen
; 1131 : 	GL_Bind( GL_TEXTURE0, tr.screen_color );

	mov	eax, DWORD PTR ?tr@@3Uref_globals_t@@A+5732
	push	eax
	push	0
	call	DWORD PTR ?gRenderfuncs@@3Urender_api_s@@A+132
	add	esp, 8

; 1132 : 	pglCopyTexSubImage2D( GL_TEXTURE_2D, 0, 0, 0, 0, 0, glState.width, glState.height );

	mov	eax, DWORD PTR ?glState@@3UglState_t@@A+4
	push	eax
	mov	ecx, DWORD PTR ?glState@@3UglState_t@@A
	push	ecx
	push	0
	push	0
	push	0
	push	0
	push	0
	push	3553					; 00000de1H
	call	DWORD PTR ?pglCopyTexSubImage2D@@3P6GXIHHHHHHH@ZA ; pglCopyTexSubImage2D

; 1133 : 
; 1134 : 	pglViewport( 0, 0, glState.width, glState.height );

	mov	eax, DWORD PTR ?glState@@3UglState_t@@A+4
	push	eax
	mov	ecx, DWORD PTR ?glState@@3UglState_t@@A
	push	ecx
	push	0
	push	0
	call	DWORD PTR ?pglViewport@@3P6GXHHHH@ZA	; pglViewport

; 1135 : 
; 1136 : 	GL_BindShader( glsl.WaterDrops );

	mov	eax, DWORD PTR ?glsl@@3Uref_shaders_t@@A+100
	push	eax
	call	?GL_BindShader@@YAXPAUglsl_prog_s@@@Z	; GL_BindShader
	add	esp, 4

; 1137 : 	ASSERT( RI->currentshader != NULL );

	mov	eax, DWORD PTR ?RI@@3PAUref_instance_t@@A ; RI
	cmp	DWORD PTR [eax+28], 0
	jne	SHORT $LN10@WaterDrops
	mov	eax, DWORD PTR ?__LINE__Var@?0??WaterDrops@@YAXXZ@4JA
	add	eax, 41					; 00000029H
	push	eax
	push	OFFSET ??_C@_0FC@EOCCPBDF@d?3?2?$CBdiffusion?52020?2source?5code?52@
	push	OFFSET ??_C@_0BI@FECCGOFJ@assert?5failed?5at?5?$CFs?3?$CFi?6?$AA@
	call	DWORD PTR ?gRenderfuncs@@3Urender_api_s@@A+236
	add	esp, 12					; 0000000cH
$LN10@WaterDrops:

; 1138 : 
; 1139 : 	pglUniform1fARB( RI->currentshader->u_RealTime, tr.time );

	cvtsd2ss xmm0, QWORD PTR ?tr@@3Uref_globals_t@@A+8
	push	ecx
	movss	DWORD PTR [esp], xmm0
	mov	eax, DWORD PTR ?RI@@3PAUref_instance_t@@A ; RI
	mov	ecx, DWORD PTR [eax+28]
	mov	edx, DWORD PTR [ecx+868]
	push	edx
	call	DWORD PTR ?pglUniform1fARB@@3P6GXHM@ZA	; pglUniform1fARB

; 1140 : 	pglUniform2fARB( RI->currentshader->u_ScreenSizeInv, (float)(glState.width), (float)(glState.height) );

	cvtsi2ss xmm0, DWORD PTR ?glState@@3UglState_t@@A+4
	push	ecx
	movss	DWORD PTR [esp], xmm0
	cvtsi2ss xmm0, DWORD PTR ?glState@@3UglState_t@@A
	push	ecx
	movss	DWORD PTR [esp], xmm0
	mov	eax, DWORD PTR ?RI@@3PAUref_instance_t@@A ; RI
	mov	ecx, DWORD PTR [eax+28]
	mov	edx, DWORD PTR [ecx+724]
	push	edx
	call	DWORD PTR ?pglUniform2fARB@@3P6GXHMM@ZA	; pglUniform2fARB

; 1141 : 	pglUniform1fARB( RI->currentshader->u_Accum, gHUD.ScreenDrips_CurVisibility );

	push	ecx
	movss	xmm0, DWORD PTR ?gHUD@@3VCHud@@A+156
	movss	DWORD PTR [esp], xmm0
	mov	eax, DWORD PTR ?RI@@3PAUref_instance_t@@A ; RI
	mov	ecx, DWORD PTR [eax+28]
	mov	edx, DWORD PTR [ecx+932]
	push	edx
	call	DWORD PTR ?pglUniform1fARB@@3P6GXHM@ZA	; pglUniform1fARB

; 1142 : 	pglUniform1fARB( RI->currentshader->u_LerpFactor, gHUD.ScreenDrips_DripIntensity );

	push	ecx
	movss	xmm0, DWORD PTR ?gHUD@@3VCHud@@A+164
	movss	DWORD PTR [esp], xmm0
	mov	eax, DWORD PTR ?RI@@3PAUref_instance_t@@A ; RI
	mov	ecx, DWORD PTR [eax+28]
	mov	edx, DWORD PTR [ecx+812]
	push	edx
	call	DWORD PTR ?pglUniform1fARB@@3P6GXHM@ZA	; pglUniform1fARB

; 1143 : 
; 1144 : 	GL_Bind( GL_TEXTURE0, tr.screen_color );

	mov	eax, DWORD PTR ?tr@@3Uref_globals_t@@A+5732
	push	eax
	push	0
	call	DWORD PTR ?gRenderfuncs@@3Urender_api_s@@A+132
	add	esp, 8

; 1145 : 
; 1146 : 	RenderFSQ( glState.width, glState.height );

	mov	eax, DWORD PTR ?glState@@3UglState_t@@A+4
	push	eax
	mov	ecx, DWORD PTR ?glState@@3UglState_t@@A
	push	ecx
	call	?RenderFSQ@@YAXHH@Z			; RenderFSQ
	add	esp, 8

; 1147 : 
; 1148 : 	GL_BindShader( NULL );

	push	0
	call	?GL_BindShader@@YAXPAUglsl_prog_s@@@Z	; GL_BindShader
	add	esp, 4

; 1149 : 	GL_CleanUpTextureUnits( 0 );

	push	0
	call	DWORD PTR ?gRenderfuncs@@3Urender_api_s@@A+148
	add	esp, 4

; 1150 : 
; 1151 : 	r_stats.sh_waterdrops_pass++;

	mov	eax, DWORD PTR ?r_stats@@3Uref_stats_t@@A+132
	add	eax, 1
	mov	DWORD PTR ?r_stats@@3Uref_stats_t@@A+132, eax
$LN1@WaterDrops:

; 1152 : }

	pop	edi
	pop	esi
	pop	ebx
	mov	esp, ebp
	pop	ebp
	ret	0
?WaterDrops@@YAXXZ ENDP					; WaterDrops
_TEXT	ENDS
; Function compile flags: /Odtp /ZI
; File d:\!diffusion 2020\source code 2022\client-server\client\render\r_postprocess.cpp
;	COMDAT ?Enhance@@YAXXZ
_TEXT	SEGMENT
_Sharpen$ = -2						; size = 1
_Saturate$ = -1						; size = 1
?Enhance@@YAXXZ PROC					; Enhance, COMDAT

; 1068 : {

	push	ebp
	mov	ebp, esp
	sub	esp, 68					; 00000044H
	push	ebx
	push	esi
	push	edi

; 1069 : 	// I wanted to make cvars but decided to leave it as is
; 1070 : 	bool Saturate = true;

	mov	BYTE PTR _Saturate$[ebp], 1

; 1071 : 	bool Sharpen = true;

	mov	BYTE PTR _Sharpen$[ebp], 1

; 1072 : 
; 1073 : 	if( !Saturate && !Sharpen )

	movzx	eax, BYTE PTR _Saturate$[ebp]
	test	eax, eax
	jne	SHORT $LN2@Enhance
	movzx	eax, BYTE PTR _Sharpen$[ebp]
	test	eax, eax
	jne	SHORT $LN2@Enhance

; 1074 : 		return;

	jmp	$LN1@Enhance
$LN2@Enhance:

; 1075 : 
; 1076 : 	// capture screen
; 1077 : 	GL_Bind( GL_TEXTURE0, tr.screen_color );

	mov	eax, DWORD PTR ?tr@@3Uref_globals_t@@A+5732
	push	eax
	push	0
	call	DWORD PTR ?gRenderfuncs@@3Urender_api_s@@A+132
	add	esp, 8

; 1078 : 	pglCopyTexSubImage2D( GL_TEXTURE_2D, 0, 0, 0, 0, 0, glState.width, glState.height );

	mov	eax, DWORD PTR ?glState@@3UglState_t@@A+4
	push	eax
	mov	ecx, DWORD PTR ?glState@@3UglState_t@@A
	push	ecx
	push	0
	push	0
	push	0
	push	0
	push	0
	push	3553					; 00000de1H
	call	DWORD PTR ?pglCopyTexSubImage2D@@3P6GXIHHHHHHH@ZA ; pglCopyTexSubImage2D

; 1079 : 
; 1080 : 	pglViewport( 0, 0, glState.width, glState.height );

	mov	eax, DWORD PTR ?glState@@3UglState_t@@A+4
	push	eax
	mov	ecx, DWORD PTR ?glState@@3UglState_t@@A
	push	ecx
	push	0
	push	0
	call	DWORD PTR ?pglViewport@@3P6GXHHHH@ZA	; pglViewport

; 1081 : 
; 1082 : 	GL_BindShader( glsl.Enhance );

	mov	eax, DWORD PTR ?glsl@@3Uref_shaders_t@@A+96
	push	eax
	call	?GL_BindShader@@YAXPAUglsl_prog_s@@@Z	; GL_BindShader
	add	esp, 4

; 1083 : 	ASSERT( RI->currentshader != NULL );

	mov	eax, DWORD PTR ?RI@@3PAUref_instance_t@@A ; RI
	cmp	DWORD PTR [eax+28], 0
	jne	SHORT $LN3@Enhance
	mov	eax, DWORD PTR ?__LINE__Var@?0??Enhance@@YAXXZ@4JA
	add	eax, 15					; 0000000fH
	push	eax
	push	OFFSET ??_C@_0FC@EOCCPBDF@d?3?2?$CBdiffusion?52020?2source?5code?52@
	push	OFFSET ??_C@_0BI@FECCGOFJ@assert?5failed?5at?5?$CFs?3?$CFi?6?$AA@
	call	DWORD PTR ?gRenderfuncs@@3Urender_api_s@@A+236
	add	esp, 12					; 0000000cH
$LN3@Enhance:

; 1084 : 
; 1085 : 	pglUniform2fARB( RI->currentshader->u_ScreenSizeInv, 1.0f / (float)(glState.width), 1.0f / (float)(glState.height) );

	cvtsi2ss xmm0, DWORD PTR ?glState@@3UglState_t@@A+4
	movss	xmm1, DWORD PTR __real@3f800000
	divss	xmm1, xmm0
	push	ecx
	movss	DWORD PTR [esp], xmm1
	cvtsi2ss xmm0, DWORD PTR ?glState@@3UglState_t@@A
	movss	xmm1, DWORD PTR __real@3f800000
	divss	xmm1, xmm0
	push	ecx
	movss	DWORD PTR [esp], xmm1
	mov	eax, DWORD PTR ?RI@@3PAUref_instance_t@@A ; RI
	mov	ecx, DWORD PTR [eax+28]
	mov	edx, DWORD PTR [ecx+724]
	push	edx
	call	DWORD PTR ?pglUniform2fARB@@3P6GXHMM@ZA	; pglUniform2fARB

; 1086 : 	pglUniform1fARB( RI->currentshader->u_GenericCondition, (float)Saturate );

	movzx	eax, BYTE PTR _Saturate$[ebp]
	cvtsi2ss xmm0, eax
	push	ecx
	movss	DWORD PTR [esp], xmm0
	mov	ecx, DWORD PTR ?RI@@3PAUref_instance_t@@A ; RI
	mov	edx, DWORD PTR [ecx+28]
	mov	eax, DWORD PTR [edx+704]
	push	eax
	call	DWORD PTR ?pglUniform1fARB@@3P6GXHM@ZA	; pglUniform1fARB

; 1087 : 	pglUniform1fARB( RI->currentshader->u_GenericCondition2, (float)Sharpen );

	movzx	eax, BYTE PTR _Sharpen$[ebp]
	cvtsi2ss xmm0, eax
	push	ecx
	movss	DWORD PTR [esp], xmm0
	mov	ecx, DWORD PTR ?RI@@3PAUref_instance_t@@A ; RI
	mov	edx, DWORD PTR [ecx+28]
	mov	eax, DWORD PTR [edx+708]
	push	eax
	call	DWORD PTR ?pglUniform1fARB@@3P6GXHM@ZA	; pglUniform1fARB

; 1088 : 
; 1089 : 	RenderFSQ( glState.width, glState.height );

	mov	eax, DWORD PTR ?glState@@3UglState_t@@A+4
	push	eax
	mov	ecx, DWORD PTR ?glState@@3UglState_t@@A
	push	ecx
	call	?RenderFSQ@@YAXHH@Z			; RenderFSQ
	add	esp, 8

; 1090 : 
; 1091 : 	GL_BindShader( NULL );

	push	0
	call	?GL_BindShader@@YAXPAUglsl_prog_s@@@Z	; GL_BindShader
	add	esp, 4

; 1092 : 	GL_CleanUpTextureUnits( 0 );

	push	0
	call	DWORD PTR ?gRenderfuncs@@3Urender_api_s@@A+148
	add	esp, 4
$LN1@Enhance:

; 1093 : }

	pop	edi
	pop	esi
	pop	ebx
	mov	esp, ebp
	pop	ebp
	ret	0
?Enhance@@YAXXZ ENDP					; Enhance
_TEXT	ENDS
; Function compile flags: /Odtp /ZI
; File d:\!diffusion 2020\source code 2022\client-server\client\render\r_postprocess.cpp
;	COMDAT ?Bloom@@YAXXZ
_TEXT	SEGMENT
tv152 = -80						; size = 4
tv67 = -77						; size = 1
_i$1 = -12						; size = 4
_h$ = -8						; size = 4
_w$ = -4						; size = 4
?Bloom@@YAXXZ PROC					; Bloom, COMDAT

; 905  : {

	push	ebp
	mov	ebp, esp
	sub	esp, 80					; 00000050H
	push	ebx
	push	esi
	push	edi

; 906  : 	if( !CVAR_TO_BOOL( r_bloom ) )

	cmp	DWORD PTR ?r_bloom@@3PAUcvar_s@@A, 0	; r_bloom
	je	SHORT $LN10@Bloom
	mov	eax, DWORD PTR ?r_bloom@@3PAUcvar_s@@A	; r_bloom
	movss	xmm0, DWORD PTR [eax+12]
	ucomiss	xmm0, DWORD PTR __real@00000000
	lahf
	test	ah, 68					; 00000044H
	jnp	SHORT $LN10@Bloom
	mov	BYTE PTR tv67[ebp], 1
	jmp	SHORT $LN11@Bloom
$LN10@Bloom:
	mov	BYTE PTR tv67[ebp], 0
$LN11@Bloom:
	movzx	ecx, BYTE PTR tv67[ebp]
	test	ecx, ecx
	jne	SHORT $LN5@Bloom

; 907  : 		return;

	jmp	$LN1@Bloom
$LN5@Bloom:

; 908  : 
; 909  : 	if( FBitSet( RI->params, RP_ENVVIEW ) ) // no bloom in cubemaps

	mov	eax, DWORD PTR ?RI@@3PAUref_instance_t@@A ; RI
	mov	ecx, DWORD PTR [eax]
	and	ecx, 2
	je	SHORT $LN6@Bloom

; 910  : 		return;

	jmp	$LN1@Bloom
$LN6@Bloom:

; 911  : 
; 912  : 	GL_Bind( GL_TEXTURE0, tr.screen_fbo_texture_color );

	mov	eax, DWORD PTR ?tr@@3Uref_globals_t@@A+5885404
	push	eax
	push	0
	call	DWORD PTR ?gRenderfuncs@@3Urender_api_s@@A+132
	add	esp, 8

; 913  : 	pglCopyTexSubImage2D( GL_TEXTURE_2D, 0, 0, 0, 0, 0, glState.width, glState.height );

	mov	eax, DWORD PTR ?glState@@3UglState_t@@A+4
	push	eax
	mov	ecx, DWORD PTR ?glState@@3UglState_t@@A
	push	ecx
	push	0
	push	0
	push	0
	push	0
	push	0
	push	3553					; 00000de1H
	call	DWORD PTR ?pglCopyTexSubImage2D@@3P6GXIHHHHHHH@ZA ; pglCopyTexSubImage2D

; 914  : 
; 915  : 	GL_BindShader( glsl.BlurMip );

	mov	eax, DWORD PTR ?glsl@@3Uref_shaders_t@@A+72
	push	eax
	call	?GL_BindShader@@YAXPAUglsl_prog_s@@@Z	; GL_BindShader
	add	esp, 4

; 916  : 	ASSERT( RI->currentshader != NULL );

	mov	eax, DWORD PTR ?RI@@3PAUref_instance_t@@A ; RI
	cmp	DWORD PTR [eax+28], 0
	jne	SHORT $LN7@Bloom
	mov	eax, DWORD PTR ?__LINE__Var@?0??Bloom@@YAXXZ@4JA
	add	eax, 11					; 0000000bH
	push	eax
	push	OFFSET ??_C@_0FC@EOCCPBDF@d?3?2?$CBdiffusion?52020?2source?5code?52@
	push	OFFSET ??_C@_0BI@FECCGOFJ@assert?5failed?5at?5?$CFs?3?$CFi?6?$AA@
	call	DWORD PTR ?gRenderfuncs@@3Urender_api_s@@A+236
	add	esp, 12					; 0000000cH
$LN7@Bloom:

; 917  : 
; 918  : 	int w = glState.width;

	mov	eax, DWORD PTR ?glState@@3UglState_t@@A
	mov	DWORD PTR _w$[ebp], eax

; 919  : 	int h = glState.height;

	mov	eax, DWORD PTR ?glState@@3UglState_t@@A+4
	mov	DWORD PTR _h$[ebp], eax

; 920  : 
; 921  : 	// render and blur mips
; 922  : 	for( int i = 0; i < 6; i++ )

	mov	DWORD PTR _i$1[ebp], 0
	jmp	SHORT $LN4@Bloom
$LN2@Bloom:
	mov	eax, DWORD PTR _i$1[ebp]
	add	eax, 1
	mov	DWORD PTR _i$1[ebp], eax
$LN4@Bloom:
	cmp	DWORD PTR _i$1[ebp], 6
	jge	$LN3@Bloom

; 923  : 	{
; 924  : 		w /= 2;

	mov	eax, DWORD PTR _w$[ebp]
	cdq
	sub	eax, edx
	sar	eax, 1
	mov	DWORD PTR _w$[ebp], eax

; 925  : 		h /= 2;

	mov	eax, DWORD PTR _h$[ebp]
	cdq
	sub	eax, edx
	sar	eax, 1
	mov	DWORD PTR _h$[ebp], eax

; 926  : 
; 927  : 		pglViewport( 0, 0, w, h );

	mov	eax, DWORD PTR _h$[ebp]
	push	eax
	mov	ecx, DWORD PTR _w$[ebp]
	push	ecx
	push	0
	push	0
	call	DWORD PTR ?pglViewport@@3P6GXHHHH@ZA	; pglViewport

; 928  : 
; 929  : 		pglUniform2fARB( RI->currentshader->u_ScreenSizeInv, 1.0f / (float)w, 1.0f / (float)h );

	cvtsi2ss xmm0, DWORD PTR _h$[ebp]
	movss	xmm1, DWORD PTR __real@3f800000
	divss	xmm1, xmm0
	push	ecx
	movss	DWORD PTR [esp], xmm1
	cvtsi2ss xmm0, DWORD PTR _w$[ebp]
	movss	xmm1, DWORD PTR __real@3f800000
	divss	xmm1, xmm0
	push	ecx
	movss	DWORD PTR [esp], xmm1
	mov	eax, DWORD PTR ?RI@@3PAUref_instance_t@@A ; RI
	mov	ecx, DWORD PTR [eax+28]
	mov	edx, DWORD PTR [ecx+724]
	push	edx
	call	DWORD PTR ?pglUniform2fARB@@3P6GXHMM@ZA	; pglUniform2fARB

; 930  : 		pglUniform1fARB( RI->currentshader->u_MipLod, (float)i );

	cvtsi2ss xmm0, DWORD PTR _i$1[ebp]
	push	ecx
	movss	DWORD PTR [esp], xmm0
	mov	eax, DWORD PTR ?RI@@3PAUref_instance_t@@A ; RI
	mov	ecx, DWORD PTR [eax+28]
	mov	edx, DWORD PTR [ecx+952]
	push	edx
	call	DWORD PTR ?pglUniform1fARB@@3P6GXHM@ZA	; pglUniform1fARB

; 931  : 		pglUniform4fARB( RI->currentshader->u_TexCoordClamp, 0.0f, 0.0f, 1.0f, 1.0f );

	push	ecx
	movss	xmm0, DWORD PTR __real@3f800000
	movss	DWORD PTR [esp], xmm0
	push	ecx
	movss	xmm0, DWORD PTR __real@3f800000
	movss	DWORD PTR [esp], xmm0
	push	ecx
	xorps	xmm0, xmm0
	movss	DWORD PTR [esp], xmm0
	push	ecx
	xorps	xmm0, xmm0
	movss	DWORD PTR [esp], xmm0
	mov	eax, DWORD PTR ?RI@@3PAUref_instance_t@@A ; RI
	mov	ecx, DWORD PTR [eax+28]
	mov	edx, DWORD PTR [ecx+956]
	push	edx
	call	DWORD PTR ?pglUniform4fARB@@3P6GXHMMMM@ZA ; pglUniform4fARB

; 932  : 		pglUniform1fARB( RI->currentshader->u_BloomFirstPass, (i < 1) ? 1 : 0 );

	cmp	DWORD PTR _i$1[ebp], 1
	jge	SHORT $LN12@Bloom
	mov	DWORD PTR tv152[ebp], 1
	jmp	SHORT $LN13@Bloom
$LN12@Bloom:
	mov	DWORD PTR tv152[ebp], 0
$LN13@Bloom:
	cvtsi2ss xmm0, DWORD PTR tv152[ebp]
	push	ecx
	movss	DWORD PTR [esp], xmm0
	mov	eax, DWORD PTR ?RI@@3PAUref_instance_t@@A ; RI
	mov	ecx, DWORD PTR [eax+28]
	mov	edx, DWORD PTR [ecx+964]
	push	edx
	call	DWORD PTR ?pglUniform1fARB@@3P6GXHM@ZA	; pglUniform1fARB

; 933  : 
; 934  : 		pglBindFramebuffer( GL_FRAMEBUFFER_EXT, tr.screen_fbo_mip[i] );

	mov	eax, DWORD PTR _i$1[ebp]
	mov	ecx, DWORD PTR ?tr@@3Uref_globals_t@@A[eax*4+5885380]
	push	ecx
	push	36160					; 00008d40H
	call	DWORD PTR ?pglBindFramebuffer@@3P6GXII@ZA ; pglBindFramebuffer

; 935  : 		RenderFSQ( glState.width, glState.height );

	mov	eax, DWORD PTR ?glState@@3UglState_t@@A+4
	push	eax
	mov	ecx, DWORD PTR ?glState@@3UglState_t@@A
	push	ecx
	call	?RenderFSQ@@YAXHH@Z			; RenderFSQ
	add	esp, 8

; 936  : 	}

	jmp	$LN2@Bloom
$LN3@Bloom:

; 937  : 
; 938  : 	w = glState.width / 2;

	mov	eax, DWORD PTR ?glState@@3UglState_t@@A
	cdq
	sub	eax, edx
	sar	eax, 1
	mov	DWORD PTR _w$[ebp], eax

; 939  : 	h = glState.height / 2;

	mov	eax, DWORD PTR ?glState@@3UglState_t@@A+4
	cdq
	sub	eax, edx
	sar	eax, 1
	mov	DWORD PTR _h$[ebp], eax

; 940  : 
; 941  : 	pglViewport( 0, 0, w, h );

	mov	eax, DWORD PTR _h$[ebp]
	push	eax
	mov	ecx, DWORD PTR _w$[ebp]
	push	ecx
	push	0
	push	0
	call	DWORD PTR ?pglViewport@@3P6GXHHHH@ZA	; pglViewport

; 942  : 	pglBindFramebuffer( GL_FRAMEBUFFER_EXT, tr.screen_fbo_mip[0] );

	mov	eax, 4
	imul	ecx, eax, 0
	mov	edx, DWORD PTR ?tr@@3Uref_globals_t@@A[ecx+5885380]
	push	edx
	push	36160					; 00008d40H
	call	DWORD PTR ?pglBindFramebuffer@@3P6GXII@ZA ; pglBindFramebuffer

; 943  : 
; 944  : 	GL_BindShader( glsl.Bloom );

	mov	eax, DWORD PTR ?glsl@@3Uref_shaders_t@@A+76
	push	eax
	call	?GL_BindShader@@YAXPAUglsl_prog_s@@@Z	; GL_BindShader
	add	esp, 4

; 945  : 	ASSERT( RI->currentshader != NULL );

	mov	eax, DWORD PTR ?RI@@3PAUref_instance_t@@A ; RI
	cmp	DWORD PTR [eax+28], 0
	jne	SHORT $LN8@Bloom
	mov	eax, DWORD PTR ?__LINE__Var@?0??Bloom@@YAXXZ@4JA
	add	eax, 40					; 00000028H
	push	eax
	push	OFFSET ??_C@_0FC@EOCCPBDF@d?3?2?$CBdiffusion?52020?2source?5code?52@
	push	OFFSET ??_C@_0BI@FECCGOFJ@assert?5failed?5at?5?$CFs?3?$CFi?6?$AA@
	call	DWORD PTR ?gRenderfuncs@@3Urender_api_s@@A+236
	add	esp, 12					; 0000000cH
$LN8@Bloom:

; 946  : 
; 947  : 	pglUniform2fARB( RI->currentshader->u_ScreenSizeInv, (float)w, (float)h );

	cvtsi2ss xmm0, DWORD PTR _h$[ebp]
	push	ecx
	movss	DWORD PTR [esp], xmm0
	cvtsi2ss xmm0, DWORD PTR _w$[ebp]
	push	ecx
	movss	DWORD PTR [esp], xmm0
	mov	eax, DWORD PTR ?RI@@3PAUref_instance_t@@A ; RI
	mov	ecx, DWORD PTR [eax+28]
	mov	edx, DWORD PTR [ecx+724]
	push	edx
	call	DWORD PTR ?pglUniform2fARB@@3P6GXHMM@ZA	; pglUniform2fARB

; 948  : 	RenderFSQ( glState.width, glState.height );

	mov	eax, DWORD PTR ?glState@@3UglState_t@@A+4
	push	eax
	mov	ecx, DWORD PTR ?glState@@3UglState_t@@A
	push	ecx
	call	?RenderFSQ@@YAXHH@Z			; RenderFSQ
	add	esp, 8

; 949  : 
; 950  : 	// blend screen image & first mip together
; 951  : 	pglViewport( 0, 0, glState.width, glState.height );

	mov	eax, DWORD PTR ?glState@@3UglState_t@@A+4
	push	eax
	mov	ecx, DWORD PTR ?glState@@3UglState_t@@A
	push	ecx
	push	0
	push	0
	call	DWORD PTR ?pglViewport@@3P6GXHHHH@ZA	; pglViewport

; 952  : 	pglBindFramebuffer( GL_FRAMEBUFFER_EXT, 0 );

	push	0
	push	36160					; 00008d40H
	call	DWORD PTR ?pglBindFramebuffer@@3P6GXII@ZA ; pglBindFramebuffer

; 953  : 	GL_BindShader( NULL );

	push	0
	call	?GL_BindShader@@YAXPAUglsl_prog_s@@@Z	; GL_BindShader
	add	esp, 4

; 954  : 	GL_Blend( GL_TRUE );

	push	1
	call	?GL_Blend@@YAXH@Z			; GL_Blend
	add	esp, 4

; 955  : 	pglBlendFunc( GL_ONE, GL_ONE );

	push	1
	push	1
	call	DWORD PTR ?pglBlendFunc@@3P6GXII@ZA	; pglBlendFunc

; 956  : 	pglTexParameterf( GL_TEXTURE_2D, GL_TEXTURE_MIN_LOD, 1.0 );

	push	ecx
	movss	xmm0, DWORD PTR __real@3f800000
	movss	DWORD PTR [esp], xmm0
	push	33082					; 0000813aH
	push	3553					; 00000de1H
	call	DWORD PTR ?pglTexParameterf@@3P6GXIIM@ZA ; pglTexParameterf

; 957  : 	RenderFSQ( glState.width, glState.height );

	mov	eax, DWORD PTR ?glState@@3UglState_t@@A+4
	push	eax
	mov	ecx, DWORD PTR ?glState@@3UglState_t@@A
	push	ecx
	call	?RenderFSQ@@YAXHH@Z			; RenderFSQ
	add	esp, 8

; 958  : 	pglTexParameterf( GL_TEXTURE_2D, GL_TEXTURE_MIN_LOD, 0.0 );

	push	ecx
	xorps	xmm0, xmm0
	movss	DWORD PTR [esp], xmm0
	push	33082					; 0000813aH
	push	3553					; 00000de1H
	call	DWORD PTR ?pglTexParameterf@@3P6GXIIM@ZA ; pglTexParameterf

; 959  : 	GL_Blend( GL_FALSE );

	push	0
	call	?GL_Blend@@YAXH@Z			; GL_Blend
	add	esp, 4

; 960  : 	GL_CleanUpTextureUnits( 0 );

	push	0
	call	DWORD PTR ?gRenderfuncs@@3Urender_api_s@@A+148
	add	esp, 4

; 961  : 	GL_BindShader( NULL );

	push	0
	call	?GL_BindShader@@YAXPAUglsl_prog_s@@@Z	; GL_BindShader
	add	esp, 4
$LN1@Bloom:

; 962  : }

	pop	edi
	pop	esi
	pop	ebx
	mov	esp, ebp
	pop	ebp
	ret	0
?Bloom@@YAXXZ ENDP					; Bloom
_TEXT	ENDS
; Function compile flags: /Odtp /ZI
; File d:\!diffusion 2020\source code 2022\client-server\client\render\r_postprocess.cpp
;	COMDAT ?ToneMap@@YAXXZ
_TEXT	SEGMENT
tv301 = -96						; size = 8
tv157 = -88						; size = 4
tv155 = -88						; size = 4
tv73 = -88						; size = 4
tv67 = -85						; size = 1
_ExposureTexture$ = -20					; size = 4
_i$1 = -16						; size = 4
_mip_height$ = -12					; size = 4
_mip_width$ = -8					; size = 4
_mipmap_count$ = -4					; size = 4
?ToneMap@@YAXXZ PROC					; ToneMap, COMDAT

; 996  : {

	push	ebp
	mov	ebp, esp
	sub	esp, 96					; 00000060H
	push	ebx
	push	esi
	push	edi

; 997  : 	if( !CVAR_TO_BOOL( gl_exposure ) )

	cmp	DWORD PTR ?gl_exposure@@3PAUcvar_s@@A, 0 ; gl_exposure
	je	SHORT $LN10@ToneMap
	mov	eax, DWORD PTR ?gl_exposure@@3PAUcvar_s@@A ; gl_exposure
	movss	xmm0, DWORD PTR [eax+12]
	ucomiss	xmm0, DWORD PTR __real@00000000
	lahf
	test	ah, 68					; 00000044H
	jnp	SHORT $LN10@ToneMap
	mov	BYTE PTR tv67[ebp], 1
	jmp	SHORT $LN11@ToneMap
$LN10@ToneMap:
	mov	BYTE PTR tv67[ebp], 0
$LN11@ToneMap:
	movzx	ecx, BYTE PTR tv67[ebp]
	test	ecx, ecx
	jne	SHORT $LN5@ToneMap

; 998  : 		return;

	jmp	$LN1@ToneMap
$LN5@ToneMap:

; 999  : 
; 1000 : 	const int mipmap_count = 1 + floor( log2( Q_max( glState.width, glState.height ) ) );

	mov	eax, DWORD PTR ?glState@@3UglState_t@@A
	cmp	eax, DWORD PTR ?glState@@3UglState_t@@A+4
	jle	SHORT $LN12@ToneMap
	mov	ecx, DWORD PTR ?glState@@3UglState_t@@A
	mov	DWORD PTR tv73[ebp], ecx
	jmp	SHORT $LN13@ToneMap
$LN12@ToneMap:
	mov	edx, DWORD PTR ?glState@@3UglState_t@@A+4
	mov	DWORD PTR tv73[ebp], edx
$LN13@ToneMap:
	cvtsi2sd xmm0, DWORD PTR tv73[ebp]
	sub	esp, 8
	movsd	QWORD PTR [esp], xmm0
	call	_log2
	fstp	QWORD PTR [esp]
	call	_floor
	add	esp, 8
	fstp	QWORD PTR tv301[ebp]
	movsd	xmm0, QWORD PTR tv301[ebp]
	addsd	xmm0, QWORD PTR __real@3ff0000000000000
	cvttsd2si eax, xmm0
	mov	DWORD PTR _mipmap_count$[ebp], eax

; 1001 : 
; 1002 : 	// render luminance to first mip
; 1003 : 	GL_Bind( GL_TEXTURE0, tr.avg_luminance_texture );

	mov	eax, DWORD PTR ?tr@@3Uref_globals_t@@A+5885332
	push	eax
	push	0
	call	DWORD PTR ?gRenderfuncs@@3Urender_api_s@@A+132
	add	esp, 8

; 1004 : 	pglCopyTexSubImage2D( GL_TEXTURE_2D, 0, 0, 0, 0, 0, glState.width, glState.height );

	mov	eax, DWORD PTR ?glState@@3UglState_t@@A+4
	push	eax
	mov	ecx, DWORD PTR ?glState@@3UglState_t@@A
	push	ecx
	push	0
	push	0
	push	0
	push	0
	push	0
	push	3553					; 00000de1H
	call	DWORD PTR ?pglCopyTexSubImage2D@@3P6GXIHHHHHHH@ZA ; pglCopyTexSubImage2D

; 1005 : 
; 1006 : 	GL_BindShader( glsl.GenLuminance );

	mov	eax, DWORD PTR ?glsl@@3Uref_shaders_t@@A+84
	push	eax
	call	?GL_BindShader@@YAXPAUglsl_prog_s@@@Z	; GL_BindShader
	add	esp, 4

; 1007 : 	ASSERT( RI->currentshader != NULL );

	mov	eax, DWORD PTR ?RI@@3PAUref_instance_t@@A ; RI
	cmp	DWORD PTR [eax+28], 0
	jne	SHORT $LN6@ToneMap
	mov	eax, DWORD PTR ?__LINE__Var@?0??ToneMap@@YAXXZ@4JA
	add	eax, 11					; 0000000bH
	push	eax
	push	OFFSET ??_C@_0FC@EOCCPBDF@d?3?2?$CBdiffusion?52020?2source?5code?52@
	push	OFFSET ??_C@_0BI@FECCGOFJ@assert?5failed?5at?5?$CFs?3?$CFi?6?$AA@
	call	DWORD PTR ?gRenderfuncs@@3Urender_api_s@@A+236
	add	esp, 12					; 0000000cH
$LN6@ToneMap:

; 1008 : 
; 1009 : 	pglUniform2fARB( RI->currentshader->u_ScreenSizeInv, 1.0f / (float)(glState.width), 1.0f / (float)(glState.height) );

	cvtsi2ss xmm0, DWORD PTR ?glState@@3UglState_t@@A+4
	movss	xmm1, DWORD PTR __real@3f800000
	divss	xmm1, xmm0
	push	ecx
	movss	DWORD PTR [esp], xmm1
	cvtsi2ss xmm0, DWORD PTR ?glState@@3UglState_t@@A
	movss	xmm1, DWORD PTR __real@3f800000
	divss	xmm1, xmm0
	push	ecx
	movss	DWORD PTR [esp], xmm1
	mov	eax, DWORD PTR ?RI@@3PAUref_instance_t@@A ; RI
	mov	ecx, DWORD PTR [eax+28]
	mov	edx, DWORD PTR [ecx+724]
	push	edx
	call	DWORD PTR ?pglUniform2fARB@@3P6GXHMM@ZA	; pglUniform2fARB

; 1010 : 
; 1011 : 	pglBindFramebuffer( GL_FRAMEBUFFER_EXT, tr.avg_luminance_fbo_mip[0] );

	mov	eax, 4
	imul	ecx, eax, 0
	mov	edx, DWORD PTR ?tr@@3Uref_globals_t@@A[ecx+5885336]
	push	edx
	push	36160					; 00008d40H
	call	DWORD PTR ?pglBindFramebuffer@@3P6GXII@ZA ; pglBindFramebuffer

; 1012 : 	RenderFSQ( glState.width, glState.height );

	mov	eax, DWORD PTR ?glState@@3UglState_t@@A+4
	push	eax
	mov	ecx, DWORD PTR ?glState@@3UglState_t@@A
	push	ecx
	call	?RenderFSQ@@YAXHH@Z			; RenderFSQ
	add	esp, 8

; 1013 : 
; 1014 : 	// downscale luminance to other mips
; 1015 : 	GL_BindShader( glsl.BlurMip );

	mov	eax, DWORD PTR ?glsl@@3Uref_shaders_t@@A+72
	push	eax
	call	?GL_BindShader@@YAXPAUglsl_prog_s@@@Z	; GL_BindShader
	add	esp, 4

; 1016 : 	ASSERT( RI->currentshader != NULL );

	mov	eax, DWORD PTR ?RI@@3PAUref_instance_t@@A ; RI
	cmp	DWORD PTR [eax+28], 0
	jne	SHORT $LN7@ToneMap
	mov	eax, DWORD PTR ?__LINE__Var@?0??ToneMap@@YAXXZ@4JA
	add	eax, 20					; 00000014H
	push	eax
	push	OFFSET ??_C@_0FC@EOCCPBDF@d?3?2?$CBdiffusion?52020?2source?5code?52@
	push	OFFSET ??_C@_0BI@FECCGOFJ@assert?5failed?5at?5?$CFs?3?$CFi?6?$AA@
	call	DWORD PTR ?gRenderfuncs@@3Urender_api_s@@A+236
	add	esp, 12					; 0000000cH
$LN7@ToneMap:

; 1017 : 
; 1018 : 	int mip_width = glState.width;

	mov	eax, DWORD PTR ?glState@@3UglState_t@@A
	mov	DWORD PTR _mip_width$[ebp], eax

; 1019 : 	int mip_height = glState.height;

	mov	eax, DWORD PTR ?glState@@3UglState_t@@A+4
	mov	DWORD PTR _mip_height$[ebp], eax

; 1020 : 
; 1021 : 	for( int i = 1; i <= mipmap_count; i++ )

	mov	DWORD PTR _i$1[ebp], 1
	jmp	SHORT $LN4@ToneMap
$LN2@ToneMap:
	mov	eax, DWORD PTR _i$1[ebp]
	add	eax, 1
	mov	DWORD PTR _i$1[ebp], eax
$LN4@ToneMap:
	mov	eax, DWORD PTR _i$1[ebp]
	cmp	eax, DWORD PTR _mipmap_count$[ebp]
	jg	$LN3@ToneMap

; 1022 : 	{
; 1023 : 		mip_width /= 2;

	mov	eax, DWORD PTR _mip_width$[ebp]
	cdq
	sub	eax, edx
	sar	eax, 1
	mov	DWORD PTR _mip_width$[ebp], eax

; 1024 : 		mip_height /= 2;

	mov	eax, DWORD PTR _mip_height$[ebp]
	cdq
	sub	eax, edx
	sar	eax, 1
	mov	DWORD PTR _mip_height$[ebp], eax

; 1025 : 
; 1026 : 		mip_width = Q_max( mip_width, 1 );

	cmp	DWORD PTR _mip_width$[ebp], 1
	jle	SHORT $LN14@ToneMap
	mov	eax, DWORD PTR _mip_width$[ebp]
	mov	DWORD PTR tv155[ebp], eax
	jmp	SHORT $LN15@ToneMap
$LN14@ToneMap:
	mov	DWORD PTR tv155[ebp], 1
$LN15@ToneMap:
	mov	ecx, DWORD PTR tv155[ebp]
	mov	DWORD PTR _mip_width$[ebp], ecx

; 1027 : 		mip_height = Q_max( mip_height, 1 );

	cmp	DWORD PTR _mip_height$[ebp], 1
	jle	SHORT $LN16@ToneMap
	mov	eax, DWORD PTR _mip_height$[ebp]
	mov	DWORD PTR tv157[ebp], eax
	jmp	SHORT $LN17@ToneMap
$LN16@ToneMap:
	mov	DWORD PTR tv157[ebp], 1
$LN17@ToneMap:
	mov	ecx, DWORD PTR tv157[ebp]
	mov	DWORD PTR _mip_height$[ebp], ecx

; 1028 : 
; 1029 : 		pglViewport( 0, 0, mip_width, mip_height );

	mov	eax, DWORD PTR _mip_height$[ebp]
	push	eax
	mov	ecx, DWORD PTR _mip_width$[ebp]
	push	ecx
	push	0
	push	0
	call	DWORD PTR ?pglViewport@@3P6GXHHHH@ZA	; pglViewport

; 1030 : 
; 1031 : 		pglUniform2fARB( RI->currentshader->u_ScreenSizeInv, 1.0f / (float)(glState.width), 1.0f / (float)(glState.height) );

	cvtsi2ss xmm0, DWORD PTR ?glState@@3UglState_t@@A+4
	movss	xmm1, DWORD PTR __real@3f800000
	divss	xmm1, xmm0
	push	ecx
	movss	DWORD PTR [esp], xmm1
	cvtsi2ss xmm0, DWORD PTR ?glState@@3UglState_t@@A
	movss	xmm1, DWORD PTR __real@3f800000
	divss	xmm1, xmm0
	push	ecx
	movss	DWORD PTR [esp], xmm1
	mov	eax, DWORD PTR ?RI@@3PAUref_instance_t@@A ; RI
	mov	ecx, DWORD PTR [eax+28]
	mov	edx, DWORD PTR [ecx+724]
	push	edx
	call	DWORD PTR ?pglUniform2fARB@@3P6GXHMM@ZA	; pglUniform2fARB

; 1032 : 		pglUniform1fARB( RI->currentshader->u_MipLod, (float)(i - 1) );

	mov	eax, DWORD PTR _i$1[ebp]
	sub	eax, 1
	cvtsi2ss xmm0, eax
	push	ecx
	movss	DWORD PTR [esp], xmm0
	mov	ecx, DWORD PTR ?RI@@3PAUref_instance_t@@A ; RI
	mov	edx, DWORD PTR [ecx+28]
	mov	eax, DWORD PTR [edx+952]
	push	eax
	call	DWORD PTR ?pglUniform1fARB@@3P6GXHM@ZA	; pglUniform1fARB

; 1033 : 		pglUniform4fARB( RI->currentshader->u_TexCoordClamp, 0.0f, 0.0f, 1.0f, 1.0f );

	push	ecx
	movss	xmm0, DWORD PTR __real@3f800000
	movss	DWORD PTR [esp], xmm0
	push	ecx
	movss	xmm0, DWORD PTR __real@3f800000
	movss	DWORD PTR [esp], xmm0
	push	ecx
	xorps	xmm0, xmm0
	movss	DWORD PTR [esp], xmm0
	push	ecx
	xorps	xmm0, xmm0
	movss	DWORD PTR [esp], xmm0
	mov	eax, DWORD PTR ?RI@@3PAUref_instance_t@@A ; RI
	mov	ecx, DWORD PTR [eax+28]
	mov	edx, DWORD PTR [ecx+956]
	push	edx
	call	DWORD PTR ?pglUniform4fARB@@3P6GXHMMMM@ZA ; pglUniform4fARB

; 1034 : 		pglUniform1fARB( RI->currentshader->u_BloomFirstPass, 0.0f );

	push	ecx
	xorps	xmm0, xmm0
	movss	DWORD PTR [esp], xmm0
	mov	eax, DWORD PTR ?RI@@3PAUref_instance_t@@A ; RI
	mov	ecx, DWORD PTR [eax+28]
	mov	edx, DWORD PTR [ecx+964]
	push	edx
	call	DWORD PTR ?pglUniform1fARB@@3P6GXHM@ZA	; pglUniform1fARB

; 1035 : 
; 1036 : 		pglBindFramebuffer( GL_FRAMEBUFFER_EXT, tr.avg_luminance_fbo_mip[i] );

	mov	eax, DWORD PTR _i$1[ebp]
	mov	ecx, DWORD PTR ?tr@@3Uref_globals_t@@A[eax*4+5885336]
	push	ecx
	push	36160					; 00008d40H
	call	DWORD PTR ?pglBindFramebuffer@@3P6GXII@ZA ; pglBindFramebuffer

; 1037 : 		RenderFSQ( glState.width, glState.height );

	mov	eax, DWORD PTR ?glState@@3UglState_t@@A+4
	push	eax
	mov	ecx, DWORD PTR ?glState@@3UglState_t@@A
	push	ecx
	call	?RenderFSQ@@YAXHH@Z			; RenderFSQ
	add	esp, 8

; 1038 : 	}

	jmp	$LN2@ToneMap
$LN3@ToneMap:

; 1039 : 
; 1040 : 	GL_SelectTexture( glConfig.max_texture_units - 1 );

	mov	eax, DWORD PTR ?glConfig@@3UglConfig_t@@A+52
	sub	eax, 1
	push	eax
	call	DWORD PTR ?gRenderfuncs@@3Urender_api_s@@A+136
	add	esp, 4

; 1041 : 	GL_CleanUpTextureUnits( 0 );

	push	0
	call	DWORD PTR ?gRenderfuncs@@3Urender_api_s@@A+148
	add	esp, 4

; 1042 : 	pglViewport( 0, 0, glState.width, glState.height );

	mov	eax, DWORD PTR ?glState@@3UglState_t@@A+4
	push	eax
	mov	ecx, DWORD PTR ?glState@@3UglState_t@@A
	push	ecx
	push	0
	push	0
	call	DWORD PTR ?pglViewport@@3P6GXHHHH@ZA	; pglViewport

; 1043 : 	pglBindFramebuffer( GL_FRAMEBUFFER_EXT, 0 );

	push	0
	push	36160					; 00008d40H
	call	DWORD PTR ?pglBindFramebuffer@@3P6GXII@ZA ; pglBindFramebuffer

; 1044 : 	GL_BindShader( NULL );

	push	0
	call	?GL_BindShader@@YAXPAUglsl_prog_s@@@Z	; GL_BindShader
	add	esp, 4

; 1045 : 
; 1046 : 	// capture screen
; 1047 : 	GL_Bind( GL_TEXTURE0, tr.screen_color );

	mov	eax, DWORD PTR ?tr@@3Uref_globals_t@@A+5732
	push	eax
	push	0
	call	DWORD PTR ?gRenderfuncs@@3Urender_api_s@@A+132
	add	esp, 8

; 1048 : 	pglCopyTexSubImage2D( GL_TEXTURE_2D, 0, 0, 0, 0, 0, glState.width, glState.height );

	mov	eax, DWORD PTR ?glState@@3UglState_t@@A+4
	push	eax
	mov	ecx, DWORD PTR ?glState@@3UglState_t@@A
	push	ecx
	push	0
	push	0
	push	0
	push	0
	push	0
	push	3553					; 00000de1H
	call	DWORD PTR ?pglCopyTexSubImage2D@@3P6GXIHHHHHHH@ZA ; pglCopyTexSubImage2D

; 1049 : 
; 1050 : 	int ExposureTexture = RenderExposureStorage();

	call	?RenderExposureStorage@@YAHXZ		; RenderExposureStorage
	mov	DWORD PTR _ExposureTexture$[ebp], eax

; 1051 : 
; 1052 : 	GL_BindShader( glsl.ToneMap );

	mov	eax, DWORD PTR ?glsl@@3Uref_shaders_t@@A+68
	push	eax
	call	?GL_BindShader@@YAXPAUglsl_prog_s@@@Z	; GL_BindShader
	add	esp, 4

; 1053 : 	ASSERT( RI->currentshader != NULL );

	mov	eax, DWORD PTR ?RI@@3PAUref_instance_t@@A ; RI
	cmp	DWORD PTR [eax+28], 0
	jne	SHORT $LN8@ToneMap
	mov	eax, DWORD PTR ?__LINE__Var@?0??ToneMap@@YAXXZ@4JA
	add	eax, 57					; 00000039H
	push	eax
	push	OFFSET ??_C@_0FC@EOCCPBDF@d?3?2?$CBdiffusion?52020?2source?5code?52@
	push	OFFSET ??_C@_0BI@FECCGOFJ@assert?5failed?5at?5?$CFs?3?$CFi?6?$AA@
	call	DWORD PTR ?gRenderfuncs@@3Urender_api_s@@A+236
	add	esp, 12					; 0000000cH
$LN8@ToneMap:

; 1054 : 
; 1055 : 	GL_Bind( GL_TEXTURE0, tr.screen_color );

	mov	eax, DWORD PTR ?tr@@3Uref_globals_t@@A+5732
	push	eax
	push	0
	call	DWORD PTR ?gRenderfuncs@@3Urender_api_s@@A+132
	add	esp, 8

; 1056 : 	GL_Bind( GL_TEXTURE1, ExposureTexture ); // u_HDRExposure	

	mov	eax, DWORD PTR _ExposureTexture$[ebp]
	push	eax
	push	1
	call	DWORD PTR ?gRenderfuncs@@3Urender_api_s@@A+132
	add	esp, 8

; 1057 : 	pglUniform2fARB( RI->currentshader->u_ScreenSizeInv, 1.0f / (float)(glState.width), 1.0f / (float)(glState.height) );

	cvtsi2ss xmm0, DWORD PTR ?glState@@3UglState_t@@A+4
	movss	xmm1, DWORD PTR __real@3f800000
	divss	xmm1, xmm0
	push	ecx
	movss	DWORD PTR [esp], xmm1
	cvtsi2ss xmm0, DWORD PTR ?glState@@3UglState_t@@A
	movss	xmm1, DWORD PTR __real@3f800000
	divss	xmm1, xmm0
	push	ecx
	movss	DWORD PTR [esp], xmm1
	mov	eax, DWORD PTR ?RI@@3PAUref_instance_t@@A ; RI
	mov	ecx, DWORD PTR [eax+28]
	mov	edx, DWORD PTR [ecx+724]
	push	edx
	call	DWORD PTR ?pglUniform2fARB@@3P6GXHMM@ZA	; pglUniform2fARB

; 1058 : 	pglUniform1fARB( RI->currentshader->u_MipLod, (float)(mipmap_count - 1) );

	mov	eax, DWORD PTR _mipmap_count$[ebp]
	sub	eax, 1
	cvtsi2ss xmm0, eax
	push	ecx
	movss	DWORD PTR [esp], xmm0
	mov	ecx, DWORD PTR ?RI@@3PAUref_instance_t@@A ; RI
	mov	edx, DWORD PTR [ecx+28]
	mov	eax, DWORD PTR [edx+952]
	push	eax
	call	DWORD PTR ?pglUniform1fARB@@3P6GXHM@ZA	; pglUniform1fARB

; 1059 : 
; 1060 : 	RenderFSQ( glState.width, glState.height );

	mov	eax, DWORD PTR ?glState@@3UglState_t@@A+4
	push	eax
	mov	ecx, DWORD PTR ?glState@@3UglState_t@@A
	push	ecx
	call	?RenderFSQ@@YAXHH@Z			; RenderFSQ
	add	esp, 8

; 1061 : 
; 1062 : 	GL_BindShader( NULL );

	push	0
	call	?GL_BindShader@@YAXPAUglsl_prog_s@@@Z	; GL_BindShader
	add	esp, 4

; 1063 : 	GL_SelectTexture( glConfig.max_texture_units - 1 );

	mov	eax, DWORD PTR ?glConfig@@3UglConfig_t@@A+52
	sub	eax, 1
	push	eax
	call	DWORD PTR ?gRenderfuncs@@3Urender_api_s@@A+136
	add	esp, 4

; 1064 : 	GL_CleanUpTextureUnits( 0 );

	push	0
	call	DWORD PTR ?gRenderfuncs@@3Urender_api_s@@A+148
	add	esp, 4
$LN1@ToneMap:

; 1065 : }

	pop	edi
	pop	esi
	pop	ebx
	mov	esp, ebp
	pop	ebp
	ret	0
?ToneMap@@YAXXZ ENDP					; ToneMap
_TEXT	ENDS
; Function compile flags: /Odtp /ZI
; File d:\!diffusion 2020\source code 2022\client-server\client\render\r_postprocess.cpp
;	COMDAT ?SSAO@@YAXXZ
_TEXT	SEGMENT
tv133 = -88						; size = 4
tv75 = -85						; size = 1
tv67 = -85						; size = 1
_height$ = -20						; size = 4
_width$ = -16						; size = 4
_zFar$ = -12						; size = 4
_blur$ = -8						; size = 4
_Debug$ = -1						; size = 1
?SSAO@@YAXXZ PROC					; SSAO, COMDAT

; 794  : {

	push	ebp
	mov	ebp, esp
	sub	esp, 88					; 00000058H
	push	ebx
	push	esi
	push	edi

; 795  : 	if( !CVAR_TO_BOOL( gl_ssao ) )

	cmp	DWORD PTR ?gl_ssao@@3PAUcvar_s@@A, 0	; gl_ssao
	je	SHORT $LN16@SSAO
	mov	eax, DWORD PTR ?gl_ssao@@3PAUcvar_s@@A	; gl_ssao
	movss	xmm0, DWORD PTR [eax+12]
	ucomiss	xmm0, DWORD PTR __real@00000000
	lahf
	test	ah, 68					; 00000044H
	jnp	SHORT $LN16@SSAO
	mov	BYTE PTR tv67[ebp], 1
	jmp	SHORT $LN17@SSAO
$LN16@SSAO:
	mov	BYTE PTR tv67[ebp], 0
$LN17@SSAO:
	movzx	ecx, BYTE PTR tv67[ebp]
	test	ecx, ecx
	jne	SHORT $LN4@SSAO

; 796  : 		return;

	jmp	$LN1@SSAO
$LN4@SSAO:

; 797  : 
; 798  : 	if( tr.ssao_params_changed )

	movzx	eax, BYTE PTR ?tr@@3Uref_globals_t@@A+7491040
	test	eax, eax
	je	SHORT $LN5@SSAO

; 799  : 	{
; 800  : 		InitSSAO();

	call	?InitSSAO@@YAXXZ			; InitSSAO

; 801  : 		tr.ssao_params_changed = false;

	mov	BYTE PTR ?tr@@3Uref_globals_t@@A+7491040, 0
$LN5@SSAO:

; 802  : 	}
; 803  : 
; 804  : 	bool Debug = false;

	mov	BYTE PTR _Debug$[ebp], 0

; 805  : 	if( CVAR_TO_BOOL( gl_ssao_debug ) )

	cmp	DWORD PTR ?gl_ssao_debug@@3PAUcvar_s@@A, 0 ; gl_ssao_debug
	je	SHORT $LN18@SSAO
	mov	eax, DWORD PTR ?gl_ssao_debug@@3PAUcvar_s@@A ; gl_ssao_debug
	movss	xmm0, DWORD PTR [eax+12]
	ucomiss	xmm0, DWORD PTR __real@00000000
	lahf
	test	ah, 68					; 00000044H
	jnp	SHORT $LN18@SSAO
	mov	BYTE PTR tv75[ebp], 1
	jmp	SHORT $LN19@SSAO
$LN18@SSAO:
	mov	BYTE PTR tv75[ebp], 0
$LN19@SSAO:
	movzx	ecx, BYTE PTR tv75[ebp]
	test	ecx, ecx
	je	SHORT $LN6@SSAO

; 806  : 		Debug = true;

	mov	BYTE PTR _Debug$[ebp], 1
$LN6@SSAO:

; 807  : 
; 808  : 	float blur = 0.075f;

	movss	xmm0, DWORD PTR __real@3d99999a
	movss	DWORD PTR _blur$[ebp], xmm0

; 809  : 	float zFar = RI->farClip;// Q_max( 256.0f, RI->farClip );

	mov	eax, DWORD PTR ?RI@@3PAUref_instance_t@@A ; RI
	movss	xmm0, DWORD PTR [eax+264]
	movss	DWORD PTR _zFar$[ebp], xmm0

; 810  : 
; 811  : 	// request screen color
; 812  : 	GL_Bind( GL_TEXTURE0, tr.screen_color );

	mov	eax, DWORD PTR ?tr@@3Uref_globals_t@@A+5732
	push	eax
	push	0
	call	DWORD PTR ?gRenderfuncs@@3Urender_api_s@@A+132
	add	esp, 8

; 813  : 	pglCopyTexSubImage2D( GL_TEXTURE_2D, 0, 0, 0, 0, 0, glState.width, glState.height );

	mov	eax, DWORD PTR ?glState@@3UglState_t@@A+4
	push	eax
	mov	ecx, DWORD PTR ?glState@@3UglState_t@@A
	push	ecx
	push	0
	push	0
	push	0
	push	0
	push	0
	push	3553					; 00000de1H
	call	DWORD PTR ?pglCopyTexSubImage2D@@3P6GXIHHHHHHH@ZA ; pglCopyTexSubImage2D

; 814  : 
; 815  : 	// request screen depth
; 816  : 	GL_Bind( GL_TEXTURE0, tr.screen_depth );

	mov	eax, DWORD PTR ?tr@@3Uref_globals_t@@A+5728
	push	eax
	push	0
	call	DWORD PTR ?gRenderfuncs@@3Urender_api_s@@A+132
	add	esp, 8

; 817  : 	pglCopyTexSubImage2D( GL_TEXTURE_2D, 0, 0, 0, 0, 0, glState.width, glState.height );

	mov	eax, DWORD PTR ?glState@@3UglState_t@@A+4
	push	eax
	mov	ecx, DWORD PTR ?glState@@3UglState_t@@A
	push	ecx
	push	0
	push	0
	push	0
	push	0
	push	0
	push	3553					; 00000de1H
	call	DWORD PTR ?pglCopyTexSubImage2D@@3P6GXIHHHHHHH@ZA ; pglCopyTexSubImage2D

; 818  : 
; 819  : 	// set target viewport
; 820  : 	int width = glState.width;

	mov	eax, DWORD PTR ?glState@@3UglState_t@@A
	mov	DWORD PTR _width$[ebp], eax

; 821  : 	int height = glState.height;

	mov	eax, DWORD PTR ?glState@@3UglState_t@@A+4
	mov	DWORD PTR _height$[ebp], eax

; 822  : 
; 823  : 	switch( (int)gl_ssao->value )

	mov	eax, DWORD PTR ?gl_ssao@@3PAUcvar_s@@A	; gl_ssao
	cvttss2si ecx, DWORD PTR [eax+12]
	mov	DWORD PTR tv133[ebp], ecx
	cmp	DWORD PTR tv133[ebp], 1
	je	SHORT $LN7@SSAO
	cmp	DWORD PTR tv133[ebp], 2
	je	SHORT $LN8@SSAO
	jmp	SHORT $LN2@SSAO
$LN7@SSAO:

; 824  : 	{
; 825  : 	case 1:
; 826  : 		width = glState.width / 4;

	mov	eax, DWORD PTR ?glState@@3UglState_t@@A
	cdq
	and	edx, 3
	add	eax, edx
	sar	eax, 2
	mov	DWORD PTR _width$[ebp], eax

; 827  : 		height = glState.height / 4;

	mov	eax, DWORD PTR ?glState@@3UglState_t@@A+4
	cdq
	and	edx, 3
	add	eax, edx
	sar	eax, 2
	mov	DWORD PTR _height$[ebp], eax

; 828  : 		break;

	jmp	SHORT $LN2@SSAO
$LN8@SSAO:

; 829  : 	case 2:
; 830  : 		width = glState.width / 2;

	mov	eax, DWORD PTR ?glState@@3UglState_t@@A
	cdq
	sub	eax, edx
	sar	eax, 1
	mov	DWORD PTR _width$[ebp], eax

; 831  : 		height = glState.height / 2;

	mov	eax, DWORD PTR ?glState@@3UglState_t@@A+4
	cdq
	sub	eax, edx
	sar	eax, 1
	mov	DWORD PTR _height$[ebp], eax
$LN2@SSAO:

; 832  : 		break;
; 833  : 	}
; 834  : 
; 835  : 	pglViewport( 0, 0, width, height );

	mov	eax, DWORD PTR _height$[ebp]
	push	eax
	mov	ecx, DWORD PTR _width$[ebp]
	push	ecx
	push	0
	push	0
	call	DWORD PTR ?pglViewport@@3P6GXHHHH@ZA	; pglViewport

; 836  : 
; 837  : 	// generate SSAO
; 838  : 	GL_BindShader( glsl.genSSAO );

	mov	eax, DWORD PTR ?glsl@@3Uref_shaders_t@@A+60
	push	eax
	call	?GL_BindShader@@YAXPAUglsl_prog_s@@@Z	; GL_BindShader
	add	esp, 4

; 839  : 	ASSERT( RI->currentshader != NULL );

	mov	eax, DWORD PTR ?RI@@3PAUref_instance_t@@A ; RI
	cmp	DWORD PTR [eax+28], 0
	jne	SHORT $LN9@SSAO
	mov	eax, DWORD PTR ?__LINE__Var@?0??SSAO@@YAXXZ@4JA
	add	eax, 45					; 0000002dH
	push	eax
	push	OFFSET ??_C@_0FC@EOCCPBDF@d?3?2?$CBdiffusion?52020?2source?5code?52@
	push	OFFSET ??_C@_0BI@FECCGOFJ@assert?5failed?5at?5?$CFs?3?$CFi?6?$AA@
	call	DWORD PTR ?gRenderfuncs@@3Urender_api_s@@A+236
	add	esp, 12					; 0000000cH
$LN9@SSAO:

; 840  : 
; 841  : 	pglUniform1fARB( RI->currentshader->u_zFar, zFar );

	push	ecx
	movss	xmm0, DWORD PTR _zFar$[ebp]
	movss	DWORD PTR [esp], xmm0
	mov	eax, DWORD PTR ?RI@@3PAUref_instance_t@@A ; RI
	mov	ecx, DWORD PTR [eax+28]
	mov	edx, DWORD PTR [ecx+728]
	push	edx
	call	DWORD PTR ?pglUniform1fARB@@3P6GXHM@ZA	; pglUniform1fARB

; 842  : 	GL_Bind( GL_TEXTURE0, tr.screen_depth );

	mov	eax, DWORD PTR ?tr@@3Uref_globals_t@@A+5728
	push	eax
	push	0
	call	DWORD PTR ?gRenderfuncs@@3Urender_api_s@@A+132
	add	esp, 8

; 843  : 	GL_Bind( GL_TEXTURE1, RotateMap );

	mov	eax, DWORD PTR ?RotateMap@@3HA		; RotateMap
	push	eax
	push	1
	call	DWORD PTR ?gRenderfuncs@@3Urender_api_s@@A+132
	add	esp, 8

; 844  : 	RenderFSQ( glState.width, glState.height );

	mov	eax, DWORD PTR ?glState@@3UglState_t@@A+4
	push	eax
	mov	ecx, DWORD PTR ?glState@@3UglState_t@@A
	push	ecx
	call	?RenderFSQ@@YAXHH@Z			; RenderFSQ
	add	esp, 8

; 845  : 
; 846  : 	// RequestScreenAO
; 847  : 	GL_Bind( GL_TEXTURE0, ScreenAO );

	mov	eax, DWORD PTR ?ScreenAO@@3HA		; ScreenAO
	push	eax
	push	0
	call	DWORD PTR ?gRenderfuncs@@3Urender_api_s@@A+132
	add	esp, 8

; 848  : 	pglCopyTexSubImage2D( GL_TEXTURE_2D, 0, 0, 0, 0, 0, width, height );

	mov	eax, DWORD PTR _height$[ebp]
	push	eax
	mov	ecx, DWORD PTR _width$[ebp]
	push	ecx
	push	0
	push	0
	push	0
	push	0
	push	0
	push	3553					; 00000de1H
	call	DWORD PTR ?pglCopyTexSubImage2D@@3P6GXIHHHHHHH@ZA ; pglCopyTexSubImage2D

; 849  : 
; 850  : 	// blur AO pass
; 851  : 	GL_BindShader( glsl.blurShader[0] );

	mov	eax, 4
	imul	ecx, eax, 0
	mov	edx, DWORD PTR ?glsl@@3Uref_shaders_t@@A[ecx+4]
	push	edx
	call	?GL_BindShader@@YAXPAUglsl_prog_s@@@Z	; GL_BindShader
	add	esp, 4

; 852  : 	ASSERT( RI->currentshader != NULL );

	mov	eax, DWORD PTR ?RI@@3PAUref_instance_t@@A ; RI
	cmp	DWORD PTR [eax+28], 0
	jne	SHORT $LN10@SSAO
	mov	eax, DWORD PTR ?__LINE__Var@?0??SSAO@@YAXXZ@4JA
	add	eax, 58					; 0000003aH
	push	eax
	push	OFFSET ??_C@_0FC@EOCCPBDF@d?3?2?$CBdiffusion?52020?2source?5code?52@
	push	OFFSET ??_C@_0BI@FECCGOFJ@assert?5failed?5at?5?$CFs?3?$CFi?6?$AA@
	call	DWORD PTR ?gRenderfuncs@@3Urender_api_s@@A+236
	add	esp, 12					; 0000000cH
$LN10@SSAO:

; 853  : 	pglUniform2fARB( RI->currentshader->u_BlurFactor, blur, blur );	// set blur factor

	push	ecx
	movss	xmm0, DWORD PTR _blur$[ebp]
	movss	DWORD PTR [esp], xmm0
	push	ecx
	movss	xmm0, DWORD PTR _blur$[ebp]
	movss	DWORD PTR [esp], xmm0
	mov	eax, DWORD PTR ?RI@@3PAUref_instance_t@@A ; RI
	mov	ecx, DWORD PTR [eax+28]
	mov	edx, DWORD PTR [ecx+712]
	push	edx
	call	DWORD PTR ?pglUniform2fARB@@3P6GXHMM@ZA	; pglUniform2fARB

; 854  : 	RenderFSQ( glState.width, glState.height );

	mov	eax, DWORD PTR ?glState@@3UglState_t@@A+4
	push	eax
	mov	ecx, DWORD PTR ?glState@@3UglState_t@@A
	push	ecx
	call	?RenderFSQ@@YAXHH@Z			; RenderFSQ
	add	esp, 8

; 855  : 
; 856  : 	// RequestScreenAO
; 857  : 	GL_Bind( GL_TEXTURE0, ScreenAO );

	mov	eax, DWORD PTR ?ScreenAO@@3HA		; ScreenAO
	push	eax
	push	0
	call	DWORD PTR ?gRenderfuncs@@3Urender_api_s@@A+132
	add	esp, 8

; 858  : 	pglCopyTexSubImage2D( GL_TEXTURE_2D, 0, 0, 0, 0, 0, width, height );

	mov	eax, DWORD PTR _height$[ebp]
	push	eax
	mov	ecx, DWORD PTR _width$[ebp]
	push	ecx
	push	0
	push	0
	push	0
	push	0
	push	0
	push	3553					; 00000de1H
	call	DWORD PTR ?pglCopyTexSubImage2D@@3P6GXIHHHHHHH@ZA ; pglCopyTexSubImage2D

; 859  : 
; 860  : 	GL_BindShader( glsl.blurShader[1] );

	mov	eax, 4
	shl	eax, 0
	mov	ecx, DWORD PTR ?glsl@@3Uref_shaders_t@@A[eax+4]
	push	ecx
	call	?GL_BindShader@@YAXPAUglsl_prog_s@@@Z	; GL_BindShader
	add	esp, 4

; 861  : 	ASSERT( RI->currentshader != NULL );

	mov	eax, DWORD PTR ?RI@@3PAUref_instance_t@@A ; RI
	cmp	DWORD PTR [eax+28], 0
	jne	SHORT $LN11@SSAO
	mov	eax, DWORD PTR ?__LINE__Var@?0??SSAO@@YAXXZ@4JA
	add	eax, 67					; 00000043H
	push	eax
	push	OFFSET ??_C@_0FC@EOCCPBDF@d?3?2?$CBdiffusion?52020?2source?5code?52@
	push	OFFSET ??_C@_0BI@FECCGOFJ@assert?5failed?5at?5?$CFs?3?$CFi?6?$AA@
	call	DWORD PTR ?gRenderfuncs@@3Urender_api_s@@A+236
	add	esp, 12					; 0000000cH
$LN11@SSAO:

; 862  : 	pglUniform2fARB( RI->currentshader->u_BlurFactor, blur, blur );	// set blur factor

	push	ecx
	movss	xmm0, DWORD PTR _blur$[ebp]
	movss	DWORD PTR [esp], xmm0
	push	ecx
	movss	xmm0, DWORD PTR _blur$[ebp]
	movss	DWORD PTR [esp], xmm0
	mov	eax, DWORD PTR ?RI@@3PAUref_instance_t@@A ; RI
	mov	ecx, DWORD PTR [eax+28]
	mov	edx, DWORD PTR [ecx+712]
	push	edx
	call	DWORD PTR ?pglUniform2fARB@@3P6GXHMM@ZA	; pglUniform2fARB

; 863  : 	RenderFSQ( glState.width, glState.height );

	mov	eax, DWORD PTR ?glState@@3UglState_t@@A+4
	push	eax
	mov	ecx, DWORD PTR ?glState@@3UglState_t@@A
	push	ecx
	call	?RenderFSQ@@YAXHH@Z			; RenderFSQ
	add	esp, 8

; 864  : 
; 865  : 	// RequestScreenAO
; 866  : 	GL_Bind( GL_TEXTURE0, ScreenAO );

	mov	eax, DWORD PTR ?ScreenAO@@3HA		; ScreenAO
	push	eax
	push	0
	call	DWORD PTR ?gRenderfuncs@@3Urender_api_s@@A+132
	add	esp, 8

; 867  : 	pglCopyTexSubImage2D( GL_TEXTURE_2D, 0, 0, 0, 0, 0, width, height );

	mov	eax, DWORD PTR _height$[ebp]
	push	eax
	mov	ecx, DWORD PTR _width$[ebp]
	push	ecx
	push	0
	push	0
	push	0
	push	0
	push	0
	push	3553					; 00000de1H
	call	DWORD PTR ?pglCopyTexSubImage2D@@3P6GXIHHHHHHH@ZA ; pglCopyTexSubImage2D

; 868  : 
; 869  : 	GL_BindShader( glsl.blurShader[0] );

	mov	eax, 4
	imul	ecx, eax, 0
	mov	edx, DWORD PTR ?glsl@@3Uref_shaders_t@@A[ecx+4]
	push	edx
	call	?GL_BindShader@@YAXPAUglsl_prog_s@@@Z	; GL_BindShader
	add	esp, 4

; 870  : 	ASSERT( RI->currentshader != NULL );

	mov	eax, DWORD PTR ?RI@@3PAUref_instance_t@@A ; RI
	cmp	DWORD PTR [eax+28], 0
	jne	SHORT $LN12@SSAO
	mov	eax, DWORD PTR ?__LINE__Var@?0??SSAO@@YAXXZ@4JA
	add	eax, 76					; 0000004cH
	push	eax
	push	OFFSET ??_C@_0FC@EOCCPBDF@d?3?2?$CBdiffusion?52020?2source?5code?52@
	push	OFFSET ??_C@_0BI@FECCGOFJ@assert?5failed?5at?5?$CFs?3?$CFi?6?$AA@
	call	DWORD PTR ?gRenderfuncs@@3Urender_api_s@@A+236
	add	esp, 12					; 0000000cH
$LN12@SSAO:

; 871  : 	pglUniform2fARB( RI->currentshader->u_BlurFactor, blur, blur );	// set blur factor

	push	ecx
	movss	xmm0, DWORD PTR _blur$[ebp]
	movss	DWORD PTR [esp], xmm0
	push	ecx
	movss	xmm0, DWORD PTR _blur$[ebp]
	movss	DWORD PTR [esp], xmm0
	mov	eax, DWORD PTR ?RI@@3PAUref_instance_t@@A ; RI
	mov	ecx, DWORD PTR [eax+28]
	mov	edx, DWORD PTR [ecx+712]
	push	edx
	call	DWORD PTR ?pglUniform2fARB@@3P6GXHMM@ZA	; pglUniform2fARB

; 872  : 	RenderFSQ( glState.width, glState.height );

	mov	eax, DWORD PTR ?glState@@3UglState_t@@A+4
	push	eax
	mov	ecx, DWORD PTR ?glState@@3UglState_t@@A
	push	ecx
	call	?RenderFSQ@@YAXHH@Z			; RenderFSQ
	add	esp, 8

; 873  : 
; 874  : 	// RequestScreenAO
; 875  : 	GL_Bind( GL_TEXTURE0, ScreenAO );

	mov	eax, DWORD PTR ?ScreenAO@@3HA		; ScreenAO
	push	eax
	push	0
	call	DWORD PTR ?gRenderfuncs@@3Urender_api_s@@A+132
	add	esp, 8

; 876  : 	pglCopyTexSubImage2D( GL_TEXTURE_2D, 0, 0, 0, 0, 0, width, height );

	mov	eax, DWORD PTR _height$[ebp]
	push	eax
	mov	ecx, DWORD PTR _width$[ebp]
	push	ecx
	push	0
	push	0
	push	0
	push	0
	push	0
	push	3553					; 00000de1H
	call	DWORD PTR ?pglCopyTexSubImage2D@@3P6GXIHHHHHHH@ZA ; pglCopyTexSubImage2D

; 877  : 
; 878  : 	GL_BindShader( glsl.blurShader[1] );

	mov	eax, 4
	shl	eax, 0
	mov	ecx, DWORD PTR ?glsl@@3Uref_shaders_t@@A[eax+4]
	push	ecx
	call	?GL_BindShader@@YAXPAUglsl_prog_s@@@Z	; GL_BindShader
	add	esp, 4

; 879  : 	ASSERT( RI->currentshader != NULL );

	mov	eax, DWORD PTR ?RI@@3PAUref_instance_t@@A ; RI
	cmp	DWORD PTR [eax+28], 0
	jne	SHORT $LN13@SSAO
	mov	eax, DWORD PTR ?__LINE__Var@?0??SSAO@@YAXXZ@4JA
	add	eax, 85					; 00000055H
	push	eax
	push	OFFSET ??_C@_0FC@EOCCPBDF@d?3?2?$CBdiffusion?52020?2source?5code?52@
	push	OFFSET ??_C@_0BI@FECCGOFJ@assert?5failed?5at?5?$CFs?3?$CFi?6?$AA@
	call	DWORD PTR ?gRenderfuncs@@3Urender_api_s@@A+236
	add	esp, 12					; 0000000cH
$LN13@SSAO:

; 880  : 	pglUniform2fARB( RI->currentshader->u_BlurFactor, blur, blur );	// set blur factor

	push	ecx
	movss	xmm0, DWORD PTR _blur$[ebp]
	movss	DWORD PTR [esp], xmm0
	push	ecx
	movss	xmm0, DWORD PTR _blur$[ebp]
	movss	DWORD PTR [esp], xmm0
	mov	eax, DWORD PTR ?RI@@3PAUref_instance_t@@A ; RI
	mov	ecx, DWORD PTR [eax+28]
	mov	edx, DWORD PTR [ecx+712]
	push	edx
	call	DWORD PTR ?pglUniform2fARB@@3P6GXHMM@ZA	; pglUniform2fARB

; 881  : 	RenderFSQ( glState.width, glState.height );

	mov	eax, DWORD PTR ?glState@@3UglState_t@@A+4
	push	eax
	mov	ecx, DWORD PTR ?glState@@3UglState_t@@A
	push	ecx
	call	?RenderFSQ@@YAXHH@Z			; RenderFSQ
	add	esp, 8

; 882  : 
; 883  : 	// RequestScreenAO
; 884  : 	GL_Bind( GL_TEXTURE0, ScreenAO );

	mov	eax, DWORD PTR ?ScreenAO@@3HA		; ScreenAO
	push	eax
	push	0
	call	DWORD PTR ?gRenderfuncs@@3Urender_api_s@@A+132
	add	esp, 8

; 885  : 	pglCopyTexSubImage2D( GL_TEXTURE_2D, 0, 0, 0, 0, 0, width, height );

	mov	eax, DWORD PTR _height$[ebp]
	push	eax
	mov	ecx, DWORD PTR _width$[ebp]
	push	ecx
	push	0
	push	0
	push	0
	push	0
	push	0
	push	3553					; 00000de1H
	call	DWORD PTR ?pglCopyTexSubImage2D@@3P6GXIHHHHHHH@ZA ; pglCopyTexSubImage2D

; 886  : 
; 887  : 	// do final pass
; 888  : 	pglViewport( 0, 0, glState.width, glState.height );

	mov	eax, DWORD PTR ?glState@@3UglState_t@@A+4
	push	eax
	mov	ecx, DWORD PTR ?glState@@3UglState_t@@A
	push	ecx
	push	0
	push	0
	call	DWORD PTR ?pglViewport@@3P6GXHHHH@ZA	; pglViewport

; 889  : 	GL_BindShader( glsl.drawSSAO );

	mov	eax, DWORD PTR ?glsl@@3Uref_shaders_t@@A+64
	push	eax
	call	?GL_BindShader@@YAXPAUglsl_prog_s@@@Z	; GL_BindShader
	add	esp, 4

; 890  : 	ASSERT( RI->currentshader != NULL );

	mov	eax, DWORD PTR ?RI@@3PAUref_instance_t@@A ; RI
	cmp	DWORD PTR [eax+28], 0
	jne	SHORT $LN14@SSAO
	mov	eax, DWORD PTR ?__LINE__Var@?0??SSAO@@YAXXZ@4JA
	add	eax, 96					; 00000060H
	push	eax
	push	OFFSET ??_C@_0FC@EOCCPBDF@d?3?2?$CBdiffusion?52020?2source?5code?52@
	push	OFFSET ??_C@_0BI@FECCGOFJ@assert?5failed?5at?5?$CFs?3?$CFi?6?$AA@
	call	DWORD PTR ?gRenderfuncs@@3Urender_api_s@@A+236
	add	esp, 12					; 0000000cH
$LN14@SSAO:

; 891  : 
; 892  : 	pglUniform1fARB( RI->currentshader->u_GenericCondition, Debug );

	movzx	eax, BYTE PTR _Debug$[ebp]
	cvtsi2ss xmm0, eax
	push	ecx
	movss	DWORD PTR [esp], xmm0
	mov	ecx, DWORD PTR ?RI@@3PAUref_instance_t@@A ; RI
	mov	edx, DWORD PTR [ecx+28]
	mov	eax, DWORD PTR [edx+704]
	push	eax
	call	DWORD PTR ?pglUniform1fARB@@3P6GXHM@ZA	; pglUniform1fARB

; 893  : 	GL_Bind( GL_TEXTURE0, tr.screen_color );

	mov	eax, DWORD PTR ?tr@@3Uref_globals_t@@A+5732
	push	eax
	push	0
	call	DWORD PTR ?gRenderfuncs@@3Urender_api_s@@A+132
	add	esp, 8

; 894  : 	GL_Bind( GL_TEXTURE1, ScreenAO );

	mov	eax, DWORD PTR ?ScreenAO@@3HA		; ScreenAO
	push	eax
	push	1
	call	DWORD PTR ?gRenderfuncs@@3Urender_api_s@@A+132
	add	esp, 8

; 895  : 	RenderFSQ( glState.width, glState.height );

	mov	eax, DWORD PTR ?glState@@3UglState_t@@A+4
	push	eax
	mov	ecx, DWORD PTR ?glState@@3UglState_t@@A
	push	ecx
	call	?RenderFSQ@@YAXHH@Z			; RenderFSQ
	add	esp, 8

; 896  : 
; 897  : 	// unbind shader
; 898  : 	GL_BindShader( NULL );

	push	0
	call	?GL_BindShader@@YAXPAUglsl_prog_s@@@Z	; GL_BindShader
	add	esp, 4

; 899  : 	GL_CleanUpTextureUnits( 0 );

	push	0
	call	DWORD PTR ?gRenderfuncs@@3Urender_api_s@@A+148
	add	esp, 4

; 900  : 
; 901  : 	r_stats.sh_ssao_pass++;

	mov	eax, DWORD PTR ?r_stats@@3Uref_stats_t@@A+128
	add	eax, 1
	mov	DWORD PTR ?r_stats@@3Uref_stats_t@@A+128, eax
$LN1@SSAO:

; 902  : }

	pop	edi
	pop	esi
	pop	ebx
	mov	esp, ebp
	pop	ebp
	ret	0
?SSAO@@YAXXZ ENDP					; SSAO
_TEXT	ENDS
; Function compile flags: /Odtp /ZI
; File d:\!diffusion 2020\source code 2022\client-server\client\render\r_postprocess.cpp
;	COMDAT ?Monochrome@@YAXXZ
_TEXT	SEGMENT
tv140 = -80						; size = 4
tv139 = -76						; size = 4
_CurrentMonochrome$ = -8				; size = 4
_MonochromeState$ = -4					; size = 4
?Monochrome@@YAXXZ PROC					; Monochrome, COMDAT

; 718  : {

	push	ebp
	mov	ebp, esp
	sub	esp, 80					; 00000050H
	push	ebx
	push	esi
	push	edi

; 719  : 	float MonochromeState = gEngfuncs.GetLocalPlayer()->curstate.vuser1.z;

	call	DWORD PTR ?gEngfuncs@@3Ucl_enginefuncs_s@@A+204
	movss	xmm0, DWORD PTR [eax+988]
	movss	DWORD PTR _MonochromeState$[ebp], xmm0

; 720  : 
; 721  : 	static float DmgMonochrome = 0.0f;
; 722  : 	static float DmgMonochromeTime = 0.0f;
; 723  : 	float CurrentMonochrome = 0.0f;

	xorps	xmm0, xmm0
	movss	DWORD PTR _CurrentMonochrome$[ebp], xmm0

; 724  : 
; 725  : 	if( ApplyDamageMonochrome )

	movzx	eax, BYTE PTR ?ApplyDamageMonochrome@@3_NA ; ApplyDamageMonochrome
	test	eax, eax
	je	SHORT $LN2@Monochrome

; 726  : 	{
; 727  : 		DmgMonochrome = 1.0f;

	movss	xmm0, DWORD PTR __real@3f800000
	movss	DWORD PTR ?DmgMonochrome@?1??Monochrome@@YAXXZ@4MA, xmm0

; 728  : 		DmgMonochromeTime = tr.time;

	cvtsd2ss xmm0, QWORD PTR ?tr@@3Uref_globals_t@@A+8
	movss	DWORD PTR ?DmgMonochromeTime@?1??Monochrome@@YAXXZ@4MA, xmm0

; 729  : 		ApplyDamageMonochrome = false;

	mov	BYTE PTR ?ApplyDamageMonochrome@@3_NA, 0 ; ApplyDamageMonochrome
$LN2@Monochrome:

; 730  : 	}
; 731  : 
; 732  : 	if( DmgMonochromeTime > tr.time )

	cvtss2sd xmm0, DWORD PTR ?DmgMonochromeTime@?1??Monochrome@@YAXXZ@4MA
	comisd	xmm0, QWORD PTR ?tr@@3Uref_globals_t@@A+8
	jbe	SHORT $LN3@Monochrome

; 733  : 	{
; 734  : 		DmgMonochromeTime = 0;

	xorps	xmm0, xmm0
	movss	DWORD PTR ?DmgMonochromeTime@?1??Monochrome@@YAXXZ@4MA, xmm0

; 735  : 		DmgMonochrome = 0;

	xorps	xmm0, xmm0
	movss	DWORD PTR ?DmgMonochrome@?1??Monochrome@@YAXXZ@4MA, xmm0
$LN3@Monochrome:

; 736  : 	}
; 737  : 
; 738  : 	if( MonochromeState > 0.0f ) // user plays in monochrome, so only use this

	movss	xmm0, DWORD PTR _MonochromeState$[ebp]
	comiss	xmm0, DWORD PTR __real@00000000
	jbe	SHORT $LN4@Monochrome

; 739  : 	{
; 740  : 		CurrentMonochrome = MonochromeState;

	movss	xmm0, DWORD PTR _MonochromeState$[ebp]
	movss	DWORD PTR _CurrentMonochrome$[ebp], xmm0

; 741  : 		DmgMonochromeTime = 0;

	xorps	xmm0, xmm0
	movss	DWORD PTR ?DmgMonochromeTime@?1??Monochrome@@YAXXZ@4MA, xmm0

; 742  : 		DmgMonochrome = 0;

	xorps	xmm0, xmm0
	movss	DWORD PTR ?DmgMonochrome@?1??Monochrome@@YAXXZ@4MA, xmm0

; 743  : 	}
; 744  : 	else // no permanent monochrome. so only enable it when player was damaged

	jmp	SHORT $LN6@Monochrome
$LN4@Monochrome:

; 745  : 	{
; 746  : 		if( DmgMonochrome > 0.0f && DmgMonochrome <= 1.0f )

	movss	xmm0, DWORD PTR ?DmgMonochrome@?1??Monochrome@@YAXXZ@4MA
	comiss	xmm0, DWORD PTR __real@00000000
	jbe	SHORT $LN6@Monochrome
	movss	xmm0, DWORD PTR __real@3f800000
	comiss	xmm0, DWORD PTR ?DmgMonochrome@?1??Monochrome@@YAXXZ@4MA
	jb	SHORT $LN6@Monochrome

; 747  : 		{
; 748  : 			if( tr.time > DmgMonochromeTime + 1.5 )

	cvtss2sd xmm0, DWORD PTR ?DmgMonochromeTime@?1??Monochrome@@YAXXZ@4MA
	addsd	xmm0, QWORD PTR __real@3ff8000000000000
	movsd	xmm1, QWORD PTR ?tr@@3Uref_globals_t@@A+8
	comisd	xmm1, xmm0
	jbe	SHORT $LN7@Monochrome

; 749  : 				DmgMonochrome -= 0.5 * g_fFrametime;

	cvtss2sd xmm0, DWORD PTR ?g_fFrametime@@3MA
	mulsd	xmm0, QWORD PTR __real@3fe0000000000000
	cvtss2sd xmm1, DWORD PTR ?DmgMonochrome@?1??Monochrome@@YAXXZ@4MA
	subsd	xmm1, xmm0
	cvtsd2ss xmm0, xmm1
	movss	DWORD PTR ?DmgMonochrome@?1??Monochrome@@YAXXZ@4MA, xmm0
$LN7@Monochrome:

; 750  : 			CurrentMonochrome = DmgMonochrome;

	movss	xmm0, DWORD PTR ?DmgMonochrome@?1??Monochrome@@YAXXZ@4MA
	movss	DWORD PTR _CurrentMonochrome$[ebp], xmm0
$LN6@Monochrome:

; 751  : 		}
; 752  : 	}
; 753  : 	
; 754  : 	// apply monochrome anyway if near death, but only when not in camera, and only if has suit
; 755  : 	if( gHUD.HasWeapon( WEAPON_SUIT ) 
; 756  : 		&& !(gEngfuncs.GetLocalPlayer()->curstate.effects & EF_PLAYERUSINGCAMERA)
; 757  : 		&& !(gEngfuncs.GetLocalPlayer()->curstate.effects & EF_PLAYERDRONECONTROL )
; 758  : 		&& !g_iUser1
; 759  : 		&& !( gHUD.m_iHideHUDDisplay & HIDEHUD_HEALTH ) )

	push	63					; 0000003fH
	mov	ecx, OFFSET ?gHUD@@3VCHud@@A		; gHUD
	call	?HasWeapon@CHud@@QAEHH@Z		; CHud::HasWeapon
	test	eax, eax
	je	SHORT $LN9@Monochrome
	call	DWORD PTR ?gEngfuncs@@3Ucl_enginefuncs_s@@A+204
	mov	eax, DWORD PTR [eax+748]
	and	eax, 131072				; 00020000H
	jne	SHORT $LN9@Monochrome
	call	DWORD PTR ?gEngfuncs@@3Ucl_enginefuncs_s@@A+204
	mov	eax, DWORD PTR [eax+748]
	and	eax, 524288				; 00080000H
	jne	SHORT $LN9@Monochrome
	cmp	DWORD PTR ?g_iUser1@@3HA, 0		; g_iUser1
	jne	SHORT $LN9@Monochrome
	mov	eax, DWORD PTR ?gHUD@@3VCHud@@A+76
	and	eax, 8
	jne	SHORT $LN9@Monochrome

; 760  : 	{
; 761  : 		if( gHUD.m_HealthVisual.m_iHealthVisual < 25 )

	cmp	DWORD PTR ?gHUD@@3VCHud@@A+7188, 25	; 00000019H
	jge	SHORT $LN9@Monochrome

; 762  : 		{
; 763  : 			CurrentMonochrome = 4.0f / ((float)gHUD.m_HealthVisual.m_iHealthVisual + 0.1f);

	cvtsi2ss xmm0, DWORD PTR ?gHUD@@3VCHud@@A+7188
	addss	xmm0, DWORD PTR __real@3dcccccd
	movss	xmm1, DWORD PTR __real@40800000
	divss	xmm1, xmm0
	movss	DWORD PTR _CurrentMonochrome$[ebp], xmm1
$LN9@Monochrome:

; 764  : 		}
; 765  : 	}
; 766  : 
; 767  : 	CurrentMonochrome = bound( 0, CurrentMonochrome, 1 );

	movss	xmm0, DWORD PTR _CurrentMonochrome$[ebp]
	comiss	xmm0, DWORD PTR __real@00000000
	jb	SHORT $LN15@Monochrome
	movss	xmm0, DWORD PTR __real@3f800000
	comiss	xmm0, DWORD PTR _CurrentMonochrome$[ebp]
	jbe	SHORT $LN13@Monochrome
	movss	xmm0, DWORD PTR _CurrentMonochrome$[ebp]
	movss	DWORD PTR tv139[ebp], xmm0
	jmp	SHORT $LN14@Monochrome
$LN13@Monochrome:
	movss	xmm0, DWORD PTR __real@3f800000
	movss	DWORD PTR tv139[ebp], xmm0
$LN14@Monochrome:
	movss	xmm0, DWORD PTR tv139[ebp]
	movss	DWORD PTR tv140[ebp], xmm0
	jmp	SHORT $LN16@Monochrome
$LN15@Monochrome:
	xorps	xmm0, xmm0
	movss	DWORD PTR tv140[ebp], xmm0
$LN16@Monochrome:
	movss	xmm0, DWORD PTR tv140[ebp]
	movss	DWORD PTR _CurrentMonochrome$[ebp], xmm0

; 768  : 
; 769  : 	if( CurrentMonochrome <= 0.0f )

	xorps	xmm0, xmm0
	comiss	xmm0, DWORD PTR _CurrentMonochrome$[ebp]
	jb	SHORT $LN10@Monochrome

; 770  : 		return;

	jmp	$LN1@Monochrome
$LN10@Monochrome:

; 771  : 
; 772  : 	// capture screen
; 773  : 	GL_Bind( GL_TEXTURE0, tr.screen_color );

	mov	eax, DWORD PTR ?tr@@3Uref_globals_t@@A+5732
	push	eax
	push	0
	call	DWORD PTR ?gRenderfuncs@@3Urender_api_s@@A+132
	add	esp, 8

; 774  : 	pglCopyTexSubImage2D( GL_TEXTURE_2D, 0, 0, 0, 0, 0, glState.width, glState.height );

	mov	eax, DWORD PTR ?glState@@3UglState_t@@A+4
	push	eax
	mov	ecx, DWORD PTR ?glState@@3UglState_t@@A
	push	ecx
	push	0
	push	0
	push	0
	push	0
	push	0
	push	3553					; 00000de1H
	call	DWORD PTR ?pglCopyTexSubImage2D@@3P6GXIHHHHHHH@ZA ; pglCopyTexSubImage2D

; 775  : 
; 776  : 	pglViewport( 0, 0, glState.width, glState.height );

	mov	eax, DWORD PTR ?glState@@3UglState_t@@A+4
	push	eax
	mov	ecx, DWORD PTR ?glState@@3UglState_t@@A
	push	ecx
	push	0
	push	0
	call	DWORD PTR ?pglViewport@@3P6GXHHHH@ZA	; pglViewport

; 777  : 
; 778  : 	GL_BindShader( glsl.Monochrome );

	mov	eax, DWORD PTR ?glsl@@3Uref_shaders_t@@A+56
	push	eax
	call	?GL_BindShader@@YAXPAUglsl_prog_s@@@Z	; GL_BindShader
	add	esp, 4

; 779  : 	ASSERT( RI->currentshader != NULL );

	mov	eax, DWORD PTR ?RI@@3PAUref_instance_t@@A ; RI
	cmp	DWORD PTR [eax+28], 0
	jne	SHORT $LN11@Monochrome
	mov	eax, DWORD PTR ?__LINE__Var@?0??Monochrome@@YAXXZ@4JA
	add	eax, 61					; 0000003dH
	push	eax
	push	OFFSET ??_C@_0FC@EOCCPBDF@d?3?2?$CBdiffusion?52020?2source?5code?52@
	push	OFFSET ??_C@_0BI@FECCGOFJ@assert?5failed?5at?5?$CFs?3?$CFi?6?$AA@
	call	DWORD PTR ?gRenderfuncs@@3Urender_api_s@@A+236
	add	esp, 12					; 0000000cH
$LN11@Monochrome:

; 780  : 
; 781  : 	pglUniform1fARB( RI->currentshader->u_Accum, CurrentMonochrome );

	push	ecx
	movss	xmm0, DWORD PTR _CurrentMonochrome$[ebp]
	movss	DWORD PTR [esp], xmm0
	mov	eax, DWORD PTR ?RI@@3PAUref_instance_t@@A ; RI
	mov	ecx, DWORD PTR [eax+28]
	mov	edx, DWORD PTR [ecx+932]
	push	edx
	call	DWORD PTR ?pglUniform1fARB@@3P6GXHM@ZA	; pglUniform1fARB

; 782  : 
; 783  : 	GL_Bind( GL_TEXTURE0, tr.screen_color );

	mov	eax, DWORD PTR ?tr@@3Uref_globals_t@@A+5732
	push	eax
	push	0
	call	DWORD PTR ?gRenderfuncs@@3Urender_api_s@@A+132
	add	esp, 8

; 784  : 
; 785  : 	RenderFSQ( glState.width, glState.height );

	mov	eax, DWORD PTR ?glState@@3UglState_t@@A+4
	push	eax
	mov	ecx, DWORD PTR ?glState@@3UglState_t@@A
	push	ecx
	call	?RenderFSQ@@YAXHH@Z			; RenderFSQ
	add	esp, 8

; 786  : 
; 787  : 	GL_BindShader( NULL );

	push	0
	call	?GL_BindShader@@YAXPAUglsl_prog_s@@@Z	; GL_BindShader
	add	esp, 4

; 788  : 	GL_CleanUpTextureUnits( 0 );

	push	0
	call	DWORD PTR ?gRenderfuncs@@3Urender_api_s@@A+148
	add	esp, 4

; 789  : 
; 790  : 	r_stats.sh_monochrome_pass++;

	mov	eax, DWORD PTR ?r_stats@@3Uref_stats_t@@A+124
	add	eax, 1
	mov	DWORD PTR ?r_stats@@3Uref_stats_t@@A+124, eax
$LN1@Monochrome:

; 791  : }

	pop	edi
	pop	esi
	pop	ebx
	mov	esp, ebp
	pop	ebp
	ret	0
?Monochrome@@YAXXZ ENDP					; Monochrome
_TEXT	ENDS
; Function compile flags: /Odtp /ZI
; File d:\!diffusion 2020\source code 2022\client-server\client\render\r_postprocess.cpp
;	COMDAT ?Glitch@@YAXXZ
_TEXT	SEGMENT
?Glitch@@YAXXZ PROC					; Glitch, COMDAT

; 687  : {

	push	ebp
	mov	ebp, esp
	sub	esp, 64					; 00000040H
	push	ebx
	push	esi
	push	edi

; 688  : 	if( gHUD.GlitchAmount > 0.0f )

	movss	xmm0, DWORD PTR ?gHUD@@3VCHud@@A+172
	comiss	xmm0, DWORD PTR __real@00000000
	jbe	SHORT $LN2@Glitch

; 689  : 		gHUD.GlitchAmount = CL_UTIL_Approach( 0.0f, gHUD.GlitchAmount, g_fFrametime );

	push	ecx
	movss	xmm0, DWORD PTR ?g_fFrametime@@3MA
	movss	DWORD PTR [esp], xmm0
	push	ecx
	movss	xmm0, DWORD PTR ?gHUD@@3VCHud@@A+172
	movss	DWORD PTR [esp], xmm0
	push	ecx
	xorps	xmm0, xmm0
	movss	DWORD PTR [esp], xmm0
	call	?CL_UTIL_Approach@@YAMMMM@Z		; CL_UTIL_Approach
	add	esp, 12					; 0000000cH
	fstp	DWORD PTR ?gHUD@@3VCHud@@A+172
$LN2@Glitch:

; 690  : 	
; 691  : 	if( gHUD.GlitchAmount <= 0.0f )

	xorps	xmm0, xmm0
	comiss	xmm0, DWORD PTR ?gHUD@@3VCHud@@A+172
	jb	SHORT $LN3@Glitch

; 692  : 		return;

	jmp	$LN1@Glitch
$LN3@Glitch:

; 693  : 
; 694  : 	// capture screen
; 695  : 	GL_Bind( GL_TEXTURE0, tr.screen_color );

	mov	eax, DWORD PTR ?tr@@3Uref_globals_t@@A+5732
	push	eax
	push	0
	call	DWORD PTR ?gRenderfuncs@@3Urender_api_s@@A+132
	add	esp, 8

; 696  : 	pglCopyTexSubImage2D( GL_TEXTURE_2D, 0, 0, 0, 0, 0, glState.width, glState.height );

	mov	eax, DWORD PTR ?glState@@3UglState_t@@A+4
	push	eax
	mov	ecx, DWORD PTR ?glState@@3UglState_t@@A
	push	ecx
	push	0
	push	0
	push	0
	push	0
	push	0
	push	3553					; 00000de1H
	call	DWORD PTR ?pglCopyTexSubImage2D@@3P6GXIHHHHHHH@ZA ; pglCopyTexSubImage2D

; 697  : 
; 698  : 	pglViewport( 0, 0, glState.width, glState.height );

	mov	eax, DWORD PTR ?glState@@3UglState_t@@A+4
	push	eax
	mov	ecx, DWORD PTR ?glState@@3UglState_t@@A
	push	ecx
	push	0
	push	0
	call	DWORD PTR ?pglViewport@@3P6GXHHHH@ZA	; pglViewport

; 699  : 
; 700  : 	GL_BindShader( glsl.Glitch );

	mov	eax, DWORD PTR ?glsl@@3Uref_shaders_t@@A+52
	push	eax
	call	?GL_BindShader@@YAXPAUglsl_prog_s@@@Z	; GL_BindShader
	add	esp, 4

; 701  : 	ASSERT( RI->currentshader != NULL );

	mov	eax, DWORD PTR ?RI@@3PAUref_instance_t@@A ; RI
	cmp	DWORD PTR [eax+28], 0
	jne	SHORT $LN4@Glitch
	mov	eax, DWORD PTR ?__LINE__Var@?0??Glitch@@YAXXZ@4JA
	add	eax, 14					; 0000000eH
	push	eax
	push	OFFSET ??_C@_0FC@EOCCPBDF@d?3?2?$CBdiffusion?52020?2source?5code?52@
	push	OFFSET ??_C@_0BI@FECCGOFJ@assert?5failed?5at?5?$CFs?3?$CFi?6?$AA@
	call	DWORD PTR ?gRenderfuncs@@3Urender_api_s@@A+236
	add	esp, 12					; 0000000cH
$LN4@Glitch:

; 702  : 
; 703  : 	pglUniform1fARB( RI->currentshader->u_RealTime, tr.time );

	cvtsd2ss xmm0, QWORD PTR ?tr@@3Uref_globals_t@@A+8
	push	ecx
	movss	DWORD PTR [esp], xmm0
	mov	eax, DWORD PTR ?RI@@3PAUref_instance_t@@A ; RI
	mov	ecx, DWORD PTR [eax+28]
	mov	edx, DWORD PTR [ecx+868]
	push	edx
	call	DWORD PTR ?pglUniform1fARB@@3P6GXHM@ZA	; pglUniform1fARB

; 704  : 	pglUniform2fARB( RI->currentshader->u_ScreenSizeInv, 1.0f / (float)(glState.width), 1.0f / (float)(glState.height) );

	cvtsi2ss xmm0, DWORD PTR ?glState@@3UglState_t@@A+4
	movss	xmm1, DWORD PTR __real@3f800000
	divss	xmm1, xmm0
	push	ecx
	movss	DWORD PTR [esp], xmm1
	cvtsi2ss xmm0, DWORD PTR ?glState@@3UglState_t@@A
	movss	xmm1, DWORD PTR __real@3f800000
	divss	xmm1, xmm0
	push	ecx
	movss	DWORD PTR [esp], xmm1
	mov	eax, DWORD PTR ?RI@@3PAUref_instance_t@@A ; RI
	mov	ecx, DWORD PTR [eax+28]
	mov	edx, DWORD PTR [ecx+724]
	push	edx
	call	DWORD PTR ?pglUniform2fARB@@3P6GXHMM@ZA	; pglUniform2fARB

; 705  : 	pglUniform1fARB( RI->currentshader->u_Accum, gHUD.GlitchAmount );

	push	ecx
	movss	xmm0, DWORD PTR ?gHUD@@3VCHud@@A+172
	movss	DWORD PTR [esp], xmm0
	mov	eax, DWORD PTR ?RI@@3PAUref_instance_t@@A ; RI
	mov	ecx, DWORD PTR [eax+28]
	mov	edx, DWORD PTR [ecx+932]
	push	edx
	call	DWORD PTR ?pglUniform1fARB@@3P6GXHM@ZA	; pglUniform1fARB

; 706  : 
; 707  : 	GL_Bind( GL_TEXTURE0, tr.screen_color );

	mov	eax, DWORD PTR ?tr@@3Uref_globals_t@@A+5732
	push	eax
	push	0
	call	DWORD PTR ?gRenderfuncs@@3Urender_api_s@@A+132
	add	esp, 8

; 708  : 
; 709  : 	RenderFSQ( glState.width, glState.height );

	mov	eax, DWORD PTR ?glState@@3UglState_t@@A+4
	push	eax
	mov	ecx, DWORD PTR ?glState@@3UglState_t@@A
	push	ecx
	call	?RenderFSQ@@YAXHH@Z			; RenderFSQ
	add	esp, 8

; 710  : 
; 711  : 	GL_BindShader( NULL );

	push	0
	call	?GL_BindShader@@YAXPAUglsl_prog_s@@@Z	; GL_BindShader
	add	esp, 4

; 712  : 	GL_CleanUpTextureUnits( 0 );

	push	0
	call	DWORD PTR ?gRenderfuncs@@3Urender_api_s@@A+148
	add	esp, 4

; 713  : 
; 714  : 	r_stats.sh_glitch_pass++;

	mov	eax, DWORD PTR ?r_stats@@3Uref_stats_t@@A+136
	add	eax, 1
	mov	DWORD PTR ?r_stats@@3Uref_stats_t@@A+136, eax
$LN1@Glitch:

; 715  : }

	pop	edi
	pop	esi
	pop	ebx
	mov	esp, ebp
	pop	ebp
	ret	0
?Glitch@@YAXXZ ENDP					; Glitch
_TEXT	ENDS
; Function compile flags: /Odtp /ZI
; File d:\!diffusion 2020\source code 2022\client-server\client\render\r_postprocess.cpp
;	COMDAT ?ScreenWater@@YAXXZ
_TEXT	SEGMENT
_Speed$ = -4						; size = 4
?ScreenWater@@YAXXZ PROC				; ScreenWater, COMDAT

; 653  : {

	push	ebp
	mov	ebp, esp
	sub	esp, 68					; 00000044H
	push	ebx
	push	esi
	push	edi

; 654  : 	float Speed = gEngfuncs.GetLocalPlayer()->curstate.vuser1.x;

	call	DWORD PTR ?gEngfuncs@@3Ucl_enginefuncs_s@@A+204
	movss	xmm0, DWORD PTR [eax+980]
	movss	DWORD PTR _Speed$[ebp], xmm0

; 655  : 
; 656  : 	if( tr.time == tr.oldtime ) // paused

	movsd	xmm0, QWORD PTR ?tr@@3Uref_globals_t@@A+8
	ucomisd	xmm0, QWORD PTR ?tr@@3Uref_globals_t@@A+16
	lahf
	test	ah, 68					; 00000044H
	jp	SHORT $LN2@ScreenWate

; 657  : 		Speed = 0.0f;

	xorps	xmm0, xmm0
	movss	DWORD PTR _Speed$[ebp], xmm0
$LN2@ScreenWate:

; 658  : 
; 659  : 	if( Speed <= 0.0f )

	xorps	xmm0, xmm0
	comiss	xmm0, DWORD PTR _Speed$[ebp]
	jb	SHORT $LN3@ScreenWate

; 660  : 		return;

	jmp	$LN1@ScreenWate
$LN3@ScreenWate:

; 661  : 
; 662  : 	// capture screen
; 663  : 	GL_Bind( GL_TEXTURE0, tr.screen_color );

	mov	eax, DWORD PTR ?tr@@3Uref_globals_t@@A+5732
	push	eax
	push	0
	call	DWORD PTR ?gRenderfuncs@@3Urender_api_s@@A+132
	add	esp, 8

; 664  : 	pglCopyTexSubImage2D( GL_TEXTURE_2D, 0, 0, 0, 0, 0, glState.width, glState.height );

	mov	eax, DWORD PTR ?glState@@3UglState_t@@A+4
	push	eax
	mov	ecx, DWORD PTR ?glState@@3UglState_t@@A
	push	ecx
	push	0
	push	0
	push	0
	push	0
	push	0
	push	3553					; 00000de1H
	call	DWORD PTR ?pglCopyTexSubImage2D@@3P6GXIHHHHHHH@ZA ; pglCopyTexSubImage2D

; 665  : 
; 666  : 	pglViewport( 0, 0, glState.width, glState.height );

	mov	eax, DWORD PTR ?glState@@3UglState_t@@A+4
	push	eax
	mov	ecx, DWORD PTR ?glState@@3UglState_t@@A
	push	ecx
	push	0
	push	0
	call	DWORD PTR ?pglViewport@@3P6GXHHHH@ZA	; pglViewport

; 667  : 
; 668  : 	GL_BindShader( glsl.ScreenWater );

	mov	eax, DWORD PTR ?glsl@@3Uref_shaders_t@@A+48
	push	eax
	call	?GL_BindShader@@YAXPAUglsl_prog_s@@@Z	; GL_BindShader
	add	esp, 4

; 669  : 	ASSERT( RI->currentshader != NULL );

	mov	eax, DWORD PTR ?RI@@3PAUref_instance_t@@A ; RI
	cmp	DWORD PTR [eax+28], 0
	jne	SHORT $LN4@ScreenWate
	mov	eax, DWORD PTR ?__LINE__Var@?0??ScreenWater@@YAXXZ@4JA
	add	eax, 16					; 00000010H
	push	eax
	push	OFFSET ??_C@_0FC@EOCCPBDF@d?3?2?$CBdiffusion?52020?2source?5code?52@
	push	OFFSET ??_C@_0BI@FECCGOFJ@assert?5failed?5at?5?$CFs?3?$CFi?6?$AA@
	call	DWORD PTR ?gRenderfuncs@@3Urender_api_s@@A+236
	add	esp, 12					; 0000000cH
$LN4@ScreenWate:

; 670  : 
; 671  : 	pglUniform1fARB( RI->currentshader->u_RealTime, tr.time );

	cvtsd2ss xmm0, QWORD PTR ?tr@@3Uref_globals_t@@A+8
	push	ecx
	movss	DWORD PTR [esp], xmm0
	mov	eax, DWORD PTR ?RI@@3PAUref_instance_t@@A ; RI
	mov	ecx, DWORD PTR [eax+28]
	mov	edx, DWORD PTR [ecx+868]
	push	edx
	call	DWORD PTR ?pglUniform1fARB@@3P6GXHM@ZA	; pglUniform1fARB

; 672  : 	pglUniform2fARB( RI->currentshader->u_ScreenSizeInv, 1.0f / (float)(glState.width), 1.0f / (float)(glState.height) );

	cvtsi2ss xmm0, DWORD PTR ?glState@@3UglState_t@@A+4
	movss	xmm1, DWORD PTR __real@3f800000
	divss	xmm1, xmm0
	push	ecx
	movss	DWORD PTR [esp], xmm1
	cvtsi2ss xmm0, DWORD PTR ?glState@@3UglState_t@@A
	movss	xmm1, DWORD PTR __real@3f800000
	divss	xmm1, xmm0
	push	ecx
	movss	DWORD PTR [esp], xmm1
	mov	eax, DWORD PTR ?RI@@3PAUref_instance_t@@A ; RI
	mov	ecx, DWORD PTR [eax+28]
	mov	edx, DWORD PTR [ecx+724]
	push	edx
	call	DWORD PTR ?pglUniform2fARB@@3P6GXHMM@ZA	; pglUniform2fARB

; 673  : 	pglUniform1fARB( RI->currentshader->u_Accum, Speed );

	push	ecx
	movss	xmm0, DWORD PTR _Speed$[ebp]
	movss	DWORD PTR [esp], xmm0
	mov	eax, DWORD PTR ?RI@@3PAUref_instance_t@@A ; RI
	mov	ecx, DWORD PTR [eax+28]
	mov	edx, DWORD PTR [ecx+932]
	push	edx
	call	DWORD PTR ?pglUniform1fARB@@3P6GXHM@ZA	; pglUniform1fARB

; 674  : 
; 675  : 	GL_Bind( GL_TEXTURE0, tr.screen_color );

	mov	eax, DWORD PTR ?tr@@3Uref_globals_t@@A+5732
	push	eax
	push	0
	call	DWORD PTR ?gRenderfuncs@@3Urender_api_s@@A+132
	add	esp, 8

; 676  : 	GL_Bind( GL_TEXTURE1, ScreenWaterTexture );

	mov	eax, DWORD PTR ?ScreenWaterTexture@@3HA	; ScreenWaterTexture
	push	eax
	push	1
	call	DWORD PTR ?gRenderfuncs@@3Urender_api_s@@A+132
	add	esp, 8

; 677  : 
; 678  : 	RenderFSQ( glState.width, glState.height );

	mov	eax, DWORD PTR ?glState@@3UglState_t@@A+4
	push	eax
	mov	ecx, DWORD PTR ?glState@@3UglState_t@@A
	push	ecx
	call	?RenderFSQ@@YAXHH@Z			; RenderFSQ
	add	esp, 8

; 679  : 
; 680  : 	GL_BindShader( NULL );

	push	0
	call	?GL_BindShader@@YAXPAUglsl_prog_s@@@Z	; GL_BindShader
	add	esp, 4

; 681  : 	GL_CleanUpTextureUnits( 0 );

	push	0
	call	DWORD PTR ?gRenderfuncs@@3Urender_api_s@@A+148
	add	esp, 4

; 682  : 
; 683  : 	r_stats.sh_screenwater_pass++;

	mov	eax, DWORD PTR ?r_stats@@3Uref_stats_t@@A+120
	add	eax, 1
	mov	DWORD PTR ?r_stats@@3Uref_stats_t@@A+120, eax
$LN1@ScreenWate:

; 684  : }

	pop	edi
	pop	esi
	pop	ebx
	mov	esp, ebp
	pop	ebp
	ret	0
?ScreenWater@@YAXXZ ENDP				; ScreenWater
_TEXT	ENDS
; Function compile flags: /Odtp /ZI
; File d:\!diffusion 2020\source code 2022\client-server\client\render\r_postprocess.cpp
;	COMDAT ?HorizontalBlur@@YAXXZ
_TEXT	SEGMENT
tv195 = -184						; size = 8
tv344 = -176						; size = 8
tv194 = -176						; size = 8
tv165 = -176						; size = 4
tv161 = -176						; size = 4
tv164 = -172						; size = 4
tv160 = -172						; size = 4
tv68 = -169						; size = 1
_Strength$ = -104					; size = 4
_flYawDiffAdjusted$ = -100				; size = 4
_flYawDiffOriginal$ = -96				; size = 4
_flSideDotMotion$ = -92					; size = 4
_vCurrentSideVec$ = -88					; size = 12
_vPositionChange$ = -76					; size = 12
_mCurrentBasisVectors$ = -64				; size = 48
_PrevYaw$ = -16						; size = 4
_CurYaw$ = -12						; size = 4
_YawSpeed$ = -8						; size = 4
__$ArrayPad$ = -4					; size = 4
?HorizontalBlur@@YAXXZ PROC				; HorizontalBlur, COMDAT

; 561  : {

	push	ebp
	mov	ebp, esp
	sub	esp, 184				; 000000b8H
	mov	eax, DWORD PTR ___security_cookie
	xor	eax, ebp
	mov	DWORD PTR __$ArrayPad$[ebp], eax
	push	ebx
	push	esi
	push	edi

; 562  : 	float YawSpeed;
; 563  : 	static float Accum = 0.0f;
; 564  : 
; 565  : 	if( Accum == 0.0f ) // make sure it's faded out

	movss	xmm0, DWORD PTR ?Accum@?1??HorizontalBlur@@YAXXZ@4MA
	ucomiss	xmm0, DWORD PTR __real@00000000
	lahf
	test	ah, 68					; 00000044H
	jp	$LN14@Horizontal

; 566  : 	{
; 567  : 		if( !CVAR_TO_BOOL( r_blur ) )

	cmp	DWORD PTR ?r_blur@@3PAUcvar_s@@A, 0	; r_blur
	je	SHORT $LN26@Horizontal
	mov	eax, DWORD PTR ?r_blur@@3PAUcvar_s@@A	; r_blur
	movss	xmm0, DWORD PTR [eax+12]
	ucomiss	xmm0, DWORD PTR __real@00000000
	lahf
	test	ah, 68					; 00000044H
	jnp	SHORT $LN26@Horizontal
	mov	BYTE PTR tv68[ebp], 1
	jmp	SHORT $LN27@Horizontal
$LN26@Horizontal:
	mov	BYTE PTR tv68[ebp], 0
$LN27@Horizontal:
	movzx	ecx, BYTE PTR tv68[ebp]
	test	ecx, ecx
	jne	SHORT $LN11@Horizontal

; 568  : 			return;

	jmp	$LN1@Horizontal
$LN11@Horizontal:

; 569  : 
; 570  : 		if( RI->params & RP_THIRDPERSON )

	mov	eax, DWORD PTR ?RI@@3PAUref_instance_t@@A ; RI
	mov	ecx, DWORD PTR [eax]
	and	ecx, 8192				; 00002000H
	je	SHORT $LN12@Horizontal

; 571  : 			return;

	jmp	$LN1@Horizontal
$LN12@Horizontal:

; 572  : 
; 573  : 		// no blur if < 30 fps
; 574  : 		if( g_fFrametime > (1.0f / 30.0f) )

	movss	xmm0, DWORD PTR ?g_fFrametime@@3MA
	comiss	xmm0, DWORD PTR __real@3d088889
	jbe	SHORT $LN13@Horizontal

; 575  : 			return;

	jmp	$LN1@Horizontal
$LN13@Horizontal:

; 576  : 
; 577  : 		// do not allow this blur if we look too much up or down
; 578  : 		if( (tr.viewparams.viewangles.x < -45) || (tr.viewparams.viewangles.x > 45) )

	movss	xmm0, DWORD PTR __real@c2340000
	comiss	xmm0, DWORD PTR ?tr@@3Uref_globals_t@@A+5830668
	ja	SHORT $LN15@Horizontal
	movss	xmm0, DWORD PTR ?tr@@3Uref_globals_t@@A+5830668
	comiss	xmm0, DWORD PTR __real@42340000
	jbe	SHORT $LN14@Horizontal
$LN15@Horizontal:

; 579  : 			return;

	jmp	$LN1@Horizontal
$LN14@Horizontal:

; 580  : 	}
; 581  : 
; 582  : 	float CurYaw = tr.viewparams.viewangles.y;

	movss	xmm0, DWORD PTR ?tr@@3Uref_globals_t@@A+5830672
	movss	DWORD PTR _CurYaw$[ebp], xmm0
$LN2@Horizontal:

; 583  : 	while( CurYaw > 180.0f )

	movss	xmm0, DWORD PTR _CurYaw$[ebp]
	comiss	xmm0, DWORD PTR __real@43340000
	jbe	SHORT $LN3@Horizontal

; 584  : 		CurYaw -= 360.0f;

	movss	xmm0, DWORD PTR _CurYaw$[ebp]
	subss	xmm0, DWORD PTR __real@43b40000
	movss	DWORD PTR _CurYaw$[ebp], xmm0
	jmp	SHORT $LN2@Horizontal
$LN3@Horizontal:

; 585  : 	while( CurYaw < -180.0f )

	movss	xmm0, DWORD PTR __real@c3340000
	comiss	xmm0, DWORD PTR _CurYaw$[ebp]
	jbe	SHORT $LN5@Horizontal

; 586  : 		CurYaw += 360.0f;

	movss	xmm0, DWORD PTR _CurYaw$[ebp]
	addss	xmm0, DWORD PTR __real@43b40000
	movss	DWORD PTR _CurYaw$[ebp], xmm0
	jmp	SHORT $LN3@Horizontal
$LN5@Horizontal:

; 587  : 
; 588  : 	float PrevYaw = PrevViewAngles.y;

	movss	xmm0, DWORD PTR ?PrevViewAngles@@3VVector@@A+4
	movss	DWORD PTR _PrevYaw$[ebp], xmm0
$LN6@Horizontal:

; 589  : 	while( PrevYaw > 180.0f )

	movss	xmm0, DWORD PTR _PrevYaw$[ebp]
	comiss	xmm0, DWORD PTR __real@43340000
	jbe	SHORT $LN7@Horizontal

; 590  : 		PrevYaw -= 360.0f;

	movss	xmm0, DWORD PTR _PrevYaw$[ebp]
	subss	xmm0, DWORD PTR __real@43b40000
	movss	DWORD PTR _PrevYaw$[ebp], xmm0
	jmp	SHORT $LN6@Horizontal
$LN7@Horizontal:

; 591  : 	while( PrevYaw < -180.0f )

	movss	xmm0, DWORD PTR __real@c3340000
	comiss	xmm0, DWORD PTR _PrevYaw$[ebp]
	jbe	SHORT $LN9@Horizontal

; 592  : 		PrevYaw += 360.0f;

	movss	xmm0, DWORD PTR _PrevYaw$[ebp]
	addss	xmm0, DWORD PTR __real@43b40000
	movss	DWORD PTR _PrevYaw$[ebp], xmm0
	jmp	SHORT $LN7@Horizontal
$LN9@Horizontal:

; 593  : 
; 594  : 	// this hopefully disables the circle-strafing blur - copied from source sdk
; 595  : //-----------------------------------------------------------------------------------------------------------
; 596  : 	matrix3x4 mCurrentBasisVectors;

	lea	ecx, DWORD PTR _mCurrentBasisVectors$[ebp]
	call	??0matrix3x4@@QAE@XZ			; matrix3x4::matrix3x4

; 597  : 	AngleMatrix( tr.viewparams.viewangles, mCurrentBasisVectors );

	lea	eax, DWORD PTR _mCurrentBasisVectors$[ebp]
	push	eax
	push	OFFSET ?tr@@3Uref_globals_t@@A+5830668
	call	?AngleMatrix@@YAXABVVector@@AAVmatrix3x4@@@Z ; AngleMatrix
	add	esp, 8

; 598  : 	Vector vPositionChange = PrevViewOrg - tr.viewparams.vieworg;

	push	OFFSET ?tr@@3Uref_globals_t@@A+5830656
	lea	eax, DWORD PTR _vPositionChange$[ebp]
	push	eax
	mov	ecx, OFFSET ?PrevViewOrg@@3VVector@@A	; PrevViewOrg
	call	??GVector@@QBE?AV0@ABV0@@Z		; Vector::operator-

; 599  : 
; 600  : 	Vector vCurrentSideVec = Vector( mCurrentBasisVectors[0][1], mCurrentBasisVectors[1][1], mCurrentBasisVectors[2][1] );

	push	2
	lea	ecx, DWORD PTR _mCurrentBasisVectors$[ebp]
	call	??Amatrix3x4@@QAEPAMH@Z			; matrix3x4::operator[]
	mov	ecx, 4
	shl	ecx, 0
	push	ecx
	movss	xmm0, DWORD PTR [eax+ecx]
	movss	DWORD PTR [esp], xmm0
	push	1
	lea	ecx, DWORD PTR _mCurrentBasisVectors$[ebp]
	call	??Amatrix3x4@@QAEPAMH@Z			; matrix3x4::operator[]
	mov	edx, 4
	shl	edx, 0
	push	ecx
	movss	xmm0, DWORD PTR [eax+edx]
	movss	DWORD PTR [esp], xmm0
	push	0
	lea	ecx, DWORD PTR _mCurrentBasisVectors$[ebp]
	call	??Amatrix3x4@@QAEPAMH@Z			; matrix3x4::operator[]
	mov	ecx, 4
	shl	ecx, 0
	push	ecx
	movss	xmm0, DWORD PTR [eax+ecx]
	movss	DWORD PTR [esp], xmm0
	lea	ecx, DWORD PTR _vCurrentSideVec$[ebp]
	call	??0Vector@@QAE@MMM@Z			; Vector::Vector

; 601  : 	float flSideDotMotion = DotProduct( vCurrentSideVec, vPositionChange );

	lea	eax, DWORD PTR _vPositionChange$[ebp]
	push	eax
	lea	ecx, DWORD PTR _vCurrentSideVec$[ebp]
	push	ecx
	call	?DotProduct@@YAMABVVector@@0@Z		; DotProduct
	add	esp, 8
	fstp	DWORD PTR _flSideDotMotion$[ebp]

; 602  : 	float flYawDiffOriginal = PrevYaw - CurYaw;

	movss	xmm0, DWORD PTR _PrevYaw$[ebp]
	subss	xmm0, DWORD PTR _CurYaw$[ebp]
	movss	DWORD PTR _flYawDiffOriginal$[ebp], xmm0

; 603  : 	if( ((PrevYaw - CurYaw > 180.0f) || (PrevYaw - CurYaw < -180.0f)) &&

	movss	xmm0, DWORD PTR _PrevYaw$[ebp]
	subss	xmm0, DWORD PTR _CurYaw$[ebp]
	comiss	xmm0, DWORD PTR __real@43340000
	ja	SHORT $LN17@Horizontal
	movss	xmm0, DWORD PTR _PrevYaw$[ebp]
	subss	xmm0, DWORD PTR _CurYaw$[ebp]
	movss	xmm1, DWORD PTR __real@c3340000
	comiss	xmm1, xmm0
	jbe	SHORT $LN16@Horizontal
$LN17@Horizontal:
	movss	xmm0, DWORD PTR _PrevYaw$[ebp]
	addss	xmm0, DWORD PTR _CurYaw$[ebp]
	comiss	xmm0, DWORD PTR __real@c3340000
	jbe	SHORT $LN16@Horizontal
	movss	xmm0, DWORD PTR _PrevYaw$[ebp]
	addss	xmm0, DWORD PTR _CurYaw$[ebp]
	movss	xmm1, DWORD PTR __real@43340000
	comiss	xmm1, xmm0
	jbe	SHORT $LN16@Horizontal

; 604  : 		((PrevYaw + CurYaw > -180.0f) && (PrevYaw + CurYaw < 180.0f)) )
; 605  : 		flYawDiffOriginal = PrevYaw + CurYaw;

	movss	xmm0, DWORD PTR _PrevYaw$[ebp]
	addss	xmm0, DWORD PTR _CurYaw$[ebp]
	movss	DWORD PTR _flYawDiffOriginal$[ebp], xmm0
$LN16@Horizontal:

; 606  : 
; 607  : 	float flYawDiffAdjusted = flYawDiffOriginal + (flSideDotMotion / 3.0f);

	movss	xmm0, DWORD PTR _flSideDotMotion$[ebp]
	divss	xmm0, DWORD PTR __real@40400000
	addss	xmm0, DWORD PTR _flYawDiffOriginal$[ebp]
	movss	DWORD PTR _flYawDiffAdjusted$[ebp], xmm0

; 608  : 
; 609  : 	// Make sure the adjustment only lessens the effect, not magnify it or reverse it
; 610  : 	if( flYawDiffOriginal < 0.0f )

	xorps	xmm0, xmm0
	comiss	xmm0, DWORD PTR _flYawDiffOriginal$[ebp]
	jbe	SHORT $LN18@Horizontal

; 611  : 		flYawDiffAdjusted = bound( flYawDiffOriginal, flYawDiffAdjusted, 0.0f );

	movss	xmm0, DWORD PTR _flYawDiffAdjusted$[ebp]
	comiss	xmm0, DWORD PTR _flYawDiffOriginal$[ebp]
	jb	SHORT $LN30@Horizontal
	xorps	xmm0, xmm0
	comiss	xmm0, DWORD PTR _flYawDiffAdjusted$[ebp]
	jbe	SHORT $LN28@Horizontal
	movss	xmm0, DWORD PTR _flYawDiffAdjusted$[ebp]
	movss	DWORD PTR tv160[ebp], xmm0
	jmp	SHORT $LN29@Horizontal
$LN28@Horizontal:
	xorps	xmm0, xmm0
	movss	DWORD PTR tv160[ebp], xmm0
$LN29@Horizontal:
	movss	xmm0, DWORD PTR tv160[ebp]
	movss	DWORD PTR tv161[ebp], xmm0
	jmp	SHORT $LN31@Horizontal
$LN30@Horizontal:
	movss	xmm0, DWORD PTR _flYawDiffOriginal$[ebp]
	movss	DWORD PTR tv161[ebp], xmm0
$LN31@Horizontal:
	movss	xmm0, DWORD PTR tv161[ebp]
	movss	DWORD PTR _flYawDiffAdjusted$[ebp], xmm0

; 612  : 	else

	jmp	SHORT $LN19@Horizontal
$LN18@Horizontal:

; 613  : 		flYawDiffAdjusted = bound( 0.0f, flYawDiffAdjusted, flYawDiffOriginal );

	movss	xmm0, DWORD PTR _flYawDiffAdjusted$[ebp]
	comiss	xmm0, DWORD PTR __real@00000000
	jb	SHORT $LN34@Horizontal
	movss	xmm0, DWORD PTR _flYawDiffOriginal$[ebp]
	comiss	xmm0, DWORD PTR _flYawDiffAdjusted$[ebp]
	jbe	SHORT $LN32@Horizontal
	movss	xmm0, DWORD PTR _flYawDiffAdjusted$[ebp]
	movss	DWORD PTR tv164[ebp], xmm0
	jmp	SHORT $LN33@Horizontal
$LN32@Horizontal:
	movss	xmm0, DWORD PTR _flYawDiffOriginal$[ebp]
	movss	DWORD PTR tv164[ebp], xmm0
$LN33@Horizontal:
	movss	xmm0, DWORD PTR tv164[ebp]
	movss	DWORD PTR tv165[ebp], xmm0
	jmp	SHORT $LN35@Horizontal
$LN34@Horizontal:
	xorps	xmm0, xmm0
	movss	DWORD PTR tv165[ebp], xmm0
$LN35@Horizontal:
	movss	xmm0, DWORD PTR tv165[ebp]
	movss	DWORD PTR _flYawDiffAdjusted$[ebp], xmm0
$LN19@Horizontal:

; 614  : //-----------------------------------------------------------------------------------------------------------
; 615  : 
; 616  : 	float Strength = CVAR_GET_FLOAT( "r_blur_strength" );

	push	OFFSET ??_C@_0BA@IGAEPFGJ@r_blur_strength?$AA@
	call	DWORD PTR ?gEngfuncs@@3Ucl_enginefuncs_s@@A+60
	add	esp, 4
	fstp	DWORD PTR _Strength$[ebp]

; 617  : 
; 618  : 	YawSpeed = fabs( (PrevYaw - CurYaw) / g_fFrametime );

	movss	xmm0, DWORD PTR _PrevYaw$[ebp]
	subss	xmm0, DWORD PTR _CurYaw$[ebp]
	divss	xmm0, DWORD PTR ?g_fFrametime@@3MA
	cvtss2sd xmm0, xmm0
	sub	esp, 8
	movsd	QWORD PTR [esp], xmm0
	call	_fabs
	add	esp, 8
	fstp	DWORD PTR _YawSpeed$[ebp]

; 619  : 
; 620  : 	if( (YawSpeed > 10) && (fabs( flYawDiffAdjusted ) > 3) )

	movss	xmm0, DWORD PTR _YawSpeed$[ebp]
	comiss	xmm0, DWORD PTR __real@41200000
	jbe	SHORT $LN20@Horizontal
	cvtss2sd xmm0, DWORD PTR _flYawDiffAdjusted$[ebp]
	sub	esp, 8
	movsd	QWORD PTR [esp], xmm0
	call	_fabs
	add	esp, 8
	fstp	QWORD PTR tv344[ebp]
	movsd	xmm0, QWORD PTR tv344[ebp]
	comisd	xmm0, QWORD PTR __real@4008000000000000
	jbe	SHORT $LN20@Horizontal

; 621  : 		Accum += YawSpeed * 0.01 * Strength * 0.005;// g_fFrametime;   hmm, 0.005 worked better than using frametime. some magic, I guess.

	cvtss2sd xmm0, DWORD PTR _YawSpeed$[ebp]
	mulsd	xmm0, QWORD PTR __real@3f847ae147ae147b
	cvtss2sd xmm1, DWORD PTR _Strength$[ebp]
	mulsd	xmm0, xmm1
	mulsd	xmm0, QWORD PTR __real@3f747ae147ae147b
	cvtss2sd xmm1, DWORD PTR ?Accum@?1??HorizontalBlur@@YAXXZ@4MA
	addsd	xmm1, xmm0
	cvtsd2ss xmm0, xmm1
	movss	DWORD PTR ?Accum@?1??HorizontalBlur@@YAXXZ@4MA, xmm0

; 622  : 	else

	jmp	SHORT $LN22@Horizontal
$LN20@Horizontal:

; 623  : 	{
; 624  : 		if( Accum > 0 )

	movss	xmm0, DWORD PTR ?Accum@?1??HorizontalBlur@@YAXXZ@4MA
	comiss	xmm0, DWORD PTR __real@00000000
	jbe	SHORT $LN22@Horizontal

; 625  : 			Accum -= 20 * g_fFrametime;

	movss	xmm0, DWORD PTR __real@41a00000
	mulss	xmm0, DWORD PTR ?g_fFrametime@@3MA
	movss	xmm1, DWORD PTR ?Accum@?1??HorizontalBlur@@YAXXZ@4MA
	subss	xmm1, xmm0
	movss	DWORD PTR ?Accum@?1??HorizontalBlur@@YAXXZ@4MA, xmm1
$LN22@Horizontal:

; 626  : 	}
; 627  : 
; 628  : 	Accum = bound( 0, Accum, 1.0 );

	movss	xmm0, DWORD PTR ?Accum@?1??HorizontalBlur@@YAXXZ@4MA
	comiss	xmm0, DWORD PTR __real@00000000
	jb	SHORT $LN38@Horizontal
	cvtss2sd xmm0, DWORD PTR ?Accum@?1??HorizontalBlur@@YAXXZ@4MA
	movsd	xmm1, QWORD PTR __real@3ff0000000000000
	comisd	xmm1, xmm0
	jbe	SHORT $LN36@Horizontal
	cvtss2sd xmm0, DWORD PTR ?Accum@?1??HorizontalBlur@@YAXXZ@4MA
	movsd	QWORD PTR tv194[ebp], xmm0
	jmp	SHORT $LN37@Horizontal
$LN36@Horizontal:
	movsd	xmm0, QWORD PTR __real@3ff0000000000000
	movsd	QWORD PTR tv194[ebp], xmm0
$LN37@Horizontal:
	movsd	xmm0, QWORD PTR tv194[ebp]
	movsd	QWORD PTR tv195[ebp], xmm0
	jmp	SHORT $LN39@Horizontal
$LN38@Horizontal:
	xorps	xmm0, xmm0
	movsd	QWORD PTR tv195[ebp], xmm0
$LN39@Horizontal:
	cvtsd2ss xmm0, QWORD PTR tv195[ebp]
	movss	DWORD PTR ?Accum@?1??HorizontalBlur@@YAXXZ@4MA, xmm0

; 629  : 
; 630  : 	if( Accum < 0.01f )

	movss	xmm0, DWORD PTR __real@3c23d70a
	comiss	xmm0, DWORD PTR ?Accum@?1??HorizontalBlur@@YAXXZ@4MA
	jbe	SHORT $LN23@Horizontal

; 631  : 		return;

	jmp	$LN1@Horizontal
$LN23@Horizontal:

; 632  : 
; 633  : 	// capture screen
; 634  : 	GL_Bind( GL_TEXTURE0, tr.screen_color );

	mov	eax, DWORD PTR ?tr@@3Uref_globals_t@@A+5732
	push	eax
	push	0
	call	DWORD PTR ?gRenderfuncs@@3Urender_api_s@@A+132
	add	esp, 8

; 635  : 	pglCopyTexSubImage2D( GL_TEXTURE_2D, 0, 0, 0, 0, 0, glState.width, glState.height );

	mov	eax, DWORD PTR ?glState@@3UglState_t@@A+4
	push	eax
	mov	ecx, DWORD PTR ?glState@@3UglState_t@@A
	push	ecx
	push	0
	push	0
	push	0
	push	0
	push	0
	push	3553					; 00000de1H
	call	DWORD PTR ?pglCopyTexSubImage2D@@3P6GXIHHHHHHH@ZA ; pglCopyTexSubImage2D

; 636  : 
; 637  : 	pglViewport( 0, 0, glState.width, glState.height );

	mov	eax, DWORD PTR ?glState@@3UglState_t@@A+4
	push	eax
	mov	ecx, DWORD PTR ?glState@@3UglState_t@@A
	push	ecx
	push	0
	push	0
	call	DWORD PTR ?pglViewport@@3P6GXHHHH@ZA	; pglViewport

; 638  : 
; 639  : 	GL_BindShader( glsl.HorizontalBlur );

	mov	eax, DWORD PTR ?glsl@@3Uref_shaders_t@@A+44
	push	eax
	call	?GL_BindShader@@YAXPAUglsl_prog_s@@@Z	; GL_BindShader
	add	esp, 4

; 640  : 	ASSERT( RI->currentshader != NULL );

	mov	eax, DWORD PTR ?RI@@3PAUref_instance_t@@A ; RI
	cmp	DWORD PTR [eax+28], 0
	jne	SHORT $LN24@Horizontal
	mov	eax, DWORD PTR ?__LINE__Var@?0??HorizontalBlur@@YAXXZ@4JA
	add	eax, 79					; 0000004fH
	push	eax
	push	OFFSET ??_C@_0FC@EOCCPBDF@d?3?2?$CBdiffusion?52020?2source?5code?52@
	push	OFFSET ??_C@_0BI@FECCGOFJ@assert?5failed?5at?5?$CFs?3?$CFi?6?$AA@
	call	DWORD PTR ?gRenderfuncs@@3Urender_api_s@@A+236
	add	esp, 12					; 0000000cH
$LN24@Horizontal:

; 641  : 
; 642  : 	pglUniform1fARB( RI->currentshader->u_Accum, Accum );	// set blur factor

	push	ecx
	movss	xmm0, DWORD PTR ?Accum@?1??HorizontalBlur@@YAXXZ@4MA
	movss	DWORD PTR [esp], xmm0
	mov	eax, DWORD PTR ?RI@@3PAUref_instance_t@@A ; RI
	mov	ecx, DWORD PTR [eax+28]
	mov	edx, DWORD PTR [ecx+932]
	push	edx
	call	DWORD PTR ?pglUniform1fARB@@3P6GXHM@ZA	; pglUniform1fARB

; 643  : 
; 644  : 	RenderFSQ( glState.width, glState.height );

	mov	eax, DWORD PTR ?glState@@3UglState_t@@A+4
	push	eax
	mov	ecx, DWORD PTR ?glState@@3UglState_t@@A
	push	ecx
	call	?RenderFSQ@@YAXHH@Z			; RenderFSQ
	add	esp, 8

; 645  : 
; 646  : 	GL_BindShader( NULL );

	push	0
	call	?GL_BindShader@@YAXPAUglsl_prog_s@@@Z	; GL_BindShader
	add	esp, 4

; 647  : 	GL_CleanUpTextureUnits( 0 );

	push	0
	call	DWORD PTR ?gRenderfuncs@@3Urender_api_s@@A+148
	add	esp, 4

; 648  : 
; 649  : 	r_stats.sh_horizontalblur_pass++;

	mov	eax, DWORD PTR ?r_stats@@3Uref_stats_t@@A+116
	add	eax, 1
	mov	DWORD PTR ?r_stats@@3Uref_stats_t@@A+116, eax
$LN1@Horizontal:

; 650  : }

	pop	edi
	pop	esi
	pop	ebx
	mov	ecx, DWORD PTR __$ArrayPad$[ebp]
	xor	ecx, ebp
	call	@__security_check_cookie@4
	mov	esp, ebp
	pop	ebp
	ret	0
?HorizontalBlur@@YAXXZ ENDP				; HorizontalBlur
_TEXT	ENDS
; Function compile flags: /Odtp /ZI
; File d:\!diffusion 2020\source code 2022\client-server\client\render\r_postprocess.cpp
;	COMDAT ?MotionBlur@@YAXXZ
_TEXT	SEGMENT
tv132 = -108						; size = 8
tv131 = -100						; size = 8
tv68 = -93						; size = 1
_org$ = -28						; size = 12
_Accum$ = -16						; size = 4
_Threshold$ = -12					; size = 4
_PlayerVelocity$ = -8					; size = 4
_AllowBlur$ = -1					; size = 1
?MotionBlur@@YAXXZ PROC					; MotionBlur, COMDAT

; 378  : {

	push	ebp
	mov	ebp, esp
	sub	esp, 108				; 0000006cH
	push	ebx
	push	esi
	push	edi

; 379  : 	if( gHUD.DrunkLevel > 0 )

	cmp	DWORD PTR ?gHUD@@3VCHud@@A+124, 0
	jle	SHORT $LN2@MotionBlur

; 380  : 		goto allow_drunk;

	jmp	$LN3@MotionBlur
	jmp	$allow_drunk$16
$LN2@MotionBlur:

; 381  : 	
; 382  : 	bool AllowBlur = CVAR_TO_BOOL( r_blur );

	cmp	DWORD PTR ?r_blur@@3PAUcvar_s@@A, 0	; r_blur
	je	SHORT $LN10@MotionBlur
	mov	eax, DWORD PTR ?r_blur@@3PAUcvar_s@@A	; r_blur
	movss	xmm0, DWORD PTR [eax+12]
	ucomiss	xmm0, DWORD PTR __real@00000000
	lahf
	test	ah, 68					; 00000044H
	jnp	SHORT $LN10@MotionBlur
	mov	BYTE PTR tv68[ebp], 1
	jmp	SHORT $LN11@MotionBlur
$LN10@MotionBlur:
	mov	BYTE PTR tv68[ebp], 0
$LN11@MotionBlur:
	mov	cl, BYTE PTR tv68[ebp]
	mov	BYTE PTR _AllowBlur$[ebp], cl

; 383  : 	
; 384  : 	if( !AllowBlur )

	movzx	eax, BYTE PTR _AllowBlur$[ebp]
	test	eax, eax
	jne	SHORT $LN4@MotionBlur

; 385  : 		return;

	jmp	$LN1@MotionBlur
$LN4@MotionBlur:

; 386  : 
; 387  : 	float PlayerVelocity = tr.viewparams.simvel.Length();

	mov	ecx, OFFSET ?tr@@3Uref_globals_t@@A+5830744
	call	?Length@Vector@@QBEMXZ			; Vector::Length
	fstp	DWORD PTR _PlayerVelocity$[ebp]

; 388  : 	int Threshold = CVAR_GET_FLOAT( "r_blur_threshold" );

	push	OFFSET ??_C@_0BB@CAFICHGA@r_blur_threshold?$AA@
	call	DWORD PTR ?gEngfuncs@@3Ucl_enginefuncs_s@@A+60
	add	esp, 4
	call	__ftol2_sse
	mov	DWORD PTR _Threshold$[ebp], eax

; 389  : 
; 390  : 	// player is in car
; 391  : 	if( gEngfuncs.GetLocalPlayer()->curstate.vuser1.y > 0.0f )

	call	DWORD PTR ?gEngfuncs@@3Ucl_enginefuncs_s@@A+204
	movss	xmm0, DWORD PTR [eax+984]
	comiss	xmm0, DWORD PTR __real@00000000
	jbe	SHORT $LN5@MotionBlur

; 392  : 		PlayerVelocity = gEngfuncs.GetLocalPlayer()->curstate.vuser1.y;

	call	DWORD PTR ?gEngfuncs@@3Ucl_enginefuncs_s@@A+204
	movss	xmm0, DWORD PTR [eax+984]
	movss	DWORD PTR _PlayerVelocity$[ebp], xmm0
$LN5@MotionBlur:

; 393  : 
; 394  : 	if( Threshold > PlayerVelocity * 0.01 )

	cvtsi2sd xmm0, DWORD PTR _Threshold$[ebp]
	cvtss2sd xmm1, DWORD PTR _PlayerVelocity$[ebp]
	mulsd	xmm1, QWORD PTR __real@3f847ae147ae147b
	comisd	xmm0, xmm1
	jbe	SHORT $LN6@MotionBlur

; 395  : 		return;

	jmp	$LN1@MotionBlur
$LN6@MotionBlur:

; 396  : 
; 397  : 	float Accum = PlayerVelocity * 0.0001 - Threshold * 0.01;

	cvtss2sd xmm0, DWORD PTR _PlayerVelocity$[ebp]
	mulsd	xmm0, QWORD PTR __real@3f1a36e2eb1c432d
	cvtsi2sd xmm1, DWORD PTR _Threshold$[ebp]
	mulsd	xmm1, QWORD PTR __real@3f847ae147ae147b
	subsd	xmm0, xmm1
	cvtsd2ss xmm0, xmm0
	movss	DWORD PTR _Accum$[ebp], xmm0

; 398  : 	Accum = bound( 0, Accum, 0.2 );

	movss	xmm0, DWORD PTR _Accum$[ebp]
	comiss	xmm0, DWORD PTR __real@00000000
	jb	SHORT $LN14@MotionBlur
	cvtss2sd xmm0, DWORD PTR _Accum$[ebp]
	movsd	xmm1, QWORD PTR __real@3fc999999999999a
	comisd	xmm1, xmm0
	jbe	SHORT $LN12@MotionBlur
	cvtss2sd xmm0, DWORD PTR _Accum$[ebp]
	movsd	QWORD PTR tv131[ebp], xmm0
	jmp	SHORT $LN13@MotionBlur
$LN12@MotionBlur:
	movsd	xmm0, QWORD PTR __real@3fc999999999999a
	movsd	QWORD PTR tv131[ebp], xmm0
$LN13@MotionBlur:
	movsd	xmm0, QWORD PTR tv131[ebp]
	movsd	QWORD PTR tv132[ebp], xmm0
	jmp	SHORT $LN15@MotionBlur
$LN14@MotionBlur:
	xorps	xmm0, xmm0
	movsd	QWORD PTR tv132[ebp], xmm0
$LN15@MotionBlur:
	cvtsd2ss xmm0, QWORD PTR tv132[ebp]
	movss	DWORD PTR _Accum$[ebp], xmm0
$LN3@MotionBlur:
$allow_drunk$16:

; 399  : 
; 400  : allow_drunk:
; 401  : 	if( gHUD.DrunkLevel > 0 )

	cmp	DWORD PTR ?gHUD@@3VCHud@@A+124, 0
	jle	SHORT $LN7@MotionBlur

; 402  : 		Accum = gHUD.DrunkLevel * 0.1f;

	cvtsi2ss xmm0, DWORD PTR ?gHUD@@3VCHud@@A+124
	mulss	xmm0, DWORD PTR __real@3dcccccd
	movss	DWORD PTR _Accum$[ebp], xmm0
$LN7@MotionBlur:

; 403  : 
; 404  : 	Vector org;

	lea	ecx, DWORD PTR _org$[ebp]
	call	??0Vector@@QAE@XZ			; Vector::Vector

; 405  : 	R_TransformDeviceToScreen( g_vecZero, org ); // FIXME just center of the screen...

	lea	eax, DWORD PTR _org$[ebp]
	push	eax
	push	OFFSET ?g_vecZero@@3VVector@@B		; g_vecZero
	call	?R_TransformDeviceToScreen@@YAXABVVector@@AAV1@@Z ; R_TransformDeviceToScreen
	add	esp, 8

; 406  : 
; 407  : 	// capture screen
; 408  : 	GL_Bind( GL_TEXTURE0, tr.screen_color );

	mov	eax, DWORD PTR ?tr@@3Uref_globals_t@@A+5732
	push	eax
	push	0
	call	DWORD PTR ?gRenderfuncs@@3Urender_api_s@@A+132
	add	esp, 8

; 409  : 	pglCopyTexSubImage2D( GL_TEXTURE_2D, 0, 0, 0, 0, 0, glState.width, glState.height );

	mov	eax, DWORD PTR ?glState@@3UglState_t@@A+4
	push	eax
	mov	ecx, DWORD PTR ?glState@@3UglState_t@@A
	push	ecx
	push	0
	push	0
	push	0
	push	0
	push	0
	push	3553					; 00000de1H
	call	DWORD PTR ?pglCopyTexSubImage2D@@3P6GXIHHHHHHH@ZA ; pglCopyTexSubImage2D

; 410  : 
; 411  : 	pglViewport( 0, 0, glState.width, glState.height );

	mov	eax, DWORD PTR ?glState@@3UglState_t@@A+4
	push	eax
	mov	ecx, DWORD PTR ?glState@@3UglState_t@@A
	push	ecx
	push	0
	push	0
	call	DWORD PTR ?pglViewport@@3P6GXHHHH@ZA	; pglViewport

; 412  : 
; 413  : 	GL_BindShader( glsl.MotionBlur );

	mov	eax, DWORD PTR ?glsl@@3Uref_shaders_t@@A+40
	push	eax
	call	?GL_BindShader@@YAXPAUglsl_prog_s@@@Z	; GL_BindShader
	add	esp, 4

; 414  : 	ASSERT( RI->currentshader != NULL );

	mov	eax, DWORD PTR ?RI@@3PAUref_instance_t@@A ; RI
	cmp	DWORD PTR [eax+28], 0
	jne	SHORT $LN8@MotionBlur
	mov	eax, DWORD PTR ?__LINE__Var@?0??MotionBlur@@YAXXZ@4JA
	add	eax, 36					; 00000024H
	push	eax
	push	OFFSET ??_C@_0FC@EOCCPBDF@d?3?2?$CBdiffusion?52020?2source?5code?52@
	push	OFFSET ??_C@_0BI@FECCGOFJ@assert?5failed?5at?5?$CFs?3?$CFi?6?$AA@
	call	DWORD PTR ?gRenderfuncs@@3Urender_api_s@@A+236
	add	esp, 12					; 0000000cH
$LN8@MotionBlur:

; 415  : 
; 416  : 	pglUniform3fARB( RI->currentshader->u_MB_Velocity, org.x / glState.width, org.y / glState.height, org.z );

	push	ecx
	movss	xmm0, DWORD PTR _org$[ebp+8]
	movss	DWORD PTR [esp], xmm0
	cvtsi2ss xmm0, DWORD PTR ?glState@@3UglState_t@@A+4
	movss	xmm1, DWORD PTR _org$[ebp+4]
	divss	xmm1, xmm0
	push	ecx
	movss	DWORD PTR [esp], xmm1
	cvtsi2ss xmm0, DWORD PTR ?glState@@3UglState_t@@A
	movss	xmm1, DWORD PTR _org$[ebp]
	divss	xmm1, xmm0
	push	ecx
	movss	DWORD PTR [esp], xmm1
	mov	eax, DWORD PTR ?RI@@3PAUref_instance_t@@A ; RI
	mov	ecx, DWORD PTR [eax+28]
	mov	edx, DWORD PTR [ecx+936]
	push	edx
	call	DWORD PTR ?pglUniform3fARB@@3P6GXHMMM@ZA ; pglUniform3fARB

; 417  : 	pglUniform1fARB( RI->currentshader->u_Accum, Accum );

	push	ecx
	movss	xmm0, DWORD PTR _Accum$[ebp]
	movss	DWORD PTR [esp], xmm0
	mov	eax, DWORD PTR ?RI@@3PAUref_instance_t@@A ; RI
	mov	ecx, DWORD PTR [eax+28]
	mov	edx, DWORD PTR [ecx+932]
	push	edx
	call	DWORD PTR ?pglUniform1fARB@@3P6GXHM@ZA	; pglUniform1fARB

; 418  : 	GL_Bind( GL_TEXTURE0, tr.screen_color );

	mov	eax, DWORD PTR ?tr@@3Uref_globals_t@@A+5732
	push	eax
	push	0
	call	DWORD PTR ?gRenderfuncs@@3Urender_api_s@@A+132
	add	esp, 8

; 419  : 
; 420  : 	RenderFSQ( glState.width, glState.height );

	mov	eax, DWORD PTR ?glState@@3UglState_t@@A+4
	push	eax
	mov	ecx, DWORD PTR ?glState@@3UglState_t@@A
	push	ecx
	call	?RenderFSQ@@YAXHH@Z			; RenderFSQ
	add	esp, 8

; 421  : 
; 422  : 	GL_BindShader( NULL );

	push	0
	call	?GL_BindShader@@YAXPAUglsl_prog_s@@@Z	; GL_BindShader
	add	esp, 4

; 423  : 	GL_CleanUpTextureUnits( 0 );

	push	0
	call	DWORD PTR ?gRenderfuncs@@3Urender_api_s@@A+148
	add	esp, 4

; 424  : 
; 425  : 	r_stats.sh_motionblur_pass++;

	mov	eax, DWORD PTR ?r_stats@@3Uref_stats_t@@A+108
	add	eax, 1
	mov	DWORD PTR ?r_stats@@3Uref_stats_t@@A+108, eax
$LN1@MotionBlur:

; 426  : }

	pop	edi
	pop	esi
	pop	ebx
	mov	esp, ebp
	pop	ebp
	ret	0
?MotionBlur@@YAXXZ ENDP					; MotionBlur
_TEXT	ENDS
; Function compile flags: /Odtp /ZI
; File d:\!diffusion 2020\source code 2022\client-server\client\render\r_postprocess.cpp
;	COMDAT ?RenderGaussBlur@@YAXMM@Z
_TEXT	SEGMENT
_blur1$ = 8						; size = 4
_blur2$ = 12						; size = 4
?RenderGaussBlur@@YAXMM@Z PROC				; RenderGaussBlur, COMDAT

; 530  : {

	push	ebp
	mov	ebp, esp
	sub	esp, 64					; 00000040H
	push	ebx
	push	esi
	push	edi

; 531  : 	if( (blur1 <= 0.0f) && (blur2 <= 0.0f) )

	xorps	xmm0, xmm0
	comiss	xmm0, DWORD PTR _blur1$[ebp]
	jb	SHORT $LN2@RenderGaus
	xorps	xmm0, xmm0
	comiss	xmm0, DWORD PTR _blur2$[ebp]
	jb	SHORT $LN2@RenderGaus

; 532  : 		return;

	jmp	$LN1@RenderGaus
$LN2@RenderGaus:

; 533  : 
; 534  : 	// capture screen
; 535  : 	GL_Bind( GL_TEXTURE0, tr.screen_color );

	mov	eax, DWORD PTR ?tr@@3Uref_globals_t@@A+5732
	push	eax
	push	0
	call	DWORD PTR ?gRenderfuncs@@3Urender_api_s@@A+132
	add	esp, 8

; 536  : 	pglCopyTexSubImage2D( GL_TEXTURE_2D, 0, 0, 0, 0, 0, glState.width, glState.height );

	mov	eax, DWORD PTR ?glState@@3UglState_t@@A+4
	push	eax
	mov	ecx, DWORD PTR ?glState@@3UglState_t@@A
	push	ecx
	push	0
	push	0
	push	0
	push	0
	push	0
	push	3553					; 00000de1H
	call	DWORD PTR ?pglCopyTexSubImage2D@@3P6GXIHHHHHHH@ZA ; pglCopyTexSubImage2D

; 537  : 
; 538  : 	pglViewport( 0, 0, glState.width, glState.height );

	mov	eax, DWORD PTR ?glState@@3UglState_t@@A+4
	push	eax
	mov	ecx, DWORD PTR ?glState@@3UglState_t@@A
	push	ecx
	push	0
	push	0
	call	DWORD PTR ?pglViewport@@3P6GXHHHH@ZA	; pglViewport

; 539  : 
; 540  : 	GL_BindShader( glsl.blurShader[0] );

	mov	eax, 4
	imul	ecx, eax, 0
	mov	edx, DWORD PTR ?glsl@@3Uref_shaders_t@@A[ecx+4]
	push	edx
	call	?GL_BindShader@@YAXPAUglsl_prog_s@@@Z	; GL_BindShader
	add	esp, 4

; 541  : 	ASSERT( RI->currentshader != NULL );

	mov	eax, DWORD PTR ?RI@@3PAUref_instance_t@@A ; RI
	cmp	DWORD PTR [eax+28], 0
	jne	SHORT $LN3@RenderGaus
	mov	eax, DWORD PTR ?__LINE__Var@?0??RenderGaussBlur@@YAXMM@Z@4JA
	add	eax, 11					; 0000000bH
	push	eax
	push	OFFSET ??_C@_0FC@EOCCPBDF@d?3?2?$CBdiffusion?52020?2source?5code?52@
	push	OFFSET ??_C@_0BI@FECCGOFJ@assert?5failed?5at?5?$CFs?3?$CFi?6?$AA@
	call	DWORD PTR ?gRenderfuncs@@3Urender_api_s@@A+236
	add	esp, 12					; 0000000cH
$LN3@RenderGaus:

; 542  : 
; 543  : 	pglUniform2fARB( RI->currentshader->u_BlurFactor, blur1, blur2 );	// set blur factor

	push	ecx
	movss	xmm0, DWORD PTR _blur2$[ebp]
	movss	DWORD PTR [esp], xmm0
	push	ecx
	movss	xmm0, DWORD PTR _blur1$[ebp]
	movss	DWORD PTR [esp], xmm0
	mov	eax, DWORD PTR ?RI@@3PAUref_instance_t@@A ; RI
	mov	ecx, DWORD PTR [eax+28]
	mov	edx, DWORD PTR [ecx+712]
	push	edx
	call	DWORD PTR ?pglUniform2fARB@@3P6GXHMM@ZA	; pglUniform2fARB

; 544  : 
; 545  : 	RenderFSQ( glState.width, glState.height );

	mov	eax, DWORD PTR ?glState@@3UglState_t@@A+4
	push	eax
	mov	ecx, DWORD PTR ?glState@@3UglState_t@@A
	push	ecx
	call	?RenderFSQ@@YAXHH@Z			; RenderFSQ
	add	esp, 8

; 546  : 	pglCopyTexSubImage2D( GL_TEXTURE_2D, 0, 0, 0, 0, 0, glState.width, glState.height );

	mov	eax, DWORD PTR ?glState@@3UglState_t@@A+4
	push	eax
	mov	ecx, DWORD PTR ?glState@@3UglState_t@@A
	push	ecx
	push	0
	push	0
	push	0
	push	0
	push	0
	push	3553					; 00000de1H
	call	DWORD PTR ?pglCopyTexSubImage2D@@3P6GXIHHHHHHH@ZA ; pglCopyTexSubImage2D

; 547  : 	
; 548  : 	GL_BindShader( glsl.blurShader[1] );

	mov	eax, 4
	shl	eax, 0
	mov	ecx, DWORD PTR ?glsl@@3Uref_shaders_t@@A[eax+4]
	push	ecx
	call	?GL_BindShader@@YAXPAUglsl_prog_s@@@Z	; GL_BindShader
	add	esp, 4

; 549  : 	ASSERT( RI->currentshader != NULL );

	mov	eax, DWORD PTR ?RI@@3PAUref_instance_t@@A ; RI
	cmp	DWORD PTR [eax+28], 0
	jne	SHORT $LN4@RenderGaus
	mov	eax, DWORD PTR ?__LINE__Var@?0??RenderGaussBlur@@YAXMM@Z@4JA
	add	eax, 19					; 00000013H
	push	eax
	push	OFFSET ??_C@_0FC@EOCCPBDF@d?3?2?$CBdiffusion?52020?2source?5code?52@
	push	OFFSET ??_C@_0BI@FECCGOFJ@assert?5failed?5at?5?$CFs?3?$CFi?6?$AA@
	call	DWORD PTR ?gRenderfuncs@@3Urender_api_s@@A+236
	add	esp, 12					; 0000000cH
$LN4@RenderGaus:

; 550  : 
; 551  : 	pglUniform2fARB( RI->currentshader->u_BlurFactor, blur1, blur2 );	// set blur factor

	push	ecx
	movss	xmm0, DWORD PTR _blur2$[ebp]
	movss	DWORD PTR [esp], xmm0
	push	ecx
	movss	xmm0, DWORD PTR _blur1$[ebp]
	movss	DWORD PTR [esp], xmm0
	mov	eax, DWORD PTR ?RI@@3PAUref_instance_t@@A ; RI
	mov	ecx, DWORD PTR [eax+28]
	mov	edx, DWORD PTR [ecx+712]
	push	edx
	call	DWORD PTR ?pglUniform2fARB@@3P6GXHMM@ZA	; pglUniform2fARB

; 552  : 	RenderFSQ( glState.width, glState.height );

	mov	eax, DWORD PTR ?glState@@3UglState_t@@A+4
	push	eax
	mov	ecx, DWORD PTR ?glState@@3UglState_t@@A
	push	ecx
	call	?RenderFSQ@@YAXHH@Z			; RenderFSQ
	add	esp, 8

; 553  : 
; 554  : 	GL_BindShader( NULL );

	push	0
	call	?GL_BindShader@@YAXPAUglsl_prog_s@@@Z	; GL_BindShader
	add	esp, 4

; 555  : 	GL_CleanUpTextureUnits( 0 );

	push	0
	call	DWORD PTR ?gRenderfuncs@@3Urender_api_s@@A+148
	add	esp, 4

; 556  : 
; 557  : 	r_stats.sh_gaussblur_pass++;

	mov	eax, DWORD PTR ?r_stats@@3Uref_stats_t@@A+112
	add	eax, 1
	mov	DWORD PTR ?r_stats@@3Uref_stats_t@@A+112, eax
$LN1@RenderGaus:

; 558  : }

	pop	edi
	pop	esi
	pop	ebx
	mov	esp, ebp
	pop	ebp
	ret	0
?RenderGaussBlur@@YAXMM@Z ENDP				; RenderGaussBlur
_TEXT	ENDS
; Function compile flags: /Odtp /ZI
; File d:\!diffusion 2020\source code 2022\client-server\client\render\r_postprocess.cpp
;	COMDAT ?GaussBlur@@YAXXZ
_TEXT	SEGMENT
tv294 = -228						; size = 8
tv232 = -228						; size = 8
tv156 = -228						; size = 8
tv130 = -228						; size = 8
tv293 = -220						; size = 8
tv231 = -220						; size = 8
tv155 = -220						; size = 8
tv129 = -220						; size = 8
tv318 = -216						; size = 4
tv80 = -213						; size = 1
tv67 = -213						; size = 1
$T1 = -212						; size = 12
$T2 = -200						; size = 12
_texName$3 = -124					; size = 4
_Forward$4 = -120					; size = 12
_VecEnd$5 = -108					; size = 12
_PlayerAngles$6 = -96					; size = 12
_PlayerOrg$7 = -84					; size = 12
_ptr$8 = -72						; size = 68
_AllowBlur$ = -1					; size = 1
?GaussBlur@@YAXXZ PROC					; GaussBlur, COMDAT

; 429  : {

	push	ebp
	mov	ebp, esp
	sub	esp, 228				; 000000e4H
	push	ebx
	push	esi
	push	edi

; 430  : 	static float skyblur, screenblur, pausedblur, waterblur;
; 431  : 
; 432  : 	bool AllowBlur = CVAR_TO_BOOL( r_blur );

	cmp	DWORD PTR ?r_blur@@3PAUcvar_s@@A, 0	; r_blur
	je	SHORT $LN23@GaussBlur
	mov	eax, DWORD PTR ?r_blur@@3PAUcvar_s@@A	; r_blur
	movss	xmm0, DWORD PTR [eax+12]
	ucomiss	xmm0, DWORD PTR __real@00000000
	lahf
	test	ah, 68					; 00000044H
	jnp	SHORT $LN23@GaussBlur
	mov	BYTE PTR tv67[ebp], 1
	jmp	SHORT $LN24@GaussBlur
$LN23@GaussBlur:
	mov	BYTE PTR tv67[ebp], 0
$LN24@GaussBlur:
	mov	cl, BYTE PTR tv67[ebp]
	mov	BYTE PTR _AllowBlur$[ebp], cl

; 433  : 
; 434  : 	if( !AllowBlur )

	movzx	eax, BYTE PTR _AllowBlur$[ebp]
	test	eax, eax
	jne	SHORT $LN2@GaussBlur

; 435  : 	{
; 436  : 		screenblur = 0;

	xorps	xmm0, xmm0
	movss	DWORD PTR ?screenblur@?1??GaussBlur@@YAXXZ@4MA, xmm0

; 437  : 		waterblur = 0;

	xorps	xmm0, xmm0
	movss	DWORD PTR ?waterblur@?1??GaussBlur@@YAXXZ@4MA, xmm0
$LN2@GaussBlur:

; 438  : 	}
; 439  : 
; 440  : 	// blur when paused (menu is shown)
; 441  : 	if( RP_NORMALPASS() && !CVAR_GET_FLOAT( "cl_background" ) )

	mov	eax, DWORD PTR ?RI@@3PAUref_instance_t@@A ; RI
	mov	ecx, DWORD PTR [eax]
	and	ecx, 483				; 000001e3H
	jne	$LN7@GaussBlur
	push	OFFSET ??_C@_0O@NGAMONDD@cl_background?$AA@
	call	DWORD PTR ?gEngfuncs@@3Ucl_enginefuncs_s@@A+60
	add	esp, 4
	fstp	DWORD PTR tv318[ebp]
	movss	xmm0, DWORD PTR tv318[ebp]
	ucomiss	xmm0, DWORD PTR __real@00000000
	lahf
	test	ah, 68					; 00000044H
	jp	$LN7@GaussBlur

; 442  : 	{
; 443  : 		if( tr.time == tr.oldtime || CVAR_TO_BOOL( ui_is_active ) )

	movsd	xmm0, QWORD PTR ?tr@@3Uref_globals_t@@A+8
	ucomisd	xmm0, QWORD PTR ?tr@@3Uref_globals_t@@A+16
	lahf
	test	ah, 68					; 00000044H
	jnp	SHORT $LN6@GaussBlur
	cmp	DWORD PTR ?ui_is_active@@3PAUcvar_s@@A, 0 ; ui_is_active
	je	SHORT $LN25@GaussBlur
	mov	eax, DWORD PTR ?ui_is_active@@3PAUcvar_s@@A ; ui_is_active
	movss	xmm0, DWORD PTR [eax+12]
	ucomiss	xmm0, DWORD PTR __real@00000000
	lahf
	test	ah, 68					; 00000044H
	jnp	SHORT $LN25@GaussBlur
	mov	BYTE PTR tv80[ebp], 1
	jmp	SHORT $LN26@GaussBlur
$LN25@GaussBlur:
	mov	BYTE PTR tv80[ebp], 0
$LN26@GaussBlur:
	movzx	ecx, BYTE PTR tv80[ebp]
	test	ecx, ecx
	je	SHORT $LN4@GaussBlur
$LN6@GaussBlur:

; 444  : 			pausedblur += 0.5 * g_fFrametime;

	cvtss2sd xmm0, DWORD PTR ?g_fFrametime@@3MA
	mulsd	xmm0, QWORD PTR __real@3fe0000000000000
	cvtss2sd xmm1, DWORD PTR ?pausedblur@?1??GaussBlur@@YAXXZ@4MA
	addsd	xmm1, xmm0
	cvtsd2ss xmm0, xmm1
	movss	DWORD PTR ?pausedblur@?1??GaussBlur@@YAXXZ@4MA, xmm0

; 445  : 		else

	jmp	SHORT $LN5@GaussBlur
$LN4@GaussBlur:

; 446  : 			pausedblur -= 0.5 * g_fFrametime;

	cvtss2sd xmm0, DWORD PTR ?g_fFrametime@@3MA
	mulsd	xmm0, QWORD PTR __real@3fe0000000000000
	cvtss2sd xmm1, DWORD PTR ?pausedblur@?1??GaussBlur@@YAXXZ@4MA
	subsd	xmm1, xmm0
	cvtsd2ss xmm0, xmm1
	movss	DWORD PTR ?pausedblur@?1??GaussBlur@@YAXXZ@4MA, xmm0
$LN5@GaussBlur:

; 447  : 
; 448  : 		pausedblur = bound( 0, pausedblur, 0.1 );

	movss	xmm0, DWORD PTR ?pausedblur@?1??GaussBlur@@YAXXZ@4MA
	comiss	xmm0, DWORD PTR __real@00000000
	jb	SHORT $LN29@GaussBlur
	cvtss2sd xmm0, DWORD PTR ?pausedblur@?1??GaussBlur@@YAXXZ@4MA
	movsd	xmm1, QWORD PTR __real@3fb999999999999a
	comisd	xmm1, xmm0
	jbe	SHORT $LN27@GaussBlur
	cvtss2sd xmm0, DWORD PTR ?pausedblur@?1??GaussBlur@@YAXXZ@4MA
	movsd	QWORD PTR tv129[ebp], xmm0
	jmp	SHORT $LN28@GaussBlur
$LN27@GaussBlur:
	movsd	xmm0, QWORD PTR __real@3fb999999999999a
	movsd	QWORD PTR tv129[ebp], xmm0
$LN28@GaussBlur:
	movsd	xmm0, QWORD PTR tv129[ebp]
	movsd	QWORD PTR tv130[ebp], xmm0
	jmp	SHORT $LN30@GaussBlur
$LN29@GaussBlur:
	xorps	xmm0, xmm0
	movsd	QWORD PTR tv130[ebp], xmm0
$LN30@GaussBlur:
	cvtsd2ss xmm0, QWORD PTR tv130[ebp]
	movss	DWORD PTR ?pausedblur@?1??GaussBlur@@YAXXZ@4MA, xmm0

; 449  : 
; 450  : 		if( pausedblur > 0 )

	movss	xmm0, DWORD PTR ?pausedblur@?1??GaussBlur@@YAXXZ@4MA
	comiss	xmm0, DWORD PTR __real@00000000
	jbe	SHORT $LN7@GaussBlur

; 451  : 		{
; 452  : 			RenderGaussBlur( pausedblur, pausedblur );

	push	ecx
	movss	xmm0, DWORD PTR ?pausedblur@?1??GaussBlur@@YAXXZ@4MA
	movss	DWORD PTR [esp], xmm0
	push	ecx
	movss	xmm0, DWORD PTR ?pausedblur@?1??GaussBlur@@YAXXZ@4MA
	movss	DWORD PTR [esp], xmm0
	call	?RenderGaussBlur@@YAXMM@Z		; RenderGaussBlur
	add	esp, 8

; 453  : 			return;

	jmp	$LN1@GaussBlur
$LN7@GaussBlur:

; 454  : 		}
; 455  : 	}
; 456  : 
; 457  : 	if( RP_NORMALPASS() && AllowBlur )

	mov	eax, DWORD PTR ?RI@@3PAUref_instance_t@@A ; RI
	mov	ecx, DWORD PTR [eax]
	and	ecx, 483				; 000001e3H
	jne	$LN11@GaussBlur
	movzx	eax, BYTE PTR _AllowBlur$[ebp]
	test	eax, eax
	je	$LN11@GaussBlur

; 458  : 	{
; 459  : 		if( tr.viewparams.waterlevel > 2 )

	cmp	DWORD PTR ?tr@@3Uref_globals_t@@A+5830740, 2
	jle	SHORT $LN9@GaussBlur

; 460  : 			waterblur += 0.1 * g_fFrametime;

	cvtss2sd xmm0, DWORD PTR ?g_fFrametime@@3MA
	mulsd	xmm0, QWORD PTR __real@3fb999999999999a
	cvtss2sd xmm1, DWORD PTR ?waterblur@?1??GaussBlur@@YAXXZ@4MA
	addsd	xmm1, xmm0
	cvtsd2ss xmm0, xmm1
	movss	DWORD PTR ?waterblur@?1??GaussBlur@@YAXXZ@4MA, xmm0

; 461  : 		else

	jmp	SHORT $LN10@GaussBlur
$LN9@GaussBlur:

; 462  : 			waterblur -= 0.1 * g_fFrametime;

	cvtss2sd xmm0, DWORD PTR ?g_fFrametime@@3MA
	mulsd	xmm0, QWORD PTR __real@3fb999999999999a
	cvtss2sd xmm1, DWORD PTR ?waterblur@?1??GaussBlur@@YAXXZ@4MA
	subsd	xmm1, xmm0
	cvtsd2ss xmm0, xmm1
	movss	DWORD PTR ?waterblur@?1??GaussBlur@@YAXXZ@4MA, xmm0
$LN10@GaussBlur:

; 463  : 
; 464  : 		waterblur = bound( 0, waterblur, 0.04 );

	movss	xmm0, DWORD PTR ?waterblur@?1??GaussBlur@@YAXXZ@4MA
	comiss	xmm0, DWORD PTR __real@00000000
	jb	SHORT $LN33@GaussBlur
	cvtss2sd xmm0, DWORD PTR ?waterblur@?1??GaussBlur@@YAXXZ@4MA
	movsd	xmm1, QWORD PTR __real@3fa47ae147ae147b
	comisd	xmm1, xmm0
	jbe	SHORT $LN31@GaussBlur
	cvtss2sd xmm0, DWORD PTR ?waterblur@?1??GaussBlur@@YAXXZ@4MA
	movsd	QWORD PTR tv155[ebp], xmm0
	jmp	SHORT $LN32@GaussBlur
$LN31@GaussBlur:
	movsd	xmm0, QWORD PTR __real@3fa47ae147ae147b
	movsd	QWORD PTR tv155[ebp], xmm0
$LN32@GaussBlur:
	movsd	xmm0, QWORD PTR tv155[ebp]
	movsd	QWORD PTR tv156[ebp], xmm0
	jmp	SHORT $LN34@GaussBlur
$LN33@GaussBlur:
	xorps	xmm0, xmm0
	movsd	QWORD PTR tv156[ebp], xmm0
$LN34@GaussBlur:
	cvtsd2ss xmm0, QWORD PTR tv156[ebp]
	movss	DWORD PTR ?waterblur@?1??GaussBlur@@YAXXZ@4MA, xmm0

; 465  : 
; 466  : 		RenderGaussBlur( waterblur, waterblur );

	push	ecx
	movss	xmm0, DWORD PTR ?waterblur@?1??GaussBlur@@YAXXZ@4MA
	movss	DWORD PTR [esp], xmm0
	push	ecx
	movss	xmm0, DWORD PTR ?waterblur@?1??GaussBlur@@YAXXZ@4MA
	movss	DWORD PTR [esp], xmm0
	call	?RenderGaussBlur@@YAXMM@Z		; RenderGaussBlur
	add	esp, 8

; 467  : 
; 468  : 		if( waterblur > 0 )

	movss	xmm0, DWORD PTR ?waterblur@?1??GaussBlur@@YAXXZ@4MA
	comiss	xmm0, DWORD PTR __real@00000000
	jbe	SHORT $LN11@GaussBlur

; 469  : 		{
; 470  : 			screenblur = 0.0f; // need to reset the other blur

	xorps	xmm0, xmm0
	movss	DWORD PTR ?screenblur@?1??GaussBlur@@YAXXZ@4MA, xmm0

; 471  : 			return;

	jmp	$LN1@GaussBlur
$LN11@GaussBlur:

; 472  : 		}
; 473  : 	}
; 474  : 
; 475  : 	if( RI->params & RP_SKYPORTALVIEW ) // FIXME only works when 3D sky is present

	mov	eax, DWORD PTR ?RI@@3PAUref_instance_t@@A ; RI
	mov	ecx, DWORD PTR [eax]
	and	ecx, 32					; 00000020H
	je	$LN12@GaussBlur

; 476  : 	{
; 477  : 		if( tr.shader_modifier != NULL )

	cmp	DWORD PTR ?tr@@3Uref_globals_t@@A+5852560, 0
	je	SHORT $LN14@GaussBlur

; 478  : 		{
; 479  : 			// mapper disabled the 3D sky blur on this map
; 480  : 			if( tr.shader_modifier->curstate.iuser1 == 1 )

	mov	eax, DWORD PTR ?tr@@3Uref_globals_t@@A+5852560
	cmp	DWORD PTR [eax+948], 1
	jne	SHORT $LN14@GaussBlur

; 481  : 				return;

	jmp	$LN1@GaussBlur
$LN14@GaussBlur:

; 482  : 		}
; 483  : 		
; 484  : 		pmtrace_t ptr;

	lea	ecx, DWORD PTR _ptr$8[ebp]
	call	??0pmtrace_s@@QAE@XZ

; 485  : 		Vector PlayerOrg, PlayerAngles, VecEnd, Forward;

	lea	ecx, DWORD PTR _PlayerOrg$7[ebp]
	call	??0Vector@@QAE@XZ			; Vector::Vector
	lea	ecx, DWORD PTR _PlayerAngles$6[ebp]
	call	??0Vector@@QAE@XZ			; Vector::Vector
	lea	ecx, DWORD PTR _VecEnd$5[ebp]
	call	??0Vector@@QAE@XZ			; Vector::Vector
	lea	ecx, DWORD PTR _Forward$4[ebp]
	call	??0Vector@@QAE@XZ			; Vector::Vector

; 486  : 
; 487  : 		PlayerOrg = tr.viewparams.vieworg;

	mov	eax, DWORD PTR ?tr@@3Uref_globals_t@@A+5830656
	mov	DWORD PTR _PlayerOrg$7[ebp], eax
	mov	ecx, DWORD PTR ?tr@@3Uref_globals_t@@A+5830660
	mov	DWORD PTR _PlayerOrg$7[ebp+4], ecx
	mov	edx, DWORD PTR ?tr@@3Uref_globals_t@@A+5830664
	mov	DWORD PTR _PlayerOrg$7[ebp+8], edx

; 488  : 		PlayerAngles = tr.viewparams.viewangles;

	mov	eax, DWORD PTR ?tr@@3Uref_globals_t@@A+5830668
	mov	DWORD PTR _PlayerAngles$6[ebp], eax
	mov	ecx, DWORD PTR ?tr@@3Uref_globals_t@@A+5830672
	mov	DWORD PTR _PlayerAngles$6[ebp+4], ecx
	mov	edx, DWORD PTR ?tr@@3Uref_globals_t@@A+5830676
	mov	DWORD PTR _PlayerAngles$6[ebp+8], edx

; 489  : 		gEngfuncs.pfnAngleVectors( PlayerAngles, Forward, NULL, NULL );

	push	0
	push	0
	lea	ecx, DWORD PTR _Forward$4[ebp]
	call	??BVector@@QAEPAMXZ			; Vector::operator float *
	push	eax
	lea	ecx, DWORD PTR _PlayerAngles$6[ebp]
	call	??BVector@@QAEPAMXZ			; Vector::operator float *
	push	eax
	call	DWORD PTR ?gEngfuncs@@3Ucl_enginefuncs_s@@A+96
	add	esp, 16					; 00000010H

; 490  : 		VecEnd = PlayerOrg + Forward * 50000;

	push	ecx
	movss	xmm0, DWORD PTR __real@47435000
	movss	DWORD PTR [esp], xmm0
	lea	eax, DWORD PTR $T2[ebp]
	push	eax
	lea	ecx, DWORD PTR _Forward$4[ebp]
	call	??DVector@@QBE?AV0@M@Z			; Vector::operator*
	push	eax
	lea	ecx, DWORD PTR $T1[ebp]
	push	ecx
	lea	ecx, DWORD PTR _PlayerOrg$7[ebp]
	call	??HVector@@QBE?AV0@ABV0@@Z		; Vector::operator+
	mov	edx, DWORD PTR [eax]
	mov	DWORD PTR _VecEnd$5[ebp], edx
	mov	ecx, DWORD PTR [eax+4]
	mov	DWORD PTR _VecEnd$5[ebp+4], ecx
	mov	edx, DWORD PTR [eax+8]
	mov	DWORD PTR _VecEnd$5[ebp+8], edx

; 491  : 		gEngfuncs.pEventAPI->EV_SetTraceHull( 2 );

	push	2
	mov	eax, DWORD PTR ?gEngfuncs@@3Ucl_enginefuncs_s@@A+336
	mov	ecx, DWORD PTR [eax+56]
	call	ecx
	add	esp, 4

; 492  : 		gEngfuncs.pEventAPI->EV_PlayerTrace( PlayerOrg, VecEnd, PM_GLASS_IGNORE, -1, &ptr );

	lea	eax, DWORD PTR _ptr$8[ebp]
	push	eax
	push	-1
	push	4
	lea	ecx, DWORD PTR _VecEnd$5[ebp]
	call	??BVector@@QAEPAMXZ			; Vector::operator float *
	push	eax
	lea	ecx, DWORD PTR _PlayerOrg$7[ebp]
	call	??BVector@@QAEPAMXZ			; Vector::operator float *
	push	eax
	mov	ecx, DWORD PTR ?gEngfuncs@@3Ucl_enginefuncs_s@@A+336
	mov	edx, DWORD PTR [ecx+60]
	call	edx
	add	esp, 20					; 00000014H

; 493  : 		
; 494  : 		const char *texName = gEngfuncs.pEventAPI->EV_TraceTexture( ptr.ent, PlayerOrg, VecEnd );

	lea	ecx, DWORD PTR _VecEnd$5[ebp]
	call	??BVector@@QAEPAMXZ			; Vector::operator float *
	push	eax
	lea	ecx, DWORD PTR _PlayerOrg$7[ebp]
	call	??BVector@@QAEPAMXZ			; Vector::operator float *
	push	eax
	mov	eax, DWORD PTR _ptr$8[ebp+48]
	push	eax
	mov	ecx, DWORD PTR ?gEngfuncs@@3Ucl_enginefuncs_s@@A+336
	mov	edx, DWORD PTR [ecx+76]
	call	edx
	add	esp, 12					; 0000000cH
	mov	DWORD PTR _texName$3[ebp], eax

; 495  : 		if( texName && !Q_strnicmp( texName, "sky", 3 ) )

	cmp	DWORD PTR _texName$3[ebp], 0
	je	SHORT $LN15@GaussBlur
	push	3
	push	OFFSET ??_C@_03BNEOMJOP@sky?$AA@
	mov	eax, DWORD PTR _texName$3[ebp]
	push	eax
	call	?Q_strnicmp@@YAHPBD0H@Z			; Q_strnicmp
	add	esp, 12					; 0000000cH
	test	eax, eax
	jne	SHORT $LN15@GaussBlur

; 496  : 			skyblur -= 0.1 * g_fFrametime;

	cvtss2sd xmm0, DWORD PTR ?g_fFrametime@@3MA
	mulsd	xmm0, QWORD PTR __real@3fb999999999999a
	cvtss2sd xmm1, DWORD PTR ?skyblur@?1??GaussBlur@@YAXXZ@4MA
	subsd	xmm1, xmm0
	cvtsd2ss xmm0, xmm1
	movss	DWORD PTR ?skyblur@?1??GaussBlur@@YAXXZ@4MA, xmm0

; 497  : 		else

	jmp	SHORT $LN16@GaussBlur
$LN15@GaussBlur:

; 498  : 			skyblur += 0.1 * g_fFrametime;

	cvtss2sd xmm0, DWORD PTR ?g_fFrametime@@3MA
	mulsd	xmm0, QWORD PTR __real@3fb999999999999a
	cvtss2sd xmm1, DWORD PTR ?skyblur@?1??GaussBlur@@YAXXZ@4MA
	addsd	xmm1, xmm0
	cvtsd2ss xmm0, xmm1
	movss	DWORD PTR ?skyblur@?1??GaussBlur@@YAXXZ@4MA, xmm0
$LN16@GaussBlur:

; 499  : 
; 500  : 		skyblur = bound( 0, skyblur, 0.02 );

	movss	xmm0, DWORD PTR ?skyblur@?1??GaussBlur@@YAXXZ@4MA
	comiss	xmm0, DWORD PTR __real@00000000
	jb	SHORT $LN37@GaussBlur
	cvtss2sd xmm0, DWORD PTR ?skyblur@?1??GaussBlur@@YAXXZ@4MA
	movsd	xmm1, QWORD PTR __real@3f947ae147ae147b
	comisd	xmm1, xmm0
	jbe	SHORT $LN35@GaussBlur
	cvtss2sd xmm0, DWORD PTR ?skyblur@?1??GaussBlur@@YAXXZ@4MA
	movsd	QWORD PTR tv231[ebp], xmm0
	jmp	SHORT $LN36@GaussBlur
$LN35@GaussBlur:
	movsd	xmm0, QWORD PTR __real@3f947ae147ae147b
	movsd	QWORD PTR tv231[ebp], xmm0
$LN36@GaussBlur:
	movsd	xmm0, QWORD PTR tv231[ebp]
	movsd	QWORD PTR tv232[ebp], xmm0
	jmp	SHORT $LN38@GaussBlur
$LN37@GaussBlur:
	xorps	xmm0, xmm0
	movsd	QWORD PTR tv232[ebp], xmm0
$LN38@GaussBlur:
	cvtsd2ss xmm0, QWORD PTR tv232[ebp]
	movss	DWORD PTR ?skyblur@?1??GaussBlur@@YAXXZ@4MA, xmm0

; 501  : 		RenderGaussBlur( skyblur, skyblur );

	push	ecx
	movss	xmm0, DWORD PTR ?skyblur@?1??GaussBlur@@YAXXZ@4MA
	movss	DWORD PTR [esp], xmm0
	push	ecx
	movss	xmm0, DWORD PTR ?skyblur@?1??GaussBlur@@YAXXZ@4MA
	movss	DWORD PTR [esp], xmm0
	call	?RenderGaussBlur@@YAXMM@Z		; RenderGaussBlur
	add	esp, 8
$LN12@GaussBlur:

; 502  : 	}
; 503  : 	
; 504  : 	// full-screen blur when taking heavy damage
; 505  : 	if( RP_NORMALPASS() && AllowBlur )

	mov	eax, DWORD PTR ?RI@@3PAUref_instance_t@@A ; RI
	mov	ecx, DWORD PTR [eax]
	and	ecx, 483				; 000001e3H
	jne	$LN17@GaussBlur
	movzx	eax, BYTE PTR _AllowBlur$[ebp]
	test	eax, eax
	je	$LN17@GaussBlur

; 506  : 	{
; 507  : 		if( gHUD.IsZooming )

	movzx	eax, BYTE PTR ?gHUD@@3VCHud@@A+112
	test	eax, eax
	je	SHORT $LN18@GaussBlur

; 508  : 			screenblur = 0.1;

	movss	xmm0, DWORD PTR __real@3dcccccd
	movss	DWORD PTR ?screenblur@?1??GaussBlur@@YAXXZ@4MA, xmm0
$LN18@GaussBlur:

; 509  : 		
; 510  : 		if( ApplyGaussBlur )

	movzx	eax, BYTE PTR ?ApplyGaussBlur@@3_NA	; ApplyGaussBlur
	test	eax, eax
	je	SHORT $LN19@GaussBlur

; 511  : 		{
; 512  : 			screenblur = gHUD.m_Health.damageTaken * 0.1;

	cvtsi2sd xmm0, DWORD PTR ?gHUD@@3VCHud@@A+320
	mulsd	xmm0, QWORD PTR __real@3fb999999999999a
	cvtsd2ss xmm0, xmm0
	movss	DWORD PTR ?screenblur@?1??GaussBlur@@YAXXZ@4MA, xmm0

; 513  : 			ApplyGaussBlur = false;

	mov	BYTE PTR ?ApplyGaussBlur@@3_NA, 0	; ApplyGaussBlur
$LN19@GaussBlur:

; 514  : 		}
; 515  : 
; 516  : 		if( gHUD.IsZoomed && gHUD.m_CrosshairStatic.ZoomBlur > 0.0f )

	movzx	eax, BYTE PTR ?gHUD@@3VCHud@@A+113
	test	eax, eax
	je	SHORT $LN20@GaussBlur
	movss	xmm0, DWORD PTR ?gHUD@@3VCHud@@A+7268
	comiss	xmm0, DWORD PTR __real@00000000
	jbe	SHORT $LN20@GaussBlur

; 517  : 		{
; 518  : 			screenblur = gHUD.m_CrosshairStatic.ZoomBlur;

	movss	xmm0, DWORD PTR ?gHUD@@3VCHud@@A+7268
	movss	DWORD PTR ?screenblur@?1??GaussBlur@@YAXXZ@4MA, xmm0
$LN20@GaussBlur:

; 519  : 		}
; 520  : 
; 521  : 		if( screenblur > 0 )

	movss	xmm0, DWORD PTR ?screenblur@?1??GaussBlur@@YAXXZ@4MA
	comiss	xmm0, DWORD PTR __real@00000000
	jbe	SHORT $LN21@GaussBlur

; 522  : 			screenblur -= 0.75 * g_fFrametime;

	cvtss2sd xmm0, DWORD PTR ?g_fFrametime@@3MA
	mulsd	xmm0, QWORD PTR __real@3fe8000000000000
	cvtss2sd xmm1, DWORD PTR ?screenblur@?1??GaussBlur@@YAXXZ@4MA
	subsd	xmm1, xmm0
	cvtsd2ss xmm0, xmm1
	movss	DWORD PTR ?screenblur@?1??GaussBlur@@YAXXZ@4MA, xmm0
$LN21@GaussBlur:

; 523  : 
; 524  : 		screenblur = bound( 0, screenblur, 0.5 );

	movss	xmm0, DWORD PTR ?screenblur@?1??GaussBlur@@YAXXZ@4MA
	comiss	xmm0, DWORD PTR __real@00000000
	jb	SHORT $LN41@GaussBlur
	cvtss2sd xmm0, DWORD PTR ?screenblur@?1??GaussBlur@@YAXXZ@4MA
	movsd	xmm1, QWORD PTR __real@3fe0000000000000
	comisd	xmm1, xmm0
	jbe	SHORT $LN39@GaussBlur
	cvtss2sd xmm0, DWORD PTR ?screenblur@?1??GaussBlur@@YAXXZ@4MA
	movsd	QWORD PTR tv293[ebp], xmm0
	jmp	SHORT $LN40@GaussBlur
$LN39@GaussBlur:
	movsd	xmm0, QWORD PTR __real@3fe0000000000000
	movsd	QWORD PTR tv293[ebp], xmm0
$LN40@GaussBlur:
	movsd	xmm0, QWORD PTR tv293[ebp]
	movsd	QWORD PTR tv294[ebp], xmm0
	jmp	SHORT $LN42@GaussBlur
$LN41@GaussBlur:
	xorps	xmm0, xmm0
	movsd	QWORD PTR tv294[ebp], xmm0
$LN42@GaussBlur:
	cvtsd2ss xmm0, QWORD PTR tv294[ebp]
	movss	DWORD PTR ?screenblur@?1??GaussBlur@@YAXXZ@4MA, xmm0

; 525  : 		RenderGaussBlur( screenblur, screenblur );

	push	ecx
	movss	xmm0, DWORD PTR ?screenblur@?1??GaussBlur@@YAXXZ@4MA
	movss	DWORD PTR [esp], xmm0
	push	ecx
	movss	xmm0, DWORD PTR ?screenblur@?1??GaussBlur@@YAXXZ@4MA
	movss	DWORD PTR [esp], xmm0
	call	?RenderGaussBlur@@YAXMM@Z		; RenderGaussBlur
	add	esp, 8
$LN17@GaussBlur:
$LN1@GaussBlur:

; 526  : 	}
; 527  : }

	pop	edi
	pop	esi
	pop	ebx
	mov	esp, ebp
	pop	ebp
	ret	0
?GaussBlur@@YAXXZ ENDP					; GaussBlur
_TEXT	ENDS
; Function compile flags: /Odtp /ZI
; File d:\!diffusion 2020\source code 2022\client-server\client\render\r_postprocess.cpp
;	COMDAT ?RenderSunShafts@@YAXXZ
_TEXT	SEGMENT
tv143 = -180						; size = 4
tv67 = -177						; size = 1
$T1 = -176						; size = 12
$T2 = -164						; size = 12
$T3 = -152						; size = 12
_view$ = -76						; size = 12
_ndc$ = -64						; size = 12
_sunPos$ = -52						; size = 12
_skyVec$ = -40						; size = 12
_skyColor$ = -28					; size = 12
_zFar$ = -16						; size = 4
_blur$ = -12						; size = 4
_OverriddenBrightness$ = -8				; size = 4
_Brightness$ = -4					; size = 4
?RenderSunShafts@@YAXXZ PROC				; RenderSunShafts, COMDAT

; 263  : {

	push	ebp
	mov	ebp, esp
	sub	esp, 180				; 000000b4H
	push	ebx
	push	esi
	push	edi

; 264  : 	if( !CVAR_TO_BOOL( gl_sunshafts ) || !tr.screen_depth || !tr.screen_color || !tr.target_rgb[0] )

	cmp	DWORD PTR ?gl_sunshafts@@3PAUcvar_s@@A, 0 ; gl_sunshafts
	je	SHORT $LN21@RenderSunS
	mov	eax, DWORD PTR ?gl_sunshafts@@3PAUcvar_s@@A ; gl_sunshafts
	movss	xmm0, DWORD PTR [eax+12]
	ucomiss	xmm0, DWORD PTR __real@00000000
	lahf
	test	ah, 68					; 00000044H
	jnp	SHORT $LN21@RenderSunS
	mov	BYTE PTR tv67[ebp], 1
	jmp	SHORT $LN22@RenderSunS
$LN21@RenderSunS:
	mov	BYTE PTR tv67[ebp], 0
$LN22@RenderSunS:
	movzx	ecx, BYTE PTR tv67[ebp]
	test	ecx, ecx
	je	SHORT $LN3@RenderSunS
	cmp	DWORD PTR ?tr@@3Uref_globals_t@@A+5728, 0
	je	SHORT $LN3@RenderSunS
	cmp	DWORD PTR ?tr@@3Uref_globals_t@@A+5732, 0
	je	SHORT $LN3@RenderSunS
	mov	eax, 4
	imul	ecx, eax, 0
	cmp	DWORD PTR ?tr@@3Uref_globals_t@@A[ecx+5736], 0
	jne	SHORT $LN2@RenderSunS
$LN3@RenderSunS:

; 265  : 		return;

	jmp	$LN1@RenderSunS
$LN2@RenderSunS:

; 266  : 
; 267  : 	if( !CheckShader( glsl.genSunShafts ) || !CheckShader( glsl.drawSunShafts ))

	cmp	DWORD PTR ?glsl@@3Uref_shaders_t@@A, 0
	je	SHORT $LN6@RenderSunS
	mov	eax, DWORD PTR ?glsl@@3Uref_shaders_t@@A
	movzx	ecx, WORD PTR [eax+580]
	cmp	ecx, 7
	jne	SHORT $LN6@RenderSunS
	cmp	DWORD PTR ?glsl@@3Uref_shaders_t@@A+12, 0
	je	SHORT $LN6@RenderSunS
	mov	eax, DWORD PTR ?glsl@@3Uref_shaders_t@@A+12
	movzx	ecx, WORD PTR [eax+580]
	cmp	ecx, 7
	je	SHORT $LN4@RenderSunS
$LN6@RenderSunS:

; 268  : 		return;

	jmp	$LN1@RenderSunS
$LN4@RenderSunS:

; 269  : 
; 270  : 	if( !CheckShader( glsl.blurShader[0] ) || !CheckShader( glsl.blurShader[1] ))

	mov	eax, 4
	imul	ecx, eax, 0
	cmp	DWORD PTR ?glsl@@3Uref_shaders_t@@A[ecx+4], 0
	je	SHORT $LN9@RenderSunS
	mov	eax, 4
	imul	ecx, eax, 0
	mov	edx, DWORD PTR ?glsl@@3Uref_shaders_t@@A[ecx+4]
	movzx	eax, WORD PTR [edx+580]
	cmp	eax, 7
	jne	SHORT $LN9@RenderSunS
	mov	eax, 4
	shl	eax, 0
	cmp	DWORD PTR ?glsl@@3Uref_shaders_t@@A[eax+4], 0
	je	SHORT $LN9@RenderSunS
	mov	eax, 4
	shl	eax, 0
	mov	ecx, DWORD PTR ?glsl@@3Uref_shaders_t@@A[eax+4]
	movzx	edx, WORD PTR [ecx+580]
	cmp	edx, 7
	je	SHORT $LN7@RenderSunS
$LN9@RenderSunS:

; 271  : 		return;

	jmp	$LN1@RenderSunS
$LN7@RenderSunS:

; 272  : 
; 273  : 	float Brightness = 0.0f; // don't worry, shader sets to 1.0 in this case

	xorps	xmm0, xmm0
	movss	DWORD PTR _Brightness$[ebp], xmm0

; 274  : 
; 275  : 	if( tr.shader_modifier != NULL ) // mapper set custom settings

	cmp	DWORD PTR ?tr@@3Uref_globals_t@@A+5852560, 0
	je	SHORT $LN11@RenderSunS

; 276  : 	{
; 277  : 		Brightness = tr.shader_modifier->curstate.fuser1;

	mov	eax, DWORD PTR ?tr@@3Uref_globals_t@@A+5852560
	movss	xmm0, DWORD PTR [eax+964]
	movss	DWORD PTR _Brightness$[ebp], xmm0

; 278  : 		if( Brightness == 0.0f )

	movss	xmm0, DWORD PTR _Brightness$[ebp]
	ucomiss	xmm0, DWORD PTR __real@00000000
	lahf
	test	ah, 68					; 00000044H
	jp	SHORT $LN11@RenderSunS

; 279  : 			return; // mapper disabled this shader in the modifier

	jmp	$LN1@RenderSunS
$LN11@RenderSunS:

; 280  : 	}
; 281  : 
; 282  : 	float OverriddenBrightness = 1.0f;

	movss	xmm0, DWORD PTR __real@3f800000
	movss	DWORD PTR _OverriddenBrightness$[ebp], xmm0

; 283  : 	if( gl_sunshafts_brightness->value > 0 )

	mov	eax, DWORD PTR ?gl_sunshafts_brightness@@3PAUcvar_s@@A ; gl_sunshafts_brightness
	movss	xmm0, DWORD PTR [eax+12]
	comiss	xmm0, DWORD PTR __real@00000000
	jbe	SHORT $LN13@RenderSunS

; 284  : 	{
; 285  : 		OverriddenBrightness = gl_sunshafts_brightness->value;

	mov	eax, DWORD PTR ?gl_sunshafts_brightness@@3PAUcvar_s@@A ; gl_sunshafts_brightness
	movss	xmm0, DWORD PTR [eax+12]
	movss	DWORD PTR _OverriddenBrightness$[ebp], xmm0

; 286  : 		if( Brightness == 0.0f )

	movss	xmm0, DWORD PTR _Brightness$[ebp]
	ucomiss	xmm0, DWORD PTR __real@00000000
	lahf
	test	ah, 68					; 00000044H
	jp	SHORT $LN13@RenderSunS

; 287  : 			Brightness = 1.0f;

	movss	xmm0, DWORD PTR __real@3f800000
	movss	DWORD PTR _Brightness$[ebp], xmm0
$LN13@RenderSunS:

; 288  : 	}
; 289  : 
; 290  : 	float blur = gl_sunshafts_blur->value;

	mov	eax, DWORD PTR ?gl_sunshafts_blur@@3PAUcvar_s@@A ; gl_sunshafts_blur
	movss	xmm0, DWORD PTR [eax+12]
	movss	DWORD PTR _blur$[ebp], xmm0

; 291  : 	float zFar = Q_max( 256.0f, RI->farClip );

	mov	eax, DWORD PTR ?RI@@3PAUref_instance_t@@A ; RI
	movss	xmm0, DWORD PTR __real@43800000
	comiss	xmm0, DWORD PTR [eax+264]
	jbe	SHORT $LN23@RenderSunS
	movss	xmm0, DWORD PTR __real@43800000
	movss	DWORD PTR tv143[ebp], xmm0
	jmp	SHORT $LN24@RenderSunS
$LN23@RenderSunS:
	mov	ecx, DWORD PTR ?RI@@3PAUref_instance_t@@A ; RI
	movss	xmm0, DWORD PTR [ecx+264]
	movss	DWORD PTR tv143[ebp], xmm0
$LN24@RenderSunS:
	movss	xmm0, DWORD PTR tv143[ebp]
	movss	DWORD PTR _zFar$[ebp], xmm0

; 292  : 	Vector skyColor = tr.sky_ambient * (1.0f / 128.0f) * r_lighting_modulate->value;

	mov	eax, DWORD PTR ?r_lighting_modulate@@3PAUcvar_s@@A ; r_lighting_modulate
	push	ecx
	movss	xmm0, DWORD PTR [eax+12]
	movss	DWORD PTR [esp], xmm0
	lea	ecx, DWORD PTR _skyColor$[ebp]
	push	ecx
	push	ecx
	movss	xmm0, DWORD PTR __real@3c000000
	movss	DWORD PTR [esp], xmm0
	lea	edx, DWORD PTR $T3[ebp]
	push	edx
	mov	ecx, OFFSET ?tr@@3Uref_globals_t@@A+5836148
	call	??DVector@@QBE?AV0@M@Z			; Vector::operator*
	mov	ecx, eax
	call	??DVector@@QBE?AV0@M@Z			; Vector::operator*

; 293  : 	Vector skyVec = tr.sky_normal.Normalize();

	lea	eax, DWORD PTR _skyVec$[ebp]
	push	eax
	mov	ecx, OFFSET ?tr@@3Uref_globals_t@@A+5836136
	call	?Normalize@Vector@@QBE?AV1@XZ		; Vector::Normalize

; 294  : 	Vector sunPos = RI->vieworg + skyVec * 1000.0;

	push	ecx
	movss	xmm0, DWORD PTR __real@447a0000
	movss	DWORD PTR [esp], xmm0
	lea	eax, DWORD PTR $T2[ebp]
	push	eax
	lea	ecx, DWORD PTR _skyVec$[ebp]
	call	??DVector@@QBE?AV0@M@Z			; Vector::operator*
	push	eax
	lea	ecx, DWORD PTR _sunPos$[ebp]
	push	ecx
	mov	ecx, DWORD PTR ?RI@@3PAUref_instance_t@@A ; RI
	add	ecx, 204				; 000000ccH
	call	??HVector@@QBE?AV0@ABV0@@Z		; Vector::operator+

; 295  : 
; 296  : 	if( skyVec == g_vecZero ) return;

	push	OFFSET ?g_vecZero@@3VVector@@B		; g_vecZero
	lea	ecx, DWORD PTR _skyVec$[ebp]
	call	??8Vector@@QBEHABV0@@Z			; Vector::operator==
	test	eax, eax
	je	SHORT $LN14@RenderSunS
	jmp	$LN1@RenderSunS
$LN14@RenderSunS:

; 297  : 
; 298  : 	ColorNormalize( skyColor, skyColor );

	lea	eax, DWORD PTR _skyColor$[ebp]
	push	eax
	lea	ecx, DWORD PTR _skyColor$[ebp]
	push	ecx
	call	?ColorNormalize@@YAMABVVector@@AAV1@@Z	; ColorNormalize
	fstp	ST(0)
	add	esp, 8

; 299  : 
; 300  : 	Vector ndc, view;

	lea	ecx, DWORD PTR _ndc$[ebp]
	call	??0Vector@@QAE@XZ			; Vector::Vector
	lea	ecx, DWORD PTR _view$[ebp]
	call	??0Vector@@QAE@XZ			; Vector::Vector

; 301  : 
; 302  : 	// project sunpos to screen 
; 303  : 	R_TransformWorldToDevice( sunPos, ndc );

	lea	eax, DWORD PTR _ndc$[ebp]
	push	eax
	lea	ecx, DWORD PTR _sunPos$[ebp]
	push	ecx
	call	?R_TransformWorldToDevice@@YAXABVVector@@AAV1@@Z ; R_TransformWorldToDevice
	add	esp, 8

; 304  : 	R_TransformDeviceToScreen( ndc, view );

	lea	eax, DWORD PTR _view$[ebp]
	push	eax
	lea	ecx, DWORD PTR _ndc$[ebp]
	push	ecx
	call	?R_TransformDeviceToScreen@@YAXABVVector@@AAV1@@Z ; R_TransformDeviceToScreen
	add	esp, 8

; 305  : 
; 306  : 	view.z = DotProduct( -skyVec, RI->vforward );

	mov	eax, DWORD PTR ?RI@@3PAUref_instance_t@@A ; RI
	add	eax, 228				; 000000e4H
	push	eax
	lea	ecx, DWORD PTR $T1[ebp]
	push	ecx
	lea	ecx, DWORD PTR _skyVec$[ebp]
	call	??GVector@@QBE?AV0@XZ			; Vector::operator-
	push	eax
	call	?DotProduct@@YAMABVVector@@0@Z		; DotProduct
	add	esp, 8
	fstp	DWORD PTR _view$[ebp+8]

; 307  : 
; 308  : 	if( view.z < 0.01f ) return; // fade out

	movss	xmm0, DWORD PTR __real@3c23d70a
	comiss	xmm0, DWORD PTR _view$[ebp+8]
	jbe	SHORT $LN15@RenderSunS
	jmp	$LN1@RenderSunS
$LN15@RenderSunS:

; 309  : 
; 310  : 	// request screen color
; 311  : 	GL_Bind( GL_TEXTURE0, tr.screen_color );

	mov	eax, DWORD PTR ?tr@@3Uref_globals_t@@A+5732
	push	eax
	push	0
	call	DWORD PTR ?gRenderfuncs@@3Urender_api_s@@A+132
	add	esp, 8

; 312  : 	pglCopyTexSubImage2D( GL_TEXTURE_2D, 0, 0, 0, 0, 0, glState.width, glState.height );

	mov	eax, DWORD PTR ?glState@@3UglState_t@@A+4
	push	eax
	mov	ecx, DWORD PTR ?glState@@3UglState_t@@A
	push	ecx
	push	0
	push	0
	push	0
	push	0
	push	0
	push	3553					; 00000de1H
	call	DWORD PTR ?pglCopyTexSubImage2D@@3P6GXIHHHHHHH@ZA ; pglCopyTexSubImage2D

; 313  : 
; 314  : 	// request screen depth
; 315  : 	GL_Bind( GL_TEXTURE0, tr.screen_depth );

	mov	eax, DWORD PTR ?tr@@3Uref_globals_t@@A+5728
	push	eax
	push	0
	call	DWORD PTR ?gRenderfuncs@@3Urender_api_s@@A+132
	add	esp, 8

; 316  : 	pglCopyTexSubImage2D( GL_TEXTURE_2D, 0, 0, 0, 0, 0, glState.width, glState.height );

	mov	eax, DWORD PTR ?glState@@3UglState_t@@A+4
	push	eax
	mov	ecx, DWORD PTR ?glState@@3UglState_t@@A
	push	ecx
	push	0
	push	0
	push	0
	push	0
	push	0
	push	3553					; 00000de1H
	call	DWORD PTR ?pglCopyTexSubImage2D@@3P6GXIHHHHHHH@ZA ; pglCopyTexSubImage2D

; 317  : 
; 318  : 	// set target viewport
; 319  : 	pglViewport( 0, 0, TARGET_SIZE512, TARGET_SIZE512 );

	push	512					; 00000200H
	push	512					; 00000200H
	push	0
	push	0
	call	DWORD PTR ?pglViewport@@3P6GXHHHH@ZA	; pglViewport

; 320  : 
; 321  : 	// generate shafts
; 322  : 	GL_BindShader( glsl.genSunShafts );

	mov	eax, DWORD PTR ?glsl@@3Uref_shaders_t@@A
	push	eax
	call	?GL_BindShader@@YAXPAUglsl_prog_s@@@Z	; GL_BindShader
	add	esp, 4

; 323  : 	ASSERT( RI->currentshader != NULL );

	mov	eax, DWORD PTR ?RI@@3PAUref_instance_t@@A ; RI
	cmp	DWORD PTR [eax+28], 0
	jne	SHORT $LN16@RenderSunS
	mov	eax, DWORD PTR ?__LINE__Var@?0??RenderSunShafts@@YAXXZ@4JA
	add	eax, 60					; 0000003cH
	push	eax
	push	OFFSET ??_C@_0FC@EOCCPBDF@d?3?2?$CBdiffusion?52020?2source?5code?52@
	push	OFFSET ??_C@_0BI@FECCGOFJ@assert?5failed?5at?5?$CFs?3?$CFi?6?$AA@
	call	DWORD PTR ?gRenderfuncs@@3Urender_api_s@@A+236
	add	esp, 12					; 0000000cH
$LN16@RenderSunS:

; 324  : 
; 325  : 	pglUniform1fARB( RI->currentshader->u_zFar, zFar );

	push	ecx
	movss	xmm0, DWORD PTR _zFar$[ebp]
	movss	DWORD PTR [esp], xmm0
	mov	eax, DWORD PTR ?RI@@3PAUref_instance_t@@A ; RI
	mov	ecx, DWORD PTR [eax+28]
	mov	edx, DWORD PTR [ecx+728]
	push	edx
	call	DWORD PTR ?pglUniform1fARB@@3P6GXHM@ZA	; pglUniform1fARB

; 326  : 
; 327  : 	GL_Bind( GL_TEXTURE0, tr.screen_depth );

	mov	eax, DWORD PTR ?tr@@3Uref_globals_t@@A+5728
	push	eax
	push	0
	call	DWORD PTR ?gRenderfuncs@@3Urender_api_s@@A+132
	add	esp, 8

; 328  : 	GL_Bind( GL_TEXTURE1, tr.screen_color );

	mov	eax, DWORD PTR ?tr@@3Uref_globals_t@@A+5732
	push	eax
	push	1
	call	DWORD PTR ?gRenderfuncs@@3Urender_api_s@@A+132
	add	esp, 8

; 329  : 	RenderFSQ( glState.width, glState.height );

	mov	eax, DWORD PTR ?glState@@3UglState_t@@A+4
	push	eax
	mov	ecx, DWORD PTR ?glState@@3UglState_t@@A
	push	ecx
	call	?RenderFSQ@@YAXHH@Z			; RenderFSQ
	add	esp, 8

; 330  : 
; 331  : 	// request target copy
; 332  : 	GL_Bind( GL_TEXTURE0, tr.target_rgb[0] );

	mov	eax, 4
	imul	ecx, eax, 0
	mov	edx, DWORD PTR ?tr@@3Uref_globals_t@@A[ecx+5736]
	push	edx
	push	0
	call	DWORD PTR ?gRenderfuncs@@3Urender_api_s@@A+132
	add	esp, 8

; 333  : 	pglCopyTexSubImage2D( GL_TEXTURE_2D, 0, 0, 0, 0, 0, TARGET_SIZE512, TARGET_SIZE512 );

	push	512					; 00000200H
	push	512					; 00000200H
	push	0
	push	0
	push	0
	push	0
	push	0
	push	3553					; 00000de1H
	call	DWORD PTR ?pglCopyTexSubImage2D@@3P6GXIHHHHHHH@ZA ; pglCopyTexSubImage2D

; 334  : #if 1
; 335  : 	pglViewport( 0, 0, TARGET_SIZE512, TARGET_SIZE512 );

	push	512					; 00000200H
	push	512					; 00000200H
	push	0
	push	0
	call	DWORD PTR ?pglViewport@@3P6GXHHHH@ZA	; pglViewport

; 336  : 	
; 337  : 	// combine normal and blurred scenes
; 338  : 	GL_BindShader( glsl.blurShader[0] );

	mov	eax, 4
	imul	ecx, eax, 0
	mov	edx, DWORD PTR ?glsl@@3Uref_shaders_t@@A[ecx+4]
	push	edx
	call	?GL_BindShader@@YAXPAUglsl_prog_s@@@Z	; GL_BindShader
	add	esp, 4

; 339  : 	ASSERT( RI->currentshader != NULL );

	mov	eax, DWORD PTR ?RI@@3PAUref_instance_t@@A ; RI
	cmp	DWORD PTR [eax+28], 0
	jne	SHORT $LN17@RenderSunS
	mov	eax, DWORD PTR ?__LINE__Var@?0??RenderSunShafts@@YAXXZ@4JA
	add	eax, 76					; 0000004cH
	push	eax
	push	OFFSET ??_C@_0FC@EOCCPBDF@d?3?2?$CBdiffusion?52020?2source?5code?52@
	push	OFFSET ??_C@_0BI@FECCGOFJ@assert?5failed?5at?5?$CFs?3?$CFi?6?$AA@
	call	DWORD PTR ?gRenderfuncs@@3Urender_api_s@@A+236
	add	esp, 12					; 0000000cH
$LN17@RenderSunS:

; 340  : 
; 341  : 	pglUniform2fARB( RI->currentshader->u_BlurFactor, blur, blur );	// set blur factor

	push	ecx
	movss	xmm0, DWORD PTR _blur$[ebp]
	movss	DWORD PTR [esp], xmm0
	push	ecx
	movss	xmm0, DWORD PTR _blur$[ebp]
	movss	DWORD PTR [esp], xmm0
	mov	eax, DWORD PTR ?RI@@3PAUref_instance_t@@A ; RI
	mov	ecx, DWORD PTR [eax+28]
	mov	edx, DWORD PTR [ecx+712]
	push	edx
	call	DWORD PTR ?pglUniform2fARB@@3P6GXHMM@ZA	; pglUniform2fARB

; 342  : 	RenderFSQ( glState.width, glState.height );

	mov	eax, DWORD PTR ?glState@@3UglState_t@@A+4
	push	eax
	mov	ecx, DWORD PTR ?glState@@3UglState_t@@A
	push	ecx
	call	?RenderFSQ@@YAXHH@Z			; RenderFSQ
	add	esp, 8

; 343  : 	
; 344  : 	// request target copy
; 345  : 	GL_Bind( GL_TEXTURE0, tr.target_rgb[0] );

	mov	eax, 4
	imul	ecx, eax, 0
	mov	edx, DWORD PTR ?tr@@3Uref_globals_t@@A[ecx+5736]
	push	edx
	push	0
	call	DWORD PTR ?gRenderfuncs@@3Urender_api_s@@A+132
	add	esp, 8

; 346  : 	pglCopyTexSubImage2D( GL_TEXTURE_2D, 0, 0, 0, 0, 0, TARGET_SIZE512, TARGET_SIZE512 );

	push	512					; 00000200H
	push	512					; 00000200H
	push	0
	push	0
	push	0
	push	0
	push	0
	push	3553					; 00000de1H
	call	DWORD PTR ?pglCopyTexSubImage2D@@3P6GXIHHHHHHH@ZA ; pglCopyTexSubImage2D

; 347  : 
; 348  : 	GL_BindShader( glsl.blurShader[1] );

	mov	eax, 4
	shl	eax, 0
	mov	ecx, DWORD PTR ?glsl@@3Uref_shaders_t@@A[eax+4]
	push	ecx
	call	?GL_BindShader@@YAXPAUglsl_prog_s@@@Z	; GL_BindShader
	add	esp, 4

; 349  : 	ASSERT( RI->currentshader != NULL );

	mov	eax, DWORD PTR ?RI@@3PAUref_instance_t@@A ; RI
	cmp	DWORD PTR [eax+28], 0
	jne	SHORT $LN18@RenderSunS
	mov	eax, DWORD PTR ?__LINE__Var@?0??RenderSunShafts@@YAXXZ@4JA
	add	eax, 86					; 00000056H
	push	eax
	push	OFFSET ??_C@_0FC@EOCCPBDF@d?3?2?$CBdiffusion?52020?2source?5code?52@
	push	OFFSET ??_C@_0BI@FECCGOFJ@assert?5failed?5at?5?$CFs?3?$CFi?6?$AA@
	call	DWORD PTR ?gRenderfuncs@@3Urender_api_s@@A+236
	add	esp, 12					; 0000000cH
$LN18@RenderSunS:

; 350  : 
; 351  : 	pglUniform2fARB( RI->currentshader->u_BlurFactor, blur, blur );	// set blur factor

	push	ecx
	movss	xmm0, DWORD PTR _blur$[ebp]
	movss	DWORD PTR [esp], xmm0
	push	ecx
	movss	xmm0, DWORD PTR _blur$[ebp]
	movss	DWORD PTR [esp], xmm0
	mov	eax, DWORD PTR ?RI@@3PAUref_instance_t@@A ; RI
	mov	ecx, DWORD PTR [eax+28]
	mov	edx, DWORD PTR [ecx+712]
	push	edx
	call	DWORD PTR ?pglUniform2fARB@@3P6GXHMM@ZA	; pglUniform2fARB

; 352  : 	RenderFSQ( glState.width, glState.height );

	mov	eax, DWORD PTR ?glState@@3UglState_t@@A+4
	push	eax
	mov	ecx, DWORD PTR ?glState@@3UglState_t@@A
	push	ecx
	call	?RenderFSQ@@YAXHH@Z			; RenderFSQ
	add	esp, 8

; 353  : 	
; 354  : 	// request target copy
; 355  : 	GL_Bind( GL_TEXTURE0, tr.target_rgb[0] );

	mov	eax, 4
	imul	ecx, eax, 0
	mov	edx, DWORD PTR ?tr@@3Uref_globals_t@@A[ecx+5736]
	push	edx
	push	0
	call	DWORD PTR ?gRenderfuncs@@3Urender_api_s@@A+132
	add	esp, 8

; 356  : 	pglCopyTexSubImage2D( GL_TEXTURE_2D, 0, 0, 0, 0, 0, TARGET_SIZE512, TARGET_SIZE512 );

	push	512					; 00000200H
	push	512					; 00000200H
	push	0
	push	0
	push	0
	push	0
	push	0
	push	3553					; 00000de1H
	call	DWORD PTR ?pglCopyTexSubImage2D@@3P6GXIHHHHHHH@ZA ; pglCopyTexSubImage2D

; 357  : #endif
; 358  : 	pglViewport( 0, 0, glState.width, glState.height );

	mov	eax, DWORD PTR ?glState@@3UglState_t@@A+4
	push	eax
	mov	ecx, DWORD PTR ?glState@@3UglState_t@@A
	push	ecx
	push	0
	push	0
	call	DWORD PTR ?pglViewport@@3P6GXHHHH@ZA	; pglViewport

; 359  : 
; 360  : 	GL_BindShader( glsl.drawSunShafts );

	mov	eax, DWORD PTR ?glsl@@3Uref_shaders_t@@A+12
	push	eax
	call	?GL_BindShader@@YAXPAUglsl_prog_s@@@Z	; GL_BindShader
	add	esp, 4

; 361  : 	ASSERT( RI->currentshader != NULL );

	mov	eax, DWORD PTR ?RI@@3PAUref_instance_t@@A ; RI
	cmp	DWORD PTR [eax+28], 0
	jne	SHORT $LN19@RenderSunS
	mov	eax, DWORD PTR ?__LINE__Var@?0??RenderSunShafts@@YAXXZ@4JA
	add	eax, 98					; 00000062H
	push	eax
	push	OFFSET ??_C@_0FC@EOCCPBDF@d?3?2?$CBdiffusion?52020?2source?5code?52@
	push	OFFSET ??_C@_0BI@FECCGOFJ@assert?5failed?5at?5?$CFs?3?$CFi?6?$AA@
	call	DWORD PTR ?gRenderfuncs@@3Urender_api_s@@A+236
	add	esp, 12					; 0000000cH
$LN19@RenderSunS:

; 362  : 
; 363  : 	pglUniform3fARB( RI->currentshader->u_LightOrigin, view.x / glState.width, view.y / glState.height, view.z );

	push	ecx
	movss	xmm0, DWORD PTR _view$[ebp+8]
	movss	DWORD PTR [esp], xmm0
	cvtsi2ss xmm0, DWORD PTR ?glState@@3UglState_t@@A+4
	movss	xmm1, DWORD PTR _view$[ebp+4]
	divss	xmm1, xmm0
	push	ecx
	movss	DWORD PTR [esp], xmm1
	cvtsi2ss xmm0, DWORD PTR ?glState@@3UglState_t@@A
	movss	xmm1, DWORD PTR _view$[ebp]
	divss	xmm1, xmm0
	push	ecx
	movss	DWORD PTR [esp], xmm1
	mov	eax, DWORD PTR ?RI@@3PAUref_instance_t@@A ; RI
	mov	ecx, DWORD PTR [eax+28]
	mov	edx, DWORD PTR [ecx+792]
	push	edx
	call	DWORD PTR ?pglUniform3fARB@@3P6GXHMMM@ZA ; pglUniform3fARB

; 364  : 	pglUniform3fARB( RI->currentshader->u_LightDiffuse, skyColor.x, skyColor.y, skyColor.z );

	push	ecx
	movss	xmm0, DWORD PTR _skyColor$[ebp+8]
	movss	DWORD PTR [esp], xmm0
	push	ecx
	movss	xmm0, DWORD PTR _skyColor$[ebp+4]
	movss	DWORD PTR [esp], xmm0
	push	ecx
	movss	xmm0, DWORD PTR _skyColor$[ebp]
	movss	DWORD PTR [esp], xmm0
	mov	eax, DWORD PTR ?RI@@3PAUref_instance_t@@A ; RI
	mov	ecx, DWORD PTR [eax+28]
	mov	edx, DWORD PTR [ecx+760]
	push	edx
	call	DWORD PTR ?pglUniform3fARB@@3P6GXHMMM@ZA ; pglUniform3fARB

; 365  : 	pglUniform1fARB( RI->currentshader->u_SS_Brightness, Brightness * OverriddenBrightness );

	movss	xmm0, DWORD PTR _Brightness$[ebp]
	mulss	xmm0, DWORD PTR _OverriddenBrightness$[ebp]
	push	ecx
	movss	DWORD PTR [esp], xmm0
	mov	eax, DWORD PTR ?RI@@3PAUref_instance_t@@A ; RI
	mov	ecx, DWORD PTR [eax+28]
	mov	edx, DWORD PTR [ecx+940]
	push	edx
	call	DWORD PTR ?pglUniform1fARB@@3P6GXHM@ZA	; pglUniform1fARB

; 366  : 
; 367  : 	GL_Bind( GL_TEXTURE0, tr.screen_color );

	mov	eax, DWORD PTR ?tr@@3Uref_globals_t@@A+5732
	push	eax
	push	0
	call	DWORD PTR ?gRenderfuncs@@3Urender_api_s@@A+132
	add	esp, 8

; 368  : 	GL_Bind( GL_TEXTURE1, tr.target_rgb[0] );

	mov	eax, 4
	imul	ecx, eax, 0
	mov	edx, DWORD PTR ?tr@@3Uref_globals_t@@A[ecx+5736]
	push	edx
	push	1
	call	DWORD PTR ?gRenderfuncs@@3Urender_api_s@@A+132
	add	esp, 8

; 369  : 	RenderFSQ( glState.width, glState.height );

	mov	eax, DWORD PTR ?glState@@3UglState_t@@A+4
	push	eax
	mov	ecx, DWORD PTR ?glState@@3UglState_t@@A
	push	ecx
	call	?RenderFSQ@@YAXHH@Z			; RenderFSQ
	add	esp, 8

; 370  : 
; 371  : 	GL_BindShader( NULL );

	push	0
	call	?GL_BindShader@@YAXPAUglsl_prog_s@@@Z	; GL_BindShader
	add	esp, 4

; 372  : 	GL_CleanUpTextureUnits( 0 );

	push	0
	call	DWORD PTR ?gRenderfuncs@@3Urender_api_s@@A+148
	add	esp, 4

; 373  : 
; 374  : 	r_stats.sh_sunshafts_pass++;

	mov	eax, DWORD PTR ?r_stats@@3Uref_stats_t@@A+104
	add	eax, 1
	mov	DWORD PTR ?r_stats@@3Uref_stats_t@@A+104, eax
$LN1@RenderSunS:

; 375  : }

	pop	edi
	pop	esi
	pop	ebx
	mov	esp, ebp
	pop	ebp
	ret	0
?RenderSunShafts@@YAXXZ ENDP				; RenderSunShafts
_TEXT	ENDS
; Function compile flags: /Odtp /ZI
; File d:\!diffusion 2020\source code 2022\client-server\client\render\r_postprocess.cpp
;	COMDAT ?InitPostEffects@@YAXXZ
_TEXT	SEGMENT
?InitPostEffects@@YAXXZ PROC				; InitPostEffects, COMDAT

; 126  : {

	push	ebp
	mov	ebp, esp
	sub	esp, 64					; 00000040H
	push	ebx
	push	esi
	push	edi

; 127  : 	
; 128  : }

	pop	edi
	pop	esi
	pop	ebx
	mov	esp, ebp
	pop	ebp
	ret	0
?InitPostEffects@@YAXXZ ENDP				; InitPostEffects
_TEXT	ENDS
; Function compile flags: /Odtp /ZI
; File d:\!diffusion 2020\source code 2022\client-server\client\render\r_postprocess.cpp
;	COMDAT ?InitPostTextures@@YAXXZ
_TEXT	SEGMENT
_i$1 = -4						; size = 4
?InitPostTextures@@YAXXZ PROC				; InitPostTextures, COMDAT

; 161  : {

	push	ebp
	mov	ebp, esp
	sub	esp, 68					; 00000044H
	push	ebx
	push	esi
	push	edi

; 162  : 	if( tr.screen_depth )

	cmp	DWORD PTR ?tr@@3Uref_globals_t@@A+5728, 0
	je	SHORT $LN5@InitPostTe

; 163  : 	{
; 164  : 		FREE_TEXTURE( tr.screen_depth );

	mov	eax, DWORD PTR ?tr@@3Uref_globals_t@@A+5728
	push	eax
	call	DWORD PTR ?gRenderfuncs@@3Urender_api_s@@A+76
	add	esp, 4

; 165  : 		tr.screen_depth = 0;

	mov	DWORD PTR ?tr@@3Uref_globals_t@@A+5728, 0
$LN5@InitPostTe:

; 166  : 	}
; 167  : 	
; 168  : 	if( !tr.screen_depth )

	cmp	DWORD PTR ?tr@@3Uref_globals_t@@A+5728, 0
	jne	SHORT $LN6@InitPostTe

; 169  : 		tr.screen_depth = CREATE_TEXTURE( "*screendepth", glState.width, glState.height, NULL, TF_DEPTHBUFFER ); 

	push	134224513				; 08001a81H
	push	0
	mov	eax, DWORD PTR ?glState@@3UglState_t@@A+4
	push	eax
	mov	ecx, DWORD PTR ?glState@@3UglState_t@@A
	push	ecx
	push	OFFSET ??_C@_0N@BDNGALHE@?$CKscreendepth?$AA@
	call	DWORD PTR ?gRenderfuncs@@3Urender_api_s@@A+64
	add	esp, 20					; 00000014H
	mov	DWORD PTR ?tr@@3Uref_globals_t@@A+5728, eax
$LN6@InitPostTe:

; 170  : 
; 171  : 	if( tr.screen_color )

	cmp	DWORD PTR ?tr@@3Uref_globals_t@@A+5732, 0
	je	SHORT $LN7@InitPostTe

; 172  : 	{
; 173  : 		FREE_TEXTURE( tr.screen_color );

	mov	eax, DWORD PTR ?tr@@3Uref_globals_t@@A+5732
	push	eax
	call	DWORD PTR ?gRenderfuncs@@3Urender_api_s@@A+76
	add	esp, 4

; 174  : 		tr.screen_color = 0;

	mov	DWORD PTR ?tr@@3Uref_globals_t@@A+5732, 0
$LN7@InitPostTe:

; 175  : 	}
; 176  : 
; 177  : 	if( !tr.screen_color )

	cmp	DWORD PTR ?tr@@3Uref_globals_t@@A+5732, 0
	jne	SHORT $LN8@InitPostTe

; 178  : 		tr.screen_color = CREATE_TEXTURE( "*screencolor", glState.width, glState.height, NULL, TF_COLORBUFFER );

	push	6145					; 00001801H
	push	0
	mov	eax, DWORD PTR ?glState@@3UglState_t@@A+4
	push	eax
	mov	ecx, DWORD PTR ?glState@@3UglState_t@@A
	push	ecx
	push	OFFSET ??_C@_0N@POPCHNAA@?$CKscreencolor?$AA@
	call	DWORD PTR ?gRenderfuncs@@3Urender_api_s@@A+64
	add	esp, 20					; 00000014H
	mov	DWORD PTR ?tr@@3Uref_globals_t@@A+5732, eax
$LN8@InitPostTe:

; 179  : 
; 180  : 	if( tr.target_rgb[0] )

	mov	eax, 4
	imul	ecx, eax, 0
	cmp	DWORD PTR ?tr@@3Uref_globals_t@@A[ecx+5736], 0
	je	SHORT $LN9@InitPostTe

; 181  : 	{
; 182  : 		FREE_TEXTURE( tr.target_rgb[0] );

	mov	eax, 4
	imul	ecx, eax, 0
	mov	edx, DWORD PTR ?tr@@3Uref_globals_t@@A[ecx+5736]
	push	edx
	call	DWORD PTR ?gRenderfuncs@@3Urender_api_s@@A+76
	add	esp, 4

; 183  : 		tr.target_rgb[0] = 0;

	mov	eax, 4
	imul	ecx, eax, 0
	mov	DWORD PTR ?tr@@3Uref_globals_t@@A[ecx+5736], 0
$LN9@InitPostTe:

; 184  : 	}
; 185  : 	
; 186  : 	if( !tr.target_rgb[0] )

	mov	eax, 4
	imul	ecx, eax, 0
	cmp	DWORD PTR ?tr@@3Uref_globals_t@@A[ecx+5736], 0
	jne	SHORT $LN10@InitPostTe

; 187  : 		tr.target_rgb[0] = CREATE_TEXTURE( "*target0", TARGET_SIZE512, TARGET_SIZE512, NULL, TF_SCREEN );

	push	6144					; 00001800H
	push	0
	push	512					; 00000200H
	push	512					; 00000200H
	push	OFFSET ??_C@_08OGEMMNIO@?$CKtarget0?$AA@
	call	DWORD PTR ?gRenderfuncs@@3Urender_api_s@@A+64
	add	esp, 20					; 00000014H
	mov	ecx, 4
	imul	edx, ecx, 0
	mov	DWORD PTR ?tr@@3Uref_globals_t@@A[edx+5736], eax
$LN10@InitPostTe:

; 188  : 
; 189  : 	if( ScreenWaterTexture )

	cmp	DWORD PTR ?ScreenWaterTexture@@3HA, 0	; ScreenWaterTexture
	je	SHORT $LN11@InitPostTe

; 190  : 	{
; 191  : 		FREE_TEXTURE( ScreenWaterTexture );

	mov	eax, DWORD PTR ?ScreenWaterTexture@@3HA	; ScreenWaterTexture
	push	eax
	call	DWORD PTR ?gRenderfuncs@@3Urender_api_s@@A+76
	add	esp, 4

; 192  : 		ScreenWaterTexture = 0;

	mov	DWORD PTR ?ScreenWaterTexture@@3HA, 0	; ScreenWaterTexture
$LN11@InitPostTe:

; 193  : 	}
; 194  : 
; 195  : 	if( !ScreenWaterTexture )

	cmp	DWORD PTR ?ScreenWaterTexture@@3HA, 0	; ScreenWaterTexture
	jne	SHORT $LN12@InitPostTe

; 196  : 		ScreenWaterTexture = LOAD_TEXTURE( "sprites/effects/screenwater.dds", NULL, 0, 0 );

	push	0
	push	0
	push	0
	push	OFFSET ??_C@_0CA@KJELPDKP@sprites?1effects?1screenwater?4dds?$AA@
	call	DWORD PTR ?gRenderfuncs@@3Urender_api_s@@A+60
	add	esp, 16					; 00000010H
	mov	DWORD PTR ?ScreenWaterTexture@@3HA, eax	; ScreenWaterTexture
$LN12@InitPostTe:

; 197  : 
; 198  : 	InitSSAO();

	call	?InitSSAO@@YAXXZ			; InitSSAO

; 199  : 
; 200  : 	if( RotateMap )

	cmp	DWORD PTR ?RotateMap@@3HA, 0		; RotateMap
	je	SHORT $LN13@InitPostTe

; 201  : 	{
; 202  : 		FREE_TEXTURE( RotateMap );

	mov	eax, DWORD PTR ?RotateMap@@3HA		; RotateMap
	push	eax
	call	DWORD PTR ?gRenderfuncs@@3Urender_api_s@@A+76
	add	esp, 4

; 203  : 		RotateMap = 0;

	mov	DWORD PTR ?RotateMap@@3HA, 0		; RotateMap
$LN13@InitPostTe:

; 204  : 	}
; 205  : 
; 206  : 	if( !RotateMap )

	cmp	DWORD PTR ?RotateMap@@3HA, 0		; RotateMap
	jne	SHORT $LN14@InitPostTe

; 207  : 		RotateMap = LOAD_TEXTURE( "sprites/effects/rotate.tga", NULL, 0, 0 );	

	push	0
	push	0
	push	0
	push	OFFSET ??_C@_0BL@LPMICGLM@sprites?1effects?1rotate?4tga?$AA@
	call	DWORD PTR ?gRenderfuncs@@3Urender_api_s@@A+60
	add	esp, 16					; 00000010H
	mov	DWORD PTR ?RotateMap@@3HA, eax		; RotateMap
$LN14@InitPostTe:

; 208  : 
; 209  : 	// ----------------- bloom -------------------
; 210  : 	if( tr.screen_fbo_texture_color )

	cmp	DWORD PTR ?tr@@3Uref_globals_t@@A+5885404, 0
	je	SHORT $LN15@InitPostTe

; 211  : 	{
; 212  : 		FREE_TEXTURE( tr.screen_fbo_texture_color );

	mov	eax, DWORD PTR ?tr@@3Uref_globals_t@@A+5885404
	push	eax
	call	DWORD PTR ?gRenderfuncs@@3Urender_api_s@@A+76
	add	esp, 4

; 213  : 		tr.screen_fbo_texture_color = 0;

	mov	DWORD PTR ?tr@@3Uref_globals_t@@A+5885404, 0
$LN15@InitPostTe:

; 214  : 	}
; 215  : 
; 216  : 	if( !tr.screen_fbo_texture_color )

	cmp	DWORD PTR ?tr@@3Uref_globals_t@@A+5885404, 0
	jne	SHORT $LN16@InitPostTe

; 217  : 		tr.screen_fbo_texture_color = CREATE_TEXTURE( "*screen_temp_fbo_texture_color", glState.width, glState.height, NULL, TF_HAS_ALPHA | TF_ARB_16BIT | TF_CLAMP | TF_ARB_FLOAT );

	push	335611904				; 14010800H
	push	0
	mov	eax, DWORD PTR ?glState@@3UglState_t@@A+4
	push	eax
	mov	ecx, DWORD PTR ?glState@@3UglState_t@@A
	push	ecx
	push	OFFSET ??_C@_0BP@JBBAKCHD@?$CKscreen_temp_fbo_texture_color?$AA@
	call	DWORD PTR ?gRenderfuncs@@3Urender_api_s@@A+64
	add	esp, 20					; 00000014H
	mov	DWORD PTR ?tr@@3Uref_globals_t@@A+5885404, eax
$LN16@InitPostTe:

; 218  : 
; 219  : 	GL_Bind( GL_TEXTURE0, tr.screen_fbo_texture_color );

	mov	eax, DWORD PTR ?tr@@3Uref_globals_t@@A+5885404
	push	eax
	push	0
	call	DWORD PTR ?gRenderfuncs@@3Urender_api_s@@A+132
	add	esp, 8

; 220  : 	pglGenerateMipmap( GL_TEXTURE_2D );

	push	3553					; 00000de1H
	call	DWORD PTR ?pglGenerateMipmap@@3P6GXI@ZA	; pglGenerateMipmap

; 221  : 	pglTexParameteri( GL_TEXTURE_2D, GL_TEXTURE_WRAP_S, GL_CLAMP_TO_EDGE );

	push	33071					; 0000812fH
	push	10242					; 00002802H
	push	3553					; 00000de1H
	call	DWORD PTR ?pglTexParameteri@@3P6GXIIH@ZA ; pglTexParameteri

; 222  : 	pglTexParameteri( GL_TEXTURE_2D, GL_TEXTURE_WRAP_T, GL_CLAMP_TO_EDGE );

	push	33071					; 0000812fH
	push	10243					; 00002803H
	push	3553					; 00000de1H
	call	DWORD PTR ?pglTexParameteri@@3P6GXIIH@ZA ; pglTexParameteri

; 223  : 	pglTexParameteri( GL_TEXTURE_2D, GL_TEXTURE_MAG_FILTER, GL_LINEAR );

	push	9729					; 00002601H
	push	10240					; 00002800H
	push	3553					; 00000de1H
	call	DWORD PTR ?pglTexParameteri@@3P6GXIIH@ZA ; pglTexParameteri

; 224  : 	pglTexParameteri( GL_TEXTURE_2D, GL_TEXTURE_MIN_FILTER, GL_LINEAR_MIPMAP_LINEAR );

	push	9987					; 00002703H
	push	10241					; 00002801H
	push	3553					; 00000de1H
	call	DWORD PTR ?pglTexParameteri@@3P6GXIIH@ZA ; pglTexParameteri

; 225  : 	GL_Bind( GL_TEXTURE0, 0 );

	push	0
	push	0
	call	DWORD PTR ?gRenderfuncs@@3Urender_api_s@@A+132
	add	esp, 8

; 226  : 
; 227  : 	// mips
; 228  : 	if( !tr.screen_fbo_mip[0] )

	mov	eax, 4
	imul	ecx, eax, 0
	cmp	DWORD PTR ?tr@@3Uref_globals_t@@A[ecx+5885380], 0
	jne	SHORT $LN17@InitPostTe

; 229  : 		pglGenFramebuffers( 6, tr.screen_fbo_mip );

	push	OFFSET ?tr@@3Uref_globals_t@@A+5885380
	push	6
	call	DWORD PTR ?pglGenFramebuffers@@3P6GXHPAI@ZA ; pglGenFramebuffers
$LN17@InitPostTe:

; 230  : 
; 231  : 	for( int i = 0; i < 6; i++ )

	mov	DWORD PTR _i$1[ebp], 0
	jmp	SHORT $LN4@InitPostTe
$LN2@InitPostTe:
	mov	eax, DWORD PTR _i$1[ebp]
	add	eax, 1
	mov	DWORD PTR _i$1[ebp], eax
$LN4@InitPostTe:
	cmp	DWORD PTR _i$1[ebp], 6
	jge	SHORT $LN3@InitPostTe

; 232  : 	{
; 233  : 		if( tr.screen_fbo_mip[i] <= 0 )

	mov	eax, DWORD PTR _i$1[ebp]
	cmp	DWORD PTR ?tr@@3Uref_globals_t@@A[eax*4+5885380], 0
	ja	SHORT $LN18@InitPostTe

; 234  : 			pglGenFramebuffers( 1, &tr.screen_fbo_mip[i] );

	mov	eax, DWORD PTR _i$1[ebp]
	lea	ecx, DWORD PTR ?tr@@3Uref_globals_t@@A[eax*4+5885380]
	push	ecx
	push	1
	call	DWORD PTR ?pglGenFramebuffers@@3P6GXHPAI@ZA ; pglGenFramebuffers
$LN18@InitPostTe:

; 235  : 		pglBindFramebuffer( GL_FRAMEBUFFER_EXT, tr.screen_fbo_mip[i] );

	mov	eax, DWORD PTR _i$1[ebp]
	mov	ecx, DWORD PTR ?tr@@3Uref_globals_t@@A[eax*4+5885380]
	push	ecx
	push	36160					; 00008d40H
	call	DWORD PTR ?pglBindFramebuffer@@3P6GXII@ZA ; pglBindFramebuffer

; 236  : 		pglFramebufferTexture2D( GL_FRAMEBUFFER_EXT, GL_COLOR_ATTACHMENT0_EXT, GL_TEXTURE_2D, RENDER_GET_PARM(PARM_TEX_TEXNUM, tr.screen_fbo_texture_color), i + 1 );

	mov	eax, DWORD PTR _i$1[ebp]
	add	eax, 1
	push	eax
	mov	ecx, DWORD PTR ?tr@@3Uref_globals_t@@A+5885404
	push	ecx
	push	9
	call	DWORD PTR ?gRenderfuncs@@3Urender_api_s@@A
	add	esp, 8
	push	eax
	push	3553					; 00000de1H
	push	36064					; 00008ce0H
	push	36160					; 00008d40H
	call	DWORD PTR ?pglFramebufferTexture2D@@3P6GXIIIIH@ZA ; pglFramebufferTexture2D

; 237  : 	}

	jmp	SHORT $LN2@InitPostTe
$LN3@InitPostTe:

; 238  : 
; 239  : 	pglBindFramebuffer( GL_FRAMEBUFFER_EXT, 0 );

	push	0
	push	36160					; 00008d40H
	call	DWORD PTR ?pglBindFramebuffer@@3P6GXII@ZA ; pglBindFramebuffer

; 240  : 	// -----------------------------------------
; 241  : 
; 242  : 	InitAutoExposure();

	call	?InitAutoExposure@@YAXXZ		; InitAutoExposure

; 243  : }

	pop	edi
	pop	esi
	pop	ebx
	mov	esp, ebp
	pop	ebp
	ret	0
?InitPostTextures@@YAXXZ ENDP				; InitPostTextures
_TEXT	ENDS
; Function compile flags: /Odtp /ZI
;	COMDAT ??0pmtrace_s@@QAE@XZ
_TEXT	SEGMENT
_this$ = -4						; size = 4
??0pmtrace_s@@QAE@XZ PROC				; pmtrace_s::pmtrace_s, COMDAT
; _this$ = ecx
	push	ebp
	mov	ebp, esp
	sub	esp, 68					; 00000044H
	push	ebx
	push	esi
	push	edi
	mov	DWORD PTR _this$[ebp], ecx
	mov	ecx, DWORD PTR _this$[ebp]
	add	ecx, 20					; 00000014H
	call	??0Vector@@QAE@XZ			; Vector::Vector
	mov	ecx, DWORD PTR _this$[ebp]
	add	ecx, 32					; 00000020H
	call	??0pmplane_t@@QAE@XZ
	mov	ecx, DWORD PTR _this$[ebp]
	add	ecx, 52					; 00000034H
	call	??0Vector@@QAE@XZ			; Vector::Vector
	mov	eax, DWORD PTR _this$[ebp]
	pop	edi
	pop	esi
	pop	ebx
	mov	esp, ebp
	pop	ebp
	ret	0
??0pmtrace_s@@QAE@XZ ENDP				; pmtrace_s::pmtrace_s
_TEXT	ENDS
; Function compile flags: /Odtp /ZI
;	COMDAT ??0pmplane_t@@QAE@XZ
_TEXT	SEGMENT
_this$ = -4						; size = 4
??0pmplane_t@@QAE@XZ PROC				; pmplane_t::pmplane_t, COMDAT
; _this$ = ecx
	push	ebp
	mov	ebp, esp
	sub	esp, 68					; 00000044H
	push	ebx
	push	esi
	push	edi
	mov	DWORD PTR _this$[ebp], ecx
	mov	ecx, DWORD PTR _this$[ebp]
	call	??0Vector@@QAE@XZ			; Vector::Vector
	mov	eax, DWORD PTR _this$[ebp]
	pop	edi
	pop	esi
	pop	ebx
	mov	esp, ebp
	pop	ebp
	ret	0
??0pmplane_t@@QAE@XZ ENDP				; pmplane_t::pmplane_t
_TEXT	ENDS
; Function compile flags: /Odtp /ZI
; File d:\!diffusion 2020\source code 2022\client-server\client\hud.h
;	COMDAT ?HasWeapon@CHud@@QAEHH@Z
_TEXT	SEGMENT
_this$ = -4						; size = 4
_weaponnum$ = 8						; size = 4
?HasWeapon@CHud@@QAEHH@Z PROC				; CHud::HasWeapon, COMDAT
; _this$ = ecx

; 1038 : 	BOOL HasWeapon( int weaponnum ) { return FBitSet( m_iWeaponBits[weaponnum >> 3], BIT( weaponnum & 7 )); }

	push	ebp
	mov	ebp, esp
	sub	esp, 68					; 00000044H
	push	ebx
	push	esi
	push	edi
	mov	DWORD PTR _this$[ebp], ecx
	mov	eax, DWORD PTR _weaponnum$[ebp]
	sar	eax, 3
	mov	ecx, DWORD PTR _this$[ebp]
	movzx	eax, BYTE PTR [ecx+eax+8964]
	mov	ecx, DWORD PTR _weaponnum$[ebp]
	and	ecx, 7
	mov	edx, 1
	shl	edx, cl
	and	eax, edx
	pop	edi
	pop	esi
	pop	ebx
	mov	esp, ebp
	pop	ebp
	ret	4
?HasWeapon@CHud@@QAEHH@Z ENDP				; CHud::HasWeapon
_TEXT	ENDS
; Function compile flags: /Odtp /ZI
; File d:\!diffusion 2020\source code 2022\client-server\game_shared\matrix.h
;	COMDAT ??Amatrix3x4@@QAEPAMH@Z
_TEXT	SEGMENT
_this$ = -4						; size = 4
_i$ = 8							; size = 4
??Amatrix3x4@@QAEPAMH@Z PROC				; matrix3x4::operator[], COMDAT
; _this$ = ecx

; 497  : 	float* operator[]( int i ) { return mat[i]; }

	push	ebp
	mov	ebp, esp
	sub	esp, 68					; 00000044H
	push	ebx
	push	esi
	push	edi
	mov	DWORD PTR _this$[ebp], ecx
	imul	ecx, DWORD PTR _i$[ebp], 12
	add	ecx, DWORD PTR _this$[ebp]
	call	??BVector@@QAEPAMXZ			; Vector::operator float *
	pop	edi
	pop	esi
	pop	ebx
	mov	esp, ebp
	pop	ebp
	ret	4
??Amatrix3x4@@QAEPAMH@Z ENDP				; matrix3x4::operator[]
_TEXT	ENDS
; Function compile flags: /Odtp /ZI
; File d:\!diffusion 2020\source code 2022\client-server\game_shared\vector.h
;	COMDAT ?DotProduct@@YAMABVVector@@0@Z
_TEXT	SEGMENT
tv86 = -68						; size = 4
_a$ = 8							; size = 4
_b$ = 12						; size = 4
?DotProduct@@YAMABVVector@@0@Z PROC			; DotProduct, COMDAT

; 308  : inline float DotProduct(const Vector& a, const Vector& b ) { return( a.x * b.x + a.y * b.y + a.z * b.z ); }

	push	ebp
	mov	ebp, esp
	sub	esp, 68					; 00000044H
	push	ebx
	push	esi
	push	edi
	mov	eax, DWORD PTR _a$[ebp]
	mov	ecx, DWORD PTR _b$[ebp]
	movss	xmm0, DWORD PTR [eax]
	mulss	xmm0, DWORD PTR [ecx]
	mov	edx, DWORD PTR _a$[ebp]
	mov	eax, DWORD PTR _b$[ebp]
	movss	xmm1, DWORD PTR [edx+4]
	mulss	xmm1, DWORD PTR [eax+4]
	addss	xmm0, xmm1
	mov	ecx, DWORD PTR _a$[ebp]
	mov	edx, DWORD PTR _b$[ebp]
	movss	xmm1, DWORD PTR [ecx+8]
	mulss	xmm1, DWORD PTR [edx+8]
	addss	xmm0, xmm1
	movss	DWORD PTR tv86[ebp], xmm0
	fld	DWORD PTR tv86[ebp]
	pop	edi
	pop	esi
	pop	ebx
	mov	esp, ebp
	pop	ebp
	ret	0
?DotProduct@@YAMABVVector@@0@Z ENDP			; DotProduct
_TEXT	ENDS
; Function compile flags: /Odtp /ZI
; File d:\!diffusion 2020\source code 2022\client-server\game_shared\vector.h
;	COMDAT ?Normalize@Vector@@QBE?AV1@XZ
_TEXT	SEGMENT
_flLen$ = -8						; size = 4
_this$ = -4						; size = 4
___$ReturnUdt$ = 8					; size = 4
?Normalize@Vector@@QBE?AV1@XZ PROC			; Vector::Normalize, COMDAT
; _this$ = ecx

; 251  : 	{

	push	ebp
	mov	ebp, esp
	sub	esp, 72					; 00000048H
	push	ebx
	push	esi
	push	edi
	mov	DWORD PTR _this$[ebp], ecx

; 252  : 		float flLen = Length();

	mov	ecx, DWORD PTR _this$[ebp]
	call	?Length@Vector@@QBEMXZ			; Vector::Length
	fstp	DWORD PTR _flLen$[ebp]

; 253  : 
; 254  : 		if( flLen )

	movss	xmm0, DWORD PTR _flLen$[ebp]
	ucomiss	xmm0, DWORD PTR __real@00000000
	lahf
	test	ah, 68					; 00000044H
	jnp	SHORT $LN2@Normalize

; 255  : 		{
; 256  : 			flLen = 1.0f / flLen;

	movss	xmm0, DWORD PTR __real@3f800000
	divss	xmm0, DWORD PTR _flLen$[ebp]
	movss	DWORD PTR _flLen$[ebp], xmm0

; 257  : 			return Vector( x * flLen, y * flLen, z * flLen );

	mov	eax, DWORD PTR _this$[ebp]
	movss	xmm0, DWORD PTR [eax+8]
	mulss	xmm0, DWORD PTR _flLen$[ebp]
	push	ecx
	movss	DWORD PTR [esp], xmm0
	mov	ecx, DWORD PTR _this$[ebp]
	movss	xmm0, DWORD PTR [ecx+4]
	mulss	xmm0, DWORD PTR _flLen$[ebp]
	push	ecx
	movss	DWORD PTR [esp], xmm0
	mov	edx, DWORD PTR _this$[ebp]
	movss	xmm0, DWORD PTR [edx]
	mulss	xmm0, DWORD PTR _flLen$[ebp]
	push	ecx
	movss	DWORD PTR [esp], xmm0
	mov	ecx, DWORD PTR ___$ReturnUdt$[ebp]
	call	??0Vector@@QAE@MMM@Z			; Vector::Vector
	mov	eax, DWORD PTR ___$ReturnUdt$[ebp]
	jmp	SHORT $LN1@Normalize
$LN2@Normalize:

; 258  : 		}
; 259  : 
; 260  : 		return *this; // can't normalize

	mov	eax, DWORD PTR _this$[ebp]
	push	eax
	mov	ecx, DWORD PTR ___$ReturnUdt$[ebp]
	call	??0Vector@@QAE@ABV0@@Z			; Vector::Vector
	mov	eax, DWORD PTR ___$ReturnUdt$[ebp]
$LN1@Normalize:

; 261  : 	}

	pop	edi
	pop	esi
	pop	ebx
	mov	esp, ebp
	pop	ebp
	ret	4
?Normalize@Vector@@QBE?AV1@XZ ENDP			; Vector::Normalize
_TEXT	ENDS
; Function compile flags: /Odtp /ZI
; File d:\!diffusion 2020\source code 2022\client-server\game_shared\vector.h
;	COMDAT ??BVector@@QBEPBMXZ
_TEXT	SEGMENT
_this$ = -4						; size = 4
??BVector@@QBEPBMXZ PROC				; Vector::operator float const *, COMDAT
; _this$ = ecx

; 248  : 	operator const float *() const		{ return &x; } 

	push	ebp
	mov	ebp, esp
	sub	esp, 68					; 00000044H
	push	ebx
	push	esi
	push	edi
	mov	DWORD PTR _this$[ebp], ecx
	mov	eax, DWORD PTR _this$[ebp]
	pop	edi
	pop	esi
	pop	ebx
	mov	esp, ebp
	pop	ebp
	ret	0
??BVector@@QBEPBMXZ ENDP				; Vector::operator float const *
_TEXT	ENDS
; Function compile flags: /Odtp /ZI
; File d:\!diffusion 2020\source code 2022\client-server\game_shared\vector.h
;	COMDAT ??BVector@@QAEPAMXZ
_TEXT	SEGMENT
_this$ = -4						; size = 4
??BVector@@QAEPAMXZ PROC				; Vector::operator float *, COMDAT
; _this$ = ecx

; 247  : 	operator float *()				{ return &x; } // Vectors will now automatically convert to float * when needed

	push	ebp
	mov	ebp, esp
	sub	esp, 68					; 00000044H
	push	ebx
	push	esi
	push	edi
	mov	DWORD PTR _this$[ebp], ecx
	mov	eax, DWORD PTR _this$[ebp]
	pop	edi
	pop	esi
	pop	ebx
	mov	esp, ebp
	pop	ebp
	ret	0
??BVector@@QAEPAMXZ ENDP				; Vector::operator float *
_TEXT	ENDS
; Function compile flags: /Odtp /ZI
; File d:\!diffusion 2020\source code 2022\client-server\game_shared\vector.h
;	COMDAT ?Length@Vector@@QBEMXZ
_TEXT	SEGMENT
tv91 = -72						; size = 4
_this$ = -4						; size = 4
?Length@Vector@@QBEMXZ PROC				; Vector::Length, COMDAT
; _this$ = ecx

; 245  : 	inline float Length(void) const		{ return sqrt( x*x + y*y + z*z ); }

	push	ebp
	mov	ebp, esp
	sub	esp, 72					; 00000048H
	push	ebx
	push	esi
	push	edi
	mov	DWORD PTR _this$[ebp], ecx
	mov	eax, DWORD PTR _this$[ebp]
	mov	ecx, DWORD PTR _this$[ebp]
	movss	xmm0, DWORD PTR [eax]
	mulss	xmm0, DWORD PTR [ecx]
	mov	edx, DWORD PTR _this$[ebp]
	mov	eax, DWORD PTR _this$[ebp]
	movss	xmm1, DWORD PTR [edx+4]
	mulss	xmm1, DWORD PTR [eax+4]
	addss	xmm0, xmm1
	mov	ecx, DWORD PTR _this$[ebp]
	mov	edx, DWORD PTR _this$[ebp]
	movss	xmm1, DWORD PTR [ecx+8]
	mulss	xmm1, DWORD PTR [edx+8]
	addss	xmm0, xmm1
	cvtss2sd xmm0, xmm0
	sub	esp, 8
	movsd	QWORD PTR [esp], xmm0
	call	_sqrt
	add	esp, 8
	fstp	DWORD PTR tv91[ebp]
	fld	DWORD PTR tv91[ebp]
	pop	edi
	pop	esi
	pop	ebx
	mov	esp, ebp
	pop	ebp
	ret	0
?Length@Vector@@QBEMXZ ENDP				; Vector::Length
_TEXT	ENDS
; Function compile flags: /Odtp /ZI
; File d:\!diffusion 2020\source code 2022\client-server\game_shared\vector.h
;	COMDAT ??DVector@@QBE?AV0@M@Z
_TEXT	SEGMENT
_this$ = -4						; size = 4
___$ReturnUdt$ = 8					; size = 4
_fl$ = 12						; size = 4
??DVector@@QBE?AV0@M@Z PROC				; Vector::operator*, COMDAT
; _this$ = ecx

; 162  : 	inline Vector operator*(float fl) const		{ return Vector(x*fl, y*fl, z*fl);	   }

	push	ebp
	mov	ebp, esp
	sub	esp, 68					; 00000044H
	push	ebx
	push	esi
	push	edi
	mov	DWORD PTR _this$[ebp], ecx
	mov	eax, DWORD PTR _this$[ebp]
	movss	xmm0, DWORD PTR [eax+8]
	mulss	xmm0, DWORD PTR _fl$[ebp]
	push	ecx
	movss	DWORD PTR [esp], xmm0
	mov	ecx, DWORD PTR _this$[ebp]
	movss	xmm0, DWORD PTR [ecx+4]
	mulss	xmm0, DWORD PTR _fl$[ebp]
	push	ecx
	movss	DWORD PTR [esp], xmm0
	mov	edx, DWORD PTR _this$[ebp]
	movss	xmm0, DWORD PTR [edx]
	mulss	xmm0, DWORD PTR _fl$[ebp]
	push	ecx
	movss	DWORD PTR [esp], xmm0
	mov	ecx, DWORD PTR ___$ReturnUdt$[ebp]
	call	??0Vector@@QAE@MMM@Z			; Vector::Vector
	mov	eax, DWORD PTR ___$ReturnUdt$[ebp]
	pop	edi
	pop	esi
	pop	ebx
	mov	esp, ebp
	pop	ebp
	ret	8
??DVector@@QBE?AV0@M@Z ENDP				; Vector::operator*
_TEXT	ENDS
; Function compile flags: /Odtp /ZI
; File d:\!diffusion 2020\source code 2022\client-server\game_shared\vector.h
;	COMDAT ??GVector@@QBE?AV0@ABV0@@Z
_TEXT	SEGMENT
_this$ = -4						; size = 4
___$ReturnUdt$ = 8					; size = 4
_v$ = 12						; size = 4
??GVector@@QBE?AV0@ABV0@@Z PROC				; Vector::operator-, COMDAT
; _this$ = ecx

; 159  : 	inline Vector operator-(const Vector& v) const	{ return Vector(x-v.x, y-v.y, z-v.z);	   }

	push	ebp
	mov	ebp, esp
	sub	esp, 68					; 00000044H
	push	ebx
	push	esi
	push	edi
	mov	DWORD PTR _this$[ebp], ecx
	mov	eax, DWORD PTR _this$[ebp]
	mov	ecx, DWORD PTR _v$[ebp]
	movss	xmm0, DWORD PTR [eax+8]
	subss	xmm0, DWORD PTR [ecx+8]
	push	ecx
	movss	DWORD PTR [esp], xmm0
	mov	edx, DWORD PTR _this$[ebp]
	mov	eax, DWORD PTR _v$[ebp]
	movss	xmm0, DWORD PTR [edx+4]
	subss	xmm0, DWORD PTR [eax+4]
	push	ecx
	movss	DWORD PTR [esp], xmm0
	mov	ecx, DWORD PTR _this$[ebp]
	mov	edx, DWORD PTR _v$[ebp]
	movss	xmm0, DWORD PTR [ecx]
	subss	xmm0, DWORD PTR [edx]
	push	ecx
	movss	DWORD PTR [esp], xmm0
	mov	ecx, DWORD PTR ___$ReturnUdt$[ebp]
	call	??0Vector@@QAE@MMM@Z			; Vector::Vector
	mov	eax, DWORD PTR ___$ReturnUdt$[ebp]
	pop	edi
	pop	esi
	pop	ebx
	mov	esp, ebp
	pop	ebp
	ret	8
??GVector@@QBE?AV0@ABV0@@Z ENDP				; Vector::operator-
_TEXT	ENDS
; Function compile flags: /Odtp /ZI
; File d:\!diffusion 2020\source code 2022\client-server\game_shared\vector.h
;	COMDAT ??HVector@@QBE?AV0@ABV0@@Z
_TEXT	SEGMENT
_this$ = -4						; size = 4
___$ReturnUdt$ = 8					; size = 4
_v$ = 12						; size = 4
??HVector@@QBE?AV0@ABV0@@Z PROC				; Vector::operator+, COMDAT
; _this$ = ecx

; 158  : 	inline Vector operator+(const Vector& v) const	{ return Vector(x+v.x, y+v.y, z+v.z);	   }

	push	ebp
	mov	ebp, esp
	sub	esp, 68					; 00000044H
	push	ebx
	push	esi
	push	edi
	mov	DWORD PTR _this$[ebp], ecx
	mov	eax, DWORD PTR _this$[ebp]
	mov	ecx, DWORD PTR _v$[ebp]
	movss	xmm0, DWORD PTR [eax+8]
	addss	xmm0, DWORD PTR [ecx+8]
	push	ecx
	movss	DWORD PTR [esp], xmm0
	mov	edx, DWORD PTR _this$[ebp]
	mov	eax, DWORD PTR _v$[ebp]
	movss	xmm0, DWORD PTR [edx+4]
	addss	xmm0, DWORD PTR [eax+4]
	push	ecx
	movss	DWORD PTR [esp], xmm0
	mov	ecx, DWORD PTR _this$[ebp]
	mov	edx, DWORD PTR _v$[ebp]
	movss	xmm0, DWORD PTR [ecx]
	addss	xmm0, DWORD PTR [edx]
	push	ecx
	movss	DWORD PTR [esp], xmm0
	mov	ecx, DWORD PTR ___$ReturnUdt$[ebp]
	call	??0Vector@@QAE@MMM@Z			; Vector::Vector
	mov	eax, DWORD PTR ___$ReturnUdt$[ebp]
	pop	edi
	pop	esi
	pop	ebx
	mov	esp, ebp
	pop	ebp
	ret	8
??HVector@@QBE?AV0@ABV0@@Z ENDP				; Vector::operator+
_TEXT	ENDS
; Function compile flags: /Odtp /ZI
; File d:\!diffusion 2020\source code 2022\client-server\game_shared\vector.h
;	COMDAT ??8Vector@@QBEHABV0@@Z
_TEXT	SEGMENT
tv73 = -72						; size = 4
_this$ = -4						; size = 4
_v$ = 8							; size = 4
??8Vector@@QBEHABV0@@Z PROC				; Vector::operator==, COMDAT
; _this$ = ecx

; 156  : 	inline int operator==(const Vector& v) const	{ return x==v.x && y==v.y && z==v.z;	   }

	push	ebp
	mov	ebp, esp
	sub	esp, 72					; 00000048H
	push	ebx
	push	esi
	push	edi
	mov	DWORD PTR _this$[ebp], ecx
	mov	eax, DWORD PTR _this$[ebp]
	mov	ecx, DWORD PTR _v$[ebp]
	movss	xmm0, DWORD PTR [eax]
	ucomiss	xmm0, DWORD PTR [ecx]
	lahf
	test	ah, 68					; 00000044H
	jp	SHORT $LN3@operator
	mov	edx, DWORD PTR _this$[ebp]
	mov	eax, DWORD PTR _v$[ebp]
	movss	xmm0, DWORD PTR [edx+4]
	ucomiss	xmm0, DWORD PTR [eax+4]
	lahf
	test	ah, 68					; 00000044H
	jp	SHORT $LN3@operator
	mov	ecx, DWORD PTR _this$[ebp]
	mov	edx, DWORD PTR _v$[ebp]
	movss	xmm0, DWORD PTR [ecx+8]
	ucomiss	xmm0, DWORD PTR [edx+8]
	lahf
	test	ah, 68					; 00000044H
	jp	SHORT $LN3@operator
	mov	DWORD PTR tv73[ebp], 1
	jmp	SHORT $LN4@operator
$LN3@operator:
	mov	DWORD PTR tv73[ebp], 0
$LN4@operator:
	mov	eax, DWORD PTR tv73[ebp]
	pop	edi
	pop	esi
	pop	ebx
	mov	esp, ebp
	pop	ebp
	ret	4
??8Vector@@QBEHABV0@@Z ENDP				; Vector::operator==
_TEXT	ENDS
; Function compile flags: /Odtp /ZI
; File d:\!diffusion 2020\source code 2022\client-server\game_shared\vector.h
;	COMDAT ??GVector@@QBE?AV0@XZ
_TEXT	SEGMENT
_this$ = -4						; size = 4
___$ReturnUdt$ = 8					; size = 4
??GVector@@QBE?AV0@XZ PROC				; Vector::operator-, COMDAT
; _this$ = ecx

; 155  : 	inline Vector operator-(void) const		{ return Vector(-x,-y,-z);		   }

	push	ebp
	mov	ebp, esp
	sub	esp, 68					; 00000044H
	push	ebx
	push	esi
	push	edi
	mov	DWORD PTR _this$[ebp], ecx
	mov	eax, DWORD PTR _this$[ebp]
	movss	xmm0, DWORD PTR [eax+8]
	xorps	xmm0, DWORD PTR __xmm@80000000800000008000000080000000
	push	ecx
	movss	DWORD PTR [esp], xmm0
	mov	ecx, DWORD PTR _this$[ebp]
	movss	xmm0, DWORD PTR [ecx+4]
	xorps	xmm0, DWORD PTR __xmm@80000000800000008000000080000000
	push	ecx
	movss	DWORD PTR [esp], xmm0
	mov	edx, DWORD PTR _this$[ebp]
	movss	xmm0, DWORD PTR [edx]
	xorps	xmm0, DWORD PTR __xmm@80000000800000008000000080000000
	push	ecx
	movss	DWORD PTR [esp], xmm0
	mov	ecx, DWORD PTR ___$ReturnUdt$[ebp]
	call	??0Vector@@QAE@MMM@Z			; Vector::Vector
	mov	eax, DWORD PTR ___$ReturnUdt$[ebp]
	pop	edi
	pop	esi
	pop	ebx
	mov	esp, ebp
	pop	ebp
	ret	4
??GVector@@QBE?AV0@XZ ENDP				; Vector::operator-
_TEXT	ENDS
; Function compile flags: /Odtp /ZI
; File d:\!diffusion 2020\source code 2022\client-server\game_shared\vector.h
;	COMDAT ??0Vector@@QAE@ABV0@@Z
_TEXT	SEGMENT
_this$ = -4						; size = 4
_v$ = 8							; size = 4
??0Vector@@QAE@ABV0@@Z PROC				; Vector::Vector, COMDAT
; _this$ = ecx

; 145  : 	inline Vector(const Vector& v)		{ x = v.x; y = v.y; z = v.z;		   }

	push	ebp
	mov	ebp, esp
	sub	esp, 68					; 00000044H
	push	ebx
	push	esi
	push	edi
	mov	DWORD PTR _this$[ebp], ecx
	mov	eax, DWORD PTR _this$[ebp]
	mov	ecx, DWORD PTR _v$[ebp]
	mov	edx, DWORD PTR [ecx]
	mov	DWORD PTR [eax], edx
	mov	eax, DWORD PTR _this$[ebp]
	mov	ecx, DWORD PTR _v$[ebp]
	mov	edx, DWORD PTR [ecx+4]
	mov	DWORD PTR [eax+4], edx
	mov	eax, DWORD PTR _this$[ebp]
	mov	ecx, DWORD PTR _v$[ebp]
	mov	edx, DWORD PTR [ecx+8]
	mov	DWORD PTR [eax+8], edx
	mov	eax, DWORD PTR _this$[ebp]
	pop	edi
	pop	esi
	pop	ebx
	mov	esp, ebp
	pop	ebp
	ret	4
??0Vector@@QAE@ABV0@@Z ENDP				; Vector::Vector
_TEXT	ENDS
; Function compile flags: /Odtp /ZI
; File d:\!diffusion 2020\source code 2022\client-server\game_shared\vector.h
;	COMDAT ??0Vector@@QAE@MMM@Z
_TEXT	SEGMENT
_this$ = -4						; size = 4
_X$ = 8							; size = 4
_Y$ = 12						; size = 4
_Z$ = 16						; size = 4
??0Vector@@QAE@MMM@Z PROC				; Vector::Vector, COMDAT
; _this$ = ecx

; 144  : 	inline Vector(float X, float Y, float Z)	{ x = X; y = Y; z = Z;                     }

	push	ebp
	mov	ebp, esp
	sub	esp, 68					; 00000044H
	push	ebx
	push	esi
	push	edi
	mov	DWORD PTR _this$[ebp], ecx
	mov	eax, DWORD PTR _this$[ebp]
	movss	xmm0, DWORD PTR _X$[ebp]
	movss	DWORD PTR [eax], xmm0
	mov	eax, DWORD PTR _this$[ebp]
	movss	xmm0, DWORD PTR _Y$[ebp]
	movss	DWORD PTR [eax+4], xmm0
	mov	eax, DWORD PTR _this$[ebp]
	movss	xmm0, DWORD PTR _Z$[ebp]
	movss	DWORD PTR [eax+8], xmm0
	mov	eax, DWORD PTR _this$[ebp]
	pop	edi
	pop	esi
	pop	ebx
	mov	esp, ebp
	pop	ebp
	ret	12					; 0000000cH
??0Vector@@QAE@MMM@Z ENDP				; Vector::Vector
_TEXT	ENDS
; Function compile flags: /Odtp /ZI
; File d:\!diffusion 2020\source code 2022\client-server\game_shared\vector.h
;	COMDAT ??0Vector@@QAE@XZ
_TEXT	SEGMENT
_this$ = -4						; size = 4
??0Vector@@QAE@XZ PROC					; Vector::Vector, COMDAT
; _this$ = ecx

; 143  : 	inline Vector(void)				{ }

	push	ebp
	mov	ebp, esp
	sub	esp, 68					; 00000044H
	push	ebx
	push	esi
	push	edi
	mov	DWORD PTR _this$[ebp], ecx
	mov	eax, DWORD PTR _this$[ebp]
	pop	edi
	pop	esi
	pop	ebx
	mov	esp, ebp
	pop	ebp
	ret	0
??0Vector@@QAE@XZ ENDP					; Vector::Vector
_TEXT	ENDS
; Function compile flags: /Odtp /ZI
; File d:\!diffusion 2020\source code 2022\client-server\game_shared\vector.h
;	COMDAT ?SinCos@@YAXMPAM0@Z
_TEXT	SEGMENT
_angle$ = 8						; size = 4
_sine$ = 12						; size = 4
_cosine$ = 16						; size = 4
?SinCos@@YAXMPAM0@Z PROC				; SinCos, COMDAT

; 36   : {

	push	ebp
	mov	ebp, esp
	sub	esp, 64					; 00000040H
	push	ebx
	push	esi
	push	edi

; 37   : 	/*
; 38   : 	__asm
; 39   : 	{
; 40   : 		push	ecx
; 41   : 		fld	dword ptr angle
; 42   : 		fsincos
; 43   : 		mov	ecx, dword ptr[cosine]
; 44   : 		fstp      dword ptr [ecx]
; 45   : 		mov 	ecx, dword ptr[sine]
; 46   : 		fstp	dword ptr [ecx]
; 47   : 		pop	ecx
; 48   : 	}*/
; 49   : 	*sine = sin( angle );

	cvtss2sd xmm0, DWORD PTR _angle$[ebp]
	sub	esp, 8
	movsd	QWORD PTR [esp], xmm0
	call	_sin
	add	esp, 8
	mov	eax, DWORD PTR _sine$[ebp]
	fstp	DWORD PTR [eax]

; 50   : 	*cosine = cos( angle );

	cvtss2sd xmm0, DWORD PTR _angle$[ebp]
	sub	esp, 8
	movsd	QWORD PTR [esp], xmm0
	call	_cos
	add	esp, 8
	mov	eax, DWORD PTR _cosine$[ebp]
	fstp	DWORD PTR [eax]

; 51   : }

	pop	edi
	pop	esi
	pop	ebx
	mov	esp, ebp
	pop	ebp
	ret	0
?SinCos@@YAXMPAM0@Z ENDP				; SinCos
_TEXT	ENDS
; Function compile flags: /Odtp /ZI
;	COMDAT ??__G@YGXPAX0IIP6EPAX00@Z@Z
_TEXT	SEGMENT
tv66 = -68						; size = 4
___t$ = 8						; size = 4
___u$ = 12						; size = 4
___s$ = 16						; size = 4
___n$ = 20						; size = 4
___f$ = 24						; size = 4
??__G@YGXPAX0IIP6EPAX00@Z@Z PROC			; `vector copy constructor iterator', COMDAT
	push	ebp
	mov	ebp, esp
	sub	esp, 68					; 00000044H
	push	ebx
	push	esi
	push	edi
$LN2@vector:
	mov	eax, DWORD PTR ___n$[ebp]
	mov	DWORD PTR tv66[ebp], eax
	mov	ecx, DWORD PTR ___n$[ebp]
	sub	ecx, 1
	mov	DWORD PTR ___n$[ebp], ecx
	cmp	DWORD PTR tv66[ebp], 0
	jbe	SHORT $LN1@vector
	mov	eax, DWORD PTR ___u$[ebp]
	push	eax
	mov	ecx, DWORD PTR ___t$[ebp]
	call	DWORD PTR ___f$[ebp]
	mov	eax, DWORD PTR ___t$[ebp]
	add	eax, DWORD PTR ___s$[ebp]
	mov	DWORD PTR ___t$[ebp], eax
	mov	eax, DWORD PTR ___u$[ebp]
	add	eax, DWORD PTR ___s$[ebp]
	mov	DWORD PTR ___u$[ebp], eax
	jmp	SHORT $LN2@vector
$LN1@vector:
	pop	edi
	pop	esi
	pop	ebx
	mov	esp, ebp
	pop	ebp
	ret	20					; 00000014H
??__G@YGXPAX0IIP6EPAX00@Z@Z ENDP			; `vector copy constructor iterator'
_TEXT	ENDS
; Function compile flags: /Odtp /ZI
;	COMDAT ??_H@YGXPAXIIP6EPAX0@Z@Z
_TEXT	SEGMENT
tv66 = -68						; size = 4
___t$ = 8						; size = 4
___s$ = 12						; size = 4
___n$ = 16						; size = 4
___f$ = 20						; size = 4
??_H@YGXPAXIIP6EPAX0@Z@Z PROC				; `vector constructor iterator', COMDAT
	push	ebp
	mov	ebp, esp
	sub	esp, 68					; 00000044H
	push	ebx
	push	esi
	push	edi
$LN2@vector:
	mov	eax, DWORD PTR ___n$[ebp]
	mov	DWORD PTR tv66[ebp], eax
	mov	ecx, DWORD PTR ___n$[ebp]
	sub	ecx, 1
	mov	DWORD PTR ___n$[ebp], ecx
	cmp	DWORD PTR tv66[ebp], 0
	jbe	SHORT $LN1@vector
	mov	ecx, DWORD PTR ___t$[ebp]
	call	DWORD PTR ___f$[ebp]
	mov	eax, DWORD PTR ___t$[ebp]
	add	eax, DWORD PTR ___s$[ebp]
	mov	DWORD PTR ___t$[ebp], eax
	jmp	SHORT $LN2@vector
$LN1@vector:
	pop	edi
	pop	esi
	pop	ebx
	mov	esp, ebp
	pop	ebp
	ret	16					; 00000010H
??_H@YGXPAXIIP6EPAX0@Z@Z ENDP				; `vector constructor iterator'
_TEXT	ENDS
END
