; Listing generated by Microsoft (R) Optimizing Compiler Version 19.00.24247.2 

	TITLE	D:\!DIFFUSION 2020\source code 2022\client-server\client\render\r_quakeparticle.cpp
	.686P
	.XMM
	include listing.inc
	.model	flat

INCLUDELIB LIBCMT
INCLUDELIB OLDNAMES

PUBLIC	?partcounter@@3HA				; partcounter
_BSS	SEGMENT
?partcounter@@3HA DD 01H DUP (?)			; partcounter
_BSS	ENDS
PUBLIC	??_H@YGXPAXIIP6EPAX0@Z@Z			; `vector constructor iterator'
PUBLIC	??__G@YGXPAX0IIP6EPAX00@Z@Z			; `vector copy constructor iterator'
PUBLIC	??0Vector2D@@QAE@XZ				; Vector2D::Vector2D
PUBLIC	??0Vector@@QAE@XZ				; Vector::Vector
PUBLIC	??0Vector@@QAE@MMM@Z				; Vector::Vector
PUBLIC	??0Vector@@QAE@ABV0@@Z				; Vector::Vector
PUBLIC	??GVector@@QBE?AV0@XZ				; Vector::operator-
PUBLIC	??HVector@@QBE?AV0@ABV0@@Z			; Vector::operator+
PUBLIC	??GVector@@QBE?AV0@ABV0@@Z			; Vector::operator-
PUBLIC	??DVector@@QBE?AV0@M@Z				; Vector::operator*
PUBLIC	??KVector@@QBE?AV0@M@Z				; Vector::operator/
PUBLIC	??YVector@@QAEAAV0@ABV0@@Z			; Vector::operator+=
PUBLIC	??ZVector@@QAEAAV0@ABV0@@Z			; Vector::operator-=
PUBLIC	??XVector@@QAEAAV0@ABV0@@Z			; Vector::operator*=
PUBLIC	??XVector@@QAEAAV0@M@Z				; Vector::operator*=
PUBLIC	?IsNull@Vector@@QBE_NM@Z			; Vector::IsNull
PUBLIC	?Length@Vector@@QBEMXZ				; Vector::Length
PUBLIC	??BVector@@QAEPAMXZ				; Vector::operator float *
PUBLIC	??BVector@@QBEPBMXZ				; Vector::operator float const *
PUBLIC	?Normalize@Vector@@QBE?AV1@XZ			; Vector::Normalize
PUBLIC	??D@YA?AVVector@@MABV0@@Z			; operator*
PUBLIC	?DotProduct@@YAMABVVector@@0@Z			; DotProduct
PUBLIC	?CrossProduct@@YA?AVVector@@ABV1@0@Z		; CrossProduct
PUBLIC	??0RandomRange@@QAE@XZ				; RandomRange::RandomRange
PUBLIC	??0RandomRange@@QAE@PAD@Z			; RandomRange::RandomRange
PUBLIC	?Random@RandomRange@@QAEMXZ			; RandomRange::Random
PUBLIC	??0pmplane_t@@QAE@XZ				; pmplane_t::pmplane_t
PUBLIC	??0pmtrace_s@@QAE@XZ				; pmtrace_s::pmtrace_s
PUBLIC	?Evaluate@CQuakePart@@QAE_NM@Z			; CQuakePart::Evaluate
PUBLIC	??0CQuakePart@@QAE@XZ				; CQuakePart::CQuakePart
PUBLIC	??0CQuakePartInfo@@QAE@XZ			; CQuakePartInfo::CQuakePartInfo
PUBLIC	??0CQuakePartSystem@@QAE@XZ			; CQuakePartSystem::CQuakePartSystem
PUBLIC	??1CQuakePartSystem@@UAE@XZ			; CQuakePartSystem::~CQuakePartSystem
PUBLIC	?Clear@CQuakePartSystem@@QAEXXZ			; CQuakePartSystem::Clear
PUBLIC	?Update@CQuakePartSystem@@QAEXXZ		; CQuakePartSystem::Update
PUBLIC	?FreeParticle@CQuakePartSystem@@QAEXPAVCQuakePart@@@Z ; CQuakePartSystem::FreeParticle
PUBLIC	?AllocParticle@CQuakePartSystem@@QAEPAVCQuakePart@@XZ ; CQuakePartSystem::AllocParticle
PUBLIC	?AddParticle@CQuakePartSystem@@QAE_NPAVCQuakePart@@HH@Z ; CQuakePartSystem::AddParticle
PUBLIC	?ParsePartInfos@CQuakePartSystem@@QAEXPBD@Z	; CQuakePartSystem::ParsePartInfos
PUBLIC	?ParsePartInfo@CQuakePartSystem@@QAE_NPAVCQuakePartInfo@@AAPAD@Z ; CQuakePartSystem::ParsePartInfo
PUBLIC	?ParseRandomVector@CQuakePartSystem@@QAE_NAAPADQAVRandomRange@@@Z ; CQuakePartSystem::ParseRandomVector
PUBLIC	?ParseParticleFlags@CQuakePartSystem@@QAEHPAD@Z	; CQuakePartSystem::ParseParticleFlags
PUBLIC	?FindPartInfo@CQuakePartSystem@@QAEPAVCQuakePartInfo@@PBD@Z ; CQuakePartSystem::FindPartInfo
PUBLIC	?CreateEffect@CQuakePartSystem@@QAEXHPBDABVVector@@1@Z ; CQuakePartSystem::CreateEffect
PUBLIC	?DrawParticles@CQuakePartSystem@@QAEXAAV?$MemBlock@VCQuakePart@@@@@Z ; CQuakePartSystem::DrawParticles
PUBLIC	?ExplosionParticles@CQuakePartSystem@@QAEXHABVVector@@@Z ; CQuakePartSystem::ExplosionParticles
PUBLIC	?BulletParticles@CQuakePartSystem@@QAEXHABVVector@@0@Z ; CQuakePartSystem::BulletParticles
PUBLIC	?SparkParticles@CQuakePartSystem@@QAEXHABVVector@@0@Z ; CQuakePartSystem::SparkParticles
PUBLIC	?RicochetSparks@CQuakePartSystem@@QAEXHABVVector@@M@Z ; CQuakePartSystem::RicochetSparks
PUBLIC	?SmokeParticles@CQuakePartSystem@@QAEXHABVVector@@HMM@Z ; CQuakePartSystem::SmokeParticles
PUBLIC	?Smoke@CQuakePartSystem@@QAEXHHABVVector@@0HMMMMV2@MM@Z ; CQuakePartSystem::Smoke
PUBLIC	?GunSmoke@CQuakePartSystem@@QAEXHABVVector@@V2@H@Z ; CQuakePartSystem::GunSmoke
PUBLIC	?WaterSplashParticle@CQuakePartSystem@@QAEXHABVVector@@@Z ; CQuakePartSystem::WaterSplashParticle
PUBLIC	?SmokeVolume@CQuakePartSystem@@QAEXHHABVVector@@MMH@Z ; CQuakePartSystem::SmokeVolume
PUBLIC	?BloodParticle@CQuakePartSystem@@QAEXHABVVector@@MV2@1@Z ; CQuakePartSystem::BloodParticle
PUBLIC	??_GCQuakePartSystem@@UAEPAXI@Z			; CQuakePartSystem::`scalar deleting destructor'
PUBLIC	?R_GetSpriteFrame@@YAPAUmspriteframe_s@@PBUmodel_s@@H@Z ; R_GetSpriteFrame
PUBLIC	??0?$MemBlock@VCQuakePart@@@@QAE@H@Z		; MemBlock<CQuakePart>::MemBlock<CQuakePart>
PUBLIC	??1?$MemBlock@VCQuakePart@@@@QAE@XZ		; MemBlock<CQuakePart>::~MemBlock<CQuakePart>
PUBLIC	?Clear@?$MemBlock@VCQuakePart@@@@QAEXXZ		; MemBlock<CQuakePart>::Clear
PUBLIC	?Allocate@?$MemBlock@VCQuakePart@@@@QAEPAVCQuakePart@@XZ ; MemBlock<CQuakePart>::Allocate
PUBLIC	?IsClear@?$MemBlock@VCQuakePart@@@@QAE_NXZ	; MemBlock<CQuakePart>::IsClear
PUBLIC	?StartPass@?$MemBlock@VCQuakePart@@@@QAE_NXZ	; MemBlock<CQuakePart>::StartPass
PUBLIC	?GetCurrent@?$MemBlock@VCQuakePart@@@@QAEPAVCQuakePart@@XZ ; MemBlock<CQuakePart>::GetCurrent
PUBLIC	?MoveNext@?$MemBlock@VCQuakePart@@@@QAEXXZ	; MemBlock<CQuakePart>::MoveNext
PUBLIC	?DeleteCurrent@?$MemBlock@VCQuakePart@@@@QAEXXZ	; MemBlock<CQuakePart>::DeleteCurrent
PUBLIC	??0chunk_s@?$MemBlock@VCQuakePart@@@@QAE@XZ	; MemBlock<CQuakePart>::chunk_s::chunk_s
PUBLIC	??_7CQuakePartSystem@@6B@			; CQuakePartSystem::`vftable'
PUBLIC	?g_pParticles@@3VCQuakePartSystem@@A		; g_pParticles
PUBLIC	?ParticleArray_Default@@3V?$MemBlock@VCQuakePart@@@@A ; ParticleArray_Default
PUBLIC	?ParticleArray_Dustmote@@3V?$MemBlock@VCQuakePart@@@@A ; ParticleArray_Dustmote
PUBLIC	?ParticleArray_Sparks@@3V?$MemBlock@VCQuakePart@@@@A ; ParticleArray_Sparks
PUBLIC	?ParticleArray_Smoke@@3V?$MemBlock@VCQuakePart@@@@A ; ParticleArray_Smoke
PUBLIC	?ParticleArray_Smoke_NotInWater@@3V?$MemBlock@VCQuakePart@@@@A ; ParticleArray_Smoke_NotInWater
PUBLIC	?ParticleArray_Watersplash@@3V?$MemBlock@VCQuakePart@@@@A ; ParticleArray_Watersplash
PUBLIC	?ParticleArray_Sand@@3V?$MemBlock@VCQuakePart@@@@A ; ParticleArray_Sand
PUBLIC	?ParticleArray_Dirt@@3V?$MemBlock@VCQuakePart@@@@A ; ParticleArray_Dirt
PUBLIC	?ParticleArray_Fireball@@3V?$MemBlock@VCQuakePart@@@@A ; ParticleArray_Fireball
PUBLIC	?ParticleArray_Blood@@3V?$MemBlock@VCQuakePart@@@@A ; ParticleArray_Blood
PUBLIC	??_C@_09KHFKAJMC@?$CKparticle?$AA@		; `string'
PUBLIC	??_C@_0BE@DHIHIMHH@gfx?1particles?1spark?$AA@	; `string'
PUBLIC	??_C@_0BE@MCFMBNAG@gfx?1particles?1smoke?$AA@	; `string'
PUBLIC	??_C@_0BI@HPNKPJDK@gfx?1particles?1waterring?$AA@ ; `string'
PUBLIC	??_C@_0BE@CJKEHMBF@gfx?1particles?1blood?$AA@	; `string'
PUBLIC	??_C@_0BL@DNBECAEN@gfx?1particles?1sandparticle?$AA@ ; `string'
PUBLIC	??_C@_0BL@HBCOCBNF@gfx?1particles?1dirtparticle?$AA@ ; `string'
PUBLIC	??_C@_0BH@LEHKLNJL@gfx?1particles?1dustmote?$AA@ ; `string'
PUBLIC	??_C@_0BI@BPBIPOGH@gfx?1particles?1explosion?$AA@ ; `string'
PUBLIC	??_C@_0BD@FMKPEBGE@data?1particles?4txt?$AA@	; `string'
PUBLIC	??_C@_0M@KOFNDIEA@loading?5?$CFs?6?$AA@		; `string'
PUBLIC	??_C@_0BF@NPLBJKHF@Cannot?5open?5file?5?$CFs?6?$AA@ ; `string'
PUBLIC	??_C@_0CO@GIHBEDNL@particle?5effects?5info?5limit?5exce@ ; `string'
PUBLIC	??_C@_0BL@MJDIPEOM@found?5?$CFs?5when?5expecting?5?$HL?6?$AA@ ; `string'
PUBLIC	??_C@_0BD@PFFOMDCC@?$CFd?5effects?5parsed?6?$AA@ ; `string'
PUBLIC	??_C@_0CK@MMAOOEFB@QuakeParticle?3?5couldn?8t?5find?5eff@ ; `string'
PUBLIC	??_C@_06PAHFPMEK@Bounce?$AA@			; `string'
PUBLIC	??_C@_08DIMMEHEB@Friction?$AA@			; `string'
PUBLIC	??_C@_05JODGIKH@Light?$AA@			; `string'
PUBLIC	??_C@_07ENIDNHGB@Stretch?$AA@			; `string'
PUBLIC	??_C@_0L@LFPBPCDD@Underwater?$AA@		; `string'
PUBLIC	??_C@_07HMOCDNDG@Instant?$AA@			; `string'
PUBLIC	??_C@_08NGDGBBLG@Additive?$AA@			; `string'
PUBLIC	??_C@_0L@HCCPBMGG@NotInWater?$AA@		; `string'
PUBLIC	??_C@_06GCJPJKOH@FadeIn?$AA@			; `string'
PUBLIC	??_C@_06NDBNOOOH@Skybox?$AA@			; `string'
PUBLIC	??_C@_08KPOFCBBH@Floating?$AA@			; `string'
PUBLIC	??_C@_0BB@IPNBBMAH@FloatingOriented?$AA@	; `string'
PUBLIC	??_C@_0BO@EBKAFPMG@unknown?5value?5?$CFs?5for?5?8flags?8?6?$AA@ ; `string'
PUBLIC	??_C@_0BL@PHECOMOB@EOF?5without?5closing?5brace?6?$AA@ ; `string'
PUBLIC	??_C@_07JDHEGGGP@texture?$AA@			; `string'
PUBLIC	??_C@_0CB@MCPHFAIO@hit?5EOF?5while?5parsing?5?8texture?8?6@ ; `string'
PUBLIC	??_C@_03LJIJAGL@tga?$AA@			; `string'
PUBLIC	??_C@_03CBDDAJHO@dds?$AA@			; `string'
PUBLIC	??_C@_03OOMJFMLF@spr?$AA@			; `string'
PUBLIC	??_C@_0DN@KCDMFPOP@couldn?8t?5load?5texture?5for?5effect@ ; `string'
PUBLIC	??_C@_06KLHHMIGM@offset?$AA@			; `string'
PUBLIC	??_C@_0CA@FMDLAHNJ@hit?5EOF?5while?5parsing?5?8offset?8?6?$AA@ ; `string'
PUBLIC	??_C@_08ICEJNDOI@velocity?$AA@			; `string'
PUBLIC	??_C@_0CC@FDGEHOIA@hit?5EOF?5while?5parsing?5?8velocity?8@ ; `string'
PUBLIC	??_C@_05PNMAPKLD@accel?$AA@			; `string'
PUBLIC	??_C@_0BP@KDLPHPCN@hit?5EOF?5while?5parsing?5?8accel?8?6?$AA@ ; `string'
PUBLIC	??_C@_05PEENBMOG@color?$AA@			; `string'
PUBLIC	??_C@_0BP@CNBKJIPM@hit?5EOF?5while?5parsing?5?8color?8?6?$AA@ ; `string'
PUBLIC	??_C@_0O@PCPNIPGJ@colorVelocity?$AA@		; `string'
PUBLIC	??_C@_0CH@LAOPIGD@hit?5EOF?5while?5parsing?5?8colorVelo@ ; `string'
PUBLIC	??_C@_05IAEKHIAN@alpha?$AA@			; `string'
PUBLIC	??_C@_0BP@NKEPGDJN@hit?5EOF?5while?5parsing?5?8alpha?8?6?$AA@ ; `string'
PUBLIC	??_C@_0O@ECOJKIBP@alphaVelocity?$AA@		; `string'
PUBLIC	??_C@_0CH@NHGBCDGM@hit?5EOF?5while?5parsing?5?8alphaVelo@ ; `string'
PUBLIC	??_C@_06KGHINEPG@radius?$AA@			; `string'
PUBLIC	??_C@_0CA@MDJEDEAJ@hit?5EOF?5while?5parsing?5?8radius?8?6?$AA@ ; `string'
PUBLIC	??_C@_0P@GHNAGFBL@radiusVelocity?$AA@		; `string'
PUBLIC	??_C@_0CI@IPNAFHEB@hit?5EOF?5while?5parsing?5?8radiusVel@ ; `string'
PUBLIC	??_C@_06IJDLPEM@length?$AA@			; `string'
PUBLIC	??_C@_0CA@HNOGEAA@hit?5EOF?5while?5parsing?5?8length?8?6?$AA@ ; `string'
PUBLIC	??_C@_0P@BKMDHNNN@lengthVelocity?$AA@		; `string'
PUBLIC	??_C@_0CI@BBMMCMM@hit?5EOF?5while?5parsing?5?8lengthVel@ ; `string'
PUBLIC	??_C@_08OHGOKOGA@rotation?$AA@			; `string'
PUBLIC	??_C@_0CC@IOIKAEGF@hit?5EOF?5while?5parsing?5?8rotation?8@ ; `string'
PUBLIC	??_C@_0BB@HGDLMHHH@rotationVelocity?$AA@	; `string'
PUBLIC	??_C@_0CK@DJEILIPE@hit?5EOF?5while?5parsing?5?8rotationV@ ; `string'
PUBLIC	??_C@_0N@PJGCMNFO@bounceFactor?$AA@		; `string'
PUBLIC	??_C@_0CG@NNKLLCJN@hit?5EOF?5while?5parsing?5?8bounceFac@ ; `string'
PUBLIC	??_C@_05MIJNFGED@frame?$AA@			; `string'
PUBLIC	??_C@_0BP@GIGDEEAO@hit?5EOF?5while?5parsing?5?8frame?8?6?$AA@ ; `string'
PUBLIC	??_C@_05IOMEMJEC@count?$AA@			; `string'
PUBLIC	??_C@_0BP@BBMILNMD@hit?5EOF?5while?5parsing?5?8count?8?6?$AA@ ; `string'
PUBLIC	??_C@_05GECEPKB@flags?$AA@			; `string'
PUBLIC	??_C@_0BP@GAEALDHP@hit?5EOF?5while?5parsing?5?8flags?8?6?$AA@ ; `string'
PUBLIC	??_C@_09HKKFCCPM@useNormal?$AA@			; `string'
PUBLIC	??_C@_0CD@HFPJDGGC@hit?5EOF?5while?5parsing?5?8useNormal@ ; `string'
PUBLIC	??_C@_06GDPEBLPA@ignore?$AA@			; `string'
PUBLIC	??_C@_03PFLGFKBB@ofs?$AA@			; `string'
PUBLIC	??_C@_03DAPAKLGM@dir?$AA@			; `string'
PUBLIC	??_C@_07KOJMABKL@ofs?$CLdir?$AA@		; `string'
PUBLIC	??_C@_07LKEEPMM@dir?$CLofs?$AA@			; `string'
PUBLIC	??_C@_0BO@BOGDCKMH@Unknown?5?8useNormal?8?5key?5?8?$CFs?8?6?$AA@ ; `string'
PUBLIC	??_C@_0BK@LLFBOIOB@Unknown?5effects?5token?5?$CFs?6?$AA@ ; `string'
PUBLIC	??_C@_0BH@FLMDKIBP@Overflow?5?$CFd?5particles?6?$AA@ ; `string'
PUBLIC	??_C@_0BH@LOMLGGKP@AddParticle?3?5overflow?6?$AA@ ; `string'
PUBLIC	??_R4CQuakePartSystem@@6B@			; CQuakePartSystem::`RTTI Complete Object Locator'
PUBLIC	??_R0?AVCQuakePartSystem@@@8			; CQuakePartSystem `RTTI Type Descriptor'
PUBLIC	??_R3CQuakePartSystem@@8			; CQuakePartSystem::`RTTI Class Hierarchy Descriptor'
PUBLIC	??_R2CQuakePartSystem@@8			; CQuakePartSystem::`RTTI Base Class Array'
PUBLIC	??_R1A@?0A@EA@CQuakePartSystem@@8		; CQuakePartSystem::`RTTI Base Class Descriptor at (0,-1,0,64)'
PUBLIC	__real@00000000
PUBLIC	__real@3a83126f
PUBLIC	__real@3b808081
PUBLIC	__real@3b83126f
PUBLIC	__real@3bf5c28f
PUBLIC	__real@3c23d70a
PUBLIC	__real@3dcccccd
PUBLIC	__real@3e19999a
PUBLIC	__real@3e4ccccd
PUBLIC	__real@3e800000
PUBLIC	__real@3e99999a
PUBLIC	__real@3ecccccd
PUBLIC	__real@3f000000
PUBLIC	__real@3f333333
PUBLIC	__real@3f400000
PUBLIC	__real@3f59999a
PUBLIC	__real@3f800000
PUBLIC	__real@3f933333
PUBLIC	__real@3fb999999999999a
PUBLIC	__real@3fc00000
PUBLIC	__real@3fd0000000000000
PUBLIC	__real@3fd999999999999a
PUBLIC	__real@3fe0000000000000
PUBLIC	__real@3fe999999999999a
PUBLIC	__real@40000000
PUBLIC	__real@4000000000000000
PUBLIC	__real@40200000
PUBLIC	__real@40400000
PUBLIC	__real@40600000
PUBLIC	__real@40800000
PUBLIC	__real@408f400000000000
PUBLIC	__real@40a00000
PUBLIC	__real@40a33333
PUBLIC	__real@40d00000
PUBLIC	__real@40e00000
PUBLIC	__real@40f00000
PUBLIC	__real@41000000
PUBLIC	__real@41200000
PUBLIC	__real@41700000
PUBLIC	__real@41a00000
PUBLIC	__real@41c80000
PUBLIC	__real@41f00000
PUBLIC	__real@42200000
PUBLIC	__real@42700000
PUBLIC	__real@42960000
PUBLIC	__real@42a00000
PUBLIC	__real@42c80000
PUBLIC	__real@43160000
PUBLIC	__real@43340000
PUBLIC	__real@437f0000
PUBLIC	__real@447a0000
PUBLIC	__real@44800000
PUBLIC	__real@44bb8000
PUBLIC	__real@44fa0000
PUBLIC	__real@bdcccccd
PUBLIC	__real@be4ccccd
PUBLIC	__real@be99999a
PUBLIC	__real@becccccd
PUBLIC	__real@bf000000
PUBLIC	__real@bf400000
PUBLIC	__real@bf59999a
PUBLIC	__real@bf800000
PUBLIC	__real@bfa00000
PUBLIC	__real@bfc00000
PUBLIC	__real@bfe0000000000000
PUBLIC	__real@c0200000
PUBLIC	__real@c0400000
PUBLIC	__real@c0800000
PUBLIC	__real@c0a00000
PUBLIC	__real@c0a33333
PUBLIC	__real@c0e00000
PUBLIC	__real@c0f00000
PUBLIC	__real@c1000000
PUBLIC	__real@c1200000
PUBLIC	__real@c1700000
PUBLIC	__real@c1c80000
PUBLIC	__real@c1f00000
PUBLIC	__real@c2700000
PUBLIC	__real@c2960000
PUBLIC	__real@c2c80000
PUBLIC	__real@c2f00000
PUBLIC	__xmm@80000000000000008000000000000000
PUBLIC	__xmm@80000000800000008000000080000000
EXTRN	??3@YAXPAXI@Z:PROC				; operator delete
EXTRN	??_U@YAPAXI@Z:PROC				; operator new[]
EXTRN	??_V@YAXPAX@Z:PROC				; operator delete[]
EXTRN	??_V@YAXPAXI@Z:PROC				; operator delete[]
EXTRN	_atexit:PROC
EXTRN	_memset:PROC
EXTRN	_fabs:PROC
EXTRN	_sin:PROC
EXTRN	_sqrt:PROC
EXTRN	?VectorAngles@@YAXABVVector@@AAV1@@Z:PROC	; VectorAngles
EXTRN	?RotatePointAroundVector@@YAXAAVVector@@ABV1@1M@Z:PROC ; RotatePointAroundVector
EXTRN	?ClearBounds@@YAXAAVVector@@0@Z:PROC		; ClearBounds
EXTRN	?AddPointToBounds@@YAXABVVector@@AAV1@1M@Z:PROC	; AddPointToBounds
EXTRN	?Q_strncpy@@YAIPADPBDI@Z:PROC			; Q_strncpy
EXTRN	?Q_atof@@YAMPBD@Z:PROC				; Q_atof
EXTRN	?Q_strnicmp@@YAHPBD0H@Z:PROC			; Q_strnicmp
EXTRN	?COM_FileExtension@@YAPBDPBD@Z:PROC		; COM_FileExtension
EXTRN	?COM_ParseFileExt@@YAPADPAD0J_N@Z:PROC		; COM_ParseFileExt
EXTRN	?ALERT@@YAXW4ALERT_TYPE@@PADZZ:PROC		; ALERT
EXTRN	?CL_UTIL_Approach@@YAMMMM@Z:PROC		; CL_UTIL_Approach
EXTRN	?CullSphere@CFrustum@@QAE_NABVVector@@MH@Z:PROC	; CFrustum::CullSphere
EXTRN	?GL_Support@@YA_NH@Z:PROC			; GL_Support
EXTRN	?GL_Cull@@YAXI@Z:PROC				; GL_Cull
EXTRN	?GL_DepthMask@@YAXH@Z:PROC			; GL_DepthMask
EXTRN	?GL_Blend@@YAXH@Z:PROC				; GL_Blend
EXTRN	?R_LightsForPoint@@YA?AVVector@@ABV1@M@Z:PROC	; R_LightsForPoint
EXTRN	??_ECQuakePartSystem@@UAEPAXI@Z:PROC		; CQuakePartSystem::`vector deleting destructor'
EXTRN	?GetSpriteFrame@CSpriteModelRenderer@@QAEPAUmspriteframe_s@@PBUmodel_s@@H@Z:PROC ; CSpriteModelRenderer::GetSpriteFrame
EXTRN	@__security_check_cookie@4:PROC
EXTRN	___CxxFrameHandler3:PROC
EXTRN	?g_vecZero@@3VVector@@B:BYTE			; g_vecZero
EXTRN	?gEngfuncs@@3Ucl_enginefuncs_s@@A:BYTE		; gEngfuncs
EXTRN	?gRenderfuncs@@3Urender_api_s@@A:BYTE		; gRenderfuncs
EXTRN	?g_fFrametime@@3MA:DWORD			; g_fFrametime
EXTRN	?g_fRenderInitialized@@3HA:DWORD		; g_fRenderInitialized
EXTRN	?pglBegin@@3P6GXI@ZA:DWORD			; pglBegin
EXTRN	?pglBlendFunc@@3P6GXII@ZA:DWORD			; pglBlendFunc
EXTRN	?pglColor4f@@3P6GXMMMM@ZA:DWORD			; pglColor4f
EXTRN	?pglDisableClientState@@3P6GXI@ZA:DWORD		; pglDisableClientState
EXTRN	?pglEnableClientState@@3P6GXI@ZA:DWORD		; pglEnableClientState
EXTRN	?pglEnd@@3P6GXXZA:DWORD				; pglEnd
EXTRN	?pglTexCoord2f@@3P6GXMM@ZA:DWORD		; pglTexCoord2f
EXTRN	?pglTexEnvi@@3P6GXIIH@ZA:DWORD			; pglTexEnvi
EXTRN	?pglVertex3fv@@3P6GXPBM@ZA:DWORD		; pglVertex3fv
EXTRN	?pglDrawRangeElementsEXT@@3P6GXIIIHIPBX@ZA:DWORD ; pglDrawRangeElementsEXT
EXTRN	?pglDrawElements@@3P6GXIHIPBX@ZA:DWORD		; pglDrawElements
EXTRN	?pglVertexPointer@@3P6GXHIHPBX@ZA:DWORD		; pglVertexPointer
EXTRN	?pglColorPointer@@3P6GXHIHPBX@ZA:DWORD		; pglColorPointer
EXTRN	?pglTexCoordPointer@@3P6GXHIHPBX@ZA:DWORD	; pglTexCoordPointer
EXTRN	?RI@@3PAUref_instance_t@@A:DWORD		; RI
EXTRN	?tr@@3Uref_globals_t@@A:BYTE			; tr
EXTRN	?r_stats@@3Uref_stats_t@@A:BYTE			; r_stats
EXTRN	?g_SpriteRenderer@@3VCSpriteModelRenderer@@A:BYTE ; g_SpriteRenderer
EXTRN	??_7type_info@@6B@:QWORD			; type_info::`vftable'
EXTRN	___security_cookie:DWORD
EXTRN	__fltused:DWORD
_BSS	SEGMENT
?g_pParticles@@3VCQuakePartSystem@@A DB 02cec34H DUP (?) ; g_pParticles
?m_vertexarray@@3PAVVector@@A DB 0c0000H DUP (?)	; m_vertexarray
?m_colorarray@@3PAY03EA DB 040020H DUP (?)		; m_colorarray
?m_coordsarray@@3PAVVector2D@@A DQ 010004H DUP (?)	; m_coordsarray
?m_indexarray@@3PAGA DW 040010H DUP (?)			; m_indexarray
?m_iNumVerts@@3HA DD 01H DUP (?)			; m_iNumVerts
?m_iNumIndex@@3HA DD 01H DUP (?)			; m_iNumIndex
?ParticleArray_Default@@3V?$MemBlock@VCQuakePart@@@@A DB 010H DUP (?) ; ParticleArray_Default
?ParticleArray_Dustmote@@3V?$MemBlock@VCQuakePart@@@@A DB 010H DUP (?) ; ParticleArray_Dustmote
?ParticleArray_Sparks@@3V?$MemBlock@VCQuakePart@@@@A DB 010H DUP (?) ; ParticleArray_Sparks
?ParticleArray_Smoke@@3V?$MemBlock@VCQuakePart@@@@A DB 010H DUP (?) ; ParticleArray_Smoke
?ParticleArray_Smoke_NotInWater@@3V?$MemBlock@VCQuakePart@@@@A DB 010H DUP (?) ; ParticleArray_Smoke_NotInWater
?ParticleArray_Watersplash@@3V?$MemBlock@VCQuakePart@@@@A DB 010H DUP (?) ; ParticleArray_Watersplash
?ParticleArray_Sand@@3V?$MemBlock@VCQuakePart@@@@A DB 010H DUP (?) ; ParticleArray_Sand
?ParticleArray_Dirt@@3V?$MemBlock@VCQuakePart@@@@A DB 010H DUP (?) ; ParticleArray_Dirt
?ParticleArray_Fireball@@3V?$MemBlock@VCQuakePart@@@@A DB 010H DUP (?) ; ParticleArray_Fireball
?ParticleArray_Blood@@3V?$MemBlock@VCQuakePart@@@@A DB 010H DUP (?) ; ParticleArray_Blood
_BSS	ENDS
CRT$XCU	SEGMENT
?g_pParticles$initializer$@@3P6AXXZA DD FLAT:??__Eg_pParticles@@YAXXZ ; g_pParticles$initializer$
CRT$XCU	ENDS
;	COMDAT __xmm@80000000800000008000000080000000
CONST	SEGMENT
__xmm@80000000800000008000000080000000 DB 00H, 00H, 00H, 080H, 00H, 00H, 00H
	DB	080H, 00H, 00H, 00H, 080H, 00H, 00H, 00H, 080H
CONST	ENDS
;	COMDAT __xmm@80000000000000008000000000000000
CONST	SEGMENT
__xmm@80000000000000008000000000000000 DB 00H, 00H, 00H, 00H, 00H, 00H, 00H
	DB	080H, 00H, 00H, 00H, 00H, 00H, 00H, 00H, 080H
CONST	ENDS
;	COMDAT __real@c2f00000
CONST	SEGMENT
__real@c2f00000 DD 0c2f00000r			; -120
CONST	ENDS
;	COMDAT __real@c2c80000
CONST	SEGMENT
__real@c2c80000 DD 0c2c80000r			; -100
CONST	ENDS
;	COMDAT __real@c2960000
CONST	SEGMENT
__real@c2960000 DD 0c2960000r			; -75
CONST	ENDS
;	COMDAT __real@c2700000
CONST	SEGMENT
__real@c2700000 DD 0c2700000r			; -60
CONST	ENDS
;	COMDAT __real@c1f00000
CONST	SEGMENT
__real@c1f00000 DD 0c1f00000r			; -30
CONST	ENDS
;	COMDAT __real@c1c80000
CONST	SEGMENT
__real@c1c80000 DD 0c1c80000r			; -25
CONST	ENDS
;	COMDAT __real@c1700000
CONST	SEGMENT
__real@c1700000 DD 0c1700000r			; -15
CONST	ENDS
;	COMDAT __real@c1200000
CONST	SEGMENT
__real@c1200000 DD 0c1200000r			; -10
CONST	ENDS
;	COMDAT __real@c1000000
CONST	SEGMENT
__real@c1000000 DD 0c1000000r			; -8
CONST	ENDS
;	COMDAT __real@c0f00000
CONST	SEGMENT
__real@c0f00000 DD 0c0f00000r			; -7.5
CONST	ENDS
;	COMDAT __real@c0e00000
CONST	SEGMENT
__real@c0e00000 DD 0c0e00000r			; -7
CONST	ENDS
;	COMDAT __real@c0a33333
CONST	SEGMENT
__real@c0a33333 DD 0c0a33333r			; -5.1
CONST	ENDS
;	COMDAT __real@c0a00000
CONST	SEGMENT
__real@c0a00000 DD 0c0a00000r			; -5
CONST	ENDS
;	COMDAT __real@c0800000
CONST	SEGMENT
__real@c0800000 DD 0c0800000r			; -4
CONST	ENDS
;	COMDAT __real@c0400000
CONST	SEGMENT
__real@c0400000 DD 0c0400000r			; -3
CONST	ENDS
;	COMDAT __real@c0200000
CONST	SEGMENT
__real@c0200000 DD 0c0200000r			; -2.5
CONST	ENDS
;	COMDAT __real@bfe0000000000000
CONST	SEGMENT
__real@bfe0000000000000 DQ 0bfe0000000000000r	; -0.5
CONST	ENDS
;	COMDAT __real@bfc00000
CONST	SEGMENT
__real@bfc00000 DD 0bfc00000r			; -1.5
CONST	ENDS
;	COMDAT __real@bfa00000
CONST	SEGMENT
__real@bfa00000 DD 0bfa00000r			; -1.25
CONST	ENDS
;	COMDAT __real@bf800000
CONST	SEGMENT
__real@bf800000 DD 0bf800000r			; -1
CONST	ENDS
;	COMDAT __real@bf59999a
CONST	SEGMENT
__real@bf59999a DD 0bf59999ar			; -0.85
CONST	ENDS
;	COMDAT __real@bf400000
CONST	SEGMENT
__real@bf400000 DD 0bf400000r			; -0.75
CONST	ENDS
;	COMDAT __real@bf000000
CONST	SEGMENT
__real@bf000000 DD 0bf000000r			; -0.5
CONST	ENDS
;	COMDAT __real@becccccd
CONST	SEGMENT
__real@becccccd DD 0becccccdr			; -0.4
CONST	ENDS
;	COMDAT __real@be99999a
CONST	SEGMENT
__real@be99999a DD 0be99999ar			; -0.3
CONST	ENDS
;	COMDAT __real@be4ccccd
CONST	SEGMENT
__real@be4ccccd DD 0be4ccccdr			; -0.2
CONST	ENDS
;	COMDAT __real@bdcccccd
CONST	SEGMENT
__real@bdcccccd DD 0bdcccccdr			; -0.1
CONST	ENDS
;	COMDAT __real@44fa0000
CONST	SEGMENT
__real@44fa0000 DD 044fa0000r			; 2000
CONST	ENDS
;	COMDAT __real@44bb8000
CONST	SEGMENT
__real@44bb8000 DD 044bb8000r			; 1500
CONST	ENDS
;	COMDAT __real@44800000
CONST	SEGMENT
__real@44800000 DD 044800000r			; 1024
CONST	ENDS
;	COMDAT __real@447a0000
CONST	SEGMENT
__real@447a0000 DD 0447a0000r			; 1000
CONST	ENDS
;	COMDAT __real@437f0000
CONST	SEGMENT
__real@437f0000 DD 0437f0000r			; 255
CONST	ENDS
;	COMDAT __real@43340000
CONST	SEGMENT
__real@43340000 DD 043340000r			; 180
CONST	ENDS
;	COMDAT __real@43160000
CONST	SEGMENT
__real@43160000 DD 043160000r			; 150
CONST	ENDS
;	COMDAT __real@42c80000
CONST	SEGMENT
__real@42c80000 DD 042c80000r			; 100
CONST	ENDS
;	COMDAT __real@42a00000
CONST	SEGMENT
__real@42a00000 DD 042a00000r			; 80
CONST	ENDS
;	COMDAT __real@42960000
CONST	SEGMENT
__real@42960000 DD 042960000r			; 75
CONST	ENDS
;	COMDAT __real@42700000
CONST	SEGMENT
__real@42700000 DD 042700000r			; 60
CONST	ENDS
;	COMDAT __real@42200000
CONST	SEGMENT
__real@42200000 DD 042200000r			; 40
CONST	ENDS
;	COMDAT __real@41f00000
CONST	SEGMENT
__real@41f00000 DD 041f00000r			; 30
CONST	ENDS
;	COMDAT __real@41c80000
CONST	SEGMENT
__real@41c80000 DD 041c80000r			; 25
CONST	ENDS
;	COMDAT __real@41a00000
CONST	SEGMENT
__real@41a00000 DD 041a00000r			; 20
CONST	ENDS
;	COMDAT __real@41700000
CONST	SEGMENT
__real@41700000 DD 041700000r			; 15
CONST	ENDS
;	COMDAT __real@41200000
CONST	SEGMENT
__real@41200000 DD 041200000r			; 10
CONST	ENDS
;	COMDAT __real@41000000
CONST	SEGMENT
__real@41000000 DD 041000000r			; 8
CONST	ENDS
;	COMDAT __real@40f00000
CONST	SEGMENT
__real@40f00000 DD 040f00000r			; 7.5
CONST	ENDS
;	COMDAT __real@40e00000
CONST	SEGMENT
__real@40e00000 DD 040e00000r			; 7
CONST	ENDS
;	COMDAT __real@40d00000
CONST	SEGMENT
__real@40d00000 DD 040d00000r			; 6.5
CONST	ENDS
;	COMDAT __real@40a33333
CONST	SEGMENT
__real@40a33333 DD 040a33333r			; 5.1
CONST	ENDS
;	COMDAT __real@40a00000
CONST	SEGMENT
__real@40a00000 DD 040a00000r			; 5
CONST	ENDS
;	COMDAT __real@408f400000000000
CONST	SEGMENT
__real@408f400000000000 DQ 0408f400000000000r	; 1000
CONST	ENDS
;	COMDAT __real@40800000
CONST	SEGMENT
__real@40800000 DD 040800000r			; 4
CONST	ENDS
;	COMDAT __real@40600000
CONST	SEGMENT
__real@40600000 DD 040600000r			; 3.5
CONST	ENDS
;	COMDAT __real@40400000
CONST	SEGMENT
__real@40400000 DD 040400000r			; 3
CONST	ENDS
;	COMDAT __real@40200000
CONST	SEGMENT
__real@40200000 DD 040200000r			; 2.5
CONST	ENDS
;	COMDAT __real@4000000000000000
CONST	SEGMENT
__real@4000000000000000 DQ 04000000000000000r	; 2
CONST	ENDS
;	COMDAT __real@40000000
CONST	SEGMENT
__real@40000000 DD 040000000r			; 2
CONST	ENDS
;	COMDAT __real@3fe999999999999a
CONST	SEGMENT
__real@3fe999999999999a DQ 03fe999999999999ar	; 0.8
CONST	ENDS
;	COMDAT __real@3fe0000000000000
CONST	SEGMENT
__real@3fe0000000000000 DQ 03fe0000000000000r	; 0.5
CONST	ENDS
;	COMDAT __real@3fd999999999999a
CONST	SEGMENT
__real@3fd999999999999a DQ 03fd999999999999ar	; 0.4
CONST	ENDS
;	COMDAT __real@3fd0000000000000
CONST	SEGMENT
__real@3fd0000000000000 DQ 03fd0000000000000r	; 0.25
CONST	ENDS
;	COMDAT __real@3fc00000
CONST	SEGMENT
__real@3fc00000 DD 03fc00000r			; 1.5
CONST	ENDS
;	COMDAT __real@3fb999999999999a
CONST	SEGMENT
__real@3fb999999999999a DQ 03fb999999999999ar	; 0.1
CONST	ENDS
;	COMDAT __real@3f933333
CONST	SEGMENT
__real@3f933333 DD 03f933333r			; 1.15
CONST	ENDS
;	COMDAT __real@3f800000
CONST	SEGMENT
__real@3f800000 DD 03f800000r			; 1
CONST	ENDS
;	COMDAT __real@3f59999a
CONST	SEGMENT
__real@3f59999a DD 03f59999ar			; 0.85
CONST	ENDS
;	COMDAT __real@3f400000
CONST	SEGMENT
__real@3f400000 DD 03f400000r			; 0.75
CONST	ENDS
;	COMDAT __real@3f333333
CONST	SEGMENT
__real@3f333333 DD 03f333333r			; 0.7
CONST	ENDS
;	COMDAT __real@3f000000
CONST	SEGMENT
__real@3f000000 DD 03f000000r			; 0.5
CONST	ENDS
;	COMDAT __real@3ecccccd
CONST	SEGMENT
__real@3ecccccd DD 03ecccccdr			; 0.4
CONST	ENDS
;	COMDAT __real@3e99999a
CONST	SEGMENT
__real@3e99999a DD 03e99999ar			; 0.3
CONST	ENDS
;	COMDAT __real@3e800000
CONST	SEGMENT
__real@3e800000 DD 03e800000r			; 0.25
CONST	ENDS
;	COMDAT __real@3e4ccccd
CONST	SEGMENT
__real@3e4ccccd DD 03e4ccccdr			; 0.2
CONST	ENDS
;	COMDAT __real@3e19999a
CONST	SEGMENT
__real@3e19999a DD 03e19999ar			; 0.15
CONST	ENDS
;	COMDAT __real@3dcccccd
CONST	SEGMENT
__real@3dcccccd DD 03dcccccdr			; 0.1
CONST	ENDS
;	COMDAT __real@3c23d70a
CONST	SEGMENT
__real@3c23d70a DD 03c23d70ar			; 0.01
CONST	ENDS
;	COMDAT __real@3bf5c28f
CONST	SEGMENT
__real@3bf5c28f DD 03bf5c28fr			; 0.0075
CONST	ENDS
;	COMDAT __real@3b83126f
CONST	SEGMENT
__real@3b83126f DD 03b83126fr			; 0.004
CONST	ENDS
;	COMDAT __real@3b808081
CONST	SEGMENT
__real@3b808081 DD 03b808081r			; 0.00392157
CONST	ENDS
;	COMDAT __real@3a83126f
CONST	SEGMENT
__real@3a83126f DD 03a83126fr			; 0.001
CONST	ENDS
;	COMDAT __real@00000000
CONST	SEGMENT
__real@00000000 DD 000000000r			; 0
CONST	ENDS
;	COMDAT ??_R1A@?0A@EA@CQuakePartSystem@@8
rdata$r	SEGMENT
??_R1A@?0A@EA@CQuakePartSystem@@8 DD FLAT:??_R0?AVCQuakePartSystem@@@8 ; CQuakePartSystem::`RTTI Base Class Descriptor at (0,-1,0,64)'
	DD	00H
	DD	00H
	DD	0ffffffffH
	DD	00H
	DD	040H
	DD	FLAT:??_R3CQuakePartSystem@@8
rdata$r	ENDS
;	COMDAT ??_R2CQuakePartSystem@@8
rdata$r	SEGMENT
??_R2CQuakePartSystem@@8 DD FLAT:??_R1A@?0A@EA@CQuakePartSystem@@8 ; CQuakePartSystem::`RTTI Base Class Array'
rdata$r	ENDS
;	COMDAT ??_R3CQuakePartSystem@@8
rdata$r	SEGMENT
??_R3CQuakePartSystem@@8 DD 00H				; CQuakePartSystem::`RTTI Class Hierarchy Descriptor'
	DD	00H
	DD	01H
	DD	FLAT:??_R2CQuakePartSystem@@8
rdata$r	ENDS
;	COMDAT ??_R0?AVCQuakePartSystem@@@8
data$r	SEGMENT
??_R0?AVCQuakePartSystem@@@8 DD FLAT:??_7type_info@@6B@	; CQuakePartSystem `RTTI Type Descriptor'
	DD	00H
	DB	'.?AVCQuakePartSystem@@', 00H
data$r	ENDS
;	COMDAT ??_R4CQuakePartSystem@@6B@
rdata$r	SEGMENT
??_R4CQuakePartSystem@@6B@ DD 00H			; CQuakePartSystem::`RTTI Complete Object Locator'
	DD	00H
	DD	00H
	DD	FLAT:??_R0?AVCQuakePartSystem@@@8
	DD	FLAT:??_R3CQuakePartSystem@@8
rdata$r	ENDS
;	COMDAT ??_C@_0BH@LOMLGGKP@AddParticle?3?5overflow?6?$AA@
CONST	SEGMENT
??_C@_0BH@LOMLGGKP@AddParticle?3?5overflow?6?$AA@ DB 'AddParticle: overfl'
	DB	'ow', 0aH, 00H				; `string'
CONST	ENDS
;	COMDAT ??_C@_0BH@FLMDKIBP@Overflow?5?$CFd?5particles?6?$AA@
CONST	SEGMENT
??_C@_0BH@FLMDKIBP@Overflow?5?$CFd?5particles?6?$AA@ DB 'Overflow %d part'
	DB	'icles', 0aH, 00H				; `string'
CONST	ENDS
;	COMDAT ??_C@_0BK@LLFBOIOB@Unknown?5effects?5token?5?$CFs?6?$AA@
CONST	SEGMENT
??_C@_0BK@LLFBOIOB@Unknown?5effects?5token?5?$CFs?6?$AA@ DB 'Unknown effe'
	DB	'cts token %s', 0aH, 00H			; `string'
CONST	ENDS
;	COMDAT ??_C@_0BO@BOGDCKMH@Unknown?5?8useNormal?8?5key?5?8?$CFs?8?6?$AA@
CONST	SEGMENT
??_C@_0BO@BOGDCKMH@Unknown?5?8useNormal?8?5key?5?8?$CFs?8?6?$AA@ DB 'Unkn'
	DB	'own ''useNormal'' key ''%s''', 0aH, 00H	; `string'
CONST	ENDS
;	COMDAT ??_C@_07LKEEPMM@dir?$CLofs?$AA@
CONST	SEGMENT
??_C@_07LKEEPMM@dir?$CLofs?$AA@ DB 'dir+ofs', 00H	; `string'
CONST	ENDS
;	COMDAT ??_C@_07KOJMABKL@ofs?$CLdir?$AA@
CONST	SEGMENT
??_C@_07KOJMABKL@ofs?$CLdir?$AA@ DB 'ofs+dir', 00H	; `string'
CONST	ENDS
;	COMDAT ??_C@_03DAPAKLGM@dir?$AA@
CONST	SEGMENT
??_C@_03DAPAKLGM@dir?$AA@ DB 'dir', 00H			; `string'
CONST	ENDS
;	COMDAT ??_C@_03PFLGFKBB@ofs?$AA@
CONST	SEGMENT
??_C@_03PFLGFKBB@ofs?$AA@ DB 'ofs', 00H			; `string'
CONST	ENDS
;	COMDAT ??_C@_06GDPEBLPA@ignore?$AA@
CONST	SEGMENT
??_C@_06GDPEBLPA@ignore?$AA@ DB 'ignore', 00H		; `string'
CONST	ENDS
;	COMDAT ??_C@_0CD@HFPJDGGC@hit?5EOF?5while?5parsing?5?8useNormal@
CONST	SEGMENT
??_C@_0CD@HFPJDGGC@hit?5EOF?5while?5parsing?5?8useNormal@ DB 'hit EOF whi'
	DB	'le parsing ''useNormal''', 0aH, 00H		; `string'
CONST	ENDS
;	COMDAT ??_C@_09HKKFCCPM@useNormal?$AA@
CONST	SEGMENT
??_C@_09HKKFCCPM@useNormal?$AA@ DB 'useNormal', 00H	; `string'
CONST	ENDS
;	COMDAT ??_C@_0BP@GAEALDHP@hit?5EOF?5while?5parsing?5?8flags?8?6?$AA@
CONST	SEGMENT
??_C@_0BP@GAEALDHP@hit?5EOF?5while?5parsing?5?8flags?8?6?$AA@ DB 'hit EOF'
	DB	' while parsing ''flags''', 0aH, 00H		; `string'
CONST	ENDS
;	COMDAT ??_C@_05GECEPKB@flags?$AA@
CONST	SEGMENT
??_C@_05GECEPKB@flags?$AA@ DB 'flags', 00H		; `string'
CONST	ENDS
;	COMDAT ??_C@_0BP@BBMILNMD@hit?5EOF?5while?5parsing?5?8count?8?6?$AA@
CONST	SEGMENT
??_C@_0BP@BBMILNMD@hit?5EOF?5while?5parsing?5?8count?8?6?$AA@ DB 'hit EOF'
	DB	' while parsing ''count''', 0aH, 00H		; `string'
CONST	ENDS
;	COMDAT ??_C@_05IOMEMJEC@count?$AA@
CONST	SEGMENT
??_C@_05IOMEMJEC@count?$AA@ DB 'count', 00H		; `string'
CONST	ENDS
;	COMDAT ??_C@_0BP@GIGDEEAO@hit?5EOF?5while?5parsing?5?8frame?8?6?$AA@
CONST	SEGMENT
??_C@_0BP@GIGDEEAO@hit?5EOF?5while?5parsing?5?8frame?8?6?$AA@ DB 'hit EOF'
	DB	' while parsing ''frame''', 0aH, 00H		; `string'
CONST	ENDS
;	COMDAT ??_C@_05MIJNFGED@frame?$AA@
CONST	SEGMENT
??_C@_05MIJNFGED@frame?$AA@ DB 'frame', 00H		; `string'
CONST	ENDS
;	COMDAT ??_C@_0CG@NNKLLCJN@hit?5EOF?5while?5parsing?5?8bounceFac@
CONST	SEGMENT
??_C@_0CG@NNKLLCJN@hit?5EOF?5while?5parsing?5?8bounceFac@ DB 'hit EOF whi'
	DB	'le parsing ''bounceFactor''', 0aH, 00H	; `string'
CONST	ENDS
;	COMDAT ??_C@_0N@PJGCMNFO@bounceFactor?$AA@
CONST	SEGMENT
??_C@_0N@PJGCMNFO@bounceFactor?$AA@ DB 'bounceFactor', 00H ; `string'
CONST	ENDS
;	COMDAT ??_C@_0CK@DJEILIPE@hit?5EOF?5while?5parsing?5?8rotationV@
CONST	SEGMENT
??_C@_0CK@DJEILIPE@hit?5EOF?5while?5parsing?5?8rotationV@ DB 'hit EOF whi'
	DB	'le parsing ''rotationVelocity''', 0aH, 00H	; `string'
CONST	ENDS
;	COMDAT ??_C@_0BB@HGDLMHHH@rotationVelocity?$AA@
CONST	SEGMENT
??_C@_0BB@HGDLMHHH@rotationVelocity?$AA@ DB 'rotationVelocity', 00H ; `string'
CONST	ENDS
;	COMDAT ??_C@_0CC@IOIKAEGF@hit?5EOF?5while?5parsing?5?8rotation?8@
CONST	SEGMENT
??_C@_0CC@IOIKAEGF@hit?5EOF?5while?5parsing?5?8rotation?8@ DB 'hit EOF wh'
	DB	'ile parsing ''rotation''', 0aH, 00H		; `string'
CONST	ENDS
;	COMDAT ??_C@_08OHGOKOGA@rotation?$AA@
CONST	SEGMENT
??_C@_08OHGOKOGA@rotation?$AA@ DB 'rotation', 00H	; `string'
CONST	ENDS
;	COMDAT ??_C@_0CI@BBMMCMM@hit?5EOF?5while?5parsing?5?8lengthVel@
CONST	SEGMENT
??_C@_0CI@BBMMCMM@hit?5EOF?5while?5parsing?5?8lengthVel@ DB 'hit EOF whil'
	DB	'e parsing ''lengthVelocity''', 0aH, 00H	; `string'
CONST	ENDS
;	COMDAT ??_C@_0P@BKMDHNNN@lengthVelocity?$AA@
CONST	SEGMENT
??_C@_0P@BKMDHNNN@lengthVelocity?$AA@ DB 'lengthVelocity', 00H ; `string'
CONST	ENDS
;	COMDAT ??_C@_0CA@HNOGEAA@hit?5EOF?5while?5parsing?5?8length?8?6?$AA@
CONST	SEGMENT
??_C@_0CA@HNOGEAA@hit?5EOF?5while?5parsing?5?8length?8?6?$AA@ DB 'hit EOF'
	DB	' while parsing ''length''', 0aH, 00H	; `string'
CONST	ENDS
;	COMDAT ??_C@_06IJDLPEM@length?$AA@
CONST	SEGMENT
??_C@_06IJDLPEM@length?$AA@ DB 'length', 00H		; `string'
CONST	ENDS
;	COMDAT ??_C@_0CI@IPNAFHEB@hit?5EOF?5while?5parsing?5?8radiusVel@
CONST	SEGMENT
??_C@_0CI@IPNAFHEB@hit?5EOF?5while?5parsing?5?8radiusVel@ DB 'hit EOF whi'
	DB	'le parsing ''radiusVelocity''', 0aH, 00H	; `string'
CONST	ENDS
;	COMDAT ??_C@_0P@GHNAGFBL@radiusVelocity?$AA@
CONST	SEGMENT
??_C@_0P@GHNAGFBL@radiusVelocity?$AA@ DB 'radiusVelocity', 00H ; `string'
CONST	ENDS
;	COMDAT ??_C@_0CA@MDJEDEAJ@hit?5EOF?5while?5parsing?5?8radius?8?6?$AA@
CONST	SEGMENT
??_C@_0CA@MDJEDEAJ@hit?5EOF?5while?5parsing?5?8radius?8?6?$AA@ DB 'hit EO'
	DB	'F while parsing ''radius''', 0aH, 00H	; `string'
CONST	ENDS
;	COMDAT ??_C@_06KGHINEPG@radius?$AA@
CONST	SEGMENT
??_C@_06KGHINEPG@radius?$AA@ DB 'radius', 00H		; `string'
CONST	ENDS
;	COMDAT ??_C@_0CH@NHGBCDGM@hit?5EOF?5while?5parsing?5?8alphaVelo@
CONST	SEGMENT
??_C@_0CH@NHGBCDGM@hit?5EOF?5while?5parsing?5?8alphaVelo@ DB 'hit EOF whi'
	DB	'le parsing ''alphaVelocity''', 0aH, 00H	; `string'
CONST	ENDS
;	COMDAT ??_C@_0O@ECOJKIBP@alphaVelocity?$AA@
CONST	SEGMENT
??_C@_0O@ECOJKIBP@alphaVelocity?$AA@ DB 'alphaVelocity', 00H ; `string'
CONST	ENDS
;	COMDAT ??_C@_0BP@NKEPGDJN@hit?5EOF?5while?5parsing?5?8alpha?8?6?$AA@
CONST	SEGMENT
??_C@_0BP@NKEPGDJN@hit?5EOF?5while?5parsing?5?8alpha?8?6?$AA@ DB 'hit EOF'
	DB	' while parsing ''alpha''', 0aH, 00H		; `string'
CONST	ENDS
;	COMDAT ??_C@_05IAEKHIAN@alpha?$AA@
CONST	SEGMENT
??_C@_05IAEKHIAN@alpha?$AA@ DB 'alpha', 00H		; `string'
CONST	ENDS
;	COMDAT ??_C@_0CH@LAOPIGD@hit?5EOF?5while?5parsing?5?8colorVelo@
CONST	SEGMENT
??_C@_0CH@LAOPIGD@hit?5EOF?5while?5parsing?5?8colorVelo@ DB 'hit EOF whil'
	DB	'e parsing ''colorVelocity''', 0aH, 00H	; `string'
CONST	ENDS
;	COMDAT ??_C@_0O@PCPNIPGJ@colorVelocity?$AA@
CONST	SEGMENT
??_C@_0O@PCPNIPGJ@colorVelocity?$AA@ DB 'colorVelocity', 00H ; `string'
CONST	ENDS
;	COMDAT ??_C@_0BP@CNBKJIPM@hit?5EOF?5while?5parsing?5?8color?8?6?$AA@
CONST	SEGMENT
??_C@_0BP@CNBKJIPM@hit?5EOF?5while?5parsing?5?8color?8?6?$AA@ DB 'hit EOF'
	DB	' while parsing ''color''', 0aH, 00H		; `string'
CONST	ENDS
;	COMDAT ??_C@_05PEENBMOG@color?$AA@
CONST	SEGMENT
??_C@_05PEENBMOG@color?$AA@ DB 'color', 00H		; `string'
CONST	ENDS
;	COMDAT ??_C@_0BP@KDLPHPCN@hit?5EOF?5while?5parsing?5?8accel?8?6?$AA@
CONST	SEGMENT
??_C@_0BP@KDLPHPCN@hit?5EOF?5while?5parsing?5?8accel?8?6?$AA@ DB 'hit EOF'
	DB	' while parsing ''accel''', 0aH, 00H		; `string'
CONST	ENDS
;	COMDAT ??_C@_05PNMAPKLD@accel?$AA@
CONST	SEGMENT
??_C@_05PNMAPKLD@accel?$AA@ DB 'accel', 00H		; `string'
CONST	ENDS
;	COMDAT ??_C@_0CC@FDGEHOIA@hit?5EOF?5while?5parsing?5?8velocity?8@
CONST	SEGMENT
??_C@_0CC@FDGEHOIA@hit?5EOF?5while?5parsing?5?8velocity?8@ DB 'hit EOF wh'
	DB	'ile parsing ''velocity''', 0aH, 00H		; `string'
CONST	ENDS
;	COMDAT ??_C@_08ICEJNDOI@velocity?$AA@
CONST	SEGMENT
??_C@_08ICEJNDOI@velocity?$AA@ DB 'velocity', 00H	; `string'
CONST	ENDS
;	COMDAT ??_C@_0CA@FMDLAHNJ@hit?5EOF?5while?5parsing?5?8offset?8?6?$AA@
CONST	SEGMENT
??_C@_0CA@FMDLAHNJ@hit?5EOF?5while?5parsing?5?8offset?8?6?$AA@ DB 'hit EO'
	DB	'F while parsing ''offset''', 0aH, 00H	; `string'
CONST	ENDS
;	COMDAT ??_C@_06KLHHMIGM@offset?$AA@
CONST	SEGMENT
??_C@_06KLHHMIGM@offset?$AA@ DB 'offset', 00H		; `string'
CONST	ENDS
;	COMDAT ??_C@_0DN@KCDMFPOP@couldn?8t?5load?5texture?5for?5effect@
CONST	SEGMENT
??_C@_0DN@KCDMFPOP@couldn?8t?5load?5texture?5for?5effect@ DB 'couldn''t l'
	DB	'oad texture for effect %s. using default particle', 0aH, 00H ; `string'
CONST	ENDS
;	COMDAT ??_C@_03OOMJFMLF@spr?$AA@
CONST	SEGMENT
??_C@_03OOMJFMLF@spr?$AA@ DB 'spr', 00H			; `string'
CONST	ENDS
;	COMDAT ??_C@_03CBDDAJHO@dds?$AA@
CONST	SEGMENT
??_C@_03CBDDAJHO@dds?$AA@ DB 'dds', 00H			; `string'
CONST	ENDS
;	COMDAT ??_C@_03LJIJAGL@tga?$AA@
CONST	SEGMENT
??_C@_03LJIJAGL@tga?$AA@ DB 'tga', 00H			; `string'
CONST	ENDS
;	COMDAT ??_C@_0CB@MCPHFAIO@hit?5EOF?5while?5parsing?5?8texture?8?6@
CONST	SEGMENT
??_C@_0CB@MCPHFAIO@hit?5EOF?5while?5parsing?5?8texture?8?6@ DB 'hit EOF w'
	DB	'hile parsing ''texture''', 0aH, 00H		; `string'
CONST	ENDS
;	COMDAT ??_C@_07JDHEGGGP@texture?$AA@
CONST	SEGMENT
??_C@_07JDHEGGGP@texture?$AA@ DB 'texture', 00H		; `string'
CONST	ENDS
;	COMDAT ??_C@_0BL@PHECOMOB@EOF?5without?5closing?5brace?6?$AA@
CONST	SEGMENT
??_C@_0BL@PHECOMOB@EOF?5without?5closing?5brace?6?$AA@ DB 'EOF without cl'
	DB	'osing brace', 0aH, 00H			; `string'
CONST	ENDS
;	COMDAT ??_C@_0BO@EBKAFPMG@unknown?5value?5?$CFs?5for?5?8flags?8?6?$AA@
CONST	SEGMENT
??_C@_0BO@EBKAFPMG@unknown?5value?5?$CFs?5for?5?8flags?8?6?$AA@ DB 'unkno'
	DB	'wn value %s for ''flags''', 0aH, 00H	; `string'
CONST	ENDS
;	COMDAT ??_C@_0BB@IPNBBMAH@FloatingOriented?$AA@
CONST	SEGMENT
??_C@_0BB@IPNBBMAH@FloatingOriented?$AA@ DB 'FloatingOriented', 00H ; `string'
CONST	ENDS
;	COMDAT ??_C@_08KPOFCBBH@Floating?$AA@
CONST	SEGMENT
??_C@_08KPOFCBBH@Floating?$AA@ DB 'Floating', 00H	; `string'
CONST	ENDS
;	COMDAT ??_C@_06NDBNOOOH@Skybox?$AA@
CONST	SEGMENT
??_C@_06NDBNOOOH@Skybox?$AA@ DB 'Skybox', 00H		; `string'
CONST	ENDS
;	COMDAT ??_C@_06GCJPJKOH@FadeIn?$AA@
CONST	SEGMENT
??_C@_06GCJPJKOH@FadeIn?$AA@ DB 'FadeIn', 00H		; `string'
CONST	ENDS
;	COMDAT ??_C@_0L@HCCPBMGG@NotInWater?$AA@
CONST	SEGMENT
??_C@_0L@HCCPBMGG@NotInWater?$AA@ DB 'NotInWater', 00H	; `string'
CONST	ENDS
;	COMDAT ??_C@_08NGDGBBLG@Additive?$AA@
CONST	SEGMENT
??_C@_08NGDGBBLG@Additive?$AA@ DB 'Additive', 00H	; `string'
CONST	ENDS
;	COMDAT ??_C@_07HMOCDNDG@Instant?$AA@
CONST	SEGMENT
??_C@_07HMOCDNDG@Instant?$AA@ DB 'Instant', 00H		; `string'
CONST	ENDS
;	COMDAT ??_C@_0L@LFPBPCDD@Underwater?$AA@
CONST	SEGMENT
??_C@_0L@LFPBPCDD@Underwater?$AA@ DB 'Underwater', 00H	; `string'
CONST	ENDS
;	COMDAT ??_C@_07ENIDNHGB@Stretch?$AA@
CONST	SEGMENT
??_C@_07ENIDNHGB@Stretch?$AA@ DB 'Stretch', 00H		; `string'
CONST	ENDS
;	COMDAT ??_C@_05JODGIKH@Light?$AA@
CONST	SEGMENT
??_C@_05JODGIKH@Light?$AA@ DB 'Light', 00H		; `string'
CONST	ENDS
;	COMDAT ??_C@_08DIMMEHEB@Friction?$AA@
CONST	SEGMENT
??_C@_08DIMMEHEB@Friction?$AA@ DB 'Friction', 00H	; `string'
CONST	ENDS
;	COMDAT ??_C@_06PAHFPMEK@Bounce?$AA@
CONST	SEGMENT
??_C@_06PAHFPMEK@Bounce?$AA@ DB 'Bounce', 00H		; `string'
CONST	ENDS
;	COMDAT ??_C@_0CK@MMAOOEFB@QuakeParticle?3?5couldn?8t?5find?5eff@
CONST	SEGMENT
??_C@_0CK@MMAOOEFB@QuakeParticle?3?5couldn?8t?5find?5eff@ DB 'QuakePartic'
	DB	'le: couldn''t find effect ''%s''', 0aH, 00H	; `string'
CONST	ENDS
;	COMDAT ??_C@_0BD@PFFOMDCC@?$CFd?5effects?5parsed?6?$AA@
CONST	SEGMENT
??_C@_0BD@PFFOMDCC@?$CFd?5effects?5parsed?6?$AA@ DB '%d effects parsed', 0aH
	DB	00H						; `string'
CONST	ENDS
;	COMDAT ??_C@_0BL@MJDIPEOM@found?5?$CFs?5when?5expecting?5?$HL?6?$AA@
CONST	SEGMENT
??_C@_0BL@MJDIPEOM@found?5?$CFs?5when?5expecting?5?$HL?6?$AA@ DB 'found %'
	DB	's when expecting {', 0aH, 00H		; `string'
CONST	ENDS
;	COMDAT ??_C@_0CO@GIHBEDNL@particle?5effects?5info?5limit?5exce@
CONST	SEGMENT
??_C@_0CO@GIHBEDNL@particle?5effects?5info?5limit?5exce@ DB 'particle eff'
	DB	'ects info limit exceeded %d > %d', 0aH, 00H	; `string'
CONST	ENDS
;	COMDAT ??_C@_0BF@NPLBJKHF@Cannot?5open?5file?5?$CFs?6?$AA@
CONST	SEGMENT
??_C@_0BF@NPLBJKHF@Cannot?5open?5file?5?$CFs?6?$AA@ DB 'Cannot open file '
	DB	'%s', 0aH, 00H				; `string'
CONST	ENDS
;	COMDAT ??_C@_0M@KOFNDIEA@loading?5?$CFs?6?$AA@
CONST	SEGMENT
??_C@_0M@KOFNDIEA@loading?5?$CFs?6?$AA@ DB 'loading %s', 0aH, 00H ; `string'
CONST	ENDS
;	COMDAT ??_C@_0BD@FMKPEBGE@data?1particles?4txt?$AA@
CONST	SEGMENT
??_C@_0BD@FMKPEBGE@data?1particles?4txt?$AA@ DB 'data/particles.txt', 00H ; `string'
CONST	ENDS
;	COMDAT ??_C@_0BI@BPBIPOGH@gfx?1particles?1explosion?$AA@
CONST	SEGMENT
??_C@_0BI@BPBIPOGH@gfx?1particles?1explosion?$AA@ DB 'gfx/particles/explo'
	DB	'sion', 00H					; `string'
CONST	ENDS
;	COMDAT ??_C@_0BH@LEHKLNJL@gfx?1particles?1dustmote?$AA@
CONST	SEGMENT
??_C@_0BH@LEHKLNJL@gfx?1particles?1dustmote?$AA@ DB 'gfx/particles/dustmo'
	DB	'te', 00H					; `string'
CONST	ENDS
;	COMDAT ??_C@_0BL@HBCOCBNF@gfx?1particles?1dirtparticle?$AA@
CONST	SEGMENT
??_C@_0BL@HBCOCBNF@gfx?1particles?1dirtparticle?$AA@ DB 'gfx/particles/di'
	DB	'rtparticle', 00H				; `string'
CONST	ENDS
;	COMDAT ??_C@_0BL@DNBECAEN@gfx?1particles?1sandparticle?$AA@
CONST	SEGMENT
??_C@_0BL@DNBECAEN@gfx?1particles?1sandparticle?$AA@ DB 'gfx/particles/sa'
	DB	'ndparticle', 00H				; `string'
CONST	ENDS
;	COMDAT ??_C@_0BE@CJKEHMBF@gfx?1particles?1blood?$AA@
CONST	SEGMENT
??_C@_0BE@CJKEHMBF@gfx?1particles?1blood?$AA@ DB 'gfx/particles/blood', 00H ; `string'
CONST	ENDS
;	COMDAT ??_C@_0BI@HPNKPJDK@gfx?1particles?1waterring?$AA@
CONST	SEGMENT
??_C@_0BI@HPNKPJDK@gfx?1particles?1waterring?$AA@ DB 'gfx/particles/water'
	DB	'ring', 00H					; `string'
CONST	ENDS
;	COMDAT ??_C@_0BE@MCFMBNAG@gfx?1particles?1smoke?$AA@
CONST	SEGMENT
??_C@_0BE@MCFMBNAG@gfx?1particles?1smoke?$AA@ DB 'gfx/particles/smoke', 00H ; `string'
CONST	ENDS
;	COMDAT ??_C@_0BE@DHIHIMHH@gfx?1particles?1spark?$AA@
CONST	SEGMENT
??_C@_0BE@DHIHIMHH@gfx?1particles?1spark?$AA@ DB 'gfx/particles/spark', 00H ; `string'
CONST	ENDS
;	COMDAT ??_C@_09KHFKAJMC@?$CKparticle?$AA@
CONST	SEGMENT
??_C@_09KHFKAJMC@?$CKparticle?$AA@ DB '*particle', 00H	; `string'
CONST	ENDS
;	COMDAT ??_7CQuakePartSystem@@6B@
CONST	SEGMENT
??_7CQuakePartSystem@@6B@ DD FLAT:??_R4CQuakePartSystem@@6B@ ; CQuakePartSystem::`vftable'
	DD	FLAT:??_ECQuakePartSystem@@UAEPAXI@Z
CONST	ENDS
;	COMDAT xdata$x
xdata$x	SEGMENT
__unwindtable$??0?$MemBlock@VCQuakePart@@@@QAE@H@Z DD 0ffffffffH
	DD	FLAT:__unwindfunclet$??0?$MemBlock@VCQuakePart@@@@QAE@H@Z$0
__ehfuncinfo$??0?$MemBlock@VCQuakePart@@@@QAE@H@Z DD 019930522H
	DD	01H
	DD	FLAT:__unwindtable$??0?$MemBlock@VCQuakePart@@@@QAE@H@Z
	DD	2 DUP(00H)
	DD	2 DUP(00H)
	DD	00H
	DD	01H
xdata$x	ENDS
CRT$XCU	SEGMENT
?m_vertexarray$initializer$@@3P6AXXZA DD FLAT:??__Em_vertexarray@@YAXXZ ; m_vertexarray$initializer$
CRT$XCU	ENDS
CRT$XCU	SEGMENT
?m_coordsarray$initializer$@@3P6AXXZA DD FLAT:??__Em_coordsarray@@YAXXZ ; m_coordsarray$initializer$
CRT$XCU	ENDS
CRT$XCU	SEGMENT
?ParticleArray_Default$initializer$@@3P6AXXZA DD FLAT:??__EParticleArray_Default@@YAXXZ ; ParticleArray_Default$initializer$
CRT$XCU	ENDS
CRT$XCU	SEGMENT
?ParticleArray_Dustmote$initializer$@@3P6AXXZA DD FLAT:??__EParticleArray_Dustmote@@YAXXZ ; ParticleArray_Dustmote$initializer$
CRT$XCU	ENDS
CRT$XCU	SEGMENT
?ParticleArray_Sparks$initializer$@@3P6AXXZA DD FLAT:??__EParticleArray_Sparks@@YAXXZ ; ParticleArray_Sparks$initializer$
CRT$XCU	ENDS
CRT$XCU	SEGMENT
?ParticleArray_Smoke$initializer$@@3P6AXXZA DD FLAT:??__EParticleArray_Smoke@@YAXXZ ; ParticleArray_Smoke$initializer$
CRT$XCU	ENDS
CRT$XCU	SEGMENT
?ParticleArray_Smoke_NotInWater$initializer$@@3P6AXXZA DD FLAT:??__EParticleArray_Smoke_NotInWater@@YAXXZ ; ParticleArray_Smoke_NotInWater$initializer$
CRT$XCU	ENDS
CRT$XCU	SEGMENT
?ParticleArray_Watersplash$initializer$@@3P6AXXZA DD FLAT:??__EParticleArray_Watersplash@@YAXXZ ; ParticleArray_Watersplash$initializer$
CRT$XCU	ENDS
CRT$XCU	SEGMENT
?ParticleArray_Sand$initializer$@@3P6AXXZA DD FLAT:??__EParticleArray_Sand@@YAXXZ ; ParticleArray_Sand$initializer$
CRT$XCU	ENDS
CRT$XCU	SEGMENT
?ParticleArray_Dirt$initializer$@@3P6AXXZA DD FLAT:??__EParticleArray_Dirt@@YAXXZ ; ParticleArray_Dirt$initializer$
CRT$XCU	ENDS
CRT$XCU	SEGMENT
?ParticleArray_Fireball$initializer$@@3P6AXXZA DD FLAT:??__EParticleArray_Fireball@@YAXXZ ; ParticleArray_Fireball$initializer$
CRT$XCU	ENDS
CRT$XCU	SEGMENT
?ParticleArray_Blood$initializer$@@3P6AXXZA DD FLAT:??__EParticleArray_Blood@@YAXXZ ; ParticleArray_Blood$initializer$
CRT$XCU	ENDS
; Function compile flags: /Odtp /ZI
;	COMDAT ??0chunk_s@?$MemBlock@VCQuakePart@@@@QAE@XZ
_TEXT	SEGMENT
_this$ = -4						; size = 4
??0chunk_s@?$MemBlock@VCQuakePart@@@@QAE@XZ PROC	; MemBlock<CQuakePart>::chunk_s::chunk_s, COMDAT
; _this$ = ecx
	push	ebp
	mov	ebp, esp
	sub	esp, 68					; 00000044H
	push	ebx
	push	esi
	push	edi
	mov	DWORD PTR _this$[ebp], ecx
	mov	ecx, DWORD PTR _this$[ebp]
	add	ecx, 4
	call	??0CQuakePart@@QAE@XZ
	mov	eax, DWORD PTR _this$[ebp]
	pop	edi
	pop	esi
	pop	ebx
	mov	esp, ebp
	pop	ebp
	ret	0
??0chunk_s@?$MemBlock@VCQuakePart@@@@QAE@XZ ENDP	; MemBlock<CQuakePart>::chunk_s::chunk_s
_TEXT	ENDS
; Function compile flags: /Odtp /ZI
;	COMDAT ??__FParticleArray_Blood@@YAXXZ
text$yd	SEGMENT
??__FParticleArray_Blood@@YAXXZ PROC			; `dynamic atexit destructor for 'ParticleArray_Blood'', COMDAT
	push	ebp
	mov	ebp, esp
	sub	esp, 64					; 00000040H
	push	ebx
	push	esi
	push	edi
	mov	ecx, OFFSET ?ParticleArray_Blood@@3V?$MemBlock@VCQuakePart@@@@A ; ParticleArray_Blood
	call	??1?$MemBlock@VCQuakePart@@@@QAE@XZ	; MemBlock<CQuakePart>::~MemBlock<CQuakePart>
	pop	edi
	pop	esi
	pop	ebx
	mov	esp, ebp
	pop	ebp
	ret	0
??__FParticleArray_Blood@@YAXXZ ENDP			; `dynamic atexit destructor for 'ParticleArray_Blood''
text$yd	ENDS
; Function compile flags: /Odtp /ZI
; File d:\!diffusion 2020\source code 2022\client-server\client\render\r_quakeparticle.cpp
;	COMDAT ??__EParticleArray_Blood@@YAXXZ
text$di	SEGMENT
??__EParticleArray_Blood@@YAXXZ PROC			; `dynamic initializer for 'ParticleArray_Blood'', COMDAT

; 51   : MemBlock<CQuakePart>ParticleArray_Blood( MAX_PARTICLES ); // TYPE_BLOOD

	push	ebp
	mov	ebp, esp
	sub	esp, 64					; 00000040H
	push	ebx
	push	esi
	push	edi
	push	16384					; 00004000H
	mov	ecx, OFFSET ?ParticleArray_Blood@@3V?$MemBlock@VCQuakePart@@@@A ; ParticleArray_Blood
	call	??0?$MemBlock@VCQuakePart@@@@QAE@H@Z	; MemBlock<CQuakePart>::MemBlock<CQuakePart>
	push	OFFSET ??__FParticleArray_Blood@@YAXXZ	; `dynamic atexit destructor for 'ParticleArray_Blood''
	call	_atexit
	add	esp, 4
	pop	edi
	pop	esi
	pop	ebx
	mov	esp, ebp
	pop	ebp
	ret	0
??__EParticleArray_Blood@@YAXXZ ENDP			; `dynamic initializer for 'ParticleArray_Blood''
text$di	ENDS
; Function compile flags: /Odtp /ZI
;	COMDAT ??__FParticleArray_Fireball@@YAXXZ
text$yd	SEGMENT
??__FParticleArray_Fireball@@YAXXZ PROC			; `dynamic atexit destructor for 'ParticleArray_Fireball'', COMDAT
	push	ebp
	mov	ebp, esp
	sub	esp, 64					; 00000040H
	push	ebx
	push	esi
	push	edi
	mov	ecx, OFFSET ?ParticleArray_Fireball@@3V?$MemBlock@VCQuakePart@@@@A ; ParticleArray_Fireball
	call	??1?$MemBlock@VCQuakePart@@@@QAE@XZ	; MemBlock<CQuakePart>::~MemBlock<CQuakePart>
	pop	edi
	pop	esi
	pop	ebx
	mov	esp, ebp
	pop	ebp
	ret	0
??__FParticleArray_Fireball@@YAXXZ ENDP			; `dynamic atexit destructor for 'ParticleArray_Fireball''
text$yd	ENDS
; Function compile flags: /Odtp /ZI
; File d:\!diffusion 2020\source code 2022\client-server\client\render\r_quakeparticle.cpp
;	COMDAT ??__EParticleArray_Fireball@@YAXXZ
text$di	SEGMENT
??__EParticleArray_Fireball@@YAXXZ PROC			; `dynamic initializer for 'ParticleArray_Fireball'', COMDAT

; 50   : MemBlock<CQuakePart>ParticleArray_Fireball( MAX_PARTICLES ); // TYPE_FIREBALL

	push	ebp
	mov	ebp, esp
	sub	esp, 64					; 00000040H
	push	ebx
	push	esi
	push	edi
	push	16384					; 00004000H
	mov	ecx, OFFSET ?ParticleArray_Fireball@@3V?$MemBlock@VCQuakePart@@@@A ; ParticleArray_Fireball
	call	??0?$MemBlock@VCQuakePart@@@@QAE@H@Z	; MemBlock<CQuakePart>::MemBlock<CQuakePart>
	push	OFFSET ??__FParticleArray_Fireball@@YAXXZ ; `dynamic atexit destructor for 'ParticleArray_Fireball''
	call	_atexit
	add	esp, 4
	pop	edi
	pop	esi
	pop	ebx
	mov	esp, ebp
	pop	ebp
	ret	0
??__EParticleArray_Fireball@@YAXXZ ENDP			; `dynamic initializer for 'ParticleArray_Fireball''
text$di	ENDS
; Function compile flags: /Odtp /ZI
;	COMDAT ??__FParticleArray_Dirt@@YAXXZ
text$yd	SEGMENT
??__FParticleArray_Dirt@@YAXXZ PROC			; `dynamic atexit destructor for 'ParticleArray_Dirt'', COMDAT
	push	ebp
	mov	ebp, esp
	sub	esp, 64					; 00000040H
	push	ebx
	push	esi
	push	edi
	mov	ecx, OFFSET ?ParticleArray_Dirt@@3V?$MemBlock@VCQuakePart@@@@A ; ParticleArray_Dirt
	call	??1?$MemBlock@VCQuakePart@@@@QAE@XZ	; MemBlock<CQuakePart>::~MemBlock<CQuakePart>
	pop	edi
	pop	esi
	pop	ebx
	mov	esp, ebp
	pop	ebp
	ret	0
??__FParticleArray_Dirt@@YAXXZ ENDP			; `dynamic atexit destructor for 'ParticleArray_Dirt''
text$yd	ENDS
; Function compile flags: /Odtp /ZI
; File d:\!diffusion 2020\source code 2022\client-server\client\render\r_quakeparticle.cpp
;	COMDAT ??__EParticleArray_Dirt@@YAXXZ
text$di	SEGMENT
??__EParticleArray_Dirt@@YAXXZ PROC			; `dynamic initializer for 'ParticleArray_Dirt'', COMDAT

; 49   : MemBlock<CQuakePart>ParticleArray_Dirt( MAX_PARTICLES ); // TYPE_DIRT

	push	ebp
	mov	ebp, esp
	sub	esp, 64					; 00000040H
	push	ebx
	push	esi
	push	edi
	push	16384					; 00004000H
	mov	ecx, OFFSET ?ParticleArray_Dirt@@3V?$MemBlock@VCQuakePart@@@@A ; ParticleArray_Dirt
	call	??0?$MemBlock@VCQuakePart@@@@QAE@H@Z	; MemBlock<CQuakePart>::MemBlock<CQuakePart>
	push	OFFSET ??__FParticleArray_Dirt@@YAXXZ	; `dynamic atexit destructor for 'ParticleArray_Dirt''
	call	_atexit
	add	esp, 4
	pop	edi
	pop	esi
	pop	ebx
	mov	esp, ebp
	pop	ebp
	ret	0
??__EParticleArray_Dirt@@YAXXZ ENDP			; `dynamic initializer for 'ParticleArray_Dirt''
text$di	ENDS
; Function compile flags: /Odtp /ZI
;	COMDAT ??__FParticleArray_Sand@@YAXXZ
text$yd	SEGMENT
??__FParticleArray_Sand@@YAXXZ PROC			; `dynamic atexit destructor for 'ParticleArray_Sand'', COMDAT
	push	ebp
	mov	ebp, esp
	sub	esp, 64					; 00000040H
	push	ebx
	push	esi
	push	edi
	mov	ecx, OFFSET ?ParticleArray_Sand@@3V?$MemBlock@VCQuakePart@@@@A ; ParticleArray_Sand
	call	??1?$MemBlock@VCQuakePart@@@@QAE@XZ	; MemBlock<CQuakePart>::~MemBlock<CQuakePart>
	pop	edi
	pop	esi
	pop	ebx
	mov	esp, ebp
	pop	ebp
	ret	0
??__FParticleArray_Sand@@YAXXZ ENDP			; `dynamic atexit destructor for 'ParticleArray_Sand''
text$yd	ENDS
; Function compile flags: /Odtp /ZI
; File d:\!diffusion 2020\source code 2022\client-server\client\render\r_quakeparticle.cpp
;	COMDAT ??__EParticleArray_Sand@@YAXXZ
text$di	SEGMENT
??__EParticleArray_Sand@@YAXXZ PROC			; `dynamic initializer for 'ParticleArray_Sand'', COMDAT

; 48   : MemBlock<CQuakePart>ParticleArray_Sand( MAX_PARTICLES ); // TYPE_SAND

	push	ebp
	mov	ebp, esp
	sub	esp, 64					; 00000040H
	push	ebx
	push	esi
	push	edi
	push	16384					; 00004000H
	mov	ecx, OFFSET ?ParticleArray_Sand@@3V?$MemBlock@VCQuakePart@@@@A ; ParticleArray_Sand
	call	??0?$MemBlock@VCQuakePart@@@@QAE@H@Z	; MemBlock<CQuakePart>::MemBlock<CQuakePart>
	push	OFFSET ??__FParticleArray_Sand@@YAXXZ	; `dynamic atexit destructor for 'ParticleArray_Sand''
	call	_atexit
	add	esp, 4
	pop	edi
	pop	esi
	pop	ebx
	mov	esp, ebp
	pop	ebp
	ret	0
??__EParticleArray_Sand@@YAXXZ ENDP			; `dynamic initializer for 'ParticleArray_Sand''
text$di	ENDS
; Function compile flags: /Odtp /ZI
;	COMDAT ??__FParticleArray_Watersplash@@YAXXZ
text$yd	SEGMENT
??__FParticleArray_Watersplash@@YAXXZ PROC		; `dynamic atexit destructor for 'ParticleArray_Watersplash'', COMDAT
	push	ebp
	mov	ebp, esp
	sub	esp, 64					; 00000040H
	push	ebx
	push	esi
	push	edi
	mov	ecx, OFFSET ?ParticleArray_Watersplash@@3V?$MemBlock@VCQuakePart@@@@A ; ParticleArray_Watersplash
	call	??1?$MemBlock@VCQuakePart@@@@QAE@XZ	; MemBlock<CQuakePart>::~MemBlock<CQuakePart>
	pop	edi
	pop	esi
	pop	ebx
	mov	esp, ebp
	pop	ebp
	ret	0
??__FParticleArray_Watersplash@@YAXXZ ENDP		; `dynamic atexit destructor for 'ParticleArray_Watersplash''
text$yd	ENDS
; Function compile flags: /Odtp /ZI
; File d:\!diffusion 2020\source code 2022\client-server\client\render\r_quakeparticle.cpp
;	COMDAT ??__EParticleArray_Watersplash@@YAXXZ
text$di	SEGMENT
??__EParticleArray_Watersplash@@YAXXZ PROC		; `dynamic initializer for 'ParticleArray_Watersplash'', COMDAT

; 47   : MemBlock<CQuakePart>ParticleArray_Watersplash( MAX_PARTICLES ); // TYPE_WATERSPLASH

	push	ebp
	mov	ebp, esp
	sub	esp, 64					; 00000040H
	push	ebx
	push	esi
	push	edi
	push	16384					; 00004000H
	mov	ecx, OFFSET ?ParticleArray_Watersplash@@3V?$MemBlock@VCQuakePart@@@@A ; ParticleArray_Watersplash
	call	??0?$MemBlock@VCQuakePart@@@@QAE@H@Z	; MemBlock<CQuakePart>::MemBlock<CQuakePart>
	push	OFFSET ??__FParticleArray_Watersplash@@YAXXZ ; `dynamic atexit destructor for 'ParticleArray_Watersplash''
	call	_atexit
	add	esp, 4
	pop	edi
	pop	esi
	pop	ebx
	mov	esp, ebp
	pop	ebp
	ret	0
??__EParticleArray_Watersplash@@YAXXZ ENDP		; `dynamic initializer for 'ParticleArray_Watersplash''
text$di	ENDS
; Function compile flags: /Odtp /ZI
;	COMDAT ??__FParticleArray_Smoke_NotInWater@@YAXXZ
text$yd	SEGMENT
??__FParticleArray_Smoke_NotInWater@@YAXXZ PROC		; `dynamic atexit destructor for 'ParticleArray_Smoke_NotInWater'', COMDAT
	push	ebp
	mov	ebp, esp
	sub	esp, 64					; 00000040H
	push	ebx
	push	esi
	push	edi
	mov	ecx, OFFSET ?ParticleArray_Smoke_NotInWater@@3V?$MemBlock@VCQuakePart@@@@A ; ParticleArray_Smoke_NotInWater
	call	??1?$MemBlock@VCQuakePart@@@@QAE@XZ	; MemBlock<CQuakePart>::~MemBlock<CQuakePart>
	pop	edi
	pop	esi
	pop	ebx
	mov	esp, ebp
	pop	ebp
	ret	0
??__FParticleArray_Smoke_NotInWater@@YAXXZ ENDP		; `dynamic atexit destructor for 'ParticleArray_Smoke_NotInWater''
text$yd	ENDS
; Function compile flags: /Odtp /ZI
; File d:\!diffusion 2020\source code 2022\client-server\client\render\r_quakeparticle.cpp
;	COMDAT ??__EParticleArray_Smoke_NotInWater@@YAXXZ
text$di	SEGMENT
??__EParticleArray_Smoke_NotInWater@@YAXXZ PROC		; `dynamic initializer for 'ParticleArray_Smoke_NotInWater'', COMDAT

; 46   : MemBlock<CQuakePart>ParticleArray_Smoke_NotInWater( MAX_PARTICLES ); // TYPE_SMOKE_NOTINWATER

	push	ebp
	mov	ebp, esp
	sub	esp, 64					; 00000040H
	push	ebx
	push	esi
	push	edi
	push	16384					; 00004000H
	mov	ecx, OFFSET ?ParticleArray_Smoke_NotInWater@@3V?$MemBlock@VCQuakePart@@@@A ; ParticleArray_Smoke_NotInWater
	call	??0?$MemBlock@VCQuakePart@@@@QAE@H@Z	; MemBlock<CQuakePart>::MemBlock<CQuakePart>
	push	OFFSET ??__FParticleArray_Smoke_NotInWater@@YAXXZ ; `dynamic atexit destructor for 'ParticleArray_Smoke_NotInWater''
	call	_atexit
	add	esp, 4
	pop	edi
	pop	esi
	pop	ebx
	mov	esp, ebp
	pop	ebp
	ret	0
??__EParticleArray_Smoke_NotInWater@@YAXXZ ENDP		; `dynamic initializer for 'ParticleArray_Smoke_NotInWater''
text$di	ENDS
; Function compile flags: /Odtp /ZI
;	COMDAT ??__FParticleArray_Smoke@@YAXXZ
text$yd	SEGMENT
??__FParticleArray_Smoke@@YAXXZ PROC			; `dynamic atexit destructor for 'ParticleArray_Smoke'', COMDAT
	push	ebp
	mov	ebp, esp
	sub	esp, 64					; 00000040H
	push	ebx
	push	esi
	push	edi
	mov	ecx, OFFSET ?ParticleArray_Smoke@@3V?$MemBlock@VCQuakePart@@@@A ; ParticleArray_Smoke
	call	??1?$MemBlock@VCQuakePart@@@@QAE@XZ	; MemBlock<CQuakePart>::~MemBlock<CQuakePart>
	pop	edi
	pop	esi
	pop	ebx
	mov	esp, ebp
	pop	ebp
	ret	0
??__FParticleArray_Smoke@@YAXXZ ENDP			; `dynamic atexit destructor for 'ParticleArray_Smoke''
text$yd	ENDS
; Function compile flags: /Odtp /ZI
; File d:\!diffusion 2020\source code 2022\client-server\client\render\r_quakeparticle.cpp
;	COMDAT ??__EParticleArray_Smoke@@YAXXZ
text$di	SEGMENT
??__EParticleArray_Smoke@@YAXXZ PROC			; `dynamic initializer for 'ParticleArray_Smoke'', COMDAT

; 45   : MemBlock<CQuakePart>ParticleArray_Smoke( MAX_PARTICLES ); // TYPE_SMOKE

	push	ebp
	mov	ebp, esp
	sub	esp, 64					; 00000040H
	push	ebx
	push	esi
	push	edi
	push	16384					; 00004000H
	mov	ecx, OFFSET ?ParticleArray_Smoke@@3V?$MemBlock@VCQuakePart@@@@A ; ParticleArray_Smoke
	call	??0?$MemBlock@VCQuakePart@@@@QAE@H@Z	; MemBlock<CQuakePart>::MemBlock<CQuakePart>
	push	OFFSET ??__FParticleArray_Smoke@@YAXXZ	; `dynamic atexit destructor for 'ParticleArray_Smoke''
	call	_atexit
	add	esp, 4
	pop	edi
	pop	esi
	pop	ebx
	mov	esp, ebp
	pop	ebp
	ret	0
??__EParticleArray_Smoke@@YAXXZ ENDP			; `dynamic initializer for 'ParticleArray_Smoke''
text$di	ENDS
; Function compile flags: /Odtp /ZI
;	COMDAT ??__FParticleArray_Sparks@@YAXXZ
text$yd	SEGMENT
??__FParticleArray_Sparks@@YAXXZ PROC			; `dynamic atexit destructor for 'ParticleArray_Sparks'', COMDAT
	push	ebp
	mov	ebp, esp
	sub	esp, 64					; 00000040H
	push	ebx
	push	esi
	push	edi
	mov	ecx, OFFSET ?ParticleArray_Sparks@@3V?$MemBlock@VCQuakePart@@@@A ; ParticleArray_Sparks
	call	??1?$MemBlock@VCQuakePart@@@@QAE@XZ	; MemBlock<CQuakePart>::~MemBlock<CQuakePart>
	pop	edi
	pop	esi
	pop	ebx
	mov	esp, ebp
	pop	ebp
	ret	0
??__FParticleArray_Sparks@@YAXXZ ENDP			; `dynamic atexit destructor for 'ParticleArray_Sparks''
text$yd	ENDS
; Function compile flags: /Odtp /ZI
; File d:\!diffusion 2020\source code 2022\client-server\client\render\r_quakeparticle.cpp
;	COMDAT ??__EParticleArray_Sparks@@YAXXZ
text$di	SEGMENT
??__EParticleArray_Sparks@@YAXXZ PROC			; `dynamic initializer for 'ParticleArray_Sparks'', COMDAT

; 44   : MemBlock<CQuakePart>ParticleArray_Sparks( MAX_PARTICLES ); // TYPE_SPARKS

	push	ebp
	mov	ebp, esp
	sub	esp, 64					; 00000040H
	push	ebx
	push	esi
	push	edi
	push	16384					; 00004000H
	mov	ecx, OFFSET ?ParticleArray_Sparks@@3V?$MemBlock@VCQuakePart@@@@A ; ParticleArray_Sparks
	call	??0?$MemBlock@VCQuakePart@@@@QAE@H@Z	; MemBlock<CQuakePart>::MemBlock<CQuakePart>
	push	OFFSET ??__FParticleArray_Sparks@@YAXXZ	; `dynamic atexit destructor for 'ParticleArray_Sparks''
	call	_atexit
	add	esp, 4
	pop	edi
	pop	esi
	pop	ebx
	mov	esp, ebp
	pop	ebp
	ret	0
??__EParticleArray_Sparks@@YAXXZ ENDP			; `dynamic initializer for 'ParticleArray_Sparks''
text$di	ENDS
; Function compile flags: /Odtp /ZI
;	COMDAT ??__FParticleArray_Dustmote@@YAXXZ
text$yd	SEGMENT
??__FParticleArray_Dustmote@@YAXXZ PROC			; `dynamic atexit destructor for 'ParticleArray_Dustmote'', COMDAT
	push	ebp
	mov	ebp, esp
	sub	esp, 64					; 00000040H
	push	ebx
	push	esi
	push	edi
	mov	ecx, OFFSET ?ParticleArray_Dustmote@@3V?$MemBlock@VCQuakePart@@@@A ; ParticleArray_Dustmote
	call	??1?$MemBlock@VCQuakePart@@@@QAE@XZ	; MemBlock<CQuakePart>::~MemBlock<CQuakePart>
	pop	edi
	pop	esi
	pop	ebx
	mov	esp, ebp
	pop	ebp
	ret	0
??__FParticleArray_Dustmote@@YAXXZ ENDP			; `dynamic atexit destructor for 'ParticleArray_Dustmote''
text$yd	ENDS
; Function compile flags: /Odtp /ZI
; File d:\!diffusion 2020\source code 2022\client-server\client\render\r_quakeparticle.cpp
;	COMDAT ??__EParticleArray_Dustmote@@YAXXZ
text$di	SEGMENT
??__EParticleArray_Dustmote@@YAXXZ PROC			; `dynamic initializer for 'ParticleArray_Dustmote'', COMDAT

; 43   : MemBlock<CQuakePart>ParticleArray_Dustmote( MAX_PARTICLES ); // TYPE_DUSTMOTE

	push	ebp
	mov	ebp, esp
	sub	esp, 64					; 00000040H
	push	ebx
	push	esi
	push	edi
	push	16384					; 00004000H
	mov	ecx, OFFSET ?ParticleArray_Dustmote@@3V?$MemBlock@VCQuakePart@@@@A ; ParticleArray_Dustmote
	call	??0?$MemBlock@VCQuakePart@@@@QAE@H@Z	; MemBlock<CQuakePart>::MemBlock<CQuakePart>
	push	OFFSET ??__FParticleArray_Dustmote@@YAXXZ ; `dynamic atexit destructor for 'ParticleArray_Dustmote''
	call	_atexit
	add	esp, 4
	pop	edi
	pop	esi
	pop	ebx
	mov	esp, ebp
	pop	ebp
	ret	0
??__EParticleArray_Dustmote@@YAXXZ ENDP			; `dynamic initializer for 'ParticleArray_Dustmote''
text$di	ENDS
; Function compile flags: /Odtp /ZI
;	COMDAT ??__FParticleArray_Default@@YAXXZ
text$yd	SEGMENT
??__FParticleArray_Default@@YAXXZ PROC			; `dynamic atexit destructor for 'ParticleArray_Default'', COMDAT
	push	ebp
	mov	ebp, esp
	sub	esp, 64					; 00000040H
	push	ebx
	push	esi
	push	edi
	mov	ecx, OFFSET ?ParticleArray_Default@@3V?$MemBlock@VCQuakePart@@@@A ; ParticleArray_Default
	call	??1?$MemBlock@VCQuakePart@@@@QAE@XZ	; MemBlock<CQuakePart>::~MemBlock<CQuakePart>
	pop	edi
	pop	esi
	pop	ebx
	mov	esp, ebp
	pop	ebp
	ret	0
??__FParticleArray_Default@@YAXXZ ENDP			; `dynamic atexit destructor for 'ParticleArray_Default''
text$yd	ENDS
; Function compile flags: /Odtp /ZI
; File d:\!diffusion 2020\source code 2022\client-server\client\render\r_quakeparticle.cpp
;	COMDAT ??__EParticleArray_Default@@YAXXZ
text$di	SEGMENT
??__EParticleArray_Default@@YAXXZ PROC			; `dynamic initializer for 'ParticleArray_Default'', COMDAT

; 42   : MemBlock<CQuakePart>ParticleArray_Default( MAX_PARTICLES ); // TYPE_DEFAULT

	push	ebp
	mov	ebp, esp
	sub	esp, 64					; 00000040H
	push	ebx
	push	esi
	push	edi
	push	16384					; 00004000H
	mov	ecx, OFFSET ?ParticleArray_Default@@3V?$MemBlock@VCQuakePart@@@@A ; ParticleArray_Default
	call	??0?$MemBlock@VCQuakePart@@@@QAE@H@Z	; MemBlock<CQuakePart>::MemBlock<CQuakePart>
	push	OFFSET ??__FParticleArray_Default@@YAXXZ ; `dynamic atexit destructor for 'ParticleArray_Default''
	call	_atexit
	add	esp, 4
	pop	edi
	pop	esi
	pop	ebx
	mov	esp, ebp
	pop	ebp
	ret	0
??__EParticleArray_Default@@YAXXZ ENDP			; `dynamic initializer for 'ParticleArray_Default''
text$di	ENDS
; Function compile flags: /Odtp /ZI
; File d:\!diffusion 2020\source code 2022\client-server\game_shared\custom_alloc.h
;	COMDAT ?DeleteCurrent@?$MemBlock@VCQuakePart@@@@QAEXXZ
_TEXT	SEGMENT
_delindex$ = -8						; size = 4
_this$ = -4						; size = 4
?DeleteCurrent@?$MemBlock@VCQuakePart@@@@QAEXXZ PROC	; MemBlock<CQuakePart>::DeleteCurrent, COMDAT
; _this$ = ecx

; 93   : 	{

	push	ebp
	mov	ebp, esp
	sub	esp, 72					; 00000048H
	push	ebx
	push	esi
	push	edi
	mov	DWORD PTR _this$[ebp], ecx

; 94   : 		int delindex = m_pArray[m_iCurrent].next;

	mov	eax, DWORD PTR _this$[ebp]
	imul	ecx, DWORD PTR [eax+8], 176
	mov	edx, DWORD PTR _this$[ebp]
	mov	eax, DWORD PTR [edx]
	mov	ecx, DWORD PTR [eax+ecx]
	mov	DWORD PTR _delindex$[ebp], ecx

; 95   : 		m_pArray[m_iCurrent].next = m_pArray[delindex].next; // âűáđŕńűâŕĺě ýëĺěĺíň čç öĺďč çŕí˙ňűő

	imul	eax, DWORD PTR _delindex$[ebp], 176
	mov	ecx, DWORD PTR _this$[ebp]
	mov	edx, DWORD PTR [ecx]
	mov	ecx, DWORD PTR _this$[ebp]
	imul	ecx, DWORD PTR [ecx+8], 176
	mov	esi, DWORD PTR _this$[ebp]
	mov	esi, DWORD PTR [esi]
	mov	edx, DWORD PTR [edx+eax]
	mov	DWORD PTR [esi+ecx], edx

; 96   : 		m_pArray[delindex].next = m_iFirstFree;

	imul	eax, DWORD PTR _delindex$[ebp], 176
	mov	ecx, DWORD PTR _this$[ebp]
	mov	edx, DWORD PTR [ecx]
	mov	ecx, DWORD PTR _this$[ebp]
	mov	ecx, DWORD PTR [ecx+12]
	mov	DWORD PTR [edx+eax], ecx

; 97   : 		m_iFirstFree = delindex; // âęëţ÷ŕĺě ýëĺěĺíň â íŕ÷ŕëî öĺďč ńâîáîäíűő

	mov	eax, DWORD PTR _this$[ebp]
	mov	ecx, DWORD PTR _delindex$[ebp]
	mov	DWORD PTR [eax+12], ecx

; 98   : 	}

	pop	edi
	pop	esi
	pop	ebx
	mov	esp, ebp
	pop	ebp
	ret	0
?DeleteCurrent@?$MemBlock@VCQuakePart@@@@QAEXXZ ENDP	; MemBlock<CQuakePart>::DeleteCurrent
_TEXT	ENDS
; Function compile flags: /Odtp /ZI
; File d:\!diffusion 2020\source code 2022\client-server\game_shared\custom_alloc.h
;	COMDAT ?MoveNext@?$MemBlock@VCQuakePart@@@@QAEXXZ
_TEXT	SEGMENT
_this$ = -4						; size = 4
?MoveNext@?$MemBlock@VCQuakePart@@@@QAEXXZ PROC		; MemBlock<CQuakePart>::MoveNext, COMDAT
; _this$ = ecx

; 88   : 	{

	push	ebp
	mov	ebp, esp
	sub	esp, 68					; 00000044H
	push	ebx
	push	esi
	push	edi
	mov	DWORD PTR _this$[ebp], ecx

; 89   : 		m_iCurrent = m_pArray[m_iCurrent].next;

	mov	eax, DWORD PTR _this$[ebp]
	imul	ecx, DWORD PTR [eax+8], 176
	mov	edx, DWORD PTR _this$[ebp]
	mov	eax, DWORD PTR [edx]
	mov	edx, DWORD PTR _this$[ebp]
	mov	eax, DWORD PTR [eax+ecx]
	mov	DWORD PTR [edx+8], eax

; 90   : 	}

	pop	edi
	pop	esi
	pop	ebx
	mov	esp, ebp
	pop	ebp
	ret	0
?MoveNext@?$MemBlock@VCQuakePart@@@@QAEXXZ ENDP		; MemBlock<CQuakePart>::MoveNext
_TEXT	ENDS
; Function compile flags: /Odtp /ZI
; File d:\!diffusion 2020\source code 2022\client-server\game_shared\custom_alloc.h
;	COMDAT ?GetCurrent@?$MemBlock@VCQuakePart@@@@QAEPAVCQuakePart@@XZ
_TEXT	SEGMENT
_retindex$ = -8						; size = 4
_this$ = -4						; size = 4
?GetCurrent@?$MemBlock@VCQuakePart@@@@QAEPAVCQuakePart@@XZ PROC ; MemBlock<CQuakePart>::GetCurrent, COMDAT
; _this$ = ecx

; 79   : 	{

	push	ebp
	mov	ebp, esp
	sub	esp, 72					; 00000048H
	push	ebx
	push	esi
	push	edi
	mov	DWORD PTR _this$[ebp], ecx

; 80   : 		int retindex = m_pArray[m_iCurrent].next;

	mov	eax, DWORD PTR _this$[ebp]
	imul	ecx, DWORD PTR [eax+8], 176
	mov	edx, DWORD PTR _this$[ebp]
	mov	eax, DWORD PTR [edx]
	mov	ecx, DWORD PTR [eax+ecx]
	mov	DWORD PTR _retindex$[ebp], ecx

; 81   : 		if (!retindex)

	cmp	DWORD PTR _retindex$[ebp], 0
	jne	SHORT $LN2@GetCurrent

; 82   : 			return NULL;

	xor	eax, eax
	jmp	SHORT $LN1@GetCurrent
$LN2@GetCurrent:

; 83   : 
; 84   : 		return &(m_pArray[retindex].data);

	imul	eax, DWORD PTR _retindex$[ebp], 176
	mov	ecx, DWORD PTR _this$[ebp]
	mov	edx, DWORD PTR [ecx]
	lea	eax, DWORD PTR [edx+eax+4]
$LN1@GetCurrent:

; 85   : 	}

	pop	edi
	pop	esi
	pop	ebx
	mov	esp, ebp
	pop	ebp
	ret	0
?GetCurrent@?$MemBlock@VCQuakePart@@@@QAEPAVCQuakePart@@XZ ENDP ; MemBlock<CQuakePart>::GetCurrent
_TEXT	ENDS
; Function compile flags: /Odtp /ZI
; File d:\!diffusion 2020\source code 2022\client-server\game_shared\custom_alloc.h
;	COMDAT ?StartPass@?$MemBlock@VCQuakePart@@@@QAE_NXZ
_TEXT	SEGMENT
_this$ = -4						; size = 4
?StartPass@?$MemBlock@VCQuakePart@@@@QAE_NXZ PROC	; MemBlock<CQuakePart>::StartPass, COMDAT
; _this$ = ecx

; 69   : 	{

	push	ebp
	mov	ebp, esp
	sub	esp, 68					; 00000044H
	push	ebx
	push	esi
	push	edi
	mov	DWORD PTR _this$[ebp], ecx

; 70   : 		m_iCurrent = 0; // íŕ÷číŕĺě îáőîä ń íóëĺâîăî ýëĺěĺíňŕ

	mov	eax, DWORD PTR _this$[ebp]
	mov	DWORD PTR [eax+8], 0

; 71   : 
; 72   : 		if (m_iSIZEOFARRAY > 1)

	mov	eax, DWORD PTR _this$[ebp]
	cmp	DWORD PTR [eax+4], 1
	jle	SHORT $LN2@StartPass

; 73   : 			return true;

	mov	al, 1
	jmp	SHORT $LN1@StartPass

; 74   : 		else

	jmp	SHORT $LN1@StartPass
$LN2@StartPass:

; 75   : 			return false;

	xor	al, al
$LN1@StartPass:

; 76   : 	}

	pop	edi
	pop	esi
	pop	ebx
	mov	esp, ebp
	pop	ebp
	ret	0
?StartPass@?$MemBlock@VCQuakePart@@@@QAE_NXZ ENDP	; MemBlock<CQuakePart>::StartPass
_TEXT	ENDS
; Function compile flags: /Odtp /ZI
; File d:\!diffusion 2020\source code 2022\client-server\game_shared\custom_alloc.h
;	COMDAT ?IsClear@?$MemBlock@VCQuakePart@@@@QAE_NXZ
_TEXT	SEGMENT
tv69 = -69						; size = 1
_this$ = -4						; size = 4
?IsClear@?$MemBlock@VCQuakePart@@@@QAE_NXZ PROC		; MemBlock<CQuakePart>::IsClear, COMDAT
; _this$ = ecx

; 64   : 	{

	push	ebp
	mov	ebp, esp
	sub	esp, 72					; 00000048H
	push	ebx
	push	esi
	push	edi
	mov	DWORD PTR _this$[ebp], ecx

; 65   : 		return m_pArray[0].next ? false : true;

	mov	eax, 176				; 000000b0H
	imul	ecx, eax, 0
	mov	edx, DWORD PTR _this$[ebp]
	mov	eax, DWORD PTR [edx]
	cmp	DWORD PTR [eax+ecx], 0
	je	SHORT $LN3@IsClear
	mov	BYTE PTR tv69[ebp], 0
	jmp	SHORT $LN4@IsClear
$LN3@IsClear:
	mov	BYTE PTR tv69[ebp], 1
$LN4@IsClear:
	mov	al, BYTE PTR tv69[ebp]

; 66   : 	}

	pop	edi
	pop	esi
	pop	ebx
	mov	esp, ebp
	pop	ebp
	ret	0
?IsClear@?$MemBlock@VCQuakePart@@@@QAE_NXZ ENDP		; MemBlock<CQuakePart>::IsClear
_TEXT	ENDS
; Function compile flags: /Odtp /ZI
; File d:\!diffusion 2020\source code 2022\client-server\game_shared\custom_alloc.h
;	COMDAT ?Allocate@?$MemBlock@VCQuakePart@@@@QAEPAVCQuakePart@@XZ
_TEXT	SEGMENT
_savedFirstFree$1 = -8					; size = 4
_this$ = -4						; size = 4
?Allocate@?$MemBlock@VCQuakePart@@@@QAEPAVCQuakePart@@XZ PROC ; MemBlock<CQuakePart>::Allocate, COMDAT
; _this$ = ecx

; 50   : 	{

	push	ebp
	mov	ebp, esp
	sub	esp, 72					; 00000048H
	push	ebx
	push	esi
	push	edi
	mov	DWORD PTR _this$[ebp], ecx

; 51   : 		if (m_iFirstFree != m_iSIZEOFARRAY)

	mov	eax, DWORD PTR _this$[ebp]
	mov	ecx, DWORD PTR _this$[ebp]
	mov	edx, DWORD PTR [eax+12]
	cmp	edx, DWORD PTR [ecx+4]
	je	SHORT $LN2@Allocate

; 52   : 		{
; 53   : 			int savedFirstFree = m_pArray[m_iFirstFree].next;

	mov	eax, DWORD PTR _this$[ebp]
	imul	ecx, DWORD PTR [eax+12], 176
	mov	edx, DWORD PTR _this$[ebp]
	mov	eax, DWORD PTR [edx]
	mov	ecx, DWORD PTR [eax+ecx]
	mov	DWORD PTR _savedFirstFree$1[ebp], ecx

; 54   : 			m_pArray[m_iFirstFree].next = m_pArray[0].next; // äîáŕâë˙ĺě ńâîáîäíóţ ˙÷ĺéęó â

	mov	eax, 176				; 000000b0H
	imul	ecx, eax, 0
	mov	edx, DWORD PTR _this$[ebp]
	mov	eax, DWORD PTR [edx]
	mov	edx, DWORD PTR _this$[ebp]
	imul	edx, DWORD PTR [edx+12], 176
	mov	esi, DWORD PTR _this$[ebp]
	mov	esi, DWORD PTR [esi]
	mov	eax, DWORD PTR [eax+ecx]
	mov	DWORD PTR [esi+edx], eax

; 55   : 			m_pArray[0].next = m_iFirstFree;				//   ńďčńîę çŕí˙ňűő

	mov	eax, 176				; 000000b0H
	imul	ecx, eax, 0
	mov	edx, DWORD PTR _this$[ebp]
	mov	eax, DWORD PTR [edx]
	mov	edx, DWORD PTR _this$[ebp]
	mov	edx, DWORD PTR [edx+12]
	mov	DWORD PTR [eax+ecx], edx

; 56   : 			m_iFirstFree = savedFirstFree;	// čńęëţ÷ŕĺě ˙÷ĺéęó čç ńďčńęŕ ńâîáîäíűő

	mov	eax, DWORD PTR _this$[ebp]
	mov	ecx, DWORD PTR _savedFirstFree$1[ebp]
	mov	DWORD PTR [eax+12], ecx

; 57   : 			return &(m_pArray[m_pArray[0].next].data);

	mov	eax, 176				; 000000b0H
	imul	ecx, eax, 0
	mov	edx, DWORD PTR _this$[ebp]
	mov	eax, DWORD PTR [edx]
	imul	ecx, DWORD PTR [eax+ecx], 176
	mov	edx, DWORD PTR _this$[ebp]
	mov	eax, DWORD PTR [edx]
	lea	eax, DWORD PTR [eax+ecx+4]
	jmp	SHORT $LN1@Allocate

; 58   : 		}
; 59   : 		else

	jmp	SHORT $LN1@Allocate
$LN2@Allocate:

; 60   : 			return NULL;

	xor	eax, eax
$LN1@Allocate:

; 61   : 	}

	pop	edi
	pop	esi
	pop	ebx
	mov	esp, ebp
	pop	ebp
	ret	0
?Allocate@?$MemBlock@VCQuakePart@@@@QAEPAVCQuakePart@@XZ ENDP ; MemBlock<CQuakePart>::Allocate
_TEXT	ENDS
; Function compile flags: /Odtp /ZI
; File d:\!diffusion 2020\source code 2022\client-server\game_shared\custom_alloc.h
;	COMDAT ?Clear@?$MemBlock@VCQuakePart@@@@QAEXXZ
_TEXT	SEGMENT
_i$1 = -8						; size = 4
_this$ = -4						; size = 4
?Clear@?$MemBlock@VCQuakePart@@@@QAEXXZ PROC		; MemBlock<CQuakePart>::Clear, COMDAT
; _this$ = ecx

; 38   : 	{

	push	ebp
	mov	ebp, esp
	sub	esp, 72					; 00000048H
	push	ebx
	push	esi
	push	edi
	mov	DWORD PTR _this$[ebp], ecx

; 39   : 		if (m_iSIZEOFARRAY > 1)

	mov	eax, DWORD PTR _this$[ebp]
	cmp	DWORD PTR [eax+4], 1
	jle	SHORT $LN1@Clear

; 40   : 		{
; 41   : 			m_pArray[0].next = 0; // ĺńëč îí ńńűëŕĺňń˙ ńŕě íŕ ńĺá˙, çíŕ÷čň ńďčńîę çŕí˙ňűő ďóńň

	mov	eax, 176				; 000000b0H
	imul	ecx, eax, 0
	mov	edx, DWORD PTR _this$[ebp]
	mov	eax, DWORD PTR [edx]
	mov	DWORD PTR [eax+ecx], 0

; 42   : 			m_iFirstFree = 1;

	mov	eax, DWORD PTR _this$[ebp]
	mov	DWORD PTR [eax+12], 1

; 43   : 
; 44   : 			for (int i = 1; i < m_iSIZEOFARRAY; ++i)

	mov	DWORD PTR _i$1[ebp], 1
	jmp	SHORT $LN4@Clear
$LN2@Clear:
	mov	eax, DWORD PTR _i$1[ebp]
	add	eax, 1
	mov	DWORD PTR _i$1[ebp], eax
$LN4@Clear:
	mov	eax, DWORD PTR _this$[ebp]
	mov	ecx, DWORD PTR _i$1[ebp]
	cmp	ecx, DWORD PTR [eax+4]
	jge	SHORT $LN1@Clear

; 45   : 				m_pArray[i].next = i + 1;

	mov	eax, DWORD PTR _i$1[ebp]
	add	eax, 1
	imul	ecx, DWORD PTR _i$1[ebp], 176
	mov	edx, DWORD PTR _this$[ebp]
	mov	edx, DWORD PTR [edx]
	mov	DWORD PTR [edx+ecx], eax
	jmp	SHORT $LN2@Clear
$LN1@Clear:

; 46   : 		}
; 47   : 	}

	pop	edi
	pop	esi
	pop	ebx
	mov	esp, ebp
	pop	ebp
	ret	0
?Clear@?$MemBlock@VCQuakePart@@@@QAEXXZ ENDP		; MemBlock<CQuakePart>::Clear
_TEXT	ENDS
; Function compile flags: /Odtp /ZI
; File d:\!diffusion 2020\source code 2022\client-server\game_shared\custom_alloc.h
;	COMDAT ??1?$MemBlock@VCQuakePart@@@@QAE@XZ
_TEXT	SEGMENT
$T1 = -72						; size = 4
_this$ = -4						; size = 4
??1?$MemBlock@VCQuakePart@@@@QAE@XZ PROC		; MemBlock<CQuakePart>::~MemBlock<CQuakePart>, COMDAT
; _this$ = ecx

; 32   : 	{

	push	ebp
	mov	ebp, esp
	sub	esp, 72					; 00000048H
	push	ebx
	push	esi
	push	edi
	mov	DWORD PTR _this$[ebp], ecx

; 33   : 		delete[] m_pArray;

	mov	eax, DWORD PTR _this$[ebp]
	mov	ecx, DWORD PTR [eax]
	mov	DWORD PTR $T1[ebp], ecx
	mov	edx, DWORD PTR $T1[ebp]
	push	edx
	call	??_V@YAXPAX@Z				; operator delete[]
	add	esp, 4

; 34   : 		m_pArray = NULL;

	mov	eax, DWORD PTR _this$[ebp]
	mov	DWORD PTR [eax], 0

; 35   : 	}

	pop	edi
	pop	esi
	pop	ebx
	mov	esp, ebp
	pop	ebp
	ret	0
??1?$MemBlock@VCQuakePart@@@@QAE@XZ ENDP		; MemBlock<CQuakePart>::~MemBlock<CQuakePart>
_TEXT	ENDS
; Function compile flags: /Odtp /ZI
; File d:\!diffusion 2020\source code 2022\client-server\game_shared\custom_alloc.h
;	COMDAT ??0?$MemBlock@VCQuakePart@@@@QAE@H@Z
_TEXT	SEGMENT
tv91 = -96						; size = 4
$T2 = -92						; size = 4
$T3 = -88						; size = 4
$T4 = -84						; size = 4
_this$ = -16						; size = 4
__$EHRec$ = -12						; size = 12
_numElements$ = 8					; size = 4
??0?$MemBlock@VCQuakePart@@@@QAE@H@Z PROC		; MemBlock<CQuakePart>::MemBlock<CQuakePart>, COMDAT
; _this$ = ecx

; 15   : 	MemBlock(int numElements)

	push	ebp
	mov	ebp, esp
	push	-1
	push	__ehhandler$??0?$MemBlock@VCQuakePart@@@@QAE@H@Z
	mov	eax, DWORD PTR fs:0
	push	eax
	sub	esp, 84					; 00000054H
	push	ebx
	push	esi
	push	edi
	mov	eax, DWORD PTR ___security_cookie
	xor	eax, ebp
	push	eax
	lea	eax, DWORD PTR __$EHRec$[ebp]
	mov	DWORD PTR fs:0, eax
	mov	DWORD PTR _this$[ebp], ecx

; 16   : 	{
; 17   : 		// ýëĺěĺíň 0 čńďîëüçóĺňń˙ â ęŕ÷ĺńňâĺ íŕ÷ŕëŕ ńďčńęŕ çŕí˙ňűő ˙÷ĺĺę
; 18   : 		m_iSIZEOFARRAY = numElements + 1;

	mov	eax, DWORD PTR _numElements$[ebp]
	add	eax, 1
	mov	ecx, DWORD PTR _this$[ebp]
	mov	DWORD PTR [ecx+4], eax

; 19   : 		m_pArray = new chunk_t[m_iSIZEOFARRAY];		

	mov	eax, DWORD PTR _this$[ebp]
	mov	ecx, DWORD PTR [eax+4]
	mov	DWORD PTR $T4[ebp], ecx
	xor	ecx, ecx
	mov	eax, DWORD PTR $T4[ebp]
	mov	edx, 176				; 000000b0H
	mul	edx
	seto	cl
	neg	ecx
	or	ecx, eax
	push	ecx
	call	??_U@YAPAXI@Z				; operator new[]
	add	esp, 4
	mov	DWORD PTR $T2[ebp], eax
	mov	DWORD PTR __$EHRec$[ebp+8], 0
	cmp	DWORD PTR $T2[ebp], 0
	je	SHORT $LN4@MemBlock
	push	OFFSET ??0chunk_s@?$MemBlock@VCQuakePart@@@@QAE@XZ
	mov	eax, DWORD PTR $T4[ebp]
	push	eax
	push	176					; 000000b0H
	mov	ecx, DWORD PTR $T2[ebp]
	push	ecx
	call	??_H@YGXPAXIIP6EPAX0@Z@Z
	mov	edx, DWORD PTR $T2[ebp]
	mov	DWORD PTR tv91[ebp], edx
	jmp	SHORT $LN5@MemBlock
$LN4@MemBlock:
	mov	DWORD PTR tv91[ebp], 0
$LN5@MemBlock:
	mov	eax, DWORD PTR tv91[ebp]
	mov	DWORD PTR $T3[ebp], eax
	mov	DWORD PTR __$EHRec$[ebp+8], -1
	mov	ecx, DWORD PTR _this$[ebp]
	mov	edx, DWORD PTR $T3[ebp]
	mov	DWORD PTR [ecx], edx

; 20   : 
; 21   : 		if (!m_pArray)

	mov	eax, DWORD PTR _this$[ebp]
	cmp	DWORD PTR [eax], 0
	jne	SHORT $LN2@MemBlock

; 22   : 		{
; 23   : 			m_iSIZEOFARRAY = 1;

	mov	eax, DWORD PTR _this$[ebp]
	mov	DWORD PTR [eax+4], 1

; 24   : 			m_iFirstFree = m_iSIZEOFARRAY;

	mov	eax, DWORD PTR _this$[ebp]
	mov	ecx, DWORD PTR _this$[ebp]
	mov	edx, DWORD PTR [ecx+4]
	mov	DWORD PTR [eax+12], edx

; 25   : 			return;

	jmp	SHORT $LN1@MemBlock
$LN2@MemBlock:

; 26   : 		}
; 27   : 
; 28   : 		Clear();

	mov	ecx, DWORD PTR _this$[ebp]
	call	?Clear@?$MemBlock@VCQuakePart@@@@QAEXXZ	; MemBlock<CQuakePart>::Clear
$LN1@MemBlock:

; 29   : 	}

	mov	eax, DWORD PTR _this$[ebp]
	mov	ecx, DWORD PTR __$EHRec$[ebp]
	mov	DWORD PTR fs:0, ecx
	pop	ecx
	pop	edi
	pop	esi
	pop	ebx
	mov	esp, ebp
	pop	ebp
	ret	4
_TEXT	ENDS
;	COMDAT text$x
text$x	SEGMENT
__unwindfunclet$??0?$MemBlock@VCQuakePart@@@@QAE@H@Z$0:
	xor	ebx, ebx
	mov	eax, DWORD PTR $T4[ebp]
	mov	ecx, 176				; 000000b0H
	mul	ecx
	seto	bl
	neg	ebx
	or	ebx, eax
	push	ebx
	mov	eax, DWORD PTR $T2[ebp]
	push	eax
	call	??_V@YAXPAXI@Z				; operator delete[]
	add	esp, 8
	ret	0
__ehhandler$??0?$MemBlock@VCQuakePart@@@@QAE@H@Z:
	mov	edx, DWORD PTR [esp+8]
	lea	eax, DWORD PTR [edx+12]
	mov	ecx, DWORD PTR [edx-100]
	xor	ecx, eax
	call	@__security_check_cookie@4
	mov	eax, OFFSET __ehfuncinfo$??0?$MemBlock@VCQuakePart@@@@QAE@H@Z
	jmp	___CxxFrameHandler3
text$x	ENDS
??0?$MemBlock@VCQuakePart@@@@QAE@H@Z ENDP		; MemBlock<CQuakePart>::MemBlock<CQuakePart>
; Function compile flags: /Odtp /ZI
; File d:\!diffusion 2020\source code 2022\client-server\client\render\r_quakeparticle.cpp
;	COMDAT ??__Em_coordsarray@@YAXXZ
text$di	SEGMENT
??__Em_coordsarray@@YAXXZ PROC				; `dynamic initializer for 'm_coordsarray'', COMDAT

; 35   : static Vector2D	m_coordsarray[65536];

	push	ebp
	mov	ebp, esp
	sub	esp, 64					; 00000040H
	push	ebx
	push	esi
	push	edi
	push	OFFSET ??0Vector2D@@QAE@XZ		; Vector2D::Vector2D
	push	65536					; 00010000H
	push	8
	push	OFFSET ?m_coordsarray@@3PAVVector2D@@A
	call	??_H@YGXPAXIIP6EPAX0@Z@Z
	pop	edi
	pop	esi
	pop	ebx
	mov	esp, ebp
	pop	ebp
	ret	0
??__Em_coordsarray@@YAXXZ ENDP				; `dynamic initializer for 'm_coordsarray''
text$di	ENDS
; Function compile flags: /Odtp /ZI
; File d:\!diffusion 2020\source code 2022\client-server\client\render\r_quakeparticle.cpp
;	COMDAT ??__Em_vertexarray@@YAXXZ
text$di	SEGMENT
??__Em_vertexarray@@YAXXZ PROC				; `dynamic initializer for 'm_vertexarray'', COMDAT

; 33   : static Vector m_vertexarray[65536];

	push	ebp
	mov	ebp, esp
	sub	esp, 64					; 00000040H
	push	ebx
	push	esi
	push	edi
	push	OFFSET ??0Vector@@QAE@XZ		; Vector::Vector
	push	65536					; 00010000H
	push	12					; 0000000cH
	push	OFFSET ?m_vertexarray@@3PAVVector@@A
	call	??_H@YGXPAXIIP6EPAX0@Z@Z
	pop	edi
	pop	esi
	pop	ebx
	mov	esp, ebp
	pop	ebp
	ret	0
??__Em_vertexarray@@YAXXZ ENDP				; `dynamic initializer for 'm_vertexarray''
text$di	ENDS
; Function compile flags: /Odtp /ZI
;	COMDAT ??__Fg_pParticles@@YAXXZ
text$yd	SEGMENT
??__Fg_pParticles@@YAXXZ PROC				; `dynamic atexit destructor for 'g_pParticles'', COMDAT
	push	ebp
	mov	ebp, esp
	sub	esp, 64					; 00000040H
	push	ebx
	push	esi
	push	edi
	mov	ecx, OFFSET ?g_pParticles@@3VCQuakePartSystem@@A ; g_pParticles
	call	??1CQuakePartSystem@@UAE@XZ		; CQuakePartSystem::~CQuakePartSystem
	pop	edi
	pop	esi
	pop	ebx
	mov	esp, ebp
	pop	ebp
	ret	0
??__Fg_pParticles@@YAXXZ ENDP				; `dynamic atexit destructor for 'g_pParticles''
text$yd	ENDS
; Function compile flags: /Odtp /ZI
; File d:\!diffusion 2020\source code 2022\client-server\client\render\r_quakeparticle.cpp
;	COMDAT ??__Eg_pParticles@@YAXXZ
text$di	SEGMENT
??__Eg_pParticles@@YAXXZ PROC				; `dynamic initializer for 'g_pParticles'', COMDAT

; 31   : CQuakePartSystem g_pParticles;

	push	ebp
	mov	ebp, esp
	sub	esp, 64					; 00000040H
	push	ebx
	push	esi
	push	edi
	mov	ecx, OFFSET ?g_pParticles@@3VCQuakePartSystem@@A ; g_pParticles
	call	??0CQuakePartSystem@@QAE@XZ		; CQuakePartSystem::CQuakePartSystem
	push	OFFSET ??__Fg_pParticles@@YAXXZ		; `dynamic atexit destructor for 'g_pParticles''
	call	_atexit
	add	esp, 4
	pop	edi
	pop	esi
	pop	ebx
	mov	esp, ebp
	pop	ebp
	ret	0
??__Eg_pParticles@@YAXXZ ENDP				; `dynamic initializer for 'g_pParticles''
text$di	ENDS
; Function compile flags: /Odtp /ZI
; File d:\!diffusion 2020\source code 2022\client-server\client\render\r_sprite.h
;	COMDAT ?R_GetSpriteFrame@@YAPAUmspriteframe_s@@PBUmodel_s@@H@Z
_TEXT	SEGMENT
_m_pSpriteModel$ = 8					; size = 4
_frame$ = 12						; size = 4
?R_GetSpriteFrame@@YAPAUmspriteframe_s@@PBUmodel_s@@H@Z PROC ; R_GetSpriteFrame, COMDAT

; 108  : {

	push	ebp
	mov	ebp, esp
	sub	esp, 64					; 00000040H
	push	ebx
	push	esi
	push	edi

; 109  : 	return g_SpriteRenderer.GetSpriteFrame( m_pSpriteModel, frame );

	mov	eax, DWORD PTR _frame$[ebp]
	push	eax
	mov	ecx, DWORD PTR _m_pSpriteModel$[ebp]
	push	ecx
	mov	ecx, OFFSET ?g_SpriteRenderer@@3VCSpriteModelRenderer@@A ; g_SpriteRenderer
	call	?GetSpriteFrame@CSpriteModelRenderer@@QAEPAUmspriteframe_s@@PBUmodel_s@@H@Z ; CSpriteModelRenderer::GetSpriteFrame

; 110  : } 

	pop	edi
	pop	esi
	pop	ebx
	mov	esp, ebp
	pop	ebp
	ret	0
?R_GetSpriteFrame@@YAPAUmspriteframe_s@@PBUmodel_s@@H@Z ENDP ; R_GetSpriteFrame
_TEXT	ENDS
; Function compile flags: /Odtp /ZI
;	COMDAT ??_GCQuakePartSystem@@UAEPAXI@Z
_TEXT	SEGMENT
_this$ = -4						; size = 4
___flags$ = 8						; size = 4
??_GCQuakePartSystem@@UAEPAXI@Z PROC			; CQuakePartSystem::`scalar deleting destructor', COMDAT
; _this$ = ecx
	push	ebp
	mov	ebp, esp
	sub	esp, 68					; 00000044H
	push	ebx
	push	esi
	push	edi
	mov	DWORD PTR _this$[ebp], ecx
	mov	ecx, DWORD PTR _this$[ebp]
	call	??1CQuakePartSystem@@UAE@XZ		; CQuakePartSystem::~CQuakePartSystem
	mov	eax, DWORD PTR ___flags$[ebp]
	and	eax, 1
	je	SHORT $LN2@scalar
	push	2944052					; 002cec34H
	mov	eax, DWORD PTR _this$[ebp]
	push	eax
	call	??3@YAXPAXI@Z				; operator delete
	add	esp, 8
$LN2@scalar:
	mov	eax, DWORD PTR _this$[ebp]
	pop	edi
	pop	esi
	pop	ebx
	mov	esp, ebp
	pop	ebp
	ret	4
??_GCQuakePartSystem@@UAEPAXI@Z ENDP			; CQuakePartSystem::`scalar deleting destructor'
_TEXT	ENDS
; Function compile flags: /Odtp /ZI
; File d:\!diffusion 2020\source code 2022\client-server\client\render\r_quakeparticle.cpp
;	COMDAT ?BloodParticle@CQuakePartSystem@@QAEXHABVVector@@MV2@1@Z
_TEXT	SEGMENT
$T1 = -292						; size = 12
$T2 = -280						; size = 12
$T3 = -268						; size = 12
$T4 = -256						; size = 12
_flags$ = -180						; size = 4
_src$ = -176						; size = 172
_this$ = -4						; size = 4
_EntIndex$ = 8						; size = 4
_pos$ = 12						; size = 4
_Scale$ = 16						; size = 4
_Color$ = 20						; size = 12
_Direction$ = 32					; size = 12
?BloodParticle@CQuakePartSystem@@QAEXHABVVector@@MV2@1@Z PROC ; CQuakePartSystem::BloodParticle, COMDAT
; _this$ = ecx

; 2326 : {

	push	ebp
	mov	ebp, esp
	sub	esp, 292				; 00000124H
	push	ebx
	push	esi
	push	edi
	mov	DWORD PTR _this$[ebp], ecx

; 2327 : 	CQuakePart src;

	lea	ecx, DWORD PTR _src$[ebp]
	call	??0CQuakePart@@QAE@XZ

; 2328 : 
; 2329 : 	if( !g_fRenderInitialized )

	cmp	DWORD PTR ?g_fRenderInitialized@@3HA, 0	; g_fRenderInitialized
	jne	SHORT $LN2@BloodParti

; 2330 : 		return;

	jmp	$LN1@BloodParti
$LN2@BloodParti:

; 2331 : 
; 2332 : 	int flags = FPART_FLOATING_ORIENTED | FPART_VERTEXLIGHT;

	mov	DWORD PTR _flags$[ebp], 4100		; 00001004H

; 2333 : 
; 2334 : 	src.m_vecOrigin = pos;

	mov	eax, DWORD PTR _pos$[ebp]
	mov	ecx, DWORD PTR [eax]
	mov	DWORD PTR _src$[ebp], ecx
	mov	edx, DWORD PTR [eax+4]
	mov	DWORD PTR _src$[ebp+4], edx
	mov	eax, DWORD PTR [eax+8]
	mov	DWORD PTR _src$[ebp+8], eax

; 2335 : 	src.m_vecVelocity = Direction * 100;

	push	ecx
	movss	xmm0, DWORD PTR __real@42c80000
	movss	DWORD PTR [esp], xmm0
	lea	eax, DWORD PTR $T4[ebp]
	push	eax
	lea	ecx, DWORD PTR _Direction$[ebp]
	call	??DVector@@QBE?AV0@M@Z			; Vector::operator*
	mov	ecx, DWORD PTR [eax]
	mov	DWORD PTR _src$[ebp+24], ecx
	mov	edx, DWORD PTR [eax+4]
	mov	DWORD PTR _src$[ebp+28], edx
	mov	eax, DWORD PTR [eax+8]
	mov	DWORD PTR _src$[ebp+32], eax

; 2336 : 	src.m_vecVelocity.z = RANDOM_FLOAT( 40 + Scale * 10, 80 + Scale * 10 );

	movss	xmm0, DWORD PTR _Scale$[ebp]
	mulss	xmm0, DWORD PTR __real@41200000
	addss	xmm0, DWORD PTR __real@42a00000
	push	ecx
	movss	DWORD PTR [esp], xmm0
	movss	xmm0, DWORD PTR _Scale$[ebp]
	mulss	xmm0, DWORD PTR __real@41200000
	addss	xmm0, DWORD PTR __real@42200000
	push	ecx
	movss	DWORD PTR [esp], xmm0
	call	DWORD PTR ?gEngfuncs@@3Ucl_enginefuncs_s@@A+268
	add	esp, 8
	fstp	DWORD PTR _src$[ebp+32]

; 2337 : 	src.m_vecAccel = Vector( 0, 0, -30 );

	push	ecx
	movss	xmm0, DWORD PTR __real@c1f00000
	movss	DWORD PTR [esp], xmm0
	push	ecx
	xorps	xmm0, xmm0
	movss	DWORD PTR [esp], xmm0
	push	ecx
	xorps	xmm0, xmm0
	movss	DWORD PTR [esp], xmm0
	lea	ecx, DWORD PTR $T3[ebp]
	call	??0Vector@@QAE@MMM@Z			; Vector::Vector
	mov	ecx, DWORD PTR [eax]
	mov	DWORD PTR _src$[ebp+36], ecx
	mov	edx, DWORD PTR [eax+4]
	mov	DWORD PTR _src$[ebp+40], edx
	mov	eax, DWORD PTR [eax+8]
	mov	DWORD PTR _src$[ebp+44], eax

; 2338 : 	src.m_vecColor = Color / 255;

	push	ecx
	movss	xmm0, DWORD PTR __real@437f0000
	movss	DWORD PTR [esp], xmm0
	lea	eax, DWORD PTR $T2[ebp]
	push	eax
	lea	ecx, DWORD PTR _Color$[ebp]
	call	??KVector@@QBE?AV0@M@Z			; Vector::operator/
	mov	ecx, DWORD PTR [eax]
	mov	DWORD PTR _src$[ebp+48], ecx
	mov	edx, DWORD PTR [eax+4]
	mov	DWORD PTR _src$[ebp+52], edx
	mov	eax, DWORD PTR [eax+8]
	mov	DWORD PTR _src$[ebp+56], eax

; 2339 : 	src.m_vecColorVelocity = Vector( 0, 0, 0 );

	push	ecx
	xorps	xmm0, xmm0
	movss	DWORD PTR [esp], xmm0
	push	ecx
	xorps	xmm0, xmm0
	movss	DWORD PTR [esp], xmm0
	push	ecx
	xorps	xmm0, xmm0
	movss	DWORD PTR [esp], xmm0
	lea	ecx, DWORD PTR $T1[ebp]
	call	??0Vector@@QAE@MMM@Z			; Vector::Vector
	mov	ecx, DWORD PTR [eax]
	mov	DWORD PTR _src$[ebp+60], ecx
	mov	edx, DWORD PTR [eax+4]
	mov	DWORD PTR _src$[ebp+64], edx
	mov	eax, DWORD PTR [eax+8]
	mov	DWORD PTR _src$[ebp+68], eax

; 2340 : 	src.m_flAlpha = 1.0;

	movss	xmm0, DWORD PTR __real@3f800000
	movss	DWORD PTR _src$[ebp+72], xmm0

; 2341 : 	src.m_flStartAlpha = 0.0f;

	xorps	xmm0, xmm0
	movss	DWORD PTR _src$[ebp+112], xmm0

; 2342 : 	src.m_flAlphaVelocity = -1.0;

	movss	xmm0, DWORD PTR __real@bf800000
	movss	DWORD PTR _src$[ebp+76], xmm0

; 2343 : 	src.m_flRadius = 0.01;

	movss	xmm0, DWORD PTR __real@3c23d70a
	movss	DWORD PTR _src$[ebp+80], xmm0

; 2344 : 	src.m_flRadiusVelocity = 20 + Scale * 5;

	movss	xmm0, DWORD PTR _Scale$[ebp]
	mulss	xmm0, DWORD PTR __real@40a00000
	addss	xmm0, DWORD PTR __real@41a00000
	movss	DWORD PTR _src$[ebp+84], xmm0

; 2345 : 	src.m_flLength = 1;

	movss	xmm0, DWORD PTR __real@3f800000
	movss	DWORD PTR _src$[ebp+88], xmm0

; 2346 : 	src.m_flLengthVelocity = 0;

	xorps	xmm0, xmm0
	movss	DWORD PTR _src$[ebp+92], xmm0

; 2347 : 	src.m_flRotation = RANDOM_LONG( 0, 359 );

	push	359					; 00000167H
	push	0
	call	DWORD PTR ?gEngfuncs@@3Ucl_enginefuncs_s@@A+272
	add	esp, 8
	cvtsi2ss xmm0, eax
	movss	DWORD PTR _src$[ebp+96], xmm0

; 2348 : 	src.m_flRotationVelocity = RANDOM_FLOAT( -100.0, 100.0 );

	push	ecx
	movss	xmm0, DWORD PTR __real@42c80000
	movss	DWORD PTR [esp], xmm0
	push	ecx
	movss	xmm0, DWORD PTR __real@c2c80000
	movss	DWORD PTR [esp], xmm0
	call	DWORD PTR ?gEngfuncs@@3Ucl_enginefuncs_s@@A+268
	add	esp, 8
	fstp	DWORD PTR _src$[ebp+100]

; 2349 : 	src.m_flDistance = 0;

	xorps	xmm0, xmm0
	movss	DWORD PTR _src$[ebp+108], xmm0

; 2350 : 	src.ParticleType = TYPE_BLOOD;

	mov	DWORD PTR _src$[ebp+144], 9

; 2351 : 	src.EntIndex = EntIndex;

	mov	eax, DWORD PTR _EntIndex$[ebp]
	mov	DWORD PTR _src$[ebp+168], eax

; 2352 : 
; 2353 : 	AddParticle( &src, m_hBlood, flags );

	mov	eax, DWORD PTR _flags$[ebp]
	push	eax
	mov	ecx, DWORD PTR _this$[ebp]
	mov	edx, DWORD PTR [ecx+2911260]
	push	edx
	lea	eax, DWORD PTR _src$[ebp]
	push	eax
	mov	ecx, DWORD PTR _this$[ebp]
	call	?AddParticle@CQuakePartSystem@@QAE_NPAVCQuakePart@@HH@Z ; CQuakePartSystem::AddParticle
$LN1@BloodParti:

; 2354 : }

	pop	edi
	pop	esi
	pop	ebx
	mov	esp, ebp
	pop	ebp
	ret	36					; 00000024H
?BloodParticle@CQuakePartSystem@@QAEXHABVVector@@MV2@1@Z ENDP ; CQuakePartSystem::BloodParticle
_TEXT	ENDS
; Function compile flags: /Odtp /ZI
; File d:\!diffusion 2020\source code 2022\client-server\client\render\r_quakeparticle.cpp
;	COMDAT ?SmokeVolume@CQuakePartSystem@@QAEXHHABVVector@@MMH@Z
_TEXT	SEGMENT
tv439 = -292						; size = 4
tv429 = -292						; size = 4
tv419 = -292						; size = 4
tv344 = -292						; size = 4
tv334 = -292						; size = 4
tv324 = -292						; size = 4
tv66 = -292						; size = 4
$T1 = -288						; size = 12
$T2 = -276						; size = 12
_i$3 = -200						; size = 4
_i$4 = -196						; size = 4
_ScaleRand$ = -192					; size = 4
_posRand$ = -188					; size = 4
_count$ = -184						; size = 4
_flags$ = -180						; size = 4
_src$ = -176						; size = 172
_this$ = -4						; size = 4
_EntIndex$ = 8						; size = 4
_Particle$ = 12						; size = 4
_pos$ = 16						; size = 4
_Scale$ = 20						; size = 4
_Alpha$ = 24						; size = 4
_Distance$ = 28						; size = 4
?SmokeVolume@CQuakePartSystem@@QAEXHHABVVector@@MMH@Z PROC ; CQuakePartSystem::SmokeVolume, COMDAT
; _this$ = ecx

; 2033 : {

	push	ebp
	mov	ebp, esp
	sub	esp, 292				; 00000124H
	push	ebx
	push	esi
	push	edi
	mov	DWORD PTR _this$[ebp], ecx

; 2034 : 	CQuakePart src;

	lea	ecx, DWORD PTR _src$[ebp]
	call	??0CQuakePart@@QAE@XZ

; 2035 : 
; 2036 : 	if( !g_fRenderInitialized )

	cmp	DWORD PTR ?g_fRenderInitialized@@3HA, 0	; g_fRenderInitialized
	jne	SHORT $LN10@SmokeVolum

; 2037 : 		return;

	jmp	$LN1@SmokeVolum
$LN10@SmokeVolum:

; 2038 : 
; 2039 : 	int flags = FPART_VERTEXLIGHT | FPART_FADEIN;

	mov	DWORD PTR _flags$[ebp], 260		; 00000104H

; 2040 : 	int count = 1;

	mov	DWORD PTR _count$[ebp], 1

; 2041 : 	float posRand = 20.0f;

	movss	xmm0, DWORD PTR __real@41a00000
	movss	DWORD PTR _posRand$[ebp], xmm0

; 2042 : 	float ScaleRand = 0.0f;

	xorps	xmm0, xmm0
	movss	DWORD PTR _ScaleRand$[ebp], xmm0

; 2043 : 
; 2044 : 	switch( Particle )

	mov	eax, DWORD PTR _Particle$[ebp]
	mov	DWORD PTR tv66[ebp], eax
	cmp	DWORD PTR tv66[ebp], 1
	je	SHORT $LN12@SmokeVolum

; 2045 : 	{
; 2046 : 	default:
; 2047 : 	case 0:
; 2048 : 		Particle = m_hSmoke;

	mov	eax, DWORD PTR _this$[ebp]
	mov	ecx, DWORD PTR [eax+2911252]
	mov	DWORD PTR _Particle$[ebp], ecx

; 2049 : 		break;

	jmp	SHORT $LN2@SmokeVolum
$LN12@SmokeVolum:

; 2050 : 	case 1:
; 2051 : 		Particle = m_hDustMote;

	mov	eax, DWORD PTR _this$[ebp]
	mov	ecx, DWORD PTR [eax+2911272]
	mov	DWORD PTR _Particle$[ebp], ecx
$LN2@SmokeVolum:

; 2052 : 		break;
; 2053 : 	}
; 2054 : 
; 2055 : 	if( Particle == m_hSmoke )

	mov	eax, DWORD PTR _this$[ebp]
	mov	ecx, DWORD PTR _Particle$[ebp]
	cmp	ecx, DWORD PTR [eax+2911252]
	jne	$LN13@SmokeVolum

; 2056 : 	{
; 2057 : 		for( int i = 0; i < count; i++ )

	mov	DWORD PTR _i$4[ebp], 0
	jmp	SHORT $LN6@SmokeVolum
$LN4@SmokeVolum:
	mov	eax, DWORD PTR _i$4[ebp]
	add	eax, 1
	mov	DWORD PTR _i$4[ebp], eax
$LN6@SmokeVolum:
	mov	eax, DWORD PTR _i$4[ebp]
	cmp	eax, DWORD PTR _count$[ebp]
	jge	$LN5@SmokeVolum

; 2058 : 		{
; 2059 : 			if( !Scale )

	movss	xmm0, DWORD PTR _Scale$[ebp]
	ucomiss	xmm0, DWORD PTR __real@00000000
	lahf
	test	ah, 68					; 00000044H
	jp	SHORT $LN15@SmokeVolum

; 2060 : 				Scale = RANDOM_FLOAT( 30, 40 );

	push	ecx
	movss	xmm0, DWORD PTR __real@42200000
	movss	DWORD PTR [esp], xmm0
	push	ecx
	movss	xmm0, DWORD PTR __real@41f00000
	movss	DWORD PTR [esp], xmm0
	call	DWORD PTR ?gEngfuncs@@3Ucl_enginefuncs_s@@A+268
	add	esp, 8
	fstp	DWORD PTR _Scale$[ebp]

; 2061 : 			else

	jmp	SHORT $LN16@SmokeVolum
$LN15@SmokeVolum:

; 2062 : 			{
; 2063 : 				ScaleRand = Scale * 0.1;

	cvtss2sd xmm0, DWORD PTR _Scale$[ebp]
	mulsd	xmm0, QWORD PTR __real@3fb999999999999a
	cvtsd2ss xmm0, xmm0
	movss	DWORD PTR _ScaleRand$[ebp], xmm0

; 2064 : 				Scale = RANDOM_FLOAT( Scale - ScaleRand, Scale + ScaleRand );

	movss	xmm0, DWORD PTR _Scale$[ebp]
	addss	xmm0, DWORD PTR _ScaleRand$[ebp]
	push	ecx
	movss	DWORD PTR [esp], xmm0
	movss	xmm0, DWORD PTR _Scale$[ebp]
	subss	xmm0, DWORD PTR _ScaleRand$[ebp]
	push	ecx
	movss	DWORD PTR [esp], xmm0
	call	DWORD PTR ?gEngfuncs@@3Ucl_enginefuncs_s@@A+268
	add	esp, 8
	fstp	DWORD PTR _Scale$[ebp]
$LN16@SmokeVolum:

; 2065 : 			}
; 2066 : 			src.m_vecOrigin.x = pos.x + RANDOM_FLOAT( -posRand, posRand );

	push	ecx
	movss	xmm0, DWORD PTR _posRand$[ebp]
	movss	DWORD PTR [esp], xmm0
	movss	xmm0, DWORD PTR _posRand$[ebp]
	xorps	xmm0, DWORD PTR __xmm@80000000800000008000000080000000
	push	ecx
	movss	DWORD PTR [esp], xmm0
	call	DWORD PTR ?gEngfuncs@@3Ucl_enginefuncs_s@@A+268
	add	esp, 8
	fstp	DWORD PTR tv324[ebp]
	mov	eax, DWORD PTR _pos$[ebp]
	movss	xmm0, DWORD PTR tv324[ebp]
	addss	xmm0, DWORD PTR [eax]
	movss	DWORD PTR _src$[ebp], xmm0

; 2067 : 			src.m_vecOrigin.y = pos.y + RANDOM_FLOAT( -posRand, posRand );

	push	ecx
	movss	xmm0, DWORD PTR _posRand$[ebp]
	movss	DWORD PTR [esp], xmm0
	movss	xmm0, DWORD PTR _posRand$[ebp]
	xorps	xmm0, DWORD PTR __xmm@80000000800000008000000080000000
	push	ecx
	movss	DWORD PTR [esp], xmm0
	call	DWORD PTR ?gEngfuncs@@3Ucl_enginefuncs_s@@A+268
	add	esp, 8
	fstp	DWORD PTR tv334[ebp]
	mov	eax, DWORD PTR _pos$[ebp]
	movss	xmm0, DWORD PTR tv334[ebp]
	addss	xmm0, DWORD PTR [eax+4]
	movss	DWORD PTR _src$[ebp+4], xmm0

; 2068 : 			src.m_vecOrigin.z = pos.z + RANDOM_FLOAT( -posRand, posRand );

	push	ecx
	movss	xmm0, DWORD PTR _posRand$[ebp]
	movss	DWORD PTR [esp], xmm0
	movss	xmm0, DWORD PTR _posRand$[ebp]
	xorps	xmm0, DWORD PTR __xmm@80000000800000008000000080000000
	push	ecx
	movss	DWORD PTR [esp], xmm0
	call	DWORD PTR ?gEngfuncs@@3Ucl_enginefuncs_s@@A+268
	add	esp, 8
	fstp	DWORD PTR tv344[ebp]
	mov	eax, DWORD PTR _pos$[ebp]
	movss	xmm0, DWORD PTR tv344[ebp]
	addss	xmm0, DWORD PTR [eax+8]
	movss	DWORD PTR _src$[ebp+8], xmm0

; 2069 : 			src.m_vecVelocity.x = 0;

	xorps	xmm0, xmm0
	movss	DWORD PTR _src$[ebp+24], xmm0

; 2070 : 			src.m_vecVelocity.y = 0;

	xorps	xmm0, xmm0
	movss	DWORD PTR _src$[ebp+28], xmm0

; 2071 : 			src.m_vecVelocity.z = 0;

	xorps	xmm0, xmm0
	movss	DWORD PTR _src$[ebp+32], xmm0

; 2072 : 			src.m_vecAccel = g_vecZero;

	mov	eax, DWORD PTR ?g_vecZero@@3VVector@@B
	mov	DWORD PTR _src$[ebp+36], eax
	mov	ecx, DWORD PTR ?g_vecZero@@3VVector@@B+4
	mov	DWORD PTR _src$[ebp+40], ecx
	mov	edx, DWORD PTR ?g_vecZero@@3VVector@@B+8
	mov	DWORD PTR _src$[ebp+44], edx

; 2073 : 			src.m_vecColor = Vector( 1, 1, 1 );

	push	ecx
	movss	xmm0, DWORD PTR __real@3f800000
	movss	DWORD PTR [esp], xmm0
	push	ecx
	movss	xmm0, DWORD PTR __real@3f800000
	movss	DWORD PTR [esp], xmm0
	push	ecx
	movss	xmm0, DWORD PTR __real@3f800000
	movss	DWORD PTR [esp], xmm0
	lea	ecx, DWORD PTR $T2[ebp]
	call	??0Vector@@QAE@MMM@Z			; Vector::Vector
	mov	ecx, DWORD PTR [eax]
	mov	DWORD PTR _src$[ebp+48], ecx
	mov	edx, DWORD PTR [eax+4]
	mov	DWORD PTR _src$[ebp+52], edx
	mov	eax, DWORD PTR [eax+8]
	mov	DWORD PTR _src$[ebp+56], eax

; 2074 : 			src.m_vecColorVelocity = g_vecZero;

	mov	eax, DWORD PTR ?g_vecZero@@3VVector@@B
	mov	DWORD PTR _src$[ebp+60], eax
	mov	ecx, DWORD PTR ?g_vecZero@@3VVector@@B+4
	mov	DWORD PTR _src$[ebp+64], ecx
	mov	edx, DWORD PTR ?g_vecZero@@3VVector@@B+8
	mov	DWORD PTR _src$[ebp+68], edx

; 2075 : 			src.m_flAlpha = Alpha;

	movss	xmm0, DWORD PTR _Alpha$[ebp]
	movss	DWORD PTR _src$[ebp+72], xmm0

; 2076 : 			src.m_flStartAlpha = 0.0f;

	xorps	xmm0, xmm0
	movss	DWORD PTR _src$[ebp+112], xmm0

; 2077 : 			src.m_flAlphaVelocity = -0.5 * Alpha;

	cvtss2sd xmm0, DWORD PTR _Alpha$[ebp]
	mulsd	xmm0, QWORD PTR __real@bfe0000000000000
	cvtsd2ss xmm0, xmm0
	movss	DWORD PTR _src$[ebp+76], xmm0

; 2078 : 			src.m_flRadius = Scale;

	movss	xmm0, DWORD PTR _Scale$[ebp]
	movss	DWORD PTR _src$[ebp+80], xmm0

; 2079 : 			src.m_flRadiusVelocity = 0.0f;

	xorps	xmm0, xmm0
	movss	DWORD PTR _src$[ebp+84], xmm0

; 2080 : 			src.m_flLength = 1;

	movss	xmm0, DWORD PTR __real@3f800000
	movss	DWORD PTR _src$[ebp+88], xmm0

; 2081 : 			src.m_flLengthVelocity = 0;

	xorps	xmm0, xmm0
	movss	DWORD PTR _src$[ebp+92], xmm0

; 2082 : 			src.m_flRotation = RANDOM_LONG( 1, 360 );

	push	360					; 00000168H
	push	1
	call	DWORD PTR ?gEngfuncs@@3Ucl_enginefuncs_s@@A+272
	add	esp, 8
	cvtsi2ss xmm0, eax
	movss	DWORD PTR _src$[ebp+96], xmm0

; 2083 : 			src.m_flRotationVelocity = 0;

	xorps	xmm0, xmm0
	movss	DWORD PTR _src$[ebp+100], xmm0

; 2084 : 			src.m_flDistance = Distance;

	cvtsi2ss xmm0, DWORD PTR _Distance$[ebp]
	movss	DWORD PTR _src$[ebp+108], xmm0

; 2085 : 			src.ParticleType = TYPE_SMOKE;

	mov	DWORD PTR _src$[ebp+144], 3

; 2086 : 			src.EntIndex = EntIndex;

	mov	eax, DWORD PTR _EntIndex$[ebp]
	mov	DWORD PTR _src$[ebp+168], eax

; 2087 : 
; 2088 : 			if( !AddParticle( &src, Particle, flags ) )

	mov	eax, DWORD PTR _flags$[ebp]
	push	eax
	mov	ecx, DWORD PTR _Particle$[ebp]
	push	ecx
	lea	edx, DWORD PTR _src$[ebp]
	push	edx
	mov	ecx, DWORD PTR _this$[ebp]
	call	?AddParticle@CQuakePartSystem@@QAE_NPAVCQuakePart@@HH@Z ; CQuakePartSystem::AddParticle
	movzx	eax, al
	test	eax, eax
	jne	SHORT $LN17@SmokeVolum

; 2089 : 				break;

	jmp	SHORT $LN5@SmokeVolum
$LN17@SmokeVolum:

; 2090 : 		}

	jmp	$LN4@SmokeVolum
$LN5@SmokeVolum:

; 2091 : 	}
; 2092 : 	else if( Particle == m_hDustMote )

	jmp	$LN8@SmokeVolum
$LN13@SmokeVolum:
	mov	eax, DWORD PTR _this$[ebp]
	mov	ecx, DWORD PTR _Particle$[ebp]
	cmp	ecx, DWORD PTR [eax+2911272]
	jne	$LN8@SmokeVolum

; 2093 : 	{
; 2094 : 		posRand = 5.0f;

	movss	xmm0, DWORD PTR __real@40a00000
	movss	DWORD PTR _posRand$[ebp], xmm0

; 2095 : 
; 2096 : 		flags |= FPART_DISTANCESCALE;

	mov	eax, DWORD PTR _flags$[ebp]
	or	eax, 512				; 00000200H
	mov	DWORD PTR _flags$[ebp], eax

; 2097 : 
; 2098 : 		for( int i = 0; i < count; i++ )

	mov	DWORD PTR _i$3[ebp], 0
	jmp	SHORT $LN9@SmokeVolum
$LN7@SmokeVolum:
	mov	eax, DWORD PTR _i$3[ebp]
	add	eax, 1
	mov	DWORD PTR _i$3[ebp], eax
$LN9@SmokeVolum:
	mov	eax, DWORD PTR _i$3[ebp]
	cmp	eax, DWORD PTR _count$[ebp]
	jge	$LN8@SmokeVolum

; 2099 : 		{
; 2100 : 			if( !Scale )

	movss	xmm0, DWORD PTR _Scale$[ebp]
	ucomiss	xmm0, DWORD PTR __real@00000000
	lahf
	test	ah, 68					; 00000044H
	jp	SHORT $LN19@SmokeVolum

; 2101 : 				Scale = RANDOM_FLOAT( 0.15, 0.40 );

	push	ecx
	movss	xmm0, DWORD PTR __real@3ecccccd
	movss	DWORD PTR [esp], xmm0
	push	ecx
	movss	xmm0, DWORD PTR __real@3e19999a
	movss	DWORD PTR [esp], xmm0
	call	DWORD PTR ?gEngfuncs@@3Ucl_enginefuncs_s@@A+268
	add	esp, 8
	fstp	DWORD PTR _Scale$[ebp]

; 2102 : 			else

	jmp	SHORT $LN20@SmokeVolum
$LN19@SmokeVolum:

; 2103 : 			{
; 2104 : 				ScaleRand = Scale * 0.1;

	cvtss2sd xmm0, DWORD PTR _Scale$[ebp]
	mulsd	xmm0, QWORD PTR __real@3fb999999999999a
	cvtsd2ss xmm0, xmm0
	movss	DWORD PTR _ScaleRand$[ebp], xmm0

; 2105 : 				Scale = RANDOM_FLOAT( Scale - ScaleRand, Scale + ScaleRand );

	movss	xmm0, DWORD PTR _Scale$[ebp]
	addss	xmm0, DWORD PTR _ScaleRand$[ebp]
	push	ecx
	movss	DWORD PTR [esp], xmm0
	movss	xmm0, DWORD PTR _Scale$[ebp]
	subss	xmm0, DWORD PTR _ScaleRand$[ebp]
	push	ecx
	movss	DWORD PTR [esp], xmm0
	call	DWORD PTR ?gEngfuncs@@3Ucl_enginefuncs_s@@A+268
	add	esp, 8
	fstp	DWORD PTR _Scale$[ebp]
$LN20@SmokeVolum:

; 2106 : 			}
; 2107 : 			src.m_vecOrigin.x = pos.x + RANDOM_FLOAT( -posRand, posRand );

	push	ecx
	movss	xmm0, DWORD PTR _posRand$[ebp]
	movss	DWORD PTR [esp], xmm0
	movss	xmm0, DWORD PTR _posRand$[ebp]
	xorps	xmm0, DWORD PTR __xmm@80000000800000008000000080000000
	push	ecx
	movss	DWORD PTR [esp], xmm0
	call	DWORD PTR ?gEngfuncs@@3Ucl_enginefuncs_s@@A+268
	add	esp, 8
	fstp	DWORD PTR tv419[ebp]
	mov	eax, DWORD PTR _pos$[ebp]
	movss	xmm0, DWORD PTR tv419[ebp]
	addss	xmm0, DWORD PTR [eax]
	movss	DWORD PTR _src$[ebp], xmm0

; 2108 : 			src.m_vecOrigin.y = pos.y + RANDOM_FLOAT( -posRand, posRand );

	push	ecx
	movss	xmm0, DWORD PTR _posRand$[ebp]
	movss	DWORD PTR [esp], xmm0
	movss	xmm0, DWORD PTR _posRand$[ebp]
	xorps	xmm0, DWORD PTR __xmm@80000000800000008000000080000000
	push	ecx
	movss	DWORD PTR [esp], xmm0
	call	DWORD PTR ?gEngfuncs@@3Ucl_enginefuncs_s@@A+268
	add	esp, 8
	fstp	DWORD PTR tv429[ebp]
	mov	eax, DWORD PTR _pos$[ebp]
	movss	xmm0, DWORD PTR tv429[ebp]
	addss	xmm0, DWORD PTR [eax+4]
	movss	DWORD PTR _src$[ebp+4], xmm0

; 2109 : 			src.m_vecOrigin.z = pos.z + RANDOM_FLOAT( -posRand, posRand );

	push	ecx
	movss	xmm0, DWORD PTR _posRand$[ebp]
	movss	DWORD PTR [esp], xmm0
	movss	xmm0, DWORD PTR _posRand$[ebp]
	xorps	xmm0, DWORD PTR __xmm@80000000800000008000000080000000
	push	ecx
	movss	DWORD PTR [esp], xmm0
	call	DWORD PTR ?gEngfuncs@@3Ucl_enginefuncs_s@@A+268
	add	esp, 8
	fstp	DWORD PTR tv439[ebp]
	mov	eax, DWORD PTR _pos$[ebp]
	movss	xmm0, DWORD PTR tv439[ebp]
	addss	xmm0, DWORD PTR [eax+8]
	movss	DWORD PTR _src$[ebp+8], xmm0

; 2110 : 			src.m_vecVelocity.x = 0;

	xorps	xmm0, xmm0
	movss	DWORD PTR _src$[ebp+24], xmm0

; 2111 : 			src.m_vecVelocity.y = 0;

	xorps	xmm0, xmm0
	movss	DWORD PTR _src$[ebp+28], xmm0

; 2112 : 			src.m_vecVelocity.z = RANDOM_FLOAT(-5, 5);

	push	ecx
	movss	xmm0, DWORD PTR __real@40a00000
	movss	DWORD PTR [esp], xmm0
	push	ecx
	movss	xmm0, DWORD PTR __real@c0a00000
	movss	DWORD PTR [esp], xmm0
	call	DWORD PTR ?gEngfuncs@@3Ucl_enginefuncs_s@@A+268
	add	esp, 8
	fstp	DWORD PTR _src$[ebp+32]

; 2113 : 			src.m_vecAccel = g_vecZero;

	mov	eax, DWORD PTR ?g_vecZero@@3VVector@@B
	mov	DWORD PTR _src$[ebp+36], eax
	mov	ecx, DWORD PTR ?g_vecZero@@3VVector@@B+4
	mov	DWORD PTR _src$[ebp+40], ecx
	mov	edx, DWORD PTR ?g_vecZero@@3VVector@@B+8
	mov	DWORD PTR _src$[ebp+44], edx

; 2114 : 			src.m_vecColor = Vector( 1, 1, 1 );

	push	ecx
	movss	xmm0, DWORD PTR __real@3f800000
	movss	DWORD PTR [esp], xmm0
	push	ecx
	movss	xmm0, DWORD PTR __real@3f800000
	movss	DWORD PTR [esp], xmm0
	push	ecx
	movss	xmm0, DWORD PTR __real@3f800000
	movss	DWORD PTR [esp], xmm0
	lea	ecx, DWORD PTR $T1[ebp]
	call	??0Vector@@QAE@MMM@Z			; Vector::Vector
	mov	ecx, DWORD PTR [eax]
	mov	DWORD PTR _src$[ebp+48], ecx
	mov	edx, DWORD PTR [eax+4]
	mov	DWORD PTR _src$[ebp+52], edx
	mov	eax, DWORD PTR [eax+8]
	mov	DWORD PTR _src$[ebp+56], eax

; 2115 : 			src.m_vecColorVelocity = g_vecZero;

	mov	eax, DWORD PTR ?g_vecZero@@3VVector@@B
	mov	DWORD PTR _src$[ebp+60], eax
	mov	ecx, DWORD PTR ?g_vecZero@@3VVector@@B+4
	mov	DWORD PTR _src$[ebp+64], ecx
	mov	edx, DWORD PTR ?g_vecZero@@3VVector@@B+8
	mov	DWORD PTR _src$[ebp+68], edx

; 2116 : 			src.m_flAlpha = Alpha;

	movss	xmm0, DWORD PTR _Alpha$[ebp]
	movss	DWORD PTR _src$[ebp+72], xmm0

; 2117 : 			src.m_flStartAlpha = 0.0f;

	xorps	xmm0, xmm0
	movss	DWORD PTR _src$[ebp+112], xmm0

; 2118 : 			src.m_flAlphaVelocity = -0.5 * Alpha;

	cvtss2sd xmm0, DWORD PTR _Alpha$[ebp]
	mulsd	xmm0, QWORD PTR __real@bfe0000000000000
	cvtsd2ss xmm0, xmm0
	movss	DWORD PTR _src$[ebp+76], xmm0

; 2119 : 			src.m_flRadius = Scale;

	movss	xmm0, DWORD PTR _Scale$[ebp]
	movss	DWORD PTR _src$[ebp+80], xmm0

; 2120 : 			src.m_flMinScale = Scale * 0.25;

	cvtss2sd xmm0, DWORD PTR _Scale$[ebp]
	mulsd	xmm0, QWORD PTR __real@3fd0000000000000
	cvtsd2ss xmm0, xmm0
	movss	DWORD PTR _src$[ebp+128], xmm0

; 2121 : 			src.m_flMaxScale = Scale * 2.0;

	cvtss2sd xmm0, DWORD PTR _Scale$[ebp]
	mulsd	xmm0, QWORD PTR __real@4000000000000000
	cvtsd2ss xmm0, xmm0
	movss	DWORD PTR _src$[ebp+132], xmm0

; 2122 : 			src.m_flRadiusVelocity = 0.0f;

	xorps	xmm0, xmm0
	movss	DWORD PTR _src$[ebp+84], xmm0

; 2123 : 			src.m_flLength = 1;

	movss	xmm0, DWORD PTR __real@3f800000
	movss	DWORD PTR _src$[ebp+88], xmm0

; 2124 : 			src.m_flLengthVelocity = 0;

	xorps	xmm0, xmm0
	movss	DWORD PTR _src$[ebp+92], xmm0

; 2125 : 			src.m_flRotation = RANDOM_LONG( 1, 360 );

	push	360					; 00000168H
	push	1
	call	DWORD PTR ?gEngfuncs@@3Ucl_enginefuncs_s@@A+272
	add	esp, 8
	cvtsi2ss xmm0, eax
	movss	DWORD PTR _src$[ebp+96], xmm0

; 2126 : 			src.m_flRotationVelocity = 0;

	xorps	xmm0, xmm0
	movss	DWORD PTR _src$[ebp+100], xmm0

; 2127 : 			src.m_flDistance = Distance;

	cvtsi2ss xmm0, DWORD PTR _Distance$[ebp]
	movss	DWORD PTR _src$[ebp+108], xmm0

; 2128 : 			src.ParticleType = TYPE_DUSTMOTE;

	mov	DWORD PTR _src$[ebp+144], 1

; 2129 : 			src.EntIndex = EntIndex;

	mov	eax, DWORD PTR _EntIndex$[ebp]
	mov	DWORD PTR _src$[ebp+168], eax

; 2130 : 
; 2131 : 			if( !AddParticle( &src, Particle, flags ) )

	mov	eax, DWORD PTR _flags$[ebp]
	push	eax
	mov	ecx, DWORD PTR _Particle$[ebp]
	push	ecx
	lea	edx, DWORD PTR _src$[ebp]
	push	edx
	mov	ecx, DWORD PTR _this$[ebp]
	call	?AddParticle@CQuakePartSystem@@QAE_NPAVCQuakePart@@HH@Z ; CQuakePartSystem::AddParticle
	movzx	eax, al
	test	eax, eax
	jne	SHORT $LN21@SmokeVolum

; 2132 : 				break;

	jmp	SHORT $LN8@SmokeVolum
$LN21@SmokeVolum:

; 2133 : 		}

	jmp	$LN7@SmokeVolum
$LN8@SmokeVolum:
$LN1@SmokeVolum:

; 2134 : 	}
; 2135 : }

	pop	edi
	pop	esi
	pop	ebx
	mov	esp, ebp
	pop	ebp
	ret	24					; 00000018H
?SmokeVolume@CQuakePartSystem@@QAEXHHABVVector@@MMH@Z ENDP ; CQuakePartSystem::SmokeVolume
_TEXT	ENDS
; Function compile flags: /Odtp /ZI
; File d:\!diffusion 2020\source code 2022\client-server\client\render\r_quakeparticle.cpp
;	COMDAT ?WaterSplashParticle@CQuakePartSystem@@QAEXHABVVector@@@Z
_TEXT	SEGMENT
tv291 = -296						; size = 4
$T1 = -292						; size = 12
$T2 = -280						; size = 12
$T3 = -268						; size = 12
$T4 = -256						; size = 12
_flags$ = -180						; size = 4
_src$ = -176						; size = 172
_this$ = -4						; size = 4
_EntIndex$ = 8						; size = 4
_pos$ = 12						; size = 4
?WaterSplashParticle@CQuakePartSystem@@QAEXHABVVector@@@Z PROC ; CQuakePartSystem::WaterSplashParticle, COMDAT
; _this$ = ecx

; 2295 : {

	push	ebp
	mov	ebp, esp
	sub	esp, 296				; 00000128H
	push	ebx
	push	esi
	push	edi
	mov	DWORD PTR _this$[ebp], ecx

; 2296 : 	CQuakePart src;

	lea	ecx, DWORD PTR _src$[ebp]
	call	??0CQuakePart@@QAE@XZ

; 2297 : 
; 2298 : 	if( !g_fRenderInitialized )

	cmp	DWORD PTR ?g_fRenderInitialized@@3HA, 0	; g_fRenderInitialized
	jne	SHORT $LN2@WaterSplas

; 2299 : 		return;

	jmp	$LN1@WaterSplas
$LN2@WaterSplas:

; 2300 : 
; 2301 : 	// water ring
; 2302 : 	int flags = FPART_VERTEXLIGHT | FPART_FLOATING_ORIENTED | FPART_AFLOAT;

	mov	DWORD PTR _flags$[ebp], 12292		; 00003004H

; 2303 : 
; 2304 : 	src.m_vecOrigin = pos;

	mov	eax, DWORD PTR _pos$[ebp]
	mov	ecx, DWORD PTR [eax]
	mov	DWORD PTR _src$[ebp], ecx
	mov	edx, DWORD PTR [eax+4]
	mov	DWORD PTR _src$[ebp+4], edx
	mov	eax, DWORD PTR [eax+8]
	mov	DWORD PTR _src$[ebp+8], eax

; 2305 : 	src.m_vecVelocity = Vector( 0, 0, 0 );

	push	ecx
	xorps	xmm0, xmm0
	movss	DWORD PTR [esp], xmm0
	push	ecx
	xorps	xmm0, xmm0
	movss	DWORD PTR [esp], xmm0
	push	ecx
	xorps	xmm0, xmm0
	movss	DWORD PTR [esp], xmm0
	lea	ecx, DWORD PTR $T4[ebp]
	call	??0Vector@@QAE@MMM@Z			; Vector::Vector
	mov	ecx, DWORD PTR [eax]
	mov	DWORD PTR _src$[ebp+24], ecx
	mov	edx, DWORD PTR [eax+4]
	mov	DWORD PTR _src$[ebp+28], edx
	mov	eax, DWORD PTR [eax+8]
	mov	DWORD PTR _src$[ebp+32], eax

; 2306 : 	src.m_vecAccel = Vector( 0, 0, 0 );

	push	ecx
	xorps	xmm0, xmm0
	movss	DWORD PTR [esp], xmm0
	push	ecx
	xorps	xmm0, xmm0
	movss	DWORD PTR [esp], xmm0
	push	ecx
	xorps	xmm0, xmm0
	movss	DWORD PTR [esp], xmm0
	lea	ecx, DWORD PTR $T3[ebp]
	call	??0Vector@@QAE@MMM@Z			; Vector::Vector
	mov	ecx, DWORD PTR [eax]
	mov	DWORD PTR _src$[ebp+36], ecx
	mov	edx, DWORD PTR [eax+4]
	mov	DWORD PTR _src$[ebp+40], edx
	mov	eax, DWORD PTR [eax+8]
	mov	DWORD PTR _src$[ebp+44], eax

; 2307 : 	src.m_vecColor = Vector( 1, 1, 1 );

	push	ecx
	movss	xmm0, DWORD PTR __real@3f800000
	movss	DWORD PTR [esp], xmm0
	push	ecx
	movss	xmm0, DWORD PTR __real@3f800000
	movss	DWORD PTR [esp], xmm0
	push	ecx
	movss	xmm0, DWORD PTR __real@3f800000
	movss	DWORD PTR [esp], xmm0
	lea	ecx, DWORD PTR $T2[ebp]
	call	??0Vector@@QAE@MMM@Z			; Vector::Vector
	mov	ecx, DWORD PTR [eax]
	mov	DWORD PTR _src$[ebp+48], ecx
	mov	edx, DWORD PTR [eax+4]
	mov	DWORD PTR _src$[ebp+52], edx
	mov	eax, DWORD PTR [eax+8]
	mov	DWORD PTR _src$[ebp+56], eax

; 2308 : 	src.m_vecColorVelocity = Vector( 0, 0, 0 );

	push	ecx
	xorps	xmm0, xmm0
	movss	DWORD PTR [esp], xmm0
	push	ecx
	xorps	xmm0, xmm0
	movss	DWORD PTR [esp], xmm0
	push	ecx
	xorps	xmm0, xmm0
	movss	DWORD PTR [esp], xmm0
	lea	ecx, DWORD PTR $T1[ebp]
	call	??0Vector@@QAE@MMM@Z			; Vector::Vector
	mov	ecx, DWORD PTR [eax]
	mov	DWORD PTR _src$[ebp+60], ecx
	mov	edx, DWORD PTR [eax+4]
	mov	DWORD PTR _src$[ebp+64], edx
	mov	eax, DWORD PTR [eax+8]
	mov	DWORD PTR _src$[ebp+68], eax

; 2309 : 	src.m_flAlpha = 1.0;

	movss	xmm0, DWORD PTR __real@3f800000
	movss	DWORD PTR _src$[ebp+72], xmm0

; 2310 : 	src.m_flStartAlpha = 0.0f;

	xorps	xmm0, xmm0
	movss	DWORD PTR _src$[ebp+112], xmm0

; 2311 : 	src.m_flAlphaVelocity = -0.75;

	movss	xmm0, DWORD PTR __real@bf400000
	movss	DWORD PTR _src$[ebp+76], xmm0

; 2312 : 	src.m_flRadius = RANDOM_FLOAT(10,20);

	push	ecx
	movss	xmm0, DWORD PTR __real@41a00000
	movss	DWORD PTR [esp], xmm0
	push	ecx
	movss	xmm0, DWORD PTR __real@41200000
	movss	DWORD PTR [esp], xmm0
	call	DWORD PTR ?gEngfuncs@@3Ucl_enginefuncs_s@@A+268
	add	esp, 8
	fstp	DWORD PTR _src$[ebp+80]

; 2313 : 	src.m_flRadiusVelocity = 25 + RANDOM_FLOAT( 0, 10 );

	push	ecx
	movss	xmm0, DWORD PTR __real@41200000
	movss	DWORD PTR [esp], xmm0
	push	ecx
	xorps	xmm0, xmm0
	movss	DWORD PTR [esp], xmm0
	call	DWORD PTR ?gEngfuncs@@3Ucl_enginefuncs_s@@A+268
	add	esp, 8
	fstp	DWORD PTR tv291[ebp]
	movss	xmm0, DWORD PTR tv291[ebp]
	addss	xmm0, DWORD PTR __real@41c80000
	movss	DWORD PTR _src$[ebp+84], xmm0

; 2314 : 	src.m_flLength = 1;

	movss	xmm0, DWORD PTR __real@3f800000
	movss	DWORD PTR _src$[ebp+88], xmm0

; 2315 : 	src.m_flLengthVelocity = 0;

	xorps	xmm0, xmm0
	movss	DWORD PTR _src$[ebp+92], xmm0

; 2316 : 	src.m_flRotation = RANDOM_LONG( 0, 359 );

	push	359					; 00000167H
	push	0
	call	DWORD PTR ?gEngfuncs@@3Ucl_enginefuncs_s@@A+272
	add	esp, 8
	cvtsi2ss xmm0, eax
	movss	DWORD PTR _src$[ebp+96], xmm0

; 2317 : 	src.m_flRotationVelocity = RANDOM_FLOAT(-25.0,25.0);

	push	ecx
	movss	xmm0, DWORD PTR __real@41c80000
	movss	DWORD PTR [esp], xmm0
	push	ecx
	movss	xmm0, DWORD PTR __real@c1c80000
	movss	DWORD PTR [esp], xmm0
	call	DWORD PTR ?gEngfuncs@@3Ucl_enginefuncs_s@@A+268
	add	esp, 8
	fstp	DWORD PTR _src$[ebp+100]

; 2318 : 	src.m_flDistance = 0;

	xorps	xmm0, xmm0
	movss	DWORD PTR _src$[ebp+108], xmm0

; 2319 : 	src.ParticleType = TYPE_WATERSPLASH;

	mov	DWORD PTR _src$[ebp+144], 5

; 2320 : 	src.EntIndex = EntIndex;

	mov	eax, DWORD PTR _EntIndex$[ebp]
	mov	DWORD PTR _src$[ebp+168], eax

; 2321 : 
; 2322 : 	AddParticle( &src, m_hWaterSplash, flags );

	mov	eax, DWORD PTR _flags$[ebp]
	push	eax
	mov	ecx, DWORD PTR _this$[ebp]
	mov	edx, DWORD PTR [ecx+2911256]
	push	edx
	lea	eax, DWORD PTR _src$[ebp]
	push	eax
	mov	ecx, DWORD PTR _this$[ebp]
	call	?AddParticle@CQuakePartSystem@@QAE_NPAVCQuakePart@@HH@Z ; CQuakePartSystem::AddParticle
$LN1@WaterSplas:

; 2323 : }

	pop	edi
	pop	esi
	pop	ebx
	mov	esp, ebp
	pop	ebp
	ret	8
?WaterSplashParticle@CQuakePartSystem@@QAEXHABVVector@@@Z ENDP ; CQuakePartSystem::WaterSplashParticle
_TEXT	ENDS
; Function compile flags: /Odtp /ZI
; File d:\!diffusion 2020\source code 2022\client-server\client\render\r_quakeparticle.cpp
;	COMDAT ?GunSmoke@CQuakePartSystem@@QAEXHABVVector@@V2@H@Z
_TEXT	SEGMENT
tv378 = -276						; size = 4
tv361 = -276						; size = 4
tv344 = -276						; size = 4
tv440 = -272						; size = 4
tv438 = -272						; size = 4
tv436 = -272						; size = 4
tv422 = -268						; size = 4
tv369 = -268						; size = 4
tv352 = -268						; size = 4
tv335 = -268						; size = 4
tv325 = -268						; size = 4
tv315 = -268						; size = 4
tv305 = -268						; size = 4
tv76 = -268						; size = 4
tv70 = -268						; size = 4
$T1 = -264						; size = 12
_i$2 = -188						; size = 4
_flags$ = -184						; size = 4
_count$ = -180						; size = 4
_src$ = -176						; size = 172
_this$ = -4						; size = 4
_EntIndex$ = 8						; size = 4
_pos$ = 12						; size = 4
_vel$ = 16						; size = 12
_WeaponID$ = 28						; size = 4
?GunSmoke@CQuakePartSystem@@QAEXHABVVector@@V2@H@Z PROC	; CQuakePartSystem::GunSmoke, COMDAT
; _this$ = ecx

; 2138 : {

	push	ebp
	mov	ebp, esp
	sub	esp, 276				; 00000114H
	push	ebx
	push	esi
	push	edi
	mov	DWORD PTR _this$[ebp], ecx

; 2139 : 	CQuakePart src;

	lea	ecx, DWORD PTR _src$[ebp]
	call	??0CQuakePart@@QAE@XZ

; 2140 : 
; 2141 : 	// defaults
; 2142 : 	int count = 2;

	mov	DWORD PTR _count$[ebp], 2

; 2143 : 
; 2144 : 	if( !g_fRenderInitialized )

	cmp	DWORD PTR ?g_fRenderInitialized@@3HA, 0	; g_fRenderInitialized
	jne	SHORT $LN9@GunSmoke

; 2145 : 		return;

	jmp	$LN1@GunSmoke
$LN9@GunSmoke:

; 2146 : 
; 2147 : 	if( !vel )

	lea	ecx, DWORD PTR _vel$[ebp]
	call	??BVector@@QAEPAMXZ			; Vector::operator float *
	test	eax, eax
	jne	SHORT $LN10@GunSmoke

; 2148 : 		vel = g_vecZero;

	mov	eax, DWORD PTR ?g_vecZero@@3VVector@@B
	mov	DWORD PTR _vel$[ebp], eax
	mov	ecx, DWORD PTR ?g_vecZero@@3VVector@@B+4
	mov	DWORD PTR _vel$[ebp+4], ecx
	mov	edx, DWORD PTR ?g_vecZero@@3VVector@@B+8
	mov	DWORD PTR _vel$[ebp+8], edx
$LN10@GunSmoke:

; 2149 : 
; 2150 : 	vel *= 0.25;

	push	ecx
	movss	xmm0, DWORD PTR __real@3e800000
	movss	DWORD PTR [esp], xmm0
	lea	ecx, DWORD PTR _vel$[ebp]
	call	??XVector@@QAEAAV0@M@Z			; Vector::operator*=

; 2151 : 
; 2152 : 	switch( WeaponID )

	mov	eax, DWORD PTR _WeaponID$[ebp]
	mov	DWORD PTR tv70[ebp], eax
	mov	ecx, DWORD PTR tv70[ebp]
	sub	ecx, 7
	mov	DWORD PTR tv70[ebp], ecx
	cmp	DWORD PTR tv70[ebp], 15			; 0000000fH
	ja	SHORT $LN2@GunSmoke
	mov	edx, DWORD PTR tv70[ebp]
	movzx	eax, BYTE PTR $LN18@GunSmoke[edx]
	jmp	DWORD PTR $LN20@GunSmoke[eax*4]
$LN11@GunSmoke:

; 2153 : 	{
; 2154 : 	case WEAPON_SNIPER:
; 2155 : 	case WEAPON_GAUSS:
; 2156 : 		count = 3;

	mov	DWORD PTR _count$[ebp], 3

; 2157 : 	break;

	jmp	SHORT $LN2@GunSmoke
$LN12@GunSmoke:

; 2158 : 	case WEAPON_SHOTGUN:
; 2159 : 	case WEAPON_SHOTGUN_XM:
; 2160 : 		count = 5;

	mov	DWORD PTR _count$[ebp], 5
$LN2@GunSmoke:

; 2161 : 	break;
; 2162 : 	}
; 2163 : 
; 2164 : 	// smoke
; 2165 : 	int flags = FPART_VERTEXLIGHT | FPART_NOTWATER;

	mov	DWORD PTR _flags$[ebp], 132		; 00000084H

; 2166 : 
; 2167 : 	for( int i = 0; i < count; i++ )

	mov	DWORD PTR _i$2[ebp], 0
	jmp	SHORT $LN6@GunSmoke
$LN4@GunSmoke:
	mov	eax, DWORD PTR _i$2[ebp]
	add	eax, 1
	mov	DWORD PTR _i$2[ebp], eax
$LN6@GunSmoke:
	mov	eax, DWORD PTR _i$2[ebp]
	cmp	eax, DWORD PTR _count$[ebp]
	jge	$LN5@GunSmoke

; 2168 : 	{
; 2169 : 		switch( WeaponID )

	mov	eax, DWORD PTR _WeaponID$[ebp]
	mov	DWORD PTR tv76[ebp], eax
	mov	ecx, DWORD PTR tv76[ebp]
	sub	ecx, 7
	mov	DWORD PTR tv76[ebp], ecx
	cmp	DWORD PTR tv76[ebp], 15			; 0000000fH
	ja	SHORT $LN15@GunSmoke
	mov	edx, DWORD PTR tv76[ebp]
	movzx	eax, BYTE PTR $LN19@GunSmoke[edx]
	jmp	DWORD PTR $LN21@GunSmoke[eax*4]
$LN13@GunSmoke:

; 2170 : 		{
; 2171 : 		case WEAPON_SNIPER:
; 2172 : 		case WEAPON_GAUSS:
; 2173 : 			src.m_flRadius = RANDOM_FLOAT( 20, 30 );

	push	ecx
	movss	xmm0, DWORD PTR __real@41f00000
	movss	DWORD PTR [esp], xmm0
	push	ecx
	movss	xmm0, DWORD PTR __real@41a00000
	movss	DWORD PTR [esp], xmm0
	call	DWORD PTR ?gEngfuncs@@3Ucl_enginefuncs_s@@A+268
	add	esp, 8
	fstp	DWORD PTR _src$[ebp+80]

; 2174 : 		break;

	jmp	SHORT $LN7@GunSmoke
$LN14@GunSmoke:

; 2175 : 		case WEAPON_SHOTGUN:
; 2176 : 		case WEAPON_SHOTGUN_XM:
; 2177 : 			src.m_flRadius = RANDOM_FLOAT( 5, 10 );

	push	ecx
	movss	xmm0, DWORD PTR __real@41200000
	movss	DWORD PTR [esp], xmm0
	push	ecx
	movss	xmm0, DWORD PTR __real@40a00000
	movss	DWORD PTR [esp], xmm0
	call	DWORD PTR ?gEngfuncs@@3Ucl_enginefuncs_s@@A+268
	add	esp, 8
	fstp	DWORD PTR _src$[ebp+80]

; 2178 : 		break;

	jmp	SHORT $LN7@GunSmoke
$LN15@GunSmoke:

; 2179 : 		default:
; 2180 : 			src.m_flRadius = RANDOM_FLOAT( 3.5f, 6.5f ); // scale

	push	ecx
	movss	xmm0, DWORD PTR __real@40d00000
	movss	DWORD PTR [esp], xmm0
	push	ecx
	movss	xmm0, DWORD PTR __real@40600000
	movss	DWORD PTR [esp], xmm0
	call	DWORD PTR ?gEngfuncs@@3Ucl_enginefuncs_s@@A+268
	add	esp, 8
	fstp	DWORD PTR _src$[ebp+80]
$LN7@GunSmoke:

; 2181 : 		break;
; 2182 : 		}
; 2183 : 		
; 2184 : 		src.m_vecOrigin.x = pos.x + RANDOM_FLOAT( -0.1f, 0.1f );

	push	ecx
	movss	xmm0, DWORD PTR __real@3dcccccd
	movss	DWORD PTR [esp], xmm0
	push	ecx
	movss	xmm0, DWORD PTR __real@bdcccccd
	movss	DWORD PTR [esp], xmm0
	call	DWORD PTR ?gEngfuncs@@3Ucl_enginefuncs_s@@A+268
	add	esp, 8
	fstp	DWORD PTR tv305[ebp]
	mov	eax, DWORD PTR _pos$[ebp]
	movss	xmm0, DWORD PTR tv305[ebp]
	addss	xmm0, DWORD PTR [eax]
	movss	DWORD PTR _src$[ebp], xmm0

; 2185 : 		src.m_vecOrigin.y = pos.y + RANDOM_FLOAT( -0.1f, 0.1f );

	push	ecx
	movss	xmm0, DWORD PTR __real@3dcccccd
	movss	DWORD PTR [esp], xmm0
	push	ecx
	movss	xmm0, DWORD PTR __real@bdcccccd
	movss	DWORD PTR [esp], xmm0
	call	DWORD PTR ?gEngfuncs@@3Ucl_enginefuncs_s@@A+268
	add	esp, 8
	fstp	DWORD PTR tv315[ebp]
	mov	eax, DWORD PTR _pos$[ebp]
	movss	xmm0, DWORD PTR tv315[ebp]
	addss	xmm0, DWORD PTR [eax+4]
	movss	DWORD PTR _src$[ebp+4], xmm0

; 2186 : 		src.m_vecOrigin.z = pos.z + RANDOM_FLOAT( -0.1f, 0.1f );

	push	ecx
	movss	xmm0, DWORD PTR __real@3dcccccd
	movss	DWORD PTR [esp], xmm0
	push	ecx
	movss	xmm0, DWORD PTR __real@bdcccccd
	movss	DWORD PTR [esp], xmm0
	call	DWORD PTR ?gEngfuncs@@3Ucl_enginefuncs_s@@A+268
	add	esp, 8
	fstp	DWORD PTR tv325[ebp]
	mov	eax, DWORD PTR _pos$[ebp]
	movss	xmm0, DWORD PTR tv325[ebp]
	addss	xmm0, DWORD PTR [eax+8]
	movss	DWORD PTR _src$[ebp+8], xmm0

; 2187 : 		src.m_vecVelocity.x = vel.x * RANDOM_FLOAT( 0.85f, 1.15f ) + RANDOM_FLOAT( -5.1f, 5.1f );

	push	ecx
	movss	xmm0, DWORD PTR __real@3f933333
	movss	DWORD PTR [esp], xmm0
	push	ecx
	movss	xmm0, DWORD PTR __real@3f59999a
	movss	DWORD PTR [esp], xmm0
	call	DWORD PTR ?gEngfuncs@@3Ucl_enginefuncs_s@@A+268
	add	esp, 8
	fstp	DWORD PTR tv335[ebp]
	movss	xmm0, DWORD PTR tv335[ebp]
	mulss	xmm0, DWORD PTR _vel$[ebp]
	push	ecx
	movss	xmm1, DWORD PTR __real@40a33333
	movss	DWORD PTR [esp], xmm1
	push	ecx
	movss	xmm1, DWORD PTR __real@c0a33333
	movss	DWORD PTR [esp], xmm1
	movss	DWORD PTR tv436[ebp], xmm0
	call	DWORD PTR ?gEngfuncs@@3Ucl_enginefuncs_s@@A+268
	add	esp, 8
	fstp	DWORD PTR tv344[ebp]
	movss	xmm0, DWORD PTR tv436[ebp]
	addss	xmm0, DWORD PTR tv344[ebp]
	movss	DWORD PTR _src$[ebp+24], xmm0

; 2188 : 		src.m_vecVelocity.y = vel.y * RANDOM_FLOAT( 0.85f, 1.15f ) + RANDOM_FLOAT( -5.1f, 5.1f );

	push	ecx
	movss	xmm0, DWORD PTR __real@3f933333
	movss	DWORD PTR [esp], xmm0
	push	ecx
	movss	xmm0, DWORD PTR __real@3f59999a
	movss	DWORD PTR [esp], xmm0
	call	DWORD PTR ?gEngfuncs@@3Ucl_enginefuncs_s@@A+268
	add	esp, 8
	fstp	DWORD PTR tv352[ebp]
	movss	xmm0, DWORD PTR tv352[ebp]
	mulss	xmm0, DWORD PTR _vel$[ebp+4]
	push	ecx
	movss	xmm1, DWORD PTR __real@40a33333
	movss	DWORD PTR [esp], xmm1
	push	ecx
	movss	xmm1, DWORD PTR __real@c0a33333
	movss	DWORD PTR [esp], xmm1
	movss	DWORD PTR tv438[ebp], xmm0
	call	DWORD PTR ?gEngfuncs@@3Ucl_enginefuncs_s@@A+268
	add	esp, 8
	fstp	DWORD PTR tv361[ebp]
	movss	xmm0, DWORD PTR tv438[ebp]
	addss	xmm0, DWORD PTR tv361[ebp]
	movss	DWORD PTR _src$[ebp+28], xmm0

; 2189 : 		src.m_vecVelocity.z = vel.z * RANDOM_FLOAT( 0.85f, 1.15f ) + RANDOM_FLOAT( -5.1f, 5.1f );

	push	ecx
	movss	xmm0, DWORD PTR __real@3f933333
	movss	DWORD PTR [esp], xmm0
	push	ecx
	movss	xmm0, DWORD PTR __real@3f59999a
	movss	DWORD PTR [esp], xmm0
	call	DWORD PTR ?gEngfuncs@@3Ucl_enginefuncs_s@@A+268
	add	esp, 8
	fstp	DWORD PTR tv369[ebp]
	movss	xmm0, DWORD PTR tv369[ebp]
	mulss	xmm0, DWORD PTR _vel$[ebp+8]
	push	ecx
	movss	xmm1, DWORD PTR __real@40a33333
	movss	DWORD PTR [esp], xmm1
	push	ecx
	movss	xmm1, DWORD PTR __real@c0a33333
	movss	DWORD PTR [esp], xmm1
	movss	DWORD PTR tv440[ebp], xmm0
	call	DWORD PTR ?gEngfuncs@@3Ucl_enginefuncs_s@@A+268
	add	esp, 8
	fstp	DWORD PTR tv378[ebp]
	movss	xmm0, DWORD PTR tv440[ebp]
	addss	xmm0, DWORD PTR tv378[ebp]
	movss	DWORD PTR _src$[ebp+32], xmm0

; 2190 : 		src.m_vecAccel = g_vecZero;

	mov	eax, DWORD PTR ?g_vecZero@@3VVector@@B
	mov	DWORD PTR _src$[ebp+36], eax
	mov	ecx, DWORD PTR ?g_vecZero@@3VVector@@B+4
	mov	DWORD PTR _src$[ebp+40], ecx
	mov	edx, DWORD PTR ?g_vecZero@@3VVector@@B+8
	mov	DWORD PTR _src$[ebp+44], edx

; 2191 : 		src.m_vecColor = Vector( 1.0f, 1.0f, 1.0f );

	push	ecx
	movss	xmm0, DWORD PTR __real@3f800000
	movss	DWORD PTR [esp], xmm0
	push	ecx
	movss	xmm0, DWORD PTR __real@3f800000
	movss	DWORD PTR [esp], xmm0
	push	ecx
	movss	xmm0, DWORD PTR __real@3f800000
	movss	DWORD PTR [esp], xmm0
	lea	ecx, DWORD PTR $T1[ebp]
	call	??0Vector@@QAE@MMM@Z			; Vector::Vector
	mov	ecx, DWORD PTR [eax]
	mov	DWORD PTR _src$[ebp+48], ecx
	mov	edx, DWORD PTR [eax+4]
	mov	DWORD PTR _src$[ebp+52], edx
	mov	eax, DWORD PTR [eax+8]
	mov	DWORD PTR _src$[ebp+56], eax

; 2192 : 		src.m_vecColorVelocity = g_vecZero;

	mov	eax, DWORD PTR ?g_vecZero@@3VVector@@B
	mov	DWORD PTR _src$[ebp+60], eax
	mov	ecx, DWORD PTR ?g_vecZero@@3VVector@@B+4
	mov	DWORD PTR _src$[ebp+64], ecx
	mov	edx, DWORD PTR ?g_vecZero@@3VVector@@B+8
	mov	DWORD PTR _src$[ebp+68], edx

; 2193 : 		src.m_flAlpha = 0.5;

	movss	xmm0, DWORD PTR __real@3f000000
	movss	DWORD PTR _src$[ebp+72], xmm0

; 2194 : 		src.m_flStartAlpha = 0.0f;

	xorps	xmm0, xmm0
	movss	DWORD PTR _src$[ebp+112], xmm0

; 2195 : 		src.m_flAlphaVelocity = RANDOM_FLOAT( -0.2f, -0.4f );

	push	ecx
	movss	xmm0, DWORD PTR __real@becccccd
	movss	DWORD PTR [esp], xmm0
	push	ecx
	movss	xmm0, DWORD PTR __real@be4ccccd
	movss	DWORD PTR [esp], xmm0
	call	DWORD PTR ?gEngfuncs@@3Ucl_enginefuncs_s@@A+268
	add	esp, 8
	fstp	DWORD PTR _src$[ebp+76]

; 2196 : 		src.m_flDistance = 1000;

	movss	xmm0, DWORD PTR __real@447a0000
	movss	DWORD PTR _src$[ebp+108], xmm0

; 2197 : 		src.m_flRadiusVelocity = 2.0f + RANDOM_FLOAT( -0.5, 0.5 );

	push	ecx
	movss	xmm0, DWORD PTR __real@3f000000
	movss	DWORD PTR [esp], xmm0
	push	ecx
	movss	xmm0, DWORD PTR __real@bf000000
	movss	DWORD PTR [esp], xmm0
	call	DWORD PTR ?gEngfuncs@@3Ucl_enginefuncs_s@@A+268
	add	esp, 8
	fstp	DWORD PTR tv422[ebp]
	movss	xmm0, DWORD PTR tv422[ebp]
	addss	xmm0, DWORD PTR __real@40000000
	movss	DWORD PTR _src$[ebp+84], xmm0

; 2198 : 		src.m_flLength = 1;

	movss	xmm0, DWORD PTR __real@3f800000
	movss	DWORD PTR _src$[ebp+88], xmm0

; 2199 : 		src.m_flLengthVelocity = 0;

	xorps	xmm0, xmm0
	movss	DWORD PTR _src$[ebp+92], xmm0

; 2200 : 		src.m_flRotation = RANDOM_LONG( 0, 360 );

	push	360					; 00000168H
	push	0
	call	DWORD PTR ?gEngfuncs@@3Ucl_enginefuncs_s@@A+272
	add	esp, 8
	cvtsi2ss xmm0, eax
	movss	DWORD PTR _src$[ebp+96], xmm0

; 2201 : 		src.m_flRotationVelocity = RANDOM_LONG(-50,50);

	push	50					; 00000032H
	push	-50					; ffffffceH
	call	DWORD PTR ?gEngfuncs@@3Ucl_enginefuncs_s@@A+272
	add	esp, 8
	cvtsi2ss xmm0, eax
	movss	DWORD PTR _src$[ebp+100], xmm0

; 2202 : 		src.ParticleType = TYPE_SMOKE;

	mov	DWORD PTR _src$[ebp+144], 3

; 2203 : 		src.EntIndex = EntIndex;

	mov	eax, DWORD PTR _EntIndex$[ebp]
	mov	DWORD PTR _src$[ebp+168], eax

; 2204 : 
; 2205 : 		if( !AddParticle( &src, m_hSmoke, flags ))

	mov	eax, DWORD PTR _flags$[ebp]
	push	eax
	mov	ecx, DWORD PTR _this$[ebp]
	mov	edx, DWORD PTR [ecx+2911252]
	push	edx
	lea	eax, DWORD PTR _src$[ebp]
	push	eax
	mov	ecx, DWORD PTR _this$[ebp]
	call	?AddParticle@CQuakePartSystem@@QAE_NPAVCQuakePart@@HH@Z ; CQuakePartSystem::AddParticle
	movzx	ecx, al
	test	ecx, ecx
	jne	SHORT $LN16@GunSmoke

; 2206 : 			break;

	jmp	SHORT $LN5@GunSmoke
$LN16@GunSmoke:

; 2207 : 	}

	jmp	$LN4@GunSmoke
$LN5@GunSmoke:
$LN1@GunSmoke:

; 2208 : }

	pop	edi
	pop	esi
	pop	ebx
	mov	esp, ebp
	pop	ebp
	ret	24					; 00000018H
	npad	1
$LN20@GunSmoke:
	DD	$LN12@GunSmoke
	DD	$LN11@GunSmoke
	DD	$LN2@GunSmoke
$LN18@GunSmoke:
	DB	0
	DB	2
	DB	1
	DB	2
	DB	2
	DB	2
	DB	2
	DB	2
	DB	2
	DB	2
	DB	2
	DB	2
	DB	2
	DB	2
	DB	1
	DB	0
$LN21@GunSmoke:
	DD	$LN14@GunSmoke
	DD	$LN13@GunSmoke
	DD	$LN15@GunSmoke
$LN19@GunSmoke:
	DB	0
	DB	2
	DB	1
	DB	2
	DB	2
	DB	2
	DB	2
	DB	2
	DB	2
	DB	2
	DB	2
	DB	2
	DB	2
	DB	2
	DB	1
	DB	0
?GunSmoke@CQuakePartSystem@@QAEXHABVVector@@V2@H@Z ENDP	; CQuakePartSystem::GunSmoke
_TEXT	ENDS
; Function compile flags: /Odtp /ZI
; File d:\!diffusion 2020\source code 2022\client-server\client\render\r_quakeparticle.cpp
;	COMDAT ?Smoke@CQuakePartSystem@@QAEXHHABVVector@@0HMMMMV2@MM@Z
_TEXT	SEGMENT
tv298 = -252						; size = 4
tv288 = -252						; size = 4
tv278 = -252						; size = 4
tv268 = -252						; size = 4
tv258 = -252						; size = 4
tv216 = -252						; size = 4
tv66 = -252						; size = 4
_i$1 = -184						; size = 4
_flags$ = -180						; size = 4
_src$ = -176						; size = 172
_this$ = -4						; size = 4
_EntIndex$ = 8						; size = 4
_Particle$ = 12						; size = 4
_pos$ = 16						; size = 4
_vel$ = 20						; size = 4
_count$ = 24						; size = 4
_speed$ = 28						; size = 4
_scale$ = 32						; size = 4
_posRand$ = 36						; size = 4
_velRand$ = 40						; size = 4
_Color$ = 44						; size = 12
_Distance$ = 56						; size = 4
_Alpha$ = 60						; size = 4
?Smoke@CQuakePartSystem@@QAEXHHABVVector@@0HMMMMV2@MM@Z PROC ; CQuakePartSystem::Smoke, COMDAT
; _this$ = ecx

; 1973 : {

	push	ebp
	mov	ebp, esp
	sub	esp, 252				; 000000fcH
	push	ebx
	push	esi
	push	edi
	mov	DWORD PTR _this$[ebp], ecx

; 1974 : 	CQuakePart src;

	lea	ecx, DWORD PTR _src$[ebp]
	call	??0CQuakePart@@QAE@XZ

; 1975 : 
; 1976 : 	if( !g_fRenderInitialized )

	cmp	DWORD PTR ?g_fRenderInitialized@@3HA, 0	; g_fRenderInitialized
	jne	SHORT $LN7@Smoke

; 1977 : 		return;

	jmp	$LN1@Smoke
$LN7@Smoke:

; 1978 : 
; 1979 : 	// smoke
; 1980 : 	int flags = FPART_VERTEXLIGHT;

	mov	DWORD PTR _flags$[ebp], 4

; 1981 : 
; 1982 : 	switch( Particle )

	mov	eax, DWORD PTR _Particle$[ebp]
	mov	DWORD PTR tv66[ebp], eax
	cmp	DWORD PTR tv66[ebp], 1
	je	SHORT $LN9@Smoke
	cmp	DWORD PTR tv66[ebp], 2
	je	SHORT $LN10@Smoke

; 1983 : 	{
; 1984 : 	default:
; 1985 : 	case 0:
; 1986 : 		Particle = m_hSmoke;

	mov	eax, DWORD PTR _this$[ebp]
	mov	ecx, DWORD PTR [eax+2911252]
	mov	DWORD PTR _Particle$[ebp], ecx

; 1987 : 		break;

	jmp	SHORT $LN2@Smoke
$LN9@Smoke:

; 1988 : 	case 1:
; 1989 : 		Particle = m_hSand;

	mov	eax, DWORD PTR _this$[ebp]
	mov	ecx, DWORD PTR [eax+2911264]
	mov	DWORD PTR _Particle$[ebp], ecx

; 1990 : 		break;

	jmp	SHORT $LN2@Smoke
$LN10@Smoke:

; 1991 : 	case 2:
; 1992 : 		Particle = m_hDirt;

	mov	eax, DWORD PTR _this$[ebp]
	mov	ecx, DWORD PTR [eax+2911268]
	mov	DWORD PTR _Particle$[ebp], ecx
$LN2@Smoke:

; 1993 : 		break;
; 1994 : 	}
; 1995 : 
; 1996 : 	for( int i = 0; i < count; i++ )

	mov	DWORD PTR _i$1[ebp], 0
	jmp	SHORT $LN6@Smoke
$LN4@Smoke:
	mov	eax, DWORD PTR _i$1[ebp]
	add	eax, 1
	mov	DWORD PTR _i$1[ebp], eax
$LN6@Smoke:
	mov	eax, DWORD PTR _i$1[ebp]
	cmp	eax, DWORD PTR _count$[ebp]
	jge	$LN5@Smoke

; 1997 : 	{
; 1998 : 		src.m_vecOrigin.x = pos.x + RANDOM_FLOAT( -posRand, posRand );

	push	ecx
	movss	xmm0, DWORD PTR _posRand$[ebp]
	movss	DWORD PTR [esp], xmm0
	movss	xmm0, DWORD PTR _posRand$[ebp]
	xorps	xmm0, DWORD PTR __xmm@80000000800000008000000080000000
	push	ecx
	movss	DWORD PTR [esp], xmm0
	call	DWORD PTR ?gEngfuncs@@3Ucl_enginefuncs_s@@A+268
	add	esp, 8
	fstp	DWORD PTR tv216[ebp]
	mov	eax, DWORD PTR _pos$[ebp]
	movss	xmm0, DWORD PTR tv216[ebp]
	addss	xmm0, DWORD PTR [eax]
	movss	DWORD PTR _src$[ebp], xmm0

; 1999 : 		src.m_vecOrigin.y = pos.y + RANDOM_FLOAT( -posRand, posRand );

	push	ecx
	movss	xmm0, DWORD PTR _posRand$[ebp]
	movss	DWORD PTR [esp], xmm0
	movss	xmm0, DWORD PTR _posRand$[ebp]
	xorps	xmm0, DWORD PTR __xmm@80000000800000008000000080000000
	push	ecx
	movss	DWORD PTR [esp], xmm0
	call	DWORD PTR ?gEngfuncs@@3Ucl_enginefuncs_s@@A+268
	add	esp, 8
	fstp	DWORD PTR tv258[ebp]
	mov	eax, DWORD PTR _pos$[ebp]
	movss	xmm0, DWORD PTR tv258[ebp]
	addss	xmm0, DWORD PTR [eax+4]
	movss	DWORD PTR _src$[ebp+4], xmm0

; 2000 : 		src.m_vecOrigin.z = pos.z + RANDOM_FLOAT( -posRand, posRand );

	push	ecx
	movss	xmm0, DWORD PTR _posRand$[ebp]
	movss	DWORD PTR [esp], xmm0
	movss	xmm0, DWORD PTR _posRand$[ebp]
	xorps	xmm0, DWORD PTR __xmm@80000000800000008000000080000000
	push	ecx
	movss	DWORD PTR [esp], xmm0
	call	DWORD PTR ?gEngfuncs@@3Ucl_enginefuncs_s@@A+268
	add	esp, 8
	fstp	DWORD PTR tv268[ebp]
	mov	eax, DWORD PTR _pos$[ebp]
	movss	xmm0, DWORD PTR tv268[ebp]
	addss	xmm0, DWORD PTR [eax+8]
	movss	DWORD PTR _src$[ebp+8], xmm0

; 2001 : 		src.m_vecVelocity.x = vel.x + RANDOM_FLOAT( -velRand, velRand );

	push	ecx
	movss	xmm0, DWORD PTR _velRand$[ebp]
	movss	DWORD PTR [esp], xmm0
	movss	xmm0, DWORD PTR _velRand$[ebp]
	xorps	xmm0, DWORD PTR __xmm@80000000800000008000000080000000
	push	ecx
	movss	DWORD PTR [esp], xmm0
	call	DWORD PTR ?gEngfuncs@@3Ucl_enginefuncs_s@@A+268
	add	esp, 8
	fstp	DWORD PTR tv278[ebp]
	mov	eax, DWORD PTR _vel$[ebp]
	movss	xmm0, DWORD PTR tv278[ebp]
	addss	xmm0, DWORD PTR [eax]
	movss	DWORD PTR _src$[ebp+24], xmm0

; 2002 : 		src.m_vecVelocity.y = vel.y + RANDOM_FLOAT( -velRand, velRand );

	push	ecx
	movss	xmm0, DWORD PTR _velRand$[ebp]
	movss	DWORD PTR [esp], xmm0
	movss	xmm0, DWORD PTR _velRand$[ebp]
	xorps	xmm0, DWORD PTR __xmm@80000000800000008000000080000000
	push	ecx
	movss	DWORD PTR [esp], xmm0
	call	DWORD PTR ?gEngfuncs@@3Ucl_enginefuncs_s@@A+268
	add	esp, 8
	fstp	DWORD PTR tv288[ebp]
	mov	eax, DWORD PTR _vel$[ebp]
	movss	xmm0, DWORD PTR tv288[ebp]
	addss	xmm0, DWORD PTR [eax+4]
	movss	DWORD PTR _src$[ebp+28], xmm0

; 2003 : 		src.m_vecVelocity.z = vel.z + RANDOM_FLOAT( -velRand, velRand );

	push	ecx
	movss	xmm0, DWORD PTR _velRand$[ebp]
	movss	DWORD PTR [esp], xmm0
	movss	xmm0, DWORD PTR _velRand$[ebp]
	xorps	xmm0, DWORD PTR __xmm@80000000800000008000000080000000
	push	ecx
	movss	DWORD PTR [esp], xmm0
	call	DWORD PTR ?gEngfuncs@@3Ucl_enginefuncs_s@@A+268
	add	esp, 8
	fstp	DWORD PTR tv298[ebp]
	mov	eax, DWORD PTR _vel$[ebp]
	movss	xmm0, DWORD PTR tv298[ebp]
	addss	xmm0, DWORD PTR [eax+8]
	movss	DWORD PTR _src$[ebp+32], xmm0

; 2004 : 		src.m_vecAccel = g_vecZero;

	mov	eax, DWORD PTR ?g_vecZero@@3VVector@@B
	mov	DWORD PTR _src$[ebp+36], eax
	mov	ecx, DWORD PTR ?g_vecZero@@3VVector@@B+4
	mov	DWORD PTR _src$[ebp+40], ecx
	mov	edx, DWORD PTR ?g_vecZero@@3VVector@@B+8
	mov	DWORD PTR _src$[ebp+44], edx

; 2005 : 		src.m_vecColor = Color;

	mov	eax, DWORD PTR _Color$[ebp]
	mov	DWORD PTR _src$[ebp+48], eax
	mov	ecx, DWORD PTR _Color$[ebp+4]
	mov	DWORD PTR _src$[ebp+52], ecx
	mov	edx, DWORD PTR _Color$[ebp+8]
	mov	DWORD PTR _src$[ebp+56], edx

; 2006 : 		src.m_vecColorVelocity = g_vecZero;

	mov	eax, DWORD PTR ?g_vecZero@@3VVector@@B
	mov	DWORD PTR _src$[ebp+60], eax
	mov	ecx, DWORD PTR ?g_vecZero@@3VVector@@B+4
	mov	DWORD PTR _src$[ebp+64], ecx
	mov	edx, DWORD PTR ?g_vecZero@@3VVector@@B+8
	mov	DWORD PTR _src$[ebp+68], edx

; 2007 : 		src.m_flAlpha = Alpha;

	movss	xmm0, DWORD PTR _Alpha$[ebp]
	movss	DWORD PTR _src$[ebp+72], xmm0

; 2008 : 		src.m_flStartAlpha = 0.0f;

	xorps	xmm0, xmm0
	movss	DWORD PTR _src$[ebp+112], xmm0

; 2009 : 		src.m_flAlphaVelocity = -speed;

	movss	xmm0, DWORD PTR _speed$[ebp]
	xorps	xmm0, DWORD PTR __xmm@80000000800000008000000080000000
	movss	DWORD PTR _src$[ebp+76], xmm0

; 2010 : 		if( Particle == m_hDirt )

	mov	eax, DWORD PTR _this$[ebp]
	mov	ecx, DWORD PTR _Particle$[ebp]
	cmp	ecx, DWORD PTR [eax+2911268]
	jne	SHORT $LN11@Smoke

; 2011 : 			src.m_flAlphaVelocity *= 0.5f;

	movss	xmm0, DWORD PTR _src$[ebp+76]
	mulss	xmm0, DWORD PTR __real@3f000000
	movss	DWORD PTR _src$[ebp+76], xmm0
$LN11@Smoke:

; 2012 : 		src.m_flRadius = scale;

	movss	xmm0, DWORD PTR _scale$[ebp]
	movss	DWORD PTR _src$[ebp+80], xmm0

; 2013 : 		src.m_flRadiusVelocity = 7.0f;

	movss	xmm0, DWORD PTR __real@40e00000
	movss	DWORD PTR _src$[ebp+84], xmm0

; 2014 : 		src.m_flLength = 1;

	movss	xmm0, DWORD PTR __real@3f800000
	movss	DWORD PTR _src$[ebp+88], xmm0

; 2015 : 		src.m_flLengthVelocity = 0;

	xorps	xmm0, xmm0
	movss	DWORD PTR _src$[ebp+92], xmm0

; 2016 : 		src.m_flRotation = RANDOM_LONG( 0, 360 );

	push	360					; 00000168H
	push	0
	call	DWORD PTR ?gEngfuncs@@3Ucl_enginefuncs_s@@A+272
	add	esp, 8
	cvtsi2ss xmm0, eax
	movss	DWORD PTR _src$[ebp+96], xmm0

; 2017 : 		src.m_flRotationVelocity = 0;

	xorps	xmm0, xmm0
	movss	DWORD PTR _src$[ebp+100], xmm0

; 2018 : 		src.m_flDistance = Distance;

	movss	xmm0, DWORD PTR _Distance$[ebp]
	movss	DWORD PTR _src$[ebp+108], xmm0

; 2019 : 		src.EntIndex = EntIndex;

	mov	eax, DWORD PTR _EntIndex$[ebp]
	mov	DWORD PTR _src$[ebp+168], eax

; 2020 : 		if( Particle == m_hSmoke )

	mov	eax, DWORD PTR _this$[ebp]
	mov	ecx, DWORD PTR _Particle$[ebp]
	cmp	ecx, DWORD PTR [eax+2911252]
	jne	SHORT $LN12@Smoke

; 2021 : 			src.ParticleType = TYPE_SMOKE;

	mov	DWORD PTR _src$[ebp+144], 3
	jmp	SHORT $LN16@Smoke
$LN12@Smoke:

; 2022 : 		else if( Particle == m_hSand )

	mov	eax, DWORD PTR _this$[ebp]
	mov	ecx, DWORD PTR _Particle$[ebp]
	cmp	ecx, DWORD PTR [eax+2911264]
	jne	SHORT $LN14@Smoke

; 2023 : 			src.ParticleType = TYPE_SAND;

	mov	DWORD PTR _src$[ebp+144], 6
	jmp	SHORT $LN16@Smoke
$LN14@Smoke:

; 2024 : 		else if( Particle == m_hDirt )

	mov	eax, DWORD PTR _this$[ebp]
	mov	ecx, DWORD PTR _Particle$[ebp]
	cmp	ecx, DWORD PTR [eax+2911268]
	jne	SHORT $LN16@Smoke

; 2025 : 			src.ParticleType = TYPE_DIRT;

	mov	DWORD PTR _src$[ebp+144], 7
$LN16@Smoke:

; 2026 : 
; 2027 : 		if( !AddParticle( &src, Particle, flags ) )

	mov	eax, DWORD PTR _flags$[ebp]
	push	eax
	mov	ecx, DWORD PTR _Particle$[ebp]
	push	ecx
	lea	edx, DWORD PTR _src$[ebp]
	push	edx
	mov	ecx, DWORD PTR _this$[ebp]
	call	?AddParticle@CQuakePartSystem@@QAE_NPAVCQuakePart@@HH@Z ; CQuakePartSystem::AddParticle
	movzx	eax, al
	test	eax, eax
	jne	SHORT $LN17@Smoke

; 2028 : 			break;

	jmp	SHORT $LN5@Smoke
$LN17@Smoke:

; 2029 : 	}

	jmp	$LN4@Smoke
$LN5@Smoke:
$LN1@Smoke:

; 2030 : }

	pop	edi
	pop	esi
	pop	ebx
	mov	esp, ebp
	pop	ebp
	ret	56					; 00000038H
?Smoke@CQuakePartSystem@@QAEXHHABVVector@@0HMMMMV2@MM@Z ENDP ; CQuakePartSystem::Smoke
_TEXT	ENDS
; Function compile flags: /Odtp /ZI
; File d:\!diffusion 2020\source code 2022\client-server\client\render\r_quakeparticle.cpp
;	COMDAT ?SmokeParticles@CQuakePartSystem@@QAEXHABVVector@@HMM@Z
_TEXT	SEGMENT
tv310 = -296						; size = 4
tv390 = -292						; size = 4
tv375 = -288						; size = 4
tv366 = -288						; size = 4
tv302 = -288						; size = 4
tv280 = -288						; size = 4
tv270 = -288						; size = 4
tv260 = -288						; size = 4
$T1 = -284						; size = 12
$T2 = -272						; size = 12
$T3 = -260						; size = 12
_i$4 = -184						; size = 4
_flags$ = -180						; size = 4
_src$ = -176						; size = 172
_this$ = -4						; size = 4
_EntIndex$ = 8						; size = 4
_pos$ = 12						; size = 4
_count$ = 16						; size = 4
_speed$ = 20						; size = 4
_scale$ = 24						; size = 4
?SmokeParticles@CQuakePartSystem@@QAEXHABVVector@@HMM@Z PROC ; CQuakePartSystem::SmokeParticles, COMDAT
; _this$ = ecx

; 1928 : {

	push	ebp
	mov	ebp, esp
	sub	esp, 296				; 00000128H
	push	ebx
	push	esi
	push	edi
	mov	DWORD PTR _this$[ebp], ecx

; 1929 : 	CQuakePart src;

	lea	ecx, DWORD PTR _src$[ebp]
	call	??0CQuakePart@@QAE@XZ

; 1930 : 
; 1931 : 	if( !g_fRenderInitialized )

	cmp	DWORD PTR ?g_fRenderInitialized@@3HA, 0	; g_fRenderInitialized
	jne	SHORT $LN5@SmokeParti

; 1932 : 		return;

	jmp	$LN1@SmokeParti
$LN5@SmokeParti:

; 1933 : 
; 1934 : 	// smoke
; 1935 : 	int flags = FPART_VERTEXLIGHT;

	mov	DWORD PTR _flags$[ebp], 4

; 1936 : 
; 1937 : 	if( speed == 0 )

	movss	xmm0, DWORD PTR _speed$[ebp]
	ucomiss	xmm0, DWORD PTR __real@00000000
	lahf
	test	ah, 68					; 00000044H
	jp	SHORT $LN6@SmokeParti

; 1938 : 		speed = 0.15;

	movss	xmm0, DWORD PTR __real@3e19999a
	movss	DWORD PTR _speed$[ebp], xmm0
$LN6@SmokeParti:

; 1939 : 
; 1940 : 	if( scale == 0 )

	movss	xmm0, DWORD PTR _scale$[ebp]
	ucomiss	xmm0, DWORD PTR __real@00000000
	lahf
	test	ah, 68					; 00000044H
	jp	SHORT $LN7@SmokeParti

; 1941 : 		scale = 30;

	movss	xmm0, DWORD PTR __real@41f00000
	movss	DWORD PTR _scale$[ebp], xmm0
$LN7@SmokeParti:

; 1942 : 
; 1943 : 	for( int i = 0; i < count; i++ )

	mov	DWORD PTR _i$4[ebp], 0
	jmp	SHORT $LN4@SmokeParti
$LN2@SmokeParti:
	mov	eax, DWORD PTR _i$4[ebp]
	add	eax, 1
	mov	DWORD PTR _i$4[ebp], eax
$LN4@SmokeParti:
	mov	eax, DWORD PTR _i$4[ebp]
	cmp	eax, DWORD PTR _count$[ebp]
	jge	$LN3@SmokeParti

; 1944 : 	{
; 1945 : 		src.m_vecOrigin.x = pos.x + RANDOM_FLOAT( -10, 10 );

	push	ecx
	movss	xmm0, DWORD PTR __real@41200000
	movss	DWORD PTR [esp], xmm0
	push	ecx
	movss	xmm0, DWORD PTR __real@c1200000
	movss	DWORD PTR [esp], xmm0
	call	DWORD PTR ?gEngfuncs@@3Ucl_enginefuncs_s@@A+268
	add	esp, 8
	fstp	DWORD PTR tv260[ebp]
	mov	eax, DWORD PTR _pos$[ebp]
	movss	xmm0, DWORD PTR tv260[ebp]
	addss	xmm0, DWORD PTR [eax]
	movss	DWORD PTR _src$[ebp], xmm0

; 1946 : 		src.m_vecOrigin.y = pos.y + RANDOM_FLOAT( -10, 10 );

	push	ecx
	movss	xmm0, DWORD PTR __real@41200000
	movss	DWORD PTR [esp], xmm0
	push	ecx
	movss	xmm0, DWORD PTR __real@c1200000
	movss	DWORD PTR [esp], xmm0
	call	DWORD PTR ?gEngfuncs@@3Ucl_enginefuncs_s@@A+268
	add	esp, 8
	fstp	DWORD PTR tv270[ebp]
	mov	eax, DWORD PTR _pos$[ebp]
	movss	xmm0, DWORD PTR tv270[ebp]
	addss	xmm0, DWORD PTR [eax+4]
	movss	DWORD PTR _src$[ebp+4], xmm0

; 1947 : 		src.m_vecOrigin.z = pos.z + RANDOM_FLOAT( -10, 10 );

	push	ecx
	movss	xmm0, DWORD PTR __real@41200000
	movss	DWORD PTR [esp], xmm0
	push	ecx
	movss	xmm0, DWORD PTR __real@c1200000
	movss	DWORD PTR [esp], xmm0
	call	DWORD PTR ?gEngfuncs@@3Ucl_enginefuncs_s@@A+268
	add	esp, 8
	fstp	DWORD PTR tv280[ebp]
	mov	eax, DWORD PTR _pos$[ebp]
	movss	xmm0, DWORD PTR tv280[ebp]
	addss	xmm0, DWORD PTR [eax+8]
	movss	DWORD PTR _src$[ebp+8], xmm0

; 1948 : 		src.m_vecVelocity.x = RANDOM_FLOAT( -10, 10 );

	push	ecx
	movss	xmm0, DWORD PTR __real@41200000
	movss	DWORD PTR [esp], xmm0
	push	ecx
	movss	xmm0, DWORD PTR __real@c1200000
	movss	DWORD PTR [esp], xmm0
	call	DWORD PTR ?gEngfuncs@@3Ucl_enginefuncs_s@@A+268
	add	esp, 8
	fstp	DWORD PTR _src$[ebp+24]

; 1949 : 		src.m_vecVelocity.y = RANDOM_FLOAT( -10, 10 );

	push	ecx
	movss	xmm0, DWORD PTR __real@41200000
	movss	DWORD PTR [esp], xmm0
	push	ecx
	movss	xmm0, DWORD PTR __real@c1200000
	movss	DWORD PTR [esp], xmm0
	call	DWORD PTR ?gEngfuncs@@3Ucl_enginefuncs_s@@A+268
	add	esp, 8
	fstp	DWORD PTR _src$[ebp+28]

; 1950 : 		src.m_vecVelocity.z = RANDOM_FLOAT( -10, 10 ) + RANDOM_FLOAT( -5, 5 ) + 25;

	push	ecx
	movss	xmm0, DWORD PTR __real@41200000
	movss	DWORD PTR [esp], xmm0
	push	ecx
	movss	xmm0, DWORD PTR __real@c1200000
	movss	DWORD PTR [esp], xmm0
	call	DWORD PTR ?gEngfuncs@@3Ucl_enginefuncs_s@@A+268
	add	esp, 8
	fstp	DWORD PTR tv302[ebp]
	movss	xmm0, DWORD PTR tv302[ebp]
	push	ecx
	movss	xmm1, DWORD PTR __real@40a00000
	movss	DWORD PTR [esp], xmm1
	push	ecx
	movss	xmm1, DWORD PTR __real@c0a00000
	movss	DWORD PTR [esp], xmm1
	movss	DWORD PTR tv390[ebp], xmm0
	call	DWORD PTR ?gEngfuncs@@3Ucl_enginefuncs_s@@A+268
	add	esp, 8
	fstp	DWORD PTR tv310[ebp]
	movss	xmm0, DWORD PTR tv390[ebp]
	addss	xmm0, DWORD PTR tv310[ebp]
	addss	xmm0, DWORD PTR __real@41c80000
	movss	DWORD PTR _src$[ebp+32], xmm0

; 1951 : 		src.m_vecAccel = Vector( 0, 0, 0 );

	push	ecx
	xorps	xmm0, xmm0
	movss	DWORD PTR [esp], xmm0
	push	ecx
	xorps	xmm0, xmm0
	movss	DWORD PTR [esp], xmm0
	push	ecx
	xorps	xmm0, xmm0
	movss	DWORD PTR [esp], xmm0
	lea	ecx, DWORD PTR $T3[ebp]
	call	??0Vector@@QAE@MMM@Z			; Vector::Vector
	mov	ecx, DWORD PTR [eax]
	mov	DWORD PTR _src$[ebp+36], ecx
	mov	edx, DWORD PTR [eax+4]
	mov	DWORD PTR _src$[ebp+40], edx
	mov	eax, DWORD PTR [eax+8]
	mov	DWORD PTR _src$[ebp+44], eax

; 1952 : 		src.m_vecColor = Vector( 0, 0, 0 );

	push	ecx
	xorps	xmm0, xmm0
	movss	DWORD PTR [esp], xmm0
	push	ecx
	xorps	xmm0, xmm0
	movss	DWORD PTR [esp], xmm0
	push	ecx
	xorps	xmm0, xmm0
	movss	DWORD PTR [esp], xmm0
	lea	ecx, DWORD PTR $T2[ebp]
	call	??0Vector@@QAE@MMM@Z			; Vector::Vector
	mov	ecx, DWORD PTR [eax]
	mov	DWORD PTR _src$[ebp+48], ecx
	mov	edx, DWORD PTR [eax+4]
	mov	DWORD PTR _src$[ebp+52], edx
	mov	eax, DWORD PTR [eax+8]
	mov	DWORD PTR _src$[ebp+56], eax

; 1953 : 		src.m_vecColorVelocity = Vector( 0.75, 0.75, 0.75 );

	push	ecx
	movss	xmm0, DWORD PTR __real@3f400000
	movss	DWORD PTR [esp], xmm0
	push	ecx
	movss	xmm0, DWORD PTR __real@3f400000
	movss	DWORD PTR [esp], xmm0
	push	ecx
	movss	xmm0, DWORD PTR __real@3f400000
	movss	DWORD PTR [esp], xmm0
	lea	ecx, DWORD PTR $T1[ebp]
	call	??0Vector@@QAE@MMM@Z			; Vector::Vector
	mov	ecx, DWORD PTR [eax]
	mov	DWORD PTR _src$[ebp+60], ecx
	mov	edx, DWORD PTR [eax+4]
	mov	DWORD PTR _src$[ebp+64], edx
	mov	eax, DWORD PTR [eax+8]
	mov	DWORD PTR _src$[ebp+68], eax

; 1954 : 		src.m_flAlpha = 0.5;

	movss	xmm0, DWORD PTR __real@3f000000
	movss	DWORD PTR _src$[ebp+72], xmm0

; 1955 : 		src.m_flStartAlpha = 0.0f;

	xorps	xmm0, xmm0
	movss	DWORD PTR _src$[ebp+112], xmm0

; 1956 : 		src.m_flAlphaVelocity = -speed;

	movss	xmm0, DWORD PTR _speed$[ebp]
	xorps	xmm0, DWORD PTR __xmm@80000000800000008000000080000000
	movss	DWORD PTR _src$[ebp+76], xmm0

; 1957 : 		src.m_flRadius = scale + RANDOM_FLOAT( -scale/2, scale/2 );

	movss	xmm0, DWORD PTR _scale$[ebp]
	divss	xmm0, DWORD PTR __real@40000000
	push	ecx
	movss	DWORD PTR [esp], xmm0
	movss	xmm0, DWORD PTR _scale$[ebp]
	xorps	xmm0, DWORD PTR __xmm@80000000800000008000000080000000
	divss	xmm0, DWORD PTR __real@40000000
	push	ecx
	movss	DWORD PTR [esp], xmm0
	call	DWORD PTR ?gEngfuncs@@3Ucl_enginefuncs_s@@A+268
	add	esp, 8
	fstp	DWORD PTR tv366[ebp]
	movss	xmm0, DWORD PTR tv366[ebp]
	addss	xmm0, DWORD PTR _scale$[ebp]
	movss	DWORD PTR _src$[ebp+80], xmm0

; 1958 : 		src.m_flRadiusVelocity = 15 + RANDOM_FLOAT( -7.5, 7.5 );

	push	ecx
	movss	xmm0, DWORD PTR __real@40f00000
	movss	DWORD PTR [esp], xmm0
	push	ecx
	movss	xmm0, DWORD PTR __real@c0f00000
	movss	DWORD PTR [esp], xmm0
	call	DWORD PTR ?gEngfuncs@@3Ucl_enginefuncs_s@@A+268
	add	esp, 8
	fstp	DWORD PTR tv375[ebp]
	movss	xmm0, DWORD PTR tv375[ebp]
	addss	xmm0, DWORD PTR __real@41700000
	movss	DWORD PTR _src$[ebp+84], xmm0

; 1959 : 		src.m_flLength = 1;

	movss	xmm0, DWORD PTR __real@3f800000
	movss	DWORD PTR _src$[ebp+88], xmm0

; 1960 : 		src.m_flLengthVelocity = 0;

	xorps	xmm0, xmm0
	movss	DWORD PTR _src$[ebp+92], xmm0

; 1961 : 		src.m_flRotation = RANDOM_LONG( 0, 360 );

	push	360					; 00000168H
	push	0
	call	DWORD PTR ?gEngfuncs@@3Ucl_enginefuncs_s@@A+272
	add	esp, 8
	cvtsi2ss xmm0, eax
	movss	DWORD PTR _src$[ebp+96], xmm0

; 1962 : 		src.m_flRotationVelocity = 0;

	xorps	xmm0, xmm0
	movss	DWORD PTR _src$[ebp+100], xmm0

; 1963 : 		src.m_flDistance = 0;

	xorps	xmm0, xmm0
	movss	DWORD PTR _src$[ebp+108], xmm0

; 1964 : 		src.ParticleType = TYPE_SMOKE;

	mov	DWORD PTR _src$[ebp+144], 3

; 1965 : 		src.EntIndex = EntIndex;

	mov	eax, DWORD PTR _EntIndex$[ebp]
	mov	DWORD PTR _src$[ebp+168], eax

; 1966 : 
; 1967 : 		if( !AddParticle( &src, m_hSmoke, flags ))

	mov	eax, DWORD PTR _flags$[ebp]
	push	eax
	mov	ecx, DWORD PTR _this$[ebp]
	mov	edx, DWORD PTR [ecx+2911252]
	push	edx
	lea	eax, DWORD PTR _src$[ebp]
	push	eax
	mov	ecx, DWORD PTR _this$[ebp]
	call	?AddParticle@CQuakePartSystem@@QAE_NPAVCQuakePart@@HH@Z ; CQuakePartSystem::AddParticle
	movzx	ecx, al
	test	ecx, ecx
	jne	SHORT $LN8@SmokeParti

; 1968 : 			break;

	jmp	SHORT $LN3@SmokeParti
$LN8@SmokeParti:

; 1969 : 	}

	jmp	$LN2@SmokeParti
$LN3@SmokeParti:
$LN1@SmokeParti:

; 1970 : }

	pop	edi
	pop	esi
	pop	ebx
	mov	esp, ebp
	pop	ebp
	ret	20					; 00000014H
?SmokeParticles@CQuakePartSystem@@QAEXHABVVector@@HMM@Z ENDP ; CQuakePartSystem::SmokeParticles
_TEXT	ENDS
; Function compile flags: /Odtp /ZI
; File d:\!diffusion 2020\source code 2022\client-server\client\render\r_quakeparticle.cpp
;	COMDAT ?RicochetSparks@CQuakePartSystem@@QAEXHABVVector@@M@Z
_TEXT	SEGMENT
tv361 = -276						; size = 4
tv352 = -276						; size = 4
tv342 = -276						; size = 4
tv300 = -276						; size = 4
tv271 = -276						; size = 4
tv260 = -276						; size = 4
tv217 = -276						; size = 4
$T1 = -272						; size = 12
$T2 = -260						; size = 12
_i$3 = -184						; size = 4
_flags$ = -180						; size = 4
_src$ = -176						; size = 172
_this$ = -4						; size = 4
_EntIndex$ = 8						; size = 4
_org$ = 12						; size = 4
_scale$ = 16						; size = 4
?RicochetSparks@CQuakePartSystem@@QAEXHABVVector@@M@Z PROC ; CQuakePartSystem::RicochetSparks, COMDAT
; _this$ = ecx

; 1887 : {

	push	ebp
	mov	ebp, esp
	sub	esp, 276				; 00000114H
	push	ebx
	push	esi
	push	edi
	mov	DWORD PTR _this$[ebp], ecx

; 1888 : 	CQuakePart src;

	lea	ecx, DWORD PTR _src$[ebp]
	call	??0CQuakePart@@QAE@XZ

; 1889 : 
; 1890 : 	if( !g_fRenderInitialized )

	cmp	DWORD PTR ?g_fRenderInitialized@@3HA, 0	; g_fRenderInitialized
	jne	SHORT $LN5@RicochetSp

; 1891 : 		return;

	jmp	$LN1@RicochetSp
$LN5@RicochetSp:

; 1892 : 
; 1893 : 	// sparks
; 1894 : 	int flags = (FPART_STRETCH|FPART_BOUNCE|FPART_FRICTION);

	mov	DWORD PTR _flags$[ebp], 11		; 0000000bH

; 1895 : 
; 1896 : 	for( int i = 0; i < 16; i++ )

	mov	DWORD PTR _i$3[ebp], 0
	jmp	SHORT $LN4@RicochetSp
$LN2@RicochetSp:
	mov	eax, DWORD PTR _i$3[ebp]
	add	eax, 1
	mov	DWORD PTR _i$3[ebp], eax
$LN4@RicochetSp:
	cmp	DWORD PTR _i$3[ebp], 16			; 00000010H
	jge	$LN3@RicochetSp

; 1897 : 	{
; 1898 : 		src.m_vecOrigin.x = org[0] + RANDOM_FLOAT( -1, 1 );

	mov	ecx, DWORD PTR _org$[ebp]
	call	??BVector@@QBEPBMXZ			; Vector::operator float const *
	mov	esi, eax
	mov	eax, 4
	imul	edi, eax, 0
	push	ecx
	movss	xmm0, DWORD PTR __real@3f800000
	movss	DWORD PTR [esp], xmm0
	push	ecx
	movss	xmm0, DWORD PTR __real@bf800000
	movss	DWORD PTR [esp], xmm0
	call	DWORD PTR ?gEngfuncs@@3Ucl_enginefuncs_s@@A+268
	add	esp, 8
	fstp	DWORD PTR tv217[ebp]
	movss	xmm0, DWORD PTR tv217[ebp]
	addss	xmm0, DWORD PTR [esi+edi]
	movss	DWORD PTR _src$[ebp], xmm0

; 1899 : 		src.m_vecOrigin.y = org[1] + RANDOM_FLOAT( -1, 1 );

	mov	ecx, DWORD PTR _org$[ebp]
	call	??BVector@@QBEPBMXZ			; Vector::operator float const *
	mov	esi, eax
	mov	edi, 4
	shl	edi, 0
	push	ecx
	movss	xmm0, DWORD PTR __real@3f800000
	movss	DWORD PTR [esp], xmm0
	push	ecx
	movss	xmm0, DWORD PTR __real@bf800000
	movss	DWORD PTR [esp], xmm0
	call	DWORD PTR ?gEngfuncs@@3Ucl_enginefuncs_s@@A+268
	add	esp, 8
	fstp	DWORD PTR tv260[ebp]
	movss	xmm0, DWORD PTR tv260[ebp]
	addss	xmm0, DWORD PTR [esi+edi]
	movss	DWORD PTR _src$[ebp+4], xmm0

; 1900 : 		src.m_vecOrigin.z = org[2] + RANDOM_FLOAT( -1, 1 );

	mov	ecx, DWORD PTR _org$[ebp]
	call	??BVector@@QBEPBMXZ			; Vector::operator float const *
	mov	esi, eax
	mov	edi, 4
	shl	edi, 1
	push	ecx
	movss	xmm0, DWORD PTR __real@3f800000
	movss	DWORD PTR [esp], xmm0
	push	ecx
	movss	xmm0, DWORD PTR __real@bf800000
	movss	DWORD PTR [esp], xmm0
	call	DWORD PTR ?gEngfuncs@@3Ucl_enginefuncs_s@@A+268
	add	esp, 8
	fstp	DWORD PTR tv271[ebp]
	movss	xmm0, DWORD PTR tv271[ebp]
	addss	xmm0, DWORD PTR [esi+edi]
	movss	DWORD PTR _src$[ebp+8], xmm0

; 1901 : 		src.m_vecVelocity.x = RANDOM_FLOAT( -60, 60 );

	push	ecx
	movss	xmm0, DWORD PTR __real@42700000
	movss	DWORD PTR [esp], xmm0
	push	ecx
	movss	xmm0, DWORD PTR __real@c2700000
	movss	DWORD PTR [esp], xmm0
	call	DWORD PTR ?gEngfuncs@@3Ucl_enginefuncs_s@@A+268
	add	esp, 8
	fstp	DWORD PTR _src$[ebp+24]

; 1902 : 		src.m_vecVelocity.y = RANDOM_FLOAT( -60, 60 );

	push	ecx
	movss	xmm0, DWORD PTR __real@42700000
	movss	DWORD PTR [esp], xmm0
	push	ecx
	movss	xmm0, DWORD PTR __real@c2700000
	movss	DWORD PTR [esp], xmm0
	call	DWORD PTR ?gEngfuncs@@3Ucl_enginefuncs_s@@A+268
	add	esp, 8
	fstp	DWORD PTR _src$[ebp+28]

; 1903 : 		src.m_vecVelocity.z = RANDOM_FLOAT( -60, 60 );

	push	ecx
	movss	xmm0, DWORD PTR __real@42700000
	movss	DWORD PTR [esp], xmm0
	push	ecx
	movss	xmm0, DWORD PTR __real@c2700000
	movss	DWORD PTR [esp], xmm0
	call	DWORD PTR ?gEngfuncs@@3Ucl_enginefuncs_s@@A+268
	add	esp, 8
	fstp	DWORD PTR _src$[ebp+32]

; 1904 : 		src.m_vecAccel.x = src.m_vecAccel.y = 0;

	xorps	xmm0, xmm0
	movss	DWORD PTR _src$[ebp+40], xmm0
	movss	xmm0, DWORD PTR _src$[ebp+40]
	movss	DWORD PTR _src$[ebp+36], xmm0

; 1905 : 		src.m_vecAccel.z = -120 + RANDOM_FLOAT( -60, 60 );

	push	ecx
	movss	xmm0, DWORD PTR __real@42700000
	movss	DWORD PTR [esp], xmm0
	push	ecx
	movss	xmm0, DWORD PTR __real@c2700000
	movss	DWORD PTR [esp], xmm0
	call	DWORD PTR ?gEngfuncs@@3Ucl_enginefuncs_s@@A+268
	add	esp, 8
	fstp	DWORD PTR tv300[ebp]
	movss	xmm0, DWORD PTR tv300[ebp]
	addss	xmm0, DWORD PTR __real@c2f00000
	movss	DWORD PTR _src$[ebp+44], xmm0

; 1906 : 		src.m_vecColor = Vector( 1.0, 1.0f, 1.0f );

	push	ecx
	movss	xmm0, DWORD PTR __real@3f800000
	movss	DWORD PTR [esp], xmm0
	push	ecx
	movss	xmm0, DWORD PTR __real@3f800000
	movss	DWORD PTR [esp], xmm0
	push	ecx
	movss	xmm0, DWORD PTR __real@3f800000
	movss	DWORD PTR [esp], xmm0
	lea	ecx, DWORD PTR $T2[ebp]
	call	??0Vector@@QAE@MMM@Z			; Vector::Vector
	mov	ecx, DWORD PTR [eax]
	mov	DWORD PTR _src$[ebp+48], ecx
	mov	edx, DWORD PTR [eax+4]
	mov	DWORD PTR _src$[ebp+52], edx
	mov	eax, DWORD PTR [eax+8]
	mov	DWORD PTR _src$[ebp+56], eax

; 1907 : 		src.m_vecColorVelocity = Vector( 0, 0, 0 );

	push	ecx
	xorps	xmm0, xmm0
	movss	DWORD PTR [esp], xmm0
	push	ecx
	xorps	xmm0, xmm0
	movss	DWORD PTR [esp], xmm0
	push	ecx
	xorps	xmm0, xmm0
	movss	DWORD PTR [esp], xmm0
	lea	ecx, DWORD PTR $T1[ebp]
	call	??0Vector@@QAE@MMM@Z			; Vector::Vector
	mov	ecx, DWORD PTR [eax]
	mov	DWORD PTR _src$[ebp+60], ecx
	mov	edx, DWORD PTR [eax+4]
	mov	DWORD PTR _src$[ebp+64], edx
	mov	eax, DWORD PTR [eax+8]
	mov	DWORD PTR _src$[ebp+68], eax

; 1908 : 		src.m_flAlpha = 1.0;

	movss	xmm0, DWORD PTR __real@3f800000
	movss	DWORD PTR _src$[ebp+72], xmm0

; 1909 : 		src.m_flStartAlpha = 0.0f;

	xorps	xmm0, xmm0
	movss	DWORD PTR _src$[ebp+112], xmm0

; 1910 : 		src.m_flAlphaVelocity = -8.0;

	movss	xmm0, DWORD PTR __real@c1000000
	movss	DWORD PTR _src$[ebp+76], xmm0

; 1911 : 		src.m_flRadius = scale + RANDOM_FLOAT( -0.2, 0.2 );

	push	ecx
	movss	xmm0, DWORD PTR __real@3e4ccccd
	movss	DWORD PTR [esp], xmm0
	push	ecx
	movss	xmm0, DWORD PTR __real@be4ccccd
	movss	DWORD PTR [esp], xmm0
	call	DWORD PTR ?gEngfuncs@@3Ucl_enginefuncs_s@@A+268
	add	esp, 8
	fstp	DWORD PTR tv342[ebp]
	movss	xmm0, DWORD PTR tv342[ebp]
	addss	xmm0, DWORD PTR _scale$[ebp]
	movss	DWORD PTR _src$[ebp+80], xmm0

; 1912 : 		src.m_flRadiusVelocity = 0;

	xorps	xmm0, xmm0
	movss	DWORD PTR _src$[ebp+84], xmm0

; 1913 : 		src.m_flLength = scale + RANDOM_FLOAT( -0.2, 0.2 );

	push	ecx
	movss	xmm0, DWORD PTR __real@3e4ccccd
	movss	DWORD PTR [esp], xmm0
	push	ecx
	movss	xmm0, DWORD PTR __real@be4ccccd
	movss	DWORD PTR [esp], xmm0
	call	DWORD PTR ?gEngfuncs@@3Ucl_enginefuncs_s@@A+268
	add	esp, 8
	fstp	DWORD PTR tv352[ebp]
	movss	xmm0, DWORD PTR tv352[ebp]
	addss	xmm0, DWORD PTR _scale$[ebp]
	movss	DWORD PTR _src$[ebp+88], xmm0

; 1914 : 		src.m_flLengthVelocity = scale + RANDOM_FLOAT( -0.2, 0.2 );

	push	ecx
	movss	xmm0, DWORD PTR __real@3e4ccccd
	movss	DWORD PTR [esp], xmm0
	push	ecx
	movss	xmm0, DWORD PTR __real@be4ccccd
	movss	DWORD PTR [esp], xmm0
	call	DWORD PTR ?gEngfuncs@@3Ucl_enginefuncs_s@@A+268
	add	esp, 8
	fstp	DWORD PTR tv361[ebp]
	movss	xmm0, DWORD PTR tv361[ebp]
	addss	xmm0, DWORD PTR _scale$[ebp]
	movss	DWORD PTR _src$[ebp+92], xmm0

; 1915 : 		src.m_flRotation = 0;

	xorps	xmm0, xmm0
	movss	DWORD PTR _src$[ebp+96], xmm0

; 1916 : 		src.m_flRotationVelocity = 0;

	xorps	xmm0, xmm0
	movss	DWORD PTR _src$[ebp+100], xmm0

; 1917 : 		src.m_flBounceFactor = 0.2;

	movss	xmm0, DWORD PTR __real@3e4ccccd
	movss	DWORD PTR _src$[ebp+104], xmm0

; 1918 : 		src.m_flDistance = 0;

	xorps	xmm0, xmm0
	movss	DWORD PTR _src$[ebp+108], xmm0

; 1919 : 		src.ParticleType = TYPE_SPARKS;

	mov	DWORD PTR _src$[ebp+144], 2

; 1920 : 		src.EntIndex = EntIndex;

	mov	eax, DWORD PTR _EntIndex$[ebp]
	mov	DWORD PTR _src$[ebp+168], eax

; 1921 : 
; 1922 : 		if( !AddParticle( &src, m_hSparks, flags ))

	mov	eax, DWORD PTR _flags$[ebp]
	push	eax
	mov	ecx, DWORD PTR _this$[ebp]
	mov	edx, DWORD PTR [ecx+2911248]
	push	edx
	lea	eax, DWORD PTR _src$[ebp]
	push	eax
	mov	ecx, DWORD PTR _this$[ebp]
	call	?AddParticle@CQuakePartSystem@@QAE_NPAVCQuakePart@@HH@Z ; CQuakePartSystem::AddParticle
	movzx	ecx, al
	test	ecx, ecx
	jne	SHORT $LN6@RicochetSp

; 1923 : 			break;

	jmp	SHORT $LN3@RicochetSp
$LN6@RicochetSp:

; 1924 : 	}

	jmp	$LN2@RicochetSp
$LN3@RicochetSp:
$LN1@RicochetSp:

; 1925 : }

	pop	edi
	pop	esi
	pop	ebx
	mov	esp, ebp
	pop	ebp
	ret	12					; 0000000cH
?RicochetSparks@CQuakePartSystem@@QAEXHABVVector@@M@Z ENDP ; CQuakePartSystem::RicochetSparks
_TEXT	ENDS
; Function compile flags: /Odtp /ZI
; File d:\!diffusion 2020\source code 2022\client-server\client\render\r_quakeparticle.cpp
;	COMDAT ?SparkParticles@CQuakePartSystem@@QAEXHABVVector@@0@Z
_TEXT	SEGMENT
tv408 = -280						; size = 8
tv355 = -280						; size = 4
tv344 = -280						; size = 4
tv333 = -280						; size = 4
tv322 = -280						; size = 4
tv308 = -280						; size = 4
tv294 = -280						; size = 4
tv483 = -276						; size = 4
tv481 = -276						; size = 4
tv447 = -276						; size = 4
tv445 = -276						; size = 4
tv443 = -276						; size = 4
tv441 = -276						; size = 4
tv427 = -276						; size = 4
tv418 = -276						; size = 4
tv365 = -276						; size = 4
$T1 = -272						; size = 12
$T2 = -260						; size = 12
_i$3 = -184						; size = 4
_flags$ = -180						; size = 4
_src$ = -176						; size = 172
_this$ = -4						; size = 4
_EntIndex$ = 8						; size = 4
_org$ = 12						; size = 4
_dir$ = 16						; size = 4
?SparkParticles@CQuakePartSystem@@QAEXHABVVector@@0@Z PROC ; CQuakePartSystem::SparkParticles, COMDAT
; _this$ = ecx

; 1841 : {

	push	ebp
	mov	ebp, esp
	sub	esp, 280				; 00000118H
	push	ebx
	push	esi
	push	edi
	mov	DWORD PTR _this$[ebp], ecx

; 1842 : 	CQuakePart src;

	lea	ecx, DWORD PTR _src$[ebp]
	call	??0CQuakePart@@QAE@XZ

; 1843 : 
; 1844 : 	if( !g_fRenderInitialized )

	cmp	DWORD PTR ?g_fRenderInitialized@@3HA, 0	; g_fRenderInitialized
	jne	SHORT $LN5@SparkParti

; 1845 : 		return;

	jmp	$LN1@SparkParti
$LN5@SparkParti:

; 1846 : 
; 1847 : 	// sparks
; 1848 : 	int flags = (FPART_STRETCH|FPART_BOUNCE|FPART_FRICTION);

	mov	DWORD PTR _flags$[ebp], 11		; 0000000bH

; 1849 : 
; 1850 : 	for( int i = 0; i < 16; i++ )

	mov	DWORD PTR _i$3[ebp], 0
	jmp	SHORT $LN4@SparkParti
$LN2@SparkParti:
	mov	eax, DWORD PTR _i$3[ebp]
	add	eax, 1
	mov	DWORD PTR _i$3[ebp], eax
$LN4@SparkParti:
	cmp	DWORD PTR _i$3[ebp], 16			; 00000010H
	jge	$LN3@SparkParti

; 1851 : 	{
; 1852 : 		src.m_vecOrigin.x = org[0] + dir[0] * 2 + RANDOM_FLOAT( -1, 1 );

	mov	ecx, DWORD PTR _org$[ebp]
	call	??BVector@@QBEPBMXZ			; Vector::operator float const *
	mov	esi, eax
	mov	eax, 4
	imul	edi, eax, 0
	mov	ecx, DWORD PTR _dir$[ebp]
	call	??BVector@@QBEPBMXZ			; Vector::operator float const *
	mov	ecx, 4
	imul	edx, ecx, 0
	movss	xmm0, DWORD PTR [eax+edx]
	mulss	xmm0, DWORD PTR __real@40000000
	addss	xmm0, DWORD PTR [esi+edi]
	push	ecx
	movss	xmm1, DWORD PTR __real@3f800000
	movss	DWORD PTR [esp], xmm1
	push	ecx
	movss	xmm1, DWORD PTR __real@bf800000
	movss	DWORD PTR [esp], xmm1
	movss	DWORD PTR tv441[ebp], xmm0
	call	DWORD PTR ?gEngfuncs@@3Ucl_enginefuncs_s@@A+268
	add	esp, 8
	fstp	DWORD PTR tv294[ebp]
	movss	xmm0, DWORD PTR tv441[ebp]
	addss	xmm0, DWORD PTR tv294[ebp]
	movss	DWORD PTR _src$[ebp], xmm0

; 1853 : 		src.m_vecOrigin.y = org[1] + dir[1] * 2 + RANDOM_FLOAT( -1, 1 );

	mov	ecx, DWORD PTR _org$[ebp]
	call	??BVector@@QBEPBMXZ			; Vector::operator float const *
	mov	esi, eax
	mov	edi, 4
	shl	edi, 0
	mov	ecx, DWORD PTR _dir$[ebp]
	call	??BVector@@QBEPBMXZ			; Vector::operator float const *
	mov	ecx, 4
	shl	ecx, 0
	movss	xmm0, DWORD PTR [eax+ecx]
	mulss	xmm0, DWORD PTR __real@40000000
	addss	xmm0, DWORD PTR [esi+edi]
	push	ecx
	movss	xmm1, DWORD PTR __real@3f800000
	movss	DWORD PTR [esp], xmm1
	push	ecx
	movss	xmm1, DWORD PTR __real@bf800000
	movss	DWORD PTR [esp], xmm1
	movss	DWORD PTR tv443[ebp], xmm0
	call	DWORD PTR ?gEngfuncs@@3Ucl_enginefuncs_s@@A+268
	add	esp, 8
	fstp	DWORD PTR tv308[ebp]
	movss	xmm0, DWORD PTR tv443[ebp]
	addss	xmm0, DWORD PTR tv308[ebp]
	movss	DWORD PTR _src$[ebp+4], xmm0

; 1854 : 		src.m_vecOrigin.z = org[2] + dir[2] * 2 + RANDOM_FLOAT( -1, 1 );

	mov	ecx, DWORD PTR _org$[ebp]
	call	??BVector@@QBEPBMXZ			; Vector::operator float const *
	mov	esi, eax
	mov	edi, 4
	shl	edi, 1
	mov	ecx, DWORD PTR _dir$[ebp]
	call	??BVector@@QBEPBMXZ			; Vector::operator float const *
	mov	ecx, 4
	shl	ecx, 1
	movss	xmm0, DWORD PTR [eax+ecx]
	mulss	xmm0, DWORD PTR __real@40000000
	addss	xmm0, DWORD PTR [esi+edi]
	push	ecx
	movss	xmm1, DWORD PTR __real@3f800000
	movss	DWORD PTR [esp], xmm1
	push	ecx
	movss	xmm1, DWORD PTR __real@bf800000
	movss	DWORD PTR [esp], xmm1
	movss	DWORD PTR tv445[ebp], xmm0
	call	DWORD PTR ?gEngfuncs@@3Ucl_enginefuncs_s@@A+268
	add	esp, 8
	fstp	DWORD PTR tv322[ebp]
	movss	xmm0, DWORD PTR tv445[ebp]
	addss	xmm0, DWORD PTR tv322[ebp]
	movss	DWORD PTR _src$[ebp+8], xmm0

; 1855 : 		src.m_vecVelocity.x = dir[0] * 180 + RANDOM_FLOAT( -60, 60 );

	mov	ecx, DWORD PTR _dir$[ebp]
	call	??BVector@@QBEPBMXZ			; Vector::operator float const *
	mov	ecx, 4
	imul	edx, ecx, 0
	movss	xmm0, DWORD PTR [eax+edx]
	mulss	xmm0, DWORD PTR __real@43340000
	push	ecx
	movss	xmm1, DWORD PTR __real@42700000
	movss	DWORD PTR [esp], xmm1
	push	ecx
	movss	xmm1, DWORD PTR __real@c2700000
	movss	DWORD PTR [esp], xmm1
	movss	DWORD PTR tv447[ebp], xmm0
	call	DWORD PTR ?gEngfuncs@@3Ucl_enginefuncs_s@@A+268
	add	esp, 8
	fstp	DWORD PTR tv333[ebp]
	movss	xmm0, DWORD PTR tv447[ebp]
	addss	xmm0, DWORD PTR tv333[ebp]
	movss	DWORD PTR _src$[ebp+24], xmm0

; 1856 : 		src.m_vecVelocity.y = dir[1] * 180 + RANDOM_FLOAT( -60, 60 );

	mov	ecx, DWORD PTR _dir$[ebp]
	call	??BVector@@QBEPBMXZ			; Vector::operator float const *
	mov	ecx, 4
	shl	ecx, 0
	movss	xmm0, DWORD PTR [eax+ecx]
	mulss	xmm0, DWORD PTR __real@43340000
	push	ecx
	movss	xmm1, DWORD PTR __real@42700000
	movss	DWORD PTR [esp], xmm1
	push	ecx
	movss	xmm1, DWORD PTR __real@c2700000
	movss	DWORD PTR [esp], xmm1
	movss	DWORD PTR tv481[ebp], xmm0
	call	DWORD PTR ?gEngfuncs@@3Ucl_enginefuncs_s@@A+268
	add	esp, 8
	fstp	DWORD PTR tv344[ebp]
	movss	xmm0, DWORD PTR tv481[ebp]
	addss	xmm0, DWORD PTR tv344[ebp]
	movss	DWORD PTR _src$[ebp+28], xmm0

; 1857 : 		src.m_vecVelocity.z = dir[2] * 180 + RANDOM_FLOAT( -60, 60 );

	mov	ecx, DWORD PTR _dir$[ebp]
	call	??BVector@@QBEPBMXZ			; Vector::operator float const *
	mov	ecx, 4
	shl	ecx, 1
	movss	xmm0, DWORD PTR [eax+ecx]
	mulss	xmm0, DWORD PTR __real@43340000
	push	ecx
	movss	xmm1, DWORD PTR __real@42700000
	movss	DWORD PTR [esp], xmm1
	push	ecx
	movss	xmm1, DWORD PTR __real@c2700000
	movss	DWORD PTR [esp], xmm1
	movss	DWORD PTR tv483[ebp], xmm0
	call	DWORD PTR ?gEngfuncs@@3Ucl_enginefuncs_s@@A+268
	add	esp, 8
	fstp	DWORD PTR tv355[ebp]
	movss	xmm0, DWORD PTR tv483[ebp]
	addss	xmm0, DWORD PTR tv355[ebp]
	movss	DWORD PTR _src$[ebp+32], xmm0

; 1858 : 		src.m_vecAccel.x = src.m_vecAccel.y = 0;

	xorps	xmm0, xmm0
	movss	DWORD PTR _src$[ebp+40], xmm0
	movss	xmm0, DWORD PTR _src$[ebp+40]
	movss	DWORD PTR _src$[ebp+36], xmm0

; 1859 : 		src.m_vecAccel.z = -120 + RANDOM_FLOAT( -60, 60 );

	push	ecx
	movss	xmm0, DWORD PTR __real@42700000
	movss	DWORD PTR [esp], xmm0
	push	ecx
	movss	xmm0, DWORD PTR __real@c2700000
	movss	DWORD PTR [esp], xmm0
	call	DWORD PTR ?gEngfuncs@@3Ucl_enginefuncs_s@@A+268
	add	esp, 8
	fstp	DWORD PTR tv365[ebp]
	movss	xmm0, DWORD PTR tv365[ebp]
	addss	xmm0, DWORD PTR __real@c2f00000
	movss	DWORD PTR _src$[ebp+44], xmm0

; 1860 : 		src.m_vecColor = Vector( 1.0, 1.0f, 1.0f );

	push	ecx
	movss	xmm0, DWORD PTR __real@3f800000
	movss	DWORD PTR [esp], xmm0
	push	ecx
	movss	xmm0, DWORD PTR __real@3f800000
	movss	DWORD PTR [esp], xmm0
	push	ecx
	movss	xmm0, DWORD PTR __real@3f800000
	movss	DWORD PTR [esp], xmm0
	lea	ecx, DWORD PTR $T2[ebp]
	call	??0Vector@@QAE@MMM@Z			; Vector::Vector
	mov	ecx, DWORD PTR [eax]
	mov	DWORD PTR _src$[ebp+48], ecx
	mov	edx, DWORD PTR [eax+4]
	mov	DWORD PTR _src$[ebp+52], edx
	mov	eax, DWORD PTR [eax+8]
	mov	DWORD PTR _src$[ebp+56], eax

; 1861 : 		src.m_vecColorVelocity = Vector( 0, 0, 0 );

	push	ecx
	xorps	xmm0, xmm0
	movss	DWORD PTR [esp], xmm0
	push	ecx
	xorps	xmm0, xmm0
	movss	DWORD PTR [esp], xmm0
	push	ecx
	xorps	xmm0, xmm0
	movss	DWORD PTR [esp], xmm0
	lea	ecx, DWORD PTR $T1[ebp]
	call	??0Vector@@QAE@MMM@Z			; Vector::Vector
	mov	ecx, DWORD PTR [eax]
	mov	DWORD PTR _src$[ebp+60], ecx
	mov	edx, DWORD PTR [eax+4]
	mov	DWORD PTR _src$[ebp+64], edx
	mov	eax, DWORD PTR [eax+8]
	mov	DWORD PTR _src$[ebp+68], eax

; 1862 : 		src.m_flAlpha = 1.0;

	movss	xmm0, DWORD PTR __real@3f800000
	movss	DWORD PTR _src$[ebp+72], xmm0

; 1863 : 		src.m_flStartAlpha = 0.0f;

	xorps	xmm0, xmm0
	movss	DWORD PTR _src$[ebp+112], xmm0

; 1864 : 		src.m_flAlphaVelocity = -8.0;

	movss	xmm0, DWORD PTR __real@c1000000
	movss	DWORD PTR _src$[ebp+76], xmm0

; 1865 : 		src.m_flRadius = 0.4 + RANDOM_FLOAT( -0.2, 0.2 );

	push	ecx
	movss	xmm0, DWORD PTR __real@3e4ccccd
	movss	DWORD PTR [esp], xmm0
	push	ecx
	movss	xmm0, DWORD PTR __real@be4ccccd
	movss	DWORD PTR [esp], xmm0
	call	DWORD PTR ?gEngfuncs@@3Ucl_enginefuncs_s@@A+268
	add	esp, 8
	fstp	QWORD PTR tv408[ebp]
	movsd	xmm0, QWORD PTR tv408[ebp]
	addsd	xmm0, QWORD PTR __real@3fd999999999999a
	cvtsd2ss xmm0, xmm0
	movss	DWORD PTR _src$[ebp+80], xmm0

; 1866 : 		src.m_flRadiusVelocity = 0;

	xorps	xmm0, xmm0
	movss	DWORD PTR _src$[ebp+84], xmm0

; 1867 : 		src.m_flLength = 8 + RANDOM_FLOAT( -4, 4 );

	push	ecx
	movss	xmm0, DWORD PTR __real@40800000
	movss	DWORD PTR [esp], xmm0
	push	ecx
	movss	xmm0, DWORD PTR __real@c0800000
	movss	DWORD PTR [esp], xmm0
	call	DWORD PTR ?gEngfuncs@@3Ucl_enginefuncs_s@@A+268
	add	esp, 8
	fstp	DWORD PTR tv418[ebp]
	movss	xmm0, DWORD PTR tv418[ebp]
	addss	xmm0, DWORD PTR __real@41000000
	movss	DWORD PTR _src$[ebp+88], xmm0

; 1868 : 		src.m_flLengthVelocity = 8 + RANDOM_FLOAT( -4, 4 );

	push	ecx
	movss	xmm0, DWORD PTR __real@40800000
	movss	DWORD PTR [esp], xmm0
	push	ecx
	movss	xmm0, DWORD PTR __real@c0800000
	movss	DWORD PTR [esp], xmm0
	call	DWORD PTR ?gEngfuncs@@3Ucl_enginefuncs_s@@A+268
	add	esp, 8
	fstp	DWORD PTR tv427[ebp]
	movss	xmm0, DWORD PTR tv427[ebp]
	addss	xmm0, DWORD PTR __real@41000000
	movss	DWORD PTR _src$[ebp+92], xmm0

; 1869 : 		src.m_flRotation = 0;

	xorps	xmm0, xmm0
	movss	DWORD PTR _src$[ebp+96], xmm0

; 1870 : 		src.m_flRotationVelocity = 0;

	xorps	xmm0, xmm0
	movss	DWORD PTR _src$[ebp+100], xmm0

; 1871 : 		src.m_flBounceFactor = 0.2;

	movss	xmm0, DWORD PTR __real@3e4ccccd
	movss	DWORD PTR _src$[ebp+104], xmm0

; 1872 : 		src.m_flDistance = 0;

	xorps	xmm0, xmm0
	movss	DWORD PTR _src$[ebp+108], xmm0

; 1873 : 		src.ParticleType = TYPE_SPARKS;

	mov	DWORD PTR _src$[ebp+144], 2

; 1874 : 		src.EntIndex = EntIndex;

	mov	eax, DWORD PTR _EntIndex$[ebp]
	mov	DWORD PTR _src$[ebp+168], eax

; 1875 : 
; 1876 : 		if( !AddParticle( &src, m_hSparks, flags ))

	mov	eax, DWORD PTR _flags$[ebp]
	push	eax
	mov	ecx, DWORD PTR _this$[ebp]
	mov	edx, DWORD PTR [ecx+2911248]
	push	edx
	lea	eax, DWORD PTR _src$[ebp]
	push	eax
	mov	ecx, DWORD PTR _this$[ebp]
	call	?AddParticle@CQuakePartSystem@@QAE_NPAVCQuakePart@@HH@Z ; CQuakePartSystem::AddParticle
	movzx	ecx, al
	test	ecx, ecx
	jne	SHORT $LN6@SparkParti

; 1877 : 			break;

	jmp	SHORT $LN3@SparkParti
$LN6@SparkParti:

; 1878 : 	}

	jmp	$LN2@SparkParti
$LN3@SparkParti:
$LN1@SparkParti:

; 1879 : }

	pop	edi
	pop	esi
	pop	ebx
	mov	esp, ebp
	pop	ebp
	ret	12					; 0000000cH
?SparkParticles@CQuakePartSystem@@QAEXHABVVector@@0@Z ENDP ; CQuakePartSystem::SparkParticles
_TEXT	ENDS
; Function compile flags: /Odtp /ZI
; File d:\!diffusion 2020\source code 2022\client-server\client\render\r_quakeparticle.cpp
;	COMDAT ?BulletParticles@CQuakePartSystem@@QAEXHABVVector@@0@Z
_TEXT	SEGMENT
tv632 = -328						; size = 4
tv804 = -324						; size = 4
tv689 = -324						; size = 8
tv604 = -324						; size = 4
tv590 = -324						; size = 4
tv576 = -324						; size = 4
tv531 = -324						; size = 8
tv478 = -324						; size = 4
tv467 = -324						; size = 4
tv456 = -324						; size = 4
tv445 = -324						; size = 4
tv431 = -324						; size = 4
tv417 = -324						; size = 4
tv802 = -320						; size = 4
tv800 = -320						; size = 4
tv734 = -320						; size = 4
tv732 = -320						; size = 4
tv730 = -320						; size = 4
tv728 = -320						; size = 4
tv726 = -320						; size = 4
tv724 = -320						; size = 4
tv722 = -320						; size = 4
tv707 = -320						; size = 4
tv698 = -320						; size = 4
tv624 = -320						; size = 4
tv550 = -320						; size = 4
tv541 = -320						; size = 4
tv488 = -320						; size = 4
$T1 = -316						; size = 12
$T2 = -304						; size = 12
$T3 = -292						; size = 12
$T4 = -280						; size = 12
$T5 = -268						; size = 12
_flags$ = -192						; size = 4
_i$ = -188						; size = 4
_count$ = -184						; size = 4
_cnt$ = -180						; size = 4
_src$ = -176						; size = 172
_this$ = -4						; size = 4
_EntIndex$ = 8						; size = 4
_org$ = 12						; size = 4
_dir$ = 16						; size = 4
?BulletParticles@CQuakePartSystem@@QAEXHABVVector@@0@Z PROC ; CQuakePartSystem::BulletParticles, COMDAT
; _this$ = ecx

; 2216 : {

	push	ebp
	mov	ebp, esp
	sub	esp, 328				; 00000148H
	push	ebx
	push	esi
	push	edi
	mov	DWORD PTR _this$[ebp], ecx

; 2217 : 	CQuakePart src;

	lea	ecx, DWORD PTR _src$[ebp]
	call	??0CQuakePart@@QAE@XZ

; 2218 : 	int cnt, count, i;
; 2219 : 
; 2220 : 	if( !g_fRenderInitialized )

	cmp	DWORD PTR ?g_fRenderInitialized@@3HA, 0	; g_fRenderInitialized
	jne	SHORT $LN8@BulletPart

; 2221 : 		return;

	jmp	$LN1@BulletPart
$LN8@BulletPart:

; 2222 : 
; 2223 : 	count = RANDOM_LONG( 4, 10 );

	push	10					; 0000000aH
	push	4
	call	DWORD PTR ?gEngfuncs@@3Ucl_enginefuncs_s@@A+272
	add	esp, 8
	mov	DWORD PTR _count$[ebp], eax

; 2224 : 	cnt = POINT_CONTENTS( (float *)&org );

	push	0
	mov	eax, DWORD PTR _org$[ebp]
	push	eax
	call	DWORD PTR ?gEngfuncs@@3Ucl_enginefuncs_s@@A+228
	add	esp, 8
	mov	DWORD PTR _cnt$[ebp], eax

; 2225 : 
; 2226 : 	if( cnt == CONTENTS_WATER )

	cmp	DWORD PTR _cnt$[ebp], -3		; fffffffdH
	jne	SHORT $LN9@BulletPart

; 2227 : 		return;

	jmp	$LN1@BulletPart
$LN9@BulletPart:

; 2228 : 
; 2229 : 	// sparks
; 2230 : 	int flags = (FPART_STRETCH|FPART_BOUNCE|FPART_FRICTION|FPART_ADDITIVE);

	mov	DWORD PTR _flags$[ebp], 75		; 0000004bH

; 2231 : 
; 2232 : 	for( i = 0; i < count; i++ )

	mov	DWORD PTR _i$[ebp], 0
	jmp	SHORT $LN4@BulletPart
$LN2@BulletPart:
	mov	eax, DWORD PTR _i$[ebp]
	add	eax, 1
	mov	DWORD PTR _i$[ebp], eax
$LN4@BulletPart:
	mov	eax, DWORD PTR _i$[ebp]
	cmp	eax, DWORD PTR _count$[ebp]
	jge	$LN3@BulletPart

; 2233 : 	{
; 2234 : 		src.m_vecOrigin.x = org[0] + dir[0] * 2 + RANDOM_FLOAT( -1, 1 );

	mov	ecx, DWORD PTR _org$[ebp]
	call	??BVector@@QBEPBMXZ			; Vector::operator float const *
	mov	esi, eax
	mov	eax, 4
	imul	edi, eax, 0
	mov	ecx, DWORD PTR _dir$[ebp]
	call	??BVector@@QBEPBMXZ			; Vector::operator float const *
	mov	ecx, 4
	imul	edx, ecx, 0
	movss	xmm0, DWORD PTR [eax+edx]
	mulss	xmm0, DWORD PTR __real@40000000
	addss	xmm0, DWORD PTR [esi+edi]
	push	ecx
	movss	xmm1, DWORD PTR __real@3f800000
	movss	DWORD PTR [esp], xmm1
	push	ecx
	movss	xmm1, DWORD PTR __real@bf800000
	movss	DWORD PTR [esp], xmm1
	movss	DWORD PTR tv722[ebp], xmm0
	call	DWORD PTR ?gEngfuncs@@3Ucl_enginefuncs_s@@A+268
	add	esp, 8
	fstp	DWORD PTR tv417[ebp]
	movss	xmm0, DWORD PTR tv722[ebp]
	addss	xmm0, DWORD PTR tv417[ebp]
	movss	DWORD PTR _src$[ebp], xmm0

; 2235 : 		src.m_vecOrigin.y = org[1] + dir[1] * 2 + RANDOM_FLOAT( -1, 1 );

	mov	ecx, DWORD PTR _org$[ebp]
	call	??BVector@@QBEPBMXZ			; Vector::operator float const *
	mov	esi, eax
	mov	edi, 4
	shl	edi, 0
	mov	ecx, DWORD PTR _dir$[ebp]
	call	??BVector@@QBEPBMXZ			; Vector::operator float const *
	mov	ecx, 4
	shl	ecx, 0
	movss	xmm0, DWORD PTR [eax+ecx]
	mulss	xmm0, DWORD PTR __real@40000000
	addss	xmm0, DWORD PTR [esi+edi]
	push	ecx
	movss	xmm1, DWORD PTR __real@3f800000
	movss	DWORD PTR [esp], xmm1
	push	ecx
	movss	xmm1, DWORD PTR __real@bf800000
	movss	DWORD PTR [esp], xmm1
	movss	DWORD PTR tv724[ebp], xmm0
	call	DWORD PTR ?gEngfuncs@@3Ucl_enginefuncs_s@@A+268
	add	esp, 8
	fstp	DWORD PTR tv431[ebp]
	movss	xmm0, DWORD PTR tv724[ebp]
	addss	xmm0, DWORD PTR tv431[ebp]
	movss	DWORD PTR _src$[ebp+4], xmm0

; 2236 : 		src.m_vecOrigin.z = org[2] + dir[2] * 2 + RANDOM_FLOAT( -1, 1 );

	mov	ecx, DWORD PTR _org$[ebp]
	call	??BVector@@QBEPBMXZ			; Vector::operator float const *
	mov	esi, eax
	mov	edi, 4
	shl	edi, 1
	mov	ecx, DWORD PTR _dir$[ebp]
	call	??BVector@@QBEPBMXZ			; Vector::operator float const *
	mov	ecx, 4
	shl	ecx, 1
	movss	xmm0, DWORD PTR [eax+ecx]
	mulss	xmm0, DWORD PTR __real@40000000
	addss	xmm0, DWORD PTR [esi+edi]
	push	ecx
	movss	xmm1, DWORD PTR __real@3f800000
	movss	DWORD PTR [esp], xmm1
	push	ecx
	movss	xmm1, DWORD PTR __real@bf800000
	movss	DWORD PTR [esp], xmm1
	movss	DWORD PTR tv726[ebp], xmm0
	call	DWORD PTR ?gEngfuncs@@3Ucl_enginefuncs_s@@A+268
	add	esp, 8
	fstp	DWORD PTR tv445[ebp]
	movss	xmm0, DWORD PTR tv726[ebp]
	addss	xmm0, DWORD PTR tv445[ebp]
	movss	DWORD PTR _src$[ebp+8], xmm0

; 2237 : 		src.m_vecVelocity.x = dir[0] * 180 + RANDOM_FLOAT( -60, 60 );

	mov	ecx, DWORD PTR _dir$[ebp]
	call	??BVector@@QBEPBMXZ			; Vector::operator float const *
	mov	ecx, 4
	imul	edx, ecx, 0
	movss	xmm0, DWORD PTR [eax+edx]
	mulss	xmm0, DWORD PTR __real@43340000
	push	ecx
	movss	xmm1, DWORD PTR __real@42700000
	movss	DWORD PTR [esp], xmm1
	push	ecx
	movss	xmm1, DWORD PTR __real@c2700000
	movss	DWORD PTR [esp], xmm1
	movss	DWORD PTR tv728[ebp], xmm0
	call	DWORD PTR ?gEngfuncs@@3Ucl_enginefuncs_s@@A+268
	add	esp, 8
	fstp	DWORD PTR tv456[ebp]
	movss	xmm0, DWORD PTR tv728[ebp]
	addss	xmm0, DWORD PTR tv456[ebp]
	movss	DWORD PTR _src$[ebp+24], xmm0

; 2238 : 		src.m_vecVelocity.y = dir[1] * 180 + RANDOM_FLOAT( -60, 60 );

	mov	ecx, DWORD PTR _dir$[ebp]
	call	??BVector@@QBEPBMXZ			; Vector::operator float const *
	mov	ecx, 4
	shl	ecx, 0
	movss	xmm0, DWORD PTR [eax+ecx]
	mulss	xmm0, DWORD PTR __real@43340000
	push	ecx
	movss	xmm1, DWORD PTR __real@42700000
	movss	DWORD PTR [esp], xmm1
	push	ecx
	movss	xmm1, DWORD PTR __real@c2700000
	movss	DWORD PTR [esp], xmm1
	movss	DWORD PTR tv730[ebp], xmm0
	call	DWORD PTR ?gEngfuncs@@3Ucl_enginefuncs_s@@A+268
	add	esp, 8
	fstp	DWORD PTR tv467[ebp]
	movss	xmm0, DWORD PTR tv730[ebp]
	addss	xmm0, DWORD PTR tv467[ebp]
	movss	DWORD PTR _src$[ebp+28], xmm0

; 2239 : 		src.m_vecVelocity.z = dir[2] * 180 + RANDOM_FLOAT( -60, 60 );

	mov	ecx, DWORD PTR _dir$[ebp]
	call	??BVector@@QBEPBMXZ			; Vector::operator float const *
	mov	ecx, 4
	shl	ecx, 1
	movss	xmm0, DWORD PTR [eax+ecx]
	mulss	xmm0, DWORD PTR __real@43340000
	push	ecx
	movss	xmm1, DWORD PTR __real@42700000
	movss	DWORD PTR [esp], xmm1
	push	ecx
	movss	xmm1, DWORD PTR __real@c2700000
	movss	DWORD PTR [esp], xmm1
	movss	DWORD PTR tv732[ebp], xmm0
	call	DWORD PTR ?gEngfuncs@@3Ucl_enginefuncs_s@@A+268
	add	esp, 8
	fstp	DWORD PTR tv478[ebp]
	movss	xmm0, DWORD PTR tv732[ebp]
	addss	xmm0, DWORD PTR tv478[ebp]
	movss	DWORD PTR _src$[ebp+32], xmm0

; 2240 : 		src.m_vecAccel.x = src.m_vecAccel.y = 0;

	xorps	xmm0, xmm0
	movss	DWORD PTR _src$[ebp+40], xmm0
	movss	xmm0, DWORD PTR _src$[ebp+40]
	movss	DWORD PTR _src$[ebp+36], xmm0

; 2241 : 		src.m_vecAccel.z = -120 + RANDOM_FLOAT( -60, 60 );

	push	ecx
	movss	xmm0, DWORD PTR __real@42700000
	movss	DWORD PTR [esp], xmm0
	push	ecx
	movss	xmm0, DWORD PTR __real@c2700000
	movss	DWORD PTR [esp], xmm0
	call	DWORD PTR ?gEngfuncs@@3Ucl_enginefuncs_s@@A+268
	add	esp, 8
	fstp	DWORD PTR tv488[ebp]
	movss	xmm0, DWORD PTR tv488[ebp]
	addss	xmm0, DWORD PTR __real@c2f00000
	movss	DWORD PTR _src$[ebp+44], xmm0

; 2242 : 		src.m_vecColor = Vector( 1.0, 1.0f, 1.0f );

	push	ecx
	movss	xmm0, DWORD PTR __real@3f800000
	movss	DWORD PTR [esp], xmm0
	push	ecx
	movss	xmm0, DWORD PTR __real@3f800000
	movss	DWORD PTR [esp], xmm0
	push	ecx
	movss	xmm0, DWORD PTR __real@3f800000
	movss	DWORD PTR [esp], xmm0
	lea	ecx, DWORD PTR $T5[ebp]
	call	??0Vector@@QAE@MMM@Z			; Vector::Vector
	mov	ecx, DWORD PTR [eax]
	mov	DWORD PTR _src$[ebp+48], ecx
	mov	edx, DWORD PTR [eax+4]
	mov	DWORD PTR _src$[ebp+52], edx
	mov	eax, DWORD PTR [eax+8]
	mov	DWORD PTR _src$[ebp+56], eax

; 2243 : 		src.m_vecColorVelocity = Vector( 0, 0, 0 );

	push	ecx
	xorps	xmm0, xmm0
	movss	DWORD PTR [esp], xmm0
	push	ecx
	xorps	xmm0, xmm0
	movss	DWORD PTR [esp], xmm0
	push	ecx
	xorps	xmm0, xmm0
	movss	DWORD PTR [esp], xmm0
	lea	ecx, DWORD PTR $T4[ebp]
	call	??0Vector@@QAE@MMM@Z			; Vector::Vector
	mov	ecx, DWORD PTR [eax]
	mov	DWORD PTR _src$[ebp+60], ecx
	mov	edx, DWORD PTR [eax+4]
	mov	DWORD PTR _src$[ebp+64], edx
	mov	eax, DWORD PTR [eax+8]
	mov	DWORD PTR _src$[ebp+68], eax

; 2244 : 		src.m_flAlpha = 1.0;

	movss	xmm0, DWORD PTR __real@3f800000
	movss	DWORD PTR _src$[ebp+72], xmm0

; 2245 : 		src.m_flStartAlpha = 0.0f;

	xorps	xmm0, xmm0
	movss	DWORD PTR _src$[ebp+112], xmm0

; 2246 : 		src.m_flAlphaVelocity = -3.0;

	movss	xmm0, DWORD PTR __real@c0400000
	movss	DWORD PTR _src$[ebp+76], xmm0

; 2247 : 		src.m_flRadius = 0.8 + RANDOM_FLOAT( -0.3, 0.3 );

	push	ecx
	movss	xmm0, DWORD PTR __real@3e99999a
	movss	DWORD PTR [esp], xmm0
	push	ecx
	movss	xmm0, DWORD PTR __real@be99999a
	movss	DWORD PTR [esp], xmm0
	call	DWORD PTR ?gEngfuncs@@3Ucl_enginefuncs_s@@A+268
	add	esp, 8
	fstp	QWORD PTR tv531[ebp]
	movsd	xmm0, QWORD PTR tv531[ebp]
	addsd	xmm0, QWORD PTR __real@3fe999999999999a
	cvtsd2ss xmm0, xmm0
	movss	DWORD PTR _src$[ebp+80], xmm0

; 2248 : 		src.m_flRadiusVelocity = 0;

	xorps	xmm0, xmm0
	movss	DWORD PTR _src$[ebp+84], xmm0

; 2249 : 		src.m_flLength = 8 + RANDOM_FLOAT( -4, 4 );

	push	ecx
	movss	xmm0, DWORD PTR __real@40800000
	movss	DWORD PTR [esp], xmm0
	push	ecx
	movss	xmm0, DWORD PTR __real@c0800000
	movss	DWORD PTR [esp], xmm0
	call	DWORD PTR ?gEngfuncs@@3Ucl_enginefuncs_s@@A+268
	add	esp, 8
	fstp	DWORD PTR tv541[ebp]
	movss	xmm0, DWORD PTR tv541[ebp]
	addss	xmm0, DWORD PTR __real@41000000
	movss	DWORD PTR _src$[ebp+88], xmm0

; 2250 : 		src.m_flLengthVelocity = 8 + RANDOM_FLOAT( -4, 4 );

	push	ecx
	movss	xmm0, DWORD PTR __real@40800000
	movss	DWORD PTR [esp], xmm0
	push	ecx
	movss	xmm0, DWORD PTR __real@c0800000
	movss	DWORD PTR [esp], xmm0
	call	DWORD PTR ?gEngfuncs@@3Ucl_enginefuncs_s@@A+268
	add	esp, 8
	fstp	DWORD PTR tv550[ebp]
	movss	xmm0, DWORD PTR tv550[ebp]
	addss	xmm0, DWORD PTR __real@41000000
	movss	DWORD PTR _src$[ebp+92], xmm0

; 2251 : 		src.m_flRotation = 0;

	xorps	xmm0, xmm0
	movss	DWORD PTR _src$[ebp+96], xmm0

; 2252 : 		src.m_flRotationVelocity = 0;

	xorps	xmm0, xmm0
	movss	DWORD PTR _src$[ebp+100], xmm0

; 2253 : 		src.m_flBounceFactor = 0.2;

	movss	xmm0, DWORD PTR __real@3e4ccccd
	movss	DWORD PTR _src$[ebp+104], xmm0

; 2254 : 		src.m_flDistance = 2000;

	movss	xmm0, DWORD PTR __real@44fa0000
	movss	DWORD PTR _src$[ebp+108], xmm0

; 2255 : 		src.ParticleType = TYPE_SPARKS;

	mov	DWORD PTR _src$[ebp+144], 2

; 2256 : 		src.EntIndex = EntIndex;

	mov	eax, DWORD PTR _EntIndex$[ebp]
	mov	DWORD PTR _src$[ebp+168], eax

; 2257 : 
; 2258 : 		if( !AddParticle( &src, m_hSparks, flags ))

	mov	eax, DWORD PTR _flags$[ebp]
	push	eax
	mov	ecx, DWORD PTR _this$[ebp]
	mov	edx, DWORD PTR [ecx+2911248]
	push	edx
	lea	eax, DWORD PTR _src$[ebp]
	push	eax
	mov	ecx, DWORD PTR _this$[ebp]
	call	?AddParticle@CQuakePartSystem@@QAE_NPAVCQuakePart@@HH@Z ; CQuakePartSystem::AddParticle
	movzx	ecx, al
	test	ecx, ecx
	jne	SHORT $LN10@BulletPart

; 2259 : 			break;

	jmp	SHORT $LN3@BulletPart
$LN10@BulletPart:

; 2260 : 	}

	jmp	$LN2@BulletPart
$LN3@BulletPart:

; 2261 : 
; 2262 : 	// smoke
; 2263 : 	flags = FPART_VERTEXLIGHT;

	mov	DWORD PTR _flags$[ebp], 4

; 2264 : 
; 2265 : 	for( i = 0; i < 3; i++ )

	mov	DWORD PTR _i$[ebp], 0
	jmp	SHORT $LN7@BulletPart
$LN5@BulletPart:
	mov	eax, DWORD PTR _i$[ebp]
	add	eax, 1
	mov	DWORD PTR _i$[ebp], eax
$LN7@BulletPart:
	cmp	DWORD PTR _i$[ebp], 3
	jge	$LN6@BulletPart

; 2266 : 	{
; 2267 : 		src.m_vecOrigin.x = org[0] + dir[0] * 5 + RANDOM_FLOAT( -1, 1 );

	mov	ecx, DWORD PTR _org$[ebp]
	call	??BVector@@QBEPBMXZ			; Vector::operator float const *
	mov	esi, eax
	mov	eax, 4
	imul	edi, eax, 0
	mov	ecx, DWORD PTR _dir$[ebp]
	call	??BVector@@QBEPBMXZ			; Vector::operator float const *
	mov	ecx, 4
	imul	edx, ecx, 0
	movss	xmm0, DWORD PTR [eax+edx]
	mulss	xmm0, DWORD PTR __real@40a00000
	addss	xmm0, DWORD PTR [esi+edi]
	push	ecx
	movss	xmm1, DWORD PTR __real@3f800000
	movss	DWORD PTR [esp], xmm1
	push	ecx
	movss	xmm1, DWORD PTR __real@bf800000
	movss	DWORD PTR [esp], xmm1
	movss	DWORD PTR tv734[ebp], xmm0
	call	DWORD PTR ?gEngfuncs@@3Ucl_enginefuncs_s@@A+268
	add	esp, 8
	fstp	DWORD PTR tv576[ebp]
	movss	xmm0, DWORD PTR tv734[ebp]
	addss	xmm0, DWORD PTR tv576[ebp]
	movss	DWORD PTR _src$[ebp], xmm0

; 2268 : 		src.m_vecOrigin.y = org[1] + dir[1] * 5 + RANDOM_FLOAT( -1, 1 );

	mov	ecx, DWORD PTR _org$[ebp]
	call	??BVector@@QBEPBMXZ			; Vector::operator float const *
	mov	esi, eax
	mov	edi, 4
	shl	edi, 0
	mov	ecx, DWORD PTR _dir$[ebp]
	call	??BVector@@QBEPBMXZ			; Vector::operator float const *
	mov	ecx, 4
	shl	ecx, 0
	movss	xmm0, DWORD PTR [eax+ecx]
	mulss	xmm0, DWORD PTR __real@40a00000
	addss	xmm0, DWORD PTR [esi+edi]
	push	ecx
	movss	xmm1, DWORD PTR __real@3f800000
	movss	DWORD PTR [esp], xmm1
	push	ecx
	movss	xmm1, DWORD PTR __real@bf800000
	movss	DWORD PTR [esp], xmm1
	movss	DWORD PTR tv800[ebp], xmm0
	call	DWORD PTR ?gEngfuncs@@3Ucl_enginefuncs_s@@A+268
	add	esp, 8
	fstp	DWORD PTR tv590[ebp]
	movss	xmm0, DWORD PTR tv800[ebp]
	addss	xmm0, DWORD PTR tv590[ebp]
	movss	DWORD PTR _src$[ebp+4], xmm0

; 2269 : 		src.m_vecOrigin.z = org[2] + dir[2] * 5 + RANDOM_FLOAT( -1, 1 );

	mov	ecx, DWORD PTR _org$[ebp]
	call	??BVector@@QBEPBMXZ			; Vector::operator float const *
	mov	esi, eax
	mov	edi, 4
	shl	edi, 1
	mov	ecx, DWORD PTR _dir$[ebp]
	call	??BVector@@QBEPBMXZ			; Vector::operator float const *
	mov	ecx, 4
	shl	ecx, 1
	movss	xmm0, DWORD PTR [eax+ecx]
	mulss	xmm0, DWORD PTR __real@40a00000
	addss	xmm0, DWORD PTR [esi+edi]
	push	ecx
	movss	xmm1, DWORD PTR __real@3f800000
	movss	DWORD PTR [esp], xmm1
	push	ecx
	movss	xmm1, DWORD PTR __real@bf800000
	movss	DWORD PTR [esp], xmm1
	movss	DWORD PTR tv802[ebp], xmm0
	call	DWORD PTR ?gEngfuncs@@3Ucl_enginefuncs_s@@A+268
	add	esp, 8
	fstp	DWORD PTR tv604[ebp]
	movss	xmm0, DWORD PTR tv802[ebp]
	addss	xmm0, DWORD PTR tv604[ebp]
	movss	DWORD PTR _src$[ebp+8], xmm0

; 2270 : 		src.m_vecVelocity.x = RANDOM_FLOAT( -2.5, 2.5 );

	push	ecx
	movss	xmm0, DWORD PTR __real@40200000
	movss	DWORD PTR [esp], xmm0
	push	ecx
	movss	xmm0, DWORD PTR __real@c0200000
	movss	DWORD PTR [esp], xmm0
	call	DWORD PTR ?gEngfuncs@@3Ucl_enginefuncs_s@@A+268
	add	esp, 8
	fstp	DWORD PTR _src$[ebp+24]

; 2271 : 		src.m_vecVelocity.y = RANDOM_FLOAT( -2.5, 2.5 );

	push	ecx
	movss	xmm0, DWORD PTR __real@40200000
	movss	DWORD PTR [esp], xmm0
	push	ecx
	movss	xmm0, DWORD PTR __real@c0200000
	movss	DWORD PTR [esp], xmm0
	call	DWORD PTR ?gEngfuncs@@3Ucl_enginefuncs_s@@A+268
	add	esp, 8
	fstp	DWORD PTR _src$[ebp+28]

; 2272 : 		src.m_vecVelocity.z = RANDOM_FLOAT( -2.5, 2.5 ) + (25 + RANDOM_FLOAT( -5, 5 ));

	push	ecx
	movss	xmm0, DWORD PTR __real@40200000
	movss	DWORD PTR [esp], xmm0
	push	ecx
	movss	xmm0, DWORD PTR __real@c0200000
	movss	DWORD PTR [esp], xmm0
	call	DWORD PTR ?gEngfuncs@@3Ucl_enginefuncs_s@@A+268
	add	esp, 8
	fstp	DWORD PTR tv624[ebp]
	movss	xmm0, DWORD PTR tv624[ebp]
	push	ecx
	movss	xmm1, DWORD PTR __real@40a00000
	movss	DWORD PTR [esp], xmm1
	push	ecx
	movss	xmm1, DWORD PTR __real@c0a00000
	movss	DWORD PTR [esp], xmm1
	movss	DWORD PTR tv804[ebp], xmm0
	call	DWORD PTR ?gEngfuncs@@3Ucl_enginefuncs_s@@A+268
	add	esp, 8
	fstp	DWORD PTR tv632[ebp]
	movss	xmm0, DWORD PTR tv632[ebp]
	addss	xmm0, DWORD PTR __real@41c80000
	movss	xmm1, DWORD PTR tv804[ebp]
	addss	xmm1, xmm0
	movss	DWORD PTR _src$[ebp+32], xmm1

; 2273 : 		src.m_vecAccel = Vector( 0, 0, 0 );

	push	ecx
	xorps	xmm0, xmm0
	movss	DWORD PTR [esp], xmm0
	push	ecx
	xorps	xmm0, xmm0
	movss	DWORD PTR [esp], xmm0
	push	ecx
	xorps	xmm0, xmm0
	movss	DWORD PTR [esp], xmm0
	lea	ecx, DWORD PTR $T3[ebp]
	call	??0Vector@@QAE@MMM@Z			; Vector::Vector
	mov	ecx, DWORD PTR [eax]
	mov	DWORD PTR _src$[ebp+36], ecx
	mov	edx, DWORD PTR [eax+4]
	mov	DWORD PTR _src$[ebp+40], edx
	mov	eax, DWORD PTR [eax+8]
	mov	DWORD PTR _src$[ebp+44], eax

; 2274 : 		src.m_vecColor = Vector( 0.4, 0.4, 0.4 );

	push	ecx
	movss	xmm0, DWORD PTR __real@3ecccccd
	movss	DWORD PTR [esp], xmm0
	push	ecx
	movss	xmm0, DWORD PTR __real@3ecccccd
	movss	DWORD PTR [esp], xmm0
	push	ecx
	movss	xmm0, DWORD PTR __real@3ecccccd
	movss	DWORD PTR [esp], xmm0
	lea	ecx, DWORD PTR $T2[ebp]
	call	??0Vector@@QAE@MMM@Z			; Vector::Vector
	mov	ecx, DWORD PTR [eax]
	mov	DWORD PTR _src$[ebp+48], ecx
	mov	edx, DWORD PTR [eax+4]
	mov	DWORD PTR _src$[ebp+52], edx
	mov	eax, DWORD PTR [eax+8]
	mov	DWORD PTR _src$[ebp+56], eax

; 2275 : 		src.m_vecColorVelocity = Vector( 0.2, 0.2, 0.2 );

	push	ecx
	movss	xmm0, DWORD PTR __real@3e4ccccd
	movss	DWORD PTR [esp], xmm0
	push	ecx
	movss	xmm0, DWORD PTR __real@3e4ccccd
	movss	DWORD PTR [esp], xmm0
	push	ecx
	movss	xmm0, DWORD PTR __real@3e4ccccd
	movss	DWORD PTR [esp], xmm0
	lea	ecx, DWORD PTR $T1[ebp]
	call	??0Vector@@QAE@MMM@Z			; Vector::Vector
	mov	ecx, DWORD PTR [eax]
	mov	DWORD PTR _src$[ebp+60], ecx
	mov	edx, DWORD PTR [eax+4]
	mov	DWORD PTR _src$[ebp+64], edx
	mov	eax, DWORD PTR [eax+8]
	mov	DWORD PTR _src$[ebp+68], eax

; 2276 : 		src.m_flAlpha = 0.5;

	movss	xmm0, DWORD PTR __real@3f000000
	movss	DWORD PTR _src$[ebp+72], xmm0

; 2277 : 		src.m_flStartAlpha = 0.0f;

	xorps	xmm0, xmm0
	movss	DWORD PTR _src$[ebp+112], xmm0

; 2278 : 		src.m_flAlphaVelocity = -(0.4 + RANDOM_FLOAT( 0, 0.2 ));

	push	ecx
	movss	xmm0, DWORD PTR __real@3e4ccccd
	movss	DWORD PTR [esp], xmm0
	push	ecx
	xorps	xmm0, xmm0
	movss	DWORD PTR [esp], xmm0
	call	DWORD PTR ?gEngfuncs@@3Ucl_enginefuncs_s@@A+268
	add	esp, 8
	fstp	QWORD PTR tv689[ebp]
	movsd	xmm0, QWORD PTR tv689[ebp]
	addsd	xmm0, QWORD PTR __real@3fd999999999999a
	xorps	xmm0, QWORD PTR __xmm@80000000000000008000000000000000
	cvtsd2ss xmm0, xmm0
	movss	DWORD PTR _src$[ebp+76], xmm0

; 2279 : 		src.m_flRadius = 3 + RANDOM_FLOAT( -1.5, 1.5 );

	push	ecx
	movss	xmm0, DWORD PTR __real@3fc00000
	movss	DWORD PTR [esp], xmm0
	push	ecx
	movss	xmm0, DWORD PTR __real@bfc00000
	movss	DWORD PTR [esp], xmm0
	call	DWORD PTR ?gEngfuncs@@3Ucl_enginefuncs_s@@A+268
	add	esp, 8
	fstp	DWORD PTR tv698[ebp]
	movss	xmm0, DWORD PTR tv698[ebp]
	addss	xmm0, DWORD PTR __real@40400000
	movss	DWORD PTR _src$[ebp+80], xmm0

; 2280 : 		src.m_flRadiusVelocity = 5 + RANDOM_FLOAT( -2.5, 2.5 );

	push	ecx
	movss	xmm0, DWORD PTR __real@40200000
	movss	DWORD PTR [esp], xmm0
	push	ecx
	movss	xmm0, DWORD PTR __real@c0200000
	movss	DWORD PTR [esp], xmm0
	call	DWORD PTR ?gEngfuncs@@3Ucl_enginefuncs_s@@A+268
	add	esp, 8
	fstp	DWORD PTR tv707[ebp]
	movss	xmm0, DWORD PTR tv707[ebp]
	addss	xmm0, DWORD PTR __real@40a00000
	movss	DWORD PTR _src$[ebp+84], xmm0

; 2281 : 		src.m_flLength = 1;

	movss	xmm0, DWORD PTR __real@3f800000
	movss	DWORD PTR _src$[ebp+88], xmm0

; 2282 : 		src.m_flLengthVelocity = 0;

	xorps	xmm0, xmm0
	movss	DWORD PTR _src$[ebp+92], xmm0

; 2283 : 		src.m_flRotation = RANDOM_LONG( 0, 360 );

	push	360					; 00000168H
	push	0
	call	DWORD PTR ?gEngfuncs@@3Ucl_enginefuncs_s@@A+272
	add	esp, 8
	cvtsi2ss xmm0, eax
	movss	DWORD PTR _src$[ebp+96], xmm0

; 2284 : 		src.m_flRotationVelocity = 0;

	xorps	xmm0, xmm0
	movss	DWORD PTR _src$[ebp+100], xmm0

; 2285 : 		src.m_flDistance = 1500;

	movss	xmm0, DWORD PTR __real@44bb8000
	movss	DWORD PTR _src$[ebp+108], xmm0

; 2286 : 		src.ParticleType = TYPE_SMOKE;

	mov	DWORD PTR _src$[ebp+144], 3

; 2287 : 		src.EntIndex = EntIndex;

	mov	eax, DWORD PTR _EntIndex$[ebp]
	mov	DWORD PTR _src$[ebp+168], eax

; 2288 : 
; 2289 : 		if( !AddParticle( &src, m_hSmoke, flags ))

	mov	eax, DWORD PTR _flags$[ebp]
	push	eax
	mov	ecx, DWORD PTR _this$[ebp]
	mov	edx, DWORD PTR [ecx+2911252]
	push	edx
	lea	eax, DWORD PTR _src$[ebp]
	push	eax
	mov	ecx, DWORD PTR _this$[ebp]
	call	?AddParticle@CQuakePartSystem@@QAE_NPAVCQuakePart@@HH@Z ; CQuakePartSystem::AddParticle
	movzx	ecx, al
	test	ecx, ecx
	jne	SHORT $LN11@BulletPart

; 2290 : 			break;

	jmp	SHORT $LN6@BulletPart
$LN11@BulletPart:

; 2291 : 	}

	jmp	$LN5@BulletPart
$LN6@BulletPart:
$LN1@BulletPart:

; 2292 : }

	pop	edi
	pop	esi
	pop	ebx
	mov	esp, ebp
	pop	ebp
	ret	12					; 0000000cH
?BulletParticles@CQuakePartSystem@@QAEXHABVVector@@0@Z ENDP ; CQuakePartSystem::BulletParticles
_TEXT	ENDS
; Function compile flags: /Odtp /ZI
; File d:\!diffusion 2020\source code 2022\client-server\client\render\r_quakeparticle.cpp
;	COMDAT ?ExplosionParticles@CQuakePartSystem@@QAEXHABVVector@@@Z
_TEXT	SEGMENT
tv609 = -392						; size = 4
tv938 = -388						; size = 4
tv520 = -388						; size = 8
tv917 = -384						; size = 4
tv836 = -384						; size = 4
tv826 = -384						; size = 4
tv816 = -384						; size = 4
tv794 = -384						; size = 4
tv720 = -384						; size = 4
tv710 = -384						; size = 4
tv700 = -384						; size = 4
tv679 = -384						; size = 4
tv670 = -384						; size = 4
tv601 = -384						; size = 4
tv579 = -384						; size = 4
tv569 = -384						; size = 4
tv559 = -384						; size = 4
tv539 = -384						; size = 4
tv530 = -384						; size = 4
tv477 = -384						; size = 4
$T1 = -380						; size = 12
$T2 = -368						; size = 12
$T3 = -356						; size = 12
$T4 = -344						; size = 12
$T5 = -332						; size = 12
$T6 = -320						; size = 12
$T7 = -308						; size = 12
$T8 = -296						; size = 12
$T9 = -284						; size = 12
$T10 = -272						; size = 12
$T11 = -260						; size = 12
_i$ = -184						; size = 4
_flags$ = -180						; size = 4
_src$ = -176						; size = 172
_this$ = -4						; size = 4
_EntIndex$ = 8						; size = 4
_pos$ = 12						; size = 4
?ExplosionParticles@CQuakePartSystem@@QAEXHABVVector@@@Z PROC ; CQuakePartSystem::ExplosionParticles, COMDAT
; _this$ = ecx

; 1706 : {

	push	ebp
	mov	ebp, esp
	sub	esp, 392				; 00000188H
	push	ebx
	push	esi
	push	edi
	mov	DWORD PTR _this$[ebp], ecx

; 1707 : 	CQuakePart src;

	lea	ecx, DWORD PTR _src$[ebp]
	call	??0CQuakePart@@QAE@XZ

; 1708 : 	int flags;
; 1709 : 	int i;
; 1710 : 
; 1711 : 	if( !g_fRenderInitialized )

	cmp	DWORD PTR ?g_fRenderInitialized@@3HA, 0	; g_fRenderInitialized
	jne	SHORT $LN14@ExplosionP

; 1712 : 		return;

	jmp	$LN1@ExplosionP
$LN14@ExplosionP:

; 1713 : 
; 1714 : 	flags = (FPART_STRETCH|FPART_BOUNCE|FPART_FRICTION|FPART_NOTWATER);

	mov	DWORD PTR _flags$[ebp], 139		; 0000008bH

; 1715 : 
; 1716 : 	for( i = 0; i < 128; i++ )

	mov	DWORD PTR _i$[ebp], 0
	jmp	SHORT $LN4@ExplosionP
$LN2@ExplosionP:
	mov	eax, DWORD PTR _i$[ebp]
	add	eax, 1
	mov	DWORD PTR _i$[ebp], eax
$LN4@ExplosionP:
	cmp	DWORD PTR _i$[ebp], 128			; 00000080H
	jge	$LN3@ExplosionP

; 1717 : 	{
; 1718 : 		src.m_vecOrigin.x = pos.x + RANDOM_LONG( -16, 16 );

	push	16					; 00000010H
	push	-16					; fffffff0H
	call	DWORD PTR ?gEngfuncs@@3Ucl_enginefuncs_s@@A+272
	add	esp, 8
	cvtsi2ss xmm0, eax
	mov	eax, DWORD PTR _pos$[ebp]
	addss	xmm0, DWORD PTR [eax]
	movss	DWORD PTR _src$[ebp], xmm0

; 1719 : 		src.m_vecOrigin.y = pos.y + RANDOM_LONG( -16, 16 );

	push	16					; 00000010H
	push	-16					; fffffff0H
	call	DWORD PTR ?gEngfuncs@@3Ucl_enginefuncs_s@@A+272
	add	esp, 8
	cvtsi2ss xmm0, eax
	mov	eax, DWORD PTR _pos$[ebp]
	addss	xmm0, DWORD PTR [eax+4]
	movss	DWORD PTR _src$[ebp+4], xmm0

; 1720 : 		src.m_vecOrigin.z = pos.z + RANDOM_LONG( -16, 16 );

	push	16					; 00000010H
	push	-16					; fffffff0H
	call	DWORD PTR ?gEngfuncs@@3Ucl_enginefuncs_s@@A+272
	add	esp, 8
	cvtsi2ss xmm0, eax
	mov	eax, DWORD PTR _pos$[ebp]
	addss	xmm0, DWORD PTR [eax+8]
	movss	DWORD PTR _src$[ebp+8], xmm0

; 1721 : 		src.m_vecVelocity.x = RANDOM_LONG( -256, 256 );

	push	256					; 00000100H
	push	-256					; ffffff00H
	call	DWORD PTR ?gEngfuncs@@3Ucl_enginefuncs_s@@A+272
	add	esp, 8
	cvtsi2ss xmm0, eax
	movss	DWORD PTR _src$[ebp+24], xmm0

; 1722 : 		src.m_vecVelocity.y = RANDOM_LONG( -256, 256 );

	push	256					; 00000100H
	push	-256					; ffffff00H
	call	DWORD PTR ?gEngfuncs@@3Ucl_enginefuncs_s@@A+272
	add	esp, 8
	cvtsi2ss xmm0, eax
	movss	DWORD PTR _src$[ebp+28], xmm0

; 1723 : 		src.m_vecVelocity.z = RANDOM_LONG( -256, 256 );

	push	256					; 00000100H
	push	-256					; ffffff00H
	call	DWORD PTR ?gEngfuncs@@3Ucl_enginefuncs_s@@A+272
	add	esp, 8
	cvtsi2ss xmm0, eax
	movss	DWORD PTR _src$[ebp+32], xmm0

; 1724 : 		src.m_vecAccel.x = src.m_vecAccel.y = 0;

	xorps	xmm0, xmm0
	movss	DWORD PTR _src$[ebp+40], xmm0
	movss	xmm0, DWORD PTR _src$[ebp+40]
	movss	DWORD PTR _src$[ebp+36], xmm0

; 1725 : 		src.m_vecAccel.z = -60 + RANDOM_FLOAT( -30, 30 );

	push	ecx
	movss	xmm0, DWORD PTR __real@41f00000
	movss	DWORD PTR [esp], xmm0
	push	ecx
	movss	xmm0, DWORD PTR __real@c1f00000
	movss	DWORD PTR [esp], xmm0
	call	DWORD PTR ?gEngfuncs@@3Ucl_enginefuncs_s@@A+268
	add	esp, 8
	fstp	DWORD PTR tv477[ebp]
	movss	xmm0, DWORD PTR tv477[ebp]
	addss	xmm0, DWORD PTR __real@c2700000
	movss	DWORD PTR _src$[ebp+44], xmm0

; 1726 : 		src.m_vecColor = Vector( 1, 1, 1 );

	push	ecx
	movss	xmm0, DWORD PTR __real@3f800000
	movss	DWORD PTR [esp], xmm0
	push	ecx
	movss	xmm0, DWORD PTR __real@3f800000
	movss	DWORD PTR [esp], xmm0
	push	ecx
	movss	xmm0, DWORD PTR __real@3f800000
	movss	DWORD PTR [esp], xmm0
	lea	ecx, DWORD PTR $T11[ebp]
	call	??0Vector@@QAE@MMM@Z			; Vector::Vector
	mov	ecx, DWORD PTR [eax]
	mov	DWORD PTR _src$[ebp+48], ecx
	mov	edx, DWORD PTR [eax+4]
	mov	DWORD PTR _src$[ebp+52], edx
	mov	eax, DWORD PTR [eax+8]
	mov	DWORD PTR _src$[ebp+56], eax

; 1727 : 		src.m_vecColorVelocity = Vector( 0, 0, 0 );

	push	ecx
	xorps	xmm0, xmm0
	movss	DWORD PTR [esp], xmm0
	push	ecx
	xorps	xmm0, xmm0
	movss	DWORD PTR [esp], xmm0
	push	ecx
	xorps	xmm0, xmm0
	movss	DWORD PTR [esp], xmm0
	lea	ecx, DWORD PTR $T10[ebp]
	call	??0Vector@@QAE@MMM@Z			; Vector::Vector
	mov	ecx, DWORD PTR [eax]
	mov	DWORD PTR _src$[ebp+60], ecx
	mov	edx, DWORD PTR [eax+4]
	mov	DWORD PTR _src$[ebp+64], edx
	mov	eax, DWORD PTR [eax+8]
	mov	DWORD PTR _src$[ebp+68], eax

; 1728 : 		src.m_flAlpha = 1.0;

	movss	xmm0, DWORD PTR __real@3f800000
	movss	DWORD PTR _src$[ebp+72], xmm0

; 1729 : 		src.m_flStartAlpha = 0.0f;

	xorps	xmm0, xmm0
	movss	DWORD PTR _src$[ebp+112], xmm0

; 1730 : 		src.m_flAlphaVelocity = -1.0;

	movss	xmm0, DWORD PTR __real@bf800000
	movss	DWORD PTR _src$[ebp+76], xmm0

; 1731 : 		src.m_flRadius = 0.5 + RANDOM_FLOAT( -0.2, 0.2 );

	push	ecx
	movss	xmm0, DWORD PTR __real@3e4ccccd
	movss	DWORD PTR [esp], xmm0
	push	ecx
	movss	xmm0, DWORD PTR __real@be4ccccd
	movss	DWORD PTR [esp], xmm0
	call	DWORD PTR ?gEngfuncs@@3Ucl_enginefuncs_s@@A+268
	add	esp, 8
	fstp	QWORD PTR tv520[ebp]
	movsd	xmm0, QWORD PTR tv520[ebp]
	addsd	xmm0, QWORD PTR __real@3fe0000000000000
	cvtsd2ss xmm0, xmm0
	movss	DWORD PTR _src$[ebp+80], xmm0

; 1732 : 		src.m_flRadiusVelocity = 0;

	xorps	xmm0, xmm0
	movss	DWORD PTR _src$[ebp+84], xmm0

; 1733 : 		src.m_flLength = 8 + RANDOM_FLOAT( -4, 4 );

	push	ecx
	movss	xmm0, DWORD PTR __real@40800000
	movss	DWORD PTR [esp], xmm0
	push	ecx
	movss	xmm0, DWORD PTR __real@c0800000
	movss	DWORD PTR [esp], xmm0
	call	DWORD PTR ?gEngfuncs@@3Ucl_enginefuncs_s@@A+268
	add	esp, 8
	fstp	DWORD PTR tv530[ebp]
	movss	xmm0, DWORD PTR tv530[ebp]
	addss	xmm0, DWORD PTR __real@41000000
	movss	DWORD PTR _src$[ebp+88], xmm0

; 1734 : 		src.m_flLengthVelocity = 8 + RANDOM_FLOAT( -4, 4 );

	push	ecx
	movss	xmm0, DWORD PTR __real@40800000
	movss	DWORD PTR [esp], xmm0
	push	ecx
	movss	xmm0, DWORD PTR __real@c0800000
	movss	DWORD PTR [esp], xmm0
	call	DWORD PTR ?gEngfuncs@@3Ucl_enginefuncs_s@@A+268
	add	esp, 8
	fstp	DWORD PTR tv539[ebp]
	movss	xmm0, DWORD PTR tv539[ebp]
	addss	xmm0, DWORD PTR __real@41000000
	movss	DWORD PTR _src$[ebp+92], xmm0

; 1735 : 		src.m_flRotation = 0;

	xorps	xmm0, xmm0
	movss	DWORD PTR _src$[ebp+96], xmm0

; 1736 : 		src.m_flRotationVelocity = 0;

	xorps	xmm0, xmm0
	movss	DWORD PTR _src$[ebp+100], xmm0

; 1737 : 		src.m_flBounceFactor = 0.2;

	movss	xmm0, DWORD PTR __real@3e4ccccd
	movss	DWORD PTR _src$[ebp+104], xmm0

; 1738 : 		src.m_flDistance = 1500;

	movss	xmm0, DWORD PTR __real@44bb8000
	movss	DWORD PTR _src$[ebp+108], xmm0

; 1739 : 		src.ParticleType = TYPE_SPARKS;

	mov	DWORD PTR _src$[ebp+144], 2

; 1740 : 		src.EntIndex = EntIndex;

	mov	eax, DWORD PTR _EntIndex$[ebp]
	mov	DWORD PTR _src$[ebp+168], eax

; 1741 : 
; 1742 : 		if( !AddParticle( &src, m_hSparks, flags ))

	mov	eax, DWORD PTR _flags$[ebp]
	push	eax
	mov	ecx, DWORD PTR _this$[ebp]
	mov	edx, DWORD PTR [ecx+2911248]
	push	edx
	lea	eax, DWORD PTR _src$[ebp]
	push	eax
	mov	ecx, DWORD PTR _this$[ebp]
	call	?AddParticle@CQuakePartSystem@@QAE_NPAVCQuakePart@@HH@Z ; CQuakePartSystem::AddParticle
	movzx	ecx, al
	test	ecx, ecx
	jne	SHORT $LN15@ExplosionP

; 1743 : 			break;

	jmp	SHORT $LN3@ExplosionP
$LN15@ExplosionP:

; 1744 : 	}

	jmp	$LN2@ExplosionP
$LN3@ExplosionP:

; 1745 : 
; 1746 : 	// smoke
; 1747 : 	flags = (FPART_VERTEXLIGHT | FPART_NOTWATER);

	mov	DWORD PTR _flags$[ebp], 132		; 00000084H

; 1748 : 
; 1749 : 	for( i = 0; i < 5; i++ )

	mov	DWORD PTR _i$[ebp], 0
	jmp	SHORT $LN7@ExplosionP
$LN5@ExplosionP:
	mov	eax, DWORD PTR _i$[ebp]
	add	eax, 1
	mov	DWORD PTR _i$[ebp], eax
$LN7@ExplosionP:
	cmp	DWORD PTR _i$[ebp], 5
	jge	$LN6@ExplosionP

; 1750 : 	{
; 1751 : 		src.m_vecOrigin.x = pos.x + RANDOM_FLOAT( -10, 10 );

	push	ecx
	movss	xmm0, DWORD PTR __real@41200000
	movss	DWORD PTR [esp], xmm0
	push	ecx
	movss	xmm0, DWORD PTR __real@c1200000
	movss	DWORD PTR [esp], xmm0
	call	DWORD PTR ?gEngfuncs@@3Ucl_enginefuncs_s@@A+268
	add	esp, 8
	fstp	DWORD PTR tv559[ebp]
	mov	eax, DWORD PTR _pos$[ebp]
	movss	xmm0, DWORD PTR tv559[ebp]
	addss	xmm0, DWORD PTR [eax]
	movss	DWORD PTR _src$[ebp], xmm0

; 1752 : 		src.m_vecOrigin.y = pos.y + RANDOM_FLOAT( -10, 10 );

	push	ecx
	movss	xmm0, DWORD PTR __real@41200000
	movss	DWORD PTR [esp], xmm0
	push	ecx
	movss	xmm0, DWORD PTR __real@c1200000
	movss	DWORD PTR [esp], xmm0
	call	DWORD PTR ?gEngfuncs@@3Ucl_enginefuncs_s@@A+268
	add	esp, 8
	fstp	DWORD PTR tv569[ebp]
	mov	eax, DWORD PTR _pos$[ebp]
	movss	xmm0, DWORD PTR tv569[ebp]
	addss	xmm0, DWORD PTR [eax+4]
	movss	DWORD PTR _src$[ebp+4], xmm0

; 1753 : 		src.m_vecOrigin.z = pos.z + RANDOM_FLOAT( -10, 10 );

	push	ecx
	movss	xmm0, DWORD PTR __real@41200000
	movss	DWORD PTR [esp], xmm0
	push	ecx
	movss	xmm0, DWORD PTR __real@c1200000
	movss	DWORD PTR [esp], xmm0
	call	DWORD PTR ?gEngfuncs@@3Ucl_enginefuncs_s@@A+268
	add	esp, 8
	fstp	DWORD PTR tv579[ebp]
	mov	eax, DWORD PTR _pos$[ebp]
	movss	xmm0, DWORD PTR tv579[ebp]
	addss	xmm0, DWORD PTR [eax+8]
	movss	DWORD PTR _src$[ebp+8], xmm0

; 1754 : 		src.m_vecVelocity.x = RANDOM_FLOAT( -10, 10 );

	push	ecx
	movss	xmm0, DWORD PTR __real@41200000
	movss	DWORD PTR [esp], xmm0
	push	ecx
	movss	xmm0, DWORD PTR __real@c1200000
	movss	DWORD PTR [esp], xmm0
	call	DWORD PTR ?gEngfuncs@@3Ucl_enginefuncs_s@@A+268
	add	esp, 8
	fstp	DWORD PTR _src$[ebp+24]

; 1755 : 		src.m_vecVelocity.y = RANDOM_FLOAT( -10, 10 );

	push	ecx
	movss	xmm0, DWORD PTR __real@41200000
	movss	DWORD PTR [esp], xmm0
	push	ecx
	movss	xmm0, DWORD PTR __real@c1200000
	movss	DWORD PTR [esp], xmm0
	call	DWORD PTR ?gEngfuncs@@3Ucl_enginefuncs_s@@A+268
	add	esp, 8
	fstp	DWORD PTR _src$[ebp+28]

; 1756 : 		src.m_vecVelocity.z = RANDOM_FLOAT( -10, 10 ) + RANDOM_FLOAT( -5, 5 ) + 25;

	push	ecx
	movss	xmm0, DWORD PTR __real@41200000
	movss	DWORD PTR [esp], xmm0
	push	ecx
	movss	xmm0, DWORD PTR __real@c1200000
	movss	DWORD PTR [esp], xmm0
	call	DWORD PTR ?gEngfuncs@@3Ucl_enginefuncs_s@@A+268
	add	esp, 8
	fstp	DWORD PTR tv601[ebp]
	movss	xmm0, DWORD PTR tv601[ebp]
	push	ecx
	movss	xmm1, DWORD PTR __real@40a00000
	movss	DWORD PTR [esp], xmm1
	push	ecx
	movss	xmm1, DWORD PTR __real@c0a00000
	movss	DWORD PTR [esp], xmm1
	movss	DWORD PTR tv938[ebp], xmm0
	call	DWORD PTR ?gEngfuncs@@3Ucl_enginefuncs_s@@A+268
	add	esp, 8
	fstp	DWORD PTR tv609[ebp]
	movss	xmm0, DWORD PTR tv938[ebp]
	addss	xmm0, DWORD PTR tv609[ebp]
	addss	xmm0, DWORD PTR __real@41c80000
	movss	DWORD PTR _src$[ebp+32], xmm0

; 1757 : 		src.m_vecAccel = Vector( 0, 0, 0 );

	push	ecx
	xorps	xmm0, xmm0
	movss	DWORD PTR [esp], xmm0
	push	ecx
	xorps	xmm0, xmm0
	movss	DWORD PTR [esp], xmm0
	push	ecx
	xorps	xmm0, xmm0
	movss	DWORD PTR [esp], xmm0
	lea	ecx, DWORD PTR $T9[ebp]
	call	??0Vector@@QAE@MMM@Z			; Vector::Vector
	mov	ecx, DWORD PTR [eax]
	mov	DWORD PTR _src$[ebp+36], ecx
	mov	edx, DWORD PTR [eax+4]
	mov	DWORD PTR _src$[ebp+40], edx
	mov	eax, DWORD PTR [eax+8]
	mov	DWORD PTR _src$[ebp+44], eax

; 1758 : 		src.m_vecColor = Vector( 0, 0, 0 );

	push	ecx
	xorps	xmm0, xmm0
	movss	DWORD PTR [esp], xmm0
	push	ecx
	xorps	xmm0, xmm0
	movss	DWORD PTR [esp], xmm0
	push	ecx
	xorps	xmm0, xmm0
	movss	DWORD PTR [esp], xmm0
	lea	ecx, DWORD PTR $T8[ebp]
	call	??0Vector@@QAE@MMM@Z			; Vector::Vector
	mov	ecx, DWORD PTR [eax]
	mov	DWORD PTR _src$[ebp+48], ecx
	mov	edx, DWORD PTR [eax+4]
	mov	DWORD PTR _src$[ebp+52], edx
	mov	eax, DWORD PTR [eax+8]
	mov	DWORD PTR _src$[ebp+56], eax

; 1759 : 		src.m_vecColorVelocity = Vector( 0.75, 0.75, 0.75 );

	push	ecx
	movss	xmm0, DWORD PTR __real@3f400000
	movss	DWORD PTR [esp], xmm0
	push	ecx
	movss	xmm0, DWORD PTR __real@3f400000
	movss	DWORD PTR [esp], xmm0
	push	ecx
	movss	xmm0, DWORD PTR __real@3f400000
	movss	DWORD PTR [esp], xmm0
	lea	ecx, DWORD PTR $T7[ebp]
	call	??0Vector@@QAE@MMM@Z			; Vector::Vector
	mov	ecx, DWORD PTR [eax]
	mov	DWORD PTR _src$[ebp+60], ecx
	mov	edx, DWORD PTR [eax+4]
	mov	DWORD PTR _src$[ebp+64], edx
	mov	eax, DWORD PTR [eax+8]
	mov	DWORD PTR _src$[ebp+68], eax

; 1760 : 		src.m_flAlpha = 0.5;

	movss	xmm0, DWORD PTR __real@3f000000
	movss	DWORD PTR _src$[ebp+72], xmm0

; 1761 : 		src.m_flStartAlpha = 0.0f;

	xorps	xmm0, xmm0
	movss	DWORD PTR _src$[ebp+112], xmm0

; 1762 : 		src.m_flAlphaVelocity = RANDOM_FLOAT( -0.1, -0.2 );

	push	ecx
	movss	xmm0, DWORD PTR __real@be4ccccd
	movss	DWORD PTR [esp], xmm0
	push	ecx
	movss	xmm0, DWORD PTR __real@bdcccccd
	movss	DWORD PTR [esp], xmm0
	call	DWORD PTR ?gEngfuncs@@3Ucl_enginefuncs_s@@A+268
	add	esp, 8
	fstp	DWORD PTR _src$[ebp+76]

; 1763 : 		src.m_flRadius = 30 + RANDOM_FLOAT( -15, 15 );

	push	ecx
	movss	xmm0, DWORD PTR __real@41700000
	movss	DWORD PTR [esp], xmm0
	push	ecx
	movss	xmm0, DWORD PTR __real@c1700000
	movss	DWORD PTR [esp], xmm0
	call	DWORD PTR ?gEngfuncs@@3Ucl_enginefuncs_s@@A+268
	add	esp, 8
	fstp	DWORD PTR tv670[ebp]
	movss	xmm0, DWORD PTR tv670[ebp]
	addss	xmm0, DWORD PTR __real@41f00000
	movss	DWORD PTR _src$[ebp+80], xmm0

; 1764 : 		src.m_flRadiusVelocity = 15 + RANDOM_FLOAT( -7.5, 7.5 );

	push	ecx
	movss	xmm0, DWORD PTR __real@40f00000
	movss	DWORD PTR [esp], xmm0
	push	ecx
	movss	xmm0, DWORD PTR __real@c0f00000
	movss	DWORD PTR [esp], xmm0
	call	DWORD PTR ?gEngfuncs@@3Ucl_enginefuncs_s@@A+268
	add	esp, 8
	fstp	DWORD PTR tv679[ebp]
	movss	xmm0, DWORD PTR tv679[ebp]
	addss	xmm0, DWORD PTR __real@41700000
	movss	DWORD PTR _src$[ebp+84], xmm0

; 1765 : 		src.m_flLength = 1;

	movss	xmm0, DWORD PTR __real@3f800000
	movss	DWORD PTR _src$[ebp+88], xmm0

; 1766 : 		src.m_flLengthVelocity = 0;

	xorps	xmm0, xmm0
	movss	DWORD PTR _src$[ebp+92], xmm0

; 1767 : 		src.m_flRotation = RANDOM_LONG( 0, 360 );

	push	360					; 00000168H
	push	0
	call	DWORD PTR ?gEngfuncs@@3Ucl_enginefuncs_s@@A+272
	add	esp, 8
	cvtsi2ss xmm0, eax
	movss	DWORD PTR _src$[ebp+96], xmm0

; 1768 : 		src.m_flRotationVelocity = 0;

	xorps	xmm0, xmm0
	movss	DWORD PTR _src$[ebp+100], xmm0

; 1769 : 		src.m_flDistance = 0;

	xorps	xmm0, xmm0
	movss	DWORD PTR _src$[ebp+108], xmm0

; 1770 : 		src.ParticleType = TYPE_SMOKE;

	mov	DWORD PTR _src$[ebp+144], 3

; 1771 : 		src.EntIndex = EntIndex;

	mov	eax, DWORD PTR _EntIndex$[ebp]
	mov	DWORD PTR _src$[ebp+168], eax

; 1772 : 
; 1773 : 		if( !AddParticle( &src, m_hSmoke, flags ))

	mov	eax, DWORD PTR _flags$[ebp]
	push	eax
	mov	ecx, DWORD PTR _this$[ebp]
	mov	edx, DWORD PTR [ecx+2911252]
	push	edx
	lea	eax, DWORD PTR _src$[ebp]
	push	eax
	mov	ecx, DWORD PTR _this$[ebp]
	call	?AddParticle@CQuakePartSystem@@QAE_NPAVCQuakePart@@HH@Z ; CQuakePartSystem::AddParticle
	movzx	ecx, al
	test	ecx, ecx
	jne	SHORT $LN16@ExplosionP

; 1774 : 			break;

	jmp	SHORT $LN6@ExplosionP
$LN16@ExplosionP:

; 1775 : 	}

	jmp	$LN5@ExplosionP
$LN6@ExplosionP:

; 1776 : 
; 1777 : 	// smoke ring
; 1778 : 	flags = (FPART_VERTEXLIGHT | FPART_NOTWATER);

	mov	DWORD PTR _flags$[ebp], 132		; 00000084H

; 1779 : 
; 1780 : 	for( i = 0; i < 50; i++ )

	mov	DWORD PTR _i$[ebp], 0
	jmp	SHORT $LN10@ExplosionP
$LN8@ExplosionP:
	mov	eax, DWORD PTR _i$[ebp]
	add	eax, 1
	mov	DWORD PTR _i$[ebp], eax
$LN10@ExplosionP:
	cmp	DWORD PTR _i$[ebp], 50			; 00000032H
	jge	$LN9@ExplosionP

; 1781 : 	{
; 1782 : 		src.m_vecOrigin.x = pos.x + RANDOM_FLOAT( -10, 10 );

	push	ecx
	movss	xmm0, DWORD PTR __real@41200000
	movss	DWORD PTR [esp], xmm0
	push	ecx
	movss	xmm0, DWORD PTR __real@c1200000
	movss	DWORD PTR [esp], xmm0
	call	DWORD PTR ?gEngfuncs@@3Ucl_enginefuncs_s@@A+268
	add	esp, 8
	fstp	DWORD PTR tv700[ebp]
	mov	eax, DWORD PTR _pos$[ebp]
	movss	xmm0, DWORD PTR tv700[ebp]
	addss	xmm0, DWORD PTR [eax]
	movss	DWORD PTR _src$[ebp], xmm0

; 1783 : 		src.m_vecOrigin.y = pos.y + RANDOM_FLOAT( -10, 10 );

	push	ecx
	movss	xmm0, DWORD PTR __real@41200000
	movss	DWORD PTR [esp], xmm0
	push	ecx
	movss	xmm0, DWORD PTR __real@c1200000
	movss	DWORD PTR [esp], xmm0
	call	DWORD PTR ?gEngfuncs@@3Ucl_enginefuncs_s@@A+268
	add	esp, 8
	fstp	DWORD PTR tv710[ebp]
	mov	eax, DWORD PTR _pos$[ebp]
	movss	xmm0, DWORD PTR tv710[ebp]
	addss	xmm0, DWORD PTR [eax+4]
	movss	DWORD PTR _src$[ebp+4], xmm0

; 1784 : 		src.m_vecOrigin.z = pos.z + RANDOM_FLOAT( -10, 10 );

	push	ecx
	movss	xmm0, DWORD PTR __real@41200000
	movss	DWORD PTR [esp], xmm0
	push	ecx
	movss	xmm0, DWORD PTR __real@c1200000
	movss	DWORD PTR [esp], xmm0
	call	DWORD PTR ?gEngfuncs@@3Ucl_enginefuncs_s@@A+268
	add	esp, 8
	fstp	DWORD PTR tv720[ebp]
	mov	eax, DWORD PTR _pos$[ebp]
	movss	xmm0, DWORD PTR tv720[ebp]
	addss	xmm0, DWORD PTR [eax+8]
	movss	DWORD PTR _src$[ebp+8], xmm0

; 1785 : 		src.m_vecVelocity.x = RANDOM_FLOAT( -75, 75 );

	push	ecx
	movss	xmm0, DWORD PTR __real@42960000
	movss	DWORD PTR [esp], xmm0
	push	ecx
	movss	xmm0, DWORD PTR __real@c2960000
	movss	DWORD PTR [esp], xmm0
	call	DWORD PTR ?gEngfuncs@@3Ucl_enginefuncs_s@@A+268
	add	esp, 8
	fstp	DWORD PTR _src$[ebp+24]

; 1786 : 		src.m_vecVelocity.y = RANDOM_FLOAT( -75, 75 );

	push	ecx
	movss	xmm0, DWORD PTR __real@42960000
	movss	DWORD PTR [esp], xmm0
	push	ecx
	movss	xmm0, DWORD PTR __real@c2960000
	movss	DWORD PTR [esp], xmm0
	call	DWORD PTR ?gEngfuncs@@3Ucl_enginefuncs_s@@A+268
	add	esp, 8
	fstp	DWORD PTR _src$[ebp+28]

; 1787 : 		src.m_vecVelocity.z = 0;

	xorps	xmm0, xmm0
	movss	DWORD PTR _src$[ebp+32], xmm0

; 1788 : 		src.m_vecAccel = -0.2 * src.m_vecVelocity;

	lea	eax, DWORD PTR _src$[ebp+24]
	push	eax
	push	ecx
	movss	xmm0, DWORD PTR __real@be4ccccd
	movss	DWORD PTR [esp], xmm0
	lea	ecx, DWORD PTR $T6[ebp]
	push	ecx
	call	??D@YA?AVVector@@MABV0@@Z		; operator*
	add	esp, 12					; 0000000cH
	mov	edx, DWORD PTR [eax]
	mov	DWORD PTR _src$[ebp+36], edx
	mov	ecx, DWORD PTR [eax+4]
	mov	DWORD PTR _src$[ebp+40], ecx
	mov	edx, DWORD PTR [eax+8]
	mov	DWORD PTR _src$[ebp+44], edx

; 1789 : 		src.m_vecColor = Vector( 0.2, 0.2, 0.2 );

	push	ecx
	movss	xmm0, DWORD PTR __real@3e4ccccd
	movss	DWORD PTR [esp], xmm0
	push	ecx
	movss	xmm0, DWORD PTR __real@3e4ccccd
	movss	DWORD PTR [esp], xmm0
	push	ecx
	movss	xmm0, DWORD PTR __real@3e4ccccd
	movss	DWORD PTR [esp], xmm0
	lea	ecx, DWORD PTR $T5[ebp]
	call	??0Vector@@QAE@MMM@Z			; Vector::Vector
	mov	ecx, DWORD PTR [eax]
	mov	DWORD PTR _src$[ebp+48], ecx
	mov	edx, DWORD PTR [eax+4]
	mov	DWORD PTR _src$[ebp+52], edx
	mov	eax, DWORD PTR [eax+8]
	mov	DWORD PTR _src$[ebp+56], eax

; 1790 : 		src.m_vecColorVelocity = Vector( 0, 0, 0 );

	push	ecx
	xorps	xmm0, xmm0
	movss	DWORD PTR [esp], xmm0
	push	ecx
	xorps	xmm0, xmm0
	movss	DWORD PTR [esp], xmm0
	push	ecx
	xorps	xmm0, xmm0
	movss	DWORD PTR [esp], xmm0
	lea	ecx, DWORD PTR $T4[ebp]
	call	??0Vector@@QAE@MMM@Z			; Vector::Vector
	mov	ecx, DWORD PTR [eax]
	mov	DWORD PTR _src$[ebp+60], ecx
	mov	edx, DWORD PTR [eax+4]
	mov	DWORD PTR _src$[ebp+64], edx
	mov	eax, DWORD PTR [eax+8]
	mov	DWORD PTR _src$[ebp+68], eax

; 1791 : 		src.m_flAlpha = 0.5;

	movss	xmm0, DWORD PTR __real@3f000000
	movss	DWORD PTR _src$[ebp+72], xmm0

; 1792 : 		src.m_flStartAlpha = 0.0f;

	xorps	xmm0, xmm0
	movss	DWORD PTR _src$[ebp+112], xmm0

; 1793 : 		src.m_flAlphaVelocity = RANDOM_FLOAT( -0.1, -0.2 );

	push	ecx
	movss	xmm0, DWORD PTR __real@be4ccccd
	movss	DWORD PTR [esp], xmm0
	push	ecx
	movss	xmm0, DWORD PTR __real@bdcccccd
	movss	DWORD PTR [esp], xmm0
	call	DWORD PTR ?gEngfuncs@@3Ucl_enginefuncs_s@@A+268
	add	esp, 8
	fstp	DWORD PTR _src$[ebp+76]

; 1794 : 		src.m_flRadius = 20 + RANDOM_FLOAT( -7, 7 );

	push	ecx
	movss	xmm0, DWORD PTR __real@40e00000
	movss	DWORD PTR [esp], xmm0
	push	ecx
	movss	xmm0, DWORD PTR __real@c0e00000
	movss	DWORD PTR [esp], xmm0
	call	DWORD PTR ?gEngfuncs@@3Ucl_enginefuncs_s@@A+268
	add	esp, 8
	fstp	DWORD PTR tv794[ebp]
	movss	xmm0, DWORD PTR tv794[ebp]
	addss	xmm0, DWORD PTR __real@41a00000
	movss	DWORD PTR _src$[ebp+80], xmm0

; 1795 : 		src.m_flRadiusVelocity = 0;

	xorps	xmm0, xmm0
	movss	DWORD PTR _src$[ebp+84], xmm0

; 1796 : 		src.m_flLength = 1;

	movss	xmm0, DWORD PTR __real@3f800000
	movss	DWORD PTR _src$[ebp+88], xmm0

; 1797 : 		src.m_flLengthVelocity = 0;

	xorps	xmm0, xmm0
	movss	DWORD PTR _src$[ebp+92], xmm0

; 1798 : 		src.m_flRotation = RANDOM_LONG( 0, 360 );

	push	360					; 00000168H
	push	0
	call	DWORD PTR ?gEngfuncs@@3Ucl_enginefuncs_s@@A+272
	add	esp, 8
	cvtsi2ss xmm0, eax
	movss	DWORD PTR _src$[ebp+96], xmm0

; 1799 : 		src.m_flRotationVelocity = RANDOM_LONG( -15, 15);

	push	15					; 0000000fH
	push	-15					; fffffff1H
	call	DWORD PTR ?gEngfuncs@@3Ucl_enginefuncs_s@@A+272
	add	esp, 8
	cvtsi2ss xmm0, eax
	movss	DWORD PTR _src$[ebp+100], xmm0

; 1800 : 		src.m_flDistance = 1500;

	movss	xmm0, DWORD PTR __real@44bb8000
	movss	DWORD PTR _src$[ebp+108], xmm0

; 1801 : 		src.ParticleType = TYPE_SMOKE;

	mov	DWORD PTR _src$[ebp+144], 3

; 1802 : 		src.EntIndex = EntIndex;

	mov	eax, DWORD PTR _EntIndex$[ebp]
	mov	DWORD PTR _src$[ebp+168], eax

; 1803 : 
; 1804 : 		if( !AddParticle( &src, m_hSmoke, flags ) )

	mov	eax, DWORD PTR _flags$[ebp]
	push	eax
	mov	ecx, DWORD PTR _this$[ebp]
	mov	edx, DWORD PTR [ecx+2911252]
	push	edx
	lea	eax, DWORD PTR _src$[ebp]
	push	eax
	mov	ecx, DWORD PTR _this$[ebp]
	call	?AddParticle@CQuakePartSystem@@QAE_NPAVCQuakePart@@HH@Z ; CQuakePartSystem::AddParticle
	movzx	ecx, al
	test	ecx, ecx
	jne	SHORT $LN17@ExplosionP

; 1805 : 			break;

	jmp	SHORT $LN9@ExplosionP
$LN17@ExplosionP:

; 1806 : 	}

	jmp	$LN8@ExplosionP
$LN9@ExplosionP:

; 1807 : 
; 1808 : 	// explosion fireballs
; 1809 : 	flags = FPART_NOTWATER;

	mov	DWORD PTR _flags$[ebp], 128		; 00000080H

; 1810 : 
; 1811 : 	for( i = 0; i < 30; i++ )

	mov	DWORD PTR _i$[ebp], 0
	jmp	SHORT $LN13@ExplosionP
$LN11@ExplosionP:
	mov	eax, DWORD PTR _i$[ebp]
	add	eax, 1
	mov	DWORD PTR _i$[ebp], eax
$LN13@ExplosionP:
	cmp	DWORD PTR _i$[ebp], 30			; 0000001eH
	jge	$LN12@ExplosionP

; 1812 : 	{
; 1813 : 		src.m_vecOrigin.x = pos.x + RANDOM_FLOAT( -7.5f, 7.5f );

	push	ecx
	movss	xmm0, DWORD PTR __real@40f00000
	movss	DWORD PTR [esp], xmm0
	push	ecx
	movss	xmm0, DWORD PTR __real@c0f00000
	movss	DWORD PTR [esp], xmm0
	call	DWORD PTR ?gEngfuncs@@3Ucl_enginefuncs_s@@A+268
	add	esp, 8
	fstp	DWORD PTR tv816[ebp]
	mov	eax, DWORD PTR _pos$[ebp]
	movss	xmm0, DWORD PTR tv816[ebp]
	addss	xmm0, DWORD PTR [eax]
	movss	DWORD PTR _src$[ebp], xmm0

; 1814 : 		src.m_vecOrigin.y = pos.y + RANDOM_FLOAT( -7.5f, 7.5 );

	push	ecx
	movss	xmm0, DWORD PTR __real@40f00000
	movss	DWORD PTR [esp], xmm0
	push	ecx
	movss	xmm0, DWORD PTR __real@c0f00000
	movss	DWORD PTR [esp], xmm0
	call	DWORD PTR ?gEngfuncs@@3Ucl_enginefuncs_s@@A+268
	add	esp, 8
	fstp	DWORD PTR tv826[ebp]
	mov	eax, DWORD PTR _pos$[ebp]
	movss	xmm0, DWORD PTR tv826[ebp]
	addss	xmm0, DWORD PTR [eax+4]
	movss	DWORD PTR _src$[ebp+4], xmm0

; 1815 : 		src.m_vecOrigin.z = pos.z + RANDOM_FLOAT( 0, 30 );

	push	ecx
	movss	xmm0, DWORD PTR __real@41f00000
	movss	DWORD PTR [esp], xmm0
	push	ecx
	xorps	xmm0, xmm0
	movss	DWORD PTR [esp], xmm0
	call	DWORD PTR ?gEngfuncs@@3Ucl_enginefuncs_s@@A+268
	add	esp, 8
	fstp	DWORD PTR tv836[ebp]
	mov	eax, DWORD PTR _pos$[ebp]
	movss	xmm0, DWORD PTR tv836[ebp]
	addss	xmm0, DWORD PTR [eax+8]
	movss	DWORD PTR _src$[ebp+8], xmm0

; 1816 : 		src.m_vecVelocity.x = RANDOM_FLOAT( -25, 25 );

	push	ecx
	movss	xmm0, DWORD PTR __real@41c80000
	movss	DWORD PTR [esp], xmm0
	push	ecx
	movss	xmm0, DWORD PTR __real@c1c80000
	movss	DWORD PTR [esp], xmm0
	call	DWORD PTR ?gEngfuncs@@3Ucl_enginefuncs_s@@A+268
	add	esp, 8
	fstp	DWORD PTR _src$[ebp+24]

; 1817 : 		src.m_vecVelocity.y = RANDOM_FLOAT( -25, 25 );

	push	ecx
	movss	xmm0, DWORD PTR __real@41c80000
	movss	DWORD PTR [esp], xmm0
	push	ecx
	movss	xmm0, DWORD PTR __real@c1c80000
	movss	DWORD PTR [esp], xmm0
	call	DWORD PTR ?gEngfuncs@@3Ucl_enginefuncs_s@@A+268
	add	esp, 8
	fstp	DWORD PTR _src$[ebp+28]

; 1818 : 		src.m_vecVelocity.z = RANDOM_FLOAT( 30, 60 );

	push	ecx
	movss	xmm0, DWORD PTR __real@42700000
	movss	DWORD PTR [esp], xmm0
	push	ecx
	movss	xmm0, DWORD PTR __real@41f00000
	movss	DWORD PTR [esp], xmm0
	call	DWORD PTR ?gEngfuncs@@3Ucl_enginefuncs_s@@A+268
	add	esp, 8
	fstp	DWORD PTR _src$[ebp+32]

; 1819 : 		src.m_vecAccel = Vector( 0, 0, 0 );

	push	ecx
	xorps	xmm0, xmm0
	movss	DWORD PTR [esp], xmm0
	push	ecx
	xorps	xmm0, xmm0
	movss	DWORD PTR [esp], xmm0
	push	ecx
	xorps	xmm0, xmm0
	movss	DWORD PTR [esp], xmm0
	lea	ecx, DWORD PTR $T3[ebp]
	call	??0Vector@@QAE@MMM@Z			; Vector::Vector
	mov	ecx, DWORD PTR [eax]
	mov	DWORD PTR _src$[ebp+36], ecx
	mov	edx, DWORD PTR [eax+4]
	mov	DWORD PTR _src$[ebp+40], edx
	mov	eax, DWORD PTR [eax+8]
	mov	DWORD PTR _src$[ebp+44], eax

; 1820 : 		src.m_vecColor = Vector( 1, 1, 1 );

	push	ecx
	movss	xmm0, DWORD PTR __real@3f800000
	movss	DWORD PTR [esp], xmm0
	push	ecx
	movss	xmm0, DWORD PTR __real@3f800000
	movss	DWORD PTR [esp], xmm0
	push	ecx
	movss	xmm0, DWORD PTR __real@3f800000
	movss	DWORD PTR [esp], xmm0
	lea	ecx, DWORD PTR $T2[ebp]
	call	??0Vector@@QAE@MMM@Z			; Vector::Vector
	mov	ecx, DWORD PTR [eax]
	mov	DWORD PTR _src$[ebp+48], ecx
	mov	edx, DWORD PTR [eax+4]
	mov	DWORD PTR _src$[ebp+52], edx
	mov	eax, DWORD PTR [eax+8]
	mov	DWORD PTR _src$[ebp+56], eax

; 1821 : 		src.m_vecColorVelocity = Vector( 0, 0, 0 );

	push	ecx
	xorps	xmm0, xmm0
	movss	DWORD PTR [esp], xmm0
	push	ecx
	xorps	xmm0, xmm0
	movss	DWORD PTR [esp], xmm0
	push	ecx
	xorps	xmm0, xmm0
	movss	DWORD PTR [esp], xmm0
	lea	ecx, DWORD PTR $T1[ebp]
	call	??0Vector@@QAE@MMM@Z			; Vector::Vector
	mov	ecx, DWORD PTR [eax]
	mov	DWORD PTR _src$[ebp+60], ecx
	mov	edx, DWORD PTR [eax+4]
	mov	DWORD PTR _src$[ebp+64], edx
	mov	eax, DWORD PTR [eax+8]
	mov	DWORD PTR _src$[ebp+68], eax

; 1822 : 		src.m_flAlpha = 0.5;

	movss	xmm0, DWORD PTR __real@3f000000
	movss	DWORD PTR _src$[ebp+72], xmm0

; 1823 : 		src.m_flStartAlpha = 0.0f;

	xorps	xmm0, xmm0
	movss	DWORD PTR _src$[ebp+112], xmm0

; 1824 : 		src.m_flAlphaVelocity = RANDOM_FLOAT( -1.25, -0.85 );

	push	ecx
	movss	xmm0, DWORD PTR __real@bf59999a
	movss	DWORD PTR [esp], xmm0
	push	ecx
	movss	xmm0, DWORD PTR __real@bfa00000
	movss	DWORD PTR [esp], xmm0
	call	DWORD PTR ?gEngfuncs@@3Ucl_enginefuncs_s@@A+268
	add	esp, 8
	fstp	DWORD PTR _src$[ebp+76]

; 1825 : 		src.m_flRadius = 15 + RANDOM_FLOAT( 0, 25 );

	push	ecx
	movss	xmm0, DWORD PTR __real@41c80000
	movss	DWORD PTR [esp], xmm0
	push	ecx
	xorps	xmm0, xmm0
	movss	DWORD PTR [esp], xmm0
	call	DWORD PTR ?gEngfuncs@@3Ucl_enginefuncs_s@@A+268
	add	esp, 8
	fstp	DWORD PTR tv917[ebp]
	movss	xmm0, DWORD PTR tv917[ebp]
	addss	xmm0, DWORD PTR __real@41700000
	movss	DWORD PTR _src$[ebp+80], xmm0

; 1826 : 		src.m_flRadiusVelocity = RANDOM_FLOAT( 1, 4 );

	push	ecx
	movss	xmm0, DWORD PTR __real@40800000
	movss	DWORD PTR [esp], xmm0
	push	ecx
	movss	xmm0, DWORD PTR __real@3f800000
	movss	DWORD PTR [esp], xmm0
	call	DWORD PTR ?gEngfuncs@@3Ucl_enginefuncs_s@@A+268
	add	esp, 8
	fstp	DWORD PTR _src$[ebp+84]

; 1827 : 		src.m_flLength = 1;

	movss	xmm0, DWORD PTR __real@3f800000
	movss	DWORD PTR _src$[ebp+88], xmm0

; 1828 : 		src.m_flLengthVelocity = 0;

	xorps	xmm0, xmm0
	movss	DWORD PTR _src$[ebp+92], xmm0

; 1829 : 		src.m_flRotation = RANDOM_LONG( 0, 359 );

	push	359					; 00000167H
	push	0
	call	DWORD PTR ?gEngfuncs@@3Ucl_enginefuncs_s@@A+272
	add	esp, 8
	cvtsi2ss xmm0, eax
	movss	DWORD PTR _src$[ebp+96], xmm0

; 1830 : 		src.m_flRotationVelocity = RANDOM_LONG( -15, 15 );

	push	15					; 0000000fH
	push	-15					; fffffff1H
	call	DWORD PTR ?gEngfuncs@@3Ucl_enginefuncs_s@@A+272
	add	esp, 8
	cvtsi2ss xmm0, eax
	movss	DWORD PTR _src$[ebp+100], xmm0

; 1831 : 		src.m_flDistance = 0;

	xorps	xmm0, xmm0
	movss	DWORD PTR _src$[ebp+108], xmm0

; 1832 : 		src.ParticleType = TYPE_FIREBALL;

	mov	DWORD PTR _src$[ebp+144], 8

; 1833 : 		src.EntIndex = EntIndex;

	mov	eax, DWORD PTR _EntIndex$[ebp]
	mov	DWORD PTR _src$[ebp+168], eax

; 1834 : 
; 1835 : 		if( !AddParticle( &src, m_hExplosion, flags ) )

	mov	eax, DWORD PTR _flags$[ebp]
	push	eax
	mov	ecx, DWORD PTR _this$[ebp]
	mov	edx, DWORD PTR [ecx+2911276]
	push	edx
	lea	eax, DWORD PTR _src$[ebp]
	push	eax
	mov	ecx, DWORD PTR _this$[ebp]
	call	?AddParticle@CQuakePartSystem@@QAE_NPAVCQuakePart@@HH@Z ; CQuakePartSystem::AddParticle
	movzx	ecx, al
	test	ecx, ecx
	jne	SHORT $LN18@ExplosionP

; 1836 : 			break;

	jmp	SHORT $LN12@ExplosionP
$LN18@ExplosionP:

; 1837 : 	}

	jmp	$LN11@ExplosionP
$LN12@ExplosionP:
$LN1@ExplosionP:

; 1838 : }

	pop	edi
	pop	esi
	pop	ebx
	mov	esp, ebp
	pop	ebp
	ret	8
?ExplosionParticles@CQuakePartSystem@@QAEXHABVVector@@@Z ENDP ; CQuakePartSystem::ExplosionParticles
_TEXT	ENDS
; Function compile flags: /Odtp /ZI
; File d:\!diffusion 2020\source code 2022\client-server\client\render\r_quakeparticle.cpp
;	COMDAT ?DrawParticles@CQuakePartSystem@@QAEXAAV?$MemBlock@VCQuakePart@@@@@Z
_TEXT	SEGMENT
tv730 = -964						; size = 4
tv292 = -964						; size = 8
tv2037 = -960						; size = 8
tv880 = -960						; size = 4
tv876 = -960						; size = 4
tv872 = -960						; size = 4
tv729 = -960						; size = 4
tv654 = -960						; size = 4
tv305 = -960						; size = 4
tv274 = -960						; size = 4
tv262 = -960						; size = 4
tv250 = -960						; size = 4
tv1807 = -956						; size = 4
tv1505 = -956						; size = 4
tv879 = -956						; size = 4
tv875 = -956						; size = 4
tv871 = -956						; size = 4
tv726 = -956						; size = 4
tv653 = -956						; size = 4
tv559 = -956						; size = 4
tv303 = -956						; size = 4
tv290 = -956						; size = 4
tv273 = -956						; size = 4
tv261 = -956						; size = 4
tv249 = -956						; size = 4
$T1 = -952						; size = 12
$T2 = -940						; size = 12
$T3 = -928						; size = 12
$T4 = -916						; size = 12
$T5 = -904						; size = 12
$T6 = -892						; size = 12
$T7 = -880						; size = 12
$T8 = -868						; size = 12
$T9 = -856						; size = 12
$T10 = -844						; size = 12
$T11 = -832						; size = 12
$T12 = -820						; size = 12
$T13 = -808						; size = 12
$T14 = -796						; size = 12
$T15 = -784						; size = 12
$T16 = -772						; size = 12
$T17 = -760						; size = 12
$T18 = -748						; size = 12
$T19 = -736						; size = 12
$T20 = -724						; size = 12
$T21 = -712						; size = 12
$T22 = -700						; size = 12
$T23 = -688						; size = 12
$T24 = -676						; size = 12
$T25 = -664						; size = 12
$T26 = -652						; size = 12
$T27 = -640						; size = 12
$T28 = -628						; size = 12
$T29 = -616						; size = 12
$T30 = -604						; size = 12
$T31 = -592						; size = 12
$T32 = -580						; size = 12
$T33 = -568						; size = 12
$T34 = -556						; size = 12
$T35 = -544						; size = 12
$T36 = -532						; size = 12
$T37 = -520						; size = 12
$T38 = -508						; size = 12
_scale$39 = -368					; size = 4
_f$40 = -364						; size = 4
_light$41 = -360					; size = 12
_dot$42 = -348						; size = 4
_d$43 = -344						; size = 4
_pmtrace$44 = -340					; size = 68
_contents$45 = -272					; size = 4
_DistanceToParticle$46 = -268				; size = 4
_ent$47 = -264						; size = 4
_i$48 = -260						; size = 4
_curColor$49 = -256					; size = 12
_curRotation$50 = -244					; size = 4
_curLength$51 = -240					; size = 4
_curRadius$52 = -236					; size = 4
_curAlpha$53 = -232					; size = 4
_time2$54 = -228					; size = 4
_time$55 = -224						; size = 4
_vel$ = -220						; size = 12
_org3$ = -208						; size = 12
_org2$ = -196						; size = 12
_org$ = -184						; size = 12
_gravity$ = -172					; size = 4
_curParticle$ = -168					; size = 4
_absmax$ = -164						; size = 12
_absmin$ = -152						; size = 12
_verts$ = -140						; size = 48
_axis$ = -92						; size = 36
_ViewVec$ = -56						; size = 12
_Up$ = -44						; size = 12
_Right$ = -32						; size = 12
_Forward$ = -20						; size = 12
_this$ = -8						; size = 4
__$ArrayPad$ = -4					; size = 4
_ParticleArray$ = 8					; size = 4
?DrawParticles@CQuakePartSystem@@QAEXAAV?$MemBlock@VCQuakePart@@@@@Z PROC ; CQuakePartSystem::DrawParticles, COMDAT
; _this$ = ecx

; 55   : {				

	push	ebp
	mov	ebp, esp
	sub	esp, 964				; 000003c4H
	mov	eax, DWORD PTR ___security_cookie
	xor	eax, ebp
	mov	DWORD PTR __$ArrayPad$[ebp], eax
	push	ebx
	push	esi
	push	edi
	mov	DWORD PTR _this$[ebp], ecx

; 56   : 	if( !ParticleArray.StartPass() )

	mov	ecx, DWORD PTR _ParticleArray$[ebp]
	call	?StartPass@?$MemBlock@VCQuakePart@@@@QAE_NXZ ; MemBlock<CQuakePart>::StartPass
	movzx	eax, al
	test	eax, eax
	jne	SHORT $LN11@DrawPartic

; 57   : 		return;

	jmp	$LN1@DrawPartic
$LN11@DrawPartic:

; 58   : 
; 59   : 	Vector Forward, Right, Up, ViewVec;

	lea	ecx, DWORD PTR _Forward$[ebp]
	call	??0Vector@@QAE@XZ			; Vector::Vector
	lea	ecx, DWORD PTR _Right$[ebp]
	call	??0Vector@@QAE@XZ			; Vector::Vector
	lea	ecx, DWORD PTR _Up$[ebp]
	call	??0Vector@@QAE@XZ			; Vector::Vector
	lea	ecx, DWORD PTR _ViewVec$[ebp]
	call	??0Vector@@QAE@XZ			; Vector::Vector

; 60   : 	Vector axis[3], verts[4];

	push	OFFSET ??0Vector@@QAE@XZ		; Vector::Vector
	push	3
	push	12					; 0000000cH
	lea	eax, DWORD PTR _axis$[ebp]
	push	eax
	call	??_H@YGXPAXIIP6EPAX0@Z@Z
	push	OFFSET ??0Vector@@QAE@XZ		; Vector::Vector
	push	4
	push	12					; 0000000cH
	lea	eax, DWORD PTR _verts$[ebp]
	push	eax
	call	??_H@YGXPAXIIP6EPAX0@Z@Z

; 61   : 	Vector absmin, absmax;

	lea	ecx, DWORD PTR _absmin$[ebp]
	call	??0Vector@@QAE@XZ			; Vector::Vector
	lea	ecx, DWORD PTR _absmax$[ebp]
	call	??0Vector@@QAE@XZ			; Vector::Vector

; 62   : 	
; 63   : 	CQuakePart *curParticle = ParticleArray.GetCurrent();

	mov	ecx, DWORD PTR _ParticleArray$[ebp]
	call	?GetCurrent@?$MemBlock@VCQuakePart@@@@QAEPAVCQuakePart@@XZ ; MemBlock<CQuakePart>::GetCurrent
	mov	DWORD PTR _curParticle$[ebp], eax

; 64   : 
; 65   : 	if( ParticleArray.IsClear() )

	mov	ecx, DWORD PTR _ParticleArray$[ebp]
	call	?IsClear@?$MemBlock@VCQuakePart@@@@QAE_NXZ ; MemBlock<CQuakePart>::IsClear
	movzx	eax, al
	test	eax, eax
	je	SHORT $LN12@DrawPartic

; 66   : 		return; // no objects to draw

	jmp	$LN1@DrawPartic
$LN12@DrawPartic:

; 67   : 
; 68   : 	if( FBitSet( curParticle->m_iFlags, FPART_SKYBOX ) && !(RI->params & RP_SKYPORTALVIEW) )

	mov	eax, DWORD PTR _curParticle$[ebp]
	mov	ecx, DWORD PTR [eax+152]
	and	ecx, 1024				; 00000400H
	je	SHORT $LN13@DrawPartic
	mov	eax, DWORD PTR ?RI@@3PAUref_instance_t@@A ; RI
	mov	ecx, DWORD PTR [eax]
	and	ecx, 32					; 00000020H
	jne	SHORT $LN13@DrawPartic

; 69   : 		return;

	jmp	$LN1@DrawPartic
	jmp	SHORT $LN15@DrawPartic
$LN13@DrawPartic:

; 70   : 	else if( (RI->params & RP_SKYPORTALVIEW) && !FBitSet( curParticle->m_iFlags, FPART_SKYBOX ) )

	mov	eax, DWORD PTR ?RI@@3PAUref_instance_t@@A ; RI
	mov	ecx, DWORD PTR [eax]
	and	ecx, 32					; 00000020H
	je	SHORT $LN15@DrawPartic
	mov	eax, DWORD PTR _curParticle$[ebp]
	mov	ecx, DWORD PTR [eax+152]
	and	ecx, 1024				; 00000400H
	jne	SHORT $LN15@DrawPartic

; 71   : 		return;

	jmp	$LN1@DrawPartic
$LN15@DrawPartic:

; 72   : 
; 73   : 	// draw the particle
; 74   : 	if( !curParticle->m_hTexture )

	mov	eax, DWORD PTR _curParticle$[ebp]
	cmp	DWORD PTR [eax+140], 0
	jne	SHORT $LN16@DrawPartic

; 75   : 		return;

	jmp	$LN1@DrawPartic
$LN16@DrawPartic:

; 76   : 
; 77   : 	if( FBitSet( curParticle->m_iFlags, FPART_FLOATING_ORIENTED ) ) // some of them will be visible from underwater

	mov	eax, DWORD PTR _curParticle$[ebp]
	mov	ecx, DWORD PTR [eax+152]
	and	ecx, 4096				; 00001000H
	je	SHORT $LN17@DrawPartic

; 78   : 		GL_Cull( GL_NONE );

	push	0
	call	?GL_Cull@@YAXI@Z			; GL_Cull
	add	esp, 4

; 79   : 	else

	jmp	SHORT $LN18@DrawPartic
$LN17@DrawPartic:

; 80   : 		GL_Cull( GL_FRONT );

	push	1028					; 00000404H
	call	?GL_Cull@@YAXI@Z			; GL_Cull
	add	esp, 4
$LN18@DrawPartic:

; 81   : 
; 82   : 	m_iNumVerts = m_iNumIndex = 0;

	mov	DWORD PTR ?m_iNumIndex@@3HA, 0
	mov	eax, DWORD PTR ?m_iNumIndex@@3HA
	mov	DWORD PTR ?m_iNumVerts@@3HA, eax

; 83   : 
; 84   : 	pglEnableClientState( GL_VERTEX_ARRAY );

	push	32884					; 00008074H
	call	DWORD PTR ?pglEnableClientState@@3P6GXI@ZA ; pglEnableClientState

; 85   : 	pglVertexPointer( 3, GL_FLOAT, 0, m_vertexarray );

	push	OFFSET ?m_vertexarray@@3PAVVector@@A
	push	0
	push	5126					; 00001406H
	push	3
	call	DWORD PTR ?pglVertexPointer@@3P6GXHIHPBX@ZA ; pglVertexPointer

; 86   : 
; 87   : 	pglEnableClientState( GL_TEXTURE_COORD_ARRAY );

	push	32888					; 00008078H
	call	DWORD PTR ?pglEnableClientState@@3P6GXI@ZA ; pglEnableClientState

; 88   : 	pglTexCoordPointer( 2, GL_FLOAT, 0, m_coordsarray );

	push	OFFSET ?m_coordsarray@@3PAVVector2D@@A
	push	0
	push	5126					; 00001406H
	push	2
	call	DWORD PTR ?pglTexCoordPointer@@3P6GXHIHPBX@ZA ; pglTexCoordPointer

; 89   : 
; 90   : 	pglEnableClientState( GL_COLOR_ARRAY );

	push	32886					; 00008076H
	call	DWORD PTR ?pglEnableClientState@@3P6GXI@ZA ; pglEnableClientState

; 91   : 	pglColorPointer( 4, GL_UNSIGNED_BYTE, 0, m_colorarray );

	push	OFFSET ?m_colorarray@@3PAY03EA
	push	0
	push	5121					; 00001401H
	push	4
	call	DWORD PTR ?pglColorPointer@@3P6GXHIHPBX@ZA ; pglColorPointer

; 92   : 
; 93   : 	float gravity = tr.movevars->gravity * 0.0075f; // diffusion - the value must be fixed - frametime is jumping

	mov	eax, DWORD PTR ?tr@@3Uref_globals_t@@A+5830888
	movss	xmm0, DWORD PTR [eax]
	mulss	xmm0, DWORD PTR __real@3bf5c28f
	movss	DWORD PTR _gravity$[ebp], xmm0

; 94   : 	Vector org, org2, org3, vel;

	lea	ecx, DWORD PTR _org$[ebp]
	call	??0Vector@@QAE@XZ			; Vector::Vector
	lea	ecx, DWORD PTR _org2$[ebp]
	call	??0Vector@@QAE@XZ			; Vector::Vector
	lea	ecx, DWORD PTR _org3$[ebp]
	call	??0Vector@@QAE@XZ			; Vector::Vector
	lea	ecx, DWORD PTR _vel$[ebp]
	call	??0Vector@@QAE@XZ			; Vector::Vector

; 95   : 
; 96   : 	GL_Bind( GL_TEXTURE0, curParticle->m_hTexture );

	mov	eax, DWORD PTR _curParticle$[ebp]
	mov	ecx, DWORD PTR [eax+140]
	push	ecx
	push	0
	call	DWORD PTR ?gRenderfuncs@@3Urender_api_s@@A+132
	add	esp, 8
$LN118@DrawPartic:

; 97   : 
; 98   : 	while( curParticle != NULL )

	cmp	DWORD PTR _curParticle$[ebp], 0
	je	$LN3@DrawPartic

; 99   : 	{
; 100  : 		if( (m_iNumVerts + 4) >= 65536 )

	mov	eax, DWORD PTR ?m_iNumVerts@@3HA
	add	eax, 4
	cmp	eax, 65536				; 00010000H
	jl	$LN19@DrawPartic

; 101  : 		{
; 102  : 			// it's time to flush
; 103  : 			if( GL_Support( R_DRAW_RANGEELEMENTS_EXT ) )

	push	11					; 0000000bH
	call	?GL_Support@@YA_NH@Z			; GL_Support
	add	esp, 4
	movzx	eax, al
	test	eax, eax
	je	SHORT $LN20@DrawPartic

; 104  : 				pglDrawRangeElementsEXT( GL_QUADS, 0, m_iNumVerts, m_iNumIndex, GL_UNSIGNED_SHORT, m_indexarray );

	push	OFFSET ?m_indexarray@@3PAGA
	push	5123					; 00001403H
	mov	eax, DWORD PTR ?m_iNumIndex@@3HA
	push	eax
	mov	ecx, DWORD PTR ?m_iNumVerts@@3HA
	push	ecx
	push	0
	push	7
	call	DWORD PTR ?pglDrawRangeElementsEXT@@3P6GXIIIHIPBX@ZA ; pglDrawRangeElementsEXT
	jmp	SHORT $LN21@DrawPartic
$LN20@DrawPartic:

; 105  : 			else pglDrawElements( GL_QUADS, m_iNumIndex, GL_UNSIGNED_SHORT, m_indexarray );

	push	OFFSET ?m_indexarray@@3PAGA
	push	5123					; 00001403H
	mov	eax, DWORD PTR ?m_iNumIndex@@3HA
	push	eax
	push	7
	call	DWORD PTR ?pglDrawElements@@3P6GXIHIPBX@ZA ; pglDrawElements
$LN21@DrawPartic:

; 106  : 			r_stats.c_total_tris += (m_iNumVerts / 2);

	mov	eax, DWORD PTR ?m_iNumVerts@@3HA
	cdq
	sub	eax, edx
	sar	eax, 1
	add	eax, DWORD PTR ?r_stats@@3Uref_stats_t@@A+60
	mov	DWORD PTR ?r_stats@@3Uref_stats_t@@A+60, eax

; 107  : 			m_iNumVerts = m_iNumIndex = 0;

	mov	DWORD PTR ?m_iNumIndex@@3HA, 0
	mov	eax, DWORD PTR ?m_iNumIndex@@3HA
	mov	DWORD PTR ?m_iNumVerts@@3HA, eax

; 108  : 			r_stats.num_flushes++;

	mov	eax, DWORD PTR ?r_stats@@3Uref_stats_t@@A+88
	add	eax, 1
	mov	DWORD PTR ?r_stats@@3Uref_stats_t@@A+88, eax
$LN19@DrawPartic:

; 109  : 		}
; 110  : 
; 111  : 		// fadeout
; 112  : 		float time = (tr.time - curParticle->m_flTime);

	mov	eax, DWORD PTR _curParticle$[ebp]
	cvtss2sd xmm0, DWORD PTR [eax+148]
	movsd	xmm1, QWORD PTR ?tr@@3Uref_globals_t@@A+8
	subsd	xmm1, xmm0
	cvtsd2ss xmm0, xmm1
	movss	DWORD PTR _time$55[ebp], xmm0

; 113  : 		float time2 = time * time;

	movss	xmm0, DWORD PTR _time$55[ebp]
	mulss	xmm0, DWORD PTR _time$55[ebp]
	movss	DWORD PTR _time2$54[ebp], xmm0

; 114  : 		float curAlpha = curParticle->m_flAlpha + curParticle->m_flAlphaVelocity * time;

	mov	eax, DWORD PTR _curParticle$[ebp]
	movss	xmm0, DWORD PTR [eax+76]
	mulss	xmm0, DWORD PTR _time$55[ebp]
	mov	ecx, DWORD PTR _curParticle$[ebp]
	addss	xmm0, DWORD PTR [ecx+72]
	movss	DWORD PTR _curAlpha$53[ebp], xmm0

; 115  : 		float curRadius = curParticle->m_flRadius + curParticle->m_flRadiusVelocity * time;

	mov	eax, DWORD PTR _curParticle$[ebp]
	movss	xmm0, DWORD PTR [eax+84]
	mulss	xmm0, DWORD PTR _time$55[ebp]
	mov	ecx, DWORD PTR _curParticle$[ebp]
	addss	xmm0, DWORD PTR [ecx+80]
	movss	DWORD PTR _curRadius$52[ebp], xmm0

; 116  : 		float curLength = curParticle->m_flLength + curParticle->m_flLengthVelocity * time;

	mov	eax, DWORD PTR _curParticle$[ebp]
	movss	xmm0, DWORD PTR [eax+92]
	mulss	xmm0, DWORD PTR _time$55[ebp]
	mov	ecx, DWORD PTR _curParticle$[ebp]
	addss	xmm0, DWORD PTR [ecx+88]
	movss	DWORD PTR _curLength$51[ebp], xmm0

; 117  : 		float curRotation = curParticle->m_flRotation + curParticle->m_flRotationVelocity * time;

	mov	eax, DWORD PTR _curParticle$[ebp]
	movss	xmm0, DWORD PTR [eax+100]
	mulss	xmm0, DWORD PTR _time$55[ebp]
	mov	ecx, DWORD PTR _curParticle$[ebp]
	addss	xmm0, DWORD PTR [ecx+96]
	movss	DWORD PTR _curRotation$50[ebp], xmm0

; 118  : 		Vector curColor = curParticle->m_vecColor + curParticle->m_vecColorVelocity * time;

	push	ecx
	movss	xmm0, DWORD PTR _time$55[ebp]
	movss	DWORD PTR [esp], xmm0
	lea	eax, DWORD PTR $T38[ebp]
	push	eax
	mov	ecx, DWORD PTR _curParticle$[ebp]
	add	ecx, 60					; 0000003cH
	call	??DVector@@QBE?AV0@M@Z			; Vector::operator*
	push	eax
	lea	ecx, DWORD PTR _curColor$49[ebp]
	push	ecx
	mov	ecx, DWORD PTR _curParticle$[ebp]
	add	ecx, 48					; 00000030H
	call	??HVector@@QBE?AV0@ABV0@@Z		; Vector::operator+

; 119  : 		
; 120  : 		if( curParticle->ParticleType == TYPE_DUSTMOTE )

	mov	eax, DWORD PTR _curParticle$[ebp]
	cmp	DWORD PTR [eax+144], 1
	jne	$LN5@DrawPartic

; 121  : 		{
; 122  : 			// add velocity for nearby dustmotes
; 123  : 			for( int i = 1; i <= tr.viewparams.maxclients; i++ )

	mov	DWORD PTR _i$48[ebp], 1
	jmp	SHORT $LN6@DrawPartic
$LN4@DrawPartic:
	mov	eax, DWORD PTR _i$48[ebp]
	add	eax, 1
	mov	DWORD PTR _i$48[ebp], eax
$LN6@DrawPartic:
	mov	eax, DWORD PTR _i$48[ebp]
	cmp	eax, DWORD PTR ?tr@@3Uref_globals_t@@A+5830828
	jg	$LN5@DrawPartic

; 124  : 			{
; 125  : 				// find the closest guy to this dustmote
; 126  : 				cl_entity_t *ent = GET_ENTITY( i );

	mov	eax, DWORD PTR _i$48[ebp]
	push	eax
	call	DWORD PTR ?gEngfuncs@@3Ucl_enginefuncs_s@@A+212
	add	esp, 4
	mov	DWORD PTR _ent$47[ebp], eax

; 127  : 				if( !ent )

	cmp	DWORD PTR _ent$47[ebp], 0
	jne	SHORT $LN23@DrawPartic

; 128  : 					continue;

	jmp	SHORT $LN4@DrawPartic
$LN23@DrawPartic:

; 129  : 				if( (ent->curstate.origin - curParticle->m_vecOrigin).Length() < 150 )

	mov	eax, DWORD PTR _curParticle$[ebp]
	push	eax
	lea	ecx, DWORD PTR $T37[ebp]
	push	ecx
	mov	ecx, DWORD PTR _ent$47[ebp]
	add	ecx, 704				; 000002c0H
	call	??GVector@@QBE?AV0@ABV0@@Z		; Vector::operator-
	mov	ecx, eax
	call	?Length@Vector@@QBEMXZ			; Vector::Length
	fstp	DWORD PTR tv1505[ebp]
	movss	xmm0, DWORD PTR __real@43160000
	comiss	xmm0, DWORD PTR tv1505[ebp]
	jbe	$LN24@DrawPartic

; 130  : 				{
; 131  : 					curParticle->m_vecAddedVelocity += ent->curstate.velocity * 0.001;

	push	ecx
	movss	xmm0, DWORD PTR __real@3a83126f
	movss	DWORD PTR [esp], xmm0
	lea	eax, DWORD PTR $T36[ebp]
	push	eax
	mov	ecx, DWORD PTR _ent$47[ebp]
	add	ecx, 800				; 00000320H
	call	??DVector@@QBE?AV0@M@Z			; Vector::operator*
	push	eax
	mov	ecx, DWORD PTR _curParticle$[ebp]
	add	ecx, 116				; 00000074H
	call	??YVector@@QAEAAV0@ABV0@@Z		; Vector::operator+=

; 132  : 					curParticle->m_vecAddedVelocity.x = bound( -100, curParticle->m_vecAddedVelocity.x, 100 );

	mov	eax, DWORD PTR _curParticle$[ebp]
	movss	xmm0, DWORD PTR [eax+116]
	comiss	xmm0, DWORD PTR __real@c2c80000
	jb	SHORT $LN78@DrawPartic
	mov	ecx, DWORD PTR _curParticle$[ebp]
	movss	xmm0, DWORD PTR __real@42c80000
	comiss	xmm0, DWORD PTR [ecx+116]
	jbe	SHORT $LN76@DrawPartic
	mov	edx, DWORD PTR _curParticle$[ebp]
	movss	xmm0, DWORD PTR [edx+116]
	movss	DWORD PTR tv249[ebp], xmm0
	jmp	SHORT $LN77@DrawPartic
$LN76@DrawPartic:
	movss	xmm0, DWORD PTR __real@42c80000
	movss	DWORD PTR tv249[ebp], xmm0
$LN77@DrawPartic:
	movss	xmm0, DWORD PTR tv249[ebp]
	movss	DWORD PTR tv250[ebp], xmm0
	jmp	SHORT $LN79@DrawPartic
$LN78@DrawPartic:
	movss	xmm0, DWORD PTR __real@c2c80000
	movss	DWORD PTR tv250[ebp], xmm0
$LN79@DrawPartic:
	mov	eax, DWORD PTR _curParticle$[ebp]
	movss	xmm0, DWORD PTR tv250[ebp]
	movss	DWORD PTR [eax+116], xmm0

; 133  : 					curParticle->m_vecAddedVelocity.y = bound( -100, curParticle->m_vecAddedVelocity.y, 100 );

	mov	eax, DWORD PTR _curParticle$[ebp]
	movss	xmm0, DWORD PTR [eax+120]
	comiss	xmm0, DWORD PTR __real@c2c80000
	jb	SHORT $LN82@DrawPartic
	mov	ecx, DWORD PTR _curParticle$[ebp]
	movss	xmm0, DWORD PTR __real@42c80000
	comiss	xmm0, DWORD PTR [ecx+120]
	jbe	SHORT $LN80@DrawPartic
	mov	edx, DWORD PTR _curParticle$[ebp]
	movss	xmm0, DWORD PTR [edx+120]
	movss	DWORD PTR tv261[ebp], xmm0
	jmp	SHORT $LN81@DrawPartic
$LN80@DrawPartic:
	movss	xmm0, DWORD PTR __real@42c80000
	movss	DWORD PTR tv261[ebp], xmm0
$LN81@DrawPartic:
	movss	xmm0, DWORD PTR tv261[ebp]
	movss	DWORD PTR tv262[ebp], xmm0
	jmp	SHORT $LN83@DrawPartic
$LN82@DrawPartic:
	movss	xmm0, DWORD PTR __real@c2c80000
	movss	DWORD PTR tv262[ebp], xmm0
$LN83@DrawPartic:
	mov	eax, DWORD PTR _curParticle$[ebp]
	movss	xmm0, DWORD PTR tv262[ebp]
	movss	DWORD PTR [eax+120], xmm0

; 134  : 					curParticle->m_vecAddedVelocity.z = bound( -100, curParticle->m_vecAddedVelocity.z, 100 );

	mov	eax, DWORD PTR _curParticle$[ebp]
	movss	xmm0, DWORD PTR [eax+124]
	comiss	xmm0, DWORD PTR __real@c2c80000
	jb	SHORT $LN86@DrawPartic
	mov	ecx, DWORD PTR _curParticle$[ebp]
	movss	xmm0, DWORD PTR __real@42c80000
	comiss	xmm0, DWORD PTR [ecx+124]
	jbe	SHORT $LN84@DrawPartic
	mov	edx, DWORD PTR _curParticle$[ebp]
	movss	xmm0, DWORD PTR [edx+124]
	movss	DWORD PTR tv273[ebp], xmm0
	jmp	SHORT $LN85@DrawPartic
$LN84@DrawPartic:
	movss	xmm0, DWORD PTR __real@42c80000
	movss	DWORD PTR tv273[ebp], xmm0
$LN85@DrawPartic:
	movss	xmm0, DWORD PTR tv273[ebp]
	movss	DWORD PTR tv274[ebp], xmm0
	jmp	SHORT $LN87@DrawPartic
$LN86@DrawPartic:
	movss	xmm0, DWORD PTR __real@c2c80000
	movss	DWORD PTR tv274[ebp], xmm0
$LN87@DrawPartic:
	mov	eax, DWORD PTR _curParticle$[ebp]
	movss	xmm0, DWORD PTR tv274[ebp]
	movss	DWORD PTR [eax+124], xmm0

; 135  : 					break;

	jmp	SHORT $LN5@DrawPartic
$LN24@DrawPartic:

; 136  : 				}
; 137  : 			}

	jmp	$LN4@DrawPartic
$LN5@DrawPartic:

; 138  : 		}
; 139  : 
; 140  : 		if( (curParticle->m_iFlags & FPART_DISTANCESCALE) && (curParticle->m_flRadiusVelocity == 0.0f) )

	mov	eax, DWORD PTR _curParticle$[ebp]
	mov	ecx, DWORD PTR [eax+152]
	and	ecx, 512				; 00000200H
	je	$LN25@DrawPartic
	mov	eax, DWORD PTR _curParticle$[ebp]
	movss	xmm0, DWORD PTR [eax+84]
	ucomiss	xmm0, DWORD PTR __real@00000000
	lahf
	test	ah, 68					; 00000044H
	jp	$LN25@DrawPartic

; 141  : 		{
; 142  : 			float DistanceToParticle = (tr.viewparams.vieworg - curParticle->m_vecOrigin).Length();

	mov	eax, DWORD PTR _curParticle$[ebp]
	push	eax
	lea	ecx, DWORD PTR $T35[ebp]
	push	ecx
	mov	ecx, OFFSET ?tr@@3Uref_globals_t@@A+5830656
	call	??GVector@@QBE?AV0@ABV0@@Z		; Vector::operator-
	mov	ecx, eax
	call	?Length@Vector@@QBEMXZ			; Vector::Length
	fstp	DWORD PTR _DistanceToParticle$46[ebp]

; 143  : 			DistanceToParticle = bound( 0.1, DistanceToParticle, 1000 ) / 1000;

	cvtss2sd xmm0, DWORD PTR _DistanceToParticle$46[ebp]
	comisd	xmm0, QWORD PTR __real@3fb999999999999a
	jb	SHORT $LN90@DrawPartic
	movss	xmm0, DWORD PTR __real@447a0000
	comiss	xmm0, DWORD PTR _DistanceToParticle$46[ebp]
	jbe	SHORT $LN88@DrawPartic
	movss	xmm0, DWORD PTR _DistanceToParticle$46[ebp]
	movss	DWORD PTR tv290[ebp], xmm0
	jmp	SHORT $LN89@DrawPartic
$LN88@DrawPartic:
	movss	xmm0, DWORD PTR __real@447a0000
	movss	DWORD PTR tv290[ebp], xmm0
$LN89@DrawPartic:
	cvtss2sd xmm0, DWORD PTR tv290[ebp]
	movsd	QWORD PTR tv292[ebp], xmm0
	jmp	SHORT $LN91@DrawPartic
$LN90@DrawPartic:
	movsd	xmm0, QWORD PTR __real@3fb999999999999a
	movsd	QWORD PTR tv292[ebp], xmm0
$LN91@DrawPartic:
	movsd	xmm0, QWORD PTR tv292[ebp]
	divsd	xmm0, QWORD PTR __real@408f400000000000
	cvtsd2ss xmm0, xmm0
	movss	DWORD PTR _DistanceToParticle$46[ebp], xmm0

; 144  : 			curRadius = curParticle->m_flRadius * DistanceToParticle * 10;

	mov	eax, DWORD PTR _curParticle$[ebp]
	movss	xmm0, DWORD PTR [eax+80]
	mulss	xmm0, DWORD PTR _DistanceToParticle$46[ebp]
	mulss	xmm0, DWORD PTR __real@41200000
	movss	DWORD PTR _curRadius$52[ebp], xmm0

; 145  : 			curRadius = bound( curParticle->m_flMinScale, curRadius, curParticle->m_flMaxScale );

	mov	eax, DWORD PTR _curParticle$[ebp]
	movss	xmm0, DWORD PTR _curRadius$52[ebp]
	comiss	xmm0, DWORD PTR [eax+128]
	jb	SHORT $LN94@DrawPartic
	mov	ecx, DWORD PTR _curParticle$[ebp]
	movss	xmm0, DWORD PTR [ecx+132]
	comiss	xmm0, DWORD PTR _curRadius$52[ebp]
	jbe	SHORT $LN92@DrawPartic
	movss	xmm0, DWORD PTR _curRadius$52[ebp]
	movss	DWORD PTR tv303[ebp], xmm0
	jmp	SHORT $LN93@DrawPartic
$LN92@DrawPartic:
	mov	edx, DWORD PTR _curParticle$[ebp]
	movss	xmm0, DWORD PTR [edx+132]
	movss	DWORD PTR tv303[ebp], xmm0
$LN93@DrawPartic:
	movss	xmm0, DWORD PTR tv303[ebp]
	movss	DWORD PTR tv305[ebp], xmm0
	jmp	SHORT $LN95@DrawPartic
$LN94@DrawPartic:
	mov	eax, DWORD PTR _curParticle$[ebp]
	movss	xmm0, DWORD PTR [eax+128]
	movss	DWORD PTR tv305[ebp], xmm0
$LN95@DrawPartic:
	movss	xmm0, DWORD PTR tv305[ebp]
	movss	DWORD PTR _curRadius$52[ebp], xmm0
$LN25@DrawPartic:

; 146  : 		}
; 147  : 		
; 148  : 		if( FBitSet( curParticle->m_iFlags, FPART_FADEIN ) )

	mov	eax, DWORD PTR _curParticle$[ebp]
	mov	ecx, DWORD PTR [eax+152]
	and	ecx, 256				; 00000100H
	je	SHORT $LN26@DrawPartic

; 149  : 		{
; 150  : 			curAlpha = curParticle->m_flStartAlpha - curParticle->m_flAlphaVelocity * time;

	mov	eax, DWORD PTR _curParticle$[ebp]
	movss	xmm0, DWORD PTR [eax+76]
	mulss	xmm0, DWORD PTR _time$55[ebp]
	mov	ecx, DWORD PTR _curParticle$[ebp]
	movss	xmm1, DWORD PTR [ecx+112]
	subss	xmm1, xmm0
	movss	DWORD PTR _curAlpha$53[ebp], xmm1

; 151  : 		}
; 152  : 		else

	jmp	$LN28@DrawPartic
$LN26@DrawPartic:

; 153  : 		{
; 154  : 			curAlpha = curParticle->m_flAlpha + curParticle->m_flAlphaVelocity * time;

	mov	eax, DWORD PTR _curParticle$[ebp]
	movss	xmm0, DWORD PTR [eax+76]
	mulss	xmm0, DWORD PTR _time$55[ebp]
	mov	ecx, DWORD PTR _curParticle$[ebp]
	addss	xmm0, DWORD PTR [ecx+72]
	movss	DWORD PTR _curAlpha$53[ebp], xmm0

; 155  : 			if( curAlpha <= 0.0f || curRadius <= 0.0f || curLength <= 0.0f )

	xorps	xmm0, xmm0
	comiss	xmm0, DWORD PTR _curAlpha$53[ebp]
	jae	SHORT $LN29@DrawPartic
	xorps	xmm0, xmm0
	comiss	xmm0, DWORD PTR _curRadius$52[ebp]
	jae	SHORT $LN29@DrawPartic
	xorps	xmm0, xmm0
	comiss	xmm0, DWORD PTR _curLength$51[ebp]
	jb	SHORT $LN28@DrawPartic
$LN29@DrawPartic:

; 156  : 			{
; 157  : 				if( curParticle->EntIndex > 0 )

	mov	eax, DWORD PTR _curParticle$[ebp]
	cmp	DWORD PTR [eax+168], 0
	jle	SHORT $LN30@DrawPartic

; 158  : 					ParticleCountPerEnt[curParticle->EntIndex]--;

	mov	eax, DWORD PTR _curParticle$[ebp]
	mov	ecx, DWORD PTR [eax+168]
	mov	edx, DWORD PTR _this$[ebp]
	mov	eax, DWORD PTR [edx+ecx*4+2911284]
	sub	eax, 1
	mov	ecx, DWORD PTR _curParticle$[ebp]
	mov	edx, DWORD PTR [ecx+168]
	mov	ecx, DWORD PTR _this$[ebp]
	mov	DWORD PTR [ecx+edx*4+2911284], eax
$LN30@DrawPartic:

; 159  : 				ParticleArray.DeleteCurrent();

	mov	ecx, DWORD PTR _ParticleArray$[ebp]
	call	?DeleteCurrent@?$MemBlock@VCQuakePart@@@@QAEXXZ ; MemBlock<CQuakePart>::DeleteCurrent

; 160  : 				partcounter--;

	mov	eax, DWORD PTR ?partcounter@@3HA	; partcounter
	sub	eax, 1
	mov	DWORD PTR ?partcounter@@3HA, eax	; partcounter

; 161  : 				goto skip_particle;

	jmp	$LN31@DrawPartic
	jmp	$skip_particle$119
$LN28@DrawPartic:

; 162  : 			}
; 163  : 		}
; 164  : 
; 165  : 		curParticle->m_vecVelocity += curParticle->m_vecAddedVelocity;

	mov	eax, DWORD PTR _curParticle$[ebp]
	add	eax, 116				; 00000074H
	push	eax
	mov	ecx, DWORD PTR _curParticle$[ebp]
	add	ecx, 24					; 00000018H
	call	??YVector@@QAEAAV0@ABV0@@Z		; Vector::operator+=

; 166  : 
; 167  : 		org.x = curParticle->m_vecOrigin.x + curParticle->m_vecVelocity.x * time + curParticle->m_vecAccel.x * time2;

	mov	eax, DWORD PTR _curParticle$[ebp]
	movss	xmm0, DWORD PTR [eax+24]
	mulss	xmm0, DWORD PTR _time$55[ebp]
	mov	ecx, DWORD PTR _curParticle$[ebp]
	addss	xmm0, DWORD PTR [ecx]
	mov	edx, DWORD PTR _curParticle$[ebp]
	movss	xmm1, DWORD PTR [edx+36]
	mulss	xmm1, DWORD PTR _time2$54[ebp]
	addss	xmm0, xmm1
	movss	DWORD PTR _org$[ebp], xmm0

; 168  : 		org.y = curParticle->m_vecOrigin.y + curParticle->m_vecVelocity.y * time + curParticle->m_vecAccel.y * time2;

	mov	eax, DWORD PTR _curParticle$[ebp]
	movss	xmm0, DWORD PTR [eax+28]
	mulss	xmm0, DWORD PTR _time$55[ebp]
	mov	ecx, DWORD PTR _curParticle$[ebp]
	addss	xmm0, DWORD PTR [ecx+4]
	mov	edx, DWORD PTR _curParticle$[ebp]
	movss	xmm1, DWORD PTR [edx+40]
	mulss	xmm1, DWORD PTR _time2$54[ebp]
	addss	xmm0, xmm1
	movss	DWORD PTR _org$[ebp+4], xmm0

; 169  : 		org.z = curParticle->m_vecOrigin.z + curParticle->m_vecVelocity.z * time + curParticle->m_vecAccel.z * time2 * gravity;

	mov	eax, DWORD PTR _curParticle$[ebp]
	movss	xmm0, DWORD PTR [eax+32]
	mulss	xmm0, DWORD PTR _time$55[ebp]
	mov	ecx, DWORD PTR _curParticle$[ebp]
	addss	xmm0, DWORD PTR [ecx+8]
	mov	edx, DWORD PTR _curParticle$[ebp]
	movss	xmm1, DWORD PTR [edx+44]
	mulss	xmm1, DWORD PTR _time2$54[ebp]
	mulss	xmm1, DWORD PTR _gravity$[ebp]
	addss	xmm0, xmm1
	movss	DWORD PTR _org$[ebp+8], xmm0

; 170  : 		
; 171  : 		if( FBitSet( curParticle->m_iFlags, FPART_FADEIN ) )

	mov	eax, DWORD PTR _curParticle$[ebp]
	mov	ecx, DWORD PTR [eax+152]
	and	ecx, 256				; 00000100H
	je	$LN33@DrawPartic

; 172  : 		{
; 173  : 			if( curAlpha >= curParticle->m_flAlpha )

	mov	eax, DWORD PTR _curParticle$[ebp]
	movss	xmm0, DWORD PTR _curAlpha$53[ebp]
	comiss	xmm0, DWORD PTR [eax+72]
	jb	$LN33@DrawPartic

; 174  : 			{
; 175  : 				curParticle->m_vecOrigin.x = curParticle->m_vecOrigin.x + curParticle->m_vecVelocity.x * time + curParticle->m_vecAccel.x * time2;

	mov	eax, DWORD PTR _curParticle$[ebp]
	movss	xmm0, DWORD PTR [eax+24]
	mulss	xmm0, DWORD PTR _time$55[ebp]
	mov	ecx, DWORD PTR _curParticle$[ebp]
	addss	xmm0, DWORD PTR [ecx]
	mov	edx, DWORD PTR _curParticle$[ebp]
	movss	xmm1, DWORD PTR [edx+36]
	mulss	xmm1, DWORD PTR _time2$54[ebp]
	addss	xmm0, xmm1
	mov	eax, DWORD PTR _curParticle$[ebp]
	movss	DWORD PTR [eax], xmm0

; 176  : 				curParticle->m_vecOrigin.y = curParticle->m_vecOrigin.y + curParticle->m_vecVelocity.y * time + curParticle->m_vecAccel.y * time2;

	mov	eax, DWORD PTR _curParticle$[ebp]
	movss	xmm0, DWORD PTR [eax+28]
	mulss	xmm0, DWORD PTR _time$55[ebp]
	mov	ecx, DWORD PTR _curParticle$[ebp]
	addss	xmm0, DWORD PTR [ecx+4]
	mov	edx, DWORD PTR _curParticle$[ebp]
	movss	xmm1, DWORD PTR [edx+40]
	mulss	xmm1, DWORD PTR _time2$54[ebp]
	addss	xmm0, xmm1
	mov	eax, DWORD PTR _curParticle$[ebp]
	movss	DWORD PTR [eax+4], xmm0

; 177  : 				curParticle->m_vecOrigin.z = curParticle->m_vecOrigin.z + curParticle->m_vecVelocity.z * time + curParticle->m_vecAccel.z * time2 * gravity;

	mov	eax, DWORD PTR _curParticle$[ebp]
	movss	xmm0, DWORD PTR [eax+32]
	mulss	xmm0, DWORD PTR _time$55[ebp]
	mov	ecx, DWORD PTR _curParticle$[ebp]
	addss	xmm0, DWORD PTR [ecx+8]
	mov	edx, DWORD PTR _curParticle$[ebp]
	movss	xmm1, DWORD PTR [edx+44]
	mulss	xmm1, DWORD PTR _time2$54[ebp]
	mulss	xmm1, DWORD PTR _gravity$[ebp]
	addss	xmm0, xmm1
	mov	eax, DWORD PTR _curParticle$[ebp]
	movss	DWORD PTR [eax+8], xmm0

; 178  : 				curParticle->m_flRadius = curParticle->m_flRadius + curParticle->m_flRadiusVelocity * time;

	mov	eax, DWORD PTR _curParticle$[ebp]
	movss	xmm0, DWORD PTR [eax+84]
	mulss	xmm0, DWORD PTR _time$55[ebp]
	mov	ecx, DWORD PTR _curParticle$[ebp]
	addss	xmm0, DWORD PTR [ecx+80]
	mov	edx, DWORD PTR _curParticle$[ebp]
	movss	DWORD PTR [edx+80], xmm0

; 179  : 				curParticle->m_flLength = curParticle->m_flLength + curParticle->m_flLengthVelocity * time;

	mov	eax, DWORD PTR _curParticle$[ebp]
	movss	xmm0, DWORD PTR [eax+92]
	mulss	xmm0, DWORD PTR _time$55[ebp]
	mov	ecx, DWORD PTR _curParticle$[ebp]
	addss	xmm0, DWORD PTR [ecx+88]
	mov	edx, DWORD PTR _curParticle$[ebp]
	movss	DWORD PTR [edx+88], xmm0

; 180  : 				curParticle->m_flRotation = curParticle->m_flRotation + curParticle->m_flRotationVelocity * time;

	mov	eax, DWORD PTR _curParticle$[ebp]
	movss	xmm0, DWORD PTR [eax+100]
	mulss	xmm0, DWORD PTR _time$55[ebp]
	mov	ecx, DWORD PTR _curParticle$[ebp]
	addss	xmm0, DWORD PTR [ecx+96]
	mov	edx, DWORD PTR _curParticle$[ebp]
	movss	DWORD PTR [edx+96], xmm0

; 181  : 				ClearBits( curParticle->m_iFlags, FPART_FADEIN );

	mov	eax, DWORD PTR _curParticle$[ebp]
	mov	ecx, DWORD PTR [eax+152]
	and	ecx, -257				; fffffeffH
	mov	edx, DWORD PTR _curParticle$[ebp]
	mov	DWORD PTR [edx+152], ecx

; 182  : 				curParticle->m_flTime = tr.time;

	cvtsd2ss xmm0, QWORD PTR ?tr@@3Uref_globals_t@@A+8
	mov	eax, DWORD PTR _curParticle$[ebp]
	movss	DWORD PTR [eax+148], xmm0
$LN33@DrawPartic:

; 183  : 			}
; 184  : 		}
; 185  : 
; 186  : 		int contents = POINT_CONTENTS( org );

	push	0
	lea	ecx, DWORD PTR _org$[ebp]
	call	??BVector@@QAEPAMXZ			; Vector::operator float *
	push	eax
	call	DWORD PTR ?gEngfuncs@@3Ucl_enginefuncs_s@@A+228
	add	esp, 8
	mov	DWORD PTR _contents$45[ebp], eax

; 187  : 
; 188  : 		if( FBitSet( curParticle->m_iFlags, FPART_UNDERWATER ) )

	mov	eax, DWORD PTR _curParticle$[ebp]
	mov	ecx, DWORD PTR [eax+152]
	and	ecx, 16					; 00000010H
	je	$LN34@DrawPartic

; 189  : 		{
; 190  : 			// underwater particle
; 191  : 			org2 = Vector( org.x, org.y, org.z + curRadius );

	movss	xmm0, DWORD PTR _org$[ebp+8]
	addss	xmm0, DWORD PTR _curRadius$52[ebp]
	push	ecx
	movss	DWORD PTR [esp], xmm0
	push	ecx
	movss	xmm0, DWORD PTR _org$[ebp+4]
	movss	DWORD PTR [esp], xmm0
	push	ecx
	movss	xmm0, DWORD PTR _org$[ebp]
	movss	DWORD PTR [esp], xmm0
	lea	ecx, DWORD PTR $T34[ebp]
	call	??0Vector@@QAE@MMM@Z			; Vector::Vector
	mov	ecx, DWORD PTR [eax]
	mov	DWORD PTR _org2$[ebp], ecx
	mov	edx, DWORD PTR [eax+4]
	mov	DWORD PTR _org2$[ebp+4], edx
	mov	eax, DWORD PTR [eax+8]
	mov	DWORD PTR _org2$[ebp+8], eax

; 192  : 
; 193  : 			if( contents != CONTENTS_WATER && contents != CONTENTS_SLIME && contents != CONTENTS_LAVA )

	cmp	DWORD PTR _contents$45[ebp], -3		; fffffffdH
	je	SHORT $LN36@DrawPartic
	cmp	DWORD PTR _contents$45[ebp], -4		; fffffffcH
	je	SHORT $LN36@DrawPartic
	cmp	DWORD PTR _contents$45[ebp], -5		; fffffffbH
	je	SHORT $LN36@DrawPartic

; 194  : 			{			
; 195  : 				// not underwater
; 196  : 				if( curParticle->EntIndex > 0 )

	mov	eax, DWORD PTR _curParticle$[ebp]
	cmp	DWORD PTR [eax+168], 0
	jle	SHORT $LN37@DrawPartic

; 197  : 					ParticleCountPerEnt[curParticle->EntIndex]--;

	mov	eax, DWORD PTR _curParticle$[ebp]
	mov	ecx, DWORD PTR [eax+168]
	mov	edx, DWORD PTR _this$[ebp]
	mov	eax, DWORD PTR [edx+ecx*4+2911284]
	sub	eax, 1
	mov	ecx, DWORD PTR _curParticle$[ebp]
	mov	edx, DWORD PTR [ecx+168]
	mov	ecx, DWORD PTR _this$[ebp]
	mov	DWORD PTR [ecx+edx*4+2911284], eax
$LN37@DrawPartic:

; 198  : 				ParticleArray.DeleteCurrent();

	mov	ecx, DWORD PTR _ParticleArray$[ebp]
	call	?DeleteCurrent@?$MemBlock@VCQuakePart@@@@QAEXXZ ; MemBlock<CQuakePart>::DeleteCurrent

; 199  : 				partcounter--;

	mov	eax, DWORD PTR ?partcounter@@3HA	; partcounter
	sub	eax, 1
	mov	DWORD PTR ?partcounter@@3HA, eax	; partcounter

; 200  : 				goto skip_particle;

	jmp	$LN38@DrawPartic
	jmp	$skip_particle$119
$LN36@DrawPartic:

; 201  : 			}
; 202  : 		}

	jmp	SHORT $LN39@DrawPartic
$LN34@DrawPartic:

; 203  : 		else if( FBitSet( curParticle->m_iFlags, FPART_NOTWATER ) && (contents == CONTENTS_WATER) )

	mov	eax, DWORD PTR _curParticle$[ebp]
	mov	ecx, DWORD PTR [eax+152]
	and	ecx, 128				; 00000080H
	je	SHORT $LN39@DrawPartic
	cmp	DWORD PTR _contents$45[ebp], -3		; fffffffdH
	jne	SHORT $LN39@DrawPartic

; 204  : 		{
; 205  : 			if( curParticle->EntIndex > 0 )

	mov	eax, DWORD PTR _curParticle$[ebp]
	cmp	DWORD PTR [eax+168], 0
	jle	SHORT $LN40@DrawPartic

; 206  : 				ParticleCountPerEnt[curParticle->EntIndex]--;

	mov	eax, DWORD PTR _curParticle$[ebp]
	mov	ecx, DWORD PTR [eax+168]
	mov	edx, DWORD PTR _this$[ebp]
	mov	eax, DWORD PTR [edx+ecx*4+2911284]
	sub	eax, 1
	mov	ecx, DWORD PTR _curParticle$[ebp]
	mov	edx, DWORD PTR [ecx+168]
	mov	ecx, DWORD PTR _this$[ebp]
	mov	DWORD PTR [ecx+edx*4+2911284], eax
$LN40@DrawPartic:

; 207  : 			// not underwater
; 208  : 			ParticleArray.DeleteCurrent();

	mov	ecx, DWORD PTR _ParticleArray$[ebp]
	call	?DeleteCurrent@?$MemBlock@VCQuakePart@@@@QAEXXZ ; MemBlock<CQuakePart>::DeleteCurrent

; 209  : 			partcounter--;

	mov	eax, DWORD PTR ?partcounter@@3HA	; partcounter
	sub	eax, 1
	mov	DWORD PTR ?partcounter@@3HA, eax	; partcounter

; 210  : 			goto skip_particle;

	jmp	$LN41@DrawPartic
	jmp	$skip_particle$119
$LN39@DrawPartic:

; 211  : 		}
; 212  : 
; 213  : 		if( FBitSet( curParticle->m_iFlags, FPART_FRICTION ) )

	mov	eax, DWORD PTR _curParticle$[ebp]
	mov	ecx, DWORD PTR [eax+152]
	and	ecx, 2
	je	$LN43@DrawPartic

; 214  : 		{
; 215  : 			// water friction affected particle
; 216  : 			if( contents <= CONTENTS_WATER && contents >= CONTENTS_LAVA )

	cmp	DWORD PTR _contents$45[ebp], -3		; fffffffdH
	jg	$LN43@DrawPartic
	cmp	DWORD PTR _contents$45[ebp], -5		; fffffffbH
	jl	$LN43@DrawPartic

; 217  : 			{
; 218  : 				// add friction		
; 219  : 				switch( contents )

	mov	eax, DWORD PTR _contents$45[ebp]
	mov	DWORD PTR tv559[ebp], eax
	cmp	DWORD PTR tv559[ebp], -5		; fffffffbH
	je	$LN46@DrawPartic
	cmp	DWORD PTR tv559[ebp], -4		; fffffffcH
	je	SHORT $LN45@DrawPartic
	cmp	DWORD PTR tv559[ebp], -3		; fffffffdH
	je	SHORT $LN44@DrawPartic
	jmp	$LN7@DrawPartic
$LN44@DrawPartic:

; 220  : 				{
; 221  : 				case CONTENTS_WATER:
; 222  : 					curParticle->m_vecVelocity *= 0.25f;

	push	ecx
	movss	xmm0, DWORD PTR __real@3e800000
	movss	DWORD PTR [esp], xmm0
	mov	ecx, DWORD PTR _curParticle$[ebp]
	add	ecx, 24					; 00000018H
	call	??XVector@@QAEAAV0@M@Z			; Vector::operator*=

; 223  : 					curParticle->m_vecAccel *= 0.25f;

	push	ecx
	movss	xmm0, DWORD PTR __real@3e800000
	movss	DWORD PTR [esp], xmm0
	mov	ecx, DWORD PTR _curParticle$[ebp]
	add	ecx, 36					; 00000024H
	call	??XVector@@QAEAAV0@M@Z			; Vector::operator*=

; 224  : 					break;

	jmp	SHORT $LN7@DrawPartic
$LN45@DrawPartic:

; 225  : 				case CONTENTS_SLIME:
; 226  : 					curParticle->m_vecVelocity *= 0.20f;

	push	ecx
	movss	xmm0, DWORD PTR __real@3e4ccccd
	movss	DWORD PTR [esp], xmm0
	mov	ecx, DWORD PTR _curParticle$[ebp]
	add	ecx, 24					; 00000018H
	call	??XVector@@QAEAAV0@M@Z			; Vector::operator*=

; 227  : 					curParticle->m_vecAccel *= 0.20f;

	push	ecx
	movss	xmm0, DWORD PTR __real@3e4ccccd
	movss	DWORD PTR [esp], xmm0
	mov	ecx, DWORD PTR _curParticle$[ebp]
	add	ecx, 36					; 00000024H
	call	??XVector@@QAEAAV0@M@Z			; Vector::operator*=

; 228  : 					break;

	jmp	SHORT $LN7@DrawPartic
$LN46@DrawPartic:

; 229  : 				case CONTENTS_LAVA:
; 230  : 					curParticle->m_vecVelocity *= 0.10f;

	push	ecx
	movss	xmm0, DWORD PTR __real@3dcccccd
	movss	DWORD PTR [esp], xmm0
	mov	ecx, DWORD PTR _curParticle$[ebp]
	add	ecx, 24					; 00000018H
	call	??XVector@@QAEAAV0@M@Z			; Vector::operator*=

; 231  : 					curParticle->m_vecAccel *= 0.10f;

	push	ecx
	movss	xmm0, DWORD PTR __real@3dcccccd
	movss	DWORD PTR [esp], xmm0
	mov	ecx, DWORD PTR _curParticle$[ebp]
	add	ecx, 36					; 00000024H
	call	??XVector@@QAEAAV0@M@Z			; Vector::operator*=
$LN7@DrawPartic:

; 232  : 					break;
; 233  : 				}
; 234  : 
; 235  : 				// don't add friction again
; 236  : 				curParticle->m_iFlags &= ~FPART_FRICTION;

	mov	eax, DWORD PTR _curParticle$[ebp]
	mov	ecx, DWORD PTR [eax+152]
	and	ecx, -3					; fffffffdH
	mov	edx, DWORD PTR _curParticle$[ebp]
	mov	DWORD PTR [edx+152], ecx

; 237  : 				curLength = 1.0f;

	movss	xmm0, DWORD PTR __real@3f800000
	movss	DWORD PTR _curLength$51[ebp], xmm0

; 238  : 
; 239  : 				// reset
; 240  : 				curParticle->m_flTime = tr.time;

	cvtsd2ss xmm0, QWORD PTR ?tr@@3Uref_globals_t@@A+8
	mov	eax, DWORD PTR _curParticle$[ebp]
	movss	DWORD PTR [eax+148], xmm0

; 241  : 				curParticle->m_vecColor = curColor;

	mov	eax, DWORD PTR _curParticle$[ebp]
	add	eax, 48					; 00000030H
	mov	ecx, DWORD PTR _curColor$49[ebp]
	mov	DWORD PTR [eax], ecx
	mov	edx, DWORD PTR _curColor$49[ebp+4]
	mov	DWORD PTR [eax+4], edx
	mov	ecx, DWORD PTR _curColor$49[ebp+8]
	mov	DWORD PTR [eax+8], ecx

; 242  : 				curParticle->m_flAlpha = curAlpha;

	mov	eax, DWORD PTR _curParticle$[ebp]
	movss	xmm0, DWORD PTR _curAlpha$53[ebp]
	movss	DWORD PTR [eax+72], xmm0

; 243  : 				curParticle->m_flRadius = curRadius;

	mov	eax, DWORD PTR _curParticle$[ebp]
	movss	xmm0, DWORD PTR _curRadius$52[ebp]
	movss	DWORD PTR [eax+80], xmm0

; 244  : 				curParticle->m_vecOrigin = org;

	mov	eax, DWORD PTR _curParticle$[ebp]
	mov	ecx, DWORD PTR _org$[ebp]
	mov	DWORD PTR [eax], ecx
	mov	edx, DWORD PTR _org$[ebp+4]
	mov	DWORD PTR [eax+4], edx
	mov	ecx, DWORD PTR _org$[ebp+8]
	mov	DWORD PTR [eax+8], ecx

; 245  : 
; 246  : 				// don't stretch
; 247  : 				curParticle->m_iFlags &= ~FPART_STRETCH;

	mov	eax, DWORD PTR _curParticle$[ebp]
	mov	ecx, DWORD PTR [eax+152]
	and	ecx, -9					; fffffff7H
	mov	edx, DWORD PTR _curParticle$[ebp]
	mov	DWORD PTR [edx+152], ecx

; 248  : 				curParticle->m_flLengthVelocity = 0.0f;

	mov	eax, DWORD PTR _curParticle$[ebp]
	xorps	xmm0, xmm0
	movss	DWORD PTR [eax+92], xmm0

; 249  : 				curParticle->m_flLength = curLength;

	mov	eax, DWORD PTR _curParticle$[ebp]
	movss	xmm0, DWORD PTR _curLength$51[ebp]
	movss	DWORD PTR [eax+88], xmm0
$LN43@DrawPartic:

; 250  : 			}
; 251  : 		}
; 252  : 
; 253  : 		if( FBitSet( curParticle->m_iFlags, FPART_BOUNCE ) )

	mov	eax, DWORD PTR _curParticle$[ebp]
	mov	ecx, DWORD PTR [eax+152]
	and	ecx, 1
	je	$LN48@DrawPartic

; 254  : 		{
; 255  : 			// bouncy particle
; 256  : 			pmtrace_t pmtrace;

	lea	ecx, DWORD PTR _pmtrace$44[ebp]
	call	??0pmtrace_s@@QAE@XZ

; 257  : 			gEngfuncs.pEventAPI->EV_SetTraceHull( 2 );

	push	2
	mov	eax, DWORD PTR ?gEngfuncs@@3Ucl_enginefuncs_s@@A+336
	mov	ecx, DWORD PTR [eax+56]
	call	ecx
	add	esp, 4

; 258  : 			gEngfuncs.pEventAPI->EV_PlayerTrace( curParticle->m_vecLastOrg, org, PM_STUDIO_IGNORE, -1, &pmtrace );

	lea	eax, DWORD PTR _pmtrace$44[ebp]
	push	eax
	push	-1
	push	1
	lea	ecx, DWORD PTR _org$[ebp]
	call	??BVector@@QAEPAMXZ			; Vector::operator float *
	push	eax
	mov	ecx, DWORD PTR _curParticle$[ebp]
	add	ecx, 12					; 0000000cH
	call	??BVector@@QAEPAMXZ			; Vector::operator float *
	push	eax
	mov	ecx, DWORD PTR ?gEngfuncs@@3Ucl_enginefuncs_s@@A+336
	mov	edx, DWORD PTR [ecx+60]
	call	edx
	add	esp, 20					; 00000014H

; 259  : 
; 260  : 			if( pmtrace.fraction != 1.0f )

	movss	xmm0, DWORD PTR _pmtrace$44[ebp+16]
	ucomiss	xmm0, DWORD PTR __real@3f800000
	lahf
	test	ah, 68					; 00000044H
	jnp	$LN48@DrawPartic

; 261  : 			{
; 262  : 				// reflect velocity
; 263  : 				time = tr.time - (g_fFrametime + g_fFrametime * pmtrace.fraction);

	movss	xmm0, DWORD PTR ?g_fFrametime@@3MA
	mulss	xmm0, DWORD PTR _pmtrace$44[ebp+16]
	addss	xmm0, DWORD PTR ?g_fFrametime@@3MA
	cvtss2sd xmm0, xmm0
	movsd	xmm1, QWORD PTR ?tr@@3Uref_globals_t@@A+8
	subsd	xmm1, xmm0
	cvtsd2ss xmm0, xmm1
	movss	DWORD PTR _time$55[ebp], xmm0

; 264  : 				time = (time - curParticle->m_flTime);

	mov	eax, DWORD PTR _curParticle$[ebp]
	movss	xmm0, DWORD PTR _time$55[ebp]
	subss	xmm0, DWORD PTR [eax+148]
	movss	DWORD PTR _time$55[ebp], xmm0

; 265  : 
; 266  : 				vel.x = curParticle->m_vecVelocity.x;

	mov	eax, DWORD PTR _curParticle$[ebp]
	movss	xmm0, DWORD PTR [eax+24]
	movss	DWORD PTR _vel$[ebp], xmm0

; 267  : 				vel.y = curParticle->m_vecVelocity.y;

	mov	eax, DWORD PTR _curParticle$[ebp]
	movss	xmm0, DWORD PTR [eax+28]
	movss	DWORD PTR _vel$[ebp+4], xmm0

; 268  : 				vel.z = curParticle->m_vecVelocity.z + curParticle->m_vecAccel.z * gravity * time;

	mov	eax, DWORD PTR _curParticle$[ebp]
	movss	xmm0, DWORD PTR [eax+44]
	mulss	xmm0, DWORD PTR _gravity$[ebp]
	mulss	xmm0, DWORD PTR _time$55[ebp]
	mov	ecx, DWORD PTR _curParticle$[ebp]
	addss	xmm0, DWORD PTR [ecx+32]
	movss	DWORD PTR _vel$[ebp+8], xmm0

; 269  : 
; 270  : 				float d = DotProduct( vel, pmtrace.plane.normal ) * 2.0f;

	lea	eax, DWORD PTR _pmtrace$44[ebp+32]
	push	eax
	lea	ecx, DWORD PTR _vel$[ebp]
	push	ecx
	call	?DotProduct@@YAMABVVector@@0@Z		; DotProduct
	add	esp, 8
	fstp	DWORD PTR tv1807[ebp]
	movss	xmm0, DWORD PTR tv1807[ebp]
	mulss	xmm0, DWORD PTR __real@40000000
