; Listing generated by Microsoft (R) Optimizing Compiler Version 19.00.24247.2 

	TITLE	D:\!DIFFUSION 2020\source code 2022\client-server\client\render\r_quakeparticle.cpp
	.686P
	.XMM
	include listing.inc
	.model	flat

INCLUDELIB LIBCMT
INCLUDELIB OLDNAMES

PUBLIC	?partcounter@@3HA				; partcounter
_BSS	SEGMENT
?partcounter@@3HA DD 01H DUP (?)			; partcounter
_BSS	ENDS
PUBLIC	??_H@YGXPAXIIP6EPAX0@Z@Z			; `vector constructor iterator'
PUBLIC	??__G@YGXPAX0IIP6EPAX00@Z@Z			; `vector copy constructor iterator'
PUBLIC	??0Vector2D@@QAE@XZ				; Vector2D::Vector2D
PUBLIC	??0Vector@@QAE@XZ				; Vector::Vector
PUBLIC	??0Vector@@QAE@MMM@Z				; Vector::Vector
PUBLIC	??0Vector@@QAE@ABV0@@Z				; Vector::Vector
PUBLIC	??GVector@@QBE?AV0@XZ				; Vector::operator-
PUBLIC	??HVector@@QBE?AV0@ABV0@@Z			; Vector::operator+
PUBLIC	??GVector@@QBE?AV0@ABV0@@Z			; Vector::operator-
PUBLIC	??DVector@@QBE?AV0@M@Z				; Vector::operator*
PUBLIC	??KVector@@QBE?AV0@M@Z				; Vector::operator/
PUBLIC	??YVector@@QAEAAV0@ABV0@@Z			; Vector::operator+=
PUBLIC	??ZVector@@QAEAAV0@ABV0@@Z			; Vector::operator-=
PUBLIC	??XVector@@QAEAAV0@ABV0@@Z			; Vector::operator*=
PUBLIC	??XVector@@QAEAAV0@M@Z				; Vector::operator*=
PUBLIC	?IsNull@Vector@@QBE_NM@Z			; Vector::IsNull
PUBLIC	?Length@Vector@@QBEMXZ				; Vector::Length
PUBLIC	??BVector@@QAEPAMXZ				; Vector::operator float *
PUBLIC	??BVector@@QBEPBMXZ				; Vector::operator float const *
PUBLIC	?Normalize@Vector@@QBE?AV1@XZ			; Vector::Normalize
PUBLIC	??D@YA?AVVector@@MABV0@@Z			; operator*
PUBLIC	?DotProduct@@YAMABVVector@@0@Z			; DotProduct
PUBLIC	?CrossProduct@@YA?AVVector@@ABV1@0@Z		; CrossProduct
PUBLIC	??0RandomRange@@QAE@XZ				; RandomRange::RandomRange
PUBLIC	??0RandomRange@@QAE@PAD@Z			; RandomRange::RandomRange
PUBLIC	?Random@RandomRange@@QAEMXZ			; RandomRange::Random
PUBLIC	??0pmplane_t@@QAE@XZ				; pmplane_t::pmplane_t
PUBLIC	??0pmtrace_s@@QAE@XZ				; pmtrace_s::pmtrace_s
PUBLIC	?Evaluate@CQuakePart@@QAE_NM@Z			; CQuakePart::Evaluate
PUBLIC	??0CQuakePart@@QAE@XZ				; CQuakePart::CQuakePart
PUBLIC	??0CQuakePartInfo@@QAE@XZ			; CQuakePartInfo::CQuakePartInfo
PUBLIC	??0CQuakePartSystem@@QAE@XZ			; CQuakePartSystem::CQuakePartSystem
PUBLIC	??1CQuakePartSystem@@UAE@XZ			; CQuakePartSystem::~CQuakePartSystem
PUBLIC	?Clear@CQuakePartSystem@@QAEXXZ			; CQuakePartSystem::Clear
PUBLIC	?Update@CQuakePartSystem@@QAEXXZ		; CQuakePartSystem::Update
PUBLIC	?FreeParticle@CQuakePartSystem@@QAEXPAVCQuakePart@@@Z ; CQuakePartSystem::FreeParticle
PUBLIC	?AllocParticle@CQuakePartSystem@@QAEPAVCQuakePart@@XZ ; CQuakePartSystem::AllocParticle
PUBLIC	?AddParticle@CQuakePartSystem@@QAE_NPAVCQuakePart@@HH@Z ; CQuakePartSystem::AddParticle
PUBLIC	?ParsePartInfos@CQuakePartSystem@@QAEXPBD@Z	; CQuakePartSystem::ParsePartInfos
PUBLIC	?ParsePartInfo@CQuakePartSystem@@QAE_NPAVCQuakePartInfo@@AAPAD@Z ; CQuakePartSystem::ParsePartInfo
PUBLIC	?ParseRandomVector@CQuakePartSystem@@QAE_NAAPADQAVRandomRange@@@Z ; CQuakePartSystem::ParseRandomVector
PUBLIC	?ParseParticleFlags@CQuakePartSystem@@QAEHPAD@Z	; CQuakePartSystem::ParseParticleFlags
PUBLIC	?FindPartInfo@CQuakePartSystem@@QAEPAVCQuakePartInfo@@PBD@Z ; CQuakePartSystem::FindPartInfo
PUBLIC	?CreateEffect@CQuakePartSystem@@QAEXHPBDABVVector@@1@Z ; CQuakePartSystem::CreateEffect
PUBLIC	?DrawParticles@CQuakePartSystem@@QAEXAAV?$MemBlock@VCQuakePart@@@@@Z ; CQuakePartSystem::DrawParticles
PUBLIC	?ExplosionParticles@CQuakePartSystem@@QAEXHABVVector@@@Z ; CQuakePartSystem::ExplosionParticles
PUBLIC	?BulletParticles@CQuakePartSystem@@QAEXHABVVector@@0@Z ; CQuakePartSystem::BulletParticles
PUBLIC	?SparkParticles@CQuakePartSystem@@QAEXHABVVector@@0@Z ; CQuakePartSystem::SparkParticles
PUBLIC	?RicochetSparks@CQuakePartSystem@@QAEXHABVVector@@M@Z ; CQuakePartSystem::RicochetSparks
PUBLIC	?SmokeParticles@CQuakePartSystem@@QAEXHABVVector@@HMM@Z ; CQuakePartSystem::SmokeParticles
PUBLIC	?Smoke@CQuakePartSystem@@QAEXHHABVVector@@0HMMMMV2@MM@Z ; CQuakePartSystem::Smoke
PUBLIC	?GunSmoke@CQuakePartSystem@@QAEXHABVVector@@V2@H@Z ; CQuakePartSystem::GunSmoke
PUBLIC	?WaterSplashParticle@CQuakePartSystem@@QAEXHABVVector@@@Z ; CQuakePartSystem::WaterSplashParticle
PUBLIC	?SmokeVolume@CQuakePartSystem@@QAEXHHABVVector@@MMH@Z ; CQuakePartSystem::SmokeVolume
PUBLIC	?BloodParticle@CQuakePartSystem@@QAEXHABVVector@@MV2@1@Z ; CQuakePartSystem::BloodParticle
PUBLIC	??_GCQuakePartSystem@@UAEPAXI@Z			; CQuakePartSystem::`scalar deleting destructor'
PUBLIC	?R_GetSpriteFrame@@YAPAUmspriteframe_s@@PBUmodel_s@@H@Z ; R_GetSpriteFrame
PUBLIC	??0?$MemBlock@VCQuakePart@@@@QAE@H@Z		; MemBlock<CQuakePart>::MemBlock<CQuakePart>
PUBLIC	??1?$MemBlock@VCQuakePart@@@@QAE@XZ		; MemBlock<CQuakePart>::~MemBlock<CQuakePart>
PUBLIC	?Clear@?$MemBlock@VCQuakePart@@@@QAEXXZ		; MemBlock<CQuakePart>::Clear
PUBLIC	?Allocate@?$MemBlock@VCQuakePart@@@@QAEPAVCQuakePart@@XZ ; MemBlock<CQuakePart>::Allocate
PUBLIC	?IsClear@?$MemBlock@VCQuakePart@@@@QAE_NXZ	; MemBlock<CQuakePart>::IsClear
PUBLIC	?StartPass@?$MemBlock@VCQuakePart@@@@QAE_NXZ	; MemBlock<CQuakePart>::StartPass
PUBLIC	?GetCurrent@?$MemBlock@VCQuakePart@@@@QAEPAVCQuakePart@@XZ ; MemBlock<CQuakePart>::GetCurrent
PUBLIC	?MoveNext@?$MemBlock@VCQuakePart@@@@QAEXXZ	; MemBlock<CQuakePart>::MoveNext
PUBLIC	?DeleteCurrent@?$MemBlock@VCQuakePart@@@@QAEXXZ	; MemBlock<CQuakePart>::DeleteCurrent
PUBLIC	??0chunk_s@?$MemBlock@VCQuakePart@@@@QAE@XZ	; MemBlock<CQuakePart>::chunk_s::chunk_s
PUBLIC	??_7CQuakePartSystem@@6B@			; CQuakePartSystem::`vftable'
PUBLIC	?g_pParticles@@3VCQuakePartSystem@@A		; g_pParticles
PUBLIC	?ParticleArray_Default@@3V?$MemBlock@VCQuakePart@@@@A ; ParticleArray_Default
PUBLIC	?ParticleArray_Dustmote@@3V?$MemBlock@VCQuakePart@@@@A ; ParticleArray_Dustmote
PUBLIC	?ParticleArray_Sparks@@3V?$MemBlock@VCQuakePart@@@@A ; ParticleArray_Sparks
PUBLIC	?ParticleArray_Smoke@@3V?$MemBlock@VCQuakePart@@@@A ; ParticleArray_Smoke
PUBLIC	?ParticleArray_Smoke_NotInWater@@3V?$MemBlock@VCQuakePart@@@@A ; ParticleArray_Smoke_NotInWater
PUBLIC	?ParticleArray_Watersplash@@3V?$MemBlock@VCQuakePart@@@@A ; ParticleArray_Watersplash
PUBLIC	?ParticleArray_Sand@@3V?$MemBlock@VCQuakePart@@@@A ; ParticleArray_Sand
PUBLIC	?ParticleArray_Dirt@@3V?$MemBlock@VCQuakePart@@@@A ; ParticleArray_Dirt
PUBLIC	?ParticleArray_Fireball@@3V?$MemBlock@VCQuakePart@@@@A ; ParticleArray_Fireball
PUBLIC	?ParticleArray_Blood@@3V?$MemBlock@VCQuakePart@@@@A ; ParticleArray_Blood
PUBLIC	??_C@_09KHFKAJMC@?$CKparticle?$AA@		; `string'
PUBLIC	??_C@_0BE@DHIHIMHH@gfx?1particles?1spark?$AA@	; `string'
PUBLIC	??_C@_0BE@MCFMBNAG@gfx?1particles?1smoke?$AA@	; `string'
PUBLIC	??_C@_0BI@HPNKPJDK@gfx?1particles?1waterring?$AA@ ; `string'
PUBLIC	??_C@_0BE@CJKEHMBF@gfx?1particles?1blood?$AA@	; `string'
PUBLIC	??_C@_0BL@DNBECAEN@gfx?1particles?1sandparticle?$AA@ ; `string'
PUBLIC	??_C@_0BL@HBCOCBNF@gfx?1particles?1dirtparticle?$AA@ ; `string'
PUBLIC	??_C@_0BH@LEHKLNJL@gfx?1particles?1dustmote?$AA@ ; `string'
PUBLIC	??_C@_0BI@BPBIPOGH@gfx?1particles?1explosion?$AA@ ; `string'
PUBLIC	??_C@_0BD@FMKPEBGE@data?1particles?4txt?$AA@	; `string'
PUBLIC	??_C@_0M@KOFNDIEA@loading?5?$CFs?6?$AA@		; `string'
PUBLIC	??_C@_0BF@NPLBJKHF@Cannot?5open?5file?5?$CFs?6?$AA@ ; `string'
PUBLIC	??_C@_0CO@GIHBEDNL@particle?5effects?5info?5limit?5exce@ ; `string'
PUBLIC	??_C@_0BL@MJDIPEOM@found?5?$CFs?5when?5expecting?5?$HL?6?$AA@ ; `string'
PUBLIC	??_C@_0BD@PFFOMDCC@?$CFd?5effects?5parsed?6?$AA@ ; `string'
PUBLIC	??_C@_0CK@MMAOOEFB@QuakeParticle?3?5couldn?8t?5find?5eff@ ; `string'
PUBLIC	??_C@_06PAHFPMEK@Bounce?$AA@			; `string'
PUBLIC	??_C@_08DIMMEHEB@Friction?$AA@			; `string'
PUBLIC	??_C@_05JODGIKH@Light?$AA@			; `string'
PUBLIC	??_C@_07ENIDNHGB@Stretch?$AA@			; `string'
PUBLIC	??_C@_0L@LFPBPCDD@Underwater?$AA@		; `string'
PUBLIC	??_C@_07HMOCDNDG@Instant?$AA@			; `string'
PUBLIC	??_C@_08NGDGBBLG@Additive?$AA@			; `string'
PUBLIC	??_C@_0L@HCCPBMGG@NotInWater?$AA@		; `string'
PUBLIC	??_C@_06GCJPJKOH@FadeIn?$AA@			; `string'
PUBLIC	??_C@_06NDBNOOOH@Skybox?$AA@			; `string'
PUBLIC	??_C@_08KPOFCBBH@Floating?$AA@			; `string'
PUBLIC	??_C@_0BB@IPNBBMAH@FloatingOriented?$AA@	; `string'
PUBLIC	??_C@_0BO@EBKAFPMG@unknown?5value?5?$CFs?5for?5?8flags?8?6?$AA@ ; `string'
PUBLIC	??_C@_0BL@PHECOMOB@EOF?5without?5closing?5brace?6?$AA@ ; `string'
PUBLIC	??_C@_07JDHEGGGP@texture?$AA@			; `string'
PUBLIC	??_C@_0CB@MCPHFAIO@hit?5EOF?5while?5parsing?5?8texture?8?6@ ; `string'
PUBLIC	??_C@_03LJIJAGL@tga?$AA@			; `string'
PUBLIC	??_C@_03CBDDAJHO@dds?$AA@			; `string'
PUBLIC	??_C@_03OOMJFMLF@spr?$AA@			; `string'
PUBLIC	??_C@_0DN@KCDMFPOP@couldn?8t?5load?5texture?5for?5effect@ ; `string'
PUBLIC	??_C@_06KLHHMIGM@offset?$AA@			; `string'
PUBLIC	??_C@_0CA@FMDLAHNJ@hit?5EOF?5while?5parsing?5?8offset?8?6?$AA@ ; `string'
PUBLIC	??_C@_08ICEJNDOI@velocity?$AA@			; `string'
PUBLIC	??_C@_0CC@FDGEHOIA@hit?5EOF?5while?5parsing?5?8velocity?8@ ; `string'
PUBLIC	??_C@_05PNMAPKLD@accel?$AA@			; `string'
PUBLIC	??_C@_0BP@KDLPHPCN@hit?5EOF?5while?5parsing?5?8accel?8?6?$AA@ ; `string'
PUBLIC	??_C@_05PEENBMOG@color?$AA@			; `string'
PUBLIC	??_C@_0BP@CNBKJIPM@hit?5EOF?5while?5parsing?5?8color?8?6?$AA@ ; `string'
PUBLIC	??_C@_0O@PCPNIPGJ@colorVelocity?$AA@		; `string'
PUBLIC	??_C@_0CH@LAOPIGD@hit?5EOF?5while?5parsing?5?8colorVelo@ ; `string'
PUBLIC	??_C@_05IAEKHIAN@alpha?$AA@			; `string'
PUBLIC	??_C@_0BP@NKEPGDJN@hit?5EOF?5while?5parsing?5?8alpha?8?6?$AA@ ; `string'
PUBLIC	??_C@_0O@ECOJKIBP@alphaVelocity?$AA@		; `string'
PUBLIC	??_C@_0CH@NHGBCDGM@hit?5EOF?5while?5parsing?5?8alphaVelo@ ; `string'
PUBLIC	??_C@_06KGHINEPG@radius?$AA@			; `string'
PUBLIC	??_C@_0CA@MDJEDEAJ@hit?5EOF?5while?5parsing?5?8radius?8?6?$AA@ ; `string'
PUBLIC	??_C@_0P@GHNAGFBL@radiusVelocity?$AA@		; `string'
PUBLIC	??_C@_0CI@IPNAFHEB@hit?5EOF?5while?5parsing?5?8radiusVel@ ; `string'
PUBLIC	??_C@_06IJDLPEM@length?$AA@			; `string'
PUBLIC	??_C@_0CA@HNOGEAA@hit?5EOF?5while?5parsing?5?8length?8?6?$AA@ ; `string'
PUBLIC	??_C@_0P@BKMDHNNN@lengthVelocity?$AA@		; `string'
PUBLIC	??_C@_0CI@BBMMCMM@hit?5EOF?5while?5parsing?5?8lengthVel@ ; `string'
PUBLIC	??_C@_08OHGOKOGA@rotation?$AA@			; `string'
PUBLIC	??_C@_0CC@IOIKAEGF@hit?5EOF?5while?5parsing?5?8rotation?8@ ; `string'
PUBLIC	??_C@_0BB@HGDLMHHH@rotationVelocity?$AA@	; `string'
PUBLIC	??_C@_0CK@DJEILIPE@hit?5EOF?5while?5parsing?5?8rotationV@ ; `string'
PUBLIC	??_C@_0N@PJGCMNFO@bounceFactor?$AA@		; `string'
PUBLIC	??_C@_0CG@NNKLLCJN@hit?5EOF?5while?5parsing?5?8bounceFac@ ; `string'
PUBLIC	??_C@_05MIJNFGED@frame?$AA@			; `string'
PUBLIC	??_C@_0BP@GIGDEEAO@hit?5EOF?5while?5parsing?5?8frame?8?6?$AA@ ; `string'
PUBLIC	??_C@_05IOMEMJEC@count?$AA@			; `string'
PUBLIC	??_C@_0BP@BBMILNMD@hit?5EOF?5while?5parsing?5?8count?8?6?$AA@ ; `string'
PUBLIC	??_C@_05GECEPKB@flags?$AA@			; `string'
PUBLIC	??_C@_0BP@GAEALDHP@hit?5EOF?5while?5parsing?5?8flags?8?6?$AA@ ; `string'
PUBLIC	??_C@_09HKKFCCPM@useNormal?$AA@			; `string'
PUBLIC	??_C@_0CD@HFPJDGGC@hit?5EOF?5while?5parsing?5?8useNormal@ ; `string'
PUBLIC	??_C@_06GDPEBLPA@ignore?$AA@			; `string'
PUBLIC	??_C@_03PFLGFKBB@ofs?$AA@			; `string'
PUBLIC	??_C@_03DAPAKLGM@dir?$AA@			; `string'
PUBLIC	??_C@_07KOJMABKL@ofs?$CLdir?$AA@		; `string'
PUBLIC	??_C@_07LKEEPMM@dir?$CLofs?$AA@			; `string'
PUBLIC	??_C@_0BO@BOGDCKMH@Unknown?5?8useNormal?8?5key?5?8?$CFs?8?6?$AA@ ; `string'
PUBLIC	??_C@_0BK@LLFBOIOB@Unknown?5effects?5token?5?$CFs?6?$AA@ ; `string'
PUBLIC	??_C@_0BH@FLMDKIBP@Overflow?5?$CFd?5particles?6?$AA@ ; `string'
PUBLIC	??_C@_0BH@LOMLGGKP@AddParticle?3?5overflow?6?$AA@ ; `string'
PUBLIC	??_R4CQuakePartSystem@@6B@			; CQuakePartSystem::`RTTI Complete Object Locator'
PUBLIC	??_R0?AVCQuakePartSystem@@@8			; CQuakePartSystem `RTTI Type Descriptor'
PUBLIC	??_R3CQuakePartSystem@@8			; CQuakePartSystem::`RTTI Class Hierarchy Descriptor'
PUBLIC	??_R2CQuakePartSystem@@8			; CQuakePartSystem::`RTTI Base Class Array'
PUBLIC	??_R1A@?0A@EA@CQuakePartSystem@@8		; CQuakePartSystem::`RTTI Base Class Descriptor at (0,-1,0,64)'
PUBLIC	__real@00000000
PUBLIC	__real@3a83126f
PUBLIC	__real@3b808081
PUBLIC	__real@3b83126f
PUBLIC	__real@3bf5c28f
PUBLIC	__real@3c23d70a
PUBLIC	__real@3dcccccd
PUBLIC	__real@3e19999a
PUBLIC	__real@3e4ccccd
PUBLIC	__real@3e800000
PUBLIC	__real@3e99999a
PUBLIC	__real@3ecccccd
PUBLIC	__real@3f000000
PUBLIC	__real@3f333333
PUBLIC	__real@3f400000
PUBLIC	__real@3f59999a
PUBLIC	__real@3f800000
PUBLIC	__real@3f933333
PUBLIC	__real@3fb999999999999a
PUBLIC	__real@3fc00000
PUBLIC	__real@3fd0000000000000
PUBLIC	__real@3fd999999999999a
PUBLIC	__real@3fe0000000000000
PUBLIC	__real@3fe999999999999a
PUBLIC	__real@40000000
PUBLIC	__real@4000000000000000
PUBLIC	__real@40200000
PUBLIC	__real@40400000
PUBLIC	__real@40600000
PUBLIC	__real@40800000
PUBLIC	__real@408f400000000000
PUBLIC	__real@40a00000
PUBLIC	__real@40a33333
PUBLIC	__real@40d00000
PUBLIC	__real@40e00000
PUBLIC	__real@40f00000
PUBLIC	__real@41000000
PUBLIC	__real@41200000
PUBLIC	__real@41700000
PUBLIC	__real@41a00000
PUBLIC	__real@41c80000
PUBLIC	__real@41f00000
PUBLIC	__real@42200000
PUBLIC	__real@42700000
PUBLIC	__real@42960000
PUBLIC	__real@42a00000
PUBLIC	__real@42c80000
PUBLIC	__real@43160000
PUBLIC	__real@43340000
PUBLIC	__real@437f0000
PUBLIC	__real@447a0000
PUBLIC	__real@44800000
PUBLIC	__real@44bb8000
PUBLIC	__real@44fa0000
PUBLIC	__real@bdcccccd
PUBLIC	__real@be4ccccd
PUBLIC	__real@be99999a
PUBLIC	__real@becccccd
PUBLIC	__real@bf000000
PUBLIC	__real@bf400000
PUBLIC	__real@bf59999a
PUBLIC	__real@bf800000
PUBLIC	__real@bfa00000
PUBLIC	__real@bfc00000
PUBLIC	__real@bfe0000000000000
PUBLIC	__real@c0200000
PUBLIC	__real@c0400000
PUBLIC	__real@c0800000
PUBLIC	__real@c0a00000
PUBLIC	__real@c0a33333
PUBLIC	__real@c0e00000
PUBLIC	__real@c0f00000
PUBLIC	__real@c1000000
PUBLIC	__real@c1200000
PUBLIC	__real@c1700000
PUBLIC	__real@c1c80000
PUBLIC	__real@c1f00000
PUBLIC	__real@c2700000
PUBLIC	__real@c2960000
PUBLIC	__real@c2c80000
PUBLIC	__real@c2f00000
PUBLIC	__xmm@80000000000000008000000000000000
PUBLIC	__xmm@80000000800000008000000080000000
EXTRN	??3@YAXPAXI@Z:PROC				; operator delete
EXTRN	??_U@YAPAXI@Z:PROC				; operator new[]
EXTRN	??_V@YAXPAX@Z:PROC				; operator delete[]
EXTRN	??_V@YAXPAXI@Z:PROC				; operator delete[]
EXTRN	_atexit:PROC
EXTRN	_memset:PROC
EXTRN	_fabs:PROC
EXTRN	_sin:PROC
EXTRN	_sqrt:PROC
EXTRN	?VectorAngles@@YAXABVVector@@AAV1@@Z:PROC	; VectorAngles
EXTRN	?RotatePointAroundVector@@YAXAAVVector@@ABV1@1M@Z:PROC ; RotatePointAroundVector
EXTRN	?ClearBounds@@YAXAAVVector@@0@Z:PROC		; ClearBounds
EXTRN	?AddPointToBounds@@YAXABVVector@@AAV1@1M@Z:PROC	; AddPointToBounds
EXTRN	?Q_strncpy@@YAIPADPBDI@Z:PROC			; Q_strncpy
EXTRN	?Q_atof@@YAMPBD@Z:PROC				; Q_atof
EXTRN	?Q_strnicmp@@YAHPBD0H@Z:PROC			; Q_strnicmp
EXTRN	?COM_FileExtension@@YAPBDPBD@Z:PROC		; COM_FileExtension
EXTRN	?COM_ParseFileExt@@YAPADPAD0J_N@Z:PROC		; COM_ParseFileExt
EXTRN	?ALERT@@YAXW4ALERT_TYPE@@PADZZ:PROC		; ALERT
EXTRN	?CL_UTIL_Approach@@YAMMMM@Z:PROC		; CL_UTIL_Approach
EXTRN	?CullSphere@CFrustum@@QAE_NABVVector@@MH@Z:PROC	; CFrustum::CullSphere
EXTRN	?GL_Support@@YA_NH@Z:PROC			; GL_Support
EXTRN	?GL_Cull@@YAXI@Z:PROC				; GL_Cull
EXTRN	?GL_DepthMask@@YAXH@Z:PROC			; GL_DepthMask
EXTRN	?GL_Blend@@YAXH@Z:PROC				; GL_Blend
EXTRN	?R_LightsForPoint@@YA?AVVector@@ABV1@M@Z:PROC	; R_LightsForPoint
EXTRN	??_ECQuakePartSystem@@UAEPAXI@Z:PROC		; CQuakePartSystem::`vector deleting destructor'
EXTRN	?GetSpriteFrame@CSpriteModelRenderer@@QAEPAUmspriteframe_s@@PBUmodel_s@@H@Z:PROC ; CSpriteModelRenderer::GetSpriteFrame
EXTRN	@__security_check_cookie@4:PROC
EXTRN	___CxxFrameHandler3:PROC
EXTRN	?g_vecZero@@3VVector@@B:BYTE			; g_vecZero
EXTRN	?gEngfuncs@@3Ucl_enginefuncs_s@@A:BYTE		; gEngfuncs
EXTRN	?gRenderfuncs@@3Urender_api_s@@A:BYTE		; gRenderfuncs
EXTRN	?g_fFrametime@@3MA:DWORD			; g_fFrametime
EXTRN	?g_fRenderInitialized@@3HA:DWORD		; g_fRenderInitialized
EXTRN	?pglBegin@@3P6GXI@ZA:DWORD			; pglBegin
EXTRN	?pglBlendFunc@@3P6GXII@ZA:DWORD			; pglBlendFunc
EXTRN	?pglColor4f@@3P6GXMMMM@ZA:DWORD			; pglColor4f
EXTRN	?pglDisableClientState@@3P6GXI@ZA:DWORD		; pglDisableClientState
EXTRN	?pglEnableClientState@@3P6GXI@ZA:DWORD		; pglEnableClientState
EXTRN	?pglEnd@@3P6GXXZA:DWORD				; pglEnd
EXTRN	?pglTexCoord2f@@3P6GXMM@ZA:DWORD		; pglTexCoord2f
EXTRN	?pglTexEnvi@@3P6GXIIH@ZA:DWORD			; pglTexEnvi
EXTRN	?pglVertex3fv@@3P6GXPBM@ZA:DWORD		; pglVertex3fv
EXTRN	?pglDrawRangeElementsEXT@@3P6GXIIIHIPBX@ZA:DWORD ; pglDrawRangeElementsEXT
EXTRN	?pglDrawElements@@3P6GXIHIPBX@ZA:DWORD		; pglDrawElements
EXTRN	?pglVertexPointer@@3P6GXHIHPBX@ZA:DWORD		; pglVertexPointer
EXTRN	?pglColorPointer@@3P6GXHIHPBX@ZA:DWORD		; pglColorPointer
EXTRN	?pglTexCoordPointer@@3P6GXHIHPBX@ZA:DWORD	; pglTexCoordPointer
EXTRN	?RI@@3PAUref_instance_t@@A:DWORD		; RI
EXTRN	?tr@@3Uref_globals_t@@A:BYTE			; tr
EXTRN	?r_stats@@3Uref_stats_t@@A:BYTE			; r_stats
EXTRN	?g_SpriteRenderer@@3VCSpriteModelRenderer@@A:BYTE ; g_SpriteRenderer
EXTRN	??_7type_info@@6B@:QWORD			; type_info::`vftable'
EXTRN	___security_cookie:DWORD
EXTRN	__fltused:DWORD
_BSS	SEGMENT
?g_pParticles@@3VCQuakePartSystem@@A DB 02cec34H DUP (?) ; g_pParticles
?m_vertexarray@@3PAVVector@@A DB 0c0000H DUP (?)	; m_vertexarray
?m_colorarray@@3PAY03EA DB 040020H DUP (?)		; m_colorarray
?m_coordsarray@@3PAVVector2D@@A DQ 010004H DUP (?)	; m_coordsarray
?m_indexarray@@3PAGA DW 040010H DUP (?)			; m_indexarray
?m_iNumVerts@@3HA DD 01H DUP (?)			; m_iNumVerts
?m_iNumIndex@@3HA DD 01H DUP (?)			; m_iNumIndex
?ParticleArray_Default@@3V?$MemBlock@VCQuakePart@@@@A DB 010H DUP (?) ; ParticleArray_Default
?ParticleArray_Dustmote@@3V?$MemBlock@VCQuakePart@@@@A DB 010H DUP (?) ; ParticleArray_Dustmote
?ParticleArray_Sparks@@3V?$MemBlock@VCQuakePart@@@@A DB 010H DUP (?) ; ParticleArray_Sparks
?ParticleArray_Smoke@@3V?$MemBlock@VCQuakePart@@@@A DB 010H DUP (?) ; ParticleArray_Smoke
?ParticleArray_Smoke_NotInWater@@3V?$MemBlock@VCQuakePart@@@@A DB 010H DUP (?) ; ParticleArray_Smoke_NotInWater
?ParticleArray_Watersplash@@3V?$MemBlock@VCQuakePart@@@@A DB 010H DUP (?) ; ParticleArray_Watersplash
?ParticleArray_Sand@@3V?$MemBlock@VCQuakePart@@@@A DB 010H DUP (?) ; ParticleArray_Sand
?ParticleArray_Dirt@@3V?$MemBlock@VCQuakePart@@@@A DB 010H DUP (?) ; ParticleArray_Dirt
?ParticleArray_Fireball@@3V?$MemBlock@VCQuakePart@@@@A DB 010H DUP (?) ; ParticleArray_Fireball
?ParticleArray_Blood@@3V?$MemBlock@VCQuakePart@@@@A DB 010H DUP (?) ; ParticleArray_Blood
_BSS	ENDS
CRT$XCU	SEGMENT
?g_pParticles$initializer$@@3P6AXXZA DD FLAT:??__Eg_pParticles@@YAXXZ ; g_pParticles$initializer$
CRT$XCU	ENDS
;	COMDAT __xmm@80000000800000008000000080000000
CONST	SEGMENT
__xmm@80000000800000008000000080000000 DB 00H, 00H, 00H, 080H, 00H, 00H, 00H
	DB	080H, 00H, 00H, 00H, 080H, 00H, 00H, 00H, 080H
CONST	ENDS
;	COMDAT __xmm@80000000000000008000000000000000
CONST	SEGMENT
__xmm@80000000000000008000000000000000 DB 00H, 00H, 00H, 00H, 00H, 00H, 00H
	DB	080H, 00H, 00H, 00H, 00H, 00H, 00H, 00H, 080H
CONST	ENDS
;	COMDAT __real@c2f00000
CONST	SEGMENT
__real@c2f00000 DD 0c2f00000r			; -120
CONST	ENDS
;	COMDAT __real@c2c80000
CONST	SEGMENT
__real@c2c80000 DD 0c2c80000r			; -100
CONST	ENDS
;	COMDAT __real@c2960000
CONST	SEGMENT
__real@c2960000 DD 0c2960000r			; -75
CONST	ENDS
;	COMDAT __real@c2700000
CONST	SEGMENT
__real@c2700000 DD 0c2700000r			; -60
CONST	ENDS
;	COMDAT __real@c1f00000
CONST	SEGMENT
__real@c1f00000 DD 0c1f00000r			; -30
CONST	ENDS
;	COMDAT __real@c1c80000
CONST	SEGMENT
__real@c1c80000 DD 0c1c80000r			; -25
CONST	ENDS
;	COMDAT __real@c1700000
CONST	SEGMENT
__real@c1700000 DD 0c1700000r			; -15
CONST	ENDS
;	COMDAT __real@c1200000
CONST	SEGMENT
__real@c1200000 DD 0c1200000r			; -10
CONST	ENDS
;	COMDAT __real@c1000000
CONST	SEGMENT
__real@c1000000 DD 0c1000000r			; -8
CONST	ENDS
;	COMDAT __real@c0f00000
CONST	SEGMENT
__real@c0f00000 DD 0c0f00000r			; -7.5
CONST	ENDS
;	COMDAT __real@c0e00000
CONST	SEGMENT
__real@c0e00000 DD 0c0e00000r			; -7
CONST	ENDS
;	COMDAT __real@c0a33333
CONST	SEGMENT
__real@c0a33333 DD 0c0a33333r			; -5.1
CONST	ENDS
;	COMDAT __real@c0a00000
CONST	SEGMENT
__real@c0a00000 DD 0c0a00000r			; -5
CONST	ENDS
;	COMDAT __real@c0800000
CONST	SEGMENT
__real@c0800000 DD 0c0800000r			; -4
CONST	ENDS
;	COMDAT __real@c0400000
CONST	SEGMENT
__real@c0400000 DD 0c0400000r			; -3
CONST	ENDS
;	COMDAT __real@c0200000
CONST	SEGMENT
__real@c0200000 DD 0c0200000r			; -2.5
CONST	ENDS
;	COMDAT __real@bfe0000000000000
CONST	SEGMENT
__real@bfe0000000000000 DQ 0bfe0000000000000r	; -0.5
CONST	ENDS
;	COMDAT __real@bfc00000
CONST	SEGMENT
__real@bfc00000 DD 0bfc00000r			; -1.5
CONST	ENDS
;	COMDAT __real@bfa00000
CONST	SEGMENT
__real@bfa00000 DD 0bfa00000r			; -1.25
CONST	ENDS
;	COMDAT __real@bf800000
CONST	SEGMENT
__real@bf800000 DD 0bf800000r			; -1
CONST	ENDS
;	COMDAT __real@bf59999a
CONST	SEGMENT
__real@bf59999a DD 0bf59999ar			; -0.85
CONST	ENDS
;	COMDAT __real@bf400000
CONST	SEGMENT
__real@bf400000 DD 0bf400000r			; -0.75
CONST	ENDS
;	COMDAT __real@bf000000
CONST	SEGMENT
__real@bf000000 DD 0bf000000r			; -0.5
CONST	ENDS
;	COMDAT __real@becccccd
CONST	SEGMENT
__real@becccccd DD 0becccccdr			; -0.4
CONST	ENDS
;	COMDAT __real@be99999a
CONST	SEGMENT
__real@be99999a DD 0be99999ar			; -0.3
CONST	ENDS
;	COMDAT __real@be4ccccd
CONST	SEGMENT
__real@be4ccccd DD 0be4ccccdr			; -0.2
CONST	ENDS
;	COMDAT __real@bdcccccd
CONST	SEGMENT
__real@bdcccccd DD 0bdcccccdr			; -0.1
CONST	ENDS
;	COMDAT __real@44fa0000
CONST	SEGMENT
__real@44fa0000 DD 044fa0000r			; 2000
CONST	ENDS
;	COMDAT __real@44bb8000
CONST	SEGMENT
__real@44bb8000 DD 044bb8000r			; 1500
CONST	ENDS
;	COMDAT __real@44800000
CONST	SEGMENT
__real@44800000 DD 044800000r			; 1024
CONST	ENDS
;	COMDAT __real@447a0000
CONST	SEGMENT
__real@447a0000 DD 0447a0000r			; 1000
CONST	ENDS
;	COMDAT __real@437f0000
CONST	SEGMENT
__real@437f0000 DD 0437f0000r			; 255
CONST	ENDS
;	COMDAT __real@43340000
CONST	SEGMENT
__real@43340000 DD 043340000r			; 180
CONST	ENDS
;	COMDAT __real@43160000
CONST	SEGMENT
__real@43160000 DD 043160000r			; 150
CONST	ENDS
;	COMDAT __real@42c80000
CONST	SEGMENT
__real@42c80000 DD 042c80000r			; 100
CONST	ENDS
;	COMDAT __real@42a00000
CONST	SEGMENT
__real@42a00000 DD 042a00000r			; 80
CONST	ENDS
;	COMDAT __real@42960000
CONST	SEGMENT
__real@42960000 DD 042960000r			; 75
CONST	ENDS
;	COMDAT __real@42700000
CONST	SEGMENT
__real@42700000 DD 042700000r			; 60
CONST	ENDS
;	COMDAT __real@42200000
CONST	SEGMENT
__real@42200000 DD 042200000r			; 40
CONST	ENDS
;	COMDAT __real@41f00000
CONST	SEGMENT
__real@41f00000 DD 041f00000r			; 30
CONST	ENDS
;	COMDAT __real@41c80000
CONST	SEGMENT
__real@41c80000 DD 041c80000r			; 25
CONST	ENDS
;	COMDAT __real@41a00000
CONST	SEGMENT
__real@41a00000 DD 041a00000r			; 20
CONST	ENDS
;	COMDAT __real@41700000
CONST	SEGMENT
__real@41700000 DD 041700000r			; 15
CONST	ENDS
;	COMDAT __real@41200000
CONST	SEGMENT
__real@41200000 DD 041200000r			; 10
CONST	ENDS
;	COMDAT __real@41000000
CONST	SEGMENT
__real@41000000 DD 041000000r			; 8
CONST	ENDS
;	COMDAT __real@40f00000
CONST	SEGMENT
__real@40f00000 DD 040f00000r			; 7.5
CONST	ENDS
;	COMDAT __real@40e00000
CONST	SEGMENT
__real@40e00000 DD 040e00000r			; 7
CONST	ENDS
;	COMDAT __real@40d00000
CONST	SEGMENT
__real@40d00000 DD 040d00000r			; 6.5
CONST	ENDS
;	COMDAT __real@40a33333
CONST	SEGMENT
__real@40a33333 DD 040a33333r			; 5.1
CONST	ENDS
;	COMDAT __real@40a00000
CONST	SEGMENT
__real@40a00000 DD 040a00000r			; 5
CONST	ENDS
;	COMDAT __real@408f400000000000
CONST	SEGMENT
__real@408f400000000000 DQ 0408f400000000000r	; 1000
CONST	ENDS
;	COMDAT __real@40800000
CONST	SEGMENT
__real@40800000 DD 040800000r			; 4
CONST	ENDS
;	COMDAT __real@40600000
CONST	SEGMENT
__real@40600000 DD 040600000r			; 3.5
CONST	ENDS
;	COMDAT __real@40400000
CONST	SEGMENT
__real@40400000 DD 040400000r			; 3
CONST	ENDS
;	COMDAT __real@40200000
CONST	SEGMENT
__real@40200000 DD 040200000r			; 2.5
CONST	ENDS
;	COMDAT __real@4000000000000000
CONST	SEGMENT
__real@4000000000000000 DQ 04000000000000000r	; 2
CONST	ENDS
;	COMDAT __real@40000000
CONST	SEGMENT
__real@40000000 DD 040000000r			; 2
CONST	ENDS
;	COMDAT __real@3fe999999999999a
CONST	SEGMENT
__real@3fe999999999999a DQ 03fe999999999999ar	; 0.8
CONST	ENDS
;	COMDAT __real@3fe0000000000000
CONST	SEGMENT
__real@3fe0000000000000 DQ 03fe0000000000000r	; 0.5
CONST	ENDS
;	COMDAT __real@3fd999999999999a
CONST	SEGMENT
__real@3fd999999999999a DQ 03fd999999999999ar	; 0.4
CONST	ENDS
;	COMDAT __real@3fd0000000000000
CONST	SEGMENT
__real@3fd0000000000000 DQ 03fd0000000000000r	; 0.25
CONST	ENDS
;	COMDAT __real@3fc00000
CONST	SEGMENT
__real@3fc00000 DD 03fc00000r			; 1.5
CONST	ENDS
;	COMDAT __real@3fb999999999999a
CONST	SEGMENT
__real@3fb999999999999a DQ 03fb999999999999ar	; 0.1
CONST	ENDS
;	COMDAT __real@3f933333
CONST	SEGMENT
__real@3f933333 DD 03f933333r			; 1.15
CONST	ENDS
;	COMDAT __real@3f800000
CONST	SEGMENT
__real@3f800000 DD 03f800000r			; 1
CONST	ENDS
;	COMDAT __real@3f59999a
CONST	SEGMENT
__real@3f59999a DD 03f59999ar			; 0.85
CONST	ENDS
;	COMDAT __real@3f400000
CONST	SEGMENT
__real@3f400000 DD 03f400000r			; 0.75
CONST	ENDS
;	COMDAT __real@3f333333
CONST	SEGMENT
__real@3f333333 DD 03f333333r			; 0.7
CONST	ENDS
;	COMDAT __real@3f000000
CONST	SEGMENT
__real@3f000000 DD 03f000000r			; 0.5
CONST	ENDS
;	COMDAT __real@3ecccccd
CONST	SEGMENT
__real@3ecccccd DD 03ecccccdr			; 0.4
CONST	ENDS
;	COMDAT __real@3e99999a
CONST	SEGMENT
__real@3e99999a DD 03e99999ar			; 0.3
CONST	ENDS
;	COMDAT __real@3e800000
CONST	SEGMENT
__real@3e800000 DD 03e800000r			; 0.25
CONST	ENDS
;	COMDAT __real@3e4ccccd
CONST	SEGMENT
__real@3e4ccccd DD 03e4ccccdr			; 0.2
CONST	ENDS
;	COMDAT __real@3e19999a
CONST	SEGMENT
__real@3e19999a DD 03e19999ar			; 0.15
CONST	ENDS
;	COMDAT __real@3dcccccd
CONST	SEGMENT
__real@3dcccccd DD 03dcccccdr			; 0.1
CONST	ENDS
;	COMDAT __real@3c23d70a
CONST	SEGMENT
__real@3c23d70a DD 03c23d70ar			; 0.01
CONST	ENDS
;	COMDAT __real@3bf5c28f
CONST	SEGMENT
__real@3bf5c28f DD 03bf5c28fr			; 0.0075
CONST	ENDS
;	COMDAT __real@3b83126f
CONST	SEGMENT
__real@3b83126f DD 03b83126fr			; 0.004
CONST	ENDS
;	COMDAT __real@3b808081
CONST	SEGMENT
__real@3b808081 DD 03b808081r			; 0.00392157
CONST	ENDS
;	COMDAT __real@3a83126f
CONST	SEGMENT
__real@3a83126f DD 03a83126fr			; 0.001
CONST	ENDS
;	COMDAT __real@00000000
CONST	SEGMENT
__real@00000000 DD 000000000r			; 0
CONST	ENDS
;	COMDAT ??_R1A@?0A@EA@CQuakePartSystem@@8
rdata$r	SEGMENT
??_R1A@?0A@EA@CQuakePartSystem@@8 DD FLAT:??_R0?AVCQuakePartSystem@@@8 ; CQuakePartSystem::`RTTI Base Class Descriptor at (0,-1,0,64)'
	DD	00H
	DD	00H
	DD	0ffffffffH
	DD	00H
	DD	040H
	DD	FLAT:??_R3CQuakePartSystem@@8
rdata$r	ENDS
;	COMDAT ??_R2CQuakePartSystem@@8
rdata$r	SEGMENT
??_R2CQuakePartSystem@@8 DD FLAT:??_R1A@?0A@EA@CQuakePartSystem@@8 ; CQuakePartSystem::`RTTI Base Class Array'
rdata$r	ENDS
;	COMDAT ??_R3CQuakePartSystem@@8
rdata$r	SEGMENT
??_R3CQuakePartSystem@@8 DD 00H				; CQuakePartSystem::`RTTI Class Hierarchy Descriptor'
	DD	00H
	DD	01H
	DD	FLAT:??_R2CQuakePartSystem@@8
rdata$r	ENDS
;	COMDAT ??_R0?AVCQuakePartSystem@@@8
data$r	SEGMENT
??_R0?AVCQuakePartSystem@@@8 DD FLAT:??_7type_info@@6B@	; CQuakePartSystem `RTTI Type Descriptor'
	DD	00H
	DB	'.?AVCQuakePartSystem@@', 00H
data$r	ENDS
;	COMDAT ??_R4CQuakePartSystem@@6B@
rdata$r	SEGMENT
??_R4CQuakePartSystem@@6B@ DD 00H			; CQuakePartSystem::`RTTI Complete Object Locator'
	DD	00H
	DD	00H
	DD	FLAT:??_R0?AVCQuakePartSystem@@@8
	DD	FLAT:??_R3CQuakePartSystem@@8
rdata$r	ENDS
;	COMDAT ??_C@_0BH@LOMLGGKP@AddParticle?3?5overflow?6?$AA@
CONST	SEGMENT
??_C@_0BH@LOMLGGKP@AddParticle?3?5overflow?6?$AA@ DB 'AddParticle: overfl'
	DB	'ow', 0aH, 00H				; `string'
CONST	ENDS
;	COMDAT ??_C@_0BH@FLMDKIBP@Overflow?5?$CFd?5particles?6?$AA@
CONST	SEGMENT
??_C@_0BH@FLMDKIBP@Overflow?5?$CFd?5particles?6?$AA@ DB 'Overflow %d part'
	DB	'icles', 0aH, 00H				; `string'
CONST	ENDS
;	COMDAT ??_C@_0BK@LLFBOIOB@Unknown?5effects?5token?5?$CFs?6?$AA@
CONST	SEGMENT
??_C@_0BK@LLFBOIOB@Unknown?5effects?5token?5?$CFs?6?$AA@ DB 'Unknown effe'
	DB	'cts token %s', 0aH, 00H			; `string'
CONST	ENDS
;	COMDAT ??_C@_0BO@BOGDCKMH@Unknown?5?8useNormal?8?5key?5?8?$CFs?8?6?$AA@
CONST	SEGMENT
??_C@_0BO@BOGDCKMH@Unknown?5?8useNormal?8?5key?5?8?$CFs?8?6?$AA@ DB 'Unkn'
	DB	'own ''useNormal'' key ''%s''', 0aH, 00H	; `string'
CONST	ENDS
;	COMDAT ??_C@_07LKEEPMM@dir?$CLofs?$AA@
CONST	SEGMENT
??_C@_07LKEEPMM@dir?$CLofs?$AA@ DB 'dir+ofs', 00H	; `string'
CONST	ENDS
;	COMDAT ??_C@_07KOJMABKL@ofs?$CLdir?$AA@
CONST	SEGMENT
??_C@_07KOJMABKL@ofs?$CLdir?$AA@ DB 'ofs+dir', 00H	; `string'
CONST	ENDS
;	COMDAT ??_C@_03DAPAKLGM@dir?$AA@
CONST	SEGMENT
??_C@_03DAPAKLGM@dir?$AA@ DB 'dir', 00H			; `string'
CONST	ENDS
;	COMDAT ??_C@_03PFLGFKBB@ofs?$AA@
CONST	SEGMENT
??_C@_03PFLGFKBB@ofs?$AA@ DB 'ofs', 00H			; `string'
CONST	ENDS
;	COMDAT ??_C@_06GDPEBLPA@ignore?$AA@
CONST	SEGMENT
??_C@_06GDPEBLPA@ignore?$AA@ DB 'ignore', 00H		; `string'
CONST	ENDS
;	COMDAT ??_C@_0CD@HFPJDGGC@hit?5EOF?5while?5parsing?5?8useNormal@
CONST	SEGMENT
??_C@_0CD@HFPJDGGC@hit?5EOF?5while?5parsing?5?8useNormal@ DB 'hit EOF whi'
	DB	'le parsing ''useNormal''', 0aH, 00H		; `string'
CONST	ENDS
;	COMDAT ??_C@_09HKKFCCPM@useNormal?$AA@
CONST	SEGMENT
??_C@_09HKKFCCPM@useNormal?$AA@ DB 'useNormal', 00H	; `string'
CONST	ENDS
;	COMDAT ??_C@_0BP@GAEALDHP@hit?5EOF?5while?5parsing?5?8flags?8?6?$AA@
CONST	SEGMENT
??_C@_0BP@GAEALDHP@hit?5EOF?5while?5parsing?5?8flags?8?6?$AA@ DB 'hit EOF'
	DB	' while parsing ''flags''', 0aH, 00H		; `string'
CONST	ENDS
;	COMDAT ??_C@_05GECEPKB@flags?$AA@
CONST	SEGMENT
??_C@_05GECEPKB@flags?$AA@ DB 'flags', 00H		; `string'
CONST	ENDS
;	COMDAT ??_C@_0BP@BBMILNMD@hit?5EOF?5while?5parsing?5?8count?8?6?$AA@
CONST	SEGMENT
??_C@_0BP@BBMILNMD@hit?5EOF?5while?5parsing?5?8count?8?6?$AA@ DB 'hit EOF'
	DB	' while parsing ''count''', 0aH, 00H		; `string'
CONST	ENDS
;	COMDAT ??_C@_05IOMEMJEC@count?$AA@
CONST	SEGMENT
??_C@_05IOMEMJEC@count?$AA@ DB 'count', 00H		; `string'
CONST	ENDS
;	COMDAT ??_C@_0BP@GIGDEEAO@hit?5EOF?5while?5parsing?5?8frame?8?6?$AA@
CONST	SEGMENT
??_C@_0BP@GIGDEEAO@hit?5EOF?5while?5parsing?5?8frame?8?6?$AA@ DB 'hit EOF'
	DB	' while parsing ''frame''', 0aH, 00H		; `string'
CONST	ENDS
;	COMDAT ??_C@_05MIJNFGED@frame?$AA@
CONST	SEGMENT
??_C@_05MIJNFGED@frame?$AA@ DB 'frame', 00H		; `string'
CONST	ENDS
;	COMDAT ??_C@_0CG@NNKLLCJN@hit?5EOF?5while?5parsing?5?8bounceFac@
CONST	SEGMENT
??_C@_0CG@NNKLLCJN@hit?5EOF?5while?5parsing?5?8bounceFac@ DB 'hit EOF whi'
	DB	'le parsing ''bounceFactor''', 0aH, 00H	; `string'
CONST	ENDS
;	COMDAT ??_C@_0N@PJGCMNFO@bounceFactor?$AA@
CONST	SEGMENT
??_C@_0N@PJGCMNFO@bounceFactor?$AA@ DB 'bounceFactor', 00H ; `string'
CONST	ENDS
;	COMDAT ??_C@_0CK@DJEILIPE@hit?5EOF?5while?5parsing?5?8rotationV@
CONST	SEGMENT
??_C@_0CK@DJEILIPE@hit?5EOF?5while?5parsing?5?8rotationV@ DB 'hit EOF whi'
	DB	'le parsing ''rotationVelocity''', 0aH, 00H	; `string'
CONST	ENDS
;	COMDAT ??_C@_0BB@HGDLMHHH@rotationVelocity?$AA@
CONST	SEGMENT
??_C@_0BB@HGDLMHHH@rotationVelocity?$AA@ DB 'rotationVelocity', 00H ; `string'
CONST	ENDS
;	COMDAT ??_C@_0CC@IOIKAEGF@hit?5EOF?5while?5parsing?5?8rotation?8@
CONST	SEGMENT
??_C@_0CC@IOIKAEGF@hit?5EOF?5while?5parsing?5?8rotation?8@ DB 'hit EOF wh'
	DB	'ile parsing ''rotation''', 0aH, 00H		; `string'
CONST	ENDS
;	COMDAT ??_C@_08OHGOKOGA@rotation?$AA@
CONST	SEGMENT
??_C@_08OHGOKOGA@rotation?$AA@ DB 'rotation', 00H	; `string'
CONST	ENDS
;	COMDAT ??_C@_0CI@BBMMCMM@hit?5EOF?5while?5parsing?5?8lengthVel@
CONST	SEGMENT
??_C@_0CI@BBMMCMM@hit?5EOF?5while?5parsing?5?8lengthVel@ DB 'hit EOF whil'
	DB	'e parsing ''lengthVelocity''', 0aH, 00H	; `string'
CONST	ENDS
;	COMDAT ??_C@_0P@BKMDHNNN@lengthVelocity?$AA@
CONST	SEGMENT
??_C@_0P@BKMDHNNN@lengthVelocity?$AA@ DB 'lengthVelocity', 00H ; `string'
CONST	ENDS
;	COMDAT ??_C@_0CA@HNOGEAA@hit?5EOF?5while?5parsing?5?8length?8?6?$AA@
CONST	SEGMENT
??_C@_0CA@HNOGEAA@hit?5EOF?5while?5parsing?5?8length?8?6?$AA@ DB 'hit EOF'
	DB	' while parsing ''length''', 0aH, 00H	; `string'
CONST	ENDS
;	COMDAT ??_C@_06IJDLPEM@length?$AA@
CONST	SEGMENT
??_C@_06IJDLPEM@length?$AA@ DB 'length', 00H		; `string'
CONST	ENDS
;	COMDAT ??_C@_0CI@IPNAFHEB@hit?5EOF?5while?5parsing?5?8radiusVel@
CONST	SEGMENT
??_C@_0CI@IPNAFHEB@hit?5EOF?5while?5parsing?5?8radiusVel@ DB 'hit EOF whi'
	DB	'le parsing ''radiusVelocity''', 0aH, 00H	; `string'
CONST	ENDS
;	COMDAT ??_C@_0P@GHNAGFBL@radiusVelocity?$AA@
CONST	SEGMENT
??_C@_0P@GHNAGFBL@radiusVelocity?$AA@ DB 'radiusVelocity', 00H ; `string'
CONST	ENDS
;	COMDAT ??_C@_0CA@MDJEDEAJ@hit?5EOF?5while?5parsing?5?8radius?8?6?$AA@
CONST	SEGMENT
??_C@_0CA@MDJEDEAJ@hit?5EOF?5while?5parsing?5?8radius?8?6?$AA@ DB 'hit EO'
	DB	'F while parsing ''radius''', 0aH, 00H	; `string'
CONST	ENDS
;	COMDAT ??_C@_06KGHINEPG@radius?$AA@
CONST	SEGMENT
??_C@_06KGHINEPG@radius?$AA@ DB 'radius', 00H		; `string'
CONST	ENDS
;	COMDAT ??_C@_0CH@NHGBCDGM@hit?5EOF?5while?5parsing?5?8alphaVelo@
CONST	SEGMENT
??_C@_0CH@NHGBCDGM@hit?5EOF?5while?5parsing?5?8alphaVelo@ DB 'hit EOF whi'
	DB	'le parsing ''alphaVelocity''', 0aH, 00H	; `string'
CONST	ENDS
;	COMDAT ??_C@_0O@ECOJKIBP@alphaVelocity?$AA@
CONST	SEGMENT
??_C@_0O@ECOJKIBP@alphaVelocity?$AA@ DB 'alphaVelocity', 00H ; `string'
CONST	ENDS
;	COMDAT ??_C@_0BP@NKEPGDJN@hit?5EOF?5while?5parsing?5?8alpha?8?6?$AA@
CONST	SEGMENT
??_C@_0BP@NKEPGDJN@hit?5EOF?5while?5parsing?5?8alpha?8?6?$AA@ DB 'hit EOF'
	DB	' while parsing ''alpha''', 0aH, 00H		; `string'
CONST	ENDS
;	COMDAT ??_C@_05IAEKHIAN@alpha?$AA@
CONST	SEGMENT
??_C@_05IAEKHIAN@alpha?$AA@ DB 'alpha', 00H		; `string'
CONST	ENDS
;	COMDAT ??_C@_0CH@LAOPIGD@hit?5EOF?5while?5parsing?5?8colorVelo@
CONST	SEGMENT
??_C@_0CH@LAOPIGD@hit?5EOF?5while?5parsing?5?8colorVelo@ DB 'hit EOF whil'
	DB	'e parsing ''colorVelocity''', 0aH, 00H	; `string'
CONST	ENDS
;	COMDAT ??_C@_0O@PCPNIPGJ@colorVelocity?$AA@
CONST	SEGMENT
??_C@_0O@PCPNIPGJ@colorVelocity?$AA@ DB 'colorVelocity', 00H ; `string'
CONST	ENDS
;	COMDAT ??_C@_0BP@CNBKJIPM@hit?5EOF?5while?5parsing?5?8color?8?6?$AA@
CONST	SEGMENT
??_C@_0BP@CNBKJIPM@hit?5EOF?5while?5parsing?5?8color?8?6?$AA@ DB 'hit EOF'
	DB	' while parsing ''color''', 0aH, 00H		; `string'
CONST	ENDS
;	COMDAT ??_C@_05PEENBMOG@color?$AA@
CONST	SEGMENT
??_C@_05PEENBMOG@color?$AA@ DB 'color', 00H		; `string'
CONST	ENDS
;	COMDAT ??_C@_0BP@KDLPHPCN@hit?5EOF?5while?5parsing?5?8accel?8?6?$AA@
CONST	SEGMENT
??_C@_0BP@KDLPHPCN@hit?5EOF?5while?5parsing?5?8accel?8?6?$AA@ DB 'hit EOF'
	DB	' while parsing ''accel''', 0aH, 00H		; `string'
CONST	ENDS
;	COMDAT ??_C@_05PNMAPKLD@accel?$AA@
CONST	SEGMENT
??_C@_05PNMAPKLD@accel?$AA@ DB 'accel', 00H		; `string'
CONST	ENDS
;	COMDAT ??_C@_0CC@FDGEHOIA@hit?5EOF?5while?5parsing?5?8velocity?8@
CONST	SEGMENT
??_C@_0CC@FDGEHOIA@hit?5EOF?5while?5parsing?5?8velocity?8@ DB 'hit EOF wh'
	DB	'ile parsing ''velocity''', 0aH, 00H		; `string'
CONST	ENDS
;	COMDAT ??_C@_08ICEJNDOI@velocity?$AA@
CONST	SEGMENT
??_C@_08ICEJNDOI@velocity?$AA@ DB 'velocity', 00H	; `string'
CONST	ENDS
;	COMDAT ??_C@_0CA@FMDLAHNJ@hit?5EOF?5while?5parsing?5?8offset?8?6?$AA@
CONST	SEGMENT
??_C@_0CA@FMDLAHNJ@hit?5EOF?5while?5parsing?5?8offset?8?6?$AA@ DB 'hit EO'
	DB	'F while parsing ''offset''', 0aH, 00H	; `string'
CONST	ENDS
;	COMDAT ??_C@_06KLHHMIGM@offset?$AA@
CONST	SEGMENT
??_C@_06KLHHMIGM@offset?$AA@ DB 'offset', 00H		; `string'
CONST	ENDS
;	COMDAT ??_C@_0DN@KCDMFPOP@couldn?8t?5load?5texture?5for?5effect@
CONST	SEGMENT
??_C@_0DN@KCDMFPOP@couldn?8t?5load?5texture?5for?5effect@ DB 'couldn''t l'
	DB	'oad texture for effect %s. using default particle', 0aH, 00H ; `string'
CONST	ENDS
;	COMDAT ??_C@_03OOMJFMLF@spr?$AA@
CONST	SEGMENT
??_C@_03OOMJFMLF@spr?$AA@ DB 'spr', 00H			; `string'
CONST	ENDS
;	COMDAT ??_C@_03CBDDAJHO@dds?$AA@
CONST	SEGMENT
??_C@_03CBDDAJHO@dds?$AA@ DB 'dds', 00H			; `string'
CONST	ENDS
;	COMDAT ??_C@_03LJIJAGL@tga?$AA@
CONST	SEGMENT
??_C@_03LJIJAGL@tga?$AA@ DB 'tga', 00H			; `string'
CONST	ENDS
;	COMDAT ??_C@_0CB@MCPHFAIO@hit?5EOF?5while?5parsing?5?8texture?8?6@
CONST	SEGMENT
??_C@_0CB@MCPHFAIO@hit?5EOF?5while?5parsing?5?8texture?8?6@ DB 'hit EOF w'
	DB	'hile parsing ''texture''', 0aH, 00H		; `string'
CONST	ENDS
;	COMDAT ??_C@_07JDHEGGGP@texture?$AA@
CONST	SEGMENT
??_C@_07JDHEGGGP@texture?$AA@ DB 'texture', 00H		; `string'
CONST	ENDS
;	COMDAT ??_C@_0BL@PHECOMOB@EOF?5without?5closing?5brace?6?$AA@
CONST	SEGMENT
??_C@_0BL@PHECOMOB@EOF?5without?5closing?5brace?6?$AA@ DB 'EOF without cl'
	DB	'osing brace', 0aH, 00H			; `string'
CONST	ENDS
;	COMDAT ??_C@_0BO@EBKAFPMG@unknown?5value?5?$CFs?5for?5?8flags?8?6?$AA@
CONST	SEGMENT
??_C@_0BO@EBKAFPMG@unknown?5value?5?$CFs?5for?5?8flags?8?6?$AA@ DB 'unkno'
	DB	'wn value %s for ''flags''', 0aH, 00H	; `string'
CONST	ENDS
;	COMDAT ??_C@_0BB@IPNBBMAH@FloatingOriented?$AA@
CONST	SEGMENT
??_C@_0BB@IPNBBMAH@FloatingOriented?$AA@ DB 'FloatingOriented', 00H ; `string'
CONST	ENDS
;	COMDAT ??_C@_08KPOFCBBH@Floating?$AA@
CONST	SEGMENT
??_C@_08KPOFCBBH@Floating?$AA@ DB 'Floating', 00H	; `string'
CONST	ENDS
;	COMDAT ??_C@_06NDBNOOOH@Skybox?$AA@
CONST	SEGMENT
??_C@_06NDBNOOOH@Skybox?$AA@ DB 'Skybox', 00H		; `string'
CONST	ENDS
;	COMDAT ??_C@_06GCJPJKOH@FadeIn?$AA@
CONST	SEGMENT
??_C@_06GCJPJKOH@FadeIn?$AA@ DB 'FadeIn', 00H		; `string'
CONST	ENDS
;	COMDAT ??_C@_0L@HCCPBMGG@NotInWater?$AA@
CONST	SEGMENT
??_C@_0L@HCCPBMGG@NotInWater?$AA@ DB 'NotInWater', 00H	; `string'
CONST	ENDS
;	COMDAT ??_C@_08NGDGBBLG@Additive?$AA@
CONST	SEGMENT
??_C@_08NGDGBBLG@Additive?$AA@ DB 'Additive', 00H	; `string'
CONST	ENDS
;	COMDAT ??_C@_07HMOCDNDG@Instant?$AA@
CONST	SEGMENT
??_C@_07HMOCDNDG@Instant?$AA@ DB 'Instant', 00H		; `string'
CONST	ENDS
;	COMDAT ??_C@_0L@LFPBPCDD@Underwater?$AA@
CONST	SEGMENT
??_C@_0L@LFPBPCDD@Underwater?$AA@ DB 'Underwater', 00H	; `string'
CONST	ENDS
;	COMDAT ??_C@_07ENIDNHGB@Stretch?$AA@
CONST	SEGMENT
??_C@_07ENIDNHGB@Stretch?$AA@ DB 'Stretch', 00H		; `string'
CONST	ENDS
;	COMDAT ??_C@_05JODGIKH@Light?$AA@
CONST	SEGMENT
??_C@_05JODGIKH@Light?$AA@ DB 'Light', 00H		; `string'
CONST	ENDS
;	COMDAT ??_C@_08DIMMEHEB@Friction?$AA@
CONST	SEGMENT
??_C@_08DIMMEHEB@Friction?$AA@ DB 'Friction', 00H	; `string'
CONST	ENDS
;	COMDAT ??_C@_06PAHFPMEK@Bounce?$AA@
CONST	SEGMENT
??_C@_06PAHFPMEK@Bounce?$AA@ DB 'Bounce', 00H		; `string'
CONST	ENDS
;	COMDAT ??_C@_0CK@MMAOOEFB@QuakeParticle?3?5couldn?8t?5find?5eff@
CONST	SEGMENT
??_C@_0CK@MMAOOEFB@QuakeParticle?3?5couldn?8t?5find?5eff@ DB 'QuakePartic'
	DB	'le: couldn''t find effect ''%s''', 0aH, 00H	; `string'
CONST	ENDS
;	COMDAT ??_C@_0BD@PFFOMDCC@?$CFd?5effects?5parsed?6?$AA@
CONST	SEGMENT
??_C@_0BD@PFFOMDCC@?$CFd?5effects?5parsed?6?$AA@ DB '%d effects parsed', 0aH
	DB	00H						; `string'
CONST	ENDS
;	COMDAT ??_C@_0BL@MJDIPEOM@found?5?$CFs?5when?5expecting?5?$HL?6?$AA@
CONST	SEGMENT
??_C@_0BL@MJDIPEOM@found?5?$CFs?5when?5expecting?5?$HL?6?$AA@ DB 'found %'
	DB	's when expecting {', 0aH, 00H		; `string'
CONST	ENDS
;	COMDAT ??_C@_0CO@GIHBEDNL@particle?5effects?5info?5limit?5exce@
CONST	SEGMENT
??_C@_0CO@GIHBEDNL@particle?5effects?5info?5limit?5exce@ DB 'particle eff'
	DB	'ects info limit exceeded %d > %d', 0aH, 00H	; `string'
CONST	ENDS
;	COMDAT ??_C@_0BF@NPLBJKHF@Cannot?5open?5file?5?$CFs?6?$AA@
CONST	SEGMENT
??_C@_0BF@NPLBJKHF@Cannot?5open?5file?5?$CFs?6?$AA@ DB 'Cannot open file '
	DB	'%s', 0aH, 00H				; `string'
CONST	ENDS
;	COMDAT ??_C@_0M@KOFNDIEA@loading?5?$CFs?6?$AA@
CONST	SEGMENT
??_C@_0M@KOFNDIEA@loading?5?$CFs?6?$AA@ DB 'loading %s', 0aH, 00H ; `string'
CONST	ENDS
;	COMDAT ??_C@_0BD@FMKPEBGE@data?1particles?4txt?$AA@
CONST	SEGMENT
??_C@_0BD@FMKPEBGE@data?1particles?4txt?$AA@ DB 'data/particles.txt', 00H ; `string'
CONST	ENDS
;	COMDAT ??_C@_0BI@BPBIPOGH@gfx?1particles?1explosion?$AA@
CONST	SEGMENT
??_C@_0BI@BPBIPOGH@gfx?1particles?1explosion?$AA@ DB 'gfx/particles/explo'
	DB	'sion', 00H					; `string'
CONST	ENDS
;	COMDAT ??_C@_0BH@LEHKLNJL@gfx?1particles?1dustmote?$AA@
CONST	SEGMENT
??_C@_0BH@LEHKLNJL@gfx?1particles?1dustmote?$AA@ DB 'gfx/particles/dustmo'
	DB	'te', 00H					; `string'
CONST	ENDS
;	COMDAT ??_C@_0BL@HBCOCBNF@gfx?1particles?1dirtparticle?$AA@
CONST	SEGMENT
??_C@_0BL@HBCOCBNF@gfx?1particles?1dirtparticle?$AA@ DB 'gfx/particles/di'
	DB	'rtparticle', 00H				; `string'
CONST	ENDS
;	COMDAT ??_C@_0BL@DNBECAEN@gfx?1particles?1sandparticle?$AA@
CONST	SEGMENT
??_C@_0BL@DNBECAEN@gfx?1particles?1sandparticle?$AA@ DB 'gfx/particles/sa'
	DB	'ndparticle', 00H				; `string'
CONST	ENDS
;	COMDAT ??_C@_0BE@CJKEHMBF@gfx?1particles?1blood?$AA@
CONST	SEGMENT
??_C@_0BE@CJKEHMBF@gfx?1particles?1blood?$AA@ DB 'gfx/particles/blood', 00H ; `string'
CONST	ENDS
;	COMDAT ??_C@_0BI@HPNKPJDK@gfx?1particles?1waterring?$AA@
CONST	SEGMENT
??_C@_0BI@HPNKPJDK@gfx?1particles?1waterring?$AA@ DB 'gfx/particles/water'
	DB	'ring', 00H					; `string'
CONST	ENDS
;	COMDAT ??_C@_0BE@MCFMBNAG@gfx?1particles?1smoke?$AA@
CONST	SEGMENT
??_C@_0BE@MCFMBNAG@gfx?1particles?1smoke?$AA@ DB 'gfx/particles/smoke', 00H ; `string'
CONST	ENDS
;	COMDAT ??_C@_0BE@DHIHIMHH@gfx?1particles?1spark?$AA@
CONST	SEGMENT
??_C@_0BE@DHIHIMHH@gfx?1particles?1spark?$AA@ DB 'gfx/particles/spark', 00H ; `string'
CONST	ENDS
;	COMDAT ??_C@_09KHFKAJMC@?$CKparticle?$AA@
CONST	SEGMENT
??_C@_09KHFKAJMC@?$CKparticle?$AA@ DB '*particle', 00H	; `string'
CONST	ENDS
;	COMDAT ??_7CQuakePartSystem@@6B@
CONST	SEGMENT
??_7CQuakePartSystem@@6B@ DD FLAT:??_R4CQuakePartSystem@@6B@ ; CQuakePartSystem::`vftable'
	DD	FLAT:??_ECQuakePartSystem@@UAEPAXI@Z
CONST	ENDS
;	COMDAT xdata$x
xdata$x	SEGMENT
__unwindtable$??0?$MemBlock@VCQuakePart@@@@QAE@H@Z DD 0ffffffffH
	DD	FLAT:__unwindfunclet$??0?$MemBlock@VCQuakePart@@@@QAE@H@Z$0
__ehfuncinfo$??0?$MemBlock@VCQuakePart@@@@QAE@H@Z DD 019930522H
	DD	01H
	DD	FLAT:__unwindtable$??0?$MemBlock@VCQuakePart@@@@QAE@H@Z
	DD	2 DUP(00H)
	DD	2 DUP(00H)
	DD	00H
	DD	01H
xdata$x	ENDS
CRT$XCU	SEGMENT
?m_vertexarray$initializer$@@3P6AXXZA DD FLAT:??__Em_vertexarray@@YAXXZ ; m_vertexarray$initializer$
CRT$XCU	ENDS
CRT$XCU	SEGMENT
?m_coordsarray$initializer$@@3P6AXXZA DD FLAT:??__Em_coordsarray@@YAXXZ ; m_coordsarray$initializer$
CRT$XCU	ENDS
CRT$XCU	SEGMENT
?ParticleArray_Default$initializer$@@3P6AXXZA DD FLAT:??__EParticleArray_Default@@YAXXZ ; ParticleArray_Default$initializer$
CRT$XCU	ENDS
CRT$XCU	SEGMENT
?ParticleArray_Dustmote$initializer$@@3P6AXXZA DD FLAT:??__EParticleArray_Dustmote@@YAXXZ ; ParticleArray_Dustmote$initializer$
CRT$XCU	ENDS
CRT$XCU	SEGMENT
?ParticleArray_Sparks$initializer$@@3P6AXXZA DD FLAT:??__EParticleArray_Sparks@@YAXXZ ; ParticleArray_Sparks$initializer$
CRT$XCU	ENDS
CRT$XCU	SEGMENT
?ParticleArray_Smoke$initializer$@@3P6AXXZA DD FLAT:??__EParticleArray_Smoke@@YAXXZ ; ParticleArray_Smoke$initializer$
CRT$XCU	ENDS
CRT$XCU	SEGMENT
?ParticleArray_Smoke_NotInWater$initializer$@@3P6AXXZA DD FLAT:??__EParticleArray_Smoke_NotInWater@@YAXXZ ; ParticleArray_Smoke_NotInWater$initializer$
CRT$XCU	ENDS
CRT$XCU	SEGMENT
?ParticleArray_Watersplash$initializer$@@3P6AXXZA DD FLAT:??__EParticleArray_Watersplash@@YAXXZ ; ParticleArray_Watersplash$initializer$
CRT$XCU	ENDS
CRT$XCU	SEGMENT
?ParticleArray_Sand$initializer$@@3P6AXXZA DD FLAT:??__EParticleArray_Sand@@YAXXZ ; ParticleArray_Sand$initializer$
CRT$XCU	ENDS
CRT$XCU	SEGMENT
?ParticleArray_Dirt$initializer$@@3P6AXXZA DD FLAT:??__EParticleArray_Dirt@@YAXXZ ; ParticleArray_Dirt$initializer$
CRT$XCU	ENDS
CRT$XCU	SEGMENT
?ParticleArray_Fireball$initializer$@@3P6AXXZA DD FLAT:??__EParticleArray_Fireball@@YAXXZ ; ParticleArray_Fireball$initializer$
CRT$XCU	ENDS
CRT$XCU	SEGMENT
?ParticleArray_Blood$initializer$@@3P6AXXZA DD FLAT:??__EParticleArray_Blood@@YAXXZ ; ParticleArray_Blood$initializer$
CRT$XCU	ENDS
; Function compile flags: /Odtp /ZI
;	COMDAT ??0chunk_s@?$MemBlock@VCQuakePart@@@@QAE@XZ
_TEXT	SEGMENT
_this$ = -4						; size = 4
??0chunk_s@?$MemBlock@VCQuakePart@@@@QAE@XZ PROC	; MemBlock<CQuakePart>::chunk_s::chunk_s, COMDAT
; _this$ = ecx
	push	ebp
	mov	ebp, esp
	sub	esp, 68					; 00000044H
	push	ebx
	push	esi
	push	edi
	mov	DWORD PTR _this$[ebp], ecx
	mov	ecx, DWORD PTR _this$[ebp]
	add	ecx, 4
	call	??0CQuakePart@@QAE@XZ
	mov	eax, DWORD PTR _this$[ebp]
	pop	edi
	pop	esi
	pop	ebx
	mov	esp, ebp
	pop	ebp
	ret	0
??0chunk_s@?$MemBlock@VCQuakePart@@@@QAE@XZ ENDP	; MemBlock<CQuakePart>::chunk_s::chunk_s
_TEXT	ENDS
; Function compile flags: /Odtp /ZI
;	COMDAT ??__FParticleArray_Blood@@YAXXZ
text$yd	SEGMENT
??__FParticleArray_Blood@@YAXXZ PROC			; `dynamic atexit destructor for 'ParticleArray_Blood'', COMDAT
	push	ebp
	mov	ebp, esp
	sub	esp, 64					; 00000040H
	push	ebx
	push	esi
	push	edi
	mov	ecx, OFFSET ?ParticleArray_Blood@@3V?$MemBlock@VCQuakePart@@@@A ; ParticleArray_Blood
	call	??1?$MemBlock@VCQuakePart@@@@QAE@XZ	; MemBlock<CQuakePart>::~MemBlock<CQuakePart>
	pop	edi
	pop	esi
	pop	ebx
	mov	esp, ebp
	pop	ebp
	ret	0
??__FParticleArray_Blood@@YAXXZ ENDP			; `dynamic atexit destructor for 'ParticleArray_Blood''
text$yd	ENDS
; Function compile flags: /Odtp /ZI
; File d:\!diffusion 2020\source code 2022\client-server\client\render\r_quakeparticle.cpp
;	COMDAT ??__EParticleArray_Blood@@YAXXZ
text$di	SEGMENT
??__EParticleArray_Blood@@YAXXZ PROC			; `dynamic initializer for 'ParticleArray_Blood'', COMDAT

; 51   : MemBlock<CQuakePart>ParticleArray_Blood( MAX_PARTICLES ); // TYPE_BLOOD

	push	ebp
	mov	ebp, esp
	sub	esp, 64					; 00000040H
	push	ebx
	push	esi
	push	edi
	push	16384					; 00004000H
	mov	ecx, OFFSET ?ParticleArray_Blood@@3V?$MemBlock@VCQuakePart@@@@A ; ParticleArray_Blood
	call	??0?$MemBlock@VCQuakePart@@@@QAE@H@Z	; MemBlock<CQuakePart>::MemBlock<CQuakePart>
	push	OFFSET ??__FParticleArray_Blood@@YAXXZ	; `dynamic atexit destructor for 'ParticleArray_Blood''
	call	_atexit
	add	esp, 4
	pop	edi
	pop	esi
	pop	ebx
	mov	esp, ebp
	pop	ebp
	ret	0
??__EParticleArray_Blood@@YAXXZ ENDP			; `dynamic initializer for 'ParticleArray_Blood''
text$di	ENDS
; Function compile flags: /Odtp /ZI
;	COMDAT ??__FParticleArray_Fireball@@YAXXZ
text$yd	SEGMENT
??__FParticleArray_Fireball@@YAXXZ PROC			; `dynamic atexit destructor for 'ParticleArray_Fireball'', COMDAT
	push	ebp
	mov	ebp, esp
	sub	esp, 64					; 00000040H
	push	ebx
	push	esi
	push	edi
	mov	ecx, OFFSET ?ParticleArray_Fireball@@3V?$MemBlock@VCQuakePart@@@@A ; ParticleArray_Fireball
	call	??1?$MemBlock@VCQuakePart@@@@QAE@XZ	; MemBlock<CQuakePart>::~MemBlock<CQuakePart>
	pop	edi
	pop	esi
	pop	ebx
	mov	esp, ebp
	pop	ebp
	ret	0
??__FParticleArray_Fireball@@YAXXZ ENDP			; `dynamic atexit destructor for 'ParticleArray_Fireball''
text$yd	ENDS
; Function compile flags: /Odtp /ZI
; File d:\!diffusion 2020\source code 2022\client-server\client\render\r_quakeparticle.cpp
;	COMDAT ??__EParticleArray_Fireball@@YAXXZ
text$di	SEGMENT
??__EParticleArray_Fireball@@YAXXZ PROC			; `dynamic initializer for 'ParticleArray_Fireball'', COMDAT

; 50   : MemBlock<CQuakePart>ParticleArray_Fireball( MAX_PARTICLES ); // TYPE_FIREBALL

	push	ebp
	mov	ebp, esp
	sub	esp, 64					; 00000040H
	push	ebx
	push	esi
	push	edi
	push	16384					; 00004000H
	mov	ecx, OFFSET ?ParticleArray_Fireball@@3V?$MemBlock@VCQuakePart@@@@A ; ParticleArray_Fireball
	call	??0?$MemBlock@VCQuakePart@@@@QAE@H@Z	; MemBlock<CQuakePart>::MemBlock<CQuakePart>
	push	OFFSET ??__FParticleArray_Fireball@@YAXXZ ; `dynamic atexit destructor for 'ParticleArray_Fireball''
	call	_atexit
	add	esp, 4
	pop	edi
	pop	esi
	pop	ebx
	mov	esp, ebp
	pop	ebp
	ret	0
??__EParticleArray_Fireball@@YAXXZ ENDP			; `dynamic initializer for 'ParticleArray_Fireball''
text$di	ENDS
; Function compile flags: /Odtp /ZI
;	COMDAT ??__FParticleArray_Dirt@@YAXXZ
text$yd	SEGMENT
??__FParticleArray_Dirt@@YAXXZ PROC			; `dynamic atexit destructor for 'ParticleArray_Dirt'', COMDAT
	push	ebp
	mov	ebp, esp
	sub	esp, 64					; 00000040H
	push	ebx
	push	esi
	push	edi
	mov	ecx, OFFSET ?ParticleArray_Dirt@@3V?$MemBlock@VCQuakePart@@@@A ; ParticleArray_Dirt
	call	??1?$MemBlock@VCQuakePart@@@@QAE@XZ	; MemBlock<CQuakePart>::~MemBlock<CQuakePart>
	pop	edi
	pop	esi
	pop	ebx
	mov	esp, ebp
	pop	ebp
	ret	0
??__FParticleArray_Dirt@@YAXXZ ENDP			; `dynamic atexit destructor for 'ParticleArray_Dirt''
text$yd	ENDS
; Function compile flags: /Odtp /ZI
; File d:\!diffusion 2020\source code 2022\client-server\client\render\r_quakeparticle.cpp
;	COMDAT ??__EParticleArray_Dirt@@YAXXZ
text$di	SEGMENT
??__EParticleArray_Dirt@@YAXXZ PROC			; `dynamic initializer for 'ParticleArray_Dirt'', COMDAT

; 49   : MemBlock<CQuakePart>ParticleArray_Dirt( MAX_PARTICLES ); // TYPE_DIRT

	push	ebp
	mov	ebp, esp
	sub	esp, 64					; 00000040H
	push	ebx
	push	esi
	push	edi
	push	16384					; 00004000H
	mov	ecx, OFFSET ?ParticleArray_Dirt@@3V?$MemBlock@VCQuakePart@@@@A ; ParticleArray_Dirt
	call	??0?$MemBlock@VCQuakePart@@@@QAE@H@Z	; MemBlock<CQuakePart>::MemBlock<CQuakePart>
	push	OFFSET ??__FParticleArray_Dirt@@YAXXZ	; `dynamic atexit destructor for 'ParticleArray_Dirt''
	call	_atexit
	add	esp, 4
	pop	edi
	pop	esi
	pop	ebx
	mov	esp, ebp
	pop	ebp
	ret	0
??__EParticleArray_Dirt@@YAXXZ ENDP			; `dynamic initializer for 'ParticleArray_Dirt''
text$di	ENDS
; Function compile flags: /Odtp /ZI
;	COMDAT ??__FParticleArray_Sand@@YAXXZ
text$yd	SEGMENT
??__FParticleArray_Sand@@YAXXZ PROC			; `dynamic atexit destructor for 'ParticleArray_Sand'', COMDAT
	push	ebp
	mov	ebp, esp
	sub	esp, 64					; 00000040H
	push	ebx
	push	esi
	push	edi
	mov	ecx, OFFSET ?ParticleArray_Sand@@3V?$MemBlock@VCQuakePart@@@@A ; ParticleArray_Sand
	call	??1?$MemBlock@VCQuakePart@@@@QAE@XZ	; MemBlock<CQuakePart>::~MemBlock<CQuakePart>
	pop	edi
	pop	esi
	pop	ebx
	mov	esp, ebp
	pop	ebp
	ret	0
??__FParticleArray_Sand@@YAXXZ ENDP			; `dynamic atexit destructor for 'ParticleArray_Sand''
text$yd	ENDS
; Function compile flags: /Odtp /ZI
; File d:\!diffusion 2020\source code 2022\client-server\client\render\r_quakeparticle.cpp
;	COMDAT ??__EParticleArray_Sand@@YAXXZ
text$di	SEGMENT
??__EParticleArray_Sand@@YAXXZ PROC			; `dynamic initializer for 'ParticleArray_Sand'', COMDAT

; 48   : MemBlock<CQuakePart>ParticleArray_Sand( MAX_PARTICLES ); // TYPE_SAND

	push	ebp
	mov	ebp, esp
	sub	esp, 64					; 00000040H
	push	ebx
	push	esi
	push	edi
	push	16384					; 00004000H
	mov	ecx, OFFSET ?ParticleArray_Sand@@3V?$MemBlock@VCQuakePart@@@@A ; ParticleArray_Sand
	call	??0?$MemBlock@VCQuakePart@@@@QAE@H@Z	; MemBlock<CQuakePart>::MemBlock<CQuakePart>
	push	OFFSET ??__FParticleArray_Sand@@YAXXZ	; `dynamic atexit destructor for 'ParticleArray_Sand''
	call	_atexit
	add	esp, 4
	pop	edi
	pop	esi
	pop	ebx
	mov	esp, ebp
	pop	ebp
	ret	0
??__EParticleArray_Sand@@YAXXZ ENDP			; `dynamic initializer for 'ParticleArray_Sand''
text$di	ENDS
; Function compile flags: /Odtp /ZI
;	COMDAT ??__FParticleArray_Watersplash@@YAXXZ
text$yd	SEGMENT
??__FParticleArray_Watersplash@@YAXXZ PROC		; `dynamic atexit destructor for 'ParticleArray_Watersplash'', COMDAT
	push	ebp
	mov	ebp, esp
	sub	esp, 64					; 00000040H
	push	ebx
	push	esi
	push	edi
	mov	ecx, OFFSET ?ParticleArray_Watersplash@@3V?$MemBlock@VCQuakePart@@@@A ; ParticleArray_Watersplash
	call	??1?$MemBlock@VCQuakePart@@@@QAE@XZ	; MemBlock<CQuakePart>::~MemBlock<CQuakePart>
	pop	edi
	pop	esi
	pop	ebx
	mov	esp, ebp
	pop	ebp
	ret	0
??__FParticleArray_Watersplash@@YAXXZ ENDP		; `dynamic atexit destructor for 'ParticleArray_Watersplash''
text$yd	ENDS
; Function compile flags: /Odtp /ZI
; File d:\!diffusion 2020\source code 2022\client-server\client\render\r_quakeparticle.cpp
;	COMDAT ??__EParticleArray_Watersplash@@YAXXZ
text$di	SEGMENT
??__EParticleArray_Watersplash@@YAXXZ PROC		; `dynamic initializer for 'ParticleArray_Watersplash'', COMDAT

; 47   : MemBlock<CQuakePart>ParticleArray_Watersplash( MAX_PARTICLES ); // TYPE_WATERSPLASH

	push	ebp
	mov	ebp, esp
	sub	esp, 64					; 00000040H
	push	ebx
	push	esi
	push	edi
	push	16384					; 00004000H
	mov	ecx, OFFSET ?ParticleArray_Watersplash@@3V?$MemBlock@VCQuakePart@@@@A ; ParticleArray_Watersplash
	call	??0?$MemBlock@VCQuakePart@@@@QAE@H@Z	; MemBlock<CQuakePart>::MemBlock<CQuakePart>
	push	OFFSET ??__FParticleArray_Watersplash@@YAXXZ ; `dynamic atexit destructor for 'ParticleArray_Watersplash''
	call	_atexit
	add	esp, 4
	pop	edi
	pop	esi
	pop	ebx
	mov	esp, ebp
	pop	ebp
	ret	0
??__EParticleArray_Watersplash@@YAXXZ ENDP		; `dynamic initializer for 'ParticleArray_Watersplash''
text$di	ENDS
; Function compile flags: /Odtp /ZI
;	COMDAT ??__FParticleArray_Smoke_NotInWater@@YAXXZ
text$yd	SEGMENT
??__FParticleArray_Smoke_NotInWater@@YAXXZ PROC		; `dynamic atexit destructor for 'ParticleArray_Smoke_NotInWater'', COMDAT
	push	ebp
	mov	ebp, esp
	sub	esp, 64					; 00000040H
	push	ebx
	push	esi
	push	edi
	mov	ecx, OFFSET ?ParticleArray_Smoke_NotInWater@@3V?$MemBlock@VCQuakePart@@@@A ; ParticleArray_Smoke_NotInWater
	call	??1?$MemBlock@VCQuakePart@@@@QAE@XZ	; MemBlock<CQuakePart>::~MemBlock<CQuakePart>
	pop	edi
	pop	esi
	pop	ebx
	mov	esp, ebp
	pop	ebp
	ret	0
??__FParticleArray_Smoke_NotInWater@@YAXXZ ENDP		; `dynamic atexit destructor for 'ParticleArray_Smoke_NotInWater''
text$yd	ENDS
; Function compile flags: /Odtp /ZI
; File d:\!diffusion 2020\source code 2022\client-server\client\render\r_quakeparticle.cpp
;	COMDAT ??__EParticleArray_Smoke_NotInWater@@YAXXZ
text$di	SEGMENT
??__EParticleArray_Smoke_NotInWater@@YAXXZ PROC		; `dynamic initializer for 'ParticleArray_Smoke_NotInWater'', COMDAT

; 46   : MemBlock<CQuakePart>ParticleArray_Smoke_NotInWater( MAX_PARTICLES ); // TYPE_SMOKE_NOTINWATER

	push	ebp
	mov	ebp, esp
	sub	esp, 64					; 00000040H
	push	ebx
	push	esi
	push	edi
	push	16384					; 00004000H
	mov	ecx, OFFSET ?ParticleArray_Smoke_NotInWater@@3V?$MemBlock@VCQuakePart@@@@A ; ParticleArray_Smoke_NotInWater
	call	??0?$MemBlock@VCQuakePart@@@@QAE@H@Z	; MemBlock<CQuakePart>::MemBlock<CQuakePart>
	push	OFFSET ??__FParticleArray_Smoke_NotInWater@@YAXXZ ; `dynamic atexit destructor for 'ParticleArray_Smoke_NotInWater''
	call	_atexit
	add	esp, 4
	pop	edi
	pop	esi
	pop	ebx
	mov	esp, ebp
	pop	ebp
	ret	0
??__EParticleArray_Smoke_NotInWater@@YAXXZ ENDP		; `dynamic initializer for 'ParticleArray_Smoke_NotInWater''
text$di	ENDS
; Function compile flags: /Odtp /ZI
;	COMDAT ??__FParticleArray_Smoke@@YAXXZ
text$yd	SEGMENT
??__FParticleArray_Smoke@@YAXXZ PROC			; `dynamic atexit destructor for 'ParticleArray_Smoke'', COMDAT
	push	ebp
	mov	ebp, esp
	sub	esp, 64					; 00000040H
	push	ebx
	push	esi
	push	edi
	mov	ecx, OFFSET ?ParticleArray_Smoke@@3V?$MemBlock@VCQuakePart@@@@A ; ParticleArray_Smoke
	call	??1?$MemBlock@VCQuakePart@@@@QAE@XZ	; MemBlock<CQuakePart>::~MemBlock<CQuakePart>
	pop	edi
	pop	esi
	pop	ebx
	mov	esp, ebp
	pop	ebp
	ret	0
??__FParticleArray_Smoke@@YAXXZ ENDP			; `dynamic atexit destructor for 'ParticleArray_Smoke''
text$yd	ENDS
; Function compile flags: /Odtp /ZI
; File d:\!diffusion 2020\source code 2022\client-server\client\render\r_quakeparticle.cpp
;	COMDAT ??__EParticleArray_Smoke@@YAXXZ
text$di	SEGMENT
??__EParticleArray_Smoke@@YAXXZ PROC			; `dynamic initializer for 'ParticleArray_Smoke'', COMDAT

; 45   : MemBlock<CQuakePart>ParticleArray_Smoke( MAX_PARTICLES ); // TYPE_SMOKE

	push	ebp
	mov	ebp, esp
	sub	esp, 64					; 00000040H
	push	ebx
	push	esi
	push	edi
	push	16384					; 00004000H
	mov	ecx, OFFSET ?ParticleArray_Smoke@@3V?$MemBlock@VCQuakePart@@@@A ; ParticleArray_Smoke
	call	??0?$MemBlock@VCQuakePart@@@@QAE@H@Z	; MemBlock<CQuakePart>::MemBlock<CQuakePart>
	push	OFFSET ??__FParticleArray_Smoke@@YAXXZ	; `dynamic atexit destructor for 'ParticleArray_Smoke''
	call	_atexit
	add	esp, 4
	pop	edi
	pop	esi
	pop	ebx
	mov	esp, ebp
	pop	ebp
	ret	0
??__EParticleArray_Smoke@@YAXXZ ENDP			; `dynamic initializer for 'ParticleArray_Smoke''
text$di	ENDS
; Function compile flags: /Odtp /ZI
;	COMDAT ??__FParticleArray_Sparks@@YAXXZ
text$yd	SEGMENT
??__FParticleArray_Sparks@@YAXXZ PROC			; `dynamic atexit destructor for 'ParticleArray_Sparks'', COMDAT
	push	ebp
	mov	ebp, esp
	sub	esp, 64					; 00000040H
	push	ebx
	push	esi
	push	edi
	mov	ecx, OFFSET ?ParticleArray_Sparks@@3V?$MemBlock@VCQuakePart@@@@A ; ParticleArray_Sparks
	call	??1?$MemBlock@VCQuakePart@@@@QAE@XZ	; MemBlock<CQuakePart>::~MemBlock<CQuakePart>
	pop	edi
	pop	esi
	pop	ebx
	mov	esp, ebp
	pop	ebp
	ret	0
??__FParticleArray_Sparks@@YAXXZ ENDP			; `dynamic atexit destructor for 'ParticleArray_Sparks''
text$yd	ENDS
; Function compile flags: /Odtp /ZI
; File d:\!diffusion 2020\source code 2022\client-server\client\render\r_quakeparticle.cpp
;	COMDAT ??__EParticleArray_Sparks@@YAXXZ
text$di	SEGMENT
??__EParticleArray_Sparks@@YAXXZ PROC			; `dynamic initializer for 'ParticleArray_Sparks'', COMDAT

; 44   : MemBlock<CQuakePart>ParticleArray_Sparks( MAX_PARTICLES ); // TYPE_SPARKS

	push	ebp
	mov	ebp, esp
	sub	esp, 64					; 00000040H
	push	ebx
	push	esi
	push	edi
	push	16384					; 00004000H
	mov	ecx, OFFSET ?ParticleArray_Sparks@@3V?$MemBlock@VCQuakePart@@@@A ; ParticleArray_Sparks
	call	??0?$MemBlock@VCQuakePart@@@@QAE@H@Z	; MemBlock<CQuakePart>::MemBlock<CQuakePart>
	push	OFFSET ??__FParticleArray_Sparks@@YAXXZ	; `dynamic atexit destructor for 'ParticleArray_Sparks''
	call	_atexit
	add	esp, 4
	pop	edi
	pop	esi
	pop	ebx
	mov	esp, ebp
	pop	ebp
	ret	0
??__EParticleArray_Sparks@@YAXXZ ENDP			; `dynamic initializer for 'ParticleArray_Sparks''
text$di	ENDS
; Function compile flags: /Odtp /ZI
;	COMDAT ??__FParticleArray_Dustmote@@YAXXZ
text$yd	SEGMENT
??__FParticleArray_Dustmote@@YAXXZ PROC			; `dynamic atexit destructor for 'ParticleArray_Dustmote'', COMDAT
	push	ebp
	mov	ebp, esp
	sub	esp, 64					; 00000040H
	push	ebx
	push	esi
	push	edi
	mov	ecx, OFFSET ?ParticleArray_Dustmote@@3V?$MemBlock@VCQuakePart@@@@A ; ParticleArray_Dustmote
	call	??1?$MemBlock@VCQuakePart@@@@QAE@XZ	; MemBlock<CQuakePart>::~MemBlock<CQuakePart>
	pop	edi
	pop	esi
	pop	ebx
	mov	esp, ebp
	pop	ebp
	ret	0
??__FParticleArray_Dustmote@@YAXXZ ENDP			; `dynamic atexit destructor for 'ParticleArray_Dustmote''
text$yd	ENDS
; Function compile flags: /Odtp /ZI
; File d:\!diffusion 2020\source code 2022\client-server\client\render\r_quakeparticle.cpp
;	COMDAT ??__EParticleArray_Dustmote@@YAXXZ
text$di	SEGMENT
??__EParticleArray_Dustmote@@YAXXZ PROC			; `dynamic initializer for 'ParticleArray_Dustmote'', COMDAT

; 43   : MemBlock<CQuakePart>ParticleArray_Dustmote( MAX_PARTICLES ); // TYPE_DUSTMOTE

	push	ebp
	mov	ebp, esp
	sub	esp, 64					; 00000040H
	push	ebx
	push	esi
	push	edi
	push	16384					; 00004000H
	mov	ecx, OFFSET ?ParticleArray_Dustmote@@3V?$MemBlock@VCQuakePart@@@@A ; ParticleArray_Dustmote
	call	??0?$MemBlock@VCQuakePart@@@@QAE@H@Z	; MemBlock<CQuakePart>::MemBlock<CQuakePart>
	push	OFFSET ??__FParticleArray_Dustmote@@YAXXZ ; `dynamic atexit destructor for 'ParticleArray_Dustmote''
	call	_atexit
	add	esp, 4
	pop	edi
	pop	esi
	pop	ebx
	mov	esp, ebp
	pop	ebp
	ret	0
??__EParticleArray_Dustmote@@YAXXZ ENDP			; `dynamic initializer for 'ParticleArray_Dustmote''
text$di	ENDS
; Function compile flags: /Odtp /ZI
;	COMDAT ??__FParticleArray_Default@@YAXXZ
text$yd	SEGMENT
??__FParticleArray_Default@@YAXXZ PROC			; `dynamic atexit destructor for 'ParticleArray_Default'', COMDAT
	push	ebp
	mov	ebp, esp
	sub	esp, 64					; 00000040H
	push	ebx
	push	esi
	push	edi
	mov	ecx, OFFSET ?ParticleArray_Default@@3V?$MemBlock@VCQuakePart@@@@A ; ParticleArray_Default
	call	??1?$MemBlock@VCQuakePart@@@@QAE@XZ	; MemBlock<CQuakePart>::~MemBlock<CQuakePart>
	pop	edi
	pop	esi
	pop	ebx
	mov	esp, ebp
	pop	ebp
	ret	0
??__FParticleArray_Default@@YAXXZ ENDP			; `dynamic atexit destructor for 'ParticleArray_Default''
text$yd	ENDS
; Function compile flags: /Odtp /ZI
; File d:\!diffusion 2020\source code 2022\client-server\client\render\r_quakeparticle.cpp
;	COMDAT ??__EParticleArray_Default@@YAXXZ
text$di	SEGMENT
??__EParticleArray_Default@@YAXXZ PROC			; `dynamic initializer for 'ParticleArray_Default'', COMDAT

; 42   : MemBlock<CQuakePart>ParticleArray_Default( MAX_PARTICLES ); // TYPE_DEFAULT

	push	ebp
	mov	ebp, esp
	sub	esp, 64					; 00000040H
	push	ebx
	push	esi
	push	edi
	push	16384					; 00004000H
	mov	ecx, OFFSET ?ParticleArray_Default@@3V?$MemBlock@VCQuakePart@@@@A ; ParticleArray_Default
	call	??0?$MemBlock@VCQuakePart@@@@QAE@H@Z	; MemBlock<CQuakePart>::MemBlock<CQuakePart>
	push	OFFSET ??__FParticleArray_Default@@YAXXZ ; `dynamic atexit destructor for 'ParticleArray_Default''
	call	_atexit
	add	esp, 4
	pop	edi
	pop	esi
	pop	ebx
	mov	esp, ebp
	pop	ebp
	ret	0
??__EParticleArray_Default@@YAXXZ ENDP			; `dynamic initializer for 'ParticleArray_Default''
text$di	ENDS
; Function compile flags: /Odtp /ZI
; File d:\!diffusion 2020\source code 2022\client-server\game_shared\custom_alloc.h
;	COMDAT ?DeleteCurrent@?$MemBlock@VCQuakePart@@@@QAEXXZ
_TEXT	SEGMENT
_delindex$ = -8						; size = 4
_this$ = -4						; size = 4
?DeleteCurrent@?$MemBlock@VCQuakePart@@@@QAEXXZ PROC	; MemBlock<CQuakePart>::DeleteCurrent, COMDAT
; _this$ = ecx

; 93   : 	{

	push	ebp
	mov	ebp, esp
	sub	esp, 72					; 00000048H
	push	ebx
	push	esi
	push	edi
	mov	DWORD PTR _this$[ebp], ecx

; 94   : 		int delindex = m_pArray[m_iCurrent].next;

	mov	eax, DWORD PTR _this$[ebp]
	imul	ecx, DWORD PTR [eax+8], 176
	mov	edx, DWORD PTR _this$[ebp]
	mov	eax, DWORD PTR [edx]
	mov	ecx, DWORD PTR [eax+ecx]
	mov	DWORD PTR _delindex$[ebp], ecx

; 95   : 		m_pArray[m_iCurrent].next = m_pArray[delindex].next; // âűáđŕńűâŕĺě ýëĺěĺíň čç öĺďč çŕí˙ňűő

	imul	eax, DWORD PTR _delindex$[ebp], 176
	mov	ecx, DWORD PTR _this$[ebp]
	mov	edx, DWORD PTR [ecx]
	mov	ecx, DWORD PTR _this$[ebp]
	imul	ecx, DWORD PTR [ecx+8], 176
	mov	esi, DWORD PTR _this$[ebp]
	mov	esi, DWORD PTR [esi]
	mov	edx, DWORD PTR [edx+eax]
	mov	DWORD PTR [esi+ecx], edx

; 96   : 		m_pArray[delindex].next = m_iFirstFree;

	imul	eax, DWORD PTR _delindex$[ebp], 176
	mov	ecx, DWORD PTR _this$[ebp]
	mov	edx, DWORD PTR [ecx]
	mov	ecx, DWORD PTR _this$[ebp]
	mov	ecx, DWORD PTR [ecx+12]
	mov	DWORD PTR [edx+eax], ecx

; 97   : 		m_iFirstFree = delindex; // âęëţ÷ŕĺě ýëĺěĺíň â íŕ÷ŕëî öĺďč ńâîáîäíűő

	mov	eax, DWORD PTR _this$[ebp]
	mov	ecx, DWORD PTR _delindex$[ebp]
	mov	DWORD PTR [eax+12], ecx

; 98   : 	}

	pop	edi
	pop	esi
	pop	ebx
	mov	esp, ebp
	pop	ebp
	ret	0
?DeleteCurrent@?$MemBlock@VCQuakePart@@@@QAEXXZ ENDP	; MemBlock<CQuakePart>::DeleteCurrent
_TEXT	ENDS
; Function compile flags: /Odtp /ZI
; File d:\!diffusion 2020\source code 2022\client-server\game_shared\custom_alloc.h
;	COMDAT ?MoveNext@?$MemBlock@VCQuakePart@@@@QAEXXZ
_TEXT	SEGMENT
_this$ = -4						; size = 4
?MoveNext@?$MemBlock@VCQuakePart@@@@QAEXXZ PROC		; MemBlock<CQuakePart>::MoveNext, COMDAT
; _this$ = ecx

; 88   : 	{

	push	ebp
	mov	ebp, esp
	sub	esp, 68					; 00000044H
	push	ebx
	push	esi
	push	edi
	mov	DWORD PTR _this$[ebp], ecx

; 89   : 		m_iCurrent = m_pArray[m_iCurrent].next;

	mov	eax, DWORD PTR _this$[ebp]
	imul	ecx, DWORD PTR [eax+8], 176
	mov	edx, DWORD PTR _this$[ebp]
	mov	eax, DWORD PTR [edx]
	mov	edx, DWORD PTR _this$[ebp]
	mov	eax, DWORD PTR [eax+ecx]
	mov	DWORD PTR [edx+8], eax

; 90   : 	}

	pop	edi
	pop	esi
	pop	ebx
	mov	esp, ebp
	pop	ebp
	ret	0
?MoveNext@?$MemBlock@VCQuakePart@@@@QAEXXZ ENDP		; MemBlock<CQuakePart>::MoveNext
_TEXT	ENDS
; Function compile flags: /Odtp /ZI
; File d:\!diffusion 2020\source code 2022\client-server\game_shared\custom_alloc.h
;	COMDAT ?GetCurrent@?$MemBlock@VCQuakePart@@@@QAEPAVCQuakePart@@XZ
_TEXT	SEGMENT
_retindex$ = -8						; size = 4
_this$ = -4						; size = 4
?GetCurrent@?$MemBlock@VCQuakePart@@@@QAEPAVCQuakePart@@XZ PROC ; MemBlock<CQuakePart>::GetCurrent, COMDAT
; _this$ = ecx

; 79   : 	{

	push	ebp
	mov	ebp, esp
	sub	esp, 72					; 00000048H
	push	ebx
	push	esi
	push	edi
	mov	DWORD PTR _this$[ebp], ecx

; 80   : 		int retindex = m_pArray[m_iCurrent].next;

	mov	eax, DWORD PTR _this$[ebp]
	imul	ecx, DWORD PTR [eax+8], 176
	mov	edx, DWORD PTR _this$[ebp]
	mov	eax, DWORD PTR [edx]
	mov	ecx, DWORD PTR [eax+ecx]
	mov	DWORD PTR _retindex$[ebp], ecx

; 81   : 		if (!retindex)

	cmp	DWORD PTR _retindex$[ebp], 0
	jne	SHORT $LN2@GetCurrent

; 82   : 			return NULL;

	xor	eax, eax
	jmp	SHORT $LN1@GetCurrent
$LN2@GetCurrent:

; 83   : 
; 84   : 		return &(m_pArray[retindex].data);

	imul	eax, DWORD PTR _retindex$[ebp], 176
	mov	ecx, DWORD PTR _this$[ebp]
	mov	edx, DWORD PTR [ecx]
	lea	eax, DWORD PTR [edx+eax+4]
$LN1@GetCurrent:

; 85   : 	}

	pop	edi
	pop	esi
	pop	ebx
	mov	esp, ebp
	pop	ebp
	ret	0
?GetCurrent@?$MemBlock@VCQuakePart@@@@QAEPAVCQuakePart@@XZ ENDP ; MemBlock<CQuakePart>::GetCurrent
_TEXT	ENDS
; Function compile flags: /Odtp /ZI
; File d:\!diffusion 2020\source code 2022\client-server\game_shared\custom_alloc.h
;	COMDAT ?StartPass@?$MemBlock@VCQuakePart@@@@QAE_NXZ
_TEXT	SEGMENT
_this$ = -4						; size = 4
?StartPass@?$MemBlock@VCQuakePart@@@@QAE_NXZ PROC	; MemBlock<CQuakePart>::StartPass, COMDAT
; _this$ = ecx

; 69   : 	{

	push	ebp
	mov	ebp, esp
	sub	esp, 68					; 00000044H
	push	ebx
	push	esi
	push	edi
	mov	DWORD PTR _this$[ebp], ecx

; 70   : 		m_iCurrent = 0; // íŕ÷číŕĺě îáőîä ń íóëĺâîăî ýëĺěĺíňŕ

	mov	eax, DWORD PTR _this$[ebp]
	mov	DWORD PTR [eax+8], 0

; 71   : 
; 72   : 		if (m_iSIZEOFARRAY > 1)

	mov	eax, DWORD PTR _this$[ebp]
	cmp	DWORD PTR [eax+4], 1
	jle	SHORT $LN2@StartPass

; 73   : 			return true;

	mov	al, 1
	jmp	SHORT $LN1@StartPass

; 74   : 		else

	jmp	SHORT $LN1@StartPass
$LN2@StartPass:

; 75   : 			return false;

	xor	al, al
$LN1@StartPass:

; 76   : 	}

	pop	edi
	pop	esi
	pop	ebx
	mov	esp, ebp
	pop	ebp
	ret	0
?StartPass@?$MemBlock@VCQuakePart@@@@QAE_NXZ ENDP	; MemBlock<CQuakePart>::StartPass
_TEXT	ENDS
; Function compile flags: /Odtp /ZI
; File d:\!diffusion 2020\source code 2022\client-server\game_shared\custom_alloc.h
;	COMDAT ?IsClear@?$MemBlock@VCQuakePart@@@@QAE_NXZ
_TEXT	SEGMENT
tv69 = -69						; size = 1
_this$ = -4						; size = 4
?IsClear@?$MemBlock@VCQuakePart@@@@QAE_NXZ PROC		; MemBlock<CQuakePart>::IsClear, COMDAT
; _this$ = ecx

; 64   : 	{

	push	ebp
	mov	ebp, esp
	sub	esp, 72					; 00000048H
	push	ebx
	push	esi
	push	edi
	mov	DWORD PTR _this$[ebp], ecx

; 65   : 		return m_pArray[0].next ? false : true;

	mov	eax, 176				; 000000b0H
	imul	ecx, eax, 0
	mov	edx, DWORD PTR _this$[ebp]
	mov	eax, DWORD PTR [edx]
	cmp	DWORD PTR [eax+ecx], 0
	je	SHORT $LN3@IsClear
	mov	BYTE PTR tv69[ebp], 0
	jmp	SHORT $LN4@IsClear
$LN3@IsClear:
	mov	BYTE PTR tv69[ebp], 1
$LN4@IsClear:
	mov	al, BYTE PTR tv69[ebp]

; 66   : 	}

	pop	edi
	pop	esi
	pop	ebx
	mov	esp, ebp
	pop	ebp
	ret	0
?IsClear@?$MemBlock@VCQuakePart@@@@QAE_NXZ ENDP		; MemBlock<CQuakePart>::IsClear
_TEXT	ENDS
; Function compile flags: /Odtp /ZI
; File d:\!diffusion 2020\source code 2022\client-server\game_shared\custom_alloc.h
;	COMDAT ?Allocate@?$MemBlock@VCQuakePart@@@@QAEPAVCQuakePart@@XZ
_TEXT	SEGMENT
_savedFirstFree$1 = -8					; size = 4
_this$ = -4						; size = 4
?Allocate@?$MemBlock@VCQuakePart@@@@QAEPAVCQuakePart@@XZ PROC ; MemBlock<CQuakePart>::Allocate, COMDAT
; _this$ = ecx

; 50   : 	{

	push	ebp
	mov	ebp, esp
	sub	esp, 72					; 00000048H
	push	ebx
	push	esi
	push	edi
	mov	DWORD PTR _this$[ebp], ecx

; 51   : 		if (m_iFirstFree != m_iSIZEOFARRAY)

	mov	eax, DWORD PTR _this$[ebp]
	mov	ecx, DWORD PTR _this$[ebp]
	mov	edx, DWORD PTR [eax+12]
	cmp	edx, DWORD PTR [ecx+4]
	je	SHORT $LN2@Allocate

; 52   : 		{
; 53   : 			int savedFirstFree = m_pArray[m_iFirstFree].next;

	mov	eax, DWORD PTR _this$[ebp]
	imul	ecx, DWORD PTR [eax+12], 176
	mov	edx, DWORD PTR _this$[ebp]
	mov	eax, DWORD PTR [edx]
	mov	ecx, DWORD PTR [eax+ecx]
	mov	DWORD PTR _savedFirstFree$1[ebp], ecx

; 54   : 			m_pArray[m_iFirstFree].next = m_pArray[0].next; // äîáŕâë˙ĺě ńâîáîäíóţ ˙÷ĺéęó â

	mov	eax, 176				; 000000b0H
	imul	ecx, eax, 0
	mov	edx, DWORD PTR _this$[ebp]
	mov	eax, DWORD PTR [edx]
	mov	edx, DWORD PTR _this$[ebp]
	imul	edx, DWORD PTR [edx+12], 176
	mov	esi, DWORD PTR _this$[ebp]
	mov	esi, DWORD PTR [esi]
	mov	eax, DWORD PTR [eax+ecx]
	mov	DWORD PTR [esi+edx], eax

; 55   : 			m_pArray[0].next = m_iFirstFree;				//   ńďčńîę çŕí˙ňűő

	mov	eax, 176				; 000000b0H
	imul	ecx, eax, 0
	mov	edx, DWORD PTR _this$[ebp]
	mov	eax, DWORD PTR [edx]
	mov	edx, DWORD PTR _this$[ebp]
	mov	edx, DWORD PTR [edx+12]
	mov	DWORD PTR [eax+ecx], edx

; 56   : 			m_iFirstFree = savedFirstFree;	// čńęëţ÷ŕĺě ˙÷ĺéęó čç ńďčńęŕ ńâîáîäíűő

	mov	eax, DWORD PTR _this$[ebp]
	mov	ecx, DWORD PTR _savedFirstFree$1[ebp]
	mov	DWORD PTR [eax+12], ecx

; 57   : 			return &(m_pArray[m_pArray[0].next].data);

	mov	eax, 176				; 000000b0H
	imul	ecx, eax, 0
	mov	edx, DWORD PTR _this$[ebp]
	mov	eax, DWORD PTR [edx]
	imul	ecx, DWORD PTR [eax+ecx], 176
	mov	edx, DWORD PTR _this$[ebp]
	mov	eax, DWORD PTR [edx]
	lea	eax, DWORD PTR [eax+ecx+4]
	jmp	SHORT $LN1@Allocate

; 58   : 		}
; 59   : 		else

	jmp	SHORT $LN1@Allocate
$LN2@Allocate:

; 60   : 			return NULL;

	xor	eax, eax
$LN1@Allocate:

; 61   : 	}

	pop	edi
	pop	esi
	pop	ebx
	mov	esp, ebp
	pop	ebp
	ret	0
?Allocate@?$MemBlock@VCQuakePart@@@@QAEPAVCQuakePart@@XZ ENDP ; MemBlock<CQuakePart>::Allocate
_TEXT	ENDS
; Function compile flags: /Odtp /ZI
; File d:\!diffusion 2020\source code 2022\client-server\game_shared\custom_alloc.h
;	COMDAT ?Clear@?$MemBlock@VCQuakePart@@@@QAEXXZ
_TEXT	SEGMENT
_i$1 = -8						; size = 4
_this$ = -4						; size = 4
?Clear@?$MemBlock@VCQuakePart@@@@QAEXXZ PROC		; MemBlock<CQuakePart>::Clear, COMDAT
; _this$ = ecx

; 38   : 	{

	push	ebp
	mov	ebp, esp
	sub	esp, 72					; 00000048H
	push	ebx
	push	esi
	push	edi
	mov	DWORD PTR _this$[ebp], ecx

; 39   : 		if (m_iSIZEOFARRAY > 1)

	mov	eax, DWORD PTR _this$[ebp]
	cmp	DWORD PTR [eax+4], 1
	jle	SHORT $LN1@Clear

; 40   : 		{
; 41   : 			m_pArray[0].next = 0; // ĺńëč îí ńńűëŕĺňń˙ ńŕě íŕ ńĺá˙, çíŕ÷čň ńďčńîę çŕí˙ňűő ďóńň

	mov	eax, 176				; 000000b0H
	imul	ecx, eax, 0
	mov	edx, DWORD PTR _this$[ebp]
	mov	eax, DWORD PTR [edx]
	mov	DWORD PTR [eax+ecx], 0

; 42   : 			m_iFirstFree = 1;

	mov	eax, DWORD PTR _this$[ebp]
	mov	DWORD PTR [eax+12], 1

; 43   : 
; 44   : 			for (int i = 1; i < m_iSIZEOFARRAY; ++i)

	mov	DWORD PTR _i$1[ebp], 1
	jmp	SHORT $LN4@Clear
$LN2@Clear:
	mov	eax, DWORD PTR _i$1[ebp]
	add	eax, 1
	mov	DWORD PTR _i$1[ebp], eax
$LN4@Clear:
	mov	eax, DWORD PTR _this$[ebp]
	mov	ecx, DWORD PTR _i$1[ebp]
	cmp	ecx, DWORD PTR [eax+4]
	jge	SHORT $LN1@Clear

; 45   : 				m_pArray[i].next = i + 1;

	mov	eax, DWORD PTR _i$1[ebp]
	add	eax, 1
	imul	ecx, DWORD PTR _i$1[ebp], 176
	mov	edx, DWORD PTR _this$[ebp]
	mov	edx, DWORD PTR [edx]
	mov	DWORD PTR [edx+ecx], eax
	jmp	SHORT $LN2@Clear
$LN1@Clear:

; 46   : 		}
; 47   : 	}

	pop	edi
	pop	esi
	pop	ebx
	mov	esp, ebp
	pop	ebp
	ret	0
?Clear@?$MemBlock@VCQuakePart@@@@QAEXXZ ENDP		; MemBlock<CQuakePart>::Clear
_TEXT	ENDS
; Function compile flags: /Odtp /ZI
; File d:\!diffusion 2020\source code 2022\client-server\game_shared\custom_alloc.h
;	COMDAT ??1?$MemBlock@VCQuakePart@@@@QAE@XZ
_TEXT	SEGMENT
$T1 = -72						; size = 4
_this$ = -4						; size = 4
??1?$MemBlock@VCQuakePart@@@@QAE@XZ PROC		; MemBlock<CQuakePart>::~MemBlock<CQuakePart>, COMDAT
; _this$ = ecx

; 32   : 	{

	push	ebp
	mov	ebp, esp
	sub	esp, 72					; 00000048H
	push	ebx
	push	esi
	push	edi
	mov	DWORD PTR _this$[ebp], ecx

; 33   : 		delete[] m_pArray;

	mov	eax, DWORD PTR _this$[ebp]
	mov	ecx, DWORD PTR [eax]
	mov	DWORD PTR $T1[ebp], ecx
	mov	edx, DWORD PTR $T1[ebp]
	push	edx
	call	??_V@YAXPAX@Z				; operator delete[]
	add	esp, 4

; 34   : 		m_pArray = NULL;

	mov	eax, DWORD PTR _this$[ebp]
	mov	DWORD PTR [eax], 0

; 35   : 	}

	pop	edi
	pop	esi
	pop	ebx
	mov	esp, ebp
	pop	ebp
	ret	0
??1?$MemBlock@VCQuakePart@@@@QAE@XZ ENDP		; MemBlock<CQuakePart>::~MemBlock<CQuakePart>
_TEXT	ENDS
; Function compile flags: /Odtp /ZI
; File d:\!diffusion 2020\source code 2022\client-server\game_shared\custom_alloc.h
;	COMDAT ??0?$MemBlock@VCQuakePart@@@@QAE@H@Z
_TEXT	SEGMENT
tv91 = -96						; size = 4
$T2 = -92						; size = 4
$T3 = -88						; size = 4
$T4 = -84						; size = 4
_this$ = -16						; size = 4
__$EHRec$ = -12						; size = 12
_numElements$ = 8					; size = 4
??0?$MemBlock@VCQuakePart@@@@QAE@H@Z PROC		; MemBlock<CQuakePart>::MemBlock<CQuakePart>, COMDAT
; _this$ = ecx

; 15   : 	MemBlock(int numElements)

	push	ebp
	mov	ebp, esp
	push	-1
	push	__ehhandler$??0?$MemBlock@VCQuakePart@@@@QAE@H@Z
	mov	eax, DWORD PTR fs:0
	push	eax
	sub	esp, 84					; 00000054H
	push	ebx
	push	esi
	push	edi
	mov	eax, DWORD PTR ___security_cookie
	xor	eax, ebp
	push	eax
	lea	eax, DWORD PTR __$EHRec$[ebp]
	mov	DWORD PTR fs:0, eax
	mov	DWORD PTR _this$[ebp], ecx

; 16   : 	{
; 17   : 		// ýëĺěĺíň 0 čńďîëüçóĺňń˙ â ęŕ÷ĺńňâĺ íŕ÷ŕëŕ ńďčńęŕ çŕí˙ňűő ˙÷ĺĺę
; 18   : 		m_iSIZEOFARRAY = numElements + 1;

	mov	eax, DWORD PTR _numElements$[ebp]
	add	eax, 1
	mov	ecx, DWORD PTR _this$[ebp]
	mov	DWORD PTR [ecx+4], eax

; 19   : 		m_pArray = new chunk_t[m_iSIZEOFARRAY];		

	mov	eax, DWORD PTR _this$[ebp]
	mov	ecx, DWORD PTR [eax+4]
	mov	DWORD PTR $T4[ebp], ecx
	xor	ecx, ecx
	mov	eax, DWORD PTR $T4[ebp]
	mov	edx, 176				; 000000b0H
	mul	edx
	seto	cl
	neg	ecx
	or	ecx, eax
	push	ecx
	call	??_U@YAPAXI@Z				; operator new[]
	add	esp, 4
	mov	DWORD PTR $T2[ebp], eax
	mov	DWORD PTR __$EHRec$[ebp+8], 0
	cmp	DWORD PTR $T2[ebp], 0
	je	SHORT $LN4@MemBlock
	push	OFFSET ??0chunk_s@?$MemBlock@VCQuakePart@@@@QAE@XZ
	mov	eax, DWORD PTR $T4[ebp]
	push	eax
	push	176					; 000000b0H
	mov	ecx, DWORD PTR $T2[ebp]
	push	ecx
	call	??_H@YGXPAXIIP6EPAX0@Z@Z
	mov	edx, DWORD PTR $T2[ebp]
	mov	DWORD PTR tv91[ebp], edx
	jmp	SHORT $LN5@MemBlock
$LN4@MemBlock:
	mov	DWORD PTR tv91[ebp], 0
$LN5@MemBlock:
	mov	eax, DWORD PTR tv91[ebp]
	mov	DWORD PTR $T3[ebp], eax
	mov	DWORD PTR __$EHRec$[ebp+8], -1
	mov	ecx, DWORD PTR _this$[ebp]
	mov	edx, DWORD PTR $T3[ebp]
	mov	DWORD PTR [ecx], edx

; 20   : 
; 21   : 		if (!m_pArray)

	mov	eax, DWORD PTR _this$[ebp]
	cmp	DWORD PTR [eax], 0
	jne	SHORT $LN2@MemBlock

; 22   : 		{
; 23   : 			m_iSIZEOFARRAY = 1;

	mov	eax, DWORD PTR _this$[ebp]
	mov	DWORD PTR [eax+4], 1

; 24   : 			m_iFirstFree = m_iSIZEOFARRAY;

	mov	eax, DWORD PTR _this$[ebp]
	mov	ecx, DWORD PTR _this$[ebp]
	mov	edx, DWORD PTR [ecx+4]
	mov	DWORD PTR [eax+12], edx

; 25   : 			return;

	jmp	SHORT $LN1@MemBlock
$LN2@MemBlock:

; 26   : 		}
; 27   : 
; 28   : 		Clear();

	mov	ecx, DWORD PTR _this$[ebp]
	call	?Clear@?$MemBlock@VCQuakePart@@@@QAEXXZ	; MemBlock<CQuakePart>::Clear
$LN1@MemBlock:

; 29   : 	}

	mov	eax, DWORD PTR _this$[ebp]
	mov	ecx, DWORD PTR __$EHRec$[ebp]
	mov	DWORD PTR fs:0, ecx
	pop	ecx
	pop	edi
	pop	esi
	pop	ebx
	mov	esp, ebp
	pop	ebp
	ret	4
_TEXT	ENDS
;	COMDAT text$x
text$x	SEGMENT
__unwindfunclet$??0?$MemBlock@VCQuakePart@@@@QAE@H@Z$0:
	xor	ebx, ebx
	mov	eax, DWORD PTR $T4[ebp]
	mov	ecx, 176				; 000000b0H
	mul	ecx
	seto	bl
	neg	ebx
	or	ebx, eax
	push	ebx
	mov	eax, DWORD PTR $T2[ebp]
	push	eax
	call	??_V@YAXPAXI@Z				; operator delete[]
	add	esp, 8
	ret	0
__ehhandler$??0?$MemBlock@VCQuakePart@@@@QAE@H@Z:
	mov	edx, DWORD PTR [esp+8]
	lea	eax, DWORD PTR [edx+12]
	mov	ecx, DWORD PTR [edx-100]
	xor	ecx, eax
	call	@__security_check_cookie@4
	mov	eax, OFFSET __ehfuncinfo$??0?$MemBlock@VCQuakePart@@@@QAE@H@Z
	jmp	___CxxFrameHandler3
text$x	ENDS
??0?$MemBlock@VCQuakePart@@@@QAE@H@Z ENDP		; MemBlock<CQuakePart>::MemBlock<CQuakePart>
; Function compile flags: /Odtp /ZI
; File d:\!diffusion 2020\source code 2022\client-server\client\render\r_quakeparticle.cpp
;	COMDAT ??__Em_coordsarray@@YAXXZ
text$di	SEGMENT
??__Em_coordsarray@@YAXXZ PROC				; `dynamic initializer for 'm_coordsarray'', COMDAT

; 35   : static Vector2D	m_coordsarray[65536];

	push	ebp
	mov	ebp, esp
	sub	esp, 64					; 00000040H
	push	ebx
	push	esi
	push	edi
	push	OFFSET ??0Vector2D@@QAE@XZ		; Vector2D::Vector2D
	push	65536					; 00010000H
	push	8
	push	OFFSET ?m_coordsarray@@3PAVVector2D@@A
	call	??_H@YGXPAXIIP6EPAX0@Z@Z
	pop	edi
	pop	esi
	pop	ebx
	mov	esp, ebp
	pop	ebp
	ret	0
??__Em_coordsarray@@YAXXZ ENDP				; `dynamic initializer for 'm_coordsarray''
text$di	ENDS
; Function compile flags: /Odtp /ZI
; File d:\!diffusion 2020\source code 2022\client-server\client\render\r_quakeparticle.cpp
;	COMDAT ??__Em_vertexarray@@YAXXZ
text$di	SEGMENT
??__Em_vertexarray@@YAXXZ PROC				; `dynamic initializer for 'm_vertexarray'', COMDAT

; 33   : static Vector m_vertexarray[65536];

	push	ebp
	mov	ebp, esp
	sub	esp, 64					; 00000040H
	push	ebx
	push	esi
	push	edi
	push	OFFSET ??0Vector@@QAE@XZ		; Vector::Vector
	push	65536					; 00010000H
	push	12					; 0000000cH
	push	OFFSET ?m_vertexarray@@3PAVVector@@A
	call	??_H@YGXPAXIIP6EPAX0@Z@Z
	pop	edi
	pop	esi
	pop	ebx
	mov	esp, ebp
	pop	ebp
	ret	0
??__Em_vertexarray@@YAXXZ ENDP				; `dynamic initializer for 'm_vertexarray''
text$di	ENDS
; Function compile flags: /Odtp /ZI
;	COMDAT ??__Fg_pParticles@@YAXXZ
text$yd	SEGMENT
??__Fg_pParticles@@YAXXZ PROC				; `dynamic atexit destructor for 'g_pParticles'', COMDAT
	push	ebp
	mov	ebp, esp
	sub	esp, 64					; 00000040H
	push	ebx
	push	esi
	push	edi
	mov	ecx, OFFSET ?g_pParticles@@3VCQuakePartSystem@@A ; g_pParticles
	call	??1CQuakePartSystem@@UAE@XZ		; CQuakePartSystem::~CQuakePartSystem
	pop	edi
	pop	esi
	pop	ebx
	mov	esp, ebp
	pop	ebp
	ret	0
??__Fg_pParticles@@YAXXZ ENDP				; `dynamic atexit destructor for 'g_pParticles''
text$yd	ENDS
; Function compile flags: /Odtp /ZI
; File d:\!diffusion 2020\source code 2022\client-server\client\render\r_quakeparticle.cpp
;	COMDAT ??__Eg_pParticles@@YAXXZ
text$di	SEGMENT
??__Eg_pParticles@@YAXXZ PROC				; `dynamic initializer for 'g_pParticles'', COMDAT

; 31   : CQuakePartSystem g_pParticles;

	push	ebp
	mov	ebp, esp
	sub	esp, 64					; 00000040H
	push	ebx
	push	esi
	push	edi
	mov	ecx, OFFSET ?g_pParticles@@3VCQuakePartSystem@@A ; g_pParticles
	call	??0CQuakePartSystem@@QAE@XZ		; CQuakePartSystem::CQuakePartSystem
	push	OFFSET ??__Fg_pParticles@@YAXXZ		; `dynamic atexit destructor for 'g_pParticles''
	call	_atexit
	add	esp, 4
	pop	edi
	pop	esi
	pop	ebx
	mov	esp, ebp
	pop	ebp
	ret	0
??__Eg_pParticles@@YAXXZ ENDP				; `dynamic initializer for 'g_pParticles''
text$di	ENDS
; Function compile flags: /Odtp /ZI
; File d:\!diffusion 2020\source code 2022\client-server\client\render\r_sprite.h
;	COMDAT ?R_GetSpriteFrame@@YAPAUmspriteframe_s@@PBUmodel_s@@H@Z
_TEXT	SEGMENT
_m_pSpriteModel$ = 8					; size = 4
_frame$ = 12						; size = 4
?R_GetSpriteFrame@@YAPAUmspriteframe_s@@PBUmodel_s@@H@Z PROC ; R_GetSpriteFrame, COMDAT

; 108  : {

	push	ebp
	mov	ebp, esp
	sub	esp, 64					; 00000040H
	push	ebx
	push	esi
	push	edi

; 109  : 	return g_SpriteRenderer.GetSpriteFrame( m_pSpriteModel, frame );

	mov	eax, DWORD PTR _frame$[ebp]
	push	eax
	mov	ecx, DWORD PTR _m_pSpriteModel$[ebp]
	push	ecx
	mov	ecx, OFFSET ?g_SpriteRenderer@@3VCSpriteModelRenderer@@A ; g_SpriteRenderer
	call	?GetSpriteFrame@CSpriteModelRenderer@@QAEPAUmspriteframe_s@@PBUmodel_s@@H@Z ; CSpriteModelRenderer::GetSpriteFrame

; 110  : } 

	pop	edi
	pop	esi
	pop	ebx
	mov	esp, ebp
	pop	ebp
	ret	0
?R_GetSpriteFrame@@YAPAUmspriteframe_s@@PBUmodel_s@@H@Z ENDP ; R_GetSpriteFrame
_TEXT	ENDS
; Function compile flags: /Odtp /ZI
;	COMDAT ??_GCQuakePartSystem@@UAEPAXI@Z
_TEXT	SEGMENT
_this$ = -4						; size = 4
___flags$ = 8						; size = 4
??_GCQuakePartSystem@@UAEPAXI@Z PROC			; CQuakePartSystem::`scalar deleting destructor', COMDAT
; _this$ = ecx
	push	ebp
	mov	ebp, esp
	sub	esp, 68					; 00000044H
	push	ebx
	push	esi
	push	edi
	mov	DWORD PTR _this$[ebp], ecx
	mov	ecx, DWORD PTR _this$[ebp]
	call	??1CQuakePartSystem@@UAE@XZ		; CQuakePartSystem::~CQuakePartSystem
	mov	eax, DWORD PTR ___flags$[ebp]
	and	eax, 1
	je	SHORT $LN2@scalar
	push	2944052					; 002cec34H
	mov	eax, DWORD PTR _this$[ebp]
	push	eax
	call	??3@YAXPAXI@Z				; operator delete
	add	esp, 8
$LN2@scalar:
	mov	eax, DWORD PTR _this$[ebp]
	pop	edi
	pop	esi
	pop	ebx
	mov	esp, ebp
	pop	ebp
	ret	4
??_GCQuakePartSystem@@UAEPAXI@Z ENDP			; CQuakePartSystem::`scalar deleting destructor'
_TEXT	ENDS
; Function compile flags: /Odtp /ZI
; File d:\!diffusion 2020\source code 2022\client-server\client\render\r_quakeparticle.cpp
;	COMDAT ?BloodParticle@CQuakePartSystem@@QAEXHABVVector@@MV2@1@Z
_TEXT	SEGMENT
$T1 = -292						; size = 12
$T2 = -280						; size = 12
$T3 = -268						; size = 12
$T4 = -256						; size = 12
_flags$ = -180						; size = 4
_src$ = -176						; size = 172
_this$ = -4						; size = 4
_EntIndex$ = 8						; size = 4
_pos$ = 12						; size = 4
_Scale$ = 16						; size = 4
_Color$ = 20						; size = 12
_Direction$ = 32					; size = 12
?BloodParticle@CQuakePartSystem@@QAEXHABVVector@@MV2@1@Z PROC ; CQuakePartSystem::BloodParticle, COMDAT
; _this$ = ecx

; 2326 : {

	push	ebp
	mov	ebp, esp
	sub	esp, 292				; 00000124H
	push	ebx
	push	esi
	push	edi
	mov	DWORD PTR _this$[ebp], ecx

; 2327 : 	CQuakePart src;

	lea	ecx, DWORD PTR _src$[ebp]
	call	??0CQuakePart@@QAE@XZ

; 2328 : 
; 2329 : 	if( !g_fRenderInitialized )

	cmp	DWORD PTR ?g_fRenderInitialized@@3HA, 0	; g_fRenderInitialized
	jne	SHORT $LN2@BloodParti

; 2330 : 		return;

	jmp	$LN1@BloodParti
$LN2@BloodParti:

; 2331 : 
; 2332 : 	int flags = FPART_FLOATING_ORIENTED | FPART_VERTEXLIGHT;

	mov	DWORD PTR _flags$[ebp], 4100		; 00001004H

; 2333 : 
; 2334 : 	src.m_vecOrigin = pos;

	mov	eax, DWORD PTR _pos$[ebp]
	mov	ecx, DWORD PTR [eax]
	mov	DWORD PTR _src$[ebp], ecx
	mov	edx, DWORD PTR [eax+4]
	mov	DWORD PTR _src$[ebp+4], edx
	mov	eax, DWORD PTR [eax+8]
	mov	DWORD PTR _src$[ebp+8], eax

; 2335 : 	src.m_vecVelocity = Direction * 100;

	push	ecx
	movss	xmm0, DWORD PTR __real@42c80000
	movss	DWORD PTR [esp], xmm0
	lea	eax, DWORD PTR $T4[ebp]
	push	eax
	lea	ecx, DWORD PTR _Direction$[ebp]
	call	??DVector@@QBE?AV0@M@Z			; Vector::operator*
	mov	ecx, DWORD PTR [eax]
	mov	DWORD PTR _src$[ebp+24], ecx
	mov	edx, DWORD PTR [eax+4]
	mov	DWORD PTR _src$[ebp+28], edx
	mov	eax, DWORD PTR [eax+8]
	mov	DWORD PTR _src$[ebp+32], eax

; 2336 : 	src.m_vecVelocity.z = RANDOM_FLOAT( 40 + Scale * 10, 80 + Scale * 10 );

	movss	xmm0, DWORD PTR _Scale$[ebp]
	mulss	xmm0, DWORD PTR __real@41200000
	addss	xmm0, DWORD PTR __real@42a00000
	push	ecx
	movss	DWORD PTR [esp], xmm0
	movss	xmm0, DWORD PTR _Scale$[ebp]
	mulss	xmm0, DWORD PTR __real@41200000
	addss	xmm0, DWORD PTR __real@42200000
	push	ecx
	movss	DWORD PTR [esp], xmm0
	call	DWORD PTR ?gEngfuncs@@3Ucl_enginefuncs_s@@A+268
	add	esp, 8
	fstp	DWORD PTR _src$[ebp+32]

; 2337 : 	src.m_vecAccel = Vector( 0, 0, -30 );

	push	ecx
	movss	xmm0, DWORD PTR __real@c1f00000
	movss	DWORD PTR [esp], xmm0
	push	ecx
	xorps	xmm0, xmm0
	movss	DWORD PTR [esp], xmm0
	push	ecx
	xorps	xmm0, xmm0
	movss	DWORD PTR [esp], xmm0
	lea	ecx, DWORD PTR $T3[ebp]
	call	??0Vector@@QAE@MMM@Z			; Vector::Vector
	mov	ecx, DWORD PTR [eax]
	mov	DWORD PTR _src$[ebp+36], ecx
	mov	edx, DWORD PTR [eax+4]
	mov	DWORD PTR _src$[ebp+40], edx
	mov	eax, DWORD PTR [eax+8]
	mov	DWORD PTR _src$[ebp+44], eax

; 2338 : 	src.m_vecColor = Color / 255;

	push	ecx
	movss	xmm0, DWORD PTR __real@437f0000
	movss	DWORD PTR [esp], xmm0
	lea	eax, DWORD PTR $T2[ebp]
	push	eax
	lea	ecx, DWORD PTR _Color$[ebp]
	call	??KVector@@QBE?AV0@M@Z			; Vector::operator/
	mov	ecx, DWORD PTR [eax]
	mov	DWORD PTR _src$[ebp+48], ecx
	mov	edx, DWORD PTR [eax+4]
	mov	DWORD PTR _src$[ebp+52], edx
	mov	eax, DWORD PTR [eax+8]
	mov	DWORD PTR _src$[ebp+56], eax

; 2339 : 	src.m_vecColorVelocity = Vector( 0, 0, 0 );

	push	ecx
	xorps	xmm0, xmm0
	movss	DWORD PTR [esp], xmm0
	push	ecx
	xorps	xmm0, xmm0
	movss	DWORD PTR [esp], xmm0
	push	ecx
	xorps	xmm0, xmm0
	movss	DWORD PTR [esp], xmm0
	lea	ecx, DWORD PTR $T1[ebp]
	call	??0Vector@@QAE@MMM@Z			; Vector::Vector
	mov	ecx, DWORD PTR [eax]
	mov	DWORD PTR _src$[ebp+60], ecx
	mov	edx, DWORD PTR [eax+4]
	mov	DWORD PTR _src$[ebp+64], edx
	mov	eax, DWORD PTR [eax+8]
	mov	DWORD PTR _src$[ebp+68], eax

; 2340 : 	src.m_flAlpha = 1.0;

	movss	xmm0, DWORD PTR __real@3f800000
	movss	DWORD PTR _src$[ebp+72], xmm0

; 2341 : 	src.m_flStartAlpha = 0.0f;

	xorps	xmm0, xmm0
	movss	DWORD PTR _src$[ebp+112], xmm0

; 2342 : 	src.m_flAlphaVelocity = -1.0;

	movss	xmm0, DWORD PTR __real@bf800000
	movss	DWORD PTR _src$[ebp+76], xmm0

; 2343 : 	src.m_flRadius = 0.01;

	movss	xmm0, DWORD PTR __real@3c23d70a
	movss	DWORD PTR _src$[ebp+80], xmm0

; 2344 : 	src.m_flRadiusVelocity = 20 + Scale * 5;

	movss	xmm0, DWORD PTR _Scale$[ebp]
	mulss	xmm0, DWORD PTR __real@40a00000
	addss	xmm0, DWORD PTR __real@41a00000
	movss	DWORD PTR _src$[ebp+84], xmm0

; 2345 : 	src.m_flLength = 1;

	movss	xmm0, DWORD PTR __real@3f800000
	movss	DWORD PTR _src$[ebp+88], xmm0

; 2346 : 	src.m_flLengthVelocity = 0;

	xorps	xmm0, xmm0
	movss	DWORD PTR _src$[ebp+92], xmm0

; 2347 : 	src.m_flRotation = RANDOM_LONG( 0, 359 );

	push	359					; 00000167H
	push	0
	call	DWORD PTR ?gEngfuncs@@3Ucl_enginefuncs_s@@A+272
	add	esp, 8
	cvtsi2ss xmm0, eax
	movss	DWORD PTR _src$[ebp+96], xmm0

; 2348 : 	src.m_flRotationVelocity = RANDOM_FLOAT( -100.0, 100.0 );

	push	ecx
	movss	xmm0, DWORD PTR __real@42c80000
	movss	DWORD PTR [esp], xmm0
	push	ecx
	movss	xmm0, DWORD PTR __real@c2c80000
	movss	DWORD PTR [esp], xmm0
	call	DWORD PTR ?gEngfuncs@@3Ucl_enginefuncs_s@@A+268
	add	esp, 8
	fstp	DWORD PTR _src$[ebp+100]

; 2349 : 	src.m_flDistance = 0;

	xorps	xmm0, xmm0
	movss	DWORD PTR _src$[ebp+108], xmm0

; 2350 : 	src.ParticleType = TYPE_BLOOD;

	mov	DWORD PTR _src$[ebp+144], 9

; 2351 : 	src.EntIndex = EntIndex;

	mov	eax, DWORD PTR _EntIndex$[ebp]
	mov	DWORD PTR _src$[ebp+168], eax

; 2352 : 
; 2353 : 	AddParticle( &src, m_hBlood, flags );

	mov	eax, DWORD PTR _flags$[ebp]
	push	eax
	mov	ecx, DWORD PTR _this$[ebp]
	mov	edx, DWORD PTR [ecx+2911260]
	push	edx
	lea	eax, DWORD PTR _src$[ebp]
	push	eax
	mov	ecx, DWORD PTR _this$[ebp]
	call	?AddParticle@CQuakePartSystem@@QAE_NPAVCQuakePart@@HH@Z ; CQuakePartSystem::AddParticle
$LN1@BloodParti:

; 2354 : }

	pop	edi
	pop	esi
	pop	ebx
	mov	esp, ebp
	pop	ebp
	ret	36					; 00000024H
?BloodParticle@CQuakePartSystem@@QAEXHABVVector@@MV2@1@Z ENDP ; CQuakePartSystem::BloodParticle
_TEXT	ENDS
; Function compile flags: /Odtp /ZI
; File d:\!diffusion 2020\source code 2022\client-server\client\render\r_quakeparticle.cpp
;	COMDAT ?SmokeVolume@CQuakePartSystem@@QAEXHHABVVector@@MMH@Z
_TEXT	SEGMENT
tv439 = -292						; size = 4
tv429 = -292						; size = 4
tv419 = -292						; size = 4
tv344 = -292						; size = 4
tv334 = -292						; size = 4
tv324 = -292						; size = 4
tv66 = -292						; size = 4
$T1 = -288						; size = 12
$T2 = -276						; size = 12
_i$3 = -200						; size = 4
_i$4 = -196						; size = 4
_ScaleRand$ = -192					; size = 4
_posRand$ = -188					; size = 4
_count$ = -184						; size = 4
_flags$ = -180						; size = 4
_src$ = -176						; size = 172
_this$ = -4						; size = 4
_EntIndex$ = 8						; size = 4
_Particle$ = 12						; size = 4
_pos$ = 16						; size = 4
_Scale$ = 20						; size = 4
_Alpha$ = 24						; size = 4
_Distance$ = 28						; size = 4
?SmokeVolume@CQuakePartSystem@@QAEXHHABVVector@@MMH@Z PROC ; CQuakePartSystem::SmokeVolume, COMDAT
; _this$ = ecx

; 2033 : {

	push	ebp
	mov	ebp, esp
	sub	esp, 292				; 00000124H
	push	ebx
	push	esi
	push	edi
	mov	DWORD PTR _this$[ebp], ecx

; 2034 : 	CQuakePart src;

	lea	ecx, DWORD PTR _src$[ebp]
	call	??0CQuakePart@@QAE@XZ

; 2035 : 
; 2036 : 	if( !g_fRenderInitialized )

	cmp	DWORD PTR ?g_fRenderInitialized@@3HA, 0	; g_fRenderInitialized
	jne	SHORT $LN10@SmokeVolum

; 2037 : 		return;

	jmp	$LN1@SmokeVolum
$LN10@SmokeVolum:

; 2038 : 
; 2039 : 	int flags = FPART_VERTEXLIGHT | FPART_FADEIN;

	mov	DWORD PTR _flags$[ebp], 260		; 00000104H

; 2040 : 	int count = 1;

	mov	DWORD PTR _count$[ebp], 1

; 2041 : 	float posRand = 20.0f;

	movss	xmm0, DWORD PTR __real@41a00000
	movss	DWORD PTR _posRand$[ebp], xmm0

; 2042 : 	float ScaleRand = 0.0f;

	xorps	xmm0, xmm0
	movss	DWORD PTR _ScaleRand$[ebp], xmm0

; 2043 : 
; 2044 : 	switch( Particle )

	mov	eax, DWORD PTR _Particle$[ebp]
	mov	DWORD PTR tv66[ebp], eax
	cmp	DWORD PTR tv66[ebp], 1
	je	SHORT $LN12@SmokeVolum

; 2045 : 	{
; 2046 : 	default:
; 2047 : 	case 0:
; 2048 : 		Particle = m_hSmoke;

	mov	eax, DWORD PTR _this$[ebp]
	mov	ecx, DWORD PTR [eax+2911252]
	mov	DWORD PTR _Particle$[ebp], ecx

; 2049 : 		break;

	jmp	SHORT $LN2@SmokeVolum
$LN12@SmokeVolum:

; 2050 : 	case 1:
; 2051 : 		Particle = m_hDustMote;

	mov	eax, DWORD PTR _this$[ebp]
	mov	ecx, DWORD PTR [eax+2911272]
	mov	DWORD PTR _Particle$[ebp], ecx
$LN2@SmokeVolum:

; 2052 : 		break;
; 2053 : 	}
; 2054 : 
; 2055 : 	if( Particle == m_hSmoke )

	mov	eax, DWORD PTR _this$[ebp]
	mov	ecx, DWORD PTR _Particle$[ebp]
	cmp	ecx, DWORD PTR [eax+2911252]
	jne	$LN13@SmokeVolum

; 2056 : 	{
; 2057 : 		for( int i = 0; i < count; i++ )

	mov	DWORD PTR _i$4[ebp], 0
	jmp	SHORT $LN6@SmokeVolum
$LN4@SmokeVolum:
	mov	eax, DWORD PTR _i$4[ebp]
	add	eax, 1
	mov	DWORD PTR _i$4[ebp], eax
$LN6@SmokeVolum:
	mov	eax, DWORD PTR _i$4[ebp]
	cmp	eax, DWORD PTR _count$[ebp]
	jge	$LN5@SmokeVolum

; 2058 : 		{
; 2059 : 			if( !Scale )

	movss	xmm0, DWORD PTR _Scale$[ebp]
	ucomiss	xmm0, DWORD PTR __real@00000000
	lahf
	test	ah, 68					; 00000044H
	jp	SHORT $LN15@SmokeVolum

; 2060 : 				Scale = RANDOM_FLOAT( 30, 40 );

	push	ecx
	movss	xmm0, DWORD PTR __real@42200000
	movss	DWORD PTR [esp], xmm0
	push	ecx
	movss	xmm0, DWORD PTR __real@41f00000
	movss	DWORD PTR [esp], xmm0
	call	DWORD PTR ?gEngfuncs@@3Ucl_enginefuncs_s@@A+268
	add	esp, 8
	fstp	DWORD PTR _Scale$[ebp]

; 2061 : 			else

	jmp	SHORT $LN16@SmokeVolum
$LN15@SmokeVolum:

; 2062 : 			{
; 2063 : 				ScaleRand = Scale * 0.1;

	cvtss2sd xmm0, DWORD PTR _Scale$[ebp]
	mulsd	xmm0, QWORD PTR __real@3fb999999999999a
	cvtsd2ss xmm0, xmm0
	movss	DWORD PTR _ScaleRand$[ebp], xmm0

; 2064 : 				Scale = RANDOM_FLOAT( Scale - ScaleRand, Scale + ScaleRand );

	movss	xmm0, DWORD PTR _Scale$[ebp]
	addss	xmm0, DWORD PTR _ScaleRand$[ebp]
	push	ecx
	movss	DWORD PTR [esp], xmm0
	movss	xmm0, DWORD PTR _Scale$[ebp]
	subss	xmm0, DWORD PTR _ScaleRand$[ebp]
	push	ecx
	movss	DWORD PTR [esp], xmm0
	call	DWORD PTR ?gEngfuncs@@3Ucl_enginefuncs_s@@A+268
	add	esp, 8
	fstp	DWORD PTR _Scale$[ebp]
$LN16@SmokeVolum:

; 2065 : 			}
; 2066 : 			src.m_vecOrigin.x = pos.x + RANDOM_FLOAT( -posRand, posRand );

	push	ecx
	movss	xmm0, DWORD PTR _posRand$[ebp]
	movss	DWORD PTR [esp], xmm0
	movss	xmm0, DWORD PTR _posRand$[ebp]
	xorps	xmm0, DWORD PTR __xmm@80000000800000008000000080000000
	push	ecx
	movss	DWORD PTR [esp], xmm0
	call	DWORD PTR ?gEngfuncs@@3Ucl_enginefuncs_s@@A+268
	add	esp, 8
	fstp	DWORD PTR tv324[ebp]
	mov	eax, DWORD PTR _pos$[ebp]
	movss	xmm0, DWORD PTR tv324[ebp]
	addss	xmm0, DWORD PTR [eax]
	movss	DWORD PTR _src$[ebp], xmm0

; 2067 : 			src.m_vecOrigin.y = pos.y + RANDOM_FLOAT( -posRand, posRand );

	push	ecx
	movss	xmm0, DWORD PTR _posRand$[ebp]
	movss	DWORD PTR [esp], xmm0
	movss	xmm0, DWORD PTR _posRand$[ebp]
	xorps	xmm0, DWORD PTR __xmm@80000000800000008000000080000000
	push	ecx
	movss	DWORD PTR [esp], xmm0
	call	DWORD PTR ?gEngfuncs@@3Ucl_enginefuncs_s@@A+268
	add	esp, 8
	fstp	DWORD PTR tv334[ebp]
	mov	eax, DWORD PTR _pos$[ebp]
	movss	xmm0, DWORD PTR tv334[ebp]
	addss	xmm0, DWORD PTR [eax+4]
	movss	DWORD PTR _src$[ebp+4], xmm0

; 2068 : 			src.m_vecOrigin.z = pos.z + RANDOM_FLOAT( -posRand, posRand );

	push	ecx
	movss	xmm0, DWORD PTR _posRand$[ebp]
	movss	DWORD PTR [esp], xmm0
	movss	xmm0, DWORD PTR _posRand$[ebp]
	xorps	xmm0, DWORD PTR __xmm@80000000800000008000000080000000
	push	ecx
	movss	DWORD PTR [esp], xmm0
	call	DWORD PTR ?gEngfuncs@@3Ucl_enginefuncs_s@@A+268
	add	esp, 8
	fstp	DWORD PTR tv344[ebp]
	mov	eax, DWORD PTR _pos$[ebp]
	movss	xmm0, DWORD PTR tv344[ebp]
	addss	xmm0, DWORD PTR [eax+8]
	movss	DWORD PTR _src$[ebp+8], xmm0

; 2069 : 			src.m_vecVelocity.x = 0;

	xorps	xmm0, xmm0
	movss	DWORD PTR _src$[ebp+24], xmm0

; 2070 : 			src.m_vecVelocity.y = 0;

	xorps	xmm0, xmm0
	movss	DWORD PTR _src$[ebp+28], xmm0

; 2071 : 			src.m_vecVelocity.z = 0;

	xorps	xmm0, xmm0
	movss	DWORD PTR _src$[ebp+32], xmm0

; 2072 : 			src.m_vecAccel = g_vecZero;

	mov	eax, DWORD PTR ?g_vecZero@@3VVector@@B
	mov	DWORD PTR _src$[ebp+36], eax
	mov	ecx, DWORD PTR ?g_vecZero@@3VVector@@B+4
	mov	DWORD PTR _src$[ebp+40], ecx
	mov	edx, DWORD PTR ?g_vecZero@@3VVector@@B+8
	mov	DWORD PTR _src$[ebp+44], edx

; 2073 : 			src.m_vecColor = Vector( 1, 1, 1 );

	push	ecx
	movss	xmm0, DWORD PTR __real@3f800000
	movss	DWORD PTR [esp], xmm0
	push	ecx
	movss	xmm0, DWORD PTR __real@3f800000
	movss	DWORD PTR [esp], xmm0
	push	ecx
	movss	xmm0, DWORD PTR __real@3f800000
	movss	DWORD PTR [esp], xmm0
	lea	ecx, DWORD PTR $T2[ebp]
	call	??0Vector@@QAE@MMM@Z			; Vector::Vector
	mov	ecx, DWORD PTR [eax]
	mov	DWORD PTR _src$[ebp+48], ecx
	mov	edx, DWORD PTR [eax+4]
	mov	DWORD PTR _src$[ebp+52], edx
	mov	eax, DWORD PTR [eax+8]
	mov	DWORD PTR _src$[ebp+56], eax

; 2074 : 			src.m_vecColorVelocity = g_vecZero;

	mov	eax, DWORD PTR ?g_vecZero@@3VVector@@B
	mov	DWORD PTR _src$[ebp+60], eax
	mov	ecx, DWORD PTR ?g_vecZero@@3VVector@@B+4
	mov	DWORD PTR _src$[ebp+64], ecx
	mov	edx, DWORD PTR ?g_vecZero@@3VVector@@B+8
	mov	DWORD PTR _src$[ebp+68], edx

; 2075 : 			src.m_flAlpha = Alpha;

	movss	xmm0, DWORD PTR _Alpha$[ebp]
	movss	DWORD PTR _src$[ebp+72], xmm0

; 2076 : 			src.m_flStartAlpha = 0.0f;

	xorps	xmm0, xmm0
	movss	DWORD PTR _src$[ebp+112], xmm0

; 2077 : 			src.m_flAlphaVelocity = -0.5 * Alpha;

	cvtss2sd xmm0, DWORD PTR _Alpha$[ebp]
	mulsd	xmm0, QWORD PTR __real@bfe0000000000000
	cvtsd2ss xmm0, xmm0
	movss	DWORD PTR _src$[ebp+76], xmm0

; 2078 : 			src.m_flRadius = Scale;

	movss	xmm0, DWORD PTR _Scale$[ebp]
	movss	DWORD PTR _src$[ebp+80], xmm0

; 2079 : 			src.m_flRadiusVelocity = 0.0f;

	xorps	xmm0, xmm0
	movss	DWORD PTR _src$[ebp+84], xmm0

; 2080 : 			src.m_flLength = 1;

	movss	xmm0, DWORD PTR __real@3f800000
	movss	DWORD PTR _src$[ebp+88], xmm0

; 2081 : 			src.m_flLengthVelocity = 0;

	xorps	xmm0, xmm0
	movss	DWORD PTR _src$[ebp+92], xmm0

; 2082 : 			src.m_flRotation = RANDOM_LONG( 1, 360 );

	push	360					; 00000168H
	push	1
	call	DWORD PTR ?gEngfuncs@@3Ucl_enginefuncs_s@@A+272
	add	esp, 8
	cvtsi2ss xmm0, eax
	movss	DWORD PTR _src$[ebp+96], xmm0

; 2083 : 			src.m_flRotationVelocity = 0;

	xorps	xmm0, xmm0
	movss	DWORD PTR _src$[ebp+100], xmm0

; 2084 : 			src.m_flDistance = Distance;

	cvtsi2ss xmm0, DWORD PTR _Distance$[ebp]
	movss	DWORD PTR _src$[ebp+108], xmm0

; 2085 : 			src.ParticleType = TYPE_SMOKE;

	mov	DWORD PTR _src$[ebp+144], 3

; 2086 : 			src.EntIndex = EntIndex;

	mov	eax, DWORD PTR _EntIndex$[ebp]
	mov	DWORD PTR _src$[ebp+168], eax

; 2087 : 
; 2088 : 			if( !AddParticle( &src, Particle, flags ) )

	mov	eax, DWORD PTR _flags$[ebp]
	push	eax
	mov	ecx, DWORD PTR _Particle$[ebp]
	push	ecx
	lea	edx, DWORD PTR _src$[ebp]
	push	edx
	mov	ecx, DWORD PTR _this$[ebp]
	call	?AddParticle@CQuakePartSystem@@QAE_NPAVCQuakePart@@HH@Z ; CQuakePartSystem::AddParticle
	movzx	eax, al
	test	eax, eax
	jne	SHORT $LN17@SmokeVolum

; 2089 : 				break;

	jmp	SHORT $LN5@SmokeVolum
$LN17@SmokeVolum:

; 2090 : 		}

	jmp	$LN4@SmokeVolum
$LN5@SmokeVolum:

; 2091 : 	}
; 2092 : 	else if( Particle == m_hDustMote )

	jmp	$LN8@SmokeVolum
$LN13@SmokeVolum:
	mov	eax, DWORD PTR _this$[ebp]
	mov	ecx, DWORD PTR _Particle$[ebp]
	cmp	ecx, DWORD PTR [eax+2911272]
	jne	$LN8@SmokeVolum

; 2093 : 	{
; 2094 : 		posRand = 5.0f;

	movss	xmm0, DWORD PTR __real@40a00000
	movss	DWORD PTR _posRand$[ebp], xmm0

; 2095 : 
; 2096 : 		flags |= FPART_DISTANCESCALE;

	mov	eax, DWORD PTR _flags$[ebp]
	or	eax, 512				; 00000200H
	mov	DWORD PTR _flags$[ebp], eax

; 2097 : 
; 2098 : 		for( int i = 0; i < count; i++ )

	mov	DWORD PTR _i$3[ebp], 0
	jmp	SHORT $LN9@SmokeVolum
$LN7@SmokeVolum:
	mov	eax, DWORD PTR _i$3[ebp]
	add	eax, 1
	mov	DWORD PTR _i$3[ebp], eax
$LN9@SmokeVolum:
	mov	eax, DWORD PTR _i$3[ebp]
	cmp	eax, DWORD PTR _count$[ebp]
	jge	$LN8@SmokeVolum

; 2099 : 		{
; 2100 : 			if( !Scale )

	movss	xmm0, DWORD PTR _Scale$[ebp]
	ucomiss	xmm0, DWORD PTR __real@00000000
	lahf
	test	ah, 68					; 00000044H
	jp	SHORT $LN19@SmokeVolum

; 2101 : 				Scale = RANDOM_FLOAT( 0.15, 0.40 );

	push	ecx
	movss	xmm0, DWORD PTR __real@3ecccccd
	movss	DWORD PTR [esp], xmm0
	push	ecx
	movss	xmm0, DWORD PTR __real@3e19999a
	movss	DWORD PTR [esp], xmm0
	call	DWORD PTR ?gEngfuncs@@3Ucl_enginefuncs_s@@A+268
	add	esp, 8
	fstp	DWORD PTR _Scale$[ebp]

; 2102 : 			else

	jmp	SHORT $LN20@SmokeVolum
$LN19@SmokeVolum:

; 2103 : 			{
; 2104 : 				ScaleRand = Scale * 0.1;

	cvtss2sd xmm0, DWORD PTR _Scale$[ebp]
	mulsd	xmm0, QWORD PTR __real@3fb999999999999a
	cvtsd2ss xmm0, xmm0
	movss	DWORD PTR _ScaleRand$[ebp], xmm0

; 2105 : 				Scale = RANDOM_FLOAT( Scale - ScaleRand, Scale + ScaleRand );

	movss	xmm0, DWORD PTR _Scale$[ebp]
	addss	xmm0, DWORD PTR _ScaleRand$[ebp]
	push	ecx
	movss	DWORD PTR [esp], xmm0
	movss	xmm0, DWORD PTR _Scale$[ebp]
	subss	xmm0, DWORD PTR _ScaleRand$[ebp]
	push	ecx
	movss	DWORD PTR [esp], xmm0
	call	DWORD PTR ?gEngfuncs@@3Ucl_enginefuncs_s@@A+268
	add	esp, 8
	fstp	DWORD PTR _Scale$[ebp]
$LN20@SmokeVolum:

; 2106 : 			}
; 2107 : 			src.m_vecOrigin.x = pos.x + RANDOM_FLOAT( -posRand, posRand );

	push	ecx
	movss	xmm0, DWORD PTR _posRand$[ebp]
	movss	DWORD PTR [esp], xmm0
	movss	xmm0, DWORD PTR _posRand$[ebp]
	xorps	xmm0, DWORD PTR __xmm@80000000800000008000000080000000
	push	ecx
	movss	DWORD PTR [esp], xmm0
	call	DWORD PTR ?gEngfuncs@@3Ucl_enginefuncs_s@@A+268
	add	esp, 8
	fstp	DWORD PTR tv419[ebp]
	mov	eax, DWORD PTR _pos$[ebp]
	movss	xmm0, DWORD PTR tv419[ebp]
	addss	xmm0, DWORD PTR [eax]
	movss	DWORD PTR _src$[ebp], xmm0

; 2108 : 			src.m_vecOrigin.y = pos.y + RANDOM_FLOAT( -posRand, posRand );

	push	ecx
	movss	xmm0, DWORD PTR _posRand$[ebp]
	movss	DWORD PTR [esp], xmm0
	movss	xmm0, DWORD PTR _posRand$[ebp]
	xorps	xmm0, DWORD PTR __xmm@80000000800000008000000080000000
	push	ecx
	movss	DWORD PTR [esp], xmm0
	call	DWORD PTR ?gEngfuncs@@3Ucl_enginefuncs_s@@A+268
	add	esp, 8
	fstp	DWORD PTR tv429[ebp]
	mov	eax, DWORD PTR _pos$[ebp]
	movss	xmm0, DWORD PTR tv429[ebp]
	addss	xmm0, DWORD PTR [eax+4]
	movss	DWORD PTR _src$[ebp+4], xmm0

; 2109 : 			src.m_vecOrigin.z = pos.z + RANDOM_FLOAT( -posRand, posRand );

	push	ecx
	movss	xmm0, DWORD PTR _posRand$[ebp]
	movss	DWORD PTR [esp], xmm0
	movss	xmm0, DWORD PTR _posRand$[ebp]
	xorps	xmm0, DWORD PTR __xmm@80000000800000008000000080000000
	push	ecx
	movss	DWORD PTR [esp], xmm0
	call	DWORD PTR ?gEngfuncs@@3Ucl_enginefuncs_s@@A+268
	add	esp, 8
	fstp	DWORD PTR tv439[ebp]
	mov	eax, DWORD PTR _pos$[ebp]
	movss	xmm0, DWORD PTR tv439[ebp]
	addss	xmm0, DWORD PTR [eax+8]
	movss	DWORD PTR _src$[ebp+8], xmm0

; 2110 : 			src.m_vecVelocity.x = 0;

	xorps	xmm0, xmm0
	movss	DWORD PTR _src$[ebp+24], xmm0

; 2111 : 			src.m_vecVelocity.y = 0;

	xorps	xmm0, xmm0
	movss	DWORD PTR _src$[ebp+28], xmm0

; 2112 : 			src.m_vecVelocity.z = RANDOM_FLOAT(-5, 5);

	push	ecx
	movss	xmm0, DWORD PTR __real@40a00000
	movss	DWORD PTR [esp], xmm0
	push	ecx
	movss	xmm0, DWORD PTR __real@c0a00000
	movss	DWORD PTR [esp], xmm0
	call	DWORD PTR ?gEngfuncs@@3Ucl_enginefuncs_s@@A+268
	add	esp, 8
	fstp	DWORD PTR _src$[ebp+32]

; 2113 : 			src.m_vecAccel = g_vecZero;

	mov	eax, DWORD PTR ?g_vecZero@@3VVector@@B
	mov	DWORD PTR _src$[ebp+36], eax
	mov	ecx, DWORD PTR ?g_vecZero@@3VVector@@B+4
	mov	DWORD PTR _src$[ebp+40], ecx
	mov	edx, DWORD PTR ?g_vecZero@@3VVector@@B+8
	mov	DWORD PTR _src$[ebp+44], edx

; 2114 : 			src.m_vecColor = Vector( 1, 1, 1 );

	push	ecx
	movss	xmm0, DWORD PTR __real@3f800000
	movss	DWORD PTR [esp], xmm0
	push	ecx
	movss	xmm0, DWORD PTR __real@3f800000
	movss	DWORD PTR [esp], xmm0
	push	ecx
	movss	xmm0, DWORD PTR __real@3f800000
	movss	DWORD PTR [esp], xmm0
	lea	ecx, DWORD PTR $T1[ebp]
	call	??0Vector@@QAE@MMM@Z			; Vector::Vector
	mov	ecx, DWORD PTR [eax]
	mov	DWORD PTR _src$[ebp+48], ecx
	mov	edx, DWORD PTR [eax+4]
	mov	DWORD PTR _src$[ebp+52], edx
	mov	eax, DWORD PTR [eax+8]
	mov	DWORD PTR _src$[ebp+56], eax

; 2115 : 			src.m_vecColorVelocity = g_vecZero;

	mov	eax, DWORD PTR ?g_vecZero@@3VVector@@B
	mov	DWORD PTR _src$[ebp+60], eax
	mov	ecx, DWORD PTR ?g_vecZero@@3VVector@@B+4
	mov	DWORD PTR _src$[ebp+64], ecx
	mov	edx, DWORD PTR ?g_vecZero@@3VVector@@B+8
	mov	DWORD PTR _src$[ebp+68], edx

; 2116 : 			src.m_flAlpha = Alpha;

	movss	xmm0, DWORD PTR _Alpha$[ebp]
	movss	DWORD PTR _src$[ebp+72], xmm0

; 2117 : 			src.m_flStartAlpha = 0.0f;

	xorps	xmm0, xmm0
	movss	DWORD PTR _src$[ebp+112], xmm0

; 2118 : 			src.m_flAlphaVelocity = -0.5 * Alpha;

	cvtss2sd xmm0, DWORD PTR _Alpha$[ebp]
	mulsd	xmm0, QWORD PTR __real@bfe0000000000000
	cvtsd2ss xmm0, xmm0
	movss	DWORD PTR _src$[ebp+76], xmm0

; 2119 : 			src.m_flRadius = Scale;

	movss	xmm0, DWORD PTR _Scale$[ebp]
	movss	DWORD PTR _src$[ebp+80], xmm0

; 2120 : 			src.m_flMinScale = Scale * 0.25;

	cvtss2sd xmm0, DWORD PTR _Scale$[ebp]
	mulsd	xmm0, QWORD PTR __real@3fd0000000000000
	cvtsd2ss xmm0, xmm0
	movss	DWORD PTR _src$[ebp+128], xmm0

; 2121 : 			src.m_flMaxScale = Scale * 2.0;

	cvtss2sd xmm0, DWORD PTR _Scale$[ebp]
	mulsd	xmm0, QWORD PTR __real@4000000000000000
	cvtsd2ss xmm0, xmm0
	movss	DWORD PTR _src$[ebp+132], xmm0

; 2122 : 			src.m_flRadiusVelocity = 0.0f;

	xorps	xmm0, xmm0
	movss	DWORD PTR _src$[ebp+84], xmm0

; 2123 : 			src.m_flLength = 1;

	movss	xmm0, DWORD PTR __real@3f800000
	movss	DWORD PTR _src$[ebp+88], xmm0

; 2124 : 			src.m_flLengthVelocity = 0;

	xorps	xmm0, xmm0
	movss	DWORD PTR _src$[ebp+92], xmm0

; 2125 : 			src.m_flRotation = RANDOM_LONG( 1, 360 );

	push	360					; 00000168H
	push	1
	call	DWORD PTR ?gEngfuncs@@3Ucl_enginefuncs_s@@A+272
	add	esp, 8
	cvtsi2ss xmm0, eax
	movss	DWORD PTR _src$[ebp+96], xmm0

; 2126 : 			src.m_flRotationVelocity = 0;

	xorps	xmm0, xmm0
	movss	DWORD PTR _src$[ebp+100], xmm0

; 2127 : 			src.m_flDistance = Distance;

	cvtsi2ss xmm0, DWORD PTR _Distance$[ebp]
	movss	DWORD PTR _src$[ebp+108], xmm0

; 2128 : 			src.ParticleType = TYPE_DUSTMOTE;

	mov	DWORD PTR _src$[ebp+144], 1

; 2129 : 			src.EntIndex = EntIndex;

	mov	eax, DWORD PTR _EntIndex$[ebp]
	mov	DWORD PTR _src$[ebp+168], eax

; 2130 : 
; 2131 : 			if( !AddParticle( &src, Particle, flags ) )

	mov	eax, DWORD PTR _flags$[ebp]
	push	eax
	mov	ecx, DWORD PTR _Particle$[ebp]
	push	ecx
	lea	edx, DWORD PTR _src$[ebp]
	push	edx
	mov	ecx, DWORD PTR _this$[ebp]
	call	?AddParticle@CQuakePartSystem@@QAE_NPAVCQuakePart@@HH@Z ; CQuakePartSystem::AddParticle
	movzx	eax, al
	test	eax, eax
	jne	SHORT $LN21@SmokeVolum

; 2132 : 				break;

	jmp	SHORT $LN8@SmokeVolum
$LN21@SmokeVolum:

; 2133 : 		}

	jmp	$LN7@SmokeVolum
$LN8@SmokeVolum:
$LN1@SmokeVolum:

; 2134 : 	}
; 2135 : }

	pop	edi
	pop	esi
	pop	ebx
	mov	esp, ebp
	pop	ebp
	ret	24					; 00000018H
?SmokeVolume@CQuakePartSystem@@QAEXHHABVVector@@MMH@Z ENDP ; CQuakePartSystem::SmokeVolume
_TEXT	ENDS
; Function compile flags: /Odtp /ZI
; File d:\!diffusion 2020\source code 2022\client-server\client\render\r_quakeparticle.cpp
;	COMDAT ?WaterSplashParticle@CQuakePartSystem@@QAEXHABVVector@@@Z
_TEXT	SEGMENT
tv291 = -296						; size = 4
$T1 = -292						; size = 12
$T2 = -280						; size = 12
$T3 = -268						; size = 12
$T4 = -256						; size = 12
_flags$ = -180						; size = 4
_src$ = -176						; size = 172
_this$ = -4						; size = 4
_EntIndex$ = 8						; size = 4
_pos$ = 12						; size = 4
?WaterSplashParticle@CQuakePartSystem@@QAEXHABVVector@@@Z PROC ; CQuakePartSystem::WaterSplashParticle, COMDAT
; _this$ = ecx

; 2295 : {

	push	ebp
	mov	ebp, esp
	sub	esp, 296				; 00000128H
	push	ebx
	push	esi
	push	edi
	mov	DWORD PTR _this$[ebp], ecx

; 2296 : 	CQuakePart src;

	lea	ecx, DWORD PTR _src$[ebp]
	call	??0CQuakePart@@QAE@XZ

; 2297 : 
; 2298 : 	if( !g_fRenderInitialized )

	cmp	DWORD PTR ?g_fRenderInitialized@@3HA, 0	; g_fRenderInitialized
	jne	SHORT $LN2@WaterSplas

; 2299 : 		return;

	jmp	$LN1@WaterSplas
$LN2@WaterSplas:

; 2300 : 
; 2301 : 	// water ring
; 2302 : 	int flags = FPART_VERTEXLIGHT | FPART_FLOATING_ORIENTED | FPART_AFLOAT;

	mov	DWORD PTR _flags$[ebp], 12292		; 00003004H

; 2303 : 
; 2304 : 	src.m_vecOrigin = pos;

	mov	eax, DWORD PTR _pos$[ebp]
	mov	ecx, DWORD PTR [eax]
	mov	DWORD PTR _src$[ebp], ecx
	mov	edx, DWORD PTR [eax+4]
	mov	DWORD PTR _src$[ebp+4], edx
	mov	eax, DWORD PTR [eax+8]
	mov	DWORD PTR _src$[ebp+8], eax

; 2305 : 	src.m_vecVelocity = Vector( 0, 0, 0 );

	push	ecx
	xorps	xmm0, xmm0
	movss	DWORD PTR [esp], xmm0
	push	ecx
	xorps	xmm0, xmm0
	movss	DWORD PTR [esp], xmm0
	push	ecx
	xorps	xmm0, xmm0
	movss	DWORD PTR [esp], xmm0
	lea	ecx, DWORD PTR $T4[ebp]
	call	??0Vector@@QAE@MMM@Z			; Vector::Vector
	mov	ecx, DWORD PTR [eax]
	mov	DWORD PTR _src$[ebp+24], ecx
	mov	edx, DWORD PTR [eax+4]
	mov	DWORD PTR _src$[ebp+28], edx
	mov	eax, DWORD PTR [eax+8]
	mov	DWORD PTR _src$[ebp+32], eax

; 2306 : 	src.m_vecAccel = Vector( 0, 0, 0 );

	push	ecx
	xorps	xmm0, xmm0
	movss	DWORD PTR [esp], xmm0
	push	ecx
	xorps	xmm0, xmm0
	movss	DWORD PTR [esp], xmm0
	push	ecx
	xorps	xmm0, xmm0
	movss	DWORD PTR [esp], xmm0
	lea	ecx, DWORD PTR $T3[ebp]
	call	??0Vector@@QAE@MMM@Z			; Vector::Vector
	mov	ecx, DWORD PTR [eax]
	mov	DWORD PTR _src$[ebp+36], ecx
	mov	edx, DWORD PTR [eax+4]
	mov	DWORD PTR _src$[ebp+40], edx
	mov	eax, DWORD PTR [eax+8]
	mov	DWORD PTR _src$[ebp+44], eax

; 2307 : 	src.m_vecColor = Vector( 1, 1, 1 );

	push	ecx
	movss	xmm0, DWORD PTR __real@3f800000
	movss	DWORD PTR [esp], xmm0
	push	ecx
	movss	xmm0, DWORD PTR __real@3f800000
	movss	DWORD PTR [esp], xmm0
	push	ecx
	movss	xmm0, DWORD PTR __real@3f800000
	movss	DWORD PTR [esp], xmm0
	lea	ecx, DWORD PTR $T2[ebp]
	call	??0Vector@@QAE@MMM@Z			; Vector::Vector
	mov	ecx, DWORD PTR [eax]
	mov	DWORD PTR _src$[ebp+48], ecx
	mov	edx, DWORD PTR [eax+4]
	mov	DWORD PTR _src$[ebp+52], edx
	mov	eax, DWORD PTR [eax+8]
	mov	DWORD PTR _src$[ebp+56], eax

; 2308 : 	src.m_vecColorVelocity = Vector( 0, 0, 0 );

	push	ecx
	xorps	xmm0, xmm0
	movss	DWORD PTR [esp], xmm0
	push	ecx
	xorps	xmm0, xmm0
	movss	DWORD PTR [esp], xmm0
	push	ecx
	xorps	xmm0, xmm0
	movss	DWORD PTR [esp], xmm0
	lea	ecx, DWORD PTR $T1[ebp]
	call	??0Vector@@QAE@MMM@Z			; Vector::Vector
	mov	ecx, DWORD PTR [eax]
	mov	DWORD PTR _src$[ebp+60], ecx
	mov	edx, DWORD PTR [eax+4]
	mov	DWORD PTR _src$[ebp+64], edx
	mov	eax, DWORD PTR [eax+8]
	mov	DWORD PTR _src$[ebp+68], eax

; 2309 : 	src.m_flAlpha = 1.0;

	movss	xmm0, DWORD PTR __real@3f800000
	movss	DWORD PTR _src$[ebp+72], xmm0

; 2310 : 	src.m_flStartAlpha = 0.0f;

	xorps	xmm0, xmm0
	movss	DWORD PTR _src$[ebp+112], xmm0

; 2311 : 	src.m_flAlphaVelocity = -0.75;

	movss	xmm0, DWORD PTR __real@bf400000
	movss	DWORD PTR _src$[ebp+76], xmm0

; 2312 : 	src.m_flRadius = RANDOM_FLOAT(10,20);

	push	ecx
	movss	xmm0, DWORD PTR __real@41a00000
	movss	DWORD PTR [esp], xmm0
	push	ecx
	movss	xmm0, DWORD PTR __real@41200000
	movss	DWORD PTR [esp], xmm0
	call	DWORD PTR ?gEngfuncs@@3Ucl_enginefuncs_s@@A+268
	add	esp, 8
	fstp	DWORD PTR _src$[ebp+80]

; 2313 : 	src.m_flRadiusVelocity = 25 + RANDOM_FLOAT( 0, 10 );

	push	ecx
	movss	xmm0, DWORD PTR __real@41200000
	movss	DWORD PTR [esp], xmm0
	push	ecx
	xorps	xmm0, xmm0
	movss	DWORD PTR [esp], xmm0
	call	DWORD PTR ?gEngfuncs@@3Ucl_enginefuncs_s@@A+268
	add	esp, 8
	fstp	DWORD PTR tv291[ebp]
	movss	xmm0, DWORD PTR tv291[ebp]
	addss	xmm0, DWORD PTR __real@41c80000
	movss	DWORD PTR _src$[ebp+84], xmm0

; 2314 : 	src.m_flLength = 1;

	movss	xmm0, DWORD PTR __real@3f800000
	movss	DWORD PTR _src$[ebp+88], xmm0

; 2315 : 	src.m_flLengthVelocity = 0;

	xorps	xmm0, xmm0
	movss	DWORD PTR _src$[ebp+92], xmm0

; 2316 : 	src.m_flRotation = RANDOM_LONG( 0, 359 );

	push	359					; 00000167H
	push	0
	call	DWORD PTR ?gEngfuncs@@3Ucl_enginefuncs_s@@A+272
	add	esp, 8
	cvtsi2ss xmm0, eax
	movss	DWORD PTR _src$[ebp+96], xmm0

; 2317 : 	src.m_flRotationVelocity = RANDOM_FLOAT(-25.0,25.0);

	push	ecx
	movss	xmm0, DWORD PTR __real@41c80000
	movss	DWORD PTR [esp], xmm0
	push	ecx
	movss	xmm0, DWORD PTR __real@c1c80000
	movss	DWORD PTR [esp], xmm0
	call	DWORD PTR ?gEngfuncs@@3Ucl_enginefuncs_s@@A+268
	add	esp, 8
	fstp	DWORD PTR _src$[ebp+100]

; 2318 : 	src.m_flDistance = 0;

	xorps	xmm0, xmm0
	movss	DWORD PTR _src$[ebp+108], xmm0

; 2319 : 	src.ParticleType = TYPE_WATERSPLASH;

	mov	DWORD PTR _src$[ebp+144], 5

; 2320 : 	src.EntIndex = EntIndex;

	mov	eax, DWORD PTR _EntIndex$[ebp]
	mov	DWORD PTR _src$[ebp+168], eax

; 2321 : 
; 2322 : 	AddParticle( &src, m_hWaterSplash, flags );

	mov	eax, DWORD PTR _flags$[ebp]
	push	eax
	mov	ecx, DWORD PTR _this$[ebp]
	mov	edx, DWORD PTR [ecx+2911256]
	push	edx
	lea	eax, DWORD PTR _src$[ebp]
	push	eax
	mov	ecx, DWORD PTR _this$[ebp]
	call	?AddParticle@CQuakePartSystem@@QAE_NPAVCQuakePart@@HH@Z ; CQuakePartSystem::AddParticle
$LN1@WaterSplas:

; 2323 : }

	pop	edi
	pop	esi
	pop	ebx
	mov	esp, ebp
	pop	ebp
	ret	8
?WaterSplashParticle@CQuakePartSystem@@QAEXHABVVector@@@Z ENDP ; CQuakePartSystem::WaterSplashParticle
_TEXT	ENDS
; Function compile flags: /Odtp /ZI
; File d:\!diffusion 2020\source code 2022\client-server\client\render\r_quakeparticle.cpp
;	COMDAT ?GunSmoke@CQuakePartSystem@@QAEXHABVVector@@V2@H@Z
_TEXT	SEGMENT
tv378 = -276						; size = 4
tv361 = -276						; size = 4
tv344 = -276						; size = 4
tv440 = -272						; size = 4
tv438 = -272						; size = 4
tv436 = -272						; size = 4
tv422 = -268						; size = 4
tv369 = -268						; size = 4
tv352 = -268						; size = 4
tv335 = -268						; size = 4
tv325 = -268						; size = 4
tv315 = -268						; size = 4
tv305 = -268						; size = 4
tv76 = -268						; size = 4
tv70 = -268						; size = 4
$T1 = -264						; size = 12
_i$2 = -188						; size = 4
_flags$ = -184						; size = 4
_count$ = -180						; size = 4
_src$ = -176						; size = 172
_this$ = -4						; size = 4
_EntIndex$ = 8						; size = 4
_pos$ = 12						; size = 4
_vel$ = 16						; size = 12
_WeaponID$ = 28						; size = 4
?GunSmoke@CQuakePartSystem@@QAEXHABVVector@@V2@H@Z PROC	; CQuakePartSystem::GunSmoke, COMDAT
; _this$ = ecx

; 2138 : {

	push	ebp
	mov	ebp, esp
	sub	esp, 276				; 00000114H
	push	ebx
	push	esi
	push	edi
	mov	DWORD PTR _this$[ebp], ecx

; 2139 : 	CQuakePart src;

	lea	ecx, DWORD PTR _src$[ebp]
	call	??0CQuakePart@@QAE@XZ

; 2140 : 
; 2141 : 	// defaults
; 2142 : 	int count = 2;

	mov	DWORD PTR _count$[ebp], 2

; 2143 : 
; 2144 : 	if( !g_fRenderInitialized )

	cmp	DWORD PTR ?g_fRenderInitialized@@3HA, 0	; g_fRenderInitialized
	jne	SHORT $LN9@GunSmoke

; 2145 : 		return;

	jmp	$LN1@GunSmoke
$LN9@GunSmoke:

; 2146 : 
; 2147 : 	if( !vel )

	lea	ecx, DWORD PTR _vel$[ebp]
	call	??BVector@@QAEPAMXZ			; Vector::operator float *
	test	eax, eax
	jne	SHORT $LN10@GunSmoke

; 2148 : 		vel = g_vecZero;

	mov	eax, DWORD PTR ?g_vecZero@@3VVector@@B
	mov	DWORD PTR _vel$[ebp], eax
	mov	ecx, DWORD PTR ?g_vecZero@@3VVector@@B+4
	mov	DWORD PTR _vel$[ebp+4], ecx
	mov	edx, DWORD PTR ?g_vecZero@@3VVector@@B+8
	mov	DWORD PTR _vel$[ebp+8], edx
$LN10@GunSmoke:

; 2149 : 
; 2150 : 	vel *= 0.25;

	push	ecx
	movss	xmm0, DWORD PTR __real@3e800000
	movss	DWORD PTR [esp], xmm0
	lea	ecx, DWORD PTR _vel$[ebp]
	call	??XVector@@QAEAAV0@M@Z			; Vector::operator*=

; 2151 : 
; 2152 : 	switch( WeaponID )

	mov	eax, DWORD PTR _WeaponID$[ebp]
	mov	DWORD PTR tv70[ebp], eax
	mov	ecx, DWORD PTR tv70[ebp]
	sub	ecx, 7
	mov	DWORD PTR tv70[ebp], ecx
	cmp	DWORD PTR tv70[ebp], 15			; 0000000fH
	ja	SHORT $LN2@GunSmoke
	mov	edx, DWORD PTR tv70[ebp]
	movzx	eax, BYTE PTR $LN18@GunSmoke[edx]
	jmp	DWORD PTR $LN20@GunSmoke[eax*4]
$LN11@GunSmoke:

; 2153 : 	{
; 2154 : 	case WEAPON_SNIPER:
; 2155 : 	case WEAPON_GAUSS:
; 2156 : 		count = 3;

	mov	DWORD PTR _count$[ebp], 3

; 2157 : 	break;

	jmp	SHORT $LN2@GunSmoke
$LN12@GunSmoke:

; 2158 : 	case WEAPON_SHOTGUN:
; 2159 : 	case WEAPON_SHOTGUN_XM:
; 2160 : 		count = 5;

	mov	DWORD PTR _count$[ebp], 5
$LN2@GunSmoke:

; 2161 : 	break;
; 2162 : 	}
; 2163 : 
; 2164 : 	// smoke
; 2165 : 	int flags = FPART_VERTEXLIGHT | FPART_NOTWATER;

	mov	DWORD PTR _flags$[ebp], 132		; 00000084H

; 2166 : 
; 2167 : 	for( int i = 0; i < count; i++ )

	mov	DWORD PTR _i$2[ebp], 0
	jmp	SHORT $LN6@GunSmoke
$LN4@GunSmoke:
	mov	eax, DWORD PTR _i$2[ebp]
	add	eax, 1
	mov	DWORD PTR _i$2[ebp], eax
$LN6@GunSmoke:
	mov	eax, DWORD PTR _i$2[ebp]
	cmp	eax, DWORD PTR _count$[ebp]
	jge	$LN5@GunSmoke

; 2168 : 	{
; 2169 : 		switch( WeaponID )

	mov	eax, DWORD PTR _WeaponID$[ebp]
	mov	DWORD PTR tv76[ebp], eax
	mov	ecx, DWORD PTR tv76[ebp]
	sub	ecx, 7
	mov	DWORD PTR tv76[ebp], ecx
	cmp	DWORD PTR tv76[ebp], 15			; 0000000fH
	ja	SHORT $LN15@GunSmoke
	mov	edx, DWORD PTR tv76[ebp]
	movzx	eax, BYTE PTR $LN19@GunSmoke[edx]
	jmp	DWORD PTR $LN21@GunSmoke[eax*4]
$LN13@GunSmoke:

; 2170 : 		{
; 2171 : 		case WEAPON_SNIPER:
; 2172 : 		case WEAPON_GAUSS:
; 2173 : 			src.m_flRadius = RANDOM_FLOAT( 20, 30 );

	push	ecx
	movss	xmm0, DWORD PTR __real@41f00000
	movss	DWORD PTR [esp], xmm0
	push	ecx
	movss	xmm0, DWORD PTR __real@41a00000
	movss	DWORD PTR [esp], xmm0
	call	DWORD PTR ?gEngfuncs@@3Ucl_enginefuncs_s@@A+268
	add	esp, 8
	fstp	DWORD PTR _src$[ebp+80]

; 2174 : 		break;

	jmp	SHORT $LN7@GunSmoke
$LN14@GunSmoke:

; 2175 : 		case WEAPON_SHOTGUN:
; 2176 : 		case WEAPON_SHOTGUN_XM:
; 2177 : 			src.m_flRadius = RANDOM_FLOAT( 5, 10 );

	push	ecx
	movss	xmm0, DWORD PTR __real@41200000
	movss	DWORD PTR [esp], xmm0
	push	ecx
	movss	xmm0, DWORD PTR __real@40a00000
	movss	DWORD PTR [esp], xmm0
	call	DWORD PTR ?gEngfuncs@@3Ucl_enginefuncs_s@@A+268
	add	esp, 8
	fstp	DWORD PTR _src$[ebp+80]

; 2178 : 		break;

	jmp	SHORT $LN7@GunSmoke
$LN15@GunSmoke:

; 2179 : 		default:
; 2180 : 			src.m_flRadius = RANDOM_FLOAT( 3.5f, 6.5f ); // scale

	push	ecx
	movss	xmm0, DWORD PTR __real@40d00000
	movss	DWORD PTR [esp], xmm0
	push	ecx
	movss	xmm0, DWORD PTR __real@40600000
	movss	DWORD PTR [esp], xmm0
	call	DWORD PTR ?gEngfuncs@@3Ucl_enginefuncs_s@@A+268
	add	esp, 8
	fstp	DWORD PTR _src$[ebp+80]
$LN7@GunSmoke:

; 2181 : 		break;
; 2182 : 		}
; 2183 : 		
; 2184 : 		src.m_vecOrigin.x = pos.x + RANDOM_FLOAT( -0.1f, 0.1f );

	push	ecx
	movss	xmm0, DWORD PTR __real@3dcccccd
	movss	DWORD PTR [esp], xmm0
	push	ecx
	movss	xmm0, DWORD PTR __real@bdcccccd
	movss	DWORD PTR [esp], xmm0
	call	DWORD PTR ?gEngfuncs@@3Ucl_enginefuncs_s@@A+268
	add	esp, 8
	fstp	DWORD PTR tv305[ebp]
	mov	eax, DWORD PTR _pos$[ebp]
	movss	xmm0, DWORD PTR tv305[ebp]
	addss	xmm0, DWORD PTR [eax]
	movss	DWORD PTR _src$[ebp], xmm0

; 2185 : 		src.m_vecOrigin.y = pos.y + RANDOM_FLOAT( -0.1f, 0.1f );

	push	ecx
	movss	xmm0, DWORD PTR __real@3dcccccd
	movss	DWORD PTR [esp], xmm0
	push	ecx
	movss	xmm0, DWORD PTR __real@bdcccccd
	movss	DWORD PTR [esp], xmm0
	call	DWORD PTR ?gEngfuncs@@3Ucl_enginefuncs_s@@A+268
	add	esp, 8
	fstp	DWORD PTR tv315[ebp]
	mov	eax, DWORD PTR _pos$[ebp]
	movss	xmm0, DWORD PTR tv315[ebp]
	addss	xmm0, DWORD PTR [eax+4]
	movss	DWORD PTR _src$[ebp+4], xmm0

; 2186 : 		src.m_vecOrigin.z = pos.z + RANDOM_FLOAT( -0.1f, 0.1f );

	push	ecx
	movss	xmm0, DWORD PTR __real@3dcccccd
	movss	DWORD PTR [esp], xmm0
	push	ecx
	movss	xmm0, DWORD PTR __real@bdcccccd
	movss	DWORD PTR [esp], xmm0
	call	DWORD PTR ?gEngfuncs@@3Ucl_enginefuncs_s@@A+268
	add	esp, 8
	fstp	DWORD PTR tv325[ebp]
	mov	eax, DWORD PTR _pos$[ebp]
	movss	xmm0, DWORD PTR tv325[ebp]
	addss	xmm0, DWORD PTR [eax+8]
	movss	DWORD PTR _src$[ebp+8], xmm0

; 2187 : 		src.m_vecVelocity.x = vel.x * RANDOM_FLOAT( 0.85f, 1.15f ) + RANDOM_FLOAT( -5.1f, 5.1f );

	push	ecx
	movss	xmm0, DWORD PTR __real@3f933333
	movss	DWORD PTR [esp], xmm0
	push	ecx
	movss	xmm0, DWORD PTR __real@3f59999a
	movss	DWORD PTR [esp], xmm0
	call	DWORD PTR ?gEngfuncs@@3Ucl_enginefuncs_s@@A+268
	add	esp, 8
	fstp	DWORD PTR tv335[ebp]
	movss	xmm0, DWORD PTR tv335[ebp]
	mulss	xmm0, DWORD PTR _vel$[ebp]
	push	ecx
	movss	xmm1, DWORD PTR __real@40a33333
	movss	DWORD PTR [esp], xmm1
	push	ecx
	movss	xmm1, DWORD PTR __real@c0a33333
	movss	DWORD PTR [esp], xmm1
	movss	DWORD PTR tv436[ebp], xmm0
	call	DWORD PTR ?gEngfuncs@@3Ucl_enginefuncs_s@@A+268
	add	esp, 8
	fstp	DWORD PTR tv344[ebp]
	movss	xmm0, DWORD PTR tv436[ebp]
	addss	xmm0, DWORD PTR tv344[ebp]
	movss	DWORD PTR _src$[ebp+24], xmm0

; 2188 : 		src.m_vecVelocity.y = vel.y * RANDOM_FLOAT( 0.85f, 1.15f ) + RANDOM_FLOAT( -5.1f, 5.1f );

	push	ecx
	movss	xmm0, DWORD PTR __real@3f933333
	movss	DWORD PTR [esp], xmm0
	push	ecx
	movss	xmm0, DWORD PTR __real@3f59999a
	movss	DWORD PTR [esp], xmm0
	call	DWORD PTR ?gEngfuncs@@3Ucl_enginefuncs_s@@A+268
	add	esp, 8
	fstp	DWORD PTR tv352[ebp]
	movss	xmm0, DWORD PTR tv352[ebp]
	mulss	xmm0, DWORD PTR _vel$[ebp+4]
	push	ecx
	movss	xmm1, DWORD PTR __real@40a33333
	movss	DWORD PTR [esp], xmm1
	push	ecx
	movss	xmm1, DWORD PTR __real@c0a33333
	movss	DWORD PTR [esp], xmm1
	movss	DWORD PTR tv438[ebp], xmm0
	call	DWORD PTR ?gEngfuncs@@3Ucl_enginefuncs_s@@A+268
	add	esp, 8
	fstp	DWORD PTR tv361[ebp]
	movss	xmm0, DWORD PTR tv438[ebp]
	addss	xmm0, DWORD PTR tv361[ebp]
	movss	DWORD PTR _src$[ebp+28], xmm0

; 2189 : 		src.m_vecVelocity.z = vel.z * RANDOM_FLOAT( 0.85f, 1.15f ) + RANDOM_FLOAT( -5.1f, 5.1f );

	push	ecx
	movss	xmm0, DWORD PTR __real@3f933333
	movss	DWORD PTR [esp], xmm0
	push	ecx
	movss	xmm0, DWORD PTR __real@3f59999a
	movss	DWORD PTR [esp], xmm0
	call	DWORD PTR ?gEngfuncs@@3Ucl_enginefuncs_s@@A+268
	add	esp, 8
	fstp	DWORD PTR tv369[ebp]
	movss	xmm0, DWORD PTR tv369[ebp]
	mulss	xmm0, DWORD PTR _vel$[ebp+8]
	push	ecx
	movss	xmm1, DWORD PTR __real@40a33333
	movss	DWORD PTR [esp], xmm1
	push	ecx
	movss	xmm1, DWORD PTR __real@c0a33333
	movss	DWORD PTR [esp], xmm1
	movss	DWORD PTR tv440[ebp], xmm0
	call	DWORD PTR ?gEngfuncs@@3Ucl_enginefuncs_s@@A+268
	add	esp, 8
	fstp	DWORD PTR tv378[ebp]
	movss	xmm0, DWORD PTR tv440[ebp]
	addss	xmm0, DWORD PTR tv378[ebp]
	movss	DWORD PTR _src$[ebp+32], xmm0

; 2190 : 		src.m_vecAccel = g_vecZero;

	mov	eax, DWORD PTR ?g_vecZero@@3VVector@@B
	mov	DWORD PTR _src$[ebp+36], eax
	mov	ecx, DWORD PTR ?g_vecZero@@3VVector@@B+4
	mov	DWORD PTR _src$[ebp+40], ecx
	mov	edx, DWORD PTR ?g_vecZero@@3VVector@@B+8
	mov	DWORD PTR _src$[ebp+44], edx

; 2191 : 		src.m_vecColor = Vector( 1.0f, 1.0f, 1.0f );

	push	ecx
	movss	xmm0, DWORD PTR __real@3f800000
	movss	DWORD PTR [esp], xmm0
	push	ecx
	movss	xmm0, DWORD PTR __real@3f800000
	movss	DWORD PTR [esp], xmm0
	push	ecx
	movss	xmm0, DWORD PTR __real@3f800000
	movss	DWORD PTR [esp], xmm0
	lea	ecx, DWORD PTR $T1[ebp]
	call	??0Vector@@QAE@MMM@Z			; Vector::Vector
	mov	ecx, DWORD PTR [eax]
	mov	DWORD PTR _src$[ebp+48], ecx
	mov	edx, DWORD PTR [eax+4]
	mov	DWORD PTR _src$[ebp+52], edx
	mov	eax, DWORD PTR [eax+8]
	mov	DWORD PTR _src$[ebp+56], eax

; 2192 : 		src.m_vecColorVelocity = g_vecZero;

	mov	eax, DWORD PTR ?g_vecZero@@3VVector@@B
	mov	DWORD PTR _src$[ebp+60], eax
	mov	ecx, DWORD PTR ?g_vecZero@@3VVector@@B+4
	mov	DWORD PTR _src$[ebp+64], ecx
	mov	edx, DWORD PTR ?g_vecZero@@3VVector@@B+8
	mov	DWORD PTR _src$[ebp+68], edx

; 2193 : 		src.m_flAlpha = 0.5;

	movss	xmm0, DWORD PTR __real@3f000000
	movss	DWORD PTR _src$[ebp+72], xmm0

; 2194 : 		src.m_flStartAlpha = 0.0f;

	xorps	xmm0, xmm0
	movss	DWORD PTR _src$[ebp+112], xmm0

; 2195 : 		src.m_flAlphaVelocity = RANDOM_FLOAT( -0.2f, -0.4f );

	push	ecx
	movss	xmm0, DWORD PTR __real@becccccd
	movss	DWORD PTR [esp], xmm0
	push	ecx
	movss	xmm0, DWORD PTR __real@be4ccccd
	movss	DWORD PTR [esp], xmm0
	call	DWORD PTR ?gEngfuncs@@3Ucl_enginefuncs_s@@A+268
	add	esp, 8
	fstp	DWORD PTR _src$[ebp+76]

; 2196 : 		src.m_flDistance = 1000;

	movss	xmm0, DWORD PTR __real@447a0000
	movss	DWORD PTR _src$[ebp+108], xmm0

; 2197 : 		src.m_flRadiusVelocity = 2.0f + RANDOM_FLOAT( -0.5, 0.5 );

	push	ecx
	movss	xmm0, DWORD PTR __real@3f000000
	movss	DWORD PTR [esp], xmm0
	push	ecx
	movss	xmm0, DWORD PTR __real@bf000000
	movss	DWORD PTR [esp], xmm0
	call	DWORD PTR ?gEngfuncs@@3Ucl_enginefuncs_s@@A+268
	add	esp, 8
	fstp	DWORD PTR tv422[ebp]
	movss	xmm0, DWORD PTR tv422[ebp]
	addss	xmm0, DWORD PTR __real@40000000
	movss	DWORD PTR _src$[ebp+84], xmm0

; 2198 : 		src.m_flLength = 1;

	movss	xmm0, DWORD PTR __real@3f800000
	movss	DWORD PTR _src$[ebp+88], xmm0

; 2199 : 		src.m_flLengthVelocity = 0;

	xorps	xmm0, xmm0
	movss	DWORD PTR _src$[ebp+92], xmm0

; 2200 : 		src.m_flRotation = RANDOM_LONG( 0, 360 );

	push	360					; 00000168H
	push	0
	call	DWORD PTR ?gEngfuncs@@3Ucl_enginefuncs_s@@A+272
	add	esp, 8
	cvtsi2ss xmm0, eax
	movss	DWORD PTR _src$[ebp+96], xmm0

; 2201 : 		src.m_flRotationVelocity = RANDOM_LONG(-50,50);

	push	50					; 00000032H
	push	-50					; ffffffceH
	call	DWORD PTR ?gEngfuncs@@3Ucl_enginefuncs_s@@A+272
	add	esp, 8
	cvtsi2ss xmm0, eax
	movss	DWORD PTR _src$[ebp+100], xmm0

; 2202 : 		src.ParticleType = TYPE_SMOKE;

	mov	DWORD PTR _src$[ebp+144], 3

; 2203 : 		src.EntIndex = EntIndex;

	mov	eax, DWORD PTR _EntIndex$[ebp]
	mov	DWORD PTR _src$[ebp+168], eax

; 2204 : 
; 2205 : 		if( !AddParticle( &src, m_hSmoke, flags ))

	mov	eax, DWORD PTR _flags$[ebp]
	push	eax
	mov	ecx, DWORD PTR _this$[ebp]
	mov	edx, DWORD PTR [ecx+2911252]
	push	edx
	lea	eax, DWORD PTR _src$[ebp]
	push	eax
	mov	ecx, DWORD PTR _this$[ebp]
	call	?AddParticle@CQuakePartSystem@@QAE_NPAVCQuakePart@@HH@Z ; CQuakePartSystem::AddParticle
	movzx	ecx, al
	test	ecx, ecx
	jne	SHORT $LN16@GunSmoke

; 2206 : 			break;

	jmp	SHORT $LN5@GunSmoke
$LN16@GunSmoke:

; 2207 : 	}

	jmp	$LN4@GunSmoke
$LN5@GunSmoke:
$LN1@GunSmoke:

; 2208 : }

	pop	edi
	pop	esi
	pop	ebx
	mov	esp, ebp
	pop	ebp
	ret	24					; 00000018H
	npad	1
$LN20@GunSmoke:
	DD	$LN12@GunSmoke
	DD	$LN11@GunSmoke
	DD	$LN2@GunSmoke
$LN18@GunSmoke:
	DB	0
	DB	2
	DB	1
	DB	2
	DB	2
	DB	2
	DB	2
	DB	2
	DB	2
	DB	2
	DB	2
	DB	2
	DB	2
	DB	2
	DB	1
	DB	0
$LN21@GunSmoke:
	DD	$LN14@GunSmoke
	DD	$LN13@GunSmoke
	DD	$LN15@GunSmoke
$LN19@GunSmoke:
	DB	0
	DB	2
	DB	1
	DB	2
	DB	2
	DB	2
	DB	2
	DB	2
	DB	2
	DB	2
	DB	2
	DB	2
	DB	2
	DB	2
	DB	1
	DB	0
?GunSmoke@CQuakePartSystem@@QAEXHABVVector@@V2@H@Z ENDP	; CQuakePartSystem::GunSmoke
_TEXT	ENDS
; Function compile flags: /Odtp /ZI
; File d:\!diffusion 2020\source code 2022\client-server\client\render\r_quakeparticle.cpp
;	COMDAT ?Smoke@CQuakePartSystem@@QAEXHHABVVector@@0HMMMMV2@MM@Z
_TEXT	SEGMENT
tv298 = -252						; size = 4
tv288 = -252						; size = 4
tv278 = -252						; size = 4
tv268 = -252						; size = 4
tv258 = -252						; size = 4
tv216 = -252						; size = 4
tv66 = -252						; size = 4
_i$1 = -184						; size = 4
_flags$ = -180						; size = 4
_src$ = -176						; size = 172
_this$ = -4						; size = 4
_EntIndex$ = 8						; size = 4
_Particle$ = 12						; size = 4
_pos$ = 16						; size = 4
_vel$ = 20						; size = 4
_count$ = 24						; size = 4
_speed$ = 28						; size = 4
_scale$ = 32						; size = 4
_posRand$ = 36						; size = 4
_velRand$ = 40						; size = 4
_Color$ = 44						; size = 12
_Distance$ = 56						; size = 4
_Alpha$ = 60						; size = 4
?Smoke@CQuakePartSystem@@QAEXHHABVVector@@0HMMMMV2@MM@Z PROC ; CQuakePartSystem::Smoke, COMDAT
; _this$ = ecx

; 1973 : {

	push	ebp
	mov	ebp, esp
	sub	esp, 252				; 000000fcH
	push	ebx
	push	esi
	push	edi
	mov	DWORD PTR _this$[ebp], ecx

; 1974 : 	CQuakePart src;

	lea	ecx, DWORD PTR _src$[ebp]
	call	??0CQuakePart@@QAE@XZ

; 1975 : 
; 1976 : 	if( !g_fRenderInitialized )

	cmp	DWORD PTR ?g_fRenderInitialized@@3HA, 0	; g_fRenderInitialized
	jne	SHORT $LN7@Smoke

; 1977 : 		return;

	jmp	$LN1@Smoke
$LN7@Smoke:

; 1978 : 
; 1979 : 	// smoke
; 1980 : 	int flags = FPART_VERTEXLIGHT;

	mov	DWORD PTR _flags$[ebp], 4

; 1981 : 
; 1982 : 	switch( Particle )

	mov	eax, DWORD PTR _Particle$[ebp]
	mov	DWORD PTR tv66[ebp], eax
	cmp	DWORD PTR tv66[ebp], 1
	je	SHORT $LN9@Smoke
	cmp	DWORD PTR tv66[ebp], 2
	je	SHORT $LN10@Smoke

; 1983 : 	{
; 1984 : 	default:
; 1985 : 	case 0:
; 1986 : 		Particle = m_hSmoke;

	mov	eax, DWORD PTR _this$[ebp]
	mov	ecx, DWORD PTR [eax+2911252]
	mov	DWORD PTR _Particle$[ebp], ecx

; 1987 : 		break;

	jmp	SHORT $LN2@Smoke
$LN9@Smoke:

; 1988 : 	case 1:
; 1989 : 		Particle = m_hSand;

	mov	eax, DWORD PTR _this$[ebp]
	mov	ecx, DWORD PTR [eax+2911264]
	mov	DWORD PTR _Particle$[ebp], ecx

; 1990 : 		break;

	jmp	SHORT $LN2@Smoke
$LN10@Smoke:

; 1991 : 	case 2:
; 1992 : 		Particle = m_hDirt;

	mov	eax, DWORD PTR _this$[ebp]
	mov	ecx, DWORD PTR [eax+2911268]
	mov	DWORD PTR _Particle$[ebp], ecx
$LN2@Smoke:

; 1993 : 		break;
; 1994 : 	}
; 1995 : 
; 1996 : 	for( int i = 0; i < count; i++ )

	mov	DWORD PTR _i$1[ebp], 0
	jmp	SHORT $LN6@Smoke
$LN4@Smoke:
	mov	eax, DWORD PTR _i$1[ebp]
	add	eax, 1
	mov	DWORD PTR _i$1[ebp], eax
$LN6@Smoke:
	mov	eax, DWORD PTR _i$1[ebp]
	cmp	eax, DWORD PTR _count$[ebp]
	jge	$LN5@Smoke

; 1997 : 	{
; 1998 : 		src.m_vecOrigin.x = pos.x + RANDOM_FLOAT( -posRand, posRand );

	push	ecx
	movss	xmm0, DWORD PTR _posRand$[ebp]
	movss	DWORD PTR [esp], xmm0
	movss	xmm0, DWORD PTR _posRand$[ebp]
	xorps	xmm0, DWORD PTR __xmm@80000000800000008000000080000000
	push	ecx
	movss	DWORD PTR [esp], xmm0
	call	DWORD PTR ?gEngfuncs@@3Ucl_enginefuncs_s@@A+268
	add	esp, 8
	fstp	DWORD PTR tv216[ebp]
	mov	eax, DWORD PTR _pos$[ebp]
	movss	xmm0, DWORD PTR tv216[ebp]
	addss	xmm0, DWORD PTR [eax]
	movss	DWORD PTR _src$[ebp], xmm0

; 1999 : 		src.m_vecOrigin.y = pos.y + RANDOM_FLOAT( -posRand, posRand );

	push	ecx
	movss	xmm0, DWORD PTR _posRand$[ebp]
	movss	DWORD PTR [esp], xmm0
	movss	xmm0, DWORD PTR _posRand$[ebp]
	xorps	xmm0, DWORD PTR __xmm@80000000800000008000000080000000
	push	ecx
	movss	DWORD PTR [esp], xmm0
	call	DWORD PTR ?gEngfuncs@@3Ucl_enginefuncs_s@@A+268
	add	esp, 8
	fstp	DWORD PTR tv258[ebp]
	mov	eax, DWORD PTR _pos$[ebp]
	movss	xmm0, DWORD PTR tv258[ebp]
	addss	xmm0, DWORD PTR [eax+4]
	movss	DWORD PTR _src$[ebp+4], xmm0

; 2000 : 		src.m_vecOrigin.z = pos.z + RANDOM_FLOAT( -posRand, posRand );

	push	ecx
	movss	xmm0, DWORD PTR _posRand$[ebp]
	movss	DWORD PTR [esp], xmm0
	movss	xmm0, DWORD PTR _posRand$[ebp]
	xorps	xmm0, DWORD PTR __xmm@80000000800000008000000080000000
	push	ecx
	movss	DWORD PTR [esp], xmm0
	call	DWORD PTR ?gEngfuncs@@3Ucl_enginefuncs_s@@A+268
	add	esp, 8
	fstp	DWORD PTR tv268[ebp]
	mov	eax, DWORD PTR _pos$[ebp]
	movss	xmm0, DWORD PTR tv268[ebp]
	addss	xmm0, DWORD PTR [eax+8]
	movss	DWORD PTR _src$[ebp+8], xmm0

; 2001 : 		src.m_vecVelocity.x = vel.x + RANDOM_FLOAT( -velRand, velRand );

	push	ecx
	movss	xmm0, DWORD PTR _velRand$[ebp]
	movss	DWORD PTR [esp], xmm0
	movss	xmm0, DWORD PTR _velRand$[ebp]
	xorps	xmm0, DWORD PTR __xmm@80000000800000008000000080000000
	push	ecx
	movss	DWORD PTR [esp], xmm0
	call	DWORD PTR ?gEngfuncs@@3Ucl_enginefuncs_s@@A+268
	add	esp, 8
	fstp	DWORD PTR tv278[ebp]
	mov	eax, DWORD PTR _vel$[ebp]
	movss	xmm0, DWORD PTR tv278[ebp]
	addss	xmm0, DWORD PTR [eax]
	movss	DWORD PTR _src$[ebp+24], xmm0

; 2002 : 		src.m_vecVelocity.y = vel.y + RANDOM_FLOAT( -velRand, velRand );

	push	ecx
	movss	xmm0, DWORD PTR _velRand$[ebp]
	movss	DWORD PTR [esp], xmm0
	movss	xmm0, DWORD PTR _velRand$[ebp]
	xorps	xmm0, DWORD PTR __xmm@80000000800000008000000080000000
	push	ecx
	movss	DWORD PTR [esp], xmm0
	call	DWORD PTR ?gEngfuncs@@3Ucl_enginefuncs_s@@A+268
	add	esp, 8
	fstp	DWORD PTR tv288[ebp]
	mov	eax, DWORD PTR _vel$[ebp]
	movss	xmm0, DWORD PTR tv288[ebp]
	addss	xmm0, DWORD PTR [eax+4]
	movss	DWORD PTR _src$[ebp+28], xmm0

; 2003 : 		src.m_vecVelocity.z = vel.z + RANDOM_FLOAT( -velRand, velRand );

	push	ecx
	movss	xmm0, DWORD PTR _velRand$[ebp]
	movss	DWORD PTR [esp], xmm0
	movss	xmm0, DWORD PTR _velRand$[ebp]
	xorps	xmm0, DWORD PTR __xmm@80000000800000008000000080000000
	push	ecx
	movss	DWORD PTR [esp], xmm0
	call	DWORD PTR ?gEngfuncs@@3Ucl_enginefuncs_s@@A+268
	add	esp, 8
	fstp	DWORD PTR tv298[ebp]
	mov	eax, DWORD PTR _vel$[ebp]
	movss	xmm0, DWORD PTR tv298[ebp]
	addss	xmm0, DWORD PTR [eax+8]
	movss	DWORD PTR _src$[ebp+32], xmm0

; 2004 : 		src.m_vecAccel = g_vecZero;

	mov	eax, DWORD PTR ?g_vecZero@@3VVector@@B
	mov	DWORD PTR _src$[ebp+36], eax
	mov	ecx, DWORD PTR ?g_vecZero@@3VVector@@B+4
	mov	DWORD PTR _src$[ebp+40], ecx
	mov	edx, DWORD PTR ?g_vecZero@@3VVector@@B+8
	mov	DWORD PTR _src$[ebp+44], edx

; 2005 : 		src.m_vecColor = Color;

	mov	eax, DWORD PTR _Color$[ebp]
	mov	DWORD PTR _src$[ebp+48], eax
	mov	ecx, DWORD PTR _Color$[ebp+4]
	mov	DWORD PTR _src$[ebp+52], ecx
	mov	edx, DWORD PTR _Color$[ebp+8]
	mov	DWORD PTR _src$[ebp+56], edx

; 2006 : 		src.m_vecColorVelocity = g_vecZero;

	mov	eax, DWORD PTR ?g_vecZero@@3VVector@@B
	mov	DWORD PTR _src$[ebp+60], eax
	mov	ecx, DWORD PTR ?g_vecZero@@3VVector@@B+4
	mov	DWORD PTR _src$[ebp+64], ecx
	mov	edx, DWORD PTR ?g_vecZero@@3VVector@@B+8
	mov	DWORD PTR _src$[ebp+68], edx

; 2007 : 		src.m_flAlpha = Alpha;

	movss	xmm0, DWORD PTR _Alpha$[ebp]
	movss	DWORD PTR _src$[ebp+72], xmm0

; 2008 : 		src.m_flStartAlpha = 0.0f;

	xorps	xmm0, xmm0
	movss	DWORD PTR _src$[ebp+112], xmm0

; 2009 : 		src.m_flAlphaVelocity = -speed;

	movss	xmm0, DWORD PTR _speed$[ebp]
	xorps	xmm0, DWORD PTR __xmm@80000000800000008000000080000000
	movss	DWORD PTR _src$[ebp+76], xmm0

; 2010 : 		if( Particle == m_hDirt )

	mov	eax, DWORD PTR _this$[ebp]
	mov	ecx, DWORD PTR _Particle$[ebp]
	cmp	ecx, DWORD PTR [eax+2911268]
	jne	SHORT $LN11@Smoke

; 2011 : 			src.m_flAlphaVelocity *= 0.5f;

	movss	xmm0, DWORD PTR _src$[ebp+76]
	mulss	xmm0, DWORD PTR __real@3f000000
	movss	DWORD PTR _src$[ebp+76], xmm0
$LN11@Smoke:

; 2012 : 		src.m_flRadius = scale;

	movss	xmm0, DWORD PTR _scale$[ebp]
	movss	DWORD PTR _src$[ebp+80], xmm0

; 2013 : 		src.m_flRadiusVelocity = 7.0f;

	movss	xmm0, DWORD PTR __real@40e00000
	movss	DWORD PTR _src$[ebp+84], xmm0

; 2014 : 		src.m_flLength = 1;

	movss	xmm0, DWORD PTR __real@3f800000
	movss	DWORD PTR _src$[ebp+88], xmm0

; 2015 : 		src.m_flLengthVelocity = 0;

	xorps	xmm0, xmm0
	movss	DWORD PTR _src$[ebp+92], xmm0

; 2016 : 		src.m_flRotation = RANDOM_LONG( 0, 360 );

	push	360					; 00000168H
	push	0
	call	DWORD PTR ?gEngfuncs@@3Ucl_enginefuncs_s@@A+272
	add	esp, 8
	cvtsi2ss xmm0, eax
	movss	DWORD PTR _src$[ebp+96], xmm0

; 2017 : 		src.m_flRotationVelocity = 0;

	xorps	xmm0, xmm0
	movss	DWORD PTR _src$[ebp+100], xmm0

; 2018 : 		src.m_flDistance = Distance;

	movss	xmm0, DWORD PTR _Distance$[ebp]
	movss	DWORD PTR _src$[ebp+108], xmm0

; 2019 : 		src.EntIndex = EntIndex;

	mov	eax, DWORD PTR _EntIndex$[ebp]
	mov	DWORD PTR _src$[ebp+168], eax

; 2020 : 		if( Particle == m_hSmoke )

	mov	eax, DWORD PTR _this$[ebp]
	mov	ecx, DWORD PTR _Particle$[ebp]
	cmp	ecx, DWORD PTR [eax+2911252]
	jne	SHORT $LN12@Smoke

; 2021 : 			src.ParticleType = TYPE_SMOKE;

	mov	DWORD PTR _src$[ebp+144], 3
	jmp	SHORT $LN16@Smoke
$LN12@Smoke:

; 2022 : 		else if( Particle == m_hSand )

	mov	eax, DWORD PTR _this$[ebp]
	mov	ecx, DWORD PTR _Particle$[ebp]
	cmp	ecx, DWORD PTR [eax+2911264]
	jne	SHORT $LN14@Smoke

; 2023 : 			src.ParticleType = TYPE_SAND;

	mov	DWORD PTR _src$[ebp+144], 6
	jmp	SHORT $LN16@Smoke
$LN14@Smoke:

; 2024 : 		else if( Particle == m_hDirt )

	mov	eax, DWORD PTR _this$[ebp]
	mov	ecx, DWORD PTR _Particle$[ebp]
	cmp	ecx, DWORD PTR [eax+2911268]
	jne	SHORT $LN16@Smoke

; 2025 : 			src.ParticleType = TYPE_DIRT;

	mov	DWORD PTR _src$[ebp+144], 7
$LN16@Smoke:

; 2026 : 
; 2027 : 		if( !AddParticle( &src, Particle, flags ) )

	mov	eax, DWORD PTR _flags$[ebp]
	push	eax
	mov	ecx, DWORD PTR _Particle$[ebp]
	push	ecx
	lea	edx, DWORD PTR _src$[ebp]
	push	edx
	mov	ecx, DWORD PTR _this$[ebp]
	call	?AddParticle@CQuakePartSystem@@QAE_NPAVCQuakePart@@HH@Z ; CQuakePartSystem::AddParticle
	movzx	eax, al
	test	eax, eax
	jne	SHORT $LN17@Smoke

; 2028 : 			break;

	jmp	SHORT $LN5@Smoke
$LN17@Smoke:

; 2029 : 	}

	jmp	$LN4@Smoke
$LN5@Smoke:
$LN1@Smoke:

; 2030 : }

	pop	edi
	pop	esi
	pop	ebx
	mov	esp, ebp
	pop	ebp
	ret	56					; 00000038H
?Smoke@CQuakePartSystem@@QAEXHHABVVector@@0HMMMMV2@MM@Z ENDP ; CQuakePartSystem::Smoke
_TEXT	ENDS
; Function compile flags: /Odtp /ZI
; File d:\!diffusion 2020\source code 2022\client-server\client\render\r_quakeparticle.cpp
;	COMDAT ?SmokeParticles@CQuakePartSystem@@QAEXHABVVector@@HMM@Z
_TEXT	SEGMENT
tv310 = -296						; size = 4
tv390 = -292						; size = 4
tv375 = -288						; size = 4
tv366 = -288						; size = 4
tv302 = -288						; size = 4
tv280 = -288						; size = 4
tv270 = -288						; size = 4
tv260 = -288						; size = 4
$T1 = -284						; size = 12
$T2 = -272						; size = 12
$T3 = -260						; size = 12
_i$4 = -184						; size = 4
_flags$ = -180						; size = 4
_src$ = -176						; size = 172
_this$ = -4						; size = 4
_EntIndex$ = 8						; size = 4
_pos$ = 12						; size = 4
_count$ = 16						; size = 4
_speed$ = 20						; size = 4
_scale$ = 24						; size = 4
?SmokeParticles@CQuakePartSystem@@QAEXHABVVector@@HMM@Z PROC ; CQuakePartSystem::SmokeParticles, COMDAT
; _this$ = ecx

; 1928 : {

	push	ebp
	mov	ebp, esp
	sub	esp, 296				; 00000128H
	push	ebx
	push	esi
	push	edi
	mov	DWORD PTR _this$[ebp], ecx

; 1929 : 	CQuakePart src;

	lea	ecx, DWORD PTR _src$[ebp]
	call	??0CQuakePart@@QAE@XZ

; 1930 : 
; 1931 : 	if( !g_fRenderInitialized )

	cmp	DWORD PTR ?g_fRenderInitialized@@3HA, 0	; g_fRenderInitialized
	jne	SHORT $LN5@SmokeParti

; 1932 : 		return;

	jmp	$LN1@SmokeParti
$LN5@SmokeParti:

; 1933 : 
; 1934 : 	// smoke
; 1935 : 	int flags = FPART_VERTEXLIGHT;

	mov	DWORD PTR _flags$[ebp], 4

; 1936 : 
; 1937 : 	if( speed == 0 )

	movss	xmm0, DWORD PTR _speed$[ebp]
	ucomiss	xmm0, DWORD PTR __real@00000000
	lahf
	test	ah, 68					; 00000044H
	jp	SHORT $LN6@SmokeParti

; 1938 : 		speed = 0.15;

	movss	xmm0, DWORD PTR __real@3e19999a
	movss	DWORD PTR _speed$[ebp], xmm0
$LN6@SmokeParti:

; 1939 : 
; 1940 : 	if( scale == 0 )

	movss	xmm0, DWORD PTR _scale$[ebp]
	ucomiss	xmm0, DWORD PTR __real@00000000
	lahf
	test	ah, 68					; 00000044H
	jp	SHORT $LN7@SmokeParti

; 1941 : 		scale = 30;

	movss	xmm0, DWORD PTR __real@41f00000
	movss	DWORD PTR _scale$[ebp], xmm0
$LN7@SmokeParti:

; 1942 : 
; 1943 : 	for( int i = 0; i < count; i++ )

	mov	DWORD PTR _i$4[ebp], 0
	jmp	SHORT $LN4@SmokeParti
$LN2@SmokeParti:
	mov	eax, DWORD PTR _i$4[ebp]
	add	eax, 1
	mov	DWORD PTR _i$4[ebp], eax
$LN4@SmokeParti:
	mov	eax, DWORD PTR _i$4[ebp]
	cmp	eax, DWORD PTR _count$[ebp]
	jge	$LN3@SmokeParti

; 1944 : 	{
; 1945 : 		src.m_vecOrigin.x = pos.x + RANDOM_FLOAT( -10, 10 );

	push	ecx
	movss	xmm0, DWORD PTR __real@41200000
	movss	DWORD PTR [esp], xmm0
	push	ecx
	movss	xmm0, DWORD PTR __real@c1200000
	movss	DWORD PTR [esp], xmm0
	call	DWORD PTR ?gEngfuncs@@3Ucl_enginefuncs_s@@A+268
	add	esp, 8
	fstp	DWORD PTR tv260[ebp]
	mov	eax, DWORD PTR _pos$[ebp]
	movss	xmm0, DWORD PTR tv260[ebp]
	addss	xmm0, DWORD PTR [eax]
	movss	DWORD PTR _src$[ebp], xmm0

; 1946 : 		src.m_vecOrigin.y = pos.y + RANDOM_FLOAT( -10, 10 );

	push	ecx
	movss	xmm0, DWORD PTR __real@41200000
	movss	DWORD PTR [esp], xmm0
	push	ecx
	movss	xmm0, DWORD PTR __real@c1200000
	movss	DWORD PTR [esp], xmm0
	call	DWORD PTR ?gEngfuncs@@3Ucl_enginefuncs_s@@A+268
	add	esp, 8
	fstp	DWORD PTR tv270[ebp]
	mov	eax, DWORD PTR _pos$[ebp]
	movss	xmm0, DWORD PTR tv270[ebp]
	addss	xmm0, DWORD PTR [eax+4]
	movss	DWORD PTR _src$[ebp+4], xmm0

; 1947 : 		src.m_vecOrigin.z = pos.z + RANDOM_FLOAT( -10, 10 );

	push	ecx
	movss	xmm0, DWORD PTR __real@41200000
	movss	DWORD PTR [esp], xmm0
	push	ecx
	movss	xmm0, DWORD PTR __real@c1200000
	movss	DWORD PTR [esp], xmm0
	call	DWORD PTR ?gEngfuncs@@3Ucl_enginefuncs_s@@A+268
	add	esp, 8
	fstp	DWORD PTR tv280[ebp]
	mov	eax, DWORD PTR _pos$[ebp]
	movss	xmm0, DWORD PTR tv280[ebp]
	addss	xmm0, DWORD PTR [eax+8]
	movss	DWORD PTR _src$[ebp+8], xmm0

; 1948 : 		src.m_vecVelocity.x = RANDOM_FLOAT( -10, 10 );

	push	ecx
	movss	xmm0, DWORD PTR __real@41200000
	movss	DWORD PTR [esp], xmm0
	push	ecx
	movss	xmm0, DWORD PTR __real@c1200000
	movss	DWORD PTR [esp], xmm0
	call	DWORD PTR ?gEngfuncs@@3Ucl_enginefuncs_s@@A+268
	add	esp, 8
	fstp	DWORD PTR _src$[ebp+24]

; 1949 : 		src.m_vecVelocity.y = RANDOM_FLOAT( -10, 10 );

	push	ecx
	movss	xmm0, DWORD PTR __real@41200000
	movss	DWORD PTR [esp], xmm0
	push	ecx
	movss	xmm0, DWORD PTR __real@c1200000
	movss	DWORD PTR [esp], xmm0
	call	DWORD PTR ?gEngfuncs@@3Ucl_enginefuncs_s@@A+268
	add	esp, 8
	fstp	DWORD PTR _src$[ebp+28]

; 1950 : 		src.m_vecVelocity.z = RANDOM_FLOAT( -10, 10 ) + RANDOM_FLOAT( -5, 5 ) + 25;

	push	ecx
	movss	xmm0, DWORD PTR __real@41200000
	movss	DWORD PTR [esp], xmm0
	push	ecx
	movss	xmm0, DWORD PTR __real@c1200000
	movss	DWORD PTR [esp], xmm0
	call	DWORD PTR ?gEngfuncs@@3Ucl_enginefuncs_s@@A+268
	add	esp, 8
	fstp	DWORD PTR tv302[ebp]
	movss	xmm0, DWORD PTR tv302[ebp]
	push	ecx
	movss	xmm1, DWORD PTR __real@40a00000
	movss	DWORD PTR [esp], xmm1
	push	ecx
	movss	xmm1, DWORD PTR __real@c0a00000
	movss	DWORD PTR [esp], xmm1
	movss	DWORD PTR tv390[ebp], xmm0
	call	DWORD PTR ?gEngfuncs@@3Ucl_enginefuncs_s@@A+268
	add	esp, 8
	fstp	DWORD PTR tv310[ebp]
	movss	xmm0, DWORD PTR tv390[ebp]
	addss	xmm0, DWORD PTR tv310[ebp]
	addss	xmm0, DWORD PTR __real@41c80000
	movss	DWORD PTR _src$[ebp+32], xmm0

; 1951 : 		src.m_vecAccel = Vector( 0, 0, 0 );

	push	ecx
	xorps	xmm0, xmm0
	movss	DWORD PTR [esp], xmm0
	push	ecx
	xorps	xmm0, xmm0
	movss	DWORD PTR [esp], xmm0
	push	ecx
	xorps	xmm0, xmm0
	movss	DWORD PTR [esp], xmm0
	lea	ecx, DWORD PTR $T3[ebp]
	call	??0Vector@@QAE@MMM@Z			; Vector::Vector
	mov	ecx, DWORD PTR [eax]
	mov	DWORD PTR _src$[ebp+36], ecx
	mov	edx, DWORD PTR [eax+4]
	mov	DWORD PTR _src$[ebp+40], edx
	mov	eax, DWORD PTR [eax+8]
	mov	DWORD PTR _src$[ebp+44], eax

; 1952 : 		src.m_vecColor = Vector( 0, 0, 0 );

	push	ecx
	xorps	xmm0, xmm0
	movss	DWORD PTR [esp], xmm0
	push	ecx
	xorps	xmm0, xmm0
	movss	DWORD PTR [esp], xmm0
	push	ecx
	xorps	xmm0, xmm0
	movss	DWORD PTR [esp], xmm0
	lea	ecx, DWORD PTR $T2[ebp]
	call	??0Vector@@QAE@MMM@Z			; Vector::Vector
	mov	ecx, DWORD PTR [eax]
	mov	DWORD PTR _src$[ebp+48], ecx
	mov	edx, DWORD PTR [eax+4]
	mov	DWORD PTR _src$[ebp+52], edx
	mov	eax, DWORD PTR [eax+8]
	mov	DWORD PTR _src$[ebp+56], eax

; 1953 : 		src.m_vecColorVelocity = Vector( 0.75, 0.75, 0.75 );

	push	ecx
	movss	xmm0, DWORD PTR __real@3f400000
	movss	DWORD PTR [esp], xmm0
	push	ecx
	movss	xmm0, DWORD PTR __real@3f400000
	movss	DWORD PTR [esp], xmm0
	push	ecx
	movss	xmm0, DWORD PTR __real@3f400000
	movss	DWORD PTR [esp], xmm0
	lea	ecx, DWORD PTR $T1[ebp]
	call	??0Vector@@QAE@MMM@Z			; Vector::Vector
	mov	ecx, DWORD PTR [eax]
	mov	DWORD PTR _src$[ebp+60], ecx
	mov	edx, DWORD PTR [eax+4]
	mov	DWORD PTR _src$[ebp+64], edx
	mov	eax, DWORD PTR [eax+8]
	mov	DWORD PTR _src$[ebp+68], eax

; 1954 : 		src.m_flAlpha = 0.5;

	movss	xmm0, DWORD PTR __real@3f000000
	movss	DWORD PTR _src$[ebp+72], xmm0

; 1955 : 		src.m_flStartAlpha = 0.0f;

	xorps	xmm0, xmm0
	movss	DWORD PTR _src$[ebp+112], xmm0

; 1956 : 		src.m_flAlphaVelocity = -speed;

	movss	xmm0, DWORD PTR _speed$[ebp]
	xorps	xmm0, DWORD PTR __xmm@80000000800000008000000080000000
	movss	DWORD PTR _src$[ebp+76], xmm0

; 1957 : 		src.m_flRadius = scale + RANDOM_FLOAT( -scale/2, scale/2 );

	movss	xmm0, DWORD PTR _scale$[ebp]
	divss	xmm0, DWORD PTR __real@40000000
	push	ecx
	movss	DWORD PTR [esp], xmm0
	movss	xmm0, DWORD PTR _scale$[ebp]
	xorps	xmm0, DWORD PTR __xmm@80000000800000008000000080000000
	divss	xmm0, DWORD PTR __real@40000000
	push	ecx
	movss	DWORD PTR [esp], xmm0
	call	DWORD PTR ?gEngfuncs@@3Ucl_enginefuncs_s@@A+268
	add	esp, 8
	fstp	DWORD PTR tv366[ebp]
	movss	xmm0, DWORD PTR tv366[ebp]
	addss	xmm0, DWORD PTR _scale$[ebp]
	movss	DWORD PTR _src$[ebp+80], xmm0

; 1958 : 		src.m_flRadiusVelocity = 15 + RANDOM_FLOAT( -7.5, 7.5 );

	push	ecx
	movss	xmm0, DWORD PTR __real@40f00000
	movss	DWORD PTR [esp], xmm0
	push	ecx
	movss	xmm0, DWORD PTR __real@c0f00000
	movss	DWORD PTR [esp], xmm0
	call	DWORD PTR ?gEngfuncs@@3Ucl_enginefuncs_s@@A+268
	add	esp, 8
	fstp	DWORD PTR tv375[ebp]
	movss	xmm0, DWORD PTR tv375[ebp]
	addss	xmm0, DWORD PTR __real@41700000
	movss	DWORD PTR _src$[ebp+84], xmm0

; 1959 : 		src.m_flLength = 1;

	movss	xmm0, DWORD PTR __real@3f800000
	movss	DWORD PTR _src$[ebp+88], xmm0

; 1960 : 		src.m_flLengthVelocity = 0;

	xorps	xmm0, xmm0
	movss	DWORD PTR _src$[ebp+92], xmm0

; 1961 : 		src.m_flRotation = RANDOM_LONG( 0, 360 );

	push	360					; 00000168H
	push	0
	call	DWORD PTR ?gEngfuncs@@3Ucl_enginefuncs_s@@A+272
	add	esp, 8
	cvtsi2ss xmm0, eax
	movss	DWORD PTR _src$[ebp+96], xmm0

; 1962 : 		src.m_flRotationVelocity = 0;

	xorps	xmm0, xmm0
	movss	DWORD PTR _src$[ebp+100], xmm0

; 1963 : 		src.m_flDistance = 0;

	xorps	xmm0, xmm0
	movss	DWORD PTR _src$[ebp+108], xmm0

; 1964 : 		src.ParticleType = TYPE_SMOKE;

	mov	DWORD PTR _src$[ebp+144], 3

; 1965 : 		src.EntIndex = EntIndex;

	mov	eax, DWORD PTR _EntIndex$[ebp]
	mov	DWORD PTR _src$[ebp+168], eax

; 1966 : 
; 1967 : 		if( !AddParticle( &src, m_hSmoke, flags ))

	mov	eax, DWORD PTR _flags$[ebp]
	push	eax
	mov	ecx, DWORD PTR _this$[ebp]
	mov	edx, DWORD PTR [ecx+2911252]
	push	edx
	lea	eax, DWORD PTR _src$[ebp]
	push	eax
	mov	ecx, DWORD PTR _this$[ebp]
	call	?AddParticle@CQuakePartSystem@@QAE_NPAVCQuakePart@@HH@Z ; CQuakePartSystem::AddParticle
	movzx	ecx, al
	test	ecx, ecx
	jne	SHORT $LN8@SmokeParti

; 1968 : 			break;

	jmp	SHORT $LN3@SmokeParti
$LN8@SmokeParti:

; 1969 : 	}

	jmp	$LN2@SmokeParti
$LN3@SmokeParti:
$LN1@SmokeParti:

; 1970 : }

	pop	edi
	pop	esi
	pop	ebx
	mov	esp, ebp
	pop	ebp
	ret	20					; 00000014H
?SmokeParticles@CQuakePartSystem@@QAEXHABVVector@@HMM@Z ENDP ; CQuakePartSystem::SmokeParticles
_TEXT	ENDS
; Function compile flags: /Odtp /ZI
; File d:\!diffusion 2020\source code 2022\client-server\client\render\r_quakeparticle.cpp
;	COMDAT ?RicochetSparks@CQuakePartSystem@@QAEXHABVVector@@M@Z
_TEXT	SEGMENT
tv361 = -276						; size = 4
tv352 = -276						; size = 4
tv342 = -276						; size = 4
tv300 = -276						; size = 4
tv271 = -276						; size = 4
tv260 = -276						; size = 4
tv217 = -276						; size = 4
$T1 = -272						; size = 12
$T2 = -260						; size = 12
_i$3 = -184						; size = 4
_flags$ = -180						; size = 4
_src$ = -176						; size = 172
_this$ = -4						; size = 4
_EntIndex$ = 8						; size = 4
_org$ = 12						; size = 4
_scale$ = 16						; size = 4
?RicochetSparks@CQuakePartSystem@@QAEXHABVVector@@M@Z PROC ; CQuakePartSystem::RicochetSparks, COMDAT
; _this$ = ecx

; 1887 : {

	push	ebp
	mov	ebp, esp
	sub	esp, 276				; 00000114H
	push	ebx
	push	esi
	push	edi
	mov	DWORD PTR _this$[ebp], ecx

; 1888 : 	CQuakePart src;

	lea	ecx, DWORD PTR _src$[ebp]
	call	??0CQuakePart@@QAE@XZ

; 1889 : 
; 1890 : 	if( !g_fRenderInitialized )

	cmp	DWORD PTR ?g_fRenderInitialized@@3HA, 0	; g_fRenderInitialized
	jne	SHORT $LN5@RicochetSp

; 1891 : 		return;

	jmp	$LN1@RicochetSp
$LN5@RicochetSp:

; 1892 : 
; 1893 : 	// sparks
; 1894 : 	int flags = (FPART_STRETCH|FPART_BOUNCE|FPART_FRICTION);

	mov	DWORD PTR _flags$[ebp], 11		; 0000000bH

; 1895 : 
; 1896 : 	for( int i = 0; i < 16; i++ )

	mov	DWORD PTR _i$3[ebp], 0
	jmp	SHORT $LN4@RicochetSp
$LN2@RicochetSp:
	mov	eax, DWORD PTR _i$3[ebp]
	add	eax, 1
	mov	DWORD PTR _i$3[ebp], eax
$LN4@RicochetSp:
	cmp	DWORD PTR _i$3[ebp], 16			; 00000010H
	jge	$LN3@RicochetSp

; 1897 : 	{
; 1898 : 		src.m_vecOrigin.x = org[0] + RANDOM_FLOAT( -1, 1 );

	mov	ecx, DWORD PTR _org$[ebp]
	call	??BVector@@QBEPBMXZ			; Vector::operator float const *
	mov	esi, eax
	mov	eax, 4
	imul	edi, eax, 0
	push	ecx
	movss	xmm0, DWORD PTR __real@3f800000
	movss	DWORD PTR [esp], xmm0
	push	ecx
	movss	xmm0, DWORD PTR __real@bf800000
	movss	DWORD PTR [esp], xmm0
	call	DWORD PTR ?gEngfuncs@@3Ucl_enginefuncs_s@@A+268
	add	esp, 8
	fstp	DWORD PTR tv217[ebp]
	movss	xmm0, DWORD PTR tv217[ebp]
	addss	xmm0, DWORD PTR [esi+edi]
	movss	DWORD PTR _src$[ebp], xmm0

; 1899 : 		src.m_vecOrigin.y = org[1] + RANDOM_FLOAT( -1, 1 );

	mov	ecx, DWORD PTR _org$[ebp]
	call	??BVector@@QBEPBMXZ			; Vector::operator float const *
	mov	esi, eax
	mov	edi, 4
	shl	edi, 0
	push	ecx
	movss	xmm0, DWORD PTR __real@3f800000
	movss	DWORD PTR [esp], xmm0
	push	ecx
	movss	xmm0, DWORD PTR __real@bf800000
	movss	DWORD PTR [esp], xmm0
	call	DWORD PTR ?gEngfuncs@@3Ucl_enginefuncs_s@@A+268
	add	esp, 8
	fstp	DWORD PTR tv260[ebp]
	movss	xmm0, DWORD PTR tv260[ebp]
	addss	xmm0, DWORD PTR [esi+edi]
	movss	DWORD PTR _src$[ebp+4], xmm0

; 1900 : 		src.m_vecOrigin.z = org[2] + RANDOM_FLOAT( -1, 1 );

	mov	ecx, DWORD PTR _org$[ebp]
	call	??BVector@@QBEPBMXZ			; Vector::operator float const *
	mov	esi, eax
	mov	edi, 4
	shl	edi, 1
	push	ecx
	movss	xmm0, DWORD PTR __real@3f800000
	movss	DWORD PTR [esp], xmm0
	push	ecx
	movss	xmm0, DWORD PTR __real@bf800000
	movss	DWORD PTR [esp], xmm0
	call	DWORD PTR ?gEngfuncs@@3Ucl_enginefuncs_s@@A+268
	add	esp, 8
	fstp	DWORD PTR tv271[ebp]
	movss	xmm0, DWORD PTR tv271[ebp]
	addss	xmm0, DWORD PTR [esi+edi]
	movss	DWORD PTR _src$[ebp+8], xmm0

; 1901 : 		src.m_vecVelocity.x = RANDOM_FLOAT( -60, 60 );

	push	ecx
	movss	xmm0, DWORD PTR __real@42700000
	movss	DWORD PTR [esp], xmm0
	push	ecx
	movss	xmm0, DWORD PTR __real@c2700000
	movss	DWORD PTR [esp], xmm0
	call	DWORD PTR ?gEngfuncs@@3Ucl_enginefuncs_s@@A+268
	add	esp, 8
	fstp	DWORD PTR _src$[ebp+24]

; 1902 : 		src.m_vecVelocity.y = RANDOM_FLOAT( -60, 60 );

	push	ecx
	movss	xmm0, DWORD PTR __real@42700000
	movss	DWORD PTR [esp], xmm0
	push	ecx
	movss	xmm0, DWORD PTR __real@c2700000
	movss	DWORD PTR [esp], xmm0
	call	DWORD PTR ?gEngfuncs@@3Ucl_enginefuncs_s@@A+268
	add	esp, 8
	fstp	DWORD PTR _src$[ebp+28]

; 1903 : 		src.m_vecVelocity.z = RANDOM_FLOAT( -60, 60 );

	push	ecx
	movss	xmm0, DWORD PTR __real@42700000
	movss	DWORD PTR [esp], xmm0
	push	ecx
	movss	xmm0, DWORD PTR __real@c2700000
	movss	DWORD PTR [esp], xmm0
	call	DWORD PTR ?gEngfuncs@@3Ucl_enginefuncs_s@@A+268
	add	esp, 8
	fstp	DWORD PTR _src$[ebp+32]

; 1904 : 		src.m_vecAccel.x = src.m_vecAccel.y = 0;

	xorps	xmm0, xmm0
	movss	DWORD PTR _src$[ebp+40], xmm0
	movss	xmm0, DWORD PTR _src$[ebp+40]
	movss	DWORD PTR _src$[ebp+36], xmm0

; 1905 : 		src.m_vecAccel.z = -120 + RANDOM_FLOAT( -60, 60 );

	push	ecx
	movss	xmm0, DWORD PTR __real@42700000
	movss	DWORD PTR [esp], xmm0
	push	ecx
	movss	xmm0, DWORD PTR __real@c2700000
	movss	DWORD PTR [esp], xmm0
	call	DWORD PTR ?gEngfuncs@@3Ucl_enginefuncs_s@@A+268
	add	esp, 8
	fstp	DWORD PTR tv300[ebp]
	movss	xmm0, DWORD PTR tv300[ebp]
	addss	xmm0, DWORD PTR __real@c2f00000
	movss	DWORD PTR _src$[ebp+44], xmm0

; 1906 : 		src.m_vecColor = Vector( 1.0, 1.0f, 1.0f );

	push	ecx
	movss	xmm0, DWORD PTR __real@3f800000
	movss	DWORD PTR [esp], xmm0
	push	ecx
	movss	xmm0, DWORD PTR __real@3f800000
	movss	DWORD PTR [esp], xmm0
	push	ecx
	movss	xmm0, DWORD PTR __real@3f800000
	movss	DWORD PTR [esp], xmm0
	lea	ecx, DWORD PTR $T2[ebp]
	call	??0Vector@@QAE@MMM@Z			; Vector::Vector
	mov	ecx, DWORD PTR [eax]
	mov	DWORD PTR _src$[ebp+48], ecx
	mov	edx, DWORD PTR [eax+4]
	mov	DWORD PTR _src$[ebp+52], edx
	mov	eax, DWORD PTR [eax+8]
	mov	DWORD PTR _src$[ebp+56], eax

; 1907 : 		src.m_vecColorVelocity = Vector( 0, 0, 0 );

	push	ecx
	xorps	xmm0, xmm0
	movss	DWORD PTR [esp], xmm0
	push	ecx
	xorps	xmm0, xmm0
	movss	DWORD PTR [esp], xmm0
	push	ecx
	xorps	xmm0, xmm0
	movss	DWORD PTR [esp], xmm0
	lea	ecx, DWORD PTR $T1[ebp]
	call	??0Vector@@QAE@MMM@Z			; Vector::Vector
	mov	ecx, DWORD PTR [eax]
	mov	DWORD PTR _src$[ebp+60], ecx
	mov	edx, DWORD PTR [eax+4]
	mov	DWORD PTR _src$[ebp+64], edx
	mov	eax, DWORD PTR [eax+8]
	mov	DWORD PTR _src$[ebp+68], eax

; 1908 : 		src.m_flAlpha = 1.0;

	movss	xmm0, DWORD PTR __real@3f800000
	movss	DWORD PTR _src$[ebp+72], xmm0

; 1909 : 		src.m_flStartAlpha = 0.0f;

	xorps	xmm0, xmm0
	movss	DWORD PTR _src$[ebp+112], xmm0

; 1910 : 		src.m_flAlphaVelocity = -8.0;

	movss	xmm0, DWORD PTR __real@c1000000
	movss	DWORD PTR _src$[ebp+76], xmm0

; 1911 : 		src.m_flRadius = scale + RANDOM_FLOAT( -0.2, 0.2 );

	push	ecx
	movss	xmm0, DWORD PTR __real@3e4ccccd
	movss	DWORD PTR [esp], xmm0
	push	ecx
	movss	xmm0, DWORD PTR __real@be4ccccd
	movss	DWORD PTR [esp], xmm0
	call	DWORD PTR ?gEngfuncs@@3Ucl_enginefuncs_s@@A+268
	add	esp, 8
	fstp	DWORD PTR tv342[ebp]
	movss	xmm0, DWORD PTR tv342[ebp]
	addss	xmm0, DWORD PTR _scale$[ebp]
	movss	DWORD PTR _src$[ebp+80], xmm0

; 1912 : 		src.m_flRadiusVelocity = 0;

	xorps	xmm0, xmm0
	movss	DWORD PTR _src$[ebp+84], xmm0

; 1913 : 		src.m_flLength = scale + RANDOM_FLOAT( -0.2, 0.2 );

	push	ecx
	movss	xmm0, DWORD PTR __real@3e4ccccd
	movss	DWORD PTR [esp], xmm0
	push	ecx
	movss	xmm0, DWORD PTR __real@be4ccccd
	movss	DWORD PTR [esp], xmm0
	call	DWORD PTR ?gEngfuncs@@3Ucl_enginefuncs_s@@A+268
	add	esp, 8
	fstp	DWORD PTR tv352[ebp]
	movss	xmm0, DWORD PTR tv352[ebp]
	addss	xmm0, DWORD PTR _scale$[ebp]
	movss	DWORD PTR _src$[ebp+88], xmm0

; 1914 : 		src.m_flLengthVelocity = scale + RANDOM_FLOAT( -0.2, 0.2 );

	push	ecx
	movss	xmm0, DWORD PTR __real@3e4ccccd
	movss	DWORD PTR [esp], xmm0
	push	ecx
	movss	xmm0, DWORD PTR __real@be4ccccd
	movss	DWORD PTR [esp], xmm0
	call	DWORD PTR ?gEngfuncs@@3Ucl_enginefuncs_s@@A+268
	add	esp, 8
	fstp	DWORD PTR tv361[ebp]
	movss	xmm0, DWORD PTR tv361[ebp]
	addss	xmm0, DWORD PTR _scale$[ebp]
	movss	DWORD PTR _src$[ebp+92], xmm0

; 1915 : 		src.m_flRotation = 0;

	xorps	xmm0, xmm0
	movss	DWORD PTR _src$[ebp+96], xmm0

; 1916 : 		src.m_flRotationVelocity = 0;

	xorps	xmm0, xmm0
	movss	DWORD PTR _src$[ebp+100], xmm0

; 1917 : 		src.m_flBounceFactor = 0.2;

	movss	xmm0, DWORD PTR __real@3e4ccccd
	movss	DWORD PTR _src$[ebp+104], xmm0

; 1918 : 		src.m_flDistance = 0;

	xorps	xmm0, xmm0
	movss	DWORD PTR _src$[ebp+108], xmm0

; 1919 : 		src.ParticleType = TYPE_SPARKS;

	mov	DWORD PTR _src$[ebp+144], 2

; 1920 : 		src.EntIndex = EntIndex;

	mov	eax, DWORD PTR _EntIndex$[ebp]
	mov	DWORD PTR _src$[ebp+168], eax

; 1921 : 
; 1922 : 		if( !AddParticle( &src, m_hSparks, flags ))

	mov	eax, DWORD PTR _flags$[ebp]
	push	eax
	mov	ecx, DWORD PTR _this$[ebp]
	mov	edx, DWORD PTR [ecx+2911248]
	push	edx
	lea	eax, DWORD PTR _src$[ebp]
	push	eax
	mov	ecx, DWORD PTR _this$[ebp]
	call	?AddParticle@CQuakePartSystem@@QAE_NPAVCQuakePart@@HH@Z ; CQuakePartSystem::AddParticle
	movzx	ecx, al
	test	ecx, ecx
	jne	SHORT $LN6@RicochetSp

; 1923 : 			break;

	jmp	SHORT $LN3@RicochetSp
$LN6@RicochetSp:

; 1924 : 	}

	jmp	$LN2@RicochetSp
$LN3@RicochetSp:
$LN1@RicochetSp:

; 1925 : }

	pop	edi
	pop	esi
	pop	ebx
	mov	esp, ebp
	pop	ebp
	ret	12					; 0000000cH
?RicochetSparks@CQuakePartSystem@@QAEXHABVVector@@M@Z ENDP ; CQuakePartSystem::RicochetSparks
_TEXT	ENDS
; Function compile flags: /Odtp /ZI
; File d:\!diffusion 2020\source code 2022\client-server\client\render\r_quakeparticle.cpp
;	COMDAT ?SparkParticles@CQuakePartSystem@@QAEXHABVVector@@0@Z
_TEXT	SEGMENT
tv408 = -280						; size = 8
tv355 = -280						; size = 4
tv344 = -280						; size = 4
tv333 = -280						; size = 4
tv322 = -280						; size = 4
tv308 = -280						; size = 4
tv294 = -280						; size = 4
tv483 = -276						; size = 4
tv481 = -276						; size = 4
tv447 = -276						; size = 4
tv445 = -276						; size = 4
tv443 = -276						; size = 4
tv441 = -276						; size = 4
tv427 = -276						; size = 4
tv418 = -276						; size = 4
tv365 = -276						; size = 4
$T1 = -272						; size = 12
$T2 = -260						; size = 12
_i$3 = -184						; size = 4
_flags$ = -180						; size = 4
_src$ = -176						; size = 172
_this$ = -4						; size = 4
_EntIndex$ = 8						; size = 4
_org$ = 12						; size = 4
_dir$ = 16						; size = 4
?SparkParticles@CQuakePartSystem@@QAEXHABVVector@@0@Z PROC ; CQuakePartSystem::SparkParticles, COMDAT
; _this$ = ecx

; 1841 : {

	push	ebp
	mov	ebp, esp
	sub	esp, 280				; 00000118H
	push	ebx
	push	esi
	push	edi
	mov	DWORD PTR _this$[ebp], ecx

; 1842 : 	CQuakePart src;

	lea	ecx, DWORD PTR _src$[ebp]
	call	??0CQuakePart@@QAE@XZ

; 1843 : 
; 1844 : 	if( !g_fRenderInitialized )

	cmp	DWORD PTR ?g_fRenderInitialized@@3HA, 0	; g_fRenderInitialized
	jne	SHORT $LN5@SparkParti

; 1845 : 		return;

	jmp	$LN1@SparkParti
$LN5@SparkParti:

; 1846 : 
; 1847 : 	// sparks
; 1848 : 	int flags = (FPART_STRETCH|FPART_BOUNCE|FPART_FRICTION);

	mov	DWORD PTR _flags$[ebp], 11		; 0000000bH

; 1849 : 
; 1850 : 	for( int i = 0; i < 16; i++ )

	mov	DWORD PTR _i$3[ebp], 0
	jmp	SHORT $LN4@SparkParti
$LN2@SparkParti:
	mov	eax, DWORD PTR _i$3[ebp]
	add	eax, 1
	mov	DWORD PTR _i$3[ebp], eax
$LN4@SparkParti:
	cmp	DWORD PTR _i$3[ebp], 16			; 00000010H
	jge	$LN3@SparkParti

; 1851 : 	{
; 1852 : 		src.m_vecOrigin.x = org[0] + dir[0] * 2 + RANDOM_FLOAT( -1, 1 );

	mov	ecx, DWORD PTR _org$[ebp]
	call	??BVector@@QBEPBMXZ			; Vector::operator float const *
	mov	esi, eax
	mov	eax, 4
	imul	edi, eax, 0
	mov	ecx, DWORD PTR _dir$[ebp]
	call	??BVector@@QBEPBMXZ			; Vector::operator float const *
	mov	ecx, 4
	imul	edx, ecx, 0
	movss	xmm0, DWORD PTR [eax+edx]
	mulss	xmm0, DWORD PTR __real@40000000
	addss	xmm0, DWORD PTR [esi+edi]
	push	ecx
	movss	xmm1, DWORD PTR __real@3f800000
	movss	DWORD PTR [esp], xmm1
	push	ecx
	movss	xmm1, DWORD PTR __real@bf800000
	movss	DWORD PTR [esp], xmm1
	movss	DWORD PTR tv441[ebp], xmm0
	call	DWORD PTR ?gEngfuncs@@3Ucl_enginefuncs_s@@A+268
	add	esp, 8
	fstp	DWORD PTR tv294[ebp]
	movss	xmm0, DWORD PTR tv441[ebp]
	addss	xmm0, DWORD PTR tv294[ebp]
	movss	DWORD PTR _src$[ebp], xmm0

; 1853 : 		src.m_vecOrigin.y = org[1] + dir[1] * 2 + RANDOM_FLOAT( -1, 1 );

	mov	ecx, DWORD PTR _org$[ebp]
	call	??BVector@@QBEPBMXZ			; Vector::operator float const *
	mov	esi, eax
	mov	edi, 4
	shl	edi, 0
	mov	ecx, DWORD PTR _dir$[ebp]
	call	??BVector@@QBEPBMXZ			; Vector::operator float const *
	mov	ecx, 4
	shl	ecx, 0
	movss	xmm0, DWORD PTR [eax+ecx]
	mulss	xmm0, DWORD PTR __real@40000000
	addss	xmm0, DWORD PTR [esi+edi]
	push	ecx
	movss	xmm1, DWORD PTR __real@3f800000
	movss	DWORD PTR [esp], xmm1
	push	ecx
	movss	xmm1, DWORD PTR __real@bf800000
	movss	DWORD PTR [esp], xmm1
	movss	DWORD PTR tv443[ebp], xmm0
	call	DWORD PTR ?gEngfuncs@@3Ucl_enginefuncs_s@@A+268
	add	esp, 8
	fstp	DWORD PTR tv308[ebp]
	movss	xmm0, DWORD PTR tv443[ebp]
	addss	xmm0, DWORD PTR tv308[ebp]
	movss	DWORD PTR _src$[ebp+4], xmm0

; 1854 : 		src.m_vecOrigin.z = org[2] + dir[2] * 2 + RANDOM_FLOAT( -1, 1 );

	mov	ecx, DWORD PTR _org$[ebp]
	call	??BVector@@QBEPBMXZ			; Vector::operator float const *
	mov	esi, eax
	mov	edi, 4
	shl	edi, 1
	mov	ecx, DWORD PTR _dir$[ebp]
	call	??BVector@@QBEPBMXZ			; Vector::operator float const *
	mov	ecx, 4
	shl	ecx, 1
	movss	xmm0, DWORD PTR [eax+ecx]
	mulss	xmm0, DWORD PTR __real@40000000
	addss	xmm0, DWORD PTR [esi+edi]
	push	ecx
	movss	xmm1, DWORD PTR __real@3f800000
	movss	DWORD PTR [esp], xmm1
	push	ecx
	movss	xmm1, DWORD PTR __real@bf800000
	movss	DWORD PTR [esp], xmm1
	movss	DWORD PTR tv445[ebp], xmm0
	call	DWORD PTR ?gEngfuncs@@3Ucl_enginefuncs_s@@A+268
	add	esp, 8
	fstp	DWORD PTR tv322[ebp]
	movss	xmm0, DWORD PTR tv445[ebp]
	addss	xmm0, DWORD PTR tv322[ebp]
	movss	DWORD PTR _src$[ebp+8], xmm0

; 1855 : 		src.m_vecVelocity.x = dir[0] * 180 + RANDOM_FLOAT( -60, 60 );

	mov	ecx, DWORD PTR _dir$[ebp]
	call	??BVector@@QBEPBMXZ			; Vector::operator float const *
	mov	ecx, 4
	imul	edx, ecx, 0
	movss	xmm0, DWORD PTR [eax+edx]
	mulss	xmm0, DWORD PTR __real@43340000
	push	ecx
	movss	xmm1, DWORD PTR __real@42700000
	movss	DWORD PTR [esp], xmm1
	push	ecx
	movss	xmm1, DWORD PTR __real@c2700000
	movss	DWORD PTR [esp], xmm1
	movss	DWORD PTR tv447[ebp], xmm0
	call	DWORD PTR ?gEngfuncs@@3Ucl_enginefuncs_s@@A+268
	add	esp, 8
	fstp	DWORD PTR tv333[ebp]
	movss	xmm0, DWORD PTR tv447[ebp]
	addss	xmm0, DWORD PTR tv333[ebp]
	movss	DWORD PTR _src$[ebp+24], xmm0

; 1856 : 		src.m_vecVelocity.y = dir[1] * 180 + RANDOM_FLOAT( -60, 60 );

	mov	ecx, DWORD PTR _dir$[ebp]
	call	??BVector@@QBEPBMXZ			; Vector::operator float const *
	mov	ecx, 4
	shl	ecx, 0
	movss	xmm0, DWORD PTR [eax+ecx]
	mulss	xmm0, DWORD PTR __real@43340000
	push	ecx
	movss	xmm1, DWORD PTR __real@42700000
	movss	DWORD PTR [esp], xmm1
	push	ecx
	movss	xmm1, DWORD PTR __real@c2700000
	movss	DWORD PTR [esp], xmm1
	movss	DWORD PTR tv481[ebp], xmm0
	call	DWORD PTR ?gEngfuncs@@3Ucl_enginefuncs_s@@A+268
	add	esp, 8
	fstp	DWORD PTR tv344[ebp]
	movss	xmm0, DWORD PTR tv481[ebp]
	addss	xmm0, DWORD PTR tv344[ebp]
	movss	DWORD PTR _src$[ebp+28], xmm0

; 1857 : 		src.m_vecVelocity.z = dir[2] * 180 + RANDOM_FLOAT( -60, 60 );

	mov	ecx, DWORD PTR _dir$[ebp]
	call	??BVector@@QBEPBMXZ			; Vector::operator float const *
	mov	ecx, 4
	shl	ecx, 1
	movss	xmm0, DWORD PTR [eax+ecx]
	mulss	xmm0, DWORD PTR __real@43340000
	push	ecx
	movss	xmm1, DWORD PTR __real@42700000
	movss	DWORD PTR [esp], xmm1
	push	ecx
	movss	xmm1, DWORD PTR __real@c2700000
	movss	DWORD PTR [esp], xmm1
	movss	DWORD PTR tv483[ebp], xmm0
	call	DWORD PTR ?gEngfuncs@@3Ucl_enginefuncs_s@@A+268
	add	esp, 8
	fstp	DWORD PTR tv355[ebp]
	movss	xmm0, DWORD PTR tv483[ebp]
	addss	xmm0, DWORD PTR tv355[ebp]
	movss	DWORD PTR _src$[ebp+32], xmm0

; 1858 : 		src.m_vecAccel.x = src.m_vecAccel.y = 0;

	xorps	xmm0, xmm0
	movss	DWORD PTR _src$[ebp+40], xmm0
	movss	xmm0, DWORD PTR _src$[ebp+40]
	movss	DWORD PTR _src$[ebp+36], xmm0

; 1859 : 		src.m_vecAccel.z = -120 + RANDOM_FLOAT( -60, 60 );

	push	ecx
	movss	xmm0, DWORD PTR __real@42700000
	movss	DWORD PTR [esp], xmm0
	push	ecx
	movss	xmm0, DWORD PTR __real@c2700000
	movss	DWORD PTR [esp], xmm0
	call	DWORD PTR ?gEngfuncs@@3Ucl_enginefuncs_s@@A+268
	add	esp, 8
	fstp	DWORD PTR tv365[ebp]
	movss	xmm0, DWORD PTR tv365[ebp]
	addss	xmm0, DWORD PTR __real@c2f00000
	movss	DWORD PTR _src$[ebp+44], xmm0

; 1860 : 		src.m_vecColor = Vector( 1.0, 1.0f, 1.0f );

	push	ecx
	movss	xmm0, DWORD PTR __real@3f800000
	movss	DWORD PTR [esp], xmm0
	push	ecx
	movss	xmm0, DWORD PTR __real@3f800000
	movss	DWORD PTR [esp], xmm0
	push	ecx
	movss	xmm0, DWORD PTR __real@3f800000
	movss	DWORD PTR [esp], xmm0
	lea	ecx, DWORD PTR $T2[ebp]
	call	??0Vector@@QAE@MMM@Z			; Vector::Vector
	mov	ecx, DWORD PTR [eax]
	mov	DWORD PTR _src$[ebp+48], ecx
	mov	edx, DWORD PTR [eax+4]
	mov	DWORD PTR _src$[ebp+52], edx
	mov	eax, DWORD PTR [eax+8]
	mov	DWORD PTR _src$[ebp+56], eax

; 1861 : 		src.m_vecColorVelocity = Vector( 0, 0, 0 );

	push	ecx
	xorps	xmm0, xmm0
	movss	DWORD PTR [esp], xmm0
	push	ecx
	xorps	xmm0, xmm0
	movss	DWORD PTR [esp], xmm0
	push	ecx
	xorps	xmm0, xmm0
	movss	DWORD PTR [esp], xmm0
	lea	ecx, DWORD PTR $T1[ebp]
	call	??0Vector@@QAE@MMM@Z			; Vector::Vector
	mov	ecx, DWORD PTR [eax]
	mov	DWORD PTR _src$[ebp+60], ecx
	mov	edx, DWORD PTR [eax+4]
	mov	DWORD PTR _src$[ebp+64], edx
	mov	eax, DWORD PTR [eax+8]
	mov	DWORD PTR _src$[ebp+68], eax

; 1862 : 		src.m_flAlpha = 1.0;

	movss	xmm0, DWORD PTR __real@3f800000
	movss	DWORD PTR _src$[ebp+72], xmm0

; 1863 : 		src.m_flStartAlpha = 0.0f;

	xorps	xmm0, xmm0
	movss	DWORD PTR _src$[ebp+112], xmm0

; 1864 : 		src.m_flAlphaVelocity = -8.0;

	movss	xmm0, DWORD PTR __real@c1000000
	movss	DWORD PTR _src$[ebp+76], xmm0

; 1865 : 		src.m_flRadius = 0.4 + RANDOM_FLOAT( -0.2, 0.2 );

	push	ecx
	movss	xmm0, DWORD PTR __real@3e4ccccd
	movss	DWORD PTR [esp], xmm0
	push	ecx
	movss	xmm0, DWORD PTR __real@be4ccccd
	movss	DWORD PTR [esp], xmm0
	call	DWORD PTR ?gEngfuncs@@3Ucl_enginefuncs_s@@A+268
	add	esp, 8
	fstp	QWORD PTR tv408[ebp]
	movsd	xmm0, QWORD PTR tv408[ebp]
	addsd	xmm0, QWORD PTR __real@3fd999999999999a
	cvtsd2ss xmm0, xmm0
	movss	DWORD PTR _src$[ebp+80], xmm0

; 1866 : 		src.m_flRadiusVelocity = 0;

	xorps	xmm0, xmm0
	movss	DWORD PTR _src$[ebp+84], xmm0

; 1867 : 		src.m_flLength = 8 + RANDOM_FLOAT( -4, 4 );

	push	ecx
	movss	xmm0, DWORD PTR __real@40800000
	movss	DWORD PTR [esp], xmm0
	push	ecx
	movss	xmm0, DWORD PTR __real@c0800000
	movss	DWORD PTR [esp], xmm0
	call	DWORD PTR ?gEngfuncs@@3Ucl_enginefuncs_s@@A+268
	add	esp, 8
	fstp	DWORD PTR tv418[ebp]
	movss	xmm0, DWORD PTR tv418[ebp]
	addss	xmm0, DWORD PTR __real@41000000
	movss	DWORD PTR _src$[ebp+88], xmm0

; 1868 : 		src.m_flLengthVelocity = 8 + RANDOM_FLOAT( -4, 4 );

	push	ecx
	movss	xmm0, DWORD PTR __real@40800000
	movss	DWORD PTR [esp], xmm0
	push	ecx
	movss	xmm0, DWORD PTR __real@c0800000
	movss	DWORD PTR [esp], xmm0
	call	DWORD PTR ?gEngfuncs@@3Ucl_enginefuncs_s@@A+268
	add	esp, 8
	fstp	DWORD PTR tv427[ebp]
	movss	xmm0, DWORD PTR tv427[ebp]
	addss	xmm0, DWORD PTR __real@41000000
	movss	DWORD PTR _src$[ebp+92], xmm0

; 1869 : 		src.m_flRotation = 0;

	xorps	xmm0, xmm0
	movss	DWORD PTR _src$[ebp+96], xmm0

; 1870 : 		src.m_flRotationVelocity = 0;

	xorps	xmm0, xmm0
	movss	DWORD PTR _src$[ebp+100], xmm0

; 1871 : 		src.m_flBounceFactor = 0.2;

	movss	xmm0, DWORD PTR __real@3e4ccccd
	movss	DWORD PTR _src$[ebp+104], xmm0

; 1872 : 		src.m_flDistance = 0;

	xorps	xmm0, xmm0
	movss	DWORD PTR _src$[ebp+108], xmm0

; 1873 : 		src.ParticleType = TYPE_SPARKS;

	mov	DWORD PTR _src$[ebp+144], 2

; 1874 : 		src.EntIndex = EntIndex;

	mov	eax, DWORD PTR _EntIndex$[ebp]
	mov	DWORD PTR _src$[ebp+168], eax

; 1875 : 
; 1876 : 		if( !AddParticle( &src, m_hSparks, flags ))

	mov	eax, DWORD PTR _flags$[ebp]
	push	eax
	mov	ecx, DWORD PTR _this$[ebp]
	mov	edx, DWORD PTR [ecx+2911248]
	push	edx
	lea	eax, DWORD PTR _src$[ebp]
	push	eax
	mov	ecx, DWORD PTR _this$[ebp]
	call	?AddParticle@CQuakePartSystem@@QAE_NPAVCQuakePart@@HH@Z ; CQuakePartSystem::AddParticle
	movzx	ecx, al
	test	ecx, ecx
	jne	SHORT $LN6@SparkParti

; 1877 : 			break;

	jmp	SHORT $LN3@SparkParti
$LN6@SparkParti:

; 1878 : 	}

	jmp	$LN2@SparkParti
$LN3@SparkParti:
$LN1@SparkParti:

; 1879 : }

	pop	edi
	pop	esi
	pop	ebx
	mov	esp, ebp
	pop	ebp
	ret	12					; 0000000cH
?SparkParticles@CQuakePartSystem@@QAEXHABVVector@@0@Z ENDP ; CQuakePartSystem::SparkParticles
_TEXT	ENDS
; Function compile flags: /Odtp /ZI
; File d:\!diffusion 2020\source code 2022\client-server\client\render\r_quakeparticle.cpp
;	COMDAT ?BulletParticles@CQuakePartSystem@@QAEXHABVVector@@0@Z
_TEXT	SEGMENT
tv632 = -328						; size = 4
tv804 = -324						; size = 4
tv689 = -324						; size = 8
tv604 = -324						; size = 4
tv590 = -324						; size = 4
tv576 = -324						; size = 4
tv531 = -324						; size = 8
tv478 = -324						; size = 4
tv467 = -324						; size = 4
tv456 = -324						; size = 4
tv445 = -324						; size = 4
tv431 = -324						; size = 4
tv417 = -324						; size = 4
tv802 = -320						; size = 4
tv800 = -320						; size = 4
tv734 = -320						; size = 4
tv732 = -320						; size = 4
tv730 = -320						; size = 4
tv728 = -320						; size = 4
tv726 = -320						; size = 4
tv724 = -320						; size = 4
tv722 = -320						; size = 4
tv707 = -320						; size = 4
tv698 = -320						; size = 4
tv624 = -320						; size = 4
tv550 = -320						; size = 4
tv541 = -320						; size = 4
tv488 = -320						; size = 4
$T1 = -316						; size = 12
$T2 = -304						; size = 12
$T3 = -292						; size = 12
$T4 = -280						; size = 12
$T5 = -268						; size = 12
_flags$ = -192						; size = 4
_i$ = -188						; size = 4
_count$ = -184						; size = 4
_cnt$ = -180						; size = 4
_src$ = -176						; size = 172
_this$ = -4						; size = 4
_EntIndex$ = 8						; size = 4
_org$ = 12						; size = 4
_dir$ = 16						; size = 4
?BulletParticles@CQuakePartSystem@@QAEXHABVVector@@0@Z PROC ; CQuakePartSystem::BulletParticles, COMDAT
; _this$ = ecx

; 2216 : {

	push	ebp
	mov	ebp, esp
	sub	esp, 328				; 00000148H
	push	ebx
	push	esi
	push	edi
	mov	DWORD PTR _this$[ebp], ecx

; 2217 : 	CQuakePart src;

	lea	ecx, DWORD PTR _src$[ebp]
	call	??0CQuakePart@@QAE@XZ

; 2218 : 	int cnt, count, i;
; 2219 : 
; 2220 : 	if( !g_fRenderInitialized )

	cmp	DWORD PTR ?g_fRenderInitialized@@3HA, 0	; g_fRenderInitialized
	jne	SHORT $LN8@BulletPart

; 2221 : 		return;

	jmp	$LN1@BulletPart
$LN8@BulletPart:

; 2222 : 
; 2223 : 	count = RANDOM_LONG( 4, 10 );

	push	10					; 0000000aH
	push	4
	call	DWORD PTR ?gEngfuncs@@3Ucl_enginefuncs_s@@A+272
	add	esp, 8
	mov	DWORD PTR _count$[ebp], eax

; 2224 : 	cnt = POINT_CONTENTS( (float *)&org );

	push	0
	mov	eax, DWORD PTR _org$[ebp]
	push	eax
	call	DWORD PTR ?gEngfuncs@@3Ucl_enginefuncs_s@@A+228
	add	esp, 8
	mov	DWORD PTR _cnt$[ebp], eax

; 2225 : 
; 2226 : 	if( cnt == CONTENTS_WATER )

	cmp	DWORD PTR _cnt$[ebp], -3		; fffffffdH
	jne	SHORT $LN9@BulletPart

; 2227 : 		return;

	jmp	$LN1@BulletPart
$LN9@BulletPart:

; 2228 : 
; 2229 : 	// sparks
; 2230 : 	int flags = (FPART_STRETCH|FPART_BOUNCE|FPART_FRICTION|FPART_ADDITIVE);

	mov	DWORD PTR _flags$[ebp], 75		; 0000004bH

; 2231 : 
; 2232 : 	for( i = 0; i < count; i++ )

	mov	DWORD PTR _i$[ebp], 0
	jmp	SHORT $LN4@BulletPart
$LN2@BulletPart:
	mov	eax, DWORD PTR _i$[ebp]
	add	eax, 1
	mov	DWORD PTR _i$[ebp], eax
$LN4@BulletPart:
	mov	eax, DWORD PTR _i$[ebp]
	cmp	eax, DWORD PTR _count$[ebp]
	jge	$LN3@BulletPart

; 2233 : 	{
; 2234 : 		src.m_vecOrigin.x = org[0] + dir[0] * 2 + RANDOM_FLOAT( -1, 1 );

	mov	ecx, DWORD PTR _org$[ebp]
	call	??BVector@@QBEPBMXZ			; Vector::operator float const *
	mov	esi, eax
	mov	eax, 4
	imul	edi, eax, 0
	mov	ecx, DWORD PTR _dir$[ebp]
	call	??BVector@@QBEPBMXZ			; Vector::operator float const *
	mov	ecx, 4
	imul	edx, ecx, 0
	movss	xmm0, DWORD PTR [eax+edx]
	mulss	xmm0, DWORD PTR __real@40000000
	addss	xmm0, DWORD PTR [esi+edi]
	push	ecx
	movss	xmm1, DWORD PTR __real@3f800000
	movss	DWORD PTR [esp], xmm1
	push	ecx
	movss	xmm1, DWORD PTR __real@bf800000
	movss	DWORD PTR [esp], xmm1
	movss	DWORD PTR tv722[ebp], xmm0
	call	DWORD PTR ?gEngfuncs@@3Ucl_enginefuncs_s@@A+268
	add	esp, 8
	fstp	DWORD PTR tv417[ebp]
	movss	xmm0, DWORD PTR tv722[ebp]
	addss	xmm0, DWORD PTR tv417[ebp]
	movss	DWORD PTR _src$[ebp], xmm0

; 2235 : 		src.m_vecOrigin.y = org[1] + dir[1] * 2 + RANDOM_FLOAT( -1, 1 );

	mov	ecx, DWORD PTR _org$[ebp]
	call	??BVector@@QBEPBMXZ			; Vector::operator float const *
	mov	esi, eax
	mov	edi, 4
	shl	edi, 0
	mov	ecx, DWORD PTR _dir$[ebp]
	call	??BVector@@QBEPBMXZ			; Vector::operator float const *
	mov	ecx, 4
	shl	ecx, 0
	movss	xmm0, DWORD PTR [eax+ecx]
	mulss	xmm0, DWORD PTR __real@40000000
	addss	xmm0, DWORD PTR [esi+edi]
	push	ecx
	movss	xmm1, DWORD PTR __real@3f800000
	movss	DWORD PTR [esp], xmm1
	push	ecx
	movss	xmm1, DWORD PTR __real@bf800000
	movss	DWORD PTR [esp], xmm1
	movss	DWORD PTR tv724[ebp], xmm0
	call	DWORD PTR ?gEngfuncs@@3Ucl_enginefuncs_s@@A+268
	add	esp, 8
	fstp	DWORD PTR tv431[ebp]
	movss	xmm0, DWORD PTR tv724[ebp]
	addss	xmm0, DWORD PTR tv431[ebp]
	movss	DWORD PTR _src$[ebp+4], xmm0

; 2236 : 		src.m_vecOrigin.z = org[2] + dir[2] * 2 + RANDOM_FLOAT( -1, 1 );

	mov	ecx, DWORD PTR _org$[ebp]
	call	??BVector@@QBEPBMXZ			; Vector::operator float const *
	mov	esi, eax
	mov	edi, 4
	shl	edi, 1
	mov	ecx, DWORD PTR _dir$[ebp]
	call	??BVector@@QBEPBMXZ			; Vector::operator float const *
	mov	ecx, 4
	shl	ecx, 1
	movss	xmm0, DWORD PTR [eax+ecx]
	mulss	xmm0, DWORD PTR __real@40000000
	addss	xmm0, DWORD PTR [esi+edi]
	push	ecx
	movss	xmm1, DWORD PTR __real@3f800000
	movss	DWORD PTR [esp], xmm1
	push	ecx
	movss	xmm1, DWORD PTR __real@bf800000
	movss	DWORD PTR [esp], xmm1
	movss	DWORD PTR tv726[ebp], xmm0
	call	DWORD PTR ?gEngfuncs@@3Ucl_enginefuncs_s@@A+268
	add	esp, 8
	fstp	DWORD PTR tv445[ebp]
	movss	xmm0, DWORD PTR tv726[ebp]
	addss	xmm0, DWORD PTR tv445[ebp]
	movss	DWORD PTR _src$[ebp+8], xmm0

; 2237 : 		src.m_vecVelocity.x = dir[0] * 180 + RANDOM_FLOAT( -60, 60 );

	mov	ecx, DWORD PTR _dir$[ebp]
	call	??BVector@@QBEPBMXZ			; Vector::operator float const *
	mov	ecx, 4
	imul	edx, ecx, 0
	movss	xmm0, DWORD PTR [eax+edx]
	mulss	xmm0, DWORD PTR __real@43340000
	push	ecx
	movss	xmm1, DWORD PTR __real@42700000
	movss	DWORD PTR [esp], xmm1
	push	ecx
	movss	xmm1, DWORD PTR __real@c2700000
	movss	DWORD PTR [esp], xmm1
	movss	DWORD PTR tv728[ebp], xmm0
	call	DWORD PTR ?gEngfuncs@@3Ucl_enginefuncs_s@@A+268
	add	esp, 8
	fstp	DWORD PTR tv456[ebp]
	movss	xmm0, DWORD PTR tv728[ebp]
	addss	xmm0, DWORD PTR tv456[ebp]
	movss	DWORD PTR _src$[ebp+24], xmm0

; 2238 : 		src.m_vecVelocity.y = dir[1] * 180 + RANDOM_FLOAT( -60, 60 );

	mov	ecx, DWORD PTR _dir$[ebp]
	call	??BVector@@QBEPBMXZ			; Vector::operator float const *
	mov	ecx, 4
	shl	ecx, 0
	movss	xmm0, DWORD PTR [eax+ecx]
	mulss	xmm0, DWORD PTR __real@43340000
	push	ecx
	movss	xmm1, DWORD PTR __real@42700000
	movss	DWORD PTR [esp], xmm1
	push	ecx
	movss	xmm1, DWORD PTR __real@c2700000
	movss	DWORD PTR [esp], xmm1
	movss	DWORD PTR tv730[ebp], xmm0
	call	DWORD PTR ?gEngfuncs@@3Ucl_enginefuncs_s@@A+268
	add	esp, 8
	fstp	DWORD PTR tv467[ebp]
	movss	xmm0, DWORD PTR tv730[ebp]
	addss	xmm0, DWORD PTR tv467[ebp]
	movss	DWORD PTR _src$[ebp+28], xmm0

; 2239 : 		src.m_vecVelocity.z = dir[2] * 180 + RANDOM_FLOAT( -60, 60 );

	mov	ecx, DWORD PTR _dir$[ebp]
	call	??BVector@@QBEPBMXZ			; Vector::operator float const *
	mov	ecx, 4
	shl	ecx, 1
	movss	xmm0, DWORD PTR [eax+ecx]
	mulss	xmm0, DWORD PTR __real@43340000
	push	ecx
	movss	xmm1, DWORD PTR __real@42700000
	movss	DWORD PTR [esp], xmm1
	push	ecx
	movss	xmm1, DWORD PTR __real@c2700000
	movss	DWORD PTR [esp], xmm1
	movss	DWORD PTR tv732[ebp], xmm0
	call	DWORD PTR ?gEngfuncs@@3Ucl_enginefuncs_s@@A+268
	add	esp, 8
	fstp	DWORD PTR tv478[ebp]
	movss	xmm0, DWORD PTR tv732[ebp]
	addss	xmm0, DWORD PTR tv478[ebp]
	movss	DWORD PTR _src$[ebp+32], xmm0

; 2240 : 		src.m_vecAccel.x = src.m_vecAccel.y = 0;

	xorps	xmm0, xmm0
	movss	DWORD PTR _src$[ebp+40], xmm0
	movss	xmm0, DWORD PTR _src$[ebp+40]
	movss	DWORD PTR _src$[ebp+36], xmm0

; 2241 : 		src.m_vecAccel.z = -120 + RANDOM_FLOAT( -60, 60 );

	push	ecx
	movss	xmm0, DWORD PTR __real@42700000
	movss	DWORD PTR [esp], xmm0
	push	ecx
	movss	xmm0, DWORD PTR __real@c2700000
	movss	DWORD PTR [esp], xmm0
	call	DWORD PTR ?gEngfuncs@@3Ucl_enginefuncs_s@@A+268
	add	esp, 8
	fstp	DWORD PTR tv488[ebp]
	movss	xmm0, DWORD PTR tv488[ebp]
	addss	xmm0, DWORD PTR __real@c2f00000
	movss	DWORD PTR _src$[ebp+44], xmm0

; 2242 : 		src.m_vecColor = Vector( 1.0, 1.0f, 1.0f );

	push	ecx
	movss	xmm0, DWORD PTR __real@3f800000
	movss	DWORD PTR [esp], xmm0
	push	ecx
	movss	xmm0, DWORD PTR __real@3f800000
	movss	DWORD PTR [esp], xmm0
	push	ecx
	movss	xmm0, DWORD PTR __real@3f800000
	movss	DWORD PTR [esp], xmm0
	lea	ecx, DWORD PTR $T5[ebp]
	call	??0Vector@@QAE@MMM@Z			; Vector::Vector
	mov	ecx, DWORD PTR [eax]
	mov	DWORD PTR _src$[ebp+48], ecx
	mov	edx, DWORD PTR [eax+4]
	mov	DWORD PTR _src$[ebp+52], edx
	mov	eax, DWORD PTR [eax+8]
	mov	DWORD PTR _src$[ebp+56], eax

; 2243 : 		src.m_vecColorVelocity = Vector( 0, 0, 0 );

	push	ecx
	xorps	xmm0, xmm0
	movss	DWORD PTR [esp], xmm0
	push	ecx
	xorps	xmm0, xmm0
	movss	DWORD PTR [esp], xmm0
	push	ecx
	xorps	xmm0, xmm0
	movss	DWORD PTR [esp], xmm0
	lea	ecx, DWORD PTR $T4[ebp]
	call	??0Vector@@QAE@MMM@Z			; Vector::Vector
	mov	ecx, DWORD PTR [eax]
	mov	DWORD PTR _src$[ebp+60], ecx
	mov	edx, DWORD PTR [eax+4]
	mov	DWORD PTR _src$[ebp+64], edx
	mov	eax, DWORD PTR [eax+8]
	mov	DWORD PTR _src$[ebp+68], eax

; 2244 : 		src.m_flAlpha = 1.0;

	movss	xmm0, DWORD PTR __real@3f800000
	movss	DWORD PTR _src$[ebp+72], xmm0

; 2245 : 		src.m_flStartAlpha = 0.0f;

	xorps	xmm0, xmm0
	movss	DWORD PTR _src$[ebp+112], xmm0

; 2246 : 		src.m_flAlphaVelocity = -3.0;

	movss	xmm0, DWORD PTR __real@c0400000
	movss	DWORD PTR _src$[ebp+76], xmm0

; 2247 : 		src.m_flRadius = 0.8 + RANDOM_FLOAT( -0.3, 0.3 );

	push	ecx
	movss	xmm0, DWORD PTR __real@3e99999a
	movss	DWORD PTR [esp], xmm0
	push	ecx
	movss	xmm0, DWORD PTR __real@be99999a
	movss	DWORD PTR [esp], xmm0
	call	DWORD PTR ?gEngfuncs@@3Ucl_enginefuncs_s@@A+268
	add	esp, 8
	fstp	QWORD PTR tv531[ebp]
	movsd	xmm0, QWORD PTR tv531[ebp]
	addsd	xmm0, QWORD PTR __real@3fe999999999999a
	cvtsd2ss xmm0, xmm0
	movss	DWORD PTR _src$[ebp+80], xmm0

; 2248 : 		src.m_flRadiusVelocity = 0;

	xorps	xmm0, xmm0
	movss	DWORD PTR _src$[ebp+84], xmm0

; 2249 : 		src.m_flLength = 8 + RANDOM_FLOAT( -4, 4 );

	push	ecx
	movss	xmm0, DWORD PTR __real@40800000
	movss	DWORD PTR [esp], xmm0
	push	ecx
	movss	xmm0, DWORD PTR __real@c0800000
	movss	DWORD PTR [esp], xmm0
	call	DWORD PTR ?gEngfuncs@@3Ucl_enginefuncs_s@@A+268
	add	esp, 8
	fstp	DWORD PTR tv541[ebp]
	movss	xmm0, DWORD PTR tv541[ebp]
	addss	xmm0, DWORD PTR __real@41000000
	movss	DWORD PTR _src$[ebp+88], xmm0

; 2250 : 		src.m_flLengthVelocity = 8 + RANDOM_FLOAT( -4, 4 );

	push	ecx
	movss	xmm0, DWORD PTR __real@40800000
	movss	DWORD PTR [esp], xmm0
	push	ecx
	movss	xmm0, DWORD PTR __real@c0800000
	movss	DWORD PTR [esp], xmm0
	call	DWORD PTR ?gEngfuncs@@3Ucl_enginefuncs_s@@A+268
	add	esp, 8
	fstp	DWORD PTR tv550[ebp]
	movss	xmm0, DWORD PTR tv550[ebp]
	addss	xmm0, DWORD PTR __real@41000000
	movss	DWORD PTR _src$[ebp+92], xmm0

; 2251 : 		src.m_flRotation = 0;

	xorps	xmm0, xmm0
	movss	DWORD PTR _src$[ebp+96], xmm0

; 2252 : 		src.m_flRotationVelocity = 0;

	xorps	xmm0, xmm0
	movss	DWORD PTR _src$[ebp+100], xmm0

; 2253 : 		src.m_flBounceFactor = 0.2;

	movss	xmm0, DWORD PTR __real@3e4ccccd
	movss	DWORD PTR _src$[ebp+104], xmm0

; 2254 : 		src.m_flDistance = 2000;

	movss	xmm0, DWORD PTR __real@44fa0000
	movss	DWORD PTR _src$[ebp+108], xmm0

; 2255 : 		src.ParticleType = TYPE_SPARKS;

	mov	DWORD PTR _src$[ebp+144], 2

; 2256 : 		src.EntIndex = EntIndex;

	mov	eax, DWORD PTR _EntIndex$[ebp]
	mov	DWORD PTR _src$[ebp+168], eax

; 2257 : 
; 2258 : 		if( !AddParticle( &src, m_hSparks, flags ))

	mov	eax, DWORD PTR _flags$[ebp]
	push	eax
	mov	ecx, DWORD PTR _this$[ebp]
	mov	edx, DWORD PTR [ecx+2911248]
	push	edx
	lea	eax, DWORD PTR _src$[ebp]
	push	eax
	mov	ecx, DWORD PTR _this$[ebp]
	call	?AddParticle@CQuakePartSystem@@QAE_NPAVCQuakePart@@HH@Z ; CQuakePartSystem::AddParticle
	movzx	ecx, al
	test	ecx, ecx
	jne	SHORT $LN10@BulletPart

; 2259 : 			break;

	jmp	SHORT $LN3@BulletPart
$LN10@BulletPart:

; 2260 : 	}

	jmp	$LN2@BulletPart
$LN3@BulletPart:

; 2261 : 
; 2262 : 	// smoke
; 2263 : 	flags = FPART_VERTEXLIGHT;

	mov	DWORD PTR _flags$[ebp], 4

; 2264 : 
; 2265 : 	for( i = 0; i < 3; i++ )

	mov	DWORD PTR _i$[ebp], 0
	jmp	SHORT $LN7@BulletPart
$LN5@BulletPart:
	mov	eax, DWORD PTR _i$[ebp]
	add	eax, 1
	mov	DWORD PTR _i$[ebp], eax
$LN7@BulletPart:
	cmp	DWORD PTR _i$[ebp], 3
	jge	$LN6@BulletPart

; 2266 : 	{
; 2267 : 		src.m_vecOrigin.x = org[0] + dir[0] * 5 + RANDOM_FLOAT( -1, 1 );

	mov	ecx, DWORD PTR _org$[ebp]
	call	??BVector@@QBEPBMXZ			; Vector::operator float const *
	mov	esi, eax
	mov	eax, 4
	imul	edi, eax, 0
	mov	ecx, DWORD PTR _dir$[ebp]
	call	??BVector@@QBEPBMXZ			; Vector::operator float const *
	mov	ecx, 4
	imul	edx, ecx, 0
	movss	xmm0, DWORD PTR [eax+edx]
	mulss	xmm0, DWORD PTR __real@40a00000
	addss	xmm0, DWORD PTR [esi+edi]
	push	ecx
	movss	xmm1, DWORD PTR __real@3f800000
	movss	DWORD PTR [esp], xmm1
	push	ecx
	movss	xmm1, DWORD PTR __real@bf800000
	movss	DWORD PTR [esp], xmm1
	movss	DWORD PTR tv734[ebp], xmm0
	call	DWORD PTR ?gEngfuncs@@3Ucl_enginefuncs_s@@A+268
	add	esp, 8
	fstp	DWORD PTR tv576[ebp]
	movss	xmm0, DWORD PTR tv734[ebp]
	addss	xmm0, DWORD PTR tv576[ebp]
	movss	DWORD PTR _src$[ebp], xmm0

; 2268 : 		src.m_vecOrigin.y = org[1] + dir[1] * 5 + RANDOM_FLOAT( -1, 1 );

	mov	ecx, DWORD PTR _org$[ebp]
	call	??BVector@@QBEPBMXZ			; Vector::operator float const *
	mov	esi, eax
	mov	edi, 4
	shl	edi, 0
	mov	ecx, DWORD PTR _dir$[ebp]
	call	??BVector@@QBEPBMXZ			; Vector::operator float const *
	mov	ecx, 4
	shl	ecx, 0
	movss	xmm0, DWORD PTR [eax+ecx]
	mulss	xmm0, DWORD PTR __real@40a00000
	addss	xmm0, DWORD PTR [esi+edi]
	push	ecx
	movss	xmm1, DWORD PTR __real@3f800000
	movss	DWORD PTR [esp], xmm1
	push	ecx
	movss	xmm1, DWORD PTR __real@bf800000
	movss	DWORD PTR [esp], xmm1
	movss	DWORD PTR tv800[ebp], xmm0
	call	DWORD PTR ?gEngfuncs@@3Ucl_enginefuncs_s@@A+268
	add	esp, 8
	fstp	DWORD PTR tv590[ebp]
	movss	xmm0, DWORD PTR tv800[ebp]
	addss	xmm0, DWORD PTR tv590[ebp]
	movss	DWORD PTR _src$[ebp+4], xmm0

; 2269 : 		src.m_vecOrigin.z = org[2] + dir[2] * 5 + RANDOM_FLOAT( -1, 1 );

	mov	ecx, DWORD PTR _org$[ebp]
	call	??BVector@@QBEPBMXZ			; Vector::operator float const *
	mov	esi, eax
	mov	edi, 4
	shl	edi, 1
	mov	ecx, DWORD PTR _dir$[ebp]
	call	??BVector@@QBEPBMXZ			; Vector::operator float const *
	mov	ecx, 4
	shl	ecx, 1
	movss	xmm0, DWORD PTR [eax+ecx]
	mulss	xmm0, DWORD PTR __real@40a00000
	addss	xmm0, DWORD PTR [esi+edi]
	push	ecx
	movss	xmm1, DWORD PTR __real@3f800000
	movss	DWORD PTR [esp], xmm1
	push	ecx
	movss	xmm1, DWORD PTR __real@bf800000
	movss	DWORD PTR [esp], xmm1
	movss	DWORD PTR tv802[ebp], xmm0
	call	DWORD PTR ?gEngfuncs@@3Ucl_enginefuncs_s@@A+268
	add	esp, 8
	fstp	DWORD PTR tv604[ebp]
	movss	xmm0, DWORD PTR tv802[ebp]
	addss	xmm0, DWORD PTR tv604[ebp]
	movss	DWORD PTR _src$[ebp+8], xmm0

; 2270 : 		src.m_vecVelocity.x = RANDOM_FLOAT( -2.5, 2.5 );

	push	ecx
	movss	xmm0, DWORD PTR __real@40200000
	movss	DWORD PTR [esp], xmm0
	push	ecx
	movss	xmm0, DWORD PTR __real@c0200000
	movss	DWORD PTR [esp], xmm0
	call	DWORD PTR ?gEngfuncs@@3Ucl_enginefuncs_s@@A+268
	add	esp, 8
	fstp	DWORD PTR _src$[ebp+24]

; 2271 : 		src.m_vecVelocity.y = RANDOM_FLOAT( -2.5, 2.5 );

	push	ecx
	movss	xmm0, DWORD PTR __real@40200000
	movss	DWORD PTR [esp], xmm0
	push	ecx
	movss	xmm0, DWORD PTR __real@c0200000
	movss	DWORD PTR [esp], xmm0
	call	DWORD PTR ?gEngfuncs@@3Ucl_enginefuncs_s@@A+268
	add	esp, 8
	fstp	DWORD PTR _src$[ebp+28]

; 2272 : 		src.m_vecVelocity.z = RANDOM_FLOAT( -2.5, 2.5 ) + (25 + RANDOM_FLOAT( -5, 5 ));

	push	ecx
	movss	xmm0, DWORD PTR __real@40200000
	movss	DWORD PTR [esp], xmm0
	push	ecx
	movss	xmm0, DWORD PTR __real@c0200000
	movss	DWORD PTR [esp], xmm0
	call	DWORD PTR ?gEngfuncs@@3Ucl_enginefuncs_s@@A+268
	add	esp, 8
	fstp	DWORD PTR tv624[ebp]
	movss	xmm0, DWORD PTR tv624[ebp]
	push	ecx
	movss	xmm1, DWORD PTR __real@40a00000
	movss	DWORD PTR [esp], xmm1
	push	ecx
	movss	xmm1, DWORD PTR __real@c0a00000
	movss	DWORD PTR [esp], xmm1
	movss	DWORD PTR tv804[ebp], xmm0
	call	DWORD PTR ?gEngfuncs@@3Ucl_enginefuncs_s@@A+268
	add	esp, 8
	fstp	DWORD PTR tv632[ebp]
	movss	xmm0, DWORD PTR tv632[ebp]
	addss	xmm0, DWORD PTR __real@41c80000
	movss	xmm1, DWORD PTR tv804[ebp]
	addss	xmm1, xmm0
	movss	DWORD PTR _src$[ebp+32], xmm1

; 2273 : 		src.m_vecAccel = Vector( 0, 0, 0 );

	push	ecx
	xorps	xmm0, xmm0
	movss	DWORD PTR [esp], xmm0
	push	ecx
	xorps	xmm0, xmm0
	movss	DWORD PTR [esp], xmm0
	push	ecx
	xorps	xmm0, xmm0
	movss	DWORD PTR [esp], xmm0
	lea	ecx, DWORD PTR $T3[ebp]
	call	??0Vector@@QAE@MMM@Z			; Vector::Vector
	mov	ecx, DWORD PTR [eax]
	mov	DWORD PTR _src$[ebp+36], ecx
	mov	edx, DWORD PTR [eax+4]
	mov	DWORD PTR _src$[ebp+40], edx
	mov	eax, DWORD PTR [eax+8]
	mov	DWORD PTR _src$[ebp+44], eax

; 2274 : 		src.m_vecColor = Vector( 0.4, 0.4, 0.4 );

	push	ecx
	movss	xmm0, DWORD PTR __real@3ecccccd
	movss	DWORD PTR [esp], xmm0
	push	ecx
	movss	xmm0, DWORD PTR __real@3ecccccd
	movss	DWORD PTR [esp], xmm0
	push	ecx
	movss	xmm0, DWORD PTR __real@3ecccccd
	movss	DWORD PTR [esp], xmm0
	lea	ecx, DWORD PTR $T2[ebp]
	call	??0Vector@@QAE@MMM@Z			; Vector::Vector
	mov	ecx, DWORD PTR [eax]
	mov	DWORD PTR _src$[ebp+48], ecx
	mov	edx, DWORD PTR [eax+4]
	mov	DWORD PTR _src$[ebp+52], edx
	mov	eax, DWORD PTR [eax+8]
	mov	DWORD PTR _src$[ebp+56], eax

; 2275 : 		src.m_vecColorVelocity = Vector( 0.2, 0.2, 0.2 );

	push	ecx
	movss	xmm0, DWORD PTR __real@3e4ccccd
	movss	DWORD PTR [esp], xmm0
	push	ecx
	movss	xmm0, DWORD PTR __real@3e4ccccd
	movss	DWORD PTR [esp], xmm0
	push	ecx
	movss	xmm0, DWORD PTR __real@3e4ccccd
	movss	DWORD PTR [esp], xmm0
	lea	ecx, DWORD PTR $T1[ebp]
	call	??0Vector@@QAE@MMM@Z			; Vector::Vector
	mov	ecx, DWORD PTR [eax]
	mov	DWORD PTR _src$[ebp+60], ecx
	mov	edx, DWORD PTR [eax+4]
	mov	DWORD PTR _src$[ebp+64], edx
	mov	eax, DWORD PTR [eax+8]
	mov	DWORD PTR _src$[ebp+68], eax

; 2276 : 		src.m_flAlpha = 0.5;

	movss	xmm0, DWORD PTR __real@3f000000
	movss	DWORD PTR _src$[ebp+72], xmm0

; 2277 : 		src.m_flStartAlpha = 0.0f;

	xorps	xmm0, xmm0
	movss	DWORD PTR _src$[ebp+112], xmm0

; 2278 : 		src.m_flAlphaVelocity = -(0.4 + RANDOM_FLOAT( 0, 0.2 ));

	push	ecx
	movss	xmm0, DWORD PTR __real@3e4ccccd
	movss	DWORD PTR [esp], xmm0
	push	ecx
	xorps	xmm0, xmm0
	movss	DWORD PTR [esp], xmm0
	call	DWORD PTR ?gEngfuncs@@3Ucl_enginefuncs_s@@A+268
	add	esp, 8
	fstp	QWORD PTR tv689[ebp]
	movsd	xmm0, QWORD PTR tv689[ebp]
	addsd	xmm0, QWORD PTR __real@3fd999999999999a
	xorps	xmm0, QWORD PTR __xmm@80000000000000008000000000000000
	cvtsd2ss xmm0, xmm0
	movss	DWORD PTR _src$[ebp+76], xmm0

; 2279 : 		src.m_flRadius = 3 + RANDOM_FLOAT( -1.5, 1.5 );

	push	ecx
	movss	xmm0, DWORD PTR __real@3fc00000
	movss	DWORD PTR [esp], xmm0
	push	ecx
	movss	xmm0, DWORD PTR __real@bfc00000
	movss	DWORD PTR [esp], xmm0
	call	DWORD PTR ?gEngfuncs@@3Ucl_enginefuncs_s@@A+268
	add	esp, 8
	fstp	DWORD PTR tv698[ebp]
	movss	xmm0, DWORD PTR tv698[ebp]
	addss	xmm0, DWORD PTR __real@40400000
	movss	DWORD PTR _src$[ebp+80], xmm0

; 2280 : 		src.m_flRadiusVelocity = 5 + RANDOM_FLOAT( -2.5, 2.5 );

	push	ecx
	movss	xmm0, DWORD PTR __real@40200000
	movss	DWORD PTR [esp], xmm0
	push	ecx
	movss	xmm0, DWORD PTR __real@c0200000
	movss	DWORD PTR [esp], xmm0
	call	DWORD PTR ?gEngfuncs@@3Ucl_enginefuncs_s@@A+268
	add	esp, 8
	fstp	DWORD PTR tv707[ebp]
	movss	xmm0, DWORD PTR tv707[ebp]
	addss	xmm0, DWORD PTR __real@40a00000
	movss	DWORD PTR _src$[ebp+84], xmm0

; 2281 : 		src.m_flLength = 1;

	movss	xmm0, DWORD PTR __real@3f800000
	movss	DWORD PTR _src$[ebp+88], xmm0

; 2282 : 		src.m_flLengthVelocity = 0;

	xorps	xmm0, xmm0
	movss	DWORD PTR _src$[ebp+92], xmm0

; 2283 : 		src.m_flRotation = RANDOM_LONG( 0, 360 );

	push	360					; 00000168H
	push	0
	call	DWORD PTR ?gEngfuncs@@3Ucl_enginefuncs_s@@A+272
	add	esp, 8
	cvtsi2ss xmm0, eax
	movss	DWORD PTR _src$[ebp+96], xmm0

; 2284 : 		src.m_flRotationVelocity = 0;

	xorps	xmm0, xmm0
	movss	DWORD PTR _src$[ebp+100], xmm0

; 2285 : 		src.m_flDistance = 1500;

	movss	xmm0, DWORD PTR __real@44bb8000
	movss	DWORD PTR _src$[ebp+108], xmm0

; 2286 : 		src.ParticleType = TYPE_SMOKE;

	mov	DWORD PTR _src$[ebp+144], 3

; 2287 : 		src.EntIndex = EntIndex;

	mov	eax, DWORD PTR _EntIndex$[ebp]
	mov	DWORD PTR _src$[ebp+168], eax

; 2288 : 
; 2289 : 		if( !AddParticle( &src, m_hSmoke, flags ))

	mov	eax, DWORD PTR _flags$[ebp]
	push	eax
	mov	ecx, DWORD PTR _this$[ebp]
	mov	edx, DWORD PTR [ecx+2911252]
	push	edx
	lea	eax, DWORD PTR _src$[ebp]
	push	eax
	mov	ecx, DWORD PTR _this$[ebp]
	call	?AddParticle@CQuakePartSystem@@QAE_NPAVCQuakePart@@HH@Z ; CQuakePartSystem::AddParticle
	movzx	ecx, al
	test	ecx, ecx
	jne	SHORT $LN11@BulletPart

; 2290 : 			break;

	jmp	SHORT $LN6@BulletPart
$LN11@BulletPart:

; 2291 : 	}

	jmp	$LN5@BulletPart
$LN6@BulletPart:
$LN1@BulletPart:

; 2292 : }

	pop	edi
	pop	esi
	pop	ebx
	mov	esp, ebp
	pop	ebp
	ret	12					; 0000000cH
?BulletParticles@CQuakePartSystem@@QAEXHABVVector@@0@Z ENDP ; CQuakePartSystem::BulletParticles
_TEXT	ENDS
; Function compile flags: /Odtp /ZI
; File d:\!diffusion 2020\source code 2022\client-server\client\render\r_quakeparticle.cpp
;	COMDAT ?ExplosionParticles@CQuakePartSystem@@QAEXHABVVector@@@Z
_TEXT	SEGMENT
tv609 = -392						; size = 4
tv938 = -388						; size = 4
tv520 = -388						; size = 8
tv917 = -384						; size = 4
tv836 = -384						; size = 4
tv826 = -384						; size = 4
tv816 = -384						; size = 4
tv794 = -384						; size = 4
tv720 = -384						; size = 4
tv710 = -384						; size = 4
tv700 = -384						; size = 4
tv679 = -384						; size = 4
tv670 = -384						; size = 4
tv601 = -384						; size = 4
tv579 = -384						; size = 4
tv569 = -384						; size = 4
tv559 = -384						; size = 4
tv539 = -384						; size = 4
tv530 = -384						; size = 4
tv477 = -384						; size = 4
$T1 = -380						; size = 12
$T2 = -368						; size = 12
$T3 = -356						; size = 12
$T4 = -344						; size = 12
$T5 = -332						; size = 12
$T6 = -320						; size = 12
$T7 = -308						; size = 12
$T8 = -296						; size = 12
$T9 = -284						; size = 12
$T10 = -272						; size = 12
$T11 = -260						; size = 12
_i$ = -184						; size = 4
_flags$ = -180						; size = 4
_src$ = -176						; size = 172
_this$ = -4						; size = 4
_EntIndex$ = 8						; size = 4
_pos$ = 12						; size = 4
?ExplosionParticles@CQuakePartSystem@@QAEXHABVVector@@@Z PROC ; CQuakePartSystem::ExplosionParticles, COMDAT
; _this$ = ecx

; 1706 : {

	push	ebp
	mov	ebp, esp
	sub	esp, 392				; 00000188H
	push	ebx
	push	esi
	push	edi
	mov	DWORD PTR _this$[ebp], ecx

; 1707 : 	CQuakePart src;

	lea	ecx, DWORD PTR _src$[ebp]
	call	??0CQuakePart@@QAE@XZ

; 1708 : 	int flags;
; 1709 : 	int i;
; 1710 : 
; 1711 : 	if( !g_fRenderInitialized )

	cmp	DWORD PTR ?g_fRenderInitialized@@3HA, 0	; g_fRenderInitialized
	jne	SHORT $LN14@ExplosionP

; 1712 : 		return;

	jmp	$LN1@ExplosionP
$LN14@ExplosionP:

; 1713 : 
; 1714 : 	flags = (FPART_STRETCH|FPART_BOUNCE|FPART_FRICTION|FPART_NOTWATER);

	mov	DWORD PTR _flags$[ebp], 139		; 0000008bH

; 1715 : 
; 1716 : 	for( i = 0; i < 128; i++ )

	mov	DWORD PTR _i$[ebp], 0
	jmp	SHORT $LN4@ExplosionP
$LN2@ExplosionP:
	mov	eax, DWORD PTR _i$[ebp]
	add	eax, 1
	mov	DWORD PTR _i$[ebp], eax
$LN4@ExplosionP:
	cmp	DWORD PTR _i$[ebp], 128			; 00000080H
	jge	$LN3@ExplosionP

; 1717 : 	{
; 1718 : 		src.m_vecOrigin.x = pos.x + RANDOM_LONG( -16, 16 );

	push	16					; 00000010H
	push	-16					; fffffff0H
	call	DWORD PTR ?gEngfuncs@@3Ucl_enginefuncs_s@@A+272
	add	esp, 8
	cvtsi2ss xmm0, eax
	mov	eax, DWORD PTR _pos$[ebp]
	addss	xmm0, DWORD PTR [eax]
	movss	DWORD PTR _src$[ebp], xmm0

; 1719 : 		src.m_vecOrigin.y = pos.y + RANDOM_LONG( -16, 16 );

	push	16					; 00000010H
	push	-16					; fffffff0H
	call	DWORD PTR ?gEngfuncs@@3Ucl_enginefuncs_s@@A+272
	add	esp, 8
	cvtsi2ss xmm0, eax
	mov	eax, DWORD PTR _pos$[ebp]
	addss	xmm0, DWORD PTR [eax+4]
	movss	DWORD PTR _src$[ebp+4], xmm0

; 1720 : 		src.m_vecOrigin.z = pos.z + RANDOM_LONG( -16, 16 );

	push	16					; 00000010H
	push	-16					; fffffff0H
	call	DWORD PTR ?gEngfuncs@@3Ucl_enginefuncs_s@@A+272
	add	esp, 8
	cvtsi2ss xmm0, eax
	mov	eax, DWORD PTR _pos$[ebp]
	addss	xmm0, DWORD PTR [eax+8]
	movss	DWORD PTR _src$[ebp+8], xmm0

; 1721 : 		src.m_vecVelocity.x = RANDOM_LONG( -256, 256 );

	push	256					; 00000100H
	push	-256					; ffffff00H
	call	DWORD PTR ?gEngfuncs@@3Ucl_enginefuncs_s@@A+272
	add	esp, 8
	cvtsi2ss xmm0, eax
	movss	DWORD PTR _src$[ebp+24], xmm0

; 1722 : 		src.m_vecVelocity.y = RANDOM_LONG( -256, 256 );

	push	256					; 00000100H
	push	-256					; ffffff00H
	call	DWORD PTR ?gEngfuncs@@3Ucl_enginefuncs_s@@A+272
	add	esp, 8
	cvtsi2ss xmm0, eax
	movss	DWORD PTR _src$[ebp+28], xmm0

; 1723 : 		src.m_vecVelocity.z = RANDOM_LONG( -256, 256 );

	push	256					; 00000100H
	push	-256					; ffffff00H
	call	DWORD PTR ?gEngfuncs@@3Ucl_enginefuncs_s@@A+272
	add	esp, 8
	cvtsi2ss xmm0, eax
	movss	DWORD PTR _src$[ebp+32], xmm0

; 1724 : 		src.m_vecAccel.x = src.m_vecAccel.y = 0;

	xorps	xmm0, xmm0
	movss	DWORD PTR _src$[ebp+40], xmm0
	movss	xmm0, DWORD PTR _src$[ebp+40]
	movss	DWORD PTR _src$[ebp+36], xmm0

; 1725 : 		src.m_vecAccel.z = -60 + RANDOM_FLOAT( -30, 30 );

	push	ecx
	movss	xmm0, DWORD PTR __real@41f00000
	movss	DWORD PTR [esp], xmm0
	push	ecx
	movss	xmm0, DWORD PTR __real@c1f00000
	movss	DWORD PTR [esp], xmm0
	call	DWORD PTR ?gEngfuncs@@3Ucl_enginefuncs_s@@A+268
	add	esp, 8
	fstp	DWORD PTR tv477[ebp]
	movss	xmm0, DWORD PTR tv477[ebp]
	addss	xmm0, DWORD PTR __real@c2700000
	movss	DWORD PTR _src$[ebp+44], xmm0

; 1726 : 		src.m_vecColor = Vector( 1, 1, 1 );

	push	ecx
	movss	xmm0, DWORD PTR __real@3f800000
	movss	DWORD PTR [esp], xmm0
	push	ecx
	movss	xmm0, DWORD PTR __real@3f800000
	movss	DWORD PTR [esp], xmm0
	push	ecx
	movss	xmm0, DWORD PTR __real@3f800000
	movss	DWORD PTR [esp], xmm0
	lea	ecx, DWORD PTR $T11[ebp]
	call	??0Vector@@QAE@MMM@Z			; Vector::Vector
	mov	ecx, DWORD PTR [eax]
	mov	DWORD PTR _src$[ebp+48], ecx
	mov	edx, DWORD PTR [eax+4]
	mov	DWORD PTR _src$[ebp+52], edx
	mov	eax, DWORD PTR [eax+8]
	mov	DWORD PTR _src$[ebp+56], eax

; 1727 : 		src.m_vecColorVelocity = Vector( 0, 0, 0 );

	push	ecx
	xorps	xmm0, xmm0
	movss	DWORD PTR [esp], xmm0
	push	ecx
	xorps	xmm0, xmm0
	movss	DWORD PTR [esp], xmm0
	push	ecx
	xorps	xmm0, xmm0
	movss	DWORD PTR [esp], xmm0
	lea	ecx, DWORD PTR $T10[ebp]
	call	??0Vector@@QAE@MMM@Z			; Vector::Vector
	mov	ecx, DWORD PTR [eax]
	mov	DWORD PTR _src$[ebp+60], ecx
	mov	edx, DWORD PTR [eax+4]
	mov	DWORD PTR _src$[ebp+64], edx
	mov	eax, DWORD PTR [eax+8]
	mov	DWORD PTR _src$[ebp+68], eax

; 1728 : 		src.m_flAlpha = 1.0;

	movss	xmm0, DWORD PTR __real@3f800000
	movss	DWORD PTR _src$[ebp+72], xmm0

; 1729 : 		src.m_flStartAlpha = 0.0f;

	xorps	xmm0, xmm0
	movss	DWORD PTR _src$[ebp+112], xmm0

; 1730 : 		src.m_flAlphaVelocity = -1.0;

	movss	xmm0, DWORD PTR __real@bf800000
	movss	DWORD PTR _src$[ebp+76], xmm0

; 1731 : 		src.m_flRadius = 0.5 + RANDOM_FLOAT( -0.2, 0.2 );

	push	ecx
	movss	xmm0, DWORD PTR __real@3e4ccccd
	movss	DWORD PTR [esp], xmm0
	push	ecx
	movss	xmm0, DWORD PTR __real@be4ccccd
	movss	DWORD PTR [esp], xmm0
	call	DWORD PTR ?gEngfuncs@@3Ucl_enginefuncs_s@@A+268
	add	esp, 8
	fstp	QWORD PTR tv520[ebp]
	movsd	xmm0, QWORD PTR tv520[ebp]
	addsd	xmm0, QWORD PTR __real@3fe0000000000000
	cvtsd2ss xmm0, xmm0
	movss	DWORD PTR _src$[ebp+80], xmm0

; 1732 : 		src.m_flRadiusVelocity = 0;

	xorps	xmm0, xmm0
	movss	DWORD PTR _src$[ebp+84], xmm0

; 1733 : 		src.m_flLength = 8 + RANDOM_FLOAT( -4, 4 );

	push	ecx
	movss	xmm0, DWORD PTR __real@40800000
	movss	DWORD PTR [esp], xmm0
	push	ecx
	movss	xmm0, DWORD PTR __real@c0800000
	movss	DWORD PTR [esp], xmm0
	call	DWORD PTR ?gEngfuncs@@3Ucl_enginefuncs_s@@A+268
	add	esp, 8
	fstp	DWORD PTR tv530[ebp]
	movss	xmm0, DWORD PTR tv530[ebp]
	addss	xmm0, DWORD PTR __real@41000000
	movss	DWORD PTR _src$[ebp+88], xmm0

; 1734 : 		src.m_flLengthVelocity = 8 + RANDOM_FLOAT( -4, 4 );

	push	ecx
	movss	xmm0, DWORD PTR __real@40800000
	movss	DWORD PTR [esp], xmm0
	push	ecx
	movss	xmm0, DWORD PTR __real@c0800000
	movss	DWORD PTR [esp], xmm0
	call	DWORD PTR ?gEngfuncs@@3Ucl_enginefuncs_s@@A+268
	add	esp, 8
	fstp	DWORD PTR tv539[ebp]
	movss	xmm0, DWORD PTR tv539[ebp]
	addss	xmm0, DWORD PTR __real@41000000
	movss	DWORD PTR _src$[ebp+92], xmm0

; 1735 : 		src.m_flRotation = 0;

	xorps	xmm0, xmm0
	movss	DWORD PTR _src$[ebp+96], xmm0

; 1736 : 		src.m_flRotationVelocity = 0;

	xorps	xmm0, xmm0
	movss	DWORD PTR _src$[ebp+100], xmm0

; 1737 : 		src.m_flBounceFactor = 0.2;

	movss	xmm0, DWORD PTR __real@3e4ccccd
	movss	DWORD PTR _src$[ebp+104], xmm0

; 1738 : 		src.m_flDistance = 1500;

	movss	xmm0, DWORD PTR __real@44bb8000
	movss	DWORD PTR _src$[ebp+108], xmm0

; 1739 : 		src.ParticleType = TYPE_SPARKS;

	mov	DWORD PTR _src$[ebp+144], 2

; 1740 : 		src.EntIndex = EntIndex;

	mov	eax, DWORD PTR _EntIndex$[ebp]
	mov	DWORD PTR _src$[ebp+168], eax

; 1741 : 
; 1742 : 		if( !AddParticle( &src, m_hSparks, flags ))

	mov	eax, DWORD PTR _flags$[ebp]
	push	eax
	mov	ecx, DWORD PTR _this$[ebp]
	mov	edx, DWORD PTR [ecx+2911248]
	push	edx
	lea	eax, DWORD PTR _src$[ebp]
	push	eax
	mov	ecx, DWORD PTR _this$[ebp]
	call	?AddParticle@CQuakePartSystem@@QAE_NPAVCQuakePart@@HH@Z ; CQuakePartSystem::AddParticle
	movzx	ecx, al
	test	ecx, ecx
	jne	SHORT $LN15@ExplosionP

; 1743 : 			break;

	jmp	SHORT $LN3@ExplosionP
$LN15@ExplosionP:

; 1744 : 	}

	jmp	$LN2@ExplosionP
$LN3@ExplosionP:

; 1745 : 
; 1746 : 	// smoke
; 1747 : 	flags = (FPART_VERTEXLIGHT | FPART_NOTWATER);

	mov	DWORD PTR _flags$[ebp], 132		; 00000084H

; 1748 : 
; 1749 : 	for( i = 0; i < 5; i++ )

	mov	DWORD PTR _i$[ebp], 0
	jmp	SHORT $LN7@ExplosionP
$LN5@ExplosionP:
	mov	eax, DWORD PTR _i$[ebp]
	add	eax, 1
	mov	DWORD PTR _i$[ebp], eax
$LN7@ExplosionP:
	cmp	DWORD PTR _i$[ebp], 5
	jge	$LN6@ExplosionP

; 1750 : 	{
; 1751 : 		src.m_vecOrigin.x = pos.x + RANDOM_FLOAT( -10, 10 );

	push	ecx
	movss	xmm0, DWORD PTR __real@41200000
	movss	DWORD PTR [esp], xmm0
	push	ecx
	movss	xmm0, DWORD PTR __real@c1200000
	movss	DWORD PTR [esp], xmm0
	call	DWORD PTR ?gEngfuncs@@3Ucl_enginefuncs_s@@A+268
	add	esp, 8
	fstp	DWORD PTR tv559[ebp]
	mov	eax, DWORD PTR _pos$[ebp]
	movss	xmm0, DWORD PTR tv559[ebp]
	addss	xmm0, DWORD PTR [eax]
	movss	DWORD PTR _src$[ebp], xmm0

; 1752 : 		src.m_vecOrigin.y = pos.y + RANDOM_FLOAT( -10, 10 );

	push	ecx
	movss	xmm0, DWORD PTR __real@41200000
	movss	DWORD PTR [esp], xmm0
	push	ecx
	movss	xmm0, DWORD PTR __real@c1200000
	movss	DWORD PTR [esp], xmm0
	call	DWORD PTR ?gEngfuncs@@3Ucl_enginefuncs_s@@A+268
	add	esp, 8
	fstp	DWORD PTR tv569[ebp]
	mov	eax, DWORD PTR _pos$[ebp]
	movss	xmm0, DWORD PTR tv569[ebp]
	addss	xmm0, DWORD PTR [eax+4]
	movss	DWORD PTR _src$[ebp+4], xmm0

; 1753 : 		src.m_vecOrigin.z = pos.z + RANDOM_FLOAT( -10, 10 );

	push	ecx
	movss	xmm0, DWORD PTR __real@41200000
	movss	DWORD PTR [esp], xmm0
	push	ecx
	movss	xmm0, DWORD PTR __real@c1200000
	movss	DWORD PTR [esp], xmm0
	call	DWORD PTR ?gEngfuncs@@3Ucl_enginefuncs_s@@A+268
	add	esp, 8
	fstp	DWORD PTR tv579[ebp]
	mov	eax, DWORD PTR _pos$[ebp]
	movss	xmm0, DWORD PTR tv579[ebp]
	addss	xmm0, DWORD PTR [eax+8]
	movss	DWORD PTR _src$[ebp+8], xmm0

; 1754 : 		src.m_vecVelocity.x = RANDOM_FLOAT( -10, 10 );

	push	ecx
	movss	xmm0, DWORD PTR __real@41200000
	movss	DWORD PTR [esp], xmm0
	push	ecx
	movss	xmm0, DWORD PTR __real@c1200000
	movss	DWORD PTR [esp], xmm0
	call	DWORD PTR ?gEngfuncs@@3Ucl_enginefuncs_s@@A+268
	add	esp, 8
	fstp	DWORD PTR _src$[ebp+24]

; 1755 : 		src.m_vecVelocity.y = RANDOM_FLOAT( -10, 10 );

	push	ecx
	movss	xmm0, DWORD PTR __real@41200000
	movss	DWORD PTR [esp], xmm0
	push	ecx
	movss	xmm0, DWORD PTR __real@c1200000
	movss	DWORD PTR [esp], xmm0
	call	DWORD PTR ?gEngfuncs@@3Ucl_enginefuncs_s@@A+268
	add	esp, 8
	fstp	DWORD PTR _src$[ebp+28]

; 1756 : 		src.m_vecVelocity.z = RANDOM_FLOAT( -10, 10 ) + RANDOM_FLOAT( -5, 5 ) + 25;

	push	ecx
	movss	xmm0, DWORD PTR __real@41200000
	movss	DWORD PTR [esp], xmm0
	push	ecx
	movss	xmm0, DWORD PTR __real@c1200000
	movss	DWORD PTR [esp], xmm0
	call	DWORD PTR ?gEngfuncs@@3Ucl_enginefuncs_s@@A+268
	add	esp, 8
	fstp	DWORD PTR tv601[ebp]
	movss	xmm0, DWORD PTR tv601[ebp]
	push	ecx
	movss	xmm1, DWORD PTR __real@40a00000
	movss	DWORD PTR [esp], xmm1
	push	ecx
	movss	xmm1, DWORD PTR __real@c0a00000
	movss	DWORD PTR [esp], xmm1
	movss	DWORD PTR tv938[ebp], xmm0
	call	DWORD PTR ?gEngfuncs@@3Ucl_enginefuncs_s@@A+268
	add	esp, 8
	fstp	DWORD PTR tv609[ebp]
	movss	xmm0, DWORD PTR tv938[ebp]
	addss	xmm0, DWORD PTR tv609[ebp]
	addss	xmm0, DWORD PTR __real@41c80000
	movss	DWORD PTR _src$[ebp+32], xmm0

; 1757 : 		src.m_vecAccel = Vector( 0, 0, 0 );

	push	ecx
	xorps	xmm0, xmm0
	movss	DWORD PTR [esp], xmm0
	push	ecx
	xorps	xmm0, xmm0
	movss	DWORD PTR [esp], xmm0
	push	ecx
	xorps	xmm0, xmm0
	movss	DWORD PTR [esp], xmm0
	lea	ecx, DWORD PTR $T9[ebp]
	call	??0Vector@@QAE@MMM@Z			; Vector::Vector
	mov	ecx, DWORD PTR [eax]
	mov	DWORD PTR _src$[ebp+36], ecx
	mov	edx, DWORD PTR [eax+4]
	mov	DWORD PTR _src$[ebp+40], edx
	mov	eax, DWORD PTR [eax+8]
	mov	DWORD PTR _src$[ebp+44], eax

; 1758 : 		src.m_vecColor = Vector( 0, 0, 0 );

	push	ecx
	xorps	xmm0, xmm0
	movss	DWORD PTR [esp], xmm0
	push	ecx
	xorps	xmm0, xmm0
	movss	DWORD PTR [esp], xmm0
	push	ecx
	xorps	xmm0, xmm0
	movss	DWORD PTR [esp], xmm0
	lea	ecx, DWORD PTR $T8[ebp]
	call	??0Vector@@QAE@MMM@Z			; Vector::Vector
	mov	ecx, DWORD PTR [eax]
	mov	DWORD PTR _src$[ebp+48], ecx
	mov	edx, DWORD PTR [eax+4]
	mov	DWORD PTR _src$[ebp+52], edx
	mov	eax, DWORD PTR [eax+8]
	mov	DWORD PTR _src$[ebp+56], eax

; 1759 : 		src.m_vecColorVelocity = Vector( 0.75, 0.75, 0.75 );

	push	ecx
	movss	xmm0, DWORD PTR __real@3f400000
	movss	DWORD PTR [esp], xmm0
	push	ecx
	movss	xmm0, DWORD PTR __real@3f400000
	movss	DWORD PTR [esp], xmm0
	push	ecx
	movss	xmm0, DWORD PTR __real@3f400000
	movss	DWORD PTR [esp], xmm0
	lea	ecx, DWORD PTR $T7[ebp]
	call	??0Vector@@QAE@MMM@Z			; Vector::Vector
	mov	ecx, DWORD PTR [eax]
	mov	DWORD PTR _src$[ebp+60], ecx
	mov	edx, DWORD PTR [eax+4]
	mov	DWORD PTR _src$[ebp+64], edx
	mov	eax, DWORD PTR [eax+8]
	mov	DWORD PTR _src$[ebp+68], eax

; 1760 : 		src.m_flAlpha = 0.5;

	movss	xmm0, DWORD PTR __real@3f000000
	movss	DWORD PTR _src$[ebp+72], xmm0

; 1761 : 		src.m_flStartAlpha = 0.0f;

	xorps	xmm0, xmm0
	movss	DWORD PTR _src$[ebp+112], xmm0

; 1762 : 		src.m_flAlphaVelocity = RANDOM_FLOAT( -0.1, -0.2 );

	push	ecx
	movss	xmm0, DWORD PTR __real@be4ccccd
	movss	DWORD PTR [esp], xmm0
	push	ecx
	movss	xmm0, DWORD PTR __real@bdcccccd
	movss	DWORD PTR [esp], xmm0
	call	DWORD PTR ?gEngfuncs@@3Ucl_enginefuncs_s@@A+268
	add	esp, 8
	fstp	DWORD PTR _src$[ebp+76]

; 1763 : 		src.m_flRadius = 30 + RANDOM_FLOAT( -15, 15 );

	push	ecx
	movss	xmm0, DWORD PTR __real@41700000
	movss	DWORD PTR [esp], xmm0
	push	ecx
	movss	xmm0, DWORD PTR __real@c1700000
	movss	DWORD PTR [esp], xmm0
	call	DWORD PTR ?gEngfuncs@@3Ucl_enginefuncs_s@@A+268
	add	esp, 8
	fstp	DWORD PTR tv670[ebp]
	movss	xmm0, DWORD PTR tv670[ebp]
	addss	xmm0, DWORD PTR __real@41f00000
	movss	DWORD PTR _src$[ebp+80], xmm0

; 1764 : 		src.m_flRadiusVelocity = 15 + RANDOM_FLOAT( -7.5, 7.5 );

	push	ecx
	movss	xmm0, DWORD PTR __real@40f00000
	movss	DWORD PTR [esp], xmm0
	push	ecx
	movss	xmm0, DWORD PTR __real@c0f00000
	movss	DWORD PTR [esp], xmm0
	call	DWORD PTR ?gEngfuncs@@3Ucl_enginefuncs_s@@A+268
	add	esp, 8
	fstp	DWORD PTR tv679[ebp]
	movss	xmm0, DWORD PTR tv679[ebp]
	addss	xmm0, DWORD PTR __real@41700000
	movss	DWORD PTR _src$[ebp+84], xmm0

; 1765 : 		src.m_flLength = 1;

	movss	xmm0, DWORD PTR __real@3f800000
	movss	DWORD PTR _src$[ebp+88], xmm0

; 1766 : 		src.m_flLengthVelocity = 0;

	xorps	xmm0, xmm0
	movss	DWORD PTR _src$[ebp+92], xmm0

; 1767 : 		src.m_flRotation = RANDOM_LONG( 0, 360 );

	push	360					; 00000168H
	push	0
	call	DWORD PTR ?gEngfuncs@@3Ucl_enginefuncs_s@@A+272
	add	esp, 8
	cvtsi2ss xmm0, eax
	movss	DWORD PTR _src$[ebp+96], xmm0

; 1768 : 		src.m_flRotationVelocity = 0;

	xorps	xmm0, xmm0
	movss	DWORD PTR _src$[ebp+100], xmm0

; 1769 : 		src.m_flDistance = 0;

	xorps	xmm0, xmm0
	movss	DWORD PTR _src$[ebp+108], xmm0

; 1770 : 		src.ParticleType = TYPE_SMOKE;

	mov	DWORD PTR _src$[ebp+144], 3

; 1771 : 		src.EntIndex = EntIndex;

	mov	eax, DWORD PTR _EntIndex$[ebp]
	mov	DWORD PTR _src$[ebp+168], eax

; 1772 : 
; 1773 : 		if( !AddParticle( &src, m_hSmoke, flags ))

	mov	eax, DWORD PTR _flags$[ebp]
	push	eax
	mov	ecx, DWORD PTR _this$[ebp]
	mov	edx, DWORD PTR [ecx+2911252]
	push	edx
	lea	eax, DWORD PTR _src$[ebp]
	push	eax
	mov	ecx, DWORD PTR _this$[ebp]
	call	?AddParticle@CQuakePartSystem@@QAE_NPAVCQuakePart@@HH@Z ; CQuakePartSystem::AddParticle
	movzx	ecx, al
	test	ecx, ecx
	jne	SHORT $LN16@ExplosionP

; 1774 : 			break;

	jmp	SHORT $LN6@ExplosionP
$LN16@ExplosionP:

; 1775 : 	}

	jmp	$LN5@ExplosionP
$LN6@ExplosionP:

; 1776 : 
; 1777 : 	// smoke ring
; 1778 : 	flags = (FPART_VERTEXLIGHT | FPART_NOTWATER);

	mov	DWORD PTR _flags$[ebp], 132		; 00000084H

; 1779 : 
; 1780 : 	for( i = 0; i < 50; i++ )

	mov	DWORD PTR _i$[ebp], 0
	jmp	SHORT $LN10@ExplosionP
$LN8@ExplosionP:
	mov	eax, DWORD PTR _i$[ebp]
	add	eax, 1
	mov	DWORD PTR _i$[ebp], eax
$LN10@ExplosionP:
	cmp	DWORD PTR _i$[ebp], 50			; 00000032H
	jge	$LN9@ExplosionP

; 1781 : 	{
; 1782 : 		src.m_vecOrigin.x = pos.x + RANDOM_FLOAT( -10, 10 );

	push	ecx
	movss	xmm0, DWORD PTR __real@41200000
	movss	DWORD PTR [esp], xmm0
	push	ecx
	movss	xmm0, DWORD PTR __real@c1200000
	movss	DWORD PTR [esp], xmm0
	call	DWORD PTR ?gEngfuncs@@3Ucl_enginefuncs_s@@A+268
	add	esp, 8
	fstp	DWORD PTR tv700[ebp]
	mov	eax, DWORD PTR _pos$[ebp]
	movss	xmm0, DWORD PTR tv700[ebp]
	addss	xmm0, DWORD PTR [eax]
	movss	DWORD PTR _src$[ebp], xmm0

; 1783 : 		src.m_vecOrigin.y = pos.y + RANDOM_FLOAT( -10, 10 );

	push	ecx
	movss	xmm0, DWORD PTR __real@41200000
	movss	DWORD PTR [esp], xmm0
	push	ecx
	movss	xmm0, DWORD PTR __real@c1200000
	movss	DWORD PTR [esp], xmm0
	call	DWORD PTR ?gEngfuncs@@3Ucl_enginefuncs_s@@A+268
	add	esp, 8
	fstp	DWORD PTR tv710[ebp]
	mov	eax, DWORD PTR _pos$[ebp]
	movss	xmm0, DWORD PTR tv710[ebp]
	addss	xmm0, DWORD PTR [eax+4]
	movss	DWORD PTR _src$[ebp+4], xmm0

; 1784 : 		src.m_vecOrigin.z = pos.z + RANDOM_FLOAT( -10, 10 );

	push	ecx
	movss	xmm0, DWORD PTR __real@41200000
	movss	DWORD PTR [esp], xmm0
	push	ecx
	movss	xmm0, DWORD PTR __real@c1200000
	movss	DWORD PTR [esp], xmm0
	call	DWORD PTR ?gEngfuncs@@3Ucl_enginefuncs_s@@A+268
	add	esp, 8
	fstp	DWORD PTR tv720[ebp]
	mov	eax, DWORD PTR _pos$[ebp]
	movss	xmm0, DWORD PTR tv720[ebp]
	addss	xmm0, DWORD PTR [eax+8]
	movss	DWORD PTR _src$[ebp+8], xmm0

; 1785 : 		src.m_vecVelocity.x = RANDOM_FLOAT( -75, 75 );

	push	ecx
	movss	xmm0, DWORD PTR __real@42960000
	movss	DWORD PTR [esp], xmm0
	push	ecx
	movss	xmm0, DWORD PTR __real@c2960000
	movss	DWORD PTR [esp], xmm0
	call	DWORD PTR ?gEngfuncs@@3Ucl_enginefuncs_s@@A+268
	add	esp, 8
	fstp	DWORD PTR _src$[ebp+24]

; 1786 : 		src.m_vecVelocity.y = RANDOM_FLOAT( -75, 75 );

	push	ecx
	movss	xmm0, DWORD PTR __real@42960000
	movss	DWORD PTR [esp], xmm0
	push	ecx
	movss	xmm0, DWORD PTR __real@c2960000
	movss	DWORD PTR [esp], xmm0
	call	DWORD PTR ?gEngfuncs@@3Ucl_enginefuncs_s@@A+268
	add	esp, 8
	fstp	DWORD PTR _src$[ebp+28]

; 1787 : 		src.m_vecVelocity.z = 0;

	xorps	xmm0, xmm0
	movss	DWORD PTR _src$[ebp+32], xmm0

; 1788 : 		src.m_vecAccel = -0.2 * src.m_vecVelocity;

	lea	eax, DWORD PTR _src$[ebp+24]
	push	eax
	push	ecx
	movss	xmm0, DWORD PTR __real@be4ccccd
	movss	DWORD PTR [esp], xmm0
	lea	ecx, DWORD PTR $T6[ebp]
	push	ecx
	call	??D@YA?AVVector@@MABV0@@Z		; operator*
	add	esp, 12					; 0000000cH
	mov	edx, DWORD PTR [eax]
	mov	DWORD PTR _src$[ebp+36], edx
	mov	ecx, DWORD PTR [eax+4]
	mov	DWORD PTR _src$[ebp+40], ecx
	mov	edx, DWORD PTR [eax+8]
	mov	DWORD PTR _src$[ebp+44], edx

; 1789 : 		src.m_vecColor = Vector( 0.2, 0.2, 0.2 );

	push	ecx
	movss	xmm0, DWORD PTR __real@3e4ccccd
	movss	DWORD PTR [esp], xmm0
	push	ecx
	movss	xmm0, DWORD PTR __real@3e4ccccd
	movss	DWORD PTR [esp], xmm0
	push	ecx
	movss	xmm0, DWORD PTR __real@3e4ccccd
	movss	DWORD PTR [esp], xmm0
	lea	ecx, DWORD PTR $T5[ebp]
	call	??0Vector@@QAE@MMM@Z			; Vector::Vector
	mov	ecx, DWORD PTR [eax]
	mov	DWORD PTR _src$[ebp+48], ecx
	mov	edx, DWORD PTR [eax+4]
	mov	DWORD PTR _src$[ebp+52], edx
	mov	eax, DWORD PTR [eax+8]
	mov	DWORD PTR _src$[ebp+56], eax

; 1790 : 		src.m_vecColorVelocity = Vector( 0, 0, 0 );

	push	ecx
	xorps	xmm0, xmm0
	movss	DWORD PTR [esp], xmm0
	push	ecx
	xorps	xmm0, xmm0
	movss	DWORD PTR [esp], xmm0
	push	ecx
	xorps	xmm0, xmm0
	movss	DWORD PTR [esp], xmm0
	lea	ecx, DWORD PTR $T4[ebp]
	call	??0Vector@@QAE@MMM@Z			; Vector::Vector
	mov	ecx, DWORD PTR [eax]
	mov	DWORD PTR _src$[ebp+60], ecx
	mov	edx, DWORD PTR [eax+4]
	mov	DWORD PTR _src$[ebp+64], edx
	mov	eax, DWORD PTR [eax+8]
	mov	DWORD PTR _src$[ebp+68], eax

; 1791 : 		src.m_flAlpha = 0.5;

	movss	xmm0, DWORD PTR __real@3f000000
	movss	DWORD PTR _src$[ebp+72], xmm0

; 1792 : 		src.m_flStartAlpha = 0.0f;

	xorps	xmm0, xmm0
	movss	DWORD PTR _src$[ebp+112], xmm0

; 1793 : 		src.m_flAlphaVelocity = RANDOM_FLOAT( -0.1, -0.2 );

	push	ecx
	movss	xmm0, DWORD PTR __real@be4ccccd
	movss	DWORD PTR [esp], xmm0
	push	ecx
	movss	xmm0, DWORD PTR __real@bdcccccd
	movss	DWORD PTR [esp], xmm0
	call	DWORD PTR ?gEngfuncs@@3Ucl_enginefuncs_s@@A+268
	add	esp, 8
	fstp	DWORD PTR _src$[ebp+76]

; 1794 : 		src.m_flRadius = 20 + RANDOM_FLOAT( -7, 7 );

	push	ecx
	movss	xmm0, DWORD PTR __real@40e00000
	movss	DWORD PTR [esp], xmm0
	push	ecx
	movss	xmm0, DWORD PTR __real@c0e00000
	movss	DWORD PTR [esp], xmm0
	call	DWORD PTR ?gEngfuncs@@3Ucl_enginefuncs_s@@A+268
	add	esp, 8
	fstp	DWORD PTR tv794[ebp]
	movss	xmm0, DWORD PTR tv794[ebp]
	addss	xmm0, DWORD PTR __real@41a00000
	movss	DWORD PTR _src$[ebp+80], xmm0

; 1795 : 		src.m_flRadiusVelocity = 0;

	xorps	xmm0, xmm0
	movss	DWORD PTR _src$[ebp+84], xmm0

; 1796 : 		src.m_flLength = 1;

	movss	xmm0, DWORD PTR __real@3f800000
	movss	DWORD PTR _src$[ebp+88], xmm0

; 1797 : 		src.m_flLengthVelocity = 0;

	xorps	xmm0, xmm0
	movss	DWORD PTR _src$[ebp+92], xmm0

; 1798 : 		src.m_flRotation = RANDOM_LONG( 0, 360 );

	push	360					; 00000168H
	push	0
	call	DWORD PTR ?gEngfuncs@@3Ucl_enginefuncs_s@@A+272
	add	esp, 8
	cvtsi2ss xmm0, eax
	movss	DWORD PTR _src$[ebp+96], xmm0

; 1799 : 		src.m_flRotationVelocity = RANDOM_LONG( -15, 15);

	push	15					; 0000000fH
	push	-15					; fffffff1H
	call	DWORD PTR ?gEngfuncs@@3Ucl_enginefuncs_s@@A+272
	add	esp, 8
	cvtsi2ss xmm0, eax
	movss	DWORD PTR _src$[ebp+100], xmm0

; 1800 : 		src.m_flDistance = 1500;

	movss	xmm0, DWORD PTR __real@44bb8000
	movss	DWORD PTR _src$[ebp+108], xmm0

; 1801 : 		src.ParticleType = TYPE_SMOKE;

	mov	DWORD PTR _src$[ebp+144], 3

; 1802 : 		src.EntIndex = EntIndex;

	mov	eax, DWORD PTR _EntIndex$[ebp]
	mov	DWORD PTR _src$[ebp+168], eax

; 1803 : 
; 1804 : 		if( !AddParticle( &src, m_hSmoke, flags ) )

	mov	eax, DWORD PTR _flags$[ebp]
	push	eax
	mov	ecx, DWORD PTR _this$[ebp]
	mov	edx, DWORD PTR [ecx+2911252]
	push	edx
	lea	eax, DWORD PTR _src$[ebp]
	push	eax
	mov	ecx, DWORD PTR _this$[ebp]
	call	?AddParticle@CQuakePartSystem@@QAE_NPAVCQuakePart@@HH@Z ; CQuakePartSystem::AddParticle
	movzx	ecx, al
	test	ecx, ecx
	jne	SHORT $LN17@ExplosionP

; 1805 : 			break;

	jmp	SHORT $LN9@ExplosionP
$LN17@ExplosionP:

; 1806 : 	}

	jmp	$LN8@ExplosionP
$LN9@ExplosionP:

; 1807 : 
; 1808 : 	// explosion fireballs
; 1809 : 	flags = FPART_NOTWATER;

	mov	DWORD PTR _flags$[ebp], 128		; 00000080H

; 1810 : 
; 1811 : 	for( i = 0; i < 30; i++ )

	mov	DWORD PTR _i$[ebp], 0
	jmp	SHORT $LN13@ExplosionP
$LN11@ExplosionP:
	mov	eax, DWORD PTR _i$[ebp]
	add	eax, 1
	mov	DWORD PTR _i$[ebp], eax
$LN13@ExplosionP:
	cmp	DWORD PTR _i$[ebp], 30			; 0000001eH
	jge	$LN12@ExplosionP

; 1812 : 	{
; 1813 : 		src.m_vecOrigin.x = pos.x + RANDOM_FLOAT( -7.5f, 7.5f );

	push	ecx
	movss	xmm0, DWORD PTR __real@40f00000
	movss	DWORD PTR [esp], xmm0
	push	ecx
	movss	xmm0, DWORD PTR __real@c0f00000
	movss	DWORD PTR [esp], xmm0
	call	DWORD PTR ?gEngfuncs@@3Ucl_enginefuncs_s@@A+268
	add	esp, 8
	fstp	DWORD PTR tv816[ebp]
	mov	eax, DWORD PTR _pos$[ebp]
	movss	xmm0, DWORD PTR tv816[ebp]
	addss	xmm0, DWORD PTR [eax]
	movss	DWORD PTR _src$[ebp], xmm0

; 1814 : 		src.m_vecOrigin.y = pos.y + RANDOM_FLOAT( -7.5f, 7.5 );

	push	ecx
	movss	xmm0, DWORD PTR __real@40f00000
	movss	DWORD PTR [esp], xmm0
	push	ecx
	movss	xmm0, DWORD PTR __real@c0f00000
	movss	DWORD PTR [esp], xmm0
	call	DWORD PTR ?gEngfuncs@@3Ucl_enginefuncs_s@@A+268
	add	esp, 8
	fstp	DWORD PTR tv826[ebp]
	mov	eax, DWORD PTR _pos$[ebp]
	movss	xmm0, DWORD PTR tv826[ebp]
	addss	xmm0, DWORD PTR [eax+4]
	movss	DWORD PTR _src$[ebp+4], xmm0

; 1815 : 		src.m_vecOrigin.z = pos.z + RANDOM_FLOAT( 0, 30 );

	push	ecx
	movss	xmm0, DWORD PTR __real@41f00000
	movss	DWORD PTR [esp], xmm0
	push	ecx
	xorps	xmm0, xmm0
	movss	DWORD PTR [esp], xmm0
	call	DWORD PTR ?gEngfuncs@@3Ucl_enginefuncs_s@@A+268
	add	esp, 8
	fstp	DWORD PTR tv836[ebp]
	mov	eax, DWORD PTR _pos$[ebp]
	movss	xmm0, DWORD PTR tv836[ebp]
	addss	xmm0, DWORD PTR [eax+8]
	movss	DWORD PTR _src$[ebp+8], xmm0

; 1816 : 		src.m_vecVelocity.x = RANDOM_FLOAT( -25, 25 );

	push	ecx
	movss	xmm0, DWORD PTR __real@41c80000
	movss	DWORD PTR [esp], xmm0
	push	ecx
	movss	xmm0, DWORD PTR __real@c1c80000
	movss	DWORD PTR [esp], xmm0
	call	DWORD PTR ?gEngfuncs@@3Ucl_enginefuncs_s@@A+268
	add	esp, 8
	fstp	DWORD PTR _src$[ebp+24]

; 1817 : 		src.m_vecVelocity.y = RANDOM_FLOAT( -25, 25 );

	push	ecx
	movss	xmm0, DWORD PTR __real@41c80000
	movss	DWORD PTR [esp], xmm0
	push	ecx
	movss	xmm0, DWORD PTR __real@c1c80000
	movss	DWORD PTR [esp], xmm0
	call	DWORD PTR ?gEngfuncs@@3Ucl_enginefuncs_s@@A+268
	add	esp, 8
	fstp	DWORD PTR _src$[ebp+28]

; 1818 : 		src.m_vecVelocity.z = RANDOM_FLOAT( 30, 60 );

	push	ecx
	movss	xmm0, DWORD PTR __real@42700000
	movss	DWORD PTR [esp], xmm0
	push	ecx
	movss	xmm0, DWORD PTR __real@41f00000
	movss	DWORD PTR [esp], xmm0
	call	DWORD PTR ?gEngfuncs@@3Ucl_enginefuncs_s@@A+268
	add	esp, 8
	fstp	DWORD PTR _src$[ebp+32]

; 1819 : 		src.m_vecAccel = Vector( 0, 0, 0 );

	push	ecx
	xorps	xmm0, xmm0
	movss	DWORD PTR [esp], xmm0
	push	ecx
	xorps	xmm0, xmm0
	movss	DWORD PTR [esp], xmm0
	push	ecx
	xorps	xmm0, xmm0
	movss	DWORD PTR [esp], xmm0
	lea	ecx, DWORD PTR $T3[ebp]
	call	??0Vector@@QAE@MMM@Z			; Vector::Vector
	mov	ecx, DWORD PTR [eax]
	mov	DWORD PTR _src$[ebp+36], ecx
	mov	edx, DWORD PTR [eax+4]
	mov	DWORD PTR _src$[ebp+40], edx
	mov	eax, DWORD PTR [eax+8]
	mov	DWORD PTR _src$[ebp+44], eax

; 1820 : 		src.m_vecColor = Vector( 1, 1, 1 );

	push	ecx
	movss	xmm0, DWORD PTR __real@3f800000
	movss	DWORD PTR [esp], xmm0
	push	ecx
	movss	xmm0, DWORD PTR __real@3f800000
	movss	DWORD PTR [esp], xmm0
	push	ecx
	movss	xmm0, DWORD PTR __real@3f800000
	movss	DWORD PTR [esp], xmm0
	lea	ecx, DWORD PTR $T2[ebp]
	call	??0Vector@@QAE@MMM@Z			; Vector::Vector
	mov	ecx, DWORD PTR [eax]
	mov	DWORD PTR _src$[ebp+48], ecx
	mov	edx, DWORD PTR [eax+4]
	mov	DWORD PTR _src$[ebp+52], edx
	mov	eax, DWORD PTR [eax+8]
	mov	DWORD PTR _src$[ebp+56], eax

; 1821 : 		src.m_vecColorVelocity = Vector( 0, 0, 0 );

	push	ecx
	xorps	xmm0, xmm0
	movss	DWORD PTR [esp], xmm0
	push	ecx
	xorps	xmm0, xmm0
	movss	DWORD PTR [esp], xmm0
	push	ecx
	xorps	xmm0, xmm0
	movss	DWORD PTR [esp], xmm0
	lea	ecx, DWORD PTR $T1[ebp]
	call	??0Vector@@QAE@MMM@Z			; Vector::Vector
	mov	ecx, DWORD PTR [eax]
	mov	DWORD PTR _src$[ebp+60], ecx
	mov	edx, DWORD PTR [eax+4]
	mov	DWORD PTR _src$[ebp+64], edx
	mov	eax, DWORD PTR [eax+8]
	mov	DWORD PTR _src$[ebp+68], eax

; 1822 : 		src.m_flAlpha = 0.5;

	movss	xmm0, DWORD PTR __real@3f000000
	movss	DWORD PTR _src$[ebp+72], xmm0

; 1823 : 		src.m_flStartAlpha = 0.0f;

	xorps	xmm0, xmm0
	movss	DWORD PTR _src$[ebp+112], xmm0

; 1824 : 		src.m_flAlphaVelocity = RANDOM_FLOAT( -1.25, -0.85 );

	push	ecx
	movss	xmm0, DWORD PTR __real@bf59999a
	movss	DWORD PTR [esp], xmm0
	push	ecx
	movss	xmm0, DWORD PTR __real@bfa00000
	movss	DWORD PTR [esp], xmm0
	call	DWORD PTR ?gEngfuncs@@3Ucl_enginefuncs_s@@A+268
	add	esp, 8
	fstp	DWORD PTR _src$[ebp+76]

; 1825 : 		src.m_flRadius = 15 + RANDOM_FLOAT( 0, 25 );

	push	ecx
	movss	xmm0, DWORD PTR __real@41c80000
	movss	DWORD PTR [esp], xmm0
	push	ecx
	xorps	xmm0, xmm0
	movss	DWORD PTR [esp], xmm0
	call	DWORD PTR ?gEngfuncs@@3Ucl_enginefuncs_s@@A+268
	add	esp, 8
	fstp	DWORD PTR tv917[ebp]
	movss	xmm0, DWORD PTR tv917[ebp]
	addss	xmm0, DWORD PTR __real@41700000
	movss	DWORD PTR _src$[ebp+80], xmm0

; 1826 : 		src.m_flRadiusVelocity = RANDOM_FLOAT( 1, 4 );

	push	ecx
	movss	xmm0, DWORD PTR __real@40800000
	movss	DWORD PTR [esp], xmm0
	push	ecx
	movss	xmm0, DWORD PTR __real@3f800000
	movss	DWORD PTR [esp], xmm0
	call	DWORD PTR ?gEngfuncs@@3Ucl_enginefuncs_s@@A+268
	add	esp, 8
	fstp	DWORD PTR _src$[ebp+84]

; 1827 : 		src.m_flLength = 1;

	movss	xmm0, DWORD PTR __real@3f800000
	movss	DWORD PTR _src$[ebp+88], xmm0

; 1828 : 		src.m_flLengthVelocity = 0;

	xorps	xmm0, xmm0
	movss	DWORD PTR _src$[ebp+92], xmm0

; 1829 : 		src.m_flRotation = RANDOM_LONG( 0, 359 );

	push	359					; 00000167H
	push	0
	call	DWORD PTR ?gEngfuncs@@3Ucl_enginefuncs_s@@A+272
	add	esp, 8
	cvtsi2ss xmm0, eax
	movss	DWORD PTR _src$[ebp+96], xmm0

; 1830 : 		src.m_flRotationVelocity = RANDOM_LONG( -15, 15 );

	push	15					; 0000000fH
	push	-15					; fffffff1H
	call	DWORD PTR ?gEngfuncs@@3Ucl_enginefuncs_s@@A+272
	add	esp, 8
	cvtsi2ss xmm0, eax
	movss	DWORD PTR _src$[ebp+100], xmm0

; 1831 : 		src.m_flDistance = 0;

	xorps	xmm0, xmm0
	movss	DWORD PTR _src$[ebp+108], xmm0

; 1832 : 		src.ParticleType = TYPE_FIREBALL;

	mov	DWORD PTR _src$[ebp+144], 8

; 1833 : 		src.EntIndex = EntIndex;

	mov	eax, DWORD PTR _EntIndex$[ebp]
	mov	DWORD PTR _src$[ebp+168], eax

; 1834 : 
; 1835 : 		if( !AddParticle( &src, m_hExplosion, flags ) )

	mov	eax, DWORD PTR _flags$[ebp]
	push	eax
	mov	ecx, DWORD PTR _this$[ebp]
	mov	edx, DWORD PTR [ecx+2911276]
	push	edx
	lea	eax, DWORD PTR _src$[ebp]
	push	eax
	mov	ecx, DWORD PTR _this$[ebp]
	call	?AddParticle@CQuakePartSystem@@QAE_NPAVCQuakePart@@HH@Z ; CQuakePartSystem::AddParticle
	movzx	ecx, al
	test	ecx, ecx
	jne	SHORT $LN18@ExplosionP

; 1836 : 			break;

	jmp	SHORT $LN12@ExplosionP
$LN18@ExplosionP:

; 1837 : 	}

	jmp	$LN11@ExplosionP
$LN12@ExplosionP:
$LN1@ExplosionP:

; 1838 : }

	pop	edi
	pop	esi
	pop	ebx
	mov	esp, ebp
	pop	ebp
	ret	8
?ExplosionParticles@CQuakePartSystem@@QAEXHABVVector@@@Z ENDP ; CQuakePartSystem::ExplosionParticles
_TEXT	ENDS
; Function compile flags: /Odtp /ZI
; File d:\!diffusion 2020\source code 2022\client-server\client\render\r_quakeparticle.cpp
;	COMDAT ?DrawParticles@CQuakePartSystem@@QAEXAAV?$MemBlock@VCQuakePart@@@@@Z
_TEXT	SEGMENT
tv730 = -964						; size = 4
tv292 = -964						; size = 8
tv2037 = -960						; size = 8
tv880 = -960						; size = 4
tv876 = -960						; size = 4
tv872 = -960						; size = 4
tv729 = -960						; size = 4
tv654 = -960						; size = 4
tv305 = -960						; size = 4
tv274 = -960						; size = 4
tv262 = -960						; size = 4
tv250 = -960						; size = 4
tv1807 = -956						; size = 4
tv1505 = -956						; size = 4
tv879 = -956						; size = 4
tv875 = -956						; size = 4
tv871 = -956						; size = 4
tv726 = -956						; size = 4
tv653 = -956						; size = 4
tv559 = -956						; size = 4
tv303 = -956						; size = 4
tv290 = -956						; size = 4
tv273 = -956						; size = 4
tv261 = -956						; size = 4
tv249 = -956						; size = 4
$T1 = -952						; size = 12
$T2 = -940						; size = 12
$T3 = -928						; size = 12
$T4 = -916						; size = 12
$T5 = -904						; size = 12
$T6 = -892						; size = 12
$T7 = -880						; size = 12
$T8 = -868						; size = 12
$T9 = -856						; size = 12
$T10 = -844						; size = 12
$T11 = -832						; size = 12
$T12 = -820						; size = 12
$T13 = -808						; size = 12
$T14 = -796						; size = 12
$T15 = -784						; size = 12
$T16 = -772						; size = 12
$T17 = -760						; size = 12
$T18 = -748						; size = 12
$T19 = -736						; size = 12
$T20 = -724						; size = 12
$T21 = -712						; size = 12
$T22 = -700						; size = 12
$T23 = -688						; size = 12
$T24 = -676						; size = 12
$T25 = -664						; size = 12
$T26 = -652						; size = 12
$T27 = -640						; size = 12
$T28 = -628						; size = 12
$T29 = -616						; size = 12
$T30 = -604						; size = 12
$T31 = -592						; size = 12
$T32 = -580						; size = 12
$T33 = -568						; size = 12
$T34 = -556						; size = 12
$T35 = -544						; size = 12
$T36 = -532						; size = 12
$T37 = -520						; size = 12
$T38 = -508						; size = 12
_scale$39 = -368					; size = 4
_f$40 = -364						; size = 4
_light$41 = -360					; size = 12
_dot$42 = -348						; size = 4
_d$43 = -344						; size = 4
_pmtrace$44 = -340					; size = 68
_contents$45 = -272					; size = 4
_DistanceToParticle$46 = -268				; size = 4
_ent$47 = -264						; size = 4
_i$48 = -260						; size = 4
_curColor$49 = -256					; size = 12
_curRotation$50 = -244					; size = 4
_curLength$51 = -240					; size = 4
_curRadius$52 = -236					; size = 4
_curAlpha$53 = -232					; size = 4
_time2$54 = -228					; size = 4
_time$55 = -224						; size = 4
_vel$ = -220						; size = 12
_org3$ = -208						; size = 12
_org2$ = -196						; size = 12
_org$ = -184						; size = 12
_gravity$ = -172					; size = 4
_curParticle$ = -168					; size = 4
_absmax$ = -164						; size = 12
_absmin$ = -152						; size = 12
_verts$ = -140						; size = 48
_axis$ = -92						; size = 36
_ViewVec$ = -56						; size = 12
_Up$ = -44						; size = 12
_Right$ = -32						; size = 12
_Forward$ = -20						; size = 12
_this$ = -8						; size = 4
__$ArrayPad$ = -4					; size = 4
_ParticleArray$ = 8					; size = 4
?DrawParticles@CQuakePartSystem@@QAEXAAV?$MemBlock@VCQuakePart@@@@@Z PROC ; CQuakePartSystem::DrawParticles, COMDAT
; _this$ = ecx

; 55   : {				

	push	ebp
	mov	ebp, esp
	sub	esp, 964				; 000003c4H
	mov	eax, DWORD PTR ___security_cookie
	xor	eax, ebp
	mov	DWORD PTR __$ArrayPad$[ebp], eax
	push	ebx
	push	esi
	push	edi
	mov	DWORD PTR _this$[ebp], ecx

; 56   : 	if( !ParticleArray.StartPass() )

	mov	ecx, DWORD PTR _ParticleArray$[ebp]
	call	?StartPass@?$MemBlock@VCQuakePart@@@@QAE_NXZ ; MemBlock<CQuakePart>::StartPass
	movzx	eax, al
	test	eax, eax
	jne	SHORT $LN11@DrawPartic

; 57   : 		return;

	jmp	$LN1@DrawPartic
$LN11@DrawPartic:

; 58   : 
; 59   : 	Vector Forward, Right, Up, ViewVec;

	lea	ecx, DWORD PTR _Forward$[ebp]
	call	??0Vector@@QAE@XZ			; Vector::Vector
	lea	ecx, DWORD PTR _Right$[ebp]
	call	??0Vector@@QAE@XZ			; Vector::Vector
	lea	ecx, DWORD PTR _Up$[ebp]
	call	??0Vector@@QAE@XZ			; Vector::Vector
	lea	ecx, DWORD PTR _ViewVec$[ebp]
	call	??0Vector@@QAE@XZ			; Vector::Vector

; 60   : 	Vector axis[3], verts[4];

	push	OFFSET ??0Vector@@QAE@XZ		; Vector::Vector
	push	3
	push	12					; 0000000cH
	lea	eax, DWORD PTR _axis$[ebp]
	push	eax
	call	??_H@YGXPAXIIP6EPAX0@Z@Z
	push	OFFSET ??0Vector@@QAE@XZ		; Vector::Vector
	push	4
	push	12					; 0000000cH
	lea	eax, DWORD PTR _verts$[ebp]
	push	eax
	call	??_H@YGXPAXIIP6EPAX0@Z@Z

; 61   : 	Vector absmin, absmax;

	lea	ecx, DWORD PTR _absmin$[ebp]
	call	??0Vector@@QAE@XZ			; Vector::Vector
	lea	ecx, DWORD PTR _absmax$[ebp]
	call	??0Vector@@QAE@XZ			; Vector::Vector

; 62   : 	
; 63   : 	CQuakePart *curParticle = ParticleArray.GetCurrent();

	mov	ecx, DWORD PTR _ParticleArray$[ebp]
	call	?GetCurrent@?$MemBlock@VCQuakePart@@@@QAEPAVCQuakePart@@XZ ; MemBlock<CQuakePart>::GetCurrent
	mov	DWORD PTR _curParticle$[ebp], eax

; 64   : 
; 65   : 	if( ParticleArray.IsClear() )

	mov	ecx, DWORD PTR _ParticleArray$[ebp]
	call	?IsClear@?$MemBlock@VCQuakePart@@@@QAE_NXZ ; MemBlock<CQuakePart>::IsClear
	movzx	eax, al
	test	eax, eax
	je	SHORT $LN12@DrawPartic

; 66   : 		return; // no objects to draw

	jmp	$LN1@DrawPartic
$LN12@DrawPartic:

; 67   : 
; 68   : 	if( FBitSet( curParticle->m_iFlags, FPART_SKYBOX ) && !(RI->params & RP_SKYPORTALVIEW) )

	mov	eax, DWORD PTR _curParticle$[ebp]
	mov	ecx, DWORD PTR [eax+152]
	and	ecx, 1024				; 00000400H
	je	SHORT $LN13@DrawPartic
	mov	eax, DWORD PTR ?RI@@3PAUref_instance_t@@A ; RI
	mov	ecx, DWORD PTR [eax]
	and	ecx, 32					; 00000020H
	jne	SHORT $LN13@DrawPartic

; 69   : 		return;

	jmp	$LN1@DrawPartic
	jmp	SHORT $LN15@DrawPartic
$LN13@DrawPartic:

; 70   : 	else if( (RI->params & RP_SKYPORTALVIEW) && !FBitSet( curParticle->m_iFlags, FPART_SKYBOX ) )

	mov	eax, DWORD PTR ?RI@@3PAUref_instance_t@@A ; RI
	mov	ecx, DWORD PTR [eax]
	and	ecx, 32					; 00000020H
	je	SHORT $LN15@DrawPartic
	mov	eax, DWORD PTR _curParticle$[ebp]
	mov	ecx, DWORD PTR [eax+152]
	and	ecx, 1024				; 00000400H
	jne	SHORT $LN15@DrawPartic

; 71   : 		return;

	jmp	$LN1@DrawPartic
$LN15@DrawPartic:

; 72   : 
; 73   : 	// draw the particle
; 74   : 	if( !curParticle->m_hTexture )

	mov	eax, DWORD PTR _curParticle$[ebp]
	cmp	DWORD PTR [eax+140], 0
	jne	SHORT $LN16@DrawPartic

; 75   : 		return;

	jmp	$LN1@DrawPartic
$LN16@DrawPartic:

; 76   : 
; 77   : 	if( FBitSet( curParticle->m_iFlags, FPART_FLOATING_ORIENTED ) ) // some of them will be visible from underwater

	mov	eax, DWORD PTR _curParticle$[ebp]
	mov	ecx, DWORD PTR [eax+152]
	and	ecx, 4096				; 00001000H
	je	SHORT $LN17@DrawPartic

; 78   : 		GL_Cull( GL_NONE );

	push	0
	call	?GL_Cull@@YAXI@Z			; GL_Cull
	add	esp, 4

; 79   : 	else

	jmp	SHORT $LN18@DrawPartic
$LN17@DrawPartic:

; 80   : 		GL_Cull( GL_FRONT );

	push	1028					; 00000404H
	call	?GL_Cull@@YAXI@Z			; GL_Cull
	add	esp, 4
$LN18@DrawPartic:

; 81   : 
; 82   : 	m_iNumVerts = m_iNumIndex = 0;

	mov	DWORD PTR ?m_iNumIndex@@3HA, 0
	mov	eax, DWORD PTR ?m_iNumIndex@@3HA
	mov	DWORD PTR ?m_iNumVerts@@3HA, eax

; 83   : 
; 84   : 	pglEnableClientState( GL_VERTEX_ARRAY );

	push	32884					; 00008074H
	call	DWORD PTR ?pglEnableClientState@@3P6GXI@ZA ; pglEnableClientState

; 85   : 	pglVertexPointer( 3, GL_FLOAT, 0, m_vertexarray );

	push	OFFSET ?m_vertexarray@@3PAVVector@@A
	push	0
	push	5126					; 00001406H
	push	3
	call	DWORD PTR ?pglVertexPointer@@3P6GXHIHPBX@ZA ; pglVertexPointer

; 86   : 
; 87   : 	pglEnableClientState( GL_TEXTURE_COORD_ARRAY );

	push	32888					; 00008078H
	call	DWORD PTR ?pglEnableClientState@@3P6GXI@ZA ; pglEnableClientState

; 88   : 	pglTexCoordPointer( 2, GL_FLOAT, 0, m_coordsarray );

	push	OFFSET ?m_coordsarray@@3PAVVector2D@@A
	push	0
	push	5126					; 00001406H
	push	2
	call	DWORD PTR ?pglTexCoordPointer@@3P6GXHIHPBX@ZA ; pglTexCoordPointer

; 89   : 
; 90   : 	pglEnableClientState( GL_COLOR_ARRAY );

	push	32886					; 00008076H
	call	DWORD PTR ?pglEnableClientState@@3P6GXI@ZA ; pglEnableClientState

; 91   : 	pglColorPointer( 4, GL_UNSIGNED_BYTE, 0, m_colorarray );

	push	OFFSET ?m_colorarray@@3PAY03EA
	push	0
	push	5121					; 00001401H
	push	4
	call	DWORD PTR ?pglColorPointer@@3P6GXHIHPBX@ZA ; pglColorPointer

; 92   : 
; 93   : 	float gravity = tr.movevars->gravity * 0.0075f; // diffusion - the value must be fixed - frametime is jumping

	mov	eax, DWORD PTR ?tr@@3Uref_globals_t@@A+5830888
	movss	xmm0, DWORD PTR [eax]
	mulss	xmm0, DWORD PTR __real@3bf5c28f
	movss	DWORD PTR _gravity$[ebp], xmm0

; 94   : 	Vector org, org2, org3, vel;

	lea	ecx, DWORD PTR _org$[ebp]
	call	??0Vector@@QAE@XZ			; Vector::Vector
	lea	ecx, DWORD PTR _org2$[ebp]
	call	??0Vector@@QAE@XZ			; Vector::Vector
	lea	ecx, DWORD PTR _org3$[ebp]
	call	??0Vector@@QAE@XZ			; Vector::Vector
	lea	ecx, DWORD PTR _vel$[ebp]
	call	??0Vector@@QAE@XZ			; Vector::Vector

; 95   : 
; 96   : 	GL_Bind( GL_TEXTURE0, curParticle->m_hTexture );

	mov	eax, DWORD PTR _curParticle$[ebp]
	mov	ecx, DWORD PTR [eax+140]
	push	ecx
	push	0
	call	DWORD PTR ?gRenderfuncs@@3Urender_api_s@@A+132
	add	esp, 8
$LN118@DrawPartic:

; 97   : 
; 98   : 	while( curParticle != NULL )

	cmp	DWORD PTR _curParticle$[ebp], 0
	je	$LN3@DrawPartic

; 99   : 	{
; 100  : 		if( (m_iNumVerts + 4) >= 65536 )

	mov	eax, DWORD PTR ?m_iNumVerts@@3HA
	add	eax, 4
	cmp	eax, 65536				; 00010000H
	jl	$LN19@DrawPartic

; 101  : 		{
; 102  : 			// it's time to flush
; 103  : 			if( GL_Support( R_DRAW_RANGEELEMENTS_EXT ) )

	push	11					; 0000000bH
	call	?GL_Support@@YA_NH@Z			; GL_Support
	add	esp, 4
	movzx	eax, al
	test	eax, eax
	je	SHORT $LN20@DrawPartic

; 104  : 				pglDrawRangeElementsEXT( GL_QUADS, 0, m_iNumVerts, m_iNumIndex, GL_UNSIGNED_SHORT, m_indexarray );

	push	OFFSET ?m_indexarray@@3PAGA
	push	5123					; 00001403H
	mov	eax, DWORD PTR ?m_iNumIndex@@3HA
	push	eax
	mov	ecx, DWORD PTR ?m_iNumVerts@@3HA
	push	ecx
	push	0
	push	7
	call	DWORD PTR ?pglDrawRangeElementsEXT@@3P6GXIIIHIPBX@ZA ; pglDrawRangeElementsEXT
	jmp	SHORT $LN21@DrawPartic
$LN20@DrawPartic:

; 105  : 			else pglDrawElements( GL_QUADS, m_iNumIndex, GL_UNSIGNED_SHORT, m_indexarray );

	push	OFFSET ?m_indexarray@@3PAGA
	push	5123					; 00001403H
	mov	eax, DWORD PTR ?m_iNumIndex@@3HA
	push	eax
	push	7
	call	DWORD PTR ?pglDrawElements@@3P6GXIHIPBX@ZA ; pglDrawElements
$LN21@DrawPartic:

; 106  : 			r_stats.c_total_tris += (m_iNumVerts / 2);

	mov	eax, DWORD PTR ?m_iNumVerts@@3HA
	cdq
	sub	eax, edx
	sar	eax, 1
	add	eax, DWORD PTR ?r_stats@@3Uref_stats_t@@A+60
	mov	DWORD PTR ?r_stats@@3Uref_stats_t@@A+60, eax

; 107  : 			m_iNumVerts = m_iNumIndex = 0;

	mov	DWORD PTR ?m_iNumIndex@@3HA, 0
	mov	eax, DWORD PTR ?m_iNumIndex@@3HA
	mov	DWORD PTR ?m_iNumVerts@@3HA, eax

; 108  : 			r_stats.num_flushes++;

	mov	eax, DWORD PTR ?r_stats@@3Uref_stats_t@@A+88
	add	eax, 1
	mov	DWORD PTR ?r_stats@@3Uref_stats_t@@A+88, eax
$LN19@DrawPartic:

; 109  : 		}
; 110  : 
; 111  : 		// fadeout
; 112  : 		float time = (tr.time - curParticle->m_flTime);

	mov	eax, DWORD PTR _curParticle$[ebp]
	cvtss2sd xmm0, DWORD PTR [eax+148]
	movsd	xmm1, QWORD PTR ?tr@@3Uref_globals_t@@A+8
	subsd	xmm1, xmm0
	cvtsd2ss xmm0, xmm1
	movss	DWORD PTR _time$55[ebp], xmm0

; 113  : 		float time2 = time * time;

	movss	xmm0, DWORD PTR _time$55[ebp]
	mulss	xmm0, DWORD PTR _time$55[ebp]
	movss	DWORD PTR _time2$54[ebp], xmm0

; 114  : 		float curAlpha = curParticle->m_flAlpha + curParticle->m_flAlphaVelocity * time;

	mov	eax, DWORD PTR _curParticle$[ebp]
	movss	xmm0, DWORD PTR [eax+76]
	mulss	xmm0, DWORD PTR _time$55[ebp]
	mov	ecx, DWORD PTR _curParticle$[ebp]
	addss	xmm0, DWORD PTR [ecx+72]
	movss	DWORD PTR _curAlpha$53[ebp], xmm0

; 115  : 		float curRadius = curParticle->m_flRadius + curParticle->m_flRadiusVelocity * time;

	mov	eax, DWORD PTR _curParticle$[ebp]
	movss	xmm0, DWORD PTR [eax+84]
	mulss	xmm0, DWORD PTR _time$55[ebp]
	mov	ecx, DWORD PTR _curParticle$[ebp]
	addss	xmm0, DWORD PTR [ecx+80]
	movss	DWORD PTR _curRadius$52[ebp], xmm0

; 116  : 		float curLength = curParticle->m_flLength + curParticle->m_flLengthVelocity * time;

	mov	eax, DWORD PTR _curParticle$[ebp]
	movss	xmm0, DWORD PTR [eax+92]
	mulss	xmm0, DWORD PTR _time$55[ebp]
	mov	ecx, DWORD PTR _curParticle$[ebp]
	addss	xmm0, DWORD PTR [ecx+88]
	movss	DWORD PTR _curLength$51[ebp], xmm0

; 117  : 		float curRotation = curParticle->m_flRotation + curParticle->m_flRotationVelocity * time;

	mov	eax, DWORD PTR _curParticle$[ebp]
	movss	xmm0, DWORD PTR [eax+100]
	mulss	xmm0, DWORD PTR _time$55[ebp]
	mov	ecx, DWORD PTR _curParticle$[ebp]
	addss	xmm0, DWORD PTR [ecx+96]
	movss	DWORD PTR _curRotation$50[ebp], xmm0

; 118  : 		Vector curColor = curParticle->m_vecColor + curParticle->m_vecColorVelocity * time;

	push	ecx
	movss	xmm0, DWORD PTR _time$55[ebp]
	movss	DWORD PTR [esp], xmm0
	lea	eax, DWORD PTR $T38[ebp]
	push	eax
	mov	ecx, DWORD PTR _curParticle$[ebp]
	add	ecx, 60					; 0000003cH
	call	??DVector@@QBE?AV0@M@Z			; Vector::operator*
	push	eax
	lea	ecx, DWORD PTR _curColor$49[ebp]
	push	ecx
	mov	ecx, DWORD PTR _curParticle$[ebp]
	add	ecx, 48					; 00000030H
	call	??HVector@@QBE?AV0@ABV0@@Z		; Vector::operator+

; 119  : 		
; 120  : 		if( curParticle->ParticleType == TYPE_DUSTMOTE )

	mov	eax, DWORD PTR _curParticle$[ebp]
	cmp	DWORD PTR [eax+144], 1
	jne	$LN5@DrawPartic

; 121  : 		{
; 122  : 			// add velocity for nearby dustmotes
; 123  : 			for( int i = 1; i <= tr.viewparams.maxclients; i++ )

	mov	DWORD PTR _i$48[ebp], 1
	jmp	SHORT $LN6@DrawPartic
$LN4@DrawPartic:
	mov	eax, DWORD PTR _i$48[ebp]
	add	eax, 1
	mov	DWORD PTR _i$48[ebp], eax
$LN6@DrawPartic:
	mov	eax, DWORD PTR _i$48[ebp]
	cmp	eax, DWORD PTR ?tr@@3Uref_globals_t@@A+5830828
	jg	$LN5@DrawPartic

; 124  : 			{
; 125  : 				// find the closest guy to this dustmote
; 126  : 				cl_entity_t *ent = GET_ENTITY( i );

	mov	eax, DWORD PTR _i$48[ebp]
	push	eax
	call	DWORD PTR ?gEngfuncs@@3Ucl_enginefuncs_s@@A+212
	add	esp, 4
	mov	DWORD PTR _ent$47[ebp], eax

; 127  : 				if( !ent )

	cmp	DWORD PTR _ent$47[ebp], 0
	jne	SHORT $LN23@DrawPartic

; 128  : 					continue;

	jmp	SHORT $LN4@DrawPartic
$LN23@DrawPartic:

; 129  : 				if( (ent->curstate.origin - curParticle->m_vecOrigin).Length() < 150 )

	mov	eax, DWORD PTR _curParticle$[ebp]
	push	eax
	lea	ecx, DWORD PTR $T37[ebp]
	push	ecx
	mov	ecx, DWORD PTR _ent$47[ebp]
	add	ecx, 704				; 000002c0H
	call	??GVector@@QBE?AV0@ABV0@@Z		; Vector::operator-
	mov	ecx, eax
	call	?Length@Vector@@QBEMXZ			; Vector::Length
	fstp	DWORD PTR tv1505[ebp]
	movss	xmm0, DWORD PTR __real@43160000
	comiss	xmm0, DWORD PTR tv1505[ebp]
	jbe	$LN24@DrawPartic

; 130  : 				{
; 131  : 					curParticle->m_vecAddedVelocity += ent->curstate.velocity * 0.001;

	push	ecx
	movss	xmm0, DWORD PTR __real@3a83126f
	movss	DWORD PTR [esp], xmm0
	lea	eax, DWORD PTR $T36[ebp]
	push	eax
	mov	ecx, DWORD PTR _ent$47[ebp]
	add	ecx, 800				; 00000320H
	call	??DVector@@QBE?AV0@M@Z			; Vector::operator*
	push	eax
	mov	ecx, DWORD PTR _curParticle$[ebp]
	add	ecx, 116				; 00000074H
	call	??YVector@@QAEAAV0@ABV0@@Z		; Vector::operator+=

; 132  : 					curParticle->m_vecAddedVelocity.x = bound( -100, curParticle->m_vecAddedVelocity.x, 100 );

	mov	eax, DWORD PTR _curParticle$[ebp]
	movss	xmm0, DWORD PTR [eax+116]
	comiss	xmm0, DWORD PTR __real@c2c80000
	jb	SHORT $LN78@DrawPartic
	mov	ecx, DWORD PTR _curParticle$[ebp]
	movss	xmm0, DWORD PTR __real@42c80000
	comiss	xmm0, DWORD PTR [ecx+116]
	jbe	SHORT $LN76@DrawPartic
	mov	edx, DWORD PTR _curParticle$[ebp]
	movss	xmm0, DWORD PTR [edx+116]
	movss	DWORD PTR tv249[ebp], xmm0
	jmp	SHORT $LN77@DrawPartic
$LN76@DrawPartic:
	movss	xmm0, DWORD PTR __real@42c80000
	movss	DWORD PTR tv249[ebp], xmm0
$LN77@DrawPartic:
	movss	xmm0, DWORD PTR tv249[ebp]
	movss	DWORD PTR tv250[ebp], xmm0
	jmp	SHORT $LN79@DrawPartic
$LN78@DrawPartic:
	movss	xmm0, DWORD PTR __real@c2c80000
	movss	DWORD PTR tv250[ebp], xmm0
$LN79@DrawPartic:
	mov	eax, DWORD PTR _curParticle$[ebp]
	movss	xmm0, DWORD PTR tv250[ebp]
	movss	DWORD PTR [eax+116], xmm0

; 133  : 					curParticle->m_vecAddedVelocity.y = bound( -100, curParticle->m_vecAddedVelocity.y, 100 );

	mov	eax, DWORD PTR _curParticle$[ebp]
	movss	xmm0, DWORD PTR [eax+120]
	comiss	xmm0, DWORD PTR __real@c2c80000
	jb	SHORT $LN82@DrawPartic
	mov	ecx, DWORD PTR _curParticle$[ebp]
	movss	xmm0, DWORD PTR __real@42c80000
	comiss	xmm0, DWORD PTR [ecx+120]
	jbe	SHORT $LN80@DrawPartic
	mov	edx, DWORD PTR _curParticle$[ebp]
	movss	xmm0, DWORD PTR [edx+120]
	movss	DWORD PTR tv261[ebp], xmm0
	jmp	SHORT $LN81@DrawPartic
$LN80@DrawPartic:
	movss	xmm0, DWORD PTR __real@42c80000
	movss	DWORD PTR tv261[ebp], xmm0
$LN81@DrawPartic:
	movss	xmm0, DWORD PTR tv261[ebp]
	movss	DWORD PTR tv262[ebp], xmm0
	jmp	SHORT $LN83@DrawPartic
$LN82@DrawPartic:
	movss	xmm0, DWORD PTR __real@c2c80000
	movss	DWORD PTR tv262[ebp], xmm0
$LN83@DrawPartic:
	mov	eax, DWORD PTR _curParticle$[ebp]
	movss	xmm0, DWORD PTR tv262[ebp]
	movss	DWORD PTR [eax+120], xmm0

; 134  : 					curParticle->m_vecAddedVelocity.z = bound( -100, curParticle->m_vecAddedVelocity.z, 100 );

	mov	eax, DWORD PTR _curParticle$[ebp]
	movss	xmm0, DWORD PTR [eax+124]
	comiss	xmm0, DWORD PTR __real@c2c80000
	jb	SHORT $LN86@DrawPartic
	mov	ecx, DWORD PTR _curParticle$[ebp]
	movss	xmm0, DWORD PTR __real@42c80000
	comiss	xmm0, DWORD PTR [ecx+124]
	jbe	SHORT $LN84@DrawPartic
	mov	edx, DWORD PTR _curParticle$[ebp]
	movss	xmm0, DWORD PTR [edx+124]
	movss	DWORD PTR tv273[ebp], xmm0
	jmp	SHORT $LN85@DrawPartic
$LN84@DrawPartic:
	movss	xmm0, DWORD PTR __real@42c80000
	movss	DWORD PTR tv273[ebp], xmm0
$LN85@DrawPartic:
	movss	xmm0, DWORD PTR tv273[ebp]
	movss	DWORD PTR tv274[ebp], xmm0
	jmp	SHORT $LN87@DrawPartic
$LN86@DrawPartic:
	movss	xmm0, DWORD PTR __real@c2c80000
	movss	DWORD PTR tv274[ebp], xmm0
$LN87@DrawPartic:
	mov	eax, DWORD PTR _curParticle$[ebp]
	movss	xmm0, DWORD PTR tv274[ebp]
	movss	DWORD PTR [eax+124], xmm0

; 135  : 					break;

	jmp	SHORT $LN5@DrawPartic
$LN24@DrawPartic:

; 136  : 				}
; 137  : 			}

	jmp	$LN4@DrawPartic
$LN5@DrawPartic:

; 138  : 		}
; 139  : 
; 140  : 		if( (curParticle->m_iFlags & FPART_DISTANCESCALE) && (curParticle->m_flRadiusVelocity == 0.0f) )

	mov	eax, DWORD PTR _curParticle$[ebp]
	mov	ecx, DWORD PTR [eax+152]
	and	ecx, 512				; 00000200H
	je	$LN25@DrawPartic
	mov	eax, DWORD PTR _curParticle$[ebp]
	movss	xmm0, DWORD PTR [eax+84]
	ucomiss	xmm0, DWORD PTR __real@00000000
	lahf
	test	ah, 68					; 00000044H
	jp	$LN25@DrawPartic

; 141  : 		{
; 142  : 			float DistanceToParticle = (tr.viewparams.vieworg - curParticle->m_vecOrigin).Length();

	mov	eax, DWORD PTR _curParticle$[ebp]
	push	eax
	lea	ecx, DWORD PTR $T35[ebp]
	push	ecx
	mov	ecx, OFFSET ?tr@@3Uref_globals_t@@A+5830656
	call	??GVector@@QBE?AV0@ABV0@@Z		; Vector::operator-
	mov	ecx, eax
	call	?Length@Vector@@QBEMXZ			; Vector::Length
	fstp	DWORD PTR _DistanceToParticle$46[ebp]

; 143  : 			DistanceToParticle = bound( 0.1, DistanceToParticle, 1000 ) / 1000;

	cvtss2sd xmm0, DWORD PTR _DistanceToParticle$46[ebp]
	comisd	xmm0, QWORD PTR __real@3fb999999999999a
	jb	SHORT $LN90@DrawPartic
	movss	xmm0, DWORD PTR __real@447a0000
	comiss	xmm0, DWORD PTR _DistanceToParticle$46[ebp]
	jbe	SHORT $LN88@DrawPartic
	movss	xmm0, DWORD PTR _DistanceToParticle$46[ebp]
	movss	DWORD PTR tv290[ebp], xmm0
	jmp	SHORT $LN89@DrawPartic
$LN88@DrawPartic:
	movss	xmm0, DWORD PTR __real@447a0000
	movss	DWORD PTR tv290[ebp], xmm0
$LN89@DrawPartic:
	cvtss2sd xmm0, DWORD PTR tv290[ebp]
	movsd	QWORD PTR tv292[ebp], xmm0
	jmp	SHORT $LN91@DrawPartic
$LN90@DrawPartic:
	movsd	xmm0, QWORD PTR __real@3fb999999999999a
	movsd	QWORD PTR tv292[ebp], xmm0
$LN91@DrawPartic:
	movsd	xmm0, QWORD PTR tv292[ebp]
	divsd	xmm0, QWORD PTR __real@408f400000000000
	cvtsd2ss xmm0, xmm0
	movss	DWORD PTR _DistanceToParticle$46[ebp], xmm0

; 144  : 			curRadius = curParticle->m_flRadius * DistanceToParticle * 10;

	mov	eax, DWORD PTR _curParticle$[ebp]
	movss	xmm0, DWORD PTR [eax+80]
	mulss	xmm0, DWORD PTR _DistanceToParticle$46[ebp]
	mulss	xmm0, DWORD PTR __real@41200000
	movss	DWORD PTR _curRadius$52[ebp], xmm0

; 145  : 			curRadius = bound( curParticle->m_flMinScale, curRadius, curParticle->m_flMaxScale );

	mov	eax, DWORD PTR _curParticle$[ebp]
	movss	xmm0, DWORD PTR _curRadius$52[ebp]
	comiss	xmm0, DWORD PTR [eax+128]
	jb	SHORT $LN94@DrawPartic
	mov	ecx, DWORD PTR _curParticle$[ebp]
	movss	xmm0, DWORD PTR [ecx+132]
	comiss	xmm0, DWORD PTR _curRadius$52[ebp]
	jbe	SHORT $LN92@DrawPartic
	movss	xmm0, DWORD PTR _curRadius$52[ebp]
	movss	DWORD PTR tv303[ebp], xmm0
	jmp	SHORT $LN93@DrawPartic
$LN92@DrawPartic:
	mov	edx, DWORD PTR _curParticle$[ebp]
	movss	xmm0, DWORD PTR [edx+132]
	movss	DWORD PTR tv303[ebp], xmm0
$LN93@DrawPartic:
	movss	xmm0, DWORD PTR tv303[ebp]
	movss	DWORD PTR tv305[ebp], xmm0
	jmp	SHORT $LN95@DrawPartic
$LN94@DrawPartic:
	mov	eax, DWORD PTR _curParticle$[ebp]
	movss	xmm0, DWORD PTR [eax+128]
	movss	DWORD PTR tv305[ebp], xmm0
$LN95@DrawPartic:
	movss	xmm0, DWORD PTR tv305[ebp]
	movss	DWORD PTR _curRadius$52[ebp], xmm0
$LN25@DrawPartic:

; 146  : 		}
; 147  : 		
; 148  : 		if( FBitSet( curParticle->m_iFlags, FPART_FADEIN ) )

	mov	eax, DWORD PTR _curParticle$[ebp]
	mov	ecx, DWORD PTR [eax+152]
	and	ecx, 256				; 00000100H
	je	SHORT $LN26@DrawPartic

; 149  : 		{
; 150  : 			curAlpha = curParticle->m_flStartAlpha - curParticle->m_flAlphaVelocity * time;

	mov	eax, DWORD PTR _curParticle$[ebp]
	movss	xmm0, DWORD PTR [eax+76]
	mulss	xmm0, DWORD PTR _time$55[ebp]
	mov	ecx, DWORD PTR _curParticle$[ebp]
	movss	xmm1, DWORD PTR [ecx+112]
	subss	xmm1, xmm0
	movss	DWORD PTR _curAlpha$53[ebp], xmm1

; 151  : 		}
; 152  : 		else

	jmp	$LN28@DrawPartic
$LN26@DrawPartic:

; 153  : 		{
; 154  : 			curAlpha = curParticle->m_flAlpha + curParticle->m_flAlphaVelocity * time;

	mov	eax, DWORD PTR _curParticle$[ebp]
	movss	xmm0, DWORD PTR [eax+76]
	mulss	xmm0, DWORD PTR _time$55[ebp]
	mov	ecx, DWORD PTR _curParticle$[ebp]
	addss	xmm0, DWORD PTR [ecx+72]
	movss	DWORD PTR _curAlpha$53[ebp], xmm0

; 155  : 			if( curAlpha <= 0.0f || curRadius <= 0.0f || curLength <= 0.0f )

	xorps	xmm0, xmm0
	comiss	xmm0, DWORD PTR _curAlpha$53[ebp]
	jae	SHORT $LN29@DrawPartic
	xorps	xmm0, xmm0
	comiss	xmm0, DWORD PTR _curRadius$52[ebp]
	jae	SHORT $LN29@DrawPartic
	xorps	xmm0, xmm0
	comiss	xmm0, DWORD PTR _curLength$51[ebp]
	jb	SHORT $LN28@DrawPartic
$LN29@DrawPartic:

; 156  : 			{
; 157  : 				if( curParticle->EntIndex > 0 )

	mov	eax, DWORD PTR _curParticle$[ebp]
	cmp	DWORD PTR [eax+168], 0
	jle	SHORT $LN30@DrawPartic

; 158  : 					ParticleCountPerEnt[curParticle->EntIndex]--;

	mov	eax, DWORD PTR _curParticle$[ebp]
	mov	ecx, DWORD PTR [eax+168]
	mov	edx, DWORD PTR _this$[ebp]
	mov	eax, DWORD PTR [edx+ecx*4+2911284]
	sub	eax, 1
	mov	ecx, DWORD PTR _curParticle$[ebp]
	mov	edx, DWORD PTR [ecx+168]
	mov	ecx, DWORD PTR _this$[ebp]
	mov	DWORD PTR [ecx+edx*4+2911284], eax
$LN30@DrawPartic:

; 159  : 				ParticleArray.DeleteCurrent();

	mov	ecx, DWORD PTR _ParticleArray$[ebp]
	call	?DeleteCurrent@?$MemBlock@VCQuakePart@@@@QAEXXZ ; MemBlock<CQuakePart>::DeleteCurrent

; 160  : 				partcounter--;

	mov	eax, DWORD PTR ?partcounter@@3HA	; partcounter
	sub	eax, 1
	mov	DWORD PTR ?partcounter@@3HA, eax	; partcounter

; 161  : 				goto skip_particle;

	jmp	$LN31@DrawPartic
	jmp	$skip_particle$119
$LN28@DrawPartic:

; 162  : 			}
; 163  : 		}
; 164  : 
; 165  : 		curParticle->m_vecVelocity += curParticle->m_vecAddedVelocity;

	mov	eax, DWORD PTR _curParticle$[ebp]
	add	eax, 116				; 00000074H
	push	eax
	mov	ecx, DWORD PTR _curParticle$[ebp]
	add	ecx, 24					; 00000018H
	call	??YVector@@QAEAAV0@ABV0@@Z		; Vector::operator+=

; 166  : 
; 167  : 		org.x = curParticle->m_vecOrigin.x + curParticle->m_vecVelocity.x * time + curParticle->m_vecAccel.x * time2;

	mov	eax, DWORD PTR _curParticle$[ebp]
	movss	xmm0, DWORD PTR [eax+24]
	mulss	xmm0, DWORD PTR _time$55[ebp]
	mov	ecx, DWORD PTR _curParticle$[ebp]
	addss	xmm0, DWORD PTR [ecx]
	mov	edx, DWORD PTR _curParticle$[ebp]
	movss	xmm1, DWORD PTR [edx+36]
	mulss	xmm1, DWORD PTR _time2$54[ebp]
	addss	xmm0, xmm1
	movss	DWORD PTR _org$[ebp], xmm0

; 168  : 		org.y = curParticle->m_vecOrigin.y + curParticle->m_vecVelocity.y * time + curParticle->m_vecAccel.y * time2;

	mov	eax, DWORD PTR _curParticle$[ebp]
	movss	xmm0, DWORD PTR [eax+28]
	mulss	xmm0, DWORD PTR _time$55[ebp]
	mov	ecx, DWORD PTR _curParticle$[ebp]
	addss	xmm0, DWORD PTR [ecx+4]
	mov	edx, DWORD PTR _curParticle$[ebp]
	movss	xmm1, DWORD PTR [edx+40]
	mulss	xmm1, DWORD PTR _time2$54[ebp]
	addss	xmm0, xmm1
	movss	DWORD PTR _org$[ebp+4], xmm0

; 169  : 		org.z = curParticle->m_vecOrigin.z + curParticle->m_vecVelocity.z * time + curParticle->m_vecAccel.z * time2 * gravity;

	mov	eax, DWORD PTR _curParticle$[ebp]
	movss	xmm0, DWORD PTR [eax+32]
	mulss	xmm0, DWORD PTR _time$55[ebp]
	mov	ecx, DWORD PTR _curParticle$[ebp]
	addss	xmm0, DWORD PTR [ecx+8]
	mov	edx, DWORD PTR _curParticle$[ebp]
	movss	xmm1, DWORD PTR [edx+44]
	mulss	xmm1, DWORD PTR _time2$54[ebp]
	mulss	xmm1, DWORD PTR _gravity$[ebp]
	addss	xmm0, xmm1
	movss	DWORD PTR _org$[ebp+8], xmm0

; 170  : 		
; 171  : 		if( FBitSet( curParticle->m_iFlags, FPART_FADEIN ) )

	mov	eax, DWORD PTR _curParticle$[ebp]
	mov	ecx, DWORD PTR [eax+152]
	and	ecx, 256				; 00000100H
	je	$LN33@DrawPartic

; 172  : 		{
; 173  : 			if( curAlpha >= curParticle->m_flAlpha )

	mov	eax, DWORD PTR _curParticle$[ebp]
	movss	xmm0, DWORD PTR _curAlpha$53[ebp]
	comiss	xmm0, DWORD PTR [eax+72]
	jb	$LN33@DrawPartic

; 174  : 			{
; 175  : 				curParticle->m_vecOrigin.x = curParticle->m_vecOrigin.x + curParticle->m_vecVelocity.x * time + curParticle->m_vecAccel.x * time2;

	mov	eax, DWORD PTR _curParticle$[ebp]
	movss	xmm0, DWORD PTR [eax+24]
	mulss	xmm0, DWORD PTR _time$55[ebp]
	mov	ecx, DWORD PTR _curParticle$[ebp]
	addss	xmm0, DWORD PTR [ecx]
	mov	edx, DWORD PTR _curParticle$[ebp]
	movss	xmm1, DWORD PTR [edx+36]
	mulss	xmm1, DWORD PTR _time2$54[ebp]
	addss	xmm0, xmm1
	mov	eax, DWORD PTR _curParticle$[ebp]
	movss	DWORD PTR [eax], xmm0

; 176  : 				curParticle->m_vecOrigin.y = curParticle->m_vecOrigin.y + curParticle->m_vecVelocity.y * time + curParticle->m_vecAccel.y * time2;

	mov	eax, DWORD PTR _curParticle$[ebp]
	movss	xmm0, DWORD PTR [eax+28]
	mulss	xmm0, DWORD PTR _time$55[ebp]
	mov	ecx, DWORD PTR _curParticle$[ebp]
	addss	xmm0, DWORD PTR [ecx+4]
	mov	edx, DWORD PTR _curParticle$[ebp]
	movss	xmm1, DWORD PTR [edx+40]
	mulss	xmm1, DWORD PTR _time2$54[ebp]
	addss	xmm0, xmm1
	mov	eax, DWORD PTR _curParticle$[ebp]
	movss	DWORD PTR [eax+4], xmm0

; 177  : 				curParticle->m_vecOrigin.z = curParticle->m_vecOrigin.z + curParticle->m_vecVelocity.z * time + curParticle->m_vecAccel.z * time2 * gravity;

	mov	eax, DWORD PTR _curParticle$[ebp]
	movss	xmm0, DWORD PTR [eax+32]
	mulss	xmm0, DWORD PTR _time$55[ebp]
	mov	ecx, DWORD PTR _curParticle$[ebp]
	addss	xmm0, DWORD PTR [ecx+8]
	mov	edx, DWORD PTR _curParticle$[ebp]
	movss	xmm1, DWORD PTR [edx+44]
	mulss	xmm1, DWORD PTR _time2$54[ebp]
	mulss	xmm1, DWORD PTR _gravity$[ebp]
	addss	xmm0, xmm1
	mov	eax, DWORD PTR _curParticle$[ebp]
	movss	DWORD PTR [eax+8], xmm0

; 178  : 				curParticle->m_flRadius = curParticle->m_flRadius + curParticle->m_flRadiusVelocity * time;

	mov	eax, DWORD PTR _curParticle$[ebp]
	movss	xmm0, DWORD PTR [eax+84]
	mulss	xmm0, DWORD PTR _time$55[ebp]
	mov	ecx, DWORD PTR _curParticle$[ebp]
	addss	xmm0, DWORD PTR [ecx+80]
	mov	edx, DWORD PTR _curParticle$[ebp]
	movss	DWORD PTR [edx+80], xmm0

; 179  : 				curParticle->m_flLength = curParticle->m_flLength + curParticle->m_flLengthVelocity * time;

	mov	eax, DWORD PTR _curParticle$[ebp]
	movss	xmm0, DWORD PTR [eax+92]
	mulss	xmm0, DWORD PTR _time$55[ebp]
	mov	ecx, DWORD PTR _curParticle$[ebp]
	addss	xmm0, DWORD PTR [ecx+88]
	mov	edx, DWORD PTR _curParticle$[ebp]
	movss	DWORD PTR [edx+88], xmm0

; 180  : 				curParticle->m_flRotation = curParticle->m_flRotation + curParticle->m_flRotationVelocity * time;

	mov	eax, DWORD PTR _curParticle$[ebp]
	movss	xmm0, DWORD PTR [eax+100]
	mulss	xmm0, DWORD PTR _time$55[ebp]
	mov	ecx, DWORD PTR _curParticle$[ebp]
	addss	xmm0, DWORD PTR [ecx+96]
	mov	edx, DWORD PTR _curParticle$[ebp]
	movss	DWORD PTR [edx+96], xmm0

; 181  : 				ClearBits( curParticle->m_iFlags, FPART_FADEIN );

	mov	eax, DWORD PTR _curParticle$[ebp]
	mov	ecx, DWORD PTR [eax+152]
	and	ecx, -257				; fffffeffH
	mov	edx, DWORD PTR _curParticle$[ebp]
	mov	DWORD PTR [edx+152], ecx

; 182  : 				curParticle->m_flTime = tr.time;

	cvtsd2ss xmm0, QWORD PTR ?tr@@3Uref_globals_t@@A+8
	mov	eax, DWORD PTR _curParticle$[ebp]
	movss	DWORD PTR [eax+148], xmm0
$LN33@DrawPartic:

; 183  : 			}
; 184  : 		}
; 185  : 
; 186  : 		int contents = POINT_CONTENTS( org );

	push	0
	lea	ecx, DWORD PTR _org$[ebp]
	call	??BVector@@QAEPAMXZ			; Vector::operator float *
	push	eax
	call	DWORD PTR ?gEngfuncs@@3Ucl_enginefuncs_s@@A+228
	add	esp, 8
	mov	DWORD PTR _contents$45[ebp], eax

; 187  : 
; 188  : 		if( FBitSet( curParticle->m_iFlags, FPART_UNDERWATER ) )

	mov	eax, DWORD PTR _curParticle$[ebp]
	mov	ecx, DWORD PTR [eax+152]
	and	ecx, 16					; 00000010H
	je	$LN34@DrawPartic

; 189  : 		{
; 190  : 			// underwater particle
; 191  : 			org2 = Vector( org.x, org.y, org.z + curRadius );

	movss	xmm0, DWORD PTR _org$[ebp+8]
	addss	xmm0, DWORD PTR _curRadius$52[ebp]
	push	ecx
	movss	DWORD PTR [esp], xmm0
	push	ecx
	movss	xmm0, DWORD PTR _org$[ebp+4]
	movss	DWORD PTR [esp], xmm0
	push	ecx
	movss	xmm0, DWORD PTR _org$[ebp]
	movss	DWORD PTR [esp], xmm0
	lea	ecx, DWORD PTR $T34[ebp]
	call	??0Vector@@QAE@MMM@Z			; Vector::Vector
	mov	ecx, DWORD PTR [eax]
	mov	DWORD PTR _org2$[ebp], ecx
	mov	edx, DWORD PTR [eax+4]
	mov	DWORD PTR _org2$[ebp+4], edx
	mov	eax, DWORD PTR [eax+8]
	mov	DWORD PTR _org2$[ebp+8], eax

; 192  : 
; 193  : 			if( contents != CONTENTS_WATER && contents != CONTENTS_SLIME && contents != CONTENTS_LAVA )

	cmp	DWORD PTR _contents$45[ebp], -3		; fffffffdH
	je	SHORT $LN36@DrawPartic
	cmp	DWORD PTR _contents$45[ebp], -4		; fffffffcH
	je	SHORT $LN36@DrawPartic
	cmp	DWORD PTR _contents$45[ebp], -5		; fffffffbH
	je	SHORT $LN36@DrawPartic

; 194  : 			{			
; 195  : 				// not underwater
; 196  : 				if( curParticle->EntIndex > 0 )

	mov	eax, DWORD PTR _curParticle$[ebp]
	cmp	DWORD PTR [eax+168], 0
	jle	SHORT $LN37@DrawPartic

; 197  : 					ParticleCountPerEnt[curParticle->EntIndex]--;

	mov	eax, DWORD PTR _curParticle$[ebp]
	mov	ecx, DWORD PTR [eax+168]
	mov	edx, DWORD PTR _this$[ebp]
	mov	eax, DWORD PTR [edx+ecx*4+2911284]
	sub	eax, 1
	mov	ecx, DWORD PTR _curParticle$[ebp]
	mov	edx, DWORD PTR [ecx+168]
	mov	ecx, DWORD PTR _this$[ebp]
	mov	DWORD PTR [ecx+edx*4+2911284], eax
$LN37@DrawPartic:

; 198  : 				ParticleArray.DeleteCurrent();

	mov	ecx, DWORD PTR _ParticleArray$[ebp]
	call	?DeleteCurrent@?$MemBlock@VCQuakePart@@@@QAEXXZ ; MemBlock<CQuakePart>::DeleteCurrent

; 199  : 				partcounter--;

	mov	eax, DWORD PTR ?partcounter@@3HA	; partcounter
	sub	eax, 1
	mov	DWORD PTR ?partcounter@@3HA, eax	; partcounter

; 200  : 				goto skip_particle;

	jmp	$LN38@DrawPartic
	jmp	$skip_particle$119
$LN36@DrawPartic:

; 201  : 			}
; 202  : 		}

	jmp	SHORT $LN39@DrawPartic
$LN34@DrawPartic:

; 203  : 		else if( FBitSet( curParticle->m_iFlags, FPART_NOTWATER ) && (contents == CONTENTS_WATER) )

	mov	eax, DWORD PTR _curParticle$[ebp]
	mov	ecx, DWORD PTR [eax+152]
	and	ecx, 128				; 00000080H
	je	SHORT $LN39@DrawPartic
	cmp	DWORD PTR _contents$45[ebp], -3		; fffffffdH
	jne	SHORT $LN39@DrawPartic

; 204  : 		{
; 205  : 			if( curParticle->EntIndex > 0 )

	mov	eax, DWORD PTR _curParticle$[ebp]
	cmp	DWORD PTR [eax+168], 0
	jle	SHORT $LN40@DrawPartic

; 206  : 				ParticleCountPerEnt[curParticle->EntIndex]--;

	mov	eax, DWORD PTR _curParticle$[ebp]
	mov	ecx, DWORD PTR [eax+168]
	mov	edx, DWORD PTR _this$[ebp]
	mov	eax, DWORD PTR [edx+ecx*4+2911284]
	sub	eax, 1
	mov	ecx, DWORD PTR _curParticle$[ebp]
	mov	edx, DWORD PTR [ecx+168]
	mov	ecx, DWORD PTR _this$[ebp]
	mov	DWORD PTR [ecx+edx*4+2911284], eax
$LN40@DrawPartic:

; 207  : 			// not underwater
; 208  : 			ParticleArray.DeleteCurrent();

	mov	ecx, DWORD PTR _ParticleArray$[ebp]
	call	?DeleteCurrent@?$MemBlock@VCQuakePart@@@@QAEXXZ ; MemBlock<CQuakePart>::DeleteCurrent

; 209  : 			partcounter--;

	mov	eax, DWORD PTR ?partcounter@@3HA	; partcounter
	sub	eax, 1
	mov	DWORD PTR ?partcounter@@3HA, eax	; partcounter

; 210  : 			goto skip_particle;

	jmp	$LN41@DrawPartic
	jmp	$skip_particle$119
$LN39@DrawPartic:

; 211  : 		}
; 212  : 
; 213  : 		if( FBitSet( curParticle->m_iFlags, FPART_FRICTION ) )

	mov	eax, DWORD PTR _curParticle$[ebp]
	mov	ecx, DWORD PTR [eax+152]
	and	ecx, 2
	je	$LN43@DrawPartic

; 214  : 		{
; 215  : 			// water friction affected particle
; 216  : 			if( contents <= CONTENTS_WATER && contents >= CONTENTS_LAVA )

	cmp	DWORD PTR _contents$45[ebp], -3		; fffffffdH
	jg	$LN43@DrawPartic
	cmp	DWORD PTR _contents$45[ebp], -5		; fffffffbH
	jl	$LN43@DrawPartic

; 217  : 			{
; 218  : 				// add friction		
; 219  : 				switch( contents )

	mov	eax, DWORD PTR _contents$45[ebp]
	mov	DWORD PTR tv559[ebp], eax
	cmp	DWORD PTR tv559[ebp], -5		; fffffffbH
	je	$LN46@DrawPartic
	cmp	DWORD PTR tv559[ebp], -4		; fffffffcH
	je	SHORT $LN45@DrawPartic
	cmp	DWORD PTR tv559[ebp], -3		; fffffffdH
	je	SHORT $LN44@DrawPartic
	jmp	$LN7@DrawPartic
$LN44@DrawPartic:

; 220  : 				{
; 221  : 				case CONTENTS_WATER:
; 222  : 					curParticle->m_vecVelocity *= 0.25f;

	push	ecx
	movss	xmm0, DWORD PTR __real@3e800000
	movss	DWORD PTR [esp], xmm0
	mov	ecx, DWORD PTR _curParticle$[ebp]
	add	ecx, 24					; 00000018H
	call	??XVector@@QAEAAV0@M@Z			; Vector::operator*=

; 223  : 					curParticle->m_vecAccel *= 0.25f;

	push	ecx
	movss	xmm0, DWORD PTR __real@3e800000
	movss	DWORD PTR [esp], xmm0
	mov	ecx, DWORD PTR _curParticle$[ebp]
	add	ecx, 36					; 00000024H
	call	??XVector@@QAEAAV0@M@Z			; Vector::operator*=

; 224  : 					break;

	jmp	SHORT $LN7@DrawPartic
$LN45@DrawPartic:

; 225  : 				case CONTENTS_SLIME:
; 226  : 					curParticle->m_vecVelocity *= 0.20f;

	push	ecx
	movss	xmm0, DWORD PTR __real@3e4ccccd
	movss	DWORD PTR [esp], xmm0
	mov	ecx, DWORD PTR _curParticle$[ebp]
	add	ecx, 24					; 00000018H
	call	??XVector@@QAEAAV0@M@Z			; Vector::operator*=

; 227  : 					curParticle->m_vecAccel *= 0.20f;

	push	ecx
	movss	xmm0, DWORD PTR __real@3e4ccccd
	movss	DWORD PTR [esp], xmm0
	mov	ecx, DWORD PTR _curParticle$[ebp]
	add	ecx, 36					; 00000024H
	call	??XVector@@QAEAAV0@M@Z			; Vector::operator*=

; 228  : 					break;

	jmp	SHORT $LN7@DrawPartic
$LN46@DrawPartic:

; 229  : 				case CONTENTS_LAVA:
; 230  : 					curParticle->m_vecVelocity *= 0.10f;

	push	ecx
	movss	xmm0, DWORD PTR __real@3dcccccd
	movss	DWORD PTR [esp], xmm0
	mov	ecx, DWORD PTR _curParticle$[ebp]
	add	ecx, 24					; 00000018H
	call	??XVector@@QAEAAV0@M@Z			; Vector::operator*=

; 231  : 					curParticle->m_vecAccel *= 0.10f;

	push	ecx
	movss	xmm0, DWORD PTR __real@3dcccccd
	movss	DWORD PTR [esp], xmm0
	mov	ecx, DWORD PTR _curParticle$[ebp]
	add	ecx, 36					; 00000024H
	call	??XVector@@QAEAAV0@M@Z			; Vector::operator*=
$LN7@DrawPartic:

; 232  : 					break;
; 233  : 				}
; 234  : 
; 235  : 				// don't add friction again
; 236  : 				curParticle->m_iFlags &= ~FPART_FRICTION;

	mov	eax, DWORD PTR _curParticle$[ebp]
	mov	ecx, DWORD PTR [eax+152]
	and	ecx, -3					; fffffffdH
	mov	edx, DWORD PTR _curParticle$[ebp]
	mov	DWORD PTR [edx+152], ecx

; 237  : 				curLength = 1.0f;

	movss	xmm0, DWORD PTR __real@3f800000
	movss	DWORD PTR _curLength$51[ebp], xmm0

; 238  : 
; 239  : 				// reset
; 240  : 				curParticle->m_flTime = tr.time;

	cvtsd2ss xmm0, QWORD PTR ?tr@@3Uref_globals_t@@A+8
	mov	eax, DWORD PTR _curParticle$[ebp]
	movss	DWORD PTR [eax+148], xmm0

; 241  : 				curParticle->m_vecColor = curColor;

	mov	eax, DWORD PTR _curParticle$[ebp]
	add	eax, 48					; 00000030H
	mov	ecx, DWORD PTR _curColor$49[ebp]
	mov	DWORD PTR [eax], ecx
	mov	edx, DWORD PTR _curColor$49[ebp+4]
	mov	DWORD PTR [eax+4], edx
	mov	ecx, DWORD PTR _curColor$49[ebp+8]
	mov	DWORD PTR [eax+8], ecx

; 242  : 				curParticle->m_flAlpha = curAlpha;

	mov	eax, DWORD PTR _curParticle$[ebp]
	movss	xmm0, DWORD PTR _curAlpha$53[ebp]
	movss	DWORD PTR [eax+72], xmm0

; 243  : 				curParticle->m_flRadius = curRadius;

	mov	eax, DWORD PTR _curParticle$[ebp]
	movss	xmm0, DWORD PTR _curRadius$52[ebp]
	movss	DWORD PTR [eax+80], xmm0

; 244  : 				curParticle->m_vecOrigin = org;

	mov	eax, DWORD PTR _curParticle$[ebp]
	mov	ecx, DWORD PTR _org$[ebp]
	mov	DWORD PTR [eax], ecx
	mov	edx, DWORD PTR _org$[ebp+4]
	mov	DWORD PTR [eax+4], edx
	mov	ecx, DWORD PTR _org$[ebp+8]
	mov	DWORD PTR [eax+8], ecx

; 245  : 
; 246  : 				// don't stretch
; 247  : 				curParticle->m_iFlags &= ~FPART_STRETCH;

	mov	eax, DWORD PTR _curParticle$[ebp]
	mov	ecx, DWORD PTR [eax+152]
	and	ecx, -9					; fffffff7H
	mov	edx, DWORD PTR _curParticle$[ebp]
	mov	DWORD PTR [edx+152], ecx

; 248  : 				curParticle->m_flLengthVelocity = 0.0f;

	mov	eax, DWORD PTR _curParticle$[ebp]
	xorps	xmm0, xmm0
	movss	DWORD PTR [eax+92], xmm0

; 249  : 				curParticle->m_flLength = curLength;

	mov	eax, DWORD PTR _curParticle$[ebp]
	movss	xmm0, DWORD PTR _curLength$51[ebp]
	movss	DWORD PTR [eax+88], xmm0
$LN43@DrawPartic:

; 250  : 			}
; 251  : 		}
; 252  : 
; 253  : 		if( FBitSet( curParticle->m_iFlags, FPART_BOUNCE ) )

	mov	eax, DWORD PTR _curParticle$[ebp]
	mov	ecx, DWORD PTR [eax+152]
	and	ecx, 1
	je	$LN48@DrawPartic

; 254  : 		{
; 255  : 			// bouncy particle
; 256  : 			pmtrace_t pmtrace;

	lea	ecx, DWORD PTR _pmtrace$44[ebp]
	call	??0pmtrace_s@@QAE@XZ

; 257  : 			gEngfuncs.pEventAPI->EV_SetTraceHull( 2 );

	push	2
	mov	eax, DWORD PTR ?gEngfuncs@@3Ucl_enginefuncs_s@@A+336
	mov	ecx, DWORD PTR [eax+56]
	call	ecx
	add	esp, 4

; 258  : 			gEngfuncs.pEventAPI->EV_PlayerTrace( curParticle->m_vecLastOrg, org, PM_STUDIO_IGNORE, -1, &pmtrace );

	lea	eax, DWORD PTR _pmtrace$44[ebp]
	push	eax
	push	-1
	push	1
	lea	ecx, DWORD PTR _org$[ebp]
	call	??BVector@@QAEPAMXZ			; Vector::operator float *
	push	eax
	mov	ecx, DWORD PTR _curParticle$[ebp]
	add	ecx, 12					; 0000000cH
	call	??BVector@@QAEPAMXZ			; Vector::operator float *
	push	eax
	mov	ecx, DWORD PTR ?gEngfuncs@@3Ucl_enginefuncs_s@@A+336
	mov	edx, DWORD PTR [ecx+60]
	call	edx
	add	esp, 20					; 00000014H

; 259  : 
; 260  : 			if( pmtrace.fraction != 1.0f )

	movss	xmm0, DWORD PTR _pmtrace$44[ebp+16]
	ucomiss	xmm0, DWORD PTR __real@3f800000
	lahf
	test	ah, 68					; 00000044H
	jnp	$LN48@DrawPartic

; 261  : 			{
; 262  : 				// reflect velocity
; 263  : 				time = tr.time - (g_fFrametime + g_fFrametime * pmtrace.fraction);

	movss	xmm0, DWORD PTR ?g_fFrametime@@3MA
	mulss	xmm0, DWORD PTR _pmtrace$44[ebp+16]
	addss	xmm0, DWORD PTR ?g_fFrametime@@3MA
	cvtss2sd xmm0, xmm0
	movsd	xmm1, QWORD PTR ?tr@@3Uref_globals_t@@A+8
	subsd	xmm1, xmm0
	cvtsd2ss xmm0, xmm1
	movss	DWORD PTR _time$55[ebp], xmm0

; 264  : 				time = (time - curParticle->m_flTime);

	mov	eax, DWORD PTR _curParticle$[ebp]
	movss	xmm0, DWORD PTR _time$55[ebp]
	subss	xmm0, DWORD PTR [eax+148]
	movss	DWORD PTR _time$55[ebp], xmm0

; 265  : 
; 266  : 				vel.x = curParticle->m_vecVelocity.x;

	mov	eax, DWORD PTR _curParticle$[ebp]
	movss	xmm0, DWORD PTR [eax+24]
	movss	DWORD PTR _vel$[ebp], xmm0

; 267  : 				vel.y = curParticle->m_vecVelocity.y;

	mov	eax, DWORD PTR _curParticle$[ebp]
	movss	xmm0, DWORD PTR [eax+28]
	movss	DWORD PTR _vel$[ebp+4], xmm0

; 268  : 				vel.z = curParticle->m_vecVelocity.z + curParticle->m_vecAccel.z * gravity * time;

	mov	eax, DWORD PTR _curParticle$[ebp]
	movss	xmm0, DWORD PTR [eax+44]
	mulss	xmm0, DWORD PTR _gravity$[ebp]
	mulss	xmm0, DWORD PTR _time$55[ebp]
	mov	ecx, DWORD PTR _curParticle$[ebp]
	addss	xmm0, DWORD PTR [ecx+32]
	movss	DWORD PTR _vel$[ebp+8], xmm0

; 269  : 
; 270  : 				float d = DotProduct( vel, pmtrace.plane.normal ) * 2.0f;

	lea	eax, DWORD PTR _pmtrace$44[ebp+32]
	push	eax
	lea	ecx, DWORD PTR _vel$[ebp]
	push	ecx
	call	?DotProduct@@YAMABVVector@@0@Z		; DotProduct
	add	esp, 8
	fstp	DWORD PTR tv1807[ebp]
	movss	xmm0, DWORD PTR tv1807[ebp]
	mulss	xmm0, DWORD PTR __real@40000000
	movss	DWORD PTR _d$43[ebp], xmm0

; 271  : 				curParticle->m_vecVelocity = vel - pmtrace.plane.normal * d;

	push	ecx
	movss	xmm0, DWORD PTR _d$43[ebp]
	movss	DWORD PTR [esp], xmm0
	lea	eax, DWORD PTR $T33[ebp]
	push	eax
	lea	ecx, DWORD PTR _pmtrace$44[ebp+32]
	call	??DVector@@QBE?AV0@M@Z			; Vector::operator*
	push	eax
	lea	ecx, DWORD PTR $T32[ebp]
	push	ecx
	lea	ecx, DWORD PTR _vel$[ebp]
	call	??GVector@@QBE?AV0@ABV0@@Z		; Vector::operator-
	mov	edx, DWORD PTR _curParticle$[ebp]
	add	edx, 24					; 00000018H
	mov	ecx, DWORD PTR [eax]
	mov	DWORD PTR [edx], ecx
	mov	ecx, DWORD PTR [eax+4]
	mov	DWORD PTR [edx+4], ecx
	mov	eax, DWORD PTR [eax+8]
	mov	DWORD PTR [edx+8], eax

; 272  : 				curParticle->m_vecVelocity *= bound( 0.0f, curParticle->m_flBounceFactor, 1.0f );

	mov	eax, DWORD PTR _curParticle$[ebp]
	movss	xmm0, DWORD PTR [eax+104]
	comiss	xmm0, DWORD PTR __real@00000000
	jb	SHORT $LN98@DrawPartic
	mov	ecx, DWORD PTR _curParticle$[ebp]
	movss	xmm0, DWORD PTR __real@3f800000
	comiss	xmm0, DWORD PTR [ecx+104]
	jbe	SHORT $LN96@DrawPartic
	mov	edx, DWORD PTR _curParticle$[ebp]
	movss	xmm0, DWORD PTR [edx+104]
	movss	DWORD PTR tv653[ebp], xmm0
	jmp	SHORT $LN97@DrawPartic
$LN96@DrawPartic:
	movss	xmm0, DWORD PTR __real@3f800000
	movss	DWORD PTR tv653[ebp], xmm0
$LN97@DrawPartic:
	movss	xmm0, DWORD PTR tv653[ebp]
	movss	DWORD PTR tv654[ebp], xmm0
	jmp	SHORT $LN99@DrawPartic
$LN98@DrawPartic:
	xorps	xmm0, xmm0
	movss	DWORD PTR tv654[ebp], xmm0
$LN99@DrawPartic:
	push	ecx
	movss	xmm0, DWORD PTR tv654[ebp]
	movss	DWORD PTR [esp], xmm0
	mov	ecx, DWORD PTR _curParticle$[ebp]
	add	ecx, 24					; 00000018H
	call	??XVector@@QAEAAV0@M@Z			; Vector::operator*=

; 273  : 
; 274  : 				// check for stop or slide along the plane
; 275  : 				if( pmtrace.plane.normal.z > 0.0f && curParticle->m_vecVelocity.z < 1.0f )

	movss	xmm0, DWORD PTR _pmtrace$44[ebp+40]
	comiss	xmm0, DWORD PTR __real@00000000
	jbe	$LN51@DrawPartic
	mov	eax, DWORD PTR _curParticle$[ebp]
	movss	xmm0, DWORD PTR __real@3f800000
	comiss	xmm0, DWORD PTR [eax+32]
	jbe	$LN51@DrawPartic

; 276  : 				{
; 277  : 					if( pmtrace.plane.normal.z >= 0.7f )

	movss	xmm0, DWORD PTR _pmtrace$44[ebp+40]
	comiss	xmm0, DWORD PTR __real@3f333333
	jb	SHORT $LN50@DrawPartic

; 278  : 					{
; 279  : 						curParticle->m_vecVelocity = g_vecZero;

	mov	eax, DWORD PTR _curParticle$[ebp]
	add	eax, 24					; 00000018H
	mov	ecx, DWORD PTR ?g_vecZero@@3VVector@@B
	mov	DWORD PTR [eax], ecx
	mov	edx, DWORD PTR ?g_vecZero@@3VVector@@B+4
	mov	DWORD PTR [eax+4], edx
	mov	ecx, DWORD PTR ?g_vecZero@@3VVector@@B+8
	mov	DWORD PTR [eax+8], ecx

; 280  : 						curParticle->m_vecAccel = g_vecZero;

	mov	eax, DWORD PTR _curParticle$[ebp]
	add	eax, 36					; 00000024H
	mov	ecx, DWORD PTR ?g_vecZero@@3VVector@@B
	mov	DWORD PTR [eax], ecx
	mov	edx, DWORD PTR ?g_vecZero@@3VVector@@B+4
	mov	DWORD PTR [eax+4], edx
	mov	ecx, DWORD PTR ?g_vecZero@@3VVector@@B+8
	mov	DWORD PTR [eax+8], ecx

; 281  : 						curParticle->m_iFlags &= ~FPART_BOUNCE;

	mov	eax, DWORD PTR _curParticle$[ebp]
	mov	ecx, DWORD PTR [eax+152]
	and	ecx, -2					; fffffffeH
	mov	edx, DWORD PTR _curParticle$[ebp]
	mov	DWORD PTR [edx+152], ecx

; 282  : 					}
; 283  : 					else

	jmp	$LN51@DrawPartic
$LN50@DrawPartic:

; 284  : 					{
; 285  : 						// FIXME: check for new plane or free fall
; 286  : 						float dot = DotProduct( curParticle->m_vecVelocity, pmtrace.plane.normal );

	lea	eax, DWORD PTR _pmtrace$44[ebp+32]
	push	eax
	mov	ecx, DWORD PTR _curParticle$[ebp]
	add	ecx, 24					; 00000018H
	push	ecx
	call	?DotProduct@@YAMABVVector@@0@Z		; DotProduct
	add	esp, 8
	fstp	DWORD PTR _dot$42[ebp]

; 287  : 						curParticle->m_vecVelocity += (pmtrace.plane.normal * -dot);

	movss	xmm0, DWORD PTR _dot$42[ebp]
	xorps	xmm0, DWORD PTR __xmm@80000000800000008000000080000000
	push	ecx
	movss	DWORD PTR [esp], xmm0
	lea	eax, DWORD PTR $T31[ebp]
	push	eax
	lea	ecx, DWORD PTR _pmtrace$44[ebp+32]
	call	??DVector@@QBE?AV0@M@Z			; Vector::operator*
	push	eax
	mov	ecx, DWORD PTR _curParticle$[ebp]
	add	ecx, 24					; 00000018H
	call	??YVector@@QAEAAV0@ABV0@@Z		; Vector::operator+=

; 288  : 
; 289  : 						dot = DotProduct( curParticle->m_vecAccel, pmtrace.plane.normal );

	lea	eax, DWORD PTR _pmtrace$44[ebp+32]
	push	eax
	mov	ecx, DWORD PTR _curParticle$[ebp]
	add	ecx, 36					; 00000024H
	push	ecx
	call	?DotProduct@@YAMABVVector@@0@Z		; DotProduct
	add	esp, 8
	fstp	DWORD PTR _dot$42[ebp]

; 290  : 						curParticle->m_vecAccel += (pmtrace.plane.normal * -dot);

	movss	xmm0, DWORD PTR _dot$42[ebp]
	xorps	xmm0, DWORD PTR __xmm@80000000800000008000000080000000
	push	ecx
	movss	DWORD PTR [esp], xmm0
	lea	eax, DWORD PTR $T30[ebp]
	push	eax
	lea	ecx, DWORD PTR _pmtrace$44[ebp+32]
	call	??DVector@@QBE?AV0@M@Z			; Vector::operator*
	push	eax
	mov	ecx, DWORD PTR _curParticle$[ebp]
	add	ecx, 36					; 00000024H
	call	??YVector@@QAEAAV0@ABV0@@Z		; Vector::operator+=
$LN51@DrawPartic:

; 291  : 					}
; 292  : 				}
; 293  : 
; 294  : 				org = pmtrace.endpos;

	mov	eax, DWORD PTR _pmtrace$44[ebp+20]
	mov	DWORD PTR _org$[ebp], eax
	mov	ecx, DWORD PTR _pmtrace$44[ebp+24]
	mov	DWORD PTR _org$[ebp+4], ecx
	mov	edx, DWORD PTR _pmtrace$44[ebp+28]
	mov	DWORD PTR _org$[ebp+8], edx

; 295  : 				curLength = 1.0f;

	movss	xmm0, DWORD PTR __real@3f800000
	movss	DWORD PTR _curLength$51[ebp], xmm0

; 296  : 
; 297  : 				// reset
; 298  : 				curParticle->m_flTime = tr.time;

	cvtsd2ss xmm0, QWORD PTR ?tr@@3Uref_globals_t@@A+8
	mov	eax, DWORD PTR _curParticle$[ebp]
	movss	DWORD PTR [eax+148], xmm0

; 299  : 				curParticle->m_vecColor = curColor;

	mov	eax, DWORD PTR _curParticle$[ebp]
	add	eax, 48					; 00000030H
	mov	ecx, DWORD PTR _curColor$49[ebp]
	mov	DWORD PTR [eax], ecx
	mov	edx, DWORD PTR _curColor$49[ebp+4]
	mov	DWORD PTR [eax+4], edx
	mov	ecx, DWORD PTR _curColor$49[ebp+8]
	mov	DWORD PTR [eax+8], ecx

; 300  : 				curParticle->m_flAlpha = curAlpha;

	mov	eax, DWORD PTR _curParticle$[ebp]
	movss	xmm0, DWORD PTR _curAlpha$53[ebp]
	movss	DWORD PTR [eax+72], xmm0

; 301  : 				curParticle->m_flRadius = curRadius;

	mov	eax, DWORD PTR _curParticle$[ebp]
	movss	xmm0, DWORD PTR _curRadius$52[ebp]
	movss	DWORD PTR [eax+80], xmm0

; 302  : 				curParticle->m_vecOrigin = org;

	mov	eax, DWORD PTR _curParticle$[ebp]
	mov	ecx, DWORD PTR _org$[ebp]
	mov	DWORD PTR [eax], ecx
	mov	edx, DWORD PTR _org$[ebp+4]
	mov	DWORD PTR [eax+4], edx
	mov	ecx, DWORD PTR _org$[ebp+8]
	mov	DWORD PTR [eax+8], ecx

; 303  : 
; 304  : 				// don't stretch
; 305  : 				curParticle->m_iFlags &= ~FPART_STRETCH;

	mov	eax, DWORD PTR _curParticle$[ebp]
	mov	ecx, DWORD PTR [eax+152]
	and	ecx, -9					; fffffff7H
	mov	edx, DWORD PTR _curParticle$[ebp]
	mov	DWORD PTR [edx+152], ecx

; 306  : 				curParticle->m_flLengthVelocity = 0.0f;

	mov	eax, DWORD PTR _curParticle$[ebp]
	xorps	xmm0, xmm0
	movss	DWORD PTR [eax+92], xmm0

; 307  : 				curParticle->m_flLength = curLength;

	mov	eax, DWORD PTR _curParticle$[ebp]
	movss	xmm0, DWORD PTR _curLength$51[ebp]
	movss	DWORD PTR [eax+88], xmm0
$LN48@DrawPartic:

; 308  : 			}
; 309  : 		}
; 310  : 
; 311  : 		// save current origin if needed
; 312  : 		if( FBitSet( curParticle->m_iFlags, (FPART_BOUNCE | FPART_STRETCH) ) )

	mov	eax, DWORD PTR _curParticle$[ebp]
	mov	ecx, DWORD PTR [eax+152]
	and	ecx, 9
	je	SHORT $LN52@DrawPartic

; 313  : 		{
; 314  : 			org2 = curParticle->m_vecLastOrg;

	mov	eax, DWORD PTR _curParticle$[ebp]
	add	eax, 12					; 0000000cH
	mov	ecx, DWORD PTR [eax]
	mov	DWORD PTR _org2$[ebp], ecx
	mov	edx, DWORD PTR [eax+4]
	mov	DWORD PTR _org2$[ebp+4], edx
	mov	eax, DWORD PTR [eax+8]
	mov	DWORD PTR _org2$[ebp+8], eax

; 315  : 			curParticle->m_vecLastOrg = org;

	mov	eax, DWORD PTR _curParticle$[ebp]
	add	eax, 12					; 0000000cH
	mov	ecx, DWORD PTR _org$[ebp]
	mov	DWORD PTR [eax], ecx
	mov	edx, DWORD PTR _org$[ebp+4]
	mov	DWORD PTR [eax+4], edx
	mov	ecx, DWORD PTR _org$[ebp+8]
	mov	DWORD PTR [eax+8], ecx
$LN52@DrawPartic:

; 316  : 		}
; 317  : 
; 318  : 		// vertex lit particle
; 319  : 		if( FBitSet( curParticle->m_iFlags, FPART_VERTEXLIGHT ) )

	mov	eax, DWORD PTR _curParticle$[ebp]
	mov	ecx, DWORD PTR [eax+152]
	and	ecx, 4
	je	$LN53@DrawPartic

; 320  : 		{
; 321  : 			Vector light;

	lea	ecx, DWORD PTR _light$41[ebp]
	call	??0Vector@@QAE@XZ			; Vector::Vector

; 322  : 			// gather static lighting
; 323  : 			gEngfuncs.pTriAPI->LightAtPoint( org, light );

	lea	ecx, DWORD PTR _light$41[ebp]
	call	??BVector@@QAEPAMXZ			; Vector::operator float *
	push	eax
	lea	ecx, DWORD PTR _org$[ebp]
	call	??BVector@@QAEPAMXZ			; Vector::operator float *
	push	eax
	mov	eax, DWORD PTR ?gEngfuncs@@3Ucl_enginefuncs_s@@A+328
	mov	ecx, DWORD PTR [eax+68]
	call	ecx
	add	esp, 8

; 324  : 			light *= (1.0f / 255.0f);

	push	ecx
	movss	xmm0, DWORD PTR __real@3b808081
	movss	DWORD PTR [esp], xmm0
	lea	ecx, DWORD PTR _light$41[ebp]
	call	??XVector@@QAEAAV0@M@Z			; Vector::operator*=

; 325  : 
; 326  : 			// gather dynamic lighting
; 327  : 			light += R_LightsForPoint( org, curRadius );

	push	ecx
	movss	xmm0, DWORD PTR _curRadius$52[ebp]
	movss	DWORD PTR [esp], xmm0
	lea	eax, DWORD PTR _org$[ebp]
	push	eax
	lea	ecx, DWORD PTR $T29[ebp]
	push	ecx
	call	?R_LightsForPoint@@YA?AVVector@@ABV1@M@Z ; R_LightsForPoint
	add	esp, 12					; 0000000cH
	push	eax
	lea	ecx, DWORD PTR _light$41[ebp]
	call	??YVector@@QAEAAV0@ABV0@@Z		; Vector::operator+=

; 328  : 
; 329  : 			// renormalize lighting
; 330  : 			float f = Q_max( Q_max( light.x, light.y ), light.z );

	movss	xmm0, DWORD PTR _light$41[ebp]
	comiss	xmm0, DWORD PTR _light$41[ebp+4]
	jbe	SHORT $LN100@DrawPartic
	movss	xmm0, DWORD PTR _light$41[ebp]
	movss	DWORD PTR tv726[ebp], xmm0
	jmp	SHORT $LN101@DrawPartic
$LN100@DrawPartic:
	movss	xmm0, DWORD PTR _light$41[ebp+4]
	movss	DWORD PTR tv726[ebp], xmm0
$LN101@DrawPartic:
	movss	xmm0, DWORD PTR tv726[ebp]
	comiss	xmm0, DWORD PTR _light$41[ebp+8]
	jbe	SHORT $LN104@DrawPartic
	movss	xmm0, DWORD PTR _light$41[ebp]
	comiss	xmm0, DWORD PTR _light$41[ebp+4]
	jbe	SHORT $LN102@DrawPartic
	movss	xmm0, DWORD PTR _light$41[ebp]
	movss	DWORD PTR tv729[ebp], xmm0
	jmp	SHORT $LN103@DrawPartic
$LN102@DrawPartic:
	movss	xmm0, DWORD PTR _light$41[ebp+4]
	movss	DWORD PTR tv729[ebp], xmm0
$LN103@DrawPartic:
	movss	xmm0, DWORD PTR tv729[ebp]
	movss	DWORD PTR tv730[ebp], xmm0
	jmp	SHORT $LN105@DrawPartic
$LN104@DrawPartic:
	movss	xmm0, DWORD PTR _light$41[ebp+8]
	movss	DWORD PTR tv730[ebp], xmm0
$LN105@DrawPartic:
	movss	xmm0, DWORD PTR tv730[ebp]
	movss	DWORD PTR _f$40[ebp], xmm0

; 331  : 			if( f > 1.0f ) light *= (1.0f / f);

	movss	xmm0, DWORD PTR _f$40[ebp]
	comiss	xmm0, DWORD PTR __real@3f800000
	jbe	SHORT $LN54@DrawPartic
	movss	xmm0, DWORD PTR __real@3f800000
	divss	xmm0, DWORD PTR _f$40[ebp]
	push	ecx
	movss	DWORD PTR [esp], xmm0
	lea	ecx, DWORD PTR _light$41[ebp]
	call	??XVector@@QAEAAV0@M@Z			; Vector::operator*=
$LN54@DrawPartic:

; 332  : 
; 333  : 		//	curColor *= light;	// multiply to diffuse
; 334  : 			if( curParticle->newLight.IsNull() )

	push	ecx
	movss	xmm0, DWORD PTR __real@3a83126f
	movss	DWORD PTR [esp], xmm0
	mov	ecx, DWORD PTR _curParticle$[ebp]
	add	ecx, 156				; 0000009cH
	call	?IsNull@Vector@@QBE_NM@Z		; Vector::IsNull
	movzx	eax, al
	test	eax, eax
	je	SHORT $LN55@DrawPartic

; 335  : 				curParticle->newLight = light;

	mov	eax, DWORD PTR _curParticle$[ebp]
	add	eax, 156				; 0000009cH
	mov	ecx, DWORD PTR _light$41[ebp]
	mov	DWORD PTR [eax], ecx
	mov	edx, DWORD PTR _light$41[ebp+4]
	mov	DWORD PTR [eax+4], edx
	mov	ecx, DWORD PTR _light$41[ebp+8]
	mov	DWORD PTR [eax+8], ecx

; 336  : 			else

	jmp	$LN56@DrawPartic
$LN55@DrawPartic:

; 337  : 			{
; 338  : 				curParticle->newLight.x = CL_UTIL_Approach( light.x, curParticle->newLight.x, g_fFrametime * 3 );

	movss	xmm0, DWORD PTR ?g_fFrametime@@3MA
	mulss	xmm0, DWORD PTR __real@40400000
	push	ecx
	movss	DWORD PTR [esp], xmm0
	mov	eax, DWORD PTR _curParticle$[ebp]
	push	ecx
	movss	xmm0, DWORD PTR [eax+156]
	movss	DWORD PTR [esp], xmm0
	push	ecx
	movss	xmm0, DWORD PTR _light$41[ebp]
	movss	DWORD PTR [esp], xmm0
	call	?CL_UTIL_Approach@@YAMMMM@Z		; CL_UTIL_Approach
	add	esp, 12					; 0000000cH
	mov	ecx, DWORD PTR _curParticle$[ebp]
	fstp	DWORD PTR [ecx+156]

; 339  : 				curParticle->newLight.y = CL_UTIL_Approach( light.y, curParticle->newLight.y, g_fFrametime * 3 );

	movss	xmm0, DWORD PTR ?g_fFrametime@@3MA
	mulss	xmm0, DWORD PTR __real@40400000
	push	ecx
	movss	DWORD PTR [esp], xmm0
	mov	eax, DWORD PTR _curParticle$[ebp]
	push	ecx
	movss	xmm0, DWORD PTR [eax+160]
	movss	DWORD PTR [esp], xmm0
	push	ecx
	movss	xmm0, DWORD PTR _light$41[ebp+4]
	movss	DWORD PTR [esp], xmm0
	call	?CL_UTIL_Approach@@YAMMMM@Z		; CL_UTIL_Approach
	add	esp, 12					; 0000000cH
	mov	ecx, DWORD PTR _curParticle$[ebp]
	fstp	DWORD PTR [ecx+160]

; 340  : 				curParticle->newLight.z = CL_UTIL_Approach( light.z, curParticle->newLight.z, g_fFrametime * 3 );

	movss	xmm0, DWORD PTR ?g_fFrametime@@3MA
	mulss	xmm0, DWORD PTR __real@40400000
	push	ecx
	movss	DWORD PTR [esp], xmm0
	mov	eax, DWORD PTR _curParticle$[ebp]
	push	ecx
	movss	xmm0, DWORD PTR [eax+164]
	movss	DWORD PTR [esp], xmm0
	push	ecx
	movss	xmm0, DWORD PTR _light$41[ebp+8]
	movss	DWORD PTR [esp], xmm0
	call	?CL_UTIL_Approach@@YAMMMM@Z		; CL_UTIL_Approach
	add	esp, 12					; 0000000cH
	mov	ecx, DWORD PTR _curParticle$[ebp]
	fstp	DWORD PTR [ecx+164]
$LN56@DrawPartic:

; 341  : 			}
; 342  : 			curColor *= curParticle->newLight;

	mov	eax, DWORD PTR _curParticle$[ebp]
	add	eax, 156				; 0000009cH
	push	eax
	lea	ecx, DWORD PTR _curColor$49[ebp]
	call	??XVector@@QAEAAV0@ABV0@@Z		; Vector::operator*=
$LN53@DrawPartic:

; 343  : 		}
; 344  : 
; 345  : 		if( FBitSet( curParticle->m_iFlags, FPART_INSTANT ) )

	mov	eax, DWORD PTR _curParticle$[ebp]
	mov	ecx, DWORD PTR [eax+152]
	and	ecx, 32					; 00000020H
	je	SHORT $LN57@DrawPartic

; 346  : 		{
; 347  : 			// instant particle
; 348  : 			curParticle->m_flAlphaVelocity = 0.0f;

	mov	eax, DWORD PTR _curParticle$[ebp]
	xorps	xmm0, xmm0
	movss	DWORD PTR [eax+76], xmm0

; 349  : 			curParticle->m_flAlpha = 0.0f;

	mov	eax, DWORD PTR _curParticle$[ebp]
	xorps	xmm0, xmm0
	movss	DWORD PTR [eax+72], xmm0
$LN57@DrawPartic:

; 350  : 		}
; 351  : 
; 352  : 		// float on water
; 353  : 		if( !FBitSet( curParticle->m_iFlags, FPART_AFLOAT ) && (FBitSet( curParticle->m_iFlags, FPART_FLOATING ) || FBitSet( curParticle->m_iFlags, FPART_FLOATING_ORIENTED )) )

	mov	eax, DWORD PTR _curParticle$[ebp]
	mov	ecx, DWORD PTR [eax+152]
	and	ecx, 8192				; 00002000H
	jne	$LN60@DrawPartic
	mov	eax, DWORD PTR _curParticle$[ebp]
	mov	ecx, DWORD PTR [eax+152]
	and	ecx, 2048				; 00000800H
	jne	SHORT $LN59@DrawPartic
	mov	eax, DWORD PTR _curParticle$[ebp]
	mov	ecx, DWORD PTR [eax+152]
	and	ecx, 4096				; 00001000H
	je	$LN60@DrawPartic
$LN59@DrawPartic:

; 354  : 		{
; 355  : 			if( contents == CONTENTS_WATER )

	cmp	DWORD PTR _contents$45[ebp], -3		; fffffffdH
	jne	$LN60@DrawPartic

; 356  : 			{
; 357  : 				curParticle->m_vecVelocity.z = 0; // stop moving

	mov	eax, DWORD PTR _curParticle$[ebp]
	xorps	xmm0, xmm0
	movss	DWORD PTR [eax+32], xmm0

; 358  : 				curParticle->m_vecAccel.z = 0;

	mov	eax, DWORD PTR _curParticle$[ebp]
	xorps	xmm0, xmm0
	movss	DWORD PTR [eax+44], xmm0
$LN9@DrawPartic:

; 359  : 
; 360  : 				while( POINT_CONTENTS( org ) == CONTENTS_WATER )

	push	0
	lea	ecx, DWORD PTR _org$[ebp]
	call	??BVector@@QAEPAMXZ			; Vector::operator float *
	push	eax
	call	DWORD PTR ?gEngfuncs@@3Ucl_enginefuncs_s@@A+228
	add	esp, 8
	cmp	eax, -3					; fffffffdH
	jne	SHORT $LN10@DrawPartic

; 361  : 					org.z += 1;

	movss	xmm0, DWORD PTR _org$[ebp+8]
	addss	xmm0, DWORD PTR __real@3f800000
	movss	DWORD PTR _org$[ebp+8], xmm0
	jmp	SHORT $LN9@DrawPartic
$LN10@DrawPartic:

; 362  : 
; 363  : 				curParticle->m_vecOrigin.z = org.z;

	mov	eax, DWORD PTR _curParticle$[ebp]
	movss	xmm0, DWORD PTR _org$[ebp+8]
	movss	DWORD PTR [eax+8], xmm0

; 364  : 				curParticle->m_iFlags |= FPART_AFLOAT;

	mov	eax, DWORD PTR _curParticle$[ebp]
	mov	ecx, DWORD PTR [eax+152]
	or	ecx, 8192				; 00002000H
	mov	edx, DWORD PTR _curParticle$[ebp]
	mov	DWORD PTR [edx+152], ecx
$LN60@DrawPartic:

; 365  : 			}
; 366  : 		}
; 367  : 
; 368  : 		if( FBitSet( curParticle->m_iFlags, FPART_AFLOAT ) )

	mov	eax, DWORD PTR _curParticle$[ebp]
	mov	ecx, DWORD PTR [eax+152]
	and	ecx, 8192				; 00002000H
	je	SHORT $LN61@DrawPartic

; 369  : 		{
; 370  : 			org.z += sin( tr.time );

	sub	esp, 8
	movsd	xmm0, QWORD PTR ?tr@@3Uref_globals_t@@A+8
	movsd	QWORD PTR [esp], xmm0
	call	_sin
	add	esp, 8
	fstp	QWORD PTR tv2037[ebp]
	cvtss2sd xmm0, DWORD PTR _org$[ebp+8]
	addsd	xmm0, QWORD PTR tv2037[ebp]
	cvtsd2ss xmm0, xmm0
	movss	DWORD PTR _org$[ebp+8], xmm0
$LN61@DrawPartic:

; 371  : 		}
; 372  : 
; 373  : 		if( curRadius == 1.0f )

	movss	xmm0, DWORD PTR _curRadius$52[ebp]
	ucomiss	xmm0, DWORD PTR __real@3f800000
	lahf
	test	ah, 68					; 00000044H
	jp	$LN63@DrawPartic

; 374  : 		{
; 375  : 			float scale = 0.0f;

	xorps	xmm0, xmm0
	movss	DWORD PTR _scale$39[ebp], xmm0

; 376  : 
; 377  : 			// hack a scale up to keep quake particles from disapearing
; 378  : 			scale += (org.x - RI->vieworg.x) * RI->vforward.x;

	mov	eax, DWORD PTR ?RI@@3PAUref_instance_t@@A ; RI
	movss	xmm0, DWORD PTR _org$[ebp]
	subss	xmm0, DWORD PTR [eax+204]
	mov	ecx, DWORD PTR ?RI@@3PAUref_instance_t@@A ; RI
	mulss	xmm0, DWORD PTR [ecx+228]
	addss	xmm0, DWORD PTR _scale$39[ebp]
	movss	DWORD PTR _scale$39[ebp], xmm0

; 379  : 			scale += (org.y - RI->vieworg.y) * RI->vforward.y;

	mov	eax, DWORD PTR ?RI@@3PAUref_instance_t@@A ; RI
	movss	xmm0, DWORD PTR _org$[ebp+4]
	subss	xmm0, DWORD PTR [eax+208]
	mov	ecx, DWORD PTR ?RI@@3PAUref_instance_t@@A ; RI
	mulss	xmm0, DWORD PTR [ecx+232]
	addss	xmm0, DWORD PTR _scale$39[ebp]
	movss	DWORD PTR _scale$39[ebp], xmm0

; 380  : 			scale += (org.z - RI->vieworg.z) * RI->vforward.z;

	mov	eax, DWORD PTR ?RI@@3PAUref_instance_t@@A ; RI
	movss	xmm0, DWORD PTR _org$[ebp+8]
	subss	xmm0, DWORD PTR [eax+212]
	mov	ecx, DWORD PTR ?RI@@3PAUref_instance_t@@A ; RI
	mulss	xmm0, DWORD PTR [ecx+236]
	addss	xmm0, DWORD PTR _scale$39[ebp]
	movss	DWORD PTR _scale$39[ebp], xmm0

; 381  : 			if( scale >= 20.0f ) curRadius = 1.0f + scale * 0.004f;

	movss	xmm0, DWORD PTR _scale$39[ebp]
	comiss	xmm0, DWORD PTR __real@41a00000
	jb	SHORT $LN63@DrawPartic
	movss	xmm0, DWORD PTR _scale$39[ebp]
	mulss	xmm0, DWORD PTR __real@3b83126f
	addss	xmm0, DWORD PTR __real@3f800000
	movss	DWORD PTR _curRadius$52[ebp], xmm0
$LN63@DrawPartic:

; 382  : 		}
; 383  : 
; 384  : 		curColor.x = bound( 0.0f, curColor.x, 1.0f );

	movss	xmm0, DWORD PTR _curColor$49[ebp]
	comiss	xmm0, DWORD PTR __real@00000000
	jb	SHORT $LN108@DrawPartic
	movss	xmm0, DWORD PTR __real@3f800000
	comiss	xmm0, DWORD PTR _curColor$49[ebp]
	jbe	SHORT $LN106@DrawPartic
	movss	xmm0, DWORD PTR _curColor$49[ebp]
	movss	DWORD PTR tv871[ebp], xmm0
	jmp	SHORT $LN107@DrawPartic
$LN106@DrawPartic:
	movss	xmm0, DWORD PTR __real@3f800000
	movss	DWORD PTR tv871[ebp], xmm0
$LN107@DrawPartic:
	movss	xmm0, DWORD PTR tv871[ebp]
	movss	DWORD PTR tv872[ebp], xmm0
	jmp	SHORT $LN109@DrawPartic
$LN108@DrawPartic:
	xorps	xmm0, xmm0
	movss	DWORD PTR tv872[ebp], xmm0
$LN109@DrawPartic:
	movss	xmm0, DWORD PTR tv872[ebp]
	movss	DWORD PTR _curColor$49[ebp], xmm0

; 385  : 		curColor.y = bound( 0.0f, curColor.y, 1.0f );

	movss	xmm0, DWORD PTR _curColor$49[ebp+4]
	comiss	xmm0, DWORD PTR __real@00000000
	jb	SHORT $LN112@DrawPartic
	movss	xmm0, DWORD PTR __real@3f800000
	comiss	xmm0, DWORD PTR _curColor$49[ebp+4]
	jbe	SHORT $LN110@DrawPartic
	movss	xmm0, DWORD PTR _curColor$49[ebp+4]
	movss	DWORD PTR tv875[ebp], xmm0
	jmp	SHORT $LN111@DrawPartic
$LN110@DrawPartic:
	movss	xmm0, DWORD PTR __real@3f800000
	movss	DWORD PTR tv875[ebp], xmm0
$LN111@DrawPartic:
	movss	xmm0, DWORD PTR tv875[ebp]
	movss	DWORD PTR tv876[ebp], xmm0
	jmp	SHORT $LN113@DrawPartic
$LN112@DrawPartic:
	xorps	xmm0, xmm0
	movss	DWORD PTR tv876[ebp], xmm0
$LN113@DrawPartic:
	movss	xmm0, DWORD PTR tv876[ebp]
	movss	DWORD PTR _curColor$49[ebp+4], xmm0

; 386  : 		curColor.z = bound( 0.0f, curColor.z, 1.0f );

	movss	xmm0, DWORD PTR _curColor$49[ebp+8]
	comiss	xmm0, DWORD PTR __real@00000000
	jb	SHORT $LN116@DrawPartic
	movss	xmm0, DWORD PTR __real@3f800000
	comiss	xmm0, DWORD PTR _curColor$49[ebp+8]
	jbe	SHORT $LN114@DrawPartic
	movss	xmm0, DWORD PTR _curColor$49[ebp+8]
	movss	DWORD PTR tv879[ebp], xmm0
	jmp	SHORT $LN115@DrawPartic
$LN114@DrawPartic:
	movss	xmm0, DWORD PTR __real@3f800000
	movss	DWORD PTR tv879[ebp], xmm0
$LN115@DrawPartic:
	movss	xmm0, DWORD PTR tv879[ebp]
	movss	DWORD PTR tv880[ebp], xmm0
	jmp	SHORT $LN117@DrawPartic
$LN116@DrawPartic:
	xorps	xmm0, xmm0
	movss	DWORD PTR tv880[ebp], xmm0
$LN117@DrawPartic:
	movss	xmm0, DWORD PTR tv880[ebp]
	movss	DWORD PTR _curColor$49[ebp+8], xmm0

; 387  : 
; 388  : 		// clear any added velocity this frame
; 389  : 		curParticle->m_vecVelocity -= curParticle->m_vecAddedVelocity;

	mov	eax, DWORD PTR _curParticle$[ebp]
	add	eax, 116				; 00000074H
	push	eax
	mov	ecx, DWORD PTR _curParticle$[ebp]
	add	ecx, 24					; 00000018H
	call	??ZVector@@QAEAAV0@ABV0@@Z		; Vector::operator-=

; 390  : 		curParticle->m_vecAddedVelocity.x = CL_UTIL_Approach( 0, curParticle->m_vecAddedVelocity.x, g_fFrametime );

	push	ecx
	movss	xmm0, DWORD PTR ?g_fFrametime@@3MA
	movss	DWORD PTR [esp], xmm0
	mov	eax, DWORD PTR _curParticle$[ebp]
	push	ecx
	movss	xmm0, DWORD PTR [eax+116]
	movss	DWORD PTR [esp], xmm0
	push	ecx
	xorps	xmm0, xmm0
	movss	DWORD PTR [esp], xmm0
	call	?CL_UTIL_Approach@@YAMMMM@Z		; CL_UTIL_Approach
	add	esp, 12					; 0000000cH
	mov	ecx, DWORD PTR _curParticle$[ebp]
	fstp	DWORD PTR [ecx+116]

; 391  : 		curParticle->m_vecAddedVelocity.y = CL_UTIL_Approach( 0, curParticle->m_vecAddedVelocity.y, g_fFrametime );

	push	ecx
	movss	xmm0, DWORD PTR ?g_fFrametime@@3MA
	movss	DWORD PTR [esp], xmm0
	mov	eax, DWORD PTR _curParticle$[ebp]
	push	ecx
	movss	xmm0, DWORD PTR [eax+120]
	movss	DWORD PTR [esp], xmm0
	push	ecx
	xorps	xmm0, xmm0
	movss	DWORD PTR [esp], xmm0
	call	?CL_UTIL_Approach@@YAMMMM@Z		; CL_UTIL_Approach
	add	esp, 12					; 0000000cH
	mov	ecx, DWORD PTR _curParticle$[ebp]
	fstp	DWORD PTR [ecx+120]

; 392  : 		curParticle->m_vecAddedVelocity.z = CL_UTIL_Approach( 0, curParticle->m_vecAddedVelocity.z, g_fFrametime );

	push	ecx
	movss	xmm0, DWORD PTR ?g_fFrametime@@3MA
	movss	DWORD PTR [esp], xmm0
	mov	eax, DWORD PTR _curParticle$[ebp]
	push	ecx
	movss	xmm0, DWORD PTR [eax+124]
	movss	DWORD PTR [esp], xmm0
	push	ecx
	xorps	xmm0, xmm0
	movss	DWORD PTR [esp], xmm0
	call	?CL_UTIL_Approach@@YAMMMM@Z		; CL_UTIL_Approach
	add	esp, 12					; 0000000cH
	mov	ecx, DWORD PTR _curParticle$[ebp]
	fstp	DWORD PTR [ecx+124]

; 393  : 
; 394  : 		// experimental stuff
; 395  : 		/*
; 396  : 		if( curParticle->ParticleType == TYPE_SMOKE || curParticle->ParticleType == TYPE_SMOKE_NOTINWATER )
; 397  : 		{
; 398  : 			if( g_pParticles.ExplosionOrg != g_vecZero )
; 399  : 			{
; 400  : 				float dist = (org - g_pParticles.ExplosionOrg).Length();
; 401  : 				if( dist < 200 )
; 402  : 				{
; 403  : 					curParticle->AlphaDownScale = 1.0f - (100.0f / (1.0f + dist));
; 404  : 				}
; 405  : 			}
; 406  : 
; 407  : 			if( curParticle->AlphaDownScale < 1.0f )
; 408  : 				curParticle->AlphaDownScale += g_fFrametime * 0.1;
; 409  : 
; 410  : 			curParticle->AlphaDownScale = bound( 0.01f, curParticle->AlphaDownScale, 1.0f );
; 411  : 			curAlpha *= curParticle->AlphaDownScale;
; 412  : 		}*/
; 413  : 
; 414  : 		// cull invisible parts
; 415  : 		if( R_CullSphere( org, curRadius ) )

	push	0
	push	ecx
	movss	xmm0, DWORD PTR _curRadius$52[ebp]
	movss	DWORD PTR [esp], xmm0
	lea	eax, DWORD PTR _org$[ebp]
	push	eax
	mov	ecx, DWORD PTR ?RI@@3PAUref_instance_t@@A ; RI
	add	ecx, 48					; 00000030H
	call	?CullSphere@CFrustum@@QAE_NABVVector@@MH@Z ; CFrustum::CullSphere
	movzx	ecx, al
	test	ecx, ecx
	je	SHORT $LN64@DrawPartic

; 416  : 		{
; 417  : 			ParticleArray.MoveNext();

	mov	ecx, DWORD PTR _ParticleArray$[ebp]
	call	?MoveNext@?$MemBlock@VCQuakePart@@@@QAEXXZ ; MemBlock<CQuakePart>::MoveNext

; 418  : 			curParticle = ParticleArray.GetCurrent();

	mov	ecx, DWORD PTR _ParticleArray$[ebp]
	call	?GetCurrent@?$MemBlock@VCQuakePart@@@@QAEPAVCQuakePart@@XZ ; MemBlock<CQuakePart>::GetCurrent
	mov	DWORD PTR _curParticle$[ebp], eax

; 419  : 			r_stats.c_particles_culled++;

	mov	eax, DWORD PTR ?r_stats@@3Uref_stats_t@@A+36
	add	eax, 1
	mov	DWORD PTR ?r_stats@@3Uref_stats_t@@A+36, eax

; 420  : 			continue;

	jmp	$LN118@DrawPartic
$LN64@DrawPartic:

; 421  : 		}
; 422  : 
; 423  : 		// diffusion - look at player, but don't rotate with view rotation
; 424  : 		if( FBitSet( curParticle->m_iFlags, FPART_AFLOAT ) && FBitSet( curParticle->m_iFlags, FPART_FLOATING_ORIENTED ) ) // look at the ceiling

	mov	eax, DWORD PTR _curParticle$[ebp]
	mov	ecx, DWORD PTR [eax+152]
	and	ecx, 8192				; 00002000H
	je	SHORT $LN65@DrawPartic
	mov	eax, DWORD PTR _curParticle$[ebp]
	mov	ecx, DWORD PTR [eax+152]
	and	ecx, 4096				; 00001000H
	je	SHORT $LN65@DrawPartic

; 425  : 			VectorAngles( Vector( 0, 0, -1 ), ViewVec );

	lea	eax, DWORD PTR _ViewVec$[ebp]
	push	eax
	push	ecx
	movss	xmm0, DWORD PTR __real@bf800000
	movss	DWORD PTR [esp], xmm0
	push	ecx
	xorps	xmm0, xmm0
	movss	DWORD PTR [esp], xmm0
	push	ecx
	xorps	xmm0, xmm0
	movss	DWORD PTR [esp], xmm0
	lea	ecx, DWORD PTR $T28[ebp]
	call	??0Vector@@QAE@MMM@Z			; Vector::Vector
	push	eax
	call	?VectorAngles@@YAXABVVector@@AAV1@@Z	; VectorAngles
	add	esp, 8

; 426  : 		else

	jmp	SHORT $LN66@DrawPartic
$LN65@DrawPartic:

; 427  : 			VectorAngles( org - RI->vieworg, ViewVec );

	lea	eax, DWORD PTR _ViewVec$[ebp]
	push	eax
	mov	ecx, DWORD PTR ?RI@@3PAUref_instance_t@@A ; RI
	add	ecx, 204				; 000000ccH
	push	ecx
	lea	edx, DWORD PTR $T27[ebp]
	push	edx
	lea	ecx, DWORD PTR _org$[ebp]
	call	??GVector@@QBE?AV0@ABV0@@Z		; Vector::operator-
	push	eax
	call	?VectorAngles@@YAXABVVector@@AAV1@@Z	; VectorAngles
	add	esp, 8
$LN66@DrawPartic:

; 428  : 		
; 429  : 		gEngfuncs.pfnAngleVectors( ViewVec, Forward, Right, Up );

	lea	ecx, DWORD PTR _Up$[ebp]
	call	??BVector@@QAEPAMXZ			; Vector::operator float *
	push	eax
	lea	ecx, DWORD PTR _Right$[ebp]
	call	??BVector@@QAEPAMXZ			; Vector::operator float *
	push	eax
	lea	ecx, DWORD PTR _Forward$[ebp]
	call	??BVector@@QAEPAMXZ			; Vector::operator float *
	push	eax
	lea	ecx, DWORD PTR _ViewVec$[ebp]
	call	??BVector@@QAEPAMXZ			; Vector::operator float *
	push	eax
	call	DWORD PTR ?gEngfuncs@@3Ucl_enginefuncs_s@@A+96
	add	esp, 16					; 00000010H

; 430  : 
; 431  : 		// prepare to draw
; 432  : 		if( curLength != 1.0f )

	movss	xmm0, DWORD PTR _curLength$51[ebp]
	ucomiss	xmm0, DWORD PTR __real@3f800000
	lahf
	test	ah, 68					; 00000044H
	jnp	$LN67@DrawPartic

; 433  : 		{
; 434  : 			// find orientation vectors
; 435  : 			axis[0] = RI->vieworg - org;

	lea	eax, DWORD PTR _org$[ebp]
	push	eax
	lea	ecx, DWORD PTR $T26[ebp]
	push	ecx
	mov	ecx, DWORD PTR ?RI@@3PAUref_instance_t@@A ; RI
	add	ecx, 204				; 000000ccH
	call	??GVector@@QBE?AV0@ABV0@@Z		; Vector::operator-
	mov	edx, 12					; 0000000cH
	imul	ecx, edx, 0
	lea	edx, DWORD PTR _axis$[ebp+ecx]
	mov	ecx, DWORD PTR [eax]
	mov	DWORD PTR [edx], ecx
	mov	ecx, DWORD PTR [eax+4]
	mov	DWORD PTR [edx+4], ecx
	mov	eax, DWORD PTR [eax+8]
	mov	DWORD PTR [edx+8], eax

; 436  : 			axis[1] = org2 - org;

	lea	eax, DWORD PTR _org$[ebp]
	push	eax
	lea	ecx, DWORD PTR $T25[ebp]
	push	ecx
	lea	ecx, DWORD PTR _org2$[ebp]
	call	??GVector@@QBE?AV0@ABV0@@Z		; Vector::operator-
	mov	edx, 12					; 0000000cH
	shl	edx, 0
	lea	ecx, DWORD PTR _axis$[ebp+edx]
	mov	edx, DWORD PTR [eax]
	mov	DWORD PTR [ecx], edx
	mov	edx, DWORD PTR [eax+4]
	mov	DWORD PTR [ecx+4], edx
	mov	eax, DWORD PTR [eax+8]
	mov	DWORD PTR [ecx+8], eax

; 437  : 			axis[2] = CrossProduct( axis[0], axis[1] );

	mov	eax, 12					; 0000000cH
	shl	eax, 0
	lea	ecx, DWORD PTR _axis$[ebp+eax]
	push	ecx
	mov	edx, 12					; 0000000cH
	imul	eax, edx, 0
	lea	ecx, DWORD PTR _axis$[ebp+eax]
	push	ecx
	lea	edx, DWORD PTR $T24[ebp]
	push	edx
	call	?CrossProduct@@YA?AVVector@@ABV1@0@Z	; CrossProduct
	add	esp, 12					; 0000000cH
	mov	ecx, 12					; 0000000cH
	shl	ecx, 1
	lea	edx, DWORD PTR _axis$[ebp+ecx]
	mov	ecx, DWORD PTR [eax]
	mov	DWORD PTR [edx], ecx
	mov	ecx, DWORD PTR [eax+4]
	mov	DWORD PTR [edx+4], ecx
	mov	eax, DWORD PTR [eax+8]
	mov	DWORD PTR [edx+8], eax

; 438  : 
; 439  : 			axis[1] = axis[1].Normalize();

	lea	eax, DWORD PTR $T23[ebp]
	push	eax
	mov	ecx, 12					; 0000000cH
	shl	ecx, 0
	lea	ecx, DWORD PTR _axis$[ebp+ecx]
	call	?Normalize@Vector@@QBE?AV1@XZ		; Vector::Normalize
	mov	edx, 12					; 0000000cH
	shl	edx, 0
	lea	ecx, DWORD PTR _axis$[ebp+edx]
	mov	edx, DWORD PTR [eax]
	mov	DWORD PTR [ecx], edx
	mov	edx, DWORD PTR [eax+4]
	mov	DWORD PTR [ecx+4], edx
	mov	eax, DWORD PTR [eax+8]
	mov	DWORD PTR [ecx+8], eax

; 440  : 			axis[2] = axis[2].Normalize();

	lea	eax, DWORD PTR $T22[ebp]
	push	eax
	mov	ecx, 12					; 0000000cH
	shl	ecx, 1
	lea	ecx, DWORD PTR _axis$[ebp+ecx]
	call	?Normalize@Vector@@QBE?AV1@XZ		; Vector::Normalize
	mov	edx, 12					; 0000000cH
	shl	edx, 1
	lea	ecx, DWORD PTR _axis$[ebp+edx]
	mov	edx, DWORD PTR [eax]
	mov	DWORD PTR [ecx], edx
	mov	edx, DWORD PTR [eax+4]
	mov	DWORD PTR [ecx+4], edx
	mov	eax, DWORD PTR [eax+8]
	mov	DWORD PTR [ecx+8], eax

; 441  : 
; 442  : 			// find normal
; 443  : 			axis[0] = CrossProduct( axis[1], axis[2] );

	mov	eax, 12					; 0000000cH
	shl	eax, 1
	lea	ecx, DWORD PTR _axis$[ebp+eax]
	push	ecx
	mov	edx, 12					; 0000000cH
	shl	edx, 0
	lea	eax, DWORD PTR _axis$[ebp+edx]
	push	eax
	lea	ecx, DWORD PTR $T21[ebp]
	push	ecx
	call	?CrossProduct@@YA?AVVector@@ABV1@0@Z	; CrossProduct
	add	esp, 12					; 0000000cH
	mov	edx, 12					; 0000000cH
	imul	ecx, edx, 0
	lea	edx, DWORD PTR _axis$[ebp+ecx]
	mov	ecx, DWORD PTR [eax]
	mov	DWORD PTR [edx], ecx
	mov	ecx, DWORD PTR [eax+4]
	mov	DWORD PTR [edx+4], ecx
	mov	eax, DWORD PTR [eax+8]
	mov	DWORD PTR [edx+8], eax

; 444  : 			axis[0] = axis[0].Normalize();

	lea	eax, DWORD PTR $T20[ebp]
	push	eax
	mov	ecx, 12					; 0000000cH
	imul	edx, ecx, 0
	lea	ecx, DWORD PTR _axis$[ebp+edx]
	call	?Normalize@Vector@@QBE?AV1@XZ		; Vector::Normalize
	mov	ecx, 12					; 0000000cH
	imul	edx, ecx, 0
	lea	ecx, DWORD PTR _axis$[ebp+edx]
	mov	edx, DWORD PTR [eax]
	mov	DWORD PTR [ecx], edx
	mov	edx, DWORD PTR [eax+4]
	mov	DWORD PTR [ecx+4], edx
	mov	eax, DWORD PTR [eax+8]
	mov	DWORD PTR [ecx+8], eax

; 445  : 
; 446  : 			org3 = org + (axis[1] * -curLength);

	movss	xmm0, DWORD PTR _curLength$51[ebp]
	xorps	xmm0, DWORD PTR __xmm@80000000800000008000000080000000
	push	ecx
	movss	DWORD PTR [esp], xmm0
	lea	eax, DWORD PTR $T19[ebp]
	push	eax
	mov	ecx, 12					; 0000000cH
	shl	ecx, 0
	lea	ecx, DWORD PTR _axis$[ebp+ecx]
	call	??DVector@@QBE?AV0@M@Z			; Vector::operator*
	push	eax
	lea	edx, DWORD PTR $T18[ebp]
	push	edx
	lea	ecx, DWORD PTR _org$[ebp]
	call	??HVector@@QBE?AV0@ABV0@@Z		; Vector::operator+
	mov	ecx, DWORD PTR [eax]
	mov	DWORD PTR _org3$[ebp], ecx
	mov	edx, DWORD PTR [eax+4]
	mov	DWORD PTR _org3$[ebp+4], edx
	mov	eax, DWORD PTR [eax+8]
	mov	DWORD PTR _org3$[ebp+8], eax

; 447  : 			axis[2] *= curParticle->m_flRadius;

	mov	eax, DWORD PTR _curParticle$[ebp]
	push	ecx
	movss	xmm0, DWORD PTR [eax+80]
	movss	DWORD PTR [esp], xmm0
	mov	ecx, 12					; 0000000cH
	shl	ecx, 1
	lea	ecx, DWORD PTR _axis$[ebp+ecx]
	call	??XVector@@QAEAAV0@M@Z			; Vector::operator*=

; 448  : 
; 449  : 			// setup vertexes
; 450  : 			verts[0] = org3 - axis[2];

	mov	eax, 12					; 0000000cH
	shl	eax, 1
	lea	ecx, DWORD PTR _axis$[ebp+eax]
	push	ecx
	lea	edx, DWORD PTR $T17[ebp]
	push	edx
	lea	ecx, DWORD PTR _org3$[ebp]
	call	??GVector@@QBE?AV0@ABV0@@Z		; Vector::operator-
	mov	ecx, 12					; 0000000cH
	imul	edx, ecx, 0
	lea	ecx, DWORD PTR _verts$[ebp+edx]
	mov	edx, DWORD PTR [eax]
	mov	DWORD PTR [ecx], edx
	mov	edx, DWORD PTR [eax+4]
	mov	DWORD PTR [ecx+4], edx
	mov	eax, DWORD PTR [eax+8]
	mov	DWORD PTR [ecx+8], eax

; 451  : 			verts[1] = org3 + axis[2];

	mov	eax, 12					; 0000000cH
	shl	eax, 1
	lea	ecx, DWORD PTR _axis$[ebp+eax]
	push	ecx
	lea	edx, DWORD PTR $T16[ebp]
	push	edx
	lea	ecx, DWORD PTR _org3$[ebp]
	call	??HVector@@QBE?AV0@ABV0@@Z		; Vector::operator+
	mov	ecx, 12					; 0000000cH
	shl	ecx, 0
	lea	edx, DWORD PTR _verts$[ebp+ecx]
	mov	ecx, DWORD PTR [eax]
	mov	DWORD PTR [edx], ecx
	mov	ecx, DWORD PTR [eax+4]
	mov	DWORD PTR [edx+4], ecx
	mov	eax, DWORD PTR [eax+8]
	mov	DWORD PTR [edx+8], eax

; 452  : 			verts[2] = org + axis[2];

	mov	eax, 12					; 0000000cH
	shl	eax, 1
	lea	ecx, DWORD PTR _axis$[ebp+eax]
	push	ecx
	lea	edx, DWORD PTR $T15[ebp]
	push	edx
	lea	ecx, DWORD PTR _org$[ebp]
	call	??HVector@@QBE?AV0@ABV0@@Z		; Vector::operator+
	mov	ecx, 12					; 0000000cH
	shl	ecx, 1
	lea	edx, DWORD PTR _verts$[ebp+ecx]
	mov	ecx, DWORD PTR [eax]
	mov	DWORD PTR [edx], ecx
	mov	ecx, DWORD PTR [eax+4]
	mov	DWORD PTR [edx+4], ecx
	mov	eax, DWORD PTR [eax+8]
	mov	DWORD PTR [edx+8], eax

; 453  : 			verts[3] = org - axis[2];

	mov	eax, 12					; 0000000cH
	shl	eax, 1
	lea	ecx, DWORD PTR _axis$[ebp+eax]
	push	ecx
	lea	edx, DWORD PTR $T14[ebp]
	push	edx
	lea	ecx, DWORD PTR _org$[ebp]
	call	??GVector@@QBE?AV0@ABV0@@Z		; Vector::operator-
	mov	ecx, 12					; 0000000cH
	imul	edx, ecx, 3
	lea	ecx, DWORD PTR _verts$[ebp+edx]
	mov	edx, DWORD PTR [eax]
	mov	DWORD PTR [ecx], edx
	mov	edx, DWORD PTR [eax+4]
	mov	DWORD PTR [ecx+4], edx
	mov	eax, DWORD PTR [eax+8]
	mov	DWORD PTR [ecx+8], eax

; 454  : 		}
; 455  : 		else

	jmp	$LN68@DrawPartic
$LN67@DrawPartic:

; 456  : 		{
; 457  : 			if( curParticle->m_flRotation || curParticle->m_flRotationVelocity )

	mov	eax, DWORD PTR _curParticle$[ebp]
	movss	xmm0, DWORD PTR [eax+96]
	ucomiss	xmm0, DWORD PTR __real@00000000
	lahf
	test	ah, 68					; 00000044H
	jp	SHORT $LN71@DrawPartic
	mov	eax, DWORD PTR _curParticle$[ebp]
	movss	xmm0, DWORD PTR [eax+100]
	ucomiss	xmm0, DWORD PTR __real@00000000
	lahf
	test	ah, 68					; 00000044H
	jnp	$LN69@DrawPartic
$LN71@DrawPartic:

; 458  : 			{
; 459  : 				// Rotate it around its normal
; 460  : 				RotatePointAroundVector( axis[1], Forward, Right, curRotation );

	push	ecx
	movss	xmm0, DWORD PTR _curRotation$50[ebp]
	movss	DWORD PTR [esp], xmm0
	lea	eax, DWORD PTR _Right$[ebp]
	push	eax
	lea	ecx, DWORD PTR _Forward$[ebp]
	push	ecx
	mov	edx, 12					; 0000000cH
	shl	edx, 0
	lea	eax, DWORD PTR _axis$[ebp+edx]
	push	eax
	call	?RotatePointAroundVector@@YAXAAVVector@@ABV1@1M@Z ; RotatePointAroundVector
	add	esp, 16					; 00000010H

; 461  : 				axis[2] = CrossProduct( Forward, axis[1] );

	mov	eax, 12					; 0000000cH
	shl	eax, 0
	lea	ecx, DWORD PTR _axis$[ebp+eax]
	push	ecx
	lea	edx, DWORD PTR _Forward$[ebp]
	push	edx
	lea	eax, DWORD PTR $T13[ebp]
	push	eax
	call	?CrossProduct@@YA?AVVector@@ABV1@0@Z	; CrossProduct
	add	esp, 12					; 0000000cH
	mov	ecx, 12					; 0000000cH
	shl	ecx, 1
	lea	edx, DWORD PTR _axis$[ebp+ecx]
	mov	ecx, DWORD PTR [eax]
	mov	DWORD PTR [edx], ecx
	mov	ecx, DWORD PTR [eax+4]
	mov	DWORD PTR [edx+4], ecx
	mov	eax, DWORD PTR [eax+8]
	mov	DWORD PTR [edx+8], eax

; 462  : 
; 463  : 				// the normal should point at the viewer
; 464  : 				axis[0] = -Forward;

	lea	eax, DWORD PTR $T12[ebp]
	push	eax
	lea	ecx, DWORD PTR _Forward$[ebp]
	call	??GVector@@QBE?AV0@XZ			; Vector::operator-
	mov	ecx, 12					; 0000000cH
	imul	edx, ecx, 0
	lea	ecx, DWORD PTR _axis$[ebp+edx]
	mov	edx, DWORD PTR [eax]
	mov	DWORD PTR [ecx], edx
	mov	edx, DWORD PTR [eax+4]
	mov	DWORD PTR [ecx+4], edx
	mov	eax, DWORD PTR [eax+8]
	mov	DWORD PTR [ecx+8], eax

; 465  : 
; 466  : 				// Scale the axes by radius
; 467  : 				axis[1] *= curRadius;

	push	ecx
	movss	xmm0, DWORD PTR _curRadius$52[ebp]
	movss	DWORD PTR [esp], xmm0
	mov	eax, 12					; 0000000cH
	shl	eax, 0
	lea	ecx, DWORD PTR _axis$[ebp+eax]
	call	??XVector@@QAEAAV0@M@Z			; Vector::operator*=

; 468  : 				axis[2] *= curRadius;

	push	ecx
	movss	xmm0, DWORD PTR _curRadius$52[ebp]
	movss	DWORD PTR [esp], xmm0
	mov	eax, 12					; 0000000cH
	shl	eax, 1
	lea	ecx, DWORD PTR _axis$[ebp+eax]
	call	??XVector@@QAEAAV0@M@Z			; Vector::operator*=

; 469  : 			}
; 470  : 			else

	jmp	$LN70@DrawPartic
$LN69@DrawPartic:

; 471  : 			{
; 472  : 				// the normal should point at the viewer
; 473  : 				axis[0] = -Forward;

	lea	eax, DWORD PTR $T11[ebp]
	push	eax
	lea	ecx, DWORD PTR _Forward$[ebp]
	call	??GVector@@QBE?AV0@XZ			; Vector::operator-
	mov	ecx, 12					; 0000000cH
	imul	edx, ecx, 0
	lea	ecx, DWORD PTR _axis$[ebp+edx]
	mov	edx, DWORD PTR [eax]
	mov	DWORD PTR [ecx], edx
	mov	edx, DWORD PTR [eax+4]
	mov	DWORD PTR [ecx+4], edx
	mov	eax, DWORD PTR [eax+8]
	mov	DWORD PTR [ecx+8], eax

; 474  : 
; 475  : 				// scale the axes by radius
; 476  : 				axis[1] = Right * curRadius;

	push	ecx
	movss	xmm0, DWORD PTR _curRadius$52[ebp]
	movss	DWORD PTR [esp], xmm0
	lea	eax, DWORD PTR $T10[ebp]
	push	eax
	lea	ecx, DWORD PTR _Right$[ebp]
	call	??DVector@@QBE?AV0@M@Z			; Vector::operator*
	mov	ecx, 12					; 0000000cH
	shl	ecx, 0
	lea	edx, DWORD PTR _axis$[ebp+ecx]
	mov	ecx, DWORD PTR [eax]
	mov	DWORD PTR [edx], ecx
	mov	ecx, DWORD PTR [eax+4]
	mov	DWORD PTR [edx+4], ecx
	mov	eax, DWORD PTR [eax+8]
	mov	DWORD PTR [edx+8], eax

; 477  : 				axis[2] = Up * curRadius;

	push	ecx
	movss	xmm0, DWORD PTR _curRadius$52[ebp]
	movss	DWORD PTR [esp], xmm0
	lea	eax, DWORD PTR $T9[ebp]
	push	eax
	lea	ecx, DWORD PTR _Up$[ebp]
	call	??DVector@@QBE?AV0@M@Z			; Vector::operator*
	mov	ecx, 12					; 0000000cH
	shl	ecx, 1
	lea	edx, DWORD PTR _axis$[ebp+ecx]
	mov	ecx, DWORD PTR [eax]
	mov	DWORD PTR [edx], ecx
	mov	ecx, DWORD PTR [eax+4]
	mov	DWORD PTR [edx+4], ecx
	mov	eax, DWORD PTR [eax+8]
	mov	DWORD PTR [edx+8], eax
$LN70@DrawPartic:

; 478  : 			}
; 479  : 
; 480  : 			verts[0] = org + axis[1] - axis[2];

	mov	eax, 12					; 0000000cH
	shl	eax, 1
	lea	ecx, DWORD PTR _axis$[ebp+eax]
	push	ecx
	lea	edx, DWORD PTR $T7[ebp]
	push	edx
	mov	eax, 12					; 0000000cH
	shl	eax, 0
	lea	ecx, DWORD PTR _axis$[ebp+eax]
	push	ecx
	lea	edx, DWORD PTR $T8[ebp]
	push	edx
	lea	ecx, DWORD PTR _org$[ebp]
	call	??HVector@@QBE?AV0@ABV0@@Z		; Vector::operator+
	mov	ecx, eax
	call	??GVector@@QBE?AV0@ABV0@@Z		; Vector::operator-
	mov	ecx, 12					; 0000000cH
	imul	edx, ecx, 0
	lea	ecx, DWORD PTR _verts$[ebp+edx]
	mov	edx, DWORD PTR [eax]
	mov	DWORD PTR [ecx], edx
	mov	edx, DWORD PTR [eax+4]
	mov	DWORD PTR [ecx+4], edx
	mov	eax, DWORD PTR [eax+8]
	mov	DWORD PTR [ecx+8], eax

; 481  : 			verts[1] = org + axis[1] + axis[2];

	mov	eax, 12					; 0000000cH
	shl	eax, 1
	lea	ecx, DWORD PTR _axis$[ebp+eax]
	push	ecx
	lea	edx, DWORD PTR $T5[ebp]
	push	edx
	mov	eax, 12					; 0000000cH
	shl	eax, 0
	lea	ecx, DWORD PTR _axis$[ebp+eax]
	push	ecx
	lea	edx, DWORD PTR $T6[ebp]
	push	edx
	lea	ecx, DWORD PTR _org$[ebp]
	call	??HVector@@QBE?AV0@ABV0@@Z		; Vector::operator+
	mov	ecx, eax
	call	??HVector@@QBE?AV0@ABV0@@Z		; Vector::operator+
	mov	ecx, 12					; 0000000cH
	shl	ecx, 0
	lea	edx, DWORD PTR _verts$[ebp+ecx]
	mov	ecx, DWORD PTR [eax]
	mov	DWORD PTR [edx], ecx
	mov	ecx, DWORD PTR [eax+4]
	mov	DWORD PTR [edx+4], ecx
	mov	eax, DWORD PTR [eax+8]
	mov	DWORD PTR [edx+8], eax

; 482  : 			verts[2] = org - axis[1] + axis[2];

	mov	eax, 12					; 0000000cH
	shl	eax, 1
	lea	ecx, DWORD PTR _axis$[ebp+eax]
	push	ecx
	lea	edx, DWORD PTR $T3[ebp]
	push	edx
	mov	eax, 12					; 0000000cH
	shl	eax, 0
	lea	ecx, DWORD PTR _axis$[ebp+eax]
	push	ecx
	lea	edx, DWORD PTR $T4[ebp]
	push	edx
	lea	ecx, DWORD PTR _org$[ebp]
	call	??GVector@@QBE?AV0@ABV0@@Z		; Vector::operator-
	mov	ecx, eax
	call	??HVector@@QBE?AV0@ABV0@@Z		; Vector::operator+
	mov	ecx, 12					; 0000000cH
	shl	ecx, 1
	lea	edx, DWORD PTR _verts$[ebp+ecx]
	mov	ecx, DWORD PTR [eax]
	mov	DWORD PTR [edx], ecx
	mov	ecx, DWORD PTR [eax+4]
	mov	DWORD PTR [edx+4], ecx
	mov	eax, DWORD PTR [eax+8]
	mov	DWORD PTR [edx+8], eax

; 483  : 			verts[3] = org - axis[1] - axis[2];

	mov	eax, 12					; 0000000cH
	shl	eax, 1
	lea	ecx, DWORD PTR _axis$[ebp+eax]
	push	ecx
	lea	edx, DWORD PTR $T1[ebp]
	push	edx
	mov	eax, 12					; 0000000cH
	shl	eax, 0
	lea	ecx, DWORD PTR _axis$[ebp+eax]
	push	ecx
	lea	edx, DWORD PTR $T2[ebp]
	push	edx
	lea	ecx, DWORD PTR _org$[ebp]
	call	??GVector@@QBE?AV0@ABV0@@Z		; Vector::operator-
	mov	ecx, eax
	call	??GVector@@QBE?AV0@ABV0@@Z		; Vector::operator-
	mov	ecx, 12					; 0000000cH
	imul	edx, ecx, 3
	lea	ecx, DWORD PTR _verts$[ebp+edx]
	mov	edx, DWORD PTR [eax]
	mov	DWORD PTR [ecx], edx
	mov	edx, DWORD PTR [eax+4]
	mov	DWORD PTR [ecx+4], edx
	mov	eax, DWORD PTR [eax+8]
	mov	DWORD PTR [ecx+8], eax
$LN68@DrawPartic:

; 484  : 		}
; 485  : 
; 486  : 		m_coordsarray[m_iNumVerts].x = 0.0f;

	mov	eax, DWORD PTR ?m_iNumVerts@@3HA
	xorps	xmm0, xmm0
	movss	DWORD PTR ?m_coordsarray@@3PAVVector2D@@A[eax*8], xmm0

; 487  : 		m_coordsarray[m_iNumVerts].y = 0.0f;

	mov	eax, DWORD PTR ?m_iNumVerts@@3HA
	xorps	xmm0, xmm0
	movss	DWORD PTR ?m_coordsarray@@3PAVVector2D@@A[eax*8+4], xmm0

; 488  : 		m_colorarray[m_iNumVerts][0] = curColor.x * 255;

	movss	xmm0, DWORD PTR _curColor$49[ebp]
	mulss	xmm0, DWORD PTR __real@437f0000
	cvttss2si eax, xmm0
	mov	ecx, 1
	imul	edx, ecx, 0
	mov	ecx, DWORD PTR ?m_iNumVerts@@3HA
	mov	BYTE PTR ?m_colorarray@@3PAY03EA[edx+ecx*4], al

; 489  : 		m_colorarray[m_iNumVerts][1] = curColor.y * 255;

	movss	xmm0, DWORD PTR _curColor$49[ebp+4]
	mulss	xmm0, DWORD PTR __real@437f0000
	cvttss2si eax, xmm0
	mov	ecx, 1
	shl	ecx, 0
	mov	edx, DWORD PTR ?m_iNumVerts@@3HA
	mov	BYTE PTR ?m_colorarray@@3PAY03EA[ecx+edx*4], al

; 490  : 		m_colorarray[m_iNumVerts][2] = curColor.z * 255;

	movss	xmm0, DWORD PTR _curColor$49[ebp+8]
	mulss	xmm0, DWORD PTR __real@437f0000
	cvttss2si eax, xmm0
	mov	ecx, 1
	shl	ecx, 1
	mov	edx, DWORD PTR ?m_iNumVerts@@3HA
	mov	BYTE PTR ?m_colorarray@@3PAY03EA[ecx+edx*4], al

; 491  : 		m_colorarray[m_iNumVerts][3] = curAlpha * 255;

	movss	xmm0, DWORD PTR _curAlpha$53[ebp]
	mulss	xmm0, DWORD PTR __real@437f0000
	cvttss2si eax, xmm0
	mov	ecx, 1
	imul	edx, ecx, 3
	mov	ecx, DWORD PTR ?m_iNumVerts@@3HA
	mov	BYTE PTR ?m_colorarray@@3PAY03EA[edx+ecx*4], al

; 492  : 		m_vertexarray[m_iNumVerts] = verts[0];

	mov	eax, 12					; 0000000cH
	imul	ecx, eax, 0
	lea	edx, DWORD PTR _verts$[ebp+ecx]
	imul	eax, DWORD PTR ?m_iNumVerts@@3HA, 12
	add	eax, OFFSET ?m_vertexarray@@3PAVVector@@A
	mov	ecx, DWORD PTR [edx]
	mov	DWORD PTR [eax], ecx
	mov	ecx, DWORD PTR [edx+4]
	mov	DWORD PTR [eax+4], ecx
	mov	edx, DWORD PTR [edx+8]
	mov	DWORD PTR [eax+8], edx

; 493  : 		m_indexarray[m_iNumIndex++] = m_iNumVerts++;

	mov	eax, DWORD PTR ?m_iNumIndex@@3HA
	mov	cx, WORD PTR ?m_iNumVerts@@3HA
	mov	WORD PTR ?m_indexarray@@3PAGA[eax*2], cx
	mov	edx, DWORD PTR ?m_iNumIndex@@3HA
	add	edx, 1
	mov	DWORD PTR ?m_iNumIndex@@3HA, edx
	mov	eax, DWORD PTR ?m_iNumVerts@@3HA
	add	eax, 1
	mov	DWORD PTR ?m_iNumVerts@@3HA, eax

; 494  : 
; 495  : 		m_coordsarray[m_iNumVerts].x = 0.0f;

	mov	eax, DWORD PTR ?m_iNumVerts@@3HA
	xorps	xmm0, xmm0
	movss	DWORD PTR ?m_coordsarray@@3PAVVector2D@@A[eax*8], xmm0

; 496  : 		m_coordsarray[m_iNumVerts].y = 1.0f;

	mov	eax, DWORD PTR ?m_iNumVerts@@3HA
	movss	xmm0, DWORD PTR __real@3f800000
	movss	DWORD PTR ?m_coordsarray@@3PAVVector2D@@A[eax*8+4], xmm0

; 497  : 		m_colorarray[m_iNumVerts][0] = curColor.x * 255;

	movss	xmm0, DWORD PTR _curColor$49[ebp]
	mulss	xmm0, DWORD PTR __real@437f0000
	cvttss2si eax, xmm0
	mov	ecx, 1
	imul	edx, ecx, 0
	mov	ecx, DWORD PTR ?m_iNumVerts@@3HA
	mov	BYTE PTR ?m_colorarray@@3PAY03EA[edx+ecx*4], al

; 498  : 		m_colorarray[m_iNumVerts][1] = curColor.y * 255;

	movss	xmm0, DWORD PTR _curColor$49[ebp+4]
	mulss	xmm0, DWORD PTR __real@437f0000
	cvttss2si eax, xmm0
	mov	ecx, 1
	shl	ecx, 0
	mov	edx, DWORD PTR ?m_iNumVerts@@3HA
	mov	BYTE PTR ?m_colorarray@@3PAY03EA[ecx+edx*4], al

; 499  : 		m_colorarray[m_iNumVerts][2] = curColor.z * 255;

	movss	xmm0, DWORD PTR _curColor$49[ebp+8]
	mulss	xmm0, DWORD PTR __real@437f0000
	cvttss2si eax, xmm0
	mov	ecx, 1
	shl	ecx, 1
	mov	edx, DWORD PTR ?m_iNumVerts@@3HA
	mov	BYTE PTR ?m_colorarray@@3PAY03EA[ecx+edx*4], al

; 500  : 		m_colorarray[m_iNumVerts][3] = curAlpha * 255;

	movss	xmm0, DWORD PTR _curAlpha$53[ebp]
	mulss	xmm0, DWORD PTR __real@437f0000
	cvttss2si eax, xmm0
	mov	ecx, 1
	imul	edx, ecx, 3
	mov	ecx, DWORD PTR ?m_iNumVerts@@3HA
	mov	BYTE PTR ?m_colorarray@@3PAY03EA[edx+ecx*4], al

; 501  : 		m_vertexarray[m_iNumVerts] = verts[1];

	mov	eax, 12					; 0000000cH
	shl	eax, 0
	lea	ecx, DWORD PTR _verts$[ebp+eax]
	imul	edx, DWORD PTR ?m_iNumVerts@@3HA, 12
	add	edx, OFFSET ?m_vertexarray@@3PAVVector@@A
	mov	eax, DWORD PTR [ecx]
	mov	DWORD PTR [edx], eax
	mov	eax, DWORD PTR [ecx+4]
	mov	DWORD PTR [edx+4], eax
	mov	ecx, DWORD PTR [ecx+8]
	mov	DWORD PTR [edx+8], ecx

; 502  : 		m_indexarray[m_iNumIndex++] = m_iNumVerts++;

	mov	eax, DWORD PTR ?m_iNumIndex@@3HA
	mov	cx, WORD PTR ?m_iNumVerts@@3HA
	mov	WORD PTR ?m_indexarray@@3PAGA[eax*2], cx
	mov	edx, DWORD PTR ?m_iNumIndex@@3HA
	add	edx, 1
	mov	DWORD PTR ?m_iNumIndex@@3HA, edx
	mov	eax, DWORD PTR ?m_iNumVerts@@3HA
	add	eax, 1
	mov	DWORD PTR ?m_iNumVerts@@3HA, eax

; 503  : 
; 504  : 		m_coordsarray[m_iNumVerts].x = 1.0f;

	mov	eax, DWORD PTR ?m_iNumVerts@@3HA
	movss	xmm0, DWORD PTR __real@3f800000
	movss	DWORD PTR ?m_coordsarray@@3PAVVector2D@@A[eax*8], xmm0

; 505  : 		m_coordsarray[m_iNumVerts].y = 1.0f;

	mov	eax, DWORD PTR ?m_iNumVerts@@3HA
	movss	xmm0, DWORD PTR __real@3f800000
	movss	DWORD PTR ?m_coordsarray@@3PAVVector2D@@A[eax*8+4], xmm0

; 506  : 		m_colorarray[m_iNumVerts][0] = curColor.x * 255;

	movss	xmm0, DWORD PTR _curColor$49[ebp]
	mulss	xmm0, DWORD PTR __real@437f0000
	cvttss2si eax, xmm0
	mov	ecx, 1
	imul	edx, ecx, 0
	mov	ecx, DWORD PTR ?m_iNumVerts@@3HA
	mov	BYTE PTR ?m_colorarray@@3PAY03EA[edx+ecx*4], al

; 507  : 		m_colorarray[m_iNumVerts][1] = curColor.y * 255;

	movss	xmm0, DWORD PTR _curColor$49[ebp+4]
	mulss	xmm0, DWORD PTR __real@437f0000
	cvttss2si eax, xmm0
	mov	ecx, 1
	shl	ecx, 0
	mov	edx, DWORD PTR ?m_iNumVerts@@3HA
	mov	BYTE PTR ?m_colorarray@@3PAY03EA[ecx+edx*4], al

; 508  : 		m_colorarray[m_iNumVerts][2] = curColor.z * 255;

	movss	xmm0, DWORD PTR _curColor$49[ebp+8]
	mulss	xmm0, DWORD PTR __real@437f0000
	cvttss2si eax, xmm0
	mov	ecx, 1
	shl	ecx, 1
	mov	edx, DWORD PTR ?m_iNumVerts@@3HA
	mov	BYTE PTR ?m_colorarray@@3PAY03EA[ecx+edx*4], al

; 509  : 		m_colorarray[m_iNumVerts][3] = curAlpha * 255;

	movss	xmm0, DWORD PTR _curAlpha$53[ebp]
	mulss	xmm0, DWORD PTR __real@437f0000
	cvttss2si eax, xmm0
	mov	ecx, 1
	imul	edx, ecx, 3
	mov	ecx, DWORD PTR ?m_iNumVerts@@3HA
	mov	BYTE PTR ?m_colorarray@@3PAY03EA[edx+ecx*4], al

; 510  : 		m_vertexarray[m_iNumVerts] = verts[2];

	mov	eax, 12					; 0000000cH
	shl	eax, 1
	lea	ecx, DWORD PTR _verts$[ebp+eax]
	imul	edx, DWORD PTR ?m_iNumVerts@@3HA, 12
	add	edx, OFFSET ?m_vertexarray@@3PAVVector@@A
	mov	eax, DWORD PTR [ecx]
	mov	DWORD PTR [edx], eax
	mov	eax, DWORD PTR [ecx+4]
	mov	DWORD PTR [edx+4], eax
	mov	ecx, DWORD PTR [ecx+8]
	mov	DWORD PTR [edx+8], ecx

; 511  : 		m_indexarray[m_iNumIndex++] = m_iNumVerts++;

	mov	eax, DWORD PTR ?m_iNumIndex@@3HA
	mov	cx, WORD PTR ?m_iNumVerts@@3HA
	mov	WORD PTR ?m_indexarray@@3PAGA[eax*2], cx
	mov	edx, DWORD PTR ?m_iNumIndex@@3HA
	add	edx, 1
	mov	DWORD PTR ?m_iNumIndex@@3HA, edx
	mov	eax, DWORD PTR ?m_iNumVerts@@3HA
	add	eax, 1
	mov	DWORD PTR ?m_iNumVerts@@3HA, eax

; 512  : 
; 513  : 		m_coordsarray[m_iNumVerts].x = 1.0f;

	mov	eax, DWORD PTR ?m_iNumVerts@@3HA
	movss	xmm0, DWORD PTR __real@3f800000
	movss	DWORD PTR ?m_coordsarray@@3PAVVector2D@@A[eax*8], xmm0

; 514  : 		m_coordsarray[m_iNumVerts].y = 0.0f;

	mov	eax, DWORD PTR ?m_iNumVerts@@3HA
	xorps	xmm0, xmm0
	movss	DWORD PTR ?m_coordsarray@@3PAVVector2D@@A[eax*8+4], xmm0

; 515  : 		m_colorarray[m_iNumVerts][0] = curColor.x * 255;

	movss	xmm0, DWORD PTR _curColor$49[ebp]
	mulss	xmm0, DWORD PTR __real@437f0000
	cvttss2si eax, xmm0
	mov	ecx, 1
	imul	edx, ecx, 0
	mov	ecx, DWORD PTR ?m_iNumVerts@@3HA
	mov	BYTE PTR ?m_colorarray@@3PAY03EA[edx+ecx*4], al

; 516  : 		m_colorarray[m_iNumVerts][1] = curColor.y * 255;

	movss	xmm0, DWORD PTR _curColor$49[ebp+4]
	mulss	xmm0, DWORD PTR __real@437f0000
	cvttss2si eax, xmm0
	mov	ecx, 1
	shl	ecx, 0
	mov	edx, DWORD PTR ?m_iNumVerts@@3HA
	mov	BYTE PTR ?m_colorarray@@3PAY03EA[ecx+edx*4], al

; 517  : 		m_colorarray[m_iNumVerts][2] = curColor.z * 255;

	movss	xmm0, DWORD PTR _curColor$49[ebp+8]
	mulss	xmm0, DWORD PTR __real@437f0000
	cvttss2si eax, xmm0
	mov	ecx, 1
	shl	ecx, 1
	mov	edx, DWORD PTR ?m_iNumVerts@@3HA
	mov	BYTE PTR ?m_colorarray@@3PAY03EA[ecx+edx*4], al

; 518  : 		m_colorarray[m_iNumVerts][3] = curAlpha * 255;

	movss	xmm0, DWORD PTR _curAlpha$53[ebp]
	mulss	xmm0, DWORD PTR __real@437f0000
	cvttss2si eax, xmm0
	mov	ecx, 1
	imul	edx, ecx, 3
	mov	ecx, DWORD PTR ?m_iNumVerts@@3HA
	mov	BYTE PTR ?m_colorarray@@3PAY03EA[edx+ecx*4], al

; 519  : 		m_vertexarray[m_iNumVerts] = verts[3];

	mov	eax, 12					; 0000000cH
	imul	ecx, eax, 3
	lea	edx, DWORD PTR _verts$[ebp+ecx]
	imul	eax, DWORD PTR ?m_iNumVerts@@3HA, 12
	add	eax, OFFSET ?m_vertexarray@@3PAVVector@@A
	mov	ecx, DWORD PTR [edx]
	mov	DWORD PTR [eax], ecx
	mov	ecx, DWORD PTR [edx+4]
	mov	DWORD PTR [eax+4], ecx
	mov	edx, DWORD PTR [edx+8]
	mov	DWORD PTR [eax+8], edx

; 520  : 		m_indexarray[m_iNumIndex++] = m_iNumVerts++;

	mov	eax, DWORD PTR ?m_iNumIndex@@3HA
	mov	cx, WORD PTR ?m_iNumVerts@@3HA
	mov	WORD PTR ?m_indexarray@@3PAGA[eax*2], cx
	mov	edx, DWORD PTR ?m_iNumIndex@@3HA
	add	edx, 1
	mov	DWORD PTR ?m_iNumIndex@@3HA, edx
	mov	eax, DWORD PTR ?m_iNumVerts@@3HA
	add	eax, 1
	mov	DWORD PTR ?m_iNumVerts@@3HA, eax

; 521  : 
; 522  : 		ParticleArray.MoveNext();

	mov	ecx, DWORD PTR _ParticleArray$[ebp]
	call	?MoveNext@?$MemBlock@VCQuakePart@@@@QAEXXZ ; MemBlock<CQuakePart>::MoveNext
$LN31@DrawPartic:
$LN38@DrawPartic:
$LN41@DrawPartic:
$skip_particle$119:

; 523  : 
; 524  : 	skip_particle:
; 525  : 		curParticle = ParticleArray.GetCurrent();

	mov	ecx, DWORD PTR _ParticleArray$[ebp]
	call	?GetCurrent@?$MemBlock@VCQuakePart@@@@QAEPAVCQuakePart@@XZ ; MemBlock<CQuakePart>::GetCurrent
	mov	DWORD PTR _curParticle$[ebp], eax

; 526  : 	}

	jmp	$LN118@DrawPartic
$LN3@DrawPartic:

; 527  : 
; 528  : 	GL_Blend( GL_TRUE );

	push	1
	call	?GL_Blend@@YAXH@Z			; GL_Blend
	add	esp, 4

; 529  : 
; 530  : 	//	if( FBitSet( curParticle->m_iFlags, FPART_ADDITIVE ) )
; 531  : 	//		pglBlendFunc( GL_SRC_ALPHA, GL_ONE );
; 532  : 	//	else
; 533  : 	pglBlendFunc( GL_SRC_ALPHA, GL_ONE_MINUS_SRC_ALPHA );

	push	771					; 00000303H
	push	770					; 00000302H
	call	DWORD PTR ?pglBlendFunc@@3P6GXII@ZA	; pglBlendFunc

; 534  : 
; 535  : 	pglTexEnvi( GL_TEXTURE_ENV, GL_TEXTURE_ENV_MODE, GL_MODULATE );

	push	8448					; 00002100H
	push	8704					; 00002200H
	push	8960					; 00002300H
	call	DWORD PTR ?pglTexEnvi@@3P6GXIIH@ZA	; pglTexEnvi

; 536  : 
; 537  : 	if( m_iNumVerts && m_iNumIndex )

	cmp	DWORD PTR ?m_iNumVerts@@3HA, 0
	je	$LN72@DrawPartic
	cmp	DWORD PTR ?m_iNumIndex@@3HA, 0
	je	SHORT $LN72@DrawPartic

; 538  : 	{
; 539  : 		// flush any remaining verts
; 540  : 		if( GL_Support( R_DRAW_RANGEELEMENTS_EXT ) )

	push	11					; 0000000bH
	call	?GL_Support@@YA_NH@Z			; GL_Support
	add	esp, 4
	movzx	eax, al
	test	eax, eax
	je	SHORT $LN73@DrawPartic

; 541  : 			pglDrawRangeElementsEXT( GL_QUADS, 0, m_iNumVerts, m_iNumIndex, GL_UNSIGNED_SHORT, m_indexarray );

	push	OFFSET ?m_indexarray@@3PAGA
	push	5123					; 00001403H
	mov	eax, DWORD PTR ?m_iNumIndex@@3HA
	push	eax
	mov	ecx, DWORD PTR ?m_iNumVerts@@3HA
	push	ecx
	push	0
	push	7
	call	DWORD PTR ?pglDrawRangeElementsEXT@@3P6GXIIIHIPBX@ZA ; pglDrawRangeElementsEXT

; 542  : 		else

	jmp	SHORT $LN74@DrawPartic
$LN73@DrawPartic:

; 543  : 			pglDrawElements( GL_QUADS, m_iNumIndex, GL_UNSIGNED_SHORT, m_indexarray );

	push	OFFSET ?m_indexarray@@3PAGA
	push	5123					; 00001403H
	mov	eax, DWORD PTR ?m_iNumIndex@@3HA
	push	eax
	push	7
	call	DWORD PTR ?pglDrawElements@@3P6GXIHIPBX@ZA ; pglDrawElements
$LN74@DrawPartic:

; 544  : 		r_stats.c_total_tris += (int)(m_iNumVerts * 0.5f);

	cvtsi2ss xmm0, DWORD PTR ?m_iNumVerts@@3HA
	mulss	xmm0, DWORD PTR __real@3f000000
	cvttss2si eax, xmm0
	add	eax, DWORD PTR ?r_stats@@3Uref_stats_t@@A+60
	mov	DWORD PTR ?r_stats@@3Uref_stats_t@@A+60, eax

; 545  : 		r_stats.num_flushes++;

	mov	eax, DWORD PTR ?r_stats@@3Uref_stats_t@@A+88
	add	eax, 1
	mov	DWORD PTR ?r_stats@@3Uref_stats_t@@A+88, eax
$LN72@DrawPartic:

; 546  : 	}
; 547  : 
; 548  : 	pglDisableClientState( GL_TEXTURE_COORD_ARRAY );

	push	32888					; 00008078H
	call	DWORD PTR ?pglDisableClientState@@3P6GXI@ZA ; pglDisableClientState

; 549  : 	pglDisableClientState( GL_VERTEX_ARRAY );

	push	32884					; 00008074H
	call	DWORD PTR ?pglDisableClientState@@3P6GXI@ZA ; pglDisableClientState

; 550  : 	pglDisableClientState( GL_COLOR_ARRAY );

	push	32886					; 00008076H
	call	DWORD PTR ?pglDisableClientState@@3P6GXI@ZA ; pglDisableClientState
$LN1@DrawPartic:

; 551  : 
; 552  : //	gEngfuncs.pTriAPI->CullFace( TRI_FRONT );
; 553  : }

	pop	edi
	pop	esi
	pop	ebx
	mov	ecx, DWORD PTR __$ArrayPad$[ebp]
	xor	ecx, ebp
	call	@__security_check_cookie@4
	mov	esp, ebp
	pop	ebp
	ret	4
?DrawParticles@CQuakePartSystem@@QAEXAAV?$MemBlock@VCQuakePart@@@@@Z ENDP ; CQuakePartSystem::DrawParticles
_TEXT	ENDS
; Function compile flags: /Odtp /ZI
; File d:\!diffusion 2020\source code 2022\client-server\client\render\r_quakeparticle.cpp
;	COMDAT ?CreateEffect@CQuakePartSystem@@QAEXHPBDABVVector@@1@Z
_TEXT	SEGMENT
tv153 = -284						; size = 4
tv95 = -284						; size = 4
tv152 = -280						; size = 4
tv94 = -280						; size = 4
tv457 = -276						; size = 4
tv437 = -276						; size = 4
tv549 = -272						; size = 4
tv541 = -272						; size = 4
tv533 = -272						; size = 4
tv523 = -272						; size = 4
tv515 = -272						; size = 4
tv507 = -272						; size = 4
tv498 = -272						; size = 4
tv489 = -272						; size = 4
tv480 = -272						; size = 4
tv452 = -272						; size = 4
tv432 = -272						; size = 4
_pframe$1 = -204					; size = 4
_frame$2 = -200						; size = 4
_i$3 = -196						; size = 4
_count$ = -192						; size = 4
_flags$ = -188						; size = 4
_src$ = -184						; size = 172
_m_hTexture$ = -12					; size = 4
_pInfo$ = -8						; size = 4
_this$ = -4						; size = 4
_EntIndex$ = 8						; size = 4
_name$ = 12						; size = 4
_origin$ = 16						; size = 4
_normal$ = 20						; size = 4
?CreateEffect@CQuakePartSystem@@QAEXHPBDABVVector@@1@Z PROC ; CQuakePartSystem::CreateEffect, COMDAT
; _this$ = ecx

; 1111 : {

	push	ebp
	mov	ebp, esp
	sub	esp, 284				; 0000011cH
	push	ebx
	push	esi
	push	edi
	mov	DWORD PTR _this$[ebp], ecx

; 1112 : 	if( !g_fRenderInitialized )

	cmp	DWORD PTR ?g_fRenderInitialized@@3HA, 0	; g_fRenderInitialized
	jne	SHORT $LN5@CreateEffe

; 1113 : 		return;

	jmp	$LN1@CreateEffe
$LN5@CreateEffe:

; 1114 : 
; 1115 : 	if( !name || !*name )

	cmp	DWORD PTR _name$[ebp], 0
	je	SHORT $LN7@CreateEffe
	mov	eax, DWORD PTR _name$[ebp]
	movsx	ecx, BYTE PTR [eax]
	test	ecx, ecx
	jne	SHORT $LN6@CreateEffe
$LN7@CreateEffe:

; 1116 : 		return;

	jmp	$LN1@CreateEffe
$LN6@CreateEffe:

; 1117 : 	
; 1118 : 	CQuakePartInfo *pInfo = FindPartInfo( name );

	mov	eax, DWORD PTR _name$[ebp]
	push	eax
	mov	ecx, DWORD PTR _this$[ebp]
	call	?FindPartInfo@CQuakePartSystem@@QAEPAVCQuakePartInfo@@PBD@Z ; CQuakePartSystem::FindPartInfo
	mov	DWORD PTR _pInfo$[ebp], eax

; 1119 : 	int m_hTexture = m_hDefaultParticle;

	mov	eax, DWORD PTR _this$[ebp]
	mov	ecx, DWORD PTR [eax+2911244]
	mov	DWORD PTR _m_hTexture$[ebp], ecx

; 1120 : 	CQuakePart src;

	lea	ecx, DWORD PTR _src$[ebp]
	call	??0CQuakePart@@QAE@XZ

; 1121 : 
; 1122 : 	if( !pInfo )

	cmp	DWORD PTR _pInfo$[ebp], 0
	jne	SHORT $LN8@CreateEffe

; 1123 : 	{
; 1124 : 		ConPrintf( "QuakeParticle: couldn't find effect '%s'\n", name );

	mov	eax, DWORD PTR _name$[ebp]
	push	eax
	push	OFFSET ??_C@_0CK@MMAOOEFB@QuakeParticle?3?5couldn?8t?5find?5eff@
	call	DWORD PTR ?gEngfuncs@@3Ucl_enginefuncs_s@@A+160
	add	esp, 8

; 1125 : 		return;

	jmp	$LN1@CreateEffe
$LN8@CreateEffe:

; 1126 : 	}
; 1127 : 	
; 1128 : 	// sparks
; 1129 : 	int flags = pInfo->flags;

	mov	eax, DWORD PTR _pInfo$[ebp]
	mov	ecx, DWORD PTR [eax+356]
	mov	DWORD PTR _flags$[ebp], ecx

; 1130 : 	
; 1131 : 	if( FBitSet( flags, FPART_NOTWATER ) && POINT_CONTENTS( (float *)&origin ) == CONTENTS_WATER )

	mov	eax, DWORD PTR _flags$[ebp]
	and	eax, 128				; 00000080H
	je	SHORT $LN9@CreateEffe
	push	0
	mov	eax, DWORD PTR _origin$[ebp]
	push	eax
	call	DWORD PTR ?gEngfuncs@@3Ucl_enginefuncs_s@@A+228
	add	esp, 8
	cmp	eax, -3					; fffffffdH
	jne	SHORT $LN9@CreateEffe

; 1132 : 		return;

	jmp	$LN1@CreateEffe
$LN9@CreateEffe:

; 1133 : 
; 1134 : 	int count = bound( 1, pInfo->count.Random(), 1024 ); // don't alloc too many particles

	mov	ecx, DWORD PTR _pInfo$[ebp]
	add	ecx, 340				; 00000154H
	call	?Random@RandomRange@@QAEMXZ		; RandomRange::Random
	fstp	DWORD PTR tv432[ebp]
	movss	xmm0, DWORD PTR tv432[ebp]
	comiss	xmm0, DWORD PTR __real@3f800000
	jb	SHORT $LN23@CreateEffe
	mov	ecx, DWORD PTR _pInfo$[ebp]
	add	ecx, 340				; 00000154H
	call	?Random@RandomRange@@QAEMXZ		; RandomRange::Random
	fstp	DWORD PTR tv437[ebp]
	movss	xmm0, DWORD PTR __real@44800000
	comiss	xmm0, DWORD PTR tv437[ebp]
	jbe	SHORT $LN21@CreateEffe
	mov	ecx, DWORD PTR _pInfo$[ebp]
	add	ecx, 340				; 00000154H
	call	?Random@RandomRange@@QAEMXZ		; RandomRange::Random
	fstp	DWORD PTR tv94[ebp]
	jmp	SHORT $LN22@CreateEffe
$LN21@CreateEffe:
	movss	xmm0, DWORD PTR __real@44800000
	movss	DWORD PTR tv94[ebp], xmm0
$LN22@CreateEffe:
	movss	xmm0, DWORD PTR tv94[ebp]
	movss	DWORD PTR tv95[ebp], xmm0
	jmp	SHORT $LN24@CreateEffe
$LN23@CreateEffe:
	movss	xmm0, DWORD PTR __real@3f800000
	movss	DWORD PTR tv95[ebp], xmm0
$LN24@CreateEffe:
	cvttss2si eax, DWORD PTR tv95[ebp]
	mov	DWORD PTR _count$[ebp], eax

; 1135 : 
; 1136 : 	for( int i = 0; i < count; i++ )

	mov	DWORD PTR _i$3[ebp], 0
	jmp	SHORT $LN4@CreateEffe
$LN2@CreateEffe:
	mov	eax, DWORD PTR _i$3[ebp]
	add	eax, 1
	mov	DWORD PTR _i$3[ebp], eax
$LN4@CreateEffe:
	mov	eax, DWORD PTR _i$3[ebp]
	cmp	eax, DWORD PTR _count$[ebp]
	jge	$LN3@CreateEffe

; 1137 : 	{
; 1138 : 		if( pInfo->m_pSprite )

	mov	eax, DWORD PTR _pInfo$[ebp]
	cmp	DWORD PTR [eax+32], 0
	je	$LN10@CreateEffe

; 1139 : 		{
; 1140 : 			int frame = bound( 0, pInfo->frame.Random(), pInfo->m_pSprite->numframes - 1 );

	mov	ecx, DWORD PTR _pInfo$[ebp]
	add	ecx, 328				; 00000148H
	call	?Random@RandomRange@@QAEMXZ		; RandomRange::Random
	fstp	DWORD PTR tv452[ebp]
	movss	xmm0, DWORD PTR tv452[ebp]
	comiss	xmm0, DWORD PTR __real@00000000
	jb	SHORT $LN27@CreateEffe
	mov	ecx, DWORD PTR _pInfo$[ebp]
	add	ecx, 328				; 00000148H
	call	?Random@RandomRange@@QAEMXZ		; RandomRange::Random
	fstp	DWORD PTR tv457[ebp]
	mov	eax, DWORD PTR _pInfo$[ebp]
	mov	ecx, DWORD PTR [eax+32]
	mov	edx, DWORD PTR [ecx+72]
	sub	edx, 1
	cvtsi2ss xmm0, edx
	comiss	xmm0, DWORD PTR tv457[ebp]
	jbe	SHORT $LN25@CreateEffe
	mov	ecx, DWORD PTR _pInfo$[ebp]
	add	ecx, 328				; 00000148H
	call	?Random@RandomRange@@QAEMXZ		; RandomRange::Random
	fstp	DWORD PTR tv152[ebp]
	jmp	SHORT $LN26@CreateEffe
$LN25@CreateEffe:
	mov	eax, DWORD PTR _pInfo$[ebp]
	mov	ecx, DWORD PTR [eax+32]
	mov	edx, DWORD PTR [ecx+72]
	sub	edx, 1
	cvtsi2ss xmm0, edx
	movss	DWORD PTR tv152[ebp], xmm0
$LN26@CreateEffe:
	movss	xmm0, DWORD PTR tv152[ebp]
	movss	DWORD PTR tv153[ebp], xmm0
	jmp	SHORT $LN28@CreateEffe
$LN27@CreateEffe:
	xorps	xmm0, xmm0
	movss	DWORD PTR tv153[ebp], xmm0
$LN28@CreateEffe:
	cvttss2si eax, DWORD PTR tv153[ebp]
	mov	DWORD PTR _frame$2[ebp], eax

; 1141 : 			mspriteframe_t *pframe = R_GetSpriteFrame( pInfo->m_pSprite, frame );

	mov	eax, DWORD PTR _frame$2[ebp]
	push	eax
	mov	ecx, DWORD PTR _pInfo$[ebp]
	mov	edx, DWORD PTR [ecx+32]
	push	edx
	call	?R_GetSpriteFrame@@YAPAUmspriteframe_s@@PBUmodel_s@@H@Z ; R_GetSpriteFrame
	add	esp, 8
	mov	DWORD PTR _pframe$1[ebp], eax

; 1142 : 			if( pframe ) m_hTexture = pframe->gl_texturenum;

	cmp	DWORD PTR _pframe$1[ebp], 0
	je	SHORT $LN12@CreateEffe
	mov	eax, DWORD PTR _pframe$1[ebp]
	mov	ecx, DWORD PTR [eax+24]
	mov	DWORD PTR _m_hTexture$[ebp], ecx
$LN12@CreateEffe:

; 1143 : 		}
; 1144 : 		else

	jmp	SHORT $LN11@CreateEffe
$LN10@CreateEffe:

; 1145 : 			m_hTexture = pInfo->m_hTexture;

	mov	eax, DWORD PTR _pInfo$[ebp]
	mov	ecx, DWORD PTR [eax+36]
	mov	DWORD PTR _m_hTexture$[ebp], ecx
$LN11@CreateEffe:

; 1146 : 
; 1147 : 		if( pInfo->normal == NORMAL_OFFSET || pInfo->normal == NORMAL_OFS_DIR )

	mov	eax, DWORD PTR _pInfo$[ebp]
	cmp	DWORD PTR [eax+352], 1
	je	SHORT $LN15@CreateEffe
	mov	eax, DWORD PTR _pInfo$[ebp]
	cmp	DWORD PTR [eax+352], 3
	jne	$LN13@CreateEffe
$LN15@CreateEffe:

; 1148 : 		{
; 1149 : 			src.m_vecOrigin.x = origin.x + pInfo->offset[0].Random() * normal.x;

	mov	eax, 12					; 0000000cH
	imul	ecx, eax, 0
	mov	edx, DWORD PTR _pInfo$[ebp]
	lea	ecx, DWORD PTR [edx+ecx+40]
	call	?Random@RandomRange@@QAEMXZ		; RandomRange::Random
	fstp	DWORD PTR tv480[ebp]
	movss	xmm0, DWORD PTR tv480[ebp]
	mov	eax, DWORD PTR _normal$[ebp]
	mulss	xmm0, DWORD PTR [eax]
	mov	ecx, DWORD PTR _origin$[ebp]
	addss	xmm0, DWORD PTR [ecx]
	movss	DWORD PTR _src$[ebp], xmm0

; 1150 : 			src.m_vecOrigin.y = origin.y + pInfo->offset[1].Random() * normal.y;

	mov	eax, 12					; 0000000cH
	shl	eax, 0
	mov	ecx, DWORD PTR _pInfo$[ebp]
	lea	ecx, DWORD PTR [ecx+eax+40]
	call	?Random@RandomRange@@QAEMXZ		; RandomRange::Random
	fstp	DWORD PTR tv489[ebp]
	movss	xmm0, DWORD PTR tv489[ebp]
	mov	edx, DWORD PTR _normal$[ebp]
	mulss	xmm0, DWORD PTR [edx+4]
	mov	eax, DWORD PTR _origin$[ebp]
	addss	xmm0, DWORD PTR [eax+4]
	movss	DWORD PTR _src$[ebp+4], xmm0

; 1151 : 			src.m_vecOrigin.z = origin.z + pInfo->offset[2].Random() * normal.z;

	mov	eax, 12					; 0000000cH
	shl	eax, 1
	mov	ecx, DWORD PTR _pInfo$[ebp]
	lea	ecx, DWORD PTR [ecx+eax+40]
	call	?Random@RandomRange@@QAEMXZ		; RandomRange::Random
	fstp	DWORD PTR tv498[ebp]
	movss	xmm0, DWORD PTR tv498[ebp]
	mov	edx, DWORD PTR _normal$[ebp]
	mulss	xmm0, DWORD PTR [edx+8]
	mov	eax, DWORD PTR _origin$[ebp]
	addss	xmm0, DWORD PTR [eax+8]
	movss	DWORD PTR _src$[ebp+8], xmm0

; 1152 : 		}
; 1153 : 		else

	jmp	$LN14@CreateEffe
$LN13@CreateEffe:

; 1154 : 		{
; 1155 : 			src.m_vecOrigin.x = origin.x + pInfo->offset[0].Random();

	mov	eax, 12					; 0000000cH
	imul	ecx, eax, 0
	mov	edx, DWORD PTR _pInfo$[ebp]
	lea	ecx, DWORD PTR [edx+ecx+40]
	call	?Random@RandomRange@@QAEMXZ		; RandomRange::Random
	fstp	DWORD PTR tv507[ebp]
	mov	eax, DWORD PTR _origin$[ebp]
	movss	xmm0, DWORD PTR tv507[ebp]
	addss	xmm0, DWORD PTR [eax]
	movss	DWORD PTR _src$[ebp], xmm0

; 1156 : 			src.m_vecOrigin.y = origin.y + pInfo->offset[1].Random();

	mov	eax, 12					; 0000000cH
	shl	eax, 0
	mov	ecx, DWORD PTR _pInfo$[ebp]
	lea	ecx, DWORD PTR [ecx+eax+40]
	call	?Random@RandomRange@@QAEMXZ		; RandomRange::Random
	fstp	DWORD PTR tv515[ebp]
	mov	edx, DWORD PTR _origin$[ebp]
	movss	xmm0, DWORD PTR tv515[ebp]
	addss	xmm0, DWORD PTR [edx+4]
	movss	DWORD PTR _src$[ebp+4], xmm0

; 1157 : 			src.m_vecOrigin.z = origin.z + pInfo->offset[2].Random();

	mov	eax, 12					; 0000000cH
	shl	eax, 1
	mov	ecx, DWORD PTR _pInfo$[ebp]
	lea	ecx, DWORD PTR [ecx+eax+40]
	call	?Random@RandomRange@@QAEMXZ		; RandomRange::Random
	fstp	DWORD PTR tv523[ebp]
	mov	edx, DWORD PTR _origin$[ebp]
	movss	xmm0, DWORD PTR tv523[ebp]
	addss	xmm0, DWORD PTR [edx+8]
	movss	DWORD PTR _src$[ebp+8], xmm0
$LN14@CreateEffe:

; 1158 : 		}
; 1159 : 
; 1160 : 		if( pInfo->normal == NORMAL_DIRECTION || pInfo->normal == NORMAL_OFS_DIR )

	mov	eax, DWORD PTR _pInfo$[ebp]
	cmp	DWORD PTR [eax+352], 2
	je	SHORT $LN18@CreateEffe
	mov	eax, DWORD PTR _pInfo$[ebp]
	cmp	DWORD PTR [eax+352], 3
	jne	$LN16@CreateEffe
$LN18@CreateEffe:

; 1161 : 		{
; 1162 : 			src.m_vecVelocity.x = normal.x * pInfo->velocity[0].Random();

	mov	eax, 12					; 0000000cH
	imul	ecx, eax, 0
	mov	edx, DWORD PTR _pInfo$[ebp]
	lea	ecx, DWORD PTR [edx+ecx+76]
	call	?Random@RandomRange@@QAEMXZ		; RandomRange::Random
	fstp	DWORD PTR tv533[ebp]
	mov	eax, DWORD PTR _normal$[ebp]
	movss	xmm0, DWORD PTR tv533[ebp]
	mulss	xmm0, DWORD PTR [eax]
	movss	DWORD PTR _src$[ebp+24], xmm0

; 1163 : 			src.m_vecVelocity.y = normal.y * pInfo->velocity[1].Random();

	mov	eax, 12					; 0000000cH
	shl	eax, 0
	mov	ecx, DWORD PTR _pInfo$[ebp]
	lea	ecx, DWORD PTR [ecx+eax+76]
	call	?Random@RandomRange@@QAEMXZ		; RandomRange::Random
	fstp	DWORD PTR tv541[ebp]
	mov	edx, DWORD PTR _normal$[ebp]
	movss	xmm0, DWORD PTR tv541[ebp]
	mulss	xmm0, DWORD PTR [edx+4]
	movss	DWORD PTR _src$[ebp+28], xmm0

; 1164 : 			src.m_vecVelocity.z = normal.z * pInfo->velocity[2].Random();

	mov	eax, 12					; 0000000cH
	shl	eax, 1
	mov	ecx, DWORD PTR _pInfo$[ebp]
	lea	ecx, DWORD PTR [ecx+eax+76]
	call	?Random@RandomRange@@QAEMXZ		; RandomRange::Random
	fstp	DWORD PTR tv549[ebp]
	mov	edx, DWORD PTR _normal$[ebp]
	movss	xmm0, DWORD PTR tv549[ebp]
	mulss	xmm0, DWORD PTR [edx+8]
	movss	DWORD PTR _src$[ebp+32], xmm0

; 1165 : 		}
; 1166 : 		else

	jmp	SHORT $LN17@CreateEffe
$LN16@CreateEffe:

; 1167 : 		{
; 1168 : 			src.m_vecVelocity.x = pInfo->velocity[0].Random();

	mov	eax, 12					; 0000000cH
	imul	ecx, eax, 0
	mov	edx, DWORD PTR _pInfo$[ebp]
	lea	ecx, DWORD PTR [edx+ecx+76]
	call	?Random@RandomRange@@QAEMXZ		; RandomRange::Random
	fstp	DWORD PTR _src$[ebp+24]

; 1169 : 			src.m_vecVelocity.y = pInfo->velocity[1].Random();

	mov	eax, 12					; 0000000cH
	shl	eax, 0
	mov	ecx, DWORD PTR _pInfo$[ebp]
	lea	ecx, DWORD PTR [ecx+eax+76]
	call	?Random@RandomRange@@QAEMXZ		; RandomRange::Random
	fstp	DWORD PTR _src$[ebp+28]

; 1170 : 			src.m_vecVelocity.z = pInfo->velocity[2].Random();

	mov	eax, 12					; 0000000cH
	shl	eax, 1
	mov	ecx, DWORD PTR _pInfo$[ebp]
	lea	ecx, DWORD PTR [ecx+eax+76]
	call	?Random@RandomRange@@QAEMXZ		; RandomRange::Random
	fstp	DWORD PTR _src$[ebp+32]
$LN17@CreateEffe:

; 1171 : 		}
; 1172 : 
; 1173 : 		src.m_vecAccel.x = pInfo->accel[0].Random();

	mov	eax, 12					; 0000000cH
	imul	ecx, eax, 0
	mov	edx, DWORD PTR _pInfo$[ebp]
	lea	ecx, DWORD PTR [edx+ecx+112]
	call	?Random@RandomRange@@QAEMXZ		; RandomRange::Random
	fstp	DWORD PTR _src$[ebp+36]

; 1174 : 		src.m_vecAccel.y = pInfo->accel[1].Random();

	mov	eax, 12					; 0000000cH
	shl	eax, 0
	mov	ecx, DWORD PTR _pInfo$[ebp]
	lea	ecx, DWORD PTR [ecx+eax+112]
	call	?Random@RandomRange@@QAEMXZ		; RandomRange::Random
	fstp	DWORD PTR _src$[ebp+40]

; 1175 : 		src.m_vecAccel.z = pInfo->accel[2].Random();

	mov	eax, 12					; 0000000cH
	shl	eax, 1
	mov	ecx, DWORD PTR _pInfo$[ebp]
	lea	ecx, DWORD PTR [ecx+eax+112]
	call	?Random@RandomRange@@QAEMXZ		; RandomRange::Random
	fstp	DWORD PTR _src$[ebp+44]

; 1176 : 		src.m_vecColor.x = pInfo->color[0].Random();

	mov	eax, 12					; 0000000cH
	imul	ecx, eax, 0
	mov	edx, DWORD PTR _pInfo$[ebp]
	lea	ecx, DWORD PTR [edx+ecx+148]
	call	?Random@RandomRange@@QAEMXZ		; RandomRange::Random
	fstp	DWORD PTR _src$[ebp+48]

; 1177 : 		src.m_vecColor.y = pInfo->color[1].Random();

	mov	eax, 12					; 0000000cH
	shl	eax, 0
	mov	ecx, DWORD PTR _pInfo$[ebp]
	lea	ecx, DWORD PTR [ecx+eax+148]
	call	?Random@RandomRange@@QAEMXZ		; RandomRange::Random
	fstp	DWORD PTR _src$[ebp+52]

; 1178 : 		src.m_vecColor.z = pInfo->color[2].Random();

	mov	eax, 12					; 0000000cH
	shl	eax, 1
	mov	ecx, DWORD PTR _pInfo$[ebp]
	lea	ecx, DWORD PTR [ecx+eax+148]
	call	?Random@RandomRange@@QAEMXZ		; RandomRange::Random
	fstp	DWORD PTR _src$[ebp+56]

; 1179 : 		src.m_vecColorVelocity.x = pInfo->colorVel[0].Random();

	mov	eax, 12					; 0000000cH
	imul	ecx, eax, 0
	mov	edx, DWORD PTR _pInfo$[ebp]
	lea	ecx, DWORD PTR [edx+ecx+184]
	call	?Random@RandomRange@@QAEMXZ		; RandomRange::Random
	fstp	DWORD PTR _src$[ebp+60]

; 1180 : 		src.m_vecColorVelocity.y = pInfo->colorVel[1].Random();

	mov	eax, 12					; 0000000cH
	shl	eax, 0
	mov	ecx, DWORD PTR _pInfo$[ebp]
	lea	ecx, DWORD PTR [ecx+eax+184]
	call	?Random@RandomRange@@QAEMXZ		; RandomRange::Random
	fstp	DWORD PTR _src$[ebp+64]

; 1181 : 		src.m_vecColorVelocity.z = pInfo->colorVel[2].Random();

	mov	eax, 12					; 0000000cH
	shl	eax, 1
	mov	ecx, DWORD PTR _pInfo$[ebp]
	lea	ecx, DWORD PTR [ecx+eax+184]
	call	?Random@RandomRange@@QAEMXZ		; RandomRange::Random
	fstp	DWORD PTR _src$[ebp+68]

; 1182 : 		src.m_flAlpha = pInfo->alpha.Random();

	mov	ecx, DWORD PTR _pInfo$[ebp]
	add	ecx, 220				; 000000dcH
	call	?Random@RandomRange@@QAEMXZ		; RandomRange::Random
	fstp	DWORD PTR _src$[ebp+72]

; 1183 : 		src.m_flAlphaVelocity = pInfo->alphaVel.Random();

	mov	ecx, DWORD PTR _pInfo$[ebp]
	add	ecx, 232				; 000000e8H
	call	?Random@RandomRange@@QAEMXZ		; RandomRange::Random
	fstp	DWORD PTR _src$[ebp+76]

; 1184 : 		src.m_flRadius = pInfo->radius.Random();

	mov	ecx, DWORD PTR _pInfo$[ebp]
	add	ecx, 244				; 000000f4H
	call	?Random@RandomRange@@QAEMXZ		; RandomRange::Random
	fstp	DWORD PTR _src$[ebp+80]

; 1185 : 		src.m_flRadiusVelocity = pInfo->radiusVel.Random();

	mov	ecx, DWORD PTR _pInfo$[ebp]
	add	ecx, 256				; 00000100H
	call	?Random@RandomRange@@QAEMXZ		; RandomRange::Random
	fstp	DWORD PTR _src$[ebp+84]

; 1186 : 		src.m_flLength = pInfo->length.Random();

	mov	ecx, DWORD PTR _pInfo$[ebp]
	add	ecx, 268				; 0000010cH
	call	?Random@RandomRange@@QAEMXZ		; RandomRange::Random
	fstp	DWORD PTR _src$[ebp+88]

; 1187 : 		src.m_flLengthVelocity = pInfo->lengthVel.Random();

	mov	ecx, DWORD PTR _pInfo$[ebp]
	add	ecx, 280				; 00000118H
	call	?Random@RandomRange@@QAEMXZ		; RandomRange::Random
	fstp	DWORD PTR _src$[ebp+92]

; 1188 : 		src.m_flRotation = pInfo->rotation.Random();

	mov	ecx, DWORD PTR _pInfo$[ebp]
	add	ecx, 292				; 00000124H
	call	?Random@RandomRange@@QAEMXZ		; RandomRange::Random
	fstp	DWORD PTR _src$[ebp+96]

; 1189 : 		src.m_flRotationVelocity = pInfo->rotationVel.Random();

	mov	ecx, DWORD PTR _pInfo$[ebp]
	add	ecx, 304				; 00000130H
	call	?Random@RandomRange@@QAEMXZ		; RandomRange::Random
	fstp	DWORD PTR _src$[ebp+100]

; 1190 : 		src.m_flBounceFactor = pInfo->bounce.Random();

	mov	ecx, DWORD PTR _pInfo$[ebp]
	add	ecx, 316				; 0000013cH
	call	?Random@RandomRange@@QAEMXZ		; RandomRange::Random
	fstp	DWORD PTR _src$[ebp+104]

; 1191 : 		src.m_flDistance = 0; // UNDONE

	xorps	xmm0, xmm0
	movss	DWORD PTR _src$[ebp+108], xmm0

; 1192 : 		src.m_flStartAlpha = 0;

	xorps	xmm0, xmm0
	movss	DWORD PTR _src$[ebp+112], xmm0

; 1193 : 		src.ParticleType = TYPE_CUSTOM;

	mov	DWORD PTR _src$[ebp+144], 10		; 0000000aH

; 1194 : 		src.EntIndex = EntIndex;

	mov	eax, DWORD PTR _EntIndex$[ebp]
	mov	DWORD PTR _src$[ebp+168], eax

; 1195 : 		
; 1196 : 		if( !AddParticle( &src, m_hTexture, flags ))

	mov	eax, DWORD PTR _flags$[ebp]
	push	eax
	mov	ecx, DWORD PTR _m_hTexture$[ebp]
	push	ecx
	lea	edx, DWORD PTR _src$[ebp]
	push	edx
	mov	ecx, DWORD PTR _this$[ebp]
	call	?AddParticle@CQuakePartSystem@@QAE_NPAVCQuakePart@@HH@Z ; CQuakePartSystem::AddParticle
	movzx	eax, al
	test	eax, eax
	jne	SHORT $LN19@CreateEffe

; 1197 : 			break; // out of particles?

	jmp	SHORT $LN3@CreateEffe
$LN19@CreateEffe:

; 1198 : 	}

	jmp	$LN2@CreateEffe
$LN3@CreateEffe:
$LN1@CreateEffe:

; 1199 : }

	pop	edi
	pop	esi
	pop	ebx
	mov	esp, ebp
	pop	ebp
	ret	16					; 00000010H
?CreateEffect@CQuakePartSystem@@QAEXHPBDABVVector@@1@Z ENDP ; CQuakePartSystem::CreateEffect
_TEXT	ENDS
; Function compile flags: /Odtp /ZI
; File d:\!diffusion 2020\source code 2022\client-server\client\render\r_quakeparticle.cpp
;	COMDAT ?FindPartInfo@CQuakePartSystem@@QAEPAVCQuakePartInfo@@PBD@Z
_TEXT	SEGMENT
_i$1 = -8						; size = 4
_this$ = -4						; size = 4
_name$ = 8						; size = 4
?FindPartInfo@CQuakePartSystem@@QAEPAVCQuakePartInfo@@PBD@Z PROC ; CQuakePartSystem::FindPartInfo, COMDAT
; _this$ = ecx

; 1096 : {

	push	ebp
	mov	ebp, esp
	sub	esp, 72					; 00000048H
	push	ebx
	push	esi
	push	edi
	mov	DWORD PTR _this$[ebp], ecx

; 1097 : 	for( int i = 0; i <	m_iNumPartInfo; i++ )

	mov	DWORD PTR _i$1[ebp], 0
	jmp	SHORT $LN4@FindPartIn
$LN2@FindPartIn:
	mov	eax, DWORD PTR _i$1[ebp]
	add	eax, 1
	mov	DWORD PTR _i$1[ebp], eax
$LN4@FindPartIn:
	mov	eax, DWORD PTR _this$[ebp]
	mov	ecx, DWORD PTR _i$1[ebp]
	cmp	ecx, DWORD PTR [eax+2911240]
	jge	SHORT $LN3@FindPartIn

; 1098 : 	{
; 1099 : 		if( !Q_stricmp( m_pPartInfo[i].m_szName, name ))

	push	99999					; 0001869fH
	mov	eax, DWORD PTR _name$[ebp]
	push	eax
	imul	ecx, DWORD PTR _i$1[ebp], 364
	mov	edx, DWORD PTR _this$[ebp]
	lea	eax, DWORD PTR [edx+ecx+2818056]
	push	eax
	call	?Q_strnicmp@@YAHPBD0H@Z			; Q_strnicmp
	add	esp, 12					; 0000000cH
	test	eax, eax
	jne	SHORT $LN5@FindPartIn

; 1100 : 			return &m_pPartInfo[i];

	imul	eax, DWORD PTR _i$1[ebp], 364
	mov	ecx, DWORD PTR _this$[ebp]
	lea	eax, DWORD PTR [ecx+eax+2818056]
	jmp	SHORT $LN1@FindPartIn
$LN5@FindPartIn:

; 1101 : 	}

	jmp	SHORT $LN2@FindPartIn
$LN3@FindPartIn:

; 1102 : 
; 1103 : 	return NULL;

	xor	eax, eax
$LN1@FindPartIn:

; 1104 : }

	pop	edi
	pop	esi
	pop	ebx
	mov	esp, ebp
	pop	ebp
	ret	4
?FindPartInfo@CQuakePartSystem@@QAEPAVCQuakePartInfo@@PBD@Z ENDP ; CQuakePartSystem::FindPartInfo
_TEXT	ENDS
; Function compile flags: /Odtp /ZI
; File d:\!diffusion 2020\source code 2022\client-server\client\render\r_quakeparticle.cpp
;	COMDAT ?ParseParticleFlags@CQuakePartSystem@@QAEHPAD@Z
_TEXT	SEGMENT
_iFlags$ = -268						; size = 4
_token$ = -264						; size = 256
_this$ = -8						; size = 4
__$ArrayPad$ = -4					; size = 4
_pfile$ = 8						; size = 4
?ParseParticleFlags@CQuakePartSystem@@QAEHPAD@Z PROC	; CQuakePartSystem::ParseParticleFlags, COMDAT
; _this$ = ecx

; 1216 : {

	push	ebp
	mov	ebp, esp
	sub	esp, 332				; 0000014cH
	mov	eax, DWORD PTR ___security_cookie
	xor	eax, ebp
	mov	DWORD PTR __$ArrayPad$[ebp], eax
	push	ebx
	push	esi
	push	edi
	mov	DWORD PTR _this$[ebp], ecx

; 1217 : 	char token[256];
; 1218 : 	int iFlags = 0;

	mov	DWORD PTR _iFlags$[ebp], 0

; 1219 : 
; 1220 : 	if( !pfile || !*pfile )

	cmp	DWORD PTR _pfile$[ebp], 0
	je	SHORT $LN5@ParseParti
	mov	eax, DWORD PTR _pfile$[ebp]
	movsx	ecx, BYTE PTR [eax]
	test	ecx, ecx
	jne	SHORT $LN2@ParseParti
$LN5@ParseParti:

; 1221 : 		return iFlags;

	mov	eax, DWORD PTR _iFlags$[ebp]
	jmp	$LN1@ParseParti
$LN2@ParseParti:

; 1222 : 
; 1223 : 	while( pfile != NULL )

	cmp	DWORD PTR _pfile$[ebp], 0
	je	$LN3@ParseParti

; 1224 : 	{
; 1225 : 		pfile = COM_ParseLine( pfile, token );

	push	0
	push	256					; 00000100H
	lea	eax, DWORD PTR _token$[ebp]
	push	eax
	mov	ecx, DWORD PTR _pfile$[ebp]
	push	ecx
	call	?COM_ParseFileExt@@YAPADPAD0J_N@Z	; COM_ParseFileExt
	add	esp, 16					; 00000010H
	mov	DWORD PTR _pfile$[ebp], eax

; 1226 : 
; 1227 : 		if( !Q_stricmp( token, "Bounce" )) 

	push	99999					; 0001869fH
	push	OFFSET ??_C@_06PAHFPMEK@Bounce?$AA@
	lea	eax, DWORD PTR _token$[ebp]
	push	eax
	call	?Q_strnicmp@@YAHPBD0H@Z			; Q_strnicmp
	add	esp, 12					; 0000000cH
	test	eax, eax
	jne	SHORT $LN6@ParseParti

; 1228 : 			iFlags |= FPART_BOUNCE;

	mov	eax, DWORD PTR _iFlags$[ebp]
	or	eax, 1
	mov	DWORD PTR _iFlags$[ebp], eax
	jmp	$LN7@ParseParti
$LN6@ParseParti:

; 1229 : 		else if( !Q_stricmp( token, "Friction" )) 

	push	99999					; 0001869fH
	push	OFFSET ??_C@_08DIMMEHEB@Friction?$AA@
	lea	eax, DWORD PTR _token$[ebp]
	push	eax
	call	?Q_strnicmp@@YAHPBD0H@Z			; Q_strnicmp
	add	esp, 12					; 0000000cH
	test	eax, eax
	jne	SHORT $LN8@ParseParti

; 1230 : 			iFlags |= FPART_FRICTION;

	mov	eax, DWORD PTR _iFlags$[ebp]
	or	eax, 2
	mov	DWORD PTR _iFlags$[ebp], eax
	jmp	$LN7@ParseParti
$LN8@ParseParti:

; 1231 : 		else if( !Q_stricmp( token, "Light" )) 

	push	99999					; 0001869fH
	push	OFFSET ??_C@_05JODGIKH@Light?$AA@
	lea	eax, DWORD PTR _token$[ebp]
	push	eax
	call	?Q_strnicmp@@YAHPBD0H@Z			; Q_strnicmp
	add	esp, 12					; 0000000cH
	test	eax, eax
	jne	SHORT $LN10@ParseParti

; 1232 : 			iFlags |= FPART_VERTEXLIGHT;

	mov	eax, DWORD PTR _iFlags$[ebp]
	or	eax, 4
	mov	DWORD PTR _iFlags$[ebp], eax
	jmp	$LN7@ParseParti
$LN10@ParseParti:

; 1233 : 		else if( !Q_stricmp( token, "Stretch" )) 

	push	99999					; 0001869fH
	push	OFFSET ??_C@_07ENIDNHGB@Stretch?$AA@
	lea	eax, DWORD PTR _token$[ebp]
	push	eax
	call	?Q_strnicmp@@YAHPBD0H@Z			; Q_strnicmp
	add	esp, 12					; 0000000cH
	test	eax, eax
	jne	SHORT $LN12@ParseParti

; 1234 : 			iFlags |= FPART_STRETCH;

	mov	eax, DWORD PTR _iFlags$[ebp]
	or	eax, 8
	mov	DWORD PTR _iFlags$[ebp], eax
	jmp	$LN7@ParseParti
$LN12@ParseParti:

; 1235 : 		else if( !Q_stricmp( token, "Underwater" )) 

	push	99999					; 0001869fH
	push	OFFSET ??_C@_0L@LFPBPCDD@Underwater?$AA@
	lea	eax, DWORD PTR _token$[ebp]
	push	eax
	call	?Q_strnicmp@@YAHPBD0H@Z			; Q_strnicmp
	add	esp, 12					; 0000000cH
	test	eax, eax
	jne	SHORT $LN14@ParseParti

; 1236 : 			iFlags |= FPART_UNDERWATER;

	mov	eax, DWORD PTR _iFlags$[ebp]
	or	eax, 16					; 00000010H
	mov	DWORD PTR _iFlags$[ebp], eax
	jmp	$LN7@ParseParti
$LN14@ParseParti:

; 1237 : 		else if( !Q_stricmp( token, "Instant" )) 

	push	99999					; 0001869fH
	push	OFFSET ??_C@_07HMOCDNDG@Instant?$AA@
	lea	eax, DWORD PTR _token$[ebp]
	push	eax
	call	?Q_strnicmp@@YAHPBD0H@Z			; Q_strnicmp
	add	esp, 12					; 0000000cH
	test	eax, eax
	jne	SHORT $LN16@ParseParti

; 1238 : 			iFlags |= FPART_INSTANT;

	mov	eax, DWORD PTR _iFlags$[ebp]
	or	eax, 32					; 00000020H
	mov	DWORD PTR _iFlags$[ebp], eax
	jmp	$LN7@ParseParti
$LN16@ParseParti:

; 1239 : 		else if( !Q_stricmp( token, "Additive" )) 

	push	99999					; 0001869fH
	push	OFFSET ??_C@_08NGDGBBLG@Additive?$AA@
	lea	eax, DWORD PTR _token$[ebp]
	push	eax
	call	?Q_strnicmp@@YAHPBD0H@Z			; Q_strnicmp
	add	esp, 12					; 0000000cH
	test	eax, eax
	jne	SHORT $LN18@ParseParti

; 1240 : 			iFlags |= FPART_ADDITIVE;

	mov	eax, DWORD PTR _iFlags$[ebp]
	or	eax, 64					; 00000040H
	mov	DWORD PTR _iFlags$[ebp], eax
	jmp	$LN7@ParseParti
$LN18@ParseParti:

; 1241 : 		else if( !Q_stricmp( token, "NotInWater" )) 

	push	99999					; 0001869fH
	push	OFFSET ??_C@_0L@HCCPBMGG@NotInWater?$AA@
	lea	eax, DWORD PTR _token$[ebp]
	push	eax
	call	?Q_strnicmp@@YAHPBD0H@Z			; Q_strnicmp
	add	esp, 12					; 0000000cH
	test	eax, eax
	jne	SHORT $LN20@ParseParti

; 1242 : 			iFlags |= FPART_NOTWATER;

	mov	eax, DWORD PTR _iFlags$[ebp]
	or	eax, 128				; 00000080H
	mov	DWORD PTR _iFlags$[ebp], eax
	jmp	$LN7@ParseParti
$LN20@ParseParti:

; 1243 : 		else if( !Q_stricmp( token, "FadeIn" ) )

	push	99999					; 0001869fH
	push	OFFSET ??_C@_06GCJPJKOH@FadeIn?$AA@
	lea	eax, DWORD PTR _token$[ebp]
	push	eax
	call	?Q_strnicmp@@YAHPBD0H@Z			; Q_strnicmp
	add	esp, 12					; 0000000cH
	test	eax, eax
	jne	SHORT $LN22@ParseParti

; 1244 : 			iFlags |= FPART_FADEIN;

	mov	eax, DWORD PTR _iFlags$[ebp]
	or	eax, 256				; 00000100H
	mov	DWORD PTR _iFlags$[ebp], eax
	jmp	$LN7@ParseParti
$LN22@ParseParti:

; 1245 : 		else if( !Q_stricmp( token, "Skybox" ) )

	push	99999					; 0001869fH
	push	OFFSET ??_C@_06NDBNOOOH@Skybox?$AA@
	lea	eax, DWORD PTR _token$[ebp]
	push	eax
	call	?Q_strnicmp@@YAHPBD0H@Z			; Q_strnicmp
	add	esp, 12					; 0000000cH
	test	eax, eax
	jne	SHORT $LN24@ParseParti

; 1246 : 			iFlags |= FPART_SKYBOX;

	mov	eax, DWORD PTR _iFlags$[ebp]
	or	eax, 1024				; 00000400H
	mov	DWORD PTR _iFlags$[ebp], eax
	jmp	$LN7@ParseParti
$LN24@ParseParti:

; 1247 : 		else if( !Q_stricmp( token, "Floating" ) )

	push	99999					; 0001869fH
	push	OFFSET ??_C@_08KPOFCBBH@Floating?$AA@
	lea	eax, DWORD PTR _token$[ebp]
	push	eax
	call	?Q_strnicmp@@YAHPBD0H@Z			; Q_strnicmp
	add	esp, 12					; 0000000cH
	test	eax, eax
	jne	SHORT $LN26@ParseParti

; 1248 : 			iFlags |= FPART_FLOATING;

	mov	eax, DWORD PTR _iFlags$[ebp]
	or	eax, 2048				; 00000800H
	mov	DWORD PTR _iFlags$[ebp], eax
	jmp	SHORT $LN7@ParseParti
$LN26@ParseParti:

; 1249 : 		else if( !Q_stricmp( token, "FloatingOriented" ) )

	push	99999					; 0001869fH
	push	OFFSET ??_C@_0BB@IPNBBMAH@FloatingOriented?$AA@
	lea	eax, DWORD PTR _token$[ebp]
	push	eax
	call	?Q_strnicmp@@YAHPBD0H@Z			; Q_strnicmp
	add	esp, 12					; 0000000cH
	test	eax, eax
	jne	SHORT $LN28@ParseParti

; 1250 : 			iFlags |= FPART_FLOATING_ORIENTED;

	mov	eax, DWORD PTR _iFlags$[ebp]
	or	eax, 4096				; 00001000H
	mov	DWORD PTR _iFlags$[ebp], eax
	jmp	SHORT $LN7@ParseParti
$LN28@ParseParti:

; 1251 : 		else if( pfile && token[0] != '|' )

	cmp	DWORD PTR _pfile$[ebp], 0
	je	SHORT $LN7@ParseParti
	mov	eax, 1
	imul	ecx, eax, 0
	movsx	edx, BYTE PTR _token$[ebp+ecx]
	cmp	edx, 124				; 0000007cH
	je	SHORT $LN7@ParseParti

; 1252 : 			ALERT( at_warning, "unknown value %s for 'flags'\n", token );

	lea	eax, DWORD PTR _token$[ebp]
	push	eax
	push	OFFSET ??_C@_0BO@EBKAFPMG@unknown?5value?5?$CFs?5for?5?8flags?8?6?$AA@
	push	3
	call	?ALERT@@YAXW4ALERT_TYPE@@PADZZ		; ALERT
	add	esp, 12					; 0000000cH
$LN7@ParseParti:

; 1253 : 	}

	jmp	$LN2@ParseParti
$LN3@ParseParti:

; 1254 : 
; 1255 : 	return iFlags;

	mov	eax, DWORD PTR _iFlags$[ebp]
$LN1@ParseParti:

; 1256 : }

	pop	edi
	pop	esi
	pop	ebx
	mov	ecx, DWORD PTR __$ArrayPad$[ebp]
	xor	ecx, ebp
	call	@__security_check_cookie@4
	mov	esp, ebp
	pop	ebp
	ret	4
?ParseParticleFlags@CQuakePartSystem@@QAEHPAD@Z ENDP	; CQuakePartSystem::ParseParticleFlags
_TEXT	ENDS
; Function compile flags: /Odtp /ZI
; File d:\!diffusion 2020\source code 2022\client-server\client\render\r_quakeparticle.cpp
;	COMDAT ?ParseRandomVector@CQuakePartSystem@@QAE_NAAPADQAVRandomRange@@@Z
_TEXT	SEGMENT
tv79 = -345						; size = 1
$T1 = -344						; size = 12
_i$ = -268						; size = 4
_token$ = -264						; size = 256
_this$ = -8						; size = 4
__$ArrayPad$ = -4					; size = 4
_pfile$ = 8						; size = 4
_out$ = 12						; size = 4
?ParseRandomVector@CQuakePartSystem@@QAE_NAAPADQAVRandomRange@@@Z PROC ; CQuakePartSystem::ParseRandomVector, COMDAT
; _this$ = ecx

; 1202 : {

	push	ebp
	mov	ebp, esp
	sub	esp, 348				; 0000015cH
	mov	eax, DWORD PTR ___security_cookie
	xor	eax, ebp
	mov	DWORD PTR __$ArrayPad$[ebp], eax
	push	ebx
	push	esi
	push	edi
	mov	DWORD PTR _this$[ebp], ecx

; 1203 : 	char token[256];
; 1204 : 	int i;
; 1205 : 
; 1206 : 	for( i = 0; i < 3 && pfile != NULL; i++ )

	mov	DWORD PTR _i$[ebp], 0
	jmp	SHORT $LN4@ParseRando
$LN2@ParseRando:
	mov	eax, DWORD PTR _i$[ebp]
	add	eax, 1
	mov	DWORD PTR _i$[ebp], eax
$LN4@ParseRando:
	cmp	DWORD PTR _i$[ebp], 3
	jge	SHORT $LN3@ParseRando
	mov	eax, DWORD PTR _pfile$[ebp]
	cmp	DWORD PTR [eax], 0
	je	SHORT $LN3@ParseRando

; 1207 : 	{
; 1208 : 		pfile = COM_ParseLine( pfile, token );

	push	0
	push	256					; 00000100H
	lea	eax, DWORD PTR _token$[ebp]
	push	eax
	mov	ecx, DWORD PTR _pfile$[ebp]
	mov	edx, DWORD PTR [ecx]
	push	edx
	call	?COM_ParseFileExt@@YAPADPAD0J_N@Z	; COM_ParseFileExt
	add	esp, 16					; 00000010H
	mov	ecx, DWORD PTR _pfile$[ebp]
	mov	DWORD PTR [ecx], eax

; 1209 : 		out[i] = RandomRange( token );

	lea	eax, DWORD PTR _token$[ebp]
	push	eax
	lea	ecx, DWORD PTR $T1[ebp]
	call	??0RandomRange@@QAE@PAD@Z		; RandomRange::RandomRange
	imul	ecx, DWORD PTR _i$[ebp], 12
	add	ecx, DWORD PTR _out$[ebp]
	mov	edx, DWORD PTR [eax]
	mov	DWORD PTR [ecx], edx
	mov	edx, DWORD PTR [eax+4]
	mov	DWORD PTR [ecx+4], edx
	mov	eax, DWORD PTR [eax+8]
	mov	DWORD PTR [ecx+8], eax

; 1210 : 	}

	jmp	SHORT $LN2@ParseRando
$LN3@ParseRando:

; 1211 : 
; 1212 : 	return (i == 3) ? true : false;

	cmp	DWORD PTR _i$[ebp], 3
	jne	SHORT $LN6@ParseRando
	mov	BYTE PTR tv79[ebp], 1
	jmp	SHORT $LN7@ParseRando
$LN6@ParseRando:
	mov	BYTE PTR tv79[ebp], 0
$LN7@ParseRando:
	mov	al, BYTE PTR tv79[ebp]

; 1213 : }

	pop	edi
	pop	esi
	pop	ebx
	mov	ecx, DWORD PTR __$ArrayPad$[ebp]
	xor	ecx, ebp
	call	@__security_check_cookie@4
	mov	esp, ebp
	pop	ebp
	ret	8
?ParseRandomVector@CQuakePartSystem@@QAE_NAAPADQAVRandomRange@@@Z ENDP ; CQuakePartSystem::ParseRandomVector
_TEXT	ENDS
; Function compile flags: /Odtp /ZI
; File d:\!diffusion 2020\source code 2022\client-server\client\render\r_quakeparticle.cpp
;	COMDAT ?ParsePartInfo@CQuakePartSystem@@QAE_NPAVCQuakePartInfo@@AAPAD@Z
_TEXT	SEGMENT
$T1 = -464						; size = 12
$T2 = -452						; size = 12
$T3 = -440						; size = 12
$T4 = -428						; size = 12
$T5 = -416						; size = 12
$T6 = -404						; size = 12
$T7 = -392						; size = 12
$T8 = -380						; size = 12
$T9 = -368						; size = 12
$T10 = -356						; size = 12
$T11 = -344						; size = 12
_ext$12 = -268						; size = 4
_token$ = -264						; size = 256
_this$ = -8						; size = 4
__$ArrayPad$ = -4					; size = 4
_info$ = 8						; size = 4
_pfile$ = 12						; size = 4
?ParsePartInfo@CQuakePartSystem@@QAE_NPAVCQuakePartInfo@@AAPAD@Z PROC ; CQuakePartSystem::ParsePartInfo, COMDAT
; _this$ = ecx

; 1259 : {

	push	ebp
	mov	ebp, esp
	sub	esp, 464				; 000001d0H
	mov	eax, DWORD PTR ___security_cookie
	xor	eax, ebp
	mov	DWORD PTR __$ArrayPad$[ebp], eax
	push	ebx
	push	esi
	push	edi
	mov	DWORD PTR _this$[ebp], ecx
$LN2@ParsePartI:

; 1260 : 	char token[256];
; 1261 : 
; 1262 : 	while( pfile != NULL )

	mov	eax, DWORD PTR _pfile$[ebp]
	cmp	DWORD PTR [eax], 0
	je	$LN3@ParsePartI

; 1263 : 	{
; 1264 : 		pfile = COM_ParseFile( pfile, token );

	push	1
	push	256					; 00000100H
	lea	eax, DWORD PTR _token$[ebp]
	push	eax
	mov	ecx, DWORD PTR _pfile$[ebp]
	mov	edx, DWORD PTR [ecx]
	push	edx
	call	?COM_ParseFileExt@@YAPADPAD0J_N@Z	; COM_ParseFileExt
	add	esp, 16					; 00000010H
	mov	ecx, DWORD PTR _pfile$[ebp]
	mov	DWORD PTR [ecx], eax

; 1265 : 		if( !pfile )

	mov	eax, DWORD PTR _pfile$[ebp]
	cmp	DWORD PTR [eax], 0
	jne	SHORT $LN4@ParsePartI

; 1266 : 		{
; 1267 : 			ALERT( at_error, "EOF without closing brace\n" );

	push	OFFSET ??_C@_0BL@PHECOMOB@EOF?5without?5closing?5brace?6?$AA@
	push	4
	call	?ALERT@@YAXW4ALERT_TYPE@@PADZZ		; ALERT
	add	esp, 8

; 1268 : 			return false;

	xor	al, al
	jmp	$LN1@ParsePartI
$LN4@ParsePartI:

; 1269 : 		}
; 1270 : 
; 1271 : 		// description end goto next material
; 1272 : 		if( token[0] == '}' )

	mov	eax, 1
	imul	ecx, eax, 0
	movsx	edx, BYTE PTR _token$[ebp+ecx]
	cmp	edx, 125				; 0000007dH
	jne	SHORT $LN5@ParsePartI

; 1273 : 		{
; 1274 : 			m_iNumPartInfo++;

	mov	eax, DWORD PTR _this$[ebp]
	mov	ecx, DWORD PTR [eax+2911240]
	add	ecx, 1
	mov	edx, DWORD PTR _this$[ebp]
	mov	DWORD PTR [edx+2911240], ecx

; 1275 : 			return true;

	mov	al, 1
	jmp	$LN1@ParsePartI
	jmp	$LN6@ParsePartI
$LN5@ParsePartI:

; 1276 : 		}
; 1277 : 		else if( !Q_stricmp( token, "texture" ))

	push	99999					; 0001869fH
	push	OFFSET ??_C@_07JDHEGGGP@texture?$AA@
	lea	eax, DWORD PTR _token$[ebp]
	push	eax
	call	?Q_strnicmp@@YAHPBD0H@Z			; Q_strnicmp
	add	esp, 12					; 0000000cH
	test	eax, eax
	jne	$LN7@ParsePartI

; 1278 : 		{
; 1279 : 			pfile = COM_ParseFile( pfile, token );

	push	1
	push	256					; 00000100H
	lea	eax, DWORD PTR _token$[ebp]
	push	eax
	mov	ecx, DWORD PTR _pfile$[ebp]
	mov	edx, DWORD PTR [ecx]
	push	edx
	call	?COM_ParseFileExt@@YAPADPAD0J_N@Z	; COM_ParseFileExt
	add	esp, 16					; 00000010H
	mov	ecx, DWORD PTR _pfile$[ebp]
	mov	DWORD PTR [ecx], eax

; 1280 : 			if( !pfile )

	mov	eax, DWORD PTR _pfile$[ebp]
	cmp	DWORD PTR [eax], 0
	jne	SHORT $LN9@ParsePartI

; 1281 : 			{
; 1282 : 				ALERT( at_error, "hit EOF while parsing 'texture'\n" );

	push	OFFSET ??_C@_0CB@MCPHFAIO@hit?5EOF?5while?5parsing?5?8texture?8?6@
	push	4
	call	?ALERT@@YAXW4ALERT_TYPE@@PADZZ		; ALERT
	add	esp, 8

; 1283 : 				break;

	jmp	$LN3@ParsePartI
$LN9@ParsePartI:

; 1284 : 			}
; 1285 : 
; 1286 : 			const char *ext = COM_FileExtension( token );

	lea	eax, DWORD PTR _token$[ebp]
	push	eax
	call	?COM_FileExtension@@YAPBDPBD@Z		; COM_FileExtension
	add	esp, 4
	mov	DWORD PTR _ext$12[ebp], eax

; 1287 : 
; 1288 : 			if( !Q_stricmp( ext, "tga" ) || !Q_stricmp( ext, "dds" ))

	push	99999					; 0001869fH
	push	OFFSET ??_C@_03LJIJAGL@tga?$AA@
	mov	eax, DWORD PTR _ext$12[ebp]
	push	eax
	call	?Q_strnicmp@@YAHPBD0H@Z			; Q_strnicmp
	add	esp, 12					; 0000000cH
	test	eax, eax
	je	SHORT $LN12@ParsePartI
	push	99999					; 0001869fH
	push	OFFSET ??_C@_03CBDDAJHO@dds?$AA@
	mov	eax, DWORD PTR _ext$12[ebp]
	push	eax
	call	?Q_strnicmp@@YAHPBD0H@Z			; Q_strnicmp
	add	esp, 12					; 0000000cH
	test	eax, eax
	jne	SHORT $LN10@ParsePartI
$LN12@ParsePartI:

; 1289 : 				info->m_hTexture = LOAD_TEXTURE( token, NULL, 0, TF_CLAMP );

	push	2048					; 00000800H
	push	0
	push	0
	lea	eax, DWORD PTR _token$[ebp]
	push	eax
	call	DWORD PTR ?gRenderfuncs@@3Urender_api_s@@A+60
	add	esp, 16					; 00000010H
	mov	ecx, DWORD PTR _info$[ebp]
	mov	DWORD PTR [ecx+36], eax
	jmp	SHORT $LN11@ParsePartI
$LN10@ParsePartI:

; 1290 : 			else if( !Q_stricmp( ext, "spr" ))

	push	99999					; 0001869fH
	push	OFFSET ??_C@_03OOMJFMLF@spr?$AA@
	mov	eax, DWORD PTR _ext$12[ebp]
	push	eax
	call	?Q_strnicmp@@YAHPBD0H@Z			; Q_strnicmp
	add	esp, 12					; 0000000cH
	test	eax, eax
	jne	SHORT $LN11@ParsePartI

; 1291 : 				info->m_pSprite = (model_t *)gEngfuncs.GetSpritePointer( SPR_Load( token ));

	lea	eax, DWORD PTR _token$[ebp]
	push	eax
	call	DWORD PTR ?gEngfuncs@@3Ucl_enginefuncs_s@@A
	add	esp, 4
	push	eax
	call	DWORD PTR ?gEngfuncs@@3Ucl_enginefuncs_s@@A+248
	add	esp, 4
	mov	ecx, DWORD PTR _info$[ebp]
	mov	DWORD PTR [ecx+32], eax
$LN11@ParsePartI:

; 1292 : 
; 1293 : 			if( !info->m_hTexture && !info->m_pSprite )

	mov	eax, DWORD PTR _info$[ebp]
	cmp	DWORD PTR [eax+36], 0
	jne	SHORT $LN14@ParsePartI
	mov	eax, DWORD PTR _info$[ebp]
	cmp	DWORD PTR [eax+32], 0
	jne	SHORT $LN14@ParsePartI

; 1294 : 			{
; 1295 : 				ALERT( at_error, "couldn't load texture for effect %s. using default particle\n", info->m_szName );

	mov	eax, DWORD PTR _info$[ebp]
	push	eax
	push	OFFSET ??_C@_0DN@KCDMFPOP@couldn?8t?5load?5texture?5for?5effect@
	push	4
	call	?ALERT@@YAXW4ALERT_TYPE@@PADZZ		; ALERT
	add	esp, 12					; 0000000cH

; 1296 : 				info->m_hTexture = m_hDefaultParticle;

	mov	eax, DWORD PTR _info$[ebp]
	mov	ecx, DWORD PTR _this$[ebp]
	mov	edx, DWORD PTR [ecx+2911244]
	mov	DWORD PTR [eax+36], edx
$LN14@ParsePartI:

; 1297 : 			}
; 1298 : 		}

	jmp	$LN6@ParsePartI
$LN7@ParsePartI:

; 1299 : 		else if( !Q_stricmp( token, "offset" ))

	push	99999					; 0001869fH
	push	OFFSET ??_C@_06KLHHMIGM@offset?$AA@
	lea	eax, DWORD PTR _token$[ebp]
	push	eax
	call	?Q_strnicmp@@YAHPBD0H@Z			; Q_strnicmp
	add	esp, 12					; 0000000cH
	test	eax, eax
	jne	SHORT $LN15@ParsePartI

; 1300 : 		{
; 1301 : 			if( !ParseRandomVector( pfile, info->offset ))

	mov	eax, DWORD PTR _info$[ebp]
	add	eax, 40					; 00000028H
	push	eax
	mov	ecx, DWORD PTR _pfile$[ebp]
	push	ecx
	mov	ecx, DWORD PTR _this$[ebp]
	call	?ParseRandomVector@CQuakePartSystem@@QAE_NAAPADQAVRandomRange@@@Z ; CQuakePartSystem::ParseRandomVector
	movzx	edx, al
	test	edx, edx
	jne	SHORT $LN17@ParsePartI

; 1302 : 			{
; 1303 : 				ALERT( at_error, "hit EOF while parsing 'offset'\n" );

	push	OFFSET ??_C@_0CA@FMDLAHNJ@hit?5EOF?5while?5parsing?5?8offset?8?6?$AA@
	push	4
	call	?ALERT@@YAXW4ALERT_TYPE@@PADZZ		; ALERT
	add	esp, 8

; 1304 : 				break;

	jmp	$LN3@ParsePartI
$LN17@ParsePartI:

; 1305 : 			}
; 1306 : 		}

	jmp	$LN6@ParsePartI
$LN15@ParsePartI:

; 1307 : 		else if( !Q_stricmp( token, "velocity" ))

	push	99999					; 0001869fH
	push	OFFSET ??_C@_08ICEJNDOI@velocity?$AA@
	lea	eax, DWORD PTR _token$[ebp]
	push	eax
	call	?Q_strnicmp@@YAHPBD0H@Z			; Q_strnicmp
	add	esp, 12					; 0000000cH
	test	eax, eax
	jne	SHORT $LN18@ParsePartI

; 1308 : 		{
; 1309 : 			if( !ParseRandomVector( pfile, info->velocity ))

	mov	eax, DWORD PTR _info$[ebp]
	add	eax, 76					; 0000004cH
	push	eax
	mov	ecx, DWORD PTR _pfile$[ebp]
	push	ecx
	mov	ecx, DWORD PTR _this$[ebp]
	call	?ParseRandomVector@CQuakePartSystem@@QAE_NAAPADQAVRandomRange@@@Z ; CQuakePartSystem::ParseRandomVector
	movzx	edx, al
	test	edx, edx
	jne	SHORT $LN20@ParsePartI

; 1310 : 			{
; 1311 : 				ALERT( at_error, "hit EOF while parsing 'velocity'\n" );

	push	OFFSET ??_C@_0CC@FDGEHOIA@hit?5EOF?5while?5parsing?5?8velocity?8@
	push	4
	call	?ALERT@@YAXW4ALERT_TYPE@@PADZZ		; ALERT
	add	esp, 8

; 1312 : 				break;

	jmp	$LN3@ParsePartI
$LN20@ParsePartI:

; 1313 : 			}
; 1314 : 		}

	jmp	$LN6@ParsePartI
$LN18@ParsePartI:

; 1315 : 		else if( !Q_stricmp( token, "accel" ))

	push	99999					; 0001869fH
	push	OFFSET ??_C@_05PNMAPKLD@accel?$AA@
	lea	eax, DWORD PTR _token$[ebp]
	push	eax
	call	?Q_strnicmp@@YAHPBD0H@Z			; Q_strnicmp
	add	esp, 12					; 0000000cH
	test	eax, eax
	jne	SHORT $LN21@ParsePartI

; 1316 : 		{
; 1317 : 			if( !ParseRandomVector( pfile, info->accel ))

	mov	eax, DWORD PTR _info$[ebp]
	add	eax, 112				; 00000070H
	push	eax
	mov	ecx, DWORD PTR _pfile$[ebp]
	push	ecx
	mov	ecx, DWORD PTR _this$[ebp]
	call	?ParseRandomVector@CQuakePartSystem@@QAE_NAAPADQAVRandomRange@@@Z ; CQuakePartSystem::ParseRandomVector
	movzx	edx, al
	test	edx, edx
	jne	SHORT $LN23@ParsePartI

; 1318 : 			{
; 1319 : 				ALERT( at_error, "hit EOF while parsing 'accel'\n" );

	push	OFFSET ??_C@_0BP@KDLPHPCN@hit?5EOF?5while?5parsing?5?8accel?8?6?$AA@
	push	4
	call	?ALERT@@YAXW4ALERT_TYPE@@PADZZ		; ALERT
	add	esp, 8

; 1320 : 				break;

	jmp	$LN3@ParsePartI
$LN23@ParsePartI:

; 1321 : 			}
; 1322 : 		}

	jmp	$LN6@ParsePartI
$LN21@ParsePartI:

; 1323 : 		else if( !Q_stricmp( token, "color" ))

	push	99999					; 0001869fH
	push	OFFSET ??_C@_05PEENBMOG@color?$AA@
	lea	eax, DWORD PTR _token$[ebp]
	push	eax
	call	?Q_strnicmp@@YAHPBD0H@Z			; Q_strnicmp
	add	esp, 12					; 0000000cH
	test	eax, eax
	jne	SHORT $LN24@ParsePartI

; 1324 : 		{
; 1325 : 			if( !ParseRandomVector( pfile, info->color ))

	mov	eax, DWORD PTR _info$[ebp]
	add	eax, 148				; 00000094H
	push	eax
	mov	ecx, DWORD PTR _pfile$[ebp]
	push	ecx
	mov	ecx, DWORD PTR _this$[ebp]
	call	?ParseRandomVector@CQuakePartSystem@@QAE_NAAPADQAVRandomRange@@@Z ; CQuakePartSystem::ParseRandomVector
	movzx	edx, al
	test	edx, edx
	jne	SHORT $LN26@ParsePartI

; 1326 : 			{
; 1327 : 				ALERT( at_error, "hit EOF while parsing 'color'\n" );

	push	OFFSET ??_C@_0BP@CNBKJIPM@hit?5EOF?5while?5parsing?5?8color?8?6?$AA@
	push	4
	call	?ALERT@@YAXW4ALERT_TYPE@@PADZZ		; ALERT
	add	esp, 8

; 1328 : 				break;

	jmp	$LN3@ParsePartI
$LN26@ParsePartI:

; 1329 : 			}
; 1330 : 		}

	jmp	$LN6@ParsePartI
$LN24@ParsePartI:

; 1331 : 		else if( !Q_stricmp( token, "colorVelocity" ))

	push	99999					; 0001869fH
	push	OFFSET ??_C@_0O@PCPNIPGJ@colorVelocity?$AA@
	lea	eax, DWORD PTR _token$[ebp]
	push	eax
	call	?Q_strnicmp@@YAHPBD0H@Z			; Q_strnicmp
	add	esp, 12					; 0000000cH
	test	eax, eax
	jne	SHORT $LN27@ParsePartI

; 1332 : 		{
; 1333 : 			if( !ParseRandomVector( pfile, info->colorVel ))

	mov	eax, DWORD PTR _info$[ebp]
	add	eax, 184				; 000000b8H
	push	eax
	mov	ecx, DWORD PTR _pfile$[ebp]
	push	ecx
	mov	ecx, DWORD PTR _this$[ebp]
	call	?ParseRandomVector@CQuakePartSystem@@QAE_NAAPADQAVRandomRange@@@Z ; CQuakePartSystem::ParseRandomVector
	movzx	edx, al
	test	edx, edx
	jne	SHORT $LN29@ParsePartI

; 1334 : 			{
; 1335 : 				ALERT( at_error, "hit EOF while parsing 'colorVelocity'\n" );

	push	OFFSET ??_C@_0CH@LAOPIGD@hit?5EOF?5while?5parsing?5?8colorVelo@
	push	4
	call	?ALERT@@YAXW4ALERT_TYPE@@PADZZ		; ALERT
	add	esp, 8

; 1336 : 				break;

	jmp	$LN3@ParsePartI
$LN29@ParsePartI:

; 1337 : 			}
; 1338 : 		}

	jmp	$LN6@ParsePartI
$LN27@ParsePartI:

; 1339 : 		else if( !Q_stricmp( token, "alpha" ))

	push	99999					; 0001869fH
	push	OFFSET ??_C@_05IAEKHIAN@alpha?$AA@
	lea	eax, DWORD PTR _token$[ebp]
	push	eax
	call	?Q_strnicmp@@YAHPBD0H@Z			; Q_strnicmp
	add	esp, 12					; 0000000cH
	test	eax, eax
	jne	SHORT $LN30@ParsePartI

; 1340 : 		{
; 1341 : 			pfile = COM_ParseFile( pfile, token );

	push	1
	push	256					; 00000100H
	lea	eax, DWORD PTR _token$[ebp]
	push	eax
	mov	ecx, DWORD PTR _pfile$[ebp]
	mov	edx, DWORD PTR [ecx]
	push	edx
	call	?COM_ParseFileExt@@YAPADPAD0J_N@Z	; COM_ParseFileExt
	add	esp, 16					; 00000010H
	mov	ecx, DWORD PTR _pfile$[ebp]
	mov	DWORD PTR [ecx], eax

; 1342 : 			if( !pfile )

	mov	eax, DWORD PTR _pfile$[ebp]
	cmp	DWORD PTR [eax], 0
	jne	SHORT $LN32@ParsePartI

; 1343 : 			{
; 1344 : 				ALERT( at_error, "hit EOF while parsing 'alpha'\n" );

	push	OFFSET ??_C@_0BP@NKEPGDJN@hit?5EOF?5while?5parsing?5?8alpha?8?6?$AA@
	push	4
	call	?ALERT@@YAXW4ALERT_TYPE@@PADZZ		; ALERT
	add	esp, 8

; 1345 : 				break;

	jmp	$LN3@ParsePartI
$LN32@ParsePartI:

; 1346 : 			}
; 1347 : 
; 1348 : 			info->alpha = RandomRange( token );

	lea	eax, DWORD PTR _token$[ebp]
	push	eax
	lea	ecx, DWORD PTR $T11[ebp]
	call	??0RandomRange@@QAE@PAD@Z		; RandomRange::RandomRange
	mov	ecx, DWORD PTR _info$[ebp]
	add	ecx, 220				; 000000dcH
	mov	edx, DWORD PTR [eax]
	mov	DWORD PTR [ecx], edx
	mov	edx, DWORD PTR [eax+4]
	mov	DWORD PTR [ecx+4], edx
	mov	eax, DWORD PTR [eax+8]
	mov	DWORD PTR [ecx+8], eax
	jmp	$LN6@ParsePartI
$LN30@ParsePartI:

; 1349 : 		}
; 1350 : 		else if( !Q_stricmp( token, "alphaVelocity" ))

	push	99999					; 0001869fH
	push	OFFSET ??_C@_0O@ECOJKIBP@alphaVelocity?$AA@
	lea	eax, DWORD PTR _token$[ebp]
	push	eax
	call	?Q_strnicmp@@YAHPBD0H@Z			; Q_strnicmp
	add	esp, 12					; 0000000cH
	test	eax, eax
	jne	SHORT $LN33@ParsePartI

; 1351 : 		{
; 1352 : 			pfile = COM_ParseFile( pfile, token );

	push	1
	push	256					; 00000100H
	lea	eax, DWORD PTR _token$[ebp]
	push	eax
	mov	ecx, DWORD PTR _pfile$[ebp]
	mov	edx, DWORD PTR [ecx]
	push	edx
	call	?COM_ParseFileExt@@YAPADPAD0J_N@Z	; COM_ParseFileExt
	add	esp, 16					; 00000010H
	mov	ecx, DWORD PTR _pfile$[ebp]
	mov	DWORD PTR [ecx], eax

; 1353 : 			if( !pfile )

	mov	eax, DWORD PTR _pfile$[ebp]
	cmp	DWORD PTR [eax], 0
	jne	SHORT $LN35@ParsePartI

; 1354 : 			{
; 1355 : 				ALERT( at_error, "hit EOF while parsing 'alphaVelocity'\n" );

	push	OFFSET ??_C@_0CH@NHGBCDGM@hit?5EOF?5while?5parsing?5?8alphaVelo@
	push	4
	call	?ALERT@@YAXW4ALERT_TYPE@@PADZZ		; ALERT
	add	esp, 8

; 1356 : 				break;

	jmp	$LN3@ParsePartI
$LN35@ParsePartI:

; 1357 : 			}
; 1358 : 
; 1359 : 			info->alphaVel = RandomRange( token );

	lea	eax, DWORD PTR _token$[ebp]
	push	eax
	lea	ecx, DWORD PTR $T10[ebp]
	call	??0RandomRange@@QAE@PAD@Z		; RandomRange::RandomRange
	mov	ecx, DWORD PTR _info$[ebp]
	add	ecx, 232				; 000000e8H
	mov	edx, DWORD PTR [eax]
	mov	DWORD PTR [ecx], edx
	mov	edx, DWORD PTR [eax+4]
	mov	DWORD PTR [ecx+4], edx
	mov	eax, DWORD PTR [eax+8]
	mov	DWORD PTR [ecx+8], eax
	jmp	$LN6@ParsePartI
$LN33@ParsePartI:

; 1360 : 		}
; 1361 : 		else if( !Q_stricmp( token, "radius" ))

	push	99999					; 0001869fH
	push	OFFSET ??_C@_06KGHINEPG@radius?$AA@
	lea	eax, DWORD PTR _token$[ebp]
	push	eax
	call	?Q_strnicmp@@YAHPBD0H@Z			; Q_strnicmp
	add	esp, 12					; 0000000cH
	test	eax, eax
	jne	SHORT $LN36@ParsePartI

; 1362 : 		{
; 1363 : 			pfile = COM_ParseFile( pfile, token );

	push	1
	push	256					; 00000100H
	lea	eax, DWORD PTR _token$[ebp]
	push	eax
	mov	ecx, DWORD PTR _pfile$[ebp]
	mov	edx, DWORD PTR [ecx]
	push	edx
	call	?COM_ParseFileExt@@YAPADPAD0J_N@Z	; COM_ParseFileExt
	add	esp, 16					; 00000010H
	mov	ecx, DWORD PTR _pfile$[ebp]
	mov	DWORD PTR [ecx], eax

; 1364 : 			if( !pfile )

	mov	eax, DWORD PTR _pfile$[ebp]
	cmp	DWORD PTR [eax], 0
	jne	SHORT $LN38@ParsePartI

; 1365 : 			{
; 1366 : 				ALERT( at_error, "hit EOF while parsing 'radius'\n" );

	push	OFFSET ??_C@_0CA@MDJEDEAJ@hit?5EOF?5while?5parsing?5?8radius?8?6?$AA@
	push	4
	call	?ALERT@@YAXW4ALERT_TYPE@@PADZZ		; ALERT
	add	esp, 8

; 1367 : 				break;

	jmp	$LN3@ParsePartI
$LN38@ParsePartI:

; 1368 : 			}
; 1369 : 
; 1370 : 			info->radius = RandomRange( token );

	lea	eax, DWORD PTR _token$[ebp]
	push	eax
	lea	ecx, DWORD PTR $T9[ebp]
	call	??0RandomRange@@QAE@PAD@Z		; RandomRange::RandomRange
	mov	ecx, DWORD PTR _info$[ebp]
	add	ecx, 244				; 000000f4H
	mov	edx, DWORD PTR [eax]
	mov	DWORD PTR [ecx], edx
	mov	edx, DWORD PTR [eax+4]
	mov	DWORD PTR [ecx+4], edx
	mov	eax, DWORD PTR [eax+8]
	mov	DWORD PTR [ecx+8], eax
	jmp	$LN6@ParsePartI
$LN36@ParsePartI:

; 1371 : 		}
; 1372 : 		else if( !Q_stricmp( token, "radiusVelocity" ))

	push	99999					; 0001869fH
	push	OFFSET ??_C@_0P@GHNAGFBL@radiusVelocity?$AA@
	lea	eax, DWORD PTR _token$[ebp]
	push	eax
	call	?Q_strnicmp@@YAHPBD0H@Z			; Q_strnicmp
	add	esp, 12					; 0000000cH
	test	eax, eax
	jne	SHORT $LN39@ParsePartI

; 1373 : 		{
; 1374 : 			pfile = COM_ParseFile( pfile, token );

	push	1
	push	256					; 00000100H
	lea	eax, DWORD PTR _token$[ebp]
	push	eax
	mov	ecx, DWORD PTR _pfile$[ebp]
	mov	edx, DWORD PTR [ecx]
	push	edx
	call	?COM_ParseFileExt@@YAPADPAD0J_N@Z	; COM_ParseFileExt
	add	esp, 16					; 00000010H
	mov	ecx, DWORD PTR _pfile$[ebp]
	mov	DWORD PTR [ecx], eax

; 1375 : 			if( !pfile )

	mov	eax, DWORD PTR _pfile$[ebp]
	cmp	DWORD PTR [eax], 0
	jne	SHORT $LN41@ParsePartI

; 1376 : 			{
; 1377 : 				ALERT( at_error, "hit EOF while parsing 'radiusVelocity'\n" );

	push	OFFSET ??_C@_0CI@IPNAFHEB@hit?5EOF?5while?5parsing?5?8radiusVel@
	push	4
	call	?ALERT@@YAXW4ALERT_TYPE@@PADZZ		; ALERT
	add	esp, 8

; 1378 : 				break;

	jmp	$LN3@ParsePartI
$LN41@ParsePartI:

; 1379 : 			}
; 1380 : 
; 1381 : 			info->radiusVel = RandomRange( token );

	lea	eax, DWORD PTR _token$[ebp]
	push	eax
	lea	ecx, DWORD PTR $T8[ebp]
	call	??0RandomRange@@QAE@PAD@Z		; RandomRange::RandomRange
	mov	ecx, DWORD PTR _info$[ebp]
	add	ecx, 256				; 00000100H
	mov	edx, DWORD PTR [eax]
	mov	DWORD PTR [ecx], edx
	mov	edx, DWORD PTR [eax+4]
	mov	DWORD PTR [ecx+4], edx
	mov	eax, DWORD PTR [eax+8]
	mov	DWORD PTR [ecx+8], eax
	jmp	$LN6@ParsePartI
$LN39@ParsePartI:

; 1382 : 		}
; 1383 : 		else if( !Q_stricmp( token, "length" ))

	push	99999					; 0001869fH
	push	OFFSET ??_C@_06IJDLPEM@length?$AA@
	lea	eax, DWORD PTR _token$[ebp]
	push	eax
	call	?Q_strnicmp@@YAHPBD0H@Z			; Q_strnicmp
	add	esp, 12					; 0000000cH
	test	eax, eax
	jne	SHORT $LN42@ParsePartI

; 1384 : 		{
; 1385 : 			pfile = COM_ParseFile( pfile, token );

	push	1
	push	256					; 00000100H
	lea	eax, DWORD PTR _token$[ebp]
	push	eax
	mov	ecx, DWORD PTR _pfile$[ebp]
	mov	edx, DWORD PTR [ecx]
	push	edx
	call	?COM_ParseFileExt@@YAPADPAD0J_N@Z	; COM_ParseFileExt
	add	esp, 16					; 00000010H
	mov	ecx, DWORD PTR _pfile$[ebp]
	mov	DWORD PTR [ecx], eax

; 1386 : 			if( !pfile )

	mov	eax, DWORD PTR _pfile$[ebp]
	cmp	DWORD PTR [eax], 0
	jne	SHORT $LN44@ParsePartI

; 1387 : 			{
; 1388 : 				ALERT( at_error, "hit EOF while parsing 'length'\n" );

	push	OFFSET ??_C@_0CA@HNOGEAA@hit?5EOF?5while?5parsing?5?8length?8?6?$AA@
	push	4
	call	?ALERT@@YAXW4ALERT_TYPE@@PADZZ		; ALERT
	add	esp, 8

; 1389 : 				break;

	jmp	$LN3@ParsePartI
$LN44@ParsePartI:

; 1390 : 			}
; 1391 : 
; 1392 : 			info->length = RandomRange( token );

	lea	eax, DWORD PTR _token$[ebp]
	push	eax
	lea	ecx, DWORD PTR $T7[ebp]
	call	??0RandomRange@@QAE@PAD@Z		; RandomRange::RandomRange
	mov	ecx, DWORD PTR _info$[ebp]
	add	ecx, 268				; 0000010cH
	mov	edx, DWORD PTR [eax]
	mov	DWORD PTR [ecx], edx
	mov	edx, DWORD PTR [eax+4]
	mov	DWORD PTR [ecx+4], edx
	mov	eax, DWORD PTR [eax+8]
	mov	DWORD PTR [ecx+8], eax
	jmp	$LN6@ParsePartI
$LN42@ParsePartI:

; 1393 : 		}
; 1394 : 		else if( !Q_stricmp( token, "lengthVelocity" ))

	push	99999					; 0001869fH
	push	OFFSET ??_C@_0P@BKMDHNNN@lengthVelocity?$AA@
	lea	eax, DWORD PTR _token$[ebp]
	push	eax
	call	?Q_strnicmp@@YAHPBD0H@Z			; Q_strnicmp
	add	esp, 12					; 0000000cH
	test	eax, eax
	jne	SHORT $LN45@ParsePartI

; 1395 : 		{
; 1396 : 			pfile = COM_ParseFile( pfile, token );

	push	1
	push	256					; 00000100H
	lea	eax, DWORD PTR _token$[ebp]
	push	eax
	mov	ecx, DWORD PTR _pfile$[ebp]
	mov	edx, DWORD PTR [ecx]
	push	edx
	call	?COM_ParseFileExt@@YAPADPAD0J_N@Z	; COM_ParseFileExt
	add	esp, 16					; 00000010H
	mov	ecx, DWORD PTR _pfile$[ebp]
	mov	DWORD PTR [ecx], eax

; 1397 : 			if( !pfile )

	mov	eax, DWORD PTR _pfile$[ebp]
	cmp	DWORD PTR [eax], 0
	jne	SHORT $LN47@ParsePartI

; 1398 : 			{
; 1399 : 				ALERT( at_error, "hit EOF while parsing 'lengthVelocity'\n" );

	push	OFFSET ??_C@_0CI@BBMMCMM@hit?5EOF?5while?5parsing?5?8lengthVel@
	push	4
	call	?ALERT@@YAXW4ALERT_TYPE@@PADZZ		; ALERT
	add	esp, 8

; 1400 : 				break;

	jmp	$LN3@ParsePartI
$LN47@ParsePartI:

; 1401 : 			}
; 1402 : 
; 1403 : 			info->lengthVel = RandomRange( token );

	lea	eax, DWORD PTR _token$[ebp]
	push	eax
	lea	ecx, DWORD PTR $T6[ebp]
	call	??0RandomRange@@QAE@PAD@Z		; RandomRange::RandomRange
	mov	ecx, DWORD PTR _info$[ebp]
	add	ecx, 280				; 00000118H
	mov	edx, DWORD PTR [eax]
	mov	DWORD PTR [ecx], edx
	mov	edx, DWORD PTR [eax+4]
	mov	DWORD PTR [ecx+4], edx
	mov	eax, DWORD PTR [eax+8]
	mov	DWORD PTR [ecx+8], eax
	jmp	$LN6@ParsePartI
$LN45@ParsePartI:

; 1404 : 		}
; 1405 : 		else if( !Q_stricmp( token, "rotation" ))

	push	99999					; 0001869fH
	push	OFFSET ??_C@_08OHGOKOGA@rotation?$AA@
	lea	eax, DWORD PTR _token$[ebp]
	push	eax
	call	?Q_strnicmp@@YAHPBD0H@Z			; Q_strnicmp
	add	esp, 12					; 0000000cH
	test	eax, eax
	jne	SHORT $LN48@ParsePartI

; 1406 : 		{
; 1407 : 			pfile = COM_ParseFile( pfile, token );

	push	1
	push	256					; 00000100H
	lea	eax, DWORD PTR _token$[ebp]
	push	eax
	mov	ecx, DWORD PTR _pfile$[ebp]
	mov	edx, DWORD PTR [ecx]
	push	edx
	call	?COM_ParseFileExt@@YAPADPAD0J_N@Z	; COM_ParseFileExt
	add	esp, 16					; 00000010H
	mov	ecx, DWORD PTR _pfile$[ebp]
	mov	DWORD PTR [ecx], eax

; 1408 : 			if( !pfile )

	mov	eax, DWORD PTR _pfile$[ebp]
	cmp	DWORD PTR [eax], 0
	jne	SHORT $LN50@ParsePartI

; 1409 : 			{
; 1410 : 				ALERT( at_error, "hit EOF while parsing 'rotation'\n" );

	push	OFFSET ??_C@_0CC@IOIKAEGF@hit?5EOF?5while?5parsing?5?8rotation?8@
	push	4
	call	?ALERT@@YAXW4ALERT_TYPE@@PADZZ		; ALERT
	add	esp, 8

; 1411 : 				break;

	jmp	$LN3@ParsePartI
$LN50@ParsePartI:

; 1412 : 			}
; 1413 : 
; 1414 : 			info->rotation = RandomRange( token );

	lea	eax, DWORD PTR _token$[ebp]
	push	eax
	lea	ecx, DWORD PTR $T5[ebp]
	call	??0RandomRange@@QAE@PAD@Z		; RandomRange::RandomRange
	mov	ecx, DWORD PTR _info$[ebp]
	add	ecx, 292				; 00000124H
	mov	edx, DWORD PTR [eax]
	mov	DWORD PTR [ecx], edx
	mov	edx, DWORD PTR [eax+4]
	mov	DWORD PTR [ecx+4], edx
	mov	eax, DWORD PTR [eax+8]
	mov	DWORD PTR [ecx+8], eax
	jmp	$LN6@ParsePartI
$LN48@ParsePartI:

; 1415 : 		}
; 1416 : 		else if( !Q_stricmp( token, "rotationVelocity" ) )

	push	99999					; 0001869fH
	push	OFFSET ??_C@_0BB@HGDLMHHH@rotationVelocity?$AA@
	lea	eax, DWORD PTR _token$[ebp]
	push	eax
	call	?Q_strnicmp@@YAHPBD0H@Z			; Q_strnicmp
	add	esp, 12					; 0000000cH
	test	eax, eax
	jne	SHORT $LN51@ParsePartI

; 1417 : 		{
; 1418 : 			pfile = COM_ParseFile( pfile, token );

	push	1
	push	256					; 00000100H
	lea	eax, DWORD PTR _token$[ebp]
	push	eax
	mov	ecx, DWORD PTR _pfile$[ebp]
	mov	edx, DWORD PTR [ecx]
	push	edx
	call	?COM_ParseFileExt@@YAPADPAD0J_N@Z	; COM_ParseFileExt
	add	esp, 16					; 00000010H
	mov	ecx, DWORD PTR _pfile$[ebp]
	mov	DWORD PTR [ecx], eax

; 1419 : 			if( !pfile )

	mov	eax, DWORD PTR _pfile$[ebp]
	cmp	DWORD PTR [eax], 0
	jne	SHORT $LN53@ParsePartI

; 1420 : 			{
; 1421 : 				ALERT( at_error, "hit EOF while parsing 'rotationVelocity'\n" );

	push	OFFSET ??_C@_0CK@DJEILIPE@hit?5EOF?5while?5parsing?5?8rotationV@
	push	4
	call	?ALERT@@YAXW4ALERT_TYPE@@PADZZ		; ALERT
	add	esp, 8

; 1422 : 				break;

	jmp	$LN3@ParsePartI
$LN53@ParsePartI:

; 1423 : 			}
; 1424 : 
; 1425 : 			info->rotationVel = RandomRange( token );

	lea	eax, DWORD PTR _token$[ebp]
	push	eax
	lea	ecx, DWORD PTR $T4[ebp]
	call	??0RandomRange@@QAE@PAD@Z		; RandomRange::RandomRange
	mov	ecx, DWORD PTR _info$[ebp]
	add	ecx, 304				; 00000130H
	mov	edx, DWORD PTR [eax]
	mov	DWORD PTR [ecx], edx
	mov	edx, DWORD PTR [eax+4]
	mov	DWORD PTR [ecx+4], edx
	mov	eax, DWORD PTR [eax+8]
	mov	DWORD PTR [ecx+8], eax
	jmp	$LN6@ParsePartI
$LN51@ParsePartI:

; 1426 : 		}
; 1427 : 		else if( !Q_stricmp( token, "bounceFactor" ))

	push	99999					; 0001869fH
	push	OFFSET ??_C@_0N@PJGCMNFO@bounceFactor?$AA@
	lea	eax, DWORD PTR _token$[ebp]
	push	eax
	call	?Q_strnicmp@@YAHPBD0H@Z			; Q_strnicmp
	add	esp, 12					; 0000000cH
	test	eax, eax
	jne	SHORT $LN54@ParsePartI

; 1428 : 		{
; 1429 : 			pfile = COM_ParseFile( pfile, token );

	push	1
	push	256					; 00000100H
	lea	eax, DWORD PTR _token$[ebp]
	push	eax
	mov	ecx, DWORD PTR _pfile$[ebp]
	mov	edx, DWORD PTR [ecx]
	push	edx
	call	?COM_ParseFileExt@@YAPADPAD0J_N@Z	; COM_ParseFileExt
	add	esp, 16					; 00000010H
	mov	ecx, DWORD PTR _pfile$[ebp]
	mov	DWORD PTR [ecx], eax

; 1430 : 			if( !pfile )

	mov	eax, DWORD PTR _pfile$[ebp]
	cmp	DWORD PTR [eax], 0
	jne	SHORT $LN56@ParsePartI

; 1431 : 			{
; 1432 : 				ALERT( at_error, "hit EOF while parsing 'bounceFactor'\n" );

	push	OFFSET ??_C@_0CG@NNKLLCJN@hit?5EOF?5while?5parsing?5?8bounceFac@
	push	4
	call	?ALERT@@YAXW4ALERT_TYPE@@PADZZ		; ALERT
	add	esp, 8

; 1433 : 				break;

	jmp	$LN3@ParsePartI
$LN56@ParsePartI:

; 1434 : 			}
; 1435 : 
; 1436 : 			info->bounce = RandomRange( token );

	lea	eax, DWORD PTR _token$[ebp]
	push	eax
	lea	ecx, DWORD PTR $T3[ebp]
	call	??0RandomRange@@QAE@PAD@Z		; RandomRange::RandomRange
	mov	ecx, DWORD PTR _info$[ebp]
	add	ecx, 316				; 0000013cH
	mov	edx, DWORD PTR [eax]
	mov	DWORD PTR [ecx], edx
	mov	edx, DWORD PTR [eax+4]
	mov	DWORD PTR [ecx+4], edx
	mov	eax, DWORD PTR [eax+8]
	mov	DWORD PTR [ecx+8], eax
	jmp	$LN6@ParsePartI
$LN54@ParsePartI:

; 1437 : 		}
; 1438 : 		else if( !Q_stricmp( token, "frame" ))

	push	99999					; 0001869fH
	push	OFFSET ??_C@_05MIJNFGED@frame?$AA@
	lea	eax, DWORD PTR _token$[ebp]
	push	eax
	call	?Q_strnicmp@@YAHPBD0H@Z			; Q_strnicmp
	add	esp, 12					; 0000000cH
	test	eax, eax
	jne	SHORT $LN57@ParsePartI

; 1439 : 		{
; 1440 : 			pfile = COM_ParseFile( pfile, token );

	push	1
	push	256					; 00000100H
	lea	eax, DWORD PTR _token$[ebp]
	push	eax
	mov	ecx, DWORD PTR _pfile$[ebp]
	mov	edx, DWORD PTR [ecx]
	push	edx
	call	?COM_ParseFileExt@@YAPADPAD0J_N@Z	; COM_ParseFileExt
	add	esp, 16					; 00000010H
	mov	ecx, DWORD PTR _pfile$[ebp]
	mov	DWORD PTR [ecx], eax

; 1441 : 			if( !pfile )

	mov	eax, DWORD PTR _pfile$[ebp]
	cmp	DWORD PTR [eax], 0
	jne	SHORT $LN59@ParsePartI

; 1442 : 			{
; 1443 : 				ALERT( at_error, "hit EOF while parsing 'frame'\n" );

	push	OFFSET ??_C@_0BP@GIGDEEAO@hit?5EOF?5while?5parsing?5?8frame?8?6?$AA@
	push	4
	call	?ALERT@@YAXW4ALERT_TYPE@@PADZZ		; ALERT
	add	esp, 8

; 1444 : 				break;

	jmp	$LN3@ParsePartI
$LN59@ParsePartI:

; 1445 : 			}
; 1446 : 
; 1447 : 			info->frame = RandomRange( token );

	lea	eax, DWORD PTR _token$[ebp]
	push	eax
	lea	ecx, DWORD PTR $T2[ebp]
	call	??0RandomRange@@QAE@PAD@Z		; RandomRange::RandomRange
	mov	ecx, DWORD PTR _info$[ebp]
	add	ecx, 328				; 00000148H
	mov	edx, DWORD PTR [eax]
	mov	DWORD PTR [ecx], edx
	mov	edx, DWORD PTR [eax+4]
	mov	DWORD PTR [ecx+4], edx
	mov	eax, DWORD PTR [eax+8]
	mov	DWORD PTR [ecx+8], eax
	jmp	$LN6@ParsePartI
$LN57@ParsePartI:

; 1448 : 		}
; 1449 : 		else if( !Q_stricmp( token, "count" ))

	push	99999					; 0001869fH
	push	OFFSET ??_C@_05IOMEMJEC@count?$AA@
	lea	eax, DWORD PTR _token$[ebp]
	push	eax
	call	?Q_strnicmp@@YAHPBD0H@Z			; Q_strnicmp
	add	esp, 12					; 0000000cH
	test	eax, eax
	jne	SHORT $LN60@ParsePartI

; 1450 : 		{
; 1451 : 			pfile = COM_ParseFile( pfile, token );

	push	1
	push	256					; 00000100H
	lea	eax, DWORD PTR _token$[ebp]
	push	eax
	mov	ecx, DWORD PTR _pfile$[ebp]
	mov	edx, DWORD PTR [ecx]
	push	edx
	call	?COM_ParseFileExt@@YAPADPAD0J_N@Z	; COM_ParseFileExt
	add	esp, 16					; 00000010H
	mov	ecx, DWORD PTR _pfile$[ebp]
	mov	DWORD PTR [ecx], eax

; 1452 : 			if( !pfile )

	mov	eax, DWORD PTR _pfile$[ebp]
	cmp	DWORD PTR [eax], 0
	jne	SHORT $LN62@ParsePartI

; 1453 : 			{
; 1454 : 				ALERT( at_error, "hit EOF while parsing 'count'\n" );

	push	OFFSET ??_C@_0BP@BBMILNMD@hit?5EOF?5while?5parsing?5?8count?8?6?$AA@
	push	4
	call	?ALERT@@YAXW4ALERT_TYPE@@PADZZ		; ALERT
	add	esp, 8

; 1455 : 				break;

	jmp	$LN3@ParsePartI
$LN62@ParsePartI:

; 1456 : 			}
; 1457 : 
; 1458 : 			info->count = RandomRange( token );

	lea	eax, DWORD PTR _token$[ebp]
	push	eax
	lea	ecx, DWORD PTR $T1[ebp]
	call	??0RandomRange@@QAE@PAD@Z		; RandomRange::RandomRange
	mov	ecx, DWORD PTR _info$[ebp]
	add	ecx, 340				; 00000154H
	mov	edx, DWORD PTR [eax]
	mov	DWORD PTR [ecx], edx
	mov	edx, DWORD PTR [eax+4]
	mov	DWORD PTR [ecx+4], edx
	mov	eax, DWORD PTR [eax+8]
	mov	DWORD PTR [ecx+8], eax
	jmp	$LN6@ParsePartI
$LN60@ParsePartI:

; 1459 : 		}
; 1460 : 		else if( !Q_stricmp( token, "flags" ))

	push	99999					; 0001869fH
	push	OFFSET ??_C@_05GECEPKB@flags?$AA@
	lea	eax, DWORD PTR _token$[ebp]
	push	eax
	call	?Q_strnicmp@@YAHPBD0H@Z			; Q_strnicmp
	add	esp, 12					; 0000000cH
	test	eax, eax
	jne	SHORT $LN63@ParsePartI

; 1461 : 		{
; 1462 : 			pfile = COM_ParseFile( pfile, token );

	push	1
	push	256					; 00000100H
	lea	eax, DWORD PTR _token$[ebp]
	push	eax
	mov	ecx, DWORD PTR _pfile$[ebp]
	mov	edx, DWORD PTR [ecx]
	push	edx
	call	?COM_ParseFileExt@@YAPADPAD0J_N@Z	; COM_ParseFileExt
	add	esp, 16					; 00000010H
	mov	ecx, DWORD PTR _pfile$[ebp]
	mov	DWORD PTR [ecx], eax

; 1463 : 			if( !pfile )

	mov	eax, DWORD PTR _pfile$[ebp]
	cmp	DWORD PTR [eax], 0
	jne	SHORT $LN65@ParsePartI

; 1464 : 			{
; 1465 : 				ALERT( at_error, "hit EOF while parsing 'flags'\n" );

	push	OFFSET ??_C@_0BP@GAEALDHP@hit?5EOF?5while?5parsing?5?8flags?8?6?$AA@
	push	4
	call	?ALERT@@YAXW4ALERT_TYPE@@PADZZ		; ALERT
	add	esp, 8

; 1466 : 				break;

	jmp	$LN3@ParsePartI
$LN65@ParsePartI:

; 1467 : 			}
; 1468 : 
; 1469 : 			info->flags = ParseParticleFlags( token );

	lea	eax, DWORD PTR _token$[ebp]
	push	eax
	mov	ecx, DWORD PTR _this$[ebp]
	call	?ParseParticleFlags@CQuakePartSystem@@QAEHPAD@Z ; CQuakePartSystem::ParseParticleFlags
	mov	ecx, DWORD PTR _info$[ebp]
	mov	DWORD PTR [ecx+356], eax
	jmp	$LN6@ParsePartI
$LN63@ParsePartI:

; 1470 : 		}
; 1471 : 		else if( !Q_stricmp( token, "useNormal" ))

	push	99999					; 0001869fH
	push	OFFSET ??_C@_09HKKFCCPM@useNormal?$AA@
	lea	eax, DWORD PTR _token$[ebp]
	push	eax
	call	?Q_strnicmp@@YAHPBD0H@Z			; Q_strnicmp
	add	esp, 12					; 0000000cH
	test	eax, eax
	jne	$LN66@ParsePartI

; 1472 : 		{
; 1473 : 			pfile = COM_ParseFile( pfile, token );

	push	1
	push	256					; 00000100H
	lea	eax, DWORD PTR _token$[ebp]
	push	eax
	mov	ecx, DWORD PTR _pfile$[ebp]
	mov	edx, DWORD PTR [ecx]
	push	edx
	call	?COM_ParseFileExt@@YAPADPAD0J_N@Z	; COM_ParseFileExt
	add	esp, 16					; 00000010H
	mov	ecx, DWORD PTR _pfile$[ebp]
	mov	DWORD PTR [ecx], eax

; 1474 : 			if( !pfile )

	mov	eax, DWORD PTR _pfile$[ebp]
	cmp	DWORD PTR [eax], 0
	jne	SHORT $LN68@ParsePartI

; 1475 : 			{
; 1476 : 				ALERT( at_error, "hit EOF while parsing 'useNormal'\n" );

	push	OFFSET ??_C@_0CD@HFPJDGGC@hit?5EOF?5while?5parsing?5?8useNormal@
	push	4
	call	?ALERT@@YAXW4ALERT_TYPE@@PADZZ		; ALERT
	add	esp, 8

; 1477 : 				break;

	jmp	$LN3@ParsePartI
$LN68@ParsePartI:

; 1478 : 			}
; 1479 : 
; 1480 : 			if( !Q_stricmp( token, "ignore" ))

	push	99999					; 0001869fH
	push	OFFSET ??_C@_06GDPEBLPA@ignore?$AA@
	lea	eax, DWORD PTR _token$[ebp]
	push	eax
	call	?Q_strnicmp@@YAHPBD0H@Z			; Q_strnicmp
	add	esp, 12					; 0000000cH
	test	eax, eax
	jne	SHORT $LN69@ParsePartI

; 1481 : 				info->normal = NORMAL_IGNORE;

	mov	eax, DWORD PTR _info$[ebp]
	mov	DWORD PTR [eax+352], 0
	jmp	$LN70@ParsePartI
$LN69@ParsePartI:

; 1482 : 			else if( !Q_stricmp( token, "ofs" ))

	push	99999					; 0001869fH
	push	OFFSET ??_C@_03PFLGFKBB@ofs?$AA@
	lea	eax, DWORD PTR _token$[ebp]
	push	eax
	call	?Q_strnicmp@@YAHPBD0H@Z			; Q_strnicmp
	add	esp, 12					; 0000000cH
	test	eax, eax
	jne	SHORT $LN71@ParsePartI

; 1483 : 				info->normal = NORMAL_OFFSET;

	mov	eax, DWORD PTR _info$[ebp]
	mov	DWORD PTR [eax+352], 1
	jmp	$LN70@ParsePartI
$LN71@ParsePartI:

; 1484 : 			else if( !Q_stricmp( token, "dir" ))

	push	99999					; 0001869fH
	push	OFFSET ??_C@_03DAPAKLGM@dir?$AA@
	lea	eax, DWORD PTR _token$[ebp]
	push	eax
	call	?Q_strnicmp@@YAHPBD0H@Z			; Q_strnicmp
	add	esp, 12					; 0000000cH
	test	eax, eax
	jne	SHORT $LN73@ParsePartI

; 1485 : 				info->normal = NORMAL_DIRECTION;

	mov	eax, DWORD PTR _info$[ebp]
	mov	DWORD PTR [eax+352], 2
	jmp	SHORT $LN70@ParsePartI
$LN73@ParsePartI:

; 1486 : 			else if( !Q_stricmp( token, "ofs+dir" ))

	push	99999					; 0001869fH
	push	OFFSET ??_C@_07KOJMABKL@ofs?$CLdir?$AA@
	lea	eax, DWORD PTR _token$[ebp]
	push	eax
	call	?Q_strnicmp@@YAHPBD0H@Z			; Q_strnicmp
	add	esp, 12					; 0000000cH
	test	eax, eax
	jne	SHORT $LN75@ParsePartI

; 1487 : 				info->normal = NORMAL_OFS_DIR;				

	mov	eax, DWORD PTR _info$[ebp]
	mov	DWORD PTR [eax+352], 3
	jmp	SHORT $LN70@ParsePartI
$LN75@ParsePartI:

; 1488 : 			else if( !Q_stricmp( token, "dir+ofs" ))

	push	99999					; 0001869fH
	push	OFFSET ??_C@_07LKEEPMM@dir?$CLofs?$AA@
	lea	eax, DWORD PTR _token$[ebp]
	push	eax
	call	?Q_strnicmp@@YAHPBD0H@Z			; Q_strnicmp
	add	esp, 12					; 0000000cH
	test	eax, eax
	jne	SHORT $LN77@ParsePartI

; 1489 : 				info->normal = NORMAL_OFS_DIR;

	mov	eax, DWORD PTR _info$[ebp]
	mov	DWORD PTR [eax+352], 3
	jmp	SHORT $LN70@ParsePartI
$LN77@ParsePartI:

; 1490 : 			else ALERT( at_warning, "Unknown 'useNormal' key '%s'\n", token );

	lea	eax, DWORD PTR _token$[ebp]
	push	eax
	push	OFFSET ??_C@_0BO@BOGDCKMH@Unknown?5?8useNormal?8?5key?5?8?$CFs?8?6?$AA@
	push	3
	call	?ALERT@@YAXW4ALERT_TYPE@@PADZZ		; ALERT
	add	esp, 12					; 0000000cH
$LN70@ParsePartI:
	jmp	SHORT $LN6@ParsePartI
$LN66@ParsePartI:

; 1491 : 		}
; 1492 : 		else ALERT( at_warning, "Unknown effects token %s\n", token );

	lea	eax, DWORD PTR _token$[ebp]
	push	eax
	push	OFFSET ??_C@_0BK@LLFBOIOB@Unknown?5effects?5token?5?$CFs?6?$AA@
	push	3
	call	?ALERT@@YAXW4ALERT_TYPE@@PADZZ		; ALERT
	add	esp, 12					; 0000000cH
$LN6@ParsePartI:

; 1493 : 	}

	jmp	$LN2@ParsePartI
$LN3@ParsePartI:

; 1494 : 
; 1495 : 	return true;

	mov	al, 1
$LN1@ParsePartI:

; 1496 : }

	pop	edi
	pop	esi
	pop	ebx
	mov	ecx, DWORD PTR __$ArrayPad$[ebp]
	xor	ecx, ebp
	call	@__security_check_cookie@4
	mov	esp, ebp
	pop	ebp
	ret	8
?ParsePartInfo@CQuakePartSystem@@QAE_NPAVCQuakePartInfo@@AAPAD@Z ENDP ; CQuakePartSystem::ParsePartInfo
_TEXT	ENDS
; Function compile flags: /Odtp /ZI
; File d:\!diffusion 2020\source code 2022\client-server\client\render\r_quakeparticle.cpp
;	COMDAT ?ParsePartInfos@CQuakePartSystem@@QAEXPBD@Z
_TEXT	SEGMENT
_pCur$1 = -276						; size = 4
_token$ = -272						; size = 256
_pfile$ = -16						; size = 4
_afile$ = -12						; size = 4
_this$ = -8						; size = 4
__$ArrayPad$ = -4					; size = 4
_filename$ = 8						; size = 4
?ParsePartInfos@CQuakePartSystem@@QAEXPBD@Z PROC	; CQuakePartSystem::ParsePartInfos, COMDAT
; _this$ = ecx

; 1041 : {

	push	ebp
	mov	ebp, esp
	sub	esp, 340				; 00000154H
	mov	eax, DWORD PTR ___security_cookie
	xor	eax, ebp
	mov	DWORD PTR __$ArrayPad$[ebp], eax
	push	ebx
	push	esi
	push	edi
	mov	DWORD PTR _this$[ebp], ecx

; 1042 : 	// we parse our effects each call of VidInit because we need to keep textures and sprites an actual
; 1043 : 
; 1044 : 	ConPrintf( "loading %s\n", filename );

	mov	eax, DWORD PTR _filename$[ebp]
	push	eax
	push	OFFSET ??_C@_0M@KOFNDIEA@loading?5?$CFs?6?$AA@
	call	DWORD PTR ?gEngfuncs@@3Ucl_enginefuncs_s@@A+160
	add	esp, 8

; 1045 : 
; 1046 : 	char *afile = (char *)gEngfuncs.COM_LoadFile( (char *)filename, 5, NULL );

	push	0
	push	5
	mov	eax, DWORD PTR _filename$[ebp]
	push	eax
	call	DWORD PTR ?gEngfuncs@@3Ucl_enginefuncs_s@@A+316
	add	esp, 12					; 0000000cH
	mov	DWORD PTR _afile$[ebp], eax

; 1047 : 
; 1048 : 	if( !afile )

	cmp	DWORD PTR _afile$[ebp], 0
	jne	SHORT $LN4@ParsePartI

; 1049 : 	{
; 1050 : 		ConPrintf( "Cannot open file %s\n", filename );

	mov	eax, DWORD PTR _filename$[ebp]
	push	eax
	push	OFFSET ??_C@_0BF@NPLBJKHF@Cannot?5open?5file?5?$CFs?6?$AA@
	call	DWORD PTR ?gEngfuncs@@3Ucl_enginefuncs_s@@A+160
	add	esp, 8

; 1051 : 		return;

	jmp	$LN1@ParsePartI
$LN4@ParsePartI:

; 1052 : 	}
; 1053 : 
; 1054 : 	char *pfile = afile;

	mov	eax, DWORD PTR _afile$[ebp]
	mov	DWORD PTR _pfile$[ebp], eax

; 1055 : 	char token[256];
; 1056 : 	m_iNumPartInfo = 0;

	mov	eax, DWORD PTR _this$[ebp]
	mov	DWORD PTR [eax+2911240], 0

; 1057 : 
; 1058 : 	memset( &m_pPartInfo, 0, sizeof( m_pPartInfo ));

	push	93184					; 00016c00H
	push	0
	mov	eax, DWORD PTR _this$[ebp]
	add	eax, 2818056				; 002b0008H
	push	eax
	call	_memset
	add	esp, 12					; 0000000cH
$LN2@ParsePartI:

; 1059 : 
; 1060 : 	while( pfile != NULL )

	cmp	DWORD PTR _pfile$[ebp], 0
	je	$LN3@ParsePartI

; 1061 : 	{
; 1062 : 		pfile = COM_ParseFile( pfile, token );

	push	1
	push	256					; 00000100H
	lea	eax, DWORD PTR _token$[ebp]
	push	eax
	mov	ecx, DWORD PTR _pfile$[ebp]
	push	ecx
	call	?COM_ParseFileExt@@YAPADPAD0J_N@Z	; COM_ParseFileExt
	add	esp, 16					; 00000010H
	mov	DWORD PTR _pfile$[ebp], eax

; 1063 : 		if( !pfile ) break;

	cmp	DWORD PTR _pfile$[ebp], 0
	jne	SHORT $LN5@ParsePartI
	jmp	$LN3@ParsePartI
$LN5@ParsePartI:

; 1064 : 
; 1065 : 		if( m_iNumPartInfo >= MAX_PARTINFOS )

	mov	eax, DWORD PTR _this$[ebp]
	cmp	DWORD PTR [eax+2911240], 256		; 00000100H
	jl	SHORT $LN6@ParsePartI

; 1066 : 		{
; 1067 : 			ConPrintf( "particle effects info limit exceeded %d > %d\n", m_iNumPartInfo, MAX_PARTINFOS );

	push	256					; 00000100H
	mov	eax, DWORD PTR _this$[ebp]
	mov	ecx, DWORD PTR [eax+2911240]
	push	ecx
	push	OFFSET ??_C@_0CO@GIHBEDNL@particle?5effects?5info?5limit?5exce@
	call	DWORD PTR ?gEngfuncs@@3Ucl_enginefuncs_s@@A+160
	add	esp, 12					; 0000000cH

; 1068 : 			break;

	jmp	$LN3@ParsePartI
$LN6@ParsePartI:

; 1069 : 		}
; 1070 : 
; 1071 : 		CQuakePartInfo *pCur = &m_pPartInfo[m_iNumPartInfo];

	mov	eax, DWORD PTR _this$[ebp]
	imul	ecx, DWORD PTR [eax+2911240], 364
	mov	edx, DWORD PTR _this$[ebp]
	lea	eax, DWORD PTR [edx+ecx+2818056]
	mov	DWORD PTR _pCur$1[ebp], eax

; 1072 : 
; 1073 : 		// read the effect name
; 1074 : 		Q_strncpy( pCur->m_szName, token, sizeof( pCur->m_szName ));

	push	32					; 00000020H
	lea	eax, DWORD PTR _token$[ebp]
	push	eax
	mov	ecx, DWORD PTR _pCur$1[ebp]
	push	ecx
	call	?Q_strncpy@@YAIPADPBDI@Z		; Q_strncpy
	add	esp, 12					; 0000000cH

; 1075 : 
; 1076 : 		// read opening brace
; 1077 : 		pfile = COM_ParseFile( pfile, token );

	push	1
	push	256					; 00000100H
	lea	eax, DWORD PTR _token$[ebp]
	push	eax
	mov	ecx, DWORD PTR _pfile$[ebp]
	push	ecx
	call	?COM_ParseFileExt@@YAPADPAD0J_N@Z	; COM_ParseFileExt
	add	esp, 16					; 00000010H
	mov	DWORD PTR _pfile$[ebp], eax

; 1078 : 		if( !pfile ) break;

	cmp	DWORD PTR _pfile$[ebp], 0
	jne	SHORT $LN7@ParsePartI
	jmp	SHORT $LN3@ParsePartI
$LN7@ParsePartI:

; 1079 : 
; 1080 : 		if( token[0] != '{' )

	mov	eax, 1
	imul	ecx, eax, 0
	movsx	edx, BYTE PTR _token$[ebp+ecx]
	cmp	edx, 123				; 0000007bH
	je	SHORT $LN8@ParsePartI

; 1081 : 		{
; 1082 : 			ConPrintf( "found %s when expecting {\n", token );

	lea	eax, DWORD PTR _token$[ebp]
	push	eax
	push	OFFSET ??_C@_0BL@MJDIPEOM@found?5?$CFs?5when?5expecting?5?$HL?6?$AA@
	call	DWORD PTR ?gEngfuncs@@3Ucl_enginefuncs_s@@A+160
	add	esp, 8

; 1083 : 			break;

	jmp	SHORT $LN3@ParsePartI
$LN8@ParsePartI:

; 1084 : 		}
; 1085 : 
; 1086 : 		if( !ParsePartInfo( pCur, pfile ))

	lea	eax, DWORD PTR _pfile$[ebp]
	push	eax
	mov	ecx, DWORD PTR _pCur$1[ebp]
	push	ecx
	mov	ecx, DWORD PTR _this$[ebp]
	call	?ParsePartInfo@CQuakePartSystem@@QAE_NPAVCQuakePartInfo@@AAPAD@Z ; CQuakePartSystem::ParsePartInfo
	movzx	edx, al
	test	edx, edx
	jne	SHORT $LN9@ParsePartI

; 1087 : 			break; // something bad happens

	jmp	SHORT $LN3@ParsePartI
$LN9@ParsePartI:

; 1088 : 
; 1089 : 	}

	jmp	$LN2@ParsePartI
$LN3@ParsePartI:

; 1090 : 
; 1091 : 	gEngfuncs.COM_FreeFile( afile );

	mov	eax, DWORD PTR _afile$[ebp]
	push	eax
	call	DWORD PTR ?gEngfuncs@@3Ucl_enginefuncs_s@@A+324
	add	esp, 4

; 1092 : 	ConPrintf( "%d effects parsed\n", m_iNumPartInfo );

	mov	eax, DWORD PTR _this$[ebp]
	mov	ecx, DWORD PTR [eax+2911240]
	push	ecx
	push	OFFSET ??_C@_0BD@PFFOMDCC@?$CFd?5effects?5parsed?6?$AA@
	call	DWORD PTR ?gEngfuncs@@3Ucl_enginefuncs_s@@A+160
	add	esp, 8
$LN1@ParsePartI:

; 1093 : }

	pop	edi
	pop	esi
	pop	ebx
	mov	ecx, DWORD PTR __$ArrayPad$[ebp]
	xor	ecx, ebp
	call	@__security_check_cookie@4
	mov	esp, ebp
	pop	ebp
	ret	4
?ParsePartInfos@CQuakePartSystem@@QAEXPBD@Z ENDP	; CQuakePartSystem::ParsePartInfos
_TEXT	ENDS
; Function compile flags: /Odtp /ZI
; File d:\!diffusion 2020\source code 2022\client-server\client\render\r_quakeparticle.cpp
;	COMDAT ?AddParticle@CQuakePartSystem@@QAE_NPAVCQuakePart@@HH@Z
_TEXT	SEGMENT
tv250 = -88						; size = 4
tv132 = -88						; size = 4
$T1 = -84						; size = 12
_dst$ = -8						; size = 4
_this$ = -4						; size = 4
_src$ = 8						; size = 4
_texture$ = 12						; size = 4
_flags$ = 16						; size = 4
?AddParticle@CQuakePartSystem@@QAE_NPAVCQuakePart@@HH@Z PROC ; CQuakePartSystem::AddParticle, COMDAT
; _this$ = ecx

; 1584 : {

	push	ebp
	mov	ebp, esp
	sub	esp, 88					; 00000058H
	push	ebx
	push	esi
	push	edi
	mov	DWORD PTR _this$[ebp], ecx

; 1585 : 	if( !src )

	cmp	DWORD PTR _src$[ebp], 0
	jne	SHORT $LN4@AddParticl

; 1586 : 		return false;

	xor	al, al
	jmp	$LN1@AddParticl
$LN4@AddParticl:

; 1587 : 
; 1588 : 	// diffusion - particle is too far, don't allow it
; 1589 : 	if( src->m_flDistance > 0 )

	mov	eax, DWORD PTR _src$[ebp]
	movss	xmm0, DWORD PTR [eax+108]
	comiss	xmm0, DWORD PTR __real@00000000
	jbe	SHORT $LN6@AddParticl

; 1590 : 	{
; 1591 : 		if( (tr.viewparams.vieworg - src->m_vecOrigin).Length() > src->m_flDistance )

	mov	eax, DWORD PTR _src$[ebp]
	push	eax
	lea	ecx, DWORD PTR $T1[ebp]
	push	ecx
	mov	ecx, OFFSET ?tr@@3Uref_globals_t@@A+5830656
	call	??GVector@@QBE?AV0@ABV0@@Z		; Vector::operator-
	mov	ecx, eax
	call	?Length@Vector@@QBEMXZ			; Vector::Length
	fstp	DWORD PTR tv250[ebp]
	movss	xmm0, DWORD PTR tv250[ebp]
	mov	edx, DWORD PTR _src$[ebp]
	comiss	xmm0, DWORD PTR [edx+108]
	jbe	SHORT $LN6@AddParticl

; 1592 : 			return false;

	xor	al, al
	jmp	$LN1@AddParticl
$LN6@AddParticl:

; 1593 : 	}
; 1594 : 
; 1595 : 	if( FBitSet( flags, FPART_NOTWATER ) && POINT_CONTENTS( src->m_vecOrigin ) == CONTENTS_WATER )

	mov	eax, DWORD PTR _flags$[ebp]
	and	eax, 128				; 00000080H
	je	SHORT $LN7@AddParticl
	push	0
	mov	ecx, DWORD PTR _src$[ebp]
	call	??BVector@@QAEPAMXZ			; Vector::operator float *
	push	eax
	call	DWORD PTR ?gEngfuncs@@3Ucl_enginefuncs_s@@A+228
	add	esp, 8
	cmp	eax, -3					; fffffffdH
	jne	SHORT $LN7@AddParticl

; 1596 : 		return false;

	xor	al, al
	jmp	$LN1@AddParticl
$LN7@AddParticl:

; 1597 : 
; 1598 : 	if( partcounter >= MAX_PARTICLES )

	cmp	DWORD PTR ?partcounter@@3HA, 16384	; partcounter, 00004000H
	jl	SHORT $LN8@AddParticl

; 1599 : 	{
; 1600 : 		ConPrintf( "AddParticle: overflow\n" );

	push	OFFSET ??_C@_0BH@LOMLGGKP@AddParticle?3?5overflow?6?$AA@
	call	DWORD PTR ?gEngfuncs@@3Ucl_enginefuncs_s@@A+160
	add	esp, 4

; 1601 : 		return false;

	xor	al, al
	jmp	$LN1@AddParticl
$LN8@AddParticl:

; 1602 : 	}
; 1603 : 
; 1604 : 	if( !src->EntIndex || src->EntIndex <= 0 )

	mov	eax, DWORD PTR _src$[ebp]
	cmp	DWORD PTR [eax+168], 0
	je	SHORT $LN10@AddParticl
	mov	eax, DWORD PTR _src$[ebp]
	cmp	DWORD PTR [eax+168], 0
	jg	SHORT $LN9@AddParticl
$LN10@AddParticl:

; 1605 : 		src->EntIndex = 0;

	mov	eax, DWORD PTR _src$[ebp]
	mov	DWORD PTR [eax+168], 0
$LN9@AddParticl:

; 1606 : 
; 1607 : 	if( src->EntIndex > 0 )

	mov	eax, DWORD PTR _src$[ebp]
	cmp	DWORD PTR [eax+168], 0
	jle	SHORT $LN12@AddParticl

; 1608 : 	{
; 1609 : 		if( ParticleCountPerEnt[src->EntIndex] >= MAX_PARTICLES_PER_ENTITY )

	mov	eax, DWORD PTR _src$[ebp]
	mov	ecx, DWORD PTR [eax+168]
	mov	edx, DWORD PTR _this$[ebp]
	cmp	DWORD PTR [edx+ecx*4+2911284], 1024	; 00000400H
	jl	SHORT $LN12@AddParticl

; 1610 : 			return false;

	xor	al, al
	jmp	$LN1@AddParticl
$LN12@AddParticl:

; 1611 : 	}
; 1612 : 
; 1613 : 	CQuakePart *dst = NULL;

	mov	DWORD PTR _dst$[ebp], 0

; 1614 : 	
; 1615 : 	switch( src->ParticleType )

	mov	eax, DWORD PTR _src$[ebp]
	mov	ecx, DWORD PTR [eax+144]
	mov	DWORD PTR tv132[ebp], ecx
	mov	edx, DWORD PTR tv132[ebp]
	sub	edx, 1
	mov	DWORD PTR tv132[ebp], edx
	cmp	DWORD PTR tv132[ebp], 9
	ja	SHORT $LN13@AddParticl
	mov	eax, DWORD PTR tv132[ebp]
	jmp	DWORD PTR $LN31@AddParticl[eax*4]
$LN13@AddParticl:

; 1616 : 	{
; 1617 : 	default:	
; 1618 : 	case TYPE_DEFAULT:
; 1619 : 		dst = ParticleArray_Default.Allocate();

	mov	ecx, OFFSET ?ParticleArray_Default@@3V?$MemBlock@VCQuakePart@@@@A ; ParticleArray_Default
	call	?Allocate@?$MemBlock@VCQuakePart@@@@QAEPAVCQuakePart@@XZ ; MemBlock<CQuakePart>::Allocate
	mov	DWORD PTR _dst$[ebp], eax

; 1620 : 		break;

	jmp	$LN2@AddParticl
$LN14@AddParticl:

; 1621 : 	case TYPE_SMOKE:
; 1622 : 		dst = ParticleArray_Smoke.Allocate();

	mov	ecx, OFFSET ?ParticleArray_Smoke@@3V?$MemBlock@VCQuakePart@@@@A ; ParticleArray_Smoke
	call	?Allocate@?$MemBlock@VCQuakePart@@@@QAEPAVCQuakePart@@XZ ; MemBlock<CQuakePart>::Allocate
	mov	DWORD PTR _dst$[ebp], eax

; 1623 : 		break;

	jmp	$LN2@AddParticl
$LN15@AddParticl:

; 1624 : 	case TYPE_SMOKE_NOTINWATER:
; 1625 : 		dst = ParticleArray_Smoke_NotInWater.Allocate();

	mov	ecx, OFFSET ?ParticleArray_Smoke_NotInWater@@3V?$MemBlock@VCQuakePart@@@@A ; ParticleArray_Smoke_NotInWater
	call	?Allocate@?$MemBlock@VCQuakePart@@@@QAEPAVCQuakePart@@XZ ; MemBlock<CQuakePart>::Allocate
	mov	DWORD PTR _dst$[ebp], eax

; 1626 : 		break;

	jmp	SHORT $LN2@AddParticl
$LN16@AddParticl:

; 1627 : 	case TYPE_DUSTMOTE:
; 1628 : 		dst = ParticleArray_Dustmote.Allocate();

	mov	ecx, OFFSET ?ParticleArray_Dustmote@@3V?$MemBlock@VCQuakePart@@@@A ; ParticleArray_Dustmote
	call	?Allocate@?$MemBlock@VCQuakePart@@@@QAEPAVCQuakePart@@XZ ; MemBlock<CQuakePart>::Allocate
	mov	DWORD PTR _dst$[ebp], eax

; 1629 : 		break;

	jmp	SHORT $LN2@AddParticl
$LN17@AddParticl:

; 1630 : 	case TYPE_SPARKS:
; 1631 : 		dst = ParticleArray_Sparks.Allocate();

	mov	ecx, OFFSET ?ParticleArray_Sparks@@3V?$MemBlock@VCQuakePart@@@@A ; ParticleArray_Sparks
	call	?Allocate@?$MemBlock@VCQuakePart@@@@QAEPAVCQuakePart@@XZ ; MemBlock<CQuakePart>::Allocate
	mov	DWORD PTR _dst$[ebp], eax

; 1632 : 		break;

	jmp	SHORT $LN2@AddParticl
$LN18@AddParticl:

; 1633 : 	case TYPE_WATERSPLASH:
; 1634 : 		dst = ParticleArray_Watersplash.Allocate();

	mov	ecx, OFFSET ?ParticleArray_Watersplash@@3V?$MemBlock@VCQuakePart@@@@A ; ParticleArray_Watersplash
	call	?Allocate@?$MemBlock@VCQuakePart@@@@QAEPAVCQuakePart@@XZ ; MemBlock<CQuakePart>::Allocate
	mov	DWORD PTR _dst$[ebp], eax

; 1635 : 		break;

	jmp	SHORT $LN2@AddParticl
$LN19@AddParticl:

; 1636 : 	case TYPE_SAND:
; 1637 : 		dst = ParticleArray_Sand.Allocate();

	mov	ecx, OFFSET ?ParticleArray_Sand@@3V?$MemBlock@VCQuakePart@@@@A ; ParticleArray_Sand
	call	?Allocate@?$MemBlock@VCQuakePart@@@@QAEPAVCQuakePart@@XZ ; MemBlock<CQuakePart>::Allocate
	mov	DWORD PTR _dst$[ebp], eax

; 1638 : 		break;

	jmp	SHORT $LN2@AddParticl
$LN20@AddParticl:

; 1639 : 	case TYPE_DIRT:
; 1640 : 		dst = ParticleArray_Dirt.Allocate();

	mov	ecx, OFFSET ?ParticleArray_Dirt@@3V?$MemBlock@VCQuakePart@@@@A ; ParticleArray_Dirt
	call	?Allocate@?$MemBlock@VCQuakePart@@@@QAEPAVCQuakePart@@XZ ; MemBlock<CQuakePart>::Allocate
	mov	DWORD PTR _dst$[ebp], eax

; 1641 : 		break;

	jmp	SHORT $LN2@AddParticl
$LN21@AddParticl:

; 1642 : 	case TYPE_FIREBALL:
; 1643 : 		dst = ParticleArray_Fireball.Allocate();

	mov	ecx, OFFSET ?ParticleArray_Fireball@@3V?$MemBlock@VCQuakePart@@@@A ; ParticleArray_Fireball
	call	?Allocate@?$MemBlock@VCQuakePart@@@@QAEPAVCQuakePart@@XZ ; MemBlock<CQuakePart>::Allocate
	mov	DWORD PTR _dst$[ebp], eax

; 1644 : 		break;

	jmp	SHORT $LN2@AddParticl
$LN22@AddParticl:

; 1645 : 	case TYPE_BLOOD:
; 1646 : 		dst = ParticleArray_Blood.Allocate();

	mov	ecx, OFFSET ?ParticleArray_Blood@@3V?$MemBlock@VCQuakePart@@@@A ; ParticleArray_Blood
	call	?Allocate@?$MemBlock@VCQuakePart@@@@QAEPAVCQuakePart@@XZ ; MemBlock<CQuakePart>::Allocate
	mov	DWORD PTR _dst$[ebp], eax

; 1647 : 		break;

	jmp	SHORT $LN2@AddParticl
$LN23@AddParticl:

; 1648 : 	case TYPE_CUSTOM:
; 1649 : 		dst = AllocParticle();

	mov	ecx, DWORD PTR _this$[ebp]
	call	?AllocParticle@CQuakePartSystem@@QAEPAVCQuakePart@@XZ ; CQuakePartSystem::AllocParticle
	mov	DWORD PTR _dst$[ebp], eax
$LN2@AddParticl:

; 1650 : 		break;
; 1651 : 	}
; 1652 : 
; 1653 : 	if( !dst )

	cmp	DWORD PTR _dst$[ebp], 0
	jne	SHORT $LN24@AddParticl

; 1654 : 		return false;

	xor	al, al
	jmp	$LN1@AddParticl
$LN24@AddParticl:

; 1655 : 
; 1656 : 	src->m_vecAddedVelocity = g_vecZero;

	mov	eax, DWORD PTR _src$[ebp]
	add	eax, 116				; 00000074H
	mov	ecx, DWORD PTR ?g_vecZero@@3VVector@@B
	mov	DWORD PTR [eax], ecx
	mov	edx, DWORD PTR ?g_vecZero@@3VVector@@B+4
	mov	DWORD PTR [eax+4], edx
	mov	ecx, DWORD PTR ?g_vecZero@@3VVector@@B+8
	mov	DWORD PTR [eax+8], ecx

; 1657 : 
; 1658 : 	if( !src->EntIndex )

	mov	eax, DWORD PTR _src$[ebp]
	cmp	DWORD PTR [eax+168], 0
	jne	SHORT $LN25@AddParticl

; 1659 : 		src->EntIndex = 0;

	mov	eax, DWORD PTR _src$[ebp]
	mov	DWORD PTR [eax+168], 0
$LN25@AddParticl:

; 1660 : 
; 1661 : 	if( texture )

	cmp	DWORD PTR _texture$[ebp], 0
	je	SHORT $LN26@AddParticl

; 1662 : 		dst->m_hTexture = texture;

	mov	eax, DWORD PTR _dst$[ebp]
	mov	ecx, DWORD PTR _texture$[ebp]
	mov	DWORD PTR [eax+140], ecx

; 1663 : 	else

	jmp	SHORT $LN27@AddParticl
$LN26@AddParticl:

; 1664 : 		dst->m_hTexture = m_hDefaultParticle;

	mov	eax, DWORD PTR _dst$[ebp]
	mov	ecx, DWORD PTR _this$[ebp]
	mov	edx, DWORD PTR [ecx+2911244]
	mov	DWORD PTR [eax+140], edx
$LN27@AddParticl:

; 1665 : 
; 1666 : 	dst->m_flTime = tr.time;	

	cvtsd2ss xmm0, QWORD PTR ?tr@@3Uref_globals_t@@A+8
	mov	eax, DWORD PTR _dst$[ebp]
	movss	DWORD PTR [eax+148], xmm0

; 1667 : 	dst->m_iFlags = flags;

	mov	eax, DWORD PTR _dst$[ebp]
	mov	ecx, DWORD PTR _flags$[ebp]
	mov	DWORD PTR [eax+152], ecx

; 1668 : 	dst->m_vecOrigin = src->m_vecOrigin;

	mov	eax, DWORD PTR _src$[ebp]
	mov	ecx, DWORD PTR _dst$[ebp]
	mov	edx, DWORD PTR [eax]
	mov	DWORD PTR [ecx], edx
	mov	edx, DWORD PTR [eax+4]
	mov	DWORD PTR [ecx+4], edx
	mov	eax, DWORD PTR [eax+8]
	mov	DWORD PTR [ecx+8], eax

; 1669 : 	dst->m_vecVelocity = src->m_vecVelocity;

	mov	eax, DWORD PTR _src$[ebp]
	add	eax, 24					; 00000018H
	mov	ecx, DWORD PTR _dst$[ebp]
	add	ecx, 24					; 00000018H
	mov	edx, DWORD PTR [eax]
	mov	DWORD PTR [ecx], edx
	mov	edx, DWORD PTR [eax+4]
	mov	DWORD PTR [ecx+4], edx
	mov	eax, DWORD PTR [eax+8]
	mov	DWORD PTR [ecx+8], eax

; 1670 : 	dst->m_vecAccel = src->m_vecAccel;

	mov	eax, DWORD PTR _src$[ebp]
	add	eax, 36					; 00000024H
	mov	ecx, DWORD PTR _dst$[ebp]
	add	ecx, 36					; 00000024H
	mov	edx, DWORD PTR [eax]
	mov	DWORD PTR [ecx], edx
	mov	edx, DWORD PTR [eax+4]
	mov	DWORD PTR [ecx+4], edx
	mov	eax, DWORD PTR [eax+8]
	mov	DWORD PTR [ecx+8], eax

; 1671 : 	dst->m_vecColor = src->m_vecColor;

	mov	eax, DWORD PTR _src$[ebp]
	add	eax, 48					; 00000030H
	mov	ecx, DWORD PTR _dst$[ebp]
	add	ecx, 48					; 00000030H
	mov	edx, DWORD PTR [eax]
	mov	DWORD PTR [ecx], edx
	mov	edx, DWORD PTR [eax+4]
	mov	DWORD PTR [ecx+4], edx
	mov	eax, DWORD PTR [eax+8]
	mov	DWORD PTR [ecx+8], eax

; 1672 : 	dst->m_vecColorVelocity = src->m_vecColorVelocity;

	mov	eax, DWORD PTR _src$[ebp]
	add	eax, 60					; 0000003cH
	mov	ecx, DWORD PTR _dst$[ebp]
	add	ecx, 60					; 0000003cH
	mov	edx, DWORD PTR [eax]
	mov	DWORD PTR [ecx], edx
	mov	edx, DWORD PTR [eax+4]
	mov	DWORD PTR [ecx+4], edx
	mov	eax, DWORD PTR [eax+8]
	mov	DWORD PTR [ecx+8], eax

; 1673 : 	dst->m_flAlpha = src->m_flAlpha;

	mov	eax, DWORD PTR _dst$[ebp]
	mov	ecx, DWORD PTR _src$[ebp]
	mov	edx, DWORD PTR [ecx+72]
	mov	DWORD PTR [eax+72], edx

; 1674 : 	dst->m_flStartAlpha = src->m_flStartAlpha;

	mov	eax, DWORD PTR _dst$[ebp]
	mov	ecx, DWORD PTR _src$[ebp]
	mov	edx, DWORD PTR [ecx+112]
	mov	DWORD PTR [eax+112], edx

; 1675 : 
; 1676 : 	dst->m_flRadius = src->m_flRadius;

	mov	eax, DWORD PTR _dst$[ebp]
	mov	ecx, DWORD PTR _src$[ebp]
	mov	edx, DWORD PTR [ecx+80]
	mov	DWORD PTR [eax+80], edx

; 1677 : 	if( flags & FPART_DISTANCESCALE )

	mov	eax, DWORD PTR _flags$[ebp]
	and	eax, 512				; 00000200H
	je	SHORT $LN28@AddParticl

; 1678 : 	{
; 1679 : 		dst->m_flMinScale = src->m_flMinScale;

	mov	eax, DWORD PTR _dst$[ebp]
	mov	ecx, DWORD PTR _src$[ebp]
	mov	edx, DWORD PTR [ecx+128]
	mov	DWORD PTR [eax+128], edx

; 1680 : 		dst->m_flMaxScale = src->m_flMaxScale;

	mov	eax, DWORD PTR _dst$[ebp]
	mov	ecx, DWORD PTR _src$[ebp]
	mov	edx, DWORD PTR [ecx+132]
	mov	DWORD PTR [eax+132], edx
$LN28@AddParticl:

; 1681 : 	}
; 1682 : 	dst->m_flLength = src->m_flLength;

	mov	eax, DWORD PTR _dst$[ebp]
	mov	ecx, DWORD PTR _src$[ebp]
	mov	edx, DWORD PTR [ecx+88]
	mov	DWORD PTR [eax+88], edx

; 1683 : 	dst->m_flRotation = src->m_flRotation;

	mov	eax, DWORD PTR _dst$[ebp]
	mov	ecx, DWORD PTR _src$[ebp]
	mov	edx, DWORD PTR [ecx+96]
	mov	DWORD PTR [eax+96], edx

; 1684 : 	dst->m_flRotationVelocity = src->m_flRotationVelocity;

	mov	eax, DWORD PTR _dst$[ebp]
	mov	ecx, DWORD PTR _src$[ebp]
	mov	edx, DWORD PTR [ecx+100]
	mov	DWORD PTR [eax+100], edx

; 1685 : 	dst->m_flAlphaVelocity = src->m_flAlphaVelocity;

	mov	eax, DWORD PTR _dst$[ebp]
	mov	ecx, DWORD PTR _src$[ebp]
	mov	edx, DWORD PTR [ecx+76]
	mov	DWORD PTR [eax+76], edx

; 1686 : 	dst->m_flRadiusVelocity = src->m_flRadiusVelocity;

	mov	eax, DWORD PTR _dst$[ebp]
	mov	ecx, DWORD PTR _src$[ebp]
	mov	edx, DWORD PTR [ecx+84]
	mov	DWORD PTR [eax+84], edx

; 1687 : 	dst->m_flLengthVelocity = src->m_flLengthVelocity;

	mov	eax, DWORD PTR _dst$[ebp]
	mov	ecx, DWORD PTR _src$[ebp]
	mov	edx, DWORD PTR [ecx+92]
	mov	DWORD PTR [eax+92], edx

; 1688 : 	dst->m_flBounceFactor = src->m_flBounceFactor;

	mov	eax, DWORD PTR _dst$[ebp]
	mov	ecx, DWORD PTR _src$[ebp]
	mov	edx, DWORD PTR [ecx+104]
	mov	DWORD PTR [eax+104], edx

; 1689 : 	dst->m_flDistance = src->m_flDistance;

	mov	eax, DWORD PTR _dst$[ebp]
	mov	ecx, DWORD PTR _src$[ebp]
	mov	edx, DWORD PTR [ecx+108]
	mov	DWORD PTR [eax+108], edx

; 1690 : 	dst->ParticleType = src->ParticleType;

	mov	eax, DWORD PTR _dst$[ebp]
	mov	ecx, DWORD PTR _src$[ebp]
	mov	edx, DWORD PTR [ecx+144]
	mov	DWORD PTR [eax+144], edx

; 1691 : 	dst->m_vecAddedVelocity = src->m_vecAddedVelocity;

	mov	eax, DWORD PTR _src$[ebp]
	add	eax, 116				; 00000074H
	mov	ecx, DWORD PTR _dst$[ebp]
	add	ecx, 116				; 00000074H
	mov	edx, DWORD PTR [eax]
	mov	DWORD PTR [ecx], edx
	mov	edx, DWORD PTR [eax+4]
	mov	DWORD PTR [ecx+4], edx
	mov	eax, DWORD PTR [eax+8]
	mov	DWORD PTR [ecx+8], eax

; 1692 : 	dst->EntIndex = src->EntIndex;

	mov	eax, DWORD PTR _dst$[ebp]
	mov	ecx, DWORD PTR _src$[ebp]
	mov	edx, DWORD PTR [ecx+168]
	mov	DWORD PTR [eax+168], edx

; 1693 : //	dst->AlphaDownScale = 1.0f;
; 1694 : 
; 1695 : 	// needs to save old origin
; 1696 : 	if( FBitSet( flags, (FPART_BOUNCE | FPART_FRICTION) ) )

	mov	eax, DWORD PTR _flags$[ebp]
	and	eax, 3
	je	SHORT $LN29@AddParticl

; 1697 : 		dst->m_vecLastOrg = dst->m_vecOrigin;

	mov	eax, DWORD PTR _dst$[ebp]
	add	eax, 12					; 0000000cH
	mov	ecx, DWORD PTR _dst$[ebp]
	mov	edx, DWORD PTR [ecx]
	mov	DWORD PTR [eax], edx
	mov	edx, DWORD PTR [ecx+4]
	mov	DWORD PTR [eax+4], edx
	mov	ecx, DWORD PTR [ecx+8]
	mov	DWORD PTR [eax+8], ecx
$LN29@AddParticl:

; 1698 : 
; 1699 : 	partcounter++;

	mov	eax, DWORD PTR ?partcounter@@3HA	; partcounter
	add	eax, 1
	mov	DWORD PTR ?partcounter@@3HA, eax	; partcounter

; 1700 : 	ParticleCountPerEnt[src->EntIndex]++;

	mov	eax, DWORD PTR _src$[ebp]
	mov	ecx, DWORD PTR [eax+168]
	mov	edx, DWORD PTR _this$[ebp]
	mov	eax, DWORD PTR [edx+ecx*4+2911284]
	add	eax, 1
	mov	ecx, DWORD PTR _src$[ebp]
	mov	edx, DWORD PTR [ecx+168]
	mov	ecx, DWORD PTR _this$[ebp]
	mov	DWORD PTR [ecx+edx*4+2911284], eax

; 1701 : 
; 1702 : 	return true;

	mov	al, 1
$LN1@AddParticl:

; 1703 : }

	pop	edi
	pop	esi
	pop	ebx
	mov	esp, ebp
	pop	ebp
	ret	12					; 0000000cH
	npad	1
$LN31@AddParticl:
	DD	$LN16@AddParticl
	DD	$LN17@AddParticl
	DD	$LN14@AddParticl
	DD	$LN15@AddParticl
	DD	$LN18@AddParticl
	DD	$LN19@AddParticl
	DD	$LN20@AddParticl
	DD	$LN21@AddParticl
	DD	$LN22@AddParticl
	DD	$LN23@AddParticl
?AddParticle@CQuakePartSystem@@QAE_NPAVCQuakePart@@HH@Z ENDP ; CQuakePartSystem::AddParticle
_TEXT	ENDS
; Function compile flags: /Odtp /ZI
; File d:\!diffusion 2020\source code 2022\client-server\client\render\r_quakeparticle.cpp
;	COMDAT ?AllocParticle@CQuakePartSystem@@QAEPAVCQuakePart@@XZ
_TEXT	SEGMENT
_pCur$ = -8						; size = 4
_this$ = -4						; size = 4
?AllocParticle@CQuakePartSystem@@QAEPAVCQuakePart@@XZ PROC ; CQuakePartSystem::AllocParticle, COMDAT
; _this$ = ecx

; 1510 : {

	push	ebp
	mov	ebp, esp
	sub	esp, 72					; 00000048H
	push	ebx
	push	esi
	push	edi
	mov	DWORD PTR _this$[ebp], ecx

; 1511 : 	CQuakePart *pCur;
; 1512 : 
; 1513 : 	if( !m_pFreeParticles )

	mov	eax, DWORD PTR _this$[ebp]
	cmp	DWORD PTR [eax+4], 0
	jne	SHORT $LN2@AllocParti

; 1514 : 	{
; 1515 : 		ConPrintf( "Overflow %d particles\n", MAX_PARTICLES );

	push	16384					; 00004000H
	push	OFFSET ??_C@_0BH@FLMDKIBP@Overflow?5?$CFd?5particles?6?$AA@
	call	DWORD PTR ?gEngfuncs@@3Ucl_enginefuncs_s@@A+160
	add	esp, 8

; 1516 : 		return NULL;

	xor	eax, eax
	jmp	SHORT $LN1@AllocParti
$LN2@AllocParti:

; 1517 : 	}
; 1518 : 
; 1519 : 	pCur = m_pFreeParticles;

	mov	eax, DWORD PTR _this$[ebp]
	mov	ecx, DWORD PTR [eax+4]
	mov	DWORD PTR _pCur$[ebp], ecx

; 1520 : 	m_pFreeParticles = pCur->pNext;

	mov	eax, DWORD PTR _this$[ebp]
	mov	ecx, DWORD PTR _pCur$[ebp]
	mov	edx, DWORD PTR [ecx+136]
	mov	DWORD PTR [eax+4], edx

; 1521 : 	pCur->pNext = m_pActiveParticles;

	mov	eax, DWORD PTR _pCur$[ebp]
	mov	ecx, DWORD PTR _this$[ebp]
	mov	edx, DWORD PTR [ecx+2911280]
	mov	DWORD PTR [eax+136], edx

; 1522 : 	m_pActiveParticles = pCur;

	mov	eax, DWORD PTR _this$[ebp]
	mov	ecx, DWORD PTR _pCur$[ebp]
	mov	DWORD PTR [eax+2911280], ecx

; 1523 : 
; 1524 : 	return pCur;

	mov	eax, DWORD PTR _pCur$[ebp]
$LN1@AllocParti:

; 1525 : }

	pop	edi
	pop	esi
	pop	ebx
	mov	esp, ebp
	pop	ebp
	ret	0
?AllocParticle@CQuakePartSystem@@QAEPAVCQuakePart@@XZ ENDP ; CQuakePartSystem::AllocParticle
_TEXT	ENDS
; Function compile flags: /Odtp /ZI
; File d:\!diffusion 2020\source code 2022\client-server\client\render\r_quakeparticle.cpp
;	COMDAT ?FreeParticle@CQuakePartSystem@@QAEXPAVCQuakePart@@@Z
_TEXT	SEGMENT
_this$ = -4						; size = 4
_pCur$ = 8						; size = 4
?FreeParticle@CQuakePartSystem@@QAEXPAVCQuakePart@@@Z PROC ; CQuakePartSystem::FreeParticle, COMDAT
; _this$ = ecx

; 1499 : {

	push	ebp
	mov	ebp, esp
	sub	esp, 68					; 00000044H
	push	ebx
	push	esi
	push	edi
	mov	DWORD PTR _this$[ebp], ecx

; 1500 : 	if( pCur->EntIndex > 0 )

	mov	eax, DWORD PTR _pCur$[ebp]
	cmp	DWORD PTR [eax+168], 0
	jle	SHORT $LN2@FreePartic

; 1501 : 		ParticleCountPerEnt[pCur->EntIndex]--;

	mov	eax, DWORD PTR _pCur$[ebp]
	mov	ecx, DWORD PTR [eax+168]
	mov	edx, DWORD PTR _this$[ebp]
	mov	eax, DWORD PTR [edx+ecx*4+2911284]
	sub	eax, 1
	mov	ecx, DWORD PTR _pCur$[ebp]
	mov	edx, DWORD PTR [ecx+168]
	mov	ecx, DWORD PTR _this$[ebp]
	mov	DWORD PTR [ecx+edx*4+2911284], eax
$LN2@FreePartic:

; 1502 : 
; 1503 : 	partcounter--;

	mov	eax, DWORD PTR ?partcounter@@3HA	; partcounter
	sub	eax, 1
	mov	DWORD PTR ?partcounter@@3HA, eax	; partcounter

; 1504 : 
; 1505 : 	pCur->pNext = m_pFreeParticles;

	mov	eax, DWORD PTR _pCur$[ebp]
	mov	ecx, DWORD PTR _this$[ebp]
	mov	edx, DWORD PTR [ecx+4]
	mov	DWORD PTR [eax+136], edx

; 1506 : 	m_pFreeParticles = pCur;

	mov	eax, DWORD PTR _this$[ebp]
	mov	ecx, DWORD PTR _pCur$[ebp]
	mov	DWORD PTR [eax+4], ecx

; 1507 : }

	pop	edi
	pop	esi
	pop	ebx
	mov	esp, ebp
	pop	ebp
	ret	4
?FreeParticle@CQuakePartSystem@@QAEXPAVCQuakePart@@@Z ENDP ; CQuakePartSystem::FreeParticle
_TEXT	ENDS
; Function compile flags: /Odtp /ZI
; File d:\!diffusion 2020\source code 2022\client-server\client\render\r_quakeparticle.cpp
;	COMDAT ?Update@CQuakePartSystem@@QAEXXZ
_TEXT	SEGMENT
_gravity$ = -24						; size = 4
_pTail$ = -20						; size = 4
_pActive$ = -16						; size = 4
_pNext$ = -12						; size = 4
_pCur$ = -8						; size = 4
_this$ = -4						; size = 4
?Update@CQuakePartSystem@@QAEXXZ PROC			; CQuakePartSystem::Update, COMDAT
; _this$ = ecx

; 1528 : {

	push	ebp
	mov	ebp, esp
	sub	esp, 88					; 00000058H
	push	ebx
	push	esi
	push	edi
	mov	DWORD PTR _this$[ebp], ecx

; 1529 : 	if( (RI->params & RP_ENVVIEW) || (RI->params & RP_SHADOWPASS) || (RI->params & RP_MIRRORVIEW) )

	mov	eax, DWORD PTR ?RI@@3PAUref_instance_t@@A ; RI
	mov	ecx, DWORD PTR [eax]
	and	ecx, 2
	jne	SHORT $LN6@Update
	mov	eax, DWORD PTR ?RI@@3PAUref_instance_t@@A ; RI
	mov	ecx, DWORD PTR [eax]
	and	ecx, 256				; 00000100H
	jne	SHORT $LN6@Update
	mov	eax, DWORD PTR ?RI@@3PAUref_instance_t@@A ; RI
	mov	ecx, DWORD PTR [eax]
	and	ecx, 1
	je	SHORT $LN5@Update
$LN6@Update:

; 1530 : 		return;

	jmp	$LN1@Update
$LN5@Update:

; 1531 : 
; 1532 : 	GL_DepthMask( GL_FALSE );

	push	0
	call	?GL_DepthMask@@YAXH@Z			; GL_DepthMask
	add	esp, 4

; 1533 : 
; 1534 : 	DrawParticles( ParticleArray_Default );

	push	OFFSET ?ParticleArray_Default@@3V?$MemBlock@VCQuakePart@@@@A ; ParticleArray_Default
	mov	ecx, DWORD PTR _this$[ebp]
	call	?DrawParticles@CQuakePartSystem@@QAEXAAV?$MemBlock@VCQuakePart@@@@@Z ; CQuakePartSystem::DrawParticles

; 1535 : 	DrawParticles( ParticleArray_Dustmote );

	push	OFFSET ?ParticleArray_Dustmote@@3V?$MemBlock@VCQuakePart@@@@A ; ParticleArray_Dustmote
	mov	ecx, DWORD PTR _this$[ebp]
	call	?DrawParticles@CQuakePartSystem@@QAEXAAV?$MemBlock@VCQuakePart@@@@@Z ; CQuakePartSystem::DrawParticles

; 1536 : 	DrawParticles( ParticleArray_Sparks );

	push	OFFSET ?ParticleArray_Sparks@@3V?$MemBlock@VCQuakePart@@@@A ; ParticleArray_Sparks
	mov	ecx, DWORD PTR _this$[ebp]
	call	?DrawParticles@CQuakePartSystem@@QAEXAAV?$MemBlock@VCQuakePart@@@@@Z ; CQuakePartSystem::DrawParticles

; 1537 : 	DrawParticles( ParticleArray_Smoke );

	push	OFFSET ?ParticleArray_Smoke@@3V?$MemBlock@VCQuakePart@@@@A ; ParticleArray_Smoke
	mov	ecx, DWORD PTR _this$[ebp]
	call	?DrawParticles@CQuakePartSystem@@QAEXAAV?$MemBlock@VCQuakePart@@@@@Z ; CQuakePartSystem::DrawParticles

; 1538 : 	DrawParticles( ParticleArray_Smoke_NotInWater );

	push	OFFSET ?ParticleArray_Smoke_NotInWater@@3V?$MemBlock@VCQuakePart@@@@A ; ParticleArray_Smoke_NotInWater
	mov	ecx, DWORD PTR _this$[ebp]
	call	?DrawParticles@CQuakePartSystem@@QAEXAAV?$MemBlock@VCQuakePart@@@@@Z ; CQuakePartSystem::DrawParticles

; 1539 : 	DrawParticles( ParticleArray_Watersplash );

	push	OFFSET ?ParticleArray_Watersplash@@3V?$MemBlock@VCQuakePart@@@@A ; ParticleArray_Watersplash
	mov	ecx, DWORD PTR _this$[ebp]
	call	?DrawParticles@CQuakePartSystem@@QAEXAAV?$MemBlock@VCQuakePart@@@@@Z ; CQuakePartSystem::DrawParticles

; 1540 : 	DrawParticles( ParticleArray_Sand );

	push	OFFSET ?ParticleArray_Sand@@3V?$MemBlock@VCQuakePart@@@@A ; ParticleArray_Sand
	mov	ecx, DWORD PTR _this$[ebp]
	call	?DrawParticles@CQuakePartSystem@@QAEXAAV?$MemBlock@VCQuakePart@@@@@Z ; CQuakePartSystem::DrawParticles

; 1541 : 	DrawParticles( ParticleArray_Dirt );

	push	OFFSET ?ParticleArray_Dirt@@3V?$MemBlock@VCQuakePart@@@@A ; ParticleArray_Dirt
	mov	ecx, DWORD PTR _this$[ebp]
	call	?DrawParticles@CQuakePartSystem@@QAEXAAV?$MemBlock@VCQuakePart@@@@@Z ; CQuakePartSystem::DrawParticles

; 1542 : 	DrawParticles( ParticleArray_Fireball );

	push	OFFSET ?ParticleArray_Fireball@@3V?$MemBlock@VCQuakePart@@@@A ; ParticleArray_Fireball
	mov	ecx, DWORD PTR _this$[ebp]
	call	?DrawParticles@CQuakePartSystem@@QAEXAAV?$MemBlock@VCQuakePart@@@@@Z ; CQuakePartSystem::DrawParticles

; 1543 : 	DrawParticles( ParticleArray_Blood );

	push	OFFSET ?ParticleArray_Blood@@3V?$MemBlock@VCQuakePart@@@@A ; ParticleArray_Blood
	mov	ecx, DWORD PTR _this$[ebp]
	call	?DrawParticles@CQuakePartSystem@@QAEXAAV?$MemBlock@VCQuakePart@@@@@Z ; CQuakePartSystem::DrawParticles

; 1544 : 
; 1545 : 	// draw particles from txt-file (through glbegin-end...)
; 1546 : 	CQuakePart *pCur, *pNext;
; 1547 : 	CQuakePart *pActive = NULL, *pTail = NULL;

	mov	DWORD PTR _pActive$[ebp], 0
	mov	DWORD PTR _pTail$[ebp], 0

; 1548 : 	
; 1549 : //	float gravity = g_fFrametime * tr.movevars->gravity; gEngfuncs.Con_NPrintf( 1, "ft %f\n", g_fFrametime );
; 1550 : 	float gravity = tr.movevars->gravity * 0.0075f; // diffusion - the value must be fixed - frametime is jumping

	mov	eax, DWORD PTR ?tr@@3Uref_globals_t@@A+5830888
	movss	xmm0, DWORD PTR [eax]
	mulss	xmm0, DWORD PTR __real@3bf5c28f
	movss	DWORD PTR _gravity$[ebp], xmm0

; 1551 : 
; 1552 : 	for( pCur = m_pActiveParticles; pCur != NULL; pCur = pNext )

	mov	eax, DWORD PTR _this$[ebp]
	mov	ecx, DWORD PTR [eax+2911280]
	mov	DWORD PTR _pCur$[ebp], ecx
	jmp	SHORT $LN4@Update
$LN2@Update:
	mov	eax, DWORD PTR _pNext$[ebp]
	mov	DWORD PTR _pCur$[ebp], eax
$LN4@Update:
	cmp	DWORD PTR _pCur$[ebp], 0
	je	SHORT $LN3@Update

; 1553 : 	{
; 1554 : 		// grab next now, so if the particle is freed we still have it
; 1555 : 		pNext = pCur->pNext;

	mov	eax, DWORD PTR _pCur$[ebp]
	mov	ecx, DWORD PTR [eax+136]
	mov	DWORD PTR _pNext$[ebp], ecx

; 1556 : 
; 1557 : 		if( !pCur->Evaluate( gravity ) )

	push	ecx
	movss	xmm0, DWORD PTR _gravity$[ebp]
	movss	DWORD PTR [esp], xmm0
	mov	ecx, DWORD PTR _pCur$[ebp]
	call	?Evaluate@CQuakePart@@QAE_NM@Z		; CQuakePart::Evaluate
	movzx	eax, al
	test	eax, eax
	jne	SHORT $LN7@Update

; 1558 : 		{
; 1559 : 			FreeParticle( pCur );

	mov	eax, DWORD PTR _pCur$[ebp]
	push	eax
	mov	ecx, DWORD PTR _this$[ebp]
	call	?FreeParticle@CQuakePartSystem@@QAEXPAVCQuakePart@@@Z ; CQuakePartSystem::FreeParticle

; 1560 : 			continue;

	jmp	SHORT $LN2@Update
$LN7@Update:

; 1561 : 		}
; 1562 : 
; 1563 : 		pCur->pNext = NULL;

	mov	eax, DWORD PTR _pCur$[ebp]
	mov	DWORD PTR [eax+136], 0

; 1564 : 
; 1565 : 		if( !pTail )

	cmp	DWORD PTR _pTail$[ebp], 0
	jne	SHORT $LN8@Update

; 1566 : 		{
; 1567 : 			pActive = pTail = pCur;

	mov	eax, DWORD PTR _pCur$[ebp]
	mov	DWORD PTR _pTail$[ebp], eax
	mov	ecx, DWORD PTR _pTail$[ebp]
	mov	DWORD PTR _pActive$[ebp], ecx

; 1568 : 		}
; 1569 : 		else

	jmp	SHORT $LN9@Update
$LN8@Update:

; 1570 : 		{
; 1571 : 			pTail->pNext = pCur;

	mov	eax, DWORD PTR _pTail$[ebp]
	mov	ecx, DWORD PTR _pCur$[ebp]
	mov	DWORD PTR [eax+136], ecx

; 1572 : 			pTail = pCur;

	mov	eax, DWORD PTR _pCur$[ebp]
	mov	DWORD PTR _pTail$[ebp], eax
$LN9@Update:

; 1573 : 		}
; 1574 : 	}

	jmp	SHORT $LN2@Update
$LN3@Update:

; 1575 : 
; 1576 : 	m_pActiveParticles = pActive;

	mov	eax, DWORD PTR _this$[ebp]
	mov	ecx, DWORD PTR _pActive$[ebp]
	mov	DWORD PTR [eax+2911280], ecx

; 1577 : 
; 1578 : 	r_stats.c_particles_total = partcounter;

	mov	eax, DWORD PTR ?partcounter@@3HA	; partcounter
	mov	DWORD PTR ?r_stats@@3Uref_stats_t@@A+32, eax
$LN1@Update:

; 1579 : 
; 1580 : //	ExplosionOrg = g_vecZero;
; 1581 : }

	pop	edi
	pop	esi
	pop	ebx
	mov	esp, ebp
	pop	ebp
	ret	0
?Update@CQuakePartSystem@@QAEXXZ ENDP			; CQuakePartSystem::Update
_TEXT	ENDS
; Function compile flags: /Odtp /ZI
; File d:\!diffusion 2020\source code 2022\client-server\client\render\r_quakeparticle.cpp
;	COMDAT ?Clear@CQuakePartSystem@@QAEXXZ
_TEXT	SEGMENT
_i$1 = -8						; size = 4
_this$ = -4						; size = 4
?Clear@CQuakePartSystem@@QAEXXZ PROC			; CQuakePartSystem::Clear, COMDAT
; _this$ = ecx

; 998  : {

	push	ebp
	mov	ebp, esp
	sub	esp, 72					; 00000048H
	push	ebx
	push	esi
	push	edi
	mov	DWORD PTR _this$[ebp], ecx

; 999  : 	m_pFreeParticles = m_pParticles;

	mov	eax, DWORD PTR _this$[ebp]
	add	eax, 8
	mov	ecx, DWORD PTR _this$[ebp]
	mov	DWORD PTR [ecx+4], eax

; 1000 : 	m_pActiveParticles = NULL;

	mov	eax, DWORD PTR _this$[ebp]
	mov	DWORD PTR [eax+2911280], 0

; 1001 : 
; 1002 : 	for( int i = 0; i < MAX_PARTICLES; i++ )

	mov	DWORD PTR _i$1[ebp], 0
	jmp	SHORT $LN4@Clear
$LN2@Clear:
	mov	eax, DWORD PTR _i$1[ebp]
	add	eax, 1
	mov	DWORD PTR _i$1[ebp], eax
$LN4@Clear:
	cmp	DWORD PTR _i$1[ebp], 16384		; 00004000H
	jge	SHORT $LN3@Clear

; 1003 : 		m_pParticles[i].pNext = &m_pParticles[i+1];

	mov	eax, DWORD PTR _i$1[ebp]
	add	eax, 1
	imul	ecx, eax, 172
	mov	edx, DWORD PTR _this$[ebp]
	lea	eax, DWORD PTR [edx+ecx+8]
	imul	ecx, DWORD PTR _i$1[ebp], 172
	mov	edx, DWORD PTR _this$[ebp]
	mov	DWORD PTR [edx+ecx+144], eax
	jmp	SHORT $LN2@Clear
$LN3@Clear:

; 1004 : 
; 1005 : 	m_pParticles[MAX_PARTICLES-1].pNext = NULL;

	mov	eax, 172				; 000000acH
	imul	ecx, eax, 16383
	mov	edx, DWORD PTR _this$[ebp]
	mov	DWORD PTR [edx+ecx+144], 0

; 1006 : 
; 1007 : 	memset( tr.ParticleTime, 0, sizeof( tr.ParticleTime ) );

	push	32768					; 00008000H
	push	0
	push	OFFSET ?tr@@3Uref_globals_t@@A+7491044
	call	_memset
	add	esp, 12					; 0000000cH

; 1008 : 
; 1009 : 	// loading TE shaders
; 1010 : 	m_hDefaultParticle = FIND_TEXTURE( "*particle" );	// quake particle

	push	OFFSET ??_C@_09KHFKAJMC@?$CKparticle?$AA@
	call	DWORD PTR ?gRenderfuncs@@3Urender_api_s@@A+48
	add	esp, 4
	mov	ecx, DWORD PTR _this$[ebp]
	mov	DWORD PTR [ecx+2911244], eax

; 1011 : 	m_hSparks = LOAD_TEXTURE( "gfx/particles/spark", NULL, 0, TF_CLAMP );

	push	2048					; 00000800H
	push	0
	push	0
	push	OFFSET ??_C@_0BE@DHIHIMHH@gfx?1particles?1spark?$AA@
	call	DWORD PTR ?gRenderfuncs@@3Urender_api_s@@A+60
	add	esp, 16					; 00000010H
	mov	ecx, DWORD PTR _this$[ebp]
	mov	DWORD PTR [ecx+2911248], eax

; 1012 : 	m_hSmoke = LOAD_TEXTURE( "gfx/particles/smoke", NULL, 0, TF_CLAMP );

	push	2048					; 00000800H
	push	0
	push	0
	push	OFFSET ??_C@_0BE@MCFMBNAG@gfx?1particles?1smoke?$AA@
	call	DWORD PTR ?gRenderfuncs@@3Urender_api_s@@A+60
	add	esp, 16					; 00000010H
	mov	ecx, DWORD PTR _this$[ebp]
	mov	DWORD PTR [ecx+2911252], eax

; 1013 : 	m_hWaterSplash = LOAD_TEXTURE( "gfx/particles/waterring", NULL, 0, TF_CLAMP );

	push	2048					; 00000800H
	push	0
	push	0
	push	OFFSET ??_C@_0BI@HPNKPJDK@gfx?1particles?1waterring?$AA@
	call	DWORD PTR ?gRenderfuncs@@3Urender_api_s@@A+60
	add	esp, 16					; 00000010H
	mov	ecx, DWORD PTR _this$[ebp]
	mov	DWORD PTR [ecx+2911256], eax

; 1014 : 	m_hBlood = LOAD_TEXTURE( "gfx/particles/blood", NULL, 0, TF_CLAMP );

	push	2048					; 00000800H
	push	0
	push	0
	push	OFFSET ??_C@_0BE@CJKEHMBF@gfx?1particles?1blood?$AA@
	call	DWORD PTR ?gRenderfuncs@@3Urender_api_s@@A+60
	add	esp, 16					; 00000010H
	mov	ecx, DWORD PTR _this$[ebp]
	mov	DWORD PTR [ecx+2911260], eax

; 1015 : 	m_hSand = LOAD_TEXTURE( "gfx/particles/sandparticle", NULL, 0, TF_CLAMP );

	push	2048					; 00000800H
	push	0
	push	0
	push	OFFSET ??_C@_0BL@DNBECAEN@gfx?1particles?1sandparticle?$AA@
	call	DWORD PTR ?gRenderfuncs@@3Urender_api_s@@A+60
	add	esp, 16					; 00000010H
	mov	ecx, DWORD PTR _this$[ebp]
	mov	DWORD PTR [ecx+2911264], eax

; 1016 : 	m_hDirt = LOAD_TEXTURE( "gfx/particles/dirtparticle", NULL, 0, TF_CLAMP );

	push	2048					; 00000800H
	push	0
	push	0
	push	OFFSET ??_C@_0BL@HBCOCBNF@gfx?1particles?1dirtparticle?$AA@
	call	DWORD PTR ?gRenderfuncs@@3Urender_api_s@@A+60
	add	esp, 16					; 00000010H
	mov	ecx, DWORD PTR _this$[ebp]
	mov	DWORD PTR [ecx+2911268], eax

; 1017 : 	m_hDustMote = LOAD_TEXTURE( "gfx/particles/dustmote", NULL, 0, TF_CLAMP );

	push	2048					; 00000800H
	push	0
	push	0
	push	OFFSET ??_C@_0BH@LEHKLNJL@gfx?1particles?1dustmote?$AA@
	call	DWORD PTR ?gRenderfuncs@@3Urender_api_s@@A+60
	add	esp, 16					; 00000010H
	mov	ecx, DWORD PTR _this$[ebp]
	mov	DWORD PTR [ecx+2911272], eax

; 1018 : 	m_hExplosion = LOAD_TEXTURE( "gfx/particles/explosion", NULL, 0, TF_CLAMP );

	push	2048					; 00000800H
	push	0
	push	0
	push	OFFSET ??_C@_0BI@BPBIPOGH@gfx?1particles?1explosion?$AA@
	call	DWORD PTR ?gRenderfuncs@@3Urender_api_s@@A+60
	add	esp, 16					; 00000010H
	mov	ecx, DWORD PTR _this$[ebp]
	mov	DWORD PTR [ecx+2911276], eax

; 1019 : 
; 1020 : 	ParsePartInfos( "data/particles.txt" );

	push	OFFSET ??_C@_0BD@FMKPEBGE@data?1particles?4txt?$AA@
	mov	ecx, DWORD PTR _this$[ebp]
	call	?ParsePartInfos@CQuakePartSystem@@QAEXPBD@Z ; CQuakePartSystem::ParsePartInfos

; 1021 : 
; 1022 : 	ParticleArray_Default.Clear();

	mov	ecx, OFFSET ?ParticleArray_Default@@3V?$MemBlock@VCQuakePart@@@@A ; ParticleArray_Default
	call	?Clear@?$MemBlock@VCQuakePart@@@@QAEXXZ	; MemBlock<CQuakePart>::Clear

; 1023 : 	ParticleArray_Dustmote.Clear();

	mov	ecx, OFFSET ?ParticleArray_Dustmote@@3V?$MemBlock@VCQuakePart@@@@A ; ParticleArray_Dustmote
	call	?Clear@?$MemBlock@VCQuakePart@@@@QAEXXZ	; MemBlock<CQuakePart>::Clear

; 1024 : 	ParticleArray_Sparks.Clear();

	mov	ecx, OFFSET ?ParticleArray_Sparks@@3V?$MemBlock@VCQuakePart@@@@A ; ParticleArray_Sparks
	call	?Clear@?$MemBlock@VCQuakePart@@@@QAEXXZ	; MemBlock<CQuakePart>::Clear

; 1025 : 	ParticleArray_Smoke.Clear();

	mov	ecx, OFFSET ?ParticleArray_Smoke@@3V?$MemBlock@VCQuakePart@@@@A ; ParticleArray_Smoke
	call	?Clear@?$MemBlock@VCQuakePart@@@@QAEXXZ	; MemBlock<CQuakePart>::Clear

; 1026 : 	ParticleArray_Smoke_NotInWater.Clear();

	mov	ecx, OFFSET ?ParticleArray_Smoke_NotInWater@@3V?$MemBlock@VCQuakePart@@@@A ; ParticleArray_Smoke_NotInWater
	call	?Clear@?$MemBlock@VCQuakePart@@@@QAEXXZ	; MemBlock<CQuakePart>::Clear

; 1027 : 	ParticleArray_Watersplash.Clear();

	mov	ecx, OFFSET ?ParticleArray_Watersplash@@3V?$MemBlock@VCQuakePart@@@@A ; ParticleArray_Watersplash
	call	?Clear@?$MemBlock@VCQuakePart@@@@QAEXXZ	; MemBlock<CQuakePart>::Clear

; 1028 : 	ParticleArray_Sand.Clear();

	mov	ecx, OFFSET ?ParticleArray_Sand@@3V?$MemBlock@VCQuakePart@@@@A ; ParticleArray_Sand
	call	?Clear@?$MemBlock@VCQuakePart@@@@QAEXXZ	; MemBlock<CQuakePart>::Clear

; 1029 : 	ParticleArray_Dirt.Clear();

	mov	ecx, OFFSET ?ParticleArray_Dirt@@3V?$MemBlock@VCQuakePart@@@@A ; ParticleArray_Dirt
	call	?Clear@?$MemBlock@VCQuakePart@@@@QAEXXZ	; MemBlock<CQuakePart>::Clear

; 1030 : 	ParticleArray_Fireball.Clear();

	mov	ecx, OFFSET ?ParticleArray_Fireball@@3V?$MemBlock@VCQuakePart@@@@A ; ParticleArray_Fireball
	call	?Clear@?$MemBlock@VCQuakePart@@@@QAEXXZ	; MemBlock<CQuakePart>::Clear

; 1031 : 	ParticleArray_Blood.Clear();

	mov	ecx, OFFSET ?ParticleArray_Blood@@3V?$MemBlock@VCQuakePart@@@@A ; ParticleArray_Blood
	call	?Clear@?$MemBlock@VCQuakePart@@@@QAEXXZ	; MemBlock<CQuakePart>::Clear

; 1032 : 
; 1033 : 	partcounter = 0;

	mov	DWORD PTR ?partcounter@@3HA, 0		; partcounter

; 1034 : 
; 1035 : 	memset( ParticleCountPerEnt, 0, sizeof( ParticleCountPerEnt ) );

	push	32768					; 00008000H
	push	0
	mov	eax, DWORD PTR _this$[ebp]
	add	eax, 2911284				; 002c6c34H
	push	eax
	call	_memset
	add	esp, 12					; 0000000cH

; 1036 : 
; 1037 : //	ExplosionOrg = g_vecZero;
; 1038 : }

	pop	edi
	pop	esi
	pop	ebx
	mov	esp, ebp
	pop	ebp
	ret	0
?Clear@CQuakePartSystem@@QAEXXZ ENDP			; CQuakePartSystem::Clear
_TEXT	ENDS
; Function compile flags: /Odtp /ZI
; File d:\!diffusion 2020\source code 2022\client-server\client\render\r_quakeparticle.cpp
;	COMDAT ??1CQuakePartSystem@@UAE@XZ
_TEXT	SEGMENT
_this$ = -4						; size = 4
??1CQuakePartSystem@@UAE@XZ PROC			; CQuakePartSystem::~CQuakePartSystem, COMDAT
; _this$ = ecx

; 993  : {

	push	ebp
	mov	ebp, esp
	sub	esp, 68					; 00000044H
	push	ebx
	push	esi
	push	edi
	mov	DWORD PTR _this$[ebp], ecx
	mov	eax, DWORD PTR _this$[ebp]
	mov	DWORD PTR [eax], OFFSET ??_7CQuakePartSystem@@6B@

; 994  : 
; 995  : }

	pop	edi
	pop	esi
	pop	ebx
	mov	esp, ebp
	pop	ebp
	ret	0
??1CQuakePartSystem@@UAE@XZ ENDP			; CQuakePartSystem::~CQuakePartSystem
_TEXT	ENDS
; Function compile flags: /Odtp /ZI
; File d:\!diffusion 2020\source code 2022\client-server\client\render\r_quakeparticle.cpp
; File d:\!diffusion 2020\source code 2022\client-server\client\render\r_quakeparticle.h
; File d:\!diffusion 2020\source code 2022\client-server\client\render\r_quakeparticle.cpp
;	COMDAT ??0CQuakePartSystem@@QAE@XZ
_TEXT	SEGMENT
_this$ = -4						; size = 4
??0CQuakePartSystem@@QAE@XZ PROC			; CQuakePartSystem::CQuakePartSystem, COMDAT
; _this$ = ecx

; 967  : {

	push	ebp
	mov	ebp, esp
	sub	esp, 68					; 00000044H
	push	ebx
	push	esi
	push	edi
	mov	DWORD PTR _this$[ebp], ecx
	mov	eax, DWORD PTR _this$[ebp]
	mov	DWORD PTR [eax], OFFSET ??_7CQuakePartSystem@@6B@
; File d:\!diffusion 2020\source code 2022\client-server\client\render\r_quakeparticle.h

; 139  : 	CQuakePart	*m_pFreeParticles;

	push	OFFSET ??0CQuakePart@@QAE@XZ
	push	16384					; 00004000H
	push	172					; 000000acH
	mov	eax, DWORD PTR _this$[ebp]
	add	eax, 8
	push	eax
	call	??_H@YGXPAXIIP6EPAX0@Z@Z
	push	OFFSET ??0CQuakePartInfo@@QAE@XZ
	push	256					; 00000100H
	push	364					; 0000016cH
	mov	eax, DWORD PTR _this$[ebp]
	add	eax, 2818056				; 002b0008H
	push	eax
	call	??_H@YGXPAXIIP6EPAX0@Z@Z
; File d:\!diffusion 2020\source code 2022\client-server\client\render\r_quakeparticle.cpp

; 968  : 	memset( m_pParticles, 0, sizeof( CQuakePart ) * MAX_PARTICLES );

	push	2818048					; 002b0000H
	push	0
	mov	eax, DWORD PTR _this$[ebp]
	add	eax, 8
	push	eax
	call	_memset
	add	esp, 12					; 0000000cH

; 969  : 	memset( tr.ParticleTime, 0, sizeof( tr.ParticleTime ) );

	push	32768					; 00008000H
	push	0
	push	OFFSET ?tr@@3Uref_globals_t@@A+7491044
	call	_memset
	add	esp, 12					; 0000000cH

; 970  : 
; 971  : 	m_pFreeParticles = m_pParticles;

	mov	eax, DWORD PTR _this$[ebp]
	add	eax, 8
	mov	ecx, DWORD PTR _this$[ebp]
	mov	DWORD PTR [ecx+4], eax

; 972  : 	m_pActiveParticles = NULL;

	mov	eax, DWORD PTR _this$[ebp]
	mov	DWORD PTR [eax+2911280], 0

; 973  : 
; 974  : 	ParticleArray_Default.Clear();

	mov	ecx, OFFSET ?ParticleArray_Default@@3V?$MemBlock@VCQuakePart@@@@A ; ParticleArray_Default
	call	?Clear@?$MemBlock@VCQuakePart@@@@QAEXXZ	; MemBlock<CQuakePart>::Clear

; 975  : 	ParticleArray_Dustmote.Clear();

	mov	ecx, OFFSET ?ParticleArray_Dustmote@@3V?$MemBlock@VCQuakePart@@@@A ; ParticleArray_Dustmote
	call	?Clear@?$MemBlock@VCQuakePart@@@@QAEXXZ	; MemBlock<CQuakePart>::Clear

; 976  : 	ParticleArray_Sparks.Clear();

	mov	ecx, OFFSET ?ParticleArray_Sparks@@3V?$MemBlock@VCQuakePart@@@@A ; ParticleArray_Sparks
	call	?Clear@?$MemBlock@VCQuakePart@@@@QAEXXZ	; MemBlock<CQuakePart>::Clear

; 977  : 	ParticleArray_Smoke.Clear();

	mov	ecx, OFFSET ?ParticleArray_Smoke@@3V?$MemBlock@VCQuakePart@@@@A ; ParticleArray_Smoke
	call	?Clear@?$MemBlock@VCQuakePart@@@@QAEXXZ	; MemBlock<CQuakePart>::Clear

; 978  : 	ParticleArray_Smoke_NotInWater.Clear();

	mov	ecx, OFFSET ?ParticleArray_Smoke_NotInWater@@3V?$MemBlock@VCQuakePart@@@@A ; ParticleArray_Smoke_NotInWater
	call	?Clear@?$MemBlock@VCQuakePart@@@@QAEXXZ	; MemBlock<CQuakePart>::Clear

; 979  : 	ParticleArray_Watersplash.Clear();

	mov	ecx, OFFSET ?ParticleArray_Watersplash@@3V?$MemBlock@VCQuakePart@@@@A ; ParticleArray_Watersplash
	call	?Clear@?$MemBlock@VCQuakePart@@@@QAEXXZ	; MemBlock<CQuakePart>::Clear

; 980  : 	ParticleArray_Sand.Clear();

	mov	ecx, OFFSET ?ParticleArray_Sand@@3V?$MemBlock@VCQuakePart@@@@A ; ParticleArray_Sand
	call	?Clear@?$MemBlock@VCQuakePart@@@@QAEXXZ	; MemBlock<CQuakePart>::Clear

; 981  : 	ParticleArray_Dirt.Clear();

	mov	ecx, OFFSET ?ParticleArray_Dirt@@3V?$MemBlock@VCQuakePart@@@@A ; ParticleArray_Dirt
	call	?Clear@?$MemBlock@VCQuakePart@@@@QAEXXZ	; MemBlock<CQuakePart>::Clear

; 982  : 	ParticleArray_Fireball.Clear();

	mov	ecx, OFFSET ?ParticleArray_Fireball@@3V?$MemBlock@VCQuakePart@@@@A ; ParticleArray_Fireball
	call	?Clear@?$MemBlock@VCQuakePart@@@@QAEXXZ	; MemBlock<CQuakePart>::Clear

; 983  : 	ParticleArray_Blood.Clear();

	mov	ecx, OFFSET ?ParticleArray_Blood@@3V?$MemBlock@VCQuakePart@@@@A ; ParticleArray_Blood
	call	?Clear@?$MemBlock@VCQuakePart@@@@QAEXXZ	; MemBlock<CQuakePart>::Clear

; 984  : 
; 985  : 	partcounter = 0;

	mov	DWORD PTR ?partcounter@@3HA, 0		; partcounter

; 986  : 
; 987  : 	memset( ParticleCountPerEnt, 0, sizeof( ParticleCountPerEnt ) );

	push	32768					; 00008000H
	push	0
	mov	eax, DWORD PTR _this$[ebp]
	add	eax, 2911284				; 002c6c34H
	push	eax
	call	_memset
	add	esp, 12					; 0000000cH

; 988  : 
; 989  : //	ExplosionOrg = g_vecZero;
; 990  : }

	mov	eax, DWORD PTR _this$[ebp]
	pop	edi
	pop	esi
	pop	ebx
	mov	esp, ebp
	pop	ebp
	ret	0
??0CQuakePartSystem@@QAE@XZ ENDP			; CQuakePartSystem::CQuakePartSystem
_TEXT	ENDS
; Function compile flags: /Odtp /ZI
;	COMDAT ??0CQuakePartInfo@@QAE@XZ
_TEXT	SEGMENT
_this$ = -4						; size = 4
??0CQuakePartInfo@@QAE@XZ PROC				; CQuakePartInfo::CQuakePartInfo, COMDAT
; _this$ = ecx
	push	ebp
	mov	ebp, esp
	sub	esp, 68					; 00000044H
	push	ebx
	push	esi
	push	edi
	mov	DWORD PTR _this$[ebp], ecx
	push	OFFSET ??0RandomRange@@QAE@XZ		; RandomRange::RandomRange
	push	3
	push	12					; 0000000cH
	mov	eax, DWORD PTR _this$[ebp]
	add	eax, 40					; 00000028H
	push	eax
	call	??_H@YGXPAXIIP6EPAX0@Z@Z
	push	OFFSET ??0RandomRange@@QAE@XZ		; RandomRange::RandomRange
	push	3
	push	12					; 0000000cH
	mov	eax, DWORD PTR _this$[ebp]
	add	eax, 76					; 0000004cH
	push	eax
	call	??_H@YGXPAXIIP6EPAX0@Z@Z
	push	OFFSET ??0RandomRange@@QAE@XZ		; RandomRange::RandomRange
	push	3
	push	12					; 0000000cH
	mov	eax, DWORD PTR _this$[ebp]
	add	eax, 112				; 00000070H
	push	eax
	call	??_H@YGXPAXIIP6EPAX0@Z@Z
	push	OFFSET ??0RandomRange@@QAE@XZ		; RandomRange::RandomRange
	push	3
	push	12					; 0000000cH
	mov	eax, DWORD PTR _this$[ebp]
	add	eax, 148				; 00000094H
	push	eax
	call	??_H@YGXPAXIIP6EPAX0@Z@Z
	push	OFFSET ??0RandomRange@@QAE@XZ		; RandomRange::RandomRange
	push	3
	push	12					; 0000000cH
	mov	eax, DWORD PTR _this$[ebp]
	add	eax, 184				; 000000b8H
	push	eax
	call	??_H@YGXPAXIIP6EPAX0@Z@Z
	mov	ecx, DWORD PTR _this$[ebp]
	add	ecx, 220				; 000000dcH
	call	??0RandomRange@@QAE@XZ			; RandomRange::RandomRange
	mov	ecx, DWORD PTR _this$[ebp]
	add	ecx, 232				; 000000e8H
	call	??0RandomRange@@QAE@XZ			; RandomRange::RandomRange
	mov	ecx, DWORD PTR _this$[ebp]
	add	ecx, 244				; 000000f4H
	call	??0RandomRange@@QAE@XZ			; RandomRange::RandomRange
	mov	ecx, DWORD PTR _this$[ebp]
	add	ecx, 256				; 00000100H
	call	??0RandomRange@@QAE@XZ			; RandomRange::RandomRange
	mov	ecx, DWORD PTR _this$[ebp]
	add	ecx, 268				; 0000010cH
	call	??0RandomRange@@QAE@XZ			; RandomRange::RandomRange
	mov	ecx, DWORD PTR _this$[ebp]
	add	ecx, 280				; 00000118H
	call	??0RandomRange@@QAE@XZ			; RandomRange::RandomRange
	mov	ecx, DWORD PTR _this$[ebp]
	add	ecx, 292				; 00000124H
	call	??0RandomRange@@QAE@XZ			; RandomRange::RandomRange
	mov	ecx, DWORD PTR _this$[ebp]
	add	ecx, 304				; 00000130H
	call	??0RandomRange@@QAE@XZ			; RandomRange::RandomRange
	mov	ecx, DWORD PTR _this$[ebp]
	add	ecx, 316				; 0000013cH
	call	??0RandomRange@@QAE@XZ			; RandomRange::RandomRange
	mov	ecx, DWORD PTR _this$[ebp]
	add	ecx, 328				; 00000148H
	call	??0RandomRange@@QAE@XZ			; RandomRange::RandomRange
	mov	ecx, DWORD PTR _this$[ebp]
	add	ecx, 340				; 00000154H
	call	??0RandomRange@@QAE@XZ			; RandomRange::RandomRange
	mov	eax, DWORD PTR _this$[ebp]
	pop	edi
	pop	esi
	pop	ebx
	mov	esp, ebp
	pop	ebp
	ret	0
??0CQuakePartInfo@@QAE@XZ ENDP				; CQuakePartInfo::CQuakePartInfo
_TEXT	ENDS
; Function compile flags: /Odtp /ZI
;	COMDAT ??0CQuakePart@@QAE@XZ
_TEXT	SEGMENT
_this$ = -4						; size = 4
??0CQuakePart@@QAE@XZ PROC				; CQuakePart::CQuakePart, COMDAT
; _this$ = ecx
	push	ebp
	mov	ebp, esp
	sub	esp, 68					; 00000044H
	push	ebx
	push	esi
	push	edi
	mov	DWORD PTR _this$[ebp], ecx
	mov	ecx, DWORD PTR _this$[ebp]
	call	??0Vector@@QAE@XZ			; Vector::Vector
	mov	ecx, DWORD PTR _this$[ebp]
	add	ecx, 12					; 0000000cH
	call	??0Vector@@QAE@XZ			; Vector::Vector
	mov	ecx, DWORD PTR _this$[ebp]
	add	ecx, 24					; 00000018H
	call	??0Vector@@QAE@XZ			; Vector::Vector
	mov	ecx, DWORD PTR _this$[ebp]
	add	ecx, 36					; 00000024H
	call	??0Vector@@QAE@XZ			; Vector::Vector
	mov	ecx, DWORD PTR _this$[ebp]
	add	ecx, 48					; 00000030H
	call	??0Vector@@QAE@XZ			; Vector::Vector
	mov	ecx, DWORD PTR _this$[ebp]
	add	ecx, 60					; 0000003cH
	call	??0Vector@@QAE@XZ			; Vector::Vector
	mov	ecx, DWORD PTR _this$[ebp]
	add	ecx, 116				; 00000074H
	call	??0Vector@@QAE@XZ			; Vector::Vector
	mov	ecx, DWORD PTR _this$[ebp]
	add	ecx, 156				; 0000009cH
	call	??0Vector@@QAE@XZ			; Vector::Vector
	mov	eax, DWORD PTR _this$[ebp]
	pop	edi
	pop	esi
	pop	ebx
	mov	esp, ebp
	pop	ebp
	ret	0
??0CQuakePart@@QAE@XZ ENDP				; CQuakePart::CQuakePart
_TEXT	ENDS
; Function compile flags: /Odtp /ZI
; File d:\!diffusion 2020\source code 2022\client-server\client\render\r_quakeparticle.cpp
;	COMDAT ?Evaluate@CQuakePart@@QAE_NM@Z
_TEXT	SEGMENT
tv572 = -960						; size = 4
tv208 = -960						; size = 8
tv1753 = -956						; size = 8
tv690 = -956						; size = 4
tv686 = -956						; size = 4
tv682 = -956						; size = 4
tv571 = -956						; size = 4
tv496 = -956						; size = 4
tv221 = -956						; size = 4
tv190 = -956						; size = 4
tv178 = -956						; size = 4
tv166 = -956						; size = 4
tv1523 = -952						; size = 4
tv1229 = -952						; size = 4
tv689 = -952						; size = 4
tv685 = -952						; size = 4
tv681 = -952						; size = 4
tv568 = -952						; size = 4
tv495 = -952						; size = 4
tv369 = -952						; size = 4
tv219 = -952						; size = 4
tv206 = -952						; size = 4
tv189 = -952						; size = 4
tv177 = -952						; size = 4
tv165 = -952						; size = 4
$T1 = -948						; size = 12
$T2 = -936						; size = 12
$T3 = -924						; size = 12
$T4 = -912						; size = 12
$T5 = -900						; size = 12
$T6 = -888						; size = 12
$T7 = -876						; size = 12
$T8 = -864						; size = 12
$T9 = -852						; size = 12
$T10 = -840						; size = 12
$T11 = -828						; size = 12
$T12 = -816						; size = 12
$T13 = -804						; size = 12
$T14 = -792						; size = 12
$T15 = -780						; size = 12
$T16 = -768						; size = 12
$T17 = -756						; size = 12
$T18 = -744						; size = 12
$T19 = -732						; size = 12
$T20 = -720						; size = 12
$T21 = -708						; size = 12
$T22 = -696						; size = 12
$T23 = -684						; size = 12
$T24 = -672						; size = 12
$T25 = -660						; size = 12
$T26 = -648						; size = 12
$T27 = -636						; size = 12
$T28 = -624						; size = 12
$T29 = -612						; size = 12
$T30 = -600						; size = 12
$T31 = -588						; size = 12
$T32 = -576						; size = 12
$T33 = -564						; size = 12
$T34 = -552						; size = 12
$T35 = -540						; size = 12
$T36 = -528						; size = 12
$T37 = -516						; size = 12
$T38 = -504						; size = 12
_i$39 = -364						; size = 4
_Up$ = -360						; size = 12
_Right$ = -348						; size = 12
_Forward$ = -336					; size = 12
_ViewVec$ = -324					; size = 12
_absmax$ = -312						; size = 12
_absmin$ = -300						; size = 12
_verts$ = -288						; size = 48
_axis$ = -240						; size = 36
_scale$40 = -204					; size = 4
_f$41 = -200						; size = 4
_light$42 = -196					; size = 12
_dot$43 = -184						; size = 4
_d$44 = -180						; size = 4
_pmtrace$45 = -176					; size = 68
_contents$ = -108					; size = 4
_curColor$ = -104					; size = 12
_DistanceToParticle$46 = -92				; size = 4
_ent$47 = -88						; size = 4
_i$48 = -84						; size = 4
_curRotation$ = -80					; size = 4
_curLength$ = -76					; size = 4
_curRadius$ = -72					; size = 4
_curAlpha$ = -68					; size = 4
_time2$ = -64						; size = 4
_time$ = -60						; size = 4
_vel$ = -56						; size = 12
_org3$ = -44						; size = 12
_org2$ = -32						; size = 12
_org$ = -20						; size = 12
_this$ = -8						; size = 4
__$ArrayPad$ = -4					; size = 4
_gravity$ = 8						; size = 4
?Evaluate@CQuakePart@@QAE_NM@Z PROC			; CQuakePart::Evaluate, COMDAT
; _this$ = ecx

; 556  : {

	push	ebp
	mov	ebp, esp
	sub	esp, 960				; 000003c0H
	mov	eax, DWORD PTR ___security_cookie
	xor	eax, ebp
	mov	DWORD PTR __$ArrayPad$[ebp], eax
	push	ebx
	push	esi
	push	edi
	mov	DWORD PTR _this$[ebp], ecx

; 557  : 	if( FBitSet( m_iFlags, FPART_SKYBOX ) && !(RI->params & RP_SKYPORTALVIEW) )

	mov	eax, DWORD PTR _this$[ebp]
	mov	ecx, DWORD PTR [eax+152]
	and	ecx, 1024				; 00000400H
	je	SHORT $LN12@Evaluate
	mov	eax, DWORD PTR ?RI@@3PAUref_instance_t@@A ; RI
	mov	ecx, DWORD PTR [eax]
	and	ecx, 32					; 00000020H
	jne	SHORT $LN12@Evaluate

; 558  : 		return true;

	mov	al, 1
	jmp	$LN1@Evaluate
	jmp	SHORT $LN14@Evaluate
$LN12@Evaluate:

; 559  : 	else if( (RI->params & RP_SKYPORTALVIEW) && !FBitSet( m_iFlags, FPART_SKYBOX ) )

	mov	eax, DWORD PTR ?RI@@3PAUref_instance_t@@A ; RI
	mov	ecx, DWORD PTR [eax]
	and	ecx, 32					; 00000020H
	je	SHORT $LN14@Evaluate
	mov	eax, DWORD PTR _this$[ebp]
	mov	ecx, DWORD PTR [eax+152]
	and	ecx, 1024				; 00000400H
	jne	SHORT $LN14@Evaluate

; 560  : 		return true;

	mov	al, 1
	jmp	$LN1@Evaluate
$LN14@Evaluate:

; 561  : 	
; 562  : 	Vector org, org2, org3, vel;

	lea	ecx, DWORD PTR _org$[ebp]
	call	??0Vector@@QAE@XZ			; Vector::Vector
	lea	ecx, DWORD PTR _org2$[ebp]
	call	??0Vector@@QAE@XZ			; Vector::Vector
	lea	ecx, DWORD PTR _org3$[ebp]
	call	??0Vector@@QAE@XZ			; Vector::Vector
	lea	ecx, DWORD PTR _vel$[ebp]
	call	??0Vector@@QAE@XZ			; Vector::Vector

; 563  : 
; 564  : 	float time = (tr.time - m_flTime);

	mov	eax, DWORD PTR _this$[ebp]
	cvtss2sd xmm0, DWORD PTR [eax+148]
	movsd	xmm1, QWORD PTR ?tr@@3Uref_globals_t@@A+8
	subsd	xmm1, xmm0
	cvtsd2ss xmm0, xmm1
	movss	DWORD PTR _time$[ebp], xmm0

; 565  : 	float time2 = time * time;

	movss	xmm0, DWORD PTR _time$[ebp]
	mulss	xmm0, DWORD PTR _time$[ebp]
	movss	DWORD PTR _time2$[ebp], xmm0

; 566  : 
; 567  : 	float curAlpha;
; 568  : 	float curRadius = m_flRadius + m_flRadiusVelocity * time;

	mov	eax, DWORD PTR _this$[ebp]
	movss	xmm0, DWORD PTR [eax+84]
	mulss	xmm0, DWORD PTR _time$[ebp]
	mov	ecx, DWORD PTR _this$[ebp]
	addss	xmm0, DWORD PTR [ecx+80]
	movss	DWORD PTR _curRadius$[ebp], xmm0

; 569  : 	float curLength = m_flLength + m_flLengthVelocity * time;

	mov	eax, DWORD PTR _this$[ebp]
	movss	xmm0, DWORD PTR [eax+92]
	mulss	xmm0, DWORD PTR _time$[ebp]
	mov	ecx, DWORD PTR _this$[ebp]
	addss	xmm0, DWORD PTR [ecx+88]
	movss	DWORD PTR _curLength$[ebp], xmm0

; 570  : 	float curRotation = m_flRotation + m_flRotationVelocity * time;

	mov	eax, DWORD PTR _this$[ebp]
	movss	xmm0, DWORD PTR [eax+100]
	mulss	xmm0, DWORD PTR _time$[ebp]
	mov	ecx, DWORD PTR _this$[ebp]
	addss	xmm0, DWORD PTR [ecx+96]
	movss	DWORD PTR _curRotation$[ebp], xmm0

; 571  : 
; 572  : 	if( ParticleType == TYPE_DUSTMOTE )

	mov	eax, DWORD PTR _this$[ebp]
	cmp	DWORD PTR [eax+144], 1
	jne	$LN3@Evaluate

; 573  : 	{
; 574  : 		// add velocity for nearby dustmotes
; 575  : 		for( int i = 1; i <= tr.viewparams.maxclients; i++ )

	mov	DWORD PTR _i$48[ebp], 1
	jmp	SHORT $LN4@Evaluate
$LN2@Evaluate:
	mov	eax, DWORD PTR _i$48[ebp]
	add	eax, 1
	mov	DWORD PTR _i$48[ebp], eax
$LN4@Evaluate:
	mov	eax, DWORD PTR _i$48[ebp]
	cmp	eax, DWORD PTR ?tr@@3Uref_globals_t@@A+5830828
	jg	$LN3@Evaluate

; 576  : 		{
; 577  : 			// find the closest guy to this dustmote
; 578  : 			cl_entity_t *ent = GET_ENTITY( i );

	mov	eax, DWORD PTR _i$48[ebp]
	push	eax
	call	DWORD PTR ?gEngfuncs@@3Ucl_enginefuncs_s@@A+212
	add	esp, 4
	mov	DWORD PTR _ent$47[ebp], eax

; 579  : 			if( !ent )

	cmp	DWORD PTR _ent$47[ebp], 0
	jne	SHORT $LN16@Evaluate

; 580  : 				continue;

	jmp	SHORT $LN2@Evaluate
$LN16@Evaluate:

; 581  : 			if( (ent->curstate.origin - m_vecOrigin).Length() < 150 )

	mov	eax, DWORD PTR _this$[ebp]
	push	eax
	lea	ecx, DWORD PTR $T38[ebp]
	push	ecx
	mov	ecx, DWORD PTR _ent$47[ebp]
	add	ecx, 704				; 000002c0H
	call	??GVector@@QBE?AV0@ABV0@@Z		; Vector::operator-
	mov	ecx, eax
	call	?Length@Vector@@QBEMXZ			; Vector::Length
	fstp	DWORD PTR tv1229[ebp]
	movss	xmm0, DWORD PTR __real@43160000
	comiss	xmm0, DWORD PTR tv1229[ebp]
	jbe	$LN17@Evaluate

; 582  : 			{
; 583  : 				m_vecAddedVelocity += ent->curstate.velocity * 0.001;

	push	ecx
	movss	xmm0, DWORD PTR __real@3a83126f
	movss	DWORD PTR [esp], xmm0
	lea	eax, DWORD PTR $T37[ebp]
	push	eax
	mov	ecx, DWORD PTR _ent$47[ebp]
	add	ecx, 800				; 00000320H
	call	??DVector@@QBE?AV0@M@Z			; Vector::operator*
	push	eax
	mov	ecx, DWORD PTR _this$[ebp]
	add	ecx, 116				; 00000074H
	call	??YVector@@QAEAAV0@ABV0@@Z		; Vector::operator+=

; 584  : 				m_vecAddedVelocity.x = bound( -100, m_vecAddedVelocity.x, 100 );

	mov	eax, DWORD PTR _this$[ebp]
	movss	xmm0, DWORD PTR [eax+116]
	comiss	xmm0, DWORD PTR __real@c2c80000
	jb	SHORT $LN68@Evaluate
	mov	ecx, DWORD PTR _this$[ebp]
	movss	xmm0, DWORD PTR __real@42c80000
	comiss	xmm0, DWORD PTR [ecx+116]
	jbe	SHORT $LN66@Evaluate
	mov	edx, DWORD PTR _this$[ebp]
	movss	xmm0, DWORD PTR [edx+116]
	movss	DWORD PTR tv165[ebp], xmm0
	jmp	SHORT $LN67@Evaluate
$LN66@Evaluate:
	movss	xmm0, DWORD PTR __real@42c80000
	movss	DWORD PTR tv165[ebp], xmm0
$LN67@Evaluate:
	movss	xmm0, DWORD PTR tv165[ebp]
	movss	DWORD PTR tv166[ebp], xmm0
	jmp	SHORT $LN69@Evaluate
$LN68@Evaluate:
	movss	xmm0, DWORD PTR __real@c2c80000
	movss	DWORD PTR tv166[ebp], xmm0
$LN69@Evaluate:
	mov	eax, DWORD PTR _this$[ebp]
	movss	xmm0, DWORD PTR tv166[ebp]
	movss	DWORD PTR [eax+116], xmm0

; 585  : 				m_vecAddedVelocity.y = bound( -100, m_vecAddedVelocity.y, 100 );

	mov	eax, DWORD PTR _this$[ebp]
	movss	xmm0, DWORD PTR [eax+120]
	comiss	xmm0, DWORD PTR __real@c2c80000
	jb	SHORT $LN72@Evaluate
	mov	ecx, DWORD PTR _this$[ebp]
	movss	xmm0, DWORD PTR __real@42c80000
	comiss	xmm0, DWORD PTR [ecx+120]
	jbe	SHORT $LN70@Evaluate
	mov	edx, DWORD PTR _this$[ebp]
	movss	xmm0, DWORD PTR [edx+120]
	movss	DWORD PTR tv177[ebp], xmm0
	jmp	SHORT $LN71@Evaluate
$LN70@Evaluate:
	movss	xmm0, DWORD PTR __real@42c80000
	movss	DWORD PTR tv177[ebp], xmm0
$LN71@Evaluate:
	movss	xmm0, DWORD PTR tv177[ebp]
	movss	DWORD PTR tv178[ebp], xmm0
	jmp	SHORT $LN73@Evaluate
$LN72@Evaluate:
	movss	xmm0, DWORD PTR __real@c2c80000
	movss	DWORD PTR tv178[ebp], xmm0
$LN73@Evaluate:
	mov	eax, DWORD PTR _this$[ebp]
	movss	xmm0, DWORD PTR tv178[ebp]
	movss	DWORD PTR [eax+120], xmm0

; 586  : 				m_vecAddedVelocity.z = bound( -100, m_vecAddedVelocity.z, 100 );

	mov	eax, DWORD PTR _this$[ebp]
	movss	xmm0, DWORD PTR [eax+124]
	comiss	xmm0, DWORD PTR __real@c2c80000
	jb	SHORT $LN76@Evaluate
	mov	ecx, DWORD PTR _this$[ebp]
	movss	xmm0, DWORD PTR __real@42c80000
	comiss	xmm0, DWORD PTR [ecx+124]
	jbe	SHORT $LN74@Evaluate
	mov	edx, DWORD PTR _this$[ebp]
	movss	xmm0, DWORD PTR [edx+124]
	movss	DWORD PTR tv189[ebp], xmm0
	jmp	SHORT $LN75@Evaluate
$LN74@Evaluate:
	movss	xmm0, DWORD PTR __real@42c80000
	movss	DWORD PTR tv189[ebp], xmm0
$LN75@Evaluate:
	movss	xmm0, DWORD PTR tv189[ebp]
	movss	DWORD PTR tv190[ebp], xmm0
	jmp	SHORT $LN77@Evaluate
$LN76@Evaluate:
	movss	xmm0, DWORD PTR __real@c2c80000
	movss	DWORD PTR tv190[ebp], xmm0
$LN77@Evaluate:
	mov	eax, DWORD PTR _this$[ebp]
	movss	xmm0, DWORD PTR tv190[ebp]
	movss	DWORD PTR [eax+124], xmm0

; 587  : 				break;

	jmp	SHORT $LN3@Evaluate
$LN17@Evaluate:

; 588  : 			}
; 589  : 		}

	jmp	$LN2@Evaluate
$LN3@Evaluate:

; 590  : 	}
; 591  : 
; 592  : 	if( (m_iFlags & FPART_DISTANCESCALE) && (m_flRadiusVelocity == 0.0f) )

	mov	eax, DWORD PTR _this$[ebp]
	mov	ecx, DWORD PTR [eax+152]
	and	ecx, 512				; 00000200H
	je	$LN18@Evaluate
	mov	eax, DWORD PTR _this$[ebp]
	movss	xmm0, DWORD PTR [eax+84]
	ucomiss	xmm0, DWORD PTR __real@00000000
	lahf
	test	ah, 68					; 00000044H
	jp	$LN18@Evaluate

; 593  : 	{
; 594  : 		float DistanceToParticle = (tr.viewparams.vieworg - m_vecOrigin).Length();

	mov	eax, DWORD PTR _this$[ebp]
	push	eax
	lea	ecx, DWORD PTR $T36[ebp]
	push	ecx
	mov	ecx, OFFSET ?tr@@3Uref_globals_t@@A+5830656
	call	??GVector@@QBE?AV0@ABV0@@Z		; Vector::operator-
	mov	ecx, eax
	call	?Length@Vector@@QBEMXZ			; Vector::Length
	fstp	DWORD PTR _DistanceToParticle$46[ebp]

; 595  : 		DistanceToParticle = bound( 0.1, DistanceToParticle, 1000 ) / 1000;

	cvtss2sd xmm0, DWORD PTR _DistanceToParticle$46[ebp]
	comisd	xmm0, QWORD PTR __real@3fb999999999999a
	jb	SHORT $LN80@Evaluate
	movss	xmm0, DWORD PTR __real@447a0000
	comiss	xmm0, DWORD PTR _DistanceToParticle$46[ebp]
	jbe	SHORT $LN78@Evaluate
	movss	xmm0, DWORD PTR _DistanceToParticle$46[ebp]
	movss	DWORD PTR tv206[ebp], xmm0
	jmp	SHORT $LN79@Evaluate
$LN78@Evaluate:
	movss	xmm0, DWORD PTR __real@447a0000
	movss	DWORD PTR tv206[ebp], xmm0
$LN79@Evaluate:
	cvtss2sd xmm0, DWORD PTR tv206[ebp]
	movsd	QWORD PTR tv208[ebp], xmm0
	jmp	SHORT $LN81@Evaluate
$LN80@Evaluate:
	movsd	xmm0, QWORD PTR __real@3fb999999999999a
	movsd	QWORD PTR tv208[ebp], xmm0
$LN81@Evaluate:
	movsd	xmm0, QWORD PTR tv208[ebp]
	divsd	xmm0, QWORD PTR __real@408f400000000000
	cvtsd2ss xmm0, xmm0
	movss	DWORD PTR _DistanceToParticle$46[ebp], xmm0

; 596  : 		curRadius = m_flRadius * DistanceToParticle * 10;

	mov	eax, DWORD PTR _this$[ebp]
	movss	xmm0, DWORD PTR [eax+80]
	mulss	xmm0, DWORD PTR _DistanceToParticle$46[ebp]
	mulss	xmm0, DWORD PTR __real@41200000
	movss	DWORD PTR _curRadius$[ebp], xmm0

; 597  : 		curRadius = bound( m_flMinScale, curRadius, m_flMaxScale );

	mov	eax, DWORD PTR _this$[ebp]
	movss	xmm0, DWORD PTR _curRadius$[ebp]
	comiss	xmm0, DWORD PTR [eax+128]
	jb	SHORT $LN84@Evaluate
	mov	ecx, DWORD PTR _this$[ebp]
	movss	xmm0, DWORD PTR [ecx+132]
	comiss	xmm0, DWORD PTR _curRadius$[ebp]
	jbe	SHORT $LN82@Evaluate
	movss	xmm0, DWORD PTR _curRadius$[ebp]
	movss	DWORD PTR tv219[ebp], xmm0
	jmp	SHORT $LN83@Evaluate
$LN82@Evaluate:
	mov	edx, DWORD PTR _this$[ebp]
	movss	xmm0, DWORD PTR [edx+132]
	movss	DWORD PTR tv219[ebp], xmm0
$LN83@Evaluate:
	movss	xmm0, DWORD PTR tv219[ebp]
	movss	DWORD PTR tv221[ebp], xmm0
	jmp	SHORT $LN85@Evaluate
$LN84@Evaluate:
	mov	eax, DWORD PTR _this$[ebp]
	movss	xmm0, DWORD PTR [eax+128]
	movss	DWORD PTR tv221[ebp], xmm0
$LN85@Evaluate:
	movss	xmm0, DWORD PTR tv221[ebp]
	movss	DWORD PTR _curRadius$[ebp], xmm0
$LN18@Evaluate:

; 598  : 	}
; 599  : 
; 600  : 	if( FBitSet( m_iFlags, FPART_FADEIN ) )

	mov	eax, DWORD PTR _this$[ebp]
	mov	ecx, DWORD PTR [eax+152]
	and	ecx, 256				; 00000100H
	je	SHORT $LN19@Evaluate

; 601  : 	{
; 602  : 		curAlpha = m_flStartAlpha - m_flAlphaVelocity * time;

	mov	eax, DWORD PTR _this$[ebp]
	movss	xmm0, DWORD PTR [eax+76]
	mulss	xmm0, DWORD PTR _time$[ebp]
	mov	ecx, DWORD PTR _this$[ebp]
	movss	xmm1, DWORD PTR [ecx+112]
	subss	xmm1, xmm0
	movss	DWORD PTR _curAlpha$[ebp], xmm1

; 603  : 	}
; 604  : 	else

	jmp	SHORT $LN21@Evaluate
$LN19@Evaluate:

; 605  : 	{
; 606  : 		curAlpha = m_flAlpha + m_flAlphaVelocity * time;

	mov	eax, DWORD PTR _this$[ebp]
	movss	xmm0, DWORD PTR [eax+76]
	mulss	xmm0, DWORD PTR _time$[ebp]
	mov	ecx, DWORD PTR _this$[ebp]
	addss	xmm0, DWORD PTR [ecx+72]
	movss	DWORD PTR _curAlpha$[ebp], xmm0

; 607  : 
; 608  : 		if( curAlpha <= 0.0f || curRadius <= 0.0f || curLength <= 0.0f )

	xorps	xmm0, xmm0
	comiss	xmm0, DWORD PTR _curAlpha$[ebp]
	jae	SHORT $LN22@Evaluate
	xorps	xmm0, xmm0
	comiss	xmm0, DWORD PTR _curRadius$[ebp]
	jae	SHORT $LN22@Evaluate
	xorps	xmm0, xmm0
	comiss	xmm0, DWORD PTR _curLength$[ebp]
	jb	SHORT $LN21@Evaluate
$LN22@Evaluate:

; 609  : 		{
; 610  : 			// faded out
; 611  : 			return false;

	xor	al, al
	jmp	$LN1@Evaluate
$LN21@Evaluate:

; 612  : 		}
; 613  : 	}
; 614  : 
; 615  : 	Vector curColor = m_vecColor + m_vecColorVelocity * time;

	push	ecx
	movss	xmm0, DWORD PTR _time$[ebp]
	movss	DWORD PTR [esp], xmm0
	lea	eax, DWORD PTR $T35[ebp]
	push	eax
	mov	ecx, DWORD PTR _this$[ebp]
	add	ecx, 60					; 0000003cH
	call	??DVector@@QBE?AV0@M@Z			; Vector::operator*
	push	eax
	lea	ecx, DWORD PTR _curColor$[ebp]
	push	ecx
	mov	ecx, DWORD PTR _this$[ebp]
	add	ecx, 48					; 00000030H
	call	??HVector@@QBE?AV0@ABV0@@Z		; Vector::operator+

; 616  : 
; 617  : 	m_vecVelocity += m_vecAddedVelocity;

	mov	eax, DWORD PTR _this$[ebp]
	add	eax, 116				; 00000074H
	push	eax
	mov	ecx, DWORD PTR _this$[ebp]
	add	ecx, 24					; 00000018H
	call	??YVector@@QAEAAV0@ABV0@@Z		; Vector::operator+=

; 618  : 
; 619  : 	org.x = m_vecOrigin.x + m_vecVelocity.x * time + m_vecAccel.x * time2;

	mov	eax, DWORD PTR _this$[ebp]
	movss	xmm0, DWORD PTR [eax+24]
	mulss	xmm0, DWORD PTR _time$[ebp]
	mov	ecx, DWORD PTR _this$[ebp]
	addss	xmm0, DWORD PTR [ecx]
	mov	edx, DWORD PTR _this$[ebp]
	movss	xmm1, DWORD PTR [edx+36]
	mulss	xmm1, DWORD PTR _time2$[ebp]
	addss	xmm0, xmm1
	movss	DWORD PTR _org$[ebp], xmm0

; 620  : 	org.y = m_vecOrigin.y + m_vecVelocity.y * time + m_vecAccel.y * time2;

	mov	eax, DWORD PTR _this$[ebp]
	movss	xmm0, DWORD PTR [eax+28]
	mulss	xmm0, DWORD PTR _time$[ebp]
	mov	ecx, DWORD PTR _this$[ebp]
	addss	xmm0, DWORD PTR [ecx+4]
	mov	edx, DWORD PTR _this$[ebp]
	movss	xmm1, DWORD PTR [edx+40]
	mulss	xmm1, DWORD PTR _time2$[ebp]
	addss	xmm0, xmm1
	movss	DWORD PTR _org$[ebp+4], xmm0

; 621  : 	org.z = m_vecOrigin.z + m_vecVelocity.z * time + m_vecAccel.z * time2 * gravity;

	mov	eax, DWORD PTR _this$[ebp]
	movss	xmm0, DWORD PTR [eax+32]
	mulss	xmm0, DWORD PTR _time$[ebp]
	mov	ecx, DWORD PTR _this$[ebp]
	addss	xmm0, DWORD PTR [ecx+8]
	mov	edx, DWORD PTR _this$[ebp]
	movss	xmm1, DWORD PTR [edx+44]
	mulss	xmm1, DWORD PTR _time2$[ebp]
	mulss	xmm1, DWORD PTR _gravity$[ebp]
	addss	xmm0, xmm1
	movss	DWORD PTR _org$[ebp+8], xmm0

; 622  : 
; 623  : 	if( FBitSet( m_iFlags, FPART_FADEIN ) )

	mov	eax, DWORD PTR _this$[ebp]
	mov	ecx, DWORD PTR [eax+152]
	and	ecx, 256				; 00000100H
	je	$LN24@Evaluate

; 624  : 	{
; 625  : 		if( curAlpha >= m_flAlpha )

	mov	eax, DWORD PTR _this$[ebp]
	movss	xmm0, DWORD PTR _curAlpha$[ebp]
	comiss	xmm0, DWORD PTR [eax+72]
	jb	$LN24@Evaluate

; 626  : 		{
; 627  : 			m_vecOrigin.x = m_vecOrigin.x + m_vecVelocity.x * time + m_vecAccel.x * time2;

	mov	eax, DWORD PTR _this$[ebp]
	movss	xmm0, DWORD PTR [eax+24]
	mulss	xmm0, DWORD PTR _time$[ebp]
	mov	ecx, DWORD PTR _this$[ebp]
	addss	xmm0, DWORD PTR [ecx]
	mov	edx, DWORD PTR _this$[ebp]
	movss	xmm1, DWORD PTR [edx+36]
	mulss	xmm1, DWORD PTR _time2$[ebp]
	addss	xmm0, xmm1
	mov	eax, DWORD PTR _this$[ebp]
	movss	DWORD PTR [eax], xmm0

; 628  : 			m_vecOrigin.y = m_vecOrigin.y + m_vecVelocity.y * time + m_vecAccel.y * time2;

	mov	eax, DWORD PTR _this$[ebp]
	movss	xmm0, DWORD PTR [eax+28]
	mulss	xmm0, DWORD PTR _time$[ebp]
	mov	ecx, DWORD PTR _this$[ebp]
	addss	xmm0, DWORD PTR [ecx+4]
	mov	edx, DWORD PTR _this$[ebp]
	movss	xmm1, DWORD PTR [edx+40]
	mulss	xmm1, DWORD PTR _time2$[ebp]
	addss	xmm0, xmm1
	mov	eax, DWORD PTR _this$[ebp]
	movss	DWORD PTR [eax+4], xmm0

; 629  : 			m_vecOrigin.z = m_vecOrigin.z + m_vecVelocity.z * time + m_vecAccel.z * time2 * gravity;

	mov	eax, DWORD PTR _this$[ebp]
	movss	xmm0, DWORD PTR [eax+32]
	mulss	xmm0, DWORD PTR _time$[ebp]
	mov	ecx, DWORD PTR _this$[ebp]
	addss	xmm0, DWORD PTR [ecx+8]
	mov	edx, DWORD PTR _this$[ebp]
	movss	xmm1, DWORD PTR [edx+44]
	mulss	xmm1, DWORD PTR _time2$[ebp]
	mulss	xmm1, DWORD PTR _gravity$[ebp]
	addss	xmm0, xmm1
	mov	eax, DWORD PTR _this$[ebp]
	movss	DWORD PTR [eax+8], xmm0

; 630  : 			m_flRadius = m_flRadius + m_flRadiusVelocity * time;

	mov	eax, DWORD PTR _this$[ebp]
	movss	xmm0, DWORD PTR [eax+84]
	mulss	xmm0, DWORD PTR _time$[ebp]
	mov	ecx, DWORD PTR _this$[ebp]
	addss	xmm0, DWORD PTR [ecx+80]
	mov	edx, DWORD PTR _this$[ebp]
	movss	DWORD PTR [edx+80], xmm0

; 631  : 			m_flLength = m_flLength + m_flLengthVelocity * time;

	mov	eax, DWORD PTR _this$[ebp]
	movss	xmm0, DWORD PTR [eax+92]
	mulss	xmm0, DWORD PTR _time$[ebp]
	mov	ecx, DWORD PTR _this$[ebp]
	addss	xmm0, DWORD PTR [ecx+88]
	mov	edx, DWORD PTR _this$[ebp]
	movss	DWORD PTR [edx+88], xmm0

; 632  : 			m_flRotation = m_flRotation + m_flRotationVelocity * time;

	mov	eax, DWORD PTR _this$[ebp]
	movss	xmm0, DWORD PTR [eax+100]
	mulss	xmm0, DWORD PTR _time$[ebp]
	mov	ecx, DWORD PTR _this$[ebp]
	addss	xmm0, DWORD PTR [ecx+96]
	mov	edx, DWORD PTR _this$[ebp]
	movss	DWORD PTR [edx+96], xmm0

; 633  : 			ClearBits( m_iFlags, FPART_FADEIN );

	mov	eax, DWORD PTR _this$[ebp]
	mov	ecx, DWORD PTR [eax+152]
	and	ecx, -257				; fffffeffH
	mov	edx, DWORD PTR _this$[ebp]
	mov	DWORD PTR [edx+152], ecx

; 634  : 			m_flTime = tr.time;

	cvtsd2ss xmm0, QWORD PTR ?tr@@3Uref_globals_t@@A+8
	mov	eax, DWORD PTR _this$[ebp]
	movss	DWORD PTR [eax+148], xmm0
$LN24@Evaluate:

; 635  : 		}
; 636  : 	}
; 637  : 
; 638  : 	int contents = POINT_CONTENTS( org );

	push	0
	lea	ecx, DWORD PTR _org$[ebp]
	call	??BVector@@QAEPAMXZ			; Vector::operator float *
	push	eax
	call	DWORD PTR ?gEngfuncs@@3Ucl_enginefuncs_s@@A+228
	add	esp, 8
	mov	DWORD PTR _contents$[ebp], eax

; 639  : 
; 640  : 	if( FBitSet( m_iFlags, FPART_UNDERWATER ) )

	mov	eax, DWORD PTR _this$[ebp]
	mov	ecx, DWORD PTR [eax+152]
	and	ecx, 16					; 00000010H
	je	SHORT $LN25@Evaluate

; 641  : 	{
; 642  : 		// underwater particle
; 643  : 		org2 = Vector( org.x, org.y, org.z + curRadius );

	movss	xmm0, DWORD PTR _org$[ebp+8]
	addss	xmm0, DWORD PTR _curRadius$[ebp]
	push	ecx
	movss	DWORD PTR [esp], xmm0
	push	ecx
	movss	xmm0, DWORD PTR _org$[ebp+4]
	movss	DWORD PTR [esp], xmm0
	push	ecx
	movss	xmm0, DWORD PTR _org$[ebp]
	movss	DWORD PTR [esp], xmm0
	lea	ecx, DWORD PTR $T34[ebp]
	call	??0Vector@@QAE@MMM@Z			; Vector::Vector
	mov	ecx, DWORD PTR [eax]
	mov	DWORD PTR _org2$[ebp], ecx
	mov	edx, DWORD PTR [eax+4]
	mov	DWORD PTR _org2$[ebp+4], edx
	mov	eax, DWORD PTR [eax+8]
	mov	DWORD PTR _org2$[ebp+8], eax

; 644  : 
; 645  : 		if( contents != CONTENTS_WATER && contents != CONTENTS_SLIME && contents != CONTENTS_LAVA )

	cmp	DWORD PTR _contents$[ebp], -3		; fffffffdH
	je	SHORT $LN27@Evaluate
	cmp	DWORD PTR _contents$[ebp], -4		; fffffffcH
	je	SHORT $LN27@Evaluate
	cmp	DWORD PTR _contents$[ebp], -5		; fffffffbH
	je	SHORT $LN27@Evaluate

; 646  : 			return false; // not underwater

	xor	al, al
	jmp	$LN1@Evaluate
$LN27@Evaluate:

; 647  : 	}

	jmp	SHORT $LN28@Evaluate
$LN25@Evaluate:

; 648  : 	else if( FBitSet( m_iFlags, FPART_NOTWATER ) && (contents == CONTENTS_WATER) )

	mov	eax, DWORD PTR _this$[ebp]
	mov	ecx, DWORD PTR [eax+152]
	and	ecx, 128				; 00000080H
	je	SHORT $LN28@Evaluate
	cmp	DWORD PTR _contents$[ebp], -3		; fffffffdH
	jne	SHORT $LN28@Evaluate

; 649  : 		return false;

	xor	al, al
	jmp	$LN1@Evaluate
$LN28@Evaluate:

; 650  : 
; 651  : 	if( FBitSet( m_iFlags, FPART_FRICTION ) )

	mov	eax, DWORD PTR _this$[ebp]
	mov	ecx, DWORD PTR [eax+152]
	and	ecx, 2
	je	$LN30@Evaluate

; 652  : 	{
; 653  : 		// water friction affected particle
; 654  : 		if( contents <= CONTENTS_WATER && contents >= CONTENTS_LAVA )

	cmp	DWORD PTR _contents$[ebp], -3		; fffffffdH
	jg	$LN30@Evaluate
	cmp	DWORD PTR _contents$[ebp], -5		; fffffffbH
	jl	$LN30@Evaluate

; 655  : 		{
; 656  : 			// add friction		
; 657  : 			switch( contents )

	mov	eax, DWORD PTR _contents$[ebp]
	mov	DWORD PTR tv369[ebp], eax
	cmp	DWORD PTR tv369[ebp], -5		; fffffffbH
	je	SHORT $LN33@Evaluate
	cmp	DWORD PTR tv369[ebp], -4		; fffffffcH
	je	SHORT $LN32@Evaluate
	cmp	DWORD PTR tv369[ebp], -3		; fffffffdH
	je	SHORT $LN31@Evaluate
	jmp	$LN5@Evaluate
$LN31@Evaluate:

; 658  : 			{
; 659  : 			case CONTENTS_WATER:
; 660  : 				m_vecVelocity *= 0.25f;

	push	ecx
	movss	xmm0, DWORD PTR __real@3e800000
	movss	DWORD PTR [esp], xmm0
	mov	ecx, DWORD PTR _this$[ebp]
	add	ecx, 24					; 00000018H
	call	??XVector@@QAEAAV0@M@Z			; Vector::operator*=

; 661  : 				m_vecAccel *= 0.25f;

	push	ecx
	movss	xmm0, DWORD PTR __real@3e800000
	movss	DWORD PTR [esp], xmm0
	mov	ecx, DWORD PTR _this$[ebp]
	add	ecx, 36					; 00000024H
	call	??XVector@@QAEAAV0@M@Z			; Vector::operator*=

; 662  : 				break;

	jmp	SHORT $LN5@Evaluate
$LN32@Evaluate:

; 663  : 			case CONTENTS_SLIME:
; 664  : 				m_vecVelocity *= 0.20f;

	push	ecx
	movss	xmm0, DWORD PTR __real@3e4ccccd
	movss	DWORD PTR [esp], xmm0
	mov	ecx, DWORD PTR _this$[ebp]
	add	ecx, 24					; 00000018H
	call	??XVector@@QAEAAV0@M@Z			; Vector::operator*=

; 665  : 				m_vecAccel *= 0.20f;

	push	ecx
	movss	xmm0, DWORD PTR __real@3e4ccccd
	movss	DWORD PTR [esp], xmm0
	mov	ecx, DWORD PTR _this$[ebp]
	add	ecx, 36					; 00000024H
	call	??XVector@@QAEAAV0@M@Z			; Vector::operator*=

; 666  : 				break;

	jmp	SHORT $LN5@Evaluate
$LN33@Evaluate:

; 667  : 			case CONTENTS_LAVA:
; 668  : 				m_vecVelocity *= 0.10f;

	push	ecx
	movss	xmm0, DWORD PTR __real@3dcccccd
	movss	DWORD PTR [esp], xmm0
	mov	ecx, DWORD PTR _this$[ebp]
	add	ecx, 24					; 00000018H
	call	??XVector@@QAEAAV0@M@Z			; Vector::operator*=

; 669  : 				m_vecAccel *= 0.10f;

	push	ecx
	movss	xmm0, DWORD PTR __real@3dcccccd
	movss	DWORD PTR [esp], xmm0
	mov	ecx, DWORD PTR _this$[ebp]
	add	ecx, 36					; 00000024H
	call	??XVector@@QAEAAV0@M@Z			; Vector::operator*=
$LN5@Evaluate:

; 670  : 				break;
; 671  : 			}
; 672  : 
; 673  : 			// don't add friction again
; 674  : 			m_iFlags &= ~FPART_FRICTION;

	mov	eax, DWORD PTR _this$[ebp]
	mov	ecx, DWORD PTR [eax+152]
	and	ecx, -3					; fffffffdH
	mov	edx, DWORD PTR _this$[ebp]
	mov	DWORD PTR [edx+152], ecx

; 675  : 			curLength = 1.0f;

	movss	xmm0, DWORD PTR __real@3f800000
	movss	DWORD PTR _curLength$[ebp], xmm0

; 676  : 
; 677  : 			// reset
; 678  : 			m_flTime = tr.time;

	cvtsd2ss xmm0, QWORD PTR ?tr@@3Uref_globals_t@@A+8
	mov	eax, DWORD PTR _this$[ebp]
	movss	DWORD PTR [eax+148], xmm0

; 679  : 			m_vecColor = curColor;

	mov	eax, DWORD PTR _this$[ebp]
	add	eax, 48					; 00000030H
	mov	ecx, DWORD PTR _curColor$[ebp]
	mov	DWORD PTR [eax], ecx
	mov	edx, DWORD PTR _curColor$[ebp+4]
	mov	DWORD PTR [eax+4], edx
	mov	ecx, DWORD PTR _curColor$[ebp+8]
	mov	DWORD PTR [eax+8], ecx

; 680  : 			m_flAlpha = curAlpha;

	mov	eax, DWORD PTR _this$[ebp]
	movss	xmm0, DWORD PTR _curAlpha$[ebp]
	movss	DWORD PTR [eax+72], xmm0

; 681  : 			m_flRadius = curRadius;

	mov	eax, DWORD PTR _this$[ebp]
	movss	xmm0, DWORD PTR _curRadius$[ebp]
	movss	DWORD PTR [eax+80], xmm0

; 682  : 			m_vecOrigin = org;

	mov	eax, DWORD PTR _this$[ebp]
	mov	ecx, DWORD PTR _org$[ebp]
	mov	DWORD PTR [eax], ecx
	mov	edx, DWORD PTR _org$[ebp+4]
	mov	DWORD PTR [eax+4], edx
	mov	ecx, DWORD PTR _org$[ebp+8]
	mov	DWORD PTR [eax+8], ecx

; 683  : 
; 684  : 			// don't stretch
; 685  : 			m_iFlags &= ~FPART_STRETCH;

	mov	eax, DWORD PTR _this$[ebp]
	mov	ecx, DWORD PTR [eax+152]
	and	ecx, -9					; fffffff7H
	mov	edx, DWORD PTR _this$[ebp]
	mov	DWORD PTR [edx+152], ecx

; 686  : 			m_flLengthVelocity = 0.0f;

	mov	eax, DWORD PTR _this$[ebp]
	xorps	xmm0, xmm0
	movss	DWORD PTR [eax+92], xmm0

; 687  : 			m_flLength = curLength;

	mov	eax, DWORD PTR _this$[ebp]
	movss	xmm0, DWORD PTR _curLength$[ebp]
	movss	DWORD PTR [eax+88], xmm0
$LN30@Evaluate:

; 688  : 		}
; 689  : 	}
; 690  : 
; 691  : 	if( FBitSet( m_iFlags, FPART_BOUNCE ) )

	mov	eax, DWORD PTR _this$[ebp]
	mov	ecx, DWORD PTR [eax+152]
	and	ecx, 1
	je	$LN35@Evaluate

; 692  : 	{
; 693  : 		// bouncy particle
; 694  : 		pmtrace_t pmtrace;

	lea	ecx, DWORD PTR _pmtrace$45[ebp]
	call	??0pmtrace_s@@QAE@XZ

; 695  : 		gEngfuncs.pEventAPI->EV_SetTraceHull( 2 );

	push	2
	mov	eax, DWORD PTR ?gEngfuncs@@3Ucl_enginefuncs_s@@A+336
	mov	ecx, DWORD PTR [eax+56]
	call	ecx
	add	esp, 4

; 696  : 		gEngfuncs.pEventAPI->EV_PlayerTrace( m_vecLastOrg, org, PM_STUDIO_IGNORE, -1, &pmtrace );

	lea	eax, DWORD PTR _pmtrace$45[ebp]
	push	eax
	push	-1
	push	1
	lea	ecx, DWORD PTR _org$[ebp]
	call	??BVector@@QAEPAMXZ			; Vector::operator float *
	push	eax
	mov	ecx, DWORD PTR _this$[ebp]
	add	ecx, 12					; 0000000cH
	call	??BVector@@QAEPAMXZ			; Vector::operator float *
	push	eax
	mov	ecx, DWORD PTR ?gEngfuncs@@3Ucl_enginefuncs_s@@A+336
	mov	edx, DWORD PTR [ecx+60]
	call	edx
	add	esp, 20					; 00000014H

; 697  : 
; 698  : 		if( pmtrace.fraction != 1.0f )

	movss	xmm0, DWORD PTR _pmtrace$45[ebp+16]
	ucomiss	xmm0, DWORD PTR __real@3f800000
	lahf
	test	ah, 68					; 00000044H
	jnp	$LN35@Evaluate

; 699  : 		{
; 700  : 			// reflect velocity
; 701  : 			time = tr.time - (g_fFrametime + g_fFrametime * pmtrace.fraction);

	movss	xmm0, DWORD PTR ?g_fFrametime@@3MA
	mulss	xmm0, DWORD PTR _pmtrace$45[ebp+16]
	addss	xmm0, DWORD PTR ?g_fFrametime@@3MA
	cvtss2sd xmm0, xmm0
	movsd	xmm1, QWORD PTR ?tr@@3Uref_globals_t@@A+8
	subsd	xmm1, xmm0
	cvtsd2ss xmm0, xmm1
	movss	DWORD PTR _time$[ebp], xmm0

; 702  : 			time = (time - m_flTime);

	mov	eax, DWORD PTR _this$[ebp]
	movss	xmm0, DWORD PTR _time$[ebp]
	subss	xmm0, DWORD PTR [eax+148]
	movss	DWORD PTR _time$[ebp], xmm0

; 703  : 
; 704  : 			vel.x = m_vecVelocity.x;

	mov	eax, DWORD PTR _this$[ebp]
	movss	xmm0, DWORD PTR [eax+24]
	movss	DWORD PTR _vel$[ebp], xmm0

; 705  : 			vel.y = m_vecVelocity.y;

	mov	eax, DWORD PTR _this$[ebp]
	movss	xmm0, DWORD PTR [eax+28]
	movss	DWORD PTR _vel$[ebp+4], xmm0

; 706  : 			vel.z = m_vecVelocity.z + m_vecAccel.z * gravity * time;

	mov	eax, DWORD PTR _this$[ebp]
	movss	xmm0, DWORD PTR [eax+44]
	mulss	xmm0, DWORD PTR _gravity$[ebp]
	mulss	xmm0, DWORD PTR _time$[ebp]
	mov	ecx, DWORD PTR _this$[ebp]
	addss	xmm0, DWORD PTR [ecx+32]
	movss	DWORD PTR _vel$[ebp+8], xmm0

; 707  : 
; 708  : 			float d = DotProduct( vel, pmtrace.plane.normal ) * 2.0f;

	lea	eax, DWORD PTR _pmtrace$45[ebp+32]
	push	eax
	lea	ecx, DWORD PTR _vel$[ebp]
	push	ecx
	call	?DotProduct@@YAMABVVector@@0@Z		; DotProduct
	add	esp, 8
	fstp	DWORD PTR tv1523[ebp]
	movss	xmm0, DWORD PTR tv1523[ebp]
	mulss	xmm0, DWORD PTR __real@40000000
	movss	DWORD PTR _d$44[ebp], xmm0

; 709  : 			m_vecVelocity = vel - pmtrace.plane.normal * d;

	push	ecx
	movss	xmm0, DWORD PTR _d$44[ebp]
	movss	DWORD PTR [esp], xmm0
	lea	eax, DWORD PTR $T33[ebp]
	push	eax
	lea	ecx, DWORD PTR _pmtrace$45[ebp+32]
	call	??DVector@@QBE?AV0@M@Z			; Vector::operator*
	push	eax
	lea	ecx, DWORD PTR $T32[ebp]
	push	ecx
	lea	ecx, DWORD PTR _vel$[ebp]
	call	??GVector@@QBE?AV0@ABV0@@Z		; Vector::operator-
	mov	edx, DWORD PTR _this$[ebp]
	add	edx, 24					; 00000018H
	mov	ecx, DWORD PTR [eax]
	mov	DWORD PTR [edx], ecx
	mov	ecx, DWORD PTR [eax+4]
	mov	DWORD PTR [edx+4], ecx
	mov	eax, DWORD PTR [eax+8]
	mov	DWORD PTR [edx+8], eax

; 710  : 			m_vecVelocity *= bound( 0.0f, m_flBounceFactor, 1.0f );

	mov	eax, DWORD PTR _this$[ebp]
	movss	xmm0, DWORD PTR [eax+104]
	comiss	xmm0, DWORD PTR __real@00000000
	jb	SHORT $LN88@Evaluate
	mov	ecx, DWORD PTR _this$[ebp]
	movss	xmm0, DWORD PTR __real@3f800000
	comiss	xmm0, DWORD PTR [ecx+104]
	jbe	SHORT $LN86@Evaluate
	mov	edx, DWORD PTR _this$[ebp]
	movss	xmm0, DWORD PTR [edx+104]
	movss	DWORD PTR tv495[ebp], xmm0
	jmp	SHORT $LN87@Evaluate
$LN86@Evaluate:
	movss	xmm0, DWORD PTR __real@3f800000
	movss	DWORD PTR tv495[ebp], xmm0
$LN87@Evaluate:
	movss	xmm0, DWORD PTR tv495[ebp]
	movss	DWORD PTR tv496[ebp], xmm0
	jmp	SHORT $LN89@Evaluate
$LN88@Evaluate:
	xorps	xmm0, xmm0
	movss	DWORD PTR tv496[ebp], xmm0
$LN89@Evaluate:
	push	ecx
	movss	xmm0, DWORD PTR tv496[ebp]
	movss	DWORD PTR [esp], xmm0
	mov	ecx, DWORD PTR _this$[ebp]
	add	ecx, 24					; 00000018H
	call	??XVector@@QAEAAV0@M@Z			; Vector::operator*=

; 711  : 
; 712  : 			// check for stop or slide along the plane
; 713  : 			if( pmtrace.plane.normal.z > 0.0f && m_vecVelocity.z < 1.0f )

	movss	xmm0, DWORD PTR _pmtrace$45[ebp+40]
	comiss	xmm0, DWORD PTR __real@00000000
	jbe	$LN38@Evaluate
	mov	eax, DWORD PTR _this$[ebp]
	movss	xmm0, DWORD PTR __real@3f800000
	comiss	xmm0, DWORD PTR [eax+32]
	jbe	$LN38@Evaluate

; 714  : 			{
; 715  : 				if( pmtrace.plane.normal.z >= 0.7f )

	movss	xmm0, DWORD PTR _pmtrace$45[ebp+40]
	comiss	xmm0, DWORD PTR __real@3f333333
	jb	SHORT $LN37@Evaluate

; 716  : 				{
; 717  : 					m_vecVelocity = g_vecZero;

	mov	eax, DWORD PTR _this$[ebp]
	add	eax, 24					; 00000018H
	mov	ecx, DWORD PTR ?g_vecZero@@3VVector@@B
	mov	DWORD PTR [eax], ecx
	mov	edx, DWORD PTR ?g_vecZero@@3VVector@@B+4
	mov	DWORD PTR [eax+4], edx
	mov	ecx, DWORD PTR ?g_vecZero@@3VVector@@B+8
	mov	DWORD PTR [eax+8], ecx

; 718  : 					m_vecAccel = g_vecZero;

	mov	eax, DWORD PTR _this$[ebp]
	add	eax, 36					; 00000024H
	mov	ecx, DWORD PTR ?g_vecZero@@3VVector@@B
	mov	DWORD PTR [eax], ecx
	mov	edx, DWORD PTR ?g_vecZero@@3VVector@@B+4
	mov	DWORD PTR [eax+4], edx
	mov	ecx, DWORD PTR ?g_vecZero@@3VVector@@B+8
	mov	DWORD PTR [eax+8], ecx

; 719  : 					m_iFlags &= ~FPART_BOUNCE;

	mov	eax, DWORD PTR _this$[ebp]
	mov	ecx, DWORD PTR [eax+152]
	and	ecx, -2					; fffffffeH
	mov	edx, DWORD PTR _this$[ebp]
	mov	DWORD PTR [edx+152], ecx

; 720  : 				}
; 721  : 				else

	jmp	$LN38@Evaluate
$LN37@Evaluate:

; 722  : 				{
; 723  : 					// FIXME: check for new plane or free fall
; 724  : 					float dot = DotProduct( m_vecVelocity, pmtrace.plane.normal );

	lea	eax, DWORD PTR _pmtrace$45[ebp+32]
	push	eax
	mov	ecx, DWORD PTR _this$[ebp]
	add	ecx, 24					; 00000018H
	push	ecx
	call	?DotProduct@@YAMABVVector@@0@Z		; DotProduct
	add	esp, 8
	fstp	DWORD PTR _dot$43[ebp]

; 725  : 					m_vecVelocity += (pmtrace.plane.normal * -dot);

	movss	xmm0, DWORD PTR _dot$43[ebp]
	xorps	xmm0, DWORD PTR __xmm@80000000800000008000000080000000
	push	ecx
	movss	DWORD PTR [esp], xmm0
	lea	eax, DWORD PTR $T31[ebp]
	push	eax
	lea	ecx, DWORD PTR _pmtrace$45[ebp+32]
	call	??DVector@@QBE?AV0@M@Z			; Vector::operator*
	push	eax
	mov	ecx, DWORD PTR _this$[ebp]
	add	ecx, 24					; 00000018H
	call	??YVector@@QAEAAV0@ABV0@@Z		; Vector::operator+=

; 726  : 
; 727  : 					dot = DotProduct( m_vecAccel, pmtrace.plane.normal );

	lea	eax, DWORD PTR _pmtrace$45[ebp+32]
	push	eax
	mov	ecx, DWORD PTR _this$[ebp]
	add	ecx, 36					; 00000024H
	push	ecx
	call	?DotProduct@@YAMABVVector@@0@Z		; DotProduct
	add	esp, 8
	fstp	DWORD PTR _dot$43[ebp]

; 728  : 					m_vecAccel += (pmtrace.plane.normal * -dot);

	movss	xmm0, DWORD PTR _dot$43[ebp]
	xorps	xmm0, DWORD PTR __xmm@80000000800000008000000080000000
	push	ecx
	movss	DWORD PTR [esp], xmm0
	lea	eax, DWORD PTR $T30[ebp]
	push	eax
	lea	ecx, DWORD PTR _pmtrace$45[ebp+32]
	call	??DVector@@QBE?AV0@M@Z			; Vector::operator*
	push	eax
	mov	ecx, DWORD PTR _this$[ebp]
	add	ecx, 36					; 00000024H
	call	??YVector@@QAEAAV0@ABV0@@Z		; Vector::operator+=
$LN38@Evaluate:

; 729  : 				}
; 730  : 			}
; 731  : 
; 732  : 			org = pmtrace.endpos;

	mov	eax, DWORD PTR _pmtrace$45[ebp+20]
	mov	DWORD PTR _org$[ebp], eax
	mov	ecx, DWORD PTR _pmtrace$45[ebp+24]
	mov	DWORD PTR _org$[ebp+4], ecx
	mov	edx, DWORD PTR _pmtrace$45[ebp+28]
	mov	DWORD PTR _org$[ebp+8], edx

; 733  : 			curLength = 1.0f;

	movss	xmm0, DWORD PTR __real@3f800000
	movss	DWORD PTR _curLength$[ebp], xmm0

; 734  : 
; 735  : 			// reset
; 736  : 			m_flTime = tr.time;

	cvtsd2ss xmm0, QWORD PTR ?tr@@3Uref_globals_t@@A+8
	mov	eax, DWORD PTR _this$[ebp]
	movss	DWORD PTR [eax+148], xmm0

; 737  : 			m_vecColor = curColor;

	mov	eax, DWORD PTR _this$[ebp]
	add	eax, 48					; 00000030H
	mov	ecx, DWORD PTR _curColor$[ebp]
	mov	DWORD PTR [eax], ecx
	mov	edx, DWORD PTR _curColor$[ebp+4]
	mov	DWORD PTR [eax+4], edx
	mov	ecx, DWORD PTR _curColor$[ebp+8]
	mov	DWORD PTR [eax+8], ecx

; 738  : 			m_flAlpha = curAlpha;

	mov	eax, DWORD PTR _this$[ebp]
	movss	xmm0, DWORD PTR _curAlpha$[ebp]
	movss	DWORD PTR [eax+72], xmm0

; 739  : 			m_flRadius = curRadius;

	mov	eax, DWORD PTR _this$[ebp]
	movss	xmm0, DWORD PTR _curRadius$[ebp]
	movss	DWORD PTR [eax+80], xmm0

; 740  : 			m_vecOrigin = org;

	mov	eax, DWORD PTR _this$[ebp]
	mov	ecx, DWORD PTR _org$[ebp]
	mov	DWORD PTR [eax], ecx
	mov	edx, DWORD PTR _org$[ebp+4]
	mov	DWORD PTR [eax+4], edx
	mov	ecx, DWORD PTR _org$[ebp+8]
	mov	DWORD PTR [eax+8], ecx

; 741  : 
; 742  : 			// don't stretch
; 743  : 			m_iFlags &= ~FPART_STRETCH;

	mov	eax, DWORD PTR _this$[ebp]
	mov	ecx, DWORD PTR [eax+152]
	and	ecx, -9					; fffffff7H
	mov	edx, DWORD PTR _this$[ebp]
	mov	DWORD PTR [edx+152], ecx

; 744  : 			m_flLengthVelocity = 0.0f;

	mov	eax, DWORD PTR _this$[ebp]
	xorps	xmm0, xmm0
	movss	DWORD PTR [eax+92], xmm0

; 745  : 			m_flLength = curLength;

	mov	eax, DWORD PTR _this$[ebp]
	movss	xmm0, DWORD PTR _curLength$[ebp]
	movss	DWORD PTR [eax+88], xmm0
$LN35@Evaluate:

; 746  : 		}
; 747  : 	}
; 748  : 
; 749  : 	// save current origin if needed
; 750  : 	if( FBitSet( m_iFlags, (FPART_BOUNCE | FPART_STRETCH) ) )

	mov	eax, DWORD PTR _this$[ebp]
	mov	ecx, DWORD PTR [eax+152]
	and	ecx, 9
	je	SHORT $LN39@Evaluate

; 751  : 	{
; 752  : 		org2 = m_vecLastOrg;

	mov	eax, DWORD PTR _this$[ebp]
	add	eax, 12					; 0000000cH
	mov	ecx, DWORD PTR [eax]
	mov	DWORD PTR _org2$[ebp], ecx
	mov	edx, DWORD PTR [eax+4]
	mov	DWORD PTR _org2$[ebp+4], edx
	mov	eax, DWORD PTR [eax+8]
	mov	DWORD PTR _org2$[ebp+8], eax

; 753  : 		m_vecLastOrg = org;

	mov	eax, DWORD PTR _this$[ebp]
	add	eax, 12					; 0000000cH
	mov	ecx, DWORD PTR _org$[ebp]
	mov	DWORD PTR [eax], ecx
	mov	edx, DWORD PTR _org$[ebp+4]
	mov	DWORD PTR [eax+4], edx
	mov	ecx, DWORD PTR _org$[ebp+8]
	mov	DWORD PTR [eax+8], ecx
$LN39@Evaluate:

; 754  : 	}
; 755  : 
; 756  : 	// vertex lit particle
; 757  : 	if( FBitSet( m_iFlags, FPART_VERTEXLIGHT ) )

	mov	eax, DWORD PTR _this$[ebp]
	mov	ecx, DWORD PTR [eax+152]
	and	ecx, 4
	je	$LN40@Evaluate

; 758  : 	{
; 759  : 		Vector light;

	lea	ecx, DWORD PTR _light$42[ebp]
	call	??0Vector@@QAE@XZ			; Vector::Vector

; 760  : 		// gather static lighting
; 761  : 		gEngfuncs.pTriAPI->LightAtPoint( org, light );

	lea	ecx, DWORD PTR _light$42[ebp]
	call	??BVector@@QAEPAMXZ			; Vector::operator float *
	push	eax
	lea	ecx, DWORD PTR _org$[ebp]
	call	??BVector@@QAEPAMXZ			; Vector::operator float *
	push	eax
	mov	eax, DWORD PTR ?gEngfuncs@@3Ucl_enginefuncs_s@@A+328
	mov	ecx, DWORD PTR [eax+68]
	call	ecx
	add	esp, 8

; 762  : 		light *= (1.0f / 255.0f);

	push	ecx
	movss	xmm0, DWORD PTR __real@3b808081
	movss	DWORD PTR [esp], xmm0
	lea	ecx, DWORD PTR _light$42[ebp]
	call	??XVector@@QAEAAV0@M@Z			; Vector::operator*=

; 763  : 
; 764  : 		// gather dynamic lighting
; 765  : 		light += R_LightsForPoint( org, curRadius );

	push	ecx
	movss	xmm0, DWORD PTR _curRadius$[ebp]
	movss	DWORD PTR [esp], xmm0
	lea	eax, DWORD PTR _org$[ebp]
	push	eax
	lea	ecx, DWORD PTR $T29[ebp]
	push	ecx
	call	?R_LightsForPoint@@YA?AVVector@@ABV1@M@Z ; R_LightsForPoint
	add	esp, 12					; 0000000cH
	push	eax
	lea	ecx, DWORD PTR _light$42[ebp]
	call	??YVector@@QAEAAV0@ABV0@@Z		; Vector::operator+=

; 766  : 
; 767  : 		// renormalize lighting
; 768  : 		float f = Q_max( Q_max( light.x, light.y ), light.z );

	movss	xmm0, DWORD PTR _light$42[ebp]
	comiss	xmm0, DWORD PTR _light$42[ebp+4]
	jbe	SHORT $LN90@Evaluate
	movss	xmm0, DWORD PTR _light$42[ebp]
	movss	DWORD PTR tv568[ebp], xmm0
	jmp	SHORT $LN91@Evaluate
$LN90@Evaluate:
	movss	xmm0, DWORD PTR _light$42[ebp+4]
	movss	DWORD PTR tv568[ebp], xmm0
$LN91@Evaluate:
	movss	xmm0, DWORD PTR tv568[ebp]
	comiss	xmm0, DWORD PTR _light$42[ebp+8]
	jbe	SHORT $LN94@Evaluate
	movss	xmm0, DWORD PTR _light$42[ebp]
	comiss	xmm0, DWORD PTR _light$42[ebp+4]
	jbe	SHORT $LN92@Evaluate
	movss	xmm0, DWORD PTR _light$42[ebp]
	movss	DWORD PTR tv571[ebp], xmm0
	jmp	SHORT $LN93@Evaluate
$LN92@Evaluate:
	movss	xmm0, DWORD PTR _light$42[ebp+4]
	movss	DWORD PTR tv571[ebp], xmm0
$LN93@Evaluate:
	movss	xmm0, DWORD PTR tv571[ebp]
	movss	DWORD PTR tv572[ebp], xmm0
	jmp	SHORT $LN95@Evaluate
$LN94@Evaluate:
	movss	xmm0, DWORD PTR _light$42[ebp+8]
	movss	DWORD PTR tv572[ebp], xmm0
$LN95@Evaluate:
	movss	xmm0, DWORD PTR tv572[ebp]
	movss	DWORD PTR _f$41[ebp], xmm0

; 769  : 		if( f > 1.0f ) light *= (1.0f / f);

	movss	xmm0, DWORD PTR _f$41[ebp]
	comiss	xmm0, DWORD PTR __real@3f800000
	jbe	SHORT $LN41@Evaluate
	movss	xmm0, DWORD PTR __real@3f800000
	divss	xmm0, DWORD PTR _f$41[ebp]
	push	ecx
	movss	DWORD PTR [esp], xmm0
	lea	ecx, DWORD PTR _light$42[ebp]
	call	??XVector@@QAEAAV0@M@Z			; Vector::operator*=
$LN41@Evaluate:

; 770  : 
; 771  : 	//	curColor *= light;	// multiply to diffuse
; 772  : 		if( newLight.IsNull() )

	push	ecx
	movss	xmm0, DWORD PTR __real@3a83126f
	movss	DWORD PTR [esp], xmm0
	mov	ecx, DWORD PTR _this$[ebp]
	add	ecx, 156				; 0000009cH
	call	?IsNull@Vector@@QBE_NM@Z		; Vector::IsNull
	movzx	eax, al
	test	eax, eax
	je	SHORT $LN42@Evaluate

; 773  : 			newLight = light;

	mov	eax, DWORD PTR _this$[ebp]
	add	eax, 156				; 0000009cH
	mov	ecx, DWORD PTR _light$42[ebp]
	mov	DWORD PTR [eax], ecx
	mov	edx, DWORD PTR _light$42[ebp+4]
	mov	DWORD PTR [eax+4], edx
	mov	ecx, DWORD PTR _light$42[ebp+8]
	mov	DWORD PTR [eax+8], ecx

; 774  : 		else

	jmp	$LN43@Evaluate
$LN42@Evaluate:

; 775  : 		{
; 776  : 			newLight.x = CL_UTIL_Approach( light.x, newLight.x, g_fFrametime * 3 );

	movss	xmm0, DWORD PTR ?g_fFrametime@@3MA
	mulss	xmm0, DWORD PTR __real@40400000
	push	ecx
	movss	DWORD PTR [esp], xmm0
	mov	eax, DWORD PTR _this$[ebp]
	push	ecx
	movss	xmm0, DWORD PTR [eax+156]
	movss	DWORD PTR [esp], xmm0
	push	ecx
	movss	xmm0, DWORD PTR _light$42[ebp]
	movss	DWORD PTR [esp], xmm0
	call	?CL_UTIL_Approach@@YAMMMM@Z		; CL_UTIL_Approach
	add	esp, 12					; 0000000cH
	mov	ecx, DWORD PTR _this$[ebp]
	fstp	DWORD PTR [ecx+156]

; 777  : 			newLight.y = CL_UTIL_Approach( light.y, newLight.y, g_fFrametime * 3 );

	movss	xmm0, DWORD PTR ?g_fFrametime@@3MA
	mulss	xmm0, DWORD PTR __real@40400000
	push	ecx
	movss	DWORD PTR [esp], xmm0
	mov	eax, DWORD PTR _this$[ebp]
	push	ecx
	movss	xmm0, DWORD PTR [eax+160]
	movss	DWORD PTR [esp], xmm0
	push	ecx
	movss	xmm0, DWORD PTR _light$42[ebp+4]
	movss	DWORD PTR [esp], xmm0
	call	?CL_UTIL_Approach@@YAMMMM@Z		; CL_UTIL_Approach
	add	esp, 12					; 0000000cH
	mov	ecx, DWORD PTR _this$[ebp]
	fstp	DWORD PTR [ecx+160]

; 778  : 			newLight.z = CL_UTIL_Approach( light.z, newLight.z, g_fFrametime * 3 );

	movss	xmm0, DWORD PTR ?g_fFrametime@@3MA
	mulss	xmm0, DWORD PTR __real@40400000
	push	ecx
	movss	DWORD PTR [esp], xmm0
	mov	eax, DWORD PTR _this$[ebp]
	push	ecx
	movss	xmm0, DWORD PTR [eax+164]
	movss	DWORD PTR [esp], xmm0
	push	ecx
	movss	xmm0, DWORD PTR _light$42[ebp+8]
	movss	DWORD PTR [esp], xmm0
	call	?CL_UTIL_Approach@@YAMMMM@Z		; CL_UTIL_Approach
	add	esp, 12					; 0000000cH
	mov	ecx, DWORD PTR _this$[ebp]
	fstp	DWORD PTR [ecx+164]
$LN43@Evaluate:

; 779  : 		}
; 780  : 		curColor *= newLight;

	mov	eax, DWORD PTR _this$[ebp]
	add	eax, 156				; 0000009cH
	push	eax
	lea	ecx, DWORD PTR _curColor$[ebp]
	call	??XVector@@QAEAAV0@ABV0@@Z		; Vector::operator*=
$LN40@Evaluate:

; 781  : 	}
; 782  : 
; 783  : 	if( FBitSet( m_iFlags, FPART_INSTANT ) )

	mov	eax, DWORD PTR _this$[ebp]
	mov	ecx, DWORD PTR [eax+152]
	and	ecx, 32					; 00000020H
	je	SHORT $LN44@Evaluate

; 784  : 	{
; 785  : 		// instant particle
; 786  : 		m_flAlphaVelocity = 0.0f;

	mov	eax, DWORD PTR _this$[ebp]
	xorps	xmm0, xmm0
	movss	DWORD PTR [eax+76], xmm0

; 787  : 		m_flAlpha = 0.0f;

	mov	eax, DWORD PTR _this$[ebp]
	xorps	xmm0, xmm0
	movss	DWORD PTR [eax+72], xmm0
$LN44@Evaluate:

; 788  : 	}
; 789  : 
; 790  : 	// float on water
; 791  : 	if( !FBitSet( m_iFlags, FPART_AFLOAT ) && (FBitSet(m_iFlags, FPART_FLOATING) || FBitSet( m_iFlags, FPART_FLOATING_ORIENTED )) )

	mov	eax, DWORD PTR _this$[ebp]
	mov	ecx, DWORD PTR [eax+152]
	and	ecx, 8192				; 00002000H
	jne	$LN47@Evaluate
	mov	eax, DWORD PTR _this$[ebp]
	mov	ecx, DWORD PTR [eax+152]
	and	ecx, 2048				; 00000800H
	jne	SHORT $LN46@Evaluate
	mov	eax, DWORD PTR _this$[ebp]
	mov	ecx, DWORD PTR [eax+152]
	and	ecx, 4096				; 00001000H
	je	SHORT $LN47@Evaluate
$LN46@Evaluate:

; 792  : 	{
; 793  : 		if( contents == CONTENTS_WATER )

	cmp	DWORD PTR _contents$[ebp], -3		; fffffffdH
	jne	SHORT $LN47@Evaluate

; 794  : 		{
; 795  : 			m_vecVelocity.z = 0; // stop moving

	mov	eax, DWORD PTR _this$[ebp]
	xorps	xmm0, xmm0
	movss	DWORD PTR [eax+32], xmm0

; 796  : 			m_vecAccel.z = 0;

	mov	eax, DWORD PTR _this$[ebp]
	xorps	xmm0, xmm0
	movss	DWORD PTR [eax+44], xmm0
$LN7@Evaluate:

; 797  : 
; 798  : 			while( POINT_CONTENTS( org ) == CONTENTS_WATER )

	push	0
	lea	ecx, DWORD PTR _org$[ebp]
	call	??BVector@@QAEPAMXZ			; Vector::operator float *
	push	eax
	call	DWORD PTR ?gEngfuncs@@3Ucl_enginefuncs_s@@A+228
	add	esp, 8
	cmp	eax, -3					; fffffffdH
	jne	SHORT $LN8@Evaluate

; 799  : 				org.z += 1;

	movss	xmm0, DWORD PTR _org$[ebp+8]
	addss	xmm0, DWORD PTR __real@3f800000
	movss	DWORD PTR _org$[ebp+8], xmm0
	jmp	SHORT $LN7@Evaluate
$LN8@Evaluate:

; 800  : 
; 801  : 			m_vecOrigin.z = org.z;

	mov	eax, DWORD PTR _this$[ebp]
	movss	xmm0, DWORD PTR _org$[ebp+8]
	movss	DWORD PTR [eax+8], xmm0

; 802  : 			m_iFlags |= FPART_AFLOAT;

	mov	eax, DWORD PTR _this$[ebp]
	mov	ecx, DWORD PTR [eax+152]
	or	ecx, 8192				; 00002000H
	mov	edx, DWORD PTR _this$[ebp]
	mov	DWORD PTR [edx+152], ecx
$LN47@Evaluate:

; 803  : 		}
; 804  : 	}
; 805  : 
; 806  : 	if( FBitSet(m_iFlags, FPART_AFLOAT) )

	mov	eax, DWORD PTR _this$[ebp]
	mov	ecx, DWORD PTR [eax+152]
	and	ecx, 8192				; 00002000H
	je	SHORT $LN48@Evaluate

; 807  : 	{
; 808  : 		org.z += sin( tr.time );

	sub	esp, 8
	movsd	xmm0, QWORD PTR ?tr@@3Uref_globals_t@@A+8
	movsd	QWORD PTR [esp], xmm0
	call	_sin
	add	esp, 8
	fstp	QWORD PTR tv1753[ebp]
	cvtss2sd xmm0, DWORD PTR _org$[ebp+8]
	addsd	xmm0, QWORD PTR tv1753[ebp]
	cvtsd2ss xmm0, xmm0
	movss	DWORD PTR _org$[ebp+8], xmm0
$LN48@Evaluate:

; 809  : 	}
; 810  : 
; 811  : 	if( curRadius == 1.0f )

	movss	xmm0, DWORD PTR _curRadius$[ebp]
	ucomiss	xmm0, DWORD PTR __real@3f800000
	lahf
	test	ah, 68					; 00000044H
	jp	$LN50@Evaluate

; 812  : 	{
; 813  : 		float scale = 0.0f;

	xorps	xmm0, xmm0
	movss	DWORD PTR _scale$40[ebp], xmm0

; 814  : 
; 815  : 		// hack a scale up to keep quake particles from disapearing
; 816  : 		scale += (org.x - RI->vieworg.x) * RI->vforward.x;

	mov	eax, DWORD PTR ?RI@@3PAUref_instance_t@@A ; RI
	movss	xmm0, DWORD PTR _org$[ebp]
	subss	xmm0, DWORD PTR [eax+204]
	mov	ecx, DWORD PTR ?RI@@3PAUref_instance_t@@A ; RI
	mulss	xmm0, DWORD PTR [ecx+228]
	addss	xmm0, DWORD PTR _scale$40[ebp]
	movss	DWORD PTR _scale$40[ebp], xmm0

; 817  : 		scale += (org.y - RI->vieworg.y) * RI->vforward.y;

	mov	eax, DWORD PTR ?RI@@3PAUref_instance_t@@A ; RI
	movss	xmm0, DWORD PTR _org$[ebp+4]
	subss	xmm0, DWORD PTR [eax+208]
	mov	ecx, DWORD PTR ?RI@@3PAUref_instance_t@@A ; RI
	mulss	xmm0, DWORD PTR [ecx+232]
	addss	xmm0, DWORD PTR _scale$40[ebp]
	movss	DWORD PTR _scale$40[ebp], xmm0

; 818  : 		scale += (org.z - RI->vieworg.z) * RI->vforward.z;

	mov	eax, DWORD PTR ?RI@@3PAUref_instance_t@@A ; RI
	movss	xmm0, DWORD PTR _org$[ebp+8]
	subss	xmm0, DWORD PTR [eax+212]
	mov	ecx, DWORD PTR ?RI@@3PAUref_instance_t@@A ; RI
	mulss	xmm0, DWORD PTR [ecx+236]
	addss	xmm0, DWORD PTR _scale$40[ebp]
	movss	DWORD PTR _scale$40[ebp], xmm0

; 819  : 		if( scale >= 20.0f ) curRadius = 1.0f + scale * 0.004f;

	movss	xmm0, DWORD PTR _scale$40[ebp]
	comiss	xmm0, DWORD PTR __real@41a00000
	jb	SHORT $LN50@Evaluate
	movss	xmm0, DWORD PTR _scale$40[ebp]
	mulss	xmm0, DWORD PTR __real@3b83126f
	addss	xmm0, DWORD PTR __real@3f800000
	movss	DWORD PTR _curRadius$[ebp], xmm0
$LN50@Evaluate:

; 820  : 	}
; 821  : 
; 822  : 	curColor.x = bound( 0.0f, curColor.x, 1.0f );

	movss	xmm0, DWORD PTR _curColor$[ebp]
	comiss	xmm0, DWORD PTR __real@00000000
	jb	SHORT $LN98@Evaluate
	movss	xmm0, DWORD PTR __real@3f800000
	comiss	xmm0, DWORD PTR _curColor$[ebp]
	jbe	SHORT $LN96@Evaluate
	movss	xmm0, DWORD PTR _curColor$[ebp]
	movss	DWORD PTR tv681[ebp], xmm0
	jmp	SHORT $LN97@Evaluate
$LN96@Evaluate:
	movss	xmm0, DWORD PTR __real@3f800000
	movss	DWORD PTR tv681[ebp], xmm0
$LN97@Evaluate:
	movss	xmm0, DWORD PTR tv681[ebp]
	movss	DWORD PTR tv682[ebp], xmm0
	jmp	SHORT $LN99@Evaluate
$LN98@Evaluate:
	xorps	xmm0, xmm0
	movss	DWORD PTR tv682[ebp], xmm0
$LN99@Evaluate:
	movss	xmm0, DWORD PTR tv682[ebp]
	movss	DWORD PTR _curColor$[ebp], xmm0

; 823  : 	curColor.y = bound( 0.0f, curColor.y, 1.0f );

	movss	xmm0, DWORD PTR _curColor$[ebp+4]
	comiss	xmm0, DWORD PTR __real@00000000
	jb	SHORT $LN102@Evaluate
	movss	xmm0, DWORD PTR __real@3f800000
	comiss	xmm0, DWORD PTR _curColor$[ebp+4]
	jbe	SHORT $LN100@Evaluate
	movss	xmm0, DWORD PTR _curColor$[ebp+4]
	movss	DWORD PTR tv685[ebp], xmm0
	jmp	SHORT $LN101@Evaluate
$LN100@Evaluate:
	movss	xmm0, DWORD PTR __real@3f800000
	movss	DWORD PTR tv685[ebp], xmm0
$LN101@Evaluate:
	movss	xmm0, DWORD PTR tv685[ebp]
	movss	DWORD PTR tv686[ebp], xmm0
	jmp	SHORT $LN103@Evaluate
$LN102@Evaluate:
	xorps	xmm0, xmm0
	movss	DWORD PTR tv686[ebp], xmm0
$LN103@Evaluate:
	movss	xmm0, DWORD PTR tv686[ebp]
	movss	DWORD PTR _curColor$[ebp+4], xmm0

; 824  : 	curColor.z = bound( 0.0f, curColor.z, 1.0f );

	movss	xmm0, DWORD PTR _curColor$[ebp+8]
	comiss	xmm0, DWORD PTR __real@00000000
	jb	SHORT $LN106@Evaluate
	movss	xmm0, DWORD PTR __real@3f800000
	comiss	xmm0, DWORD PTR _curColor$[ebp+8]
	jbe	SHORT $LN104@Evaluate
	movss	xmm0, DWORD PTR _curColor$[ebp+8]
	movss	DWORD PTR tv689[ebp], xmm0
	jmp	SHORT $LN105@Evaluate
$LN104@Evaluate:
	movss	xmm0, DWORD PTR __real@3f800000
	movss	DWORD PTR tv689[ebp], xmm0
$LN105@Evaluate:
	movss	xmm0, DWORD PTR tv689[ebp]
	movss	DWORD PTR tv690[ebp], xmm0
	jmp	SHORT $LN107@Evaluate
$LN106@Evaluate:
	xorps	xmm0, xmm0
	movss	DWORD PTR tv690[ebp], xmm0
$LN107@Evaluate:
	movss	xmm0, DWORD PTR tv690[ebp]
	movss	DWORD PTR _curColor$[ebp+8], xmm0

; 825  : 
; 826  : 	// clear any added velocity this frame
; 827  : 	m_vecVelocity -= m_vecAddedVelocity;

	mov	eax, DWORD PTR _this$[ebp]
	add	eax, 116				; 00000074H
	push	eax
	mov	ecx, DWORD PTR _this$[ebp]
	add	ecx, 24					; 00000018H
	call	??ZVector@@QAEAAV0@ABV0@@Z		; Vector::operator-=

; 828  : 	m_vecAddedVelocity.x = CL_UTIL_Approach( 0, m_vecAddedVelocity.x, g_fFrametime );

	push	ecx
	movss	xmm0, DWORD PTR ?g_fFrametime@@3MA
	movss	DWORD PTR [esp], xmm0
	mov	eax, DWORD PTR _this$[ebp]
	push	ecx
	movss	xmm0, DWORD PTR [eax+116]
	movss	DWORD PTR [esp], xmm0
	push	ecx
	xorps	xmm0, xmm0
	movss	DWORD PTR [esp], xmm0
	call	?CL_UTIL_Approach@@YAMMMM@Z		; CL_UTIL_Approach
	add	esp, 12					; 0000000cH
	mov	ecx, DWORD PTR _this$[ebp]
	fstp	DWORD PTR [ecx+116]

; 829  : 	m_vecAddedVelocity.y = CL_UTIL_Approach( 0, m_vecAddedVelocity.y, g_fFrametime );

	push	ecx
	movss	xmm0, DWORD PTR ?g_fFrametime@@3MA
	movss	DWORD PTR [esp], xmm0
	mov	eax, DWORD PTR _this$[ebp]
	push	ecx
	movss	xmm0, DWORD PTR [eax+120]
	movss	DWORD PTR [esp], xmm0
	push	ecx
	xorps	xmm0, xmm0
	movss	DWORD PTR [esp], xmm0
	call	?CL_UTIL_Approach@@YAMMMM@Z		; CL_UTIL_Approach
	add	esp, 12					; 0000000cH
	mov	ecx, DWORD PTR _this$[ebp]
	fstp	DWORD PTR [ecx+120]

; 830  : 	m_vecAddedVelocity.z = CL_UTIL_Approach( 0, m_vecAddedVelocity.z, g_fFrametime );

	push	ecx
	movss	xmm0, DWORD PTR ?g_fFrametime@@3MA
	movss	DWORD PTR [esp], xmm0
	mov	eax, DWORD PTR _this$[ebp]
	push	ecx
	movss	xmm0, DWORD PTR [eax+124]
	movss	DWORD PTR [esp], xmm0
	push	ecx
	xorps	xmm0, xmm0
	movss	DWORD PTR [esp], xmm0
	call	?CL_UTIL_Approach@@YAMMMM@Z		; CL_UTIL_Approach
	add	esp, 12					; 0000000cH
	mov	ecx, DWORD PTR _this$[ebp]
	fstp	DWORD PTR [ecx+124]

; 831  : 	
; 832  : 	// cull invisible parts
; 833  : 	if( R_CullSphere( org, curRadius ) )

	push	0
	push	ecx
	movss	xmm0, DWORD PTR _curRadius$[ebp]
	movss	DWORD PTR [esp], xmm0
	lea	eax, DWORD PTR _org$[ebp]
	push	eax
	mov	ecx, DWORD PTR ?RI@@3PAUref_instance_t@@A ; RI
	add	ecx, 48					; 00000030H
	call	?CullSphere@CFrustum@@QAE_NABVVector@@MH@Z ; CFrustum::CullSphere
	movzx	ecx, al
	test	ecx, ecx
	je	SHORT $LN51@Evaluate

; 834  : 	{
; 835  : 		r_stats.c_particles_culled++;

	mov	eax, DWORD PTR ?r_stats@@3Uref_stats_t@@A+36
	add	eax, 1
	mov	DWORD PTR ?r_stats@@3Uref_stats_t@@A+36, eax

; 836  : 		return true;

	mov	al, 1
	jmp	$LN1@Evaluate
$LN51@Evaluate:

; 837  : 	}
; 838  : 	/*
; 839  : 	if( ParticleType == TYPE_SMOKE || ParticleType == TYPE_SMOKE_NOTINWATER )
; 840  : 	{
; 841  : 		if( g_pParticles.ExplosionOrg != g_vecZero )
; 842  : 		{
; 843  : 			float dist = (org - g_pParticles.ExplosionOrg).Length();
; 844  : 			if( dist < 200 )
; 845  : 			{
; 846  : 				AlphaDownScale = 1.0f - (100.0f / (1.0f + dist));
; 847  : 			}
; 848  : 		}
; 849  : 
; 850  : 		if( AlphaDownScale < 1.0f )
; 851  : 			AlphaDownScale += g_fFrametime * 0.1;
; 852  : 
; 853  : 		AlphaDownScale = bound( 0.01f, AlphaDownScale, 1.0f );
; 854  : 		curAlpha *= AlphaDownScale;
; 855  : 	}*/
; 856  : 
; 857  : 	Vector axis[3], verts[4];

	push	OFFSET ??0Vector@@QAE@XZ		; Vector::Vector
	push	3
	push	12					; 0000000cH
	lea	eax, DWORD PTR _axis$[ebp]
	push	eax
	call	??_H@YGXPAXIIP6EPAX0@Z@Z
	push	OFFSET ??0Vector@@QAE@XZ		; Vector::Vector
	push	4
	push	12					; 0000000cH
	lea	eax, DWORD PTR _verts$[ebp]
	push	eax
	call	??_H@YGXPAXIIP6EPAX0@Z@Z

; 858  : 	Vector absmin, absmax;

	lea	ecx, DWORD PTR _absmin$[ebp]
	call	??0Vector@@QAE@XZ			; Vector::Vector
	lea	ecx, DWORD PTR _absmax$[ebp]
	call	??0Vector@@QAE@XZ			; Vector::Vector

; 859  : 
; 860  : 	// diffusion - look at player, but don't rotate with view rotation
; 861  : 	Vector ViewVec;

	lea	ecx, DWORD PTR _ViewVec$[ebp]
	call	??0Vector@@QAE@XZ			; Vector::Vector

; 862  : 	if( FBitSet( m_iFlags, FPART_AFLOAT ) && FBitSet( m_iFlags, FPART_FLOATING_ORIENTED ) ) // look at the ceiling

	mov	eax, DWORD PTR _this$[ebp]
	mov	ecx, DWORD PTR [eax+152]
	and	ecx, 8192				; 00002000H
	je	SHORT $LN52@Evaluate
	mov	eax, DWORD PTR _this$[ebp]
	mov	ecx, DWORD PTR [eax+152]
	and	ecx, 4096				; 00001000H
	je	SHORT $LN52@Evaluate

; 863  : 		VectorAngles( Vector(0,0,-1), ViewVec );

	lea	eax, DWORD PTR _ViewVec$[ebp]
	push	eax
	push	ecx
	movss	xmm0, DWORD PTR __real@bf800000
	movss	DWORD PTR [esp], xmm0
	push	ecx
	xorps	xmm0, xmm0
	movss	DWORD PTR [esp], xmm0
	push	ecx
	xorps	xmm0, xmm0
	movss	DWORD PTR [esp], xmm0
	lea	ecx, DWORD PTR $T28[ebp]
	call	??0Vector@@QAE@MMM@Z			; Vector::Vector
	push	eax
	call	?VectorAngles@@YAXABVVector@@AAV1@@Z	; VectorAngles
	add	esp, 8

; 864  : 	else

	jmp	SHORT $LN53@Evaluate
$LN52@Evaluate:

; 865  : 		VectorAngles( org - RI->vieworg, ViewVec );

	lea	eax, DWORD PTR _ViewVec$[ebp]
	push	eax
	mov	ecx, DWORD PTR ?RI@@3PAUref_instance_t@@A ; RI
	add	ecx, 204				; 000000ccH
	push	ecx
	lea	edx, DWORD PTR $T27[ebp]
	push	edx
	lea	ecx, DWORD PTR _org$[ebp]
	call	??GVector@@QBE?AV0@ABV0@@Z		; Vector::operator-
	push	eax
	call	?VectorAngles@@YAXABVVector@@AAV1@@Z	; VectorAngles
	add	esp, 8
$LN53@Evaluate:

; 866  : 	Vector Forward, Right, Up;

	lea	ecx, DWORD PTR _Forward$[ebp]
	call	??0Vector@@QAE@XZ			; Vector::Vector
	lea	ecx, DWORD PTR _Right$[ebp]
	call	??0Vector@@QAE@XZ			; Vector::Vector
	lea	ecx, DWORD PTR _Up$[ebp]
	call	??0Vector@@QAE@XZ			; Vector::Vector

; 867  : 	gEngfuncs.pfnAngleVectors( ViewVec, Forward, Right, Up );

	lea	ecx, DWORD PTR _Up$[ebp]
	call	??BVector@@QAEPAMXZ			; Vector::operator float *
	push	eax
	lea	ecx, DWORD PTR _Right$[ebp]
	call	??BVector@@QAEPAMXZ			; Vector::operator float *
	push	eax
	lea	ecx, DWORD PTR _Forward$[ebp]
	call	??BVector@@QAEPAMXZ			; Vector::operator float *
	push	eax
	lea	ecx, DWORD PTR _ViewVec$[ebp]
	call	??BVector@@QAEPAMXZ			; Vector::operator float *
	push	eax
	call	DWORD PTR ?gEngfuncs@@3Ucl_enginefuncs_s@@A+96
	add	esp, 16					; 00000010H

; 868  : 
; 869  : 	// prepare to draw
; 870  : 	if( curLength != 1.0f )

	movss	xmm0, DWORD PTR _curLength$[ebp]
	ucomiss	xmm0, DWORD PTR __real@3f800000
	lahf
	test	ah, 68					; 00000044H
	jnp	$LN54@Evaluate

; 871  : 	{
; 872  : 		// find orientation vectors
; 873  : 		axis[0] = RI->vieworg - org;

	lea	eax, DWORD PTR _org$[ebp]
	push	eax
	lea	ecx, DWORD PTR $T26[ebp]
	push	ecx
	mov	ecx, DWORD PTR ?RI@@3PAUref_instance_t@@A ; RI
	add	ecx, 204				; 000000ccH
	call	??GVector@@QBE?AV0@ABV0@@Z		; Vector::operator-
	mov	edx, 12					; 0000000cH
	imul	ecx, edx, 0
	lea	edx, DWORD PTR _axis$[ebp+ecx]
	mov	ecx, DWORD PTR [eax]
	mov	DWORD PTR [edx], ecx
	mov	ecx, DWORD PTR [eax+4]
	mov	DWORD PTR [edx+4], ecx
	mov	eax, DWORD PTR [eax+8]
	mov	DWORD PTR [edx+8], eax

; 874  : 		axis[1] = org2 - org;

	lea	eax, DWORD PTR _org$[ebp]
	push	eax
	lea	ecx, DWORD PTR $T25[ebp]
	push	ecx
	lea	ecx, DWORD PTR _org2$[ebp]
	call	??GVector@@QBE?AV0@ABV0@@Z		; Vector::operator-
	mov	edx, 12					; 0000000cH
	shl	edx, 0
	lea	ecx, DWORD PTR _axis$[ebp+edx]
	mov	edx, DWORD PTR [eax]
	mov	DWORD PTR [ecx], edx
	mov	edx, DWORD PTR [eax+4]
	mov	DWORD PTR [ecx+4], edx
	mov	eax, DWORD PTR [eax+8]
	mov	DWORD PTR [ecx+8], eax

; 875  : 		axis[2] = CrossProduct( axis[0], axis[1] );

	mov	eax, 12					; 0000000cH
	shl	eax, 0
	lea	ecx, DWORD PTR _axis$[ebp+eax]
	push	ecx
	mov	edx, 12					; 0000000cH
	imul	eax, edx, 0
	lea	ecx, DWORD PTR _axis$[ebp+eax]
	push	ecx
	lea	edx, DWORD PTR $T24[ebp]
	push	edx
	call	?CrossProduct@@YA?AVVector@@ABV1@0@Z	; CrossProduct
	add	esp, 12					; 0000000cH
	mov	ecx, 12					; 0000000cH
	shl	ecx, 1
	lea	edx, DWORD PTR _axis$[ebp+ecx]
	mov	ecx, DWORD PTR [eax]
	mov	DWORD PTR [edx], ecx
	mov	ecx, DWORD PTR [eax+4]
	mov	DWORD PTR [edx+4], ecx
	mov	eax, DWORD PTR [eax+8]
	mov	DWORD PTR [edx+8], eax

; 876  : 
; 877  : 		axis[1] = axis[1].Normalize();

	lea	eax, DWORD PTR $T23[ebp]
	push	eax
	mov	ecx, 12					; 0000000cH
	shl	ecx, 0
	lea	ecx, DWORD PTR _axis$[ebp+ecx]
	call	?Normalize@Vector@@QBE?AV1@XZ		; Vector::Normalize
	mov	edx, 12					; 0000000cH
	shl	edx, 0
	lea	ecx, DWORD PTR _axis$[ebp+edx]
	mov	edx, DWORD PTR [eax]
	mov	DWORD PTR [ecx], edx
	mov	edx, DWORD PTR [eax+4]
	mov	DWORD PTR [ecx+4], edx
	mov	eax, DWORD PTR [eax+8]
	mov	DWORD PTR [ecx+8], eax

; 878  : 		axis[2] = axis[2].Normalize();

	lea	eax, DWORD PTR $T22[ebp]
	push	eax
	mov	ecx, 12					; 0000000cH
	shl	ecx, 1
	lea	ecx, DWORD PTR _axis$[ebp+ecx]
	call	?Normalize@Vector@@QBE?AV1@XZ		; Vector::Normalize
	mov	edx, 12					; 0000000cH
	shl	edx, 1
	lea	ecx, DWORD PTR _axis$[ebp+edx]
	mov	edx, DWORD PTR [eax]
	mov	DWORD PTR [ecx], edx
	mov	edx, DWORD PTR [eax+4]
	mov	DWORD PTR [ecx+4], edx
	mov	eax, DWORD PTR [eax+8]
	mov	DWORD PTR [ecx+8], eax

; 879  : 
; 880  : 		// find normal
; 881  : 		axis[0] = CrossProduct( axis[1], axis[2] );

	mov	eax, 12					; 0000000cH
	shl	eax, 1
	lea	ecx, DWORD PTR _axis$[ebp+eax]
	push	ecx
	mov	edx, 12					; 0000000cH
	shl	edx, 0
	lea	eax, DWORD PTR _axis$[ebp+edx]
	push	eax
	lea	ecx, DWORD PTR $T21[ebp]
	push	ecx
	call	?CrossProduct@@YA?AVVector@@ABV1@0@Z	; CrossProduct
	add	esp, 12					; 0000000cH
	mov	edx, 12					; 0000000cH
	imul	ecx, edx, 0
	lea	edx, DWORD PTR _axis$[ebp+ecx]
	mov	ecx, DWORD PTR [eax]
	mov	DWORD PTR [edx], ecx
	mov	ecx, DWORD PTR [eax+4]
	mov	DWORD PTR [edx+4], ecx
	mov	eax, DWORD PTR [eax+8]
	mov	DWORD PTR [edx+8], eax

; 882  : 		axis[0] = axis[0].Normalize();

	lea	eax, DWORD PTR $T20[ebp]
	push	eax
	mov	ecx, 12					; 0000000cH
	imul	edx, ecx, 0
	lea	ecx, DWORD PTR _axis$[ebp+edx]
	call	?Normalize@Vector@@QBE?AV1@XZ		; Vector::Normalize
	mov	ecx, 12					; 0000000cH
	imul	edx, ecx, 0
	lea	ecx, DWORD PTR _axis$[ebp+edx]
	mov	edx, DWORD PTR [eax]
	mov	DWORD PTR [ecx], edx
	mov	edx, DWORD PTR [eax+4]
	mov	DWORD PTR [ecx+4], edx
	mov	eax, DWORD PTR [eax+8]
	mov	DWORD PTR [ecx+8], eax

; 883  : 
; 884  : 		org3 = org + (axis[1] * -curLength);

	movss	xmm0, DWORD PTR _curLength$[ebp]
	xorps	xmm0, DWORD PTR __xmm@80000000800000008000000080000000
	push	ecx
	movss	DWORD PTR [esp], xmm0
	lea	eax, DWORD PTR $T19[ebp]
	push	eax
	mov	ecx, 12					; 0000000cH
	shl	ecx, 0
	lea	ecx, DWORD PTR _axis$[ebp+ecx]
	call	??DVector@@QBE?AV0@M@Z			; Vector::operator*
	push	eax
	lea	edx, DWORD PTR $T18[ebp]
	push	edx
	lea	ecx, DWORD PTR _org$[ebp]
	call	??HVector@@QBE?AV0@ABV0@@Z		; Vector::operator+
	mov	ecx, DWORD PTR [eax]
	mov	DWORD PTR _org3$[ebp], ecx
	mov	edx, DWORD PTR [eax+4]
	mov	DWORD PTR _org3$[ebp+4], edx
	mov	eax, DWORD PTR [eax+8]
	mov	DWORD PTR _org3$[ebp+8], eax

; 885  : 		axis[2] *= m_flRadius;

	mov	eax, DWORD PTR _this$[ebp]
	push	ecx
	movss	xmm0, DWORD PTR [eax+80]
	movss	DWORD PTR [esp], xmm0
	mov	ecx, 12					; 0000000cH
	shl	ecx, 1
	lea	ecx, DWORD PTR _axis$[ebp+ecx]
	call	??XVector@@QAEAAV0@M@Z			; Vector::operator*=

; 886  : 
; 887  : 		// setup vertexes
; 888  : 		verts[0] = org3 - axis[2];

	mov	eax, 12					; 0000000cH
	shl	eax, 1
	lea	ecx, DWORD PTR _axis$[ebp+eax]
	push	ecx
	lea	edx, DWORD PTR $T17[ebp]
	push	edx
	lea	ecx, DWORD PTR _org3$[ebp]
	call	??GVector@@QBE?AV0@ABV0@@Z		; Vector::operator-
	mov	ecx, 12					; 0000000cH
	imul	edx, ecx, 0
	lea	ecx, DWORD PTR _verts$[ebp+edx]
	mov	edx, DWORD PTR [eax]
	mov	DWORD PTR [ecx], edx
	mov	edx, DWORD PTR [eax+4]
	mov	DWORD PTR [ecx+4], edx
	mov	eax, DWORD PTR [eax+8]
	mov	DWORD PTR [ecx+8], eax

; 889  : 		verts[1] = org3 + axis[2];

	mov	eax, 12					; 0000000cH
	shl	eax, 1
	lea	ecx, DWORD PTR _axis$[ebp+eax]
	push	ecx
	lea	edx, DWORD PTR $T16[ebp]
	push	edx
	lea	ecx, DWORD PTR _org3$[ebp]
	call	??HVector@@QBE?AV0@ABV0@@Z		; Vector::operator+
	mov	ecx, 12					; 0000000cH
	shl	ecx, 0
	lea	edx, DWORD PTR _verts$[ebp+ecx]
	mov	ecx, DWORD PTR [eax]
	mov	DWORD PTR [edx], ecx
	mov	ecx, DWORD PTR [eax+4]
	mov	DWORD PTR [edx+4], ecx
	mov	eax, DWORD PTR [eax+8]
	mov	DWORD PTR [edx+8], eax

; 890  : 		verts[2] = org + axis[2];

	mov	eax, 12					; 0000000cH
	shl	eax, 1
	lea	ecx, DWORD PTR _axis$[ebp+eax]
	push	ecx
	lea	edx, DWORD PTR $T15[ebp]
	push	edx
	lea	ecx, DWORD PTR _org$[ebp]
	call	??HVector@@QBE?AV0@ABV0@@Z		; Vector::operator+
	mov	ecx, 12					; 0000000cH
	shl	ecx, 1
	lea	edx, DWORD PTR _verts$[ebp+ecx]
	mov	ecx, DWORD PTR [eax]
	mov	DWORD PTR [edx], ecx
	mov	ecx, DWORD PTR [eax+4]
	mov	DWORD PTR [edx+4], ecx
	mov	eax, DWORD PTR [eax+8]
	mov	DWORD PTR [edx+8], eax

; 891  : 		verts[3] = org - axis[2];

	mov	eax, 12					; 0000000cH
	shl	eax, 1
	lea	ecx, DWORD PTR _axis$[ebp+eax]
	push	ecx
	lea	edx, DWORD PTR $T14[ebp]
	push	edx
	lea	ecx, DWORD PTR _org$[ebp]
	call	??GVector@@QBE?AV0@ABV0@@Z		; Vector::operator-
	mov	ecx, 12					; 0000000cH
	imul	edx, ecx, 3
	lea	ecx, DWORD PTR _verts$[ebp+edx]
	mov	edx, DWORD PTR [eax]
	mov	DWORD PTR [ecx], edx
	mov	edx, DWORD PTR [eax+4]
	mov	DWORD PTR [ecx+4], edx
	mov	eax, DWORD PTR [eax+8]
	mov	DWORD PTR [ecx+8], eax

; 892  : 	}
; 893  : 	else

	jmp	$LN55@Evaluate
$LN54@Evaluate:

; 894  : 	{
; 895  : 		if( m_flRotation || m_flRotationVelocity )

	mov	eax, DWORD PTR _this$[ebp]
	movss	xmm0, DWORD PTR [eax+96]
	ucomiss	xmm0, DWORD PTR __real@00000000
	lahf
	test	ah, 68					; 00000044H
	jp	SHORT $LN58@Evaluate
	mov	eax, DWORD PTR _this$[ebp]
	movss	xmm0, DWORD PTR [eax+100]
	ucomiss	xmm0, DWORD PTR __real@00000000
	lahf
	test	ah, 68					; 00000044H
	jnp	$LN56@Evaluate
$LN58@Evaluate:

; 896  : 		{
; 897  : 			// Rotate it around its normal
; 898  : 			RotatePointAroundVector( axis[1], Forward, Right, curRotation );

	push	ecx
	movss	xmm0, DWORD PTR _curRotation$[ebp]
	movss	DWORD PTR [esp], xmm0
	lea	eax, DWORD PTR _Right$[ebp]
	push	eax
	lea	ecx, DWORD PTR _Forward$[ebp]
	push	ecx
	mov	edx, 12					; 0000000cH
	shl	edx, 0
	lea	eax, DWORD PTR _axis$[ebp+edx]
	push	eax
	call	?RotatePointAroundVector@@YAXAAVVector@@ABV1@1M@Z ; RotatePointAroundVector
	add	esp, 16					; 00000010H

; 899  : 			axis[2] = CrossProduct( Forward, axis[1] );

	mov	eax, 12					; 0000000cH
	shl	eax, 0
	lea	ecx, DWORD PTR _axis$[ebp+eax]
	push	ecx
	lea	edx, DWORD PTR _Forward$[ebp]
	push	edx
	lea	eax, DWORD PTR $T13[ebp]
	push	eax
	call	?CrossProduct@@YA?AVVector@@ABV1@0@Z	; CrossProduct
	add	esp, 12					; 0000000cH
	mov	ecx, 12					; 0000000cH
	shl	ecx, 1
	lea	edx, DWORD PTR _axis$[ebp+ecx]
	mov	ecx, DWORD PTR [eax]
	mov	DWORD PTR [edx], ecx
	mov	ecx, DWORD PTR [eax+4]
	mov	DWORD PTR [edx+4], ecx
	mov	eax, DWORD PTR [eax+8]
	mov	DWORD PTR [edx+8], eax

; 900  : 
; 901  : 			// the normal should point at the viewer
; 902  : 			axis[0] = -Forward;

	lea	eax, DWORD PTR $T12[ebp]
	push	eax
	lea	ecx, DWORD PTR _Forward$[ebp]
	call	??GVector@@QBE?AV0@XZ			; Vector::operator-
	mov	ecx, 12					; 0000000cH
	imul	edx, ecx, 0
	lea	ecx, DWORD PTR _axis$[ebp+edx]
	mov	edx, DWORD PTR [eax]
	mov	DWORD PTR [ecx], edx
	mov	edx, DWORD PTR [eax+4]
	mov	DWORD PTR [ecx+4], edx
	mov	eax, DWORD PTR [eax+8]
	mov	DWORD PTR [ecx+8], eax

; 903  : 
; 904  : 			// Scale the axes by radius
; 905  : 			axis[1] *= curRadius;

	push	ecx
	movss	xmm0, DWORD PTR _curRadius$[ebp]
	movss	DWORD PTR [esp], xmm0
	mov	eax, 12					; 0000000cH
	shl	eax, 0
	lea	ecx, DWORD PTR _axis$[ebp+eax]
	call	??XVector@@QAEAAV0@M@Z			; Vector::operator*=

; 906  : 			axis[2] *= curRadius;

	push	ecx
	movss	xmm0, DWORD PTR _curRadius$[ebp]
	movss	DWORD PTR [esp], xmm0
	mov	eax, 12					; 0000000cH
	shl	eax, 1
	lea	ecx, DWORD PTR _axis$[ebp+eax]
	call	??XVector@@QAEAAV0@M@Z			; Vector::operator*=

; 907  : 		}
; 908  : 		else

	jmp	$LN57@Evaluate
$LN56@Evaluate:

; 909  : 		{
; 910  : 			// the normal should point at the viewer
; 911  : 			axis[0] = -Forward;

	lea	eax, DWORD PTR $T11[ebp]
	push	eax
	lea	ecx, DWORD PTR _Forward$[ebp]
	call	??GVector@@QBE?AV0@XZ			; Vector::operator-
	mov	ecx, 12					; 0000000cH
	imul	edx, ecx, 0
	lea	ecx, DWORD PTR _axis$[ebp+edx]
	mov	edx, DWORD PTR [eax]
	mov	DWORD PTR [ecx], edx
	mov	edx, DWORD PTR [eax+4]
	mov	DWORD PTR [ecx+4], edx
	mov	eax, DWORD PTR [eax+8]
	mov	DWORD PTR [ecx+8], eax

; 912  : 
; 913  : 			// scale the axes by radius
; 914  : 			axis[1] = Right * curRadius;

	push	ecx
	movss	xmm0, DWORD PTR _curRadius$[ebp]
	movss	DWORD PTR [esp], xmm0
	lea	eax, DWORD PTR $T10[ebp]
	push	eax
	lea	ecx, DWORD PTR _Right$[ebp]
	call	??DVector@@QBE?AV0@M@Z			; Vector::operator*
	mov	ecx, 12					; 0000000cH
	shl	ecx, 0
	lea	edx, DWORD PTR _axis$[ebp+ecx]
	mov	ecx, DWORD PTR [eax]
	mov	DWORD PTR [edx], ecx
	mov	ecx, DWORD PTR [eax+4]
	mov	DWORD PTR [edx+4], ecx
	mov	eax, DWORD PTR [eax+8]
	mov	DWORD PTR [edx+8], eax

; 915  : 			axis[2] = Up * curRadius;

	push	ecx
	movss	xmm0, DWORD PTR _curRadius$[ebp]
	movss	DWORD PTR [esp], xmm0
	lea	eax, DWORD PTR $T9[ebp]
	push	eax
	lea	ecx, DWORD PTR _Up$[ebp]
	call	??DVector@@QBE?AV0@M@Z			; Vector::operator*
	mov	ecx, 12					; 0000000cH
	shl	ecx, 1
	lea	edx, DWORD PTR _axis$[ebp+ecx]
	mov	ecx, DWORD PTR [eax]
	mov	DWORD PTR [edx], ecx
	mov	ecx, DWORD PTR [eax+4]
	mov	DWORD PTR [edx+4], ecx
	mov	eax, DWORD PTR [eax+8]
	mov	DWORD PTR [edx+8], eax
$LN57@Evaluate:

; 916  : 		}
; 917  : 
; 918  : 		verts[0] = org + axis[1] - axis[2];

	mov	eax, 12					; 0000000cH
	shl	eax, 1
	lea	ecx, DWORD PTR _axis$[ebp+eax]
	push	ecx
	lea	edx, DWORD PTR $T7[ebp]
	push	edx
	mov	eax, 12					; 0000000cH
	shl	eax, 0
	lea	ecx, DWORD PTR _axis$[ebp+eax]
	push	ecx
	lea	edx, DWORD PTR $T8[ebp]
	push	edx
	lea	ecx, DWORD PTR _org$[ebp]
	call	??HVector@@QBE?AV0@ABV0@@Z		; Vector::operator+
	mov	ecx, eax
	call	??GVector@@QBE?AV0@ABV0@@Z		; Vector::operator-
	mov	ecx, 12					; 0000000cH
	imul	edx, ecx, 0
	lea	ecx, DWORD PTR _verts$[ebp+edx]
	mov	edx, DWORD PTR [eax]
	mov	DWORD PTR [ecx], edx
	mov	edx, DWORD PTR [eax+4]
	mov	DWORD PTR [ecx+4], edx
	mov	eax, DWORD PTR [eax+8]
	mov	DWORD PTR [ecx+8], eax

; 919  : 		verts[1] = org + axis[1] + axis[2];

	mov	eax, 12					; 0000000cH
	shl	eax, 1
	lea	ecx, DWORD PTR _axis$[ebp+eax]
	push	ecx
	lea	edx, DWORD PTR $T5[ebp]
	push	edx
	mov	eax, 12					; 0000000cH
	shl	eax, 0
	lea	ecx, DWORD PTR _axis$[ebp+eax]
	push	ecx
	lea	edx, DWORD PTR $T6[ebp]
	push	edx
	lea	ecx, DWORD PTR _org$[ebp]
	call	??HVector@@QBE?AV0@ABV0@@Z		; Vector::operator+
	mov	ecx, eax
	call	??HVector@@QBE?AV0@ABV0@@Z		; Vector::operator+
	mov	ecx, 12					; 0000000cH
	shl	ecx, 0
	lea	edx, DWORD PTR _verts$[ebp+ecx]
	mov	ecx, DWORD PTR [eax]
	mov	DWORD PTR [edx], ecx
	mov	ecx, DWORD PTR [eax+4]
	mov	DWORD PTR [edx+4], ecx
	mov	eax, DWORD PTR [eax+8]
	mov	DWORD PTR [edx+8], eax

; 920  : 		verts[2] = org - axis[1] + axis[2];

	mov	eax, 12					; 0000000cH
	shl	eax, 1
	lea	ecx, DWORD PTR _axis$[ebp+eax]
	push	ecx
	lea	edx, DWORD PTR $T3[ebp]
	push	edx
	mov	eax, 12					; 0000000cH
	shl	eax, 0
	lea	ecx, DWORD PTR _axis$[ebp+eax]
	push	ecx
	lea	edx, DWORD PTR $T4[ebp]
	push	edx
	lea	ecx, DWORD PTR _org$[ebp]
	call	??GVector@@QBE?AV0@ABV0@@Z		; Vector::operator-
	mov	ecx, eax
	call	??HVector@@QBE?AV0@ABV0@@Z		; Vector::operator+
	mov	ecx, 12					; 0000000cH
	shl	ecx, 1
	lea	edx, DWORD PTR _verts$[ebp+ecx]
	mov	ecx, DWORD PTR [eax]
	mov	DWORD PTR [edx], ecx
	mov	ecx, DWORD PTR [eax+4]
	mov	DWORD PTR [edx+4], ecx
	mov	eax, DWORD PTR [eax+8]
	mov	DWORD PTR [edx+8], eax

; 921  : 		verts[3] = org - axis[1] - axis[2];

	mov	eax, 12					; 0000000cH
	shl	eax, 1
	lea	ecx, DWORD PTR _axis$[ebp+eax]
	push	ecx
	lea	edx, DWORD PTR $T1[ebp]
	push	edx
	mov	eax, 12					; 0000000cH
	shl	eax, 0
	lea	ecx, DWORD PTR _axis$[ebp+eax]
	push	ecx
	lea	edx, DWORD PTR $T2[ebp]
	push	edx
	lea	ecx, DWORD PTR _org$[ebp]
	call	??GVector@@QBE?AV0@ABV0@@Z		; Vector::operator-
	mov	ecx, eax
	call	??GVector@@QBE?AV0@ABV0@@Z		; Vector::operator-
	mov	ecx, 12					; 0000000cH
	imul	edx, ecx, 3
	lea	ecx, DWORD PTR _verts$[ebp+edx]
	mov	edx, DWORD PTR [eax]
	mov	DWORD PTR [ecx], edx
	mov	edx, DWORD PTR [eax+4]
	mov	DWORD PTR [ecx+4], edx
	mov	eax, DWORD PTR [eax+8]
	mov	DWORD PTR [ecx+8], eax
$LN55@Evaluate:

; 922  : 	}
; 923  : 
; 924  : 	ClearBounds( absmin, absmax );

	lea	eax, DWORD PTR _absmax$[ebp]
	push	eax
	lea	ecx, DWORD PTR _absmin$[ebp]
	push	ecx
	call	?ClearBounds@@YAXAAVVector@@0@Z		; ClearBounds
	add	esp, 8

; 925  : 	for( int i = 0; i < 4; i++ )

	mov	DWORD PTR _i$39[ebp], 0
	jmp	SHORT $LN11@Evaluate
$LN9@Evaluate:
	mov	eax, DWORD PTR _i$39[ebp]
	add	eax, 1
	mov	DWORD PTR _i$39[ebp], eax
$LN11@Evaluate:
	cmp	DWORD PTR _i$39[ebp], 4
	jge	SHORT $LN10@Evaluate

; 926  : 		AddPointToBounds( verts[i], absmin, absmax );

	push	ecx
	xorps	xmm0, xmm0
	movss	DWORD PTR [esp], xmm0
	lea	eax, DWORD PTR _absmax$[ebp]
	push	eax
	lea	ecx, DWORD PTR _absmin$[ebp]
	push	ecx
	imul	edx, DWORD PTR _i$39[ebp], 12
	lea	eax, DWORD PTR _verts$[ebp+edx]
	push	eax
	call	?AddPointToBounds@@YAXABVVector@@AAV1@1M@Z ; AddPointToBounds
	add	esp, 16					; 00000010H
	jmp	SHORT $LN9@Evaluate
$LN10@Evaluate:

; 927  : 
; 928  : 	GL_Blend( GL_TRUE );

	push	1
	call	?GL_Blend@@YAXH@Z			; GL_Blend
	add	esp, 4

; 929  : 
; 930  : 	if( FBitSet( m_iFlags, FPART_AFLOAT ) && FBitSet( m_iFlags, FPART_FLOATING_ORIENTED ) ) // visible from underwater

	mov	eax, DWORD PTR _this$[ebp]
	mov	ecx, DWORD PTR [eax+152]
	and	ecx, 8192				; 00002000H
	je	SHORT $LN59@Evaluate
	mov	eax, DWORD PTR _this$[ebp]
	mov	ecx, DWORD PTR [eax+152]
	and	ecx, 4096				; 00001000H
	je	SHORT $LN59@Evaluate

; 931  : 		GL_Cull( GL_NONE );

	push	0
	call	?GL_Cull@@YAXI@Z			; GL_Cull
	add	esp, 4

; 932  : 	else

	jmp	SHORT $LN60@Evaluate
$LN59@Evaluate:

; 933  : 		GL_Cull( GL_FRONT );

	push	1028					; 00000404H
	call	?GL_Cull@@YAXI@Z			; GL_Cull
	add	esp, 4
$LN60@Evaluate:

; 934  : 
; 935  : 	if( FBitSet( m_iFlags, FPART_ADDITIVE ) )

	mov	eax, DWORD PTR _this$[ebp]
	mov	ecx, DWORD PTR [eax+152]
	and	ecx, 64					; 00000040H
	je	SHORT $LN61@Evaluate

; 936  : 		pglBlendFunc( GL_SRC_ALPHA, GL_ONE );

	push	1
	push	770					; 00000302H
	call	DWORD PTR ?pglBlendFunc@@3P6GXII@ZA	; pglBlendFunc

; 937  : 	else

	jmp	SHORT $LN62@Evaluate
$LN61@Evaluate:

; 938  : 		pglBlendFunc( GL_SRC_ALPHA, GL_ONE_MINUS_SRC_ALPHA );

	push	771					; 00000303H
	push	770					; 00000302H
	call	DWORD PTR ?pglBlendFunc@@3P6GXII@ZA	; pglBlendFunc
$LN62@Evaluate:

; 939  : 
; 940  : 	// draw the particle
; 941  : 	GL_Bind( GL_TEXTURE0, m_hTexture );

	mov	eax, DWORD PTR _this$[ebp]
	mov	ecx, DWORD PTR [eax+140]
	push	ecx
	push	0
	call	DWORD PTR ?gRenderfuncs@@3Urender_api_s@@A+132
	add	esp, 8

; 942  : 
; 943  : 	pglTexEnvi( GL_TEXTURE_ENV, GL_TEXTURE_ENV_MODE, GL_MODULATE );

	push	8448					; 00002100H
	push	8704					; 00002200H
	push	8960					; 00002300H
	call	DWORD PTR ?pglTexEnvi@@3P6GXIIH@ZA	; pglTexEnvi

; 944  : 
; 945  : 	if( FBitSet( m_iFlags, FPART_ADDITIVE ) )

	mov	eax, DWORD PTR _this$[ebp]
	mov	ecx, DWORD PTR [eax+152]
	and	ecx, 64					; 00000040H
	je	SHORT $LN63@Evaluate

; 946  : 		pglColor4f( 1.0f, 1.0f, 1.0f, curAlpha );

	push	ecx
	movss	xmm0, DWORD PTR _curAlpha$[ebp]
	movss	DWORD PTR [esp], xmm0
	push	ecx
	movss	xmm0, DWORD PTR __real@3f800000
	movss	DWORD PTR [esp], xmm0
	push	ecx
	movss	xmm0, DWORD PTR __real@3f800000
	movss	DWORD PTR [esp], xmm0
	push	ecx
	movss	xmm0, DWORD PTR __real@3f800000
	movss	DWORD PTR [esp], xmm0
	call	DWORD PTR ?pglColor4f@@3P6GXMMMM@ZA	; pglColor4f
	jmp	SHORT $LN64@Evaluate
$LN63@Evaluate:

; 947  : 	else pglColor4f( curColor.x, curColor.y, curColor.z, curAlpha );

	push	ecx
	movss	xmm0, DWORD PTR _curAlpha$[ebp]
	movss	DWORD PTR [esp], xmm0
	push	ecx
	movss	xmm0, DWORD PTR _curColor$[ebp+8]
	movss	DWORD PTR [esp], xmm0
	push	ecx
	movss	xmm0, DWORD PTR _curColor$[ebp+4]
	movss	DWORD PTR [esp], xmm0
	push	ecx
	movss	xmm0, DWORD PTR _curColor$[ebp]
	movss	DWORD PTR [esp], xmm0
	call	DWORD PTR ?pglColor4f@@3P6GXMMMM@ZA	; pglColor4f
$LN64@Evaluate:

; 948  : 
; 949  : 	pglBegin( GL_QUADS );

	push	7
	call	DWORD PTR ?pglBegin@@3P6GXI@ZA		; pglBegin

; 950  : 	pglTexCoord2f( 0.0f, 1.0f );

	push	ecx
	movss	xmm0, DWORD PTR __real@3f800000
	movss	DWORD PTR [esp], xmm0
	push	ecx
	xorps	xmm0, xmm0
	movss	DWORD PTR [esp], xmm0
	call	DWORD PTR ?pglTexCoord2f@@3P6GXMM@ZA	; pglTexCoord2f

; 951  : 	pglVertex3fv( verts[0] );

	mov	eax, 12					; 0000000cH
	imul	ecx, eax, 0
	lea	ecx, DWORD PTR _verts$[ebp+ecx]
	call	??BVector@@QAEPAMXZ			; Vector::operator float *
	push	eax
	call	DWORD PTR ?pglVertex3fv@@3P6GXPBM@ZA	; pglVertex3fv

; 952  : 
; 953  : 	pglTexCoord2f( 0.0f, 0.0f );

	push	ecx
	xorps	xmm0, xmm0
	movss	DWORD PTR [esp], xmm0
	push	ecx
	xorps	xmm0, xmm0
	movss	DWORD PTR [esp], xmm0
	call	DWORD PTR ?pglTexCoord2f@@3P6GXMM@ZA	; pglTexCoord2f

; 954  : 	pglVertex3fv( verts[1] );

	mov	eax, 12					; 0000000cH
	shl	eax, 0
	lea	ecx, DWORD PTR _verts$[ebp+eax]
	call	??BVector@@QAEPAMXZ			; Vector::operator float *
	push	eax
	call	DWORD PTR ?pglVertex3fv@@3P6GXPBM@ZA	; pglVertex3fv

; 955  : 
; 956  : 	pglTexCoord2f( 1.0f, 0.0f );

	push	ecx
	xorps	xmm0, xmm0
	movss	DWORD PTR [esp], xmm0
	push	ecx
	movss	xmm0, DWORD PTR __real@3f800000
	movss	DWORD PTR [esp], xmm0
	call	DWORD PTR ?pglTexCoord2f@@3P6GXMM@ZA	; pglTexCoord2f

; 957  : 	pglVertex3fv( verts[2] );

	mov	eax, 12					; 0000000cH
	shl	eax, 1
	lea	ecx, DWORD PTR _verts$[ebp+eax]
	call	??BVector@@QAEPAMXZ			; Vector::operator float *
	push	eax
	call	DWORD PTR ?pglVertex3fv@@3P6GXPBM@ZA	; pglVertex3fv

; 958  : 
; 959  : 	pglTexCoord2f( 1.0f, 1.0f );

	push	ecx
	movss	xmm0, DWORD PTR __real@3f800000
	movss	DWORD PTR [esp], xmm0
	push	ecx
	movss	xmm0, DWORD PTR __real@3f800000
	movss	DWORD PTR [esp], xmm0
	call	DWORD PTR ?pglTexCoord2f@@3P6GXMM@ZA	; pglTexCoord2f

; 960  : 	pglVertex3fv( verts[3] );

	mov	eax, 12					; 0000000cH
	imul	ecx, eax, 3
	lea	ecx, DWORD PTR _verts$[ebp+ecx]
	call	??BVector@@QAEPAMXZ			; Vector::operator float *
	push	eax
	call	DWORD PTR ?pglVertex3fv@@3P6GXPBM@ZA	; pglVertex3fv

; 961  : 	pglEnd();

	call	DWORD PTR ?pglEnd@@3P6GXXZA		; pglEnd

; 962  : 
; 963  : 	return true;

	mov	al, 1
$LN1@Evaluate:

; 964  : }

	pop	edi
	pop	esi
	pop	ebx
	mov	ecx, DWORD PTR __$ArrayPad$[ebp]
	xor	ecx, ebp
	call	@__security_check_cookie@4
	mov	esp, ebp
	pop	ebp
	ret	4
?Evaluate@CQuakePart@@QAE_NM@Z ENDP			; CQuakePart::Evaluate
_TEXT	ENDS
; Function compile flags: /Odtp /ZI
;	COMDAT ??0pmtrace_s@@QAE@XZ
_TEXT	SEGMENT
_this$ = -4						; size = 4
??0pmtrace_s@@QAE@XZ PROC				; pmtrace_s::pmtrace_s, COMDAT
; _this$ = ecx
	push	ebp
	mov	ebp, esp
	sub	esp, 68					; 00000044H
	push	ebx
	push	esi
	push	edi
	mov	DWORD PTR _this$[ebp], ecx
	mov	ecx, DWORD PTR _this$[ebp]
	add	ecx, 20					; 00000014H
	call	??0Vector@@QAE@XZ			; Vector::Vector
	mov	ecx, DWORD PTR _this$[ebp]
	add	ecx, 32					; 00000020H
	call	??0pmplane_t@@QAE@XZ
	mov	ecx, DWORD PTR _this$[ebp]
	add	ecx, 52					; 00000034H
	call	??0Vector@@QAE@XZ			; Vector::Vector
	mov	eax, DWORD PTR _this$[ebp]
	pop	edi
	pop	esi
	pop	ebx
	mov	esp, ebp
	pop	ebp
	ret	0
??0pmtrace_s@@QAE@XZ ENDP				; pmtrace_s::pmtrace_s
_TEXT	ENDS
; Function compile flags: /Odtp /ZI
;	COMDAT ??0pmplane_t@@QAE@XZ
_TEXT	SEGMENT
_this$ = -4						; size = 4
??0pmplane_t@@QAE@XZ PROC				; pmplane_t::pmplane_t, COMDAT
; _this$ = ecx
	push	ebp
	mov	ebp, esp
	sub	esp, 68					; 00000044H
	push	ebx
	push	esi
	push	edi
	mov	DWORD PTR _this$[ebp], ecx
	mov	ecx, DWORD PTR _this$[ebp]
	call	??0Vector@@QAE@XZ			; Vector::Vector
	mov	eax, DWORD PTR _this$[ebp]
	pop	edi
	pop	esi
	pop	ebx
	mov	esp, ebp
	pop	ebp
	ret	0
??0pmplane_t@@QAE@XZ ENDP				; pmplane_t::pmplane_t
_TEXT	ENDS
; Function compile flags: /Odtp /ZI
; File d:\!diffusion 2020\source code 2022\client-server\game_shared\randomrange.h
;	COMDAT ?Random@RandomRange@@QAEMXZ
_TEXT	SEGMENT
_this$ = -4						; size = 4
?Random@RandomRange@@QAEMXZ PROC			; RandomRange::Random, COMDAT
; _this$ = ecx

; 57   : 	float Random() { return RANDOM_FLOAT(m_flMin, m_flMax); }

	push	ebp
	mov	ebp, esp
	sub	esp, 68					; 00000044H
	push	ebx
	push	esi
	push	edi
	mov	DWORD PTR _this$[ebp], ecx
	mov	eax, DWORD PTR _this$[ebp]
	push	ecx
	movss	xmm0, DWORD PTR [eax+4]
	movss	DWORD PTR [esp], xmm0
	mov	ecx, DWORD PTR _this$[ebp]
	push	ecx
	movss	xmm0, DWORD PTR [ecx]
	movss	DWORD PTR [esp], xmm0
	call	DWORD PTR ?gEngfuncs@@3Ucl_enginefuncs_s@@A+268
	add	esp, 8
	pop	edi
	pop	esi
	pop	ebx
	mov	esp, ebp
	pop	ebp
	ret	0
?Random@RandomRange@@QAEMXZ ENDP			; RandomRange::Random
_TEXT	ENDS
; Function compile flags: /Odtp /ZI
; File d:\!diffusion 2020\source code 2022\client-server\game_shared\randomrange.h
;	COMDAT ??0RandomRange@@QAE@PAD@Z
_TEXT	SEGMENT
tv80 = -80						; size = 4
_c$1 = -12						; size = 4
_cOneDot$ = -8						; size = 4
_this$ = -4						; size = 4
_szToken$ = 8						; size = 4
??0RandomRange@@QAE@PAD@Z PROC				; RandomRange::RandomRange, COMDAT
; _this$ = ecx

; 28   : 	RandomRange( char *szToken )

	push	ebp
	mov	ebp, esp
	sub	esp, 80					; 00000050H
	push	ebx
	push	esi
	push	edi
	mov	DWORD PTR _this$[ebp], ecx

; 29   : 	{
; 30   : 		char *cOneDot = NULL;

	mov	DWORD PTR _cOneDot$[ebp], 0

; 31   : 		m_bDefined = true;

	mov	eax, DWORD PTR _this$[ebp]
	mov	BYTE PTR [eax+8], 1

; 32   : 	
; 33   : 		for( char *c = szToken; *c; c++ )

	mov	eax, DWORD PTR _szToken$[ebp]
	mov	DWORD PTR _c$1[ebp], eax
	jmp	SHORT $LN4@RandomRang
$LN2@RandomRang:
	mov	eax, DWORD PTR _c$1[ebp]
	add	eax, 1
	mov	DWORD PTR _c$1[ebp], eax
$LN4@RandomRang:
	mov	eax, DWORD PTR _c$1[ebp]
	movsx	ecx, BYTE PTR [eax]
	test	ecx, ecx
	je	SHORT $LN3@RandomRang

; 34   : 		{
; 35   : 			if( *c == '.' )

	mov	eax, DWORD PTR _c$1[ebp]
	movsx	ecx, BYTE PTR [eax]
	cmp	ecx, 46					; 0000002eH
	jne	SHORT $LN5@RandomRang

; 36   : 			{
; 37   : 				if( cOneDot != NULL )

	cmp	DWORD PTR _cOneDot$[ebp], 0
	je	SHORT $LN7@RandomRang

; 38   : 				{
; 39   : 					// found two dots in a row - it's a range
; 40   : 					*cOneDot = 0; // null terminate the first number

	mov	eax, DWORD PTR _cOneDot$[ebp]
	mov	BYTE PTR [eax], 0

; 41   : 					m_flMin = Q_atof( szToken ); // parse the first number

	mov	eax, DWORD PTR _szToken$[ebp]
	push	eax
	call	?Q_atof@@YAMPBD@Z			; Q_atof
	add	esp, 4
	mov	ecx, DWORD PTR _this$[ebp]
	fstp	DWORD PTR [ecx]

; 42   : 					*cOneDot = '.'; // change it back, just in case

	mov	eax, DWORD PTR _cOneDot$[ebp]
	mov	BYTE PTR [eax], 46			; 0000002eH

; 43   : 					c++;

	mov	eax, DWORD PTR _c$1[ebp]
	add	eax, 1
	mov	DWORD PTR _c$1[ebp], eax

; 44   : 					m_flMax = Q_atof( c ); // parse the second number

	mov	eax, DWORD PTR _c$1[ebp]
	push	eax
	call	?Q_atof@@YAMPBD@Z			; Q_atof
	add	esp, 4
	mov	ecx, DWORD PTR _this$[ebp]
	fstp	DWORD PTR [ecx+4]

; 45   : 					return;

	jmp	SHORT $LN1@RandomRang
	jmp	SHORT $LN8@RandomRang
$LN7@RandomRang:

; 46   : 				}
; 47   : 				else cOneDot = c;

	mov	eax, DWORD PTR _c$1[ebp]
	mov	DWORD PTR _cOneDot$[ebp], eax
$LN8@RandomRang:
	jmp	SHORT $LN6@RandomRang
$LN5@RandomRang:

; 48   : 			}
; 49   : 			else cOneDot = NULL;

	mov	DWORD PTR _cOneDot$[ebp], 0
$LN6@RandomRang:

; 50   : 		}

	jmp	SHORT $LN2@RandomRang
$LN3@RandomRang:

; 51   : 
; 52   : 		// no range, just record the number
; 53   : 		m_flMax = m_flMin = Q_atof( szToken );

	mov	eax, DWORD PTR _szToken$[ebp]
	push	eax
	call	?Q_atof@@YAMPBD@Z			; Q_atof
	add	esp, 4
	fstp	DWORD PTR tv80[ebp]
	mov	ecx, DWORD PTR _this$[ebp]
	movss	xmm0, DWORD PTR tv80[ebp]
	movss	DWORD PTR [ecx], xmm0
	mov	edx, DWORD PTR _this$[ebp]
	movss	xmm0, DWORD PTR tv80[ebp]
	movss	DWORD PTR [edx+4], xmm0
$LN1@RandomRang:

; 54   :           }

	mov	eax, DWORD PTR _this$[ebp]
	pop	edi
	pop	esi
	pop	ebx
	mov	esp, ebp
	pop	ebp
	ret	4
??0RandomRange@@QAE@PAD@Z ENDP				; RandomRange::RandomRange
_TEXT	ENDS
; Function compile flags: /Odtp /ZI
; File d:\!diffusion 2020\source code 2022\client-server\game_shared\randomrange.h
;	COMDAT ??0RandomRange@@QAE@XZ
_TEXT	SEGMENT
_this$ = -4						; size = 4
??0RandomRange@@QAE@XZ PROC				; RandomRange::RandomRange, COMDAT
; _this$ = ecx

; 25   : 	RandomRange() { m_flMin = m_flMax = 0; m_bDefined = false; }

	push	ebp
	mov	ebp, esp
	sub	esp, 68					; 00000044H
	push	ebx
	push	esi
	push	edi
	mov	DWORD PTR _this$[ebp], ecx
	mov	eax, DWORD PTR _this$[ebp]
	xorps	xmm0, xmm0
	movss	DWORD PTR [eax+4], xmm0
	mov	ecx, DWORD PTR _this$[ebp]
	xorps	xmm0, xmm0
	movss	DWORD PTR [ecx], xmm0
	mov	eax, DWORD PTR _this$[ebp]
	mov	BYTE PTR [eax+8], 0
	mov	eax, DWORD PTR _this$[ebp]
	pop	edi
	pop	esi
	pop	ebx
	mov	esp, ebp
	pop	ebp
	ret	0
??0RandomRange@@QAE@XZ ENDP				; RandomRange::RandomRange
_TEXT	ENDS
; Function compile flags: /Odtp /ZI
; File d:\!diffusion 2020\source code 2022\client-server\game_shared\vector.h
;	COMDAT ?CrossProduct@@YA?AVVector@@ABV1@0@Z
_TEXT	SEGMENT
___$ReturnUdt$ = 8					; size = 4
_a$ = 12						; size = 4
_b$ = 16						; size = 4
?CrossProduct@@YA?AVVector@@ABV1@0@Z PROC		; CrossProduct, COMDAT

; 310  : inline Vector CrossProduct( const Vector& a, const Vector& b ) { return Vector( a.y*b.z - a.z*b.y, a.z*b.x - a.x*b.z, a.x*b.y - a.y*b.x ); }

	push	ebp
	mov	ebp, esp
	sub	esp, 64					; 00000040H
	push	ebx
	push	esi
	push	edi
	mov	eax, DWORD PTR _a$[ebp]
	mov	ecx, DWORD PTR _b$[ebp]
	movss	xmm0, DWORD PTR [eax]
	mulss	xmm0, DWORD PTR [ecx+4]
	mov	edx, DWORD PTR _a$[ebp]
	mov	eax, DWORD PTR _b$[ebp]
	movss	xmm1, DWORD PTR [edx+4]
	mulss	xmm1, DWORD PTR [eax]
	subss	xmm0, xmm1
	push	ecx
	movss	DWORD PTR [esp], xmm0
	mov	ecx, DWORD PTR _a$[ebp]
	mov	edx, DWORD PTR _b$[ebp]
	movss	xmm0, DWORD PTR [ecx+8]
	mulss	xmm0, DWORD PTR [edx]
	mov	eax, DWORD PTR _a$[ebp]
	mov	ecx, DWORD PTR _b$[ebp]
	movss	xmm1, DWORD PTR [eax]
	mulss	xmm1, DWORD PTR [ecx+8]
	subss	xmm0, xmm1
	push	ecx
	movss	DWORD PTR [esp], xmm0
	mov	edx, DWORD PTR _a$[ebp]
	mov	eax, DWORD PTR _b$[ebp]
	movss	xmm0, DWORD PTR [edx+4]
	mulss	xmm0, DWORD PTR [eax+8]
	mov	ecx, DWORD PTR _a$[ebp]
	mov	edx, DWORD PTR _b$[ebp]
	movss	xmm1, DWORD PTR [ecx+8]
	mulss	xmm1, DWORD PTR [edx+4]
	subss	xmm0, xmm1
	push	ecx
	movss	DWORD PTR [esp], xmm0
	mov	ecx, DWORD PTR ___$ReturnUdt$[ebp]
	call	??0Vector@@QAE@MMM@Z			; Vector::Vector
	mov	eax, DWORD PTR ___$ReturnUdt$[ebp]
	pop	edi
	pop	esi
	pop	ebx
	mov	esp, ebp
	pop	ebp
	ret	0
?CrossProduct@@YA?AVVector@@ABV1@0@Z ENDP		; CrossProduct
_TEXT	ENDS
; Function compile flags: /Odtp /ZI
; File d:\!diffusion 2020\source code 2022\client-server\game_shared\vector.h
;	COMDAT ?DotProduct@@YAMABVVector@@0@Z
_TEXT	SEGMENT
tv86 = -68						; size = 4
_a$ = 8							; size = 4
_b$ = 12						; size = 4
?DotProduct@@YAMABVVector@@0@Z PROC			; DotProduct, COMDAT

; 308  : inline float DotProduct(const Vector& a, const Vector& b ) { return( a.x * b.x + a.y * b.y + a.z * b.z ); }

	push	ebp
	mov	ebp, esp
	sub	esp, 68					; 00000044H
	push	ebx
	push	esi
	push	edi
	mov	eax, DWORD PTR _a$[ebp]
	mov	ecx, DWORD PTR _b$[ebp]
	movss	xmm0, DWORD PTR [eax]
	mulss	xmm0, DWORD PTR [ecx]
	mov	edx, DWORD PTR _a$[ebp]
	mov	eax, DWORD PTR _b$[ebp]
	movss	xmm1, DWORD PTR [edx+4]
	mulss	xmm1, DWORD PTR [eax+4]
	addss	xmm0, xmm1
	mov	ecx, DWORD PTR _a$[ebp]
	mov	edx, DWORD PTR _b$[ebp]
	movss	xmm1, DWORD PTR [ecx+8]
	mulss	xmm1, DWORD PTR [edx+8]
	addss	xmm0, xmm1
	movss	DWORD PTR tv86[ebp], xmm0
	fld	DWORD PTR tv86[ebp]
	pop	edi
	pop	esi
	pop	ebx
	mov	esp, ebp
	pop	ebp
	ret	0
?DotProduct@@YAMABVVector@@0@Z ENDP			; DotProduct
_TEXT	ENDS
; Function compile flags: /Odtp /ZI
; File d:\!diffusion 2020\source code 2022\client-server\game_shared\vector.h
;	COMDAT ??D@YA?AVVector@@MABV0@@Z
_TEXT	SEGMENT
___$ReturnUdt$ = 8					; size = 4
_fl$ = 12						; size = 4
_v$ = 16						; size = 4
??D@YA?AVVector@@MABV0@@Z PROC				; operator*, COMDAT

; 307  : inline Vector operator* ( float fl, const Vector& v ) { return v * fl; }

	push	ebp
	mov	ebp, esp
	sub	esp, 64					; 00000040H
	push	ebx
	push	esi
	push	edi
	push	ecx
	movss	xmm0, DWORD PTR _fl$[ebp]
	movss	DWORD PTR [esp], xmm0
	mov	eax, DWORD PTR ___$ReturnUdt$[ebp]
	push	eax
	mov	ecx, DWORD PTR _v$[ebp]
	call	??DVector@@QBE?AV0@M@Z			; Vector::operator*
	mov	eax, DWORD PTR ___$ReturnUdt$[ebp]
	pop	edi
	pop	esi
	pop	ebx
	mov	esp, ebp
	pop	ebp
	ret	0
??D@YA?AVVector@@MABV0@@Z ENDP				; operator*
_TEXT	ENDS
; Function compile flags: /Odtp /ZI
; File d:\!diffusion 2020\source code 2022\client-server\game_shared\vector.h
;	COMDAT ?Normalize@Vector@@QBE?AV1@XZ
_TEXT	SEGMENT
_flLen$ = -8						; size = 4
_this$ = -4						; size = 4
___$ReturnUdt$ = 8					; size = 4
?Normalize@Vector@@QBE?AV1@XZ PROC			; Vector::Normalize, COMDAT
; _this$ = ecx

; 251  : 	{

	push	ebp
	mov	ebp, esp
	sub	esp, 72					; 00000048H
	push	ebx
	push	esi
	push	edi
	mov	DWORD PTR _this$[ebp], ecx

; 252  : 		float flLen = Length();

	mov	ecx, DWORD PTR _this$[ebp]
	call	?Length@Vector@@QBEMXZ			; Vector::Length
	fstp	DWORD PTR _flLen$[ebp]

; 253  : 
; 254  : 		if( flLen )

	movss	xmm0, DWORD PTR _flLen$[ebp]
	ucomiss	xmm0, DWORD PTR __real@00000000
	lahf
	test	ah, 68					; 00000044H
	jnp	SHORT $LN2@Normalize

; 255  : 		{
; 256  : 			flLen = 1.0f / flLen;

	movss	xmm0, DWORD PTR __real@3f800000
	divss	xmm0, DWORD PTR _flLen$[ebp]
	movss	DWORD PTR _flLen$[ebp], xmm0

; 257  : 			return Vector( x * flLen, y * flLen, z * flLen );

	mov	eax, DWORD PTR _this$[ebp]
	movss	xmm0, DWORD PTR [eax+8]
	mulss	xmm0, DWORD PTR _flLen$[ebp]
	push	ecx
	movss	DWORD PTR [esp], xmm0
	mov	ecx, DWORD PTR _this$[ebp]
	movss	xmm0, DWORD PTR [ecx+4]
	mulss	xmm0, DWORD PTR _flLen$[ebp]
	push	ecx
	movss	DWORD PTR [esp], xmm0
	mov	edx, DWORD PTR _this$[ebp]
	movss	xmm0, DWORD PTR [edx]
	mulss	xmm0, DWORD PTR _flLen$[ebp]
	push	ecx
	movss	DWORD PTR [esp], xmm0
	mov	ecx, DWORD PTR ___$ReturnUdt$[ebp]
	call	??0Vector@@QAE@MMM@Z			; Vector::Vector
	mov	eax, DWORD PTR ___$ReturnUdt$[ebp]
	jmp	SHORT $LN1@Normalize
$LN2@Normalize:

; 258  : 		}
; 259  : 
; 260  : 		return *this; // can't normalize

	mov	eax, DWORD PTR _this$[ebp]
	push	eax
	mov	ecx, DWORD PTR ___$ReturnUdt$[ebp]
	call	??0Vector@@QAE@ABV0@@Z			; Vector::Vector
	mov	eax, DWORD PTR ___$ReturnUdt$[ebp]
$LN1@Normalize:

; 261  : 	}

	pop	edi
	pop	esi
	pop	ebx
	mov	esp, ebp
	pop	ebp
	ret	4
?Normalize@Vector@@QBE?AV1@XZ ENDP			; Vector::Normalize
_TEXT	ENDS
; Function compile flags: /Odtp /ZI
; File d:\!diffusion 2020\source code 2022\client-server\game_shared\vector.h
;	COMDAT ??BVector@@QBEPBMXZ
_TEXT	SEGMENT
_this$ = -4						; size = 4
??BVector@@QBEPBMXZ PROC				; Vector::operator float const *, COMDAT
; _this$ = ecx

; 248  : 	operator const float *() const		{ return &x; } 

	push	ebp
	mov	ebp, esp
	sub	esp, 68					; 00000044H
	push	ebx
	push	esi
	push	edi
	mov	DWORD PTR _this$[ebp], ecx
	mov	eax, DWORD PTR _this$[ebp]
	pop	edi
	pop	esi
	pop	ebx
	mov	esp, ebp
	pop	ebp
	ret	0
??BVector@@QBEPBMXZ ENDP				; Vector::operator float const *
_TEXT	ENDS
; Function compile flags: /Odtp /ZI
; File d:\!diffusion 2020\source code 2022\client-server\game_shared\vector.h
;	COMDAT ??BVector@@QAEPAMXZ
_TEXT	SEGMENT
_this$ = -4						; size = 4
??BVector@@QAEPAMXZ PROC				; Vector::operator float *, COMDAT
; _this$ = ecx

; 247  : 	operator float *()				{ return &x; } // Vectors will now automatically convert to float * when needed

	push	ebp
	mov	ebp, esp
	sub	esp, 68					; 00000044H
	push	ebx
	push	esi
	push	edi
	mov	DWORD PTR _this$[ebp], ecx
	mov	eax, DWORD PTR _this$[ebp]
	pop	edi
	pop	esi
	pop	ebx
	mov	esp, ebp
	pop	ebp
	ret	0
??BVector@@QAEPAMXZ ENDP				; Vector::operator float *
_TEXT	ENDS
; Function compile flags: /Odtp /ZI
; File d:\!diffusion 2020\source code 2022\client-server\game_shared\vector.h
;	COMDAT ?Length@Vector@@QBEMXZ
_TEXT	SEGMENT
tv91 = -72						; size = 4
_this$ = -4						; size = 4
?Length@Vector@@QBEMXZ PROC				; Vector::Length, COMDAT
; _this$ = ecx

; 245  : 	inline float Length(void) const		{ return sqrt( x*x + y*y + z*z ); }

	push	ebp
	mov	ebp, esp
	sub	esp, 72					; 00000048H
	push	ebx
	push	esi
	push	edi
	mov	DWORD PTR _this$[ebp], ecx
	mov	eax, DWORD PTR _this$[ebp]
	mov	ecx, DWORD PTR _this$[ebp]
	movss	xmm0, DWORD PTR [eax]
	mulss	xmm0, DWORD PTR [ecx]
	mov	edx, DWORD PTR _this$[ebp]
	mov	eax, DWORD PTR _this$[ebp]
	movss	xmm1, DWORD PTR [edx+4]
	mulss	xmm1, DWORD PTR [eax+4]
	addss	xmm0, xmm1
	mov	ecx, DWORD PTR _this$[ebp]
	mov	edx, DWORD PTR _this$[ebp]
	movss	xmm1, DWORD PTR [ecx+8]
	mulss	xmm1, DWORD PTR [edx+8]
	addss	xmm0, xmm1
	cvtss2sd xmm0, xmm0
	sub	esp, 8
	movsd	QWORD PTR [esp], xmm0
	call	_sqrt
	add	esp, 8
	fstp	DWORD PTR tv91[ebp]
	fld	DWORD PTR tv91[ebp]
	pop	edi
	pop	esi
	pop	ebx
	mov	esp, ebp
	pop	ebp
	ret	0
?Length@Vector@@QBEMXZ ENDP				; Vector::Length
_TEXT	ENDS
; Function compile flags: /Odtp /ZI
; File d:\!diffusion 2020\source code 2022\client-server\game_shared\vector.h
;	COMDAT ?IsNull@Vector@@QBE_NM@Z
_TEXT	SEGMENT
tv135 = -76						; size = 8
tv128 = -76						; size = 8
tv89 = -76						; size = 8
_this$ = -4						; size = 4
_epsilon$ = 8						; size = 4
?IsNull@Vector@@QBE_NM@Z PROC				; Vector::IsNull, COMDAT
; _this$ = ecx

; 234  : 	{

	push	ebp
	mov	ebp, esp
	sub	esp, 76					; 0000004cH
	push	ebx
	push	esi
	push	edi
	mov	DWORD PTR _this$[ebp], ecx

; 235  : 		if (fabs(x) > epsilon) return false;

	mov	eax, DWORD PTR _this$[ebp]
	cvtss2sd xmm0, DWORD PTR [eax]
	sub	esp, 8
	movsd	QWORD PTR [esp], xmm0
	call	_fabs
	add	esp, 8
	fstp	QWORD PTR tv89[ebp]
	movsd	xmm0, QWORD PTR tv89[ebp]
	cvtss2sd xmm1, DWORD PTR _epsilon$[ebp]
	comisd	xmm0, xmm1
	jbe	SHORT $LN2@IsNull
	xor	al, al
	jmp	SHORT $LN1@IsNull
$LN2@IsNull:

; 236  : 		if (fabs(y) > epsilon) return false;

	mov	eax, DWORD PTR _this$[ebp]
	cvtss2sd xmm0, DWORD PTR [eax+4]
	sub	esp, 8
	movsd	QWORD PTR [esp], xmm0
	call	_fabs
	add	esp, 8
	fstp	QWORD PTR tv128[ebp]
	movsd	xmm0, QWORD PTR tv128[ebp]
	cvtss2sd xmm1, DWORD PTR _epsilon$[ebp]
	comisd	xmm0, xmm1
	jbe	SHORT $LN3@IsNull
	xor	al, al
	jmp	SHORT $LN1@IsNull
$LN3@IsNull:

; 237  : 		if (fabs(z) > epsilon) return false;

	mov	eax, DWORD PTR _this$[ebp]
	cvtss2sd xmm0, DWORD PTR [eax+8]
	sub	esp, 8
	movsd	QWORD PTR [esp], xmm0
	call	_fabs
	add	esp, 8
	fstp	QWORD PTR tv135[ebp]
	movsd	xmm0, QWORD PTR tv135[ebp]
	cvtss2sd xmm1, DWORD PTR _epsilon$[ebp]
	comisd	xmm0, xmm1
	jbe	SHORT $LN4@IsNull
	xor	al, al
	jmp	SHORT $LN1@IsNull
$LN4@IsNull:

; 238  : 		return true;

	mov	al, 1
$LN1@IsNull:

; 239  : 	}

	pop	edi
	pop	esi
	pop	ebx
	mov	esp, ebp
	pop	ebp
	ret	4
?IsNull@Vector@@QBE_NM@Z ENDP				; Vector::IsNull
_TEXT	ENDS
; Function compile flags: /Odtp /ZI
; File d:\!diffusion 2020\source code 2022\client-server\game_shared\vector.h
;	COMDAT ??XVector@@QAEAAV0@M@Z
_TEXT	SEGMENT
_this$ = -4						; size = 4
_s$ = 8							; size = 4
??XVector@@QAEAAV0@M@Z PROC				; Vector::operator*=, COMDAT
; _this$ = ecx

; 183  : 	{

	push	ebp
	mov	ebp, esp
	sub	esp, 68					; 00000044H
	push	ebx
	push	esi
	push	edi
	mov	DWORD PTR _this$[ebp], ecx

; 184  : 		x *= s; y *= s; z *= s;

	mov	eax, DWORD PTR _this$[ebp]
	movss	xmm0, DWORD PTR [eax]
	mulss	xmm0, DWORD PTR _s$[ebp]
	mov	ecx, DWORD PTR _this$[ebp]
	movss	DWORD PTR [ecx], xmm0
	mov	eax, DWORD PTR _this$[ebp]
	movss	xmm0, DWORD PTR [eax+4]
	mulss	xmm0, DWORD PTR _s$[ebp]
	mov	ecx, DWORD PTR _this$[ebp]
	movss	DWORD PTR [ecx+4], xmm0
	mov	eax, DWORD PTR _this$[ebp]
	movss	xmm0, DWORD PTR [eax+8]
	mulss	xmm0, DWORD PTR _s$[ebp]
	mov	ecx, DWORD PTR _this$[ebp]
	movss	DWORD PTR [ecx+8], xmm0

; 185  : 		return *this;

	mov	eax, DWORD PTR _this$[ebp]

; 186  : 	}

	pop	edi
	pop	esi
	pop	ebx
	mov	esp, ebp
	pop	ebp
	ret	4
??XVector@@QAEAAV0@M@Z ENDP				; Vector::operator*=
_TEXT	ENDS
; Function compile flags: /Odtp /ZI
; File d:\!diffusion 2020\source code 2022\client-server\game_shared\vector.h
;	COMDAT ??XVector@@QAEAAV0@ABV0@@Z
_TEXT	SEGMENT
_this$ = -4						; size = 4
_v$ = 8							; size = 4
??XVector@@QAEAAV0@ABV0@@Z PROC				; Vector::operator*=, COMDAT
; _this$ = ecx

; 178  : 	{

	push	ebp
	mov	ebp, esp
	sub	esp, 68					; 00000044H
	push	ebx
	push	esi
	push	edi
	mov	DWORD PTR _this$[ebp], ecx

; 179  : 		x *= v.x; y *= v.y; z *= v.z;

	mov	eax, DWORD PTR _this$[ebp]
	mov	ecx, DWORD PTR _v$[ebp]
	movss	xmm0, DWORD PTR [eax]
	mulss	xmm0, DWORD PTR [ecx]
	mov	edx, DWORD PTR _this$[ebp]
	movss	DWORD PTR [edx], xmm0
	mov	eax, DWORD PTR _this$[ebp]
	mov	ecx, DWORD PTR _v$[ebp]
	movss	xmm0, DWORD PTR [eax+4]
	mulss	xmm0, DWORD PTR [ecx+4]
	mov	edx, DWORD PTR _this$[ebp]
	movss	DWORD PTR [edx+4], xmm0
	mov	eax, DWORD PTR _this$[ebp]
	mov	ecx, DWORD PTR _v$[ebp]
	movss	xmm0, DWORD PTR [eax+8]
	mulss	xmm0, DWORD PTR [ecx+8]
	mov	edx, DWORD PTR _this$[ebp]
	movss	DWORD PTR [edx+8], xmm0

; 180  : 		return *this;

	mov	eax, DWORD PTR _this$[ebp]

; 181  : 	}

	pop	edi
	pop	esi
	pop	ebx
	mov	esp, ebp
	pop	ebp
	ret	4
??XVector@@QAEAAV0@ABV0@@Z ENDP				; Vector::operator*=
_TEXT	ENDS
; Function compile flags: /Odtp /ZI
; File d:\!diffusion 2020\source code 2022\client-server\game_shared\vector.h
;	COMDAT ??ZVector@@QAEAAV0@ABV0@@Z
_TEXT	SEGMENT
_this$ = -4						; size = 4
_v$ = 8							; size = 4
??ZVector@@QAEAAV0@ABV0@@Z PROC				; Vector::operator-=, COMDAT
; _this$ = ecx

; 173  : 	{

	push	ebp
	mov	ebp, esp
	sub	esp, 68					; 00000044H
	push	ebx
	push	esi
	push	edi
	mov	DWORD PTR _this$[ebp], ecx

; 174  : 		x-=v.x; y-=v.y; z -= v.z;	

	mov	eax, DWORD PTR _this$[ebp]
	mov	ecx, DWORD PTR _v$[ebp]
	movss	xmm0, DWORD PTR [eax]
	subss	xmm0, DWORD PTR [ecx]
	mov	edx, DWORD PTR _this$[ebp]
	movss	DWORD PTR [edx], xmm0
	mov	eax, DWORD PTR _this$[ebp]
	mov	ecx, DWORD PTR _v$[ebp]
	movss	xmm0, DWORD PTR [eax+4]
	subss	xmm0, DWORD PTR [ecx+4]
	mov	edx, DWORD PTR _this$[ebp]
	movss	DWORD PTR [edx+4], xmm0
	mov	eax, DWORD PTR _this$[ebp]
	mov	ecx, DWORD PTR _v$[ebp]
	movss	xmm0, DWORD PTR [eax+8]
	subss	xmm0, DWORD PTR [ecx+8]
	mov	edx, DWORD PTR _this$[ebp]
	movss	DWORD PTR [edx+8], xmm0

; 175  : 		return *this;

	mov	eax, DWORD PTR _this$[ebp]

; 176  : 	}		

	pop	edi
	pop	esi
	pop	ebx
	mov	esp, ebp
	pop	ebp
	ret	4
??ZVector@@QAEAAV0@ABV0@@Z ENDP				; Vector::operator-=
_TEXT	ENDS
; Function compile flags: /Odtp /ZI
; File d:\!diffusion 2020\source code 2022\client-server\game_shared\vector.h
;	COMDAT ??YVector@@QAEAAV0@ABV0@@Z
_TEXT	SEGMENT
_this$ = -4						; size = 4
_v$ = 8							; size = 4
??YVector@@QAEAAV0@ABV0@@Z PROC				; Vector::operator+=, COMDAT
; _this$ = ecx

; 168  : 	{

	push	ebp
	mov	ebp, esp
	sub	esp, 68					; 00000044H
	push	ebx
	push	esi
	push	edi
	mov	DWORD PTR _this$[ebp], ecx

; 169  : 		x+=v.x; y+=v.y; z += v.z;	

	mov	eax, DWORD PTR _this$[ebp]
	mov	ecx, DWORD PTR _v$[ebp]
	movss	xmm0, DWORD PTR [eax]
	addss	xmm0, DWORD PTR [ecx]
	mov	edx, DWORD PTR _this$[ebp]
	movss	DWORD PTR [edx], xmm0
	mov	eax, DWORD PTR _this$[ebp]
	mov	ecx, DWORD PTR _v$[ebp]
	movss	xmm0, DWORD PTR [eax+4]
	addss	xmm0, DWORD PTR [ecx+4]
	mov	edx, DWORD PTR _this$[ebp]
	movss	DWORD PTR [edx+4], xmm0
	mov	eax, DWORD PTR _this$[ebp]
	mov	ecx, DWORD PTR _v$[ebp]
	movss	xmm0, DWORD PTR [eax+8]
	addss	xmm0, DWORD PTR [ecx+8]
	mov	edx, DWORD PTR _this$[ebp]
	movss	DWORD PTR [edx+8], xmm0

; 170  : 		return *this;

	mov	eax, DWORD PTR _this$[ebp]

; 171  : 	}			

	pop	edi
	pop	esi
	pop	ebx
	mov	esp, ebp
	pop	ebp
	ret	4
??YVector@@QAEAAV0@ABV0@@Z ENDP				; Vector::operator+=
_TEXT	ENDS
; Function compile flags: /Odtp /ZI
; File d:\!diffusion 2020\source code 2022\client-server\game_shared\vector.h
;	COMDAT ??KVector@@QBE?AV0@M@Z
_TEXT	SEGMENT
_this$ = -4						; size = 4
___$ReturnUdt$ = 8					; size = 4
_fl$ = 12						; size = 4
??KVector@@QBE?AV0@M@Z PROC				; Vector::operator/, COMDAT
; _this$ = ecx

; 163  : 	inline Vector operator/(float fl) const		{ return Vector(x/fl, y/fl, z/fl);	   }

	push	ebp
	mov	ebp, esp
	sub	esp, 68					; 00000044H
	push	ebx
	push	esi
	push	edi
	mov	DWORD PTR _this$[ebp], ecx
	mov	eax, DWORD PTR _this$[ebp]
	movss	xmm0, DWORD PTR [eax+8]
	divss	xmm0, DWORD PTR _fl$[ebp]
	push	ecx
	movss	DWORD PTR [esp], xmm0
	mov	ecx, DWORD PTR _this$[ebp]
	movss	xmm0, DWORD PTR [ecx+4]
	divss	xmm0, DWORD PTR _fl$[ebp]
	push	ecx
	movss	DWORD PTR [esp], xmm0
	mov	edx, DWORD PTR _this$[ebp]
	movss	xmm0, DWORD PTR [edx]
	divss	xmm0, DWORD PTR _fl$[ebp]
	push	ecx
	movss	DWORD PTR [esp], xmm0
	mov	ecx, DWORD PTR ___$ReturnUdt$[ebp]
	call	??0Vector@@QAE@MMM@Z			; Vector::Vector
	mov	eax, DWORD PTR ___$ReturnUdt$[ebp]
	pop	edi
	pop	esi
	pop	ebx
	mov	esp, ebp
	pop	ebp
	ret	8
??KVector@@QBE?AV0@M@Z ENDP				; Vector::operator/
_TEXT	ENDS
; Function compile flags: /Odtp /ZI
; File d:\!diffusion 2020\source code 2022\client-server\game_shared\vector.h
;	COMDAT ??DVector@@QBE?AV0@M@Z
_TEXT	SEGMENT
_this$ = -4						; size = 4
___$ReturnUdt$ = 8					; size = 4
_fl$ = 12						; size = 4
??DVector@@QBE?AV0@M@Z PROC				; Vector::operator*, COMDAT
; _this$ = ecx

; 162  : 	inline Vector operator*(float fl) const		{ return Vector(x*fl, y*fl, z*fl);	   }

	push	ebp
	mov	ebp, esp
	sub	esp, 68					; 00000044H
	push	ebx
	push	esi
	push	edi
	mov	DWORD PTR _this$[ebp], ecx
	mov	eax, DWORD PTR _this$[ebp]
	movss	xmm0, DWORD PTR [eax+8]
	mulss	xmm0, DWORD PTR _fl$[ebp]
	push	ecx
	movss	DWORD PTR [esp], xmm0
	mov	ecx, DWORD PTR _this$[ebp]
	movss	xmm0, DWORD PTR [ecx+4]
	mulss	xmm0, DWORD PTR _fl$[ebp]
	push	ecx
	movss	DWORD PTR [esp], xmm0
	mov	edx, DWORD PTR _this$[ebp]
	movss	xmm0, DWORD PTR [edx]
	mulss	xmm0, DWORD PTR _fl$[ebp]
	push	ecx
	movss	DWORD PTR [esp], xmm0
	mov	ecx, DWORD PTR ___$ReturnUdt$[ebp]
	call	??0Vector@@QAE@MMM@Z			; Vector::Vector
	mov	eax, DWORD PTR ___$ReturnUdt$[ebp]
	pop	edi
	pop	esi
	pop	ebx
	mov	esp, ebp
	pop	ebp
	ret	8
??DVector@@QBE?AV0@M@Z ENDP				; Vector::operator*
_TEXT	ENDS
; Function compile flags: /Odtp /ZI
; File d:\!diffusion 2020\source code 2022\client-server\game_shared\vector.h
;	COMDAT ??GVector@@QBE?AV0@ABV0@@Z
_TEXT	SEGMENT
_this$ = -4						; size = 4
___$ReturnUdt$ = 8					; size = 4
_v$ = 12						; size = 4
??GVector@@QBE?AV0@ABV0@@Z PROC				; Vector::operator-, COMDAT
; _this$ = ecx

; 159  : 	inline Vector operator-(const Vector& v) const	{ return Vector(x-v.x, y-v.y, z-v.z);	   }

	push	ebp
	mov	ebp, esp
	sub	esp, 68					; 00000044H
	push	ebx
	push	esi
	push	edi
	mov	DWORD PTR _this$[ebp], ecx
	mov	eax, DWORD PTR _this$[ebp]
	mov	ecx, DWORD PTR _v$[ebp]
	movss	xmm0, DWORD PTR [eax+8]
	subss	xmm0, DWORD PTR [ecx+8]
	push	ecx
	movss	DWORD PTR [esp], xmm0
	mov	edx, DWORD PTR _this$[ebp]
	mov	eax, DWORD PTR _v$[ebp]
	movss	xmm0, DWORD PTR [edx+4]
	subss	xmm0, DWORD PTR [eax+4]
	push	ecx
	movss	DWORD PTR [esp], xmm0
	mov	ecx, DWORD PTR _this$[ebp]
	mov	edx, DWORD PTR _v$[ebp]
	movss	xmm0, DWORD PTR [ecx]
	subss	xmm0, DWORD PTR [edx]
	push	ecx
	movss	DWORD PTR [esp], xmm0
	mov	ecx, DWORD PTR ___$ReturnUdt$[ebp]
	call	??0Vector@@QAE@MMM@Z			; Vector::Vector
	mov	eax, DWORD PTR ___$ReturnUdt$[ebp]
	pop	edi
	pop	esi
	pop	ebx
	mov	esp, ebp
	pop	ebp
	ret	8
??GVector@@QBE?AV0@ABV0@@Z ENDP				; Vector::operator-
_TEXT	ENDS
; Function compile flags: /Odtp /ZI
; File d:\!diffusion 2020\source code 2022\client-server\game_shared\vector.h
;	COMDAT ??HVector@@QBE?AV0@ABV0@@Z
_TEXT	SEGMENT
_this$ = -4						; size = 4
___$ReturnUdt$ = 8					; size = 4
_v$ = 12						; size = 4
??HVector@@QBE?AV0@ABV0@@Z PROC				; Vector::operator+, COMDAT
; _this$ = ecx

; 158  : 	inline Vector operator+(const Vector& v) const	{ return Vector(x+v.x, y+v.y, z+v.z);	   }

	push	ebp
	mov	ebp, esp
	sub	esp, 68					; 00000044H
	push	ebx
	push	esi
	push	edi
	mov	DWORD PTR _this$[ebp], ecx
	mov	eax, DWORD PTR _this$[ebp]
	mov	ecx, DWORD PTR _v$[ebp]
	movss	xmm0, DWORD PTR [eax+8]
	addss	xmm0, DWORD PTR [ecx+8]
	push	ecx
	movss	DWORD PTR [esp], xmm0
	mov	edx, DWORD PTR _this$[ebp]
	mov	eax, DWORD PTR _v$[ebp]
	movss	xmm0, DWORD PTR [edx+4]
	addss	xmm0, DWORD PTR [eax+4]
	push	ecx
	movss	DWORD PTR [esp], xmm0
	mov	ecx, DWORD PTR _this$[ebp]
	mov	edx, DWORD PTR _v$[ebp]
	movss	xmm0, DWORD PTR [ecx]
	addss	xmm0, DWORD PTR [edx]
	push	ecx
	movss	DWORD PTR [esp], xmm0
	mov	ecx, DWORD PTR ___$ReturnUdt$[ebp]
	call	??0Vector@@QAE@MMM@Z			; Vector::Vector
	mov	eax, DWORD PTR ___$ReturnUdt$[ebp]
	pop	edi
	pop	esi
	pop	ebx
	mov	esp, ebp
	pop	ebp
	ret	8
??HVector@@QBE?AV0@ABV0@@Z ENDP				; Vector::operator+
_TEXT	ENDS
; Function compile flags: /Odtp /ZI
; File d:\!diffusion 2020\source code 2022\client-server\game_shared\vector.h
;	COMDAT ??GVector@@QBE?AV0@XZ
_TEXT	SEGMENT
_this$ = -4						; size = 4
___$ReturnUdt$ = 8					; size = 4
??GVector@@QBE?AV0@XZ PROC				; Vector::operator-, COMDAT
; _this$ = ecx

; 155  : 	inline Vector operator-(void) const		{ return Vector(-x,-y,-z);		   }

	push	ebp
	mov	ebp, esp
	sub	esp, 68					; 00000044H
	push	ebx
	push	esi
	push	edi
	mov	DWORD PTR _this$[ebp], ecx
	mov	eax, DWORD PTR _this$[ebp]
	movss	xmm0, DWORD PTR [eax+8]
	xorps	xmm0, DWORD PTR __xmm@80000000800000008000000080000000
	push	ecx
	movss	DWORD PTR [esp], xmm0
	mov	ecx, DWORD PTR _this$[ebp]
	movss	xmm0, DWORD PTR [ecx+4]
	xorps	xmm0, DWORD PTR __xmm@80000000800000008000000080000000
	push	ecx
	movss	DWORD PTR [esp], xmm0
	mov	edx, DWORD PTR _this$[ebp]
	movss	xmm0, DWORD PTR [edx]
	xorps	xmm0, DWORD PTR __xmm@80000000800000008000000080000000
	push	ecx
	movss	DWORD PTR [esp], xmm0
	mov	ecx, DWORD PTR ___$ReturnUdt$[ebp]
	call	??0Vector@@QAE@MMM@Z			; Vector::Vector
	mov	eax, DWORD PTR ___$ReturnUdt$[ebp]
	pop	edi
	pop	esi
	pop	ebx
	mov	esp, ebp
	pop	ebp
	ret	4
??GVector@@QBE?AV0@XZ ENDP				; Vector::operator-
_TEXT	ENDS
; Function compile flags: /Odtp /ZI
; File d:\!diffusion 2020\source code 2022\client-server\game_shared\vector.h
;	COMDAT ??0Vector@@QAE@ABV0@@Z
_TEXT	SEGMENT
_this$ = -4						; size = 4
_v$ = 8							; size = 4
??0Vector@@QAE@ABV0@@Z PROC				; Vector::Vector, COMDAT
; _this$ = ecx

; 145  : 	inline Vector(const Vector& v)		{ x = v.x; y = v.y; z = v.z;		   }

	push	ebp
	mov	ebp, esp
	sub	esp, 68					; 00000044H
	push	ebx
	push	esi
	push	edi
	mov	DWORD PTR _this$[ebp], ecx
	mov	eax, DWORD PTR _this$[ebp]
	mov	ecx, DWORD PTR _v$[ebp]
	mov	edx, DWORD PTR [ecx]
	mov	DWORD PTR [eax], edx
	mov	eax, DWORD PTR _this$[ebp]
	mov	ecx, DWORD PTR _v$[ebp]
	mov	edx, DWORD PTR [ecx+4]
	mov	DWORD PTR [eax+4], edx
	mov	eax, DWORD PTR _this$[ebp]
	mov	ecx, DWORD PTR _v$[ebp]
	mov	edx, DWORD PTR [ecx+8]
	mov	DWORD PTR [eax+8], edx
	mov	eax, DWORD PTR _this$[ebp]
	pop	edi
	pop	esi
	pop	ebx
	mov	esp, ebp
	pop	ebp
	ret	4
??0Vector@@QAE@ABV0@@Z ENDP				; Vector::Vector
_TEXT	ENDS
; Function compile flags: /Odtp /ZI
; File d:\!diffusion 2020\source code 2022\client-server\game_shared\vector.h
;	COMDAT ??0Vector@@QAE@MMM@Z
_TEXT	SEGMENT
_this$ = -4						; size = 4
_X$ = 8							; size = 4
_Y$ = 12						; size = 4
_Z$ = 16						; size = 4
??0Vector@@QAE@MMM@Z PROC				; Vector::Vector, COMDAT
; _this$ = ecx

; 144  : 	inline Vector(float X, float Y, float Z)	{ x = X; y = Y; z = Z;                     }

	push	ebp
	mov	ebp, esp
	sub	esp, 68					; 00000044H
	push	ebx
	push	esi
	push	edi
	mov	DWORD PTR _this$[ebp], ecx
	mov	eax, DWORD PTR _this$[ebp]
	movss	xmm0, DWORD PTR _X$[ebp]
	movss	DWORD PTR [eax], xmm0
	mov	eax, DWORD PTR _this$[ebp]
	movss	xmm0, DWORD PTR _Y$[ebp]
	movss	DWORD PTR [eax+4], xmm0
	mov	eax, DWORD PTR _this$[ebp]
	movss	xmm0, DWORD PTR _Z$[ebp]
	movss	DWORD PTR [eax+8], xmm0
	mov	eax, DWORD PTR _this$[ebp]
	pop	edi
	pop	esi
	pop	ebx
	mov	esp, ebp
	pop	ebp
	ret	12					; 0000000cH
??0Vector@@QAE@MMM@Z ENDP				; Vector::Vector
_TEXT	ENDS
; Function compile flags: /Odtp /ZI
; File d:\!diffusion 2020\source code 2022\client-server\game_shared\vector.h
;	COMDAT ??0Vector@@QAE@XZ
_TEXT	SEGMENT
_this$ = -4						; size = 4
??0Vector@@QAE@XZ PROC					; Vector::Vector, COMDAT
; _this$ = ecx

; 143  : 	inline Vector(void)				{ }

	push	ebp
	mov	ebp, esp
	sub	esp, 68					; 00000044H
	push	ebx
	push	esi
	push	edi
	mov	DWORD PTR _this$[ebp], ecx
	mov	eax, DWORD PTR _this$[ebp]
	pop	edi
	pop	esi
	pop	ebx
	mov	esp, ebp
	pop	ebp
	ret	0
??0Vector@@QAE@XZ ENDP					; Vector::Vector
_TEXT	ENDS
; Function compile flags: /Odtp /ZI
; File d:\!diffusion 2020\source code 2022\client-server\game_shared\vector.h
;	COMDAT ??0Vector2D@@QAE@XZ
_TEXT	SEGMENT
_this$ = -4						; size = 4
??0Vector2D@@QAE@XZ PROC				; Vector2D::Vector2D, COMDAT
; _this$ = ecx

; 60   : 	inline Vector2D(void) { }

	push	ebp
	mov	ebp, esp
	sub	esp, 68					; 00000044H
	push	ebx
	push	esi
	push	edi
	mov	DWORD PTR _this$[ebp], ecx
	mov	eax, DWORD PTR _this$[ebp]
	pop	edi
	pop	esi
	pop	ebx
	mov	esp, ebp
	pop	ebp
	ret	0
??0Vector2D@@QAE@XZ ENDP				; Vector2D::Vector2D
_TEXT	ENDS
; Function compile flags: /Odtp /ZI
;	COMDAT ??__G@YGXPAX0IIP6EPAX00@Z@Z
_TEXT	SEGMENT
tv66 = -68						; size = 4
___t$ = 8						; size = 4
___u$ = 12						; size = 4
___s$ = 16						; size = 4
___n$ = 20						; size = 4
___f$ = 24						; size = 4
??__G@YGXPAX0IIP6EPAX00@Z@Z PROC			; `vector copy constructor iterator', COMDAT
	push	ebp
	mov	ebp, esp
	sub	esp, 68					; 00000044H
	push	ebx
	push	esi
	push	edi
$LN2@vector:
	mov	eax, DWORD PTR ___n$[ebp]
	mov	DWORD PTR tv66[ebp], eax
	mov	ecx, DWORD PTR ___n$[ebp]
	sub	ecx, 1
	mov	DWORD PTR ___n$[ebp], ecx
	cmp	DWORD PTR tv66[ebp], 0
	jbe	SHORT $LN1@vector
	mov	eax, DWORD PTR ___u$[ebp]
	push	eax
	mov	ecx, DWORD PTR ___t$[ebp]
	call	DWORD PTR ___f$[ebp]
	mov	eax, DWORD PTR ___t$[ebp]
	add	eax, DWORD PTR ___s$[ebp]
	mov	DWORD PTR ___t$[ebp], eax
	mov	eax, DWORD PTR ___u$[ebp]
	add	eax, DWORD PTR ___s$[ebp]
	mov	DWORD PTR ___u$[ebp], eax
	jmp	SHORT $LN2@vector
$LN1@vector:
	pop	edi
	pop	esi
	pop	ebx
	mov	esp, ebp
	pop	ebp
	ret	20					; 00000014H
??__G@YGXPAX0IIP6EPAX00@Z@Z ENDP			; `vector copy constructor iterator'
_TEXT	ENDS
; Function compile flags: /Odtp /ZI
;	COMDAT ??_H@YGXPAXIIP6EPAX0@Z@Z
_TEXT	SEGMENT
tv66 = -68						; size = 4
___t$ = 8						; size = 4
___s$ = 12						; size = 4
___n$ = 16						; size = 4
___f$ = 20						; size = 4
??_H@YGXPAXIIP6EPAX0@Z@Z PROC				; `vector constructor iterator', COMDAT
	push	ebp
	mov	ebp, esp
	sub	esp, 68					; 00000044H
	push	ebx
	push	esi
	push	edi
$LN2@vector:
	mov	eax, DWORD PTR ___n$[ebp]
	mov	DWORD PTR tv66[ebp], eax
	mov	ecx, DWORD PTR ___n$[ebp]
	sub	ecx, 1
	mov	DWORD PTR ___n$[ebp], ecx
	cmp	DWORD PTR tv66[ebp], 0
	jbe	SHORT $LN1@vector
	mov	ecx, DWORD PTR ___t$[ebp]
	call	DWORD PTR ___f$[ebp]
	mov	eax, DWORD PTR ___t$[ebp]
	add	eax, DWORD PTR ___s$[ebp]
	mov	DWORD PTR ___t$[ebp], eax
	jmp	SHORT $LN2@vector
$LN1@vector:
	pop	edi
	pop	esi
	pop	ebx
	mov	esp, ebp
	pop	ebp
	ret	16					; 00000010H
??_H@YGXPAXIIP6EPAX0@Z@Z ENDP				; `vector constructor iterator'
_TEXT	ENDS
END
