; Listing generated by Microsoft (R) Optimizing Compiler Version 19.00.24247.2 

	TITLE	D:\!DIFFUSION 2020\source code 2022\client-server\client\render\r_shader.cpp
	.686P
	.XMM
	include listing.inc
	.model	flat

INCLUDELIB LIBCMT
INCLUDELIB OLDNAMES

PUBLIC	?glsl_programs@@3PAUglsl_prog_s@@A		; glsl_programs
PUBLIC	?num_glsl_programs@@3IA				; num_glsl_programs
PUBLIC	?glsl@@3Uref_shaders_t@@A			; glsl
PUBLIC	?glsl_programsHashTable@@3PAPAUglsl_prog_s@@A	; glsl_programsHashTable
_BSS	SEGMENT
?glsl_programs@@3PAUglsl_prog_s@@A DB 079800H DUP (?)	; glsl_programs
?num_glsl_programs@@3IA DD 01H DUP (?)			; num_glsl_programs
?glsl@@3Uref_shaders_t@@A DB 068H DUP (?)		; glsl
?glsl_programsHashTable@@3PAPAUglsl_prog_s@@A DD 080H DUP (?) ; glsl_programsHashTable
_BSS	ENDS
PUBLIC	??_H@YGXPAXIIP6EPAX0@Z@Z			; `vector constructor iterator'
PUBLIC	??__G@YGXPAX0IIP6EPAX00@Z@Z			; `vector copy constructor iterator'
PUBLIC	??0Vector@@QAE@XZ				; Vector::Vector
PUBLIC	??0mplane_s@@QAE@XZ				; mplane_s::mplane_s
PUBLIC	??0CFrustum@@QAE@XZ				; CFrustum::CFrustum
PUBLIC	??0plight_s@@QAE@XZ				; plight_s::plight_s
PUBLIC	?GL_PretifyListOptions@@YAPBDPBD_N@Z		; GL_PretifyListOptions
PUBLIC	?GL_BindShader@@YAXPAUglsl_prog_s@@@Z		; GL_BindShader
PUBLIC	?GL_FreeUberShaders@@YAXXZ			; GL_FreeUberShaders
PUBLIC	?GL_InitGPUShaders@@YAXXZ			; GL_InitGPUShaders
PUBLIC	?GL_FreeGPUShaders@@YAXXZ			; GL_FreeGPUShaders
PUBLIC	?GL_UberShaderForSolidBmodel@@YAGPAUmsurface_s@@_N@Z ; GL_UberShaderForSolidBmodel
PUBLIC	?GL_UberShaderForBmodelDlight@@YAGPBUplight_s@@PAUmsurface_s@@_N@Z ; GL_UberShaderForBmodelDlight
PUBLIC	?GL_UberShaderForBmodelDecal@@YAGPAUdecal_s@@@Z	; GL_UberShaderForBmodelDecal
PUBLIC	?GL_UberShaderForGrassSolid@@YAGPAUmsurface_s@@PAUgrass_s@@@Z ; GL_UberShaderForGrassSolid
PUBLIC	?GL_UberShaderForGrassDlight@@YAGPAUplight_s@@PAUgrass_s@@@Z ; GL_UberShaderForGrassDlight
PUBLIC	?GL_UberShaderForDlightGeneric@@YAGPBUplight_s@@@Z ; GL_UberShaderForDlightGeneric
PUBLIC	?GL_UberShaderForSolidStudio@@YAGPAUmstudiomat_s@@_N11H@Z ; GL_UberShaderForSolidStudio
PUBLIC	?GL_UberShaderForDlightStudio@@YAGPBUplight_s@@PAUmstudiomat_s@@_NH@Z ; GL_UberShaderForDlightStudio
PUBLIC	?GL_UberShaderForStudioDecal@@YAGPAUmstudiomat_s@@@Z ; GL_UberShaderForStudioDecal
PUBLIC	?GL_AddShaderDirective@@YAXPADPBD@Z		; GL_AddShaderDirective
PUBLIC	?GetBuffer@CVirtualFS@@QAEPADXZ			; CVirtualFS::GetBuffer
PUBLIC	?GetSize@CVirtualFS@@QAEIXZ			; CVirtualFS::GetSize
PUBLIC	?GL_EncodeNormal@@YAXPADH@Z			; GL_EncodeNormal
PUBLIC	?GL_UniformTypeToDwordCount@@YAHI_N@Z		; GL_UniformTypeToDwordCount
PUBLIC	?GL_UniformTypeToName@@YAPBDI@Z			; GL_UniformTypeToName
PUBLIC	?GL_ShowProgramUniforms@@YAXPAUglsl_prog_s@@@Z	; GL_ShowProgramUniforms
PUBLIC	?GL_AddShaderDefine@@YAXPADPBD@Z		; GL_AddShaderDefine
PUBLIC	?GL_FindShaderDirective@@YA_NPAUglsl_prog_s@@PBD@Z ; GL_FindShaderDirective
PUBLIC	?GL_InitGenericFogUniforms@@YAXPAUglsl_prog_s@@@Z ; GL_InitGenericFogUniforms
PUBLIC	?GL_ListGPUShaders@@YAXXZ			; GL_ListGPUShaders
PUBLIC	??_C@_0BF@FKFGDDHD@NORMAL_RG_PARABOLOID?$AA@	; `string'
PUBLIC	??_C@_0BG@LDLNDKLC@NORMAL_3DC_PARABOLOID?$AA@	; `string'
PUBLIC	??_C@_0BF@EAIFCKME@NORMAL_AG_PARABOLOID?$AA@	; `string'
PUBLIC	??_C@_0CN@LIMLBMNO@GL_PrintInfoLog?3?5message?5exceeds@ ; `string'
PUBLIC	??_C@_0CC@MDIBKIJI@GL_PushFileStack?3?5stack?5overflow@ ; `string'
PUBLIC	??_C@_0CD@KBPDGGGO@GL_PushFileStack?3?5stack?5underflo@ ; `string'
PUBLIC	??_C@_0BK@HEHGCEJO@recursive?5include?5for?5?$CFs?6?$AA@ ; `string'
PUBLIC	??_C@_0BC@HJBMIBGI@couldn?8t?5load?5?$CFs?6?$AA@ ; `string'
PUBLIC	??_C@_08CGHKNNMG@?$CDline?50?6?$AA@		; `string'
PUBLIC	??_C@_08GPLAJCBH@?$CDinclude?$AA@		; `string'
PUBLIC	??_C@_07BPFEFLNA@glsl?1?$CFs?$AA@		; `string'
PUBLIC	??_C@_09KFJICHAG@?$CDline?5?$CFi?6?$AA@		; `string'
PUBLIC	??_C@_03OFAPEBGM@?$CFs?6?$AA@			; `string'
PUBLIC	??_C@_0O@LOEMKNG@?$CDversion?5130?6?$AA@	; `string'
PUBLIC	??_C@_0DJ@GFBPBLGM@?$CDifndef?5M_PI?6?$CDdefine?5M_PI?53?41415@ ; `string'
PUBLIC	??_C@_0DL@JPAIIFEC@?$CDifndef?5M_PI2?6?$CDdefine?5M_PI2?56?428@ ; `string'
PUBLIC	??_C@_0CJ@DGLNNJCC@?$CDextension?5GL_EXT_gpu_shader4?5?3?5@ ; `string'
PUBLIC	??_C@_0BK@FIAFHJNI@?$CDdefine?5GLSL_gpu_shader4?6?$AA@ ; `string'
PUBLIC	??_C@_0CC@EIHIPLOH@?$CDdefine?5GLSL_ALLOW_TEXTURE_ARRAY@ ; `string'
PUBLIC	??_C@_0CL@JHODLGCO@?$CDextension?5GL_EXT_texture_array?5@ ; `string'
PUBLIC	??_C@_0DJ@LFGPGNO@?$CDifndef?5MAXSTUDIOBONES?6?$CDdefine?5M@ ; `string'
PUBLIC	??_C@_0DL@DLNJKMNE@?$CDifndef?5MAX_LIGHTSTYLES?6?$CDdefine?5@ ; `string'
PUBLIC	??_C@_0DF@FCFCOAGC@?$CDifndef?5MAXLIGHTMAPS?6?$CDdefine?5MAX@ ; `string'
PUBLIC	??_C@_0DL@EIKGDMGK@?$CDifndef?5GRASS_ANIM_DIST?6?$CDdefine?5@ ; `string'
PUBLIC	??_C@_00CNPNBAHC@?$AA@				; `string'
PUBLIC	?__LINE__Var@?0??GL_LoadGPUShader@@YAXPAUglsl_prog_s@@PBDI_N1@Z@4JA ; `GL_LoadGPUShader'::`1'::__LINE__Var
PUBLIC	??_C@_0EN@DPFBEFBL@d?3?2?$CBdiffusion?52020?2source?5code?52@ ; `string'
PUBLIC	??_C@_0BI@FECCGOFJ@assert?5failed?5at?5?$CFs?3?$CFi?6?$AA@ ; `string'
PUBLIC	??_C@_0BA@IBGHDCHK@glsl?1?$CFs_vp?4glsl?$AA@	; `string'
PUBLIC	??_C@_0BA@PNNMADFB@glsl?1?$CFs_fp?4glsl?$AA@	; `string'
PUBLIC	??_C@_0CK@FKDDGAG@GL_LoadGPUShader?3?5unknown?5shader@ ; `string'
PUBLIC	??_C@_0P@JCFNJCGJ@?6loading?5?8?$CFs?8?6?$AA@	; `string'
PUBLIC	??_C@_02DKCKIIND@?$CFs?$AA@			; `string'
PUBLIC	??_C@_0BD@NMNDBDIA@Shader?5options?3?$CFs?6?$AA@ ; `string'
PUBLIC	??_C@_0BF@PMBKHIDO@Couldn?8t?5compile?5?$CFs?6?$AA@ ; `string'
PUBLIC	??_C@_0BN@ONGMHJJJ@?$CFs?6?$CFs?5shader?5failed?5to?5link?6?$AA@ ; `string'
PUBLIC	??_C@_0CB@BEHHAEKP@?$CFs?6?$CFs?5shader?5failed?5to?5validate?6@ ; `string'
PUBLIC	??_C@_03JBIPMCLC@int?$AA@			; `string'
PUBLIC	??_C@_04EHNLIFAM@uint?$AA@			; `string'
PUBLIC	??_C@_05KNFBNCOH@float?$AA@			; `string'
PUBLIC	??_C@_04OEFGDLLE@vec2?$AA@			; `string'
PUBLIC	??_C@_04PNENAKPF@vec3?$AA@			; `string'
PUBLIC	??_C@_04LCAMJMDC@vec4?$AA@			; `string'
PUBLIC	??_C@_04GFGNLPIF@mat2?$AA@			; `string'
PUBLIC	??_C@_04HMHGIOME@mat3?$AA@			; `string'
PUBLIC	??_C@_04DDDHBIAD@mat4?$AA@			; `string'
PUBLIC	??_C@_09LDPLADBJ@sampler1D?$AA@			; `string'
PUBLIC	??_C@_09LBLNLNEA@sampler2D?$AA@			; `string'
PUBLIC	??_C@_09LAHPNHHH@sampler3D?$AA@			; `string'
PUBLIC	??_C@_0M@JKFFOHJO@samplerCube?$AA@		; `string'
PUBLIC	??_C@_0P@DIPEFKIO@sampler1DArray?$AA@		; `string'
PUBLIC	??_C@_0P@LGHLFNGN@sampler2DArray?$AA@		; `string'
PUBLIC	??_C@_0BA@DAHPNLPE@sampler1DShadow?$AA@		; `string'
PUBLIC	??_C@_0BA@JPCOHDB@sampler2DShadow?$AA@		; `string'
PUBLIC	??_C@_0O@PEHGDEIA@sampler2DRect?$AA@		; `string'
PUBLIC	??_C@_0BE@HDPBANEK@sampler2DRectShadow?$AA@	; `string'
PUBLIC	??_C@_0BC@HELGINNC@samplerCubeShadow?$AA@	; `string'
PUBLIC	??_C@_03BBKEAIF@?$DP?$DP?$DP?$AA@		; `string'
PUBLIC	??_C@_0BA@GALAJLO@uniform?5?$CFs?5?$CFs?$DL?6?$AA@ ; `string'
PUBLIC	??_C@_0BE@PKDDKFGG@uniform?5?$CFs?5?$CFs?$FL?$CFi?$FN?$DL?6?$AA@ ; `string'
PUBLIC	??_C@_0CN@BIGJHOMK@used?5uniforms?5?$CFi?5is?5overflowed?5m@ ; `string'
PUBLIC	??_C@_0BK@BLHKGMFB@used?5uniforms?5?$CFi?5from?5?$CFi?6?$AA@ ; `string'
PUBLIC	??_C@_0BF@JPOMHIIO@?$CFs?5used?5?$CFi?5uniforms?6?$AA@ ; `string'
PUBLIC	?__LINE__Var@?0??GL_InitGPUShader@@YAPAUglsl_prog_s@@PBD000@Z@4JA ; `GL_InitGPUShader'::`1'::__LINE__Var
PUBLIC	??_C@_05DNIIFBMG@?$CFs?5?$CFs?$AA@		; `string'
PUBLIC	??_C@_0DI@JOLDEICG@GL_InitGPUShader?3?5GLSL?5shaders?5l@ ; `string'
PUBLIC	??_C@_0O@PHKNCBPO@attr_Position?$AA@		; `string'
PUBLIC	??_C@_0P@GGGDBJMF@attr_TexCoord0?$AA@		; `string'
PUBLIC	??_C@_0P@HPHICIIE@attr_TexCoord1?$AA@		; `string'
PUBLIC	??_C@_0P@FEFFHLEH@attr_TexCoord2?$AA@		; `string'
PUBLIC	??_C@_0M@PDECLNDL@attr_Normal?$AA@		; `string'
PUBLIC	??_C@_0BB@GNBIAMMJ@attr_BoneIndexes?$AA@	; `string'
PUBLIC	??_C@_0BB@ININKFEM@attr_BoneWeights?$AA@	; `string'
PUBLIC	??_C@_0BB@MPAHODOH@attr_LightStyles?$AA@	; `string'
PUBLIC	??_C@_0BA@JOGHNK@attr_LightColor?$AA@		; `string'
PUBLIC	??_C@_0P@KPKCIOG@attr_LightVecs?$AA@		; `string'
PUBLIC	??_C@_0N@PFKNNIKN@attr_Tangent?$AA@		; `string'
PUBLIC	??_C@_0O@FLCOHBOC@attr_Binormal?$AA@		; `string'
PUBLIC	??_C@_0DL@DKJDPAJN@GL_CreateUberShader?3?5GLSL?5shader@ ; `string'
PUBLIC	??_C@_0BO@IEPPONL@CompileUberShader?5?$CD?$CFi?3?5?$CFs?6?$CFs?6?$AA@ ; `string'
PUBLIC	?__LINE__Var@?0??GL_FindUberShader@@YAPAUglsl_prog_s@@PBD0P6AXPAU2@@Z@Z@4JA ; `GL_FindUberShader'::`1'::__LINE__Var
PUBLIC	??_C@_0M@KFFOLOHC@?$CDdefine?5?$CFs?6?$AA@	; `string'
PUBLIC	?__LINE__Var@?0??GL_InitSolidBmodelUniforms@@YAXPAUglsl_prog_s@@@Z@4JA ; `GL_InitSolidBmodelUniforms'::`1'::__LINE__Var
PUBLIC	??_C@_0L@IEDEJAAC@u_ColorMap?$AA@		; `string'
PUBLIC	??_C@_0M@CLJGMBED@u_DetailMap?$AA@		; `string'
PUBLIC	??_C@_0L@NKAMHLG@u_LightMap?$AA@		; `string'
PUBLIC	??_C@_0M@KCNMJMNH@u_ScreenMap?$AA@		; `string'
PUBLIC	??_C@_09HDLEGDMG@u_GlowMap?$AA@			; `string'
PUBLIC	??_C@_0M@EEAGDKIK@u_NormalMap?$AA@		; `string'
PUBLIC	??_C@_0BD@EMMENHMO@REFLECTION_CUBEMAP?$AA@	; `string'
PUBLIC	??_C@_09GODPBACC@u_EnvMap0?$AA@			; `string'
PUBLIC	??_C@_09HHCECBGD@u_EnvMap1?$AA@			; `string'
PUBLIC	??_C@_0P@CEPEBBNL@u_CubeMipCount?$AA@		; `string'
PUBLIC	??_C@_0N@NGOJEAAC@u_CubeOrigin?$AA@		; `string'
PUBLIC	??_C@_0N@BILMML@u_LerpFactor?$AA@		; `string'
PUBLIC	??_C@_09PANPMJKM@u_BoxMins?$AA@			; `string'
PUBLIC	??_C@_09CNMADOIB@u_BoxMaxs?$AA@			; `string'
PUBLIC	??_C@_0P@BIBHBLHM@u_ReflectScale?$AA@		; `string'
PUBLIC	??_C@_0BA@ELFGANLK@BMODEL_INTERIOR?$AA@		; `string'
PUBLIC	??_C@_0O@KNPDKBPI@u_InteriorMap?$AA@		; `string'
PUBLIC	??_C@_0L@BGHCDECL@u_RealTime?$AA@		; `string'
PUBLIC	??_C@_0P@KJLBFPAD@u_InteriorGrid?$AA@		; `string'
PUBLIC	??_C@_0BF@HKDFFBEE@u_InteriorLightState?$AA@	; `string'
PUBLIC	??_C@_0BJ@JCIGHEFN@BMODEL_REFLECTION_PLANAR?$AA@ ; `string'
PUBLIC	??_C@_0BE@LOJOFLMK@BMODEL_WATER_PLANAR?$AA@	; `string'
PUBLIC	??_C@_0BF@HOPHCIFE@u_PlanarReflectScale?$AA@	; `string'
PUBLIC	??_C@_0L@HHPJFKED@u_WaterTex?$AA@		; `string'
PUBLIC	??_C@_0N@GOCFBCHC@u_ViewOrigin?$AA@		; `string'
PUBLIC	??_C@_0M@NCMDOAEP@u_DeluxeMap?$AA@		; `string'
PUBLIC	??_C@_0N@NPMHADLB@u_GlossScale?$AA@		; `string'
PUBLIC	??_C@_0BC@KIIHBDPB@u_GlossSmoothness?$AA@	; `string'
PUBLIC	??_C@_0O@HKDACOHC@u_EmbossScale?$AA@		; `string'
PUBLIC	??_C@_0BE@FBBOMMAP@BMODEL_MULTI_LAYERS?$AA@	; `string'
PUBLIC	??_C@_0L@NKHKNNOO@u_LayerMap?$AA@		; `string'
PUBLIC	??_C@_0L@JCKKGKMC@u_DepthMap?$AA@		; `string'
PUBLIC	??_C@_0BD@NFOOODNK@u_LightStyleValues?$AA@	; `string'
PUBLIC	??_C@_0O@MBNOFNKO@u_ModelMatrix?$AA@		; `string'
PUBLIC	??_C@_0O@MFMJGIKB@u_DetailScale?$AA@		; `string'
PUBLIC	??_C@_0M@MGCFPBL@u_TexOffset?$AA@		; `string'
PUBLIC	??_C@_0M@LNDNBCGB@u_FogParams?$AA@		; `string'
PUBLIC	??_C@_0BA@CNHIBBKL@u_ScreenSizeInv?$AA@		; `string'
PUBLIC	??_C@_0O@PDAILIH@u_RenderColor?$AA@		; `string'
PUBLIC	??_C@_06HIBKCAMD@u_zFar?$AA@			; `string'
PUBLIC	?__LINE__Var@?0??GL_InitBmodelDlightUniforms@@YAXPAUglsl_prog_s@@@Z@4JA ; `GL_InitBmodelDlightUniforms'::`1'::__LINE__Var
PUBLIC	??_C@_0N@FKEMJKI@u_ProjectMap?$AA@		; `string'
PUBLIC	??_C@_0M@LIKBOJOD@u_ShadowMap?$AA@		; `string'
PUBLIC	??_C@_0L@EMINLLAG@u_LightDir?$AA@		; `string'
PUBLIC	??_C@_0P@IBMOHOLF@u_LightDiffuse?$AA@		; `string'
PUBLIC	??_C@_0P@DOIHPJNE@u_ShadowParams?$AA@		; `string'
PUBLIC	??_C@_0O@PGBKINBN@u_LightOrigin?$AA@		; `string'
PUBLIC	??_C@_0BM@OPAKJEIH@u_LightViewProjectionMatrix?$AA@ ; `string'
PUBLIC	??_C@_0BF@DEABILDM@u_DynLightBrightness?$AA@	; `string'
PUBLIC	?__LINE__Var@?0??GL_InitBmodelDepthFillUniforms@@YAXPAUglsl_prog_s@@@Z@4JA ; `GL_InitBmodelDepthFillUniforms'::`1'::__LINE__Var
PUBLIC	?__LINE__Var@?0??GL_InitBmodelDecalUniforms@@YAXPAUglsl_prog_s@@@Z@4JA ; `GL_InitBmodelDecalUniforms'::`1'::__LINE__Var
PUBLIC	??_C@_0L@GCAHNJHJ@u_DecalMap?$AA@		; `string'
PUBLIC	?__LINE__Var@?0??GL_InitSolidStudioUniforms@@YAXPAUglsl_prog_s@@@Z@4JA ; `GL_InitSolidStudioUniforms'::`1'::__LINE__Var
PUBLIC	??_C@_0BB@JBIGINIK@u_BoneQuaternion?$AA@	; `string'
PUBLIC	??_C@_0P@KFHIBBDA@u_BonePosition?$AA@		; `string'
PUBLIC	??_C@_0M@LKOGHAJI@u_MeshScale?$AA@		; `string'
PUBLIC	??_C@_0N@DJODLMKK@u_MeshAngles?$AA@		; `string'
PUBLIC	??_C@_0M@GKMFFJIJ@u_ColorMask?$AA@		; `string'
PUBLIC	??_C@_0BA@BJGEOHOC@STUDIO_INTERIOR?$AA@		; `string'
PUBLIC	??_C@_0BH@BHCFIENI@STUDIO_VERTEX_LIGHTING?$AA@	; `string'
PUBLIC	??_C@_0O@MBKKBNEB@u_LightStyles?$AA@		; `string'
PUBLIC	??_C@_0N@OIMPMCEP@u_GammaTable?$AA@		; `string'
PUBLIC	??_C@_0N@HGOIPDNC@u_LightColor?$AA@		; `string'
PUBLIC	??_C@_0P@DDJOMFKJ@u_LightAmbient?$AA@		; `string'
PUBLIC	??_C@_0N@DMKCJOPD@u_LightShade?$AA@		; `string'
PUBLIC	??_C@_0M@FIIJDCAM@u_ViewRight?$AA@		; `string'
PUBLIC	??_C@_0BE@GNPKMAIG@u_FoliageSwayHeight?$AA@	; `string'
PUBLIC	??_C@_0BF@MDNGADJD@STUDIO_HAS_COLORMASK?$AA@	; `string'
PUBLIC	?__LINE__Var@?0??GL_InitStudioDlightUniforms@@YAXPAUglsl_prog_s@@@Z@4JA ; `GL_InitStudioDlightUniforms'::`1'::__LINE__Var
PUBLIC	?__LINE__Var@?0??GL_InitStudioDepthFillUniforms@@YAXPAUglsl_prog_s@@@Z@4JA ; `GL_InitStudioDepthFillUniforms'::`1'::__LINE__Var
PUBLIC	?__LINE__Var@?0??GL_InitGrassSolidUniforms@@YAXPAUglsl_prog_s@@@Z@4JA ; `GL_InitGrassSolidUniforms'::`1'::__LINE__Var
PUBLIC	??_C@_0BB@BBFEGHLO@u_GrassFadeStart?$AA@	; `string'
PUBLIC	??_C@_0BA@DLEPEDLG@u_GrassFadeDist?$AA@		; `string'
PUBLIC	??_C@_0P@MOHLDOHD@u_GrassFadeEnd?$AA@		; `string'
PUBLIC	?__LINE__Var@?0??GL_InitGrassDlightUniforms@@YAXPAUglsl_prog_s@@@Z@4JA ; `GL_InitGrassDlightUniforms'::`1'::__LINE__Var
PUBLIC	?__LINE__Var@?0??GL_InitGenericDlightUniforms@@YAXPAUglsl_prog_s@@@Z@4JA ; `GL_InitGenericDlightUniforms'::`1'::__LINE__Var
PUBLIC	??_C@_0N@EFGBPOFK@u_LightScale?$AA@		; `string'
PUBLIC	?__LINE__Var@?0??GL_InitStudioDecalUniforms@@YAXPAUglsl_prog_s@@@Z@4JA ; `GL_InitStudioDecalUniforms'::`1'::__LINE__Var
PUBLIC	?__LINE__Var@?0??GL_InitSkyBoxUniforms@@YAXPAUglsl_prog_s@@@Z@4JA ; `GL_InitSkyBoxUniforms'::`1'::__LINE__Var
PUBLIC	??_C@_0BD@KPMFEKBG@u_GenericCondition?$AA@	; `string'
PUBLIC	?__LINE__Var@?0??GL_InitPostProcessUniforms@@YAXPAUglsl_prog_s@@@Z@4JA ; `GL_InitPostProcessUniforms'::`1'::__LINE__Var
PUBLIC	??_C@_0N@IIDPNGLD@u_BlurFactor?$AA@		; `string'
PUBLIC	?__LINE__Var@?0??GL_InitGenericFogUniforms@@YAXPAUglsl_prog_s@@@Z@4JA ; `GL_InitGenericFogUniforms'::`1'::__LINE__Var
PUBLIC	?__LINE__Var@?0??GL_InitGenShaftsUniforms@@YAXPAUglsl_prog_s@@@Z@4JA ; `GL_InitGenShaftsUniforms'::`1'::__LINE__Var
PUBLIC	?__LINE__Var@?0??GL_InitDrawShaftsUniforms@@YAXPAUglsl_prog_s@@@Z@4JA ; `GL_InitDrawShaftsUniforms'::`1'::__LINE__Var
PUBLIC	??_C@_0BA@MLGMJJCM@u_SS_Brightness?$AA@		; `string'
PUBLIC	?__LINE__Var@?0??GL_InitGenSSAOUniforms@@YAXPAUglsl_prog_s@@@Z@4JA ; `GL_InitGenSSAOUniforms'::`1'::__LINE__Var
PUBLIC	??_C@_0M@CGFAMJEG@u_RotateMap?$AA@		; `string'
PUBLIC	?__LINE__Var@?0??GL_InitDrawSSAOUniforms@@YAXPAUglsl_prog_s@@@Z@4JA ; `GL_InitDrawSSAOUniforms'::`1'::__LINE__Var
PUBLIC	??_C@_07LKADGIGM@u_AOMap?$AA@			; `string'
PUBLIC	?__LINE__Var@?0??GL_InitMotionBlurUniforms@@YAXPAUglsl_prog_s@@@Z@4JA ; `GL_InitMotionBlurUniforms'::`1'::__LINE__Var
PUBLIC	??_C@_0O@BPMLMILL@u_MB_Velocity?$AA@		; `string'
PUBLIC	??_C@_07BKJMBFNE@u_Accum?$AA@			; `string'
PUBLIC	?__LINE__Var@?0??GL_InitHorizontalBlurUniforms@@YAXPAUglsl_prog_s@@@Z@4JA ; `GL_InitHorizontalBlurUniforms'::`1'::__LINE__Var
PUBLIC	?__LINE__Var@?0??GL_InitMonochromeUniforms@@YAXPAUglsl_prog_s@@@Z@4JA ; `GL_InitMonochromeUniforms'::`1'::__LINE__Var
PUBLIC	?__LINE__Var@?0??GL_InitEnhanceUniforms@@YAXPAUglsl_prog_s@@@Z@4JA ; `GL_InitEnhanceUniforms'::`1'::__LINE__Var
PUBLIC	??_C@_0BE@BJALCEGK@u_GenericCondition2?$AA@	; `string'
PUBLIC	?__LINE__Var@?0??GL_InitBloomUniforms@@YAXPAUglsl_prog_s@@@Z@4JA ; `GL_InitBloomUniforms'::`1'::__LINE__Var
PUBLIC	?__LINE__Var@?0??GL_InitTonemapUniforms@@YAXPAUglsl_prog_s@@@Z@4JA ; `GL_InitTonemapUniforms'::`1'::__LINE__Var
PUBLIC	??_C@_0O@NAHLAMOG@u_HDRExposure?$AA@		; `string'
PUBLIC	??_C@_08EPOJODHO@u_MipLod?$AA@			; `string'
PUBLIC	?__LINE__Var@?0??GL_InitGenLuminanceUniforms@@YAXPAUglsl_prog_s@@@Z@4JA ; `GL_InitGenLuminanceUniforms'::`1'::__LINE__Var
PUBLIC	?__LINE__Var@?0??GL_InitGenExposureUniforms@@YAXPAUglsl_prog_s@@@Z@4JA ; `GL_InitGenExposureUniforms'::`1'::__LINE__Var
PUBLIC	??_C@_0M@JKCPEDOF@u_TimeDelta?$AA@		; `string'
PUBLIC	?__LINE__Var@?0??GL_InitBlurMipUniforms@@YAXPAUglsl_prog_s@@@Z@4JA ; `GL_InitBlurMipUniforms'::`1'::__LINE__Var
PUBLIC	??_C@_0BA@CHODOENL@u_TexCoordClamp?$AA@		; `string'
PUBLIC	??_C@_0BB@OFOHIACD@u_BloomFirstPass?$AA@	; `string'
PUBLIC	?__LINE__Var@?0??GL_InitScreenWaterUniforms@@YAXPAUglsl_prog_s@@@Z@4JA ; `GL_InitScreenWaterUniforms'::`1'::__LINE__Var
PUBLIC	?__LINE__Var@?0??GL_InitGlitchUniforms@@YAXPAUglsl_prog_s@@@Z@4JA ; `GL_InitGlitchUniforms'::`1'::__LINE__Var
PUBLIC	?__LINE__Var@?0??GL_InitWaterDropsUniforms@@YAXPAUglsl_prog_s@@@Z@4JA ; `GL_InitWaterDropsUniforms'::`1'::__LINE__Var
PUBLIC	??_C@_07MAHLPAJA@?$CDdefine?$AA@		; `string'
PUBLIC	?__LINE__Var@?0??GL_UberShaderForSolidBmodel@@YAGPAUmsurface_s@@_N@Z@4JA ; `GL_UberShaderForSolidBmodel'::`1'::__LINE__Var
PUBLIC	??_C@_0M@JAFDEAKJ@BmodelSolid?$AA@		; `string'
PUBLIC	??_C@_0O@GKJEGJGO@BMODEL_PORTAL?$AA@		; `string'
PUBLIC	??_C@_0BC@FCBEIADP@BMODEL_MONOCHROME?$AA@	; `string'
PUBLIC	??_C@_0BC@GCGMHMPB@BMODEL_FULLBRIGHT?$AA@	; `string'
PUBLIC	??_C@_0BF@CJFNHMMN@BMODEL_APPLY_STYLE?$CFi?$AA@	; `string'
PUBLIC	??_C@_0BA@EFJDEABO@BMODEL_HAS_LUMA?$AA@		; `string'
PUBLIC	??_C@_0N@KAHGMIHK@BMODEL_WATER?$AA@		; `string'
PUBLIC	??_C@_0BC@LPFDPIMB@BMODEL_WAVEHEIGHT?$AA@	; `string'
PUBLIC	??_C@_0BI@KHDHCKHO@BMODEL_WATER_REFRACTION?$AA@	; `string'
PUBLIC	??_C@_0O@CHLKEFJA@BMODEL_EMBOSS?$AA@		; `string'
PUBLIC	??_C@_0BA@IDBJJDAD@BMODEL_SPECULAR?$AA@		; `string'
PUBLIC	??_C@_0M@KKHGJEOJ@BMODEL_BUMP?$AA@		; `string'
PUBLIC	??_C@_0BG@EHIGMOPN@TERRAIN_NUM_LAYERS?5?$CFi?$AA@ ; `string'
PUBLIC	??_C@_0BC@NMNDDEJF@BMODEL_HAS_DETAIL?$AA@	; `string'
PUBLIC	??_C@_0P@BKIJIDAM@BMODEL_FOG_EXP?$AA@		; `string'
PUBLIC	??_C@_0N@OBABCFDH@BmodelDlight?$AA@		; `string'
PUBLIC	??_C@_0BN@NCPGFLCG@BMODEL_LIGHT_OMNIDIRECTIONAL?$AA@ ; `string'
PUBLIC	??_C@_0BI@FOFDPJGA@BMODEL_LIGHT_PROJECTION?$AA@	; `string'
PUBLIC	??_C@_0BL@JGLDHOH@BMODEL_KRENDERTRANSTEXTURE?$AA@ ; `string'
PUBLIC	??_C@_0BD@KIGFOMIP@BMODEL_HAS_SHADOWS?$AA@	; `string'
PUBLIC	??_C@_0L@ILOPFCIK@GrassSolid?$AA@		; `string'
PUBLIC	??_C@_0BB@JAAAEAMC@GRASS_FULLBRIGHT?$AA@	; `string'
PUBLIC	??_C@_0BE@DIIHHDHK@GRASS_APPLY_STYLE?$CFi?$AA@	; `string'
PUBLIC	??_C@_0O@FHMFIMAC@GRASS_FOG_EXP?$AA@		; `string'
PUBLIC	??_C@_0M@EDHNOIFH@GrassDlight?$AA@		; `string'
PUBLIC	??_C@_0BM@BGKIHFAK@GRASS_LIGHT_OMNIDIRECTIONAL?$AA@ ; `string'
PUBLIC	??_C@_0BH@HPNMDGOB@GRASS_LIGHT_PROJECTION?$AA@	; `string'
PUBLIC	??_C@_0BC@BHEHOBKF@GRASS_HAS_SHADOWS?$AA@	; `string'
PUBLIC	?__LINE__Var@?0??GL_UberShaderForBmodelDecal@@YAGPAUdecal_s@@@Z@4JA ; `GL_UberShaderForBmodelDecal'::`1'::__LINE__Var
PUBLIC	??_C@_0M@FKJJKBMN@BmodelDecal?$AA@		; `string'
PUBLIC	??_C@_0BE@GACGLFGM@DECAL_APPLY_STYLE?$CFi?$AA@	; `string'
PUBLIC	??_C@_0BA@ONPHMGJH@DECAL_ALPHATEST?$AA@		; `string'
PUBLIC	??_C@_0BB@GEGJOHBC@DECAL_FULLBRIGHT?$AA@	; `string'
PUBLIC	??_C@_0O@CONEDAKL@DECAL_FOG_EXP?$AA@		; `string'
PUBLIC	??_C@_0M@IEJOAFIH@StudioSolid?$AA@		; `string'
PUBLIC	??_C@_0BL@NPDONKFB@?$CDdefine?5MAXSTUDIOBONES?5?$CFd?6?$AA@ ; `string'
PUBLIC	??_C@_0BK@FOLBDGDH@?$CDdefine?5MAXSTUDIOBONES?51?6?$AA@ ; `string'
PUBLIC	??_C@_0BF@EHMPMNCE@STUDIO_BONEWEIGHTING?$AA@	; `string'
PUBLIC	??_C@_0BC@COADAGML@STUDIO_HAS_CHROME?$AA@	; `string'
PUBLIC	??_C@_0BC@FANBPCPJ@STUDIO_FULLBRIGHT?$AA@	; `string'
PUBLIC	??_C@_0BH@FKBCCABK@STUDIO_LIGHT_FLATSHADE?$AA@	; `string'
PUBLIC	??_C@_0O@CKALONGO@STUDIO_EMBOSS?$AA@		; `string'
PUBLIC	??_C@_0BA@NBCLHJFL@STUDIO_SPECULAR?$AA@		; `string'
PUBLIC	??_C@_0M@LOLLNBMH@STUDIO_BUMP?$AA@		; `string'
PUBLIC	??_C@_0BE@NHNIOEPO@STUDIO_SWAY_FOLIAGE?$AA@	; `string'
PUBLIC	??_C@_0P@EAIBONLP@STUDIO_FOG_EXP?$AA@		; `string'
PUBLIC	??_C@_0N@DNMDOFLN@StudioDlight?$AA@		; `string'
PUBLIC	??_C@_0BN@OODKPABL@STUDIO_LIGHT_OMNIDIRECTIONAL?$AA@ ; `string'
PUBLIC	??_C@_0BI@HECBNCEH@STUDIO_LIGHT_PROJECTION?$AA@	; `string'
PUBLIC	??_C@_0BD@KGIMNJDD@STUDIO_HAS_SHADOWS?$AA@	; `string'
PUBLIC	??_C@_0M@EOFEOEOD@StudioDecal?$AA@		; `string'
PUBLIC	??_C@_0BD@EODPNJDL@STUDIO_ALPHA_GLASS?$AA@	; `string'
PUBLIC	??_C@_0O@FFCCJAIN@GenericDlight?$AA@		; `string'
PUBLIC	??_C@_0BO@DKEIEFBK@GENERIC_LIGHT_OMNIDIRECTIONAL?$AA@ ; `string'
PUBLIC	??_C@_0BJ@JMLOAHFL@GENERIC_LIGHT_PROJECTION?$AA@ ; `string'
PUBLIC	??_C@_0BA@DHGNAIIA@GENERIC_FOG_EXP?$AA@		; `string'
PUBLIC	??_C@_0BE@JNEHHLPA@GENERIC_HAS_SHADOWS?$AA@	; `string'
PUBLIC	??_C@_0N@LHAEPDJL@?$CD?$CFi?5?$CFs?5?$FL?$CFs?$FN?6?$AA@ ; `string'
PUBLIC	??_C@_07KFCPEDAB@?$CD?$CFi?5?$CFs?6?$AA@	; `string'
PUBLIC	??_C@_0BC@KGOJMEGM@total?5?$CFi?5shaders?6?$AA@	; `string'
PUBLIC	??_C@_0L@LGFNICHF@shaderlist?$AA@		; `string'
PUBLIC	??_C@_09CIAJKFPI@genshafts?$AA@			; `string'
PUBLIC	??_C@_07DCLBNMLN@generic?$AA@			; `string'
PUBLIC	??_C@_0N@LEDPODHG@GenSunShafts?$AA@		; `string'
PUBLIC	??_C@_0L@LPJGKIHI@drawshafts?$AA@		; `string'
PUBLIC	??_C@_0O@POAODLNE@DrawSunShafts?$AA@		; `string'
PUBLIC	??_C@_07MHALMHEO@genssao?$AA@			; `string'
PUBLIC	??_C@_07PCEHEHGA@GenSSAO?$AA@			; `string'
PUBLIC	??_C@_08KBGCJECO@drawssao?$AA@			; `string'
PUBLIC	??_C@_08OPKJPEPF@DrawSSAO?$AA@			; `string'
PUBLIC	??_C@_0L@NPAOGMOH@motionblur?$AA@		; `string'
PUBLIC	??_C@_0L@JIFDMMDE@MotionBlur?$AA@		; `string'
PUBLIC	??_C@_0P@BPJNBEAK@horizontalblur?$AA@		; `string'
PUBLIC	??_C@_0P@FGJJAFJA@HorizontalBlur?$AA@		; `string'
PUBLIC	??_C@_0L@FEJFGKNE@monochrome?$AA@		; `string'
PUBLIC	??_C@_0L@NCAJOFAD@Monochrome?$AA@		; `string'
PUBLIC	??_C@_07BAEIAAJA@enhance?$AA@			; `string'
PUBLIC	??_C@_07OJDOGCMG@Enhance?$AA@			; `string'
PUBLIC	??_C@_0M@LMDPNEHE@screenwater?$AA@		; `string'
PUBLIC	??_C@_0M@KDKCAKLK@ScreenWater?$AA@		; `string'
PUBLIC	??_C@_06MEHOCLOK@glitch?$AA@			; `string'
PUBLIC	??_C@_06LMDBCHG@Glitch?$AA@			; `string'
PUBLIC	??_C@_0L@BACGMAPK@waterdrops?$AA@		; `string'
PUBLIC	??_C@_0L@JBBGEKBL@WaterDrops?$AA@		; `string'
PUBLIC	??_C@_07DHDOCNI@tonemap?$AA@			; `string'
PUBLIC	??_C@_07FKDHCPLA@ToneMap?$AA@			; `string'
PUBLIC	??_C@_0BC@DGGDCKEA@generate_exposure?$AA@	; `string'
PUBLIC	??_C@_0M@HNGKCBPC@GenExposure?$AA@		; `string'
PUBLIC	??_C@_05KHFOBEOD@bloom?$AA@			; `string'
PUBLIC	??_C@_05KAPCBBNF@Bloom?$AA@			; `string'
PUBLIC	??_C@_07DNINCIJL@blurmip?$AA@			; `string'
PUBLIC	??_C@_07GEMJOFPD@BlurMip?$AA@			; `string'
PUBLIC	??_C@_0BD@NDDONEJH@generate_luminance?$AA@	; `string'
PUBLIC	??_C@_0N@PGBKAPDM@GenLuminance?$AA@		; `string'
PUBLIC	??_C@_0BA@LMFCEOFG@?$CDdefine?5BLUR_X?6?$AA@	; `string'
PUBLIC	??_C@_09NOBOKBD@gaussblur?$AA@			; `string'
PUBLIC	??_C@_0O@IFCLCIDB@HW_GaussBlurX?$AA@		; `string'
PUBLIC	??_C@_0BA@LNJACEGB@?$CDdefine?5BLUR_Y?6?$AA@	; `string'
PUBLIC	??_C@_0O@JMDABJHA@HW_GaussBlurY?$AA@		; `string'
PUBLIC	??_C@_06BMKANHHL@skybox?$AA@			; `string'
PUBLIC	??_C@_0O@JBFOLGIF@SkyBoxGeneric?$AA@		; `string'
PUBLIC	??_C@_0M@HCHJLIAN@StudioDepth?$AA@		; `string'
PUBLIC	??_C@_0BO@EFFFJJMB@?$CDdefine?5STUDIO_BONEWEIGHTING?6?$AA@ ; `string'
PUBLIC	??_C@_0M@GGLEPNCD@BmodelDepth?$AA@		; `string'
PUBLIC	??_C@_0L@JIKKJIAL@BrushDepth?$AA@		; `string'
PUBLIC	??_C@_0L@HNAIOPAA@GrassDepth?$AA@		; `string'
PUBLIC	??_C@_0BJ@EIBCNIOJ@?$CDdefine?5GENERIC_FOG_EXP?6?$AA@ ; `string'
PUBLIC	??_C@_0L@NLJJNDD@GenericFog?$AA@		; `string'
PUBLIC	__real@00000000
PUBLIC	__real@3c23d70a
PUBLIC	__real@4080000000000000
EXTRN	_memset:PROC
EXTRN	??0matrix4x4@@QAE@XZ:PROC			; matrix4x4::matrix4x4
EXTRN	?Q_strlen@@YAHPBD@Z:PROC			; Q_strlen
EXTRN	?Q_strncat@@YAIPADPBDI@Z:PROC			; Q_strncat
EXTRN	?Q_strncpy@@YAIPADPBDI@Z:PROC			; Q_strncpy
EXTRN	?Q_strchr@@YAPADPBDD@Z:PROC			; Q_strchr
EXTRN	?Q_strnicmp@@YAHPBD0H@Z:PROC			; Q_strnicmp
EXTRN	?Q_strncmp@@YAHPBD0H@Z:PROC			; Q_strncmp
EXTRN	?Q_strstr@@YAPADPBD0@Z:PROC			; Q_strstr
EXTRN	?Q_stristr@@YAPADPBD0@Z:PROC			; Q_stristr
EXTRN	?Q_snprintf@@YAHPADIPBDZZ:PROC			; Q_snprintf
EXTRN	?va@@YAPADPBDZZ:PROC				; va
EXTRN	?COM_ParseFileExt@@YAPADPAD0J_N@Z:PROC		; COM_ParseFileExt
EXTRN	?COM_HashKey@@YAIPBDI@Z:PROC			; COM_HashKey
EXTRN	?ALERT@@YAXW4ALERT_TYPE@@PADZZ:PROC		; ALERT
EXTRN	?GL_Support@@YA_NH@Z:PROC			; GL_Support
EXTRN	??0CVirtualFS@@QAE@XZ:PROC			; CVirtualFS::CVirtualFS
EXTRN	??1CVirtualFS@@QAE@XZ:PROC			; CVirtualFS::~CVirtualFS
EXTRN	?Write@CVirtualFS@@QAEIPBXI@Z:PROC		; CVirtualFS::Write
EXTRN	?Print@CVirtualFS@@QAEIPBD@Z:PROC		; CVirtualFS::Print
EXTRN	?Printf@CVirtualFS@@QAAIPBDZZ:PROC		; CVirtualFS::Printf
EXTRN	?Seek@CVirtualFS@@QAEHIH@Z:PROC			; CVirtualFS::Seek
EXTRN	?Gets@CVirtualFS@@QAEHPADI@Z:PROC		; CVirtualFS::Gets
EXTRN	@__security_check_cookie@4:PROC
EXTRN	___CxxFrameHandler3:PROC
EXTRN	?gEngfuncs@@3Ucl_enginefuncs_s@@A:BYTE		; gEngfuncs
EXTRN	?gRenderfuncs@@3Urender_api_s@@A:BYTE		; gRenderfuncs
EXTRN	?developer_level@@3HA:DWORD			; developer_level
EXTRN	?pglDeleteObjectARB@@3P6GXI@ZA:DWORD		; pglDeleteObjectARB
EXTRN	?pglCreateShaderObjectARB@@3P6GII@ZA:DWORD	; pglCreateShaderObjectARB
EXTRN	?pglShaderSourceARB@@3P6GXIHPAPBDPBH@ZA:DWORD	; pglShaderSourceARB
EXTRN	?pglCompileShaderARB@@3P6GXI@ZA:DWORD		; pglCompileShaderARB
EXTRN	?pglCreateProgramObjectARB@@3P6GIXZA:DWORD	; pglCreateProgramObjectARB
EXTRN	?pglAttachObjectARB@@3P6GXII@ZA:DWORD		; pglAttachObjectARB
EXTRN	?pglLinkProgramARB@@3P6GXI@ZA:DWORD		; pglLinkProgramARB
EXTRN	?pglUseProgramObjectARB@@3P6GXI@ZA:DWORD	; pglUseProgramObjectARB
EXTRN	?pglValidateProgramARB@@3P6GXI@ZA:DWORD		; pglValidateProgramARB
EXTRN	?pglUniform1iARB@@3P6GXHH@ZA:DWORD		; pglUniform1iARB
EXTRN	?pglGetObjectParameterivARB@@3P6GXIIPAH@ZA:DWORD ; pglGetObjectParameterivARB
EXTRN	?pglGetInfoLogARB@@3P6GXIHPAHPAD@ZA:DWORD	; pglGetInfoLogARB
EXTRN	?pglGetUniformLocationARB@@3P6GHIPBD@ZA:DWORD	; pglGetUniformLocationARB
EXTRN	?pglGetActiveUniformARB@@3P6GXIIHPAH0PAIPAD@ZA:DWORD ; pglGetActiveUniformARB
EXTRN	?pglBindAttribLocationARB@@3P6GXIIPBD@ZA:DWORD	; pglBindAttribLocationARB
EXTRN	?r_shadows@@3PAUcvar_s@@A:DWORD			; r_shadows
EXTRN	?r_fullbright@@3PAUcvar_s@@A:DWORD		; r_fullbright
EXTRN	?gl_allow_portals@@3PAUcvar_s@@A:DWORD		; gl_allow_portals
EXTRN	?gl_allow_screens@@3PAUcvar_s@@A:DWORD		; gl_allow_screens
EXTRN	?r_detailtextures@@3PAUcvar_s@@A:DWORD		; r_detailtextures
EXTRN	?r_mirrorquality@@3PAUcvar_s@@A:DWORD		; r_mirrorquality
EXTRN	?gl_water_refraction@@3PAUcvar_s@@A:DWORD	; gl_water_refraction
EXTRN	?gl_water_planar@@3PAUcvar_s@@A:DWORD		; gl_water_planar
EXTRN	?gl_emboss@@3PAUcvar_s@@A:DWORD			; gl_emboss
EXTRN	?gl_specular@@3PAUcvar_s@@A:DWORD		; gl_specular
EXTRN	?gl_cubemaps@@3PAUcvar_s@@A:DWORD		; gl_cubemaps
EXTRN	?gl_bump@@3PAUcvar_s@@A:DWORD			; gl_bump
EXTRN	?worldmodel@@3PAUmodel_s@@A:DWORD		; worldmodel
EXTRN	?RI@@3PAUref_instance_t@@A:DWORD		; RI
EXTRN	?tr@@3Uref_globals_t@@A:BYTE			; tr
EXTRN	?r_stats@@3Uref_stats_t@@A:BYTE			; r_stats
EXTRN	?glState@@3UglState_t@@A:BYTE			; glState
EXTRN	?glConfig@@3UglConfig_t@@A:BYTE			; glConfig
EXTRN	?world@@3PAUgl_world_t@@A:DWORD			; world
EXTRN	___security_cookie:DWORD
EXTRN	__fltused:DWORD
_BSS	SEGMENT
?filenames_stack@@3PAY0BAA@DA DB 04000H DUP (?)		; filenames_stack
?file_stack_pos@@3HA DD 01H DUP (?)			; file_stack_pos
?msg@?1??GL_PrintInfoLog@@YAPADI@Z@4PADA DB 02000H DUP (?) ; `GL_PrintInfoLog'::`2'::msg
?output@?1??GL_PretifyListOptions@@YAPBDPBD_N@Z@4PADA DB 0200H DUP (?) ; `GL_PretifyListOptions'::`2'::output
_BSS	ENDS
;	COMDAT __real@4080000000000000
CONST	SEGMENT
__real@4080000000000000 DQ 04080000000000000r	; 512
CONST	ENDS
;	COMDAT __real@3c23d70a
CONST	SEGMENT
__real@3c23d70a DD 03c23d70ar			; 0.01
CONST	ENDS
;	COMDAT __real@00000000
CONST	SEGMENT
__real@00000000 DD 000000000r			; 0
CONST	ENDS
;	COMDAT ??_C@_0L@NLJJNDD@GenericFog?$AA@
CONST	SEGMENT
??_C@_0L@NLJJNDD@GenericFog?$AA@ DB 'GenericFog', 00H	; `string'
CONST	ENDS
;	COMDAT ??_C@_0BJ@EIBCNIOJ@?$CDdefine?5GENERIC_FOG_EXP?6?$AA@
CONST	SEGMENT
??_C@_0BJ@EIBCNIOJ@?$CDdefine?5GENERIC_FOG_EXP?6?$AA@ DB '#define GENERIC'
	DB	'_FOG_EXP', 0aH, 00H				; `string'
CONST	ENDS
;	COMDAT ??_C@_0L@HNAIOPAA@GrassDepth?$AA@
CONST	SEGMENT
??_C@_0L@HNAIOPAA@GrassDepth?$AA@ DB 'GrassDepth', 00H	; `string'
CONST	ENDS
;	COMDAT ??_C@_0L@JIKKJIAL@BrushDepth?$AA@
CONST	SEGMENT
??_C@_0L@JIKKJIAL@BrushDepth?$AA@ DB 'BrushDepth', 00H	; `string'
CONST	ENDS
;	COMDAT ??_C@_0M@GGLEPNCD@BmodelDepth?$AA@
CONST	SEGMENT
??_C@_0M@GGLEPNCD@BmodelDepth?$AA@ DB 'BmodelDepth', 00H ; `string'
CONST	ENDS
;	COMDAT ??_C@_0BO@EFFFJJMB@?$CDdefine?5STUDIO_BONEWEIGHTING?6?$AA@
CONST	SEGMENT
??_C@_0BO@EFFFJJMB@?$CDdefine?5STUDIO_BONEWEIGHTING?6?$AA@ DB '#define ST'
	DB	'UDIO_BONEWEIGHTING', 0aH, 00H		; `string'
CONST	ENDS
;	COMDAT ??_C@_0M@HCHJLIAN@StudioDepth?$AA@
CONST	SEGMENT
??_C@_0M@HCHJLIAN@StudioDepth?$AA@ DB 'StudioDepth', 00H ; `string'
CONST	ENDS
;	COMDAT ??_C@_0O@JBFOLGIF@SkyBoxGeneric?$AA@
CONST	SEGMENT
??_C@_0O@JBFOLGIF@SkyBoxGeneric?$AA@ DB 'SkyBoxGeneric', 00H ; `string'
CONST	ENDS
;	COMDAT ??_C@_06BMKANHHL@skybox?$AA@
CONST	SEGMENT
??_C@_06BMKANHHL@skybox?$AA@ DB 'skybox', 00H		; `string'
CONST	ENDS
;	COMDAT ??_C@_0O@JMDABJHA@HW_GaussBlurY?$AA@
CONST	SEGMENT
??_C@_0O@JMDABJHA@HW_GaussBlurY?$AA@ DB 'HW_GaussBlurY', 00H ; `string'
CONST	ENDS
;	COMDAT ??_C@_0BA@LNJACEGB@?$CDdefine?5BLUR_Y?6?$AA@
CONST	SEGMENT
??_C@_0BA@LNJACEGB@?$CDdefine?5BLUR_Y?6?$AA@ DB '#define BLUR_Y', 0aH, 00H ; `string'
CONST	ENDS
;	COMDAT ??_C@_0O@IFCLCIDB@HW_GaussBlurX?$AA@
CONST	SEGMENT
??_C@_0O@IFCLCIDB@HW_GaussBlurX?$AA@ DB 'HW_GaussBlurX', 00H ; `string'
CONST	ENDS
;	COMDAT ??_C@_09NOBOKBD@gaussblur?$AA@
CONST	SEGMENT
??_C@_09NOBOKBD@gaussblur?$AA@ DB 'gaussblur', 00H	; `string'
CONST	ENDS
;	COMDAT ??_C@_0BA@LMFCEOFG@?$CDdefine?5BLUR_X?6?$AA@
CONST	SEGMENT
??_C@_0BA@LMFCEOFG@?$CDdefine?5BLUR_X?6?$AA@ DB '#define BLUR_X', 0aH, 00H ; `string'
CONST	ENDS
;	COMDAT ??_C@_0N@PGBKAPDM@GenLuminance?$AA@
CONST	SEGMENT
??_C@_0N@PGBKAPDM@GenLuminance?$AA@ DB 'GenLuminance', 00H ; `string'
CONST	ENDS
;	COMDAT ??_C@_0BD@NDDONEJH@generate_luminance?$AA@
CONST	SEGMENT
??_C@_0BD@NDDONEJH@generate_luminance?$AA@ DB 'generate_luminance', 00H ; `string'
CONST	ENDS
;	COMDAT ??_C@_07GEMJOFPD@BlurMip?$AA@
CONST	SEGMENT
??_C@_07GEMJOFPD@BlurMip?$AA@ DB 'BlurMip', 00H		; `string'
CONST	ENDS
;	COMDAT ??_C@_07DNINCIJL@blurmip?$AA@
CONST	SEGMENT
??_C@_07DNINCIJL@blurmip?$AA@ DB 'blurmip', 00H		; `string'
CONST	ENDS
;	COMDAT ??_C@_05KAPCBBNF@Bloom?$AA@
CONST	SEGMENT
??_C@_05KAPCBBNF@Bloom?$AA@ DB 'Bloom', 00H		; `string'
CONST	ENDS
;	COMDAT ??_C@_05KHFOBEOD@bloom?$AA@
CONST	SEGMENT
??_C@_05KHFOBEOD@bloom?$AA@ DB 'bloom', 00H		; `string'
CONST	ENDS
;	COMDAT ??_C@_0M@HNGKCBPC@GenExposure?$AA@
CONST	SEGMENT
??_C@_0M@HNGKCBPC@GenExposure?$AA@ DB 'GenExposure', 00H ; `string'
CONST	ENDS
;	COMDAT ??_C@_0BC@DGGDCKEA@generate_exposure?$AA@
CONST	SEGMENT
??_C@_0BC@DGGDCKEA@generate_exposure?$AA@ DB 'generate_exposure', 00H ; `string'
CONST	ENDS
;	COMDAT ??_C@_07FKDHCPLA@ToneMap?$AA@
CONST	SEGMENT
??_C@_07FKDHCPLA@ToneMap?$AA@ DB 'ToneMap', 00H		; `string'
CONST	ENDS
;	COMDAT ??_C@_07DHDOCNI@tonemap?$AA@
CONST	SEGMENT
??_C@_07DHDOCNI@tonemap?$AA@ DB 'tonemap', 00H		; `string'
CONST	ENDS
;	COMDAT ??_C@_0L@JBBGEKBL@WaterDrops?$AA@
CONST	SEGMENT
??_C@_0L@JBBGEKBL@WaterDrops?$AA@ DB 'WaterDrops', 00H	; `string'
CONST	ENDS
;	COMDAT ??_C@_0L@BACGMAPK@waterdrops?$AA@
CONST	SEGMENT
??_C@_0L@BACGMAPK@waterdrops?$AA@ DB 'waterdrops', 00H	; `string'
CONST	ENDS
;	COMDAT ??_C@_06LMDBCHG@Glitch?$AA@
CONST	SEGMENT
??_C@_06LMDBCHG@Glitch?$AA@ DB 'Glitch', 00H		; `string'
CONST	ENDS
;	COMDAT ??_C@_06MEHOCLOK@glitch?$AA@
CONST	SEGMENT
??_C@_06MEHOCLOK@glitch?$AA@ DB 'glitch', 00H		; `string'
CONST	ENDS
;	COMDAT ??_C@_0M@KDKCAKLK@ScreenWater?$AA@
CONST	SEGMENT
??_C@_0M@KDKCAKLK@ScreenWater?$AA@ DB 'ScreenWater', 00H ; `string'
CONST	ENDS
;	COMDAT ??_C@_0M@LMDPNEHE@screenwater?$AA@
CONST	SEGMENT
??_C@_0M@LMDPNEHE@screenwater?$AA@ DB 'screenwater', 00H ; `string'
CONST	ENDS
;	COMDAT ??_C@_07OJDOGCMG@Enhance?$AA@
CONST	SEGMENT
??_C@_07OJDOGCMG@Enhance?$AA@ DB 'Enhance', 00H		; `string'
CONST	ENDS
;	COMDAT ??_C@_07BAEIAAJA@enhance?$AA@
CONST	SEGMENT
??_C@_07BAEIAAJA@enhance?$AA@ DB 'enhance', 00H		; `string'
CONST	ENDS
;	COMDAT ??_C@_0L@NCAJOFAD@Monochrome?$AA@
CONST	SEGMENT
??_C@_0L@NCAJOFAD@Monochrome?$AA@ DB 'Monochrome', 00H	; `string'
CONST	ENDS
;	COMDAT ??_C@_0L@FEJFGKNE@monochrome?$AA@
CONST	SEGMENT
??_C@_0L@FEJFGKNE@monochrome?$AA@ DB 'monochrome', 00H	; `string'
CONST	ENDS
;	COMDAT ??_C@_0P@FGJJAFJA@HorizontalBlur?$AA@
CONST	SEGMENT
??_C@_0P@FGJJAFJA@HorizontalBlur?$AA@ DB 'HorizontalBlur', 00H ; `string'
CONST	ENDS
;	COMDAT ??_C@_0P@BPJNBEAK@horizontalblur?$AA@
CONST	SEGMENT
??_C@_0P@BPJNBEAK@horizontalblur?$AA@ DB 'horizontalblur', 00H ; `string'
CONST	ENDS
;	COMDAT ??_C@_0L@JIFDMMDE@MotionBlur?$AA@
CONST	SEGMENT
??_C@_0L@JIFDMMDE@MotionBlur?$AA@ DB 'MotionBlur', 00H	; `string'
CONST	ENDS
;	COMDAT ??_C@_0L@NPAOGMOH@motionblur?$AA@
CONST	SEGMENT
??_C@_0L@NPAOGMOH@motionblur?$AA@ DB 'motionblur', 00H	; `string'
CONST	ENDS
;	COMDAT ??_C@_08OPKJPEPF@DrawSSAO?$AA@
CONST	SEGMENT
??_C@_08OPKJPEPF@DrawSSAO?$AA@ DB 'DrawSSAO', 00H	; `string'
CONST	ENDS
;	COMDAT ??_C@_08KBGCJECO@drawssao?$AA@
CONST	SEGMENT
??_C@_08KBGCJECO@drawssao?$AA@ DB 'drawssao', 00H	; `string'
CONST	ENDS
;	COMDAT ??_C@_07PCEHEHGA@GenSSAO?$AA@
CONST	SEGMENT
??_C@_07PCEHEHGA@GenSSAO?$AA@ DB 'GenSSAO', 00H		; `string'
CONST	ENDS
;	COMDAT ??_C@_07MHALMHEO@genssao?$AA@
CONST	SEGMENT
??_C@_07MHALMHEO@genssao?$AA@ DB 'genssao', 00H		; `string'
CONST	ENDS
;	COMDAT ??_C@_0O@POAODLNE@DrawSunShafts?$AA@
CONST	SEGMENT
??_C@_0O@POAODLNE@DrawSunShafts?$AA@ DB 'DrawSunShafts', 00H ; `string'
CONST	ENDS
;	COMDAT ??_C@_0L@LPJGKIHI@drawshafts?$AA@
CONST	SEGMENT
??_C@_0L@LPJGKIHI@drawshafts?$AA@ DB 'drawshafts', 00H	; `string'
CONST	ENDS
;	COMDAT ??_C@_0N@LEDPODHG@GenSunShafts?$AA@
CONST	SEGMENT
??_C@_0N@LEDPODHG@GenSunShafts?$AA@ DB 'GenSunShafts', 00H ; `string'
CONST	ENDS
;	COMDAT ??_C@_07DCLBNMLN@generic?$AA@
CONST	SEGMENT
??_C@_07DCLBNMLN@generic?$AA@ DB 'generic', 00H		; `string'
CONST	ENDS
;	COMDAT ??_C@_09CIAJKFPI@genshafts?$AA@
CONST	SEGMENT
??_C@_09CIAJKFPI@genshafts?$AA@ DB 'genshafts', 00H	; `string'
CONST	ENDS
;	COMDAT ??_C@_0L@LGFNICHF@shaderlist?$AA@
CONST	SEGMENT
??_C@_0L@LGFNICHF@shaderlist?$AA@ DB 'shaderlist', 00H	; `string'
CONST	ENDS
;	COMDAT ??_C@_0BC@KGOJMEGM@total?5?$CFi?5shaders?6?$AA@
CONST	SEGMENT
??_C@_0BC@KGOJMEGM@total?5?$CFi?5shaders?6?$AA@ DB 'total %i shaders', 0aH
	DB	00H						; `string'
CONST	ENDS
;	COMDAT ??_C@_07KFCPEDAB@?$CD?$CFi?5?$CFs?6?$AA@
CONST	SEGMENT
??_C@_07KFCPEDAB@?$CD?$CFi?5?$CFs?6?$AA@ DB '#%i %s', 0aH, 00H ; `string'
CONST	ENDS
;	COMDAT ??_C@_0N@LHAEPDJL@?$CD?$CFi?5?$CFs?5?$FL?$CFs?$FN?6?$AA@
CONST	SEGMENT
??_C@_0N@LHAEPDJL@?$CD?$CFi?5?$CFs?5?$FL?$CFs?$FN?6?$AA@ DB '#%i %s [%s]', 0aH
	DB	00H						; `string'
CONST	ENDS
;	COMDAT ??_C@_0BE@JNEHHLPA@GENERIC_HAS_SHADOWS?$AA@
CONST	SEGMENT
??_C@_0BE@JNEHHLPA@GENERIC_HAS_SHADOWS?$AA@ DB 'GENERIC_HAS_SHADOWS', 00H ; `string'
CONST	ENDS
;	COMDAT ??_C@_0BA@DHGNAIIA@GENERIC_FOG_EXP?$AA@
CONST	SEGMENT
??_C@_0BA@DHGNAIIA@GENERIC_FOG_EXP?$AA@ DB 'GENERIC_FOG_EXP', 00H ; `string'
CONST	ENDS
;	COMDAT ??_C@_0BJ@JMLOAHFL@GENERIC_LIGHT_PROJECTION?$AA@
CONST	SEGMENT
??_C@_0BJ@JMLOAHFL@GENERIC_LIGHT_PROJECTION?$AA@ DB 'GENERIC_LIGHT_PROJEC'
	DB	'TION', 00H					; `string'
CONST	ENDS
;	COMDAT ??_C@_0BO@DKEIEFBK@GENERIC_LIGHT_OMNIDIRECTIONAL?$AA@
CONST	SEGMENT
??_C@_0BO@DKEIEFBK@GENERIC_LIGHT_OMNIDIRECTIONAL?$AA@ DB 'GENERIC_LIGHT_O'
	DB	'MNIDIRECTIONAL', 00H			; `string'
CONST	ENDS
;	COMDAT ??_C@_0O@FFCCJAIN@GenericDlight?$AA@
CONST	SEGMENT
??_C@_0O@FFCCJAIN@GenericDlight?$AA@ DB 'GenericDlight', 00H ; `string'
CONST	ENDS
;	COMDAT ??_C@_0BD@EODPNJDL@STUDIO_ALPHA_GLASS?$AA@
CONST	SEGMENT
??_C@_0BD@EODPNJDL@STUDIO_ALPHA_GLASS?$AA@ DB 'STUDIO_ALPHA_GLASS', 00H ; `string'
CONST	ENDS
;	COMDAT ??_C@_0M@EOFEOEOD@StudioDecal?$AA@
CONST	SEGMENT
??_C@_0M@EOFEOEOD@StudioDecal?$AA@ DB 'StudioDecal', 00H ; `string'
CONST	ENDS
;	COMDAT ??_C@_0BD@KGIMNJDD@STUDIO_HAS_SHADOWS?$AA@
CONST	SEGMENT
??_C@_0BD@KGIMNJDD@STUDIO_HAS_SHADOWS?$AA@ DB 'STUDIO_HAS_SHADOWS', 00H ; `string'
CONST	ENDS
;	COMDAT ??_C@_0BI@HECBNCEH@STUDIO_LIGHT_PROJECTION?$AA@
CONST	SEGMENT
??_C@_0BI@HECBNCEH@STUDIO_LIGHT_PROJECTION?$AA@ DB 'STUDIO_LIGHT_PROJECTI'
	DB	'ON', 00H					; `string'
CONST	ENDS
;	COMDAT ??_C@_0BN@OODKPABL@STUDIO_LIGHT_OMNIDIRECTIONAL?$AA@
CONST	SEGMENT
??_C@_0BN@OODKPABL@STUDIO_LIGHT_OMNIDIRECTIONAL?$AA@ DB 'STUDIO_LIGHT_OMN'
	DB	'IDIRECTIONAL', 00H				; `string'
CONST	ENDS
;	COMDAT ??_C@_0N@DNMDOFLN@StudioDlight?$AA@
CONST	SEGMENT
??_C@_0N@DNMDOFLN@StudioDlight?$AA@ DB 'StudioDlight', 00H ; `string'
CONST	ENDS
;	COMDAT ??_C@_0P@EAIBONLP@STUDIO_FOG_EXP?$AA@
CONST	SEGMENT
??_C@_0P@EAIBONLP@STUDIO_FOG_EXP?$AA@ DB 'STUDIO_FOG_EXP', 00H ; `string'
CONST	ENDS
;	COMDAT ??_C@_0BE@NHNIOEPO@STUDIO_SWAY_FOLIAGE?$AA@
CONST	SEGMENT
??_C@_0BE@NHNIOEPO@STUDIO_SWAY_FOLIAGE?$AA@ DB 'STUDIO_SWAY_FOLIAGE', 00H ; `string'
CONST	ENDS
;	COMDAT ??_C@_0M@LOLLNBMH@STUDIO_BUMP?$AA@
CONST	SEGMENT
??_C@_0M@LOLLNBMH@STUDIO_BUMP?$AA@ DB 'STUDIO_BUMP', 00H ; `string'
CONST	ENDS
;	COMDAT ??_C@_0BA@NBCLHJFL@STUDIO_SPECULAR?$AA@
CONST	SEGMENT
??_C@_0BA@NBCLHJFL@STUDIO_SPECULAR?$AA@ DB 'STUDIO_SPECULAR', 00H ; `string'
CONST	ENDS
;	COMDAT ??_C@_0O@CKALONGO@STUDIO_EMBOSS?$AA@
CONST	SEGMENT
??_C@_0O@CKALONGO@STUDIO_EMBOSS?$AA@ DB 'STUDIO_EMBOSS', 00H ; `string'
CONST	ENDS
;	COMDAT ??_C@_0BH@FKBCCABK@STUDIO_LIGHT_FLATSHADE?$AA@
CONST	SEGMENT
??_C@_0BH@FKBCCABK@STUDIO_LIGHT_FLATSHADE?$AA@ DB 'STUDIO_LIGHT_FLATSHADE'
	DB	00H						; `string'
CONST	ENDS
;	COMDAT ??_C@_0BC@FANBPCPJ@STUDIO_FULLBRIGHT?$AA@
CONST	SEGMENT
??_C@_0BC@FANBPCPJ@STUDIO_FULLBRIGHT?$AA@ DB 'STUDIO_FULLBRIGHT', 00H ; `string'
CONST	ENDS
;	COMDAT ??_C@_0BC@COADAGML@STUDIO_HAS_CHROME?$AA@
CONST	SEGMENT
??_C@_0BC@COADAGML@STUDIO_HAS_CHROME?$AA@ DB 'STUDIO_HAS_CHROME', 00H ; `string'
CONST	ENDS
;	COMDAT ??_C@_0BF@EHMPMNCE@STUDIO_BONEWEIGHTING?$AA@
CONST	SEGMENT
??_C@_0BF@EHMPMNCE@STUDIO_BONEWEIGHTING?$AA@ DB 'STUDIO_BONEWEIGHTING', 00H ; `string'
CONST	ENDS
;	COMDAT ??_C@_0BK@FOLBDGDH@?$CDdefine?5MAXSTUDIOBONES?51?6?$AA@
CONST	SEGMENT
??_C@_0BK@FOLBDGDH@?$CDdefine?5MAXSTUDIOBONES?51?6?$AA@ DB '#define MAXST'
	DB	'UDIOBONES 1', 0aH, 00H			; `string'
CONST	ENDS
;	COMDAT ??_C@_0BL@NPDONKFB@?$CDdefine?5MAXSTUDIOBONES?5?$CFd?6?$AA@
CONST	SEGMENT
??_C@_0BL@NPDONKFB@?$CDdefine?5MAXSTUDIOBONES?5?$CFd?6?$AA@ DB '#define M'
	DB	'AXSTUDIOBONES %d', 0aH, 00H			; `string'
CONST	ENDS
;	COMDAT ??_C@_0M@IEJOAFIH@StudioSolid?$AA@
CONST	SEGMENT
??_C@_0M@IEJOAFIH@StudioSolid?$AA@ DB 'StudioSolid', 00H ; `string'
CONST	ENDS
;	COMDAT ??_C@_0O@CONEDAKL@DECAL_FOG_EXP?$AA@
CONST	SEGMENT
??_C@_0O@CONEDAKL@DECAL_FOG_EXP?$AA@ DB 'DECAL_FOG_EXP', 00H ; `string'
CONST	ENDS
;	COMDAT ??_C@_0BB@GEGJOHBC@DECAL_FULLBRIGHT?$AA@
CONST	SEGMENT
??_C@_0BB@GEGJOHBC@DECAL_FULLBRIGHT?$AA@ DB 'DECAL_FULLBRIGHT', 00H ; `string'
CONST	ENDS
;	COMDAT ??_C@_0BA@ONPHMGJH@DECAL_ALPHATEST?$AA@
CONST	SEGMENT
??_C@_0BA@ONPHMGJH@DECAL_ALPHATEST?$AA@ DB 'DECAL_ALPHATEST', 00H ; `string'
CONST	ENDS
;	COMDAT ??_C@_0BE@GACGLFGM@DECAL_APPLY_STYLE?$CFi?$AA@
CONST	SEGMENT
??_C@_0BE@GACGLFGM@DECAL_APPLY_STYLE?$CFi?$AA@ DB 'DECAL_APPLY_STYLE%i', 00H ; `string'
CONST	ENDS
;	COMDAT ??_C@_0M@FKJJKBMN@BmodelDecal?$AA@
CONST	SEGMENT
??_C@_0M@FKJJKBMN@BmodelDecal?$AA@ DB 'BmodelDecal', 00H ; `string'
CONST	ENDS
;	COMDAT ?__LINE__Var@?0??GL_UberShaderForBmodelDecal@@YAGPAUdecal_s@@@Z@4JA
_DATA	SEGMENT
?__LINE__Var@?0??GL_UberShaderForBmodelDecal@@YAGPAUdecal_s@@@Z@4JA DD 0767H ; `GL_UberShaderForBmodelDecal'::`1'::__LINE__Var
_DATA	ENDS
;	COMDAT ??_C@_0BC@BHEHOBKF@GRASS_HAS_SHADOWS?$AA@
CONST	SEGMENT
??_C@_0BC@BHEHOBKF@GRASS_HAS_SHADOWS?$AA@ DB 'GRASS_HAS_SHADOWS', 00H ; `string'
CONST	ENDS
;	COMDAT ??_C@_0BH@HPNMDGOB@GRASS_LIGHT_PROJECTION?$AA@
CONST	SEGMENT
??_C@_0BH@HPNMDGOB@GRASS_LIGHT_PROJECTION?$AA@ DB 'GRASS_LIGHT_PROJECTION'
	DB	00H						; `string'
CONST	ENDS
;	COMDAT ??_C@_0BM@BGKIHFAK@GRASS_LIGHT_OMNIDIRECTIONAL?$AA@
CONST	SEGMENT
??_C@_0BM@BGKIHFAK@GRASS_LIGHT_OMNIDIRECTIONAL?$AA@ DB 'GRASS_LIGHT_OMNID'
	DB	'IRECTIONAL', 00H				; `string'
CONST	ENDS
;	COMDAT ??_C@_0M@EDHNOIFH@GrassDlight?$AA@
CONST	SEGMENT
??_C@_0M@EDHNOIFH@GrassDlight?$AA@ DB 'GrassDlight', 00H ; `string'
CONST	ENDS
;	COMDAT ??_C@_0O@FHMFIMAC@GRASS_FOG_EXP?$AA@
CONST	SEGMENT
??_C@_0O@FHMFIMAC@GRASS_FOG_EXP?$AA@ DB 'GRASS_FOG_EXP', 00H ; `string'
CONST	ENDS
;	COMDAT ??_C@_0BE@DIIHHDHK@GRASS_APPLY_STYLE?$CFi?$AA@
CONST	SEGMENT
??_C@_0BE@DIIHHDHK@GRASS_APPLY_STYLE?$CFi?$AA@ DB 'GRASS_APPLY_STYLE%i', 00H ; `string'
CONST	ENDS
;	COMDAT ??_C@_0BB@JAAAEAMC@GRASS_FULLBRIGHT?$AA@
CONST	SEGMENT
??_C@_0BB@JAAAEAMC@GRASS_FULLBRIGHT?$AA@ DB 'GRASS_FULLBRIGHT', 00H ; `string'
CONST	ENDS
;	COMDAT ??_C@_0L@ILOPFCIK@GrassSolid?$AA@
CONST	SEGMENT
??_C@_0L@ILOPFCIK@GrassSolid?$AA@ DB 'GrassSolid', 00H	; `string'
CONST	ENDS
;	COMDAT ??_C@_0BD@KIGFOMIP@BMODEL_HAS_SHADOWS?$AA@
CONST	SEGMENT
??_C@_0BD@KIGFOMIP@BMODEL_HAS_SHADOWS?$AA@ DB 'BMODEL_HAS_SHADOWS', 00H ; `string'
CONST	ENDS
;	COMDAT ??_C@_0BL@JGLDHOH@BMODEL_KRENDERTRANSTEXTURE?$AA@
CONST	SEGMENT
??_C@_0BL@JGLDHOH@BMODEL_KRENDERTRANSTEXTURE?$AA@ DB 'BMODEL_KRENDERTRANS'
	DB	'TEXTURE', 00H				; `string'
CONST	ENDS
;	COMDAT ??_C@_0BI@FOFDPJGA@BMODEL_LIGHT_PROJECTION?$AA@
CONST	SEGMENT
??_C@_0BI@FOFDPJGA@BMODEL_LIGHT_PROJECTION?$AA@ DB 'BMODEL_LIGHT_PROJECTI'
	DB	'ON', 00H					; `string'
CONST	ENDS
;	COMDAT ??_C@_0BN@NCPGFLCG@BMODEL_LIGHT_OMNIDIRECTIONAL?$AA@
CONST	SEGMENT
??_C@_0BN@NCPGFLCG@BMODEL_LIGHT_OMNIDIRECTIONAL?$AA@ DB 'BMODEL_LIGHT_OMN'
	DB	'IDIRECTIONAL', 00H				; `string'
CONST	ENDS
;	COMDAT ??_C@_0N@OBABCFDH@BmodelDlight?$AA@
CONST	SEGMENT
??_C@_0N@OBABCFDH@BmodelDlight?$AA@ DB 'BmodelDlight', 00H ; `string'
CONST	ENDS
;	COMDAT ??_C@_0P@BKIJIDAM@BMODEL_FOG_EXP?$AA@
CONST	SEGMENT
??_C@_0P@BKIJIDAM@BMODEL_FOG_EXP?$AA@ DB 'BMODEL_FOG_EXP', 00H ; `string'
CONST	ENDS
;	COMDAT ??_C@_0BC@NMNDDEJF@BMODEL_HAS_DETAIL?$AA@
CONST	SEGMENT
??_C@_0BC@NMNDDEJF@BMODEL_HAS_DETAIL?$AA@ DB 'BMODEL_HAS_DETAIL', 00H ; `string'
CONST	ENDS
;	COMDAT ??_C@_0BG@EHIGMOPN@TERRAIN_NUM_LAYERS?5?$CFi?$AA@
CONST	SEGMENT
??_C@_0BG@EHIGMOPN@TERRAIN_NUM_LAYERS?5?$CFi?$AA@ DB 'TERRAIN_NUM_LAYERS '
	DB	'%i', 00H					; `string'
CONST	ENDS
;	COMDAT ??_C@_0M@KKHGJEOJ@BMODEL_BUMP?$AA@
CONST	SEGMENT
??_C@_0M@KKHGJEOJ@BMODEL_BUMP?$AA@ DB 'BMODEL_BUMP', 00H ; `string'
CONST	ENDS
;	COMDAT ??_C@_0BA@IDBJJDAD@BMODEL_SPECULAR?$AA@
CONST	SEGMENT
??_C@_0BA@IDBJJDAD@BMODEL_SPECULAR?$AA@ DB 'BMODEL_SPECULAR', 00H ; `string'
CONST	ENDS
;	COMDAT ??_C@_0O@CHLKEFJA@BMODEL_EMBOSS?$AA@
CONST	SEGMENT
??_C@_0O@CHLKEFJA@BMODEL_EMBOSS?$AA@ DB 'BMODEL_EMBOSS', 00H ; `string'
CONST	ENDS
;	COMDAT ??_C@_0BI@KHDHCKHO@BMODEL_WATER_REFRACTION?$AA@
CONST	SEGMENT
??_C@_0BI@KHDHCKHO@BMODEL_WATER_REFRACTION?$AA@ DB 'BMODEL_WATER_REFRACTI'
	DB	'ON', 00H					; `string'
CONST	ENDS
;	COMDAT ??_C@_0BC@LPFDPIMB@BMODEL_WAVEHEIGHT?$AA@
CONST	SEGMENT
??_C@_0BC@LPFDPIMB@BMODEL_WAVEHEIGHT?$AA@ DB 'BMODEL_WAVEHEIGHT', 00H ; `string'
CONST	ENDS
;	COMDAT ??_C@_0N@KAHGMIHK@BMODEL_WATER?$AA@
CONST	SEGMENT
??_C@_0N@KAHGMIHK@BMODEL_WATER?$AA@ DB 'BMODEL_WATER', 00H ; `string'
CONST	ENDS
;	COMDAT ??_C@_0BA@EFJDEABO@BMODEL_HAS_LUMA?$AA@
CONST	SEGMENT
??_C@_0BA@EFJDEABO@BMODEL_HAS_LUMA?$AA@ DB 'BMODEL_HAS_LUMA', 00H ; `string'
CONST	ENDS
;	COMDAT ??_C@_0BF@CJFNHMMN@BMODEL_APPLY_STYLE?$CFi?$AA@
CONST	SEGMENT
??_C@_0BF@CJFNHMMN@BMODEL_APPLY_STYLE?$CFi?$AA@ DB 'BMODEL_APPLY_STYLE%i', 00H ; `string'
CONST	ENDS
;	COMDAT ??_C@_0BC@GCGMHMPB@BMODEL_FULLBRIGHT?$AA@
CONST	SEGMENT
??_C@_0BC@GCGMHMPB@BMODEL_FULLBRIGHT?$AA@ DB 'BMODEL_FULLBRIGHT', 00H ; `string'
CONST	ENDS
;	COMDAT ??_C@_0BC@FCBEIADP@BMODEL_MONOCHROME?$AA@
CONST	SEGMENT
??_C@_0BC@FCBEIADP@BMODEL_MONOCHROME?$AA@ DB 'BMODEL_MONOCHROME', 00H ; `string'
CONST	ENDS
;	COMDAT ??_C@_0O@GKJEGJGO@BMODEL_PORTAL?$AA@
CONST	SEGMENT
??_C@_0O@GKJEGJGO@BMODEL_PORTAL?$AA@ DB 'BMODEL_PORTAL', 00H ; `string'
CONST	ENDS
;	COMDAT ??_C@_0M@JAFDEAKJ@BmodelSolid?$AA@
CONST	SEGMENT
??_C@_0M@JAFDEAKJ@BmodelSolid?$AA@ DB 'BmodelSolid', 00H ; `string'
CONST	ENDS
;	COMDAT ?__LINE__Var@?0??GL_UberShaderForSolidBmodel@@YAGPAUmsurface_s@@_N@Z@4JA
_DATA	SEGMENT
?__LINE__Var@?0??GL_UberShaderForSolidBmodel@@YAGPAUmsurface_s@@_N@Z@4JA DD 05d8H ; `GL_UberShaderForSolidBmodel'::`1'::__LINE__Var
_DATA	ENDS
;	COMDAT ??_C@_07MAHLPAJA@?$CDdefine?$AA@
CONST	SEGMENT
??_C@_07MAHLPAJA@?$CDdefine?$AA@ DB '#define', 00H	; `string'
CONST	ENDS
;	COMDAT ?__LINE__Var@?0??GL_InitWaterDropsUniforms@@YAXPAUglsl_prog_s@@@Z@4JA
_DATA	SEGMENT
?__LINE__Var@?0??GL_InitWaterDropsUniforms@@YAXPAUglsl_prog_s@@@Z@4JA DD 05a6H ; `GL_InitWaterDropsUniforms'::`1'::__LINE__Var
_DATA	ENDS
;	COMDAT ?__LINE__Var@?0??GL_InitGlitchUniforms@@YAXPAUglsl_prog_s@@@Z@4JA
_DATA	SEGMENT
?__LINE__Var@?0??GL_InitGlitchUniforms@@YAXPAUglsl_prog_s@@@Z@4JA DD 0595H ; `GL_InitGlitchUniforms'::`1'::__LINE__Var
_DATA	ENDS
;	COMDAT ?__LINE__Var@?0??GL_InitScreenWaterUniforms@@YAXPAUglsl_prog_s@@@Z@4JA
_DATA	SEGMENT
?__LINE__Var@?0??GL_InitScreenWaterUniforms@@YAXPAUglsl_prog_s@@@Z@4JA DD 0582H ; `GL_InitScreenWaterUniforms'::`1'::__LINE__Var
_DATA	ENDS
;	COMDAT ??_C@_0BB@OFOHIACD@u_BloomFirstPass?$AA@
CONST	SEGMENT
??_C@_0BB@OFOHIACD@u_BloomFirstPass?$AA@ DB 'u_BloomFirstPass', 00H ; `string'
CONST	ENDS
;	COMDAT ??_C@_0BA@CHODOENL@u_TexCoordClamp?$AA@
CONST	SEGMENT
??_C@_0BA@CHODOENL@u_TexCoordClamp?$AA@ DB 'u_TexCoordClamp', 00H ; `string'
CONST	ENDS
;	COMDAT ?__LINE__Var@?0??GL_InitBlurMipUniforms@@YAXPAUglsl_prog_s@@@Z@4JA
_DATA	SEGMENT
?__LINE__Var@?0??GL_InitBlurMipUniforms@@YAXPAUglsl_prog_s@@@Z@4JA DD 0570H ; `GL_InitBlurMipUniforms'::`1'::__LINE__Var
_DATA	ENDS
;	COMDAT ??_C@_0M@JKCPEDOF@u_TimeDelta?$AA@
CONST	SEGMENT
??_C@_0M@JKCPEDOF@u_TimeDelta?$AA@ DB 'u_TimeDelta', 00H ; `string'
CONST	ENDS
;	COMDAT ?__LINE__Var@?0??GL_InitGenExposureUniforms@@YAXPAUglsl_prog_s@@@Z@4JA
_DATA	SEGMENT
?__LINE__Var@?0??GL_InitGenExposureUniforms@@YAXPAUglsl_prog_s@@@Z@4JA DD 055eH ; `GL_InitGenExposureUniforms'::`1'::__LINE__Var
_DATA	ENDS
;	COMDAT ?__LINE__Var@?0??GL_InitGenLuminanceUniforms@@YAXPAUglsl_prog_s@@@Z@4JA
_DATA	SEGMENT
?__LINE__Var@?0??GL_InitGenLuminanceUniforms@@YAXPAUglsl_prog_s@@@Z@4JA DD 054fH ; `GL_InitGenLuminanceUniforms'::`1'::__LINE__Var
_DATA	ENDS
;	COMDAT ??_C@_08EPOJODHO@u_MipLod?$AA@
CONST	SEGMENT
??_C@_08EPOJODHO@u_MipLod?$AA@ DB 'u_MipLod', 00H	; `string'
CONST	ENDS
;	COMDAT ??_C@_0O@NAHLAMOG@u_HDRExposure?$AA@
CONST	SEGMENT
??_C@_0O@NAHLAMOG@u_HDRExposure?$AA@ DB 'u_HDRExposure', 00H ; `string'
CONST	ENDS
;	COMDAT ?__LINE__Var@?0??GL_InitTonemapUniforms@@YAXPAUglsl_prog_s@@@Z@4JA
_DATA	SEGMENT
?__LINE__Var@?0??GL_InitTonemapUniforms@@YAXPAUglsl_prog_s@@@Z@4JA DD 053dH ; `GL_InitTonemapUniforms'::`1'::__LINE__Var
_DATA	ENDS
;	COMDAT ?__LINE__Var@?0??GL_InitBloomUniforms@@YAXPAUglsl_prog_s@@@Z@4JA
_DATA	SEGMENT
?__LINE__Var@?0??GL_InitBloomUniforms@@YAXPAUglsl_prog_s@@@Z@4JA DD 052dH ; `GL_InitBloomUniforms'::`1'::__LINE__Var
_DATA	ENDS
;	COMDAT ??_C@_0BE@BJALCEGK@u_GenericCondition2?$AA@
CONST	SEGMENT
??_C@_0BE@BJALCEGK@u_GenericCondition2?$AA@ DB 'u_GenericCondition2', 00H ; `string'
CONST	ENDS
;	COMDAT ?__LINE__Var@?0??GL_InitEnhanceUniforms@@YAXPAUglsl_prog_s@@@Z@4JA
_DATA	SEGMENT
?__LINE__Var@?0??GL_InitEnhanceUniforms@@YAXPAUglsl_prog_s@@@Z@4JA DD 051cH ; `GL_InitEnhanceUniforms'::`1'::__LINE__Var
_DATA	ENDS
;	COMDAT ?__LINE__Var@?0??GL_InitMonochromeUniforms@@YAXPAUglsl_prog_s@@@Z@4JA
_DATA	SEGMENT
?__LINE__Var@?0??GL_InitMonochromeUniforms@@YAXPAUglsl_prog_s@@@Z@4JA DD 050dH ; `GL_InitMonochromeUniforms'::`1'::__LINE__Var
_DATA	ENDS
;	COMDAT ?__LINE__Var@?0??GL_InitHorizontalBlurUniforms@@YAXPAUglsl_prog_s@@@Z@4JA
_DATA	SEGMENT
?__LINE__Var@?0??GL_InitHorizontalBlurUniforms@@YAXPAUglsl_prog_s@@@Z@4JA DD 04fdH ; `GL_InitHorizontalBlurUniforms'::`1'::__LINE__Var
_DATA	ENDS
;	COMDAT ??_C@_07BKJMBFNE@u_Accum?$AA@
CONST	SEGMENT
??_C@_07BKJMBFNE@u_Accum?$AA@ DB 'u_Accum', 00H		; `string'
CONST	ENDS
;	COMDAT ??_C@_0O@BPMLMILL@u_MB_Velocity?$AA@
CONST	SEGMENT
??_C@_0O@BPMLMILL@u_MB_Velocity?$AA@ DB 'u_MB_Velocity', 00H ; `string'
CONST	ENDS
;	COMDAT ?__LINE__Var@?0??GL_InitMotionBlurUniforms@@YAXPAUglsl_prog_s@@@Z@4JA
_DATA	SEGMENT
?__LINE__Var@?0??GL_InitMotionBlurUniforms@@YAXPAUglsl_prog_s@@@Z@4JA DD 04eaH ; `GL_InitMotionBlurUniforms'::`1'::__LINE__Var
_DATA	ENDS
;	COMDAT ??_C@_07LKADGIGM@u_AOMap?$AA@
CONST	SEGMENT
??_C@_07LKADGIGM@u_AOMap?$AA@ DB 'u_AOMap', 00H		; `string'
CONST	ENDS
;	COMDAT ?__LINE__Var@?0??GL_InitDrawSSAOUniforms@@YAXPAUglsl_prog_s@@@Z@4JA
_DATA	SEGMENT
?__LINE__Var@?0??GL_InitDrawSSAOUniforms@@YAXPAUglsl_prog_s@@@Z@4JA DD 04d9H ; `GL_InitDrawSSAOUniforms'::`1'::__LINE__Var
_DATA	ENDS
;	COMDAT ??_C@_0M@CGFAMJEG@u_RotateMap?$AA@
CONST	SEGMENT
??_C@_0M@CGFAMJEG@u_RotateMap?$AA@ DB 'u_RotateMap', 00H ; `string'
CONST	ENDS
;	COMDAT ?__LINE__Var@?0??GL_InitGenSSAOUniforms@@YAXPAUglsl_prog_s@@@Z@4JA
_DATA	SEGMENT
?__LINE__Var@?0??GL_InitGenSSAOUniforms@@YAXPAUglsl_prog_s@@@Z@4JA DD 04c8H ; `GL_InitGenSSAOUniforms'::`1'::__LINE__Var
_DATA	ENDS
;	COMDAT ??_C@_0BA@MLGMJJCM@u_SS_Brightness?$AA@
CONST	SEGMENT
??_C@_0BA@MLGMJJCM@u_SS_Brightness?$AA@ DB 'u_SS_Brightness', 00H ; `string'
CONST	ENDS
;	COMDAT ?__LINE__Var@?0??GL_InitDrawShaftsUniforms@@YAXPAUglsl_prog_s@@@Z@4JA
_DATA	SEGMENT
?__LINE__Var@?0??GL_InitDrawShaftsUniforms@@YAXPAUglsl_prog_s@@@Z@4JA DD 04b2H ; `GL_InitDrawShaftsUniforms'::`1'::__LINE__Var
_DATA	ENDS
;	COMDAT ?__LINE__Var@?0??GL_InitGenShaftsUniforms@@YAXPAUglsl_prog_s@@@Z@4JA
_DATA	SEGMENT
?__LINE__Var@?0??GL_InitGenShaftsUniforms@@YAXPAUglsl_prog_s@@@Z@4JA DD 04a1H ; `GL_InitGenShaftsUniforms'::`1'::__LINE__Var
_DATA	ENDS
;	COMDAT ?__LINE__Var@?0??GL_InitGenericFogUniforms@@YAXPAUglsl_prog_s@@@Z@4JA
_DATA	SEGMENT
?__LINE__Var@?0??GL_InitGenericFogUniforms@@YAXPAUglsl_prog_s@@@Z@4JA DD 0491H ; `GL_InitGenericFogUniforms'::`1'::__LINE__Var
_DATA	ENDS
;	COMDAT ??_C@_0N@IIDPNGLD@u_BlurFactor?$AA@
CONST	SEGMENT
??_C@_0N@IIDPNGLD@u_BlurFactor?$AA@ DB 'u_BlurFactor', 00H ; `string'
CONST	ENDS
;	COMDAT ?__LINE__Var@?0??GL_InitPostProcessUniforms@@YAXPAUglsl_prog_s@@@Z@4JA
_DATA	SEGMENT
?__LINE__Var@?0??GL_InitPostProcessUniforms@@YAXPAUglsl_prog_s@@@Z@4JA DD 0482H ; `GL_InitPostProcessUniforms'::`1'::__LINE__Var
_DATA	ENDS
;	COMDAT ??_C@_0BD@KPMFEKBG@u_GenericCondition?$AA@
CONST	SEGMENT
??_C@_0BD@KPMFEKBG@u_GenericCondition?$AA@ DB 'u_GenericCondition', 00H ; `string'
CONST	ENDS
;	COMDAT ?__LINE__Var@?0??GL_InitSkyBoxUniforms@@YAXPAUglsl_prog_s@@@Z@4JA
_DATA	SEGMENT
?__LINE__Var@?0??GL_InitSkyBoxUniforms@@YAXPAUglsl_prog_s@@@Z@4JA DD 046eH ; `GL_InitSkyBoxUniforms'::`1'::__LINE__Var
_DATA	ENDS
;	COMDAT ?__LINE__Var@?0??GL_InitStudioDecalUniforms@@YAXPAUglsl_prog_s@@@Z@4JA
_DATA	SEGMENT
?__LINE__Var@?0??GL_InitStudioDecalUniforms@@YAXPAUglsl_prog_s@@@Z@4JA DD 045dH ; `GL_InitStudioDecalUniforms'::`1'::__LINE__Var
_DATA	ENDS
;	COMDAT ??_C@_0N@EFGBPOFK@u_LightScale?$AA@
CONST	SEGMENT
??_C@_0N@EFGBPOFK@u_LightScale?$AA@ DB 'u_LightScale', 00H ; `string'
CONST	ENDS
;	COMDAT ?__LINE__Var@?0??GL_InitGenericDlightUniforms@@YAXPAUglsl_prog_s@@@Z@4JA
_DATA	SEGMENT
?__LINE__Var@?0??GL_InitGenericDlightUniforms@@YAXPAUglsl_prog_s@@@Z@4JA DD 0442H ; `GL_InitGenericDlightUniforms'::`1'::__LINE__Var
_DATA	ENDS
;	COMDAT ?__LINE__Var@?0??GL_InitGrassDlightUniforms@@YAXPAUglsl_prog_s@@@Z@4JA
_DATA	SEGMENT
?__LINE__Var@?0??GL_InitGrassDlightUniforms@@YAXPAUglsl_prog_s@@@Z@4JA DD 0422H ; `GL_InitGrassDlightUniforms'::`1'::__LINE__Var
_DATA	ENDS
;	COMDAT ??_C@_0P@MOHLDOHD@u_GrassFadeEnd?$AA@
CONST	SEGMENT
??_C@_0P@MOHLDOHD@u_GrassFadeEnd?$AA@ DB 'u_GrassFadeEnd', 00H ; `string'
CONST	ENDS
;	COMDAT ??_C@_0BA@DLEPEDLG@u_GrassFadeDist?$AA@
CONST	SEGMENT
??_C@_0BA@DLEPEDLG@u_GrassFadeDist?$AA@ DB 'u_GrassFadeDist', 00H ; `string'
CONST	ENDS
;	COMDAT ??_C@_0BB@BBFEGHLO@u_GrassFadeStart?$AA@
CONST	SEGMENT
??_C@_0BB@BBFEGHLO@u_GrassFadeStart?$AA@ DB 'u_GrassFadeStart', 00H ; `string'
CONST	ENDS
;	COMDAT ?__LINE__Var@?0??GL_InitGrassSolidUniforms@@YAXPAUglsl_prog_s@@@Z@4JA
_DATA	SEGMENT
?__LINE__Var@?0??GL_InitGrassSolidUniforms@@YAXPAUglsl_prog_s@@@Z@4JA DD 040aH ; `GL_InitGrassSolidUniforms'::`1'::__LINE__Var
_DATA	ENDS
;	COMDAT ?__LINE__Var@?0??GL_InitStudioDepthFillUniforms@@YAXPAUglsl_prog_s@@@Z@4JA
_DATA	SEGMENT
?__LINE__Var@?0??GL_InitStudioDepthFillUniforms@@YAXPAUglsl_prog_s@@@Z@4JA DD 03f8H ; `GL_InitStudioDepthFillUniforms'::`1'::__LINE__Var
_DATA	ENDS
;	COMDAT ?__LINE__Var@?0??GL_InitStudioDlightUniforms@@YAXPAUglsl_prog_s@@@Z@4JA
_DATA	SEGMENT
?__LINE__Var@?0??GL_InitStudioDlightUniforms@@YAXPAUglsl_prog_s@@@Z@4JA DD 03c1H ; `GL_InitStudioDlightUniforms'::`1'::__LINE__Var
_DATA	ENDS
;	COMDAT ??_C@_0BF@MDNGADJD@STUDIO_HAS_COLORMASK?$AA@
CONST	SEGMENT
??_C@_0BF@MDNGADJD@STUDIO_HAS_COLORMASK?$AA@ DB 'STUDIO_HAS_COLORMASK', 00H ; `string'
CONST	ENDS
;	COMDAT ??_C@_0BE@GNPKMAIG@u_FoliageSwayHeight?$AA@
CONST	SEGMENT
??_C@_0BE@GNPKMAIG@u_FoliageSwayHeight?$AA@ DB 'u_FoliageSwayHeight', 00H ; `string'
CONST	ENDS
;	COMDAT ??_C@_0M@FIIJDCAM@u_ViewRight?$AA@
CONST	SEGMENT
??_C@_0M@FIIJDCAM@u_ViewRight?$AA@ DB 'u_ViewRight', 00H ; `string'
CONST	ENDS
;	COMDAT ??_C@_0N@DMKCJOPD@u_LightShade?$AA@
CONST	SEGMENT
??_C@_0N@DMKCJOPD@u_LightShade?$AA@ DB 'u_LightShade', 00H ; `string'
CONST	ENDS
;	COMDAT ??_C@_0P@DDJOMFKJ@u_LightAmbient?$AA@
CONST	SEGMENT
??_C@_0P@DDJOMFKJ@u_LightAmbient?$AA@ DB 'u_LightAmbient', 00H ; `string'
CONST	ENDS
;	COMDAT ??_C@_0N@HGOIPDNC@u_LightColor?$AA@
CONST	SEGMENT
??_C@_0N@HGOIPDNC@u_LightColor?$AA@ DB 'u_LightColor', 00H ; `string'
CONST	ENDS
;	COMDAT ??_C@_0N@OIMPMCEP@u_GammaTable?$AA@
CONST	SEGMENT
??_C@_0N@OIMPMCEP@u_GammaTable?$AA@ DB 'u_GammaTable', 00H ; `string'
CONST	ENDS
;	COMDAT ??_C@_0O@MBKKBNEB@u_LightStyles?$AA@
CONST	SEGMENT
??_C@_0O@MBKKBNEB@u_LightStyles?$AA@ DB 'u_LightStyles', 00H ; `string'
CONST	ENDS
;	COMDAT ??_C@_0BH@BHCFIENI@STUDIO_VERTEX_LIGHTING?$AA@
CONST	SEGMENT
??_C@_0BH@BHCFIENI@STUDIO_VERTEX_LIGHTING?$AA@ DB 'STUDIO_VERTEX_LIGHTING'
	DB	00H						; `string'
CONST	ENDS
;	COMDAT ??_C@_0BA@BJGEOHOC@STUDIO_INTERIOR?$AA@
CONST	SEGMENT
??_C@_0BA@BJGEOHOC@STUDIO_INTERIOR?$AA@ DB 'STUDIO_INTERIOR', 00H ; `string'
CONST	ENDS
;	COMDAT ??_C@_0M@GKMFFJIJ@u_ColorMask?$AA@
CONST	SEGMENT
??_C@_0M@GKMFFJIJ@u_ColorMask?$AA@ DB 'u_ColorMask', 00H ; `string'
CONST	ENDS
;	COMDAT ??_C@_0N@DJODLMKK@u_MeshAngles?$AA@
CONST	SEGMENT
??_C@_0N@DJODLMKK@u_MeshAngles?$AA@ DB 'u_MeshAngles', 00H ; `string'
CONST	ENDS
;	COMDAT ??_C@_0M@LKOGHAJI@u_MeshScale?$AA@
CONST	SEGMENT
??_C@_0M@LKOGHAJI@u_MeshScale?$AA@ DB 'u_MeshScale', 00H ; `string'
CONST	ENDS
;	COMDAT ??_C@_0P@KFHIBBDA@u_BonePosition?$AA@
CONST	SEGMENT
??_C@_0P@KFHIBBDA@u_BonePosition?$AA@ DB 'u_BonePosition', 00H ; `string'
CONST	ENDS
;	COMDAT ??_C@_0BB@JBIGINIK@u_BoneQuaternion?$AA@
CONST	SEGMENT
??_C@_0BB@JBIGINIK@u_BoneQuaternion?$AA@ DB 'u_BoneQuaternion', 00H ; `string'
CONST	ENDS
;	COMDAT ?__LINE__Var@?0??GL_InitSolidStudioUniforms@@YAXPAUglsl_prog_s@@@Z@4JA
_DATA	SEGMENT
?__LINE__Var@?0??GL_InitSolidStudioUniforms@@YAXPAUglsl_prog_s@@@Z@4JA DD 0374H ; `GL_InitSolidStudioUniforms'::`1'::__LINE__Var
_DATA	ENDS
;	COMDAT ??_C@_0L@GCAHNJHJ@u_DecalMap?$AA@
CONST	SEGMENT
??_C@_0L@GCAHNJHJ@u_DecalMap?$AA@ DB 'u_DecalMap', 00H	; `string'
CONST	ENDS
;	COMDAT ?__LINE__Var@?0??GL_InitBmodelDecalUniforms@@YAXPAUglsl_prog_s@@@Z@4JA
_DATA	SEGMENT
?__LINE__Var@?0??GL_InitBmodelDecalUniforms@@YAXPAUglsl_prog_s@@@Z@4JA DD 035eH ; `GL_InitBmodelDecalUniforms'::`1'::__LINE__Var
_DATA	ENDS
;	COMDAT ?__LINE__Var@?0??GL_InitBmodelDepthFillUniforms@@YAXPAUglsl_prog_s@@@Z@4JA
_DATA	SEGMENT
?__LINE__Var@?0??GL_InitBmodelDepthFillUniforms@@YAXPAUglsl_prog_s@@@Z@4JA DD 034eH ; `GL_InitBmodelDepthFillUniforms'::`1'::__LINE__Var
_DATA	ENDS
;	COMDAT ??_C@_0BF@DEABILDM@u_DynLightBrightness?$AA@
CONST	SEGMENT
??_C@_0BF@DEABILDM@u_DynLightBrightness?$AA@ DB 'u_DynLightBrightness', 00H ; `string'
CONST	ENDS
;	COMDAT ??_C@_0BM@OPAKJEIH@u_LightViewProjectionMatrix?$AA@
CONST	SEGMENT
??_C@_0BM@OPAKJEIH@u_LightViewProjectionMatrix?$AA@ DB 'u_LightViewProjec'
	DB	'tionMatrix', 00H				; `string'
CONST	ENDS
;	COMDAT ??_C@_0O@PGBKINBN@u_LightOrigin?$AA@
CONST	SEGMENT
??_C@_0O@PGBKINBN@u_LightOrigin?$AA@ DB 'u_LightOrigin', 00H ; `string'
CONST	ENDS
;	COMDAT ??_C@_0P@DOIHPJNE@u_ShadowParams?$AA@
CONST	SEGMENT
??_C@_0P@DOIHPJNE@u_ShadowParams?$AA@ DB 'u_ShadowParams', 00H ; `string'
CONST	ENDS
;	COMDAT ??_C@_0P@IBMOHOLF@u_LightDiffuse?$AA@
CONST	SEGMENT
??_C@_0P@IBMOHOLF@u_LightDiffuse?$AA@ DB 'u_LightDiffuse', 00H ; `string'
CONST	ENDS
;	COMDAT ??_C@_0L@EMINLLAG@u_LightDir?$AA@
CONST	SEGMENT
??_C@_0L@EMINLLAG@u_LightDir?$AA@ DB 'u_LightDir', 00H	; `string'
CONST	ENDS
;	COMDAT ??_C@_0M@LIKBOJOD@u_ShadowMap?$AA@
CONST	SEGMENT
??_C@_0M@LIKBOJOD@u_ShadowMap?$AA@ DB 'u_ShadowMap', 00H ; `string'
CONST	ENDS
;	COMDAT ??_C@_0N@FKEMJKI@u_ProjectMap?$AA@
CONST	SEGMENT
??_C@_0N@FKEMJKI@u_ProjectMap?$AA@ DB 'u_ProjectMap', 00H ; `string'
CONST	ENDS
;	COMDAT ?__LINE__Var@?0??GL_InitBmodelDlightUniforms@@YAXPAUglsl_prog_s@@@Z@4JA
_DATA	SEGMENT
?__LINE__Var@?0??GL_InitBmodelDlightUniforms@@YAXPAUglsl_prog_s@@@Z@4JA DD 0311H ; `GL_InitBmodelDlightUniforms'::`1'::__LINE__Var
_DATA	ENDS
;	COMDAT ??_C@_06HIBKCAMD@u_zFar?$AA@
CONST	SEGMENT
??_C@_06HIBKCAMD@u_zFar?$AA@ DB 'u_zFar', 00H		; `string'
CONST	ENDS
;	COMDAT ??_C@_0O@PDAILIH@u_RenderColor?$AA@
CONST	SEGMENT
??_C@_0O@PDAILIH@u_RenderColor?$AA@ DB 'u_RenderColor', 00H ; `string'
CONST	ENDS
;	COMDAT ??_C@_0BA@CNHIBBKL@u_ScreenSizeInv?$AA@
CONST	SEGMENT
??_C@_0BA@CNHIBBKL@u_ScreenSizeInv?$AA@ DB 'u_ScreenSizeInv', 00H ; `string'
CONST	ENDS
;	COMDAT ??_C@_0M@LNDNBCGB@u_FogParams?$AA@
CONST	SEGMENT
??_C@_0M@LNDNBCGB@u_FogParams?$AA@ DB 'u_FogParams', 00H ; `string'
CONST	ENDS
;	COMDAT ??_C@_0M@MGCFPBL@u_TexOffset?$AA@
CONST	SEGMENT
??_C@_0M@MGCFPBL@u_TexOffset?$AA@ DB 'u_TexOffset', 00H	; `string'
CONST	ENDS
;	COMDAT ??_C@_0O@MFMJGIKB@u_DetailScale?$AA@
CONST	SEGMENT
??_C@_0O@MFMJGIKB@u_DetailScale?$AA@ DB 'u_DetailScale', 00H ; `string'
CONST	ENDS
;	COMDAT ??_C@_0O@MBNOFNKO@u_ModelMatrix?$AA@
CONST	SEGMENT
??_C@_0O@MBNOFNKO@u_ModelMatrix?$AA@ DB 'u_ModelMatrix', 00H ; `string'
CONST	ENDS
;	COMDAT ??_C@_0BD@NFOOODNK@u_LightStyleValues?$AA@
CONST	SEGMENT
??_C@_0BD@NFOOODNK@u_LightStyleValues?$AA@ DB 'u_LightStyleValues', 00H ; `string'
CONST	ENDS
;	COMDAT ??_C@_0L@JCKKGKMC@u_DepthMap?$AA@
CONST	SEGMENT
??_C@_0L@JCKKGKMC@u_DepthMap?$AA@ DB 'u_DepthMap', 00H	; `string'
CONST	ENDS
;	COMDAT ??_C@_0L@NKHKNNOO@u_LayerMap?$AA@
CONST	SEGMENT
??_C@_0L@NKHKNNOO@u_LayerMap?$AA@ DB 'u_LayerMap', 00H	; `string'
CONST	ENDS
;	COMDAT ??_C@_0BE@FBBOMMAP@BMODEL_MULTI_LAYERS?$AA@
CONST	SEGMENT
??_C@_0BE@FBBOMMAP@BMODEL_MULTI_LAYERS?$AA@ DB 'BMODEL_MULTI_LAYERS', 00H ; `string'
CONST	ENDS
;	COMDAT ??_C@_0O@HKDACOHC@u_EmbossScale?$AA@
CONST	SEGMENT
??_C@_0O@HKDACOHC@u_EmbossScale?$AA@ DB 'u_EmbossScale', 00H ; `string'
CONST	ENDS
;	COMDAT ??_C@_0BC@KIIHBDPB@u_GlossSmoothness?$AA@
CONST	SEGMENT
??_C@_0BC@KIIHBDPB@u_GlossSmoothness?$AA@ DB 'u_GlossSmoothness', 00H ; `string'
CONST	ENDS
;	COMDAT ??_C@_0N@NPMHADLB@u_GlossScale?$AA@
CONST	SEGMENT
??_C@_0N@NPMHADLB@u_GlossScale?$AA@ DB 'u_GlossScale', 00H ; `string'
CONST	ENDS
;	COMDAT ??_C@_0M@NCMDOAEP@u_DeluxeMap?$AA@
CONST	SEGMENT
??_C@_0M@NCMDOAEP@u_DeluxeMap?$AA@ DB 'u_DeluxeMap', 00H ; `string'
CONST	ENDS
;	COMDAT ??_C@_0N@GOCFBCHC@u_ViewOrigin?$AA@
CONST	SEGMENT
??_C@_0N@GOCFBCHC@u_ViewOrigin?$AA@ DB 'u_ViewOrigin', 00H ; `string'
CONST	ENDS
;	COMDAT ??_C@_0L@HHPJFKED@u_WaterTex?$AA@
CONST	SEGMENT
??_C@_0L@HHPJFKED@u_WaterTex?$AA@ DB 'u_WaterTex', 00H	; `string'
CONST	ENDS
;	COMDAT ??_C@_0BF@HOPHCIFE@u_PlanarReflectScale?$AA@
CONST	SEGMENT
??_C@_0BF@HOPHCIFE@u_PlanarReflectScale?$AA@ DB 'u_PlanarReflectScale', 00H ; `string'
CONST	ENDS
;	COMDAT ??_C@_0BE@LOJOFLMK@BMODEL_WATER_PLANAR?$AA@
CONST	SEGMENT
??_C@_0BE@LOJOFLMK@BMODEL_WATER_PLANAR?$AA@ DB 'BMODEL_WATER_PLANAR', 00H ; `string'
CONST	ENDS
;	COMDAT ??_C@_0BJ@JCIGHEFN@BMODEL_REFLECTION_PLANAR?$AA@
CONST	SEGMENT
??_C@_0BJ@JCIGHEFN@BMODEL_REFLECTION_PLANAR?$AA@ DB 'BMODEL_REFLECTION_PL'
	DB	'ANAR', 00H					; `string'
CONST	ENDS
;	COMDAT ??_C@_0BF@HKDFFBEE@u_InteriorLightState?$AA@
CONST	SEGMENT
??_C@_0BF@HKDFFBEE@u_InteriorLightState?$AA@ DB 'u_InteriorLightState', 00H ; `string'
CONST	ENDS
;	COMDAT ??_C@_0P@KJLBFPAD@u_InteriorGrid?$AA@
CONST	SEGMENT
??_C@_0P@KJLBFPAD@u_InteriorGrid?$AA@ DB 'u_InteriorGrid', 00H ; `string'
CONST	ENDS
;	COMDAT ??_C@_0L@BGHCDECL@u_RealTime?$AA@
CONST	SEGMENT
??_C@_0L@BGHCDECL@u_RealTime?$AA@ DB 'u_RealTime', 00H	; `string'
CONST	ENDS
;	COMDAT ??_C@_0O@KNPDKBPI@u_InteriorMap?$AA@
CONST	SEGMENT
??_C@_0O@KNPDKBPI@u_InteriorMap?$AA@ DB 'u_InteriorMap', 00H ; `string'
CONST	ENDS
;	COMDAT ??_C@_0BA@ELFGANLK@BMODEL_INTERIOR?$AA@
CONST	SEGMENT
??_C@_0BA@ELFGANLK@BMODEL_INTERIOR?$AA@ DB 'BMODEL_INTERIOR', 00H ; `string'
CONST	ENDS
;	COMDAT ??_C@_0P@BIBHBLHM@u_ReflectScale?$AA@
CONST	SEGMENT
??_C@_0P@BIBHBLHM@u_ReflectScale?$AA@ DB 'u_ReflectScale', 00H ; `string'
CONST	ENDS
;	COMDAT ??_C@_09CNMADOIB@u_BoxMaxs?$AA@
CONST	SEGMENT
??_C@_09CNMADOIB@u_BoxMaxs?$AA@ DB 'u_BoxMaxs', 00H	; `string'
CONST	ENDS
;	COMDAT ??_C@_09PANPMJKM@u_BoxMins?$AA@
CONST	SEGMENT
??_C@_09PANPMJKM@u_BoxMins?$AA@ DB 'u_BoxMins', 00H	; `string'
CONST	ENDS
;	COMDAT ??_C@_0N@BILMML@u_LerpFactor?$AA@
CONST	SEGMENT
??_C@_0N@BILMML@u_LerpFactor?$AA@ DB 'u_LerpFactor', 00H ; `string'
CONST	ENDS
;	COMDAT ??_C@_0N@NGOJEAAC@u_CubeOrigin?$AA@
CONST	SEGMENT
??_C@_0N@NGOJEAAC@u_CubeOrigin?$AA@ DB 'u_CubeOrigin', 00H ; `string'
CONST	ENDS
;	COMDAT ??_C@_0P@CEPEBBNL@u_CubeMipCount?$AA@
CONST	SEGMENT
??_C@_0P@CEPEBBNL@u_CubeMipCount?$AA@ DB 'u_CubeMipCount', 00H ; `string'
CONST	ENDS
;	COMDAT ??_C@_09HHCECBGD@u_EnvMap1?$AA@
CONST	SEGMENT
??_C@_09HHCECBGD@u_EnvMap1?$AA@ DB 'u_EnvMap1', 00H	; `string'
CONST	ENDS
;	COMDAT ??_C@_09GODPBACC@u_EnvMap0?$AA@
CONST	SEGMENT
??_C@_09GODPBACC@u_EnvMap0?$AA@ DB 'u_EnvMap0', 00H	; `string'
CONST	ENDS
;	COMDAT ??_C@_0BD@EMMENHMO@REFLECTION_CUBEMAP?$AA@
CONST	SEGMENT
??_C@_0BD@EMMENHMO@REFLECTION_CUBEMAP?$AA@ DB 'REFLECTION_CUBEMAP', 00H ; `string'
CONST	ENDS
;	COMDAT ??_C@_0M@EEAGDKIK@u_NormalMap?$AA@
CONST	SEGMENT
??_C@_0M@EEAGDKIK@u_NormalMap?$AA@ DB 'u_NormalMap', 00H ; `string'
CONST	ENDS
;	COMDAT ??_C@_09HDLEGDMG@u_GlowMap?$AA@
CONST	SEGMENT
??_C@_09HDLEGDMG@u_GlowMap?$AA@ DB 'u_GlowMap', 00H	; `string'
CONST	ENDS
;	COMDAT ??_C@_0M@KCNMJMNH@u_ScreenMap?$AA@
CONST	SEGMENT
??_C@_0M@KCNMJMNH@u_ScreenMap?$AA@ DB 'u_ScreenMap', 00H ; `string'
CONST	ENDS
;	COMDAT ??_C@_0L@NKAMHLG@u_LightMap?$AA@
CONST	SEGMENT
??_C@_0L@NKAMHLG@u_LightMap?$AA@ DB 'u_LightMap', 00H	; `string'
CONST	ENDS
;	COMDAT ??_C@_0M@CLJGMBED@u_DetailMap?$AA@
CONST	SEGMENT
??_C@_0M@CLJGMBED@u_DetailMap?$AA@ DB 'u_DetailMap', 00H ; `string'
CONST	ENDS
;	COMDAT ??_C@_0L@IEDEJAAC@u_ColorMap?$AA@
CONST	SEGMENT
??_C@_0L@IEDEJAAC@u_ColorMap?$AA@ DB 'u_ColorMap', 00H	; `string'
CONST	ENDS
;	COMDAT ?__LINE__Var@?0??GL_InitSolidBmodelUniforms@@YAXPAUglsl_prog_s@@@Z@4JA
_DATA	SEGMENT
?__LINE__Var@?0??GL_InitSolidBmodelUniforms@@YAXPAUglsl_prog_s@@@Z@4JA DD 02b9H ; `GL_InitSolidBmodelUniforms'::`1'::__LINE__Var
_DATA	ENDS
;	COMDAT ??_C@_0M@KFFOLOHC@?$CDdefine?5?$CFs?6?$AA@
CONST	SEGMENT
??_C@_0M@KFFOLOHC@?$CDdefine?5?$CFs?6?$AA@ DB '#define %s', 0aH, 00H ; `string'
CONST	ENDS
;	COMDAT ?__LINE__Var@?0??GL_FindUberShader@@YAPAUglsl_prog_s@@PBD0P6AXPAU2@@Z@Z@4JA
_DATA	SEGMENT
?__LINE__Var@?0??GL_FindUberShader@@YAPAUglsl_prog_s@@PBD0P6AXPAU2@@Z@Z@4JA DD 0282H ; `GL_FindUberShader'::`1'::__LINE__Var
_DATA	ENDS
;	COMDAT ??_C@_0BO@IEPPONL@CompileUberShader?5?$CD?$CFi?3?5?$CFs?6?$CFs?6?$AA@
CONST	SEGMENT
??_C@_0BO@IEPPONL@CompileUberShader?5?$CD?$CFi?3?5?$CFs?6?$CFs?6?$AA@ DB 'C'
	DB	'ompileUberShader #%i: %s', 0aH, '%s', 0aH, 00H ; `string'
CONST	ENDS
;	COMDAT ??_C@_0DL@DKJDPAJN@GL_CreateUberShader?3?5GLSL?5shader@
CONST	SEGMENT
??_C@_0DL@DKJDPAJN@GL_CreateUberShader?3?5GLSL?5shader@ DB 'GL_CreateUber'
	DB	'Shader: GLSL shaders limit exceeded (%i max)', 0aH, 00H ; `string'
CONST	ENDS
;	COMDAT ??_C@_0O@FLCOHBOC@attr_Binormal?$AA@
CONST	SEGMENT
??_C@_0O@FLCOHBOC@attr_Binormal?$AA@ DB 'attr_Binormal', 00H ; `string'
CONST	ENDS
;	COMDAT ??_C@_0N@PFKNNIKN@attr_Tangent?$AA@
CONST	SEGMENT
??_C@_0N@PFKNNIKN@attr_Tangent?$AA@ DB 'attr_Tangent', 00H ; `string'
CONST	ENDS
;	COMDAT ??_C@_0P@KPKCIOG@attr_LightVecs?$AA@
CONST	SEGMENT
??_C@_0P@KPKCIOG@attr_LightVecs?$AA@ DB 'attr_LightVecs', 00H ; `string'
CONST	ENDS
;	COMDAT ??_C@_0BA@JOGHNK@attr_LightColor?$AA@
CONST	SEGMENT
??_C@_0BA@JOGHNK@attr_LightColor?$AA@ DB 'attr_LightColor', 00H ; `string'
CONST	ENDS
;	COMDAT ??_C@_0BB@MPAHODOH@attr_LightStyles?$AA@
CONST	SEGMENT
??_C@_0BB@MPAHODOH@attr_LightStyles?$AA@ DB 'attr_LightStyles', 00H ; `string'
CONST	ENDS
;	COMDAT ??_C@_0BB@ININKFEM@attr_BoneWeights?$AA@
CONST	SEGMENT
??_C@_0BB@ININKFEM@attr_BoneWeights?$AA@ DB 'attr_BoneWeights', 00H ; `string'
CONST	ENDS
;	COMDAT ??_C@_0BB@GNBIAMMJ@attr_BoneIndexes?$AA@
CONST	SEGMENT
??_C@_0BB@GNBIAMMJ@attr_BoneIndexes?$AA@ DB 'attr_BoneIndexes', 00H ; `string'
CONST	ENDS
;	COMDAT ??_C@_0M@PDECLNDL@attr_Normal?$AA@
CONST	SEGMENT
??_C@_0M@PDECLNDL@attr_Normal?$AA@ DB 'attr_Normal', 00H ; `string'
CONST	ENDS
;	COMDAT ??_C@_0P@FEFFHLEH@attr_TexCoord2?$AA@
CONST	SEGMENT
??_C@_0P@FEFFHLEH@attr_TexCoord2?$AA@ DB 'attr_TexCoord2', 00H ; `string'
CONST	ENDS
;	COMDAT ??_C@_0P@HPHICIIE@attr_TexCoord1?$AA@
CONST	SEGMENT
??_C@_0P@HPHICIIE@attr_TexCoord1?$AA@ DB 'attr_TexCoord1', 00H ; `string'
CONST	ENDS
;	COMDAT ??_C@_0P@GGGDBJMF@attr_TexCoord0?$AA@
CONST	SEGMENT
??_C@_0P@GGGDBJMF@attr_TexCoord0?$AA@ DB 'attr_TexCoord0', 00H ; `string'
CONST	ENDS
;	COMDAT ??_C@_0O@PHKNCBPO@attr_Position?$AA@
CONST	SEGMENT
??_C@_0O@PHKNCBPO@attr_Position?$AA@ DB 'attr_Position', 00H ; `string'
CONST	ENDS
;	COMDAT ??_C@_0DI@JOLDEICG@GL_InitGPUShader?3?5GLSL?5shaders?5l@
CONST	SEGMENT
??_C@_0DI@JOLDEICG@GL_InitGPUShader?3?5GLSL?5shaders?5l@ DB 'GL_InitGPUSh'
	DB	'ader: GLSL shaders limit exceeded (%i max)', 0aH, 00H ; `string'
CONST	ENDS
;	COMDAT ??_C@_05DNIIFBMG@?$CFs?5?$CFs?$AA@
CONST	SEGMENT
??_C@_05DNIIFBMG@?$CFs?5?$CFs?$AA@ DB '%s %s', 00H	; `string'
CONST	ENDS
;	COMDAT ?__LINE__Var@?0??GL_InitGPUShader@@YAPAUglsl_prog_s@@PBD000@Z@4JA
_DATA	SEGMENT
?__LINE__Var@?0??GL_InitGPUShader@@YAPAUglsl_prog_s@@PBD000@Z@4JA DD 01d8H ; `GL_InitGPUShader'::`1'::__LINE__Var
_DATA	ENDS
;	COMDAT ??_C@_0BF@JPOMHIIO@?$CFs?5used?5?$CFi?5uniforms?6?$AA@
CONST	SEGMENT
??_C@_0BF@JPOMHIIO@?$CFs?5used?5?$CFi?5uniforms?6?$AA@ DB '%s used %i uni'
	DB	'forms', 0aH, 00H				; `string'
CONST	ENDS
;	COMDAT ??_C@_0BK@BLHKGMFB@used?5uniforms?5?$CFi?5from?5?$CFi?6?$AA@
CONST	SEGMENT
??_C@_0BK@BLHKGMFB@used?5uniforms?5?$CFi?5from?5?$CFi?6?$AA@ DB 'used uni'
	DB	'forms %i from %i', 0aH, 00H			; `string'
CONST	ENDS
;	COMDAT ??_C@_0CN@BIGJHOMK@used?5uniforms?5?$CFi?5is?5overflowed?5m@
CONST	SEGMENT
??_C@_0CN@BIGJHOMK@used?5uniforms?5?$CFi?5is?5overflowed?5m@ DB 'used uni'
	DB	'forms %i is overflowed max count %i', 0aH, 00H ; `string'
CONST	ENDS
;	COMDAT ??_C@_0BE@PKDDKFGG@uniform?5?$CFs?5?$CFs?$FL?$CFi?$FN?$DL?6?$AA@
CONST	SEGMENT
??_C@_0BE@PKDDKFGG@uniform?5?$CFs?5?$CFs?$FL?$CFi?$FN?$DL?6?$AA@ DB 'unif'
	DB	'orm %s %s[%i];', 0aH, 00H			; `string'
CONST	ENDS
;	COMDAT ??_C@_0BA@GALAJLO@uniform?5?$CFs?5?$CFs?$DL?6?$AA@
CONST	SEGMENT
??_C@_0BA@GALAJLO@uniform?5?$CFs?5?$CFs?$DL?6?$AA@ DB 'uniform %s %s;', 0aH
	DB	00H						; `string'
CONST	ENDS
;	COMDAT ??_C@_03BBKEAIF@?$DP?$DP?$DP?$AA@
CONST	SEGMENT
??_C@_03BBKEAIF@?$DP?$DP?$DP?$AA@ DB '???', 00H		; `string'
CONST	ENDS
;	COMDAT ??_C@_0BC@HELGINNC@samplerCubeShadow?$AA@
CONST	SEGMENT
??_C@_0BC@HELGINNC@samplerCubeShadow?$AA@ DB 'samplerCubeShadow', 00H ; `string'
CONST	ENDS
;	COMDAT ??_C@_0BE@HDPBANEK@sampler2DRectShadow?$AA@
CONST	SEGMENT
??_C@_0BE@HDPBANEK@sampler2DRectShadow?$AA@ DB 'sampler2DRectShadow', 00H ; `string'
CONST	ENDS
;	COMDAT ??_C@_0O@PEHGDEIA@sampler2DRect?$AA@
CONST	SEGMENT
??_C@_0O@PEHGDEIA@sampler2DRect?$AA@ DB 'sampler2DRect', 00H ; `string'
CONST	ENDS
;	COMDAT ??_C@_0BA@JPCOHDB@sampler2DShadow?$AA@
CONST	SEGMENT
??_C@_0BA@JPCOHDB@sampler2DShadow?$AA@ DB 'sampler2DShadow', 00H ; `string'
CONST	ENDS
;	COMDAT ??_C@_0BA@DAHPNLPE@sampler1DShadow?$AA@
CONST	SEGMENT
??_C@_0BA@DAHPNLPE@sampler1DShadow?$AA@ DB 'sampler1DShadow', 00H ; `string'
CONST	ENDS
;	COMDAT ??_C@_0P@LGHLFNGN@sampler2DArray?$AA@
CONST	SEGMENT
??_C@_0P@LGHLFNGN@sampler2DArray?$AA@ DB 'sampler2DArray', 00H ; `string'
CONST	ENDS
;	COMDAT ??_C@_0P@DIPEFKIO@sampler1DArray?$AA@
CONST	SEGMENT
??_C@_0P@DIPEFKIO@sampler1DArray?$AA@ DB 'sampler1DArray', 00H ; `string'
CONST	ENDS
;	COMDAT ??_C@_0M@JKFFOHJO@samplerCube?$AA@
CONST	SEGMENT
??_C@_0M@JKFFOHJO@samplerCube?$AA@ DB 'samplerCube', 00H ; `string'
CONST	ENDS
;	COMDAT ??_C@_09LAHPNHHH@sampler3D?$AA@
CONST	SEGMENT
??_C@_09LAHPNHHH@sampler3D?$AA@ DB 'sampler3D', 00H	; `string'
CONST	ENDS
;	COMDAT ??_C@_09LBLNLNEA@sampler2D?$AA@
CONST	SEGMENT
??_C@_09LBLNLNEA@sampler2D?$AA@ DB 'sampler2D', 00H	; `string'
CONST	ENDS
;	COMDAT ??_C@_09LDPLADBJ@sampler1D?$AA@
CONST	SEGMENT
??_C@_09LDPLADBJ@sampler1D?$AA@ DB 'sampler1D', 00H	; `string'
CONST	ENDS
;	COMDAT ??_C@_04DDDHBIAD@mat4?$AA@
CONST	SEGMENT
??_C@_04DDDHBIAD@mat4?$AA@ DB 'mat4', 00H		; `string'
CONST	ENDS
;	COMDAT ??_C@_04HMHGIOME@mat3?$AA@
CONST	SEGMENT
??_C@_04HMHGIOME@mat3?$AA@ DB 'mat3', 00H		; `string'
CONST	ENDS
;	COMDAT ??_C@_04GFGNLPIF@mat2?$AA@
CONST	SEGMENT
??_C@_04GFGNLPIF@mat2?$AA@ DB 'mat2', 00H		; `string'
CONST	ENDS
;	COMDAT ??_C@_04LCAMJMDC@vec4?$AA@
CONST	SEGMENT
??_C@_04LCAMJMDC@vec4?$AA@ DB 'vec4', 00H		; `string'
CONST	ENDS
;	COMDAT ??_C@_04PNENAKPF@vec3?$AA@
CONST	SEGMENT
??_C@_04PNENAKPF@vec3?$AA@ DB 'vec3', 00H		; `string'
CONST	ENDS
;	COMDAT ??_C@_04OEFGDLLE@vec2?$AA@
CONST	SEGMENT
??_C@_04OEFGDLLE@vec2?$AA@ DB 'vec2', 00H		; `string'
CONST	ENDS
;	COMDAT ??_C@_05KNFBNCOH@float?$AA@
CONST	SEGMENT
??_C@_05KNFBNCOH@float?$AA@ DB 'float', 00H		; `string'
CONST	ENDS
;	COMDAT ??_C@_04EHNLIFAM@uint?$AA@
CONST	SEGMENT
??_C@_04EHNLIFAM@uint?$AA@ DB 'uint', 00H		; `string'
CONST	ENDS
;	COMDAT ??_C@_03JBIPMCLC@int?$AA@
CONST	SEGMENT
??_C@_03JBIPMCLC@int?$AA@ DB 'int', 00H			; `string'
CONST	ENDS
;	COMDAT ??_C@_0CB@BEHHAEKP@?$CFs?6?$CFs?5shader?5failed?5to?5validate?6@
CONST	SEGMENT
??_C@_0CB@BEHHAEKP@?$CFs?6?$CFs?5shader?5failed?5to?5validate?6@ DB '%s', 0aH
	DB	'%s shader failed to validate', 0aH, 00H	; `string'
CONST	ENDS
;	COMDAT ??_C@_0BN@ONGMHJJJ@?$CFs?6?$CFs?5shader?5failed?5to?5link?6?$AA@
CONST	SEGMENT
??_C@_0BN@ONGMHJJJ@?$CFs?6?$CFs?5shader?5failed?5to?5link?6?$AA@ DB '%s', 0aH
	DB	'%s shader failed to link', 0aH, 00H		; `string'
CONST	ENDS
;	COMDAT ??_C@_0BF@PMBKHIDO@Couldn?8t?5compile?5?$CFs?6?$AA@
CONST	SEGMENT
??_C@_0BF@PMBKHIDO@Couldn?8t?5compile?5?$CFs?6?$AA@ DB 'Couldn''t compile'
	DB	' %s', 0aH, 00H				; `string'
CONST	ENDS
;	COMDAT ??_C@_0BD@NMNDBDIA@Shader?5options?3?$CFs?6?$AA@
CONST	SEGMENT
??_C@_0BD@NMNDBDIA@Shader?5options?3?$CFs?6?$AA@ DB 'Shader options:%s', 0aH
	DB	00H						; `string'
CONST	ENDS
;	COMDAT ??_C@_02DKCKIIND@?$CFs?$AA@
CONST	SEGMENT
??_C@_02DKCKIIND@?$CFs?$AA@ DB '%s', 00H		; `string'
CONST	ENDS
;	COMDAT ??_C@_0P@JCFNJCGJ@?6loading?5?8?$CFs?8?6?$AA@
CONST	SEGMENT
??_C@_0P@JCFNJCGJ@?6loading?5?8?$CFs?8?6?$AA@ DB 0aH, 'loading ''%s''', 0aH
	DB	00H						; `string'
CONST	ENDS
;	COMDAT ??_C@_0CK@FKDDGAG@GL_LoadGPUShader?3?5unknown?5shader@
CONST	SEGMENT
??_C@_0CK@FKDDGAG@GL_LoadGPUShader?3?5unknown?5shader@ DB 'GL_LoadGPUShad'
	DB	'er: unknown shader type %p', 0aH, 00H	; `string'
CONST	ENDS
;	COMDAT ??_C@_0BA@PNNMADFB@glsl?1?$CFs_fp?4glsl?$AA@
CONST	SEGMENT
??_C@_0BA@PNNMADFB@glsl?1?$CFs_fp?4glsl?$AA@ DB 'glsl/%s_fp.glsl', 00H ; `string'
CONST	ENDS
;	COMDAT ??_C@_0BA@IBGHDCHK@glsl?1?$CFs_vp?4glsl?$AA@
CONST	SEGMENT
??_C@_0BA@IBGHDCHK@glsl?1?$CFs_vp?4glsl?$AA@ DB 'glsl/%s_vp.glsl', 00H ; `string'
CONST	ENDS
;	COMDAT ??_C@_0BI@FECCGOFJ@assert?5failed?5at?5?$CFs?3?$CFi?6?$AA@
CONST	SEGMENT
??_C@_0BI@FECCGOFJ@assert?5failed?5at?5?$CFs?3?$CFi?6?$AA@ DB 'assert fai'
	DB	'led at %s:%i', 0aH, 00H			; `string'
CONST	ENDS
;	COMDAT ??_C@_0EN@DPFBEFBL@d?3?2?$CBdiffusion?52020?2source?5code?52@
CONST	SEGMENT
??_C@_0EN@DPFBEFBL@d?3?2?$CBdiffusion?52020?2source?5code?52@ DB 'd:\!dif'
	DB	'fusion 2020\source code 2022\client-server\client\render\r_sh'
	DB	'ader.cpp', 00H				; `string'
CONST	ENDS
;	COMDAT ?__LINE__Var@?0??GL_LoadGPUShader@@YAXPAUglsl_prog_s@@PBDI_N1@Z@4JA
_DATA	SEGMENT
?__LINE__Var@?0??GL_LoadGPUShader@@YAXPAUglsl_prog_s@@PBDI_N1@Z@4JA DD 0ecH ; `GL_LoadGPUShader'::`1'::__LINE__Var
_DATA	ENDS
;	COMDAT ??_C@_00CNPNBAHC@?$AA@
CONST	SEGMENT
??_C@_00CNPNBAHC@?$AA@ DB 00H				; `string'
CONST	ENDS
;	COMDAT ??_C@_0DL@EIKGDMGK@?$CDifndef?5GRASS_ANIM_DIST?6?$CDdefine?5@
CONST	SEGMENT
??_C@_0DL@EIKGDMGK@?$CDifndef?5GRASS_ANIM_DIST?6?$CDdefine?5@ DB '#ifndef'
	DB	' GRASS_ANIM_DIST', 0aH, '#define GRASS_ANIM_DIST %f', 0aH, '#'
	DB	'endif', 0aH, 00H				; `string'
CONST	ENDS
;	COMDAT ??_C@_0DF@FCFCOAGC@?$CDifndef?5MAXLIGHTMAPS?6?$CDdefine?5MAX@
CONST	SEGMENT
??_C@_0DF@FCFCOAGC@?$CDifndef?5MAXLIGHTMAPS?6?$CDdefine?5MAX@ DB '#ifndef'
	DB	' MAXLIGHTMAPS', 0aH, '#define MAXLIGHTMAPS %i', 0aH, '#endif', 0aH
	DB	00H						; `string'
CONST	ENDS
;	COMDAT ??_C@_0DL@DLNJKMNE@?$CDifndef?5MAX_LIGHTSTYLES?6?$CDdefine?5@
CONST	SEGMENT
??_C@_0DL@DLNJKMNE@?$CDifndef?5MAX_LIGHTSTYLES?6?$CDdefine?5@ DB '#ifndef'
	DB	' MAX_LIGHTSTYLES', 0aH, '#define MAX_LIGHTSTYLES %i', 0aH, '#'
	DB	'endif', 0aH, 00H				; `string'
CONST	ENDS
;	COMDAT ??_C@_0DJ@LFGPGNO@?$CDifndef?5MAXSTUDIOBONES?6?$CDdefine?5M@
CONST	SEGMENT
??_C@_0DJ@LFGPGNO@?$CDifndef?5MAXSTUDIOBONES?6?$CDdefine?5M@ DB '#ifndef '
	DB	'MAXSTUDIOBONES', 0aH, '#define MAXSTUDIOBONES %i', 0aH, '#end'
	DB	'if', 0aH, 00H				; `string'
CONST	ENDS
;	COMDAT ??_C@_0CL@JHODLGCO@?$CDextension?5GL_EXT_texture_array?5@
CONST	SEGMENT
??_C@_0CL@JHODLGCO@?$CDextension?5GL_EXT_texture_array?5@ DB '#extension '
	DB	'GL_EXT_texture_array : require', 0aH, 00H	; `string'
CONST	ENDS
;	COMDAT ??_C@_0CC@EIHIPLOH@?$CDdefine?5GLSL_ALLOW_TEXTURE_ARRAY@
CONST	SEGMENT
??_C@_0CC@EIHIPLOH@?$CDdefine?5GLSL_ALLOW_TEXTURE_ARRAY@ DB '#define GLSL'
	DB	'_ALLOW_TEXTURE_ARRAY', 0aH, 00H		; `string'
CONST	ENDS
;	COMDAT ??_C@_0BK@FIAFHJNI@?$CDdefine?5GLSL_gpu_shader4?6?$AA@
CONST	SEGMENT
??_C@_0BK@FIAFHJNI@?$CDdefine?5GLSL_gpu_shader4?6?$AA@ DB '#define GLSL_g'
	DB	'pu_shader4', 0aH, 00H			; `string'
CONST	ENDS
;	COMDAT ??_C@_0CJ@DGLNNJCC@?$CDextension?5GL_EXT_gpu_shader4?5?3?5@
CONST	SEGMENT
??_C@_0CJ@DGLNNJCC@?$CDextension?5GL_EXT_gpu_shader4?5?3?5@ DB '#extensio'
	DB	'n GL_EXT_gpu_shader4 : require', 0aH, 00H	; `string'
CONST	ENDS
;	COMDAT ??_C@_0DL@JPAIIFEC@?$CDifndef?5M_PI2?6?$CDdefine?5M_PI2?56?428@
CONST	SEGMENT
??_C@_0DL@JPAIIFEC@?$CDifndef?5M_PI2?6?$CDdefine?5M_PI2?56?428@ DB '#ifnd'
	DB	'ef M_PI2', 0aH, '#define M_PI2 6.28318530717958647692', 0aH, '#'
	DB	'endif', 0aH, 00H				; `string'
CONST	ENDS
;	COMDAT ??_C@_0DJ@GFBPBLGM@?$CDifndef?5M_PI?6?$CDdefine?5M_PI?53?41415@
CONST	SEGMENT
??_C@_0DJ@GFBPBLGM@?$CDifndef?5M_PI?6?$CDdefine?5M_PI?53?41415@ DB '#ifnd'
	DB	'ef M_PI', 0aH, '#define M_PI 3.14159265358979323846', 0aH, '#'
	DB	'endif', 0aH, 00H				; `string'
CONST	ENDS
;	COMDAT ??_C@_0O@LOEMKNG@?$CDversion?5130?6?$AA@
CONST	SEGMENT
??_C@_0O@LOEMKNG@?$CDversion?5130?6?$AA@ DB '#version 130', 0aH, 00H ; `string'
CONST	ENDS
;	COMDAT ??_C@_03OFAPEBGM@?$CFs?6?$AA@
CONST	SEGMENT
??_C@_03OFAPEBGM@?$CFs?6?$AA@ DB '%s', 0aH, 00H		; `string'
CONST	ENDS
;	COMDAT ??_C@_09KFJICHAG@?$CDline?5?$CFi?6?$AA@
CONST	SEGMENT
??_C@_09KFJICHAG@?$CDline?5?$CFi?6?$AA@ DB '#line %i', 0aH, 00H ; `string'
CONST	ENDS
;	COMDAT ??_C@_07BPFEFLNA@glsl?1?$CFs?$AA@
CONST	SEGMENT
??_C@_07BPFEFLNA@glsl?1?$CFs?$AA@ DB 'glsl/%s', 00H	; `string'
CONST	ENDS
;	COMDAT ??_C@_08GPLAJCBH@?$CDinclude?$AA@
CONST	SEGMENT
??_C@_08GPLAJCBH@?$CDinclude?$AA@ DB '#include', 00H	; `string'
CONST	ENDS
;	COMDAT ??_C@_08CGHKNNMG@?$CDline?50?6?$AA@
CONST	SEGMENT
??_C@_08CGHKNNMG@?$CDline?50?6?$AA@ DB '#line 0', 0aH, 00H ; `string'
CONST	ENDS
;	COMDAT ??_C@_0BC@HJBMIBGI@couldn?8t?5load?5?$CFs?6?$AA@
CONST	SEGMENT
??_C@_0BC@HJBMIBGI@couldn?8t?5load?5?$CFs?6?$AA@ DB 'couldn''t load %s', 0aH
	DB	00H						; `string'
CONST	ENDS
;	COMDAT ??_C@_0BK@HEHGCEJO@recursive?5include?5for?5?$CFs?6?$AA@
CONST	SEGMENT
??_C@_0BK@HEHGCEJO@recursive?5include?5for?5?$CFs?6?$AA@ DB 'recursive in'
	DB	'clude for %s', 0aH, 00H			; `string'
CONST	ENDS
;	COMDAT ??_C@_0CD@KBPDGGGO@GL_PushFileStack?3?5stack?5underflo@
CONST	SEGMENT
??_C@_0CD@KBPDGGGO@GL_PushFileStack?3?5stack?5underflo@ DB 'GL_PushFileSt'
	DB	'ack: stack underflow', 0aH, 00H		; `string'
CONST	ENDS
;	COMDAT ??_C@_0CC@MDIBKIJI@GL_PushFileStack?3?5stack?5overflow@
CONST	SEGMENT
??_C@_0CC@MDIBKIJI@GL_PushFileStack?3?5stack?5overflow@ DB 'GL_PushFileSt'
	DB	'ack: stack overflow', 0aH, 00H		; `string'
CONST	ENDS
;	COMDAT ??_C@_0CN@LIMLBMNO@GL_PrintInfoLog?3?5message?5exceeds@
CONST	SEGMENT
??_C@_0CN@LIMLBMNO@GL_PrintInfoLog?3?5message?5exceeds@ DB 'GL_PrintInfoL'
	DB	'og: message exceeds %i symbols', 0aH, 00H	; `string'
CONST	ENDS
;	COMDAT ??_C@_0BF@EAIFCKME@NORMAL_AG_PARABOLOID?$AA@
CONST	SEGMENT
??_C@_0BF@EAIFCKME@NORMAL_AG_PARABOLOID?$AA@ DB 'NORMAL_AG_PARABOLOID', 00H ; `string'
CONST	ENDS
;	COMDAT ??_C@_0BG@LDLNDKLC@NORMAL_3DC_PARABOLOID?$AA@
CONST	SEGMENT
??_C@_0BG@LDLNDKLC@NORMAL_3DC_PARABOLOID?$AA@ DB 'NORMAL_3DC_PARABOLOID', 00H ; `string'
CONST	ENDS
;	COMDAT ??_C@_0BF@FKFGDDHD@NORMAL_RG_PARABOLOID?$AA@
CONST	SEGMENT
??_C@_0BF@FKFGDDHD@NORMAL_RG_PARABOLOID?$AA@ DB 'NORMAL_RG_PARABOLOID', 00H ; `string'
CONST	ENDS
;	COMDAT xdata$x
xdata$x	SEGMENT
__unwindtable$?GL_LoadGPUShader@@YAXPAUglsl_prog_s@@PBDI_N1@Z DD 0ffffffffH
	DD	FLAT:__unwindfunclet$?GL_LoadGPUShader@@YAXPAUglsl_prog_s@@PBDI_N1@Z$0
__ehfuncinfo$?GL_LoadGPUShader@@YAXPAUglsl_prog_s@@PBDI_N1@Z DD 019930522H
	DD	01H
	DD	FLAT:__unwindtable$?GL_LoadGPUShader@@YAXPAUglsl_prog_s@@PBDI_N1@Z
	DD	2 DUP(00H)
	DD	2 DUP(00H)
	DD	00H
	DD	01H
xdata$x	ENDS
;	COMDAT xdata$x
xdata$x	SEGMENT
__unwindtable$?GL_ProcessShader@@YA_NPBDPAVCVirtualFS@@_N0@Z DD 0ffffffffH
	DD	FLAT:__unwindfunclet$?GL_ProcessShader@@YA_NPBDPAVCVirtualFS@@_N0@Z$0
__ehfuncinfo$?GL_ProcessShader@@YA_NPBDPAVCVirtualFS@@_N0@Z DD 019930522H
	DD	01H
	DD	FLAT:__unwindtable$?GL_ProcessShader@@YA_NPBDPAVCVirtualFS@@_N0@Z
	DD	2 DUP(00H)
	DD	2 DUP(00H)
	DD	00H
	DD	01H
xdata$x	ENDS
;	COMDAT xdata$x
xdata$x	SEGMENT
__unwindtable$?GL_ParseFile@@YAXPBDPAVCVirtualFS@@1@Z DD 0ffffffffH
	DD	FLAT:__unwindfunclet$?GL_ParseFile@@YAXPBDPAVCVirtualFS@@1@Z$0
__ehfuncinfo$?GL_ParseFile@@YAXPBDPAVCVirtualFS@@1@Z DD 019930522H
	DD	01H
	DD	FLAT:__unwindtable$?GL_ParseFile@@YAXPBDPAVCVirtualFS@@1@Z
	DD	2 DUP(00H)
	DD	2 DUP(00H)
	DD	00H
	DD	01H
xdata$x	ENDS
; Function compile flags: /Odtp /ZI
; File d:\!diffusion 2020\source code 2022\client-server\client\render\r_shader.cpp
;	COMDAT ?GL_ListGPUShaders@@YAXXZ
_TEXT	SEGMENT
_options$1 = -16					; size = 4
_cur$2 = -12						; size = 4
_i$3 = -8						; size = 4
_count$ = -4						; size = 4
?GL_ListGPUShaders@@YAXXZ PROC				; GL_ListGPUShaders, COMDAT

; 2255 : {

	push	ebp
	mov	ebp, esp
	sub	esp, 80					; 00000050H
	push	ebx
	push	esi
	push	edi

; 2256 : 	int count = 0;

	mov	DWORD PTR _count$[ebp], 0

; 2257 : 
; 2258 : 	for( unsigned int i = 1; i < num_glsl_programs; i++ )

	mov	DWORD PTR _i$3[ebp], 1
	jmp	SHORT $LN4@GL_ListGPU
$LN2@GL_ListGPU:
	mov	eax, DWORD PTR _i$3[ebp]
	add	eax, 1
	mov	DWORD PTR _i$3[ebp], eax
$LN4@GL_ListGPU:
	mov	eax, DWORD PTR _i$3[ebp]
	cmp	eax, DWORD PTR ?num_glsl_programs@@3IA	; num_glsl_programs
	jae	$LN3@GL_ListGPU

; 2259 : 	{
; 2260 : 		glsl_program_t *cur = &glsl_programs[i];

	imul	eax, DWORD PTR _i$3[ebp], 972
	add	eax, OFFSET ?glsl_programs@@3PAUglsl_prog_s@@A ; glsl_programs
	mov	DWORD PTR _cur$2[ebp], eax

; 2261 : 		if( !cur->name[0] ) continue;

	mov	eax, 1
	imul	ecx, eax, 0
	mov	edx, DWORD PTR _cur$2[ebp]
	movsx	eax, BYTE PTR [edx+ecx]
	test	eax, eax
	jne	SHORT $LN5@GL_ListGPU
	jmp	SHORT $LN2@GL_ListGPU
$LN5@GL_ListGPU:

; 2262 : 
; 2263 : 		const char *options = GL_PretifyListOptions( cur->options );

	push	0
	mov	eax, DWORD PTR _cur$2[ebp]
	add	eax, 64					; 00000040H
	push	eax
	call	?GL_PretifyListOptions@@YAPBDPBD_N@Z	; GL_PretifyListOptions
	add	esp, 8
	mov	DWORD PTR _options$1[ebp], eax

; 2264 : 
; 2265 : 		if( Q_stricmp( options, "" ))

	push	99999					; 0001869fH
	push	OFFSET ??_C@_00CNPNBAHC@?$AA@
	mov	eax, DWORD PTR _options$1[ebp]
	push	eax
	call	?Q_strnicmp@@YAHPBD0H@Z			; Q_strnicmp
	add	esp, 12					; 0000000cH
	test	eax, eax
	je	SHORT $LN6@GL_ListGPU

; 2266 : 			Msg( "#%i %s [%s]\n", i, cur->name, options );

	mov	eax, DWORD PTR _options$1[ebp]
	push	eax
	mov	ecx, DWORD PTR _cur$2[ebp]
	push	ecx
	mov	edx, DWORD PTR _i$3[ebp]
	push	edx
	push	OFFSET ??_C@_0N@LHAEPDJL@?$CD?$CFi?5?$CFs?5?$FL?$CFs?$FN?6?$AA@
	call	DWORD PTR ?gEngfuncs@@3Ucl_enginefuncs_s@@A+160
	add	esp, 16					; 00000010H
	jmp	SHORT $LN7@GL_ListGPU
$LN6@GL_ListGPU:

; 2267 : 		else Msg( "#%i %s\n", i, cur->name );

	mov	eax, DWORD PTR _cur$2[ebp]
	push	eax
	mov	ecx, DWORD PTR _i$3[ebp]
	push	ecx
	push	OFFSET ??_C@_07KFCPEDAB@?$CD?$CFi?5?$CFs?6?$AA@
	call	DWORD PTR ?gEngfuncs@@3Ucl_enginefuncs_s@@A+160
	add	esp, 12					; 0000000cH
$LN7@GL_ListGPU:

; 2268 : 		count++;

	mov	eax, DWORD PTR _count$[ebp]
	add	eax, 1
	mov	DWORD PTR _count$[ebp], eax

; 2269 : 	}

	jmp	$LN2@GL_ListGPU
$LN3@GL_ListGPU:

; 2270 : 
; 2271 : 	Msg( "total %i shaders\n", count );

	mov	eax, DWORD PTR _count$[ebp]
	push	eax
	push	OFFSET ??_C@_0BC@KGOJMEGM@total?5?$CFi?5shaders?6?$AA@
	call	DWORD PTR ?gEngfuncs@@3Ucl_enginefuncs_s@@A+160
	add	esp, 8

; 2272 : }

	pop	edi
	pop	esi
	pop	ebx
	mov	esp, ebp
	pop	ebp
	ret	0
?GL_ListGPUShaders@@YAXXZ ENDP				; GL_ListGPUShaders
_TEXT	ENDS
; Function compile flags: /Odtp /ZI
; File d:\!diffusion 2020\source code 2022\client-server\client\render\r_shader.cpp
;	COMDAT ?GL_InitWaterDropsUniforms@@YAXPAUglsl_prog_s@@@Z
_TEXT	SEGMENT
_shader$ = 8						; size = 4
?GL_InitWaterDropsUniforms@@YAXPAUglsl_prog_s@@@Z PROC	; GL_InitWaterDropsUniforms, COMDAT

; 1446 : {

	push	ebp
	mov	ebp, esp
	sub	esp, 64					; 00000040H
	push	ebx
	push	esi
	push	edi

; 1447 : 	ASSERT( shader != NULL );

	cmp	DWORD PTR _shader$[ebp], 0
	jne	SHORT $LN2@GL_InitWat
	mov	eax, DWORD PTR ?__LINE__Var@?0??GL_InitWaterDropsUniforms@@YAXPAUglsl_prog_s@@@Z@4JA
	add	eax, 1
	push	eax
	push	OFFSET ??_C@_0EN@DPFBEFBL@d?3?2?$CBdiffusion?52020?2source?5code?52@
	push	OFFSET ??_C@_0BI@FECCGOFJ@assert?5failed?5at?5?$CFs?3?$CFi?6?$AA@
	call	DWORD PTR ?gRenderfuncs@@3Urender_api_s@@A+236
	add	esp, 12					; 0000000cH
$LN2@GL_InitWat:

; 1448 : 
; 1449 : 	shader->u_ColorMap = pglGetUniformLocationARB( shader->handle, "u_ColorMap" );

	push	OFFSET ??_C@_0L@IEDEJAAC@u_ColorMap?$AA@
	mov	eax, DWORD PTR _shader$[ebp]
	mov	ecx, DWORD PTR [eax+576]
	push	ecx
	call	DWORD PTR ?pglGetUniformLocationARB@@3P6GHIPBD@ZA ; pglGetUniformLocationARB
	mov	edx, DWORD PTR _shader$[ebp]
	mov	DWORD PTR [edx+588], eax

; 1450 : 	shader->u_RealTime = pglGetUniformLocationARB( shader->handle, "u_RealTime" );

	push	OFFSET ??_C@_0L@BGHCDECL@u_RealTime?$AA@
	mov	eax, DWORD PTR _shader$[ebp]
	mov	ecx, DWORD PTR [eax+576]
	push	ecx
	call	DWORD PTR ?pglGetUniformLocationARB@@3P6GHIPBD@ZA ; pglGetUniformLocationARB
	mov	edx, DWORD PTR _shader$[ebp]
	mov	DWORD PTR [edx+868], eax

; 1451 : 	shader->u_ScreenSizeInv = pglGetUniformLocationARB( shader->handle, "u_ScreenSizeInv" );

	push	OFFSET ??_C@_0BA@CNHIBBKL@u_ScreenSizeInv?$AA@
	mov	eax, DWORD PTR _shader$[ebp]
	mov	ecx, DWORD PTR [eax+576]
	push	ecx
	call	DWORD PTR ?pglGetUniformLocationARB@@3P6GHIPBD@ZA ; pglGetUniformLocationARB
	mov	edx, DWORD PTR _shader$[ebp]
	mov	DWORD PTR [edx+724], eax

; 1452 : 	shader->u_Accum = pglGetUniformLocationARB( shader->handle, "u_Accum" );

	push	OFFSET ??_C@_07BKJMBFNE@u_Accum?$AA@
	mov	eax, DWORD PTR _shader$[ebp]
	mov	ecx, DWORD PTR [eax+576]
	push	ecx
	call	DWORD PTR ?pglGetUniformLocationARB@@3P6GHIPBD@ZA ; pglGetUniformLocationARB
	mov	edx, DWORD PTR _shader$[ebp]
	mov	DWORD PTR [edx+932], eax

; 1453 : 	shader->u_LerpFactor = pglGetUniformLocationARB( shader->handle, "u_LerpFactor" );

	push	OFFSET ??_C@_0N@BILMML@u_LerpFactor?$AA@
	mov	eax, DWORD PTR _shader$[ebp]
	mov	ecx, DWORD PTR [eax+576]
	push	ecx
	call	DWORD PTR ?pglGetUniformLocationARB@@3P6GHIPBD@ZA ; pglGetUniformLocationARB
	mov	edx, DWORD PTR _shader$[ebp]
	mov	DWORD PTR [edx+812], eax

; 1454 : 
; 1455 : 	GL_BindShader( shader );

	mov	eax, DWORD PTR _shader$[ebp]
	push	eax
	call	?GL_BindShader@@YAXPAUglsl_prog_s@@@Z	; GL_BindShader
	add	esp, 4

; 1456 : 	pglUniform1iARB( shader->u_ColorMap, GL_TEXTURE0 );

	push	0
	mov	eax, DWORD PTR _shader$[ebp]
	mov	ecx, DWORD PTR [eax+588]
	push	ecx
	call	DWORD PTR ?pglUniform1iARB@@3P6GXHH@ZA	; pglUniform1iARB

; 1457 : 	GL_BindShader( GL_NONE );

	push	0
	call	?GL_BindShader@@YAXPAUglsl_prog_s@@@Z	; GL_BindShader
	add	esp, 4

; 1458 : 
; 1459 : 	GL_ValidateProgram( shader );

	mov	eax, DWORD PTR _shader$[ebp]
	push	eax
	call	?GL_ValidateProgram@@YAXPAUglsl_prog_s@@@Z ; GL_ValidateProgram
	add	esp, 4

; 1460 : 	GL_ShowProgramUniforms( shader );

	mov	eax, DWORD PTR _shader$[ebp]
	push	eax
	call	?GL_ShowProgramUniforms@@YAXPAUglsl_prog_s@@@Z ; GL_ShowProgramUniforms
	add	esp, 4

; 1461 : }

	pop	edi
	pop	esi
	pop	ebx
	mov	esp, ebp
	pop	ebp
	ret	0
?GL_InitWaterDropsUniforms@@YAXPAUglsl_prog_s@@@Z ENDP	; GL_InitWaterDropsUniforms
_TEXT	ENDS
; Function compile flags: /Odtp /ZI
; File d:\!diffusion 2020\source code 2022\client-server\client\render\r_shader.cpp
;	COMDAT ?GL_InitGlitchUniforms@@YAXPAUglsl_prog_s@@@Z
_TEXT	SEGMENT
_shader$ = 8						; size = 4
?GL_InitGlitchUniforms@@YAXPAUglsl_prog_s@@@Z PROC	; GL_InitGlitchUniforms, COMDAT

; 1429 : {

	push	ebp
	mov	ebp, esp
	sub	esp, 64					; 00000040H
	push	ebx
	push	esi
	push	edi

; 1430 : 	ASSERT( shader != NULL );

	cmp	DWORD PTR _shader$[ebp], 0
	jne	SHORT $LN2@GL_InitGli
	mov	eax, DWORD PTR ?__LINE__Var@?0??GL_InitGlitchUniforms@@YAXPAUglsl_prog_s@@@Z@4JA
	add	eax, 1
	push	eax
	push	OFFSET ??_C@_0EN@DPFBEFBL@d?3?2?$CBdiffusion?52020?2source?5code?52@
	push	OFFSET ??_C@_0BI@FECCGOFJ@assert?5failed?5at?5?$CFs?3?$CFi?6?$AA@
	call	DWORD PTR ?gRenderfuncs@@3Urender_api_s@@A+236
	add	esp, 12					; 0000000cH
$LN2@GL_InitGli:

; 1431 : 
; 1432 : 	shader->u_ColorMap = pglGetUniformLocationARB( shader->handle, "u_ColorMap" );

	push	OFFSET ??_C@_0L@IEDEJAAC@u_ColorMap?$AA@
	mov	eax, DWORD PTR _shader$[ebp]
	mov	ecx, DWORD PTR [eax+576]
	push	ecx
	call	DWORD PTR ?pglGetUniformLocationARB@@3P6GHIPBD@ZA ; pglGetUniformLocationARB
	mov	edx, DWORD PTR _shader$[ebp]
	mov	DWORD PTR [edx+588], eax

; 1433 : 	shader->u_RealTime = pglGetUniformLocationARB( shader->handle, "u_RealTime" );

	push	OFFSET ??_C@_0L@BGHCDECL@u_RealTime?$AA@
	mov	eax, DWORD PTR _shader$[ebp]
	mov	ecx, DWORD PTR [eax+576]
	push	ecx
	call	DWORD PTR ?pglGetUniformLocationARB@@3P6GHIPBD@ZA ; pglGetUniformLocationARB
	mov	edx, DWORD PTR _shader$[ebp]
	mov	DWORD PTR [edx+868], eax

; 1434 : 	shader->u_ScreenSizeInv = pglGetUniformLocationARB( shader->handle, "u_ScreenSizeInv" );

	push	OFFSET ??_C@_0BA@CNHIBBKL@u_ScreenSizeInv?$AA@
	mov	eax, DWORD PTR _shader$[ebp]
	mov	ecx, DWORD PTR [eax+576]
	push	ecx
	call	DWORD PTR ?pglGetUniformLocationARB@@3P6GHIPBD@ZA ; pglGetUniformLocationARB
	mov	edx, DWORD PTR _shader$[ebp]
	mov	DWORD PTR [edx+724], eax

; 1435 : 	shader->u_Accum = pglGetUniformLocationARB( shader->handle, "u_Accum" );

	push	OFFSET ??_C@_07BKJMBFNE@u_Accum?$AA@
	mov	eax, DWORD PTR _shader$[ebp]
	mov	ecx, DWORD PTR [eax+576]
	push	ecx
	call	DWORD PTR ?pglGetUniformLocationARB@@3P6GHIPBD@ZA ; pglGetUniformLocationARB
	mov	edx, DWORD PTR _shader$[ebp]
	mov	DWORD PTR [edx+932], eax

; 1436 : 
; 1437 : 	GL_BindShader( shader );

	mov	eax, DWORD PTR _shader$[ebp]
	push	eax
	call	?GL_BindShader@@YAXPAUglsl_prog_s@@@Z	; GL_BindShader
	add	esp, 4

; 1438 : 	pglUniform1iARB( shader->u_ColorMap, GL_TEXTURE0 );

	push	0
	mov	eax, DWORD PTR _shader$[ebp]
	mov	ecx, DWORD PTR [eax+588]
	push	ecx
	call	DWORD PTR ?pglUniform1iARB@@3P6GXHH@ZA	; pglUniform1iARB

; 1439 : 	GL_BindShader( GL_NONE );

	push	0
	call	?GL_BindShader@@YAXPAUglsl_prog_s@@@Z	; GL_BindShader
	add	esp, 4

; 1440 : 
; 1441 : 	GL_ValidateProgram( shader );

	mov	eax, DWORD PTR _shader$[ebp]
	push	eax
	call	?GL_ValidateProgram@@YAXPAUglsl_prog_s@@@Z ; GL_ValidateProgram
	add	esp, 4

; 1442 : 	GL_ShowProgramUniforms( shader );

	mov	eax, DWORD PTR _shader$[ebp]
	push	eax
	call	?GL_ShowProgramUniforms@@YAXPAUglsl_prog_s@@@Z ; GL_ShowProgramUniforms
	add	esp, 4

; 1443 : }

	pop	edi
	pop	esi
	pop	ebx
	mov	esp, ebp
	pop	ebp
	ret	0
?GL_InitGlitchUniforms@@YAXPAUglsl_prog_s@@@Z ENDP	; GL_InitGlitchUniforms
_TEXT	ENDS
; Function compile flags: /Odtp /ZI
; File d:\!diffusion 2020\source code 2022\client-server\client\render\r_shader.cpp
;	COMDAT ?GL_InitScreenWaterUniforms@@YAXPAUglsl_prog_s@@@Z
_TEXT	SEGMENT
_shader$ = 8						; size = 4
?GL_InitScreenWaterUniforms@@YAXPAUglsl_prog_s@@@Z PROC	; GL_InitScreenWaterUniforms, COMDAT

; 1410 : {

	push	ebp
	mov	ebp, esp
	sub	esp, 64					; 00000040H
	push	ebx
	push	esi
	push	edi

; 1411 : 	ASSERT( shader != NULL );

	cmp	DWORD PTR _shader$[ebp], 0
	jne	SHORT $LN2@GL_InitScr
	mov	eax, DWORD PTR ?__LINE__Var@?0??GL_InitScreenWaterUniforms@@YAXPAUglsl_prog_s@@@Z@4JA
	add	eax, 1
	push	eax
	push	OFFSET ??_C@_0EN@DPFBEFBL@d?3?2?$CBdiffusion?52020?2source?5code?52@
	push	OFFSET ??_C@_0BI@FECCGOFJ@assert?5failed?5at?5?$CFs?3?$CFi?6?$AA@
	call	DWORD PTR ?gRenderfuncs@@3Urender_api_s@@A+236
	add	esp, 12					; 0000000cH
$LN2@GL_InitScr:

; 1412 : 
; 1413 : 	shader->u_ColorMap = pglGetUniformLocationARB( shader->handle, "u_ColorMap" );

	push	OFFSET ??_C@_0L@IEDEJAAC@u_ColorMap?$AA@
	mov	eax, DWORD PTR _shader$[ebp]
	mov	ecx, DWORD PTR [eax+576]
	push	ecx
	call	DWORD PTR ?pglGetUniformLocationARB@@3P6GHIPBD@ZA ; pglGetUniformLocationARB
	mov	edx, DWORD PTR _shader$[ebp]
	mov	DWORD PTR [edx+588], eax

; 1414 : 	shader->u_ScreenMap = pglGetUniformLocationARB( shader->handle, "u_ScreenMap" );

	push	OFFSET ??_C@_0M@KCNMJMNH@u_ScreenMap?$AA@
	mov	eax, DWORD PTR _shader$[ebp]
	mov	ecx, DWORD PTR [eax+576]
	push	ecx
	call	DWORD PTR ?pglGetUniformLocationARB@@3P6GHIPBD@ZA ; pglGetUniformLocationARB
	mov	edx, DWORD PTR _shader$[ebp]
	mov	DWORD PTR [edx+632], eax

; 1415 : 	shader->u_RealTime = pglGetUniformLocationARB( shader->handle, "u_RealTime" );

	push	OFFSET ??_C@_0L@BGHCDECL@u_RealTime?$AA@
	mov	eax, DWORD PTR _shader$[ebp]
	mov	ecx, DWORD PTR [eax+576]
	push	ecx
	call	DWORD PTR ?pglGetUniformLocationARB@@3P6GHIPBD@ZA ; pglGetUniformLocationARB
	mov	edx, DWORD PTR _shader$[ebp]
	mov	DWORD PTR [edx+868], eax

; 1416 : 	shader->u_ScreenSizeInv = pglGetUniformLocationARB( shader->handle, "u_ScreenSizeInv" );

	push	OFFSET ??_C@_0BA@CNHIBBKL@u_ScreenSizeInv?$AA@
	mov	eax, DWORD PTR _shader$[ebp]
	mov	ecx, DWORD PTR [eax+576]
	push	ecx
	call	DWORD PTR ?pglGetUniformLocationARB@@3P6GHIPBD@ZA ; pglGetUniformLocationARB
	mov	edx, DWORD PTR _shader$[ebp]
	mov	DWORD PTR [edx+724], eax

; 1417 : 	shader->u_Accum = pglGetUniformLocationARB( shader->handle, "u_Accum" );

	push	OFFSET ??_C@_07BKJMBFNE@u_Accum?$AA@
	mov	eax, DWORD PTR _shader$[ebp]
	mov	ecx, DWORD PTR [eax+576]
	push	ecx
	call	DWORD PTR ?pglGetUniformLocationARB@@3P6GHIPBD@ZA ; pglGetUniformLocationARB
	mov	edx, DWORD PTR _shader$[ebp]
	mov	DWORD PTR [edx+932], eax

; 1418 : 
; 1419 : 	GL_BindShader( shader );

	mov	eax, DWORD PTR _shader$[ebp]
	push	eax
	call	?GL_BindShader@@YAXPAUglsl_prog_s@@@Z	; GL_BindShader
	add	esp, 4

; 1420 : 	pglUniform1iARB( shader->u_ColorMap, GL_TEXTURE0 );

	push	0
	mov	eax, DWORD PTR _shader$[ebp]
	mov	ecx, DWORD PTR [eax+588]
	push	ecx
	call	DWORD PTR ?pglUniform1iARB@@3P6GXHH@ZA	; pglUniform1iARB

; 1421 : 	pglUniform1iARB( shader->u_ScreenMap, GL_TEXTURE1 );

	push	1
	mov	eax, DWORD PTR _shader$[ebp]
	mov	ecx, DWORD PTR [eax+632]
	push	ecx
	call	DWORD PTR ?pglUniform1iARB@@3P6GXHH@ZA	; pglUniform1iARB

; 1422 : 	GL_BindShader( GL_NONE );

	push	0
	call	?GL_BindShader@@YAXPAUglsl_prog_s@@@Z	; GL_BindShader
	add	esp, 4

; 1423 : 
; 1424 : 	GL_ValidateProgram( shader );

	mov	eax, DWORD PTR _shader$[ebp]
	push	eax
	call	?GL_ValidateProgram@@YAXPAUglsl_prog_s@@@Z ; GL_ValidateProgram
	add	esp, 4

; 1425 : 	GL_ShowProgramUniforms( shader );

	mov	eax, DWORD PTR _shader$[ebp]
	push	eax
	call	?GL_ShowProgramUniforms@@YAXPAUglsl_prog_s@@@Z ; GL_ShowProgramUniforms
	add	esp, 4

; 1426 : }

	pop	edi
	pop	esi
	pop	ebx
	mov	esp, ebp
	pop	ebp
	ret	0
?GL_InitScreenWaterUniforms@@YAXPAUglsl_prog_s@@@Z ENDP	; GL_InitScreenWaterUniforms
_TEXT	ENDS
; Function compile flags: /Odtp /ZI
; File d:\!diffusion 2020\source code 2022\client-server\client\render\r_shader.cpp
;	COMDAT ?GL_InitBlurMipUniforms@@YAXPAUglsl_prog_s@@@Z
_TEXT	SEGMENT
_shader$ = 8						; size = 4
?GL_InitBlurMipUniforms@@YAXPAUglsl_prog_s@@@Z PROC	; GL_InitBlurMipUniforms, COMDAT

; 1392 : {

	push	ebp
	mov	ebp, esp
	sub	esp, 64					; 00000040H
	push	ebx
	push	esi
	push	edi

; 1393 : 	ASSERT( shader != NULL );

	cmp	DWORD PTR _shader$[ebp], 0
	jne	SHORT $LN2@GL_InitBlu
	mov	eax, DWORD PTR ?__LINE__Var@?0??GL_InitBlurMipUniforms@@YAXPAUglsl_prog_s@@@Z@4JA
	add	eax, 1
	push	eax
	push	OFFSET ??_C@_0EN@DPFBEFBL@d?3?2?$CBdiffusion?52020?2source?5code?52@
	push	OFFSET ??_C@_0BI@FECCGOFJ@assert?5failed?5at?5?$CFs?3?$CFi?6?$AA@
	call	DWORD PTR ?gRenderfuncs@@3Urender_api_s@@A+236
	add	esp, 12					; 0000000cH
$LN2@GL_InitBlu:

; 1394 : 
; 1395 : 	shader->u_ScreenMap = pglGetUniformLocationARB( shader->handle, "u_ScreenMap" );

	push	OFFSET ??_C@_0M@KCNMJMNH@u_ScreenMap?$AA@
	mov	eax, DWORD PTR _shader$[ebp]
	mov	ecx, DWORD PTR [eax+576]
	push	ecx
	call	DWORD PTR ?pglGetUniformLocationARB@@3P6GHIPBD@ZA ; pglGetUniformLocationARB
	mov	edx, DWORD PTR _shader$[ebp]
	mov	DWORD PTR [edx+632], eax

; 1396 : 	shader->u_ScreenSizeInv = pglGetUniformLocationARB( shader->handle, "u_ScreenSizeInv" );

	push	OFFSET ??_C@_0BA@CNHIBBKL@u_ScreenSizeInv?$AA@
	mov	eax, DWORD PTR _shader$[ebp]
	mov	ecx, DWORD PTR [eax+576]
	push	ecx
	call	DWORD PTR ?pglGetUniformLocationARB@@3P6GHIPBD@ZA ; pglGetUniformLocationARB
	mov	edx, DWORD PTR _shader$[ebp]
	mov	DWORD PTR [edx+724], eax

; 1397 : 	shader->u_MipLod = pglGetUniformLocationARB( shader->handle, "u_MipLod" );

	push	OFFSET ??_C@_08EPOJODHO@u_MipLod?$AA@
	mov	eax, DWORD PTR _shader$[ebp]
	mov	ecx, DWORD PTR [eax+576]
	push	ecx
	call	DWORD PTR ?pglGetUniformLocationARB@@3P6GHIPBD@ZA ; pglGetUniformLocationARB
	mov	edx, DWORD PTR _shader$[ebp]
	mov	DWORD PTR [edx+952], eax

; 1398 : 	shader->u_TexCoordClamp = pglGetUniformLocationARB( shader->handle, "u_TexCoordClamp" );

	push	OFFSET ??_C@_0BA@CHODOENL@u_TexCoordClamp?$AA@
	mov	eax, DWORD PTR _shader$[ebp]
	mov	ecx, DWORD PTR [eax+576]
	push	ecx
	call	DWORD PTR ?pglGetUniformLocationARB@@3P6GHIPBD@ZA ; pglGetUniformLocationARB
	mov	edx, DWORD PTR _shader$[ebp]
	mov	DWORD PTR [edx+956], eax

; 1399 : 	shader->u_BloomFirstPass = pglGetUniformLocationARB( shader->handle, "u_BloomFirstPass" );

	push	OFFSET ??_C@_0BB@OFOHIACD@u_BloomFirstPass?$AA@
	mov	eax, DWORD PTR _shader$[ebp]
	mov	ecx, DWORD PTR [eax+576]
	push	ecx
	call	DWORD PTR ?pglGetUniformLocationARB@@3P6GHIPBD@ZA ; pglGetUniformLocationARB
	mov	edx, DWORD PTR _shader$[ebp]
	mov	DWORD PTR [edx+964], eax

; 1400 : 
; 1401 : 	GL_BindShader( shader );

	mov	eax, DWORD PTR _shader$[ebp]
	push	eax
	call	?GL_BindShader@@YAXPAUglsl_prog_s@@@Z	; GL_BindShader
	add	esp, 4

; 1402 : 	pglUniform1iARB( shader->u_ScreenMap, GL_TEXTURE0 );

	push	0
	mov	eax, DWORD PTR _shader$[ebp]
	mov	ecx, DWORD PTR [eax+632]
	push	ecx
	call	DWORD PTR ?pglUniform1iARB@@3P6GXHH@ZA	; pglUniform1iARB

; 1403 : 	GL_BindShader( GL_NONE );

	push	0
	call	?GL_BindShader@@YAXPAUglsl_prog_s@@@Z	; GL_BindShader
	add	esp, 4

; 1404 : 
; 1405 : 	GL_ValidateProgram( shader );

	mov	eax, DWORD PTR _shader$[ebp]
	push	eax
	call	?GL_ValidateProgram@@YAXPAUglsl_prog_s@@@Z ; GL_ValidateProgram
	add	esp, 4

; 1406 : 	GL_ShowProgramUniforms( shader );

	mov	eax, DWORD PTR _shader$[ebp]
	push	eax
	call	?GL_ShowProgramUniforms@@YAXPAUglsl_prog_s@@@Z ; GL_ShowProgramUniforms
	add	esp, 4

; 1407 : }

	pop	edi
	pop	esi
	pop	ebx
	mov	esp, ebp
	pop	ebp
	ret	0
?GL_InitBlurMipUniforms@@YAXPAUglsl_prog_s@@@Z ENDP	; GL_InitBlurMipUniforms
_TEXT	ENDS
; Function compile flags: /Odtp /ZI
; File d:\!diffusion 2020\source code 2022\client-server\client\render\r_shader.cpp
;	COMDAT ?GL_InitGenExposureUniforms@@YAXPAUglsl_prog_s@@@Z
_TEXT	SEGMENT
_shader$ = 8						; size = 4
?GL_InitGenExposureUniforms@@YAXPAUglsl_prog_s@@@Z PROC	; GL_InitGenExposureUniforms, COMDAT

; 1374 : {

	push	ebp
	mov	ebp, esp
	sub	esp, 64					; 00000040H
	push	ebx
	push	esi
	push	edi

; 1375 : 	ASSERT( shader != NULL );

	cmp	DWORD PTR _shader$[ebp], 0
	jne	SHORT $LN2@GL_InitGen
	mov	eax, DWORD PTR ?__LINE__Var@?0??GL_InitGenExposureUniforms@@YAXPAUglsl_prog_s@@@Z@4JA
	add	eax, 1
	push	eax
	push	OFFSET ??_C@_0EN@DPFBEFBL@d?3?2?$CBdiffusion?52020?2source?5code?52@
	push	OFFSET ??_C@_0BI@FECCGOFJ@assert?5failed?5at?5?$CFs?3?$CFi?6?$AA@
	call	DWORD PTR ?gRenderfuncs@@3Urender_api_s@@A+236
	add	esp, 12					; 0000000cH
$LN2@GL_InitGen:

; 1376 : 
; 1377 : 	shader->u_ScreenMap = pglGetUniformLocationARB( shader->handle, "u_ScreenMap" );

	push	OFFSET ??_C@_0M@KCNMJMNH@u_ScreenMap?$AA@
	mov	eax, DWORD PTR _shader$[ebp]
	mov	ecx, DWORD PTR [eax+576]
	push	ecx
	call	DWORD PTR ?pglGetUniformLocationARB@@3P6GHIPBD@ZA ; pglGetUniformLocationARB
	mov	edx, DWORD PTR _shader$[ebp]
	mov	DWORD PTR [edx+632], eax

; 1378 : 	shader->u_NormalMap = pglGetUniformLocationARB( shader->handle, "u_NormalMap" );

	push	OFFSET ??_C@_0M@EEAGDKIK@u_NormalMap?$AA@
	mov	eax, DWORD PTR _shader$[ebp]
	mov	ecx, DWORD PTR [eax+576]
	push	ecx
	call	DWORD PTR ?pglGetUniformLocationARB@@3P6GHIPBD@ZA ; pglGetUniformLocationARB
	mov	edx, DWORD PTR _shader$[ebp]
	mov	DWORD PTR [edx+596], eax

; 1379 : 	shader->u_TimeDelta = pglGetUniformLocationARB( shader->handle, "u_TimeDelta" );

	push	OFFSET ??_C@_0M@JKCPEDOF@u_TimeDelta?$AA@
	mov	eax, DWORD PTR _shader$[ebp]
	mov	ecx, DWORD PTR [eax+576]
	push	ecx
	call	DWORD PTR ?pglGetUniformLocationARB@@3P6GHIPBD@ZA ; pglGetUniformLocationARB
	mov	edx, DWORD PTR _shader$[ebp]
	mov	DWORD PTR [edx+960], eax

; 1380 : 	shader->u_MipLod = pglGetUniformLocationARB( shader->handle, "u_MipLod" );

	push	OFFSET ??_C@_08EPOJODHO@u_MipLod?$AA@
	mov	eax, DWORD PTR _shader$[ebp]
	mov	ecx, DWORD PTR [eax+576]
	push	ecx
	call	DWORD PTR ?pglGetUniformLocationARB@@3P6GHIPBD@ZA ; pglGetUniformLocationARB
	mov	edx, DWORD PTR _shader$[ebp]
	mov	DWORD PTR [edx+952], eax

; 1381 : 
; 1382 : 	GL_BindShader( shader );

	mov	eax, DWORD PTR _shader$[ebp]
	push	eax
	call	?GL_BindShader@@YAXPAUglsl_prog_s@@@Z	; GL_BindShader
	add	esp, 4

; 1383 : 	pglUniform1iARB( shader->u_ScreenMap, GL_TEXTURE0 );

	push	0
	mov	eax, DWORD PTR _shader$[ebp]
	mov	ecx, DWORD PTR [eax+632]
	push	ecx
	call	DWORD PTR ?pglUniform1iARB@@3P6GXHH@ZA	; pglUniform1iARB

; 1384 : 	pglUniform1iARB( shader->u_NormalMap, GL_TEXTURE1 );

	push	1
	mov	eax, DWORD PTR _shader$[ebp]
	mov	ecx, DWORD PTR [eax+596]
	push	ecx
	call	DWORD PTR ?pglUniform1iARB@@3P6GXHH@ZA	; pglUniform1iARB

; 1385 : 	GL_BindShader( GL_NONE );

	push	0
	call	?GL_BindShader@@YAXPAUglsl_prog_s@@@Z	; GL_BindShader
	add	esp, 4

; 1386 : 
; 1387 : 	GL_ValidateProgram( shader );

	mov	eax, DWORD PTR _shader$[ebp]
	push	eax
	call	?GL_ValidateProgram@@YAXPAUglsl_prog_s@@@Z ; GL_ValidateProgram
	add	esp, 4

; 1388 : 	GL_ShowProgramUniforms( shader );

	mov	eax, DWORD PTR _shader$[ebp]
	push	eax
	call	?GL_ShowProgramUniforms@@YAXPAUglsl_prog_s@@@Z ; GL_ShowProgramUniforms
	add	esp, 4

; 1389 : }

	pop	edi
	pop	esi
	pop	ebx
	mov	esp, ebp
	pop	ebp
	ret	0
?GL_InitGenExposureUniforms@@YAXPAUglsl_prog_s@@@Z ENDP	; GL_InitGenExposureUniforms
_TEXT	ENDS
; Function compile flags: /Odtp /ZI
; File d:\!diffusion 2020\source code 2022\client-server\client\render\r_shader.cpp
;	COMDAT ?GL_InitGenLuminanceUniforms@@YAXPAUglsl_prog_s@@@Z
_TEXT	SEGMENT
_shader$ = 8						; size = 4
?GL_InitGenLuminanceUniforms@@YAXPAUglsl_prog_s@@@Z PROC ; GL_InitGenLuminanceUniforms, COMDAT

; 1359 : {

	push	ebp
	mov	ebp, esp
	sub	esp, 64					; 00000040H
	push	ebx
	push	esi
	push	edi

; 1360 : 	ASSERT( shader != NULL );

	cmp	DWORD PTR _shader$[ebp], 0
	jne	SHORT $LN2@GL_InitGen
	mov	eax, DWORD PTR ?__LINE__Var@?0??GL_InitGenLuminanceUniforms@@YAXPAUglsl_prog_s@@@Z@4JA
	add	eax, 1
	push	eax
	push	OFFSET ??_C@_0EN@DPFBEFBL@d?3?2?$CBdiffusion?52020?2source?5code?52@
	push	OFFSET ??_C@_0BI@FECCGOFJ@assert?5failed?5at?5?$CFs?3?$CFi?6?$AA@
	call	DWORD PTR ?gRenderfuncs@@3Urender_api_s@@A+236
	add	esp, 12					; 0000000cH
$LN2@GL_InitGen:

; 1361 : 
; 1362 : 	shader->u_ScreenMap = pglGetUniformLocationARB( shader->handle, "u_ScreenMap" );

	push	OFFSET ??_C@_0M@KCNMJMNH@u_ScreenMap?$AA@
	mov	eax, DWORD PTR _shader$[ebp]
	mov	ecx, DWORD PTR [eax+576]
	push	ecx
	call	DWORD PTR ?pglGetUniformLocationARB@@3P6GHIPBD@ZA ; pglGetUniformLocationARB
	mov	edx, DWORD PTR _shader$[ebp]
	mov	DWORD PTR [edx+632], eax

; 1363 : 	shader->u_ScreenSizeInv = pglGetUniformLocationARB( shader->handle, "u_ScreenSizeInv" );

	push	OFFSET ??_C@_0BA@CNHIBBKL@u_ScreenSizeInv?$AA@
	mov	eax, DWORD PTR _shader$[ebp]
	mov	ecx, DWORD PTR [eax+576]
	push	ecx
	call	DWORD PTR ?pglGetUniformLocationARB@@3P6GHIPBD@ZA ; pglGetUniformLocationARB
	mov	edx, DWORD PTR _shader$[ebp]
	mov	DWORD PTR [edx+724], eax

; 1364 : 
; 1365 : 	GL_BindShader( shader );

	mov	eax, DWORD PTR _shader$[ebp]
	push	eax
	call	?GL_BindShader@@YAXPAUglsl_prog_s@@@Z	; GL_BindShader
	add	esp, 4

; 1366 : 	pglUniform1iARB( shader->u_ScreenMap, GL_TEXTURE0 );

	push	0
	mov	eax, DWORD PTR _shader$[ebp]
	mov	ecx, DWORD PTR [eax+632]
	push	ecx
	call	DWORD PTR ?pglUniform1iARB@@3P6GXHH@ZA	; pglUniform1iARB

; 1367 : 	GL_BindShader( GL_NONE );

	push	0
	call	?GL_BindShader@@YAXPAUglsl_prog_s@@@Z	; GL_BindShader
	add	esp, 4

; 1368 : 
; 1369 : 	GL_ValidateProgram( shader );

	mov	eax, DWORD PTR _shader$[ebp]
	push	eax
	call	?GL_ValidateProgram@@YAXPAUglsl_prog_s@@@Z ; GL_ValidateProgram
	add	esp, 4

; 1370 : 	GL_ShowProgramUniforms( shader );

	mov	eax, DWORD PTR _shader$[ebp]
	push	eax
	call	?GL_ShowProgramUniforms@@YAXPAUglsl_prog_s@@@Z ; GL_ShowProgramUniforms
	add	esp, 4

; 1371 : }

	pop	edi
	pop	esi
	pop	ebx
	mov	esp, ebp
	pop	ebp
	ret	0
?GL_InitGenLuminanceUniforms@@YAXPAUglsl_prog_s@@@Z ENDP ; GL_InitGenLuminanceUniforms
_TEXT	ENDS
; Function compile flags: /Odtp /ZI
; File d:\!diffusion 2020\source code 2022\client-server\client\render\r_shader.cpp
;	COMDAT ?GL_InitTonemapUniforms@@YAXPAUglsl_prog_s@@@Z
_TEXT	SEGMENT
_shader$ = 8						; size = 4
?GL_InitTonemapUniforms@@YAXPAUglsl_prog_s@@@Z PROC	; GL_InitTonemapUniforms, COMDAT

; 1341 : {

	push	ebp
	mov	ebp, esp
	sub	esp, 64					; 00000040H
	push	ebx
	push	esi
	push	edi

; 1342 : 	ASSERT( shader != NULL );

	cmp	DWORD PTR _shader$[ebp], 0
	jne	SHORT $LN2@GL_InitTon
	mov	eax, DWORD PTR ?__LINE__Var@?0??GL_InitTonemapUniforms@@YAXPAUglsl_prog_s@@@Z@4JA
	add	eax, 1
	push	eax
	push	OFFSET ??_C@_0EN@DPFBEFBL@d?3?2?$CBdiffusion?52020?2source?5code?52@
	push	OFFSET ??_C@_0BI@FECCGOFJ@assert?5failed?5at?5?$CFs?3?$CFi?6?$AA@
	call	DWORD PTR ?gRenderfuncs@@3Urender_api_s@@A+236
	add	esp, 12					; 0000000cH
$LN2@GL_InitTon:

; 1343 : 
; 1344 : 	shader->u_ScreenMap = pglGetUniformLocationARB( shader->handle, "u_ScreenMap" );

	push	OFFSET ??_C@_0M@KCNMJMNH@u_ScreenMap?$AA@
	mov	eax, DWORD PTR _shader$[ebp]
	mov	ecx, DWORD PTR [eax+576]
	push	ecx
	call	DWORD PTR ?pglGetUniformLocationARB@@3P6GHIPBD@ZA ; pglGetUniformLocationARB
	mov	edx, DWORD PTR _shader$[ebp]
	mov	DWORD PTR [edx+632], eax

; 1345 : 	shader->u_HDRExposure = pglGetUniformLocationARB( shader->handle, "u_HDRExposure" );

	push	OFFSET ??_C@_0O@NAHLAMOG@u_HDRExposure?$AA@
	mov	eax, DWORD PTR _shader$[ebp]
	mov	ecx, DWORD PTR [eax+576]
	push	ecx
	call	DWORD PTR ?pglGetUniformLocationARB@@3P6GHIPBD@ZA ; pglGetUniformLocationARB
	mov	edx, DWORD PTR _shader$[ebp]
	mov	DWORD PTR [edx+968], eax

; 1346 : 	shader->u_ScreenSizeInv = pglGetUniformLocationARB( shader->handle, "u_ScreenSizeInv" );

	push	OFFSET ??_C@_0BA@CNHIBBKL@u_ScreenSizeInv?$AA@
	mov	eax, DWORD PTR _shader$[ebp]
	mov	ecx, DWORD PTR [eax+576]
	push	ecx
	call	DWORD PTR ?pglGetUniformLocationARB@@3P6GHIPBD@ZA ; pglGetUniformLocationARB
	mov	edx, DWORD PTR _shader$[ebp]
	mov	DWORD PTR [edx+724], eax

; 1347 : 	shader->u_MipLod = pglGetUniformLocationARB( shader->handle, "u_MipLod" );

	push	OFFSET ??_C@_08EPOJODHO@u_MipLod?$AA@
	mov	eax, DWORD PTR _shader$[ebp]
	mov	ecx, DWORD PTR [eax+576]
	push	ecx
	call	DWORD PTR ?pglGetUniformLocationARB@@3P6GHIPBD@ZA ; pglGetUniformLocationARB
	mov	edx, DWORD PTR _shader$[ebp]
	mov	DWORD PTR [edx+952], eax

; 1348 : 
; 1349 : 	GL_BindShader( shader );

	mov	eax, DWORD PTR _shader$[ebp]
	push	eax
	call	?GL_BindShader@@YAXPAUglsl_prog_s@@@Z	; GL_BindShader
	add	esp, 4

; 1350 : 	pglUniform1iARB( shader->u_ScreenMap, GL_TEXTURE0 );

	push	0
	mov	eax, DWORD PTR _shader$[ebp]
	mov	ecx, DWORD PTR [eax+632]
	push	ecx
	call	DWORD PTR ?pglUniform1iARB@@3P6GXHH@ZA	; pglUniform1iARB

; 1351 : 	pglUniform1iARB( shader->u_HDRExposure, GL_TEXTURE1 );

	push	1
	mov	eax, DWORD PTR _shader$[ebp]
	mov	ecx, DWORD PTR [eax+968]
	push	ecx
	call	DWORD PTR ?pglUniform1iARB@@3P6GXHH@ZA	; pglUniform1iARB

; 1352 : 	GL_BindShader( GL_NONE );

	push	0
	call	?GL_BindShader@@YAXPAUglsl_prog_s@@@Z	; GL_BindShader
	add	esp, 4

; 1353 : 
; 1354 : 	GL_ValidateProgram( shader );

	mov	eax, DWORD PTR _shader$[ebp]
	push	eax
	call	?GL_ValidateProgram@@YAXPAUglsl_prog_s@@@Z ; GL_ValidateProgram
	add	esp, 4

; 1355 : 	GL_ShowProgramUniforms( shader );

	mov	eax, DWORD PTR _shader$[ebp]
	push	eax
	call	?GL_ShowProgramUniforms@@YAXPAUglsl_prog_s@@@Z ; GL_ShowProgramUniforms
	add	esp, 4

; 1356 : }

	pop	edi
	pop	esi
	pop	ebx
	mov	esp, ebp
	pop	ebp
	ret	0
?GL_InitTonemapUniforms@@YAXPAUglsl_prog_s@@@Z ENDP	; GL_InitTonemapUniforms
_TEXT	ENDS
; Function compile flags: /Odtp /ZI
; File d:\!diffusion 2020\source code 2022\client-server\client\render\r_shader.cpp
;	COMDAT ?GL_InitBloomUniforms@@YAXPAUglsl_prog_s@@@Z
_TEXT	SEGMENT
_shader$ = 8						; size = 4
?GL_InitBloomUniforms@@YAXPAUglsl_prog_s@@@Z PROC	; GL_InitBloomUniforms, COMDAT

; 1325 : {

	push	ebp
	mov	ebp, esp
	sub	esp, 64					; 00000040H
	push	ebx
	push	esi
	push	edi

; 1326 : 	ASSERT( shader != NULL );

	cmp	DWORD PTR _shader$[ebp], 0
	jne	SHORT $LN2@GL_InitBlo
	mov	eax, DWORD PTR ?__LINE__Var@?0??GL_InitBloomUniforms@@YAXPAUglsl_prog_s@@@Z@4JA
	add	eax, 1
	push	eax
	push	OFFSET ??_C@_0EN@DPFBEFBL@d?3?2?$CBdiffusion?52020?2source?5code?52@
	push	OFFSET ??_C@_0BI@FECCGOFJ@assert?5failed?5at?5?$CFs?3?$CFi?6?$AA@
	call	DWORD PTR ?gRenderfuncs@@3Urender_api_s@@A+236
	add	esp, 12					; 0000000cH
$LN2@GL_InitBlo:

; 1327 : 
; 1328 : 	shader->u_ScreenMap = pglGetUniformLocationARB( shader->handle, "u_ScreenMap" );

	push	OFFSET ??_C@_0M@KCNMJMNH@u_ScreenMap?$AA@
	mov	eax, DWORD PTR _shader$[ebp]
	mov	ecx, DWORD PTR [eax+576]
	push	ecx
	call	DWORD PTR ?pglGetUniformLocationARB@@3P6GHIPBD@ZA ; pglGetUniformLocationARB
	mov	edx, DWORD PTR _shader$[ebp]
	mov	DWORD PTR [edx+632], eax

; 1329 : 	shader->u_ScreenSizeInv = pglGetUniformLocationARB( shader->handle, "u_ScreenSizeInv" );

	push	OFFSET ??_C@_0BA@CNHIBBKL@u_ScreenSizeInv?$AA@
	mov	eax, DWORD PTR _shader$[ebp]
	mov	ecx, DWORD PTR [eax+576]
	push	ecx
	call	DWORD PTR ?pglGetUniformLocationARB@@3P6GHIPBD@ZA ; pglGetUniformLocationARB
	mov	edx, DWORD PTR _shader$[ebp]
	mov	DWORD PTR [edx+724], eax

; 1330 : 
; 1331 : 	GL_BindShader( shader );

	mov	eax, DWORD PTR _shader$[ebp]
	push	eax
	call	?GL_BindShader@@YAXPAUglsl_prog_s@@@Z	; GL_BindShader
	add	esp, 4

; 1332 : 	pglUniform1iARB( shader->u_ScreenMap, GL_TEXTURE0 );

	push	0
	mov	eax, DWORD PTR _shader$[ebp]
	mov	ecx, DWORD PTR [eax+632]
	push	ecx
	call	DWORD PTR ?pglUniform1iARB@@3P6GXHH@ZA	; pglUniform1iARB

; 1333 : 	GL_BindShader( GL_NONE );

	push	0
	call	?GL_BindShader@@YAXPAUglsl_prog_s@@@Z	; GL_BindShader
	add	esp, 4

; 1334 : 
; 1335 : 	GL_ValidateProgram( shader );

	mov	eax, DWORD PTR _shader$[ebp]
	push	eax
	call	?GL_ValidateProgram@@YAXPAUglsl_prog_s@@@Z ; GL_ValidateProgram
	add	esp, 4

; 1336 : 	GL_ShowProgramUniforms( shader );

	mov	eax, DWORD PTR _shader$[ebp]
	push	eax
	call	?GL_ShowProgramUniforms@@YAXPAUglsl_prog_s@@@Z ; GL_ShowProgramUniforms
	add	esp, 4

; 1337 : }

	pop	edi
	pop	esi
	pop	ebx
	mov	esp, ebp
	pop	ebp
	ret	0
?GL_InitBloomUniforms@@YAXPAUglsl_prog_s@@@Z ENDP	; GL_InitBloomUniforms
_TEXT	ENDS
; Function compile flags: /Odtp /ZI
; File d:\!diffusion 2020\source code 2022\client-server\client\render\r_shader.cpp
;	COMDAT ?GL_InitEnhanceUniforms@@YAXPAUglsl_prog_s@@@Z
_TEXT	SEGMENT
_shader$ = 8						; size = 4
?GL_InitEnhanceUniforms@@YAXPAUglsl_prog_s@@@Z PROC	; GL_InitEnhanceUniforms, COMDAT

; 1308 : {

	push	ebp
	mov	ebp, esp
	sub	esp, 64					; 00000040H
	push	ebx
	push	esi
	push	edi

; 1309 : 	ASSERT( shader != NULL );

	cmp	DWORD PTR _shader$[ebp], 0
	jne	SHORT $LN2@GL_InitEnh
	mov	eax, DWORD PTR ?__LINE__Var@?0??GL_InitEnhanceUniforms@@YAXPAUglsl_prog_s@@@Z@4JA
	add	eax, 1
	push	eax
	push	OFFSET ??_C@_0EN@DPFBEFBL@d?3?2?$CBdiffusion?52020?2source?5code?52@
	push	OFFSET ??_C@_0BI@FECCGOFJ@assert?5failed?5at?5?$CFs?3?$CFi?6?$AA@
	call	DWORD PTR ?gRenderfuncs@@3Urender_api_s@@A+236
	add	esp, 12					; 0000000cH
$LN2@GL_InitEnh:

; 1310 : 
; 1311 : 	shader->u_ColorMap = pglGetUniformLocationARB( shader->handle, "u_ColorMap" );

	push	OFFSET ??_C@_0L@IEDEJAAC@u_ColorMap?$AA@
	mov	eax, DWORD PTR _shader$[ebp]
	mov	ecx, DWORD PTR [eax+576]
	push	ecx
	call	DWORD PTR ?pglGetUniformLocationARB@@3P6GHIPBD@ZA ; pglGetUniformLocationARB
	mov	edx, DWORD PTR _shader$[ebp]
	mov	DWORD PTR [edx+588], eax

; 1312 : 	shader->u_ScreenSizeInv = pglGetUniformLocationARB( shader->handle, "u_ScreenSizeInv" );

	push	OFFSET ??_C@_0BA@CNHIBBKL@u_ScreenSizeInv?$AA@
	mov	eax, DWORD PTR _shader$[ebp]
	mov	ecx, DWORD PTR [eax+576]
	push	ecx
	call	DWORD PTR ?pglGetUniformLocationARB@@3P6GHIPBD@ZA ; pglGetUniformLocationARB
	mov	edx, DWORD PTR _shader$[ebp]
	mov	DWORD PTR [edx+724], eax

; 1313 : 	shader->u_GenericCondition = pglGetUniformLocationARB( shader->handle, "u_GenericCondition" );

	push	OFFSET ??_C@_0BD@KPMFEKBG@u_GenericCondition?$AA@
	mov	eax, DWORD PTR _shader$[ebp]
	mov	ecx, DWORD PTR [eax+576]
	push	ecx
	call	DWORD PTR ?pglGetUniformLocationARB@@3P6GHIPBD@ZA ; pglGetUniformLocationARB
	mov	edx, DWORD PTR _shader$[ebp]
	mov	DWORD PTR [edx+704], eax

; 1314 : 	shader->u_GenericCondition2 = pglGetUniformLocationARB( shader->handle, "u_GenericCondition2" );

	push	OFFSET ??_C@_0BE@BJALCEGK@u_GenericCondition2?$AA@
	mov	eax, DWORD PTR _shader$[ebp]
	mov	ecx, DWORD PTR [eax+576]
	push	ecx
	call	DWORD PTR ?pglGetUniformLocationARB@@3P6GHIPBD@ZA ; pglGetUniformLocationARB
	mov	edx, DWORD PTR _shader$[ebp]
	mov	DWORD PTR [edx+708], eax

; 1315 : 
; 1316 : 	GL_BindShader( shader );

	mov	eax, DWORD PTR _shader$[ebp]
	push	eax
	call	?GL_BindShader@@YAXPAUglsl_prog_s@@@Z	; GL_BindShader
	add	esp, 4

; 1317 : 	pglUniform1iARB( shader->u_ColorMap, GL_TEXTURE0 );

	push	0
	mov	eax, DWORD PTR _shader$[ebp]
	mov	ecx, DWORD PTR [eax+588]
	push	ecx
	call	DWORD PTR ?pglUniform1iARB@@3P6GXHH@ZA	; pglUniform1iARB

; 1318 : 	GL_BindShader( GL_NONE );

	push	0
	call	?GL_BindShader@@YAXPAUglsl_prog_s@@@Z	; GL_BindShader
	add	esp, 4

; 1319 : 
; 1320 : 	GL_ValidateProgram( shader );

	mov	eax, DWORD PTR _shader$[ebp]
	push	eax
	call	?GL_ValidateProgram@@YAXPAUglsl_prog_s@@@Z ; GL_ValidateProgram
	add	esp, 4

; 1321 : 	GL_ShowProgramUniforms( shader );

	mov	eax, DWORD PTR _shader$[ebp]
	push	eax
	call	?GL_ShowProgramUniforms@@YAXPAUglsl_prog_s@@@Z ; GL_ShowProgramUniforms
	add	esp, 4

; 1322 : }

	pop	edi
	pop	esi
	pop	ebx
	mov	esp, ebp
	pop	ebp
	ret	0
?GL_InitEnhanceUniforms@@YAXPAUglsl_prog_s@@@Z ENDP	; GL_InitEnhanceUniforms
_TEXT	ENDS
; Function compile flags: /Odtp /ZI
; File d:\!diffusion 2020\source code 2022\client-server\client\render\r_shader.cpp
;	COMDAT ?GL_InitMonochromeUniforms@@YAXPAUglsl_prog_s@@@Z
_TEXT	SEGMENT
_shader$ = 8						; size = 4
?GL_InitMonochromeUniforms@@YAXPAUglsl_prog_s@@@Z PROC	; GL_InitMonochromeUniforms, COMDAT

; 1293 : {

	push	ebp
	mov	ebp, esp
	sub	esp, 64					; 00000040H
	push	ebx
	push	esi
	push	edi

; 1294 : 	ASSERT( shader != NULL );

	cmp	DWORD PTR _shader$[ebp], 0
	jne	SHORT $LN2@GL_InitMon
	mov	eax, DWORD PTR ?__LINE__Var@?0??GL_InitMonochromeUniforms@@YAXPAUglsl_prog_s@@@Z@4JA
	add	eax, 1
	push	eax
	push	OFFSET ??_C@_0EN@DPFBEFBL@d?3?2?$CBdiffusion?52020?2source?5code?52@
	push	OFFSET ??_C@_0BI@FECCGOFJ@assert?5failed?5at?5?$CFs?3?$CFi?6?$AA@
	call	DWORD PTR ?gRenderfuncs@@3Urender_api_s@@A+236
	add	esp, 12					; 0000000cH
$LN2@GL_InitMon:

; 1295 : 
; 1296 : 	shader->u_ColorMap = pglGetUniformLocationARB( shader->handle, "u_ColorMap" );

	push	OFFSET ??_C@_0L@IEDEJAAC@u_ColorMap?$AA@
	mov	eax, DWORD PTR _shader$[ebp]
	mov	ecx, DWORD PTR [eax+576]
	push	ecx
	call	DWORD PTR ?pglGetUniformLocationARB@@3P6GHIPBD@ZA ; pglGetUniformLocationARB
	mov	edx, DWORD PTR _shader$[ebp]
	mov	DWORD PTR [edx+588], eax

; 1297 : 	shader->u_Accum = pglGetUniformLocationARB( shader->handle, "u_Accum" );

	push	OFFSET ??_C@_07BKJMBFNE@u_Accum?$AA@
	mov	eax, DWORD PTR _shader$[ebp]
	mov	ecx, DWORD PTR [eax+576]
	push	ecx
	call	DWORD PTR ?pglGetUniformLocationARB@@3P6GHIPBD@ZA ; pglGetUniformLocationARB
	mov	edx, DWORD PTR _shader$[ebp]
	mov	DWORD PTR [edx+932], eax

; 1298 : 
; 1299 : 	GL_BindShader( shader );

	mov	eax, DWORD PTR _shader$[ebp]
	push	eax
	call	?GL_BindShader@@YAXPAUglsl_prog_s@@@Z	; GL_BindShader
	add	esp, 4

; 1300 : 	pglUniform1iARB( shader->u_ColorMap, GL_TEXTURE0 );

	push	0
	mov	eax, DWORD PTR _shader$[ebp]
	mov	ecx, DWORD PTR [eax+588]
	push	ecx
	call	DWORD PTR ?pglUniform1iARB@@3P6GXHH@ZA	; pglUniform1iARB

; 1301 : 	GL_BindShader( GL_NONE );

	push	0
	call	?GL_BindShader@@YAXPAUglsl_prog_s@@@Z	; GL_BindShader
	add	esp, 4

; 1302 : 
; 1303 : 	GL_ValidateProgram( shader );

	mov	eax, DWORD PTR _shader$[ebp]
	push	eax
	call	?GL_ValidateProgram@@YAXPAUglsl_prog_s@@@Z ; GL_ValidateProgram
	add	esp, 4

; 1304 : 	GL_ShowProgramUniforms( shader );

	mov	eax, DWORD PTR _shader$[ebp]
	push	eax
	call	?GL_ShowProgramUniforms@@YAXPAUglsl_prog_s@@@Z ; GL_ShowProgramUniforms
	add	esp, 4

; 1305 : }

	pop	edi
	pop	esi
	pop	ebx
	mov	esp, ebp
	pop	ebp
	ret	0
?GL_InitMonochromeUniforms@@YAXPAUglsl_prog_s@@@Z ENDP	; GL_InitMonochromeUniforms
_TEXT	ENDS
; Function compile flags: /Odtp /ZI
; File d:\!diffusion 2020\source code 2022\client-server\client\render\r_shader.cpp
;	COMDAT ?GL_InitHorizontalBlurUniforms@@YAXPAUglsl_prog_s@@@Z
_TEXT	SEGMENT
_shader$ = 8						; size = 4
?GL_InitHorizontalBlurUniforms@@YAXPAUglsl_prog_s@@@Z PROC ; GL_InitHorizontalBlurUniforms, COMDAT

; 1277 : {

	push	ebp
	mov	ebp, esp
	sub	esp, 64					; 00000040H
	push	ebx
	push	esi
	push	edi

; 1278 : 	ASSERT( shader != NULL );

	cmp	DWORD PTR _shader$[ebp], 0
	jne	SHORT $LN2@GL_InitHor
	mov	eax, DWORD PTR ?__LINE__Var@?0??GL_InitHorizontalBlurUniforms@@YAXPAUglsl_prog_s@@@Z@4JA
	add	eax, 1
	push	eax
	push	OFFSET ??_C@_0EN@DPFBEFBL@d?3?2?$CBdiffusion?52020?2source?5code?52@
	push	OFFSET ??_C@_0BI@FECCGOFJ@assert?5failed?5at?5?$CFs?3?$CFi?6?$AA@
	call	DWORD PTR ?gRenderfuncs@@3Urender_api_s@@A+236
	add	esp, 12					; 0000000cH
$LN2@GL_InitHor:

; 1279 : 
; 1280 : 	shader->u_ColorMap = pglGetUniformLocationARB( shader->handle, "u_ColorMap" );

	push	OFFSET ??_C@_0L@IEDEJAAC@u_ColorMap?$AA@
	mov	eax, DWORD PTR _shader$[ebp]
	mov	ecx, DWORD PTR [eax+576]
	push	ecx
	call	DWORD PTR ?pglGetUniformLocationARB@@3P6GHIPBD@ZA ; pglGetUniformLocationARB
	mov	edx, DWORD PTR _shader$[ebp]
	mov	DWORD PTR [edx+588], eax

; 1281 : 	shader->u_MB_Velocity = pglGetUniformLocationARB( shader->handle, "u_MB_Velocity" );

	push	OFFSET ??_C@_0O@BPMLMILL@u_MB_Velocity?$AA@
	mov	eax, DWORD PTR _shader$[ebp]
	mov	ecx, DWORD PTR [eax+576]
	push	ecx
	call	DWORD PTR ?pglGetUniformLocationARB@@3P6GHIPBD@ZA ; pglGetUniformLocationARB
	mov	edx, DWORD PTR _shader$[ebp]
	mov	DWORD PTR [edx+936], eax

; 1282 : 	shader->u_Accum = pglGetUniformLocationARB( shader->handle, "u_Accum" );

	push	OFFSET ??_C@_07BKJMBFNE@u_Accum?$AA@
	mov	eax, DWORD PTR _shader$[ebp]
	mov	ecx, DWORD PTR [eax+576]
	push	ecx
	call	DWORD PTR ?pglGetUniformLocationARB@@3P6GHIPBD@ZA ; pglGetUniformLocationARB
	mov	edx, DWORD PTR _shader$[ebp]
	mov	DWORD PTR [edx+932], eax

; 1283 : 
; 1284 : 	GL_BindShader( shader );

	mov	eax, DWORD PTR _shader$[ebp]
	push	eax
	call	?GL_BindShader@@YAXPAUglsl_prog_s@@@Z	; GL_BindShader
	add	esp, 4

; 1285 : 	pglUniform1iARB( shader->u_ColorMap, GL_TEXTURE0 );

	push	0
	mov	eax, DWORD PTR _shader$[ebp]
	mov	ecx, DWORD PTR [eax+588]
	push	ecx
	call	DWORD PTR ?pglUniform1iARB@@3P6GXHH@ZA	; pglUniform1iARB

; 1286 : 	GL_BindShader( GL_NONE );

	push	0
	call	?GL_BindShader@@YAXPAUglsl_prog_s@@@Z	; GL_BindShader
	add	esp, 4

; 1287 : 
; 1288 : 	GL_ValidateProgram( shader );

	mov	eax, DWORD PTR _shader$[ebp]
	push	eax
	call	?GL_ValidateProgram@@YAXPAUglsl_prog_s@@@Z ; GL_ValidateProgram
	add	esp, 4

; 1289 : 	GL_ShowProgramUniforms( shader );

	mov	eax, DWORD PTR _shader$[ebp]
	push	eax
	call	?GL_ShowProgramUniforms@@YAXPAUglsl_prog_s@@@Z ; GL_ShowProgramUniforms
	add	esp, 4

; 1290 : }

	pop	edi
	pop	esi
	pop	ebx
	mov	esp, ebp
	pop	ebp
	ret	0
?GL_InitHorizontalBlurUniforms@@YAXPAUglsl_prog_s@@@Z ENDP ; GL_InitHorizontalBlurUniforms
_TEXT	ENDS
; Function compile flags: /Odtp /ZI
; File d:\!diffusion 2020\source code 2022\client-server\client\render\r_shader.cpp
;	COMDAT ?GL_InitMotionBlurUniforms@@YAXPAUglsl_prog_s@@@Z
_TEXT	SEGMENT
_shader$ = 8						; size = 4
?GL_InitMotionBlurUniforms@@YAXPAUglsl_prog_s@@@Z PROC	; GL_InitMotionBlurUniforms, COMDAT

; 1258 : {

	push	ebp
	mov	ebp, esp
	sub	esp, 64					; 00000040H
	push	ebx
	push	esi
	push	edi

; 1259 : 	ASSERT( shader != NULL );

	cmp	DWORD PTR _shader$[ebp], 0
	jne	SHORT $LN2@GL_InitMot
	mov	eax, DWORD PTR ?__LINE__Var@?0??GL_InitMotionBlurUniforms@@YAXPAUglsl_prog_s@@@Z@4JA
	add	eax, 1
	push	eax
	push	OFFSET ??_C@_0EN@DPFBEFBL@d?3?2?$CBdiffusion?52020?2source?5code?52@
	push	OFFSET ??_C@_0BI@FECCGOFJ@assert?5failed?5at?5?$CFs?3?$CFi?6?$AA@
	call	DWORD PTR ?gRenderfuncs@@3Urender_api_s@@A+236
	add	esp, 12					; 0000000cH
$LN2@GL_InitMot:

; 1260 : 
; 1261 : 	shader->u_ColorMap = pglGetUniformLocationARB( shader->handle, "u_ColorMap" );

	push	OFFSET ??_C@_0L@IEDEJAAC@u_ColorMap?$AA@
	mov	eax, DWORD PTR _shader$[ebp]
	mov	ecx, DWORD PTR [eax+576]
	push	ecx
	call	DWORD PTR ?pglGetUniformLocationARB@@3P6GHIPBD@ZA ; pglGetUniformLocationARB
	mov	edx, DWORD PTR _shader$[ebp]
	mov	DWORD PTR [edx+588], eax

; 1262 : 	shader->u_DepthMap = pglGetUniformLocationARB( shader->handle, "u_DepthMap" );

	push	OFFSET ??_C@_0L@JCKKGKMC@u_DepthMap?$AA@
	mov	eax, DWORD PTR _shader$[ebp]
	mov	ecx, DWORD PTR [eax+576]
	push	ecx
	call	DWORD PTR ?pglGetUniformLocationARB@@3P6GHIPBD@ZA ; pglGetUniformLocationARB
	mov	edx, DWORD PTR _shader$[ebp]
	mov	DWORD PTR [edx+592], eax

; 1263 : 
; 1264 : 	shader->u_MB_Velocity = pglGetUniformLocationARB( shader->handle, "u_MB_Velocity" );

	push	OFFSET ??_C@_0O@BPMLMILL@u_MB_Velocity?$AA@
	mov	eax, DWORD PTR _shader$[ebp]
	mov	ecx, DWORD PTR [eax+576]
	push	ecx
	call	DWORD PTR ?pglGetUniformLocationARB@@3P6GHIPBD@ZA ; pglGetUniformLocationARB
	mov	edx, DWORD PTR _shader$[ebp]
	mov	DWORD PTR [edx+936], eax

; 1265 : 	shader->u_LightDiffuse = pglGetUniformLocationARB( shader->handle, "u_LightDiffuse" );

	push	OFFSET ??_C@_0P@IBMOHOLF@u_LightDiffuse?$AA@
	mov	eax, DWORD PTR _shader$[ebp]
	mov	ecx, DWORD PTR [eax+576]
	push	ecx
	call	DWORD PTR ?pglGetUniformLocationARB@@3P6GHIPBD@ZA ; pglGetUniformLocationARB
	mov	edx, DWORD PTR _shader$[ebp]
	mov	DWORD PTR [edx+760], eax

; 1266 : 	shader->u_Accum = pglGetUniformLocationARB( shader->handle, "u_Accum" );

	push	OFFSET ??_C@_07BKJMBFNE@u_Accum?$AA@
	mov	eax, DWORD PTR _shader$[ebp]
	mov	ecx, DWORD PTR [eax+576]
	push	ecx
	call	DWORD PTR ?pglGetUniformLocationARB@@3P6GHIPBD@ZA ; pglGetUniformLocationARB
	mov	edx, DWORD PTR _shader$[ebp]
	mov	DWORD PTR [edx+932], eax

; 1267 : 
; 1268 : 	GL_BindShader( shader );

	mov	eax, DWORD PTR _shader$[ebp]
	push	eax
	call	?GL_BindShader@@YAXPAUglsl_prog_s@@@Z	; GL_BindShader
	add	esp, 4

; 1269 : 	pglUniform1iARB( shader->u_ColorMap, GL_TEXTURE0 );

	push	0
	mov	eax, DWORD PTR _shader$[ebp]
	mov	ecx, DWORD PTR [eax+588]
	push	ecx
	call	DWORD PTR ?pglUniform1iARB@@3P6GXHH@ZA	; pglUniform1iARB

; 1270 : 	GL_BindShader( GL_NONE );

	push	0
	call	?GL_BindShader@@YAXPAUglsl_prog_s@@@Z	; GL_BindShader
	add	esp, 4

; 1271 : 
; 1272 : 	GL_ValidateProgram( shader );

	mov	eax, DWORD PTR _shader$[ebp]
	push	eax
	call	?GL_ValidateProgram@@YAXPAUglsl_prog_s@@@Z ; GL_ValidateProgram
	add	esp, 4

; 1273 : 	GL_ShowProgramUniforms( shader );

	mov	eax, DWORD PTR _shader$[ebp]
	push	eax
	call	?GL_ShowProgramUniforms@@YAXPAUglsl_prog_s@@@Z ; GL_ShowProgramUniforms
	add	esp, 4

; 1274 : }

	pop	edi
	pop	esi
	pop	ebx
	mov	esp, ebp
	pop	ebp
	ret	0
?GL_InitMotionBlurUniforms@@YAXPAUglsl_prog_s@@@Z ENDP	; GL_InitMotionBlurUniforms
_TEXT	ENDS
; Function compile flags: /Odtp /ZI
; File d:\!diffusion 2020\source code 2022\client-server\client\render\r_shader.cpp
;	COMDAT ?GL_InitDrawSSAOUniforms@@YAXPAUglsl_prog_s@@@Z
_TEXT	SEGMENT
_shader$ = 8						; size = 4
?GL_InitDrawSSAOUniforms@@YAXPAUglsl_prog_s@@@Z PROC	; GL_InitDrawSSAOUniforms, COMDAT

; 1241 : {

	push	ebp
	mov	ebp, esp
	sub	esp, 64					; 00000040H
	push	ebx
	push	esi
	push	edi

; 1242 : 	ASSERT( shader != NULL );

	cmp	DWORD PTR _shader$[ebp], 0
	jne	SHORT $LN2@GL_InitDra
	mov	eax, DWORD PTR ?__LINE__Var@?0??GL_InitDrawSSAOUniforms@@YAXPAUglsl_prog_s@@@Z@4JA
	add	eax, 1
	push	eax
	push	OFFSET ??_C@_0EN@DPFBEFBL@d?3?2?$CBdiffusion?52020?2source?5code?52@
	push	OFFSET ??_C@_0BI@FECCGOFJ@assert?5failed?5at?5?$CFs?3?$CFi?6?$AA@
	call	DWORD PTR ?gRenderfuncs@@3Urender_api_s@@A+236
	add	esp, 12					; 0000000cH
$LN2@GL_InitDra:

; 1243 : 
; 1244 : 	shader->u_ScreenMap = pglGetUniformLocationARB( shader->handle, "u_ScreenMap" );

	push	OFFSET ??_C@_0M@KCNMJMNH@u_ScreenMap?$AA@
	mov	eax, DWORD PTR _shader$[ebp]
	mov	ecx, DWORD PTR [eax+576]
	push	ecx
	call	DWORD PTR ?pglGetUniformLocationARB@@3P6GHIPBD@ZA ; pglGetUniformLocationARB
	mov	edx, DWORD PTR _shader$[ebp]
	mov	DWORD PTR [edx+632], eax

; 1245 : 	shader->u_AOMap = pglGetUniformLocationARB( shader->handle, "u_AOMap" );

	push	OFFSET ??_C@_07LKADGIGM@u_AOMap?$AA@
	mov	eax, DWORD PTR _shader$[ebp]
	mov	ecx, DWORD PTR [eax+576]
	push	ecx
	call	DWORD PTR ?pglGetUniformLocationARB@@3P6GHIPBD@ZA ; pglGetUniformLocationARB
	mov	edx, DWORD PTR _shader$[ebp]
	mov	DWORD PTR [edx+944], eax

; 1246 : 	shader->u_GenericCondition = pglGetUniformLocationARB( shader->handle, "u_GenericCondition" );

	push	OFFSET ??_C@_0BD@KPMFEKBG@u_GenericCondition?$AA@
	mov	eax, DWORD PTR _shader$[ebp]
	mov	ecx, DWORD PTR [eax+576]
	push	ecx
	call	DWORD PTR ?pglGetUniformLocationARB@@3P6GHIPBD@ZA ; pglGetUniformLocationARB
	mov	edx, DWORD PTR _shader$[ebp]
	mov	DWORD PTR [edx+704], eax

; 1247 : 
; 1248 : 	GL_BindShader( shader );

	mov	eax, DWORD PTR _shader$[ebp]
	push	eax
	call	?GL_BindShader@@YAXPAUglsl_prog_s@@@Z	; GL_BindShader
	add	esp, 4

; 1249 : 	pglUniform1iARB( shader->u_ScreenMap, GL_TEXTURE0 );

	push	0
	mov	eax, DWORD PTR _shader$[ebp]
	mov	ecx, DWORD PTR [eax+632]
	push	ecx
	call	DWORD PTR ?pglUniform1iARB@@3P6GXHH@ZA	; pglUniform1iARB

; 1250 : 	pglUniform1iARB( shader->u_AOMap, GL_TEXTURE1 );

	push	1
	mov	eax, DWORD PTR _shader$[ebp]
	mov	ecx, DWORD PTR [eax+944]
	push	ecx
	call	DWORD PTR ?pglUniform1iARB@@3P6GXHH@ZA	; pglUniform1iARB

; 1251 : 	GL_BindShader( GL_NONE );

	push	0
	call	?GL_BindShader@@YAXPAUglsl_prog_s@@@Z	; GL_BindShader
	add	esp, 4

; 1252 : 
; 1253 : 	GL_ValidateProgram( shader );

	mov	eax, DWORD PTR _shader$[ebp]
	push	eax
	call	?GL_ValidateProgram@@YAXPAUglsl_prog_s@@@Z ; GL_ValidateProgram
	add	esp, 4

; 1254 : 	GL_ShowProgramUniforms( shader );

	mov	eax, DWORD PTR _shader$[ebp]
	push	eax
	call	?GL_ShowProgramUniforms@@YAXPAUglsl_prog_s@@@Z ; GL_ShowProgramUniforms
	add	esp, 4

; 1255 : }

	pop	edi
	pop	esi
	pop	ebx
	mov	esp, ebp
	pop	ebp
	ret	0
?GL_InitDrawSSAOUniforms@@YAXPAUglsl_prog_s@@@Z ENDP	; GL_InitDrawSSAOUniforms
_TEXT	ENDS
; Function compile flags: /Odtp /ZI
; File d:\!diffusion 2020\source code 2022\client-server\client\render\r_shader.cpp
;	COMDAT ?GL_InitGenSSAOUniforms@@YAXPAUglsl_prog_s@@@Z
_TEXT	SEGMENT
_shader$ = 8						; size = 4
?GL_InitGenSSAOUniforms@@YAXPAUglsl_prog_s@@@Z PROC	; GL_InitGenSSAOUniforms, COMDAT

; 1224 : {

	push	ebp
	mov	ebp, esp
	sub	esp, 64					; 00000040H
	push	ebx
	push	esi
	push	edi

; 1225 : 	ASSERT( shader != NULL );

	cmp	DWORD PTR _shader$[ebp], 0
	jne	SHORT $LN2@GL_InitGen
	mov	eax, DWORD PTR ?__LINE__Var@?0??GL_InitGenSSAOUniforms@@YAXPAUglsl_prog_s@@@Z@4JA
	add	eax, 1
	push	eax
	push	OFFSET ??_C@_0EN@DPFBEFBL@d?3?2?$CBdiffusion?52020?2source?5code?52@
	push	OFFSET ??_C@_0BI@FECCGOFJ@assert?5failed?5at?5?$CFs?3?$CFi?6?$AA@
	call	DWORD PTR ?gRenderfuncs@@3Urender_api_s@@A+236
	add	esp, 12					; 0000000cH
$LN2@GL_InitGen:

; 1226 : 
; 1227 : 	shader->u_DepthMap = pglGetUniformLocationARB( shader->handle, "u_DepthMap" );

	push	OFFSET ??_C@_0L@JCKKGKMC@u_DepthMap?$AA@
	mov	eax, DWORD PTR _shader$[ebp]
	mov	ecx, DWORD PTR [eax+576]
	push	ecx
	call	DWORD PTR ?pglGetUniformLocationARB@@3P6GHIPBD@ZA ; pglGetUniformLocationARB
	mov	edx, DWORD PTR _shader$[ebp]
	mov	DWORD PTR [edx+592], eax

; 1228 : 	shader->u_RotateMap = pglGetUniformLocationARB( shader->handle, "u_RotateMap" );

	push	OFFSET ??_C@_0M@CGFAMJEG@u_RotateMap?$AA@
	mov	eax, DWORD PTR _shader$[ebp]
	mov	ecx, DWORD PTR [eax+576]
	push	ecx
	call	DWORD PTR ?pglGetUniformLocationARB@@3P6GHIPBD@ZA ; pglGetUniformLocationARB
	mov	edx, DWORD PTR _shader$[ebp]
	mov	DWORD PTR [edx+948], eax

; 1229 : 	shader->u_zFar = pglGetUniformLocationARB( shader->handle, "u_zFar" );

	push	OFFSET ??_C@_06HIBKCAMD@u_zFar?$AA@
	mov	eax, DWORD PTR _shader$[ebp]
	mov	ecx, DWORD PTR [eax+576]
	push	ecx
	call	DWORD PTR ?pglGetUniformLocationARB@@3P6GHIPBD@ZA ; pglGetUniformLocationARB
	mov	edx, DWORD PTR _shader$[ebp]
	mov	DWORD PTR [edx+728], eax

; 1230 : 
; 1231 : 	GL_BindShader( shader );

	mov	eax, DWORD PTR _shader$[ebp]
	push	eax
	call	?GL_BindShader@@YAXPAUglsl_prog_s@@@Z	; GL_BindShader
	add	esp, 4

; 1232 : 	pglUniform1iARB( shader->u_DepthMap, GL_TEXTURE0 );

	push	0
	mov	eax, DWORD PTR _shader$[ebp]
	mov	ecx, DWORD PTR [eax+592]
	push	ecx
	call	DWORD PTR ?pglUniform1iARB@@3P6GXHH@ZA	; pglUniform1iARB

; 1233 : 	pglUniform1iARB( shader->u_RotateMap, GL_TEXTURE1 );

	push	1
	mov	eax, DWORD PTR _shader$[ebp]
	mov	ecx, DWORD PTR [eax+948]
	push	ecx
	call	DWORD PTR ?pglUniform1iARB@@3P6GXHH@ZA	; pglUniform1iARB

; 1234 : 	GL_BindShader( GL_NONE );

	push	0
	call	?GL_BindShader@@YAXPAUglsl_prog_s@@@Z	; GL_BindShader
	add	esp, 4

; 1235 : 
; 1236 : 	GL_ValidateProgram( shader );

	mov	eax, DWORD PTR _shader$[ebp]
	push	eax
	call	?GL_ValidateProgram@@YAXPAUglsl_prog_s@@@Z ; GL_ValidateProgram
	add	esp, 4

; 1237 : 	GL_ShowProgramUniforms( shader );

	mov	eax, DWORD PTR _shader$[ebp]
	push	eax
	call	?GL_ShowProgramUniforms@@YAXPAUglsl_prog_s@@@Z ; GL_ShowProgramUniforms
	add	esp, 4

; 1238 : }

	pop	edi
	pop	esi
	pop	ebx
	mov	esp, ebp
	pop	ebp
	ret	0
?GL_InitGenSSAOUniforms@@YAXPAUglsl_prog_s@@@Z ENDP	; GL_InitGenSSAOUniforms
_TEXT	ENDS
; Function compile flags: /Odtp /ZI
; File d:\!diffusion 2020\source code 2022\client-server\client\render\r_shader.cpp
;	COMDAT ?GL_InitDrawShaftsUniforms@@YAXPAUglsl_prog_s@@@Z
_TEXT	SEGMENT
_shader$ = 8						; size = 4
?GL_InitDrawShaftsUniforms@@YAXPAUglsl_prog_s@@@Z PROC	; GL_InitDrawShaftsUniforms, COMDAT

; 1202 : {

	push	ebp
	mov	ebp, esp
	sub	esp, 64					; 00000040H
	push	ebx
	push	esi
	push	edi

; 1203 : 	ASSERT( shader != NULL );

	cmp	DWORD PTR _shader$[ebp], 0
	jne	SHORT $LN2@GL_InitDra
	mov	eax, DWORD PTR ?__LINE__Var@?0??GL_InitDrawShaftsUniforms@@YAXPAUglsl_prog_s@@@Z@4JA
	add	eax, 1
	push	eax
	push	OFFSET ??_C@_0EN@DPFBEFBL@d?3?2?$CBdiffusion?52020?2source?5code?52@
	push	OFFSET ??_C@_0BI@FECCGOFJ@assert?5failed?5at?5?$CFs?3?$CFi?6?$AA@
	call	DWORD PTR ?gRenderfuncs@@3Urender_api_s@@A+236
	add	esp, 12					; 0000000cH
$LN2@GL_InitDra:

; 1204 : 
; 1205 : 	shader->u_ColorMap = pglGetUniformLocationARB( shader->handle, "u_ColorMap" );

	push	OFFSET ??_C@_0L@IEDEJAAC@u_ColorMap?$AA@
	mov	eax, DWORD PTR _shader$[ebp]
	mov	ecx, DWORD PTR [eax+576]
	push	ecx
	call	DWORD PTR ?pglGetUniformLocationARB@@3P6GHIPBD@ZA ; pglGetUniformLocationARB
	mov	edx, DWORD PTR _shader$[ebp]
	mov	DWORD PTR [edx+588], eax

; 1206 : 	shader->u_DepthMap = pglGetUniformLocationARB( shader->handle, "u_DepthMap" );

	push	OFFSET ??_C@_0L@JCKKGKMC@u_DepthMap?$AA@
	mov	eax, DWORD PTR _shader$[ebp]
	mov	ecx, DWORD PTR [eax+576]
	push	ecx
	call	DWORD PTR ?pglGetUniformLocationARB@@3P6GHIPBD@ZA ; pglGetUniformLocationARB
	mov	edx, DWORD PTR _shader$[ebp]
	mov	DWORD PTR [edx+592], eax

; 1207 : 	shader->u_ScreenMap = pglGetUniformLocationARB( shader->handle, "u_ScreenMap" );

	push	OFFSET ??_C@_0M@KCNMJMNH@u_ScreenMap?$AA@
	mov	eax, DWORD PTR _shader$[ebp]
	mov	ecx, DWORD PTR [eax+576]
	push	ecx
	call	DWORD PTR ?pglGetUniformLocationARB@@3P6GHIPBD@ZA ; pglGetUniformLocationARB
	mov	edx, DWORD PTR _shader$[ebp]
	mov	DWORD PTR [edx+632], eax

; 1208 : 
; 1209 : 	shader->u_LightOrigin = pglGetUniformLocationARB( shader->handle, "u_LightOrigin" );

	push	OFFSET ??_C@_0O@PGBKINBN@u_LightOrigin?$AA@
	mov	eax, DWORD PTR _shader$[ebp]
	mov	ecx, DWORD PTR [eax+576]
	push	ecx
	call	DWORD PTR ?pglGetUniformLocationARB@@3P6GHIPBD@ZA ; pglGetUniformLocationARB
	mov	edx, DWORD PTR _shader$[ebp]
	mov	DWORD PTR [edx+792], eax

; 1210 : 	shader->u_LightDiffuse = pglGetUniformLocationARB( shader->handle, "u_LightDiffuse" );

	push	OFFSET ??_C@_0P@IBMOHOLF@u_LightDiffuse?$AA@
	mov	eax, DWORD PTR _shader$[ebp]
	mov	ecx, DWORD PTR [eax+576]
	push	ecx
	call	DWORD PTR ?pglGetUniformLocationARB@@3P6GHIPBD@ZA ; pglGetUniformLocationARB
	mov	edx, DWORD PTR _shader$[ebp]
	mov	DWORD PTR [edx+760], eax

; 1211 : 	shader->u_SS_Brightness = pglGetUniformLocationARB( shader->handle, "u_SS_Brightness" );

	push	OFFSET ??_C@_0BA@MLGMJJCM@u_SS_Brightness?$AA@
	mov	eax, DWORD PTR _shader$[ebp]
	mov	ecx, DWORD PTR [eax+576]
	push	ecx
	call	DWORD PTR ?pglGetUniformLocationARB@@3P6GHIPBD@ZA ; pglGetUniformLocationARB
	mov	edx, DWORD PTR _shader$[ebp]
	mov	DWORD PTR [edx+940], eax

; 1212 : 
; 1213 : 	GL_BindShader( shader );

	mov	eax, DWORD PTR _shader$[ebp]
	push	eax
	call	?GL_BindShader@@YAXPAUglsl_prog_s@@@Z	; GL_BindShader
	add	esp, 4

; 1214 : 	pglUniform1iARB( shader->u_ScreenMap, GL_TEXTURE0 );

	push	0
	mov	eax, DWORD PTR _shader$[ebp]
	mov	ecx, DWORD PTR [eax+632]
	push	ecx
	call	DWORD PTR ?pglUniform1iARB@@3P6GXHH@ZA	; pglUniform1iARB

; 1215 : 	pglUniform1iARB( shader->u_ColorMap, GL_TEXTURE1 );

	push	1
	mov	eax, DWORD PTR _shader$[ebp]
	mov	ecx, DWORD PTR [eax+588]
	push	ecx
	call	DWORD PTR ?pglUniform1iARB@@3P6GXHH@ZA	; pglUniform1iARB

; 1216 : 	pglUniform1iARB( shader->u_DepthMap, GL_TEXTURE2 );

	push	2
	mov	eax, DWORD PTR _shader$[ebp]
	mov	ecx, DWORD PTR [eax+592]
	push	ecx
	call	DWORD PTR ?pglUniform1iARB@@3P6GXHH@ZA	; pglUniform1iARB

; 1217 : 	GL_BindShader( GL_NONE );

	push	0
	call	?GL_BindShader@@YAXPAUglsl_prog_s@@@Z	; GL_BindShader
	add	esp, 4

; 1218 : 
; 1219 : 	GL_ValidateProgram( shader );

	mov	eax, DWORD PTR _shader$[ebp]
	push	eax
	call	?GL_ValidateProgram@@YAXPAUglsl_prog_s@@@Z ; GL_ValidateProgram
	add	esp, 4

; 1220 : 	GL_ShowProgramUniforms( shader );

	mov	eax, DWORD PTR _shader$[ebp]
	push	eax
	call	?GL_ShowProgramUniforms@@YAXPAUglsl_prog_s@@@Z ; GL_ShowProgramUniforms
	add	esp, 4

; 1221 : }

	pop	edi
	pop	esi
	pop	ebx
	mov	esp, ebp
	pop	ebp
	ret	0
?GL_InitDrawShaftsUniforms@@YAXPAUglsl_prog_s@@@Z ENDP	; GL_InitDrawShaftsUniforms
_TEXT	ENDS
; Function compile flags: /Odtp /ZI
; File d:\!diffusion 2020\source code 2022\client-server\client\render\r_shader.cpp
;	COMDAT ?GL_InitGenShaftsUniforms@@YAXPAUglsl_prog_s@@@Z
_TEXT	SEGMENT
_shader$ = 8						; size = 4
?GL_InitGenShaftsUniforms@@YAXPAUglsl_prog_s@@@Z PROC	; GL_InitGenShaftsUniforms, COMDAT

; 1185 : {

	push	ebp
	mov	ebp, esp
	sub	esp, 64					; 00000040H
	push	ebx
	push	esi
	push	edi

; 1186 : 	ASSERT( shader != NULL );

	cmp	DWORD PTR _shader$[ebp], 0
	jne	SHORT $LN2@GL_InitGen
	mov	eax, DWORD PTR ?__LINE__Var@?0??GL_InitGenShaftsUniforms@@YAXPAUglsl_prog_s@@@Z@4JA
	add	eax, 1
	push	eax
	push	OFFSET ??_C@_0EN@DPFBEFBL@d?3?2?$CBdiffusion?52020?2source?5code?52@
	push	OFFSET ??_C@_0BI@FECCGOFJ@assert?5failed?5at?5?$CFs?3?$CFi?6?$AA@
	call	DWORD PTR ?gRenderfuncs@@3Urender_api_s@@A+236
	add	esp, 12					; 0000000cH
$LN2@GL_InitGen:

; 1187 : 
; 1188 : 	shader->u_DepthMap = pglGetUniformLocationARB( shader->handle, "u_DepthMap" );

	push	OFFSET ??_C@_0L@JCKKGKMC@u_DepthMap?$AA@
	mov	eax, DWORD PTR _shader$[ebp]
	mov	ecx, DWORD PTR [eax+576]
	push	ecx
	call	DWORD PTR ?pglGetUniformLocationARB@@3P6GHIPBD@ZA ; pglGetUniformLocationARB
	mov	edx, DWORD PTR _shader$[ebp]
	mov	DWORD PTR [edx+592], eax

; 1189 : 	shader->u_ScreenMap = pglGetUniformLocationARB( shader->handle, "u_ScreenMap" );

	push	OFFSET ??_C@_0M@KCNMJMNH@u_ScreenMap?$AA@
	mov	eax, DWORD PTR _shader$[ebp]
	mov	ecx, DWORD PTR [eax+576]
	push	ecx
	call	DWORD PTR ?pglGetUniformLocationARB@@3P6GHIPBD@ZA ; pglGetUniformLocationARB
	mov	edx, DWORD PTR _shader$[ebp]
	mov	DWORD PTR [edx+632], eax

; 1190 : 	shader->u_zFar = pglGetUniformLocationARB( shader->handle, "u_zFar" );

	push	OFFSET ??_C@_06HIBKCAMD@u_zFar?$AA@
	mov	eax, DWORD PTR _shader$[ebp]
	mov	ecx, DWORD PTR [eax+576]
	push	ecx
	call	DWORD PTR ?pglGetUniformLocationARB@@3P6GHIPBD@ZA ; pglGetUniformLocationARB
	mov	edx, DWORD PTR _shader$[ebp]
	mov	DWORD PTR [edx+728], eax

; 1191 : 
; 1192 : 	GL_BindShader( shader );

	mov	eax, DWORD PTR _shader$[ebp]
	push	eax
	call	?GL_BindShader@@YAXPAUglsl_prog_s@@@Z	; GL_BindShader
	add	esp, 4

; 1193 : 	pglUniform1iARB( shader->u_DepthMap, GL_TEXTURE0 );

	push	0
	mov	eax, DWORD PTR _shader$[ebp]
	mov	ecx, DWORD PTR [eax+592]
	push	ecx
	call	DWORD PTR ?pglUniform1iARB@@3P6GXHH@ZA	; pglUniform1iARB

; 1194 : 	pglUniform1iARB( shader->u_ScreenMap, GL_TEXTURE1 );

	push	1
	mov	eax, DWORD PTR _shader$[ebp]
	mov	ecx, DWORD PTR [eax+632]
	push	ecx
	call	DWORD PTR ?pglUniform1iARB@@3P6GXHH@ZA	; pglUniform1iARB

; 1195 : 	GL_BindShader( GL_NONE );

	push	0
	call	?GL_BindShader@@YAXPAUglsl_prog_s@@@Z	; GL_BindShader
	add	esp, 4

; 1196 : 
; 1197 : 	GL_ValidateProgram( shader );

	mov	eax, DWORD PTR _shader$[ebp]
	push	eax
	call	?GL_ValidateProgram@@YAXPAUglsl_prog_s@@@Z ; GL_ValidateProgram
	add	esp, 4

; 1198 : 	GL_ShowProgramUniforms( shader );

	mov	eax, DWORD PTR _shader$[ebp]
	push	eax
	call	?GL_ShowProgramUniforms@@YAXPAUglsl_prog_s@@@Z ; GL_ShowProgramUniforms
	add	esp, 4

; 1199 : }

	pop	edi
	pop	esi
	pop	ebx
	mov	esp, ebp
	pop	ebp
	ret	0
?GL_InitGenShaftsUniforms@@YAXPAUglsl_prog_s@@@Z ENDP	; GL_InitGenShaftsUniforms
_TEXT	ENDS
; Function compile flags: /Odtp /ZI
; File d:\!diffusion 2020\source code 2022\client-server\client\render\r_shader.cpp
;	COMDAT ?GL_InitGenericFogUniforms@@YAXPAUglsl_prog_s@@@Z
_TEXT	SEGMENT
_shader$ = 8						; size = 4
?GL_InitGenericFogUniforms@@YAXPAUglsl_prog_s@@@Z PROC	; GL_InitGenericFogUniforms, COMDAT

; 1169 : {

	push	ebp
	mov	ebp, esp
	sub	esp, 64					; 00000040H
	push	ebx
	push	esi
	push	edi

; 1170 : 	ASSERT( shader != NULL );

	cmp	DWORD PTR _shader$[ebp], 0
	jne	SHORT $LN2@GL_InitGen
	mov	eax, DWORD PTR ?__LINE__Var@?0??GL_InitGenericFogUniforms@@YAXPAUglsl_prog_s@@@Z@4JA
	add	eax, 1
	push	eax
	push	OFFSET ??_C@_0EN@DPFBEFBL@d?3?2?$CBdiffusion?52020?2source?5code?52@
	push	OFFSET ??_C@_0BI@FECCGOFJ@assert?5failed?5at?5?$CFs?3?$CFi?6?$AA@
	call	DWORD PTR ?gRenderfuncs@@3Urender_api_s@@A+236
	add	esp, 12					; 0000000cH
$LN2@GL_InitGen:

; 1171 : 
; 1172 : 	shader->u_ColorMap = pglGetUniformLocationARB( shader->handle, "u_ColorMap" );

	push	OFFSET ??_C@_0L@IEDEJAAC@u_ColorMap?$AA@
	mov	eax, DWORD PTR _shader$[ebp]
	mov	ecx, DWORD PTR [eax+576]
	push	ecx
	call	DWORD PTR ?pglGetUniformLocationARB@@3P6GHIPBD@ZA ; pglGetUniformLocationARB
	mov	edx, DWORD PTR _shader$[ebp]
	mov	DWORD PTR [edx+588], eax

; 1173 : 
; 1174 : 	shader->u_FogParams = pglGetUniformLocationARB( shader->handle, "u_FogParams" );

	push	OFFSET ??_C@_0M@LNDNBCGB@u_FogParams?$AA@
	mov	eax, DWORD PTR _shader$[ebp]
	mov	ecx, DWORD PTR [eax+576]
	push	ecx
	call	DWORD PTR ?pglGetUniformLocationARB@@3P6GHIPBD@ZA ; pglGetUniformLocationARB
	mov	edx, DWORD PTR _shader$[ebp]
	mov	DWORD PTR [edx+788], eax

; 1175 : 
; 1176 : 	GL_BindShader( shader );

	mov	eax, DWORD PTR _shader$[ebp]
	push	eax
	call	?GL_BindShader@@YAXPAUglsl_prog_s@@@Z	; GL_BindShader
	add	esp, 4

; 1177 : 	pglUniform1iARB( shader->u_ColorMap, GL_TEXTURE0 );

	push	0
	mov	eax, DWORD PTR _shader$[ebp]
	mov	ecx, DWORD PTR [eax+588]
	push	ecx
	call	DWORD PTR ?pglUniform1iARB@@3P6GXHH@ZA	; pglUniform1iARB

; 1178 : 	GL_BindShader( GL_NONE );

	push	0
	call	?GL_BindShader@@YAXPAUglsl_prog_s@@@Z	; GL_BindShader
	add	esp, 4

; 1179 : 
; 1180 : 	GL_ValidateProgram( shader );

	mov	eax, DWORD PTR _shader$[ebp]
	push	eax
	call	?GL_ValidateProgram@@YAXPAUglsl_prog_s@@@Z ; GL_ValidateProgram
	add	esp, 4

; 1181 : 	GL_ShowProgramUniforms( shader );

	mov	eax, DWORD PTR _shader$[ebp]
	push	eax
	call	?GL_ShowProgramUniforms@@YAXPAUglsl_prog_s@@@Z ; GL_ShowProgramUniforms
	add	esp, 4

; 1182 : }

	pop	edi
	pop	esi
	pop	ebx
	mov	esp, ebp
	pop	ebp
	ret	0
?GL_InitGenericFogUniforms@@YAXPAUglsl_prog_s@@@Z ENDP	; GL_InitGenericFogUniforms
_TEXT	ENDS
; Function compile flags: /Odtp /ZI
; File d:\!diffusion 2020\source code 2022\client-server\client\render\r_shader.cpp
;	COMDAT ?GL_InitPostProcessUniforms@@YAXPAUglsl_prog_s@@@Z
_TEXT	SEGMENT
_shader$ = 8						; size = 4
?GL_InitPostProcessUniforms@@YAXPAUglsl_prog_s@@@Z PROC	; GL_InitPostProcessUniforms, COMDAT

; 1154 : {

	push	ebp
	mov	ebp, esp
	sub	esp, 64					; 00000040H
	push	ebx
	push	esi
	push	edi

; 1155 : 	ASSERT( shader != NULL );

	cmp	DWORD PTR _shader$[ebp], 0
	jne	SHORT $LN2@GL_InitPos
	mov	eax, DWORD PTR ?__LINE__Var@?0??GL_InitPostProcessUniforms@@YAXPAUglsl_prog_s@@@Z@4JA
	add	eax, 1
	push	eax
	push	OFFSET ??_C@_0EN@DPFBEFBL@d?3?2?$CBdiffusion?52020?2source?5code?52@
	push	OFFSET ??_C@_0BI@FECCGOFJ@assert?5failed?5at?5?$CFs?3?$CFi?6?$AA@
	call	DWORD PTR ?gRenderfuncs@@3Urender_api_s@@A+236
	add	esp, 12					; 0000000cH
$LN2@GL_InitPos:

; 1156 : 
; 1157 : 	shader->u_BlurFactor = pglGetUniformLocationARB( shader->handle, "u_BlurFactor" );

	push	OFFSET ??_C@_0N@IIDPNGLD@u_BlurFactor?$AA@
	mov	eax, DWORD PTR _shader$[ebp]
	mov	ecx, DWORD PTR [eax+576]
	push	ecx
	call	DWORD PTR ?pglGetUniformLocationARB@@3P6GHIPBD@ZA ; pglGetUniformLocationARB
	mov	edx, DWORD PTR _shader$[ebp]
	mov	DWORD PTR [edx+712], eax

; 1158 : 	shader->u_ScreenMap = pglGetUniformLocationARB( shader->handle, "u_ScreenMap" );

	push	OFFSET ??_C@_0M@KCNMJMNH@u_ScreenMap?$AA@
	mov	eax, DWORD PTR _shader$[ebp]
	mov	ecx, DWORD PTR [eax+576]
	push	ecx
	call	DWORD PTR ?pglGetUniformLocationARB@@3P6GHIPBD@ZA ; pglGetUniformLocationARB
	mov	edx, DWORD PTR _shader$[ebp]
	mov	DWORD PTR [edx+632], eax

; 1159 : 
; 1160 : 	GL_BindShader( shader );

	mov	eax, DWORD PTR _shader$[ebp]
	push	eax
	call	?GL_BindShader@@YAXPAUglsl_prog_s@@@Z	; GL_BindShader
	add	esp, 4

; 1161 : 	pglUniform1iARB( shader->u_ScreenMap, GL_TEXTURE0 );

	push	0
	mov	eax, DWORD PTR _shader$[ebp]
	mov	ecx, DWORD PTR [eax+632]
	push	ecx
	call	DWORD PTR ?pglUniform1iARB@@3P6GXHH@ZA	; pglUniform1iARB

; 1162 : 	GL_BindShader( GL_NONE );

	push	0
	call	?GL_BindShader@@YAXPAUglsl_prog_s@@@Z	; GL_BindShader
	add	esp, 4

; 1163 : 
; 1164 : 	GL_ValidateProgram( shader );

	mov	eax, DWORD PTR _shader$[ebp]
	push	eax
	call	?GL_ValidateProgram@@YAXPAUglsl_prog_s@@@Z ; GL_ValidateProgram
	add	esp, 4

; 1165 : 	GL_ShowProgramUniforms( shader );

	mov	eax, DWORD PTR _shader$[ebp]
	push	eax
	call	?GL_ShowProgramUniforms@@YAXPAUglsl_prog_s@@@Z ; GL_ShowProgramUniforms
	add	esp, 4

; 1166 : }

	pop	edi
	pop	esi
	pop	ebx
	mov	esp, ebp
	pop	ebp
	ret	0
?GL_InitPostProcessUniforms@@YAXPAUglsl_prog_s@@@Z ENDP	; GL_InitPostProcessUniforms
_TEXT	ENDS
; Function compile flags: /Odtp /ZI
; File d:\!diffusion 2020\source code 2022\client-server\client\render\r_shader.cpp
;	COMDAT ?GL_InitSkyBoxUniforms@@YAXPAUglsl_prog_s@@@Z
_TEXT	SEGMENT
_shader$ = 8						; size = 4
?GL_InitSkyBoxUniforms@@YAXPAUglsl_prog_s@@@Z PROC	; GL_InitSkyBoxUniforms, COMDAT

; 1134 : {

	push	ebp
	mov	ebp, esp
	sub	esp, 64					; 00000040H
	push	ebx
	push	esi
	push	edi

; 1135 : 	ASSERT( shader != NULL );

	cmp	DWORD PTR _shader$[ebp], 0
	jne	SHORT $LN2@GL_InitSky
	mov	eax, DWORD PTR ?__LINE__Var@?0??GL_InitSkyBoxUniforms@@YAXPAUglsl_prog_s@@@Z@4JA
	add	eax, 1
	push	eax
	push	OFFSET ??_C@_0EN@DPFBEFBL@d?3?2?$CBdiffusion?52020?2source?5code?52@
	push	OFFSET ??_C@_0BI@FECCGOFJ@assert?5failed?5at?5?$CFs?3?$CFi?6?$AA@
	call	DWORD PTR ?gRenderfuncs@@3Urender_api_s@@A+236
	add	esp, 12					; 0000000cH
$LN2@GL_InitSky:

; 1136 : 
; 1137 : 	shader->u_ColorMap = pglGetUniformLocationARB( shader->handle, "u_ColorMap" );

	push	OFFSET ??_C@_0L@IEDEJAAC@u_ColorMap?$AA@
	mov	eax, DWORD PTR _shader$[ebp]
	mov	ecx, DWORD PTR [eax+576]
	push	ecx
	call	DWORD PTR ?pglGetUniformLocationARB@@3P6GHIPBD@ZA ; pglGetUniformLocationARB
	mov	edx, DWORD PTR _shader$[ebp]
	mov	DWORD PTR [edx+588], eax

; 1138 : 
; 1139 : 	shader->u_LightDir = pglGetUniformLocationARB( shader->handle, "u_LightDir" );

	push	OFFSET ??_C@_0L@EMINLLAG@u_LightDir?$AA@
	mov	eax, DWORD PTR _shader$[ebp]
	mov	ecx, DWORD PTR [eax+576]
	push	ecx
	call	DWORD PTR ?pglGetUniformLocationARB@@3P6GHIPBD@ZA ; pglGetUniformLocationARB
	mov	edx, DWORD PTR _shader$[ebp]
	mov	DWORD PTR [edx+744], eax

; 1140 : 	shader->u_LightDiffuse = pglGetUniformLocationARB( shader->handle, "u_LightDiffuse" );

	push	OFFSET ??_C@_0P@IBMOHOLF@u_LightDiffuse?$AA@
	mov	eax, DWORD PTR _shader$[ebp]
	mov	ecx, DWORD PTR [eax+576]
	push	ecx
	call	DWORD PTR ?pglGetUniformLocationARB@@3P6GHIPBD@ZA ; pglGetUniformLocationARB
	mov	edx, DWORD PTR _shader$[ebp]
	mov	DWORD PTR [edx+760], eax

; 1141 : 	shader->u_ViewOrigin = pglGetUniformLocationARB( shader->handle, "u_ViewOrigin" );

	push	OFFSET ??_C@_0N@GOCFBCHC@u_ViewOrigin?$AA@
	mov	eax, DWORD PTR _shader$[ebp]
	mov	ecx, DWORD PTR [eax+576]
	push	ecx
	call	DWORD PTR ?pglGetUniformLocationARB@@3P6GHIPBD@ZA ; pglGetUniformLocationARB
	mov	edx, DWORD PTR _shader$[ebp]
	mov	DWORD PTR [edx+800], eax

; 1142 : 	shader->u_FogParams = pglGetUniformLocationARB( shader->handle, "u_FogParams" );

	push	OFFSET ??_C@_0M@LNDNBCGB@u_FogParams?$AA@
	mov	eax, DWORD PTR _shader$[ebp]
	mov	ecx, DWORD PTR [eax+576]
	push	ecx
	call	DWORD PTR ?pglGetUniformLocationARB@@3P6GHIPBD@ZA ; pglGetUniformLocationARB
	mov	edx, DWORD PTR _shader$[ebp]
	mov	DWORD PTR [edx+788], eax

; 1143 : 	shader->u_GenericCondition = pglGetUniformLocationARB( shader->handle, "u_GenericCondition" );

	push	OFFSET ??_C@_0BD@KPMFEKBG@u_GenericCondition?$AA@
	mov	eax, DWORD PTR _shader$[ebp]
	mov	ecx, DWORD PTR [eax+576]
	push	ecx
	call	DWORD PTR ?pglGetUniformLocationARB@@3P6GHIPBD@ZA ; pglGetUniformLocationARB
	mov	edx, DWORD PTR _shader$[ebp]
	mov	DWORD PTR [edx+704], eax

; 1144 : 
; 1145 : 	GL_BindShader( shader );

	mov	eax, DWORD PTR _shader$[ebp]
	push	eax
	call	?GL_BindShader@@YAXPAUglsl_prog_s@@@Z	; GL_BindShader
	add	esp, 4

; 1146 : 	pglUniform1iARB( shader->u_ColorMap, GL_TEXTURE0 );

	push	0
	mov	eax, DWORD PTR _shader$[ebp]
	mov	ecx, DWORD PTR [eax+588]
	push	ecx
	call	DWORD PTR ?pglUniform1iARB@@3P6GXHH@ZA	; pglUniform1iARB

; 1147 : 	GL_BindShader( GL_NONE );

	push	0
	call	?GL_BindShader@@YAXPAUglsl_prog_s@@@Z	; GL_BindShader
	add	esp, 4

; 1148 : 
; 1149 : 	GL_ValidateProgram( shader );

	mov	eax, DWORD PTR _shader$[ebp]
	push	eax
	call	?GL_ValidateProgram@@YAXPAUglsl_prog_s@@@Z ; GL_ValidateProgram
	add	esp, 4

; 1150 : 	GL_ShowProgramUniforms( shader );

	mov	eax, DWORD PTR _shader$[ebp]
	push	eax
	call	?GL_ShowProgramUniforms@@YAXPAUglsl_prog_s@@@Z ; GL_ShowProgramUniforms
	add	esp, 4

; 1151 : }

	pop	edi
	pop	esi
	pop	ebx
	mov	esp, ebp
	pop	ebp
	ret	0
?GL_InitSkyBoxUniforms@@YAXPAUglsl_prog_s@@@Z ENDP	; GL_InitSkyBoxUniforms
_TEXT	ENDS
; Function compile flags: /Odtp /ZI
; File d:\!diffusion 2020\source code 2022\client-server\client\render\r_shader.cpp
;	COMDAT ?GL_InitStudioDecalUniforms@@YAXPAUglsl_prog_s@@@Z
_TEXT	SEGMENT
_shader$ = 8						; size = 4
?GL_InitStudioDecalUniforms@@YAXPAUglsl_prog_s@@@Z PROC	; GL_InitStudioDecalUniforms, COMDAT

; 1117 : {

	push	ebp
	mov	ebp, esp
	sub	esp, 64					; 00000040H
	push	ebx
	push	esi
	push	edi

; 1118 : 	ASSERT( shader != NULL );

	cmp	DWORD PTR _shader$[ebp], 0
	jne	SHORT $LN2@GL_InitStu
	mov	eax, DWORD PTR ?__LINE__Var@?0??GL_InitStudioDecalUniforms@@YAXPAUglsl_prog_s@@@Z@4JA
	add	eax, 1
	push	eax
	push	OFFSET ??_C@_0EN@DPFBEFBL@d?3?2?$CBdiffusion?52020?2source?5code?52@
	push	OFFSET ??_C@_0BI@FECCGOFJ@assert?5failed?5at?5?$CFs?3?$CFi?6?$AA@
	call	DWORD PTR ?gRenderfuncs@@3Urender_api_s@@A+236
	add	esp, 12					; 0000000cH
$LN2@GL_InitStu:

; 1119 : 
; 1120 : 	shader->u_DecalMap = pglGetUniformLocationARB( shader->handle, "u_DecalMap" );

	push	OFFSET ??_C@_0L@GCAHNJHJ@u_DecalMap?$AA@
	mov	eax, DWORD PTR _shader$[ebp]
	mov	ecx, DWORD PTR [eax+576]
	push	ecx
	call	DWORD PTR ?pglGetUniformLocationARB@@3P6GHIPBD@ZA ; pglGetUniformLocationARB
	mov	edx, DWORD PTR _shader$[ebp]
	mov	DWORD PTR [edx+628], eax

; 1121 : 	shader->u_ColorMap = pglGetUniformLocationARB( shader->handle, "u_ColorMap" );

	push	OFFSET ??_C@_0L@IEDEJAAC@u_ColorMap?$AA@
	mov	eax, DWORD PTR _shader$[ebp]
	mov	ecx, DWORD PTR [eax+576]
	push	ecx
	call	DWORD PTR ?pglGetUniformLocationARB@@3P6GHIPBD@ZA ; pglGetUniformLocationARB
	mov	edx, DWORD PTR _shader$[ebp]
	mov	DWORD PTR [edx+588], eax

; 1122 : 	shader->u_FogParams = pglGetUniformLocationARB( shader->handle, "u_FogParams" );

	push	OFFSET ??_C@_0M@LNDNBCGB@u_FogParams?$AA@
	mov	eax, DWORD PTR _shader$[ebp]
	mov	ecx, DWORD PTR [eax+576]
	push	ecx
	call	DWORD PTR ?pglGetUniformLocationARB@@3P6GHIPBD@ZA ; pglGetUniformLocationARB
	mov	edx, DWORD PTR _shader$[ebp]
	mov	DWORD PTR [edx+788], eax

; 1123 : 
; 1124 : 	GL_BindShader( shader );

	mov	eax, DWORD PTR _shader$[ebp]
	push	eax
	call	?GL_BindShader@@YAXPAUglsl_prog_s@@@Z	; GL_BindShader
	add	esp, 4

; 1125 : 	pglUniform1iARB( shader->u_DecalMap, GL_TEXTURE0 );

	push	0
	mov	eax, DWORD PTR _shader$[ebp]
	mov	ecx, DWORD PTR [eax+628]
	push	ecx
	call	DWORD PTR ?pglUniform1iARB@@3P6GXHH@ZA	; pglUniform1iARB

; 1126 : 	pglUniform1iARB( shader->u_ColorMap, GL_TEXTURE1 );

	push	1
	mov	eax, DWORD PTR _shader$[ebp]
	mov	ecx, DWORD PTR [eax+588]
	push	ecx
	call	DWORD PTR ?pglUniform1iARB@@3P6GXHH@ZA	; pglUniform1iARB

; 1127 : 	GL_BindShader( GL_NONE );

	push	0
	call	?GL_BindShader@@YAXPAUglsl_prog_s@@@Z	; GL_BindShader
	add	esp, 4

; 1128 : 
; 1129 : 	GL_ValidateProgram( shader );

	mov	eax, DWORD PTR _shader$[ebp]
	push	eax
	call	?GL_ValidateProgram@@YAXPAUglsl_prog_s@@@Z ; GL_ValidateProgram
	add	esp, 4

; 1130 : 	GL_ShowProgramUniforms( shader );

	mov	eax, DWORD PTR _shader$[ebp]
	push	eax
	call	?GL_ShowProgramUniforms@@YAXPAUglsl_prog_s@@@Z ; GL_ShowProgramUniforms
	add	esp, 4

; 1131 : }

	pop	edi
	pop	esi
	pop	ebx
	mov	esp, ebp
	pop	ebp
	ret	0
?GL_InitStudioDecalUniforms@@YAXPAUglsl_prog_s@@@Z ENDP	; GL_InitStudioDecalUniforms
_TEXT	ENDS
; Function compile flags: /Odtp /ZI
; File d:\!diffusion 2020\source code 2022\client-server\client\render\r_shader.cpp
;	COMDAT ?GL_InitGenericDlightUniforms@@YAXPAUglsl_prog_s@@@Z
_TEXT	SEGMENT
_shader$ = 8						; size = 4
?GL_InitGenericDlightUniforms@@YAXPAUglsl_prog_s@@@Z PROC ; GL_InitGenericDlightUniforms, COMDAT

; 1090 : {

	push	ebp
	mov	ebp, esp
	sub	esp, 64					; 00000040H
	push	ebx
	push	esi
	push	edi

; 1091 : 	ASSERT( shader != NULL );

	cmp	DWORD PTR _shader$[ebp], 0
	jne	SHORT $LN2@GL_InitGen
	mov	eax, DWORD PTR ?__LINE__Var@?0??GL_InitGenericDlightUniforms@@YAXPAUglsl_prog_s@@@Z@4JA
	add	eax, 1
	push	eax
	push	OFFSET ??_C@_0EN@DPFBEFBL@d?3?2?$CBdiffusion?52020?2source?5code?52@
	push	OFFSET ??_C@_0BI@FECCGOFJ@assert?5failed?5at?5?$CFs?3?$CFi?6?$AA@
	call	DWORD PTR ?gRenderfuncs@@3Urender_api_s@@A+236
	add	esp, 12					; 0000000cH
$LN2@GL_InitGen:

; 1092 : 
; 1093 : 	shader->u_ColorMap = pglGetUniformLocationARB( shader->handle, "u_ColorMap" );

	push	OFFSET ??_C@_0L@IEDEJAAC@u_ColorMap?$AA@
	mov	eax, DWORD PTR _shader$[ebp]
	mov	ecx, DWORD PTR [eax+576]
	push	ecx
	call	DWORD PTR ?pglGetUniformLocationARB@@3P6GHIPBD@ZA ; pglGetUniformLocationARB
	mov	edx, DWORD PTR _shader$[ebp]
	mov	DWORD PTR [edx+588], eax

; 1094 : 	shader->u_ProjectMap = pglGetUniformLocationARB( shader->handle, "u_ProjectMap" );

	push	OFFSET ??_C@_0N@FKEMJKI@u_ProjectMap?$AA@
	mov	eax, DWORD PTR _shader$[ebp]
	mov	ecx, DWORD PTR [eax+576]
	push	ecx
	call	DWORD PTR ?pglGetUniformLocationARB@@3P6GHIPBD@ZA ; pglGetUniformLocationARB
	mov	edx, DWORD PTR _shader$[ebp]
	mov	DWORD PTR [edx+608], eax

; 1095 : 	shader->u_ShadowMap = pglGetUniformLocationARB( shader->handle, "u_ShadowMap" );

	push	OFFSET ??_C@_0M@LIKBOJOD@u_ShadowMap?$AA@
	mov	eax, DWORD PTR _shader$[ebp]
	mov	ecx, DWORD PTR [eax+576]
	push	ecx
	call	DWORD PTR ?pglGetUniformLocationARB@@3P6GHIPBD@ZA ; pglGetUniformLocationARB
	mov	edx, DWORD PTR _shader$[ebp]
	mov	DWORD PTR [edx+612], eax

; 1096 : 
; 1097 : 	shader->u_LightDir = pglGetUniformLocationARB( shader->handle, "u_LightDir" );

	push	OFFSET ??_C@_0L@EMINLLAG@u_LightDir?$AA@
	mov	eax, DWORD PTR _shader$[ebp]
	mov	ecx, DWORD PTR [eax+576]
	push	ecx
	call	DWORD PTR ?pglGetUniformLocationARB@@3P6GHIPBD@ZA ; pglGetUniformLocationARB
	mov	edx, DWORD PTR _shader$[ebp]
	mov	DWORD PTR [edx+744], eax

; 1098 : 	shader->u_LightDiffuse = pglGetUniformLocationARB( shader->handle, "u_LightDiffuse" );

	push	OFFSET ??_C@_0P@IBMOHOLF@u_LightDiffuse?$AA@
	mov	eax, DWORD PTR _shader$[ebp]
	mov	ecx, DWORD PTR [eax+576]
	push	ecx
	call	DWORD PTR ?pglGetUniformLocationARB@@3P6GHIPBD@ZA ; pglGetUniformLocationARB
	mov	edx, DWORD PTR _shader$[ebp]
	mov	DWORD PTR [edx+760], eax

; 1099 : 	shader->u_ShadowParams = pglGetUniformLocationARB( shader->handle, "u_ShadowParams" );

	push	OFFSET ??_C@_0P@DOIHPJNE@u_ShadowParams?$AA@
	mov	eax, DWORD PTR _shader$[ebp]
	mov	ecx, DWORD PTR [eax+576]
	push	ecx
	call	DWORD PTR ?pglGetUniformLocationARB@@3P6GHIPBD@ZA ; pglGetUniformLocationARB
	mov	edx, DWORD PTR _shader$[ebp]
	mov	DWORD PTR [edx+836], eax

; 1100 : 	shader->u_LightOrigin = pglGetUniformLocationARB( shader->handle, "u_LightOrigin" );

	push	OFFSET ??_C@_0O@PGBKINBN@u_LightOrigin?$AA@
	mov	eax, DWORD PTR _shader$[ebp]
	mov	ecx, DWORD PTR [eax+576]
	push	ecx
	call	DWORD PTR ?pglGetUniformLocationARB@@3P6GHIPBD@ZA ; pglGetUniformLocationARB
	mov	edx, DWORD PTR _shader$[ebp]
	mov	DWORD PTR [edx+792], eax

; 1101 : 	shader->u_LightViewProjectionMatrix = pglGetUniformLocationARB( shader->handle, "u_LightViewProjectionMatrix" );

	push	OFFSET ??_C@_0BM@OPAKJEIH@u_LightViewProjectionMatrix?$AA@
	mov	eax, DWORD PTR _shader$[ebp]
	mov	ecx, DWORD PTR [eax+576]
	push	ecx
	call	DWORD PTR ?pglGetUniformLocationARB@@3P6GHIPBD@ZA ; pglGetUniformLocationARB
	mov	edx, DWORD PTR _shader$[ebp]
	mov	DWORD PTR [edx+696], eax

; 1102 : 	shader->u_FogParams = pglGetUniformLocationARB( shader->handle, "u_FogParams" );

	push	OFFSET ??_C@_0M@LNDNBCGB@u_FogParams?$AA@
	mov	eax, DWORD PTR _shader$[ebp]
	mov	ecx, DWORD PTR [eax+576]
	push	ecx
	call	DWORD PTR ?pglGetUniformLocationARB@@3P6GHIPBD@ZA ; pglGetUniformLocationARB
	mov	edx, DWORD PTR _shader$[ebp]
	mov	DWORD PTR [edx+788], eax

; 1103 : 	shader->u_LightScale = pglGetUniformLocationARB( shader->handle, "u_LightScale" );

	push	OFFSET ??_C@_0N@EFGBPOFK@u_LightScale?$AA@
	mov	eax, DWORD PTR _shader$[ebp]
	mov	ecx, DWORD PTR [eax+576]
	push	ecx
	call	DWORD PTR ?pglGetUniformLocationARB@@3P6GHIPBD@ZA ; pglGetUniformLocationARB
	mov	edx, DWORD PTR _shader$[ebp]
	mov	DWORD PTR [edx+796], eax

; 1104 : 	shader->u_DynLightBrightness = pglGetUniformLocationARB( shader->handle, "u_DynLightBrightness" );

	push	OFFSET ??_C@_0BF@DEABILDM@u_DynLightBrightness?$AA@
	mov	eax, DWORD PTR _shader$[ebp]
	mov	ecx, DWORD PTR [eax+576]
	push	ecx
	call	DWORD PTR ?pglGetUniformLocationARB@@3P6GHIPBD@ZA ; pglGetUniformLocationARB
	mov	edx, DWORD PTR _shader$[ebp]
	mov	DWORD PTR [edx+912], eax

; 1105 : 
; 1106 : 	GL_BindShader( shader );

	mov	eax, DWORD PTR _shader$[ebp]
	push	eax
	call	?GL_BindShader@@YAXPAUglsl_prog_s@@@Z	; GL_BindShader
	add	esp, 4

; 1107 : 	pglUniform1iARB( shader->u_ColorMap, GL_TEXTURE0 );

	push	0
	mov	eax, DWORD PTR _shader$[ebp]
	mov	ecx, DWORD PTR [eax+588]
	push	ecx
	call	DWORD PTR ?pglUniform1iARB@@3P6GXHH@ZA	; pglUniform1iARB

; 1108 : 	pglUniform1iARB( shader->u_ProjectMap, GL_TEXTURE1 );

	push	1
	mov	eax, DWORD PTR _shader$[ebp]
	mov	ecx, DWORD PTR [eax+608]
	push	ecx
	call	DWORD PTR ?pglUniform1iARB@@3P6GXHH@ZA	; pglUniform1iARB

; 1109 : 	pglUniform1iARB( shader->u_ShadowMap, GL_TEXTURE2 ); // optional

	push	2
	mov	eax, DWORD PTR _shader$[ebp]
	mov	ecx, DWORD PTR [eax+612]
	push	ecx
	call	DWORD PTR ?pglUniform1iARB@@3P6GXHH@ZA	; pglUniform1iARB

; 1110 : 	GL_BindShader( GL_NONE );

	push	0
	call	?GL_BindShader@@YAXPAUglsl_prog_s@@@Z	; GL_BindShader
	add	esp, 4

; 1111 : 
; 1112 : 	GL_ValidateProgram( shader );

	mov	eax, DWORD PTR _shader$[ebp]
	push	eax
	call	?GL_ValidateProgram@@YAXPAUglsl_prog_s@@@Z ; GL_ValidateProgram
	add	esp, 4

; 1113 : 	GL_ShowProgramUniforms( shader );

	mov	eax, DWORD PTR _shader$[ebp]
	push	eax
	call	?GL_ShowProgramUniforms@@YAXPAUglsl_prog_s@@@Z ; GL_ShowProgramUniforms
	add	esp, 4

; 1114 : }

	pop	edi
	pop	esi
	pop	ebx
	mov	esp, ebp
	pop	ebp
	ret	0
?GL_InitGenericDlightUniforms@@YAXPAUglsl_prog_s@@@Z ENDP ; GL_InitGenericDlightUniforms
_TEXT	ENDS
; Function compile flags: /Odtp /ZI
; File d:\!diffusion 2020\source code 2022\client-server\client\render\r_shader.cpp
;	COMDAT ?GL_InitGrassDlightUniforms@@YAXPAUglsl_prog_s@@@Z
_TEXT	SEGMENT
_shader$ = 8						; size = 4
?GL_InitGrassDlightUniforms@@YAXPAUglsl_prog_s@@@Z PROC	; GL_InitGrassDlightUniforms, COMDAT

; 1058 : {

	push	ebp
	mov	ebp, esp
	sub	esp, 64					; 00000040H
	push	ebx
	push	esi
	push	edi

; 1059 : 	ASSERT( shader != NULL );

	cmp	DWORD PTR _shader$[ebp], 0
	jne	SHORT $LN2@GL_InitGra
	mov	eax, DWORD PTR ?__LINE__Var@?0??GL_InitGrassDlightUniforms@@YAXPAUglsl_prog_s@@@Z@4JA
	add	eax, 1
	push	eax
	push	OFFSET ??_C@_0EN@DPFBEFBL@d?3?2?$CBdiffusion?52020?2source?5code?52@
	push	OFFSET ??_C@_0BI@FECCGOFJ@assert?5failed?5at?5?$CFs?3?$CFi?6?$AA@
	call	DWORD PTR ?gRenderfuncs@@3Urender_api_s@@A+236
	add	esp, 12					; 0000000cH
$LN2@GL_InitGra:

; 1060 : 
; 1061 : 	shader->u_ColorMap = pglGetUniformLocationARB( shader->handle, "u_ColorMap" );

	push	OFFSET ??_C@_0L@IEDEJAAC@u_ColorMap?$AA@
	mov	eax, DWORD PTR _shader$[ebp]
	mov	ecx, DWORD PTR [eax+576]
	push	ecx
	call	DWORD PTR ?pglGetUniformLocationARB@@3P6GHIPBD@ZA ; pglGetUniformLocationARB
	mov	edx, DWORD PTR _shader$[ebp]
	mov	DWORD PTR [edx+588], eax

; 1062 : 	shader->u_ProjectMap = pglGetUniformLocationARB( shader->handle, "u_ProjectMap" );

	push	OFFSET ??_C@_0N@FKEMJKI@u_ProjectMap?$AA@
	mov	eax, DWORD PTR _shader$[ebp]
	mov	ecx, DWORD PTR [eax+576]
	push	ecx
	call	DWORD PTR ?pglGetUniformLocationARB@@3P6GHIPBD@ZA ; pglGetUniformLocationARB
	mov	edx, DWORD PTR _shader$[ebp]
	mov	DWORD PTR [edx+608], eax

; 1063 : 	shader->u_ShadowMap = pglGetUniformLocationARB( shader->handle, "u_ShadowMap" );

	push	OFFSET ??_C@_0M@LIKBOJOD@u_ShadowMap?$AA@
	mov	eax, DWORD PTR _shader$[ebp]
	mov	ecx, DWORD PTR [eax+576]
	push	ecx
	call	DWORD PTR ?pglGetUniformLocationARB@@3P6GHIPBD@ZA ; pglGetUniformLocationARB
	mov	edx, DWORD PTR _shader$[ebp]
	mov	DWORD PTR [edx+612], eax

; 1064 : 
; 1065 : 	shader->u_LightViewProjectionMatrix = pglGetUniformLocationARB( shader->handle, "u_LightViewProjectionMatrix" );

	push	OFFSET ??_C@_0BM@OPAKJEIH@u_LightViewProjectionMatrix?$AA@
	mov	eax, DWORD PTR _shader$[ebp]
	mov	ecx, DWORD PTR [eax+576]
	push	ecx
	call	DWORD PTR ?pglGetUniformLocationARB@@3P6GHIPBD@ZA ; pglGetUniformLocationARB
	mov	edx, DWORD PTR _shader$[ebp]
	mov	DWORD PTR [edx+696], eax

; 1066 : 	shader->u_ShadowParams = pglGetUniformLocationARB( shader->handle, "u_ShadowParams" );

	push	OFFSET ??_C@_0P@DOIHPJNE@u_ShadowParams?$AA@
	mov	eax, DWORD PTR _shader$[ebp]
	mov	ecx, DWORD PTR [eax+576]
	push	ecx
	call	DWORD PTR ?pglGetUniformLocationARB@@3P6GHIPBD@ZA ; pglGetUniformLocationARB
	mov	edx, DWORD PTR _shader$[ebp]
	mov	DWORD PTR [edx+836], eax

; 1067 : 	shader->u_LightDiffuse = pglGetUniformLocationARB( shader->handle, "u_LightDiffuse" );

	push	OFFSET ??_C@_0P@IBMOHOLF@u_LightDiffuse?$AA@
	mov	eax, DWORD PTR _shader$[ebp]
	mov	ecx, DWORD PTR [eax+576]
	push	ecx
	call	DWORD PTR ?pglGetUniformLocationARB@@3P6GHIPBD@ZA ; pglGetUniformLocationARB
	mov	edx, DWORD PTR _shader$[ebp]
	mov	DWORD PTR [edx+760], eax

; 1068 : 	shader->u_LightOrigin = pglGetUniformLocationARB( shader->handle, "u_LightOrigin" );

	push	OFFSET ??_C@_0O@PGBKINBN@u_LightOrigin?$AA@
	mov	eax, DWORD PTR _shader$[ebp]
	mov	ecx, DWORD PTR [eax+576]
	push	ecx
	call	DWORD PTR ?pglGetUniformLocationARB@@3P6GHIPBD@ZA ; pglGetUniformLocationARB
	mov	edx, DWORD PTR _shader$[ebp]
	mov	DWORD PTR [edx+792], eax

; 1069 : 	shader->u_LightDir = pglGetUniformLocationARB( shader->handle, "u_LightDir" );

	push	OFFSET ??_C@_0L@EMINLLAG@u_LightDir?$AA@
	mov	eax, DWORD PTR _shader$[ebp]
	mov	ecx, DWORD PTR [eax+576]
	push	ecx
	call	DWORD PTR ?pglGetUniformLocationARB@@3P6GHIPBD@ZA ; pglGetUniformLocationARB
	mov	edx, DWORD PTR _shader$[ebp]
	mov	DWORD PTR [edx+744], eax

; 1070 : 	shader->u_ViewOrigin = pglGetUniformLocationARB( shader->handle, "u_ViewOrigin" );

	push	OFFSET ??_C@_0N@GOCFBCHC@u_ViewOrigin?$AA@
	mov	eax, DWORD PTR _shader$[ebp]
	mov	ecx, DWORD PTR [eax+576]
	push	ecx
	call	DWORD PTR ?pglGetUniformLocationARB@@3P6GHIPBD@ZA ; pglGetUniformLocationARB
	mov	edx, DWORD PTR _shader$[ebp]
	mov	DWORD PTR [edx+800], eax

; 1071 : 	shader->u_ModelMatrix = pglGetUniformLocationARB( shader->handle, "u_ModelMatrix" );

	push	OFFSET ??_C@_0O@MBNOFNKO@u_ModelMatrix?$AA@
	mov	eax, DWORD PTR _shader$[ebp]
	mov	ecx, DWORD PTR [eax+576]
	push	ecx
	call	DWORD PTR ?pglGetUniformLocationARB@@3P6GHIPBD@ZA ; pglGetUniformLocationARB
	mov	edx, DWORD PTR _shader$[ebp]
	mov	DWORD PTR [edx+688], eax

; 1072 : 	shader->u_GrassFadeStart = pglGetUniformLocationARB( shader->handle, "u_GrassFadeStart" );

	push	OFFSET ??_C@_0BB@BBFEGHLO@u_GrassFadeStart?$AA@
	mov	eax, DWORD PTR _shader$[ebp]
	mov	ecx, DWORD PTR [eax+576]
	push	ecx
	call	DWORD PTR ?pglGetUniformLocationARB@@3P6GHIPBD@ZA ; pglGetUniformLocationARB
	mov	edx, DWORD PTR _shader$[ebp]
	mov	DWORD PTR [edx+888], eax

; 1073 : 	shader->u_GrassFadeDist = pglGetUniformLocationARB( shader->handle, "u_GrassFadeDist" );

	push	OFFSET ??_C@_0BA@DLEPEDLG@u_GrassFadeDist?$AA@
	mov	eax, DWORD PTR _shader$[ebp]
	mov	ecx, DWORD PTR [eax+576]
	push	ecx
	call	DWORD PTR ?pglGetUniformLocationARB@@3P6GHIPBD@ZA ; pglGetUniformLocationARB
	mov	edx, DWORD PTR _shader$[ebp]
	mov	DWORD PTR [edx+892], eax

; 1074 : 	shader->u_GrassFadeEnd = pglGetUniformLocationARB( shader->handle, "u_GrassFadeEnd" );

	push	OFFSET ??_C@_0P@MOHLDOHD@u_GrassFadeEnd?$AA@
	mov	eax, DWORD PTR _shader$[ebp]
	mov	ecx, DWORD PTR [eax+576]
	push	ecx
	call	DWORD PTR ?pglGetUniformLocationARB@@3P6GHIPBD@ZA ; pglGetUniformLocationARB
	mov	edx, DWORD PTR _shader$[ebp]
	mov	DWORD PTR [edx+896], eax

; 1075 : 	shader->u_RealTime = pglGetUniformLocationARB( shader->handle, "u_RealTime" );

	push	OFFSET ??_C@_0L@BGHCDECL@u_RealTime?$AA@
	mov	eax, DWORD PTR _shader$[ebp]
	mov	ecx, DWORD PTR [eax+576]
	push	ecx
	call	DWORD PTR ?pglGetUniformLocationARB@@3P6GHIPBD@ZA ; pglGetUniformLocationARB
	mov	edx, DWORD PTR _shader$[ebp]
	mov	DWORD PTR [edx+868], eax

; 1076 : 	shader->u_FogParams = pglGetUniformLocationARB( shader->handle, "u_FogParams" );

	push	OFFSET ??_C@_0M@LNDNBCGB@u_FogParams?$AA@
	mov	eax, DWORD PTR _shader$[ebp]
	mov	ecx, DWORD PTR [eax+576]
	push	ecx
	call	DWORD PTR ?pglGetUniformLocationARB@@3P6GHIPBD@ZA ; pglGetUniformLocationARB
	mov	edx, DWORD PTR _shader$[ebp]
	mov	DWORD PTR [edx+788], eax

; 1077 : 	shader->u_DynLightBrightness = pglGetUniformLocationARB( shader->handle, "u_DynLightBrightness" );

	push	OFFSET ??_C@_0BF@DEABILDM@u_DynLightBrightness?$AA@
	mov	eax, DWORD PTR _shader$[ebp]
	mov	ecx, DWORD PTR [eax+576]
	push	ecx
	call	DWORD PTR ?pglGetUniformLocationARB@@3P6GHIPBD@ZA ; pglGetUniformLocationARB
	mov	edx, DWORD PTR _shader$[ebp]
	mov	DWORD PTR [edx+912], eax

; 1078 : 
; 1079 : 	GL_BindShader( shader );

	mov	eax, DWORD PTR _shader$[ebp]
	push	eax
	call	?GL_BindShader@@YAXPAUglsl_prog_s@@@Z	; GL_BindShader
	add	esp, 4

; 1080 : 	pglUniform1iARB( shader->u_ColorMap, GL_TEXTURE0 );

	push	0
	mov	eax, DWORD PTR _shader$[ebp]
	mov	ecx, DWORD PTR [eax+588]
	push	ecx
	call	DWORD PTR ?pglUniform1iARB@@3P6GXHH@ZA	; pglUniform1iARB

; 1081 : 	pglUniform1iARB( shader->u_ProjectMap, GL_TEXTURE1 );// projection texture or XY attenuation

	push	1
	mov	eax, DWORD PTR _shader$[ebp]
	mov	ecx, DWORD PTR [eax+608]
	push	ecx
	call	DWORD PTR ?pglUniform1iARB@@3P6GXHH@ZA	; pglUniform1iARB

; 1082 : 	pglUniform1iARB( shader->u_ShadowMap, GL_TEXTURE2 ); // shadowmap or cubemap

	push	2
	mov	eax, DWORD PTR _shader$[ebp]
	mov	ecx, DWORD PTR [eax+612]
	push	ecx
	call	DWORD PTR ?pglUniform1iARB@@3P6GXHH@ZA	; pglUniform1iARB

; 1083 : 	GL_BindShader( GL_NONE );

	push	0
	call	?GL_BindShader@@YAXPAUglsl_prog_s@@@Z	; GL_BindShader
	add	esp, 4

; 1084 : 
; 1085 : 	GL_ValidateProgram( shader );

	mov	eax, DWORD PTR _shader$[ebp]
	push	eax
	call	?GL_ValidateProgram@@YAXPAUglsl_prog_s@@@Z ; GL_ValidateProgram
	add	esp, 4

; 1086 : 	GL_ShowProgramUniforms( shader );

	mov	eax, DWORD PTR _shader$[ebp]
	push	eax
	call	?GL_ShowProgramUniforms@@YAXPAUglsl_prog_s@@@Z ; GL_ShowProgramUniforms
	add	esp, 4

; 1087 : }

	pop	edi
	pop	esi
	pop	ebx
	mov	esp, ebp
	pop	ebp
	ret	0
?GL_InitGrassDlightUniforms@@YAXPAUglsl_prog_s@@@Z ENDP	; GL_InitGrassDlightUniforms
_TEXT	ENDS
; Function compile flags: /Odtp /ZI
; File d:\!diffusion 2020\source code 2022\client-server\client\render\r_shader.cpp
;	COMDAT ?GL_InitGrassSolidUniforms@@YAXPAUglsl_prog_s@@@Z
_TEXT	SEGMENT
_shader$ = 8						; size = 4
?GL_InitGrassSolidUniforms@@YAXPAUglsl_prog_s@@@Z PROC	; GL_InitGrassSolidUniforms, COMDAT

; 1034 : {

	push	ebp
	mov	ebp, esp
	sub	esp, 64					; 00000040H
	push	ebx
	push	esi
	push	edi

; 1035 : 	ASSERT( shader != NULL );

	cmp	DWORD PTR _shader$[ebp], 0
	jne	SHORT $LN2@GL_InitGra
	mov	eax, DWORD PTR ?__LINE__Var@?0??GL_InitGrassSolidUniforms@@YAXPAUglsl_prog_s@@@Z@4JA
	add	eax, 1
	push	eax
	push	OFFSET ??_C@_0EN@DPFBEFBL@d?3?2?$CBdiffusion?52020?2source?5code?52@
	push	OFFSET ??_C@_0BI@FECCGOFJ@assert?5failed?5at?5?$CFs?3?$CFi?6?$AA@
	call	DWORD PTR ?gRenderfuncs@@3Urender_api_s@@A+236
	add	esp, 12					; 0000000cH
$LN2@GL_InitGra:

; 1036 : 
; 1037 : 	shader->u_ColorMap = pglGetUniformLocationARB( shader->handle, "u_ColorMap" );

	push	OFFSET ??_C@_0L@IEDEJAAC@u_ColorMap?$AA@
	mov	eax, DWORD PTR _shader$[ebp]
	mov	ecx, DWORD PTR [eax+576]
	push	ecx
	call	DWORD PTR ?pglGetUniformLocationARB@@3P6GHIPBD@ZA ; pglGetUniformLocationARB
	mov	edx, DWORD PTR _shader$[ebp]
	mov	DWORD PTR [edx+588], eax

; 1038 : 
; 1039 : 	shader->u_ModelMatrix = pglGetUniformLocationARB( shader->handle, "u_ModelMatrix" );

	push	OFFSET ??_C@_0O@MBNOFNKO@u_ModelMatrix?$AA@
	mov	eax, DWORD PTR _shader$[ebp]
	mov	ecx, DWORD PTR [eax+576]
	push	ecx
	call	DWORD PTR ?pglGetUniformLocationARB@@3P6GHIPBD@ZA ; pglGetUniformLocationARB
	mov	edx, DWORD PTR _shader$[ebp]
	mov	DWORD PTR [edx+688], eax

; 1040 : 	shader->u_LightStyleValues = pglGetUniformLocationARB( shader->handle, "u_LightStyleValues" );

	push	OFFSET ??_C@_0BD@NFOOODNK@u_LightStyleValues?$AA@
	mov	eax, DWORD PTR _shader$[ebp]
	mov	ecx, DWORD PTR [eax+576]
	push	ecx
	call	DWORD PTR ?pglGetUniformLocationARB@@3P6GHIPBD@ZA ; pglGetUniformLocationARB
	mov	edx, DWORD PTR _shader$[ebp]
	mov	DWORD PTR [edx+768], eax

; 1041 : 	shader->u_GammaTable = pglGetUniformLocationARB( shader->handle, "u_GammaTable" );

	push	OFFSET ??_C@_0N@OIMPMCEP@u_GammaTable?$AA@
	mov	eax, DWORD PTR _shader$[ebp]
	mov	ecx, DWORD PTR [eax+576]
	push	ecx
	call	DWORD PTR ?pglGetUniformLocationARB@@3P6GHIPBD@ZA ; pglGetUniformLocationARB
	mov	edx, DWORD PTR _shader$[ebp]
	mov	DWORD PTR [edx+680], eax

; 1042 : 	shader->u_GrassFadeStart = pglGetUniformLocationARB( shader->handle, "u_GrassFadeStart" );

	push	OFFSET ??_C@_0BB@BBFEGHLO@u_GrassFadeStart?$AA@
	mov	eax, DWORD PTR _shader$[ebp]
	mov	ecx, DWORD PTR [eax+576]
	push	ecx
	call	DWORD PTR ?pglGetUniformLocationARB@@3P6GHIPBD@ZA ; pglGetUniformLocationARB
	mov	edx, DWORD PTR _shader$[ebp]
	mov	DWORD PTR [edx+888], eax

; 1043 : 	shader->u_GrassFadeDist = pglGetUniformLocationARB( shader->handle, "u_GrassFadeDist" );

	push	OFFSET ??_C@_0BA@DLEPEDLG@u_GrassFadeDist?$AA@
	mov	eax, DWORD PTR _shader$[ebp]
	mov	ecx, DWORD PTR [eax+576]
	push	ecx
	call	DWORD PTR ?pglGetUniformLocationARB@@3P6GHIPBD@ZA ; pglGetUniformLocationARB
	mov	edx, DWORD PTR _shader$[ebp]
	mov	DWORD PTR [edx+892], eax

; 1044 : 	shader->u_GrassFadeEnd = pglGetUniformLocationARB( shader->handle, "u_GrassFadeEnd" );

	push	OFFSET ??_C@_0P@MOHLDOHD@u_GrassFadeEnd?$AA@
	mov	eax, DWORD PTR _shader$[ebp]
	mov	ecx, DWORD PTR [eax+576]
	push	ecx
	call	DWORD PTR ?pglGetUniformLocationARB@@3P6GHIPBD@ZA ; pglGetUniformLocationARB
	mov	edx, DWORD PTR _shader$[ebp]
	mov	DWORD PTR [edx+896], eax

; 1045 : 	shader->u_ViewOrigin = pglGetUniformLocationARB( shader->handle, "u_ViewOrigin" );

	push	OFFSET ??_C@_0N@GOCFBCHC@u_ViewOrigin?$AA@
	mov	eax, DWORD PTR _shader$[ebp]
	mov	ecx, DWORD PTR [eax+576]
	push	ecx
	call	DWORD PTR ?pglGetUniformLocationARB@@3P6GHIPBD@ZA ; pglGetUniformLocationARB
	mov	edx, DWORD PTR _shader$[ebp]
	mov	DWORD PTR [edx+800], eax

; 1046 : 	shader->u_RealTime = pglGetUniformLocationARB( shader->handle, "u_RealTime" );

	push	OFFSET ??_C@_0L@BGHCDECL@u_RealTime?$AA@
	mov	eax, DWORD PTR _shader$[ebp]
	mov	ecx, DWORD PTR [eax+576]
	push	ecx
	call	DWORD PTR ?pglGetUniformLocationARB@@3P6GHIPBD@ZA ; pglGetUniformLocationARB
	mov	edx, DWORD PTR _shader$[ebp]
	mov	DWORD PTR [edx+868], eax

; 1047 : 	shader->u_FogParams = pglGetUniformLocationARB( shader->handle, "u_FogParams" );

	push	OFFSET ??_C@_0M@LNDNBCGB@u_FogParams?$AA@
	mov	eax, DWORD PTR _shader$[ebp]
	mov	ecx, DWORD PTR [eax+576]
	push	ecx
	call	DWORD PTR ?pglGetUniformLocationARB@@3P6GHIPBD@ZA ; pglGetUniformLocationARB
	mov	edx, DWORD PTR _shader$[ebp]
	mov	DWORD PTR [edx+788], eax

; 1048 : 
; 1049 : 	GL_BindShader( shader );

	mov	eax, DWORD PTR _shader$[ebp]
	push	eax
	call	?GL_BindShader@@YAXPAUglsl_prog_s@@@Z	; GL_BindShader
	add	esp, 4

; 1050 : 	pglUniform1iARB( shader->u_ColorMap, GL_TEXTURE0 );

	push	0
	mov	eax, DWORD PTR _shader$[ebp]
	mov	ecx, DWORD PTR [eax+588]
	push	ecx
	call	DWORD PTR ?pglUniform1iARB@@3P6GXHH@ZA	; pglUniform1iARB

; 1051 : 	GL_BindShader( GL_NONE );

	push	0
	call	?GL_BindShader@@YAXPAUglsl_prog_s@@@Z	; GL_BindShader
	add	esp, 4

; 1052 : 
; 1053 : 	GL_ValidateProgram( shader );

	mov	eax, DWORD PTR _shader$[ebp]
	push	eax
	call	?GL_ValidateProgram@@YAXPAUglsl_prog_s@@@Z ; GL_ValidateProgram
	add	esp, 4

; 1054 : 	GL_ShowProgramUniforms( shader );

	mov	eax, DWORD PTR _shader$[ebp]
	push	eax
	call	?GL_ShowProgramUniforms@@YAXPAUglsl_prog_s@@@Z ; GL_ShowProgramUniforms
	add	esp, 4

; 1055 : }

	pop	edi
	pop	esi
	pop	ebx
	mov	esp, ebp
	pop	ebp
	ret	0
?GL_InitGrassSolidUniforms@@YAXPAUglsl_prog_s@@@Z ENDP	; GL_InitGrassSolidUniforms
_TEXT	ENDS
; Function compile flags: /Odtp /ZI
; File d:\!diffusion 2020\source code 2022\client-server\client\render\r_shader.cpp
;	COMDAT ?GL_InitStudioDepthFillUniforms@@YAXPAUglsl_prog_s@@@Z
_TEXT	SEGMENT
_shader$ = 8						; size = 4
?GL_InitStudioDepthFillUniforms@@YAXPAUglsl_prog_s@@@Z PROC ; GL_InitStudioDepthFillUniforms, COMDAT

; 1016 : {

	push	ebp
	mov	ebp, esp
	sub	esp, 64					; 00000040H
	push	ebx
	push	esi
	push	edi

; 1017 : 	ASSERT( shader != NULL );

	cmp	DWORD PTR _shader$[ebp], 0
	jne	SHORT $LN2@GL_InitStu
	mov	eax, DWORD PTR ?__LINE__Var@?0??GL_InitStudioDepthFillUniforms@@YAXPAUglsl_prog_s@@@Z@4JA
	add	eax, 1
	push	eax
	push	OFFSET ??_C@_0EN@DPFBEFBL@d?3?2?$CBdiffusion?52020?2source?5code?52@
	push	OFFSET ??_C@_0BI@FECCGOFJ@assert?5failed?5at?5?$CFs?3?$CFi?6?$AA@
	call	DWORD PTR ?gRenderfuncs@@3Urender_api_s@@A+236
	add	esp, 12					; 0000000cH
$LN2@GL_InitStu:

; 1018 : 
; 1019 : 	shader->u_ColorMap = pglGetUniformLocationARB( shader->handle, "u_ColorMap" );

	push	OFFSET ??_C@_0L@IEDEJAAC@u_ColorMap?$AA@
	mov	eax, DWORD PTR _shader$[ebp]
	mov	ecx, DWORD PTR [eax+576]
	push	ecx
	call	DWORD PTR ?pglGetUniformLocationARB@@3P6GHIPBD@ZA ; pglGetUniformLocationARB
	mov	edx, DWORD PTR _shader$[ebp]
	mov	DWORD PTR [edx+588], eax

; 1020 : 
; 1021 : 	shader->u_BoneQuaternion = pglGetUniformLocationARB( shader->handle, "u_BoneQuaternion" );

	push	OFFSET ??_C@_0BB@JBIGINIK@u_BoneQuaternion?$AA@
	mov	eax, DWORD PTR _shader$[ebp]
	mov	ecx, DWORD PTR [eax+576]
	push	ecx
	call	DWORD PTR ?pglGetUniformLocationARB@@3P6GHIPBD@ZA ; pglGetUniformLocationARB
	mov	edx, DWORD PTR _shader$[ebp]
	mov	DWORD PTR [edx+672], eax

; 1022 : 	shader->u_BonePosition = pglGetUniformLocationARB( shader->handle, "u_BonePosition" );

	push	OFFSET ??_C@_0P@KFHIBBDA@u_BonePosition?$AA@
	mov	eax, DWORD PTR _shader$[ebp]
	mov	ecx, DWORD PTR [eax+576]
	push	ecx
	call	DWORD PTR ?pglGetUniformLocationARB@@3P6GHIPBD@ZA ; pglGetUniformLocationARB
	mov	edx, DWORD PTR _shader$[ebp]
	mov	DWORD PTR [edx+676], eax

; 1023 : 	shader->u_MeshScale = pglGetUniformLocationARB( shader->handle, "u_MeshScale" );

	push	OFFSET ??_C@_0M@LKOGHAJI@u_MeshScale?$AA@
	mov	eax, DWORD PTR _shader$[ebp]
	mov	ecx, DWORD PTR [eax+576]
	push	ecx
	call	DWORD PTR ?pglGetUniformLocationARB@@3P6GHIPBD@ZA ; pglGetUniformLocationARB
	mov	edx, DWORD PTR _shader$[ebp]
	mov	DWORD PTR [edx+900], eax

; 1024 : 
; 1025 : 	GL_BindShader( shader );

	mov	eax, DWORD PTR _shader$[ebp]
	push	eax
	call	?GL_BindShader@@YAXPAUglsl_prog_s@@@Z	; GL_BindShader
	add	esp, 4

; 1026 : 	pglUniform1iARB( shader->u_ColorMap, GL_TEXTURE0 );

	push	0
	mov	eax, DWORD PTR _shader$[ebp]
	mov	ecx, DWORD PTR [eax+588]
	push	ecx
	call	DWORD PTR ?pglUniform1iARB@@3P6GXHH@ZA	; pglUniform1iARB

; 1027 : 	GL_BindShader( GL_NONE );

	push	0
	call	?GL_BindShader@@YAXPAUglsl_prog_s@@@Z	; GL_BindShader
	add	esp, 4

; 1028 : 
; 1029 : 	GL_ValidateProgram( shader );

	mov	eax, DWORD PTR _shader$[ebp]
	push	eax
	call	?GL_ValidateProgram@@YAXPAUglsl_prog_s@@@Z ; GL_ValidateProgram
	add	esp, 4

; 1030 : 	GL_ShowProgramUniforms( shader );

	mov	eax, DWORD PTR _shader$[ebp]
	push	eax
	call	?GL_ShowProgramUniforms@@YAXPAUglsl_prog_s@@@Z ; GL_ShowProgramUniforms
	add	esp, 4

; 1031 : }

	pop	edi
	pop	esi
	pop	ebx
	mov	esp, ebp
	pop	ebp
	ret	0
?GL_InitStudioDepthFillUniforms@@YAXPAUglsl_prog_s@@@Z ENDP ; GL_InitStudioDepthFillUniforms
_TEXT	ENDS
; Function compile flags: /Odtp /ZI
; File d:\!diffusion 2020\source code 2022\client-server\client\render\r_shader.cpp
;	COMDAT ?GL_InitStudioDlightUniforms@@YAXPAUglsl_prog_s@@@Z
_TEXT	SEGMENT
_shader$ = 8						; size = 4
?GL_InitStudioDlightUniforms@@YAXPAUglsl_prog_s@@@Z PROC ; GL_InitStudioDlightUniforms, COMDAT

; 961  : {

	push	ebp
	mov	ebp, esp
	sub	esp, 64					; 00000040H
	push	ebx
	push	esi
	push	edi

; 962  : 	ASSERT( shader != NULL );

	cmp	DWORD PTR _shader$[ebp], 0
	jne	SHORT $LN2@GL_InitStu
	mov	eax, DWORD PTR ?__LINE__Var@?0??GL_InitStudioDlightUniforms@@YAXPAUglsl_prog_s@@@Z@4JA
	add	eax, 1
	push	eax
	push	OFFSET ??_C@_0EN@DPFBEFBL@d?3?2?$CBdiffusion?52020?2source?5code?52@
	push	OFFSET ??_C@_0BI@FECCGOFJ@assert?5failed?5at?5?$CFs?3?$CFi?6?$AA@
	call	DWORD PTR ?gRenderfuncs@@3Urender_api_s@@A+236
	add	esp, 12					; 0000000cH
$LN2@GL_InitStu:

; 963  : 
; 964  : 	shader->u_ColorMap = pglGetUniformLocationARB( shader->handle, "u_ColorMap" );

	push	OFFSET ??_C@_0L@IEDEJAAC@u_ColorMap?$AA@
	mov	eax, DWORD PTR _shader$[ebp]
	mov	ecx, DWORD PTR [eax+576]
	push	ecx
	call	DWORD PTR ?pglGetUniformLocationARB@@3P6GHIPBD@ZA ; pglGetUniformLocationARB
	mov	edx, DWORD PTR _shader$[ebp]
	mov	DWORD PTR [edx+588], eax

; 965  : 	shader->u_ProjectMap = pglGetUniformLocationARB( shader->handle, "u_ProjectMap" );

	push	OFFSET ??_C@_0N@FKEMJKI@u_ProjectMap?$AA@
	mov	eax, DWORD PTR _shader$[ebp]
	mov	ecx, DWORD PTR [eax+576]
	push	ecx
	call	DWORD PTR ?pglGetUniformLocationARB@@3P6GHIPBD@ZA ; pglGetUniformLocationARB
	mov	edx, DWORD PTR _shader$[ebp]
	mov	DWORD PTR [edx+608], eax

; 966  : 	shader->u_ShadowMap = pglGetUniformLocationARB( shader->handle, "u_ShadowMap" );

	push	OFFSET ??_C@_0M@LIKBOJOD@u_ShadowMap?$AA@
	mov	eax, DWORD PTR _shader$[ebp]
	mov	ecx, DWORD PTR [eax+576]
	push	ecx
	call	DWORD PTR ?pglGetUniformLocationARB@@3P6GHIPBD@ZA ; pglGetUniformLocationARB
	mov	edx, DWORD PTR _shader$[ebp]
	mov	DWORD PTR [edx+612], eax

; 967  : 	shader->u_BoneQuaternion = pglGetUniformLocationARB( shader->handle, "u_BoneQuaternion" );

	push	OFFSET ??_C@_0BB@JBIGINIK@u_BoneQuaternion?$AA@
	mov	eax, DWORD PTR _shader$[ebp]
	mov	ecx, DWORD PTR [eax+576]
	push	ecx
	call	DWORD PTR ?pglGetUniformLocationARB@@3P6GHIPBD@ZA ; pglGetUniformLocationARB
	mov	edx, DWORD PTR _shader$[ebp]
	mov	DWORD PTR [edx+672], eax

; 968  : 	shader->u_BonePosition = pglGetUniformLocationARB( shader->handle, "u_BonePosition" );

	push	OFFSET ??_C@_0P@KFHIBBDA@u_BonePosition?$AA@
	mov	eax, DWORD PTR _shader$[ebp]
	mov	ecx, DWORD PTR [eax+576]
	push	ecx
	call	DWORD PTR ?pglGetUniformLocationARB@@3P6GHIPBD@ZA ; pglGetUniformLocationARB
	mov	edx, DWORD PTR _shader$[ebp]
	mov	DWORD PTR [edx+676], eax

; 969  : //	shader->u_BonesArray = pglGetUniformLocationARB( shader->handle, "u_BonesArray" );
; 970  : 	shader->u_MeshScale = pglGetUniformLocationARB( shader->handle, "u_MeshScale" );

	push	OFFSET ??_C@_0M@LKOGHAJI@u_MeshScale?$AA@
	mov	eax, DWORD PTR _shader$[ebp]
	mov	ecx, DWORD PTR [eax+576]
	push	ecx
	call	DWORD PTR ?pglGetUniformLocationARB@@3P6GHIPBD@ZA ; pglGetUniformLocationARB
	mov	edx, DWORD PTR _shader$[ebp]
	mov	DWORD PTR [edx+900], eax

; 971  : 	shader->u_DynLightBrightness = pglGetUniformLocationARB( shader->handle, "u_DynLightBrightness" );

	push	OFFSET ??_C@_0BF@DEABILDM@u_DynLightBrightness?$AA@
	mov	eax, DWORD PTR _shader$[ebp]
	mov	ecx, DWORD PTR [eax+576]
	push	ecx
	call	DWORD PTR ?pglGetUniformLocationARB@@3P6GHIPBD@ZA ; pglGetUniformLocationARB
	mov	edx, DWORD PTR _shader$[ebp]
	mov	DWORD PTR [edx+912], eax

; 972  : 	shader->u_MeshAngles = pglGetUniformLocationARB( shader->handle, "u_MeshAngles" );

	push	OFFSET ??_C@_0N@DJODLMKK@u_MeshAngles?$AA@
	mov	eax, DWORD PTR _shader$[ebp]
	mov	ecx, DWORD PTR [eax+576]
	push	ecx
	call	DWORD PTR ?pglGetUniformLocationARB@@3P6GHIPBD@ZA ; pglGetUniformLocationARB
	mov	edx, DWORD PTR _shader$[ebp]
	mov	DWORD PTR [edx+908], eax

; 973  : 	shader->u_RenderColor = pglGetUniformLocationARB( shader->handle, "u_RenderColor" );

	push	OFFSET ??_C@_0O@PDAILIH@u_RenderColor?$AA@
	mov	eax, DWORD PTR _shader$[ebp]
	mov	ecx, DWORD PTR [eax+576]
	push	ecx
	call	DWORD PTR ?pglGetUniformLocationARB@@3P6GHIPBD@ZA ; pglGetUniformLocationARB
	mov	edx, DWORD PTR _shader$[ebp]
	mov	DWORD PTR [edx+864], eax

; 974  : 	shader->u_GlossScale = pglGetUniformLocationARB( shader->handle, "u_GlossScale" );

	push	OFFSET ??_C@_0N@NPMHADLB@u_GlossScale?$AA@
	mov	eax, DWORD PTR _shader$[ebp]
	mov	ecx, DWORD PTR [eax+576]
	push	ecx
	call	DWORD PTR ?pglGetUniformLocationARB@@3P6GHIPBD@ZA ; pglGetUniformLocationARB
	mov	edx, DWORD PTR _shader$[ebp]
	mov	DWORD PTR [edx+916], eax

; 975  : 	shader->u_GlossSmoothness = pglGetUniformLocationARB( shader->handle, "u_GlossSmoothness" );

	push	OFFSET ??_C@_0BC@KIIHBDPB@u_GlossSmoothness?$AA@
	mov	eax, DWORD PTR _shader$[ebp]
	mov	ecx, DWORD PTR [eax+576]
	push	ecx
	call	DWORD PTR ?pglGetUniformLocationARB@@3P6GHIPBD@ZA ; pglGetUniformLocationARB
	mov	edx, DWORD PTR _shader$[ebp]
	mov	DWORD PTR [edx+920], eax

; 976  : 	shader->u_EmbossScale = pglGetUniformLocationARB( shader->handle, "u_EmbossScale" );

	push	OFFSET ??_C@_0O@HKDACOHC@u_EmbossScale?$AA@
	mov	eax, DWORD PTR _shader$[ebp]
	mov	ecx, DWORD PTR [eax+576]
	push	ecx
	call	DWORD PTR ?pglGetUniformLocationARB@@3P6GHIPBD@ZA ; pglGetUniformLocationARB
	mov	edx, DWORD PTR _shader$[ebp]
	mov	DWORD PTR [edx+924], eax

; 977  : 	shader->u_NormalMap = pglGetUniformLocationARB( shader->handle, "u_NormalMap" );

	push	OFFSET ??_C@_0M@EEAGDKIK@u_NormalMap?$AA@
	mov	eax, DWORD PTR _shader$[ebp]
	mov	ecx, DWORD PTR [eax+576]
	push	ecx
	call	DWORD PTR ?pglGetUniformLocationARB@@3P6GHIPBD@ZA ; pglGetUniformLocationARB
	mov	edx, DWORD PTR _shader$[ebp]
	mov	DWORD PTR [edx+596], eax

; 978  : 	shader->u_ColorMask = pglGetUniformLocationARB( shader->handle, "u_ColorMask" );

	push	OFFSET ??_C@_0M@GKMFFJIJ@u_ColorMask?$AA@
	mov	eax, DWORD PTR _shader$[ebp]
	mov	ecx, DWORD PTR [eax+576]
	push	ecx
	call	DWORD PTR ?pglGetUniformLocationARB@@3P6GHIPBD@ZA ; pglGetUniformLocationARB
	mov	edx, DWORD PTR _shader$[ebp]
	mov	DWORD PTR [edx+656], eax

; 979  : 
; 980  : 	shader->u_LightDir = pglGetUniformLocationARB( shader->handle, "u_LightDir" );

	push	OFFSET ??_C@_0L@EMINLLAG@u_LightDir?$AA@
	mov	eax, DWORD PTR _shader$[ebp]
	mov	ecx, DWORD PTR [eax+576]
	push	ecx
	call	DWORD PTR ?pglGetUniformLocationARB@@3P6GHIPBD@ZA ; pglGetUniformLocationARB
	mov	edx, DWORD PTR _shader$[ebp]
	mov	DWORD PTR [edx+744], eax

; 981  : 	shader->u_LightDiffuse = pglGetUniformLocationARB( shader->handle, "u_LightDiffuse" );

	push	OFFSET ??_C@_0P@IBMOHOLF@u_LightDiffuse?$AA@
	mov	eax, DWORD PTR _shader$[ebp]
	mov	ecx, DWORD PTR [eax+576]
	push	ecx
	call	DWORD PTR ?pglGetUniformLocationARB@@3P6GHIPBD@ZA ; pglGetUniformLocationARB
	mov	edx, DWORD PTR _shader$[ebp]
	mov	DWORD PTR [edx+760], eax

; 982  : 	shader->u_ShadowParams = pglGetUniformLocationARB( shader->handle, "u_ShadowParams" );

	push	OFFSET ??_C@_0P@DOIHPJNE@u_ShadowParams?$AA@
	mov	eax, DWORD PTR _shader$[ebp]
	mov	ecx, DWORD PTR [eax+576]
	push	ecx
	call	DWORD PTR ?pglGetUniformLocationARB@@3P6GHIPBD@ZA ; pglGetUniformLocationARB
	mov	edx, DWORD PTR _shader$[ebp]
	mov	DWORD PTR [edx+836], eax

; 983  : 	shader->u_LightOrigin = pglGetUniformLocationARB( shader->handle, "u_LightOrigin" );

	push	OFFSET ??_C@_0O@PGBKINBN@u_LightOrigin?$AA@
	mov	eax, DWORD PTR _shader$[ebp]
	mov	ecx, DWORD PTR [eax+576]
	push	ecx
	call	DWORD PTR ?pglGetUniformLocationARB@@3P6GHIPBD@ZA ; pglGetUniformLocationARB
	mov	edx, DWORD PTR _shader$[ebp]
	mov	DWORD PTR [edx+792], eax

; 984  : 	shader->u_LightViewProjectionMatrix = pglGetUniformLocationARB( shader->handle, "u_LightViewProjectionMatrix" );

	push	OFFSET ??_C@_0BM@OPAKJEIH@u_LightViewProjectionMatrix?$AA@
	mov	eax, DWORD PTR _shader$[ebp]
	mov	ecx, DWORD PTR [eax+576]
	push	ecx
	call	DWORD PTR ?pglGetUniformLocationARB@@3P6GHIPBD@ZA ; pglGetUniformLocationARB
	mov	edx, DWORD PTR _shader$[ebp]
	mov	DWORD PTR [edx+696], eax

; 985  : 	shader->u_ViewOrigin = pglGetUniformLocationARB( shader->handle, "u_ViewOrigin" );

	push	OFFSET ??_C@_0N@GOCFBCHC@u_ViewOrigin?$AA@
	mov	eax, DWORD PTR _shader$[ebp]
	mov	ecx, DWORD PTR [eax+576]
	push	ecx
	call	DWORD PTR ?pglGetUniformLocationARB@@3P6GHIPBD@ZA ; pglGetUniformLocationARB
	mov	edx, DWORD PTR _shader$[ebp]
	mov	DWORD PTR [edx+800], eax

; 986  : 	shader->u_ViewRight = pglGetUniformLocationARB( shader->handle, "u_ViewRight" );

	push	OFFSET ??_C@_0M@FIIJDCAM@u_ViewRight?$AA@
	mov	eax, DWORD PTR _shader$[ebp]
	mov	ecx, DWORD PTR [eax+576]
	push	ecx
	call	DWORD PTR ?pglGetUniformLocationARB@@3P6GHIPBD@ZA ; pglGetUniformLocationARB
	mov	edx, DWORD PTR _shader$[ebp]
	mov	DWORD PTR [edx+804], eax

; 987  : 	shader->u_FogParams = pglGetUniformLocationARB( shader->handle, "u_FogParams" );

	push	OFFSET ??_C@_0M@LNDNBCGB@u_FogParams?$AA@
	mov	eax, DWORD PTR _shader$[ebp]
	mov	ecx, DWORD PTR [eax+576]
	push	ecx
	call	DWORD PTR ?pglGetUniformLocationARB@@3P6GHIPBD@ZA ; pglGetUniformLocationARB
	mov	edx, DWORD PTR _shader$[ebp]
	mov	DWORD PTR [edx+788], eax

; 988  : 
; 989  : 	if( GL_FindShaderDirective( shader, "STUDIO_INTERIOR" ) )

	push	OFFSET ??_C@_0BA@BJGEOHOC@STUDIO_INTERIOR?$AA@
	mov	eax, DWORD PTR _shader$[ebp]
	push	eax
	call	?GL_FindShaderDirective@@YA_NPAUglsl_prog_s@@PBD@Z ; GL_FindShaderDirective
	add	esp, 8
	movzx	ecx, al
	test	ecx, ecx
	je	SHORT $LN3@GL_InitStu

; 990  : 	{
; 991  : 		shader->u_InteriorMap = pglGetUniformLocationARB( shader->handle, "u_InteriorMap" );

	push	OFFSET ??_C@_0O@KNPDKBPI@u_InteriorMap?$AA@
	mov	eax, DWORD PTR _shader$[ebp]
	mov	ecx, DWORD PTR [eax+576]
	push	ecx
	call	DWORD PTR ?pglGetUniformLocationARB@@3P6GHIPBD@ZA ; pglGetUniformLocationARB
	mov	edx, DWORD PTR _shader$[ebp]
	mov	DWORD PTR [edx+660], eax

; 992  : 		shader->u_InteriorGrid = pglGetUniformLocationARB( shader->handle, "u_InteriorGrid" );

	push	OFFSET ??_C@_0P@KJLBFPAD@u_InteriorGrid?$AA@
	mov	eax, DWORD PTR _shader$[ebp]
	mov	ecx, DWORD PTR [eax+576]
	push	ecx
	call	DWORD PTR ?pglGetUniformLocationARB@@3P6GHIPBD@ZA ; pglGetUniformLocationARB
	mov	edx, DWORD PTR _shader$[ebp]
	mov	DWORD PTR [edx+664], eax

; 993  : 		shader->u_InteriorLightState = pglGetUniformLocationARB( shader->handle, "u_InteriorLightState" );

	push	OFFSET ??_C@_0BF@HKDFFBEE@u_InteriorLightState?$AA@
	mov	eax, DWORD PTR _shader$[ebp]
	mov	ecx, DWORD PTR [eax+576]
	push	ecx
	call	DWORD PTR ?pglGetUniformLocationARB@@3P6GHIPBD@ZA ; pglGetUniformLocationARB
	mov	edx, DWORD PTR _shader$[ebp]
	mov	DWORD PTR [edx+668], eax
$LN3@GL_InitStu:

; 994  : 	}
; 995  : 
; 996  : 	shader->u_RealTime = pglGetUniformLocationARB( shader->handle, "u_RealTime" );

	push	OFFSET ??_C@_0L@BGHCDECL@u_RealTime?$AA@
	mov	eax, DWORD PTR _shader$[ebp]
	mov	ecx, DWORD PTR [eax+576]
	push	ecx
	call	DWORD PTR ?pglGetUniformLocationARB@@3P6GHIPBD@ZA ; pglGetUniformLocationARB
	mov	edx, DWORD PTR _shader$[ebp]
	mov	DWORD PTR [edx+868], eax

; 997  : 	shader->u_FoliageSwayHeight = pglGetUniformLocationARB( shader->handle, "u_FoliageSwayHeight" );

	push	OFFSET ??_C@_0BE@GNPKMAIG@u_FoliageSwayHeight?$AA@
	mov	eax, DWORD PTR _shader$[ebp]
	mov	ecx, DWORD PTR [eax+576]
	push	ecx
	call	DWORD PTR ?pglGetUniformLocationARB@@3P6GHIPBD@ZA ; pglGetUniformLocationARB
	mov	edx, DWORD PTR _shader$[ebp]
	mov	DWORD PTR [edx+928], eax

; 998  : 
; 999  : 	GL_BindShader( shader );

	mov	eax, DWORD PTR _shader$[ebp]
	push	eax
	call	?GL_BindShader@@YAXPAUglsl_prog_s@@@Z	; GL_BindShader
	add	esp, 4

; 1000 : 	pglUniform1iARB( shader->u_ColorMap, GL_TEXTURE0 );

	push	0
	mov	eax, DWORD PTR _shader$[ebp]
	mov	ecx, DWORD PTR [eax+588]
	push	ecx
	call	DWORD PTR ?pglUniform1iARB@@3P6GXHH@ZA	; pglUniform1iARB

; 1001 : 	pglUniform1iARB( shader->u_ProjectMap, GL_TEXTURE1 );

	push	1
	mov	eax, DWORD PTR _shader$[ebp]
	mov	ecx, DWORD PTR [eax+608]
	push	ecx
	call	DWORD PTR ?pglUniform1iARB@@3P6GXHH@ZA	; pglUniform1iARB

; 1002 : 	pglUniform1iARB( shader->u_ShadowMap, GL_TEXTURE2 ); // optional

	push	2
	mov	eax, DWORD PTR _shader$[ebp]
	mov	ecx, DWORD PTR [eax+612]
	push	ecx
	call	DWORD PTR ?pglUniform1iARB@@3P6GXHH@ZA	; pglUniform1iARB

; 1003 : 	pglUniform1iARB( shader->u_NormalMap, GL_TEXTURE3 );

	push	3
	mov	eax, DWORD PTR _shader$[ebp]
	mov	ecx, DWORD PTR [eax+596]
	push	ecx
	call	DWORD PTR ?pglUniform1iARB@@3P6GXHH@ZA	; pglUniform1iARB

; 1004 : 	if( GL_FindShaderDirective( shader, "STUDIO_INTERIOR" ) )

	push	OFFSET ??_C@_0BA@BJGEOHOC@STUDIO_INTERIOR?$AA@
	mov	eax, DWORD PTR _shader$[ebp]
	push	eax
	call	?GL_FindShaderDirective@@YA_NPAUglsl_prog_s@@PBD@Z ; GL_FindShaderDirective
	add	esp, 8
	movzx	ecx, al
	test	ecx, ecx
	je	SHORT $LN4@GL_InitStu

; 1005 : 		pglUniform1iARB( shader->u_InteriorMap, GL_TEXTURE4 );

	push	4
	mov	eax, DWORD PTR _shader$[ebp]
	mov	ecx, DWORD PTR [eax+660]
	push	ecx
	call	DWORD PTR ?pglUniform1iARB@@3P6GXHH@ZA	; pglUniform1iARB
$LN4@GL_InitStu:

; 1006 : 	if( GL_FindShaderDirective( shader, "STUDIO_HAS_COLORMASK" ) )

	push	OFFSET ??_C@_0BF@MDNGADJD@STUDIO_HAS_COLORMASK?$AA@
	mov	eax, DWORD PTR _shader$[ebp]
	push	eax
	call	?GL_FindShaderDirective@@YA_NPAUglsl_prog_s@@PBD@Z ; GL_FindShaderDirective
	add	esp, 8
	movzx	ecx, al
	test	ecx, ecx
	je	SHORT $LN5@GL_InitStu

; 1007 : 		pglUniform1iARB( shader->u_ColorMask, GL_TEXTURE5 );

	push	5
	mov	eax, DWORD PTR _shader$[ebp]
	mov	ecx, DWORD PTR [eax+656]
	push	ecx
	call	DWORD PTR ?pglUniform1iARB@@3P6GXHH@ZA	; pglUniform1iARB
$LN5@GL_InitStu:

; 1008 : 
; 1009 : 	GL_BindShader( GL_NONE );

	push	0
	call	?GL_BindShader@@YAXPAUglsl_prog_s@@@Z	; GL_BindShader
	add	esp, 4

; 1010 : 
; 1011 : 	GL_ValidateProgram( shader );

	mov	eax, DWORD PTR _shader$[ebp]
	push	eax
	call	?GL_ValidateProgram@@YAXPAUglsl_prog_s@@@Z ; GL_ValidateProgram
	add	esp, 4

; 1012 : 	GL_ShowProgramUniforms( shader );

	mov	eax, DWORD PTR _shader$[ebp]
	push	eax
	call	?GL_ShowProgramUniforms@@YAXPAUglsl_prog_s@@@Z ; GL_ShowProgramUniforms
	add	esp, 4

; 1013 : }

	pop	edi
	pop	esi
	pop	ebx
	mov	esp, ebp
	pop	ebp
	ret	0
?GL_InitStudioDlightUniforms@@YAXPAUglsl_prog_s@@@Z ENDP ; GL_InitStudioDlightUniforms
_TEXT	ENDS
; Function compile flags: /Odtp /ZI
; File d:\!diffusion 2020\source code 2022\client-server\client\render\r_shader.cpp
;	COMDAT ?GL_InitSolidStudioUniforms@@YAXPAUglsl_prog_s@@@Z
_TEXT	SEGMENT
_shader$ = 8						; size = 4
?GL_InitSolidStudioUniforms@@YAXPAUglsl_prog_s@@@Z PROC	; GL_InitSolidStudioUniforms, COMDAT

; 884  : {

	push	ebp
	mov	ebp, esp
	sub	esp, 64					; 00000040H
	push	ebx
	push	esi
	push	edi

; 885  : 	ASSERT( shader != NULL );

	cmp	DWORD PTR _shader$[ebp], 0
	jne	SHORT $LN2@GL_InitSol
	mov	eax, DWORD PTR ?__LINE__Var@?0??GL_InitSolidStudioUniforms@@YAXPAUglsl_prog_s@@@Z@4JA
	add	eax, 1
	push	eax
	push	OFFSET ??_C@_0EN@DPFBEFBL@d?3?2?$CBdiffusion?52020?2source?5code?52@
	push	OFFSET ??_C@_0BI@FECCGOFJ@assert?5failed?5at?5?$CFs?3?$CFi?6?$AA@
	call	DWORD PTR ?gRenderfuncs@@3Urender_api_s@@A+236
	add	esp, 12					; 0000000cH
$LN2@GL_InitSol:

; 886  : 
; 887  : 	shader->u_ColorMap = pglGetUniformLocationARB( shader->handle, "u_ColorMap" );

	push	OFFSET ??_C@_0L@IEDEJAAC@u_ColorMap?$AA@
	mov	eax, DWORD PTR _shader$[ebp]
	mov	ecx, DWORD PTR [eax+576]
	push	ecx
	call	DWORD PTR ?pglGetUniformLocationARB@@3P6GHIPBD@ZA ; pglGetUniformLocationARB
	mov	edx, DWORD PTR _shader$[ebp]
	mov	DWORD PTR [edx+588], eax

; 888  : 	shader->u_BoneQuaternion = pglGetUniformLocationARB( shader->handle, "u_BoneQuaternion" );

	push	OFFSET ??_C@_0BB@JBIGINIK@u_BoneQuaternion?$AA@
	mov	eax, DWORD PTR _shader$[ebp]
	mov	ecx, DWORD PTR [eax+576]
	push	ecx
	call	DWORD PTR ?pglGetUniformLocationARB@@3P6GHIPBD@ZA ; pglGetUniformLocationARB
	mov	edx, DWORD PTR _shader$[ebp]
	mov	DWORD PTR [edx+672], eax

; 889  : 	shader->u_BonePosition = pglGetUniformLocationARB( shader->handle, "u_BonePosition" );

	push	OFFSET ??_C@_0P@KFHIBBDA@u_BonePosition?$AA@
	mov	eax, DWORD PTR _shader$[ebp]
	mov	ecx, DWORD PTR [eax+576]
	push	ecx
	call	DWORD PTR ?pglGetUniformLocationARB@@3P6GHIPBD@ZA ; pglGetUniformLocationARB
	mov	edx, DWORD PTR _shader$[ebp]
	mov	DWORD PTR [edx+676], eax

; 890  : 	shader->u_MeshScale = pglGetUniformLocationARB( shader->handle, "u_MeshScale" );

	push	OFFSET ??_C@_0M@LKOGHAJI@u_MeshScale?$AA@
	mov	eax, DWORD PTR _shader$[ebp]
	mov	ecx, DWORD PTR [eax+576]
	push	ecx
	call	DWORD PTR ?pglGetUniformLocationARB@@3P6GHIPBD@ZA ; pglGetUniformLocationARB
	mov	edx, DWORD PTR _shader$[ebp]
	mov	DWORD PTR [edx+900], eax

; 891  : 	shader->u_GlossScale = pglGetUniformLocationARB( shader->handle, "u_GlossScale" );

	push	OFFSET ??_C@_0N@NPMHADLB@u_GlossScale?$AA@
	mov	eax, DWORD PTR _shader$[ebp]
	mov	ecx, DWORD PTR [eax+576]
	push	ecx
	call	DWORD PTR ?pglGetUniformLocationARB@@3P6GHIPBD@ZA ; pglGetUniformLocationARB
	mov	edx, DWORD PTR _shader$[ebp]
	mov	DWORD PTR [edx+916], eax

; 892  : 	shader->u_GlossSmoothness = pglGetUniformLocationARB( shader->handle, "u_GlossSmoothness" );

	push	OFFSET ??_C@_0BC@KIIHBDPB@u_GlossSmoothness?$AA@
	mov	eax, DWORD PTR _shader$[ebp]
	mov	ecx, DWORD PTR [eax+576]
	push	ecx
	call	DWORD PTR ?pglGetUniformLocationARB@@3P6GHIPBD@ZA ; pglGetUniformLocationARB
	mov	edx, DWORD PTR _shader$[ebp]
	mov	DWORD PTR [edx+920], eax

; 893  : 	shader->u_EmbossScale = pglGetUniformLocationARB( shader->handle, "u_EmbossScale" );

	push	OFFSET ??_C@_0O@HKDACOHC@u_EmbossScale?$AA@
	mov	eax, DWORD PTR _shader$[ebp]
	mov	ecx, DWORD PTR [eax+576]
	push	ecx
	call	DWORD PTR ?pglGetUniformLocationARB@@3P6GHIPBD@ZA ; pglGetUniformLocationARB
	mov	edx, DWORD PTR _shader$[ebp]
	mov	DWORD PTR [edx+924], eax

; 894  : 	shader->u_MeshAngles = pglGetUniformLocationARB( shader->handle, "u_MeshAngles" );

	push	OFFSET ??_C@_0N@DJODLMKK@u_MeshAngles?$AA@
	mov	eax, DWORD PTR _shader$[ebp]
	mov	ecx, DWORD PTR [eax+576]
	push	ecx
	call	DWORD PTR ?pglGetUniformLocationARB@@3P6GHIPBD@ZA ; pglGetUniformLocationARB
	mov	edx, DWORD PTR _shader$[ebp]
	mov	DWORD PTR [edx+908], eax

; 895  : 	shader->u_NormalMap = pglGetUniformLocationARB( shader->handle, "u_NormalMap" );

	push	OFFSET ??_C@_0M@EEAGDKIK@u_NormalMap?$AA@
	mov	eax, DWORD PTR _shader$[ebp]
	mov	ecx, DWORD PTR [eax+576]
	push	ecx
	call	DWORD PTR ?pglGetUniformLocationARB@@3P6GHIPBD@ZA ; pglGetUniformLocationARB
	mov	edx, DWORD PTR _shader$[ebp]
	mov	DWORD PTR [edx+596], eax

; 896  : 	shader->u_ColorMask = pglGetUniformLocationARB( shader->handle, "u_ColorMask" );

	push	OFFSET ??_C@_0M@GKMFFJIJ@u_ColorMask?$AA@
	mov	eax, DWORD PTR _shader$[ebp]
	mov	ecx, DWORD PTR [eax+576]
	push	ecx
	call	DWORD PTR ?pglGetUniformLocationARB@@3P6GHIPBD@ZA ; pglGetUniformLocationARB
	mov	edx, DWORD PTR _shader$[ebp]
	mov	DWORD PTR [edx+656], eax

; 897  : 
; 898  : 	if( GL_FindShaderDirective( shader, "REFLECTION_CUBEMAP" ) ) // diffusioncubemaps

	push	OFFSET ??_C@_0BD@EMMENHMO@REFLECTION_CUBEMAP?$AA@
	mov	eax, DWORD PTR _shader$[ebp]
	push	eax
	call	?GL_FindShaderDirective@@YA_NPAUglsl_prog_s@@PBD@Z ; GL_FindShaderDirective
	add	esp, 8
	movzx	ecx, al
	test	ecx, ecx
	je	$LN3@GL_InitSol

; 899  : 	{
; 900  : 		shader->u_EnvMap0 = pglGetUniformLocationARB( shader->handle, "u_EnvMap0" );

	push	OFFSET ??_C@_09GODPBACC@u_EnvMap0?$AA@
	mov	eax, DWORD PTR _shader$[ebp]
	mov	ecx, DWORD PTR [eax+576]
	push	ecx
	call	DWORD PTR ?pglGetUniformLocationARB@@3P6GHIPBD@ZA ; pglGetUniformLocationARB
	mov	edx, DWORD PTR _shader$[ebp]
	mov	DWORD PTR [edx+636], eax

; 901  : 		shader->u_EnvMap1 = pglGetUniformLocationARB( shader->handle, "u_EnvMap1" );

	push	OFFSET ??_C@_09HHCECBGD@u_EnvMap1?$AA@
	mov	eax, DWORD PTR _shader$[ebp]
	mov	ecx, DWORD PTR [eax+576]
	push	ecx
	call	DWORD PTR ?pglGetUniformLocationARB@@3P6GHIPBD@ZA ; pglGetUniformLocationARB
	mov	edx, DWORD PTR _shader$[ebp]
	mov	DWORD PTR [edx+640], eax

; 902  : 		shader->u_CubeMipCount = pglGetUniformLocationARB( shader->handle, "u_CubeMipCount" );

	push	OFFSET ??_C@_0P@CEPEBBNL@u_CubeMipCount?$AA@
	mov	eax, DWORD PTR _shader$[ebp]
	mov	ecx, DWORD PTR [eax+576]
	push	ecx
	call	DWORD PTR ?pglGetUniformLocationARB@@3P6GHIPBD@ZA ; pglGetUniformLocationARB
	mov	edx, DWORD PTR _shader$[ebp]
	mov	DWORD PTR [edx+884], eax

; 903  : 		shader->u_CubeOrigin = pglGetUniformLocationARB( shader->handle, "u_CubeOrigin" );

	push	OFFSET ??_C@_0N@NGOJEAAC@u_CubeOrigin?$AA@
	mov	eax, DWORD PTR _shader$[ebp]
	mov	ecx, DWORD PTR [eax+576]
	push	ecx
	call	DWORD PTR ?pglGetUniformLocationARB@@3P6GHIPBD@ZA ; pglGetUniformLocationARB
	mov	edx, DWORD PTR _shader$[ebp]
	mov	DWORD PTR [edx+880], eax

; 904  : 		shader->u_LerpFactor = pglGetUniformLocationARB( shader->handle, "u_LerpFactor" );

	push	OFFSET ??_C@_0N@BILMML@u_LerpFactor?$AA@
	mov	eax, DWORD PTR _shader$[ebp]
	mov	ecx, DWORD PTR [eax+576]
	push	ecx
	call	DWORD PTR ?pglGetUniformLocationARB@@3P6GHIPBD@ZA ; pglGetUniformLocationARB
	mov	edx, DWORD PTR _shader$[ebp]
	mov	DWORD PTR [edx+812], eax

; 905  : 		shader->u_BoxMins = pglGetUniformLocationARB( shader->handle, "u_BoxMins" );

	push	OFFSET ??_C@_09PANPMJKM@u_BoxMins?$AA@
	mov	eax, DWORD PTR _shader$[ebp]
	mov	ecx, DWORD PTR [eax+576]
	push	ecx
	call	DWORD PTR ?pglGetUniformLocationARB@@3P6GHIPBD@ZA ; pglGetUniformLocationARB
	mov	edx, DWORD PTR _shader$[ebp]
	mov	DWORD PTR [edx+872], eax

; 906  : 		shader->u_BoxMaxs = pglGetUniformLocationARB( shader->handle, "u_BoxMaxs" );

	push	OFFSET ??_C@_09CNMADOIB@u_BoxMaxs?$AA@
	mov	eax, DWORD PTR _shader$[ebp]
	mov	ecx, DWORD PTR [eax+576]
	push	ecx
	call	DWORD PTR ?pglGetUniformLocationARB@@3P6GHIPBD@ZA ; pglGetUniformLocationARB
	mov	edx, DWORD PTR _shader$[ebp]
	mov	DWORD PTR [edx+876], eax

; 907  : 		shader->u_ReflectScale = pglGetUniformLocationARB( shader->handle, "u_ReflectScale" );

	push	OFFSET ??_C@_0P@BIBHBLHM@u_ReflectScale?$AA@
	mov	eax, DWORD PTR _shader$[ebp]
	mov	ecx, DWORD PTR [eax+576]
	push	ecx
	call	DWORD PTR ?pglGetUniformLocationARB@@3P6GHIPBD@ZA ; pglGetUniformLocationARB
	mov	edx, DWORD PTR _shader$[ebp]
	mov	DWORD PTR [edx+852], eax
$LN3@GL_InitSol:

; 908  : 	}
; 909  : 	
; 910  : 	if( GL_FindShaderDirective( shader, "STUDIO_INTERIOR" ) )

	push	OFFSET ??_C@_0BA@BJGEOHOC@STUDIO_INTERIOR?$AA@
	mov	eax, DWORD PTR _shader$[ebp]
	push	eax
	call	?GL_FindShaderDirective@@YA_NPAUglsl_prog_s@@PBD@Z ; GL_FindShaderDirective
	add	esp, 8
	movzx	ecx, al
	test	ecx, ecx
	je	SHORT $LN4@GL_InitSol

; 911  : 	{
; 912  : 		shader->u_InteriorMap = pglGetUniformLocationARB( shader->handle, "u_InteriorMap" );

	push	OFFSET ??_C@_0O@KNPDKBPI@u_InteriorMap?$AA@
	mov	eax, DWORD PTR _shader$[ebp]
	mov	ecx, DWORD PTR [eax+576]
	push	ecx
	call	DWORD PTR ?pglGetUniformLocationARB@@3P6GHIPBD@ZA ; pglGetUniformLocationARB
	mov	edx, DWORD PTR _shader$[ebp]
	mov	DWORD PTR [edx+660], eax

; 913  : 		shader->u_InteriorGrid = pglGetUniformLocationARB( shader->handle, "u_InteriorGrid" );

	push	OFFSET ??_C@_0P@KJLBFPAD@u_InteriorGrid?$AA@
	mov	eax, DWORD PTR _shader$[ebp]
	mov	ecx, DWORD PTR [eax+576]
	push	ecx
	call	DWORD PTR ?pglGetUniformLocationARB@@3P6GHIPBD@ZA ; pglGetUniformLocationARB
	mov	edx, DWORD PTR _shader$[ebp]
	mov	DWORD PTR [edx+664], eax

; 914  : 		shader->u_InteriorLightState = pglGetUniformLocationARB( shader->handle, "u_InteriorLightState" );

	push	OFFSET ??_C@_0BF@HKDFFBEE@u_InteriorLightState?$AA@
	mov	eax, DWORD PTR _shader$[ebp]
	mov	ecx, DWORD PTR [eax+576]
	push	ecx
	call	DWORD PTR ?pglGetUniformLocationARB@@3P6GHIPBD@ZA ; pglGetUniformLocationARB
	mov	edx, DWORD PTR _shader$[ebp]
	mov	DWORD PTR [edx+668], eax
$LN4@GL_InitSol:

; 915  : 	}
; 916  : 
; 917  : 	if( GL_FindShaderDirective( shader, "STUDIO_VERTEX_LIGHTING" ))

	push	OFFSET ??_C@_0BH@BHCFIENI@STUDIO_VERTEX_LIGHTING?$AA@
	mov	eax, DWORD PTR _shader$[ebp]
	push	eax
	call	?GL_FindShaderDirective@@YA_NPAUglsl_prog_s@@PBD@Z ; GL_FindShaderDirective
	add	esp, 8
	movzx	ecx, al
	test	ecx, ecx
	je	SHORT $LN5@GL_InitSol

; 918  : 	{
; 919  : 		shader->u_LightStyleValues = pglGetUniformLocationARB( shader->handle, "u_LightStyles" ); 

	push	OFFSET ??_C@_0O@MBKKBNEB@u_LightStyles?$AA@
	mov	eax, DWORD PTR _shader$[ebp]
	mov	ecx, DWORD PTR [eax+576]
	push	ecx
	call	DWORD PTR ?pglGetUniformLocationARB@@3P6GHIPBD@ZA ; pglGetUniformLocationARB
	mov	edx, DWORD PTR _shader$[ebp]
	mov	DWORD PTR [edx+768], eax

; 920  : 		shader->u_GammaTable = pglGetUniformLocationARB( shader->handle, "u_GammaTable" );

	push	OFFSET ??_C@_0N@OIMPMCEP@u_GammaTable?$AA@
	mov	eax, DWORD PTR _shader$[ebp]
	mov	ecx, DWORD PTR [eax+576]
	push	ecx
	call	DWORD PTR ?pglGetUniformLocationARB@@3P6GHIPBD@ZA ; pglGetUniformLocationARB
	mov	edx, DWORD PTR _shader$[ebp]
	mov	DWORD PTR [edx+680], eax

; 921  : 		shader->u_LightDir = pglGetUniformLocationARB( shader->handle, "u_LightDir" );

	push	OFFSET ??_C@_0L@EMINLLAG@u_LightDir?$AA@
	mov	eax, DWORD PTR _shader$[ebp]
	mov	ecx, DWORD PTR [eax+576]
	push	ecx
	call	DWORD PTR ?pglGetUniformLocationARB@@3P6GHIPBD@ZA ; pglGetUniformLocationARB
	mov	edx, DWORD PTR _shader$[ebp]
	mov	DWORD PTR [edx+744], eax

; 922  : 	}
; 923  : 	else

	jmp	SHORT $LN6@GL_InitSol
$LN5@GL_InitSol:

; 924  : 	{
; 925  : 		shader->u_LightDir = pglGetUniformLocationARB( shader->handle, "u_LightDir" );

	push	OFFSET ??_C@_0L@EMINLLAG@u_LightDir?$AA@
	mov	eax, DWORD PTR _shader$[ebp]
	mov	ecx, DWORD PTR [eax+576]
	push	ecx
	call	DWORD PTR ?pglGetUniformLocationARB@@3P6GHIPBD@ZA ; pglGetUniformLocationARB
	mov	edx, DWORD PTR _shader$[ebp]
	mov	DWORD PTR [edx+744], eax

; 926  : 		shader->u_LightColor = pglGetUniformLocationARB( shader->handle, "u_LightColor" );

	push	OFFSET ??_C@_0N@HGOIPDNC@u_LightColor?$AA@
	mov	eax, DWORD PTR _shader$[ebp]
	mov	ecx, DWORD PTR [eax+576]
	push	ecx
	call	DWORD PTR ?pglGetUniformLocationARB@@3P6GHIPBD@ZA ; pglGetUniformLocationARB
	mov	edx, DWORD PTR _shader$[ebp]
	mov	DWORD PTR [edx+748], eax

; 927  : 		shader->u_LightAmbient = pglGetUniformLocationARB( shader->handle, "u_LightAmbient" );

	push	OFFSET ??_C@_0P@DDJOMFKJ@u_LightAmbient?$AA@
	mov	eax, DWORD PTR _shader$[ebp]
	mov	ecx, DWORD PTR [eax+576]
	push	ecx
	call	DWORD PTR ?pglGetUniformLocationARB@@3P6GHIPBD@ZA ; pglGetUniformLocationARB
	mov	edx, DWORD PTR _shader$[ebp]
	mov	DWORD PTR [edx+752], eax

; 928  : 		shader->u_LightShade = pglGetUniformLocationARB( shader->handle, "u_LightShade" );

	push	OFFSET ??_C@_0N@DMKCJOPD@u_LightShade?$AA@
	mov	eax, DWORD PTR _shader$[ebp]
	mov	ecx, DWORD PTR [eax+576]
	push	ecx
	call	DWORD PTR ?pglGetUniformLocationARB@@3P6GHIPBD@ZA ; pglGetUniformLocationARB
	mov	edx, DWORD PTR _shader$[ebp]
	mov	DWORD PTR [edx+756], eax
$LN6@GL_InitSol:

; 929  : 	}
; 930  : 
; 931  : 	shader->u_ViewOrigin = pglGetUniformLocationARB( shader->handle, "u_ViewOrigin" );

	push	OFFSET ??_C@_0N@GOCFBCHC@u_ViewOrigin?$AA@
	mov	eax, DWORD PTR _shader$[ebp]
	mov	ecx, DWORD PTR [eax+576]
	push	ecx
	call	DWORD PTR ?pglGetUniformLocationARB@@3P6GHIPBD@ZA ; pglGetUniformLocationARB
	mov	edx, DWORD PTR _shader$[ebp]
	mov	DWORD PTR [edx+800], eax

; 932  : 	shader->u_ViewRight = pglGetUniformLocationARB( shader->handle, "u_ViewRight" );

	push	OFFSET ??_C@_0M@FIIJDCAM@u_ViewRight?$AA@
	mov	eax, DWORD PTR _shader$[ebp]
	mov	ecx, DWORD PTR [eax+576]
	push	ecx
	call	DWORD PTR ?pglGetUniformLocationARB@@3P6GHIPBD@ZA ; pglGetUniformLocationARB
	mov	edx, DWORD PTR _shader$[ebp]
	mov	DWORD PTR [edx+804], eax

; 933  : 	shader->u_RenderColor = pglGetUniformLocationARB( shader->handle, "u_RenderColor" );

	push	OFFSET ??_C@_0O@PDAILIH@u_RenderColor?$AA@
	mov	eax, DWORD PTR _shader$[ebp]
	mov	ecx, DWORD PTR [eax+576]
	push	ecx
	call	DWORD PTR ?pglGetUniformLocationARB@@3P6GHIPBD@ZA ; pglGetUniformLocationARB
	mov	edx, DWORD PTR _shader$[ebp]
	mov	DWORD PTR [edx+864], eax

; 934  : 	shader->u_FogParams = pglGetUniformLocationARB( shader->handle, "u_FogParams" );

	push	OFFSET ??_C@_0M@LNDNBCGB@u_FogParams?$AA@
	mov	eax, DWORD PTR _shader$[ebp]
	mov	ecx, DWORD PTR [eax+576]
	push	ecx
	call	DWORD PTR ?pglGetUniformLocationARB@@3P6GHIPBD@ZA ; pglGetUniformLocationARB
	mov	edx, DWORD PTR _shader$[ebp]
	mov	DWORD PTR [edx+788], eax

; 935  : 
; 936  : 	shader->u_RealTime = pglGetUniformLocationARB( shader->handle, "u_RealTime" );

	push	OFFSET ??_C@_0L@BGHCDECL@u_RealTime?$AA@
	mov	eax, DWORD PTR _shader$[ebp]
	mov	ecx, DWORD PTR [eax+576]
	push	ecx
	call	DWORD PTR ?pglGetUniformLocationARB@@3P6GHIPBD@ZA ; pglGetUniformLocationARB
	mov	edx, DWORD PTR _shader$[ebp]
	mov	DWORD PTR [edx+868], eax

; 937  : 	shader->u_FoliageSwayHeight = pglGetUniformLocationARB( shader->handle, "u_FoliageSwayHeight" );

	push	OFFSET ??_C@_0BE@GNPKMAIG@u_FoliageSwayHeight?$AA@
	mov	eax, DWORD PTR _shader$[ebp]
	mov	ecx, DWORD PTR [eax+576]
	push	ecx
	call	DWORD PTR ?pglGetUniformLocationARB@@3P6GHIPBD@ZA ; pglGetUniformLocationARB
	mov	edx, DWORD PTR _shader$[ebp]
	mov	DWORD PTR [edx+928], eax

; 938  : 
; 939  : 	GL_BindShader( shader );

	mov	eax, DWORD PTR _shader$[ebp]
	push	eax
	call	?GL_BindShader@@YAXPAUglsl_prog_s@@@Z	; GL_BindShader
	add	esp, 4

; 940  : 	pglUniform1iARB( shader->u_ColorMap, GL_TEXTURE0 );

	push	0
	mov	eax, DWORD PTR _shader$[ebp]
	mov	ecx, DWORD PTR [eax+588]
	push	ecx
	call	DWORD PTR ?pglUniform1iARB@@3P6GXHH@ZA	; pglUniform1iARB

; 941  : 	pglUniform1iARB( shader->u_NormalMap, GL_TEXTURE1 );

	push	1
	mov	eax, DWORD PTR _shader$[ebp]
	mov	ecx, DWORD PTR [eax+596]
	push	ecx
	call	DWORD PTR ?pglUniform1iARB@@3P6GXHH@ZA	; pglUniform1iARB

; 942  : 	if( GL_FindShaderDirective( shader, "REFLECTION_CUBEMAP" ) )  // diffusioncubemaps

	push	OFFSET ??_C@_0BD@EMMENHMO@REFLECTION_CUBEMAP?$AA@
	mov	eax, DWORD PTR _shader$[ebp]
	push	eax
	call	?GL_FindShaderDirective@@YA_NPAUglsl_prog_s@@PBD@Z ; GL_FindShaderDirective
	add	esp, 8
	movzx	ecx, al
	test	ecx, ecx
	je	SHORT $LN7@GL_InitSol

; 943  : 	{
; 944  : 		pglUniform1iARB( shader->u_EnvMap0, GL_TEXTURE2 );

	push	2
	mov	eax, DWORD PTR _shader$[ebp]
	mov	ecx, DWORD PTR [eax+636]
	push	ecx
	call	DWORD PTR ?pglUniform1iARB@@3P6GXHH@ZA	; pglUniform1iARB

; 945  : 		pglUniform1iARB( shader->u_EnvMap1, GL_TEXTURE3 );

	push	3
	mov	eax, DWORD PTR _shader$[ebp]
	mov	ecx, DWORD PTR [eax+640]
	push	ecx
	call	DWORD PTR ?pglUniform1iARB@@3P6GXHH@ZA	; pglUniform1iARB
$LN7@GL_InitSol:

; 946  : 	}
; 947  : 	
; 948  : 	if( GL_FindShaderDirective( shader, "STUDIO_INTERIOR" ) )

	push	OFFSET ??_C@_0BA@BJGEOHOC@STUDIO_INTERIOR?$AA@
	mov	eax, DWORD PTR _shader$[ebp]
	push	eax
	call	?GL_FindShaderDirective@@YA_NPAUglsl_prog_s@@PBD@Z ; GL_FindShaderDirective
	add	esp, 8
	movzx	ecx, al
	test	ecx, ecx
	je	SHORT $LN8@GL_InitSol

; 949  : 		pglUniform1iARB( shader->u_InteriorMap, GL_TEXTURE4 );

	push	4
	mov	eax, DWORD PTR _shader$[ebp]
	mov	ecx, DWORD PTR [eax+660]
	push	ecx
	call	DWORD PTR ?pglUniform1iARB@@3P6GXHH@ZA	; pglUniform1iARB
$LN8@GL_InitSol:

; 950  : 
; 951  : 	if( GL_FindShaderDirective( shader, "STUDIO_HAS_COLORMASK" ) )

	push	OFFSET ??_C@_0BF@MDNGADJD@STUDIO_HAS_COLORMASK?$AA@
	mov	eax, DWORD PTR _shader$[ebp]
	push	eax
	call	?GL_FindShaderDirective@@YA_NPAUglsl_prog_s@@PBD@Z ; GL_FindShaderDirective
	add	esp, 8
	movzx	ecx, al
	test	ecx, ecx
	je	SHORT $LN9@GL_InitSol

; 952  : 		pglUniform1iARB( shader->u_ColorMask, GL_TEXTURE5 );

	push	5
	mov	eax, DWORD PTR _shader$[ebp]
	mov	ecx, DWORD PTR [eax+656]
	push	ecx
	call	DWORD PTR ?pglUniform1iARB@@3P6GXHH@ZA	; pglUniform1iARB
$LN9@GL_InitSol:

; 953  : 
; 954  : 	GL_BindShader( GL_NONE );

	push	0
	call	?GL_BindShader@@YAXPAUglsl_prog_s@@@Z	; GL_BindShader
	add	esp, 4

; 955  : 
; 956  : 	GL_ValidateProgram( shader );

	mov	eax, DWORD PTR _shader$[ebp]
	push	eax
	call	?GL_ValidateProgram@@YAXPAUglsl_prog_s@@@Z ; GL_ValidateProgram
	add	esp, 4

; 957  : 	GL_ShowProgramUniforms( shader );

	mov	eax, DWORD PTR _shader$[ebp]
	push	eax
	call	?GL_ShowProgramUniforms@@YAXPAUglsl_prog_s@@@Z ; GL_ShowProgramUniforms
	add	esp, 4

; 958  : }

	pop	edi
	pop	esi
	pop	ebx
	mov	esp, ebp
	pop	ebp
	ret	0
?GL_InitSolidStudioUniforms@@YAXPAUglsl_prog_s@@@Z ENDP	; GL_InitSolidStudioUniforms
_TEXT	ENDS
; Function compile flags: /Odtp /ZI
; File d:\!diffusion 2020\source code 2022\client-server\client\render\r_shader.cpp
;	COMDAT ?GL_InitBmodelDecalUniforms@@YAXPAUglsl_prog_s@@@Z
_TEXT	SEGMENT
_shader$ = 8						; size = 4
?GL_InitBmodelDecalUniforms@@YAXPAUglsl_prog_s@@@Z PROC	; GL_InitBmodelDecalUniforms, COMDAT

; 862  : {

	push	ebp
	mov	ebp, esp
	sub	esp, 64					; 00000040H
	push	ebx
	push	esi
	push	edi

; 863  : 	ASSERT( shader != NULL );

	cmp	DWORD PTR _shader$[ebp], 0
	jne	SHORT $LN2@GL_InitBmo
	mov	eax, DWORD PTR ?__LINE__Var@?0??GL_InitBmodelDecalUniforms@@YAXPAUglsl_prog_s@@@Z@4JA
	add	eax, 1
	push	eax
	push	OFFSET ??_C@_0EN@DPFBEFBL@d?3?2?$CBdiffusion?52020?2source?5code?52@
	push	OFFSET ??_C@_0BI@FECCGOFJ@assert?5failed?5at?5?$CFs?3?$CFi?6?$AA@
	call	DWORD PTR ?gRenderfuncs@@3Urender_api_s@@A+236
	add	esp, 12					; 0000000cH
$LN2@GL_InitBmo:

; 864  : 
; 865  : 	shader->u_DecalMap = pglGetUniformLocationARB( shader->handle, "u_DecalMap" );

	push	OFFSET ??_C@_0L@GCAHNJHJ@u_DecalMap?$AA@
	mov	eax, DWORD PTR _shader$[ebp]
	mov	ecx, DWORD PTR [eax+576]
	push	ecx
	call	DWORD PTR ?pglGetUniformLocationARB@@3P6GHIPBD@ZA ; pglGetUniformLocationARB
	mov	edx, DWORD PTR _shader$[ebp]
	mov	DWORD PTR [edx+628], eax

; 866  : 	shader->u_ColorMap = pglGetUniformLocationARB( shader->handle, "u_ColorMap" );

	push	OFFSET ??_C@_0L@IEDEJAAC@u_ColorMap?$AA@
	mov	eax, DWORD PTR _shader$[ebp]
	mov	ecx, DWORD PTR [eax+576]
	push	ecx
	call	DWORD PTR ?pglGetUniformLocationARB@@3P6GHIPBD@ZA ; pglGetUniformLocationARB
	mov	edx, DWORD PTR _shader$[ebp]
	mov	DWORD PTR [edx+588], eax

; 867  : 	shader->u_LightMap = pglGetUniformLocationARB( shader->handle, "u_LightMap" );

	push	OFFSET ??_C@_0L@NKAMHLG@u_LightMap?$AA@
	mov	eax, DWORD PTR _shader$[ebp]
	mov	ecx, DWORD PTR [eax+576]
	push	ecx
	call	DWORD PTR ?pglGetUniformLocationARB@@3P6GHIPBD@ZA ; pglGetUniformLocationARB
	mov	edx, DWORD PTR _shader$[ebp]
	mov	DWORD PTR [edx+620], eax

; 868  : 
; 869  : 	shader->u_LightStyleValues = pglGetUniformLocationARB( shader->handle, "u_LightStyleValues" );

	push	OFFSET ??_C@_0BD@NFOOODNK@u_LightStyleValues?$AA@
	mov	eax, DWORD PTR _shader$[ebp]
	mov	ecx, DWORD PTR [eax+576]
	push	ecx
	call	DWORD PTR ?pglGetUniformLocationARB@@3P6GHIPBD@ZA ; pglGetUniformLocationARB
	mov	edx, DWORD PTR _shader$[ebp]
	mov	DWORD PTR [edx+768], eax

; 870  : 	shader->u_ModelMatrix = pglGetUniformLocationARB( shader->handle, "u_ModelMatrix" );

	push	OFFSET ??_C@_0O@MBNOFNKO@u_ModelMatrix?$AA@
	mov	eax, DWORD PTR _shader$[ebp]
	mov	ecx, DWORD PTR [eax+576]
	push	ecx
	call	DWORD PTR ?pglGetUniformLocationARB@@3P6GHIPBD@ZA ; pglGetUniformLocationARB
	mov	edx, DWORD PTR _shader$[ebp]
	mov	DWORD PTR [edx+688], eax

; 871  : 	shader->u_FogParams = pglGetUniformLocationARB( shader->handle, "u_FogParams" );

	push	OFFSET ??_C@_0M@LNDNBCGB@u_FogParams?$AA@
	mov	eax, DWORD PTR _shader$[ebp]
	mov	ecx, DWORD PTR [eax+576]
	push	ecx
	call	DWORD PTR ?pglGetUniformLocationARB@@3P6GHIPBD@ZA ; pglGetUniformLocationARB
	mov	edx, DWORD PTR _shader$[ebp]
	mov	DWORD PTR [edx+788], eax

; 872  : 
; 873  : 	GL_BindShader( shader );

	mov	eax, DWORD PTR _shader$[ebp]
	push	eax
	call	?GL_BindShader@@YAXPAUglsl_prog_s@@@Z	; GL_BindShader
	add	esp, 4

; 874  : 	pglUniform1iARB( shader->u_DecalMap, GL_TEXTURE0 );

	push	0
	mov	eax, DWORD PTR _shader$[ebp]
	mov	ecx, DWORD PTR [eax+628]
	push	ecx
	call	DWORD PTR ?pglUniform1iARB@@3P6GXHH@ZA	; pglUniform1iARB

; 875  : 	pglUniform1iARB( shader->u_ColorMap, GL_TEXTURE1 ); // detect alpha holes

	push	1
	mov	eax, DWORD PTR _shader$[ebp]
	mov	ecx, DWORD PTR [eax+588]
	push	ecx
	call	DWORD PTR ?pglUniform1iARB@@3P6GXHH@ZA	; pglUniform1iARB

; 876  : 	pglUniform1iARB( shader->u_LightMap, GL_TEXTURE2 );

	push	2
	mov	eax, DWORD PTR _shader$[ebp]
	mov	ecx, DWORD PTR [eax+620]
	push	ecx
	call	DWORD PTR ?pglUniform1iARB@@3P6GXHH@ZA	; pglUniform1iARB

; 877  : 	GL_BindShader( GL_NONE );

	push	0
	call	?GL_BindShader@@YAXPAUglsl_prog_s@@@Z	; GL_BindShader
	add	esp, 4

; 878  : 
; 879  : 	GL_ValidateProgram( shader );

	mov	eax, DWORD PTR _shader$[ebp]
	push	eax
	call	?GL_ValidateProgram@@YAXPAUglsl_prog_s@@@Z ; GL_ValidateProgram
	add	esp, 4

; 880  : 	GL_ShowProgramUniforms( shader );

	mov	eax, DWORD PTR _shader$[ebp]
	push	eax
	call	?GL_ShowProgramUniforms@@YAXPAUglsl_prog_s@@@Z ; GL_ShowProgramUniforms
	add	esp, 4

; 881  : }

	pop	edi
	pop	esi
	pop	ebx
	mov	esp, ebp
	pop	ebp
	ret	0
?GL_InitBmodelDecalUniforms@@YAXPAUglsl_prog_s@@@Z ENDP	; GL_InitBmodelDecalUniforms
_TEXT	ENDS
; Function compile flags: /Odtp /ZI
; File d:\!diffusion 2020\source code 2022\client-server\client\render\r_shader.cpp
;	COMDAT ?GL_InitBmodelDepthFillUniforms@@YAXPAUglsl_prog_s@@@Z
_TEXT	SEGMENT
_shader$ = 8						; size = 4
?GL_InitBmodelDepthFillUniforms@@YAXPAUglsl_prog_s@@@Z PROC ; GL_InitBmodelDepthFillUniforms, COMDAT

; 846  : {

	push	ebp
	mov	ebp, esp
	sub	esp, 64					; 00000040H
	push	ebx
	push	esi
	push	edi

; 847  : 	ASSERT( shader != NULL );

	cmp	DWORD PTR _shader$[ebp], 0
	jne	SHORT $LN2@GL_InitBmo
	mov	eax, DWORD PTR ?__LINE__Var@?0??GL_InitBmodelDepthFillUniforms@@YAXPAUglsl_prog_s@@@Z@4JA
	add	eax, 1
	push	eax
	push	OFFSET ??_C@_0EN@DPFBEFBL@d?3?2?$CBdiffusion?52020?2source?5code?52@
	push	OFFSET ??_C@_0BI@FECCGOFJ@assert?5failed?5at?5?$CFs?3?$CFi?6?$AA@
	call	DWORD PTR ?gRenderfuncs@@3Urender_api_s@@A+236
	add	esp, 12					; 0000000cH
$LN2@GL_InitBmo:

; 848  : 
; 849  : 	shader->u_ColorMap = pglGetUniformLocationARB( shader->handle, "u_ColorMap" );

	push	OFFSET ??_C@_0L@IEDEJAAC@u_ColorMap?$AA@
	mov	eax, DWORD PTR _shader$[ebp]
	mov	ecx, DWORD PTR [eax+576]
	push	ecx
	call	DWORD PTR ?pglGetUniformLocationARB@@3P6GHIPBD@ZA ; pglGetUniformLocationARB
	mov	edx, DWORD PTR _shader$[ebp]
	mov	DWORD PTR [edx+588], eax

; 850  : 	shader->u_TexOffset = pglGetUniformLocationARB( shader->handle, "u_TexOffset" );

	push	OFFSET ??_C@_0M@MGCFPBL@u_TexOffset?$AA@
	mov	eax, DWORD PTR _shader$[ebp]
	mov	ecx, DWORD PTR [eax+576]
	push	ecx
	call	DWORD PTR ?pglGetUniformLocationARB@@3P6GHIPBD@ZA ; pglGetUniformLocationARB
	mov	edx, DWORD PTR _shader$[ebp]
	mov	DWORD PTR [edx+860], eax

; 851  : 	shader->u_ModelMatrix = pglGetUniformLocationARB( shader->handle, "u_ModelMatrix" );

	push	OFFSET ??_C@_0O@MBNOFNKO@u_ModelMatrix?$AA@
	mov	eax, DWORD PTR _shader$[ebp]
	mov	ecx, DWORD PTR [eax+576]
	push	ecx
	call	DWORD PTR ?pglGetUniformLocationARB@@3P6GHIPBD@ZA ; pglGetUniformLocationARB
	mov	edx, DWORD PTR _shader$[ebp]
	mov	DWORD PTR [edx+688], eax

; 852  : 
; 853  : 	GL_BindShader( shader );

	mov	eax, DWORD PTR _shader$[ebp]
	push	eax
	call	?GL_BindShader@@YAXPAUglsl_prog_s@@@Z	; GL_BindShader
	add	esp, 4

; 854  : 	pglUniform1iARB( shader->u_ColorMap, GL_TEXTURE0 );

	push	0
	mov	eax, DWORD PTR _shader$[ebp]
	mov	ecx, DWORD PTR [eax+588]
	push	ecx
	call	DWORD PTR ?pglUniform1iARB@@3P6GXHH@ZA	; pglUniform1iARB

; 855  : 	GL_BindShader( GL_NONE );

	push	0
	call	?GL_BindShader@@YAXPAUglsl_prog_s@@@Z	; GL_BindShader
	add	esp, 4

; 856  : 
; 857  : 	GL_ValidateProgram( shader );

	mov	eax, DWORD PTR _shader$[ebp]
	push	eax
	call	?GL_ValidateProgram@@YAXPAUglsl_prog_s@@@Z ; GL_ValidateProgram
	add	esp, 4

; 858  : 	GL_ShowProgramUniforms( shader );

	mov	eax, DWORD PTR _shader$[ebp]
	push	eax
	call	?GL_ShowProgramUniforms@@YAXPAUglsl_prog_s@@@Z ; GL_ShowProgramUniforms
	add	esp, 4

; 859  : }

	pop	edi
	pop	esi
	pop	ebx
	mov	esp, ebp
	pop	ebp
	ret	0
?GL_InitBmodelDepthFillUniforms@@YAXPAUglsl_prog_s@@@Z ENDP ; GL_InitBmodelDepthFillUniforms
_TEXT	ENDS
; Function compile flags: /Odtp /ZI
; File d:\!diffusion 2020\source code 2022\client-server\client\render\r_shader.cpp
;	COMDAT ?GL_InitBmodelDlightUniforms@@YAXPAUglsl_prog_s@@@Z
_TEXT	SEGMENT
_shader$ = 8						; size = 4
?GL_InitBmodelDlightUniforms@@YAXPAUglsl_prog_s@@@Z PROC ; GL_InitBmodelDlightUniforms, COMDAT

; 785  : {

	push	ebp
	mov	ebp, esp
	sub	esp, 64					; 00000040H
	push	ebx
	push	esi
	push	edi

; 786  : 	ASSERT( shader != NULL );

	cmp	DWORD PTR _shader$[ebp], 0
	jne	SHORT $LN2@GL_InitBmo
	mov	eax, DWORD PTR ?__LINE__Var@?0??GL_InitBmodelDlightUniforms@@YAXPAUglsl_prog_s@@@Z@4JA
	add	eax, 1
	push	eax
	push	OFFSET ??_C@_0EN@DPFBEFBL@d?3?2?$CBdiffusion?52020?2source?5code?52@
	push	OFFSET ??_C@_0BI@FECCGOFJ@assert?5failed?5at?5?$CFs?3?$CFi?6?$AA@
	call	DWORD PTR ?gRenderfuncs@@3Urender_api_s@@A+236
	add	esp, 12					; 0000000cH
$LN2@GL_InitBmo:

; 787  : 
; 788  : 	shader->u_ColorMap = pglGetUniformLocationARB( shader->handle, "u_ColorMap" );

	push	OFFSET ??_C@_0L@IEDEJAAC@u_ColorMap?$AA@
	mov	eax, DWORD PTR _shader$[ebp]
	mov	ecx, DWORD PTR [eax+576]
	push	ecx
	call	DWORD PTR ?pglGetUniformLocationARB@@3P6GHIPBD@ZA ; pglGetUniformLocationARB
	mov	edx, DWORD PTR _shader$[ebp]
	mov	DWORD PTR [edx+588], eax

; 789  : 	shader->u_DetailMap = pglGetUniformLocationARB( shader->handle, "u_DetailMap" );

	push	OFFSET ??_C@_0M@CLJGMBED@u_DetailMap?$AA@
	mov	eax, DWORD PTR _shader$[ebp]
	mov	ecx, DWORD PTR [eax+576]
	push	ecx
	call	DWORD PTR ?pglGetUniformLocationARB@@3P6GHIPBD@ZA ; pglGetUniformLocationARB
	mov	edx, DWORD PTR _shader$[ebp]
	mov	DWORD PTR [edx+604], eax

; 790  : 	shader->u_ProjectMap = pglGetUniformLocationARB( shader->handle, "u_ProjectMap" );

	push	OFFSET ??_C@_0N@FKEMJKI@u_ProjectMap?$AA@
	mov	eax, DWORD PTR _shader$[ebp]
	mov	ecx, DWORD PTR [eax+576]
	push	ecx
	call	DWORD PTR ?pglGetUniformLocationARB@@3P6GHIPBD@ZA ; pglGetUniformLocationARB
	mov	edx, DWORD PTR _shader$[ebp]
	mov	DWORD PTR [edx+608], eax

; 791  : 	shader->u_ShadowMap = pglGetUniformLocationARB( shader->handle, "u_ShadowMap" ); // shadow2D or shadowCube

	push	OFFSET ??_C@_0M@LIKBOJOD@u_ShadowMap?$AA@
	mov	eax, DWORD PTR _shader$[ebp]
	mov	ecx, DWORD PTR [eax+576]
	push	ecx
	call	DWORD PTR ?pglGetUniformLocationARB@@3P6GHIPBD@ZA ; pglGetUniformLocationARB
	mov	edx, DWORD PTR _shader$[ebp]
	mov	DWORD PTR [edx+612], eax

; 792  : 	shader->u_ScreenMap = pglGetUniformLocationARB( shader->handle, "u_ScreenMap" );

	push	OFFSET ??_C@_0M@KCNMJMNH@u_ScreenMap?$AA@
	mov	eax, DWORD PTR _shader$[ebp]
	mov	ecx, DWORD PTR [eax+576]
	push	ecx
	call	DWORD PTR ?pglGetUniformLocationARB@@3P6GHIPBD@ZA ; pglGetUniformLocationARB
	mov	edx, DWORD PTR _shader$[ebp]
	mov	DWORD PTR [edx+632], eax

; 793  : 	shader->u_NormalMap = pglGetUniformLocationARB( shader->handle, "u_NormalMap" );

	push	OFFSET ??_C@_0M@EEAGDKIK@u_NormalMap?$AA@
	mov	eax, DWORD PTR _shader$[ebp]
	mov	ecx, DWORD PTR [eax+576]
	push	ecx
	call	DWORD PTR ?pglGetUniformLocationARB@@3P6GHIPBD@ZA ; pglGetUniformLocationARB
	mov	edx, DWORD PTR _shader$[ebp]
	mov	DWORD PTR [edx+596], eax

; 794  : 
; 795  : 	if( GL_FindShaderDirective( shader, "BMODEL_MULTI_LAYERS" ))

	push	OFFSET ??_C@_0BE@FBBOMMAP@BMODEL_MULTI_LAYERS?$AA@
	mov	eax, DWORD PTR _shader$[ebp]
	push	eax
	call	?GL_FindShaderDirective@@YA_NPAUglsl_prog_s@@PBD@Z ; GL_FindShaderDirective
	add	esp, 8
	movzx	ecx, al
	test	ecx, ecx
	je	SHORT $LN3@GL_InitBmo

; 796  : 		shader->u_LayerMap = pglGetUniformLocationARB( shader->handle, "u_LayerMap" );

	push	OFFSET ??_C@_0L@NKHKNNOO@u_LayerMap?$AA@
	mov	eax, DWORD PTR _shader$[ebp]
	mov	ecx, DWORD PTR [eax+576]
	push	ecx
	call	DWORD PTR ?pglGetUniformLocationARB@@3P6GHIPBD@ZA ; pglGetUniformLocationARB
	mov	edx, DWORD PTR _shader$[ebp]
	mov	DWORD PTR [edx+648], eax
$LN3@GL_InitBmo:

; 797  : 
; 798  : 	shader->u_ModelMatrix = pglGetUniformLocationARB( shader->handle, "u_ModelMatrix" );

	push	OFFSET ??_C@_0O@MBNOFNKO@u_ModelMatrix?$AA@
	mov	eax, DWORD PTR _shader$[ebp]
	mov	ecx, DWORD PTR [eax+576]
	push	ecx
	call	DWORD PTR ?pglGetUniformLocationARB@@3P6GHIPBD@ZA ; pglGetUniformLocationARB
	mov	edx, DWORD PTR _shader$[ebp]
	mov	DWORD PTR [edx+688], eax

; 799  : 	shader->u_DetailScale = pglGetUniformLocationARB( shader->handle, "u_DetailScale" );

	push	OFFSET ??_C@_0O@MFMJGIKB@u_DetailScale?$AA@
	mov	eax, DWORD PTR _shader$[ebp]
	mov	ecx, DWORD PTR [eax+576]
	push	ecx
	call	DWORD PTR ?pglGetUniformLocationARB@@3P6GHIPBD@ZA ; pglGetUniformLocationARB
	mov	edx, DWORD PTR _shader$[ebp]
	mov	DWORD PTR [edx+840], eax

; 800  : 	shader->u_TexOffset = pglGetUniformLocationARB( shader->handle, "u_TexOffset" );

	push	OFFSET ??_C@_0M@MGCFPBL@u_TexOffset?$AA@
	mov	eax, DWORD PTR _shader$[ebp]
	mov	ecx, DWORD PTR [eax+576]
	push	ecx
	call	DWORD PTR ?pglGetUniformLocationARB@@3P6GHIPBD@ZA ; pglGetUniformLocationARB
	mov	edx, DWORD PTR _shader$[ebp]
	mov	DWORD PTR [edx+860], eax

; 801  : 
; 802  : 	shader->u_LightDir = pglGetUniformLocationARB( shader->handle, "u_LightDir" );

	push	OFFSET ??_C@_0L@EMINLLAG@u_LightDir?$AA@
	mov	eax, DWORD PTR _shader$[ebp]
	mov	ecx, DWORD PTR [eax+576]
	push	ecx
	call	DWORD PTR ?pglGetUniformLocationARB@@3P6GHIPBD@ZA ; pglGetUniformLocationARB
	mov	edx, DWORD PTR _shader$[ebp]
	mov	DWORD PTR [edx+744], eax

; 803  : 	shader->u_LightDiffuse = pglGetUniformLocationARB( shader->handle, "u_LightDiffuse" );

	push	OFFSET ??_C@_0P@IBMOHOLF@u_LightDiffuse?$AA@
	mov	eax, DWORD PTR _shader$[ebp]
	mov	ecx, DWORD PTR [eax+576]
	push	ecx
	call	DWORD PTR ?pglGetUniformLocationARB@@3P6GHIPBD@ZA ; pglGetUniformLocationARB
	mov	edx, DWORD PTR _shader$[ebp]
	mov	DWORD PTR [edx+760], eax

; 804  : 	shader->u_ShadowParams = pglGetUniformLocationARB( shader->handle, "u_ShadowParams" );

	push	OFFSET ??_C@_0P@DOIHPJNE@u_ShadowParams?$AA@
	mov	eax, DWORD PTR _shader$[ebp]
	mov	ecx, DWORD PTR [eax+576]
	push	ecx
	call	DWORD PTR ?pglGetUniformLocationARB@@3P6GHIPBD@ZA ; pglGetUniformLocationARB
	mov	edx, DWORD PTR _shader$[ebp]
	mov	DWORD PTR [edx+836], eax

; 805  : 	shader->u_LightOrigin = pglGetUniformLocationARB( shader->handle, "u_LightOrigin" );

	push	OFFSET ??_C@_0O@PGBKINBN@u_LightOrigin?$AA@
	mov	eax, DWORD PTR _shader$[ebp]
	mov	ecx, DWORD PTR [eax+576]
	push	ecx
	call	DWORD PTR ?pglGetUniformLocationARB@@3P6GHIPBD@ZA ; pglGetUniformLocationARB
	mov	edx, DWORD PTR _shader$[ebp]
	mov	DWORD PTR [edx+792], eax

; 806  : 	shader->u_LightViewProjectionMatrix = pglGetUniformLocationARB( shader->handle, "u_LightViewProjectionMatrix" );

	push	OFFSET ??_C@_0BM@OPAKJEIH@u_LightViewProjectionMatrix?$AA@
	mov	eax, DWORD PTR _shader$[ebp]
	mov	ecx, DWORD PTR [eax+576]
	push	ecx
	call	DWORD PTR ?pglGetUniformLocationARB@@3P6GHIPBD@ZA ; pglGetUniformLocationARB
	mov	edx, DWORD PTR _shader$[ebp]
	mov	DWORD PTR [edx+696], eax

; 807  : 	shader->u_FogParams = pglGetUniformLocationARB( shader->handle, "u_FogParams" );

	push	OFFSET ??_C@_0M@LNDNBCGB@u_FogParams?$AA@
	mov	eax, DWORD PTR _shader$[ebp]
	mov	ecx, DWORD PTR [eax+576]
	push	ecx
	call	DWORD PTR ?pglGetUniformLocationARB@@3P6GHIPBD@ZA ; pglGetUniformLocationARB
	mov	edx, DWORD PTR _shader$[ebp]
	mov	DWORD PTR [edx+788], eax

; 808  : 	shader->u_ScreenSizeInv = pglGetUniformLocationARB( shader->handle, "u_ScreenSizeInv" );

	push	OFFSET ??_C@_0BA@CNHIBBKL@u_ScreenSizeInv?$AA@
	mov	eax, DWORD PTR _shader$[ebp]
	mov	ecx, DWORD PTR [eax+576]
	push	ecx
	call	DWORD PTR ?pglGetUniformLocationARB@@3P6GHIPBD@ZA ; pglGetUniformLocationARB
	mov	edx, DWORD PTR _shader$[ebp]
	mov	DWORD PTR [edx+724], eax

; 809  : 	shader->u_RenderColor = pglGetUniformLocationARB( shader->handle, "u_RenderColor" );

	push	OFFSET ??_C@_0O@PDAILIH@u_RenderColor?$AA@
	mov	eax, DWORD PTR _shader$[ebp]
	mov	ecx, DWORD PTR [eax+576]
	push	ecx
	call	DWORD PTR ?pglGetUniformLocationARB@@3P6GHIPBD@ZA ; pglGetUniformLocationARB
	mov	edx, DWORD PTR _shader$[ebp]
	mov	DWORD PTR [edx+864], eax

; 810  : 	shader->u_DynLightBrightness = pglGetUniformLocationARB( shader->handle, "u_DynLightBrightness" );

	push	OFFSET ??_C@_0BF@DEABILDM@u_DynLightBrightness?$AA@
	mov	eax, DWORD PTR _shader$[ebp]
	mov	ecx, DWORD PTR [eax+576]
	push	ecx
	call	DWORD PTR ?pglGetUniformLocationARB@@3P6GHIPBD@ZA ; pglGetUniformLocationARB
	mov	edx, DWORD PTR _shader$[ebp]
	mov	DWORD PTR [edx+912], eax

; 811  : 	shader->u_ViewOrigin = pglGetUniformLocationARB( shader->handle, "u_ViewOrigin" );

	push	OFFSET ??_C@_0N@GOCFBCHC@u_ViewOrigin?$AA@
	mov	eax, DWORD PTR _shader$[ebp]
	mov	ecx, DWORD PTR [eax+576]
	push	ecx
	call	DWORD PTR ?pglGetUniformLocationARB@@3P6GHIPBD@ZA ; pglGetUniformLocationARB
	mov	edx, DWORD PTR _shader$[ebp]
	mov	DWORD PTR [edx+800], eax

; 812  : 	shader->u_GlossScale = pglGetUniformLocationARB( shader->handle, "u_GlossScale" );

	push	OFFSET ??_C@_0N@NPMHADLB@u_GlossScale?$AA@
	mov	eax, DWORD PTR _shader$[ebp]
	mov	ecx, DWORD PTR [eax+576]
	push	ecx
	call	DWORD PTR ?pglGetUniformLocationARB@@3P6GHIPBD@ZA ; pglGetUniformLocationARB
	mov	edx, DWORD PTR _shader$[ebp]
	mov	DWORD PTR [edx+916], eax

; 813  : 	shader->u_GlossSmoothness = pglGetUniformLocationARB( shader->handle, "u_GlossSmoothness" );

	push	OFFSET ??_C@_0BC@KIIHBDPB@u_GlossSmoothness?$AA@
	mov	eax, DWORD PTR _shader$[ebp]
	mov	ecx, DWORD PTR [eax+576]
	push	ecx
	call	DWORD PTR ?pglGetUniformLocationARB@@3P6GHIPBD@ZA ; pglGetUniformLocationARB
	mov	edx, DWORD PTR _shader$[ebp]
	mov	DWORD PTR [edx+920], eax

; 814  : 	shader->u_EmbossScale = pglGetUniformLocationARB( shader->handle, "u_EmbossScale" );

	push	OFFSET ??_C@_0O@HKDACOHC@u_EmbossScale?$AA@
	mov	eax, DWORD PTR _shader$[ebp]
	mov	ecx, DWORD PTR [eax+576]
	push	ecx
	call	DWORD PTR ?pglGetUniformLocationARB@@3P6GHIPBD@ZA ; pglGetUniformLocationARB
	mov	edx, DWORD PTR _shader$[ebp]
	mov	DWORD PTR [edx+924], eax

; 815  : 
; 816  : 	if( GL_FindShaderDirective( shader, "BMODEL_INTERIOR" ) )

	push	OFFSET ??_C@_0BA@ELFGANLK@BMODEL_INTERIOR?$AA@
	mov	eax, DWORD PTR _shader$[ebp]
	push	eax
	call	?GL_FindShaderDirective@@YA_NPAUglsl_prog_s@@PBD@Z ; GL_FindShaderDirective
	add	esp, 8
	movzx	ecx, al
	test	ecx, ecx
	je	SHORT $LN4@GL_InitBmo

; 817  : 	{
; 818  : 		shader->u_InteriorMap = pglGetUniformLocationARB( shader->handle, "u_InteriorMap" );

	push	OFFSET ??_C@_0O@KNPDKBPI@u_InteriorMap?$AA@
	mov	eax, DWORD PTR _shader$[ebp]
	mov	ecx, DWORD PTR [eax+576]
	push	ecx
	call	DWORD PTR ?pglGetUniformLocationARB@@3P6GHIPBD@ZA ; pglGetUniformLocationARB
	mov	edx, DWORD PTR _shader$[ebp]
	mov	DWORD PTR [edx+660], eax

; 819  : 		shader->u_RealTime = pglGetUniformLocationARB( shader->handle, "u_RealTime" );

	push	OFFSET ??_C@_0L@BGHCDECL@u_RealTime?$AA@
	mov	eax, DWORD PTR _shader$[ebp]
	mov	ecx, DWORD PTR [eax+576]
	push	ecx
	call	DWORD PTR ?pglGetUniformLocationARB@@3P6GHIPBD@ZA ; pglGetUniformLocationARB
	mov	edx, DWORD PTR _shader$[ebp]
	mov	DWORD PTR [edx+868], eax

; 820  : 		shader->u_InteriorGrid = pglGetUniformLocationARB( shader->handle, "u_InteriorGrid" );

	push	OFFSET ??_C@_0P@KJLBFPAD@u_InteriorGrid?$AA@
	mov	eax, DWORD PTR _shader$[ebp]
	mov	ecx, DWORD PTR [eax+576]
	push	ecx
	call	DWORD PTR ?pglGetUniformLocationARB@@3P6GHIPBD@ZA ; pglGetUniformLocationARB
	mov	edx, DWORD PTR _shader$[ebp]
	mov	DWORD PTR [edx+664], eax

; 821  : 		shader->u_InteriorLightState = pglGetUniformLocationARB( shader->handle, "u_InteriorLightState" );

	push	OFFSET ??_C@_0BF@HKDFFBEE@u_InteriorLightState?$AA@
	mov	eax, DWORD PTR _shader$[ebp]
	mov	ecx, DWORD PTR [eax+576]
	push	ecx
	call	DWORD PTR ?pglGetUniformLocationARB@@3P6GHIPBD@ZA ; pglGetUniformLocationARB
	mov	edx, DWORD PTR _shader$[ebp]
	mov	DWORD PTR [edx+668], eax
$LN4@GL_InitBmo:

; 822  : 	}
; 823  : 
; 824  : 	GL_BindShader( shader );

	mov	eax, DWORD PTR _shader$[ebp]
	push	eax
	call	?GL_BindShader@@YAXPAUglsl_prog_s@@@Z	; GL_BindShader
	add	esp, 4

; 825  : 	pglUniform1iARB( shader->u_ColorMap, GL_TEXTURE0 );

	push	0
	mov	eax, DWORD PTR _shader$[ebp]
	mov	ecx, DWORD PTR [eax+588]
	push	ecx
	call	DWORD PTR ?pglUniform1iARB@@3P6GXHH@ZA	; pglUniform1iARB

; 826  : 	pglUniform1iARB( shader->u_DetailMap, GL_TEXTURE1 );

	push	1
	mov	eax, DWORD PTR _shader$[ebp]
	mov	ecx, DWORD PTR [eax+604]
	push	ecx
	call	DWORD PTR ?pglUniform1iARB@@3P6GXHH@ZA	; pglUniform1iARB

; 827  : 	pglUniform1iARB( shader->u_ProjectMap, GL_TEXTURE2 );	// projection lights only

	push	2
	mov	eax, DWORD PTR _shader$[ebp]
	mov	ecx, DWORD PTR [eax+608]
	push	ecx
	call	DWORD PTR ?pglUniform1iARB@@3P6GXHH@ZA	; pglUniform1iARB

; 828  : 	pglUniform1iARB( shader->u_ShadowMap, GL_TEXTURE3 );	// shadowmap or cubemap

	push	3
	mov	eax, DWORD PTR _shader$[ebp]
	mov	ecx, DWORD PTR [eax+612]
	push	ecx
	call	DWORD PTR ?pglUniform1iARB@@3P6GXHH@ZA	; pglUniform1iARB

; 829  : 	pglUniform1iARB( shader->u_ScreenMap, GL_TEXTURE4 );

	push	4
	mov	eax, DWORD PTR _shader$[ebp]
	mov	ecx, DWORD PTR [eax+632]
	push	ecx
	call	DWORD PTR ?pglUniform1iARB@@3P6GXHH@ZA	; pglUniform1iARB

; 830  : 
; 831  : 	if( GL_FindShaderDirective( shader, "BMODEL_MULTI_LAYERS" ))

	push	OFFSET ??_C@_0BE@FBBOMMAP@BMODEL_MULTI_LAYERS?$AA@
	mov	eax, DWORD PTR _shader$[ebp]
	push	eax
	call	?GL_FindShaderDirective@@YA_NPAUglsl_prog_s@@PBD@Z ; GL_FindShaderDirective
	add	esp, 8
	movzx	ecx, al
	test	ecx, ecx
	je	SHORT $LN5@GL_InitBmo

; 832  : 		pglUniform1iARB( shader->u_LayerMap, GL_TEXTURE5 );

	push	5
	mov	eax, DWORD PTR _shader$[ebp]
	mov	ecx, DWORD PTR [eax+648]
	push	ecx
	call	DWORD PTR ?pglUniform1iARB@@3P6GXHH@ZA	; pglUniform1iARB
$LN5@GL_InitBmo:

; 833  : 
; 834  : 	pglUniform1iARB( shader->u_NormalMap, GL_TEXTURE6 );

	push	6
	mov	eax, DWORD PTR _shader$[ebp]
	mov	ecx, DWORD PTR [eax+596]
	push	ecx
	call	DWORD PTR ?pglUniform1iARB@@3P6GXHH@ZA	; pglUniform1iARB

; 835  : 
; 836  : 	if( GL_FindShaderDirective( shader, "BMODEL_INTERIOR" ) )

	push	OFFSET ??_C@_0BA@ELFGANLK@BMODEL_INTERIOR?$AA@
	mov	eax, DWORD PTR _shader$[ebp]
	push	eax
	call	?GL_FindShaderDirective@@YA_NPAUglsl_prog_s@@PBD@Z ; GL_FindShaderDirective
	add	esp, 8
	movzx	ecx, al
	test	ecx, ecx
	je	SHORT $LN6@GL_InitBmo

; 837  : 		pglUniform1iARB( shader->u_InteriorMap, GL_TEXTURE7 );

	push	7
	mov	eax, DWORD PTR _shader$[ebp]
	mov	ecx, DWORD PTR [eax+660]
	push	ecx
	call	DWORD PTR ?pglUniform1iARB@@3P6GXHH@ZA	; pglUniform1iARB
$LN6@GL_InitBmo:

; 838  : 
; 839  : 	GL_BindShader( GL_NONE );

	push	0
	call	?GL_BindShader@@YAXPAUglsl_prog_s@@@Z	; GL_BindShader
	add	esp, 4

; 840  : 
; 841  : 	GL_ValidateProgram( shader );

	mov	eax, DWORD PTR _shader$[ebp]
	push	eax
	call	?GL_ValidateProgram@@YAXPAUglsl_prog_s@@@Z ; GL_ValidateProgram
	add	esp, 4

; 842  : 	GL_ShowProgramUniforms( shader );

	mov	eax, DWORD PTR _shader$[ebp]
	push	eax
	call	?GL_ShowProgramUniforms@@YAXPAUglsl_prog_s@@@Z ; GL_ShowProgramUniforms
	add	esp, 4

; 843  : }

	pop	edi
	pop	esi
	pop	ebx
	mov	esp, ebp
	pop	ebp
	ret	0
?GL_InitBmodelDlightUniforms@@YAXPAUglsl_prog_s@@@Z ENDP ; GL_InitBmodelDlightUniforms
_TEXT	ENDS
; Function compile flags: /Odtp /ZI
; File d:\!diffusion 2020\source code 2022\client-server\client\render\r_shader.cpp
;	COMDAT ?GL_InitSolidBmodelUniforms@@YAXPAUglsl_prog_s@@@Z
_TEXT	SEGMENT
_shader$ = 8						; size = 4
?GL_InitSolidBmodelUniforms@@YAXPAUglsl_prog_s@@@Z PROC	; GL_InitSolidBmodelUniforms, COMDAT

; 697  : {

	push	ebp
	mov	ebp, esp
	sub	esp, 64					; 00000040H
	push	ebx
	push	esi
	push	edi

; 698  : 	ASSERT( shader != NULL );

	cmp	DWORD PTR _shader$[ebp], 0
	jne	SHORT $LN2@GL_InitSol
	mov	eax, DWORD PTR ?__LINE__Var@?0??GL_InitSolidBmodelUniforms@@YAXPAUglsl_prog_s@@@Z@4JA
	add	eax, 1
	push	eax
	push	OFFSET ??_C@_0EN@DPFBEFBL@d?3?2?$CBdiffusion?52020?2source?5code?52@
	push	OFFSET ??_C@_0BI@FECCGOFJ@assert?5failed?5at?5?$CFs?3?$CFi?6?$AA@
	call	DWORD PTR ?gRenderfuncs@@3Urender_api_s@@A+236
	add	esp, 12					; 0000000cH
$LN2@GL_InitSol:

; 699  : 
; 700  : 	shader->u_ColorMap = pglGetUniformLocationARB( shader->handle, "u_ColorMap" );

	push	OFFSET ??_C@_0L@IEDEJAAC@u_ColorMap?$AA@
	mov	eax, DWORD PTR _shader$[ebp]
	mov	ecx, DWORD PTR [eax+576]
	push	ecx
	call	DWORD PTR ?pglGetUniformLocationARB@@3P6GHIPBD@ZA ; pglGetUniformLocationARB
	mov	edx, DWORD PTR _shader$[ebp]
	mov	DWORD PTR [edx+588], eax

; 701  : 	shader->u_DetailMap = pglGetUniformLocationARB( shader->handle, "u_DetailMap" );

	push	OFFSET ??_C@_0M@CLJGMBED@u_DetailMap?$AA@
	mov	eax, DWORD PTR _shader$[ebp]
	mov	ecx, DWORD PTR [eax+576]
	push	ecx
	call	DWORD PTR ?pglGetUniformLocationARB@@3P6GHIPBD@ZA ; pglGetUniformLocationARB
	mov	edx, DWORD PTR _shader$[ebp]
	mov	DWORD PTR [edx+604], eax

; 702  : 	shader->u_LightMap = pglGetUniformLocationARB( shader->handle, "u_LightMap" );

	push	OFFSET ??_C@_0L@NKAMHLG@u_LightMap?$AA@
	mov	eax, DWORD PTR _shader$[ebp]
	mov	ecx, DWORD PTR [eax+576]
	push	ecx
	call	DWORD PTR ?pglGetUniformLocationARB@@3P6GHIPBD@ZA ; pglGetUniformLocationARB
	mov	edx, DWORD PTR _shader$[ebp]
	mov	DWORD PTR [edx+620], eax

; 703  : 	shader->u_ScreenMap = pglGetUniformLocationARB( shader->handle, "u_ScreenMap" );

	push	OFFSET ??_C@_0M@KCNMJMNH@u_ScreenMap?$AA@
	mov	eax, DWORD PTR _shader$[ebp]
	mov	ecx, DWORD PTR [eax+576]
	push	ecx
	call	DWORD PTR ?pglGetUniformLocationARB@@3P6GHIPBD@ZA ; pglGetUniformLocationARB
	mov	edx, DWORD PTR _shader$[ebp]
	mov	DWORD PTR [edx+632], eax

; 704  : 	shader->u_GlowMap = pglGetUniformLocationARB( shader->handle, "u_GlowMap" );

	push	OFFSET ??_C@_09HDLEGDMG@u_GlowMap?$AA@
	mov	eax, DWORD PTR _shader$[ebp]
	mov	ecx, DWORD PTR [eax+576]
	push	ecx
	call	DWORD PTR ?pglGetUniformLocationARB@@3P6GHIPBD@ZA ; pglGetUniformLocationARB
	mov	edx, DWORD PTR _shader$[ebp]
	mov	DWORD PTR [edx+644], eax

; 705  : 	shader->u_NormalMap = pglGetUniformLocationARB( shader->handle, "u_NormalMap" );

	push	OFFSET ??_C@_0M@EEAGDKIK@u_NormalMap?$AA@
	mov	eax, DWORD PTR _shader$[ebp]
	mov	ecx, DWORD PTR [eax+576]
	push	ecx
	call	DWORD PTR ?pglGetUniformLocationARB@@3P6GHIPBD@ZA ; pglGetUniformLocationARB
	mov	edx, DWORD PTR _shader$[ebp]
	mov	DWORD PTR [edx+596], eax

; 706  : 
; 707  : 	if( GL_FindShaderDirective( shader, "REFLECTION_CUBEMAP" ) ) // diffusioncubemaps

	push	OFFSET ??_C@_0BD@EMMENHMO@REFLECTION_CUBEMAP?$AA@
	mov	eax, DWORD PTR _shader$[ebp]
	push	eax
	call	?GL_FindShaderDirective@@YA_NPAUglsl_prog_s@@PBD@Z ; GL_FindShaderDirective
	add	esp, 8
	movzx	ecx, al
	test	ecx, ecx
	je	$LN3@GL_InitSol

; 708  : 	{
; 709  : 		shader->u_EnvMap0 = pglGetUniformLocationARB( shader->handle, "u_EnvMap0" );

	push	OFFSET ??_C@_09GODPBACC@u_EnvMap0?$AA@
	mov	eax, DWORD PTR _shader$[ebp]
	mov	ecx, DWORD PTR [eax+576]
	push	ecx
	call	DWORD PTR ?pglGetUniformLocationARB@@3P6GHIPBD@ZA ; pglGetUniformLocationARB
	mov	edx, DWORD PTR _shader$[ebp]
	mov	DWORD PTR [edx+636], eax

; 710  : 		shader->u_EnvMap1 = pglGetUniformLocationARB( shader->handle, "u_EnvMap1" );

	push	OFFSET ??_C@_09HHCECBGD@u_EnvMap1?$AA@
	mov	eax, DWORD PTR _shader$[ebp]
	mov	ecx, DWORD PTR [eax+576]
	push	ecx
	call	DWORD PTR ?pglGetUniformLocationARB@@3P6GHIPBD@ZA ; pglGetUniformLocationARB
	mov	edx, DWORD PTR _shader$[ebp]
	mov	DWORD PTR [edx+640], eax

; 711  : 		shader->u_CubeMipCount = pglGetUniformLocationARB( shader->handle, "u_CubeMipCount" );

	push	OFFSET ??_C@_0P@CEPEBBNL@u_CubeMipCount?$AA@
	mov	eax, DWORD PTR _shader$[ebp]
	mov	ecx, DWORD PTR [eax+576]
	push	ecx
	call	DWORD PTR ?pglGetUniformLocationARB@@3P6GHIPBD@ZA ; pglGetUniformLocationARB
	mov	edx, DWORD PTR _shader$[ebp]
	mov	DWORD PTR [edx+884], eax

; 712  : 		shader->u_CubeOrigin = pglGetUniformLocationARB( shader->handle, "u_CubeOrigin" );

	push	OFFSET ??_C@_0N@NGOJEAAC@u_CubeOrigin?$AA@
	mov	eax, DWORD PTR _shader$[ebp]
	mov	ecx, DWORD PTR [eax+576]
	push	ecx
	call	DWORD PTR ?pglGetUniformLocationARB@@3P6GHIPBD@ZA ; pglGetUniformLocationARB
	mov	edx, DWORD PTR _shader$[ebp]
	mov	DWORD PTR [edx+880], eax

; 713  : 		shader->u_LerpFactor = pglGetUniformLocationARB( shader->handle, "u_LerpFactor" );

	push	OFFSET ??_C@_0N@BILMML@u_LerpFactor?$AA@
	mov	eax, DWORD PTR _shader$[ebp]
	mov	ecx, DWORD PTR [eax+576]
	push	ecx
	call	DWORD PTR ?pglGetUniformLocationARB@@3P6GHIPBD@ZA ; pglGetUniformLocationARB
	mov	edx, DWORD PTR _shader$[ebp]
	mov	DWORD PTR [edx+812], eax

; 714  : 		shader->u_BoxMins = pglGetUniformLocationARB( shader->handle, "u_BoxMins" );

	push	OFFSET ??_C@_09PANPMJKM@u_BoxMins?$AA@
	mov	eax, DWORD PTR _shader$[ebp]
	mov	ecx, DWORD PTR [eax+576]
	push	ecx
	call	DWORD PTR ?pglGetUniformLocationARB@@3P6GHIPBD@ZA ; pglGetUniformLocationARB
	mov	edx, DWORD PTR _shader$[ebp]
	mov	DWORD PTR [edx+872], eax

; 715  : 		shader->u_BoxMaxs = pglGetUniformLocationARB( shader->handle, "u_BoxMaxs" );

	push	OFFSET ??_C@_09CNMADOIB@u_BoxMaxs?$AA@
	mov	eax, DWORD PTR _shader$[ebp]
	mov	ecx, DWORD PTR [eax+576]
	push	ecx
	call	DWORD PTR ?pglGetUniformLocationARB@@3P6GHIPBD@ZA ; pglGetUniformLocationARB
	mov	edx, DWORD PTR _shader$[ebp]
	mov	DWORD PTR [edx+876], eax

; 716  : 		shader->u_ReflectScale = pglGetUniformLocationARB( shader->handle, "u_ReflectScale" );

	push	OFFSET ??_C@_0P@BIBHBLHM@u_ReflectScale?$AA@
	mov	eax, DWORD PTR _shader$[ebp]
	mov	ecx, DWORD PTR [eax+576]
	push	ecx
	call	DWORD PTR ?pglGetUniformLocationARB@@3P6GHIPBD@ZA ; pglGetUniformLocationARB
	mov	edx, DWORD PTR _shader$[ebp]
	mov	DWORD PTR [edx+852], eax
$LN3@GL_InitSol:

; 717  : 	}
; 718  : 
; 719  : 	if( GL_FindShaderDirective( shader, "BMODEL_INTERIOR" ) )

	push	OFFSET ??_C@_0BA@ELFGANLK@BMODEL_INTERIOR?$AA@
	mov	eax, DWORD PTR _shader$[ebp]
	push	eax
	call	?GL_FindShaderDirective@@YA_NPAUglsl_prog_s@@PBD@Z ; GL_FindShaderDirective
	add	esp, 8
	movzx	ecx, al
	test	ecx, ecx
	je	SHORT $LN4@GL_InitSol

; 720  : 	{
; 721  : 		shader->u_InteriorMap = pglGetUniformLocationARB( shader->handle, "u_InteriorMap" );

	push	OFFSET ??_C@_0O@KNPDKBPI@u_InteriorMap?$AA@
	mov	eax, DWORD PTR _shader$[ebp]
	mov	ecx, DWORD PTR [eax+576]
	push	ecx
	call	DWORD PTR ?pglGetUniformLocationARB@@3P6GHIPBD@ZA ; pglGetUniformLocationARB
	mov	edx, DWORD PTR _shader$[ebp]
	mov	DWORD PTR [edx+660], eax

; 722  : 		shader->u_RealTime = pglGetUniformLocationARB( shader->handle, "u_RealTime" );

	push	OFFSET ??_C@_0L@BGHCDECL@u_RealTime?$AA@
	mov	eax, DWORD PTR _shader$[ebp]
	mov	ecx, DWORD PTR [eax+576]
	push	ecx
	call	DWORD PTR ?pglGetUniformLocationARB@@3P6GHIPBD@ZA ; pglGetUniformLocationARB
	mov	edx, DWORD PTR _shader$[ebp]
	mov	DWORD PTR [edx+868], eax

; 723  : 		shader->u_InteriorGrid = pglGetUniformLocationARB( shader->handle, "u_InteriorGrid" );

	push	OFFSET ??_C@_0P@KJLBFPAD@u_InteriorGrid?$AA@
	mov	eax, DWORD PTR _shader$[ebp]
	mov	ecx, DWORD PTR [eax+576]
	push	ecx
	call	DWORD PTR ?pglGetUniformLocationARB@@3P6GHIPBD@ZA ; pglGetUniformLocationARB
	mov	edx, DWORD PTR _shader$[ebp]
	mov	DWORD PTR [edx+664], eax

; 724  : 		shader->u_InteriorLightState = pglGetUniformLocationARB( shader->handle, "u_InteriorLightState" );

	push	OFFSET ??_C@_0BF@HKDFFBEE@u_InteriorLightState?$AA@
	mov	eax, DWORD PTR _shader$[ebp]
	mov	ecx, DWORD PTR [eax+576]
	push	ecx
	call	DWORD PTR ?pglGetUniformLocationARB@@3P6GHIPBD@ZA ; pglGetUniformLocationARB
	mov	edx, DWORD PTR _shader$[ebp]
	mov	DWORD PTR [edx+668], eax
	jmp	$LN5@GL_InitSol
$LN4@GL_InitSol:

; 725  : 	}
; 726  : 	else if( GL_FindShaderDirective( shader, "BMODEL_REFLECTION_PLANAR" ) || GL_FindShaderDirective( shader, "BMODEL_WATER_PLANAR" ) )

	push	OFFSET ??_C@_0BJ@JCIGHEFN@BMODEL_REFLECTION_PLANAR?$AA@
	mov	eax, DWORD PTR _shader$[ebp]
	push	eax
	call	?GL_FindShaderDirective@@YA_NPAUglsl_prog_s@@PBD@Z ; GL_FindShaderDirective
	add	esp, 8
	movzx	ecx, al
	test	ecx, ecx
	jne	SHORT $LN7@GL_InitSol
	push	OFFSET ??_C@_0BE@LOJOFLMK@BMODEL_WATER_PLANAR?$AA@
	mov	eax, DWORD PTR _shader$[ebp]
	push	eax
	call	?GL_FindShaderDirective@@YA_NPAUglsl_prog_s@@PBD@Z ; GL_FindShaderDirective
	add	esp, 8
	movzx	ecx, al
	test	ecx, ecx
	je	SHORT $LN5@GL_InitSol
$LN7@GL_InitSol:

; 727  : 	{
; 728  : 		shader->u_PlanarReflectScale = pglGetUniformLocationARB( shader->handle, "u_PlanarReflectScale" );

	push	OFFSET ??_C@_0BF@HOPHCIFE@u_PlanarReflectScale?$AA@
	mov	eax, DWORD PTR _shader$[ebp]
	mov	ecx, DWORD PTR [eax+576]
	push	ecx
	call	DWORD PTR ?pglGetUniformLocationARB@@3P6GHIPBD@ZA ; pglGetUniformLocationARB
	mov	edx, DWORD PTR _shader$[ebp]
	mov	DWORD PTR [edx+856], eax

; 729  : 		if( GL_FindShaderDirective( shader, "BMODEL_WATER_PLANAR" ) )

	push	OFFSET ??_C@_0BE@LOJOFLMK@BMODEL_WATER_PLANAR?$AA@
	mov	eax, DWORD PTR _shader$[ebp]
	push	eax
	call	?GL_FindShaderDirective@@YA_NPAUglsl_prog_s@@PBD@Z ; GL_FindShaderDirective
	add	esp, 8
	movzx	ecx, al
	test	ecx, ecx
	je	SHORT $LN5@GL_InitSol

; 730  : 			shader->u_WaterTex = pglGetUniformLocationARB( shader->handle, "u_WaterTex" );

	push	OFFSET ??_C@_0L@HHPJFKED@u_WaterTex?$AA@
	mov	eax, DWORD PTR _shader$[ebp]
	mov	ecx, DWORD PTR [eax+576]
	push	ecx
	call	DWORD PTR ?pglGetUniformLocationARB@@3P6GHIPBD@ZA ; pglGetUniformLocationARB
	mov	edx, DWORD PTR _shader$[ebp]
	mov	DWORD PTR [edx+652], eax
$LN5@GL_InitSol:

; 731  : 	}
; 732  : 
; 733  : 	shader->u_ViewOrigin = pglGetUniformLocationARB( shader->handle, "u_ViewOrigin" );

	push	OFFSET ??_C@_0N@GOCFBCHC@u_ViewOrigin?$AA@
	mov	eax, DWORD PTR _shader$[ebp]
	mov	ecx, DWORD PTR [eax+576]
	push	ecx
	call	DWORD PTR ?pglGetUniformLocationARB@@3P6GHIPBD@ZA ; pglGetUniformLocationARB
	mov	edx, DWORD PTR _shader$[ebp]
	mov	DWORD PTR [edx+800], eax

; 734  : 	shader->u_DeluxeMap = pglGetUniformLocationARB( shader->handle, "u_DeluxeMap" );

	push	OFFSET ??_C@_0M@NCMDOAEP@u_DeluxeMap?$AA@
	mov	eax, DWORD PTR _shader$[ebp]
	mov	ecx, DWORD PTR [eax+576]
	push	ecx
	call	DWORD PTR ?pglGetUniformLocationARB@@3P6GHIPBD@ZA ; pglGetUniformLocationARB
	mov	edx, DWORD PTR _shader$[ebp]
	mov	DWORD PTR [edx+624], eax

; 735  : 	shader->u_GlossScale = pglGetUniformLocationARB( shader->handle, "u_GlossScale" );

	push	OFFSET ??_C@_0N@NPMHADLB@u_GlossScale?$AA@
	mov	eax, DWORD PTR _shader$[ebp]
	mov	ecx, DWORD PTR [eax+576]
	push	ecx
	call	DWORD PTR ?pglGetUniformLocationARB@@3P6GHIPBD@ZA ; pglGetUniformLocationARB
	mov	edx, DWORD PTR _shader$[ebp]
	mov	DWORD PTR [edx+916], eax

; 736  : 	shader->u_GlossSmoothness = pglGetUniformLocationARB( shader->handle, "u_GlossSmoothness" );

	push	OFFSET ??_C@_0BC@KIIHBDPB@u_GlossSmoothness?$AA@
	mov	eax, DWORD PTR _shader$[ebp]
	mov	ecx, DWORD PTR [eax+576]
	push	ecx
	call	DWORD PTR ?pglGetUniformLocationARB@@3P6GHIPBD@ZA ; pglGetUniformLocationARB
	mov	edx, DWORD PTR _shader$[ebp]
	mov	DWORD PTR [edx+920], eax

; 737  : 	shader->u_EmbossScale = pglGetUniformLocationARB( shader->handle, "u_EmbossScale" );

	push	OFFSET ??_C@_0O@HKDACOHC@u_EmbossScale?$AA@
	mov	eax, DWORD PTR _shader$[ebp]
	mov	ecx, DWORD PTR [eax+576]
	push	ecx
	call	DWORD PTR ?pglGetUniformLocationARB@@3P6GHIPBD@ZA ; pglGetUniformLocationARB
	mov	edx, DWORD PTR _shader$[ebp]
	mov	DWORD PTR [edx+924], eax

; 738  : 
; 739  : 	if( GL_FindShaderDirective( shader, "BMODEL_MULTI_LAYERS" ))

	push	OFFSET ??_C@_0BE@FBBOMMAP@BMODEL_MULTI_LAYERS?$AA@
	mov	eax, DWORD PTR _shader$[ebp]
	push	eax
	call	?GL_FindShaderDirective@@YA_NPAUglsl_prog_s@@PBD@Z ; GL_FindShaderDirective
	add	esp, 8
	movzx	ecx, al
	test	ecx, ecx
	je	SHORT $LN9@GL_InitSol

; 740  : 		shader->u_LayerMap = pglGetUniformLocationARB( shader->handle, "u_LayerMap" );

	push	OFFSET ??_C@_0L@NKHKNNOO@u_LayerMap?$AA@
	mov	eax, DWORD PTR _shader$[ebp]
	mov	ecx, DWORD PTR [eax+576]
	push	ecx
	call	DWORD PTR ?pglGetUniformLocationARB@@3P6GHIPBD@ZA ; pglGetUniformLocationARB
	mov	edx, DWORD PTR _shader$[ebp]
	mov	DWORD PTR [edx+648], eax
$LN9@GL_InitSol:

; 741  : 
; 742  : 	shader->u_DepthMap = pglGetUniformLocationARB( shader->handle, "u_DepthMap" );

	push	OFFSET ??_C@_0L@JCKKGKMC@u_DepthMap?$AA@
	mov	eax, DWORD PTR _shader$[ebp]
	mov	ecx, DWORD PTR [eax+576]
	push	ecx
	call	DWORD PTR ?pglGetUniformLocationARB@@3P6GHIPBD@ZA ; pglGetUniformLocationARB
	mov	edx, DWORD PTR _shader$[ebp]
	mov	DWORD PTR [edx+592], eax

; 743  : 
; 744  : 	shader->u_LightStyleValues = pglGetUniformLocationARB( shader->handle, "u_LightStyleValues" );

	push	OFFSET ??_C@_0BD@NFOOODNK@u_LightStyleValues?$AA@
	mov	eax, DWORD PTR _shader$[ebp]
	mov	ecx, DWORD PTR [eax+576]
	push	ecx
	call	DWORD PTR ?pglGetUniformLocationARB@@3P6GHIPBD@ZA ; pglGetUniformLocationARB
	mov	edx, DWORD PTR _shader$[ebp]
	mov	DWORD PTR [edx+768], eax

; 745  : 	shader->u_ModelMatrix = pglGetUniformLocationARB( shader->handle, "u_ModelMatrix" );

	push	OFFSET ??_C@_0O@MBNOFNKO@u_ModelMatrix?$AA@
	mov	eax, DWORD PTR _shader$[ebp]
	mov	ecx, DWORD PTR [eax+576]
	push	ecx
	call	DWORD PTR ?pglGetUniformLocationARB@@3P6GHIPBD@ZA ; pglGetUniformLocationARB
	mov	edx, DWORD PTR _shader$[ebp]
	mov	DWORD PTR [edx+688], eax

; 746  : 	shader->u_DetailScale = pglGetUniformLocationARB( shader->handle, "u_DetailScale" );

	push	OFFSET ??_C@_0O@MFMJGIKB@u_DetailScale?$AA@
	mov	eax, DWORD PTR _shader$[ebp]
	mov	ecx, DWORD PTR [eax+576]
	push	ecx
	call	DWORD PTR ?pglGetUniformLocationARB@@3P6GHIPBD@ZA ; pglGetUniformLocationARB
	mov	edx, DWORD PTR _shader$[ebp]
	mov	DWORD PTR [edx+840], eax

; 747  : 	shader->u_TexOffset = pglGetUniformLocationARB( shader->handle, "u_TexOffset" );

	push	OFFSET ??_C@_0M@MGCFPBL@u_TexOffset?$AA@
	mov	eax, DWORD PTR _shader$[ebp]
	mov	ecx, DWORD PTR [eax+576]
	push	ecx
	call	DWORD PTR ?pglGetUniformLocationARB@@3P6GHIPBD@ZA ; pglGetUniformLocationARB
	mov	edx, DWORD PTR _shader$[ebp]
	mov	DWORD PTR [edx+860], eax

; 748  : 	shader->u_FogParams = pglGetUniformLocationARB( shader->handle, "u_FogParams" );

	push	OFFSET ??_C@_0M@LNDNBCGB@u_FogParams?$AA@
	mov	eax, DWORD PTR _shader$[ebp]
	mov	ecx, DWORD PTR [eax+576]
	push	ecx
	call	DWORD PTR ?pglGetUniformLocationARB@@3P6GHIPBD@ZA ; pglGetUniformLocationARB
	mov	edx, DWORD PTR _shader$[ebp]
	mov	DWORD PTR [edx+788], eax

; 749  : 	shader->u_ScreenSizeInv = pglGetUniformLocationARB( shader->handle, "u_ScreenSizeInv" );

	push	OFFSET ??_C@_0BA@CNHIBBKL@u_ScreenSizeInv?$AA@
	mov	eax, DWORD PTR _shader$[ebp]
	mov	ecx, DWORD PTR [eax+576]
	push	ecx
	call	DWORD PTR ?pglGetUniformLocationARB@@3P6GHIPBD@ZA ; pglGetUniformLocationARB
	mov	edx, DWORD PTR _shader$[ebp]
	mov	DWORD PTR [edx+724], eax

; 750  : 	shader->u_RenderColor = pglGetUniformLocationARB( shader->handle, "u_RenderColor" );

	push	OFFSET ??_C@_0O@PDAILIH@u_RenderColor?$AA@
	mov	eax, DWORD PTR _shader$[ebp]
	mov	ecx, DWORD PTR [eax+576]
	push	ecx
	call	DWORD PTR ?pglGetUniformLocationARB@@3P6GHIPBD@ZA ; pglGetUniformLocationARB
	mov	edx, DWORD PTR _shader$[ebp]
	mov	DWORD PTR [edx+864], eax

; 751  : 	shader->u_zFar = pglGetUniformLocationARB( shader->handle, "u_zFar" );

	push	OFFSET ??_C@_06HIBKCAMD@u_zFar?$AA@
	mov	eax, DWORD PTR _shader$[ebp]
	mov	ecx, DWORD PTR [eax+576]
	push	ecx
	call	DWORD PTR ?pglGetUniformLocationARB@@3P6GHIPBD@ZA ; pglGetUniformLocationARB
	mov	edx, DWORD PTR _shader$[ebp]
	mov	DWORD PTR [edx+728], eax

; 752  : 
; 753  : 	GL_BindShader( shader );

	mov	eax, DWORD PTR _shader$[ebp]
	push	eax
	call	?GL_BindShader@@YAXPAUglsl_prog_s@@@Z	; GL_BindShader
	add	esp, 4

; 754  : 	pglUniform1iARB( shader->u_ColorMap, GL_TEXTURE0 );

	push	0
	mov	eax, DWORD PTR _shader$[ebp]
	mov	ecx, DWORD PTR [eax+588]
	push	ecx
	call	DWORD PTR ?pglUniform1iARB@@3P6GXHH@ZA	; pglUniform1iARB

; 755  : 	pglUniform1iARB( shader->u_DetailMap, GL_TEXTURE1 );

	push	1
	mov	eax, DWORD PTR _shader$[ebp]
	mov	ecx, DWORD PTR [eax+604]
	push	ecx
	call	DWORD PTR ?pglUniform1iARB@@3P6GXHH@ZA	; pglUniform1iARB

; 756  : 	pglUniform1iARB( shader->u_LightMap, GL_TEXTURE2 );

	push	2
	mov	eax, DWORD PTR _shader$[ebp]
	mov	ecx, DWORD PTR [eax+620]
	push	ecx
	call	DWORD PTR ?pglUniform1iARB@@3P6GXHH@ZA	; pglUniform1iARB

; 757  : 	pglUniform1iARB( shader->u_ScreenMap, GL_TEXTURE3 );

	push	3
	mov	eax, DWORD PTR _shader$[ebp]
	mov	ecx, DWORD PTR [eax+632]
	push	ecx
	call	DWORD PTR ?pglUniform1iARB@@3P6GXHH@ZA	; pglUniform1iARB

; 758  : 
; 759  : 	if( GL_FindShaderDirective( shader, "BMODEL_MULTI_LAYERS" ))

	push	OFFSET ??_C@_0BE@FBBOMMAP@BMODEL_MULTI_LAYERS?$AA@
	mov	eax, DWORD PTR _shader$[ebp]
	push	eax
	call	?GL_FindShaderDirective@@YA_NPAUglsl_prog_s@@PBD@Z ; GL_FindShaderDirective
	add	esp, 8
	movzx	ecx, al
	test	ecx, ecx
	je	SHORT $LN10@GL_InitSol

; 760  : 		pglUniform1iARB( shader->u_LayerMap, GL_TEXTURE4 );

	push	4
	mov	eax, DWORD PTR _shader$[ebp]
	mov	ecx, DWORD PTR [eax+648]
	push	ecx
	call	DWORD PTR ?pglUniform1iARB@@3P6GXHH@ZA	; pglUniform1iARB
$LN10@GL_InitSol:

; 761  : 
; 762  : 	pglUniform1iARB( shader->u_GlowMap, GL_TEXTURE5 );

	push	5
	mov	eax, DWORD PTR _shader$[ebp]
	mov	ecx, DWORD PTR [eax+644]
	push	ecx
	call	DWORD PTR ?pglUniform1iARB@@3P6GXHH@ZA	; pglUniform1iARB

; 763  : 	pglUniform1iARB( shader->u_NormalMap, GL_TEXTURE6 );

	push	6
	mov	eax, DWORD PTR _shader$[ebp]
	mov	ecx, DWORD PTR [eax+596]
	push	ecx
	call	DWORD PTR ?pglUniform1iARB@@3P6GXHH@ZA	; pglUniform1iARB

; 764  : 	pglUniform1iARB( shader->u_DepthMap, GL_TEXTURE7 );

	push	7
	mov	eax, DWORD PTR _shader$[ebp]
	mov	ecx, DWORD PTR [eax+592]
	push	ecx
	call	DWORD PTR ?pglUniform1iARB@@3P6GXHH@ZA	; pglUniform1iARB

; 765  : 	pglUniform1iARB( shader->u_DeluxeMap, GL_TEXTURE8 );

	push	8
	mov	eax, DWORD PTR _shader$[ebp]
	mov	ecx, DWORD PTR [eax+624]
	push	ecx
	call	DWORD PTR ?pglUniform1iARB@@3P6GXHH@ZA	; pglUniform1iARB

; 766  : 
; 767  : 	if( GL_FindShaderDirective( shader, "REFLECTION_CUBEMAP" ) )  // diffusioncubemaps

	push	OFFSET ??_C@_0BD@EMMENHMO@REFLECTION_CUBEMAP?$AA@
	mov	eax, DWORD PTR _shader$[ebp]
	push	eax
	call	?GL_FindShaderDirective@@YA_NPAUglsl_prog_s@@PBD@Z ; GL_FindShaderDirective
	add	esp, 8
	movzx	ecx, al
	test	ecx, ecx
	je	SHORT $LN11@GL_InitSol

; 768  : 	{
; 769  : 		pglUniform1iARB( shader->u_EnvMap0, GL_TEXTURE9 );

	push	9
	mov	eax, DWORD PTR _shader$[ebp]
	mov	ecx, DWORD PTR [eax+636]
	push	ecx
	call	DWORD PTR ?pglUniform1iARB@@3P6GXHH@ZA	; pglUniform1iARB

; 770  : 		pglUniform1iARB( shader->u_EnvMap1, GL_TEXTURE10 );

	push	10					; 0000000aH
	mov	eax, DWORD PTR _shader$[ebp]
	mov	ecx, DWORD PTR [eax+640]
	push	ecx
	call	DWORD PTR ?pglUniform1iARB@@3P6GXHH@ZA	; pglUniform1iARB
$LN11@GL_InitSol:

; 771  : 	}
; 772  : 
; 773  : 	if( GL_FindShaderDirective( shader, "BMODEL_INTERIOR" ) )

	push	OFFSET ??_C@_0BA@ELFGANLK@BMODEL_INTERIOR?$AA@
	mov	eax, DWORD PTR _shader$[ebp]
	push	eax
	call	?GL_FindShaderDirective@@YA_NPAUglsl_prog_s@@PBD@Z ; GL_FindShaderDirective
	add	esp, 8
	movzx	ecx, al
	test	ecx, ecx
	je	SHORT $LN12@GL_InitSol

; 774  : 		pglUniform1iARB( shader->u_InteriorMap, GL_TEXTURE11 );	

	push	11					; 0000000bH
	mov	eax, DWORD PTR _shader$[ebp]
	mov	ecx, DWORD PTR [eax+660]
	push	ecx
	call	DWORD PTR ?pglUniform1iARB@@3P6GXHH@ZA	; pglUniform1iARB
	jmp	SHORT $LN13@GL_InitSol
$LN12@GL_InitSol:

; 775  : 	else if( GL_FindShaderDirective( shader, "BMODEL_WATER_PLANAR" ) )

	push	OFFSET ??_C@_0BE@LOJOFLMK@BMODEL_WATER_PLANAR?$AA@
	mov	eax, DWORD PTR _shader$[ebp]
	push	eax
	call	?GL_FindShaderDirective@@YA_NPAUglsl_prog_s@@PBD@Z ; GL_FindShaderDirective
	add	esp, 8
	movzx	ecx, al
	test	ecx, ecx
	je	SHORT $LN13@GL_InitSol

; 776  : 		pglUniform1iARB( shader->u_WaterTex, GL_TEXTURE11 );

	push	11					; 0000000bH
	mov	eax, DWORD PTR _shader$[ebp]
	mov	ecx, DWORD PTR [eax+652]
	push	ecx
	call	DWORD PTR ?pglUniform1iARB@@3P6GXHH@ZA	; pglUniform1iARB
$LN13@GL_InitSol:

; 777  : 
; 778  : 	GL_BindShader( GL_NONE );

	push	0
	call	?GL_BindShader@@YAXPAUglsl_prog_s@@@Z	; GL_BindShader
	add	esp, 4

; 779  : 
; 780  : 	GL_ValidateProgram( shader );

	mov	eax, DWORD PTR _shader$[ebp]
	push	eax
	call	?GL_ValidateProgram@@YAXPAUglsl_prog_s@@@Z ; GL_ValidateProgram
	add	esp, 4

; 781  : 	GL_ShowProgramUniforms( shader );

	mov	eax, DWORD PTR _shader$[ebp]
	push	eax
	call	?GL_ShowProgramUniforms@@YAXPAUglsl_prog_s@@@Z ; GL_ShowProgramUniforms
	add	esp, 4

; 782  : }

	pop	edi
	pop	esi
	pop	ebx
	mov	esp, ebp
	pop	ebp
	ret	0
?GL_InitSolidBmodelUniforms@@YAXPAUglsl_prog_s@@@Z ENDP	; GL_InitSolidBmodelUniforms
_TEXT	ENDS
; Function compile flags: /Odtp /ZI
; File d:\!diffusion 2020\source code 2022\client-server\client\render\r_shader.cpp
;	COMDAT ?GL_FindShaderDirective@@YA_NPAUglsl_prog_s@@PBD@Z
_TEXT	SEGMENT
_shader$ = 8						; size = 4
_directive$ = 12					; size = 4
?GL_FindShaderDirective@@YA_NPAUglsl_prog_s@@PBD@Z PROC	; GL_FindShaderDirective, COMDAT

; 690  : {

	push	ebp
	mov	ebp, esp
	sub	esp, 64					; 00000040H
	push	ebx
	push	esi
	push	edi

; 691  : 	if( Q_stristr( shader->options, directive ))

	mov	eax, DWORD PTR _directive$[ebp]
	push	eax
	mov	ecx, DWORD PTR _shader$[ebp]
	add	ecx, 64					; 00000040H
	push	ecx
	call	?Q_stristr@@YAPADPBD0@Z			; Q_stristr
	add	esp, 8
	test	eax, eax
	je	SHORT $LN2@GL_FindSha

; 692  : 		return true;

	mov	al, 1
	jmp	SHORT $LN1@GL_FindSha
$LN2@GL_FindSha:

; 693  : 	return false;

	xor	al, al
$LN1@GL_FindSha:

; 694  : }

	pop	edi
	pop	esi
	pop	ebx
	mov	esp, ebp
	pop	ebp
	ret	0
?GL_FindShaderDirective@@YA_NPAUglsl_prog_s@@PBD@Z ENDP	; GL_FindShaderDirective
_TEXT	ENDS
; Function compile flags: /Odtp /ZI
; File d:\!diffusion 2020\source code 2022\client-server\client\render\r_shader.cpp
;	COMDAT ?GL_AddShaderDefine@@YAXPADPBD@Z
_TEXT	SEGMENT
_options$ = 8						; size = 4
_directive$ = 12					; size = 4
?GL_AddShaderDefine@@YAXPADPBD@Z PROC			; GL_AddShaderDefine, COMDAT

; 685  : {

	push	ebp
	mov	ebp, esp
	sub	esp, 64					; 00000040H
	push	ebx
	push	esi
	push	edi

; 686  : 	Q_strncat( options, directive, MAX_OPTIONS_LENGTH );

	push	512					; 00000200H
	mov	eax, DWORD PTR _directive$[ebp]
	push	eax
	mov	ecx, DWORD PTR _options$[ebp]
	push	ecx
	call	?Q_strncat@@YAIPADPBDI@Z		; Q_strncat
	add	esp, 12					; 0000000cH

; 687  : }

	pop	edi
	pop	esi
	pop	ebx
	mov	esp, ebp
	pop	ebp
	ret	0
?GL_AddShaderDefine@@YAXPADPBD@Z ENDP			; GL_AddShaderDefine
_TEXT	ENDS
; Function compile flags: /Odtp /ZI
; File d:\!diffusion 2020\source code 2022\client-server\client\render\r_shader.cpp
;	COMDAT ?GL_FindUberShader@@YAPAUglsl_prog_s@@PBD0P6AXPAU1@@Z@Z
_TEXT	SEGMENT
_prog$ = -16						; size = 4
_hash$ = -12						; size = 4
_i$ = -8						; size = 4
_find$ = -4						; size = 4
_glname$ = 8						; size = 4
_options$ = 12						; size = 4
_pfnInitUniforms$ = 16					; size = 4
?GL_FindUberShader@@YAPAUglsl_prog_s@@PBD0P6AXPAU1@@Z@Z PROC ; GL_FindUberShader, COMDAT

; 642  : {

	push	ebp
	mov	ebp, esp
	sub	esp, 80					; 00000050H
	push	ebx
	push	esi
	push	edi

; 643  : 	const char	*find;
; 644  : 	unsigned int	i, hash;
; 645  : 	glsl_program_t	*prog;
; 646  : 
; 647  : 	if( !GL_Support( R_SHADER_GLSL100_EXT ))

	push	10					; 0000000aH
	call	?GL_Support@@YA_NH@Z			; GL_Support
	add	esp, 4
	movzx	eax, al
	test	eax, eax
	jne	SHORT $LN8@GL_FindUbe

; 648  : 		return NULL;

	xor	eax, eax
	jmp	$LN1@GL_FindUbe
$LN8@GL_FindUbe:

; 649  : 
; 650  : 	ASSERT( glname != NULL );

	cmp	DWORD PTR _glname$[ebp], 0
	jne	SHORT $LN9@GL_FindUbe
	mov	eax, DWORD PTR ?__LINE__Var@?0??GL_FindUberShader@@YAPAUglsl_prog_s@@PBD0P6AXPAU2@@Z@Z@4JA
	add	eax, 8
	push	eax
	push	OFFSET ??_C@_0EN@DPFBEFBL@d?3?2?$CBdiffusion?52020?2source?5code?52@
	push	OFFSET ??_C@_0BI@FECCGOFJ@assert?5failed?5at?5?$CFs?3?$CFi?6?$AA@
	call	DWORD PTR ?gRenderfuncs@@3Urender_api_s@@A+236
	add	esp, 12					; 0000000cH
$LN9@GL_FindUbe:

; 651  : 
; 652  : 	find = va( "%s %s", glname, options );

	mov	eax, DWORD PTR _options$[ebp]
	push	eax
	mov	ecx, DWORD PTR _glname$[ebp]
	push	ecx
	push	OFFSET ??_C@_05DNIIFBMG@?$CFs?5?$CFs?$AA@
	call	?va@@YAPADPBDZZ				; va
	add	esp, 12					; 0000000cH
