; Listing generated by Microsoft (R) Optimizing Compiler Version 19.00.24247.2 

	TITLE	D:\!DIFFUSION 2020\source code 2022\client-server\client\render\r_shader.cpp
	.686P
	.XMM
	include listing.inc
	.model	flat

INCLUDELIB LIBCMT
INCLUDELIB OLDNAMES

PUBLIC	?glsl_programs@@3PAUglsl_prog_s@@A		; glsl_programs
PUBLIC	?num_glsl_programs@@3IA				; num_glsl_programs
PUBLIC	?glsl@@3Uref_shaders_t@@A			; glsl
PUBLIC	?glsl_programsHashTable@@3PAPAUglsl_prog_s@@A	; glsl_programsHashTable
_BSS	SEGMENT
?glsl_programs@@3PAUglsl_prog_s@@A DB 079800H DUP (?)	; glsl_programs
?num_glsl_programs@@3IA DD 01H DUP (?)			; num_glsl_programs
?glsl@@3Uref_shaders_t@@A DB 068H DUP (?)		; glsl
?glsl_programsHashTable@@3PAPAUglsl_prog_s@@A DD 080H DUP (?) ; glsl_programsHashTable
_BSS	ENDS
PUBLIC	??_H@YGXPAXIIP6EPAX0@Z@Z			; `vector constructor iterator'
PUBLIC	??__G@YGXPAX0IIP6EPAX00@Z@Z			; `vector copy constructor iterator'
PUBLIC	??0Vector@@QAE@XZ				; Vector::Vector
PUBLIC	??0mplane_s@@QAE@XZ				; mplane_s::mplane_s
PUBLIC	??0CFrustum@@QAE@XZ				; CFrustum::CFrustum
PUBLIC	??0plight_s@@QAE@XZ				; plight_s::plight_s
PUBLIC	?GL_PretifyListOptions@@YAPBDPBD_N@Z		; GL_PretifyListOptions
PUBLIC	?GL_BindShader@@YAXPAUglsl_prog_s@@@Z		; GL_BindShader
PUBLIC	?GL_FreeUberShaders@@YAXXZ			; GL_FreeUberShaders
PUBLIC	?GL_InitGPUShaders@@YAXXZ			; GL_InitGPUShaders
PUBLIC	?GL_FreeGPUShaders@@YAXXZ			; GL_FreeGPUShaders
PUBLIC	?GL_UberShaderForSolidBmodel@@YAGPAUmsurface_s@@_N@Z ; GL_UberShaderForSolidBmodel
PUBLIC	?GL_UberShaderForBmodelDlight@@YAGPBUplight_s@@PAUmsurface_s@@_N@Z ; GL_UberShaderForBmodelDlight
PUBLIC	?GL_UberShaderForBmodelDecal@@YAGPAUdecal_s@@@Z	; GL_UberShaderForBmodelDecal
PUBLIC	?GL_UberShaderForGrassSolid@@YAGPAUmsurface_s@@PAUgrass_s@@@Z ; GL_UberShaderForGrassSolid
PUBLIC	?GL_UberShaderForGrassDlight@@YAGPAUplight_s@@PAUgrass_s@@@Z ; GL_UberShaderForGrassDlight
PUBLIC	?GL_UberShaderForDlightGeneric@@YAGPBUplight_s@@@Z ; GL_UberShaderForDlightGeneric
PUBLIC	?GL_UberShaderForSolidStudio@@YAGPAUmstudiomat_s@@_N11H@Z ; GL_UberShaderForSolidStudio
PUBLIC	?GL_UberShaderForDlightStudio@@YAGPBUplight_s@@PAUmstudiomat_s@@_NH@Z ; GL_UberShaderForDlightStudio
PUBLIC	?GL_UberShaderForStudioDecal@@YAGPAUmstudiomat_s@@@Z ; GL_UberShaderForStudioDecal
PUBLIC	?GL_AddShaderDirective@@YAXPADPBD@Z		; GL_AddShaderDirective
PUBLIC	?GetBuffer@CVirtualFS@@QAEPADXZ			; CVirtualFS::GetBuffer
PUBLIC	?GetSize@CVirtualFS@@QAEIXZ			; CVirtualFS::GetSize
PUBLIC	?GL_EncodeNormal@@YAXPADH@Z			; GL_EncodeNormal
PUBLIC	?GL_UniformTypeToDwordCount@@YAHI_N@Z		; GL_UniformTypeToDwordCount
PUBLIC	?GL_UniformTypeToName@@YAPBDI@Z			; GL_UniformTypeToName
PUBLIC	?GL_ShowProgramUniforms@@YAXPAUglsl_prog_s@@@Z	; GL_ShowProgramUniforms
PUBLIC	?GL_AddShaderDefine@@YAXPADPBD@Z		; GL_AddShaderDefine
PUBLIC	?GL_FindShaderDirective@@YA_NPAUglsl_prog_s@@PBD@Z ; GL_FindShaderDirective
PUBLIC	?GL_InitGenericFogUniforms@@YAXPAUglsl_prog_s@@@Z ; GL_InitGenericFogUniforms
PUBLIC	?GL_ListGPUShaders@@YAXXZ			; GL_ListGPUShaders
PUBLIC	??_C@_0BF@FKFGDDHD@NORMAL_RG_PARABOLOID?$AA@	; `string'
PUBLIC	??_C@_0BG@LDLNDKLC@NORMAL_3DC_PARABOLOID?$AA@	; `string'
PUBLIC	??_C@_0BF@EAIFCKME@NORMAL_AG_PARABOLOID?$AA@	; `string'
PUBLIC	??_C@_0CN@LIMLBMNO@GL_PrintInfoLog?3?5message?5exceeds@ ; `string'
PUBLIC	??_C@_0CC@MDIBKIJI@GL_PushFileStack?3?5stack?5overflow@ ; `string'
PUBLIC	??_C@_0CD@KBPDGGGO@GL_PushFileStack?3?5stack?5underflo@ ; `string'
PUBLIC	??_C@_0BK@HEHGCEJO@recursive?5include?5for?5?$CFs?6?$AA@ ; `string'
PUBLIC	??_C@_0BC@HJBMIBGI@couldn?8t?5load?5?$CFs?6?$AA@ ; `string'
PUBLIC	??_C@_08CGHKNNMG@?$CDline?50?6?$AA@		; `string'
PUBLIC	??_C@_08GPLAJCBH@?$CDinclude?$AA@		; `string'
PUBLIC	??_C@_07BPFEFLNA@glsl?1?$CFs?$AA@		; `string'
PUBLIC	??_C@_09KFJICHAG@?$CDline?5?$CFi?6?$AA@		; `string'
PUBLIC	??_C@_03OFAPEBGM@?$CFs?6?$AA@			; `string'
PUBLIC	??_C@_0O@LOEMKNG@?$CDversion?5130?6?$AA@	; `string'
PUBLIC	??_C@_0DJ@GFBPBLGM@?$CDifndef?5M_PI?6?$CDdefine?5M_PI?53?41415@ ; `string'
PUBLIC	??_C@_0DL@JPAIIFEC@?$CDifndef?5M_PI2?6?$CDdefine?5M_PI2?56?428@ ; `string'
PUBLIC	??_C@_0CJ@DGLNNJCC@?$CDextension?5GL_EXT_gpu_shader4?5?3?5@ ; `string'
PUBLIC	??_C@_0BK@FIAFHJNI@?$CDdefine?5GLSL_gpu_shader4?6?$AA@ ; `string'
PUBLIC	??_C@_0CC@EIHIPLOH@?$CDdefine?5GLSL_ALLOW_TEXTURE_ARRAY@ ; `string'
PUBLIC	??_C@_0CL@JHODLGCO@?$CDextension?5GL_EXT_texture_array?5@ ; `string'
PUBLIC	??_C@_0DJ@LFGPGNO@?$CDifndef?5MAXSTUDIOBONES?6?$CDdefine?5M@ ; `string'
PUBLIC	??_C@_0DL@DLNJKMNE@?$CDifndef?5MAX_LIGHTSTYLES?6?$CDdefine?5@ ; `string'
PUBLIC	??_C@_0DF@FCFCOAGC@?$CDifndef?5MAXLIGHTMAPS?6?$CDdefine?5MAX@ ; `string'
PUBLIC	??_C@_0DL@EIKGDMGK@?$CDifndef?5GRASS_ANIM_DIST?6?$CDdefine?5@ ; `string'
PUBLIC	??_C@_00CNPNBAHC@?$AA@				; `string'
PUBLIC	?__LINE__Var@?0??GL_LoadGPUShader@@YAXPAUglsl_prog_s@@PBDI_N1@Z@4JA ; `GL_LoadGPUShader'::`1'::__LINE__Var
PUBLIC	??_C@_0EN@DPFBEFBL@d?3?2?$CBdiffusion?52020?2source?5code?52@ ; `string'
PUBLIC	??_C@_0BI@FECCGOFJ@assert?5failed?5at?5?$CFs?3?$CFi?6?$AA@ ; `string'
PUBLIC	??_C@_0BA@IBGHDCHK@glsl?1?$CFs_vp?4glsl?$AA@	; `string'
PUBLIC	??_C@_0BA@PNNMADFB@glsl?1?$CFs_fp?4glsl?$AA@	; `string'
PUBLIC	??_C@_0CK@FKDDGAG@GL_LoadGPUShader?3?5unknown?5shader@ ; `string'
PUBLIC	??_C@_0P@JCFNJCGJ@?6loading?5?8?$CFs?8?6?$AA@	; `string'
PUBLIC	??_C@_02DKCKIIND@?$CFs?$AA@			; `string'
PUBLIC	??_C@_0BD@NMNDBDIA@Shader?5options?3?$CFs?6?$AA@ ; `string'
PUBLIC	??_C@_0BF@PMBKHIDO@Couldn?8t?5compile?5?$CFs?6?$AA@ ; `string'
PUBLIC	??_C@_0BN@ONGMHJJJ@?$CFs?6?$CFs?5shader?5failed?5to?5link?6?$AA@ ; `string'
PUBLIC	??_C@_0CB@BEHHAEKP@?$CFs?6?$CFs?5shader?5failed?5to?5validate?6@ ; `string'
PUBLIC	??_C@_03JBIPMCLC@int?$AA@			; `string'
PUBLIC	??_C@_04EHNLIFAM@uint?$AA@			; `string'
PUBLIC	??_C@_05KNFBNCOH@float?$AA@			; `string'
PUBLIC	??_C@_04OEFGDLLE@vec2?$AA@			; `string'
PUBLIC	??_C@_04PNENAKPF@vec3?$AA@			; `string'
PUBLIC	??_C@_04LCAMJMDC@vec4?$AA@			; `string'
PUBLIC	??_C@_04GFGNLPIF@mat2?$AA@			; `string'
PUBLIC	??_C@_04HMHGIOME@mat3?$AA@			; `string'
PUBLIC	??_C@_04DDDHBIAD@mat4?$AA@			; `string'
PUBLIC	??_C@_09LDPLADBJ@sampler1D?$AA@			; `string'
PUBLIC	??_C@_09LBLNLNEA@sampler2D?$AA@			; `string'
PUBLIC	??_C@_09LAHPNHHH@sampler3D?$AA@			; `string'
PUBLIC	??_C@_0M@JKFFOHJO@samplerCube?$AA@		; `string'
PUBLIC	??_C@_0P@DIPEFKIO@sampler1DArray?$AA@		; `string'
PUBLIC	??_C@_0P@LGHLFNGN@sampler2DArray?$AA@		; `string'
PUBLIC	??_C@_0BA@DAHPNLPE@sampler1DShadow?$AA@		; `string'
PUBLIC	??_C@_0BA@JPCOHDB@sampler2DShadow?$AA@		; `string'
PUBLIC	??_C@_0O@PEHGDEIA@sampler2DRect?$AA@		; `string'
PUBLIC	??_C@_0BE@HDPBANEK@sampler2DRectShadow?$AA@	; `string'
PUBLIC	??_C@_0BC@HELGINNC@samplerCubeShadow?$AA@	; `string'
PUBLIC	??_C@_03BBKEAIF@?$DP?$DP?$DP?$AA@		; `string'
PUBLIC	??_C@_0BA@GALAJLO@uniform?5?$CFs?5?$CFs?$DL?6?$AA@ ; `string'
PUBLIC	??_C@_0BE@PKDDKFGG@uniform?5?$CFs?5?$CFs?$FL?$CFi?$FN?$DL?6?$AA@ ; `string'
PUBLIC	??_C@_0CN@BIGJHOMK@used?5uniforms?5?$CFi?5is?5overflowed?5m@ ; `string'
PUBLIC	??_C@_0BK@BLHKGMFB@used?5uniforms?5?$CFi?5from?5?$CFi?6?$AA@ ; `string'
PUBLIC	??_C@_0BF@JPOMHIIO@?$CFs?5used?5?$CFi?5uniforms?6?$AA@ ; `string'
PUBLIC	?__LINE__Var@?0??GL_InitGPUShader@@YAPAUglsl_prog_s@@PBD000@Z@4JA ; `GL_InitGPUShader'::`1'::__LINE__Var
PUBLIC	??_C@_05DNIIFBMG@?$CFs?5?$CFs?$AA@		; `string'
PUBLIC	??_C@_0DI@JOLDEICG@GL_InitGPUShader?3?5GLSL?5shaders?5l@ ; `string'
PUBLIC	??_C@_0O@PHKNCBPO@attr_Position?$AA@		; `string'
PUBLIC	??_C@_0P@GGGDBJMF@attr_TexCoord0?$AA@		; `string'
PUBLIC	??_C@_0P@HPHICIIE@attr_TexCoord1?$AA@		; `string'
PUBLIC	??_C@_0P@FEFFHLEH@attr_TexCoord2?$AA@		; `string'
PUBLIC	??_C@_0M@PDECLNDL@attr_Normal?$AA@		; `string'
PUBLIC	??_C@_0BB@GNBIAMMJ@attr_BoneIndexes?$AA@	; `string'
PUBLIC	??_C@_0BB@ININKFEM@attr_BoneWeights?$AA@	; `string'
PUBLIC	??_C@_0BB@MPAHODOH@attr_LightStyles?$AA@	; `string'
PUBLIC	??_C@_0BA@JOGHNK@attr_LightColor?$AA@		; `string'
PUBLIC	??_C@_0P@KPKCIOG@attr_LightVecs?$AA@		; `string'
PUBLIC	??_C@_0N@PFKNNIKN@attr_Tangent?$AA@		; `string'
PUBLIC	??_C@_0O@FLCOHBOC@attr_Binormal?$AA@		; `string'
PUBLIC	??_C@_0DL@DKJDPAJN@GL_CreateUberShader?3?5GLSL?5shader@ ; `string'
PUBLIC	??_C@_0BO@IEPPONL@CompileUberShader?5?$CD?$CFi?3?5?$CFs?6?$CFs?6?$AA@ ; `string'
PUBLIC	?__LINE__Var@?0??GL_FindUberShader@@YAPAUglsl_prog_s@@PBD0P6AXPAU2@@Z@Z@4JA ; `GL_FindUberShader'::`1'::__LINE__Var
PUBLIC	??_C@_0M@KFFOLOHC@?$CDdefine?5?$CFs?6?$AA@	; `string'
PUBLIC	?__LINE__Var@?0??GL_InitSolidBmodelUniforms@@YAXPAUglsl_prog_s@@@Z@4JA ; `GL_InitSolidBmodelUniforms'::`1'::__LINE__Var
PUBLIC	??_C@_0L@IEDEJAAC@u_ColorMap?$AA@		; `string'
PUBLIC	??_C@_0M@CLJGMBED@u_DetailMap?$AA@		; `string'
PUBLIC	??_C@_0L@NKAMHLG@u_LightMap?$AA@		; `string'
PUBLIC	??_C@_0M@KCNMJMNH@u_ScreenMap?$AA@		; `string'
PUBLIC	??_C@_09HDLEGDMG@u_GlowMap?$AA@			; `string'
PUBLIC	??_C@_0M@EEAGDKIK@u_NormalMap?$AA@		; `string'
PUBLIC	??_C@_0BD@EMMENHMO@REFLECTION_CUBEMAP?$AA@	; `string'
PUBLIC	??_C@_09GODPBACC@u_EnvMap0?$AA@			; `string'
PUBLIC	??_C@_09HHCECBGD@u_EnvMap1?$AA@			; `string'
PUBLIC	??_C@_0P@CEPEBBNL@u_CubeMipCount?$AA@		; `string'
PUBLIC	??_C@_0N@NGOJEAAC@u_CubeOrigin?$AA@		; `string'
PUBLIC	??_C@_0N@BILMML@u_LerpFactor?$AA@		; `string'
PUBLIC	??_C@_09PANPMJKM@u_BoxMins?$AA@			; `string'
PUBLIC	??_C@_09CNMADOIB@u_BoxMaxs?$AA@			; `string'
PUBLIC	??_C@_0P@BIBHBLHM@u_ReflectScale?$AA@		; `string'
PUBLIC	??_C@_0BA@ELFGANLK@BMODEL_INTERIOR?$AA@		; `string'
PUBLIC	??_C@_0O@KNPDKBPI@u_InteriorMap?$AA@		; `string'
PUBLIC	??_C@_0L@BGHCDECL@u_RealTime?$AA@		; `string'
PUBLIC	??_C@_0P@KJLBFPAD@u_InteriorGrid?$AA@		; `string'
PUBLIC	??_C@_0BF@HKDFFBEE@u_InteriorLightState?$AA@	; `string'
PUBLIC	??_C@_0BJ@JCIGHEFN@BMODEL_REFLECTION_PLANAR?$AA@ ; `string'
PUBLIC	??_C@_0BE@LOJOFLMK@BMODEL_WATER_PLANAR?$AA@	; `string'
PUBLIC	??_C@_0BF@HOPHCIFE@u_PlanarReflectScale?$AA@	; `string'
PUBLIC	??_C@_0L@HHPJFKED@u_WaterTex?$AA@		; `string'
PUBLIC	??_C@_0N@GOCFBCHC@u_ViewOrigin?$AA@		; `string'
PUBLIC	??_C@_0M@NCMDOAEP@u_DeluxeMap?$AA@		; `string'
PUBLIC	??_C@_0N@NPMHADLB@u_GlossScale?$AA@		; `string'
PUBLIC	??_C@_0BC@KIIHBDPB@u_GlossSmoothness?$AA@	; `string'
PUBLIC	??_C@_0O@HKDACOHC@u_EmbossScale?$AA@		; `string'
PUBLIC	??_C@_0BE@FBBOMMAP@BMODEL_MULTI_LAYERS?$AA@	; `string'
PUBLIC	??_C@_0L@NKHKNNOO@u_LayerMap?$AA@		; `string'
PUBLIC	??_C@_0L@JCKKGKMC@u_DepthMap?$AA@		; `string'
PUBLIC	??_C@_0BD@NFOOODNK@u_LightStyleValues?$AA@	; `string'
PUBLIC	??_C@_0O@MBNOFNKO@u_ModelMatrix?$AA@		; `string'
PUBLIC	??_C@_0O@MFMJGIKB@u_DetailScale?$AA@		; `string'
PUBLIC	??_C@_0M@MGCFPBL@u_TexOffset?$AA@		; `string'
PUBLIC	??_C@_0M@LNDNBCGB@u_FogParams?$AA@		; `string'
PUBLIC	??_C@_0BA@CNHIBBKL@u_ScreenSizeInv?$AA@		; `string'
PUBLIC	??_C@_0O@PDAILIH@u_RenderColor?$AA@		; `string'
PUBLIC	??_C@_06HIBKCAMD@u_zFar?$AA@			; `string'
PUBLIC	?__LINE__Var@?0??GL_InitBmodelDlightUniforms@@YAXPAUglsl_prog_s@@@Z@4JA ; `GL_InitBmodelDlightUniforms'::`1'::__LINE__Var
PUBLIC	??_C@_0N@FKEMJKI@u_ProjectMap?$AA@		; `string'
PUBLIC	??_C@_0M@LIKBOJOD@u_ShadowMap?$AA@		; `string'
PUBLIC	??_C@_0L@EMINLLAG@u_LightDir?$AA@		; `string'
PUBLIC	??_C@_0P@IBMOHOLF@u_LightDiffuse?$AA@		; `string'
PUBLIC	??_C@_0P@DOIHPJNE@u_ShadowParams?$AA@		; `string'
PUBLIC	??_C@_0O@PGBKINBN@u_LightOrigin?$AA@		; `string'
PUBLIC	??_C@_0BM@OPAKJEIH@u_LightViewProjectionMatrix?$AA@ ; `string'
PUBLIC	??_C@_0BF@DEABILDM@u_DynLightBrightness?$AA@	; `string'
PUBLIC	?__LINE__Var@?0??GL_InitBmodelDepthFillUniforms@@YAXPAUglsl_prog_s@@@Z@4JA ; `GL_InitBmodelDepthFillUniforms'::`1'::__LINE__Var
PUBLIC	?__LINE__Var@?0??GL_InitBmodelDecalUniforms@@YAXPAUglsl_prog_s@@@Z@4JA ; `GL_InitBmodelDecalUniforms'::`1'::__LINE__Var
PUBLIC	??_C@_0L@GCAHNJHJ@u_DecalMap?$AA@		; `string'
PUBLIC	?__LINE__Var@?0??GL_InitSolidStudioUniforms@@YAXPAUglsl_prog_s@@@Z@4JA ; `GL_InitSolidStudioUniforms'::`1'::__LINE__Var
PUBLIC	??_C@_0BB@JBIGINIK@u_BoneQuaternion?$AA@	; `string'
PUBLIC	??_C@_0P@KFHIBBDA@u_BonePosition?$AA@		; `string'
PUBLIC	??_C@_0M@LKOGHAJI@u_MeshScale?$AA@		; `string'
PUBLIC	??_C@_0N@DJODLMKK@u_MeshAngles?$AA@		; `string'
PUBLIC	??_C@_0M@GKMFFJIJ@u_ColorMask?$AA@		; `string'
PUBLIC	??_C@_0BA@BJGEOHOC@STUDIO_INTERIOR?$AA@		; `string'
PUBLIC	??_C@_0BH@BHCFIENI@STUDIO_VERTEX_LIGHTING?$AA@	; `string'
PUBLIC	??_C@_0O@MBKKBNEB@u_LightStyles?$AA@		; `string'
PUBLIC	??_C@_0N@OIMPMCEP@u_GammaTable?$AA@		; `string'
PUBLIC	??_C@_0N@HGOIPDNC@u_LightColor?$AA@		; `string'
PUBLIC	??_C@_0P@DDJOMFKJ@u_LightAmbient?$AA@		; `string'
PUBLIC	??_C@_0N@DMKCJOPD@u_LightShade?$AA@		; `string'
PUBLIC	??_C@_0M@FIIJDCAM@u_ViewRight?$AA@		; `string'
PUBLIC	??_C@_0BE@GNPKMAIG@u_FoliageSwayHeight?$AA@	; `string'
PUBLIC	??_C@_0BF@MDNGADJD@STUDIO_HAS_COLORMASK?$AA@	; `string'
PUBLIC	?__LINE__Var@?0??GL_InitStudioDlightUniforms@@YAXPAUglsl_prog_s@@@Z@4JA ; `GL_InitStudioDlightUniforms'::`1'::__LINE__Var
PUBLIC	?__LINE__Var@?0??GL_InitStudioDepthFillUniforms@@YAXPAUglsl_prog_s@@@Z@4JA ; `GL_InitStudioDepthFillUniforms'::`1'::__LINE__Var
PUBLIC	?__LINE__Var@?0??GL_InitGrassSolidUniforms@@YAXPAUglsl_prog_s@@@Z@4JA ; `GL_InitGrassSolidUniforms'::`1'::__LINE__Var
PUBLIC	??_C@_0BB@BBFEGHLO@u_GrassFadeStart?$AA@	; `string'
PUBLIC	??_C@_0BA@DLEPEDLG@u_GrassFadeDist?$AA@		; `string'
PUBLIC	??_C@_0P@MOHLDOHD@u_GrassFadeEnd?$AA@		; `string'
PUBLIC	?__LINE__Var@?0??GL_InitGrassDlightUniforms@@YAXPAUglsl_prog_s@@@Z@4JA ; `GL_InitGrassDlightUniforms'::`1'::__LINE__Var
PUBLIC	?__LINE__Var@?0??GL_InitGenericDlightUniforms@@YAXPAUglsl_prog_s@@@Z@4JA ; `GL_InitGenericDlightUniforms'::`1'::__LINE__Var
PUBLIC	??_C@_0N@EFGBPOFK@u_LightScale?$AA@		; `string'
PUBLIC	?__LINE__Var@?0??GL_InitStudioDecalUniforms@@YAXPAUglsl_prog_s@@@Z@4JA ; `GL_InitStudioDecalUniforms'::`1'::__LINE__Var
PUBLIC	?__LINE__Var@?0??GL_InitSkyBoxUniforms@@YAXPAUglsl_prog_s@@@Z@4JA ; `GL_InitSkyBoxUniforms'::`1'::__LINE__Var
PUBLIC	??_C@_0BD@KPMFEKBG@u_GenericCondition?$AA@	; `string'
PUBLIC	?__LINE__Var@?0??GL_InitPostProcessUniforms@@YAXPAUglsl_prog_s@@@Z@4JA ; `GL_InitPostProcessUniforms'::`1'::__LINE__Var
PUBLIC	??_C@_0N@IIDPNGLD@u_BlurFactor?$AA@		; `string'
PUBLIC	?__LINE__Var@?0??GL_InitGenericFogUniforms@@YAXPAUglsl_prog_s@@@Z@4JA ; `GL_InitGenericFogUniforms'::`1'::__LINE__Var
PUBLIC	?__LINE__Var@?0??GL_InitGenShaftsUniforms@@YAXPAUglsl_prog_s@@@Z@4JA ; `GL_InitGenShaftsUniforms'::`1'::__LINE__Var
PUBLIC	?__LINE__Var@?0??GL_InitDrawShaftsUniforms@@YAXPAUglsl_prog_s@@@Z@4JA ; `GL_InitDrawShaftsUniforms'::`1'::__LINE__Var
PUBLIC	??_C@_0BA@MLGMJJCM@u_SS_Brightness?$AA@		; `string'
PUBLIC	?__LINE__Var@?0??GL_InitGenSSAOUniforms@@YAXPAUglsl_prog_s@@@Z@4JA ; `GL_InitGenSSAOUniforms'::`1'::__LINE__Var
PUBLIC	??_C@_0M@CGFAMJEG@u_RotateMap?$AA@		; `string'
PUBLIC	?__LINE__Var@?0??GL_InitDrawSSAOUniforms@@YAXPAUglsl_prog_s@@@Z@4JA ; `GL_InitDrawSSAOUniforms'::`1'::__LINE__Var
PUBLIC	??_C@_07LKADGIGM@u_AOMap?$AA@			; `string'
PUBLIC	?__LINE__Var@?0??GL_InitMotionBlurUniforms@@YAXPAUglsl_prog_s@@@Z@4JA ; `GL_InitMotionBlurUniforms'::`1'::__LINE__Var
PUBLIC	??_C@_0O@BPMLMILL@u_MB_Velocity?$AA@		; `string'
PUBLIC	??_C@_07BKJMBFNE@u_Accum?$AA@			; `string'
PUBLIC	?__LINE__Var@?0??GL_InitHorizontalBlurUniforms@@YAXPAUglsl_prog_s@@@Z@4JA ; `GL_InitHorizontalBlurUniforms'::`1'::__LINE__Var
PUBLIC	?__LINE__Var@?0??GL_InitMonochromeUniforms@@YAXPAUglsl_prog_s@@@Z@4JA ; `GL_InitMonochromeUniforms'::`1'::__LINE__Var
PUBLIC	?__LINE__Var@?0??GL_InitEnhanceUniforms@@YAXPAUglsl_prog_s@@@Z@4JA ; `GL_InitEnhanceUniforms'::`1'::__LINE__Var
PUBLIC	??_C@_0BE@BJALCEGK@u_GenericCondition2?$AA@	; `string'
PUBLIC	?__LINE__Var@?0??GL_InitBloomUniforms@@YAXPAUglsl_prog_s@@@Z@4JA ; `GL_InitBloomUniforms'::`1'::__LINE__Var
PUBLIC	?__LINE__Var@?0??GL_InitTonemapUniforms@@YAXPAUglsl_prog_s@@@Z@4JA ; `GL_InitTonemapUniforms'::`1'::__LINE__Var
PUBLIC	??_C@_0O@NAHLAMOG@u_HDRExposure?$AA@		; `string'
PUBLIC	??_C@_08EPOJODHO@u_MipLod?$AA@			; `string'
PUBLIC	?__LINE__Var@?0??GL_InitGenLuminanceUniforms@@YAXPAUglsl_prog_s@@@Z@4JA ; `GL_InitGenLuminanceUniforms'::`1'::__LINE__Var
PUBLIC	?__LINE__Var@?0??GL_InitGenExposureUniforms@@YAXPAUglsl_prog_s@@@Z@4JA ; `GL_InitGenExposureUniforms'::`1'::__LINE__Var
PUBLIC	??_C@_0M@JKCPEDOF@u_TimeDelta?$AA@		; `string'
PUBLIC	?__LINE__Var@?0??GL_InitBlurMipUniforms@@YAXPAUglsl_prog_s@@@Z@4JA ; `GL_InitBlurMipUniforms'::`1'::__LINE__Var
PUBLIC	??_C@_0BA@CHODOENL@u_TexCoordClamp?$AA@		; `string'
PUBLIC	??_C@_0BB@OFOHIACD@u_BloomFirstPass?$AA@	; `string'
PUBLIC	?__LINE__Var@?0??GL_InitScreenWaterUniforms@@YAXPAUglsl_prog_s@@@Z@4JA ; `GL_InitScreenWaterUniforms'::`1'::__LINE__Var
PUBLIC	?__LINE__Var@?0??GL_InitGlitchUniforms@@YAXPAUglsl_prog_s@@@Z@4JA ; `GL_InitGlitchUniforms'::`1'::__LINE__Var
PUBLIC	?__LINE__Var@?0??GL_InitWaterDropsUniforms@@YAXPAUglsl_prog_s@@@Z@4JA ; `GL_InitWaterDropsUniforms'::`1'::__LINE__Var
PUBLIC	??_C@_07MAHLPAJA@?$CDdefine?$AA@		; `string'
PUBLIC	?__LINE__Var@?0??GL_UberShaderForSolidBmodel@@YAGPAUmsurface_s@@_N@Z@4JA ; `GL_UberShaderForSolidBmodel'::`1'::__LINE__Var
PUBLIC	??_C@_0M@JAFDEAKJ@BmodelSolid?$AA@		; `string'
PUBLIC	??_C@_0O@GKJEGJGO@BMODEL_PORTAL?$AA@		; `string'
PUBLIC	??_C@_0BC@FCBEIADP@BMODEL_MONOCHROME?$AA@	; `string'
PUBLIC	??_C@_0BC@GCGMHMPB@BMODEL_FULLBRIGHT?$AA@	; `string'
PUBLIC	??_C@_0BF@CJFNHMMN@BMODEL_APPLY_STYLE?$CFi?$AA@	; `string'
PUBLIC	??_C@_0BA@EFJDEABO@BMODEL_HAS_LUMA?$AA@		; `string'
PUBLIC	??_C@_0N@KAHGMIHK@BMODEL_WATER?$AA@		; `string'
PUBLIC	??_C@_0BC@LPFDPIMB@BMODEL_WAVEHEIGHT?$AA@	; `string'
PUBLIC	??_C@_0BI@KHDHCKHO@BMODEL_WATER_REFRACTION?$AA@	; `string'
PUBLIC	??_C@_0O@CHLKEFJA@BMODEL_EMBOSS?$AA@		; `string'
PUBLIC	??_C@_0BA@IDBJJDAD@BMODEL_SPECULAR?$AA@		; `string'
PUBLIC	??_C@_0M@KKHGJEOJ@BMODEL_BUMP?$AA@		; `string'
PUBLIC	??_C@_0BG@EHIGMOPN@TERRAIN_NUM_LAYERS?5?$CFi?$AA@ ; `string'
PUBLIC	??_C@_0BC@NMNDDEJF@BMODEL_HAS_DETAIL?$AA@	; `string'
PUBLIC	??_C@_0P@BKIJIDAM@BMODEL_FOG_EXP?$AA@		; `string'
PUBLIC	??_C@_0N@OBABCFDH@BmodelDlight?$AA@		; `string'
PUBLIC	??_C@_0BN@NCPGFLCG@BMODEL_LIGHT_OMNIDIRECTIONAL?$AA@ ; `string'
PUBLIC	??_C@_0BI@FOFDPJGA@BMODEL_LIGHT_PROJECTION?$AA@	; `string'
PUBLIC	??_C@_0BL@JGLDHOH@BMODEL_KRENDERTRANSTEXTURE?$AA@ ; `string'
PUBLIC	??_C@_0BD@KIGFOMIP@BMODEL_HAS_SHADOWS?$AA@	; `string'
PUBLIC	??_C@_0L@ILOPFCIK@GrassSolid?$AA@		; `string'
PUBLIC	??_C@_0BB@JAAAEAMC@GRASS_FULLBRIGHT?$AA@	; `string'
PUBLIC	??_C@_0BE@DIIHHDHK@GRASS_APPLY_STYLE?$CFi?$AA@	; `string'
PUBLIC	??_C@_0O@FHMFIMAC@GRASS_FOG_EXP?$AA@		; `string'
PUBLIC	??_C@_0M@EDHNOIFH@GrassDlight?$AA@		; `string'
PUBLIC	??_C@_0BM@BGKIHFAK@GRASS_LIGHT_OMNIDIRECTIONAL?$AA@ ; `string'
PUBLIC	??_C@_0BH@HPNMDGOB@GRASS_LIGHT_PROJECTION?$AA@	; `string'
PUBLIC	??_C@_0BC@BHEHOBKF@GRASS_HAS_SHADOWS?$AA@	; `string'
PUBLIC	?__LINE__Var@?0??GL_UberShaderForBmodelDecal@@YAGPAUdecal_s@@@Z@4JA ; `GL_UberShaderForBmodelDecal'::`1'::__LINE__Var
PUBLIC	??_C@_0M@FKJJKBMN@BmodelDecal?$AA@		; `string'
PUBLIC	??_C@_0BE@GACGLFGM@DECAL_APPLY_STYLE?$CFi?$AA@	; `string'
PUBLIC	??_C@_0BA@ONPHMGJH@DECAL_ALPHATEST?$AA@		; `string'
PUBLIC	??_C@_0BB@GEGJOHBC@DECAL_FULLBRIGHT?$AA@	; `string'
PUBLIC	??_C@_0O@CONEDAKL@DECAL_FOG_EXP?$AA@		; `string'
PUBLIC	??_C@_0M@IEJOAFIH@StudioSolid?$AA@		; `string'
PUBLIC	??_C@_0BL@NPDONKFB@?$CDdefine?5MAXSTUDIOBONES?5?$CFd?6?$AA@ ; `string'
PUBLIC	??_C@_0BK@FOLBDGDH@?$CDdefine?5MAXSTUDIOBONES?51?6?$AA@ ; `string'
PUBLIC	??_C@_0BF@EHMPMNCE@STUDIO_BONEWEIGHTING?$AA@	; `string'
PUBLIC	??_C@_0BC@COADAGML@STUDIO_HAS_CHROME?$AA@	; `string'
PUBLIC	??_C@_0BC@FANBPCPJ@STUDIO_FULLBRIGHT?$AA@	; `string'
PUBLIC	??_C@_0BH@FKBCCABK@STUDIO_LIGHT_FLATSHADE?$AA@	; `string'
PUBLIC	??_C@_0O@CKALONGO@STUDIO_EMBOSS?$AA@		; `string'
PUBLIC	??_C@_0BA@NBCLHJFL@STUDIO_SPECULAR?$AA@		; `string'
PUBLIC	??_C@_0M@LOLLNBMH@STUDIO_BUMP?$AA@		; `string'
PUBLIC	??_C@_0BE@NHNIOEPO@STUDIO_SWAY_FOLIAGE?$AA@	; `string'
PUBLIC	??_C@_0P@EAIBONLP@STUDIO_FOG_EXP?$AA@		; `string'
PUBLIC	??_C@_0N@DNMDOFLN@StudioDlight?$AA@		; `string'
PUBLIC	??_C@_0BN@OODKPABL@STUDIO_LIGHT_OMNIDIRECTIONAL?$AA@ ; `string'
PUBLIC	??_C@_0BI@HECBNCEH@STUDIO_LIGHT_PROJECTION?$AA@	; `string'
PUBLIC	??_C@_0BD@KGIMNJDD@STUDIO_HAS_SHADOWS?$AA@	; `string'
PUBLIC	??_C@_0M@EOFEOEOD@StudioDecal?$AA@		; `string'
PUBLIC	??_C@_0BD@EODPNJDL@STUDIO_ALPHA_GLASS?$AA@	; `string'
PUBLIC	??_C@_0O@FFCCJAIN@GenericDlight?$AA@		; `string'
PUBLIC	??_C@_0BO@DKEIEFBK@GENERIC_LIGHT_OMNIDIRECTIONAL?$AA@ ; `string'
PUBLIC	??_C@_0BJ@JMLOAHFL@GENERIC_LIGHT_PROJECTION?$AA@ ; `string'
PUBLIC	??_C@_0BA@DHGNAIIA@GENERIC_FOG_EXP?$AA@		; `string'
PUBLIC	??_C@_0BE@JNEHHLPA@GENERIC_HAS_SHADOWS?$AA@	; `string'
PUBLIC	??_C@_0N@LHAEPDJL@?$CD?$CFi?5?$CFs?5?$FL?$CFs?$FN?6?$AA@ ; `string'
PUBLIC	??_C@_07KFCPEDAB@?$CD?$CFi?5?$CFs?6?$AA@	; `string'
PUBLIC	??_C@_0BC@KGOJMEGM@total?5?$CFi?5shaders?6?$AA@	; `string'
PUBLIC	??_C@_0L@LGFNICHF@shaderlist?$AA@		; `string'
PUBLIC	??_C@_09CIAJKFPI@genshafts?$AA@			; `string'
PUBLIC	??_C@_07DCLBNMLN@generic?$AA@			; `string'
PUBLIC	??_C@_0N@LEDPODHG@GenSunShafts?$AA@		; `string'
PUBLIC	??_C@_0L@LPJGKIHI@drawshafts?$AA@		; `string'
PUBLIC	??_C@_0O@POAODLNE@DrawSunShafts?$AA@		; `string'
PUBLIC	??_C@_07MHALMHEO@genssao?$AA@			; `string'
PUBLIC	??_C@_07PCEHEHGA@GenSSAO?$AA@			; `string'
PUBLIC	??_C@_08KBGCJECO@drawssao?$AA@			; `string'
PUBLIC	??_C@_08OPKJPEPF@DrawSSAO?$AA@			; `string'
PUBLIC	??_C@_0L@NPAOGMOH@motionblur?$AA@		; `string'
PUBLIC	??_C@_0L@JIFDMMDE@MotionBlur?$AA@		; `string'
PUBLIC	??_C@_0P@BPJNBEAK@horizontalblur?$AA@		; `string'
PUBLIC	??_C@_0P@FGJJAFJA@HorizontalBlur?$AA@		; `string'
PUBLIC	??_C@_0L@FEJFGKNE@monochrome?$AA@		; `string'
PUBLIC	??_C@_0L@NCAJOFAD@Monochrome?$AA@		; `string'
PUBLIC	??_C@_07BAEIAAJA@enhance?$AA@			; `string'
PUBLIC	??_C@_07OJDOGCMG@Enhance?$AA@			; `string'
PUBLIC	??_C@_0M@LMDPNEHE@screenwater?$AA@		; `string'
PUBLIC	??_C@_0M@KDKCAKLK@ScreenWater?$AA@		; `string'
PUBLIC	??_C@_06MEHOCLOK@glitch?$AA@			; `string'
PUBLIC	??_C@_06LMDBCHG@Glitch?$AA@			; `string'
PUBLIC	??_C@_0L@BACGMAPK@waterdrops?$AA@		; `string'
PUBLIC	??_C@_0L@JBBGEKBL@WaterDrops?$AA@		; `string'
PUBLIC	??_C@_07DHDOCNI@tonemap?$AA@			; `string'
PUBLIC	??_C@_07FKDHCPLA@ToneMap?$AA@			; `string'
PUBLIC	??_C@_0BC@DGGDCKEA@generate_exposure?$AA@	; `string'
PUBLIC	??_C@_0M@HNGKCBPC@GenExposure?$AA@		; `string'
PUBLIC	??_C@_05KHFOBEOD@bloom?$AA@			; `string'
PUBLIC	??_C@_05KAPCBBNF@Bloom?$AA@			; `string'
PUBLIC	??_C@_07DNINCIJL@blurmip?$AA@			; `string'
PUBLIC	??_C@_07GEMJOFPD@BlurMip?$AA@			; `string'
PUBLIC	??_C@_0BD@NDDONEJH@generate_luminance?$AA@	; `string'
PUBLIC	??_C@_0N@PGBKAPDM@GenLuminance?$AA@		; `string'
PUBLIC	??_C@_0BA@LMFCEOFG@?$CDdefine?5BLUR_X?6?$AA@	; `string'
PUBLIC	??_C@_09NOBOKBD@gaussblur?$AA@			; `string'
PUBLIC	??_C@_0O@IFCLCIDB@HW_GaussBlurX?$AA@		; `string'
PUBLIC	??_C@_0BA@LNJACEGB@?$CDdefine?5BLUR_Y?6?$AA@	; `string'
PUBLIC	??_C@_0O@JMDABJHA@HW_GaussBlurY?$AA@		; `string'
PUBLIC	??_C@_06BMKANHHL@skybox?$AA@			; `string'
PUBLIC	??_C@_0O@JBFOLGIF@SkyBoxGeneric?$AA@		; `string'
PUBLIC	??_C@_0M@HCHJLIAN@StudioDepth?$AA@		; `string'
PUBLIC	??_C@_0BO@EFFFJJMB@?$CDdefine?5STUDIO_BONEWEIGHTING?6?$AA@ ; `string'
PUBLIC	??_C@_0M@GGLEPNCD@BmodelDepth?$AA@		; `string'
PUBLIC	??_C@_0L@JIKKJIAL@BrushDepth?$AA@		; `string'
PUBLIC	??_C@_0L@HNAIOPAA@GrassDepth?$AA@		; `string'
PUBLIC	??_C@_0BJ@EIBCNIOJ@?$CDdefine?5GENERIC_FOG_EXP?6?$AA@ ; `string'
PUBLIC	??_C@_0L@NLJJNDD@GenericFog?$AA@		; `string'
PUBLIC	__real@00000000
PUBLIC	__real@3c23d70a
PUBLIC	__real@4080000000000000
EXTRN	_memset:PROC
EXTRN	??0matrix4x4@@QAE@XZ:PROC			; matrix4x4::matrix4x4
EXTRN	?Q_strlen@@YAHPBD@Z:PROC			; Q_strlen
EXTRN	?Q_strncat@@YAIPADPBDI@Z:PROC			; Q_strncat
EXTRN	?Q_strncpy@@YAIPADPBDI@Z:PROC			; Q_strncpy
EXTRN	?Q_strchr@@YAPADPBDD@Z:PROC			; Q_strchr
EXTRN	?Q_strnicmp@@YAHPBD0H@Z:PROC			; Q_strnicmp
EXTRN	?Q_strncmp@@YAHPBD0H@Z:PROC			; Q_strncmp
EXTRN	?Q_strstr@@YAPADPBD0@Z:PROC			; Q_strstr
EXTRN	?Q_stristr@@YAPADPBD0@Z:PROC			; Q_stristr
EXTRN	?Q_snprintf@@YAHPADIPBDZZ:PROC			; Q_snprintf
EXTRN	?va@@YAPADPBDZZ:PROC				; va
EXTRN	?COM_ParseFileExt@@YAPADPAD0J_N@Z:PROC		; COM_ParseFileExt
EXTRN	?COM_HashKey@@YAIPBDI@Z:PROC			; COM_HashKey
EXTRN	?ALERT@@YAXW4ALERT_TYPE@@PADZZ:PROC		; ALERT
EXTRN	?GL_Support@@YA_NH@Z:PROC			; GL_Support
EXTRN	??0CVirtualFS@@QAE@XZ:PROC			; CVirtualFS::CVirtualFS
EXTRN	??1CVirtualFS@@QAE@XZ:PROC			; CVirtualFS::~CVirtualFS
EXTRN	?Write@CVirtualFS@@QAEIPBXI@Z:PROC		; CVirtualFS::Write
EXTRN	?Print@CVirtualFS@@QAEIPBD@Z:PROC		; CVirtualFS::Print
EXTRN	?Printf@CVirtualFS@@QAAIPBDZZ:PROC		; CVirtualFS::Printf
EXTRN	?Seek@CVirtualFS@@QAEHIH@Z:PROC			; CVirtualFS::Seek
EXTRN	?Gets@CVirtualFS@@QAEHPADI@Z:PROC		; CVirtualFS::Gets
EXTRN	@__security_check_cookie@4:PROC
EXTRN	___CxxFrameHandler3:PROC
EXTRN	?gEngfuncs@@3Ucl_enginefuncs_s@@A:BYTE		; gEngfuncs
EXTRN	?gRenderfuncs@@3Urender_api_s@@A:BYTE		; gRenderfuncs
EXTRN	?developer_level@@3HA:DWORD			; developer_level
EXTRN	?pglDeleteObjectARB@@3P6GXI@ZA:DWORD		; pglDeleteObjectARB
EXTRN	?pglCreateShaderObjectARB@@3P6GII@ZA:DWORD	; pglCreateShaderObjectARB
EXTRN	?pglShaderSourceARB@@3P6GXIHPAPBDPBH@ZA:DWORD	; pglShaderSourceARB
EXTRN	?pglCompileShaderARB@@3P6GXI@ZA:DWORD		; pglCompileShaderARB
EXTRN	?pglCreateProgramObjectARB@@3P6GIXZA:DWORD	; pglCreateProgramObjectARB
EXTRN	?pglAttachObjectARB@@3P6GXII@ZA:DWORD		; pglAttachObjectARB
EXTRN	?pglLinkProgramARB@@3P6GXI@ZA:DWORD		; pglLinkProgramARB
EXTRN	?pglUseProgramObjectARB@@3P6GXI@ZA:DWORD	; pglUseProgramObjectARB
EXTRN	?pglValidateProgramARB@@3P6GXI@ZA:DWORD		; pglValidateProgramARB
EXTRN	?pglUniform1iARB@@3P6GXHH@ZA:DWORD		; pglUniform1iARB
EXTRN	?pglGetObjectParameterivARB@@3P6GXIIPAH@ZA:DWORD ; pglGetObjectParameterivARB
EXTRN	?pglGetInfoLogARB@@3P6GXIHPAHPAD@ZA:DWORD	; pglGetInfoLogARB
EXTRN	?pglGetUniformLocationARB@@3P6GHIPBD@ZA:DWORD	; pglGetUniformLocationARB
EXTRN	?pglGetActiveUniformARB@@3P6GXIIHPAH0PAIPAD@ZA:DWORD ; pglGetActiveUniformARB
EXTRN	?pglBindAttribLocationARB@@3P6GXIIPBD@ZA:DWORD	; pglBindAttribLocationARB
EXTRN	?r_shadows@@3PAUcvar_s@@A:DWORD			; r_shadows
EXTRN	?r_fullbright@@3PAUcvar_s@@A:DWORD		; r_fullbright
EXTRN	?gl_allow_portals@@3PAUcvar_s@@A:DWORD		; gl_allow_portals
EXTRN	?gl_allow_screens@@3PAUcvar_s@@A:DWORD		; gl_allow_screens
EXTRN	?r_detailtextures@@3PAUcvar_s@@A:DWORD		; r_detailtextures
EXTRN	?r_mirrorquality@@3PAUcvar_s@@A:DWORD		; r_mirrorquality
EXTRN	?gl_water_refraction@@3PAUcvar_s@@A:DWORD	; gl_water_refraction
EXTRN	?gl_water_planar@@3PAUcvar_s@@A:DWORD		; gl_water_planar
EXTRN	?gl_emboss@@3PAUcvar_s@@A:DWORD			; gl_emboss
EXTRN	?gl_specular@@3PAUcvar_s@@A:DWORD		; gl_specular
EXTRN	?gl_cubemaps@@3PAUcvar_s@@A:DWORD		; gl_cubemaps
EXTRN	?gl_bump@@3PAUcvar_s@@A:DWORD			; gl_bump
EXTRN	?worldmodel@@3PAUmodel_s@@A:DWORD		; worldmodel
EXTRN	?RI@@3PAUref_instance_t@@A:DWORD		; RI
EXTRN	?tr@@3Uref_globals_t@@A:BYTE			; tr
EXTRN	?r_stats@@3Uref_stats_t@@A:BYTE			; r_stats
EXTRN	?glState@@3UglState_t@@A:BYTE			; glState
EXTRN	?glConfig@@3UglConfig_t@@A:BYTE			; glConfig
EXTRN	?world@@3PAUgl_world_t@@A:DWORD			; world
EXTRN	___security_cookie:DWORD
EXTRN	__fltused:DWORD
_BSS	SEGMENT
?filenames_stack@@3PAY0BAA@DA DB 04000H DUP (?)		; filenames_stack
?file_stack_pos@@3HA DD 01H DUP (?)			; file_stack_pos
?msg@?1??GL_PrintInfoLog@@YAPADI@Z@4PADA DB 02000H DUP (?) ; `GL_PrintInfoLog'::`2'::msg
?output@?1??GL_PretifyListOptions@@YAPBDPBD_N@Z@4PADA DB 0200H DUP (?) ; `GL_PretifyListOptions'::`2'::output
_BSS	ENDS
;	COMDAT __real@4080000000000000
CONST	SEGMENT
__real@4080000000000000 DQ 04080000000000000r	; 512
CONST	ENDS
;	COMDAT __real@3c23d70a
CONST	SEGMENT
__real@3c23d70a DD 03c23d70ar			; 0.01
CONST	ENDS
;	COMDAT __real@00000000
CONST	SEGMENT
__real@00000000 DD 000000000r			; 0
CONST	ENDS
;	COMDAT ??_C@_0L@NLJJNDD@GenericFog?$AA@
CONST	SEGMENT
??_C@_0L@NLJJNDD@GenericFog?$AA@ DB 'GenericFog', 00H	; `string'
CONST	ENDS
;	COMDAT ??_C@_0BJ@EIBCNIOJ@?$CDdefine?5GENERIC_FOG_EXP?6?$AA@
CONST	SEGMENT
??_C@_0BJ@EIBCNIOJ@?$CDdefine?5GENERIC_FOG_EXP?6?$AA@ DB '#define GENERIC'
	DB	'_FOG_EXP', 0aH, 00H				; `string'
CONST	ENDS
;	COMDAT ??_C@_0L@HNAIOPAA@GrassDepth?$AA@
CONST	SEGMENT
??_C@_0L@HNAIOPAA@GrassDepth?$AA@ DB 'GrassDepth', 00H	; `string'
CONST	ENDS
;	COMDAT ??_C@_0L@JIKKJIAL@BrushDepth?$AA@
CONST	SEGMENT
??_C@_0L@JIKKJIAL@BrushDepth?$AA@ DB 'BrushDepth', 00H	; `string'
CONST	ENDS
;	COMDAT ??_C@_0M@GGLEPNCD@BmodelDepth?$AA@
CONST	SEGMENT
??_C@_0M@GGLEPNCD@BmodelDepth?$AA@ DB 'BmodelDepth', 00H ; `string'
CONST	ENDS
;	COMDAT ??_C@_0BO@EFFFJJMB@?$CDdefine?5STUDIO_BONEWEIGHTING?6?$AA@
CONST	SEGMENT
??_C@_0BO@EFFFJJMB@?$CDdefine?5STUDIO_BONEWEIGHTING?6?$AA@ DB '#define ST'
	DB	'UDIO_BONEWEIGHTING', 0aH, 00H		; `string'
CONST	ENDS
;	COMDAT ??_C@_0M@HCHJLIAN@StudioDepth?$AA@
CONST	SEGMENT
??_C@_0M@HCHJLIAN@StudioDepth?$AA@ DB 'StudioDepth', 00H ; `string'
CONST	ENDS
;	COMDAT ??_C@_0O@JBFOLGIF@SkyBoxGeneric?$AA@
CONST	SEGMENT
??_C@_0O@JBFOLGIF@SkyBoxGeneric?$AA@ DB 'SkyBoxGeneric', 00H ; `string'
CONST	ENDS
;	COMDAT ??_C@_06BMKANHHL@skybox?$AA@
CONST	SEGMENT
??_C@_06BMKANHHL@skybox?$AA@ DB 'skybox', 00H		; `string'
CONST	ENDS
;	COMDAT ??_C@_0O@JMDABJHA@HW_GaussBlurY?$AA@
CONST	SEGMENT
??_C@_0O@JMDABJHA@HW_GaussBlurY?$AA@ DB 'HW_GaussBlurY', 00H ; `string'
CONST	ENDS
;	COMDAT ??_C@_0BA@LNJACEGB@?$CDdefine?5BLUR_Y?6?$AA@
CONST	SEGMENT
??_C@_0BA@LNJACEGB@?$CDdefine?5BLUR_Y?6?$AA@ DB '#define BLUR_Y', 0aH, 00H ; `string'
CONST	ENDS
;	COMDAT ??_C@_0O@IFCLCIDB@HW_GaussBlurX?$AA@
CONST	SEGMENT
??_C@_0O@IFCLCIDB@HW_GaussBlurX?$AA@ DB 'HW_GaussBlurX', 00H ; `string'
CONST	ENDS
;	COMDAT ??_C@_09NOBOKBD@gaussblur?$AA@
CONST	SEGMENT
??_C@_09NOBOKBD@gaussblur?$AA@ DB 'gaussblur', 00H	; `string'
CONST	ENDS
;	COMDAT ??_C@_0BA@LMFCEOFG@?$CDdefine?5BLUR_X?6?$AA@
CONST	SEGMENT
??_C@_0BA@LMFCEOFG@?$CDdefine?5BLUR_X?6?$AA@ DB '#define BLUR_X', 0aH, 00H ; `string'
CONST	ENDS
;	COMDAT ??_C@_0N@PGBKAPDM@GenLuminance?$AA@
CONST	SEGMENT
??_C@_0N@PGBKAPDM@GenLuminance?$AA@ DB 'GenLuminance', 00H ; `string'
CONST	ENDS
;	COMDAT ??_C@_0BD@NDDONEJH@generate_luminance?$AA@
CONST	SEGMENT
??_C@_0BD@NDDONEJH@generate_luminance?$AA@ DB 'generate_luminance', 00H ; `string'
CONST	ENDS
;	COMDAT ??_C@_07GEMJOFPD@BlurMip?$AA@
CONST	SEGMENT
??_C@_07GEMJOFPD@BlurMip?$AA@ DB 'BlurMip', 00H		; `string'
CONST	ENDS
;	COMDAT ??_C@_07DNINCIJL@blurmip?$AA@
CONST	SEGMENT
??_C@_07DNINCIJL@blurmip?$AA@ DB 'blurmip', 00H		; `string'
CONST	ENDS
;	COMDAT ??_C@_05KAPCBBNF@Bloom?$AA@
CONST	SEGMENT
??_C@_05KAPCBBNF@Bloom?$AA@ DB 'Bloom', 00H		; `string'
CONST	ENDS
;	COMDAT ??_C@_05KHFOBEOD@bloom?$AA@
CONST	SEGMENT
??_C@_05KHFOBEOD@bloom?$AA@ DB 'bloom', 00H		; `string'
CONST	ENDS
;	COMDAT ??_C@_0M@HNGKCBPC@GenExposure?$AA@
CONST	SEGMENT
??_C@_0M@HNGKCBPC@GenExposure?$AA@ DB 'GenExposure', 00H ; `string'
CONST	ENDS
;	COMDAT ??_C@_0BC@DGGDCKEA@generate_exposure?$AA@
CONST	SEGMENT
??_C@_0BC@DGGDCKEA@generate_exposure?$AA@ DB 'generate_exposure', 00H ; `string'
CONST	ENDS
;	COMDAT ??_C@_07FKDHCPLA@ToneMap?$AA@
CONST	SEGMENT
??_C@_07FKDHCPLA@ToneMap?$AA@ DB 'ToneMap', 00H		; `string'
CONST	ENDS
;	COMDAT ??_C@_07DHDOCNI@tonemap?$AA@
CONST	SEGMENT
??_C@_07DHDOCNI@tonemap?$AA@ DB 'tonemap', 00H		; `string'
CONST	ENDS
;	COMDAT ??_C@_0L@JBBGEKBL@WaterDrops?$AA@
CONST	SEGMENT
??_C@_0L@JBBGEKBL@WaterDrops?$AA@ DB 'WaterDrops', 00H	; `string'
CONST	ENDS
;	COMDAT ??_C@_0L@BACGMAPK@waterdrops?$AA@
CONST	SEGMENT
??_C@_0L@BACGMAPK@waterdrops?$AA@ DB 'waterdrops', 00H	; `string'
CONST	ENDS
;	COMDAT ??_C@_06LMDBCHG@Glitch?$AA@
CONST	SEGMENT
??_C@_06LMDBCHG@Glitch?$AA@ DB 'Glitch', 00H		; `string'
CONST	ENDS
;	COMDAT ??_C@_06MEHOCLOK@glitch?$AA@
CONST	SEGMENT
??_C@_06MEHOCLOK@glitch?$AA@ DB 'glitch', 00H		; `string'
CONST	ENDS
;	COMDAT ??_C@_0M@KDKCAKLK@ScreenWater?$AA@
CONST	SEGMENT
??_C@_0M@KDKCAKLK@ScreenWater?$AA@ DB 'ScreenWater', 00H ; `string'
CONST	ENDS
;	COMDAT ??_C@_0M@LMDPNEHE@screenwater?$AA@
CONST	SEGMENT
??_C@_0M@LMDPNEHE@screenwater?$AA@ DB 'screenwater', 00H ; `string'
CONST	ENDS
;	COMDAT ??_C@_07OJDOGCMG@Enhance?$AA@
CONST	SEGMENT
??_C@_07OJDOGCMG@Enhance?$AA@ DB 'Enhance', 00H		; `string'
CONST	ENDS
;	COMDAT ??_C@_07BAEIAAJA@enhance?$AA@
CONST	SEGMENT
??_C@_07BAEIAAJA@enhance?$AA@ DB 'enhance', 00H		; `string'
CONST	ENDS
;	COMDAT ??_C@_0L@NCAJOFAD@Monochrome?$AA@
CONST	SEGMENT
??_C@_0L@NCAJOFAD@Monochrome?$AA@ DB 'Monochrome', 00H	; `string'
CONST	ENDS
;	COMDAT ??_C@_0L@FEJFGKNE@monochrome?$AA@
CONST	SEGMENT
??_C@_0L@FEJFGKNE@monochrome?$AA@ DB 'monochrome', 00H	; `string'
CONST	ENDS
;	COMDAT ??_C@_0P@FGJJAFJA@HorizontalBlur?$AA@
CONST	SEGMENT
??_C@_0P@FGJJAFJA@HorizontalBlur?$AA@ DB 'HorizontalBlur', 00H ; `string'
CONST	ENDS
;	COMDAT ??_C@_0P@BPJNBEAK@horizontalblur?$AA@
CONST	SEGMENT
??_C@_0P@BPJNBEAK@horizontalblur?$AA@ DB 'horizontalblur', 00H ; `string'
CONST	ENDS
;	COMDAT ??_C@_0L@JIFDMMDE@MotionBlur?$AA@
CONST	SEGMENT
??_C@_0L@JIFDMMDE@MotionBlur?$AA@ DB 'MotionBlur', 00H	; `string'
CONST	ENDS
;	COMDAT ??_C@_0L@NPAOGMOH@motionblur?$AA@
CONST	SEGMENT
??_C@_0L@NPAOGMOH@motionblur?$AA@ DB 'motionblur', 00H	; `string'
CONST	ENDS
;	COMDAT ??_C@_08OPKJPEPF@DrawSSAO?$AA@
CONST	SEGMENT
??_C@_08OPKJPEPF@DrawSSAO?$AA@ DB 'DrawSSAO', 00H	; `string'
CONST	ENDS
;	COMDAT ??_C@_08KBGCJECO@drawssao?$AA@
CONST	SEGMENT
??_C@_08KBGCJECO@drawssao?$AA@ DB 'drawssao', 00H	; `string'
CONST	ENDS
;	COMDAT ??_C@_07PCEHEHGA@GenSSAO?$AA@
CONST	SEGMENT
??_C@_07PCEHEHGA@GenSSAO?$AA@ DB 'GenSSAO', 00H		; `string'
CONST	ENDS
;	COMDAT ??_C@_07MHALMHEO@genssao?$AA@
CONST	SEGMENT
??_C@_07MHALMHEO@genssao?$AA@ DB 'genssao', 00H		; `string'
CONST	ENDS
;	COMDAT ??_C@_0O@POAODLNE@DrawSunShafts?$AA@
CONST	SEGMENT
??_C@_0O@POAODLNE@DrawSunShafts?$AA@ DB 'DrawSunShafts', 00H ; `string'
CONST	ENDS
;	COMDAT ??_C@_0L@LPJGKIHI@drawshafts?$AA@
CONST	SEGMENT
??_C@_0L@LPJGKIHI@drawshafts?$AA@ DB 'drawshafts', 00H	; `string'
CONST	ENDS
;	COMDAT ??_C@_0N@LEDPODHG@GenSunShafts?$AA@
CONST	SEGMENT
??_C@_0N@LEDPODHG@GenSunShafts?$AA@ DB 'GenSunShafts', 00H ; `string'
CONST	ENDS
;	COMDAT ??_C@_07DCLBNMLN@generic?$AA@
CONST	SEGMENT
??_C@_07DCLBNMLN@generic?$AA@ DB 'generic', 00H		; `string'
CONST	ENDS
;	COMDAT ??_C@_09CIAJKFPI@genshafts?$AA@
CONST	SEGMENT
??_C@_09CIAJKFPI@genshafts?$AA@ DB 'genshafts', 00H	; `string'
CONST	ENDS
;	COMDAT ??_C@_0L@LGFNICHF@shaderlist?$AA@
CONST	SEGMENT
??_C@_0L@LGFNICHF@shaderlist?$AA@ DB 'shaderlist', 00H	; `string'
CONST	ENDS
;	COMDAT ??_C@_0BC@KGOJMEGM@total?5?$CFi?5shaders?6?$AA@
CONST	SEGMENT
??_C@_0BC@KGOJMEGM@total?5?$CFi?5shaders?6?$AA@ DB 'total %i shaders', 0aH
	DB	00H						; `string'
CONST	ENDS
;	COMDAT ??_C@_07KFCPEDAB@?$CD?$CFi?5?$CFs?6?$AA@
CONST	SEGMENT
??_C@_07KFCPEDAB@?$CD?$CFi?5?$CFs?6?$AA@ DB '#%i %s', 0aH, 00H ; `string'
CONST	ENDS
;	COMDAT ??_C@_0N@LHAEPDJL@?$CD?$CFi?5?$CFs?5?$FL?$CFs?$FN?6?$AA@
CONST	SEGMENT
??_C@_0N@LHAEPDJL@?$CD?$CFi?5?$CFs?5?$FL?$CFs?$FN?6?$AA@ DB '#%i %s [%s]', 0aH
	DB	00H						; `string'
CONST	ENDS
;	COMDAT ??_C@_0BE@JNEHHLPA@GENERIC_HAS_SHADOWS?$AA@
CONST	SEGMENT
??_C@_0BE@JNEHHLPA@GENERIC_HAS_SHADOWS?$AA@ DB 'GENERIC_HAS_SHADOWS', 00H ; `string'
CONST	ENDS
;	COMDAT ??_C@_0BA@DHGNAIIA@GENERIC_FOG_EXP?$AA@
CONST	SEGMENT
??_C@_0BA@DHGNAIIA@GENERIC_FOG_EXP?$AA@ DB 'GENERIC_FOG_EXP', 00H ; `string'
CONST	ENDS
;	COMDAT ??_C@_0BJ@JMLOAHFL@GENERIC_LIGHT_PROJECTION?$AA@
CONST	SEGMENT
??_C@_0BJ@JMLOAHFL@GENERIC_LIGHT_PROJECTION?$AA@ DB 'GENERIC_LIGHT_PROJEC'
	DB	'TION', 00H					; `string'
CONST	ENDS
;	COMDAT ??_C@_0BO@DKEIEFBK@GENERIC_LIGHT_OMNIDIRECTIONAL?$AA@
CONST	SEGMENT
??_C@_0BO@DKEIEFBK@GENERIC_LIGHT_OMNIDIRECTIONAL?$AA@ DB 'GENERIC_LIGHT_O'
	DB	'MNIDIRECTIONAL', 00H			; `string'
CONST	ENDS
;	COMDAT ??_C@_0O@FFCCJAIN@GenericDlight?$AA@
CONST	SEGMENT
??_C@_0O@FFCCJAIN@GenericDlight?$AA@ DB 'GenericDlight', 00H ; `string'
CONST	ENDS
;	COMDAT ??_C@_0BD@EODPNJDL@STUDIO_ALPHA_GLASS?$AA@
CONST	SEGMENT
??_C@_0BD@EODPNJDL@STUDIO_ALPHA_GLASS?$AA@ DB 'STUDIO_ALPHA_GLASS', 00H ; `string'
CONST	ENDS
;	COMDAT ??_C@_0M@EOFEOEOD@StudioDecal?$AA@
CONST	SEGMENT
??_C@_0M@EOFEOEOD@StudioDecal?$AA@ DB 'StudioDecal', 00H ; `string'
CONST	ENDS
;	COMDAT ??_C@_0BD@KGIMNJDD@STUDIO_HAS_SHADOWS?$AA@
CONST	SEGMENT
??_C@_0BD@KGIMNJDD@STUDIO_HAS_SHADOWS?$AA@ DB 'STUDIO_HAS_SHADOWS', 00H ; `string'
CONST	ENDS
;	COMDAT ??_C@_0BI@HECBNCEH@STUDIO_LIGHT_PROJECTION?$AA@
CONST	SEGMENT
??_C@_0BI@HECBNCEH@STUDIO_LIGHT_PROJECTION?$AA@ DB 'STUDIO_LIGHT_PROJECTI'
	DB	'ON', 00H					; `string'
CONST	ENDS
;	COMDAT ??_C@_0BN@OODKPABL@STUDIO_LIGHT_OMNIDIRECTIONAL?$AA@
CONST	SEGMENT
??_C@_0BN@OODKPABL@STUDIO_LIGHT_OMNIDIRECTIONAL?$AA@ DB 'STUDIO_LIGHT_OMN'
	DB	'IDIRECTIONAL', 00H				; `string'
CONST	ENDS
;	COMDAT ??_C@_0N@DNMDOFLN@StudioDlight?$AA@
CONST	SEGMENT
??_C@_0N@DNMDOFLN@StudioDlight?$AA@ DB 'StudioDlight', 00H ; `string'
CONST	ENDS
;	COMDAT ??_C@_0P@EAIBONLP@STUDIO_FOG_EXP?$AA@
CONST	SEGMENT
??_C@_0P@EAIBONLP@STUDIO_FOG_EXP?$AA@ DB 'STUDIO_FOG_EXP', 00H ; `string'
CONST	ENDS
;	COMDAT ??_C@_0BE@NHNIOEPO@STUDIO_SWAY_FOLIAGE?$AA@
CONST	SEGMENT
??_C@_0BE@NHNIOEPO@STUDIO_SWAY_FOLIAGE?$AA@ DB 'STUDIO_SWAY_FOLIAGE', 00H ; `string'
CONST	ENDS
;	COMDAT ??_C@_0M@LOLLNBMH@STUDIO_BUMP?$AA@
CONST	SEGMENT
??_C@_0M@LOLLNBMH@STUDIO_BUMP?$AA@ DB 'STUDIO_BUMP', 00H ; `string'
CONST	ENDS
;	COMDAT ??_C@_0BA@NBCLHJFL@STUDIO_SPECULAR?$AA@
CONST	SEGMENT
??_C@_0BA@NBCLHJFL@STUDIO_SPECULAR?$AA@ DB 'STUDIO_SPECULAR', 00H ; `string'
CONST	ENDS
;	COMDAT ??_C@_0O@CKALONGO@STUDIO_EMBOSS?$AA@
CONST	SEGMENT
??_C@_0O@CKALONGO@STUDIO_EMBOSS?$AA@ DB 'STUDIO_EMBOSS', 00H ; `string'
CONST	ENDS
;	COMDAT ??_C@_0BH@FKBCCABK@STUDIO_LIGHT_FLATSHADE?$AA@
CONST	SEGMENT
??_C@_0BH@FKBCCABK@STUDIO_LIGHT_FLATSHADE?$AA@ DB 'STUDIO_LIGHT_FLATSHADE'
	DB	00H						; `string'
CONST	ENDS
;	COMDAT ??_C@_0BC@FANBPCPJ@STUDIO_FULLBRIGHT?$AA@
CONST	SEGMENT
??_C@_0BC@FANBPCPJ@STUDIO_FULLBRIGHT?$AA@ DB 'STUDIO_FULLBRIGHT', 00H ; `string'
CONST	ENDS
;	COMDAT ??_C@_0BC@COADAGML@STUDIO_HAS_CHROME?$AA@
CONST	SEGMENT
??_C@_0BC@COADAGML@STUDIO_HAS_CHROME?$AA@ DB 'STUDIO_HAS_CHROME', 00H ; `string'
CONST	ENDS
;	COMDAT ??_C@_0BF@EHMPMNCE@STUDIO_BONEWEIGHTING?$AA@
CONST	SEGMENT
??_C@_0BF@EHMPMNCE@STUDIO_BONEWEIGHTING?$AA@ DB 'STUDIO_BONEWEIGHTING', 00H ; `string'
CONST	ENDS
;	COMDAT ??_C@_0BK@FOLBDGDH@?$CDdefine?5MAXSTUDIOBONES?51?6?$AA@
CONST	SEGMENT
??_C@_0BK@FOLBDGDH@?$CDdefine?5MAXSTUDIOBONES?51?6?$AA@ DB '#define MAXST'
	DB	'UDIOBONES 1', 0aH, 00H			; `string'
CONST	ENDS
;	COMDAT ??_C@_0BL@NPDONKFB@?$CDdefine?5MAXSTUDIOBONES?5?$CFd?6?$AA@
CONST	SEGMENT
??_C@_0BL@NPDONKFB@?$CDdefine?5MAXSTUDIOBONES?5?$CFd?6?$AA@ DB '#define M'
	DB	'AXSTUDIOBONES %d', 0aH, 00H			; `string'
CONST	ENDS
;	COMDAT ??_C@_0M@IEJOAFIH@StudioSolid?$AA@
CONST	SEGMENT
??_C@_0M@IEJOAFIH@StudioSolid?$AA@ DB 'StudioSolid', 00H ; `string'
CONST	ENDS
;	COMDAT ??_C@_0O@CONEDAKL@DECAL_FOG_EXP?$AA@
CONST	SEGMENT
??_C@_0O@CONEDAKL@DECAL_FOG_EXP?$AA@ DB 'DECAL_FOG_EXP', 00H ; `string'
CONST	ENDS
;	COMDAT ??_C@_0BB@GEGJOHBC@DECAL_FULLBRIGHT?$AA@
CONST	SEGMENT
??_C@_0BB@GEGJOHBC@DECAL_FULLBRIGHT?$AA@ DB 'DECAL_FULLBRIGHT', 00H ; `string'
CONST	ENDS
;	COMDAT ??_C@_0BA@ONPHMGJH@DECAL_ALPHATEST?$AA@
CONST	SEGMENT
??_C@_0BA@ONPHMGJH@DECAL_ALPHATEST?$AA@ DB 'DECAL_ALPHATEST', 00H ; `string'
CONST	ENDS
;	COMDAT ??_C@_0BE@GACGLFGM@DECAL_APPLY_STYLE?$CFi?$AA@
CONST	SEGMENT
??_C@_0BE@GACGLFGM@DECAL_APPLY_STYLE?$CFi?$AA@ DB 'DECAL_APPLY_STYLE%i', 00H ; `string'
CONST	ENDS
;	COMDAT ??_C@_0M@FKJJKBMN@BmodelDecal?$AA@
CONST	SEGMENT
??_C@_0M@FKJJKBMN@BmodelDecal?$AA@ DB 'BmodelDecal', 00H ; `string'
CONST	ENDS
;	COMDAT ?__LINE__Var@?0??GL_UberShaderForBmodelDecal@@YAGPAUdecal_s@@@Z@4JA
_DATA	SEGMENT
?__LINE__Var@?0??GL_UberShaderForBmodelDecal@@YAGPAUdecal_s@@@Z@4JA DD 0767H ; `GL_UberShaderForBmodelDecal'::`1'::__LINE__Var
_DATA	ENDS
;	COMDAT ??_C@_0BC@BHEHOBKF@GRASS_HAS_SHADOWS?$AA@
CONST	SEGMENT
??_C@_0BC@BHEHOBKF@GRASS_HAS_SHADOWS?$AA@ DB 'GRASS_HAS_SHADOWS', 00H ; `string'
CONST	ENDS
;	COMDAT ??_C@_0BH@HPNMDGOB@GRASS_LIGHT_PROJECTION?$AA@
CONST	SEGMENT
??_C@_0BH@HPNMDGOB@GRASS_LIGHT_PROJECTION?$AA@ DB 'GRASS_LIGHT_PROJECTION'
	DB	00H						; `string'
CONST	ENDS
;	COMDAT ??_C@_0BM@BGKIHFAK@GRASS_LIGHT_OMNIDIRECTIONAL?$AA@
CONST	SEGMENT
??_C@_0BM@BGKIHFAK@GRASS_LIGHT_OMNIDIRECTIONAL?$AA@ DB 'GRASS_LIGHT_OMNID'
	DB	'IRECTIONAL', 00H				; `string'
CONST	ENDS
;	COMDAT ??_C@_0M@EDHNOIFH@GrassDlight?$AA@
CONST	SEGMENT
??_C@_0M@EDHNOIFH@GrassDlight?$AA@ DB 'GrassDlight', 00H ; `string'
CONST	ENDS
;	COMDAT ??_C@_0O@FHMFIMAC@GRASS_FOG_EXP?$AA@
CONST	SEGMENT
??_C@_0O@FHMFIMAC@GRASS_FOG_EXP?$AA@ DB 'GRASS_FOG_EXP', 00H ; `string'
CONST	ENDS
;	COMDAT ??_C@_0BE@DIIHHDHK@GRASS_APPLY_STYLE?$CFi?$AA@
CONST	SEGMENT
??_C@_0BE@DIIHHDHK@GRASS_APPLY_STYLE?$CFi?$AA@ DB 'GRASS_APPLY_STYLE%i', 00H ; `string'
CONST	ENDS
;	COMDAT ??_C@_0BB@JAAAEAMC@GRASS_FULLBRIGHT?$AA@
CONST	SEGMENT
??_C@_0BB@JAAAEAMC@GRASS_FULLBRIGHT?$AA@ DB 'GRASS_FULLBRIGHT', 00H ; `string'
CONST	ENDS
;	COMDAT ??_C@_0L@ILOPFCIK@GrassSolid?$AA@
CONST	SEGMENT
??_C@_0L@ILOPFCIK@GrassSolid?$AA@ DB 'GrassSolid', 00H	; `string'
CONST	ENDS
;	COMDAT ??_C@_0BD@KIGFOMIP@BMODEL_HAS_SHADOWS?$AA@
CONST	SEGMENT
??_C@_0BD@KIGFOMIP@BMODEL_HAS_SHADOWS?$AA@ DB 'BMODEL_HAS_SHADOWS', 00H ; `string'
CONST	ENDS
;	COMDAT ??_C@_0BL@JGLDHOH@BMODEL_KRENDERTRANSTEXTURE?$AA@
CONST	SEGMENT
??_C@_0BL@JGLDHOH@BMODEL_KRENDERTRANSTEXTURE?$AA@ DB 'BMODEL_KRENDERTRANS'
	DB	'TEXTURE', 00H				; `string'
CONST	ENDS
;	COMDAT ??_C@_0BI@FOFDPJGA@BMODEL_LIGHT_PROJECTION?$AA@
CONST	SEGMENT
??_C@_0BI@FOFDPJGA@BMODEL_LIGHT_PROJECTION?$AA@ DB 'BMODEL_LIGHT_PROJECTI'
	DB	'ON', 00H					; `string'
CONST	ENDS
;	COMDAT ??_C@_0BN@NCPGFLCG@BMODEL_LIGHT_OMNIDIRECTIONAL?$AA@
CONST	SEGMENT
??_C@_0BN@NCPGFLCG@BMODEL_LIGHT_OMNIDIRECTIONAL?$AA@ DB 'BMODEL_LIGHT_OMN'
	DB	'IDIRECTIONAL', 00H				; `string'
CONST	ENDS
;	COMDAT ??_C@_0N@OBABCFDH@BmodelDlight?$AA@
CONST	SEGMENT
??_C@_0N@OBABCFDH@BmodelDlight?$AA@ DB 'BmodelDlight', 00H ; `string'
CONST	ENDS
;	COMDAT ??_C@_0P@BKIJIDAM@BMODEL_FOG_EXP?$AA@
CONST	SEGMENT
??_C@_0P@BKIJIDAM@BMODEL_FOG_EXP?$AA@ DB 'BMODEL_FOG_EXP', 00H ; `string'
CONST	ENDS
;	COMDAT ??_C@_0BC@NMNDDEJF@BMODEL_HAS_DETAIL?$AA@
CONST	SEGMENT
??_C@_0BC@NMNDDEJF@BMODEL_HAS_DETAIL?$AA@ DB 'BMODEL_HAS_DETAIL', 00H ; `string'
CONST	ENDS
;	COMDAT ??_C@_0BG@EHIGMOPN@TERRAIN_NUM_LAYERS?5?$CFi?$AA@
CONST	SEGMENT
??_C@_0BG@EHIGMOPN@TERRAIN_NUM_LAYERS?5?$CFi?$AA@ DB 'TERRAIN_NUM_LAYERS '
	DB	'%i', 00H					; `string'
CONST	ENDS
;	COMDAT ??_C@_0M@KKHGJEOJ@BMODEL_BUMP?$AA@
CONST	SEGMENT
??_C@_0M@KKHGJEOJ@BMODEL_BUMP?$AA@ DB 'BMODEL_BUMP', 00H ; `string'
CONST	ENDS
;	COMDAT ??_C@_0BA@IDBJJDAD@BMODEL_SPECULAR?$AA@
CONST	SEGMENT
??_C@_0BA@IDBJJDAD@BMODEL_SPECULAR?$AA@ DB 'BMODEL_SPECULAR', 00H ; `string'
CONST	ENDS
;	COMDAT ??_C@_0O@CHLKEFJA@BMODEL_EMBOSS?$AA@
CONST	SEGMENT
??_C@_0O@CHLKEFJA@BMODEL_EMBOSS?$AA@ DB 'BMODEL_EMBOSS', 00H ; `string'
CONST	ENDS
;	COMDAT ??_C@_0BI@KHDHCKHO@BMODEL_WATER_REFRACTION?$AA@
CONST	SEGMENT
??_C@_0BI@KHDHCKHO@BMODEL_WATER_REFRACTION?$AA@ DB 'BMODEL_WATER_REFRACTI'
	DB	'ON', 00H					; `string'
CONST	ENDS
;	COMDAT ??_C@_0BC@LPFDPIMB@BMODEL_WAVEHEIGHT?$AA@
CONST	SEGMENT
??_C@_0BC@LPFDPIMB@BMODEL_WAVEHEIGHT?$AA@ DB 'BMODEL_WAVEHEIGHT', 00H ; `string'
CONST	ENDS
;	COMDAT ??_C@_0N@KAHGMIHK@BMODEL_WATER?$AA@
CONST	SEGMENT
??_C@_0N@KAHGMIHK@BMODEL_WATER?$AA@ DB 'BMODEL_WATER', 00H ; `string'
CONST	ENDS
;	COMDAT ??_C@_0BA@EFJDEABO@BMODEL_HAS_LUMA?$AA@
CONST	SEGMENT
??_C@_0BA@EFJDEABO@BMODEL_HAS_LUMA?$AA@ DB 'BMODEL_HAS_LUMA', 00H ; `string'
CONST	ENDS
;	COMDAT ??_C@_0BF@CJFNHMMN@BMODEL_APPLY_STYLE?$CFi?$AA@
CONST	SEGMENT
??_C@_0BF@CJFNHMMN@BMODEL_APPLY_STYLE?$CFi?$AA@ DB 'BMODEL_APPLY_STYLE%i', 00H ; `string'
CONST	ENDS
;	COMDAT ??_C@_0BC@GCGMHMPB@BMODEL_FULLBRIGHT?$AA@
CONST	SEGMENT
??_C@_0BC@GCGMHMPB@BMODEL_FULLBRIGHT?$AA@ DB 'BMODEL_FULLBRIGHT', 00H ; `string'
CONST	ENDS
;	COMDAT ??_C@_0BC@FCBEIADP@BMODEL_MONOCHROME?$AA@
CONST	SEGMENT
??_C@_0BC@FCBEIADP@BMODEL_MONOCHROME?$AA@ DB 'BMODEL_MONOCHROME', 00H ; `string'
CONST	ENDS
;	COMDAT ??_C@_0O@GKJEGJGO@BMODEL_PORTAL?$AA@
CONST	SEGMENT
??_C@_0O@GKJEGJGO@BMODEL_PORTAL?$AA@ DB 'BMODEL_PORTAL', 00H ; `string'
CONST	ENDS
;	COMDAT ??_C@_0M@JAFDEAKJ@BmodelSolid?$AA@
CONST	SEGMENT
??_C@_0M@JAFDEAKJ@BmodelSolid?$AA@ DB 'BmodelSolid', 00H ; `string'
CONST	ENDS
;	COMDAT ?__LINE__Var@?0??GL_UberShaderForSolidBmodel@@YAGPAUmsurface_s@@_N@Z@4JA
_DATA	SEGMENT
?__LINE__Var@?0??GL_UberShaderForSolidBmodel@@YAGPAUmsurface_s@@_N@Z@4JA DD 05d8H ; `GL_UberShaderForSolidBmodel'::`1'::__LINE__Var
_DATA	ENDS
;	COMDAT ??_C@_07MAHLPAJA@?$CDdefine?$AA@
CONST	SEGMENT
??_C@_07MAHLPAJA@?$CDdefine?$AA@ DB '#define', 00H	; `string'
CONST	ENDS
;	COMDAT ?__LINE__Var@?0??GL_InitWaterDropsUniforms@@YAXPAUglsl_prog_s@@@Z@4JA
_DATA	SEGMENT
?__LINE__Var@?0??GL_InitWaterDropsUniforms@@YAXPAUglsl_prog_s@@@Z@4JA DD 05a6H ; `GL_InitWaterDropsUniforms'::`1'::__LINE__Var
_DATA	ENDS
;	COMDAT ?__LINE__Var@?0??GL_InitGlitchUniforms@@YAXPAUglsl_prog_s@@@Z@4JA
_DATA	SEGMENT
?__LINE__Var@?0??GL_InitGlitchUniforms@@YAXPAUglsl_prog_s@@@Z@4JA DD 0595H ; `GL_InitGlitchUniforms'::`1'::__LINE__Var
_DATA	ENDS
;	COMDAT ?__LINE__Var@?0??GL_InitScreenWaterUniforms@@YAXPAUglsl_prog_s@@@Z@4JA
_DATA	SEGMENT
?__LINE__Var@?0??GL_InitScreenWaterUniforms@@YAXPAUglsl_prog_s@@@Z@4JA DD 0582H ; `GL_InitScreenWaterUniforms'::`1'::__LINE__Var
_DATA	ENDS
;	COMDAT ??_C@_0BB@OFOHIACD@u_BloomFirstPass?$AA@
CONST	SEGMENT
??_C@_0BB@OFOHIACD@u_BloomFirstPass?$AA@ DB 'u_BloomFirstPass', 00H ; `string'
CONST	ENDS
;	COMDAT ??_C@_0BA@CHODOENL@u_TexCoordClamp?$AA@
CONST	SEGMENT
??_C@_0BA@CHODOENL@u_TexCoordClamp?$AA@ DB 'u_TexCoordClamp', 00H ; `string'
CONST	ENDS
;	COMDAT ?__LINE__Var@?0??GL_InitBlurMipUniforms@@YAXPAUglsl_prog_s@@@Z@4JA
_DATA	SEGMENT
?__LINE__Var@?0??GL_InitBlurMipUniforms@@YAXPAUglsl_prog_s@@@Z@4JA DD 0570H ; `GL_InitBlurMipUniforms'::`1'::__LINE__Var
_DATA	ENDS
;	COMDAT ??_C@_0M@JKCPEDOF@u_TimeDelta?$AA@
CONST	SEGMENT
??_C@_0M@JKCPEDOF@u_TimeDelta?$AA@ DB 'u_TimeDelta', 00H ; `string'
CONST	ENDS
;	COMDAT ?__LINE__Var@?0??GL_InitGenExposureUniforms@@YAXPAUglsl_prog_s@@@Z@4JA
_DATA	SEGMENT
?__LINE__Var@?0??GL_InitGenExposureUniforms@@YAXPAUglsl_prog_s@@@Z@4JA DD 055eH ; `GL_InitGenExposureUniforms'::`1'::__LINE__Var
_DATA	ENDS
;	COMDAT ?__LINE__Var@?0??GL_InitGenLuminanceUniforms@@YAXPAUglsl_prog_s@@@Z@4JA
_DATA	SEGMENT
?__LINE__Var@?0??GL_InitGenLuminanceUniforms@@YAXPAUglsl_prog_s@@@Z@4JA DD 054fH ; `GL_InitGenLuminanceUniforms'::`1'::__LINE__Var
_DATA	ENDS
;	COMDAT ??_C@_08EPOJODHO@u_MipLod?$AA@
CONST	SEGMENT
??_C@_08EPOJODHO@u_MipLod?$AA@ DB 'u_MipLod', 00H	; `string'
CONST	ENDS
;	COMDAT ??_C@_0O@NAHLAMOG@u_HDRExposure?$AA@
CONST	SEGMENT
??_C@_0O@NAHLAMOG@u_HDRExposure?$AA@ DB 'u_HDRExposure', 00H ; `string'
CONST	ENDS
;	COMDAT ?__LINE__Var@?0??GL_InitTonemapUniforms@@YAXPAUglsl_prog_s@@@Z@4JA
_DATA	SEGMENT
?__LINE__Var@?0??GL_InitTonemapUniforms@@YAXPAUglsl_prog_s@@@Z@4JA DD 053dH ; `GL_InitTonemapUniforms'::`1'::__LINE__Var
_DATA	ENDS
;	COMDAT ?__LINE__Var@?0??GL_InitBloomUniforms@@YAXPAUglsl_prog_s@@@Z@4JA
_DATA	SEGMENT
?__LINE__Var@?0??GL_InitBloomUniforms@@YAXPAUglsl_prog_s@@@Z@4JA DD 052dH ; `GL_InitBloomUniforms'::`1'::__LINE__Var
_DATA	ENDS
;	COMDAT ??_C@_0BE@BJALCEGK@u_GenericCondition2?$AA@
CONST	SEGMENT
??_C@_0BE@BJALCEGK@u_GenericCondition2?$AA@ DB 'u_GenericCondition2', 00H ; `string'
CONST	ENDS
;	COMDAT ?__LINE__Var@?0??GL_InitEnhanceUniforms@@YAXPAUglsl_prog_s@@@Z@4JA
_DATA	SEGMENT
?__LINE__Var@?0??GL_InitEnhanceUniforms@@YAXPAUglsl_prog_s@@@Z@4JA DD 051cH ; `GL_InitEnhanceUniforms'::`1'::__LINE__Var
_DATA	ENDS
;	COMDAT ?__LINE__Var@?0??GL_InitMonochromeUniforms@@YAXPAUglsl_prog_s@@@Z@4JA
_DATA	SEGMENT
?__LINE__Var@?0??GL_InitMonochromeUniforms@@YAXPAUglsl_prog_s@@@Z@4JA DD 050dH ; `GL_InitMonochromeUniforms'::`1'::__LINE__Var
_DATA	ENDS
;	COMDAT ?__LINE__Var@?0??GL_InitHorizontalBlurUniforms@@YAXPAUglsl_prog_s@@@Z@4JA
_DATA	SEGMENT
?__LINE__Var@?0??GL_InitHorizontalBlurUniforms@@YAXPAUglsl_prog_s@@@Z@4JA DD 04fdH ; `GL_InitHorizontalBlurUniforms'::`1'::__LINE__Var
_DATA	ENDS
;	COMDAT ??_C@_07BKJMBFNE@u_Accum?$AA@
CONST	SEGMENT
??_C@_07BKJMBFNE@u_Accum?$AA@ DB 'u_Accum', 00H		; `string'
CONST	ENDS
;	COMDAT ??_C@_0O@BPMLMILL@u_MB_Velocity?$AA@
CONST	SEGMENT
??_C@_0O@BPMLMILL@u_MB_Velocity?$AA@ DB 'u_MB_Velocity', 00H ; `string'
CONST	ENDS
;	COMDAT ?__LINE__Var@?0??GL_InitMotionBlurUniforms@@YAXPAUglsl_prog_s@@@Z@4JA
_DATA	SEGMENT
?__LINE__Var@?0??GL_InitMotionBlurUniforms@@YAXPAUglsl_prog_s@@@Z@4JA DD 04eaH ; `GL_InitMotionBlurUniforms'::`1'::__LINE__Var
_DATA	ENDS
;	COMDAT ??_C@_07LKADGIGM@u_AOMap?$AA@
CONST	SEGMENT
??_C@_07LKADGIGM@u_AOMap?$AA@ DB 'u_AOMap', 00H		; `string'
CONST	ENDS
;	COMDAT ?__LINE__Var@?0??GL_InitDrawSSAOUniforms@@YAXPAUglsl_prog_s@@@Z@4JA
_DATA	SEGMENT
?__LINE__Var@?0??GL_InitDrawSSAOUniforms@@YAXPAUglsl_prog_s@@@Z@4JA DD 04d9H ; `GL_InitDrawSSAOUniforms'::`1'::__LINE__Var
_DATA	ENDS
;	COMDAT ??_C@_0M@CGFAMJEG@u_RotateMap?$AA@
CONST	SEGMENT
??_C@_0M@CGFAMJEG@u_RotateMap?$AA@ DB 'u_RotateMap', 00H ; `string'
CONST	ENDS
;	COMDAT ?__LINE__Var@?0??GL_InitGenSSAOUniforms@@YAXPAUglsl_prog_s@@@Z@4JA
_DATA	SEGMENT
?__LINE__Var@?0??GL_InitGenSSAOUniforms@@YAXPAUglsl_prog_s@@@Z@4JA DD 04c8H ; `GL_InitGenSSAOUniforms'::`1'::__LINE__Var
_DATA	ENDS
;	COMDAT ??_C@_0BA@MLGMJJCM@u_SS_Brightness?$AA@
CONST	SEGMENT
??_C@_0BA@MLGMJJCM@u_SS_Brightness?$AA@ DB 'u_SS_Brightness', 00H ; `string'
CONST	ENDS
;	COMDAT ?__LINE__Var@?0??GL_InitDrawShaftsUniforms@@YAXPAUglsl_prog_s@@@Z@4JA
_DATA	SEGMENT
?__LINE__Var@?0??GL_InitDrawShaftsUniforms@@YAXPAUglsl_prog_s@@@Z@4JA DD 04b2H ; `GL_InitDrawShaftsUniforms'::`1'::__LINE__Var
_DATA	ENDS
;	COMDAT ?__LINE__Var@?0??GL_InitGenShaftsUniforms@@YAXPAUglsl_prog_s@@@Z@4JA
_DATA	SEGMENT
?__LINE__Var@?0??GL_InitGenShaftsUniforms@@YAXPAUglsl_prog_s@@@Z@4JA DD 04a1H ; `GL_InitGenShaftsUniforms'::`1'::__LINE__Var
_DATA	ENDS
;	COMDAT ?__LINE__Var@?0??GL_InitGenericFogUniforms@@YAXPAUglsl_prog_s@@@Z@4JA
_DATA	SEGMENT
?__LINE__Var@?0??GL_InitGenericFogUniforms@@YAXPAUglsl_prog_s@@@Z@4JA DD 0491H ; `GL_InitGenericFogUniforms'::`1'::__LINE__Var
_DATA	ENDS
;	COMDAT ??_C@_0N@IIDPNGLD@u_BlurFactor?$AA@
CONST	SEGMENT
??_C@_0N@IIDPNGLD@u_BlurFactor?$AA@ DB 'u_BlurFactor', 00H ; `string'
CONST	ENDS
;	COMDAT ?__LINE__Var@?0??GL_InitPostProcessUniforms@@YAXPAUglsl_prog_s@@@Z@4JA
_DATA	SEGMENT
?__LINE__Var@?0??GL_InitPostProcessUniforms@@YAXPAUglsl_prog_s@@@Z@4JA DD 0482H ; `GL_InitPostProcessUniforms'::`1'::__LINE__Var
_DATA	ENDS
;	COMDAT ??_C@_0BD@KPMFEKBG@u_GenericCondition?$AA@
CONST	SEGMENT
??_C@_0BD@KPMFEKBG@u_GenericCondition?$AA@ DB 'u_GenericCondition', 00H ; `string'
CONST	ENDS
;	COMDAT ?__LINE__Var@?0??GL_InitSkyBoxUniforms@@YAXPAUglsl_prog_s@@@Z@4JA
_DATA	SEGMENT
?__LINE__Var@?0??GL_InitSkyBoxUniforms@@YAXPAUglsl_prog_s@@@Z@4JA DD 046eH ; `GL_InitSkyBoxUniforms'::`1'::__LINE__Var
_DATA	ENDS
;	COMDAT ?__LINE__Var@?0??GL_InitStudioDecalUniforms@@YAXPAUglsl_prog_s@@@Z@4JA
_DATA	SEGMENT
?__LINE__Var@?0??GL_InitStudioDecalUniforms@@YAXPAUglsl_prog_s@@@Z@4JA DD 045dH ; `GL_InitStudioDecalUniforms'::`1'::__LINE__Var
_DATA	ENDS
;	COMDAT ??_C@_0N@EFGBPOFK@u_LightScale?$AA@
CONST	SEGMENT
??_C@_0N@EFGBPOFK@u_LightScale?$AA@ DB 'u_LightScale', 00H ; `string'
CONST	ENDS
;	COMDAT ?__LINE__Var@?0??GL_InitGenericDlightUniforms@@YAXPAUglsl_prog_s@@@Z@4JA
_DATA	SEGMENT
?__LINE__Var@?0??GL_InitGenericDlightUniforms@@YAXPAUglsl_prog_s@@@Z@4JA DD 0442H ; `GL_InitGenericDlightUniforms'::`1'::__LINE__Var
_DATA	ENDS
;	COMDAT ?__LINE__Var@?0??GL_InitGrassDlightUniforms@@YAXPAUglsl_prog_s@@@Z@4JA
_DATA	SEGMENT
?__LINE__Var@?0??GL_InitGrassDlightUniforms@@YAXPAUglsl_prog_s@@@Z@4JA DD 0422H ; `GL_InitGrassDlightUniforms'::`1'::__LINE__Var
_DATA	ENDS
;	COMDAT ??_C@_0P@MOHLDOHD@u_GrassFadeEnd?$AA@
CONST	SEGMENT
??_C@_0P@MOHLDOHD@u_GrassFadeEnd?$AA@ DB 'u_GrassFadeEnd', 00H ; `string'
CONST	ENDS
;	COMDAT ??_C@_0BA@DLEPEDLG@u_GrassFadeDist?$AA@
CONST	SEGMENT
??_C@_0BA@DLEPEDLG@u_GrassFadeDist?$AA@ DB 'u_GrassFadeDist', 00H ; `string'
CONST	ENDS
;	COMDAT ??_C@_0BB@BBFEGHLO@u_GrassFadeStart?$AA@
CONST	SEGMENT
??_C@_0BB@BBFEGHLO@u_GrassFadeStart?$AA@ DB 'u_GrassFadeStart', 00H ; `string'
CONST	ENDS
;	COMDAT ?__LINE__Var@?0??GL_InitGrassSolidUniforms@@YAXPAUglsl_prog_s@@@Z@4JA
_DATA	SEGMENT
?__LINE__Var@?0??GL_InitGrassSolidUniforms@@YAXPAUglsl_prog_s@@@Z@4JA DD 040aH ; `GL_InitGrassSolidUniforms'::`1'::__LINE__Var
_DATA	ENDS
;	COMDAT ?__LINE__Var@?0??GL_InitStudioDepthFillUniforms@@YAXPAUglsl_prog_s@@@Z@4JA
_DATA	SEGMENT
?__LINE__Var@?0??GL_InitStudioDepthFillUniforms@@YAXPAUglsl_prog_s@@@Z@4JA DD 03f8H ; `GL_InitStudioDepthFillUniforms'::`1'::__LINE__Var
_DATA	ENDS
;	COMDAT ?__LINE__Var@?0??GL_InitStudioDlightUniforms@@YAXPAUglsl_prog_s@@@Z@4JA
_DATA	SEGMENT
?__LINE__Var@?0??GL_InitStudioDlightUniforms@@YAXPAUglsl_prog_s@@@Z@4JA DD 03c1H ; `GL_InitStudioDlightUniforms'::`1'::__LINE__Var
_DATA	ENDS
;	COMDAT ??_C@_0BF@MDNGADJD@STUDIO_HAS_COLORMASK?$AA@
CONST	SEGMENT
??_C@_0BF@MDNGADJD@STUDIO_HAS_COLORMASK?$AA@ DB 'STUDIO_HAS_COLORMASK', 00H ; `string'
CONST	ENDS
;	COMDAT ??_C@_0BE@GNPKMAIG@u_FoliageSwayHeight?$AA@
CONST	SEGMENT
??_C@_0BE@GNPKMAIG@u_FoliageSwayHeight?$AA@ DB 'u_FoliageSwayHeight', 00H ; `string'
CONST	ENDS
;	COMDAT ??_C@_0M@FIIJDCAM@u_ViewRight?$AA@
CONST	SEGMENT
??_C@_0M@FIIJDCAM@u_ViewRight?$AA@ DB 'u_ViewRight', 00H ; `string'
CONST	ENDS
;	COMDAT ??_C@_0N@DMKCJOPD@u_LightShade?$AA@
CONST	SEGMENT
??_C@_0N@DMKCJOPD@u_LightShade?$AA@ DB 'u_LightShade', 00H ; `string'
CONST	ENDS
;	COMDAT ??_C@_0P@DDJOMFKJ@u_LightAmbient?$AA@
CONST	SEGMENT
??_C@_0P@DDJOMFKJ@u_LightAmbient?$AA@ DB 'u_LightAmbient', 00H ; `string'
CONST	ENDS
;	COMDAT ??_C@_0N@HGOIPDNC@u_LightColor?$AA@
CONST	SEGMENT
??_C@_0N@HGOIPDNC@u_LightColor?$AA@ DB 'u_LightColor', 00H ; `string'
CONST	ENDS
;	COMDAT ??_C@_0N@OIMPMCEP@u_GammaTable?$AA@
CONST	SEGMENT
??_C@_0N@OIMPMCEP@u_GammaTable?$AA@ DB 'u_GammaTable', 00H ; `string'
CONST	ENDS
;	COMDAT ??_C@_0O@MBKKBNEB@u_LightStyles?$AA@
CONST	SEGMENT
??_C@_0O@MBKKBNEB@u_LightStyles?$AA@ DB 'u_LightStyles', 00H ; `string'
CONST	ENDS
;	COMDAT ??_C@_0BH@BHCFIENI@STUDIO_VERTEX_LIGHTING?$AA@
CONST	SEGMENT
??_C@_0BH@BHCFIENI@STUDIO_VERTEX_LIGHTING?$AA@ DB 'STUDIO_VERTEX_LIGHTING'
	DB	00H						; `string'
CONST	ENDS
;	COMDAT ??_C@_0BA@BJGEOHOC@STUDIO_INTERIOR?$AA@
CONST	SEGMENT
??_C@_0BA@BJGEOHOC@STUDIO_INTERIOR?$AA@ DB 'STUDIO_INTERIOR', 00H ; `string'
CONST	ENDS
;	COMDAT ??_C@_0M@GKMFFJIJ@u_ColorMask?$AA@
CONST	SEGMENT
??_C@_0M@GKMFFJIJ@u_ColorMask?$AA@ DB 'u_ColorMask', 00H ; `string'
CONST	ENDS
;	COMDAT ??_C@_0N@DJODLMKK@u_MeshAngles?$AA@
CONST	SEGMENT
??_C@_0N@DJODLMKK@u_MeshAngles?$AA@ DB 'u_MeshAngles', 00H ; `string'
CONST	ENDS
;	COMDAT ??_C@_0M@LKOGHAJI@u_MeshScale?$AA@
CONST	SEGMENT
??_C@_0M@LKOGHAJI@u_MeshScale?$AA@ DB 'u_MeshScale', 00H ; `string'
CONST	ENDS
;	COMDAT ??_C@_0P@KFHIBBDA@u_BonePosition?$AA@
CONST	SEGMENT
??_C@_0P@KFHIBBDA@u_BonePosition?$AA@ DB 'u_BonePosition', 00H ; `string'
CONST	ENDS
;	COMDAT ??_C@_0BB@JBIGINIK@u_BoneQuaternion?$AA@
CONST	SEGMENT
??_C@_0BB@JBIGINIK@u_BoneQuaternion?$AA@ DB 'u_BoneQuaternion', 00H ; `string'
CONST	ENDS
;	COMDAT ?__LINE__Var@?0??GL_InitSolidStudioUniforms@@YAXPAUglsl_prog_s@@@Z@4JA
_DATA	SEGMENT
?__LINE__Var@?0??GL_InitSolidStudioUniforms@@YAXPAUglsl_prog_s@@@Z@4JA DD 0374H ; `GL_InitSolidStudioUniforms'::`1'::__LINE__Var
_DATA	ENDS
;	COMDAT ??_C@_0L@GCAHNJHJ@u_DecalMap?$AA@
CONST	SEGMENT
??_C@_0L@GCAHNJHJ@u_DecalMap?$AA@ DB 'u_DecalMap', 00H	; `string'
CONST	ENDS
;	COMDAT ?__LINE__Var@?0??GL_InitBmodelDecalUniforms@@YAXPAUglsl_prog_s@@@Z@4JA
_DATA	SEGMENT
?__LINE__Var@?0??GL_InitBmodelDecalUniforms@@YAXPAUglsl_prog_s@@@Z@4JA DD 035eH ; `GL_InitBmodelDecalUniforms'::`1'::__LINE__Var
_DATA	ENDS
;	COMDAT ?__LINE__Var@?0??GL_InitBmodelDepthFillUniforms@@YAXPAUglsl_prog_s@@@Z@4JA
_DATA	SEGMENT
?__LINE__Var@?0??GL_InitBmodelDepthFillUniforms@@YAXPAUglsl_prog_s@@@Z@4JA DD 034eH ; `GL_InitBmodelDepthFillUniforms'::`1'::__LINE__Var
_DATA	ENDS
;	COMDAT ??_C@_0BF@DEABILDM@u_DynLightBrightness?$AA@
CONST	SEGMENT
??_C@_0BF@DEABILDM@u_DynLightBrightness?$AA@ DB 'u_DynLightBrightness', 00H ; `string'
CONST	ENDS
;	COMDAT ??_C@_0BM@OPAKJEIH@u_LightViewProjectionMatrix?$AA@
CONST	SEGMENT
??_C@_0BM@OPAKJEIH@u_LightViewProjectionMatrix?$AA@ DB 'u_LightViewProjec'
	DB	'tionMatrix', 00H				; `string'
CONST	ENDS
;	COMDAT ??_C@_0O@PGBKINBN@u_LightOrigin?$AA@
CONST	SEGMENT
??_C@_0O@PGBKINBN@u_LightOrigin?$AA@ DB 'u_LightOrigin', 00H ; `string'
CONST	ENDS
;	COMDAT ??_C@_0P@DOIHPJNE@u_ShadowParams?$AA@
CONST	SEGMENT
??_C@_0P@DOIHPJNE@u_ShadowParams?$AA@ DB 'u_ShadowParams', 00H ; `string'
CONST	ENDS
;	COMDAT ??_C@_0P@IBMOHOLF@u_LightDiffuse?$AA@
CONST	SEGMENT
??_C@_0P@IBMOHOLF@u_LightDiffuse?$AA@ DB 'u_LightDiffuse', 00H ; `string'
CONST	ENDS
;	COMDAT ??_C@_0L@EMINLLAG@u_LightDir?$AA@
CONST	SEGMENT
??_C@_0L@EMINLLAG@u_LightDir?$AA@ DB 'u_LightDir', 00H	; `string'
CONST	ENDS
;	COMDAT ??_C@_0M@LIKBOJOD@u_ShadowMap?$AA@
CONST	SEGMENT
??_C@_0M@LIKBOJOD@u_ShadowMap?$AA@ DB 'u_ShadowMap', 00H ; `string'
CONST	ENDS
;	COMDAT ??_C@_0N@FKEMJKI@u_ProjectMap?$AA@
CONST	SEGMENT
??_C@_0N@FKEMJKI@u_ProjectMap?$AA@ DB 'u_ProjectMap', 00H ; `string'
CONST	ENDS
;	COMDAT ?__LINE__Var@?0??GL_InitBmodelDlightUniforms@@YAXPAUglsl_prog_s@@@Z@4JA
_DATA	SEGMENT
?__LINE__Var@?0??GL_InitBmodelDlightUniforms@@YAXPAUglsl_prog_s@@@Z@4JA DD 0311H ; `GL_InitBmodelDlightUniforms'::`1'::__LINE__Var
_DATA	ENDS
;	COMDAT ??_C@_06HIBKCAMD@u_zFar?$AA@
CONST	SEGMENT
??_C@_06HIBKCAMD@u_zFar?$AA@ DB 'u_zFar', 00H		; `string'
CONST	ENDS
;	COMDAT ??_C@_0O@PDAILIH@u_RenderColor?$AA@
CONST	SEGMENT
??_C@_0O@PDAILIH@u_RenderColor?$AA@ DB 'u_RenderColor', 00H ; `string'
CONST	ENDS
;	COMDAT ??_C@_0BA@CNHIBBKL@u_ScreenSizeInv?$AA@
CONST	SEGMENT
??_C@_0BA@CNHIBBKL@u_ScreenSizeInv?$AA@ DB 'u_ScreenSizeInv', 00H ; `string'
CONST	ENDS
;	COMDAT ??_C@_0M@LNDNBCGB@u_FogParams?$AA@
CONST	SEGMENT
??_C@_0M@LNDNBCGB@u_FogParams?$AA@ DB 'u_FogParams', 00H ; `string'
CONST	ENDS
;	COMDAT ??_C@_0M@MGCFPBL@u_TexOffset?$AA@
CONST	SEGMENT
??_C@_0M@MGCFPBL@u_TexOffset?$AA@ DB 'u_TexOffset', 00H	; `string'
CONST	ENDS
;	COMDAT ??_C@_0O@MFMJGIKB@u_DetailScale?$AA@
CONST	SEGMENT
??_C@_0O@MFMJGIKB@u_DetailScale?$AA@ DB 'u_DetailScale', 00H ; `string'
CONST	ENDS
;	COMDAT ??_C@_0O@MBNOFNKO@u_ModelMatrix?$AA@
CONST	SEGMENT
??_C@_0O@MBNOFNKO@u_ModelMatrix?$AA@ DB 'u_ModelMatrix', 00H ; `string'
CONST	ENDS
;	COMDAT ??_C@_0BD@NFOOODNK@u_LightStyleValues?$AA@
CONST	SEGMENT
??_C@_0BD@NFOOODNK@u_LightStyleValues?$AA@ DB 'u_LightStyleValues', 00H ; `string'
CONST	ENDS
;	COMDAT ??_C@_0L@JCKKGKMC@u_DepthMap?$AA@
CONST	SEGMENT
??_C@_0L@JCKKGKMC@u_DepthMap?$AA@ DB 'u_DepthMap', 00H	; `string'
CONST	ENDS
;	COMDAT ??_C@_0L@NKHKNNOO@u_LayerMap?$AA@
CONST	SEGMENT
??_C@_0L@NKHKNNOO@u_LayerMap?$AA@ DB 'u_LayerMap', 00H	; `string'
CONST	ENDS
;	COMDAT ??_C@_0BE@FBBOMMAP@BMODEL_MULTI_LAYERS?$AA@
CONST	SEGMENT
??_C@_0BE@FBBOMMAP@BMODEL_MULTI_LAYERS?$AA@ DB 'BMODEL_MULTI_LAYERS', 00H ; `string'
CONST	ENDS
;	COMDAT ??_C@_0O@HKDACOHC@u_EmbossScale?$AA@
CONST	SEGMENT
??_C@_0O@HKDACOHC@u_EmbossScale?$AA@ DB 'u_EmbossScale', 00H ; `string'
CONST	ENDS
;	COMDAT ??_C@_0BC@KIIHBDPB@u_GlossSmoothness?$AA@
CONST	SEGMENT
??_C@_0BC@KIIHBDPB@u_GlossSmoothness?$AA@ DB 'u_GlossSmoothness', 00H ; `string'
CONST	ENDS
;	COMDAT ??_C@_0N@NPMHADLB@u_GlossScale?$AA@
CONST	SEGMENT
??_C@_0N@NPMHADLB@u_GlossScale?$AA@ DB 'u_GlossScale', 00H ; `string'
CONST	ENDS
;	COMDAT ??_C@_0M@NCMDOAEP@u_DeluxeMap?$AA@
CONST	SEGMENT
??_C@_0M@NCMDOAEP@u_DeluxeMap?$AA@ DB 'u_DeluxeMap', 00H ; `string'
CONST	ENDS
;	COMDAT ??_C@_0N@GOCFBCHC@u_ViewOrigin?$AA@
CONST	SEGMENT
??_C@_0N@GOCFBCHC@u_ViewOrigin?$AA@ DB 'u_ViewOrigin', 00H ; `string'
CONST	ENDS
;	COMDAT ??_C@_0L@HHPJFKED@u_WaterTex?$AA@
CONST	SEGMENT
??_C@_0L@HHPJFKED@u_WaterTex?$AA@ DB 'u_WaterTex', 00H	; `string'
CONST	ENDS
;	COMDAT ??_C@_0BF@HOPHCIFE@u_PlanarReflectScale?$AA@
CONST	SEGMENT
??_C@_0BF@HOPHCIFE@u_PlanarReflectScale?$AA@ DB 'u_PlanarReflectScale', 00H ; `string'
CONST	ENDS
;	COMDAT ??_C@_0BE@LOJOFLMK@BMODEL_WATER_PLANAR?$AA@
CONST	SEGMENT
??_C@_0BE@LOJOFLMK@BMODEL_WATER_PLANAR?$AA@ DB 'BMODEL_WATER_PLANAR', 00H ; `string'
CONST	ENDS
;	COMDAT ??_C@_0BJ@JCIGHEFN@BMODEL_REFLECTION_PLANAR?$AA@
CONST	SEGMENT
??_C@_0BJ@JCIGHEFN@BMODEL_REFLECTION_PLANAR?$AA@ DB 'BMODEL_REFLECTION_PL'
	DB	'ANAR', 00H					; `string'
CONST	ENDS
;	COMDAT ??_C@_0BF@HKDFFBEE@u_InteriorLightState?$AA@
CONST	SEGMENT
??_C@_0BF@HKDFFBEE@u_InteriorLightState?$AA@ DB 'u_InteriorLightState', 00H ; `string'
CONST	ENDS
;	COMDAT ??_C@_0P@KJLBFPAD@u_InteriorGrid?$AA@
CONST	SEGMENT
??_C@_0P@KJLBFPAD@u_InteriorGrid?$AA@ DB 'u_InteriorGrid', 00H ; `string'
CONST	ENDS
;	COMDAT ??_C@_0L@BGHCDECL@u_RealTime?$AA@
CONST	SEGMENT
??_C@_0L@BGHCDECL@u_RealTime?$AA@ DB 'u_RealTime', 00H	; `string'
CONST	ENDS
;	COMDAT ??_C@_0O@KNPDKBPI@u_InteriorMap?$AA@
CONST	SEGMENT
??_C@_0O@KNPDKBPI@u_InteriorMap?$AA@ DB 'u_InteriorMap', 00H ; `string'
CONST	ENDS
;	COMDAT ??_C@_0BA@ELFGANLK@BMODEL_INTERIOR?$AA@
CONST	SEGMENT
??_C@_0BA@ELFGANLK@BMODEL_INTERIOR?$AA@ DB 'BMODEL_INTERIOR', 00H ; `string'
CONST	ENDS
;	COMDAT ??_C@_0P@BIBHBLHM@u_ReflectScale?$AA@
CONST	SEGMENT
??_C@_0P@BIBHBLHM@u_ReflectScale?$AA@ DB 'u_ReflectScale', 00H ; `string'
CONST	ENDS
;	COMDAT ??_C@_09CNMADOIB@u_BoxMaxs?$AA@
CONST	SEGMENT
??_C@_09CNMADOIB@u_BoxMaxs?$AA@ DB 'u_BoxMaxs', 00H	; `string'
CONST	ENDS
;	COMDAT ??_C@_09PANPMJKM@u_BoxMins?$AA@
CONST	SEGMENT
??_C@_09PANPMJKM@u_BoxMins?$AA@ DB 'u_BoxMins', 00H	; `string'
CONST	ENDS
;	COMDAT ??_C@_0N@BILMML@u_LerpFactor?$AA@
CONST	SEGMENT
??_C@_0N@BILMML@u_LerpFactor?$AA@ DB 'u_LerpFactor', 00H ; `string'
CONST	ENDS
;	COMDAT ??_C@_0N@NGOJEAAC@u_CubeOrigin?$AA@
CONST	SEGMENT
??_C@_0N@NGOJEAAC@u_CubeOrigin?$AA@ DB 'u_CubeOrigin', 00H ; `string'
CONST	ENDS
;	COMDAT ??_C@_0P@CEPEBBNL@u_CubeMipCount?$AA@
CONST	SEGMENT
??_C@_0P@CEPEBBNL@u_CubeMipCount?$AA@ DB 'u_CubeMipCount', 00H ; `string'
CONST	ENDS
;	COMDAT ??_C@_09HHCECBGD@u_EnvMap1?$AA@
CONST	SEGMENT
??_C@_09HHCECBGD@u_EnvMap1?$AA@ DB 'u_EnvMap1', 00H	; `string'
CONST	ENDS
;	COMDAT ??_C@_09GODPBACC@u_EnvMap0?$AA@
CONST	SEGMENT
??_C@_09GODPBACC@u_EnvMap0?$AA@ DB 'u_EnvMap0', 00H	; `string'
CONST	ENDS
;	COMDAT ??_C@_0BD@EMMENHMO@REFLECTION_CUBEMAP?$AA@
CONST	SEGMENT
??_C@_0BD@EMMENHMO@REFLECTION_CUBEMAP?$AA@ DB 'REFLECTION_CUBEMAP', 00H ; `string'
CONST	ENDS
;	COMDAT ??_C@_0M@EEAGDKIK@u_NormalMap?$AA@
CONST	SEGMENT
??_C@_0M@EEAGDKIK@u_NormalMap?$AA@ DB 'u_NormalMap', 00H ; `string'
CONST	ENDS
;	COMDAT ??_C@_09HDLEGDMG@u_GlowMap?$AA@
CONST	SEGMENT
??_C@_09HDLEGDMG@u_GlowMap?$AA@ DB 'u_GlowMap', 00H	; `string'
CONST	ENDS
;	COMDAT ??_C@_0M@KCNMJMNH@u_ScreenMap?$AA@
CONST	SEGMENT
??_C@_0M@KCNMJMNH@u_ScreenMap?$AA@ DB 'u_ScreenMap', 00H ; `string'
CONST	ENDS
;	COMDAT ??_C@_0L@NKAMHLG@u_LightMap?$AA@
CONST	SEGMENT
??_C@_0L@NKAMHLG@u_LightMap?$AA@ DB 'u_LightMap', 00H	; `string'
CONST	ENDS
;	COMDAT ??_C@_0M@CLJGMBED@u_DetailMap?$AA@
CONST	SEGMENT
??_C@_0M@CLJGMBED@u_DetailMap?$AA@ DB 'u_DetailMap', 00H ; `string'
CONST	ENDS
;	COMDAT ??_C@_0L@IEDEJAAC@u_ColorMap?$AA@
CONST	SEGMENT
??_C@_0L@IEDEJAAC@u_ColorMap?$AA@ DB 'u_ColorMap', 00H	; `string'
CONST	ENDS
;	COMDAT ?__LINE__Var@?0??GL_InitSolidBmodelUniforms@@YAXPAUglsl_prog_s@@@Z@4JA
_DATA	SEGMENT
?__LINE__Var@?0??GL_InitSolidBmodelUniforms@@YAXPAUglsl_prog_s@@@Z@4JA DD 02b9H ; `GL_InitSolidBmodelUniforms'::`1'::__LINE__Var
_DATA	ENDS
;	COMDAT ??_C@_0M@KFFOLOHC@?$CDdefine?5?$CFs?6?$AA@
CONST	SEGMENT
??_C@_0M@KFFOLOHC@?$CDdefine?5?$CFs?6?$AA@ DB '#define %s', 0aH, 00H ; `string'
CONST	ENDS
;	COMDAT ?__LINE__Var@?0??GL_FindUberShader@@YAPAUglsl_prog_s@@PBD0P6AXPAU2@@Z@Z@4JA
_DATA	SEGMENT
?__LINE__Var@?0??GL_FindUberShader@@YAPAUglsl_prog_s@@PBD0P6AXPAU2@@Z@Z@4JA DD 0282H ; `GL_FindUberShader'::`1'::__LINE__Var
_DATA	ENDS
;	COMDAT ??_C@_0BO@IEPPONL@CompileUberShader?5?$CD?$CFi?3?5?$CFs?6?$CFs?6?$AA@
CONST	SEGMENT
??_C@_0BO@IEPPONL@CompileUberShader?5?$CD?$CFi?3?5?$CFs?6?$CFs?6?$AA@ DB 'C'
	DB	'ompileUberShader #%i: %s', 0aH, '%s', 0aH, 00H ; `string'
CONST	ENDS
;	COMDAT ??_C@_0DL@DKJDPAJN@GL_CreateUberShader?3?5GLSL?5shader@
CONST	SEGMENT
??_C@_0DL@DKJDPAJN@GL_CreateUberShader?3?5GLSL?5shader@ DB 'GL_CreateUber'
	DB	'Shader: GLSL shaders limit exceeded (%i max)', 0aH, 00H ; `string'
CONST	ENDS
;	COMDAT ??_C@_0O@FLCOHBOC@attr_Binormal?$AA@
CONST	SEGMENT
??_C@_0O@FLCOHBOC@attr_Binormal?$AA@ DB 'attr_Binormal', 00H ; `string'
CONST	ENDS
;	COMDAT ??_C@_0N@PFKNNIKN@attr_Tangent?$AA@
CONST	SEGMENT
??_C@_0N@PFKNNIKN@attr_Tangent?$AA@ DB 'attr_Tangent', 00H ; `string'
CONST	ENDS
;	COMDAT ??_C@_0P@KPKCIOG@attr_LightVecs?$AA@
CONST	SEGMENT
??_C@_0P@KPKCIOG@attr_LightVecs?$AA@ DB 'attr_LightVecs', 00H ; `string'
CONST	ENDS
;	COMDAT ??_C@_0BA@JOGHNK@attr_LightColor?$AA@
CONST	SEGMENT
??_C@_0BA@JOGHNK@attr_LightColor?$AA@ DB 'attr_LightColor', 00H ; `string'
CONST	ENDS
;	COMDAT ??_C@_0BB@MPAHODOH@attr_LightStyles?$AA@
CONST	SEGMENT
??_C@_0BB@MPAHODOH@attr_LightStyles?$AA@ DB 'attr_LightStyles', 00H ; `string'
CONST	ENDS
;	COMDAT ??_C@_0BB@ININKFEM@attr_BoneWeights?$AA@
CONST	SEGMENT
??_C@_0BB@ININKFEM@attr_BoneWeights?$AA@ DB 'attr_BoneWeights', 00H ; `string'
CONST	ENDS
;	COMDAT ??_C@_0BB@GNBIAMMJ@attr_BoneIndexes?$AA@
CONST	SEGMENT
??_C@_0BB@GNBIAMMJ@attr_BoneIndexes?$AA@ DB 'attr_BoneIndexes', 00H ; `string'
CONST	ENDS
;	COMDAT ??_C@_0M@PDECLNDL@attr_Normal?$AA@
CONST	SEGMENT
??_C@_0M@PDECLNDL@attr_Normal?$AA@ DB 'attr_Normal', 00H ; `string'
CONST	ENDS
;	COMDAT ??_C@_0P@FEFFHLEH@attr_TexCoord2?$AA@
CONST	SEGMENT
??_C@_0P@FEFFHLEH@attr_TexCoord2?$AA@ DB 'attr_TexCoord2', 00H ; `string'
CONST	ENDS
;	COMDAT ??_C@_0P@HPHICIIE@attr_TexCoord1?$AA@
CONST	SEGMENT
??_C@_0P@HPHICIIE@attr_TexCoord1?$AA@ DB 'attr_TexCoord1', 00H ; `string'
CONST	ENDS
;	COMDAT ??_C@_0P@GGGDBJMF@attr_TexCoord0?$AA@
CONST	SEGMENT
??_C@_0P@GGGDBJMF@attr_TexCoord0?$AA@ DB 'attr_TexCoord0', 00H ; `string'
CONST	ENDS
;	COMDAT ??_C@_0O@PHKNCBPO@attr_Position?$AA@
CONST	SEGMENT
??_C@_0O@PHKNCBPO@attr_Position?$AA@ DB 'attr_Position', 00H ; `string'
CONST	ENDS
;	COMDAT ??_C@_0DI@JOLDEICG@GL_InitGPUShader?3?5GLSL?5shaders?5l@
CONST	SEGMENT
??_C@_0DI@JOLDEICG@GL_InitGPUShader?3?5GLSL?5shaders?5l@ DB 'GL_InitGPUSh'
	DB	'ader: GLSL shaders limit exceeded (%i max)', 0aH, 00H ; `string'
CONST	ENDS
;	COMDAT ??_C@_05DNIIFBMG@?$CFs?5?$CFs?$AA@
CONST	SEGMENT
??_C@_05DNIIFBMG@?$CFs?5?$CFs?$AA@ DB '%s %s', 00H	; `string'
CONST	ENDS
;	COMDAT ?__LINE__Var@?0??GL_InitGPUShader@@YAPAUglsl_prog_s@@PBD000@Z@4JA
_DATA	SEGMENT
?__LINE__Var@?0??GL_InitGPUShader@@YAPAUglsl_prog_s@@PBD000@Z@4JA DD 01d8H ; `GL_InitGPUShader'::`1'::__LINE__Var
_DATA	ENDS
;	COMDAT ??_C@_0BF@JPOMHIIO@?$CFs?5used?5?$CFi?5uniforms?6?$AA@
CONST	SEGMENT
??_C@_0BF@JPOMHIIO@?$CFs?5used?5?$CFi?5uniforms?6?$AA@ DB '%s used %i uni'
	DB	'forms', 0aH, 00H				; `string'
CONST	ENDS
;	COMDAT ??_C@_0BK@BLHKGMFB@used?5uniforms?5?$CFi?5from?5?$CFi?6?$AA@
CONST	SEGMENT
??_C@_0BK@BLHKGMFB@used?5uniforms?5?$CFi?5from?5?$CFi?6?$AA@ DB 'used uni'
	DB	'forms %i from %i', 0aH, 00H			; `string'
CONST	ENDS
;	COMDAT ??_C@_0CN@BIGJHOMK@used?5uniforms?5?$CFi?5is?5overflowed?5m@
CONST	SEGMENT
??_C@_0CN@BIGJHOMK@used?5uniforms?5?$CFi?5is?5overflowed?5m@ DB 'used uni'
	DB	'forms %i is overflowed max count %i', 0aH, 00H ; `string'
CONST	ENDS
;	COMDAT ??_C@_0BE@PKDDKFGG@uniform?5?$CFs?5?$CFs?$FL?$CFi?$FN?$DL?6?$AA@
CONST	SEGMENT
??_C@_0BE@PKDDKFGG@uniform?5?$CFs?5?$CFs?$FL?$CFi?$FN?$DL?6?$AA@ DB 'unif'
	DB	'orm %s %s[%i];', 0aH, 00H			; `string'
CONST	ENDS
;	COMDAT ??_C@_0BA@GALAJLO@uniform?5?$CFs?5?$CFs?$DL?6?$AA@
CONST	SEGMENT
??_C@_0BA@GALAJLO@uniform?5?$CFs?5?$CFs?$DL?6?$AA@ DB 'uniform %s %s;', 0aH
	DB	00H						; `string'
CONST	ENDS
;	COMDAT ??_C@_03BBKEAIF@?$DP?$DP?$DP?$AA@
CONST	SEGMENT
??_C@_03BBKEAIF@?$DP?$DP?$DP?$AA@ DB '???', 00H		; `string'
CONST	ENDS
;	COMDAT ??_C@_0BC@HELGINNC@samplerCubeShadow?$AA@
CONST	SEGMENT
??_C@_0BC@HELGINNC@samplerCubeShadow?$AA@ DB 'samplerCubeShadow', 00H ; `string'
CONST	ENDS
;	COMDAT ??_C@_0BE@HDPBANEK@sampler2DRectShadow?$AA@
CONST	SEGMENT
??_C@_0BE@HDPBANEK@sampler2DRectShadow?$AA@ DB 'sampler2DRectShadow', 00H ; `string'
CONST	ENDS
;	COMDAT ??_C@_0O@PEHGDEIA@sampler2DRect?$AA@
CONST	SEGMENT
??_C@_0O@PEHGDEIA@sampler2DRect?$AA@ DB 'sampler2DRect', 00H ; `string'
CONST	ENDS
;	COMDAT ??_C@_0BA@JPCOHDB@sampler2DShadow?$AA@
CONST	SEGMENT
??_C@_0BA@JPCOHDB@sampler2DShadow?$AA@ DB 'sampler2DShadow', 00H ; `string'
CONST	ENDS
;	COMDAT ??_C@_0BA@DAHPNLPE@sampler1DShadow?$AA@
CONST	SEGMENT
??_C@_0BA@DAHPNLPE@sampler1DShadow?$AA@ DB 'sampler1DShadow', 00H ; `string'
CONST	ENDS
;	COMDAT ??_C@_0P@LGHLFNGN@sampler2DArray?$AA@
CONST	SEGMENT
??_C@_0P@LGHLFNGN@sampler2DArray?$AA@ DB 'sampler2DArray', 00H ; `string'
CONST	ENDS
;	COMDAT ??_C@_0P@DIPEFKIO@sampler1DArray?$AA@
CONST	SEGMENT
??_C@_0P@DIPEFKIO@sampler1DArray?$AA@ DB 'sampler1DArray', 00H ; `string'
CONST	ENDS
;	COMDAT ??_C@_0M@JKFFOHJO@samplerCube?$AA@
CONST	SEGMENT
??_C@_0M@JKFFOHJO@samplerCube?$AA@ DB 'samplerCube', 00H ; `string'
CONST	ENDS
;	COMDAT ??_C@_09LAHPNHHH@sampler3D?$AA@
CONST	SEGMENT
??_C@_09LAHPNHHH@sampler3D?$AA@ DB 'sampler3D', 00H	; `string'
CONST	ENDS
;	COMDAT ??_C@_09LBLNLNEA@sampler2D?$AA@
CONST	SEGMENT
??_C@_09LBLNLNEA@sampler2D?$AA@ DB 'sampler2D', 00H	; `string'
CONST	ENDS
;	COMDAT ??_C@_09LDPLADBJ@sampler1D?$AA@
CONST	SEGMENT
??_C@_09LDPLADBJ@sampler1D?$AA@ DB 'sampler1D', 00H	; `string'
CONST	ENDS
;	COMDAT ??_C@_04DDDHBIAD@mat4?$AA@
CONST	SEGMENT
??_C@_04DDDHBIAD@mat4?$AA@ DB 'mat4', 00H		; `string'
CONST	ENDS
;	COMDAT ??_C@_04HMHGIOME@mat3?$AA@
CONST	SEGMENT
??_C@_04HMHGIOME@mat3?$AA@ DB 'mat3', 00H		; `string'
CONST	ENDS
;	COMDAT ??_C@_04GFGNLPIF@mat2?$AA@
CONST	SEGMENT
??_C@_04GFGNLPIF@mat2?$AA@ DB 'mat2', 00H		; `string'
CONST	ENDS
;	COMDAT ??_C@_04LCAMJMDC@vec4?$AA@
CONST	SEGMENT
??_C@_04LCAMJMDC@vec4?$AA@ DB 'vec4', 00H		; `string'
CONST	ENDS
;	COMDAT ??_C@_04PNENAKPF@vec3?$AA@
CONST	SEGMENT
??_C@_04PNENAKPF@vec3?$AA@ DB 'vec3', 00H		; `string'
CONST	ENDS
;	COMDAT ??_C@_04OEFGDLLE@vec2?$AA@
CONST	SEGMENT
??_C@_04OEFGDLLE@vec2?$AA@ DB 'vec2', 00H		; `string'
CONST	ENDS
;	COMDAT ??_C@_05KNFBNCOH@float?$AA@
CONST	SEGMENT
??_C@_05KNFBNCOH@float?$AA@ DB 'float', 00H		; `string'
CONST	ENDS
;	COMDAT ??_C@_04EHNLIFAM@uint?$AA@
CONST	SEGMENT
??_C@_04EHNLIFAM@uint?$AA@ DB 'uint', 00H		; `string'
CONST	ENDS
;	COMDAT ??_C@_03JBIPMCLC@int?$AA@
CONST	SEGMENT
??_C@_03JBIPMCLC@int?$AA@ DB 'int', 00H			; `string'
CONST	ENDS
;	COMDAT ??_C@_0CB@BEHHAEKP@?$CFs?6?$CFs?5shader?5failed?5to?5validate?6@
CONST	SEGMENT
??_C@_0CB@BEHHAEKP@?$CFs?6?$CFs?5shader?5failed?5to?5validate?6@ DB '%s', 0aH
	DB	'%s shader failed to validate', 0aH, 00H	; `string'
CONST	ENDS
;	COMDAT ??_C@_0BN@ONGMHJJJ@?$CFs?6?$CFs?5shader?5failed?5to?5link?6?$AA@
CONST	SEGMENT
??_C@_0BN@ONGMHJJJ@?$CFs?6?$CFs?5shader?5failed?5to?5link?6?$AA@ DB '%s', 0aH
	DB	'%s shader failed to link', 0aH, 00H		; `string'
CONST	ENDS
;	COMDAT ??_C@_0BF@PMBKHIDO@Couldn?8t?5compile?5?$CFs?6?$AA@
CONST	SEGMENT
??_C@_0BF@PMBKHIDO@Couldn?8t?5compile?5?$CFs?6?$AA@ DB 'Couldn''t compile'
	DB	' %s', 0aH, 00H				; `string'
CONST	ENDS
;	COMDAT ??_C@_0BD@NMNDBDIA@Shader?5options?3?$CFs?6?$AA@
CONST	SEGMENT
??_C@_0BD@NMNDBDIA@Shader?5options?3?$CFs?6?$AA@ DB 'Shader options:%s', 0aH
	DB	00H						; `string'
CONST	ENDS
;	COMDAT ??_C@_02DKCKIIND@?$CFs?$AA@
CONST	SEGMENT
??_C@_02DKCKIIND@?$CFs?$AA@ DB '%s', 00H		; `string'
CONST	ENDS
;	COMDAT ??_C@_0P@JCFNJCGJ@?6loading?5?8?$CFs?8?6?$AA@
CONST	SEGMENT
??_C@_0P@JCFNJCGJ@?6loading?5?8?$CFs?8?6?$AA@ DB 0aH, 'loading ''%s''', 0aH
	DB	00H						; `string'
CONST	ENDS
;	COMDAT ??_C@_0CK@FKDDGAG@GL_LoadGPUShader?3?5unknown?5shader@
CONST	SEGMENT
??_C@_0CK@FKDDGAG@GL_LoadGPUShader?3?5unknown?5shader@ DB 'GL_LoadGPUShad'
	DB	'er: unknown shader type %p', 0aH, 00H	; `string'
CONST	ENDS
;	COMDAT ??_C@_0BA@PNNMADFB@glsl?1?$CFs_fp?4glsl?$AA@
CONST	SEGMENT
??_C@_0BA@PNNMADFB@glsl?1?$CFs_fp?4glsl?$AA@ DB 'glsl/%s_fp.glsl', 00H ; `string'
CONST	ENDS
;	COMDAT ??_C@_0BA@IBGHDCHK@glsl?1?$CFs_vp?4glsl?$AA@
CONST	SEGMENT
??_C@_0BA@IBGHDCHK@glsl?1?$CFs_vp?4glsl?$AA@ DB 'glsl/%s_vp.glsl', 00H ; `string'
CONST	ENDS
;	COMDAT ??_C@_0BI@FECCGOFJ@assert?5failed?5at?5?$CFs?3?$CFi?6?$AA@
CONST	SEGMENT
??_C@_0BI@FECCGOFJ@assert?5failed?5at?5?$CFs?3?$CFi?6?$AA@ DB 'assert fai'
	DB	'led at %s:%i', 0aH, 00H			; `string'
CONST	ENDS
;	COMDAT ??_C@_0EN@DPFBEFBL@d?3?2?$CBdiffusion?52020?2source?5code?52@
CONST	SEGMENT
??_C@_0EN@DPFBEFBL@d?3?2?$CBdiffusion?52020?2source?5code?52@ DB 'd:\!dif'
	DB	'fusion 2020\source code 2022\client-server\client\render\r_sh'
	DB	'ader.cpp', 00H				; `string'
CONST	ENDS
;	COMDAT ?__LINE__Var@?0??GL_LoadGPUShader@@YAXPAUglsl_prog_s@@PBDI_N1@Z@4JA
_DATA	SEGMENT
?__LINE__Var@?0??GL_LoadGPUShader@@YAXPAUglsl_prog_s@@PBDI_N1@Z@4JA DD 0ecH ; `GL_LoadGPUShader'::`1'::__LINE__Var
_DATA	ENDS
;	COMDAT ??_C@_00CNPNBAHC@?$AA@
CONST	SEGMENT
??_C@_00CNPNBAHC@?$AA@ DB 00H				; `string'
CONST	ENDS
;	COMDAT ??_C@_0DL@EIKGDMGK@?$CDifndef?5GRASS_ANIM_DIST?6?$CDdefine?5@
CONST	SEGMENT
??_C@_0DL@EIKGDMGK@?$CDifndef?5GRASS_ANIM_DIST?6?$CDdefine?5@ DB '#ifndef'
	DB	' GRASS_ANIM_DIST', 0aH, '#define GRASS_ANIM_DIST %f', 0aH, '#'
	DB	'endif', 0aH, 00H				; `string'
CONST	ENDS
;	COMDAT ??_C@_0DF@FCFCOAGC@?$CDifndef?5MAXLIGHTMAPS?6?$CDdefine?5MAX@
CONST	SEGMENT
??_C@_0DF@FCFCOAGC@?$CDifndef?5MAXLIGHTMAPS?6?$CDdefine?5MAX@ DB '#ifndef'
	DB	' MAXLIGHTMAPS', 0aH, '#define MAXLIGHTMAPS %i', 0aH, '#endif', 0aH
	DB	00H						; `string'
CONST	ENDS
;	COMDAT ??_C@_0DL@DLNJKMNE@?$CDifndef?5MAX_LIGHTSTYLES?6?$CDdefine?5@
CONST	SEGMENT
??_C@_0DL@DLNJKMNE@?$CDifndef?5MAX_LIGHTSTYLES?6?$CDdefine?5@ DB '#ifndef'
	DB	' MAX_LIGHTSTYLES', 0aH, '#define MAX_LIGHTSTYLES %i', 0aH, '#'
	DB	'endif', 0aH, 00H				; `string'
CONST	ENDS
;	COMDAT ??_C@_0DJ@LFGPGNO@?$CDifndef?5MAXSTUDIOBONES?6?$CDdefine?5M@
CONST	SEGMENT
??_C@_0DJ@LFGPGNO@?$CDifndef?5MAXSTUDIOBONES?6?$CDdefine?5M@ DB '#ifndef '
	DB	'MAXSTUDIOBONES', 0aH, '#define MAXSTUDIOBONES %i', 0aH, '#end'
	DB	'if', 0aH, 00H				; `string'
CONST	ENDS
;	COMDAT ??_C@_0CL@JHODLGCO@?$CDextension?5GL_EXT_texture_array?5@
CONST	SEGMENT
??_C@_0CL@JHODLGCO@?$CDextension?5GL_EXT_texture_array?5@ DB '#extension '
	DB	'GL_EXT_texture_array : require', 0aH, 00H	; `string'
CONST	ENDS
;	COMDAT ??_C@_0CC@EIHIPLOH@?$CDdefine?5GLSL_ALLOW_TEXTURE_ARRAY@
CONST	SEGMENT
??_C@_0CC@EIHIPLOH@?$CDdefine?5GLSL_ALLOW_TEXTURE_ARRAY@ DB '#define GLSL'
	DB	'_ALLOW_TEXTURE_ARRAY', 0aH, 00H		; `string'
CONST	ENDS
;	COMDAT ??_C@_0BK@FIAFHJNI@?$CDdefine?5GLSL_gpu_shader4?6?$AA@
CONST	SEGMENT
??_C@_0BK@FIAFHJNI@?$CDdefine?5GLSL_gpu_shader4?6?$AA@ DB '#define GLSL_g'
	DB	'pu_shader4', 0aH, 00H			; `string'
CONST	ENDS
;	COMDAT ??_C@_0CJ@DGLNNJCC@?$CDextension?5GL_EXT_gpu_shader4?5?3?5@
CONST	SEGMENT
??_C@_0CJ@DGLNNJCC@?$CDextension?5GL_EXT_gpu_shader4?5?3?5@ DB '#extensio'
	DB	'n GL_EXT_gpu_shader4 : require', 0aH, 00H	; `string'
CONST	ENDS
;	COMDAT ??_C@_0DL@JPAIIFEC@?$CDifndef?5M_PI2?6?$CDdefine?5M_PI2?56?428@
CONST	SEGMENT
??_C@_0DL@JPAIIFEC@?$CDifndef?5M_PI2?6?$CDdefine?5M_PI2?56?428@ DB '#ifnd'
	DB	'ef M_PI2', 0aH, '#define M_PI2 6.28318530717958647692', 0aH, '#'
	DB	'endif', 0aH, 00H				; `string'
CONST	ENDS
;	COMDAT ??_C@_0DJ@GFBPBLGM@?$CDifndef?5M_PI?6?$CDdefine?5M_PI?53?41415@
CONST	SEGMENT
??_C@_0DJ@GFBPBLGM@?$CDifndef?5M_PI?6?$CDdefine?5M_PI?53?41415@ DB '#ifnd'
	DB	'ef M_PI', 0aH, '#define M_PI 3.14159265358979323846', 0aH, '#'
	DB	'endif', 0aH, 00H				; `string'
CONST	ENDS
;	COMDAT ??_C@_0O@LOEMKNG@?$CDversion?5130?6?$AA@
CONST	SEGMENT
??_C@_0O@LOEMKNG@?$CDversion?5130?6?$AA@ DB '#version 130', 0aH, 00H ; `string'
CONST	ENDS
;	COMDAT ??_C@_03OFAPEBGM@?$CFs?6?$AA@
CONST	SEGMENT
??_C@_03OFAPEBGM@?$CFs?6?$AA@ DB '%s', 0aH, 00H		; `string'
CONST	ENDS
;	COMDAT ??_C@_09KFJICHAG@?$CDline?5?$CFi?6?$AA@
CONST	SEGMENT
??_C@_09KFJICHAG@?$CDline?5?$CFi?6?$AA@ DB '#line %i', 0aH, 00H ; `string'
CONST	ENDS
;	COMDAT ??_C@_07BPFEFLNA@glsl?1?$CFs?$AA@
CONST	SEGMENT
??_C@_07BPFEFLNA@glsl?1?$CFs?$AA@ DB 'glsl/%s', 00H	; `string'
CONST	ENDS
;	COMDAT ??_C@_08GPLAJCBH@?$CDinclude?$AA@
CONST	SEGMENT
??_C@_08GPLAJCBH@?$CDinclude?$AA@ DB '#include', 00H	; `string'
CONST	ENDS
;	COMDAT ??_C@_08CGHKNNMG@?$CDline?50?6?$AA@
CONST	SEGMENT
??_C@_08CGHKNNMG@?$CDline?50?6?$AA@ DB '#line 0', 0aH, 00H ; `string'
CONST	ENDS
;	COMDAT ??_C@_0BC@HJBMIBGI@couldn?8t?5load?5?$CFs?6?$AA@
CONST	SEGMENT
??_C@_0BC@HJBMIBGI@couldn?8t?5load?5?$CFs?6?$AA@ DB 'couldn''t load %s', 0aH
	DB	00H						; `string'
CONST	ENDS
;	COMDAT ??_C@_0BK@HEHGCEJO@recursive?5include?5for?5?$CFs?6?$AA@
CONST	SEGMENT
??_C@_0BK@HEHGCEJO@recursive?5include?5for?5?$CFs?6?$AA@ DB 'recursive in'
	DB	'clude for %s', 0aH, 00H			; `string'
CONST	ENDS
;	COMDAT ??_C@_0CD@KBPDGGGO@GL_PushFileStack?3?5stack?5underflo@
CONST	SEGMENT
??_C@_0CD@KBPDGGGO@GL_PushFileStack?3?5stack?5underflo@ DB 'GL_PushFileSt'
	DB	'ack: stack underflow', 0aH, 00H		; `string'
CONST	ENDS
;	COMDAT ??_C@_0CC@MDIBKIJI@GL_PushFileStack?3?5stack?5overflow@
CONST	SEGMENT
??_C@_0CC@MDIBKIJI@GL_PushFileStack?3?5stack?5overflow@ DB 'GL_PushFileSt'
	DB	'ack: stack overflow', 0aH, 00H		; `string'
CONST	ENDS
;	COMDAT ??_C@_0CN@LIMLBMNO@GL_PrintInfoLog?3?5message?5exceeds@
CONST	SEGMENT
??_C@_0CN@LIMLBMNO@GL_PrintInfoLog?3?5message?5exceeds@ DB 'GL_PrintInfoL'
	DB	'og: message exceeds %i symbols', 0aH, 00H	; `string'
CONST	ENDS
;	COMDAT ??_C@_0BF@EAIFCKME@NORMAL_AG_PARABOLOID?$AA@
CONST	SEGMENT
??_C@_0BF@EAIFCKME@NORMAL_AG_PARABOLOID?$AA@ DB 'NORMAL_AG_PARABOLOID', 00H ; `string'
CONST	ENDS
;	COMDAT ??_C@_0BG@LDLNDKLC@NORMAL_3DC_PARABOLOID?$AA@
CONST	SEGMENT
??_C@_0BG@LDLNDKLC@NORMAL_3DC_PARABOLOID?$AA@ DB 'NORMAL_3DC_PARABOLOID', 00H ; `string'
CONST	ENDS
;	COMDAT ??_C@_0BF@FKFGDDHD@NORMAL_RG_PARABOLOID?$AA@
CONST	SEGMENT
??_C@_0BF@FKFGDDHD@NORMAL_RG_PARABOLOID?$AA@ DB 'NORMAL_RG_PARABOLOID', 00H ; `string'
CONST	ENDS
;	COMDAT xdata$x
xdata$x	SEGMENT
__unwindtable$?GL_LoadGPUShader@@YAXPAUglsl_prog_s@@PBDI_N1@Z DD 0ffffffffH
	DD	FLAT:__unwindfunclet$?GL_LoadGPUShader@@YAXPAUglsl_prog_s@@PBDI_N1@Z$0
__ehfuncinfo$?GL_LoadGPUShader@@YAXPAUglsl_prog_s@@PBDI_N1@Z DD 019930522H
	DD	01H
	DD	FLAT:__unwindtable$?GL_LoadGPUShader@@YAXPAUglsl_prog_s@@PBDI_N1@Z
	DD	2 DUP(00H)
	DD	2 DUP(00H)
	DD	00H
	DD	01H
xdata$x	ENDS
;	COMDAT xdata$x
xdata$x	SEGMENT
__unwindtable$?GL_ProcessShader@@YA_NPBDPAVCVirtualFS@@_N0@Z DD 0ffffffffH
	DD	FLAT:__unwindfunclet$?GL_ProcessShader@@YA_NPBDPAVCVirtualFS@@_N0@Z$0
__ehfuncinfo$?GL_ProcessShader@@YA_NPBDPAVCVirtualFS@@_N0@Z DD 019930522H
	DD	01H
	DD	FLAT:__unwindtable$?GL_ProcessShader@@YA_NPBDPAVCVirtualFS@@_N0@Z
	DD	2 DUP(00H)
	DD	2 DUP(00H)
	DD	00H
	DD	01H
xdata$x	ENDS
;	COMDAT xdata$x
xdata$x	SEGMENT
__unwindtable$?GL_ParseFile@@YAXPBDPAVCVirtualFS@@1@Z DD 0ffffffffH
	DD	FLAT:__unwindfunclet$?GL_ParseFile@@YAXPBDPAVCVirtualFS@@1@Z$0
__ehfuncinfo$?GL_ParseFile@@YAXPBDPAVCVirtualFS@@1@Z DD 019930522H
	DD	01H
	DD	FLAT:__unwindtable$?GL_ParseFile@@YAXPBDPAVCVirtualFS@@1@Z
	DD	2 DUP(00H)
	DD	2 DUP(00H)
	DD	00H
	DD	01H
xdata$x	ENDS
; Function compile flags: /Odtp /ZI
; File d:\!diffusion 2020\source code 2022\client-server\client\render\r_shader.cpp
;	COMDAT ?GL_ListGPUShaders@@YAXXZ
_TEXT	SEGMENT
_options$1 = -16					; size = 4
_cur$2 = -12						; size = 4
_i$3 = -8						; size = 4
_count$ = -4						; size = 4
?GL_ListGPUShaders@@YAXXZ PROC				; GL_ListGPUShaders, COMDAT

; 2255 : {

	push	ebp
	mov	ebp, esp
	sub	esp, 80					; 00000050H
	push	ebx
	push	esi
	push	edi

; 2256 : 	int count = 0;

	mov	DWORD PTR _count$[ebp], 0

; 2257 : 
; 2258 : 	for( unsigned int i = 1; i < num_glsl_programs; i++ )

	mov	DWORD PTR _i$3[ebp], 1
	jmp	SHORT $LN4@GL_ListGPU
$LN2@GL_ListGPU:
	mov	eax, DWORD PTR _i$3[ebp]
	add	eax, 1
	mov	DWORD PTR _i$3[ebp], eax
$LN4@GL_ListGPU:
	mov	eax, DWORD PTR _i$3[ebp]
	cmp	eax, DWORD PTR ?num_glsl_programs@@3IA	; num_glsl_programs
	jae	$LN3@GL_ListGPU

; 2259 : 	{
; 2260 : 		glsl_program_t *cur = &glsl_programs[i];

	imul	eax, DWORD PTR _i$3[ebp], 972
	add	eax, OFFSET ?glsl_programs@@3PAUglsl_prog_s@@A ; glsl_programs
	mov	DWORD PTR _cur$2[ebp], eax

; 2261 : 		if( !cur->name[0] ) continue;

	mov	eax, 1
	imul	ecx, eax, 0
	mov	edx, DWORD PTR _cur$2[ebp]
	movsx	eax, BYTE PTR [edx+ecx]
	test	eax, eax
	jne	SHORT $LN5@GL_ListGPU
	jmp	SHORT $LN2@GL_ListGPU
$LN5@GL_ListGPU:

; 2262 : 
; 2263 : 		const char *options = GL_PretifyListOptions( cur->options );

	push	0
	mov	eax, DWORD PTR _cur$2[ebp]
	add	eax, 64					; 00000040H
	push	eax
	call	?GL_PretifyListOptions@@YAPBDPBD_N@Z	; GL_PretifyListOptions
	add	esp, 8
	mov	DWORD PTR _options$1[ebp], eax

; 2264 : 
; 2265 : 		if( Q_stricmp( options, "" ))

	push	99999					; 0001869fH
	push	OFFSET ??_C@_00CNPNBAHC@?$AA@
	mov	eax, DWORD PTR _options$1[ebp]
	push	eax
	call	?Q_strnicmp@@YAHPBD0H@Z			; Q_strnicmp
	add	esp, 12					; 0000000cH
	test	eax, eax
	je	SHORT $LN6@GL_ListGPU

; 2266 : 			Msg( "#%i %s [%s]\n", i, cur->name, options );

	mov	eax, DWORD PTR _options$1[ebp]
	push	eax
	mov	ecx, DWORD PTR _cur$2[ebp]
	push	ecx
	mov	edx, DWORD PTR _i$3[ebp]
	push	edx
	push	OFFSET ??_C@_0N@LHAEPDJL@?$CD?$CFi?5?$CFs?5?$FL?$CFs?$FN?6?$AA@
	call	DWORD PTR ?gEngfuncs@@3Ucl_enginefuncs_s@@A+160
	add	esp, 16					; 00000010H
	jmp	SHORT $LN7@GL_ListGPU
$LN6@GL_ListGPU:

; 2267 : 		else Msg( "#%i %s\n", i, cur->name );

	mov	eax, DWORD PTR _cur$2[ebp]
	push	eax
	mov	ecx, DWORD PTR _i$3[ebp]
	push	ecx
	push	OFFSET ??_C@_07KFCPEDAB@?$CD?$CFi?5?$CFs?6?$AA@
	call	DWORD PTR ?gEngfuncs@@3Ucl_enginefuncs_s@@A+160
	add	esp, 12					; 0000000cH
$LN7@GL_ListGPU:

; 2268 : 		count++;

	mov	eax, DWORD PTR _count$[ebp]
	add	eax, 1
	mov	DWORD PTR _count$[ebp], eax

; 2269 : 	}

	jmp	$LN2@GL_ListGPU
$LN3@GL_ListGPU:

; 2270 : 
; 2271 : 	Msg( "total %i shaders\n", count );

	mov	eax, DWORD PTR _count$[ebp]
	push	eax
	push	OFFSET ??_C@_0BC@KGOJMEGM@total?5?$CFi?5shaders?6?$AA@
	call	DWORD PTR ?gEngfuncs@@3Ucl_enginefuncs_s@@A+160
	add	esp, 8

; 2272 : }

	pop	edi
	pop	esi
	pop	ebx
	mov	esp, ebp
	pop	ebp
	ret	0
?GL_ListGPUShaders@@YAXXZ ENDP				; GL_ListGPUShaders
_TEXT	ENDS
; Function compile flags: /Odtp /ZI
; File d:\!diffusion 2020\source code 2022\client-server\client\render\r_shader.cpp
;	COMDAT ?GL_InitWaterDropsUniforms@@YAXPAUglsl_prog_s@@@Z
_TEXT	SEGMENT
_shader$ = 8						; size = 4
?GL_InitWaterDropsUniforms@@YAXPAUglsl_prog_s@@@Z PROC	; GL_InitWaterDropsUniforms, COMDAT

; 1446 : {

	push	ebp
	mov	ebp, esp
	sub	esp, 64					; 00000040H
	push	ebx
	push	esi
	push	edi

; 1447 : 	ASSERT( shader != NULL );

	cmp	DWORD PTR _shader$[ebp], 0
	jne	SHORT $LN2@GL_InitWat
	mov	eax, DWORD PTR ?__LINE__Var@?0??GL_InitWaterDropsUniforms@@YAXPAUglsl_prog_s@@@Z@4JA
	add	eax, 1
	push	eax
	push	OFFSET ??_C@_0EN@DPFBEFBL@d?3?2?$CBdiffusion?52020?2source?5code?52@
	push	OFFSET ??_C@_0BI@FECCGOFJ@assert?5failed?5at?5?$CFs?3?$CFi?6?$AA@
	call	DWORD PTR ?gRenderfuncs@@3Urender_api_s@@A+236
	add	esp, 12					; 0000000cH
$LN2@GL_InitWat:

; 1448 : 
; 1449 : 	shader->u_ColorMap = pglGetUniformLocationARB( shader->handle, "u_ColorMap" );

	push	OFFSET ??_C@_0L@IEDEJAAC@u_ColorMap?$AA@
	mov	eax, DWORD PTR _shader$[ebp]
	mov	ecx, DWORD PTR [eax+576]
	push	ecx
	call	DWORD PTR ?pglGetUniformLocationARB@@3P6GHIPBD@ZA ; pglGetUniformLocationARB
	mov	edx, DWORD PTR _shader$[ebp]
	mov	DWORD PTR [edx+588], eax

; 1450 : 	shader->u_RealTime = pglGetUniformLocationARB( shader->handle, "u_RealTime" );

	push	OFFSET ??_C@_0L@BGHCDECL@u_RealTime?$AA@
	mov	eax, DWORD PTR _shader$[ebp]
	mov	ecx, DWORD PTR [eax+576]
	push	ecx
	call	DWORD PTR ?pglGetUniformLocationARB@@3P6GHIPBD@ZA ; pglGetUniformLocationARB
	mov	edx, DWORD PTR _shader$[ebp]
	mov	DWORD PTR [edx+868], eax

; 1451 : 	shader->u_ScreenSizeInv = pglGetUniformLocationARB( shader->handle, "u_ScreenSizeInv" );

	push	OFFSET ??_C@_0BA@CNHIBBKL@u_ScreenSizeInv?$AA@
	mov	eax, DWORD PTR _shader$[ebp]
	mov	ecx, DWORD PTR [eax+576]
	push	ecx
	call	DWORD PTR ?pglGetUniformLocationARB@@3P6GHIPBD@ZA ; pglGetUniformLocationARB
	mov	edx, DWORD PTR _shader$[ebp]
	mov	DWORD PTR [edx+724], eax

; 1452 : 	shader->u_Accum = pglGetUniformLocationARB( shader->handle, "u_Accum" );

	push	OFFSET ??_C@_07BKJMBFNE@u_Accum?$AA@
	mov	eax, DWORD PTR _shader$[ebp]
	mov	ecx, DWORD PTR [eax+576]
	push	ecx
	call	DWORD PTR ?pglGetUniformLocationARB@@3P6GHIPBD@ZA ; pglGetUniformLocationARB
	mov	edx, DWORD PTR _shader$[ebp]
	mov	DWORD PTR [edx+932], eax

; 1453 : 	shader->u_LerpFactor = pglGetUniformLocationARB( shader->handle, "u_LerpFactor" );

	push	OFFSET ??_C@_0N@BILMML@u_LerpFactor?$AA@
	mov	eax, DWORD PTR _shader$[ebp]
	mov	ecx, DWORD PTR [eax+576]
	push	ecx
	call	DWORD PTR ?pglGetUniformLocationARB@@3P6GHIPBD@ZA ; pglGetUniformLocationARB
	mov	edx, DWORD PTR _shader$[ebp]
	mov	DWORD PTR [edx+812], eax

; 1454 : 
; 1455 : 	GL_BindShader( shader );

	mov	eax, DWORD PTR _shader$[ebp]
	push	eax
	call	?GL_BindShader@@YAXPAUglsl_prog_s@@@Z	; GL_BindShader
	add	esp, 4

; 1456 : 	pglUniform1iARB( shader->u_ColorMap, GL_TEXTURE0 );

	push	0
	mov	eax, DWORD PTR _shader$[ebp]
	mov	ecx, DWORD PTR [eax+588]
	push	ecx
	call	DWORD PTR ?pglUniform1iARB@@3P6GXHH@ZA	; pglUniform1iARB

; 1457 : 	GL_BindShader( GL_NONE );

	push	0
	call	?GL_BindShader@@YAXPAUglsl_prog_s@@@Z	; GL_BindShader
	add	esp, 4

; 1458 : 
; 1459 : 	GL_ValidateProgram( shader );

	mov	eax, DWORD PTR _shader$[ebp]
	push	eax
	call	?GL_ValidateProgram@@YAXPAUglsl_prog_s@@@Z ; GL_ValidateProgram
	add	esp, 4

; 1460 : 	GL_ShowProgramUniforms( shader );

	mov	eax, DWORD PTR _shader$[ebp]
	push	eax
	call	?GL_ShowProgramUniforms@@YAXPAUglsl_prog_s@@@Z ; GL_ShowProgramUniforms
	add	esp, 4

; 1461 : }

	pop	edi
	pop	esi
	pop	ebx
	mov	esp, ebp
	pop	ebp
	ret	0
?GL_InitWaterDropsUniforms@@YAXPAUglsl_prog_s@@@Z ENDP	; GL_InitWaterDropsUniforms
_TEXT	ENDS
; Function compile flags: /Odtp /ZI
; File d:\!diffusion 2020\source code 2022\client-server\client\render\r_shader.cpp
;	COMDAT ?GL_InitGlitchUniforms@@YAXPAUglsl_prog_s@@@Z
_TEXT	SEGMENT
_shader$ = 8						; size = 4
?GL_InitGlitchUniforms@@YAXPAUglsl_prog_s@@@Z PROC	; GL_InitGlitchUniforms, COMDAT

; 1429 : {

	push	ebp
	mov	ebp, esp
	sub	esp, 64					; 00000040H
	push	ebx
	push	esi
	push	edi

; 1430 : 	ASSERT( shader != NULL );

	cmp	DWORD PTR _shader$[ebp], 0
	jne	SHORT $LN2@GL_InitGli
	mov	eax, DWORD PTR ?__LINE__Var@?0??GL_InitGlitchUniforms@@YAXPAUglsl_prog_s@@@Z@4JA
	add	eax, 1
	push	eax
	push	OFFSET ??_C@_0EN@DPFBEFBL@d?3?2?$CBdiffusion?52020?2source?5code?52@
	push	OFFSET ??_C@_0BI@FECCGOFJ@assert?5failed?5at?5?$CFs?3?$CFi?6?$AA@
	call	DWORD PTR ?gRenderfuncs@@3Urender_api_s@@A+236
	add	esp, 12					; 0000000cH
$LN2@GL_InitGli:

; 1431 : 
; 1432 : 	shader->u_ColorMap = pglGetUniformLocationARB( shader->handle, "u_ColorMap" );

	push	OFFSET ??_C@_0L@IEDEJAAC@u_ColorMap?$AA@
	mov	eax, DWORD PTR _shader$[ebp]
	mov	ecx, DWORD PTR [eax+576]
	push	ecx
	call	DWORD PTR ?pglGetUniformLocationARB@@3P6GHIPBD@ZA ; pglGetUniformLocationARB
	mov	edx, DWORD PTR _shader$[ebp]
	mov	DWORD PTR [edx+588], eax

; 1433 : 	shader->u_RealTime = pglGetUniformLocationARB( shader->handle, "u_RealTime" );

	push	OFFSET ??_C@_0L@BGHCDECL@u_RealTime?$AA@
	mov	eax, DWORD PTR _shader$[ebp]
	mov	ecx, DWORD PTR [eax+576]
	push	ecx
	call	DWORD PTR ?pglGetUniformLocationARB@@3P6GHIPBD@ZA ; pglGetUniformLocationARB
	mov	edx, DWORD PTR _shader$[ebp]
	mov	DWORD PTR [edx+868], eax

; 1434 : 	shader->u_ScreenSizeInv = pglGetUniformLocationARB( shader->handle, "u_ScreenSizeInv" );

	push	OFFSET ??_C@_0BA@CNHIBBKL@u_ScreenSizeInv?$AA@
	mov	eax, DWORD PTR _shader$[ebp]
	mov	ecx, DWORD PTR [eax+576]
	push	ecx
	call	DWORD PTR ?pglGetUniformLocationARB@@3P6GHIPBD@ZA ; pglGetUniformLocationARB
	mov	edx, DWORD PTR _shader$[ebp]
	mov	DWORD PTR [edx+724], eax

; 1435 : 	shader->u_Accum = pglGetUniformLocationARB( shader->handle, "u_Accum" );

	push	OFFSET ??_C@_07BKJMBFNE@u_Accum?$AA@
	mov	eax, DWORD PTR _shader$[ebp]
	mov	ecx, DWORD PTR [eax+576]
	push	ecx
	call	DWORD PTR ?pglGetUniformLocationARB@@3P6GHIPBD@ZA ; pglGetUniformLocationARB
	mov	edx, DWORD PTR _shader$[ebp]
	mov	DWORD PTR [edx+932], eax

; 1436 : 
; 1437 : 	GL_BindShader( shader );

	mov	eax, DWORD PTR _shader$[ebp]
	push	eax
	call	?GL_BindShader@@YAXPAUglsl_prog_s@@@Z	; GL_BindShader
	add	esp, 4

; 1438 : 	pglUniform1iARB( shader->u_ColorMap, GL_TEXTURE0 );

	push	0
	mov	eax, DWORD PTR _shader$[ebp]
	mov	ecx, DWORD PTR [eax+588]
	push	ecx
	call	DWORD PTR ?pglUniform1iARB@@3P6GXHH@ZA	; pglUniform1iARB

; 1439 : 	GL_BindShader( GL_NONE );

	push	0
	call	?GL_BindShader@@YAXPAUglsl_prog_s@@@Z	; GL_BindShader
	add	esp, 4

; 1440 : 
; 1441 : 	GL_ValidateProgram( shader );

	mov	eax, DWORD PTR _shader$[ebp]
	push	eax
	call	?GL_ValidateProgram@@YAXPAUglsl_prog_s@@@Z ; GL_ValidateProgram
	add	esp, 4

; 1442 : 	GL_ShowProgramUniforms( shader );

	mov	eax, DWORD PTR _shader$[ebp]
	push	eax
	call	?GL_ShowProgramUniforms@@YAXPAUglsl_prog_s@@@Z ; GL_ShowProgramUniforms
	add	esp, 4

; 1443 : }

	pop	edi
	pop	esi
	pop	ebx
	mov	esp, ebp
	pop	ebp
	ret	0
?GL_InitGlitchUniforms@@YAXPAUglsl_prog_s@@@Z ENDP	; GL_InitGlitchUniforms
_TEXT	ENDS
; Function compile flags: /Odtp /ZI
; File d:\!diffusion 2020\source code 2022\client-server\client\render\r_shader.cpp
;	COMDAT ?GL_InitScreenWaterUniforms@@YAXPAUglsl_prog_s@@@Z
_TEXT	SEGMENT
_shader$ = 8						; size = 4
?GL_InitScreenWaterUniforms@@YAXPAUglsl_prog_s@@@Z PROC	; GL_InitScreenWaterUniforms, COMDAT

; 1410 : {

	push	ebp
	mov	ebp, esp
	sub	esp, 64					; 00000040H
	push	ebx
	push	esi
	push	edi

; 1411 : 	ASSERT( shader != NULL );

	cmp	DWORD PTR _shader$[ebp], 0
	jne	SHORT $LN2@GL_InitScr
	mov	eax, DWORD PTR ?__LINE__Var@?0??GL_InitScreenWaterUniforms@@YAXPAUglsl_prog_s@@@Z@4JA
	add	eax, 1
	push	eax
	push	OFFSET ??_C@_0EN@DPFBEFBL@d?3?2?$CBdiffusion?52020?2source?5code?52@
	push	OFFSET ??_C@_0BI@FECCGOFJ@assert?5failed?5at?5?$CFs?3?$CFi?6?$AA@
	call	DWORD PTR ?gRenderfuncs@@3Urender_api_s@@A+236
	add	esp, 12					; 0000000cH
$LN2@GL_InitScr:

; 1412 : 
; 1413 : 	shader->u_ColorMap = pglGetUniformLocationARB( shader->handle, "u_ColorMap" );

	push	OFFSET ??_C@_0L@IEDEJAAC@u_ColorMap?$AA@
	mov	eax, DWORD PTR _shader$[ebp]
	mov	ecx, DWORD PTR [eax+576]
	push	ecx
	call	DWORD PTR ?pglGetUniformLocationARB@@3P6GHIPBD@ZA ; pglGetUniformLocationARB
	mov	edx, DWORD PTR _shader$[ebp]
	mov	DWORD PTR [edx+588], eax

; 1414 : 	shader->u_ScreenMap = pglGetUniformLocationARB( shader->handle, "u_ScreenMap" );

	push	OFFSET ??_C@_0M@KCNMJMNH@u_ScreenMap?$AA@
	mov	eax, DWORD PTR _shader$[ebp]
	mov	ecx, DWORD PTR [eax+576]
	push	ecx
	call	DWORD PTR ?pglGetUniformLocationARB@@3P6GHIPBD@ZA ; pglGetUniformLocationARB
	mov	edx, DWORD PTR _shader$[ebp]
	mov	DWORD PTR [edx+632], eax

; 1415 : 	shader->u_RealTime = pglGetUniformLocationARB( shader->handle, "u_RealTime" );

	push	OFFSET ??_C@_0L@BGHCDECL@u_RealTime?$AA@
	mov	eax, DWORD PTR _shader$[ebp]
	mov	ecx, DWORD PTR [eax+576]
	push	ecx
	call	DWORD PTR ?pglGetUniformLocationARB@@3P6GHIPBD@ZA ; pglGetUniformLocationARB
	mov	edx, DWORD PTR _shader$[ebp]
	mov	DWORD PTR [edx+868], eax

; 1416 : 	shader->u_ScreenSizeInv = pglGetUniformLocationARB( shader->handle, "u_ScreenSizeInv" );

	push	OFFSET ??_C@_0BA@CNHIBBKL@u_ScreenSizeInv?$AA@
	mov	eax, DWORD PTR _shader$[ebp]
	mov	ecx, DWORD PTR [eax+576]
	push	ecx
	call	DWORD PTR ?pglGetUniformLocationARB@@3P6GHIPBD@ZA ; pglGetUniformLocationARB
	mov	edx, DWORD PTR _shader$[ebp]
	mov	DWORD PTR [edx+724], eax

; 1417 : 	shader->u_Accum = pglGetUniformLocationARB( shader->handle, "u_Accum" );

	push	OFFSET ??_C@_07BKJMBFNE@u_Accum?$AA@
	mov	eax, DWORD PTR _shader$[ebp]
	mov	ecx, DWORD PTR [eax+576]
	push	ecx
	call	DWORD PTR ?pglGetUniformLocationARB@@3P6GHIPBD@ZA ; pglGetUniformLocationARB
	mov	edx, DWORD PTR _shader$[ebp]
	mov	DWORD PTR [edx+932], eax

; 1418 : 
; 1419 : 	GL_BindShader( shader );

	mov	eax, DWORD PTR _shader$[ebp]
	push	eax
	call	?GL_BindShader@@YAXPAUglsl_prog_s@@@Z	; GL_BindShader
	add	esp, 4

; 1420 : 	pglUniform1iARB( shader->u_ColorMap, GL_TEXTURE0 );

	push	0
	mov	eax, DWORD PTR _shader$[ebp]
	mov	ecx, DWORD PTR [eax+588]
	push	ecx
	call	DWORD PTR ?pglUniform1iARB@@3P6GXHH@ZA	; pglUniform1iARB

; 1421 : 	pglUniform1iARB( shader->u_ScreenMap, GL_TEXTURE1 );

	push	1
	mov	eax, DWORD PTR _shader$[ebp]
	mov	ecx, DWORD PTR [eax+632]
	push	ecx
	call	DWORD PTR ?pglUniform1iARB@@3P6GXHH@ZA	; pglUniform1iARB

; 1422 : 	GL_BindShader( GL_NONE );

	push	0
	call	?GL_BindShader@@YAXPAUglsl_prog_s@@@Z	; GL_BindShader
	add	esp, 4

; 1423 : 
; 1424 : 	GL_ValidateProgram( shader );

	mov	eax, DWORD PTR _shader$[ebp]
	push	eax
	call	?GL_ValidateProgram@@YAXPAUglsl_prog_s@@@Z ; GL_ValidateProgram
	add	esp, 4

; 1425 : 	GL_ShowProgramUniforms( shader );

	mov	eax, DWORD PTR _shader$[ebp]
	push	eax
	call	?GL_ShowProgramUniforms@@YAXPAUglsl_prog_s@@@Z ; GL_ShowProgramUniforms
	add	esp, 4

; 1426 : }

	pop	edi
	pop	esi
	pop	ebx
	mov	esp, ebp
	pop	ebp
	ret	0
?GL_InitScreenWaterUniforms@@YAXPAUglsl_prog_s@@@Z ENDP	; GL_InitScreenWaterUniforms
_TEXT	ENDS
; Function compile flags: /Odtp /ZI
; File d:\!diffusion 2020\source code 2022\client-server\client\render\r_shader.cpp
;	COMDAT ?GL_InitBlurMipUniforms@@YAXPAUglsl_prog_s@@@Z
_TEXT	SEGMENT
_shader$ = 8						; size = 4
?GL_InitBlurMipUniforms@@YAXPAUglsl_prog_s@@@Z PROC	; GL_InitBlurMipUniforms, COMDAT

; 1392 : {

	push	ebp
	mov	ebp, esp
	sub	esp, 64					; 00000040H
	push	ebx
	push	esi
	push	edi

; 1393 : 	ASSERT( shader != NULL );

	cmp	DWORD PTR _shader$[ebp], 0
	jne	SHORT $LN2@GL_InitBlu
	mov	eax, DWORD PTR ?__LINE__Var@?0??GL_InitBlurMipUniforms@@YAXPAUglsl_prog_s@@@Z@4JA
	add	eax, 1
	push	eax
	push	OFFSET ??_C@_0EN@DPFBEFBL@d?3?2?$CBdiffusion?52020?2source?5code?52@
	push	OFFSET ??_C@_0BI@FECCGOFJ@assert?5failed?5at?5?$CFs?3?$CFi?6?$AA@
	call	DWORD PTR ?gRenderfuncs@@3Urender_api_s@@A+236
	add	esp, 12					; 0000000cH
$LN2@GL_InitBlu:

; 1394 : 
; 1395 : 	shader->u_ScreenMap = pglGetUniformLocationARB( shader->handle, "u_ScreenMap" );

	push	OFFSET ??_C@_0M@KCNMJMNH@u_ScreenMap?$AA@
	mov	eax, DWORD PTR _shader$[ebp]
	mov	ecx, DWORD PTR [eax+576]
	push	ecx
	call	DWORD PTR ?pglGetUniformLocationARB@@3P6GHIPBD@ZA ; pglGetUniformLocationARB
	mov	edx, DWORD PTR _shader$[ebp]
	mov	DWORD PTR [edx+632], eax

; 1396 : 	shader->u_ScreenSizeInv = pglGetUniformLocationARB( shader->handle, "u_ScreenSizeInv" );

	push	OFFSET ??_C@_0BA@CNHIBBKL@u_ScreenSizeInv?$AA@
	mov	eax, DWORD PTR _shader$[ebp]
	mov	ecx, DWORD PTR [eax+576]
	push	ecx
	call	DWORD PTR ?pglGetUniformLocationARB@@3P6GHIPBD@ZA ; pglGetUniformLocationARB
	mov	edx, DWORD PTR _shader$[ebp]
	mov	DWORD PTR [edx+724], eax

; 1397 : 	shader->u_MipLod = pglGetUniformLocationARB( shader->handle, "u_MipLod" );

	push	OFFSET ??_C@_08EPOJODHO@u_MipLod?$AA@
	mov	eax, DWORD PTR _shader$[ebp]
	mov	ecx, DWORD PTR [eax+576]
	push	ecx
	call	DWORD PTR ?pglGetUniformLocationARB@@3P6GHIPBD@ZA ; pglGetUniformLocationARB
	mov	edx, DWORD PTR _shader$[ebp]
	mov	DWORD PTR [edx+952], eax

; 1398 : 	shader->u_TexCoordClamp = pglGetUniformLocationARB( shader->handle, "u_TexCoordClamp" );

	push	OFFSET ??_C@_0BA@CHODOENL@u_TexCoordClamp?$AA@
	mov	eax, DWORD PTR _shader$[ebp]
	mov	ecx, DWORD PTR [eax+576]
	push	ecx
	call	DWORD PTR ?pglGetUniformLocationARB@@3P6GHIPBD@ZA ; pglGetUniformLocationARB
	mov	edx, DWORD PTR _shader$[ebp]
	mov	DWORD PTR [edx+956], eax

; 1399 : 	shader->u_BloomFirstPass = pglGetUniformLocationARB( shader->handle, "u_BloomFirstPass" );

	push	OFFSET ??_C@_0BB@OFOHIACD@u_BloomFirstPass?$AA@
	mov	eax, DWORD PTR _shader$[ebp]
	mov	ecx, DWORD PTR [eax+576]
	push	ecx
	call	DWORD PTR ?pglGetUniformLocationARB@@3P6GHIPBD@ZA ; pglGetUniformLocationARB
	mov	edx, DWORD PTR _shader$[ebp]
	mov	DWORD PTR [edx+964], eax

; 1400 : 
; 1401 : 	GL_BindShader( shader );

	mov	eax, DWORD PTR _shader$[ebp]
	push	eax
	call	?GL_BindShader@@YAXPAUglsl_prog_s@@@Z	; GL_BindShader
	add	esp, 4

; 1402 : 	pglUniform1iARB( shader->u_ScreenMap, GL_TEXTURE0 );

	push	0
	mov	eax, DWORD PTR _shader$[ebp]
	mov	ecx, DWORD PTR [eax+632]
	push	ecx
	call	DWORD PTR ?pglUniform1iARB@@3P6GXHH@ZA	; pglUniform1iARB

; 1403 : 	GL_BindShader( GL_NONE );

	push	0
	call	?GL_BindShader@@YAXPAUglsl_prog_s@@@Z	; GL_BindShader
	add	esp, 4

; 1404 : 
; 1405 : 	GL_ValidateProgram( shader );

	mov	eax, DWORD PTR _shader$[ebp]
	push	eax
	call	?GL_ValidateProgram@@YAXPAUglsl_prog_s@@@Z ; GL_ValidateProgram
	add	esp, 4

; 1406 : 	GL_ShowProgramUniforms( shader );

	mov	eax, DWORD PTR _shader$[ebp]
	push	eax
	call	?GL_ShowProgramUniforms@@YAXPAUglsl_prog_s@@@Z ; GL_ShowProgramUniforms
	add	esp, 4

; 1407 : }

	pop	edi
	pop	esi
	pop	ebx
	mov	esp, ebp
	pop	ebp
	ret	0
?GL_InitBlurMipUniforms@@YAXPAUglsl_prog_s@@@Z ENDP	; GL_InitBlurMipUniforms
_TEXT	ENDS
; Function compile flags: /Odtp /ZI
; File d:\!diffusion 2020\source code 2022\client-server\client\render\r_shader.cpp
;	COMDAT ?GL_InitGenExposureUniforms@@YAXPAUglsl_prog_s@@@Z
_TEXT	SEGMENT
_shader$ = 8						; size = 4
?GL_InitGenExposureUniforms@@YAXPAUglsl_prog_s@@@Z PROC	; GL_InitGenExposureUniforms, COMDAT

; 1374 : {

	push	ebp
	mov	ebp, esp
	sub	esp, 64					; 00000040H
	push	ebx
	push	esi
	push	edi

; 1375 : 	ASSERT( shader != NULL );

	cmp	DWORD PTR _shader$[ebp], 0
	jne	SHORT $LN2@GL_InitGen
	mov	eax, DWORD PTR ?__LINE__Var@?0??GL_InitGenExposureUniforms@@YAXPAUglsl_prog_s@@@Z@4JA
	add	eax, 1
	push	eax
	push	OFFSET ??_C@_0EN@DPFBEFBL@d?3?2?$CBdiffusion?52020?2source?5code?52@
	push	OFFSET ??_C@_0BI@FECCGOFJ@assert?5failed?5at?5?$CFs?3?$CFi?6?$AA@
	call	DWORD PTR ?gRenderfuncs@@3Urender_api_s@@A+236
	add	esp, 12					; 0000000cH
$LN2@GL_InitGen:

; 1376 : 
; 1377 : 	shader->u_ScreenMap = pglGetUniformLocationARB( shader->handle, "u_ScreenMap" );

	push	OFFSET ??_C@_0M@KCNMJMNH@u_ScreenMap?$AA@
	mov	eax, DWORD PTR _shader$[ebp]
	mov	ecx, DWORD PTR [eax+576]
	push	ecx
	call	DWORD PTR ?pglGetUniformLocationARB@@3P6GHIPBD@ZA ; pglGetUniformLocationARB
	mov	edx, DWORD PTR _shader$[ebp]
	mov	DWORD PTR [edx+632], eax

; 1378 : 	shader->u_NormalMap = pglGetUniformLocationARB( shader->handle, "u_NormalMap" );

	push	OFFSET ??_C@_0M@EEAGDKIK@u_NormalMap?$AA@
	mov	eax, DWORD PTR _shader$[ebp]
	mov	ecx, DWORD PTR [eax+576]
	push	ecx
	call	DWORD PTR ?pglGetUniformLocationARB@@3P6GHIPBD@ZA ; pglGetUniformLocationARB
	mov	edx, DWORD PTR _shader$[ebp]
	mov	DWORD PTR [edx+596], eax

; 1379 : 	shader->u_TimeDelta = pglGetUniformLocationARB( shader->handle, "u_TimeDelta" );

	push	OFFSET ??_C@_0M@JKCPEDOF@u_TimeDelta?$AA@
	mov	eax, DWORD PTR _shader$[ebp]
	mov	ecx, DWORD PTR [eax+576]
	push	ecx
	call	DWORD PTR ?pglGetUniformLocationARB@@3P6GHIPBD@ZA ; pglGetUniformLocationARB
	mov	edx, DWORD PTR _shader$[ebp]
	mov	DWORD PTR [edx+960], eax

; 1380 : 	shader->u_MipLod = pglGetUniformLocationARB( shader->handle, "u_MipLod" );

	push	OFFSET ??_C@_08EPOJODHO@u_MipLod?$AA@
	mov	eax, DWORD PTR _shader$[ebp]
	mov	ecx, DWORD PTR [eax+576]
	push	ecx
	call	DWORD PTR ?pglGetUniformLocationARB@@3P6GHIPBD@ZA ; pglGetUniformLocationARB
	mov	edx, DWORD PTR _shader$[ebp]
	mov	DWORD PTR [edx+952], eax

; 1381 : 
; 1382 : 	GL_BindShader( shader );

	mov	eax, DWORD PTR _shader$[ebp]
	push	eax
	call	?GL_BindShader@@YAXPAUglsl_prog_s@@@Z	; GL_BindShader
	add	esp, 4

; 1383 : 	pglUniform1iARB( shader->u_ScreenMap, GL_TEXTURE0 );

	push	0
	mov	eax, DWORD PTR _shader$[ebp]
	mov	ecx, DWORD PTR [eax+632]
	push	ecx
	call	DWORD PTR ?pglUniform1iARB@@3P6GXHH@ZA	; pglUniform1iARB

; 1384 : 	pglUniform1iARB( shader->u_NormalMap, GL_TEXTURE1 );

	push	1
	mov	eax, DWORD PTR _shader$[ebp]
	mov	ecx, DWORD PTR [eax+596]
	push	ecx
	call	DWORD PTR ?pglUniform1iARB@@3P6GXHH@ZA	; pglUniform1iARB

; 1385 : 	GL_BindShader( GL_NONE );

	push	0
	call	?GL_BindShader@@YAXPAUglsl_prog_s@@@Z	; GL_BindShader
	add	esp, 4

; 1386 : 
; 1387 : 	GL_ValidateProgram( shader );

	mov	eax, DWORD PTR _shader$[ebp]
	push	eax
	call	?GL_ValidateProgram@@YAXPAUglsl_prog_s@@@Z ; GL_ValidateProgram
	add	esp, 4

; 1388 : 	GL_ShowProgramUniforms( shader );

	mov	eax, DWORD PTR _shader$[ebp]
	push	eax
	call	?GL_ShowProgramUniforms@@YAXPAUglsl_prog_s@@@Z ; GL_ShowProgramUniforms
	add	esp, 4

; 1389 : }

	pop	edi
	pop	esi
	pop	ebx
	mov	esp, ebp
	pop	ebp
	ret	0
?GL_InitGenExposureUniforms@@YAXPAUglsl_prog_s@@@Z ENDP	; GL_InitGenExposureUniforms
_TEXT	ENDS
; Function compile flags: /Odtp /ZI
; File d:\!diffusion 2020\source code 2022\client-server\client\render\r_shader.cpp
;	COMDAT ?GL_InitGenLuminanceUniforms@@YAXPAUglsl_prog_s@@@Z
_TEXT	SEGMENT
_shader$ = 8						; size = 4
?GL_InitGenLuminanceUniforms@@YAXPAUglsl_prog_s@@@Z PROC ; GL_InitGenLuminanceUniforms, COMDAT

; 1359 : {

	push	ebp
	mov	ebp, esp
	sub	esp, 64					; 00000040H
	push	ebx
	push	esi
	push	edi

; 1360 : 	ASSERT( shader != NULL );

	cmp	DWORD PTR _shader$[ebp], 0
	jne	SHORT $LN2@GL_InitGen
	mov	eax, DWORD PTR ?__LINE__Var@?0??GL_InitGenLuminanceUniforms@@YAXPAUglsl_prog_s@@@Z@4JA
	add	eax, 1
	push	eax
	push	OFFSET ??_C@_0EN@DPFBEFBL@d?3?2?$CBdiffusion?52020?2source?5code?52@
	push	OFFSET ??_C@_0BI@FECCGOFJ@assert?5failed?5at?5?$CFs?3?$CFi?6?$AA@
	call	DWORD PTR ?gRenderfuncs@@3Urender_api_s@@A+236
	add	esp, 12					; 0000000cH
$LN2@GL_InitGen:

; 1361 : 
; 1362 : 	shader->u_ScreenMap = pglGetUniformLocationARB( shader->handle, "u_ScreenMap" );

	push	OFFSET ??_C@_0M@KCNMJMNH@u_ScreenMap?$AA@
	mov	eax, DWORD PTR _shader$[ebp]
	mov	ecx, DWORD PTR [eax+576]
	push	ecx
	call	DWORD PTR ?pglGetUniformLocationARB@@3P6GHIPBD@ZA ; pglGetUniformLocationARB
	mov	edx, DWORD PTR _shader$[ebp]
	mov	DWORD PTR [edx+632], eax

; 1363 : 	shader->u_ScreenSizeInv = pglGetUniformLocationARB( shader->handle, "u_ScreenSizeInv" );

	push	OFFSET ??_C@_0BA@CNHIBBKL@u_ScreenSizeInv?$AA@
	mov	eax, DWORD PTR _shader$[ebp]
	mov	ecx, DWORD PTR [eax+576]
	push	ecx
	call	DWORD PTR ?pglGetUniformLocationARB@@3P6GHIPBD@ZA ; pglGetUniformLocationARB
	mov	edx, DWORD PTR _shader$[ebp]
	mov	DWORD PTR [edx+724], eax

; 1364 : 
; 1365 : 	GL_BindShader( shader );

	mov	eax, DWORD PTR _shader$[ebp]
	push	eax
	call	?GL_BindShader@@YAXPAUglsl_prog_s@@@Z	; GL_BindShader
	add	esp, 4

; 1366 : 	pglUniform1iARB( shader->u_ScreenMap, GL_TEXTURE0 );

	push	0
	mov	eax, DWORD PTR _shader$[ebp]
	mov	ecx, DWORD PTR [eax+632]
	push	ecx
	call	DWORD PTR ?pglUniform1iARB@@3P6GXHH@ZA	; pglUniform1iARB

; 1367 : 	GL_BindShader( GL_NONE );

	push	0
	call	?GL_BindShader@@YAXPAUglsl_prog_s@@@Z	; GL_BindShader
	add	esp, 4

; 1368 : 
; 1369 : 	GL_ValidateProgram( shader );

	mov	eax, DWORD PTR _shader$[ebp]
	push	eax
	call	?GL_ValidateProgram@@YAXPAUglsl_prog_s@@@Z ; GL_ValidateProgram
	add	esp, 4

; 1370 : 	GL_ShowProgramUniforms( shader );

	mov	eax, DWORD PTR _shader$[ebp]
	push	eax
	call	?GL_ShowProgramUniforms@@YAXPAUglsl_prog_s@@@Z ; GL_ShowProgramUniforms
	add	esp, 4

; 1371 : }

	pop	edi
	pop	esi
	pop	ebx
	mov	esp, ebp
	pop	ebp
	ret	0
?GL_InitGenLuminanceUniforms@@YAXPAUglsl_prog_s@@@Z ENDP ; GL_InitGenLuminanceUniforms
_TEXT	ENDS
; Function compile flags: /Odtp /ZI
; File d:\!diffusion 2020\source code 2022\client-server\client\render\r_shader.cpp
;	COMDAT ?GL_InitTonemapUniforms@@YAXPAUglsl_prog_s@@@Z
_TEXT	SEGMENT
_shader$ = 8						; size = 4
?GL_InitTonemapUniforms@@YAXPAUglsl_prog_s@@@Z PROC	; GL_InitTonemapUniforms, COMDAT

; 1341 : {

	push	ebp
	mov	ebp, esp
	sub	esp, 64					; 00000040H
	push	ebx
	push	esi
	push	edi

; 1342 : 	ASSERT( shader != NULL );

	cmp	DWORD PTR _shader$[ebp], 0
	jne	SHORT $LN2@GL_InitTon
	mov	eax, DWORD PTR ?__LINE__Var@?0??GL_InitTonemapUniforms@@YAXPAUglsl_prog_s@@@Z@4JA
	add	eax, 1
	push	eax
	push	OFFSET ??_C@_0EN@DPFBEFBL@d?3?2?$CBdiffusion?52020?2source?5code?52@
	push	OFFSET ??_C@_0BI@FECCGOFJ@assert?5failed?5at?5?$CFs?3?$CFi?6?$AA@
	call	DWORD PTR ?gRenderfuncs@@3Urender_api_s@@A+236
	add	esp, 12					; 0000000cH
$LN2@GL_InitTon:

; 1343 : 
; 1344 : 	shader->u_ScreenMap = pglGetUniformLocationARB( shader->handle, "u_ScreenMap" );

	push	OFFSET ??_C@_0M@KCNMJMNH@u_ScreenMap?$AA@
	mov	eax, DWORD PTR _shader$[ebp]
	mov	ecx, DWORD PTR [eax+576]
	push	ecx
	call	DWORD PTR ?pglGetUniformLocationARB@@3P6GHIPBD@ZA ; pglGetUniformLocationARB
	mov	edx, DWORD PTR _shader$[ebp]
	mov	DWORD PTR [edx+632], eax

; 1345 : 	shader->u_HDRExposure = pglGetUniformLocationARB( shader->handle, "u_HDRExposure" );

	push	OFFSET ??_C@_0O@NAHLAMOG@u_HDRExposure?$AA@
	mov	eax, DWORD PTR _shader$[ebp]
	mov	ecx, DWORD PTR [eax+576]
	push	ecx
	call	DWORD PTR ?pglGetUniformLocationARB@@3P6GHIPBD@ZA ; pglGetUniformLocationARB
	mov	edx, DWORD PTR _shader$[ebp]
	mov	DWORD PTR [edx+968], eax

; 1346 : 	shader->u_ScreenSizeInv = pglGetUniformLocationARB( shader->handle, "u_ScreenSizeInv" );

	push	OFFSET ??_C@_0BA@CNHIBBKL@u_ScreenSizeInv?$AA@
	mov	eax, DWORD PTR _shader$[ebp]
	mov	ecx, DWORD PTR [eax+576]
	push	ecx
	call	DWORD PTR ?pglGetUniformLocationARB@@3P6GHIPBD@ZA ; pglGetUniformLocationARB
	mov	edx, DWORD PTR _shader$[ebp]
	mov	DWORD PTR [edx+724], eax

; 1347 : 	shader->u_MipLod = pglGetUniformLocationARB( shader->handle, "u_MipLod" );

	push	OFFSET ??_C@_08EPOJODHO@u_MipLod?$AA@
	mov	eax, DWORD PTR _shader$[ebp]
	mov	ecx, DWORD PTR [eax+576]
	push	ecx
	call	DWORD PTR ?pglGetUniformLocationARB@@3P6GHIPBD@ZA ; pglGetUniformLocationARB
	mov	edx, DWORD PTR _shader$[ebp]
	mov	DWORD PTR [edx+952], eax

; 1348 : 
; 1349 : 	GL_BindShader( shader );

	mov	eax, DWORD PTR _shader$[ebp]
	push	eax
	call	?GL_BindShader@@YAXPAUglsl_prog_s@@@Z	; GL_BindShader
	add	esp, 4

; 1350 : 	pglUniform1iARB( shader->u_ScreenMap, GL_TEXTURE0 );

	push	0
	mov	eax, DWORD PTR _shader$[ebp]
	mov	ecx, DWORD PTR [eax+632]
	push	ecx
	call	DWORD PTR ?pglUniform1iARB@@3P6GXHH@ZA	; pglUniform1iARB

; 1351 : 	pglUniform1iARB( shader->u_HDRExposure, GL_TEXTURE1 );

	push	1
	mov	eax, DWORD PTR _shader$[ebp]
	mov	ecx, DWORD PTR [eax+968]
	push	ecx
	call	DWORD PTR ?pglUniform1iARB@@3P6GXHH@ZA	; pglUniform1iARB

; 1352 : 	GL_BindShader( GL_NONE );

	push	0
	call	?GL_BindShader@@YAXPAUglsl_prog_s@@@Z	; GL_BindShader
	add	esp, 4

; 1353 : 
; 1354 : 	GL_ValidateProgram( shader );

	mov	eax, DWORD PTR _shader$[ebp]
	push	eax
	call	?GL_ValidateProgram@@YAXPAUglsl_prog_s@@@Z ; GL_ValidateProgram
	add	esp, 4

; 1355 : 	GL_ShowProgramUniforms( shader );

	mov	eax, DWORD PTR _shader$[ebp]
	push	eax
	call	?GL_ShowProgramUniforms@@YAXPAUglsl_prog_s@@@Z ; GL_ShowProgramUniforms
	add	esp, 4

; 1356 : }

	pop	edi
	pop	esi
	pop	ebx
	mov	esp, ebp
	pop	ebp
	ret	0
?GL_InitTonemapUniforms@@YAXPAUglsl_prog_s@@@Z ENDP	; GL_InitTonemapUniforms
_TEXT	ENDS
; Function compile flags: /Odtp /ZI
; File d:\!diffusion 2020\source code 2022\client-server\client\render\r_shader.cpp
;	COMDAT ?GL_InitBloomUniforms@@YAXPAUglsl_prog_s@@@Z
_TEXT	SEGMENT
_shader$ = 8						; size = 4
?GL_InitBloomUniforms@@YAXPAUglsl_prog_s@@@Z PROC	; GL_InitBloomUniforms, COMDAT

; 1325 : {

	push	ebp
	mov	ebp, esp
	sub	esp, 64					; 00000040H
	push	ebx
	push	esi
	push	edi

; 1326 : 	ASSERT( shader != NULL );

	cmp	DWORD PTR _shader$[ebp], 0
	jne	SHORT $LN2@GL_InitBlo
	mov	eax, DWORD PTR ?__LINE__Var@?0??GL_InitBloomUniforms@@YAXPAUglsl_prog_s@@@Z@4JA
	add	eax, 1
	push	eax
	push	OFFSET ??_C@_0EN@DPFBEFBL@d?3?2?$CBdiffusion?52020?2source?5code?52@
	push	OFFSET ??_C@_0BI@FECCGOFJ@assert?5failed?5at?5?$CFs?3?$CFi?6?$AA@
	call	DWORD PTR ?gRenderfuncs@@3Urender_api_s@@A+236
	add	esp, 12					; 0000000cH
$LN2@GL_InitBlo:

; 1327 : 
; 1328 : 	shader->u_ScreenMap = pglGetUniformLocationARB( shader->handle, "u_ScreenMap" );

	push	OFFSET ??_C@_0M@KCNMJMNH@u_ScreenMap?$AA@
	mov	eax, DWORD PTR _shader$[ebp]
	mov	ecx, DWORD PTR [eax+576]
	push	ecx
	call	DWORD PTR ?pglGetUniformLocationARB@@3P6GHIPBD@ZA ; pglGetUniformLocationARB
	mov	edx, DWORD PTR _shader$[ebp]
	mov	DWORD PTR [edx+632], eax

; 1329 : 	shader->u_ScreenSizeInv = pglGetUniformLocationARB( shader->handle, "u_ScreenSizeInv" );

	push	OFFSET ??_C@_0BA@CNHIBBKL@u_ScreenSizeInv?$AA@
	mov	eax, DWORD PTR _shader$[ebp]
	mov	ecx, DWORD PTR [eax+576]
	push	ecx
	call	DWORD PTR ?pglGetUniformLocationARB@@3P6GHIPBD@ZA ; pglGetUniformLocationARB
	mov	edx, DWORD PTR _shader$[ebp]
	mov	DWORD PTR [edx+724], eax

; 1330 : 
; 1331 : 	GL_BindShader( shader );

	mov	eax, DWORD PTR _shader$[ebp]
	push	eax
	call	?GL_BindShader@@YAXPAUglsl_prog_s@@@Z	; GL_BindShader
	add	esp, 4

; 1332 : 	pglUniform1iARB( shader->u_ScreenMap, GL_TEXTURE0 );

	push	0
	mov	eax, DWORD PTR _shader$[ebp]
	mov	ecx, DWORD PTR [eax+632]
	push	ecx
	call	DWORD PTR ?pglUniform1iARB@@3P6GXHH@ZA	; pglUniform1iARB

; 1333 : 	GL_BindShader( GL_NONE );

	push	0
	call	?GL_BindShader@@YAXPAUglsl_prog_s@@@Z	; GL_BindShader
	add	esp, 4

; 1334 : 
; 1335 : 	GL_ValidateProgram( shader );

	mov	eax, DWORD PTR _shader$[ebp]
	push	eax
	call	?GL_ValidateProgram@@YAXPAUglsl_prog_s@@@Z ; GL_ValidateProgram
	add	esp, 4

; 1336 : 	GL_ShowProgramUniforms( shader );

	mov	eax, DWORD PTR _shader$[ebp]
	push	eax
	call	?GL_ShowProgramUniforms@@YAXPAUglsl_prog_s@@@Z ; GL_ShowProgramUniforms
	add	esp, 4

; 1337 : }

	pop	edi
	pop	esi
	pop	ebx
	mov	esp, ebp
	pop	ebp
	ret	0
?GL_InitBloomUniforms@@YAXPAUglsl_prog_s@@@Z ENDP	; GL_InitBloomUniforms
_TEXT	ENDS
; Function compile flags: /Odtp /ZI
; File d:\!diffusion 2020\source code 2022\client-server\client\render\r_shader.cpp
;	COMDAT ?GL_InitEnhanceUniforms@@YAXPAUglsl_prog_s@@@Z
_TEXT	SEGMENT
_shader$ = 8						; size = 4
?GL_InitEnhanceUniforms@@YAXPAUglsl_prog_s@@@Z PROC	; GL_InitEnhanceUniforms, COMDAT

; 1308 : {

	push	ebp
	mov	ebp, esp
	sub	esp, 64					; 00000040H
	push	ebx
	push	esi
	push	edi

; 1309 : 	ASSERT( shader != NULL );

	cmp	DWORD PTR _shader$[ebp], 0
	jne	SHORT $LN2@GL_InitEnh
	mov	eax, DWORD PTR ?__LINE__Var@?0??GL_InitEnhanceUniforms@@YAXPAUglsl_prog_s@@@Z@4JA
	add	eax, 1
	push	eax
	push	OFFSET ??_C@_0EN@DPFBEFBL@d?3?2?$CBdiffusion?52020?2source?5code?52@
	push	OFFSET ??_C@_0BI@FECCGOFJ@assert?5failed?5at?5?$CFs?3?$CFi?6?$AA@
	call	DWORD PTR ?gRenderfuncs@@3Urender_api_s@@A+236
	add	esp, 12					; 0000000cH
$LN2@GL_InitEnh:

; 1310 : 
; 1311 : 	shader->u_ColorMap = pglGetUniformLocationARB( shader->handle, "u_ColorMap" );

	push	OFFSET ??_C@_0L@IEDEJAAC@u_ColorMap?$AA@
	mov	eax, DWORD PTR _shader$[ebp]
	mov	ecx, DWORD PTR [eax+576]
	push	ecx
	call	DWORD PTR ?pglGetUniformLocationARB@@3P6GHIPBD@ZA ; pglGetUniformLocationARB
	mov	edx, DWORD PTR _shader$[ebp]
	mov	DWORD PTR [edx+588], eax

; 1312 : 	shader->u_ScreenSizeInv = pglGetUniformLocationARB( shader->handle, "u_ScreenSizeInv" );

	push	OFFSET ??_C@_0BA@CNHIBBKL@u_ScreenSizeInv?$AA@
	mov	eax, DWORD PTR _shader$[ebp]
	mov	ecx, DWORD PTR [eax+576]
	push	ecx
	call	DWORD PTR ?pglGetUniformLocationARB@@3P6GHIPBD@ZA ; pglGetUniformLocationARB
	mov	edx, DWORD PTR _shader$[ebp]
	mov	DWORD PTR [edx+724], eax

; 1313 : 	shader->u_GenericCondition = pglGetUniformLocationARB( shader->handle, "u_GenericCondition" );

	push	OFFSET ??_C@_0BD@KPMFEKBG@u_GenericCondition?$AA@
	mov	eax, DWORD PTR _shader$[ebp]
	mov	ecx, DWORD PTR [eax+576]
	push	ecx
	call	DWORD PTR ?pglGetUniformLocationARB@@3P6GHIPBD@ZA ; pglGetUniformLocationARB
	mov	edx, DWORD PTR _shader$[ebp]
	mov	DWORD PTR [edx+704], eax

; 1314 : 	shader->u_GenericCondition2 = pglGetUniformLocationARB( shader->handle, "u_GenericCondition2" );

	push	OFFSET ??_C@_0BE@BJALCEGK@u_GenericCondition2?$AA@
	mov	eax, DWORD PTR _shader$[ebp]
	mov	ecx, DWORD PTR [eax+576]
	push	ecx
	call	DWORD PTR ?pglGetUniformLocationARB@@3P6GHIPBD@ZA ; pglGetUniformLocationARB
	mov	edx, DWORD PTR _shader$[ebp]
	mov	DWORD PTR [edx+708], eax

; 1315 : 
; 1316 : 	GL_BindShader( shader );

	mov	eax, DWORD PTR _shader$[ebp]
	push	eax
	call	?GL_BindShader@@YAXPAUglsl_prog_s@@@Z	; GL_BindShader
	add	esp, 4

; 1317 : 	pglUniform1iARB( shader->u_ColorMap, GL_TEXTURE0 );

	push	0
	mov	eax, DWORD PTR _shader$[ebp]
	mov	ecx, DWORD PTR [eax+588]
	push	ecx
	call	DWORD PTR ?pglUniform1iARB@@3P6GXHH@ZA	; pglUniform1iARB

; 1318 : 	GL_BindShader( GL_NONE );

	push	0
	call	?GL_BindShader@@YAXPAUglsl_prog_s@@@Z	; GL_BindShader
	add	esp, 4

; 1319 : 
; 1320 : 	GL_ValidateProgram( shader );

	mov	eax, DWORD PTR _shader$[ebp]
	push	eax
	call	?GL_ValidateProgram@@YAXPAUglsl_prog_s@@@Z ; GL_ValidateProgram
	add	esp, 4

; 1321 : 	GL_ShowProgramUniforms( shader );

	mov	eax, DWORD PTR _shader$[ebp]
	push	eax
	call	?GL_ShowProgramUniforms@@YAXPAUglsl_prog_s@@@Z ; GL_ShowProgramUniforms
	add	esp, 4

; 1322 : }

	pop	edi
	pop	esi
	pop	ebx
	mov	esp, ebp
	pop	ebp
	ret	0
?GL_InitEnhanceUniforms@@YAXPAUglsl_prog_s@@@Z ENDP	; GL_InitEnhanceUniforms
_TEXT	ENDS
; Function compile flags: /Odtp /ZI
; File d:\!diffusion 2020\source code 2022\client-server\client\render\r_shader.cpp
;	COMDAT ?GL_InitMonochromeUniforms@@YAXPAUglsl_prog_s@@@Z
_TEXT	SEGMENT
_shader$ = 8						; size = 4
?GL_InitMonochromeUniforms@@YAXPAUglsl_prog_s@@@Z PROC	; GL_InitMonochromeUniforms, COMDAT

; 1293 : {

	push	ebp
	mov	ebp, esp
	sub	esp, 64					; 00000040H
	push	ebx
	push	esi
	push	edi

; 1294 : 	ASSERT( shader != NULL );

	cmp	DWORD PTR _shader$[ebp], 0
	jne	SHORT $LN2@GL_InitMon
	mov	eax, DWORD PTR ?__LINE__Var@?0??GL_InitMonochromeUniforms@@YAXPAUglsl_prog_s@@@Z@4JA
	add	eax, 1
	push	eax
	push	OFFSET ??_C@_0EN@DPFBEFBL@d?3?2?$CBdiffusion?52020?2source?5code?52@
	push	OFFSET ??_C@_0BI@FECCGOFJ@assert?5failed?5at?5?$CFs?3?$CFi?6?$AA@
	call	DWORD PTR ?gRenderfuncs@@3Urender_api_s@@A+236
	add	esp, 12					; 0000000cH
$LN2@GL_InitMon:

; 1295 : 
; 1296 : 	shader->u_ColorMap = pglGetUniformLocationARB( shader->handle, "u_ColorMap" );

	push	OFFSET ??_C@_0L@IEDEJAAC@u_ColorMap?$AA@
	mov	eax, DWORD PTR _shader$[ebp]
	mov	ecx, DWORD PTR [eax+576]
	push	ecx
	call	DWORD PTR ?pglGetUniformLocationARB@@3P6GHIPBD@ZA ; pglGetUniformLocationARB
	mov	edx, DWORD PTR _shader$[ebp]
	mov	DWORD PTR [edx+588], eax

; 1297 : 	shader->u_Accum = pglGetUniformLocationARB( shader->handle, "u_Accum" );

	push	OFFSET ??_C@_07BKJMBFNE@u_Accum?$AA@
	mov	eax, DWORD PTR _shader$[ebp]
	mov	ecx, DWORD PTR [eax+576]
	push	ecx
	call	DWORD PTR ?pglGetUniformLocationARB@@3P6GHIPBD@ZA ; pglGetUniformLocationARB
	mov	edx, DWORD PTR _shader$[ebp]
	mov	DWORD PTR [edx+932], eax

; 1298 : 
; 1299 : 	GL_BindShader( shader );

	mov	eax, DWORD PTR _shader$[ebp]
	push	eax
	call	?GL_BindShader@@YAXPAUglsl_prog_s@@@Z	; GL_BindShader
	add	esp, 4

; 1300 : 	pglUniform1iARB( shader->u_ColorMap, GL_TEXTURE0 );

	push	0
	mov	eax, DWORD PTR _shader$[ebp]
	mov	ecx, DWORD PTR [eax+588]
	push	ecx
	call	DWORD PTR ?pglUniform1iARB@@3P6GXHH@ZA	; pglUniform1iARB

; 1301 : 	GL_BindShader( GL_NONE );

	push	0
	call	?GL_BindShader@@YAXPAUglsl_prog_s@@@Z	; GL_BindShader
	add	esp, 4

; 1302 : 
; 1303 : 	GL_ValidateProgram( shader );

	mov	eax, DWORD PTR _shader$[ebp]
	push	eax
	call	?GL_ValidateProgram@@YAXPAUglsl_prog_s@@@Z ; GL_ValidateProgram
	add	esp, 4

; 1304 : 	GL_ShowProgramUniforms( shader );

	mov	eax, DWORD PTR _shader$[ebp]
	push	eax
	call	?GL_ShowProgramUniforms@@YAXPAUglsl_prog_s@@@Z ; GL_ShowProgramUniforms
	add	esp, 4

; 1305 : }

	pop	edi
	pop	esi
	pop	ebx
	mov	esp, ebp
	pop	ebp
	ret	0
?GL_InitMonochromeUniforms@@YAXPAUglsl_prog_s@@@Z ENDP	; GL_InitMonochromeUniforms
_TEXT	ENDS
; Function compile flags: /Odtp /ZI
; File d:\!diffusion 2020\source code 2022\client-server\client\render\r_shader.cpp
;	COMDAT ?GL_InitHorizontalBlurUniforms@@YAXPAUglsl_prog_s@@@Z
_TEXT	SEGMENT
_shader$ = 8						; size = 4
?GL_InitHorizontalBlurUniforms@@YAXPAUglsl_prog_s@@@Z PROC ; GL_InitHorizontalBlurUniforms, COMDAT

; 1277 : {

	push	ebp
	mov	ebp, esp
	sub	esp, 64					; 00000040H
	push	ebx
	push	esi
	push	edi

; 1278 : 	ASSERT( shader != NULL );

	cmp	DWORD PTR _shader$[ebp], 0
	jne	SHORT $LN2@GL_InitHor
	mov	eax, DWORD PTR ?__LINE__Var@?0??GL_InitHorizontalBlurUniforms@@YAXPAUglsl_prog_s@@@Z@4JA
	add	eax, 1
	push	eax
	push	OFFSET ??_C@_0EN@DPFBEFBL@d?3?2?$CBdiffusion?52020?2source?5code?52@
	push	OFFSET ??_C@_0BI@FECCGOFJ@assert?5failed?5at?5?$CFs?3?$CFi?6?$AA@
	call	DWORD PTR ?gRenderfuncs@@3Urender_api_s@@A+236
	add	esp, 12					; 0000000cH
$LN2@GL_InitHor:

; 1279 : 
; 1280 : 	shader->u_ColorMap = pglGetUniformLocationARB( shader->handle, "u_ColorMap" );

	push	OFFSET ??_C@_0L@IEDEJAAC@u_ColorMap?$AA@
	mov	eax, DWORD PTR _shader$[ebp]
	mov	ecx, DWORD PTR [eax+576]
	push	ecx
	call	DWORD PTR ?pglGetUniformLocationARB@@3P6GHIPBD@ZA ; pglGetUniformLocationARB
	mov	edx, DWORD PTR _shader$[ebp]
	mov	DWORD PTR [edx+588], eax

; 1281 : 	shader->u_MB_Velocity = pglGetUniformLocationARB( shader->handle, "u_MB_Velocity" );

	push	OFFSET ??_C@_0O@BPMLMILL@u_MB_Velocity?$AA@
	mov	eax, DWORD PTR _shader$[ebp]
	mov	ecx, DWORD PTR [eax+576]
	push	ecx
	call	DWORD PTR ?pglGetUniformLocationARB@@3P6GHIPBD@ZA ; pglGetUniformLocationARB
	mov	edx, DWORD PTR _shader$[ebp]
	mov	DWORD PTR [edx+936], eax

; 1282 : 	shader->u_Accum = pglGetUniformLocationARB( shader->handle, "u_Accum" );

	push	OFFSET ??_C@_07BKJMBFNE@u_Accum?$AA@
	mov	eax, DWORD PTR _shader$[ebp]
	mov	ecx, DWORD PTR [eax+576]
	push	ecx
	call	DWORD PTR ?pglGetUniformLocationARB@@3P6GHIPBD@ZA ; pglGetUniformLocationARB
	mov	edx, DWORD PTR _shader$[ebp]
	mov	DWORD PTR [edx+932], eax

; 1283 : 
; 1284 : 	GL_BindShader( shader );

	mov	eax, DWORD PTR _shader$[ebp]
	push	eax
	call	?GL_BindShader@@YAXPAUglsl_prog_s@@@Z	; GL_BindShader
	add	esp, 4

; 1285 : 	pglUniform1iARB( shader->u_ColorMap, GL_TEXTURE0 );

	push	0
	mov	eax, DWORD PTR _shader$[ebp]
	mov	ecx, DWORD PTR [eax+588]
	push	ecx
	call	DWORD PTR ?pglUniform1iARB@@3P6GXHH@ZA	; pglUniform1iARB

; 1286 : 	GL_BindShader( GL_NONE );

	push	0
	call	?GL_BindShader@@YAXPAUglsl_prog_s@@@Z	; GL_BindShader
	add	esp, 4

; 1287 : 
; 1288 : 	GL_ValidateProgram( shader );

	mov	eax, DWORD PTR _shader$[ebp]
	push	eax
	call	?GL_ValidateProgram@@YAXPAUglsl_prog_s@@@Z ; GL_ValidateProgram
	add	esp, 4

; 1289 : 	GL_ShowProgramUniforms( shader );

	mov	eax, DWORD PTR _shader$[ebp]
	push	eax
	call	?GL_ShowProgramUniforms@@YAXPAUglsl_prog_s@@@Z ; GL_ShowProgramUniforms
	add	esp, 4

; 1290 : }

	pop	edi
	pop	esi
	pop	ebx
	mov	esp, ebp
	pop	ebp
	ret	0
?GL_InitHorizontalBlurUniforms@@YAXPAUglsl_prog_s@@@Z ENDP ; GL_InitHorizontalBlurUniforms
_TEXT	ENDS
; Function compile flags: /Odtp /ZI
; File d:\!diffusion 2020\source code 2022\client-server\client\render\r_shader.cpp
;	COMDAT ?GL_InitMotionBlurUniforms@@YAXPAUglsl_prog_s@@@Z
_TEXT	SEGMENT
_shader$ = 8						; size = 4
?GL_InitMotionBlurUniforms@@YAXPAUglsl_prog_s@@@Z PROC	; GL_InitMotionBlurUniforms, COMDAT

; 1258 : {

	push	ebp
	mov	ebp, esp
	sub	esp, 64					; 00000040H
	push	ebx
	push	esi
	push	edi

; 1259 : 	ASSERT( shader != NULL );

	cmp	DWORD PTR _shader$[ebp], 0
	jne	SHORT $LN2@GL_InitMot
	mov	eax, DWORD PTR ?__LINE__Var@?0??GL_InitMotionBlurUniforms@@YAXPAUglsl_prog_s@@@Z@4JA
	add	eax, 1
	push	eax
	push	OFFSET ??_C@_0EN@DPFBEFBL@d?3?2?$CBdiffusion?52020?2source?5code?52@
	push	OFFSET ??_C@_0BI@FECCGOFJ@assert?5failed?5at?5?$CFs?3?$CFi?6?$AA@
	call	DWORD PTR ?gRenderfuncs@@3Urender_api_s@@A+236
	add	esp, 12					; 0000000cH
$LN2@GL_InitMot:

; 1260 : 
; 1261 : 	shader->u_ColorMap = pglGetUniformLocationARB( shader->handle, "u_ColorMap" );

	push	OFFSET ??_C@_0L@IEDEJAAC@u_ColorMap?$AA@
	mov	eax, DWORD PTR _shader$[ebp]
	mov	ecx, DWORD PTR [eax+576]
	push	ecx
	call	DWORD PTR ?pglGetUniformLocationARB@@3P6GHIPBD@ZA ; pglGetUniformLocationARB
	mov	edx, DWORD PTR _shader$[ebp]
	mov	DWORD PTR [edx+588], eax

; 1262 : 	shader->u_DepthMap = pglGetUniformLocationARB( shader->handle, "u_DepthMap" );

	push	OFFSET ??_C@_0L@JCKKGKMC@u_DepthMap?$AA@
	mov	eax, DWORD PTR _shader$[ebp]
	mov	ecx, DWORD PTR [eax+576]
	push	ecx
	call	DWORD PTR ?pglGetUniformLocationARB@@3P6GHIPBD@ZA ; pglGetUniformLocationARB
	mov	edx, DWORD PTR _shader$[ebp]
	mov	DWORD PTR [edx+592], eax

; 1263 : 
; 1264 : 	shader->u_MB_Velocity = pglGetUniformLocationARB( shader->handle, "u_MB_Velocity" );

	push	OFFSET ??_C@_0O@BPMLMILL@u_MB_Velocity?$AA@
	mov	eax, DWORD PTR _shader$[ebp]
	mov	ecx, DWORD PTR [eax+576]
	push	ecx
	call	DWORD PTR ?pglGetUniformLocationARB@@3P6GHIPBD@ZA ; pglGetUniformLocationARB
	mov	edx, DWORD PTR _shader$[ebp]
	mov	DWORD PTR [edx+936], eax

; 1265 : 	shader->u_LightDiffuse = pglGetUniformLocationARB( shader->handle, "u_LightDiffuse" );

	push	OFFSET ??_C@_0P@IBMOHOLF@u_LightDiffuse?$AA@
	mov	eax, DWORD PTR _shader$[ebp]
	mov	ecx, DWORD PTR [eax+576]
	push	ecx
	call	DWORD PTR ?pglGetUniformLocationARB@@3P6GHIPBD@ZA ; pglGetUniformLocationARB
	mov	edx, DWORD PTR _shader$[ebp]
	mov	DWORD PTR [edx+760], eax

; 1266 : 	shader->u_Accum = pglGetUniformLocationARB( shader->handle, "u_Accum" );

	push	OFFSET ??_C@_07BKJMBFNE@u_Accum?$AA@
	mov	eax, DWORD PTR _shader$[ebp]
	mov	ecx, DWORD PTR [eax+576]
	push	ecx
	call	DWORD PTR ?pglGetUniformLocationARB@@3P6GHIPBD@ZA ; pglGetUniformLocationARB
	mov	edx, DWORD PTR _shader$[ebp]
	mov	DWORD PTR [edx+932], eax

; 1267 : 
; 1268 : 	GL_BindShader( shader );

	mov	eax, DWORD PTR _shader$[ebp]
	push	eax
	call	?GL_BindShader@@YAXPAUglsl_prog_s@@@Z	; GL_BindShader
	add	esp, 4

; 1269 : 	pglUniform1iARB( shader->u_ColorMap, GL_TEXTURE0 );

	push	0
	mov	eax, DWORD PTR _shader$[ebp]
	mov	ecx, DWORD PTR [eax+588]
	push	ecx
	call	DWORD PTR ?pglUniform1iARB@@3P6GXHH@ZA	; pglUniform1iARB

; 1270 : 	GL_BindShader( GL_NONE );

	push	0
	call	?GL_BindShader@@YAXPAUglsl_prog_s@@@Z	; GL_BindShader
	add	esp, 4

; 1271 : 
; 1272 : 	GL_ValidateProgram( shader );

	mov	eax, DWORD PTR _shader$[ebp]
	push	eax
	call	?GL_ValidateProgram@@YAXPAUglsl_prog_s@@@Z ; GL_ValidateProgram
	add	esp, 4

; 1273 : 	GL_ShowProgramUniforms( shader );

	mov	eax, DWORD PTR _shader$[ebp]
	push	eax
	call	?GL_ShowProgramUniforms@@YAXPAUglsl_prog_s@@@Z ; GL_ShowProgramUniforms
	add	esp, 4

; 1274 : }

	pop	edi
	pop	esi
	pop	ebx
	mov	esp, ebp
	pop	ebp
	ret	0
?GL_InitMotionBlurUniforms@@YAXPAUglsl_prog_s@@@Z ENDP	; GL_InitMotionBlurUniforms
_TEXT	ENDS
; Function compile flags: /Odtp /ZI
; File d:\!diffusion 2020\source code 2022\client-server\client\render\r_shader.cpp
;	COMDAT ?GL_InitDrawSSAOUniforms@@YAXPAUglsl_prog_s@@@Z
_TEXT	SEGMENT
_shader$ = 8						; size = 4
?GL_InitDrawSSAOUniforms@@YAXPAUglsl_prog_s@@@Z PROC	; GL_InitDrawSSAOUniforms, COMDAT

; 1241 : {

	push	ebp
	mov	ebp, esp
	sub	esp, 64					; 00000040H
	push	ebx
	push	esi
	push	edi

; 1242 : 	ASSERT( shader != NULL );

	cmp	DWORD PTR _shader$[ebp], 0
	jne	SHORT $LN2@GL_InitDra
	mov	eax, DWORD PTR ?__LINE__Var@?0??GL_InitDrawSSAOUniforms@@YAXPAUglsl_prog_s@@@Z@4JA
	add	eax, 1
	push	eax
	push	OFFSET ??_C@_0EN@DPFBEFBL@d?3?2?$CBdiffusion?52020?2source?5code?52@
	push	OFFSET ??_C@_0BI@FECCGOFJ@assert?5failed?5at?5?$CFs?3?$CFi?6?$AA@
	call	DWORD PTR ?gRenderfuncs@@3Urender_api_s@@A+236
	add	esp, 12					; 0000000cH
$LN2@GL_InitDra:

; 1243 : 
; 1244 : 	shader->u_ScreenMap = pglGetUniformLocationARB( shader->handle, "u_ScreenMap" );

	push	OFFSET ??_C@_0M@KCNMJMNH@u_ScreenMap?$AA@
	mov	eax, DWORD PTR _shader$[ebp]
	mov	ecx, DWORD PTR [eax+576]
	push	ecx
	call	DWORD PTR ?pglGetUniformLocationARB@@3P6GHIPBD@ZA ; pglGetUniformLocationARB
	mov	edx, DWORD PTR _shader$[ebp]
	mov	DWORD PTR [edx+632], eax

; 1245 : 	shader->u_AOMap = pglGetUniformLocationARB( shader->handle, "u_AOMap" );

	push	OFFSET ??_C@_07LKADGIGM@u_AOMap?$AA@
	mov	eax, DWORD PTR _shader$[ebp]
	mov	ecx, DWORD PTR [eax+576]
	push	ecx
	call	DWORD PTR ?pglGetUniformLocationARB@@3P6GHIPBD@ZA ; pglGetUniformLocationARB
	mov	edx, DWORD PTR _shader$[ebp]
	mov	DWORD PTR [edx+944], eax

; 1246 : 	shader->u_GenericCondition = pglGetUniformLocationARB( shader->handle, "u_GenericCondition" );

	push	OFFSET ??_C@_0BD@KPMFEKBG@u_GenericCondition?$AA@
	mov	eax, DWORD PTR _shader$[ebp]
	mov	ecx, DWORD PTR [eax+576]
	push	ecx
	call	DWORD PTR ?pglGetUniformLocationARB@@3P6GHIPBD@ZA ; pglGetUniformLocationARB
	mov	edx, DWORD PTR _shader$[ebp]
	mov	DWORD PTR [edx+704], eax

; 1247 : 
; 1248 : 	GL_BindShader( shader );

	mov	eax, DWORD PTR _shader$[ebp]
	push	eax
	call	?GL_BindShader@@YAXPAUglsl_prog_s@@@Z	; GL_BindShader
	add	esp, 4

; 1249 : 	pglUniform1iARB( shader->u_ScreenMap, GL_TEXTURE0 );

	push	0
	mov	eax, DWORD PTR _shader$[ebp]
	mov	ecx, DWORD PTR [eax+632]
	push	ecx
	call	DWORD PTR ?pglUniform1iARB@@3P6GXHH@ZA	; pglUniform1iARB

; 1250 : 	pglUniform1iARB( shader->u_AOMap, GL_TEXTURE1 );

	push	1
	mov	eax, DWORD PTR _shader$[ebp]
	mov	ecx, DWORD PTR [eax+944]
	push	ecx
	call	DWORD PTR ?pglUniform1iARB@@3P6GXHH@ZA	; pglUniform1iARB

; 1251 : 	GL_BindShader( GL_NONE );

	push	0
	call	?GL_BindShader@@YAXPAUglsl_prog_s@@@Z	; GL_BindShader
	add	esp, 4

; 1252 : 
; 1253 : 	GL_ValidateProgram( shader );

	mov	eax, DWORD PTR _shader$[ebp]
	push	eax
	call	?GL_ValidateProgram@@YAXPAUglsl_prog_s@@@Z ; GL_ValidateProgram
	add	esp, 4

; 1254 : 	GL_ShowProgramUniforms( shader );

	mov	eax, DWORD PTR _shader$[ebp]
	push	eax
	call	?GL_ShowProgramUniforms@@YAXPAUglsl_prog_s@@@Z ; GL_ShowProgramUniforms
	add	esp, 4

; 1255 : }

	pop	edi
	pop	esi
	pop	ebx
	mov	esp, ebp
	pop	ebp
	ret	0
?GL_InitDrawSSAOUniforms@@YAXPAUglsl_prog_s@@@Z ENDP	; GL_InitDrawSSAOUniforms
_TEXT	ENDS
; Function compile flags: /Odtp /ZI
; File d:\!diffusion 2020\source code 2022\client-server\client\render\r_shader.cpp
;	COMDAT ?GL_InitGenSSAOUniforms@@YAXPAUglsl_prog_s@@@Z
_TEXT	SEGMENT
_shader$ = 8						; size = 4
?GL_InitGenSSAOUniforms@@YAXPAUglsl_prog_s@@@Z PROC	; GL_InitGenSSAOUniforms, COMDAT

; 1224 : {

	push	ebp
	mov	ebp, esp
	sub	esp, 64					; 00000040H
	push	ebx
	push	esi
	push	edi

; 1225 : 	ASSERT( shader != NULL );

	cmp	DWORD PTR _shader$[ebp], 0
	jne	SHORT $LN2@GL_InitGen
	mov	eax, DWORD PTR ?__LINE__Var@?0??GL_InitGenSSAOUniforms@@YAXPAUglsl_prog_s@@@Z@4JA
	add	eax, 1
	push	eax
	push	OFFSET ??_C@_0EN@DPFBEFBL@d?3?2?$CBdiffusion?52020?2source?5code?52@
	push	OFFSET ??_C@_0BI@FECCGOFJ@assert?5failed?5at?5?$CFs?3?$CFi?6?$AA@
	call	DWORD PTR ?gRenderfuncs@@3Urender_api_s@@A+236
	add	esp, 12					; 0000000cH
$LN2@GL_InitGen:

; 1226 : 
; 1227 : 	shader->u_DepthMap = pglGetUniformLocationARB( shader->handle, "u_DepthMap" );

	push	OFFSET ??_C@_0L@JCKKGKMC@u_DepthMap?$AA@
	mov	eax, DWORD PTR _shader$[ebp]
	mov	ecx, DWORD PTR [eax+576]
	push	ecx
	call	DWORD PTR ?pglGetUniformLocationARB@@3P6GHIPBD@ZA ; pglGetUniformLocationARB
	mov	edx, DWORD PTR _shader$[ebp]
	mov	DWORD PTR [edx+592], eax

; 1228 : 	shader->u_RotateMap = pglGetUniformLocationARB( shader->handle, "u_RotateMap" );

	push	OFFSET ??_C@_0M@CGFAMJEG@u_RotateMap?$AA@
	mov	eax, DWORD PTR _shader$[ebp]
	mov	ecx, DWORD PTR [eax+576]
	push	ecx
	call	DWORD PTR ?pglGetUniformLocationARB@@3P6GHIPBD@ZA ; pglGetUniformLocationARB
	mov	edx, DWORD PTR _shader$[ebp]
	mov	DWORD PTR [edx+948], eax

; 1229 : 	shader->u_zFar = pglGetUniformLocationARB( shader->handle, "u_zFar" );

	push	OFFSET ??_C@_06HIBKCAMD@u_zFar?$AA@
	mov	eax, DWORD PTR _shader$[ebp]
	mov	ecx, DWORD PTR [eax+576]
	push	ecx
	call	DWORD PTR ?pglGetUniformLocationARB@@3P6GHIPBD@ZA ; pglGetUniformLocationARB
	mov	edx, DWORD PTR _shader$[ebp]
	mov	DWORD PTR [edx+728], eax

; 1230 : 
; 1231 : 	GL_BindShader( shader );

	mov	eax, DWORD PTR _shader$[ebp]
	push	eax
	call	?GL_BindShader@@YAXPAUglsl_prog_s@@@Z	; GL_BindShader
	add	esp, 4

; 1232 : 	pglUniform1iARB( shader->u_DepthMap, GL_TEXTURE0 );

	push	0
	mov	eax, DWORD PTR _shader$[ebp]
	mov	ecx, DWORD PTR [eax+592]
	push	ecx
	call	DWORD PTR ?pglUniform1iARB@@3P6GXHH@ZA	; pglUniform1iARB

; 1233 : 	pglUniform1iARB( shader->u_RotateMap, GL_TEXTURE1 );

	push	1
	mov	eax, DWORD PTR _shader$[ebp]
	mov	ecx, DWORD PTR [eax+948]
	push	ecx
	call	DWORD PTR ?pglUniform1iARB@@3P6GXHH@ZA	; pglUniform1iARB

; 1234 : 	GL_BindShader( GL_NONE );

	push	0
	call	?GL_BindShader@@YAXPAUglsl_prog_s@@@Z	; GL_BindShader
	add	esp, 4

; 1235 : 
; 1236 : 	GL_ValidateProgram( shader );

	mov	eax, DWORD PTR _shader$[ebp]
	push	eax
	call	?GL_ValidateProgram@@YAXPAUglsl_prog_s@@@Z ; GL_ValidateProgram
	add	esp, 4

; 1237 : 	GL_ShowProgramUniforms( shader );

	mov	eax, DWORD PTR _shader$[ebp]
	push	eax
	call	?GL_ShowProgramUniforms@@YAXPAUglsl_prog_s@@@Z ; GL_ShowProgramUniforms
	add	esp, 4

; 1238 : }

	pop	edi
	pop	esi
	pop	ebx
	mov	esp, ebp
	pop	ebp
	ret	0
?GL_InitGenSSAOUniforms@@YAXPAUglsl_prog_s@@@Z ENDP	; GL_InitGenSSAOUniforms
_TEXT	ENDS
; Function compile flags: /Odtp /ZI
; File d:\!diffusion 2020\source code 2022\client-server\client\render\r_shader.cpp
;	COMDAT ?GL_InitDrawShaftsUniforms@@YAXPAUglsl_prog_s@@@Z
_TEXT	SEGMENT
_shader$ = 8						; size = 4
?GL_InitDrawShaftsUniforms@@YAXPAUglsl_prog_s@@@Z PROC	; GL_InitDrawShaftsUniforms, COMDAT

; 1202 : {

	push	ebp
	mov	ebp, esp
	sub	esp, 64					; 00000040H
	push	ebx
	push	esi
	push	edi

; 1203 : 	ASSERT( shader != NULL );

	cmp	DWORD PTR _shader$[ebp], 0
	jne	SHORT $LN2@GL_InitDra
	mov	eax, DWORD PTR ?__LINE__Var@?0??GL_InitDrawShaftsUniforms@@YAXPAUglsl_prog_s@@@Z@4JA
	add	eax, 1
	push	eax
	push	OFFSET ??_C@_0EN@DPFBEFBL@d?3?2?$CBdiffusion?52020?2source?5code?52@
	push	OFFSET ??_C@_0BI@FECCGOFJ@assert?5failed?5at?5?$CFs?3?$CFi?6?$AA@
	call	DWORD PTR ?gRenderfuncs@@3Urender_api_s@@A+236
	add	esp, 12					; 0000000cH
$LN2@GL_InitDra:

; 1204 : 
; 1205 : 	shader->u_ColorMap = pglGetUniformLocationARB( shader->handle, "u_ColorMap" );

	push	OFFSET ??_C@_0L@IEDEJAAC@u_ColorMap?$AA@
	mov	eax, DWORD PTR _shader$[ebp]
	mov	ecx, DWORD PTR [eax+576]
	push	ecx
	call	DWORD PTR ?pglGetUniformLocationARB@@3P6GHIPBD@ZA ; pglGetUniformLocationARB
	mov	edx, DWORD PTR _shader$[ebp]
	mov	DWORD PTR [edx+588], eax

; 1206 : 	shader->u_DepthMap = pglGetUniformLocationARB( shader->handle, "u_DepthMap" );

	push	OFFSET ??_C@_0L@JCKKGKMC@u_DepthMap?$AA@
	mov	eax, DWORD PTR _shader$[ebp]
	mov	ecx, DWORD PTR [eax+576]
	push	ecx
	call	DWORD PTR ?pglGetUniformLocationARB@@3P6GHIPBD@ZA ; pglGetUniformLocationARB
	mov	edx, DWORD PTR _shader$[ebp]
	mov	DWORD PTR [edx+592], eax

; 1207 : 	shader->u_ScreenMap = pglGetUniformLocationARB( shader->handle, "u_ScreenMap" );

	push	OFFSET ??_C@_0M@KCNMJMNH@u_ScreenMap?$AA@
	mov	eax, DWORD PTR _shader$[ebp]
	mov	ecx, DWORD PTR [eax+576]
	push	ecx
	call	DWORD PTR ?pglGetUniformLocationARB@@3P6GHIPBD@ZA ; pglGetUniformLocationARB
	mov	edx, DWORD PTR _shader$[ebp]
	mov	DWORD PTR [edx+632], eax

; 1208 : 
; 1209 : 	shader->u_LightOrigin = pglGetUniformLocationARB( shader->handle, "u_LightOrigin" );

	push	OFFSET ??_C@_0O@PGBKINBN@u_LightOrigin?$AA@
	mov	eax, DWORD PTR _shader$[ebp]
	mov	ecx, DWORD PTR [eax+576]
	push	ecx
	call	DWORD PTR ?pglGetUniformLocationARB@@3P6GHIPBD@ZA ; pglGetUniformLocationARB
	mov	edx, DWORD PTR _shader$[ebp]
	mov	DWORD PTR [edx+792], eax

; 1210 : 	shader->u_LightDiffuse = pglGetUniformLocationARB( shader->handle, "u_LightDiffuse" );

	push	OFFSET ??_C@_0P@IBMOHOLF@u_LightDiffuse?$AA@
	mov	eax, DWORD PTR _shader$[ebp]
	mov	ecx, DWORD PTR [eax+576]
	push	ecx
	call	DWORD PTR ?pglGetUniformLocationARB@@3P6GHIPBD@ZA ; pglGetUniformLocationARB
	mov	edx, DWORD PTR _shader$[ebp]
	mov	DWORD PTR [edx+760], eax

; 1211 : 	shader->u_SS_Brightness = pglGetUniformLocationARB( shader->handle, "u_SS_Brightness" );

	push	OFFSET ??_C@_0BA@MLGMJJCM@u_SS_Brightness?$AA@
	mov	eax, DWORD PTR _shader$[ebp]
	mov	ecx, DWORD PTR [eax+576]
	push	ecx
	call	DWORD PTR ?pglGetUniformLocationARB@@3P6GHIPBD@ZA ; pglGetUniformLocationARB
	mov	edx, DWORD PTR _shader$[ebp]
	mov	DWORD PTR [edx+940], eax

; 1212 : 
; 1213 : 	GL_BindShader( shader );

	mov	eax, DWORD PTR _shader$[ebp]
	push	eax
	call	?GL_BindShader@@YAXPAUglsl_prog_s@@@Z	; GL_BindShader
	add	esp, 4

; 1214 : 	pglUniform1iARB( shader->u_ScreenMap, GL_TEXTURE0 );

	push	0
	mov	eax, DWORD PTR _shader$[ebp]
	mov	ecx, DWORD PTR [eax+632]
	push	ecx
	call	DWORD PTR ?pglUniform1iARB@@3P6GXHH@ZA	; pglUniform1iARB

; 1215 : 	pglUniform1iARB( shader->u_ColorMap, GL_TEXTURE1 );

	push	1
	mov	eax, DWORD PTR _shader$[ebp]
	mov	ecx, DWORD PTR [eax+588]
	push	ecx
	call	DWORD PTR ?pglUniform1iARB@@3P6GXHH@ZA	; pglUniform1iARB

; 1216 : 	pglUniform1iARB( shader->u_DepthMap, GL_TEXTURE2 );

	push	2
	mov	eax, DWORD PTR _shader$[ebp]
	mov	ecx, DWORD PTR [eax+592]
	push	ecx
	call	DWORD PTR ?pglUniform1iARB@@3P6GXHH@ZA	; pglUniform1iARB

; 1217 : 	GL_BindShader( GL_NONE );

	push	0
	call	?GL_BindShader@@YAXPAUglsl_prog_s@@@Z	; GL_BindShader
	add	esp, 4

; 1218 : 
; 1219 : 	GL_ValidateProgram( shader );

	mov	eax, DWORD PTR _shader$[ebp]
	push	eax
	call	?GL_ValidateProgram@@YAXPAUglsl_prog_s@@@Z ; GL_ValidateProgram
	add	esp, 4

; 1220 : 	GL_ShowProgramUniforms( shader );

	mov	eax, DWORD PTR _shader$[ebp]
	push	eax
	call	?GL_ShowProgramUniforms@@YAXPAUglsl_prog_s@@@Z ; GL_ShowProgramUniforms
	add	esp, 4

; 1221 : }

	pop	edi
	pop	esi
	pop	ebx
	mov	esp, ebp
	pop	ebp
	ret	0
?GL_InitDrawShaftsUniforms@@YAXPAUglsl_prog_s@@@Z ENDP	; GL_InitDrawShaftsUniforms
_TEXT	ENDS
; Function compile flags: /Odtp /ZI
; File d:\!diffusion 2020\source code 2022\client-server\client\render\r_shader.cpp
;	COMDAT ?GL_InitGenShaftsUniforms@@YAXPAUglsl_prog_s@@@Z
_TEXT	SEGMENT
_shader$ = 8						; size = 4
?GL_InitGenShaftsUniforms@@YAXPAUglsl_prog_s@@@Z PROC	; GL_InitGenShaftsUniforms, COMDAT

; 1185 : {

	push	ebp
	mov	ebp, esp
	sub	esp, 64					; 00000040H
	push	ebx
	push	esi
	push	edi

; 1186 : 	ASSERT( shader != NULL );

	cmp	DWORD PTR _shader$[ebp], 0
	jne	SHORT $LN2@GL_InitGen
	mov	eax, DWORD PTR ?__LINE__Var@?0??GL_InitGenShaftsUniforms@@YAXPAUglsl_prog_s@@@Z@4JA
	add	eax, 1
	push	eax
	push	OFFSET ??_C@_0EN@DPFBEFBL@d?3?2?$CBdiffusion?52020?2source?5code?52@
	push	OFFSET ??_C@_0BI@FECCGOFJ@assert?5failed?5at?5?$CFs?3?$CFi?6?$AA@
	call	DWORD PTR ?gRenderfuncs@@3Urender_api_s@@A+236
	add	esp, 12					; 0000000cH
$LN2@GL_InitGen:

; 1187 : 
; 1188 : 	shader->u_DepthMap = pglGetUniformLocationARB( shader->handle, "u_DepthMap" );

	push	OFFSET ??_C@_0L@JCKKGKMC@u_DepthMap?$AA@
	mov	eax, DWORD PTR _shader$[ebp]
	mov	ecx, DWORD PTR [eax+576]
	push	ecx
	call	DWORD PTR ?pglGetUniformLocationARB@@3P6GHIPBD@ZA ; pglGetUniformLocationARB
	mov	edx, DWORD PTR _shader$[ebp]
	mov	DWORD PTR [edx+592], eax

; 1189 : 	shader->u_ScreenMap = pglGetUniformLocationARB( shader->handle, "u_ScreenMap" );

	push	OFFSET ??_C@_0M@KCNMJMNH@u_ScreenMap?$AA@
	mov	eax, DWORD PTR _shader$[ebp]
	mov	ecx, DWORD PTR [eax+576]
	push	ecx
	call	DWORD PTR ?pglGetUniformLocationARB@@3P6GHIPBD@ZA ; pglGetUniformLocationARB
	mov	edx, DWORD PTR _shader$[ebp]
	mov	DWORD PTR [edx+632], eax

; 1190 : 	shader->u_zFar = pglGetUniformLocationARB( shader->handle, "u_zFar" );

	push	OFFSET ??_C@_06HIBKCAMD@u_zFar?$AA@
	mov	eax, DWORD PTR _shader$[ebp]
	mov	ecx, DWORD PTR [eax+576]
	push	ecx
	call	DWORD PTR ?pglGetUniformLocationARB@@3P6GHIPBD@ZA ; pglGetUniformLocationARB
	mov	edx, DWORD PTR _shader$[ebp]
	mov	DWORD PTR [edx+728], eax

; 1191 : 
; 1192 : 	GL_BindShader( shader );

	mov	eax, DWORD PTR _shader$[ebp]
	push	eax
	call	?GL_BindShader@@YAXPAUglsl_prog_s@@@Z	; GL_BindShader
	add	esp, 4

; 1193 : 	pglUniform1iARB( shader->u_DepthMap, GL_TEXTURE0 );

	push	0
	mov	eax, DWORD PTR _shader$[ebp]
	mov	ecx, DWORD PTR [eax+592]
	push	ecx
	call	DWORD PTR ?pglUniform1iARB@@3P6GXHH@ZA	; pglUniform1iARB

; 1194 : 	pglUniform1iARB( shader->u_ScreenMap, GL_TEXTURE1 );

	push	1
	mov	eax, DWORD PTR _shader$[ebp]
	mov	ecx, DWORD PTR [eax+632]
	push	ecx
	call	DWORD PTR ?pglUniform1iARB@@3P6GXHH@ZA	; pglUniform1iARB

; 1195 : 	GL_BindShader( GL_NONE );

	push	0
	call	?GL_BindShader@@YAXPAUglsl_prog_s@@@Z	; GL_BindShader
	add	esp, 4

; 1196 : 
; 1197 : 	GL_ValidateProgram( shader );

	mov	eax, DWORD PTR _shader$[ebp]
	push	eax
	call	?GL_ValidateProgram@@YAXPAUglsl_prog_s@@@Z ; GL_ValidateProgram
	add	esp, 4

; 1198 : 	GL_ShowProgramUniforms( shader );

	mov	eax, DWORD PTR _shader$[ebp]
	push	eax
	call	?GL_ShowProgramUniforms@@YAXPAUglsl_prog_s@@@Z ; GL_ShowProgramUniforms
	add	esp, 4

; 1199 : }

	pop	edi
	pop	esi
	pop	ebx
	mov	esp, ebp
	pop	ebp
	ret	0
?GL_InitGenShaftsUniforms@@YAXPAUglsl_prog_s@@@Z ENDP	; GL_InitGenShaftsUniforms
_TEXT	ENDS
; Function compile flags: /Odtp /ZI
; File d:\!diffusion 2020\source code 2022\client-server\client\render\r_shader.cpp
;	COMDAT ?GL_InitGenericFogUniforms@@YAXPAUglsl_prog_s@@@Z
_TEXT	SEGMENT
_shader$ = 8						; size = 4
?GL_InitGenericFogUniforms@@YAXPAUglsl_prog_s@@@Z PROC	; GL_InitGenericFogUniforms, COMDAT

; 1169 : {

	push	ebp
	mov	ebp, esp
	sub	esp, 64					; 00000040H
	push	ebx
	push	esi
	push	edi

; 1170 : 	ASSERT( shader != NULL );

	cmp	DWORD PTR _shader$[ebp], 0
	jne	SHORT $LN2@GL_InitGen
	mov	eax, DWORD PTR ?__LINE__Var@?0??GL_InitGenericFogUniforms@@YAXPAUglsl_prog_s@@@Z@4JA
	add	eax, 1
	push	eax
	push	OFFSET ??_C@_0EN@DPFBEFBL@d?3?2?$CBdiffusion?52020?2source?5code?52@
	push	OFFSET ??_C@_0BI@FECCGOFJ@assert?5failed?5at?5?$CFs?3?$CFi?6?$AA@
	call	DWORD PTR ?gRenderfuncs@@3Urender_api_s@@A+236
	add	esp, 12					; 0000000cH
$LN2@GL_InitGen:

; 1171 : 
; 1172 : 	shader->u_ColorMap = pglGetUniformLocationARB( shader->handle, "u_ColorMap" );

	push	OFFSET ??_C@_0L@IEDEJAAC@u_ColorMap?$AA@
	mov	eax, DWORD PTR _shader$[ebp]
	mov	ecx, DWORD PTR [eax+576]
	push	ecx
	call	DWORD PTR ?pglGetUniformLocationARB@@3P6GHIPBD@ZA ; pglGetUniformLocationARB
	mov	edx, DWORD PTR _shader$[ebp]
	mov	DWORD PTR [edx+588], eax

; 1173 : 
; 1174 : 	shader->u_FogParams = pglGetUniformLocationARB( shader->handle, "u_FogParams" );

	push	OFFSET ??_C@_0M@LNDNBCGB@u_FogParams?$AA@
	mov	eax, DWORD PTR _shader$[ebp]
	mov	ecx, DWORD PTR [eax+576]
	push	ecx
	call	DWORD PTR ?pglGetUniformLocationARB@@3P6GHIPBD@ZA ; pglGetUniformLocationARB
	mov	edx, DWORD PTR _shader$[ebp]
	mov	DWORD PTR [edx+788], eax

; 1175 : 
; 1176 : 	GL_BindShader( shader );

	mov	eax, DWORD PTR _shader$[ebp]
	push	eax
	call	?GL_BindShader@@YAXPAUglsl_prog_s@@@Z	; GL_BindShader
	add	esp, 4

; 1177 : 	pglUniform1iARB( shader->u_ColorMap, GL_TEXTURE0 );

	push	0
	mov	eax, DWORD PTR _shader$[ebp]
	mov	ecx, DWORD PTR [eax+588]
	push	ecx
	call	DWORD PTR ?pglUniform1iARB@@3P6GXHH@ZA	; pglUniform1iARB

; 1178 : 	GL_BindShader( GL_NONE );

	push	0
	call	?GL_BindShader@@YAXPAUglsl_prog_s@@@Z	; GL_BindShader
	add	esp, 4

; 1179 : 
; 1180 : 	GL_ValidateProgram( shader );

	mov	eax, DWORD PTR _shader$[ebp]
	push	eax
	call	?GL_ValidateProgram@@YAXPAUglsl_prog_s@@@Z ; GL_ValidateProgram
	add	esp, 4

; 1181 : 	GL_ShowProgramUniforms( shader );

	mov	eax, DWORD PTR _shader$[ebp]
	push	eax
	call	?GL_ShowProgramUniforms@@YAXPAUglsl_prog_s@@@Z ; GL_ShowProgramUniforms
	add	esp, 4

; 1182 : }

	pop	edi
	pop	esi
	pop	ebx
	mov	esp, ebp
	pop	ebp
	ret	0
?GL_InitGenericFogUniforms@@YAXPAUglsl_prog_s@@@Z ENDP	; GL_InitGenericFogUniforms
_TEXT	ENDS
; Function compile flags: /Odtp /ZI
; File d:\!diffusion 2020\source code 2022\client-server\client\render\r_shader.cpp
;	COMDAT ?GL_InitPostProcessUniforms@@YAXPAUglsl_prog_s@@@Z
_TEXT	SEGMENT
_shader$ = 8						; size = 4
?GL_InitPostProcessUniforms@@YAXPAUglsl_prog_s@@@Z PROC	; GL_InitPostProcessUniforms, COMDAT

; 1154 : {

	push	ebp
	mov	ebp, esp
	sub	esp, 64					; 00000040H
	push	ebx
	push	esi
	push	edi

; 1155 : 	ASSERT( shader != NULL );

	cmp	DWORD PTR _shader$[ebp], 0
	jne	SHORT $LN2@GL_InitPos
	mov	eax, DWORD PTR ?__LINE__Var@?0??GL_InitPostProcessUniforms@@YAXPAUglsl_prog_s@@@Z@4JA
	add	eax, 1
	push	eax
	push	OFFSET ??_C@_0EN@DPFBEFBL@d?3?2?$CBdiffusion?52020?2source?5code?52@
	push	OFFSET ??_C@_0BI@FECCGOFJ@assert?5failed?5at?5?$CFs?3?$CFi?6?$AA@
	call	DWORD PTR ?gRenderfuncs@@3Urender_api_s@@A+236
	add	esp, 12					; 0000000cH
$LN2@GL_InitPos:

; 1156 : 
; 1157 : 	shader->u_BlurFactor = pglGetUniformLocationARB( shader->handle, "u_BlurFactor" );

	push	OFFSET ??_C@_0N@IIDPNGLD@u_BlurFactor?$AA@
	mov	eax, DWORD PTR _shader$[ebp]
	mov	ecx, DWORD PTR [eax+576]
	push	ecx
	call	DWORD PTR ?pglGetUniformLocationARB@@3P6GHIPBD@ZA ; pglGetUniformLocationARB
	mov	edx, DWORD PTR _shader$[ebp]
	mov	DWORD PTR [edx+712], eax

; 1158 : 	shader->u_ScreenMap = pglGetUniformLocationARB( shader->handle, "u_ScreenMap" );

	push	OFFSET ??_C@_0M@KCNMJMNH@u_ScreenMap?$AA@
	mov	eax, DWORD PTR _shader$[ebp]
	mov	ecx, DWORD PTR [eax+576]
	push	ecx
	call	DWORD PTR ?pglGetUniformLocationARB@@3P6GHIPBD@ZA ; pglGetUniformLocationARB
	mov	edx, DWORD PTR _shader$[ebp]
	mov	DWORD PTR [edx+632], eax

; 1159 : 
; 1160 : 	GL_BindShader( shader );

	mov	eax, DWORD PTR _shader$[ebp]
	push	eax
	call	?GL_BindShader@@YAXPAUglsl_prog_s@@@Z	; GL_BindShader
	add	esp, 4

; 1161 : 	pglUniform1iARB( shader->u_ScreenMap, GL_TEXTURE0 );

	push	0
	mov	eax, DWORD PTR _shader$[ebp]
	mov	ecx, DWORD PTR [eax+632]
	push	ecx
	call	DWORD PTR ?pglUniform1iARB@@3P6GXHH@ZA	; pglUniform1iARB

; 1162 : 	GL_BindShader( GL_NONE );

	push	0
	call	?GL_BindShader@@YAXPAUglsl_prog_s@@@Z	; GL_BindShader
	add	esp, 4

; 1163 : 
; 1164 : 	GL_ValidateProgram( shader );

	mov	eax, DWORD PTR _shader$[ebp]
	push	eax
	call	?GL_ValidateProgram@@YAXPAUglsl_prog_s@@@Z ; GL_ValidateProgram
	add	esp, 4

; 1165 : 	GL_ShowProgramUniforms( shader );

	mov	eax, DWORD PTR _shader$[ebp]
	push	eax
	call	?GL_ShowProgramUniforms@@YAXPAUglsl_prog_s@@@Z ; GL_ShowProgramUniforms
	add	esp, 4

; 1166 : }

	pop	edi
	pop	esi
	pop	ebx
	mov	esp, ebp
	pop	ebp
	ret	0
?GL_InitPostProcessUniforms@@YAXPAUglsl_prog_s@@@Z ENDP	; GL_InitPostProcessUniforms
_TEXT	ENDS
; Function compile flags: /Odtp /ZI
; File d:\!diffusion 2020\source code 2022\client-server\client\render\r_shader.cpp
;	COMDAT ?GL_InitSkyBoxUniforms@@YAXPAUglsl_prog_s@@@Z
_TEXT	SEGMENT
_shader$ = 8						; size = 4
?GL_InitSkyBoxUniforms@@YAXPAUglsl_prog_s@@@Z PROC	; GL_InitSkyBoxUniforms, COMDAT

; 1134 : {

	push	ebp
	mov	ebp, esp
	sub	esp, 64					; 00000040H
	push	ebx
	push	esi
	push	edi

; 1135 : 	ASSERT( shader != NULL );

	cmp	DWORD PTR _shader$[ebp], 0
	jne	SHORT $LN2@GL_InitSky
	mov	eax, DWORD PTR ?__LINE__Var@?0??GL_InitSkyBoxUniforms@@YAXPAUglsl_prog_s@@@Z@4JA
	add	eax, 1
	push	eax
	push	OFFSET ??_C@_0EN@DPFBEFBL@d?3?2?$CBdiffusion?52020?2source?5code?52@
	push	OFFSET ??_C@_0BI@FECCGOFJ@assert?5failed?5at?5?$CFs?3?$CFi?6?$AA@
	call	DWORD PTR ?gRenderfuncs@@3Urender_api_s@@A+236
	add	esp, 12					; 0000000cH
$LN2@GL_InitSky:

; 1136 : 
; 1137 : 	shader->u_ColorMap = pglGetUniformLocationARB( shader->handle, "u_ColorMap" );

	push	OFFSET ??_C@_0L@IEDEJAAC@u_ColorMap?$AA@
	mov	eax, DWORD PTR _shader$[ebp]
	mov	ecx, DWORD PTR [eax+576]
	push	ecx
	call	DWORD PTR ?pglGetUniformLocationARB@@3P6GHIPBD@ZA ; pglGetUniformLocationARB
	mov	edx, DWORD PTR _shader$[ebp]
	mov	DWORD PTR [edx+588], eax

; 1138 : 
; 1139 : 	shader->u_LightDir = pglGetUniformLocationARB( shader->handle, "u_LightDir" );

	push	OFFSET ??_C@_0L@EMINLLAG@u_LightDir?$AA@
	mov	eax, DWORD PTR _shader$[ebp]
	mov	ecx, DWORD PTR [eax+576]
	push	ecx
	call	DWORD PTR ?pglGetUniformLocationARB@@3P6GHIPBD@ZA ; pglGetUniformLocationARB
	mov	edx, DWORD PTR _shader$[ebp]
	mov	DWORD PTR [edx+744], eax

; 1140 : 	shader->u_LightDiffuse = pglGetUniformLocationARB( shader->handle, "u_LightDiffuse" );

	push	OFFSET ??_C@_0P@IBMOHOLF@u_LightDiffuse?$AA@
	mov	eax, DWORD PTR _shader$[ebp]
	mov	ecx, DWORD PTR [eax+576]
	push	ecx
	call	DWORD PTR ?pglGetUniformLocationARB@@3P6GHIPBD@ZA ; pglGetUniformLocationARB
	mov	edx, DWORD PTR _shader$[ebp]
	mov	DWORD PTR [edx+760], eax

; 1141 : 	shader->u_ViewOrigin = pglGetUniformLocationARB( shader->handle, "u_ViewOrigin" );

	push	OFFSET ??_C@_0N@GOCFBCHC@u_ViewOrigin?$AA@
	mov	eax, DWORD PTR _shader$[ebp]
	mov	ecx, DWORD PTR [eax+576]
	push	ecx
	call	DWORD PTR ?pglGetUniformLocationARB@@3P6GHIPBD@ZA ; pglGetUniformLocationARB
	mov	edx, DWORD PTR _shader$[ebp]
	mov	DWORD PTR [edx+800], eax

; 1142 : 	shader->u_FogParams = pglGetUniformLocationARB( shader->handle, "u_FogParams" );

	push	OFFSET ??_C@_0M@LNDNBCGB@u_FogParams?$AA@
	mov	eax, DWORD PTR _shader$[ebp]
	mov	ecx, DWORD PTR [eax+576]
	push	ecx
	call	DWORD PTR ?pglGetUniformLocationARB@@3P6GHIPBD@ZA ; pglGetUniformLocationARB
	mov	edx, DWORD PTR _shader$[ebp]
	mov	DWORD PTR [edx+788], eax

; 1143 : 	shader->u_GenericCondition = pglGetUniformLocationARB( shader->handle, "u_GenericCondition" );

	push	OFFSET ??_C@_0BD@KPMFEKBG@u_GenericCondition?$AA@
	mov	eax, DWORD PTR _shader$[ebp]
	mov	ecx, DWORD PTR [eax+576]
	push	ecx
	call	DWORD PTR ?pglGetUniformLocationARB@@3P6GHIPBD@ZA ; pglGetUniformLocationARB
	mov	edx, DWORD PTR _shader$[ebp]
	mov	DWORD PTR [edx+704], eax

; 1144 : 
; 1145 : 	GL_BindShader( shader );

	mov	eax, DWORD PTR _shader$[ebp]
	push	eax
	call	?GL_BindShader@@YAXPAUglsl_prog_s@@@Z	; GL_BindShader
	add	esp, 4

; 1146 : 	pglUniform1iARB( shader->u_ColorMap, GL_TEXTURE0 );

	push	0
	mov	eax, DWORD PTR _shader$[ebp]
	mov	ecx, DWORD PTR [eax+588]
	push	ecx
	call	DWORD PTR ?pglUniform1iARB@@3P6GXHH@ZA	; pglUniform1iARB

; 1147 : 	GL_BindShader( GL_NONE );

	push	0
	call	?GL_BindShader@@YAXPAUglsl_prog_s@@@Z	; GL_BindShader
	add	esp, 4

; 1148 : 
; 1149 : 	GL_ValidateProgram( shader );

	mov	eax, DWORD PTR _shader$[ebp]
	push	eax
	call	?GL_ValidateProgram@@YAXPAUglsl_prog_s@@@Z ; GL_ValidateProgram
	add	esp, 4

; 1150 : 	GL_ShowProgramUniforms( shader );

	mov	eax, DWORD PTR _shader$[ebp]
	push	eax
	call	?GL_ShowProgramUniforms@@YAXPAUglsl_prog_s@@@Z ; GL_ShowProgramUniforms
	add	esp, 4

; 1151 : }

	pop	edi
	pop	esi
	pop	ebx
	mov	esp, ebp
	pop	ebp
	ret	0
?GL_InitSkyBoxUniforms@@YAXPAUglsl_prog_s@@@Z ENDP	; GL_InitSkyBoxUniforms
_TEXT	ENDS
; Function compile flags: /Odtp /ZI
; File d:\!diffusion 2020\source code 2022\client-server\client\render\r_shader.cpp
;	COMDAT ?GL_InitStudioDecalUniforms@@YAXPAUglsl_prog_s@@@Z
_TEXT	SEGMENT
_shader$ = 8						; size = 4
?GL_InitStudioDecalUniforms@@YAXPAUglsl_prog_s@@@Z PROC	; GL_InitStudioDecalUniforms, COMDAT

; 1117 : {

	push	ebp
	mov	ebp, esp
	sub	esp, 64					; 00000040H
	push	ebx
	push	esi
	push	edi

; 1118 : 	ASSERT( shader != NULL );

	cmp	DWORD PTR _shader$[ebp], 0
	jne	SHORT $LN2@GL_InitStu
	mov	eax, DWORD PTR ?__LINE__Var@?0??GL_InitStudioDecalUniforms@@YAXPAUglsl_prog_s@@@Z@4JA
	add	eax, 1
	push	eax
	push	OFFSET ??_C@_0EN@DPFBEFBL@d?3?2?$CBdiffusion?52020?2source?5code?52@
	push	OFFSET ??_C@_0BI@FECCGOFJ@assert?5failed?5at?5?$CFs?3?$CFi?6?$AA@
	call	DWORD PTR ?gRenderfuncs@@3Urender_api_s@@A+236
	add	esp, 12					; 0000000cH
$LN2@GL_InitStu:

; 1119 : 
; 1120 : 	shader->u_DecalMap = pglGetUniformLocationARB( shader->handle, "u_DecalMap" );

	push	OFFSET ??_C@_0L@GCAHNJHJ@u_DecalMap?$AA@
	mov	eax, DWORD PTR _shader$[ebp]
	mov	ecx, DWORD PTR [eax+576]
	push	ecx
	call	DWORD PTR ?pglGetUniformLocationARB@@3P6GHIPBD@ZA ; pglGetUniformLocationARB
	mov	edx, DWORD PTR _shader$[ebp]
	mov	DWORD PTR [edx+628], eax

; 1121 : 	shader->u_ColorMap = pglGetUniformLocationARB( shader->handle, "u_ColorMap" );

	push	OFFSET ??_C@_0L@IEDEJAAC@u_ColorMap?$AA@
	mov	eax, DWORD PTR _shader$[ebp]
	mov	ecx, DWORD PTR [eax+576]
	push	ecx
	call	DWORD PTR ?pglGetUniformLocationARB@@3P6GHIPBD@ZA ; pglGetUniformLocationARB
	mov	edx, DWORD PTR _shader$[ebp]
	mov	DWORD PTR [edx+588], eax

; 1122 : 	shader->u_FogParams = pglGetUniformLocationARB( shader->handle, "u_FogParams" );

	push	OFFSET ??_C@_0M@LNDNBCGB@u_FogParams?$AA@
	mov	eax, DWORD PTR _shader$[ebp]
	mov	ecx, DWORD PTR [eax+576]
	push	ecx
	call	DWORD PTR ?pglGetUniformLocationARB@@3P6GHIPBD@ZA ; pglGetUniformLocationARB
	mov	edx, DWORD PTR _shader$[ebp]
	mov	DWORD PTR [edx+788], eax

; 1123 : 
; 1124 : 	GL_BindShader( shader );

	mov	eax, DWORD PTR _shader$[ebp]
	push	eax
	call	?GL_BindShader@@YAXPAUglsl_prog_s@@@Z	; GL_BindShader
	add	esp, 4

; 1125 : 	pglUniform1iARB( shader->u_DecalMap, GL_TEXTURE0 );

	push	0
	mov	eax, DWORD PTR _shader$[ebp]
	mov	ecx, DWORD PTR [eax+628]
	push	ecx
	call	DWORD PTR ?pglUniform1iARB@@3P6GXHH@ZA	; pglUniform1iARB

; 1126 : 	pglUniform1iARB( shader->u_ColorMap, GL_TEXTURE1 );

	push	1
	mov	eax, DWORD PTR _shader$[ebp]
	mov	ecx, DWORD PTR [eax+588]
	push	ecx
	call	DWORD PTR ?pglUniform1iARB@@3P6GXHH@ZA	; pglUniform1iARB

; 1127 : 	GL_BindShader( GL_NONE );

	push	0
	call	?GL_BindShader@@YAXPAUglsl_prog_s@@@Z	; GL_BindShader
	add	esp, 4

; 1128 : 
; 1129 : 	GL_ValidateProgram( shader );

	mov	eax, DWORD PTR _shader$[ebp]
	push	eax
	call	?GL_ValidateProgram@@YAXPAUglsl_prog_s@@@Z ; GL_ValidateProgram
	add	esp, 4

; 1130 : 	GL_ShowProgramUniforms( shader );

	mov	eax, DWORD PTR _shader$[ebp]
	push	eax
	call	?GL_ShowProgramUniforms@@YAXPAUglsl_prog_s@@@Z ; GL_ShowProgramUniforms
	add	esp, 4

; 1131 : }

	pop	edi
	pop	esi
	pop	ebx
	mov	esp, ebp
	pop	ebp
	ret	0
?GL_InitStudioDecalUniforms@@YAXPAUglsl_prog_s@@@Z ENDP	; GL_InitStudioDecalUniforms
_TEXT	ENDS
; Function compile flags: /Odtp /ZI
; File d:\!diffusion 2020\source code 2022\client-server\client\render\r_shader.cpp
;	COMDAT ?GL_InitGenericDlightUniforms@@YAXPAUglsl_prog_s@@@Z
_TEXT	SEGMENT
_shader$ = 8						; size = 4
?GL_InitGenericDlightUniforms@@YAXPAUglsl_prog_s@@@Z PROC ; GL_InitGenericDlightUniforms, COMDAT

; 1090 : {

	push	ebp
	mov	ebp, esp
	sub	esp, 64					; 00000040H
	push	ebx
	push	esi
	push	edi

; 1091 : 	ASSERT( shader != NULL );

	cmp	DWORD PTR _shader$[ebp], 0
	jne	SHORT $LN2@GL_InitGen
	mov	eax, DWORD PTR ?__LINE__Var@?0??GL_InitGenericDlightUniforms@@YAXPAUglsl_prog_s@@@Z@4JA
	add	eax, 1
	push	eax
	push	OFFSET ??_C@_0EN@DPFBEFBL@d?3?2?$CBdiffusion?52020?2source?5code?52@
	push	OFFSET ??_C@_0BI@FECCGOFJ@assert?5failed?5at?5?$CFs?3?$CFi?6?$AA@
	call	DWORD PTR ?gRenderfuncs@@3Urender_api_s@@A+236
	add	esp, 12					; 0000000cH
$LN2@GL_InitGen:

; 1092 : 
; 1093 : 	shader->u_ColorMap = pglGetUniformLocationARB( shader->handle, "u_ColorMap" );

	push	OFFSET ??_C@_0L@IEDEJAAC@u_ColorMap?$AA@
	mov	eax, DWORD PTR _shader$[ebp]
	mov	ecx, DWORD PTR [eax+576]
	push	ecx
	call	DWORD PTR ?pglGetUniformLocationARB@@3P6GHIPBD@ZA ; pglGetUniformLocationARB
	mov	edx, DWORD PTR _shader$[ebp]
	mov	DWORD PTR [edx+588], eax

; 1094 : 	shader->u_ProjectMap = pglGetUniformLocationARB( shader->handle, "u_ProjectMap" );

	push	OFFSET ??_C@_0N@FKEMJKI@u_ProjectMap?$AA@
	mov	eax, DWORD PTR _shader$[ebp]
	mov	ecx, DWORD PTR [eax+576]
	push	ecx
	call	DWORD PTR ?pglGetUniformLocationARB@@3P6GHIPBD@ZA ; pglGetUniformLocationARB
	mov	edx, DWORD PTR _shader$[ebp]
	mov	DWORD PTR [edx+608], eax

; 1095 : 	shader->u_ShadowMap = pglGetUniformLocationARB( shader->handle, "u_ShadowMap" );

	push	OFFSET ??_C@_0M@LIKBOJOD@u_ShadowMap?$AA@
	mov	eax, DWORD PTR _shader$[ebp]
	mov	ecx, DWORD PTR [eax+576]
	push	ecx
	call	DWORD PTR ?pglGetUniformLocationARB@@3P6GHIPBD@ZA ; pglGetUniformLocationARB
	mov	edx, DWORD PTR _shader$[ebp]
	mov	DWORD PTR [edx+612], eax

; 1096 : 
; 1097 : 	shader->u_LightDir = pglGetUniformLocationARB( shader->handle, "u_LightDir" );

	push	OFFSET ??_C@_0L@EMINLLAG@u_LightDir?$AA@
	mov	eax, DWORD PTR _shader$[ebp]
	mov	ecx, DWORD PTR [eax+576]
	push	ecx
	call	DWORD PTR ?pglGetUniformLocationARB@@3P6GHIPBD@ZA ; pglGetUniformLocationARB
	mov	edx, DWORD PTR _shader$[ebp]
	mov	DWORD PTR [edx+744], eax

; 1098 : 	shader->u_LightDiffuse = pglGetUniformLocationARB( shader->handle, "u_LightDiffuse" );

	push	OFFSET ??_C@_0P@IBMOHOLF@u_LightDiffuse?$AA@
	mov	eax, DWORD PTR _shader$[ebp]
	mov	ecx, DWORD PTR [eax+576]
	push	ecx
	call	DWORD PTR ?pglGetUniformLocationARB@@3P6GHIPBD@ZA ; pglGetUniformLocationARB
	mov	edx, DWORD PTR _shader$[ebp]
	mov	DWORD PTR [edx+760], eax

; 1099 : 	shader->u_ShadowParams = pglGetUniformLocationARB( shader->handle, "u_ShadowParams" );

	push	OFFSET ??_C@_0P@DOIHPJNE@u_ShadowParams?$AA@
	mov	eax, DWORD PTR _shader$[ebp]
	mov	ecx, DWORD PTR [eax+576]
	push	ecx
	call	DWORD PTR ?pglGetUniformLocationARB@@3P6GHIPBD@ZA ; pglGetUniformLocationARB
	mov	edx, DWORD PTR _shader$[ebp]
	mov	DWORD PTR [edx+836], eax

; 1100 : 	shader->u_LightOrigin = pglGetUniformLocationARB( shader->handle, "u_LightOrigin" );

	push	OFFSET ??_C@_0O@PGBKINBN@u_LightOrigin?$AA@
	mov	eax, DWORD PTR _shader$[ebp]
	mov	ecx, DWORD PTR [eax+576]
	push	ecx
	call	DWORD PTR ?pglGetUniformLocationARB@@3P6GHIPBD@ZA ; pglGetUniformLocationARB
	mov	edx, DWORD PTR _shader$[ebp]
	mov	DWORD PTR [edx+792], eax

; 1101 : 	shader->u_LightViewProjectionMatrix = pglGetUniformLocationARB( shader->handle, "u_LightViewProjectionMatrix" );

	push	OFFSET ??_C@_0BM@OPAKJEIH@u_LightViewProjectionMatrix?$AA@
	mov	eax, DWORD PTR _shader$[ebp]
	mov	ecx, DWORD PTR [eax+576]
	push	ecx
	call	DWORD PTR ?pglGetUniformLocationARB@@3P6GHIPBD@ZA ; pglGetUniformLocationARB
	mov	edx, DWORD PTR _shader$[ebp]
	mov	DWORD PTR [edx+696], eax

; 1102 : 	shader->u_FogParams = pglGetUniformLocationARB( shader->handle, "u_FogParams" );

	push	OFFSET ??_C@_0M@LNDNBCGB@u_FogParams?$AA@
	mov	eax, DWORD PTR _shader$[ebp]
	mov	ecx, DWORD PTR [eax+576]
	push	ecx
	call	DWORD PTR ?pglGetUniformLocationARB@@3P6GHIPBD@ZA ; pglGetUniformLocationARB
	mov	edx, DWORD PTR _shader$[ebp]
	mov	DWORD PTR [edx+788], eax

; 1103 : 	shader->u_LightScale = pglGetUniformLocationARB( shader->handle, "u_LightScale" );

	push	OFFSET ??_C@_0N@EFGBPOFK@u_LightScale?$AA@
	mov	eax, DWORD PTR _shader$[ebp]
	mov	ecx, DWORD PTR [eax+576]
	push	ecx
	call	DWORD PTR ?pglGetUniformLocationARB@@3P6GHIPBD@ZA ; pglGetUniformLocationARB
	mov	edx, DWORD PTR _shader$[ebp]
	mov	DWORD PTR [edx+796], eax

; 1104 : 	shader->u_DynLightBrightness = pglGetUniformLocationARB( shader->handle, "u_DynLightBrightness" );

	push	OFFSET ??_C@_0BF@DEABILDM@u_DynLightBrightness?$AA@
	mov	eax, DWORD PTR _shader$[ebp]
	mov	ecx, DWORD PTR [eax+576]
	push	ecx
	call	DWORD PTR ?pglGetUniformLocationARB@@3P6GHIPBD@ZA ; pglGetUniformLocationARB
	mov	edx, DWORD PTR _shader$[ebp]
	mov	DWORD PTR [edx+912], eax

; 1105 : 
; 1106 : 	GL_BindShader( shader );

	mov	eax, DWORD PTR _shader$[ebp]
	push	eax
	call	?GL_BindShader@@YAXPAUglsl_prog_s@@@Z	; GL_BindShader
	add	esp, 4

; 1107 : 	pglUniform1iARB( shader->u_ColorMap, GL_TEXTURE0 );

	push	0
	mov	eax, DWORD PTR _shader$[ebp]
	mov	ecx, DWORD PTR [eax+588]
	push	ecx
	call	DWORD PTR ?pglUniform1iARB@@3P6GXHH@ZA	; pglUniform1iARB

; 1108 : 	pglUniform1iARB( shader->u_ProjectMap, GL_TEXTURE1 );

	push	1
	mov	eax, DWORD PTR _shader$[ebp]
	mov	ecx, DWORD PTR [eax+608]
	push	ecx
	call	DWORD PTR ?pglUniform1iARB@@3P6GXHH@ZA	; pglUniform1iARB

; 1109 : 	pglUniform1iARB( shader->u_ShadowMap, GL_TEXTURE2 ); // optional

	push	2
	mov	eax, DWORD PTR _shader$[ebp]
	mov	ecx, DWORD PTR [eax+612]
	push	ecx
	call	DWORD PTR ?pglUniform1iARB@@3P6GXHH@ZA	; pglUniform1iARB

; 1110 : 	GL_BindShader( GL_NONE );

	push	0
	call	?GL_BindShader@@YAXPAUglsl_prog_s@@@Z	; GL_BindShader
	add	esp, 4

; 1111 : 
; 1112 : 	GL_ValidateProgram( shader );

	mov	eax, DWORD PTR _shader$[ebp]
	push	eax
	call	?GL_ValidateProgram@@YAXPAUglsl_prog_s@@@Z ; GL_ValidateProgram
	add	esp, 4

; 1113 : 	GL_ShowProgramUniforms( shader );

	mov	eax, DWORD PTR _shader$[ebp]
	push	eax
	call	?GL_ShowProgramUniforms@@YAXPAUglsl_prog_s@@@Z ; GL_ShowProgramUniforms
	add	esp, 4

; 1114 : }

	pop	edi
	pop	esi
	pop	ebx
	mov	esp, ebp
	pop	ebp
	ret	0
?GL_InitGenericDlightUniforms@@YAXPAUglsl_prog_s@@@Z ENDP ; GL_InitGenericDlightUniforms
_TEXT	ENDS
; Function compile flags: /Odtp /ZI
; File d:\!diffusion 2020\source code 2022\client-server\client\render\r_shader.cpp
;	COMDAT ?GL_InitGrassDlightUniforms@@YAXPAUglsl_prog_s@@@Z
_TEXT	SEGMENT
_shader$ = 8						; size = 4
?GL_InitGrassDlightUniforms@@YAXPAUglsl_prog_s@@@Z PROC	; GL_InitGrassDlightUniforms, COMDAT

; 1058 : {

	push	ebp
	mov	ebp, esp
	sub	esp, 64					; 00000040H
	push	ebx
	push	esi
	push	edi

; 1059 : 	ASSERT( shader != NULL );

	cmp	DWORD PTR _shader$[ebp], 0
	jne	SHORT $LN2@GL_InitGra
	mov	eax, DWORD PTR ?__LINE__Var@?0??GL_InitGrassDlightUniforms@@YAXPAUglsl_prog_s@@@Z@4JA
	add	eax, 1
	push	eax
	push	OFFSET ??_C@_0EN@DPFBEFBL@d?3?2?$CBdiffusion?52020?2source?5code?52@
	push	OFFSET ??_C@_0BI@FECCGOFJ@assert?5failed?5at?5?$CFs?3?$CFi?6?$AA@
	call	DWORD PTR ?gRenderfuncs@@3Urender_api_s@@A+236
	add	esp, 12					; 0000000cH
$LN2@GL_InitGra:

; 1060 : 
; 1061 : 	shader->u_ColorMap = pglGetUniformLocationARB( shader->handle, "u_ColorMap" );

	push	OFFSET ??_C@_0L@IEDEJAAC@u_ColorMap?$AA@
	mov	eax, DWORD PTR _shader$[ebp]
	mov	ecx, DWORD PTR [eax+576]
	push	ecx
	call	DWORD PTR ?pglGetUniformLocationARB@@3P6GHIPBD@ZA ; pglGetUniformLocationARB
	mov	edx, DWORD PTR _shader$[ebp]
	mov	DWORD PTR [edx+588], eax

; 1062 : 	shader->u_ProjectMap = pglGetUniformLocationARB( shader->handle, "u_ProjectMap" );

	push	OFFSET ??_C@_0N@FKEMJKI@u_ProjectMap?$AA@
	mov	eax, DWORD PTR _shader$[ebp]
	mov	ecx, DWORD PTR [eax+576]
	push	ecx
	call	DWORD PTR ?pglGetUniformLocationARB@@3P6GHIPBD@ZA ; pglGetUniformLocationARB
	mov	edx, DWORD PTR _shader$[ebp]
	mov	DWORD PTR [edx+608], eax

; 1063 : 	shader->u_ShadowMap = pglGetUniformLocationARB( shader->handle, "u_ShadowMap" );

	push	OFFSET ??_C@_0M@LIKBOJOD@u_ShadowMap?$AA@
	mov	eax, DWORD PTR _shader$[ebp]
	mov	ecx, DWORD PTR [eax+576]
	push	ecx
	call	DWORD PTR ?pglGetUniformLocationARB@@3P6GHIPBD@ZA ; pglGetUniformLocationARB
	mov	edx, DWORD PTR _shader$[ebp]
	mov	DWORD PTR [edx+612], eax

; 1064 : 
; 1065 : 	shader->u_LightViewProjectionMatrix = pglGetUniformLocationARB( shader->handle, "u_LightViewProjectionMatrix" );

	push	OFFSET ??_C@_0BM@OPAKJEIH@u_LightViewProjectionMatrix?$AA@
	mov	eax, DWORD PTR _shader$[ebp]
	mov	ecx, DWORD PTR [eax+576]
	push	ecx
	call	DWORD PTR ?pglGetUniformLocationARB@@3P6GHIPBD@ZA ; pglGetUniformLocationARB
	mov	edx, DWORD PTR _shader$[ebp]
	mov	DWORD PTR [edx+696], eax

; 1066 : 	shader->u_ShadowParams = pglGetUniformLocationARB( shader->handle, "u_ShadowParams" );

	push	OFFSET ??_C@_0P@DOIHPJNE@u_ShadowParams?$AA@
	mov	eax, DWORD PTR _shader$[ebp]
	mov	ecx, DWORD PTR [eax+576]
	push	ecx
	call	DWORD PTR ?pglGetUniformLocationARB@@3P6GHIPBD@ZA ; pglGetUniformLocationARB
	mov	edx, DWORD PTR _shader$[ebp]
	mov	DWORD PTR [edx+836], eax

; 1067 : 	shader->u_LightDiffuse = pglGetUniformLocationARB( shader->handle, "u_LightDiffuse" );

	push	OFFSET ??_C@_0P@IBMOHOLF@u_LightDiffuse?$AA@
	mov	eax, DWORD PTR _shader$[ebp]
	mov	ecx, DWORD PTR [eax+576]
	push	ecx
	call	DWORD PTR ?pglGetUniformLocationARB@@3P6GHIPBD@ZA ; pglGetUniformLocationARB
	mov	edx, DWORD PTR _shader$[ebp]
	mov	DWORD PTR [edx+760], eax

; 1068 : 	shader->u_LightOrigin = pglGetUniformLocationARB( shader->handle, "u_LightOrigin" );

	push	OFFSET ??_C@_0O@PGBKINBN@u_LightOrigin?$AA@
	mov	eax, DWORD PTR _shader$[ebp]
	mov	ecx, DWORD PTR [eax+576]
	push	ecx
	call	DWORD PTR ?pglGetUniformLocationARB@@3P6GHIPBD@ZA ; pglGetUniformLocationARB
	mov	edx, DWORD PTR _shader$[ebp]
	mov	DWORD PTR [edx+792], eax

; 1069 : 	shader->u_LightDir = pglGetUniformLocationARB( shader->handle, "u_LightDir" );

	push	OFFSET ??_C@_0L@EMINLLAG@u_LightDir?$AA@
	mov	eax, DWORD PTR _shader$[ebp]
	mov	ecx, DWORD PTR [eax+576]
	push	ecx
	call	DWORD PTR ?pglGetUniformLocationARB@@3P6GHIPBD@ZA ; pglGetUniformLocationARB
	mov	edx, DWORD PTR _shader$[ebp]
	mov	DWORD PTR [edx+744], eax

; 1070 : 	shader->u_ViewOrigin = pglGetUniformLocationARB( shader->handle, "u_ViewOrigin" );

	push	OFFSET ??_C@_0N@GOCFBCHC@u_ViewOrigin?$AA@
	mov	eax, DWORD PTR _shader$[ebp]
	mov	ecx, DWORD PTR [eax+576]
	push	ecx
	call	DWORD PTR ?pglGetUniformLocationARB@@3P6GHIPBD@ZA ; pglGetUniformLocationARB
	mov	edx, DWORD PTR _shader$[ebp]
	mov	DWORD PTR [edx+800], eax

; 1071 : 	shader->u_ModelMatrix = pglGetUniformLocationARB( shader->handle, "u_ModelMatrix" );

	push	OFFSET ??_C@_0O@MBNOFNKO@u_ModelMatrix?$AA@
	mov	eax, DWORD PTR _shader$[ebp]
	mov	ecx, DWORD PTR [eax+576]
	push	ecx
	call	DWORD PTR ?pglGetUniformLocationARB@@3P6GHIPBD@ZA ; pglGetUniformLocationARB
	mov	edx, DWORD PTR _shader$[ebp]
	mov	DWORD PTR [edx+688], eax

; 1072 : 	shader->u_GrassFadeStart = pglGetUniformLocationARB( shader->handle, "u_GrassFadeStart" );

	push	OFFSET ??_C@_0BB@BBFEGHLO@u_GrassFadeStart?$AA@
	mov	eax, DWORD PTR _shader$[ebp]
	mov	ecx, DWORD PTR [eax+576]
	push	ecx
	call	DWORD PTR ?pglGetUniformLocationARB@@3P6GHIPBD@ZA ; pglGetUniformLocationARB
	mov	edx, DWORD PTR _shader$[ebp]
	mov	DWORD PTR [edx+888], eax

; 1073 : 	shader->u_GrassFadeDist = pglGetUniformLocationARB( shader->handle, "u_GrassFadeDist" );

	push	OFFSET ??_C@_0BA@DLEPEDLG@u_GrassFadeDist?$AA@
	mov	eax, DWORD PTR _shader$[ebp]
	mov	ecx, DWORD PTR [eax+576]
	push	ecx
	call	DWORD PTR ?pglGetUniformLocationARB@@3P6GHIPBD@ZA ; pglGetUniformLocationARB
	mov	edx, DWORD PTR _shader$[ebp]
	mov	DWORD PTR [edx+892], eax

; 1074 : 	shader->u_GrassFadeEnd = pglGetUniformLocationARB( shader->handle, "u_GrassFadeEnd" );

	push	OFFSET ??_C@_0P@MOHLDOHD@u_GrassFadeEnd?$AA@
	mov	eax, DWORD PTR _shader$[ebp]
	mov	ecx, DWORD PTR [eax+576]
	push	ecx
	call	DWORD PTR ?pglGetUniformLocationARB@@3P6GHIPBD@ZA ; pglGetUniformLocationARB
	mov	edx, DWORD PTR _shader$[ebp]
	mov	DWORD PTR [edx+896], eax

; 1075 : 	shader->u_RealTime = pglGetUniformLocationARB( shader->handle, "u_RealTime" );

	push	OFFSET ??_C@_0L@BGHCDECL@u_RealTime?$AA@
	mov	eax, DWORD PTR _shader$[ebp]
	mov	ecx, DWORD PTR [eax+576]
	push	ecx
	call	DWORD PTR ?pglGetUniformLocationARB@@3P6GHIPBD@ZA ; pglGetUniformLocationARB
	mov	edx, DWORD PTR _shader$[ebp]
	mov	DWORD PTR [edx+868], eax

; 1076 : 	shader->u_FogParams = pglGetUniformLocationARB( shader->handle, "u_FogParams" );

	push	OFFSET ??_C@_0M@LNDNBCGB@u_FogParams?$AA@
	mov	eax, DWORD PTR _shader$[ebp]
	mov	ecx, DWORD PTR [eax+576]
	push	ecx
	call	DWORD PTR ?pglGetUniformLocationARB@@3P6GHIPBD@ZA ; pglGetUniformLocationARB
	mov	edx, DWORD PTR _shader$[ebp]
	mov	DWORD PTR [edx+788], eax

; 1077 : 	shader->u_DynLightBrightness = pglGetUniformLocationARB( shader->handle, "u_DynLightBrightness" );

	push	OFFSET ??_C@_0BF@DEABILDM@u_DynLightBrightness?$AA@
	mov	eax, DWORD PTR _shader$[ebp]
	mov	ecx, DWORD PTR [eax+576]
	push	ecx
	call	DWORD PTR ?pglGetUniformLocationARB@@3P6GHIPBD@ZA ; pglGetUniformLocationARB
	mov	edx, DWORD PTR _shader$[ebp]
	mov	DWORD PTR [edx+912], eax

; 1078 : 
; 1079 : 	GL_BindShader( shader );

	mov	eax, DWORD PTR _shader$[ebp]
	push	eax
	call	?GL_BindShader@@YAXPAUglsl_prog_s@@@Z	; GL_BindShader
	add	esp, 4

; 1080 : 	pglUniform1iARB( shader->u_ColorMap, GL_TEXTURE0 );

	push	0
	mov	eax, DWORD PTR _shader$[ebp]
	mov	ecx, DWORD PTR [eax+588]
	push	ecx
	call	DWORD PTR ?pglUniform1iARB@@3P6GXHH@ZA	; pglUniform1iARB

; 1081 : 	pglUniform1iARB( shader->u_ProjectMap, GL_TEXTURE1 );// projection texture or XY attenuation

	push	1
	mov	eax, DWORD PTR _shader$[ebp]
	mov	ecx, DWORD PTR [eax+608]
	push	ecx
	call	DWORD PTR ?pglUniform1iARB@@3P6GXHH@ZA	; pglUniform1iARB

; 1082 : 	pglUniform1iARB( shader->u_ShadowMap, GL_TEXTURE2 ); // shadowmap or cubemap

	push	2
	mov	eax, DWORD PTR _shader$[ebp]
	mov	ecx, DWORD PTR [eax+612]
	push	ecx
	call	DWORD PTR ?pglUniform1iARB@@3P6GXHH@ZA	; pglUniform1iARB

; 1083 : 	GL_BindShader( GL_NONE );

	push	0
	call	?GL_BindShader@@YAXPAUglsl_prog_s@@@Z	; GL_BindShader
	add	esp, 4

; 1084 : 
; 1085 : 	GL_ValidateProgram( shader );

	mov	eax, DWORD PTR _shader$[ebp]
	push	eax
	call	?GL_ValidateProgram@@YAXPAUglsl_prog_s@@@Z ; GL_ValidateProgram
	add	esp, 4

; 1086 : 	GL_ShowProgramUniforms( shader );

	mov	eax, DWORD PTR _shader$[ebp]
	push	eax
	call	?GL_ShowProgramUniforms@@YAXPAUglsl_prog_s@@@Z ; GL_ShowProgramUniforms
	add	esp, 4

; 1087 : }

	pop	edi
	pop	esi
	pop	ebx
	mov	esp, ebp
	pop	ebp
	ret	0
?GL_InitGrassDlightUniforms@@YAXPAUglsl_prog_s@@@Z ENDP	; GL_InitGrassDlightUniforms
_TEXT	ENDS
; Function compile flags: /Odtp /ZI
; File d:\!diffusion 2020\source code 2022\client-server\client\render\r_shader.cpp
;	COMDAT ?GL_InitGrassSolidUniforms@@YAXPAUglsl_prog_s@@@Z
_TEXT	SEGMENT
_shader$ = 8						; size = 4
?GL_InitGrassSolidUniforms@@YAXPAUglsl_prog_s@@@Z PROC	; GL_InitGrassSolidUniforms, COMDAT

; 1034 : {

	push	ebp
	mov	ebp, esp
	sub	esp, 64					; 00000040H
	push	ebx
	push	esi
	push	edi

; 1035 : 	ASSERT( shader != NULL );

	cmp	DWORD PTR _shader$[ebp], 0
	jne	SHORT $LN2@GL_InitGra
	mov	eax, DWORD PTR ?__LINE__Var@?0??GL_InitGrassSolidUniforms@@YAXPAUglsl_prog_s@@@Z@4JA
	add	eax, 1
	push	eax
	push	OFFSET ??_C@_0EN@DPFBEFBL@d?3?2?$CBdiffusion?52020?2source?5code?52@
	push	OFFSET ??_C@_0BI@FECCGOFJ@assert?5failed?5at?5?$CFs?3?$CFi?6?$AA@
	call	DWORD PTR ?gRenderfuncs@@3Urender_api_s@@A+236
	add	esp, 12					; 0000000cH
$LN2@GL_InitGra:

; 1036 : 
; 1037 : 	shader->u_ColorMap = pglGetUniformLocationARB( shader->handle, "u_ColorMap" );

	push	OFFSET ??_C@_0L@IEDEJAAC@u_ColorMap?$AA@
	mov	eax, DWORD PTR _shader$[ebp]
	mov	ecx, DWORD PTR [eax+576]
	push	ecx
	call	DWORD PTR ?pglGetUniformLocationARB@@3P6GHIPBD@ZA ; pglGetUniformLocationARB
	mov	edx, DWORD PTR _shader$[ebp]
	mov	DWORD PTR [edx+588], eax

; 1038 : 
; 1039 : 	shader->u_ModelMatrix = pglGetUniformLocationARB( shader->handle, "u_ModelMatrix" );

	push	OFFSET ??_C@_0O@MBNOFNKO@u_ModelMatrix?$AA@
	mov	eax, DWORD PTR _shader$[ebp]
	mov	ecx, DWORD PTR [eax+576]
	push	ecx
	call	DWORD PTR ?pglGetUniformLocationARB@@3P6GHIPBD@ZA ; pglGetUniformLocationARB
	mov	edx, DWORD PTR _shader$[ebp]
	mov	DWORD PTR [edx+688], eax

; 1040 : 	shader->u_LightStyleValues = pglGetUniformLocationARB( shader->handle, "u_LightStyleValues" );

	push	OFFSET ??_C@_0BD@NFOOODNK@u_LightStyleValues?$AA@
	mov	eax, DWORD PTR _shader$[ebp]
	mov	ecx, DWORD PTR [eax+576]
	push	ecx
	call	DWORD PTR ?pglGetUniformLocationARB@@3P6GHIPBD@ZA ; pglGetUniformLocationARB
	mov	edx, DWORD PTR _shader$[ebp]
	mov	DWORD PTR [edx+768], eax

; 1041 : 	shader->u_GammaTable = pglGetUniformLocationARB( shader->handle, "u_GammaTable" );

	push	OFFSET ??_C@_0N@OIMPMCEP@u_GammaTable?$AA@
	mov	eax, DWORD PTR _shader$[ebp]
	mov	ecx, DWORD PTR [eax+576]
	push	ecx
	call	DWORD PTR ?pglGetUniformLocationARB@@3P6GHIPBD@ZA ; pglGetUniformLocationARB
	mov	edx, DWORD PTR _shader$[ebp]
	mov	DWORD PTR [edx+680], eax

; 1042 : 	shader->u_GrassFadeStart = pglGetUniformLocationARB( shader->handle, "u_GrassFadeStart" );

	push	OFFSET ??_C@_0BB@BBFEGHLO@u_GrassFadeStart?$AA@
	mov	eax, DWORD PTR _shader$[ebp]
	mov	ecx, DWORD PTR [eax+576]
	push	ecx
	call	DWORD PTR ?pglGetUniformLocationARB@@3P6GHIPBD@ZA ; pglGetUniformLocationARB
	mov	edx, DWORD PTR _shader$[ebp]
	mov	DWORD PTR [edx+888], eax

; 1043 : 	shader->u_GrassFadeDist = pglGetUniformLocationARB( shader->handle, "u_GrassFadeDist" );

	push	OFFSET ??_C@_0BA@DLEPEDLG@u_GrassFadeDist?$AA@
	mov	eax, DWORD PTR _shader$[ebp]
	mov	ecx, DWORD PTR [eax+576]
	push	ecx
	call	DWORD PTR ?pglGetUniformLocationARB@@3P6GHIPBD@ZA ; pglGetUniformLocationARB
	mov	edx, DWORD PTR _shader$[ebp]
	mov	DWORD PTR [edx+892], eax

; 1044 : 	shader->u_GrassFadeEnd = pglGetUniformLocationARB( shader->handle, "u_GrassFadeEnd" );

	push	OFFSET ??_C@_0P@MOHLDOHD@u_GrassFadeEnd?$AA@
	mov	eax, DWORD PTR _shader$[ebp]
	mov	ecx, DWORD PTR [eax+576]
	push	ecx
	call	DWORD PTR ?pglGetUniformLocationARB@@3P6GHIPBD@ZA ; pglGetUniformLocationARB
	mov	edx, DWORD PTR _shader$[ebp]
	mov	DWORD PTR [edx+896], eax

; 1045 : 	shader->u_ViewOrigin = pglGetUniformLocationARB( shader->handle, "u_ViewOrigin" );

	push	OFFSET ??_C@_0N@GOCFBCHC@u_ViewOrigin?$AA@
	mov	eax, DWORD PTR _shader$[ebp]
	mov	ecx, DWORD PTR [eax+576]
	push	ecx
	call	DWORD PTR ?pglGetUniformLocationARB@@3P6GHIPBD@ZA ; pglGetUniformLocationARB
	mov	edx, DWORD PTR _shader$[ebp]
	mov	DWORD PTR [edx+800], eax

; 1046 : 	shader->u_RealTime = pglGetUniformLocationARB( shader->handle, "u_RealTime" );

	push	OFFSET ??_C@_0L@BGHCDECL@u_RealTime?$AA@
	mov	eax, DWORD PTR _shader$[ebp]
	mov	ecx, DWORD PTR [eax+576]
	push	ecx
	call	DWORD PTR ?pglGetUniformLocationARB@@3P6GHIPBD@ZA ; pglGetUniformLocationARB
	mov	edx, DWORD PTR _shader$[ebp]
	mov	DWORD PTR [edx+868], eax

; 1047 : 	shader->u_FogParams = pglGetUniformLocationARB( shader->handle, "u_FogParams" );

	push	OFFSET ??_C@_0M@LNDNBCGB@u_FogParams?$AA@
	mov	eax, DWORD PTR _shader$[ebp]
	mov	ecx, DWORD PTR [eax+576]
	push	ecx
	call	DWORD PTR ?pglGetUniformLocationARB@@3P6GHIPBD@ZA ; pglGetUniformLocationARB
	mov	edx, DWORD PTR _shader$[ebp]
	mov	DWORD PTR [edx+788], eax

; 1048 : 
; 1049 : 	GL_BindShader( shader );

	mov	eax, DWORD PTR _shader$[ebp]
	push	eax
	call	?GL_BindShader@@YAXPAUglsl_prog_s@@@Z	; GL_BindShader
	add	esp, 4

; 1050 : 	pglUniform1iARB( shader->u_ColorMap, GL_TEXTURE0 );

	push	0
	mov	eax, DWORD PTR _shader$[ebp]
	mov	ecx, DWORD PTR [eax+588]
	push	ecx
	call	DWORD PTR ?pglUniform1iARB@@3P6GXHH@ZA	; pglUniform1iARB

; 1051 : 	GL_BindShader( GL_NONE );

	push	0
	call	?GL_BindShader@@YAXPAUglsl_prog_s@@@Z	; GL_BindShader
	add	esp, 4

; 1052 : 
; 1053 : 	GL_ValidateProgram( shader );

	mov	eax, DWORD PTR _shader$[ebp]
	push	eax
	call	?GL_ValidateProgram@@YAXPAUglsl_prog_s@@@Z ; GL_ValidateProgram
	add	esp, 4

; 1054 : 	GL_ShowProgramUniforms( shader );

	mov	eax, DWORD PTR _shader$[ebp]
	push	eax
	call	?GL_ShowProgramUniforms@@YAXPAUglsl_prog_s@@@Z ; GL_ShowProgramUniforms
	add	esp, 4

; 1055 : }

	pop	edi
	pop	esi
	pop	ebx
	mov	esp, ebp
	pop	ebp
	ret	0
?GL_InitGrassSolidUniforms@@YAXPAUglsl_prog_s@@@Z ENDP	; GL_InitGrassSolidUniforms
_TEXT	ENDS
; Function compile flags: /Odtp /ZI
; File d:\!diffusion 2020\source code 2022\client-server\client\render\r_shader.cpp
;	COMDAT ?GL_InitStudioDepthFillUniforms@@YAXPAUglsl_prog_s@@@Z
_TEXT	SEGMENT
_shader$ = 8						; size = 4
?GL_InitStudioDepthFillUniforms@@YAXPAUglsl_prog_s@@@Z PROC ; GL_InitStudioDepthFillUniforms, COMDAT

; 1016 : {

	push	ebp
	mov	ebp, esp
	sub	esp, 64					; 00000040H
	push	ebx
	push	esi
	push	edi

; 1017 : 	ASSERT( shader != NULL );

	cmp	DWORD PTR _shader$[ebp], 0
	jne	SHORT $LN2@GL_InitStu
	mov	eax, DWORD PTR ?__LINE__Var@?0??GL_InitStudioDepthFillUniforms@@YAXPAUglsl_prog_s@@@Z@4JA
	add	eax, 1
	push	eax
	push	OFFSET ??_C@_0EN@DPFBEFBL@d?3?2?$CBdiffusion?52020?2source?5code?52@
	push	OFFSET ??_C@_0BI@FECCGOFJ@assert?5failed?5at?5?$CFs?3?$CFi?6?$AA@
	call	DWORD PTR ?gRenderfuncs@@3Urender_api_s@@A+236
	add	esp, 12					; 0000000cH
$LN2@GL_InitStu:

; 1018 : 
; 1019 : 	shader->u_ColorMap = pglGetUniformLocationARB( shader->handle, "u_ColorMap" );

	push	OFFSET ??_C@_0L@IEDEJAAC@u_ColorMap?$AA@
	mov	eax, DWORD PTR _shader$[ebp]
	mov	ecx, DWORD PTR [eax+576]
	push	ecx
	call	DWORD PTR ?pglGetUniformLocationARB@@3P6GHIPBD@ZA ; pglGetUniformLocationARB
	mov	edx, DWORD PTR _shader$[ebp]
	mov	DWORD PTR [edx+588], eax

; 1020 : 
; 1021 : 	shader->u_BoneQuaternion = pglGetUniformLocationARB( shader->handle, "u_BoneQuaternion" );

	push	OFFSET ??_C@_0BB@JBIGINIK@u_BoneQuaternion?$AA@
	mov	eax, DWORD PTR _shader$[ebp]
	mov	ecx, DWORD PTR [eax+576]
	push	ecx
	call	DWORD PTR ?pglGetUniformLocationARB@@3P6GHIPBD@ZA ; pglGetUniformLocationARB
	mov	edx, DWORD PTR _shader$[ebp]
	mov	DWORD PTR [edx+672], eax

; 1022 : 	shader->u_BonePosition = pglGetUniformLocationARB( shader->handle, "u_BonePosition" );

	push	OFFSET ??_C@_0P@KFHIBBDA@u_BonePosition?$AA@
	mov	eax, DWORD PTR _shader$[ebp]
	mov	ecx, DWORD PTR [eax+576]
	push	ecx
	call	DWORD PTR ?pglGetUniformLocationARB@@3P6GHIPBD@ZA ; pglGetUniformLocationARB
	mov	edx, DWORD PTR _shader$[ebp]
	mov	DWORD PTR [edx+676], eax

; 1023 : 	shader->u_MeshScale = pglGetUniformLocationARB( shader->handle, "u_MeshScale" );

	push	OFFSET ??_C@_0M@LKOGHAJI@u_MeshScale?$AA@
	mov	eax, DWORD PTR _shader$[ebp]
	mov	ecx, DWORD PTR [eax+576]
	push	ecx
	call	DWORD PTR ?pglGetUniformLocationARB@@3P6GHIPBD@ZA ; pglGetUniformLocationARB
	mov	edx, DWORD PTR _shader$[ebp]
	mov	DWORD PTR [edx+900], eax

; 1024 : 
; 1025 : 	GL_BindShader( shader );

	mov	eax, DWORD PTR _shader$[ebp]
	push	eax
	call	?GL_BindShader@@YAXPAUglsl_prog_s@@@Z	; GL_BindShader
	add	esp, 4

; 1026 : 	pglUniform1iARB( shader->u_ColorMap, GL_TEXTURE0 );

	push	0
	mov	eax, DWORD PTR _shader$[ebp]
	mov	ecx, DWORD PTR [eax+588]
	push	ecx
	call	DWORD PTR ?pglUniform1iARB@@3P6GXHH@ZA	; pglUniform1iARB

; 1027 : 	GL_BindShader( GL_NONE );

	push	0
	call	?GL_BindShader@@YAXPAUglsl_prog_s@@@Z	; GL_BindShader
	add	esp, 4

; 1028 : 
; 1029 : 	GL_ValidateProgram( shader );

	mov	eax, DWORD PTR _shader$[ebp]
	push	eax
	call	?GL_ValidateProgram@@YAXPAUglsl_prog_s@@@Z ; GL_ValidateProgram
	add	esp, 4

; 1030 : 	GL_ShowProgramUniforms( shader );

	mov	eax, DWORD PTR _shader$[ebp]
	push	eax
	call	?GL_ShowProgramUniforms@@YAXPAUglsl_prog_s@@@Z ; GL_ShowProgramUniforms
	add	esp, 4

; 1031 : }

	pop	edi
	pop	esi
	pop	ebx
	mov	esp, ebp
	pop	ebp
	ret	0
?GL_InitStudioDepthFillUniforms@@YAXPAUglsl_prog_s@@@Z ENDP ; GL_InitStudioDepthFillUniforms
_TEXT	ENDS
; Function compile flags: /Odtp /ZI
; File d:\!diffusion 2020\source code 2022\client-server\client\render\r_shader.cpp
;	COMDAT ?GL_InitStudioDlightUniforms@@YAXPAUglsl_prog_s@@@Z
_TEXT	SEGMENT
_shader$ = 8						; size = 4
?GL_InitStudioDlightUniforms@@YAXPAUglsl_prog_s@@@Z PROC ; GL_InitStudioDlightUniforms, COMDAT

; 961  : {

	push	ebp
	mov	ebp, esp
	sub	esp, 64					; 00000040H
	push	ebx
	push	esi
	push	edi

; 962  : 	ASSERT( shader != NULL );

	cmp	DWORD PTR _shader$[ebp], 0
	jne	SHORT $LN2@GL_InitStu
	mov	eax, DWORD PTR ?__LINE__Var@?0??GL_InitStudioDlightUniforms@@YAXPAUglsl_prog_s@@@Z@4JA
	add	eax, 1
	push	eax
	push	OFFSET ??_C@_0EN@DPFBEFBL@d?3?2?$CBdiffusion?52020?2source?5code?52@
	push	OFFSET ??_C@_0BI@FECCGOFJ@assert?5failed?5at?5?$CFs?3?$CFi?6?$AA@
	call	DWORD PTR ?gRenderfuncs@@3Urender_api_s@@A+236
	add	esp, 12					; 0000000cH
$LN2@GL_InitStu:

; 963  : 
; 964  : 	shader->u_ColorMap = pglGetUniformLocationARB( shader->handle, "u_ColorMap" );

	push	OFFSET ??_C@_0L@IEDEJAAC@u_ColorMap?$AA@
	mov	eax, DWORD PTR _shader$[ebp]
	mov	ecx, DWORD PTR [eax+576]
	push	ecx
	call	DWORD PTR ?pglGetUniformLocationARB@@3P6GHIPBD@ZA ; pglGetUniformLocationARB
	mov	edx, DWORD PTR _shader$[ebp]
	mov	DWORD PTR [edx+588], eax

; 965  : 	shader->u_ProjectMap = pglGetUniformLocationARB( shader->handle, "u_ProjectMap" );

	push	OFFSET ??_C@_0N@FKEMJKI@u_ProjectMap?$AA@
	mov	eax, DWORD PTR _shader$[ebp]
	mov	ecx, DWORD PTR [eax+576]
	push	ecx
	call	DWORD PTR ?pglGetUniformLocationARB@@3P6GHIPBD@ZA ; pglGetUniformLocationARB
	mov	edx, DWORD PTR _shader$[ebp]
	mov	DWORD PTR [edx+608], eax

; 966  : 	shader->u_ShadowMap = pglGetUniformLocationARB( shader->handle, "u_ShadowMap" );

	push	OFFSET ??_C@_0M@LIKBOJOD@u_ShadowMap?$AA@
	mov	eax, DWORD PTR _shader$[ebp]
	mov	ecx, DWORD PTR [eax+576]
	push	ecx
	call	DWORD PTR ?pglGetUniformLocationARB@@3P6GHIPBD@ZA ; pglGetUniformLocationARB
	mov	edx, DWORD PTR _shader$[ebp]
	mov	DWORD PTR [edx+612], eax

; 967  : 	shader->u_BoneQuaternion = pglGetUniformLocationARB( shader->handle, "u_BoneQuaternion" );

	push	OFFSET ??_C@_0BB@JBIGINIK@u_BoneQuaternion?$AA@
	mov	eax, DWORD PTR _shader$[ebp]
	mov	ecx, DWORD PTR [eax+576]
	push	ecx
	call	DWORD PTR ?pglGetUniformLocationARB@@3P6GHIPBD@ZA ; pglGetUniformLocationARB
	mov	edx, DWORD PTR _shader$[ebp]
	mov	DWORD PTR [edx+672], eax

; 968  : 	shader->u_BonePosition = pglGetUniformLocationARB( shader->handle, "u_BonePosition" );

	push	OFFSET ??_C@_0P@KFHIBBDA@u_BonePosition?$AA@
	mov	eax, DWORD PTR _shader$[ebp]
	mov	ecx, DWORD PTR [eax+576]
	push	ecx
	call	DWORD PTR ?pglGetUniformLocationARB@@3P6GHIPBD@ZA ; pglGetUniformLocationARB
	mov	edx, DWORD PTR _shader$[ebp]
	mov	DWORD PTR [edx+676], eax

; 969  : //	shader->u_BonesArray = pglGetUniformLocationARB( shader->handle, "u_BonesArray" );
; 970  : 	shader->u_MeshScale = pglGetUniformLocationARB( shader->handle, "u_MeshScale" );

	push	OFFSET ??_C@_0M@LKOGHAJI@u_MeshScale?$AA@
	mov	eax, DWORD PTR _shader$[ebp]
	mov	ecx, DWORD PTR [eax+576]
	push	ecx
	call	DWORD PTR ?pglGetUniformLocationARB@@3P6GHIPBD@ZA ; pglGetUniformLocationARB
	mov	edx, DWORD PTR _shader$[ebp]
	mov	DWORD PTR [edx+900], eax

; 971  : 	shader->u_DynLightBrightness = pglGetUniformLocationARB( shader->handle, "u_DynLightBrightness" );

	push	OFFSET ??_C@_0BF@DEABILDM@u_DynLightBrightness?$AA@
	mov	eax, DWORD PTR _shader$[ebp]
	mov	ecx, DWORD PTR [eax+576]
	push	ecx
	call	DWORD PTR ?pglGetUniformLocationARB@@3P6GHIPBD@ZA ; pglGetUniformLocationARB
	mov	edx, DWORD PTR _shader$[ebp]
	mov	DWORD PTR [edx+912], eax

; 972  : 	shader->u_MeshAngles = pglGetUniformLocationARB( shader->handle, "u_MeshAngles" );

	push	OFFSET ??_C@_0N@DJODLMKK@u_MeshAngles?$AA@
	mov	eax, DWORD PTR _shader$[ebp]
	mov	ecx, DWORD PTR [eax+576]
	push	ecx
	call	DWORD PTR ?pglGetUniformLocationARB@@3P6GHIPBD@ZA ; pglGetUniformLocationARB
	mov	edx, DWORD PTR _shader$[ebp]
	mov	DWORD PTR [edx+908], eax

; 973  : 	shader->u_RenderColor = pglGetUniformLocationARB( shader->handle, "u_RenderColor" );

	push	OFFSET ??_C@_0O@PDAILIH@u_RenderColor?$AA@
	mov	eax, DWORD PTR _shader$[ebp]
	mov	ecx, DWORD PTR [eax+576]
	push	ecx
	call	DWORD PTR ?pglGetUniformLocationARB@@3P6GHIPBD@ZA ; pglGetUniformLocationARB
	mov	edx, DWORD PTR _shader$[ebp]
	mov	DWORD PTR [edx+864], eax

; 974  : 	shader->u_GlossScale = pglGetUniformLocationARB( shader->handle, "u_GlossScale" );

	push	OFFSET ??_C@_0N@NPMHADLB@u_GlossScale?$AA@
	mov	eax, DWORD PTR _shader$[ebp]
	mov	ecx, DWORD PTR [eax+576]
	push	ecx
	call	DWORD PTR ?pglGetUniformLocationARB@@3P6GHIPBD@ZA ; pglGetUniformLocationARB
	mov	edx, DWORD PTR _shader$[ebp]
	mov	DWORD PTR [edx+916], eax

; 975  : 	shader->u_GlossSmoothness = pglGetUniformLocationARB( shader->handle, "u_GlossSmoothness" );

	push	OFFSET ??_C@_0BC@KIIHBDPB@u_GlossSmoothness?$AA@
	mov	eax, DWORD PTR _shader$[ebp]
	mov	ecx, DWORD PTR [eax+576]
	push	ecx
	call	DWORD PTR ?pglGetUniformLocationARB@@3P6GHIPBD@ZA ; pglGetUniformLocationARB
	mov	edx, DWORD PTR _shader$[ebp]
	mov	DWORD PTR [edx+920], eax

; 976  : 	shader->u_EmbossScale = pglGetUniformLocationARB( shader->handle, "u_EmbossScale" );

	push	OFFSET ??_C@_0O@HKDACOHC@u_EmbossScale?$AA@
	mov	eax, DWORD PTR _shader$[ebp]
	mov	ecx, DWORD PTR [eax+576]
	push	ecx
	call	DWORD PTR ?pglGetUniformLocationARB@@3P6GHIPBD@ZA ; pglGetUniformLocationARB
	mov	edx, DWORD PTR _shader$[ebp]
	mov	DWORD PTR [edx+924], eax

; 977  : 	shader->u_NormalMap = pglGetUniformLocationARB( shader->handle, "u_NormalMap" );

	push	OFFSET ??_C@_0M@EEAGDKIK@u_NormalMap?$AA@
	mov	eax, DWORD PTR _shader$[ebp]
	mov	ecx, DWORD PTR [eax+576]
	push	ecx
	call	DWORD PTR ?pglGetUniformLocationARB@@3P6GHIPBD@ZA ; pglGetUniformLocationARB
	mov	edx, DWORD PTR _shader$[ebp]
	mov	DWORD PTR [edx+596], eax

; 978  : 	shader->u_ColorMask = pglGetUniformLocationARB( shader->handle, "u_ColorMask" );

	push	OFFSET ??_C@_0M@GKMFFJIJ@u_ColorMask?$AA@
	mov	eax, DWORD PTR _shader$[ebp]
	mov	ecx, DWORD PTR [eax+576]
	push	ecx
	call	DWORD PTR ?pglGetUniformLocationARB@@3P6GHIPBD@ZA ; pglGetUniformLocationARB
	mov	edx, DWORD PTR _shader$[ebp]
	mov	DWORD PTR [edx+656], eax

; 979  : 
; 980  : 	shader->u_LightDir = pglGetUniformLocationARB( shader->handle, "u_LightDir" );

	push	OFFSET ??_C@_0L@EMINLLAG@u_LightDir?$AA@
	mov	eax, DWORD PTR _shader$[ebp]
	mov	ecx, DWORD PTR [eax+576]
	push	ecx
	call	DWORD PTR ?pglGetUniformLocationARB@@3P6GHIPBD@ZA ; pglGetUniformLocationARB
	mov	edx, DWORD PTR _shader$[ebp]
	mov	DWORD PTR [edx+744], eax

; 981  : 	shader->u_LightDiffuse = pglGetUniformLocationARB( shader->handle, "u_LightDiffuse" );

	push	OFFSET ??_C@_0P@IBMOHOLF@u_LightDiffuse?$AA@
	mov	eax, DWORD PTR _shader$[ebp]
	mov	ecx, DWORD PTR [eax+576]
	push	ecx
	call	DWORD PTR ?pglGetUniformLocationARB@@3P6GHIPBD@ZA ; pglGetUniformLocationARB
	mov	edx, DWORD PTR _shader$[ebp]
	mov	DWORD PTR [edx+760], eax

; 982  : 	shader->u_ShadowParams = pglGetUniformLocationARB( shader->handle, "u_ShadowParams" );

	push	OFFSET ??_C@_0P@DOIHPJNE@u_ShadowParams?$AA@
	mov	eax, DWORD PTR _shader$[ebp]
	mov	ecx, DWORD PTR [eax+576]
	push	ecx
	call	DWORD PTR ?pglGetUniformLocationARB@@3P6GHIPBD@ZA ; pglGetUniformLocationARB
	mov	edx, DWORD PTR _shader$[ebp]
	mov	DWORD PTR [edx+836], eax

; 983  : 	shader->u_LightOrigin = pglGetUniformLocationARB( shader->handle, "u_LightOrigin" );

	push	OFFSET ??_C@_0O@PGBKINBN@u_LightOrigin?$AA@
	mov	eax, DWORD PTR _shader$[ebp]
	mov	ecx, DWORD PTR [eax+576]
	push	ecx
	call	DWORD PTR ?pglGetUniformLocationARB@@3P6GHIPBD@ZA ; pglGetUniformLocationARB
	mov	edx, DWORD PTR _shader$[ebp]
	mov	DWORD PTR [edx+792], eax

; 984  : 	shader->u_LightViewProjectionMatrix = pglGetUniformLocationARB( shader->handle, "u_LightViewProjectionMatrix" );

	push	OFFSET ??_C@_0BM@OPAKJEIH@u_LightViewProjectionMatrix?$AA@
	mov	eax, DWORD PTR _shader$[ebp]
	mov	ecx, DWORD PTR [eax+576]
	push	ecx
	call	DWORD PTR ?pglGetUniformLocationARB@@3P6GHIPBD@ZA ; pglGetUniformLocationARB
	mov	edx, DWORD PTR _shader$[ebp]
	mov	DWORD PTR [edx+696], eax

; 985  : 	shader->u_ViewOrigin = pglGetUniformLocationARB( shader->handle, "u_ViewOrigin" );

	push	OFFSET ??_C@_0N@GOCFBCHC@u_ViewOrigin?$AA@
	mov	eax, DWORD PTR _shader$[ebp]
	mov	ecx, DWORD PTR [eax+576]
	push	ecx
	call	DWORD PTR ?pglGetUniformLocationARB@@3P6GHIPBD@ZA ; pglGetUniformLocationARB
	mov	edx, DWORD PTR _shader$[ebp]
	mov	DWORD PTR [edx+800], eax

; 986  : 	shader->u_ViewRight = pglGetUniformLocationARB( shader->handle, "u_ViewRight" );

	push	OFFSET ??_C@_0M@FIIJDCAM@u_ViewRight?$AA@
	mov	eax, DWORD PTR _shader$[ebp]
	mov	ecx, DWORD PTR [eax+576]
	push	ecx
	call	DWORD PTR ?pglGetUniformLocationARB@@3P6GHIPBD@ZA ; pglGetUniformLocationARB
	mov	edx, DWORD PTR _shader$[ebp]
	mov	DWORD PTR [edx+804], eax

; 987  : 	shader->u_FogParams = pglGetUniformLocationARB( shader->handle, "u_FogParams" );

	push	OFFSET ??_C@_0M@LNDNBCGB@u_FogParams?$AA@
	mov	eax, DWORD PTR _shader$[ebp]
	mov	ecx, DWORD PTR [eax+576]
	push	ecx
	call	DWORD PTR ?pglGetUniformLocationARB@@3P6GHIPBD@ZA ; pglGetUniformLocationARB
	mov	edx, DWORD PTR _shader$[ebp]
	mov	DWORD PTR [edx+788], eax

; 988  : 
; 989  : 	if( GL_FindShaderDirective( shader, "STUDIO_INTERIOR" ) )

	push	OFFSET ??_C@_0BA@BJGEOHOC@STUDIO_INTERIOR?$AA@
	mov	eax, DWORD PTR _shader$[ebp]
	push	eax
	call	?GL_FindShaderDirective@@YA_NPAUglsl_prog_s@@PBD@Z ; GL_FindShaderDirective
	add	esp, 8
	movzx	ecx, al
	test	ecx, ecx
	je	SHORT $LN3@GL_InitStu

; 990  : 	{
; 991  : 		shader->u_InteriorMap = pglGetUniformLocationARB( shader->handle, "u_InteriorMap" );

	push	OFFSET ??_C@_0O@KNPDKBPI@u_InteriorMap?$AA@
	mov	eax, DWORD PTR _shader$[ebp]
	mov	ecx, DWORD PTR [eax+576]
	push	ecx
	call	DWORD PTR ?pglGetUniformLocationARB@@3P6GHIPBD@ZA ; pglGetUniformLocationARB
	mov	edx, DWORD PTR _shader$[ebp]
	mov	DWORD PTR [edx+660], eax

; 992  : 		shader->u_InteriorGrid = pglGetUniformLocationARB( shader->handle, "u_InteriorGrid" );

	push	OFFSET ??_C@_0P@KJLBFPAD@u_InteriorGrid?$AA@
	mov	eax, DWORD PTR _shader$[ebp]
	mov	ecx, DWORD PTR [eax+576]
	push	ecx
	call	DWORD PTR ?pglGetUniformLocationARB@@3P6GHIPBD@ZA ; pglGetUniformLocationARB
	mov	edx, DWORD PTR _shader$[ebp]
	mov	DWORD PTR [edx+664], eax

; 993  : 		shader->u_InteriorLightState = pglGetUniformLocationARB( shader->handle, "u_InteriorLightState" );

	push	OFFSET ??_C@_0BF@HKDFFBEE@u_InteriorLightState?$AA@
	mov	eax, DWORD PTR _shader$[ebp]
	mov	ecx, DWORD PTR [eax+576]
	push	ecx
	call	DWORD PTR ?pglGetUniformLocationARB@@3P6GHIPBD@ZA ; pglGetUniformLocationARB
	mov	edx, DWORD PTR _shader$[ebp]
	mov	DWORD PTR [edx+668], eax
$LN3@GL_InitStu:

; 994  : 	}
; 995  : 
; 996  : 	shader->u_RealTime = pglGetUniformLocationARB( shader->handle, "u_RealTime" );

	push	OFFSET ??_C@_0L@BGHCDECL@u_RealTime?$AA@
	mov	eax, DWORD PTR _shader$[ebp]
	mov	ecx, DWORD PTR [eax+576]
	push	ecx
	call	DWORD PTR ?pglGetUniformLocationARB@@3P6GHIPBD@ZA ; pglGetUniformLocationARB
	mov	edx, DWORD PTR _shader$[ebp]
	mov	DWORD PTR [edx+868], eax

; 997  : 	shader->u_FoliageSwayHeight = pglGetUniformLocationARB( shader->handle, "u_FoliageSwayHeight" );

	push	OFFSET ??_C@_0BE@GNPKMAIG@u_FoliageSwayHeight?$AA@
	mov	eax, DWORD PTR _shader$[ebp]
	mov	ecx, DWORD PTR [eax+576]
	push	ecx
	call	DWORD PTR ?pglGetUniformLocationARB@@3P6GHIPBD@ZA ; pglGetUniformLocationARB
	mov	edx, DWORD PTR _shader$[ebp]
	mov	DWORD PTR [edx+928], eax

; 998  : 
; 999  : 	GL_BindShader( shader );

	mov	eax, DWORD PTR _shader$[ebp]
	push	eax
	call	?GL_BindShader@@YAXPAUglsl_prog_s@@@Z	; GL_BindShader
	add	esp, 4

; 1000 : 	pglUniform1iARB( shader->u_ColorMap, GL_TEXTURE0 );

	push	0
	mov	eax, DWORD PTR _shader$[ebp]
	mov	ecx, DWORD PTR [eax+588]
	push	ecx
	call	DWORD PTR ?pglUniform1iARB@@3P6GXHH@ZA	; pglUniform1iARB

; 1001 : 	pglUniform1iARB( shader->u_ProjectMap, GL_TEXTURE1 );

	push	1
	mov	eax, DWORD PTR _shader$[ebp]
	mov	ecx, DWORD PTR [eax+608]
	push	ecx
	call	DWORD PTR ?pglUniform1iARB@@3P6GXHH@ZA	; pglUniform1iARB

; 1002 : 	pglUniform1iARB( shader->u_ShadowMap, GL_TEXTURE2 ); // optional

	push	2
	mov	eax, DWORD PTR _shader$[ebp]
	mov	ecx, DWORD PTR [eax+612]
	push	ecx
	call	DWORD PTR ?pglUniform1iARB@@3P6GXHH@ZA	; pglUniform1iARB

; 1003 : 	pglUniform1iARB( shader->u_NormalMap, GL_TEXTURE3 );

	push	3
	mov	eax, DWORD PTR _shader$[ebp]
	mov	ecx, DWORD PTR [eax+596]
	push	ecx
	call	DWORD PTR ?pglUniform1iARB@@3P6GXHH@ZA	; pglUniform1iARB

; 1004 : 	if( GL_FindShaderDirective( shader, "STUDIO_INTERIOR" ) )

	push	OFFSET ??_C@_0BA@BJGEOHOC@STUDIO_INTERIOR?$AA@
	mov	eax, DWORD PTR _shader$[ebp]
	push	eax
	call	?GL_FindShaderDirective@@YA_NPAUglsl_prog_s@@PBD@Z ; GL_FindShaderDirective
	add	esp, 8
	movzx	ecx, al
	test	ecx, ecx
	je	SHORT $LN4@GL_InitStu

; 1005 : 		pglUniform1iARB( shader->u_InteriorMap, GL_TEXTURE4 );

	push	4
	mov	eax, DWORD PTR _shader$[ebp]
	mov	ecx, DWORD PTR [eax+660]
	push	ecx
	call	DWORD PTR ?pglUniform1iARB@@3P6GXHH@ZA	; pglUniform1iARB
$LN4@GL_InitStu:

; 1006 : 	if( GL_FindShaderDirective( shader, "STUDIO_HAS_COLORMASK" ) )

	push	OFFSET ??_C@_0BF@MDNGADJD@STUDIO_HAS_COLORMASK?$AA@
	mov	eax, DWORD PTR _shader$[ebp]
	push	eax
	call	?GL_FindShaderDirective@@YA_NPAUglsl_prog_s@@PBD@Z ; GL_FindShaderDirective
	add	esp, 8
	movzx	ecx, al
	test	ecx, ecx
	je	SHORT $LN5@GL_InitStu

; 1007 : 		pglUniform1iARB( shader->u_ColorMask, GL_TEXTURE5 );

	push	5
	mov	eax, DWORD PTR _shader$[ebp]
	mov	ecx, DWORD PTR [eax+656]
	push	ecx
	call	DWORD PTR ?pglUniform1iARB@@3P6GXHH@ZA	; pglUniform1iARB
$LN5@GL_InitStu:

; 1008 : 
; 1009 : 	GL_BindShader( GL_NONE );

	push	0
	call	?GL_BindShader@@YAXPAUglsl_prog_s@@@Z	; GL_BindShader
	add	esp, 4

; 1010 : 
; 1011 : 	GL_ValidateProgram( shader );

	mov	eax, DWORD PTR _shader$[ebp]
	push	eax
	call	?GL_ValidateProgram@@YAXPAUglsl_prog_s@@@Z ; GL_ValidateProgram
	add	esp, 4

; 1012 : 	GL_ShowProgramUniforms( shader );

	mov	eax, DWORD PTR _shader$[ebp]
	push	eax
	call	?GL_ShowProgramUniforms@@YAXPAUglsl_prog_s@@@Z ; GL_ShowProgramUniforms
	add	esp, 4

; 1013 : }

	pop	edi
	pop	esi
	pop	ebx
	mov	esp, ebp
	pop	ebp
	ret	0
?GL_InitStudioDlightUniforms@@YAXPAUglsl_prog_s@@@Z ENDP ; GL_InitStudioDlightUniforms
_TEXT	ENDS
; Function compile flags: /Odtp /ZI
; File d:\!diffusion 2020\source code 2022\client-server\client\render\r_shader.cpp
;	COMDAT ?GL_InitSolidStudioUniforms@@YAXPAUglsl_prog_s@@@Z
_TEXT	SEGMENT
_shader$ = 8						; size = 4
?GL_InitSolidStudioUniforms@@YAXPAUglsl_prog_s@@@Z PROC	; GL_InitSolidStudioUniforms, COMDAT

; 884  : {

	push	ebp
	mov	ebp, esp
	sub	esp, 64					; 00000040H
	push	ebx
	push	esi
	push	edi

; 885  : 	ASSERT( shader != NULL );

	cmp	DWORD PTR _shader$[ebp], 0
	jne	SHORT $LN2@GL_InitSol
	mov	eax, DWORD PTR ?__LINE__Var@?0??GL_InitSolidStudioUniforms@@YAXPAUglsl_prog_s@@@Z@4JA
	add	eax, 1
	push	eax
	push	OFFSET ??_C@_0EN@DPFBEFBL@d?3?2?$CBdiffusion?52020?2source?5code?52@
	push	OFFSET ??_C@_0BI@FECCGOFJ@assert?5failed?5at?5?$CFs?3?$CFi?6?$AA@
	call	DWORD PTR ?gRenderfuncs@@3Urender_api_s@@A+236
	add	esp, 12					; 0000000cH
$LN2@GL_InitSol:

; 886  : 
; 887  : 	shader->u_ColorMap = pglGetUniformLocationARB( shader->handle, "u_ColorMap" );

	push	OFFSET ??_C@_0L@IEDEJAAC@u_ColorMap?$AA@
	mov	eax, DWORD PTR _shader$[ebp]
	mov	ecx, DWORD PTR [eax+576]
	push	ecx
	call	DWORD PTR ?pglGetUniformLocationARB@@3P6GHIPBD@ZA ; pglGetUniformLocationARB
	mov	edx, DWORD PTR _shader$[ebp]
	mov	DWORD PTR [edx+588], eax

; 888  : 	shader->u_BoneQuaternion = pglGetUniformLocationARB( shader->handle, "u_BoneQuaternion" );

	push	OFFSET ??_C@_0BB@JBIGINIK@u_BoneQuaternion?$AA@
	mov	eax, DWORD PTR _shader$[ebp]
	mov	ecx, DWORD PTR [eax+576]
	push	ecx
	call	DWORD PTR ?pglGetUniformLocationARB@@3P6GHIPBD@ZA ; pglGetUniformLocationARB
	mov	edx, DWORD PTR _shader$[ebp]
	mov	DWORD PTR [edx+672], eax

; 889  : 	shader->u_BonePosition = pglGetUniformLocationARB( shader->handle, "u_BonePosition" );

	push	OFFSET ??_C@_0P@KFHIBBDA@u_BonePosition?$AA@
	mov	eax, DWORD PTR _shader$[ebp]
	mov	ecx, DWORD PTR [eax+576]
	push	ecx
	call	DWORD PTR ?pglGetUniformLocationARB@@3P6GHIPBD@ZA ; pglGetUniformLocationARB
	mov	edx, DWORD PTR _shader$[ebp]
	mov	DWORD PTR [edx+676], eax

; 890  : 	shader->u_MeshScale = pglGetUniformLocationARB( shader->handle, "u_MeshScale" );

	push	OFFSET ??_C@_0M@LKOGHAJI@u_MeshScale?$AA@
	mov	eax, DWORD PTR _shader$[ebp]
	mov	ecx, DWORD PTR [eax+576]
	push	ecx
	call	DWORD PTR ?pglGetUniformLocationARB@@3P6GHIPBD@ZA ; pglGetUniformLocationARB
	mov	edx, DWORD PTR _shader$[ebp]
	mov	DWORD PTR [edx+900], eax

; 891  : 	shader->u_GlossScale = pglGetUniformLocationARB( shader->handle, "u_GlossScale" );

	push	OFFSET ??_C@_0N@NPMHADLB@u_GlossScale?$AA@
	mov	eax, DWORD PTR _shader$[ebp]
	mov	ecx, DWORD PTR [eax+576]
	push	ecx
	call	DWORD PTR ?pglGetUniformLocationARB@@3P6GHIPBD@ZA ; pglGetUniformLocationARB
	mov	edx, DWORD PTR _shader$[ebp]
	mov	DWORD PTR [edx+916], eax

; 892  : 	shader->u_GlossSmoothness = pglGetUniformLocationARB( shader->handle, "u_GlossSmoothness" );

	push	OFFSET ??_C@_0BC@KIIHBDPB@u_GlossSmoothness?$AA@
	mov	eax, DWORD PTR _shader$[ebp]
	mov	ecx, DWORD PTR [eax+576]
	push	ecx
	call	DWORD PTR ?pglGetUniformLocationARB@@3P6GHIPBD@ZA ; pglGetUniformLocationARB
	mov	edx, DWORD PTR _shader$[ebp]
	mov	DWORD PTR [edx+920], eax

; 893  : 	shader->u_EmbossScale = pglGetUniformLocationARB( shader->handle, "u_EmbossScale" );

	push	OFFSET ??_C@_0O@HKDACOHC@u_EmbossScale?$AA@
	mov	eax, DWORD PTR _shader$[ebp]
	mov	ecx, DWORD PTR [eax+576]
	push	ecx
	call	DWORD PTR ?pglGetUniformLocationARB@@3P6GHIPBD@ZA ; pglGetUniformLocationARB
	mov	edx, DWORD PTR _shader$[ebp]
	mov	DWORD PTR [edx+924], eax

; 894  : 	shader->u_MeshAngles = pglGetUniformLocationARB( shader->handle, "u_MeshAngles" );

	push	OFFSET ??_C@_0N@DJODLMKK@u_MeshAngles?$AA@
	mov	eax, DWORD PTR _shader$[ebp]
	mov	ecx, DWORD PTR [eax+576]
	push	ecx
	call	DWORD PTR ?pglGetUniformLocationARB@@3P6GHIPBD@ZA ; pglGetUniformLocationARB
	mov	edx, DWORD PTR _shader$[ebp]
	mov	DWORD PTR [edx+908], eax

; 895  : 	shader->u_NormalMap = pglGetUniformLocationARB( shader->handle, "u_NormalMap" );

	push	OFFSET ??_C@_0M@EEAGDKIK@u_NormalMap?$AA@
	mov	eax, DWORD PTR _shader$[ebp]
	mov	ecx, DWORD PTR [eax+576]
	push	ecx
	call	DWORD PTR ?pglGetUniformLocationARB@@3P6GHIPBD@ZA ; pglGetUniformLocationARB
	mov	edx, DWORD PTR _shader$[ebp]
	mov	DWORD PTR [edx+596], eax

; 896  : 	shader->u_ColorMask = pglGetUniformLocationARB( shader->handle, "u_ColorMask" );

	push	OFFSET ??_C@_0M@GKMFFJIJ@u_ColorMask?$AA@
	mov	eax, DWORD PTR _shader$[ebp]
	mov	ecx, DWORD PTR [eax+576]
	push	ecx
	call	DWORD PTR ?pglGetUniformLocationARB@@3P6GHIPBD@ZA ; pglGetUniformLocationARB
	mov	edx, DWORD PTR _shader$[ebp]
	mov	DWORD PTR [edx+656], eax

; 897  : 
; 898  : 	if( GL_FindShaderDirective( shader, "REFLECTION_CUBEMAP" ) ) // diffusioncubemaps

	push	OFFSET ??_C@_0BD@EMMENHMO@REFLECTION_CUBEMAP?$AA@
	mov	eax, DWORD PTR _shader$[ebp]
	push	eax
	call	?GL_FindShaderDirective@@YA_NPAUglsl_prog_s@@PBD@Z ; GL_FindShaderDirective
	add	esp, 8
	movzx	ecx, al
	test	ecx, ecx
	je	$LN3@GL_InitSol

; 899  : 	{
; 900  : 		shader->u_EnvMap0 = pglGetUniformLocationARB( shader->handle, "u_EnvMap0" );

	push	OFFSET ??_C@_09GODPBACC@u_EnvMap0?$AA@
	mov	eax, DWORD PTR _shader$[ebp]
	mov	ecx, DWORD PTR [eax+576]
	push	ecx
	call	DWORD PTR ?pglGetUniformLocationARB@@3P6GHIPBD@ZA ; pglGetUniformLocationARB
	mov	edx, DWORD PTR _shader$[ebp]
	mov	DWORD PTR [edx+636], eax

; 901  : 		shader->u_EnvMap1 = pglGetUniformLocationARB( shader->handle, "u_EnvMap1" );

	push	OFFSET ??_C@_09HHCECBGD@u_EnvMap1?$AA@
	mov	eax, DWORD PTR _shader$[ebp]
	mov	ecx, DWORD PTR [eax+576]
	push	ecx
	call	DWORD PTR ?pglGetUniformLocationARB@@3P6GHIPBD@ZA ; pglGetUniformLocationARB
	mov	edx, DWORD PTR _shader$[ebp]
	mov	DWORD PTR [edx+640], eax

; 902  : 		shader->u_CubeMipCount = pglGetUniformLocationARB( shader->handle, "u_CubeMipCount" );

	push	OFFSET ??_C@_0P@CEPEBBNL@u_CubeMipCount?$AA@
	mov	eax, DWORD PTR _shader$[ebp]
	mov	ecx, DWORD PTR [eax+576]
	push	ecx
	call	DWORD PTR ?pglGetUniformLocationARB@@3P6GHIPBD@ZA ; pglGetUniformLocationARB
	mov	edx, DWORD PTR _shader$[ebp]
	mov	DWORD PTR [edx+884], eax

; 903  : 		shader->u_CubeOrigin = pglGetUniformLocationARB( shader->handle, "u_CubeOrigin" );

	push	OFFSET ??_C@_0N@NGOJEAAC@u_CubeOrigin?$AA@
	mov	eax, DWORD PTR _shader$[ebp]
	mov	ecx, DWORD PTR [eax+576]
	push	ecx
	call	DWORD PTR ?pglGetUniformLocationARB@@3P6GHIPBD@ZA ; pglGetUniformLocationARB
	mov	edx, DWORD PTR _shader$[ebp]
	mov	DWORD PTR [edx+880], eax

; 904  : 		shader->u_LerpFactor = pglGetUniformLocationARB( shader->handle, "u_LerpFactor" );

	push	OFFSET ??_C@_0N@BILMML@u_LerpFactor?$AA@
	mov	eax, DWORD PTR _shader$[ebp]
	mov	ecx, DWORD PTR [eax+576]
	push	ecx
	call	DWORD PTR ?pglGetUniformLocationARB@@3P6GHIPBD@ZA ; pglGetUniformLocationARB
	mov	edx, DWORD PTR _shader$[ebp]
	mov	DWORD PTR [edx+812], eax

; 905  : 		shader->u_BoxMins = pglGetUniformLocationARB( shader->handle, "u_BoxMins" );

	push	OFFSET ??_C@_09PANPMJKM@u_BoxMins?$AA@
	mov	eax, DWORD PTR _shader$[ebp]
	mov	ecx, DWORD PTR [eax+576]
	push	ecx
	call	DWORD PTR ?pglGetUniformLocationARB@@3P6GHIPBD@ZA ; pglGetUniformLocationARB
	mov	edx, DWORD PTR _shader$[ebp]
	mov	DWORD PTR [edx+872], eax

; 906  : 		shader->u_BoxMaxs = pglGetUniformLocationARB( shader->handle, "u_BoxMaxs" );

	push	OFFSET ??_C@_09CNMADOIB@u_BoxMaxs?$AA@
	mov	eax, DWORD PTR _shader$[ebp]
	mov	ecx, DWORD PTR [eax+576]
	push	ecx
	call	DWORD PTR ?pglGetUniformLocationARB@@3P6GHIPBD@ZA ; pglGetUniformLocationARB
	mov	edx, DWORD PTR _shader$[ebp]
	mov	DWORD PTR [edx+876], eax

; 907  : 		shader->u_ReflectScale = pglGetUniformLocationARB( shader->handle, "u_ReflectScale" );

	push	OFFSET ??_C@_0P@BIBHBLHM@u_ReflectScale?$AA@
	mov	eax, DWORD PTR _shader$[ebp]
	mov	ecx, DWORD PTR [eax+576]
	push	ecx
	call	DWORD PTR ?pglGetUniformLocationARB@@3P6GHIPBD@ZA ; pglGetUniformLocationARB
	mov	edx, DWORD PTR _shader$[ebp]
	mov	DWORD PTR [edx+852], eax
$LN3@GL_InitSol:

; 908  : 	}
; 909  : 	
; 910  : 	if( GL_FindShaderDirective( shader, "STUDIO_INTERIOR" ) )

	push	OFFSET ??_C@_0BA@BJGEOHOC@STUDIO_INTERIOR?$AA@
	mov	eax, DWORD PTR _shader$[ebp]
	push	eax
	call	?GL_FindShaderDirective@@YA_NPAUglsl_prog_s@@PBD@Z ; GL_FindShaderDirective
	add	esp, 8
	movzx	ecx, al
	test	ecx, ecx
	je	SHORT $LN4@GL_InitSol

; 911  : 	{
; 912  : 		shader->u_InteriorMap = pglGetUniformLocationARB( shader->handle, "u_InteriorMap" );

	push	OFFSET ??_C@_0O@KNPDKBPI@u_InteriorMap?$AA@
	mov	eax, DWORD PTR _shader$[ebp]
	mov	ecx, DWORD PTR [eax+576]
	push	ecx
	call	DWORD PTR ?pglGetUniformLocationARB@@3P6GHIPBD@ZA ; pglGetUniformLocationARB
	mov	edx, DWORD PTR _shader$[ebp]
	mov	DWORD PTR [edx+660], eax

; 913  : 		shader->u_InteriorGrid = pglGetUniformLocationARB( shader->handle, "u_InteriorGrid" );

	push	OFFSET ??_C@_0P@KJLBFPAD@u_InteriorGrid?$AA@
	mov	eax, DWORD PTR _shader$[ebp]
	mov	ecx, DWORD PTR [eax+576]
	push	ecx
	call	DWORD PTR ?pglGetUniformLocationARB@@3P6GHIPBD@ZA ; pglGetUniformLocationARB
	mov	edx, DWORD PTR _shader$[ebp]
	mov	DWORD PTR [edx+664], eax

; 914  : 		shader->u_InteriorLightState = pglGetUniformLocationARB( shader->handle, "u_InteriorLightState" );

	push	OFFSET ??_C@_0BF@HKDFFBEE@u_InteriorLightState?$AA@
	mov	eax, DWORD PTR _shader$[ebp]
	mov	ecx, DWORD PTR [eax+576]
	push	ecx
	call	DWORD PTR ?pglGetUniformLocationARB@@3P6GHIPBD@ZA ; pglGetUniformLocationARB
	mov	edx, DWORD PTR _shader$[ebp]
	mov	DWORD PTR [edx+668], eax
$LN4@GL_InitSol:

; 915  : 	}
; 916  : 
; 917  : 	if( GL_FindShaderDirective( shader, "STUDIO_VERTEX_LIGHTING" ))

	push	OFFSET ??_C@_0BH@BHCFIENI@STUDIO_VERTEX_LIGHTING?$AA@
	mov	eax, DWORD PTR _shader$[ebp]
	push	eax
	call	?GL_FindShaderDirective@@YA_NPAUglsl_prog_s@@PBD@Z ; GL_FindShaderDirective
	add	esp, 8
	movzx	ecx, al
	test	ecx, ecx
	je	SHORT $LN5@GL_InitSol

; 918  : 	{
; 919  : 		shader->u_LightStyleValues = pglGetUniformLocationARB( shader->handle, "u_LightStyles" ); 

	push	OFFSET ??_C@_0O@MBKKBNEB@u_LightStyles?$AA@
	mov	eax, DWORD PTR _shader$[ebp]
	mov	ecx, DWORD PTR [eax+576]
	push	ecx
	call	DWORD PTR ?pglGetUniformLocationARB@@3P6GHIPBD@ZA ; pglGetUniformLocationARB
	mov	edx, DWORD PTR _shader$[ebp]
	mov	DWORD PTR [edx+768], eax

; 920  : 		shader->u_GammaTable = pglGetUniformLocationARB( shader->handle, "u_GammaTable" );

	push	OFFSET ??_C@_0N@OIMPMCEP@u_GammaTable?$AA@
	mov	eax, DWORD PTR _shader$[ebp]
	mov	ecx, DWORD PTR [eax+576]
	push	ecx
	call	DWORD PTR ?pglGetUniformLocationARB@@3P6GHIPBD@ZA ; pglGetUniformLocationARB
	mov	edx, DWORD PTR _shader$[ebp]
	mov	DWORD PTR [edx+680], eax

; 921  : 		shader->u_LightDir = pglGetUniformLocationARB( shader->handle, "u_LightDir" );

	push	OFFSET ??_C@_0L@EMINLLAG@u_LightDir?$AA@
	mov	eax, DWORD PTR _shader$[ebp]
	mov	ecx, DWORD PTR [eax+576]
	push	ecx
	call	DWORD PTR ?pglGetUniformLocationARB@@3P6GHIPBD@ZA ; pglGetUniformLocationARB
	mov	edx, DWORD PTR _shader$[ebp]
	mov	DWORD PTR [edx+744], eax

; 922  : 	}
; 923  : 	else

	jmp	SHORT $LN6@GL_InitSol
$LN5@GL_InitSol:

; 924  : 	{
; 925  : 		shader->u_LightDir = pglGetUniformLocationARB( shader->handle, "u_LightDir" );

	push	OFFSET ??_C@_0L@EMINLLAG@u_LightDir?$AA@
	mov	eax, DWORD PTR _shader$[ebp]
	mov	ecx, DWORD PTR [eax+576]
	push	ecx
	call	DWORD PTR ?pglGetUniformLocationARB@@3P6GHIPBD@ZA ; pglGetUniformLocationARB
	mov	edx, DWORD PTR _shader$[ebp]
	mov	DWORD PTR [edx+744], eax

; 926  : 		shader->u_LightColor = pglGetUniformLocationARB( shader->handle, "u_LightColor" );

	push	OFFSET ??_C@_0N@HGOIPDNC@u_LightColor?$AA@
	mov	eax, DWORD PTR _shader$[ebp]
	mov	ecx, DWORD PTR [eax+576]
	push	ecx
	call	DWORD PTR ?pglGetUniformLocationARB@@3P6GHIPBD@ZA ; pglGetUniformLocationARB
	mov	edx, DWORD PTR _shader$[ebp]
	mov	DWORD PTR [edx+748], eax

; 927  : 		shader->u_LightAmbient = pglGetUniformLocationARB( shader->handle, "u_LightAmbient" );

	push	OFFSET ??_C@_0P@DDJOMFKJ@u_LightAmbient?$AA@
	mov	eax, DWORD PTR _shader$[ebp]
	mov	ecx, DWORD PTR [eax+576]
	push	ecx
	call	DWORD PTR ?pglGetUniformLocationARB@@3P6GHIPBD@ZA ; pglGetUniformLocationARB
	mov	edx, DWORD PTR _shader$[ebp]
	mov	DWORD PTR [edx+752], eax

; 928  : 		shader->u_LightShade = pglGetUniformLocationARB( shader->handle, "u_LightShade" );

	push	OFFSET ??_C@_0N@DMKCJOPD@u_LightShade?$AA@
	mov	eax, DWORD PTR _shader$[ebp]
	mov	ecx, DWORD PTR [eax+576]
	push	ecx
	call	DWORD PTR ?pglGetUniformLocationARB@@3P6GHIPBD@ZA ; pglGetUniformLocationARB
	mov	edx, DWORD PTR _shader$[ebp]
	mov	DWORD PTR [edx+756], eax
$LN6@GL_InitSol:

; 929  : 	}
; 930  : 
; 931  : 	shader->u_ViewOrigin = pglGetUniformLocationARB( shader->handle, "u_ViewOrigin" );

	push	OFFSET ??_C@_0N@GOCFBCHC@u_ViewOrigin?$AA@
	mov	eax, DWORD PTR _shader$[ebp]
	mov	ecx, DWORD PTR [eax+576]
	push	ecx
	call	DWORD PTR ?pglGetUniformLocationARB@@3P6GHIPBD@ZA ; pglGetUniformLocationARB
	mov	edx, DWORD PTR _shader$[ebp]
	mov	DWORD PTR [edx+800], eax

; 932  : 	shader->u_ViewRight = pglGetUniformLocationARB( shader->handle, "u_ViewRight" );

	push	OFFSET ??_C@_0M@FIIJDCAM@u_ViewRight?$AA@
	mov	eax, DWORD PTR _shader$[ebp]
	mov	ecx, DWORD PTR [eax+576]
	push	ecx
	call	DWORD PTR ?pglGetUniformLocationARB@@3P6GHIPBD@ZA ; pglGetUniformLocationARB
	mov	edx, DWORD PTR _shader$[ebp]
	mov	DWORD PTR [edx+804], eax

; 933  : 	shader->u_RenderColor = pglGetUniformLocationARB( shader->handle, "u_RenderColor" );

	push	OFFSET ??_C@_0O@PDAILIH@u_RenderColor?$AA@
	mov	eax, DWORD PTR _shader$[ebp]
	mov	ecx, DWORD PTR [eax+576]
	push	ecx
	call	DWORD PTR ?pglGetUniformLocationARB@@3P6GHIPBD@ZA ; pglGetUniformLocationARB
	mov	edx, DWORD PTR _shader$[ebp]
	mov	DWORD PTR [edx+864], eax

; 934  : 	shader->u_FogParams = pglGetUniformLocationARB( shader->handle, "u_FogParams" );

	push	OFFSET ??_C@_0M@LNDNBCGB@u_FogParams?$AA@
	mov	eax, DWORD PTR _shader$[ebp]
	mov	ecx, DWORD PTR [eax+576]
	push	ecx
	call	DWORD PTR ?pglGetUniformLocationARB@@3P6GHIPBD@ZA ; pglGetUniformLocationARB
	mov	edx, DWORD PTR _shader$[ebp]
	mov	DWORD PTR [edx+788], eax

; 935  : 
; 936  : 	shader->u_RealTime = pglGetUniformLocationARB( shader->handle, "u_RealTime" );

	push	OFFSET ??_C@_0L@BGHCDECL@u_RealTime?$AA@
	mov	eax, DWORD PTR _shader$[ebp]
	mov	ecx, DWORD PTR [eax+576]
	push	ecx
	call	DWORD PTR ?pglGetUniformLocationARB@@3P6GHIPBD@ZA ; pglGetUniformLocationARB
	mov	edx, DWORD PTR _shader$[ebp]
	mov	DWORD PTR [edx+868], eax

; 937  : 	shader->u_FoliageSwayHeight = pglGetUniformLocationARB( shader->handle, "u_FoliageSwayHeight" );

	push	OFFSET ??_C@_0BE@GNPKMAIG@u_FoliageSwayHeight?$AA@
	mov	eax, DWORD PTR _shader$[ebp]
	mov	ecx, DWORD PTR [eax+576]
	push	ecx
	call	DWORD PTR ?pglGetUniformLocationARB@@3P6GHIPBD@ZA ; pglGetUniformLocationARB
	mov	edx, DWORD PTR _shader$[ebp]
	mov	DWORD PTR [edx+928], eax

; 938  : 
; 939  : 	GL_BindShader( shader );

	mov	eax, DWORD PTR _shader$[ebp]
	push	eax
	call	?GL_BindShader@@YAXPAUglsl_prog_s@@@Z	; GL_BindShader
	add	esp, 4

; 940  : 	pglUniform1iARB( shader->u_ColorMap, GL_TEXTURE0 );

	push	0
	mov	eax, DWORD PTR _shader$[ebp]
	mov	ecx, DWORD PTR [eax+588]
	push	ecx
	call	DWORD PTR ?pglUniform1iARB@@3P6GXHH@ZA	; pglUniform1iARB

; 941  : 	pglUniform1iARB( shader->u_NormalMap, GL_TEXTURE1 );

	push	1
	mov	eax, DWORD PTR _shader$[ebp]
	mov	ecx, DWORD PTR [eax+596]
	push	ecx
	call	DWORD PTR ?pglUniform1iARB@@3P6GXHH@ZA	; pglUniform1iARB

; 942  : 	if( GL_FindShaderDirective( shader, "REFLECTION_CUBEMAP" ) )  // diffusioncubemaps

	push	OFFSET ??_C@_0BD@EMMENHMO@REFLECTION_CUBEMAP?$AA@
	mov	eax, DWORD PTR _shader$[ebp]
	push	eax
	call	?GL_FindShaderDirective@@YA_NPAUglsl_prog_s@@PBD@Z ; GL_FindShaderDirective
	add	esp, 8
	movzx	ecx, al
	test	ecx, ecx
	je	SHORT $LN7@GL_InitSol

; 943  : 	{
; 944  : 		pglUniform1iARB( shader->u_EnvMap0, GL_TEXTURE2 );

	push	2
	mov	eax, DWORD PTR _shader$[ebp]
	mov	ecx, DWORD PTR [eax+636]
	push	ecx
	call	DWORD PTR ?pglUniform1iARB@@3P6GXHH@ZA	; pglUniform1iARB

; 945  : 		pglUniform1iARB( shader->u_EnvMap1, GL_TEXTURE3 );

	push	3
	mov	eax, DWORD PTR _shader$[ebp]
	mov	ecx, DWORD PTR [eax+640]
	push	ecx
	call	DWORD PTR ?pglUniform1iARB@@3P6GXHH@ZA	; pglUniform1iARB
$LN7@GL_InitSol:

; 946  : 	}
; 947  : 	
; 948  : 	if( GL_FindShaderDirective( shader, "STUDIO_INTERIOR" ) )

	push	OFFSET ??_C@_0BA@BJGEOHOC@STUDIO_INTERIOR?$AA@
	mov	eax, DWORD PTR _shader$[ebp]
	push	eax
	call	?GL_FindShaderDirective@@YA_NPAUglsl_prog_s@@PBD@Z ; GL_FindShaderDirective
	add	esp, 8
	movzx	ecx, al
	test	ecx, ecx
	je	SHORT $LN8@GL_InitSol

; 949  : 		pglUniform1iARB( shader->u_InteriorMap, GL_TEXTURE4 );

	push	4
	mov	eax, DWORD PTR _shader$[ebp]
	mov	ecx, DWORD PTR [eax+660]
	push	ecx
	call	DWORD PTR ?pglUniform1iARB@@3P6GXHH@ZA	; pglUniform1iARB
$LN8@GL_InitSol:

; 950  : 
; 951  : 	if( GL_FindShaderDirective( shader, "STUDIO_HAS_COLORMASK" ) )

	push	OFFSET ??_C@_0BF@MDNGADJD@STUDIO_HAS_COLORMASK?$AA@
	mov	eax, DWORD PTR _shader$[ebp]
	push	eax
	call	?GL_FindShaderDirective@@YA_NPAUglsl_prog_s@@PBD@Z ; GL_FindShaderDirective
	add	esp, 8
	movzx	ecx, al
	test	ecx, ecx
	je	SHORT $LN9@GL_InitSol

; 952  : 		pglUniform1iARB( shader->u_ColorMask, GL_TEXTURE5 );

	push	5
	mov	eax, DWORD PTR _shader$[ebp]
	mov	ecx, DWORD PTR [eax+656]
	push	ecx
	call	DWORD PTR ?pglUniform1iARB@@3P6GXHH@ZA	; pglUniform1iARB
$LN9@GL_InitSol:

; 953  : 
; 954  : 	GL_BindShader( GL_NONE );

	push	0
	call	?GL_BindShader@@YAXPAUglsl_prog_s@@@Z	; GL_BindShader
	add	esp, 4

; 955  : 
; 956  : 	GL_ValidateProgram( shader );

	mov	eax, DWORD PTR _shader$[ebp]
	push	eax
	call	?GL_ValidateProgram@@YAXPAUglsl_prog_s@@@Z ; GL_ValidateProgram
	add	esp, 4

; 957  : 	GL_ShowProgramUniforms( shader );

	mov	eax, DWORD PTR _shader$[ebp]
	push	eax
	call	?GL_ShowProgramUniforms@@YAXPAUglsl_prog_s@@@Z ; GL_ShowProgramUniforms
	add	esp, 4

; 958  : }

	pop	edi
	pop	esi
	pop	ebx
	mov	esp, ebp
	pop	ebp
	ret	0
?GL_InitSolidStudioUniforms@@YAXPAUglsl_prog_s@@@Z ENDP	; GL_InitSolidStudioUniforms
_TEXT	ENDS
; Function compile flags: /Odtp /ZI
; File d:\!diffusion 2020\source code 2022\client-server\client\render\r_shader.cpp
;	COMDAT ?GL_InitBmodelDecalUniforms@@YAXPAUglsl_prog_s@@@Z
_TEXT	SEGMENT
_shader$ = 8						; size = 4
?GL_InitBmodelDecalUniforms@@YAXPAUglsl_prog_s@@@Z PROC	; GL_InitBmodelDecalUniforms, COMDAT

; 862  : {

	push	ebp
	mov	ebp, esp
	sub	esp, 64					; 00000040H
	push	ebx
	push	esi
	push	edi

; 863  : 	ASSERT( shader != NULL );

	cmp	DWORD PTR _shader$[ebp], 0
	jne	SHORT $LN2@GL_InitBmo
	mov	eax, DWORD PTR ?__LINE__Var@?0??GL_InitBmodelDecalUniforms@@YAXPAUglsl_prog_s@@@Z@4JA
	add	eax, 1
	push	eax
	push	OFFSET ??_C@_0EN@DPFBEFBL@d?3?2?$CBdiffusion?52020?2source?5code?52@
	push	OFFSET ??_C@_0BI@FECCGOFJ@assert?5failed?5at?5?$CFs?3?$CFi?6?$AA@
	call	DWORD PTR ?gRenderfuncs@@3Urender_api_s@@A+236
	add	esp, 12					; 0000000cH
$LN2@GL_InitBmo:

; 864  : 
; 865  : 	shader->u_DecalMap = pglGetUniformLocationARB( shader->handle, "u_DecalMap" );

	push	OFFSET ??_C@_0L@GCAHNJHJ@u_DecalMap?$AA@
	mov	eax, DWORD PTR _shader$[ebp]
	mov	ecx, DWORD PTR [eax+576]
	push	ecx
	call	DWORD PTR ?pglGetUniformLocationARB@@3P6GHIPBD@ZA ; pglGetUniformLocationARB
	mov	edx, DWORD PTR _shader$[ebp]
	mov	DWORD PTR [edx+628], eax

; 866  : 	shader->u_ColorMap = pglGetUniformLocationARB( shader->handle, "u_ColorMap" );

	push	OFFSET ??_C@_0L@IEDEJAAC@u_ColorMap?$AA@
	mov	eax, DWORD PTR _shader$[ebp]
	mov	ecx, DWORD PTR [eax+576]
	push	ecx
	call	DWORD PTR ?pglGetUniformLocationARB@@3P6GHIPBD@ZA ; pglGetUniformLocationARB
	mov	edx, DWORD PTR _shader$[ebp]
	mov	DWORD PTR [edx+588], eax

; 867  : 	shader->u_LightMap = pglGetUniformLocationARB( shader->handle, "u_LightMap" );

	push	OFFSET ??_C@_0L@NKAMHLG@u_LightMap?$AA@
	mov	eax, DWORD PTR _shader$[ebp]
	mov	ecx, DWORD PTR [eax+576]
	push	ecx
	call	DWORD PTR ?pglGetUniformLocationARB@@3P6GHIPBD@ZA ; pglGetUniformLocationARB
	mov	edx, DWORD PTR _shader$[ebp]
	mov	DWORD PTR [edx+620], eax

; 868  : 
; 869  : 	shader->u_LightStyleValues = pglGetUniformLocationARB( shader->handle, "u_LightStyleValues" );

	push	OFFSET ??_C@_0BD@NFOOODNK@u_LightStyleValues?$AA@
	mov	eax, DWORD PTR _shader$[ebp]
	mov	ecx, DWORD PTR [eax+576]
	push	ecx
	call	DWORD PTR ?pglGetUniformLocationARB@@3P6GHIPBD@ZA ; pglGetUniformLocationARB
	mov	edx, DWORD PTR _shader$[ebp]
	mov	DWORD PTR [edx+768], eax

; 870  : 	shader->u_ModelMatrix = pglGetUniformLocationARB( shader->handle, "u_ModelMatrix" );

	push	OFFSET ??_C@_0O@MBNOFNKO@u_ModelMatrix?$AA@
	mov	eax, DWORD PTR _shader$[ebp]
	mov	ecx, DWORD PTR [eax+576]
	push	ecx
	call	DWORD PTR ?pglGetUniformLocationARB@@3P6GHIPBD@ZA ; pglGetUniformLocationARB
	mov	edx, DWORD PTR _shader$[ebp]
	mov	DWORD PTR [edx+688], eax

; 871  : 	shader->u_FogParams = pglGetUniformLocationARB( shader->handle, "u_FogParams" );

	push	OFFSET ??_C@_0M@LNDNBCGB@u_FogParams?$AA@
	mov	eax, DWORD PTR _shader$[ebp]
	mov	ecx, DWORD PTR [eax+576]
	push	ecx
	call	DWORD PTR ?pglGetUniformLocationARB@@3P6GHIPBD@ZA ; pglGetUniformLocationARB
	mov	edx, DWORD PTR _shader$[ebp]
	mov	DWORD PTR [edx+788], eax

; 872  : 
; 873  : 	GL_BindShader( shader );

	mov	eax, DWORD PTR _shader$[ebp]
	push	eax
	call	?GL_BindShader@@YAXPAUglsl_prog_s@@@Z	; GL_BindShader
	add	esp, 4

; 874  : 	pglUniform1iARB( shader->u_DecalMap, GL_TEXTURE0 );

	push	0
	mov	eax, DWORD PTR _shader$[ebp]
	mov	ecx, DWORD PTR [eax+628]
	push	ecx
	call	DWORD PTR ?pglUniform1iARB@@3P6GXHH@ZA	; pglUniform1iARB

; 875  : 	pglUniform1iARB( shader->u_ColorMap, GL_TEXTURE1 ); // detect alpha holes

	push	1
	mov	eax, DWORD PTR _shader$[ebp]
	mov	ecx, DWORD PTR [eax+588]
	push	ecx
	call	DWORD PTR ?pglUniform1iARB@@3P6GXHH@ZA	; pglUniform1iARB

; 876  : 	pglUniform1iARB( shader->u_LightMap, GL_TEXTURE2 );

	push	2
	mov	eax, DWORD PTR _shader$[ebp]
	mov	ecx, DWORD PTR [eax+620]
	push	ecx
	call	DWORD PTR ?pglUniform1iARB@@3P6GXHH@ZA	; pglUniform1iARB

; 877  : 	GL_BindShader( GL_NONE );

	push	0
	call	?GL_BindShader@@YAXPAUglsl_prog_s@@@Z	; GL_BindShader
	add	esp, 4

; 878  : 
; 879  : 	GL_ValidateProgram( shader );

	mov	eax, DWORD PTR _shader$[ebp]
	push	eax
	call	?GL_ValidateProgram@@YAXPAUglsl_prog_s@@@Z ; GL_ValidateProgram
	add	esp, 4

; 880  : 	GL_ShowProgramUniforms( shader );

	mov	eax, DWORD PTR _shader$[ebp]
	push	eax
	call	?GL_ShowProgramUniforms@@YAXPAUglsl_prog_s@@@Z ; GL_ShowProgramUniforms
	add	esp, 4

; 881  : }

	pop	edi
	pop	esi
	pop	ebx
	mov	esp, ebp
	pop	ebp
	ret	0
?GL_InitBmodelDecalUniforms@@YAXPAUglsl_prog_s@@@Z ENDP	; GL_InitBmodelDecalUniforms
_TEXT	ENDS
; Function compile flags: /Odtp /ZI
; File d:\!diffusion 2020\source code 2022\client-server\client\render\r_shader.cpp
;	COMDAT ?GL_InitBmodelDepthFillUniforms@@YAXPAUglsl_prog_s@@@Z
_TEXT	SEGMENT
_shader$ = 8						; size = 4
?GL_InitBmodelDepthFillUniforms@@YAXPAUglsl_prog_s@@@Z PROC ; GL_InitBmodelDepthFillUniforms, COMDAT

; 846  : {

	push	ebp
	mov	ebp, esp
	sub	esp, 64					; 00000040H
	push	ebx
	push	esi
	push	edi

; 847  : 	ASSERT( shader != NULL );

	cmp	DWORD PTR _shader$[ebp], 0
	jne	SHORT $LN2@GL_InitBmo
	mov	eax, DWORD PTR ?__LINE__Var@?0??GL_InitBmodelDepthFillUniforms@@YAXPAUglsl_prog_s@@@Z@4JA
	add	eax, 1
	push	eax
	push	OFFSET ??_C@_0EN@DPFBEFBL@d?3?2?$CBdiffusion?52020?2source?5code?52@
	push	OFFSET ??_C@_0BI@FECCGOFJ@assert?5failed?5at?5?$CFs?3?$CFi?6?$AA@
	call	DWORD PTR ?gRenderfuncs@@3Urender_api_s@@A+236
	add	esp, 12					; 0000000cH
$LN2@GL_InitBmo:

; 848  : 
; 849  : 	shader->u_ColorMap = pglGetUniformLocationARB( shader->handle, "u_ColorMap" );

	push	OFFSET ??_C@_0L@IEDEJAAC@u_ColorMap?$AA@
	mov	eax, DWORD PTR _shader$[ebp]
	mov	ecx, DWORD PTR [eax+576]
	push	ecx
	call	DWORD PTR ?pglGetUniformLocationARB@@3P6GHIPBD@ZA ; pglGetUniformLocationARB
	mov	edx, DWORD PTR _shader$[ebp]
	mov	DWORD PTR [edx+588], eax

; 850  : 	shader->u_TexOffset = pglGetUniformLocationARB( shader->handle, "u_TexOffset" );

	push	OFFSET ??_C@_0M@MGCFPBL@u_TexOffset?$AA@
	mov	eax, DWORD PTR _shader$[ebp]
	mov	ecx, DWORD PTR [eax+576]
	push	ecx
	call	DWORD PTR ?pglGetUniformLocationARB@@3P6GHIPBD@ZA ; pglGetUniformLocationARB
	mov	edx, DWORD PTR _shader$[ebp]
	mov	DWORD PTR [edx+860], eax

; 851  : 	shader->u_ModelMatrix = pglGetUniformLocationARB( shader->handle, "u_ModelMatrix" );

	push	OFFSET ??_C@_0O@MBNOFNKO@u_ModelMatrix?$AA@
	mov	eax, DWORD PTR _shader$[ebp]
	mov	ecx, DWORD PTR [eax+576]
	push	ecx
	call	DWORD PTR ?pglGetUniformLocationARB@@3P6GHIPBD@ZA ; pglGetUniformLocationARB
	mov	edx, DWORD PTR _shader$[ebp]
	mov	DWORD PTR [edx+688], eax

; 852  : 
; 853  : 	GL_BindShader( shader );

	mov	eax, DWORD PTR _shader$[ebp]
	push	eax
	call	?GL_BindShader@@YAXPAUglsl_prog_s@@@Z	; GL_BindShader
	add	esp, 4

; 854  : 	pglUniform1iARB( shader->u_ColorMap, GL_TEXTURE0 );

	push	0
	mov	eax, DWORD PTR _shader$[ebp]
	mov	ecx, DWORD PTR [eax+588]
	push	ecx
	call	DWORD PTR ?pglUniform1iARB@@3P6GXHH@ZA	; pglUniform1iARB

; 855  : 	GL_BindShader( GL_NONE );

	push	0
	call	?GL_BindShader@@YAXPAUglsl_prog_s@@@Z	; GL_BindShader
	add	esp, 4

; 856  : 
; 857  : 	GL_ValidateProgram( shader );

	mov	eax, DWORD PTR _shader$[ebp]
	push	eax
	call	?GL_ValidateProgram@@YAXPAUglsl_prog_s@@@Z ; GL_ValidateProgram
	add	esp, 4

; 858  : 	GL_ShowProgramUniforms( shader );

	mov	eax, DWORD PTR _shader$[ebp]
	push	eax
	call	?GL_ShowProgramUniforms@@YAXPAUglsl_prog_s@@@Z ; GL_ShowProgramUniforms
	add	esp, 4

; 859  : }

	pop	edi
	pop	esi
	pop	ebx
	mov	esp, ebp
	pop	ebp
	ret	0
?GL_InitBmodelDepthFillUniforms@@YAXPAUglsl_prog_s@@@Z ENDP ; GL_InitBmodelDepthFillUniforms
_TEXT	ENDS
; Function compile flags: /Odtp /ZI
; File d:\!diffusion 2020\source code 2022\client-server\client\render\r_shader.cpp
;	COMDAT ?GL_InitBmodelDlightUniforms@@YAXPAUglsl_prog_s@@@Z
_TEXT	SEGMENT
_shader$ = 8						; size = 4
?GL_InitBmodelDlightUniforms@@YAXPAUglsl_prog_s@@@Z PROC ; GL_InitBmodelDlightUniforms, COMDAT

; 785  : {

	push	ebp
	mov	ebp, esp
	sub	esp, 64					; 00000040H
	push	ebx
	push	esi
	push	edi

; 786  : 	ASSERT( shader != NULL );

	cmp	DWORD PTR _shader$[ebp], 0
	jne	SHORT $LN2@GL_InitBmo
	mov	eax, DWORD PTR ?__LINE__Var@?0??GL_InitBmodelDlightUniforms@@YAXPAUglsl_prog_s@@@Z@4JA
	add	eax, 1
	push	eax
	push	OFFSET ??_C@_0EN@DPFBEFBL@d?3?2?$CBdiffusion?52020?2source?5code?52@
	push	OFFSET ??_C@_0BI@FECCGOFJ@assert?5failed?5at?5?$CFs?3?$CFi?6?$AA@
	call	DWORD PTR ?gRenderfuncs@@3Urender_api_s@@A+236
	add	esp, 12					; 0000000cH
$LN2@GL_InitBmo:

; 787  : 
; 788  : 	shader->u_ColorMap = pglGetUniformLocationARB( shader->handle, "u_ColorMap" );

	push	OFFSET ??_C@_0L@IEDEJAAC@u_ColorMap?$AA@
	mov	eax, DWORD PTR _shader$[ebp]
	mov	ecx, DWORD PTR [eax+576]
	push	ecx
	call	DWORD PTR ?pglGetUniformLocationARB@@3P6GHIPBD@ZA ; pglGetUniformLocationARB
	mov	edx, DWORD PTR _shader$[ebp]
	mov	DWORD PTR [edx+588], eax

; 789  : 	shader->u_DetailMap = pglGetUniformLocationARB( shader->handle, "u_DetailMap" );

	push	OFFSET ??_C@_0M@CLJGMBED@u_DetailMap?$AA@
	mov	eax, DWORD PTR _shader$[ebp]
	mov	ecx, DWORD PTR [eax+576]
	push	ecx
	call	DWORD PTR ?pglGetUniformLocationARB@@3P6GHIPBD@ZA ; pglGetUniformLocationARB
	mov	edx, DWORD PTR _shader$[ebp]
	mov	DWORD PTR [edx+604], eax

; 790  : 	shader->u_ProjectMap = pglGetUniformLocationARB( shader->handle, "u_ProjectMap" );

	push	OFFSET ??_C@_0N@FKEMJKI@u_ProjectMap?$AA@
	mov	eax, DWORD PTR _shader$[ebp]
	mov	ecx, DWORD PTR [eax+576]
	push	ecx
	call	DWORD PTR ?pglGetUniformLocationARB@@3P6GHIPBD@ZA ; pglGetUniformLocationARB
	mov	edx, DWORD PTR _shader$[ebp]
	mov	DWORD PTR [edx+608], eax

; 791  : 	shader->u_ShadowMap = pglGetUniformLocationARB( shader->handle, "u_ShadowMap" ); // shadow2D or shadowCube

	push	OFFSET ??_C@_0M@LIKBOJOD@u_ShadowMap?$AA@
	mov	eax, DWORD PTR _shader$[ebp]
	mov	ecx, DWORD PTR [eax+576]
	push	ecx
	call	DWORD PTR ?pglGetUniformLocationARB@@3P6GHIPBD@ZA ; pglGetUniformLocationARB
	mov	edx, DWORD PTR _shader$[ebp]
	mov	DWORD PTR [edx+612], eax

; 792  : 	shader->u_ScreenMap = pglGetUniformLocationARB( shader->handle, "u_ScreenMap" );

	push	OFFSET ??_C@_0M@KCNMJMNH@u_ScreenMap?$AA@
	mov	eax, DWORD PTR _shader$[ebp]
	mov	ecx, DWORD PTR [eax+576]
	push	ecx
	call	DWORD PTR ?pglGetUniformLocationARB@@3P6GHIPBD@ZA ; pglGetUniformLocationARB
	mov	edx, DWORD PTR _shader$[ebp]
	mov	DWORD PTR [edx+632], eax

; 793  : 	shader->u_NormalMap = pglGetUniformLocationARB( shader->handle, "u_NormalMap" );

	push	OFFSET ??_C@_0M@EEAGDKIK@u_NormalMap?$AA@
	mov	eax, DWORD PTR _shader$[ebp]
	mov	ecx, DWORD PTR [eax+576]
	push	ecx
	call	DWORD PTR ?pglGetUniformLocationARB@@3P6GHIPBD@ZA ; pglGetUniformLocationARB
	mov	edx, DWORD PTR _shader$[ebp]
	mov	DWORD PTR [edx+596], eax

; 794  : 
; 795  : 	if( GL_FindShaderDirective( shader, "BMODEL_MULTI_LAYERS" ))

	push	OFFSET ??_C@_0BE@FBBOMMAP@BMODEL_MULTI_LAYERS?$AA@
	mov	eax, DWORD PTR _shader$[ebp]
	push	eax
	call	?GL_FindShaderDirective@@YA_NPAUglsl_prog_s@@PBD@Z ; GL_FindShaderDirective
	add	esp, 8
	movzx	ecx, al
	test	ecx, ecx
	je	SHORT $LN3@GL_InitBmo

; 796  : 		shader->u_LayerMap = pglGetUniformLocationARB( shader->handle, "u_LayerMap" );

	push	OFFSET ??_C@_0L@NKHKNNOO@u_LayerMap?$AA@
	mov	eax, DWORD PTR _shader$[ebp]
	mov	ecx, DWORD PTR [eax+576]
	push	ecx
	call	DWORD PTR ?pglGetUniformLocationARB@@3P6GHIPBD@ZA ; pglGetUniformLocationARB
	mov	edx, DWORD PTR _shader$[ebp]
	mov	DWORD PTR [edx+648], eax
$LN3@GL_InitBmo:

; 797  : 
; 798  : 	shader->u_ModelMatrix = pglGetUniformLocationARB( shader->handle, "u_ModelMatrix" );

	push	OFFSET ??_C@_0O@MBNOFNKO@u_ModelMatrix?$AA@
	mov	eax, DWORD PTR _shader$[ebp]
	mov	ecx, DWORD PTR [eax+576]
	push	ecx
	call	DWORD PTR ?pglGetUniformLocationARB@@3P6GHIPBD@ZA ; pglGetUniformLocationARB
	mov	edx, DWORD PTR _shader$[ebp]
	mov	DWORD PTR [edx+688], eax

; 799  : 	shader->u_DetailScale = pglGetUniformLocationARB( shader->handle, "u_DetailScale" );

	push	OFFSET ??_C@_0O@MFMJGIKB@u_DetailScale?$AA@
	mov	eax, DWORD PTR _shader$[ebp]
	mov	ecx, DWORD PTR [eax+576]
	push	ecx
	call	DWORD PTR ?pglGetUniformLocationARB@@3P6GHIPBD@ZA ; pglGetUniformLocationARB
	mov	edx, DWORD PTR _shader$[ebp]
	mov	DWORD PTR [edx+840], eax

; 800  : 	shader->u_TexOffset = pglGetUniformLocationARB( shader->handle, "u_TexOffset" );

	push	OFFSET ??_C@_0M@MGCFPBL@u_TexOffset?$AA@
	mov	eax, DWORD PTR _shader$[ebp]
	mov	ecx, DWORD PTR [eax+576]
	push	ecx
	call	DWORD PTR ?pglGetUniformLocationARB@@3P6GHIPBD@ZA ; pglGetUniformLocationARB
	mov	edx, DWORD PTR _shader$[ebp]
	mov	DWORD PTR [edx+860], eax

; 801  : 
; 802  : 	shader->u_LightDir = pglGetUniformLocationARB( shader->handle, "u_LightDir" );

	push	OFFSET ??_C@_0L@EMINLLAG@u_LightDir?$AA@
	mov	eax, DWORD PTR _shader$[ebp]
	mov	ecx, DWORD PTR [eax+576]
	push	ecx
	call	DWORD PTR ?pglGetUniformLocationARB@@3P6GHIPBD@ZA ; pglGetUniformLocationARB
	mov	edx, DWORD PTR _shader$[ebp]
	mov	DWORD PTR [edx+744], eax

; 803  : 	shader->u_LightDiffuse = pglGetUniformLocationARB( shader->handle, "u_LightDiffuse" );

	push	OFFSET ??_C@_0P@IBMOHOLF@u_LightDiffuse?$AA@
	mov	eax, DWORD PTR _shader$[ebp]
	mov	ecx, DWORD PTR [eax+576]
	push	ecx
	call	DWORD PTR ?pglGetUniformLocationARB@@3P6GHIPBD@ZA ; pglGetUniformLocationARB
	mov	edx, DWORD PTR _shader$[ebp]
	mov	DWORD PTR [edx+760], eax

; 804  : 	shader->u_ShadowParams = pglGetUniformLocationARB( shader->handle, "u_ShadowParams" );

	push	OFFSET ??_C@_0P@DOIHPJNE@u_ShadowParams?$AA@
	mov	eax, DWORD PTR _shader$[ebp]
	mov	ecx, DWORD PTR [eax+576]
	push	ecx
	call	DWORD PTR ?pglGetUniformLocationARB@@3P6GHIPBD@ZA ; pglGetUniformLocationARB
	mov	edx, DWORD PTR _shader$[ebp]
	mov	DWORD PTR [edx+836], eax

; 805  : 	shader->u_LightOrigin = pglGetUniformLocationARB( shader->handle, "u_LightOrigin" );

	push	OFFSET ??_C@_0O@PGBKINBN@u_LightOrigin?$AA@
	mov	eax, DWORD PTR _shader$[ebp]
	mov	ecx, DWORD PTR [eax+576]
	push	ecx
	call	DWORD PTR ?pglGetUniformLocationARB@@3P6GHIPBD@ZA ; pglGetUniformLocationARB
	mov	edx, DWORD PTR _shader$[ebp]
	mov	DWORD PTR [edx+792], eax

; 806  : 	shader->u_LightViewProjectionMatrix = pglGetUniformLocationARB( shader->handle, "u_LightViewProjectionMatrix" );

	push	OFFSET ??_C@_0BM@OPAKJEIH@u_LightViewProjectionMatrix?$AA@
	mov	eax, DWORD PTR _shader$[ebp]
	mov	ecx, DWORD PTR [eax+576]
	push	ecx
	call	DWORD PTR ?pglGetUniformLocationARB@@3P6GHIPBD@ZA ; pglGetUniformLocationARB
	mov	edx, DWORD PTR _shader$[ebp]
	mov	DWORD PTR [edx+696], eax

; 807  : 	shader->u_FogParams = pglGetUniformLocationARB( shader->handle, "u_FogParams" );

	push	OFFSET ??_C@_0M@LNDNBCGB@u_FogParams?$AA@
	mov	eax, DWORD PTR _shader$[ebp]
	mov	ecx, DWORD PTR [eax+576]
	push	ecx
	call	DWORD PTR ?pglGetUniformLocationARB@@3P6GHIPBD@ZA ; pglGetUniformLocationARB
	mov	edx, DWORD PTR _shader$[ebp]
	mov	DWORD PTR [edx+788], eax

; 808  : 	shader->u_ScreenSizeInv = pglGetUniformLocationARB( shader->handle, "u_ScreenSizeInv" );

	push	OFFSET ??_C@_0BA@CNHIBBKL@u_ScreenSizeInv?$AA@
	mov	eax, DWORD PTR _shader$[ebp]
	mov	ecx, DWORD PTR [eax+576]
	push	ecx
	call	DWORD PTR ?pglGetUniformLocationARB@@3P6GHIPBD@ZA ; pglGetUniformLocationARB
	mov	edx, DWORD PTR _shader$[ebp]
	mov	DWORD PTR [edx+724], eax

; 809  : 	shader->u_RenderColor = pglGetUniformLocationARB( shader->handle, "u_RenderColor" );

	push	OFFSET ??_C@_0O@PDAILIH@u_RenderColor?$AA@
	mov	eax, DWORD PTR _shader$[ebp]
	mov	ecx, DWORD PTR [eax+576]
	push	ecx
	call	DWORD PTR ?pglGetUniformLocationARB@@3P6GHIPBD@ZA ; pglGetUniformLocationARB
	mov	edx, DWORD PTR _shader$[ebp]
	mov	DWORD PTR [edx+864], eax

; 810  : 	shader->u_DynLightBrightness = pglGetUniformLocationARB( shader->handle, "u_DynLightBrightness" );

	push	OFFSET ??_C@_0BF@DEABILDM@u_DynLightBrightness?$AA@
	mov	eax, DWORD PTR _shader$[ebp]
	mov	ecx, DWORD PTR [eax+576]
	push	ecx
	call	DWORD PTR ?pglGetUniformLocationARB@@3P6GHIPBD@ZA ; pglGetUniformLocationARB
	mov	edx, DWORD PTR _shader$[ebp]
	mov	DWORD PTR [edx+912], eax

; 811  : 	shader->u_ViewOrigin = pglGetUniformLocationARB( shader->handle, "u_ViewOrigin" );

	push	OFFSET ??_C@_0N@GOCFBCHC@u_ViewOrigin?$AA@
	mov	eax, DWORD PTR _shader$[ebp]
	mov	ecx, DWORD PTR [eax+576]
	push	ecx
	call	DWORD PTR ?pglGetUniformLocationARB@@3P6GHIPBD@ZA ; pglGetUniformLocationARB
	mov	edx, DWORD PTR _shader$[ebp]
	mov	DWORD PTR [edx+800], eax

; 812  : 	shader->u_GlossScale = pglGetUniformLocationARB( shader->handle, "u_GlossScale" );

	push	OFFSET ??_C@_0N@NPMHADLB@u_GlossScale?$AA@
	mov	eax, DWORD PTR _shader$[ebp]
	mov	ecx, DWORD PTR [eax+576]
	push	ecx
	call	DWORD PTR ?pglGetUniformLocationARB@@3P6GHIPBD@ZA ; pglGetUniformLocationARB
	mov	edx, DWORD PTR _shader$[ebp]
	mov	DWORD PTR [edx+916], eax

; 813  : 	shader->u_GlossSmoothness = pglGetUniformLocationARB( shader->handle, "u_GlossSmoothness" );

	push	OFFSET ??_C@_0BC@KIIHBDPB@u_GlossSmoothness?$AA@
	mov	eax, DWORD PTR _shader$[ebp]
	mov	ecx, DWORD PTR [eax+576]
	push	ecx
	call	DWORD PTR ?pglGetUniformLocationARB@@3P6GHIPBD@ZA ; pglGetUniformLocationARB
	mov	edx, DWORD PTR _shader$[ebp]
	mov	DWORD PTR [edx+920], eax

; 814  : 	shader->u_EmbossScale = pglGetUniformLocationARB( shader->handle, "u_EmbossScale" );

	push	OFFSET ??_C@_0O@HKDACOHC@u_EmbossScale?$AA@
	mov	eax, DWORD PTR _shader$[ebp]
	mov	ecx, DWORD PTR [eax+576]
	push	ecx
	call	DWORD PTR ?pglGetUniformLocationARB@@3P6GHIPBD@ZA ; pglGetUniformLocationARB
	mov	edx, DWORD PTR _shader$[ebp]
	mov	DWORD PTR [edx+924], eax

; 815  : 
; 816  : 	if( GL_FindShaderDirective( shader, "BMODEL_INTERIOR" ) )

	push	OFFSET ??_C@_0BA@ELFGANLK@BMODEL_INTERIOR?$AA@
	mov	eax, DWORD PTR _shader$[ebp]
	push	eax
	call	?GL_FindShaderDirective@@YA_NPAUglsl_prog_s@@PBD@Z ; GL_FindShaderDirective
	add	esp, 8
	movzx	ecx, al
	test	ecx, ecx
	je	SHORT $LN4@GL_InitBmo

; 817  : 	{
; 818  : 		shader->u_InteriorMap = pglGetUniformLocationARB( shader->handle, "u_InteriorMap" );

	push	OFFSET ??_C@_0O@KNPDKBPI@u_InteriorMap?$AA@
	mov	eax, DWORD PTR _shader$[ebp]
	mov	ecx, DWORD PTR [eax+576]
	push	ecx
	call	DWORD PTR ?pglGetUniformLocationARB@@3P6GHIPBD@ZA ; pglGetUniformLocationARB
	mov	edx, DWORD PTR _shader$[ebp]
	mov	DWORD PTR [edx+660], eax

; 819  : 		shader->u_RealTime = pglGetUniformLocationARB( shader->handle, "u_RealTime" );

	push	OFFSET ??_C@_0L@BGHCDECL@u_RealTime?$AA@
	mov	eax, DWORD PTR _shader$[ebp]
	mov	ecx, DWORD PTR [eax+576]
	push	ecx
	call	DWORD PTR ?pglGetUniformLocationARB@@3P6GHIPBD@ZA ; pglGetUniformLocationARB
	mov	edx, DWORD PTR _shader$[ebp]
	mov	DWORD PTR [edx+868], eax

; 820  : 		shader->u_InteriorGrid = pglGetUniformLocationARB( shader->handle, "u_InteriorGrid" );

	push	OFFSET ??_C@_0P@KJLBFPAD@u_InteriorGrid?$AA@
	mov	eax, DWORD PTR _shader$[ebp]
	mov	ecx, DWORD PTR [eax+576]
	push	ecx
	call	DWORD PTR ?pglGetUniformLocationARB@@3P6GHIPBD@ZA ; pglGetUniformLocationARB
	mov	edx, DWORD PTR _shader$[ebp]
	mov	DWORD PTR [edx+664], eax

; 821  : 		shader->u_InteriorLightState = pglGetUniformLocationARB( shader->handle, "u_InteriorLightState" );

	push	OFFSET ??_C@_0BF@HKDFFBEE@u_InteriorLightState?$AA@
	mov	eax, DWORD PTR _shader$[ebp]
	mov	ecx, DWORD PTR [eax+576]
	push	ecx
	call	DWORD PTR ?pglGetUniformLocationARB@@3P6GHIPBD@ZA ; pglGetUniformLocationARB
	mov	edx, DWORD PTR _shader$[ebp]
	mov	DWORD PTR [edx+668], eax
$LN4@GL_InitBmo:

; 822  : 	}
; 823  : 
; 824  : 	GL_BindShader( shader );

	mov	eax, DWORD PTR _shader$[ebp]
	push	eax
	call	?GL_BindShader@@YAXPAUglsl_prog_s@@@Z	; GL_BindShader
	add	esp, 4

; 825  : 	pglUniform1iARB( shader->u_ColorMap, GL_TEXTURE0 );

	push	0
	mov	eax, DWORD PTR _shader$[ebp]
	mov	ecx, DWORD PTR [eax+588]
	push	ecx
	call	DWORD PTR ?pglUniform1iARB@@3P6GXHH@ZA	; pglUniform1iARB

; 826  : 	pglUniform1iARB( shader->u_DetailMap, GL_TEXTURE1 );

	push	1
	mov	eax, DWORD PTR _shader$[ebp]
	mov	ecx, DWORD PTR [eax+604]
	push	ecx
	call	DWORD PTR ?pglUniform1iARB@@3P6GXHH@ZA	; pglUniform1iARB

; 827  : 	pglUniform1iARB( shader->u_ProjectMap, GL_TEXTURE2 );	// projection lights only

	push	2
	mov	eax, DWORD PTR _shader$[ebp]
	mov	ecx, DWORD PTR [eax+608]
	push	ecx
	call	DWORD PTR ?pglUniform1iARB@@3P6GXHH@ZA	; pglUniform1iARB

; 828  : 	pglUniform1iARB( shader->u_ShadowMap, GL_TEXTURE3 );	// shadowmap or cubemap

	push	3
	mov	eax, DWORD PTR _shader$[ebp]
	mov	ecx, DWORD PTR [eax+612]
	push	ecx
	call	DWORD PTR ?pglUniform1iARB@@3P6GXHH@ZA	; pglUniform1iARB

; 829  : 	pglUniform1iARB( shader->u_ScreenMap, GL_TEXTURE4 );

	push	4
	mov	eax, DWORD PTR _shader$[ebp]
	mov	ecx, DWORD PTR [eax+632]
	push	ecx
	call	DWORD PTR ?pglUniform1iARB@@3P6GXHH@ZA	; pglUniform1iARB

; 830  : 
; 831  : 	if( GL_FindShaderDirective( shader, "BMODEL_MULTI_LAYERS" ))

	push	OFFSET ??_C@_0BE@FBBOMMAP@BMODEL_MULTI_LAYERS?$AA@
	mov	eax, DWORD PTR _shader$[ebp]
	push	eax
	call	?GL_FindShaderDirective@@YA_NPAUglsl_prog_s@@PBD@Z ; GL_FindShaderDirective
	add	esp, 8
	movzx	ecx, al
	test	ecx, ecx
	je	SHORT $LN5@GL_InitBmo

; 832  : 		pglUniform1iARB( shader->u_LayerMap, GL_TEXTURE5 );

	push	5
	mov	eax, DWORD PTR _shader$[ebp]
	mov	ecx, DWORD PTR [eax+648]
	push	ecx
	call	DWORD PTR ?pglUniform1iARB@@3P6GXHH@ZA	; pglUniform1iARB
$LN5@GL_InitBmo:

; 833  : 
; 834  : 	pglUniform1iARB( shader->u_NormalMap, GL_TEXTURE6 );

	push	6
	mov	eax, DWORD PTR _shader$[ebp]
	mov	ecx, DWORD PTR [eax+596]
	push	ecx
	call	DWORD PTR ?pglUniform1iARB@@3P6GXHH@ZA	; pglUniform1iARB

; 835  : 
; 836  : 	if( GL_FindShaderDirective( shader, "BMODEL_INTERIOR" ) )

	push	OFFSET ??_C@_0BA@ELFGANLK@BMODEL_INTERIOR?$AA@
	mov	eax, DWORD PTR _shader$[ebp]
	push	eax
	call	?GL_FindShaderDirective@@YA_NPAUglsl_prog_s@@PBD@Z ; GL_FindShaderDirective
	add	esp, 8
	movzx	ecx, al
	test	ecx, ecx
	je	SHORT $LN6@GL_InitBmo

; 837  : 		pglUniform1iARB( shader->u_InteriorMap, GL_TEXTURE7 );

	push	7
	mov	eax, DWORD PTR _shader$[ebp]
	mov	ecx, DWORD PTR [eax+660]
	push	ecx
	call	DWORD PTR ?pglUniform1iARB@@3P6GXHH@ZA	; pglUniform1iARB
$LN6@GL_InitBmo:

; 838  : 
; 839  : 	GL_BindShader( GL_NONE );

	push	0
	call	?GL_BindShader@@YAXPAUglsl_prog_s@@@Z	; GL_BindShader
	add	esp, 4

; 840  : 
; 841  : 	GL_ValidateProgram( shader );

	mov	eax, DWORD PTR _shader$[ebp]
	push	eax
	call	?GL_ValidateProgram@@YAXPAUglsl_prog_s@@@Z ; GL_ValidateProgram
	add	esp, 4

; 842  : 	GL_ShowProgramUniforms( shader );

	mov	eax, DWORD PTR _shader$[ebp]
	push	eax
	call	?GL_ShowProgramUniforms@@YAXPAUglsl_prog_s@@@Z ; GL_ShowProgramUniforms
	add	esp, 4

; 843  : }

	pop	edi
	pop	esi
	pop	ebx
	mov	esp, ebp
	pop	ebp
	ret	0
?GL_InitBmodelDlightUniforms@@YAXPAUglsl_prog_s@@@Z ENDP ; GL_InitBmodelDlightUniforms
_TEXT	ENDS
; Function compile flags: /Odtp /ZI
; File d:\!diffusion 2020\source code 2022\client-server\client\render\r_shader.cpp
;	COMDAT ?GL_InitSolidBmodelUniforms@@YAXPAUglsl_prog_s@@@Z
_TEXT	SEGMENT
_shader$ = 8						; size = 4
?GL_InitSolidBmodelUniforms@@YAXPAUglsl_prog_s@@@Z PROC	; GL_InitSolidBmodelUniforms, COMDAT

; 697  : {

	push	ebp
	mov	ebp, esp
	sub	esp, 64					; 00000040H
	push	ebx
	push	esi
	push	edi

; 698  : 	ASSERT( shader != NULL );

	cmp	DWORD PTR _shader$[ebp], 0
	jne	SHORT $LN2@GL_InitSol
	mov	eax, DWORD PTR ?__LINE__Var@?0??GL_InitSolidBmodelUniforms@@YAXPAUglsl_prog_s@@@Z@4JA
	add	eax, 1
	push	eax
	push	OFFSET ??_C@_0EN@DPFBEFBL@d?3?2?$CBdiffusion?52020?2source?5code?52@
	push	OFFSET ??_C@_0BI@FECCGOFJ@assert?5failed?5at?5?$CFs?3?$CFi?6?$AA@
	call	DWORD PTR ?gRenderfuncs@@3Urender_api_s@@A+236
	add	esp, 12					; 0000000cH
$LN2@GL_InitSol:

; 699  : 
; 700  : 	shader->u_ColorMap = pglGetUniformLocationARB( shader->handle, "u_ColorMap" );

	push	OFFSET ??_C@_0L@IEDEJAAC@u_ColorMap?$AA@
	mov	eax, DWORD PTR _shader$[ebp]
	mov	ecx, DWORD PTR [eax+576]
	push	ecx
	call	DWORD PTR ?pglGetUniformLocationARB@@3P6GHIPBD@ZA ; pglGetUniformLocationARB
	mov	edx, DWORD PTR _shader$[ebp]
	mov	DWORD PTR [edx+588], eax

; 701  : 	shader->u_DetailMap = pglGetUniformLocationARB( shader->handle, "u_DetailMap" );

	push	OFFSET ??_C@_0M@CLJGMBED@u_DetailMap?$AA@
	mov	eax, DWORD PTR _shader$[ebp]
	mov	ecx, DWORD PTR [eax+576]
	push	ecx
	call	DWORD PTR ?pglGetUniformLocationARB@@3P6GHIPBD@ZA ; pglGetUniformLocationARB
	mov	edx, DWORD PTR _shader$[ebp]
	mov	DWORD PTR [edx+604], eax

; 702  : 	shader->u_LightMap = pglGetUniformLocationARB( shader->handle, "u_LightMap" );

	push	OFFSET ??_C@_0L@NKAMHLG@u_LightMap?$AA@
	mov	eax, DWORD PTR _shader$[ebp]
	mov	ecx, DWORD PTR [eax+576]
	push	ecx
	call	DWORD PTR ?pglGetUniformLocationARB@@3P6GHIPBD@ZA ; pglGetUniformLocationARB
	mov	edx, DWORD PTR _shader$[ebp]
	mov	DWORD PTR [edx+620], eax

; 703  : 	shader->u_ScreenMap = pglGetUniformLocationARB( shader->handle, "u_ScreenMap" );

	push	OFFSET ??_C@_0M@KCNMJMNH@u_ScreenMap?$AA@
	mov	eax, DWORD PTR _shader$[ebp]
	mov	ecx, DWORD PTR [eax+576]
	push	ecx
	call	DWORD PTR ?pglGetUniformLocationARB@@3P6GHIPBD@ZA ; pglGetUniformLocationARB
	mov	edx, DWORD PTR _shader$[ebp]
	mov	DWORD PTR [edx+632], eax

; 704  : 	shader->u_GlowMap = pglGetUniformLocationARB( shader->handle, "u_GlowMap" );

	push	OFFSET ??_C@_09HDLEGDMG@u_GlowMap?$AA@
	mov	eax, DWORD PTR _shader$[ebp]
	mov	ecx, DWORD PTR [eax+576]
	push	ecx
	call	DWORD PTR ?pglGetUniformLocationARB@@3P6GHIPBD@ZA ; pglGetUniformLocationARB
	mov	edx, DWORD PTR _shader$[ebp]
	mov	DWORD PTR [edx+644], eax

; 705  : 	shader->u_NormalMap = pglGetUniformLocationARB( shader->handle, "u_NormalMap" );

	push	OFFSET ??_C@_0M@EEAGDKIK@u_NormalMap?$AA@
	mov	eax, DWORD PTR _shader$[ebp]
	mov	ecx, DWORD PTR [eax+576]
	push	ecx
	call	DWORD PTR ?pglGetUniformLocationARB@@3P6GHIPBD@ZA ; pglGetUniformLocationARB
	mov	edx, DWORD PTR _shader$[ebp]
	mov	DWORD PTR [edx+596], eax

; 706  : 
; 707  : 	if( GL_FindShaderDirective( shader, "REFLECTION_CUBEMAP" ) ) // diffusioncubemaps

	push	OFFSET ??_C@_0BD@EMMENHMO@REFLECTION_CUBEMAP?$AA@
	mov	eax, DWORD PTR _shader$[ebp]
	push	eax
	call	?GL_FindShaderDirective@@YA_NPAUglsl_prog_s@@PBD@Z ; GL_FindShaderDirective
	add	esp, 8
	movzx	ecx, al
	test	ecx, ecx
	je	$LN3@GL_InitSol

; 708  : 	{
; 709  : 		shader->u_EnvMap0 = pglGetUniformLocationARB( shader->handle, "u_EnvMap0" );

	push	OFFSET ??_C@_09GODPBACC@u_EnvMap0?$AA@
	mov	eax, DWORD PTR _shader$[ebp]
	mov	ecx, DWORD PTR [eax+576]
	push	ecx
	call	DWORD PTR ?pglGetUniformLocationARB@@3P6GHIPBD@ZA ; pglGetUniformLocationARB
	mov	edx, DWORD PTR _shader$[ebp]
	mov	DWORD PTR [edx+636], eax

; 710  : 		shader->u_EnvMap1 = pglGetUniformLocationARB( shader->handle, "u_EnvMap1" );

	push	OFFSET ??_C@_09HHCECBGD@u_EnvMap1?$AA@
	mov	eax, DWORD PTR _shader$[ebp]
	mov	ecx, DWORD PTR [eax+576]
	push	ecx
	call	DWORD PTR ?pglGetUniformLocationARB@@3P6GHIPBD@ZA ; pglGetUniformLocationARB
	mov	edx, DWORD PTR _shader$[ebp]
	mov	DWORD PTR [edx+640], eax

; 711  : 		shader->u_CubeMipCount = pglGetUniformLocationARB( shader->handle, "u_CubeMipCount" );

	push	OFFSET ??_C@_0P@CEPEBBNL@u_CubeMipCount?$AA@
	mov	eax, DWORD PTR _shader$[ebp]
	mov	ecx, DWORD PTR [eax+576]
	push	ecx
	call	DWORD PTR ?pglGetUniformLocationARB@@3P6GHIPBD@ZA ; pglGetUniformLocationARB
	mov	edx, DWORD PTR _shader$[ebp]
	mov	DWORD PTR [edx+884], eax

; 712  : 		shader->u_CubeOrigin = pglGetUniformLocationARB( shader->handle, "u_CubeOrigin" );

	push	OFFSET ??_C@_0N@NGOJEAAC@u_CubeOrigin?$AA@
	mov	eax, DWORD PTR _shader$[ebp]
	mov	ecx, DWORD PTR [eax+576]
	push	ecx
	call	DWORD PTR ?pglGetUniformLocationARB@@3P6GHIPBD@ZA ; pglGetUniformLocationARB
	mov	edx, DWORD PTR _shader$[ebp]
	mov	DWORD PTR [edx+880], eax

; 713  : 		shader->u_LerpFactor = pglGetUniformLocationARB( shader->handle, "u_LerpFactor" );

	push	OFFSET ??_C@_0N@BILMML@u_LerpFactor?$AA@
	mov	eax, DWORD PTR _shader$[ebp]
	mov	ecx, DWORD PTR [eax+576]
	push	ecx
	call	DWORD PTR ?pglGetUniformLocationARB@@3P6GHIPBD@ZA ; pglGetUniformLocationARB
	mov	edx, DWORD PTR _shader$[ebp]
	mov	DWORD PTR [edx+812], eax

; 714  : 		shader->u_BoxMins = pglGetUniformLocationARB( shader->handle, "u_BoxMins" );

	push	OFFSET ??_C@_09PANPMJKM@u_BoxMins?$AA@
	mov	eax, DWORD PTR _shader$[ebp]
	mov	ecx, DWORD PTR [eax+576]
	push	ecx
	call	DWORD PTR ?pglGetUniformLocationARB@@3P6GHIPBD@ZA ; pglGetUniformLocationARB
	mov	edx, DWORD PTR _shader$[ebp]
	mov	DWORD PTR [edx+872], eax

; 715  : 		shader->u_BoxMaxs = pglGetUniformLocationARB( shader->handle, "u_BoxMaxs" );

	push	OFFSET ??_C@_09CNMADOIB@u_BoxMaxs?$AA@
	mov	eax, DWORD PTR _shader$[ebp]
	mov	ecx, DWORD PTR [eax+576]
	push	ecx
	call	DWORD PTR ?pglGetUniformLocationARB@@3P6GHIPBD@ZA ; pglGetUniformLocationARB
	mov	edx, DWORD PTR _shader$[ebp]
	mov	DWORD PTR [edx+876], eax

; 716  : 		shader->u_ReflectScale = pglGetUniformLocationARB( shader->handle, "u_ReflectScale" );

	push	OFFSET ??_C@_0P@BIBHBLHM@u_ReflectScale?$AA@
	mov	eax, DWORD PTR _shader$[ebp]
	mov	ecx, DWORD PTR [eax+576]
	push	ecx
	call	DWORD PTR ?pglGetUniformLocationARB@@3P6GHIPBD@ZA ; pglGetUniformLocationARB
	mov	edx, DWORD PTR _shader$[ebp]
	mov	DWORD PTR [edx+852], eax
$LN3@GL_InitSol:

; 717  : 	}
; 718  : 
; 719  : 	if( GL_FindShaderDirective( shader, "BMODEL_INTERIOR" ) )

	push	OFFSET ??_C@_0BA@ELFGANLK@BMODEL_INTERIOR?$AA@
	mov	eax, DWORD PTR _shader$[ebp]
	push	eax
	call	?GL_FindShaderDirective@@YA_NPAUglsl_prog_s@@PBD@Z ; GL_FindShaderDirective
	add	esp, 8
	movzx	ecx, al
	test	ecx, ecx
	je	SHORT $LN4@GL_InitSol

; 720  : 	{
; 721  : 		shader->u_InteriorMap = pglGetUniformLocationARB( shader->handle, "u_InteriorMap" );

	push	OFFSET ??_C@_0O@KNPDKBPI@u_InteriorMap?$AA@
	mov	eax, DWORD PTR _shader$[ebp]
	mov	ecx, DWORD PTR [eax+576]
	push	ecx
	call	DWORD PTR ?pglGetUniformLocationARB@@3P6GHIPBD@ZA ; pglGetUniformLocationARB
	mov	edx, DWORD PTR _shader$[ebp]
	mov	DWORD PTR [edx+660], eax

; 722  : 		shader->u_RealTime = pglGetUniformLocationARB( shader->handle, "u_RealTime" );

	push	OFFSET ??_C@_0L@BGHCDECL@u_RealTime?$AA@
	mov	eax, DWORD PTR _shader$[ebp]
	mov	ecx, DWORD PTR [eax+576]
	push	ecx
	call	DWORD PTR ?pglGetUniformLocationARB@@3P6GHIPBD@ZA ; pglGetUniformLocationARB
	mov	edx, DWORD PTR _shader$[ebp]
	mov	DWORD PTR [edx+868], eax

; 723  : 		shader->u_InteriorGrid = pglGetUniformLocationARB( shader->handle, "u_InteriorGrid" );

	push	OFFSET ??_C@_0P@KJLBFPAD@u_InteriorGrid?$AA@
	mov	eax, DWORD PTR _shader$[ebp]
	mov	ecx, DWORD PTR [eax+576]
	push	ecx
	call	DWORD PTR ?pglGetUniformLocationARB@@3P6GHIPBD@ZA ; pglGetUniformLocationARB
	mov	edx, DWORD PTR _shader$[ebp]
	mov	DWORD PTR [edx+664], eax

; 724  : 		shader->u_InteriorLightState = pglGetUniformLocationARB( shader->handle, "u_InteriorLightState" );

	push	OFFSET ??_C@_0BF@HKDFFBEE@u_InteriorLightState?$AA@
	mov	eax, DWORD PTR _shader$[ebp]
	mov	ecx, DWORD PTR [eax+576]
	push	ecx
	call	DWORD PTR ?pglGetUniformLocationARB@@3P6GHIPBD@ZA ; pglGetUniformLocationARB
	mov	edx, DWORD PTR _shader$[ebp]
	mov	DWORD PTR [edx+668], eax
	jmp	$LN5@GL_InitSol
$LN4@GL_InitSol:

; 725  : 	}
; 726  : 	else if( GL_FindShaderDirective( shader, "BMODEL_REFLECTION_PLANAR" ) || GL_FindShaderDirective( shader, "BMODEL_WATER_PLANAR" ) )

	push	OFFSET ??_C@_0BJ@JCIGHEFN@BMODEL_REFLECTION_PLANAR?$AA@
	mov	eax, DWORD PTR _shader$[ebp]
	push	eax
	call	?GL_FindShaderDirective@@YA_NPAUglsl_prog_s@@PBD@Z ; GL_FindShaderDirective
	add	esp, 8
	movzx	ecx, al
	test	ecx, ecx
	jne	SHORT $LN7@GL_InitSol
	push	OFFSET ??_C@_0BE@LOJOFLMK@BMODEL_WATER_PLANAR?$AA@
	mov	eax, DWORD PTR _shader$[ebp]
	push	eax
	call	?GL_FindShaderDirective@@YA_NPAUglsl_prog_s@@PBD@Z ; GL_FindShaderDirective
	add	esp, 8
	movzx	ecx, al
	test	ecx, ecx
	je	SHORT $LN5@GL_InitSol
$LN7@GL_InitSol:

; 727  : 	{
; 728  : 		shader->u_PlanarReflectScale = pglGetUniformLocationARB( shader->handle, "u_PlanarReflectScale" );

	push	OFFSET ??_C@_0BF@HOPHCIFE@u_PlanarReflectScale?$AA@
	mov	eax, DWORD PTR _shader$[ebp]
	mov	ecx, DWORD PTR [eax+576]
	push	ecx
	call	DWORD PTR ?pglGetUniformLocationARB@@3P6GHIPBD@ZA ; pglGetUniformLocationARB
	mov	edx, DWORD PTR _shader$[ebp]
	mov	DWORD PTR [edx+856], eax

; 729  : 		if( GL_FindShaderDirective( shader, "BMODEL_WATER_PLANAR" ) )

	push	OFFSET ??_C@_0BE@LOJOFLMK@BMODEL_WATER_PLANAR?$AA@
	mov	eax, DWORD PTR _shader$[ebp]
	push	eax
	call	?GL_FindShaderDirective@@YA_NPAUglsl_prog_s@@PBD@Z ; GL_FindShaderDirective
	add	esp, 8
	movzx	ecx, al
	test	ecx, ecx
	je	SHORT $LN5@GL_InitSol

; 730  : 			shader->u_WaterTex = pglGetUniformLocationARB( shader->handle, "u_WaterTex" );

	push	OFFSET ??_C@_0L@HHPJFKED@u_WaterTex?$AA@
	mov	eax, DWORD PTR _shader$[ebp]
	mov	ecx, DWORD PTR [eax+576]
	push	ecx
	call	DWORD PTR ?pglGetUniformLocationARB@@3P6GHIPBD@ZA ; pglGetUniformLocationARB
	mov	edx, DWORD PTR _shader$[ebp]
	mov	DWORD PTR [edx+652], eax
$LN5@GL_InitSol:

; 731  : 	}
; 732  : 
; 733  : 	shader->u_ViewOrigin = pglGetUniformLocationARB( shader->handle, "u_ViewOrigin" );

	push	OFFSET ??_C@_0N@GOCFBCHC@u_ViewOrigin?$AA@
	mov	eax, DWORD PTR _shader$[ebp]
	mov	ecx, DWORD PTR [eax+576]
	push	ecx
	call	DWORD PTR ?pglGetUniformLocationARB@@3P6GHIPBD@ZA ; pglGetUniformLocationARB
	mov	edx, DWORD PTR _shader$[ebp]
	mov	DWORD PTR [edx+800], eax

; 734  : 	shader->u_DeluxeMap = pglGetUniformLocationARB( shader->handle, "u_DeluxeMap" );

	push	OFFSET ??_C@_0M@NCMDOAEP@u_DeluxeMap?$AA@
	mov	eax, DWORD PTR _shader$[ebp]
	mov	ecx, DWORD PTR [eax+576]
	push	ecx
	call	DWORD PTR ?pglGetUniformLocationARB@@3P6GHIPBD@ZA ; pglGetUniformLocationARB
	mov	edx, DWORD PTR _shader$[ebp]
	mov	DWORD PTR [edx+624], eax

; 735  : 	shader->u_GlossScale = pglGetUniformLocationARB( shader->handle, "u_GlossScale" );

	push	OFFSET ??_C@_0N@NPMHADLB@u_GlossScale?$AA@
	mov	eax, DWORD PTR _shader$[ebp]
	mov	ecx, DWORD PTR [eax+576]
	push	ecx
	call	DWORD PTR ?pglGetUniformLocationARB@@3P6GHIPBD@ZA ; pglGetUniformLocationARB
	mov	edx, DWORD PTR _shader$[ebp]
	mov	DWORD PTR [edx+916], eax

; 736  : 	shader->u_GlossSmoothness = pglGetUniformLocationARB( shader->handle, "u_GlossSmoothness" );

	push	OFFSET ??_C@_0BC@KIIHBDPB@u_GlossSmoothness?$AA@
	mov	eax, DWORD PTR _shader$[ebp]
	mov	ecx, DWORD PTR [eax+576]
	push	ecx
	call	DWORD PTR ?pglGetUniformLocationARB@@3P6GHIPBD@ZA ; pglGetUniformLocationARB
	mov	edx, DWORD PTR _shader$[ebp]
	mov	DWORD PTR [edx+920], eax

; 737  : 	shader->u_EmbossScale = pglGetUniformLocationARB( shader->handle, "u_EmbossScale" );

	push	OFFSET ??_C@_0O@HKDACOHC@u_EmbossScale?$AA@
	mov	eax, DWORD PTR _shader$[ebp]
	mov	ecx, DWORD PTR [eax+576]
	push	ecx
	call	DWORD PTR ?pglGetUniformLocationARB@@3P6GHIPBD@ZA ; pglGetUniformLocationARB
	mov	edx, DWORD PTR _shader$[ebp]
	mov	DWORD PTR [edx+924], eax

; 738  : 
; 739  : 	if( GL_FindShaderDirective( shader, "BMODEL_MULTI_LAYERS" ))

	push	OFFSET ??_C@_0BE@FBBOMMAP@BMODEL_MULTI_LAYERS?$AA@
	mov	eax, DWORD PTR _shader$[ebp]
	push	eax
	call	?GL_FindShaderDirective@@YA_NPAUglsl_prog_s@@PBD@Z ; GL_FindShaderDirective
	add	esp, 8
	movzx	ecx, al
	test	ecx, ecx
	je	SHORT $LN9@GL_InitSol

; 740  : 		shader->u_LayerMap = pglGetUniformLocationARB( shader->handle, "u_LayerMap" );

	push	OFFSET ??_C@_0L@NKHKNNOO@u_LayerMap?$AA@
	mov	eax, DWORD PTR _shader$[ebp]
	mov	ecx, DWORD PTR [eax+576]
	push	ecx
	call	DWORD PTR ?pglGetUniformLocationARB@@3P6GHIPBD@ZA ; pglGetUniformLocationARB
	mov	edx, DWORD PTR _shader$[ebp]
	mov	DWORD PTR [edx+648], eax
$LN9@GL_InitSol:

; 741  : 
; 742  : 	shader->u_DepthMap = pglGetUniformLocationARB( shader->handle, "u_DepthMap" );

	push	OFFSET ??_C@_0L@JCKKGKMC@u_DepthMap?$AA@
	mov	eax, DWORD PTR _shader$[ebp]
	mov	ecx, DWORD PTR [eax+576]
	push	ecx
	call	DWORD PTR ?pglGetUniformLocationARB@@3P6GHIPBD@ZA ; pglGetUniformLocationARB
	mov	edx, DWORD PTR _shader$[ebp]
	mov	DWORD PTR [edx+592], eax

; 743  : 
; 744  : 	shader->u_LightStyleValues = pglGetUniformLocationARB( shader->handle, "u_LightStyleValues" );

	push	OFFSET ??_C@_0BD@NFOOODNK@u_LightStyleValues?$AA@
	mov	eax, DWORD PTR _shader$[ebp]
	mov	ecx, DWORD PTR [eax+576]
	push	ecx
	call	DWORD PTR ?pglGetUniformLocationARB@@3P6GHIPBD@ZA ; pglGetUniformLocationARB
	mov	edx, DWORD PTR _shader$[ebp]
	mov	DWORD PTR [edx+768], eax

; 745  : 	shader->u_ModelMatrix = pglGetUniformLocationARB( shader->handle, "u_ModelMatrix" );

	push	OFFSET ??_C@_0O@MBNOFNKO@u_ModelMatrix?$AA@
	mov	eax, DWORD PTR _shader$[ebp]
	mov	ecx, DWORD PTR [eax+576]
	push	ecx
	call	DWORD PTR ?pglGetUniformLocationARB@@3P6GHIPBD@ZA ; pglGetUniformLocationARB
	mov	edx, DWORD PTR _shader$[ebp]
	mov	DWORD PTR [edx+688], eax

; 746  : 	shader->u_DetailScale = pglGetUniformLocationARB( shader->handle, "u_DetailScale" );

	push	OFFSET ??_C@_0O@MFMJGIKB@u_DetailScale?$AA@
	mov	eax, DWORD PTR _shader$[ebp]
	mov	ecx, DWORD PTR [eax+576]
	push	ecx
	call	DWORD PTR ?pglGetUniformLocationARB@@3P6GHIPBD@ZA ; pglGetUniformLocationARB
	mov	edx, DWORD PTR _shader$[ebp]
	mov	DWORD PTR [edx+840], eax

; 747  : 	shader->u_TexOffset = pglGetUniformLocationARB( shader->handle, "u_TexOffset" );

	push	OFFSET ??_C@_0M@MGCFPBL@u_TexOffset?$AA@
	mov	eax, DWORD PTR _shader$[ebp]
	mov	ecx, DWORD PTR [eax+576]
	push	ecx
	call	DWORD PTR ?pglGetUniformLocationARB@@3P6GHIPBD@ZA ; pglGetUniformLocationARB
	mov	edx, DWORD PTR _shader$[ebp]
	mov	DWORD PTR [edx+860], eax

; 748  : 	shader->u_FogParams = pglGetUniformLocationARB( shader->handle, "u_FogParams" );

	push	OFFSET ??_C@_0M@LNDNBCGB@u_FogParams?$AA@
	mov	eax, DWORD PTR _shader$[ebp]
	mov	ecx, DWORD PTR [eax+576]
	push	ecx
	call	DWORD PTR ?pglGetUniformLocationARB@@3P6GHIPBD@ZA ; pglGetUniformLocationARB
	mov	edx, DWORD PTR _shader$[ebp]
	mov	DWORD PTR [edx+788], eax

; 749  : 	shader->u_ScreenSizeInv = pglGetUniformLocationARB( shader->handle, "u_ScreenSizeInv" );

	push	OFFSET ??_C@_0BA@CNHIBBKL@u_ScreenSizeInv?$AA@
	mov	eax, DWORD PTR _shader$[ebp]
	mov	ecx, DWORD PTR [eax+576]
	push	ecx
	call	DWORD PTR ?pglGetUniformLocationARB@@3P6GHIPBD@ZA ; pglGetUniformLocationARB
	mov	edx, DWORD PTR _shader$[ebp]
	mov	DWORD PTR [edx+724], eax

; 750  : 	shader->u_RenderColor = pglGetUniformLocationARB( shader->handle, "u_RenderColor" );

	push	OFFSET ??_C@_0O@PDAILIH@u_RenderColor?$AA@
	mov	eax, DWORD PTR _shader$[ebp]
	mov	ecx, DWORD PTR [eax+576]
	push	ecx
	call	DWORD PTR ?pglGetUniformLocationARB@@3P6GHIPBD@ZA ; pglGetUniformLocationARB
	mov	edx, DWORD PTR _shader$[ebp]
	mov	DWORD PTR [edx+864], eax

; 751  : 	shader->u_zFar = pglGetUniformLocationARB( shader->handle, "u_zFar" );

	push	OFFSET ??_C@_06HIBKCAMD@u_zFar?$AA@
	mov	eax, DWORD PTR _shader$[ebp]
	mov	ecx, DWORD PTR [eax+576]
	push	ecx
	call	DWORD PTR ?pglGetUniformLocationARB@@3P6GHIPBD@ZA ; pglGetUniformLocationARB
	mov	edx, DWORD PTR _shader$[ebp]
	mov	DWORD PTR [edx+728], eax

; 752  : 
; 753  : 	GL_BindShader( shader );

	mov	eax, DWORD PTR _shader$[ebp]
	push	eax
	call	?GL_BindShader@@YAXPAUglsl_prog_s@@@Z	; GL_BindShader
	add	esp, 4

; 754  : 	pglUniform1iARB( shader->u_ColorMap, GL_TEXTURE0 );

	push	0
	mov	eax, DWORD PTR _shader$[ebp]
	mov	ecx, DWORD PTR [eax+588]
	push	ecx
	call	DWORD PTR ?pglUniform1iARB@@3P6GXHH@ZA	; pglUniform1iARB

; 755  : 	pglUniform1iARB( shader->u_DetailMap, GL_TEXTURE1 );

	push	1
	mov	eax, DWORD PTR _shader$[ebp]
	mov	ecx, DWORD PTR [eax+604]
	push	ecx
	call	DWORD PTR ?pglUniform1iARB@@3P6GXHH@ZA	; pglUniform1iARB

; 756  : 	pglUniform1iARB( shader->u_LightMap, GL_TEXTURE2 );

	push	2
	mov	eax, DWORD PTR _shader$[ebp]
	mov	ecx, DWORD PTR [eax+620]
	push	ecx
	call	DWORD PTR ?pglUniform1iARB@@3P6GXHH@ZA	; pglUniform1iARB

; 757  : 	pglUniform1iARB( shader->u_ScreenMap, GL_TEXTURE3 );

	push	3
	mov	eax, DWORD PTR _shader$[ebp]
	mov	ecx, DWORD PTR [eax+632]
	push	ecx
	call	DWORD PTR ?pglUniform1iARB@@3P6GXHH@ZA	; pglUniform1iARB

; 758  : 
; 759  : 	if( GL_FindShaderDirective( shader, "BMODEL_MULTI_LAYERS" ))

	push	OFFSET ??_C@_0BE@FBBOMMAP@BMODEL_MULTI_LAYERS?$AA@
	mov	eax, DWORD PTR _shader$[ebp]
	push	eax
	call	?GL_FindShaderDirective@@YA_NPAUglsl_prog_s@@PBD@Z ; GL_FindShaderDirective
	add	esp, 8
	movzx	ecx, al
	test	ecx, ecx
	je	SHORT $LN10@GL_InitSol

; 760  : 		pglUniform1iARB( shader->u_LayerMap, GL_TEXTURE4 );

	push	4
	mov	eax, DWORD PTR _shader$[ebp]
	mov	ecx, DWORD PTR [eax+648]
	push	ecx
	call	DWORD PTR ?pglUniform1iARB@@3P6GXHH@ZA	; pglUniform1iARB
$LN10@GL_InitSol:

; 761  : 
; 762  : 	pglUniform1iARB( shader->u_GlowMap, GL_TEXTURE5 );

	push	5
	mov	eax, DWORD PTR _shader$[ebp]
	mov	ecx, DWORD PTR [eax+644]
	push	ecx
	call	DWORD PTR ?pglUniform1iARB@@3P6GXHH@ZA	; pglUniform1iARB

; 763  : 	pglUniform1iARB( shader->u_NormalMap, GL_TEXTURE6 );

	push	6
	mov	eax, DWORD PTR _shader$[ebp]
	mov	ecx, DWORD PTR [eax+596]
	push	ecx
	call	DWORD PTR ?pglUniform1iARB@@3P6GXHH@ZA	; pglUniform1iARB

; 764  : 	pglUniform1iARB( shader->u_DepthMap, GL_TEXTURE7 );

	push	7
	mov	eax, DWORD PTR _shader$[ebp]
	mov	ecx, DWORD PTR [eax+592]
	push	ecx
	call	DWORD PTR ?pglUniform1iARB@@3P6GXHH@ZA	; pglUniform1iARB

; 765  : 	pglUniform1iARB( shader->u_DeluxeMap, GL_TEXTURE8 );

	push	8
	mov	eax, DWORD PTR _shader$[ebp]
	mov	ecx, DWORD PTR [eax+624]
	push	ecx
	call	DWORD PTR ?pglUniform1iARB@@3P6GXHH@ZA	; pglUniform1iARB

; 766  : 
; 767  : 	if( GL_FindShaderDirective( shader, "REFLECTION_CUBEMAP" ) )  // diffusioncubemaps

	push	OFFSET ??_C@_0BD@EMMENHMO@REFLECTION_CUBEMAP?$AA@
	mov	eax, DWORD PTR _shader$[ebp]
	push	eax
	call	?GL_FindShaderDirective@@YA_NPAUglsl_prog_s@@PBD@Z ; GL_FindShaderDirective
	add	esp, 8
	movzx	ecx, al
	test	ecx, ecx
	je	SHORT $LN11@GL_InitSol

; 768  : 	{
; 769  : 		pglUniform1iARB( shader->u_EnvMap0, GL_TEXTURE9 );

	push	9
	mov	eax, DWORD PTR _shader$[ebp]
	mov	ecx, DWORD PTR [eax+636]
	push	ecx
	call	DWORD PTR ?pglUniform1iARB@@3P6GXHH@ZA	; pglUniform1iARB

; 770  : 		pglUniform1iARB( shader->u_EnvMap1, GL_TEXTURE10 );

	push	10					; 0000000aH
	mov	eax, DWORD PTR _shader$[ebp]
	mov	ecx, DWORD PTR [eax+640]
	push	ecx
	call	DWORD PTR ?pglUniform1iARB@@3P6GXHH@ZA	; pglUniform1iARB
$LN11@GL_InitSol:

; 771  : 	}
; 772  : 
; 773  : 	if( GL_FindShaderDirective( shader, "BMODEL_INTERIOR" ) )

	push	OFFSET ??_C@_0BA@ELFGANLK@BMODEL_INTERIOR?$AA@
	mov	eax, DWORD PTR _shader$[ebp]
	push	eax
	call	?GL_FindShaderDirective@@YA_NPAUglsl_prog_s@@PBD@Z ; GL_FindShaderDirective
	add	esp, 8
	movzx	ecx, al
	test	ecx, ecx
	je	SHORT $LN12@GL_InitSol

; 774  : 		pglUniform1iARB( shader->u_InteriorMap, GL_TEXTURE11 );	

	push	11					; 0000000bH
	mov	eax, DWORD PTR _shader$[ebp]
	mov	ecx, DWORD PTR [eax+660]
	push	ecx
	call	DWORD PTR ?pglUniform1iARB@@3P6GXHH@ZA	; pglUniform1iARB
	jmp	SHORT $LN13@GL_InitSol
$LN12@GL_InitSol:

; 775  : 	else if( GL_FindShaderDirective( shader, "BMODEL_WATER_PLANAR" ) )

	push	OFFSET ??_C@_0BE@LOJOFLMK@BMODEL_WATER_PLANAR?$AA@
	mov	eax, DWORD PTR _shader$[ebp]
	push	eax
	call	?GL_FindShaderDirective@@YA_NPAUglsl_prog_s@@PBD@Z ; GL_FindShaderDirective
	add	esp, 8
	movzx	ecx, al
	test	ecx, ecx
	je	SHORT $LN13@GL_InitSol

; 776  : 		pglUniform1iARB( shader->u_WaterTex, GL_TEXTURE11 );

	push	11					; 0000000bH
	mov	eax, DWORD PTR _shader$[ebp]
	mov	ecx, DWORD PTR [eax+652]
	push	ecx
	call	DWORD PTR ?pglUniform1iARB@@3P6GXHH@ZA	; pglUniform1iARB
$LN13@GL_InitSol:

; 777  : 
; 778  : 	GL_BindShader( GL_NONE );

	push	0
	call	?GL_BindShader@@YAXPAUglsl_prog_s@@@Z	; GL_BindShader
	add	esp, 4

; 779  : 
; 780  : 	GL_ValidateProgram( shader );

	mov	eax, DWORD PTR _shader$[ebp]
	push	eax
	call	?GL_ValidateProgram@@YAXPAUglsl_prog_s@@@Z ; GL_ValidateProgram
	add	esp, 4

; 781  : 	GL_ShowProgramUniforms( shader );

	mov	eax, DWORD PTR _shader$[ebp]
	push	eax
	call	?GL_ShowProgramUniforms@@YAXPAUglsl_prog_s@@@Z ; GL_ShowProgramUniforms
	add	esp, 4

; 782  : }

	pop	edi
	pop	esi
	pop	ebx
	mov	esp, ebp
	pop	ebp
	ret	0
?GL_InitSolidBmodelUniforms@@YAXPAUglsl_prog_s@@@Z ENDP	; GL_InitSolidBmodelUniforms
_TEXT	ENDS
; Function compile flags: /Odtp /ZI
; File d:\!diffusion 2020\source code 2022\client-server\client\render\r_shader.cpp
;	COMDAT ?GL_FindShaderDirective@@YA_NPAUglsl_prog_s@@PBD@Z
_TEXT	SEGMENT
_shader$ = 8						; size = 4
_directive$ = 12					; size = 4
?GL_FindShaderDirective@@YA_NPAUglsl_prog_s@@PBD@Z PROC	; GL_FindShaderDirective, COMDAT

; 690  : {

	push	ebp
	mov	ebp, esp
	sub	esp, 64					; 00000040H
	push	ebx
	push	esi
	push	edi

; 691  : 	if( Q_stristr( shader->options, directive ))

	mov	eax, DWORD PTR _directive$[ebp]
	push	eax
	mov	ecx, DWORD PTR _shader$[ebp]
	add	ecx, 64					; 00000040H
	push	ecx
	call	?Q_stristr@@YAPADPBD0@Z			; Q_stristr
	add	esp, 8
	test	eax, eax
	je	SHORT $LN2@GL_FindSha

; 692  : 		return true;

	mov	al, 1
	jmp	SHORT $LN1@GL_FindSha
$LN2@GL_FindSha:

; 693  : 	return false;

	xor	al, al
$LN1@GL_FindSha:

; 694  : }

	pop	edi
	pop	esi
	pop	ebx
	mov	esp, ebp
	pop	ebp
	ret	0
?GL_FindShaderDirective@@YA_NPAUglsl_prog_s@@PBD@Z ENDP	; GL_FindShaderDirective
_TEXT	ENDS
; Function compile flags: /Odtp /ZI
; File d:\!diffusion 2020\source code 2022\client-server\client\render\r_shader.cpp
;	COMDAT ?GL_AddShaderDefine@@YAXPADPBD@Z
_TEXT	SEGMENT
_options$ = 8						; size = 4
_directive$ = 12					; size = 4
?GL_AddShaderDefine@@YAXPADPBD@Z PROC			; GL_AddShaderDefine, COMDAT

; 685  : {

	push	ebp
	mov	ebp, esp
	sub	esp, 64					; 00000040H
	push	ebx
	push	esi
	push	edi

; 686  : 	Q_strncat( options, directive, MAX_OPTIONS_LENGTH );

	push	512					; 00000200H
	mov	eax, DWORD PTR _directive$[ebp]
	push	eax
	mov	ecx, DWORD PTR _options$[ebp]
	push	ecx
	call	?Q_strncat@@YAIPADPBDI@Z		; Q_strncat
	add	esp, 12					; 0000000cH

; 687  : }

	pop	edi
	pop	esi
	pop	ebx
	mov	esp, ebp
	pop	ebp
	ret	0
?GL_AddShaderDefine@@YAXPADPBD@Z ENDP			; GL_AddShaderDefine
_TEXT	ENDS
; Function compile flags: /Odtp /ZI
; File d:\!diffusion 2020\source code 2022\client-server\client\render\r_shader.cpp
;	COMDAT ?GL_FindUberShader@@YAPAUglsl_prog_s@@PBD0P6AXPAU1@@Z@Z
_TEXT	SEGMENT
_prog$ = -16						; size = 4
_hash$ = -12						; size = 4
_i$ = -8						; size = 4
_find$ = -4						; size = 4
_glname$ = 8						; size = 4
_options$ = 12						; size = 4
_pfnInitUniforms$ = 16					; size = 4
?GL_FindUberShader@@YAPAUglsl_prog_s@@PBD0P6AXPAU1@@Z@Z PROC ; GL_FindUberShader, COMDAT

; 642  : {

	push	ebp
	mov	ebp, esp
	sub	esp, 80					; 00000050H
	push	ebx
	push	esi
	push	edi

; 643  : 	const char	*find;
; 644  : 	unsigned int	i, hash;
; 645  : 	glsl_program_t	*prog;
; 646  : 
; 647  : 	if( !GL_Support( R_SHADER_GLSL100_EXT ))

	push	10					; 0000000aH
	call	?GL_Support@@YA_NH@Z			; GL_Support
	add	esp, 4
	movzx	eax, al
	test	eax, eax
	jne	SHORT $LN8@GL_FindUbe

; 648  : 		return NULL;

	xor	eax, eax
	jmp	$LN1@GL_FindUbe
$LN8@GL_FindUbe:

; 649  : 
; 650  : 	ASSERT( glname != NULL );

	cmp	DWORD PTR _glname$[ebp], 0
	jne	SHORT $LN9@GL_FindUbe
	mov	eax, DWORD PTR ?__LINE__Var@?0??GL_FindUberShader@@YAPAUglsl_prog_s@@PBD0P6AXPAU2@@Z@Z@4JA
	add	eax, 8
	push	eax
	push	OFFSET ??_C@_0EN@DPFBEFBL@d?3?2?$CBdiffusion?52020?2source?5code?52@
	push	OFFSET ??_C@_0BI@FECCGOFJ@assert?5failed?5at?5?$CFs?3?$CFi?6?$AA@
	call	DWORD PTR ?gRenderfuncs@@3Urender_api_s@@A+236
	add	esp, 12					; 0000000cH
$LN9@GL_FindUbe:

; 651  : 
; 652  : 	find = va( "%s %s", glname, options );

	mov	eax, DWORD PTR _options$[ebp]
	push	eax
	mov	ecx, DWORD PTR _glname$[ebp]
	push	ecx
	push	OFFSET ??_C@_05DNIIFBMG@?$CFs?5?$CFs?$AA@
	call	?va@@YAPADPBDZZ				; va
	add	esp, 12					; 0000000cH
	mov	DWORD PTR _find$[ebp], eax

; 653  : 	hash = COM_HashKey( find, SHADERS_HASH_SIZE );

	push	128					; 00000080H
	mov	eax, DWORD PTR _find$[ebp]
	push	eax
	call	?COM_HashKey@@YAIPBDI@Z			; COM_HashKey
	add	esp, 8
	mov	DWORD PTR _hash$[ebp], eax

; 654  : 
; 655  : 	// check for coexist
; 656  : 	for( prog = glsl_programsHashTable[hash]; prog != NULL; prog = prog->nextHash )

	mov	eax, DWORD PTR _hash$[ebp]
	mov	ecx, DWORD PTR ?glsl_programsHashTable@@3PAPAUglsl_prog_s@@A[eax*4]
	mov	DWORD PTR _prog$[ebp], ecx
	jmp	SHORT $LN4@GL_FindUbe
$LN2@GL_FindUbe:
	mov	eax, DWORD PTR _prog$[ebp]
	mov	ecx, DWORD PTR [eax+584]
	mov	DWORD PTR _prog$[ebp], ecx
$LN4@GL_FindUbe:
	cmp	DWORD PTR _prog$[ebp], 0
	je	SHORT $LN3@GL_FindUbe

; 657  : 	{
; 658  : 		if( !Q_strcmp( prog->name, glname ) && !Q_strcmp( prog->options, options ))

	push	99999					; 0001869fH
	mov	eax, DWORD PTR _glname$[ebp]
	push	eax
	mov	ecx, DWORD PTR _prog$[ebp]
	push	ecx
	call	?Q_strncmp@@YAHPBD0H@Z			; Q_strncmp
	add	esp, 12					; 0000000cH
	test	eax, eax
	jne	SHORT $LN10@GL_FindUbe
	push	99999					; 0001869fH
	mov	eax, DWORD PTR _options$[ebp]
	push	eax
	mov	ecx, DWORD PTR _prog$[ebp]
	add	ecx, 64					; 00000040H
	push	ecx
	call	?Q_strncmp@@YAHPBD0H@Z			; Q_strncmp
	add	esp, 12					; 0000000cH
	test	eax, eax
	jne	SHORT $LN10@GL_FindUbe

; 659  : 			return prog;

	mov	eax, DWORD PTR _prog$[ebp]
	jmp	$LN1@GL_FindUbe
$LN10@GL_FindUbe:

; 660  : 	}

	jmp	SHORT $LN2@GL_FindUbe
$LN3@GL_FindUbe:

; 661  : 
; 662  : 	// find free spot
; 663  : 	for( i = 1; i < num_glsl_programs; i++ )

	mov	DWORD PTR _i$[ebp], 1
	jmp	SHORT $LN7@GL_FindUbe
$LN5@GL_FindUbe:
	mov	eax, DWORD PTR _i$[ebp]
	add	eax, 1
	mov	DWORD PTR _i$[ebp], eax
$LN7@GL_FindUbe:
	mov	eax, DWORD PTR _i$[ebp]
	cmp	eax, DWORD PTR ?num_glsl_programs@@3IA	; num_glsl_programs
	jae	SHORT $LN6@GL_FindUbe

; 664  : 		if( !glsl_programs[i].name[0] )

	imul	eax, DWORD PTR _i$[ebp], 972
	mov	ecx, 1
	imul	edx, ecx, 0
	movsx	eax, BYTE PTR ?glsl_programs@@3PAUglsl_prog_s@@A[eax+edx]
	test	eax, eax
	jne	SHORT $LN11@GL_FindUbe

; 665  : 			break;

	jmp	SHORT $LN6@GL_FindUbe
$LN11@GL_FindUbe:

; 666  : 
; 667  : 	prog = GL_CreateUberShader( i, glname, options, pfnInitUniforms );

	jmp	SHORT $LN5@GL_FindUbe
$LN6@GL_FindUbe:
	mov	eax, DWORD PTR _pfnInitUniforms$[ebp]
	push	eax
	mov	ecx, DWORD PTR _options$[ebp]
	push	ecx
	mov	edx, DWORD PTR _glname$[ebp]
	push	edx
	mov	eax, DWORD PTR _i$[ebp]
	push	eax
	call	?GL_CreateUberShader@@YAPAUglsl_prog_s@@IPBD0P6AXPAU1@@Z@Z ; GL_CreateUberShader
	add	esp, 16					; 00000010H
	mov	DWORD PTR _prog$[ebp], eax

; 668  : 
; 669  : 	if( prog != NULL )

	cmp	DWORD PTR _prog$[ebp], 0
	je	SHORT $LN12@GL_FindUbe

; 670  : 	{
; 671  : 		// add to hash table
; 672  : 		prog->nextHash = glsl_programsHashTable[hash];

	mov	eax, DWORD PTR _prog$[ebp]
	mov	ecx, DWORD PTR _hash$[ebp]
	mov	edx, DWORD PTR ?glsl_programsHashTable@@3PAPAUglsl_prog_s@@A[ecx*4]
	mov	DWORD PTR [eax+584], edx

; 673  : 		glsl_programsHashTable[hash] = prog;

	mov	eax, DWORD PTR _hash$[ebp]
	mov	ecx, DWORD PTR _prog$[ebp]
	mov	DWORD PTR ?glsl_programsHashTable@@3PAPAUglsl_prog_s@@A[eax*4], ecx
$LN12@GL_FindUbe:

; 674  : 	}
; 675  : 
; 676  : 	return prog;

	mov	eax, DWORD PTR _prog$[ebp]
$LN1@GL_FindUbe:

; 677  : }

	pop	edi
	pop	esi
	pop	ebx
	mov	esp, ebp
	pop	ebp
	ret	0
?GL_FindUberShader@@YAPAUglsl_prog_s@@PBD0P6AXPAU1@@Z@Z ENDP ; GL_FindUberShader
_TEXT	ENDS
; Function compile flags: /Odtp /ZI
; File d:\!diffusion 2020\source code 2022\client-server\client\render\r_shader.cpp
;	COMDAT ?GL_CreateUberShader@@YAPAUglsl_prog_s@@IPBD0P6AXPAU1@@Z@Z
_TEXT	SEGMENT
_shader$ = -4						; size = 4
_slot$ = 8						; size = 4
_glname$ = 12						; size = 4
_options$ = 16						; size = 4
_pfnInitUniforms$ = 20					; size = 4
?GL_CreateUberShader@@YAPAUglsl_prog_s@@IPBD0P6AXPAU1@@Z@Z PROC ; GL_CreateUberShader, COMDAT

; 578  : {

	push	ebp
	mov	ebp, esp
	sub	esp, 68					; 00000044H
	push	ebx
	push	esi
	push	edi

; 579  : 	if( !GL_Support( R_SHADER_GLSL100_EXT ))

	push	10					; 0000000aH
	call	?GL_Support@@YA_NH@Z			; GL_Support
	add	esp, 4
	movzx	eax, al
	test	eax, eax
	jne	SHORT $LN2@GL_CreateU

; 580  : 		return NULL;

	xor	eax, eax
	jmp	$LN1@GL_CreateU
$LN2@GL_CreateU:

; 581  : 
; 582  : 	if( num_glsl_programs >= MAX_GLSL_PROGRAMS )

	cmp	DWORD PTR ?num_glsl_programs@@3IA, 512	; num_glsl_programs, 00000200H
	jb	SHORT $LN3@GL_CreateU

; 583  : 	{
; 584  : 		ALERT( at_error, "GL_CreateUberShader: GLSL shaders limit exceeded (%i max)\n", MAX_GLSL_PROGRAMS );

	push	512					; 00000200H
	push	OFFSET ??_C@_0DL@DKJDPAJN@GL_CreateUberShader?3?5GLSL?5shader@
	push	4
	call	?ALERT@@YAXW4ALERT_TYPE@@PADZZ		; ALERT
	add	esp, 12					; 0000000cH

; 585  : 		return NULL;

	xor	eax, eax
	jmp	$LN1@GL_CreateU
$LN3@GL_CreateU:

; 586  : 	}
; 587  : 
; 588  : 	// alloc new shader
; 589  : 	glsl_program_t *shader = &glsl_programs[slot];

	imul	eax, DWORD PTR _slot$[ebp], 972
	add	eax, OFFSET ?glsl_programs@@3PAUglsl_prog_s@@A ; glsl_programs
	mov	DWORD PTR _shader$[ebp], eax

; 590  : 
; 591  : 	shader->handle = pglCreateProgramObjectARB();

	call	DWORD PTR ?pglCreateProgramObjectARB@@3P6GIXZA ; pglCreateProgramObjectARB
	mov	ecx, DWORD PTR _shader$[ebp]
	mov	DWORD PTR [ecx+576], eax

; 592  : 	if( !shader->handle ) return NULL; // some bad happens

	mov	eax, DWORD PTR _shader$[ebp]
	cmp	DWORD PTR [eax+576], 0
	jne	SHORT $LN4@GL_CreateU
	xor	eax, eax
	jmp	$LN1@GL_CreateU
$LN4@GL_CreateU:

; 593  : 
; 594  : 	Q_strncpy( shader->name, glname, sizeof( shader->name ));

	push	64					; 00000040H
	mov	eax, DWORD PTR _glname$[ebp]
	push	eax
	mov	ecx, DWORD PTR _shader$[ebp]
	push	ecx
	call	?Q_strncpy@@YAIPADPBDI@Z		; Q_strncpy
	add	esp, 12					; 0000000cH

; 595  : 	Q_strncpy( shader->options, options, sizeof( shader->options ));

	push	512					; 00000200H
	mov	eax, DWORD PTR _options$[ebp]
	push	eax
	mov	ecx, DWORD PTR _shader$[ebp]
	add	ecx, 64					; 00000040H
	push	ecx
	call	?Q_strncpy@@YAIPADPBDI@Z		; Q_strncpy
	add	esp, 12					; 0000000cH

; 596  : 
; 597  : 	GL_LoadGPUShader( shader, glname, GL_VERTEX_SHADER_ARB, true, options );

	mov	eax, DWORD PTR _options$[ebp]
	push	eax
	push	1
	push	35633					; 00008b31H
	mov	ecx, DWORD PTR _glname$[ebp]
	push	ecx
	mov	edx, DWORD PTR _shader$[ebp]
	push	edx
	call	?GL_LoadGPUShader@@YAXPAUglsl_prog_s@@PBDI_N1@Z ; GL_LoadGPUShader
	add	esp, 20					; 00000014H

; 598  : 	GL_LoadGPUShader( shader, glname, GL_FRAGMENT_SHADER_ARB, true, options );

	mov	eax, DWORD PTR _options$[ebp]
	push	eax
	push	1
	push	35632					; 00008b30H
	mov	ecx, DWORD PTR _glname$[ebp]
	push	ecx
	mov	edx, DWORD PTR _shader$[ebp]
	push	edx
	call	?GL_LoadGPUShader@@YAXPAUglsl_prog_s@@PBDI_N1@Z ; GL_LoadGPUShader
	add	esp, 20					; 00000014H

; 599  : 
; 600  : 	if( FBitSet( shader->status, SHADER_VERTEX_COMPILED ))

	mov	eax, DWORD PTR _shader$[ebp]
	movzx	ecx, WORD PTR [eax+580]
	and	ecx, 1
	je	$LN5@GL_CreateU

; 601  : 	{
; 602  : 		pglBindAttribLocationARB( shader->handle, ATTR_INDEX_POSITION, "attr_Position" );

	push	OFFSET ??_C@_0O@PHKNCBPO@attr_Position?$AA@
	push	0
	mov	eax, DWORD PTR _shader$[ebp]
	mov	ecx, DWORD PTR [eax+576]
	push	ecx
	call	DWORD PTR ?pglBindAttribLocationARB@@3P6GXIIPBD@ZA ; pglBindAttribLocationARB

; 603  : 		pglBindAttribLocationARB( shader->handle, ATTR_INDEX_TEXCOORD0, "attr_TexCoord0" );

	push	OFFSET ??_C@_0P@GGGDBJMF@attr_TexCoord0?$AA@
	push	4
	mov	eax, DWORD PTR _shader$[ebp]
	mov	ecx, DWORD PTR [eax+576]
	push	ecx
	call	DWORD PTR ?pglBindAttribLocationARB@@3P6GXIIPBD@ZA ; pglBindAttribLocationARB

; 604  : 		pglBindAttribLocationARB( shader->handle, ATTR_INDEX_TEXCOORD1, "attr_TexCoord1" );

	push	OFFSET ??_C@_0P@HPHICIIE@attr_TexCoord1?$AA@
	push	5
	mov	eax, DWORD PTR _shader$[ebp]
	mov	ecx, DWORD PTR [eax+576]
	push	ecx
	call	DWORD PTR ?pglBindAttribLocationARB@@3P6GXIIPBD@ZA ; pglBindAttribLocationARB

; 605  : 		pglBindAttribLocationARB( shader->handle, ATTR_INDEX_TEXCOORD2, "attr_TexCoord2" );

	push	OFFSET ??_C@_0P@FEFFHLEH@attr_TexCoord2?$AA@
	push	6
	mov	eax, DWORD PTR _shader$[ebp]
	mov	ecx, DWORD PTR [eax+576]
	push	ecx
	call	DWORD PTR ?pglBindAttribLocationARB@@3P6GXIIPBD@ZA ; pglBindAttribLocationARB

; 606  : 		pglBindAttribLocationARB( shader->handle, ATTR_INDEX_NORMAL, "attr_Normal" );

	push	OFFSET ??_C@_0M@PDECLNDL@attr_Normal?$AA@
	push	3
	mov	eax, DWORD PTR _shader$[ebp]
	mov	ecx, DWORD PTR [eax+576]
	push	ecx
	call	DWORD PTR ?pglBindAttribLocationARB@@3P6GXIIPBD@ZA ; pglBindAttribLocationARB

; 607  : 		pglBindAttribLocationARB( shader->handle, ATTR_INDEX_BONE_INDEXES, "attr_BoneIndexes" );

	push	OFFSET ??_C@_0BB@GNBIAMMJ@attr_BoneIndexes?$AA@
	push	7
	mov	eax, DWORD PTR _shader$[ebp]
	mov	ecx, DWORD PTR [eax+576]
	push	ecx
	call	DWORD PTR ?pglBindAttribLocationARB@@3P6GXIIPBD@ZA ; pglBindAttribLocationARB

; 608  : 		pglBindAttribLocationARB( shader->handle, ATTR_INDEX_BONE_WEIGHTS, "attr_BoneWeights" );

	push	OFFSET ??_C@_0BB@ININKFEM@attr_BoneWeights?$AA@
	push	8
	mov	eax, DWORD PTR _shader$[ebp]
	mov	ecx, DWORD PTR [eax+576]
	push	ecx
	call	DWORD PTR ?pglBindAttribLocationARB@@3P6GXIIPBD@ZA ; pglBindAttribLocationARB

; 609  : 		pglBindAttribLocationARB( shader->handle, ATTR_INDEX_LIGHT_STYLES, "attr_LightStyles" );

	push	OFFSET ??_C@_0BB@MPAHODOH@attr_LightStyles?$AA@
	push	9
	mov	eax, DWORD PTR _shader$[ebp]
	mov	ecx, DWORD PTR [eax+576]
	push	ecx
	call	DWORD PTR ?pglBindAttribLocationARB@@3P6GXIIPBD@ZA ; pglBindAttribLocationARB

; 610  : 		pglBindAttribLocationARB( shader->handle, ATTR_INDEX_LIGHT_COLOR, "attr_LightColor" );

	push	OFFSET ??_C@_0BA@JOGHNK@attr_LightColor?$AA@
	push	10					; 0000000aH
	mov	eax, DWORD PTR _shader$[ebp]
	mov	ecx, DWORD PTR [eax+576]
	push	ecx
	call	DWORD PTR ?pglBindAttribLocationARB@@3P6GXIIPBD@ZA ; pglBindAttribLocationARB

; 611  : 		pglBindAttribLocationARB( shader->handle, ATTR_INDEX_LIGHT_VECS, "attr_LightVecs" );

	push	OFFSET ??_C@_0P@KPKCIOG@attr_LightVecs?$AA@
	push	11					; 0000000bH
	mov	eax, DWORD PTR _shader$[ebp]
	mov	ecx, DWORD PTR [eax+576]
	push	ecx
	call	DWORD PTR ?pglBindAttribLocationARB@@3P6GXIIPBD@ZA ; pglBindAttribLocationARB

; 612  : 		pglBindAttribLocationARB( shader->handle, ATTR_INDEX_TANGENT, "attr_Tangent" );

	push	OFFSET ??_C@_0N@PFKNNIKN@attr_Tangent?$AA@
	push	1
	mov	eax, DWORD PTR _shader$[ebp]
	mov	ecx, DWORD PTR [eax+576]
	push	ecx
	call	DWORD PTR ?pglBindAttribLocationARB@@3P6GXIIPBD@ZA ; pglBindAttribLocationARB

; 613  : 		pglBindAttribLocationARB( shader->handle, ATTR_INDEX_BINORMAL, "attr_Binormal" );

	push	OFFSET ??_C@_0O@FLCOHBOC@attr_Binormal?$AA@
	push	2
	mov	eax, DWORD PTR _shader$[ebp]
	mov	ecx, DWORD PTR [eax+576]
	push	ecx
	call	DWORD PTR ?pglBindAttribLocationARB@@3P6GXIIPBD@ZA ; pglBindAttribLocationARB
$LN5@GL_CreateU:

; 614  : 	}
; 615  : 
; 616  : 	GL_LinkProgram( shader );

	mov	eax, DWORD PTR _shader$[ebp]
	push	eax
	call	?GL_LinkProgram@@YAXPAUglsl_prog_s@@@Z	; GL_LinkProgram
	add	esp, 4

; 617  : 
; 618  : 	if( pfnInitUniforms != NULL && FBitSet( shader->status, SHADER_PROGRAM_LINKED ))

	cmp	DWORD PTR _pfnInitUniforms$[ebp], 0
	je	SHORT $LN6@GL_CreateU
	mov	eax, DWORD PTR _shader$[ebp]
	movzx	ecx, WORD PTR [eax+580]
	and	ecx, 4
	je	SHORT $LN6@GL_CreateU

; 619  : 		pfnInitUniforms( shader ); // register shader uniforms

	mov	eax, DWORD PTR _shader$[ebp]
	push	eax
	call	DWORD PTR _pfnInitUniforms$[ebp]
	add	esp, 4
$LN6@GL_CreateU:

; 620  : 
; 621  : 	shader->status |= SHADER_UBERSHADER; // it's UberShader!

	mov	eax, DWORD PTR _shader$[ebp]
	movzx	ecx, WORD PTR [eax+580]
	or	ecx, 8
	mov	edx, DWORD PTR _shader$[ebp]
	mov	WORD PTR [edx+580], cx

; 622  : 
; 623  : 	ALERT( at_aiconsole, "CompileUberShader #%i: %s\n%s\n", slot, glname, options );

	mov	eax, DWORD PTR _options$[ebp]
	push	eax
	mov	ecx, DWORD PTR _glname$[ebp]
	push	ecx
	mov	edx, DWORD PTR _slot$[ebp]
	push	edx
	push	OFFSET ??_C@_0BO@IEPPONL@CompileUberShader?5?$CD?$CFi?3?5?$CFs?6?$CFs?6?$AA@
	push	2
	call	?ALERT@@YAXW4ALERT_TYPE@@PADZZ		; ALERT
	add	esp, 20					; 00000014H

; 624  : 
; 625  : 	if( slot == num_glsl_programs )

	mov	eax, DWORD PTR _slot$[ebp]
	cmp	eax, DWORD PTR ?num_glsl_programs@@3IA	; num_glsl_programs
	jne	SHORT $LN7@GL_CreateU

; 626  : 	{
; 627  : 		if( num_glsl_programs == MAX_GLSL_PROGRAMS )

	cmp	DWORD PTR ?num_glsl_programs@@3IA, 512	; num_glsl_programs, 00000200H
	jne	SHORT $LN8@GL_CreateU

; 628  : 		{
; 629  : 			ALERT( at_error, "GL_CreateUberShader: GLSL shaders limit exceeded (%i max)\n", MAX_GLSL_PROGRAMS );

	push	512					; 00000200H
	push	OFFSET ??_C@_0DL@DKJDPAJN@GL_CreateUberShader?3?5GLSL?5shader@
	push	4
	call	?ALERT@@YAXW4ALERT_TYPE@@PADZZ		; ALERT
	add	esp, 12					; 0000000cH

; 630  : 			GL_FreeGPUShader( shader );

	mov	eax, DWORD PTR _shader$[ebp]
	push	eax
	call	?GL_FreeGPUShader@@YAXPAUglsl_prog_s@@@Z ; GL_FreeGPUShader
	add	esp, 4

; 631  : 			return NULL;

	xor	eax, eax
	jmp	SHORT $LN1@GL_CreateU
$LN8@GL_CreateU:

; 632  : 		}
; 633  : 		num_glsl_programs++;

	mov	eax, DWORD PTR ?num_glsl_programs@@3IA	; num_glsl_programs
	add	eax, 1
	mov	DWORD PTR ?num_glsl_programs@@3IA, eax	; num_glsl_programs
$LN7@GL_CreateU:

; 634  : 	}
; 635  : 
; 636  : 	// all done, program is loaded
; 637  : 
; 638  : 	return shader;

	mov	eax, DWORD PTR _shader$[ebp]
$LN1@GL_CreateU:

; 639  : }

	pop	edi
	pop	esi
	pop	ebx
	mov	esp, ebp
	pop	ebp
	ret	0
?GL_CreateUberShader@@YAPAUglsl_prog_s@@IPBD0P6AXPAU1@@Z@Z ENDP ; GL_CreateUberShader
_TEXT	ENDS
; Function compile flags: /Odtp /ZI
; File d:\!diffusion 2020\source code 2022\client-server\client\render\r_shader.cpp
;	COMDAT ?GL_FreeGPUShader@@YAXPAUglsl_prog_s@@@Z
_TEXT	SEGMENT
_find$1 = -16						; size = 4
_prev$2 = -12						; size = 4
_cur$3 = -8						; size = 4
_hash$4 = -4						; size = 4
_shader$ = 8						; size = 4
?GL_FreeGPUShader@@YAXPAUglsl_prog_s@@@Z PROC		; GL_FreeGPUShader, COMDAT

; 545  : {

	push	ebp
	mov	ebp, esp
	sub	esp, 80					; 00000050H
	push	ebx
	push	esi
	push	edi

; 546  : 	if( shader && shader->handle )

	cmp	DWORD PTR _shader$[ebp], 0
	je	$LN1@GL_FreeGPU
	mov	eax, DWORD PTR _shader$[ebp]
	cmp	DWORD PTR [eax+576], 0
	je	$LN1@GL_FreeGPU

; 547  : 	{
; 548  : 		unsigned int	hash;
; 549  : 		glsl_program_t	*cur;
; 550  : 		glsl_program_t	**prev;
; 551  : 		const char	*find;
; 552  : 
; 553  : 		find = va( "%s %s", shader->name, shader->options );

	mov	eax, DWORD PTR _shader$[ebp]
	add	eax, 64					; 00000040H
	push	eax
	mov	ecx, DWORD PTR _shader$[ebp]
	push	ecx
	push	OFFSET ??_C@_05DNIIFBMG@?$CFs?5?$CFs?$AA@
	call	?va@@YAPADPBDZZ				; va
	add	esp, 12					; 0000000cH
	mov	DWORD PTR _find$1[ebp], eax

; 554  : 
; 555  : 		// remove from hash table
; 556  : 		hash = COM_HashKey( find, SHADERS_HASH_SIZE );

	push	128					; 00000080H
	mov	eax, DWORD PTR _find$1[ebp]
	push	eax
	call	?COM_HashKey@@YAIPBDI@Z			; COM_HashKey
	add	esp, 8
	mov	DWORD PTR _hash$4[ebp], eax

; 557  : 		prev = &glsl_programsHashTable[hash];

	mov	eax, DWORD PTR _hash$4[ebp]
	lea	ecx, DWORD PTR ?glsl_programsHashTable@@3PAPAUglsl_prog_s@@A[eax*4]
	mov	DWORD PTR _prev$2[ebp], ecx
$LN2@GL_FreeGPU:

; 558  : 
; 559  : 		while( 1 )

	mov	eax, 1
	test	eax, eax
	je	SHORT $LN3@GL_FreeGPU

; 560  : 		{
; 561  : 			cur = *prev;

	mov	eax, DWORD PTR _prev$2[ebp]
	mov	ecx, DWORD PTR [eax]
	mov	DWORD PTR _cur$3[ebp], ecx

; 562  : 			if( !cur ) break;

	cmp	DWORD PTR _cur$3[ebp], 0
	jne	SHORT $LN5@GL_FreeGPU
	jmp	SHORT $LN3@GL_FreeGPU
$LN5@GL_FreeGPU:

; 563  : 
; 564  : 			if( cur == shader )

	mov	eax, DWORD PTR _cur$3[ebp]
	cmp	eax, DWORD PTR _shader$[ebp]
	jne	SHORT $LN6@GL_FreeGPU

; 565  : 			{
; 566  : 				*prev = cur->nextHash;

	mov	eax, DWORD PTR _prev$2[ebp]
	mov	ecx, DWORD PTR _cur$3[ebp]
	mov	edx, DWORD PTR [ecx+584]
	mov	DWORD PTR [eax], edx

; 567  : 				break;

	jmp	SHORT $LN3@GL_FreeGPU
$LN6@GL_FreeGPU:

; 568  : 			}
; 569  : 			prev = &cur->nextHash;

	mov	eax, DWORD PTR _cur$3[ebp]
	add	eax, 584				; 00000248H
	mov	DWORD PTR _prev$2[ebp], eax

; 570  : 		}

	jmp	SHORT $LN2@GL_FreeGPU
$LN3@GL_FreeGPU:

; 571  : 
; 572  : 		pglDeleteObjectARB( shader->handle );

	mov	eax, DWORD PTR _shader$[ebp]
	mov	ecx, DWORD PTR [eax+576]
	push	ecx
	call	DWORD PTR ?pglDeleteObjectARB@@3P6GXI@ZA ; pglDeleteObjectARB

; 573  : 		memset( shader, 0, sizeof( *shader ));

	push	972					; 000003ccH
	push	0
	mov	eax, DWORD PTR _shader$[ebp]
	push	eax
	call	_memset
	add	esp, 12					; 0000000cH
$LN1@GL_FreeGPU:

; 574  : 	}
; 575  : }

	pop	edi
	pop	esi
	pop	ebx
	mov	esp, ebp
	pop	ebp
	ret	0
?GL_FreeGPUShader@@YAXPAUglsl_prog_s@@@Z ENDP		; GL_FreeGPUShader
_TEXT	ENDS
; Function compile flags: /Odtp /ZI
; File d:\!diffusion 2020\source code 2022\client-server\client\render\r_shader.cpp
;	COMDAT ?GL_InitGPUShader@@YAPAUglsl_prog_s@@PBD000@Z
_TEXT	SEGMENT
_shader$ = -20						; size = 4
_prog$ = -16						; size = 4
_hash$ = -12						; size = 4
_i$ = -8						; size = 4
_find$ = -4						; size = 4
_glname$ = 8						; size = 4
_vpname$ = 12						; size = 4
_fpname$ = 16						; size = 4
_defines$ = 20						; size = 4
?GL_InitGPUShader@@YAPAUglsl_prog_s@@PBD000@Z PROC	; GL_InitGPUShader, COMDAT

; 472  : {

	push	ebp
	mov	ebp, esp
	sub	esp, 84					; 00000054H
	push	ebx
	push	esi
	push	edi

; 473  : 	const char	*find;
; 474  : 	unsigned int	i, hash;
; 475  : 	glsl_program_t	*prog;
; 476  : 
; 477  : 	if( !GL_Support( R_SHADER_GLSL100_EXT ))

	push	10					; 0000000aH
	call	?GL_Support@@YA_NH@Z			; GL_Support
	add	esp, 4
	movzx	eax, al
	test	eax, eax
	jne	SHORT $LN8@GL_InitGPU

; 478  : 		return NULL;

	xor	eax, eax
	jmp	$LN1@GL_InitGPU
$LN8@GL_InitGPU:

; 479  : 
; 480  : 	ASSERT( glname != NULL );

	cmp	DWORD PTR _glname$[ebp], 0
	jne	SHORT $LN9@GL_InitGPU
	mov	eax, DWORD PTR ?__LINE__Var@?0??GL_InitGPUShader@@YAPAUglsl_prog_s@@PBD000@Z@4JA
	add	eax, 8
	push	eax
	push	OFFSET ??_C@_0EN@DPFBEFBL@d?3?2?$CBdiffusion?52020?2source?5code?52@
	push	OFFSET ??_C@_0BI@FECCGOFJ@assert?5failed?5at?5?$CFs?3?$CFi?6?$AA@
	call	DWORD PTR ?gRenderfuncs@@3Urender_api_s@@A+236
	add	esp, 12					; 0000000cH
$LN9@GL_InitGPU:

; 481  : 
; 482  : 	find = va( "%s %s", glname, defines );

	mov	eax, DWORD PTR _defines$[ebp]
	push	eax
	mov	ecx, DWORD PTR _glname$[ebp]
	push	ecx
	push	OFFSET ??_C@_05DNIIFBMG@?$CFs?5?$CFs?$AA@
	call	?va@@YAPADPBDZZ				; va
	add	esp, 12					; 0000000cH
	mov	DWORD PTR _find$[ebp], eax

; 483  : 	hash = COM_HashKey( find, SHADERS_HASH_SIZE );

	push	128					; 00000080H
	mov	eax, DWORD PTR _find$[ebp]
	push	eax
	call	?COM_HashKey@@YAIPBDI@Z			; COM_HashKey
	add	esp, 8
	mov	DWORD PTR _hash$[ebp], eax

; 484  : 
; 485  : 	// check for coexist
; 486  : 	for( prog = glsl_programsHashTable[hash]; prog != NULL; prog = prog->nextHash )

	mov	eax, DWORD PTR _hash$[ebp]
	mov	ecx, DWORD PTR ?glsl_programsHashTable@@3PAPAUglsl_prog_s@@A[eax*4]
	mov	DWORD PTR _prog$[ebp], ecx
	jmp	SHORT $LN4@GL_InitGPU
$LN2@GL_InitGPU:
	mov	eax, DWORD PTR _prog$[ebp]
	mov	ecx, DWORD PTR [eax+584]
	mov	DWORD PTR _prog$[ebp], ecx
$LN4@GL_InitGPU:
	cmp	DWORD PTR _prog$[ebp], 0
	je	SHORT $LN3@GL_InitGPU

; 487  : 	{
; 488  : 		if( !Q_strcmp( prog->name, glname ) && !Q_strcmp( prog->options, defines ))

	push	99999					; 0001869fH
	mov	eax, DWORD PTR _glname$[ebp]
	push	eax
	mov	ecx, DWORD PTR _prog$[ebp]
	push	ecx
	call	?Q_strncmp@@YAHPBD0H@Z			; Q_strncmp
	add	esp, 12					; 0000000cH
	test	eax, eax
	jne	SHORT $LN10@GL_InitGPU
	push	99999					; 0001869fH
	mov	eax, DWORD PTR _defines$[ebp]
	push	eax
	mov	ecx, DWORD PTR _prog$[ebp]
	add	ecx, 64					; 00000040H
	push	ecx
	call	?Q_strncmp@@YAHPBD0H@Z			; Q_strncmp
	add	esp, 12					; 0000000cH
	test	eax, eax
	jne	SHORT $LN10@GL_InitGPU

; 489  : 			return prog;

	mov	eax, DWORD PTR _prog$[ebp]
	jmp	$LN1@GL_InitGPU
$LN10@GL_InitGPU:

; 490  : 	}

	jmp	SHORT $LN2@GL_InitGPU
$LN3@GL_InitGPU:

; 491  : 
; 492  : 	// find free spot
; 493  : 	for( i = 1; i < num_glsl_programs; i++ )

	mov	DWORD PTR _i$[ebp], 1
	jmp	SHORT $LN7@GL_InitGPU
$LN5@GL_InitGPU:
	mov	eax, DWORD PTR _i$[ebp]
	add	eax, 1
	mov	DWORD PTR _i$[ebp], eax
$LN7@GL_InitGPU:
	mov	eax, DWORD PTR _i$[ebp]
	cmp	eax, DWORD PTR ?num_glsl_programs@@3IA	; num_glsl_programs
	jae	SHORT $LN6@GL_InitGPU

; 494  : 		if( !glsl_programs[i].name[0] )

	imul	eax, DWORD PTR _i$[ebp], 972
	mov	ecx, 1
	imul	edx, ecx, 0
	movsx	eax, BYTE PTR ?glsl_programs@@3PAUglsl_prog_s@@A[eax+edx]
	test	eax, eax
	jne	SHORT $LN11@GL_InitGPU

; 495  : 			break;

	jmp	SHORT $LN6@GL_InitGPU
$LN11@GL_InitGPU:

; 496  : 
; 497  : 	if( num_glsl_programs >= MAX_GLSL_PROGRAMS )

	jmp	SHORT $LN5@GL_InitGPU
$LN6@GL_InitGPU:
	cmp	DWORD PTR ?num_glsl_programs@@3IA, 512	; num_glsl_programs, 00000200H
	jb	SHORT $LN12@GL_InitGPU

; 498  : 	{
; 499  : 		ALERT( at_error, "GL_InitGPUShader: GLSL shaders limit exceeded (%i max)\n", MAX_GLSL_PROGRAMS );

	push	512					; 00000200H
	push	OFFSET ??_C@_0DI@JOLDEICG@GL_InitGPUShader?3?5GLSL?5shaders?5l@
	push	4
	call	?ALERT@@YAXW4ALERT_TYPE@@PADZZ		; ALERT
	add	esp, 12					; 0000000cH

; 500  : 		return NULL;

	xor	eax, eax
	jmp	$LN1@GL_InitGPU
$LN12@GL_InitGPU:

; 501  : 	}
; 502  : 
; 503  : 	// alloc new shader
; 504  : 	glsl_program_t *shader = &glsl_programs[i];

	imul	eax, DWORD PTR _i$[ebp], 972
	add	eax, OFFSET ?glsl_programs@@3PAUglsl_prog_s@@A ; glsl_programs
	mov	DWORD PTR _shader$[ebp], eax

; 505  : 	num_glsl_programs++;

	mov	eax, DWORD PTR ?num_glsl_programs@@3IA	; num_glsl_programs
	add	eax, 1
	mov	DWORD PTR ?num_glsl_programs@@3IA, eax	; num_glsl_programs

; 506  : 
; 507  : 	Q_strncpy( shader->name, glname, sizeof( shader->name ));

	push	64					; 00000040H
	mov	eax, DWORD PTR _glname$[ebp]
	push	eax
	mov	ecx, DWORD PTR _shader$[ebp]
	push	ecx
	call	?Q_strncpy@@YAIPADPBDI@Z		; Q_strncpy
	add	esp, 12					; 0000000cH

; 508  : 	Q_strncpy( shader->options, defines, sizeof( shader->options ));

	push	512					; 00000200H
	mov	eax, DWORD PTR _defines$[ebp]
	push	eax
	mov	ecx, DWORD PTR _shader$[ebp]
	add	ecx, 64					; 00000040H
	push	ecx
	call	?Q_strncpy@@YAIPADPBDI@Z		; Q_strncpy
	add	esp, 12					; 0000000cH

; 509  : 	shader->handle = pglCreateProgramObjectARB();

	call	DWORD PTR ?pglCreateProgramObjectARB@@3P6GIXZA ; pglCreateProgramObjectARB
	mov	ecx, DWORD PTR _shader$[ebp]
	mov	DWORD PTR [ecx+576], eax

; 510  : 
; 511  : 	if( vpname ) GL_LoadGPUShader( shader, vpname, GL_VERTEX_SHADER_ARB, false, defines );

	cmp	DWORD PTR _vpname$[ebp], 0
	je	SHORT $LN13@GL_InitGPU
	mov	eax, DWORD PTR _defines$[ebp]
	push	eax
	push	0
	push	35633					; 00008b31H
	mov	ecx, DWORD PTR _vpname$[ebp]
	push	ecx
	mov	edx, DWORD PTR _shader$[ebp]
	push	edx
	call	?GL_LoadGPUShader@@YAXPAUglsl_prog_s@@PBDI_N1@Z ; GL_LoadGPUShader
	add	esp, 20					; 00000014H
	jmp	SHORT $LN14@GL_InitGPU
$LN13@GL_InitGPU:

; 512  : 	else shader->status |= SHADER_VERTEX_COMPILED;

	mov	eax, DWORD PTR _shader$[ebp]
	movzx	ecx, WORD PTR [eax+580]
	or	ecx, 1
	mov	edx, DWORD PTR _shader$[ebp]
	mov	WORD PTR [edx+580], cx
$LN14@GL_InitGPU:

; 513  : 	if( fpname ) GL_LoadGPUShader( shader, fpname, GL_FRAGMENT_SHADER_ARB, false, defines );

	cmp	DWORD PTR _fpname$[ebp], 0
	je	SHORT $LN15@GL_InitGPU
	mov	eax, DWORD PTR _defines$[ebp]
	push	eax
	push	0
	push	35632					; 00008b30H
	mov	ecx, DWORD PTR _fpname$[ebp]
	push	ecx
	mov	edx, DWORD PTR _shader$[ebp]
	push	edx
	call	?GL_LoadGPUShader@@YAXPAUglsl_prog_s@@PBDI_N1@Z ; GL_LoadGPUShader
	add	esp, 20					; 00000014H
	jmp	SHORT $LN16@GL_InitGPU
$LN15@GL_InitGPU:

; 514  : 	else shader->status |= SHADER_FRAGMENT_COMPILED;

	mov	eax, DWORD PTR _shader$[ebp]
	movzx	ecx, WORD PTR [eax+580]
	or	ecx, 2
	mov	edx, DWORD PTR _shader$[ebp]
	mov	WORD PTR [edx+580], cx
$LN16@GL_InitGPU:

; 515  : 
; 516  : 	if( vpname && FBitSet( shader->status, SHADER_VERTEX_COMPILED ))

	cmp	DWORD PTR _vpname$[ebp], 0
	je	$LN17@GL_InitGPU
	mov	eax, DWORD PTR _shader$[ebp]
	movzx	ecx, WORD PTR [eax+580]
	and	ecx, 1
	je	$LN17@GL_InitGPU

; 517  : 	{
; 518  : 		pglBindAttribLocationARB( shader->handle, ATTR_INDEX_POSITION, "attr_Position" );

	push	OFFSET ??_C@_0O@PHKNCBPO@attr_Position?$AA@
	push	0
	mov	eax, DWORD PTR _shader$[ebp]
	mov	ecx, DWORD PTR [eax+576]
	push	ecx
	call	DWORD PTR ?pglBindAttribLocationARB@@3P6GXIIPBD@ZA ; pglBindAttribLocationARB

; 519  : 		pglBindAttribLocationARB( shader->handle, ATTR_INDEX_TEXCOORD0, "attr_TexCoord0" );

	push	OFFSET ??_C@_0P@GGGDBJMF@attr_TexCoord0?$AA@
	push	4
	mov	eax, DWORD PTR _shader$[ebp]
	mov	ecx, DWORD PTR [eax+576]
	push	ecx
	call	DWORD PTR ?pglBindAttribLocationARB@@3P6GXIIPBD@ZA ; pglBindAttribLocationARB

; 520  : 		pglBindAttribLocationARB( shader->handle, ATTR_INDEX_TEXCOORD1, "attr_TexCoord1" );

	push	OFFSET ??_C@_0P@HPHICIIE@attr_TexCoord1?$AA@
	push	5
	mov	eax, DWORD PTR _shader$[ebp]
	mov	ecx, DWORD PTR [eax+576]
	push	ecx
	call	DWORD PTR ?pglBindAttribLocationARB@@3P6GXIIPBD@ZA ; pglBindAttribLocationARB

; 521  : 		pglBindAttribLocationARB( shader->handle, ATTR_INDEX_TEXCOORD2, "attr_TexCoord2" );

	push	OFFSET ??_C@_0P@FEFFHLEH@attr_TexCoord2?$AA@
	push	6
	mov	eax, DWORD PTR _shader$[ebp]
	mov	ecx, DWORD PTR [eax+576]
	push	ecx
	call	DWORD PTR ?pglBindAttribLocationARB@@3P6GXIIPBD@ZA ; pglBindAttribLocationARB

; 522  : 		pglBindAttribLocationARB( shader->handle, ATTR_INDEX_NORMAL, "attr_Normal" );

	push	OFFSET ??_C@_0M@PDECLNDL@attr_Normal?$AA@
	push	3
	mov	eax, DWORD PTR _shader$[ebp]
	mov	ecx, DWORD PTR [eax+576]
	push	ecx
	call	DWORD PTR ?pglBindAttribLocationARB@@3P6GXIIPBD@ZA ; pglBindAttribLocationARB

; 523  : 		pglBindAttribLocationARB( shader->handle, ATTR_INDEX_BONE_INDEXES, "attr_BoneIndexes" );

	push	OFFSET ??_C@_0BB@GNBIAMMJ@attr_BoneIndexes?$AA@
	push	7
	mov	eax, DWORD PTR _shader$[ebp]
	mov	ecx, DWORD PTR [eax+576]
	push	ecx
	call	DWORD PTR ?pglBindAttribLocationARB@@3P6GXIIPBD@ZA ; pglBindAttribLocationARB

; 524  : 		pglBindAttribLocationARB( shader->handle, ATTR_INDEX_BONE_WEIGHTS, "attr_BoneWeights" );

	push	OFFSET ??_C@_0BB@ININKFEM@attr_BoneWeights?$AA@
	push	8
	mov	eax, DWORD PTR _shader$[ebp]
	mov	ecx, DWORD PTR [eax+576]
	push	ecx
	call	DWORD PTR ?pglBindAttribLocationARB@@3P6GXIIPBD@ZA ; pglBindAttribLocationARB

; 525  : 		pglBindAttribLocationARB( shader->handle, ATTR_INDEX_LIGHT_STYLES, "attr_LightStyles" );

	push	OFFSET ??_C@_0BB@MPAHODOH@attr_LightStyles?$AA@
	push	9
	mov	eax, DWORD PTR _shader$[ebp]
	mov	ecx, DWORD PTR [eax+576]
	push	ecx
	call	DWORD PTR ?pglBindAttribLocationARB@@3P6GXIIPBD@ZA ; pglBindAttribLocationARB

; 526  : 		pglBindAttribLocationARB( shader->handle, ATTR_INDEX_LIGHT_COLOR, "attr_LightColor" );

	push	OFFSET ??_C@_0BA@JOGHNK@attr_LightColor?$AA@
	push	10					; 0000000aH
	mov	eax, DWORD PTR _shader$[ebp]
	mov	ecx, DWORD PTR [eax+576]
	push	ecx
	call	DWORD PTR ?pglBindAttribLocationARB@@3P6GXIIPBD@ZA ; pglBindAttribLocationARB

; 527  : 		pglBindAttribLocationARB( shader->handle, ATTR_INDEX_LIGHT_VECS, "attr_LightVecs" );

	push	OFFSET ??_C@_0P@KPKCIOG@attr_LightVecs?$AA@
	push	11					; 0000000bH
	mov	eax, DWORD PTR _shader$[ebp]
	mov	ecx, DWORD PTR [eax+576]
	push	ecx
	call	DWORD PTR ?pglBindAttribLocationARB@@3P6GXIIPBD@ZA ; pglBindAttribLocationARB

; 528  : 		pglBindAttribLocationARB( shader->handle, ATTR_INDEX_TANGENT, "attr_Tangent" );

	push	OFFSET ??_C@_0N@PFKNNIKN@attr_Tangent?$AA@
	push	1
	mov	eax, DWORD PTR _shader$[ebp]
	mov	ecx, DWORD PTR [eax+576]
	push	ecx
	call	DWORD PTR ?pglBindAttribLocationARB@@3P6GXIIPBD@ZA ; pglBindAttribLocationARB

; 529  : 		pglBindAttribLocationARB( shader->handle, ATTR_INDEX_BINORMAL, "attr_Binormal" );

	push	OFFSET ??_C@_0O@FLCOHBOC@attr_Binormal?$AA@
	push	2
	mov	eax, DWORD PTR _shader$[ebp]
	mov	ecx, DWORD PTR [eax+576]
	push	ecx
	call	DWORD PTR ?pglBindAttribLocationARB@@3P6GXIIPBD@ZA ; pglBindAttribLocationARB
$LN17@GL_InitGPU:

; 530  : 	}
; 531  : 
; 532  : 	GL_LinkProgram( shader );

	mov	eax, DWORD PTR _shader$[ebp]
	push	eax
	call	?GL_LinkProgram@@YAXPAUglsl_prog_s@@@Z	; GL_LinkProgram
	add	esp, 4

; 533  : 
; 534  : 	if( shader != NULL )

	cmp	DWORD PTR _shader$[ebp], 0
	je	SHORT $LN18@GL_InitGPU

; 535  : 	{
; 536  : 		// add to hash table
; 537  : 		shader->nextHash = glsl_programsHashTable[hash];

	mov	eax, DWORD PTR _shader$[ebp]
	mov	ecx, DWORD PTR _hash$[ebp]
	mov	edx, DWORD PTR ?glsl_programsHashTable@@3PAPAUglsl_prog_s@@A[ecx*4]
	mov	DWORD PTR [eax+584], edx

; 538  : 		glsl_programsHashTable[hash] = shader;

	mov	eax, DWORD PTR _hash$[ebp]
	mov	ecx, DWORD PTR _shader$[ebp]
	mov	DWORD PTR ?glsl_programsHashTable@@3PAPAUglsl_prog_s@@A[eax*4], ecx
$LN18@GL_InitGPU:

; 539  : 	}
; 540  : 
; 541  : 	return shader;

	mov	eax, DWORD PTR _shader$[ebp]
$LN1@GL_InitGPU:

; 542  : }

	pop	edi
	pop	esi
	pop	ebx
	mov	esp, ebp
	pop	ebp
	ret	0
?GL_InitGPUShader@@YAPAUglsl_prog_s@@PBD000@Z ENDP	; GL_InitGPUShader
_TEXT	ENDS
; Function compile flags: /Odtp /ZI
; File d:\!diffusion 2020\source code 2022\client-server\client\render\r_shader.cpp
;	COMDAT ?GL_ShowProgramUniforms@@YAXPAUglsl_prog_s@@@Z
_TEXT	SEGMENT
_max_shader_uniforms$ = -288				; size = 4
_end$1 = -284						; size = 4
_i$2 = -280						; size = 4
_type$ = -276						; size = 4
_total_uniforms_used$ = -272				; size = 4
_uniformName$ = -268					; size = 256
_size$ = -12						; size = 4
_count$ = -8						; size = 4
__$ArrayPad$ = -4					; size = 4
_shader$ = 8						; size = 4
?GL_ShowProgramUniforms@@YAXPAUglsl_prog_s@@@Z PROC	; GL_ShowProgramUniforms, COMDAT

; 401  : {

	push	ebp
	mov	ebp, esp
	sub	esp, 352				; 00000160H
	mov	eax, DWORD PTR ___security_cookie
	xor	eax, ebp
	mov	DWORD PTR __$ArrayPad$[ebp], eax
	push	ebx
	push	esi
	push	edi

; 402  : 	int	count, size;
; 403  : 	char	uniformName[256];
; 404  : 	int	total_uniforms_used = 0;

	mov	DWORD PTR _total_uniforms_used$[ebp], 0

; 405  : 	GLuint	type;
; 406  : 
; 407  : 	if( !shader || developer_level < DEV_EXTENDED )

	cmp	DWORD PTR _shader$[ebp], 0
	je	SHORT $LN6@GL_ShowPro
	cmp	DWORD PTR ?developer_level@@3HA, 2	; developer_level
	jge	SHORT $LN5@GL_ShowPro
$LN6@GL_ShowPro:

; 408  : 		return;

	jmp	$LN1@GL_ShowPro
$LN5@GL_ShowPro:

; 409  : 	
; 410  : 	// install the executables in the program object as part of current state.
; 411  : 	pglUseProgramObjectARB( shader->handle );

	mov	eax, DWORD PTR _shader$[ebp]
	mov	ecx, DWORD PTR [eax+576]
	push	ecx
	call	DWORD PTR ?pglUseProgramObjectARB@@3P6GXI@ZA ; pglUseProgramObjectARB

; 412  : 
; 413  : 	// query the number of active uniforms
; 414  : 	pglGetObjectParameterivARB( shader->handle, GL_OBJECT_ACTIVE_UNIFORMS_ARB, &count );

	lea	eax, DWORD PTR _count$[ebp]
	push	eax
	push	35718					; 00008b86H
	mov	ecx, DWORD PTR _shader$[ebp]
	mov	edx, DWORD PTR [ecx+576]
	push	edx
	call	DWORD PTR ?pglGetObjectParameterivARB@@3P6GXIIPAH@ZA ; pglGetObjectParameterivARB

; 415  : 
; 416  : 	// Loop over each of the active uniforms, and set their value
; 417  : 	for( int i = 0; i < count; i++ )

	mov	DWORD PTR _i$2[ebp], 0
	jmp	SHORT $LN4@GL_ShowPro
$LN2@GL_ShowPro:
	mov	eax, DWORD PTR _i$2[ebp]
	add	eax, 1
	mov	DWORD PTR _i$2[ebp], eax
$LN4@GL_ShowPro:
	mov	eax, DWORD PTR _i$2[ebp]
	cmp	eax, DWORD PTR _count$[ebp]
	jge	$LN3@GL_ShowPro

; 418  : 	{
; 419  : 		pglGetActiveUniformARB( shader->handle, i, sizeof( uniformName ), NULL, &size, &type, uniformName );

	lea	eax, DWORD PTR _uniformName$[ebp]
	push	eax
	lea	ecx, DWORD PTR _type$[ebp]
	push	ecx
	lea	edx, DWORD PTR _size$[ebp]
	push	edx
	push	0
	push	256					; 00000100H
	mov	eax, DWORD PTR _i$2[ebp]
	push	eax
	mov	ecx, DWORD PTR _shader$[ebp]
	mov	edx, DWORD PTR [ecx+576]
	push	edx
	call	DWORD PTR ?pglGetActiveUniformARB@@3P6GXIIHPAH0PAIPAD@ZA ; pglGetActiveUniformARB

; 420  : 		if( developer_level >= DEV_EXTENDED )

	cmp	DWORD PTR ?developer_level@@3HA, 2	; developer_level
	jl	$LN7@GL_ShowPro

; 421  : 		{
; 422  : 			if( size != 1 )

	cmp	DWORD PTR _size$[ebp], 1
	je	SHORT $LN8@GL_ShowPro

; 423  : 			{
; 424  : 				char *end = Q_strchr( uniformName, '[' );

	push	91					; 0000005bH
	lea	eax, DWORD PTR _uniformName$[ebp]
	push	eax
	call	?Q_strchr@@YAPADPBDD@Z			; Q_strchr
	add	esp, 8
	mov	DWORD PTR _end$1[ebp], eax

; 425  : 				if( end ) *end = '\0'; // cutoff [0]

	cmp	DWORD PTR _end$1[ebp], 0
	je	SHORT $LN8@GL_ShowPro
	mov	eax, DWORD PTR _end$1[ebp]
	mov	BYTE PTR [eax], 0
$LN8@GL_ShowPro:

; 426  : 			}
; 427  : 
; 428  : 			if( size == 1 ) ALERT( at_aiconsole, "uniform %s %s;\n", GL_UniformTypeToName( type ), uniformName );

	cmp	DWORD PTR _size$[ebp], 1
	jne	SHORT $LN10@GL_ShowPro
	lea	eax, DWORD PTR _uniformName$[ebp]
	push	eax
	mov	ecx, DWORD PTR _type$[ebp]
	push	ecx
	call	?GL_UniformTypeToName@@YAPBDI@Z		; GL_UniformTypeToName
	add	esp, 4
	push	eax
	push	OFFSET ??_C@_0BA@GALAJLO@uniform?5?$CFs?5?$CFs?$DL?6?$AA@
	push	2
	call	?ALERT@@YAXW4ALERT_TYPE@@PADZZ		; ALERT
	add	esp, 16					; 00000010H
	jmp	SHORT $LN7@GL_ShowPro
$LN10@GL_ShowPro:

; 429  : 			else ALERT( at_aiconsole, "uniform %s %s[%i];\n", GL_UniformTypeToName( type ), uniformName, size );

	mov	eax, DWORD PTR _size$[ebp]
	push	eax
	lea	ecx, DWORD PTR _uniformName$[ebp]
	push	ecx
	mov	edx, DWORD PTR _type$[ebp]
	push	edx
	call	?GL_UniformTypeToName@@YAPBDI@Z		; GL_UniformTypeToName
	add	esp, 4
	push	eax
	push	OFFSET ??_C@_0BE@PKDDKFGG@uniform?5?$CFs?5?$CFs?$FL?$CFi?$FN?$DL?6?$AA@
	push	2
	call	?ALERT@@YAXW4ALERT_TYPE@@PADZZ		; ALERT
	add	esp, 20					; 00000014H
$LN7@GL_ShowPro:

; 430  : 		}
; 431  : 		total_uniforms_used += GL_UniformTypeToDwordCount( type ) * size;

	push	0
	mov	eax, DWORD PTR _type$[ebp]
	push	eax
	call	?GL_UniformTypeToDwordCount@@YAHI_N@Z	; GL_UniformTypeToDwordCount
	add	esp, 8
	imul	eax, DWORD PTR _size$[ebp]
	add	eax, DWORD PTR _total_uniforms_used$[ebp]
	mov	DWORD PTR _total_uniforms_used$[ebp], eax

; 432  : 	}

	jmp	$LN2@GL_ShowPro
$LN3@GL_ShowPro:

; 433  : 
; 434  : 	if( total_uniforms_used >= glConfig.max_vertex_uniforms )

	mov	eax, DWORD PTR _total_uniforms_used$[ebp]
	cmp	eax, DWORD PTR ?glConfig@@3UglConfig_t@@A+76
	jl	SHORT $LN12@GL_ShowPro

; 435  : 		ALERT( at_error, "used uniforms %i is overflowed max count %i\n", total_uniforms_used, glConfig.max_vertex_uniforms );

	mov	eax, DWORD PTR ?glConfig@@3UglConfig_t@@A+76
	push	eax
	mov	ecx, DWORD PTR _total_uniforms_used$[ebp]
	push	ecx
	push	OFFSET ??_C@_0CN@BIGJHOMK@used?5uniforms?5?$CFi?5is?5overflowed?5m@
	push	4
	call	?ALERT@@YAXW4ALERT_TYPE@@PADZZ		; ALERT
	add	esp, 16					; 00000010H
	jmp	SHORT $LN13@GL_ShowPro
$LN12@GL_ShowPro:

; 436  : 	else ALERT( at_aiconsole, "used uniforms %i from %i\n", total_uniforms_used, glConfig.max_vertex_uniforms );

	mov	eax, DWORD PTR ?glConfig@@3UglConfig_t@@A+76
	push	eax
	mov	ecx, DWORD PTR _total_uniforms_used$[ebp]
	push	ecx
	push	OFFSET ??_C@_0BK@BLHKGMFB@used?5uniforms?5?$CFi?5from?5?$CFi?6?$AA@
	push	2
	call	?ALERT@@YAXW4ALERT_TYPE@@PADZZ		; ALERT
	add	esp, 16					; 00000010H
$LN13@GL_ShowPro:

; 437  : 
; 438  : 	int max_shader_uniforms = total_uniforms_used;

	mov	eax, DWORD PTR _total_uniforms_used$[ebp]
	mov	DWORD PTR _max_shader_uniforms$[ebp], eax

; 439  : 
; 440  : 	if( max_shader_uniforms > ( glConfig.max_skinning_bones * 7 ))

	imul	eax, DWORD PTR ?glConfig@@3UglConfig_t@@A+88, 7
	cmp	DWORD PTR _max_shader_uniforms$[ebp], eax
	jle	SHORT $LN14@GL_ShowPro

; 441  : 		max_shader_uniforms -= ( glConfig.max_skinning_bones * 7 );

	imul	eax, DWORD PTR ?glConfig@@3UglConfig_t@@A+88, 7
	mov	ecx, DWORD PTR _max_shader_uniforms$[ebp]
	sub	ecx, eax
	mov	DWORD PTR _max_shader_uniforms$[ebp], ecx
$LN14@GL_ShowPro:

; 442  : 
; 443  : 	ALERT( at_aiconsole, "%s used %i uniforms\n", shader->name, max_shader_uniforms );

	mov	eax, DWORD PTR _max_shader_uniforms$[ebp]
	push	eax
	mov	ecx, DWORD PTR _shader$[ebp]
	push	ecx
	push	OFFSET ??_C@_0BF@JPOMHIIO@?$CFs?5used?5?$CFi?5uniforms?6?$AA@
	push	2
	call	?ALERT@@YAXW4ALERT_TYPE@@PADZZ		; ALERT
	add	esp, 16					; 00000010H

; 444  : 
; 445  : 	if( max_shader_uniforms > glConfig.peak_used_uniforms )

	mov	eax, DWORD PTR _max_shader_uniforms$[ebp]
	cmp	eax, DWORD PTR ?glConfig@@3UglConfig_t@@A+92
	jle	SHORT $LN15@GL_ShowPro

; 446  : 	{
; 447  : 		glConfig.peak_used_uniforms = max_shader_uniforms;

	mov	eax, DWORD PTR _max_shader_uniforms$[ebp]
	mov	DWORD PTR ?glConfig@@3UglConfig_t@@A+92, eax

; 448  : 		tr.show_uniforms_peak = true;

	mov	BYTE PTR ?tr@@3Uref_globals_t@@A+5830940, 1
$LN15@GL_ShowPro:

; 449  : 	}
; 450  : 
; 451  : 	pglUseProgramObjectARB( GL_NONE );

	push	0
	call	DWORD PTR ?pglUseProgramObjectARB@@3P6GXI@ZA ; pglUseProgramObjectARB
$LN1@GL_ShowPro:

; 452  : }

	pop	edi
	pop	esi
	pop	ebx
	mov	ecx, DWORD PTR __$ArrayPad$[ebp]
	xor	ecx, ebp
	call	@__security_check_cookie@4
	mov	esp, ebp
	pop	ebp
	ret	0
?GL_ShowProgramUniforms@@YAXPAUglsl_prog_s@@@Z ENDP	; GL_ShowProgramUniforms
_TEXT	ENDS
; Function compile flags: /Odtp /ZI
; File d:\!diffusion 2020\source code 2022\client-server\client\render\r_shader.cpp
;	COMDAT ?GL_UniformTypeToName@@YAPBDI@Z
_TEXT	SEGMENT
tv64 = -68						; size = 4
_type$ = 8						; size = 4
?GL_UniformTypeToName@@YAPBDI@Z PROC			; GL_UniformTypeToName, COMDAT

; 353  : {

	push	ebp
	mov	ebp, esp
	sub	esp, 68					; 00000044H
	push	ebx
	push	esi
	push	edi

; 354  : 	switch( type )

	mov	eax, DWORD PTR _type$[ebp]
	mov	DWORD PTR tv64[ebp], eax
	cmp	DWORD PTR tv64[ebp], 35664		; 00008b50H
	ja	SHORT $LN26@GL_Uniform
	cmp	DWORD PTR tv64[ebp], 35664		; 00008b50H
	je	$LN7@GL_Uniform
	cmp	DWORD PTR tv64[ebp], 5124		; 00001404H
	je	SHORT $LN4@GL_Uniform
	cmp	DWORD PTR tv64[ebp], 5125		; 00001405H
	je	SHORT $LN5@GL_Uniform
	cmp	DWORD PTR tv64[ebp], 5126		; 00001406H
	je	SHORT $LN6@GL_Uniform
	jmp	$LN24@GL_Uniform
$LN26@GL_Uniform:
	cmp	DWORD PTR tv64[ebp], 36288		; 00008dc0H
	ja	SHORT $LN27@GL_Uniform
	cmp	DWORD PTR tv64[ebp], 36288		; 00008dc0H
	je	$LN17@GL_Uniform
	mov	ecx, DWORD PTR tv64[ebp]
	sub	ecx, 35665				; 00008b51H
	mov	DWORD PTR tv64[ebp], ecx
	cmp	DWORD PTR tv64[ebp], 19			; 00000013H
	ja	$LN24@GL_Uniform
	mov	edx, DWORD PTR tv64[ebp]
	jmp	DWORD PTR $LN28@GL_Uniform[edx*4]
$LN27@GL_Uniform:
	cmp	DWORD PTR tv64[ebp], 36289		; 00008dc1H
	je	SHORT $LN18@GL_Uniform
	cmp	DWORD PTR tv64[ebp], 36293		; 00008dc5H
	je	$LN23@GL_Uniform
	jmp	$LN24@GL_Uniform
$LN4@GL_Uniform:

; 355  : 	{
; 356  : 	case GL_INT:
; 357  : 		return "int";

	mov	eax, OFFSET ??_C@_03JBIPMCLC@int?$AA@
	jmp	$LN1@GL_Uniform
$LN5@GL_Uniform:

; 358  : 	case GL_UNSIGNED_INT:
; 359  : 		return "uint";

	mov	eax, OFFSET ??_C@_04EHNLIFAM@uint?$AA@
	jmp	$LN1@GL_Uniform
$LN6@GL_Uniform:

; 360  : 	case GL_FLOAT:
; 361  : 		return "float";

	mov	eax, OFFSET ??_C@_05KNFBNCOH@float?$AA@
	jmp	SHORT $LN1@GL_Uniform
$LN7@GL_Uniform:

; 362  : 	case GL_FLOAT_VEC2_ARB:
; 363  : 		return "vec2";

	mov	eax, OFFSET ??_C@_04OEFGDLLE@vec2?$AA@
	jmp	SHORT $LN1@GL_Uniform
$LN8@GL_Uniform:

; 364  : 	case GL_FLOAT_VEC3_ARB:
; 365  : 		return "vec3";

	mov	eax, OFFSET ??_C@_04PNENAKPF@vec3?$AA@
	jmp	SHORT $LN1@GL_Uniform
$LN9@GL_Uniform:

; 366  : 	case GL_FLOAT_VEC4_ARB:
; 367  : 		return "vec4";

	mov	eax, OFFSET ??_C@_04LCAMJMDC@vec4?$AA@
	jmp	SHORT $LN1@GL_Uniform
$LN10@GL_Uniform:

; 368  : 	case GL_FLOAT_MAT2_ARB:
; 369  : 		return "mat2";

	mov	eax, OFFSET ??_C@_04GFGNLPIF@mat2?$AA@
	jmp	SHORT $LN1@GL_Uniform
$LN11@GL_Uniform:

; 370  : 	case GL_FLOAT_MAT3_ARB:
; 371  : 		return "mat3";

	mov	eax, OFFSET ??_C@_04HMHGIOME@mat3?$AA@
	jmp	SHORT $LN1@GL_Uniform
$LN12@GL_Uniform:

; 372  : 	case GL_FLOAT_MAT4_ARB:
; 373  : 		return "mat4";

	mov	eax, OFFSET ??_C@_04DDDHBIAD@mat4?$AA@
	jmp	SHORT $LN1@GL_Uniform
$LN13@GL_Uniform:

; 374  : 	case GL_SAMPLER_1D_ARB:
; 375  : 		return "sampler1D";

	mov	eax, OFFSET ??_C@_09LDPLADBJ@sampler1D?$AA@
	jmp	SHORT $LN1@GL_Uniform
$LN14@GL_Uniform:

; 376  : 	case GL_SAMPLER_2D_ARB:
; 377  : 		return "sampler2D";

	mov	eax, OFFSET ??_C@_09LBLNLNEA@sampler2D?$AA@
	jmp	SHORT $LN1@GL_Uniform
$LN15@GL_Uniform:

; 378  : 	case GL_SAMPLER_3D_ARB:
; 379  : 		return "sampler3D";

	mov	eax, OFFSET ??_C@_09LAHPNHHH@sampler3D?$AA@
	jmp	SHORT $LN1@GL_Uniform
$LN16@GL_Uniform:

; 380  : 	case GL_SAMPLER_CUBE_ARB:
; 381  : 		return "samplerCube";

	mov	eax, OFFSET ??_C@_0M@JKFFOHJO@samplerCube?$AA@
	jmp	SHORT $LN1@GL_Uniform
$LN17@GL_Uniform:

; 382  : 	case GL_SAMPLER_1D_ARRAY_EXT:
; 383  : 		return "sampler1DArray";

	mov	eax, OFFSET ??_C@_0P@DIPEFKIO@sampler1DArray?$AA@
	jmp	SHORT $LN1@GL_Uniform
$LN18@GL_Uniform:

; 384  : 	case GL_SAMPLER_2D_ARRAY_EXT:
; 385  : 		return "sampler2DArray";

	mov	eax, OFFSET ??_C@_0P@LGHLFNGN@sampler2DArray?$AA@
	jmp	SHORT $LN1@GL_Uniform
$LN19@GL_Uniform:

; 386  : 	case GL_SAMPLER_1D_SHADOW_ARB:
; 387  : 		return "sampler1DShadow";

	mov	eax, OFFSET ??_C@_0BA@DAHPNLPE@sampler1DShadow?$AA@
	jmp	SHORT $LN1@GL_Uniform
$LN20@GL_Uniform:

; 388  : 	case GL_SAMPLER_2D_SHADOW_ARB:
; 389  : 		return "sampler2DShadow";

	mov	eax, OFFSET ??_C@_0BA@JPCOHDB@sampler2DShadow?$AA@
	jmp	SHORT $LN1@GL_Uniform
$LN21@GL_Uniform:

; 390  : 	case GL_SAMPLER_2D_RECT_ARB:
; 391  : 		return "sampler2DRect";

	mov	eax, OFFSET ??_C@_0O@PEHGDEIA@sampler2DRect?$AA@
	jmp	SHORT $LN1@GL_Uniform
$LN22@GL_Uniform:

; 392  : 	case GL_SAMPLER_2D_RECT_SHADOW_ARB:
; 393  : 		return "sampler2DRectShadow";

	mov	eax, OFFSET ??_C@_0BE@HDPBANEK@sampler2DRectShadow?$AA@
	jmp	SHORT $LN1@GL_Uniform
$LN23@GL_Uniform:

; 394  : 	case GL_SAMPLER_CUBE_SHADOW_EXT:
; 395  : 		return "samplerCubeShadow";

	mov	eax, OFFSET ??_C@_0BC@HELGINNC@samplerCubeShadow?$AA@
	jmp	SHORT $LN1@GL_Uniform
$LN24@GL_Uniform:

; 396  : 	default:	return "???";

	mov	eax, OFFSET ??_C@_03BBKEAIF@?$DP?$DP?$DP?$AA@
$LN1@GL_Uniform:

; 397  : 	}
; 398  : }

	pop	edi
	pop	esi
	pop	ebx
	mov	esp, ebp
	pop	ebp
	ret	0
$LN28@GL_Uniform:
	DD	$LN8@GL_Uniform
	DD	$LN9@GL_Uniform
	DD	$LN24@GL_Uniform
	DD	$LN24@GL_Uniform
	DD	$LN24@GL_Uniform
	DD	$LN24@GL_Uniform
	DD	$LN24@GL_Uniform
	DD	$LN24@GL_Uniform
	DD	$LN24@GL_Uniform
	DD	$LN10@GL_Uniform
	DD	$LN11@GL_Uniform
	DD	$LN12@GL_Uniform
	DD	$LN13@GL_Uniform
	DD	$LN14@GL_Uniform
	DD	$LN15@GL_Uniform
	DD	$LN16@GL_Uniform
	DD	$LN19@GL_Uniform
	DD	$LN20@GL_Uniform
	DD	$LN21@GL_Uniform
	DD	$LN22@GL_Uniform
?GL_UniformTypeToName@@YAPBDI@Z ENDP			; GL_UniformTypeToName
_TEXT	ENDS
; Function compile flags: /Odtp /ZI
; File d:\!diffusion 2020\source code 2022\client-server\client\render\r_shader.cpp
;	COMDAT ?GL_UniformTypeToDwordCount@@YAHI_N@Z
_TEXT	SEGMENT
tv82 = -68						; size = 4
tv79 = -68						; size = 4
tv76 = -68						; size = 4
tv73 = -68						; size = 4
tv70 = -68						; size = 4
tv67 = -68						; size = 4
tv64 = -68						; size = 4
_type$ = 8						; size = 4
_align$ = 12						; size = 1
?GL_UniformTypeToDwordCount@@YAHI_N@Z PROC		; GL_UniformTypeToDwordCount, COMDAT

; 319  : {

	push	ebp
	mov	ebp, esp
	sub	esp, 68					; 00000044H
	push	ebx
	push	esi
	push	edi

; 320  : 	switch( type )

	mov	eax, DWORD PTR _type$[ebp]
	mov	DWORD PTR tv64[ebp], eax
	cmp	DWORD PTR tv64[ebp], 35674		; 00008b5aH
	ja	SHORT $LN26@GL_Uniform
	cmp	DWORD PTR tv64[ebp], 35674		; 00008b5aH
	je	$LN9@GL_Uniform
	cmp	DWORD PTR tv64[ebp], 35664		; 00008b50H
	ja	SHORT $LN27@GL_Uniform
	cmp	DWORD PTR tv64[ebp], 35664		; 00008b50H
	je	$LN6@GL_Uniform
	cmp	DWORD PTR tv64[ebp], 5124		; 00001404H
	jb	$LN12@GL_Uniform
	cmp	DWORD PTR tv64[ebp], 5125		; 00001405H
	jbe	SHORT $LN4@GL_Uniform
	cmp	DWORD PTR tv64[ebp], 5126		; 00001406H
	je	$LN5@GL_Uniform
	jmp	$LN12@GL_Uniform
$LN27@GL_Uniform:
	cmp	DWORD PTR tv64[ebp], 35665		; 00008b51H
	je	$LN7@GL_Uniform
	cmp	DWORD PTR tv64[ebp], 35666		; 00008b52H
	je	$LN8@GL_Uniform
	jmp	$LN12@GL_Uniform
$LN26@GL_Uniform:
	cmp	DWORD PTR tv64[ebp], 35684		; 00008b64H
	ja	SHORT $LN28@GL_Uniform
	cmp	DWORD PTR tv64[ebp], 35677		; 00008b5dH
	jae	SHORT $LN4@GL_Uniform
	cmp	DWORD PTR tv64[ebp], 35675		; 00008b5bH
	je	$LN10@GL_Uniform
	cmp	DWORD PTR tv64[ebp], 35676		; 00008b5cH
	je	$LN11@GL_Uniform
	jmp	$LN12@GL_Uniform
$LN28@GL_Uniform:
	cmp	DWORD PTR tv64[ebp], 36293		; 00008dc5H
	je	SHORT $LN4@GL_Uniform
	jmp	$LN12@GL_Uniform
$LN4@GL_Uniform:

; 321  : 	{
; 322  : 	case GL_INT:
; 323  : 	case GL_UNSIGNED_INT:
; 324  : 	case GL_SAMPLER_1D_ARB:
; 325  : 	case GL_SAMPLER_2D_ARB:
; 326  : 	case GL_SAMPLER_3D_ARB:
; 327  : 	case GL_SAMPLER_CUBE_ARB:
; 328  : 	case GL_SAMPLER_1D_SHADOW_ARB:
; 329  : 	case GL_SAMPLER_2D_SHADOW_ARB:
; 330  : 	case GL_SAMPLER_2D_RECT_ARB:
; 331  : 	case GL_SAMPLER_2D_RECT_SHADOW_ARB:
; 332  : 	case GL_SAMPLER_CUBE_SHADOW_EXT:
; 333  : 		return align ? 4 : 1;	// int[1]

	movzx	eax, BYTE PTR _align$[ebp]
	test	eax, eax
	je	SHORT $LN14@GL_Uniform
	mov	DWORD PTR tv67[ebp], 4
	jmp	SHORT $LN15@GL_Uniform
$LN14@GL_Uniform:
	mov	DWORD PTR tv67[ebp], 1
$LN15@GL_Uniform:
	mov	eax, DWORD PTR tv67[ebp]
	jmp	$LN1@GL_Uniform
$LN5@GL_Uniform:

; 334  : 	case GL_FLOAT:
; 335  : 		return align ? 4 : 1;	// float[1]

	movzx	eax, BYTE PTR _align$[ebp]
	test	eax, eax
	je	SHORT $LN16@GL_Uniform
	mov	DWORD PTR tv70[ebp], 4
	jmp	SHORT $LN17@GL_Uniform
$LN16@GL_Uniform:
	mov	DWORD PTR tv70[ebp], 1
$LN17@GL_Uniform:
	mov	eax, DWORD PTR tv70[ebp]
	jmp	$LN1@GL_Uniform
$LN6@GL_Uniform:

; 336  : 	case GL_FLOAT_VEC2_ARB:
; 337  : 		return align ? 4 : 2;	// float[2]

	movzx	eax, BYTE PTR _align$[ebp]
	test	eax, eax
	je	SHORT $LN18@GL_Uniform
	mov	DWORD PTR tv73[ebp], 4
	jmp	SHORT $LN19@GL_Uniform
$LN18@GL_Uniform:
	mov	DWORD PTR tv73[ebp], 2
$LN19@GL_Uniform:
	mov	eax, DWORD PTR tv73[ebp]
	jmp	SHORT $LN1@GL_Uniform
$LN7@GL_Uniform:

; 338  : 	case GL_FLOAT_VEC3_ARB:
; 339  : 		return align ? 4 : 3;	// float[3]

	movzx	eax, BYTE PTR _align$[ebp]
	test	eax, eax
	je	SHORT $LN20@GL_Uniform
	mov	DWORD PTR tv76[ebp], 4
	jmp	SHORT $LN21@GL_Uniform
$LN20@GL_Uniform:
	mov	DWORD PTR tv76[ebp], 3
$LN21@GL_Uniform:
	mov	eax, DWORD PTR tv76[ebp]
	jmp	SHORT $LN1@GL_Uniform
$LN8@GL_Uniform:

; 340  : 	case GL_FLOAT_VEC4_ARB:
; 341  : 		return 4;	// float[4]

	mov	eax, 4
	jmp	SHORT $LN1@GL_Uniform
$LN9@GL_Uniform:

; 342  : 	case GL_FLOAT_MAT2_ARB:
; 343  : 		return 4;	// float[2][2]

	mov	eax, 4
	jmp	SHORT $LN1@GL_Uniform
$LN10@GL_Uniform:

; 344  : 	case GL_FLOAT_MAT3_ARB:
; 345  : 		return align ? 12 : 9;	// float[3][3]

	movzx	eax, BYTE PTR _align$[ebp]
	test	eax, eax
	je	SHORT $LN22@GL_Uniform
	mov	DWORD PTR tv79[ebp], 12			; 0000000cH
	jmp	SHORT $LN23@GL_Uniform
$LN22@GL_Uniform:
	mov	DWORD PTR tv79[ebp], 9
$LN23@GL_Uniform:
	mov	eax, DWORD PTR tv79[ebp]
	jmp	SHORT $LN1@GL_Uniform
$LN11@GL_Uniform:

; 346  : 	case GL_FLOAT_MAT4_ARB:
; 347  : 		return 16;// float[4][4]

	mov	eax, 16					; 00000010H
	jmp	SHORT $LN1@GL_Uniform
$LN12@GL_Uniform:

; 348  : 	default: return align ? 4 : 1; // assume error

	movzx	eax, BYTE PTR _align$[ebp]
	test	eax, eax
	je	SHORT $LN24@GL_Uniform
	mov	DWORD PTR tv82[ebp], 4
	jmp	SHORT $LN25@GL_Uniform
$LN24@GL_Uniform:
	mov	DWORD PTR tv82[ebp], 1
$LN25@GL_Uniform:
	mov	eax, DWORD PTR tv82[ebp]
$LN1@GL_Uniform:

; 349  : 	}
; 350  : }

	pop	edi
	pop	esi
	pop	ebx
	mov	esp, ebp
	pop	ebp
	ret	0
?GL_UniformTypeToDwordCount@@YAHI_N@Z ENDP		; GL_UniformTypeToDwordCount
_TEXT	ENDS
; Function compile flags: /Odtp /ZI
; File d:\!diffusion 2020\source code 2022\client-server\client\render\r_shader.cpp
;	COMDAT ?GL_ValidateProgram@@YAXPAUglsl_prog_s@@@Z
_TEXT	SEGMENT
_validated$ = -4					; size = 4
_shader$ = 8						; size = 4
?GL_ValidateProgram@@YAXPAUglsl_prog_s@@@Z PROC		; GL_ValidateProgram, COMDAT

; 307  : {

	push	ebp
	mov	ebp, esp
	sub	esp, 68					; 00000044H
	push	ebx
	push	esi
	push	edi

; 308  : 	GLint	validated = 0;

	mov	DWORD PTR _validated$[ebp], 0

; 309  : 
; 310  : 	if( !shader ) return;

	cmp	DWORD PTR _shader$[ebp], 0
	jne	SHORT $LN2@GL_Validat
	jmp	SHORT $LN1@GL_Validat
$LN2@GL_Validat:

; 311  : 
; 312  : 	pglValidateProgramARB( shader->handle );

	mov	eax, DWORD PTR _shader$[ebp]
	mov	ecx, DWORD PTR [eax+576]
	push	ecx
	call	DWORD PTR ?pglValidateProgramARB@@3P6GXI@ZA ; pglValidateProgramARB

; 313  : 
; 314  : 	pglGetObjectParameterivARB( shader->handle, GL_OBJECT_VALIDATE_STATUS_ARB, &validated );

	lea	eax, DWORD PTR _validated$[ebp]
	push	eax
	push	35715					; 00008b83H
	mov	ecx, DWORD PTR _shader$[ebp]
	mov	edx, DWORD PTR [ecx+576]
	push	edx
	call	DWORD PTR ?pglGetObjectParameterivARB@@3P6GXIIPAH@ZA ; pglGetObjectParameterivARB

; 315  : 	if( !validated ) ALERT( at_error, "%s\n%s shader failed to validate\n", GL_PrintInfoLog( shader->handle ), shader->name );

	cmp	DWORD PTR _validated$[ebp], 0
	jne	SHORT $LN1@GL_Validat
	mov	eax, DWORD PTR _shader$[ebp]
	push	eax
	mov	ecx, DWORD PTR _shader$[ebp]
	mov	edx, DWORD PTR [ecx+576]
	push	edx
	call	?GL_PrintInfoLog@@YAPADI@Z		; GL_PrintInfoLog
	add	esp, 4
	push	eax
	push	OFFSET ??_C@_0CB@BEHHAEKP@?$CFs?6?$CFs?5shader?5failed?5to?5validate?6@
	push	4
	call	?ALERT@@YAXW4ALERT_TYPE@@PADZZ		; ALERT
	add	esp, 16					; 00000010H
$LN1@GL_Validat:

; 316  : }

	pop	edi
	pop	esi
	pop	ebx
	mov	esp, ebp
	pop	ebp
	ret	0
?GL_ValidateProgram@@YAXPAUglsl_prog_s@@@Z ENDP		; GL_ValidateProgram
_TEXT	ENDS
; Function compile flags: /Odtp /ZI
; File d:\!diffusion 2020\source code 2022\client-server\client\render\r_shader.cpp
;	COMDAT ?GL_LinkProgram@@YAXPAUglsl_prog_s@@@Z
_TEXT	SEGMENT
_linked$ = -4						; size = 4
_shader$ = 8						; size = 4
?GL_LinkProgram@@YAXPAUglsl_prog_s@@@Z PROC		; GL_LinkProgram, COMDAT

; 294  : {

	push	ebp
	mov	ebp, esp
	sub	esp, 68					; 00000044H
	push	ebx
	push	esi
	push	edi

; 295  : 	GLint	linked = 0;

	mov	DWORD PTR _linked$[ebp], 0

; 296  : 
; 297  : 	if( !shader ) return;

	cmp	DWORD PTR _shader$[ebp], 0
	jne	SHORT $LN2@GL_LinkPro
	jmp	SHORT $LN1@GL_LinkPro
$LN2@GL_LinkPro:

; 298  : 
; 299  : 	pglLinkProgramARB( shader->handle );

	mov	eax, DWORD PTR _shader$[ebp]
	mov	ecx, DWORD PTR [eax+576]
	push	ecx
	call	DWORD PTR ?pglLinkProgramARB@@3P6GXI@ZA	; pglLinkProgramARB

; 300  : 
; 301  : 	pglGetObjectParameterivARB( shader->handle, GL_OBJECT_LINK_STATUS_ARB, &linked );

	lea	eax, DWORD PTR _linked$[ebp]
	push	eax
	push	35714					; 00008b82H
	mov	ecx, DWORD PTR _shader$[ebp]
	mov	edx, DWORD PTR [ecx+576]
	push	edx
	call	DWORD PTR ?pglGetObjectParameterivARB@@3P6GXIIPAH@ZA ; pglGetObjectParameterivARB

; 302  : 	if( !linked ) ALERT( at_error, "%s\n%s shader failed to link\n", GL_PrintInfoLog( shader->handle ), shader->name );

	cmp	DWORD PTR _linked$[ebp], 0
	jne	SHORT $LN3@GL_LinkPro
	mov	eax, DWORD PTR _shader$[ebp]
	push	eax
	mov	ecx, DWORD PTR _shader$[ebp]
	mov	edx, DWORD PTR [ecx+576]
	push	edx
	call	?GL_PrintInfoLog@@YAPADI@Z		; GL_PrintInfoLog
	add	esp, 4
	push	eax
	push	OFFSET ??_C@_0BN@ONGMHJJJ@?$CFs?6?$CFs?5shader?5failed?5to?5link?6?$AA@
	push	4
	call	?ALERT@@YAXW4ALERT_TYPE@@PADZZ		; ALERT
	add	esp, 16					; 00000010H
	jmp	SHORT $LN1@GL_LinkPro
$LN3@GL_LinkPro:

; 303  : 	else shader->status |= SHADER_PROGRAM_LINKED;

	mov	eax, DWORD PTR _shader$[ebp]
	movzx	ecx, WORD PTR [eax+580]
	or	ecx, 4
	mov	edx, DWORD PTR _shader$[ebp]
	mov	WORD PTR [edx+580], cx
$LN1@GL_LinkPro:

; 304  : }

	pop	edi
	pop	esi
	pop	ebx
	mov	esp, ebp
	pop	ebp
	ret	0
?GL_LinkProgram@@YAXPAUglsl_prog_s@@@Z ENDP		; GL_LinkProgram
_TEXT	ENDS
; Function compile flags: /Odtp /ZI
; File d:\!diffusion 2020\source code 2022\client-server\client\render\r_shader.cpp
;	COMDAT ?GL_LoadGPUShader@@YAXPAUglsl_prog_s@@PBDI_N1@Z
_TEXT	SEGMENT
tv72 = -372						; size = 4
_bufferSize$ = -304					; size = 4
_buffer$ = -300						; size = 4
_compiled$ = -296					; size = 4
_source$ = -292						; size = 16
_object$ = -276						; size = 4
_filename$ = -272					; size = 256
__$ArrayPad$ = -16					; size = 4
__$EHRec$ = -12						; size = 12
_shader$ = 8						; size = 4
_name$ = 12						; size = 4
_shaderType$ = 16					; size = 4
_compatible$ = 20					; size = 1
_defines$ = 24						; size = 4
?GL_LoadGPUShader@@YAXPAUglsl_prog_s@@PBDI_N1@Z PROC	; GL_LoadGPUShader, COMDAT

; 236  : {

	push	ebp
	mov	ebp, esp
	push	-1
	push	__ehhandler$?GL_LoadGPUShader@@YAXPAUglsl_prog_s@@PBDI_N1@Z
	mov	eax, DWORD PTR fs:0
	push	eax
	sub	esp, 360				; 00000168H
	mov	eax, DWORD PTR ___security_cookie
	xor	eax, ebp
	mov	DWORD PTR __$ArrayPad$[ebp], eax
	push	ebx
	push	esi
	push	edi
	push	eax
	lea	eax, DWORD PTR __$EHRec$[ebp]
	mov	DWORD PTR fs:0, eax

; 237  : 	char		filename[256];
; 238  : 	GLhandleARB	object;
; 239  : 	CVirtualFS	source;

	lea	ecx, DWORD PTR _source$[ebp]
	call	??0CVirtualFS@@QAE@XZ			; CVirtualFS::CVirtualFS
	mov	DWORD PTR __$EHRec$[ebp+8], 0

; 240  : 	GLint		compiled;
; 241  : 
; 242  : 	ASSERT( shader != NULL );

	cmp	DWORD PTR _shader$[ebp], 0
	jne	SHORT $LN4@GL_LoadGPU
	mov	eax, DWORD PTR ?__LINE__Var@?0??GL_LoadGPUShader@@YAXPAUglsl_prog_s@@PBDI_N1@Z@4JA
	add	eax, 6
	push	eax
	push	OFFSET ??_C@_0EN@DPFBEFBL@d?3?2?$CBdiffusion?52020?2source?5code?52@
	push	OFFSET ??_C@_0BI@FECCGOFJ@assert?5failed?5at?5?$CFs?3?$CFi?6?$AA@
	call	DWORD PTR ?gRenderfuncs@@3Urender_api_s@@A+236
	add	esp, 12					; 0000000cH
$LN4@GL_LoadGPU:

; 243  : 
; 244  : 	switch( shaderType )

	mov	eax, DWORD PTR _shaderType$[ebp]
	mov	DWORD PTR tv72[ebp], eax
	cmp	DWORD PTR tv72[ebp], 35632		; 00008b30H
	je	SHORT $LN6@GL_LoadGPU
	cmp	DWORD PTR tv72[ebp], 35633		; 00008b31H
	je	SHORT $LN5@GL_LoadGPU
	jmp	SHORT $LN7@GL_LoadGPU
$LN5@GL_LoadGPU:

; 245  : 	{
; 246  : 	case GL_VERTEX_SHADER_ARB:
; 247  : 		Q_snprintf( filename, sizeof( filename ), "glsl/%s_vp.glsl", name );

	mov	eax, DWORD PTR _name$[ebp]
	push	eax
	push	OFFSET ??_C@_0BA@IBGHDCHK@glsl?1?$CFs_vp?4glsl?$AA@
	push	256					; 00000100H
	lea	ecx, DWORD PTR _filename$[ebp]
	push	ecx
	call	?Q_snprintf@@YAHPADIPBDZZ		; Q_snprintf
	add	esp, 16					; 00000010H

; 248  : 		break;

	jmp	SHORT $LN2@GL_LoadGPU
$LN6@GL_LoadGPU:

; 249  : 	case GL_FRAGMENT_SHADER_ARB:
; 250  : 		Q_snprintf( filename, sizeof( filename ), "glsl/%s_fp.glsl", name );

	mov	eax, DWORD PTR _name$[ebp]
	push	eax
	push	OFFSET ??_C@_0BA@PNNMADFB@glsl?1?$CFs_fp?4glsl?$AA@
	push	256					; 00000100H
	lea	ecx, DWORD PTR _filename$[ebp]
	push	ecx
	call	?Q_snprintf@@YAHPADIPBDZZ		; Q_snprintf
	add	esp, 16					; 00000010H

; 251  : 		break;

	jmp	SHORT $LN2@GL_LoadGPU
$LN7@GL_LoadGPU:

; 252  : 	default:
; 253  : 		ALERT( at_error, "GL_LoadGPUShader: unknown shader type %p\n", shaderType );

	mov	eax, DWORD PTR _shaderType$[ebp]
	push	eax
	push	OFFSET ??_C@_0CK@FKDDGAG@GL_LoadGPUShader?3?5unknown?5shader@
	push	4
	call	?ALERT@@YAXW4ALERT_TYPE@@PADZZ		; ALERT
	add	esp, 12					; 0000000cH

; 254  : 		return;

	mov	DWORD PTR __$EHRec$[ebp+8], -1
	lea	ecx, DWORD PTR _source$[ebp]
	call	??1CVirtualFS@@QAE@XZ			; CVirtualFS::~CVirtualFS
	jmp	$LN1@GL_LoadGPU
$LN2@GL_LoadGPU:

; 255  : 	}
; 256  : 
; 257  : 	// load includes, add some directives
; 258  : 	if( !GL_ProcessShader( filename, &source, compatible, defines ))

	mov	eax, DWORD PTR _defines$[ebp]
	push	eax
	movzx	ecx, BYTE PTR _compatible$[ebp]
	push	ecx
	lea	edx, DWORD PTR _source$[ebp]
	push	edx
	lea	eax, DWORD PTR _filename$[ebp]
	push	eax
	call	?GL_ProcessShader@@YA_NPBDPAVCVirtualFS@@_N0@Z ; GL_ProcessShader
	add	esp, 16					; 00000010H
	movzx	ecx, al
	test	ecx, ecx
	jne	SHORT $LN8@GL_LoadGPU

; 259  : 		return;

	mov	DWORD PTR __$EHRec$[ebp+8], -1
	lea	ecx, DWORD PTR _source$[ebp]
	call	??1CVirtualFS@@QAE@XZ			; CVirtualFS::~CVirtualFS
	jmp	$LN1@GL_LoadGPU
$LN8@GL_LoadGPU:

; 260  : 
; 261  : 	GLcharARB *buffer = (GLcharARB *)source.GetBuffer();

	lea	ecx, DWORD PTR _source$[ebp]
	call	?GetBuffer@CVirtualFS@@QAEPADXZ		; CVirtualFS::GetBuffer
	mov	DWORD PTR _buffer$[ebp], eax

; 262  : 	int bufferSize = source.GetSize();

	lea	ecx, DWORD PTR _source$[ebp]
	call	?GetSize@CVirtualFS@@QAEIXZ		; CVirtualFS::GetSize
	mov	DWORD PTR _bufferSize$[ebp], eax

; 263  : 
; 264  : 	ALERT( at_aiconsole, "\nloading '%s'\n", filename );

	lea	eax, DWORD PTR _filename$[ebp]
	push	eax
	push	OFFSET ??_C@_0P@JCFNJCGJ@?6loading?5?8?$CFs?8?6?$AA@
	push	2
	call	?ALERT@@YAXW4ALERT_TYPE@@PADZZ		; ALERT
	add	esp, 12					; 0000000cH

; 265  : 	object = pglCreateShaderObjectARB( shaderType );

	mov	eax, DWORD PTR _shaderType$[ebp]
	push	eax
	call	DWORD PTR ?pglCreateShaderObjectARB@@3P6GII@ZA ; pglCreateShaderObjectARB
	mov	DWORD PTR _object$[ebp], eax

; 266  : 	pglShaderSourceARB( object, GL_TRUE, (const GLcharARB **)&buffer, &bufferSize );

	lea	eax, DWORD PTR _bufferSize$[ebp]
	push	eax
	lea	ecx, DWORD PTR _buffer$[ebp]
	push	ecx
	push	1
	mov	edx, DWORD PTR _object$[ebp]
	push	edx
	call	DWORD PTR ?pglShaderSourceARB@@3P6GXIHPAPBDPBH@ZA ; pglShaderSourceARB

; 267  : 
; 268  : 	// compile shader
; 269  : 	pglCompileShaderARB( object );

	mov	eax, DWORD PTR _object$[ebp]
	push	eax
	call	DWORD PTR ?pglCompileShaderARB@@3P6GXI@ZA ; pglCompileShaderARB

; 270  : 
; 271  : 	// check if shader compiled
; 272  : 	pglGetObjectParameterivARB( object, GL_OBJECT_COMPILE_STATUS_ARB, &compiled );

	lea	eax, DWORD PTR _compiled$[ebp]
	push	eax
	push	35713					; 00008b81H
	mov	ecx, DWORD PTR _object$[ebp]
	push	ecx
	call	DWORD PTR ?pglGetObjectParameterivARB@@3P6GXIIPAH@ZA ; pglGetObjectParameterivARB

; 273  : 
; 274  : 	if( !compiled )

	cmp	DWORD PTR _compiled$[ebp], 0
	jne	SHORT $LN9@GL_LoadGPU

; 275  : 	{
; 276  : 		if( developer_level ) Msg( "%s", GL_PrintInfoLog( object ));

	cmp	DWORD PTR ?developer_level@@3HA, 0	; developer_level
	je	SHORT $LN10@GL_LoadGPU
	mov	eax, DWORD PTR _object$[ebp]
	push	eax
	call	?GL_PrintInfoLog@@YAPADI@Z		; GL_PrintInfoLog
	add	esp, 4
	push	eax
	push	OFFSET ??_C@_02DKCKIIND@?$CFs?$AA@
	call	DWORD PTR ?gEngfuncs@@3Ucl_enginefuncs_s@@A+160
	add	esp, 8
$LN10@GL_LoadGPU:

; 277  : 		if( developer_level ) Msg( "Shader options:%s\n", GL_PretifyListOptions( defines ));

	cmp	DWORD PTR ?developer_level@@3HA, 0	; developer_level
	je	SHORT $LN11@GL_LoadGPU
	push	0
	mov	eax, DWORD PTR _defines$[ebp]
	push	eax
	call	?GL_PretifyListOptions@@YAPBDPBD_N@Z	; GL_PretifyListOptions
	add	esp, 8
	push	eax
	push	OFFSET ??_C@_0BD@NMNDBDIA@Shader?5options?3?$CFs?6?$AA@
	call	DWORD PTR ?gEngfuncs@@3Ucl_enginefuncs_s@@A+160
	add	esp, 8
$LN11@GL_LoadGPU:

; 278  : 		ALERT( at_error, "Couldn't compile %s\n", filename ); 

	lea	eax, DWORD PTR _filename$[ebp]
	push	eax
	push	OFFSET ??_C@_0BF@PMBKHIDO@Couldn?8t?5compile?5?$CFs?6?$AA@
	push	4
	call	?ALERT@@YAXW4ALERT_TYPE@@PADZZ		; ALERT
	add	esp, 12					; 0000000cH

; 279  : 		return;

	mov	DWORD PTR __$EHRec$[ebp+8], -1
	lea	ecx, DWORD PTR _source$[ebp]
	call	??1CVirtualFS@@QAE@XZ			; CVirtualFS::~CVirtualFS
	jmp	SHORT $LN1@GL_LoadGPU
$LN9@GL_LoadGPU:

; 280  : 	}
; 281  : 
; 282  : 	if( shaderType == GL_VERTEX_SHADER_ARB )

	cmp	DWORD PTR _shaderType$[ebp], 35633	; 00008b31H
	jne	SHORT $LN12@GL_LoadGPU

; 283  : 		shader->status |= SHADER_VERTEX_COMPILED;

	mov	eax, DWORD PTR _shader$[ebp]
	movzx	ecx, WORD PTR [eax+580]
	or	ecx, 1
	mov	edx, DWORD PTR _shader$[ebp]
	mov	WORD PTR [edx+580], cx
	jmp	SHORT $LN13@GL_LoadGPU
$LN12@GL_LoadGPU:

; 284  : 	else shader->status |= SHADER_FRAGMENT_COMPILED;

	mov	eax, DWORD PTR _shader$[ebp]
	movzx	ecx, WORD PTR [eax+580]
	or	ecx, 2
	mov	edx, DWORD PTR _shader$[ebp]
	mov	WORD PTR [edx+580], cx
$LN13@GL_LoadGPU:

; 285  : 
; 286  : 	// attach shader to program
; 287  : 	pglAttachObjectARB( shader->handle, object );

	mov	eax, DWORD PTR _object$[ebp]
	push	eax
	mov	ecx, DWORD PTR _shader$[ebp]
	mov	edx, DWORD PTR [ecx+576]
	push	edx
	call	DWORD PTR ?pglAttachObjectARB@@3P6GXII@ZA ; pglAttachObjectARB

; 288  : 
; 289  : 	// delete shader, no longer needed
; 290  : 	pglDeleteObjectARB( object );

	mov	eax, DWORD PTR _object$[ebp]
	push	eax
	call	DWORD PTR ?pglDeleteObjectARB@@3P6GXI@ZA ; pglDeleteObjectARB

; 291  : }

	mov	DWORD PTR __$EHRec$[ebp+8], -1
	lea	ecx, DWORD PTR _source$[ebp]
	call	??1CVirtualFS@@QAE@XZ			; CVirtualFS::~CVirtualFS
$LN1@GL_LoadGPU:
	mov	ecx, DWORD PTR __$EHRec$[ebp]
	mov	DWORD PTR fs:0, ecx
	pop	ecx
	pop	edi
	pop	esi
	pop	ebx
	mov	ecx, DWORD PTR __$ArrayPad$[ebp]
	xor	ecx, ebp
	call	@__security_check_cookie@4
	mov	esp, ebp
	pop	ebp
	ret	0
_TEXT	ENDS
;	COMDAT text$x
text$x	SEGMENT
__unwindfunclet$?GL_LoadGPUShader@@YAXPAUglsl_prog_s@@PBDI_N1@Z$0:
	lea	ecx, DWORD PTR _source$[ebp]
	jmp	??1CVirtualFS@@QAE@XZ			; CVirtualFS::~CVirtualFS
__ehhandler$?GL_LoadGPUShader@@YAXPAUglsl_prog_s@@PBDI_N1@Z:
	mov	edx, DWORD PTR [esp+8]
	lea	eax, DWORD PTR [edx+12]
	mov	ecx, DWORD PTR [edx-376]
	xor	ecx, eax
	call	@__security_check_cookie@4
	mov	ecx, DWORD PTR [edx-4]
	xor	ecx, eax
	call	@__security_check_cookie@4
	mov	eax, OFFSET __ehfuncinfo$?GL_LoadGPUShader@@YAXPAUglsl_prog_s@@PBDI_N1@Z
	jmp	___CxxFrameHandler3
text$x	ENDS
?GL_LoadGPUShader@@YAXPAUglsl_prog_s@@PBDI_N1@Z ENDP	; GL_LoadGPUShader
; Function compile flags: /Odtp /ZI
; File d:\!diffusion 2020\source code 2022\client-server\client\render\r_shader.cpp
;	COMDAT ?GL_ProcessShader@@YA_NPBDPAVCVirtualFS@@_N0@Z
_TEXT	SEGMENT
$T2 = -94						; size = 1
$T3 = -93						; size = 1
_file$ = -28						; size = 16
__$EHRec$ = -12						; size = 12
_filename$ = 8						; size = 4
_out$ = 12						; size = 4
_compatible$ = 16					; size = 1
_defines$ = 20						; size = 4
?GL_ProcessShader@@YA_NPBDPAVCVirtualFS@@_N0@Z PROC	; GL_ProcessShader, COMDAT

; 197  : {

	push	ebp
	mov	ebp, esp
	push	-1
	push	__ehhandler$?GL_ProcessShader@@YA_NPBDPAVCVirtualFS@@_N0@Z
	mov	eax, DWORD PTR fs:0
	push	eax
	sub	esp, 84					; 00000054H
	push	ebx
	push	esi
	push	edi
	mov	eax, DWORD PTR ___security_cookie
	xor	eax, ebp
	push	eax
	lea	eax, DWORD PTR __$EHRec$[ebp]
	mov	DWORD PTR fs:0, eax

; 198  : 	CVirtualFS file;

	lea	ecx, DWORD PTR _file$[ebp]
	call	??0CVirtualFS@@QAE@XZ			; CVirtualFS::CVirtualFS
	mov	DWORD PTR __$EHRec$[ebp+8], 0

; 199  : 
; 200  : 	file_stack_pos = 0;	// debug

	mov	DWORD PTR ?file_stack_pos@@3HA, 0

; 201  : 
; 202  : 	if( !GL_LoadSource( filename, &file ))

	lea	eax, DWORD PTR _file$[ebp]
	push	eax
	mov	ecx, DWORD PTR _filename$[ebp]
	push	ecx
	call	?GL_LoadSource@@YA_NPBDPAVCVirtualFS@@@Z ; GL_LoadSource
	add	esp, 8
	movzx	edx, al
	test	edx, edx
	jne	SHORT $LN2@GL_Process

; 203  : 		return false;

	mov	BYTE PTR $T3[ebp], 0
	mov	DWORD PTR __$EHRec$[ebp+8], -1
	lea	ecx, DWORD PTR _file$[ebp]
	call	??1CVirtualFS@@QAE@XZ			; CVirtualFS::~CVirtualFS
	mov	al, BYTE PTR $T3[ebp]
	jmp	$LN1@GL_Process
$LN2@GL_Process:

; 204  : 
; 205  : 	// add internal defines
; 206  : 	out->Printf( "#version 130\n" );

	push	OFFSET ??_C@_0O@LOEMKNG@?$CDversion?5130?6?$AA@
	mov	eax, DWORD PTR _out$[ebp]
	push	eax
	call	?Printf@CVirtualFS@@QAAIPBDZZ		; CVirtualFS::Printf
	add	esp, 8

; 207  : 	out->Printf( "#ifndef M_PI\n#define M_PI 3.14159265358979323846\n#endif\n" );

	push	OFFSET ??_C@_0DJ@GFBPBLGM@?$CDifndef?5M_PI?6?$CDdefine?5M_PI?53?41415@
	mov	eax, DWORD PTR _out$[ebp]
	push	eax
	call	?Printf@CVirtualFS@@QAAIPBDZZ		; CVirtualFS::Printf
	add	esp, 8

; 208  : 	out->Printf( "#ifndef M_PI2\n#define M_PI2 6.28318530717958647692\n#endif\n" );

	push	OFFSET ??_C@_0DL@JPAIIFEC@?$CDifndef?5M_PI2?6?$CDdefine?5M_PI2?56?428@
	mov	eax, DWORD PTR _out$[ebp]
	push	eax
	call	?Printf@CVirtualFS@@QAAIPBDZZ		; CVirtualFS::Printf
	add	esp, 8

; 209  : 	if( GL_Support( R_EXT_GPU_SHADER4 ))

	push	6
	call	?GL_Support@@YA_NH@Z			; GL_Support
	add	esp, 4
	movzx	eax, al
	test	eax, eax
	je	SHORT $LN3@GL_Process

; 210  : 	{
; 211  : 		out->Printf( "#extension GL_EXT_gpu_shader4 : require\n" ); // support bitwise ops

	push	OFFSET ??_C@_0CJ@DGLNNJCC@?$CDextension?5GL_EXT_gpu_shader4?5?3?5@
	mov	eax, DWORD PTR _out$[ebp]
	push	eax
	call	?Printf@CVirtualFS@@QAAIPBDZZ		; CVirtualFS::Printf
	add	esp, 8

; 212  : 		out->Printf( "#define GLSL_gpu_shader4\n" );

	push	OFFSET ??_C@_0BK@FIAFHJNI@?$CDdefine?5GLSL_gpu_shader4?6?$AA@
	mov	eax, DWORD PTR _out$[ebp]
	push	eax
	call	?Printf@CVirtualFS@@QAAIPBDZZ		; CVirtualFS::Printf
	add	esp, 8

; 213  : 		if( GL_Support( R_TEXTURE_ARRAY_EXT ))

	push	5
	call	?GL_Support@@YA_NH@Z			; GL_Support
	add	esp, 4
	movzx	eax, al
	test	eax, eax
	je	SHORT $LN5@GL_Process

; 214  : 			out->Printf( "#define GLSL_ALLOW_TEXTURE_ARRAY\n" );

	push	OFFSET ??_C@_0CC@EIHIPLOH@?$CDdefine?5GLSL_ALLOW_TEXTURE_ARRAY@
	mov	eax, DWORD PTR _out$[ebp]
	push	eax
	call	?Printf@CVirtualFS@@QAAIPBDZZ		; CVirtualFS::Printf
	add	esp, 8
$LN5@GL_Process:

; 215  : 	}

	jmp	SHORT $LN6@GL_Process
$LN3@GL_Process:

; 216  : 	else if( GL_Support( R_TEXTURE_ARRAY_EXT ))

	push	5
	call	?GL_Support@@YA_NH@Z			; GL_Support
	add	esp, 4
	movzx	eax, al
	test	eax, eax
	je	SHORT $LN6@GL_Process

; 217  : 	{
; 218  : 		out->Printf( "#extension GL_EXT_texture_array : require\n" ); // support texture arrays

	push	OFFSET ??_C@_0CL@JHODLGCO@?$CDextension?5GL_EXT_texture_array?5@
	mov	eax, DWORD PTR _out$[ebp]
	push	eax
	call	?Printf@CVirtualFS@@QAAIPBDZZ		; CVirtualFS::Printf
	add	esp, 8

; 219  : 		out->Printf( "#define GLSL_ALLOW_TEXTURE_ARRAY\n" );

	push	OFFSET ??_C@_0CC@EIHIPLOH@?$CDdefine?5GLSL_ALLOW_TEXTURE_ARRAY@
	mov	eax, DWORD PTR _out$[ebp]
	push	eax
	call	?Printf@CVirtualFS@@QAAIPBDZZ		; CVirtualFS::Printf
	add	esp, 8
$LN6@GL_Process:

; 220  : 	}
; 221  : 	if( defines ) out->Print( defines );

	cmp	DWORD PTR _defines$[ebp], 0
	je	SHORT $LN7@GL_Process
	mov	eax, DWORD PTR _defines$[ebp]
	push	eax
	mov	ecx, DWORD PTR _out$[ebp]
	call	?Print@CVirtualFS@@QAEIPBD@Z		; CVirtualFS::Print
$LN7@GL_Process:

; 222  : 
; 223  : 	// user may override this constants
; 224  : 	out->Printf( "#ifndef MAXSTUDIOBONES\n#define MAXSTUDIOBONES %i\n#endif\n", glConfig.max_skinning_bones );

	mov	eax, DWORD PTR ?glConfig@@3UglConfig_t@@A+88
	push	eax
	push	OFFSET ??_C@_0DJ@LFGPGNO@?$CDifndef?5MAXSTUDIOBONES?6?$CDdefine?5M@
	mov	ecx, DWORD PTR _out$[ebp]
	push	ecx
	call	?Printf@CVirtualFS@@QAAIPBDZZ		; CVirtualFS::Printf
	add	esp, 12					; 0000000cH

; 225  : 	out->Printf( "#ifndef MAX_LIGHTSTYLES\n#define MAX_LIGHTSTYLES %i\n#endif\n", MAX_LIGHTSTYLES );

	push	64					; 00000040H
	push	OFFSET ??_C@_0DL@DLNJKMNE@?$CDifndef?5MAX_LIGHTSTYLES?6?$CDdefine?5@
	mov	eax, DWORD PTR _out$[ebp]
	push	eax
	call	?Printf@CVirtualFS@@QAAIPBDZZ		; CVirtualFS::Printf
	add	esp, 12					; 0000000cH

; 226  : 	out->Printf( "#ifndef MAXLIGHTMAPS\n#define MAXLIGHTMAPS %i\n#endif\n", MAXLIGHTMAPS );

	push	4
	push	OFFSET ??_C@_0DF@FCFCOAGC@?$CDifndef?5MAXLIGHTMAPS?6?$CDdefine?5MAX@
	mov	eax, DWORD PTR _out$[ebp]
	push	eax
	call	?Printf@CVirtualFS@@QAAIPBDZZ		; CVirtualFS::Printf
	add	esp, 12					; 0000000cH

; 227  : 	out->Printf( "#ifndef GRASS_ANIM_DIST\n#define GRASS_ANIM_DIST %f\n#endif\n", GRASS_ANIM_DIST );

	sub	esp, 8
	movsd	xmm0, QWORD PTR __real@4080000000000000
	movsd	QWORD PTR [esp], xmm0
	push	OFFSET ??_C@_0DL@EIKGDMGK@?$CDifndef?5GRASS_ANIM_DIST?6?$CDdefine?5@
	mov	eax, DWORD PTR _out$[ebp]
	push	eax
	call	?Printf@CVirtualFS@@QAAIPBDZZ		; CVirtualFS::Printf
	add	esp, 16					; 00000010H

; 228  : 
; 229  : 	GL_ParseFile( filename, &file, out );

	mov	eax, DWORD PTR _out$[ebp]
	push	eax
	lea	ecx, DWORD PTR _file$[ebp]
	push	ecx
	mov	edx, DWORD PTR _filename$[ebp]
	push	edx
	call	?GL_ParseFile@@YAXPBDPAVCVirtualFS@@1@Z	; GL_ParseFile
	add	esp, 12					; 0000000cH

; 230  : 	out->Write( "", 1 ); // terminator

	push	1
	push	OFFSET ??_C@_00CNPNBAHC@?$AA@
	mov	ecx, DWORD PTR _out$[ebp]
	call	?Write@CVirtualFS@@QAEIPBXI@Z		; CVirtualFS::Write

; 231  : 
; 232  : 	return true;

	mov	BYTE PTR $T2[ebp], 1
	mov	DWORD PTR __$EHRec$[ebp+8], -1
	lea	ecx, DWORD PTR _file$[ebp]
	call	??1CVirtualFS@@QAE@XZ			; CVirtualFS::~CVirtualFS
	mov	al, BYTE PTR $T2[ebp]
$LN1@GL_Process:

; 233  : }

	mov	ecx, DWORD PTR __$EHRec$[ebp]
	mov	DWORD PTR fs:0, ecx
	pop	ecx
	pop	edi
	pop	esi
	pop	ebx
	mov	esp, ebp
	pop	ebp
	ret	0
_TEXT	ENDS
;	COMDAT text$x
text$x	SEGMENT
__unwindfunclet$?GL_ProcessShader@@YA_NPBDPAVCVirtualFS@@_N0@Z$0:
	lea	ecx, DWORD PTR _file$[ebp]
	jmp	??1CVirtualFS@@QAE@XZ			; CVirtualFS::~CVirtualFS
__ehhandler$?GL_ProcessShader@@YA_NPBDPAVCVirtualFS@@_N0@Z:
	mov	edx, DWORD PTR [esp+8]
	lea	eax, DWORD PTR [edx+12]
	mov	ecx, DWORD PTR [edx-100]
	xor	ecx, eax
	call	@__security_check_cookie@4
	mov	eax, OFFSET __ehfuncinfo$?GL_ProcessShader@@YA_NPBDPAVCVirtualFS@@_N0@Z
	jmp	___CxxFrameHandler3
text$x	ENDS
?GL_ProcessShader@@YA_NPBDPAVCVirtualFS@@_N0@Z ENDP	; GL_ProcessShader
; Function compile flags: /Odtp /ZI
; File d:\!diffusion 2020\source code 2022\client-server\client\render\r_shader.cpp
;	COMDAT ?GL_ParseFile@@YAXPBDPAVCVirtualFS@@1@Z
_TEXT	SEGMENT
_incname$2 = -2604					; size = 256
_incfile$3 = -2348					; size = 16
_line$ = -2332						; size = 2048
_fileline$ = -284					; size = 4
_ret$ = -280						; size = 4
_token$ = -276						; size = 256
_pfile$ = -20						; size = 4
__$ArrayPad$ = -16					; size = 4
__$EHRec$ = -12						; size = 12
_filename$ = 8						; size = 4
_file$ = 12						; size = 4
_out$ = 16						; size = 4
?GL_ParseFile@@YAXPBDPAVCVirtualFS@@1@Z PROC		; GL_ParseFile, COMDAT

; 158  : {

	push	ebp
	mov	ebp, esp
	push	-1
	push	__ehhandler$?GL_ParseFile@@YAXPBDPAVCVirtualFS@@1@Z
	mov	eax, DWORD PTR fs:0
	push	eax
	sub	esp, 2976				; 00000ba0H
	mov	eax, DWORD PTR ___security_cookie
	xor	eax, ebp
	mov	DWORD PTR __$ArrayPad$[ebp], eax
	push	ebx
	push	esi
	push	edi
	push	eax
	lea	eax, DWORD PTR __$EHRec$[ebp]
	mov	DWORD PTR fs:0, eax

; 159  : 	char	*pfile, token[256];
; 160  : 	int	ret, fileline = 1;

	mov	DWORD PTR _fileline$[ebp], 1

; 161  : 	char	line[2048];
; 162  : 
; 163  : //	out->Printf( "#file %s\n", filename );	// OpenGL doesn't support #file :-(
; 164  : 	out->Printf( "#line 0\n" );

	push	OFFSET ??_C@_08CGHKNNMG@?$CDline?50?6?$AA@
	mov	eax, DWORD PTR _out$[ebp]
	push	eax
	call	?Printf@CVirtualFS@@QAAIPBDZZ		; CVirtualFS::Printf
	add	esp, 8
$LN4@GL_ParseFi:

; 165  : 
; 166  : 	do
; 167  : 	{
; 168  : 		ret = file->Gets( line, sizeof( line ));

	push	2048					; 00000800H
	lea	eax, DWORD PTR _line$[ebp]
	push	eax
	mov	ecx, DWORD PTR _file$[ebp]
	call	?Gets@CVirtualFS@@QAEHPADI@Z		; CVirtualFS::Gets
	mov	DWORD PTR _ret$[ebp], eax

; 169  : 		pfile = line;

	lea	eax, DWORD PTR _line$[ebp]
	mov	DWORD PTR _pfile$[ebp], eax

; 170  : 
; 171  : 		// NOTE: if first keyword it's not an '#include' just ignore it
; 172  : 		pfile = COM_ParseFile( pfile, token );

	push	1
	push	256					; 00000100H
	lea	eax, DWORD PTR _token$[ebp]
	push	eax
	mov	ecx, DWORD PTR _pfile$[ebp]
	push	ecx
	call	?COM_ParseFileExt@@YAPADPAD0J_N@Z	; COM_ParseFileExt
	add	esp, 16					; 00000010H
	mov	DWORD PTR _pfile$[ebp], eax

; 173  : 		if( !Q_strcmp( token, "#include" ))

	push	99999					; 0001869fH
	push	OFFSET ??_C@_08GPLAJCBH@?$CDinclude?$AA@
	lea	eax, DWORD PTR _token$[ebp]
	push	eax
	call	?Q_strncmp@@YAHPBD0H@Z			; Q_strncmp
	add	esp, 12					; 0000000cH
	test	eax, eax
	jne	$LN5@GL_ParseFi

; 174  : 		{
; 175  : 			CVirtualFS incfile;

	lea	ecx, DWORD PTR _incfile$3[ebp]
	call	??0CVirtualFS@@QAE@XZ			; CVirtualFS::CVirtualFS
	mov	DWORD PTR __$EHRec$[ebp+8], 0

; 176  : 			char incname[256];
; 177  : 
; 178  : 			pfile = COM_ParseLine( pfile, token );

	push	0
	push	256					; 00000100H
	lea	eax, DWORD PTR _token$[ebp]
	push	eax
	mov	ecx, DWORD PTR _pfile$[ebp]
	push	ecx
	call	?COM_ParseFileExt@@YAPADPAD0J_N@Z	; COM_ParseFileExt
	add	esp, 16					; 00000010H
	mov	DWORD PTR _pfile$[ebp], eax

; 179  : 			Q_snprintf( incname, sizeof( incname ), "glsl/%s", token );

	lea	eax, DWORD PTR _token$[ebp]
	push	eax
	push	OFFSET ??_C@_07BPFEFLNA@glsl?1?$CFs?$AA@
	push	256					; 00000100H
	lea	ecx, DWORD PTR _incname$2[ebp]
	push	ecx
	call	?Q_snprintf@@YAHPADIPBDZZ		; Q_snprintf
	add	esp, 16					; 00000010H

; 180  : 			if( !GL_LoadSource( incname, &incfile ))

	lea	eax, DWORD PTR _incfile$3[ebp]
	push	eax
	lea	ecx, DWORD PTR _incname$2[ebp]
	push	ecx
	call	?GL_LoadSource@@YA_NPBDPAVCVirtualFS@@@Z ; GL_LoadSource
	add	esp, 8
	movzx	edx, al
	test	edx, edx
	jne	SHORT $LN7@GL_ParseFi

; 181  : 			{
; 182  : 				fileline++;

	mov	eax, DWORD PTR _fileline$[ebp]
	add	eax, 1
	mov	DWORD PTR _fileline$[ebp], eax

; 183  : 				continue;

	mov	DWORD PTR __$EHRec$[ebp+8], -1
	lea	ecx, DWORD PTR _incfile$3[ebp]
	call	??1CVirtualFS@@QAE@XZ			; CVirtualFS::~CVirtualFS
	jmp	SHORT $LN2@GL_ParseFi
$LN7@GL_ParseFi:

; 184  :                               }
; 185  : 			GL_ParseFile( incname, &incfile, out );

	mov	eax, DWORD PTR _out$[ebp]
	push	eax
	lea	ecx, DWORD PTR _incfile$3[ebp]
	push	ecx
	lea	edx, DWORD PTR _incname$2[ebp]
	push	edx
	call	?GL_ParseFile@@YAXPBDPAVCVirtualFS@@1@Z	; GL_ParseFile
	add	esp, 12					; 0000000cH

; 186  : //			out->Printf( "#file %s\n", filename );	// OpenGL doesn't support #file :-(
; 187  : 			out->Printf( "#line %i\n", fileline );

	mov	eax, DWORD PTR _fileline$[ebp]
	push	eax
	push	OFFSET ??_C@_09KFJICHAG@?$CDline?5?$CFi?6?$AA@
	mov	ecx, DWORD PTR _out$[ebp]
	push	ecx
	call	?Printf@CVirtualFS@@QAAIPBDZZ		; CVirtualFS::Printf
	add	esp, 12					; 0000000cH

; 188  : 		}

	mov	DWORD PTR __$EHRec$[ebp+8], -1
	lea	ecx, DWORD PTR _incfile$3[ebp]
	call	??1CVirtualFS@@QAE@XZ			; CVirtualFS::~CVirtualFS
	jmp	SHORT $LN6@GL_ParseFi
$LN5@GL_ParseFi:

; 189  : 		else out->Printf( "%s\n", line );

	lea	eax, DWORD PTR _line$[ebp]
	push	eax
	push	OFFSET ??_C@_03OFAPEBGM@?$CFs?6?$AA@
	mov	ecx, DWORD PTR _out$[ebp]
	push	ecx
	call	?Printf@CVirtualFS@@QAAIPBDZZ		; CVirtualFS::Printf
	add	esp, 12					; 0000000cH
$LN6@GL_ParseFi:

; 190  : 		fileline++;

	mov	eax, DWORD PTR _fileline$[ebp]
	add	eax, 1
	mov	DWORD PTR _fileline$[ebp], eax
$LN2@GL_ParseFi:

; 191  : 	} while( ret != EOF );

	cmp	DWORD PTR _ret$[ebp], -1
	jne	$LN4@GL_ParseFi

; 192  : 
; 193  : 	GL_PopFileStack();

	call	?GL_PopFileStack@@YA_NXZ		; GL_PopFileStack

; 194  : }

	mov	ecx, DWORD PTR __$EHRec$[ebp]
	mov	DWORD PTR fs:0, ecx
	pop	ecx
	pop	edi
	pop	esi
	pop	ebx
	mov	ecx, DWORD PTR __$ArrayPad$[ebp]
	xor	ecx, ebp
	call	@__security_check_cookie@4
	mov	esp, ebp
	pop	ebp
	ret	0
_TEXT	ENDS
;	COMDAT text$x
text$x	SEGMENT
__unwindfunclet$?GL_ParseFile@@YAXPBDPAVCVirtualFS@@1@Z$0:
	lea	ecx, DWORD PTR _incfile$3[ebp]
	jmp	??1CVirtualFS@@QAE@XZ			; CVirtualFS::~CVirtualFS
__ehhandler$?GL_ParseFile@@YAXPBDPAVCVirtualFS@@1@Z:
	mov	edx, DWORD PTR [esp+8]
	lea	eax, DWORD PTR [edx+12]
	mov	ecx, DWORD PTR [edx-2992]
	xor	ecx, eax
	call	@__security_check_cookie@4
	mov	ecx, DWORD PTR [edx-4]
	xor	ecx, eax
	call	@__security_check_cookie@4
	mov	eax, OFFSET __ehfuncinfo$?GL_ParseFile@@YAXPBDPAVCVirtualFS@@1@Z
	jmp	___CxxFrameHandler3
text$x	ENDS
?GL_ParseFile@@YAXPBDPAVCVirtualFS@@1@Z ENDP		; GL_ParseFile
; Function compile flags: /Odtp /ZI
; File d:\!diffusion 2020\source code 2022\client-server\client\render\r_shader.cpp
;	COMDAT ?GL_LoadSource@@YA_NPBDPAVCVirtualFS@@@Z
_TEXT	SEGMENT
_source$ = -8						; size = 4
_size$ = -4						; size = 4
_filename$ = 8						; size = 4
_file$ = 12						; size = 4
?GL_LoadSource@@YA_NPBDPAVCVirtualFS@@@Z PROC		; GL_LoadSource, COMDAT

; 133  : {

	push	ebp
	mov	ebp, esp
	sub	esp, 72					; 00000048H
	push	ebx
	push	esi
	push	edi

; 134  : 	if( GL_CheckFileStack( filename ))

	mov	eax, DWORD PTR _filename$[ebp]
	push	eax
	call	?GL_CheckFileStack@@YA_NPBD@Z		; GL_CheckFileStack
	add	esp, 4
	movzx	ecx, al
	test	ecx, ecx
	je	SHORT $LN2@GL_LoadSou

; 135  : 	{
; 136  : 		ALERT( at_error, "recursive include for %s\n", filename );

	mov	eax, DWORD PTR _filename$[ebp]
	push	eax
	push	OFFSET ??_C@_0BK@HEHGCEJO@recursive?5include?5for?5?$CFs?6?$AA@
	push	4
	call	?ALERT@@YAXW4ALERT_TYPE@@PADZZ		; ALERT
	add	esp, 12					; 0000000cH

; 137  : 		return false;

	xor	al, al
	jmp	SHORT $LN1@GL_LoadSou
$LN2@GL_LoadSou:

; 138  : 	}
; 139  : 
; 140  : 	int size;
; 141  : 	char *source = (char *)gEngfuncs.COM_LoadFile((char *)filename, 5, &size );

	lea	eax, DWORD PTR _size$[ebp]
	push	eax
	push	5
	mov	ecx, DWORD PTR _filename$[ebp]
	push	ecx
	call	DWORD PTR ?gEngfuncs@@3Ucl_enginefuncs_s@@A+316
	add	esp, 12					; 0000000cH
	mov	DWORD PTR _source$[ebp], eax

; 142  : 	if( !source )

	cmp	DWORD PTR _source$[ebp], 0
	jne	SHORT $LN3@GL_LoadSou

; 143  : 	{
; 144  : 		ALERT( at_error, "couldn't load %s\n", filename );

	mov	eax, DWORD PTR _filename$[ebp]
	push	eax
	push	OFFSET ??_C@_0BC@HJBMIBGI@couldn?8t?5load?5?$CFs?6?$AA@
	push	4
	call	?ALERT@@YAXW4ALERT_TYPE@@PADZZ		; ALERT
	add	esp, 12					; 0000000cH

; 145  : 		return false;

	xor	al, al
	jmp	SHORT $LN1@GL_LoadSou
$LN3@GL_LoadSou:

; 146  : 	}
; 147  : 
; 148  : 	GL_PushFileStack( filename );

	mov	eax, DWORD PTR _filename$[ebp]
	push	eax
	call	?GL_PushFileStack@@YA_NPBD@Z		; GL_PushFileStack
	add	esp, 4

; 149  : 	file->Write( source, size );

	mov	eax, DWORD PTR _size$[ebp]
	push	eax
	mov	ecx, DWORD PTR _source$[ebp]
	push	ecx
	mov	ecx, DWORD PTR _file$[ebp]
	call	?Write@CVirtualFS@@QAEIPBXI@Z		; CVirtualFS::Write

; 150  : 	file->Seek( 0, SEEK_SET ); // rewind

	push	0
	push	0
	mov	ecx, DWORD PTR _file$[ebp]
	call	?Seek@CVirtualFS@@QAEHIH@Z		; CVirtualFS::Seek

; 151  : 
; 152  : 	gEngfuncs.COM_FreeFile( source );

	mov	eax, DWORD PTR _source$[ebp]
	push	eax
	call	DWORD PTR ?gEngfuncs@@3Ucl_enginefuncs_s@@A+324
	add	esp, 4

; 153  : 
; 154  : 	return true;

	mov	al, 1
$LN1@GL_LoadSou:

; 155  : }

	pop	edi
	pop	esi
	pop	ebx
	mov	esp, ebp
	pop	ebp
	ret	0
?GL_LoadSource@@YA_NPBDPAVCVirtualFS@@@Z ENDP		; GL_LoadSource
_TEXT	ENDS
; Function compile flags: /Odtp /ZI
; File d:\!diffusion 2020\source code 2022\client-server\client\render\r_shader.cpp
;	COMDAT ?GL_CheckFileStack@@YA_NPBD@Z
_TEXT	SEGMENT
_i$1 = -4						; size = 4
_filename$ = 8						; size = 4
?GL_CheckFileStack@@YA_NPBD@Z PROC			; GL_CheckFileStack, COMDAT

; 123  : {

	push	ebp
	mov	ebp, esp
	sub	esp, 68					; 00000044H
	push	ebx
	push	esi
	push	edi

; 124  : 	for( int i = 0; i < file_stack_pos; i++ )

	mov	DWORD PTR _i$1[ebp], 0
	jmp	SHORT $LN4@GL_CheckFi
$LN2@GL_CheckFi:
	mov	eax, DWORD PTR _i$1[ebp]
	add	eax, 1
	mov	DWORD PTR _i$1[ebp], eax
$LN4@GL_CheckFi:
	mov	eax, DWORD PTR _i$1[ebp]
	cmp	eax, DWORD PTR ?file_stack_pos@@3HA
	jge	SHORT $LN3@GL_CheckFi

; 125  : 	{
; 126  : 		if( !Q_stricmp( filenames_stack[i], filename ))

	push	99999					; 0001869fH
	mov	eax, DWORD PTR _filename$[ebp]
	push	eax
	mov	ecx, DWORD PTR _i$1[ebp]
	shl	ecx, 8
	add	ecx, OFFSET ?filenames_stack@@3PAY0BAA@DA
	push	ecx
	call	?Q_strnicmp@@YAHPBD0H@Z			; Q_strnicmp
	add	esp, 12					; 0000000cH
	test	eax, eax
	jne	SHORT $LN5@GL_CheckFi

; 127  : 			return true;

	mov	al, 1
	jmp	SHORT $LN1@GL_CheckFi
$LN5@GL_CheckFi:

; 128  : 	}

	jmp	SHORT $LN2@GL_CheckFi
$LN3@GL_CheckFi:

; 129  : 	return false;

	xor	al, al
$LN1@GL_CheckFi:

; 130  : }

	pop	edi
	pop	esi
	pop	ebx
	mov	esp, ebp
	pop	ebp
	ret	0
?GL_CheckFileStack@@YA_NPBD@Z ENDP			; GL_CheckFileStack
_TEXT	ENDS
; Function compile flags: /Odtp /ZI
; File d:\!diffusion 2020\source code 2022\client-server\client\render\r_shader.cpp
;	COMDAT ?GL_PopFileStack@@YA_NXZ
_TEXT	SEGMENT
?GL_PopFileStack@@YA_NXZ PROC				; GL_PopFileStack, COMDAT

; 110  : {

	push	ebp
	mov	ebp, esp
	sub	esp, 64					; 00000040H
	push	ebx
	push	esi
	push	edi

; 111  : 	file_stack_pos--;

	mov	eax, DWORD PTR ?file_stack_pos@@3HA
	sub	eax, 1
	mov	DWORD PTR ?file_stack_pos@@3HA, eax

; 112  : 
; 113  : 	if( file_stack_pos < 0 )

	jns	SHORT $LN2@GL_PopFile

; 114  : 	{
; 115  : 		ALERT( at_error, "GL_PushFileStack: stack underflow\n" );

	push	OFFSET ??_C@_0CD@KBPDGGGO@GL_PushFileStack?3?5stack?5underflo@
	push	4
	call	?ALERT@@YAXW4ALERT_TYPE@@PADZZ		; ALERT
	add	esp, 8

; 116  : 		return false;

	xor	al, al
	jmp	SHORT $LN1@GL_PopFile
$LN2@GL_PopFile:

; 117  : 	}
; 118  : 
; 119  : 	return true;

	mov	al, 1
$LN1@GL_PopFile:

; 120  : }

	pop	edi
	pop	esi
	pop	ebx
	mov	esp, ebp
	pop	ebp
	ret	0
?GL_PopFileStack@@YA_NXZ ENDP				; GL_PopFileStack
_TEXT	ENDS
; Function compile flags: /Odtp /ZI
; File d:\!diffusion 2020\source code 2022\client-server\client\render\r_shader.cpp
;	COMDAT ?GL_PushFileStack@@YA_NPBD@Z
_TEXT	SEGMENT
_filename$ = 8						; size = 4
?GL_PushFileStack@@YA_NPBD@Z PROC			; GL_PushFileStack, COMDAT

; 97   : {

	push	ebp
	mov	ebp, esp
	sub	esp, 64					; 00000040H
	push	ebx
	push	esi
	push	edi

; 98   : 	if( file_stack_pos < MAX_FILE_STACK )

	cmp	DWORD PTR ?file_stack_pos@@3HA, 64	; 00000040H
	jge	SHORT $LN2@GL_PushFil

; 99   : 	{
; 100  : 		Q_strncpy( filenames_stack[file_stack_pos], filename, sizeof( filenames_stack[0] ));

	push	256					; 00000100H
	mov	eax, DWORD PTR _filename$[ebp]
	push	eax
	mov	ecx, DWORD PTR ?file_stack_pos@@3HA
	shl	ecx, 8
	add	ecx, OFFSET ?filenames_stack@@3PAY0BAA@DA
	push	ecx
	call	?Q_strncpy@@YAIPADPBDI@Z		; Q_strncpy
	add	esp, 12					; 0000000cH

; 101  : 		file_stack_pos++;

	mov	eax, DWORD PTR ?file_stack_pos@@3HA
	add	eax, 1
	mov	DWORD PTR ?file_stack_pos@@3HA, eax

; 102  : 		return true;

	mov	al, 1
	jmp	SHORT $LN1@GL_PushFil
$LN2@GL_PushFil:

; 103  : 	}
; 104  : 
; 105  : 	ALERT( at_error, "GL_PushFileStack: stack overflow\n" );

	push	OFFSET ??_C@_0CC@MDIBKIJI@GL_PushFileStack?3?5stack?5overflow@
	push	4
	call	?ALERT@@YAXW4ALERT_TYPE@@PADZZ		; ALERT
	add	esp, 8

; 106  : 	return false;

	xor	al, al
$LN1@GL_PushFil:

; 107  : }

	pop	edi
	pop	esi
	pop	ebx
	mov	esp, ebp
	pop	ebp
	ret	0
?GL_PushFileStack@@YA_NPBD@Z ENDP			; GL_PushFileStack
_TEXT	ENDS
; Function compile flags: /Odtp /ZI
; File d:\!diffusion 2020\source code 2022\client-server\client\render\r_shader.cpp
;	COMDAT ?GL_PrintInfoLog@@YAPADI@Z
_TEXT	SEGMENT
_maxLength$ = -4					; size = 4
_object$ = 8						; size = 4
?GL_PrintInfoLog@@YAPADI@Z PROC				; GL_PrintInfoLog, COMDAT

; 61   : {

	push	ebp
	mov	ebp, esp
	sub	esp, 68					; 00000044H
	push	ebx
	push	esi
	push	edi

; 62   : 	static char	msg[8192];
; 63   : 	int		maxLength = 0;

	mov	DWORD PTR _maxLength$[ebp], 0

; 64   : 
; 65   : 	pglGetObjectParameterivARB( object, GL_OBJECT_INFO_LOG_LENGTH_ARB, &maxLength );

	lea	eax, DWORD PTR _maxLength$[ebp]
	push	eax
	push	35716					; 00008b84H
	mov	ecx, DWORD PTR _object$[ebp]
	push	ecx
	call	DWORD PTR ?pglGetObjectParameterivARB@@3P6GXIIPAH@ZA ; pglGetObjectParameterivARB

; 66   : 
; 67   : 	if( maxLength >= sizeof( msg ))

	cmp	DWORD PTR _maxLength$[ebp], 8192	; 00002000H
	jb	SHORT $LN2@GL_PrintIn

; 68   : 	{
; 69   : 		ALERT( at_warning, "GL_PrintInfoLog: message exceeds %i symbols\n", sizeof( msg ));

	push	8192					; 00002000H
	push	OFFSET ??_C@_0CN@LIMLBMNO@GL_PrintInfoLog?3?5message?5exceeds@
	push	3
	call	?ALERT@@YAXW4ALERT_TYPE@@PADZZ		; ALERT
	add	esp, 12					; 0000000cH

; 70   : 		maxLength = sizeof( msg ) - 1;

	mov	DWORD PTR _maxLength$[ebp], 8191	; 00001fffH
$LN2@GL_PrintIn:

; 71   : 	}
; 72   : 
; 73   : 	pglGetInfoLogARB( object, maxLength, &maxLength, msg );

	push	OFFSET ?msg@?1??GL_PrintInfoLog@@YAPADI@Z@4PADA
	lea	eax, DWORD PTR _maxLength$[ebp]
	push	eax
	mov	ecx, DWORD PTR _maxLength$[ebp]
	push	ecx
	mov	edx, DWORD PTR _object$[ebp]
	push	edx
	call	DWORD PTR ?pglGetInfoLogARB@@3P6GXIHPAHPAD@ZA ; pglGetInfoLogARB

; 74   : 
; 75   : 	return msg;

	mov	eax, OFFSET ?msg@?1??GL_PrintInfoLog@@YAPADI@Z@4PADA

; 76   : }

	pop	edi
	pop	esi
	pop	ebx
	mov	esp, ebp
	pop	ebp
	ret	0
?GL_PrintInfoLog@@YAPADI@Z ENDP				; GL_PrintInfoLog
_TEXT	ENDS
; Function compile flags: /Odtp /ZI
; File d:\!diffusion 2020\source code 2022\client-server\client\render\r_shader.cpp
;	COMDAT ?GL_EncodeNormal@@YAXPADH@Z
_TEXT	SEGMENT
_options$ = 8						; size = 4
_texturenum$ = 12					; size = 4
?GL_EncodeNormal@@YAXPADH@Z PROC			; GL_EncodeNormal, COMDAT

; 39   : {

	push	ebp
	mov	ebp, esp
	sub	esp, 64					; 00000040H
	push	ebx
	push	esi
	push	edi

; 40   : 	if( RENDER_GET_PARM( PARM_TEX_GLFORMAT, texturenum ) == GL_COMPRESSED_RED_GREEN_RGTC2_EXT )

	mov	eax, DWORD PTR _texturenum$[ebp]
	push	eax
	push	13					; 0000000dH
	call	DWORD PTR ?gRenderfuncs@@3Urender_api_s@@A
	add	esp, 8
	cmp	eax, 36285				; 00008dbdH
	jne	SHORT $LN2@GL_EncodeN

; 41   : 	{
; 42   : 		GL_AddShaderDirective( options, "NORMAL_RG_PARABOLOID" );

	push	OFFSET ??_C@_0BF@FKFGDDHD@NORMAL_RG_PARABOLOID?$AA@
	mov	eax, DWORD PTR _options$[ebp]
	push	eax
	call	?GL_AddShaderDirective@@YAXPADPBD@Z	; GL_AddShaderDirective
	add	esp, 8
	jmp	$LN1@GL_EncodeN
$LN2@GL_EncodeN:

; 43   : 	}
; 44   : 	else if( RENDER_GET_PARM( PARM_TEX_GLFORMAT, texturenum ) == GL_COMPRESSED_LUMINANCE_ALPHA_3DC_ATI )

	mov	eax, DWORD PTR _texturenum$[ebp]
	push	eax
	push	13					; 0000000dH
	call	DWORD PTR ?gRenderfuncs@@3Urender_api_s@@A
	add	esp, 8
	cmp	eax, 34871				; 00008837H
	jne	SHORT $LN4@GL_EncodeN

; 45   : 	{
; 46   : 		GL_AddShaderDirective( options, "NORMAL_3DC_PARABOLOID" );

	push	OFFSET ??_C@_0BG@LDLNDKLC@NORMAL_3DC_PARABOLOID?$AA@
	mov	eax, DWORD PTR _options$[ebp]
	push	eax
	call	?GL_AddShaderDirective@@YAXPADPBD@Z	; GL_AddShaderDirective
	add	esp, 8
	jmp	SHORT $LN1@GL_EncodeN
$LN4@GL_EncodeN:

; 47   : 	}
; 48   : 	else if( RENDER_GET_PARM( PARM_TEX_ENCODE, texturenum ) == DXT_ENCODE_NORMAL_AG_PARABOLOID )

	mov	eax, DWORD PTR _texturenum$[ebp]
	push	eax
	push	14					; 0000000eH
	call	DWORD PTR ?gRenderfuncs@@3Urender_api_s@@A
	add	esp, 8
	cmp	eax, 6663				; 00001a07H
	jne	SHORT $LN6@GL_EncodeN

; 49   : 	{
; 50   : 		GL_AddShaderDirective( options, "NORMAL_AG_PARABOLOID" );

	push	OFFSET ??_C@_0BF@EAIFCKME@NORMAL_AG_PARABOLOID?$AA@
	mov	eax, DWORD PTR _options$[ebp]
	push	eax
	call	?GL_AddShaderDirective@@YAXPADPBD@Z	; GL_AddShaderDirective
	add	esp, 8
	jmp	SHORT $LN1@GL_EncodeN
$LN6@GL_EncodeN:

; 51   : 	}
; 52   : 	else if( RENDER_GET_PARM( PARM_TEX_GLFORMAT, texturenum ) == GL_COMPRESSED_RGBA_S3TC_DXT5_EXT )

	mov	eax, DWORD PTR _texturenum$[ebp]
	push	eax
	push	13					; 0000000dH
	call	DWORD PTR ?gRenderfuncs@@3Urender_api_s@@A
	add	esp, 8
	cmp	eax, 33779				; 000083f3H
	jne	SHORT $LN1@GL_EncodeN

; 53   : 	{
; 54   : 		// implicit DXT5NM format (Paranoia2 v 1.2 old stuff)
; 55   : 		if( FBitSet( RENDER_GET_PARM( PARM_TEX_FLAGS, texturenum ), TF_HAS_ALPHA ) )

	mov	eax, DWORD PTR _texturenum$[ebp]
	push	eax
	push	10					; 0000000aH
	call	DWORD PTR ?gRenderfuncs@@3Urender_api_s@@A
	add	esp, 8
	and	eax, 65536				; 00010000H
	je	SHORT $LN1@GL_EncodeN

; 56   : 			GL_AddShaderDirective( options, "NORMAL_AG_PARABOLOID" );

	push	OFFSET ??_C@_0BF@EAIFCKME@NORMAL_AG_PARABOLOID?$AA@
	mov	eax, DWORD PTR _options$[ebp]
	push	eax
	call	?GL_AddShaderDirective@@YAXPADPBD@Z	; GL_AddShaderDirective
	add	esp, 8
$LN1@GL_EncodeN:

; 57   : 	}
; 58   : }

	pop	edi
	pop	esi
	pop	ebx
	mov	esp, ebp
	pop	ebp
	ret	0
?GL_EncodeNormal@@YAXPADH@Z ENDP			; GL_EncodeNormal
_TEXT	ENDS
; Function compile flags: /Odtp /ZI
; File d:\!diffusion 2020\source code 2022\client-server\game_shared\virtualfs.h
;	COMDAT ?GetSize@CVirtualFS@@QAEIXZ
_TEXT	SEGMENT
_this$ = -4						; size = 4
?GetSize@CVirtualFS@@QAEIXZ PROC			; CVirtualFS::GetSize, COMDAT
; _this$ = ecx

; 28   : 	size_t GetSize( void ) { return m_iLength; };

	push	ebp
	mov	ebp, esp
	sub	esp, 68					; 00000044H
	push	ebx
	push	esi
	push	edi
	mov	DWORD PTR _this$[ebp], ecx
	mov	eax, DWORD PTR _this$[ebp]
	mov	eax, DWORD PTR [eax+12]
	pop	edi
	pop	esi
	pop	ebx
	mov	esp, ebp
	pop	ebp
	ret	0
?GetSize@CVirtualFS@@QAEIXZ ENDP			; CVirtualFS::GetSize
_TEXT	ENDS
; Function compile flags: /Odtp /ZI
; File d:\!diffusion 2020\source code 2022\client-server\game_shared\virtualfs.h
;	COMDAT ?GetBuffer@CVirtualFS@@QAEPADXZ
_TEXT	SEGMENT
_this$ = -4						; size = 4
?GetBuffer@CVirtualFS@@QAEPADXZ PROC			; CVirtualFS::GetBuffer, COMDAT
; _this$ = ecx

; 27   : 	char *GetBuffer( void ) { return (char *)m_pBuffer; };

	push	ebp
	mov	ebp, esp
	sub	esp, 68					; 00000044H
	push	ebx
	push	esi
	push	edi
	mov	DWORD PTR _this$[ebp], ecx
	mov	eax, DWORD PTR _this$[ebp]
	mov	eax, DWORD PTR [eax]
	pop	edi
	pop	esi
	pop	ebx
	mov	esp, ebp
	pop	ebp
	ret	0
?GetBuffer@CVirtualFS@@QAEPADXZ ENDP			; CVirtualFS::GetBuffer
_TEXT	ENDS
; Function compile flags: /Odtp /ZI
; File d:\!diffusion 2020\source code 2022\client-server\client\render\r_shader.cpp
;	COMDAT ?GL_AddShaderDirective@@YAXPADPBD@Z
_TEXT	SEGMENT
_options$ = 8						; size = 4
_directive$ = 12					; size = 4
?GL_AddShaderDirective@@YAXPADPBD@Z PROC		; GL_AddShaderDirective, COMDAT

; 680  : {

	push	ebp
	mov	ebp, esp
	sub	esp, 64					; 00000040H
	push	ebx
	push	esi
	push	edi

; 681  : 	Q_strncat( options, va( "#define %s\n", directive ), MAX_OPTIONS_LENGTH );

	push	512					; 00000200H
	mov	eax, DWORD PTR _directive$[ebp]
	push	eax
	push	OFFSET ??_C@_0M@KFFOLOHC@?$CDdefine?5?$CFs?6?$AA@
	call	?va@@YAPADPBDZZ				; va
	add	esp, 8
	push	eax
	mov	ecx, DWORD PTR _options$[ebp]
	push	ecx
	call	?Q_strncat@@YAIPADPBDI@Z		; Q_strncat
	add	esp, 12					; 0000000cH

; 682  : }

	pop	edi
	pop	esi
	pop	ebx
	mov	esp, ebp
	pop	ebp
	ret	0
?GL_AddShaderDirective@@YAXPADPBD@Z ENDP		; GL_AddShaderDirective
_TEXT	ENDS
; Function compile flags: /Odtp /ZI
; File d:\!diffusion 2020\source code 2022\client-server\client\render\r_shader.cpp
;	COMDAT ?GL_UberShaderForStudioDecal@@YAGPAUmstudiomat_s@@@Z
_TEXT	SEGMENT
_shader$ = -584						; size = 4
_options$ = -580					; size = 512
_glname$ = -68						; size = 64
__$ArrayPad$ = -4					; size = 4
_mat$ = 8						; size = 4
?GL_UberShaderForStudioDecal@@YAGPAUmstudiomat_s@@@Z PROC ; GL_UberShaderForStudioDecal, COMDAT

; 2170 : {

	push	ebp
	mov	ebp, esp
	sub	esp, 712				; 000002c8H
	mov	eax, DWORD PTR ___security_cookie
	xor	eax, ebp
	mov	DWORD PTR __$ArrayPad$[ebp], eax
	push	ebx
	push	esi
	push	edi

; 2171 : 	char glname[64];
; 2172 : 	char options[MAX_OPTIONS_LENGTH];
; 2173 : 
; 2174 : 	Q_strncpy( glname, "StudioDecal", sizeof( glname ));

	push	64					; 00000040H
	push	OFFSET ??_C@_0M@EOFEOEOD@StudioDecal?$AA@
	lea	eax, DWORD PTR _glname$[ebp]
	push	eax
	call	?Q_strncpy@@YAIPADPBDI@Z		; Q_strncpy
	add	esp, 12					; 0000000cH

; 2175 : 	memset( options, 0, sizeof( options ));

	push	512					; 00000200H
	push	0
	lea	eax, DWORD PTR _options$[ebp]
	push	eax
	call	_memset
	add	esp, 12					; 0000000cH

; 2176 : 
; 2177 : 	if( tr.fogEnabled )

	movzx	eax, BYTE PTR ?tr@@3Uref_globals_t@@A+5830892
	test	eax, eax
	je	SHORT $LN2@GL_UberSha

; 2178 : 		GL_AddShaderDirective( options, "DECAL_FOG_EXP" );

	push	OFFSET ??_C@_0O@CONEDAKL@DECAL_FOG_EXP?$AA@
	lea	eax, DWORD PTR _options$[ebp]
	push	eax
	call	?GL_AddShaderDirective@@YAXPADPBD@Z	; GL_AddShaderDirective
	add	esp, 8
$LN2@GL_UberSha:

; 2179 : 
; 2180 : 	if( FBitSet( mat->flags, STUDIO_NF_MASKED ))

	mov	eax, DWORD PTR _mat$[ebp]
	mov	ecx, DWORD PTR [eax+8]
	and	ecx, 64					; 00000040H
	je	SHORT $LN3@GL_UberSha

; 2181 : 		GL_AddShaderDirective( options, "DECAL_ALPHATEST" );

	push	OFFSET ??_C@_0BA@ONPHMGJH@DECAL_ALPHATEST?$AA@
	lea	eax, DWORD PTR _options$[ebp]
	push	eax
	call	?GL_AddShaderDirective@@YAXPADPBD@Z	; GL_AddShaderDirective
	add	esp, 8
$LN3@GL_UberSha:

; 2182 : 
; 2183 : 	if( FBitSet( mat->flags, STUDIO_NF_ADDITIVE ))

	mov	eax, DWORD PTR _mat$[ebp]
	mov	ecx, DWORD PTR [eax+8]
	and	ecx, 32					; 00000020H
	je	SHORT $LN4@GL_UberSha

; 2184 : 	{
; 2185 : 		// mixed mode: solid & transparent controlled by alpha-channel
; 2186 : 		if( FBitSet( mat->flags, STUDIO_NF_MASKED ))

	mov	eax, DWORD PTR _mat$[ebp]
	mov	ecx, DWORD PTR [eax+8]
	and	ecx, 64					; 00000040H
	je	SHORT $LN4@GL_UberSha

; 2187 : 			GL_AddShaderDirective( options, "STUDIO_ALPHA_GLASS" );

	push	OFFSET ??_C@_0BD@EODPNJDL@STUDIO_ALPHA_GLASS?$AA@
	lea	eax, DWORD PTR _options$[ebp]
	push	eax
	call	?GL_AddShaderDirective@@YAXPADPBD@Z	; GL_AddShaderDirective
	add	esp, 8
$LN4@GL_UberSha:

; 2188 : 	}
; 2189 : 
; 2190 : 	glsl_program_t *shader = GL_FindUberShader( glname, options, &GL_InitStudioDecalUniforms );

	push	OFFSET ?GL_InitStudioDecalUniforms@@YAXPAUglsl_prog_s@@@Z ; GL_InitStudioDecalUniforms
	lea	eax, DWORD PTR _options$[ebp]
	push	eax
	lea	ecx, DWORD PTR _glname$[ebp]
	push	ecx
	call	?GL_FindUberShader@@YAPAUglsl_prog_s@@PBD0P6AXPAU1@@Z@Z ; GL_FindUberShader
	add	esp, 12					; 0000000cH
	mov	DWORD PTR _shader$[ebp], eax

; 2191 : 	if( !shader ) return 0; // something bad happens

	cmp	DWORD PTR _shader$[ebp], 0
	jne	SHORT $LN6@GL_UberSha
	xor	eax, eax
	jmp	SHORT $LN1@GL_UberSha
$LN6@GL_UberSha:

; 2192 : 
; 2193 : 	return (shader - glsl_programs);

	mov	eax, DWORD PTR _shader$[ebp]
	sub	eax, OFFSET ?glsl_programs@@3PAUglsl_prog_s@@A ; glsl_programs
	cdq
	mov	ecx, 972				; 000003ccH
	idiv	ecx
$LN1@GL_UberSha:

; 2194 : }

	pop	edi
	pop	esi
	pop	ebx
	mov	ecx, DWORD PTR __$ArrayPad$[ebp]
	xor	ecx, ebp
	call	@__security_check_cookie@4
	mov	esp, ebp
	pop	ebp
	ret	0
?GL_UberShaderForStudioDecal@@YAGPAUmstudiomat_s@@@Z ENDP ; GL_UberShaderForStudioDecal
_TEXT	ENDS
; Function compile flags: /Odtp /ZI
; File d:\!diffusion 2020\source code 2022\client-server\client\render\r_shader.cpp
;	COMDAT ?GL_UberShaderForDlightStudio@@YAGPBUplight_s@@PAUmstudiomat_s@@_NH@Z
_TEXT	SEGMENT
tv173 = -736						; size = 4
tv89 = -736						; size = 4
tv80 = -736						; size = 4
tv263 = -733						; size = 1
tv210 = -733						; size = 1
tv202 = -733						; size = 1
tv194 = -733						; size = 1
tv75 = -733						; size = 1
tv71 = -733						; size = 1
tv67 = -733						; size = 1
_shaderNum$ = -604					; size = 2
_shader$ = -600						; size = 4
_num_bones$1 = -596					; size = 4
_usingAlphaBlend$ = -589				; size = 1
_texAlphaToCoverage$ = -588				; size = 1
_texTransparent$ = -587					; size = 1
_flagMasked$ = -586					; size = 1
_flagAdditive$ = -585					; size = 1
_options$ = -584					; size = 512
_glname$ = -72						; size = 64
_shadows$ = -5						; size = 1
__$ArrayPad$ = -4					; size = 4
_pl$ = 8						; size = 4
_mat$ = 12						; size = 4
_bone_weighting$ = 16					; size = 1
_numbones$ = 20						; size = 4
?GL_UberShaderForDlightStudio@@YAGPBUplight_s@@PAUmstudiomat_s@@_NH@Z PROC ; GL_UberShaderForDlightStudio, COMDAT

; 2052 : {

	push	ebp
	mov	ebp, esp
	sub	esp, 736				; 000002e0H
	mov	eax, DWORD PTR ___security_cookie
	xor	eax, ebp
	mov	DWORD PTR __$ArrayPad$[ebp], eax
	push	ebx
	push	esi
	push	edi

; 2053 : 	bool shadows = (!FBitSet( pl->flags, CF_NOSHADOWS )) ? true : false;

	mov	eax, DWORD PTR _pl$[ebp]
	mov	ecx, DWORD PTR [eax+744]
	and	ecx, 1024				; 00000400H
	jne	SHORT $LN24@GL_UberSha
	mov	BYTE PTR tv67[ebp], 1
	jmp	SHORT $LN25@GL_UberSha
$LN24@GL_UberSha:
	mov	BYTE PTR tv67[ebp], 0
$LN25@GL_UberSha:
	mov	dl, BYTE PTR tv67[ebp]
	mov	BYTE PTR _shadows$[ebp], dl

; 2054 : 	char glname[64];
; 2055 : 	char options[MAX_OPTIONS_LENGTH];
; 2056 : 
; 2057 : 	bool flagAdditive = FBitSet( mat->flags, STUDIO_NF_ADDITIVE ) ? true : false;

	mov	eax, DWORD PTR _mat$[ebp]
	mov	ecx, DWORD PTR [eax+8]
	and	ecx, 32					; 00000020H
	je	SHORT $LN26@GL_UberSha
	mov	BYTE PTR tv71[ebp], 1
	jmp	SHORT $LN27@GL_UberSha
$LN26@GL_UberSha:
	mov	BYTE PTR tv71[ebp], 0
$LN27@GL_UberSha:
	mov	dl, BYTE PTR tv71[ebp]
	mov	BYTE PTR _flagAdditive$[ebp], dl

; 2058 : 	bool flagMasked = FBitSet( mat->flags, STUDIO_NF_MASKED ) ? true : false;

	mov	eax, DWORD PTR _mat$[ebp]
	mov	ecx, DWORD PTR [eax+8]
	and	ecx, 64					; 00000040H
	je	SHORT $LN28@GL_UberSha
	mov	BYTE PTR tv75[ebp], 1
	jmp	SHORT $LN29@GL_UberSha
$LN28@GL_UberSha:
	mov	BYTE PTR tv75[ebp], 0
$LN29@GL_UberSha:
	mov	dl, BYTE PTR tv75[ebp]
	mov	BYTE PTR _flagMasked$[ebp], dl

; 2059 : 	bool texTransparent = flagAdditive || flagMasked;

	movzx	eax, BYTE PTR _flagAdditive$[ebp]
	test	eax, eax
	jne	SHORT $LN30@GL_UberSha
	movzx	ecx, BYTE PTR _flagMasked$[ebp]
	test	ecx, ecx
	jne	SHORT $LN30@GL_UberSha
	mov	DWORD PTR tv80[ebp], 0
	jmp	SHORT $LN31@GL_UberSha
$LN30@GL_UberSha:
	mov	DWORD PTR tv80[ebp], 1
$LN31@GL_UberSha:
	mov	dl, BYTE PTR tv80[ebp]
	mov	BYTE PTR _texTransparent$[ebp], dl

; 2060 : 	bool texAlphaToCoverage = true;// FBitSet( mat->flags, STUDIO_NF_ALPHATOCOVERAGE );

	mov	BYTE PTR _texAlphaToCoverage$[ebp], 1

; 2061 : 	bool usingAlphaBlend = texTransparent &&FBitSet( mat->flags, STUDIO_NF_HAS_ALPHA ) && !texAlphaToCoverage;

	movzx	eax, BYTE PTR _texTransparent$[ebp]
	test	eax, eax
	je	SHORT $LN32@GL_UberSha
	mov	ecx, DWORD PTR _mat$[ebp]
	mov	edx, DWORD PTR [ecx+8]
	and	edx, 524288				; 00080000H
	je	SHORT $LN32@GL_UberSha
	movzx	eax, BYTE PTR _texAlphaToCoverage$[ebp]
	test	eax, eax
	jne	SHORT $LN32@GL_UberSha
	mov	DWORD PTR tv89[ebp], 1
	jmp	SHORT $LN33@GL_UberSha
$LN32@GL_UberSha:
	mov	DWORD PTR tv89[ebp], 0
$LN33@GL_UberSha:
	mov	cl, BYTE PTR tv89[ebp]
	mov	BYTE PTR _usingAlphaBlend$[ebp], cl

; 2062 : 
; 2063 : 	Q_strncpy( glname, "StudioDlight", sizeof( glname ));

	push	64					; 00000040H
	push	OFFSET ??_C@_0N@DNMDOFLN@StudioDlight?$AA@
	lea	eax, DWORD PTR _glname$[ebp]
	push	eax
	call	?Q_strncpy@@YAIPADPBDI@Z		; Q_strncpy
	add	esp, 12					; 0000000cH

; 2064 : 	memset( options, 0, sizeof( options ));

	push	512					; 00000200H
	push	0
	lea	eax, DWORD PTR _options$[ebp]
	push	eax
	call	_memset
	add	esp, 12					; 0000000cH

; 2065 : 
; 2066 : 	if( pl->pointlight )

	mov	eax, DWORD PTR _pl$[ebp]
	movzx	ecx, BYTE PTR [eax+44]
	test	ecx, ecx
	je	SHORT $LN2@GL_UberSha

; 2067 : 	{
; 2068 : 		if( mat->omniLightShaderNum[shadows] && mat->glsl_sequence_omni[shadows] == tr.glsl_valid_sequence )

	movzx	eax, BYTE PTR _shadows$[ebp]
	mov	ecx, DWORD PTR _mat$[ebp]
	movzx	edx, WORD PTR [ecx+eax*2+14]
	test	edx, edx
	je	SHORT $LN4@GL_UberSha
	movzx	eax, BYTE PTR _shadows$[ebp]
	mov	ecx, DWORD PTR _mat$[ebp]
	movzx	edx, WORD PTR [ecx+eax*2+24]
	cmp	edx, DWORD PTR ?tr@@3Uref_globals_t@@A+5830936
	jne	SHORT $LN4@GL_UberSha

; 2069 : 			return mat->omniLightShaderNum[shadows]; // valid

	movzx	eax, BYTE PTR _shadows$[ebp]
	mov	ecx, DWORD PTR _mat$[ebp]
	mov	ax, WORD PTR [ecx+eax*2+14]
	jmp	$LN1@GL_UberSha
$LN4@GL_UberSha:

; 2070 : 		GL_AddShaderDirective( options, "STUDIO_LIGHT_OMNIDIRECTIONAL" );

	push	OFFSET ??_C@_0BN@OODKPABL@STUDIO_LIGHT_OMNIDIRECTIONAL?$AA@
	lea	eax, DWORD PTR _options$[ebp]
	push	eax
	call	?GL_AddShaderDirective@@YAXPADPBD@Z	; GL_AddShaderDirective
	add	esp, 8

; 2071 : 	}
; 2072 : 	else

	jmp	SHORT $LN3@GL_UberSha
$LN2@GL_UberSha:

; 2073 : 	{
; 2074 : 		if( mat->projLightShaderNum[shadows] && mat->glsl_sequence_proj[shadows] == tr.glsl_valid_sequence )

	movzx	eax, BYTE PTR _shadows$[ebp]
	mov	ecx, DWORD PTR _mat$[ebp]
	movzx	edx, WORD PTR [ecx+eax*2+18]
	test	edx, edx
	je	SHORT $LN5@GL_UberSha
	movzx	eax, BYTE PTR _shadows$[ebp]
	mov	ecx, DWORD PTR _mat$[ebp]
	movzx	edx, WORD PTR [ecx+eax*2+28]
	cmp	edx, DWORD PTR ?tr@@3Uref_globals_t@@A+5830936
	jne	SHORT $LN5@GL_UberSha

; 2075 : 			return mat->projLightShaderNum[shadows]; // valid

	movzx	eax, BYTE PTR _shadows$[ebp]
	mov	ecx, DWORD PTR _mat$[ebp]
	mov	ax, WORD PTR [ecx+eax*2+18]
	jmp	$LN1@GL_UberSha
$LN5@GL_UberSha:

; 2076 : 		GL_AddShaderDirective( options, "STUDIO_LIGHT_PROJECTION" );

	push	OFFSET ??_C@_0BI@HECBNCEH@STUDIO_LIGHT_PROJECTION?$AA@
	lea	eax, DWORD PTR _options$[ebp]
	push	eax
	call	?GL_AddShaderDirective@@YAXPADPBD@Z	; GL_AddShaderDirective
	add	esp, 8
$LN3@GL_UberSha:

; 2077 : 	}
; 2078 : 
; 2079 : 	if( numbones > 0 && glConfig.max_skinning_bones < MAXSTUDIOBONES && glConfig.uniforms_economy )

	cmp	DWORD PTR _numbones$[ebp], 0
	jle	SHORT $LN6@GL_UberSha
	cmp	DWORD PTR ?glConfig@@3UglConfig_t@@A+88, 128 ; 00000080H
	jge	SHORT $LN6@GL_UberSha
	movzx	eax, BYTE PTR ?glConfig@@3UglConfig_t@@A+96
	test	eax, eax
	je	SHORT $LN6@GL_UberSha

; 2080 : 	{
; 2081 : 		int num_bones = Q_min( numbones, glConfig.max_skinning_bones );

	mov	eax, DWORD PTR _numbones$[ebp]
	cmp	eax, DWORD PTR ?glConfig@@3UglConfig_t@@A+88
	jge	SHORT $LN34@GL_UberSha
	mov	ecx, DWORD PTR _numbones$[ebp]
	mov	DWORD PTR tv173[ebp], ecx
	jmp	SHORT $LN35@GL_UberSha
$LN34@GL_UberSha:
	mov	edx, DWORD PTR ?glConfig@@3UglConfig_t@@A+88
	mov	DWORD PTR tv173[ebp], edx
$LN35@GL_UberSha:
	mov	eax, DWORD PTR tv173[ebp]
	mov	DWORD PTR _num_bones$1[ebp], eax

; 2082 : 		GL_AddShaderDefine( options, va( "#define MAXSTUDIOBONES %d\n", num_bones ));

	mov	eax, DWORD PTR _num_bones$1[ebp]
	push	eax
	push	OFFSET ??_C@_0BL@NPDONKFB@?$CDdefine?5MAXSTUDIOBONES?5?$CFd?6?$AA@
	call	?va@@YAPADPBDZZ				; va
	add	esp, 8
	push	eax
	lea	ecx, DWORD PTR _options$[ebp]
	push	ecx
	call	?GL_AddShaderDefine@@YAXPADPBD@Z	; GL_AddShaderDefine
	add	esp, 8
	jmp	SHORT $LN8@GL_UberSha
$LN6@GL_UberSha:

; 2083 : 	}
; 2084 : 	else if( numbones == 1 )

	cmp	DWORD PTR _numbones$[ebp], 1
	jne	SHORT $LN8@GL_UberSha

; 2085 : 	{
; 2086 : 		GL_AddShaderDefine( options, "#define MAXSTUDIOBONES 1\n" );

	push	OFFSET ??_C@_0BK@FOLBDGDH@?$CDdefine?5MAXSTUDIOBONES?51?6?$AA@
	lea	eax, DWORD PTR _options$[ebp]
	push	eax
	call	?GL_AddShaderDefine@@YAXPADPBD@Z	; GL_AddShaderDefine
	add	esp, 8
$LN8@GL_UberSha:

; 2087 : 	}
; 2088 : 
; 2089 : 	if( bone_weighting )

	movzx	eax, BYTE PTR _bone_weighting$[ebp]
	test	eax, eax
	je	SHORT $LN9@GL_UberSha

; 2090 : 		GL_AddShaderDirective( options, "STUDIO_BONEWEIGHTING" );

	push	OFFSET ??_C@_0BF@EHMPMNCE@STUDIO_BONEWEIGHTING?$AA@
	lea	eax, DWORD PTR _options$[ebp]
	push	eax
	call	?GL_AddShaderDirective@@YAXPADPBD@Z	; GL_AddShaderDirective
	add	esp, 8
$LN9@GL_UberSha:

; 2091 : 
; 2092 : 	if( FBitSet( mat->flags, STUDIO_NF_CHROME ))

	mov	eax, DWORD PTR _mat$[ebp]
	mov	ecx, DWORD PTR [eax+8]
	and	ecx, 2
	je	SHORT $LN10@GL_UberSha

; 2093 : 		GL_AddShaderDirective( options, "STUDIO_HAS_CHROME" );

	push	OFFSET ??_C@_0BC@COADAGML@STUDIO_HAS_CHROME?$AA@
	lea	eax, DWORD PTR _options$[ebp]
	push	eax
	call	?GL_AddShaderDirective@@YAXPADPBD@Z	; GL_AddShaderDirective
	add	esp, 8
$LN10@GL_UberSha:

; 2094 : 
; 2095 : 	if( CVAR_TO_BOOL(gl_emboss) )

	cmp	DWORD PTR ?gl_emboss@@3PAUcvar_s@@A, 0	; gl_emboss
	je	SHORT $LN36@GL_UberSha
	mov	eax, DWORD PTR ?gl_emboss@@3PAUcvar_s@@A ; gl_emboss
	movss	xmm0, DWORD PTR [eax+12]
	ucomiss	xmm0, DWORD PTR __real@00000000
	lahf
	test	ah, 68					; 00000044H
	jnp	SHORT $LN36@GL_UberSha
	mov	BYTE PTR tv194[ebp], 1
	jmp	SHORT $LN37@GL_UberSha
$LN36@GL_UberSha:
	mov	BYTE PTR tv194[ebp], 0
$LN37@GL_UberSha:
	movzx	ecx, BYTE PTR tv194[ebp]
	test	ecx, ecx
	je	SHORT $LN11@GL_UberSha

; 2096 : 		GL_AddShaderDirective( options, "STUDIO_EMBOSS" );

	push	OFFSET ??_C@_0O@CKALONGO@STUDIO_EMBOSS?$AA@
	lea	eax, DWORD PTR _options$[ebp]
	push	eax
	call	?GL_AddShaderDirective@@YAXPADPBD@Z	; GL_AddShaderDirective
	add	esp, 8
$LN11@GL_UberSha:

; 2097 : 
; 2098 : 	if( CVAR_TO_BOOL( gl_specular ) )

	cmp	DWORD PTR ?gl_specular@@3PAUcvar_s@@A, 0 ; gl_specular
	je	SHORT $LN38@GL_UberSha
	mov	eax, DWORD PTR ?gl_specular@@3PAUcvar_s@@A ; gl_specular
	movss	xmm0, DWORD PTR [eax+12]
	ucomiss	xmm0, DWORD PTR __real@00000000
	lahf
	test	ah, 68					; 00000044H
	jnp	SHORT $LN38@GL_UberSha
	mov	BYTE PTR tv202[ebp], 1
	jmp	SHORT $LN39@GL_UberSha
$LN38@GL_UberSha:
	mov	BYTE PTR tv202[ebp], 0
$LN39@GL_UberSha:
	movzx	ecx, BYTE PTR tv202[ebp]
	test	ecx, ecx
	je	SHORT $LN12@GL_UberSha

; 2099 : 		GL_AddShaderDirective( options, "STUDIO_SPECULAR" );

	push	OFFSET ??_C@_0BA@NBCLHJFL@STUDIO_SPECULAR?$AA@
	lea	eax, DWORD PTR _options$[ebp]
	push	eax
	call	?GL_AddShaderDirective@@YAXPADPBD@Z	; GL_AddShaderDirective
	add	esp, 8
$LN12@GL_UberSha:

; 2100 : 
; 2101 : 	if( CVAR_TO_BOOL( gl_bump ) && tr.materials[mat->gl_diffuse_id].gl_normalmap_id > 0 )

	cmp	DWORD PTR ?gl_bump@@3PAUcvar_s@@A, 0	; gl_bump
	je	SHORT $LN40@GL_UberSha
	mov	eax, DWORD PTR ?gl_bump@@3PAUcvar_s@@A	; gl_bump
	movss	xmm0, DWORD PTR [eax+12]
	ucomiss	xmm0, DWORD PTR __real@00000000
	lahf
	test	ah, 68					; 00000044H
	jnp	SHORT $LN40@GL_UberSha
	mov	BYTE PTR tv210[ebp], 1
	jmp	SHORT $LN41@GL_UberSha
$LN40@GL_UberSha:
	mov	BYTE PTR tv210[ebp], 0
$LN41@GL_UberSha:
	movzx	ecx, BYTE PTR tv210[ebp]
	test	ecx, ecx
	je	SHORT $LN13@GL_UberSha
	mov	eax, DWORD PTR _mat$[ebp]
	movzx	ecx, WORD PTR [eax+4]
	imul	edx, ecx, 196
	movzx	eax, WORD PTR ?tr@@3Uref_globals_t@@A[edx+5885528]
	test	eax, eax
	jle	SHORT $LN13@GL_UberSha

; 2102 : 	{
; 2103 : 		GL_AddShaderDirective( options, "STUDIO_BUMP" );

	push	OFFSET ??_C@_0M@LOLLNBMH@STUDIO_BUMP?$AA@
	lea	eax, DWORD PTR _options$[ebp]
	push	eax
	call	?GL_AddShaderDirective@@YAXPADPBD@Z	; GL_AddShaderDirective
	add	esp, 8

; 2104 : 		GL_EncodeNormal( options, tr.materials[mat->gl_diffuse_id].gl_normalmap_id );

	mov	eax, DWORD PTR _mat$[ebp]
	movzx	ecx, WORD PTR [eax+4]
	imul	edx, ecx, 196
	movzx	eax, WORD PTR ?tr@@3Uref_globals_t@@A[edx+5885528]
	push	eax
	lea	ecx, DWORD PTR _options$[ebp]
	push	ecx
	call	?GL_EncodeNormal@@YAXPADH@Z		; GL_EncodeNormal
	add	esp, 8
$LN13@GL_UberSha:

; 2105 : 	}
; 2106 : 
; 2107 : 	if( tr.materials[mat->gl_diffuse_id].gl_interiormap_id > 0 )

	mov	eax, DWORD PTR _mat$[ebp]
	movzx	ecx, WORD PTR [eax+4]
	imul	edx, ecx, 196
	movzx	eax, WORD PTR ?tr@@3Uref_globals_t@@A[edx+5885504]
	test	eax, eax
	jle	SHORT $LN14@GL_UberSha

; 2108 : 		GL_AddShaderDirective( options, "STUDIO_INTERIOR" );

	push	OFFSET ??_C@_0BA@BJGEOHOC@STUDIO_INTERIOR?$AA@
	lea	eax, DWORD PTR _options$[ebp]
	push	eax
	call	?GL_AddShaderDirective@@YAXPADPBD@Z	; GL_AddShaderDirective
	add	esp, 8
$LN14@GL_UberSha:

; 2109 : 
; 2110 : 	if( tr.materials[mat->gl_diffuse_id].gl_colormask_id > 0 )

	mov	eax, DWORD PTR _mat$[ebp]
	movzx	ecx, WORD PTR [eax+4]
	imul	edx, ecx, 196
	movzx	eax, WORD PTR ?tr@@3Uref_globals_t@@A[edx+5885502]
	test	eax, eax
	jle	SHORT $LN15@GL_UberSha

; 2111 : 		GL_AddShaderDirective( options, "STUDIO_HAS_COLORMASK" );

	push	OFFSET ??_C@_0BF@MDNGADJD@STUDIO_HAS_COLORMASK?$AA@
	lea	eax, DWORD PTR _options$[ebp]
	push	eax
	call	?GL_AddShaderDirective@@YAXPADPBD@Z	; GL_AddShaderDirective
	add	esp, 8
$LN15@GL_UberSha:

; 2112 : 
; 2113 : 	if( tr.materials[mat->gl_diffuse_id].FoliageSwayHeight != 0 )

	mov	eax, DWORD PTR _mat$[ebp]
	movzx	ecx, WORD PTR [eax+4]
	imul	edx, ecx, 196
	cmp	DWORD PTR ?tr@@3Uref_globals_t@@A[edx+5885496], 0
	je	SHORT $LN16@GL_UberSha

; 2114 : 		GL_AddShaderDirective( options, "STUDIO_SWAY_FOLIAGE" );

	push	OFFSET ??_C@_0BE@NHNIOEPO@STUDIO_SWAY_FOLIAGE?$AA@
	lea	eax, DWORD PTR _options$[ebp]
	push	eax
	call	?GL_AddShaderDirective@@YAXPADPBD@Z	; GL_AddShaderDirective
	add	esp, 8
$LN16@GL_UberSha:

; 2115 : 
; 2116 : 	if( tr.fogEnabled )

	movzx	eax, BYTE PTR ?tr@@3Uref_globals_t@@A+5830892
	test	eax, eax
	je	SHORT $LN17@GL_UberSha

; 2117 : 		GL_AddShaderDirective( options, "STUDIO_FOG_EXP" );

	push	OFFSET ??_C@_0P@EAIBONLP@STUDIO_FOG_EXP?$AA@
	lea	eax, DWORD PTR _options$[ebp]
	push	eax
	call	?GL_AddShaderDirective@@YAXPADPBD@Z	; GL_AddShaderDirective
	add	esp, 8
$LN17@GL_UberSha:

; 2118 : 
; 2119 : 	// mixed mode: solid & transparent controlled by alpha-channel
; 2120 : 	/*
; 2121 : 	if( RI->currententity && texTransparent && RI->currententity->curstate.rendermode != kRenderGlow )
; 2122 : 	{
; 2123 : 		if( usingAlphaBlend )
; 2124 : 		{
; 2125 : 			GL_AddShaderDirective( options, "ALPHA_BLENDING" );
; 2126 : 		}
; 2127 : 		else if( texAlphaToCoverage && GL_UsingAlphaToCoverage() )
; 2128 : 		{
; 2129 : 			if( GL_Support( R_A2C_DITHER_CONTROL ) )
; 2130 : 			{
; 2131 : 				// enable macro only when we're disabled dithering for A2C
; 2132 : 				GL_AddShaderDirective( options, "ALPHA_TO_COVERAGE" );
; 2133 : 			}
; 2134 : 		}
; 2135 : 	}*/
; 2136 : 
; 2137 : 	if( CVAR_TO_BOOL( r_shadows ) && !tr.shadows_notsupport )

	cmp	DWORD PTR ?r_shadows@@3PAUcvar_s@@A, 0	; r_shadows
	je	SHORT $LN42@GL_UberSha
	mov	eax, DWORD PTR ?r_shadows@@3PAUcvar_s@@A ; r_shadows
	movss	xmm0, DWORD PTR [eax+12]
	ucomiss	xmm0, DWORD PTR __real@00000000
	lahf
	test	ah, 68					; 00000044H
	jnp	SHORT $LN42@GL_UberSha
	mov	BYTE PTR tv263[ebp], 1
	jmp	SHORT $LN43@GL_UberSha
$LN42@GL_UberSha:
	mov	BYTE PTR tv263[ebp], 0
$LN43@GL_UberSha:
	movzx	ecx, BYTE PTR tv263[ebp]
	test	ecx, ecx
	je	SHORT $LN19@GL_UberSha
	movzx	eax, BYTE PTR ?tr@@3Uref_globals_t@@A+5830934
	test	eax, eax
	jne	SHORT $LN19@GL_UberSha

; 2138 : 	{
; 2139 : 		if(!FBitSet(pl->flags, CF_NOSHADOWS))

	mov	eax, DWORD PTR _pl$[ebp]
	mov	ecx, DWORD PTR [eax+744]
	and	ecx, 1024				; 00000400H
	jne	SHORT $LN19@GL_UberSha

; 2140 : 			GL_AddShaderDirective( options, "STUDIO_HAS_SHADOWS" );

	push	OFFSET ??_C@_0BD@KGIMNJDD@STUDIO_HAS_SHADOWS?$AA@
	lea	eax, DWORD PTR _options$[ebp]
	push	eax
	call	?GL_AddShaderDirective@@YAXPADPBD@Z	; GL_AddShaderDirective
	add	esp, 8
$LN19@GL_UberSha:

; 2141 : 	}
; 2142 : 
; 2143 : 	glsl_program_t *shader = GL_FindUberShader( glname, options, &GL_InitStudioDlightUniforms );

	push	OFFSET ?GL_InitStudioDlightUniforms@@YAXPAUglsl_prog_s@@@Z ; GL_InitStudioDlightUniforms
	lea	eax, DWORD PTR _options$[ebp]
	push	eax
	lea	ecx, DWORD PTR _glname$[ebp]
	push	ecx
	call	?GL_FindUberShader@@YAPAUglsl_prog_s@@PBD0P6AXPAU1@@Z@Z ; GL_FindUberShader
	add	esp, 12					; 0000000cH
	mov	DWORD PTR _shader$[ebp], eax

; 2144 : 	if( !shader )

	cmp	DWORD PTR _shader$[ebp], 0
	jne	SHORT $LN20@GL_UberSha

; 2145 : 	{
; 2146 : 		SetBits( mat->flags, STUDIO_NF_NODLIGHT );

	mov	eax, DWORD PTR _mat$[ebp]
	mov	ecx, DWORD PTR [eax+8]
	or	ecx, 131072				; 00020000H
	mov	edx, DWORD PTR _mat$[ebp]
	mov	DWORD PTR [edx+8], ecx

; 2147 : 		return 0; // something bad happens

	xor	eax, eax
	jmp	$LN1@GL_UberSha
$LN20@GL_UberSha:

; 2148 : 	}
; 2149 : 
; 2150 : 	word shaderNum = (shader - glsl_programs);

	mov	eax, DWORD PTR _shader$[ebp]
	sub	eax, OFFSET ?glsl_programs@@3PAUglsl_prog_s@@A ; glsl_programs
	cdq
	mov	ecx, 972				; 000003ccH
	idiv	ecx
	mov	WORD PTR _shaderNum$[ebp], ax

; 2151 : 
; 2152 : 	// done
; 2153 : 	ClearBits( mat->flags, STUDIO_NF_NODLIGHT );

	mov	eax, DWORD PTR _mat$[ebp]
	mov	ecx, DWORD PTR [eax+8]
	and	ecx, -131073				; fffdffffH
	mov	edx, DWORD PTR _mat$[ebp]
	mov	DWORD PTR [edx+8], ecx

; 2154 : 
; 2155 : 	if( pl->pointlight )

	mov	eax, DWORD PTR _pl$[ebp]
	movzx	ecx, BYTE PTR [eax+44]
	test	ecx, ecx
	je	SHORT $LN21@GL_UberSha

; 2156 : 	{
; 2157 : 		mat->omniLightShaderNum[shadows] = shaderNum;

	movzx	eax, BYTE PTR _shadows$[ebp]
	mov	ecx, DWORD PTR _mat$[ebp]
	mov	dx, WORD PTR _shaderNum$[ebp]
	mov	WORD PTR [ecx+eax*2+14], dx

; 2158 : 		mat->glsl_sequence_omni[shadows] = tr.glsl_valid_sequence;

	movzx	eax, BYTE PTR _shadows$[ebp]
	mov	ecx, DWORD PTR _mat$[ebp]
	mov	dx, WORD PTR ?tr@@3Uref_globals_t@@A+5830936
	mov	WORD PTR [ecx+eax*2+24], dx

; 2159 : 	}
; 2160 : 	else

	jmp	SHORT $LN22@GL_UberSha
$LN21@GL_UberSha:

; 2161 : 	{
; 2162 : 		mat->projLightShaderNum[shadows] = shaderNum;

	movzx	eax, BYTE PTR _shadows$[ebp]
	mov	ecx, DWORD PTR _mat$[ebp]
	mov	dx, WORD PTR _shaderNum$[ebp]
	mov	WORD PTR [ecx+eax*2+18], dx

; 2163 : 		mat->glsl_sequence_proj[shadows] = tr.glsl_valid_sequence;

	movzx	eax, BYTE PTR _shadows$[ebp]
	mov	ecx, DWORD PTR _mat$[ebp]
	mov	dx, WORD PTR ?tr@@3Uref_globals_t@@A+5830936
	mov	WORD PTR [ecx+eax*2+28], dx
$LN22@GL_UberSha:

; 2164 : 	}
; 2165 : 
; 2166 : 	return shaderNum;

	mov	ax, WORD PTR _shaderNum$[ebp]
$LN1@GL_UberSha:

; 2167 : }

	pop	edi
	pop	esi
	pop	ebx
	mov	ecx, DWORD PTR __$ArrayPad$[ebp]
	xor	ecx, ebp
	call	@__security_check_cookie@4
	mov	esp, ebp
	pop	ebp
	ret	0
?GL_UberShaderForDlightStudio@@YAGPBUplight_s@@PAUmstudiomat_s@@_NH@Z ENDP ; GL_UberShaderForDlightStudio
_TEXT	ENDS
; Function compile flags: /Odtp /ZI
; File d:\!diffusion 2020\source code 2022\client-server\client\render\r_shader.cpp
;	COMDAT ?GL_UberShaderForSolidStudio@@YAGPAUmstudiomat_s@@_N11H@Z
_TEXT	SEGMENT
tv141 = -732						; size = 4
tv134 = -732						; size = 4
tv89 = -732						; size = 4
tv225 = -729						; size = 1
tv194 = -729						; size = 1
tv186 = -729						; size = 1
tv178 = -729						; size = 1
tv94 = -729						; size = 1
tv84 = -729						; size = 1
tv80 = -729						; size = 1
_shaderNum$ = -600					; size = 2
_shader$ = -596						; size = 4
_num_bones$1 = -592					; size = 4
_usingAlphaBlend$ = -586				; size = 1
_texAlphaToCoverage$ = -585				; size = 1
_texTransparent$ = -584					; size = 1
_flagMasked$ = -583					; size = 1
_flagAdditive$ = -582					; size = 1
_using_cubemaps$ = -581					; size = 1
_options$ = -580					; size = 512
_glname$ = -68						; size = 64
__$ArrayPad$ = -4					; size = 4
_mat$ = 8						; size = 4
_vertex_lighting$ = 12					; size = 1
_bone_weighting$ = 16					; size = 1
_fullbright$ = 20					; size = 1
_numbones$ = 24						; size = 4
?GL_UberShaderForSolidStudio@@YAGPAUmstudiomat_s@@_N11H@Z PROC ; GL_UberShaderForSolidStudio, COMDAT

; 1936 : {

	push	ebp
	mov	ebp, esp
	sub	esp, 732				; 000002dcH
	mov	eax, DWORD PTR ___security_cookie
	xor	eax, ebp
	mov	DWORD PTR __$ArrayPad$[ebp], eax
	push	ebx
	push	esi
	push	edi

; 1937 : 	char glname[64];
; 1938 : 	char options[MAX_OPTIONS_LENGTH];
; 1939 : 	bool using_cubemaps = false;

	mov	BYTE PTR _using_cubemaps$[ebp], 0

; 1940 : 
; 1941 : 	if( mat->shaderNum && mat->glsl_sequence == tr.glsl_valid_sequence )

	mov	eax, DWORD PTR _mat$[ebp]
	movzx	ecx, WORD PTR [eax+12]
	test	ecx, ecx
	je	SHORT $LN2@GL_UberSha
	mov	eax, DWORD PTR _mat$[ebp]
	movzx	ecx, WORD PTR [eax+22]
	cmp	ecx, DWORD PTR ?tr@@3Uref_globals_t@@A+5830936
	jne	SHORT $LN2@GL_UberSha

; 1942 : 		return mat->shaderNum; // valid

	mov	eax, DWORD PTR _mat$[ebp]
	mov	ax, WORD PTR [eax+12]
	jmp	$LN1@GL_UberSha
$LN2@GL_UberSha:

; 1943 : 
; 1944 : 	Q_strncpy( glname, "StudioSolid", sizeof( glname ));

	push	64					; 00000040H
	push	OFFSET ??_C@_0M@IEJOAFIH@StudioSolid?$AA@
	lea	eax, DWORD PTR _glname$[ebp]
	push	eax
	call	?Q_strncpy@@YAIPADPBDI@Z		; Q_strncpy
	add	esp, 12					; 0000000cH

; 1945 : 	memset( options, 0, sizeof( options ));

	push	512					; 00000200H
	push	0
	lea	eax, DWORD PTR _options$[ebp]
	push	eax
	call	_memset
	add	esp, 12					; 0000000cH

; 1946 : 
; 1947 : 	bool flagAdditive = FBitSet( mat->flags, STUDIO_NF_ADDITIVE ) ? true : false;

	mov	eax, DWORD PTR _mat$[ebp]
	mov	ecx, DWORD PTR [eax+8]
	and	ecx, 32					; 00000020H
	je	SHORT $LN24@GL_UberSha
	mov	BYTE PTR tv80[ebp], 1
	jmp	SHORT $LN25@GL_UberSha
$LN24@GL_UberSha:
	mov	BYTE PTR tv80[ebp], 0
$LN25@GL_UberSha:
	mov	dl, BYTE PTR tv80[ebp]
	mov	BYTE PTR _flagAdditive$[ebp], dl

; 1948 : 	bool flagMasked = FBitSet( mat->flags, STUDIO_NF_MASKED ) ? true : false;

	mov	eax, DWORD PTR _mat$[ebp]
	mov	ecx, DWORD PTR [eax+8]
	and	ecx, 64					; 00000040H
	je	SHORT $LN26@GL_UberSha
	mov	BYTE PTR tv84[ebp], 1
	jmp	SHORT $LN27@GL_UberSha
$LN26@GL_UberSha:
	mov	BYTE PTR tv84[ebp], 0
$LN27@GL_UberSha:
	mov	dl, BYTE PTR tv84[ebp]
	mov	BYTE PTR _flagMasked$[ebp], dl

; 1949 : 	bool texTransparent = flagAdditive || flagMasked;

	movzx	eax, BYTE PTR _flagAdditive$[ebp]
	test	eax, eax
	jne	SHORT $LN28@GL_UberSha
	movzx	ecx, BYTE PTR _flagMasked$[ebp]
	test	ecx, ecx
	jne	SHORT $LN28@GL_UberSha
	mov	DWORD PTR tv89[ebp], 0
	jmp	SHORT $LN29@GL_UberSha
$LN28@GL_UberSha:
	mov	DWORD PTR tv89[ebp], 1
$LN29@GL_UberSha:
	mov	dl, BYTE PTR tv89[ebp]
	mov	BYTE PTR _texTransparent$[ebp], dl

; 1950 : 	bool texAlphaToCoverage = FBitSet( mat->flags, STUDIO_NF_ALPHATOCOVERAGE ) ? true : false;

	mov	eax, DWORD PTR _mat$[ebp]
	mov	ecx, DWORD PTR [eax+8]
	and	ecx, 16					; 00000010H
	je	SHORT $LN30@GL_UberSha
	mov	BYTE PTR tv94[ebp], 1
	jmp	SHORT $LN31@GL_UberSha
$LN30@GL_UberSha:
	mov	BYTE PTR tv94[ebp], 0
$LN31@GL_UberSha:
	mov	dl, BYTE PTR tv94[ebp]
	mov	BYTE PTR _texAlphaToCoverage$[ebp], dl

; 1951 : 	bool usingAlphaBlend = texTransparent && FBitSet( mat->flags, STUDIO_NF_HAS_ALPHA ) && !texAlphaToCoverage;

	movzx	eax, BYTE PTR _texTransparent$[ebp]
	test	eax, eax
	je	SHORT $LN32@GL_UberSha
	mov	ecx, DWORD PTR _mat$[ebp]
	mov	edx, DWORD PTR [ecx+8]
	and	edx, 524288				; 00080000H
	je	SHORT $LN32@GL_UberSha
	movzx	eax, BYTE PTR _texAlphaToCoverage$[ebp]
	test	eax, eax
	jne	SHORT $LN32@GL_UberSha
	mov	DWORD PTR tv134[ebp], 1
	jmp	SHORT $LN33@GL_UberSha
$LN32@GL_UberSha:
	mov	DWORD PTR tv134[ebp], 0
$LN33@GL_UberSha:
	mov	cl, BYTE PTR tv134[ebp]
	mov	BYTE PTR _usingAlphaBlend$[ebp], cl

; 1952 : 
; 1953 : 	if( numbones > 0 && glConfig.max_skinning_bones < MAXSTUDIOBONES && glConfig.uniforms_economy )

	cmp	DWORD PTR _numbones$[ebp], 0
	jle	SHORT $LN3@GL_UberSha
	cmp	DWORD PTR ?glConfig@@3UglConfig_t@@A+88, 128 ; 00000080H
	jge	SHORT $LN3@GL_UberSha
	movzx	eax, BYTE PTR ?glConfig@@3UglConfig_t@@A+96
	test	eax, eax
	je	SHORT $LN3@GL_UberSha

; 1954 : 	{
; 1955 : 		int num_bones = Q_min( numbones, glConfig.max_skinning_bones );

	mov	eax, DWORD PTR _numbones$[ebp]
	cmp	eax, DWORD PTR ?glConfig@@3UglConfig_t@@A+88
	jge	SHORT $LN34@GL_UberSha
	mov	ecx, DWORD PTR _numbones$[ebp]
	mov	DWORD PTR tv141[ebp], ecx
	jmp	SHORT $LN35@GL_UberSha
$LN34@GL_UberSha:
	mov	edx, DWORD PTR ?glConfig@@3UglConfig_t@@A+88
	mov	DWORD PTR tv141[ebp], edx
$LN35@GL_UberSha:
	mov	eax, DWORD PTR tv141[ebp]
	mov	DWORD PTR _num_bones$1[ebp], eax

; 1956 : 		GL_AddShaderDefine( options, va( "#define MAXSTUDIOBONES %d\n", num_bones ));

	mov	eax, DWORD PTR _num_bones$1[ebp]
	push	eax
	push	OFFSET ??_C@_0BL@NPDONKFB@?$CDdefine?5MAXSTUDIOBONES?5?$CFd?6?$AA@
	call	?va@@YAPADPBDZZ				; va
	add	esp, 8
	push	eax
	lea	ecx, DWORD PTR _options$[ebp]
	push	ecx
	call	?GL_AddShaderDefine@@YAXPADPBD@Z	; GL_AddShaderDefine
	add	esp, 8
	jmp	SHORT $LN5@GL_UberSha
$LN3@GL_UberSha:

; 1957 : 	}
; 1958 : 	else if( numbones == 1 )

	cmp	DWORD PTR _numbones$[ebp], 1
	jne	SHORT $LN5@GL_UberSha

; 1959 : 	{
; 1960 : 		GL_AddShaderDefine( options, "#define MAXSTUDIOBONES 1\n" );

	push	OFFSET ??_C@_0BK@FOLBDGDH@?$CDdefine?5MAXSTUDIOBONES?51?6?$AA@
	lea	eax, DWORD PTR _options$[ebp]
	push	eax
	call	?GL_AddShaderDefine@@YAXPADPBD@Z	; GL_AddShaderDefine
	add	esp, 8
$LN5@GL_UberSha:

; 1961 : 	}
; 1962 : 
; 1963 : 	if( bone_weighting )

	movzx	eax, BYTE PTR _bone_weighting$[ebp]
	test	eax, eax
	je	SHORT $LN6@GL_UberSha

; 1964 : 		GL_AddShaderDirective( options, "STUDIO_BONEWEIGHTING" );

	push	OFFSET ??_C@_0BF@EHMPMNCE@STUDIO_BONEWEIGHTING?$AA@
	lea	eax, DWORD PTR _options$[ebp]
	push	eax
	call	?GL_AddShaderDirective@@YAXPADPBD@Z	; GL_AddShaderDirective
	add	esp, 8
$LN6@GL_UberSha:

; 1965 : 
; 1966 : 	if( FBitSet( mat->flags, STUDIO_NF_CHROME ))

	mov	eax, DWORD PTR _mat$[ebp]
	mov	ecx, DWORD PTR [eax+8]
	and	ecx, 2
	je	SHORT $LN7@GL_UberSha

; 1967 : 		GL_AddShaderDirective( options, "STUDIO_HAS_CHROME" );

	push	OFFSET ??_C@_0BC@COADAGML@STUDIO_HAS_CHROME?$AA@
	lea	eax, DWORD PTR _options$[ebp]
	push	eax
	call	?GL_AddShaderDirective@@YAXPADPBD@Z	; GL_AddShaderDirective
	add	esp, 8
$LN7@GL_UberSha:

; 1968 : 
; 1969 : 	if( vertex_lighting )

	movzx	eax, BYTE PTR _vertex_lighting$[ebp]
	test	eax, eax
	je	SHORT $LN8@GL_UberSha

; 1970 : 		GL_AddShaderDirective( options, "STUDIO_VERTEX_LIGHTING" );

	push	OFFSET ??_C@_0BH@BHCFIENI@STUDIO_VERTEX_LIGHTING?$AA@
	lea	eax, DWORD PTR _options$[ebp]
	push	eax
	call	?GL_AddShaderDirective@@YAXPADPBD@Z	; GL_AddShaderDirective
	add	esp, 8
$LN8@GL_UberSha:

; 1971 : 
; 1972 : 	if( fullbright || FBitSet( mat->flags, STUDIO_NF_FULLBRIGHT ) )

	movzx	eax, BYTE PTR _fullbright$[ebp]
	test	eax, eax
	jne	SHORT $LN11@GL_UberSha
	mov	eax, DWORD PTR _mat$[ebp]
	mov	ecx, DWORD PTR [eax+8]
	and	ecx, 4
	je	SHORT $LN9@GL_UberSha
$LN11@GL_UberSha:

; 1973 : 	{
; 1974 : 		GL_AddShaderDirective( options, "STUDIO_FULLBRIGHT" );

	push	OFFSET ??_C@_0BC@FANBPCPJ@STUDIO_FULLBRIGHT?$AA@
	lea	eax, DWORD PTR _options$[ebp]
	push	eax
	call	?GL_AddShaderDirective@@YAXPADPBD@Z	; GL_AddShaderDirective
	add	esp, 8

; 1975 : 	}
; 1976 : 	else

	jmp	SHORT $LN12@GL_UberSha
$LN9@GL_UberSha:

; 1977 : 	{
; 1978 : 		if( FBitSet( mat->flags, STUDIO_NF_FLATSHADE ))

	mov	eax, DWORD PTR _mat$[ebp]
	mov	ecx, DWORD PTR [eax+8]
	and	ecx, 1
	je	SHORT $LN12@GL_UberSha

; 1979 : 			GL_AddShaderDirective( options, "STUDIO_LIGHT_FLATSHADE" );

	push	OFFSET ??_C@_0BH@FKBCCABK@STUDIO_LIGHT_FLATSHADE?$AA@
	lea	eax, DWORD PTR _options$[ebp]
	push	eax
	call	?GL_AddShaderDirective@@YAXPADPBD@Z	; GL_AddShaderDirective
	add	esp, 8
$LN12@GL_UberSha:

; 1980 : 	}
; 1981 : 
; 1982 : 	if( CVAR_TO_BOOL( gl_emboss ) )

	cmp	DWORD PTR ?gl_emboss@@3PAUcvar_s@@A, 0	; gl_emboss
	je	SHORT $LN36@GL_UberSha
	mov	eax, DWORD PTR ?gl_emboss@@3PAUcvar_s@@A ; gl_emboss
	movss	xmm0, DWORD PTR [eax+12]
	ucomiss	xmm0, DWORD PTR __real@00000000
	lahf
	test	ah, 68					; 00000044H
	jnp	SHORT $LN36@GL_UberSha
	mov	BYTE PTR tv178[ebp], 1
	jmp	SHORT $LN37@GL_UberSha
$LN36@GL_UberSha:
	mov	BYTE PTR tv178[ebp], 0
$LN37@GL_UberSha:
	movzx	ecx, BYTE PTR tv178[ebp]
	test	ecx, ecx
	je	SHORT $LN13@GL_UberSha

; 1983 : 		GL_AddShaderDirective( options, "STUDIO_EMBOSS" );

	push	OFFSET ??_C@_0O@CKALONGO@STUDIO_EMBOSS?$AA@
	lea	eax, DWORD PTR _options$[ebp]
	push	eax
	call	?GL_AddShaderDirective@@YAXPADPBD@Z	; GL_AddShaderDirective
	add	esp, 8
$LN13@GL_UberSha:

; 1984 : 
; 1985 : 	if( CVAR_TO_BOOL( gl_specular ) )

	cmp	DWORD PTR ?gl_specular@@3PAUcvar_s@@A, 0 ; gl_specular
	je	SHORT $LN38@GL_UberSha
	mov	eax, DWORD PTR ?gl_specular@@3PAUcvar_s@@A ; gl_specular
	movss	xmm0, DWORD PTR [eax+12]
	ucomiss	xmm0, DWORD PTR __real@00000000
	lahf
	test	ah, 68					; 00000044H
	jnp	SHORT $LN38@GL_UberSha
	mov	BYTE PTR tv186[ebp], 1
	jmp	SHORT $LN39@GL_UberSha
$LN38@GL_UberSha:
	mov	BYTE PTR tv186[ebp], 0
$LN39@GL_UberSha:
	movzx	ecx, BYTE PTR tv186[ebp]
	test	ecx, ecx
	je	SHORT $LN14@GL_UberSha

; 1986 : 		GL_AddShaderDirective( options, "STUDIO_SPECULAR" );

	push	OFFSET ??_C@_0BA@NBCLHJFL@STUDIO_SPECULAR?$AA@
	lea	eax, DWORD PTR _options$[ebp]
	push	eax
	call	?GL_AddShaderDirective@@YAXPADPBD@Z	; GL_AddShaderDirective
	add	esp, 8
$LN14@GL_UberSha:

; 1987 : 
; 1988 : 	if( CVAR_TO_BOOL( gl_bump ) && tr.materials[mat->gl_diffuse_id].gl_normalmap_id > 0 )

	cmp	DWORD PTR ?gl_bump@@3PAUcvar_s@@A, 0	; gl_bump
	je	SHORT $LN40@GL_UberSha
	mov	eax, DWORD PTR ?gl_bump@@3PAUcvar_s@@A	; gl_bump
	movss	xmm0, DWORD PTR [eax+12]
	ucomiss	xmm0, DWORD PTR __real@00000000
	lahf
	test	ah, 68					; 00000044H
	jnp	SHORT $LN40@GL_UberSha
	mov	BYTE PTR tv194[ebp], 1
	jmp	SHORT $LN41@GL_UberSha
$LN40@GL_UberSha:
	mov	BYTE PTR tv194[ebp], 0
$LN41@GL_UberSha:
	movzx	ecx, BYTE PTR tv194[ebp]
	test	ecx, ecx
	je	SHORT $LN15@GL_UberSha
	mov	eax, DWORD PTR _mat$[ebp]
	movzx	ecx, WORD PTR [eax+4]
	imul	edx, ecx, 196
	movzx	eax, WORD PTR ?tr@@3Uref_globals_t@@A[edx+5885528]
	test	eax, eax
	jle	SHORT $LN15@GL_UberSha

; 1989 : 	{
; 1990 : 		GL_AddShaderDirective( options, "STUDIO_BUMP" );

	push	OFFSET ??_C@_0M@LOLLNBMH@STUDIO_BUMP?$AA@
	lea	eax, DWORD PTR _options$[ebp]
	push	eax
	call	?GL_AddShaderDirective@@YAXPADPBD@Z	; GL_AddShaderDirective
	add	esp, 8

; 1991 : 		GL_EncodeNormal( options, tr.materials[mat->gl_diffuse_id].gl_normalmap_id );

	mov	eax, DWORD PTR _mat$[ebp]
	movzx	ecx, WORD PTR [eax+4]
	imul	edx, ecx, 196
	movzx	eax, WORD PTR ?tr@@3Uref_globals_t@@A[edx+5885528]
	push	eax
	lea	ecx, DWORD PTR _options$[ebp]
	push	ecx
	call	?GL_EncodeNormal@@YAXPADH@Z		; GL_EncodeNormal
	add	esp, 8
$LN15@GL_UberSha:

; 1992 : 	}
; 1993 : 
; 1994 : 	/*
; 1995 : 	// mixed mode: solid & transparent controlled by alpha-channel
; 1996 : 	if( RI->currententity && texTransparent && RI->currententity->curstate.rendermode != kRenderGlow )
; 1997 : 	{
; 1998 : 		if( usingAlphaBlend ) 
; 1999 : 		{
; 2000 : 			GL_AddShaderDirective( options, "ALPHA_BLENDING" );
; 2001 : 		}
; 2002 : 		else if( texAlphaToCoverage && GL_UsingAlphaToCoverage() )
; 2003 : 		{
; 2004 : 			if( GL_Support( R_A2C_DITHER_CONTROL ) )
; 2005 : 			{
; 2006 : 				// enable macro only when we're disabled dithering for A2C
; 2007 : 				GL_AddShaderDirective( options, "ALPHA_TO_COVERAGE" );
; 2008 : 			}
; 2009 : 		}
; 2010 : 	}*/
; 2011 : 
; 2012 : 	// diffusioncubemaps		
; 2013 : 	if( (tr.materials[mat->gl_diffuse_id].ReflectScale > 0.01f) && (world->num_cubemaps > 0) && CVAR_TO_BOOL( gl_cubemaps ) && !RP_CUBEPASS() && (world->rebuilding_cubemaps == CMREBUILD_INACTIVE) )

	mov	eax, DWORD PTR _mat$[ebp]
	movzx	ecx, WORD PTR [eax+4]
	imul	edx, ecx, 196
	movss	xmm0, DWORD PTR ?tr@@3Uref_globals_t@@A[edx+5885488]
	comiss	xmm0, DWORD PTR __real@3c23d70a
	jbe	SHORT $LN16@GL_UberSha
	mov	eax, DWORD PTR ?world@@3PAUgl_world_t@@A ; world
	cmp	DWORD PTR [eax+114976], 0
	jle	SHORT $LN16@GL_UberSha
	cmp	DWORD PTR ?gl_cubemaps@@3PAUcvar_s@@A, 0 ; gl_cubemaps
	je	SHORT $LN42@GL_UberSha
	mov	eax, DWORD PTR ?gl_cubemaps@@3PAUcvar_s@@A ; gl_cubemaps
	movss	xmm0, DWORD PTR [eax+12]
	ucomiss	xmm0, DWORD PTR __real@00000000
	lahf
	test	ah, 68					; 00000044H
	jnp	SHORT $LN42@GL_UberSha
	mov	BYTE PTR tv225[ebp], 1
	jmp	SHORT $LN43@GL_UberSha
$LN42@GL_UberSha:
	mov	BYTE PTR tv225[ebp], 0
$LN43@GL_UberSha:
	movzx	ecx, BYTE PTR tv225[ebp]
	test	ecx, ecx
	je	SHORT $LN16@GL_UberSha
	mov	eax, DWORD PTR ?RI@@3PAUref_instance_t@@A ; RI
	mov	ecx, DWORD PTR [eax]
	and	ecx, 2
	jne	SHORT $LN16@GL_UberSha
	mov	eax, DWORD PTR ?world@@3PAUgl_world_t@@A ; world
	cmp	DWORD PTR [eax+168], 0
	jne	SHORT $LN16@GL_UberSha

; 2014 : 	{
; 2015 : 		GL_AddShaderDirective( options, "REFLECTION_CUBEMAP" );

	push	OFFSET ??_C@_0BD@EMMENHMO@REFLECTION_CUBEMAP?$AA@
	lea	eax, DWORD PTR _options$[ebp]
	push	eax
	call	?GL_AddShaderDirective@@YAXPADPBD@Z	; GL_AddShaderDirective
	add	esp, 8

; 2016 : 		using_cubemaps = true;

	mov	BYTE PTR _using_cubemaps$[ebp], 1
$LN16@GL_UberSha:

; 2017 : 	}
; 2018 : 
; 2019 : 	if( tr.materials[mat->gl_diffuse_id].gl_interiormap_id > 0 )

	mov	eax, DWORD PTR _mat$[ebp]
	movzx	ecx, WORD PTR [eax+4]
	imul	edx, ecx, 196
	movzx	eax, WORD PTR ?tr@@3Uref_globals_t@@A[edx+5885504]
	test	eax, eax
	jle	SHORT $LN17@GL_UberSha

; 2020 : 		GL_AddShaderDirective( options, "STUDIO_INTERIOR" );

	push	OFFSET ??_C@_0BA@BJGEOHOC@STUDIO_INTERIOR?$AA@
	lea	eax, DWORD PTR _options$[ebp]
	push	eax
	call	?GL_AddShaderDirective@@YAXPADPBD@Z	; GL_AddShaderDirective
	add	esp, 8
$LN17@GL_UberSha:

; 2021 : 
; 2022 : 	if( tr.materials[mat->gl_diffuse_id].gl_colormask_id > 0 )

	mov	eax, DWORD PTR _mat$[ebp]
	movzx	ecx, WORD PTR [eax+4]
	imul	edx, ecx, 196
	movzx	eax, WORD PTR ?tr@@3Uref_globals_t@@A[edx+5885502]
	test	eax, eax
	jle	SHORT $LN18@GL_UberSha

; 2023 : 		GL_AddShaderDirective( options, "STUDIO_HAS_COLORMASK" );

	push	OFFSET ??_C@_0BF@MDNGADJD@STUDIO_HAS_COLORMASK?$AA@
	lea	eax, DWORD PTR _options$[ebp]
	push	eax
	call	?GL_AddShaderDirective@@YAXPADPBD@Z	; GL_AddShaderDirective
	add	esp, 8
$LN18@GL_UberSha:

; 2024 : 
; 2025 : 	if( tr.materials[mat->gl_diffuse_id].FoliageSwayHeight != 0 )

	mov	eax, DWORD PTR _mat$[ebp]
	movzx	ecx, WORD PTR [eax+4]
	imul	edx, ecx, 196
	cmp	DWORD PTR ?tr@@3Uref_globals_t@@A[edx+5885496], 0
	je	SHORT $LN19@GL_UberSha

; 2026 : 		GL_AddShaderDirective( options, "STUDIO_SWAY_FOLIAGE" );

	push	OFFSET ??_C@_0BE@NHNIOEPO@STUDIO_SWAY_FOLIAGE?$AA@
	lea	eax, DWORD PTR _options$[ebp]
	push	eax
	call	?GL_AddShaderDirective@@YAXPADPBD@Z	; GL_AddShaderDirective
	add	esp, 8
$LN19@GL_UberSha:

; 2027 : 
; 2028 : 	if( tr.fogEnabled && !fullbright && !FBitSet( mat->flags, STUDIO_NF_ADDITIVE ) ) // diffusion - added !fullbright because additive models looked bad

	movzx	eax, BYTE PTR ?tr@@3Uref_globals_t@@A+5830892
	test	eax, eax
	je	SHORT $LN20@GL_UberSha
	movzx	eax, BYTE PTR _fullbright$[ebp]
	test	eax, eax
	jne	SHORT $LN20@GL_UberSha
	mov	eax, DWORD PTR _mat$[ebp]
	mov	ecx, DWORD PTR [eax+8]
	and	ecx, 32					; 00000020H
	jne	SHORT $LN20@GL_UberSha

; 2029 : 		GL_AddShaderDirective( options, "STUDIO_FOG_EXP" );

	push	OFFSET ??_C@_0P@EAIBONLP@STUDIO_FOG_EXP?$AA@
	lea	eax, DWORD PTR _options$[ebp]
	push	eax
	call	?GL_AddShaderDirective@@YAXPADPBD@Z	; GL_AddShaderDirective
	add	esp, 8
$LN20@GL_UberSha:

; 2030 : 
; 2031 : 	glsl_program_t *shader = GL_FindUberShader( glname, options, &GL_InitSolidStudioUniforms );

	push	OFFSET ?GL_InitSolidStudioUniforms@@YAXPAUglsl_prog_s@@@Z ; GL_InitSolidStudioUniforms
	lea	eax, DWORD PTR _options$[ebp]
	push	eax
	lea	ecx, DWORD PTR _glname$[ebp]
	push	ecx
	call	?GL_FindUberShader@@YAPAUglsl_prog_s@@PBD0P6AXPAU1@@Z@Z ; GL_FindUberShader
	add	esp, 12					; 0000000cH
	mov	DWORD PTR _shader$[ebp], eax

; 2032 : 	if( !shader )

	cmp	DWORD PTR _shader$[ebp], 0
	jne	SHORT $LN21@GL_UberSha

; 2033 : 	{
; 2034 : 		SetBits( mat->flags, STUDIO_NF_NODRAW );

	mov	eax, DWORD PTR _mat$[ebp]
	mov	ecx, DWORD PTR [eax+8]
	or	ecx, 65536				; 00010000H
	mov	edx, DWORD PTR _mat$[ebp]
	mov	DWORD PTR [edx+8], ecx

; 2035 : 		return 0; // something bad happens

	xor	eax, eax
	jmp	SHORT $LN1@GL_UberSha
$LN21@GL_UberSha:

; 2036 : 	}
; 2037 : 
; 2038 : 	word shaderNum = (shader - glsl_programs);

	mov	eax, DWORD PTR _shader$[ebp]
	sub	eax, OFFSET ?glsl_programs@@3PAUglsl_prog_s@@A ; glsl_programs
	cdq
	mov	ecx, 972				; 000003ccH
	idiv	ecx
	mov	WORD PTR _shaderNum$[ebp], ax

; 2039 : 
; 2040 : 	if( using_cubemaps )

	movzx	eax, BYTE PTR _using_cubemaps$[ebp]
	test	eax, eax
	je	SHORT $LN22@GL_UberSha

; 2041 : 		SetBits( shader->status, SHADER_USE_CUBEMAPS );

	mov	eax, DWORD PTR _shader$[ebp]
	movzx	ecx, WORD PTR [eax+580]
	or	ecx, 32					; 00000020H
	mov	edx, DWORD PTR _shader$[ebp]
	mov	WORD PTR [edx+580], cx
$LN22@GL_UberSha:

; 2042 : 
; 2043 : 	// done
; 2044 : 	mat->glsl_sequence = tr.glsl_valid_sequence;

	mov	eax, DWORD PTR _mat$[ebp]
	mov	cx, WORD PTR ?tr@@3Uref_globals_t@@A+5830936
	mov	WORD PTR [eax+22], cx

; 2045 : 	ClearBits( mat->flags, STUDIO_NF_NODRAW );

	mov	eax, DWORD PTR _mat$[ebp]
	mov	ecx, DWORD PTR [eax+8]
	and	ecx, -65537				; fffeffffH
	mov	edx, DWORD PTR _mat$[ebp]
	mov	DWORD PTR [edx+8], ecx

; 2046 : 	mat->shaderNum = shaderNum;

	mov	eax, DWORD PTR _mat$[ebp]
	mov	cx, WORD PTR _shaderNum$[ebp]
	mov	WORD PTR [eax+12], cx

; 2047 : 
; 2048 : 	return shaderNum;

	mov	ax, WORD PTR _shaderNum$[ebp]
$LN1@GL_UberSha:

; 2049 : }

	pop	edi
	pop	esi
	pop	ebx
	mov	ecx, DWORD PTR __$ArrayPad$[ebp]
	xor	ecx, ebp
	call	@__security_check_cookie@4
	mov	esp, ebp
	pop	ebp
	ret	0
?GL_UberShaderForSolidStudio@@YAGPAUmstudiomat_s@@_N11H@Z ENDP ; GL_UberShaderForSolidStudio
_TEXT	ENDS
; Function compile flags: /Odtp /ZI
; File d:\!diffusion 2020\source code 2022\client-server\client\render\r_shader.cpp
;	COMDAT ?GL_UberShaderForDlightGeneric@@YAGPBUplight_s@@@Z
_TEXT	SEGMENT
tv145 = -721						; size = 1
tv67 = -721						; size = 1
_shaderNum$ = -592					; size = 2
_shader$ = -588						; size = 4
_options$ = -584					; size = 512
_glname$ = -72						; size = 64
_shadows$ = -5						; size = 1
__$ArrayPad$ = -4					; size = 4
_pl$ = 8						; size = 4
?GL_UberShaderForDlightGeneric@@YAGPBUplight_s@@@Z PROC	; GL_UberShaderForDlightGeneric, COMDAT

; 2197 : {

	push	ebp
	mov	ebp, esp
	sub	esp, 724				; 000002d4H
	mov	eax, DWORD PTR ___security_cookie
	xor	eax, ebp
	mov	DWORD PTR __$ArrayPad$[ebp], eax
	push	ebx
	push	esi
	push	edi

; 2198 : 	bool shadows = (!FBitSet( pl->flags, CF_NOSHADOWS )) ? true : false;

	mov	eax, DWORD PTR _pl$[ebp]
	mov	ecx, DWORD PTR [eax+744]
	and	ecx, 1024				; 00000400H
	jne	SHORT $LN14@GL_UberSha
	mov	BYTE PTR tv67[ebp], 1
	jmp	SHORT $LN15@GL_UberSha
$LN14@GL_UberSha:
	mov	BYTE PTR tv67[ebp], 0
$LN15@GL_UberSha:
	mov	dl, BYTE PTR tv67[ebp]
	mov	BYTE PTR _shadows$[ebp], dl

; 2199 : 
; 2200 : 	if( pl->pointlight )

	mov	eax, DWORD PTR _pl$[ebp]
	movzx	ecx, BYTE PTR [eax+44]
	test	ecx, ecx
	je	SHORT $LN2@GL_UberSha

; 2201 : 	{
; 2202 : 		if( tr.omniLightShaderNum[shadows] && tr.glsl_sequence_omni[shadows] == tr.glsl_valid_sequence )

	movzx	eax, BYTE PTR _shadows$[ebp]
	movzx	ecx, WORD PTR ?tr@@3Uref_globals_t@@A[eax*2+5835058]
	test	ecx, ecx
	je	SHORT $LN4@GL_UberSha
	movzx	eax, BYTE PTR _shadows$[ebp]
	movzx	ecx, WORD PTR ?tr@@3Uref_globals_t@@A[eax*2+5835066]
	cmp	ecx, DWORD PTR ?tr@@3Uref_globals_t@@A+5830936
	jne	SHORT $LN4@GL_UberSha

; 2203 : 			return tr.omniLightShaderNum[shadows]; // valid

	movzx	eax, BYTE PTR _shadows$[ebp]
	mov	ax, WORD PTR ?tr@@3Uref_globals_t@@A[eax*2+5835058]
	jmp	$LN1@GL_UberSha
$LN4@GL_UberSha:

; 2204 : 	}
; 2205 : 	else

	jmp	SHORT $LN5@GL_UberSha
$LN2@GL_UberSha:

; 2206 : 	{
; 2207 : 		if( tr.projLightShaderNum && tr.glsl_sequence_proj[shadows] == tr.glsl_valid_sequence )

	mov	eax, OFFSET ?tr@@3Uref_globals_t@@A+5835062
	test	eax, eax
	je	SHORT $LN5@GL_UberSha
	movzx	eax, BYTE PTR _shadows$[ebp]
	movzx	ecx, WORD PTR ?tr@@3Uref_globals_t@@A[eax*2+5835070]
	cmp	ecx, DWORD PTR ?tr@@3Uref_globals_t@@A+5830936
	jne	SHORT $LN5@GL_UberSha

; 2208 : 			return tr.projLightShaderNum[shadows]; // valid

	movzx	eax, BYTE PTR _shadows$[ebp]
	mov	ax, WORD PTR ?tr@@3Uref_globals_t@@A[eax*2+5835062]
	jmp	$LN1@GL_UberSha
$LN5@GL_UberSha:

; 2209 : 	}
; 2210 : 
; 2211 : 	char glname[64];
; 2212 : 	char options[MAX_OPTIONS_LENGTH];
; 2213 : 
; 2214 : 	Q_strncpy( glname, "GenericDlight", sizeof( glname ));

	push	64					; 00000040H
	push	OFFSET ??_C@_0O@FFCCJAIN@GenericDlight?$AA@
	lea	eax, DWORD PTR _glname$[ebp]
	push	eax
	call	?Q_strncpy@@YAIPADPBDI@Z		; Q_strncpy
	add	esp, 12					; 0000000cH

; 2215 : 	memset( options, 0, sizeof( options ));

	push	512					; 00000200H
	push	0
	lea	eax, DWORD PTR _options$[ebp]
	push	eax
	call	_memset
	add	esp, 12					; 0000000cH

; 2216 : 
; 2217 : 	if( pl->pointlight )

	mov	eax, DWORD PTR _pl$[ebp]
	movzx	ecx, BYTE PTR [eax+44]
	test	ecx, ecx
	je	SHORT $LN6@GL_UberSha

; 2218 : 		GL_AddShaderDirective( options, "GENERIC_LIGHT_OMNIDIRECTIONAL" );

	push	OFFSET ??_C@_0BO@DKEIEFBK@GENERIC_LIGHT_OMNIDIRECTIONAL?$AA@
	lea	eax, DWORD PTR _options$[ebp]
	push	eax
	call	?GL_AddShaderDirective@@YAXPADPBD@Z	; GL_AddShaderDirective
	add	esp, 8

; 2219 : 	else

	jmp	SHORT $LN7@GL_UberSha
$LN6@GL_UberSha:

; 2220 : 		GL_AddShaderDirective( options, "GENERIC_LIGHT_PROJECTION" );

	push	OFFSET ??_C@_0BJ@JMLOAHFL@GENERIC_LIGHT_PROJECTION?$AA@
	lea	eax, DWORD PTR _options$[ebp]
	push	eax
	call	?GL_AddShaderDirective@@YAXPADPBD@Z	; GL_AddShaderDirective
	add	esp, 8
$LN7@GL_UberSha:

; 2221 : 
; 2222 : 	if( tr.fogEnabled )

	movzx	eax, BYTE PTR ?tr@@3Uref_globals_t@@A+5830892
	test	eax, eax
	je	SHORT $LN8@GL_UberSha

; 2223 : 		GL_AddShaderDirective( options, "GENERIC_FOG_EXP" );

	push	OFFSET ??_C@_0BA@DHGNAIIA@GENERIC_FOG_EXP?$AA@
	lea	eax, DWORD PTR _options$[ebp]
	push	eax
	call	?GL_AddShaderDirective@@YAXPADPBD@Z	; GL_AddShaderDirective
	add	esp, 8
$LN8@GL_UberSha:

; 2224 : 
; 2225 : 	if( CVAR_TO_BOOL( r_shadows ) && shadows && !tr.shadows_notsupport )

	cmp	DWORD PTR ?r_shadows@@3PAUcvar_s@@A, 0	; r_shadows
	je	SHORT $LN16@GL_UberSha
	mov	eax, DWORD PTR ?r_shadows@@3PAUcvar_s@@A ; r_shadows
	movss	xmm0, DWORD PTR [eax+12]
	ucomiss	xmm0, DWORD PTR __real@00000000
	lahf
	test	ah, 68					; 00000044H
	jnp	SHORT $LN16@GL_UberSha
	mov	BYTE PTR tv145[ebp], 1
	jmp	SHORT $LN17@GL_UberSha
$LN16@GL_UberSha:
	mov	BYTE PTR tv145[ebp], 0
$LN17@GL_UberSha:
	movzx	ecx, BYTE PTR tv145[ebp]
	test	ecx, ecx
	je	SHORT $LN9@GL_UberSha
	movzx	eax, BYTE PTR _shadows$[ebp]
	test	eax, eax
	je	SHORT $LN9@GL_UberSha
	movzx	eax, BYTE PTR ?tr@@3Uref_globals_t@@A+5830934
	test	eax, eax
	jne	SHORT $LN9@GL_UberSha

; 2226 : 		GL_AddShaderDirective( options, "GENERIC_HAS_SHADOWS" );

	push	OFFSET ??_C@_0BE@JNEHHLPA@GENERIC_HAS_SHADOWS?$AA@
	lea	eax, DWORD PTR _options$[ebp]
	push	eax
	call	?GL_AddShaderDirective@@YAXPADPBD@Z	; GL_AddShaderDirective
	add	esp, 8
$LN9@GL_UberSha:

; 2227 : 
; 2228 : 	glsl_program_t *shader = GL_FindUberShader( glname, options, &GL_InitGenericDlightUniforms );

	push	OFFSET ?GL_InitGenericDlightUniforms@@YAXPAUglsl_prog_s@@@Z ; GL_InitGenericDlightUniforms
	lea	eax, DWORD PTR _options$[ebp]
	push	eax
	lea	ecx, DWORD PTR _glname$[ebp]
	push	ecx
	call	?GL_FindUberShader@@YAPAUglsl_prog_s@@PBD0P6AXPAU1@@Z@Z ; GL_FindUberShader
	add	esp, 12					; 0000000cH
	mov	DWORD PTR _shader$[ebp], eax

; 2229 : 	if( !shader )

	cmp	DWORD PTR _shader$[ebp], 0
	jne	SHORT $LN10@GL_UberSha

; 2230 : 	{
; 2231 : 		tr.nodlights = true;

	mov	BYTE PTR ?tr@@3Uref_globals_t@@A+5835056, 1

; 2232 : 		return 0; // something bad happens

	xor	eax, eax
	jmp	$LN1@GL_UberSha
$LN10@GL_UberSha:

; 2233 : 	}
; 2234 : 
; 2235 : 	word shaderNum = (shader - glsl_programs);

	mov	eax, DWORD PTR _shader$[ebp]
	sub	eax, OFFSET ?glsl_programs@@3PAUglsl_prog_s@@A ; glsl_programs
	cdq
	mov	ecx, 972				; 000003ccH
	idiv	ecx
	mov	WORD PTR _shaderNum$[ebp], ax

; 2236 : 
; 2237 : 	// done
; 2238 : 	tr.nodlights = false;

	mov	BYTE PTR ?tr@@3Uref_globals_t@@A+5835056, 0

; 2239 : 
; 2240 : 	if( pl->pointlight )

	mov	eax, DWORD PTR _pl$[ebp]
	movzx	ecx, BYTE PTR [eax+44]
	test	ecx, ecx
	je	SHORT $LN11@GL_UberSha

; 2241 : 	{
; 2242 : 		tr.omniLightShaderNum[shadows] = shaderNum;

	movzx	eax, BYTE PTR _shadows$[ebp]
	mov	cx, WORD PTR _shaderNum$[ebp]
	mov	WORD PTR ?tr@@3Uref_globals_t@@A[eax*2+5835058], cx

; 2243 : 		tr.glsl_sequence_omni[shadows] = tr.glsl_valid_sequence;

	movzx	eax, BYTE PTR _shadows$[ebp]
	mov	cx, WORD PTR ?tr@@3Uref_globals_t@@A+5830936
	mov	WORD PTR ?tr@@3Uref_globals_t@@A[eax*2+5835066], cx

; 2244 : 	}
; 2245 : 	else

	jmp	SHORT $LN12@GL_UberSha
$LN11@GL_UberSha:

; 2246 : 	{
; 2247 : 		tr.projLightShaderNum[shadows] = shaderNum;

	movzx	eax, BYTE PTR _shadows$[ebp]
	mov	cx, WORD PTR _shaderNum$[ebp]
	mov	WORD PTR ?tr@@3Uref_globals_t@@A[eax*2+5835062], cx

; 2248 : 		tr.glsl_sequence_proj[shadows] = tr.glsl_valid_sequence;

	movzx	eax, BYTE PTR _shadows$[ebp]
	mov	cx, WORD PTR ?tr@@3Uref_globals_t@@A+5830936
	mov	WORD PTR ?tr@@3Uref_globals_t@@A[eax*2+5835070], cx
$LN12@GL_UberSha:

; 2249 : 	}
; 2250 : 
; 2251 : 	return shaderNum;

	mov	ax, WORD PTR _shaderNum$[ebp]
$LN1@GL_UberSha:

; 2252 : }

	pop	edi
	pop	esi
	pop	ebx
	mov	ecx, DWORD PTR __$ArrayPad$[ebp]
	xor	ecx, ebp
	call	@__security_check_cookie@4
	mov	esp, ebp
	pop	ebp
	ret	0
?GL_UberShaderForDlightGeneric@@YAGPBUplight_s@@@Z ENDP	; GL_UberShaderForDlightGeneric
_TEXT	ENDS
; Function compile flags: /Odtp /ZI
; File d:\!diffusion 2020\source code 2022\client-server\client\render\r_shader.cpp
;	COMDAT ?GL_UberShaderForGrassDlight@@YAGPAUplight_s@@PAUgrass_s@@@Z
_TEXT	SEGMENT
tv84 = -717						; size = 1
tv67 = -717						; size = 1
_shader$ = -588						; size = 4
_options$ = -584					; size = 512
_glname$ = -72						; size = 64
_shadows$ = -5						; size = 1
__$ArrayPad$ = -4					; size = 4
_pl$ = 8						; size = 4
_g$ = 12						; size = 4
?GL_UberShaderForGrassDlight@@YAGPAUplight_s@@PAUgrass_s@@@Z PROC ; GL_UberShaderForGrassDlight, COMDAT

; 1863 : {

	push	ebp
	mov	ebp, esp
	sub	esp, 720				; 000002d0H
	mov	eax, DWORD PTR ___security_cookie
	xor	eax, ebp
	mov	DWORD PTR __$ArrayPad$[ebp], eax
	push	ebx
	push	esi
	push	edi

; 1864 : 	bool shadows = (!FBitSet( pl->flags, CF_NOSHADOWS )) ? true : false;

	mov	eax, DWORD PTR _pl$[ebp]
	mov	ecx, DWORD PTR [eax+744]
	and	ecx, 1024				; 00000400H
	jne	SHORT $LN8@GL_UberSha
	mov	BYTE PTR tv67[ebp], 1
	jmp	SHORT $LN9@GL_UberSha
$LN8@GL_UberSha:
	mov	BYTE PTR tv67[ebp], 0
$LN9@GL_UberSha:
	mov	dl, BYTE PTR tv67[ebp]
	mov	BYTE PTR _shadows$[ebp], dl

; 1865 : 	char glname[64];
; 1866 : 	char options[MAX_OPTIONS_LENGTH];
; 1867 : 
; 1868 : 	Q_strncpy( glname, "GrassDlight", sizeof( glname ));

	push	64					; 00000040H
	push	OFFSET ??_C@_0M@EDHNOIFH@GrassDlight?$AA@
	lea	eax, DWORD PTR _glname$[ebp]
	push	eax
	call	?Q_strncpy@@YAIPADPBDI@Z		; Q_strncpy
	add	esp, 12					; 0000000cH

; 1869 : 	memset( options, 0, sizeof( options ));

	push	512					; 00000200H
	push	0
	lea	eax, DWORD PTR _options$[ebp]
	push	eax
	call	_memset
	add	esp, 12					; 0000000cH

; 1870 : 
; 1871 : 	if( pl->pointlight )

	mov	eax, DWORD PTR _pl$[ebp]
	movzx	ecx, BYTE PTR [eax+44]
	test	ecx, ecx
	je	SHORT $LN2@GL_UberSha

; 1872 : 		GL_AddShaderDirective( options, "GRASS_LIGHT_OMNIDIRECTIONAL" );

	push	OFFSET ??_C@_0BM@BGKIHFAK@GRASS_LIGHT_OMNIDIRECTIONAL?$AA@
	lea	eax, DWORD PTR _options$[ebp]
	push	eax
	call	?GL_AddShaderDirective@@YAXPADPBD@Z	; GL_AddShaderDirective
	add	esp, 8

; 1873 : 	else

	jmp	SHORT $LN3@GL_UberSha
$LN2@GL_UberSha:

; 1874 : 		GL_AddShaderDirective( options, "GRASS_LIGHT_PROJECTION" );

	push	OFFSET ??_C@_0BH@HPNMDGOB@GRASS_LIGHT_PROJECTION?$AA@
	lea	eax, DWORD PTR _options$[ebp]
	push	eax
	call	?GL_AddShaderDirective@@YAXPADPBD@Z	; GL_AddShaderDirective
	add	esp, 8
$LN3@GL_UberSha:

; 1875 : 
; 1876 : 	if( CVAR_TO_BOOL( r_shadows ) && shadows && !tr.shadows_notsupport )

	cmp	DWORD PTR ?r_shadows@@3PAUcvar_s@@A, 0	; r_shadows
	je	SHORT $LN10@GL_UberSha
	mov	eax, DWORD PTR ?r_shadows@@3PAUcvar_s@@A ; r_shadows
	movss	xmm0, DWORD PTR [eax+12]
	ucomiss	xmm0, DWORD PTR __real@00000000
	lahf
	test	ah, 68					; 00000044H
	jnp	SHORT $LN10@GL_UberSha
	mov	BYTE PTR tv84[ebp], 1
	jmp	SHORT $LN11@GL_UberSha
$LN10@GL_UberSha:
	mov	BYTE PTR tv84[ebp], 0
$LN11@GL_UberSha:
	movzx	ecx, BYTE PTR tv84[ebp]
	test	ecx, ecx
	je	SHORT $LN4@GL_UberSha
	movzx	eax, BYTE PTR _shadows$[ebp]
	test	eax, eax
	je	SHORT $LN4@GL_UberSha
	movzx	eax, BYTE PTR ?tr@@3Uref_globals_t@@A+5830934
	test	eax, eax
	jne	SHORT $LN4@GL_UberSha

; 1877 : 		GL_AddShaderDirective( options, "GRASS_HAS_SHADOWS" );

	push	OFFSET ??_C@_0BC@BHEHOBKF@GRASS_HAS_SHADOWS?$AA@
	lea	eax, DWORD PTR _options$[ebp]
	push	eax
	call	?GL_AddShaderDirective@@YAXPADPBD@Z	; GL_AddShaderDirective
	add	esp, 8
$LN4@GL_UberSha:

; 1878 : 
; 1879 : 	if( tr.fogEnabled )

	movzx	eax, BYTE PTR ?tr@@3Uref_globals_t@@A+5830892
	test	eax, eax
	je	SHORT $LN5@GL_UberSha

; 1880 : 		GL_AddShaderDirective( options, "GRASS_FOG_EXP" );

	push	OFFSET ??_C@_0O@FHMFIMAC@GRASS_FOG_EXP?$AA@
	lea	eax, DWORD PTR _options$[ebp]
	push	eax
	call	?GL_AddShaderDirective@@YAXPADPBD@Z	; GL_AddShaderDirective
	add	esp, 8
$LN5@GL_UberSha:

; 1881 : 
; 1882 : 	glsl_program_t *shader = GL_FindUberShader( glname, options, &GL_InitGrassDlightUniforms );

	push	OFFSET ?GL_InitGrassDlightUniforms@@YAXPAUglsl_prog_s@@@Z ; GL_InitGrassDlightUniforms
	lea	eax, DWORD PTR _options$[ebp]
	push	eax
	lea	ecx, DWORD PTR _glname$[ebp]
	push	ecx
	call	?GL_FindUberShader@@YAPAUglsl_prog_s@@PBD0P6AXPAU1@@Z@Z ; GL_FindUberShader
	add	esp, 12					; 0000000cH
	mov	DWORD PTR _shader$[ebp], eax

; 1883 : 	if( !shader )

	cmp	DWORD PTR _shader$[ebp], 0
	jne	SHORT $LN6@GL_UberSha

; 1884 : 	{
; 1885 : 		SetBits( g->vbo.flags, FGRASS_NODLIGHT );

	mov	eax, DWORD PTR _g$[ebp]
	movzx	ecx, WORD PTR [eax+8]
	or	ecx, 2
	mov	edx, DWORD PTR _g$[ebp]
	mov	WORD PTR [edx+8], cx

; 1886 : 		return 0; // something bad happens

	xor	eax, eax
	jmp	SHORT $LN1@GL_UberSha
$LN6@GL_UberSha:

; 1887 : 	}
; 1888 : 
; 1889 : 	ClearBits( g->vbo.flags, FGRASS_NODLIGHT );

	mov	eax, DWORD PTR _g$[ebp]
	movzx	ecx, WORD PTR [eax+8]
	and	ecx, -3					; fffffffdH
	mov	edx, DWORD PTR _g$[ebp]
	mov	WORD PTR [edx+8], cx

; 1890 : 
; 1891 : 	return (shader - glsl_programs);

	mov	eax, DWORD PTR _shader$[ebp]
	sub	eax, OFFSET ?glsl_programs@@3PAUglsl_prog_s@@A ; glsl_programs
	cdq
	mov	ecx, 972				; 000003ccH
	idiv	ecx
$LN1@GL_UberSha:

; 1892 : }

	pop	edi
	pop	esi
	pop	ebx
	mov	ecx, DWORD PTR __$ArrayPad$[ebp]
	xor	ecx, ebp
	call	@__security_check_cookie@4
	mov	esp, ebp
	pop	ebp
	ret	0
?GL_UberShaderForGrassDlight@@YAGPAUplight_s@@PAUgrass_s@@@Z ENDP ; GL_UberShaderForGrassDlight
_TEXT	ENDS
; Function compile flags: /Odtp /ZI
; File d:\!diffusion 2020\source code 2022\client-server\client\render\r_shader.cpp
;	COMDAT ?GL_UberShaderForGrassSolid@@YAGPAUmsurface_s@@PAUgrass_s@@@Z
_TEXT	SEGMENT
tv82 = -717						; size = 1
_shader$ = -588						; size = 4
_i$1 = -584						; size = 4
_options$ = -580					; size = 512
_glname$ = -68						; size = 64
__$ArrayPad$ = -4					; size = 4
_s$ = 8							; size = 4
_g$ = 12						; size = 4
?GL_UberShaderForGrassSolid@@YAGPAUmsurface_s@@PAUgrass_s@@@Z PROC ; GL_UberShaderForGrassSolid, COMDAT

; 1825 : {

	push	ebp
	mov	ebp, esp
	sub	esp, 720				; 000002d0H
	mov	eax, DWORD PTR ___security_cookie
	xor	eax, ebp
	mov	DWORD PTR __$ArrayPad$[ebp], eax
	push	ebx
	push	esi
	push	edi

; 1826 : 	if( g->vbo.shaderNum && g->vbo.glsl_sequence == tr.glsl_valid_sequence )

	mov	eax, DWORD PTR _g$[ebp]
	movzx	ecx, WORD PTR [eax+4]
	test	ecx, ecx
	je	SHORT $LN5@GL_UberSha
	mov	eax, DWORD PTR _g$[ebp]
	mov	ecx, DWORD PTR [eax+28]
	cmp	ecx, DWORD PTR ?tr@@3Uref_globals_t@@A+5830936
	jne	SHORT $LN5@GL_UberSha

; 1827 : 		return g->vbo.shaderNum; // valid

	mov	eax, DWORD PTR _g$[ebp]
	mov	ax, WORD PTR [eax+4]
	jmp	$LN1@GL_UberSha
$LN5@GL_UberSha:

; 1828 : 
; 1829 : 	char glname[64];
; 1830 : 	char options[MAX_OPTIONS_LENGTH];
; 1831 : 
; 1832 : 	Q_strncpy( glname, "GrassSolid", sizeof( glname ));

	push	64					; 00000040H
	push	OFFSET ??_C@_0L@ILOPFCIK@GrassSolid?$AA@
	lea	eax, DWORD PTR _glname$[ebp]
	push	eax
	call	?Q_strncpy@@YAIPADPBDI@Z		; Q_strncpy
	add	esp, 12					; 0000000cH

; 1833 : 	memset( options, 0, sizeof( options ));

	push	512					; 00000200H
	push	0
	lea	eax, DWORD PTR _options$[ebp]
	push	eax
	call	_memset
	add	esp, 12					; 0000000cH

; 1834 : 
; 1835 : 	if( R_FullBright( ))

	cmp	DWORD PTR ?r_fullbright@@3PAUcvar_s@@A, 0 ; r_fullbright
	je	SHORT $LN12@GL_UberSha
	mov	eax, DWORD PTR ?r_fullbright@@3PAUcvar_s@@A ; r_fullbright
	movss	xmm0, DWORD PTR [eax+12]
	ucomiss	xmm0, DWORD PTR __real@00000000
	lahf
	test	ah, 68					; 00000044H
	jnp	SHORT $LN12@GL_UberSha
	mov	BYTE PTR tv82[ebp], 1
	jmp	SHORT $LN13@GL_UberSha
$LN12@GL_UberSha:
	mov	BYTE PTR tv82[ebp], 0
$LN13@GL_UberSha:
	movzx	ecx, BYTE PTR tv82[ebp]
	test	ecx, ecx
	jne	SHORT $LN8@GL_UberSha
	mov	eax, DWORD PTR ?worldmodel@@3PAUmodel_s@@A ; worldmodel
	cmp	DWORD PTR [eax+380], 0
	jne	SHORT $LN6@GL_UberSha
$LN8@GL_UberSha:

; 1836 : 	{
; 1837 : 		GL_AddShaderDirective( options, "GRASS_FULLBRIGHT" );

	push	OFFSET ??_C@_0BB@JAAAEAMC@GRASS_FULLBRIGHT?$AA@
	lea	eax, DWORD PTR _options$[ebp]
	push	eax
	call	?GL_AddShaderDirective@@YAXPADPBD@Z	; GL_AddShaderDirective
	add	esp, 8

; 1838 : 	}
; 1839 : 	else

	jmp	SHORT $LN3@GL_UberSha
$LN6@GL_UberSha:

; 1840 : 	{
; 1841 : 		// process lightstyles
; 1842 : 		for( int i = 0; i < MAXLIGHTMAPS && s->styles[i] != LS_NONE; i++ )

	mov	DWORD PTR _i$1[ebp], 0
	jmp	SHORT $LN4@GL_UberSha
$LN2@GL_UberSha:
	mov	eax, DWORD PTR _i$1[ebp]
	add	eax, 1
	mov	DWORD PTR _i$1[ebp], eax
$LN4@GL_UberSha:
	cmp	DWORD PTR _i$1[ebp], 4
	jge	SHORT $LN3@GL_UberSha
	mov	eax, DWORD PTR _s$[ebp]
	add	eax, DWORD PTR _i$1[ebp]
	movzx	ecx, BYTE PTR [eax+60]
	cmp	ecx, 255				; 000000ffH
	je	SHORT $LN3@GL_UberSha

; 1843 : 			GL_AddShaderDirective( options, va( "GRASS_APPLY_STYLE%i", i ));

	mov	eax, DWORD PTR _i$1[ebp]
	push	eax
	push	OFFSET ??_C@_0BE@DIIHHDHK@GRASS_APPLY_STYLE?$CFi?$AA@
	call	?va@@YAPADPBDZZ				; va
	add	esp, 8
	push	eax
	lea	ecx, DWORD PTR _options$[ebp]
	push	ecx
	call	?GL_AddShaderDirective@@YAXPADPBD@Z	; GL_AddShaderDirective
	add	esp, 8
	jmp	SHORT $LN2@GL_UberSha
$LN3@GL_UberSha:

; 1844 : 	}
; 1845 : 
; 1846 : 	if( tr.fogEnabled )

	movzx	eax, BYTE PTR ?tr@@3Uref_globals_t@@A+5830892
	test	eax, eax
	je	SHORT $LN9@GL_UberSha

; 1847 : 		GL_AddShaderDirective( options, "GRASS_FOG_EXP" );

	push	OFFSET ??_C@_0O@FHMFIMAC@GRASS_FOG_EXP?$AA@
	lea	eax, DWORD PTR _options$[ebp]
	push	eax
	call	?GL_AddShaderDirective@@YAXPADPBD@Z	; GL_AddShaderDirective
	add	esp, 8
$LN9@GL_UberSha:

; 1848 : 
; 1849 : 	glsl_program_t *shader = GL_FindUberShader( glname, options, &GL_InitGrassSolidUniforms );

	push	OFFSET ?GL_InitGrassSolidUniforms@@YAXPAUglsl_prog_s@@@Z ; GL_InitGrassSolidUniforms
	lea	eax, DWORD PTR _options$[ebp]
	push	eax
	lea	ecx, DWORD PTR _glname$[ebp]
	push	ecx
	call	?GL_FindUberShader@@YAPAUglsl_prog_s@@PBD0P6AXPAU1@@Z@Z ; GL_FindUberShader
	add	esp, 12					; 0000000cH
	mov	DWORD PTR _shader$[ebp], eax

; 1850 : 	if( !shader )

	cmp	DWORD PTR _shader$[ebp], 0
	jne	SHORT $LN10@GL_UberSha

; 1851 : 	{
; 1852 : 		SetBits( g->vbo.flags, FGRASS_NODRAW );

	mov	eax, DWORD PTR _g$[ebp]
	movzx	ecx, WORD PTR [eax+8]
	or	ecx, 1
	mov	edx, DWORD PTR _g$[ebp]
	mov	WORD PTR [edx+8], cx

; 1853 : 		return 0; // something bad happens

	xor	eax, eax
	jmp	SHORT $LN1@GL_UberSha
$LN10@GL_UberSha:

; 1854 : 	}
; 1855 : 
; 1856 : 	g->vbo.glsl_sequence = tr.glsl_valid_sequence;

	mov	eax, DWORD PTR _g$[ebp]
	mov	ecx, DWORD PTR ?tr@@3Uref_globals_t@@A+5830936
	mov	DWORD PTR [eax+28], ecx

; 1857 : 	ClearBits( g->vbo.flags, FGRASS_NODRAW );

	mov	eax, DWORD PTR _g$[ebp]
	movzx	ecx, WORD PTR [eax+8]
	and	ecx, -2					; fffffffeH
	mov	edx, DWORD PTR _g$[ebp]
	mov	WORD PTR [edx+8], cx

; 1858 : 
; 1859 : 	return (shader - glsl_programs);

	mov	eax, DWORD PTR _shader$[ebp]
	sub	eax, OFFSET ?glsl_programs@@3PAUglsl_prog_s@@A ; glsl_programs
	cdq
	mov	ecx, 972				; 000003ccH
	idiv	ecx
$LN1@GL_UberSha:

; 1860 : }

	pop	edi
	pop	esi
	pop	ebx
	mov	ecx, DWORD PTR __$ArrayPad$[ebp]
	xor	ecx, ebp
	call	@__security_check_cookie@4
	mov	esp, ebp
	pop	ebp
	ret	0
?GL_UberShaderForGrassSolid@@YAGPAUmsurface_s@@PAUgrass_s@@@Z ENDP ; GL_UberShaderForGrassSolid
_TEXT	ENDS
; Function compile flags: /Odtp /ZI
; File d:\!diffusion 2020\source code 2022\client-server\client\render\r_shader.cpp
;	COMDAT ?GL_UberShaderForBmodelDecal@@YAGPAUdecal_s@@@Z
_TEXT	SEGMENT
tv72 = -733						; size = 1
_shaderNum$ = -604					; size = 2
_shader$ = -600						; size = 4
_i$1 = -596						; size = 4
_es$ = -592						; size = 4
_s$ = -588						; size = 4
_options$ = -584					; size = 512
_fullbright$ = -69					; size = 1
_glname$ = -68						; size = 64
__$ArrayPad$ = -4					; size = 4
_decal$ = 8						; size = 4
?GL_UberShaderForBmodelDecal@@YAGPAUdecal_s@@@Z PROC	; GL_UberShaderForBmodelDecal, COMDAT

; 1895 : {

	push	ebp
	mov	ebp, esp
	sub	esp, 736				; 000002e0H
	mov	eax, DWORD PTR ___security_cookie
	xor	eax, ebp
	mov	DWORD PTR __$ArrayPad$[ebp], eax
	push	ebx
	push	esi
	push	edi

; 1896 : 	char glname[64];
; 1897 : 	bool fullbright = R_ModelOpaque( RI->currententity->curstate.rendermode, RI->currententity->curstate.renderamt ) ? false : true;

	mov	eax, DWORD PTR ?RI@@3PAUref_instance_t@@A ; RI
	mov	ecx, DWORD PTR [eax+16]
	cmp	DWORD PTR [ecx+760], 0
	je	SHORT $LN12@GL_UberSha
	mov	edx, DWORD PTR ?RI@@3PAUref_instance_t@@A ; RI
	mov	eax, DWORD PTR [edx+16]
	cmp	DWORD PTR [eax+760], 4
	je	SHORT $LN12@GL_UberSha
	mov	BYTE PTR tv72[ebp], 1
	jmp	SHORT $LN13@GL_UberSha
$LN12@GL_UberSha:
	mov	BYTE PTR tv72[ebp], 0
$LN13@GL_UberSha:
	mov	cl, BYTE PTR tv72[ebp]
	mov	BYTE PTR _fullbright$[ebp], cl

; 1898 : 	char options[MAX_OPTIONS_LENGTH];
; 1899 : 	msurface_t *s = decal->psurface;

	mov	eax, DWORD PTR _decal$[ebp]
	mov	ecx, DWORD PTR [eax+4]
	mov	DWORD PTR _s$[ebp], ecx

; 1900 : 	mextrasurf_t *es = s->info;

	mov	eax, DWORD PTR _s$[ebp]
	mov	ecx, DWORD PTR [eax+80]
	mov	DWORD PTR _es$[ebp], ecx

; 1901 : 
; 1902 : 	ASSERT( worldmodel != NULL );

	cmp	DWORD PTR ?worldmodel@@3PAUmodel_s@@A, 0 ; worldmodel
	jne	SHORT $LN5@GL_UberSha
	mov	eax, DWORD PTR ?__LINE__Var@?0??GL_UberShaderForBmodelDecal@@YAGPAUdecal_s@@@Z@4JA
	add	eax, 7
	push	eax
	push	OFFSET ??_C@_0EN@DPFBEFBL@d?3?2?$CBdiffusion?52020?2source?5code?52@
	push	OFFSET ??_C@_0BI@FECCGOFJ@assert?5failed?5at?5?$CFs?3?$CFi?6?$AA@
	call	DWORD PTR ?gRenderfuncs@@3Urender_api_s@@A+236
	add	esp, 12					; 0000000cH
$LN5@GL_UberSha:

; 1903 : 
; 1904 : 	if( decal->shaderNum && decal->glsl_sequence == tr.glsl_valid_sequence )

	mov	eax, DWORD PTR _decal$[ebp]
	movzx	ecx, WORD PTR [eax+48]
	test	ecx, ecx
	je	SHORT $LN6@GL_UberSha
	mov	eax, DWORD PTR _decal$[ebp]
	mov	ecx, DWORD PTR [eax+44]
	cmp	ecx, DWORD PTR ?tr@@3Uref_globals_t@@A+5830936
	jne	SHORT $LN6@GL_UberSha

; 1905 : 		return decal->shaderNum; // valid

	mov	eax, DWORD PTR _decal$[ebp]
	mov	ax, WORD PTR [eax+48]
	jmp	$LN1@GL_UberSha
$LN6@GL_UberSha:

; 1906 : 
; 1907 : 	Q_strncpy( glname, "BmodelDecal", sizeof( glname ));

	push	64					; 00000040H
	push	OFFSET ??_C@_0M@FKJJKBMN@BmodelDecal?$AA@
	lea	eax, DWORD PTR _glname$[ebp]
	push	eax
	call	?Q_strncpy@@YAIPADPBDI@Z		; Q_strncpy
	add	esp, 12					; 0000000cH

; 1908 : 	memset( options, 0, sizeof( options ));

	push	512					; 00000200H
	push	0
	lea	eax, DWORD PTR _options$[ebp]
	push	eax
	call	_memset
	add	esp, 12					; 0000000cH

; 1909 : 
; 1910 : 	// process lightstyles
; 1911 : 	for( int i = 0; i < MAXLIGHTMAPS && s->styles[i] != LS_NONE && !fullbright; i++ )

	mov	DWORD PTR _i$1[ebp], 0
	jmp	SHORT $LN4@GL_UberSha
$LN2@GL_UberSha:
	mov	eax, DWORD PTR _i$1[ebp]
	add	eax, 1
	mov	DWORD PTR _i$1[ebp], eax
$LN4@GL_UberSha:
	cmp	DWORD PTR _i$1[ebp], 4
	jge	SHORT $LN3@GL_UberSha
	mov	eax, DWORD PTR _s$[ebp]
	add	eax, DWORD PTR _i$1[ebp]
	movzx	ecx, BYTE PTR [eax+60]
	cmp	ecx, 255				; 000000ffH
	je	SHORT $LN3@GL_UberSha
	movzx	eax, BYTE PTR _fullbright$[ebp]
	test	eax, eax
	jne	SHORT $LN3@GL_UberSha

; 1912 : 	{
; 1913 : 		GL_AddShaderDirective( options, va( "DECAL_APPLY_STYLE%i", i ));

	mov	eax, DWORD PTR _i$1[ebp]
	push	eax
	push	OFFSET ??_C@_0BE@GACGLFGM@DECAL_APPLY_STYLE?$CFi?$AA@
	call	?va@@YAPADPBDZZ				; va
	add	esp, 8
	push	eax
	lea	ecx, DWORD PTR _options$[ebp]
	push	ecx
	call	?GL_AddShaderDirective@@YAXPADPBD@Z	; GL_AddShaderDirective
	add	esp, 8

; 1914 : 	}

	jmp	SHORT $LN2@GL_UberSha
$LN3@GL_UberSha:

; 1915 : 
; 1916 : 	if( FBitSet( s->flags, SURF_TRANSPARENT ))

	mov	eax, DWORD PTR _s$[ebp]
	mov	ecx, DWORD PTR [eax+8]
	and	ecx, 256				; 00000100H
	je	SHORT $LN7@GL_UberSha

; 1917 : 		GL_AddShaderDirective( options, "DECAL_ALPHATEST" );

	push	OFFSET ??_C@_0BA@ONPHMGJH@DECAL_ALPHATEST?$AA@
	lea	eax, DWORD PTR _options$[ebp]
	push	eax
	call	?GL_AddShaderDirective@@YAXPADPBD@Z	; GL_AddShaderDirective
	add	esp, 8
$LN7@GL_UberSha:

; 1918 : 
; 1919 : 	if( fullbright )

	movzx	eax, BYTE PTR _fullbright$[ebp]
	test	eax, eax
	je	SHORT $LN8@GL_UberSha

; 1920 : 		GL_AddShaderDirective( options, "DECAL_FULLBRIGHT" );

	push	OFFSET ??_C@_0BB@GEGJOHBC@DECAL_FULLBRIGHT?$AA@
	lea	eax, DWORD PTR _options$[ebp]
	push	eax
	call	?GL_AddShaderDirective@@YAXPADPBD@Z	; GL_AddShaderDirective
	add	esp, 8
$LN8@GL_UberSha:

; 1921 : 
; 1922 : 	if( tr.fogEnabled )

	movzx	eax, BYTE PTR ?tr@@3Uref_globals_t@@A+5830892
	test	eax, eax
	je	SHORT $LN9@GL_UberSha

; 1923 : 		GL_AddShaderDirective( options, "DECAL_FOG_EXP" );

	push	OFFSET ??_C@_0O@CONEDAKL@DECAL_FOG_EXP?$AA@
	lea	eax, DWORD PTR _options$[ebp]
	push	eax
	call	?GL_AddShaderDirective@@YAXPADPBD@Z	; GL_AddShaderDirective
	add	esp, 8
$LN9@GL_UberSha:

; 1924 : 
; 1925 : 	glsl_program_t *shader = GL_FindUberShader( glname, options, &GL_InitBmodelDecalUniforms );

	push	OFFSET ?GL_InitBmodelDecalUniforms@@YAXPAUglsl_prog_s@@@Z ; GL_InitBmodelDecalUniforms
	lea	eax, DWORD PTR _options$[ebp]
	push	eax
	lea	ecx, DWORD PTR _glname$[ebp]
	push	ecx
	call	?GL_FindUberShader@@YAPAUglsl_prog_s@@PBD0P6AXPAU1@@Z@Z ; GL_FindUberShader
	add	esp, 12					; 0000000cH
	mov	DWORD PTR _shader$[ebp], eax

; 1926 : 	if( !shader ) return 0; // something bad happens

	cmp	DWORD PTR _shader$[ebp], 0
	jne	SHORT $LN10@GL_UberSha
	xor	eax, eax
	jmp	SHORT $LN1@GL_UberSha
$LN10@GL_UberSha:

; 1927 : 
; 1928 : 	word shaderNum = (shader - glsl_programs);

	mov	eax, DWORD PTR _shader$[ebp]
	sub	eax, OFFSET ?glsl_programs@@3PAUglsl_prog_s@@A ; glsl_programs
	cdq
	mov	ecx, 972				; 000003ccH
	idiv	ecx
	mov	WORD PTR _shaderNum$[ebp], ax

; 1929 : 	decal->glsl_sequence = tr.glsl_valid_sequence;

	mov	eax, DWORD PTR _decal$[ebp]
	mov	ecx, DWORD PTR ?tr@@3Uref_globals_t@@A+5830936
	mov	DWORD PTR [eax+44], ecx

; 1930 : 	decal->shaderNum = shaderNum;

	mov	eax, DWORD PTR _decal$[ebp]
	mov	cx, WORD PTR _shaderNum$[ebp]
	mov	WORD PTR [eax+48], cx

; 1931 : 
; 1932 : 	return shaderNum;

	mov	ax, WORD PTR _shaderNum$[ebp]
$LN1@GL_UberSha:

; 1933 : }

	pop	edi
	pop	esi
	pop	ebx
	mov	ecx, DWORD PTR __$ArrayPad$[ebp]
	xor	ecx, ebp
	call	@__security_check_cookie@4
	mov	esp, ebp
	pop	ebp
	ret	0
?GL_UberShaderForBmodelDecal@@YAGPAUdecal_s@@@Z ENDP	; GL_UberShaderForBmodelDecal
_TEXT	ENDS
; Function compile flags: /Odtp /ZI
; File d:\!diffusion 2020\source code 2022\client-server\client\render\r_shader.cpp
;	COMDAT ?GL_UberShaderForBmodelDlight@@YAGPBUplight_s@@PAUmsurface_s@@_N@Z
_TEXT	SEGMENT
tv300 = -737						; size = 1
tv213 = -737						; size = 1
tv205 = -737						; size = 1
tv197 = -737						; size = 1
tv189 = -737						; size = 1
tv178 = -737						; size = 1
tv67 = -737						; size = 1
_shaderNum$ = -608					; size = 2
_shader$ = -604						; size = 4
_tx$ = -600						; size = 4
_landscape$ = -596					; size = 4
_portalSurface$ = -590					; size = 1
_mirrorSurface$ = -589					; size = 1
_es$ = -588						; size = 4
_options$ = -584					; size = 512
_glname$ = -72						; size = 64
_shadows$ = -5						; size = 1
__$ArrayPad$ = -4					; size = 4
_pl$ = 8						; size = 4
_s$ = 12						; size = 4
_translucent$ = 16					; size = 1
?GL_UberShaderForBmodelDlight@@YAGPBUplight_s@@PAUmsurface_s@@_N@Z PROC ; GL_UberShaderForBmodelDlight, COMDAT

; 1688 : {

	push	ebp
	mov	ebp, esp
	sub	esp, 740				; 000002e4H
	mov	eax, DWORD PTR ___security_cookie
	xor	eax, ebp
	mov	DWORD PTR __$ArrayPad$[ebp], eax
	push	ebx
	push	esi
	push	edi

; 1689 : 	bool shadows = (!FBitSet( pl->flags, CF_NOSHADOWS )) ? true : false;

	mov	eax, DWORD PTR _pl$[ebp]
	mov	ecx, DWORD PTR [eax+744]
	and	ecx, 1024				; 00000400H
	jne	SHORT $LN29@GL_UberSha
	mov	BYTE PTR tv67[ebp], 1
	jmp	SHORT $LN30@GL_UberSha
$LN29@GL_UberSha:
	mov	BYTE PTR tv67[ebp], 0
$LN30@GL_UberSha:
	mov	dl, BYTE PTR tv67[ebp]
	mov	BYTE PTR _shadows$[ebp], dl

; 1690 : 	char glname[64];
; 1691 : 	char options[MAX_OPTIONS_LENGTH];
; 1692 : 	mextrasurf_t *es = s->info;

	mov	eax, DWORD PTR _s$[ebp]
	mov	ecx, DWORD PTR [eax+80]
	mov	DWORD PTR _es$[ebp], ecx

; 1693 : 	bool mirrorSurface = false;

	mov	BYTE PTR _mirrorSurface$[ebp], 0

; 1694 : 	bool portalSurface = false;

	mov	BYTE PTR _portalSurface$[ebp], 0

; 1695 : 	mfaceinfo_t *landscape = NULL;

	mov	DWORD PTR _landscape$[ebp], 0

; 1696 : 	
; 1697 : 	Q_strncpy( glname, "BmodelDlight", sizeof( glname ));

	push	64					; 00000040H
	push	OFFSET ??_C@_0N@OBABCFDH@BmodelDlight?$AA@
	lea	eax, DWORD PTR _glname$[ebp]
	push	eax
	call	?Q_strncpy@@YAIPADPBDI@Z		; Q_strncpy
	add	esp, 12					; 0000000cH

; 1698 : 
; 1699 : 	memset( options, 0, sizeof( options ));

	push	512					; 00000200H
	push	0
	lea	eax, DWORD PTR _options$[ebp]
	push	eax
	call	_memset
	add	esp, 12					; 0000000cH

; 1700 : 
; 1701 : 	landscape = s->texinfo->faceinfo;

	mov	eax, DWORD PTR _s$[ebp]
	mov	ecx, DWORD PTR [eax+44]
	mov	edx, DWORD PTR [ecx+32]
	mov	DWORD PTR _landscape$[ebp], edx

; 1702 : 
; 1703 : 	if( pl->pointlight )

	mov	eax, DWORD PTR _pl$[ebp]
	movzx	ecx, BYTE PTR [eax+44]
	test	ecx, ecx
	je	SHORT $LN2@GL_UberSha

; 1704 : 	{
; 1705 : 		if( es->omniLightShaderNum[shadows] && es->glsl_sequence_omni[shadows] == tr.glsl_valid_sequence )

	movzx	eax, BYTE PTR _shadows$[ebp]
	mov	ecx, DWORD PTR _es$[ebp]
	movzx	edx, WORD PTR [ecx+eax*2+170]
	test	edx, edx
	je	SHORT $LN4@GL_UberSha
	movzx	eax, BYTE PTR _shadows$[ebp]
	mov	ecx, DWORD PTR _es$[ebp]
	movzx	edx, WORD PTR [ecx+eax*2+182]
	cmp	edx, DWORD PTR ?tr@@3Uref_globals_t@@A+5830936
	jne	SHORT $LN4@GL_UberSha

; 1706 : 			return es->omniLightShaderNum[shadows]; // valid

	movzx	eax, BYTE PTR _shadows$[ebp]
	mov	ecx, DWORD PTR _es$[ebp]
	mov	ax, WORD PTR [ecx+eax*2+170]
	jmp	$LN1@GL_UberSha
$LN4@GL_UberSha:

; 1707 : 
; 1708 : 		GL_AddShaderDirective( options, "BMODEL_LIGHT_OMNIDIRECTIONAL" );

	push	OFFSET ??_C@_0BN@NCPGFLCG@BMODEL_LIGHT_OMNIDIRECTIONAL?$AA@
	lea	eax, DWORD PTR _options$[ebp]
	push	eax
	call	?GL_AddShaderDirective@@YAXPADPBD@Z	; GL_AddShaderDirective
	add	esp, 8

; 1709 : 	}
; 1710 : 	else

	jmp	SHORT $LN3@GL_UberSha
$LN2@GL_UberSha:

; 1711 : 	{
; 1712 : 		if( es->projLightShaderNum[shadows] && es->glsl_sequence_proj[shadows] == tr.glsl_valid_sequence )

	movzx	eax, BYTE PTR _shadows$[ebp]
	mov	ecx, DWORD PTR _es$[ebp]
	movzx	edx, WORD PTR [ecx+eax*2+174]
	test	edx, edx
	je	SHORT $LN5@GL_UberSha
	movzx	eax, BYTE PTR _shadows$[ebp]
	mov	ecx, DWORD PTR _es$[ebp]
	movzx	edx, WORD PTR [ecx+eax*2+186]
	cmp	edx, DWORD PTR ?tr@@3Uref_globals_t@@A+5830936
	jne	SHORT $LN5@GL_UberSha

; 1713 : 			return es->projLightShaderNum[shadows]; // valid

	movzx	eax, BYTE PTR _shadows$[ebp]
	mov	ecx, DWORD PTR _es$[ebp]
	mov	ax, WORD PTR [ecx+eax*2+174]
	jmp	$LN1@GL_UberSha
$LN5@GL_UberSha:

; 1714 : 		GL_AddShaderDirective( options, "BMODEL_LIGHT_PROJECTION" );

	push	OFFSET ??_C@_0BI@FOFDPJGA@BMODEL_LIGHT_PROJECTION?$AA@
	lea	eax, DWORD PTR _options$[ebp]
	push	eax
	call	?GL_AddShaderDirective@@YAXPADPBD@Z	; GL_AddShaderDirective
	add	esp, 8
$LN3@GL_UberSha:

; 1715 : 	}
; 1716 : 
; 1717 : 	texture_t *tx = s->texinfo->texture;

	mov	eax, DWORD PTR _s$[ebp]
	mov	ecx, DWORD PTR [eax+44]
	mov	edx, DWORD PTR [ecx+36]
	mov	DWORD PTR _tx$[ebp], edx

; 1718 : 
; 1719 : 	if( FBitSet( s->flags, SURF_LANDSCAPE ) && landscape && landscape->terrain )

	mov	eax, DWORD PTR _s$[ebp]
	mov	ecx, DWORD PTR [eax+8]
	and	ecx, 8192				; 00002000H
	je	$LN6@GL_UberSha
	cmp	DWORD PTR _landscape$[ebp], 0
	je	$LN6@GL_UberSha
	mov	eax, DWORD PTR _landscape$[ebp]
	cmp	DWORD PTR [eax+48], 0
	je	$LN6@GL_UberSha

; 1720 : 	{
; 1721 : 		if( landscape->terrain->layermap.gl_diffuse_id != 0 )

	mov	eax, DWORD PTR _landscape$[ebp]
	mov	ecx, DWORD PTR [eax+48]
	movzx	edx, WORD PTR [ecx+2208]
	test	edx, edx
	je	SHORT $LN8@GL_UberSha

; 1722 : 		{
; 1723 : 			GL_AddShaderDirective( options, va( "TERRAIN_NUM_LAYERS %i", landscape->terrain->numLayers ));

	mov	eax, DWORD PTR _landscape$[ebp]
	mov	ecx, DWORD PTR [eax+48]
	mov	edx, DWORD PTR [ecx+2472]
	push	edx
	push	OFFSET ??_C@_0BG@EHIGMOPN@TERRAIN_NUM_LAYERS?5?$CFi?$AA@
	call	?va@@YAPADPBDZZ				; va
	add	esp, 8
	push	eax
	lea	eax, DWORD PTR _options$[ebp]
	push	eax
	call	?GL_AddShaderDirective@@YAXPADPBD@Z	; GL_AddShaderDirective
	add	esp, 8

; 1724 : 			GL_AddShaderDirective( options, "BMODEL_MULTI_LAYERS" );

	push	OFFSET ??_C@_0BE@FBBOMMAP@BMODEL_MULTI_LAYERS?$AA@
	lea	eax, DWORD PTR _options$[ebp]
	push	eax
	call	?GL_AddShaderDirective@@YAXPADPBD@Z	; GL_AddShaderDirective
	add	esp, 8
$LN8@GL_UberSha:

; 1725 : 		}
; 1726 : 
; 1727 : 		if( landscape->terrain->indexmap.gl_diffuse_id != 0 && CVAR_TO_BOOL( r_detailtextures ))

	mov	eax, DWORD PTR _landscape$[ebp]
	mov	ecx, DWORD PTR [eax+48]
	movzx	edx, WORD PTR [ecx+144]
	test	edx, edx
	je	SHORT $LN9@GL_UberSha
	cmp	DWORD PTR ?r_detailtextures@@3PAUcvar_s@@A, 0 ; r_detailtextures
	je	SHORT $LN31@GL_UberSha
	mov	eax, DWORD PTR ?r_detailtextures@@3PAUcvar_s@@A ; r_detailtextures
	movss	xmm0, DWORD PTR [eax+12]
	ucomiss	xmm0, DWORD PTR __real@00000000
	lahf
	test	ah, 68					; 00000044H
	jnp	SHORT $LN31@GL_UberSha
	mov	BYTE PTR tv178[ebp], 1
	jmp	SHORT $LN32@GL_UberSha
$LN31@GL_UberSha:
	mov	BYTE PTR tv178[ebp], 0
$LN32@GL_UberSha:
	movzx	ecx, BYTE PTR tv178[ebp]
	test	ecx, ecx
	je	SHORT $LN9@GL_UberSha

; 1728 : 			GL_AddShaderDirective( options, "BMODEL_HAS_DETAIL" );

	push	OFFSET ??_C@_0BC@NMNDDEJF@BMODEL_HAS_DETAIL?$AA@
	lea	eax, DWORD PTR _options$[ebp]
	push	eax
	call	?GL_AddShaderDirective@@YAXPADPBD@Z	; GL_AddShaderDirective
	add	esp, 8
$LN9@GL_UberSha:

; 1729 : 	}
; 1730 : 	else

	jmp	SHORT $LN10@GL_UberSha
$LN6@GL_UberSha:

; 1731 : 	{
; 1732 : 		if( tx->dt_texturenum != 0 && CVAR_TO_BOOL( r_detailtextures ))

	mov	eax, DWORD PTR _tx$[ebp]
	movzx	ecx, WORD PTR [eax+54]
	test	ecx, ecx
	je	SHORT $LN10@GL_UberSha
	cmp	DWORD PTR ?r_detailtextures@@3PAUcvar_s@@A, 0 ; r_detailtextures
	je	SHORT $LN33@GL_UberSha
	mov	eax, DWORD PTR ?r_detailtextures@@3PAUcvar_s@@A ; r_detailtextures
	movss	xmm0, DWORD PTR [eax+12]
	ucomiss	xmm0, DWORD PTR __real@00000000
	lahf
	test	ah, 68					; 00000044H
	jnp	SHORT $LN33@GL_UberSha
	mov	BYTE PTR tv189[ebp], 1
	jmp	SHORT $LN34@GL_UberSha
$LN33@GL_UberSha:
	mov	BYTE PTR tv189[ebp], 0
$LN34@GL_UberSha:
	movzx	ecx, BYTE PTR tv189[ebp]
	test	ecx, ecx
	je	SHORT $LN10@GL_UberSha

; 1733 : 			GL_AddShaderDirective( options, "BMODEL_HAS_DETAIL" );

	push	OFFSET ??_C@_0BC@NMNDDEJF@BMODEL_HAS_DETAIL?$AA@
	lea	eax, DWORD PTR _options$[ebp]
	push	eax
	call	?GL_AddShaderDirective@@YAXPADPBD@Z	; GL_AddShaderDirective
	add	esp, 8
$LN10@GL_UberSha:

; 1734 : 	}
; 1735 : 
; 1736 : 	if( CVAR_TO_BOOL( gl_emboss ) )

	cmp	DWORD PTR ?gl_emboss@@3PAUcvar_s@@A, 0	; gl_emboss
	je	SHORT $LN35@GL_UberSha
	mov	eax, DWORD PTR ?gl_emboss@@3PAUcvar_s@@A ; gl_emboss
	movss	xmm0, DWORD PTR [eax+12]
	ucomiss	xmm0, DWORD PTR __real@00000000
	lahf
	test	ah, 68					; 00000044H
	jnp	SHORT $LN35@GL_UberSha
	mov	BYTE PTR tv197[ebp], 1
	jmp	SHORT $LN36@GL_UberSha
$LN35@GL_UberSha:
	mov	BYTE PTR tv197[ebp], 0
$LN36@GL_UberSha:
	movzx	ecx, BYTE PTR tv197[ebp]
	test	ecx, ecx
	je	SHORT $LN11@GL_UberSha

; 1737 : 		GL_AddShaderDirective( options, "BMODEL_EMBOSS" );

	push	OFFSET ??_C@_0O@CHLKEFJA@BMODEL_EMBOSS?$AA@
	lea	eax, DWORD PTR _options$[ebp]
	push	eax
	call	?GL_AddShaderDirective@@YAXPADPBD@Z	; GL_AddShaderDirective
	add	esp, 8
$LN11@GL_UberSha:

; 1738 : 
; 1739 : 	if( CVAR_TO_BOOL( gl_specular ) )

	cmp	DWORD PTR ?gl_specular@@3PAUcvar_s@@A, 0 ; gl_specular
	je	SHORT $LN37@GL_UberSha
	mov	eax, DWORD PTR ?gl_specular@@3PAUcvar_s@@A ; gl_specular
	movss	xmm0, DWORD PTR [eax+12]
	ucomiss	xmm0, DWORD PTR __real@00000000
	lahf
	test	ah, 68					; 00000044H
	jnp	SHORT $LN37@GL_UberSha
	mov	BYTE PTR tv205[ebp], 1
	jmp	SHORT $LN38@GL_UberSha
$LN37@GL_UberSha:
	mov	BYTE PTR tv205[ebp], 0
$LN38@GL_UberSha:
	movzx	ecx, BYTE PTR tv205[ebp]
	test	ecx, ecx
	je	SHORT $LN12@GL_UberSha

; 1740 : 		GL_AddShaderDirective( options, "BMODEL_SPECULAR" );

	push	OFFSET ??_C@_0BA@IDBJJDAD@BMODEL_SPECULAR?$AA@
	lea	eax, DWORD PTR _options$[ebp]
	push	eax
	call	?GL_AddShaderDirective@@YAXPADPBD@Z	; GL_AddShaderDirective
	add	esp, 8
$LN12@GL_UberSha:

; 1741 : 
; 1742 : 	if( CVAR_TO_BOOL( gl_bump ) )

	cmp	DWORD PTR ?gl_bump@@3PAUcvar_s@@A, 0	; gl_bump
	je	SHORT $LN39@GL_UberSha
	mov	eax, DWORD PTR ?gl_bump@@3PAUcvar_s@@A	; gl_bump
	movss	xmm0, DWORD PTR [eax+12]
	ucomiss	xmm0, DWORD PTR __real@00000000
	lahf
	test	ah, 68					; 00000044H
	jnp	SHORT $LN39@GL_UberSha
	mov	BYTE PTR tv213[ebp], 1
	jmp	SHORT $LN40@GL_UberSha
$LN39@GL_UberSha:
	mov	BYTE PTR tv213[ebp], 0
$LN40@GL_UberSha:
	movzx	ecx, BYTE PTR tv213[ebp]
	test	ecx, ecx
	je	$LN16@GL_UberSha

; 1743 : 	{
; 1744 : 		if( FBitSet( s->flags, SURF_LANDSCAPE ) && landscape && landscape->terrain && landscape->terrain->layermap.gl_normalmap_id != 0 )

	mov	eax, DWORD PTR _s$[ebp]
	mov	ecx, DWORD PTR [eax+8]
	and	ecx, 8192				; 00002000H
	je	SHORT $LN14@GL_UberSha
	cmp	DWORD PTR _landscape$[ebp], 0
	je	SHORT $LN14@GL_UberSha
	mov	eax, DWORD PTR _landscape$[ebp]
	cmp	DWORD PTR [eax+48], 0
	je	SHORT $LN14@GL_UberSha
	mov	eax, DWORD PTR _landscape$[ebp]
	mov	ecx, DWORD PTR [eax+48]
	movzx	edx, WORD PTR [ecx+2212]
	test	edx, edx
	je	SHORT $LN14@GL_UberSha

; 1745 : 		{
; 1746 : 			GL_AddShaderDirective( options, "BMODEL_BUMP" );

	push	OFFSET ??_C@_0M@KKHGJEOJ@BMODEL_BUMP?$AA@
	lea	eax, DWORD PTR _options$[ebp]
	push	eax
	call	?GL_AddShaderDirective@@YAXPADPBD@Z	; GL_AddShaderDirective
	add	esp, 8

; 1747 : 			GL_EncodeNormal( options, landscape->terrain->layermap.gl_normalmap_id );

	mov	eax, DWORD PTR _landscape$[ebp]
	mov	ecx, DWORD PTR [eax+48]
	movzx	edx, WORD PTR [ecx+2212]
	push	edx
	lea	eax, DWORD PTR _options$[ebp]
	push	eax
	call	?GL_EncodeNormal@@YAXPADH@Z		; GL_EncodeNormal
	add	esp, 8
	jmp	SHORT $LN16@GL_UberSha
$LN14@GL_UberSha:

; 1748 : 		}
; 1749 : 		else if( tr.materials[tx->gl_texturenum].gl_normalmap_id > 0 )

	mov	eax, DWORD PTR _tx$[ebp]
	imul	ecx, DWORD PTR [eax+24], 196
	movzx	edx, WORD PTR ?tr@@3Uref_globals_t@@A[ecx+5885528]
	test	edx, edx
	jle	SHORT $LN16@GL_UberSha

; 1750 : 		{
; 1751 : 			GL_AddShaderDirective( options, "BMODEL_BUMP" );

	push	OFFSET ??_C@_0M@KKHGJEOJ@BMODEL_BUMP?$AA@
	lea	eax, DWORD PTR _options$[ebp]
	push	eax
	call	?GL_AddShaderDirective@@YAXPADPBD@Z	; GL_AddShaderDirective
	add	esp, 8

; 1752 : 			GL_EncodeNormal( options, tr.materials[tx->gl_texturenum].gl_normalmap_id );

	mov	eax, DWORD PTR _tx$[ebp]
	imul	ecx, DWORD PTR [eax+24], 196
	movzx	edx, WORD PTR ?tr@@3Uref_globals_t@@A[ecx+5885528]
	push	edx
	lea	eax, DWORD PTR _options$[ebp]
	push	eax
	call	?GL_EncodeNormal@@YAXPADH@Z		; GL_EncodeNormal
	add	esp, 8
$LN16@GL_UberSha:

; 1753 : 		}
; 1754 : 	}
; 1755 : 
; 1756 : 	if( tr.fogEnabled )

	movzx	eax, BYTE PTR ?tr@@3Uref_globals_t@@A+5830892
	test	eax, eax
	je	SHORT $LN17@GL_UberSha

; 1757 : 		GL_AddShaderDirective( options, "BMODEL_FOG_EXP" );

	push	OFFSET ??_C@_0P@BKIJIDAM@BMODEL_FOG_EXP?$AA@
	lea	eax, DWORD PTR _options$[ebp]
	push	eax
	call	?GL_AddShaderDirective@@YAXPADPBD@Z	; GL_AddShaderDirective
	add	esp, 8
$LN17@GL_UberSha:

; 1758 : #if 0
; 1759 : 	// can't properly draw for beams particles through glass. g-cont
; 1760 : 	// disabled for now
; 1761 : 	if( translucent )
; 1762 : 		GL_AddShaderDirective( options, "BMODEL_TRANSLUCENT" );
; 1763 : #endif
; 1764 : 
; 1765 : 	// diffusion - don't light up glass too much
; 1766 : 	if( RI->currententity && RI->currententity->curstate.rendermode == kRenderTransTexture )

	mov	eax, DWORD PTR ?RI@@3PAUref_instance_t@@A ; RI
	cmp	DWORD PTR [eax+16], 0
	je	SHORT $LN18@GL_UberSha
	mov	eax, DWORD PTR ?RI@@3PAUref_instance_t@@A ; RI
	mov	ecx, DWORD PTR [eax+16]
	cmp	DWORD PTR [ecx+760], 2
	jne	SHORT $LN18@GL_UberSha

; 1767 : 		GL_AddShaderDirective( options, "BMODEL_KRENDERTRANSTEXTURE" );

	push	OFFSET ??_C@_0BL@JGLDHOH@BMODEL_KRENDERTRANSTEXTURE?$AA@
	lea	eax, DWORD PTR _options$[ebp]
	push	eax
	call	?GL_AddShaderDirective@@YAXPADPBD@Z	; GL_AddShaderDirective
	add	esp, 8
$LN18@GL_UberSha:

; 1768 : 
; 1769 : 	if( FBitSet( s->flags, SURF_WATER ))

	mov	eax, DWORD PTR _s$[ebp]
	mov	ecx, DWORD PTR [eax+8]
	and	ecx, 16					; 00000010H
	je	$LN21@GL_UberSha

; 1770 : 	{
; 1771 : 		GL_AddShaderDirective( options, "BMODEL_WATER" );

	push	OFFSET ??_C@_0N@KAHGMIHK@BMODEL_WATER?$AA@
	lea	eax, DWORD PTR _options$[ebp]
	push	eax
	call	?GL_AddShaderDirective@@YAXPADPBD@Z	; GL_AddShaderDirective
	add	esp, 8

; 1772 : 
; 1773 : 		if( RI->currententity && RI->currententity->curstate.scale)

	mov	eax, DWORD PTR ?RI@@3PAUref_instance_t@@A ; RI
	cmp	DWORD PTR [eax+16], 0
	je	SHORT $LN20@GL_UberSha
	mov	eax, DWORD PTR ?RI@@3PAUref_instance_t@@A ; RI
	mov	ecx, DWORD PTR [eax+16]
	movss	xmm0, DWORD PTR [ecx+752]
	ucomiss	xmm0, DWORD PTR __real@00000000
	lahf
	test	ah, 68					; 00000044H
	jnp	SHORT $LN20@GL_UberSha

; 1774 : 			GL_AddShaderDirective( options, "BMODEL_WAVEHEIGHT" );

	push	OFFSET ??_C@_0BC@LPFDPIMB@BMODEL_WAVEHEIGHT?$AA@
	lea	eax, DWORD PTR _options$[ebp]
	push	eax
	call	?GL_AddShaderDirective@@YAXPADPBD@Z	; GL_AddShaderDirective
	add	esp, 8
$LN20@GL_UberSha:

; 1775 : 
; 1776 : 		if( RI->currententity && (gl_water_refraction->value > 0) && (RI->currententity->curstate.renderfx != kRenderFxNoRefraction) )

	mov	eax, DWORD PTR ?RI@@3PAUref_instance_t@@A ; RI
	cmp	DWORD PTR [eax+16], 0
	je	SHORT $LN21@GL_UberSha
	mov	eax, DWORD PTR ?gl_water_refraction@@3PAUcvar_s@@A ; gl_water_refraction
	movss	xmm0, DWORD PTR [eax+12]
	comiss	xmm0, DWORD PTR __real@00000000
	jbe	SHORT $LN21@GL_UberSha
	mov	eax, DWORD PTR ?RI@@3PAUref_instance_t@@A ; RI
	mov	ecx, DWORD PTR [eax+16]
	cmp	DWORD PTR [ecx+772], 28			; 0000001cH
	je	SHORT $LN21@GL_UberSha

; 1777 : 		{
; 1778 : 			GL_AddShaderDirective( options, "BMODEL_WATER_REFRACTION" );

	push	OFFSET ??_C@_0BI@KHDHCKHO@BMODEL_WATER_REFRACTION?$AA@
	lea	eax, DWORD PTR _options$[ebp]
	push	eax
	call	?GL_AddShaderDirective@@YAXPADPBD@Z	; GL_AddShaderDirective
	add	esp, 8

; 1779 : 			GL_EncodeNormal( options, tr.waterTextures[0] );

	mov	eax, 4
	imul	ecx, eax, 0
	mov	edx, DWORD PTR ?tr@@3Uref_globals_t@@A[ecx+5748]
	push	edx
	lea	eax, DWORD PTR _options$[ebp]
	push	eax
	call	?GL_EncodeNormal@@YAXPADH@Z		; GL_EncodeNormal
	add	esp, 8
$LN21@GL_UberSha:

; 1780 : 		}
; 1781 : 	}
; 1782 : 
; 1783 : 	if( tr.materials[tx->gl_texturenum].gl_interiormap_id > 0 )

	mov	eax, DWORD PTR _tx$[ebp]
	imul	ecx, DWORD PTR [eax+24], 196
	movzx	edx, WORD PTR ?tr@@3Uref_globals_t@@A[ecx+5885504]
	test	edx, edx
	jle	SHORT $LN22@GL_UberSha

; 1784 : 		GL_AddShaderDirective( options, "BMODEL_INTERIOR" );

	push	OFFSET ??_C@_0BA@ELFGANLK@BMODEL_INTERIOR?$AA@
	lea	eax, DWORD PTR _options$[ebp]
	push	eax
	call	?GL_AddShaderDirective@@YAXPADPBD@Z	; GL_AddShaderDirective
	add	esp, 8
$LN22@GL_UberSha:

; 1785 : 
; 1786 : 	if( CVAR_TO_BOOL( r_shadows ) && !tr.shadows_notsupport )

	cmp	DWORD PTR ?r_shadows@@3PAUcvar_s@@A, 0	; r_shadows
	je	SHORT $LN41@GL_UberSha
	mov	eax, DWORD PTR ?r_shadows@@3PAUcvar_s@@A ; r_shadows
	movss	xmm0, DWORD PTR [eax+12]
	ucomiss	xmm0, DWORD PTR __real@00000000
	lahf
	test	ah, 68					; 00000044H
	jnp	SHORT $LN41@GL_UberSha
	mov	BYTE PTR tv300[ebp], 1
	jmp	SHORT $LN42@GL_UberSha
$LN41@GL_UberSha:
	mov	BYTE PTR tv300[ebp], 0
$LN42@GL_UberSha:
	movzx	ecx, BYTE PTR tv300[ebp]
	test	ecx, ecx
	je	SHORT $LN24@GL_UberSha
	movzx	eax, BYTE PTR ?tr@@3Uref_globals_t@@A+5830934
	test	eax, eax
	jne	SHORT $LN24@GL_UberSha

; 1787 : 	{
; 1788 : 		if( !FBitSet( pl->flags, CF_NOSHADOWS ) )

	mov	eax, DWORD PTR _pl$[ebp]
	mov	ecx, DWORD PTR [eax+744]
	and	ecx, 1024				; 00000400H
	jne	SHORT $LN24@GL_UberSha

; 1789 : 			GL_AddShaderDirective( options, "BMODEL_HAS_SHADOWS" );

	push	OFFSET ??_C@_0BD@KIGFOMIP@BMODEL_HAS_SHADOWS?$AA@
	lea	eax, DWORD PTR _options$[ebp]
	push	eax
	call	?GL_AddShaderDirective@@YAXPADPBD@Z	; GL_AddShaderDirective
	add	esp, 8
$LN24@GL_UberSha:

; 1790 : 	}
; 1791 : 
; 1792 : 	glsl_program_t *shader = GL_FindUberShader( glname, options, &GL_InitBmodelDlightUniforms );

	push	OFFSET ?GL_InitBmodelDlightUniforms@@YAXPAUglsl_prog_s@@@Z ; GL_InitBmodelDlightUniforms
	lea	eax, DWORD PTR _options$[ebp]
	push	eax
	lea	ecx, DWORD PTR _glname$[ebp]
	push	ecx
	call	?GL_FindUberShader@@YAPAUglsl_prog_s@@PBD0P6AXPAU1@@Z@Z ; GL_FindUberShader
	add	esp, 12					; 0000000cH
	mov	DWORD PTR _shader$[ebp], eax

; 1793 : 	if( !shader )

	cmp	DWORD PTR _shader$[ebp], 0
	jne	SHORT $LN25@GL_UberSha

; 1794 : 	{
; 1795 : 		SetBits( s->flags, SURF_NODLIGHT );

	mov	eax, DWORD PTR _s$[ebp]
	mov	ecx, DWORD PTR [eax+8]
	or	ecx, 32768				; 00008000H
	mov	edx, DWORD PTR _s$[ebp]
	mov	DWORD PTR [edx+8], ecx

; 1796 : 		return 0; // something bad happens

	xor	eax, eax
	jmp	$LN1@GL_UberSha
$LN25@GL_UberSha:

; 1797 : 	}
; 1798 : 
; 1799 : 	word shaderNum = (shader - glsl_programs);

	mov	eax, DWORD PTR _shader$[ebp]
	sub	eax, OFFSET ?glsl_programs@@3PAUglsl_prog_s@@A ; glsl_programs
	cdq
	mov	ecx, 972				; 000003ccH
	idiv	ecx
	mov	WORD PTR _shaderNum$[ebp], ax

; 1800 : 
; 1801 : #if 0
; 1802 : 	// can't properly draw for beams particles through glass. g-cont
; 1803 : 	// disabled for now
; 1804 : 	if( translucent )
; 1805 : 		SetBits( shader->status, SHADER_USE_SCREENCOPY );
; 1806 : #endif
; 1807 : 	// done
; 1808 : 	ClearBits( s->flags, SURF_NODLIGHT );

	mov	eax, DWORD PTR _s$[ebp]
	mov	ecx, DWORD PTR [eax+8]
	and	ecx, -32769				; ffff7fffH
	mov	edx, DWORD PTR _s$[ebp]
	mov	DWORD PTR [edx+8], ecx

; 1809 : 
; 1810 : 	if( pl->pointlight )

	mov	eax, DWORD PTR _pl$[ebp]
	movzx	ecx, BYTE PTR [eax+44]
	test	ecx, ecx
	je	SHORT $LN26@GL_UberSha

; 1811 : 	{
; 1812 : 		es->omniLightShaderNum[shadows] = shaderNum;

	movzx	eax, BYTE PTR _shadows$[ebp]
	mov	ecx, DWORD PTR _es$[ebp]
	mov	dx, WORD PTR _shaderNum$[ebp]
	mov	WORD PTR [ecx+eax*2+170], dx

; 1813 : 		es->glsl_sequence_omni[shadows] = tr.glsl_valid_sequence;

	movzx	eax, BYTE PTR _shadows$[ebp]
	mov	ecx, DWORD PTR _es$[ebp]
	mov	dx, WORD PTR ?tr@@3Uref_globals_t@@A+5830936
	mov	WORD PTR [ecx+eax*2+182], dx

; 1814 : 	}
; 1815 : 	else

	jmp	SHORT $LN27@GL_UberSha
$LN26@GL_UberSha:

; 1816 : 	{
; 1817 : 		es->projLightShaderNum[shadows] = shaderNum;

	movzx	eax, BYTE PTR _shadows$[ebp]
	mov	ecx, DWORD PTR _es$[ebp]
	mov	dx, WORD PTR _shaderNum$[ebp]
	mov	WORD PTR [ecx+eax*2+174], dx

; 1818 : 		es->glsl_sequence_proj[shadows] = tr.glsl_valid_sequence;

	movzx	eax, BYTE PTR _shadows$[ebp]
	mov	ecx, DWORD PTR _es$[ebp]
	mov	dx, WORD PTR ?tr@@3Uref_globals_t@@A+5830936
	mov	WORD PTR [ecx+eax*2+186], dx
$LN27@GL_UberSha:

; 1819 : 	}
; 1820 : 
; 1821 : 	return shaderNum;

	mov	ax, WORD PTR _shaderNum$[ebp]
$LN1@GL_UberSha:

; 1822 : }

	pop	edi
	pop	esi
	pop	ebx
	mov	ecx, DWORD PTR __$ArrayPad$[ebp]
	xor	ecx, ebp
	call	@__security_check_cookie@4
	mov	esp, ebp
	pop	ebp
	ret	0
?GL_UberShaderForBmodelDlight@@YAGPBUplight_s@@PAUmsurface_s@@_N@Z ENDP ; GL_UberShaderForBmodelDlight
_TEXT	ENDS
; Function compile flags: /Odtp /ZI
; File d:\!diffusion 2020\source code 2022\client-server\client\render\r_shader.cpp
;	COMDAT ?GL_UberShaderForSolidBmodel@@YAGPAUmsurface_s@@_N@Z
_TEXT	SEGMENT
tv413 = -737						; size = 1
tv402 = -737						; size = 1
tv356 = -737						; size = 1
tv277 = -737						; size = 1
tv269 = -737						; size = 1
tv261 = -737						; size = 1
tv207 = -737						; size = 1
tv174 = -737						; size = 1
tv163 = -737						; size = 1
tv155 = -737						; size = 1
_shaderNum$ = -608					; size = 2
_shader$ = -604						; size = 4
_i$1 = -600						; size = 4
_tx$ = -596						; size = 4
_using_cubemaps$ = -592					; size = 1
_portal$ = -591						; size = 1
_mirror$ = -590						; size = 1
_fullBright$ = -589					; size = 1
_es$ = -588						; size = 4
_landscape$ = -584					; size = 4
_options$ = -580					; size = 512
_glname$ = -68						; size = 64
__$ArrayPad$ = -4					; size = 4
_s$ = 8							; size = 4
_translucent$ = 12					; size = 1
?GL_UberShaderForSolidBmodel@@YAGPAUmsurface_s@@_N@Z PROC ; GL_UberShaderForSolidBmodel, COMDAT

; 1496 : {

	push	ebp
	mov	ebp, esp
	sub	esp, 740				; 000002e4H
	mov	eax, DWORD PTR ___security_cookie
	xor	eax, ebp
	mov	DWORD PTR __$ArrayPad$[ebp], eax
	push	ebx
	push	esi
	push	edi

; 1497 : 	char glname[64];
; 1498 : 	char options[MAX_OPTIONS_LENGTH];
; 1499 : 	mfaceinfo_t *landscape = NULL;

	mov	DWORD PTR _landscape$[ebp], 0

; 1500 : 	mextrasurf_t *es = s->info;

	mov	eax, DWORD PTR _s$[ebp]
	mov	ecx, DWORD PTR [eax+80]
	mov	DWORD PTR _es$[ebp], ecx

; 1501 : 	bool fullBright = false;

	mov	BYTE PTR _fullBright$[ebp], 0

; 1502 : 	bool mirror = false;

	mov	BYTE PTR _mirror$[ebp], 0

; 1503 : 	bool portal = false;

	mov	BYTE PTR _portal$[ebp], 0

; 1504 : 	bool using_cubemaps = false;

	mov	BYTE PTR _using_cubemaps$[ebp], 0

; 1505 : 
; 1506 : 	ASSERT( worldmodel != NULL );

	cmp	DWORD PTR ?worldmodel@@3PAUmodel_s@@A, 0 ; worldmodel
	jne	SHORT $LN5@GL_UberSha
	mov	eax, DWORD PTR ?__LINE__Var@?0??GL_UberShaderForSolidBmodel@@YAGPAUmsurface_s@@_N@Z@4JA
	add	eax, 10					; 0000000aH
	push	eax
	push	OFFSET ??_C@_0EN@DPFBEFBL@d?3?2?$CBdiffusion?52020?2source?5code?52@
	push	OFFSET ??_C@_0BI@FECCGOFJ@assert?5failed?5at?5?$CFs?3?$CFi?6?$AA@
	call	DWORD PTR ?gRenderfuncs@@3Urender_api_s@@A+236
	add	esp, 12					; 0000000cH
$LN5@GL_UberSha:

; 1507 : 
; 1508 : 	if( FBitSet( s->flags, SURF_REFLECT ) && s->info->subtexture[glState.stack_position] > 0 )

	mov	eax, DWORD PTR _s$[ebp]
	mov	ecx, DWORD PTR [eax+8]
	and	ecx, -2147483648			; 80000000H
	je	SHORT $LN6@GL_UberSha
	mov	eax, DWORD PTR _s$[ebp]
	mov	ecx, DWORD PTR [eax+80]
	mov	edx, DWORD PTR ?glState@@3UglState_t@@A+112296
	movsx	eax, WORD PTR [ecx+edx*2+222]
	test	eax, eax
	jle	SHORT $LN6@GL_UberSha

; 1509 : 		mirror = true;

	mov	BYTE PTR _mirror$[ebp], 1
$LN6@GL_UberSha:

; 1510 : 	if( FBitSet( s->flags, SURF_PORTAL ) && s->info->subtexture[glState.stack_position] > 0 )

	mov	eax, DWORD PTR _s$[ebp]
	mov	ecx, DWORD PTR [eax+8]
	and	ecx, 512				; 00000200H
	je	SHORT $LN7@GL_UberSha
	mov	eax, DWORD PTR _s$[ebp]
	mov	ecx, DWORD PTR [eax+80]
	mov	edx, DWORD PTR ?glState@@3UglState_t@@A+112296
	movsx	eax, WORD PTR [ecx+edx*2+222]
	test	eax, eax
	jle	SHORT $LN7@GL_UberSha

; 1511 : 		portal = true;

	mov	BYTE PTR _portal$[ebp], 1
$LN7@GL_UberSha:

; 1512 : 
; 1513 : 	landscape = s->texinfo->faceinfo;

	mov	eax, DWORD PTR _s$[ebp]
	mov	ecx, DWORD PTR [eax+44]
	mov	edx, DWORD PTR [ecx+32]
	mov	DWORD PTR _landscape$[ebp], edx

; 1514 : 
; 1515 : 	if( es->shaderNum[mirror] && es->glsl_sequence[mirror] == tr.glsl_valid_sequence )

	movzx	eax, BYTE PTR _mirror$[ebp]
	mov	ecx, DWORD PTR _es$[ebp]
	movzx	edx, WORD PTR [ecx+eax*2+166]
	test	edx, edx
	je	SHORT $LN8@GL_UberSha
	movzx	eax, BYTE PTR _mirror$[ebp]
	mov	ecx, DWORD PTR _es$[ebp]
	movzx	edx, WORD PTR [ecx+eax*2+178]
	cmp	edx, DWORD PTR ?tr@@3Uref_globals_t@@A+5830936
	jne	SHORT $LN8@GL_UberSha

; 1516 : 		return es->shaderNum[mirror]; // valid

	movzx	eax, BYTE PTR _mirror$[ebp]
	mov	ecx, DWORD PTR _es$[ebp]
	mov	ax, WORD PTR [ecx+eax*2+166]
	jmp	$LN1@GL_UberSha
$LN8@GL_UberSha:

; 1517 : 
; 1518 : 	Q_strncpy( glname, "BmodelSolid", sizeof( glname ));

	push	64					; 00000040H
	push	OFFSET ??_C@_0M@JAFDEAKJ@BmodelSolid?$AA@
	lea	eax, DWORD PTR _glname$[ebp]
	push	eax
	call	?Q_strncpy@@YAIPADPBDI@Z		; Q_strncpy
	add	esp, 12					; 0000000cH

; 1519 : 	memset( options, 0, sizeof( options ));

	push	512					; 00000200H
	push	0
	lea	eax, DWORD PTR _options$[ebp]
	push	eax
	call	_memset
	add	esp, 12					; 0000000cH

; 1520 : 
; 1521 : 	texture_t *tx = s->texinfo->texture;

	mov	eax, DWORD PTR _s$[ebp]
	mov	ecx, DWORD PTR [eax+44]
	mov	edx, DWORD PTR [ecx+36]
	mov	DWORD PTR _tx$[ebp], edx

; 1522 : 
; 1523 : 	if( FBitSet( s->flags, SURF_REFLECT ) && !FBitSet( s->flags, SURF_WATER ) && CVAR_TO_BOOL( r_mirrorquality ))

	mov	eax, DWORD PTR _s$[ebp]
	mov	ecx, DWORD PTR [eax+8]
	and	ecx, -2147483648			; 80000000H
	je	SHORT $LN9@GL_UberSha
	mov	eax, DWORD PTR _s$[ebp]
	mov	ecx, DWORD PTR [eax+8]
	and	ecx, 16					; 00000010H
	jne	SHORT $LN9@GL_UberSha
	cmp	DWORD PTR ?r_mirrorquality@@3PAUcvar_s@@A, 0 ; r_mirrorquality
	je	SHORT $LN45@GL_UberSha
	mov	eax, DWORD PTR ?r_mirrorquality@@3PAUcvar_s@@A ; r_mirrorquality
	movss	xmm0, DWORD PTR [eax+12]
	ucomiss	xmm0, DWORD PTR __real@00000000
	lahf
	test	ah, 68					; 00000044H
	jnp	SHORT $LN45@GL_UberSha
	mov	BYTE PTR tv155[ebp], 1
	jmp	SHORT $LN46@GL_UberSha
$LN45@GL_UberSha:
	mov	BYTE PTR tv155[ebp], 0
$LN46@GL_UberSha:
	movzx	ecx, BYTE PTR tv155[ebp]
	test	ecx, ecx
	je	SHORT $LN9@GL_UberSha

; 1524 : 		fullBright = true;

	mov	BYTE PTR _fullBright$[ebp], 1
$LN9@GL_UberSha:

; 1525 : 
; 1526 : 	if( portal && CVAR_TO_BOOL( gl_allow_portals ) )

	movzx	eax, BYTE PTR _portal$[ebp]
	test	eax, eax
	je	SHORT $LN10@GL_UberSha
	cmp	DWORD PTR ?gl_allow_portals@@3PAUcvar_s@@A, 0 ; gl_allow_portals
	je	SHORT $LN47@GL_UberSha
	mov	eax, DWORD PTR ?gl_allow_portals@@3PAUcvar_s@@A ; gl_allow_portals
	movss	xmm0, DWORD PTR [eax+12]
	ucomiss	xmm0, DWORD PTR __real@00000000
	lahf
	test	ah, 68					; 00000044H
	jnp	SHORT $LN47@GL_UberSha
	mov	BYTE PTR tv163[ebp], 1
	jmp	SHORT $LN48@GL_UberSha
$LN47@GL_UberSha:
	mov	BYTE PTR tv163[ebp], 0
$LN48@GL_UberSha:
	movzx	ecx, BYTE PTR tv163[ebp]
	test	ecx, ecx
	je	SHORT $LN10@GL_UberSha

; 1527 : 	{
; 1528 : 		fullBright = true;

	mov	BYTE PTR _fullBright$[ebp], 1

; 1529 : 		GL_AddShaderDirective( options, "BMODEL_PORTAL" );

	push	OFFSET ??_C@_0O@GKJEGJGO@BMODEL_PORTAL?$AA@
	lea	eax, DWORD PTR _options$[ebp]
	push	eax
	call	?GL_AddShaderDirective@@YAXPADPBD@Z	; GL_AddShaderDirective
	add	esp, 8
$LN10@GL_UberSha:

; 1530 : 	}
; 1531 : 
; 1532 : 	if( FBitSet( s->flags, SURF_SCREEN ) && CVAR_TO_BOOL( gl_allow_screens ))

	mov	eax, DWORD PTR _s$[ebp]
	mov	ecx, DWORD PTR [eax+8]
	and	ecx, 1024				; 00000400H
	je	SHORT $LN11@GL_UberSha
	cmp	DWORD PTR ?gl_allow_screens@@3PAUcvar_s@@A, 0 ; gl_allow_screens
	je	SHORT $LN49@GL_UberSha
	mov	eax, DWORD PTR ?gl_allow_screens@@3PAUcvar_s@@A ; gl_allow_screens
	movss	xmm0, DWORD PTR [eax+12]
	ucomiss	xmm0, DWORD PTR __real@00000000
	lahf
	test	ah, 68					; 00000044H
	jnp	SHORT $LN49@GL_UberSha
	mov	BYTE PTR tv174[ebp], 1
	jmp	SHORT $LN50@GL_UberSha
$LN49@GL_UberSha:
	mov	BYTE PTR tv174[ebp], 0
$LN50@GL_UberSha:
	movzx	ecx, BYTE PTR tv174[ebp]
	test	ecx, ecx
	je	SHORT $LN11@GL_UberSha

; 1533 : 	{
; 1534 : 		if( RI->currententity && FBitSet( RI->currententity->curstate.iuser1, CF_MONOCHROME ))

	mov	eax, DWORD PTR ?RI@@3PAUref_instance_t@@A ; RI
	cmp	DWORD PTR [eax+16], 0
	je	SHORT $LN12@GL_UberSha
	mov	eax, DWORD PTR ?RI@@3PAUref_instance_t@@A ; RI
	mov	ecx, DWORD PTR [eax+16]
	mov	edx, DWORD PTR [ecx+948]
	and	edx, 2
	je	SHORT $LN12@GL_UberSha

; 1535 : 			GL_AddShaderDirective( options, "BMODEL_MONOCHROME" );

	push	OFFSET ??_C@_0BC@FCBEIADP@BMODEL_MONOCHROME?$AA@
	lea	eax, DWORD PTR _options$[ebp]
	push	eax
	call	?GL_AddShaderDirective@@YAXPADPBD@Z	; GL_AddShaderDirective
	add	esp, 8
$LN12@GL_UberSha:

; 1536 : 		fullBright = true;

	mov	BYTE PTR _fullBright$[ebp], 1
$LN11@GL_UberSha:

; 1537 : 	}
; 1538 : 
; 1539 : 	if( FBitSet( s->flags, SURF_MOVIE ))

	mov	eax, DWORD PTR _s$[ebp]
	mov	ecx, DWORD PTR [eax+8]
	and	ecx, 2048				; 00000800H
	je	SHORT $LN13@GL_UberSha

; 1540 : 		fullBright = true;

	mov	BYTE PTR _fullBright$[ebp], 1
$LN13@GL_UberSha:

; 1541 : 
; 1542 : 	// solid water with lightmaps looks ugly
; 1543 : 	// diffusion - allow water to use lightmap
; 1544 : 	// P.S. NOTENOTE - translucent is edited and completely excludes all RenderModeTexture brushes, so all glass/water uses lightmaps (not a bad thing tho)
; 1545 : 	if( /*FBitSet( s->flags, SURF_WATER ) || */translucent )

	movzx	eax, BYTE PTR _translucent$[ebp]
	test	eax, eax
	je	SHORT $LN14@GL_UberSha

; 1546 : 		fullBright = true;

	mov	BYTE PTR _fullBright$[ebp], 1
$LN14@GL_UberSha:

; 1547 : 
; 1548 : 	if( RI->currententity ) // diffusion

	mov	eax, DWORD PTR ?RI@@3PAUref_instance_t@@A ; RI
	cmp	DWORD PTR [eax+16], 0
	je	SHORT $LN16@GL_UberSha

; 1549 : 	{
; 1550 : 		if( (RI->currententity->curstate.renderfx == kRenderFxFullbright) || (RI->currententity->curstate.renderfx == kRenderFxFullbrightNoShadows) )

	mov	eax, DWORD PTR ?RI@@3PAUref_instance_t@@A ; RI
	mov	ecx, DWORD PTR [eax+16]
	cmp	DWORD PTR [ecx+772], 24			; 00000018H
	je	SHORT $LN17@GL_UberSha
	mov	eax, DWORD PTR ?RI@@3PAUref_instance_t@@A ; RI
	mov	ecx, DWORD PTR [eax+16]
	cmp	DWORD PTR [ecx+772], 25			; 00000019H
	jne	SHORT $LN16@GL_UberSha
$LN17@GL_UberSha:

; 1551 : 			fullBright = true;

	mov	BYTE PTR _fullBright$[ebp], 1
$LN16@GL_UberSha:

; 1552 : 	}
; 1553 : 
; 1554 : 	if( FBitSet( s->flags, SURF_FULLBRIGHT ) || R_FullBright( ) || fullBright )

	mov	eax, DWORD PTR _s$[ebp]
	mov	ecx, DWORD PTR [eax+8]
	and	ecx, 33554432				; 02000000H
	jne	SHORT $LN20@GL_UberSha
	cmp	DWORD PTR ?r_fullbright@@3PAUcvar_s@@A, 0 ; r_fullbright
	je	SHORT $LN51@GL_UberSha
	mov	eax, DWORD PTR ?r_fullbright@@3PAUcvar_s@@A ; r_fullbright
	movss	xmm0, DWORD PTR [eax+12]
	ucomiss	xmm0, DWORD PTR __real@00000000
	lahf
	test	ah, 68					; 00000044H
	jnp	SHORT $LN51@GL_UberSha
	mov	BYTE PTR tv207[ebp], 1
	jmp	SHORT $LN52@GL_UberSha
$LN51@GL_UberSha:
	mov	BYTE PTR tv207[ebp], 0
$LN52@GL_UberSha:
	movzx	ecx, BYTE PTR tv207[ebp]
	test	ecx, ecx
	jne	SHORT $LN20@GL_UberSha
	mov	eax, DWORD PTR ?worldmodel@@3PAUmodel_s@@A ; worldmodel
	cmp	DWORD PTR [eax+380], 0
	je	SHORT $LN20@GL_UberSha
	movzx	eax, BYTE PTR _fullBright$[ebp]
	test	eax, eax
	je	SHORT $LN18@GL_UberSha
$LN20@GL_UberSha:

; 1555 : 	{
; 1556 : 		GL_AddShaderDirective( options, "BMODEL_FULLBRIGHT" );

	push	OFFSET ??_C@_0BC@GCGMHMPB@BMODEL_FULLBRIGHT?$AA@
	lea	eax, DWORD PTR _options$[ebp]
	push	eax
	call	?GL_AddShaderDirective@@YAXPADPBD@Z	; GL_AddShaderDirective
	add	esp, 8

; 1557 : 	}
; 1558 : 	else

	jmp	$LN21@GL_UberSha
$LN18@GL_UberSha:

; 1559 : 	{
; 1560 : 		// process lightstyles
; 1561 : 		for( int i = 0; i < MAXLIGHTMAPS && s->styles[i] != LS_NONE; i++ )

	mov	DWORD PTR _i$1[ebp], 0
	jmp	SHORT $LN4@GL_UberSha
$LN2@GL_UberSha:
	mov	eax, DWORD PTR _i$1[ebp]
	add	eax, 1
	mov	DWORD PTR _i$1[ebp], eax
$LN4@GL_UberSha:
	cmp	DWORD PTR _i$1[ebp], 4
	jge	SHORT $LN3@GL_UberSha
	mov	eax, DWORD PTR _s$[ebp]
	add	eax, DWORD PTR _i$1[ebp]
	movzx	ecx, BYTE PTR [eax+60]
	cmp	ecx, 255				; 000000ffH
	je	SHORT $LN3@GL_UberSha

; 1562 : 			GL_AddShaderDirective( options, va( "BMODEL_APPLY_STYLE%i", i ));

	mov	eax, DWORD PTR _i$1[ebp]
	push	eax
	push	OFFSET ??_C@_0BF@CJFNHMMN@BMODEL_APPLY_STYLE?$CFi?$AA@
	call	?va@@YAPADPBDZZ				; va
	add	esp, 8
	push	eax
	lea	ecx, DWORD PTR _options$[ebp]
	push	ecx
	call	?GL_AddShaderDirective@@YAXPADPBD@Z	; GL_AddShaderDirective
	add	esp, 8
	jmp	SHORT $LN2@GL_UberSha
$LN3@GL_UberSha:

; 1563 : 
; 1564 : 		if( tx->fb_texturenum != 0 )

	mov	eax, DWORD PTR _tx$[ebp]
	movzx	ecx, WORD PTR [eax+52]
	test	ecx, ecx
	je	SHORT $LN21@GL_UberSha

; 1565 : 			GL_AddShaderDirective( options, "BMODEL_HAS_LUMA" );

	push	OFFSET ??_C@_0BA@EFJDEABO@BMODEL_HAS_LUMA?$AA@
	lea	eax, DWORD PTR _options$[ebp]
	push	eax
	call	?GL_AddShaderDirective@@YAXPADPBD@Z	; GL_AddShaderDirective
	add	esp, 8
$LN21@GL_UberSha:

; 1566 : 	}
; 1567 : 
; 1568 : 	/*
; 1569 : 	if( RI->currententity && RI->currententity->curstate.rendermode == kRenderTransAlpha )
; 1570 : 	{
; 1571 : 		// case when using textures with prefix '{'
; 1572 : 		if( GL_UsingAlphaToCoverage() && GL_Support( R_A2C_DITHER_CONTROL ) )
; 1573 : 		{
; 1574 : 			// enable macro only when we're disabled dithering for A2C
; 1575 : 			GL_AddShaderDirective( options, "ALPHA_TO_COVERAGE" );
; 1576 : 		}
; 1577 : 	}*/
; 1578 : 
; 1579 : 	if( FBitSet( s->flags, SURF_WATER ))

	mov	eax, DWORD PTR _s$[ebp]
	mov	ecx, DWORD PTR [eax+8]
	and	ecx, 16					; 00000010H
	je	$LN25@GL_UberSha

; 1580 : 	{
; 1581 : 		GL_AddShaderDirective( options, "BMODEL_WATER" );

	push	OFFSET ??_C@_0N@KAHGMIHK@BMODEL_WATER?$AA@
	lea	eax, DWORD PTR _options$[ebp]
	push	eax
	call	?GL_AddShaderDirective@@YAXPADPBD@Z	; GL_AddShaderDirective
	add	esp, 8

; 1582 : 
; 1583 : 		if( RI->currententity )

	mov	eax, DWORD PTR ?RI@@3PAUref_instance_t@@A ; RI
	cmp	DWORD PTR [eax+16], 0
	je	$LN25@GL_UberSha

; 1584 : 		{
; 1585 : 			if( RI->currententity->curstate.scale )

	mov	eax, DWORD PTR ?RI@@3PAUref_instance_t@@A ; RI
	mov	ecx, DWORD PTR [eax+16]
	movss	xmm0, DWORD PTR [ecx+752]
	ucomiss	xmm0, DWORD PTR __real@00000000
	lahf
	test	ah, 68					; 00000044H
	jnp	SHORT $LN24@GL_UberSha

; 1586 : 				GL_AddShaderDirective( options, "BMODEL_WAVEHEIGHT" );

	push	OFFSET ??_C@_0BC@LPFDPIMB@BMODEL_WAVEHEIGHT?$AA@
	lea	eax, DWORD PTR _options$[ebp]
	push	eax
	call	?GL_AddShaderDirective@@YAXPADPBD@Z	; GL_AddShaderDirective
	add	esp, 8
$LN24@GL_UberSha:

; 1587 : 
; 1588 : 			if( (gl_water_refraction->value > 0) && (RI->currententity->curstate.renderfx != kRenderFxNoRefraction) )

	mov	eax, DWORD PTR ?gl_water_refraction@@3PAUcvar_s@@A ; gl_water_refraction
	movss	xmm0, DWORD PTR [eax+12]
	comiss	xmm0, DWORD PTR __real@00000000
	jbe	SHORT $LN25@GL_UberSha
	mov	eax, DWORD PTR ?RI@@3PAUref_instance_t@@A ; RI
	mov	ecx, DWORD PTR [eax+16]
	cmp	DWORD PTR [ecx+772], 28			; 0000001cH
	je	SHORT $LN25@GL_UberSha

; 1589 : 			{
; 1590 : 				GL_AddShaderDirective( options, "BMODEL_WATER_REFRACTION" );

	push	OFFSET ??_C@_0BI@KHDHCKHO@BMODEL_WATER_REFRACTION?$AA@
	lea	eax, DWORD PTR _options$[ebp]
	push	eax
	call	?GL_AddShaderDirective@@YAXPADPBD@Z	; GL_AddShaderDirective
	add	esp, 8

; 1591 : 				GL_EncodeNormal( options, tr.waterTextures[0] );

	mov	eax, 4
	imul	ecx, eax, 0
	mov	edx, DWORD PTR ?tr@@3Uref_globals_t@@A[ecx+5748]
	push	edx
	lea	eax, DWORD PTR _options$[ebp]
	push	eax
	call	?GL_EncodeNormal@@YAXPADH@Z		; GL_EncodeNormal
	add	esp, 8
$LN25@GL_UberSha:

; 1592 : 			}
; 1593 : 		}
; 1594 : 	}
; 1595 : 
; 1596 : 	if( CVAR_TO_BOOL( gl_emboss ) )

	cmp	DWORD PTR ?gl_emboss@@3PAUcvar_s@@A, 0	; gl_emboss
	je	SHORT $LN53@GL_UberSha
	mov	eax, DWORD PTR ?gl_emboss@@3PAUcvar_s@@A ; gl_emboss
	movss	xmm0, DWORD PTR [eax+12]
	ucomiss	xmm0, DWORD PTR __real@00000000
	lahf
	test	ah, 68					; 00000044H
	jnp	SHORT $LN53@GL_UberSha
	mov	BYTE PTR tv261[ebp], 1
	jmp	SHORT $LN54@GL_UberSha
$LN53@GL_UberSha:
	mov	BYTE PTR tv261[ebp], 0
$LN54@GL_UberSha:
	movzx	ecx, BYTE PTR tv261[ebp]
	test	ecx, ecx
	je	SHORT $LN26@GL_UberSha

; 1597 : 		GL_AddShaderDirective( options, "BMODEL_EMBOSS" );

	push	OFFSET ??_C@_0O@CHLKEFJA@BMODEL_EMBOSS?$AA@
	lea	eax, DWORD PTR _options$[ebp]
	push	eax
	call	?GL_AddShaderDirective@@YAXPADPBD@Z	; GL_AddShaderDirective
	add	esp, 8
$LN26@GL_UberSha:

; 1598 : 
; 1599 : 	if( CVAR_TO_BOOL( gl_specular ) )

	cmp	DWORD PTR ?gl_specular@@3PAUcvar_s@@A, 0 ; gl_specular
	je	SHORT $LN55@GL_UberSha
	mov	eax, DWORD PTR ?gl_specular@@3PAUcvar_s@@A ; gl_specular
	movss	xmm0, DWORD PTR [eax+12]
	ucomiss	xmm0, DWORD PTR __real@00000000
	lahf
	test	ah, 68					; 00000044H
	jnp	SHORT $LN55@GL_UberSha
	mov	BYTE PTR tv269[ebp], 1
	jmp	SHORT $LN56@GL_UberSha
$LN55@GL_UberSha:
	mov	BYTE PTR tv269[ebp], 0
$LN56@GL_UberSha:
	movzx	ecx, BYTE PTR tv269[ebp]
	test	ecx, ecx
	je	SHORT $LN27@GL_UberSha

; 1600 : 		GL_AddShaderDirective( options, "BMODEL_SPECULAR" );

	push	OFFSET ??_C@_0BA@IDBJJDAD@BMODEL_SPECULAR?$AA@
	lea	eax, DWORD PTR _options$[ebp]
	push	eax
	call	?GL_AddShaderDirective@@YAXPADPBD@Z	; GL_AddShaderDirective
	add	esp, 8
$LN27@GL_UberSha:

; 1601 : 
; 1602 : 	if( CVAR_TO_BOOL(gl_bump) )

	cmp	DWORD PTR ?gl_bump@@3PAUcvar_s@@A, 0	; gl_bump
	je	SHORT $LN57@GL_UberSha
	mov	eax, DWORD PTR ?gl_bump@@3PAUcvar_s@@A	; gl_bump
	movss	xmm0, DWORD PTR [eax+12]
	ucomiss	xmm0, DWORD PTR __real@00000000
	lahf
	test	ah, 68					; 00000044H
	jnp	SHORT $LN57@GL_UberSha
	mov	BYTE PTR tv277[ebp], 1
	jmp	SHORT $LN58@GL_UberSha
$LN57@GL_UberSha:
	mov	BYTE PTR tv277[ebp], 0
$LN58@GL_UberSha:
	movzx	ecx, BYTE PTR tv277[ebp]
	test	ecx, ecx
	je	$LN31@GL_UberSha

; 1603 : 	{
; 1604 : 		if( FBitSet( s->flags, SURF_LANDSCAPE ) && landscape && landscape->terrain && landscape->terrain->layermap.gl_normalmap_id != 0 )

	mov	eax, DWORD PTR _s$[ebp]
	mov	ecx, DWORD PTR [eax+8]
	and	ecx, 8192				; 00002000H
	je	SHORT $LN29@GL_UberSha
	cmp	DWORD PTR _landscape$[ebp], 0
	je	SHORT $LN29@GL_UberSha
	mov	eax, DWORD PTR _landscape$[ebp]
	cmp	DWORD PTR [eax+48], 0
	je	SHORT $LN29@GL_UberSha
	mov	eax, DWORD PTR _landscape$[ebp]
	mov	ecx, DWORD PTR [eax+48]
	movzx	edx, WORD PTR [ecx+2212]
	test	edx, edx
	je	SHORT $LN29@GL_UberSha

; 1605 : 		{
; 1606 : 			GL_AddShaderDirective( options, "BMODEL_BUMP" );

	push	OFFSET ??_C@_0M@KKHGJEOJ@BMODEL_BUMP?$AA@
	lea	eax, DWORD PTR _options$[ebp]
	push	eax
	call	?GL_AddShaderDirective@@YAXPADPBD@Z	; GL_AddShaderDirective
	add	esp, 8

; 1607 : 			GL_EncodeNormal( options, landscape->terrain->layermap.gl_normalmap_id );

	mov	eax, DWORD PTR _landscape$[ebp]
	mov	ecx, DWORD PTR [eax+48]
	movzx	edx, WORD PTR [ecx+2212]
	push	edx
	lea	eax, DWORD PTR _options$[ebp]
	push	eax
	call	?GL_EncodeNormal@@YAXPADH@Z		; GL_EncodeNormal
	add	esp, 8
	jmp	SHORT $LN31@GL_UberSha
$LN29@GL_UberSha:

; 1608 : 		}
; 1609 : 		else if( tr.materials[tx->gl_texturenum].gl_normalmap_id > 0 )

	mov	eax, DWORD PTR _tx$[ebp]
	imul	ecx, DWORD PTR [eax+24], 196
	movzx	edx, WORD PTR ?tr@@3Uref_globals_t@@A[ecx+5885528]
	test	edx, edx
	jle	SHORT $LN31@GL_UberSha

; 1610 : 		{
; 1611 : 			GL_AddShaderDirective( options, "BMODEL_BUMP" );

	push	OFFSET ??_C@_0M@KKHGJEOJ@BMODEL_BUMP?$AA@
	lea	eax, DWORD PTR _options$[ebp]
	push	eax
	call	?GL_AddShaderDirective@@YAXPADPBD@Z	; GL_AddShaderDirective
	add	esp, 8

; 1612 : 			GL_EncodeNormal( options, tr.materials[tx->gl_texturenum].gl_normalmap_id );

	mov	eax, DWORD PTR _tx$[ebp]
	imul	ecx, DWORD PTR [eax+24], 196
	movzx	edx, WORD PTR ?tr@@3Uref_globals_t@@A[ecx+5885528]
	push	edx
	lea	eax, DWORD PTR _options$[ebp]
	push	eax
	call	?GL_EncodeNormal@@YAXPADH@Z		; GL_EncodeNormal
	add	esp, 8
$LN31@GL_UberSha:

; 1613 : 		}
; 1614 : 	}
; 1615 : 
; 1616 : 	// diffusioncubemaps	
; 1617 : 	if( (tr.materials[tx->gl_texturenum].ReflectScale > 0.01f) && (world->num_cubemaps > 0) && CVAR_TO_BOOL( gl_cubemaps ) && !RP_CUBEPASS() && (world->rebuilding_cubemaps == CMREBUILD_INACTIVE) )

	mov	eax, DWORD PTR _tx$[ebp]
	imul	ecx, DWORD PTR [eax+24], 196
	movss	xmm0, DWORD PTR ?tr@@3Uref_globals_t@@A[ecx+5885488]
	comiss	xmm0, DWORD PTR __real@3c23d70a
	jbe	SHORT $LN32@GL_UberSha
	mov	eax, DWORD PTR ?world@@3PAUgl_world_t@@A ; world
	cmp	DWORD PTR [eax+114976], 0
	jle	SHORT $LN32@GL_UberSha
	cmp	DWORD PTR ?gl_cubemaps@@3PAUcvar_s@@A, 0 ; gl_cubemaps
	je	SHORT $LN59@GL_UberSha
	mov	eax, DWORD PTR ?gl_cubemaps@@3PAUcvar_s@@A ; gl_cubemaps
	movss	xmm0, DWORD PTR [eax+12]
	ucomiss	xmm0, DWORD PTR __real@00000000
	lahf
	test	ah, 68					; 00000044H
	jnp	SHORT $LN59@GL_UberSha
	mov	BYTE PTR tv356[ebp], 1
	jmp	SHORT $LN60@GL_UberSha
$LN59@GL_UberSha:
	mov	BYTE PTR tv356[ebp], 0
$LN60@GL_UberSha:
	movzx	ecx, BYTE PTR tv356[ebp]
	test	ecx, ecx
	je	SHORT $LN32@GL_UberSha
	mov	eax, DWORD PTR ?RI@@3PAUref_instance_t@@A ; RI
	mov	ecx, DWORD PTR [eax]
	and	ecx, 2
	jne	SHORT $LN32@GL_UberSha
	mov	eax, DWORD PTR ?world@@3PAUgl_world_t@@A ; world
	cmp	DWORD PTR [eax+168], 0
	jne	SHORT $LN32@GL_UberSha

; 1618 : 	{
; 1619 : 		GL_AddShaderDirective( options, "REFLECTION_CUBEMAP" );

	push	OFFSET ??_C@_0BD@EMMENHMO@REFLECTION_CUBEMAP?$AA@
	lea	eax, DWORD PTR _options$[ebp]
	push	eax
	call	?GL_AddShaderDirective@@YAXPADPBD@Z	; GL_AddShaderDirective
	add	esp, 8

; 1620 : 		using_cubemaps = true;

	mov	BYTE PTR _using_cubemaps$[ebp], 1
$LN32@GL_UberSha:

; 1621 : 	}
; 1622 : 
; 1623 : 	if( tr.materials[tx->gl_texturenum].gl_interiormap_id > 0 )

	mov	eax, DWORD PTR _tx$[ebp]
	imul	ecx, DWORD PTR [eax+24], 196
	movzx	edx, WORD PTR ?tr@@3Uref_globals_t@@A[ecx+5885504]
	test	edx, edx
	jle	SHORT $LN33@GL_UberSha

; 1624 : 		GL_AddShaderDirective( options, "BMODEL_INTERIOR" );

	push	OFFSET ??_C@_0BA@ELFGANLK@BMODEL_INTERIOR?$AA@
	lea	eax, DWORD PTR _options$[ebp]
	push	eax
	call	?GL_AddShaderDirective@@YAXPADPBD@Z	; GL_AddShaderDirective
	add	esp, 8
$LN33@GL_UberSha:

; 1625 : 
; 1626 : #if 0
; 1627 : 	// can't properly draw for beams particles through glass. g-cont
; 1628 : 	// disabled for now
; 1629 : 	if( translucent )
; 1630 : 		GL_AddShaderDirective( options, "BMODEL_TRANSLUCENT" );
; 1631 : #endif
; 1632 : 	if( FBitSet( s->flags, SURF_LANDSCAPE ) && landscape && landscape->terrain )

	mov	eax, DWORD PTR _s$[ebp]
	mov	ecx, DWORD PTR [eax+8]
	and	ecx, 8192				; 00002000H
	je	$LN34@GL_UberSha
	cmp	DWORD PTR _landscape$[ebp], 0
	je	$LN34@GL_UberSha
	mov	eax, DWORD PTR _landscape$[ebp]
	cmp	DWORD PTR [eax+48], 0
	je	$LN34@GL_UberSha

; 1633 : 	{
; 1634 : 		if( landscape->terrain->layermap.gl_diffuse_id != 0 )

	mov	eax, DWORD PTR _landscape$[ebp]
	mov	ecx, DWORD PTR [eax+48]
	movzx	edx, WORD PTR [ecx+2208]
	test	edx, edx
	je	SHORT $LN36@GL_UberSha

; 1635 : 		{
; 1636 : 			GL_AddShaderDirective( options, va( "TERRAIN_NUM_LAYERS %i", landscape->terrain->numLayers ));

	mov	eax, DWORD PTR _landscape$[ebp]
	mov	ecx, DWORD PTR [eax+48]
	mov	edx, DWORD PTR [ecx+2472]
	push	edx
	push	OFFSET ??_C@_0BG@EHIGMOPN@TERRAIN_NUM_LAYERS?5?$CFi?$AA@
	call	?va@@YAPADPBDZZ				; va
	add	esp, 8
	push	eax
	lea	eax, DWORD PTR _options$[ebp]
	push	eax
	call	?GL_AddShaderDirective@@YAXPADPBD@Z	; GL_AddShaderDirective
	add	esp, 8

; 1637 : 			GL_AddShaderDirective( options, "BMODEL_MULTI_LAYERS" );

	push	OFFSET ??_C@_0BE@FBBOMMAP@BMODEL_MULTI_LAYERS?$AA@
	lea	eax, DWORD PTR _options$[ebp]
	push	eax
	call	?GL_AddShaderDirective@@YAXPADPBD@Z	; GL_AddShaderDirective
	add	esp, 8
$LN36@GL_UberSha:

; 1638 : 		}
; 1639 : 
; 1640 : 		if( landscape->terrain->indexmap.gl_diffuse_id != 0 && CVAR_TO_BOOL( r_detailtextures ))

	mov	eax, DWORD PTR _landscape$[ebp]
	mov	ecx, DWORD PTR [eax+48]
	movzx	edx, WORD PTR [ecx+144]
	test	edx, edx
	je	SHORT $LN37@GL_UberSha
	cmp	DWORD PTR ?r_detailtextures@@3PAUcvar_s@@A, 0 ; r_detailtextures
	je	SHORT $LN61@GL_UberSha
	mov	eax, DWORD PTR ?r_detailtextures@@3PAUcvar_s@@A ; r_detailtextures
	movss	xmm0, DWORD PTR [eax+12]
	ucomiss	xmm0, DWORD PTR __real@00000000
	lahf
	test	ah, 68					; 00000044H
	jnp	SHORT $LN61@GL_UberSha
	mov	BYTE PTR tv402[ebp], 1
	jmp	SHORT $LN62@GL_UberSha
$LN61@GL_UberSha:
	mov	BYTE PTR tv402[ebp], 0
$LN62@GL_UberSha:
	movzx	ecx, BYTE PTR tv402[ebp]
	test	ecx, ecx
	je	SHORT $LN37@GL_UberSha

; 1641 : 			GL_AddShaderDirective( options, "BMODEL_HAS_DETAIL" );

	push	OFFSET ??_C@_0BC@NMNDDEJF@BMODEL_HAS_DETAIL?$AA@
	lea	eax, DWORD PTR _options$[ebp]
	push	eax
	call	?GL_AddShaderDirective@@YAXPADPBD@Z	; GL_AddShaderDirective
	add	esp, 8
$LN37@GL_UberSha:

; 1642 : 	}
; 1643 : 	else

	jmp	SHORT $LN38@GL_UberSha
$LN34@GL_UberSha:

; 1644 : 	{
; 1645 : 		if( tx->dt_texturenum != 0 && CVAR_TO_BOOL( r_detailtextures ))

	mov	eax, DWORD PTR _tx$[ebp]
	movzx	ecx, WORD PTR [eax+54]
	test	ecx, ecx
	je	SHORT $LN38@GL_UberSha
	cmp	DWORD PTR ?r_detailtextures@@3PAUcvar_s@@A, 0 ; r_detailtextures
	je	SHORT $LN63@GL_UberSha
	mov	eax, DWORD PTR ?r_detailtextures@@3PAUcvar_s@@A ; r_detailtextures
	movss	xmm0, DWORD PTR [eax+12]
	ucomiss	xmm0, DWORD PTR __real@00000000
	lahf
	test	ah, 68					; 00000044H
	jnp	SHORT $LN63@GL_UberSha
	mov	BYTE PTR tv413[ebp], 1
	jmp	SHORT $LN64@GL_UberSha
$LN63@GL_UberSha:
	mov	BYTE PTR tv413[ebp], 0
$LN64@GL_UberSha:
	movzx	ecx, BYTE PTR tv413[ebp]
	test	ecx, ecx
	je	SHORT $LN38@GL_UberSha

; 1646 : 			GL_AddShaderDirective( options, "BMODEL_HAS_DETAIL" );

	push	OFFSET ??_C@_0BC@NMNDDEJF@BMODEL_HAS_DETAIL?$AA@
	lea	eax, DWORD PTR _options$[ebp]
	push	eax
	call	?GL_AddShaderDirective@@YAXPADPBD@Z	; GL_AddShaderDirective
	add	esp, 8
$LN38@GL_UberSha:

; 1647 : 	}
; 1648 : 
; 1649 : 	if( FBitSet( s->flags, SURF_REFLECT ) && s->info->subtexture[glState.stack_position] > 0 )

	mov	eax, DWORD PTR _s$[ebp]
	mov	ecx, DWORD PTR [eax+8]
	and	ecx, -2147483648			; 80000000H
	je	SHORT $LN40@GL_UberSha
	mov	eax, DWORD PTR _s$[ebp]
	mov	ecx, DWORD PTR [eax+80]
	mov	edx, DWORD PTR ?glState@@3UglState_t@@A+112296
	movsx	eax, WORD PTR [ecx+edx*2+222]
	test	eax, eax
	jle	SHORT $LN40@GL_UberSha

; 1650 : 	{
; 1651 : 		GL_AddShaderDirective( options, "BMODEL_REFLECTION_PLANAR" );

	push	OFFSET ??_C@_0BJ@JCIGHEFN@BMODEL_REFLECTION_PLANAR?$AA@
	lea	eax, DWORD PTR _options$[ebp]
	push	eax
	call	?GL_AddShaderDirective@@YAXPADPBD@Z	; GL_AddShaderDirective
	add	esp, 8

; 1652 : 		
; 1653 : 		if( FBitSet( s->flags, SURF_WATER ) && gl_water_planar->value > 0 )

	mov	eax, DWORD PTR _s$[ebp]
	mov	ecx, DWORD PTR [eax+8]
	and	ecx, 16					; 00000010H
	je	SHORT $LN40@GL_UberSha
	mov	eax, DWORD PTR ?gl_water_planar@@3PAUcvar_s@@A ; gl_water_planar
	movss	xmm0, DWORD PTR [eax+12]
	comiss	xmm0, DWORD PTR __real@00000000
	jbe	SHORT $LN40@GL_UberSha

; 1654 : 			GL_AddShaderDirective( options, "BMODEL_WATER_PLANAR" );

	push	OFFSET ??_C@_0BE@LOJOFLMK@BMODEL_WATER_PLANAR?$AA@
	lea	eax, DWORD PTR _options$[ebp]
	push	eax
	call	?GL_AddShaderDirective@@YAXPADPBD@Z	; GL_AddShaderDirective
	add	esp, 8
$LN40@GL_UberSha:

; 1655 : 	}
; 1656 : 
; 1657 : 	if( tr.fogEnabled && !translucent ) // diffusion - added !translucent because additive brushes looked bad

	movzx	eax, BYTE PTR ?tr@@3Uref_globals_t@@A+5830892
	test	eax, eax
	je	SHORT $LN41@GL_UberSha
	movzx	eax, BYTE PTR _translucent$[ebp]
	test	eax, eax
	jne	SHORT $LN41@GL_UberSha

; 1658 : 		GL_AddShaderDirective( options, "BMODEL_FOG_EXP" );

	push	OFFSET ??_C@_0P@BKIJIDAM@BMODEL_FOG_EXP?$AA@
	lea	eax, DWORD PTR _options$[ebp]
	push	eax
	call	?GL_AddShaderDirective@@YAXPADPBD@Z	; GL_AddShaderDirective
	add	esp, 8
$LN41@GL_UberSha:

; 1659 : 
; 1660 : 	glsl_program_t *shader = GL_FindUberShader( glname, options, &GL_InitSolidBmodelUniforms );

	push	OFFSET ?GL_InitSolidBmodelUniforms@@YAXPAUglsl_prog_s@@@Z ; GL_InitSolidBmodelUniforms
	lea	eax, DWORD PTR _options$[ebp]
	push	eax
	lea	ecx, DWORD PTR _glname$[ebp]
	push	ecx
	call	?GL_FindUberShader@@YAPAUglsl_prog_s@@PBD0P6AXPAU1@@Z@Z ; GL_FindUberShader
	add	esp, 12					; 0000000cH
	mov	DWORD PTR _shader$[ebp], eax

; 1661 : 
; 1662 : 	if( !shader )

	cmp	DWORD PTR _shader$[ebp], 0
	jne	SHORT $LN42@GL_UberSha

; 1663 : 	{
; 1664 : 		tr.fClearScreen = true; // to avoid ugly blur

	mov	BYTE PTR ?tr@@3Uref_globals_t@@A+2, 1

; 1665 : 		SetBits( s->flags, SURF_NODRAW );

	mov	eax, DWORD PTR _s$[ebp]
	mov	ecx, DWORD PTR [eax+8]
	or	ecx, 16384				; 00004000H
	mov	edx, DWORD PTR _s$[ebp]
	mov	DWORD PTR [edx+8], ecx

; 1666 : 		return 0; // something bad happens

	xor	eax, eax
	jmp	$LN1@GL_UberSha
$LN42@GL_UberSha:

; 1667 : 	}
; 1668 : 
; 1669 : 	word shaderNum = (shader - glsl_programs);

	mov	eax, DWORD PTR _shader$[ebp]
	sub	eax, OFFSET ?glsl_programs@@3PAUglsl_prog_s@@A ; glsl_programs
	cdq
	mov	ecx, 972				; 000003ccH
	idiv	ecx
	mov	WORD PTR _shaderNum$[ebp], ax

; 1670 : 
; 1671 : 	if( using_cubemaps )

	movzx	eax, BYTE PTR _using_cubemaps$[ebp]
	test	eax, eax
	je	SHORT $LN43@GL_UberSha

; 1672 : 		SetBits( shader->status, SHADER_USE_CUBEMAPS );

	mov	eax, DWORD PTR _shader$[ebp]
	movzx	ecx, WORD PTR [eax+580]
	or	ecx, 32					; 00000020H
	mov	edx, DWORD PTR _shader$[ebp]
	mov	WORD PTR [edx+580], cx
$LN43@GL_UberSha:

; 1673 : 
; 1674 : #if 0
; 1675 : 	// can't properly draw for beams particles through glass. g-cont
; 1676 : 	// disabled for now
; 1677 : 	if( translucent )
; 1678 : 		SetBits( shader->status, SHADER_USE_SCREENCOPY );
; 1679 : #endif
; 1680 : 	es->glsl_sequence[mirror] = tr.glsl_valid_sequence;

	movzx	eax, BYTE PTR _mirror$[ebp]
	mov	ecx, DWORD PTR _es$[ebp]
	mov	dx, WORD PTR ?tr@@3Uref_globals_t@@A+5830936
	mov	WORD PTR [ecx+eax*2+178], dx

; 1681 : 	ClearBits( s->flags, SURF_NODRAW );

	mov	eax, DWORD PTR _s$[ebp]
	mov	ecx, DWORD PTR [eax+8]
	and	ecx, -16385				; ffffbfffH
	mov	edx, DWORD PTR _s$[ebp]
	mov	DWORD PTR [edx+8], ecx

; 1682 : 	es->shaderNum[mirror] = shaderNum;

	movzx	eax, BYTE PTR _mirror$[ebp]
	mov	ecx, DWORD PTR _es$[ebp]
	mov	dx, WORD PTR _shaderNum$[ebp]
	mov	WORD PTR [ecx+eax*2+166], dx

; 1683 : 	
; 1684 : 	return shaderNum;

	mov	ax, WORD PTR _shaderNum$[ebp]
$LN1@GL_UberSha:

; 1685 : }

	pop	edi
	pop	esi
	pop	ebx
	mov	ecx, DWORD PTR __$ArrayPad$[ebp]
	xor	ecx, ebp
	call	@__security_check_cookie@4
	mov	esp, ebp
	pop	ebp
	ret	0
?GL_UberShaderForSolidBmodel@@YAGPAUmsurface_s@@_N@Z ENDP ; GL_UberShaderForSolidBmodel
_TEXT	ENDS
; Function compile flags: /Odtp /ZI
; File d:\!diffusion 2020\source code 2022\client-server\client\render\r_shader.cpp
;	COMDAT ?GL_FreeGPUShaders@@YAXXZ
_TEXT	SEGMENT
_i$1 = -4						; size = 4
?GL_FreeGPUShaders@@YAXXZ PROC				; GL_FreeGPUShaders, COMDAT

; 2404 : {

	push	ebp
	mov	ebp, esp
	sub	esp, 68					; 00000044H
	push	ebx
	push	esi
	push	edi

; 2405 : 	if( !GL_Support( R_SHADER_GLSL100_EXT ))

	push	10					; 0000000aH
	call	?GL_Support@@YA_NH@Z			; GL_Support
	add	esp, 4
	movzx	eax, al
	test	eax, eax
	jne	SHORT $LN5@GL_FreeGPU

; 2406 : 		return;

	jmp	SHORT $LN1@GL_FreeGPU
$LN5@GL_FreeGPU:

; 2407 : 
; 2408 : 	for( unsigned int i = 1; i < num_glsl_programs; i++ )

	mov	DWORD PTR _i$1[ebp], 1
	jmp	SHORT $LN4@GL_FreeGPU
$LN2@GL_FreeGPU:
	mov	eax, DWORD PTR _i$1[ebp]
	add	eax, 1
	mov	DWORD PTR _i$1[ebp], eax
$LN4@GL_FreeGPU:
	mov	eax, DWORD PTR _i$1[ebp]
	cmp	eax, DWORD PTR ?num_glsl_programs@@3IA	; num_glsl_programs
	jae	SHORT $LN3@GL_FreeGPU

; 2409 : 		GL_FreeGPUShader( &glsl_programs[i] );

	imul	eax, DWORD PTR _i$1[ebp], 972
	add	eax, OFFSET ?glsl_programs@@3PAUglsl_prog_s@@A ; glsl_programs
	push	eax
	call	?GL_FreeGPUShader@@YAXPAUglsl_prog_s@@@Z ; GL_FreeGPUShader
	add	esp, 4
	jmp	SHORT $LN2@GL_FreeGPU
$LN3@GL_FreeGPU:

; 2410 : 
; 2411 : 	GL_BindShader( GL_NONE );

	push	0
	call	?GL_BindShader@@YAXPAUglsl_prog_s@@@Z	; GL_BindShader
	add	esp, 4
$LN1@GL_FreeGPU:

; 2412 : }

	pop	edi
	pop	esi
	pop	ebx
	mov	esp, ebp
	pop	ebp
	ret	0
?GL_FreeGPUShaders@@YAXXZ ENDP				; GL_FreeGPUShaders
_TEXT	ENDS
; Function compile flags: /Odtp /ZI
; File d:\!diffusion 2020\source code 2022\client-server\client\render\r_shader.cpp
;	COMDAT ?GL_InitGPUShaders@@YAXXZ
_TEXT	SEGMENT
_shader$ = -776						; size = 4
_pl$ = -772						; size = 768
__$ArrayPad$ = -4					; size = 4
?GL_InitGPUShaders@@YAXXZ PROC				; GL_InitGPUShaders, COMDAT

; 2275 : {

	push	ebp
	mov	ebp, esp
	sub	esp, 904				; 00000388H
	mov	eax, DWORD PTR ___security_cookie
	xor	eax, ebp
	mov	DWORD PTR __$ArrayPad$[ebp], eax
	push	ebx
	push	esi
	push	edi

; 2276 : 	plight_t pl;

	lea	ecx, DWORD PTR _pl$[ebp]
	call	??0plight_s@@QAE@XZ

; 2277 : 
; 2278 : 	memset( &glsl_programs, 0, sizeof( glsl_programs ));

	push	497664					; 00079800H
	push	0
	push	OFFSET ?glsl_programs@@3PAUglsl_prog_s@@A ; glsl_programs
	call	_memset
	add	esp, 12					; 0000000cH

; 2279 : 	memset( &glsl, 0, sizeof( glsl ));

	push	104					; 00000068H
	push	0
	push	OFFSET ?glsl@@3Uref_shaders_t@@A	; glsl
	call	_memset
	add	esp, 12					; 0000000cH

; 2280 : 	memset( &pl, 0, sizeof( pl ));

	push	768					; 00000300H
	push	0
	lea	eax, DWORD PTR _pl$[ebp]
	push	eax
	call	_memset
	add	esp, 12					; 0000000cH

; 2281 : 	tr.glsl_valid_sequence = 1;

	mov	DWORD PTR ?tr@@3Uref_globals_t@@A+5830936, 1

; 2282 : 	num_glsl_programs = 1; // entry #0 isn't used

	mov	DWORD PTR ?num_glsl_programs@@3IA, 1	; num_glsl_programs

; 2283 : 
; 2284 : 	if( !GL_Support( R_SHADER_GLSL100_EXT ))

	push	10					; 0000000aH
	call	?GL_Support@@YA_NH@Z			; GL_Support
	add	esp, 4
	movzx	eax, al
	test	eax, eax
	jne	SHORT $LN2@GL_InitGPU

; 2285 : 		return;

	jmp	$LN1@GL_InitGPU
$LN2@GL_InitGPU:

; 2286 : 
; 2287 : 	ADD_COMMAND( "shaderlist", GL_ListGPUShaders );

	push	OFFSET ?GL_ListGPUShaders@@YAXXZ	; GL_ListGPUShaders
	push	OFFSET ??_C@_0L@LGFNICHF@shaderlist?$AA@
	call	DWORD PTR ?gEngfuncs@@3Ucl_enginefuncs_s@@A+68
	add	esp, 8

; 2288 : 
; 2289 : 	glsl_program_t *shader; // generic pointer. help to initialize uniforms
; 2290 : 
; 2291 : 	// prepare sunshafts
; 2292 : 	glsl.genSunShafts = shader = GL_InitGPUShader( "GenSunShafts", "generic", "genshafts" );

	push	0
	push	OFFSET ??_C@_09CIAJKFPI@genshafts?$AA@
	push	OFFSET ??_C@_07DCLBNMLN@generic?$AA@
	push	OFFSET ??_C@_0N@LEDPODHG@GenSunShafts?$AA@
	call	?GL_InitGPUShader@@YAPAUglsl_prog_s@@PBD000@Z ; GL_InitGPUShader
	add	esp, 16					; 00000010H
	mov	DWORD PTR _shader$[ebp], eax
	mov	eax, DWORD PTR _shader$[ebp]
	mov	DWORD PTR ?glsl@@3Uref_shaders_t@@A, eax

; 2293 : 	GL_InitGenShaftsUniforms( shader );

	mov	eax, DWORD PTR _shader$[ebp]
	push	eax
	call	?GL_InitGenShaftsUniforms@@YAXPAUglsl_prog_s@@@Z ; GL_InitGenShaftsUniforms
	add	esp, 4

; 2294 : 
; 2295 : 	// render sunshafts
; 2296 : 	glsl.drawSunShafts = shader = GL_InitGPUShader( "DrawSunShafts", "generic", "drawshafts" );

	push	0
	push	OFFSET ??_C@_0L@LPJGKIHI@drawshafts?$AA@
	push	OFFSET ??_C@_07DCLBNMLN@generic?$AA@
	push	OFFSET ??_C@_0O@POAODLNE@DrawSunShafts?$AA@
	call	?GL_InitGPUShader@@YAPAUglsl_prog_s@@PBD000@Z ; GL_InitGPUShader
	add	esp, 16					; 00000010H
	mov	DWORD PTR _shader$[ebp], eax
	mov	eax, DWORD PTR _shader$[ebp]
	mov	DWORD PTR ?glsl@@3Uref_shaders_t@@A+12, eax

; 2297 : 	GL_InitDrawShaftsUniforms( shader );

	mov	eax, DWORD PTR _shader$[ebp]
	push	eax
	call	?GL_InitDrawShaftsUniforms@@YAXPAUglsl_prog_s@@@Z ; GL_InitDrawShaftsUniforms
	add	esp, 4

; 2298 : 
; 2299 : 	// prepare SSAO
; 2300 : 	glsl.genSSAO = shader = GL_InitGPUShader( "GenSSAO", "generic", "genssao" );

	push	0
	push	OFFSET ??_C@_07MHALMHEO@genssao?$AA@
	push	OFFSET ??_C@_07DCLBNMLN@generic?$AA@
	push	OFFSET ??_C@_07PCEHEHGA@GenSSAO?$AA@
	call	?GL_InitGPUShader@@YAPAUglsl_prog_s@@PBD000@Z ; GL_InitGPUShader
	add	esp, 16					; 00000010H
	mov	DWORD PTR _shader$[ebp], eax
	mov	eax, DWORD PTR _shader$[ebp]
	mov	DWORD PTR ?glsl@@3Uref_shaders_t@@A+60, eax

; 2301 : 	GL_InitGenSSAOUniforms( shader );

	mov	eax, DWORD PTR _shader$[ebp]
	push	eax
	call	?GL_InitGenSSAOUniforms@@YAXPAUglsl_prog_s@@@Z ; GL_InitGenSSAOUniforms
	add	esp, 4

; 2302 : 
; 2303 : 	// render SSAO
; 2304 : 	glsl.drawSSAO = shader = GL_InitGPUShader( "DrawSSAO", "generic", "drawssao" );

	push	0
	push	OFFSET ??_C@_08KBGCJECO@drawssao?$AA@
	push	OFFSET ??_C@_07DCLBNMLN@generic?$AA@
	push	OFFSET ??_C@_08OPKJPEPF@DrawSSAO?$AA@
	call	?GL_InitGPUShader@@YAPAUglsl_prog_s@@PBD000@Z ; GL_InitGPUShader
	add	esp, 16					; 00000010H
	mov	DWORD PTR _shader$[ebp], eax
	mov	eax, DWORD PTR _shader$[ebp]
	mov	DWORD PTR ?glsl@@3Uref_shaders_t@@A+64, eax

; 2305 : 	GL_InitDrawSSAOUniforms( shader );

	mov	eax, DWORD PTR _shader$[ebp]
	push	eax
	call	?GL_InitDrawSSAOUniforms@@YAXPAUglsl_prog_s@@@Z ; GL_InitDrawSSAOUniforms
	add	esp, 4

; 2306 : 
; 2307 : 	// motion blur
; 2308 : 	glsl.MotionBlur = shader = GL_InitGPUShader( "MotionBlur", "generic", "motionblur" );

	push	0
	push	OFFSET ??_C@_0L@NPAOGMOH@motionblur?$AA@
	push	OFFSET ??_C@_07DCLBNMLN@generic?$AA@
	push	OFFSET ??_C@_0L@JIFDMMDE@MotionBlur?$AA@
	call	?GL_InitGPUShader@@YAPAUglsl_prog_s@@PBD000@Z ; GL_InitGPUShader
	add	esp, 16					; 00000010H
	mov	DWORD PTR _shader$[ebp], eax
	mov	eax, DWORD PTR _shader$[ebp]
	mov	DWORD PTR ?glsl@@3Uref_shaders_t@@A+40, eax

; 2309 : 	GL_InitMotionBlurUniforms( shader );

	mov	eax, DWORD PTR _shader$[ebp]
	push	eax
	call	?GL_InitMotionBlurUniforms@@YAXPAUglsl_prog_s@@@Z ; GL_InitMotionBlurUniforms
	add	esp, 4

; 2310 : 
; 2311 : 	// horizontal blur
; 2312 : 	glsl.HorizontalBlur = shader = GL_InitGPUShader( "HorizontalBlur", "generic", "horizontalblur" );

	push	0
	push	OFFSET ??_C@_0P@BPJNBEAK@horizontalblur?$AA@
	push	OFFSET ??_C@_07DCLBNMLN@generic?$AA@
	push	OFFSET ??_C@_0P@FGJJAFJA@HorizontalBlur?$AA@
	call	?GL_InitGPUShader@@YAPAUglsl_prog_s@@PBD000@Z ; GL_InitGPUShader
	add	esp, 16					; 00000010H
	mov	DWORD PTR _shader$[ebp], eax
	mov	eax, DWORD PTR _shader$[ebp]
	mov	DWORD PTR ?glsl@@3Uref_shaders_t@@A+44, eax

; 2313 : 	GL_InitHorizontalBlurUniforms( shader );

	mov	eax, DWORD PTR _shader$[ebp]
	push	eax
	call	?GL_InitHorizontalBlurUniforms@@YAXPAUglsl_prog_s@@@Z ; GL_InitHorizontalBlurUniforms
	add	esp, 4

; 2314 : 
; 2315 : 	// monochrome
; 2316 : 	glsl.Monochrome = shader = GL_InitGPUShader( "Monochrome", "generic", "monochrome" );

	push	0
	push	OFFSET ??_C@_0L@FEJFGKNE@monochrome?$AA@
	push	OFFSET ??_C@_07DCLBNMLN@generic?$AA@
	push	OFFSET ??_C@_0L@NCAJOFAD@Monochrome?$AA@
	call	?GL_InitGPUShader@@YAPAUglsl_prog_s@@PBD000@Z ; GL_InitGPUShader
	add	esp, 16					; 00000010H
	mov	DWORD PTR _shader$[ebp], eax
	mov	eax, DWORD PTR _shader$[ebp]
	mov	DWORD PTR ?glsl@@3Uref_shaders_t@@A+56, eax

; 2317 : 	GL_InitMonochromeUniforms( shader );

	mov	eax, DWORD PTR _shader$[ebp]
	push	eax
	call	?GL_InitMonochromeUniforms@@YAXPAUglsl_prog_s@@@Z ; GL_InitMonochromeUniforms
	add	esp, 4

; 2318 : 
; 2319 : 	// various screen effects - sharpen, saturation...
; 2320 : 	glsl.Enhance = shader = GL_InitGPUShader( "Enhance", "generic", "enhance" );

	push	0
	push	OFFSET ??_C@_07BAEIAAJA@enhance?$AA@
	push	OFFSET ??_C@_07DCLBNMLN@generic?$AA@
	push	OFFSET ??_C@_07OJDOGCMG@Enhance?$AA@
	call	?GL_InitGPUShader@@YAPAUglsl_prog_s@@PBD000@Z ; GL_InitGPUShader
	add	esp, 16					; 00000010H
	mov	DWORD PTR _shader$[ebp], eax
	mov	eax, DWORD PTR _shader$[ebp]
	mov	DWORD PTR ?glsl@@3Uref_shaders_t@@A+96, eax

; 2321 : 	GL_InitEnhanceUniforms( shader );

	mov	eax, DWORD PTR _shader$[ebp]
	push	eax
	call	?GL_InitEnhanceUniforms@@YAXPAUglsl_prog_s@@@Z ; GL_InitEnhanceUniforms
	add	esp, 4

; 2322 : 
; 2323 : 	// screen water
; 2324 : 	glsl.ScreenWater = shader = GL_InitGPUShader( "ScreenWater", "generic", "screenwater" );

	push	0
	push	OFFSET ??_C@_0M@LMDPNEHE@screenwater?$AA@
	push	OFFSET ??_C@_07DCLBNMLN@generic?$AA@
	push	OFFSET ??_C@_0M@KDKCAKLK@ScreenWater?$AA@
	call	?GL_InitGPUShader@@YAPAUglsl_prog_s@@PBD000@Z ; GL_InitGPUShader
	add	esp, 16					; 00000010H
	mov	DWORD PTR _shader$[ebp], eax
	mov	eax, DWORD PTR _shader$[ebp]
	mov	DWORD PTR ?glsl@@3Uref_shaders_t@@A+48, eax

; 2325 : 	GL_InitScreenWaterUniforms( shader );

	mov	eax, DWORD PTR _shader$[ebp]
	push	eax
	call	?GL_InitScreenWaterUniforms@@YAXPAUglsl_prog_s@@@Z ; GL_InitScreenWaterUniforms
	add	esp, 4

; 2326 : 
; 2327 : 	// glitch effect
; 2328 : 	glsl.Glitch = shader = GL_InitGPUShader( "Glitch", "generic", "glitch" );

	push	0
	push	OFFSET ??_C@_06MEHOCLOK@glitch?$AA@
	push	OFFSET ??_C@_07DCLBNMLN@generic?$AA@
	push	OFFSET ??_C@_06LMDBCHG@Glitch?$AA@
	call	?GL_InitGPUShader@@YAPAUglsl_prog_s@@PBD000@Z ; GL_InitGPUShader
	add	esp, 16					; 00000010H
	mov	DWORD PTR _shader$[ebp], eax
	mov	eax, DWORD PTR _shader$[ebp]
	mov	DWORD PTR ?glsl@@3Uref_shaders_t@@A+52, eax

; 2329 : 	GL_InitGlitchUniforms( shader );

	mov	eax, DWORD PTR _shader$[ebp]
	push	eax
	call	?GL_InitGlitchUniforms@@YAXPAUglsl_prog_s@@@Z ; GL_InitGlitchUniforms
	add	esp, 4

; 2330 : 
; 2331 : 	// water drops on screen
; 2332 : 	glsl.WaterDrops = shader = GL_InitGPUShader( "WaterDrops", "generic", "waterdrops" );

	push	0
	push	OFFSET ??_C@_0L@BACGMAPK@waterdrops?$AA@
	push	OFFSET ??_C@_07DCLBNMLN@generic?$AA@
	push	OFFSET ??_C@_0L@JBBGEKBL@WaterDrops?$AA@
	call	?GL_InitGPUShader@@YAPAUglsl_prog_s@@PBD000@Z ; GL_InitGPUShader
	add	esp, 16					; 00000010H
	mov	DWORD PTR _shader$[ebp], eax
	mov	eax, DWORD PTR _shader$[ebp]
	mov	DWORD PTR ?glsl@@3Uref_shaders_t@@A+100, eax

; 2333 : 	GL_InitWaterDropsUniforms( shader );

	mov	eax, DWORD PTR _shader$[ebp]
	push	eax
	call	?GL_InitWaterDropsUniforms@@YAXPAUglsl_prog_s@@@Z ; GL_InitWaterDropsUniforms
	add	esp, 4

; 2334 : 
; 2335 : 	// tonemap
; 2336 : 	glsl.ToneMap = shader = GL_InitGPUShader( "ToneMap", "generic", "tonemap" );

	push	0
	push	OFFSET ??_C@_07DHDOCNI@tonemap?$AA@
	push	OFFSET ??_C@_07DCLBNMLN@generic?$AA@
	push	OFFSET ??_C@_07FKDHCPLA@ToneMap?$AA@
	call	?GL_InitGPUShader@@YAPAUglsl_prog_s@@PBD000@Z ; GL_InitGPUShader
	add	esp, 16					; 00000010H
	mov	DWORD PTR _shader$[ebp], eax
	mov	eax, DWORD PTR _shader$[ebp]
	mov	DWORD PTR ?glsl@@3Uref_shaders_t@@A+68, eax

; 2337 : 	GL_InitTonemapUniforms( shader );

	mov	eax, DWORD PTR _shader$[ebp]
	push	eax
	call	?GL_InitTonemapUniforms@@YAXPAUglsl_prog_s@@@Z ; GL_InitTonemapUniforms
	add	esp, 4

; 2338 : 
; 2339 : 	glsl.GenExposure = shader = GL_InitGPUShader( "GenExposure", "generic", "generate_exposure" );

	push	0
	push	OFFSET ??_C@_0BC@DGGDCKEA@generate_exposure?$AA@
	push	OFFSET ??_C@_07DCLBNMLN@generic?$AA@
	push	OFFSET ??_C@_0M@HNGKCBPC@GenExposure?$AA@
	call	?GL_InitGPUShader@@YAPAUglsl_prog_s@@PBD000@Z ; GL_InitGPUShader
	add	esp, 16					; 00000010H
	mov	DWORD PTR _shader$[ebp], eax
	mov	eax, DWORD PTR _shader$[ebp]
	mov	DWORD PTR ?glsl@@3Uref_shaders_t@@A+92, eax

; 2340 : 	GL_InitGenExposureUniforms( shader );

	mov	eax, DWORD PTR _shader$[ebp]
	push	eax
	call	?GL_InitGenExposureUniforms@@YAXPAUglsl_prog_s@@@Z ; GL_InitGenExposureUniforms
	add	esp, 4

; 2341 : 
; 2342 : 	glsl.Bloom = shader = GL_InitGPUShader( "Bloom", "generic", "bloom" );

	push	0
	push	OFFSET ??_C@_05KHFOBEOD@bloom?$AA@
	push	OFFSET ??_C@_07DCLBNMLN@generic?$AA@
	push	OFFSET ??_C@_05KAPCBBNF@Bloom?$AA@
	call	?GL_InitGPUShader@@YAPAUglsl_prog_s@@PBD000@Z ; GL_InitGPUShader
	add	esp, 16					; 00000010H
	mov	DWORD PTR _shader$[ebp], eax
	mov	eax, DWORD PTR _shader$[ebp]
	mov	DWORD PTR ?glsl@@3Uref_shaders_t@@A+76, eax

; 2343 : 	GL_InitBloomUniforms( shader );

	mov	eax, DWORD PTR _shader$[ebp]
	push	eax
	call	?GL_InitBloomUniforms@@YAXPAUglsl_prog_s@@@Z ; GL_InitBloomUniforms
	add	esp, 4

; 2344 : 
; 2345 : 	glsl.BlurMip = shader = GL_InitGPUShader( "BlurMip", "generic", "blurmip" );

	push	0
	push	OFFSET ??_C@_07DNINCIJL@blurmip?$AA@
	push	OFFSET ??_C@_07DCLBNMLN@generic?$AA@
	push	OFFSET ??_C@_07GEMJOFPD@BlurMip?$AA@
	call	?GL_InitGPUShader@@YAPAUglsl_prog_s@@PBD000@Z ; GL_InitGPUShader
	add	esp, 16					; 00000010H
	mov	DWORD PTR _shader$[ebp], eax
	mov	eax, DWORD PTR _shader$[ebp]
	mov	DWORD PTR ?glsl@@3Uref_shaders_t@@A+72, eax

; 2346 : 	GL_InitBlurMipUniforms( shader );

	mov	eax, DWORD PTR _shader$[ebp]
	push	eax
	call	?GL_InitBlurMipUniforms@@YAXPAUglsl_prog_s@@@Z ; GL_InitBlurMipUniforms
	add	esp, 4

; 2347 : 
; 2348 : 	glsl.GenLuminance = shader = GL_InitGPUShader( "GenLuminance", "generic", "generate_luminance" );

	push	0
	push	OFFSET ??_C@_0BD@NDDONEJH@generate_luminance?$AA@
	push	OFFSET ??_C@_07DCLBNMLN@generic?$AA@
	push	OFFSET ??_C@_0N@PGBKAPDM@GenLuminance?$AA@
	call	?GL_InitGPUShader@@YAPAUglsl_prog_s@@PBD000@Z ; GL_InitGPUShader
	add	esp, 16					; 00000010H
	mov	DWORD PTR _shader$[ebp], eax
	mov	eax, DWORD PTR _shader$[ebp]
	mov	DWORD PTR ?glsl@@3Uref_shaders_t@@A+84, eax

; 2349 : 	GL_InitGenLuminanceUniforms( shader );

	mov	eax, DWORD PTR _shader$[ebp]
	push	eax
	call	?GL_InitGenLuminanceUniforms@@YAXPAUglsl_prog_s@@@Z ; GL_InitGenLuminanceUniforms
	add	esp, 4

; 2350 : 
; 2351 : 	// gaussian blur for X
; 2352 : 	glsl.blurShader[0] = shader = GL_InitGPUShader( "HW_GaussBlurX", "generic", "gaussblur", "#define BLUR_X\n" );

	push	OFFSET ??_C@_0BA@LMFCEOFG@?$CDdefine?5BLUR_X?6?$AA@
	push	OFFSET ??_C@_09NOBOKBD@gaussblur?$AA@
	push	OFFSET ??_C@_07DCLBNMLN@generic?$AA@
	push	OFFSET ??_C@_0O@IFCLCIDB@HW_GaussBlurX?$AA@
	call	?GL_InitGPUShader@@YAPAUglsl_prog_s@@PBD000@Z ; GL_InitGPUShader
	add	esp, 16					; 00000010H
	mov	DWORD PTR _shader$[ebp], eax
	mov	eax, 4
	imul	ecx, eax, 0
	mov	edx, DWORD PTR _shader$[ebp]
	mov	DWORD PTR ?glsl@@3Uref_shaders_t@@A[ecx+4], edx

; 2353 : 	GL_InitPostProcessUniforms( shader );

	mov	eax, DWORD PTR _shader$[ebp]
	push	eax
	call	?GL_InitPostProcessUniforms@@YAXPAUglsl_prog_s@@@Z ; GL_InitPostProcessUniforms
	add	esp, 4

; 2354 : 
; 2355 : 	// gaussian blur for Y
; 2356 : 	glsl.blurShader[1] = shader = GL_InitGPUShader( "HW_GaussBlurY", "generic", "gaussblur", "#define BLUR_Y\n" );

	push	OFFSET ??_C@_0BA@LNJACEGB@?$CDdefine?5BLUR_Y?6?$AA@
	push	OFFSET ??_C@_09NOBOKBD@gaussblur?$AA@
	push	OFFSET ??_C@_07DCLBNMLN@generic?$AA@
	push	OFFSET ??_C@_0O@JMDABJHA@HW_GaussBlurY?$AA@
	call	?GL_InitGPUShader@@YAPAUglsl_prog_s@@PBD000@Z ; GL_InitGPUShader
	add	esp, 16					; 00000010H
	mov	DWORD PTR _shader$[ebp], eax
	mov	eax, 4
	shl	eax, 0
	mov	ecx, DWORD PTR _shader$[ebp]
	mov	DWORD PTR ?glsl@@3Uref_shaders_t@@A[eax+4], ecx

; 2357 : 	GL_InitPostProcessUniforms( shader );

	mov	eax, DWORD PTR _shader$[ebp]
	push	eax
	call	?GL_InitPostProcessUniforms@@YAXPAUglsl_prog_s@@@Z ; GL_InitPostProcessUniforms
	add	esp, 4

; 2358 : 
; 2359 : 	// draw sun & skybox
; 2360 : 	glsl.skyboxEnv = shader = GL_InitGPUShader( "SkyBoxGeneric", "generic", "skybox" );

	push	0
	push	OFFSET ??_C@_06BMKANHHL@skybox?$AA@
	push	OFFSET ??_C@_07DCLBNMLN@generic?$AA@
	push	OFFSET ??_C@_0O@JBFOLGIF@SkyBoxGeneric?$AA@
	call	?GL_InitGPUShader@@YAPAUglsl_prog_s@@PBD000@Z ; GL_InitGPUShader
	add	esp, 16					; 00000010H
	mov	DWORD PTR _shader$[ebp], eax
	mov	eax, DWORD PTR _shader$[ebp]
	mov	DWORD PTR ?glsl@@3Uref_shaders_t@@A+16, eax

; 2361 : 	GL_InitSkyBoxUniforms( shader );

	mov	eax, DWORD PTR _shader$[ebp]
	push	eax
	call	?GL_InitSkyBoxUniforms@@YAXPAUglsl_prog_s@@@Z ; GL_InitSkyBoxUniforms
	add	esp, 4

; 2362 : 
; 2363 : 	// studio shadowing
; 2364 : 	glsl.studioDepthFill[0] = shader = GL_InitGPUShader( "StudioDepth", "StudioDepth", "generic" );

	push	0
	push	OFFSET ??_C@_07DCLBNMLN@generic?$AA@
	push	OFFSET ??_C@_0M@HCHJLIAN@StudioDepth?$AA@
	push	OFFSET ??_C@_0M@HCHJLIAN@StudioDepth?$AA@
	call	?GL_InitGPUShader@@YAPAUglsl_prog_s@@PBD000@Z ; GL_InitGPUShader
	add	esp, 16					; 00000010H
	mov	DWORD PTR _shader$[ebp], eax
	mov	eax, 4
	imul	ecx, eax, 0
	mov	edx, DWORD PTR _shader$[ebp]
	mov	DWORD PTR ?glsl@@3Uref_shaders_t@@A[ecx+28], edx

; 2365 : 	GL_InitStudioDepthFillUniforms( shader );

	mov	eax, DWORD PTR _shader$[ebp]
	push	eax
	call	?GL_InitStudioDepthFillUniforms@@YAXPAUglsl_prog_s@@@Z ; GL_InitStudioDepthFillUniforms
	add	esp, 4

; 2366 : 
; 2367 : 	glsl.studioDepthFill[1] = shader = GL_InitGPUShader( "StudioDepth", "StudioDepth", "generic", "#define STUDIO_BONEWEIGHTING\n"  );

	push	OFFSET ??_C@_0BO@EFFFJJMB@?$CDdefine?5STUDIO_BONEWEIGHTING?6?$AA@
	push	OFFSET ??_C@_07DCLBNMLN@generic?$AA@
	push	OFFSET ??_C@_0M@HCHJLIAN@StudioDepth?$AA@
	push	OFFSET ??_C@_0M@HCHJLIAN@StudioDepth?$AA@
	call	?GL_InitGPUShader@@YAPAUglsl_prog_s@@PBD000@Z ; GL_InitGPUShader
	add	esp, 16					; 00000010H
	mov	DWORD PTR _shader$[ebp], eax
	mov	eax, 4
	shl	eax, 0
	mov	ecx, DWORD PTR _shader$[ebp]
	mov	DWORD PTR ?glsl@@3Uref_shaders_t@@A[eax+28], ecx

; 2368 : 	GL_InitStudioDepthFillUniforms( shader );

	mov	eax, DWORD PTR _shader$[ebp]
	push	eax
	call	?GL_InitStudioDepthFillUniforms@@YAXPAUglsl_prog_s@@@Z ; GL_InitStudioDepthFillUniforms
	add	esp, 4

; 2369 : 
; 2370 : 	// bmodel shadowing
; 2371 : 	glsl.bmodelDepthFill = shader = GL_InitGPUShader( "BrushDepth", "BmodelDepth", "generic" );

	push	0
	push	OFFSET ??_C@_07DCLBNMLN@generic?$AA@
	push	OFFSET ??_C@_0M@GGLEPNCD@BmodelDepth?$AA@
	push	OFFSET ??_C@_0L@JIKKJIAL@BrushDepth?$AA@
	call	?GL_InitGPUShader@@YAPAUglsl_prog_s@@PBD000@Z ; GL_InitGPUShader
	add	esp, 16					; 00000010H
	mov	DWORD PTR _shader$[ebp], eax
	mov	eax, DWORD PTR _shader$[ebp]
	mov	DWORD PTR ?glsl@@3Uref_shaders_t@@A+24, eax

; 2372 : 	GL_InitBmodelDepthFillUniforms( shader );

	mov	eax, DWORD PTR _shader$[ebp]
	push	eax
	call	?GL_InitBmodelDepthFillUniforms@@YAXPAUglsl_prog_s@@@Z ; GL_InitBmodelDepthFillUniforms
	add	esp, 4

; 2373 : 
; 2374 : 	// grass shadowing
; 2375 : 	glsl.grassDepthFill = shader = GL_InitGPUShader( "GrassDepth", "GrassDepth", "generic" );

	push	0
	push	OFFSET ??_C@_07DCLBNMLN@generic?$AA@
	push	OFFSET ??_C@_0L@HNAIOPAA@GrassDepth?$AA@
	push	OFFSET ??_C@_0L@HNAIOPAA@GrassDepth?$AA@
	call	?GL_InitGPUShader@@YAPAUglsl_prog_s@@PBD000@Z ; GL_InitGPUShader
	add	esp, 16					; 00000010H
	mov	DWORD PTR _shader$[ebp], eax
	mov	eax, DWORD PTR _shader$[ebp]
	mov	DWORD PTR ?glsl@@3Uref_shaders_t@@A+36, eax

; 2376 : 	GL_InitGrassSolidUniforms( shader );

	mov	eax, DWORD PTR _shader$[ebp]
	push	eax
	call	?GL_InitGrassSolidUniforms@@YAXPAUglsl_prog_s@@@Z ; GL_InitGrassSolidUniforms
	add	esp, 4

; 2377 : 
; 2378 : 	// fog processing
; 2379 : 	glsl.genericFog = shader = GL_InitGPUShader( "GenericFog", "generic", "generic", "#define GENERIC_FOG_EXP\n" );

	push	OFFSET ??_C@_0BJ@EIBCNIOJ@?$CDdefine?5GENERIC_FOG_EXP?6?$AA@
	push	OFFSET ??_C@_07DCLBNMLN@generic?$AA@
	push	OFFSET ??_C@_07DCLBNMLN@generic?$AA@
	push	OFFSET ??_C@_0L@NLJJNDD@GenericFog?$AA@
	call	?GL_InitGPUShader@@YAPAUglsl_prog_s@@PBD000@Z ; GL_InitGPUShader
	add	esp, 16					; 00000010H
	mov	DWORD PTR _shader$[ebp], eax
	mov	eax, DWORD PTR _shader$[ebp]
	mov	DWORD PTR ?glsl@@3Uref_shaders_t@@A+20, eax

; 2380 : 
; 2381 : 	// HACKHACK: precache generic light shaders
; 2382 : 	GL_UberShaderForDlightGeneric( &pl );

	lea	eax, DWORD PTR _pl$[ebp]
	push	eax
	call	?GL_UberShaderForDlightGeneric@@YAGPBUplight_s@@@Z ; GL_UberShaderForDlightGeneric
	add	esp, 4

; 2383 : //	SetBits( pl.flags, CF_NOSHADOWS );
; 2384 : //	GL_UberShaderForDlightGeneric( &pl );
; 2385 : 	pl.pointlight = true;

	mov	BYTE PTR _pl$[ebp+44], 1

; 2386 : 	GL_UberShaderForDlightGeneric( &pl );

	lea	eax, DWORD PTR _pl$[ebp]
	push	eax
	call	?GL_UberShaderForDlightGeneric@@YAGPBUplight_s@@@Z ; GL_UberShaderForDlightGeneric
	add	esp, 4
$LN1@GL_InitGPU:

; 2387 : }

	pop	edi
	pop	esi
	pop	ebx
	mov	ecx, DWORD PTR __$ArrayPad$[ebp]
	xor	ecx, ebp
	call	@__security_check_cookie@4
	mov	esp, ebp
	pop	ebp
	ret	0
?GL_InitGPUShaders@@YAXXZ ENDP				; GL_InitGPUShaders
_TEXT	ENDS
; Function compile flags: /Odtp /ZI
; File d:\!diffusion 2020\source code 2022\client-server\client\render\r_shader.cpp
;	COMDAT ?GL_FreeUberShaders@@YAXXZ
_TEXT	SEGMENT
_i$1 = -4						; size = 4
?GL_FreeUberShaders@@YAXXZ PROC				; GL_FreeUberShaders, COMDAT

; 2390 : {

	push	ebp
	mov	ebp, esp
	sub	esp, 68					; 00000044H
	push	ebx
	push	esi
	push	edi

; 2391 : 	if( !GL_Support( R_SHADER_GLSL100_EXT ))

	push	10					; 0000000aH
	call	?GL_Support@@YA_NH@Z			; GL_Support
	add	esp, 4
	movzx	eax, al
	test	eax, eax
	jne	SHORT $LN5@GL_FreeUbe

; 2392 : 		return;

	jmp	SHORT $LN1@GL_FreeUbe
$LN5@GL_FreeUbe:

; 2393 : 
; 2394 : 	for( unsigned int i = 1; i < num_glsl_programs; i++ )

	mov	DWORD PTR _i$1[ebp], 1
	jmp	SHORT $LN4@GL_FreeUbe
$LN2@GL_FreeUbe:
	mov	eax, DWORD PTR _i$1[ebp]
	add	eax, 1
	mov	DWORD PTR _i$1[ebp], eax
$LN4@GL_FreeUbe:
	mov	eax, DWORD PTR _i$1[ebp]
	cmp	eax, DWORD PTR ?num_glsl_programs@@3IA	; num_glsl_programs
	jae	SHORT $LN3@GL_FreeUbe

; 2395 : 	{
; 2396 : 		if( FBitSet( glsl_programs[i].status, SHADER_UBERSHADER )) 

	imul	eax, DWORD PTR _i$1[ebp], 972
	movzx	ecx, WORD PTR ?glsl_programs@@3PAUglsl_prog_s@@A[eax+580]
	and	ecx, 8
	je	SHORT $LN6@GL_FreeUbe

; 2397 : 			GL_FreeGPUShader( &glsl_programs[i] );

	imul	eax, DWORD PTR _i$1[ebp], 972
	add	eax, OFFSET ?glsl_programs@@3PAUglsl_prog_s@@A ; glsl_programs
	push	eax
	call	?GL_FreeGPUShader@@YAXPAUglsl_prog_s@@@Z ; GL_FreeGPUShader
	add	esp, 4
$LN6@GL_FreeUbe:

; 2398 : 	}

	jmp	SHORT $LN2@GL_FreeUbe
$LN3@GL_FreeUbe:

; 2399 : 
; 2400 : 	GL_BindShader( GL_NONE );

	push	0
	call	?GL_BindShader@@YAXPAUglsl_prog_s@@@Z	; GL_BindShader
	add	esp, 4
$LN1@GL_FreeUbe:

; 2401 : }

	pop	edi
	pop	esi
	pop	ebx
	mov	esp, ebp
	pop	ebp
	ret	0
?GL_FreeUberShaders@@YAXXZ ENDP				; GL_FreeUberShaders
_TEXT	ENDS
; Function compile flags: /Odtp /ZI
; File d:\!diffusion 2020\source code 2022\client-server\client\render\r_shader.cpp
;	COMDAT ?GL_BindShader@@YAXPAUglsl_prog_s@@@Z
_TEXT	SEGMENT
_shader$ = 8						; size = 4
?GL_BindShader@@YAXPAUglsl_prog_s@@@Z PROC		; GL_BindShader, COMDAT

; 455  : {

	push	ebp
	mov	ebp, esp
	sub	esp, 64					; 00000040H
	push	ebx
	push	esi
	push	edi

; 456  : 	if( !shader && RI->currentshader )

	cmp	DWORD PTR _shader$[ebp], 0
	jne	SHORT $LN2@GL_BindSha
	mov	eax, DWORD PTR ?RI@@3PAUref_instance_t@@A ; RI
	cmp	DWORD PTR [eax+28], 0
	je	SHORT $LN2@GL_BindSha

; 457  : 	{
; 458  : 		pglUseProgramObjectARB( GL_NONE );

	push	0
	call	DWORD PTR ?pglUseProgramObjectARB@@3P6GXI@ZA ; pglUseProgramObjectARB

; 459  : 	//	pglUseProgram( GL_NONE );
; 460  : 		RI->currentshader = NULL;

	mov	eax, DWORD PTR ?RI@@3PAUref_instance_t@@A ; RI
	mov	DWORD PTR [eax+28], 0
	jmp	SHORT $LN1@GL_BindSha
$LN2@GL_BindSha:

; 461  : 	}
; 462  : 	else if( shader != RI->currentshader && shader != NULL && shader->handle )

	mov	eax, DWORD PTR ?RI@@3PAUref_instance_t@@A ; RI
	mov	ecx, DWORD PTR _shader$[ebp]
	cmp	ecx, DWORD PTR [eax+28]
	je	SHORT $LN1@GL_BindSha
	cmp	DWORD PTR _shader$[ebp], 0
	je	SHORT $LN1@GL_BindSha
	mov	eax, DWORD PTR _shader$[ebp]
	cmp	DWORD PTR [eax+576], 0
	je	SHORT $LN1@GL_BindSha

; 463  : 	{
; 464  : 		pglUseProgramObjectARB( shader->handle );

	mov	eax, DWORD PTR _shader$[ebp]
	mov	ecx, DWORD PTR [eax+576]
	push	ecx
	call	DWORD PTR ?pglUseProgramObjectARB@@3P6GXI@ZA ; pglUseProgramObjectARB

; 465  : 	//	pglUseProgram( shader->handle );
; 466  : 		r_stats.num_shader_binds++;

	mov	eax, DWORD PTR ?r_stats@@3Uref_stats_t@@A+84
	add	eax, 1
	mov	DWORD PTR ?r_stats@@3Uref_stats_t@@A+84, eax

; 467  : 		RI->currentshader = shader;

	mov	eax, DWORD PTR ?RI@@3PAUref_instance_t@@A ; RI
	mov	ecx, DWORD PTR _shader$[ebp]
	mov	DWORD PTR [eax+28], ecx
$LN1@GL_BindSha:

; 468  : 	}
; 469  : }

	pop	edi
	pop	esi
	pop	ebx
	mov	esp, ebp
	pop	ebp
	ret	0
?GL_BindShader@@YAXPAUglsl_prog_s@@@Z ENDP		; GL_BindShader
_TEXT	ENDS
; Function compile flags: /Odtp /ZI
; File d:\!diffusion 2020\source code 2022\client-server\client\render\r_shader.cpp
;	COMDAT ?GL_PretifyListOptions@@YAPBDPBD_N@Z
_TEXT	SEGMENT
_pfind$1 = -16						; size = 4
_pout$ = -12						; size = 4
_pend$ = -8						; size = 4
_pstart$ = -4						; size = 4
_options$ = 8						; size = 4
_newlines$ = 12						; size = 1
?GL_PretifyListOptions@@YAPBDPBD_N@Z PROC		; GL_PretifyListOptions, COMDAT

; 1464 : {

	push	ebp
	mov	ebp, esp
	sub	esp, 80					; 00000050H
	push	ebx
	push	esi
	push	edi

; 1465 : 	static char output[MAX_OPTIONS_LENGTH];
; 1466 : 	const char *pstart = options;

	mov	eax, DWORD PTR _options$[ebp]
	mov	DWORD PTR _pstart$[ebp], eax

; 1467 : 	const char *pend = options + Q_strlen( options );

	mov	eax, DWORD PTR _options$[ebp]
	push	eax
	call	?Q_strlen@@YAHPBD@Z			; Q_strlen
	add	esp, 4
	add	eax, DWORD PTR _options$[ebp]
	mov	DWORD PTR _pend$[ebp], eax

; 1468 : 	char *pout = output;

	mov	DWORD PTR _pout$[ebp], OFFSET ?output@?1??GL_PretifyListOptions@@YAPBDPBD_N@Z@4PADA

; 1469 : 
; 1470 : 	*pout = '\0';

	mov	eax, DWORD PTR _pout$[ebp]
	mov	BYTE PTR [eax], 0
$LN2@GL_Pretify:

; 1471 : 
; 1472 : 	while( pstart < pend )

	mov	eax, DWORD PTR _pstart$[ebp]
	cmp	eax, DWORD PTR _pend$[ebp]
	jae	$LN3@GL_Pretify

; 1473 : 	{
; 1474 : 		const char *pfind = Q_strstr( pstart, "#define" );

	push	OFFSET ??_C@_07MAHLPAJA@?$CDdefine?$AA@
	mov	eax, DWORD PTR _pstart$[ebp]
	push	eax
	call	?Q_strstr@@YAPADPBD0@Z			; Q_strstr
	add	esp, 8
	mov	DWORD PTR _pfind$1[ebp], eax

; 1475 : 		if( !pfind ) break;

	cmp	DWORD PTR _pfind$1[ebp], 0
	jne	SHORT $LN7@GL_Pretify
	jmp	SHORT $LN3@GL_Pretify
$LN7@GL_Pretify:

; 1476 : 
; 1477 : 		pstart = pfind + Q_strlen( "#define" );

	push	OFFSET ??_C@_07MAHLPAJA@?$CDdefine?$AA@
	call	?Q_strlen@@YAHPBD@Z			; Q_strlen
	add	esp, 4
	add	eax, DWORD PTR _pfind$1[ebp]
	mov	DWORD PTR _pstart$[ebp], eax

; 1478 : 
; 1479 : 		for( ; *pstart != '\n'; pstart++, pout++ )

	jmp	SHORT $LN6@GL_Pretify
$LN4@GL_Pretify:
	mov	eax, DWORD PTR _pstart$[ebp]
	add	eax, 1
	mov	DWORD PTR _pstart$[ebp], eax
	mov	ecx, DWORD PTR _pout$[ebp]
	add	ecx, 1
	mov	DWORD PTR _pout$[ebp], ecx
$LN6@GL_Pretify:
	mov	eax, DWORD PTR _pstart$[ebp]
	movsx	ecx, BYTE PTR [eax]
	cmp	ecx, 10					; 0000000aH
	je	SHORT $LN5@GL_Pretify

; 1480 : 			*pout = *pstart;

	mov	eax, DWORD PTR _pout$[ebp]
	mov	ecx, DWORD PTR _pstart$[ebp]
	mov	dl, BYTE PTR [ecx]
	mov	BYTE PTR [eax], dl
	jmp	SHORT $LN4@GL_Pretify
$LN5@GL_Pretify:

; 1481 : 		if( newlines )

	movzx	eax, BYTE PTR _newlines$[ebp]
	test	eax, eax
	je	SHORT $LN8@GL_Pretify

; 1482 : 			*pout++ = *pstart++;

	mov	eax, DWORD PTR _pout$[ebp]
	mov	ecx, DWORD PTR _pstart$[ebp]
	mov	dl, BYTE PTR [ecx]
	mov	BYTE PTR [eax], dl
	mov	eax, DWORD PTR _pout$[ebp]
	add	eax, 1
	mov	DWORD PTR _pout$[ebp], eax
	mov	ecx, DWORD PTR _pstart$[ebp]
	add	ecx, 1
	mov	DWORD PTR _pstart$[ebp], ecx
	jmp	SHORT $LN9@GL_Pretify
$LN8@GL_Pretify:

; 1483 : 		else pstart++; // skip '\n'

	mov	eax, DWORD PTR _pstart$[ebp]
	add	eax, 1
	mov	DWORD PTR _pstart$[ebp], eax
$LN9@GL_Pretify:

; 1484 : 	}

	jmp	$LN2@GL_Pretify
$LN3@GL_Pretify:

; 1485 : 
; 1486 : 	if( pout == output )

	cmp	DWORD PTR _pout$[ebp], OFFSET ?output@?1??GL_PretifyListOptions@@YAPBDPBD_N@Z@4PADA
	jne	SHORT $LN10@GL_Pretify

; 1487 : 		return ""; // nothing found

	mov	eax, OFFSET ??_C@_00CNPNBAHC@?$AA@
	jmp	SHORT $LN1@GL_Pretify
$LN10@GL_Pretify:

; 1488 : 
; 1489 : 	*pout++ = ' ';

	mov	eax, DWORD PTR _pout$[ebp]
	mov	BYTE PTR [eax], 32			; 00000020H
	mov	ecx, DWORD PTR _pout$[ebp]
	add	ecx, 1
	mov	DWORD PTR _pout$[ebp], ecx

; 1490 : 	*pout = '\0';

	mov	eax, DWORD PTR _pout$[ebp]
	mov	BYTE PTR [eax], 0

; 1491 : 
; 1492 : 	return output;

	mov	eax, OFFSET ?output@?1??GL_PretifyListOptions@@YAPBDPBD_N@Z@4PADA
$LN1@GL_Pretify:

; 1493 : }

	pop	edi
	pop	esi
	pop	ebx
	mov	esp, ebp
	pop	ebp
	ret	0
?GL_PretifyListOptions@@YAPBDPBD_N@Z ENDP		; GL_PretifyListOptions
_TEXT	ENDS
; Function compile flags: /Odtp /ZI
;	COMDAT ??0plight_s@@QAE@XZ
_TEXT	SEGMENT
_this$ = -4						; size = 4
??0plight_s@@QAE@XZ PROC				; plight_s::plight_s, COMDAT
; _this$ = ecx
	push	ebp
	mov	ebp, esp
	sub	esp, 68					; 00000044H
	push	ebx
	push	esi
	push	edi
	mov	DWORD PTR _this$[ebp], ecx
	mov	ecx, DWORD PTR _this$[ebp]
	call	??0Vector@@QAE@XZ			; Vector::Vector
	mov	ecx, DWORD PTR _this$[ebp]
	add	ecx, 12					; 0000000cH
	call	??0Vector@@QAE@XZ			; Vector::Vector
	mov	ecx, DWORD PTR _this$[ebp]
	add	ecx, 48					; 00000030H
	call	??0matrix4x4@@QAE@XZ			; matrix4x4::matrix4x4
	mov	ecx, DWORD PTR _this$[ebp]
	add	ecx, 112				; 00000070H
	call	??0matrix4x4@@QAE@XZ			; matrix4x4::matrix4x4
	mov	ecx, DWORD PTR _this$[ebp]
	add	ecx, 176				; 000000b0H
	call	??0matrix4x4@@QAE@XZ			; matrix4x4::matrix4x4
	mov	ecx, DWORD PTR _this$[ebp]
	add	ecx, 240				; 000000f0H
	call	??0matrix4x4@@QAE@XZ			; matrix4x4::matrix4x4
	mov	ecx, DWORD PTR _this$[ebp]
	add	ecx, 304				; 00000130H
	call	??0Vector@@QAE@XZ			; Vector::Vector
	mov	ecx, DWORD PTR _this$[ebp]
	add	ecx, 316				; 0000013cH
	call	??0Vector@@QAE@XZ			; Vector::Vector
	mov	ecx, DWORD PTR _this$[ebp]
	add	ecx, 328				; 00000148H
	call	??0CFrustum@@QAE@XZ
	mov	eax, DWORD PTR _this$[ebp]
	pop	edi
	pop	esi
	pop	ebx
	mov	esp, ebp
	pop	ebp
	ret	0
??0plight_s@@QAE@XZ ENDP				; plight_s::plight_s
_TEXT	ENDS
; Function compile flags: /Odtp /ZI
;	COMDAT ??0CFrustum@@QAE@XZ
_TEXT	SEGMENT
_this$ = -4						; size = 4
??0CFrustum@@QAE@XZ PROC				; CFrustum::CFrustum, COMDAT
; _this$ = ecx
	push	ebp
	mov	ebp, esp
	sub	esp, 68					; 00000044H
	push	ebx
	push	esi
	push	edi
	mov	DWORD PTR _this$[ebp], ecx
	push	OFFSET ??0mplane_s@@QAE@XZ
	push	6
	push	20					; 00000014H
	mov	eax, DWORD PTR _this$[ebp]
	push	eax
	call	??_H@YGXPAXIIP6EPAX0@Z@Z
	mov	eax, DWORD PTR _this$[ebp]
	pop	edi
	pop	esi
	pop	ebx
	mov	esp, ebp
	pop	ebp
	ret	0
??0CFrustum@@QAE@XZ ENDP				; CFrustum::CFrustum
_TEXT	ENDS
; Function compile flags: /Odtp /ZI
;	COMDAT ??0mplane_s@@QAE@XZ
_TEXT	SEGMENT
_this$ = -4						; size = 4
??0mplane_s@@QAE@XZ PROC				; mplane_s::mplane_s, COMDAT
; _this$ = ecx
	push	ebp
	mov	ebp, esp
	sub	esp, 68					; 00000044H
	push	ebx
	push	esi
	push	edi
	mov	DWORD PTR _this$[ebp], ecx
	mov	ecx, DWORD PTR _this$[ebp]
	call	??0Vector@@QAE@XZ			; Vector::Vector
	mov	eax, DWORD PTR _this$[ebp]
	pop	edi
	pop	esi
	pop	ebx
	mov	esp, ebp
	pop	ebp
	ret	0
??0mplane_s@@QAE@XZ ENDP				; mplane_s::mplane_s
_TEXT	ENDS
; Function compile flags: /Odtp /ZI
; File d:\!diffusion 2020\source code 2022\client-server\game_shared\vector.h
;	COMDAT ??0Vector@@QAE@XZ
_TEXT	SEGMENT
_this$ = -4						; size = 4
??0Vector@@QAE@XZ PROC					; Vector::Vector, COMDAT
; _this$ = ecx

; 143  : 	inline Vector(void)				{ }

	push	ebp
	mov	ebp, esp
	sub	esp, 68					; 00000044H
	push	ebx
	push	esi
	push	edi
	mov	DWORD PTR _this$[ebp], ecx
	mov	eax, DWORD PTR _this$[ebp]
	pop	edi
	pop	esi
	pop	ebx
	mov	esp, ebp
	pop	ebp
	ret	0
??0Vector@@QAE@XZ ENDP					; Vector::Vector
_TEXT	ENDS
; Function compile flags: /Odtp /ZI
;	COMDAT ??__G@YGXPAX0IIP6EPAX00@Z@Z
_TEXT	SEGMENT
tv66 = -68						; size = 4
___t$ = 8						; size = 4
___u$ = 12						; size = 4
___s$ = 16						; size = 4
___n$ = 20						; size = 4
___f$ = 24						; size = 4
??__G@YGXPAX0IIP6EPAX00@Z@Z PROC			; `vector copy constructor iterator', COMDAT
	push	ebp
	mov	ebp, esp
	sub	esp, 68					; 00000044H
	push	ebx
	push	esi
	push	edi
$LN2@vector:
	mov	eax, DWORD PTR ___n$[ebp]
	mov	DWORD PTR tv66[ebp], eax
	mov	ecx, DWORD PTR ___n$[ebp]
	sub	ecx, 1
	mov	DWORD PTR ___n$[ebp], ecx
	cmp	DWORD PTR tv66[ebp], 0
	jbe	SHORT $LN1@vector
	mov	eax, DWORD PTR ___u$[ebp]
	push	eax
	mov	ecx, DWORD PTR ___t$[ebp]
	call	DWORD PTR ___f$[ebp]
	mov	eax, DWORD PTR ___t$[ebp]
	add	eax, DWORD PTR ___s$[ebp]
	mov	DWORD PTR ___t$[ebp], eax
	mov	eax, DWORD PTR ___u$[ebp]
	add	eax, DWORD PTR ___s$[ebp]
	mov	DWORD PTR ___u$[ebp], eax
	jmp	SHORT $LN2@vector
$LN1@vector:
	pop	edi
	pop	esi
	pop	ebx
	mov	esp, ebp
	pop	ebp
	ret	20					; 00000014H
??__G@YGXPAX0IIP6EPAX00@Z@Z ENDP			; `vector copy constructor iterator'
_TEXT	ENDS
; Function compile flags: /Odtp /ZI
;	COMDAT ??_H@YGXPAXIIP6EPAX0@Z@Z
_TEXT	SEGMENT
tv66 = -68						; size = 4
___t$ = 8						; size = 4
___s$ = 12						; size = 4
___n$ = 16						; size = 4
___f$ = 20						; size = 4
??_H@YGXPAXIIP6EPAX0@Z@Z PROC				; `vector constructor iterator', COMDAT
	push	ebp
	mov	ebp, esp
	sub	esp, 68					; 00000044H
	push	ebx
	push	esi
	push	edi
$LN2@vector:
	mov	eax, DWORD PTR ___n$[ebp]
	mov	DWORD PTR tv66[ebp], eax
	mov	ecx, DWORD PTR ___n$[ebp]
	sub	ecx, 1
	mov	DWORD PTR ___n$[ebp], ecx
	cmp	DWORD PTR tv66[ebp], 0
	jbe	SHORT $LN1@vector
	mov	ecx, DWORD PTR ___t$[ebp]
	call	DWORD PTR ___f$[ebp]
	mov	eax, DWORD PTR ___t$[ebp]
	add	eax, DWORD PTR ___s$[ebp]
	mov	DWORD PTR ___t$[ebp], eax
	jmp	SHORT $LN2@vector
$LN1@vector:
	pop	edi
	pop	esi
	pop	ebx
	mov	esp, ebp
	pop	ebp
	ret	16					; 00000010H
??_H@YGXPAXIIP6EPAX0@Z@Z ENDP				; `vector constructor iterator'
_TEXT	ENDS
END
