; Listing generated by Microsoft (R) Optimizing Compiler Version 19.00.24247.2 

	TITLE	D:\!DIFFUSION 2020\source code 2022\client-server\client\render\r_shadows.cpp
	.686P
	.XMM
	include listing.inc
	.model	flat

INCLUDELIB LIBCMT
INCLUDELIB OLDNAMES

_BSS	SEGMENT
?ShadowQualityLevel@@3HA DD 01H DUP (?)			; ShadowQualityLevel
?FBOsupported@@3_NA DB 01H DUP (?)			; FBOsupported
_BSS	ENDS
_DATA	SEGMENT
?ShadowViewport@@3HA DD 0200H				; ShadowViewport
_DATA	ENDS
PUBLIC	??_H@YGXPAXIIP6EPAX0@Z@Z			; `vector constructor iterator'
PUBLIC	??__G@YGXPAX0IIP6EPAX00@Z@Z			; `vector copy constructor iterator'
PUBLIC	?SinCos@@YAXMPAM0@Z				; SinCos
PUBLIC	??0Vector@@QAE@MMM@Z				; Vector::Vector
PUBLIC	??BVector@@QAEPAMXZ				; Vector::operator float *
PUBLIC	??BVector@@QBEPBMXZ				; Vector::operator float const *
PUBLIC	??0Vector4D@@QAE@XZ				; Vector4D::Vector4D
PUBLIC	??0Vector4D@@QAE@ABV0@@Z			; Vector4D::Vector4D
PUBLIC	??BVector4D@@QAEPAMXZ				; Vector4D::operator float *
PUBLIC	??0matrix4x4@@QAE@ABVVector@@0M@Z		; matrix4x4::matrix4x4
PUBLIC	?ConcatTranslate@matrix4x4@@QAEXMMM@Z		; matrix4x4::ConcatTranslate
PUBLIC	?ConcatRotate@matrix4x4@@QAEXMMMM@Z		; matrix4x4::ConcatRotate
PUBLIC	??0matrix4x4@@QAE@ABV0@@Z			; matrix4x4::matrix4x4
PUBLIC	?anglemod@@YAMM@Z				; anglemod
PUBLIC	?R_DrawStudioModel@@YAXPAUcl_entity_s@@@Z	; R_DrawStudioModel
PUBLIC	?R_RenderShadowmaps@@YAXXZ			; R_RenderShadowmaps
PUBLIC	?R_ResetShadowTextures@@YAXXZ			; R_ResetShadowTextures
PUBLIC	?R_AllocateShadowFramebuffer@@YAHPAUplight_s@@H@Z ; R_AllocateShadowFramebuffer
PUBLIC	?R_AllocateShadowTexture@@YAHXZ			; R_AllocateShadowTexture
PUBLIC	?R_AllocateShadowCubemap@@YAHH@Z		; R_AllocateShadowCubemap
PUBLIC	?R_ShadowPassDrawSolidEntities@@YAXPAUplight_s@@@Z ; R_ShadowPassDrawSolidEntities
PUBLIC	?R_RenderShadowScene@@YAXPAUplight_s@@@Z	; R_RenderShadowScene
PUBLIC	?R_RenderShadowCubeSide@@YAXPAUplight_s@@H@Z	; R_RenderShadowCubeSide
PUBLIC	??_C@_0DC@EDEGIHDA@FBO?5not?5supported?0?5shadow?5qualit@ ; `string'
PUBLIC	??_C@_0CL@GJNFOFDD@Shadow?5textures?5reset?5to?5quality@ ; `string'
PUBLIC	??_C@_0EF@HPBGCPHF@ERROR?3?5R_AllocateShadowFramebuff@ ; `string'
PUBLIC	??_C@_0DO@MFMCHOGJ@ERROR?3?5R_AllocateShadowFramebuff@ ; `string'
PUBLIC	??_C@_0M@FLCILGDA@?$CKshadowCM?$CFi?$AA@	; `string'
PUBLIC	??_C@_0DO@CEFJGLOO@R_AllocateShadowFramebuffer?3?5sha@ ; `string'
PUBLIC	??_C@_09FHLNGGMP@?$CKshadow?$CFi?$AA@		; `string'
PUBLIC	??_C@_0EB@BJIJFOEE@ERROR?3?5R_AllocateShadowTexture?3?5@ ; `string'
PUBLIC	??_C@_0EB@KOGEHOGD@ERROR?3?5R_AllocateShadowCubemap?3?5@ ; `string'
PUBLIC	??_C@_0DK@KAKOCMJD@ERROR?3?5R_AllocateShadowCubemap?3?5@ ; `string'
PUBLIC	??_C@_0CF@NIDBEHFC@R_RenderShadowView?3?5NULL?5worldmo@ ; `string'
PUBLIC	__real@00000000
PUBLIC	__real@3bb40000
PUBLIC	__real@3dcccccd
PUBLIC	__real@3f4ccccd
PUBLIC	__real@3f800000
PUBLIC	__real@3f91df46a2529d39
PUBLIC	__real@3fa00000
PUBLIC	__real@40000000
PUBLIC	__real@42b40000
PUBLIC	__real@43340000
PUBLIC	__real@43360b61
PUBLIC	__real@43870000
PUBLIC	__real@bf800000
PUBLIC	__real@c0000000
PUBLIC	__real@c2b40000
PUBLIC	__xmm@80000000800000008000000080000000
EXTRN	_memset:PROC
EXTRN	_cos:PROC
EXTRN	_sin:PROC
EXTRN	??0matrix4x4@@QAE@XZ:PROC			; matrix4x4::matrix4x4
EXTRN	?CreateModelview@matrix4x4@@QAEXXZ:PROC		; matrix4x4::CreateModelview
EXTRN	?CreateTranslate@matrix4x4@@QAEXMMM@Z:PROC	; matrix4x4::CreateTranslate
EXTRN	?CreateRotate@matrix4x4@@QAEXMMMM@Z:PROC	; matrix4x4::CreateRotate
EXTRN	??4matrix4x4@@QAEAAV0@ABV0@@Z:PROC		; matrix4x4::operator=
EXTRN	?Concat@matrix4x4@@QAE?AV1@V1@@Z:PROC		; matrix4x4::Concat
EXTRN	?Q_snprintf@@YAHPADIPBDZZ:PROC			; Q_snprintf
EXTRN	?ALERT@@YAXW4ALERT_TYPE@@PADZZ:PROC		; ALERT
EXTRN	?Mod_CheckBoxVisible@@YA_NABVVector@@0@Z:PROC	; Mod_CheckBoxVisible
EXTRN	?InitProjection@CFrustum@@QAEXABVmatrix4x4@@MMMM@Z:PROC ; CFrustum::InitProjection
EXTRN	?CullBox@CFrustum@@QAE_NABVVector@@0H@Z:PROC	; CFrustum::CullBox
EXTRN	?DrawStudioModelInternal@CStudioModelRenderer@@QAEXPAUcl_entity_s@@@Z:PROC ; CStudioModelRenderer::DrawStudioModelInternal
EXTRN	?GL_Support@@YA_NH@Z:PROC			; GL_Support
EXTRN	?GL_LoadMatrix@@YAXVmatrix4x4@@@Z:PROC		; GL_LoadMatrix
EXTRN	?GL_Cull@@YAXI@Z:PROC				; GL_Cull
EXTRN	?ValidateFBO@@YA_NXZ:PROC			; ValidateFBO
EXTRN	?R_CountPlights@@YAH_N@Z:PROC			; R_CountPlights
EXTRN	?R_DrawParticles@@YAXH@Z:PROC			; R_DrawParticles
EXTRN	?R_FindViewLeaf@@YAXXZ:PROC			; R_FindViewLeaf
EXTRN	?R_ResetRefState@@YAXXZ:PROC			; R_ResetRefState
EXTRN	?R_PushRefState@@YAXXZ:PROC			; R_PushRefState
EXTRN	?R_PopRefState@@YAXXZ:PROC			; R_PopRefState
EXTRN	?R_MarkLeaves@@YAXXZ:PROC			; R_MarkLeaves
EXTRN	?GL_BindShader@@YAXPAUglsl_prog_s@@@Z:PROC	; GL_BindShader
EXTRN	?R_DrawWorldShadowPass@@YAXXZ:PROC		; R_DrawWorldShadowPass
EXTRN	?R_DrawBrushModelShadow@@YAXPAUcl_entity_s@@@Z:PROC ; R_DrawBrushModelShadow
EXTRN	@__security_check_cookie@4:PROC
EXTRN	?gEngfuncs@@3Ucl_enginefuncs_s@@A:BYTE		; gEngfuncs
EXTRN	?gRenderfuncs@@3Urender_api_s@@A:BYTE		; gRenderfuncs
EXTRN	?pglClear@@3P6GXI@ZA:DWORD			; pglClear
EXTRN	?pglColor4f@@3P6GXMMMM@ZA:DWORD			; pglColor4f
EXTRN	?pglColorMask@@3P6GXEEEE@ZA:DWORD		; pglColorMask
EXTRN	?pglCopyTexImage2D@@3P6GXIHIHHHHH@ZA:DWORD	; pglCopyTexImage2D
EXTRN	?pglDepthMask@@3P6GXE@ZA:DWORD			; pglDepthMask
EXTRN	?pglDisable@@3P6GXI@ZA:DWORD			; pglDisable
EXTRN	?pglEnable@@3P6GXI@ZA:DWORD			; pglEnable
EXTRN	?pglMatrixMode@@3P6GXI@ZA:DWORD			; pglMatrixMode
EXTRN	?pglPolygonOffset@@3P6GXMM@ZA:DWORD		; pglPolygonOffset
EXTRN	?pglViewport@@3P6GXHHHH@ZA:DWORD		; pglViewport
EXTRN	?pglBindFramebuffer@@3P6GXII@ZA:DWORD		; pglBindFramebuffer
EXTRN	?pglGenFramebuffers@@3P6GXHPAI@ZA:DWORD		; pglGenFramebuffers
EXTRN	?pglFramebufferTexture2D@@3P6GXIIIIH@ZA:DWORD	; pglFramebufferTexture2D
EXTRN	?r_shadows@@3PAUcvar_s@@A:DWORD			; r_shadows
EXTRN	?r_fullbright@@3PAUcvar_s@@A:DWORD		; r_fullbright
EXTRN	?r_shadowquality@@3PAUcvar_s@@A:DWORD		; r_shadowquality
EXTRN	?g_StudioRenderer@@3VCStudioModelRenderer@@A:BYTE ; g_StudioRenderer
EXTRN	?worldmodel@@3PAUmodel_s@@A:DWORD		; worldmodel
EXTRN	?RI@@3PAUref_instance_t@@A:DWORD		; RI
EXTRN	?tr@@3Uref_globals_t@@A:BYTE			; tr
EXTRN	?r_stats@@3Uref_stats_t@@A:BYTE			; r_stats
EXTRN	?cl_plights@@3PAUplight_s@@A:BYTE		; cl_plights
EXTRN	?glState@@3UglState_t@@A:BYTE			; glState
EXTRN	___security_cookie:DWORD
EXTRN	__fltused:DWORD
_BSS	SEGMENT
	ALIGN	4

?light_sides@@3PAVVector@@A DB 048H DUP (?)		; light_sides
?framebuffer@@3PAIA DD 040H DUP (?)			; framebuffer
?framebufferCM@@3PAIA DD 040H DUP (?)			; framebufferCM
_BSS	ENDS
CRT$XCU	SEGMENT
?light_sides$initializer$@@3P6AXXZA DD FLAT:??__Elight_sides@@YAXXZ ; light_sides$initializer$
CRT$XCU	ENDS
;	COMDAT __xmm@80000000800000008000000080000000
CONST	SEGMENT
__xmm@80000000800000008000000080000000 DB 00H, 00H, 00H, 080H, 00H, 00H, 00H
	DB	080H, 00H, 00H, 00H, 080H, 00H, 00H, 00H, 080H
CONST	ENDS
;	COMDAT __real@c2b40000
CONST	SEGMENT
__real@c2b40000 DD 0c2b40000r			; -90
CONST	ENDS
;	COMDAT __real@c0000000
CONST	SEGMENT
__real@c0000000 DD 0c0000000r			; -2
CONST	ENDS
;	COMDAT __real@bf800000
CONST	SEGMENT
__real@bf800000 DD 0bf800000r			; -1
CONST	ENDS
;	COMDAT __real@43870000
CONST	SEGMENT
__real@43870000 DD 043870000r			; 270
CONST	ENDS
;	COMDAT __real@43360b61
CONST	SEGMENT
__real@43360b61 DD 043360b61r			; 182.044
CONST	ENDS
;	COMDAT __real@43340000
CONST	SEGMENT
__real@43340000 DD 043340000r			; 180
CONST	ENDS
;	COMDAT __real@42b40000
CONST	SEGMENT
__real@42b40000 DD 042b40000r			; 90
CONST	ENDS
;	COMDAT __real@40000000
CONST	SEGMENT
__real@40000000 DD 040000000r			; 2
CONST	ENDS
;	COMDAT __real@3fa00000
CONST	SEGMENT
__real@3fa00000 DD 03fa00000r			; 1.25
CONST	ENDS
;	COMDAT __real@3f91df46a2529d39
CONST	SEGMENT
__real@3f91df46a2529d39 DQ 03f91df46a2529d39r	; 0.0174533
CONST	ENDS
;	COMDAT __real@3f800000
CONST	SEGMENT
__real@3f800000 DD 03f800000r			; 1
CONST	ENDS
;	COMDAT __real@3f4ccccd
CONST	SEGMENT
__real@3f4ccccd DD 03f4ccccdr			; 0.8
CONST	ENDS
;	COMDAT __real@3dcccccd
CONST	SEGMENT
__real@3dcccccd DD 03dcccccdr			; 0.1
CONST	ENDS
;	COMDAT __real@3bb40000
CONST	SEGMENT
__real@3bb40000 DD 03bb40000r			; 0.00549316
CONST	ENDS
;	COMDAT __real@00000000
CONST	SEGMENT
__real@00000000 DD 000000000r			; 0
CONST	ENDS
;	COMDAT ??_C@_0CF@NIDBEHFC@R_RenderShadowView?3?5NULL?5worldmo@
CONST	SEGMENT
??_C@_0CF@NIDBEHFC@R_RenderShadowView?3?5NULL?5worldmo@ DB 'R_RenderShado'
	DB	'wView: NULL worldmodel', 0aH, 00H		; `string'
CONST	ENDS
;	COMDAT ??_C@_0DK@KAKOCMJD@ERROR?3?5R_AllocateShadowCubemap?3?5@
CONST	SEGMENT
??_C@_0DK@KAKOCMJD@ERROR?3?5R_AllocateShadowCubemap?3?5@ DB 'ERROR: R_All'
	DB	'ocateShadowCubemap: cubemap not initialized!', 0aH, 00H ; `string'
CONST	ENDS
;	COMDAT ??_C@_0EB@KOGEHOGD@ERROR?3?5R_AllocateShadowCubemap?3?5@
CONST	SEGMENT
??_C@_0EB@KOGEHOGD@ERROR?3?5R_AllocateShadowCubemap?3?5@ DB 'ERROR: R_All'
	DB	'ocateShadowCubemap: shadow cubemaps limit exceeded!', 0aH, 00H ; `string'
CONST	ENDS
;	COMDAT ??_C@_0EB@BJIJFOEE@ERROR?3?5R_AllocateShadowTexture?3?5@
CONST	SEGMENT
??_C@_0EB@BJIJFOEE@ERROR?3?5R_AllocateShadowTexture?3?5@ DB 'ERROR: R_All'
	DB	'ocateShadowTexture: shadow textures limit exceeded!', 0aH, 00H ; `string'
CONST	ENDS
;	COMDAT ??_C@_09FHLNGGMP@?$CKshadow?$CFi?$AA@
CONST	SEGMENT
??_C@_09FHLNGGMP@?$CKshadow?$CFi?$AA@ DB '*shadow%i', 00H ; `string'
CONST	ENDS
;	COMDAT ??_C@_0DO@CEFJGLOO@R_AllocateShadowFramebuffer?3?5sha@
CONST	SEGMENT
??_C@_0DO@CEFJGLOO@R_AllocateShadowFramebuffer?3?5sha@ DB 'R_AllocateShad'
	DB	'owFramebuffer: shadow textures limit exceeded!', 0aH, 00H ; `string'
CONST	ENDS
;	COMDAT ??_C@_0M@FLCILGDA@?$CKshadowCM?$CFi?$AA@
CONST	SEGMENT
??_C@_0M@FLCILGDA@?$CKshadowCM?$CFi?$AA@ DB '*shadowCM%i', 00H ; `string'
CONST	ENDS
;	COMDAT ??_C@_0DO@MFMCHOGJ@ERROR?3?5R_AllocateShadowFramebuff@
CONST	SEGMENT
??_C@_0DO@MFMCHOGJ@ERROR?3?5R_AllocateShadowFramebuff@ DB 'ERROR: R_Alloc'
	DB	'ateShadowFramebuffer: cubemap not initialized!', 0aH, 00H ; `string'
CONST	ENDS
;	COMDAT ??_C@_0EF@HPBGCPHF@ERROR?3?5R_AllocateShadowFramebuff@
CONST	SEGMENT
??_C@_0EF@HPBGCPHF@ERROR?3?5R_AllocateShadowFramebuff@ DB 'ERROR: R_Alloc'
	DB	'ateShadowFramebuffer: shadow cubemaps limit exceeded!', 0aH, 00H ; `string'
CONST	ENDS
;	COMDAT ??_C@_0CL@GJNFOFDD@Shadow?5textures?5reset?5to?5quality@
CONST	SEGMENT
??_C@_0CL@GJNFOFDD@Shadow?5textures?5reset?5to?5quality@ DB 'Shadow textu'
	DB	'res reset to quality %i (%ip)', 0aH, 00H	; `string'
CONST	ENDS
;	COMDAT ??_C@_0DC@EDEGIHDA@FBO?5not?5supported?0?5shadow?5qualit@
CONST	SEGMENT
??_C@_0DC@EDEGIHDA@FBO?5not?5supported?0?5shadow?5qualit@ DB 'FBO not sup'
	DB	'ported, shadow quality reset to (%ip)', 0aH, 00H ; `string'
CONST	ENDS
; Function compile flags: /Odtp /ZI
; File d:\!diffusion 2020\source code 2022\client-server\client\render\r_shadows.cpp
;	COMDAT ?R_RenderShadowCubeSide@@YAXPAUplight_s@@H@Z
_TEXT	SEGMENT
tv89 = -68						; size = 4
_pl$ = 8						; size = 4
_side$ = 12						; size = 4
?R_RenderShadowCubeSide@@YAXPAUplight_s@@H@Z PROC	; R_RenderShadowCubeSide, COMDAT

; 506  : {

	push	ebp
	mov	ebp, esp
	sub	esp, 68					; 00000044H
	push	ebx
	push	esi
	push	edi

; 507  : 	RI->params = RP_SHADOWPASS;

	mov	eax, DWORD PTR ?RI@@3PAUref_instance_t@@A ; RI
	mov	DWORD PTR [eax], 256			; 00000100H

; 508  : 
; 509  : 	RI->viewport[2] = RI->viewport[3] = ShadowViewport;

	mov	eax, 4
	imul	ecx, eax, 3
	mov	edx, DWORD PTR ?RI@@3PAUref_instance_t@@A ; RI
	mov	eax, DWORD PTR ?ShadowViewport@@3HA
	mov	DWORD PTR [edx+ecx+32], eax
	mov	ecx, 4
	shl	ecx, 1
	mov	edx, DWORD PTR ?RI@@3PAUref_instance_t@@A ; RI
	mov	eax, DWORD PTR ?ShadowViewport@@3HA
	mov	DWORD PTR [edx+ecx+32], eax

; 510  : 
; 511  : 	if( FBOsupported )

	movzx	eax, BYTE PTR ?FBOsupported@@3_NA
	test	eax, eax
	je	SHORT $LN2@R_RenderSh

; 512  : 		pl->shadowTexture[0] = R_AllocateShadowFramebuffer( pl, side );

	mov	eax, DWORD PTR _side$[ebp]
	push	eax
	mov	ecx, DWORD PTR _pl$[ebp]
	push	ecx
	call	?R_AllocateShadowFramebuffer@@YAHPAUplight_s@@H@Z ; R_AllocateShadowFramebuffer
	add	esp, 8
	mov	edx, 4
	imul	ecx, edx, 0
	mov	edx, DWORD PTR _pl$[ebp]
	mov	DWORD PTR [edx+ecx+468], eax
$LN2@R_RenderSh:

; 513  : 
; 514  : 	R_ShadowPassSetupFrame( pl, side );

	mov	eax, DWORD PTR _side$[ebp]
	push	eax
	mov	ecx, DWORD PTR _pl$[ebp]
	push	ecx
	call	?R_ShadowPassSetupFrame@@YAXPAUplight_s@@H@Z ; R_ShadowPassSetupFrame
	add	esp, 8

; 515  : 	R_ShadowPassSetupGL( pl, side );

	mov	eax, DWORD PTR _side$[ebp]
	push	eax
	mov	ecx, DWORD PTR _pl$[ebp]
	push	ecx
	call	?R_ShadowPassSetupGL@@YAXPBUplight_s@@H@Z ; R_ShadowPassSetupGL
	add	esp, 8

; 516  : 	pglClear( GL_DEPTH_BUFFER_BIT );

	push	256					; 00000100H
	call	DWORD PTR ?pglClear@@3P6GXI@ZA		; pglClear

; 517  : 
; 518  : 	R_MarkLeaves();

	call	?R_MarkLeaves@@YAXXZ			; R_MarkLeaves

; 519  : 	R_ShadowPassDrawWorld( pl );

	mov	eax, DWORD PTR _pl$[ebp]
	push	eax
	call	?R_ShadowPassDrawWorld@@YAXPAUplight_s@@@Z ; R_ShadowPassDrawWorld
	add	esp, 4

; 520  : 	R_ShadowPassDrawSolidEntities( pl );

	mov	eax, DWORD PTR _pl$[ebp]
	push	eax
	call	?R_ShadowPassDrawSolidEntities@@YAXPAUplight_s@@@Z ; R_ShadowPassDrawSolidEntities
	add	esp, 4

; 521  : 	//	R_DrawParticles( false );
; 522  : 	R_ShadowPassEndGL();

	call	?R_ShadowPassEndGL@@YAXXZ		; R_ShadowPassEndGL

; 523  : 
; 524  : 	if( FBOsupported )

	movzx	eax, BYTE PTR ?FBOsupported@@3_NA
	test	eax, eax
	je	SHORT $LN3@R_RenderSh

; 525  : 		pglBindFramebuffer( GL_FRAMEBUFFER_EXT, glState.frameBuffer == -1 ? 0 : glState.frameBuffer );

	cmp	DWORD PTR ?glState@@3UglState_t@@A+24, -1
	jne	SHORT $LN6@R_RenderSh
	mov	DWORD PTR tv89[ebp], 0
	jmp	SHORT $LN7@R_RenderSh
$LN6@R_RenderSh:
	mov	eax, DWORD PTR ?glState@@3UglState_t@@A+24
	mov	DWORD PTR tv89[ebp], eax
$LN7@R_RenderSh:
	mov	ecx, DWORD PTR tv89[ebp]
	push	ecx
	push	36160					; 00008d40H
	call	DWORD PTR ?pglBindFramebuffer@@3P6GXII@ZA ; pglBindFramebuffer

; 526  : 	else

	jmp	SHORT $LN1@R_RenderSh
$LN3@R_RenderSh:

; 527  : 		pl->shadowTexture[0] = R_AllocateShadowCubemap( side );

	mov	eax, DWORD PTR _side$[ebp]
	push	eax
	call	?R_AllocateShadowCubemap@@YAHH@Z	; R_AllocateShadowCubemap
	add	esp, 4
	mov	ecx, 4
	imul	edx, ecx, 0
	mov	ecx, DWORD PTR _pl$[ebp]
	mov	DWORD PTR [ecx+edx+468], eax
$LN1@R_RenderSh:

; 528  : }

	pop	edi
	pop	esi
	pop	ebx
	mov	esp, ebp
	pop	ebp
	ret	0
?R_RenderShadowCubeSide@@YAXPAUplight_s@@H@Z ENDP	; R_RenderShadowCubeSide
_TEXT	ENDS
; Function compile flags: /Odtp /ZI
; File d:\!diffusion 2020\source code 2022\client-server\client\render\r_shadows.cpp
;	COMDAT ?R_RenderShadowScene@@YAXPAUplight_s@@@Z
_TEXT	SEGMENT
tv128 = -68						; size = 4
_pl$ = 8						; size = 4
?R_RenderShadowScene@@YAXPAUplight_s@@@Z PROC		; R_RenderShadowScene, COMDAT

; 471  : {

	push	ebp
	mov	ebp, esp
	sub	esp, 68					; 00000044H
	push	ebx
	push	esi
	push	edi

; 472  : 	RI->params = RP_SHADOWPASS;

	mov	eax, DWORD PTR ?RI@@3PAUref_instance_t@@A ; RI
	mov	DWORD PTR [eax], 256			; 00000100H

; 473  : 	
; 474  : 	// set the worldmodel
; 475  : 	worldmodel = GET_ENTITY( 0 )->model;

	push	0
	call	DWORD PTR ?gEngfuncs@@3Ucl_enginefuncs_s@@A+212
	add	esp, 4
	mov	eax, DWORD PTR [eax+2964]
	mov	DWORD PTR ?worldmodel@@3PAUmodel_s@@A, eax ; worldmodel

; 476  : 
; 477  : 	if( !worldmodel )

	cmp	DWORD PTR ?worldmodel@@3PAUmodel_s@@A, 0 ; worldmodel
	jne	SHORT $LN2@R_RenderSh

; 478  : 	{
; 479  : 		ALERT( at_error, "R_RenderShadowView: NULL worldmodel\n" );

	push	OFFSET ??_C@_0CF@NIDBEHFC@R_RenderShadowView?3?5NULL?5worldmo@
	push	4
	call	?ALERT@@YAXW4ALERT_TYPE@@PADZZ		; ALERT
	add	esp, 8

; 480  : 		return;

	jmp	$LN1@R_RenderSh
$LN2@R_RenderSh:

; 481  : 	}
; 482  : 
; 483  : 	RI->viewport[2] = RI->viewport[3] = ShadowViewport;

	mov	eax, 4
	imul	ecx, eax, 3
	mov	edx, DWORD PTR ?RI@@3PAUref_instance_t@@A ; RI
	mov	eax, DWORD PTR ?ShadowViewport@@3HA
	mov	DWORD PTR [edx+ecx+32], eax
	mov	ecx, 4
	shl	ecx, 1
	mov	edx, DWORD PTR ?RI@@3PAUref_instance_t@@A ; RI
	mov	eax, DWORD PTR ?ShadowViewport@@3HA
	mov	DWORD PTR [edx+ecx+32], eax

; 484  : 
; 485  : 	if( FBOsupported )

	movzx	eax, BYTE PTR ?FBOsupported@@3_NA
	test	eax, eax
	je	SHORT $LN3@R_RenderSh

; 486  : 		pl->shadowTexture[0] = R_AllocateShadowFramebuffer( pl );

	push	0
	mov	eax, DWORD PTR _pl$[ebp]
	push	eax
	call	?R_AllocateShadowFramebuffer@@YAHPAUplight_s@@H@Z ; R_AllocateShadowFramebuffer
	add	esp, 8
	mov	ecx, 4
	imul	edx, ecx, 0
	mov	ecx, DWORD PTR _pl$[ebp]
	mov	DWORD PTR [ecx+edx+468], eax
$LN3@R_RenderSh:

; 487  : 
; 488  : 	r_stats.num_passes++;

	mov	eax, DWORD PTR ?r_stats@@3Uref_stats_t@@A+80
	add	eax, 1
	mov	DWORD PTR ?r_stats@@3Uref_stats_t@@A+80, eax

; 489  : 	R_ShadowPassSetupFrame( pl );

	push	0
	mov	eax, DWORD PTR _pl$[ebp]
	push	eax
	call	?R_ShadowPassSetupFrame@@YAXPAUplight_s@@H@Z ; R_ShadowPassSetupFrame
	add	esp, 8

; 490  : 	R_ShadowPassSetupGL( pl );

	push	0
	mov	eax, DWORD PTR _pl$[ebp]
	push	eax
	call	?R_ShadowPassSetupGL@@YAXPBUplight_s@@H@Z ; R_ShadowPassSetupGL
	add	esp, 8

; 491  : 	pglClear( GL_DEPTH_BUFFER_BIT );

	push	256					; 00000100H
	call	DWORD PTR ?pglClear@@3P6GXI@ZA		; pglClear

; 492  : 
; 493  : 	R_MarkLeaves();

	call	?R_MarkLeaves@@YAXXZ			; R_MarkLeaves

; 494  : 	R_ShadowPassDrawWorld( pl );

	mov	eax, DWORD PTR _pl$[ebp]
	push	eax
	call	?R_ShadowPassDrawWorld@@YAXPAUplight_s@@@Z ; R_ShadowPassDrawWorld
	add	esp, 4

; 495  : 	R_ShadowPassDrawSolidEntities( pl );

	mov	eax, DWORD PTR _pl$[ebp]
	push	eax
	call	?R_ShadowPassDrawSolidEntities@@YAXPAUplight_s@@@Z ; R_ShadowPassDrawSolidEntities
	add	esp, 4

; 496  : 
; 497  : 	R_ShadowPassEndGL();

	call	?R_ShadowPassEndGL@@YAXXZ		; R_ShadowPassEndGL

; 498  : 
; 499  : 	if( FBOsupported )

	movzx	eax, BYTE PTR ?FBOsupported@@3_NA
	test	eax, eax
	je	SHORT $LN4@R_RenderSh

; 500  : 		pglBindFramebuffer( GL_FRAMEBUFFER_EXT, glState.frameBuffer == -1 ? 0 : glState.frameBuffer );

	cmp	DWORD PTR ?glState@@3UglState_t@@A+24, -1
	jne	SHORT $LN7@R_RenderSh
	mov	DWORD PTR tv128[ebp], 0
	jmp	SHORT $LN8@R_RenderSh
$LN7@R_RenderSh:
	mov	eax, DWORD PTR ?glState@@3UglState_t@@A+24
	mov	DWORD PTR tv128[ebp], eax
$LN8@R_RenderSh:
	mov	ecx, DWORD PTR tv128[ebp]
	push	ecx
	push	36160					; 00008d40H
	call	DWORD PTR ?pglBindFramebuffer@@3P6GXII@ZA ; pglBindFramebuffer

; 501  : 	else

	jmp	SHORT $LN1@R_RenderSh
$LN4@R_RenderSh:

; 502  : 		pl->shadowTexture[0] = R_AllocateShadowTexture();

	call	?R_AllocateShadowTexture@@YAHXZ		; R_AllocateShadowTexture
	mov	ecx, 4
	imul	edx, ecx, 0
	mov	ecx, DWORD PTR _pl$[ebp]
	mov	DWORD PTR [ecx+edx+468], eax
$LN1@R_RenderSh:

; 503  : }

	pop	edi
	pop	esi
	pop	ebx
	mov	esp, ebp
	pop	ebp
	ret	0
?R_RenderShadowScene@@YAXPAUplight_s@@@Z ENDP		; R_RenderShadowScene
_TEXT	ENDS
; Function compile flags: /Odtp /ZI
; File d:\!diffusion 2020\source code 2022\client-server\client\render\r_shadows.cpp
;	COMDAT ?R_ShadowPassDrawSolidEntities@@YAXPAUplight_s@@@Z
_TEXT	SEGMENT
tv87 = -72						; size = 4
_i$ = -4						; size = 4
_pl$ = 8						; size = 4
?R_ShadowPassDrawSolidEntities@@YAXPAUplight_s@@@Z PROC	; R_ShadowPassDrawSolidEntities, COMDAT

; 392  : {

	push	ebp
	mov	ebp, esp
	sub	esp, 72					; 00000048H
	push	ebx
	push	esi
	push	edi

; 393  : 	int	i;
; 394  : 
; 395  : 	glState.drawTrans = false;

	mov	DWORD PTR ?glState@@3UglState_t@@A+32, 0

; 396  : 
; 397  : 	// draw solid entities only
; 398  : 	for( i = 0; i < tr.num_solid_entities; i++ )

	mov	DWORD PTR _i$[ebp], 0
	jmp	SHORT $LN4@R_ShadowPa
$LN2@R_ShadowPa:
	mov	eax, DWORD PTR _i$[ebp]
	add	eax, 1
	mov	DWORD PTR _i$[ebp], eax
$LN4@R_ShadowPa:
	mov	eax, DWORD PTR _i$[ebp]
	cmp	eax, DWORD PTR ?tr@@3Uref_globals_t@@A+4765684
	jge	$LN3@R_ShadowPa

; 399  : 	{
; 400  : 		RI->currententity = tr.solid_entities[i];

	mov	eax, DWORD PTR ?RI@@3PAUref_instance_t@@A ; RI
	mov	ecx, DWORD PTR _i$[ebp]
	mov	edx, DWORD PTR ?tr@@3Uref_globals_t@@A[ecx*4+4732148]
	mov	DWORD PTR [eax+16], edx

; 401  : 		RI->currentmodel = RI->currententity->model;

	mov	eax, DWORD PTR ?RI@@3PAUref_instance_t@@A ; RI
	mov	ecx, DWORD PTR [eax+16]
	mov	edx, DWORD PTR ?RI@@3PAUref_instance_t@@A ; RI
	mov	eax, DWORD PTR [ecx+2964]
	mov	DWORD PTR [edx+20], eax

; 402  : 
; 403  : 		if( RI->currentmodel->type == mod_sprite )

	mov	eax, DWORD PTR ?RI@@3PAUref_instance_t@@A ; RI
	mov	ecx, DWORD PTR [eax+20]
	cmp	DWORD PTR [ecx+68], 1
	jne	SHORT $LN7@R_ShadowPa

; 404  : 			continue;

	jmp	SHORT $LN2@R_ShadowPa
$LN7@R_ShadowPa:

; 405  : 
; 406  : 		// this model has indicated to not make shadows
; 407  : 		if( (RI->currententity->curstate.renderfx == kRenderFxNoShadows) || (RI->currententity->curstate.renderfx == kRenderFxFullbrightNoShadows) )

	mov	eax, DWORD PTR ?RI@@3PAUref_instance_t@@A ; RI
	mov	ecx, DWORD PTR [eax+16]
	cmp	DWORD PTR [ecx+772], 22			; 00000016H
	je	SHORT $LN9@R_ShadowPa
	mov	eax, DWORD PTR ?RI@@3PAUref_instance_t@@A ; RI
	mov	ecx, DWORD PTR [eax+16]
	cmp	DWORD PTR [ecx+772], 25			; 00000019H
	jne	SHORT $LN8@R_ShadowPa
$LN9@R_ShadowPa:

; 408  : 			continue;

	jmp	SHORT $LN2@R_ShadowPa
$LN8@R_ShadowPa:

; 409  : 
; 410  : 		// tell engine about current entity
; 411  : 		SET_CURRENT_ENTITY( RI->currententity );

	mov	eax, DWORD PTR ?RI@@3PAUref_instance_t@@A ; RI
	mov	ecx, DWORD PTR [eax+16]
	push	ecx
	call	DWORD PTR ?gRenderfuncs@@3Urender_api_s@@A+32
	add	esp, 4

; 412  : 
; 413  : 		switch( RI->currentmodel->type )

	mov	eax, DWORD PTR ?RI@@3PAUref_instance_t@@A ; RI
	mov	ecx, DWORD PTR [eax+20]
	mov	edx, DWORD PTR [ecx+68]
	mov	DWORD PTR tv87[ebp], edx
	cmp	DWORD PTR tv87[ebp], 0
	je	SHORT $LN10@R_ShadowPa
	cmp	DWORD PTR tv87[ebp], 3
	je	SHORT $LN11@R_ShadowPa
	jmp	SHORT $LN5@R_ShadowPa
$LN10@R_ShadowPa:

; 414  : 		{
; 415  : 		case mod_brush:
; 416  : 			R_DrawBrushModelShadow( RI->currententity );

	mov	eax, DWORD PTR ?RI@@3PAUref_instance_t@@A ; RI
	mov	ecx, DWORD PTR [eax+16]
	push	ecx
	call	?R_DrawBrushModelShadow@@YAXPAUcl_entity_s@@@Z ; R_DrawBrushModelShadow
	add	esp, 4

; 417  : 			break;

	jmp	SHORT $LN5@R_ShadowPa
$LN11@R_ShadowPa:

; 418  : 		case mod_studio:
; 419  : 		{
; 420  : 			if( (pl->flags & CF_ONLYBRUSHSHADOWS) && (RI->currententity->curstate.renderfx != kRenderFxForceShadow) )

	mov	eax, DWORD PTR _pl$[ebp]
	mov	ecx, DWORD PTR [eax+744]
	and	ecx, 8192				; 00002000H
	je	SHORT $LN12@R_ShadowPa
	mov	eax, DWORD PTR ?RI@@3PAUref_instance_t@@A ; RI
	mov	ecx, DWORD PTR [eax+16]
	cmp	DWORD PTR [ecx+772], 26			; 0000001aH
	je	SHORT $LN12@R_ShadowPa

; 421  : 				break;

	jmp	SHORT $LN5@R_ShadowPa
$LN12@R_ShadowPa:

; 422  : 			
; 423  : 			// diffusion - don't draw shadows for your own player/weapon model from your own flashlight
; 424  : 			if( pl->effect == 1 )

	mov	eax, DWORD PTR _pl$[ebp]
	cmp	DWORD PTR [eax+752], 1
	jne	SHORT $LN13@R_ShadowPa

; 425  : 			{
; 426  : 				if( RI->currententity->index != pl->entitynum )

	mov	eax, DWORD PTR ?RI@@3PAUref_instance_t@@A ; RI
	mov	ecx, DWORD PTR [eax+16]
	mov	edx, DWORD PTR _pl$[ebp]
	mov	eax, DWORD PTR [ecx]
	cmp	eax, DWORD PTR [edx+756]
	je	SHORT $LN15@R_ShadowPa

; 427  : 					R_DrawStudioModel( RI->currententity );

	mov	eax, DWORD PTR ?RI@@3PAUref_instance_t@@A ; RI
	mov	ecx, DWORD PTR [eax+16]
	push	ecx
	call	?R_DrawStudioModel@@YAXPAUcl_entity_s@@@Z ; R_DrawStudioModel
	add	esp, 4
$LN15@R_ShadowPa:

; 428  : 			}
; 429  : 			else

	jmp	SHORT $LN5@R_ShadowPa
$LN13@R_ShadowPa:

; 430  : 				R_DrawStudioModel( RI->currententity );

	mov	eax, DWORD PTR ?RI@@3PAUref_instance_t@@A ; RI
	mov	ecx, DWORD PTR [eax+16]
	push	ecx
	call	?R_DrawStudioModel@@YAXPAUcl_entity_s@@@Z ; R_DrawStudioModel
	add	esp, 4
$LN5@R_ShadowPa:

; 431  : 		}
; 432  : 		break;
; 433  : 		default:
; 434  : 			break;
; 435  : 		}
; 436  : 	}

	jmp	$LN2@R_ShadowPa
$LN3@R_ShadowPa:

; 437  : 
; 438  : 	// diffusion - we draw only transalpha brushes here. but I changed them to opaque mode, so they were already drawn.
; 439  : 	// draw trans entities only
; 440  : 	/*
; 441  : 	for( i = 0; i < tr.num_trans_entities; i++ )
; 442  : 	{
; 443  : 		RI->currententity = tr.trans_entities[i];
; 444  : 		RI->currentmodel = RI->currententity->model;
; 445  : 
; 446  : 		if( RI->currentmodel->type != mod_brush )
; 447  : 			continue;
; 448  : 
; 449  : 		if( RI->currententity->curstate.rendermode != kRenderTransAlpha )
; 450  : 			continue;
; 451  : 
; 452  : 		// tell engine about current entity
; 453  : 		SET_CURRENT_ENTITY( RI->currententity );
; 454  : 
; 455  : 		R_DrawBrushModelShadow( RI->currententity );
; 456  : 	}*/
; 457  : 
; 458  : 	// may be solid cables
; 459  : 	R_DrawParticles( false );

	push	0
	call	?R_DrawParticles@@YAXH@Z		; R_DrawParticles
	add	esp, 4

; 460  : }

	pop	edi
	pop	esi
	pop	ebx
	mov	esp, ebp
	pop	ebp
	ret	0
?R_ShadowPassDrawSolidEntities@@YAXPAUplight_s@@@Z ENDP	; R_ShadowPassDrawSolidEntities
_TEXT	ENDS
; Function compile flags: /Odtp /ZI
; File d:\!diffusion 2020\source code 2022\client-server\client\render\r_shadows.cpp
;	COMDAT ?R_ShadowPassDrawWorld@@YAXPAUplight_s@@@Z
_TEXT	SEGMENT
_pl$ = 8						; size = 4
?R_ShadowPassDrawWorld@@YAXPAUplight_s@@@Z PROC		; R_ShadowPassDrawWorld, COMDAT

; 384  : {

	push	ebp
	mov	ebp, esp
	sub	esp, 64					; 00000040H
	push	ebx
	push	esi
	push	edi

; 385  : 	if( FBitSet( pl->flags, CF_NOWORLD_PROJECTION ))

	mov	eax, DWORD PTR _pl$[ebp]
	mov	ecx, DWORD PTR [eax+744]
	and	ecx, 256				; 00000100H
	je	SHORT $LN2@R_ShadowPa

; 386  : 		return;	// no worldlight, no worldshadows

	jmp	SHORT $LN1@R_ShadowPa
$LN2@R_ShadowPa:

; 387  : 
; 388  : 	R_DrawWorldShadowPass();

	call	?R_DrawWorldShadowPass@@YAXXZ		; R_DrawWorldShadowPass
$LN1@R_ShadowPa:

; 389  : }

	pop	edi
	pop	esi
	pop	ebx
	mov	esp, ebp
	pop	ebp
	ret	0
?R_ShadowPassDrawWorld@@YAXPAUplight_s@@@Z ENDP		; R_ShadowPassDrawWorld
_TEXT	ENDS
; Function compile flags: /Odtp /ZI
; File d:\!diffusion 2020\source code 2022\client-server\client\render\r_shadows.cpp
;	COMDAT ?R_ShadowPassEndGL@@YAXXZ
_TEXT	SEGMENT
?R_ShadowPassEndGL@@YAXXZ PROC				; R_ShadowPassEndGL, COMDAT

; 370  : {

	push	ebp
	mov	ebp, esp
	sub	esp, 64					; 00000040H
	push	ebx
	push	esi
	push	edi

; 371  : 	pglColorMask( GL_TRUE, GL_TRUE, GL_TRUE, GL_TRUE );

	push	1
	push	1
	push	1
	push	1
	call	DWORD PTR ?pglColorMask@@3P6GXEEEE@ZA	; pglColorMask

; 372  : 	pglDisable( GL_POLYGON_OFFSET_FILL );

	push	32823					; 00008037H
	call	DWORD PTR ?pglDisable@@3P6GXI@ZA	; pglDisable

; 373  : 	pglEnable( GL_TEXTURE_2D );

	push	3553					; 00000de1H
	call	DWORD PTR ?pglEnable@@3P6GXI@ZA		; pglEnable

; 374  : 	pglPolygonOffset( -1, -2 );

	push	ecx
	movss	xmm0, DWORD PTR __real@c0000000
	movss	DWORD PTR [esp], xmm0
	push	ecx
	movss	xmm0, DWORD PTR __real@bf800000
	movss	DWORD PTR [esp], xmm0
	call	DWORD PTR ?pglPolygonOffset@@3P6GXMM@ZA	; pglPolygonOffset

; 375  : 	GL_BindShader( GL_FALSE );

	push	0
	call	?GL_BindShader@@YAXPAUglsl_prog_s@@@Z	; GL_BindShader
	add	esp, 4

; 376  : }

	pop	edi
	pop	esi
	pop	ebx
	mov	esp, ebp
	pop	ebp
	ret	0
?R_ShadowPassEndGL@@YAXXZ ENDP				; R_ShadowPassEndGL
_TEXT	ENDS
; Function compile flags: /Odtp /ZI
; File d:\!diffusion 2020\source code 2022\client-server\client\render\r_shadows.cpp
;	COMDAT ?R_ShadowPassSetupGL@@YAXPBUplight_s@@H@Z
_TEXT	SEGMENT
$T1 = -136						; size = 64
__$ArrayPad$ = -4					; size = 4
_pl$ = 8						; size = 4
_split$ = 12						; size = 4
?R_ShadowPassSetupGL@@YAXPBUplight_s@@H@Z PROC		; R_ShadowPassSetupGL, COMDAT

; 325  : {

	push	ebp
	mov	ebp, esp
	sub	esp, 144				; 00000090H
	mov	eax, DWORD PTR ___security_cookie
	xor	eax, ebp
	mov	DWORD PTR __$ArrayPad$[ebp], eax
	push	ebx
	push	esi
	push	edi

; 326  : 	if( pl->pointlight )

	mov	eax, DWORD PTR _pl$[ebp]
	movzx	ecx, BYTE PTR [eax+44]
	test	ecx, ecx
	je	$LN2@R_ShadowPa

; 327  : 	{
; 328  : 		RI->worldviewMatrix.CreateModelview();

	mov	ecx, DWORD PTR ?RI@@3PAUref_instance_t@@A ; RI
	add	ecx, 428				; 000001acH
	call	?CreateModelview@matrix4x4@@QAEXXZ	; matrix4x4::CreateModelview

; 329  : 		RI->worldviewMatrix.ConcatRotate( -light_sides[split].z, 1, 0, 0 );

	push	ecx
	xorps	xmm0, xmm0
	movss	DWORD PTR [esp], xmm0
	push	ecx
	xorps	xmm0, xmm0
	movss	DWORD PTR [esp], xmm0
	push	ecx
	movss	xmm0, DWORD PTR __real@3f800000
	movss	DWORD PTR [esp], xmm0
	imul	eax, DWORD PTR _split$[ebp], 12
	movss	xmm0, DWORD PTR ?light_sides@@3PAVVector@@A[eax+8]
	xorps	xmm0, DWORD PTR __xmm@80000000800000008000000080000000
	push	ecx
	movss	DWORD PTR [esp], xmm0
	mov	ecx, DWORD PTR ?RI@@3PAUref_instance_t@@A ; RI
	add	ecx, 428				; 000001acH
	call	?ConcatRotate@matrix4x4@@QAEXMMMM@Z	; matrix4x4::ConcatRotate

; 330  : 		RI->worldviewMatrix.ConcatRotate( -light_sides[split].x, 0, 1, 0 );

	push	ecx
	xorps	xmm0, xmm0
	movss	DWORD PTR [esp], xmm0
	push	ecx
	movss	xmm0, DWORD PTR __real@3f800000
	movss	DWORD PTR [esp], xmm0
	push	ecx
	xorps	xmm0, xmm0
	movss	DWORD PTR [esp], xmm0
	imul	eax, DWORD PTR _split$[ebp], 12
	movss	xmm0, DWORD PTR ?light_sides@@3PAVVector@@A[eax]
	xorps	xmm0, DWORD PTR __xmm@80000000800000008000000080000000
	push	ecx
	movss	DWORD PTR [esp], xmm0
	mov	ecx, DWORD PTR ?RI@@3PAUref_instance_t@@A ; RI
	add	ecx, 428				; 000001acH
	call	?ConcatRotate@matrix4x4@@QAEXMMMM@Z	; matrix4x4::ConcatRotate

; 331  : 		RI->worldviewMatrix.ConcatRotate( -light_sides[split].y, 0, 0, 1 );

	push	ecx
	movss	xmm0, DWORD PTR __real@3f800000
	movss	DWORD PTR [esp], xmm0
	push	ecx
	xorps	xmm0, xmm0
	movss	DWORD PTR [esp], xmm0
	push	ecx
	xorps	xmm0, xmm0
	movss	DWORD PTR [esp], xmm0
	imul	eax, DWORD PTR _split$[ebp], 12
	movss	xmm0, DWORD PTR ?light_sides@@3PAVVector@@A[eax+4]
	xorps	xmm0, DWORD PTR __xmm@80000000800000008000000080000000
	push	ecx
	movss	DWORD PTR [esp], xmm0
	mov	ecx, DWORD PTR ?RI@@3PAUref_instance_t@@A ; RI
	add	ecx, 428				; 000001acH
	call	?ConcatRotate@matrix4x4@@QAEXMMMM@Z	; matrix4x4::ConcatRotate

; 332  : 		RI->worldviewMatrix.ConcatTranslate( -pl->origin.x, -pl->origin.y, -pl->origin.z );

	mov	eax, DWORD PTR _pl$[ebp]
	movss	xmm0, DWORD PTR [eax+8]
	xorps	xmm0, DWORD PTR __xmm@80000000800000008000000080000000
	push	ecx
	movss	DWORD PTR [esp], xmm0
	mov	ecx, DWORD PTR _pl$[ebp]
	movss	xmm0, DWORD PTR [ecx+4]
	xorps	xmm0, DWORD PTR __xmm@80000000800000008000000080000000
	push	ecx
	movss	DWORD PTR [esp], xmm0
	mov	edx, DWORD PTR _pl$[ebp]
	movss	xmm0, DWORD PTR [edx]
	xorps	xmm0, DWORD PTR __xmm@80000000800000008000000080000000
	push	ecx
	movss	DWORD PTR [esp], xmm0
	mov	ecx, DWORD PTR ?RI@@3PAUref_instance_t@@A ; RI
	add	ecx, 428				; 000001acH
	call	?ConcatTranslate@matrix4x4@@QAEXMMM@Z	; matrix4x4::ConcatTranslate

; 333  : 		RI->projectionMatrix = pl->projectionMatrix;

	mov	eax, DWORD PTR _pl$[ebp]
	add	eax, 48					; 00000030H
	push	eax
	mov	ecx, DWORD PTR ?RI@@3PAUref_instance_t@@A ; RI
	add	ecx, 556				; 0000022cH
	call	??4matrix4x4@@QAEAAV0@ABV0@@Z		; matrix4x4::operator=

; 334  : 	}
; 335  : 	else

	jmp	SHORT $LN3@R_ShadowPa
$LN2@R_ShadowPa:

; 336  : 	{
; 337  : 		// matrices already computed
; 338  : 		RI->worldviewMatrix = pl->modelviewMatrix;

	mov	eax, DWORD PTR _pl$[ebp]
	add	eax, 112				; 00000070H
	push	eax
	mov	ecx, DWORD PTR ?RI@@3PAUref_instance_t@@A ; RI
	add	ecx, 428				; 000001acH
	call	??4matrix4x4@@QAEAAV0@ABV0@@Z		; matrix4x4::operator=

; 339  : 		RI->projectionMatrix = pl->projectionMatrix;

	mov	eax, DWORD PTR _pl$[ebp]
	add	eax, 48					; 00000030H
	push	eax
	mov	ecx, DWORD PTR ?RI@@3PAUref_instance_t@@A ; RI
	add	ecx, 556				; 0000022cH
	call	??4matrix4x4@@QAEAAV0@ABV0@@Z		; matrix4x4::operator=

; 340  : 		RI->worldviewProjectionMatrix = RI->projectionMatrix.Concat( RI->worldviewMatrix );

	mov	eax, DWORD PTR ?RI@@3PAUref_instance_t@@A ; RI
	add	eax, 428				; 000001acH
	sub	esp, 64					; 00000040H
	mov	ecx, esp
	push	eax
	call	??0matrix4x4@@QAE@ABV0@@Z
	lea	ecx, DWORD PTR $T1[ebp]
	push	ecx
	mov	ecx, DWORD PTR ?RI@@3PAUref_instance_t@@A ; RI
	add	ecx, 556				; 0000022cH
	call	?Concat@matrix4x4@@QAE?AV1@V1@@Z	; matrix4x4::Concat
	push	eax
	mov	ecx, DWORD PTR ?RI@@3PAUref_instance_t@@A ; RI
	add	ecx, 620				; 0000026cH
	call	??4matrix4x4@@QAEAAV0@ABV0@@Z		; matrix4x4::operator=
$LN3@R_ShadowPa:

; 341  : 	}
; 342  : 
; 343  : 	pglViewport( RI->viewport[0], RI->viewport[1], RI->viewport[2], RI->viewport[3] );

	mov	eax, 4
	imul	ecx, eax, 3
	mov	edx, DWORD PTR ?RI@@3PAUref_instance_t@@A ; RI
	mov	eax, DWORD PTR [edx+ecx+32]
	push	eax
	mov	ecx, 4
	shl	ecx, 1
	mov	edx, DWORD PTR ?RI@@3PAUref_instance_t@@A ; RI
	mov	eax, DWORD PTR [edx+ecx+32]
	push	eax
	mov	ecx, 4
	shl	ecx, 0
	mov	edx, DWORD PTR ?RI@@3PAUref_instance_t@@A ; RI
	mov	eax, DWORD PTR [edx+ecx+32]
	push	eax
	mov	ecx, 4
	imul	edx, ecx, 0
	mov	eax, DWORD PTR ?RI@@3PAUref_instance_t@@A ; RI
	mov	ecx, DWORD PTR [eax+edx+32]
	push	ecx
	call	DWORD PTR ?pglViewport@@3P6GXHHHH@ZA	; pglViewport

; 344  : 
; 345  : 	pglMatrixMode( GL_PROJECTION );

	push	5889					; 00001701H
	call	DWORD PTR ?pglMatrixMode@@3P6GXI@ZA	; pglMatrixMode

; 346  : 	GL_LoadMatrix( RI->projectionMatrix );

	mov	eax, DWORD PTR ?RI@@3PAUref_instance_t@@A ; RI
	add	eax, 556				; 0000022cH
	sub	esp, 64					; 00000040H
	mov	ecx, esp
	push	eax
	call	??0matrix4x4@@QAE@ABV0@@Z
	call	?GL_LoadMatrix@@YAXVmatrix4x4@@@Z	; GL_LoadMatrix
	add	esp, 64					; 00000040H

; 347  : 
; 348  : 	pglMatrixMode( GL_MODELVIEW );

	push	5888					; 00001700H
	call	DWORD PTR ?pglMatrixMode@@3P6GXI@ZA	; pglMatrixMode

; 349  : 	GL_LoadMatrix( RI->worldviewMatrix );

	mov	eax, DWORD PTR ?RI@@3PAUref_instance_t@@A ; RI
	add	eax, 428				; 000001acH
	sub	esp, 64					; 00000040H
	mov	ecx, esp
	push	eax
	call	??0matrix4x4@@QAE@ABV0@@Z
	call	?GL_LoadMatrix@@YAXVmatrix4x4@@@Z	; GL_LoadMatrix
	add	esp, 64					; 00000040H

; 350  : 
; 351  : 	GL_Cull( GL_FRONT );

	push	1028					; 00000404H
	call	?GL_Cull@@YAXI@Z			; GL_Cull
	add	esp, 4

; 352  : 
; 353  : 	pglColor4f( 1.0f, 1.0f, 1.0f, 1.0f );

	push	ecx
	movss	xmm0, DWORD PTR __real@3f800000
	movss	DWORD PTR [esp], xmm0
	push	ecx
	movss	xmm0, DWORD PTR __real@3f800000
	movss	DWORD PTR [esp], xmm0
	push	ecx
	movss	xmm0, DWORD PTR __real@3f800000
	movss	DWORD PTR [esp], xmm0
	push	ecx
	movss	xmm0, DWORD PTR __real@3f800000
	movss	DWORD PTR [esp], xmm0
	call	DWORD PTR ?pglColor4f@@3P6GXMMMM@ZA	; pglColor4f

; 354  : 	pglColorMask( GL_FALSE, GL_FALSE, GL_FALSE, GL_FALSE );

	push	0
	push	0
	push	0
	push	0
	call	DWORD PTR ?pglColorMask@@3P6GXEEEE@ZA	; pglColorMask

; 355  : 	pglEnable( GL_POLYGON_OFFSET_FILL );

	push	32823					; 00008037H
	call	DWORD PTR ?pglEnable@@3P6GXI@ZA		; pglEnable

; 356  : 	pglDisable( GL_TEXTURE_2D );

	push	3553					; 00000de1H
	call	DWORD PTR ?pglDisable@@3P6GXI@ZA	; pglDisable

; 357  : 	pglDepthMask( GL_TRUE );

	push	1
	call	DWORD PTR ?pglDepthMask@@3P6GXE@ZA	; pglDepthMask

; 358  : 	pglPolygonOffset( 1.0f, 2.0f );

	push	ecx
	movss	xmm0, DWORD PTR __real@40000000
	movss	DWORD PTR [esp], xmm0
	push	ecx
	movss	xmm0, DWORD PTR __real@3f800000
	movss	DWORD PTR [esp], xmm0
	call	DWORD PTR ?pglPolygonOffset@@3P6GXMM@ZA	; pglPolygonOffset

; 359  : 	pglEnable( GL_DEPTH_TEST );

	push	2929					; 00000b71H
	call	DWORD PTR ?pglEnable@@3P6GXI@ZA		; pglEnable

; 360  : 	pglDisable( GL_ALPHA_TEST );

	push	3008					; 00000bc0H
	call	DWORD PTR ?pglDisable@@3P6GXI@ZA	; pglDisable

; 361  : 	pglDisable( GL_BLEND );

	push	3042					; 00000be2H
	call	DWORD PTR ?pglDisable@@3P6GXI@ZA	; pglDisable

; 362  : }

	pop	edi
	pop	esi
	pop	ebx
	mov	ecx, DWORD PTR __$ArrayPad$[ebp]
	xor	ecx, ebp
	call	@__security_check_cookie@4
	mov	esp, ebp
	pop	ebp
	ret	0
?R_ShadowPassSetupGL@@YAXPBUplight_s@@H@Z ENDP		; R_ShadowPassSetupGL
_TEXT	ENDS
; Function compile flags: /Odtp /ZI
; File d:\!diffusion 2020\source code 2022\client-server\client\render\r_shadows.cpp
;	COMDAT ?R_ShadowPassSetupFrame@@YAXPAUplight_s@@H@Z
_TEXT	SEGMENT
tv314 = -136						; size = 4
tv312 = -136						; size = 4
tv310 = -136						; size = 4
$T1 = -132						; size = 64
__$ArrayPad$ = -4					; size = 4
_pl$ = 8						; size = 4
_split$ = 12						; size = 4
?R_ShadowPassSetupFrame@@YAXPAUplight_s@@H@Z PROC	; R_ShadowPassSetupFrame, COMDAT

; 278  : {

	push	ebp
	mov	ebp, esp
	sub	esp, 136				; 00000088H
	mov	eax, DWORD PTR ___security_cookie
	xor	eax, ebp
	mov	DWORD PTR __$ArrayPad$[ebp], eax
	push	ebx
	push	esi
	push	edi

; 279  : 	if( pl->pointlight )

	mov	eax, DWORD PTR _pl$[ebp]
	movzx	ecx, BYTE PTR [eax+44]
	test	ecx, ecx
	je	SHORT $LN2@R_ShadowPa

; 280  : 	{
; 281  : 		RI->viewangles = light_sides[split]; // this is a cube side

	imul	eax, DWORD PTR _split$[ebp], 12
	add	eax, OFFSET ?light_sides@@3PAVVector@@A
	mov	ecx, DWORD PTR ?RI@@3PAUref_instance_t@@A ; RI
	add	ecx, 192				; 000000c0H
	mov	edx, DWORD PTR [eax]
	mov	DWORD PTR [ecx], edx
	mov	edx, DWORD PTR [eax+4]
	mov	DWORD PTR [ecx+4], edx
	mov	eax, DWORD PTR [eax+8]
	mov	DWORD PTR [ecx+8], eax

; 282  : 	}
; 283  : 	else

	jmp	$LN3@R_ShadowPa
$LN2@R_ShadowPa:

; 284  : 	{
; 285  : 		// build the transformation matrix for the given view angles
; 286  : 		RI->viewangles[0] = anglemod( pl->angles[0] );

	mov	ecx, DWORD PTR _pl$[ebp]
	add	ecx, 12					; 0000000cH
	call	??BVector@@QAEPAMXZ			; Vector::operator float *
	mov	ecx, 4
	imul	edx, ecx, 0
	push	ecx
	movss	xmm0, DWORD PTR [eax+edx]
	movss	DWORD PTR [esp], xmm0
	call	?anglemod@@YAMM@Z			; anglemod
	add	esp, 4
	mov	ecx, DWORD PTR ?RI@@3PAUref_instance_t@@A ; RI
	add	ecx, 192				; 000000c0H
	fstp	DWORD PTR tv310[ebp]
	call	??BVector@@QAEPAMXZ			; Vector::operator float *
	mov	ecx, 4
	imul	edx, ecx, 0
	fld	DWORD PTR tv310[ebp]
	fstp	DWORD PTR [eax+edx]

; 287  : 		RI->viewangles[1] = anglemod( pl->angles[1] );

	mov	ecx, DWORD PTR _pl$[ebp]
	add	ecx, 12					; 0000000cH
	call	??BVector@@QAEPAMXZ			; Vector::operator float *
	mov	ecx, 4
	shl	ecx, 0
	push	ecx
	movss	xmm0, DWORD PTR [eax+ecx]
	movss	DWORD PTR [esp], xmm0
	call	?anglemod@@YAMM@Z			; anglemod
	add	esp, 4
	mov	ecx, DWORD PTR ?RI@@3PAUref_instance_t@@A ; RI
	add	ecx, 192				; 000000c0H
	fstp	DWORD PTR tv312[ebp]
	call	??BVector@@QAEPAMXZ			; Vector::operator float *
	mov	edx, 4
	shl	edx, 0
	fld	DWORD PTR tv312[ebp]
	fstp	DWORD PTR [eax+edx]

; 288  : 		RI->viewangles[2] = anglemod( pl->angles[2] );

	mov	ecx, DWORD PTR _pl$[ebp]
	add	ecx, 12					; 0000000cH
	call	??BVector@@QAEPAMXZ			; Vector::operator float *
	mov	ecx, 4
	shl	ecx, 1
	push	ecx
	movss	xmm0, DWORD PTR [eax+ecx]
	movss	DWORD PTR [esp], xmm0
	call	?anglemod@@YAMM@Z			; anglemod
	add	esp, 4
	mov	ecx, DWORD PTR ?RI@@3PAUref_instance_t@@A ; RI
	add	ecx, 192				; 000000c0H
	fstp	DWORD PTR tv314[ebp]
	call	??BVector@@QAEPAMXZ			; Vector::operator float *
	mov	edx, 4
	shl	edx, 1
	fld	DWORD PTR tv314[ebp]
	fstp	DWORD PTR [eax+edx]

; 289  : 		AngleVectors( RI->viewangles, RI->vforward, RI->vright, RI->vup );

	mov	ecx, DWORD PTR ?RI@@3PAUref_instance_t@@A ; RI
	add	ecx, 252				; 000000fcH
	call	??BVector@@QAEPAMXZ			; Vector::operator float *
	push	eax
	mov	ecx, DWORD PTR ?RI@@3PAUref_instance_t@@A ; RI
	add	ecx, 240				; 000000f0H
	call	??BVector@@QAEPAMXZ			; Vector::operator float *
	push	eax
	mov	ecx, DWORD PTR ?RI@@3PAUref_instance_t@@A ; RI
	add	ecx, 228				; 000000e4H
	call	??BVector@@QAEPAMXZ			; Vector::operator float *
	push	eax
	mov	ecx, DWORD PTR ?RI@@3PAUref_instance_t@@A ; RI
	add	ecx, 192				; 000000c0H
	call	??BVector@@QAEPAMXZ			; Vector::operator float *
	push	eax
	call	DWORD PTR ?gEngfuncs@@3Ucl_enginefuncs_s@@A+96
	add	esp, 16					; 00000010H
$LN3@R_ShadowPa:

; 290  : 	}
; 291  : 
; 292  : 	RI->vieworg = pl->origin;

	mov	eax, DWORD PTR ?RI@@3PAUref_instance_t@@A ; RI
	add	eax, 204				; 000000ccH
	mov	ecx, DWORD PTR _pl$[ebp]
	mov	edx, DWORD PTR [ecx]
	mov	DWORD PTR [eax], edx
	mov	edx, DWORD PTR [ecx+4]
	mov	DWORD PTR [eax+4], edx
	mov	ecx, DWORD PTR [ecx+8]
	mov	DWORD PTR [eax+8], ecx

; 293  : 
; 294  : 	// setup the screen FOV
; 295  : 	RI->fov_x = pl->fov;

	mov	eax, DWORD PTR ?RI@@3PAUref_instance_t@@A ; RI
	mov	ecx, DWORD PTR _pl$[ebp]
	mov	edx, DWORD PTR [ecx+748]
	mov	DWORD PTR [eax+8], edx

; 296  : 	RI->fov_y = pl->fov;

	mov	eax, DWORD PTR ?RI@@3PAUref_instance_t@@A ; RI
	mov	ecx, DWORD PTR _pl$[ebp]
	mov	edx, DWORD PTR [ecx+748]
	mov	DWORD PTR [eax+12], edx

; 297  : 
; 298  : 	if( !pl->pointlight )

	mov	eax, DWORD PTR _pl$[ebp]
	movzx	ecx, BYTE PTR [eax+44]
	test	ecx, ecx
	jne	SHORT $LN8@R_ShadowPa

; 299  : 	{
; 300  : 		if( pl->flags & CF_ASPECT3X4 )

	mov	eax, DWORD PTR _pl$[ebp]
	mov	ecx, DWORD PTR [eax+744]
	and	ecx, 32					; 00000020H
	je	SHORT $LN5@R_ShadowPa

; 301  : 			RI->fov_y = pl->fov * (5.0f / 4.0f);

	mov	eax, DWORD PTR _pl$[ebp]
	movss	xmm0, DWORD PTR [eax+748]
	mulss	xmm0, DWORD PTR __real@3fa00000
	mov	ecx, DWORD PTR ?RI@@3PAUref_instance_t@@A ; RI
	movss	DWORD PTR [ecx+12], xmm0
	jmp	SHORT $LN8@R_ShadowPa
$LN5@R_ShadowPa:

; 302  : 		else if( pl->flags & CF_ASPECT4X3 )

	mov	eax, DWORD PTR _pl$[ebp]
	mov	ecx, DWORD PTR [eax+744]
	and	ecx, 16					; 00000010H
	je	SHORT $LN7@R_ShadowPa

; 303  : 			RI->fov_y = pl->fov * (4.0f / 5.0f);

	mov	eax, DWORD PTR _pl$[ebp]
	movss	xmm0, DWORD PTR [eax+748]
	mulss	xmm0, DWORD PTR __real@3f4ccccd
	mov	ecx, DWORD PTR ?RI@@3PAUref_instance_t@@A ; RI
	movss	DWORD PTR [ecx+12], xmm0
	jmp	SHORT $LN8@R_ShadowPa
$LN7@R_ShadowPa:

; 304  : 		else RI->fov_y = pl->fov;

	mov	eax, DWORD PTR ?RI@@3PAUref_instance_t@@A ; RI
	mov	ecx, DWORD PTR _pl$[ebp]
	mov	edx, DWORD PTR [ecx+748]
	mov	DWORD PTR [eax+12], edx
$LN8@R_ShadowPa:

; 305  : 	}
; 306  : 
; 307  : 	// setup frustum
; 308  : 	if( pl->pointlight )

	mov	eax, DWORD PTR _pl$[ebp]
	movzx	ecx, BYTE PTR [eax+44]
	test	ecx, ecx
	je	SHORT $LN9@R_ShadowPa

; 309  : 		RI->frustum.InitProjection( matrix4x4( RI->vieworg, RI->viewangles ), 0.1f, pl->radius, 90.0f, 90.0f );

	push	ecx
	movss	xmm0, DWORD PTR __real@42b40000
	movss	DWORD PTR [esp], xmm0
	push	ecx
	movss	xmm0, DWORD PTR __real@42b40000
	movss	DWORD PTR [esp], xmm0
	mov	eax, DWORD PTR _pl$[ebp]
	push	ecx
	movss	xmm0, DWORD PTR [eax+24]
	movss	DWORD PTR [esp], xmm0
	push	ecx
	movss	xmm0, DWORD PTR __real@3dcccccd
	movss	DWORD PTR [esp], xmm0
	push	ecx
	movss	xmm0, DWORD PTR __real@3f800000
	movss	DWORD PTR [esp], xmm0
	mov	ecx, DWORD PTR ?RI@@3PAUref_instance_t@@A ; RI
	add	ecx, 192				; 000000c0H
	push	ecx
	mov	edx, DWORD PTR ?RI@@3PAUref_instance_t@@A ; RI
	add	edx, 204				; 000000ccH
	push	edx
	lea	ecx, DWORD PTR $T1[ebp]
	call	??0matrix4x4@@QAE@ABVVector@@0M@Z	; matrix4x4::matrix4x4
	push	eax
	mov	ecx, DWORD PTR ?RI@@3PAUref_instance_t@@A ; RI
	add	ecx, 48					; 00000030H
	call	?InitProjection@CFrustum@@QAEXABVmatrix4x4@@MMMM@Z ; CFrustum::InitProjection

; 310  : 	else

	jmp	SHORT $LN10@R_ShadowPa
$LN9@R_ShadowPa:

; 311  : 		RI->frustum = pl->frustum;

	mov	esi, DWORD PTR _pl$[ebp]
	add	esi, 328				; 00000148H
	mov	edi, DWORD PTR ?RI@@3PAUref_instance_t@@A ; RI
	add	edi, 48					; 00000030H
	mov	ecx, 31					; 0000001fH
	rep movsd
$LN10@R_ShadowPa:

; 312  : 
; 313  : 	if(!( RI->params & RP_OLDVIEWLEAF ))

	mov	eax, DWORD PTR ?RI@@3PAUref_instance_t@@A ; RI
	mov	ecx, DWORD PTR [eax]
	and	ecx, 4
	jne	SHORT $LN11@R_ShadowPa

; 314  : 		R_FindViewLeaf();

	call	?R_FindViewLeaf@@YAXXZ			; R_FindViewLeaf
$LN11@R_ShadowPa:

; 315  : 
; 316  : 	RI->currentlight = pl;

	mov	eax, DWORD PTR ?RI@@3PAUref_instance_t@@A ; RI
	mov	ecx, DWORD PTR _pl$[ebp]
	mov	DWORD PTR [eax+24], ecx

; 317  : }

	pop	edi
	pop	esi
	pop	ebx
	mov	ecx, DWORD PTR __$ArrayPad$[ebp]
	xor	ecx, ebp
	call	@__security_check_cookie@4
	mov	esp, ebp
	pop	ebp
	ret	0
?R_ShadowPassSetupFrame@@YAXPAUplight_s@@H@Z ENDP	; R_ShadowPassSetupFrame
_TEXT	ENDS
; Function compile flags: /Odtp /ZI
; File d:\!diffusion 2020\source code 2022\client-server\client\render\r_shadows.cpp
;	COMDAT ?R_AllocateShadowCubemap@@YAHH@Z
_TEXT	SEGMENT
_txName$1 = -28						; size = 16
_i$ = -12						; size = 4
_texture$ = -8						; size = 4
__$ArrayPad$ = -4					; size = 4
_side$ = 8						; size = 4
?R_AllocateShadowCubemap@@YAHH@Z PROC			; R_AllocateShadowCubemap, COMDAT

; 220  : {

	push	ebp
	mov	ebp, esp
	sub	esp, 92					; 0000005cH
	mov	eax, DWORD PTR ___security_cookie
	xor	eax, ebp
	mov	DWORD PTR __$ArrayPad$[ebp], eax
	push	ebx
	push	esi
	push	edi

; 221  : 	int texture = 0;

	mov	DWORD PTR _texture$[ebp], 0

; 222  : 	int i;
; 223  : 
; 224  : 	if( side != 0 )

	cmp	DWORD PTR _side$[ebp], 0
	je	SHORT $LN2@R_Allocate

; 225  : 	{
; 226  : 		i = (tr.num_CM_shadows_used - 1);

	mov	eax, DWORD PTR ?tr@@3Uref_globals_t@@A+5716
	sub	eax, 1
	mov	DWORD PTR _i$[ebp], eax

; 227  : 
; 228  : 		if( i >= MAX_SHADOWS )

	cmp	DWORD PTR _i$[ebp], 64			; 00000040H
	jl	SHORT $LN4@R_Allocate

; 229  : 		{
; 230  : 			ConPrintf( "ERROR: R_AllocateShadowCubemap: shadow cubemaps limit exceeded!\n" );

	push	OFFSET ??_C@_0EB@KOGEHOGD@ERROR?3?5R_AllocateShadowCubemap?3?5@
	call	DWORD PTR ?gEngfuncs@@3Ucl_enginefuncs_s@@A+160
	add	esp, 4

; 231  : 			return 0; // disable

	xor	eax, eax
	jmp	$LN1@R_Allocate
$LN4@R_Allocate:

; 232  : 		}
; 233  : 
; 234  : 		texture = tr.shadowCubemaps[i];

	mov	eax, DWORD PTR _i$[ebp]
	mov	ecx, DWORD PTR ?tr@@3Uref_globals_t@@A[eax*4+5452]
	mov	DWORD PTR _texture$[ebp], ecx

; 235  : 
; 236  : 		if( !tr.shadowCubemaps[i] )

	mov	eax, DWORD PTR _i$[ebp]
	cmp	DWORD PTR ?tr@@3Uref_globals_t@@A[eax*4+5452], 0
	jne	SHORT $LN5@R_Allocate

; 237  : 		{
; 238  : 			ConPrintf( "ERROR: R_AllocateShadowCubemap: cubemap not initialized!\n" );

	push	OFFSET ??_C@_0DK@KAKOCMJD@ERROR?3?5R_AllocateShadowCubemap?3?5@
	call	DWORD PTR ?gEngfuncs@@3Ucl_enginefuncs_s@@A+160
	add	esp, 4

; 239  : 			return 0; // disable

	xor	eax, eax
	jmp	$LN1@R_Allocate
$LN5@R_Allocate:

; 240  : 		}
; 241  : 	}
; 242  : 	else

	jmp	$LN3@R_Allocate
$LN2@R_Allocate:

; 243  : 	{
; 244  : 		i = tr.num_CM_shadows_used;

	mov	eax, DWORD PTR ?tr@@3Uref_globals_t@@A+5716
	mov	DWORD PTR _i$[ebp], eax

; 245  : 
; 246  : 		if( i >= MAX_SHADOWS )

	cmp	DWORD PTR _i$[ebp], 64			; 00000040H
	jl	SHORT $LN6@R_Allocate

; 247  : 		{
; 248  : 			ConPrintf( "ERROR: R_AllocateShadowCubemap: shadow cubemaps limit exceeded!\n" );

	push	OFFSET ??_C@_0EB@KOGEHOGD@ERROR?3?5R_AllocateShadowCubemap?3?5@
	call	DWORD PTR ?gEngfuncs@@3Ucl_enginefuncs_s@@A+160
	add	esp, 4

; 249  : 			return 0; // disable

	xor	eax, eax
	jmp	$LN1@R_Allocate
$LN6@R_Allocate:

; 250  : 		}
; 251  : 
; 252  : 		texture = tr.shadowCubemaps[i];

	mov	eax, DWORD PTR _i$[ebp]
	mov	ecx, DWORD PTR ?tr@@3Uref_globals_t@@A[eax*4+5452]
	mov	DWORD PTR _texture$[ebp], ecx

; 253  : 		tr.num_CM_shadows_used++;

	mov	eax, DWORD PTR ?tr@@3Uref_globals_t@@A+5716
	add	eax, 1
	mov	DWORD PTR ?tr@@3Uref_globals_t@@A+5716, eax

; 254  : 
; 255  : 		if( !tr.shadowCubemaps[i] )

	mov	eax, DWORD PTR _i$[ebp]
	cmp	DWORD PTR ?tr@@3Uref_globals_t@@A[eax*4+5452], 0
	jne	SHORT $LN3@R_Allocate

; 256  : 		{
; 257  : 			char txName[16];
; 258  : 
; 259  : 			Q_snprintf( txName, sizeof( txName ), "*shadowCM%i", i );

	mov	eax, DWORD PTR _i$[ebp]
	push	eax
	push	OFFSET ??_C@_0M@FLCILGDA@?$CKshadowCM?$CFi?$AA@
	push	16					; 00000010H
	lea	ecx, DWORD PTR _txName$1[ebp]
	push	ecx
	call	?Q_snprintf@@YAHPADIPBDZZ		; Q_snprintf
	add	esp, 16					; 00000010H

; 260  : 
; 261  : 			tr.shadowCubemaps[i] = CREATE_TEXTURE( txName, ShadowViewport, ShadowViewport, NULL, TF_SHADOW_CUBEMAP );

	push	6848					; 00001ac0H
	push	0
	mov	eax, DWORD PTR ?ShadowViewport@@3HA
	push	eax
	mov	ecx, DWORD PTR ?ShadowViewport@@3HA
	push	ecx
	lea	edx, DWORD PTR _txName$1[ebp]
	push	edx
	call	DWORD PTR ?gRenderfuncs@@3Urender_api_s@@A+64
	add	esp, 20					; 00000014H
	mov	ecx, DWORD PTR _i$[ebp]
	mov	DWORD PTR ?tr@@3Uref_globals_t@@A[ecx*4+5452], eax

; 262  : 			texture = tr.shadowCubemaps[i];

	mov	eax, DWORD PTR _i$[ebp]
	mov	ecx, DWORD PTR ?tr@@3Uref_globals_t@@A[eax*4+5452]
	mov	DWORD PTR _texture$[ebp], ecx
$LN3@R_Allocate:

; 263  : 		}
; 264  : 	}
; 265  : 
; 266  : 	GL_Bind( GL_TEXTURE0, texture );

	mov	eax, DWORD PTR _texture$[ebp]
	push	eax
	push	0
	call	DWORD PTR ?gRenderfuncs@@3Urender_api_s@@A+132
	add	esp, 8

; 267  : 	pglCopyTexImage2D( GL_TEXTURE_CUBE_MAP_POSITIVE_X_ARB + side, 0, GL_DEPTH_COMPONENT, RI->viewport[0], RI->viewport[1], RI->viewport[2], RI->viewport[3], 0 );

	push	0
	mov	eax, 4
	imul	ecx, eax, 3
	mov	edx, DWORD PTR ?RI@@3PAUref_instance_t@@A ; RI
	mov	eax, DWORD PTR [edx+ecx+32]
	push	eax
	mov	ecx, 4
	shl	ecx, 1
	mov	edx, DWORD PTR ?RI@@3PAUref_instance_t@@A ; RI
	mov	eax, DWORD PTR [edx+ecx+32]
	push	eax
	mov	ecx, 4
	shl	ecx, 0
	mov	edx, DWORD PTR ?RI@@3PAUref_instance_t@@A ; RI
	mov	eax, DWORD PTR [edx+ecx+32]
	push	eax
	mov	ecx, 4
	imul	edx, ecx, 0
	mov	eax, DWORD PTR ?RI@@3PAUref_instance_t@@A ; RI
	mov	ecx, DWORD PTR [eax+edx+32]
	push	ecx
	push	6402					; 00001902H
	push	0
	mov	edx, DWORD PTR _side$[ebp]
	add	edx, 34069				; 00008515H
	push	edx
	call	DWORD PTR ?pglCopyTexImage2D@@3P6GXIHIHHHHH@ZA ; pglCopyTexImage2D

; 268  : 
; 269  : 	return texture;

	mov	eax, DWORD PTR _texture$[ebp]
$LN1@R_Allocate:

; 270  : }

	pop	edi
	pop	esi
	pop	ebx
	mov	ecx, DWORD PTR __$ArrayPad$[ebp]
	xor	ecx, ebp
	call	@__security_check_cookie@4
	mov	esp, ebp
	pop	ebp
	ret	0
?R_AllocateShadowCubemap@@YAHH@Z ENDP			; R_AllocateShadowCubemap
_TEXT	ENDS
; Function compile flags: /Odtp /ZI
; File d:\!diffusion 2020\source code 2022\client-server\client\render\r_shadows.cpp
;	COMDAT ?R_AllocateShadowTexture@@YAHXZ
_TEXT	SEGMENT
_txName$1 = -28						; size = 16
_texture$ = -12						; size = 4
_i$ = -8						; size = 4
__$ArrayPad$ = -4					; size = 4
?R_AllocateShadowTexture@@YAHXZ PROC			; R_AllocateShadowTexture, COMDAT

; 188  : {

	push	ebp
	mov	ebp, esp
	sub	esp, 92					; 0000005cH
	mov	eax, DWORD PTR ___security_cookie
	xor	eax, ebp
	mov	DWORD PTR __$ArrayPad$[ebp], eax
	push	ebx
	push	esi
	push	edi

; 189  : 	int i = tr.num_shadows_used;

	mov	eax, DWORD PTR ?tr@@3Uref_globals_t@@A+5712
	mov	DWORD PTR _i$[ebp], eax

; 190  : 
; 191  : 	if( i >= MAX_SHADOWS )

	cmp	DWORD PTR _i$[ebp], 64			; 00000040H
	jl	SHORT $LN2@R_Allocate

; 192  : 	{
; 193  : 		ConPrintf( "ERROR: R_AllocateShadowTexture: shadow textures limit exceeded!\n" );

	push	OFFSET ??_C@_0EB@BJIJFOEE@ERROR?3?5R_AllocateShadowTexture?3?5@
	call	DWORD PTR ?gEngfuncs@@3Ucl_enginefuncs_s@@A+160
	add	esp, 4

; 194  : 		return 0; // disable

	xor	eax, eax
	jmp	$LN1@R_Allocate
$LN2@R_Allocate:

; 195  : 	}
; 196  : 
; 197  : 	int texture = tr.shadowTextures[i];

	mov	eax, DWORD PTR _i$[ebp]
	mov	ecx, DWORD PTR ?tr@@3Uref_globals_t@@A[eax*4+5196]
	mov	DWORD PTR _texture$[ebp], ecx

; 198  : 	tr.num_shadows_used++;

	mov	eax, DWORD PTR ?tr@@3Uref_globals_t@@A+5712
	add	eax, 1
	mov	DWORD PTR ?tr@@3Uref_globals_t@@A+5712, eax

; 199  : 
; 200  : 	if( !tr.shadowTextures[i] )

	mov	eax, DWORD PTR _i$[ebp]
	cmp	DWORD PTR ?tr@@3Uref_globals_t@@A[eax*4+5196], 0
	jne	SHORT $LN3@R_Allocate

; 201  : 	{
; 202  : 		char txName[16];
; 203  : 
; 204  : 		Q_snprintf( txName, sizeof( txName ), "*shadow%i", i );

	mov	eax, DWORD PTR _i$[ebp]
	push	eax
	push	OFFSET ??_C@_09FHLNGGMP@?$CKshadow?$CFi?$AA@
	push	16					; 00000010H
	lea	ecx, DWORD PTR _txName$1[ebp]
	push	ecx
	call	?Q_snprintf@@YAHPADIPBDZZ		; Q_snprintf
	add	esp, 16					; 00000010H

; 205  : 
; 206  : 		tr.shadowTextures[i] = CREATE_TEXTURE( txName, ShadowViewport, ShadowViewport, NULL, TF_SHADOW );

	push	2176					; 00000880H
	push	0
	mov	eax, DWORD PTR ?ShadowViewport@@3HA
	push	eax
	mov	ecx, DWORD PTR ?ShadowViewport@@3HA
	push	ecx
	lea	edx, DWORD PTR _txName$1[ebp]
	push	edx
	call	DWORD PTR ?gRenderfuncs@@3Urender_api_s@@A+64
	add	esp, 20					; 00000014H
	mov	ecx, DWORD PTR _i$[ebp]
	mov	DWORD PTR ?tr@@3Uref_globals_t@@A[ecx*4+5196], eax

; 207  : 		texture = tr.shadowTextures[i];

	mov	eax, DWORD PTR _i$[ebp]
	mov	ecx, DWORD PTR ?tr@@3Uref_globals_t@@A[eax*4+5196]
	mov	DWORD PTR _texture$[ebp], ecx
$LN3@R_Allocate:

; 208  : 	}
; 209  : 
; 210  : 	GL_Bind( GL_TEXTURE0, texture );

	mov	eax, DWORD PTR _texture$[ebp]
	push	eax
	push	0
	call	DWORD PTR ?gRenderfuncs@@3Urender_api_s@@A+132
	add	esp, 8

; 211  : 	pglCopyTexImage2D( GL_TEXTURE_2D, 0, GL_DEPTH_COMPONENT, RI->viewport[0], RI->viewport[1], ShadowViewport, ShadowViewport, 0 );

	push	0
	mov	eax, DWORD PTR ?ShadowViewport@@3HA
	push	eax
	mov	ecx, DWORD PTR ?ShadowViewport@@3HA
	push	ecx
	mov	edx, 4
	shl	edx, 0
	mov	eax, DWORD PTR ?RI@@3PAUref_instance_t@@A ; RI
	mov	ecx, DWORD PTR [eax+edx+32]
	push	ecx
	mov	edx, 4
	imul	eax, edx, 0
	mov	ecx, DWORD PTR ?RI@@3PAUref_instance_t@@A ; RI
	mov	edx, DWORD PTR [ecx+eax+32]
	push	edx
	push	6402					; 00001902H
	push	0
	push	3553					; 00000de1H
	call	DWORD PTR ?pglCopyTexImage2D@@3P6GXIHIHHHHH@ZA ; pglCopyTexImage2D

; 212  : 
; 213  : 	return texture;

	mov	eax, DWORD PTR _texture$[ebp]
$LN1@R_Allocate:

; 214  : }

	pop	edi
	pop	esi
	pop	ebx
	mov	ecx, DWORD PTR __$ArrayPad$[ebp]
	xor	ecx, ebp
	call	@__security_check_cookie@4
	mov	esp, ebp
	pop	ebp
	ret	0
?R_AllocateShadowTexture@@YAHXZ ENDP			; R_AllocateShadowTexture
_TEXT	ENDS
; Function compile flags: /Odtp /ZI
; File d:\!diffusion 2020\source code 2022\client-server\client\render\r_shadows.cpp
;	COMDAT ?R_AllocateShadowFramebuffer@@YAHPAUplight_s@@H@Z
_TEXT	SEGMENT
_txName$1 = -44						; size = 16
_txName$2 = -28						; size = 16
_texture$ = -12						; size = 4
_i$ = -8						; size = 4
__$ArrayPad$ = -4					; size = 4
_pl$ = 8						; size = 4
_side$ = 12						; size = 4
?R_AllocateShadowFramebuffer@@YAHPAUplight_s@@H@Z PROC	; R_AllocateShadowFramebuffer, COMDAT

; 96   : {

	push	ebp
	mov	ebp, esp
	sub	esp, 108				; 0000006cH
	mov	eax, DWORD PTR ___security_cookie
	xor	eax, ebp
	mov	DWORD PTR __$ArrayPad$[ebp], eax
	push	ebx
	push	esi
	push	edi

; 97   : 	int i, texture;
; 98   : 
; 99   : 	if( pl->pointlight )

	mov	eax, DWORD PTR _pl$[ebp]
	movzx	ecx, BYTE PTR [eax+44]
	test	ecx, ecx
	je	$LN2@R_Allocate

; 100  : 	{
; 101  : 		if( !framebufferCM[0] )

	mov	eax, 4
	imul	ecx, eax, 0
	cmp	DWORD PTR ?framebufferCM@@3PAIA[ecx], 0
	jne	SHORT $LN4@R_Allocate

; 102  : 			pglGenFramebuffers( MAX_SHADOWS, framebufferCM );

	push	OFFSET ?framebufferCM@@3PAIA
	push	64					; 00000040H
	call	DWORD PTR ?pglGenFramebuffers@@3P6GXHPAI@ZA ; pglGenFramebuffers
$LN4@R_Allocate:

; 103  : 		
; 104  : 		if( side != 0 )

	cmp	DWORD PTR _side$[ebp], 0
	je	SHORT $LN5@R_Allocate

; 105  : 		{
; 106  : 			i = (tr.num_CM_shadows_used - 1);

	mov	eax, DWORD PTR ?tr@@3Uref_globals_t@@A+5716
	sub	eax, 1
	mov	DWORD PTR _i$[ebp], eax

; 107  : 
; 108  : 			if( i >= MAX_SHADOWS )

	cmp	DWORD PTR _i$[ebp], 64			; 00000040H
	jl	SHORT $LN7@R_Allocate

; 109  : 			{
; 110  : 				ConPrintf( "ERROR: R_AllocateShadowFramebuffer: shadow cubemaps limit exceeded!\n" );

	push	OFFSET ??_C@_0EF@HPBGCPHF@ERROR?3?5R_AllocateShadowFramebuff@
	call	DWORD PTR ?gEngfuncs@@3Ucl_enginefuncs_s@@A+160
	add	esp, 4

; 111  : 				return 0; // disable

	xor	eax, eax
	jmp	$LN1@R_Allocate
$LN7@R_Allocate:

; 112  : 			}
; 113  : 
; 114  : 			texture = tr.shadowCubemaps[i];

	mov	eax, DWORD PTR _i$[ebp]
	mov	ecx, DWORD PTR ?tr@@3Uref_globals_t@@A[eax*4+5452]
	mov	DWORD PTR _texture$[ebp], ecx

; 115  : 
; 116  : 			if( !tr.shadowCubemaps[i] )

	mov	eax, DWORD PTR _i$[ebp]
	cmp	DWORD PTR ?tr@@3Uref_globals_t@@A[eax*4+5452], 0
	jne	SHORT $LN8@R_Allocate

; 117  : 			{
; 118  : 				ConPrintf( "ERROR: R_AllocateShadowFramebuffer: cubemap not initialized!\n" );

	push	OFFSET ??_C@_0DO@MFMCHOGJ@ERROR?3?5R_AllocateShadowFramebuff@
	call	DWORD PTR ?gEngfuncs@@3Ucl_enginefuncs_s@@A+160
	add	esp, 4

; 119  : 				return 0; // disable

	xor	eax, eax
	jmp	$LN1@R_Allocate
$LN8@R_Allocate:

; 120  : 			}
; 121  : 		}
; 122  : 		else

	jmp	$LN6@R_Allocate
$LN5@R_Allocate:

; 123  : 		{
; 124  : 			i = tr.num_CM_shadows_used;

	mov	eax, DWORD PTR ?tr@@3Uref_globals_t@@A+5716
	mov	DWORD PTR _i$[ebp], eax

; 125  : 
; 126  : 			if( i >= MAX_SHADOWS )

	cmp	DWORD PTR _i$[ebp], 64			; 00000040H
	jl	SHORT $LN9@R_Allocate

; 127  : 			{
; 128  : 				ConPrintf( "ERROR: R_AllocateShadowFramebuffer: shadow cubemaps limit exceeded!\n" );

	push	OFFSET ??_C@_0EF@HPBGCPHF@ERROR?3?5R_AllocateShadowFramebuff@
	call	DWORD PTR ?gEngfuncs@@3Ucl_enginefuncs_s@@A+160
	add	esp, 4

; 129  : 				return 0; // disable

	xor	eax, eax
	jmp	$LN1@R_Allocate
$LN9@R_Allocate:

; 130  : 			}
; 131  : 
; 132  : 			texture = tr.shadowCubemaps[i];

	mov	eax, DWORD PTR _i$[ebp]
	mov	ecx, DWORD PTR ?tr@@3Uref_globals_t@@A[eax*4+5452]
	mov	DWORD PTR _texture$[ebp], ecx

; 133  : 			tr.num_CM_shadows_used++;

	mov	eax, DWORD PTR ?tr@@3Uref_globals_t@@A+5716
	add	eax, 1
	mov	DWORD PTR ?tr@@3Uref_globals_t@@A+5716, eax

; 134  : 
; 135  : 			if( !tr.shadowCubemaps[i] )

	mov	eax, DWORD PTR _i$[ebp]
	cmp	DWORD PTR ?tr@@3Uref_globals_t@@A[eax*4+5452], 0
	jne	SHORT $LN6@R_Allocate

; 136  : 			{
; 137  : 				char txName[16];
; 138  : 
; 139  : 				Q_snprintf( txName, sizeof( txName ), "*shadowCM%i", i );

	mov	eax, DWORD PTR _i$[ebp]
	push	eax
	push	OFFSET ??_C@_0M@FLCILGDA@?$CKshadowCM?$CFi?$AA@
	push	16					; 00000010H
	lea	ecx, DWORD PTR _txName$2[ebp]
	push	ecx
	call	?Q_snprintf@@YAHPADIPBDZZ		; Q_snprintf
	add	esp, 16					; 00000010H

; 140  : 
; 141  : 				tr.shadowCubemaps[i] = CREATE_TEXTURE( txName, ShadowViewport, ShadowViewport, NULL, TF_SHADOW_CUBEMAP );

	push	6848					; 00001ac0H
	push	0
	mov	eax, DWORD PTR ?ShadowViewport@@3HA
	push	eax
	mov	ecx, DWORD PTR ?ShadowViewport@@3HA
	push	ecx
	lea	edx, DWORD PTR _txName$2[ebp]
	push	edx
	call	DWORD PTR ?gRenderfuncs@@3Urender_api_s@@A+64
	add	esp, 20					; 00000014H
	mov	ecx, DWORD PTR _i$[ebp]
	mov	DWORD PTR ?tr@@3Uref_globals_t@@A[ecx*4+5452], eax

; 142  : 				texture = tr.shadowCubemaps[i];

	mov	eax, DWORD PTR _i$[ebp]
	mov	ecx, DWORD PTR ?tr@@3Uref_globals_t@@A[eax*4+5452]
	mov	DWORD PTR _texture$[ebp], ecx
$LN6@R_Allocate:

; 143  : 			}
; 144  : 		}
; 145  : 
; 146  : 		pglBindFramebuffer( GL_FRAMEBUFFER_EXT, framebufferCM[i] );

	mov	eax, DWORD PTR _i$[ebp]
	mov	ecx, DWORD PTR ?framebufferCM@@3PAIA[eax*4]
	push	ecx
	push	36160					; 00008d40H
	call	DWORD PTR ?pglBindFramebuffer@@3P6GXII@ZA ; pglBindFramebuffer

; 147  : 		pglFramebufferTexture2D( GL_FRAMEBUFFER_EXT, GL_DEPTH_ATTACHMENT_EXT, GL_TEXTURE_CUBE_MAP_POSITIVE_X_ARB + side, RENDER_GET_PARM( PARM_TEX_TEXNUM, texture ), 0 );

	push	0
	mov	eax, DWORD PTR _texture$[ebp]
	push	eax
	push	9
	call	DWORD PTR ?gRenderfuncs@@3Urender_api_s@@A
	add	esp, 8
	push	eax
	mov	ecx, DWORD PTR _side$[ebp]
	add	ecx, 34069				; 00008515H
	push	ecx
	push	36096					; 00008d00H
	push	36160					; 00008d40H
	call	DWORD PTR ?pglFramebufferTexture2D@@3P6GXIIIIH@ZA ; pglFramebufferTexture2D

; 148  : 	}
; 149  : 	else

	jmp	$LN3@R_Allocate
$LN2@R_Allocate:

; 150  : 	{
; 151  : 		i = tr.num_shadows_used;

	mov	eax, DWORD PTR ?tr@@3Uref_globals_t@@A+5712
	mov	DWORD PTR _i$[ebp], eax

; 152  : 
; 153  : 		if( !framebuffer[0] )

	mov	eax, 4
	imul	ecx, eax, 0
	cmp	DWORD PTR ?framebuffer@@3PAIA[ecx], 0
	jne	SHORT $LN11@R_Allocate

; 154  : 			pglGenFramebuffers( MAX_SHADOWS, framebuffer );

	push	OFFSET ?framebuffer@@3PAIA
	push	64					; 00000040H
	call	DWORD PTR ?pglGenFramebuffers@@3P6GXHPAI@ZA ; pglGenFramebuffers
$LN11@R_Allocate:

; 155  : 
; 156  : 		if( i >= MAX_SHADOWS )

	cmp	DWORD PTR _i$[ebp], 64			; 00000040H
	jl	SHORT $LN12@R_Allocate

; 157  : 		{
; 158  : 			ALERT( at_error, "R_AllocateShadowFramebuffer: shadow textures limit exceeded!\n" );

	push	OFFSET ??_C@_0DO@CEFJGLOO@R_AllocateShadowFramebuffer?3?5sha@
	push	4
	call	?ALERT@@YAXW4ALERT_TYPE@@PADZZ		; ALERT
	add	esp, 8

; 159  : 			return 0; // disable

	xor	eax, eax
	jmp	$LN1@R_Allocate
$LN12@R_Allocate:

; 160  : 		}
; 161  : 
; 162  : 		texture = tr.shadowTextures[i];

	mov	eax, DWORD PTR _i$[ebp]
	mov	ecx, DWORD PTR ?tr@@3Uref_globals_t@@A[eax*4+5196]
	mov	DWORD PTR _texture$[ebp], ecx

; 163  : 		tr.num_shadows_used++;

	mov	eax, DWORD PTR ?tr@@3Uref_globals_t@@A+5712
	add	eax, 1
	mov	DWORD PTR ?tr@@3Uref_globals_t@@A+5712, eax

; 164  : 
; 165  : 		if( !tr.shadowTextures[i] )

	mov	eax, DWORD PTR _i$[ebp]
	cmp	DWORD PTR ?tr@@3Uref_globals_t@@A[eax*4+5196], 0
	jne	SHORT $LN13@R_Allocate

; 166  : 		{
; 167  : 			char txName[16];
; 168  : 
; 169  : 			Q_snprintf( txName, sizeof( txName ), "*shadow%i", i );

	mov	eax, DWORD PTR _i$[ebp]
	push	eax
	push	OFFSET ??_C@_09FHLNGGMP@?$CKshadow?$CFi?$AA@
	push	16					; 00000010H
	lea	ecx, DWORD PTR _txName$1[ebp]
	push	ecx
	call	?Q_snprintf@@YAHPADIPBDZZ		; Q_snprintf
	add	esp, 16					; 00000010H

; 170  : 
; 171  : 			tr.shadowTextures[i] = CREATE_TEXTURE( txName, ShadowViewport, ShadowViewport, NULL, TF_SHADOW );

	push	2176					; 00000880H
	push	0
	mov	eax, DWORD PTR ?ShadowViewport@@3HA
	push	eax
	mov	ecx, DWORD PTR ?ShadowViewport@@3HA
	push	ecx
	lea	edx, DWORD PTR _txName$1[ebp]
	push	edx
	call	DWORD PTR ?gRenderfuncs@@3Urender_api_s@@A+64
	add	esp, 20					; 00000014H
	mov	ecx, DWORD PTR _i$[ebp]
	mov	DWORD PTR ?tr@@3Uref_globals_t@@A[ecx*4+5196], eax

; 172  : 			texture = tr.shadowTextures[i];

	mov	eax, DWORD PTR _i$[ebp]
	mov	ecx, DWORD PTR ?tr@@3Uref_globals_t@@A[eax*4+5196]
	mov	DWORD PTR _texture$[ebp], ecx
$LN13@R_Allocate:

; 173  : 		}
; 174  : 
; 175  : 		pglBindFramebuffer( GL_FRAMEBUFFER_EXT, framebuffer[i] );

	mov	eax, DWORD PTR _i$[ebp]
	mov	ecx, DWORD PTR ?framebuffer@@3PAIA[eax*4]
	push	ecx
	push	36160					; 00008d40H
	call	DWORD PTR ?pglBindFramebuffer@@3P6GXII@ZA ; pglBindFramebuffer

; 176  : 		pglFramebufferTexture2D( GL_FRAMEBUFFER_EXT, GL_DEPTH_ATTACHMENT_EXT, GL_TEXTURE_2D, RENDER_GET_PARM( PARM_TEX_TEXNUM, texture ), 0 );

	push	0
	mov	eax, DWORD PTR _texture$[ebp]
	push	eax
	push	9
	call	DWORD PTR ?gRenderfuncs@@3Urender_api_s@@A
	add	esp, 8
	push	eax
	push	3553					; 00000de1H
	push	36096					; 00008d00H
	push	36160					; 00008d40H
	call	DWORD PTR ?pglFramebufferTexture2D@@3P6GXIIIIH@ZA ; pglFramebufferTexture2D
$LN3@R_Allocate:

; 177  : 	}
; 178  : 
; 179  : 	ValidateFBO();

	call	?ValidateFBO@@YA_NXZ			; ValidateFBO

; 180  : 
; 181  : 	return texture;

	mov	eax, DWORD PTR _texture$[ebp]
$LN1@R_Allocate:

; 182  : }

	pop	edi
	pop	esi
	pop	ebx
	mov	ecx, DWORD PTR __$ArrayPad$[ebp]
	xor	ecx, ebp
	call	@__security_check_cookie@4
	mov	esp, ebp
	pop	ebp
	ret	0
?R_AllocateShadowFramebuffer@@YAHPAUplight_s@@H@Z ENDP	; R_AllocateShadowFramebuffer
_TEXT	ENDS
; Function compile flags: /Odtp /ZI
; File d:\!diffusion 2020\source code 2022\client-server\client\render\r_shadows.cpp
;	COMDAT ??__Elight_sides@@YAXXZ
text$di	SEGMENT
??__Elight_sides@@YAXXZ PROC				; `dynamic initializer for 'light_sides'', COMDAT

; 33   : };

	push	ebp
	mov	ebp, esp
	sub	esp, 64					; 00000040H
	push	ebx
	push	esi
	push	edi

; 27   : Vector( 0.0f,   0.0f,  90.0f ),		// GL_TEXTURE_CUBE_MAP_POSITIVE_X_ARB 

	push	ecx
	movss	xmm0, DWORD PTR __real@42b40000
	movss	DWORD PTR [esp], xmm0
	push	ecx
	xorps	xmm0, xmm0
	movss	DWORD PTR [esp], xmm0
	push	ecx
	xorps	xmm0, xmm0
	movss	DWORD PTR [esp], xmm0
	mov	ecx, OFFSET ?light_sides@@3PAVVector@@A
	call	??0Vector@@QAE@MMM@Z			; Vector::Vector

; 28   : Vector( 0.0f, 180.0f, -90.0f ),		// GL_TEXTURE_CUBE_MAP_NEGATIVE_X_ARB 

	push	ecx
	movss	xmm0, DWORD PTR __real@c2b40000
	movss	DWORD PTR [esp], xmm0
	push	ecx
	movss	xmm0, DWORD PTR __real@43340000
	movss	DWORD PTR [esp], xmm0
	push	ecx
	xorps	xmm0, xmm0
	movss	DWORD PTR [esp], xmm0
	mov	ecx, OFFSET ?light_sides@@3PAVVector@@A+12
	call	??0Vector@@QAE@MMM@Z			; Vector::Vector

; 29   : Vector( 0.0f,  90.0f,   0.0f ),		// GL_TEXTURE_CUBE_MAP_POSITIVE_Y_ARB

	push	ecx
	xorps	xmm0, xmm0
	movss	DWORD PTR [esp], xmm0
	push	ecx
	movss	xmm0, DWORD PTR __real@42b40000
	movss	DWORD PTR [esp], xmm0
	push	ecx
	xorps	xmm0, xmm0
	movss	DWORD PTR [esp], xmm0
	mov	ecx, OFFSET ?light_sides@@3PAVVector@@A+24
	call	??0Vector@@QAE@MMM@Z			; Vector::Vector

; 30   : Vector( 0.0f, 270.0f, 180.0f ),		// GL_TEXTURE_CUBE_MAP_NEGATIVE_Y_ARB 

	push	ecx
	movss	xmm0, DWORD PTR __real@43340000
	movss	DWORD PTR [esp], xmm0
	push	ecx
	movss	xmm0, DWORD PTR __real@43870000
	movss	DWORD PTR [esp], xmm0
	push	ecx
	xorps	xmm0, xmm0
	movss	DWORD PTR [esp], xmm0
	mov	ecx, OFFSET ?light_sides@@3PAVVector@@A+36
	call	??0Vector@@QAE@MMM@Z			; Vector::Vector

; 31   : Vector( -90.0f, 180.0f, -90.0f ),	// GL_TEXTURE_CUBE_MAP_POSITIVE_Z_ARB

	push	ecx
	movss	xmm0, DWORD PTR __real@c2b40000
	movss	DWORD PTR [esp], xmm0
	push	ecx
	movss	xmm0, DWORD PTR __real@43340000
	movss	DWORD PTR [esp], xmm0
	push	ecx
	movss	xmm0, DWORD PTR __real@c2b40000
	movss	DWORD PTR [esp], xmm0
	mov	ecx, OFFSET ?light_sides@@3PAVVector@@A+48
	call	??0Vector@@QAE@MMM@Z			; Vector::Vector

; 32   : Vector( 90.0f,   0.0f,  90.0f ),	// GL_TEXTURE_CUBE_MAP_NEGATIVE_Z_ARB

	push	ecx
	movss	xmm0, DWORD PTR __real@42b40000
	movss	DWORD PTR [esp], xmm0
	push	ecx
	xorps	xmm0, xmm0
	movss	DWORD PTR [esp], xmm0
	push	ecx
	movss	xmm0, DWORD PTR __real@42b40000
	movss	DWORD PTR [esp], xmm0
	mov	ecx, OFFSET ?light_sides@@3PAVVector@@A+60
	call	??0Vector@@QAE@MMM@Z			; Vector::Vector
	pop	edi
	pop	esi
	pop	ebx
	mov	esp, ebp
	pop	ebp
	ret	0
??__Elight_sides@@YAXXZ ENDP				; `dynamic initializer for 'light_sides''
text$di	ENDS
; Function compile flags: /Odtp /ZI
; File d:\!diffusion 2020\source code 2022\client-server\client\render\r_shadows.cpp
;	COMDAT ?R_ResetShadowTextures@@YAXXZ
_TEXT	SEGMENT
tv93 = -76						; size = 4
tv92 = -72						; size = 4
tv80 = -72						; size = 4
_i$ = -4						; size = 4
?R_ResetShadowTextures@@YAXXZ PROC			; R_ResetShadowTextures, COMDAT

; 53   : {

	push	ebp
	mov	ebp, esp
	sub	esp, 76					; 0000004cH
	push	ebx
	push	esi
	push	edi

; 54   : 	int	i;
; 55   : 
; 56   : 	for( i = 0; i < MAX_SHADOWS; i++ )

	mov	DWORD PTR _i$[ebp], 0
	jmp	SHORT $LN4@R_ResetSha
$LN2@R_ResetSha:
	mov	eax, DWORD PTR _i$[ebp]
	add	eax, 1
	mov	DWORD PTR _i$[ebp], eax
$LN4@R_ResetSha:
	cmp	DWORD PTR _i$[ebp], 64			; 00000040H
	jge	SHORT $LN3@R_ResetSha

; 57   : 	{
; 58   : 		if( !tr.shadowTextures[i] ) break;

	mov	eax, DWORD PTR _i$[ebp]
	cmp	DWORD PTR ?tr@@3Uref_globals_t@@A[eax*4+5196], 0
	jne	SHORT $LN10@R_ResetSha
	jmp	SHORT $LN3@R_ResetSha
$LN10@R_ResetSha:

; 59   : 		FREE_TEXTURE( tr.shadowTextures[i] );

	mov	eax, DWORD PTR _i$[ebp]
	mov	ecx, DWORD PTR ?tr@@3Uref_globals_t@@A[eax*4+5196]
	push	ecx
	call	DWORD PTR ?gRenderfuncs@@3Urender_api_s@@A+76
	add	esp, 4

; 60   : 	}

	jmp	SHORT $LN2@R_ResetSha
$LN3@R_ResetSha:

; 61   : 
; 62   : 	for( i = 0; i < MAX_SHADOWS; i++ )

	mov	DWORD PTR _i$[ebp], 0
	jmp	SHORT $LN7@R_ResetSha
$LN5@R_ResetSha:
	mov	eax, DWORD PTR _i$[ebp]
	add	eax, 1
	mov	DWORD PTR _i$[ebp], eax
$LN7@R_ResetSha:
	cmp	DWORD PTR _i$[ebp], 64			; 00000040H
	jge	SHORT $LN6@R_ResetSha

; 63   : 	{
; 64   : 		if( !tr.shadowCubemaps[i] ) break;

	mov	eax, DWORD PTR _i$[ebp]
	cmp	DWORD PTR ?tr@@3Uref_globals_t@@A[eax*4+5452], 0
	jne	SHORT $LN11@R_ResetSha
	jmp	SHORT $LN6@R_ResetSha
$LN11@R_ResetSha:

; 65   : 		FREE_TEXTURE( tr.shadowCubemaps[i] );

	mov	eax, DWORD PTR _i$[ebp]
	mov	ecx, DWORD PTR ?tr@@3Uref_globals_t@@A[eax*4+5452]
	push	ecx
	call	DWORD PTR ?gRenderfuncs@@3Urender_api_s@@A+76
	add	esp, 4

; 66   : 	}

	jmp	SHORT $LN5@R_ResetSha
$LN6@R_ResetSha:

; 67   : 
; 68   : 	memset( tr.shadowTextures, 0, sizeof( tr.shadowTextures ) );

	push	256					; 00000100H
	push	0
	push	OFFSET ?tr@@3Uref_globals_t@@A+5196
	call	_memset
	add	esp, 12					; 0000000cH

; 69   : 	memset( tr.shadowCubemaps, 0, sizeof( tr.shadowCubemaps ) );

	push	256					; 00000100H
	push	0
	push	OFFSET ?tr@@3Uref_globals_t@@A+5452
	call	_memset
	add	esp, 12					; 0000000cH

; 70   : 
; 71   : 	ShadowViewport = 512;

	mov	DWORD PTR ?ShadowViewport@@3HA, 512	; 00000200H

; 72   : 
; 73   : 	switch( ShadowQualityLevel )

	mov	eax, DWORD PTR ?ShadowQualityLevel@@3HA
	mov	DWORD PTR tv80[ebp], eax
	cmp	DWORD PTR tv80[ebp], 4
	ja	SHORT $LN8@R_ResetSha
	mov	ecx, DWORD PTR tv80[ebp]
	jmp	DWORD PTR $LN23@R_ResetSha[ecx*4]
$LN12@R_ResetSha:

; 74   : 	{
; 75   : 	case 0: ShadowViewport = 256; break;

	mov	DWORD PTR ?ShadowViewport@@3HA, 256	; 00000100H
	jmp	SHORT $LN8@R_ResetSha
$LN13@R_ResetSha:

; 76   : 	case 1: ShadowViewport = 512; break;

	mov	DWORD PTR ?ShadowViewport@@3HA, 512	; 00000200H
	jmp	SHORT $LN8@R_ResetSha
$LN14@R_ResetSha:

; 77   : 	case 2: ShadowViewport = 1024; break;

	mov	DWORD PTR ?ShadowViewport@@3HA, 1024	; 00000400H
	jmp	SHORT $LN8@R_ResetSha
$LN15@R_ResetSha:

; 78   : 	case 3: ShadowViewport = 2048; break;

	mov	DWORD PTR ?ShadowViewport@@3HA, 2048	; 00000800H
	jmp	SHORT $LN8@R_ResetSha
$LN16@R_ResetSha:

; 79   : 	case 4: ShadowViewport = 4096; break;

	mov	DWORD PTR ?ShadowViewport@@3HA, 4096	; 00001000H
$LN8@R_ResetSha:

; 80   : 	}
; 81   : 
; 82   : 	if( !FBOsupported )

	movzx	eax, BYTE PTR ?FBOsupported@@3_NA
	test	eax, eax
	jne	SHORT $LN17@R_ResetSha

; 83   : 	{
; 84   : 		ShadowViewport = bound( 256, ShadowViewport, 512 );

	cmp	DWORD PTR ?ShadowViewport@@3HA, 256	; 00000100H
	jl	SHORT $LN21@R_ResetSha
	cmp	DWORD PTR ?ShadowViewport@@3HA, 512	; 00000200H
	jge	SHORT $LN19@R_ResetSha
	mov	eax, DWORD PTR ?ShadowViewport@@3HA
	mov	DWORD PTR tv92[ebp], eax
	jmp	SHORT $LN20@R_ResetSha
$LN19@R_ResetSha:
	mov	DWORD PTR tv92[ebp], 512		; 00000200H
$LN20@R_ResetSha:
	mov	ecx, DWORD PTR tv92[ebp]
	mov	DWORD PTR tv93[ebp], ecx
	jmp	SHORT $LN22@R_ResetSha
$LN21@R_ResetSha:
	mov	DWORD PTR tv93[ebp], 256		; 00000100H
$LN22@R_ResetSha:
	mov	edx, DWORD PTR tv93[ebp]
	mov	DWORD PTR ?ShadowViewport@@3HA, edx

; 85   : 		ConPrintf( "FBO not supported, shadow quality reset to (%ip)\n", ShadowViewport );

	mov	eax, DWORD PTR ?ShadowViewport@@3HA
	push	eax
	push	OFFSET ??_C@_0DC@EDEGIHDA@FBO?5not?5supported?0?5shadow?5qualit@
	call	DWORD PTR ?gEngfuncs@@3Ucl_enginefuncs_s@@A+160
	add	esp, 8

; 86   : 		return;

	jmp	SHORT $LN1@R_ResetSha
$LN17@R_ResetSha:

; 87   : 	}
; 88   : 
; 89   : 	ConPrintf( "Shadow textures reset to quality %i (%ip)\n", ShadowQualityLevel, ShadowViewport );

	mov	eax, DWORD PTR ?ShadowViewport@@3HA
	push	eax
	mov	ecx, DWORD PTR ?ShadowQualityLevel@@3HA
	push	ecx
	push	OFFSET ??_C@_0CL@GJNFOFDD@Shadow?5textures?5reset?5to?5quality@
	call	DWORD PTR ?gEngfuncs@@3Ucl_enginefuncs_s@@A+160
	add	esp, 12					; 0000000cH
$LN1@R_ResetSha:

; 90   : }

	pop	edi
	pop	esi
	pop	ebx
	mov	esp, ebp
	pop	ebp
	ret	0
	npad	1
$LN23@R_ResetSha:
	DD	$LN12@R_ResetSha
	DD	$LN13@R_ResetSha
	DD	$LN14@R_ResetSha
	DD	$LN15@R_ResetSha
	DD	$LN16@R_ResetSha
?R_ResetShadowTextures@@YAXXZ ENDP			; R_ResetShadowTextures
_TEXT	ENDS
; Function compile flags: /Odtp /ZI
; File d:\!diffusion 2020\source code 2022\client-server\client\render\r_shadows.cpp
;	COMDAT ?R_RenderShadowmaps@@YAXXZ
_TEXT	SEGMENT
tv75 = -77						; size = 1
tv67 = -77						; size = 1
_j$1 = -12						; size = 4
_pl$2 = -8						; size = 4
_i$3 = -4						; size = 4
?R_RenderShadowmaps@@YAXXZ PROC				; R_RenderShadowmaps, COMDAT

; 531  : {

	push	ebp
	mov	ebp, esp
	sub	esp, 80					; 00000050H
	push	ebx
	push	esi
	push	edi

; 532  : 	if (R_FullBright() || !CVAR_TO_BOOL(r_shadows) || tr.fGamePaused || tr.shadows_notsupport)

	cmp	DWORD PTR ?r_fullbright@@3PAUcvar_s@@A, 0 ; r_fullbright
	je	SHORT $LN21@R_RenderSh
	mov	eax, DWORD PTR ?r_fullbright@@3PAUcvar_s@@A ; r_fullbright
	movss	xmm0, DWORD PTR [eax+12]
	ucomiss	xmm0, DWORD PTR __real@00000000
	lahf
	test	ah, 68					; 00000044H
	jnp	SHORT $LN21@R_RenderSh
	mov	BYTE PTR tv67[ebp], 1
	jmp	SHORT $LN22@R_RenderSh
$LN21@R_RenderSh:
	mov	BYTE PTR tv67[ebp], 0
$LN22@R_RenderSh:
	movzx	ecx, BYTE PTR tv67[ebp]
	test	ecx, ecx
	jne	SHORT $LN9@R_RenderSh
	mov	eax, DWORD PTR ?worldmodel@@3PAUmodel_s@@A ; worldmodel
	cmp	DWORD PTR [eax+380], 0
	je	SHORT $LN9@R_RenderSh
	cmp	DWORD PTR ?r_shadows@@3PAUcvar_s@@A, 0	; r_shadows
	je	SHORT $LN23@R_RenderSh
	mov	eax, DWORD PTR ?r_shadows@@3PAUcvar_s@@A ; r_shadows
	movss	xmm0, DWORD PTR [eax+12]
	ucomiss	xmm0, DWORD PTR __real@00000000
	lahf
	test	ah, 68					; 00000044H
	jnp	SHORT $LN23@R_RenderSh
	mov	BYTE PTR tv75[ebp], 1
	jmp	SHORT $LN24@R_RenderSh
$LN23@R_RenderSh:
	mov	BYTE PTR tv75[ebp], 0
$LN24@R_RenderSh:
	movzx	ecx, BYTE PTR tv75[ebp]
	test	ecx, ecx
	je	SHORT $LN9@R_RenderSh
	cmp	DWORD PTR ?tr@@3Uref_globals_t@@A+4, 0
	jne	SHORT $LN9@R_RenderSh
	movzx	eax, BYTE PTR ?tr@@3Uref_globals_t@@A+5830934
	test	eax, eax
	je	SHORT $LN8@R_RenderSh
$LN9@R_RenderSh:

; 533  : 		return;

	jmp	$LN1@R_RenderSh
$LN8@R_RenderSh:

; 534  : 
; 535  : 	if( FBitSet( RI->params, RP_ENVVIEW ) )

	mov	eax, DWORD PTR ?RI@@3PAUref_instance_t@@A ; RI
	mov	ecx, DWORD PTR [eax]
	and	ecx, 2
	je	SHORT $LN10@R_RenderSh

; 536  : 		return;

	jmp	$LN1@R_RenderSh
$LN10@R_RenderSh:

; 537  : 	
; 538  : 	// check for dynamic lights
; 539  : 	if (!R_CountPlights(true)) return;

	push	1
	call	?R_CountPlights@@YAH_N@Z		; R_CountPlights
	add	esp, 4
	test	eax, eax
	jne	SHORT $LN11@R_RenderSh
	jmp	$LN1@R_RenderSh
$LN11@R_RenderSh:

; 540  : 
; 541  : 	R_PushRefState();

	call	?R_PushRefState@@YAXXZ			; R_PushRefState

; 542  : 
; 543  : 	FBOsupported = GL_Support( R_FRAMEBUFFER_OBJECT );

	push	20					; 00000014H
	call	?GL_Support@@YA_NH@Z			; GL_Support
	add	esp, 4
	mov	BYTE PTR ?FBOsupported@@3_NA, al

; 544  : 
; 545  : 	if( ShadowQualityLevel != (int)r_shadowquality->value )

	mov	eax, DWORD PTR ?r_shadowquality@@3PAUcvar_s@@A ; r_shadowquality
	cvttss2si ecx, DWORD PTR [eax+12]
	cmp	DWORD PTR ?ShadowQualityLevel@@3HA, ecx
	je	SHORT $LN12@R_RenderSh

; 546  : 	{
; 547  : 		ShadowQualityLevel = (int)r_shadowquality->value;

	mov	eax, DWORD PTR ?r_shadowquality@@3PAUcvar_s@@A ; r_shadowquality
	cvttss2si ecx, DWORD PTR [eax+12]
	mov	DWORD PTR ?ShadowQualityLevel@@3HA, ecx

; 548  : 		R_ResetShadowTextures();

	call	?R_ResetShadowTextures@@YAXXZ		; R_ResetShadowTextures
$LN12@R_RenderSh:

; 549  : 	}
; 550  : 
; 551  : 	for (int i = 0; i < MAX_PLIGHTS; i++)

	mov	DWORD PTR _i$3[ebp], 0
	jmp	SHORT $LN4@R_RenderSh
$LN2@R_RenderSh:
	mov	eax, DWORD PTR _i$3[ebp]
	add	eax, 1
	mov	DWORD PTR _i$3[ebp], eax
$LN4@R_RenderSh:
	cmp	DWORD PTR _i$3[ebp], 96			; 00000060H
	jge	$LN3@R_RenderSh

; 552  : 	{
; 553  : 		plight_t* pl = &cl_plights[i];

	imul	eax, DWORD PTR _i$3[ebp], 768
	add	eax, OFFSET ?cl_plights@@3PAUplight_s@@A ; cl_plights
	mov	DWORD PTR _pl$2[ebp], eax

; 554  : 
; 555  : 		if( FBitSet( pl->flags, CF_NOSHADOWS ) )

	mov	eax, DWORD PTR _pl$2[ebp]
	mov	ecx, DWORD PTR [eax+744]
	and	ecx, 1024				; 00000400H
	je	SHORT $LN13@R_RenderSh

; 556  : 			continue;

	jmp	SHORT $LN2@R_RenderSh
$LN13@R_RenderSh:

; 557  : 
; 558  : 		if (pl->die < tr.time || !pl->radius || pl->culled)

	mov	eax, DWORD PTR _pl$2[ebp]
	cvtss2sd xmm0, DWORD PTR [eax+32]
	movsd	xmm1, QWORD PTR ?tr@@3Uref_globals_t@@A+8
	comisd	xmm1, xmm0
	ja	SHORT $LN15@R_RenderSh
	mov	eax, DWORD PTR _pl$2[ebp]
	movss	xmm0, DWORD PTR [eax+24]
	ucomiss	xmm0, DWORD PTR __real@00000000
	lahf
	test	ah, 68					; 00000044H
	jnp	SHORT $LN15@R_RenderSh
	mov	eax, DWORD PTR _pl$2[ebp]
	movzx	ecx, BYTE PTR [eax+46]
	test	ecx, ecx
	je	SHORT $LN14@R_RenderSh
$LN15@R_RenderSh:

; 559  : 			continue;

	jmp	SHORT $LN2@R_RenderSh
$LN14@R_RenderSh:

; 560  : 
; 561  : 		if( !Mod_CheckBoxVisible( pl->absmin, pl->absmax ) )

	mov	eax, DWORD PTR _pl$2[ebp]
	add	eax, 316				; 0000013cH
	push	eax
	mov	ecx, DWORD PTR _pl$2[ebp]
	add	ecx, 304				; 00000130H
	push	ecx
	call	?Mod_CheckBoxVisible@@YA_NABVVector@@0@Z ; Mod_CheckBoxVisible
	add	esp, 8
	movzx	edx, al
	test	edx, edx
	jne	SHORT $LN16@R_RenderSh

; 562  : 			continue;

	jmp	$LN2@R_RenderSh
$LN16@R_RenderSh:

; 563  : 
; 564  : 		if( R_CullBox( pl->absmin, pl->absmax ) )

	push	0
	mov	eax, DWORD PTR _pl$2[ebp]
	add	eax, 316				; 0000013cH
	push	eax
	mov	ecx, DWORD PTR _pl$2[ebp]
	add	ecx, 304				; 00000130H
	push	ecx
	mov	ecx, DWORD PTR ?RI@@3PAUref_instance_t@@A ; RI
	add	ecx, 48					; 00000030H
	call	?CullBox@CFrustum@@QAE_NABVVector@@0H@Z	; CFrustum::CullBox
	movzx	edx, al
	test	edx, edx
	je	SHORT $LN17@R_RenderSh

; 565  : 			continue;

	jmp	$LN2@R_RenderSh
$LN17@R_RenderSh:

; 566  : 
; 567  : 		if( pl->pointlight )

	mov	eax, DWORD PTR _pl$2[ebp]
	movzx	ecx, BYTE PTR [eax+44]
	test	ecx, ecx
	je	SHORT $LN18@R_RenderSh

; 568  : 		{
; 569  : 			for( int j = 0; j < 6; j++ )

	mov	DWORD PTR _j$1[ebp], 0
	jmp	SHORT $LN7@R_RenderSh
$LN5@R_RenderSh:
	mov	eax, DWORD PTR _j$1[ebp]
	add	eax, 1
	mov	DWORD PTR _j$1[ebp], eax
$LN7@R_RenderSh:
	cmp	DWORD PTR _j$1[ebp], 6
	jge	SHORT $LN6@R_RenderSh

; 570  : 			{
; 571  : 				R_RenderShadowCubeSide( pl, j );

	mov	eax, DWORD PTR _j$1[ebp]
	push	eax
	mov	ecx, DWORD PTR _pl$2[ebp]
	push	ecx
	call	?R_RenderShadowCubeSide@@YAXPAUplight_s@@H@Z ; R_RenderShadowCubeSide
	add	esp, 8

; 572  : 				R_ResetRefState();

	call	?R_ResetRefState@@YAXXZ			; R_ResetRefState

; 573  : 			}

	jmp	SHORT $LN5@R_RenderSh
$LN6@R_RenderSh:

; 574  : 		}
; 575  : 		else

	jmp	SHORT $LN19@R_RenderSh
$LN18@R_RenderSh:

; 576  : 		{
; 577  : 			R_RenderShadowScene( pl );

	mov	eax, DWORD PTR _pl$2[ebp]
	push	eax
	call	?R_RenderShadowScene@@YAXPAUplight_s@@@Z ; R_RenderShadowScene
	add	esp, 4

; 578  : 			R_ResetRefState();

	call	?R_ResetRefState@@YAXXZ			; R_ResetRefState
$LN19@R_RenderSh:

; 579  : 		}
; 580  : 
; 581  : 		r_stats.c_shadow_passes++;

	mov	eax, DWORD PTR ?r_stats@@3Uref_stats_t@@A+52
	add	eax, 1
	mov	DWORD PTR ?r_stats@@3Uref_stats_t@@A+52, eax

; 582  : 	}

	jmp	$LN2@R_RenderSh
$LN3@R_RenderSh:

; 583  : 
; 584  : 	R_PopRefState();

	call	?R_PopRefState@@YAXXZ			; R_PopRefState
$LN1@R_RenderSh:

; 585  : }

	pop	edi
	pop	esi
	pop	ebx
	mov	esp, ebp
	pop	ebp
	ret	0
?R_RenderShadowmaps@@YAXXZ ENDP				; R_RenderShadowmaps
_TEXT	ENDS
; Function compile flags: /Odtp /ZI
; File d:\!diffusion 2020\source code 2022\client-server\client\render\r_studio.h
;	COMDAT ?R_DrawStudioModel@@YAXPAUcl_entity_s@@@Z
_TEXT	SEGMENT
_e$ = 8							; size = 4
?R_DrawStudioModel@@YAXPAUcl_entity_s@@@Z PROC		; R_DrawStudioModel, COMDAT

; 710  : inline void R_DrawStudioModel( cl_entity_t *e ) { g_StudioRenderer.DrawStudioModelInternal( e ); }

	push	ebp
	mov	ebp, esp
	sub	esp, 64					; 00000040H
	push	ebx
	push	esi
	push	edi
	mov	eax, DWORD PTR _e$[ebp]
	push	eax
	mov	ecx, OFFSET ?g_StudioRenderer@@3VCStudioModelRenderer@@A ; g_StudioRenderer
	call	?DrawStudioModelInternal@CStudioModelRenderer@@QAEXPAUcl_entity_s@@@Z ; CStudioModelRenderer::DrawStudioModelInternal
	pop	edi
	pop	esi
	pop	ebx
	mov	esp, ebp
	pop	ebp
	ret	0
?R_DrawStudioModel@@YAXPAUcl_entity_s@@@Z ENDP		; R_DrawStudioModel
_TEXT	ENDS
; Function compile flags: /Odtp /ZI
; File d:\!diffusion 2020\source code 2022\client-server\game_shared\mathlib.h
;	COMDAT ?anglemod@@YAMM@Z
_TEXT	SEGMENT
tv73 = -68						; size = 4
_a$ = 8							; size = 4
?anglemod@@YAMM@Z PROC					; anglemod, COMDAT

; 82   : inline float anglemod( float a ) { return (360.0f / 65536) * ((int)(a * (65536 / 360.0f)) & 65535); }

	push	ebp
	mov	ebp, esp
	sub	esp, 68					; 00000044H
	push	ebx
	push	esi
	push	edi
	movss	xmm0, DWORD PTR _a$[ebp]
	mulss	xmm0, DWORD PTR __real@43360b61
	cvttss2si eax, xmm0
	and	eax, 65535				; 0000ffffH
	cvtsi2ss xmm0, eax
	mulss	xmm0, DWORD PTR __real@3bb40000
	movss	DWORD PTR tv73[ebp], xmm0
	fld	DWORD PTR tv73[ebp]
	pop	edi
	pop	esi
	pop	ebx
	mov	esp, ebp
	pop	ebp
	ret	0
?anglemod@@YAMM@Z ENDP					; anglemod
_TEXT	ENDS
; Function compile flags: /Odtp /ZI
;	COMDAT ??0matrix4x4@@QAE@ABV0@@Z
_TEXT	SEGMENT
_this$ = -4						; size = 4
___that$ = 8						; size = 4
??0matrix4x4@@QAE@ABV0@@Z PROC				; matrix4x4::matrix4x4, COMDAT
; _this$ = ecx
	push	ebp
	mov	ebp, esp
	sub	esp, 68					; 00000044H
	push	ebx
	push	esi
	push	edi
	mov	DWORD PTR _this$[ebp], ecx
	push	OFFSET ??0Vector4D@@QAE@ABV0@@Z		; Vector4D::Vector4D
	push	4
	push	16					; 00000010H
	mov	eax, DWORD PTR ___that$[ebp]
	push	eax
	mov	ecx, DWORD PTR _this$[ebp]
	push	ecx
	call	??__G@YGXPAX0IIP6EPAX00@Z@Z
	mov	eax, DWORD PTR _this$[ebp]
	pop	edi
	pop	esi
	pop	ebx
	mov	esp, ebp
	pop	ebp
	ret	4
??0matrix4x4@@QAE@ABV0@@Z ENDP				; matrix4x4::matrix4x4
_TEXT	ENDS
; Function compile flags: /Odtp /ZI
; File d:\!diffusion 2020\source code 2022\client-server\game_shared\matrix.h
;	COMDAT ?ConcatRotate@matrix4x4@@QAEXMMMM@Z
_TEXT	SEGMENT
$T1 = -204						; size = 64
_temp$ = -72						; size = 64
_this$ = -8						; size = 4
__$ArrayPad$ = -4					; size = 4
_angle$ = 8						; size = 4
_x$ = 12						; size = 4
_y$ = 16						; size = 4
_z$ = 20						; size = 4
?ConcatRotate@matrix4x4@@QAEXMMMM@Z PROC		; matrix4x4::ConcatRotate, COMDAT
; _this$ = ecx

; 1100 : 	{

	push	ebp
	mov	ebp, esp
	sub	esp, 204				; 000000ccH
	mov	eax, DWORD PTR ___security_cookie
	xor	eax, ebp
	mov	DWORD PTR __$ArrayPad$[ebp], eax
	push	ebx
	push	esi
	push	edi
	mov	DWORD PTR _this$[ebp], ecx

; 1101 : 		matrix4x4 temp;

	lea	ecx, DWORD PTR _temp$[ebp]
	call	??0matrix4x4@@QAE@XZ			; matrix4x4::matrix4x4

; 1102 : 		temp.CreateRotate( angle, x, y, z );

	push	ecx
	movss	xmm0, DWORD PTR _z$[ebp]
	movss	DWORD PTR [esp], xmm0
	push	ecx
	movss	xmm0, DWORD PTR _y$[ebp]
	movss	DWORD PTR [esp], xmm0
	push	ecx
	movss	xmm0, DWORD PTR _x$[ebp]
	movss	DWORD PTR [esp], xmm0
	push	ecx
	movss	xmm0, DWORD PTR _angle$[ebp]
	movss	DWORD PTR [esp], xmm0
	lea	ecx, DWORD PTR _temp$[ebp]
	call	?CreateRotate@matrix4x4@@QAEXMMMM@Z	; matrix4x4::CreateRotate

; 1103 : 		*this = Concat( temp );

	sub	esp, 64					; 00000040H
	mov	ecx, esp
	lea	eax, DWORD PTR _temp$[ebp]
	push	eax
	call	??0matrix4x4@@QAE@ABV0@@Z
	lea	ecx, DWORD PTR $T1[ebp]
	push	ecx
	mov	ecx, DWORD PTR _this$[ebp]
	call	?Concat@matrix4x4@@QAE?AV1@V1@@Z	; matrix4x4::Concat
	push	eax
	mov	ecx, DWORD PTR _this$[ebp]
	call	??4matrix4x4@@QAEAAV0@ABV0@@Z		; matrix4x4::operator=

; 1104 : 	}

	pop	edi
	pop	esi
	pop	ebx
	mov	ecx, DWORD PTR __$ArrayPad$[ebp]
	xor	ecx, ebp
	call	@__security_check_cookie@4
	mov	esp, ebp
	pop	ebp
	ret	16					; 00000010H
?ConcatRotate@matrix4x4@@QAEXMMMM@Z ENDP		; matrix4x4::ConcatRotate
_TEXT	ENDS
; Function compile flags: /Odtp /ZI
; File d:\!diffusion 2020\source code 2022\client-server\game_shared\matrix.h
;	COMDAT ?ConcatTranslate@matrix4x4@@QAEXMMM@Z
_TEXT	SEGMENT
$T1 = -204						; size = 64
_temp$ = -72						; size = 64
_this$ = -8						; size = 4
__$ArrayPad$ = -4					; size = 4
_x$ = 8							; size = 4
_y$ = 12						; size = 4
_z$ = 16						; size = 4
?ConcatTranslate@matrix4x4@@QAEXMMM@Z PROC		; matrix4x4::ConcatTranslate, COMDAT
; _this$ = ecx

; 1093 : 	{

	push	ebp
	mov	ebp, esp
	sub	esp, 204				; 000000ccH
	mov	eax, DWORD PTR ___security_cookie
	xor	eax, ebp
	mov	DWORD PTR __$ArrayPad$[ebp], eax
	push	ebx
	push	esi
	push	edi
	mov	DWORD PTR _this$[ebp], ecx

; 1094 : 		matrix4x4 temp;

	lea	ecx, DWORD PTR _temp$[ebp]
	call	??0matrix4x4@@QAE@XZ			; matrix4x4::matrix4x4

; 1095 : 		temp.CreateTranslate( x, y, z );

	push	ecx
	movss	xmm0, DWORD PTR _z$[ebp]
	movss	DWORD PTR [esp], xmm0
	push	ecx
	movss	xmm0, DWORD PTR _y$[ebp]
	movss	DWORD PTR [esp], xmm0
	push	ecx
	movss	xmm0, DWORD PTR _x$[ebp]
	movss	DWORD PTR [esp], xmm0
	lea	ecx, DWORD PTR _temp$[ebp]
	call	?CreateTranslate@matrix4x4@@QAEXMMM@Z	; matrix4x4::CreateTranslate

; 1096 : 		*this = Concat( temp );

	sub	esp, 64					; 00000040H
	mov	ecx, esp
	lea	eax, DWORD PTR _temp$[ebp]
	push	eax
	call	??0matrix4x4@@QAE@ABV0@@Z
	lea	ecx, DWORD PTR $T1[ebp]
	push	ecx
	mov	ecx, DWORD PTR _this$[ebp]
	call	?Concat@matrix4x4@@QAE?AV1@V1@@Z	; matrix4x4::Concat
	push	eax
	mov	ecx, DWORD PTR _this$[ebp]
	call	??4matrix4x4@@QAEAAV0@ABV0@@Z		; matrix4x4::operator=

; 1097 : 	}

	pop	edi
	pop	esi
	pop	ebx
	mov	ecx, DWORD PTR __$ArrayPad$[ebp]
	xor	ecx, ebp
	call	@__security_check_cookie@4
	mov	esp, ebp
	pop	ebp
	ret	12					; 0000000cH
?ConcatTranslate@matrix4x4@@QAEXMMM@Z ENDP		; matrix4x4::ConcatTranslate
_TEXT	ENDS
; Function compile flags: /Odtp /ZI
; File d:\!diffusion 2020\source code 2022\client-server\game_shared\matrix.h
;	COMDAT ??0matrix4x4@@QAE@ABVVector@@0M@Z
_TEXT	SEGMENT
tv1056 = -100						; size = 4
tv1054 = -100						; size = 4
tv1052 = -100						; size = 4
tv1050 = -100						; size = 4
tv1048 = -100						; size = 4
tv1046 = -100						; size = 4
tv1044 = -100						; size = 4
tv1042 = -100						; size = 4
tv1040 = -100						; size = 4
tv1038 = -100						; size = 4
tv1036 = -100						; size = 4
tv1034 = -100						; size = 4
tv1032 = -100						; size = 4
tv1030 = -100						; size = 4
tv1028 = -100						; size = 4
tv1026 = -100						; size = 4
tv1024 = -100						; size = 4
tv1022 = -100						; size = 4
tv1020 = -100						; size = 4
tv1018 = -100						; size = 4
tv1016 = -100						; size = 4
_cy$ = -32						; size = 4
_cp$ = -28						; size = 4
_cr$ = -24						; size = 4
_sy$ = -20						; size = 4
_sp$ = -16						; size = 4
_sr$ = -12						; size = 4
_angle$ = -8						; size = 4
_this$ = -4						; size = 4
_origin$ = 8						; size = 4
_angles$ = 12						; size = 4
_scale$ = 16						; size = 4
??0matrix4x4@@QAE@ABVVector@@0M@Z PROC			; matrix4x4::matrix4x4, COMDAT
; _this$ = ecx

; 701  : 	_forceinline matrix4x4( const Vector &origin, const Vector &angles, float scale = 1.0f )

	push	ebp
	mov	ebp, esp
	sub	esp, 100				; 00000064H
	push	ebx
	push	esi
	push	edi
	mov	DWORD PTR _this$[ebp], ecx

; 702  : 	{

	push	OFFSET ??0Vector4D@@QAE@XZ		; Vector4D::Vector4D
	push	4
	push	16					; 00000010H
	mov	eax, DWORD PTR _this$[ebp]
	push	eax
	call	??_H@YGXPAXIIP6EPAX0@Z@Z

; 703  : 		float	angle, sr, sp, sy, cr, cp, cy;
; 704  : 
; 705  : 		if( angles[ROLL] )

	mov	ecx, DWORD PTR _angles$[ebp]
	call	??BVector@@QBEPBMXZ			; Vector::operator float const *
	mov	ecx, 4
	shl	ecx, 1
	movss	xmm0, DWORD PTR [eax+ecx]
	ucomiss	xmm0, DWORD PTR __real@00000000
	lahf
	test	ah, 68					; 00000044H
	jnp	$LN2@matrix4x4

; 706  : 		{
; 707  : 			angle = angles[YAW] * (M_PI*2 / 360);

	mov	ecx, DWORD PTR _angles$[ebp]
	call	??BVector@@QBEPBMXZ			; Vector::operator float const *
	mov	ecx, 4
	shl	ecx, 0
	cvtss2sd xmm0, DWORD PTR [eax+ecx]
	mulsd	xmm0, QWORD PTR __real@3f91df46a2529d39
	cvtsd2ss xmm0, xmm0
	movss	DWORD PTR _angle$[ebp], xmm0

; 708  : 			SinCos( angle, &sy, &cy );

	lea	eax, DWORD PTR _cy$[ebp]
	push	eax
	lea	ecx, DWORD PTR _sy$[ebp]
	push	ecx
	push	ecx
	movss	xmm0, DWORD PTR _angle$[ebp]
	movss	DWORD PTR [esp], xmm0
	call	?SinCos@@YAXMPAM0@Z			; SinCos
	add	esp, 12					; 0000000cH

; 709  : 			angle = angles[PITCH] * (M_PI*2 / 360);

	mov	ecx, DWORD PTR _angles$[ebp]
	call	??BVector@@QBEPBMXZ			; Vector::operator float const *
	mov	ecx, 4
	imul	edx, ecx, 0
	cvtss2sd xmm0, DWORD PTR [eax+edx]
	mulsd	xmm0, QWORD PTR __real@3f91df46a2529d39
	cvtsd2ss xmm0, xmm0
	movss	DWORD PTR _angle$[ebp], xmm0

; 710  : 			SinCos( angle, &sp, &cp );

	lea	eax, DWORD PTR _cp$[ebp]
	push	eax
	lea	ecx, DWORD PTR _sp$[ebp]
	push	ecx
	push	ecx
	movss	xmm0, DWORD PTR _angle$[ebp]
	movss	DWORD PTR [esp], xmm0
	call	?SinCos@@YAXMPAM0@Z			; SinCos
	add	esp, 12					; 0000000cH

; 711  : 			angle = angles[ROLL] * (M_PI*2 / 360);

	mov	ecx, DWORD PTR _angles$[ebp]
	call	??BVector@@QBEPBMXZ			; Vector::operator float const *
	mov	ecx, 4
	shl	ecx, 1
	cvtss2sd xmm0, DWORD PTR [eax+ecx]
	mulsd	xmm0, QWORD PTR __real@3f91df46a2529d39
	cvtsd2ss xmm0, xmm0
	movss	DWORD PTR _angle$[ebp], xmm0

; 712  : 			SinCos( angle, &sr, &cr );

	lea	eax, DWORD PTR _cr$[ebp]
	push	eax
	lea	ecx, DWORD PTR _sr$[ebp]
	push	ecx
	push	ecx
	movss	xmm0, DWORD PTR _angle$[ebp]
	movss	DWORD PTR [esp], xmm0
	call	?SinCos@@YAXMPAM0@Z			; SinCos
	add	esp, 12					; 0000000cH

; 713  : 
; 714  : 			mat[0][0] = (cp*cy) * scale;

	movss	xmm0, DWORD PTR _cp$[ebp]
	mulss	xmm0, DWORD PTR _cy$[ebp]
	mulss	xmm0, DWORD PTR _scale$[ebp]
	mov	eax, 16					; 00000010H
	imul	ecx, eax, 0
	add	ecx, DWORD PTR _this$[ebp]
	movss	DWORD PTR tv1016[ebp], xmm0
	call	??BVector4D@@QAEPAMXZ			; Vector4D::operator float *
	mov	ecx, 4
	imul	edx, ecx, 0
	movss	xmm0, DWORD PTR tv1016[ebp]
	movss	DWORD PTR [eax+edx], xmm0

; 715  : 			mat[1][0] = (sr*sp*cy+cr*-sy) * scale;

	movss	xmm0, DWORD PTR _sr$[ebp]
	mulss	xmm0, DWORD PTR _sp$[ebp]
	mulss	xmm0, DWORD PTR _cy$[ebp]
	movss	xmm1, DWORD PTR _sy$[ebp]
	xorps	xmm1, DWORD PTR __xmm@80000000800000008000000080000000
	mulss	xmm1, DWORD PTR _cr$[ebp]
	addss	xmm0, xmm1
	mulss	xmm0, DWORD PTR _scale$[ebp]
	mov	ecx, 16					; 00000010H
	shl	ecx, 0
	add	ecx, DWORD PTR _this$[ebp]
	movss	DWORD PTR tv1018[ebp], xmm0
	call	??BVector4D@@QAEPAMXZ			; Vector4D::operator float *
	mov	ecx, 4
	imul	edx, ecx, 0
	movss	xmm0, DWORD PTR tv1018[ebp]
	movss	DWORD PTR [eax+edx], xmm0

; 716  : 			mat[2][0] = (cr*sp*cy+-sr*-sy) * scale;

	movss	xmm0, DWORD PTR _cr$[ebp]
	mulss	xmm0, DWORD PTR _sp$[ebp]
	mulss	xmm0, DWORD PTR _cy$[ebp]
	movss	xmm1, DWORD PTR _sr$[ebp]
	xorps	xmm1, DWORD PTR __xmm@80000000800000008000000080000000
	movss	xmm2, DWORD PTR _sy$[ebp]
	xorps	xmm2, DWORD PTR __xmm@80000000800000008000000080000000
	mulss	xmm1, xmm2
	addss	xmm0, xmm1
	mulss	xmm0, DWORD PTR _scale$[ebp]
	mov	ecx, 16					; 00000010H
	shl	ecx, 1
	add	ecx, DWORD PTR _this$[ebp]
	movss	DWORD PTR tv1020[ebp], xmm0
	call	??BVector4D@@QAEPAMXZ			; Vector4D::operator float *
	mov	ecx, 4
	imul	edx, ecx, 0
	movss	xmm0, DWORD PTR tv1020[ebp]
	movss	DWORD PTR [eax+edx], xmm0

; 717  : 			mat[3][0] = origin.x;

	mov	eax, 16					; 00000010H
	imul	ecx, eax, 3
	add	ecx, DWORD PTR _this$[ebp]
	call	??BVector4D@@QAEPAMXZ			; Vector4D::operator float *
	mov	ecx, 4
	imul	edx, ecx, 0
	mov	ecx, DWORD PTR _origin$[ebp]
	mov	ecx, DWORD PTR [ecx]
	mov	DWORD PTR [eax+edx], ecx

; 718  : 			mat[0][1] = (cp*sy) * scale;

	movss	xmm0, DWORD PTR _cp$[ebp]
	mulss	xmm0, DWORD PTR _sy$[ebp]
	mulss	xmm0, DWORD PTR _scale$[ebp]
	mov	eax, 16					; 00000010H
	imul	ecx, eax, 0
	add	ecx, DWORD PTR _this$[ebp]
	movss	DWORD PTR tv1022[ebp], xmm0
	call	??BVector4D@@QAEPAMXZ			; Vector4D::operator float *
	mov	ecx, 4
	shl	ecx, 0
	movss	xmm0, DWORD PTR tv1022[ebp]
	movss	DWORD PTR [eax+ecx], xmm0

; 719  : 			mat[1][1] = (sr*sp*sy+cr*cy) * scale;

	movss	xmm0, DWORD PTR _sr$[ebp]
	mulss	xmm0, DWORD PTR _sp$[ebp]
	mulss	xmm0, DWORD PTR _sy$[ebp]
	movss	xmm1, DWORD PTR _cr$[ebp]
	mulss	xmm1, DWORD PTR _cy$[ebp]
	addss	xmm0, xmm1
	mulss	xmm0, DWORD PTR _scale$[ebp]
	mov	ecx, 16					; 00000010H
	shl	ecx, 0
	add	ecx, DWORD PTR _this$[ebp]
	movss	DWORD PTR tv1024[ebp], xmm0
	call	??BVector4D@@QAEPAMXZ			; Vector4D::operator float *
	mov	ecx, 4
	shl	ecx, 0
	movss	xmm0, DWORD PTR tv1024[ebp]
	movss	DWORD PTR [eax+ecx], xmm0

; 720  : 			mat[2][1] = (cr*sp*sy+-sr*cy) * scale;

	movss	xmm0, DWORD PTR _cr$[ebp]
	mulss	xmm0, DWORD PTR _sp$[ebp]
	mulss	xmm0, DWORD PTR _sy$[ebp]
	movss	xmm1, DWORD PTR _sr$[ebp]
	xorps	xmm1, DWORD PTR __xmm@80000000800000008000000080000000
	mulss	xmm1, DWORD PTR _cy$[ebp]
	addss	xmm0, xmm1
	mulss	xmm0, DWORD PTR _scale$[ebp]
	mov	ecx, 16					; 00000010H
	shl	ecx, 1
	add	ecx, DWORD PTR _this$[ebp]
	movss	DWORD PTR tv1026[ebp], xmm0
	call	??BVector4D@@QAEPAMXZ			; Vector4D::operator float *
	mov	ecx, 4
	shl	ecx, 0
	movss	xmm0, DWORD PTR tv1026[ebp]
	movss	DWORD PTR [eax+ecx], xmm0

; 721  : 			mat[3][1] = origin.y;

	mov	eax, 16					; 00000010H
	imul	ecx, eax, 3
	add	ecx, DWORD PTR _this$[ebp]
	call	??BVector4D@@QAEPAMXZ			; Vector4D::operator float *
	mov	ecx, 4
	shl	ecx, 0
	mov	edx, DWORD PTR _origin$[ebp]
	mov	edx, DWORD PTR [edx+4]
	mov	DWORD PTR [eax+ecx], edx

; 722  : 			mat[0][2] = (-sp) * scale;

	movss	xmm0, DWORD PTR _sp$[ebp]
	xorps	xmm0, DWORD PTR __xmm@80000000800000008000000080000000
	mulss	xmm0, DWORD PTR _scale$[ebp]
	mov	eax, 16					; 00000010H
	imul	ecx, eax, 0
	add	ecx, DWORD PTR _this$[ebp]
	movss	DWORD PTR tv1028[ebp], xmm0
	call	??BVector4D@@QAEPAMXZ			; Vector4D::operator float *
	mov	ecx, 4
	shl	ecx, 1
	movss	xmm0, DWORD PTR tv1028[ebp]
	movss	DWORD PTR [eax+ecx], xmm0

; 723  : 			mat[1][2] = (sr*cp) * scale;

	movss	xmm0, DWORD PTR _sr$[ebp]
	mulss	xmm0, DWORD PTR _cp$[ebp]
	mulss	xmm0, DWORD PTR _scale$[ebp]
	mov	ecx, 16					; 00000010H
	shl	ecx, 0
	add	ecx, DWORD PTR _this$[ebp]
	movss	DWORD PTR tv1030[ebp], xmm0
	call	??BVector4D@@QAEPAMXZ			; Vector4D::operator float *
	mov	ecx, 4
	shl	ecx, 1
	movss	xmm0, DWORD PTR tv1030[ebp]
	movss	DWORD PTR [eax+ecx], xmm0

; 724  : 			mat[2][2] = (cr*cp) * scale;

	movss	xmm0, DWORD PTR _cr$[ebp]
	mulss	xmm0, DWORD PTR _cp$[ebp]
	mulss	xmm0, DWORD PTR _scale$[ebp]
	mov	ecx, 16					; 00000010H
	shl	ecx, 1
	add	ecx, DWORD PTR _this$[ebp]
	movss	DWORD PTR tv1032[ebp], xmm0
	call	??BVector4D@@QAEPAMXZ			; Vector4D::operator float *
	mov	ecx, 4
	shl	ecx, 1
	movss	xmm0, DWORD PTR tv1032[ebp]
	movss	DWORD PTR [eax+ecx], xmm0

; 725  : 			mat[3][2] = origin.z;

	mov	eax, 16					; 00000010H
	imul	ecx, eax, 3
	add	ecx, DWORD PTR _this$[ebp]
	call	??BVector4D@@QAEPAMXZ			; Vector4D::operator float *
	mov	ecx, 4
	shl	ecx, 1
	mov	edx, DWORD PTR _origin$[ebp]
	mov	edx, DWORD PTR [edx+8]
	mov	DWORD PTR [eax+ecx], edx

; 726  : 			mat[0][3] = 0;

	mov	eax, 16					; 00000010H
	imul	ecx, eax, 0
	add	ecx, DWORD PTR _this$[ebp]
	call	??BVector4D@@QAEPAMXZ			; Vector4D::operator float *
	mov	ecx, 4
	imul	edx, ecx, 3
	xorps	xmm0, xmm0
	movss	DWORD PTR [eax+edx], xmm0

; 727  : 			mat[1][3] = 0;

	mov	ecx, 16					; 00000010H
	shl	ecx, 0
	add	ecx, DWORD PTR _this$[ebp]
	call	??BVector4D@@QAEPAMXZ			; Vector4D::operator float *
	mov	ecx, 4
	imul	edx, ecx, 3
	xorps	xmm0, xmm0
	movss	DWORD PTR [eax+edx], xmm0

; 728  : 			mat[2][3] = 0;

	mov	ecx, 16					; 00000010H
	shl	ecx, 1
	add	ecx, DWORD PTR _this$[ebp]
	call	??BVector4D@@QAEPAMXZ			; Vector4D::operator float *
	mov	ecx, 4
	imul	edx, ecx, 3
	xorps	xmm0, xmm0
	movss	DWORD PTR [eax+edx], xmm0

; 729  : 			mat[3][3] = 1;

	mov	eax, 16					; 00000010H
	imul	ecx, eax, 3
	add	ecx, DWORD PTR _this$[ebp]
	call	??BVector4D@@QAEPAMXZ			; Vector4D::operator float *
	mov	ecx, 4
	imul	edx, ecx, 3
	movss	xmm0, DWORD PTR __real@3f800000
	movss	DWORD PTR [eax+edx], xmm0
	jmp	$LN7@matrix4x4
$LN2@matrix4x4:

; 730  : 		}
; 731  : 		else if( angles[PITCH] )

	mov	ecx, DWORD PTR _angles$[ebp]
	call	??BVector@@QBEPBMXZ			; Vector::operator float const *
	mov	ecx, 4
	imul	edx, ecx, 0
	movss	xmm0, DWORD PTR [eax+edx]
	ucomiss	xmm0, DWORD PTR __real@00000000
	lahf
	test	ah, 68					; 00000044H
	jnp	$LN4@matrix4x4

; 732  : 		{
; 733  : 			angle = angles[YAW] * (M_PI*2 / 360);

	mov	ecx, DWORD PTR _angles$[ebp]
	call	??BVector@@QBEPBMXZ			; Vector::operator float const *
	mov	ecx, 4
	shl	ecx, 0
	cvtss2sd xmm0, DWORD PTR [eax+ecx]
	mulsd	xmm0, QWORD PTR __real@3f91df46a2529d39
	cvtsd2ss xmm0, xmm0
	movss	DWORD PTR _angle$[ebp], xmm0

; 734  : 			SinCos( angle, &sy, &cy );

	lea	eax, DWORD PTR _cy$[ebp]
	push	eax
	lea	ecx, DWORD PTR _sy$[ebp]
	push	ecx
	push	ecx
	movss	xmm0, DWORD PTR _angle$[ebp]
	movss	DWORD PTR [esp], xmm0
	call	?SinCos@@YAXMPAM0@Z			; SinCos
	add	esp, 12					; 0000000cH

; 735  : 			angle = angles[PITCH] * (M_PI*2 / 360);

	mov	ecx, DWORD PTR _angles$[ebp]
	call	??BVector@@QBEPBMXZ			; Vector::operator float const *
	mov	ecx, 4
	imul	edx, ecx, 0
	cvtss2sd xmm0, DWORD PTR [eax+edx]
	mulsd	xmm0, QWORD PTR __real@3f91df46a2529d39
	cvtsd2ss xmm0, xmm0
	movss	DWORD PTR _angle$[ebp], xmm0

; 736  : 			SinCos( angle, &sp, &cp );

	lea	eax, DWORD PTR _cp$[ebp]
	push	eax
	lea	ecx, DWORD PTR _sp$[ebp]
	push	ecx
	push	ecx
	movss	xmm0, DWORD PTR _angle$[ebp]
	movss	DWORD PTR [esp], xmm0
	call	?SinCos@@YAXMPAM0@Z			; SinCos
	add	esp, 12					; 0000000cH

; 737  : 
; 738  : 			mat[0][0] = (cp*cy) * scale;

	movss	xmm0, DWORD PTR _cp$[ebp]
	mulss	xmm0, DWORD PTR _cy$[ebp]
	mulss	xmm0, DWORD PTR _scale$[ebp]
	mov	eax, 16					; 00000010H
	imul	ecx, eax, 0
	add	ecx, DWORD PTR _this$[ebp]
	movss	DWORD PTR tv1034[ebp], xmm0
	call	??BVector4D@@QAEPAMXZ			; Vector4D::operator float *
	mov	ecx, 4
	imul	edx, ecx, 0
	movss	xmm0, DWORD PTR tv1034[ebp]
	movss	DWORD PTR [eax+edx], xmm0

; 739  : 			mat[1][0] = (-sy) * scale;

	movss	xmm0, DWORD PTR _sy$[ebp]
	xorps	xmm0, DWORD PTR __xmm@80000000800000008000000080000000
	mulss	xmm0, DWORD PTR _scale$[ebp]
	mov	ecx, 16					; 00000010H
	shl	ecx, 0
	add	ecx, DWORD PTR _this$[ebp]
	movss	DWORD PTR tv1036[ebp], xmm0
	call	??BVector4D@@QAEPAMXZ			; Vector4D::operator float *
	mov	ecx, 4
	imul	edx, ecx, 0
	movss	xmm0, DWORD PTR tv1036[ebp]
	movss	DWORD PTR [eax+edx], xmm0

; 740  : 			mat[2][0] = (sp*cy) * scale;

	movss	xmm0, DWORD PTR _sp$[ebp]
	mulss	xmm0, DWORD PTR _cy$[ebp]
	mulss	xmm0, DWORD PTR _scale$[ebp]
	mov	ecx, 16					; 00000010H
	shl	ecx, 1
	add	ecx, DWORD PTR _this$[ebp]
	movss	DWORD PTR tv1038[ebp], xmm0
	call	??BVector4D@@QAEPAMXZ			; Vector4D::operator float *
	mov	ecx, 4
	imul	edx, ecx, 0
	movss	xmm0, DWORD PTR tv1038[ebp]
	movss	DWORD PTR [eax+edx], xmm0

; 741  : 			mat[3][0] = origin.x;

	mov	eax, 16					; 00000010H
	imul	ecx, eax, 3
	add	ecx, DWORD PTR _this$[ebp]
	call	??BVector4D@@QAEPAMXZ			; Vector4D::operator float *
	mov	ecx, 4
	imul	edx, ecx, 0
	mov	ecx, DWORD PTR _origin$[ebp]
	mov	ecx, DWORD PTR [ecx]
	mov	DWORD PTR [eax+edx], ecx

; 742  : 			mat[0][1] = (cp*sy) * scale;

	movss	xmm0, DWORD PTR _cp$[ebp]
	mulss	xmm0, DWORD PTR _sy$[ebp]
	mulss	xmm0, DWORD PTR _scale$[ebp]
	mov	eax, 16					; 00000010H
	imul	ecx, eax, 0
	add	ecx, DWORD PTR _this$[ebp]
	movss	DWORD PTR tv1040[ebp], xmm0
	call	??BVector4D@@QAEPAMXZ			; Vector4D::operator float *
	mov	ecx, 4
	shl	ecx, 0
	movss	xmm0, DWORD PTR tv1040[ebp]
	movss	DWORD PTR [eax+ecx], xmm0

; 743  : 			mat[1][1] = (cy) * scale;

	movss	xmm0, DWORD PTR _cy$[ebp]
	mulss	xmm0, DWORD PTR _scale$[ebp]
	mov	ecx, 16					; 00000010H
	shl	ecx, 0
	add	ecx, DWORD PTR _this$[ebp]
	movss	DWORD PTR tv1042[ebp], xmm0
	call	??BVector4D@@QAEPAMXZ			; Vector4D::operator float *
	mov	ecx, 4
	shl	ecx, 0
	movss	xmm0, DWORD PTR tv1042[ebp]
	movss	DWORD PTR [eax+ecx], xmm0

; 744  : 			mat[2][1] = (sp*sy) * scale;

	movss	xmm0, DWORD PTR _sp$[ebp]
	mulss	xmm0, DWORD PTR _sy$[ebp]
	mulss	xmm0, DWORD PTR _scale$[ebp]
	mov	ecx, 16					; 00000010H
	shl	ecx, 1
	add	ecx, DWORD PTR _this$[ebp]
	movss	DWORD PTR tv1044[ebp], xmm0
	call	??BVector4D@@QAEPAMXZ			; Vector4D::operator float *
	mov	ecx, 4
	shl	ecx, 0
	movss	xmm0, DWORD PTR tv1044[ebp]
	movss	DWORD PTR [eax+ecx], xmm0

; 745  : 			mat[3][1] = origin.y;

	mov	eax, 16					; 00000010H
	imul	ecx, eax, 3
	add	ecx, DWORD PTR _this$[ebp]
	call	??BVector4D@@QAEPAMXZ			; Vector4D::operator float *
	mov	ecx, 4
	shl	ecx, 0
	mov	edx, DWORD PTR _origin$[ebp]
	mov	edx, DWORD PTR [edx+4]
	mov	DWORD PTR [eax+ecx], edx

; 746  : 			mat[0][2] = (-sp) * scale;

	movss	xmm0, DWORD PTR _sp$[ebp]
	xorps	xmm0, DWORD PTR __xmm@80000000800000008000000080000000
	mulss	xmm0, DWORD PTR _scale$[ebp]
	mov	eax, 16					; 00000010H
	imul	ecx, eax, 0
	add	ecx, DWORD PTR _this$[ebp]
	movss	DWORD PTR tv1046[ebp], xmm0
	call	??BVector4D@@QAEPAMXZ			; Vector4D::operator float *
	mov	ecx, 4
	shl	ecx, 1
	movss	xmm0, DWORD PTR tv1046[ebp]
	movss	DWORD PTR [eax+ecx], xmm0

; 747  : 			mat[1][2] = 0;

	mov	ecx, 16					; 00000010H
	shl	ecx, 0
	add	ecx, DWORD PTR _this$[ebp]
	call	??BVector4D@@QAEPAMXZ			; Vector4D::operator float *
	mov	ecx, 4
	shl	ecx, 1
	xorps	xmm0, xmm0
	movss	DWORD PTR [eax+ecx], xmm0

; 748  : 			mat[2][2] = (cp) * scale;

	movss	xmm0, DWORD PTR _cp$[ebp]
	mulss	xmm0, DWORD PTR _scale$[ebp]
	mov	ecx, 16					; 00000010H
	shl	ecx, 1
	add	ecx, DWORD PTR _this$[ebp]
	movss	DWORD PTR tv1048[ebp], xmm0
	call	??BVector4D@@QAEPAMXZ			; Vector4D::operator float *
	mov	ecx, 4
	shl	ecx, 1
	movss	xmm0, DWORD PTR tv1048[ebp]
	movss	DWORD PTR [eax+ecx], xmm0

; 749  : 			mat[3][2] = origin.z;

	mov	eax, 16					; 00000010H
	imul	ecx, eax, 3
	add	ecx, DWORD PTR _this$[ebp]
	call	??BVector4D@@QAEPAMXZ			; Vector4D::operator float *
	mov	ecx, 4
	shl	ecx, 1
	mov	edx, DWORD PTR _origin$[ebp]
	mov	edx, DWORD PTR [edx+8]
	mov	DWORD PTR [eax+ecx], edx

; 750  : 			mat[0][3] = 0;

	mov	eax, 16					; 00000010H
	imul	ecx, eax, 0
	add	ecx, DWORD PTR _this$[ebp]
	call	??BVector4D@@QAEPAMXZ			; Vector4D::operator float *
	mov	ecx, 4
	imul	edx, ecx, 3
	xorps	xmm0, xmm0
	movss	DWORD PTR [eax+edx], xmm0

; 751  : 			mat[1][3] = 0;

	mov	ecx, 16					; 00000010H
	shl	ecx, 0
	add	ecx, DWORD PTR _this$[ebp]
	call	??BVector4D@@QAEPAMXZ			; Vector4D::operator float *
	mov	ecx, 4
	imul	edx, ecx, 3
	xorps	xmm0, xmm0
	movss	DWORD PTR [eax+edx], xmm0

; 752  : 			mat[2][3] = 0;

	mov	ecx, 16					; 00000010H
	shl	ecx, 1
	add	ecx, DWORD PTR _this$[ebp]
	call	??BVector4D@@QAEPAMXZ			; Vector4D::operator float *
	mov	ecx, 4
	imul	edx, ecx, 3
	xorps	xmm0, xmm0
	movss	DWORD PTR [eax+edx], xmm0

; 753  : 			mat[3][3] = 1;

	mov	eax, 16					; 00000010H
	imul	ecx, eax, 3
	add	ecx, DWORD PTR _this$[ebp]
	call	??BVector4D@@QAEPAMXZ			; Vector4D::operator float *
	mov	ecx, 4
	imul	edx, ecx, 3
	movss	xmm0, DWORD PTR __real@3f800000
	movss	DWORD PTR [eax+edx], xmm0
	jmp	$LN7@matrix4x4
$LN4@matrix4x4:

; 754  : 		}
; 755  : 		else if( angles[YAW] )

	mov	ecx, DWORD PTR _angles$[ebp]
	call	??BVector@@QBEPBMXZ			; Vector::operator float const *
	mov	ecx, 4
	shl	ecx, 0
	movss	xmm0, DWORD PTR [eax+ecx]
	ucomiss	xmm0, DWORD PTR __real@00000000
	lahf
	test	ah, 68					; 00000044H
	jnp	$LN6@matrix4x4

; 756  : 		{
; 757  : 			angle = angles[YAW] * (M_PI*2 / 360);

	mov	ecx, DWORD PTR _angles$[ebp]
	call	??BVector@@QBEPBMXZ			; Vector::operator float const *
	mov	ecx, 4
	shl	ecx, 0
	cvtss2sd xmm0, DWORD PTR [eax+ecx]
	mulsd	xmm0, QWORD PTR __real@3f91df46a2529d39
	cvtsd2ss xmm0, xmm0
	movss	DWORD PTR _angle$[ebp], xmm0

; 758  : 			SinCos( angle, &sy, &cy );

	lea	eax, DWORD PTR _cy$[ebp]
	push	eax
	lea	ecx, DWORD PTR _sy$[ebp]
	push	ecx
	push	ecx
	movss	xmm0, DWORD PTR _angle$[ebp]
	movss	DWORD PTR [esp], xmm0
	call	?SinCos@@YAXMPAM0@Z			; SinCos
	add	esp, 12					; 0000000cH

; 759  : 
; 760  : 			mat[0][0] = (cy) * scale;

	movss	xmm0, DWORD PTR _cy$[ebp]
	mulss	xmm0, DWORD PTR _scale$[ebp]
	mov	eax, 16					; 00000010H
	imul	ecx, eax, 0
	add	ecx, DWORD PTR _this$[ebp]
	movss	DWORD PTR tv1050[ebp], xmm0
	call	??BVector4D@@QAEPAMXZ			; Vector4D::operator float *
	mov	ecx, 4
	imul	edx, ecx, 0
	movss	xmm0, DWORD PTR tv1050[ebp]
	movss	DWORD PTR [eax+edx], xmm0

; 761  : 			mat[1][0] = (-sy) * scale;

	movss	xmm0, DWORD PTR _sy$[ebp]
	xorps	xmm0, DWORD PTR __xmm@80000000800000008000000080000000
	mulss	xmm0, DWORD PTR _scale$[ebp]
	mov	ecx, 16					; 00000010H
	shl	ecx, 0
	add	ecx, DWORD PTR _this$[ebp]
	movss	DWORD PTR tv1052[ebp], xmm0
	call	??BVector4D@@QAEPAMXZ			; Vector4D::operator float *
	mov	ecx, 4
	imul	edx, ecx, 0
	movss	xmm0, DWORD PTR tv1052[ebp]
	movss	DWORD PTR [eax+edx], xmm0

; 762  : 			mat[2][0] = 0;

	mov	ecx, 16					; 00000010H
	shl	ecx, 1
	add	ecx, DWORD PTR _this$[ebp]
	call	??BVector4D@@QAEPAMXZ			; Vector4D::operator float *
	mov	ecx, 4
	imul	edx, ecx, 0
	xorps	xmm0, xmm0
	movss	DWORD PTR [eax+edx], xmm0

; 763  : 			mat[3][0] = origin.x;

	mov	eax, 16					; 00000010H
	imul	ecx, eax, 3
	add	ecx, DWORD PTR _this$[ebp]
	call	??BVector4D@@QAEPAMXZ			; Vector4D::operator float *
	mov	ecx, 4
	imul	edx, ecx, 0
	mov	ecx, DWORD PTR _origin$[ebp]
	mov	ecx, DWORD PTR [ecx]
	mov	DWORD PTR [eax+edx], ecx

; 764  : 			mat[0][1] = (sy) * scale;

	movss	xmm0, DWORD PTR _sy$[ebp]
	mulss	xmm0, DWORD PTR _scale$[ebp]
	mov	eax, 16					; 00000010H
	imul	ecx, eax, 0
	add	ecx, DWORD PTR _this$[ebp]
	movss	DWORD PTR tv1054[ebp], xmm0
	call	??BVector4D@@QAEPAMXZ			; Vector4D::operator float *
	mov	ecx, 4
	shl	ecx, 0
	movss	xmm0, DWORD PTR tv1054[ebp]
	movss	DWORD PTR [eax+ecx], xmm0

; 765  : 			mat[1][1] = (cy) * scale;

	movss	xmm0, DWORD PTR _cy$[ebp]
	mulss	xmm0, DWORD PTR _scale$[ebp]
	mov	ecx, 16					; 00000010H
	shl	ecx, 0
	add	ecx, DWORD PTR _this$[ebp]
	movss	DWORD PTR tv1056[ebp], xmm0
	call	??BVector4D@@QAEPAMXZ			; Vector4D::operator float *
	mov	ecx, 4
	shl	ecx, 0
	movss	xmm0, DWORD PTR tv1056[ebp]
	movss	DWORD PTR [eax+ecx], xmm0

; 766  : 			mat[2][1] = 0;

	mov	ecx, 16					; 00000010H
	shl	ecx, 1
	add	ecx, DWORD PTR _this$[ebp]
	call	??BVector4D@@QAEPAMXZ			; Vector4D::operator float *
	mov	ecx, 4
	shl	ecx, 0
	xorps	xmm0, xmm0
	movss	DWORD PTR [eax+ecx], xmm0

; 767  : 			mat[3][1] = origin.y;

	mov	eax, 16					; 00000010H
	imul	ecx, eax, 3
	add	ecx, DWORD PTR _this$[ebp]
	call	??BVector4D@@QAEPAMXZ			; Vector4D::operator float *
	mov	ecx, 4
	shl	ecx, 0
	mov	edx, DWORD PTR _origin$[ebp]
	mov	edx, DWORD PTR [edx+4]
	mov	DWORD PTR [eax+ecx], edx

; 768  : 			mat[0][2] = 0;

	mov	eax, 16					; 00000010H
	imul	ecx, eax, 0
	add	ecx, DWORD PTR _this$[ebp]
	call	??BVector4D@@QAEPAMXZ			; Vector4D::operator float *
	mov	ecx, 4
	shl	ecx, 1
	xorps	xmm0, xmm0
	movss	DWORD PTR [eax+ecx], xmm0

; 769  : 			mat[1][2] = 0;

	mov	ecx, 16					; 00000010H
	shl	ecx, 0
	add	ecx, DWORD PTR _this$[ebp]
	call	??BVector4D@@QAEPAMXZ			; Vector4D::operator float *
	mov	ecx, 4
	shl	ecx, 1
	xorps	xmm0, xmm0
	movss	DWORD PTR [eax+ecx], xmm0

; 770  : 			mat[2][2] = scale;

	mov	ecx, 16					; 00000010H
	shl	ecx, 1
	add	ecx, DWORD PTR _this$[ebp]
	call	??BVector4D@@QAEPAMXZ			; Vector4D::operator float *
	mov	ecx, 4
	shl	ecx, 1
	movss	xmm0, DWORD PTR _scale$[ebp]
	movss	DWORD PTR [eax+ecx], xmm0

; 771  : 			mat[3][2] = origin.z;

	mov	eax, 16					; 00000010H
	imul	ecx, eax, 3
	add	ecx, DWORD PTR _this$[ebp]
	call	??BVector4D@@QAEPAMXZ			; Vector4D::operator float *
	mov	ecx, 4
	shl	ecx, 1
	mov	edx, DWORD PTR _origin$[ebp]
	mov	edx, DWORD PTR [edx+8]
	mov	DWORD PTR [eax+ecx], edx

; 772  : 			mat[0][3] = 0;

	mov	eax, 16					; 00000010H
	imul	ecx, eax, 0
	add	ecx, DWORD PTR _this$[ebp]
	call	??BVector4D@@QAEPAMXZ			; Vector4D::operator float *
	mov	ecx, 4
	imul	edx, ecx, 3
	xorps	xmm0, xmm0
	movss	DWORD PTR [eax+edx], xmm0

; 773  : 			mat[1][3] = 0;

	mov	ecx, 16					; 00000010H
	shl	ecx, 0
	add	ecx, DWORD PTR _this$[ebp]
	call	??BVector4D@@QAEPAMXZ			; Vector4D::operator float *
	mov	ecx, 4
	imul	edx, ecx, 3
	xorps	xmm0, xmm0
	movss	DWORD PTR [eax+edx], xmm0

; 774  : 			mat[2][3] = 0;

	mov	ecx, 16					; 00000010H
	shl	ecx, 1
	add	ecx, DWORD PTR _this$[ebp]
	call	??BVector4D@@QAEPAMXZ			; Vector4D::operator float *
	mov	ecx, 4
	imul	edx, ecx, 3
	xorps	xmm0, xmm0
	movss	DWORD PTR [eax+edx], xmm0

; 775  : 			mat[3][3] = 1;

	mov	eax, 16					; 00000010H
	imul	ecx, eax, 3
	add	ecx, DWORD PTR _this$[ebp]
	call	??BVector4D@@QAEPAMXZ			; Vector4D::operator float *
	mov	ecx, 4
	imul	edx, ecx, 3
	movss	xmm0, DWORD PTR __real@3f800000
	movss	DWORD PTR [eax+edx], xmm0

; 776  : 		}
; 777  : 		else

	jmp	$LN7@matrix4x4
$LN6@matrix4x4:

; 778  : 		{
; 779  : 			mat[0][0] = scale;

	mov	eax, 16					; 00000010H
	imul	ecx, eax, 0
	add	ecx, DWORD PTR _this$[ebp]
	call	??BVector4D@@QAEPAMXZ			; Vector4D::operator float *
	mov	ecx, 4
	imul	edx, ecx, 0
	movss	xmm0, DWORD PTR _scale$[ebp]
	movss	DWORD PTR [eax+edx], xmm0

; 780  : 			mat[1][0] = 0;

	mov	ecx, 16					; 00000010H
	shl	ecx, 0
	add	ecx, DWORD PTR _this$[ebp]
	call	??BVector4D@@QAEPAMXZ			; Vector4D::operator float *
	mov	ecx, 4
	imul	edx, ecx, 0
	xorps	xmm0, xmm0
	movss	DWORD PTR [eax+edx], xmm0

; 781  : 			mat[2][0] = 0;

	mov	ecx, 16					; 00000010H
	shl	ecx, 1
	add	ecx, DWORD PTR _this$[ebp]
	call	??BVector4D@@QAEPAMXZ			; Vector4D::operator float *
	mov	ecx, 4
	imul	edx, ecx, 0
	xorps	xmm0, xmm0
	movss	DWORD PTR [eax+edx], xmm0

; 782  : 			mat[3][0] = origin.x;

	mov	eax, 16					; 00000010H
	imul	ecx, eax, 3
	add	ecx, DWORD PTR _this$[ebp]
	call	??BVector4D@@QAEPAMXZ			; Vector4D::operator float *
	mov	ecx, 4
	imul	edx, ecx, 0
	mov	ecx, DWORD PTR _origin$[ebp]
	mov	ecx, DWORD PTR [ecx]
	mov	DWORD PTR [eax+edx], ecx

; 783  : 			mat[0][1] = 0;

	mov	eax, 16					; 00000010H
	imul	ecx, eax, 0
	add	ecx, DWORD PTR _this$[ebp]
	call	??BVector4D@@QAEPAMXZ			; Vector4D::operator float *
	mov	ecx, 4
	shl	ecx, 0
	xorps	xmm0, xmm0
	movss	DWORD PTR [eax+ecx], xmm0

; 784  : 			mat[1][1] = scale;

	mov	ecx, 16					; 00000010H
	shl	ecx, 0
	add	ecx, DWORD PTR _this$[ebp]
	call	??BVector4D@@QAEPAMXZ			; Vector4D::operator float *
	mov	ecx, 4
	shl	ecx, 0
	movss	xmm0, DWORD PTR _scale$[ebp]
	movss	DWORD PTR [eax+ecx], xmm0

; 785  : 			mat[2][1] = 0;

	mov	ecx, 16					; 00000010H
	shl	ecx, 1
	add	ecx, DWORD PTR _this$[ebp]
	call	??BVector4D@@QAEPAMXZ			; Vector4D::operator float *
	mov	ecx, 4
	shl	ecx, 0
	xorps	xmm0, xmm0
	movss	DWORD PTR [eax+ecx], xmm0

; 786  : 			mat[3][1] = origin.y;

	mov	eax, 16					; 00000010H
	imul	ecx, eax, 3
	add	ecx, DWORD PTR _this$[ebp]
	call	??BVector4D@@QAEPAMXZ			; Vector4D::operator float *
	mov	ecx, 4
	shl	ecx, 0
	mov	edx, DWORD PTR _origin$[ebp]
	mov	edx, DWORD PTR [edx+4]
	mov	DWORD PTR [eax+ecx], edx

; 787  : 			mat[0][2] = 0;

	mov	eax, 16					; 00000010H
	imul	ecx, eax, 0
	add	ecx, DWORD PTR _this$[ebp]
	call	??BVector4D@@QAEPAMXZ			; Vector4D::operator float *
	mov	ecx, 4
	shl	ecx, 1
	xorps	xmm0, xmm0
	movss	DWORD PTR [eax+ecx], xmm0

; 788  : 			mat[1][2] = 0;

	mov	ecx, 16					; 00000010H
	shl	ecx, 0
	add	ecx, DWORD PTR _this$[ebp]
	call	??BVector4D@@QAEPAMXZ			; Vector4D::operator float *
	mov	ecx, 4
	shl	ecx, 1
	xorps	xmm0, xmm0
	movss	DWORD PTR [eax+ecx], xmm0

; 789  : 			mat[2][2] = scale;

	mov	ecx, 16					; 00000010H
	shl	ecx, 1
	add	ecx, DWORD PTR _this$[ebp]
	call	??BVector4D@@QAEPAMXZ			; Vector4D::operator float *
	mov	ecx, 4
	shl	ecx, 1
	movss	xmm0, DWORD PTR _scale$[ebp]
	movss	DWORD PTR [eax+ecx], xmm0

; 790  : 			mat[3][2] = origin.z;

	mov	eax, 16					; 00000010H
	imul	ecx, eax, 3
	add	ecx, DWORD PTR _this$[ebp]
	call	??BVector4D@@QAEPAMXZ			; Vector4D::operator float *
	mov	ecx, 4
	shl	ecx, 1
	mov	edx, DWORD PTR _origin$[ebp]
	mov	edx, DWORD PTR [edx+8]
	mov	DWORD PTR [eax+ecx], edx

; 791  : 			mat[0][3] = 0;

	mov	eax, 16					; 00000010H
	imul	ecx, eax, 0
	add	ecx, DWORD PTR _this$[ebp]
	call	??BVector4D@@QAEPAMXZ			; Vector4D::operator float *
	mov	ecx, 4
	imul	edx, ecx, 3
	xorps	xmm0, xmm0
	movss	DWORD PTR [eax+edx], xmm0

; 792  : 			mat[1][3] = 0;

	mov	ecx, 16					; 00000010H
	shl	ecx, 0
	add	ecx, DWORD PTR _this$[ebp]
	call	??BVector4D@@QAEPAMXZ			; Vector4D::operator float *
	mov	ecx, 4
	imul	edx, ecx, 3
	xorps	xmm0, xmm0
	movss	DWORD PTR [eax+edx], xmm0

; 793  : 			mat[2][3] = 0;

	mov	ecx, 16					; 00000010H
	shl	ecx, 1
	add	ecx, DWORD PTR _this$[ebp]
	call	??BVector4D@@QAEPAMXZ			; Vector4D::operator float *
	mov	ecx, 4
	imul	edx, ecx, 3
	xorps	xmm0, xmm0
	movss	DWORD PTR [eax+edx], xmm0

; 794  : 			mat[3][3] = 1;

	mov	eax, 16					; 00000010H
	imul	ecx, eax, 3
	add	ecx, DWORD PTR _this$[ebp]
	call	??BVector4D@@QAEPAMXZ			; Vector4D::operator float *
	mov	ecx, 4
	imul	edx, ecx, 3
	movss	xmm0, DWORD PTR __real@3f800000
	movss	DWORD PTR [eax+edx], xmm0
$LN7@matrix4x4:

; 795  : 		}
; 796  : 	}

	mov	eax, DWORD PTR _this$[ebp]
	pop	edi
	pop	esi
	pop	ebx
	mov	esp, ebp
	pop	ebp
	ret	12					; 0000000cH
??0matrix4x4@@QAE@ABVVector@@0M@Z ENDP			; matrix4x4::matrix4x4
_TEXT	ENDS
; Function compile flags: /Odtp /ZI
; File d:\!diffusion 2020\source code 2022\client-server\game_shared\vector.h
;	COMDAT ??BVector4D@@QAEPAMXZ
_TEXT	SEGMENT
_this$ = -4						; size = 4
??BVector4D@@QAEPAMXZ PROC				; Vector4D::operator float *, COMDAT
; _this$ = ecx

; 344  : 	operator float *()					{ return &x; }

	push	ebp
	mov	ebp, esp
	sub	esp, 68					; 00000044H
	push	ebx
	push	esi
	push	edi
	mov	DWORD PTR _this$[ebp], ecx
	mov	eax, DWORD PTR _this$[ebp]
	pop	edi
	pop	esi
	pop	ebx
	mov	esp, ebp
	pop	ebp
	ret	0
??BVector4D@@QAEPAMXZ ENDP				; Vector4D::operator float *
_TEXT	ENDS
; Function compile flags: /Odtp /ZI
; File d:\!diffusion 2020\source code 2022\client-server\game_shared\vector.h
;	COMDAT ??0Vector4D@@QAE@ABV0@@Z
_TEXT	SEGMENT
_this$ = -4						; size = 4
_v$ = 8							; size = 4
??0Vector4D@@QAE@ABV0@@Z PROC				; Vector4D::Vector4D, COMDAT
; _this$ = ecx

; 332  : 	inline Vector4D( const Vector4D& v ) { x = v.x; y = v.y; z = v.z, w = v.w; } 

	push	ebp
	mov	ebp, esp
	sub	esp, 68					; 00000044H
	push	ebx
	push	esi
	push	edi
	mov	DWORD PTR _this$[ebp], ecx
	mov	eax, DWORD PTR _this$[ebp]
	mov	ecx, DWORD PTR _v$[ebp]
	mov	edx, DWORD PTR [ecx]
	mov	DWORD PTR [eax], edx
	mov	eax, DWORD PTR _this$[ebp]
	mov	ecx, DWORD PTR _v$[ebp]
	mov	edx, DWORD PTR [ecx+4]
	mov	DWORD PTR [eax+4], edx
	mov	eax, DWORD PTR _this$[ebp]
	mov	ecx, DWORD PTR _v$[ebp]
	mov	edx, DWORD PTR [ecx+8]
	mov	DWORD PTR [eax+8], edx
	mov	eax, DWORD PTR _this$[ebp]
	mov	ecx, DWORD PTR _v$[ebp]
	mov	edx, DWORD PTR [ecx+12]
	mov	DWORD PTR [eax+12], edx
	mov	eax, DWORD PTR _this$[ebp]
	pop	edi
	pop	esi
	pop	ebx
	mov	esp, ebp
	pop	ebp
	ret	4
??0Vector4D@@QAE@ABV0@@Z ENDP				; Vector4D::Vector4D
_TEXT	ENDS
; Function compile flags: /Odtp /ZI
; File d:\!diffusion 2020\source code 2022\client-server\game_shared\vector.h
;	COMDAT ??0Vector4D@@QAE@XZ
_TEXT	SEGMENT
_this$ = -4						; size = 4
??0Vector4D@@QAE@XZ PROC				; Vector4D::Vector4D, COMDAT
; _this$ = ecx

; 330  : 	inline Vector4D( void ) { }

	push	ebp
	mov	ebp, esp
	sub	esp, 68					; 00000044H
	push	ebx
	push	esi
	push	edi
	mov	DWORD PTR _this$[ebp], ecx
	mov	eax, DWORD PTR _this$[ebp]
	pop	edi
	pop	esi
	pop	ebx
	mov	esp, ebp
	pop	ebp
	ret	0
??0Vector4D@@QAE@XZ ENDP				; Vector4D::Vector4D
_TEXT	ENDS
; Function compile flags: /Odtp /ZI
; File d:\!diffusion 2020\source code 2022\client-server\game_shared\vector.h
;	COMDAT ??BVector@@QBEPBMXZ
_TEXT	SEGMENT
_this$ = -4						; size = 4
??BVector@@QBEPBMXZ PROC				; Vector::operator float const *, COMDAT
; _this$ = ecx

; 248  : 	operator const float *() const		{ return &x; } 

	push	ebp
	mov	ebp, esp
	sub	esp, 68					; 00000044H
	push	ebx
	push	esi
	push	edi
	mov	DWORD PTR _this$[ebp], ecx
	mov	eax, DWORD PTR _this$[ebp]
	pop	edi
	pop	esi
	pop	ebx
	mov	esp, ebp
	pop	ebp
	ret	0
??BVector@@QBEPBMXZ ENDP				; Vector::operator float const *
_TEXT	ENDS
; Function compile flags: /Odtp /ZI
; File d:\!diffusion 2020\source code 2022\client-server\game_shared\vector.h
;	COMDAT ??BVector@@QAEPAMXZ
_TEXT	SEGMENT
_this$ = -4						; size = 4
??BVector@@QAEPAMXZ PROC				; Vector::operator float *, COMDAT
; _this$ = ecx

; 247  : 	operator float *()				{ return &x; } // Vectors will now automatically convert to float * when needed

	push	ebp
	mov	ebp, esp
	sub	esp, 68					; 00000044H
	push	ebx
	push	esi
	push	edi
	mov	DWORD PTR _this$[ebp], ecx
	mov	eax, DWORD PTR _this$[ebp]
	pop	edi
	pop	esi
	pop	ebx
	mov	esp, ebp
	pop	ebp
	ret	0
??BVector@@QAEPAMXZ ENDP				; Vector::operator float *
_TEXT	ENDS
; Function compile flags: /Odtp /ZI
; File d:\!diffusion 2020\source code 2022\client-server\game_shared\vector.h
;	COMDAT ??0Vector@@QAE@MMM@Z
_TEXT	SEGMENT
_this$ = -4						; size = 4
_X$ = 8							; size = 4
_Y$ = 12						; size = 4
_Z$ = 16						; size = 4
??0Vector@@QAE@MMM@Z PROC				; Vector::Vector, COMDAT
; _this$ = ecx

; 144  : 	inline Vector(float X, float Y, float Z)	{ x = X; y = Y; z = Z;                     }

	push	ebp
	mov	ebp, esp
	sub	esp, 68					; 00000044H
	push	ebx
	push	esi
	push	edi
	mov	DWORD PTR _this$[ebp], ecx
	mov	eax, DWORD PTR _this$[ebp]
	movss	xmm0, DWORD PTR _X$[ebp]
	movss	DWORD PTR [eax], xmm0
	mov	eax, DWORD PTR _this$[ebp]
	movss	xmm0, DWORD PTR _Y$[ebp]
	movss	DWORD PTR [eax+4], xmm0
	mov	eax, DWORD PTR _this$[ebp]
	movss	xmm0, DWORD PTR _Z$[ebp]
	movss	DWORD PTR [eax+8], xmm0
	mov	eax, DWORD PTR _this$[ebp]
	pop	edi
	pop	esi
	pop	ebx
	mov	esp, ebp
	pop	ebp
	ret	12					; 0000000cH
??0Vector@@QAE@MMM@Z ENDP				; Vector::Vector
_TEXT	ENDS
; Function compile flags: /Odtp /ZI
; File d:\!diffusion 2020\source code 2022\client-server\game_shared\vector.h
;	COMDAT ?SinCos@@YAXMPAM0@Z
_TEXT	SEGMENT
_angle$ = 8						; size = 4
_sine$ = 12						; size = 4
_cosine$ = 16						; size = 4
?SinCos@@YAXMPAM0@Z PROC				; SinCos, COMDAT

; 36   : {

	push	ebp
	mov	ebp, esp
	sub	esp, 64					; 00000040H
	push	ebx
	push	esi
	push	edi

; 37   : 	/*
; 38   : 	__asm
; 39   : 	{
; 40   : 		push	ecx
; 41   : 		fld	dword ptr angle
; 42   : 		fsincos
; 43   : 		mov	ecx, dword ptr[cosine]
; 44   : 		fstp      dword ptr [ecx]
; 45   : 		mov 	ecx, dword ptr[sine]
; 46   : 		fstp	dword ptr [ecx]
; 47   : 		pop	ecx
; 48   : 	}*/
; 49   : 	*sine = sin( angle );

	cvtss2sd xmm0, DWORD PTR _angle$[ebp]
	sub	esp, 8
	movsd	QWORD PTR [esp], xmm0
	call	_sin
	add	esp, 8
	mov	eax, DWORD PTR _sine$[ebp]
	fstp	DWORD PTR [eax]

; 50   : 	*cosine = cos( angle );

	cvtss2sd xmm0, DWORD PTR _angle$[ebp]
	sub	esp, 8
	movsd	QWORD PTR [esp], xmm0
	call	_cos
	add	esp, 8
	mov	eax, DWORD PTR _cosine$[ebp]
	fstp	DWORD PTR [eax]

; 51   : }

	pop	edi
	pop	esi
	pop	ebx
	mov	esp, ebp
	pop	ebp
	ret	0
?SinCos@@YAXMPAM0@Z ENDP				; SinCos
_TEXT	ENDS
; Function compile flags: /Odtp /ZI
;	COMDAT ??__G@YGXPAX0IIP6EPAX00@Z@Z
_TEXT	SEGMENT
tv66 = -68						; size = 4
___t$ = 8						; size = 4
___u$ = 12						; size = 4
___s$ = 16						; size = 4
___n$ = 20						; size = 4
___f$ = 24						; size = 4
??__G@YGXPAX0IIP6EPAX00@Z@Z PROC			; `vector copy constructor iterator', COMDAT
	push	ebp
	mov	ebp, esp
	sub	esp, 68					; 00000044H
	push	ebx
	push	esi
	push	edi
$LN2@vector:
	mov	eax, DWORD PTR ___n$[ebp]
	mov	DWORD PTR tv66[ebp], eax
	mov	ecx, DWORD PTR ___n$[ebp]
	sub	ecx, 1
	mov	DWORD PTR ___n$[ebp], ecx
	cmp	DWORD PTR tv66[ebp], 0
	jbe	SHORT $LN1@vector
	mov	eax, DWORD PTR ___u$[ebp]
	push	eax
	mov	ecx, DWORD PTR ___t$[ebp]
	call	DWORD PTR ___f$[ebp]
	mov	eax, DWORD PTR ___t$[ebp]
	add	eax, DWORD PTR ___s$[ebp]
	mov	DWORD PTR ___t$[ebp], eax
	mov	eax, DWORD PTR ___u$[ebp]
	add	eax, DWORD PTR ___s$[ebp]
	mov	DWORD PTR ___u$[ebp], eax
	jmp	SHORT $LN2@vector
$LN1@vector:
	pop	edi
	pop	esi
	pop	ebx
	mov	esp, ebp
	pop	ebp
	ret	20					; 00000014H
??__G@YGXPAX0IIP6EPAX00@Z@Z ENDP			; `vector copy constructor iterator'
_TEXT	ENDS
; Function compile flags: /Odtp /ZI
;	COMDAT ??_H@YGXPAXIIP6EPAX0@Z@Z
_TEXT	SEGMENT
tv66 = -68						; size = 4
___t$ = 8						; size = 4
___s$ = 12						; size = 4
___n$ = 16						; size = 4
___f$ = 20						; size = 4
??_H@YGXPAXIIP6EPAX0@Z@Z PROC				; `vector constructor iterator', COMDAT
	push	ebp
	mov	ebp, esp
	sub	esp, 68					; 00000044H
	push	ebx
	push	esi
	push	edi
$LN2@vector:
	mov	eax, DWORD PTR ___n$[ebp]
	mov	DWORD PTR tv66[ebp], eax
	mov	ecx, DWORD PTR ___n$[ebp]
	sub	ecx, 1
	mov	DWORD PTR ___n$[ebp], ecx
	cmp	DWORD PTR tv66[ebp], 0
	jbe	SHORT $LN1@vector
	mov	ecx, DWORD PTR ___t$[ebp]
	call	DWORD PTR ___f$[ebp]
	mov	eax, DWORD PTR ___t$[ebp]
	add	eax, DWORD PTR ___s$[ebp]
	mov	DWORD PTR ___t$[ebp], eax
	jmp	SHORT $LN2@vector
$LN1@vector:
	pop	edi
	pop	esi
	pop	ebx
	mov	esp, ebp
	pop	ebp
	ret	16					; 00000010H
??_H@YGXPAXIIP6EPAX0@Z@Z ENDP				; `vector constructor iterator'
_TEXT	ENDS
END
