; Listing generated by Microsoft (R) Optimizing Compiler Version 19.00.24247.2 

	TITLE	D:\!DIFFUSION 2020\source code 2022\client-server\client\render\r_sprite.cpp
	.686P
	.XMM
	include listing.inc
	.model	flat

INCLUDELIB LIBCMT
INCLUDELIB OLDNAMES

PUBLIC	??_H@YGXPAXIIP6EPAX0@Z@Z			; `vector constructor iterator'
PUBLIC	??__G@YGXPAX0IIP6EPAX00@Z@Z			; `vector copy constructor iterator'
PUBLIC	?SinCos@@YAXMPAM0@Z				; SinCos
PUBLIC	??0Vector@@QAE@XZ				; Vector::Vector
PUBLIC	??0Vector@@QAE@MMM@Z				; Vector::Vector
PUBLIC	??0Vector@@QAE@ABV0@@Z				; Vector::Vector
PUBLIC	??0Vector@@QAE@QAM@Z				; Vector::Vector
PUBLIC	??HVector@@QBE?AV0@ABV0@@Z			; Vector::operator+
PUBLIC	??GVector@@QBE?AV0@ABV0@@Z			; Vector::operator-
PUBLIC	??DVector@@QBE?AV0@M@Z				; Vector::operator*
PUBLIC	??YVector@@QAEAAV0@ABV0@@Z			; Vector::operator+=
PUBLIC	??XVector@@QAEAAV0@M@Z				; Vector::operator*=
PUBLIC	?Length@Vector@@QBEMXZ				; Vector::Length
PUBLIC	??BVector@@QAEPAMXZ				; Vector::operator float *
PUBLIC	??BVector@@QBEPBMXZ				; Vector::operator float const *
PUBLIC	?Normalize@Vector@@QBE?AV1@XZ			; Vector::Normalize
PUBLIC	?DotProduct@@YAMABVVector@@0@Z			; DotProduct
PUBLIC	??0matrix3x3@@QAE@ABVVector@@@Z			; matrix3x3::matrix3x3
PUBLIC	??Amatrix3x3@@QAEPAMH@Z				; matrix3x3::operator[]
PUBLIC	??0pmplane_t@@QAE@XZ				; pmplane_t::pmplane_t
PUBLIC	??0pmtrace_s@@QAE@XZ				; pmtrace_s::pmtrace_s
PUBLIC	?R_StudioAttachmentOrigin@@YA?AVVector@@PBUcl_entity_s@@HH@Z ; R_StudioAttachmentOrigin
PUBLIC	??0CSpriteModelRenderer@@QAE@XZ			; CSpriteModelRenderer::CSpriteModelRenderer
PUBLIC	??1CSpriteModelRenderer@@UAE@XZ			; CSpriteModelRenderer::~CSpriteModelRenderer
PUBLIC	?Init@CSpriteModelRenderer@@UAEXXZ		; CSpriteModelRenderer::Init
PUBLIC	?SpriteDrawModel@CSpriteModelRenderer@@UAEXXZ	; CSpriteModelRenderer::SpriteDrawModel
PUBLIC	?SpriteDrawModelShadowPass@CSpriteModelRenderer@@UAEXXZ ; CSpriteModelRenderer::SpriteDrawModelShadowPass
PUBLIC	?GetSpriteFrame@CSpriteModelRenderer@@EAEPAUmspriteframe_s@@HM@Z ; CSpriteModelRenderer::GetSpriteFrame
PUBLIC	?GetSpriteFrameInterpolant@CSpriteModelRenderer@@EAEMPAPAUmspriteframe_s@@0@Z ; CSpriteModelRenderer::GetSpriteFrameInterpolant
PUBLIC	?SpriteComputeOrigin@CSpriteModelRenderer@@EAEXPAUcl_entity_s@@@Z ; CSpriteModelRenderer::SpriteComputeOrigin
PUBLIC	?SpriteComputeBBox@CSpriteModelRenderer@@EAEXPAUcl_entity_s@@QAVVector@@@Z ; CSpriteModelRenderer::SpriteComputeBBox
PUBLIC	?CullSpriteModel@CSpriteModelRenderer@@EAE_NXZ	; CSpriteModelRenderer::CullSpriteModel
PUBLIC	?GlowSightDistance@CSpriteModelRenderer@@EAEMXZ	; CSpriteModelRenderer::GlowSightDistance
PUBLIC	?SpriteGlowBlend@CSpriteModelRenderer@@EAEMHHAAM@Z ; CSpriteModelRenderer::SpriteGlowBlend
PUBLIC	?SpriteOccluded@CSpriteModelRenderer@@EAEHAAM@Z	; CSpriteModelRenderer::SpriteOccluded
PUBLIC	?DrawSpriteQuad@CSpriteModelRenderer@@EAEXPAUmspriteframe_s@@ABVVector@@11M@Z ; CSpriteModelRenderer::DrawSpriteQuad
PUBLIC	?DrawLighting@CSpriteModelRenderer@@AAEXPAUmspriteframe_s@@ABVVector@@111MM@Z ; CSpriteModelRenderer::DrawLighting
PUBLIC	?SpriteHasLightmap@CSpriteModelRenderer@@EAEHH@Z ; CSpriteModelRenderer::SpriteHasLightmap
PUBLIC	?SpriteAllowLerping@CSpriteModelRenderer@@EAEHPAUcl_entity_s@@PAUmsprite_t@@@Z ; CSpriteModelRenderer::SpriteAllowLerping
PUBLIC	?Mod_Extradata@CSpriteModelRenderer@@AAEPAXPAUmodel_s@@@Z ; CSpriteModelRenderer::Mod_Extradata
PUBLIC	?DrawSpriteModelInternal@CSpriteModelRenderer@@QAEXPAUcl_entity_s@@@Z ; CSpriteModelRenderer::DrawSpriteModelInternal
PUBLIC	?GetSpriteFrame@CSpriteModelRenderer@@QAEPAUmspriteframe_s@@PBUmodel_s@@H@Z ; CSpriteModelRenderer::GetSpriteFrame
PUBLIC	??_GCSpriteModelRenderer@@UAEPAXI@Z		; CSpriteModelRenderer::`scalar deleting destructor'
PUBLIC	??$Lerp@M@@YAMMABM0@Z				; Lerp<float>
PUBLIC	??_7CSpriteModelRenderer@@6B@			; CSpriteModelRenderer::`vftable'
PUBLIC	?g_SpriteRenderer@@3VCSpriteModelRenderer@@A	; g_SpriteRenderer
PUBLIC	??_C@_0BB@EJMBDKPM@r_sprite_lerping?$AA@	; `string'
PUBLIC	??_C@_0BC@BJEEPELI@r_sprite_lighting?$AA@	; `string'
PUBLIC	??_C@_0M@BNLCJNG@r_traceglow?$AA@		; `string'
PUBLIC	??_C@_0CJ@OOIAMEBN@R_GetSpriteFrame?3?5no?5such?5frame?5@ ; `string'
PUBLIC	??_C@_0DE@GDAPIOJM@R_GetSpriteFrameInterpolant?3?5no?5@ ; `string'
PUBLIC	??_R4CSpriteModelRenderer@@6B@			; CSpriteModelRenderer::`RTTI Complete Object Locator'
PUBLIC	??_R0?AVCSpriteModelRenderer@@@8		; CSpriteModelRenderer `RTTI Type Descriptor'
PUBLIC	??_R3CSpriteModelRenderer@@8			; CSpriteModelRenderer::`RTTI Class Hierarchy Descriptor'
PUBLIC	??_R2CSpriteModelRenderer@@8			; CSpriteModelRenderer::`RTTI Base Class Array'
PUBLIC	??_R1A@?0A@EA@CSpriteModelRenderer@@8		; CSpriteModelRenderer::`RTTI Base Class Descriptor at (0,-1,0,64)'
PUBLIC	__real@00000000
PUBLIC	__real@3b808081
PUBLIC	__real@3ba3d70a
PUBLIC	__real@3c23d70a
PUBLIC	__real@3d4ccccd
PUBLIC	__real@3dcccccd
PUBLIC	__real@3f000000
PUBLIC	__real@3f7ff60a
PUBLIC	__real@3f800000
PUBLIC	__real@3f91df46a2529d39
PUBLIC	__real@3fe0000000000000
PUBLIC	__real@3ff0000000000000
PUBLIC	__real@4000000000000000
PUBLIC	__real@40d28e0000000000
PUBLIC	__real@41000000
PUBLIC	__real@41200000
PUBLIC	__real@42340000
PUBLIC	__real@43b40000
PUBLIC	__real@43fa0000
PUBLIC	__real@461c4000
PUBLIC	__real@bf7ff60a
PUBLIC	__xmm@80000000800000008000000080000000
EXTRN	??3@YAXPAXI@Z:PROC				; operator delete
EXTRN	_atexit:PROC
EXTRN	_cos:PROC
EXTRN	_pow:PROC
EXTRN	_sin:PROC
EXTRN	_sqrt:PROC
EXTRN	?ALERT@@YAXW4ALERT_TYPE@@PADZZ:PROC		; ALERT
EXTRN	?Mod_CheckBoxVisible@@YA_NABVVector@@0@Z:PROC	; Mod_CheckBoxVisible
EXTRN	?PM_GetPhysEntInfo@@YAHH@Z:PROC			; PM_GetPhysEntInfo
EXTRN	?StudioGetAttachment@CStudioModelRenderer@@QAEXPBUcl_entity_s@@HPAVVector@@1H@Z:PROC ; CStudioModelRenderer::StudioGetAttachment
EXTRN	?GL_Cull@@YAXI@Z:PROC				; GL_Cull
EXTRN	?R_CullModel@@YA_NPAUcl_entity_s@@ABVVector@@1@Z:PROC ; R_CullModel
EXTRN	?R_LightsForPoint@@YA?AVVector@@ABV1@M@Z:PROC	; R_LightsForPoint
EXTRN	?R_LoadIdentity@@YAXXZ:PROC			; R_LoadIdentity
EXTRN	?WorldToScreen@@YAHABVVector@@AAV1@@Z:PROC	; WorldToScreen
EXTRN	??_ECSpriteModelRenderer@@UAEPAXI@Z:PROC	; CSpriteModelRenderer::`vector deleting destructor'
EXTRN	@__security_check_cookie@4:PROC
EXTRN	?g_vecZero@@3VVector@@B:BYTE			; g_vecZero
EXTRN	?gEngfuncs@@3Ucl_enginefuncs_s@@A:BYTE		; gEngfuncs
EXTRN	?gRenderfuncs@@3Urender_api_s@@A:BYTE		; gRenderfuncs
EXTRN	?pglAlphaFunc@@3P6GXIM@ZA:DWORD			; pglAlphaFunc
EXTRN	?pglBegin@@3P6GXI@ZA:DWORD			; pglBegin
EXTRN	?pglBlendFunc@@3P6GXII@ZA:DWORD			; pglBlendFunc
EXTRN	?pglColor4f@@3P6GXMMMM@ZA:DWORD			; pglColor4f
EXTRN	?pglColor4ub@@3P6GXEEEE@ZA:DWORD		; pglColor4ub
EXTRN	?pglDepthFunc@@3P6GXI@ZA:DWORD			; pglDepthFunc
EXTRN	?pglDepthMask@@3P6GXE@ZA:DWORD			; pglDepthMask
EXTRN	?pglDisable@@3P6GXI@ZA:DWORD			; pglDisable
EXTRN	?pglEnable@@3P6GXI@ZA:DWORD			; pglEnable
EXTRN	?pglEnd@@3P6GXXZA:DWORD				; pglEnd
EXTRN	?pglShadeModel@@3P6GXI@ZA:DWORD			; pglShadeModel
EXTRN	?pglTexCoord2f@@3P6GXMM@ZA:DWORD		; pglTexCoord2f
EXTRN	?pglTexEnvi@@3P6GXIIH@ZA:DWORD			; pglTexEnvi
EXTRN	?pglVertex3fv@@3P6GXPBM@ZA:DWORD		; pglVertex3fv
EXTRN	?r_lightmap@@3PAUcvar_s@@A:DWORD		; r_lightmap
EXTRN	?r_drawsprites@@3PAUcvar_s@@A:DWORD		; r_drawsprites
EXTRN	?g_StudioRenderer@@3VCStudioModelRenderer@@A:BYTE ; g_StudioRenderer
EXTRN	?IEngineStudio@@3Uengine_studio_api_s@@A:BYTE	; IEngineStudio
EXTRN	?RI@@3PAUref_instance_t@@A:DWORD		; RI
EXTRN	?tr@@3Uref_globals_t@@A:BYTE			; tr
EXTRN	?r_stats@@3Uref_stats_t@@A:BYTE			; r_stats
EXTRN	?glState@@3UglState_t@@A:BYTE			; glState
EXTRN	??_7type_info@@6B@:QWORD			; type_info::`vftable'
EXTRN	___security_cookie:DWORD
EXTRN	__fltused:DWORD
_BSS	SEGMENT
?g_SpriteRenderer@@3VCSpriteModelRenderer@@A DB 048H DUP (?) ; g_SpriteRenderer
_BSS	ENDS
CRT$XCU	SEGMENT
?g_SpriteRenderer$initializer$@@3P6AXXZA DD FLAT:??__Eg_SpriteRenderer@@YAXXZ ; g_SpriteRenderer$initializer$
CRT$XCU	ENDS
;	COMDAT __xmm@80000000800000008000000080000000
CONST	SEGMENT
__xmm@80000000800000008000000080000000 DB 00H, 00H, 00H, 080H, 00H, 00H, 00H
	DB	080H, 00H, 00H, 00H, 080H, 00H, 00H, 00H, 080H
CONST	ENDS
;	COMDAT __real@bf7ff60a
CONST	SEGMENT
__real@bf7ff60a DD 0bf7ff60ar			; -0.999848
CONST	ENDS
;	COMDAT __real@461c4000
CONST	SEGMENT
__real@461c4000 DD 0461c4000r			; 10000
CONST	ENDS
;	COMDAT __real@43fa0000
CONST	SEGMENT
__real@43fa0000 DD 043fa0000r			; 500
CONST	ENDS
;	COMDAT __real@43b40000
CONST	SEGMENT
__real@43b40000 DD 043b40000r			; 360
CONST	ENDS
;	COMDAT __real@42340000
CONST	SEGMENT
__real@42340000 DD 042340000r			; 45
CONST	ENDS
;	COMDAT __real@41200000
CONST	SEGMENT
__real@41200000 DD 041200000r			; 10
CONST	ENDS
;	COMDAT __real@41000000
CONST	SEGMENT
__real@41000000 DD 041000000r			; 8
CONST	ENDS
;	COMDAT __real@40d28e0000000000
CONST	SEGMENT
__real@40d28e0000000000 DQ 040d28e0000000000r	; 19000
CONST	ENDS
;	COMDAT __real@4000000000000000
CONST	SEGMENT
__real@4000000000000000 DQ 04000000000000000r	; 2
CONST	ENDS
;	COMDAT __real@3ff0000000000000
CONST	SEGMENT
__real@3ff0000000000000 DQ 03ff0000000000000r	; 1
CONST	ENDS
;	COMDAT __real@3fe0000000000000
CONST	SEGMENT
__real@3fe0000000000000 DQ 03fe0000000000000r	; 0.5
CONST	ENDS
;	COMDAT __real@3f91df46a2529d39
CONST	SEGMENT
__real@3f91df46a2529d39 DQ 03f91df46a2529d39r	; 0.0174533
CONST	ENDS
;	COMDAT __real@3f800000
CONST	SEGMENT
__real@3f800000 DD 03f800000r			; 1
CONST	ENDS
;	COMDAT __real@3f7ff60a
CONST	SEGMENT
__real@3f7ff60a DD 03f7ff60ar			; 0.999848
CONST	ENDS
;	COMDAT __real@3f000000
CONST	SEGMENT
__real@3f000000 DD 03f000000r			; 0.5
CONST	ENDS
;	COMDAT __real@3dcccccd
CONST	SEGMENT
__real@3dcccccd DD 03dcccccdr			; 0.1
CONST	ENDS
;	COMDAT __real@3d4ccccd
CONST	SEGMENT
__real@3d4ccccd DD 03d4ccccdr			; 0.05
CONST	ENDS
;	COMDAT __real@3c23d70a
CONST	SEGMENT
__real@3c23d70a DD 03c23d70ar			; 0.01
CONST	ENDS
;	COMDAT __real@3ba3d70a
CONST	SEGMENT
__real@3ba3d70a DD 03ba3d70ar			; 0.005
CONST	ENDS
;	COMDAT __real@3b808081
CONST	SEGMENT
__real@3b808081 DD 03b808081r			; 0.00392157
CONST	ENDS
;	COMDAT __real@00000000
CONST	SEGMENT
__real@00000000 DD 000000000r			; 0
CONST	ENDS
;	COMDAT ??_R1A@?0A@EA@CSpriteModelRenderer@@8
rdata$r	SEGMENT
??_R1A@?0A@EA@CSpriteModelRenderer@@8 DD FLAT:??_R0?AVCSpriteModelRenderer@@@8 ; CSpriteModelRenderer::`RTTI Base Class Descriptor at (0,-1,0,64)'
	DD	00H
	DD	00H
	DD	0ffffffffH
	DD	00H
	DD	040H
	DD	FLAT:??_R3CSpriteModelRenderer@@8
rdata$r	ENDS
;	COMDAT ??_R2CSpriteModelRenderer@@8
rdata$r	SEGMENT
??_R2CSpriteModelRenderer@@8 DD FLAT:??_R1A@?0A@EA@CSpriteModelRenderer@@8 ; CSpriteModelRenderer::`RTTI Base Class Array'
rdata$r	ENDS
;	COMDAT ??_R3CSpriteModelRenderer@@8
rdata$r	SEGMENT
??_R3CSpriteModelRenderer@@8 DD 00H			; CSpriteModelRenderer::`RTTI Class Hierarchy Descriptor'
	DD	00H
	DD	01H
	DD	FLAT:??_R2CSpriteModelRenderer@@8
rdata$r	ENDS
;	COMDAT ??_R0?AVCSpriteModelRenderer@@@8
data$r	SEGMENT
??_R0?AVCSpriteModelRenderer@@@8 DD FLAT:??_7type_info@@6B@ ; CSpriteModelRenderer `RTTI Type Descriptor'
	DD	00H
	DB	'.?AVCSpriteModelRenderer@@', 00H
data$r	ENDS
;	COMDAT ??_R4CSpriteModelRenderer@@6B@
rdata$r	SEGMENT
??_R4CSpriteModelRenderer@@6B@ DD 00H			; CSpriteModelRenderer::`RTTI Complete Object Locator'
	DD	00H
	DD	00H
	DD	FLAT:??_R0?AVCSpriteModelRenderer@@@8
	DD	FLAT:??_R3CSpriteModelRenderer@@8
rdata$r	ENDS
;	COMDAT ??_C@_0DE@GDAPIOJM@R_GetSpriteFrameInterpolant?3?5no?5@
CONST	SEGMENT
??_C@_0DE@GDAPIOJM@R_GetSpriteFrameInterpolant?3?5no?5@ DB 'R_GetSpriteFr'
	DB	'ameInterpolant: no such frame %d (%s)', 0aH, 00H ; `string'
CONST	ENDS
;	COMDAT ??_C@_0CJ@OOIAMEBN@R_GetSpriteFrame?3?5no?5such?5frame?5@
CONST	SEGMENT
??_C@_0CJ@OOIAMEBN@R_GetSpriteFrame?3?5no?5such?5frame?5@ DB 'R_GetSprite'
	DB	'Frame: no such frame %d (%s)', 0aH, 00H	; `string'
CONST	ENDS
;	COMDAT ??_C@_0M@BNLCJNG@r_traceglow?$AA@
CONST	SEGMENT
??_C@_0M@BNLCJNG@r_traceglow?$AA@ DB 'r_traceglow', 00H	; `string'
CONST	ENDS
;	COMDAT ??_C@_0BC@BJEEPELI@r_sprite_lighting?$AA@
CONST	SEGMENT
??_C@_0BC@BJEEPELI@r_sprite_lighting?$AA@ DB 'r_sprite_lighting', 00H ; `string'
CONST	ENDS
;	COMDAT ??_C@_0BB@EJMBDKPM@r_sprite_lerping?$AA@
CONST	SEGMENT
??_C@_0BB@EJMBDKPM@r_sprite_lerping?$AA@ DB 'r_sprite_lerping', 00H ; `string'
CONST	ENDS
;	COMDAT ??_7CSpriteModelRenderer@@6B@
CONST	SEGMENT
??_7CSpriteModelRenderer@@6B@ DD FLAT:??_R4CSpriteModelRenderer@@6B@ ; CSpriteModelRenderer::`vftable'
	DD	FLAT:??_ECSpriteModelRenderer@@UAEPAXI@Z
	DD	FLAT:?Init@CSpriteModelRenderer@@UAEXXZ
	DD	FLAT:?SpriteDrawModel@CSpriteModelRenderer@@UAEXXZ
	DD	FLAT:?SpriteDrawModelShadowPass@CSpriteModelRenderer@@UAEXXZ
	DD	FLAT:?GetSpriteFrame@CSpriteModelRenderer@@EAEPAUmspriteframe_s@@HM@Z
	DD	FLAT:?GetSpriteFrameInterpolant@CSpriteModelRenderer@@EAEMPAPAUmspriteframe_s@@0@Z
	DD	FLAT:?SpriteComputeOrigin@CSpriteModelRenderer@@EAEXPAUcl_entity_s@@@Z
	DD	FLAT:?SpriteComputeBBox@CSpriteModelRenderer@@EAEXPAUcl_entity_s@@QAVVector@@@Z
	DD	FLAT:?CullSpriteModel@CSpriteModelRenderer@@EAE_NXZ
	DD	FLAT:?GlowSightDistance@CSpriteModelRenderer@@EAEMXZ
	DD	FLAT:?SpriteGlowBlend@CSpriteModelRenderer@@EAEMHHAAM@Z
	DD	FLAT:?SpriteOccluded@CSpriteModelRenderer@@EAEHAAM@Z
	DD	FLAT:?DrawSpriteQuad@CSpriteModelRenderer@@EAEXPAUmspriteframe_s@@ABVVector@@11M@Z
	DD	FLAT:?SpriteHasLightmap@CSpriteModelRenderer@@EAEHH@Z
	DD	FLAT:?SpriteAllowLerping@CSpriteModelRenderer@@EAEHPAUcl_entity_s@@PAUmsprite_t@@@Z
CONST	ENDS
; Function compile flags: /Odtp /ZI
; File d:\!diffusion 2020\source code 2022\client-server\game_shared\mathlib.h
;	COMDAT ??$Lerp@M@@YAMMABM0@Z
_TEXT	SEGMENT
tv73 = -68						; size = 4
_flPercent$ = 8						; size = 4
_A$ = 12						; size = 4
_B$ = 16						; size = 4
??$Lerp@M@@YAMMABM0@Z PROC				; Lerp<float>, COMDAT

; 137  : {

	push	ebp
	mov	ebp, esp
	sub	esp, 68					; 00000044H
	push	ebx
	push	esi
	push	edi

; 138  : 	return A + (B - A) * flPercent;

	mov	eax, DWORD PTR _B$[ebp]
	mov	ecx, DWORD PTR _A$[ebp]
	movss	xmm0, DWORD PTR [eax]
	subss	xmm0, DWORD PTR [ecx]
	mulss	xmm0, DWORD PTR _flPercent$[ebp]
	mov	edx, DWORD PTR _A$[ebp]
	addss	xmm0, DWORD PTR [edx]
	movss	DWORD PTR tv73[ebp], xmm0
	fld	DWORD PTR tv73[ebp]

; 139  : }

	pop	edi
	pop	esi
	pop	ebx
	mov	esp, ebp
	pop	ebp
	ret	0
??$Lerp@M@@YAMMABM0@Z ENDP				; Lerp<float>
_TEXT	ENDS
; Function compile flags: /Odtp /ZI
;	COMDAT ??__Fg_SpriteRenderer@@YAXXZ
text$yd	SEGMENT
??__Fg_SpriteRenderer@@YAXXZ PROC			; `dynamic atexit destructor for 'g_SpriteRenderer'', COMDAT
	push	ebp
	mov	ebp, esp
	sub	esp, 64					; 00000040H
	push	ebx
	push	esi
	push	edi
	mov	ecx, OFFSET ?g_SpriteRenderer@@3VCSpriteModelRenderer@@A ; g_SpriteRenderer
	call	??1CSpriteModelRenderer@@UAE@XZ		; CSpriteModelRenderer::~CSpriteModelRenderer
	pop	edi
	pop	esi
	pop	ebx
	mov	esp, ebp
	pop	ebp
	ret	0
??__Fg_SpriteRenderer@@YAXXZ ENDP			; `dynamic atexit destructor for 'g_SpriteRenderer''
text$yd	ENDS
; Function compile flags: /Odtp /ZI
; File d:\!diffusion 2020\source code 2022\client-server\client\render\r_sprite.cpp
;	COMDAT ??__Eg_SpriteRenderer@@YAXXZ
text$di	SEGMENT
??__Eg_SpriteRenderer@@YAXXZ PROC			; `dynamic initializer for 'g_SpriteRenderer'', COMDAT

; 25   : CSpriteModelRenderer g_SpriteRenderer;

	push	ebp
	mov	ebp, esp
	sub	esp, 64					; 00000040H
	push	ebx
	push	esi
	push	edi
	mov	ecx, OFFSET ?g_SpriteRenderer@@3VCSpriteModelRenderer@@A ; g_SpriteRenderer
	call	??0CSpriteModelRenderer@@QAE@XZ		; CSpriteModelRenderer::CSpriteModelRenderer
	push	OFFSET ??__Fg_SpriteRenderer@@YAXXZ	; `dynamic atexit destructor for 'g_SpriteRenderer''
	call	_atexit
	add	esp, 4
	pop	edi
	pop	esi
	pop	ebx
	mov	esp, ebp
	pop	ebp
	ret	0
??__Eg_SpriteRenderer@@YAXXZ ENDP			; `dynamic initializer for 'g_SpriteRenderer''
text$di	ENDS
; Function compile flags: /Odtp /ZI
;	COMDAT ??_GCSpriteModelRenderer@@UAEPAXI@Z
_TEXT	SEGMENT
_this$ = -4						; size = 4
___flags$ = 8						; size = 4
??_GCSpriteModelRenderer@@UAEPAXI@Z PROC		; CSpriteModelRenderer::`scalar deleting destructor', COMDAT
; _this$ = ecx
	push	ebp
	mov	ebp, esp
	sub	esp, 68					; 00000044H
	push	ebx
	push	esi
	push	edi
	mov	DWORD PTR _this$[ebp], ecx
	mov	ecx, DWORD PTR _this$[ebp]
	call	??1CSpriteModelRenderer@@UAE@XZ		; CSpriteModelRenderer::~CSpriteModelRenderer
	mov	eax, DWORD PTR ___flags$[ebp]
	and	eax, 1
	je	SHORT $LN2@scalar
	push	72					; 00000048H
	mov	eax, DWORD PTR _this$[ebp]
	push	eax
	call	??3@YAXPAXI@Z				; operator delete
	add	esp, 8
$LN2@scalar:
	mov	eax, DWORD PTR _this$[ebp]
	pop	edi
	pop	esi
	pop	ebx
	mov	esp, ebp
	pop	ebp
	ret	4
??_GCSpriteModelRenderer@@UAEPAXI@Z ENDP		; CSpriteModelRenderer::`scalar deleting destructor'
_TEXT	ENDS
; Function compile flags: /Odtp /ZI
; File d:\!diffusion 2020\source code 2022\client-server\client\render\r_sprite.cpp
;	COMDAT ?GetSpriteFrame@CSpriteModelRenderer@@QAEPAUmspriteframe_s@@PBUmodel_s@@H@Z
_TEXT	SEGMENT
tv66 = -72						; size = 4
_this$ = -4						; size = 4
_m_pSpriteModel$ = 8					; size = 4
_frame$ = 12						; size = 4
?GetSpriteFrame@CSpriteModelRenderer@@QAEPAUmspriteframe_s@@PBUmodel_s@@H@Z PROC ; CSpriteModelRenderer::GetSpriteFrame, COMDAT
; _this$ = ecx

; 951  : {

	push	ebp
	mov	ebp, esp
	sub	esp, 72					; 00000048H
	push	ebx
	push	esi
	push	edi
	mov	DWORD PTR _this$[ebp], ecx

; 952  : 	if(( m_pSpriteHeader = (msprite_t *)Mod_Extradata( (model_t *)m_pSpriteModel )) == NULL )

	mov	eax, DWORD PTR _m_pSpriteModel$[ebp]
	push	eax
	mov	ecx, DWORD PTR _this$[ebp]
	call	?Mod_Extradata@CSpriteModelRenderer@@AAEPAXPAUmodel_s@@@Z ; CSpriteModelRenderer::Mod_Extradata
	mov	DWORD PTR tv66[ebp], eax
	mov	ecx, DWORD PTR _this$[ebp]
	mov	edx, DWORD PTR tv66[ebp]
	mov	DWORD PTR [ecx+68], edx
	cmp	DWORD PTR tv66[ebp], 0
	jne	SHORT $LN2@GetSpriteF

; 953  : 		return NULL;

	xor	eax, eax
	jmp	SHORT $LN1@GetSpriteF
$LN2@GetSpriteF:

; 954  : 
; 955  : 	m_pCurrentEntity = NULL;

	mov	eax, DWORD PTR _this$[ebp]
	mov	DWORD PTR [eax+56], 0

; 956  : 	return GetSpriteFrame( frame, 0.0f );

	push	ecx
	xorps	xmm0, xmm0
	movss	DWORD PTR [esp], xmm0
	mov	eax, DWORD PTR _frame$[ebp]
	push	eax
	mov	ecx, DWORD PTR _this$[ebp]
	mov	edx, DWORD PTR [ecx]
	mov	ecx, DWORD PTR _this$[ebp]
	mov	eax, DWORD PTR [edx+16]
	call	eax
$LN1@GetSpriteF:

; 957  : }

	pop	edi
	pop	esi
	pop	ebx
	mov	esp, ebp
	pop	ebp
	ret	8
?GetSpriteFrame@CSpriteModelRenderer@@QAEPAUmspriteframe_s@@PBUmodel_s@@H@Z ENDP ; CSpriteModelRenderer::GetSpriteFrame
_TEXT	ENDS
; Function compile flags: /Odtp /ZI
; File d:\!diffusion 2020\source code 2022\client-server\client\render\r_sprite.cpp
;	COMDAT ?DrawSpriteModelInternal@CSpriteModelRenderer@@QAEXPAUcl_entity_s@@@Z
_TEXT	SEGMENT
_this$ = -4						; size = 4
_e$ = 8							; size = 4
?DrawSpriteModelInternal@CSpriteModelRenderer@@QAEXPAUcl_entity_s@@@Z PROC ; CSpriteModelRenderer::DrawSpriteModelInternal, COMDAT
; _this$ = ecx

; 933  : {

	push	ebp
	mov	ebp, esp
	sub	esp, 68					; 00000044H
	push	ebx
	push	esi
	push	edi
	mov	DWORD PTR _this$[ebp], ecx

; 934  : 	if( RI->params & RP_ENVVIEW )

	mov	eax, DWORD PTR ?RI@@3PAUref_instance_t@@A ; RI
	mov	ecx, DWORD PTR [eax]
	and	ecx, 2
	je	SHORT $LN2@DrawSprite

; 935  : 		return;

	jmp	SHORT $LN1@DrawSprite
$LN2@DrawSprite:

; 936  : 
; 937  : 	if( !Mod_Extradata( e->model ))

	mov	eax, DWORD PTR _e$[ebp]
	mov	ecx, DWORD PTR [eax+2964]
	push	ecx
	mov	ecx, DWORD PTR _this$[ebp]
	call	?Mod_Extradata@CSpriteModelRenderer@@AAEPAXPAUmodel_s@@@Z ; CSpriteModelRenderer::Mod_Extradata
	test	eax, eax
	jne	SHORT $LN3@DrawSprite

; 938  : 		return;

	jmp	SHORT $LN1@DrawSprite
$LN3@DrawSprite:

; 939  : 
; 940  : 	if( m_pCvarLerping->value )

	mov	eax, DWORD PTR _this$[ebp]
	mov	ecx, DWORD PTR [eax+44]
	movss	xmm0, DWORD PTR [ecx+12]
	ucomiss	xmm0, DWORD PTR __real@00000000
	lahf
	test	ah, 68					; 00000044H
	jnp	SHORT $LN4@DrawSprite

; 941  : 		m_fDoInterp = true;

	mov	eax, DWORD PTR _this$[ebp]
	mov	DWORD PTR [eax+40], 1
	jmp	SHORT $LN5@DrawSprite
$LN4@DrawSprite:

; 942  : 	else m_fDoInterp = false;

	mov	eax, DWORD PTR _this$[ebp]
	mov	DWORD PTR [eax+40], 0
$LN5@DrawSprite:

; 943  : 
; 944  : 	if(!( RI->params & RP_SHADOWPASS ))

	mov	eax, DWORD PTR ?RI@@3PAUref_instance_t@@A ; RI
	mov	ecx, DWORD PTR [eax]
	and	ecx, 256				; 00000100H
	jne	SHORT $LN6@DrawSprite

; 945  : 		SpriteDrawModel();

	mov	eax, DWORD PTR _this$[ebp]
	mov	edx, DWORD PTR [eax]
	mov	ecx, DWORD PTR _this$[ebp]
	mov	eax, DWORD PTR [edx+8]
	call	eax

; 946  : 	else

	jmp	SHORT $LN7@DrawSprite
$LN6@DrawSprite:

; 947  : 		SpriteDrawModelShadowPass();

	mov	eax, DWORD PTR _this$[ebp]
	mov	edx, DWORD PTR [eax]
	mov	ecx, DWORD PTR _this$[ebp]
	mov	eax, DWORD PTR [edx+12]
	call	eax
$LN7@DrawSprite:
$LN1@DrawSprite:

; 948  : }

	pop	edi
	pop	esi
	pop	ebx
	mov	esp, ebp
	pop	ebp
	ret	4
?DrawSpriteModelInternal@CSpriteModelRenderer@@QAEXPAUcl_entity_s@@@Z ENDP ; CSpriteModelRenderer::DrawSpriteModelInternal
_TEXT	ENDS
; Function compile flags: /Odtp /ZI
; File d:\!diffusion 2020\source code 2022\client-server\client\render\r_sprite.h
;	COMDAT ?Mod_Extradata@CSpriteModelRenderer@@AAEPAXPAUmodel_s@@@Z
_TEXT	SEGMENT
_this$ = -4						; size = 4
_mod$ = 8						; size = 4
?Mod_Extradata@CSpriteModelRenderer@@AAEPAXPAUmodel_s@@@Z PROC ; CSpriteModelRenderer::Mod_Extradata, COMDAT
; _this$ = ecx

; 68   : 	{

	push	ebp
	mov	ebp, esp
	sub	esp, 68					; 00000044H
	push	ebx
	push	esi
	push	edi
	mov	DWORD PTR _this$[ebp], ecx

; 69   : 		if( mod && mod->type == mod_sprite )

	cmp	DWORD PTR _mod$[ebp], 0
	je	SHORT $LN2@Mod_Extrad
	mov	eax, DWORD PTR _mod$[ebp]
	cmp	DWORD PTR [eax+68], 1
	jne	SHORT $LN2@Mod_Extrad

; 70   : 			return mod->cache.data;

	mov	eax, DWORD PTR _mod$[ebp]
	mov	eax, DWORD PTR [eax+388]
	jmp	SHORT $LN1@Mod_Extrad
$LN2@Mod_Extrad:

; 71   : 		return NULL;

	xor	eax, eax
$LN1@Mod_Extrad:

; 72   : 	}

	pop	edi
	pop	esi
	pop	ebx
	mov	esp, ebp
	pop	ebp
	ret	4
?Mod_Extradata@CSpriteModelRenderer@@AAEPAXPAUmodel_s@@@Z ENDP ; CSpriteModelRenderer::Mod_Extradata
_TEXT	ENDS
; Function compile flags: /Odtp /ZI
; File d:\!diffusion 2020\source code 2022\client-server\client\render\r_sprite.cpp
;	COMDAT ?SpriteAllowLerping@CSpriteModelRenderer@@EAEHPAUcl_entity_s@@PAUmsprite_t@@@Z
_TEXT	SEGMENT
tv69 = -69						; size = 1
_this$ = -4						; size = 4
_e$ = 8							; size = 4
_psprite$ = 12						; size = 4
?SpriteAllowLerping@CSpriteModelRenderer@@EAEHPAUcl_entity_s@@PAUmsprite_t@@@Z PROC ; CSpriteModelRenderer::SpriteAllowLerping, COMDAT
; _this$ = ecx

; 580  : {

	push	ebp
	mov	ebp, esp
	sub	esp, 72					; 00000048H
	push	ebx
	push	esi
	push	edi
	mov	DWORD PTR _this$[ebp], ecx

; 581  : 	if( !CVAR_TO_BOOL( m_pCvarLerping ))

	mov	eax, DWORD PTR _this$[ebp]
	cmp	DWORD PTR [eax+44], 0
	je	SHORT $LN8@SpriteAllo
	mov	ecx, DWORD PTR _this$[ebp]
	mov	edx, DWORD PTR [ecx+44]
	movss	xmm0, DWORD PTR [edx+12]
	ucomiss	xmm0, DWORD PTR __real@00000000
	lahf
	test	ah, 68					; 00000044H
	jnp	SHORT $LN8@SpriteAllo
	mov	BYTE PTR tv69[ebp], 1
	jmp	SHORT $LN9@SpriteAllo
$LN8@SpriteAllo:
	mov	BYTE PTR tv69[ebp], 0
$LN9@SpriteAllo:
	movzx	eax, BYTE PTR tv69[ebp]
	test	eax, eax
	jne	SHORT $LN2@SpriteAllo

; 582  : 		return false;

	xor	eax, eax
	jmp	SHORT $LN1@SpriteAllo
$LN2@SpriteAllo:

; 583  : 
; 584  : 	if( psprite->numframes <= 1 )

	mov	eax, DWORD PTR _psprite$[ebp]
	cmp	DWORD PTR [eax+12], 1
	jg	SHORT $LN3@SpriteAllo

; 585  : 		return false;

	xor	eax, eax
	jmp	SHORT $LN1@SpriteAllo
$LN3@SpriteAllo:

; 586  : 
; 587  : 	if( psprite->texFormat != SPR_ADDITIVE )

	mov	eax, DWORD PTR _psprite$[ebp]
	movsx	ecx, WORD PTR [eax+2]
	cmp	ecx, 1
	je	SHORT $LN4@SpriteAllo

; 588  : 		return false;

	xor	eax, eax
	jmp	SHORT $LN1@SpriteAllo
$LN4@SpriteAllo:

; 589  : 
; 590  : 	if( e->curstate.rendermode == kRenderNormal || e->curstate.rendermode == kRenderTransAlpha )

	mov	eax, DWORD PTR _e$[ebp]
	cmp	DWORD PTR [eax+760], 0
	je	SHORT $LN6@SpriteAllo
	mov	eax, DWORD PTR _e$[ebp]
	cmp	DWORD PTR [eax+760], 4
	jne	SHORT $LN5@SpriteAllo
$LN6@SpriteAllo:

; 591  : 		return false;

	xor	eax, eax
	jmp	SHORT $LN1@SpriteAllo
$LN5@SpriteAllo:

; 592  : 
; 593  : 	return true;

	mov	eax, 1
$LN1@SpriteAllo:

; 594  : }

	pop	edi
	pop	esi
	pop	ebx
	mov	esp, ebp
	pop	ebp
	ret	8
?SpriteAllowLerping@CSpriteModelRenderer@@EAEHPAUcl_entity_s@@PAUmsprite_t@@@Z ENDP ; CSpriteModelRenderer::SpriteAllowLerping
_TEXT	ENDS
; Function compile flags: /Odtp /ZI
; File d:\!diffusion 2020\source code 2022\client-server\client\render\r_sprite.cpp
;	COMDAT ?SpriteHasLightmap@CSpriteModelRenderer@@EAEHH@Z
_TEXT	SEGMENT
tv88 = -72						; size = 4
tv69 = -69						; size = 1
_this$ = -4						; size = 4
_texFormat$ = 8						; size = 4
?SpriteHasLightmap@CSpriteModelRenderer@@EAEHH@Z PROC	; CSpriteModelRenderer::SpriteHasLightmap, COMDAT
; _this$ = ecx

; 547  : {

	push	ebp
	mov	ebp, esp
	sub	esp, 72					; 00000048H
	push	ebx
	push	esi
	push	edi
	mov	DWORD PTR _this$[ebp], ecx

; 548  : 	if( !CVAR_TO_BOOL( m_pCvarLighting ))

	mov	eax, DWORD PTR _this$[ebp]
	cmp	DWORD PTR [eax+48], 0
	je	SHORT $LN12@SpriteHasL
	mov	ecx, DWORD PTR _this$[ebp]
	mov	edx, DWORD PTR [ecx+48]
	movss	xmm0, DWORD PTR [edx+12]
	ucomiss	xmm0, DWORD PTR __real@00000000
	lahf
	test	ah, 68					; 00000044H
	jnp	SHORT $LN12@SpriteHasL
	mov	BYTE PTR tv69[ebp], 1
	jmp	SHORT $LN13@SpriteHasL
$LN12@SpriteHasL:
	mov	BYTE PTR tv69[ebp], 0
$LN13@SpriteHasL:
	movzx	eax, BYTE PTR tv69[ebp]
	test	eax, eax
	jne	SHORT $LN4@SpriteHasL

; 549  : 		return false;

	xor	eax, eax
	jmp	SHORT $LN1@SpriteHasL
$LN4@SpriteHasL:

; 550  : 	
; 551  : 	if( texFormat != SPR_ALPHTEST )

	cmp	DWORD PTR _texFormat$[ebp], 3
	je	SHORT $LN5@SpriteHasL

; 552  : 		return false;

	xor	eax, eax
	jmp	SHORT $LN1@SpriteHasL
$LN5@SpriteHasL:

; 553  : 
; 554  : 	if( (m_pCurrentEntity->curstate.renderfx == kRenderFxFullbright) || (m_pCurrentEntity->curstate.renderfx == kRenderFxFullbrightNoShadows) )

	mov	eax, DWORD PTR _this$[ebp]
	mov	ecx, DWORD PTR [eax+56]
	cmp	DWORD PTR [ecx+772], 24			; 00000018H
	je	SHORT $LN7@SpriteHasL
	mov	eax, DWORD PTR _this$[ebp]
	mov	ecx, DWORD PTR [eax+56]
	cmp	DWORD PTR [ecx+772], 25			; 00000019H
	jne	SHORT $LN6@SpriteHasL
$LN7@SpriteHasL:

; 555  : 		return false;

	xor	eax, eax
	jmp	SHORT $LN1@SpriteHasL
$LN6@SpriteHasL:

; 556  : 
; 557  : 	if( m_pCurrentEntity->curstate.renderamt <= 127 )

	mov	eax, DWORD PTR _this$[ebp]
	mov	ecx, DWORD PTR [eax+56]
	cmp	DWORD PTR [ecx+764], 127		; 0000007fH
	jg	SHORT $LN8@SpriteHasL

; 558  : 		return false;

	xor	eax, eax
	jmp	SHORT $LN1@SpriteHasL
$LN8@SpriteHasL:

; 559  : 
; 560  : 	switch( m_pCurrentEntity->curstate.rendermode )

	mov	eax, DWORD PTR _this$[ebp]
	mov	ecx, DWORD PTR [eax+56]
	mov	edx, DWORD PTR [ecx+760]
	mov	DWORD PTR tv88[ebp], edx
	cmp	DWORD PTR tv88[ebp], 6
	ja	SHORT $LN10@SpriteHasL
	mov	eax, DWORD PTR tv88[ebp]
	movzx	ecx, BYTE PTR $LN14@SpriteHasL[eax]
	jmp	DWORD PTR $LN15@SpriteHasL[ecx*4]
$LN9@SpriteHasL:

; 561  : 	{
; 562  : 	case kRenderNormal:
; 563  : 	case kRenderTransAlpha:
; 564  : 	case kRenderTransTexture:
; 565  : 	case kRenderFade:
; 566  : 		break;

	jmp	SHORT $LN2@SpriteHasL
$LN10@SpriteHasL:

; 567  : 	default:
; 568  : 		return false;

	xor	eax, eax
	jmp	SHORT $LN1@SpriteHasL
$LN2@SpriteHasL:

; 569  : 	}
; 570  : 
; 571  : 	return true;

	mov	eax, 1
$LN1@SpriteHasL:

; 572  : }

	pop	edi
	pop	esi
	pop	ebx
	mov	esp, ebp
	pop	ebp
	ret	4
$LN15@SpriteHasL:
	DD	$LN9@SpriteHasL
	DD	$LN10@SpriteHasL
$LN14@SpriteHasL:
	DB	0
	DB	1
	DB	0
	DB	1
	DB	0
	DB	1
	DB	0
?SpriteHasLightmap@CSpriteModelRenderer@@EAEHH@Z ENDP	; CSpriteModelRenderer::SpriteHasLightmap
_TEXT	ENDS
; Function compile flags: /Odtp /ZI
; File d:\!diffusion 2020\source code 2022\client-server\client\render\r_sprite.cpp
;	COMDAT ?DrawLighting@CSpriteModelRenderer@@AAEXPAUmspriteframe_s@@ABVVector@@111MM@Z
_TEXT	SEGMENT
$T1 = -468						; size = 12
$T2 = -456						; size = 12
$T3 = -444						; size = 12
$T4 = -432						; size = 12
$T5 = -420						; size = 12
$T6 = -408						; size = 12
$T7 = -396						; size = 12
$T8 = -384						; size = 12
$T9 = -372						; size = 12
$T10 = -360						; size = 12
$T11 = -348						; size = 12
$T12 = -336						; size = 12
$T13 = -324						; size = 12
$T14 = -312						; size = 12
$T15 = -300						; size = 12
$T16 = -288						; size = 12
$T17 = -276						; size = 12
$T18 = -264						; size = 12
$T19 = -252						; size = 12
$T20 = -240						; size = 12
$T21 = -228						; size = 12
$T22 = -216						; size = 12
$T23 = -204						; size = 12
$T24 = -192						; size = 12
$T25 = -180						; size = 12
$T26 = -168						; size = 12
$T27 = -156						; size = 12
$T28 = -144						; size = 12
$T29 = -132						; size = 12
$T30 = -120						; size = 12
_lightscale$ = -44					; size = 4
_color2$ = -40						; size = 12
_color$ = -28						; size = 12
_point$ = -16						; size = 12
_this$ = -4						; size = 4
_frame$ = 8						; size = 4
_org$ = 12						; size = 4
_right$ = 16						; size = 4
_up$ = 20						; size = 4
_light$ = 24						; size = 4
_scale$ = 28						; size = 4
_flAlpha$ = 32						; size = 4
?DrawLighting@CSpriteModelRenderer@@AAEXPAUmspriteframe_s@@ABVVector@@111MM@Z PROC ; CSpriteModelRenderer::DrawLighting, COMDAT
; _this$ = ecx

; 507  : {

	push	ebp
	mov	ebp, esp
	sub	esp, 468				; 000001d4H
	push	ebx
	push	esi
	push	edi
	mov	DWORD PTR _this$[ebp], ecx

; 508  : 	Vector point, color = light, color2;

	lea	ecx, DWORD PTR _point$[ebp]
	call	??0Vector@@QAE@XZ			; Vector::Vector
	mov	eax, DWORD PTR _light$[ebp]
	push	eax
	lea	ecx, DWORD PTR _color$[ebp]
	call	??0Vector@@QAE@ABV0@@Z			; Vector::Vector
	lea	ecx, DWORD PTR _color2$[ebp]
	call	??0Vector@@QAE@XZ			; Vector::Vector

; 509  : 	float lightscale = scale * 0.5f;

	movss	xmm0, DWORD PTR _scale$[ebp]
	mulss	xmm0, DWORD PTR __real@3f000000
	movss	DWORD PTR _lightscale$[ebp], xmm0

; 510  : 
; 511  : 	color += R_LightsForPoint( org, lightscale ) * 0.5f;

	push	ecx
	movss	xmm0, DWORD PTR __real@3f000000
	movss	DWORD PTR [esp], xmm0
	lea	eax, DWORD PTR $T29[ebp]
	push	eax
	push	ecx
	movss	xmm0, DWORD PTR _lightscale$[ebp]
	movss	DWORD PTR [esp], xmm0
	mov	ecx, DWORD PTR _org$[ebp]
	push	ecx
	lea	edx, DWORD PTR $T30[ebp]
	push	edx
	call	?R_LightsForPoint@@YA?AVVector@@ABV1@M@Z ; R_LightsForPoint
	add	esp, 12					; 0000000cH
	mov	ecx, eax
	call	??DVector@@QBE?AV0@M@Z			; Vector::operator*
	push	eax
	lea	ecx, DWORD PTR _color$[ebp]
	call	??YVector@@QAEAAV0@ABV0@@Z		; Vector::operator+=

; 512  : 
; 513  : 	pglBegin( GL_QUADS );

	push	7
	call	DWORD PTR ?pglBegin@@3P6GXI@ZA		; pglBegin

; 514  : 		pglTexCoord2f( 0.0f, 1.0f );

	push	ecx
	movss	xmm0, DWORD PTR __real@3f800000
	movss	DWORD PTR [esp], xmm0
	push	ecx
	xorps	xmm0, xmm0
	movss	DWORD PTR [esp], xmm0
	call	DWORD PTR ?pglTexCoord2f@@3P6GXMM@ZA	; pglTexCoord2f

; 515  : 		point = org + up * (frame->down * scale);

	mov	eax, DWORD PTR _frame$[ebp]
	movss	xmm0, DWORD PTR [eax+12]
	mulss	xmm0, DWORD PTR _scale$[ebp]
	push	ecx
	movss	DWORD PTR [esp], xmm0
	lea	ecx, DWORD PTR $T28[ebp]
	push	ecx
	mov	ecx, DWORD PTR _up$[ebp]
	call	??DVector@@QBE?AV0@M@Z			; Vector::operator*
	push	eax
	lea	edx, DWORD PTR $T27[ebp]
	push	edx
	mov	ecx, DWORD PTR _org$[ebp]
	call	??HVector@@QBE?AV0@ABV0@@Z		; Vector::operator+
	mov	ecx, DWORD PTR [eax]
	mov	DWORD PTR _point$[ebp], ecx
	mov	edx, DWORD PTR [eax+4]
	mov	DWORD PTR _point$[ebp+4], edx
	mov	eax, DWORD PTR [eax+8]
	mov	DWORD PTR _point$[ebp+8], eax

; 516  : 		point = point + right * (frame->left * scale);

	mov	eax, DWORD PTR _frame$[ebp]
	movss	xmm0, DWORD PTR [eax+16]
	mulss	xmm0, DWORD PTR _scale$[ebp]
	push	ecx
	movss	DWORD PTR [esp], xmm0
	lea	ecx, DWORD PTR $T26[ebp]
	push	ecx
	mov	ecx, DWORD PTR _right$[ebp]
	call	??DVector@@QBE?AV0@M@Z			; Vector::operator*
	push	eax
	lea	edx, DWORD PTR $T25[ebp]
	push	edx
	lea	ecx, DWORD PTR _point$[ebp]
	call	??HVector@@QBE?AV0@ABV0@@Z		; Vector::operator+
	mov	ecx, DWORD PTR [eax]
	mov	DWORD PTR _point$[ebp], ecx
	mov	edx, DWORD PTR [eax+4]
	mov	DWORD PTR _point$[ebp+4], edx
	mov	eax, DWORD PTR [eax+8]
	mov	DWORD PTR _point$[ebp+8], eax

; 517  : 		color2 = color + R_LightsForPoint( point, lightscale ) * 0.5f;

	push	ecx
	movss	xmm0, DWORD PTR __real@3f000000
	movss	DWORD PTR [esp], xmm0
	lea	eax, DWORD PTR $T23[ebp]
	push	eax
	push	ecx
	movss	xmm0, DWORD PTR _lightscale$[ebp]
	movss	DWORD PTR [esp], xmm0
	lea	ecx, DWORD PTR _point$[ebp]
	push	ecx
	lea	edx, DWORD PTR $T24[ebp]
	push	edx
	call	?R_LightsForPoint@@YA?AVVector@@ABV1@M@Z ; R_LightsForPoint
	add	esp, 12					; 0000000cH
	mov	ecx, eax
	call	??DVector@@QBE?AV0@M@Z			; Vector::operator*
	push	eax
	lea	eax, DWORD PTR $T22[ebp]
	push	eax
	lea	ecx, DWORD PTR _color$[ebp]
	call	??HVector@@QBE?AV0@ABV0@@Z		; Vector::operator+
	mov	ecx, DWORD PTR [eax]
	mov	DWORD PTR _color2$[ebp], ecx
	mov	edx, DWORD PTR [eax+4]
	mov	DWORD PTR _color2$[ebp+4], edx
	mov	eax, DWORD PTR [eax+8]
	mov	DWORD PTR _color2$[ebp+8], eax

; 518  : 		pglColor4f( color2[0], color2[1], color2[2], flAlpha );

	push	ecx
	movss	xmm0, DWORD PTR _flAlpha$[ebp]
	movss	DWORD PTR [esp], xmm0
	lea	ecx, DWORD PTR _color2$[ebp]
	call	??BVector@@QAEPAMXZ			; Vector::operator float *
	mov	ecx, 4
	shl	ecx, 1
	push	ecx
	movss	xmm0, DWORD PTR [eax+ecx]
	movss	DWORD PTR [esp], xmm0
	lea	ecx, DWORD PTR _color2$[ebp]
	call	??BVector@@QAEPAMXZ			; Vector::operator float *
	mov	edx, 4
	shl	edx, 0
	push	ecx
	movss	xmm0, DWORD PTR [eax+edx]
	movss	DWORD PTR [esp], xmm0
	lea	ecx, DWORD PTR _color2$[ebp]
	call	??BVector@@QAEPAMXZ			; Vector::operator float *
	mov	ecx, 4
	imul	edx, ecx, 0
	push	ecx
	movss	xmm0, DWORD PTR [eax+edx]
	movss	DWORD PTR [esp], xmm0
	call	DWORD PTR ?pglColor4f@@3P6GXMMMM@ZA	; pglColor4f

; 519  : 		pglVertex3fv( point );

	lea	ecx, DWORD PTR _point$[ebp]
	call	??BVector@@QAEPAMXZ			; Vector::operator float *
	push	eax
	call	DWORD PTR ?pglVertex3fv@@3P6GXPBM@ZA	; pglVertex3fv

; 520  : 
; 521  : 		pglTexCoord2f( 0.0f, 0.0f );

	push	ecx
	xorps	xmm0, xmm0
	movss	DWORD PTR [esp], xmm0
	push	ecx
	xorps	xmm0, xmm0
	movss	DWORD PTR [esp], xmm0
	call	DWORD PTR ?pglTexCoord2f@@3P6GXMM@ZA	; pglTexCoord2f

; 522  : 		point = org + up * (frame->up * scale);

	mov	eax, DWORD PTR _frame$[ebp]
	movss	xmm0, DWORD PTR [eax+8]
	mulss	xmm0, DWORD PTR _scale$[ebp]
	push	ecx
	movss	DWORD PTR [esp], xmm0
	lea	ecx, DWORD PTR $T21[ebp]
	push	ecx
	mov	ecx, DWORD PTR _up$[ebp]
	call	??DVector@@QBE?AV0@M@Z			; Vector::operator*
	push	eax
	lea	edx, DWORD PTR $T20[ebp]
	push	edx
	mov	ecx, DWORD PTR _org$[ebp]
	call	??HVector@@QBE?AV0@ABV0@@Z		; Vector::operator+
	mov	ecx, DWORD PTR [eax]
	mov	DWORD PTR _point$[ebp], ecx
	mov	edx, DWORD PTR [eax+4]
	mov	DWORD PTR _point$[ebp+4], edx
	mov	eax, DWORD PTR [eax+8]
	mov	DWORD PTR _point$[ebp+8], eax

; 523  : 		point = point + right * (frame->left * scale);

	mov	eax, DWORD PTR _frame$[ebp]
	movss	xmm0, DWORD PTR [eax+16]
	mulss	xmm0, DWORD PTR _scale$[ebp]
	push	ecx
	movss	DWORD PTR [esp], xmm0
	lea	ecx, DWORD PTR $T19[ebp]
	push	ecx
	mov	ecx, DWORD PTR _right$[ebp]
	call	??DVector@@QBE?AV0@M@Z			; Vector::operator*
	push	eax
	lea	edx, DWORD PTR $T18[ebp]
	push	edx
	lea	ecx, DWORD PTR _point$[ebp]
	call	??HVector@@QBE?AV0@ABV0@@Z		; Vector::operator+
	mov	ecx, DWORD PTR [eax]
	mov	DWORD PTR _point$[ebp], ecx
	mov	edx, DWORD PTR [eax+4]
	mov	DWORD PTR _point$[ebp+4], edx
	mov	eax, DWORD PTR [eax+8]
	mov	DWORD PTR _point$[ebp+8], eax

; 524  : 		color2 = color + R_LightsForPoint( point, lightscale ) * 0.5f;

	push	ecx
	movss	xmm0, DWORD PTR __real@3f000000
	movss	DWORD PTR [esp], xmm0
	lea	eax, DWORD PTR $T16[ebp]
	push	eax
	push	ecx
	movss	xmm0, DWORD PTR _lightscale$[ebp]
	movss	DWORD PTR [esp], xmm0
	lea	ecx, DWORD PTR _point$[ebp]
	push	ecx
	lea	edx, DWORD PTR $T17[ebp]
	push	edx
	call	?R_LightsForPoint@@YA?AVVector@@ABV1@M@Z ; R_LightsForPoint
	add	esp, 12					; 0000000cH
	mov	ecx, eax
	call	??DVector@@QBE?AV0@M@Z			; Vector::operator*
	push	eax
	lea	eax, DWORD PTR $T15[ebp]
	push	eax
	lea	ecx, DWORD PTR _color$[ebp]
	call	??HVector@@QBE?AV0@ABV0@@Z		; Vector::operator+
	mov	ecx, DWORD PTR [eax]
	mov	DWORD PTR _color2$[ebp], ecx
	mov	edx, DWORD PTR [eax+4]
	mov	DWORD PTR _color2$[ebp+4], edx
	mov	eax, DWORD PTR [eax+8]
	mov	DWORD PTR _color2$[ebp+8], eax

; 525  : 		pglColor4f( color2[0], color2[1], color2[2], flAlpha );

	push	ecx
	movss	xmm0, DWORD PTR _flAlpha$[ebp]
	movss	DWORD PTR [esp], xmm0
	lea	ecx, DWORD PTR _color2$[ebp]
	call	??BVector@@QAEPAMXZ			; Vector::operator float *
	mov	ecx, 4
	shl	ecx, 1
	push	ecx
	movss	xmm0, DWORD PTR [eax+ecx]
	movss	DWORD PTR [esp], xmm0
	lea	ecx, DWORD PTR _color2$[ebp]
	call	??BVector@@QAEPAMXZ			; Vector::operator float *
	mov	edx, 4
	shl	edx, 0
	push	ecx
	movss	xmm0, DWORD PTR [eax+edx]
	movss	DWORD PTR [esp], xmm0
	lea	ecx, DWORD PTR _color2$[ebp]
	call	??BVector@@QAEPAMXZ			; Vector::operator float *
	mov	ecx, 4
	imul	edx, ecx, 0
	push	ecx
	movss	xmm0, DWORD PTR [eax+edx]
	movss	DWORD PTR [esp], xmm0
	call	DWORD PTR ?pglColor4f@@3P6GXMMMM@ZA	; pglColor4f

; 526  : 		pglVertex3fv( point );

	lea	ecx, DWORD PTR _point$[ebp]
	call	??BVector@@QAEPAMXZ			; Vector::operator float *
	push	eax
	call	DWORD PTR ?pglVertex3fv@@3P6GXPBM@ZA	; pglVertex3fv

; 527  : 
; 528  : 		pglTexCoord2f( 1.0f, 0.0f );

	push	ecx
	xorps	xmm0, xmm0
	movss	DWORD PTR [esp], xmm0
	push	ecx
	movss	xmm0, DWORD PTR __real@3f800000
	movss	DWORD PTR [esp], xmm0
	call	DWORD PTR ?pglTexCoord2f@@3P6GXMM@ZA	; pglTexCoord2f

; 529  : 		point = org + up * (frame->up * scale);

	mov	eax, DWORD PTR _frame$[ebp]
	movss	xmm0, DWORD PTR [eax+8]
	mulss	xmm0, DWORD PTR _scale$[ebp]
	push	ecx
	movss	DWORD PTR [esp], xmm0
	lea	ecx, DWORD PTR $T14[ebp]
	push	ecx
	mov	ecx, DWORD PTR _up$[ebp]
	call	??DVector@@QBE?AV0@M@Z			; Vector::operator*
	push	eax
	lea	edx, DWORD PTR $T13[ebp]
	push	edx
	mov	ecx, DWORD PTR _org$[ebp]
	call	??HVector@@QBE?AV0@ABV0@@Z		; Vector::operator+
	mov	ecx, DWORD PTR [eax]
	mov	DWORD PTR _point$[ebp], ecx
	mov	edx, DWORD PTR [eax+4]
	mov	DWORD PTR _point$[ebp+4], edx
	mov	eax, DWORD PTR [eax+8]
	mov	DWORD PTR _point$[ebp+8], eax

; 530  : 		point = point + right * (frame->right * scale);

	mov	eax, DWORD PTR _frame$[ebp]
	movss	xmm0, DWORD PTR [eax+20]
	mulss	xmm0, DWORD PTR _scale$[ebp]
	push	ecx
	movss	DWORD PTR [esp], xmm0
	lea	ecx, DWORD PTR $T12[ebp]
	push	ecx
	mov	ecx, DWORD PTR _right$[ebp]
	call	??DVector@@QBE?AV0@M@Z			; Vector::operator*
	push	eax
	lea	edx, DWORD PTR $T11[ebp]
	push	edx
	lea	ecx, DWORD PTR _point$[ebp]
	call	??HVector@@QBE?AV0@ABV0@@Z		; Vector::operator+
	mov	ecx, DWORD PTR [eax]
	mov	DWORD PTR _point$[ebp], ecx
	mov	edx, DWORD PTR [eax+4]
	mov	DWORD PTR _point$[ebp+4], edx
	mov	eax, DWORD PTR [eax+8]
	mov	DWORD PTR _point$[ebp+8], eax

; 531  : 		color2 = color + R_LightsForPoint( point, lightscale ) * 0.5f;

	push	ecx
	movss	xmm0, DWORD PTR __real@3f000000
	movss	DWORD PTR [esp], xmm0
	lea	eax, DWORD PTR $T9[ebp]
	push	eax
	push	ecx
	movss	xmm0, DWORD PTR _lightscale$[ebp]
	movss	DWORD PTR [esp], xmm0
	lea	ecx, DWORD PTR _point$[ebp]
	push	ecx
	lea	edx, DWORD PTR $T10[ebp]
	push	edx
	call	?R_LightsForPoint@@YA?AVVector@@ABV1@M@Z ; R_LightsForPoint
	add	esp, 12					; 0000000cH
	mov	ecx, eax
	call	??DVector@@QBE?AV0@M@Z			; Vector::operator*
	push	eax
	lea	eax, DWORD PTR $T8[ebp]
	push	eax
	lea	ecx, DWORD PTR _color$[ebp]
	call	??HVector@@QBE?AV0@ABV0@@Z		; Vector::operator+
	mov	ecx, DWORD PTR [eax]
	mov	DWORD PTR _color2$[ebp], ecx
	mov	edx, DWORD PTR [eax+4]
	mov	DWORD PTR _color2$[ebp+4], edx
	mov	eax, DWORD PTR [eax+8]
	mov	DWORD PTR _color2$[ebp+8], eax

; 532  : 		pglColor4f( color2[0], color2[1], color2[2], flAlpha );

	push	ecx
	movss	xmm0, DWORD PTR _flAlpha$[ebp]
	movss	DWORD PTR [esp], xmm0
	lea	ecx, DWORD PTR _color2$[ebp]
	call	??BVector@@QAEPAMXZ			; Vector::operator float *
	mov	ecx, 4
	shl	ecx, 1
	push	ecx
	movss	xmm0, DWORD PTR [eax+ecx]
	movss	DWORD PTR [esp], xmm0
	lea	ecx, DWORD PTR _color2$[ebp]
	call	??BVector@@QAEPAMXZ			; Vector::operator float *
	mov	edx, 4
	shl	edx, 0
	push	ecx
	movss	xmm0, DWORD PTR [eax+edx]
	movss	DWORD PTR [esp], xmm0
	lea	ecx, DWORD PTR _color2$[ebp]
	call	??BVector@@QAEPAMXZ			; Vector::operator float *
	mov	ecx, 4
	imul	edx, ecx, 0
	push	ecx
	movss	xmm0, DWORD PTR [eax+edx]
	movss	DWORD PTR [esp], xmm0
	call	DWORD PTR ?pglColor4f@@3P6GXMMMM@ZA	; pglColor4f

; 533  : 		pglVertex3fv( point );

	lea	ecx, DWORD PTR _point$[ebp]
	call	??BVector@@QAEPAMXZ			; Vector::operator float *
	push	eax
	call	DWORD PTR ?pglVertex3fv@@3P6GXPBM@ZA	; pglVertex3fv

; 534  : 
; 535  : 		pglTexCoord2f( 1.0f, 1.0f );

	push	ecx
	movss	xmm0, DWORD PTR __real@3f800000
	movss	DWORD PTR [esp], xmm0
	push	ecx
	movss	xmm0, DWORD PTR __real@3f800000
	movss	DWORD PTR [esp], xmm0
	call	DWORD PTR ?pglTexCoord2f@@3P6GXMM@ZA	; pglTexCoord2f

; 536  : 		point = org + up * (frame->down * scale);

	mov	eax, DWORD PTR _frame$[ebp]
	movss	xmm0, DWORD PTR [eax+12]
	mulss	xmm0, DWORD PTR _scale$[ebp]
	push	ecx
	movss	DWORD PTR [esp], xmm0
	lea	ecx, DWORD PTR $T7[ebp]
	push	ecx
	mov	ecx, DWORD PTR _up$[ebp]
	call	??DVector@@QBE?AV0@M@Z			; Vector::operator*
	push	eax
	lea	edx, DWORD PTR $T6[ebp]
	push	edx
	mov	ecx, DWORD PTR _org$[ebp]
	call	??HVector@@QBE?AV0@ABV0@@Z		; Vector::operator+
	mov	ecx, DWORD PTR [eax]
	mov	DWORD PTR _point$[ebp], ecx
	mov	edx, DWORD PTR [eax+4]
	mov	DWORD PTR _point$[ebp+4], edx
	mov	eax, DWORD PTR [eax+8]
	mov	DWORD PTR _point$[ebp+8], eax

; 537  : 		point = point + right * (frame->right * scale);

	mov	eax, DWORD PTR _frame$[ebp]
	movss	xmm0, DWORD PTR [eax+20]
	mulss	xmm0, DWORD PTR _scale$[ebp]
	push	ecx
	movss	DWORD PTR [esp], xmm0
	lea	ecx, DWORD PTR $T5[ebp]
	push	ecx
	mov	ecx, DWORD PTR _right$[ebp]
	call	??DVector@@QBE?AV0@M@Z			; Vector::operator*
	push	eax
	lea	edx, DWORD PTR $T4[ebp]
	push	edx
	lea	ecx, DWORD PTR _point$[ebp]
	call	??HVector@@QBE?AV0@ABV0@@Z		; Vector::operator+
	mov	ecx, DWORD PTR [eax]
	mov	DWORD PTR _point$[ebp], ecx
	mov	edx, DWORD PTR [eax+4]
	mov	DWORD PTR _point$[ebp+4], edx
	mov	eax, DWORD PTR [eax+8]
	mov	DWORD PTR _point$[ebp+8], eax

; 538  : 		color2 = color + R_LightsForPoint( point, lightscale ) * 0.5f;

	push	ecx
	movss	xmm0, DWORD PTR __real@3f000000
	movss	DWORD PTR [esp], xmm0
	lea	eax, DWORD PTR $T2[ebp]
	push	eax
	push	ecx
	movss	xmm0, DWORD PTR _lightscale$[ebp]
	movss	DWORD PTR [esp], xmm0
	lea	ecx, DWORD PTR _point$[ebp]
	push	ecx
	lea	edx, DWORD PTR $T3[ebp]
	push	edx
	call	?R_LightsForPoint@@YA?AVVector@@ABV1@M@Z ; R_LightsForPoint
	add	esp, 12					; 0000000cH
	mov	ecx, eax
	call	??DVector@@QBE?AV0@M@Z			; Vector::operator*
	push	eax
	lea	eax, DWORD PTR $T1[ebp]
	push	eax
	lea	ecx, DWORD PTR _color$[ebp]
	call	??HVector@@QBE?AV0@ABV0@@Z		; Vector::operator+
	mov	ecx, DWORD PTR [eax]
	mov	DWORD PTR _color2$[ebp], ecx
	mov	edx, DWORD PTR [eax+4]
	mov	DWORD PTR _color2$[ebp+4], edx
	mov	eax, DWORD PTR [eax+8]
	mov	DWORD PTR _color2$[ebp+8], eax

; 539  : 		pglColor4f( color2[0], color2[1], color2[2], flAlpha );

	push	ecx
	movss	xmm0, DWORD PTR _flAlpha$[ebp]
	movss	DWORD PTR [esp], xmm0
	lea	ecx, DWORD PTR _color2$[ebp]
	call	??BVector@@QAEPAMXZ			; Vector::operator float *
	mov	ecx, 4
	shl	ecx, 1
	push	ecx
	movss	xmm0, DWORD PTR [eax+ecx]
	movss	DWORD PTR [esp], xmm0
	lea	ecx, DWORD PTR _color2$[ebp]
	call	??BVector@@QAEPAMXZ			; Vector::operator float *
	mov	edx, 4
	shl	edx, 0
	push	ecx
	movss	xmm0, DWORD PTR [eax+edx]
	movss	DWORD PTR [esp], xmm0
	lea	ecx, DWORD PTR _color2$[ebp]
	call	??BVector@@QAEPAMXZ			; Vector::operator float *
	mov	ecx, 4
	imul	edx, ecx, 0
	push	ecx
	movss	xmm0, DWORD PTR [eax+edx]
	movss	DWORD PTR [esp], xmm0
	call	DWORD PTR ?pglColor4f@@3P6GXMMMM@ZA	; pglColor4f

; 540  : 		pglVertex3fv( point );

	lea	ecx, DWORD PTR _point$[ebp]
	call	??BVector@@QAEPAMXZ			; Vector::operator float *
	push	eax
	call	DWORD PTR ?pglVertex3fv@@3P6GXPBM@ZA	; pglVertex3fv

; 541  : 	pglEnd();

	call	DWORD PTR ?pglEnd@@3P6GXXZA		; pglEnd

; 542  : 
; 543  : 	r_stats.c_total_tris += 2;

	mov	eax, DWORD PTR ?r_stats@@3Uref_stats_t@@A+60
	add	eax, 2
	mov	DWORD PTR ?r_stats@@3Uref_stats_t@@A+60, eax

; 544  : }

	pop	edi
	pop	esi
	pop	ebx
	mov	esp, ebp
	pop	ebp
	ret	28					; 0000001cH
?DrawLighting@CSpriteModelRenderer@@AAEXPAUmspriteframe_s@@ABVVector@@111MM@Z ENDP ; CSpriteModelRenderer::DrawLighting
_TEXT	ENDS
; Function compile flags: /Odtp /ZI
; File d:\!diffusion 2020\source code 2022\client-server\client\render\r_sprite.cpp
;	COMDAT ?DrawSpriteQuad@CSpriteModelRenderer@@EAEXPAUmspriteframe_s@@ABVVector@@11M@Z
_TEXT	SEGMENT
$T1 = -272						; size = 12
$T2 = -260						; size = 12
$T3 = -248						; size = 12
$T4 = -236						; size = 12
$T5 = -224						; size = 12
$T6 = -212						; size = 12
$T7 = -200						; size = 12
$T8 = -188						; size = 12
$T9 = -176						; size = 12
$T10 = -164						; size = 12
$T11 = -152						; size = 12
$T12 = -140						; size = 12
$T13 = -128						; size = 12
$T14 = -116						; size = 12
$T15 = -104						; size = 12
$T16 = -92						; size = 12
_point$ = -16						; size = 12
_this$ = -4						; size = 4
_frame$ = 8						; size = 4
_org$ = 12						; size = 4
_right$ = 16						; size = 4
_up$ = 20						; size = 4
_scale$ = 24						; size = 4
?DrawSpriteQuad@CSpriteModelRenderer@@EAEXPAUmspriteframe_s@@ABVVector@@11M@Z PROC ; CSpriteModelRenderer::DrawSpriteQuad, COMDAT
; _this$ = ecx

; 480  : {

	push	ebp
	mov	ebp, esp
	sub	esp, 272				; 00000110H
	push	ebx
	push	esi
	push	edi
	mov	DWORD PTR _this$[ebp], ecx

; 481  : 	Vector point;

	lea	ecx, DWORD PTR _point$[ebp]
	call	??0Vector@@QAE@XZ			; Vector::Vector

; 482  : 
; 483  : 	pglBegin( GL_QUADS );

	push	7
	call	DWORD PTR ?pglBegin@@3P6GXI@ZA		; pglBegin

; 484  : 		pglTexCoord2f( 0.0f, 1.0f );

	push	ecx
	movss	xmm0, DWORD PTR __real@3f800000
	movss	DWORD PTR [esp], xmm0
	push	ecx
	xorps	xmm0, xmm0
	movss	DWORD PTR [esp], xmm0
	call	DWORD PTR ?pglTexCoord2f@@3P6GXMM@ZA	; pglTexCoord2f

; 485  : 		point = org + up * (frame->down * scale);

	mov	eax, DWORD PTR _frame$[ebp]
	movss	xmm0, DWORD PTR [eax+12]
	mulss	xmm0, DWORD PTR _scale$[ebp]
	push	ecx
	movss	DWORD PTR [esp], xmm0
	lea	ecx, DWORD PTR $T16[ebp]
	push	ecx
	mov	ecx, DWORD PTR _up$[ebp]
	call	??DVector@@QBE?AV0@M@Z			; Vector::operator*
	push	eax
	lea	edx, DWORD PTR $T15[ebp]
	push	edx
	mov	ecx, DWORD PTR _org$[ebp]
	call	??HVector@@QBE?AV0@ABV0@@Z		; Vector::operator+
	mov	ecx, DWORD PTR [eax]
	mov	DWORD PTR _point$[ebp], ecx
	mov	edx, DWORD PTR [eax+4]
	mov	DWORD PTR _point$[ebp+4], edx
	mov	eax, DWORD PTR [eax+8]
	mov	DWORD PTR _point$[ebp+8], eax

; 486  : 		point = point + right * (frame->left * scale);

	mov	eax, DWORD PTR _frame$[ebp]
	movss	xmm0, DWORD PTR [eax+16]
	mulss	xmm0, DWORD PTR _scale$[ebp]
	push	ecx
	movss	DWORD PTR [esp], xmm0
	lea	ecx, DWORD PTR $T14[ebp]
	push	ecx
	mov	ecx, DWORD PTR _right$[ebp]
	call	??DVector@@QBE?AV0@M@Z			; Vector::operator*
	push	eax
	lea	edx, DWORD PTR $T13[ebp]
	push	edx
	lea	ecx, DWORD PTR _point$[ebp]
	call	??HVector@@QBE?AV0@ABV0@@Z		; Vector::operator+
	mov	ecx, DWORD PTR [eax]
	mov	DWORD PTR _point$[ebp], ecx
	mov	edx, DWORD PTR [eax+4]
	mov	DWORD PTR _point$[ebp+4], edx
	mov	eax, DWORD PTR [eax+8]
	mov	DWORD PTR _point$[ebp+8], eax

; 487  : 		pglVertex3fv( point );

	lea	ecx, DWORD PTR _point$[ebp]
	call	??BVector@@QAEPAMXZ			; Vector::operator float *
	push	eax
	call	DWORD PTR ?pglVertex3fv@@3P6GXPBM@ZA	; pglVertex3fv

; 488  : 		pglTexCoord2f( 0.0f, 0.0f );

	push	ecx
	xorps	xmm0, xmm0
	movss	DWORD PTR [esp], xmm0
	push	ecx
	xorps	xmm0, xmm0
	movss	DWORD PTR [esp], xmm0
	call	DWORD PTR ?pglTexCoord2f@@3P6GXMM@ZA	; pglTexCoord2f

; 489  : 		point = org + up * (frame->up * scale);

	mov	eax, DWORD PTR _frame$[ebp]
	movss	xmm0, DWORD PTR [eax+8]
	mulss	xmm0, DWORD PTR _scale$[ebp]
	push	ecx
	movss	DWORD PTR [esp], xmm0
	lea	ecx, DWORD PTR $T12[ebp]
	push	ecx
	mov	ecx, DWORD PTR _up$[ebp]
	call	??DVector@@QBE?AV0@M@Z			; Vector::operator*
	push	eax
	lea	edx, DWORD PTR $T11[ebp]
	push	edx
	mov	ecx, DWORD PTR _org$[ebp]
	call	??HVector@@QBE?AV0@ABV0@@Z		; Vector::operator+
	mov	ecx, DWORD PTR [eax]
	mov	DWORD PTR _point$[ebp], ecx
	mov	edx, DWORD PTR [eax+4]
	mov	DWORD PTR _point$[ebp+4], edx
	mov	eax, DWORD PTR [eax+8]
	mov	DWORD PTR _point$[ebp+8], eax

; 490  : 		point = point + right * (frame->left * scale);

	mov	eax, DWORD PTR _frame$[ebp]
	movss	xmm0, DWORD PTR [eax+16]
	mulss	xmm0, DWORD PTR _scale$[ebp]
	push	ecx
	movss	DWORD PTR [esp], xmm0
	lea	ecx, DWORD PTR $T10[ebp]
	push	ecx
	mov	ecx, DWORD PTR _right$[ebp]
	call	??DVector@@QBE?AV0@M@Z			; Vector::operator*
	push	eax
	lea	edx, DWORD PTR $T9[ebp]
	push	edx
	lea	ecx, DWORD PTR _point$[ebp]
	call	??HVector@@QBE?AV0@ABV0@@Z		; Vector::operator+
	mov	ecx, DWORD PTR [eax]
	mov	DWORD PTR _point$[ebp], ecx
	mov	edx, DWORD PTR [eax+4]
	mov	DWORD PTR _point$[ebp+4], edx
	mov	eax, DWORD PTR [eax+8]
	mov	DWORD PTR _point$[ebp+8], eax

; 491  : 		pglVertex3fv( point );

	lea	ecx, DWORD PTR _point$[ebp]
	call	??BVector@@QAEPAMXZ			; Vector::operator float *
	push	eax
	call	DWORD PTR ?pglVertex3fv@@3P6GXPBM@ZA	; pglVertex3fv

; 492  : 		pglTexCoord2f( 1.0f, 0.0f );

	push	ecx
	xorps	xmm0, xmm0
	movss	DWORD PTR [esp], xmm0
	push	ecx
	movss	xmm0, DWORD PTR __real@3f800000
	movss	DWORD PTR [esp], xmm0
	call	DWORD PTR ?pglTexCoord2f@@3P6GXMM@ZA	; pglTexCoord2f

; 493  : 		point = org + up * (frame->up * scale);

	mov	eax, DWORD PTR _frame$[ebp]
	movss	xmm0, DWORD PTR [eax+8]
	mulss	xmm0, DWORD PTR _scale$[ebp]
	push	ecx
	movss	DWORD PTR [esp], xmm0
	lea	ecx, DWORD PTR $T8[ebp]
	push	ecx
	mov	ecx, DWORD PTR _up$[ebp]
	call	??DVector@@QBE?AV0@M@Z			; Vector::operator*
	push	eax
	lea	edx, DWORD PTR $T7[ebp]
	push	edx
	mov	ecx, DWORD PTR _org$[ebp]
	call	??HVector@@QBE?AV0@ABV0@@Z		; Vector::operator+
	mov	ecx, DWORD PTR [eax]
	mov	DWORD PTR _point$[ebp], ecx
	mov	edx, DWORD PTR [eax+4]
	mov	DWORD PTR _point$[ebp+4], edx
	mov	eax, DWORD PTR [eax+8]
	mov	DWORD PTR _point$[ebp+8], eax

; 494  : 		point = point + right * (frame->right * scale);

	mov	eax, DWORD PTR _frame$[ebp]
	movss	xmm0, DWORD PTR [eax+20]
	mulss	xmm0, DWORD PTR _scale$[ebp]
	push	ecx
	movss	DWORD PTR [esp], xmm0
	lea	ecx, DWORD PTR $T6[ebp]
	push	ecx
	mov	ecx, DWORD PTR _right$[ebp]
	call	??DVector@@QBE?AV0@M@Z			; Vector::operator*
	push	eax
	lea	edx, DWORD PTR $T5[ebp]
	push	edx
	lea	ecx, DWORD PTR _point$[ebp]
	call	??HVector@@QBE?AV0@ABV0@@Z		; Vector::operator+
	mov	ecx, DWORD PTR [eax]
	mov	DWORD PTR _point$[ebp], ecx
	mov	edx, DWORD PTR [eax+4]
	mov	DWORD PTR _point$[ebp+4], edx
	mov	eax, DWORD PTR [eax+8]
	mov	DWORD PTR _point$[ebp+8], eax

; 495  : 		pglVertex3fv( point );

	lea	ecx, DWORD PTR _point$[ebp]
	call	??BVector@@QAEPAMXZ			; Vector::operator float *
	push	eax
	call	DWORD PTR ?pglVertex3fv@@3P6GXPBM@ZA	; pglVertex3fv

; 496  : 		pglTexCoord2f( 1.0f, 1.0f );

	push	ecx
	movss	xmm0, DWORD PTR __real@3f800000
	movss	DWORD PTR [esp], xmm0
	push	ecx
	movss	xmm0, DWORD PTR __real@3f800000
	movss	DWORD PTR [esp], xmm0
	call	DWORD PTR ?pglTexCoord2f@@3P6GXMM@ZA	; pglTexCoord2f

; 497  : 		point = org + up * (frame->down * scale);

	mov	eax, DWORD PTR _frame$[ebp]
	movss	xmm0, DWORD PTR [eax+12]
	mulss	xmm0, DWORD PTR _scale$[ebp]
	push	ecx
	movss	DWORD PTR [esp], xmm0
	lea	ecx, DWORD PTR $T4[ebp]
	push	ecx
	mov	ecx, DWORD PTR _up$[ebp]
	call	??DVector@@QBE?AV0@M@Z			; Vector::operator*
	push	eax
	lea	edx, DWORD PTR $T3[ebp]
	push	edx
	mov	ecx, DWORD PTR _org$[ebp]
	call	??HVector@@QBE?AV0@ABV0@@Z		; Vector::operator+
	mov	ecx, DWORD PTR [eax]
	mov	DWORD PTR _point$[ebp], ecx
	mov	edx, DWORD PTR [eax+4]
	mov	DWORD PTR _point$[ebp+4], edx
	mov	eax, DWORD PTR [eax+8]
	mov	DWORD PTR _point$[ebp+8], eax

; 498  : 		point = point + right * (frame->right * scale);

	mov	eax, DWORD PTR _frame$[ebp]
	movss	xmm0, DWORD PTR [eax+20]
	mulss	xmm0, DWORD PTR _scale$[ebp]
	push	ecx
	movss	DWORD PTR [esp], xmm0
	lea	ecx, DWORD PTR $T2[ebp]
	push	ecx
	mov	ecx, DWORD PTR _right$[ebp]
	call	??DVector@@QBE?AV0@M@Z			; Vector::operator*
	push	eax
	lea	edx, DWORD PTR $T1[ebp]
	push	edx
	lea	ecx, DWORD PTR _point$[ebp]
	call	??HVector@@QBE?AV0@ABV0@@Z		; Vector::operator+
	mov	ecx, DWORD PTR [eax]
	mov	DWORD PTR _point$[ebp], ecx
	mov	edx, DWORD PTR [eax+4]
	mov	DWORD PTR _point$[ebp+4], edx
	mov	eax, DWORD PTR [eax+8]
	mov	DWORD PTR _point$[ebp+8], eax

; 499  : 		pglVertex3fv( point );

	lea	ecx, DWORD PTR _point$[ebp]
	call	??BVector@@QAEPAMXZ			; Vector::operator float *
	push	eax
	call	DWORD PTR ?pglVertex3fv@@3P6GXPBM@ZA	; pglVertex3fv

; 500  : 	pglEnd();

	call	DWORD PTR ?pglEnd@@3P6GXXZA		; pglEnd

; 501  : 
; 502  : 	r_stats.c_total_tris += 2;

	mov	eax, DWORD PTR ?r_stats@@3Uref_stats_t@@A+60
	add	eax, 2
	mov	DWORD PTR ?r_stats@@3Uref_stats_t@@A+60, eax

; 503  : 	r_stats.c_sprite_polys++;

	mov	eax, DWORD PTR ?r_stats@@3Uref_stats_t@@A+8
	add	eax, 1
	mov	DWORD PTR ?r_stats@@3Uref_stats_t@@A+8, eax

; 504  : }

	pop	edi
	pop	esi
	pop	ebx
	mov	esp, ebp
	pop	ebp
	ret	20					; 00000014H
?DrawSpriteQuad@CSpriteModelRenderer@@EAEXPAUmspriteframe_s@@ABVVector@@11M@Z ENDP ; CSpriteModelRenderer::DrawSpriteQuad
_TEXT	ENDS
; Function compile flags: /Odtp /ZI
; File d:\!diffusion 2020\source code 2022\client-server\client\render\r_sprite.cpp
;	COMDAT ?SpriteOccluded@CSpriteModelRenderer@@EAEHAAM@Z
_TEXT	SEGMENT
_blend$1 = -20						; size = 4
_screenVec$2 = -16					; size = 12
_this$ = -4						; size = 4
_pscale$ = 8						; size = 4
?SpriteOccluded@CSpriteModelRenderer@@EAEHAAM@Z PROC	; CSpriteModelRenderer::SpriteOccluded, COMDAT
; _this$ = ecx

; 433  : {

	push	ebp
	mov	ebp, esp
	sub	esp, 84					; 00000054H
	push	ebx
	push	esi
	push	edi
	mov	DWORD PTR _this$[ebp], ecx

; 434  : 	// always compute origin first
; 435  : 	SpriteComputeOrigin( m_pCurrentEntity );

	mov	eax, DWORD PTR _this$[ebp]
	mov	ecx, DWORD PTR [eax+56]
	push	ecx
	mov	edx, DWORD PTR _this$[ebp]
	mov	eax, DWORD PTR [edx]
	mov	ecx, DWORD PTR _this$[ebp]
	mov	edx, DWORD PTR [eax+24]
	call	edx

; 436  : 
; 437  : 	if( (m_pCurrentEntity->curstate.rendermode == kRenderGlow) || (m_pCurrentEntity->curstate.rendermode == kRenderConstantGlow) )

	mov	eax, DWORD PTR _this$[ebp]
	mov	ecx, DWORD PTR [eax+56]
	cmp	DWORD PTR [ecx+760], 3
	je	SHORT $LN4@SpriteOccl
	mov	eax, DWORD PTR _this$[ebp]
	mov	ecx, DWORD PTR [eax+56]
	cmp	DWORD PTR [ecx+760], 7
	jne	$LN2@SpriteOccl
$LN4@SpriteOccl:

; 438  : 	{
; 439  : 		Vector	screenVec;

	lea	ecx, DWORD PTR _screenVec$2[ebp]
	call	??0Vector@@QAE@XZ			; Vector::Vector

; 440  : 		float	blend;
; 441  : 
; 442  : 		// don't reflect this entity in mirrors
; 443  : 		if( FBitSet( m_pCurrentEntity->curstate.effects, EF_NOREFLECT ) && FBitSet( RI->params, RP_MIRRORVIEW ))

	mov	eax, DWORD PTR _this$[ebp]
	mov	ecx, DWORD PTR [eax+56]
	mov	edx, DWORD PTR [ecx+748]
	and	edx, 16777216				; 01000000H
	je	SHORT $LN5@SpriteOccl
	mov	eax, DWORD PTR ?RI@@3PAUref_instance_t@@A ; RI
	mov	ecx, DWORD PTR [eax]
	and	ecx, 1
	je	SHORT $LN5@SpriteOccl

; 444  : 			return true;

	mov	eax, 1
	jmp	$LN1@SpriteOccl
$LN5@SpriteOccl:

; 445  : 
; 446  : 		// draw only in mirrors
; 447  : 		if( FBitSet( m_pCurrentEntity->curstate.effects, EF_REFLECTONLY ) && !FBitSet( RI->params, RP_MIRRORVIEW ))

	mov	eax, DWORD PTR _this$[ebp]
	mov	ecx, DWORD PTR [eax+56]
	mov	edx, DWORD PTR [ecx+748]
	and	edx, 33554432				; 02000000H
	je	SHORT $LN6@SpriteOccl
	mov	eax, DWORD PTR ?RI@@3PAUref_instance_t@@A ; RI
	mov	ecx, DWORD PTR [eax]
	and	ecx, 1
	jne	SHORT $LN6@SpriteOccl

; 448  : 			return true;

	mov	eax, 1
	jmp	$LN1@SpriteOccl
$LN6@SpriteOccl:

; 449  : 
; 450  : 		WorldToScreen( sprite_origin, screenVec );

	lea	eax, DWORD PTR _screenVec$2[ebp]
	push	eax
	mov	ecx, DWORD PTR _this$[ebp]
	add	ecx, 4
	push	ecx
	call	?WorldToScreen@@YAHABVVector@@AAV1@@Z	; WorldToScreen
	add	esp, 8

; 451  : 
; 452  : 		if( screenVec[0] < RI->viewport[0] || screenVec[0] > RI->viewport[0] + RI->viewport[2] )

	lea	ecx, DWORD PTR _screenVec$2[ebp]
	call	??BVector@@QAEPAMXZ			; Vector::operator float *
	mov	ecx, 4
	imul	edx, ecx, 0
	mov	ecx, 4
	imul	ecx, ecx, 0
	mov	esi, DWORD PTR ?RI@@3PAUref_instance_t@@A ; RI
	cvtsi2ss xmm0, DWORD PTR [esi+ecx+32]
	comiss	xmm0, DWORD PTR [eax+edx]
	ja	SHORT $LN8@SpriteOccl
	lea	ecx, DWORD PTR _screenVec$2[ebp]
	call	??BVector@@QAEPAMXZ			; Vector::operator float *
	mov	ecx, 4
	imul	edx, ecx, 0
	mov	ecx, 4
	imul	ecx, ecx, 0
	mov	esi, 4
	shl	esi, 1
	mov	edi, DWORD PTR ?RI@@3PAUref_instance_t@@A ; RI
	mov	ecx, DWORD PTR [edi+ecx+32]
	mov	edi, DWORD PTR ?RI@@3PAUref_instance_t@@A ; RI
	add	ecx, DWORD PTR [edi+esi+32]
	cvtsi2ss xmm0, ecx
	movss	xmm1, DWORD PTR [eax+edx]
	comiss	xmm1, xmm0
	jbe	SHORT $LN7@SpriteOccl
$LN8@SpriteOccl:

; 453  : 			return true; // out of screen

	mov	eax, 1
	jmp	$LN1@SpriteOccl
$LN7@SpriteOccl:

; 454  : 
; 455  : 		if( screenVec[1] < RI->viewport[1] || screenVec[1] > RI->viewport[1] + RI->viewport[3] )

	lea	ecx, DWORD PTR _screenVec$2[ebp]
	call	??BVector@@QAEPAMXZ			; Vector::operator float *
	mov	ecx, 4
	shl	ecx, 0
	mov	edx, 4
	shl	edx, 0
	mov	esi, DWORD PTR ?RI@@3PAUref_instance_t@@A ; RI
	cvtsi2ss xmm0, DWORD PTR [esi+edx+32]
	comiss	xmm0, DWORD PTR [eax+ecx]
	ja	SHORT $LN10@SpriteOccl
	lea	ecx, DWORD PTR _screenVec$2[ebp]
	call	??BVector@@QAEPAMXZ			; Vector::operator float *
	mov	ecx, 4
	shl	ecx, 0
	mov	edx, 4
	shl	edx, 0
	mov	esi, 4
	imul	esi, esi, 3
	mov	edi, DWORD PTR ?RI@@3PAUref_instance_t@@A ; RI
	mov	edx, DWORD PTR [edi+edx+32]
	mov	edi, DWORD PTR ?RI@@3PAUref_instance_t@@A ; RI
	add	edx, DWORD PTR [edi+esi+32]
	cvtsi2ss xmm0, edx
	movss	xmm1, DWORD PTR [eax+ecx]
	comiss	xmm1, xmm0
	jbe	SHORT $LN9@SpriteOccl
$LN10@SpriteOccl:

; 456  : 			return true; // out of screen

	mov	eax, 1
	jmp	SHORT $LN1@SpriteOccl
$LN9@SpriteOccl:

; 457  : 
; 458  : 		blend = SpriteGlowBlend( m_pCurrentEntity->curstate.rendermode, m_pCurrentEntity->curstate.renderfx, pscale );

	mov	eax, DWORD PTR _pscale$[ebp]
	push	eax
	mov	ecx, DWORD PTR _this$[ebp]
	mov	edx, DWORD PTR [ecx+56]
	mov	eax, DWORD PTR [edx+772]
	push	eax
	mov	ecx, DWORD PTR _this$[ebp]
	mov	edx, DWORD PTR [ecx+56]
	mov	eax, DWORD PTR [edx+760]
	push	eax
	mov	ecx, DWORD PTR _this$[ebp]
	mov	edx, DWORD PTR [ecx]
	mov	ecx, DWORD PTR _this$[ebp]
	mov	eax, DWORD PTR [edx+40]
	call	eax
	fstp	DWORD PTR _blend$1[ebp]

; 459  : 		tr.blend *= blend;

	movss	xmm0, DWORD PTR ?tr@@3Uref_globals_t@@A+5830912
	mulss	xmm0, DWORD PTR _blend$1[ebp]
	movss	DWORD PTR ?tr@@3Uref_globals_t@@A+5830912, xmm0

; 460  : 
; 461  : 		if( blend <= 0.01f )

	movss	xmm0, DWORD PTR __real@3c23d70a
	comiss	xmm0, DWORD PTR _blend$1[ebp]
	jb	SHORT $LN11@SpriteOccl

; 462  : 			return true; // faded

	mov	eax, 1
	jmp	SHORT $LN1@SpriteOccl
$LN11@SpriteOccl:

; 463  : 	}
; 464  : 	else

	jmp	SHORT $LN12@SpriteOccl
$LN2@SpriteOccl:

; 465  : 	{
; 466  : 		if( CullSpriteModel( ))

	mov	eax, DWORD PTR _this$[ebp]
	mov	edx, DWORD PTR [eax]
	mov	ecx, DWORD PTR _this$[ebp]
	mov	eax, DWORD PTR [edx+32]
	call	eax
	movzx	ecx, al
	test	ecx, ecx
	je	SHORT $LN12@SpriteOccl

; 467  : 			return true;

	mov	eax, 1
	jmp	SHORT $LN1@SpriteOccl
$LN12@SpriteOccl:

; 468  : 	}
; 469  : 
; 470  : 	return false;	

	xor	eax, eax
$LN1@SpriteOccl:

; 471  : }

	pop	edi
	pop	esi
	pop	ebx
	mov	esp, ebp
	pop	ebp
	ret	4
?SpriteOccluded@CSpriteModelRenderer@@EAEHAAM@Z ENDP	; CSpriteModelRenderer::SpriteOccluded
_TEXT	ENDS
; Function compile flags: /Odtp /ZI
; File d:\!diffusion 2020\source code 2022\client-server\client\render\r_sprite.cpp
;	COMDAT ?SpriteGlowBlend@CSpriteModelRenderer@@EAEMHHAAM@Z
_TEXT	SEGMENT
tv129 = -104						; size = 4
tv181 = -100						; size = 4
tv152 = -100						; size = 4
tv128 = -100						; size = 4
$T1 = -96						; size = 12
_dissolve$2 = -20					; size = 4
_front_dissolve$ = -16					; size = 4
_brightness$ = -12					; size = 4
_dist$ = -8						; size = 4
_this$ = -4						; size = 4
_rendermode$ = 8					; size = 4
_renderfx$ = 12						; size = 4
_scale$ = 16						; size = 4
?SpriteGlowBlend@CSpriteModelRenderer@@EAEMHHAAM@Z PROC	; CSpriteModelRenderer::SpriteGlowBlend, COMDAT
; _this$ = ecx

; 385  : {

	push	ebp
	mov	ebp, esp
	sub	esp, 104				; 00000068H
	push	ebx
	push	esi
	push	edi
	mov	DWORD PTR _this$[ebp], ecx

; 386  : 	float dist = GlowSightDistance();

	mov	eax, DWORD PTR _this$[ebp]
	mov	edx, DWORD PTR [eax]
	mov	ecx, DWORD PTR _this$[ebp]
	mov	eax, DWORD PTR [edx+36]
	call	eax
	fstp	DWORD PTR _dist$[ebp]

; 387  : 	float brightness = 1.0f;

	movss	xmm0, DWORD PTR __real@3f800000
	movss	DWORD PTR _brightness$[ebp], xmm0

; 388  : 
; 389  : 	if( dist <= 0 ) return 0.0f; // occluded

	xorps	xmm0, xmm0
	comiss	xmm0, DWORD PTR _dist$[ebp]
	jb	SHORT $LN2@SpriteGlow
	fldz
	jmp	$LN1@SpriteGlow
$LN2@SpriteGlow:

; 390  : 
; 391  : 	if( renderfx == kRenderFxNoDissipation )

	cmp	DWORD PTR _renderfx$[ebp], 14		; 0000000eH
	jne	SHORT $LN3@SpriteGlow

; 392  : 		return 1.0f;

	fld1
	jmp	$LN1@SpriteGlow
$LN3@SpriteGlow:

; 393  : 
; 394  : 	float front_dissolve = 1.0f;

	movss	xmm0, DWORD PTR __real@3f800000
	movss	DWORD PTR _front_dissolve$[ebp], xmm0

; 395  : 	if( renderfx == kRenderFxFrontDissolve )

	cmp	DWORD PTR _renderfx$[ebp], 23		; 00000017H
	jne	SHORT $LN5@SpriteGlow

; 396  : 	{
; 397  : 		// diffusion - sprite disappears when you get too close
; 398  : 		// 500 is the tuned distance...
; 399  : 		float dissolve = ((RI->currententity->origin - tr.viewparams.vieworg).Length() / 500.0f) - 0.5f;

	push	OFFSET ?tr@@3Uref_globals_t@@A+5830656
	lea	eax, DWORD PTR $T1[ebp]
	push	eax
	mov	ecx, DWORD PTR ?RI@@3PAUref_instance_t@@A ; RI
	mov	ecx, DWORD PTR [ecx+16]
	add	ecx, 2888				; 00000b48H
	call	??GVector@@QBE?AV0@ABV0@@Z		; Vector::operator-
	mov	ecx, eax
	call	?Length@Vector@@QBEMXZ			; Vector::Length
	fstp	DWORD PTR tv152[ebp]
	movss	xmm0, DWORD PTR tv152[ebp]
	divss	xmm0, DWORD PTR __real@43fa0000
	subss	xmm0, DWORD PTR __real@3f000000
	movss	DWORD PTR _dissolve$2[ebp], xmm0

; 400  : 		if( dissolve < 1.0f )

	movss	xmm0, DWORD PTR __real@3f800000
	comiss	xmm0, DWORD PTR _dissolve$2[ebp]
	jbe	SHORT $LN5@SpriteGlow

; 401  : 		{
; 402  : 			if( dissolve < 0 )

	xorps	xmm0, xmm0
	comiss	xmm0, DWORD PTR _dissolve$2[ebp]
	jbe	SHORT $LN6@SpriteGlow

; 403  : 				dissolve = 0;

	xorps	xmm0, xmm0
	movss	DWORD PTR _dissolve$2[ebp], xmm0
$LN6@SpriteGlow:

; 404  : 
; 405  : 			front_dissolve = dissolve;

	movss	xmm0, DWORD PTR _dissolve$2[ebp]
	movss	DWORD PTR _front_dissolve$[ebp], xmm0
$LN5@SpriteGlow:

; 406  : 		}
; 407  : 	}
; 408  : 
; 409  : 	scale = m_pCurrentEntity->curstate.scale; // variable sized glow

	mov	eax, DWORD PTR _this$[ebp]
	mov	ecx, DWORD PTR [eax+56]
	mov	edx, DWORD PTR _scale$[ebp]
	mov	eax, DWORD PTR [ecx+752]
	mov	DWORD PTR [edx], eax

; 410  : 
; 411  : 	// make the glow fixed size in screen space, taking into consideration the scale setting.
; 412  : 	if( scale == 0.0f )

	mov	eax, DWORD PTR _scale$[ebp]
	movss	xmm0, DWORD PTR [eax]
	ucomiss	xmm0, DWORD PTR __real@00000000
	lahf
	test	ah, 68					; 00000044H
	jp	SHORT $LN7@SpriteGlow

; 413  : 		scale = 1.0f;

	mov	eax, DWORD PTR _scale$[ebp]
	movss	xmm0, DWORD PTR __real@3f800000
	movss	DWORD PTR [eax], xmm0
$LN7@SpriteGlow:

; 414  : 
; 415  : 	if( rendermode != kRenderConstantGlow )

	cmp	DWORD PTR _rendermode$[ebp], 7
	je	SHORT $LN8@SpriteGlow

; 416  : 	{
; 417  : 		scale *= dist * (1.0f / 200.0f);

	movss	xmm0, DWORD PTR _dist$[ebp]
	mulss	xmm0, DWORD PTR __real@3ba3d70a
	mov	eax, DWORD PTR _scale$[ebp]
	mulss	xmm0, DWORD PTR [eax]
	mov	ecx, DWORD PTR _scale$[ebp]
	movss	DWORD PTR [ecx], xmm0

; 418  : 		brightness = 19000.0 / (dist * dist);

	movss	xmm0, DWORD PTR _dist$[ebp]
	mulss	xmm0, DWORD PTR _dist$[ebp]
	cvtss2sd xmm0, xmm0
	movsd	xmm1, QWORD PTR __real@40d28e0000000000
	divsd	xmm1, xmm0
	cvtsd2ss xmm0, xmm1
	movss	DWORD PTR _brightness$[ebp], xmm0
$LN8@SpriteGlow:

; 419  : 	}
; 420  : 
; 421  : 	brightness = bound( 0.1f, brightness, 1.0f );

	movss	xmm0, DWORD PTR _brightness$[ebp]
	comiss	xmm0, DWORD PTR __real@3dcccccd
	jb	SHORT $LN12@SpriteGlow
	movss	xmm0, DWORD PTR __real@3f800000
	comiss	xmm0, DWORD PTR _brightness$[ebp]
	jbe	SHORT $LN10@SpriteGlow
	movss	xmm0, DWORD PTR _brightness$[ebp]
	movss	DWORD PTR tv128[ebp], xmm0
	jmp	SHORT $LN11@SpriteGlow
$LN10@SpriteGlow:
	movss	xmm0, DWORD PTR __real@3f800000
	movss	DWORD PTR tv128[ebp], xmm0
$LN11@SpriteGlow:
	movss	xmm0, DWORD PTR tv128[ebp]
	movss	DWORD PTR tv129[ebp], xmm0
	jmp	SHORT $LN13@SpriteGlow
$LN12@SpriteGlow:
	movss	xmm0, DWORD PTR __real@3dcccccd
	movss	DWORD PTR tv129[ebp], xmm0
$LN13@SpriteGlow:
	movss	xmm0, DWORD PTR tv129[ebp]
	movss	DWORD PTR _brightness$[ebp], xmm0

; 422  : 	return brightness * front_dissolve;

	movss	xmm0, DWORD PTR _brightness$[ebp]
	mulss	xmm0, DWORD PTR _front_dissolve$[ebp]
	movss	DWORD PTR tv181[ebp], xmm0
	fld	DWORD PTR tv181[ebp]
$LN1@SpriteGlow:

; 423  : }

	pop	edi
	pop	esi
	pop	ebx
	mov	esp, ebp
	pop	ebp
	ret	12					; 0000000cH
?SpriteGlowBlend@CSpriteModelRenderer@@EAEMHHAAM@Z ENDP	; CSpriteModelRenderer::SpriteGlowBlend
_TEXT	ENDS
; Function compile flags: /Odtp /ZI
; File d:\!diffusion 2020\source code 2022\client-server\client\render\r_sprite.cpp
;	COMDAT ?GlowSightDistance@CSpriteModelRenderer@@EAEMXZ
_TEXT	SEGMENT
$T1 = -176						; size = 12
_ent$2 = -100						; size = 4
_vecStart$3 = -96					; size = 12
_ignoreent$4 = -84					; size = 4
_maxLoops$5 = -80					; size = 4
_dist$ = -76						; size = 4
_tr$ = -72						; size = 68
_this$ = -4						; size = 4
?GlowSightDistance@CSpriteModelRenderer@@EAEMXZ PROC	; CSpriteModelRenderer::GlowSightDistance, COMDAT
; _this$ = ecx

; 330  : {

	push	ebp
	mov	ebp, esp
	sub	esp, 176				; 000000b0H
	push	ebx
	push	esi
	push	edi
	mov	DWORD PTR _this$[ebp], ecx

; 331  : 	pmtrace_t	tr;

	lea	ecx, DWORD PTR _tr$[ebp]
	call	??0pmtrace_s@@QAE@XZ

; 332  : 
; 333  : 	float dist = (sprite_origin - RI->vieworg).Length();

	mov	eax, DWORD PTR ?RI@@3PAUref_instance_t@@A ; RI
	add	eax, 204				; 000000ccH
	push	eax
	lea	ecx, DWORD PTR $T1[ebp]
	push	ecx
	mov	ecx, DWORD PTR _this$[ebp]
	add	ecx, 4
	call	??GVector@@QBE?AV0@ABV0@@Z		; Vector::operator-
	mov	ecx, eax
	call	?Length@Vector@@QBEMXZ			; Vector::Length
	fstp	DWORD PTR _dist$[ebp]

; 334  : 
; 335  : 	if( !FBitSet( RI->params, RP_MIRRORVIEW ) || !FBitSet( RI->params, RP_SHADOWPASS ) )

	mov	eax, DWORD PTR ?RI@@3PAUref_instance_t@@A ; RI
	mov	ecx, DWORD PTR [eax]
	and	ecx, 1
	je	SHORT $LN5@GlowSightD
	mov	eax, DWORD PTR ?RI@@3PAUref_instance_t@@A ; RI
	mov	ecx, DWORD PTR [eax]
	and	ecx, 256				; 00000100H
	jne	$LN12@GlowSightD
$LN5@GlowSightD:

; 336  : 	{
; 337  : 		//------------------------------------------
; 338  : 		int maxLoops = 4;

	mov	DWORD PTR _maxLoops$5[ebp], 4

; 339  : 		int ignoreent = -1;	// first, ignore no entity

	mov	DWORD PTR _ignoreent$4[ebp], -1

; 340  : 		Vector vecStart = RI->vieworg;

	mov	eax, DWORD PTR ?RI@@3PAUref_instance_t@@A ; RI
	add	eax, 204				; 000000ccH
	push	eax
	lea	ecx, DWORD PTR _vecStart$3[ebp]
	call	??0Vector@@QAE@ABV0@@Z			; Vector::Vector
$LN2@GlowSightD:

; 341  : 		while( maxLoops > 0 )

	cmp	DWORD PTR _maxLoops$5[ebp], 0
	jle	$LN3@GlowSightD

; 342  : 		{
; 343  : 			gEngfuncs.pEventAPI->EV_SetTraceHull( 2 );

	push	2
	mov	eax, DWORD PTR ?gEngfuncs@@3Ucl_enginefuncs_s@@A+336
	mov	ecx, DWORD PTR [eax+56]
	call	ecx
	add	esp, 4

; 344  : 			// diffusion - PM_GLASS_IGNORE and PM_TRACELINE_PHYSENTSONLY take a lot of fps...
; 345  : 			gEngfuncs.pEventAPI->EV_PlayerTrace( vecStart, sprite_origin, PM_TRACELINE_ANYVISIBLE, ignoreent, &tr );

	lea	eax, DWORD PTR _tr$[ebp]
	push	eax
	mov	ecx, DWORD PTR _ignoreent$4[ebp]
	push	ecx
	push	1
	mov	ecx, DWORD PTR _this$[ebp]
	add	ecx, 4
	call	??BVector@@QAEPAMXZ			; Vector::operator float *
	push	eax
	lea	ecx, DWORD PTR _vecStart$3[ebp]
	call	??BVector@@QAEPAMXZ			; Vector::operator float *
	push	eax
	mov	edx, DWORD PTR ?gEngfuncs@@3Ucl_enginefuncs_s@@A+336
	mov	eax, DWORD PTR [edx+60]
	call	eax
	add	esp, 20					; 00000014H

; 346  : 			if( tr.ent > 0 )

	cmp	DWORD PTR _tr$[ebp+48], 0
	jle	SHORT $LN6@GlowSightD

; 347  : 			{
; 348  : 				cl_entity_t *ent = GET_ENTITY( PM_GetPhysEntInfo( tr.ent ) );

	mov	eax, DWORD PTR _tr$[ebp+48]
	push	eax
	call	?PM_GetPhysEntInfo@@YAHH@Z		; PM_GetPhysEntInfo
	add	esp, 4
	push	eax
	call	DWORD PTR ?gEngfuncs@@3Ucl_enginefuncs_s@@A+212
	add	esp, 4
	mov	DWORD PTR _ent$2[ebp], eax

; 349  : 				if( ent != NULL )

	cmp	DWORD PTR _ent$2[ebp], 0
	je	SHORT $LN11@GlowSightD

; 350  : 				{
; 351  : 					if( ent->curstate.rendermode == kRenderNormal )

	mov	eax, DWORD PTR _ent$2[ebp]
	cmp	DWORD PTR [eax+760], 0
	jne	SHORT $LN9@GlowSightD

; 352  : 						return 0.0f;

	fldz
	jmp	$LN1@GlowSightD
$LN9@GlowSightD:

; 353  : 
; 354  : 					if( ent->curstate.rendermode == kRenderTransTexture && ent->curstate.renderamt == 0 ) // HACKHACK invisible brush "collision"

	mov	eax, DWORD PTR _ent$2[ebp]
	cmp	DWORD PTR [eax+760], 2
	jne	SHORT $LN10@GlowSightD
	mov	eax, DWORD PTR _ent$2[ebp]
	cmp	DWORD PTR [eax+764], 0
	jne	SHORT $LN10@GlowSightD

; 355  : 						return 0.0f;

	fldz
	jmp	SHORT $LN1@GlowSightD
$LN10@GlowSightD:

; 356  : 
; 357  : 					if( ent->curstate.rendermode == kRenderTransColor && ent->curstate.renderamt == 255 )

	mov	eax, DWORD PTR _ent$2[ebp]
	cmp	DWORD PTR [eax+760], 1
	jne	SHORT $LN11@GlowSightD
	mov	eax, DWORD PTR _ent$2[ebp]
	cmp	DWORD PTR [eax+764], 255		; 000000ffH
	jne	SHORT $LN11@GlowSightD

; 358  : 						return 0.0f;

	fldz
	jmp	SHORT $LN1@GlowSightD
$LN11@GlowSightD:

; 359  : 				}
; 360  : 			}
; 361  : 			else

	jmp	SHORT $LN7@GlowSightD
$LN6@GlowSightD:

; 362  : 				break;

	jmp	SHORT $LN3@GlowSightD
$LN7@GlowSightD:

; 363  : 
; 364  : 			ignoreent = tr.ent;	// ignore last hit entity

	mov	eax, DWORD PTR _tr$[ebp+48]
	mov	DWORD PTR _ignoreent$4[ebp], eax

; 365  : 			vecStart = tr.endpos;

	mov	eax, DWORD PTR _tr$[ebp+20]
	mov	DWORD PTR _vecStart$3[ebp], eax
	mov	ecx, DWORD PTR _tr$[ebp+24]
	mov	DWORD PTR _vecStart$3[ebp+4], ecx
	mov	edx, DWORD PTR _tr$[ebp+28]
	mov	DWORD PTR _vecStart$3[ebp+8], edx

; 366  : 			maxLoops--;

	mov	eax, DWORD PTR _maxLoops$5[ebp]
	sub	eax, 1
	mov	DWORD PTR _maxLoops$5[ebp], eax

; 367  : 		}

	jmp	$LN2@GlowSightD
$LN3@GlowSightD:

; 368  : 		//------------------------------------------
; 369  : 
; 370  : 		if( (1.0f - tr.fraction) * dist > 8.0f )

	movss	xmm0, DWORD PTR __real@3f800000
	subss	xmm0, DWORD PTR _tr$[ebp+16]
	mulss	xmm0, DWORD PTR _dist$[ebp]
	comiss	xmm0, DWORD PTR __real@41000000
	jbe	SHORT $LN12@GlowSightD

; 371  : 			return 0.0f;

	fldz
	jmp	SHORT $LN1@GlowSightD
$LN12@GlowSightD:

; 372  : 	}
; 373  : 
; 374  : 	return dist;

	fld	DWORD PTR _dist$[ebp]
$LN1@GlowSightD:

; 375  : }

	pop	edi
	pop	esi
	pop	ebx
	mov	esp, ebp
	pop	ebp
	ret	0
?GlowSightDistance@CSpriteModelRenderer@@EAEMXZ ENDP	; CSpriteModelRenderer::GlowSightDistance
_TEXT	ENDS
; Function compile flags: /Odtp /ZI
; File d:\!diffusion 2020\source code 2022\client-server\client\render\r_sprite.cpp
;	COMDAT ?CullSpriteModel@CSpriteModelRenderer@@EAE_NXZ
_TEXT	SEGMENT
_this$ = -4						; size = 4
?CullSpriteModel@CSpriteModelRenderer@@EAE_NXZ PROC	; CSpriteModelRenderer::CullSpriteModel, COMDAT
; _this$ = ecx

; 310  : {

	push	ebp
	mov	ebp, esp
	sub	esp, 68					; 00000044H
	push	ebx
	push	esi
	push	edi
	mov	DWORD PTR _this$[ebp], ecx

; 311  : 	if( !m_pSpriteHeader )

	mov	eax, DWORD PTR _this$[ebp]
	cmp	DWORD PTR [eax+68], 0
	jne	SHORT $LN2@CullSprite

; 312  : 		return true;

	mov	al, 1
	jmp	SHORT $LN1@CullSprite
$LN2@CullSprite:

; 313  : 
; 314  : 	SpriteComputeBBox( m_pCurrentEntity, NULL );

	push	0
	mov	eax, DWORD PTR _this$[ebp]
	mov	ecx, DWORD PTR [eax+56]
	push	ecx
	mov	edx, DWORD PTR _this$[ebp]
	mov	eax, DWORD PTR [edx]
	mov	ecx, DWORD PTR _this$[ebp]
	mov	edx, DWORD PTR [eax+28]
	call	edx

; 315  : 
; 316  : 	if( !Mod_CheckBoxVisible( sprite_absmin, sprite_absmax ))

	mov	eax, DWORD PTR _this$[ebp]
	add	eax, 28					; 0000001cH
	push	eax
	mov	ecx, DWORD PTR _this$[ebp]
	add	ecx, 16					; 00000010H
	push	ecx
	call	?Mod_CheckBoxVisible@@YA_NABVVector@@0@Z ; Mod_CheckBoxVisible
	add	esp, 8
	movzx	edx, al
	test	edx, edx
	jne	SHORT $LN3@CullSprite

; 317  : 		return true;

	mov	al, 1
	jmp	SHORT $LN1@CullSprite
$LN3@CullSprite:

; 318  : 
; 319  : 	return R_CullModel( m_pCurrentEntity, sprite_absmin, sprite_absmax );

	mov	eax, DWORD PTR _this$[ebp]
	add	eax, 28					; 0000001cH
	push	eax
	mov	ecx, DWORD PTR _this$[ebp]
	add	ecx, 16					; 00000010H
	push	ecx
	mov	edx, DWORD PTR _this$[ebp]
	mov	eax, DWORD PTR [edx+56]
	push	eax
	call	?R_CullModel@@YA_NPAUcl_entity_s@@ABVVector@@1@Z ; R_CullModel
	add	esp, 12					; 0000000cH
$LN1@CullSprite:

; 320  : }

	pop	edi
	pop	esi
	pop	ebx
	mov	esp, ebp
	pop	ebp
	ret	0
?CullSpriteModel@CSpriteModelRenderer@@EAE_NXZ ENDP	; CSpriteModelRenderer::CullSpriteModel
_TEXT	ENDS
; Function compile flags: /Odtp /ZI
; File d:\!diffusion 2020\source code 2022\client-server\client\render\r_sprite.cpp
;	COMDAT ?SpriteComputeBBox@CSpriteModelRenderer@@EAEXPAUcl_entity_s@@QAVVector@@@Z
_TEXT	SEGMENT
tv187 = -80						; size = 4
tv168 = -80						; size = 4
tv149 = -80						; size = 4
_i$1 = -12						; size = 4
_scale$ = -8						; size = 4
_this$ = -4						; size = 4
_e$ = 8							; size = 4
_bbox$ = 12						; size = 4
?SpriteComputeBBox@CSpriteModelRenderer@@EAEXPAUcl_entity_s@@QAVVector@@@Z PROC ; CSpriteModelRenderer::SpriteComputeBBox, COMDAT
; _this$ = ecx

; 274  : {

	push	ebp
	mov	ebp, esp
	sub	esp, 80					; 00000050H
	push	ebx
	push	esi
	push	edi
	mov	DWORD PTR _this$[ebp], ecx

; 275  : 	// always compute origin first
; 276  : 	if( bbox != NULL ) SpriteComputeOrigin( e );

	cmp	DWORD PTR _bbox$[ebp], 0
	je	SHORT $LN5@SpriteComp
	mov	eax, DWORD PTR _e$[ebp]
	push	eax
	mov	ecx, DWORD PTR _this$[ebp]
	mov	edx, DWORD PTR [ecx]
	mov	ecx, DWORD PTR _this$[ebp]
	mov	eax, DWORD PTR [edx+24]
	call	eax
$LN5@SpriteComp:

; 277  : 
; 278  : 	// copy original bbox (no rotation for sprites)
; 279  : 	sprite_absmin = e->model->mins;

	mov	eax, DWORD PTR _e$[ebp]
	mov	ecx, DWORD PTR [eax+2964]
	add	ecx, 84					; 00000054H
	mov	edx, DWORD PTR _this$[ebp]
	add	edx, 16					; 00000010H
	mov	eax, DWORD PTR [ecx]
	mov	DWORD PTR [edx], eax
	mov	eax, DWORD PTR [ecx+4]
	mov	DWORD PTR [edx+4], eax
	mov	ecx, DWORD PTR [ecx+8]
	mov	DWORD PTR [edx+8], ecx

; 280  : 	sprite_absmax = e->model->maxs;

	mov	eax, DWORD PTR _e$[ebp]
	mov	ecx, DWORD PTR [eax+2964]
	add	ecx, 96					; 00000060H
	mov	edx, DWORD PTR _this$[ebp]
	add	edx, 28					; 0000001cH
	mov	eax, DWORD PTR [ecx]
	mov	DWORD PTR [edx], eax
	mov	eax, DWORD PTR [ecx+4]
	mov	DWORD PTR [edx+4], eax
	mov	ecx, DWORD PTR [ecx+8]
	mov	DWORD PTR [edx+8], ecx

; 281  : 
; 282  : 	float scale = 1.0f;

	movss	xmm0, DWORD PTR __real@3f800000
	movss	DWORD PTR _scale$[ebp], xmm0

; 283  : 
; 284  : 	if( e->curstate.scale > 0.0f )

	mov	eax, DWORD PTR _e$[ebp]
	movss	xmm0, DWORD PTR [eax+752]
	comiss	xmm0, DWORD PTR __real@00000000
	jbe	SHORT $LN6@SpriteComp

; 285  : 		scale = e->curstate.scale;

	mov	eax, DWORD PTR _e$[ebp]
	movss	xmm0, DWORD PTR [eax+752]
	movss	DWORD PTR _scale$[ebp], xmm0
$LN6@SpriteComp:

; 286  : 
; 287  : 	sprite_absmin *= scale;

	push	ecx
	movss	xmm0, DWORD PTR _scale$[ebp]
	movss	DWORD PTR [esp], xmm0
	mov	ecx, DWORD PTR _this$[ebp]
	add	ecx, 16					; 00000010H
	call	??XVector@@QAEAAV0@M@Z			; Vector::operator*=

; 288  : 	sprite_absmax *= scale;

	push	ecx
	movss	xmm0, DWORD PTR _scale$[ebp]
	movss	DWORD PTR [esp], xmm0
	mov	ecx, DWORD PTR _this$[ebp]
	add	ecx, 28					; 0000001cH
	call	??XVector@@QAEAAV0@M@Z			; Vector::operator*=

; 289  : 
; 290  : 	sprite_absmin += sprite_origin;

	mov	eax, DWORD PTR _this$[ebp]
	add	eax, 4
	push	eax
	mov	ecx, DWORD PTR _this$[ebp]
	add	ecx, 16					; 00000010H
	call	??YVector@@QAEAAV0@ABV0@@Z		; Vector::operator+=

; 291  : 	sprite_absmax += sprite_origin;

	mov	eax, DWORD PTR _this$[ebp]
	add	eax, 4
	push	eax
	mov	ecx, DWORD PTR _this$[ebp]
	add	ecx, 28					; 0000001cH
	call	??YVector@@QAEAAV0@ABV0@@Z		; Vector::operator+=

; 292  : 
; 293  : 	// compute a full bounding box
; 294  : 	for( int i = 0; bbox != NULL && i < 8; i++ )

	mov	DWORD PTR _i$1[ebp], 0
	jmp	SHORT $LN4@SpriteComp
$LN2@SpriteComp:
	mov	eax, DWORD PTR _i$1[ebp]
	add	eax, 1
	mov	DWORD PTR _i$1[ebp], eax
$LN4@SpriteComp:
	cmp	DWORD PTR _bbox$[ebp], 0
	je	$LN3@SpriteComp
	cmp	DWORD PTR _i$1[ebp], 8
	jge	$LN3@SpriteComp

; 295  : 	{
; 296  :   		bbox[i][0] = ( i & 1 ) ? sprite_absmin[0] : sprite_absmax[0];

	mov	eax, DWORD PTR _i$1[ebp]
	and	eax, 1
	je	SHORT $LN8@SpriteComp
	mov	ecx, DWORD PTR _this$[ebp]
	add	ecx, 16					; 00000010H
	call	??BVector@@QAEPAMXZ			; Vector::operator float *
	mov	ecx, 4
	imul	edx, ecx, 0
	movss	xmm0, DWORD PTR [eax+edx]
	movss	DWORD PTR tv149[ebp], xmm0
	jmp	SHORT $LN9@SpriteComp
$LN8@SpriteComp:
	mov	ecx, DWORD PTR _this$[ebp]
	add	ecx, 28					; 0000001cH
	call	??BVector@@QAEPAMXZ			; Vector::operator float *
	mov	ecx, 4
	imul	edx, ecx, 0
	movss	xmm0, DWORD PTR [eax+edx]
	movss	DWORD PTR tv149[ebp], xmm0
$LN9@SpriteComp:
	imul	ecx, DWORD PTR _i$1[ebp], 12
	add	ecx, DWORD PTR _bbox$[ebp]
	call	??BVector@@QAEPAMXZ			; Vector::operator float *
	mov	ecx, 4
	imul	edx, ecx, 0
	movss	xmm0, DWORD PTR tv149[ebp]
	movss	DWORD PTR [eax+edx], xmm0

; 297  :   		bbox[i][1] = ( i & 2 ) ? sprite_absmin[1] : sprite_absmax[1];

	mov	eax, DWORD PTR _i$1[ebp]
	and	eax, 2
	je	SHORT $LN10@SpriteComp
	mov	ecx, DWORD PTR _this$[ebp]
	add	ecx, 16					; 00000010H
	call	??BVector@@QAEPAMXZ			; Vector::operator float *
	mov	ecx, 4
	shl	ecx, 0
	movss	xmm0, DWORD PTR [eax+ecx]
	movss	DWORD PTR tv168[ebp], xmm0
	jmp	SHORT $LN11@SpriteComp
$LN10@SpriteComp:
	mov	ecx, DWORD PTR _this$[ebp]
	add	ecx, 28					; 0000001cH
	call	??BVector@@QAEPAMXZ			; Vector::operator float *
	mov	edx, 4
	shl	edx, 0
	movss	xmm0, DWORD PTR [eax+edx]
	movss	DWORD PTR tv168[ebp], xmm0
$LN11@SpriteComp:
	imul	ecx, DWORD PTR _i$1[ebp], 12
	add	ecx, DWORD PTR _bbox$[ebp]
	call	??BVector@@QAEPAMXZ			; Vector::operator float *
	mov	ecx, 4
	shl	ecx, 0
	movss	xmm0, DWORD PTR tv168[ebp]
	movss	DWORD PTR [eax+ecx], xmm0

; 298  :   		bbox[i][2] = ( i & 4 ) ? sprite_absmin[2] : sprite_absmax[2];

	mov	eax, DWORD PTR _i$1[ebp]
	and	eax, 4
	je	SHORT $LN12@SpriteComp
	mov	ecx, DWORD PTR _this$[ebp]
	add	ecx, 16					; 00000010H
	call	??BVector@@QAEPAMXZ			; Vector::operator float *
	mov	ecx, 4
	shl	ecx, 1
	movss	xmm0, DWORD PTR [eax+ecx]
	movss	DWORD PTR tv187[ebp], xmm0
	jmp	SHORT $LN13@SpriteComp
$LN12@SpriteComp:
	mov	ecx, DWORD PTR _this$[ebp]
	add	ecx, 28					; 0000001cH
	call	??BVector@@QAEPAMXZ			; Vector::operator float *
	mov	edx, 4
	shl	edx, 1
	movss	xmm0, DWORD PTR [eax+edx]
	movss	DWORD PTR tv187[ebp], xmm0
$LN13@SpriteComp:
	imul	ecx, DWORD PTR _i$1[ebp], 12
	add	ecx, DWORD PTR _bbox$[ebp]
	call	??BVector@@QAEPAMXZ			; Vector::operator float *
	mov	ecx, 4
	shl	ecx, 1
	movss	xmm0, DWORD PTR tv187[ebp]
	movss	DWORD PTR [eax+ecx], xmm0

; 299  : 	}

	jmp	$LN2@SpriteComp
$LN3@SpriteComp:

; 300  : }

	pop	edi
	pop	esi
	pop	ebx
	mov	esp, ebp
	pop	ebp
	ret	8
?SpriteComputeBBox@CSpriteModelRenderer@@EAEXPAUcl_entity_s@@QAVVector@@@Z ENDP ; CSpriteModelRenderer::SpriteComputeBBox
_TEXT	ENDS
; Function compile flags: /Odtp /ZI
; File d:\!diffusion 2020\source code 2022\client-server\client\render\r_sprite.cpp
;	COMDAT ?SpriteComputeOrigin@CSpriteModelRenderer@@EAEXPAUcl_entity_s@@@Z
_TEXT	SEGMENT
tv131 = -96						; size = 4
tv130 = -92						; size = 4
$T1 = -88						; size = 12
_num$2 = -12						; size = 4
_parent$3 = -8						; size = 4
_this$ = -4						; size = 4
_e$ = 8							; size = 4
?SpriteComputeOrigin@CSpriteModelRenderer@@EAEXPAUcl_entity_s@@@Z PROC ; CSpriteModelRenderer::SpriteComputeOrigin, COMDAT
; _this$ = ecx

; 235  : {

	push	ebp
	mov	ebp, esp
	sub	esp, 96					; 00000060H
	push	ebx
	push	esi
	push	edi
	mov	DWORD PTR _this$[ebp], ecx

; 236  : 	sprite_origin = e->origin; // set render origin

	mov	eax, DWORD PTR _e$[ebp]
	add	eax, 2888				; 00000b48H
	mov	ecx, DWORD PTR _this$[ebp]
	add	ecx, 4
	mov	edx, DWORD PTR [eax]
	mov	DWORD PTR [ecx], edx
	mov	edx, DWORD PTR [eax+4]
	mov	DWORD PTR [ecx+4], edx
	mov	eax, DWORD PTR [eax+8]
	mov	DWORD PTR [ecx+8], eax

; 237  : 
; 238  : 	// link sprite with parent (if present)
; 239  : 	if( e->curstate.movetype == MOVETYPE_FOLLOW )

	mov	eax, DWORD PTR _e$[ebp]
	cmp	DWORD PTR [eax+776], 12			; 0000000cH
	jne	$LN2@SpriteComp

; 240  : 	{
; 241  : 		cl_entity_t *parent;
; 242  : 		
; 243  : 		if( e->curstate.aiment == -1 ) // diffusion - HACKHACK for viewmodel

	mov	eax, DWORD PTR _e$[ebp]
	cmp	DWORD PTR [eax+836], -1
	jne	SHORT $LN3@SpriteComp

; 244  : 			parent = GET_VIEWMODEL();

	call	DWORD PTR ?gEngfuncs@@3Ucl_enginefuncs_s@@A+208
	mov	DWORD PTR _parent$3[ebp], eax
	jmp	SHORT $LN4@SpriteComp
$LN3@SpriteComp:

; 245  : 		else if( e->curstate.aiment > 0 )

	mov	eax, DWORD PTR _e$[ebp]
	cmp	DWORD PTR [eax+836], 0
	jle	SHORT $LN4@SpriteComp

; 246  : 			parent = GET_ENTITY( e->curstate.aiment );

	mov	eax, DWORD PTR _e$[ebp]
	mov	ecx, DWORD PTR [eax+836]
	push	ecx
	call	DWORD PTR ?gEngfuncs@@3Ucl_enginefuncs_s@@A+212
	add	esp, 4
	mov	DWORD PTR _parent$3[ebp], eax
$LN4@SpriteComp:

; 247  : 
; 248  : 		if( parent )

	cmp	DWORD PTR _parent$3[ebp], 0
	je	$LN2@SpriteComp

; 249  : 		{
; 250  : 			if( parent->model )

	mov	eax, DWORD PTR _parent$3[ebp]
	cmp	DWORD PTR [eax+2964], 0
	je	$LN2@SpriteComp

; 251  : 			{
; 252  : 				if( parent->model->type == mod_studio && e->curstate.body > 0 )

	mov	eax, DWORD PTR _parent$3[ebp]
	mov	ecx, DWORD PTR [eax+2964]
	cmp	DWORD PTR [ecx+68], 3
	jne	SHORT $LN8@SpriteComp
	mov	eax, DWORD PTR _e$[ebp]
	cmp	DWORD PTR [eax+788], 0
	jle	SHORT $LN8@SpriteComp

; 253  : 				{
; 254  : 					int num = bound( 1, e->curstate.body, MAXSTUDIOATTACHMENTS );

	mov	eax, DWORD PTR _e$[ebp]
	cmp	DWORD PTR [eax+788], 1
	jl	SHORT $LN13@SpriteComp
	mov	ecx, DWORD PTR _e$[ebp]
	cmp	DWORD PTR [ecx+788], 64			; 00000040H
	jge	SHORT $LN11@SpriteComp
	mov	edx, DWORD PTR _e$[ebp]
	mov	eax, DWORD PTR [edx+788]
	mov	DWORD PTR tv130[ebp], eax
	jmp	SHORT $LN12@SpriteComp
$LN11@SpriteComp:
	mov	DWORD PTR tv130[ebp], 64		; 00000040H
$LN12@SpriteComp:
	mov	ecx, DWORD PTR tv130[ebp]
	mov	DWORD PTR tv131[ebp], ecx
	jmp	SHORT $LN14@SpriteComp
$LN13@SpriteComp:
	mov	DWORD PTR tv131[ebp], 1
$LN14@SpriteComp:
	mov	edx, DWORD PTR tv131[ebp]
	mov	DWORD PTR _num$2[ebp], edx

; 255  : 					sprite_origin = R_StudioAttachmentOrigin( parent, num - 1 );

	push	0
	mov	eax, DWORD PTR _num$2[ebp]
	sub	eax, 1
	push	eax
	mov	ecx, DWORD PTR _parent$3[ebp]
	push	ecx
	lea	edx, DWORD PTR $T1[ebp]
	push	edx
	call	?R_StudioAttachmentOrigin@@YA?AVVector@@PBUcl_entity_s@@HH@Z ; R_StudioAttachmentOrigin
	add	esp, 16					; 00000010H
	mov	ecx, DWORD PTR _this$[ebp]
	add	ecx, 4
	mov	edx, DWORD PTR [eax]
	mov	DWORD PTR [ecx], edx
	mov	edx, DWORD PTR [eax+4]
	mov	DWORD PTR [ecx+4], edx
	mov	eax, DWORD PTR [eax+8]
	mov	DWORD PTR [ecx+8], eax

; 256  : 				}
; 257  : 				else

	jmp	SHORT $LN2@SpriteComp
$LN8@SpriteComp:

; 258  : 					sprite_origin = parent->origin;

	mov	eax, DWORD PTR _parent$3[ebp]
	add	eax, 2888				; 00000b48H
	mov	ecx, DWORD PTR _this$[ebp]
	add	ecx, 4
	mov	edx, DWORD PTR [eax]
	mov	DWORD PTR [ecx], edx
	mov	edx, DWORD PTR [eax+4]
	mov	DWORD PTR [ecx+4], edx
	mov	eax, DWORD PTR [eax+8]
	mov	DWORD PTR [ecx+8], eax
$LN2@SpriteComp:

; 259  : 			}
; 260  : 		}
; 261  : 	}
; 262  : 
; 263  : 	tr.modelorg = sprite_origin;

	mov	eax, DWORD PTR _this$[ebp]
	add	eax, 4
	mov	ecx, DWORD PTR [eax]
	mov	DWORD PTR ?tr@@3Uref_globals_t@@A+5852544, ecx
	mov	edx, DWORD PTR [eax+4]
	mov	DWORD PTR ?tr@@3Uref_globals_t@@A+5852548, edx
	mov	eax, DWORD PTR [eax+8]
	mov	DWORD PTR ?tr@@3Uref_globals_t@@A+5852552, eax

; 264  : }

	pop	edi
	pop	esi
	pop	ebx
	mov	esp, ebp
	pop	ebp
	ret	4
?SpriteComputeOrigin@CSpriteModelRenderer@@EAEXPAUcl_entity_s@@@Z ENDP ; CSpriteModelRenderer::SpriteComputeOrigin
_TEXT	ENDS
; Function compile flags: /Odtp /ZI
; File d:\!diffusion 2020\source code 2022\client-server\client\render\r_sprite.cpp
;	COMDAT ?GetSpriteFrameInterpolant@CSpriteModelRenderer@@EAEMPAPAUmspriteframe_s@@0@Z
_TEXT	SEGMENT
tv242 = -136						; size = 4
tv241 = -132						; size = 4
tv134 = -132						; size = 4
tv71 = -129						; size = 1
_jtime$1 = -64						; size = 4
_jinterval$2 = -60					; size = 4
_targettime$3 = -56					; size = 4
_fullinterval$4 = -52					; size = 4
_pintervals$5 = -48					; size = 4
_pspritegroup$6 = -44					; size = 4
_newf$ = -40						; size = 4
_oldf$ = -36						; size = 4
_iframe$ = -32						; size = 4
_j$ = -28						; size = 4
_i$ = -24						; size = 4
_frametime$ = -20					; size = 4
_frame$ = -16						; size = 4
_lerpFrac$ = -12					; size = 4
_framerate$ = -8					; size = 4
_this$ = -4						; size = 4
_oldframe$ = 8						; size = 4
_curframe$ = 12						; size = 4
?GetSpriteFrameInterpolant@CSpriteModelRenderer@@EAEMPAPAUmspriteframe_s@@0@Z PROC ; CSpriteModelRenderer::GetSpriteFrameInterpolant, COMDAT
; _this$ = ecx

; 127  : {

	push	ebp
	mov	ebp, esp
	sub	esp, 136				; 00000088H
	push	ebx
	push	esi
	push	edi
	mov	DWORD PTR _this$[ebp], ecx

; 128  : 	float framerate = 10.0f;

	movss	xmm0, DWORD PTR __real@41200000
	movss	DWORD PTR _framerate$[ebp], xmm0

; 129  : 	float lerpFrac = 0.0f, frame;

	xorps	xmm0, xmm0
	movss	DWORD PTR _lerpFrac$[ebp], xmm0

; 130  : 	float frametime = (1.0f / framerate); // 10 fps as default

	movss	xmm0, DWORD PTR __real@3f800000
	divss	xmm0, DWORD PTR _framerate$[ebp]
	movss	DWORD PTR _frametime$[ebp], xmm0

; 131  : 	int	i, j, iframe, oldf, newf;
; 132  : 
; 133  : 	// misc info
; 134  : 	m_fDoInterp = FBitSet( m_pCurrentEntity->curstate.effects, EF_NOINTERP ) ? false : true;

	mov	eax, DWORD PTR _this$[ebp]
	mov	ecx, DWORD PTR [eax+56]
	mov	edx, DWORD PTR [ecx+748]
	and	edx, 32					; 00000020H
	je	SHORT $LN23@GetSpriteF
	mov	BYTE PTR tv71[ebp], 0
	jmp	SHORT $LN24@GetSpriteF
$LN23@GetSpriteF:
	mov	BYTE PTR tv71[ebp], 1
$LN24@GetSpriteF:
	movzx	eax, BYTE PTR tv71[ebp]
	mov	ecx, DWORD PTR _this$[ebp]
	mov	DWORD PTR [ecx+40], eax

; 135  : 
; 136  : 	if( !m_fDoInterp || m_pCurrentEntity->curstate.framerate < 0.0f )

	mov	eax, DWORD PTR _this$[ebp]
	cmp	DWORD PTR [eax+40], 0
	je	SHORT $LN6@GetSpriteF
	mov	eax, DWORD PTR _this$[ebp]
	mov	ecx, DWORD PTR [eax+56]
	xorps	xmm0, xmm0
	comiss	xmm0, DWORD PTR [ecx+784]
	jbe	SHORT $LN5@GetSpriteF
$LN6@GetSpriteF:

; 137  : 	{
; 138  : 		// interpolation disabled for some reasons
; 139  : 		*oldframe = *curframe = GetSpriteFrame( m_pCurrentEntity->curstate.frame, m_pCurrentEntity->angles[YAW] );

	mov	eax, DWORD PTR _this$[ebp]
	mov	ecx, DWORD PTR [eax+56]
	add	ecx, 2900				; 00000b54H
	call	??BVector@@QAEPAMXZ			; Vector::operator float *
	mov	ecx, 4
	shl	ecx, 0
	push	ecx
	movss	xmm0, DWORD PTR [eax+ecx]
	movss	DWORD PTR [esp], xmm0
	mov	edx, DWORD PTR _this$[ebp]
	mov	eax, DWORD PTR [edx+56]
	cvttss2si ecx, DWORD PTR [eax+736]
	push	ecx
	mov	edx, DWORD PTR _this$[ebp]
	mov	eax, DWORD PTR [edx]
	mov	ecx, DWORD PTR _this$[ebp]
	mov	edx, DWORD PTR [eax+16]
	call	edx
	mov	ecx, DWORD PTR _curframe$[ebp]
	mov	DWORD PTR [ecx], eax
	mov	edx, DWORD PTR _oldframe$[ebp]
	mov	eax, DWORD PTR _curframe$[ebp]
	mov	ecx, DWORD PTR [eax]
	mov	DWORD PTR [edx], ecx

; 140  : 		return lerpFrac;

	fld	DWORD PTR _lerpFrac$[ebp]
	jmp	$LN1@GetSpriteF
$LN5@GetSpriteF:

; 141  : 	}
; 142  : 
; 143  : 	frame = Q_max( 0.0f, m_pCurrentEntity->curstate.frame );

	mov	eax, DWORD PTR _this$[ebp]
	mov	ecx, DWORD PTR [eax+56]
	xorps	xmm0, xmm0
	comiss	xmm0, DWORD PTR [ecx+736]
	jbe	SHORT $LN25@GetSpriteF
	xorps	xmm0, xmm0
	movss	DWORD PTR tv134[ebp], xmm0
	jmp	SHORT $LN26@GetSpriteF
$LN25@GetSpriteF:
	mov	edx, DWORD PTR _this$[ebp]
	mov	eax, DWORD PTR [edx+56]
	movss	xmm0, DWORD PTR [eax+736]
	movss	DWORD PTR tv134[ebp], xmm0
$LN26@GetSpriteF:
	movss	xmm0, DWORD PTR tv134[ebp]
	movss	DWORD PTR _frame$[ebp], xmm0

; 144  : 	iframe = (int)m_pCurrentEntity->curstate.frame;

	mov	eax, DWORD PTR _this$[ebp]
	mov	ecx, DWORD PTR [eax+56]
	cvttss2si edx, DWORD PTR [ecx+736]
	mov	DWORD PTR _iframe$[ebp], edx

; 145  : 
; 146  : 	if( m_pCurrentEntity->curstate.framerate > 0.0f )

	mov	eax, DWORD PTR _this$[ebp]
	mov	ecx, DWORD PTR [eax+56]
	movss	xmm0, DWORD PTR [ecx+784]
	comiss	xmm0, DWORD PTR __real@00000000
	jbe	SHORT $LN7@GetSpriteF

; 147  : 	{
; 148  : 		frametime = (1.0f / m_pCurrentEntity->curstate.framerate);

	mov	eax, DWORD PTR _this$[ebp]
	mov	ecx, DWORD PTR [eax+56]
	movss	xmm0, DWORD PTR __real@3f800000
	divss	xmm0, DWORD PTR [ecx+784]
	movss	DWORD PTR _frametime$[ebp], xmm0

; 149  : 		framerate = m_pCurrentEntity->curstate.framerate;

	mov	eax, DWORD PTR _this$[ebp]
	mov	ecx, DWORD PTR [eax+56]
	movss	xmm0, DWORD PTR [ecx+784]
	movss	DWORD PTR _framerate$[ebp], xmm0
$LN7@GetSpriteF:

; 150  : 	}
; 151  : 
; 152  : 	if( iframe < 0 )

	cmp	DWORD PTR _iframe$[ebp], 0
	jge	SHORT $LN8@GetSpriteF

; 153  : 	{
; 154  : 		iframe = 0;

	mov	DWORD PTR _iframe$[ebp], 0
	jmp	SHORT $LN10@GetSpriteF
$LN8@GetSpriteF:

; 155  : 	}
; 156  : 	else if( iframe >= m_pSpriteHeader->numframes )

	mov	eax, DWORD PTR _this$[ebp]
	mov	ecx, DWORD PTR [eax+68]
	mov	edx, DWORD PTR _iframe$[ebp]
	cmp	edx, DWORD PTR [ecx+12]
	jl	SHORT $LN10@GetSpriteF

; 157  : 	{
; 158  : 		ALERT( at_warning, "R_GetSpriteFrameInterpolant: no such frame %d (%s)\n", frame, m_pRenderModel->name );

	mov	eax, DWORD PTR _this$[ebp]
	mov	ecx, DWORD PTR [eax+60]
	push	ecx
	cvtss2sd xmm0, DWORD PTR _frame$[ebp]
	sub	esp, 8
	movsd	QWORD PTR [esp], xmm0
	push	OFFSET ??_C@_0DE@GDAPIOJM@R_GetSpriteFrameInterpolant?3?5no?5@
	push	3
	call	?ALERT@@YAXW4ALERT_TYPE@@PADZZ		; ALERT
	add	esp, 20					; 00000014H

; 159  : 		iframe = m_pSpriteHeader->numframes - 1;

	mov	eax, DWORD PTR _this$[ebp]
	mov	ecx, DWORD PTR [eax+68]
	mov	edx, DWORD PTR [ecx+12]
	sub	edx, 1
	mov	DWORD PTR _iframe$[ebp], edx
$LN10@GetSpriteF:

; 160  : 	}
; 161  : 
; 162  : 	// calc interpolant range
; 163  : 	oldf = (int)Q_floor( frame - 0.5 );

	cvtss2sd xmm0, DWORD PTR _frame$[ebp]
	subsd	xmm0, QWORD PTR __real@3fe0000000000000
	cvttsd2si eax, xmm0
	cvtsi2ss xmm0, eax
	cvttss2si ecx, xmm0
	mov	DWORD PTR _oldf$[ebp], ecx

; 164  : 	newf = (int)Q_ceil( frame - 0.5 );

	cvtss2sd xmm0, DWORD PTR _frame$[ebp]
	subsd	xmm0, QWORD PTR __real@3fe0000000000000
	addsd	xmm0, QWORD PTR __real@3ff0000000000000
	cvttsd2si eax, xmm0
	cvtsi2ss xmm0, eax
	cvttss2si ecx, xmm0
	mov	DWORD PTR _newf$[ebp], ecx

; 165  : 
; 166  : 	// FIXME: allow interp between first and last frame
; 167  : 	oldf = oldf % ( m_pSpriteHeader->numframes - 1 );

	mov	eax, DWORD PTR _this$[ebp]
	mov	ecx, DWORD PTR [eax+68]
	mov	ecx, DWORD PTR [ecx+12]
	sub	ecx, 1
	mov	eax, DWORD PTR _oldf$[ebp]
	cdq
	idiv	ecx
	mov	DWORD PTR _oldf$[ebp], edx

; 168  : 	newf = newf % ( m_pSpriteHeader->numframes + 1 );

	mov	eax, DWORD PTR _this$[ebp]
	mov	ecx, DWORD PTR [eax+68]
	mov	ecx, DWORD PTR [ecx+12]
	add	ecx, 1
	mov	eax, DWORD PTR _newf$[ebp]
	cdq
	idiv	ecx
	mov	DWORD PTR _newf$[ebp], edx

; 169  : 
; 170  : 	// NOTE: we allow interpolation between single and angled frames e.g. for Doom monsters
; 171  : 	if( m_pSpriteHeader->frames[iframe].type == FRAME_SINGLE || m_pSpriteHeader->frames[iframe].type == FRAME_ANGLED )

	mov	eax, DWORD PTR _this$[ebp]
	mov	ecx, DWORD PTR [eax+68]
	mov	edx, DWORD PTR _iframe$[ebp]
	cmp	DWORD PTR [ecx+edx*8+28], 0
	je	SHORT $LN13@GetSpriteF
	mov	eax, DWORD PTR _this$[ebp]
	mov	ecx, DWORD PTR [eax+68]
	mov	edx, DWORD PTR _iframe$[ebp]
	cmp	DWORD PTR [ecx+edx*8+28], 2
	jne	$LN11@GetSpriteF
$LN13@GetSpriteF:

; 172  : 	{
; 173  : 		// frame was changed
; 174  : 		if( newf != m_pCurrentEntity->latched.prevframe )

	cvtsi2ss xmm0, DWORD PTR _newf$[ebp]
	mov	eax, DWORD PTR _this$[ebp]
	mov	ecx, DWORD PTR [eax+56]
	ucomiss	xmm0, DWORD PTR [ecx+2872]
	lahf
	test	ah, 68					; 00000044H
	jnp	SHORT $LN14@GetSpriteF

; 175  : 		{
; 176  : 			m_pCurrentEntity->latched.prevanimtime = tr.time + frametime;

	cvtss2sd xmm0, DWORD PTR _frametime$[ebp]
	addsd	xmm0, QWORD PTR ?tr@@3Uref_globals_t@@A+8
	cvtsd2ss xmm0, xmm0
	mov	eax, DWORD PTR _this$[ebp]
	mov	ecx, DWORD PTR [eax+56]
	movss	DWORD PTR [ecx+2832], xmm0

; 177  : 			m_pCurrentEntity->latched.prevframe = newf;

	cvtsi2ss xmm0, DWORD PTR _newf$[ebp]
	mov	eax, DWORD PTR _this$[ebp]
	mov	ecx, DWORD PTR [eax+56]
	movss	DWORD PTR [ecx+2872], xmm0

; 178  : 			lerpFrac = 0.0f; // reset lerp

	xorps	xmm0, xmm0
	movss	DWORD PTR _lerpFrac$[ebp], xmm0
$LN14@GetSpriteF:

; 179  : 		}
; 180  :                               
; 181  : 		if( m_pCurrentEntity->latched.prevanimtime != 0.0f && m_pCurrentEntity->latched.prevanimtime >= tr.time )

	mov	eax, DWORD PTR _this$[ebp]
	mov	ecx, DWORD PTR [eax+56]
	movss	xmm0, DWORD PTR [ecx+2832]
	ucomiss	xmm0, DWORD PTR __real@00000000
	lahf
	test	ah, 68					; 00000044H
	jnp	SHORT $LN15@GetSpriteF
	mov	eax, DWORD PTR _this$[ebp]
	mov	ecx, DWORD PTR [eax+56]
	cvtss2sd xmm0, DWORD PTR [ecx+2832]
	comisd	xmm0, QWORD PTR ?tr@@3Uref_globals_t@@A+8
	jb	SHORT $LN15@GetSpriteF

; 182  : 			lerpFrac = (m_pCurrentEntity->latched.prevanimtime - tr.time) * framerate;

	mov	eax, DWORD PTR _this$[ebp]
	mov	ecx, DWORD PTR [eax+56]
	cvtss2sd xmm0, DWORD PTR [ecx+2832]
	subsd	xmm0, QWORD PTR ?tr@@3Uref_globals_t@@A+8
	cvtss2sd xmm1, DWORD PTR _framerate$[ebp]
	mulsd	xmm0, xmm1
	cvtsd2ss xmm0, xmm0
	movss	DWORD PTR _lerpFrac$[ebp], xmm0
$LN15@GetSpriteF:

; 183  : 
; 184  : 		// compute lerp factor
; 185  : 		lerpFrac = (int)(10000 * lerpFrac) / 10000.0f;

	movss	xmm0, DWORD PTR __real@461c4000
	mulss	xmm0, DWORD PTR _lerpFrac$[ebp]
	cvttss2si eax, xmm0
	cvtsi2ss xmm0, eax
	divss	xmm0, DWORD PTR __real@461c4000
	movss	DWORD PTR _lerpFrac$[ebp], xmm0

; 186  : 		lerpFrac = bound( 0.0f, 1.0f - lerpFrac, 1.0f );

	movss	xmm0, DWORD PTR __real@3f800000
	subss	xmm0, DWORD PTR _lerpFrac$[ebp]
	comiss	xmm0, DWORD PTR __real@00000000
	jb	SHORT $LN29@GetSpriteF
	movss	xmm0, DWORD PTR __real@3f800000
	subss	xmm0, DWORD PTR _lerpFrac$[ebp]
	movss	xmm1, DWORD PTR __real@3f800000
	comiss	xmm1, xmm0
	jbe	SHORT $LN27@GetSpriteF
	movss	xmm0, DWORD PTR __real@3f800000
	subss	xmm0, DWORD PTR _lerpFrac$[ebp]
	movss	DWORD PTR tv241[ebp], xmm0
	jmp	SHORT $LN28@GetSpriteF
$LN27@GetSpriteF:
	movss	xmm0, DWORD PTR __real@3f800000
	movss	DWORD PTR tv241[ebp], xmm0
$LN28@GetSpriteF:
	movss	xmm0, DWORD PTR tv241[ebp]
	movss	DWORD PTR tv242[ebp], xmm0
	jmp	SHORT $LN30@GetSpriteF
$LN29@GetSpriteF:
	xorps	xmm0, xmm0
	movss	DWORD PTR tv242[ebp], xmm0
$LN30@GetSpriteF:
	movss	xmm0, DWORD PTR tv242[ebp]
	movss	DWORD PTR _lerpFrac$[ebp], xmm0

; 187  : 
; 188  : 		// get the interpolated frames
; 189  : 		if( oldframe ) *oldframe = GetSpriteFrame( oldf, m_pCurrentEntity->angles[YAW] );

	cmp	DWORD PTR _oldframe$[ebp], 0
	je	SHORT $LN16@GetSpriteF
	mov	eax, DWORD PTR _this$[ebp]
	mov	ecx, DWORD PTR [eax+56]
	add	ecx, 2900				; 00000b54H
	call	??BVector@@QAEPAMXZ			; Vector::operator float *
	mov	ecx, 4
	shl	ecx, 0
	push	ecx
	movss	xmm0, DWORD PTR [eax+ecx]
	movss	DWORD PTR [esp], xmm0
	mov	edx, DWORD PTR _oldf$[ebp]
	push	edx
	mov	eax, DWORD PTR _this$[ebp]
	mov	edx, DWORD PTR [eax]
	mov	ecx, DWORD PTR _this$[ebp]
	mov	eax, DWORD PTR [edx+16]
	call	eax
	mov	ecx, DWORD PTR _oldframe$[ebp]
	mov	DWORD PTR [ecx], eax
$LN16@GetSpriteF:

; 190  : 		if( curframe ) *curframe = GetSpriteFrame( newf, m_pCurrentEntity->angles[YAW] );

	cmp	DWORD PTR _curframe$[ebp], 0
	je	SHORT $LN17@GetSpriteF
	mov	eax, DWORD PTR _this$[ebp]
	mov	ecx, DWORD PTR [eax+56]
	add	ecx, 2900				; 00000b54H
	call	??BVector@@QAEPAMXZ			; Vector::operator float *
	mov	ecx, 4
	shl	ecx, 0
	push	ecx
	movss	xmm0, DWORD PTR [eax+ecx]
	movss	DWORD PTR [esp], xmm0
	mov	edx, DWORD PTR _newf$[ebp]
	push	edx
	mov	eax, DWORD PTR _this$[ebp]
	mov	edx, DWORD PTR [eax]
	mov	ecx, DWORD PTR _this$[ebp]
	mov	eax, DWORD PTR [edx+16]
	call	eax
	mov	ecx, DWORD PTR _curframe$[ebp]
	mov	DWORD PTR [ecx], eax
$LN17@GetSpriteF:

; 191  : 	}

	jmp	$LN21@GetSpriteF
$LN11@GetSpriteF:

; 192  : 	else if( m_pSpriteHeader->frames[iframe].type == FRAME_GROUP ) 

	mov	eax, DWORD PTR _this$[ebp]
	mov	ecx, DWORD PTR [eax+68]
	mov	edx, DWORD PTR _iframe$[ebp]
	cmp	DWORD PTR [ecx+edx*8+28], 1
	jne	$LN21@GetSpriteF

; 193  : 	{
; 194  : 		mspritegroup_t	*pspritegroup = (mspritegroup_t *)m_pSpriteHeader->frames[iframe].frameptr;

	mov	eax, DWORD PTR _this$[ebp]
	mov	ecx, DWORD PTR [eax+68]
	mov	edx, DWORD PTR _iframe$[ebp]
	mov	eax, DWORD PTR [ecx+edx*8+32]
	mov	DWORD PTR _pspritegroup$6[ebp], eax

; 195  : 		float		*pintervals = pspritegroup->intervals;

	mov	eax, DWORD PTR _pspritegroup$6[ebp]
	mov	ecx, DWORD PTR [eax+4]
	mov	DWORD PTR _pintervals$5[ebp], ecx

; 196  : 		float		fullinterval, targettime, jinterval;
; 197  : 		float		jtime = 0.0f;

	xorps	xmm0, xmm0
	movss	DWORD PTR _jtime$1[ebp], xmm0

; 198  : 
; 199  : 		fullinterval = pintervals[pspritegroup->numframes-1];

	mov	eax, DWORD PTR _pspritegroup$6[ebp]
	mov	ecx, DWORD PTR [eax]
	mov	edx, DWORD PTR _pintervals$5[ebp]
	movss	xmm0, DWORD PTR [edx+ecx*4-4]
	movss	DWORD PTR _fullinterval$4[ebp], xmm0

; 200  : 		jinterval = pintervals[1] - pintervals[0];

	mov	eax, 4
	shl	eax, 0
	mov	ecx, 4
	imul	edx, ecx, 0
	mov	ecx, DWORD PTR _pintervals$5[ebp]
	mov	esi, DWORD PTR _pintervals$5[ebp]
	movss	xmm0, DWORD PTR [ecx+eax]
	subss	xmm0, DWORD PTR [esi+edx]
	movss	DWORD PTR _jinterval$2[ebp], xmm0

; 201  : 
; 202  : 		// when loading in Mod_LoadSpriteGroup, we guaranteed all interval values
; 203  : 		// are positive, so we don't have to worry about division by zero
; 204  : 		targettime = tr.time - ((int)( tr.time / fullinterval )) * fullinterval;

	cvtss2sd xmm0, DWORD PTR _fullinterval$4[ebp]
	movsd	xmm1, QWORD PTR ?tr@@3Uref_globals_t@@A+8
	divsd	xmm1, xmm0
	cvttsd2si eax, xmm1
	cvtsi2ss xmm0, eax
	mulss	xmm0, DWORD PTR _fullinterval$4[ebp]
	cvtss2sd xmm0, xmm0
	movsd	xmm1, QWORD PTR ?tr@@3Uref_globals_t@@A+8
	subsd	xmm1, xmm0
	cvtsd2ss xmm0, xmm1
	movss	DWORD PTR _targettime$3[ebp], xmm0

; 205  : 
; 206  : 		// LordHavoc: since I can't measure the time properly when it loops from numframes - 1 to 0,
; 207  : 		// i instead measure the time of the first frame, hoping it is consistent
; 208  : 		for( i = 0, j = (pspritegroup->numframes - 1); i < (pspritegroup->numframes - 1); i++ )

	mov	DWORD PTR _i$[ebp], 0
	mov	eax, DWORD PTR _pspritegroup$6[ebp]
	mov	ecx, DWORD PTR [eax]
	sub	ecx, 1
	mov	DWORD PTR _j$[ebp], ecx
	jmp	SHORT $LN4@GetSpriteF
$LN2@GetSpriteF:
	mov	eax, DWORD PTR _i$[ebp]
	add	eax, 1
	mov	DWORD PTR _i$[ebp], eax
$LN4@GetSpriteF:
	mov	eax, DWORD PTR _pspritegroup$6[ebp]
	mov	ecx, DWORD PTR [eax]
	sub	ecx, 1
	cmp	DWORD PTR _i$[ebp], ecx
	jge	SHORT $LN3@GetSpriteF

; 209  : 		{
; 210  : 			if( pintervals[i] > targettime )

	mov	eax, DWORD PTR _i$[ebp]
	mov	ecx, DWORD PTR _pintervals$5[ebp]
	movss	xmm0, DWORD PTR [ecx+eax*4]
	comiss	xmm0, DWORD PTR _targettime$3[ebp]
	jbe	SHORT $LN19@GetSpriteF

; 211  : 				break;

	jmp	SHORT $LN3@GetSpriteF
$LN19@GetSpriteF:

; 212  : 			j = i;

	mov	eax, DWORD PTR _i$[ebp]
	mov	DWORD PTR _j$[ebp], eax

; 213  : 			jinterval = pintervals[i] - jtime;

	mov	eax, DWORD PTR _i$[ebp]
	mov	ecx, DWORD PTR _pintervals$5[ebp]
	movss	xmm0, DWORD PTR [ecx+eax*4]
	subss	xmm0, DWORD PTR _jtime$1[ebp]
	movss	DWORD PTR _jinterval$2[ebp], xmm0

; 214  : 			jtime = pintervals[i];

	mov	eax, DWORD PTR _i$[ebp]
	mov	ecx, DWORD PTR _pintervals$5[ebp]
	movss	xmm0, DWORD PTR [ecx+eax*4]
	movss	DWORD PTR _jtime$1[ebp], xmm0

; 215  : 		}

	jmp	SHORT $LN2@GetSpriteF
$LN3@GetSpriteF:

; 216  : 
; 217  : 		lerpFrac = (targettime - jtime) / jinterval;

	movss	xmm0, DWORD PTR _targettime$3[ebp]
	subss	xmm0, DWORD PTR _jtime$1[ebp]
	divss	xmm0, DWORD PTR _jinterval$2[ebp]
	movss	DWORD PTR _lerpFrac$[ebp], xmm0

; 218  : 
; 219  : 		// get the interpolated frames
; 220  : 		if( oldframe ) *oldframe = pspritegroup->frames[j];

	cmp	DWORD PTR _oldframe$[ebp], 0
	je	SHORT $LN20@GetSpriteF
	mov	eax, DWORD PTR _oldframe$[ebp]
	mov	ecx, DWORD PTR _j$[ebp]
	mov	edx, DWORD PTR _pspritegroup$6[ebp]
	mov	ecx, DWORD PTR [edx+ecx*4+8]
	mov	DWORD PTR [eax], ecx
$LN20@GetSpriteF:

; 221  : 		if( curframe ) *curframe = pspritegroup->frames[i];

	cmp	DWORD PTR _curframe$[ebp], 0
	je	SHORT $LN21@GetSpriteF
	mov	eax, DWORD PTR _curframe$[ebp]
	mov	ecx, DWORD PTR _i$[ebp]
	mov	edx, DWORD PTR _pspritegroup$6[ebp]
	mov	ecx, DWORD PTR [edx+ecx*4+8]
	mov	DWORD PTR [eax], ecx
$LN21@GetSpriteF:

; 222  : 	}
; 223  : 
; 224  : 	return lerpFrac;

	fld	DWORD PTR _lerpFrac$[ebp]
$LN1@GetSpriteF:

; 225  : }

	pop	edi
	pop	esi
	pop	ebx
	mov	esp, ebp
	pop	ebp
	ret	8
?GetSpriteFrameInterpolant@CSpriteModelRenderer@@EAEMPAPAUmspriteframe_s@@0@Z ENDP ; CSpriteModelRenderer::GetSpriteFrameInterpolant
_TEXT	ENDS
; Function compile flags: /Odtp /ZI
; File d:\!diffusion 2020\source code 2022\client-server\client\render\r_sprite.cpp
;	COMDAT ?GetSpriteFrame@CSpriteModelRenderer@@EAEPAUmspriteframe_s@@HM@Z
_TEXT	SEGMENT
tv194 = -104						; size = 4
_angleframe$1 = -36					; size = 4
_i$2 = -32						; size = 4
_targettime$3 = -28					; size = 4
_fullinterval$4 = -24					; size = 4
_numframes$5 = -20					; size = 4
_pintervals$6 = -16					; size = 4
_pspriteframe$ = -12					; size = 4
_pspritegroup$ = -8					; size = 4
_this$ = -4						; size = 4
_frame$ = 8						; size = 4
_yaw$ = 12						; size = 4
?GetSpriteFrame@CSpriteModelRenderer@@EAEPAUmspriteframe_s@@HM@Z PROC ; CSpriteModelRenderer::GetSpriteFrame, COMDAT
; _this$ = ecx

; 68   : {

	push	ebp
	mov	ebp, esp
	sub	esp, 104				; 00000068H
	push	ebx
	push	esi
	push	edi
	mov	DWORD PTR _this$[ebp], ecx

; 69   : 	mspritegroup_t *pspritegroup;
; 70   : 	mspriteframe_t *pspriteframe = NULL;

	mov	DWORD PTR _pspriteframe$[ebp], 0

; 71   : 
; 72   : 	if( frame < 0 )

	cmp	DWORD PTR _frame$[ebp], 0
	jge	SHORT $LN5@GetSpriteF

; 73   : 	{
; 74   : 		frame = 0;

	mov	DWORD PTR _frame$[ebp], 0
	jmp	SHORT $LN7@GetSpriteF
$LN5@GetSpriteF:

; 75   : 	}
; 76   : 	else if( frame >= m_pSpriteHeader->numframes )

	mov	eax, DWORD PTR _this$[ebp]
	mov	ecx, DWORD PTR [eax+68]
	mov	edx, DWORD PTR _frame$[ebp]
	cmp	edx, DWORD PTR [ecx+12]
	jl	SHORT $LN7@GetSpriteF

; 77   : 	{
; 78   : 		ALERT( at_warning, "R_GetSpriteFrame: no such frame %d (%s)\n", frame, m_pRenderModel->name );

	mov	eax, DWORD PTR _this$[ebp]
	mov	ecx, DWORD PTR [eax+60]
	push	ecx
	mov	edx, DWORD PTR _frame$[ebp]
	push	edx
	push	OFFSET ??_C@_0CJ@OOIAMEBN@R_GetSpriteFrame?3?5no?5such?5frame?5@
	push	3
	call	?ALERT@@YAXW4ALERT_TYPE@@PADZZ		; ALERT
	add	esp, 16					; 00000010H

; 79   : 		frame = m_pSpriteHeader->numframes - 1;

	mov	eax, DWORD PTR _this$[ebp]
	mov	ecx, DWORD PTR [eax+68]
	mov	edx, DWORD PTR [ecx+12]
	sub	edx, 1
	mov	DWORD PTR _frame$[ebp], edx
$LN7@GetSpriteF:

; 80   : 	}
; 81   : 
; 82   : 	if( m_pSpriteHeader->frames[frame].type == SPR_SINGLE )

	mov	eax, DWORD PTR _this$[ebp]
	mov	ecx, DWORD PTR [eax+68]
	mov	edx, DWORD PTR _frame$[ebp]
	cmp	DWORD PTR [ecx+edx*8+28], 0
	jne	SHORT $LN8@GetSpriteF

; 83   : 	{
; 84   : 		pspriteframe = (mspriteframe_t *)m_pSpriteHeader->frames[frame].frameptr;

	mov	eax, DWORD PTR _this$[ebp]
	mov	ecx, DWORD PTR [eax+68]
	mov	edx, DWORD PTR _frame$[ebp]
	mov	eax, DWORD PTR [ecx+edx*8+32]
	mov	DWORD PTR _pspriteframe$[ebp], eax
	jmp	$LN13@GetSpriteF
$LN8@GetSpriteF:

; 85   : 	}
; 86   : 	else if( m_pSpriteHeader->frames[frame].type == SPR_GROUP ) 

	mov	eax, DWORD PTR _this$[ebp]
	mov	ecx, DWORD PTR [eax+68]
	mov	edx, DWORD PTR _frame$[ebp]
	cmp	DWORD PTR [ecx+edx*8+28], 1
	jne	$LN10@GetSpriteF

; 87   : 	{
; 88   : 		pspritegroup = (mspritegroup_t *)m_pSpriteHeader->frames[frame].frameptr;

	mov	eax, DWORD PTR _this$[ebp]
	mov	ecx, DWORD PTR [eax+68]
	mov	edx, DWORD PTR _frame$[ebp]
	mov	eax, DWORD PTR [ecx+edx*8+32]
	mov	DWORD PTR _pspritegroup$[ebp], eax

; 89   : 
; 90   : 		float *pintervals = pspritegroup->intervals;

	mov	eax, DWORD PTR _pspritegroup$[ebp]
	mov	ecx, DWORD PTR [eax+4]
	mov	DWORD PTR _pintervals$6[ebp], ecx

; 91   : 		int numframes = pspritegroup->numframes;

	mov	eax, DWORD PTR _pspritegroup$[ebp]
	mov	ecx, DWORD PTR [eax]
	mov	DWORD PTR _numframes$5[ebp], ecx

; 92   : 		float fullinterval = pintervals[numframes-1];

	mov	eax, DWORD PTR _numframes$5[ebp]
	mov	ecx, DWORD PTR _pintervals$6[ebp]
	movss	xmm0, DWORD PTR [ecx+eax*4-4]
	movss	DWORD PTR _fullinterval$4[ebp], xmm0

; 93   : 
; 94   : 		// when loading in Mod_LoadSpriteGroup, we guaranteed all interval values
; 95   : 		// are positive, so we don't have to worry about division by zero
; 96   : 		float targettime = tr.time - ((int)( tr.time / fullinterval )) * fullinterval;

	cvtss2sd xmm0, DWORD PTR _fullinterval$4[ebp]
	movsd	xmm1, QWORD PTR ?tr@@3Uref_globals_t@@A+8
	divsd	xmm1, xmm0
	cvttsd2si eax, xmm1
	cvtsi2ss xmm0, eax
	mulss	xmm0, DWORD PTR _fullinterval$4[ebp]
	cvtss2sd xmm0, xmm0
	movsd	xmm1, QWORD PTR ?tr@@3Uref_globals_t@@A+8
	subsd	xmm1, xmm0
	cvtsd2ss xmm0, xmm1
	movss	DWORD PTR _targettime$3[ebp], xmm0

; 97   : 
; 98   : 		int i;
; 99   : 		for( i = 0; i < (numframes - 1); i++ )

	mov	DWORD PTR _i$2[ebp], 0
	jmp	SHORT $LN4@GetSpriteF
$LN2@GetSpriteF:
	mov	eax, DWORD PTR _i$2[ebp]
	add	eax, 1
	mov	DWORD PTR _i$2[ebp], eax
$LN4@GetSpriteF:
	mov	eax, DWORD PTR _numframes$5[ebp]
	sub	eax, 1
	cmp	DWORD PTR _i$2[ebp], eax
	jge	SHORT $LN3@GetSpriteF

; 100  : 		{
; 101  : 			if( pintervals[i] > targettime )

	mov	eax, DWORD PTR _i$2[ebp]
	mov	ecx, DWORD PTR _pintervals$6[ebp]
	movss	xmm0, DWORD PTR [ecx+eax*4]
	comiss	xmm0, DWORD PTR _targettime$3[ebp]
	jbe	SHORT $LN12@GetSpriteF

; 102  : 				break;

	jmp	SHORT $LN3@GetSpriteF
$LN12@GetSpriteF:

; 103  : 		}

	jmp	SHORT $LN2@GetSpriteF
$LN3@GetSpriteF:

; 104  : 		pspriteframe = pspritegroup->frames[i];

	mov	eax, DWORD PTR _i$2[ebp]
	mov	ecx, DWORD PTR _pspritegroup$[ebp]
	mov	edx, DWORD PTR [ecx+eax*4+8]
	mov	DWORD PTR _pspriteframe$[ebp], edx
	jmp	$LN13@GetSpriteF
$LN10@GetSpriteF:

; 105  : 	}
; 106  : 	else if( m_pSpriteHeader->frames[frame].type == FRAME_ANGLED )

	mov	eax, DWORD PTR _this$[ebp]
	mov	ecx, DWORD PTR [eax+68]
	mov	edx, DWORD PTR _frame$[ebp]
	cmp	DWORD PTR [ecx+edx*8+28], 2
	jne	$LN13@GetSpriteF

; 107  : 	{
; 108  : 		int angleframe = (int)(Q_rint(( RI->viewangles[YAW] - yaw + 45.0f ) / 360 * 8) - 4) & 7;

	mov	ecx, DWORD PTR ?RI@@3PAUref_instance_t@@A ; RI
	add	ecx, 192				; 000000c0H
	call	??BVector@@QAEPAMXZ			; Vector::operator float *
	mov	ecx, 4
	shl	ecx, 0
	movss	xmm0, DWORD PTR [eax+ecx]
	subss	xmm0, DWORD PTR _yaw$[ebp]
	addss	xmm0, DWORD PTR __real@42340000
	divss	xmm0, DWORD PTR __real@43b40000
	mulss	xmm0, DWORD PTR __real@41000000
	xorps	xmm1, xmm1
	comiss	xmm1, xmm0
	jbe	SHORT $LN15@GetSpriteF
	mov	ecx, DWORD PTR ?RI@@3PAUref_instance_t@@A ; RI
	add	ecx, 192				; 000000c0H
	call	??BVector@@QAEPAMXZ			; Vector::operator float *
	mov	edx, 4
	shl	edx, 0
	movss	xmm0, DWORD PTR [eax+edx]
	subss	xmm0, DWORD PTR _yaw$[ebp]
	addss	xmm0, DWORD PTR __real@42340000
	divss	xmm0, DWORD PTR __real@43b40000
	mulss	xmm0, DWORD PTR __real@41000000
	subss	xmm0, DWORD PTR __real@3f000000
	cvttss2si eax, xmm0
	mov	DWORD PTR tv194[ebp], eax
	jmp	SHORT $LN16@GetSpriteF
$LN15@GetSpriteF:
	mov	ecx, DWORD PTR ?RI@@3PAUref_instance_t@@A ; RI
	add	ecx, 192				; 000000c0H
	call	??BVector@@QAEPAMXZ			; Vector::operator float *
	mov	ecx, 4
	shl	ecx, 0
	movss	xmm0, DWORD PTR [eax+ecx]
	subss	xmm0, DWORD PTR _yaw$[ebp]
	addss	xmm0, DWORD PTR __real@42340000
	divss	xmm0, DWORD PTR __real@43b40000
	mulss	xmm0, DWORD PTR __real@41000000
	addss	xmm0, DWORD PTR __real@3f000000
	cvttss2si edx, xmm0
	mov	DWORD PTR tv194[ebp], edx
$LN16@GetSpriteF:
	mov	eax, DWORD PTR tv194[ebp]
	sub	eax, 4
	and	eax, 7
	mov	DWORD PTR _angleframe$1[ebp], eax

; 109  : 
; 110  : 		// doom-style sprite monsters
; 111  : 		pspritegroup = (mspritegroup_t *)m_pSpriteHeader->frames[frame].frameptr;

	mov	eax, DWORD PTR _this$[ebp]
	mov	ecx, DWORD PTR [eax+68]
	mov	edx, DWORD PTR _frame$[ebp]
	mov	eax, DWORD PTR [ecx+edx*8+32]
	mov	DWORD PTR _pspritegroup$[ebp], eax

; 112  : 		pspriteframe = pspritegroup->frames[angleframe];

	mov	eax, DWORD PTR _angleframe$1[ebp]
	mov	ecx, DWORD PTR _pspritegroup$[ebp]
	mov	edx, DWORD PTR [ecx+eax*4+8]
	mov	DWORD PTR _pspriteframe$[ebp], edx
$LN13@GetSpriteF:

; 113  : 	}
; 114  : 
; 115  : 	return pspriteframe;

	mov	eax, DWORD PTR _pspriteframe$[ebp]

; 116  : }

	pop	edi
	pop	esi
	pop	ebx
	mov	esp, ebp
	pop	ebp
	ret	8
?GetSpriteFrame@CSpriteModelRenderer@@EAEPAUmspriteframe_s@@HM@Z ENDP ; CSpriteModelRenderer::GetSpriteFrame
_TEXT	ENDS
; Function compile flags: /Odtp /ZI
; File d:\!diffusion 2020\source code 2022\client-server\client\render\r_sprite.cpp
;	COMDAT ?SpriteDrawModelShadowPass@CSpriteModelRenderer@@UAEXXZ
_TEXT	SEGMENT
tv181 = -392						; size = 4
$T1 = -388						; size = 12
$T2 = -376						; size = 12
$T3 = -364						; size = 12
$T4 = -352						; size = 12
$T5 = -340						; size = 12
$T6 = -328						; size = 12
$T7 = -316						; size = 12
$T8 = -304						; size = 12
$T9 = -292						; size = 12
$T10 = -280						; size = 12
$T11 = -268						; size = 12
$T12 = -256						; size = 12
$T13 = -244						; size = 12
$T14 = -232						; size = 12
_vectors$ = -156					; size = 36
_angle$ = -120						; size = 4
_dot$ = -116						; size = 4
_sr$ = -112						; size = 4
_cr$ = -108						; size = 4
_g_vieworg$ = -104					; size = 12
_g_up$ = -92						; size = 12
_g_right$ = -80						; size = 12
_g_forward$ = -68					; size = 12
_v_up$ = -56						; size = 12
_v_right$ = -44						; size = 12
_v_forward$ = -32					; size = 12
_scale$ = -20						; size = 4
_type$ = -16						; size = 4
_frame$ = -12						; size = 4
_this$ = -8						; size = 4
__$ArrayPad$ = -4					; size = 4
?SpriteDrawModelShadowPass@CSpriteModelRenderer@@UAEXXZ PROC ; CSpriteModelRenderer::SpriteDrawModelShadowPass, COMDAT
; _this$ = ecx

; 843  : {

	push	ebp
	mov	ebp, esp
	sub	esp, 392				; 00000188H
	mov	eax, DWORD PTR ___security_cookie
	xor	eax, ebp
	mov	DWORD PTR __$ArrayPad$[ebp], eax
	push	ebx
	push	esi
	push	edi
	mov	DWORD PTR _this$[ebp], ecx

; 844  : 	m_pCurrentEntity = IEngineStudio.GetCurrentEntity();

	call	DWORD PTR ?IEngineStudio@@3Uengine_studio_api_s@@A+24
	mov	ecx, DWORD PTR _this$[ebp]
	mov	DWORD PTR [ecx+56], eax

; 845  : 	m_pRenderModel = m_pCurrentEntity->model;

	mov	eax, DWORD PTR _this$[ebp]
	mov	ecx, DWORD PTR [eax+56]
	mov	edx, DWORD PTR _this$[ebp]
	mov	eax, DWORD PTR [ecx+2964]
	mov	DWORD PTR [edx+60], eax

; 846  : 	m_pSpriteHeader = (msprite_t *)Mod_Extradata( m_pRenderModel );

	mov	eax, DWORD PTR _this$[ebp]
	mov	ecx, DWORD PTR [eax+60]
	push	ecx
	mov	ecx, DWORD PTR _this$[ebp]
	call	?Mod_Extradata@CSpriteModelRenderer@@AAEPAXPAUmodel_s@@@Z ; CSpriteModelRenderer::Mod_Extradata
	mov	edx, DWORD PTR _this$[ebp]
	mov	DWORD PTR [edx+68], eax

; 847  : 
; 848  : 	// always compute origin first
; 849  : 	SpriteComputeOrigin( m_pCurrentEntity );

	mov	eax, DWORD PTR _this$[ebp]
	mov	ecx, DWORD PTR [eax+56]
	push	ecx
	mov	edx, DWORD PTR _this$[ebp]
	mov	eax, DWORD PTR [edx]
	mov	ecx, DWORD PTR _this$[ebp]
	mov	edx, DWORD PTR [eax+24]
	call	edx

; 850  : 
; 851  : 	if( CullSpriteModel( )) return;

	mov	eax, DWORD PTR _this$[ebp]
	mov	edx, DWORD PTR [eax]
	mov	ecx, DWORD PTR _this$[ebp]
	mov	eax, DWORD PTR [edx+32]
	call	eax
	movzx	ecx, al
	test	ecx, ecx
	je	SHORT $LN4@SpriteDraw
	jmp	$LN1@SpriteDraw
$LN4@SpriteDraw:

; 852  : 
; 853  : 	if( m_pSpriteHeader->texFormat == SPR_ALPHTEST )

	mov	eax, DWORD PTR _this$[ebp]
	mov	ecx, DWORD PTR [eax+68]
	movsx	edx, WORD PTR [ecx+2]
	cmp	edx, 3
	jne	SHORT $LN5@SpriteDraw

; 854  : 	{
; 855  : 		pglAlphaFunc( GL_GREATER, 0.0f );

	push	ecx
	xorps	xmm0, xmm0
	movss	DWORD PTR [esp], xmm0
	push	516					; 00000204H
	call	DWORD PTR ?pglAlphaFunc@@3P6GXIM@ZA	; pglAlphaFunc

; 856  : 		pglEnable( GL_ALPHA_TEST );

	push	3008					; 00000bc0H
	call	DWORD PTR ?pglEnable@@3P6GXI@ZA		; pglEnable
$LN5@SpriteDraw:

; 857  : 	}
; 858  : 
; 859  : 	mspriteframe_t *frame = GetSpriteFrame( m_pCurrentEntity->curstate.frame, m_pCurrentEntity->angles[YAW] );

	mov	eax, DWORD PTR _this$[ebp]
	mov	ecx, DWORD PTR [eax+56]
	add	ecx, 2900				; 00000b54H
	call	??BVector@@QAEPAMXZ			; Vector::operator float *
	mov	ecx, 4
	shl	ecx, 0
	push	ecx
	movss	xmm0, DWORD PTR [eax+ecx]
	movss	DWORD PTR [esp], xmm0
	mov	edx, DWORD PTR _this$[ebp]
	mov	eax, DWORD PTR [edx+56]
	cvttss2si ecx, DWORD PTR [eax+736]
	push	ecx
	mov	edx, DWORD PTR _this$[ebp]
	mov	eax, DWORD PTR [edx]
	mov	ecx, DWORD PTR _this$[ebp]
	mov	edx, DWORD PTR [eax+16]
	call	edx
	mov	DWORD PTR _frame$[ebp], eax

; 860  : 
; 861  : 	int type = m_pSpriteHeader->type;

	mov	eax, DWORD PTR _this$[ebp]
	mov	ecx, DWORD PTR [eax+68]
	movsx	edx, WORD PTR [ecx]
	mov	DWORD PTR _type$[ebp], edx

; 862  : 	float scale = m_pCurrentEntity->curstate.scale;

	mov	eax, DWORD PTR _this$[ebp]
	mov	ecx, DWORD PTR [eax+56]
	movss	xmm0, DWORD PTR [ecx+752]
	movss	DWORD PTR _scale$[ebp], xmm0

; 863  : 
; 864  : 	// automatically roll parallel sprites if requested
; 865  : 	if( m_pCurrentEntity->angles[ROLL] != 0.0f && type == SPR_FWD_PARALLEL )

	mov	eax, DWORD PTR _this$[ebp]
	mov	ecx, DWORD PTR [eax+56]
	add	ecx, 2900				; 00000b54H
	call	??BVector@@QAEPAMXZ			; Vector::operator float *
	mov	ecx, 4
	shl	ecx, 1
	movss	xmm0, DWORD PTR [eax+ecx]
	ucomiss	xmm0, DWORD PTR __real@00000000
	lahf
	test	ah, 68					; 00000044H
	jnp	SHORT $LN6@SpriteDraw
	cmp	DWORD PTR _type$[ebp], 2
	jne	SHORT $LN6@SpriteDraw

; 866  : 		type = SPR_FWD_PARALLEL_ORIENTED;

	mov	DWORD PTR _type$[ebp], 4
$LN6@SpriteDraw:

; 867  : 
; 868  : 	Vector v_forward, v_right, v_up;

	lea	ecx, DWORD PTR _v_forward$[ebp]
	call	??0Vector@@QAE@XZ			; Vector::Vector
	lea	ecx, DWORD PTR _v_right$[ebp]
	call	??0Vector@@QAE@XZ			; Vector::Vector
	lea	ecx, DWORD PTR _v_up$[ebp]
	call	??0Vector@@QAE@XZ			; Vector::Vector

; 869  : 	Vector g_forward, g_right, g_up, g_vieworg;

	lea	ecx, DWORD PTR _g_forward$[ebp]
	call	??0Vector@@QAE@XZ			; Vector::Vector
	lea	ecx, DWORD PTR _g_right$[ebp]
	call	??0Vector@@QAE@XZ			; Vector::Vector
	lea	ecx, DWORD PTR _g_up$[ebp]
	call	??0Vector@@QAE@XZ			; Vector::Vector
	lea	ecx, DWORD PTR _g_vieworg$[ebp]
	call	??0Vector@@QAE@XZ			; Vector::Vector

; 870  : 	float cr, sr, dot, angle;
; 871  : 
; 872  : 	// g-cont. this is a very stupid case but...
; 873  : 	matrix3x3	vectors( tr.cached_viewangles - RI->viewangles );

	mov	eax, DWORD PTR ?RI@@3PAUref_instance_t@@A ; RI
	add	eax, 192				; 000000c0H
	push	eax
	lea	ecx, DWORD PTR $T14[ebp]
	push	ecx
	mov	ecx, OFFSET ?tr@@3Uref_globals_t@@A+5836112
	call	??GVector@@QBE?AV0@ABV0@@Z		; Vector::operator-
	push	eax
	lea	ecx, DWORD PTR _vectors$[ebp]
	call	??0matrix3x3@@QAE@ABVVector@@@Z		; matrix3x3::matrix3x3

; 874  : 	g_vieworg = RI->vieworg;

	mov	eax, DWORD PTR ?RI@@3PAUref_instance_t@@A ; RI
	add	eax, 204				; 000000ccH
	mov	ecx, DWORD PTR [eax]
	mov	DWORD PTR _g_vieworg$[ebp], ecx
	mov	edx, DWORD PTR [eax+4]
	mov	DWORD PTR _g_vieworg$[ebp+4], edx
	mov	eax, DWORD PTR [eax+8]
	mov	DWORD PTR _g_vieworg$[ebp+8], eax

; 875  : 	g_forward = vectors[0];

	push	0
	lea	ecx, DWORD PTR _vectors$[ebp]
	call	??Amatrix3x3@@QAEPAMH@Z			; matrix3x3::operator[]
	push	eax
	lea	ecx, DWORD PTR $T13[ebp]
	call	??0Vector@@QAE@QAM@Z			; Vector::Vector
	mov	eax, DWORD PTR $T13[ebp]
	mov	DWORD PTR _g_forward$[ebp], eax
	mov	ecx, DWORD PTR $T13[ebp+4]
	mov	DWORD PTR _g_forward$[ebp+4], ecx
	mov	edx, DWORD PTR $T13[ebp+8]
	mov	DWORD PTR _g_forward$[ebp+8], edx

; 876  : 	g_right = vectors[1];

	push	1
	lea	ecx, DWORD PTR _vectors$[ebp]
	call	??Amatrix3x3@@QAEPAMH@Z			; matrix3x3::operator[]
	push	eax
	lea	ecx, DWORD PTR $T12[ebp]
	call	??0Vector@@QAE@QAM@Z			; Vector::Vector
	mov	eax, DWORD PTR $T12[ebp]
	mov	DWORD PTR _g_right$[ebp], eax
	mov	ecx, DWORD PTR $T12[ebp+4]
	mov	DWORD PTR _g_right$[ebp+4], ecx
	mov	edx, DWORD PTR $T12[ebp+8]
	mov	DWORD PTR _g_right$[ebp+8], edx

; 877  : 	g_up = vectors[2];

	push	2
	lea	ecx, DWORD PTR _vectors$[ebp]
	call	??Amatrix3x3@@QAEPAMH@Z			; matrix3x3::operator[]
	push	eax
	lea	ecx, DWORD PTR $T11[ebp]
	call	??0Vector@@QAE@QAM@Z			; Vector::Vector
	mov	eax, DWORD PTR $T11[ebp]
	mov	DWORD PTR _g_up$[ebp], eax
	mov	ecx, DWORD PTR $T11[ebp+4]
	mov	DWORD PTR _g_up$[ebp+4], ecx
	mov	edx, DWORD PTR $T11[ebp+8]
	mov	DWORD PTR _g_up$[ebp+8], edx

; 878  : 
; 879  : 	switch( type )

	mov	eax, DWORD PTR _type$[ebp]
	mov	DWORD PTR tv181[ebp], eax
	cmp	DWORD PTR tv181[ebp], 4
	ja	$LN13@SpriteDraw
	mov	ecx, DWORD PTR tv181[ebp]
	jmp	DWORD PTR $LN16@SpriteDraw[ecx*4]
$LN7@SpriteDraw:

; 880  : 	{
; 881  : 	case SPR_ORIENTED:
; 882  : 		AngleVectors( m_pCurrentEntity->angles, v_forward, v_right, v_up );

	lea	ecx, DWORD PTR _v_up$[ebp]
	call	??BVector@@QAEPAMXZ			; Vector::operator float *
	push	eax
	lea	ecx, DWORD PTR _v_right$[ebp]
	call	??BVector@@QAEPAMXZ			; Vector::operator float *
	push	eax
	lea	ecx, DWORD PTR _v_forward$[ebp]
	call	??BVector@@QAEPAMXZ			; Vector::operator float *
	push	eax
	mov	eax, DWORD PTR _this$[ebp]
	mov	ecx, DWORD PTR [eax+56]
	add	ecx, 2900				; 00000b54H
	call	??BVector@@QAEPAMXZ			; Vector::operator float *
	push	eax
	call	DWORD PTR ?gEngfuncs@@3Ucl_enginefuncs_s@@A+96
	add	esp, 16					; 00000010H

; 883  : 		sprite_origin = sprite_origin - v_forward * 0.01f; // to avoid z-fighting

	push	ecx
	movss	xmm0, DWORD PTR __real@3c23d70a
	movss	DWORD PTR [esp], xmm0
	lea	eax, DWORD PTR $T10[ebp]
	push	eax
	lea	ecx, DWORD PTR _v_forward$[ebp]
	call	??DVector@@QBE?AV0@M@Z			; Vector::operator*
	push	eax
	lea	ecx, DWORD PTR $T9[ebp]
	push	ecx
	mov	ecx, DWORD PTR _this$[ebp]
	add	ecx, 4
	call	??GVector@@QBE?AV0@ABV0@@Z		; Vector::operator-
	mov	edx, DWORD PTR _this$[ebp]
	add	edx, 4
	mov	ecx, DWORD PTR [eax]
	mov	DWORD PTR [edx], ecx
	mov	ecx, DWORD PTR [eax+4]
	mov	DWORD PTR [edx+4], ecx
	mov	eax, DWORD PTR [eax+8]
	mov	DWORD PTR [edx+8], eax

; 884  : 		break;

	jmp	$LN2@SpriteDraw
$LN8@SpriteDraw:

; 885  : 	case SPR_FACING_UPRIGHT:
; 886  : 		v_right.x = sprite_origin.y - g_vieworg.y;

	mov	eax, DWORD PTR _this$[ebp]
	movss	xmm0, DWORD PTR [eax+8]
	subss	xmm0, DWORD PTR _g_vieworg$[ebp+4]
	movss	DWORD PTR _v_right$[ebp], xmm0

; 887  : 		v_right.y = -(sprite_origin.x - g_vieworg.x);

	mov	eax, DWORD PTR _this$[ebp]
	movss	xmm0, DWORD PTR [eax+4]
	subss	xmm0, DWORD PTR _g_vieworg$[ebp]
	xorps	xmm0, DWORD PTR __xmm@80000000800000008000000080000000
	movss	DWORD PTR _v_right$[ebp+4], xmm0

; 888  : 		v_right.z = 0.0f;

	xorps	xmm0, xmm0
	movss	DWORD PTR _v_right$[ebp+8], xmm0

; 889  : 		v_up.x = v_up.y = 0.0f;

	xorps	xmm0, xmm0
	movss	DWORD PTR _v_up$[ebp+4], xmm0
	movss	xmm0, DWORD PTR _v_up$[ebp+4]
	movss	DWORD PTR _v_up$[ebp], xmm0

; 890  : 		v_up.z = 1.0f;

	movss	xmm0, DWORD PTR __real@3f800000
	movss	DWORD PTR _v_up$[ebp+8], xmm0

; 891  : 		v_right = v_right.Normalize();

	lea	eax, DWORD PTR $T8[ebp]
	push	eax
	lea	ecx, DWORD PTR _v_right$[ebp]
	call	?Normalize@Vector@@QBE?AV1@XZ		; Vector::Normalize
	mov	ecx, DWORD PTR [eax]
	mov	DWORD PTR _v_right$[ebp], ecx
	mov	edx, DWORD PTR [eax+4]
	mov	DWORD PTR _v_right$[ebp+4], edx
	mov	eax, DWORD PTR [eax+8]
	mov	DWORD PTR _v_right$[ebp+8], eax

; 892  : 		break;

	jmp	$LN2@SpriteDraw
$LN9@SpriteDraw:

; 893  : 	case SPR_FWD_PARALLEL_UPRIGHT:
; 894  : 		dot = g_forward.z;

	movss	xmm0, DWORD PTR _g_forward$[ebp+8]
	movss	DWORD PTR _dot$[ebp], xmm0

; 895  : 		if(( dot > 0.999848f ) || ( dot < -0.999848f ))	// cos(1 degree) = 0.999848

	movss	xmm0, DWORD PTR _dot$[ebp]
	comiss	xmm0, DWORD PTR __real@3f7ff60a
	ja	SHORT $LN11@SpriteDraw
	movss	xmm0, DWORD PTR __real@bf7ff60a
	comiss	xmm0, DWORD PTR _dot$[ebp]
	jbe	SHORT $LN10@SpriteDraw
$LN11@SpriteDraw:

; 896  : 			return; // invisible

	jmp	$LN1@SpriteDraw
$LN10@SpriteDraw:

; 897  : 
; 898  : 		v_right.x = g_forward.y;

	movss	xmm0, DWORD PTR _g_forward$[ebp+4]
	movss	DWORD PTR _v_right$[ebp], xmm0

; 899  : 		v_right.y = -g_forward.x;

	movss	xmm0, DWORD PTR _g_forward$[ebp]
	xorps	xmm0, DWORD PTR __xmm@80000000800000008000000080000000
	movss	DWORD PTR _v_right$[ebp+4], xmm0

; 900  : 		v_right.z = 0.0f;

	xorps	xmm0, xmm0
	movss	DWORD PTR _v_right$[ebp+8], xmm0

; 901  : 		v_up.x = v_up.y = 0.0f;

	xorps	xmm0, xmm0
	movss	DWORD PTR _v_up$[ebp+4], xmm0
	movss	xmm0, DWORD PTR _v_up$[ebp+4]
	movss	DWORD PTR _v_up$[ebp], xmm0

; 902  : 		v_up.z = 1.0f;

	movss	xmm0, DWORD PTR __real@3f800000
	movss	DWORD PTR _v_up$[ebp+8], xmm0

; 903  : 		v_right = v_right.Normalize();

	lea	eax, DWORD PTR $T7[ebp]
	push	eax
	lea	ecx, DWORD PTR _v_right$[ebp]
	call	?Normalize@Vector@@QBE?AV1@XZ		; Vector::Normalize
	mov	ecx, DWORD PTR [eax]
	mov	DWORD PTR _v_right$[ebp], ecx
	mov	edx, DWORD PTR [eax+4]
	mov	DWORD PTR _v_right$[ebp+4], edx
	mov	eax, DWORD PTR [eax+8]
	mov	DWORD PTR _v_right$[ebp+8], eax

; 904  : 		break;

	jmp	$LN2@SpriteDraw
$LN12@SpriteDraw:

; 905  : 	case SPR_FWD_PARALLEL_ORIENTED:
; 906  : 		angle = m_pCurrentEntity->angles[ROLL] * (M_PI * 2.0f / 360.0f);

	mov	eax, DWORD PTR _this$[ebp]
	mov	ecx, DWORD PTR [eax+56]
	add	ecx, 2900				; 00000b54H
	call	??BVector@@QAEPAMXZ			; Vector::operator float *
	mov	ecx, 4
	shl	ecx, 1
	cvtss2sd xmm0, DWORD PTR [eax+ecx]
	mulsd	xmm0, QWORD PTR __real@3f91df46a2529d39
	cvtsd2ss xmm0, xmm0
	movss	DWORD PTR _angle$[ebp], xmm0

; 907  : 		SinCos( angle, &sr, &cr );

	lea	eax, DWORD PTR _cr$[ebp]
	push	eax
	lea	ecx, DWORD PTR _sr$[ebp]
	push	ecx
	push	ecx
	movss	xmm0, DWORD PTR _angle$[ebp]
	movss	DWORD PTR [esp], xmm0
	call	?SinCos@@YAXMPAM0@Z			; SinCos
	add	esp, 12					; 0000000cH

; 908  : 
; 909  : 		v_right = (g_right * cr + g_up * sr);

	push	ecx
	movss	xmm0, DWORD PTR _sr$[ebp]
	movss	DWORD PTR [esp], xmm0
	lea	eax, DWORD PTR $T5[ebp]
	push	eax
	lea	ecx, DWORD PTR _g_up$[ebp]
	call	??DVector@@QBE?AV0@M@Z			; Vector::operator*
	push	eax
	lea	ecx, DWORD PTR $T4[ebp]
	push	ecx
	push	ecx
	movss	xmm0, DWORD PTR _cr$[ebp]
	movss	DWORD PTR [esp], xmm0
	lea	edx, DWORD PTR $T6[ebp]
	push	edx
	lea	ecx, DWORD PTR _g_right$[ebp]
	call	??DVector@@QBE?AV0@M@Z			; Vector::operator*
	mov	ecx, eax
	call	??HVector@@QBE?AV0@ABV0@@Z		; Vector::operator+
	mov	ecx, DWORD PTR [eax]
	mov	DWORD PTR _v_right$[ebp], ecx
	mov	edx, DWORD PTR [eax+4]
	mov	DWORD PTR _v_right$[ebp+4], edx
	mov	eax, DWORD PTR [eax+8]
	mov	DWORD PTR _v_right$[ebp+8], eax

; 910  : 		v_up = g_right * -sr + g_up * cr;

	push	ecx
	movss	xmm0, DWORD PTR _cr$[ebp]
	movss	DWORD PTR [esp], xmm0
	lea	eax, DWORD PTR $T2[ebp]
	push	eax
	lea	ecx, DWORD PTR _g_up$[ebp]
	call	??DVector@@QBE?AV0@M@Z			; Vector::operator*
	push	eax
	lea	ecx, DWORD PTR $T1[ebp]
	push	ecx
	movss	xmm0, DWORD PTR _sr$[ebp]
	xorps	xmm0, DWORD PTR __xmm@80000000800000008000000080000000
	push	ecx
	movss	DWORD PTR [esp], xmm0
	lea	edx, DWORD PTR $T3[ebp]
	push	edx
	lea	ecx, DWORD PTR _g_right$[ebp]
	call	??DVector@@QBE?AV0@M@Z			; Vector::operator*
	mov	ecx, eax
	call	??HVector@@QBE?AV0@ABV0@@Z		; Vector::operator+
	mov	ecx, DWORD PTR [eax]
	mov	DWORD PTR _v_up$[ebp], ecx
	mov	edx, DWORD PTR [eax+4]
	mov	DWORD PTR _v_up$[ebp+4], edx
	mov	eax, DWORD PTR [eax+8]
	mov	DWORD PTR _v_up$[ebp+8], eax

; 911  : 		break;

	jmp	SHORT $LN2@SpriteDraw
$LN13@SpriteDraw:

; 912  : 	case SPR_FWD_PARALLEL: // normal sprite
; 913  : 	default:
; 914  : 		v_right = g_right; 

	mov	eax, DWORD PTR _g_right$[ebp]
	mov	DWORD PTR _v_right$[ebp], eax
	mov	ecx, DWORD PTR _g_right$[ebp+4]
	mov	DWORD PTR _v_right$[ebp+4], ecx
	mov	edx, DWORD PTR _g_right$[ebp+8]
	mov	DWORD PTR _v_right$[ebp+8], edx

; 915  : 		v_up = g_up;

	mov	eax, DWORD PTR _g_up$[ebp]
	mov	DWORD PTR _v_up$[ebp], eax
	mov	ecx, DWORD PTR _g_up$[ebp+4]
	mov	DWORD PTR _v_up$[ebp+4], ecx
	mov	edx, DWORD PTR _g_up$[ebp+8]
	mov	DWORD PTR _v_up$[ebp+8], edx
$LN2@SpriteDraw:

; 916  : 		break;
; 917  : 	}
; 918  : 
; 919  : 	GL_Cull( GL_NONE );

	push	0
	call	?GL_Cull@@YAXI@Z			; GL_Cull
	add	esp, 4

; 920  : 	pglEnable( GL_TEXTURE_2D );

	push	3553					; 00000de1H
	call	DWORD PTR ?pglEnable@@3P6GXI@ZA		; pglEnable

; 921  : 
; 922  : 	GL_Bind( GL_TEXTURE0, frame->gl_texturenum );

	mov	eax, DWORD PTR _frame$[ebp]
	mov	ecx, DWORD PTR [eax+24]
	push	ecx
	push	0
	call	DWORD PTR ?gRenderfuncs@@3Urender_api_s@@A+132
	add	esp, 8

; 923  : 	DrawSpriteQuad( frame, sprite_origin, v_right, v_up, scale );

	push	ecx
	movss	xmm0, DWORD PTR _scale$[ebp]
	movss	DWORD PTR [esp], xmm0
	lea	eax, DWORD PTR _v_up$[ebp]
	push	eax
	lea	ecx, DWORD PTR _v_right$[ebp]
	push	ecx
	mov	edx, DWORD PTR _this$[ebp]
	add	edx, 4
	push	edx
	mov	eax, DWORD PTR _frame$[ebp]
	push	eax
	mov	ecx, DWORD PTR _this$[ebp]
	mov	edx, DWORD PTR [ecx]
	mov	ecx, DWORD PTR _this$[ebp]
	mov	eax, DWORD PTR [edx+48]
	call	eax

; 924  : 
; 925  : 	pglDisable( GL_TEXTURE_2D );

	push	3553					; 00000de1H
	call	DWORD PTR ?pglDisable@@3P6GXI@ZA	; pglDisable

; 926  : 	GL_Cull( GL_FRONT );

	push	1028					; 00000404H
	call	?GL_Cull@@YAXI@Z			; GL_Cull
	add	esp, 4

; 927  : 
; 928  : 	if( m_pSpriteHeader->texFormat == SPR_ALPHTEST )

	mov	eax, DWORD PTR _this$[ebp]
	mov	ecx, DWORD PTR [eax+68]
	movsx	edx, WORD PTR [ecx+2]
	cmp	edx, 3
	jne	SHORT $LN14@SpriteDraw

; 929  : 		pglDisable( GL_ALPHA_TEST );

	push	3008					; 00000bc0H
	call	DWORD PTR ?pglDisable@@3P6GXI@ZA	; pglDisable
$LN14@SpriteDraw:
$LN1@SpriteDraw:

; 930  : }

	pop	edi
	pop	esi
	pop	ebx
	mov	ecx, DWORD PTR __$ArrayPad$[ebp]
	xor	ecx, ebp
	call	@__security_check_cookie@4
	mov	esp, ebp
	pop	ebp
	ret	0
	npad	1
$LN16@SpriteDraw:
	DD	$LN9@SpriteDraw
	DD	$LN8@SpriteDraw
	DD	$LN13@SpriteDraw
	DD	$LN7@SpriteDraw
	DD	$LN12@SpriteDraw
?SpriteDrawModelShadowPass@CSpriteModelRenderer@@UAEXXZ ENDP ; CSpriteModelRenderer::SpriteDrawModelShadowPass
_TEXT	ENDS
; Function compile flags: /Odtp /ZI
; File d:\!diffusion 2020\source code 2022\client-server\client\render\r_sprite.cpp
;	COMDAT ?SpriteDrawModel@CSpriteModelRenderer@@UAEXXZ
_TEXT	SEGMENT
tv1095 = -264						; size = 4
tv1091 = -264						; size = 4
tv505 = -264						; size = 4
tv173 = -264						; size = 4
tv1093 = -260						; size = 4
tv1089 = -260						; size = 4
tv1087 = -260						; size = 4
tv1085 = -260						; size = 4
tv1083 = -260						; size = 4
tv753 = -260						; size = 4
tv504 = -260						; size = 4
tv324 = -260						; size = 4
tv172 = -260						; size = 4
tv137 = -260						; size = 4
tv67 = -257						; size = 1
$T1 = -256						; size = 12
$T2 = -244						; size = 12
$T3 = -232						; size = 12
$T4 = -220						; size = 12
$T5 = -208						; size = 12
$T6 = -196						; size = 4
_i$7 = -128						; size = 4
_cr$8 = -124						; size = 4
_sr$9 = -120						; size = 4
_angle$10 = -116					; size = 4
_dot$11 = -112						; size = 4
_v_up$ = -108						; size = 12
_v_right$ = -96						; size = 12
_v_forward$ = -84					; size = 12
_type$ = -72						; size = 4
_oldframe$ = -68					; size = 4
_frame$ = -64						; size = 4
_ilerp$ = -60						; size = 4
_lerp$ = -56						; size = 4
_lightColor$12 = -52					; size = 12
_color2$ = -40						; size = 12
_color$ = -28						; size = 12
_fogFactor$13 = -16					; size = 4
_depth$14 = -12						; size = 4
_scale$ = -8						; size = 4
_this$ = -4						; size = 4
?SpriteDrawModel@CSpriteModelRenderer@@UAEXXZ PROC	; CSpriteModelRenderer::SpriteDrawModel, COMDAT
; _this$ = ecx

; 603  : {

	push	ebp
	mov	ebp, esp
	sub	esp, 264				; 00000108H
	push	ebx
	push	esi
	push	edi
	mov	DWORD PTR _this$[ebp], ecx

; 604  : 	if( !CVAR_TO_BOOL( r_drawsprites ) )

	cmp	DWORD PTR ?r_drawsprites@@3PAUcvar_s@@A, 0 ; r_drawsprites
	je	SHORT $LN52@SpriteDraw
	mov	eax, DWORD PTR ?r_drawsprites@@3PAUcvar_s@@A ; r_drawsprites
	movss	xmm0, DWORD PTR [eax+12]
	ucomiss	xmm0, DWORD PTR __real@00000000
	lahf
	test	ah, 68					; 00000044H
	jnp	SHORT $LN52@SpriteDraw
	mov	BYTE PTR tv67[ebp], 1
	jmp	SHORT $LN53@SpriteDraw
$LN52@SpriteDraw:
	mov	BYTE PTR tv67[ebp], 0
$LN53@SpriteDraw:
	movzx	ecx, BYTE PTR tv67[ebp]
	test	ecx, ecx
	jne	SHORT $LN9@SpriteDraw

; 605  : 		return;

	jmp	$LN1@SpriteDraw
$LN9@SpriteDraw:

; 606  : 	
; 607  : 	m_pCurrentEntity = IEngineStudio.GetCurrentEntity();

	call	DWORD PTR ?IEngineStudio@@3Uengine_studio_api_s@@A+24
	mov	ecx, DWORD PTR _this$[ebp]
	mov	DWORD PTR [ecx+56], eax

; 608  : 	m_pRenderModel = m_pCurrentEntity->model;

	mov	eax, DWORD PTR _this$[ebp]
	mov	ecx, DWORD PTR [eax+56]
	mov	edx, DWORD PTR _this$[ebp]
	mov	eax, DWORD PTR [ecx+2964]
	mov	DWORD PTR [edx+60], eax

; 609  : 	m_pSpriteHeader = (msprite_t *)Mod_Extradata( m_pRenderModel );

	mov	eax, DWORD PTR _this$[ebp]
	mov	ecx, DWORD PTR [eax+60]
	push	ecx
	mov	ecx, DWORD PTR _this$[ebp]
	call	?Mod_Extradata@CSpriteModelRenderer@@AAEPAXPAUmodel_s@@@Z ; CSpriteModelRenderer::Mod_Extradata
	mov	edx, DWORD PTR _this$[ebp]
	mov	DWORD PTR [edx+68], eax

; 610  : 
; 611  : 	float scale = m_pCurrentEntity->curstate.scale;

	mov	eax, DWORD PTR _this$[ebp]
	mov	ecx, DWORD PTR [eax+56]
	movss	xmm0, DWORD PTR [ecx+752]
	movss	DWORD PTR _scale$[ebp], xmm0

; 612  : 	if( !scale ) scale = 1.0f;

	movss	xmm0, DWORD PTR _scale$[ebp]
	ucomiss	xmm0, DWORD PTR __real@00000000
	lahf
	test	ah, 68					; 00000044H
	jp	SHORT $LN10@SpriteDraw
	movss	xmm0, DWORD PTR __real@3f800000
	movss	DWORD PTR _scale$[ebp], xmm0
$LN10@SpriteDraw:

; 613  : 
; 614  : 	if( SpriteOccluded( scale ))

	lea	eax, DWORD PTR _scale$[ebp]
	push	eax
	mov	ecx, DWORD PTR _this$[ebp]
	mov	edx, DWORD PTR [ecx]
	mov	ecx, DWORD PTR _this$[ebp]
	mov	eax, DWORD PTR [edx+44]
	call	eax
	test	eax, eax
	je	SHORT $LN11@SpriteDraw

; 615  : 		return; // sprite culled

	jmp	$LN1@SpriteDraw
$LN11@SpriteDraw:

; 616  : 
; 617  : 	r_stats.c_sprite_models_drawn++;

	mov	eax, DWORD PTR ?r_stats@@3Uref_stats_t@@A+28
	add	eax, 1
	mov	DWORD PTR ?r_stats@@3Uref_stats_t@@A+28, eax

; 618  : 
; 619  : 	if( m_pSpriteHeader->texFormat == SPR_ALPHTEST && m_pCurrentEntity->curstate.rendermode != kRenderTransAdd )

	mov	eax, DWORD PTR _this$[ebp]
	mov	ecx, DWORD PTR [eax+68]
	movsx	edx, WORD PTR [ecx+2]
	cmp	edx, 3
	jne	SHORT $LN12@SpriteDraw
	mov	eax, DWORD PTR _this$[ebp]
	mov	ecx, DWORD PTR [eax+56]
	cmp	DWORD PTR [ecx+760], 5
	je	SHORT $LN12@SpriteDraw

; 620  : 	{
; 621  : 		pglEnable( GL_ALPHA_TEST );

	push	3008					; 00000bc0H
	call	DWORD PTR ?pglEnable@@3P6GXI@ZA		; pglEnable

; 622  : 		pglAlphaFunc( GL_GREATER, 0.0f );

	push	ecx
	xorps	xmm0, xmm0
	movss	DWORD PTR [esp], xmm0
	push	516					; 00000204H
	call	DWORD PTR ?pglAlphaFunc@@3P6GXIM@ZA	; pglAlphaFunc
$LN12@SpriteDraw:

; 623  : 	}
; 624  : 
; 625  : 	// select proper rendermode
; 626  : 	switch( m_pCurrentEntity->curstate.rendermode )

	mov	eax, DWORD PTR _this$[ebp]
	mov	ecx, DWORD PTR [eax+56]
	mov	edx, DWORD PTR [ecx+760]
	mov	DWORD PTR tv137[ebp], edx
	mov	eax, DWORD PTR tv137[ebp]
	sub	eax, 1
	mov	DWORD PTR tv137[ebp], eax
	cmp	DWORD PTR tv137[ebp], 6
	ja	SHORT $LN17@SpriteDraw
	mov	ecx, DWORD PTR tv137[ebp]
	jmp	DWORD PTR $LN62@SpriteDraw[ecx*4]
$LN13@SpriteDraw:

; 627  : 	{
; 628  : 	case kRenderTransAlpha:
; 629  : 		pglDepthMask( GL_FALSE );

	push	0
	call	DWORD PTR ?pglDepthMask@@3P6GXE@ZA	; pglDepthMask
$LN14@SpriteDraw:

; 630  : 	case kRenderTransColor:
; 631  : 	case kRenderTransTexture:
; 632  : 	case kRenderFade:
; 633  : 		pglEnable( GL_BLEND );

	push	3042					; 00000be2H
	call	DWORD PTR ?pglEnable@@3P6GXI@ZA		; pglEnable

; 634  : 		pglBlendFunc( GL_SRC_ALPHA, GL_ONE_MINUS_SRC_ALPHA );

	push	771					; 00000303H
	push	770					; 00000302H
	call	DWORD PTR ?pglBlendFunc@@3P6GXII@ZA	; pglBlendFunc

; 635  : 		break;

	jmp	SHORT $LN2@SpriteDraw
$LN15@SpriteDraw:

; 636  : 	case kRenderGlow:
; 637  : 	case kRenderConstantGlow:
; 638  : 		pglDisable( GL_DEPTH_TEST );

	push	2929					; 00000b71H
	call	DWORD PTR ?pglDisable@@3P6GXI@ZA	; pglDisable
$LN16@SpriteDraw:

; 639  : 	case kRenderTransAdd:
; 640  : 		pglEnable( GL_BLEND );

	push	3042					; 00000be2H
	call	DWORD PTR ?pglEnable@@3P6GXI@ZA		; pglEnable

; 641  : 		pglBlendFunc( GL_SRC_ALPHA, GL_ONE );

	push	1
	push	770					; 00000302H
	call	DWORD PTR ?pglBlendFunc@@3P6GXII@ZA	; pglBlendFunc

; 642  : 		pglDepthMask( GL_FALSE );

	push	0
	call	DWORD PTR ?pglDepthMask@@3P6GXE@ZA	; pglDepthMask

; 643  : 		break;

	jmp	SHORT $LN2@SpriteDraw
$LN17@SpriteDraw:

; 644  : 	case kRenderNormal:
; 645  : 	default:
; 646  : 		pglDisable( GL_BLEND );

	push	3042					; 00000be2H
	call	DWORD PTR ?pglDisable@@3P6GXI@ZA	; pglDisable
$LN2@SpriteDraw:

; 647  : 		break;
; 648  : 	}
; 649  : 	
; 650  : 	if( tr.fogEnabled && m_pSpriteHeader->texFormat != SPR_ALPHTEST )

	movzx	eax, BYTE PTR ?tr@@3Uref_globals_t@@A+5830892
	test	eax, eax
	je	$LN18@SpriteDraw
	mov	eax, DWORD PTR _this$[ebp]
	mov	ecx, DWORD PTR [eax+68]
	movsx	edx, WORD PTR [ecx+2]
	cmp	edx, 3
	je	$LN18@SpriteDraw

; 651  : 	{
; 652  : 		// do software fog here
; 653  : 		float depth = DotProduct( sprite_origin, RI->vforward ) - RI->viewplanedist;

	mov	eax, DWORD PTR ?RI@@3PAUref_instance_t@@A ; RI
	add	eax, 228				; 000000e4H
	push	eax
	mov	ecx, DWORD PTR _this$[ebp]
	add	ecx, 4
	push	ecx
	call	?DotProduct@@YAMABVVector@@0@Z		; DotProduct
	add	esp, 8
	fstp	DWORD PTR tv753[ebp]
	movss	xmm0, DWORD PTR tv753[ebp]
	mov	edx, DWORD PTR ?RI@@3PAUref_instance_t@@A ; RI
	subss	xmm0, DWORD PTR [edx+14008]
	movss	DWORD PTR _depth$14[ebp], xmm0

; 654  : 		float fogFactor = pow( 2.0, -tr.fogDensity * depth );

	movss	xmm0, DWORD PTR ?tr@@3Uref_globals_t@@A+5830908
	xorps	xmm0, DWORD PTR __xmm@80000000800000008000000080000000
	mulss	xmm0, DWORD PTR _depth$14[ebp]
	cvtss2sd xmm0, xmm0
	sub	esp, 8
	movsd	QWORD PTR [esp], xmm0
	sub	esp, 8
	movsd	xmm0, QWORD PTR __real@4000000000000000
	movsd	QWORD PTR [esp], xmm0
	call	_pow
	add	esp, 16					; 00000010H
	fstp	DWORD PTR _fogFactor$13[ebp]

; 655  : 		fogFactor = bound( 0.0f, fogFactor, 1.0f );

	movss	xmm0, DWORD PTR _fogFactor$13[ebp]
	comiss	xmm0, DWORD PTR __real@00000000
	jb	SHORT $LN56@SpriteDraw
	movss	xmm0, DWORD PTR __real@3f800000
	comiss	xmm0, DWORD PTR _fogFactor$13[ebp]
	jbe	SHORT $LN54@SpriteDraw
	movss	xmm0, DWORD PTR _fogFactor$13[ebp]
	movss	DWORD PTR tv172[ebp], xmm0
	jmp	SHORT $LN55@SpriteDraw
$LN54@SpriteDraw:
	movss	xmm0, DWORD PTR __real@3f800000
	movss	DWORD PTR tv172[ebp], xmm0
$LN55@SpriteDraw:
	movss	xmm0, DWORD PTR tv172[ebp]
	movss	DWORD PTR tv173[ebp], xmm0
	jmp	SHORT $LN57@SpriteDraw
$LN56@SpriteDraw:
	xorps	xmm0, xmm0
	movss	DWORD PTR tv173[ebp], xmm0
$LN57@SpriteDraw:
	movss	xmm0, DWORD PTR tv173[ebp]
	movss	DWORD PTR _fogFactor$13[ebp], xmm0

; 656  : 		tr.blend = Lerp( fogFactor, 0.0f, tr.blend );

	xorps	xmm0, xmm0
	movss	DWORD PTR $T6[ebp], xmm0
	push	OFFSET ?tr@@3Uref_globals_t@@A+5830912
	lea	eax, DWORD PTR $T6[ebp]
	push	eax
	push	ecx
	movss	xmm0, DWORD PTR _fogFactor$13[ebp]
	movss	DWORD PTR [esp], xmm0
	call	??$Lerp@M@@YAMMABM0@Z			; Lerp<float>
	add	esp, 12					; 0000000cH
	fstp	DWORD PTR ?tr@@3Uref_globals_t@@A+5830912
$LN18@SpriteDraw:

; 657  : 	}
; 658  : 
; 659  : 	Vector color, color2;

	lea	ecx, DWORD PTR _color$[ebp]
	call	??0Vector@@QAE@XZ			; Vector::Vector
	lea	ecx, DWORD PTR _color2$[ebp]
	call	??0Vector@@QAE@XZ			; Vector::Vector

; 660  : 
; 661  : 	// all sprites can have color
; 662  : 	pglTexEnvi( GL_TEXTURE_ENV, GL_TEXTURE_ENV_MODE, GL_MODULATE );

	push	8448					; 00002100H
	push	8704					; 00002200H
	push	8960					; 00002300H
	call	DWORD PTR ?pglTexEnvi@@3P6GXIIH@ZA	; pglTexEnvi

; 663  : 
; 664  : 	// NOTE: never pass sprites with rendercolor '0 0 0' it's a stupid Valve Hammer Editor bug
; 665  : 	if( m_pCurrentEntity->curstate.rendercolor.r || m_pCurrentEntity->curstate.rendercolor.g || m_pCurrentEntity->curstate.rendercolor.b )

	mov	eax, DWORD PTR _this$[ebp]
	mov	ecx, DWORD PTR [eax+56]
	movzx	edx, BYTE PTR [ecx+768]
	test	edx, edx
	jne	SHORT $LN21@SpriteDraw
	mov	eax, DWORD PTR _this$[ebp]
	mov	ecx, DWORD PTR [eax+56]
	movzx	edx, BYTE PTR [ecx+769]
	test	edx, edx
	jne	SHORT $LN21@SpriteDraw
	mov	eax, DWORD PTR _this$[ebp]
	mov	ecx, DWORD PTR [eax+56]
	movzx	edx, BYTE PTR [ecx+770]
	test	edx, edx
	je	$LN19@SpriteDraw
$LN21@SpriteDraw:

; 666  : 	{
; 667  : 		color[0] = (float)m_pCurrentEntity->curstate.rendercolor.r * ( 1.0f / 255.0f );

	mov	eax, DWORD PTR _this$[ebp]
	mov	ecx, DWORD PTR [eax+56]
	movzx	edx, BYTE PTR [ecx+768]
	cvtsi2ss xmm0, edx
	mulss	xmm0, DWORD PTR __real@3b808081
	lea	ecx, DWORD PTR _color$[ebp]
	movss	DWORD PTR tv1083[ebp], xmm0
	call	??BVector@@QAEPAMXZ			; Vector::operator float *
	mov	ecx, 4
	imul	edx, ecx, 0
	movss	xmm0, DWORD PTR tv1083[ebp]
	movss	DWORD PTR [eax+edx], xmm0

; 668  : 		color[1] = (float)m_pCurrentEntity->curstate.rendercolor.g * ( 1.0f / 255.0f );

	mov	eax, DWORD PTR _this$[ebp]
	mov	ecx, DWORD PTR [eax+56]
	movzx	edx, BYTE PTR [ecx+769]
	cvtsi2ss xmm0, edx
	mulss	xmm0, DWORD PTR __real@3b808081
	lea	ecx, DWORD PTR _color$[ebp]
	movss	DWORD PTR tv1085[ebp], xmm0
	call	??BVector@@QAEPAMXZ			; Vector::operator float *
	mov	ecx, 4
	shl	ecx, 0
	movss	xmm0, DWORD PTR tv1085[ebp]
	movss	DWORD PTR [eax+ecx], xmm0

; 669  : 		color[2] = (float)m_pCurrentEntity->curstate.rendercolor.b * ( 1.0f / 255.0f );

	mov	eax, DWORD PTR _this$[ebp]
	mov	ecx, DWORD PTR [eax+56]
	movzx	edx, BYTE PTR [ecx+770]
	cvtsi2ss xmm0, edx
	mulss	xmm0, DWORD PTR __real@3b808081
	lea	ecx, DWORD PTR _color$[ebp]
	movss	DWORD PTR tv1087[ebp], xmm0
	call	??BVector@@QAEPAMXZ			; Vector::operator float *
	mov	ecx, 4
	shl	ecx, 1
	movss	xmm0, DWORD PTR tv1087[ebp]
	movss	DWORD PTR [eax+ecx], xmm0

; 670  : 	}
; 671  : 	else

	jmp	SHORT $LN20@SpriteDraw
$LN19@SpriteDraw:

; 672  : 	{
; 673  : 		color[0] = 1.0f;

	lea	ecx, DWORD PTR _color$[ebp]
	call	??BVector@@QAEPAMXZ			; Vector::operator float *
	mov	ecx, 4
	imul	edx, ecx, 0
	movss	xmm0, DWORD PTR __real@3f800000
	movss	DWORD PTR [eax+edx], xmm0

; 674  : 		color[1] = 1.0f;

	lea	ecx, DWORD PTR _color$[ebp]
	call	??BVector@@QAEPAMXZ			; Vector::operator float *
	mov	ecx, 4
	shl	ecx, 0
	movss	xmm0, DWORD PTR __real@3f800000
	movss	DWORD PTR [eax+ecx], xmm0

; 675  : 		color[2] = 1.0f;

	lea	ecx, DWORD PTR _color$[ebp]
	call	??BVector@@QAEPAMXZ			; Vector::operator float *
	mov	ecx, 4
	shl	ecx, 1
	movss	xmm0, DWORD PTR __real@3f800000
	movss	DWORD PTR [eax+ecx], xmm0
$LN20@SpriteDraw:

; 676  : 	}
; 677  :           
; 678  : 	if( SpriteHasLightmap( m_pSpriteHeader->texFormat ))

	mov	eax, DWORD PTR _this$[ebp]
	mov	ecx, DWORD PTR [eax+68]
	movsx	edx, WORD PTR [ecx+2]
	push	edx
	mov	eax, DWORD PTR _this$[ebp]
	mov	edx, DWORD PTR [eax]
	mov	ecx, DWORD PTR _this$[ebp]
	mov	eax, DWORD PTR [edx+52]
	call	eax
	test	eax, eax
	je	SHORT $LN22@SpriteDraw

; 679  : 	{
; 680  : 		Vector lightColor;

	lea	ecx, DWORD PTR _lightColor$12[ebp]
	call	??0Vector@@QAE@XZ			; Vector::Vector

; 681  : 
; 682  : 		gEngfuncs.pTriAPI->LightAtPoint( sprite_origin, (float *)&lightColor );

	lea	eax, DWORD PTR _lightColor$12[ebp]
	push	eax
	mov	ecx, DWORD PTR _this$[ebp]
	add	ecx, 4
	call	??BVector@@QAEPAMXZ			; Vector::operator float *
	push	eax
	mov	ecx, DWORD PTR ?gEngfuncs@@3Ucl_enginefuncs_s@@A+328
	mov	edx, DWORD PTR [ecx+68]
	call	edx
	add	esp, 8

; 683  : 		color2 = lightColor * ( 1.0f / 255.0f );

	push	ecx
	movss	xmm0, DWORD PTR __real@3b808081
	movss	DWORD PTR [esp], xmm0
	lea	eax, DWORD PTR $T5[ebp]
	push	eax
	lea	ecx, DWORD PTR _lightColor$12[ebp]
	call	??DVector@@QBE?AV0@M@Z			; Vector::operator*
	mov	ecx, DWORD PTR [eax]
	mov	DWORD PTR _color2$[ebp], ecx
	mov	edx, DWORD PTR [eax+4]
	mov	DWORD PTR _color2$[ebp+4], edx
	mov	eax, DWORD PTR [eax+8]
	mov	DWORD PTR _color2$[ebp+8], eax

; 684  : 
; 685  : 		if( glState.drawTrans )

	cmp	DWORD PTR ?glState@@3UglState_t@@A+32, 0
	je	SHORT $LN23@SpriteDraw

; 686  : 			pglDepthMask( GL_TRUE );

	push	1
	call	DWORD PTR ?pglDepthMask@@3P6GXE@ZA	; pglDepthMask
$LN23@SpriteDraw:

; 687  : 
; 688  : 		// NOTE: sprites with 'lightmap' looks ugly when alpha func is GL_GREATER 0.0
; 689  : 		pglAlphaFunc( GL_GEQUAL, 0.5f );

	push	ecx
	movss	xmm0, DWORD PTR __real@3f000000
	movss	DWORD PTR [esp], xmm0
	push	518					; 00000206H
	call	DWORD PTR ?pglAlphaFunc@@3P6GXIM@ZA	; pglAlphaFunc
$LN22@SpriteDraw:

; 690  : 	}
; 691  : 
; 692  : 	float lerp = 1.0f, ilerp;

	movss	xmm0, DWORD PTR __real@3f800000
	movss	DWORD PTR _lerp$[ebp], xmm0

; 693  : 	mspriteframe_t *frame, *oldframe;
; 694  : 
; 695  : 	if( SpriteAllowLerping( m_pCurrentEntity, m_pSpriteHeader ))

	mov	eax, DWORD PTR _this$[ebp]
	mov	ecx, DWORD PTR [eax+68]
	push	ecx
	mov	edx, DWORD PTR _this$[ebp]
	mov	eax, DWORD PTR [edx+56]
	push	eax
	mov	ecx, DWORD PTR _this$[ebp]
	mov	edx, DWORD PTR [ecx]
	mov	ecx, DWORD PTR _this$[ebp]
	mov	eax, DWORD PTR [edx+56]
	call	eax
	test	eax, eax
	je	SHORT $LN24@SpriteDraw

; 696  : 		lerp = GetSpriteFrameInterpolant( &oldframe, &frame );

	lea	eax, DWORD PTR _frame$[ebp]
	push	eax
	lea	ecx, DWORD PTR _oldframe$[ebp]
	push	ecx
	mov	edx, DWORD PTR _this$[ebp]
	mov	eax, DWORD PTR [edx]
	mov	ecx, DWORD PTR _this$[ebp]
	mov	edx, DWORD PTR [eax+20]
	call	edx
	fstp	DWORD PTR _lerp$[ebp]

; 697  : 	else

	jmp	SHORT $LN25@SpriteDraw
$LN24@SpriteDraw:

; 698  : 		frame = oldframe = GetSpriteFrame( m_pCurrentEntity->curstate.frame, m_pCurrentEntity->angles[YAW] );

	mov	eax, DWORD PTR _this$[ebp]
	mov	ecx, DWORD PTR [eax+56]
	add	ecx, 2900				; 00000b54H
	call	??BVector@@QAEPAMXZ			; Vector::operator float *
	mov	ecx, 4
	shl	ecx, 0
	push	ecx
	movss	xmm0, DWORD PTR [eax+ecx]
	movss	DWORD PTR [esp], xmm0
	mov	edx, DWORD PTR _this$[ebp]
	mov	eax, DWORD PTR [edx+56]
	cvttss2si ecx, DWORD PTR [eax+736]
	push	ecx
	mov	edx, DWORD PTR _this$[ebp]
	mov	eax, DWORD PTR [edx]
	mov	ecx, DWORD PTR _this$[ebp]
	mov	edx, DWORD PTR [eax+16]
	call	edx
	mov	DWORD PTR _oldframe$[ebp], eax
	mov	eax, DWORD PTR _oldframe$[ebp]
	mov	DWORD PTR _frame$[ebp], eax
$LN25@SpriteDraw:

; 699  : 
; 700  : 	int type;
; 701  : 	if( m_pCurrentEntity->curstate.iuser1 > 0 )

	mov	eax, DWORD PTR _this$[ebp]
	mov	ecx, DWORD PTR [eax+56]
	cmp	DWORD PTR [ecx+948], 0
	jle	SHORT $LN26@SpriteDraw

; 702  : 		type = m_pCurrentEntity->curstate.iuser1 - 1; // diffusion - use custom angle type

	mov	eax, DWORD PTR _this$[ebp]
	mov	ecx, DWORD PTR [eax+56]
	mov	edx, DWORD PTR [ecx+948]
	sub	edx, 1
	mov	DWORD PTR _type$[ebp], edx

; 703  : 	else

	jmp	SHORT $LN27@SpriteDraw
$LN26@SpriteDraw:

; 704  : 		type = m_pSpriteHeader->type;

	mov	eax, DWORD PTR _this$[ebp]
	mov	ecx, DWORD PTR [eax+68]
	movsx	edx, WORD PTR [ecx]
	mov	DWORD PTR _type$[ebp], edx
$LN27@SpriteDraw:

; 705  : 
; 706  : 	// automatically roll parallel sprites if requested
; 707  : 	if( m_pCurrentEntity->angles[ROLL] != 0.0f && type == SPR_FWD_PARALLEL )

	mov	eax, DWORD PTR _this$[ebp]
	mov	ecx, DWORD PTR [eax+56]
	add	ecx, 2900				; 00000b54H
	call	??BVector@@QAEPAMXZ			; Vector::operator float *
	mov	ecx, 4
	shl	ecx, 1
	movss	xmm0, DWORD PTR [eax+ecx]
	ucomiss	xmm0, DWORD PTR __real@00000000
	lahf
	test	ah, 68					; 00000044H
	jnp	SHORT $LN28@SpriteDraw
	cmp	DWORD PTR _type$[ebp], 2
	jne	SHORT $LN28@SpriteDraw

; 708  : 		type = SPR_FWD_PARALLEL_ORIENTED;

	mov	DWORD PTR _type$[ebp], 4
$LN28@SpriteDraw:

; 709  : 
; 710  : 	Vector v_forward, v_right, v_up;

	lea	ecx, DWORD PTR _v_forward$[ebp]
	call	??0Vector@@QAE@XZ			; Vector::Vector
	lea	ecx, DWORD PTR _v_right$[ebp]
	call	??0Vector@@QAE@XZ			; Vector::Vector
	lea	ecx, DWORD PTR _v_up$[ebp]
	call	??0Vector@@QAE@XZ			; Vector::Vector

; 711  : 
; 712  : 	switch( type )

	mov	eax, DWORD PTR _type$[ebp]
	mov	DWORD PTR tv324[ebp], eax
	cmp	DWORD PTR tv324[ebp], 4
	ja	$LN35@SpriteDraw
	mov	ecx, DWORD PTR tv324[ebp]
	jmp	DWORD PTR $LN63@SpriteDraw[ecx*4]
$LN29@SpriteDraw:

; 713  : 	{
; 714  : 	case SPR_ORIENTED:
; 715  : 		AngleVectors( m_pCurrentEntity->angles, v_forward, v_right, v_up );

	lea	ecx, DWORD PTR _v_up$[ebp]
	call	??BVector@@QAEPAMXZ			; Vector::operator float *
	push	eax
	lea	ecx, DWORD PTR _v_right$[ebp]
	call	??BVector@@QAEPAMXZ			; Vector::operator float *
	push	eax
	lea	ecx, DWORD PTR _v_forward$[ebp]
	call	??BVector@@QAEPAMXZ			; Vector::operator float *
	push	eax
	mov	eax, DWORD PTR _this$[ebp]
	mov	ecx, DWORD PTR [eax+56]
	add	ecx, 2900				; 00000b54H
	call	??BVector@@QAEPAMXZ			; Vector::operator float *
	push	eax
	call	DWORD PTR ?gEngfuncs@@3Ucl_enginefuncs_s@@A+96
	add	esp, 16					; 00000010H

; 716  : 		sprite_origin = sprite_origin - v_forward * 0.05f; // to avoid z-fighting

	push	ecx
	movss	xmm0, DWORD PTR __real@3d4ccccd
	movss	DWORD PTR [esp], xmm0
	lea	eax, DWORD PTR $T4[ebp]
	push	eax
	lea	ecx, DWORD PTR _v_forward$[ebp]
	call	??DVector@@QBE?AV0@M@Z			; Vector::operator*
	push	eax
	lea	ecx, DWORD PTR $T3[ebp]
	push	ecx
	mov	ecx, DWORD PTR _this$[ebp]
	add	ecx, 4
	call	??GVector@@QBE?AV0@ABV0@@Z		; Vector::operator-
	mov	edx, DWORD PTR _this$[ebp]
	add	edx, 4
	mov	ecx, DWORD PTR [eax]
	mov	DWORD PTR [edx], ecx
	mov	ecx, DWORD PTR [eax+4]
	mov	DWORD PTR [edx+4], ecx
	mov	eax, DWORD PTR [eax+8]
	mov	DWORD PTR [edx+8], eax

; 717  : 		break;

	jmp	$LN4@SpriteDraw
$LN30@SpriteDraw:

; 718  : 	case SPR_FACING_UPRIGHT:
; 719  : 		v_right.x = sprite_origin.y - RI->vieworg.y;

	mov	eax, DWORD PTR _this$[ebp]
	mov	ecx, DWORD PTR ?RI@@3PAUref_instance_t@@A ; RI
	movss	xmm0, DWORD PTR [eax+8]
	subss	xmm0, DWORD PTR [ecx+208]
	movss	DWORD PTR _v_right$[ebp], xmm0

; 720  : 		v_right.y = -(sprite_origin.x - RI->vieworg.x);

	mov	eax, DWORD PTR _this$[ebp]
	mov	ecx, DWORD PTR ?RI@@3PAUref_instance_t@@A ; RI
	movss	xmm0, DWORD PTR [eax+4]
	subss	xmm0, DWORD PTR [ecx+204]
	xorps	xmm0, DWORD PTR __xmm@80000000800000008000000080000000
	movss	DWORD PTR _v_right$[ebp+4], xmm0

; 721  : 		v_right.z = 0.0f;

	xorps	xmm0, xmm0
	movss	DWORD PTR _v_right$[ebp+8], xmm0

; 722  : 		v_up.x = v_up.y = 0.0f;

	xorps	xmm0, xmm0
	movss	DWORD PTR _v_up$[ebp+4], xmm0
	movss	xmm0, DWORD PTR _v_up$[ebp+4]
	movss	DWORD PTR _v_up$[ebp], xmm0

; 723  : 		v_up.z = 1.0f;

	movss	xmm0, DWORD PTR __real@3f800000
	movss	DWORD PTR _v_up$[ebp+8], xmm0

; 724  : 		v_right = v_right.Normalize();

	lea	eax, DWORD PTR $T2[ebp]
	push	eax
	lea	ecx, DWORD PTR _v_right$[ebp]
	call	?Normalize@Vector@@QBE?AV1@XZ		; Vector::Normalize
	mov	ecx, DWORD PTR [eax]
	mov	DWORD PTR _v_right$[ebp], ecx
	mov	edx, DWORD PTR [eax+4]
	mov	DWORD PTR _v_right$[ebp+4], edx
	mov	eax, DWORD PTR [eax+8]
	mov	DWORD PTR _v_right$[ebp+8], eax

; 725  : 		break;

	jmp	$LN4@SpriteDraw
$LN31@SpriteDraw:

; 726  : 	case SPR_FWD_PARALLEL_UPRIGHT:
; 727  : 		{
; 728  : 			float dot = RI->vforward.z;

	mov	eax, DWORD PTR ?RI@@3PAUref_instance_t@@A ; RI
	movss	xmm0, DWORD PTR [eax+236]
	movss	DWORD PTR _dot$11[ebp], xmm0

; 729  : 			if(( dot > 0.999848f ) || ( dot < -0.999848f ))	// cos(1 degree) = 0.999848

	movss	xmm0, DWORD PTR _dot$11[ebp]
	comiss	xmm0, DWORD PTR __real@3f7ff60a
	ja	SHORT $LN33@SpriteDraw
	movss	xmm0, DWORD PTR __real@bf7ff60a
	comiss	xmm0, DWORD PTR _dot$11[ebp]
	jbe	SHORT $LN32@SpriteDraw
$LN33@SpriteDraw:

; 730  : 				return; // invisible

	jmp	$LN1@SpriteDraw
$LN32@SpriteDraw:

; 731  : 
; 732  : 			v_right.x = RI->vforward.y;

	mov	eax, DWORD PTR ?RI@@3PAUref_instance_t@@A ; RI
	movss	xmm0, DWORD PTR [eax+232]
	movss	DWORD PTR _v_right$[ebp], xmm0

; 733  : 			v_right.y = -RI->vforward.x;

	mov	eax, DWORD PTR ?RI@@3PAUref_instance_t@@A ; RI
	movss	xmm0, DWORD PTR [eax+228]
	xorps	xmm0, DWORD PTR __xmm@80000000800000008000000080000000
	movss	DWORD PTR _v_right$[ebp+4], xmm0

; 734  : 			v_right.z = 0.0f;

	xorps	xmm0, xmm0
	movss	DWORD PTR _v_right$[ebp+8], xmm0

; 735  : 			v_up.x = v_up.y = 0.0f;

	xorps	xmm0, xmm0
	movss	DWORD PTR _v_up$[ebp+4], xmm0
	movss	xmm0, DWORD PTR _v_up$[ebp+4]
	movss	DWORD PTR _v_up$[ebp], xmm0

; 736  : 			v_up.z = 1.0f;

	movss	xmm0, DWORD PTR __real@3f800000
	movss	DWORD PTR _v_up$[ebp+8], xmm0

; 737  : 			v_right = v_right.Normalize();

	lea	eax, DWORD PTR $T1[ebp]
	push	eax
	lea	ecx, DWORD PTR _v_right$[ebp]
	call	?Normalize@Vector@@QBE?AV1@XZ		; Vector::Normalize
	mov	ecx, DWORD PTR [eax]
	mov	DWORD PTR _v_right$[ebp], ecx
	mov	edx, DWORD PTR [eax+4]
	mov	DWORD PTR _v_right$[ebp+4], edx
	mov	eax, DWORD PTR [eax+8]
	mov	DWORD PTR _v_right$[ebp+8], eax

; 738  : 		}
; 739  : 		break;

	jmp	$LN4@SpriteDraw
$LN34@SpriteDraw:

; 740  : 	case SPR_FWD_PARALLEL_ORIENTED:
; 741  : 		{
; 742  : 			float angle = m_pCurrentEntity->angles[ROLL] * (M_PI * 2.0f / 360.0f);

	mov	eax, DWORD PTR _this$[ebp]
	mov	ecx, DWORD PTR [eax+56]
	add	ecx, 2900				; 00000b54H
	call	??BVector@@QAEPAMXZ			; Vector::operator float *
	mov	ecx, 4
	shl	ecx, 1
	cvtss2sd xmm0, DWORD PTR [eax+ecx]
	mulsd	xmm0, QWORD PTR __real@3f91df46a2529d39
	cvtsd2ss xmm0, xmm0
	movss	DWORD PTR _angle$10[ebp], xmm0

; 743  : 			float sr, cr;
; 744  : 
; 745  : 			SinCos( angle, &sr, &cr );

	lea	eax, DWORD PTR _cr$8[ebp]
	push	eax
	lea	ecx, DWORD PTR _sr$9[ebp]
	push	ecx
	push	ecx
	movss	xmm0, DWORD PTR _angle$10[ebp]
	movss	DWORD PTR [esp], xmm0
	call	?SinCos@@YAXMPAM0@Z			; SinCos
	add	esp, 12					; 0000000cH

; 746  : 
; 747  : 			for( int i = 0; i < 3; i++ )

	mov	DWORD PTR _i$7[ebp], 0
	jmp	SHORT $LN8@SpriteDraw
$LN6@SpriteDraw:
	mov	eax, DWORD PTR _i$7[ebp]
	add	eax, 1
	mov	DWORD PTR _i$7[ebp], eax
$LN8@SpriteDraw:
	cmp	DWORD PTR _i$7[ebp], 3
	jge	$LN7@SpriteDraw

; 748  : 			{
; 749  : 				v_right[i] = (RI->vright[i] * cr + RI->vup[i] * sr);

	mov	ecx, DWORD PTR ?RI@@3PAUref_instance_t@@A ; RI
	add	ecx, 240				; 000000f0H
	call	??BVector@@QAEPAMXZ			; Vector::operator float *
	mov	ecx, DWORD PTR _i$7[ebp]
	movss	xmm0, DWORD PTR [eax+ecx*4]
	mulss	xmm0, DWORD PTR _cr$8[ebp]
	mov	ecx, DWORD PTR ?RI@@3PAUref_instance_t@@A ; RI
	add	ecx, 252				; 000000fcH
	movss	DWORD PTR tv1089[ebp], xmm0
	call	??BVector@@QAEPAMXZ			; Vector::operator float *
	mov	edx, DWORD PTR _i$7[ebp]
	movss	xmm0, DWORD PTR [eax+edx*4]
	mulss	xmm0, DWORD PTR _sr$9[ebp]
	movss	xmm1, DWORD PTR tv1089[ebp]
	addss	xmm1, xmm0
	lea	ecx, DWORD PTR _v_right$[ebp]
	movss	DWORD PTR tv1091[ebp], xmm1
	call	??BVector@@QAEPAMXZ			; Vector::operator float *
	mov	ecx, DWORD PTR _i$7[ebp]
	movss	xmm0, DWORD PTR tv1091[ebp]
	movss	DWORD PTR [eax+ecx*4], xmm0

; 750  : 				v_up[i] = RI->vright[i] * -sr + RI->vup[i] * cr;

	mov	ecx, DWORD PTR ?RI@@3PAUref_instance_t@@A ; RI
	add	ecx, 240				; 000000f0H
	call	??BVector@@QAEPAMXZ			; Vector::operator float *
	movss	xmm0, DWORD PTR _sr$9[ebp]
	xorps	xmm0, DWORD PTR __xmm@80000000800000008000000080000000
	mov	ecx, DWORD PTR _i$7[ebp]
	mulss	xmm0, DWORD PTR [eax+ecx*4]
	mov	ecx, DWORD PTR ?RI@@3PAUref_instance_t@@A ; RI
	add	ecx, 252				; 000000fcH
	movss	DWORD PTR tv1093[ebp], xmm0
	call	??BVector@@QAEPAMXZ			; Vector::operator float *
	mov	edx, DWORD PTR _i$7[ebp]
	movss	xmm0, DWORD PTR [eax+edx*4]
	mulss	xmm0, DWORD PTR _cr$8[ebp]
	movss	xmm1, DWORD PTR tv1093[ebp]
	addss	xmm1, xmm0
	lea	ecx, DWORD PTR _v_up$[ebp]
	movss	DWORD PTR tv1095[ebp], xmm1
	call	??BVector@@QAEPAMXZ			; Vector::operator float *
	mov	ecx, DWORD PTR _i$7[ebp]
	movss	xmm0, DWORD PTR tv1095[ebp]
	movss	DWORD PTR [eax+ecx*4], xmm0

; 751  : 			}

	jmp	$LN6@SpriteDraw
$LN7@SpriteDraw:

; 752  : 		}
; 753  : 		break;

	jmp	SHORT $LN4@SpriteDraw
$LN35@SpriteDraw:

; 754  : 	case SPR_FWD_PARALLEL: // normal sprite
; 755  : 	default:
; 756  : 	#if 1
; 757  : 		v_right = RI->vright; 

	mov	eax, DWORD PTR ?RI@@3PAUref_instance_t@@A ; RI
	add	eax, 240				; 000000f0H
	mov	ecx, DWORD PTR [eax]
	mov	DWORD PTR _v_right$[ebp], ecx
	mov	edx, DWORD PTR [eax+4]
	mov	DWORD PTR _v_right$[ebp+4], edx
	mov	eax, DWORD PTR [eax+8]
	mov	DWORD PTR _v_right$[ebp+8], eax

; 758  : 		v_up = RI->vup;

	mov	eax, DWORD PTR ?RI@@3PAUref_instance_t@@A ; RI
	add	eax, 252				; 000000fcH
	mov	ecx, DWORD PTR [eax]
	mov	DWORD PTR _v_up$[ebp], ecx
	mov	edx, DWORD PTR [eax+4]
	mov	DWORD PTR _v_up$[ebp+4], edx
	mov	eax, DWORD PTR [eax+8]
	mov	DWORD PTR _v_up$[ebp+8], eax
$LN4@SpriteDraw:

; 759  : 	#else
; 760  : 		// diffusion - look at player, but don't rotate with view rotation
; 761  : 		Vector ViewVec;
; 762  : 		VectorAngles( m_pCurrentEntity->curstate.origin - RI->vieworg, ViewVec );
; 763  : 		gEngfuncs.pfnAngleVectors( ViewVec, NULL, v_right, v_up );
; 764  : 	#endif
; 765  : 		break;
; 766  : 	}
; 767  : 
; 768  : 	R_LoadIdentity();

	call	?R_LoadIdentity@@YAXXZ			; R_LoadIdentity

; 769  : 
; 770  : 	if( m_pSpriteHeader->facecull == SPR_CULL_NONE || m_pCurrentEntity->curstate.renderfx == kRenderFxTwoSide )

	mov	eax, DWORD PTR _this$[ebp]
	mov	ecx, DWORD PTR [eax+68]
	cmp	DWORD PTR [ecx+20], 1
	je	SHORT $LN37@SpriteDraw
	mov	eax, DWORD PTR _this$[ebp]
	mov	ecx, DWORD PTR [eax+56]
	cmp	DWORD PTR [ecx+772], 27			; 0000001bH
	jne	SHORT $LN36@SpriteDraw
$LN37@SpriteDraw:

; 771  : 		GL_Cull( GL_NONE );

	push	0
	call	?GL_Cull@@YAXI@Z			; GL_Cull
	add	esp, 4
$LN36@SpriteDraw:

; 772  : 		
; 773  : 	if( oldframe == frame )

	mov	eax, DWORD PTR _oldframe$[ebp]
	cmp	eax, DWORD PTR _frame$[ebp]
	jne	$LN38@SpriteDraw

; 774  : 	{
; 775  : 		// draw the single non-lerped frame
; 776  : 		pglColor4f( color[0], color[1], color[2], tr.blend );

	push	ecx
	movss	xmm0, DWORD PTR ?tr@@3Uref_globals_t@@A+5830912
	movss	DWORD PTR [esp], xmm0
	lea	ecx, DWORD PTR _color$[ebp]
	call	??BVector@@QAEPAMXZ			; Vector::operator float *
	mov	ecx, 4
	shl	ecx, 1
	push	ecx
	movss	xmm0, DWORD PTR [eax+ecx]
	movss	DWORD PTR [esp], xmm0
	lea	ecx, DWORD PTR _color$[ebp]
	call	??BVector@@QAEPAMXZ			; Vector::operator float *
	mov	edx, 4
	shl	edx, 0
	push	ecx
	movss	xmm0, DWORD PTR [eax+edx]
	movss	DWORD PTR [esp], xmm0
	lea	ecx, DWORD PTR _color$[ebp]
	call	??BVector@@QAEPAMXZ			; Vector::operator float *
	mov	ecx, 4
	imul	edx, ecx, 0
	push	ecx
	movss	xmm0, DWORD PTR [eax+edx]
	movss	DWORD PTR [esp], xmm0
	call	DWORD PTR ?pglColor4f@@3P6GXMMMM@ZA	; pglColor4f

; 777  : 		GL_Bind( GL_TEXTURE0, frame->gl_texturenum );

	mov	eax, DWORD PTR _frame$[ebp]
	mov	ecx, DWORD PTR [eax+24]
	push	ecx
	push	0
	call	DWORD PTR ?gRenderfuncs@@3Urender_api_s@@A+132
	add	esp, 8

; 778  : 		DrawSpriteQuad( frame, sprite_origin, v_right, v_up, scale );

	push	ecx
	movss	xmm0, DWORD PTR _scale$[ebp]
	movss	DWORD PTR [esp], xmm0
	lea	eax, DWORD PTR _v_up$[ebp]
	push	eax
	lea	ecx, DWORD PTR _v_right$[ebp]
	push	ecx
	mov	edx, DWORD PTR _this$[ebp]
	add	edx, 4
	push	edx
	mov	eax, DWORD PTR _frame$[ebp]
	push	eax
	mov	ecx, DWORD PTR _this$[ebp]
	mov	edx, DWORD PTR [ecx]
	mov	ecx, DWORD PTR _this$[ebp]
	mov	eax, DWORD PTR [edx+48]
	call	eax

; 779  : 	}
; 780  : 	else

	jmp	$LN41@SpriteDraw
$LN38@SpriteDraw:

; 781  : 	{
; 782  : 		// draw two combined lerped frames
; 783  : 		lerp = bound( 0.0f, lerp, 1.0f );

	movss	xmm0, DWORD PTR _lerp$[ebp]
	comiss	xmm0, DWORD PTR __real@00000000
	jb	SHORT $LN60@SpriteDraw
	movss	xmm0, DWORD PTR __real@3f800000
	comiss	xmm0, DWORD PTR _lerp$[ebp]
	jbe	SHORT $LN58@SpriteDraw
	movss	xmm0, DWORD PTR _lerp$[ebp]
	movss	DWORD PTR tv504[ebp], xmm0
	jmp	SHORT $LN59@SpriteDraw
$LN58@SpriteDraw:
	movss	xmm0, DWORD PTR __real@3f800000
	movss	DWORD PTR tv504[ebp], xmm0
$LN59@SpriteDraw:
	movss	xmm0, DWORD PTR tv504[ebp]
	movss	DWORD PTR tv505[ebp], xmm0
	jmp	SHORT $LN61@SpriteDraw
$LN60@SpriteDraw:
	xorps	xmm0, xmm0
	movss	DWORD PTR tv505[ebp], xmm0
$LN61@SpriteDraw:
	movss	xmm0, DWORD PTR tv505[ebp]
	movss	DWORD PTR _lerp$[ebp], xmm0

; 784  : 		ilerp = 1.0f - lerp;

	movss	xmm0, DWORD PTR __real@3f800000
	subss	xmm0, DWORD PTR _lerp$[ebp]
	movss	DWORD PTR _ilerp$[ebp], xmm0

; 785  : 
; 786  : 		if( ilerp != 0 )

	movss	xmm0, DWORD PTR _ilerp$[ebp]
	ucomiss	xmm0, DWORD PTR __real@00000000
	lahf
	test	ah, 68					; 00000044H
	jnp	$LN40@SpriteDraw

; 787  : 		{
; 788  : 			pglColor4f( color[0], color[1], color[2], tr.blend * ilerp );

	movss	xmm0, DWORD PTR ?tr@@3Uref_globals_t@@A+5830912
	mulss	xmm0, DWORD PTR _ilerp$[ebp]
	push	ecx
	movss	DWORD PTR [esp], xmm0
	lea	ecx, DWORD PTR _color$[ebp]
	call	??BVector@@QAEPAMXZ			; Vector::operator float *
	mov	ecx, 4
	shl	ecx, 1
	push	ecx
	movss	xmm0, DWORD PTR [eax+ecx]
	movss	DWORD PTR [esp], xmm0
	lea	ecx, DWORD PTR _color$[ebp]
	call	??BVector@@QAEPAMXZ			; Vector::operator float *
	mov	edx, 4
	shl	edx, 0
	push	ecx
	movss	xmm0, DWORD PTR [eax+edx]
	movss	DWORD PTR [esp], xmm0
	lea	ecx, DWORD PTR _color$[ebp]
	call	??BVector@@QAEPAMXZ			; Vector::operator float *
	mov	ecx, 4
	imul	edx, ecx, 0
	push	ecx
	movss	xmm0, DWORD PTR [eax+edx]
	movss	DWORD PTR [esp], xmm0
	call	DWORD PTR ?pglColor4f@@3P6GXMMMM@ZA	; pglColor4f

; 789  : 			GL_Bind( GL_TEXTURE0, oldframe->gl_texturenum );

	mov	eax, DWORD PTR _oldframe$[ebp]
	mov	ecx, DWORD PTR [eax+24]
	push	ecx
	push	0
	call	DWORD PTR ?gRenderfuncs@@3Urender_api_s@@A+132
	add	esp, 8

; 790  : 			DrawSpriteQuad( oldframe, sprite_origin, v_right, v_up, scale );

	push	ecx
	movss	xmm0, DWORD PTR _scale$[ebp]
	movss	DWORD PTR [esp], xmm0
	lea	eax, DWORD PTR _v_up$[ebp]
	push	eax
	lea	ecx, DWORD PTR _v_right$[ebp]
	push	ecx
	mov	edx, DWORD PTR _this$[ebp]
	add	edx, 4
	push	edx
	mov	eax, DWORD PTR _oldframe$[ebp]
	push	eax
	mov	ecx, DWORD PTR _this$[ebp]
	mov	edx, DWORD PTR [ecx]
	mov	ecx, DWORD PTR _this$[ebp]
	mov	eax, DWORD PTR [edx+48]
	call	eax
$LN40@SpriteDraw:

; 791  : 		}
; 792  : 
; 793  : 		if( lerp != 0 )

	movss	xmm0, DWORD PTR _lerp$[ebp]
	ucomiss	xmm0, DWORD PTR __real@00000000
	lahf
	test	ah, 68					; 00000044H
	jnp	$LN41@SpriteDraw

; 794  : 		{
; 795  : 			pglColor4f( color[0], color[1], color[2], tr.blend * lerp );

	movss	xmm0, DWORD PTR ?tr@@3Uref_globals_t@@A+5830912
	mulss	xmm0, DWORD PTR _lerp$[ebp]
	push	ecx
	movss	DWORD PTR [esp], xmm0
	lea	ecx, DWORD PTR _color$[ebp]
	call	??BVector@@QAEPAMXZ			; Vector::operator float *
	mov	ecx, 4
	shl	ecx, 1
	push	ecx
	movss	xmm0, DWORD PTR [eax+ecx]
	movss	DWORD PTR [esp], xmm0
	lea	ecx, DWORD PTR _color$[ebp]
	call	??BVector@@QAEPAMXZ			; Vector::operator float *
	mov	edx, 4
	shl	edx, 0
	push	ecx
	movss	xmm0, DWORD PTR [eax+edx]
	movss	DWORD PTR [esp], xmm0
	lea	ecx, DWORD PTR _color$[ebp]
	call	??BVector@@QAEPAMXZ			; Vector::operator float *
	mov	ecx, 4
	imul	edx, ecx, 0
	push	ecx
	movss	xmm0, DWORD PTR [eax+edx]
	movss	DWORD PTR [esp], xmm0
	call	DWORD PTR ?pglColor4f@@3P6GXMMMM@ZA	; pglColor4f

; 796  : 			GL_Bind( GL_TEXTURE0, frame->gl_texturenum );

	mov	eax, DWORD PTR _frame$[ebp]
	mov	ecx, DWORD PTR [eax+24]
	push	ecx
	push	0
	call	DWORD PTR ?gRenderfuncs@@3Urender_api_s@@A+132
	add	esp, 8

; 797  : 			DrawSpriteQuad( frame, sprite_origin, v_right, v_up, scale );

	push	ecx
	movss	xmm0, DWORD PTR _scale$[ebp]
	movss	DWORD PTR [esp], xmm0
	lea	eax, DWORD PTR _v_up$[ebp]
	push	eax
	lea	ecx, DWORD PTR _v_right$[ebp]
	push	ecx
	mov	edx, DWORD PTR _this$[ebp]
	add	edx, 4
	push	edx
	mov	eax, DWORD PTR _frame$[ebp]
	push	eax
	mov	ecx, DWORD PTR _this$[ebp]
	mov	edx, DWORD PTR [ecx]
	mov	ecx, DWORD PTR _this$[ebp]
	mov	eax, DWORD PTR [edx+48]
	call	eax
$LN41@SpriteDraw:

; 798  : 		}
; 799  : 	}
; 800  : 
; 801  : 	// draw the sprite 'lightmap' :-)
; 802  : 	if( SpriteHasLightmap( m_pSpriteHeader->texFormat ))

	mov	eax, DWORD PTR _this$[ebp]
	mov	ecx, DWORD PTR [eax+68]
	movsx	edx, WORD PTR [ecx+2]
	push	edx
	mov	eax, DWORD PTR _this$[ebp]
	mov	edx, DWORD PTR [eax]
	mov	ecx, DWORD PTR _this$[ebp]
	mov	eax, DWORD PTR [edx+52]
	call	eax
	test	eax, eax
	je	$LN42@SpriteDraw

; 803  : 	{
; 804  : 		if( !r_lightmap->value )

	mov	eax, DWORD PTR ?r_lightmap@@3PAUcvar_s@@A ; r_lightmap
	movss	xmm0, DWORD PTR [eax+12]
	ucomiss	xmm0, DWORD PTR __real@00000000
	lahf
	test	ah, 68					; 00000044H
	jp	SHORT $LN43@SpriteDraw

; 805  : 			pglEnable( GL_BLEND );

	push	3042					; 00000be2H
	call	DWORD PTR ?pglEnable@@3P6GXI@ZA		; pglEnable
	jmp	SHORT $LN44@SpriteDraw
$LN43@SpriteDraw:

; 806  : 		else pglDisable( GL_BLEND );

	push	3042					; 00000be2H
	call	DWORD PTR ?pglDisable@@3P6GXI@ZA	; pglDisable
$LN44@SpriteDraw:

; 807  : 		pglDepthFunc( GL_EQUAL );

	push	514					; 00000202H
	call	DWORD PTR ?pglDepthFunc@@3P6GXI@ZA	; pglDepthFunc

; 808  : 		pglDisable( GL_ALPHA_TEST );

	push	3008					; 00000bc0H
	call	DWORD PTR ?pglDisable@@3P6GXI@ZA	; pglDisable

; 809  : 		pglBlendFunc( GL_ZERO, GL_SRC_COLOR );

	push	768					; 00000300H
	push	0
	call	DWORD PTR ?pglBlendFunc@@3P6GXII@ZA	; pglBlendFunc

; 810  : 		pglTexEnvi( GL_TEXTURE_ENV, GL_TEXTURE_ENV_MODE, GL_MODULATE );

	push	8448					; 00002100H
	push	8704					; 00002200H
	push	8960					; 00002300H
	call	DWORD PTR ?pglTexEnvi@@3P6GXIIH@ZA	; pglTexEnvi

; 811  : 		pglShadeModel( GL_SMOOTH );

	push	7425					; 00001d01H
	call	DWORD PTR ?pglShadeModel@@3P6GXI@ZA	; pglShadeModel

; 812  : 
; 813  : 		GL_Bind( GL_TEXTURE0, tr.whiteTexture );

	mov	eax, DWORD PTR ?tr@@3Uref_globals_t@@A+32
	push	eax
	push	0
	call	DWORD PTR ?gRenderfuncs@@3Urender_api_s@@A+132
	add	esp, 8

; 814  : 		DrawLighting( frame, sprite_origin, v_right, v_up, color2, scale, tr.blend );

	push	ecx
	movss	xmm0, DWORD PTR ?tr@@3Uref_globals_t@@A+5830912
	movss	DWORD PTR [esp], xmm0
	push	ecx
	movss	xmm0, DWORD PTR _scale$[ebp]
	movss	DWORD PTR [esp], xmm0
	lea	eax, DWORD PTR _color2$[ebp]
	push	eax
	lea	ecx, DWORD PTR _v_up$[ebp]
	push	ecx
	lea	edx, DWORD PTR _v_right$[ebp]
	push	edx
	mov	eax, DWORD PTR _this$[ebp]
	add	eax, 4
	push	eax
	mov	ecx, DWORD PTR _frame$[ebp]
	push	ecx
	mov	ecx, DWORD PTR _this$[ebp]
	call	?DrawLighting@CSpriteModelRenderer@@AAEXPAUmspriteframe_s@@ABVVector@@111MM@Z ; CSpriteModelRenderer::DrawLighting

; 815  : 
; 816  : 		pglAlphaFunc( GL_GREATER, DEFAULT_ALPHATEST );

	push	ecx
	xorps	xmm0, xmm0
	movss	DWORD PTR [esp], xmm0
	push	516					; 00000204H
	call	DWORD PTR ?pglAlphaFunc@@3P6GXIM@ZA	; pglAlphaFunc

; 817  : 		if( glState.drawTrans ) 

	cmp	DWORD PTR ?glState@@3UglState_t@@A+32, 0
	je	SHORT $LN45@SpriteDraw

; 818  : 			pglDepthMask( GL_FALSE );

	push	0
	call	DWORD PTR ?pglDepthMask@@3P6GXE@ZA	; pglDepthMask
$LN45@SpriteDraw:

; 819  : 		pglShadeModel( GL_FLAT );

	push	7424					; 00001d00H
	call	DWORD PTR ?pglShadeModel@@3P6GXI@ZA	; pglShadeModel
$LN42@SpriteDraw:

; 820  : 	}
; 821  : 
; 822  : 	if( m_pSpriteHeader->facecull == SPR_CULL_NONE || m_pCurrentEntity->curstate.renderfx == kRenderFxTwoSide )

	mov	eax, DWORD PTR _this$[ebp]
	mov	ecx, DWORD PTR [eax+68]
	cmp	DWORD PTR [ecx+20], 1
	je	SHORT $LN47@SpriteDraw
	mov	eax, DWORD PTR _this$[ebp]
	mov	ecx, DWORD PTR [eax+56]
	cmp	DWORD PTR [ecx+772], 27			; 0000001bH
	jne	SHORT $LN46@SpriteDraw
$LN47@SpriteDraw:

; 823  : 		GL_Cull( GL_NONE );

	push	0
	call	?GL_Cull@@YAXI@Z			; GL_Cull
	add	esp, 4
$LN46@SpriteDraw:

; 824  : 
; 825  : 	if( (m_pCurrentEntity->curstate.rendermode == kRenderGlow) || (m_pCurrentEntity->curstate.rendermode == kRenderConstantGlow) )

	mov	eax, DWORD PTR _this$[ebp]
	mov	ecx, DWORD PTR [eax+56]
	cmp	DWORD PTR [ecx+760], 3
	je	SHORT $LN49@SpriteDraw
	mov	eax, DWORD PTR _this$[ebp]
	mov	ecx, DWORD PTR [eax+56]
	cmp	DWORD PTR [ecx+760], 7
	jne	SHORT $LN48@SpriteDraw
$LN49@SpriteDraw:

; 826  : 		pglEnable( GL_DEPTH_TEST );

	push	2929					; 00000b71H
	call	DWORD PTR ?pglEnable@@3P6GXI@ZA		; pglEnable
$LN48@SpriteDraw:

; 827  : 
; 828  : 	if( m_pSpriteHeader->texFormat == SPR_ALPHTEST && m_pCurrentEntity->curstate.rendermode != kRenderTransAdd )

	mov	eax, DWORD PTR _this$[ebp]
	mov	ecx, DWORD PTR [eax+68]
	movsx	edx, WORD PTR [ecx+2]
	cmp	edx, 3
	jne	SHORT $LN50@SpriteDraw
	mov	eax, DWORD PTR _this$[ebp]
	mov	ecx, DWORD PTR [eax+56]
	cmp	DWORD PTR [ecx+760], 5
	je	SHORT $LN50@SpriteDraw

; 829  : 		pglDisable( GL_ALPHA_TEST );

	push	3008					; 00000bc0H
	call	DWORD PTR ?pglDisable@@3P6GXI@ZA	; pglDisable
$LN50@SpriteDraw:

; 830  : 
; 831  : 	pglDisable( GL_BLEND );

	push	3042					; 00000be2H
	call	DWORD PTR ?pglDisable@@3P6GXI@ZA	; pglDisable

; 832  : 	pglDepthFunc( GL_LEQUAL );

	push	515					; 00000203H
	call	DWORD PTR ?pglDepthFunc@@3P6GXI@ZA	; pglDepthFunc

; 833  : 	pglTexEnvi( GL_TEXTURE_ENV, GL_TEXTURE_ENV_MODE, GL_REPLACE );

	push	7681					; 00001e01H
	push	8704					; 00002200H
	push	8960					; 00002300H
	call	DWORD PTR ?pglTexEnvi@@3P6GXIIH@ZA	; pglTexEnvi

; 834  : 	pglColor4ub( 255, 255, 255, 255 );

	push	255					; 000000ffH
	push	255					; 000000ffH
	push	255					; 000000ffH
	push	255					; 000000ffH
	call	DWORD PTR ?pglColor4ub@@3P6GXEEEE@ZA	; pglColor4ub
$LN1@SpriteDraw:

; 835  : }

	pop	edi
	pop	esi
	pop	ebx
	mov	esp, ebp
	pop	ebp
	ret	0
	npad	2
$LN62@SpriteDraw:
	DD	$LN14@SpriteDraw
	DD	$LN14@SpriteDraw
	DD	$LN15@SpriteDraw
	DD	$LN13@SpriteDraw
	DD	$LN16@SpriteDraw
	DD	$LN14@SpriteDraw
	DD	$LN15@SpriteDraw
$LN63@SpriteDraw:
	DD	$LN31@SpriteDraw
	DD	$LN30@SpriteDraw
	DD	$LN35@SpriteDraw
	DD	$LN29@SpriteDraw
	DD	$LN34@SpriteDraw
?SpriteDrawModel@CSpriteModelRenderer@@UAEXXZ ENDP	; CSpriteModelRenderer::SpriteDrawModel
_TEXT	ENDS
; Function compile flags: /Odtp /ZI
; File d:\!diffusion 2020\source code 2022\client-server\client\render\r_sprite.cpp
;	COMDAT ?Init@CSpriteModelRenderer@@UAEXXZ
_TEXT	SEGMENT
_this$ = -4						; size = 4
?Init@CSpriteModelRenderer@@UAEXXZ PROC			; CSpriteModelRenderer::Init, COMDAT
; _this$ = ecx

; 34   : {

	push	ebp
	mov	ebp, esp
	sub	esp, 68					; 00000044H
	push	ebx
	push	esi
	push	edi
	mov	DWORD PTR _this$[ebp], ecx

; 35   : 	// Set up some variables shared with engine
; 36   : 	m_pCvarLerping		= IEngineStudio.GetCvar( "r_sprite_lerping" );

	push	OFFSET ??_C@_0BB@EJMBDKPM@r_sprite_lerping?$AA@
	call	DWORD PTR ?IEngineStudio@@3Uengine_studio_api_s@@A+44
	add	esp, 4
	mov	ecx, DWORD PTR _this$[ebp]
	mov	DWORD PTR [ecx+44], eax

; 37   : 	m_pCvarLighting		= IEngineStudio.GetCvar( "r_sprite_lighting" );

	push	OFFSET ??_C@_0BC@BJEEPELI@r_sprite_lighting?$AA@
	call	DWORD PTR ?IEngineStudio@@3Uengine_studio_api_s@@A+44
	add	esp, 4
	mov	ecx, DWORD PTR _this$[ebp]
	mov	DWORD PTR [ecx+48], eax

; 38   : 	m_pCvarTraceGlow		= IEngineStudio.GetCvar( "r_traceglow" );

	push	OFFSET ??_C@_0M@BNLCJNG@r_traceglow?$AA@
	call	DWORD PTR ?IEngineStudio@@3Uengine_studio_api_s@@A+44
	add	esp, 4
	mov	ecx, DWORD PTR _this$[ebp]
	mov	DWORD PTR [ecx+52], eax

; 39   : }

	pop	edi
	pop	esi
	pop	ebx
	mov	esp, ebp
	pop	ebp
	ret	0
?Init@CSpriteModelRenderer@@UAEXXZ ENDP			; CSpriteModelRenderer::Init
_TEXT	ENDS
; Function compile flags: /Odtp /ZI
; File d:\!diffusion 2020\source code 2022\client-server\client\render\r_sprite.cpp
;	COMDAT ??1CSpriteModelRenderer@@UAE@XZ
_TEXT	SEGMENT
_this$ = -4						; size = 4
??1CSpriteModelRenderer@@UAE@XZ PROC			; CSpriteModelRenderer::~CSpriteModelRenderer, COMDAT
; _this$ = ecx

; 58   : {

	push	ebp
	mov	ebp, esp
	sub	esp, 68					; 00000044H
	push	ebx
	push	esi
	push	edi
	mov	DWORD PTR _this$[ebp], ecx
	mov	eax, DWORD PTR _this$[ebp]
	mov	DWORD PTR [eax], OFFSET ??_7CSpriteModelRenderer@@6B@

; 59   : }

	pop	edi
	pop	esi
	pop	ebx
	mov	esp, ebp
	pop	ebp
	ret	0
??1CSpriteModelRenderer@@UAE@XZ ENDP			; CSpriteModelRenderer::~CSpriteModelRenderer
_TEXT	ENDS
; Function compile flags: /Odtp /ZI
; File d:\!diffusion 2020\source code 2022\client-server\client\render\r_sprite.cpp
;	COMDAT ??0CSpriteModelRenderer@@QAE@XZ
_TEXT	SEGMENT
_this$ = -4						; size = 4
??0CSpriteModelRenderer@@QAE@XZ PROC			; CSpriteModelRenderer::CSpriteModelRenderer, COMDAT
; _this$ = ecx

; 48   : {

	push	ebp
	mov	ebp, esp
	sub	esp, 68					; 00000044H
	push	ebx
	push	esi
	push	edi
	mov	DWORD PTR _this$[ebp], ecx
	mov	eax, DWORD PTR _this$[ebp]
	mov	DWORD PTR [eax], OFFSET ??_7CSpriteModelRenderer@@6B@
	mov	ecx, DWORD PTR _this$[ebp]
	add	ecx, 4
	call	??0Vector@@QAE@XZ			; Vector::Vector
	mov	ecx, DWORD PTR _this$[ebp]
	add	ecx, 16					; 00000010H
	call	??0Vector@@QAE@XZ			; Vector::Vector
	mov	ecx, DWORD PTR _this$[ebp]
	add	ecx, 28					; 0000001cH
	call	??0Vector@@QAE@XZ			; Vector::Vector

; 49   : 	m_fDoInterp	= true;

	mov	eax, DWORD PTR _this$[ebp]
	mov	DWORD PTR [eax+40], 1

; 50   : 	m_pCurrentEntity	= NULL;

	mov	eax, DWORD PTR _this$[ebp]
	mov	DWORD PTR [eax+56], 0

; 51   : 	m_pCvarLerping	= NULL;

	mov	eax, DWORD PTR _this$[ebp]
	mov	DWORD PTR [eax+44], 0

; 52   : 	m_pCvarLighting	= NULL;

	mov	eax, DWORD PTR _this$[ebp]
	mov	DWORD PTR [eax+48], 0

; 53   : 	m_pSpriteHeader	= NULL;

	mov	eax, DWORD PTR _this$[ebp]
	mov	DWORD PTR [eax+68], 0

; 54   : 	m_pRenderModel	= NULL;

	mov	eax, DWORD PTR _this$[ebp]
	mov	DWORD PTR [eax+60], 0

; 55   : }

	mov	eax, DWORD PTR _this$[ebp]
	pop	edi
	pop	esi
	pop	ebx
	mov	esp, ebp
	pop	ebp
	ret	0
??0CSpriteModelRenderer@@QAE@XZ ENDP			; CSpriteModelRenderer::CSpriteModelRenderer
_TEXT	ENDS
; Function compile flags: /Odtp /ZI
; File d:\!diffusion 2020\source code 2022\client-server\client\render\r_studio.h
;	COMDAT ?R_StudioAttachmentOrigin@@YA?AVVector@@PBUcl_entity_s@@HH@Z
_TEXT	SEGMENT
_origin$ = -12						; size = 12
___$ReturnUdt$ = 8					; size = 4
_ent$ = 12						; size = 4
_num$ = 16						; size = 4
_flags$ = 20						; size = 4
?R_StudioAttachmentOrigin@@YA?AVVector@@PBUcl_entity_s@@HH@Z PROC ; R_StudioAttachmentOrigin, COMDAT

; 745  : {

	push	ebp
	mov	ebp, esp
	sub	esp, 76					; 0000004cH
	push	ebx
	push	esi
	push	edi

; 746  : 	Vector origin = g_vecZero;

	push	OFFSET ?g_vecZero@@3VVector@@B		; g_vecZero
	lea	ecx, DWORD PTR _origin$[ebp]
	call	??0Vector@@QAE@ABV0@@Z			; Vector::Vector

; 747  : 
; 748  : 	g_StudioRenderer.StudioGetAttachment( ent, num, &origin, NULL, flags );

	mov	eax, DWORD PTR _flags$[ebp]
	push	eax
	push	0
	lea	ecx, DWORD PTR _origin$[ebp]
	push	ecx
	mov	edx, DWORD PTR _num$[ebp]
	push	edx
	mov	eax, DWORD PTR _ent$[ebp]
	push	eax
	mov	ecx, OFFSET ?g_StudioRenderer@@3VCStudioModelRenderer@@A ; g_StudioRenderer
	call	?StudioGetAttachment@CStudioModelRenderer@@QAEXPBUcl_entity_s@@HPAVVector@@1H@Z ; CStudioModelRenderer::StudioGetAttachment

; 749  : 
; 750  : 	return origin;

	lea	eax, DWORD PTR _origin$[ebp]
	push	eax
	mov	ecx, DWORD PTR ___$ReturnUdt$[ebp]
	call	??0Vector@@QAE@ABV0@@Z			; Vector::Vector
	mov	eax, DWORD PTR ___$ReturnUdt$[ebp]

; 751  : }

	pop	edi
	pop	esi
	pop	ebx
	mov	esp, ebp
	pop	ebp
	ret	0
?R_StudioAttachmentOrigin@@YA?AVVector@@PBUcl_entity_s@@HH@Z ENDP ; R_StudioAttachmentOrigin
_TEXT	ENDS
; Function compile flags: /Odtp /ZI
;	COMDAT ??0pmtrace_s@@QAE@XZ
_TEXT	SEGMENT
_this$ = -4						; size = 4
??0pmtrace_s@@QAE@XZ PROC				; pmtrace_s::pmtrace_s, COMDAT
; _this$ = ecx
	push	ebp
	mov	ebp, esp
	sub	esp, 68					; 00000044H
	push	ebx
	push	esi
	push	edi
	mov	DWORD PTR _this$[ebp], ecx
	mov	ecx, DWORD PTR _this$[ebp]
	add	ecx, 20					; 00000014H
	call	??0Vector@@QAE@XZ			; Vector::Vector
	mov	ecx, DWORD PTR _this$[ebp]
	add	ecx, 32					; 00000020H
	call	??0pmplane_t@@QAE@XZ
	mov	ecx, DWORD PTR _this$[ebp]
	add	ecx, 52					; 00000034H
	call	??0Vector@@QAE@XZ			; Vector::Vector
	mov	eax, DWORD PTR _this$[ebp]
	pop	edi
	pop	esi
	pop	ebx
	mov	esp, ebp
	pop	ebp
	ret	0
??0pmtrace_s@@QAE@XZ ENDP				; pmtrace_s::pmtrace_s
_TEXT	ENDS
; Function compile flags: /Odtp /ZI
;	COMDAT ??0pmplane_t@@QAE@XZ
_TEXT	SEGMENT
_this$ = -4						; size = 4
??0pmplane_t@@QAE@XZ PROC				; pmplane_t::pmplane_t, COMDAT
; _this$ = ecx
	push	ebp
	mov	ebp, esp
	sub	esp, 68					; 00000044H
	push	ebx
	push	esi
	push	edi
	mov	DWORD PTR _this$[ebp], ecx
	mov	ecx, DWORD PTR _this$[ebp]
	call	??0Vector@@QAE@XZ			; Vector::Vector
	mov	eax, DWORD PTR _this$[ebp]
	pop	edi
	pop	esi
	pop	ebx
	mov	esp, ebp
	pop	ebp
	ret	0
??0pmplane_t@@QAE@XZ ENDP				; pmplane_t::pmplane_t
_TEXT	ENDS
; Function compile flags: /Odtp /ZI
; File d:\!diffusion 2020\source code 2022\client-server\game_shared\matrix.h
;	COMDAT ??Amatrix3x3@@QAEPAMH@Z
_TEXT	SEGMENT
_this$ = -4						; size = 4
_i$ = 8							; size = 4
??Amatrix3x3@@QAEPAMH@Z PROC				; matrix3x3::operator[], COMDAT
; _this$ = ecx

; 133  : 	float* operator[]( int i ) { return mat[i]; }

	push	ebp
	mov	ebp, esp
	sub	esp, 68					; 00000044H
	push	ebx
	push	esi
	push	edi
	mov	DWORD PTR _this$[ebp], ecx
	imul	ecx, DWORD PTR _i$[ebp], 12
	add	ecx, DWORD PTR _this$[ebp]
	call	??BVector@@QAEPAMXZ			; Vector::operator float *
	pop	edi
	pop	esi
	pop	ebx
	mov	esp, ebp
	pop	ebp
	ret	4
??Amatrix3x3@@QAEPAMH@Z ENDP				; matrix3x3::operator[]
_TEXT	ENDS
; Function compile flags: /Odtp /ZI
; File d:\!diffusion 2020\source code 2022\client-server\game_shared\matrix.h
;	COMDAT ??0matrix3x3@@QAE@ABVVector@@@Z
_TEXT	SEGMENT
tv693 = -100						; size = 4
tv691 = -100						; size = 4
tv689 = -100						; size = 4
tv687 = -100						; size = 4
tv685 = -100						; size = 4
tv683 = -100						; size = 4
tv681 = -100						; size = 4
tv679 = -100						; size = 4
tv677 = -100						; size = 4
tv675 = -100						; size = 4
tv673 = -100						; size = 4
tv671 = -100						; size = 4
tv669 = -100						; size = 4
tv667 = -100						; size = 4
tv665 = -100						; size = 4
tv663 = -100						; size = 4
_cy$ = -32						; size = 4
_cp$ = -28						; size = 4
_cr$ = -24						; size = 4
_sy$ = -20						; size = 4
_sp$ = -16						; size = 4
_sr$ = -12						; size = 4
_angle$ = -8						; size = 4
_this$ = -4						; size = 4
_angles$ = 8						; size = 4
??0matrix3x3@@QAE@ABVVector@@@Z PROC			; matrix3x3::matrix3x3, COMDAT
; _this$ = ecx

; 50   : 	_forceinline matrix3x3( const Vector &angles )

	push	ebp
	mov	ebp, esp
	sub	esp, 100				; 00000064H
	push	ebx
	push	esi
	push	edi
	mov	DWORD PTR _this$[ebp], ecx

; 51   : 	{

	push	OFFSET ??0Vector@@QAE@XZ		; Vector::Vector
	push	3
	push	12					; 0000000cH
	mov	eax, DWORD PTR _this$[ebp]
	push	eax
	call	??_H@YGXPAXIIP6EPAX0@Z@Z

; 52   : 		float	angle, sr, sp, sy, cr, cp, cy;
; 53   : 
; 54   : 		if( angles[ROLL] )

	mov	ecx, DWORD PTR _angles$[ebp]
	call	??BVector@@QBEPBMXZ			; Vector::operator float const *
	mov	ecx, 4
	shl	ecx, 1
	movss	xmm0, DWORD PTR [eax+ecx]
	ucomiss	xmm0, DWORD PTR __real@00000000
	lahf
	test	ah, 68					; 00000044H
	jnp	$LN2@matrix3x3

; 55   : 		{
; 56   : 			angle = angles[YAW] * (M_PI*2 / 360);

	mov	ecx, DWORD PTR _angles$[ebp]
	call	??BVector@@QBEPBMXZ			; Vector::operator float const *
	mov	ecx, 4
	shl	ecx, 0
	cvtss2sd xmm0, DWORD PTR [eax+ecx]
	mulsd	xmm0, QWORD PTR __real@3f91df46a2529d39
	cvtsd2ss xmm0, xmm0
	movss	DWORD PTR _angle$[ebp], xmm0

; 57   : 			SinCos( angle, &sy, &cy );

	lea	eax, DWORD PTR _cy$[ebp]
	push	eax
	lea	ecx, DWORD PTR _sy$[ebp]
	push	ecx
	push	ecx
	movss	xmm0, DWORD PTR _angle$[ebp]
	movss	DWORD PTR [esp], xmm0
	call	?SinCos@@YAXMPAM0@Z			; SinCos
	add	esp, 12					; 0000000cH

; 58   : 			angle = angles[PITCH] * (M_PI*2 / 360);

	mov	ecx, DWORD PTR _angles$[ebp]
	call	??BVector@@QBEPBMXZ			; Vector::operator float const *
	mov	ecx, 4
	imul	edx, ecx, 0
	cvtss2sd xmm0, DWORD PTR [eax+edx]
	mulsd	xmm0, QWORD PTR __real@3f91df46a2529d39
	cvtsd2ss xmm0, xmm0
	movss	DWORD PTR _angle$[ebp], xmm0

; 59   : 			SinCos( angle, &sp, &cp );

	lea	eax, DWORD PTR _cp$[ebp]
	push	eax
	lea	ecx, DWORD PTR _sp$[ebp]
	push	ecx
	push	ecx
	movss	xmm0, DWORD PTR _angle$[ebp]
	movss	DWORD PTR [esp], xmm0
	call	?SinCos@@YAXMPAM0@Z			; SinCos
	add	esp, 12					; 0000000cH

; 60   : 			angle = angles[ROLL] * (M_PI*2 / 360);

	mov	ecx, DWORD PTR _angles$[ebp]
	call	??BVector@@QBEPBMXZ			; Vector::operator float const *
	mov	ecx, 4
	shl	ecx, 1
	cvtss2sd xmm0, DWORD PTR [eax+ecx]
	mulsd	xmm0, QWORD PTR __real@3f91df46a2529d39
	cvtsd2ss xmm0, xmm0
	movss	DWORD PTR _angle$[ebp], xmm0

; 61   : 			SinCos( angle, &sr, &cr );

	lea	eax, DWORD PTR _cr$[ebp]
	push	eax
	lea	ecx, DWORD PTR _sr$[ebp]
	push	ecx
	push	ecx
	movss	xmm0, DWORD PTR _angle$[ebp]
	movss	DWORD PTR [esp], xmm0
	call	?SinCos@@YAXMPAM0@Z			; SinCos
	add	esp, 12					; 0000000cH

; 62   : 
; 63   : 			mat[0][0] = (cp*cy);

	movss	xmm0, DWORD PTR _cp$[ebp]
	mulss	xmm0, DWORD PTR _cy$[ebp]
	mov	eax, 12					; 0000000cH
	imul	ecx, eax, 0
	add	ecx, DWORD PTR _this$[ebp]
	movss	DWORD PTR tv663[ebp], xmm0
	call	??BVector@@QAEPAMXZ			; Vector::operator float *
	mov	ecx, 4
	imul	edx, ecx, 0
	movss	xmm0, DWORD PTR tv663[ebp]
	movss	DWORD PTR [eax+edx], xmm0

; 64   : 			mat[1][0] = (sr*sp*cy+cr*-sy);

	movss	xmm0, DWORD PTR _sr$[ebp]
	mulss	xmm0, DWORD PTR _sp$[ebp]
	mulss	xmm0, DWORD PTR _cy$[ebp]
	movss	xmm1, DWORD PTR _sy$[ebp]
	xorps	xmm1, DWORD PTR __xmm@80000000800000008000000080000000
	mulss	xmm1, DWORD PTR _cr$[ebp]
	addss	xmm0, xmm1
	mov	ecx, 12					; 0000000cH
	shl	ecx, 0
	add	ecx, DWORD PTR _this$[ebp]
	movss	DWORD PTR tv665[ebp], xmm0
	call	??BVector@@QAEPAMXZ			; Vector::operator float *
	mov	ecx, 4
	imul	edx, ecx, 0
	movss	xmm0, DWORD PTR tv665[ebp]
	movss	DWORD PTR [eax+edx], xmm0

; 65   : 			mat[2][0] = (cr*sp*cy+-sr*-sy);

	movss	xmm0, DWORD PTR _cr$[ebp]
	mulss	xmm0, DWORD PTR _sp$[ebp]
	mulss	xmm0, DWORD PTR _cy$[ebp]
	movss	xmm1, DWORD PTR _sr$[ebp]
	xorps	xmm1, DWORD PTR __xmm@80000000800000008000000080000000
	movss	xmm2, DWORD PTR _sy$[ebp]
	xorps	xmm2, DWORD PTR __xmm@80000000800000008000000080000000
	mulss	xmm1, xmm2
	addss	xmm0, xmm1
	mov	ecx, 12					; 0000000cH
	shl	ecx, 1
	add	ecx, DWORD PTR _this$[ebp]
	movss	DWORD PTR tv667[ebp], xmm0
	call	??BVector@@QAEPAMXZ			; Vector::operator float *
	mov	ecx, 4
	imul	edx, ecx, 0
	movss	xmm0, DWORD PTR tv667[ebp]
	movss	DWORD PTR [eax+edx], xmm0

; 66   : 			mat[0][1] = (cp*sy);

	movss	xmm0, DWORD PTR _cp$[ebp]
	mulss	xmm0, DWORD PTR _sy$[ebp]
	mov	eax, 12					; 0000000cH
	imul	ecx, eax, 0
	add	ecx, DWORD PTR _this$[ebp]
	movss	DWORD PTR tv669[ebp], xmm0
	call	??BVector@@QAEPAMXZ			; Vector::operator float *
	mov	ecx, 4
	shl	ecx, 0
	movss	xmm0, DWORD PTR tv669[ebp]
	movss	DWORD PTR [eax+ecx], xmm0

; 67   : 			mat[1][1] = (sr*sp*sy+cr*cy);

	movss	xmm0, DWORD PTR _sr$[ebp]
	mulss	xmm0, DWORD PTR _sp$[ebp]
	mulss	xmm0, DWORD PTR _sy$[ebp]
	movss	xmm1, DWORD PTR _cr$[ebp]
	mulss	xmm1, DWORD PTR _cy$[ebp]
	addss	xmm0, xmm1
	mov	ecx, 12					; 0000000cH
	shl	ecx, 0
	add	ecx, DWORD PTR _this$[ebp]
	movss	DWORD PTR tv671[ebp], xmm0
	call	??BVector@@QAEPAMXZ			; Vector::operator float *
	mov	ecx, 4
	shl	ecx, 0
	movss	xmm0, DWORD PTR tv671[ebp]
	movss	DWORD PTR [eax+ecx], xmm0

; 68   : 			mat[2][1] = (cr*sp*sy+-sr*cy);

	movss	xmm0, DWORD PTR _cr$[ebp]
	mulss	xmm0, DWORD PTR _sp$[ebp]
	mulss	xmm0, DWORD PTR _sy$[ebp]
	movss	xmm1, DWORD PTR _sr$[ebp]
	xorps	xmm1, DWORD PTR __xmm@80000000800000008000000080000000
	mulss	xmm1, DWORD PTR _cy$[ebp]
	addss	xmm0, xmm1
	mov	ecx, 12					; 0000000cH
	shl	ecx, 1
	add	ecx, DWORD PTR _this$[ebp]
	movss	DWORD PTR tv673[ebp], xmm0
	call	??BVector@@QAEPAMXZ			; Vector::operator float *
	mov	ecx, 4
	shl	ecx, 0
	movss	xmm0, DWORD PTR tv673[ebp]
	movss	DWORD PTR [eax+ecx], xmm0

; 69   : 			mat[0][2] = (-sp);

	movss	xmm0, DWORD PTR _sp$[ebp]
	xorps	xmm0, DWORD PTR __xmm@80000000800000008000000080000000
	mov	eax, 12					; 0000000cH
	imul	ecx, eax, 0
	add	ecx, DWORD PTR _this$[ebp]
	movss	DWORD PTR tv675[ebp], xmm0
	call	??BVector@@QAEPAMXZ			; Vector::operator float *
	mov	ecx, 4
	shl	ecx, 1
	movss	xmm0, DWORD PTR tv675[ebp]
	movss	DWORD PTR [eax+ecx], xmm0

; 70   : 			mat[1][2] = (sr*cp);

	movss	xmm0, DWORD PTR _sr$[ebp]
	mulss	xmm0, DWORD PTR _cp$[ebp]
	mov	ecx, 12					; 0000000cH
	shl	ecx, 0
	add	ecx, DWORD PTR _this$[ebp]
	movss	DWORD PTR tv677[ebp], xmm0
	call	??BVector@@QAEPAMXZ			; Vector::operator float *
	mov	ecx, 4
	shl	ecx, 1
	movss	xmm0, DWORD PTR tv677[ebp]
	movss	DWORD PTR [eax+ecx], xmm0

; 71   : 			mat[2][2] = (cr*cp);

	movss	xmm0, DWORD PTR _cr$[ebp]
	mulss	xmm0, DWORD PTR _cp$[ebp]
	mov	ecx, 12					; 0000000cH
	shl	ecx, 1
	add	ecx, DWORD PTR _this$[ebp]
	movss	DWORD PTR tv679[ebp], xmm0
	call	??BVector@@QAEPAMXZ			; Vector::operator float *
	mov	ecx, 4
	shl	ecx, 1
	movss	xmm0, DWORD PTR tv679[ebp]
	movss	DWORD PTR [eax+ecx], xmm0
	jmp	$LN7@matrix3x3
$LN2@matrix3x3:

; 72   : 		}
; 73   : 		else if( angles[PITCH] )

	mov	ecx, DWORD PTR _angles$[ebp]
	call	??BVector@@QBEPBMXZ			; Vector::operator float const *
	mov	ecx, 4
	imul	edx, ecx, 0
	movss	xmm0, DWORD PTR [eax+edx]
	ucomiss	xmm0, DWORD PTR __real@00000000
	lahf
	test	ah, 68					; 00000044H
	jnp	$LN4@matrix3x3

; 74   : 		{
; 75   : 			angle = angles[YAW] * (M_PI*2 / 360);

	mov	ecx, DWORD PTR _angles$[ebp]
	call	??BVector@@QBEPBMXZ			; Vector::operator float const *
	mov	ecx, 4
	shl	ecx, 0
	cvtss2sd xmm0, DWORD PTR [eax+ecx]
	mulsd	xmm0, QWORD PTR __real@3f91df46a2529d39
	cvtsd2ss xmm0, xmm0
	movss	DWORD PTR _angle$[ebp], xmm0

; 76   : 			SinCos( angle, &sy, &cy );

	lea	eax, DWORD PTR _cy$[ebp]
	push	eax
	lea	ecx, DWORD PTR _sy$[ebp]
	push	ecx
	push	ecx
	movss	xmm0, DWORD PTR _angle$[ebp]
	movss	DWORD PTR [esp], xmm0
	call	?SinCos@@YAXMPAM0@Z			; SinCos
	add	esp, 12					; 0000000cH

; 77   : 			angle = angles[PITCH] * (M_PI*2 / 360);

	mov	ecx, DWORD PTR _angles$[ebp]
	call	??BVector@@QBEPBMXZ			; Vector::operator float const *
	mov	ecx, 4
	imul	edx, ecx, 0
	cvtss2sd xmm0, DWORD PTR [eax+edx]
	mulsd	xmm0, QWORD PTR __real@3f91df46a2529d39
	cvtsd2ss xmm0, xmm0
	movss	DWORD PTR _angle$[ebp], xmm0

; 78   : 			SinCos( angle, &sp, &cp );

	lea	eax, DWORD PTR _cp$[ebp]
	push	eax
	lea	ecx, DWORD PTR _sp$[ebp]
	push	ecx
	push	ecx
	movss	xmm0, DWORD PTR _angle$[ebp]
	movss	DWORD PTR [esp], xmm0
	call	?SinCos@@YAXMPAM0@Z			; SinCos
	add	esp, 12					; 0000000cH

; 79   : 
; 80   : 			mat[0][0] = (cp*cy);

	movss	xmm0, DWORD PTR _cp$[ebp]
	mulss	xmm0, DWORD PTR _cy$[ebp]
	mov	eax, 12					; 0000000cH
	imul	ecx, eax, 0
	add	ecx, DWORD PTR _this$[ebp]
	movss	DWORD PTR tv681[ebp], xmm0
	call	??BVector@@QAEPAMXZ			; Vector::operator float *
	mov	ecx, 4
	imul	edx, ecx, 0
	movss	xmm0, DWORD PTR tv681[ebp]
	movss	DWORD PTR [eax+edx], xmm0

; 81   : 			mat[1][0] = (-sy);

	movss	xmm0, DWORD PTR _sy$[ebp]
	xorps	xmm0, DWORD PTR __xmm@80000000800000008000000080000000
	mov	ecx, 12					; 0000000cH
	shl	ecx, 0
	add	ecx, DWORD PTR _this$[ebp]
	movss	DWORD PTR tv683[ebp], xmm0
	call	??BVector@@QAEPAMXZ			; Vector::operator float *
	mov	ecx, 4
	imul	edx, ecx, 0
	movss	xmm0, DWORD PTR tv683[ebp]
	movss	DWORD PTR [eax+edx], xmm0

; 82   : 			mat[2][0] = (sp*cy);

	movss	xmm0, DWORD PTR _sp$[ebp]
	mulss	xmm0, DWORD PTR _cy$[ebp]
	mov	ecx, 12					; 0000000cH
	shl	ecx, 1
	add	ecx, DWORD PTR _this$[ebp]
	movss	DWORD PTR tv685[ebp], xmm0
	call	??BVector@@QAEPAMXZ			; Vector::operator float *
	mov	ecx, 4
	imul	edx, ecx, 0
	movss	xmm0, DWORD PTR tv685[ebp]
	movss	DWORD PTR [eax+edx], xmm0

; 83   : 			mat[0][1] = (cp*sy);

	movss	xmm0, DWORD PTR _cp$[ebp]
	mulss	xmm0, DWORD PTR _sy$[ebp]
	mov	eax, 12					; 0000000cH
	imul	ecx, eax, 0
	add	ecx, DWORD PTR _this$[ebp]
	movss	DWORD PTR tv687[ebp], xmm0
	call	??BVector@@QAEPAMXZ			; Vector::operator float *
	mov	ecx, 4
	shl	ecx, 0
	movss	xmm0, DWORD PTR tv687[ebp]
	movss	DWORD PTR [eax+ecx], xmm0

; 84   : 			mat[1][1] = (cy);

	mov	ecx, 12					; 0000000cH
	shl	ecx, 0
	add	ecx, DWORD PTR _this$[ebp]
	call	??BVector@@QAEPAMXZ			; Vector::operator float *
	mov	ecx, 4
	shl	ecx, 0
	movss	xmm0, DWORD PTR _cy$[ebp]
	movss	DWORD PTR [eax+ecx], xmm0

; 85   : 			mat[2][1] = (sp*sy);

	movss	xmm0, DWORD PTR _sp$[ebp]
	mulss	xmm0, DWORD PTR _sy$[ebp]
	mov	ecx, 12					; 0000000cH
	shl	ecx, 1
	add	ecx, DWORD PTR _this$[ebp]
	movss	DWORD PTR tv689[ebp], xmm0
	call	??BVector@@QAEPAMXZ			; Vector::operator float *
	mov	ecx, 4
	shl	ecx, 0
	movss	xmm0, DWORD PTR tv689[ebp]
	movss	DWORD PTR [eax+ecx], xmm0

; 86   : 			mat[0][2] = (-sp);

	movss	xmm0, DWORD PTR _sp$[ebp]
	xorps	xmm0, DWORD PTR __xmm@80000000800000008000000080000000
	mov	eax, 12					; 0000000cH
	imul	ecx, eax, 0
	add	ecx, DWORD PTR _this$[ebp]
	movss	DWORD PTR tv691[ebp], xmm0
	call	??BVector@@QAEPAMXZ			; Vector::operator float *
	mov	ecx, 4
	shl	ecx, 1
	movss	xmm0, DWORD PTR tv691[ebp]
	movss	DWORD PTR [eax+ecx], xmm0

; 87   : 			mat[1][2] = 0;

	mov	ecx, 12					; 0000000cH
	shl	ecx, 0
	add	ecx, DWORD PTR _this$[ebp]
	call	??BVector@@QAEPAMXZ			; Vector::operator float *
	mov	ecx, 4
	shl	ecx, 1
	xorps	xmm0, xmm0
	movss	DWORD PTR [eax+ecx], xmm0

; 88   : 			mat[2][2] = (cp);

	mov	ecx, 12					; 0000000cH
	shl	ecx, 1
	add	ecx, DWORD PTR _this$[ebp]
	call	??BVector@@QAEPAMXZ			; Vector::operator float *
	mov	ecx, 4
	shl	ecx, 1
	movss	xmm0, DWORD PTR _cp$[ebp]
	movss	DWORD PTR [eax+ecx], xmm0
	jmp	$LN7@matrix3x3
$LN4@matrix3x3:

; 89   : 		}
; 90   : 		else if( angles[YAW] )

	mov	ecx, DWORD PTR _angles$[ebp]
	call	??BVector@@QBEPBMXZ			; Vector::operator float const *
	mov	ecx, 4
	shl	ecx, 0
	movss	xmm0, DWORD PTR [eax+ecx]
	ucomiss	xmm0, DWORD PTR __real@00000000
	lahf
	test	ah, 68					; 00000044H
	jnp	$LN6@matrix3x3

; 91   : 		{
; 92   : 			angle = angles[YAW] * (M_PI*2 / 360);

	mov	ecx, DWORD PTR _angles$[ebp]
	call	??BVector@@QBEPBMXZ			; Vector::operator float const *
	mov	ecx, 4
	shl	ecx, 0
	cvtss2sd xmm0, DWORD PTR [eax+ecx]
	mulsd	xmm0, QWORD PTR __real@3f91df46a2529d39
	cvtsd2ss xmm0, xmm0
	movss	DWORD PTR _angle$[ebp], xmm0

; 93   : 			SinCos( angle, &sy, &cy );

	lea	eax, DWORD PTR _cy$[ebp]
	push	eax
	lea	ecx, DWORD PTR _sy$[ebp]
	push	ecx
	push	ecx
	movss	xmm0, DWORD PTR _angle$[ebp]
	movss	DWORD PTR [esp], xmm0
	call	?SinCos@@YAXMPAM0@Z			; SinCos
	add	esp, 12					; 0000000cH

; 94   : 
; 95   : 			mat[0][0] = (cy);

	mov	eax, 12					; 0000000cH
	imul	ecx, eax, 0
	add	ecx, DWORD PTR _this$[ebp]
	call	??BVector@@QAEPAMXZ			; Vector::operator float *
	mov	ecx, 4
	imul	edx, ecx, 0
	movss	xmm0, DWORD PTR _cy$[ebp]
	movss	DWORD PTR [eax+edx], xmm0

; 96   : 			mat[1][0] = (-sy);

	movss	xmm0, DWORD PTR _sy$[ebp]
	xorps	xmm0, DWORD PTR __xmm@80000000800000008000000080000000
	mov	ecx, 12					; 0000000cH
	shl	ecx, 0
	add	ecx, DWORD PTR _this$[ebp]
	movss	DWORD PTR tv693[ebp], xmm0
	call	??BVector@@QAEPAMXZ			; Vector::operator float *
	mov	ecx, 4
	imul	edx, ecx, 0
	movss	xmm0, DWORD PTR tv693[ebp]
	movss	DWORD PTR [eax+edx], xmm0

; 97   : 			mat[2][0] = 0;

	mov	ecx, 12					; 0000000cH
	shl	ecx, 1
	add	ecx, DWORD PTR _this$[ebp]
	call	??BVector@@QAEPAMXZ			; Vector::operator float *
	mov	ecx, 4
	imul	edx, ecx, 0
	xorps	xmm0, xmm0
	movss	DWORD PTR [eax+edx], xmm0

; 98   : 			mat[0][1] = (sy);

	mov	eax, 12					; 0000000cH
	imul	ecx, eax, 0
	add	ecx, DWORD PTR _this$[ebp]
	call	??BVector@@QAEPAMXZ			; Vector::operator float *
	mov	ecx, 4
	shl	ecx, 0
	movss	xmm0, DWORD PTR _sy$[ebp]
	movss	DWORD PTR [eax+ecx], xmm0

; 99   : 			mat[1][1] = (cy);

	mov	ecx, 12					; 0000000cH
	shl	ecx, 0
	add	ecx, DWORD PTR _this$[ebp]
	call	??BVector@@QAEPAMXZ			; Vector::operator float *
	mov	ecx, 4
	shl	ecx, 0
	movss	xmm0, DWORD PTR _cy$[ebp]
	movss	DWORD PTR [eax+ecx], xmm0

; 100  : 			mat[2][1] = 0;

	mov	ecx, 12					; 0000000cH
	shl	ecx, 1
	add	ecx, DWORD PTR _this$[ebp]
	call	??BVector@@QAEPAMXZ			; Vector::operator float *
	mov	ecx, 4
	shl	ecx, 0
	xorps	xmm0, xmm0
	movss	DWORD PTR [eax+ecx], xmm0

; 101  : 			mat[0][2] = 0;

	mov	eax, 12					; 0000000cH
	imul	ecx, eax, 0
	add	ecx, DWORD PTR _this$[ebp]
	call	??BVector@@QAEPAMXZ			; Vector::operator float *
	mov	ecx, 4
	shl	ecx, 1
	xorps	xmm0, xmm0
	movss	DWORD PTR [eax+ecx], xmm0

; 102  : 			mat[1][2] = 0;

	mov	ecx, 12					; 0000000cH
	shl	ecx, 0
	add	ecx, DWORD PTR _this$[ebp]
	call	??BVector@@QAEPAMXZ			; Vector::operator float *
	mov	ecx, 4
	shl	ecx, 1
	xorps	xmm0, xmm0
	movss	DWORD PTR [eax+ecx], xmm0

; 103  : 			mat[2][2] = 1;

	mov	ecx, 12					; 0000000cH
	shl	ecx, 1
	add	ecx, DWORD PTR _this$[ebp]
	call	??BVector@@QAEPAMXZ			; Vector::operator float *
	mov	ecx, 4
	shl	ecx, 1
	movss	xmm0, DWORD PTR __real@3f800000
	movss	DWORD PTR [eax+ecx], xmm0

; 104  : 		}
; 105  : 		else

	jmp	$LN7@matrix3x3
$LN6@matrix3x3:

; 106  : 		{
; 107  : 			mat[0][0] = 1;

	mov	eax, 12					; 0000000cH
	imul	ecx, eax, 0
	add	ecx, DWORD PTR _this$[ebp]
	call	??BVector@@QAEPAMXZ			; Vector::operator float *
	mov	ecx, 4
	imul	edx, ecx, 0
	movss	xmm0, DWORD PTR __real@3f800000
	movss	DWORD PTR [eax+edx], xmm0

; 108  : 			mat[1][0] = 0;

	mov	ecx, 12					; 0000000cH
	shl	ecx, 0
	add	ecx, DWORD PTR _this$[ebp]
	call	??BVector@@QAEPAMXZ			; Vector::operator float *
	mov	ecx, 4
	imul	edx, ecx, 0
	xorps	xmm0, xmm0
	movss	DWORD PTR [eax+edx], xmm0

; 109  : 			mat[2][0] = 0;

	mov	ecx, 12					; 0000000cH
	shl	ecx, 1
	add	ecx, DWORD PTR _this$[ebp]
	call	??BVector@@QAEPAMXZ			; Vector::operator float *
	mov	ecx, 4
	imul	edx, ecx, 0
	xorps	xmm0, xmm0
	movss	DWORD PTR [eax+edx], xmm0

; 110  : 			mat[0][1] = 0;

	mov	eax, 12					; 0000000cH
	imul	ecx, eax, 0
	add	ecx, DWORD PTR _this$[ebp]
	call	??BVector@@QAEPAMXZ			; Vector::operator float *
	mov	ecx, 4
	shl	ecx, 0
	xorps	xmm0, xmm0
	movss	DWORD PTR [eax+ecx], xmm0

; 111  : 			mat[1][1] = 1;

	mov	ecx, 12					; 0000000cH
	shl	ecx, 0
	add	ecx, DWORD PTR _this$[ebp]
	call	??BVector@@QAEPAMXZ			; Vector::operator float *
	mov	ecx, 4
	shl	ecx, 0
	movss	xmm0, DWORD PTR __real@3f800000
	movss	DWORD PTR [eax+ecx], xmm0

; 112  : 			mat[2][1] = 0;

	mov	ecx, 12					; 0000000cH
	shl	ecx, 1
	add	ecx, DWORD PTR _this$[ebp]
	call	??BVector@@QAEPAMXZ			; Vector::operator float *
	mov	ecx, 4
	shl	ecx, 0
	xorps	xmm0, xmm0
	movss	DWORD PTR [eax+ecx], xmm0

; 113  : 			mat[0][2] = 0;

	mov	eax, 12					; 0000000cH
	imul	ecx, eax, 0
	add	ecx, DWORD PTR _this$[ebp]
	call	??BVector@@QAEPAMXZ			; Vector::operator float *
	mov	ecx, 4
	shl	ecx, 1
	xorps	xmm0, xmm0
	movss	DWORD PTR [eax+ecx], xmm0

; 114  : 			mat[1][2] = 0;

	mov	ecx, 12					; 0000000cH
	shl	ecx, 0
	add	ecx, DWORD PTR _this$[ebp]
	call	??BVector@@QAEPAMXZ			; Vector::operator float *
	mov	ecx, 4
	shl	ecx, 1
	xorps	xmm0, xmm0
	movss	DWORD PTR [eax+ecx], xmm0

; 115  : 			mat[2][2] = 1;

	mov	ecx, 12					; 0000000cH
	shl	ecx, 1
	add	ecx, DWORD PTR _this$[ebp]
	call	??BVector@@QAEPAMXZ			; Vector::operator float *
	mov	ecx, 4
	shl	ecx, 1
	movss	xmm0, DWORD PTR __real@3f800000
	movss	DWORD PTR [eax+ecx], xmm0
$LN7@matrix3x3:

; 116  : 		}
; 117  : 	}

	mov	eax, DWORD PTR _this$[ebp]
	pop	edi
	pop	esi
	pop	ebx
	mov	esp, ebp
	pop	ebp
	ret	4
??0matrix3x3@@QAE@ABVVector@@@Z ENDP			; matrix3x3::matrix3x3
_TEXT	ENDS
; Function compile flags: /Odtp /ZI
; File d:\!diffusion 2020\source code 2022\client-server\game_shared\vector.h
;	COMDAT ?DotProduct@@YAMABVVector@@0@Z
_TEXT	SEGMENT
tv86 = -68						; size = 4
_a$ = 8							; size = 4
_b$ = 12						; size = 4
?DotProduct@@YAMABVVector@@0@Z PROC			; DotProduct, COMDAT

; 308  : inline float DotProduct(const Vector& a, const Vector& b ) { return( a.x * b.x + a.y * b.y + a.z * b.z ); }

	push	ebp
	mov	ebp, esp
	sub	esp, 68					; 00000044H
	push	ebx
	push	esi
	push	edi
	mov	eax, DWORD PTR _a$[ebp]
	mov	ecx, DWORD PTR _b$[ebp]
	movss	xmm0, DWORD PTR [eax]
	mulss	xmm0, DWORD PTR [ecx]
	mov	edx, DWORD PTR _a$[ebp]
	mov	eax, DWORD PTR _b$[ebp]
	movss	xmm1, DWORD PTR [edx+4]
	mulss	xmm1, DWORD PTR [eax+4]
	addss	xmm0, xmm1
	mov	ecx, DWORD PTR _a$[ebp]
	mov	edx, DWORD PTR _b$[ebp]
	movss	xmm1, DWORD PTR [ecx+8]
	mulss	xmm1, DWORD PTR [edx+8]
	addss	xmm0, xmm1
	movss	DWORD PTR tv86[ebp], xmm0
	fld	DWORD PTR tv86[ebp]
	pop	edi
	pop	esi
	pop	ebx
	mov	esp, ebp
	pop	ebp
	ret	0
?DotProduct@@YAMABVVector@@0@Z ENDP			; DotProduct
_TEXT	ENDS
; Function compile flags: /Odtp /ZI
; File d:\!diffusion 2020\source code 2022\client-server\game_shared\vector.h
;	COMDAT ?Normalize@Vector@@QBE?AV1@XZ
_TEXT	SEGMENT
_flLen$ = -8						; size = 4
_this$ = -4						; size = 4
___$ReturnUdt$ = 8					; size = 4
?Normalize@Vector@@QBE?AV1@XZ PROC			; Vector::Normalize, COMDAT
; _this$ = ecx

; 251  : 	{

	push	ebp
	mov	ebp, esp
	sub	esp, 72					; 00000048H
	push	ebx
	push	esi
	push	edi
	mov	DWORD PTR _this$[ebp], ecx

; 252  : 		float flLen = Length();

	mov	ecx, DWORD PTR _this$[ebp]
	call	?Length@Vector@@QBEMXZ			; Vector::Length
	fstp	DWORD PTR _flLen$[ebp]

; 253  : 
; 254  : 		if( flLen )

	movss	xmm0, DWORD PTR _flLen$[ebp]
	ucomiss	xmm0, DWORD PTR __real@00000000
	lahf
	test	ah, 68					; 00000044H
	jnp	SHORT $LN2@Normalize

; 255  : 		{
; 256  : 			flLen = 1.0f / flLen;

	movss	xmm0, DWORD PTR __real@3f800000
	divss	xmm0, DWORD PTR _flLen$[ebp]
	movss	DWORD PTR _flLen$[ebp], xmm0

; 257  : 			return Vector( x * flLen, y * flLen, z * flLen );

	mov	eax, DWORD PTR _this$[ebp]
	movss	xmm0, DWORD PTR [eax+8]
	mulss	xmm0, DWORD PTR _flLen$[ebp]
	push	ecx
	movss	DWORD PTR [esp], xmm0
	mov	ecx, DWORD PTR _this$[ebp]
	movss	xmm0, DWORD PTR [ecx+4]
	mulss	xmm0, DWORD PTR _flLen$[ebp]
	push	ecx
	movss	DWORD PTR [esp], xmm0
	mov	edx, DWORD PTR _this$[ebp]
	movss	xmm0, DWORD PTR [edx]
	mulss	xmm0, DWORD PTR _flLen$[ebp]
	push	ecx
	movss	DWORD PTR [esp], xmm0
	mov	ecx, DWORD PTR ___$ReturnUdt$[ebp]
	call	??0Vector@@QAE@MMM@Z			; Vector::Vector
	mov	eax, DWORD PTR ___$ReturnUdt$[ebp]
	jmp	SHORT $LN1@Normalize
$LN2@Normalize:

; 258  : 		}
; 259  : 
; 260  : 		return *this; // can't normalize

	mov	eax, DWORD PTR _this$[ebp]
	push	eax
	mov	ecx, DWORD PTR ___$ReturnUdt$[ebp]
	call	??0Vector@@QAE@ABV0@@Z			; Vector::Vector
	mov	eax, DWORD PTR ___$ReturnUdt$[ebp]
$LN1@Normalize:

; 261  : 	}

	pop	edi
	pop	esi
	pop	ebx
	mov	esp, ebp
	pop	ebp
	ret	4
?Normalize@Vector@@QBE?AV1@XZ ENDP			; Vector::Normalize
_TEXT	ENDS
; Function compile flags: /Odtp /ZI
; File d:\!diffusion 2020\source code 2022\client-server\game_shared\vector.h
;	COMDAT ??BVector@@QBEPBMXZ
_TEXT	SEGMENT
_this$ = -4						; size = 4
??BVector@@QBEPBMXZ PROC				; Vector::operator float const *, COMDAT
; _this$ = ecx

; 248  : 	operator const float *() const		{ return &x; } 

	push	ebp
	mov	ebp, esp
	sub	esp, 68					; 00000044H
	push	ebx
	push	esi
	push	edi
	mov	DWORD PTR _this$[ebp], ecx
	mov	eax, DWORD PTR _this$[ebp]
	pop	edi
	pop	esi
	pop	ebx
	mov	esp, ebp
	pop	ebp
	ret	0
??BVector@@QBEPBMXZ ENDP				; Vector::operator float const *
_TEXT	ENDS
; Function compile flags: /Odtp /ZI
; File d:\!diffusion 2020\source code 2022\client-server\game_shared\vector.h
;	COMDAT ??BVector@@QAEPAMXZ
_TEXT	SEGMENT
_this$ = -4						; size = 4
??BVector@@QAEPAMXZ PROC				; Vector::operator float *, COMDAT
; _this$ = ecx

; 247  : 	operator float *()				{ return &x; } // Vectors will now automatically convert to float * when needed

	push	ebp
	mov	ebp, esp
	sub	esp, 68					; 00000044H
	push	ebx
	push	esi
	push	edi
	mov	DWORD PTR _this$[ebp], ecx
	mov	eax, DWORD PTR _this$[ebp]
	pop	edi
	pop	esi
	pop	ebx
	mov	esp, ebp
	pop	ebp
	ret	0
??BVector@@QAEPAMXZ ENDP				; Vector::operator float *
_TEXT	ENDS
; Function compile flags: /Odtp /ZI
; File d:\!diffusion 2020\source code 2022\client-server\game_shared\vector.h
;	COMDAT ?Length@Vector@@QBEMXZ
_TEXT	SEGMENT
tv91 = -72						; size = 4
_this$ = -4						; size = 4
?Length@Vector@@QBEMXZ PROC				; Vector::Length, COMDAT
; _this$ = ecx

; 245  : 	inline float Length(void) const		{ return sqrt( x*x + y*y + z*z ); }

	push	ebp
	mov	ebp, esp
	sub	esp, 72					; 00000048H
	push	ebx
	push	esi
	push	edi
	mov	DWORD PTR _this$[ebp], ecx
	mov	eax, DWORD PTR _this$[ebp]
	mov	ecx, DWORD PTR _this$[ebp]
	movss	xmm0, DWORD PTR [eax]
	mulss	xmm0, DWORD PTR [ecx]
	mov	edx, DWORD PTR _this$[ebp]
	mov	eax, DWORD PTR _this$[ebp]
	movss	xmm1, DWORD PTR [edx+4]
	mulss	xmm1, DWORD PTR [eax+4]
	addss	xmm0, xmm1
	mov	ecx, DWORD PTR _this$[ebp]
	mov	edx, DWORD PTR _this$[ebp]
	movss	xmm1, DWORD PTR [ecx+8]
	mulss	xmm1, DWORD PTR [edx+8]
	addss	xmm0, xmm1
	cvtss2sd xmm0, xmm0
	sub	esp, 8
	movsd	QWORD PTR [esp], xmm0
	call	_sqrt
	add	esp, 8
	fstp	DWORD PTR tv91[ebp]
	fld	DWORD PTR tv91[ebp]
	pop	edi
	pop	esi
	pop	ebx
	mov	esp, ebp
	pop	ebp
	ret	0
?Length@Vector@@QBEMXZ ENDP				; Vector::Length
_TEXT	ENDS
; Function compile flags: /Odtp /ZI
; File d:\!diffusion 2020\source code 2022\client-server\game_shared\vector.h
;	COMDAT ??XVector@@QAEAAV0@M@Z
_TEXT	SEGMENT
_this$ = -4						; size = 4
_s$ = 8							; size = 4
??XVector@@QAEAAV0@M@Z PROC				; Vector::operator*=, COMDAT
; _this$ = ecx

; 183  : 	{

	push	ebp
	mov	ebp, esp
	sub	esp, 68					; 00000044H
	push	ebx
	push	esi
	push	edi
	mov	DWORD PTR _this$[ebp], ecx

; 184  : 		x *= s; y *= s; z *= s;

	mov	eax, DWORD PTR _this$[ebp]
	movss	xmm0, DWORD PTR [eax]
	mulss	xmm0, DWORD PTR _s$[ebp]
	mov	ecx, DWORD PTR _this$[ebp]
	movss	DWORD PTR [ecx], xmm0
	mov	eax, DWORD PTR _this$[ebp]
	movss	xmm0, DWORD PTR [eax+4]
	mulss	xmm0, DWORD PTR _s$[ebp]
	mov	ecx, DWORD PTR _this$[ebp]
	movss	DWORD PTR [ecx+4], xmm0
	mov	eax, DWORD PTR _this$[ebp]
	movss	xmm0, DWORD PTR [eax+8]
	mulss	xmm0, DWORD PTR _s$[ebp]
	mov	ecx, DWORD PTR _this$[ebp]
	movss	DWORD PTR [ecx+8], xmm0

; 185  : 		return *this;

	mov	eax, DWORD PTR _this$[ebp]

; 186  : 	}

	pop	edi
	pop	esi
	pop	ebx
	mov	esp, ebp
	pop	ebp
	ret	4
??XVector@@QAEAAV0@M@Z ENDP				; Vector::operator*=
_TEXT	ENDS
; Function compile flags: /Odtp /ZI
; File d:\!diffusion 2020\source code 2022\client-server\game_shared\vector.h
;	COMDAT ??YVector@@QAEAAV0@ABV0@@Z
_TEXT	SEGMENT
_this$ = -4						; size = 4
_v$ = 8							; size = 4
??YVector@@QAEAAV0@ABV0@@Z PROC				; Vector::operator+=, COMDAT
; _this$ = ecx

; 168  : 	{

	push	ebp
	mov	ebp, esp
	sub	esp, 68					; 00000044H
	push	ebx
	push	esi
	push	edi
	mov	DWORD PTR _this$[ebp], ecx

; 169  : 		x+=v.x; y+=v.y; z += v.z;	

	mov	eax, DWORD PTR _this$[ebp]
	mov	ecx, DWORD PTR _v$[ebp]
	movss	xmm0, DWORD PTR [eax]
	addss	xmm0, DWORD PTR [ecx]
	mov	edx, DWORD PTR _this$[ebp]
	movss	DWORD PTR [edx], xmm0
	mov	eax, DWORD PTR _this$[ebp]
	mov	ecx, DWORD PTR _v$[ebp]
	movss	xmm0, DWORD PTR [eax+4]
	addss	xmm0, DWORD PTR [ecx+4]
	mov	edx, DWORD PTR _this$[ebp]
	movss	DWORD PTR [edx+4], xmm0
	mov	eax, DWORD PTR _this$[ebp]
	mov	ecx, DWORD PTR _v$[ebp]
	movss	xmm0, DWORD PTR [eax+8]
	addss	xmm0, DWORD PTR [ecx+8]
	mov	edx, DWORD PTR _this$[ebp]
	movss	DWORD PTR [edx+8], xmm0

; 170  : 		return *this;

	mov	eax, DWORD PTR _this$[ebp]

; 171  : 	}			

	pop	edi
	pop	esi
	pop	ebx
	mov	esp, ebp
	pop	ebp
	ret	4
??YVector@@QAEAAV0@ABV0@@Z ENDP				; Vector::operator+=
_TEXT	ENDS
; Function compile flags: /Odtp /ZI
; File d:\!diffusion 2020\source code 2022\client-server\game_shared\vector.h
;	COMDAT ??DVector@@QBE?AV0@M@Z
_TEXT	SEGMENT
_this$ = -4						; size = 4
___$ReturnUdt$ = 8					; size = 4
_fl$ = 12						; size = 4
??DVector@@QBE?AV0@M@Z PROC				; Vector::operator*, COMDAT
; _this$ = ecx

; 162  : 	inline Vector operator*(float fl) const		{ return Vector(x*fl, y*fl, z*fl);	   }

	push	ebp
	mov	ebp, esp
	sub	esp, 68					; 00000044H
	push	ebx
	push	esi
	push	edi
	mov	DWORD PTR _this$[ebp], ecx
	mov	eax, DWORD PTR _this$[ebp]
	movss	xmm0, DWORD PTR [eax+8]
	mulss	xmm0, DWORD PTR _fl$[ebp]
	push	ecx
	movss	DWORD PTR [esp], xmm0
	mov	ecx, DWORD PTR _this$[ebp]
	movss	xmm0, DWORD PTR [ecx+4]
	mulss	xmm0, DWORD PTR _fl$[ebp]
	push	ecx
	movss	DWORD PTR [esp], xmm0
	mov	edx, DWORD PTR _this$[ebp]
	movss	xmm0, DWORD PTR [edx]
	mulss	xmm0, DWORD PTR _fl$[ebp]
	push	ecx
	movss	DWORD PTR [esp], xmm0
	mov	ecx, DWORD PTR ___$ReturnUdt$[ebp]
	call	??0Vector@@QAE@MMM@Z			; Vector::Vector
	mov	eax, DWORD PTR ___$ReturnUdt$[ebp]
	pop	edi
	pop	esi
	pop	ebx
	mov	esp, ebp
	pop	ebp
	ret	8
??DVector@@QBE?AV0@M@Z ENDP				; Vector::operator*
_TEXT	ENDS
; Function compile flags: /Odtp /ZI
; File d:\!diffusion 2020\source code 2022\client-server\game_shared\vector.h
;	COMDAT ??GVector@@QBE?AV0@ABV0@@Z
_TEXT	SEGMENT
_this$ = -4						; size = 4
___$ReturnUdt$ = 8					; size = 4
_v$ = 12						; size = 4
??GVector@@QBE?AV0@ABV0@@Z PROC				; Vector::operator-, COMDAT
; _this$ = ecx

; 159  : 	inline Vector operator-(const Vector& v) const	{ return Vector(x-v.x, y-v.y, z-v.z);	   }

	push	ebp
	mov	ebp, esp
	sub	esp, 68					; 00000044H
	push	ebx
	push	esi
	push	edi
	mov	DWORD PTR _this$[ebp], ecx
	mov	eax, DWORD PTR _this$[ebp]
	mov	ecx, DWORD PTR _v$[ebp]
	movss	xmm0, DWORD PTR [eax+8]
	subss	xmm0, DWORD PTR [ecx+8]
	push	ecx
	movss	DWORD PTR [esp], xmm0
	mov	edx, DWORD PTR _this$[ebp]
	mov	eax, DWORD PTR _v$[ebp]
	movss	xmm0, DWORD PTR [edx+4]
	subss	xmm0, DWORD PTR [eax+4]
	push	ecx
	movss	DWORD PTR [esp], xmm0
	mov	ecx, DWORD PTR _this$[ebp]
	mov	edx, DWORD PTR _v$[ebp]
	movss	xmm0, DWORD PTR [ecx]
	subss	xmm0, DWORD PTR [edx]
	push	ecx
	movss	DWORD PTR [esp], xmm0
	mov	ecx, DWORD PTR ___$ReturnUdt$[ebp]
	call	??0Vector@@QAE@MMM@Z			; Vector::Vector
	mov	eax, DWORD PTR ___$ReturnUdt$[ebp]
	pop	edi
	pop	esi
	pop	ebx
	mov	esp, ebp
	pop	ebp
	ret	8
??GVector@@QBE?AV0@ABV0@@Z ENDP				; Vector::operator-
_TEXT	ENDS
; Function compile flags: /Odtp /ZI
; File d:\!diffusion 2020\source code 2022\client-server\game_shared\vector.h
;	COMDAT ??HVector@@QBE?AV0@ABV0@@Z
_TEXT	SEGMENT
_this$ = -4						; size = 4
___$ReturnUdt$ = 8					; size = 4
_v$ = 12						; size = 4
??HVector@@QBE?AV0@ABV0@@Z PROC				; Vector::operator+, COMDAT
; _this$ = ecx

; 158  : 	inline Vector operator+(const Vector& v) const	{ return Vector(x+v.x, y+v.y, z+v.z);	   }

	push	ebp
	mov	ebp, esp
	sub	esp, 68					; 00000044H
	push	ebx
	push	esi
	push	edi
	mov	DWORD PTR _this$[ebp], ecx
	mov	eax, DWORD PTR _this$[ebp]
	mov	ecx, DWORD PTR _v$[ebp]
	movss	xmm0, DWORD PTR [eax+8]
	addss	xmm0, DWORD PTR [ecx+8]
	push	ecx
	movss	DWORD PTR [esp], xmm0
	mov	edx, DWORD PTR _this$[ebp]
	mov	eax, DWORD PTR _v$[ebp]
	movss	xmm0, DWORD PTR [edx+4]
	addss	xmm0, DWORD PTR [eax+4]
	push	ecx
	movss	DWORD PTR [esp], xmm0
	mov	ecx, DWORD PTR _this$[ebp]
	mov	edx, DWORD PTR _v$[ebp]
	movss	xmm0, DWORD PTR [ecx]
	addss	xmm0, DWORD PTR [edx]
	push	ecx
	movss	DWORD PTR [esp], xmm0
	mov	ecx, DWORD PTR ___$ReturnUdt$[ebp]
	call	??0Vector@@QAE@MMM@Z			; Vector::Vector
	mov	eax, DWORD PTR ___$ReturnUdt$[ebp]
	pop	edi
	pop	esi
	pop	ebx
	mov	esp, ebp
	pop	ebp
	ret	8
??HVector@@QBE?AV0@ABV0@@Z ENDP				; Vector::operator+
_TEXT	ENDS
; Function compile flags: /Odtp /ZI
; File d:\!diffusion 2020\source code 2022\client-server\game_shared\vector.h
;	COMDAT ??0Vector@@QAE@QAM@Z
_TEXT	SEGMENT
_this$ = -4						; size = 4
_rgfl$ = 8						; size = 4
??0Vector@@QAE@QAM@Z PROC				; Vector::Vector, COMDAT
; _this$ = ecx

; 147  : 	inline Vector(float rgfl[3])			{ x = rgfl[0]; y = rgfl[1]; z = rgfl[2];   }

	push	ebp
	mov	ebp, esp
	sub	esp, 68					; 00000044H
	push	ebx
	push	esi
	push	edi
	mov	DWORD PTR _this$[ebp], ecx
	mov	eax, 4
	imul	ecx, eax, 0
	mov	edx, DWORD PTR _this$[ebp]
	mov	eax, DWORD PTR _rgfl$[ebp]
	mov	ecx, DWORD PTR [eax+ecx]
	mov	DWORD PTR [edx], ecx
	mov	eax, 4
	shl	eax, 0
	mov	ecx, DWORD PTR _this$[ebp]
	mov	edx, DWORD PTR _rgfl$[ebp]
	mov	eax, DWORD PTR [edx+eax]
	mov	DWORD PTR [ecx+4], eax
	mov	eax, 4
	shl	eax, 1
	mov	ecx, DWORD PTR _this$[ebp]
	mov	edx, DWORD PTR _rgfl$[ebp]
	mov	eax, DWORD PTR [edx+eax]
	mov	DWORD PTR [ecx+8], eax
	mov	eax, DWORD PTR _this$[ebp]
	pop	edi
	pop	esi
	pop	ebx
	mov	esp, ebp
	pop	ebp
	ret	4
??0Vector@@QAE@QAM@Z ENDP				; Vector::Vector
_TEXT	ENDS
; Function compile flags: /Odtp /ZI
; File d:\!diffusion 2020\source code 2022\client-server\game_shared\vector.h
;	COMDAT ??0Vector@@QAE@ABV0@@Z
_TEXT	SEGMENT
_this$ = -4						; size = 4
_v$ = 8							; size = 4
??0Vector@@QAE@ABV0@@Z PROC				; Vector::Vector, COMDAT
; _this$ = ecx

; 145  : 	inline Vector(const Vector& v)		{ x = v.x; y = v.y; z = v.z;		   }

	push	ebp
	mov	ebp, esp
	sub	esp, 68					; 00000044H
	push	ebx
	push	esi
	push	edi
	mov	DWORD PTR _this$[ebp], ecx
	mov	eax, DWORD PTR _this$[ebp]
	mov	ecx, DWORD PTR _v$[ebp]
	mov	edx, DWORD PTR [ecx]
	mov	DWORD PTR [eax], edx
	mov	eax, DWORD PTR _this$[ebp]
	mov	ecx, DWORD PTR _v$[ebp]
	mov	edx, DWORD PTR [ecx+4]
	mov	DWORD PTR [eax+4], edx
	mov	eax, DWORD PTR _this$[ebp]
	mov	ecx, DWORD PTR _v$[ebp]
	mov	edx, DWORD PTR [ecx+8]
	mov	DWORD PTR [eax+8], edx
	mov	eax, DWORD PTR _this$[ebp]
	pop	edi
	pop	esi
	pop	ebx
	mov	esp, ebp
	pop	ebp
	ret	4
??0Vector@@QAE@ABV0@@Z ENDP				; Vector::Vector
_TEXT	ENDS
; Function compile flags: /Odtp /ZI
; File d:\!diffusion 2020\source code 2022\client-server\game_shared\vector.h
;	COMDAT ??0Vector@@QAE@MMM@Z
_TEXT	SEGMENT
_this$ = -4						; size = 4
_X$ = 8							; size = 4
_Y$ = 12						; size = 4
_Z$ = 16						; size = 4
??0Vector@@QAE@MMM@Z PROC				; Vector::Vector, COMDAT
; _this$ = ecx

; 144  : 	inline Vector(float X, float Y, float Z)	{ x = X; y = Y; z = Z;                     }

	push	ebp
	mov	ebp, esp
	sub	esp, 68					; 00000044H
	push	ebx
	push	esi
	push	edi
	mov	DWORD PTR _this$[ebp], ecx
	mov	eax, DWORD PTR _this$[ebp]
	movss	xmm0, DWORD PTR _X$[ebp]
	movss	DWORD PTR [eax], xmm0
	mov	eax, DWORD PTR _this$[ebp]
	movss	xmm0, DWORD PTR _Y$[ebp]
	movss	DWORD PTR [eax+4], xmm0
	mov	eax, DWORD PTR _this$[ebp]
	movss	xmm0, DWORD PTR _Z$[ebp]
	movss	DWORD PTR [eax+8], xmm0
	mov	eax, DWORD PTR _this$[ebp]
	pop	edi
	pop	esi
	pop	ebx
	mov	esp, ebp
	pop	ebp
	ret	12					; 0000000cH
??0Vector@@QAE@MMM@Z ENDP				; Vector::Vector
_TEXT	ENDS
; Function compile flags: /Odtp /ZI
; File d:\!diffusion 2020\source code 2022\client-server\game_shared\vector.h
;	COMDAT ??0Vector@@QAE@XZ
_TEXT	SEGMENT
_this$ = -4						; size = 4
??0Vector@@QAE@XZ PROC					; Vector::Vector, COMDAT
; _this$ = ecx

; 143  : 	inline Vector(void)				{ }

	push	ebp
	mov	ebp, esp
	sub	esp, 68					; 00000044H
	push	ebx
	push	esi
	push	edi
	mov	DWORD PTR _this$[ebp], ecx
	mov	eax, DWORD PTR _this$[ebp]
	pop	edi
	pop	esi
	pop	ebx
	mov	esp, ebp
	pop	ebp
	ret	0
??0Vector@@QAE@XZ ENDP					; Vector::Vector
_TEXT	ENDS
; Function compile flags: /Odtp /ZI
; File d:\!diffusion 2020\source code 2022\client-server\game_shared\vector.h
;	COMDAT ?SinCos@@YAXMPAM0@Z
_TEXT	SEGMENT
_angle$ = 8						; size = 4
_sine$ = 12						; size = 4
_cosine$ = 16						; size = 4
?SinCos@@YAXMPAM0@Z PROC				; SinCos, COMDAT

; 36   : {

	push	ebp
	mov	ebp, esp
	sub	esp, 64					; 00000040H
	push	ebx
	push	esi
	push	edi

; 37   : 	/*
; 38   : 	__asm
; 39   : 	{
; 40   : 		push	ecx
; 41   : 		fld	dword ptr angle
; 42   : 		fsincos
; 43   : 		mov	ecx, dword ptr[cosine]
; 44   : 		fstp      dword ptr [ecx]
; 45   : 		mov 	ecx, dword ptr[sine]
; 46   : 		fstp	dword ptr [ecx]
; 47   : 		pop	ecx
; 48   : 	}*/
; 49   : 	*sine = sin( angle );

	cvtss2sd xmm0, DWORD PTR _angle$[ebp]
	sub	esp, 8
	movsd	QWORD PTR [esp], xmm0
	call	_sin
	add	esp, 8
	mov	eax, DWORD PTR _sine$[ebp]
	fstp	DWORD PTR [eax]

; 50   : 	*cosine = cos( angle );

	cvtss2sd xmm0, DWORD PTR _angle$[ebp]
	sub	esp, 8
	movsd	QWORD PTR [esp], xmm0
	call	_cos
	add	esp, 8
	mov	eax, DWORD PTR _cosine$[ebp]
	fstp	DWORD PTR [eax]

; 51   : }

	pop	edi
	pop	esi
	pop	ebx
	mov	esp, ebp
	pop	ebp
	ret	0
?SinCos@@YAXMPAM0@Z ENDP				; SinCos
_TEXT	ENDS
; Function compile flags: /Odtp /ZI
;	COMDAT ??__G@YGXPAX0IIP6EPAX00@Z@Z
_TEXT	SEGMENT
tv66 = -68						; size = 4
___t$ = 8						; size = 4
___u$ = 12						; size = 4
___s$ = 16						; size = 4
___n$ = 20						; size = 4
___f$ = 24						; size = 4
??__G@YGXPAX0IIP6EPAX00@Z@Z PROC			; `vector copy constructor iterator', COMDAT
	push	ebp
	mov	ebp, esp
	sub	esp, 68					; 00000044H
	push	ebx
	push	esi
	push	edi
$LN2@vector:
	mov	eax, DWORD PTR ___n$[ebp]
	mov	DWORD PTR tv66[ebp], eax
	mov	ecx, DWORD PTR ___n$[ebp]
	sub	ecx, 1
	mov	DWORD PTR ___n$[ebp], ecx
	cmp	DWORD PTR tv66[ebp], 0
	jbe	SHORT $LN1@vector
	mov	eax, DWORD PTR ___u$[ebp]
	push	eax
	mov	ecx, DWORD PTR ___t$[ebp]
	call	DWORD PTR ___f$[ebp]
	mov	eax, DWORD PTR ___t$[ebp]
	add	eax, DWORD PTR ___s$[ebp]
	mov	DWORD PTR ___t$[ebp], eax
	mov	eax, DWORD PTR ___u$[ebp]
	add	eax, DWORD PTR ___s$[ebp]
	mov	DWORD PTR ___u$[ebp], eax
	jmp	SHORT $LN2@vector
$LN1@vector:
	pop	edi
	pop	esi
	pop	ebx
	mov	esp, ebp
	pop	ebp
	ret	20					; 00000014H
??__G@YGXPAX0IIP6EPAX00@Z@Z ENDP			; `vector copy constructor iterator'
_TEXT	ENDS
; Function compile flags: /Odtp /ZI
;	COMDAT ??_H@YGXPAXIIP6EPAX0@Z@Z
_TEXT	SEGMENT
tv66 = -68						; size = 4
___t$ = 8						; size = 4
___s$ = 12						; size = 4
___n$ = 16						; size = 4
___f$ = 20						; size = 4
??_H@YGXPAXIIP6EPAX0@Z@Z PROC				; `vector constructor iterator', COMDAT
	push	ebp
	mov	ebp, esp
	sub	esp, 68					; 00000044H
	push	ebx
	push	esi
	push	edi
$LN2@vector:
	mov	eax, DWORD PTR ___n$[ebp]
	mov	DWORD PTR tv66[ebp], eax
	mov	ecx, DWORD PTR ___n$[ebp]
	sub	ecx, 1
	mov	DWORD PTR ___n$[ebp], ecx
	cmp	DWORD PTR tv66[ebp], 0
	jbe	SHORT $LN1@vector
	mov	ecx, DWORD PTR ___t$[ebp]
	call	DWORD PTR ___f$[ebp]
	mov	eax, DWORD PTR ___t$[ebp]
	add	eax, DWORD PTR ___s$[ebp]
	mov	DWORD PTR ___t$[ebp], eax
	jmp	SHORT $LN2@vector
$LN1@vector:
	pop	edi
	pop	esi
	pop	ebx
	mov	esp, ebp
	pop	ebp
	ret	16					; 00000010H
??_H@YGXPAXIIP6EPAX0@Z@Z ENDP				; `vector constructor iterator'
_TEXT	ENDS
END
