; Listing generated by Microsoft (R) Optimizing Compiler Version 19.00.24247.2 

	TITLE	D:\!DIFFUSION 2020\source code 2022\client-server\client\render\r_studio.cpp
	.686P
	.XMM
	include listing.inc
	.model	flat

INCLUDELIB LIBCMT
INCLUDELIB OLDNAMES

PUBLIC	?IEngineStudio@@3Uengine_studio_api_s@@A	; IEngineStudio
_BSS	SEGMENT
?IEngineStudio@@3Uengine_studio_api_s@@A DB 0b8H DUP (?) ; IEngineStudio
_BSS	ENDS
PUBLIC	??_H@YGXPAXIIP6EPAX0@Z@Z			; `vector constructor iterator'
PUBLIC	??__G@YGXPAX0IIP6EPAX00@Z@Z			; `vector copy constructor iterator'
PUBLIC	?SinCos@@YAXMPAM0@Z				; SinCos
PUBLIC	??0Vector2D@@QAE@XZ				; Vector2D::Vector2D
PUBLIC	??0Vector2D@@QAE@QAM@Z				; Vector2D::Vector2D
PUBLIC	??0Vector@@QAE@XZ				; Vector::Vector
PUBLIC	??0Vector@@QAE@MMM@Z				; Vector::Vector
PUBLIC	??0Vector@@QAE@ABV0@@Z				; Vector::Vector
PUBLIC	??0Vector@@QAE@QAM@Z				; Vector::Vector
PUBLIC	??GVector@@QBE?AV0@XZ				; Vector::operator-
PUBLIC	??8Vector@@QBEHABV0@@Z				; Vector::operator==
PUBLIC	??9Vector@@QBEHABV0@@Z				; Vector::operator!=
PUBLIC	??HVector@@QBE?AV0@ABV0@@Z			; Vector::operator+
PUBLIC	??GVector@@QBE?AV0@ABV0@@Z			; Vector::operator-
PUBLIC	??DVector@@QBE?AV0@M@Z				; Vector::operator*
PUBLIC	??DVector@@QBE?AV0@ABV0@@Z			; Vector::operator*
PUBLIC	??YVector@@QAEAAV0@ABV0@@Z			; Vector::operator+=
PUBLIC	?Length@Vector@@QBEMXZ				; Vector::Length
PUBLIC	??BVector@@QAEPAMXZ				; Vector::operator float *
PUBLIC	??BVector@@QBEPBMXZ				; Vector::operator float const *
PUBLIC	?Normalize@Vector@@QBE?AV1@XZ			; Vector::Normalize
PUBLIC	??D@YA?AVVector@@MABV0@@Z			; operator*
PUBLIC	?DotProduct@@YAMABVVector@@0@Z			; DotProduct
PUBLIC	?CrossProduct@@YA?AVVector@@ABV1@0@Z		; CrossProduct
PUBLIC	??0Vector4D@@QAE@XZ				; Vector4D::Vector4D
PUBLIC	??0Vector4D@@QAE@MMMM@Z				; Vector4D::Vector4D
PUBLIC	??0Vector4D@@QAE@ABV0@@Z			; Vector4D::Vector4D
PUBLIC	??0Vector4D@@QAE@ABVRadian@@@Z			; Vector4D::Vector4D
PUBLIC	??BVector4D@@QAEPAMXZ				; Vector4D::operator float *
PUBLIC	??BVector4D@@QBEPBMXZ				; Vector4D::operator float const *
PUBLIC	??0Radian@@QAE@XZ				; Radian::Radian
PUBLIC	??0matrix3x4@@QAE@ABVVector@@00@Z		; matrix3x4::matrix3x4
PUBLIC	??0matrix3x4@@QAE@ABVVector@@ABVVector4D@@@Z	; matrix3x4::matrix3x4
PUBLIC	??Amatrix3x4@@QAEPAMH@Z				; matrix3x4::operator[]
PUBLIC	??Amatrix3x4@@QBEPBMH@Z				; matrix3x4::operator[]
PUBLIC	??Bmatrix3x4@@QAEPAMXZ				; matrix3x4::operator float *
PUBLIC	??8matrix3x4@@QBEHABV0@@Z			; matrix3x4::operator==
PUBLIC	?GetForward@matrix3x4@@QBE?AVVector@@XZ		; matrix3x4::GetForward
PUBLIC	?GetRight@matrix3x4@@QBE?AVVector@@XZ		; matrix3x4::GetRight
PUBLIC	?GetUp@matrix3x4@@QBE?AVVector@@XZ		; matrix3x4::GetUp
PUBLIC	?GetOrigin@matrix3x4@@QBE?AVVector@@XZ		; matrix3x4::GetOrigin
PUBLIC	?SetForward@matrix3x4@@QAEXABVVector@@@Z	; matrix3x4::SetForward
PUBLIC	?SetRight@matrix3x4@@QAEXABVVector@@@Z		; matrix3x4::SetRight
PUBLIC	?SetUp@matrix3x4@@QAEXABVVector@@@Z		; matrix3x4::SetUp
PUBLIC	?SetOrigin@matrix3x4@@QAEXABVVector@@@Z		; matrix3x4::SetOrigin
PUBLIC	?GetOrigin@matrix3x4@@QAEXAAVVector@@@Z		; matrix3x4::GetOrigin
PUBLIC	?GetAngles@matrix3x4@@QAE?AVVector@@XZ		; matrix3x4::GetAngles
PUBLIC	?CopyToArray@matrix3x4@@QBEXPAM@Z		; matrix3x4::CopyToArray
PUBLIC	?CopyToArray4x3@matrix3x4@@QBEXQAVVector4D@@@Z	; matrix3x4::CopyToArray4x3
PUBLIC	??0matrix3x4@@QAE@ABV0@@Z			; matrix3x4::matrix3x4
PUBLIC	??0matrix4x4@@QAE@ABVmatrix3x4@@@Z		; matrix4x4::matrix4x4
PUBLIC	??Amatrix4x4@@QAEPAMH@Z				; matrix4x4::operator[]
PUBLIC	?CopyToArray@matrix4x4@@QBEXPAM@Z		; matrix4x4::CopyToArray
PUBLIC	??0matrix4x4@@QAE@ABV0@@Z			; matrix4x4::matrix4x4
PUBLIC	??0alight_s@@QAE@XZ				; alight_s::alight_s
PUBLIC	?FILE_EXISTS@@YA_NPBD@Z				; FILE_EXISTS
PUBLIC	?HUD_GetStudioModelInterface@@YAHHPAPAUr_studio_interface_s@@PAUengine_studio_api_s@@@Z ; HUD_GetStudioModelInterface
PUBLIC	?GetPlane@CFrustum@@QBEPBUmplane_s@@H@Z		; CFrustum::GetPlane
PUBLIC	??0DecalVertex_t@@QAE@XZ			; DecalVertex_t::DecalVertex_t
PUBLIC	??2@YAPAXIPAX@Z					; operator new
PUBLIC	??3@YAXPAX0@Z					; operator delete
PUBLIC	?UtlMemory_CalcNewAllocationCount@@YAHHHHH@Z	; UtlMemory_CalcNewAllocationCount
PUBLIC	??0CJiggleBones@@QAE@XZ				; CJiggleBones::CJiggleBones
PUBLIC	??1CJiggleBones@@QAE@XZ				; CJiggleBones::~CJiggleBones
PUBLIC	??0?$CUtlLinkedList@UJiggleData@@G@@QAE@HH@Z	; CUtlLinkedList<JiggleData,unsigned short>::CUtlLinkedList<JiggleData,unsigned short>
PUBLIC	??1?$CUtlLinkedList@UJiggleData@@G@@QAE@XZ	; CUtlLinkedList<JiggleData,unsigned short>::~CUtlLinkedList<JiggleData,unsigned short>
PUBLIC	?Element@?$CUtlLinkedList@UJiggleData@@G@@QAEAAUJiggleData@@G@Z ; CUtlLinkedList<JiggleData,unsigned short>::Element
PUBLIC	?RemoveAll@?$CUtlLinkedList@UJiggleData@@G@@QAEXXZ ; CUtlLinkedList<JiggleData,unsigned short>::RemoveAll
PUBLIC	?InvalidIndex@?$CUtlLinkedList@UJiggleData@@G@@SAGXZ ; CUtlLinkedList<JiggleData,unsigned short>::InvalidIndex
PUBLIC	?IsValidIndex@?$CUtlLinkedList@UJiggleData@@G@@QBE_NG@Z ; CUtlLinkedList<JiggleData,unsigned short>::IsValidIndex
PUBLIC	?ConstructList@?$CUtlLinkedList@UJiggleData@@G@@IAEXXZ ; CUtlLinkedList<JiggleData,unsigned short>::ConstructList
PUBLIC	?InternalElement@?$CUtlLinkedList@UJiggleData@@G@@IAEAAUListElem_t@1@G@Z ; CUtlLinkedList<JiggleData,unsigned short>::InternalElement
PUBLIC	?ResetDbgInfo@?$CUtlLinkedList@UJiggleData@@G@@IAEXXZ ; CUtlLinkedList<JiggleData,unsigned short>::ResetDbgInfo
PUBLIC	??0?$CUtlMemory@UListElem_t@?$CUtlLinkedList@UJiggleData@@G@@H@@QAE@HH@Z ; CUtlMemory<CUtlLinkedList<JiggleData,unsigned short>::ListElem_t,int>::CUtlMemory<CUtlLinkedList<JiggleData,unsigned short>::ListElem_t,int>
PUBLIC	??1?$CUtlMemory@UListElem_t@?$CUtlLinkedList@UJiggleData@@G@@H@@QAE@XZ ; CUtlMemory<CUtlLinkedList<JiggleData,unsigned short>::ListElem_t,int>::~CUtlMemory<CUtlLinkedList<JiggleData,unsigned short>::ListElem_t,int>
PUBLIC	??A?$CUtlMemory@UListElem_t@?$CUtlLinkedList@UJiggleData@@G@@H@@QAEAAUListElem_t@?$CUtlLinkedList@UJiggleData@@G@@H@Z ; CUtlMemory<CUtlLinkedList<JiggleData,unsigned short>::ListElem_t,int>::operator[]
PUBLIC	??A?$CUtlMemory@UListElem_t@?$CUtlLinkedList@UJiggleData@@G@@H@@QBEABUListElem_t@?$CUtlLinkedList@UJiggleData@@G@@H@Z ; CUtlMemory<CUtlLinkedList<JiggleData,unsigned short>::ListElem_t,int>::operator[]
PUBLIC	?IsIdxValid@?$CUtlMemory@UListElem_t@?$CUtlLinkedList@UJiggleData@@G@@H@@QBE_NH@Z ; CUtlMemory<CUtlLinkedList<JiggleData,unsigned short>::ListElem_t,int>::IsIdxValid
PUBLIC	?Base@?$CUtlMemory@UListElem_t@?$CUtlLinkedList@UJiggleData@@G@@H@@QAEPAUListElem_t@?$CUtlLinkedList@UJiggleData@@G@@XZ ; CUtlMemory<CUtlLinkedList<JiggleData,unsigned short>::ListElem_t,int>::Base
PUBLIC	?Purge@?$CUtlMemory@UListElem_t@?$CUtlLinkedList@UJiggleData@@G@@H@@QAEXXZ ; CUtlMemory<CUtlLinkedList<JiggleData,unsigned short>::ListElem_t,int>::Purge
PUBLIC	?IsExternallyAllocated@?$CUtlMemory@UListElem_t@?$CUtlLinkedList@UJiggleData@@G@@H@@QBE_NXZ ; CUtlMemory<CUtlLinkedList<JiggleData,unsigned short>::ListElem_t,int>::IsExternallyAllocated
PUBLIC	?IsReadOnly@?$CUtlMemory@UListElem_t@?$CUtlLinkedList@UJiggleData@@G@@H@@QBE_NXZ ; CUtlMemory<CUtlLinkedList<JiggleData,unsigned short>::ListElem_t,int>::IsReadOnly
PUBLIC	?ValidateGrowSize@?$CUtlMemory@UListElem_t@?$CUtlLinkedList@UJiggleData@@G@@H@@IAEXXZ ; CUtlMemory<CUtlLinkedList<JiggleData,unsigned short>::ListElem_t,int>::ValidateGrowSize
PUBLIC	??_GCJiggleBones@@QAEPAXI@Z			; CJiggleBones::`scalar deleting destructor'
PUBLIC	??0CStudioBoneSetup@@QAE@XZ			; CStudioBoneSetup::CStudioBoneSetup
PUBLIC	?GetNumIKChains@CStudioBoneSetup@@QAEHXZ	; CStudioBoneSetup::GetNumIKChains
PUBLIC	?InitBoneWeights@CStudioBoneSetup@@AAEXXZ	; CStudioBoneSetup::InitBoneWeights
PUBLIC	?debugMsg@CStudioBoneSetup@@UAAXPADZZ		; CStudioBoneSetup::debugMsg
PUBLIC	?debugLine@CStudioBoneSetup@@UAEXABVVector@@0HHH_NM@Z ; CStudioBoneSetup::debugLine
PUBLIC	?SetStudioPointers@CStudioBoneSetup@@QAEXPAUstudiohdr_t@@PBM@Z ; CStudioBoneSetup::SetStudioPointers
PUBLIC	?SetBoneWeights@CStudioBoneSetup@@QAEXPAM@Z	; CStudioBoneSetup::SetBoneWeights
PUBLIC	?UpdateRealTime@CStudioBoneSetup@@QAEXM@Z	; CStudioBoneSetup::UpdateRealTime
PUBLIC	??1?$CUtlArray@VCIKTarget@@V?$CUtlMemoryFixed@VCIKTarget@@$0M@$0A@@@@@QAE@XZ ; CUtlArray<CIKTarget,CUtlMemoryFixed<CIKTarget,12,0> >::~CUtlArray<CIKTarget,CUtlMemoryFixed<CIKTarget,12,0> >
PUBLIC	??A?$CUtlArray@VCIKTarget@@V?$CUtlMemoryFixed@VCIKTarget@@$0M@$0A@@@@@QAEAAVCIKTarget@@H@Z ; CUtlArray<CIKTarget,CUtlMemoryFixed<CIKTarget,12,0> >::operator[]
PUBLIC	?Element@?$CUtlArray@VCIKTarget@@V?$CUtlMemoryFixed@VCIKTarget@@$0M@$0A@@@@@QAEAAVCIKTarget@@H@Z ; CUtlArray<CIKTarget,CUtlMemoryFixed<CIKTarget,12,0> >::Element
PUBLIC	?Base@?$CUtlArray@VCIKTarget@@V?$CUtlMemoryFixed@VCIKTarget@@$0M@$0A@@@@@QAEPAVCIKTarget@@XZ ; CUtlArray<CIKTarget,CUtlMemoryFixed<CIKTarget,12,0> >::Base
PUBLIC	?Count@?$CUtlArray@VCIKTarget@@V?$CUtlMemoryFixed@VCIKTarget@@$0M@$0A@@@@@QBEHXZ ; CUtlArray<CIKTarget,CUtlMemoryFixed<CIKTarget,12,0> >::Count
PUBLIC	?RemoveAll@?$CUtlArray@VCIKTarget@@V?$CUtlMemoryFixed@VCIKTarget@@$0M@$0A@@@@@QAEXXZ ; CUtlArray<CIKTarget,CUtlMemoryFixed<CIKTarget,12,0> >::RemoveAll
PUBLIC	?Purge@?$CUtlArray@VCIKTarget@@V?$CUtlMemoryFixed@VCIKTarget@@$0M@$0A@@@@@QAEXXZ ; CUtlArray<CIKTarget,CUtlMemoryFixed<CIKTarget,12,0> >::Purge
PUBLIC	?IsIdxValid@?$CUtlMemoryFixed@VCIKTarget@@$0M@$0A@@@QBE_NH@Z ; CUtlMemoryFixed<CIKTarget,12,0>::IsIdxValid
PUBLIC	?Base@?$CUtlMemoryFixed@VCIKTarget@@$0M@$0A@@@QAEPAVCIKTarget@@XZ ; CUtlMemoryFixed<CIKTarget,12,0>::Base
PUBLIC	??A?$CUtlMemoryFixed@VCIKTarget@@$0M@$0A@@@QAEAAVCIKTarget@@H@Z ; CUtlMemoryFixed<CIKTarget,12,0>::operator[]
PUBLIC	?Purge@?$CUtlMemoryFixed@VCIKTarget@@$0M@$0A@@@QAEXXZ ; CUtlMemoryFixed<CIKTarget,12,0>::Purge
PUBLIC	?ResetDbgInfo@?$CUtlArray@VCIKTarget@@V?$CUtlMemoryFixed@VCIKTarget@@$0M@$0A@@@@@IAEXXZ ; CUtlArray<CIKTarget,CUtlMemoryFixed<CIKTarget,12,0> >::ResetDbgInfo
PUBLIC	??1?$CUtlArrayFixed@VCIKTarget@@$0M@@@QAE@XZ	; CUtlArrayFixed<CIKTarget,12>::~CUtlArrayFixed<CIKTarget,12>
PUBLIC	??1?$CUtlArray@V?$CUtlArray@Uikcontextikrule_t@@V?$CUtlMemory@Uikcontextikrule_t@@H@@@@V?$CUtlMemory@V?$CUtlArray@Uikcontextikrule_t@@V?$CUtlMemory@Uikcontextikrule_t@@H@@@@H@@@@QAE@XZ ; CUtlArray<CUtlArray<ikcontextikrule_t,CUtlMemory<ikcontextikrule_t,int> >,CUtlMemory<CUtlArray<ikcontextikrule_t,CUtlMemory<ikcontextikrule_t,int> >,int> >::~CUtlArray<CUtlArray<ikcontextikrule_t,CUtlMemory<ikcontextikrule_t,int> >,CUtlMemory<CUtlArray<ikcontextikrule_t,CUtlMemory<ikcontextikrule_t,int> >,int> >
PUBLIC	?Element@?$CUtlArray@V?$CUtlArray@Uikcontextikrule_t@@V?$CUtlMemory@Uikcontextikrule_t@@H@@@@V?$CUtlMemory@V?$CUtlArray@Uikcontextikrule_t@@V?$CUtlMemory@Uikcontextikrule_t@@H@@@@H@@@@QAEAAV?$CUtlArray@Uikcontextikrule_t@@V?$CUtlMemory@Uikcontextikrule_t@@H@@@@H@Z ; CUtlArray<CUtlArray<ikcontextikrule_t,CUtlMemory<ikcontextikrule_t,int> >,CUtlMemory<CUtlArray<ikcontextikrule_t,CUtlMemory<ikcontextikrule_t,int> >,int> >::Element
PUBLIC	?Base@?$CUtlArray@V?$CUtlArray@Uikcontextikrule_t@@V?$CUtlMemory@Uikcontextikrule_t@@H@@@@V?$CUtlMemory@V?$CUtlArray@Uikcontextikrule_t@@V?$CUtlMemory@Uikcontextikrule_t@@H@@@@H@@@@QAEPAV?$CUtlArray@Uikcontextikrule_t@@V?$CUtlMemory@Uikcontextikrule_t@@H@@@@XZ ; CUtlArray<CUtlArray<ikcontextikrule_t,CUtlMemory<ikcontextikrule_t,int> >,CUtlMemory<CUtlArray<ikcontextikrule_t,CUtlMemory<ikcontextikrule_t,int> >,int> >::Base
PUBLIC	?RemoveAll@?$CUtlArray@V?$CUtlArray@Uikcontextikrule_t@@V?$CUtlMemory@Uikcontextikrule_t@@H@@@@V?$CUtlMemory@V?$CUtlArray@Uikcontextikrule_t@@V?$CUtlMemory@Uikcontextikrule_t@@H@@@@H@@@@QAEXXZ ; CUtlArray<CUtlArray<ikcontextikrule_t,CUtlMemory<ikcontextikrule_t,int> >,CUtlMemory<CUtlArray<ikcontextikrule_t,CUtlMemory<ikcontextikrule_t,int> >,int> >::RemoveAll
PUBLIC	?Purge@?$CUtlArray@V?$CUtlArray@Uikcontextikrule_t@@V?$CUtlMemory@Uikcontextikrule_t@@H@@@@V?$CUtlMemory@V?$CUtlArray@Uikcontextikrule_t@@V?$CUtlMemory@Uikcontextikrule_t@@H@@@@H@@@@QAEXXZ ; CUtlArray<CUtlArray<ikcontextikrule_t,CUtlMemory<ikcontextikrule_t,int> >,CUtlMemory<CUtlArray<ikcontextikrule_t,CUtlMemory<ikcontextikrule_t,int> >,int> >::Purge
PUBLIC	??1?$CUtlMemory@V?$CUtlArray@Uikcontextikrule_t@@V?$CUtlMemory@Uikcontextikrule_t@@H@@@@H@@QAE@XZ ; CUtlMemory<CUtlArray<ikcontextikrule_t,CUtlMemory<ikcontextikrule_t,int> >,int>::~CUtlMemory<CUtlArray<ikcontextikrule_t,CUtlMemory<ikcontextikrule_t,int> >,int>
PUBLIC	??A?$CUtlMemory@V?$CUtlArray@Uikcontextikrule_t@@V?$CUtlMemory@Uikcontextikrule_t@@H@@@@H@@QAEAAV?$CUtlArray@Uikcontextikrule_t@@V?$CUtlMemory@Uikcontextikrule_t@@H@@@@H@Z ; CUtlMemory<CUtlArray<ikcontextikrule_t,CUtlMemory<ikcontextikrule_t,int> >,int>::operator[]
PUBLIC	?IsIdxValid@?$CUtlMemory@V?$CUtlArray@Uikcontextikrule_t@@V?$CUtlMemory@Uikcontextikrule_t@@H@@@@H@@QBE_NH@Z ; CUtlMemory<CUtlArray<ikcontextikrule_t,CUtlMemory<ikcontextikrule_t,int> >,int>::IsIdxValid
PUBLIC	?Base@?$CUtlMemory@V?$CUtlArray@Uikcontextikrule_t@@V?$CUtlMemory@Uikcontextikrule_t@@H@@@@H@@QAEPAV?$CUtlArray@Uikcontextikrule_t@@V?$CUtlMemory@Uikcontextikrule_t@@H@@@@XZ ; CUtlMemory<CUtlArray<ikcontextikrule_t,CUtlMemory<ikcontextikrule_t,int> >,int>::Base
PUBLIC	?Purge@?$CUtlMemory@V?$CUtlArray@Uikcontextikrule_t@@V?$CUtlMemory@Uikcontextikrule_t@@H@@@@H@@QAEXXZ ; CUtlMemory<CUtlArray<ikcontextikrule_t,CUtlMemory<ikcontextikrule_t,int> >,int>::Purge
PUBLIC	?IsExternallyAllocated@?$CUtlMemory@V?$CUtlArray@Uikcontextikrule_t@@V?$CUtlMemory@Uikcontextikrule_t@@H@@@@H@@QBE_NXZ ; CUtlMemory<CUtlArray<ikcontextikrule_t,CUtlMemory<ikcontextikrule_t,int> >,int>::IsExternallyAllocated
PUBLIC	?IsReadOnly@?$CUtlMemory@V?$CUtlArray@Uikcontextikrule_t@@V?$CUtlMemory@Uikcontextikrule_t@@H@@@@H@@QBE_NXZ ; CUtlMemory<CUtlArray<ikcontextikrule_t,CUtlMemory<ikcontextikrule_t,int> >,int>::IsReadOnly
PUBLIC	?ResetDbgInfo@?$CUtlArray@V?$CUtlArray@Uikcontextikrule_t@@V?$CUtlMemory@Uikcontextikrule_t@@H@@@@V?$CUtlMemory@V?$CUtlArray@Uikcontextikrule_t@@V?$CUtlMemory@Uikcontextikrule_t@@H@@@@H@@@@IAEXXZ ; CUtlArray<CUtlArray<ikcontextikrule_t,CUtlMemory<ikcontextikrule_t,int> >,CUtlMemory<CUtlArray<ikcontextikrule_t,CUtlMemory<ikcontextikrule_t,int> >,int> >::ResetDbgInfo
PUBLIC	??1?$CUtlArray@Uikcontextikrule_t@@V?$CUtlMemory@Uikcontextikrule_t@@H@@@@QAE@XZ ; CUtlArray<ikcontextikrule_t,CUtlMemory<ikcontextikrule_t,int> >::~CUtlArray<ikcontextikrule_t,CUtlMemory<ikcontextikrule_t,int> >
PUBLIC	?Element@?$CUtlArray@Uikcontextikrule_t@@V?$CUtlMemory@Uikcontextikrule_t@@H@@@@QAEAAUikcontextikrule_t@@H@Z ; CUtlArray<ikcontextikrule_t,CUtlMemory<ikcontextikrule_t,int> >::Element
PUBLIC	?Base@?$CUtlArray@Uikcontextikrule_t@@V?$CUtlMemory@Uikcontextikrule_t@@H@@@@QAEPAUikcontextikrule_t@@XZ ; CUtlArray<ikcontextikrule_t,CUtlMemory<ikcontextikrule_t,int> >::Base
PUBLIC	?RemoveAll@?$CUtlArray@Uikcontextikrule_t@@V?$CUtlMemory@Uikcontextikrule_t@@H@@@@QAEXXZ ; CUtlArray<ikcontextikrule_t,CUtlMemory<ikcontextikrule_t,int> >::RemoveAll
PUBLIC	?Purge@?$CUtlArray@Uikcontextikrule_t@@V?$CUtlMemory@Uikcontextikrule_t@@H@@@@QAEXXZ ; CUtlArray<ikcontextikrule_t,CUtlMemory<ikcontextikrule_t,int> >::Purge
PUBLIC	??1?$CUtlMemory@Uikcontextikrule_t@@H@@QAE@XZ	; CUtlMemory<ikcontextikrule_t,int>::~CUtlMemory<ikcontextikrule_t,int>
PUBLIC	??A?$CUtlMemory@Uikcontextikrule_t@@H@@QAEAAUikcontextikrule_t@@H@Z ; CUtlMemory<ikcontextikrule_t,int>::operator[]
PUBLIC	?IsIdxValid@?$CUtlMemory@Uikcontextikrule_t@@H@@QBE_NH@Z ; CUtlMemory<ikcontextikrule_t,int>::IsIdxValid
PUBLIC	?Base@?$CUtlMemory@Uikcontextikrule_t@@H@@QAEPAUikcontextikrule_t@@XZ ; CUtlMemory<ikcontextikrule_t,int>::Base
PUBLIC	?Purge@?$CUtlMemory@Uikcontextikrule_t@@H@@QAEXXZ ; CUtlMemory<ikcontextikrule_t,int>::Purge
PUBLIC	?IsExternallyAllocated@?$CUtlMemory@Uikcontextikrule_t@@H@@QBE_NXZ ; CUtlMemory<ikcontextikrule_t,int>::IsExternallyAllocated
PUBLIC	?IsReadOnly@?$CUtlMemory@Uikcontextikrule_t@@H@@QBE_NXZ ; CUtlMemory<ikcontextikrule_t,int>::IsReadOnly
PUBLIC	?ResetDbgInfo@?$CUtlArray@Uikcontextikrule_t@@V?$CUtlMemory@Uikcontextikrule_t@@H@@@@IAEXXZ ; CUtlArray<ikcontextikrule_t,CUtlMemory<ikcontextikrule_t,int> >::ResetDbgInfo
PUBLIC	??_G?$CUtlArray@Uikcontextikrule_t@@V?$CUtlMemory@Uikcontextikrule_t@@H@@@@QAEPAXI@Z ; CUtlArray<ikcontextikrule_t,CUtlMemory<ikcontextikrule_t,int> >::`scalar deleting destructor'
PUBLIC	??1CIKContext@@QAE@XZ				; CIKContext::~CIKContext
PUBLIC	??0mstudiolight_t@@QAE@XZ			; mstudiolight_t::mstudiolight_t
PUBLIC	??0xvert_s@@QAE@XZ				; xvert_s::xvert_s
PUBLIC	??0svert_v0_t@@QAE@XZ				; svert_v0_t::svert_v0_t
PUBLIC	??0svert_v1_t@@QAE@XZ				; svert_v1_t::svert_v1_t
PUBLIC	??0svert_v2_t@@QAE@XZ				; svert_v2_t::svert_v2_t
PUBLIC	??0svert_v3_t@@QAE@XZ				; svert_v3_t::svert_v3_t
PUBLIC	?debugMsg@CBaseBoneSetup@@UAAXPADZZ		; CBaseBoneSetup::debugMsg
PUBLIC	?GetAnimSourceData@CBaseBoneSetup@@UAEPAUmstudioanim_t@@PAUmstudioseqdesc_t@@@Z ; CBaseBoneSetup::GetAnimSourceData
PUBLIC	?debugLine@CBaseBoneSetup@@UAEXABVVector@@0HHH_NM@Z ; CBaseBoneSetup::debugLine
PUBLIC	??0CBaseBoneSetup@@QAE@XZ			; CBaseBoneSetup::CBaseBoneSetup
PUBLIC	??0CStudioModelRenderer@@QAE@XZ			; CStudioModelRenderer::CStudioModelRenderer
PUBLIC	??1CStudioModelRenderer@@UAE@XZ			; CStudioModelRenderer::~CStudioModelRenderer
PUBLIC	?Init@CStudioModelRenderer@@QAEXXZ		; CStudioModelRenderer::Init
PUBLIC	?VidInit@CStudioModelRenderer@@QAEXXZ		; CStudioModelRenderer::VidInit
PUBLIC	?StudioDrawModel@CStudioModelRenderer@@UAEHH@Z	; CStudioModelRenderer::StudioDrawModel
PUBLIC	?StudioGetAnim@CStudioModelRenderer@@QAEPAUmstudioanim_t@@PAUmodel_s@@PAUmstudioseqdesc_t@@@Z ; CStudioModelRenderer::StudioGetAnim
PUBLIC	?CreateMeshCacheVL@CStudioModelRenderer@@QAEXPBDH@Z ; CStudioModelRenderer::CreateMeshCacheVL
PUBLIC	?FreeMeshCacheVL@CStudioModelRenderer@@QAEXXZ	; CStudioModelRenderer::FreeMeshCacheVL
PUBLIC	?StudioExtractBbox@CStudioModelRenderer@@EAEHPAUcl_entity_s@@PAUstudiohdr_t@@HAAVVector@@2@Z ; CStudioModelRenderer::StudioExtractBbox
PUBLIC	?StudioComputeBBox@CStudioModelRenderer@@EAEHPAUcl_entity_s@@@Z ; CStudioModelRenderer::StudioComputeBBox
PUBLIC	?CalcStairSmoothValue@CStudioModelRenderer@@AAEMMMMM@Z ; CStudioModelRenderer::CalcStairSmoothValue
PUBLIC	?StudioSetUpTransform@CStudioModelRenderer@@EAEXXZ ; CStudioModelRenderer::StudioSetUpTransform
PUBLIC	?StudioSetupBones@CStudioModelRenderer@@EAEXXZ	; CStudioModelRenderer::StudioSetupBones
PUBLIC	?StudioCalcBonesProcedural@CStudioModelRenderer@@EAEXQAVVector@@QAVVector4D@@@Z ; CStudioModelRenderer::StudioCalcBonesProcedural
PUBLIC	?StudioCalcAttachments@CStudioModelRenderer@@EAEXQAVmatrix3x4@@H@Z ; CStudioModelRenderer::StudioCalcAttachments
PUBLIC	?AddBlendSequence@CStudioModelRenderer@@EAEXHHM_N@Z ; CStudioModelRenderer::AddBlendSequence
PUBLIC	?BlendSequence@CStudioModelRenderer@@EAEXQAVVector@@QAVVector4D@@PAUmstudioblendseq_t@@@Z ; CStudioModelRenderer::BlendSequence
PUBLIC	?UpdateIKLocks@CStudioModelRenderer@@EAEXPAVCIKContext@@@Z ; CStudioModelRenderer::UpdateIKLocks
PUBLIC	?CalculateIKLocks@CStudioModelRenderer@@EAEXPAVCIKContext@@@Z ; CStudioModelRenderer::CalculateIKLocks
PUBLIC	?StudioMergeBones@CStudioModelRenderer@@EAEXQAVmatrix3x4@@0PAUmodel_s@@1@Z ; CStudioModelRenderer::StudioMergeBones
PUBLIC	?StudioEstimateInterpolant@CStudioModelRenderer@@EAEMXZ ; CStudioModelRenderer::StudioEstimateInterpolant
PUBLIC	?StudioEstimateGaitFrame@CStudioModelRenderer@@EAEMPAUmstudioseqdesc_t@@@Z ; CStudioModelRenderer::StudioEstimateGaitFrame
PUBLIC	?StudioEstimateFrame@CStudioModelRenderer@@EAEMPAUmstudioseqdesc_t@@@Z ; CStudioModelRenderer::StudioEstimateFrame
PUBLIC	?StudioInterpolateBlends@CStudioModelRenderer@@EAEXPAUcl_entity_s@@M@Z ; CStudioModelRenderer::StudioInterpolateBlends
PUBLIC	?StudioInterpolatePoseParams@CStudioModelRenderer@@EAEXPAUcl_entity_s@@M@Z ; CStudioModelRenderer::StudioInterpolatePoseParams
PUBLIC	?StudioFxTransform@CStudioModelRenderer@@EAEXPAUcl_entity_s@@AAVmatrix3x4@@@Z ; CStudioModelRenderer::StudioFxTransform
PUBLIC	?ComputeSkinMatrix@CStudioModelRenderer@@EAEXPAUxvert_s@@QBVmatrix3x4@@AAV3@@Z ; CStudioModelRenderer::ComputeSkinMatrix
PUBLIC	?ComputeSkinMatrix@CStudioModelRenderer@@EAEXPAUmstudioboneweight_t@@QBVmatrix3x4@@AAV3@@Z ; CStudioModelRenderer::ComputeSkinMatrix
PUBLIC	?StudioSetupChrome@CStudioModelRenderer@@EAEXPAMHABVVector@@@Z ; CStudioModelRenderer::StudioSetupChrome
PUBLIC	?StudioRenderModel@CStudioModelRenderer@@EAEXXZ	; CStudioModelRenderer::StudioRenderModel
PUBLIC	?StudioSetupModel@CStudioModelRenderer@@EAEHHPAPAX0@Z ; CStudioModelRenderer::StudioSetupModel
PUBLIC	?StudioSetRenderMode@CStudioModelRenderer@@EAEXH@Z ; CStudioModelRenderer::StudioSetRenderMode
PUBLIC	?StudioPlayerBlend@CStudioModelRenderer@@EAEXPAUmstudioseqdesc_t@@AAHAAM@Z ; CStudioModelRenderer::StudioPlayerBlend
PUBLIC	?StudioClientEvents@CStudioModelRenderer@@EAEXXZ ; CStudioModelRenderer::StudioClientEvents
PUBLIC	?StudioLighting@CStudioModelRenderer@@EAEXPAMHHABVVector@@@Z ; CStudioModelRenderer::StudioLighting
PUBLIC	?StudioDrawPoints@CStudioModelRenderer@@EAEXXZ	; CStudioModelRenderer::StudioDrawPoints
PUBLIC	?StudioDrawMeshChrome@CStudioModelRenderer@@AAEXPAFMMM@Z ; CStudioModelRenderer::StudioDrawMeshChrome
PUBLIC	?StudioStaticLight@CStudioModelRenderer@@EAEXPAUcl_entity_s@@@Z ; CStudioModelRenderer::StudioStaticLight
PUBLIC	?StudioFormatAttachment@CStudioModelRenderer@@EAEXAAVVector@@@Z ; CStudioModelRenderer::StudioFormatAttachment
PUBLIC	?ChooseStudioProgram@CStudioModelRenderer@@EAEGPAUstudiohdr_t@@PAUmstudiomat_s@@_N@Z ; CStudioModelRenderer::ChooseStudioProgram
PUBLIC	?AddMeshToDrawList@CStudioModelRenderer@@EAEXPAUstudiohdr_t@@PBUvbomesh_s@@_N2@Z ; CStudioModelRenderer::AddMeshToDrawList
PUBLIC	?AddBodyPartToDrawList@CStudioModelRenderer@@EAEXPAUstudiohdr_t@@PAUmbodypart_s@@H_N2@Z ; CStudioModelRenderer::AddBodyPartToDrawList
PUBLIC	?DrawMeshFromBuffer@CStudioModelRenderer@@AAEXPBUvbomesh_s@@@Z ; CStudioModelRenderer::DrawMeshFromBuffer
PUBLIC	?QSortStudioMeshes@CStudioModelRenderer@@AAEXPAUgl_studiomesh_t@@HH@Z ; CStudioModelRenderer::QSortStudioMeshes
PUBLIC	?StudioSetupRenderer@CStudioModelRenderer@@EAEXH@Z ; CStudioModelRenderer::StudioSetupRenderer
PUBLIC	?StudioRestoreRenderer@CStudioModelRenderer@@EAEXXZ ; CStudioModelRenderer::StudioRestoreRenderer
PUBLIC	?StudioDrawHulls@CStudioModelRenderer@@AAEXXZ	; CStudioModelRenderer::StudioDrawHulls
PUBLIC	?StudioDrawAbsBBox@CStudioModelRenderer@@AAEXXZ	; CStudioModelRenderer::StudioDrawAbsBBox
PUBLIC	?StudioDrawBones@CStudioModelRenderer@@AAEXXZ	; CStudioModelRenderer::StudioDrawBones
PUBLIC	?StudioDrawAttachments@CStudioModelRenderer@@AAEXXZ ; CStudioModelRenderer::StudioDrawAttachments
PUBLIC	??0BoneCache_t@CStudioModelRenderer@@QAE@XZ	; CStudioModelRenderer::BoneCache_t::BoneCache_t
PUBLIC	??0StudioAttachment_t@CStudioModelRenderer@@QAE@XZ ; CStudioModelRenderer::StudioAttachment_t::StudioAttachment_t
PUBLIC	??0ModelInstance_t@CStudioModelRenderer@@QAE@XZ	; CStudioModelRenderer::ModelInstance_t::ModelInstance_t
PUBLIC	??1ModelInstance_t@CStudioModelRenderer@@QAE@XZ	; CStudioModelRenderer::ModelInstance_t::~ModelInstance_t
PUBLIC	??_GModelInstance_t@CStudioModelRenderer@@QAEPAXI@Z ; CStudioModelRenderer::ModelInstance_t::`scalar deleting destructor'
PUBLIC	??1?$CUtlArray@GV?$CUtlMemory@GH@@@@QAE@XZ	; CUtlArray<unsigned short,CUtlMemory<unsigned short,int> >::~CUtlArray<unsigned short,CUtlMemory<unsigned short,int> >
PUBLIC	?Element@?$CUtlArray@GV?$CUtlMemory@GH@@@@QAEAAGH@Z ; CUtlArray<unsigned short,CUtlMemory<unsigned short,int> >::Element
PUBLIC	?Base@?$CUtlArray@GV?$CUtlMemory@GH@@@@QAEPAGXZ	; CUtlArray<unsigned short,CUtlMemory<unsigned short,int> >::Base
PUBLIC	?RemoveAll@?$CUtlArray@GV?$CUtlMemory@GH@@@@QAEXXZ ; CUtlArray<unsigned short,CUtlMemory<unsigned short,int> >::RemoveAll
PUBLIC	?Purge@?$CUtlArray@GV?$CUtlMemory@GH@@@@QAEXXZ	; CUtlArray<unsigned short,CUtlMemory<unsigned short,int> >::Purge
PUBLIC	??1?$CUtlMemory@GH@@QAE@XZ			; CUtlMemory<unsigned short,int>::~CUtlMemory<unsigned short,int>
PUBLIC	??A?$CUtlMemory@GH@@QAEAAGH@Z			; CUtlMemory<unsigned short,int>::operator[]
PUBLIC	?IsIdxValid@?$CUtlMemory@GH@@QBE_NH@Z		; CUtlMemory<unsigned short,int>::IsIdxValid
PUBLIC	?Base@?$CUtlMemory@GH@@QAEPAGXZ			; CUtlMemory<unsigned short,int>::Base
PUBLIC	?Purge@?$CUtlMemory@GH@@QAEXXZ			; CUtlMemory<unsigned short,int>::Purge
PUBLIC	?IsExternallyAllocated@?$CUtlMemory@GH@@QBE_NXZ	; CUtlMemory<unsigned short,int>::IsExternallyAllocated
PUBLIC	?IsReadOnly@?$CUtlMemory@GH@@QBE_NXZ		; CUtlMemory<unsigned short,int>::IsReadOnly
PUBLIC	?ResetDbgInfo@?$CUtlArray@GV?$CUtlMemory@GH@@@@IAEXXZ ; CUtlArray<unsigned short,CUtlMemory<unsigned short,int> >::ResetDbgInfo
PUBLIC	??1?$CUtlLinkedList@UDecalVertex_t@@G@@QAE@XZ	; CUtlLinkedList<DecalVertex_t,unsigned short>::~CUtlLinkedList<DecalVertex_t,unsigned short>
PUBLIC	?Element@?$CUtlLinkedList@UDecalVertex_t@@G@@QAEAAUDecalVertex_t@@G@Z ; CUtlLinkedList<DecalVertex_t,unsigned short>::Element
PUBLIC	?RemoveAll@?$CUtlLinkedList@UDecalVertex_t@@G@@QAEXXZ ; CUtlLinkedList<DecalVertex_t,unsigned short>::RemoveAll
PUBLIC	?InvalidIndex@?$CUtlLinkedList@UDecalVertex_t@@G@@SAGXZ ; CUtlLinkedList<DecalVertex_t,unsigned short>::InvalidIndex
PUBLIC	?IsValidIndex@?$CUtlLinkedList@UDecalVertex_t@@G@@QBE_NG@Z ; CUtlLinkedList<DecalVertex_t,unsigned short>::IsValidIndex
PUBLIC	?InternalElement@?$CUtlLinkedList@UDecalVertex_t@@G@@IAEAAUListElem_t@1@G@Z ; CUtlLinkedList<DecalVertex_t,unsigned short>::InternalElement
PUBLIC	??1?$CUtlMemory@UListElem_t@?$CUtlLinkedList@UDecalVertex_t@@G@@H@@QAE@XZ ; CUtlMemory<CUtlLinkedList<DecalVertex_t,unsigned short>::ListElem_t,int>::~CUtlMemory<CUtlLinkedList<DecalVertex_t,unsigned short>::ListElem_t,int>
PUBLIC	??A?$CUtlMemory@UListElem_t@?$CUtlLinkedList@UDecalVertex_t@@G@@H@@QAEAAUListElem_t@?$CUtlLinkedList@UDecalVertex_t@@G@@H@Z ; CUtlMemory<CUtlLinkedList<DecalVertex_t,unsigned short>::ListElem_t,int>::operator[]
PUBLIC	??A?$CUtlMemory@UListElem_t@?$CUtlLinkedList@UDecalVertex_t@@G@@H@@QBEABUListElem_t@?$CUtlLinkedList@UDecalVertex_t@@G@@H@Z ; CUtlMemory<CUtlLinkedList<DecalVertex_t,unsigned short>::ListElem_t,int>::operator[]
PUBLIC	?IsIdxValid@?$CUtlMemory@UListElem_t@?$CUtlLinkedList@UDecalVertex_t@@G@@H@@QBE_NH@Z ; CUtlMemory<CUtlLinkedList<DecalVertex_t,unsigned short>::ListElem_t,int>::IsIdxValid
PUBLIC	?Purge@?$CUtlMemory@UListElem_t@?$CUtlLinkedList@UDecalVertex_t@@G@@H@@QAEXXZ ; CUtlMemory<CUtlLinkedList<DecalVertex_t,unsigned short>::ListElem_t,int>::Purge
PUBLIC	?IsExternallyAllocated@?$CUtlMemory@UListElem_t@?$CUtlLinkedList@UDecalVertex_t@@G@@H@@QBE_NXZ ; CUtlMemory<CUtlLinkedList<DecalVertex_t,unsigned short>::ListElem_t,int>::IsExternallyAllocated
PUBLIC	?IsReadOnly@?$CUtlMemory@UListElem_t@?$CUtlLinkedList@UDecalVertex_t@@G@@H@@QBE_NXZ ; CUtlMemory<CUtlLinkedList<DecalVertex_t,unsigned short>::ListElem_t,int>::IsReadOnly
PUBLIC	??1?$CUtlLinkedList@UDecal_t@CStudioModelRenderer@@G@@QAE@XZ ; CUtlLinkedList<CStudioModelRenderer::Decal_t,unsigned short>::~CUtlLinkedList<CStudioModelRenderer::Decal_t,unsigned short>
PUBLIC	?Element@?$CUtlLinkedList@UDecal_t@CStudioModelRenderer@@G@@QAEAAUDecal_t@CStudioModelRenderer@@G@Z ; CUtlLinkedList<CStudioModelRenderer::Decal_t,unsigned short>::Element
PUBLIC	?RemoveAll@?$CUtlLinkedList@UDecal_t@CStudioModelRenderer@@G@@QAEXXZ ; CUtlLinkedList<CStudioModelRenderer::Decal_t,unsigned short>::RemoveAll
PUBLIC	?InvalidIndex@?$CUtlLinkedList@UDecal_t@CStudioModelRenderer@@G@@SAGXZ ; CUtlLinkedList<CStudioModelRenderer::Decal_t,unsigned short>::InvalidIndex
PUBLIC	?IsValidIndex@?$CUtlLinkedList@UDecal_t@CStudioModelRenderer@@G@@QBE_NG@Z ; CUtlLinkedList<CStudioModelRenderer::Decal_t,unsigned short>::IsValidIndex
PUBLIC	?InternalElement@?$CUtlLinkedList@UDecal_t@CStudioModelRenderer@@G@@IAEAAUListElem_t@1@G@Z ; CUtlLinkedList<CStudioModelRenderer::Decal_t,unsigned short>::InternalElement
PUBLIC	??1?$CUtlMemory@UListElem_t@?$CUtlLinkedList@UDecal_t@CStudioModelRenderer@@G@@H@@QAE@XZ ; CUtlMemory<CUtlLinkedList<CStudioModelRenderer::Decal_t,unsigned short>::ListElem_t,int>::~CUtlMemory<CUtlLinkedList<CStudioModelRenderer::Decal_t,unsigned short>::ListElem_t,int>
PUBLIC	??A?$CUtlMemory@UListElem_t@?$CUtlLinkedList@UDecal_t@CStudioModelRenderer@@G@@H@@QAEAAUListElem_t@?$CUtlLinkedList@UDecal_t@CStudioModelRenderer@@G@@H@Z ; CUtlMemory<CUtlLinkedList<CStudioModelRenderer::Decal_t,unsigned short>::ListElem_t,int>::operator[]
PUBLIC	??A?$CUtlMemory@UListElem_t@?$CUtlLinkedList@UDecal_t@CStudioModelRenderer@@G@@H@@QBEABUListElem_t@?$CUtlLinkedList@UDecal_t@CStudioModelRenderer@@G@@H@Z ; CUtlMemory<CUtlLinkedList<CStudioModelRenderer::Decal_t,unsigned short>::ListElem_t,int>::operator[]
PUBLIC	?IsIdxValid@?$CUtlMemory@UListElem_t@?$CUtlLinkedList@UDecal_t@CStudioModelRenderer@@G@@H@@QBE_NH@Z ; CUtlMemory<CUtlLinkedList<CStudioModelRenderer::Decal_t,unsigned short>::ListElem_t,int>::IsIdxValid
PUBLIC	?Purge@?$CUtlMemory@UListElem_t@?$CUtlLinkedList@UDecal_t@CStudioModelRenderer@@G@@H@@QAEXXZ ; CUtlMemory<CUtlLinkedList<CStudioModelRenderer::Decal_t,unsigned short>::ListElem_t,int>::Purge
PUBLIC	?IsExternallyAllocated@?$CUtlMemory@UListElem_t@?$CUtlLinkedList@UDecal_t@CStudioModelRenderer@@G@@H@@QBE_NXZ ; CUtlMemory<CUtlLinkedList<CStudioModelRenderer::Decal_t,unsigned short>::ListElem_t,int>::IsExternallyAllocated
PUBLIC	?IsReadOnly@?$CUtlMemory@UListElem_t@?$CUtlLinkedList@UDecal_t@CStudioModelRenderer@@G@@H@@QBE_NXZ ; CUtlMemory<CUtlLinkedList<CStudioModelRenderer::Decal_t,unsigned short>::ListElem_t,int>::IsReadOnly
PUBLIC	??1DecalMaterial_t@CStudioModelRenderer@@QAE@XZ	; CStudioModelRenderer::DecalMaterial_t::~DecalMaterial_t
PUBLIC	??_GDecalMaterial_t@CStudioModelRenderer@@QAEPAXI@Z ; CStudioModelRenderer::DecalMaterial_t::`scalar deleting destructor'
PUBLIC	??1?$CUtlLinkedList@UDecalHistory_t@CStudioModelRenderer@@G@@QAE@XZ ; CUtlLinkedList<CStudioModelRenderer::DecalHistory_t,unsigned short>::~CUtlLinkedList<CStudioModelRenderer::DecalHistory_t,unsigned short>
PUBLIC	?Element@?$CUtlLinkedList@UDecalHistory_t@CStudioModelRenderer@@G@@QAEAAUDecalHistory_t@CStudioModelRenderer@@G@Z ; CUtlLinkedList<CStudioModelRenderer::DecalHistory_t,unsigned short>::Element
PUBLIC	?RemoveAll@?$CUtlLinkedList@UDecalHistory_t@CStudioModelRenderer@@G@@QAEXXZ ; CUtlLinkedList<CStudioModelRenderer::DecalHistory_t,unsigned short>::RemoveAll
PUBLIC	?InvalidIndex@?$CUtlLinkedList@UDecalHistory_t@CStudioModelRenderer@@G@@SAGXZ ; CUtlLinkedList<CStudioModelRenderer::DecalHistory_t,unsigned short>::InvalidIndex
PUBLIC	?IsValidIndex@?$CUtlLinkedList@UDecalHistory_t@CStudioModelRenderer@@G@@QBE_NG@Z ; CUtlLinkedList<CStudioModelRenderer::DecalHistory_t,unsigned short>::IsValidIndex
PUBLIC	?InternalElement@?$CUtlLinkedList@UDecalHistory_t@CStudioModelRenderer@@G@@IAEAAUListElem_t@1@G@Z ; CUtlLinkedList<CStudioModelRenderer::DecalHistory_t,unsigned short>::InternalElement
PUBLIC	??1?$CUtlMemory@UListElem_t@?$CUtlLinkedList@UDecalHistory_t@CStudioModelRenderer@@G@@H@@QAE@XZ ; CUtlMemory<CUtlLinkedList<CStudioModelRenderer::DecalHistory_t,unsigned short>::ListElem_t,int>::~CUtlMemory<CUtlLinkedList<CStudioModelRenderer::DecalHistory_t,unsigned short>::ListElem_t,int>
PUBLIC	??A?$CUtlMemory@UListElem_t@?$CUtlLinkedList@UDecalHistory_t@CStudioModelRenderer@@G@@H@@QAEAAUListElem_t@?$CUtlLinkedList@UDecalHistory_t@CStudioModelRenderer@@G@@H@Z ; CUtlMemory<CUtlLinkedList<CStudioModelRenderer::DecalHistory_t,unsigned short>::ListElem_t,int>::operator[]
PUBLIC	??A?$CUtlMemory@UListElem_t@?$CUtlLinkedList@UDecalHistory_t@CStudioModelRenderer@@G@@H@@QBEABUListElem_t@?$CUtlLinkedList@UDecalHistory_t@CStudioModelRenderer@@G@@H@Z ; CUtlMemory<CUtlLinkedList<CStudioModelRenderer::DecalHistory_t,unsigned short>::ListElem_t,int>::operator[]
PUBLIC	?IsIdxValid@?$CUtlMemory@UListElem_t@?$CUtlLinkedList@UDecalHistory_t@CStudioModelRenderer@@G@@H@@QBE_NH@Z ; CUtlMemory<CUtlLinkedList<CStudioModelRenderer::DecalHistory_t,unsigned short>::ListElem_t,int>::IsIdxValid
PUBLIC	?Purge@?$CUtlMemory@UListElem_t@?$CUtlLinkedList@UDecalHistory_t@CStudioModelRenderer@@G@@H@@QAEXXZ ; CUtlMemory<CUtlLinkedList<CStudioModelRenderer::DecalHistory_t,unsigned short>::ListElem_t,int>::Purge
PUBLIC	?IsExternallyAllocated@?$CUtlMemory@UListElem_t@?$CUtlLinkedList@UDecalHistory_t@CStudioModelRenderer@@G@@H@@QBE_NXZ ; CUtlMemory<CUtlLinkedList<CStudioModelRenderer::DecalHistory_t,unsigned short>::ListElem_t,int>::IsExternallyAllocated
PUBLIC	?IsReadOnly@?$CUtlMemory@UListElem_t@?$CUtlLinkedList@UDecalHistory_t@CStudioModelRenderer@@G@@H@@QBE_NXZ ; CUtlMemory<CUtlLinkedList<CStudioModelRenderer::DecalHistory_t,unsigned short>::ListElem_t,int>::IsReadOnly
PUBLIC	??1DecalModelList_t@CStudioModelRenderer@@QAE@XZ ; CStudioModelRenderer::DecalModelList_t::~DecalModelList_t
PUBLIC	??_GDecalModelList_t@CStudioModelRenderer@@QAEPAXI@Z ; CStudioModelRenderer::DecalModelList_t::`scalar deleting destructor'
PUBLIC	??0?$CUtlLinkedList@UDecalMaterial_t@CStudioModelRenderer@@G@@QAE@HH@Z ; CUtlLinkedList<CStudioModelRenderer::DecalMaterial_t,unsigned short>::CUtlLinkedList<CStudioModelRenderer::DecalMaterial_t,unsigned short>
PUBLIC	??1?$CUtlLinkedList@UDecalMaterial_t@CStudioModelRenderer@@G@@QAE@XZ ; CUtlLinkedList<CStudioModelRenderer::DecalMaterial_t,unsigned short>::~CUtlLinkedList<CStudioModelRenderer::DecalMaterial_t,unsigned short>
PUBLIC	?Element@?$CUtlLinkedList@UDecalMaterial_t@CStudioModelRenderer@@G@@QAEAAUDecalMaterial_t@CStudioModelRenderer@@G@Z ; CUtlLinkedList<CStudioModelRenderer::DecalMaterial_t,unsigned short>::Element
PUBLIC	?RemoveAll@?$CUtlLinkedList@UDecalMaterial_t@CStudioModelRenderer@@G@@QAEXXZ ; CUtlLinkedList<CStudioModelRenderer::DecalMaterial_t,unsigned short>::RemoveAll
PUBLIC	?InvalidIndex@?$CUtlLinkedList@UDecalMaterial_t@CStudioModelRenderer@@G@@SAGXZ ; CUtlLinkedList<CStudioModelRenderer::DecalMaterial_t,unsigned short>::InvalidIndex
PUBLIC	?IsValidIndex@?$CUtlLinkedList@UDecalMaterial_t@CStudioModelRenderer@@G@@QBE_NG@Z ; CUtlLinkedList<CStudioModelRenderer::DecalMaterial_t,unsigned short>::IsValidIndex
PUBLIC	?ConstructList@?$CUtlLinkedList@UDecalMaterial_t@CStudioModelRenderer@@G@@IAEXXZ ; CUtlLinkedList<CStudioModelRenderer::DecalMaterial_t,unsigned short>::ConstructList
PUBLIC	?InternalElement@?$CUtlLinkedList@UDecalMaterial_t@CStudioModelRenderer@@G@@IAEAAUListElem_t@1@G@Z ; CUtlLinkedList<CStudioModelRenderer::DecalMaterial_t,unsigned short>::InternalElement
PUBLIC	?ResetDbgInfo@?$CUtlLinkedList@UDecalMaterial_t@CStudioModelRenderer@@G@@IAEXXZ ; CUtlLinkedList<CStudioModelRenderer::DecalMaterial_t,unsigned short>::ResetDbgInfo
PUBLIC	??0?$CUtlMemory@UListElem_t@?$CUtlLinkedList@UDecalMaterial_t@CStudioModelRenderer@@G@@H@@QAE@HH@Z ; CUtlMemory<CUtlLinkedList<CStudioModelRenderer::DecalMaterial_t,unsigned short>::ListElem_t,int>::CUtlMemory<CUtlLinkedList<CStudioModelRenderer::DecalMaterial_t,unsigned short>::ListElem_t,int>
PUBLIC	??1?$CUtlMemory@UListElem_t@?$CUtlLinkedList@UDecalMaterial_t@CStudioModelRenderer@@G@@H@@QAE@XZ ; CUtlMemory<CUtlLinkedList<CStudioModelRenderer::DecalMaterial_t,unsigned short>::ListElem_t,int>::~CUtlMemory<CUtlLinkedList<CStudioModelRenderer::DecalMaterial_t,unsigned short>::ListElem_t,int>
PUBLIC	??A?$CUtlMemory@UListElem_t@?$CUtlLinkedList@UDecalMaterial_t@CStudioModelRenderer@@G@@H@@QAEAAUListElem_t@?$CUtlLinkedList@UDecalMaterial_t@CStudioModelRenderer@@G@@H@Z ; CUtlMemory<CUtlLinkedList<CStudioModelRenderer::DecalMaterial_t,unsigned short>::ListElem_t,int>::operator[]
PUBLIC	??A?$CUtlMemory@UListElem_t@?$CUtlLinkedList@UDecalMaterial_t@CStudioModelRenderer@@G@@H@@QBEABUListElem_t@?$CUtlLinkedList@UDecalMaterial_t@CStudioModelRenderer@@G@@H@Z ; CUtlMemory<CUtlLinkedList<CStudioModelRenderer::DecalMaterial_t,unsigned short>::ListElem_t,int>::operator[]
PUBLIC	?IsIdxValid@?$CUtlMemory@UListElem_t@?$CUtlLinkedList@UDecalMaterial_t@CStudioModelRenderer@@G@@H@@QBE_NH@Z ; CUtlMemory<CUtlLinkedList<CStudioModelRenderer::DecalMaterial_t,unsigned short>::ListElem_t,int>::IsIdxValid
PUBLIC	?Base@?$CUtlMemory@UListElem_t@?$CUtlLinkedList@UDecalMaterial_t@CStudioModelRenderer@@G@@H@@QAEPAUListElem_t@?$CUtlLinkedList@UDecalMaterial_t@CStudioModelRenderer@@G@@XZ ; CUtlMemory<CUtlLinkedList<CStudioModelRenderer::DecalMaterial_t,unsigned short>::ListElem_t,int>::Base
PUBLIC	?Purge@?$CUtlMemory@UListElem_t@?$CUtlLinkedList@UDecalMaterial_t@CStudioModelRenderer@@G@@H@@QAEXXZ ; CUtlMemory<CUtlLinkedList<CStudioModelRenderer::DecalMaterial_t,unsigned short>::ListElem_t,int>::Purge
PUBLIC	?IsExternallyAllocated@?$CUtlMemory@UListElem_t@?$CUtlLinkedList@UDecalMaterial_t@CStudioModelRenderer@@G@@H@@QBE_NXZ ; CUtlMemory<CUtlLinkedList<CStudioModelRenderer::DecalMaterial_t,unsigned short>::ListElem_t,int>::IsExternallyAllocated
PUBLIC	?IsReadOnly@?$CUtlMemory@UListElem_t@?$CUtlLinkedList@UDecalMaterial_t@CStudioModelRenderer@@G@@H@@QBE_NXZ ; CUtlMemory<CUtlLinkedList<CStudioModelRenderer::DecalMaterial_t,unsigned short>::ListElem_t,int>::IsReadOnly
PUBLIC	?ValidateGrowSize@?$CUtlMemory@UListElem_t@?$CUtlLinkedList@UDecalMaterial_t@CStudioModelRenderer@@G@@H@@IAEXXZ ; CUtlMemory<CUtlLinkedList<CStudioModelRenderer::DecalMaterial_t,unsigned short>::ListElem_t,int>::ValidateGrowSize
PUBLIC	??0?$CUtlLinkedList@UDecalModelList_t@CStudioModelRenderer@@G@@QAE@HH@Z ; CUtlLinkedList<CStudioModelRenderer::DecalModelList_t,unsigned short>::CUtlLinkedList<CStudioModelRenderer::DecalModelList_t,unsigned short>
PUBLIC	??1?$CUtlLinkedList@UDecalModelList_t@CStudioModelRenderer@@G@@QAE@XZ ; CUtlLinkedList<CStudioModelRenderer::DecalModelList_t,unsigned short>::~CUtlLinkedList<CStudioModelRenderer::DecalModelList_t,unsigned short>
PUBLIC	?Element@?$CUtlLinkedList@UDecalModelList_t@CStudioModelRenderer@@G@@QAEAAUDecalModelList_t@CStudioModelRenderer@@G@Z ; CUtlLinkedList<CStudioModelRenderer::DecalModelList_t,unsigned short>::Element
PUBLIC	?RemoveAll@?$CUtlLinkedList@UDecalModelList_t@CStudioModelRenderer@@G@@QAEXXZ ; CUtlLinkedList<CStudioModelRenderer::DecalModelList_t,unsigned short>::RemoveAll
PUBLIC	?InvalidIndex@?$CUtlLinkedList@UDecalModelList_t@CStudioModelRenderer@@G@@SAGXZ ; CUtlLinkedList<CStudioModelRenderer::DecalModelList_t,unsigned short>::InvalidIndex
PUBLIC	?IsValidIndex@?$CUtlLinkedList@UDecalModelList_t@CStudioModelRenderer@@G@@QBE_NG@Z ; CUtlLinkedList<CStudioModelRenderer::DecalModelList_t,unsigned short>::IsValidIndex
PUBLIC	?ConstructList@?$CUtlLinkedList@UDecalModelList_t@CStudioModelRenderer@@G@@IAEXXZ ; CUtlLinkedList<CStudioModelRenderer::DecalModelList_t,unsigned short>::ConstructList
PUBLIC	?InternalElement@?$CUtlLinkedList@UDecalModelList_t@CStudioModelRenderer@@G@@IAEAAUListElem_t@1@G@Z ; CUtlLinkedList<CStudioModelRenderer::DecalModelList_t,unsigned short>::InternalElement
PUBLIC	?ResetDbgInfo@?$CUtlLinkedList@UDecalModelList_t@CStudioModelRenderer@@G@@IAEXXZ ; CUtlLinkedList<CStudioModelRenderer::DecalModelList_t,unsigned short>::ResetDbgInfo
PUBLIC	??0?$CUtlMemory@UListElem_t@?$CUtlLinkedList@UDecalModelList_t@CStudioModelRenderer@@G@@H@@QAE@HH@Z ; CUtlMemory<CUtlLinkedList<CStudioModelRenderer::DecalModelList_t,unsigned short>::ListElem_t,int>::CUtlMemory<CUtlLinkedList<CStudioModelRenderer::DecalModelList_t,unsigned short>::ListElem_t,int>
PUBLIC	??1?$CUtlMemory@UListElem_t@?$CUtlLinkedList@UDecalModelList_t@CStudioModelRenderer@@G@@H@@QAE@XZ ; CUtlMemory<CUtlLinkedList<CStudioModelRenderer::DecalModelList_t,unsigned short>::ListElem_t,int>::~CUtlMemory<CUtlLinkedList<CStudioModelRenderer::DecalModelList_t,unsigned short>::ListElem_t,int>
PUBLIC	??A?$CUtlMemory@UListElem_t@?$CUtlLinkedList@UDecalModelList_t@CStudioModelRenderer@@G@@H@@QAEAAUListElem_t@?$CUtlLinkedList@UDecalModelList_t@CStudioModelRenderer@@G@@H@Z ; CUtlMemory<CUtlLinkedList<CStudioModelRenderer::DecalModelList_t,unsigned short>::ListElem_t,int>::operator[]
PUBLIC	??A?$CUtlMemory@UListElem_t@?$CUtlLinkedList@UDecalModelList_t@CStudioModelRenderer@@G@@H@@QBEABUListElem_t@?$CUtlLinkedList@UDecalModelList_t@CStudioModelRenderer@@G@@H@Z ; CUtlMemory<CUtlLinkedList<CStudioModelRenderer::DecalModelList_t,unsigned short>::ListElem_t,int>::operator[]
PUBLIC	?IsIdxValid@?$CUtlMemory@UListElem_t@?$CUtlLinkedList@UDecalModelList_t@CStudioModelRenderer@@G@@H@@QBE_NH@Z ; CUtlMemory<CUtlLinkedList<CStudioModelRenderer::DecalModelList_t,unsigned short>::ListElem_t,int>::IsIdxValid
PUBLIC	?Base@?$CUtlMemory@UListElem_t@?$CUtlLinkedList@UDecalModelList_t@CStudioModelRenderer@@G@@H@@QAEPAUListElem_t@?$CUtlLinkedList@UDecalModelList_t@CStudioModelRenderer@@G@@XZ ; CUtlMemory<CUtlLinkedList<CStudioModelRenderer::DecalModelList_t,unsigned short>::ListElem_t,int>::Base
PUBLIC	?Purge@?$CUtlMemory@UListElem_t@?$CUtlLinkedList@UDecalModelList_t@CStudioModelRenderer@@G@@H@@QAEXXZ ; CUtlMemory<CUtlLinkedList<CStudioModelRenderer::DecalModelList_t,unsigned short>::ListElem_t,int>::Purge
PUBLIC	?IsExternallyAllocated@?$CUtlMemory@UListElem_t@?$CUtlLinkedList@UDecalModelList_t@CStudioModelRenderer@@G@@H@@QBE_NXZ ; CUtlMemory<CUtlLinkedList<CStudioModelRenderer::DecalModelList_t,unsigned short>::ListElem_t,int>::IsExternallyAllocated
PUBLIC	?IsReadOnly@?$CUtlMemory@UListElem_t@?$CUtlLinkedList@UDecalModelList_t@CStudioModelRenderer@@G@@H@@QBE_NXZ ; CUtlMemory<CUtlLinkedList<CStudioModelRenderer::DecalModelList_t,unsigned short>::ListElem_t,int>::IsReadOnly
PUBLIC	?ValidateGrowSize@?$CUtlMemory@UListElem_t@?$CUtlLinkedList@UDecalModelList_t@CStudioModelRenderer@@G@@H@@IAEXXZ ; CUtlMemory<CUtlLinkedList<CStudioModelRenderer::DecalModelList_t,unsigned short>::ListElem_t,int>::ValidateGrowSize
PUBLIC	??0?$CUtlLinkedList@UModelInstance_t@CStudioModelRenderer@@G@@QAE@HH@Z ; CUtlLinkedList<CStudioModelRenderer::ModelInstance_t,unsigned short>::CUtlLinkedList<CStudioModelRenderer::ModelInstance_t,unsigned short>
PUBLIC	??1?$CUtlLinkedList@UModelInstance_t@CStudioModelRenderer@@G@@QAE@XZ ; CUtlLinkedList<CStudioModelRenderer::ModelInstance_t,unsigned short>::~CUtlLinkedList<CStudioModelRenderer::ModelInstance_t,unsigned short>
PUBLIC	?Element@?$CUtlLinkedList@UModelInstance_t@CStudioModelRenderer@@G@@QAEAAUModelInstance_t@CStudioModelRenderer@@G@Z ; CUtlLinkedList<CStudioModelRenderer::ModelInstance_t,unsigned short>::Element
PUBLIC	??A?$CUtlLinkedList@UModelInstance_t@CStudioModelRenderer@@G@@QAEAAUModelInstance_t@CStudioModelRenderer@@G@Z ; CUtlLinkedList<CStudioModelRenderer::ModelInstance_t,unsigned short>::operator[]
PUBLIC	?InsertBefore@?$CUtlLinkedList@UModelInstance_t@CStudioModelRenderer@@G@@QAEGG@Z ; CUtlLinkedList<CStudioModelRenderer::ModelInstance_t,unsigned short>::InsertBefore
PUBLIC	?AddToTail@?$CUtlLinkedList@UModelInstance_t@CStudioModelRenderer@@G@@QAEGXZ ; CUtlLinkedList<CStudioModelRenderer::ModelInstance_t,unsigned short>::AddToTail
PUBLIC	?Remove@?$CUtlLinkedList@UModelInstance_t@CStudioModelRenderer@@G@@QAEXG@Z ; CUtlLinkedList<CStudioModelRenderer::ModelInstance_t,unsigned short>::Remove
PUBLIC	?RemoveAll@?$CUtlLinkedList@UModelInstance_t@CStudioModelRenderer@@G@@QAEXXZ ; CUtlLinkedList<CStudioModelRenderer::ModelInstance_t,unsigned short>::RemoveAll
PUBLIC	?Free@?$CUtlLinkedList@UModelInstance_t@CStudioModelRenderer@@G@@QAEXG@Z ; CUtlLinkedList<CStudioModelRenderer::ModelInstance_t,unsigned short>::Free
PUBLIC	?LinkBefore@?$CUtlLinkedList@UModelInstance_t@CStudioModelRenderer@@G@@QAEXGG@Z ; CUtlLinkedList<CStudioModelRenderer::ModelInstance_t,unsigned short>::LinkBefore
PUBLIC	?Unlink@?$CUtlLinkedList@UModelInstance_t@CStudioModelRenderer@@G@@QAEXG@Z ; CUtlLinkedList<CStudioModelRenderer::ModelInstance_t,unsigned short>::Unlink
PUBLIC	?InvalidIndex@?$CUtlLinkedList@UModelInstance_t@CStudioModelRenderer@@G@@SAGXZ ; CUtlLinkedList<CStudioModelRenderer::ModelInstance_t,unsigned short>::InvalidIndex
PUBLIC	?Count@?$CUtlLinkedList@UModelInstance_t@CStudioModelRenderer@@G@@QBEHXZ ; CUtlLinkedList<CStudioModelRenderer::ModelInstance_t,unsigned short>::Count
PUBLIC	?Previous@?$CUtlLinkedList@UModelInstance_t@CStudioModelRenderer@@G@@QBEGG@Z ; CUtlLinkedList<CStudioModelRenderer::ModelInstance_t,unsigned short>::Previous
PUBLIC	?IsValidIndex@?$CUtlLinkedList@UModelInstance_t@CStudioModelRenderer@@G@@QBE_NG@Z ; CUtlLinkedList<CStudioModelRenderer::ModelInstance_t,unsigned short>::IsValidIndex
PUBLIC	?IsInList@?$CUtlLinkedList@UModelInstance_t@CStudioModelRenderer@@G@@QBE_NG@Z ; CUtlLinkedList<CStudioModelRenderer::ModelInstance_t,unsigned short>::IsInList
PUBLIC	?AllocInternal@?$CUtlLinkedList@UModelInstance_t@CStudioModelRenderer@@G@@IAEG_N@Z ; CUtlLinkedList<CStudioModelRenderer::ModelInstance_t,unsigned short>::AllocInternal
PUBLIC	?ConstructList@?$CUtlLinkedList@UModelInstance_t@CStudioModelRenderer@@G@@IAEXXZ ; CUtlLinkedList<CStudioModelRenderer::ModelInstance_t,unsigned short>::ConstructList
PUBLIC	?InternalElement@?$CUtlLinkedList@UModelInstance_t@CStudioModelRenderer@@G@@IAEAAUListElem_t@1@G@Z ; CUtlLinkedList<CStudioModelRenderer::ModelInstance_t,unsigned short>::InternalElement
PUBLIC	?InternalElement@?$CUtlLinkedList@UModelInstance_t@CStudioModelRenderer@@G@@IBEABUListElem_t@1@G@Z ; CUtlLinkedList<CStudioModelRenderer::ModelInstance_t,unsigned short>::InternalElement
PUBLIC	?ResetDbgInfo@?$CUtlLinkedList@UModelInstance_t@CStudioModelRenderer@@G@@IAEXXZ ; CUtlLinkedList<CStudioModelRenderer::ModelInstance_t,unsigned short>::ResetDbgInfo
PUBLIC	??0?$CUtlMemory@UListElem_t@?$CUtlLinkedList@UModelInstance_t@CStudioModelRenderer@@G@@H@@QAE@HH@Z ; CUtlMemory<CUtlLinkedList<CStudioModelRenderer::ModelInstance_t,unsigned short>::ListElem_t,int>::CUtlMemory<CUtlLinkedList<CStudioModelRenderer::ModelInstance_t,unsigned short>::ListElem_t,int>
PUBLIC	??1?$CUtlMemory@UListElem_t@?$CUtlLinkedList@UModelInstance_t@CStudioModelRenderer@@G@@H@@QAE@XZ ; CUtlMemory<CUtlLinkedList<CStudioModelRenderer::ModelInstance_t,unsigned short>::ListElem_t,int>::~CUtlMemory<CUtlLinkedList<CStudioModelRenderer::ModelInstance_t,unsigned short>::ListElem_t,int>
PUBLIC	??A?$CUtlMemory@UListElem_t@?$CUtlLinkedList@UModelInstance_t@CStudioModelRenderer@@G@@H@@QAEAAUListElem_t@?$CUtlLinkedList@UModelInstance_t@CStudioModelRenderer@@G@@H@Z ; CUtlMemory<CUtlLinkedList<CStudioModelRenderer::ModelInstance_t,unsigned short>::ListElem_t,int>::operator[]
PUBLIC	??A?$CUtlMemory@UListElem_t@?$CUtlLinkedList@UModelInstance_t@CStudioModelRenderer@@G@@H@@QBEABUListElem_t@?$CUtlLinkedList@UModelInstance_t@CStudioModelRenderer@@G@@H@Z ; CUtlMemory<CUtlLinkedList<CStudioModelRenderer::ModelInstance_t,unsigned short>::ListElem_t,int>::operator[]
PUBLIC	?IsIdxValid@?$CUtlMemory@UListElem_t@?$CUtlLinkedList@UModelInstance_t@CStudioModelRenderer@@G@@H@@QBE_NH@Z ; CUtlMemory<CUtlLinkedList<CStudioModelRenderer::ModelInstance_t,unsigned short>::ListElem_t,int>::IsIdxValid
PUBLIC	?Base@?$CUtlMemory@UListElem_t@?$CUtlLinkedList@UModelInstance_t@CStudioModelRenderer@@G@@H@@QAEPAUListElem_t@?$CUtlLinkedList@UModelInstance_t@CStudioModelRenderer@@G@@XZ ; CUtlMemory<CUtlLinkedList<CStudioModelRenderer::ModelInstance_t,unsigned short>::ListElem_t,int>::Base
PUBLIC	?NumAllocated@?$CUtlMemory@UListElem_t@?$CUtlLinkedList@UModelInstance_t@CStudioModelRenderer@@G@@H@@QBEHXZ ; CUtlMemory<CUtlLinkedList<CStudioModelRenderer::ModelInstance_t,unsigned short>::ListElem_t,int>::NumAllocated
PUBLIC	?Grow@?$CUtlMemory@UListElem_t@?$CUtlLinkedList@UModelInstance_t@CStudioModelRenderer@@G@@H@@QAEXH@Z ; CUtlMemory<CUtlLinkedList<CStudioModelRenderer::ModelInstance_t,unsigned short>::ListElem_t,int>::Grow
PUBLIC	?Purge@?$CUtlMemory@UListElem_t@?$CUtlLinkedList@UModelInstance_t@CStudioModelRenderer@@G@@H@@QAEXXZ ; CUtlMemory<CUtlLinkedList<CStudioModelRenderer::ModelInstance_t,unsigned short>::ListElem_t,int>::Purge
PUBLIC	?IsExternallyAllocated@?$CUtlMemory@UListElem_t@?$CUtlLinkedList@UModelInstance_t@CStudioModelRenderer@@G@@H@@QBE_NXZ ; CUtlMemory<CUtlLinkedList<CStudioModelRenderer::ModelInstance_t,unsigned short>::ListElem_t,int>::IsExternallyAllocated
PUBLIC	?IsReadOnly@?$CUtlMemory@UListElem_t@?$CUtlLinkedList@UModelInstance_t@CStudioModelRenderer@@G@@H@@QBE_NXZ ; CUtlMemory<CUtlLinkedList<CStudioModelRenderer::ModelInstance_t,unsigned short>::ListElem_t,int>::IsReadOnly
PUBLIC	?ValidateGrowSize@?$CUtlMemory@UListElem_t@?$CUtlLinkedList@UModelInstance_t@CStudioModelRenderer@@G@@H@@IAEXXZ ; CUtlMemory<CUtlLinkedList<CStudioModelRenderer::ModelInstance_t,unsigned short>::ListElem_t,int>::ValidateGrowSize
PUBLIC	?StudioSetEntity@CStudioModelRenderer@@AAE_NPAUcl_entity_s@@@Z ; CStudioModelRenderer::StudioSetEntity
PUBLIC	?StudioSetEntity@CStudioModelRenderer@@AAE_NPAUgl_studiomesh_t@@@Z ; CStudioModelRenderer::StudioSetEntity
PUBLIC	?IsModelInstanceValid@CStudioModelRenderer@@EAE_NPAUModelInstance_t@1@@Z ; CStudioModelRenderer::IsModelInstanceValid
PUBLIC	?StudioSetupInstance@CStudioModelRenderer@@AAE_NXZ ; CStudioModelRenderer::StudioSetupInstance
PUBLIC	?DestroyInstance@CStudioModelRenderer@@EAEXG@Z	; CStudioModelRenderer::DestroyInstance
PUBLIC	?DrawStudioMeshes@CStudioModelRenderer@@EAEXXZ	; CStudioModelRenderer::DrawStudioMeshes
PUBLIC	?DrawStudioMeshesShadow@CStudioModelRenderer@@EAEXXZ ; CStudioModelRenderer::DrawStudioMeshesShadow
PUBLIC	?StudioDrawShell@CStudioModelRenderer@@EAEXXZ	; CStudioModelRenderer::StudioDrawShell
PUBLIC	?StudioCheckLOD@CStudioModelRenderer@@EAEHXZ	; CStudioModelRenderer::StudioCheckLOD
PUBLIC	?StudioBuildNormalTable@CStudioModelRenderer@@EAEXXZ ; CStudioModelRenderer::StudioBuildNormalTable
PUBLIC	?StudioGenerateNormals@CStudioModelRenderer@@EAEXXZ ; CStudioModelRenderer::StudioGenerateNormals
PUBLIC	?CheckBoneCache@CStudioModelRenderer@@EAE_NM@Z	; CStudioModelRenderer::CheckBoneCache
PUBLIC	?RenderDynLightList@CStudioModelRenderer@@EAEXXZ ; CStudioModelRenderer::RenderDynLightList
PUBLIC	?AddStudioToLightList@CStudioModelRenderer@@EAEXPAUplight_s@@@Z ; CStudioModelRenderer::AddStudioToLightList
PUBLIC	?BuildMeshListForLight@CStudioModelRenderer@@EAEXPAUplight_s@@@Z ; CStudioModelRenderer::BuildMeshListForLight
PUBLIC	?DrawLightForMeshList@CStudioModelRenderer@@EAEXPAUplight_s@@@Z ; CStudioModelRenderer::DrawLightForMeshList
PUBLIC	?CreateMeshCache@CStudioModelRenderer@@EAEPAUmvbocache_s@@PAUdmodellight_t@@@Z ; CStudioModelRenderer::CreateMeshCache
PUBLIC	?ReleaseVBOCache@CStudioModelRenderer@@EAEXPAPAUmvbocache_s@@@Z ; CStudioModelRenderer::ReleaseVBOCache
PUBLIC	?DestroyMeshCache@CStudioModelRenderer@@EAEXXZ	; CStudioModelRenderer::DestroyMeshCache
PUBLIC	?CreateMeshCacheVL@CStudioModelRenderer@@EAEXPAUdmodellight_t@@H@Z ; CStudioModelRenderer::CreateMeshCacheVL
PUBLIC	?LoadStudioMaterials@CStudioModelRenderer@@EAEXXZ ; CStudioModelRenderer::LoadStudioMaterials
PUBLIC	?FreeStudioMaterials@CStudioModelRenderer@@EAEXXZ ; CStudioModelRenderer::FreeStudioMaterials
PUBLIC	?UpdateInstanceMaterials@CStudioModelRenderer@@EAEXXZ ; CStudioModelRenderer::UpdateInstanceMaterials
PUBLIC	?ClearInstanceData@CStudioModelRenderer@@EAEX_N@Z ; CStudioModelRenderer::ClearInstanceData
PUBLIC	?MeshCreateBuffer@CStudioModelRenderer@@AAEXPAUvbomesh_s@@PBUmstudiomesh_t@@PBUmstudiomodel_t@@QBVmatrix3x4@@PAUdmodellight_t@@@Z ; CStudioModelRenderer::MeshCreateBuffer
PUBLIC	?UploadBufferBase@CStudioModelRenderer@@AAEXPAUvbomesh_s@@PAUxvert_s@@@Z ; CStudioModelRenderer::UploadBufferBase
PUBLIC	?UploadBufferVLight@CStudioModelRenderer@@AAEXPAUvbomesh_s@@PAUxvert_s@@@Z ; CStudioModelRenderer::UploadBufferVLight
PUBLIC	?UploadBufferWeight@CStudioModelRenderer@@AAEXPAUvbomesh_s@@PAUxvert_s@@@Z ; CStudioModelRenderer::UploadBufferWeight
PUBLIC	?UploadBufferGeneric@CStudioModelRenderer@@AAEXPAUvbomesh_s@@PAUxvert_s@@_N@Z ; CStudioModelRenderer::UploadBufferGeneric
PUBLIC	?StudioLoadTBN@CStudioModelRenderer@@QAE_NXZ	; CStudioModelRenderer::StudioLoadTBN
PUBLIC	?StudioSaveTBN@CStudioModelRenderer@@QAE_NXZ	; CStudioModelRenderer::StudioSaveTBN
PUBLIC	?DestroyAllModelInstances@CStudioModelRenderer@@QAEXXZ ; CStudioModelRenderer::DestroyAllModelInstances
PUBLIC	?ProcessUserData@CStudioModelRenderer@@QAEXPAUmodel_s@@HPBE@Z ; CStudioModelRenderer::ProcessUserData
PUBLIC	?LoadLocalMatrix@CStudioModelRenderer@@QAEXHPAUmstudioboneinfo_t@@@Z ; CStudioModelRenderer::LoadLocalMatrix
PUBLIC	?GetEntityRenderMode@CStudioModelRenderer@@QAEHPAUcl_entity_s@@@Z ; CStudioModelRenderer::GetEntityRenderMode
PUBLIC	?StudioSetBonesExternal@CStudioModelRenderer@@QAEXPBUcl_entity_s@@QBVVector@@QBVRadian@@@Z ; CStudioModelRenderer::StudioSetBonesExternal
PUBLIC	?DrawStudioModelInternal@CStudioModelRenderer@@QAEXPAUcl_entity_s@@@Z ; CStudioModelRenderer::DrawStudioModelInternal
PUBLIC	?StudioGetAttachment@CStudioModelRenderer@@QAEXPBUcl_entity_s@@HPAVVector@@1H@Z ; CStudioModelRenderer::StudioGetAttachment
PUBLIC	?StudioGetAttachmentNumber@CStudioModelRenderer@@QAEHPBUcl_entity_s@@PBD@Z ; CStudioModelRenderer::StudioGetAttachmentNumber
PUBLIC	?StudioSequenceDuration@CStudioModelRenderer@@QAEMPBUcl_entity_s@@H@Z ; CStudioModelRenderer::StudioSequenceDuration
PUBLIC	?RunViewModelEvents@CStudioModelRenderer@@QAEXXZ ; CStudioModelRenderer::RunViewModelEvents
PUBLIC	?DrawViewModel@CStudioModelRenderer@@QAEXXZ	; CStudioModelRenderer::DrawViewModel
PUBLIC	?ClearLightCache@CStudioModelRenderer@@QAEXXZ	; CStudioModelRenderer::ClearLightCache
PUBLIC	??_GCStudioModelRenderer@@UAEPAXI@Z		; CStudioModelRenderer::`scalar deleting destructor'
PUBLIC	??$__vcrt_va_start_verify_argument_type@PAD@@YAXXZ ; __vcrt_va_start_verify_argument_type<char *>
PUBLIC	??0?$CUtlArray@V?$CUtlArray@HV?$CUtlMemory@HH@@@@V?$CUtlMemory@V?$CUtlArray@HV?$CUtlMemory@HH@@@@H@@@@QAE@HH@Z ; CUtlArray<CUtlArray<int,CUtlMemory<int,int> >,CUtlMemory<CUtlArray<int,CUtlMemory<int,int> >,int> >::CUtlArray<CUtlArray<int,CUtlMemory<int,int> >,CUtlMemory<CUtlArray<int,CUtlMemory<int,int> >,int> >
PUBLIC	??1?$CUtlArray@V?$CUtlArray@HV?$CUtlMemory@HH@@@@V?$CUtlMemory@V?$CUtlArray@HV?$CUtlMemory@HH@@@@H@@@@QAE@XZ ; CUtlArray<CUtlArray<int,CUtlMemory<int,int> >,CUtlMemory<CUtlArray<int,CUtlMemory<int,int> >,int> >::~CUtlArray<CUtlArray<int,CUtlMemory<int,int> >,CUtlMemory<CUtlArray<int,CUtlMemory<int,int> >,int> >
PUBLIC	??A?$CUtlArray@V?$CUtlArray@HV?$CUtlMemory@HH@@@@V?$CUtlMemory@V?$CUtlArray@HV?$CUtlMemory@HH@@@@H@@@@QAEAAV?$CUtlArray@HV?$CUtlMemory@HH@@@@H@Z ; CUtlArray<CUtlArray<int,CUtlMemory<int,int> >,CUtlMemory<CUtlArray<int,CUtlMemory<int,int> >,int> >::operator[]
PUBLIC	?Element@?$CUtlArray@V?$CUtlArray@HV?$CUtlMemory@HH@@@@V?$CUtlMemory@V?$CUtlArray@HV?$CUtlMemory@HH@@@@H@@@@QAEAAV?$CUtlArray@HV?$CUtlMemory@HH@@@@H@Z ; CUtlArray<CUtlArray<int,CUtlMemory<int,int> >,CUtlMemory<CUtlArray<int,CUtlMemory<int,int> >,int> >::Element
PUBLIC	?Base@?$CUtlArray@V?$CUtlArray@HV?$CUtlMemory@HH@@@@V?$CUtlMemory@V?$CUtlArray@HV?$CUtlMemory@HH@@@@H@@@@QAEPAV?$CUtlArray@HV?$CUtlMemory@HH@@@@XZ ; CUtlArray<CUtlArray<int,CUtlMemory<int,int> >,CUtlMemory<CUtlArray<int,CUtlMemory<int,int> >,int> >::Base
PUBLIC	?Count@?$CUtlArray@V?$CUtlArray@HV?$CUtlMemory@HH@@@@V?$CUtlMemory@V?$CUtlArray@HV?$CUtlMemory@HH@@@@H@@@@QBEHXZ ; CUtlArray<CUtlArray<int,CUtlMemory<int,int> >,CUtlMemory<CUtlArray<int,CUtlMemory<int,int> >,int> >::Count
PUBLIC	?IsValidIndex@?$CUtlArray@V?$CUtlArray@HV?$CUtlMemory@HH@@@@V?$CUtlMemory@V?$CUtlArray@HV?$CUtlMemory@HH@@@@H@@@@QBE_NH@Z ; CUtlArray<CUtlArray<int,CUtlMemory<int,int> >,CUtlMemory<CUtlArray<int,CUtlMemory<int,int> >,int> >::IsValidIndex
PUBLIC	?AddMultipleToTail@?$CUtlArray@V?$CUtlArray@HV?$CUtlMemory@HH@@@@V?$CUtlMemory@V?$CUtlArray@HV?$CUtlMemory@HH@@@@H@@@@QAEHHPBV?$CUtlArray@HV?$CUtlMemory@HH@@@@@Z ; CUtlArray<CUtlArray<int,CUtlMemory<int,int> >,CUtlMemory<CUtlArray<int,CUtlMemory<int,int> >,int> >::AddMultipleToTail
PUBLIC	?InsertMultipleBefore@?$CUtlArray@V?$CUtlArray@HV?$CUtlMemory@HH@@@@V?$CUtlMemory@V?$CUtlArray@HV?$CUtlMemory@HH@@@@H@@@@QAEHHHPBV?$CUtlArray@HV?$CUtlMemory@HH@@@@@Z ; CUtlArray<CUtlArray<int,CUtlMemory<int,int> >,CUtlMemory<CUtlArray<int,CUtlMemory<int,int> >,int> >::InsertMultipleBefore
PUBLIC	?RemoveAll@?$CUtlArray@V?$CUtlArray@HV?$CUtlMemory@HH@@@@V?$CUtlMemory@V?$CUtlArray@HV?$CUtlMemory@HH@@@@H@@@@QAEXXZ ; CUtlArray<CUtlArray<int,CUtlMemory<int,int> >,CUtlMemory<CUtlArray<int,CUtlMemory<int,int> >,int> >::RemoveAll
PUBLIC	?Purge@?$CUtlArray@V?$CUtlArray@HV?$CUtlMemory@HH@@@@V?$CUtlMemory@V?$CUtlArray@HV?$CUtlMemory@HH@@@@H@@@@QAEXXZ ; CUtlArray<CUtlArray<int,CUtlMemory<int,int> >,CUtlMemory<CUtlArray<int,CUtlMemory<int,int> >,int> >::Purge
PUBLIC	?GrowVector@?$CUtlArray@V?$CUtlArray@HV?$CUtlMemory@HH@@@@V?$CUtlMemory@V?$CUtlArray@HV?$CUtlMemory@HH@@@@H@@@@IAEXH@Z ; CUtlArray<CUtlArray<int,CUtlMemory<int,int> >,CUtlMemory<CUtlArray<int,CUtlMemory<int,int> >,int> >::GrowVector
PUBLIC	?ShiftElementsRight@?$CUtlArray@V?$CUtlArray@HV?$CUtlMemory@HH@@@@V?$CUtlMemory@V?$CUtlArray@HV?$CUtlMemory@HH@@@@H@@@@IAEXHH@Z ; CUtlArray<CUtlArray<int,CUtlMemory<int,int> >,CUtlMemory<CUtlArray<int,CUtlMemory<int,int> >,int> >::ShiftElementsRight
PUBLIC	??0?$CUtlMemory@V?$CUtlArray@HV?$CUtlMemory@HH@@@@H@@QAE@HH@Z ; CUtlMemory<CUtlArray<int,CUtlMemory<int,int> >,int>::CUtlMemory<CUtlArray<int,CUtlMemory<int,int> >,int>
PUBLIC	??1?$CUtlMemory@V?$CUtlArray@HV?$CUtlMemory@HH@@@@H@@QAE@XZ ; CUtlMemory<CUtlArray<int,CUtlMemory<int,int> >,int>::~CUtlMemory<CUtlArray<int,CUtlMemory<int,int> >,int>
PUBLIC	??A?$CUtlMemory@V?$CUtlArray@HV?$CUtlMemory@HH@@@@H@@QAEAAV?$CUtlArray@HV?$CUtlMemory@HH@@@@H@Z ; CUtlMemory<CUtlArray<int,CUtlMemory<int,int> >,int>::operator[]
PUBLIC	?IsIdxValid@?$CUtlMemory@V?$CUtlArray@HV?$CUtlMemory@HH@@@@H@@QBE_NH@Z ; CUtlMemory<CUtlArray<int,CUtlMemory<int,int> >,int>::IsIdxValid
PUBLIC	?Base@?$CUtlMemory@V?$CUtlArray@HV?$CUtlMemory@HH@@@@H@@QAEPAV?$CUtlArray@HV?$CUtlMemory@HH@@@@XZ ; CUtlMemory<CUtlArray<int,CUtlMemory<int,int> >,int>::Base
PUBLIC	?NumAllocated@?$CUtlMemory@V?$CUtlArray@HV?$CUtlMemory@HH@@@@H@@QBEHXZ ; CUtlMemory<CUtlArray<int,CUtlMemory<int,int> >,int>::NumAllocated
PUBLIC	?Grow@?$CUtlMemory@V?$CUtlArray@HV?$CUtlMemory@HH@@@@H@@QAEXH@Z ; CUtlMemory<CUtlArray<int,CUtlMemory<int,int> >,int>::Grow
PUBLIC	?Purge@?$CUtlMemory@V?$CUtlArray@HV?$CUtlMemory@HH@@@@H@@QAEXXZ ; CUtlMemory<CUtlArray<int,CUtlMemory<int,int> >,int>::Purge
PUBLIC	?IsExternallyAllocated@?$CUtlMemory@V?$CUtlArray@HV?$CUtlMemory@HH@@@@H@@QBE_NXZ ; CUtlMemory<CUtlArray<int,CUtlMemory<int,int> >,int>::IsExternallyAllocated
PUBLIC	?IsReadOnly@?$CUtlMemory@V?$CUtlArray@HV?$CUtlMemory@HH@@@@H@@QBE_NXZ ; CUtlMemory<CUtlArray<int,CUtlMemory<int,int> >,int>::IsReadOnly
PUBLIC	?ValidateGrowSize@?$CUtlMemory@V?$CUtlArray@HV?$CUtlMemory@HH@@@@H@@IAEXXZ ; CUtlMemory<CUtlArray<int,CUtlMemory<int,int> >,int>::ValidateGrowSize
PUBLIC	?ResetDbgInfo@?$CUtlArray@V?$CUtlArray@HV?$CUtlMemory@HH@@@@V?$CUtlMemory@V?$CUtlArray@HV?$CUtlMemory@HH@@@@H@@@@IAEXXZ ; CUtlArray<CUtlArray<int,CUtlMemory<int,int> >,CUtlMemory<CUtlArray<int,CUtlMemory<int,int> >,int> >::ResetDbgInfo
PUBLIC	??0?$CUtlArray@HV?$CUtlMemory@HH@@@@QAE@HH@Z	; CUtlArray<int,CUtlMemory<int,int> >::CUtlArray<int,CUtlMemory<int,int> >
PUBLIC	??1?$CUtlArray@HV?$CUtlMemory@HH@@@@QAE@XZ	; CUtlArray<int,CUtlMemory<int,int> >::~CUtlArray<int,CUtlMemory<int,int> >
PUBLIC	??4?$CUtlArray@HV?$CUtlMemory@HH@@@@QAEAAV0@ABV0@@Z ; CUtlArray<int,CUtlMemory<int,int> >::operator=
PUBLIC	??A?$CUtlArray@HV?$CUtlMemory@HH@@@@QAEAAHH@Z	; CUtlArray<int,CUtlMemory<int,int> >::operator[]
PUBLIC	??A?$CUtlArray@HV?$CUtlMemory@HH@@@@QBEABHH@Z	; CUtlArray<int,CUtlMemory<int,int> >::operator[]
PUBLIC	?Element@?$CUtlArray@HV?$CUtlMemory@HH@@@@QAEAAHH@Z ; CUtlArray<int,CUtlMemory<int,int> >::Element
PUBLIC	?Base@?$CUtlArray@HV?$CUtlMemory@HH@@@@QAEPAHXZ	; CUtlArray<int,CUtlMemory<int,int> >::Base
PUBLIC	?Count@?$CUtlArray@HV?$CUtlMemory@HH@@@@QBEHXZ	; CUtlArray<int,CUtlMemory<int,int> >::Count
PUBLIC	?Size@?$CUtlArray@HV?$CUtlMemory@HH@@@@QBEHXZ	; CUtlArray<int,CUtlMemory<int,int> >::Size
PUBLIC	?IsValidIndex@?$CUtlArray@HV?$CUtlMemory@HH@@@@QBE_NH@Z ; CUtlArray<int,CUtlMemory<int,int> >::IsValidIndex
PUBLIC	?AddToTail@?$CUtlArray@HV?$CUtlMemory@HH@@@@QAEHABH@Z ; CUtlArray<int,CUtlMemory<int,int> >::AddToTail
PUBLIC	?InsertBefore@?$CUtlArray@HV?$CUtlMemory@HH@@@@QAEHHABH@Z ; CUtlArray<int,CUtlMemory<int,int> >::InsertBefore
PUBLIC	?AddMultipleToTail@?$CUtlArray@HV?$CUtlMemory@HH@@@@QAEHHPBH@Z ; CUtlArray<int,CUtlMemory<int,int> >::AddMultipleToTail
PUBLIC	?InsertMultipleBefore@?$CUtlArray@HV?$CUtlMemory@HH@@@@QAEHHHPBH@Z ; CUtlArray<int,CUtlMemory<int,int> >::InsertMultipleBefore
PUBLIC	?SetSize@?$CUtlArray@HV?$CUtlMemory@HH@@@@QAEXH@Z ; CUtlArray<int,CUtlMemory<int,int> >::SetSize
PUBLIC	?SetCount@?$CUtlArray@HV?$CUtlMemory@HH@@@@QAEXH@Z ; CUtlArray<int,CUtlMemory<int,int> >::SetCount
PUBLIC	?RemoveAll@?$CUtlArray@HV?$CUtlMemory@HH@@@@QAEXXZ ; CUtlArray<int,CUtlMemory<int,int> >::RemoveAll
PUBLIC	?Purge@?$CUtlArray@HV?$CUtlMemory@HH@@@@QAEXXZ	; CUtlArray<int,CUtlMemory<int,int> >::Purge
PUBLIC	?GrowVector@?$CUtlArray@HV?$CUtlMemory@HH@@@@IAEXH@Z ; CUtlArray<int,CUtlMemory<int,int> >::GrowVector
PUBLIC	?ShiftElementsRight@?$CUtlArray@HV?$CUtlMemory@HH@@@@IAEXHH@Z ; CUtlArray<int,CUtlMemory<int,int> >::ShiftElementsRight
PUBLIC	??0?$CUtlMemory@HH@@QAE@HH@Z			; CUtlMemory<int,int>::CUtlMemory<int,int>
PUBLIC	??1?$CUtlMemory@HH@@QAE@XZ			; CUtlMemory<int,int>::~CUtlMemory<int,int>
PUBLIC	??A?$CUtlMemory@HH@@QAEAAHH@Z			; CUtlMemory<int,int>::operator[]
PUBLIC	??A?$CUtlMemory@HH@@QBEABHH@Z			; CUtlMemory<int,int>::operator[]
PUBLIC	?IsIdxValid@?$CUtlMemory@HH@@QBE_NH@Z		; CUtlMemory<int,int>::IsIdxValid
PUBLIC	?Base@?$CUtlMemory@HH@@QAEPAHXZ			; CUtlMemory<int,int>::Base
PUBLIC	?NumAllocated@?$CUtlMemory@HH@@QBEHXZ		; CUtlMemory<int,int>::NumAllocated
PUBLIC	?Grow@?$CUtlMemory@HH@@QAEXH@Z			; CUtlMemory<int,int>::Grow
PUBLIC	?Purge@?$CUtlMemory@HH@@QAEXXZ			; CUtlMemory<int,int>::Purge
PUBLIC	?IsExternallyAllocated@?$CUtlMemory@HH@@QBE_NXZ	; CUtlMemory<int,int>::IsExternallyAllocated
PUBLIC	?IsReadOnly@?$CUtlMemory@HH@@QBE_NXZ		; CUtlMemory<int,int>::IsReadOnly
PUBLIC	?ValidateGrowSize@?$CUtlMemory@HH@@IAEXXZ	; CUtlMemory<int,int>::ValidateGrowSize
PUBLIC	?ResetDbgInfo@?$CUtlArray@HV?$CUtlMemory@HH@@@@IAEXXZ ; CUtlArray<int,CUtlMemory<int,int> >::ResetDbgInfo
PUBLIC	??_G?$CUtlArray@HV?$CUtlMemory@HH@@@@QAEPAXI@Z	; CUtlArray<int,CUtlMemory<int,int> >::`scalar deleting destructor'
PUBLIC	??0?$CUtlArray@VVector@@V?$CUtlMemory@VVector@@H@@@@QAE@HH@Z ; CUtlArray<Vector,CUtlMemory<Vector,int> >::CUtlArray<Vector,CUtlMemory<Vector,int> >
PUBLIC	??1?$CUtlArray@VVector@@V?$CUtlMemory@VVector@@H@@@@QAE@XZ ; CUtlArray<Vector,CUtlMemory<Vector,int> >::~CUtlArray<Vector,CUtlMemory<Vector,int> >
PUBLIC	??A?$CUtlArray@VVector@@V?$CUtlMemory@VVector@@H@@@@QAEAAVVector@@H@Z ; CUtlArray<Vector,CUtlMemory<Vector,int> >::operator[]
PUBLIC	?Element@?$CUtlArray@VVector@@V?$CUtlMemory@VVector@@H@@@@QAEAAVVector@@H@Z ; CUtlArray<Vector,CUtlMemory<Vector,int> >::Element
PUBLIC	?Base@?$CUtlArray@VVector@@V?$CUtlMemory@VVector@@H@@@@QAEPAVVector@@XZ ; CUtlArray<Vector,CUtlMemory<Vector,int> >::Base
PUBLIC	?Count@?$CUtlArray@VVector@@V?$CUtlMemory@VVector@@H@@@@QBEHXZ ; CUtlArray<Vector,CUtlMemory<Vector,int> >::Count
PUBLIC	?IsValidIndex@?$CUtlArray@VVector@@V?$CUtlMemory@VVector@@H@@@@QBE_NH@Z ; CUtlArray<Vector,CUtlMemory<Vector,int> >::IsValidIndex
PUBLIC	?AddMultipleToTail@?$CUtlArray@VVector@@V?$CUtlMemory@VVector@@H@@@@QAEHHPBVVector@@@Z ; CUtlArray<Vector,CUtlMemory<Vector,int> >::AddMultipleToTail
PUBLIC	?InsertMultipleBefore@?$CUtlArray@VVector@@V?$CUtlMemory@VVector@@H@@@@QAEHHHPBVVector@@@Z ; CUtlArray<Vector,CUtlMemory<Vector,int> >::InsertMultipleBefore
PUBLIC	?RemoveAll@?$CUtlArray@VVector@@V?$CUtlMemory@VVector@@H@@@@QAEXXZ ; CUtlArray<Vector,CUtlMemory<Vector,int> >::RemoveAll
PUBLIC	?Purge@?$CUtlArray@VVector@@V?$CUtlMemory@VVector@@H@@@@QAEXXZ ; CUtlArray<Vector,CUtlMemory<Vector,int> >::Purge
PUBLIC	?GrowVector@?$CUtlArray@VVector@@V?$CUtlMemory@VVector@@H@@@@IAEXH@Z ; CUtlArray<Vector,CUtlMemory<Vector,int> >::GrowVector
PUBLIC	?ShiftElementsRight@?$CUtlArray@VVector@@V?$CUtlMemory@VVector@@H@@@@IAEXHH@Z ; CUtlArray<Vector,CUtlMemory<Vector,int> >::ShiftElementsRight
PUBLIC	??0?$CUtlMemory@VVector@@H@@QAE@HH@Z		; CUtlMemory<Vector,int>::CUtlMemory<Vector,int>
PUBLIC	??1?$CUtlMemory@VVector@@H@@QAE@XZ		; CUtlMemory<Vector,int>::~CUtlMemory<Vector,int>
PUBLIC	??A?$CUtlMemory@VVector@@H@@QAEAAVVector@@H@Z	; CUtlMemory<Vector,int>::operator[]
PUBLIC	?IsIdxValid@?$CUtlMemory@VVector@@H@@QBE_NH@Z	; CUtlMemory<Vector,int>::IsIdxValid
PUBLIC	?Base@?$CUtlMemory@VVector@@H@@QAEPAVVector@@XZ	; CUtlMemory<Vector,int>::Base
PUBLIC	?NumAllocated@?$CUtlMemory@VVector@@H@@QBEHXZ	; CUtlMemory<Vector,int>::NumAllocated
PUBLIC	?Grow@?$CUtlMemory@VVector@@H@@QAEXH@Z		; CUtlMemory<Vector,int>::Grow
PUBLIC	?Purge@?$CUtlMemory@VVector@@H@@QAEXXZ		; CUtlMemory<Vector,int>::Purge
PUBLIC	?IsExternallyAllocated@?$CUtlMemory@VVector@@H@@QBE_NXZ ; CUtlMemory<Vector,int>::IsExternallyAllocated
PUBLIC	?IsReadOnly@?$CUtlMemory@VVector@@H@@QBE_NXZ	; CUtlMemory<Vector,int>::IsReadOnly
PUBLIC	?ValidateGrowSize@?$CUtlMemory@VVector@@H@@IAEXXZ ; CUtlMemory<Vector,int>::ValidateGrowSize
PUBLIC	?ResetDbgInfo@?$CUtlArray@VVector@@V?$CUtlMemory@VVector@@H@@@@IAEXXZ ; CUtlArray<Vector,CUtlMemory<Vector,int> >::ResetDbgInfo
PUBLIC	??$Destruct@UJiggleData@@@@YAXPAUJiggleData@@@Z	; Destruct<JiggleData>
PUBLIC	??$Destruct@UDecalMaterial_t@CStudioModelRenderer@@@@YAXPAUDecalMaterial_t@CStudioModelRenderer@@@Z ; Destruct<CStudioModelRenderer::DecalMaterial_t>
PUBLIC	??$AlignValue@PAD@@YAPADPADI@Z			; AlignValue<char *>
PUBLIC	??$CopyConstruct@H@@YAXPAHABH@Z			; CopyConstruct<int>
PUBLIC	??$Destruct@UDecalModelList_t@CStudioModelRenderer@@@@YAXPAUDecalModelList_t@CStudioModelRenderer@@@Z ; Destruct<CStudioModelRenderer::DecalModelList_t>
PUBLIC	??$Construct@UModelInstance_t@CStudioModelRenderer@@@@YAXPAUModelInstance_t@CStudioModelRenderer@@@Z ; Construct<CStudioModelRenderer::ModelInstance_t>
PUBLIC	??$Destruct@UModelInstance_t@CStudioModelRenderer@@@@YAXPAUModelInstance_t@CStudioModelRenderer@@@Z ; Destruct<CStudioModelRenderer::ModelInstance_t>
PUBLIC	??$Construct@V?$CUtlArray@HV?$CUtlMemory@HH@@@@@@YAXPAV?$CUtlArray@HV?$CUtlMemory@HH@@@@@Z ; Construct<CUtlArray<int,CUtlMemory<int,int> > >
PUBLIC	??$Construct@VVector@@@@YAXPAVVector@@@Z	; Construct<Vector>
PUBLIC	??$Destruct@VCIKTarget@@@@YAXPAVCIKTarget@@@Z	; Destruct<CIKTarget>
PUBLIC	??$Destruct@Uikcontextikrule_t@@@@YAXPAUikcontextikrule_t@@@Z ; Destruct<ikcontextikrule_t>
PUBLIC	??$Destruct@V?$CUtlArray@Uikcontextikrule_t@@V?$CUtlMemory@Uikcontextikrule_t@@H@@@@@@YAXPAV?$CUtlArray@Uikcontextikrule_t@@V?$CUtlMemory@Uikcontextikrule_t@@H@@@@@Z ; Destruct<CUtlArray<ikcontextikrule_t,CUtlMemory<ikcontextikrule_t,int> > >
PUBLIC	??$Destruct@V?$CUtlArray@HV?$CUtlMemory@HH@@@@@@YAXPAV?$CUtlArray@HV?$CUtlMemory@HH@@@@@Z ; Destruct<CUtlArray<int,CUtlMemory<int,int> > >
PUBLIC	??$Destruct@VVector@@@@YAXPAVVector@@@Z		; Destruct<Vector>
PUBLIC	??$Destruct@UDecalVertex_t@@@@YAXPAUDecalVertex_t@@@Z ; Destruct<DecalVertex_t>
PUBLIC	??$Destruct@UDecal_t@CStudioModelRenderer@@@@YAXPAUDecal_t@CStudioModelRenderer@@@Z ; Destruct<CStudioModelRenderer::Decal_t>
PUBLIC	??$Destruct@G@@YAXPAG@Z				; Destruct<unsigned short>
PUBLIC	??$Destruct@UDecalHistory_t@CStudioModelRenderer@@@@YAXPAUDecalHistory_t@CStudioModelRenderer@@@Z ; Destruct<CStudioModelRenderer::DecalHistory_t>
PUBLIC	??$Destruct@H@@YAXPAH@Z				; Destruct<int>
PUBLIC	??$Construct@H@@YAXPAH@Z			; Construct<int>
PUBLIC	??_7CStudioBoneSetup@@6B@			; CStudioBoneSetup::`vftable'
PUBLIC	??_7CBaseBoneSetup@@6B@				; CBaseBoneSetup::`vftable'
PUBLIC	??_7CStudioModelRenderer@@6B@			; CStudioModelRenderer::`vftable'
PUBLIC	?g_StudioRenderer@@3VCStudioModelRenderer@@A	; g_StudioRenderer
PUBLIC	??_C@_0BA@JMOPJIOD@r_drawviewmodel?$AA@		; `string'
PUBLIC	??_C@_0BA@JPIHAGPE@r_glowshellfreq?$AA@		; `string'
PUBLIC	??_C@_01GBGANLPD@0?$AA@				; `string'
PUBLIC	??_C@_0N@BMBEGFEI@cl_righthand?$AA@		; `string'
PUBLIC	??_C@_02PEECMOAB@90?$AA@			; `string'
PUBLIC	??_C@_0BB@GFAEGODK@cl_viewmodel_fov?$AA@	; `string'
PUBLIC	??_C@_01HIHLOKLC@1?$AA@				; `string'
PUBLIC	??_C@_0BE@PNKFILHP@r_studio_compatible?$AA@	; `string'
PUBLIC	??_C@_03PENLHFGJ@5?40?$AA@			; `string'
PUBLIC	??_C@_0N@MFGINFCA@cl_lod_scale?$AA@		; `string'
PUBLIC	??_C@_0M@BAFBFLKH@cl_lod_bias?$AA@		; `string'
PUBLIC	??_C@_0CI@HNJCCBHN@Couldn?8t?5create?5instance?5for?5ent@ ; `string'
PUBLIC	??_C@_07FLCBLKFO@models?1?$AA@			; `string'
PUBLIC	??_C@_0N@PHFDLJLL@cache?1?$CFs?4tbn?$AA@	; `string'
PUBLIC	??_C@_0CE@EEKENBGP@StudioSaveCache?3?5couldn?8t?5store?5@ ; `string'
PUBLIC	??_C@_0CD@EFLMPMLB@?$CFs?5has?5wrong?5id?5?$CI?$CFx?5should?5be?5?$CFx@ ; `string'
PUBLIC	??_C@_0CI@NNPILMCB@?$CFs?5has?5wrong?5version?5?$CI?$CFi?5should?5@ ; `string'
PUBLIC	??_C@_0CL@EPGJECA@?$CFs?5was?5changed?0?5TBN?5cache?5will?5b@ ; `string'
PUBLIC	?__LINE__Var@?0??DestroyInstance@CStudioModelRenderer@@EAEXG@Z@4JA ; `CStudioModelRenderer::DestroyInstance'::`1'::__LINE__Var
PUBLIC	??_C@_0EN@ILAHEMDB@d?3?2?$CBdiffusion?52020?2source?5code?52@ ; `string'
PUBLIC	?__LINE__Var@?0??UpdateInstanceMaterials@CStudioModelRenderer@@EAEXXZ@4JA ; `CStudioModelRenderer::UpdateInstanceMaterials'::`1'::__LINE__Var
PUBLIC	??_C@_0BI@FECCGOFJ@assert?5failed?5at?5?$CFs?3?$CFi?6?$AA@ ; `string'
PUBLIC	?__LINE__Var@?0??CreateMeshCache@CStudioModelRenderer@@EAEPAUmvbocache_s@@PAUdmodellight_t@@@Z@4JA ; `CStudioModelRenderer::CreateMeshCache'::`1'::__LINE__Var
PUBLIC	??_C@_0CK@MHLMGEKH@?$CFs?3?5generate?5TBN?5due?5loading?5lig@ ; `string'
PUBLIC	??_C@_0CL@GBJOBHFP@Couldn?8t?5find?5submodel?5?$CFs?5for?5bo@ ; `string'
PUBLIC	??_C@_0BM@DPDJIFIK@?$CFs?3?5TBN?5build?5time?5?$CFg?5secs?6?$AA@ ; `string'
PUBLIC	??_C@_0CI@FBJDFNP@CreateMeshCache?3?5memory?5buffer?5o@ ; `string'
PUBLIC	??_C@_0CJ@NPCHACBO@CreateMeshCache?3?5memory?5buffer?5u@ ; `string'
PUBLIC	??_C@_0DM@GLENFNKP@vertexlit?5instance?5created?0?5mode@ ; `string'
PUBLIC	??_C@_0DG@NAMBMKCP@failed?5to?5create?5vertex?5lighting@ ; `string'
PUBLIC	??_C@_0EE@CCEKNHDI@failed?5to?5create?5vertex?5lighting@ ; `string'
PUBLIC	??_C@_0CJ@DJJFCCIF@failed?5to?5create?5vertex?5lighting@ ; `string'
PUBLIC	?__LINE__Var@?0??ReleaseVBOCache@CStudioModelRenderer@@EAEXPAPAUmvbocache_s@@@Z@4JA ; `CStudioModelRenderer::ReleaseVBOCache'::`1'::__LINE__Var
PUBLIC	?__LINE__Var@?0??DestroyMeshCache@CStudioModelRenderer@@EAEXXZ@4JA ; `CStudioModelRenderer::DestroyMeshCache'::`1'::__LINE__Var
PUBLIC	?__LINE__Var@?0??LoadStudioMaterials@CStudioModelRenderer@@EAEXXZ@4JA ; `CStudioModelRenderer::LoadStudioMaterials'::`1'::__LINE__Var
PUBLIC	??_C@_0P@DAAIBIME@textures?1?$CFs?1?$CFs?$AA@	; `string'
PUBLIC	??_C@_06NJHCGIDI@?$CFs?4tga?$AA@		; `string'
PUBLIC	??_C@_06PDNJPBCN@?$CFs?4dds?$AA@		; `string'
PUBLIC	??_C@_05GFOLEBJA@?$CFs?1?$CFs?$AA@		; `string'
PUBLIC	?__LINE__Var@?0??FreeStudioMaterials@CStudioModelRenderer@@EAEXXZ@4JA ; `CStudioModelRenderer::FreeStudioMaterials'::`1'::__LINE__Var
PUBLIC	??_C@_0CD@MFKNBDIC@?$CFs?3?5sequence?3?5?$CFs?5has?5invalid?5bbo@ ; `string'
PUBLIC	??_C@_09DNIFNFLO@studioLOD?$AA@			; `string'
PUBLIC	??_C@_0O@GLEIJHMA@cl_updaterate?$AA@		; `string'
PUBLIC	??_C@_0O@GEDKBEHJ@?$CFs?1?$CFs?$CFi?$CFi?4mdl?$AA@ ; `string'
PUBLIC	??_C@_0N@FDHGFJAO@loading?3?5?$CFs?6?$AA@	; `string'
PUBLIC	??_C@_0M@ECGMMMKA@Bip01?5Spine?$AA@		; `string'
PUBLIC	??_C@_0N@OECCGFMA@Bip01?5Pelvis?$AA@		; `string'
PUBLIC	?__LINE__Var@?0??CalculateIKLocks@CStudioModelRenderer@@EAEXPAVCIKContext@@@Z@4JA ; `CStudioModelRenderer::CalculateIKLocks'::`1'::__LINE__Var
PUBLIC	??_C@_0DM@IKBOKABE@StudioSetupBones?3?5sequence?5?$CFi?1?$CFi@ ; `string'
PUBLIC	?__LINE__Var@?0??StudioMergeBones@CStudioModelRenderer@@EAEXQAVmatrix3x4@@0PAUmodel_s@@1@Z@4JA ; `CStudioModelRenderer::StudioMergeBones'::`1'::__LINE__Var
PUBLIC	?__LINE__Var@?0??StudioBuildNormalTable@CStudioModelRenderer@@EAEXXZ@4JA ; `CStudioModelRenderer::StudioBuildNormalTable'::`1'::__LINE__Var
PUBLIC	?__LINE__Var@?0??StudioGenerateNormals@CStudioModelRenderer@@EAEXXZ@4JA ; `CStudioModelRenderer::StudioGenerateNormals'::`1'::__LINE__Var
PUBLIC	??_C@_0BM@JLFDLDEI@Too?5many?5attachments?5on?5?$CFs?6?$AA@ ; `string'
PUBLIC	?__LINE__Var@?0??StudioDrawPoints@CStudioModelRenderer@@EAEXXZ@4JA ; `CStudioModelRenderer::StudioDrawPoints'::`1'::__LINE__Var
PUBLIC	??_C@_0DD@LDELGCPH@FollowEntity?3?5?$CFi?5with?5model?5?$CFs?5h@ ; `string'
PUBLIC	??_C@_0CK@OHDPOLPJ@R_AddMeshToLightList?3?5light?5list@ ; `string'
PUBLIC	??_C@_0CN@CADECPCM@R_AddMeshToDrawList?3?5mesh?5draw?5l@ ; `string'
PUBLIC	??_C@_0BB@DGBBGFAO@?$CFs?5missed?5cache?6?$AA@	; `string'
PUBLIC	?__LINE__Var@?0??AddStudioToLightList@CStudioModelRenderer@@EAEXPAUplight_s@@@Z@4JA ; `CStudioModelRenderer::AddStudioToLightList'::`1'::__LINE__Var
PUBLIC	?__LINE__Var@?0??DrawLightForMeshList@CStudioModelRenderer@@EAEXPAUplight_s@@@Z@4JA ; `CStudioModelRenderer::DrawLightForMeshList'::`1'::__LINE__Var
PUBLIC	?__LINE__Var@?0??DrawStudioMeshes@CStudioModelRenderer@@EAEXXZ@4JA ; `CStudioModelRenderer::DrawStudioMeshes'::`1'::__LINE__Var
PUBLIC	?__LINE__Var@?0??DrawStudioMeshesShadow@CStudioModelRenderer@@EAEXXZ@4JA ; `CStudioModelRenderer::DrawStudioMeshesShadow'::`1'::__LINE__Var
PUBLIC	??_C@_1JC@EMNIBBBG@?$AAd?$AA?3?$AA?2?$AA?$CB?$AAd?$AAi?$AAf?$AAf?$AAu?$AAs?$AAi?$AAo?$AAn?$AA?5?$AA2?$AA0?$AA2?$AA0?$AA?2?$AAs?$AAo?$AAu?$AAr?$AAc?$AAe?$AA?5?$AAc?$AAo?$AAd?$AAe?$AA?5?$AA2@ ; `string'
PUBLIC	??_C@_1IK@DGJDJNN@?$AA?$CI?$AAB?$AAa?$AAs?$AAe?$AA?$CI?$AA?$CJ?$AA?5?$AA?$DN?$AA?$DN?$AA?5?$AAN?$AAU?$AAL?$AAL?$AA?$CJ?$AA?5?$AA?$HM?$AA?$HM?$AA?5?$AA?$CI?$AA?$CG?$AAs?$AAr?$AAc?$AA?5?$AA?$DM?$AA?5?$AAB?$AAa?$AAs?$AAe@ ; `string'
PUBLIC	??_C@_1LK@CNNNCGDG@?$AA?$CI?$AAB?$AAa?$AAs?$AAe?$AA?$CI?$AA?$CJ?$AA?5?$AA?$DN?$AA?$DN?$AA?5?$AAN?$AAU?$AAL?$AAL?$AA?$CJ?$AA?5?$AA?$HM?$AA?$HM?$AA?5?$AA?$CB?$AAp?$AAT?$AAo?$AAC?$AAo?$AAp?$AAy?$AA?5?$AA?$HM?$AA?$HM?$AA?5@ ; `string'
PUBLIC	??_C@_1JE@CIIIAKCN@?$AAd?$AA?3?$AA?2?$AA?$CB?$AAd?$AAi?$AAf?$AAf?$AAu?$AAs?$AAi?$AAo?$AAn?$AA?5?$AA2?$AA0?$AA2?$AA0?$AA?2?$AAs?$AAo?$AAu?$AAr?$AAc?$AAe?$AA?5?$AAc?$AAo?$AAd?$AAe?$AA?5?$AA2@ ; `string'
PUBLIC	??_C@_1BM@CKILBAKK@?$AAI?$AAs?$AAI?$AAd?$AAx?$AAV?$AAa?$AAl?$AAi?$AAd?$AA?$CI?$AAi?$AA?$CJ?$AA?$AA@ ; `string'
PUBLIC	??_C@_1BO@FOOHAONO@?$AAn?$AAG?$AAr?$AAo?$AAw?$AAS?$AAi?$AAz?$AAe?$AA?5?$AA?$DO?$AA?$DN?$AA?5?$AA0?$AA?$AA@ ; `string'
PUBLIC	??_C@_1BM@PFNFCCHH@?$AA?$CB?$AAI?$AAs?$AAR?$AAe?$AAa?$AAd?$AAO?$AAn?$AAl?$AAy?$AA?$CI?$AA?$CJ?$AA?$AA@ ; `string'
PUBLIC	??_C@_1FA@BPFBJKPF@?$AA?$CI?$AAe?$AAl?$AAe?$AAm?$AA?5?$AA?$DN?$AA?$DN?$AA?5?$AAC?$AAo?$AAu?$AAn?$AAt?$AA?$CI?$AA?$CJ?$AA?$CJ?$AA?5?$AA?$HM?$AA?$HM?$AA?5?$AAI?$AAs?$AAV?$AAa?$AAl?$AAi?$AAd?$AAI?$AAn?$AAd?$AAe@ ; `string'
PUBLIC	??_C@_1JM@DBANHAF@?$AAd?$AA?3?$AA?2?$AA?$CB?$AAd?$AAi?$AAf?$AAf?$AAu?$AAs?$AAi?$AAo?$AAn?$AA?5?$AA2?$AA0?$AA2?$AA0?$AA?2?$AAs?$AAo?$AAu?$AAr?$AAc?$AAe?$AA?5?$AAc?$AAo?$AAd?$AAe?$AA?5?$AA2@ ; `string'
PUBLIC	??_C@_1CG@NPLHJHHO@?$AAI?$AAs?$AAV?$AAa?$AAl?$AAi?$AAd?$AAI?$AAn?$AAd?$AAe?$AAx?$AA?$CI?$AAe?$AAl?$AAe?$AAm?$AA?$CJ?$AA?$AA@ ; `string'
PUBLIC	??_C@_1GM@CDMJDFPA@?$AAI?$AAs?$AAV?$AAa?$AAl?$AAi?$AAd?$AAI?$AAn?$AAd?$AAe?$AAx?$AA?$CI?$AAe?$AAl?$AAe?$AAm?$AA?$CJ?$AA?5?$AA?$HM?$AA?$HM?$AA?5?$AA?$CI?$AA?5?$AAm?$AA_?$AAS?$AAi?$AAz?$AAe?$AA?5?$AA?$DN@ ; `string'
PUBLIC	??_C@_1CC@DEGLGEPC@?$AAI?$AAs?$AAI?$AAn?$AAL?$AAi?$AAs?$AAt?$AA?$CI?$AAb?$AAe?$AAf?$AAo?$AAr?$AAe?$AA?$CJ?$AA?$AA@ ; `string'
PUBLIC	??_C@_1EE@GDGBJBP@?$AAm?$AA_?$AAT?$AAo?$AAt?$AAa?$AAl?$AAE?$AAl?$AAe?$AAm?$AAe?$AAn?$AAt?$AAs?$AA?5?$AA?$CB?$AA?$DN?$AA?5?$AAI?$AAn?$AAv?$AAa?$AAl?$AAi?$AAd?$AAI?$AAn?$AAd?$AAe?$AAx?$AA?$CI@ ; `string'
PUBLIC	??_C@_1CO@HPCBIHGE@?$AAe?$AAl?$AAe?$AAm?$AA?5?$AA?$CB?$AA?$DN?$AA?5?$AAI?$AAn?$AAv?$AAa?$AAl?$AAi?$AAd?$AAI?$AAn?$AAd?$AAe?$AAx?$AA?$CI?$AA?$CJ?$AA?$AA@ ; `string'
PUBLIC	??_C@_1BA@PKCLMAEA@?$AAn?$AAu?$AAm?$AA?5?$AA?$DO?$AA?5?$AA0?$AA?$AA@ ; `string'
PUBLIC	??_C@_13COJANIEC@?$AA0?$AA?$AA@			; `string'
PUBLIC	??_C@_1BE@OPPFELHC@?$AAm?$AA_?$AAp?$AAM?$AAe?$AAm?$AAo?$AAr?$AAy?$AA?$AA@ ; `string'
PUBLIC	??_C@_1CA@DONHBKAI@?$AAI?$AAs?$AAV?$AAa?$AAl?$AAi?$AAd?$AAI?$AAn?$AAd?$AAe?$AAx?$AA?$CI?$AAi?$AA?$CJ?$AA?$AA@ ; `string'
PUBLIC	??_R4CStudioBoneSetup@@6B@			; CStudioBoneSetup::`RTTI Complete Object Locator'
PUBLIC	??_R0?AVCStudioBoneSetup@@@8			; CStudioBoneSetup `RTTI Type Descriptor'
PUBLIC	??_R3CStudioBoneSetup@@8			; CStudioBoneSetup::`RTTI Class Hierarchy Descriptor'
PUBLIC	??_R2CStudioBoneSetup@@8			; CStudioBoneSetup::`RTTI Base Class Array'
PUBLIC	??_R1A@?0A@EA@CStudioBoneSetup@@8		; CStudioBoneSetup::`RTTI Base Class Descriptor at (0,-1,0,64)'
PUBLIC	??_R4CBaseBoneSetup@@6B@			; CBaseBoneSetup::`RTTI Complete Object Locator'
PUBLIC	??_R0?AVCBaseBoneSetup@@@8			; CBaseBoneSetup `RTTI Type Descriptor'
PUBLIC	??_R3CBaseBoneSetup@@8				; CBaseBoneSetup::`RTTI Class Hierarchy Descriptor'
PUBLIC	??_R2CBaseBoneSetup@@8				; CBaseBoneSetup::`RTTI Base Class Array'
PUBLIC	??_R1A@?0A@EA@CBaseBoneSetup@@8			; CBaseBoneSetup::`RTTI Base Class Descriptor at (0,-1,0,64)'
PUBLIC	??_R4CStudioModelRenderer@@6B@			; CStudioModelRenderer::`RTTI Complete Object Locator'
PUBLIC	??_R0?AVCStudioModelRenderer@@@8		; CStudioModelRenderer `RTTI Type Descriptor'
PUBLIC	??_R3CStudioModelRenderer@@8			; CStudioModelRenderer::`RTTI Class Hierarchy Descriptor'
PUBLIC	??_R2CStudioModelRenderer@@8			; CStudioModelRenderer::`RTTI Base Class Array'
PUBLIC	??_R1A@?0A@EA@CStudioModelRenderer@@8		; CStudioModelRenderer::`RTTI Base Class Descriptor at (0,-1,0,64)'
PUBLIC	__real@00000000
PUBLIC	__real@0000000000000000
PUBLIC	__real@3a83126f
PUBLIC	__real@3b808081
PUBLIC	__real@3c000000
PUBLIC	__real@3c23d70a
PUBLIC	__real@3dcccccd
PUBLIC	__real@3e4ccccd
PUBLIC	__real@3e99999a
PUBLIC	__real@3e9d94d0
PUBLIC	__real@3efd70a4
PUBLIC	__real@3f000000
PUBLIC	__real@3f333333
PUBLIC	__real@3f4ccccd
PUBLIC	__real@3f54fdf4
PUBLIC	__real@3f800000
PUBLIC	__real@3f91df46a2529d39
PUBLIC	__real@3fb999999999999a
PUBLIC	__real@3fb99999a0000000
PUBLIC	__real@3fbdf3b6
PUBLIC	__real@3fbf5c29
PUBLIC	__real@3fd51eb860000000
PUBLIC	__real@3ff0000000000000
PUBLIC	__real@3ff004189374bc6a
PUBLIC	__real@40000000
PUBLIC	__real@400921fb54442d18
PUBLIC	__real@4024000000000000
PUBLIC	__real@40400000
PUBLIC	__real@4070000000000000
PUBLIC	__real@4076800000000000
PUBLIC	__real@40800000
PUBLIC	__real@40a00000
PUBLIC	__real@40af400000000000
PUBLIC	__real@40c00000
PUBLIC	__real@40e00000
PUBLIC	__real@41200000
PUBLIC	__real@42000000
PUBLIC	__real@42480000
PUBLIC	__real@42652ee1
PUBLIC	__real@42c80000
PUBLIC	__real@42f00000
PUBLIC	__real@43000000
PUBLIC	__real@43020000
PUBLIC	__real@437f0000
PUBLIC	__real@43960000
PUBLIC	__real@43b40000
PUBLIC	__real@45800000
PUBLIC	__real@45f00800
PUBLIC	__real@46040000
PUBLIC	__real@7f7fffff
PUBLIC	__real@bf800000
PUBLIC	__real@c1200000
PUBLIC	__real@ff7fffff
PUBLIC	__xmm@80000000800000008000000080000000
EXTRN	??2@YAPAXI@Z:PROC				; operator new
EXTRN	??3@YAXPAXI@Z:PROC				; operator delete
EXTRN	_atexit:PROC
EXTRN	__Init_thread_header:PROC
EXTRN	__Init_thread_abort:PROC
EXTRN	__Init_thread_footer:PROC
EXTRN	_memcmp:PROC
EXTRN	_memcpy:PROC
EXTRN	_memmove:PROC
EXTRN	_memset:PROC
EXTRN	_calloc:PROC
EXTRN	_free:PROC
EXTRN	_malloc:PROC
EXTRN	_realloc:PROC
EXTRN	_abs:PROC
EXTRN	_atof:PROC
EXTRN	_atan:PROC
EXTRN	_atan2:PROC
EXTRN	_cos:PROC
EXTRN	_fabs:PROC
EXTRN	_sin:PROC
EXTRN	_sqrt:PROC
EXTRN	_tan:PROC
EXTRN	?AngleQuaternion@@YAXABVRadian@@AAVVector4D@@@Z:PROC ; AngleQuaternion
EXTRN	??0matrix3x4@@QAE@XZ:PROC			; matrix3x4::matrix3x4
EXTRN	?Identity@matrix3x4@@QAEXXZ:PROC		; matrix3x4::Identity
EXTRN	?GetQuaternion@matrix3x4@@QAE?AVVector4D@@XZ:PROC ; matrix3x4::GetQuaternion
EXTRN	?VectorTransform@matrix3x4@@QBE?AVVector@@ABV2@@Z:PROC ; matrix3x4::VectorTransform
EXTRN	?VectorITransform@matrix3x4@@QBE?AVVector@@ABV2@@Z:PROC ; matrix3x4::VectorITransform
EXTRN	?VectorIRotate@matrix3x4@@QBE?AVVector@@ABV2@@Z:PROC ; matrix3x4::VectorIRotate
EXTRN	?ConcatTransforms@matrix3x4@@QAE?AV1@V1@@Z:PROC	; matrix3x4::ConcatTransforms
EXTRN	??4matrix4x4@@QAEAAV0@ABV0@@Z:PROC		; matrix4x4::operator=
EXTRN	?ConcatTransforms@matrix4x4@@QAE?AV1@V1@@Z:PROC	; matrix4x4::ConcatTransforms
EXTRN	?Concat@matrix4x4@@QAE?AV1@V1@@Z:PROC		; matrix4x4::Concat
EXTRN	?TransformAABB@@YAXABVmatrix4x4@@ABVVector@@1AAV2@2@Z:PROC ; TransformAABB
EXTRN	?CalcTBN@@YAXABVVector@@00ABVVector2D@@11AAV1@2_N@Z:PROC ; CalcTBN
EXTRN	?ClearBounds@@YAXAAVVector@@0@Z:PROC		; ClearBounds
EXTRN	?BoundsIsCleared@@YA_NABVVector@@0@Z:PROC	; BoundsIsCleared
EXTRN	?AddPointToBounds@@YAXABVVector@@AAV1@1M@Z:PROC	; AddPointToBounds
EXTRN	?RadiusFromBounds@@YAMABVVector@@0@Z:PROC	; RadiusFromBounds
EXTRN	?BoundsIsNull@@YA_NABVVector@@0@Z:PROC		; BoundsIsNull
EXTRN	?FloatToHalf@@YAGM@Z:PROC			; FloatToHalf
EXTRN	?Q_strlen@@YAHPBD@Z:PROC			; Q_strlen
EXTRN	?Q_strncpy@@YAIPADPBDI@Z:PROC			; Q_strncpy
EXTRN	?Q_strnicmp@@YAHPBD0H@Z:PROC			; Q_strnicmp
EXTRN	?Q_strncmp@@YAHPBD0H@Z:PROC			; Q_strncmp
EXTRN	?Q_vsnprintf@@YAHPADIPBD0@Z:PROC		; Q_vsnprintf
EXTRN	?Q_snprintf@@YAHPADIPBDZZ:PROC			; Q_snprintf
EXTRN	?va@@YAPADPBDZZ:PROC				; va
EXTRN	?COM_FileBase@@YAXPBDPAD@Z:PROC			; COM_FileBase
EXTRN	?COM_ExtractFilePath@@YAXPBDPAD@Z:PROC		; COM_ExtractFilePath
EXTRN	?COM_StripExtension@@YAXPAD@Z:PROC		; COM_StripExtension
EXTRN	__wassert:PROC
EXTRN	?ALERT@@YAXW4ALERT_TYPE@@PADZZ:PROC		; ALERT
EXTRN	?PackColor@@YAMABUcolor24@@@Z:PROC		; PackColor
EXTRN	?CL_UTIL_Approach@@YAMMMM@Z:PROC		; CL_UTIL_Approach
EXTRN	?Mod_CheckBoxVisible@@YA_NABVVector@@0@Z:PROC	; Mod_CheckBoxVisible
EXTRN	?UTIL_IsLocal@@YA_NH@Z:PROC			; UTIL_IsLocal
EXTRN	?HUD_StudioEvent@@YAXPBUmstudioevent_s@@PBUcl_entity_s@@@Z:PROC ; HUD_StudioEvent
EXTRN	?CL_IsDead@@YAHXZ:PROC				; CL_IsDead
EXTRN	?CullBox@CFrustum@@QAE_NABVVector@@0H@Z:PROC	; CFrustum::CullBox
EXTRN	?BuildJiggleTransformations@CJiggleBones@@QAEXHMPBUmstudiojigglebone_t@@ABVmatrix3x4@@AAV3@@Z:PROC ; CJiggleBones::BuildJiggleTransformations
EXTRN	?CalcProceduralBone@@YA_NPBUstudiohdr_t@@HPAVmatrix3x4@@@Z:PROC ; CalcProceduralBone
EXTRN	?GetAnimSourceData@CStudioBoneSetup@@UAEPAUmstudioanim_t@@PAUmstudioseqdesc_t@@@Z:PROC ; CStudioBoneSetup::GetAnimSourceData
EXTRN	?InitPose@CStudioBoneSetup@@QAEXQAVVector@@QAVVector4D@@@Z:PROC ; CStudioBoneSetup::InitPose
EXTRN	?AccumulatePose@CStudioBoneSetup@@QAEXPAVCIKContext@@QAVVector@@QAVVector4D@@HMM@Z:PROC ; CStudioBoneSetup::AccumulatePose
EXTRN	?CalcBoneAdj@CStudioBoneSetup@@QAEXQAVVector@@QAVVector4D@@QBEE@Z:PROC ; CStudioBoneSetup::CalcBoneAdj
EXTRN	?CalcBoneAdj@CStudioBoneSetup@@QAEXQAMQBEE@Z:PROC ; CStudioBoneSetup::CalcBoneAdj
EXTRN	?CalcAutoplaySequences@CStudioBoneSetup@@QAEXPAVCIKContext@@QAVVector@@QAVVector4D@@@Z:PROC ; CStudioBoneSetup::CalcAutoplaySequences
EXTRN	?CalcDefaultPoseParameters@CStudioBoneSetup@@QAEXQAM@Z:PROC ; CStudioBoneSetup::CalcDefaultPoseParameters
EXTRN	?LocalMaxFrame@CStudioBoneSetup@@QAEHH@Z:PROC	; CStudioBoneSetup::LocalMaxFrame
EXTRN	?LocalDuration@CStudioBoneSetup@@QAEMH@Z:PROC	; CStudioBoneSetup::LocalDuration
EXTRN	?SetOwner@CIKTarget@@QAEXHABVVector@@0@Z:PROC	; CIKTarget::SetOwner
EXTRN	?ClearOwner@CIKTarget@@QAEXXZ:PROC		; CIKTarget::ClearOwner
EXTRN	?GetOwner@CIKTarget@@QAEHXZ:PROC		; CIKTarget::GetOwner
EXTRN	?UpdateOwner@CIKTarget@@QAEXHABVVector@@0@Z:PROC ; CIKTarget::UpdateOwner
EXTRN	?SetPos@CIKTarget@@QAEXABVVector@@@Z:PROC	; CIKTarget::SetPos
EXTRN	?SetAngles@CIKTarget@@QAEXABVVector@@@Z:PROC	; CIKTarget::SetAngles
EXTRN	?SetNormal@CIKTarget@@QAEXABVVector@@@Z:PROC	; CIKTarget::SetNormal
EXTRN	?SetPosWithNormalOffset@CIKTarget@@QAEXABVVector@@0@Z:PROC ; CIKTarget::SetPosWithNormalOffset
EXTRN	?SetOnWorld@CIKTarget@@QAEX_N@Z:PROC		; CIKTarget::SetOnWorld
EXTRN	?IsActive@CIKTarget@@QAE_NXZ:PROC		; CIKTarget::IsActive
EXTRN	?IKFailed@CIKTarget@@QAEXXZ:PROC		; CIKTarget::IKFailed
EXTRN	??0CIKContext@@QAE@XZ:PROC			; CIKContext::CIKContext
EXTRN	?Init@CIKContext@@QAEXPBVCStudioBoneSetup@@ABVVector@@1MH@Z:PROC ; CIKContext::Init
EXTRN	?ClearTargets@CIKContext@@QAEXXZ:PROC		; CIKContext::ClearTargets
EXTRN	?UpdateTargets@CIKContext@@QAEXQAVVector@@QAVVector4D@@QAVmatrix3x4@@PAE@Z:PROC ; CIKContext::UpdateTargets
EXTRN	?SolveDependencies@CIKContext@@QAEXQAVVector@@QAVVector4D@@QAVmatrix3x4@@PAE@Z:PROC ; CIKContext::SolveDependencies
EXTRN	?DestroyDecalList@CStudioModelRenderer@@AAEXG@Z:PROC ; CStudioModelRenderer::DestroyDecalList
EXTRN	??_ECStudioModelRenderer@@UAEPAXI@Z:PROC	; CStudioModelRenderer::`vector deleting destructor'
EXTRN	?GL_Support@@YA_NH@Z:PROC			; GL_Support
EXTRN	?GL_LoadMatrix@@YAXVmatrix4x4@@@Z:PROC		; GL_LoadMatrix
EXTRN	?GL_FrontFace@@YAXI@Z:PROC			; GL_FrontFace
EXTRN	?GL_Cull@@YAXI@Z:PROC				; GL_Cull
EXTRN	?GL_DepthMask@@YAXH@Z:PROC			; GL_DepthMask
EXTRN	?GL_AlphaTest@@YAXH@Z:PROC			; GL_AlphaTest
EXTRN	?GL_Blend@@YAXH@Z:PROC				; GL_Blend
EXTRN	?R_CullModel@@YA_NPAUcl_entity_s@@ABVVector@@1@Z:PROC ; R_CullModel
EXTRN	?DBG_DrawBBox@@YAXABVVector@@0@Z:PROC		; DBG_DrawBBox
EXTRN	?R_CountPlights@@YAH_N@Z:PROC			; R_CountPlights
EXTRN	?R_SetupProjectionMatrix@@YAXMMAAVmatrix4x4@@@Z:PROC ; R_SetupProjectionMatrix
EXTRN	?CL_FxBlend@@YAHPAUcl_entity_s@@@Z:PROC		; CL_FxBlend
EXTRN	?R_LoadIdentity@@YAXXZ:PROC			; R_LoadIdentity
EXTRN	?R_TransformForEntity@@YAXABVmatrix4x4@@@Z:PROC	; R_TransformForEntity
EXTRN	?FuncRotatingClient@@YAXPAUcl_entity_s@@@Z:PROC	; FuncRotatingClient
EXTRN	?GL_BindShader@@YAXPAUglsl_prog_s@@@Z:PROC	; GL_BindShader
EXTRN	?GL_UberShaderForSolidStudio@@YAGPAUmstudiomat_s@@_N11H@Z:PROC ; GL_UberShaderForSolidStudio
EXTRN	?GL_UberShaderForDlightStudio@@YAGPBUplight_s@@PAUmstudiomat_s@@_NH@Z:PROC ; GL_UberShaderForDlightStudio
EXTRN	?CL_FindTwoNearestCubeMap@@YAXABVVector@@PAPAUmcubemap_s@@1@Z:PROC ; CL_FindTwoNearestCubeMap
EXTRN	?R_SetRenderColor@@YAXPAUcl_entity_s@@@Z:PROC	; R_SetRenderColor
EXTRN	?LoadMaterialSettingsForTexture@@YAXH@Z:PROC	; LoadMaterialSettingsForTexture
EXTRN	?Init@CSpriteModelRenderer@@UAEXXZ:PROC		; CSpriteModelRenderer::Init
EXTRN	@__security_check_cookie@4:PROC
EXTRN	___CxxFrameHandler3:PROC
EXTRN	__chkstk:PROC
EXTRN	__Init_thread_epoch:DWORD
EXTRN	?g_vecZero@@3VVector@@B:BYTE			; g_vecZero
EXTRN	?gEngfuncs@@3Ucl_enginefuncs_s@@A:BYTE		; gEngfuncs
EXTRN	?gRenderfuncs@@3Urender_api_s@@A:BYTE		; gRenderfuncs
EXTRN	?gHUD@@3VCHud@@A:BYTE				; gHUD
EXTRN	?g_fFrametime@@3MA:DWORD			; g_fFrametime
EXTRN	?developer_level@@3HA:DWORD			; developer_level
EXTRN	?g_fRenderInitialized@@3HA:DWORD		; g_fRenderInitialized
EXTRN	?g_hullcolor@@3PAY02MA:BYTE			; g_hullcolor
EXTRN	?g_boxpnt@@3PAY03HA:BYTE			; g_boxpnt
EXTRN	?pglAlphaFunc@@3P6GXIM@ZA:DWORD			; pglAlphaFunc
EXTRN	?pglBegin@@3P6GXI@ZA:DWORD			; pglBegin
EXTRN	?pglBlendFunc@@3P6GXII@ZA:DWORD			; pglBlendFunc
EXTRN	?pglColor3f@@3P6GXMMM@ZA:DWORD			; pglColor3f
EXTRN	?pglColor3ub@@3P6GXEEE@ZA:DWORD			; pglColor3ub
EXTRN	?pglColor4f@@3P6GXMMMM@ZA:DWORD			; pglColor4f
EXTRN	?pglDepthRange@@3P6GXNN@ZA:DWORD		; pglDepthRange
EXTRN	?pglDisable@@3P6GXI@ZA:DWORD			; pglDisable
EXTRN	?pglEnable@@3P6GXI@ZA:DWORD			; pglEnable
EXTRN	?pglEnd@@3P6GXXZA:DWORD				; pglEnd
EXTRN	?pglMatrixMode@@3P6GXI@ZA:DWORD			; pglMatrixMode
EXTRN	?pglPointSize@@3P6GXM@ZA:DWORD			; pglPointSize
EXTRN	?pglScissor@@3P6GXHHHH@ZA:DWORD			; pglScissor
EXTRN	?pglShadeModel@@3P6GXI@ZA:DWORD			; pglShadeModel
EXTRN	?pglTexCoord2f@@3P6GXMM@ZA:DWORD		; pglTexCoord2f
EXTRN	?pglTexEnvf@@3P6GXIIM@ZA:DWORD			; pglTexEnvf
EXTRN	?pglTexEnvi@@3P6GXIIH@ZA:DWORD			; pglTexEnvi
EXTRN	?pglVertex3fv@@3P6GXPBM@ZA:DWORD		; pglVertex3fv
EXTRN	?pglDrawRangeElementsEXT@@3P6GXIIIHIPBX@ZA:DWORD ; pglDrawRangeElementsEXT
EXTRN	?pglDrawElements@@3P6GXIHIPBX@ZA:DWORD		; pglDrawElements
EXTRN	?pglUniform1fARB@@3P6GXHM@ZA:DWORD		; pglUniform1fARB
EXTRN	?pglUniform2fARB@@3P6GXHMM@ZA:DWORD		; pglUniform2fARB
EXTRN	?pglUniform3fARB@@3P6GXHMMM@ZA:DWORD		; pglUniform3fARB
EXTRN	?pglUniform4fARB@@3P6GXHMMMM@ZA:DWORD		; pglUniform4fARB
EXTRN	?pglUniform3fvARB@@3P6GXHHPBM@ZA:DWORD		; pglUniform3fvARB
EXTRN	?pglUniform4fvARB@@3P6GXHHPBM@ZA:DWORD		; pglUniform4fvARB
EXTRN	?pglUniformMatrix4fvARB@@3P6GXHHEPBM@ZA:DWORD	; pglUniformMatrix4fvARB
EXTRN	?pglVertexAttribPointerARB@@3P6GXIHIEHPBX@ZA:DWORD ; pglVertexAttribPointerARB
EXTRN	?pglEnableVertexAttribArrayARB@@3P6GXI@ZA:DWORD	; pglEnableVertexAttribArrayARB
EXTRN	?pglBindBufferARB@@3P6GXII@ZA:DWORD		; pglBindBufferARB
EXTRN	?pglDeleteBuffersARB@@3P6GXHPBI@ZA:DWORD	; pglDeleteBuffersARB
EXTRN	?pglGenBuffersARB@@3P6GXHPAI@ZA:DWORD		; pglGenBuffersARB
EXTRN	?pglBufferDataARB@@3P6GXIHPBXI@ZA:DWORD		; pglBufferDataARB
EXTRN	?pglBindVertexArray@@3P6GXI@ZA:DWORD		; pglBindVertexArray
EXTRN	?pglDeleteVertexArrays@@3P6GXHPBI@ZA:DWORD	; pglDeleteVertexArrays
EXTRN	?pglGenVertexArrays@@3P6GXHPBI@ZA:DWORD		; pglGenVertexArrays
EXTRN	?r_dynamic@@3PAUcvar_s@@A:DWORD			; r_dynamic
EXTRN	?r_nosort@@3PAUcvar_s@@A:DWORD			; r_nosort
EXTRN	?r_lightmap@@3PAUcvar_s@@A:DWORD		; r_lightmap
EXTRN	?r_fullbright@@3PAUcvar_s@@A:DWORD		; r_fullbright
EXTRN	?r_drawentities@@3PAUcvar_s@@A:DWORD		; r_drawentities
EXTRN	?r_drawmodels@@3PAUcvar_s@@A:DWORD		; r_drawmodels
EXTRN	?cl_viewmodelblend@@3PAUcvar_s@@A:DWORD		; cl_viewmodelblend
EXTRN	?gl_cubemaps@@3PAUcvar_s@@A:DWORD		; gl_cubemaps
EXTRN	?cl_notbn@@3PAUcvar_s@@A:DWORD			; cl_notbn
EXTRN	?gldepthmin@@3MA:DWORD				; gldepthmin
EXTRN	?gldepthmax@@3MA:DWORD				; gldepthmax
EXTRN	?worldmodel@@3PAUmodel_s@@A:DWORD		; worldmodel
EXTRN	?RI@@3PAUref_instance_t@@A:DWORD		; RI
EXTRN	?tr@@3Uref_globals_t@@A:BYTE			; tr
EXTRN	?r_stats@@3Uref_stats_t@@A:BYTE			; r_stats
EXTRN	?cl_plights@@3PAUplight_s@@A:BYTE		; cl_plights
EXTRN	?glState@@3UglState_t@@A:BYTE			; glState
EXTRN	?glConfig@@3UglConfig_t@@A:BYTE			; glConfig
EXTRN	?g_SpriteRenderer@@3VCSpriteModelRenderer@@A:BYTE ; g_SpriteRenderer
EXTRN	?glsl_programs@@3PAUglsl_prog_s@@A:BYTE		; glsl_programs
EXTRN	?glsl@@3Uref_shaders_t@@A:BYTE			; glsl
EXTRN	?world@@3PAUgl_world_t@@A:DWORD			; world
EXTRN	??_7type_info@@6B@:QWORD			; type_info::`vftable'
EXTRN	___security_cookie:DWORD
EXTRN	__fltused:DWORD
EXTRN	__tls_array:DWORD
EXTRN	__tls_index:DWORD
_BSS	SEGMENT
?g_StudioRenderer@@3VCStudioModelRenderer@@A DB 02b23efcH DUP (?) ; g_StudioRenderer
?arraysvert@?1??UploadBufferBase@CStudioModelRenderer@@AAEXPAUvbomesh_s@@PAUxvert_s@@@Z@4PAUsvert_v0_t@@A DB 01117000H DUP (?) ; `CStudioModelRenderer::UploadBufferBase'::`2'::arraysvert
?$TSS0@?1??UploadBufferBase@CStudioModelRenderer@@AAEXPAUvbomesh_s@@PAUxvert_s@@@Z@4HA DD 01H DUP (?) ; `CStudioModelRenderer::UploadBufferBase'::`2'::$TSS0
?arraysvert@?1??UploadBufferVLight@CStudioModelRenderer@@AAEXPAUvbomesh_s@@PAUxvert_s@@@Z@4PAUsvert_v1_t@@A DB 014c0800H DUP (?) ; `CStudioModelRenderer::UploadBufferVLight'::`2'::arraysvert
?$TSS0@?1??UploadBufferVLight@CStudioModelRenderer@@AAEXPAUvbomesh_s@@PAUxvert_s@@@Z@4HA DD 01H DUP (?) ; `CStudioModelRenderer::UploadBufferVLight'::`2'::$TSS0
?arraysvert@?1??UploadBufferWeight@CStudioModelRenderer@@AAEXPAUvbomesh_s@@PAUxvert_s@@@Z@4PAUsvert_v2_t@@A DB 0124f800H DUP (?) ; `CStudioModelRenderer::UploadBufferWeight'::`2'::arraysvert
?$TSS0@?1??UploadBufferWeight@CStudioModelRenderer@@AAEXPAUvbomesh_s@@PAUxvert_s@@@Z@4HA DD 01H DUP (?) ; `CStudioModelRenderer::UploadBufferWeight'::`2'::$TSS0
?arraysvert@?1??UploadBufferGeneric@CStudioModelRenderer@@AAEXPAUvbomesh_s@@PAUxvert_s@@_N@Z@4PAUsvert_v3_t@@A DB 01731800H DUP (?) ; `CStudioModelRenderer::UploadBufferGeneric'::`2'::arraysvert
?$TSS0@?1??UploadBufferGeneric@CStudioModelRenderer@@AAEXPAUvbomesh_s@@PAUxvert_s@@_N@Z@4HA DD 01H DUP (?) ; `CStudioModelRenderer::UploadBufferGeneric'::`2'::$TSS0
?arrayxvert@?1??MeshCreateBuffer@CStudioModelRenderer@@AAEXPAUvbomesh_s@@PBUmstudiomesh_t@@PBUmstudiomodel_t@@QBVmatrix3x4@@PAUdmodellight_t@@@Z@4PAUxvert_s@@A DB 0186a000H DUP (?) ; `CStudioModelRenderer::MeshCreateBuffer'::`2'::arrayxvert
?$TSS0@?1??MeshCreateBuffer@CStudioModelRenderer@@AAEXPAUvbomesh_s@@PBUmstudiomesh_t@@PBUmstudiomodel_t@@QBVmatrix3x4@@PAUdmodellight_t@@@Z@4HA DD 01H DUP (?) ; `CStudioModelRenderer::MeshCreateBuffer'::`2'::$TSS0
?localverts@?1??MeshCreateBuffer@CStudioModelRenderer@@AAEXPAUvbomesh_s@@PBUmstudiomesh_t@@PBUmstudiomodel_t@@QBVmatrix3x4@@PAUdmodellight_t@@@Z@4PAVVector@@A DB 03a9800H DUP (?) ; `CStudioModelRenderer::MeshCreateBuffer'::`2'::localverts
?$TSS1@?1??MeshCreateBuffer@CStudioModelRenderer@@AAEXPAUvbomesh_s@@PBUmstudiomesh_t@@PBUmstudiomodel_t@@QBVmatrix3x4@@PAUdmodellight_t@@@Z@4HA DD 01H DUP (?) ; `CStudioModelRenderer::MeshCreateBuffer'::`2'::$TSS1
?bones@?1??CreateMeshCache@CStudioModelRenderer@@EAEPAUmvbocache_s@@PAUdmodellight_t@@@Z@4PAVmatrix3x4@@A DB 01800H DUP (?) ; `CStudioModelRenderer::CreateMeshCache'::`2'::bones
?$TSS0@?1??CreateMeshCache@CStudioModelRenderer@@EAEPAUmvbocache_s@@PAUdmodellight_t@@@Z@4HA DD 01H DUP (?) ; `CStudioModelRenderer::CreateMeshCache'::`2'::$TSS0
?pos@?1??CreateMeshCache@CStudioModelRenderer@@EAEPAUmvbocache_s@@PAUdmodellight_t@@@Z@4PAVVector@@A DB 0600H DUP (?) ; `CStudioModelRenderer::CreateMeshCache'::`2'::pos
?$TSS1@?1??CreateMeshCache@CStudioModelRenderer@@EAEPAUmvbocache_s@@PAUdmodellight_t@@@Z@4HA DD 01H DUP (?) ; `CStudioModelRenderer::CreateMeshCache'::`2'::$TSS1
?q@?1??CreateMeshCache@CStudioModelRenderer@@EAEPAUmvbocache_s@@PAUdmodellight_t@@@Z@4PAVVector4D@@A DB 0800H DUP (?) ; `CStudioModelRenderer::CreateMeshCache'::`2'::q
?$TSS2@?1??CreateMeshCache@CStudioModelRenderer@@EAEPAUmvbocache_s@@PAUdmodellight_t@@@Z@4HA DD 01H DUP (?) ; `CStudioModelRenderer::CreateMeshCache'::`2'::$TSS2
?pos@?1??StudioSetupBones@CStudioModelRenderer@@EAEXXZ@4PAVVector@@A DB 0600H DUP (?) ; `CStudioModelRenderer::StudioSetupBones'::`2'::pos
?$TSS0@?1??StudioSetupBones@CStudioModelRenderer@@EAEXXZ@4HA DD 01H DUP (?) ; `CStudioModelRenderer::StudioSetupBones'::`2'::$TSS0
?q@?1??StudioSetupBones@CStudioModelRenderer@@EAEXXZ@4PAVVector4D@@A DB 0800H DUP (?) ; `CStudioModelRenderer::StudioSetupBones'::`2'::q
?$TSS1@?1??StudioSetupBones@CStudioModelRenderer@@EAEXXZ@4HA DD 01H DUP (?) ; `CStudioModelRenderer::StudioSetupBones'::`2'::$TSS1
?pos@?1??StudioMergeBones@CStudioModelRenderer@@EAEXQAVmatrix3x4@@0PAUmodel_s@@1@Z@4PAVVector@@A DB 0600H DUP (?) ; `CStudioModelRenderer::StudioMergeBones'::`2'::pos
?$TSS0@?1??StudioMergeBones@CStudioModelRenderer@@EAEXQAVmatrix3x4@@0PAUmodel_s@@1@Z@4HA DD 01H DUP (?) ; `CStudioModelRenderer::StudioMergeBones'::`2'::$TSS0
?q@?1??StudioMergeBones@CStudioModelRenderer@@EAEXQAVmatrix3x4@@0PAUmodel_s@@1@Z@4PAVVector4D@@A DB 0800H DUP (?) ; `CStudioModelRenderer::StudioMergeBones'::`2'::q
?$TSS1@?1??StudioMergeBones@CStudioModelRenderer@@EAEXQAVmatrix3x4@@0PAUmodel_s@@1@Z@4HA DD 01H DUP (?) ; `CStudioModelRenderer::StudioMergeBones'::`2'::$TSS1
_BSS	ENDS
CRT$XCU	SEGMENT
?g_StudioRenderer$initializer$@@3P6AXXZA DD FLAT:??__Eg_StudioRenderer@@YAXXZ ; g_StudioRenderer$initializer$
CRT$XCU	ENDS
;	COMDAT __xmm@80000000800000008000000080000000
CONST	SEGMENT
__xmm@80000000800000008000000080000000 DB 00H, 00H, 00H, 080H, 00H, 00H, 00H
	DB	080H, 00H, 00H, 00H, 080H, 00H, 00H, 00H, 080H
CONST	ENDS
;	COMDAT __real@ff7fffff
CONST	SEGMENT
__real@ff7fffff DD 0ff7fffffr			; -3.40282e+38
CONST	ENDS
;	COMDAT __real@c1200000
CONST	SEGMENT
__real@c1200000 DD 0c1200000r			; -10
CONST	ENDS
;	COMDAT __real@bf800000
CONST	SEGMENT
__real@bf800000 DD 0bf800000r			; -1
CONST	ENDS
;	COMDAT __real@7f7fffff
CONST	SEGMENT
__real@7f7fffff DD 07f7fffffr			; 3.40282e+38
CONST	ENDS
;	COMDAT __real@46040000
CONST	SEGMENT
__real@46040000 DD 046040000r			; 8448
CONST	ENDS
;	COMDAT __real@45f00800
CONST	SEGMENT
__real@45f00800 DD 045f00800r			; 7681
CONST	ENDS
;	COMDAT __real@45800000
CONST	SEGMENT
__real@45800000 DD 045800000r			; 4096
CONST	ENDS
;	COMDAT __real@43b40000
CONST	SEGMENT
__real@43b40000 DD 043b40000r			; 360
CONST	ENDS
;	COMDAT __real@43960000
CONST	SEGMENT
__real@43960000 DD 043960000r			; 300
CONST	ENDS
;	COMDAT __real@437f0000
CONST	SEGMENT
__real@437f0000 DD 0437f0000r			; 255
CONST	ENDS
;	COMDAT __real@43020000
CONST	SEGMENT
__real@43020000 DD 043020000r			; 130
CONST	ENDS
;	COMDAT __real@43000000
CONST	SEGMENT
__real@43000000 DD 043000000r			; 128
CONST	ENDS
;	COMDAT __real@42f00000
CONST	SEGMENT
__real@42f00000 DD 042f00000r			; 120
CONST	ENDS
;	COMDAT __real@42c80000
CONST	SEGMENT
__real@42c80000 DD 042c80000r			; 100
CONST	ENDS
;	COMDAT __real@42652ee1
CONST	SEGMENT
__real@42652ee1 DD 042652ee1r			; 57.2958
CONST	ENDS
;	COMDAT __real@42480000
CONST	SEGMENT
__real@42480000 DD 042480000r			; 50
CONST	ENDS
;	COMDAT __real@42000000
CONST	SEGMENT
__real@42000000 DD 042000000r			; 32
CONST	ENDS
;	COMDAT __real@41200000
CONST	SEGMENT
__real@41200000 DD 041200000r			; 10
CONST	ENDS
;	COMDAT __real@40e00000
CONST	SEGMENT
__real@40e00000 DD 040e00000r			; 7
CONST	ENDS
;	COMDAT __real@40c00000
CONST	SEGMENT
__real@40c00000 DD 040c00000r			; 6
CONST	ENDS
;	COMDAT __real@40af400000000000
CONST	SEGMENT
__real@40af400000000000 DQ 040af400000000000r	; 4000
CONST	ENDS
;	COMDAT __real@40a00000
CONST	SEGMENT
__real@40a00000 DD 040a00000r			; 5
CONST	ENDS
;	COMDAT __real@40800000
CONST	SEGMENT
__real@40800000 DD 040800000r			; 4
CONST	ENDS
;	COMDAT __real@4076800000000000
CONST	SEGMENT
__real@4076800000000000 DQ 04076800000000000r	; 360
CONST	ENDS
;	COMDAT __real@4070000000000000
CONST	SEGMENT
__real@4070000000000000 DQ 04070000000000000r	; 256
CONST	ENDS
;	COMDAT __real@40400000
CONST	SEGMENT
__real@40400000 DD 040400000r			; 3
CONST	ENDS
;	COMDAT __real@4024000000000000
CONST	SEGMENT
__real@4024000000000000 DQ 04024000000000000r	; 10
CONST	ENDS
;	COMDAT __real@400921fb54442d18
CONST	SEGMENT
__real@400921fb54442d18 DQ 0400921fb54442d18r	; 3.14159
CONST	ENDS
;	COMDAT __real@40000000
CONST	SEGMENT
__real@40000000 DD 040000000r			; 2
CONST	ENDS
;	COMDAT __real@3ff004189374bc6a
CONST	SEGMENT
__real@3ff004189374bc6a DQ 03ff004189374bc6ar	; 1.001
CONST	ENDS
;	COMDAT __real@3ff0000000000000
CONST	SEGMENT
__real@3ff0000000000000 DQ 03ff0000000000000r	; 1
CONST	ENDS
;	COMDAT __real@3fd51eb860000000
CONST	SEGMENT
__real@3fd51eb860000000 DQ 03fd51eb860000000r	; 0.33
CONST	ENDS
;	COMDAT __real@3fbf5c29
CONST	SEGMENT
__real@3fbf5c29 DD 03fbf5c29r			; 1.495
CONST	ENDS
;	COMDAT __real@3fbdf3b6
CONST	SEGMENT
__real@3fbdf3b6 DD 03fbdf3b6r			; 1.484
CONST	ENDS
;	COMDAT __real@3fb99999a0000000
CONST	SEGMENT
__real@3fb99999a0000000 DQ 03fb99999a0000000r	; 0.1
CONST	ENDS
;	COMDAT __real@3fb999999999999a
CONST	SEGMENT
__real@3fb999999999999a DQ 03fb999999999999ar	; 0.1
CONST	ENDS
;	COMDAT __real@3f91df46a2529d39
CONST	SEGMENT
__real@3f91df46a2529d39 DQ 03f91df46a2529d39r	; 0.0174533
CONST	ENDS
;	COMDAT __real@3f800000
CONST	SEGMENT
__real@3f800000 DD 03f800000r			; 1
CONST	ENDS
;	COMDAT __real@3f54fdf4
CONST	SEGMENT
__real@3f54fdf4 DD 03f54fdf4r			; 0.832
CONST	ENDS
;	COMDAT __real@3f4ccccd
CONST	SEGMENT
__real@3f4ccccd DD 03f4ccccdr			; 0.8
CONST	ENDS
;	COMDAT __real@3f333333
CONST	SEGMENT
__real@3f333333 DD 03f333333r			; 0.7
CONST	ENDS
;	COMDAT __real@3f000000
CONST	SEGMENT
__real@3f000000 DD 03f000000r			; 0.5
CONST	ENDS
;	COMDAT __real@3efd70a4
CONST	SEGMENT
__real@3efd70a4 DD 03efd70a4r			; 0.495
CONST	ENDS
;	COMDAT __real@3e9d94d0
CONST	SEGMENT
__real@3e9d94d0 DD 03e9d94d0r			; 0.307776
CONST	ENDS
;	COMDAT __real@3e99999a
CONST	SEGMENT
__real@3e99999a DD 03e99999ar			; 0.3
CONST	ENDS
;	COMDAT __real@3e4ccccd
CONST	SEGMENT
__real@3e4ccccd DD 03e4ccccdr			; 0.2
CONST	ENDS
;	COMDAT __real@3dcccccd
CONST	SEGMENT
__real@3dcccccd DD 03dcccccdr			; 0.1
CONST	ENDS
;	COMDAT __real@3c23d70a
CONST	SEGMENT
__real@3c23d70a DD 03c23d70ar			; 0.01
CONST	ENDS
;	COMDAT __real@3c000000
CONST	SEGMENT
__real@3c000000 DD 03c000000r			; 0.0078125
CONST	ENDS
;	COMDAT __real@3b808081
CONST	SEGMENT
__real@3b808081 DD 03b808081r			; 0.00392157
CONST	ENDS
;	COMDAT __real@3a83126f
CONST	SEGMENT
__real@3a83126f DD 03a83126fr			; 0.001
CONST	ENDS
;	COMDAT __real@0000000000000000
CONST	SEGMENT
__real@0000000000000000 DQ 00000000000000000r	; 0
CONST	ENDS
;	COMDAT __real@00000000
CONST	SEGMENT
__real@00000000 DD 000000000r			; 0
CONST	ENDS
;	COMDAT ??_R1A@?0A@EA@CStudioModelRenderer@@8
rdata$r	SEGMENT
??_R1A@?0A@EA@CStudioModelRenderer@@8 DD FLAT:??_R0?AVCStudioModelRenderer@@@8 ; CStudioModelRenderer::`RTTI Base Class Descriptor at (0,-1,0,64)'
	DD	00H
	DD	00H
	DD	0ffffffffH
	DD	00H
	DD	040H
	DD	FLAT:??_R3CStudioModelRenderer@@8
rdata$r	ENDS
;	COMDAT ??_R2CStudioModelRenderer@@8
rdata$r	SEGMENT
??_R2CStudioModelRenderer@@8 DD FLAT:??_R1A@?0A@EA@CStudioModelRenderer@@8 ; CStudioModelRenderer::`RTTI Base Class Array'
rdata$r	ENDS
;	COMDAT ??_R3CStudioModelRenderer@@8
rdata$r	SEGMENT
??_R3CStudioModelRenderer@@8 DD 00H			; CStudioModelRenderer::`RTTI Class Hierarchy Descriptor'
	DD	00H
	DD	01H
	DD	FLAT:??_R2CStudioModelRenderer@@8
rdata$r	ENDS
;	COMDAT ??_R0?AVCStudioModelRenderer@@@8
data$r	SEGMENT
??_R0?AVCStudioModelRenderer@@@8 DD FLAT:??_7type_info@@6B@ ; CStudioModelRenderer `RTTI Type Descriptor'
	DD	00H
	DB	'.?AVCStudioModelRenderer@@', 00H
data$r	ENDS
;	COMDAT ??_R4CStudioModelRenderer@@6B@
rdata$r	SEGMENT
??_R4CStudioModelRenderer@@6B@ DD 00H			; CStudioModelRenderer::`RTTI Complete Object Locator'
	DD	00H
	DD	00H
	DD	FLAT:??_R0?AVCStudioModelRenderer@@@8
	DD	FLAT:??_R3CStudioModelRenderer@@8
rdata$r	ENDS
;	COMDAT ??_R1A@?0A@EA@CBaseBoneSetup@@8
rdata$r	SEGMENT
??_R1A@?0A@EA@CBaseBoneSetup@@8 DD FLAT:??_R0?AVCBaseBoneSetup@@@8 ; CBaseBoneSetup::`RTTI Base Class Descriptor at (0,-1,0,64)'
	DD	01H
	DD	00H
	DD	0ffffffffH
	DD	00H
	DD	040H
	DD	FLAT:??_R3CBaseBoneSetup@@8
rdata$r	ENDS
;	COMDAT ??_R2CBaseBoneSetup@@8
rdata$r	SEGMENT
??_R2CBaseBoneSetup@@8 DD FLAT:??_R1A@?0A@EA@CBaseBoneSetup@@8 ; CBaseBoneSetup::`RTTI Base Class Array'
	DD	FLAT:??_R1A@?0A@EA@CStudioBoneSetup@@8
rdata$r	ENDS
;	COMDAT ??_R3CBaseBoneSetup@@8
rdata$r	SEGMENT
??_R3CBaseBoneSetup@@8 DD 00H				; CBaseBoneSetup::`RTTI Class Hierarchy Descriptor'
	DD	00H
	DD	02H
	DD	FLAT:??_R2CBaseBoneSetup@@8
rdata$r	ENDS
;	COMDAT ??_R0?AVCBaseBoneSetup@@@8
data$r	SEGMENT
??_R0?AVCBaseBoneSetup@@@8 DD FLAT:??_7type_info@@6B@	; CBaseBoneSetup `RTTI Type Descriptor'
	DD	00H
	DB	'.?AVCBaseBoneSetup@@', 00H
data$r	ENDS
;	COMDAT ??_R4CBaseBoneSetup@@6B@
rdata$r	SEGMENT
??_R4CBaseBoneSetup@@6B@ DD 00H				; CBaseBoneSetup::`RTTI Complete Object Locator'
	DD	00H
	DD	00H
	DD	FLAT:??_R0?AVCBaseBoneSetup@@@8
	DD	FLAT:??_R3CBaseBoneSetup@@8
rdata$r	ENDS
;	COMDAT ??_R1A@?0A@EA@CStudioBoneSetup@@8
rdata$r	SEGMENT
??_R1A@?0A@EA@CStudioBoneSetup@@8 DD FLAT:??_R0?AVCStudioBoneSetup@@@8 ; CStudioBoneSetup::`RTTI Base Class Descriptor at (0,-1,0,64)'
	DD	00H
	DD	00H
	DD	0ffffffffH
	DD	00H
	DD	040H
	DD	FLAT:??_R3CStudioBoneSetup@@8
rdata$r	ENDS
;	COMDAT ??_R2CStudioBoneSetup@@8
rdata$r	SEGMENT
??_R2CStudioBoneSetup@@8 DD FLAT:??_R1A@?0A@EA@CStudioBoneSetup@@8 ; CStudioBoneSetup::`RTTI Base Class Array'
rdata$r	ENDS
;	COMDAT ??_R3CStudioBoneSetup@@8
rdata$r	SEGMENT
??_R3CStudioBoneSetup@@8 DD 00H				; CStudioBoneSetup::`RTTI Class Hierarchy Descriptor'
	DD	00H
	DD	01H
	DD	FLAT:??_R2CStudioBoneSetup@@8
rdata$r	ENDS
;	COMDAT ??_R0?AVCStudioBoneSetup@@@8
data$r	SEGMENT
??_R0?AVCStudioBoneSetup@@@8 DD FLAT:??_7type_info@@6B@	; CStudioBoneSetup `RTTI Type Descriptor'
	DD	00H
	DB	'.?AVCStudioBoneSetup@@', 00H
data$r	ENDS
;	COMDAT ??_R4CStudioBoneSetup@@6B@
rdata$r	SEGMENT
??_R4CStudioBoneSetup@@6B@ DD 00H			; CStudioBoneSetup::`RTTI Complete Object Locator'
	DD	00H
	DD	00H
	DD	FLAT:??_R0?AVCStudioBoneSetup@@@8
	DD	FLAT:??_R3CStudioBoneSetup@@8
rdata$r	ENDS
;	COMDAT ??_C@_1CA@DONHBKAI@?$AAI?$AAs?$AAV?$AAa?$AAl?$AAi?$AAd?$AAI?$AAn?$AAd?$AAe?$AAx?$AA?$CI?$AAi?$AA?$CJ?$AA?$AA@
CONST	SEGMENT
??_C@_1CA@DONHBKAI@?$AAI?$AAs?$AAV?$AAa?$AAl?$AAi?$AAd?$AAI?$AAn?$AAd?$AAe?$AAx?$AA?$CI?$AAi?$AA?$CJ?$AA?$AA@ DB 'I'
	DB	00H, 's', 00H, 'V', 00H, 'a', 00H, 'l', 00H, 'i', 00H, 'd', 00H
	DB	'I', 00H, 'n', 00H, 'd', 00H, 'e', 00H, 'x', 00H, '(', 00H, 'i'
	DB	00H, ')', 00H, 00H, 00H			; `string'
CONST	ENDS
;	COMDAT ??_C@_1BE@OPPFELHC@?$AAm?$AA_?$AAp?$AAM?$AAe?$AAm?$AAo?$AAr?$AAy?$AA?$AA@
CONST	SEGMENT
??_C@_1BE@OPPFELHC@?$AAm?$AA_?$AAp?$AAM?$AAe?$AAm?$AAo?$AAr?$AAy?$AA?$AA@ DB 'm'
	DB	00H, '_', 00H, 'p', 00H, 'M', 00H, 'e', 00H, 'm', 00H, 'o', 00H
	DB	'r', 00H, 'y', 00H, 00H, 00H			; `string'
CONST	ENDS
;	COMDAT ??_C@_13COJANIEC@?$AA0?$AA?$AA@
CONST	SEGMENT
??_C@_13COJANIEC@?$AA0?$AA?$AA@ DB '0', 00H, 00H, 00H	; `string'
CONST	ENDS
;	COMDAT ??_C@_1BA@PKCLMAEA@?$AAn?$AAu?$AAm?$AA?5?$AA?$DO?$AA?5?$AA0?$AA?$AA@
CONST	SEGMENT
??_C@_1BA@PKCLMAEA@?$AAn?$AAu?$AAm?$AA?5?$AA?$DO?$AA?5?$AA0?$AA?$AA@ DB 'n'
	DB	00H, 'u', 00H, 'm', 00H, ' ', 00H, '>', 00H, ' ', 00H, '0', 00H
	DB	00H, 00H					; `string'
CONST	ENDS
;	COMDAT ??_C@_1CO@HPCBIHGE@?$AAe?$AAl?$AAe?$AAm?$AA?5?$AA?$CB?$AA?$DN?$AA?5?$AAI?$AAn?$AAv?$AAa?$AAl?$AAi?$AAd?$AAI?$AAn?$AAd?$AAe?$AAx?$AA?$CI?$AA?$CJ?$AA?$AA@
CONST	SEGMENT
??_C@_1CO@HPCBIHGE@?$AAe?$AAl?$AAe?$AAm?$AA?5?$AA?$CB?$AA?$DN?$AA?5?$AAI?$AAn?$AAv?$AAa?$AAl?$AAi?$AAd?$AAI?$AAn?$AAd?$AAe?$AAx?$AA?$CI?$AA?$CJ?$AA?$AA@ DB 'e'
	DB	00H, 'l', 00H, 'e', 00H, 'm', 00H, ' ', 00H, '!', 00H, '=', 00H
	DB	' ', 00H, 'I', 00H, 'n', 00H, 'v', 00H, 'a', 00H, 'l', 00H, 'i'
	DB	00H, 'd', 00H, 'I', 00H, 'n', 00H, 'd', 00H, 'e', 00H, 'x', 00H
	DB	'(', 00H, ')', 00H, 00H, 00H			; `string'
CONST	ENDS
;	COMDAT ??_C@_1EE@GDGBJBP@?$AAm?$AA_?$AAT?$AAo?$AAt?$AAa?$AAl?$AAE?$AAl?$AAe?$AAm?$AAe?$AAn?$AAt?$AAs?$AA?5?$AA?$CB?$AA?$DN?$AA?5?$AAI?$AAn?$AAv?$AAa?$AAl?$AAi?$AAd?$AAI?$AAn?$AAd?$AAe?$AAx?$AA?$CI@
CONST	SEGMENT
??_C@_1EE@GDGBJBP@?$AAm?$AA_?$AAT?$AAo?$AAt?$AAa?$AAl?$AAE?$AAl?$AAe?$AAm?$AAe?$AAn?$AAt?$AAs?$AA?5?$AA?$CB?$AA?$DN?$AA?5?$AAI?$AAn?$AAv?$AAa?$AAl?$AAi?$AAd?$AAI?$AAn?$AAd?$AAe?$AAx?$AA?$CI@ DB 'm'
	DB	00H, '_', 00H, 'T', 00H, 'o', 00H, 't', 00H, 'a', 00H, 'l', 00H
	DB	'E', 00H, 'l', 00H, 'e', 00H, 'm', 00H, 'e', 00H, 'n', 00H, 't'
	DB	00H, 's', 00H, ' ', 00H, '!', 00H, '=', 00H, ' ', 00H, 'I', 00H
	DB	'n', 00H, 'v', 00H, 'a', 00H, 'l', 00H, 'i', 00H, 'd', 00H, 'I'
	DB	00H, 'n', 00H, 'd', 00H, 'e', 00H, 'x', 00H, '(', 00H, ')', 00H
	DB	00H, 00H					; `string'
CONST	ENDS
;	COMDAT ??_C@_1CC@DEGLGEPC@?$AAI?$AAs?$AAI?$AAn?$AAL?$AAi?$AAs?$AAt?$AA?$CI?$AAb?$AAe?$AAf?$AAo?$AAr?$AAe?$AA?$CJ?$AA?$AA@
CONST	SEGMENT
??_C@_1CC@DEGLGEPC@?$AAI?$AAs?$AAI?$AAn?$AAL?$AAi?$AAs?$AAt?$AA?$CI?$AAb?$AAe?$AAf?$AAo?$AAr?$AAe?$AA?$CJ?$AA?$AA@ DB 'I'
	DB	00H, 's', 00H, 'I', 00H, 'n', 00H, 'L', 00H, 'i', 00H, 's', 00H
	DB	't', 00H, '(', 00H, 'b', 00H, 'e', 00H, 'f', 00H, 'o', 00H, 'r'
	DB	00H, 'e', 00H, ')', 00H, 00H, 00H		; `string'
CONST	ENDS
;	COMDAT ??_C@_1GM@CDMJDFPA@?$AAI?$AAs?$AAV?$AAa?$AAl?$AAi?$AAd?$AAI?$AAn?$AAd?$AAe?$AAx?$AA?$CI?$AAe?$AAl?$AAe?$AAm?$AA?$CJ?$AA?5?$AA?$HM?$AA?$HM?$AA?5?$AA?$CI?$AA?5?$AAm?$AA_?$AAS?$AAi?$AAz?$AAe?$AA?5?$AA?$DN@
CONST	SEGMENT
??_C@_1GM@CDMJDFPA@?$AAI?$AAs?$AAV?$AAa?$AAl?$AAi?$AAd?$AAI?$AAn?$AAd?$AAe?$AAx?$AA?$CI?$AAe?$AAl?$AAe?$AAm?$AA?$CJ?$AA?5?$AA?$HM?$AA?$HM?$AA?5?$AA?$CI?$AA?5?$AAm?$AA_?$AAS?$AAi?$AAz?$AAe?$AA?5?$AA?$DN@ DB 'I'
	DB	00H, 's', 00H, 'V', 00H, 'a', 00H, 'l', 00H, 'i', 00H, 'd', 00H
	DB	'I', 00H, 'n', 00H, 'd', 00H, 'e', 00H, 'x', 00H, '(', 00H, 'e'
	DB	00H, 'l', 00H, 'e', 00H, 'm', 00H, ')', 00H, ' ', 00H, '|', 00H
	DB	'|', 00H, ' ', 00H, '(', 00H, ' ', 00H, 'm', 00H, '_', 00H, 'S'
	DB	00H, 'i', 00H, 'z', 00H, 'e', 00H, ' ', 00H, '=', 00H, '=', 00H
	DB	' ', 00H, '0', 00H, ' ', 00H, ')', 00H, ' ', 00H, '|', 00H, '|'
	DB	00H, ' ', 00H, '(', 00H, ' ', 00H, 'n', 00H, 'u', 00H, 'm', 00H
	DB	' ', 00H, '=', 00H, '=', 00H, ' ', 00H, '0', 00H, ' ', 00H, ')'
	DB	00H, 00H, 00H				; `string'
CONST	ENDS
;	COMDAT ??_C@_1CG@NPLHJHHO@?$AAI?$AAs?$AAV?$AAa?$AAl?$AAi?$AAd?$AAI?$AAn?$AAd?$AAe?$AAx?$AA?$CI?$AAe?$AAl?$AAe?$AAm?$AA?$CJ?$AA?$AA@
CONST	SEGMENT
??_C@_1CG@NPLHJHHO@?$AAI?$AAs?$AAV?$AAa?$AAl?$AAi?$AAd?$AAI?$AAn?$AAd?$AAe?$AAx?$AA?$CI?$AAe?$AAl?$AAe?$AAm?$AA?$CJ?$AA?$AA@ DB 'I'
	DB	00H, 's', 00H, 'V', 00H, 'a', 00H, 'l', 00H, 'i', 00H, 'd', 00H
	DB	'I', 00H, 'n', 00H, 'd', 00H, 'e', 00H, 'x', 00H, '(', 00H, 'e'
	DB	00H, 'l', 00H, 'e', 00H, 'm', 00H, ')', 00H, 00H, 00H ; `string'
CONST	ENDS
;	COMDAT ??_C@_1JM@DBANHAF@?$AAd?$AA?3?$AA?2?$AA?$CB?$AAd?$AAi?$AAf?$AAf?$AAu?$AAs?$AAi?$AAo?$AAn?$AA?5?$AA2?$AA0?$AA2?$AA0?$AA?2?$AAs?$AAo?$AAu?$AAr?$AAc?$AAe?$AA?5?$AAc?$AAo?$AAd?$AAe?$AA?5?$AA2@
CONST	SEGMENT
??_C@_1JM@DBANHAF@?$AAd?$AA?3?$AA?2?$AA?$CB?$AAd?$AAi?$AAf?$AAf?$AAu?$AAs?$AAi?$AAo?$AAn?$AA?5?$AA2?$AA0?$AA2?$AA0?$AA?2?$AAs?$AAo?$AAu?$AAr?$AAc?$AAe?$AA?5?$AAc?$AAo?$AAd?$AAe?$AA?5?$AA2@ DB 'd'
	DB	00H, ':', 00H, '\', 00H, '!', 00H, 'd', 00H, 'i', 00H, 'f', 00H
	DB	'f', 00H, 'u', 00H, 's', 00H, 'i', 00H, 'o', 00H, 'n', 00H, ' '
	DB	00H, '2', 00H, '0', 00H, '2', 00H, '0', 00H, '\', 00H, 's', 00H
	DB	'o', 00H, 'u', 00H, 'r', 00H, 'c', 00H, 'e', 00H, ' ', 00H, 'c'
	DB	00H, 'o', 00H, 'd', 00H, 'e', 00H, ' ', 00H, '2', 00H, '0', 00H
	DB	'2', 00H, '2', 00H, '\', 00H, 'c', 00H, 'l', 00H, 'i', 00H, 'e'
	DB	00H, 'n', 00H, 't', 00H, '-', 00H, 's', 00H, 'e', 00H, 'r', 00H
	DB	'v', 00H, 'e', 00H, 'r', 00H, '\', 00H, 'g', 00H, 'a', 00H, 'm'
	DB	00H, 'e', 00H, '_', 00H, 's', 00H, 'h', 00H, 'a', 00H, 'r', 00H
	DB	'e', 00H, 'd', 00H, '\', 00H, 'u', 00H, 't', 00H, 'l', 00H, 'l'
	DB	00H, 'i', 00H, 'n', 00H, 'k', 00H, 'e', 00H, 'd', 00H, 'l', 00H
	DB	'i', 00H, 's', 00H, 't', 00H, '.', 00H, 'h', 00H, 00H, 00H ; `string'
CONST	ENDS
;	COMDAT ??_C@_1FA@BPFBJKPF@?$AA?$CI?$AAe?$AAl?$AAe?$AAm?$AA?5?$AA?$DN?$AA?$DN?$AA?5?$AAC?$AAo?$AAu?$AAn?$AAt?$AA?$CI?$AA?$CJ?$AA?$CJ?$AA?5?$AA?$HM?$AA?$HM?$AA?5?$AAI?$AAs?$AAV?$AAa?$AAl?$AAi?$AAd?$AAI?$AAn?$AAd?$AAe@
CONST	SEGMENT
??_C@_1FA@BPFBJKPF@?$AA?$CI?$AAe?$AAl?$AAe?$AAm?$AA?5?$AA?$DN?$AA?$DN?$AA?5?$AAC?$AAo?$AAu?$AAn?$AAt?$AA?$CI?$AA?$CJ?$AA?$CJ?$AA?5?$AA?$HM?$AA?$HM?$AA?5?$AAI?$AAs?$AAV?$AAa?$AAl?$AAi?$AAd?$AAI?$AAn?$AAd?$AAe@ DB '('
	DB	00H, 'e', 00H, 'l', 00H, 'e', 00H, 'm', 00H, ' ', 00H, '=', 00H
	DB	'=', 00H, ' ', 00H, 'C', 00H, 'o', 00H, 'u', 00H, 'n', 00H, 't'
	DB	00H, '(', 00H, ')', 00H, ')', 00H, ' ', 00H, '|', 00H, '|', 00H
	DB	' ', 00H, 'I', 00H, 's', 00H, 'V', 00H, 'a', 00H, 'l', 00H, 'i'
	DB	00H, 'd', 00H, 'I', 00H, 'n', 00H, 'd', 00H, 'e', 00H, 'x', 00H
	DB	'(', 00H, 'e', 00H, 'l', 00H, 'e', 00H, 'm', 00H, ')', 00H, 00H
	DB	00H						; `string'
CONST	ENDS
;	COMDAT ??_C@_1BM@PFNFCCHH@?$AA?$CB?$AAI?$AAs?$AAR?$AAe?$AAa?$AAd?$AAO?$AAn?$AAl?$AAy?$AA?$CI?$AA?$CJ?$AA?$AA@
CONST	SEGMENT
??_C@_1BM@PFNFCCHH@?$AA?$CB?$AAI?$AAs?$AAR?$AAe?$AAa?$AAd?$AAO?$AAn?$AAl?$AAy?$AA?$CI?$AA?$CJ?$AA?$AA@ DB '!'
	DB	00H, 'I', 00H, 's', 00H, 'R', 00H, 'e', 00H, 'a', 00H, 'd', 00H
	DB	'O', 00H, 'n', 00H, 'l', 00H, 'y', 00H, '(', 00H, ')', 00H, 00H
	DB	00H						; `string'
CONST	ENDS
;	COMDAT ??_C@_1BO@FOOHAONO@?$AAn?$AAG?$AAr?$AAo?$AAw?$AAS?$AAi?$AAz?$AAe?$AA?5?$AA?$DO?$AA?$DN?$AA?5?$AA0?$AA?$AA@
CONST	SEGMENT
??_C@_1BO@FOOHAONO@?$AAn?$AAG?$AAr?$AAo?$AAw?$AAS?$AAi?$AAz?$AAe?$AA?5?$AA?$DO?$AA?$DN?$AA?5?$AA0?$AA?$AA@ DB 'n'
	DB	00H, 'G', 00H, 'r', 00H, 'o', 00H, 'w', 00H, 'S', 00H, 'i', 00H
	DB	'z', 00H, 'e', 00H, ' ', 00H, '>', 00H, '=', 00H, ' ', 00H, '0'
	DB	00H, 00H, 00H				; `string'
CONST	ENDS
;	COMDAT ??_C@_1BM@CKILBAKK@?$AAI?$AAs?$AAI?$AAd?$AAx?$AAV?$AAa?$AAl?$AAi?$AAd?$AA?$CI?$AAi?$AA?$CJ?$AA?$AA@
CONST	SEGMENT
??_C@_1BM@CKILBAKK@?$AAI?$AAs?$AAI?$AAd?$AAx?$AAV?$AAa?$AAl?$AAi?$AAd?$AA?$CI?$AAi?$AA?$CJ?$AA?$AA@ DB 'I'
	DB	00H, 's', 00H, 'I', 00H, 'd', 00H, 'x', 00H, 'V', 00H, 'a', 00H
	DB	'l', 00H, 'i', 00H, 'd', 00H, '(', 00H, 'i', 00H, ')', 00H, 00H
	DB	00H						; `string'
CONST	ENDS
;	COMDAT ??_C@_1JE@CIIIAKCN@?$AAd?$AA?3?$AA?2?$AA?$CB?$AAd?$AAi?$AAf?$AAf?$AAu?$AAs?$AAi?$AAo?$AAn?$AA?5?$AA2?$AA0?$AA2?$AA0?$AA?2?$AAs?$AAo?$AAu?$AAr?$AAc?$AAe?$AA?5?$AAc?$AAo?$AAd?$AAe?$AA?5?$AA2@
CONST	SEGMENT
??_C@_1JE@CIIIAKCN@?$AAd?$AA?3?$AA?2?$AA?$CB?$AAd?$AAi?$AAf?$AAf?$AAu?$AAs?$AAi?$AAo?$AAn?$AA?5?$AA2?$AA0?$AA2?$AA0?$AA?2?$AAs?$AAo?$AAu?$AAr?$AAc?$AAe?$AA?5?$AAc?$AAo?$AAd?$AAe?$AA?5?$AA2@ DB 'd'
	DB	00H, ':', 00H, '\', 00H, '!', 00H, 'd', 00H, 'i', 00H, 'f', 00H
	DB	'f', 00H, 'u', 00H, 's', 00H, 'i', 00H, 'o', 00H, 'n', 00H, ' '
	DB	00H, '2', 00H, '0', 00H, '2', 00H, '0', 00H, '\', 00H, 's', 00H
	DB	'o', 00H, 'u', 00H, 'r', 00H, 'c', 00H, 'e', 00H, ' ', 00H, 'c'
	DB	00H, 'o', 00H, 'd', 00H, 'e', 00H, ' ', 00H, '2', 00H, '0', 00H
	DB	'2', 00H, '2', 00H, '\', 00H, 'c', 00H, 'l', 00H, 'i', 00H, 'e'
	DB	00H, 'n', 00H, 't', 00H, '-', 00H, 's', 00H, 'e', 00H, 'r', 00H
	DB	'v', 00H, 'e', 00H, 'r', 00H, '\', 00H, 'g', 00H, 'a', 00H, 'm'
	DB	00H, 'e', 00H, '_', 00H, 's', 00H, 'h', 00H, 'a', 00H, 'r', 00H
	DB	'e', 00H, 'd', 00H, '\', 00H, 'u', 00H, 't', 00H, 'l', 00H, 'm'
	DB	00H, 'e', 00H, 'm', 00H, 'o', 00H, 'r', 00H, 'y', 00H, '.', 00H
	DB	'h', 00H, 00H, 00H				; `string'
CONST	ENDS
;	COMDAT ??_C@_1LK@CNNNCGDG@?$AA?$CI?$AAB?$AAa?$AAs?$AAe?$AA?$CI?$AA?$CJ?$AA?5?$AA?$DN?$AA?$DN?$AA?5?$AAN?$AAU?$AAL?$AAL?$AA?$CJ?$AA?5?$AA?$HM?$AA?$HM?$AA?5?$AA?$CB?$AAp?$AAT?$AAo?$AAC?$AAo?$AAp?$AAy?$AA?5?$AA?$HM?$AA?$HM?$AA?5@
CONST	SEGMENT
??_C@_1LK@CNNNCGDG@?$AA?$CI?$AAB?$AAa?$AAs?$AAe?$AA?$CI?$AA?$CJ?$AA?5?$AA?$DN?$AA?$DN?$AA?5?$AAN?$AAU?$AAL?$AAL?$AA?$CJ?$AA?5?$AA?$HM?$AA?$HM?$AA?5?$AA?$CB?$AAp?$AAT?$AAo?$AAC?$AAo?$AAp?$AAy?$AA?5?$AA?$HM?$AA?$HM?$AA?5@ DB '('
	DB	00H, 'B', 00H, 'a', 00H, 's', 00H, 'e', 00H, '(', 00H, ')', 00H
	DB	' ', 00H, '=', 00H, '=', 00H, ' ', 00H, 'N', 00H, 'U', 00H, 'L'
	DB	00H, 'L', 00H, ')', 00H, ' ', 00H, '|', 00H, '|', 00H, ' ', 00H
	DB	'!', 00H, 'p', 00H, 'T', 00H, 'o', 00H, 'C', 00H, 'o', 00H, 'p'
	DB	00H, 'y', 00H, ' ', 00H, '|', 00H, '|', 00H, ' ', 00H, '(', 00H
	DB	'p', 00H, 'T', 00H, 'o', 00H, 'C', 00H, 'o', 00H, 'p', 00H, 'y'
	DB	00H, ' ', 00H, '+', 00H, ' ', 00H, 'n', 00H, 'u', 00H, 'm', 00H
	DB	' ', 00H, '<', 00H, ' ', 00H, 'B', 00H, 'a', 00H, 's', 00H, 'e'
	DB	00H, '(', 00H, ')', 00H, ')', 00H, ' ', 00H, '|', 00H, '|', 00H
	DB	' ', 00H, '(', 00H, 'p', 00H, 'T', 00H, 'o', 00H, 'C', 00H, 'o'
	DB	00H, 'p', 00H, 'y', 00H, ' ', 00H, '>', 00H, '=', 00H, ' ', 00H
	DB	'(', 00H, 'B', 00H, 'a', 00H, 's', 00H, 'e', 00H, '(', 00H, ')'
	DB	00H, ' ', 00H, '+', 00H, ' ', 00H, 'C', 00H, 'o', 00H, 'u', 00H
	DB	'n', 00H, 't', 00H, '(', 00H, ')', 00H, ')', 00H, ' ', 00H, ')'
	DB	00H, 00H, 00H				; `string'
CONST	ENDS
;	COMDAT ??_C@_1IK@DGJDJNN@?$AA?$CI?$AAB?$AAa?$AAs?$AAe?$AA?$CI?$AA?$CJ?$AA?5?$AA?$DN?$AA?$DN?$AA?5?$AAN?$AAU?$AAL?$AAL?$AA?$CJ?$AA?5?$AA?$HM?$AA?$HM?$AA?5?$AA?$CI?$AA?$CG?$AAs?$AAr?$AAc?$AA?5?$AA?$DM?$AA?5?$AAB?$AAa?$AAs?$AAe@
CONST	SEGMENT
??_C@_1IK@DGJDJNN@?$AA?$CI?$AAB?$AAa?$AAs?$AAe?$AA?$CI?$AA?$CJ?$AA?5?$AA?$DN?$AA?$DN?$AA?5?$AAN?$AAU?$AAL?$AAL?$AA?$CJ?$AA?5?$AA?$HM?$AA?$HM?$AA?5?$AA?$CI?$AA?$CG?$AAs?$AAr?$AAc?$AA?5?$AA?$DM?$AA?5?$AAB?$AAa?$AAs?$AAe@ DB '('
	DB	00H, 'B', 00H, 'a', 00H, 's', 00H, 'e', 00H, '(', 00H, ')', 00H
	DB	' ', 00H, '=', 00H, '=', 00H, ' ', 00H, 'N', 00H, 'U', 00H, 'L'
	DB	00H, 'L', 00H, ')', 00H, ' ', 00H, '|', 00H, '|', 00H, ' ', 00H
	DB	'(', 00H, '&', 00H, 's', 00H, 'r', 00H, 'c', 00H, ' ', 00H, '<'
	DB	00H, ' ', 00H, 'B', 00H, 'a', 00H, 's', 00H, 'e', 00H, '(', 00H
	DB	')', 00H, ')', 00H, ' ', 00H, '|', 00H, '|', 00H, ' ', 00H, '('
	DB	00H, '&', 00H, 's', 00H, 'r', 00H, 'c', 00H, ' ', 00H, '>', 00H
	DB	'=', 00H, ' ', 00H, '(', 00H, 'B', 00H, 'a', 00H, 's', 00H, 'e'
	DB	00H, '(', 00H, ')', 00H, ' ', 00H, '+', 00H, ' ', 00H, 'C', 00H
	DB	'o', 00H, 'u', 00H, 'n', 00H, 't', 00H, '(', 00H, ')', 00H, ')'
	DB	00H, ' ', 00H, ')', 00H, 00H, 00H		; `string'
CONST	ENDS
;	COMDAT ??_C@_1JC@EMNIBBBG@?$AAd?$AA?3?$AA?2?$AA?$CB?$AAd?$AAi?$AAf?$AAf?$AAu?$AAs?$AAi?$AAo?$AAn?$AA?5?$AA2?$AA0?$AA2?$AA0?$AA?2?$AAs?$AAo?$AAu?$AAr?$AAc?$AAe?$AA?5?$AAc?$AAo?$AAd?$AAe?$AA?5?$AA2@
CONST	SEGMENT
??_C@_1JC@EMNIBBBG@?$AAd?$AA?3?$AA?2?$AA?$CB?$AAd?$AAi?$AAf?$AAf?$AAu?$AAs?$AAi?$AAo?$AAn?$AA?5?$AA2?$AA0?$AA2?$AA0?$AA?2?$AAs?$AAo?$AAu?$AAr?$AAc?$AAe?$AA?5?$AAc?$AAo?$AAd?$AAe?$AA?5?$AA2@ DB 'd'
	DB	00H, ':', 00H, '\', 00H, '!', 00H, 'd', 00H, 'i', 00H, 'f', 00H
	DB	'f', 00H, 'u', 00H, 's', 00H, 'i', 00H, 'o', 00H, 'n', 00H, ' '
	DB	00H, '2', 00H, '0', 00H, '2', 00H, '0', 00H, '\', 00H, 's', 00H
	DB	'o', 00H, 'u', 00H, 'r', 00H, 'c', 00H, 'e', 00H, ' ', 00H, 'c'
	DB	00H, 'o', 00H, 'd', 00H, 'e', 00H, ' ', 00H, '2', 00H, '0', 00H
	DB	'2', 00H, '2', 00H, '\', 00H, 'c', 00H, 'l', 00H, 'i', 00H, 'e'
	DB	00H, 'n', 00H, 't', 00H, '-', 00H, 's', 00H, 'e', 00H, 'r', 00H
	DB	'v', 00H, 'e', 00H, 'r', 00H, '\', 00H, 'g', 00H, 'a', 00H, 'm'
	DB	00H, 'e', 00H, '_', 00H, 's', 00H, 'h', 00H, 'a', 00H, 'r', 00H
	DB	'e', 00H, 'd', 00H, '\', 00H, 'u', 00H, 't', 00H, 'l', 00H, 'a'
	DB	00H, 'r', 00H, 'r', 00H, 'a', 00H, 'y', 00H, '.', 00H, 'h', 00H
	DB	00H, 00H					; `string'
CONST	ENDS
;	COMDAT ?__LINE__Var@?0??DrawStudioMeshesShadow@CStudioModelRenderer@@EAEXXZ@4JA
_DATA	SEGMENT
?__LINE__Var@?0??DrawStudioMeshesShadow@CStudioModelRenderer@@EAEXXZ@4JA DD 014abH ; `CStudioModelRenderer::DrawStudioMeshesShadow'::`1'::__LINE__Var
_DATA	ENDS
;	COMDAT ?__LINE__Var@?0??DrawStudioMeshes@CStudioModelRenderer@@EAEXXZ@4JA
_DATA	SEGMENT
?__LINE__Var@?0??DrawStudioMeshes@CStudioModelRenderer@@EAEXXZ@4JA DD 01392H ; `CStudioModelRenderer::DrawStudioMeshes'::`1'::__LINE__Var
_DATA	ENDS
;	COMDAT ?__LINE__Var@?0??DrawLightForMeshList@CStudioModelRenderer@@EAEXPAUplight_s@@@Z@4JA
_DATA	SEGMENT
?__LINE__Var@?0??DrawLightForMeshList@CStudioModelRenderer@@EAEXPAUplight_s@@@Z@4JA DD 012bdH ; `CStudioModelRenderer::DrawLightForMeshList'::`1'::__LINE__Var
_DATA	ENDS
;	COMDAT ?__LINE__Var@?0??AddStudioToLightList@CStudioModelRenderer@@EAEXPAUplight_s@@@Z@4JA
_DATA	SEGMENT
?__LINE__Var@?0??AddStudioToLightList@CStudioModelRenderer@@EAEXPAUplight_s@@@Z@4JA DD 0127dH ; `CStudioModelRenderer::AddStudioToLightList'::`1'::__LINE__Var
_DATA	ENDS
;	COMDAT ??_C@_0BB@DGBBGFAO@?$CFs?5missed?5cache?6?$AA@
CONST	SEGMENT
??_C@_0BB@DGBBGFAO@?$CFs?5missed?5cache?6?$AA@ DB '%s missed cache', 0aH, 00H ; `string'
CONST	ENDS
;	COMDAT ??_C@_0CN@CADECPCM@R_AddMeshToDrawList?3?5mesh?5draw?5l@
CONST	SEGMENT
??_C@_0CN@CADECPCM@R_AddMeshToDrawList?3?5mesh?5draw?5l@ DB 'R_AddMeshToD'
	DB	'rawList: mesh draw list is full', 0aH, 00H	; `string'
CONST	ENDS
;	COMDAT ??_C@_0CK@OHDPOLPJ@R_AddMeshToLightList?3?5light?5list@
CONST	SEGMENT
??_C@_0CK@OHDPOLPJ@R_AddMeshToLightList?3?5light?5list@ DB 'R_AddMeshToLi'
	DB	'ghtList: light list is full', 0aH, 00H	; `string'
CONST	ENDS
;	COMDAT ??_C@_0DD@LDELGCPH@FollowEntity?3?5?$CFi?5with?5model?5?$CFs?5h@
CONST	SEGMENT
??_C@_0DD@LDELGCPH@FollowEntity?3?5?$CFi?5with?5model?5?$CFs?5h@ DB 'Foll'
	DB	'owEntity: %i with model %s has missed parent!', 0aH, 00H ; `string'
CONST	ENDS
;	COMDAT ?__LINE__Var@?0??StudioDrawPoints@CStudioModelRenderer@@EAEXXZ@4JA
_DATA	SEGMENT
?__LINE__Var@?0??StudioDrawPoints@CStudioModelRenderer@@EAEXXZ@4JA DD 0f45H ; `CStudioModelRenderer::StudioDrawPoints'::`1'::__LINE__Var
_DATA	ENDS
;	COMDAT ??_C@_0BM@JLFDLDEI@Too?5many?5attachments?5on?5?$CFs?6?$AA@
CONST	SEGMENT
??_C@_0BM@JLFDLDEI@Too?5many?5attachments?5on?5?$CFs?6?$AA@ DB 'Too many '
	DB	'attachments on %s', 0aH, 00H		; `string'
CONST	ENDS
;	COMDAT ?__LINE__Var@?0??StudioGenerateNormals@CStudioModelRenderer@@EAEXXZ@4JA
_DATA	SEGMENT
?__LINE__Var@?0??StudioGenerateNormals@CStudioModelRenderer@@EAEXXZ@4JA DD 0d2eH ; `CStudioModelRenderer::StudioGenerateNormals'::`1'::__LINE__Var
_DATA	ENDS
;	COMDAT ?__LINE__Var@?0??StudioBuildNormalTable@CStudioModelRenderer@@EAEXXZ@4JA
_DATA	SEGMENT
?__LINE__Var@?0??StudioBuildNormalTable@CStudioModelRenderer@@EAEXXZ@4JA DD 0cfbH ; `CStudioModelRenderer::StudioBuildNormalTable'::`1'::__LINE__Var
_DATA	ENDS
;	COMDAT ?__LINE__Var@?0??StudioMergeBones@CStudioModelRenderer@@EAEXQAVmatrix3x4@@0PAUmodel_s@@1@Z@4JA
_DATA	SEGMENT
?__LINE__Var@?0??StudioMergeBones@CStudioModelRenderer@@EAEXQAVmatrix3x4@@0PAUmodel_s@@1@Z@4JA DD 0cb4H ; `CStudioModelRenderer::StudioMergeBones'::`1'::__LINE__Var
_DATA	ENDS
;	COMDAT ??_C@_0DM@IKBOKABE@StudioSetupBones?3?5sequence?5?$CFi?1?$CFi@
CONST	SEGMENT
??_C@_0DM@IKBOKABE@StudioSetupBones?3?5sequence?5?$CFi?1?$CFi@ DB 'Studio'
	DB	'SetupBones: sequence %i/%i out of range for model %s', 0aH, 00H ; `string'
CONST	ENDS
;	COMDAT ?__LINE__Var@?0??CalculateIKLocks@CStudioModelRenderer@@EAEXPAVCIKContext@@@Z@4JA
_DATA	SEGMENT
?__LINE__Var@?0??CalculateIKLocks@CStudioModelRenderer@@EAEXPAVCIKContext@@@Z@4JA DD 0ae9H ; `CStudioModelRenderer::CalculateIKLocks'::`1'::__LINE__Var
_DATA	ENDS
;	COMDAT ??_C@_0N@OECCGFMA@Bip01?5Pelvis?$AA@
CONST	SEGMENT
??_C@_0N@OECCGFMA@Bip01?5Pelvis?$AA@ DB 'Bip01 Pelvis', 00H ; `string'
CONST	ENDS
;	COMDAT ??_C@_0M@ECGMMMKA@Bip01?5Spine?$AA@
CONST	SEGMENT
??_C@_0M@ECGMMMKA@Bip01?5Spine?$AA@ DB 'Bip01 Spine', 00H ; `string'
CONST	ENDS
;	COMDAT ??_C@_0N@FDHGFJAO@loading?3?5?$CFs?6?$AA@
CONST	SEGMENT
??_C@_0N@FDHGFJAO@loading?3?5?$CFs?6?$AA@ DB 'loading: %s', 0aH, 00H ; `string'
CONST	ENDS
;	COMDAT ??_C@_0O@GEDKBEHJ@?$CFs?1?$CFs?$CFi?$CFi?4mdl?$AA@
CONST	SEGMENT
??_C@_0O@GEDKBEHJ@?$CFs?1?$CFs?$CFi?$CFi?4mdl?$AA@ DB '%s/%s%i%i.mdl', 00H ; `string'
CONST	ENDS
;	COMDAT ??_C@_0O@GLEIJHMA@cl_updaterate?$AA@
CONST	SEGMENT
??_C@_0O@GLEIJHMA@cl_updaterate?$AA@ DB 'cl_updaterate', 00H ; `string'
CONST	ENDS
;	COMDAT ??_C@_09DNIFNFLO@studioLOD?$AA@
CONST	SEGMENT
??_C@_09DNIFNFLO@studioLOD?$AA@ DB 'studioLOD', 00H	; `string'
CONST	ENDS
;	COMDAT ??_C@_0CD@MFKNBDIC@?$CFs?3?5sequence?3?5?$CFs?5has?5invalid?5bbo@
CONST	SEGMENT
??_C@_0CD@MFKNBDIC@?$CFs?3?5sequence?3?5?$CFs?5has?5invalid?5bbo@ DB '%s:'
	DB	' sequence: %s has invalid bbox', 0aH, 00H	; `string'
CONST	ENDS
;	COMDAT ?__LINE__Var@?0??FreeStudioMaterials@CStudioModelRenderer@@EAEXXZ@4JA
_DATA	SEGMENT
?__LINE__Var@?0??FreeStudioMaterials@CStudioModelRenderer@@EAEXXZ@4JA DD 073bH ; `CStudioModelRenderer::FreeStudioMaterials'::`1'::__LINE__Var
_DATA	ENDS
;	COMDAT ??_C@_05GFOLEBJA@?$CFs?1?$CFs?$AA@
CONST	SEGMENT
??_C@_05GFOLEBJA@?$CFs?1?$CFs?$AA@ DB '%s/%s', 00H	; `string'
CONST	ENDS
;	COMDAT ??_C@_06PDNJPBCN@?$CFs?4dds?$AA@
CONST	SEGMENT
??_C@_06PDNJPBCN@?$CFs?4dds?$AA@ DB '%s.dds', 00H	; `string'
CONST	ENDS
;	COMDAT ??_C@_06NJHCGIDI@?$CFs?4tga?$AA@
CONST	SEGMENT
??_C@_06NJHCGIDI@?$CFs?4tga?$AA@ DB '%s.tga', 00H	; `string'
CONST	ENDS
;	COMDAT ??_C@_0P@DAAIBIME@textures?1?$CFs?1?$CFs?$AA@
CONST	SEGMENT
??_C@_0P@DAAIBIME@textures?1?$CFs?1?$CFs?$AA@ DB 'textures/%s/%s', 00H ; `string'
CONST	ENDS
;	COMDAT ?__LINE__Var@?0??LoadStudioMaterials@CStudioModelRenderer@@EAEXXZ@4JA
_DATA	SEGMENT
?__LINE__Var@?0??LoadStudioMaterials@CStudioModelRenderer@@EAEXXZ@4JA DD 06ecH ; `CStudioModelRenderer::LoadStudioMaterials'::`1'::__LINE__Var
_DATA	ENDS
;	COMDAT ?__LINE__Var@?0??DestroyMeshCache@CStudioModelRenderer@@EAEXXZ@4JA
_DATA	SEGMENT
?__LINE__Var@?0??DestroyMeshCache@CStudioModelRenderer@@EAEXXZ@4JA DD 06e1H ; `CStudioModelRenderer::DestroyMeshCache'::`1'::__LINE__Var
_DATA	ENDS
;	COMDAT ?__LINE__Var@?0??ReleaseVBOCache@CStudioModelRenderer@@EAEXPAPAUmvbocache_s@@@Z@4JA
_DATA	SEGMENT
?__LINE__Var@?0??ReleaseVBOCache@CStudioModelRenderer@@EAEXPAPAUmvbocache_s@@@Z@4JA DD 06beH ; `CStudioModelRenderer::ReleaseVBOCache'::`1'::__LINE__Var
_DATA	ENDS
;	COMDAT ??_C@_0CJ@DJJFCCIF@failed?5to?5create?5vertex?5lighting@
CONST	SEGMENT
??_C@_0CJ@DJJFCCIF@failed?5to?5create?5vertex?5lighting@ DB 'failed to cr'
	DB	'eate vertex lighting for %s', 0aH, 00H	; `string'
CONST	ENDS
;	COMDAT ??_C@_0EE@CCEKNHDI@failed?5to?5create?5vertex?5lighting@
CONST	SEGMENT
??_C@_0EE@CCEKNHDI@failed?5to?5create?5vertex?5lighting@ DB 'failed to cr'
	DB	'eate vertex lighting: model verts %i != total verts %i', 0aH, 00H ; `string'
CONST	ENDS
;	COMDAT ??_C@_0DG@NAMBMKCP@failed?5to?5create?5vertex?5lighting@
CONST	SEGMENT
??_C@_0DG@NAMBMKCP@failed?5to?5create?5vertex?5lighting@ DB 'failed to cr'
	DB	'eate vertex lighting: model CRC %p != %p', 0aH, 00H ; `string'
CONST	ENDS
;	COMDAT ??_C@_0DM@GLENFNKP@vertexlit?5instance?5created?0?5mode@
CONST	SEGMENT
??_C@_0DM@GLENFNKP@vertexlit?5instance?5created?0?5mode@ DB 'vertexlit in'
	DB	'stance created, model verts %i, total verts %i', 0aH, 00H ; `string'
CONST	ENDS
;	COMDAT ??_C@_0CJ@NPCHACBO@CreateMeshCache?3?5memory?5buffer?5u@
CONST	SEGMENT
??_C@_0CJ@NPCHACBO@CreateMeshCache?3?5memory?5buffer?5u@ DB 'CreateMeshCa'
	DB	'che: memory buffer underrun', 0aH, 00H	; `string'
CONST	ENDS
;	COMDAT ??_C@_0CI@FBJDFNP@CreateMeshCache?3?5memory?5buffer?5o@
CONST	SEGMENT
??_C@_0CI@FBJDFNP@CreateMeshCache?3?5memory?5buffer?5o@ DB 'CreateMeshCac'
	DB	'he: memory buffer overrun', 0aH, 00H	; `string'
CONST	ENDS
;	COMDAT ??_C@_0BM@DPDJIFIK@?$CFs?3?5TBN?5build?5time?5?$CFg?5secs?6?$AA@
CONST	SEGMENT
??_C@_0BM@DPDJIFIK@?$CFs?3?5TBN?5build?5time?5?$CFg?5secs?6?$AA@ DB '%s: '
	DB	'TBN build time %g secs', 0aH, 00H		; `string'
CONST	ENDS
;	COMDAT ??_C@_0CL@GBJOBHFP@Couldn?8t?5find?5submodel?5?$CFs?5for?5bo@
CONST	SEGMENT
??_C@_0CL@GBJOBHFP@Couldn?8t?5find?5submodel?5?$CFs?5for?5bo@ DB 'Couldn'''
	DB	't find submodel %s for bodypart %i', 0aH, 00H ; `string'
CONST	ENDS
;	COMDAT ??_C@_0CK@MHLMGEKH@?$CFs?3?5generate?5TBN?5due?5loading?5lig@
CONST	SEGMENT
??_C@_0CK@MHLMGEKH@?$CFs?3?5generate?5TBN?5due?5loading?5lig@ DB '%s: gen'
	DB	'erate TBN due loading light cache', 0aH, 00H ; `string'
CONST	ENDS
;	COMDAT ?__LINE__Var@?0??CreateMeshCache@CStudioModelRenderer@@EAEPAUmvbocache_s@@PAUdmodellight_t@@@Z@4JA
_DATA	SEGMENT
?__LINE__Var@?0??CreateMeshCache@CStudioModelRenderer@@EAEPAUmvbocache_s@@PAUdmodellight_t@@@Z@4JA DD 0574H ; `CStudioModelRenderer::CreateMeshCache'::`1'::__LINE__Var
_DATA	ENDS
;	COMDAT ??_C@_0BI@FECCGOFJ@assert?5failed?5at?5?$CFs?3?$CFi?6?$AA@
CONST	SEGMENT
??_C@_0BI@FECCGOFJ@assert?5failed?5at?5?$CFs?3?$CFi?6?$AA@ DB 'assert fai'
	DB	'led at %s:%i', 0aH, 00H			; `string'
CONST	ENDS
;	COMDAT ?__LINE__Var@?0??UpdateInstanceMaterials@CStudioModelRenderer@@EAEXXZ@4JA
_DATA	SEGMENT
?__LINE__Var@?0??UpdateInstanceMaterials@CStudioModelRenderer@@EAEXXZ@4JA DD 019dH ; `CStudioModelRenderer::UpdateInstanceMaterials'::`1'::__LINE__Var
_DATA	ENDS
;	COMDAT ??_C@_0EN@ILAHEMDB@d?3?2?$CBdiffusion?52020?2source?5code?52@
CONST	SEGMENT
??_C@_0EN@ILAHEMDB@d?3?2?$CBdiffusion?52020?2source?5code?52@ DB 'd:\!dif'
	DB	'fusion 2020\source code 2022\client-server\client\render\r_st'
	DB	'udio.cpp', 00H				; `string'
CONST	ENDS
;	COMDAT ?__LINE__Var@?0??DestroyInstance@CStudioModelRenderer@@EAEXG@Z@4JA
_DATA	SEGMENT
?__LINE__Var@?0??DestroyInstance@CStudioModelRenderer@@EAEXG@Z@4JA DD 0188H ; `CStudioModelRenderer::DestroyInstance'::`1'::__LINE__Var
_DATA	ENDS
;	COMDAT ??_C@_0CL@EPGJECA@?$CFs?5was?5changed?0?5TBN?5cache?5will?5b@
CONST	SEGMENT
??_C@_0CL@EPGJECA@?$CFs?5was?5changed?0?5TBN?5cache?5will?5b@ DB '%s was '
	DB	'changed, TBN cache will be updated', 0aH, 00H ; `string'
CONST	ENDS
;	COMDAT ??_C@_0CI@NNPILMCB@?$CFs?5has?5wrong?5version?5?$CI?$CFi?5should?5@
CONST	SEGMENT
??_C@_0CI@NNPILMCB@?$CFs?5has?5wrong?5version?5?$CI?$CFi?5should?5@ DB '%'
	DB	's has wrong version (%i should be %i)', 0aH, 00H ; `string'
CONST	ENDS
;	COMDAT ??_C@_0CD@EFLMPMLB@?$CFs?5has?5wrong?5id?5?$CI?$CFx?5should?5be?5?$CFx@
CONST	SEGMENT
??_C@_0CD@EFLMPMLB@?$CFs?5has?5wrong?5id?5?$CI?$CFx?5should?5be?5?$CFx@ DB '%'
	DB	's has wrong id (%x should be %x)', 0aH, 00H	; `string'
CONST	ENDS
;	COMDAT ??_C@_0CE@EEKENBGP@StudioSaveCache?3?5couldn?8t?5store?5@
CONST	SEGMENT
??_C@_0CE@EEKENBGP@StudioSaveCache?3?5couldn?8t?5store?5@ DB 'StudioSaveC'
	DB	'ache: couldn''t store %s', 0aH, 00H		; `string'
CONST	ENDS
;	COMDAT ??_C@_0N@PHFDLJLL@cache?1?$CFs?4tbn?$AA@
CONST	SEGMENT
??_C@_0N@PHFDLJLL@cache?1?$CFs?4tbn?$AA@ DB 'cache/%s.tbn', 00H ; `string'
CONST	ENDS
;	COMDAT ??_C@_07FLCBLKFO@models?1?$AA@
CONST	SEGMENT
??_C@_07FLCBLKFO@models?1?$AA@ DB 'models/', 00H	; `string'
CONST	ENDS
;	COMDAT ??_C@_0CI@HNJCCBHN@Couldn?8t?5create?5instance?5for?5ent@
CONST	SEGMENT
??_C@_0CI@HNJCCBHN@Couldn?8t?5create?5instance?5for?5ent@ DB 'Couldn''t c'
	DB	'reate instance for entity %d', 0aH, 00H	; `string'
CONST	ENDS
;	COMDAT ??_C@_0M@BAFBFLKH@cl_lod_bias?$AA@
CONST	SEGMENT
??_C@_0M@BAFBFLKH@cl_lod_bias?$AA@ DB 'cl_lod_bias', 00H ; `string'
CONST	ENDS
;	COMDAT ??_C@_0N@MFGINFCA@cl_lod_scale?$AA@
CONST	SEGMENT
??_C@_0N@MFGINFCA@cl_lod_scale?$AA@ DB 'cl_lod_scale', 00H ; `string'
CONST	ENDS
;	COMDAT ??_C@_03PENLHFGJ@5?40?$AA@
CONST	SEGMENT
??_C@_03PENLHFGJ@5?40?$AA@ DB '5.0', 00H		; `string'
CONST	ENDS
;	COMDAT ??_C@_0BE@PNKFILHP@r_studio_compatible?$AA@
CONST	SEGMENT
??_C@_0BE@PNKFILHP@r_studio_compatible?$AA@ DB 'r_studio_compatible', 00H ; `string'
CONST	ENDS
;	COMDAT ??_C@_01HIHLOKLC@1?$AA@
CONST	SEGMENT
??_C@_01HIHLOKLC@1?$AA@ DB '1', 00H			; `string'
CONST	ENDS
;	COMDAT ??_C@_0BB@GFAEGODK@cl_viewmodel_fov?$AA@
CONST	SEGMENT
??_C@_0BB@GFAEGODK@cl_viewmodel_fov?$AA@ DB 'cl_viewmodel_fov', 00H ; `string'
CONST	ENDS
;	COMDAT ??_C@_02PEECMOAB@90?$AA@
CONST	SEGMENT
??_C@_02PEECMOAB@90?$AA@ DB '90', 00H			; `string'
CONST	ENDS
;	COMDAT ??_C@_0N@BMBEGFEI@cl_righthand?$AA@
CONST	SEGMENT
??_C@_0N@BMBEGFEI@cl_righthand?$AA@ DB 'cl_righthand', 00H ; `string'
CONST	ENDS
;	COMDAT ??_C@_01GBGANLPD@0?$AA@
CONST	SEGMENT
??_C@_01GBGANLPD@0?$AA@ DB '0', 00H			; `string'
CONST	ENDS
;	COMDAT ??_C@_0BA@JPIHAGPE@r_glowshellfreq?$AA@
CONST	SEGMENT
??_C@_0BA@JPIHAGPE@r_glowshellfreq?$AA@ DB 'r_glowshellfreq', 00H ; `string'
CONST	ENDS
;	COMDAT ??_C@_0BA@JMOPJIOD@r_drawviewmodel?$AA@
CONST	SEGMENT
??_C@_0BA@JMOPJIOD@r_drawviewmodel?$AA@ DB 'r_drawviewmodel', 00H ; `string'
CONST	ENDS
;	COMDAT ??_7CStudioModelRenderer@@6B@
CONST	SEGMENT
??_7CStudioModelRenderer@@6B@ DD FLAT:??_R4CStudioModelRenderer@@6B@ ; CStudioModelRenderer::`vftable'
	DD	FLAT:??_ECStudioModelRenderer@@UAEPAXI@Z
	DD	FLAT:?StudioDrawModel@CStudioModelRenderer@@UAEHH@Z
	DD	FLAT:?CreateMeshCacheVL@CStudioModelRenderer@@EAEXPAUdmodellight_t@@H@Z
	DD	FLAT:?StudioExtractBbox@CStudioModelRenderer@@EAEHPAUcl_entity_s@@PAUstudiohdr_t@@HAAVVector@@2@Z
	DD	FLAT:?StudioComputeBBox@CStudioModelRenderer@@EAEHPAUcl_entity_s@@@Z
	DD	FLAT:?StudioSetUpTransform@CStudioModelRenderer@@EAEXXZ
	DD	FLAT:?StudioSetupBones@CStudioModelRenderer@@EAEXXZ
	DD	FLAT:?StudioCalcBonesProcedural@CStudioModelRenderer@@EAEXQAVVector@@QAVVector4D@@@Z
	DD	FLAT:?StudioCalcAttachments@CStudioModelRenderer@@EAEXQAVmatrix3x4@@H@Z
	DD	FLAT:?AddBlendSequence@CStudioModelRenderer@@EAEXHHM_N@Z
	DD	FLAT:?BlendSequence@CStudioModelRenderer@@EAEXQAVVector@@QAVVector4D@@PAUmstudioblendseq_t@@@Z
	DD	FLAT:?UpdateIKLocks@CStudioModelRenderer@@EAEXPAVCIKContext@@@Z
	DD	FLAT:?CalculateIKLocks@CStudioModelRenderer@@EAEXPAVCIKContext@@@Z
	DD	FLAT:?StudioMergeBones@CStudioModelRenderer@@EAEXQAVmatrix3x4@@0PAUmodel_s@@1@Z
	DD	FLAT:?StudioEstimateInterpolant@CStudioModelRenderer@@EAEMXZ
	DD	FLAT:?StudioEstimateGaitFrame@CStudioModelRenderer@@EAEMPAUmstudioseqdesc_t@@@Z
	DD	FLAT:?StudioEstimateFrame@CStudioModelRenderer@@EAEMPAUmstudioseqdesc_t@@@Z
	DD	FLAT:?StudioInterpolateBlends@CStudioModelRenderer@@EAEXPAUcl_entity_s@@M@Z
	DD	FLAT:?StudioInterpolatePoseParams@CStudioModelRenderer@@EAEXPAUcl_entity_s@@M@Z
	DD	FLAT:?StudioFxTransform@CStudioModelRenderer@@EAEXPAUcl_entity_s@@AAVmatrix3x4@@@Z
	DD	FLAT:?ComputeSkinMatrix@CStudioModelRenderer@@EAEXPAUmstudioboneweight_t@@QBVmatrix3x4@@AAV3@@Z
	DD	FLAT:?ComputeSkinMatrix@CStudioModelRenderer@@EAEXPAUxvert_s@@QBVmatrix3x4@@AAV3@@Z
	DD	FLAT:?StudioSetupChrome@CStudioModelRenderer@@EAEXPAMHABVVector@@@Z
	DD	FLAT:?StudioRenderModel@CStudioModelRenderer@@EAEXXZ
	DD	FLAT:?StudioSetupModel@CStudioModelRenderer@@EAEHHPAPAX0@Z
	DD	FLAT:?StudioSetRenderMode@CStudioModelRenderer@@EAEXH@Z
	DD	FLAT:?StudioPlayerBlend@CStudioModelRenderer@@EAEXPAUmstudioseqdesc_t@@AAHAAM@Z
	DD	FLAT:?StudioClientEvents@CStudioModelRenderer@@EAEXXZ
	DD	FLAT:?StudioLighting@CStudioModelRenderer@@EAEXPAMHHABVVector@@@Z
	DD	FLAT:?StudioDrawPoints@CStudioModelRenderer@@EAEXXZ
	DD	FLAT:?StudioStaticLight@CStudioModelRenderer@@EAEXPAUcl_entity_s@@@Z
	DD	FLAT:?StudioFormatAttachment@CStudioModelRenderer@@EAEXAAVVector@@@Z
	DD	FLAT:?ChooseStudioProgram@CStudioModelRenderer@@EAEGPAUstudiohdr_t@@PAUmstudiomat_s@@_N@Z
	DD	FLAT:?AddMeshToDrawList@CStudioModelRenderer@@EAEXPAUstudiohdr_t@@PBUvbomesh_s@@_N2@Z
	DD	FLAT:?AddBodyPartToDrawList@CStudioModelRenderer@@EAEXPAUstudiohdr_t@@PAUmbodypart_s@@H_N2@Z
	DD	FLAT:?StudioSetupRenderer@CStudioModelRenderer@@EAEXH@Z
	DD	FLAT:?StudioRestoreRenderer@CStudioModelRenderer@@EAEXXZ
	DD	FLAT:?IsModelInstanceValid@CStudioModelRenderer@@EAE_NPAUModelInstance_t@1@@Z
	DD	FLAT:?DestroyInstance@CStudioModelRenderer@@EAEXG@Z
	DD	FLAT:?DrawStudioMeshes@CStudioModelRenderer@@EAEXXZ
	DD	FLAT:?DrawStudioMeshesShadow@CStudioModelRenderer@@EAEXXZ
	DD	FLAT:?StudioDrawShell@CStudioModelRenderer@@EAEXXZ
	DD	FLAT:?StudioCheckLOD@CStudioModelRenderer@@EAEHXZ
	DD	FLAT:?StudioBuildNormalTable@CStudioModelRenderer@@EAEXXZ
	DD	FLAT:?StudioGenerateNormals@CStudioModelRenderer@@EAEXXZ
	DD	FLAT:?CheckBoneCache@CStudioModelRenderer@@EAE_NM@Z
	DD	FLAT:?RenderDynLightList@CStudioModelRenderer@@EAEXXZ
	DD	FLAT:?AddStudioToLightList@CStudioModelRenderer@@EAEXPAUplight_s@@@Z
	DD	FLAT:?BuildMeshListForLight@CStudioModelRenderer@@EAEXPAUplight_s@@@Z
	DD	FLAT:?DrawLightForMeshList@CStudioModelRenderer@@EAEXPAUplight_s@@@Z
	DD	FLAT:?CreateMeshCache@CStudioModelRenderer@@EAEPAUmvbocache_s@@PAUdmodellight_t@@@Z
	DD	FLAT:?ReleaseVBOCache@CStudioModelRenderer@@EAEXPAPAUmvbocache_s@@@Z
	DD	FLAT:?DestroyMeshCache@CStudioModelRenderer@@EAEXXZ
	DD	FLAT:?LoadStudioMaterials@CStudioModelRenderer@@EAEXXZ
	DD	FLAT:?FreeStudioMaterials@CStudioModelRenderer@@EAEXXZ
	DD	FLAT:?UpdateInstanceMaterials@CStudioModelRenderer@@EAEXXZ
	DD	FLAT:?ClearInstanceData@CStudioModelRenderer@@EAEX_N@Z
CONST	ENDS
;	COMDAT ??_7CBaseBoneSetup@@6B@
CONST	SEGMENT
??_7CBaseBoneSetup@@6B@ DD FLAT:??_R4CBaseBoneSetup@@6B@ ; CBaseBoneSetup::`vftable'
	DD	FLAT:?debugMsg@CBaseBoneSetup@@UAAXPADZZ
	DD	FLAT:?GetAnimSourceData@CBaseBoneSetup@@UAEPAUmstudioanim_t@@PAUmstudioseqdesc_t@@@Z
	DD	FLAT:?debugLine@CBaseBoneSetup@@UAEXABVVector@@0HHH_NM@Z
CONST	ENDS
;	COMDAT ??_7CStudioBoneSetup@@6B@
CONST	SEGMENT
??_7CStudioBoneSetup@@6B@ DD FLAT:??_R4CStudioBoneSetup@@6B@ ; CStudioBoneSetup::`vftable'
	DD	FLAT:?debugMsg@CStudioBoneSetup@@UAAXPADZZ
	DD	FLAT:?GetAnimSourceData@CStudioBoneSetup@@UAEPAUmstudioanim_t@@PAUmstudioseqdesc_t@@@Z
	DD	FLAT:?debugLine@CStudioBoneSetup@@UAEXABVVector@@0HHH_NM@Z
CONST	ENDS
;	COMDAT xdata$x
xdata$x	SEGMENT
__unwindtable$??$Construct@VVector@@@@YAXPAVVector@@@Z DD 0ffffffffH
	DD	FLAT:__unwindfunclet$??$Construct@VVector@@@@YAXPAVVector@@@Z$0
__ehfuncinfo$??$Construct@VVector@@@@YAXPAVVector@@@Z DD 019930522H
	DD	01H
	DD	FLAT:__unwindtable$??$Construct@VVector@@@@YAXPAVVector@@@Z
	DD	2 DUP(00H)
	DD	2 DUP(00H)
	DD	00H
	DD	01H
xdata$x	ENDS
;	COMDAT xdata$x
xdata$x	SEGMENT
__unwindtable$??$Construct@V?$CUtlArray@HV?$CUtlMemory@HH@@@@@@YAXPAV?$CUtlArray@HV?$CUtlMemory@HH@@@@@Z DD 0ffffffffH
	DD	FLAT:__unwindfunclet$??$Construct@V?$CUtlArray@HV?$CUtlMemory@HH@@@@@@YAXPAV?$CUtlArray@HV?$CUtlMemory@HH@@@@@Z$0
__ehfuncinfo$??$Construct@V?$CUtlArray@HV?$CUtlMemory@HH@@@@@@YAXPAV?$CUtlArray@HV?$CUtlMemory@HH@@@@@Z DD 019930522H
	DD	01H
	DD	FLAT:__unwindtable$??$Construct@V?$CUtlArray@HV?$CUtlMemory@HH@@@@@@YAXPAV?$CUtlArray@HV?$CUtlMemory@HH@@@@@Z
	DD	2 DUP(00H)
	DD	2 DUP(00H)
	DD	00H
	DD	01H
xdata$x	ENDS
;	COMDAT xdata$x
xdata$x	SEGMENT
__unwindtable$??$Construct@UModelInstance_t@CStudioModelRenderer@@@@YAXPAUModelInstance_t@CStudioModelRenderer@@@Z DD 0ffffffffH
	DD	FLAT:__unwindfunclet$??$Construct@UModelInstance_t@CStudioModelRenderer@@@@YAXPAUModelInstance_t@CStudioModelRenderer@@@Z$0
__ehfuncinfo$??$Construct@UModelInstance_t@CStudioModelRenderer@@@@YAXPAUModelInstance_t@CStudioModelRenderer@@@Z DD 019930522H
	DD	01H
	DD	FLAT:__unwindtable$??$Construct@UModelInstance_t@CStudioModelRenderer@@@@YAXPAUModelInstance_t@CStudioModelRenderer@@@Z
	DD	2 DUP(00H)
	DD	2 DUP(00H)
	DD	00H
	DD	01H
xdata$x	ENDS
;	COMDAT xdata$x
xdata$x	SEGMENT
__ehfuncinfo$??1?$CUtlMemory@VVector@@H@@QAE@XZ DD 019930522H
	DD	00H
	DD	00H
	DD	2 DUP(00H)
	DD	2 DUP(00H)
	DD	00H
	DD	05H
xdata$x	ENDS
;	COMDAT xdata$x
xdata$x	SEGMENT
__ehfuncinfo$??1?$CUtlArray@VVector@@V?$CUtlMemory@VVector@@H@@@@QAE@XZ DD 019930522H
	DD	00H
	DD	00H
	DD	2 DUP(00H)
	DD	2 DUP(00H)
	DD	00H
	DD	05H
xdata$x	ENDS
;	COMDAT xdata$x
xdata$x	SEGMENT
__unwindtable$??0?$CUtlArray@VVector@@V?$CUtlMemory@VVector@@H@@@@QAE@HH@Z DD 0ffffffffH
	DD	FLAT:__unwindfunclet$??0?$CUtlArray@VVector@@V?$CUtlMemory@VVector@@H@@@@QAE@HH@Z$0
__ehfuncinfo$??0?$CUtlArray@VVector@@V?$CUtlMemory@VVector@@H@@@@QAE@HH@Z DD 019930522H
	DD	01H
	DD	FLAT:__unwindtable$??0?$CUtlArray@VVector@@V?$CUtlMemory@VVector@@H@@@@QAE@HH@Z
	DD	2 DUP(00H)
	DD	2 DUP(00H)
	DD	00H
	DD	01H
xdata$x	ENDS
;	COMDAT xdata$x
xdata$x	SEGMENT
__ehfuncinfo$??1?$CUtlMemory@HH@@QAE@XZ DD 019930522H
	DD	00H
	DD	00H
	DD	2 DUP(00H)
	DD	2 DUP(00H)
	DD	00H
	DD	05H
xdata$x	ENDS
;	COMDAT xdata$x
xdata$x	SEGMENT
__ehfuncinfo$??1?$CUtlArray@HV?$CUtlMemory@HH@@@@QAE@XZ DD 019930522H
	DD	00H
	DD	00H
	DD	2 DUP(00H)
	DD	2 DUP(00H)
	DD	00H
	DD	05H
xdata$x	ENDS
;	COMDAT xdata$x
xdata$x	SEGMENT
__unwindtable$??0?$CUtlArray@HV?$CUtlMemory@HH@@@@QAE@HH@Z DD 0ffffffffH
	DD	FLAT:__unwindfunclet$??0?$CUtlArray@HV?$CUtlMemory@HH@@@@QAE@HH@Z$0
__ehfuncinfo$??0?$CUtlArray@HV?$CUtlMemory@HH@@@@QAE@HH@Z DD 019930522H
	DD	01H
	DD	FLAT:__unwindtable$??0?$CUtlArray@HV?$CUtlMemory@HH@@@@QAE@HH@Z
	DD	2 DUP(00H)
	DD	2 DUP(00H)
	DD	00H
	DD	01H
xdata$x	ENDS
;	COMDAT xdata$x
xdata$x	SEGMENT
__ehfuncinfo$??1?$CUtlMemory@V?$CUtlArray@HV?$CUtlMemory@HH@@@@H@@QAE@XZ DD 019930522H
	DD	00H
	DD	00H
	DD	2 DUP(00H)
	DD	2 DUP(00H)
	DD	00H
	DD	05H
xdata$x	ENDS
;	COMDAT xdata$x
xdata$x	SEGMENT
__ehfuncinfo$??1?$CUtlArray@V?$CUtlArray@HV?$CUtlMemory@HH@@@@V?$CUtlMemory@V?$CUtlArray@HV?$CUtlMemory@HH@@@@H@@@@QAE@XZ DD 019930522H
	DD	00H
	DD	00H
	DD	2 DUP(00H)
	DD	2 DUP(00H)
	DD	00H
	DD	05H
xdata$x	ENDS
;	COMDAT xdata$x
xdata$x	SEGMENT
__unwindtable$??0?$CUtlArray@V?$CUtlArray@HV?$CUtlMemory@HH@@@@V?$CUtlMemory@V?$CUtlArray@HV?$CUtlMemory@HH@@@@H@@@@QAE@HH@Z DD 0ffffffffH
	DD	FLAT:__unwindfunclet$??0?$CUtlArray@V?$CUtlArray@HV?$CUtlMemory@HH@@@@V?$CUtlMemory@V?$CUtlArray@HV?$CUtlMemory@HH@@@@H@@@@QAE@HH@Z$0
__ehfuncinfo$??0?$CUtlArray@V?$CUtlArray@HV?$CUtlMemory@HH@@@@V?$CUtlMemory@V?$CUtlArray@HV?$CUtlMemory@HH@@@@H@@@@QAE@HH@Z DD 019930522H
	DD	01H
	DD	FLAT:__unwindtable$??0?$CUtlArray@V?$CUtlArray@HV?$CUtlMemory@HH@@@@V?$CUtlMemory@V?$CUtlArray@HV?$CUtlMemory@HH@@@@H@@@@QAE@HH@Z
	DD	2 DUP(00H)
	DD	2 DUP(00H)
	DD	00H
	DD	01H
xdata$x	ENDS
;	COMDAT xdata$x
xdata$x	SEGMENT
__unwindtable$?UploadBufferGeneric@CStudioModelRenderer@@AAEXPAUvbomesh_s@@PAUxvert_s@@_N@Z DD 0ffffffffH
	DD	FLAT:__unwindfunclet$?UploadBufferGeneric@CStudioModelRenderer@@AAEXPAUvbomesh_s@@PAUxvert_s@@_N@Z$0
__ehfuncinfo$?UploadBufferGeneric@CStudioModelRenderer@@AAEXPAUvbomesh_s@@PAUxvert_s@@_N@Z DD 019930522H
	DD	01H
	DD	FLAT:__unwindtable$?UploadBufferGeneric@CStudioModelRenderer@@AAEXPAUvbomesh_s@@PAUxvert_s@@_N@Z
	DD	2 DUP(00H)
	DD	2 DUP(00H)
	DD	00H
	DD	01H
xdata$x	ENDS
;	COMDAT xdata$x
xdata$x	SEGMENT
__unwindtable$?UploadBufferWeight@CStudioModelRenderer@@AAEXPAUvbomesh_s@@PAUxvert_s@@@Z DD 0ffffffffH
	DD	FLAT:__unwindfunclet$?UploadBufferWeight@CStudioModelRenderer@@AAEXPAUvbomesh_s@@PAUxvert_s@@@Z$0
__ehfuncinfo$?UploadBufferWeight@CStudioModelRenderer@@AAEXPAUvbomesh_s@@PAUxvert_s@@@Z DD 019930522H
	DD	01H
	DD	FLAT:__unwindtable$?UploadBufferWeight@CStudioModelRenderer@@AAEXPAUvbomesh_s@@PAUxvert_s@@@Z
	DD	2 DUP(00H)
	DD	2 DUP(00H)
	DD	00H
	DD	01H
xdata$x	ENDS
;	COMDAT xdata$x
xdata$x	SEGMENT
__unwindtable$?UploadBufferVLight@CStudioModelRenderer@@AAEXPAUvbomesh_s@@PAUxvert_s@@@Z DD 0ffffffffH
	DD	FLAT:__unwindfunclet$?UploadBufferVLight@CStudioModelRenderer@@AAEXPAUvbomesh_s@@PAUxvert_s@@@Z$0
__ehfuncinfo$?UploadBufferVLight@CStudioModelRenderer@@AAEXPAUvbomesh_s@@PAUxvert_s@@@Z DD 019930522H
	DD	01H
	DD	FLAT:__unwindtable$?UploadBufferVLight@CStudioModelRenderer@@AAEXPAUvbomesh_s@@PAUxvert_s@@@Z
	DD	2 DUP(00H)
	DD	2 DUP(00H)
	DD	00H
	DD	01H
xdata$x	ENDS
;	COMDAT xdata$x
xdata$x	SEGMENT
__unwindtable$?UploadBufferBase@CStudioModelRenderer@@AAEXPAUvbomesh_s@@PAUxvert_s@@@Z DD 0ffffffffH
	DD	FLAT:__unwindfunclet$?UploadBufferBase@CStudioModelRenderer@@AAEXPAUvbomesh_s@@PAUxvert_s@@@Z$0
__ehfuncinfo$?UploadBufferBase@CStudioModelRenderer@@AAEXPAUvbomesh_s@@PAUxvert_s@@@Z DD 019930522H
	DD	01H
	DD	FLAT:__unwindtable$?UploadBufferBase@CStudioModelRenderer@@AAEXPAUvbomesh_s@@PAUxvert_s@@@Z
	DD	2 DUP(00H)
	DD	2 DUP(00H)
	DD	00H
	DD	01H
xdata$x	ENDS
;	COMDAT xdata$x
xdata$x	SEGMENT
__ehfuncinfo$?MeshCreateBuffer@CStudioModelRenderer@@AAEXPAUvbomesh_s@@PBUmstudiomesh_t@@PBUmstudiomodel_t@@QBVmatrix3x4@@PAUdmodellight_t@@@Z DD 019930522H
	DD	05H
	DD	FLAT:__unwindtable$?MeshCreateBuffer@CStudioModelRenderer@@AAEXPAUvbomesh_s@@PBUmstudiomesh_t@@PBUmstudiomodel_t@@QBVmatrix3x4@@PAUdmodellight_t@@@Z
	DD	2 DUP(00H)
	DD	2 DUP(00H)
	DD	00H
	DD	01H
__unwindtable$?MeshCreateBuffer@CStudioModelRenderer@@AAEXPAUvbomesh_s@@PBUmstudiomesh_t@@PBUmstudiomodel_t@@QBVmatrix3x4@@PAUdmodellight_t@@@Z DD 0ffffffffH
	DD	FLAT:__unwindfunclet$?MeshCreateBuffer@CStudioModelRenderer@@AAEXPAUvbomesh_s@@PBUmstudiomesh_t@@PBUmstudiomodel_t@@QBVmatrix3x4@@PAUdmodellight_t@@@Z$0
	DD	0ffffffffH
	DD	FLAT:__unwindfunclet$?MeshCreateBuffer@CStudioModelRenderer@@AAEXPAUvbomesh_s@@PBUmstudiomesh_t@@PBUmstudiomodel_t@@QBVmatrix3x4@@PAUdmodellight_t@@@Z$1
	DD	0ffffffffH
	DD	FLAT:__unwindfunclet$?MeshCreateBuffer@CStudioModelRenderer@@AAEXPAUvbomesh_s@@PBUmstudiomesh_t@@PBUmstudiomodel_t@@QBVmatrix3x4@@PAUdmodellight_t@@@Z$2
	DD	02H
	DD	FLAT:__unwindfunclet$?MeshCreateBuffer@CStudioModelRenderer@@AAEXPAUvbomesh_s@@PBUmstudiomesh_t@@PBUmstudiomodel_t@@QBVmatrix3x4@@PAUdmodellight_t@@@Z$3
	DD	03H
	DD	FLAT:__unwindfunclet$?MeshCreateBuffer@CStudioModelRenderer@@AAEXPAUvbomesh_s@@PBUmstudiomesh_t@@PBUmstudiomodel_t@@QBVmatrix3x4@@PAUdmodellight_t@@@Z$4
xdata$x	ENDS
;	COMDAT xdata$x
xdata$x	SEGMENT
__unwindtable$?CreateMeshCache@CStudioModelRenderer@@EAEPAUmvbocache_s@@PAUdmodellight_t@@@Z DD 0ffffffffH
	DD	FLAT:__unwindfunclet$?CreateMeshCache@CStudioModelRenderer@@EAEPAUmvbocache_s@@PAUdmodellight_t@@@Z$0
	DD	0ffffffffH
	DD	FLAT:__unwindfunclet$?CreateMeshCache@CStudioModelRenderer@@EAEPAUmvbocache_s@@PAUdmodellight_t@@@Z$1
	DD	0ffffffffH
	DD	FLAT:__unwindfunclet$?CreateMeshCache@CStudioModelRenderer@@EAEPAUmvbocache_s@@PAUdmodellight_t@@@Z$2
__ehfuncinfo$?CreateMeshCache@CStudioModelRenderer@@EAEPAUmvbocache_s@@PAUdmodellight_t@@@Z DD 019930522H
	DD	03H
	DD	FLAT:__unwindtable$?CreateMeshCache@CStudioModelRenderer@@EAEPAUmvbocache_s@@PAUdmodellight_t@@@Z
	DD	2 DUP(00H)
	DD	2 DUP(00H)
	DD	00H
	DD	01H
xdata$x	ENDS
;	COMDAT xdata$x
xdata$x	SEGMENT
__ehfuncinfo$??1?$CUtlMemory@UListElem_t@?$CUtlLinkedList@UModelInstance_t@CStudioModelRenderer@@G@@H@@QAE@XZ DD 019930522H
	DD	00H
	DD	00H
	DD	2 DUP(00H)
	DD	2 DUP(00H)
	DD	00H
	DD	05H
xdata$x	ENDS
;	COMDAT xdata$x
xdata$x	SEGMENT
__ehfuncinfo$??1?$CUtlLinkedList@UModelInstance_t@CStudioModelRenderer@@G@@QAE@XZ DD 019930522H
	DD	00H
	DD	00H
	DD	2 DUP(00H)
	DD	2 DUP(00H)
	DD	00H
	DD	05H
xdata$x	ENDS
;	COMDAT xdata$x
xdata$x	SEGMENT
__unwindtable$??0?$CUtlLinkedList@UModelInstance_t@CStudioModelRenderer@@G@@QAE@HH@Z DD 0ffffffffH
	DD	FLAT:__unwindfunclet$??0?$CUtlLinkedList@UModelInstance_t@CStudioModelRenderer@@G@@QAE@HH@Z$0
__ehfuncinfo$??0?$CUtlLinkedList@UModelInstance_t@CStudioModelRenderer@@G@@QAE@HH@Z DD 019930522H
	DD	01H
	DD	FLAT:__unwindtable$??0?$CUtlLinkedList@UModelInstance_t@CStudioModelRenderer@@G@@QAE@HH@Z
	DD	2 DUP(00H)
	DD	2 DUP(00H)
	DD	00H
	DD	01H
xdata$x	ENDS
;	COMDAT xdata$x
xdata$x	SEGMENT
__ehfuncinfo$??1?$CUtlMemory@UListElem_t@?$CUtlLinkedList@UDecalModelList_t@CStudioModelRenderer@@G@@H@@QAE@XZ DD 019930522H
	DD	00H
	DD	00H
	DD	2 DUP(00H)
	DD	2 DUP(00H)
	DD	00H
	DD	05H
xdata$x	ENDS
;	COMDAT xdata$x
xdata$x	SEGMENT
__ehfuncinfo$??1?$CUtlLinkedList@UDecalModelList_t@CStudioModelRenderer@@G@@QAE@XZ DD 019930522H
	DD	00H
	DD	00H
	DD	2 DUP(00H)
	DD	2 DUP(00H)
	DD	00H
	DD	05H
xdata$x	ENDS
;	COMDAT xdata$x
xdata$x	SEGMENT
__unwindtable$??0?$CUtlLinkedList@UDecalModelList_t@CStudioModelRenderer@@G@@QAE@HH@Z DD 0ffffffffH
	DD	FLAT:__unwindfunclet$??0?$CUtlLinkedList@UDecalModelList_t@CStudioModelRenderer@@G@@QAE@HH@Z$0
__ehfuncinfo$??0?$CUtlLinkedList@UDecalModelList_t@CStudioModelRenderer@@G@@QAE@HH@Z DD 019930522H
	DD	01H
	DD	FLAT:__unwindtable$??0?$CUtlLinkedList@UDecalModelList_t@CStudioModelRenderer@@G@@QAE@HH@Z
	DD	2 DUP(00H)
	DD	2 DUP(00H)
	DD	00H
	DD	01H
xdata$x	ENDS
;	COMDAT xdata$x
xdata$x	SEGMENT
__ehfuncinfo$??1?$CUtlMemory@UListElem_t@?$CUtlLinkedList@UDecalMaterial_t@CStudioModelRenderer@@G@@H@@QAE@XZ DD 019930522H
	DD	00H
	DD	00H
	DD	2 DUP(00H)
	DD	2 DUP(00H)
	DD	00H
	DD	05H
xdata$x	ENDS
;	COMDAT xdata$x
xdata$x	SEGMENT
__ehfuncinfo$??1?$CUtlLinkedList@UDecalMaterial_t@CStudioModelRenderer@@G@@QAE@XZ DD 019930522H
	DD	00H
	DD	00H
	DD	2 DUP(00H)
	DD	2 DUP(00H)
	DD	00H
	DD	05H
xdata$x	ENDS
;	COMDAT xdata$x
xdata$x	SEGMENT
__unwindtable$??0?$CUtlLinkedList@UDecalMaterial_t@CStudioModelRenderer@@G@@QAE@HH@Z DD 0ffffffffH
	DD	FLAT:__unwindfunclet$??0?$CUtlLinkedList@UDecalMaterial_t@CStudioModelRenderer@@G@@QAE@HH@Z$0
__ehfuncinfo$??0?$CUtlLinkedList@UDecalMaterial_t@CStudioModelRenderer@@G@@QAE@HH@Z DD 019930522H
	DD	01H
	DD	FLAT:__unwindtable$??0?$CUtlLinkedList@UDecalMaterial_t@CStudioModelRenderer@@G@@QAE@HH@Z
	DD	2 DUP(00H)
	DD	2 DUP(00H)
	DD	00H
	DD	01H
xdata$x	ENDS
;	COMDAT xdata$x
xdata$x	SEGMENT
__ehfuncinfo$??1?$CUtlMemory@UListElem_t@?$CUtlLinkedList@UDecalHistory_t@CStudioModelRenderer@@G@@H@@QAE@XZ DD 019930522H
	DD	00H
	DD	00H
	DD	2 DUP(00H)
	DD	2 DUP(00H)
	DD	00H
	DD	05H
xdata$x	ENDS
;	COMDAT xdata$x
xdata$x	SEGMENT
__ehfuncinfo$??1?$CUtlLinkedList@UDecalHistory_t@CStudioModelRenderer@@G@@QAE@XZ DD 019930522H
	DD	00H
	DD	00H
	DD	2 DUP(00H)
	DD	2 DUP(00H)
	DD	00H
	DD	05H
xdata$x	ENDS
;	COMDAT xdata$x
xdata$x	SEGMENT
__ehfuncinfo$??1?$CUtlMemory@UListElem_t@?$CUtlLinkedList@UDecal_t@CStudioModelRenderer@@G@@H@@QAE@XZ DD 019930522H
	DD	00H
	DD	00H
	DD	2 DUP(00H)
	DD	2 DUP(00H)
	DD	00H
	DD	05H
xdata$x	ENDS
;	COMDAT xdata$x
xdata$x	SEGMENT
__ehfuncinfo$??1?$CUtlLinkedList@UDecal_t@CStudioModelRenderer@@G@@QAE@XZ DD 019930522H
	DD	00H
	DD	00H
	DD	2 DUP(00H)
	DD	2 DUP(00H)
	DD	00H
	DD	05H
xdata$x	ENDS
;	COMDAT xdata$x
xdata$x	SEGMENT
__ehfuncinfo$??1?$CUtlMemory@UListElem_t@?$CUtlLinkedList@UDecalVertex_t@@G@@H@@QAE@XZ DD 019930522H
	DD	00H
	DD	00H
	DD	2 DUP(00H)
	DD	2 DUP(00H)
	DD	00H
	DD	05H
xdata$x	ENDS
;	COMDAT xdata$x
xdata$x	SEGMENT
__ehfuncinfo$??1?$CUtlLinkedList@UDecalVertex_t@@G@@QAE@XZ DD 019930522H
	DD	00H
	DD	00H
	DD	2 DUP(00H)
	DD	2 DUP(00H)
	DD	00H
	DD	05H
xdata$x	ENDS
;	COMDAT xdata$x
xdata$x	SEGMENT
__ehfuncinfo$??1?$CUtlMemory@GH@@QAE@XZ DD 019930522H
	DD	00H
	DD	00H
	DD	2 DUP(00H)
	DD	2 DUP(00H)
	DD	00H
	DD	05H
xdata$x	ENDS
;	COMDAT xdata$x
xdata$x	SEGMENT
__ehfuncinfo$??1?$CUtlArray@GV?$CUtlMemory@GH@@@@QAE@XZ DD 019930522H
	DD	00H
	DD	00H
	DD	2 DUP(00H)
	DD	2 DUP(00H)
	DD	00H
	DD	05H
xdata$x	ENDS
;	COMDAT xdata$x
xdata$x	SEGMENT
__unwindtable$??0ModelInstance_t@CStudioModelRenderer@@QAE@XZ DD 0ffffffffH
	DD	FLAT:__unwindfunclet$??0ModelInstance_t@CStudioModelRenderer@@QAE@XZ$0
__ehfuncinfo$??0ModelInstance_t@CStudioModelRenderer@@QAE@XZ DD 019930522H
	DD	01H
	DD	FLAT:__unwindtable$??0ModelInstance_t@CStudioModelRenderer@@QAE@XZ
	DD	2 DUP(00H)
	DD	2 DUP(00H)
	DD	00H
	DD	01H
xdata$x	ENDS
;	COMDAT xdata$x
xdata$x	SEGMENT
__unwindtable$?StudioMergeBones@CStudioModelRenderer@@EAEXQAVmatrix3x4@@0PAUmodel_s@@1@Z DD 0ffffffffH
	DD	FLAT:__unwindfunclet$?StudioMergeBones@CStudioModelRenderer@@EAEXQAVmatrix3x4@@0PAUmodel_s@@1@Z$0
	DD	0ffffffffH
	DD	FLAT:__unwindfunclet$?StudioMergeBones@CStudioModelRenderer@@EAEXQAVmatrix3x4@@0PAUmodel_s@@1@Z$1
__ehfuncinfo$?StudioMergeBones@CStudioModelRenderer@@EAEXQAVmatrix3x4@@0PAUmodel_s@@1@Z DD 019930522H
	DD	02H
	DD	FLAT:__unwindtable$?StudioMergeBones@CStudioModelRenderer@@EAEXQAVmatrix3x4@@0PAUmodel_s@@1@Z
	DD	2 DUP(00H)
	DD	2 DUP(00H)
	DD	00H
	DD	01H
xdata$x	ENDS
;	COMDAT xdata$x
xdata$x	SEGMENT
__unwindtable$?StudioSetupBones@CStudioModelRenderer@@EAEXXZ DD 0ffffffffH
	DD	FLAT:__unwindfunclet$?StudioSetupBones@CStudioModelRenderer@@EAEXXZ$0
	DD	0ffffffffH
	DD	FLAT:__unwindfunclet$?StudioSetupBones@CStudioModelRenderer@@EAEXXZ$1
	DD	0ffffffffH
	DD	FLAT:__unwindfunclet$?StudioSetupBones@CStudioModelRenderer@@EAEXXZ$2
	DD	02H
	DD	FLAT:__unwindfunclet$?StudioSetupBones@CStudioModelRenderer@@EAEXXZ$3
__ehfuncinfo$?StudioSetupBones@CStudioModelRenderer@@EAEXXZ DD 019930522H
	DD	04H
	DD	FLAT:__unwindtable$?StudioSetupBones@CStudioModelRenderer@@EAEXXZ
	DD	2 DUP(00H)
	DD	2 DUP(00H)
	DD	00H
	DD	01H
xdata$x	ENDS
;	COMDAT xdata$x
xdata$x	SEGMENT
__unwindtable$??0CStudioModelRenderer@@QAE@XZ DD 0ffffffffH
	DD	FLAT:__unwindfunclet$??0CStudioModelRenderer@@QAE@XZ$0
	DD	00H
	DD	FLAT:__unwindfunclet$??0CStudioModelRenderer@@QAE@XZ$1
	DD	01H
	DD	FLAT:__unwindfunclet$??0CStudioModelRenderer@@QAE@XZ$2
__ehfuncinfo$??0CStudioModelRenderer@@QAE@XZ DD 019930522H
	DD	03H
	DD	FLAT:__unwindtable$??0CStudioModelRenderer@@QAE@XZ
	DD	2 DUP(00H)
	DD	2 DUP(00H)
	DD	00H
	DD	01H
xdata$x	ENDS
;	COMDAT xdata$x
xdata$x	SEGMENT
__ehfuncinfo$??1?$CUtlMemory@Uikcontextikrule_t@@H@@QAE@XZ DD 019930522H
	DD	00H
	DD	00H
	DD	2 DUP(00H)
	DD	2 DUP(00H)
	DD	00H
	DD	05H
xdata$x	ENDS
;	COMDAT xdata$x
xdata$x	SEGMENT
__ehfuncinfo$??1?$CUtlArray@Uikcontextikrule_t@@V?$CUtlMemory@Uikcontextikrule_t@@H@@@@QAE@XZ DD 019930522H
	DD	00H
	DD	00H
	DD	2 DUP(00H)
	DD	2 DUP(00H)
	DD	00H
	DD	05H
xdata$x	ENDS
;	COMDAT xdata$x
xdata$x	SEGMENT
__ehfuncinfo$??1?$CUtlMemory@V?$CUtlArray@Uikcontextikrule_t@@V?$CUtlMemory@Uikcontextikrule_t@@H@@@@H@@QAE@XZ DD 019930522H
	DD	00H
	DD	00H
	DD	2 DUP(00H)
	DD	2 DUP(00H)
	DD	00H
	DD	05H
xdata$x	ENDS
;	COMDAT xdata$x
xdata$x	SEGMENT
__ehfuncinfo$??1?$CUtlArray@V?$CUtlArray@Uikcontextikrule_t@@V?$CUtlMemory@Uikcontextikrule_t@@H@@@@V?$CUtlMemory@V?$CUtlArray@Uikcontextikrule_t@@V?$CUtlMemory@Uikcontextikrule_t@@H@@@@H@@@@QAE@XZ DD 019930522H
	DD	00H
	DD	00H
	DD	2 DUP(00H)
	DD	2 DUP(00H)
	DD	00H
	DD	05H
xdata$x	ENDS
;	COMDAT xdata$x
xdata$x	SEGMENT
__ehfuncinfo$??1?$CUtlArray@VCIKTarget@@V?$CUtlMemoryFixed@VCIKTarget@@$0M@$0A@@@@@QAE@XZ DD 019930522H
	DD	00H
	DD	00H
	DD	2 DUP(00H)
	DD	2 DUP(00H)
	DD	00H
	DD	05H
xdata$x	ENDS
;	COMDAT xdata$x
xdata$x	SEGMENT
__ehfuncinfo$??1?$CUtlMemory@UListElem_t@?$CUtlLinkedList@UJiggleData@@G@@H@@QAE@XZ DD 019930522H
	DD	00H
	DD	00H
	DD	2 DUP(00H)
	DD	2 DUP(00H)
	DD	00H
	DD	05H
xdata$x	ENDS
;	COMDAT xdata$x
xdata$x	SEGMENT
__ehfuncinfo$??1?$CUtlLinkedList@UJiggleData@@G@@QAE@XZ DD 019930522H
	DD	00H
	DD	00H
	DD	2 DUP(00H)
	DD	2 DUP(00H)
	DD	00H
	DD	05H
xdata$x	ENDS
;	COMDAT xdata$x
xdata$x	SEGMENT
__unwindtable$??0?$CUtlLinkedList@UJiggleData@@G@@QAE@HH@Z DD 0ffffffffH
	DD	FLAT:__unwindfunclet$??0?$CUtlLinkedList@UJiggleData@@G@@QAE@HH@Z$0
__ehfuncinfo$??0?$CUtlLinkedList@UJiggleData@@G@@QAE@HH@Z DD 019930522H
	DD	01H
	DD	FLAT:__unwindtable$??0?$CUtlLinkedList@UJiggleData@@G@@QAE@HH@Z
	DD	2 DUP(00H)
	DD	2 DUP(00H)
	DD	00H
	DD	01H
xdata$x	ENDS
;	COMDAT xdata$x
xdata$x	SEGMENT
__ehfuncinfo$??1CJiggleBones@@QAE@XZ DD 019930522H
	DD	00H
	DD	00H
	DD	2 DUP(00H)
	DD	2 DUP(00H)
	DD	00H
	DD	05H
xdata$x	ENDS
; Function compile flags: /Odtp /ZI
; File d:\!diffusion 2020\source code 2022\client-server\game_shared\utlmemory.h
;	COMDAT ??$Construct@H@@YAXPAH@Z
_TEXT	SEGMENT
$T1 = -68						; size = 4
_pMemory$ = 8						; size = 4
??$Construct@H@@YAXPAH@Z PROC				; Construct<int>, COMDAT

; 37   : {

	push	ebp
	mov	ebp, esp
	sub	esp, 68					; 00000044H
	push	ebx
	push	esi
	push	edi

; 38   : 	new( pMemory ) T;

	mov	eax, DWORD PTR _pMemory$[ebp]
	push	eax
	push	4
	call	??2@YAPAXIPAX@Z				; operator new
	add	esp, 8
	mov	DWORD PTR $T1[ebp], eax

; 39   : }

	pop	edi
	pop	esi
	pop	ebx
	mov	esp, ebp
	pop	ebp
	ret	0
??$Construct@H@@YAXPAH@Z ENDP				; Construct<int>
_TEXT	ENDS
; Function compile flags: /Odtp /ZI
; File d:\!diffusion 2020\source code 2022\client-server\game_shared\utlmemory.h
;	COMDAT ??$Destruct@H@@YAXPAH@Z
_TEXT	SEGMENT
_pMemory$ = 8						; size = 4
??$Destruct@H@@YAXPAH@Z PROC				; Destruct<int>, COMDAT

; 49   : {

	push	ebp
	mov	ebp, esp
	sub	esp, 64					; 00000040H
	push	ebx
	push	esi
	push	edi

; 50   : 	pMemory->~T();
; 51   : 
; 52   : #ifdef _DEBUG
; 53   : 	memset( pMemory, 0xDD, sizeof(T) );

	push	4
	push	221					; 000000ddH
	mov	eax, DWORD PTR _pMemory$[ebp]
	push	eax
	call	_memset
	add	esp, 12					; 0000000cH

; 54   : #endif
; 55   : }

	pop	edi
	pop	esi
	pop	ebx
	mov	esp, ebp
	pop	ebp
	ret	0
??$Destruct@H@@YAXPAH@Z ENDP				; Destruct<int>
_TEXT	ENDS
; Function compile flags: /Odtp /ZI
; File d:\!diffusion 2020\source code 2022\client-server\game_shared\utlmemory.h
;	COMDAT ??$Destruct@UDecalHistory_t@CStudioModelRenderer@@@@YAXPAUDecalHistory_t@CStudioModelRenderer@@@Z
_TEXT	SEGMENT
_pMemory$ = 8						; size = 4
??$Destruct@UDecalHistory_t@CStudioModelRenderer@@@@YAXPAUDecalHistory_t@CStudioModelRenderer@@@Z PROC ; Destruct<CStudioModelRenderer::DecalHistory_t>, COMDAT

; 49   : {

	push	ebp
	mov	ebp, esp
	sub	esp, 64					; 00000040H
	push	ebx
	push	esi
	push	edi

; 50   : 	pMemory->~T();
; 51   : 
; 52   : #ifdef _DEBUG
; 53   : 	memset( pMemory, 0xDD, sizeof(T) );

	push	4
	push	221					; 000000ddH
	mov	eax, DWORD PTR _pMemory$[ebp]
	push	eax
	call	_memset
	add	esp, 12					; 0000000cH

; 54   : #endif
; 55   : }

	pop	edi
	pop	esi
	pop	ebx
	mov	esp, ebp
	pop	ebp
	ret	0
??$Destruct@UDecalHistory_t@CStudioModelRenderer@@@@YAXPAUDecalHistory_t@CStudioModelRenderer@@@Z ENDP ; Destruct<CStudioModelRenderer::DecalHistory_t>
_TEXT	ENDS
; Function compile flags: /Odtp /ZI
; File d:\!diffusion 2020\source code 2022\client-server\game_shared\utlmemory.h
;	COMDAT ??$Destruct@G@@YAXPAG@Z
_TEXT	SEGMENT
_pMemory$ = 8						; size = 4
??$Destruct@G@@YAXPAG@Z PROC				; Destruct<unsigned short>, COMDAT

; 49   : {

	push	ebp
	mov	ebp, esp
	sub	esp, 64					; 00000040H
	push	ebx
	push	esi
	push	edi

; 50   : 	pMemory->~T();
; 51   : 
; 52   : #ifdef _DEBUG
; 53   : 	memset( pMemory, 0xDD, sizeof(T) );

	push	2
	push	221					; 000000ddH
	mov	eax, DWORD PTR _pMemory$[ebp]
	push	eax
	call	_memset
	add	esp, 12					; 0000000cH

; 54   : #endif
; 55   : }

	pop	edi
	pop	esi
	pop	ebx
	mov	esp, ebp
	pop	ebp
	ret	0
??$Destruct@G@@YAXPAG@Z ENDP				; Destruct<unsigned short>
_TEXT	ENDS
; Function compile flags: /Odtp /ZI
; File d:\!diffusion 2020\source code 2022\client-server\game_shared\utlmemory.h
;	COMDAT ??$Destruct@UDecal_t@CStudioModelRenderer@@@@YAXPAUDecal_t@CStudioModelRenderer@@@Z
_TEXT	SEGMENT
_pMemory$ = 8						; size = 4
??$Destruct@UDecal_t@CStudioModelRenderer@@@@YAXPAUDecal_t@CStudioModelRenderer@@@Z PROC ; Destruct<CStudioModelRenderer::Decal_t>, COMDAT

; 49   : {

	push	ebp
	mov	ebp, esp
	sub	esp, 64					; 00000040H
	push	ebx
	push	esi
	push	edi

; 50   : 	pMemory->~T();
; 51   : 
; 52   : #ifdef _DEBUG
; 53   : 	memset( pMemory, 0xDD, sizeof(T) );

	push	72					; 00000048H
	push	221					; 000000ddH
	mov	eax, DWORD PTR _pMemory$[ebp]
	push	eax
	call	_memset
	add	esp, 12					; 0000000cH

; 54   : #endif
; 55   : }

	pop	edi
	pop	esi
	pop	ebx
	mov	esp, ebp
	pop	ebp
	ret	0
??$Destruct@UDecal_t@CStudioModelRenderer@@@@YAXPAUDecal_t@CStudioModelRenderer@@@Z ENDP ; Destruct<CStudioModelRenderer::Decal_t>
_TEXT	ENDS
; Function compile flags: /Odtp /ZI
; File d:\!diffusion 2020\source code 2022\client-server\game_shared\utlmemory.h
;	COMDAT ??$Destruct@UDecalVertex_t@@@@YAXPAUDecalVertex_t@@@Z
_TEXT	SEGMENT
_pMemory$ = 8						; size = 4
??$Destruct@UDecalVertex_t@@@@YAXPAUDecalVertex_t@@@Z PROC ; Destruct<DecalVertex_t>, COMDAT

; 49   : {

	push	ebp
	mov	ebp, esp
	sub	esp, 64					; 00000040H
	push	ebx
	push	esi
	push	edi

; 50   : 	pMemory->~T();
; 51   : 
; 52   : #ifdef _DEBUG
; 53   : 	memset( pMemory, 0xDD, sizeof(T) );

	push	64					; 00000040H
	push	221					; 000000ddH
	mov	eax, DWORD PTR _pMemory$[ebp]
	push	eax
	call	_memset
	add	esp, 12					; 0000000cH

; 54   : #endif
; 55   : }

	pop	edi
	pop	esi
	pop	ebx
	mov	esp, ebp
	pop	ebp
	ret	0
??$Destruct@UDecalVertex_t@@@@YAXPAUDecalVertex_t@@@Z ENDP ; Destruct<DecalVertex_t>
_TEXT	ENDS
; Function compile flags: /Odtp /ZI
; File d:\!diffusion 2020\source code 2022\client-server\game_shared\utlmemory.h
;	COMDAT ??$Destruct@VVector@@@@YAXPAVVector@@@Z
_TEXT	SEGMENT
_pMemory$ = 8						; size = 4
??$Destruct@VVector@@@@YAXPAVVector@@@Z PROC		; Destruct<Vector>, COMDAT

; 49   : {

	push	ebp
	mov	ebp, esp
	sub	esp, 64					; 00000040H
	push	ebx
	push	esi
	push	edi

; 50   : 	pMemory->~T();
; 51   : 
; 52   : #ifdef _DEBUG
; 53   : 	memset( pMemory, 0xDD, sizeof(T) );

	push	12					; 0000000cH
	push	221					; 000000ddH
	mov	eax, DWORD PTR _pMemory$[ebp]
	push	eax
	call	_memset
	add	esp, 12					; 0000000cH

; 54   : #endif
; 55   : }

	pop	edi
	pop	esi
	pop	ebx
	mov	esp, ebp
	pop	ebp
	ret	0
??$Destruct@VVector@@@@YAXPAVVector@@@Z ENDP		; Destruct<Vector>
_TEXT	ENDS
; Function compile flags: /Odtp /ZI
; File d:\!diffusion 2020\source code 2022\client-server\game_shared\utlmemory.h
;	COMDAT ??$Destruct@V?$CUtlArray@HV?$CUtlMemory@HH@@@@@@YAXPAV?$CUtlArray@HV?$CUtlMemory@HH@@@@@Z
_TEXT	SEGMENT
_pMemory$ = 8						; size = 4
??$Destruct@V?$CUtlArray@HV?$CUtlMemory@HH@@@@@@YAXPAV?$CUtlArray@HV?$CUtlMemory@HH@@@@@Z PROC ; Destruct<CUtlArray<int,CUtlMemory<int,int> > >, COMDAT

; 49   : {

	push	ebp
	mov	ebp, esp
	sub	esp, 64					; 00000040H
	push	ebx
	push	esi
	push	edi

; 50   : 	pMemory->~T();

	push	0
	mov	ecx, DWORD PTR _pMemory$[ebp]
	call	??_G?$CUtlArray@HV?$CUtlMemory@HH@@@@QAEPAXI@Z

; 51   : 
; 52   : #ifdef _DEBUG
; 53   : 	memset( pMemory, 0xDD, sizeof(T) );

	push	20					; 00000014H
	push	221					; 000000ddH
	mov	eax, DWORD PTR _pMemory$[ebp]
	push	eax
	call	_memset
	add	esp, 12					; 0000000cH

; 54   : #endif
; 55   : }

	pop	edi
	pop	esi
	pop	ebx
	mov	esp, ebp
	pop	ebp
	ret	0
??$Destruct@V?$CUtlArray@HV?$CUtlMemory@HH@@@@@@YAXPAV?$CUtlArray@HV?$CUtlMemory@HH@@@@@Z ENDP ; Destruct<CUtlArray<int,CUtlMemory<int,int> > >
_TEXT	ENDS
; Function compile flags: /Odtp /ZI
; File d:\!diffusion 2020\source code 2022\client-server\game_shared\utlmemory.h
;	COMDAT ??$Destruct@V?$CUtlArray@Uikcontextikrule_t@@V?$CUtlMemory@Uikcontextikrule_t@@H@@@@@@YAXPAV?$CUtlArray@Uikcontextikrule_t@@V?$CUtlMemory@Uikcontextikrule_t@@H@@@@@Z
_TEXT	SEGMENT
_pMemory$ = 8						; size = 4
??$Destruct@V?$CUtlArray@Uikcontextikrule_t@@V?$CUtlMemory@Uikcontextikrule_t@@H@@@@@@YAXPAV?$CUtlArray@Uikcontextikrule_t@@V?$CUtlMemory@Uikcontextikrule_t@@H@@@@@Z PROC ; Destruct<CUtlArray<ikcontextikrule_t,CUtlMemory<ikcontextikrule_t,int> > >, COMDAT

; 49   : {

	push	ebp
	mov	ebp, esp
	sub	esp, 64					; 00000040H
	push	ebx
	push	esi
	push	edi

; 50   : 	pMemory->~T();

	push	0
	mov	ecx, DWORD PTR _pMemory$[ebp]
	call	??_G?$CUtlArray@Uikcontextikrule_t@@V?$CUtlMemory@Uikcontextikrule_t@@H@@@@QAEPAXI@Z

; 51   : 
; 52   : #ifdef _DEBUG
; 53   : 	memset( pMemory, 0xDD, sizeof(T) );

	push	20					; 00000014H
	push	221					; 000000ddH
	mov	eax, DWORD PTR _pMemory$[ebp]
	push	eax
	call	_memset
	add	esp, 12					; 0000000cH

; 54   : #endif
; 55   : }

	pop	edi
	pop	esi
	pop	ebx
	mov	esp, ebp
	pop	ebp
	ret	0
??$Destruct@V?$CUtlArray@Uikcontextikrule_t@@V?$CUtlMemory@Uikcontextikrule_t@@H@@@@@@YAXPAV?$CUtlArray@Uikcontextikrule_t@@V?$CUtlMemory@Uikcontextikrule_t@@H@@@@@Z ENDP ; Destruct<CUtlArray<ikcontextikrule_t,CUtlMemory<ikcontextikrule_t,int> > >
_TEXT	ENDS
; Function compile flags: /Odtp /ZI
; File d:\!diffusion 2020\source code 2022\client-server\game_shared\utlmemory.h
;	COMDAT ??$Destruct@Uikcontextikrule_t@@@@YAXPAUikcontextikrule_t@@@Z
_TEXT	SEGMENT
_pMemory$ = 8						; size = 4
??$Destruct@Uikcontextikrule_t@@@@YAXPAUikcontextikrule_t@@@Z PROC ; Destruct<ikcontextikrule_t>, COMDAT

; 49   : {

	push	ebp
	mov	ebp, esp
	sub	esp, 64					; 00000040H
	push	ebx
	push	esi
	push	edi

; 50   : 	pMemory->~T();
; 51   : 
; 52   : #ifdef _DEBUG
; 53   : 	memset( pMemory, 0xDD, sizeof(T) );

	push	132					; 00000084H
	push	221					; 000000ddH
	mov	eax, DWORD PTR _pMemory$[ebp]
	push	eax
	call	_memset
	add	esp, 12					; 0000000cH

; 54   : #endif
; 55   : }

	pop	edi
	pop	esi
	pop	ebx
	mov	esp, ebp
	pop	ebp
	ret	0
??$Destruct@Uikcontextikrule_t@@@@YAXPAUikcontextikrule_t@@@Z ENDP ; Destruct<ikcontextikrule_t>
_TEXT	ENDS
; Function compile flags: /Odtp /ZI
; File d:\!diffusion 2020\source code 2022\client-server\game_shared\utlmemory.h
;	COMDAT ??$Destruct@VCIKTarget@@@@YAXPAVCIKTarget@@@Z
_TEXT	SEGMENT
_pMemory$ = 8						; size = 4
??$Destruct@VCIKTarget@@@@YAXPAVCIKTarget@@@Z PROC	; Destruct<CIKTarget>, COMDAT

; 49   : {

	push	ebp
	mov	ebp, esp
	sub	esp, 64					; 00000040H
	push	ebx
	push	esi
	push	edi

; 50   : 	pMemory->~T();
; 51   : 
; 52   : #ifdef _DEBUG
; 53   : 	memset( pMemory, 0xDD, sizeof(T) );

	push	336					; 00000150H
	push	221					; 000000ddH
	mov	eax, DWORD PTR _pMemory$[ebp]
	push	eax
	call	_memset
	add	esp, 12					; 0000000cH

; 54   : #endif
; 55   : }

	pop	edi
	pop	esi
	pop	ebx
	mov	esp, ebp
	pop	ebp
	ret	0
??$Destruct@VCIKTarget@@@@YAXPAVCIKTarget@@@Z ENDP	; Destruct<CIKTarget>
_TEXT	ENDS
; Function compile flags: /Odtp /ZI
; File d:\!diffusion 2020\source code 2022\client-server\game_shared\utlmemory.h
;	COMDAT ??$Construct@VVector@@@@YAXPAVVector@@@Z
_TEXT	SEGMENT
tv76 = -88						; size = 4
$T2 = -84						; size = 4
$T3 = -80						; size = 4
__$EHRec$ = -12						; size = 12
_pMemory$ = 8						; size = 4
??$Construct@VVector@@@@YAXPAVVector@@@Z PROC		; Construct<Vector>, COMDAT

; 37   : {

	push	ebp
	mov	ebp, esp
	push	-1
	push	__ehhandler$??$Construct@VVector@@@@YAXPAVVector@@@Z
	mov	eax, DWORD PTR fs:0
	push	eax
	sub	esp, 76					; 0000004cH
	push	ebx
	push	esi
	push	edi
	mov	eax, DWORD PTR ___security_cookie
	xor	eax, ebp
	push	eax
	lea	eax, DWORD PTR __$EHRec$[ebp]
	mov	DWORD PTR fs:0, eax

; 38   : 	new( pMemory ) T;

	mov	eax, DWORD PTR _pMemory$[ebp]
	push	eax
	push	12					; 0000000cH
	call	??2@YAPAXIPAX@Z				; operator new
	add	esp, 8
	mov	DWORD PTR $T2[ebp], eax
	mov	DWORD PTR __$EHRec$[ebp+8], 0
	cmp	DWORD PTR $T2[ebp], 0
	je	SHORT $LN3@Construct
	mov	ecx, DWORD PTR $T2[ebp]
	call	??0Vector@@QAE@XZ			; Vector::Vector
	mov	DWORD PTR tv76[ebp], eax
	jmp	SHORT $LN4@Construct
$LN3@Construct:
	mov	DWORD PTR tv76[ebp], 0
$LN4@Construct:
	mov	ecx, DWORD PTR tv76[ebp]
	mov	DWORD PTR $T3[ebp], ecx
	mov	DWORD PTR __$EHRec$[ebp+8], -1

; 39   : }

	mov	ecx, DWORD PTR __$EHRec$[ebp]
	mov	DWORD PTR fs:0, ecx
	pop	ecx
	pop	edi
	pop	esi
	pop	ebx
	mov	esp, ebp
	pop	ebp
	ret	0
_TEXT	ENDS
;	COMDAT text$x
text$x	SEGMENT
__unwindfunclet$??$Construct@VVector@@@@YAXPAVVector@@@Z$0:
	mov	eax, DWORD PTR _pMemory$[ebp]
	push	eax
	mov	eax, DWORD PTR $T2[ebp]
	push	eax
	call	??3@YAXPAX0@Z				; operator delete
	add	esp, 8
	ret	0
__ehhandler$??$Construct@VVector@@@@YAXPAVVector@@@Z:
	mov	edx, DWORD PTR [esp+8]
	lea	eax, DWORD PTR [edx+12]
	mov	ecx, DWORD PTR [edx-92]
	xor	ecx, eax
	call	@__security_check_cookie@4
	mov	eax, OFFSET __ehfuncinfo$??$Construct@VVector@@@@YAXPAVVector@@@Z
	jmp	___CxxFrameHandler3
text$x	ENDS
??$Construct@VVector@@@@YAXPAVVector@@@Z ENDP		; Construct<Vector>
; Function compile flags: /Odtp /ZI
; File d:\!diffusion 2020\source code 2022\client-server\game_shared\utlmemory.h
;	COMDAT ??$Construct@V?$CUtlArray@HV?$CUtlMemory@HH@@@@@@YAXPAV?$CUtlArray@HV?$CUtlMemory@HH@@@@@Z
_TEXT	SEGMENT
tv78 = -88						; size = 4
$T2 = -84						; size = 4
$T3 = -80						; size = 4
__$EHRec$ = -12						; size = 12
_pMemory$ = 8						; size = 4
??$Construct@V?$CUtlArray@HV?$CUtlMemory@HH@@@@@@YAXPAV?$CUtlArray@HV?$CUtlMemory@HH@@@@@Z PROC ; Construct<CUtlArray<int,CUtlMemory<int,int> > >, COMDAT

; 37   : {

	push	ebp
	mov	ebp, esp
	push	-1
	push	__ehhandler$??$Construct@V?$CUtlArray@HV?$CUtlMemory@HH@@@@@@YAXPAV?$CUtlArray@HV?$CUtlMemory@HH@@@@@Z
	mov	eax, DWORD PTR fs:0
	push	eax
	sub	esp, 76					; 0000004cH
	push	ebx
	push	esi
	push	edi
	mov	eax, DWORD PTR ___security_cookie
	xor	eax, ebp
	push	eax
	lea	eax, DWORD PTR __$EHRec$[ebp]
	mov	DWORD PTR fs:0, eax

; 38   : 	new( pMemory ) T;

	mov	eax, DWORD PTR _pMemory$[ebp]
	push	eax
	push	20					; 00000014H
	call	??2@YAPAXIPAX@Z				; operator new
	add	esp, 8
	mov	DWORD PTR $T2[ebp], eax
	mov	DWORD PTR __$EHRec$[ebp+8], 0
	cmp	DWORD PTR $T2[ebp], 0
	je	SHORT $LN3@Construct
	push	0
	push	0
	mov	ecx, DWORD PTR $T2[ebp]
	call	??0?$CUtlArray@HV?$CUtlMemory@HH@@@@QAE@HH@Z ; CUtlArray<int,CUtlMemory<int,int> >::CUtlArray<int,CUtlMemory<int,int> >
	mov	DWORD PTR tv78[ebp], eax
	jmp	SHORT $LN4@Construct
$LN3@Construct:
	mov	DWORD PTR tv78[ebp], 0
$LN4@Construct:
	mov	ecx, DWORD PTR tv78[ebp]
	mov	DWORD PTR $T3[ebp], ecx
	mov	DWORD PTR __$EHRec$[ebp+8], -1

; 39   : }

	mov	ecx, DWORD PTR __$EHRec$[ebp]
	mov	DWORD PTR fs:0, ecx
	pop	ecx
	pop	edi
	pop	esi
	pop	ebx
	mov	esp, ebp
	pop	ebp
	ret	0
_TEXT	ENDS
;	COMDAT text$x
text$x	SEGMENT
__unwindfunclet$??$Construct@V?$CUtlArray@HV?$CUtlMemory@HH@@@@@@YAXPAV?$CUtlArray@HV?$CUtlMemory@HH@@@@@Z$0:
	mov	eax, DWORD PTR _pMemory$[ebp]
	push	eax
	mov	eax, DWORD PTR $T2[ebp]
	push	eax
	call	??3@YAXPAX0@Z				; operator delete
	add	esp, 8
	ret	0
__ehhandler$??$Construct@V?$CUtlArray@HV?$CUtlMemory@HH@@@@@@YAXPAV?$CUtlArray@HV?$CUtlMemory@HH@@@@@Z:
	mov	edx, DWORD PTR [esp+8]
	lea	eax, DWORD PTR [edx+12]
	mov	ecx, DWORD PTR [edx-92]
	xor	ecx, eax
	call	@__security_check_cookie@4
	mov	eax, OFFSET __ehfuncinfo$??$Construct@V?$CUtlArray@HV?$CUtlMemory@HH@@@@@@YAXPAV?$CUtlArray@HV?$CUtlMemory@HH@@@@@Z
	jmp	___CxxFrameHandler3
text$x	ENDS
??$Construct@V?$CUtlArray@HV?$CUtlMemory@HH@@@@@@YAXPAV?$CUtlArray@HV?$CUtlMemory@HH@@@@@Z ENDP ; Construct<CUtlArray<int,CUtlMemory<int,int> > >
; Function compile flags: /Odtp /ZI
; File d:\!diffusion 2020\source code 2022\client-server\game_shared\utlmemory.h
;	COMDAT ??$Destruct@UModelInstance_t@CStudioModelRenderer@@@@YAXPAUModelInstance_t@CStudioModelRenderer@@@Z
_TEXT	SEGMENT
_pMemory$ = 8						; size = 4
??$Destruct@UModelInstance_t@CStudioModelRenderer@@@@YAXPAUModelInstance_t@CStudioModelRenderer@@@Z PROC ; Destruct<CStudioModelRenderer::ModelInstance_t>, COMDAT

; 49   : {

	push	ebp
	mov	ebp, esp
	sub	esp, 64					; 00000040H
	push	ebx
	push	esi
	push	edi

; 50   : 	pMemory->~T();

	push	0
	mov	ecx, DWORD PTR _pMemory$[ebp]
	call	??_GModelInstance_t@CStudioModelRenderer@@QAEPAXI@Z

; 51   : 
; 52   : #ifdef _DEBUG
; 53   : 	memset( pMemory, 0xDD, sizeof(T) );

	push	49280					; 0000c080H
	push	221					; 000000ddH
	mov	eax, DWORD PTR _pMemory$[ebp]
	push	eax
	call	_memset
	add	esp, 12					; 0000000cH

; 54   : #endif
; 55   : }

	pop	edi
	pop	esi
	pop	ebx
	mov	esp, ebp
	pop	ebp
	ret	0
??$Destruct@UModelInstance_t@CStudioModelRenderer@@@@YAXPAUModelInstance_t@CStudioModelRenderer@@@Z ENDP ; Destruct<CStudioModelRenderer::ModelInstance_t>
_TEXT	ENDS
; Function compile flags: /Odtp /ZI
; File d:\!diffusion 2020\source code 2022\client-server\game_shared\utlmemory.h
;	COMDAT ??$Construct@UModelInstance_t@CStudioModelRenderer@@@@YAXPAUModelInstance_t@CStudioModelRenderer@@@Z
_TEXT	SEGMENT
tv76 = -88						; size = 4
$T2 = -84						; size = 4
$T3 = -80						; size = 4
__$EHRec$ = -12						; size = 12
_pMemory$ = 8						; size = 4
??$Construct@UModelInstance_t@CStudioModelRenderer@@@@YAXPAUModelInstance_t@CStudioModelRenderer@@@Z PROC ; Construct<CStudioModelRenderer::ModelInstance_t>, COMDAT

; 37   : {

	push	ebp
	mov	ebp, esp
	push	-1
	push	__ehhandler$??$Construct@UModelInstance_t@CStudioModelRenderer@@@@YAXPAUModelInstance_t@CStudioModelRenderer@@@Z
	mov	eax, DWORD PTR fs:0
	push	eax
	sub	esp, 76					; 0000004cH
	push	ebx
	push	esi
	push	edi
	mov	eax, DWORD PTR ___security_cookie
	xor	eax, ebp
	push	eax
	lea	eax, DWORD PTR __$EHRec$[ebp]
	mov	DWORD PTR fs:0, eax

; 38   : 	new( pMemory ) T;

	mov	eax, DWORD PTR _pMemory$[ebp]
	push	eax
	push	49280					; 0000c080H
	call	??2@YAPAXIPAX@Z				; operator new
	add	esp, 8
	mov	DWORD PTR $T2[ebp], eax
	mov	DWORD PTR __$EHRec$[ebp+8], 0
	cmp	DWORD PTR $T2[ebp], 0
	je	SHORT $LN3@Construct
	mov	ecx, DWORD PTR $T2[ebp]
	call	??0ModelInstance_t@CStudioModelRenderer@@QAE@XZ
	mov	DWORD PTR tv76[ebp], eax
	jmp	SHORT $LN4@Construct
$LN3@Construct:
	mov	DWORD PTR tv76[ebp], 0
$LN4@Construct:
	mov	ecx, DWORD PTR tv76[ebp]
	mov	DWORD PTR $T3[ebp], ecx
	mov	DWORD PTR __$EHRec$[ebp+8], -1

; 39   : }

	mov	ecx, DWORD PTR __$EHRec$[ebp]
	mov	DWORD PTR fs:0, ecx
	pop	ecx
	pop	edi
	pop	esi
	pop	ebx
	mov	esp, ebp
	pop	ebp
	ret	0
_TEXT	ENDS
;	COMDAT text$x
text$x	SEGMENT
__unwindfunclet$??$Construct@UModelInstance_t@CStudioModelRenderer@@@@YAXPAUModelInstance_t@CStudioModelRenderer@@@Z$0:
	mov	eax, DWORD PTR _pMemory$[ebp]
	push	eax
	mov	eax, DWORD PTR $T2[ebp]
	push	eax
	call	??3@YAXPAX0@Z				; operator delete
	add	esp, 8
	ret	0
__ehhandler$??$Construct@UModelInstance_t@CStudioModelRenderer@@@@YAXPAUModelInstance_t@CStudioModelRenderer@@@Z:
	mov	edx, DWORD PTR [esp+8]
	lea	eax, DWORD PTR [edx+12]
	mov	ecx, DWORD PTR [edx-92]
	xor	ecx, eax
	call	@__security_check_cookie@4
	mov	eax, OFFSET __ehfuncinfo$??$Construct@UModelInstance_t@CStudioModelRenderer@@@@YAXPAUModelInstance_t@CStudioModelRenderer@@@Z
	jmp	___CxxFrameHandler3
text$x	ENDS
??$Construct@UModelInstance_t@CStudioModelRenderer@@@@YAXPAUModelInstance_t@CStudioModelRenderer@@@Z ENDP ; Construct<CStudioModelRenderer::ModelInstance_t>
; Function compile flags: /Odtp /ZI
; File d:\!diffusion 2020\source code 2022\client-server\game_shared\utlmemory.h
;	COMDAT ??$Destruct@UDecalModelList_t@CStudioModelRenderer@@@@YAXPAUDecalModelList_t@CStudioModelRenderer@@@Z
_TEXT	SEGMENT
_pMemory$ = 8						; size = 4
??$Destruct@UDecalModelList_t@CStudioModelRenderer@@@@YAXPAUDecalModelList_t@CStudioModelRenderer@@@Z PROC ; Destruct<CStudioModelRenderer::DecalModelList_t>, COMDAT

; 49   : {

	push	ebp
	mov	ebp, esp
	sub	esp, 64					; 00000040H
	push	ebx
	push	esi
	push	edi

; 50   : 	pMemory->~T();

	push	0
	mov	ecx, DWORD PTR _pMemory$[ebp]
	call	??_GDecalModelList_t@CStudioModelRenderer@@QAEPAXI@Z

; 51   : 
; 52   : #ifdef _DEBUG
; 53   : 	memset( pMemory, 0xDD, sizeof(T) );

	push	32					; 00000020H
	push	221					; 000000ddH
	mov	eax, DWORD PTR _pMemory$[ebp]
	push	eax
	call	_memset
	add	esp, 12					; 0000000cH

; 54   : #endif
; 55   : }

	pop	edi
	pop	esi
	pop	ebx
	mov	esp, ebp
	pop	ebp
	ret	0
??$Destruct@UDecalModelList_t@CStudioModelRenderer@@@@YAXPAUDecalModelList_t@CStudioModelRenderer@@@Z ENDP ; Destruct<CStudioModelRenderer::DecalModelList_t>
_TEXT	ENDS
; Function compile flags: /Odtp /ZI
; File d:\!diffusion 2020\source code 2022\client-server\game_shared\utlmemory.h
;	COMDAT ??$CopyConstruct@H@@YAXPAHABH@Z
_TEXT	SEGMENT
tv71 = -72						; size = 4
$T1 = -68						; size = 4
_pMemory$ = 8						; size = 4
_src$ = 12						; size = 4
??$CopyConstruct@H@@YAXPAHABH@Z PROC			; CopyConstruct<int>, COMDAT

; 43   : {

	push	ebp
	mov	ebp, esp
	sub	esp, 72					; 00000048H
	push	ebx
	push	esi
	push	edi

; 44   : 	new( pMemory ) T(src);

	mov	eax, DWORD PTR _pMemory$[ebp]
	push	eax
	push	4
	call	??2@YAPAXIPAX@Z				; operator new
	add	esp, 8
	mov	DWORD PTR $T1[ebp], eax
	cmp	DWORD PTR $T1[ebp], 0
	je	SHORT $LN3@CopyConstr
	mov	ecx, DWORD PTR $T1[ebp]
	mov	edx, DWORD PTR _src$[ebp]
	mov	eax, DWORD PTR [edx]
	mov	DWORD PTR [ecx], eax
	mov	ecx, DWORD PTR $T1[ebp]
	mov	DWORD PTR tv71[ebp], ecx
	jmp	SHORT $LN1@CopyConstr
$LN3@CopyConstr:
	mov	DWORD PTR tv71[ebp], 0
$LN1@CopyConstr:

; 45   : }

	pop	edi
	pop	esi
	pop	ebx
	mov	esp, ebp
	pop	ebp
	ret	0
??$CopyConstruct@H@@YAXPAHABH@Z ENDP			; CopyConstruct<int>
_TEXT	ENDS
; Function compile flags: /Odtp /ZI
; File d:\!diffusion 2020\source code 2022\client-server\game_shared\utlmemory.h
;	COMDAT ??$AlignValue@PAD@@YAPADPADI@Z
_TEXT	SEGMENT
_val$ = 8						; size = 4
_alignment$ = 12					; size = 4
??$AlignValue@PAD@@YAPADPADI@Z PROC			; AlignValue<char *>, COMDAT

; 27   : {

	push	ebp
	mov	ebp, esp
	sub	esp, 64					; 00000040H
	push	ebx
	push	esi
	push	edi

; 28   : 	return (T)( ( (unsigned int)val + alignment - 1 ) & ~( alignment - 1 ) );

	mov	eax, DWORD PTR _alignment$[ebp]
	mov	ecx, DWORD PTR _val$[ebp]
	lea	eax, DWORD PTR [ecx+eax-1]
	mov	edx, DWORD PTR _alignment$[ebp]
	sub	edx, 1
	not	edx
	and	eax, edx

; 29   : }

	pop	edi
	pop	esi
	pop	ebx
	mov	esp, ebp
	pop	ebp
	ret	0
??$AlignValue@PAD@@YAPADPADI@Z ENDP			; AlignValue<char *>
_TEXT	ENDS
; Function compile flags: /Odtp /ZI
; File d:\!diffusion 2020\source code 2022\client-server\game_shared\utlmemory.h
;	COMDAT ??$Destruct@UDecalMaterial_t@CStudioModelRenderer@@@@YAXPAUDecalMaterial_t@CStudioModelRenderer@@@Z
_TEXT	SEGMENT
_pMemory$ = 8						; size = 4
??$Destruct@UDecalMaterial_t@CStudioModelRenderer@@@@YAXPAUDecalMaterial_t@CStudioModelRenderer@@@Z PROC ; Destruct<CStudioModelRenderer::DecalMaterial_t>, COMDAT

; 49   : {

	push	ebp
	mov	ebp, esp
	sub	esp, 64					; 00000040H
	push	ebx
	push	esi
	push	edi

; 50   : 	pMemory->~T();

	push	0
	mov	ecx, DWORD PTR _pMemory$[ebp]
	call	??_GDecalMaterial_t@CStudioModelRenderer@@QAEPAXI@Z

; 51   : 
; 52   : #ifdef _DEBUG
; 53   : 	memset( pMemory, 0xDD, sizeof(T) );

	push	92					; 0000005cH
	push	221					; 000000ddH
	mov	eax, DWORD PTR _pMemory$[ebp]
	push	eax
	call	_memset
	add	esp, 12					; 0000000cH

; 54   : #endif
; 55   : }

	pop	edi
	pop	esi
	pop	ebx
	mov	esp, ebp
	pop	ebp
	ret	0
??$Destruct@UDecalMaterial_t@CStudioModelRenderer@@@@YAXPAUDecalMaterial_t@CStudioModelRenderer@@@Z ENDP ; Destruct<CStudioModelRenderer::DecalMaterial_t>
_TEXT	ENDS
; Function compile flags: /Odtp /ZI
; File d:\!diffusion 2020\source code 2022\client-server\game_shared\utlmemory.h
;	COMDAT ??$Destruct@UJiggleData@@@@YAXPAUJiggleData@@@Z
_TEXT	SEGMENT
_pMemory$ = 8						; size = 4
??$Destruct@UJiggleData@@@@YAXPAUJiggleData@@@Z PROC	; Destruct<JiggleData>, COMDAT

; 49   : {

	push	ebp
	mov	ebp, esp
	sub	esp, 64					; 00000040H
	push	ebx
	push	esi
	push	edi

; 50   : 	pMemory->~T();
; 51   : 
; 52   : #ifdef _DEBUG
; 53   : 	memset( pMemory, 0xDD, sizeof(T) );

	push	148					; 00000094H
	push	221					; 000000ddH
	mov	eax, DWORD PTR _pMemory$[ebp]
	push	eax
	call	_memset
	add	esp, 12					; 0000000cH

; 54   : #endif
; 55   : }

	pop	edi
	pop	esi
	pop	ebx
	mov	esp, ebp
	pop	ebp
	ret	0
??$Destruct@UJiggleData@@@@YAXPAUJiggleData@@@Z ENDP	; Destruct<JiggleData>
_TEXT	ENDS
; Function compile flags: /Odtp /ZI
; File d:\!diffusion 2020\source code 2022\client-server\game_shared\utlarray.h
;	COMDAT ?ResetDbgInfo@?$CUtlArray@VVector@@V?$CUtlMemory@VVector@@H@@@@IAEXXZ
_TEXT	SEGMENT
_this$ = -4						; size = 4
?ResetDbgInfo@?$CUtlArray@VVector@@V?$CUtlMemory@VVector@@H@@@@IAEXXZ PROC ; CUtlArray<Vector,CUtlMemory<Vector,int> >::ResetDbgInfo, COMDAT
; _this$ = ecx

; 160  : 	{

	push	ebp
	mov	ebp, esp
	sub	esp, 68					; 00000044H
	push	ebx
	push	esi
	push	edi
	mov	DWORD PTR _this$[ebp], ecx

; 161  : 		m_pElements = Base();

	mov	ecx, DWORD PTR _this$[ebp]
	call	?Base@?$CUtlArray@VVector@@V?$CUtlMemory@VVector@@H@@@@QAEPAVVector@@XZ ; CUtlArray<Vector,CUtlMemory<Vector,int> >::Base
	mov	ecx, DWORD PTR _this$[ebp]
	mov	DWORD PTR [ecx+16], eax

; 162  : 	}

	pop	edi
	pop	esi
	pop	ebx
	mov	esp, ebp
	pop	ebp
	ret	0
?ResetDbgInfo@?$CUtlArray@VVector@@V?$CUtlMemory@VVector@@H@@@@IAEXXZ ENDP ; CUtlArray<Vector,CUtlMemory<Vector,int> >::ResetDbgInfo
_TEXT	ENDS
; Function compile flags: /Odtp /ZI
; File d:\!diffusion 2020\source code 2022\client-server\game_shared\utlmemory.h
;	COMDAT ?ValidateGrowSize@?$CUtlMemory@VVector@@H@@IAEXXZ
_TEXT	SEGMENT
_this$ = -4						; size = 4
?ValidateGrowSize@?$CUtlMemory@VVector@@H@@IAEXXZ PROC	; CUtlMemory<Vector,int>::ValidateGrowSize, COMDAT
; _this$ = ecx

; 148  : 	{

	push	ebp
	mov	ebp, esp
	sub	esp, 68					; 00000044H
	push	ebx
	push	esi
	push	edi
	mov	DWORD PTR _this$[ebp], ecx

; 149  : #ifdef _X360
; 150  : 		if ( m_nGrowSize && m_nGrowSize != EXTERNAL_BUFFER_MARKER )
; 151  : 		{
; 152  : 			// Max grow size at 128 bytes on XBOX
; 153  : 			const int MAX_GROW = 128;
; 154  : 			if ( m_nGrowSize * sizeof(T) > MAX_GROW )
; 155  : 			{
; 156  : 				m_nGrowSize = max( 1, MAX_GROW / sizeof(T) );
; 157  : 			}
; 158  : 		}
; 159  : #endif
; 160  : 	}

	pop	edi
	pop	esi
	pop	ebx
	mov	esp, ebp
	pop	ebp
	ret	0
?ValidateGrowSize@?$CUtlMemory@VVector@@H@@IAEXXZ ENDP	; CUtlMemory<Vector,int>::ValidateGrowSize
_TEXT	ENDS
; Function compile flags: /Odtp /ZI
; File d:\!diffusion 2020\source code 2022\client-server\game_shared\utlmemory.h
;	COMDAT ?IsReadOnly@?$CUtlMemory@VVector@@H@@QBE_NXZ
_TEXT	SEGMENT
tv66 = -72						; size = 4
_this$ = -4						; size = 4
?IsReadOnly@?$CUtlMemory@VVector@@H@@QBE_NXZ PROC	; CUtlMemory<Vector,int>::IsReadOnly, COMDAT
; _this$ = ecx

; 467  : {

	push	ebp
	mov	ebp, esp
	sub	esp, 72					; 00000048H
	push	ebx
	push	esi
	push	edi
	mov	DWORD PTR _this$[ebp], ecx

; 468  : 	return (m_nGrowSize == EXTERNAL_CONST_BUFFER_MARKER);

	mov	eax, DWORD PTR _this$[ebp]
	cmp	DWORD PTR [eax+8], -2			; fffffffeH
	jne	SHORT $LN3@IsReadOnly
	mov	DWORD PTR tv66[ebp], 1
	jmp	SHORT $LN4@IsReadOnly
$LN3@IsReadOnly:
	mov	DWORD PTR tv66[ebp], 0
$LN4@IsReadOnly:
	mov	al, BYTE PTR tv66[ebp]

; 469  : }

	pop	edi
	pop	esi
	pop	ebx
	mov	esp, ebp
	pop	ebp
	ret	0
?IsReadOnly@?$CUtlMemory@VVector@@H@@QBE_NXZ ENDP	; CUtlMemory<Vector,int>::IsReadOnly
_TEXT	ENDS
; Function compile flags: /Odtp /ZI
; File d:\!diffusion 2020\source code 2022\client-server\game_shared\utlmemory.h
;	COMDAT ?IsExternallyAllocated@?$CUtlMemory@VVector@@H@@QBE_NXZ
_TEXT	SEGMENT
tv66 = -72						; size = 4
_this$ = -4						; size = 4
?IsExternallyAllocated@?$CUtlMemory@VVector@@H@@QBE_NXZ PROC ; CUtlMemory<Vector,int>::IsExternallyAllocated, COMDAT
; _this$ = ecx

; 457  : {

	push	ebp
	mov	ebp, esp
	sub	esp, 72					; 00000048H
	push	ebx
	push	esi
	push	edi
	mov	DWORD PTR _this$[ebp], ecx

; 458  : 	return (m_nGrowSize < 0);

	mov	eax, DWORD PTR _this$[ebp]
	cmp	DWORD PTR [eax+8], 0
	jge	SHORT $LN3@IsExternal
	mov	DWORD PTR tv66[ebp], 1
	jmp	SHORT $LN4@IsExternal
$LN3@IsExternal:
	mov	DWORD PTR tv66[ebp], 0
$LN4@IsExternal:
	mov	al, BYTE PTR tv66[ebp]

; 459  : }

	pop	edi
	pop	esi
	pop	ebx
	mov	esp, ebp
	pop	ebp
	ret	0
?IsExternallyAllocated@?$CUtlMemory@VVector@@H@@QBE_NXZ ENDP ; CUtlMemory<Vector,int>::IsExternallyAllocated
_TEXT	ENDS
; Function compile flags: /Odtp /ZI
; File d:\!diffusion 2020\source code 2022\client-server\game_shared\utlmemory.h
;	COMDAT ?Purge@?$CUtlMemory@VVector@@H@@QAEXXZ
_TEXT	SEGMENT
_this$ = -4						; size = 4
?Purge@?$CUtlMemory@VVector@@H@@QAEXXZ PROC		; CUtlMemory<Vector,int>::Purge, COMDAT
; _this$ = ecx

; 645  : {

	push	ebp
	mov	ebp, esp
	sub	esp, 68					; 00000044H
	push	ebx
	push	esi
	push	edi
	mov	DWORD PTR _this$[ebp], ecx

; 646  : 	if ( !IsExternallyAllocated() )

	mov	ecx, DWORD PTR _this$[ebp]
	call	?IsExternallyAllocated@?$CUtlMemory@VVector@@H@@QBE_NXZ ; CUtlMemory<Vector,int>::IsExternallyAllocated
	movzx	eax, al
	test	eax, eax
	jne	SHORT $LN1@Purge

; 647  : 	{
; 648  : 		if (m_pMemory)

	mov	eax, DWORD PTR _this$[ebp]
	cmp	DWORD PTR [eax], 0
	je	SHORT $LN3@Purge

; 649  : 		{
; 650  : 			free( (void*)m_pMemory );

	mov	eax, DWORD PTR _this$[ebp]
	mov	ecx, DWORD PTR [eax]
	push	ecx
	call	_free
	add	esp, 4

; 651  : 			m_pMemory = 0;

	mov	eax, DWORD PTR _this$[ebp]
	mov	DWORD PTR [eax], 0
$LN3@Purge:

; 652  : 		}
; 653  : 		m_nAllocationCount = 0;

	mov	eax, DWORD PTR _this$[ebp]
	mov	DWORD PTR [eax+4], 0
$LN1@Purge:

; 654  : 	}
; 655  : }

	pop	edi
	pop	esi
	pop	ebx
	mov	esp, ebp
	pop	ebp
	ret	0
?Purge@?$CUtlMemory@VVector@@H@@QAEXXZ ENDP		; CUtlMemory<Vector,int>::Purge
_TEXT	ENDS
; Function compile flags: /Odtp /ZI
; File d:\!diffusion 2020\source code 2022\client-server\game_shared\utlmemory.h
;	COMDAT ?Grow@?$CUtlMemory@VVector@@H@@QAEXH@Z
_TEXT	SEGMENT
_nAllocationRequested$ = -8				; size = 4
_this$ = -4						; size = 4
_num$ = 8						; size = 4
?Grow@?$CUtlMemory@VVector@@H@@QAEXH@Z PROC		; CUtlMemory<Vector,int>::Grow, COMDAT
; _this$ = ecx

; 560  : {

	push	ebp
	mov	ebp, esp
	sub	esp, 72					; 00000048H
	push	ebx
	push	esi
	push	edi
	mov	DWORD PTR _this$[ebp], ecx

; 561  : 	assert( num > 0 );

	cmp	DWORD PTR _num$[ebp], 0
	jg	SHORT $LN12@Grow
	push	561					; 00000231H
	push	OFFSET ??_C@_1JE@CIIIAKCN@?$AAd?$AA?3?$AA?2?$AA?$CB?$AAd?$AAi?$AAf?$AAf?$AAu?$AAs?$AAi?$AAo?$AAn?$AA?5?$AA2?$AA0?$AA2?$AA0?$AA?2?$AAs?$AAo?$AAu?$AAr?$AAc?$AAe?$AA?5?$AAc?$AAo?$AAd?$AAe?$AA?5?$AA2@
	push	OFFSET ??_C@_1BA@PKCLMAEA@?$AAn?$AAu?$AAm?$AA?5?$AA?$DO?$AA?5?$AA0?$AA?$AA@
	call	__wassert
	add	esp, 12					; 0000000cH
$LN12@Grow:

; 562  : 
; 563  : 	if ( IsExternallyAllocated() )

	mov	ecx, DWORD PTR _this$[ebp]
	call	?IsExternallyAllocated@?$CUtlMemory@VVector@@H@@QBE_NXZ ; CUtlMemory<Vector,int>::IsExternallyAllocated
	movzx	eax, al
	test	eax, eax
	je	SHORT $LN4@Grow

; 564  : 	{
; 565  : 		// Can't grow a buffer whose memory was externally allocated 
; 566  : 		assert(0);

	xor	eax, eax
	jne	SHORT $LN13@Grow
	push	566					; 00000236H
	push	OFFSET ??_C@_1JE@CIIIAKCN@?$AAd?$AA?3?$AA?2?$AA?$CB?$AAd?$AAi?$AAf?$AAf?$AAu?$AAs?$AAi?$AAo?$AAn?$AA?5?$AA2?$AA0?$AA2?$AA0?$AA?2?$AAs?$AAo?$AAu?$AAr?$AAc?$AAe?$AA?5?$AAc?$AAo?$AAd?$AAe?$AA?5?$AA2@
	push	OFFSET ??_C@_13COJANIEC@?$AA0?$AA?$AA@
	call	__wassert
	add	esp, 12					; 0000000cH
$LN13@Grow:

; 567  : 		return;

	jmp	$LN1@Grow
$LN4@Grow:

; 568  : 	}
; 569  : 
; 570  : 	// Make sure we have at least numallocated + num allocations.
; 571  : 	// Use the grow rules specified for this memory (in m_nGrowSize)
; 572  : 	int nAllocationRequested = m_nAllocationCount + num;

	mov	eax, DWORD PTR _this$[ebp]
	mov	ecx, DWORD PTR [eax+4]
	add	ecx, DWORD PTR _num$[ebp]
	mov	DWORD PTR _nAllocationRequested$[ebp], ecx

; 573  : 
; 574  : 	m_nAllocationCount = UtlMemory_CalcNewAllocationCount( m_nAllocationCount, m_nGrowSize, nAllocationRequested, sizeof(T) );

	push	12					; 0000000cH
	mov	eax, DWORD PTR _nAllocationRequested$[ebp]
	push	eax
	mov	ecx, DWORD PTR _this$[ebp]
	mov	edx, DWORD PTR [ecx+8]
	push	edx
	mov	eax, DWORD PTR _this$[ebp]
	mov	ecx, DWORD PTR [eax+4]
	push	ecx
	call	?UtlMemory_CalcNewAllocationCount@@YAHHHHH@Z ; UtlMemory_CalcNewAllocationCount
	add	esp, 16					; 00000010H
	mov	edx, DWORD PTR _this$[ebp]
	mov	DWORD PTR [edx+4], eax

; 575  : 
; 576  : 	// if m_nAllocationRequested wraps index type I, recalculate
; 577  : 	if ( ( int )( I )m_nAllocationCount < nAllocationRequested )

	mov	eax, DWORD PTR _this$[ebp]
	mov	ecx, DWORD PTR [eax+4]
	cmp	ecx, DWORD PTR _nAllocationRequested$[ebp]
	jge	SHORT $LN5@Grow

; 578  : 	{
; 579  : 		if ( ( int )( I )m_nAllocationCount == 0 && ( int )( I )( m_nAllocationCount - 1 ) >= nAllocationRequested )

	mov	eax, DWORD PTR _this$[ebp]
	cmp	DWORD PTR [eax+4], 0
	jne	SHORT $LN6@Grow
	mov	eax, DWORD PTR _this$[ebp]
	mov	ecx, DWORD PTR [eax+4]
	sub	ecx, 1
	cmp	ecx, DWORD PTR _nAllocationRequested$[ebp]
	jl	SHORT $LN6@Grow

; 580  : 		{
; 581  : 			--m_nAllocationCount; // deal w/ the common case of m_nAllocationCount == MAX_USHORT + 1

	mov	eax, DWORD PTR _this$[ebp]
	mov	ecx, DWORD PTR [eax+4]
	sub	ecx, 1
	mov	edx, DWORD PTR _this$[ebp]
	mov	DWORD PTR [edx+4], ecx

; 582  : 		}
; 583  : 		else

	jmp	SHORT $LN5@Grow
$LN6@Grow:

; 584  : 		{
; 585  : 			if ( ( int )( I )nAllocationRequested != nAllocationRequested )

	mov	eax, DWORD PTR _nAllocationRequested$[ebp]
	cmp	eax, DWORD PTR _nAllocationRequested$[ebp]
	je	SHORT $LN2@Grow

; 586  : 			{
; 587  : 				// we've been asked to grow memory to a size s.t. the index type can't address the requested amount of memory
; 588  : 				assert( 0 );

	xor	eax, eax
	jne	SHORT $LN14@Grow
	push	588					; 0000024cH
	push	OFFSET ??_C@_1JE@CIIIAKCN@?$AAd?$AA?3?$AA?2?$AA?$CB?$AAd?$AAi?$AAf?$AAf?$AAu?$AAs?$AAi?$AAo?$AAn?$AA?5?$AA2?$AA0?$AA2?$AA0?$AA?2?$AAs?$AAo?$AAu?$AAr?$AAc?$AAe?$AA?5?$AAc?$AAo?$AAd?$AAe?$AA?5?$AA2@
	push	OFFSET ??_C@_13COJANIEC@?$AA0?$AA?$AA@
	call	__wassert
	add	esp, 12					; 0000000cH
$LN14@Grow:

; 589  : 				return;

	jmp	$LN1@Grow
$LN2@Grow:

; 590  : 			}
; 591  : 			while ( ( int )( I )m_nAllocationCount < nAllocationRequested )

	mov	eax, DWORD PTR _this$[ebp]
	mov	ecx, DWORD PTR [eax+4]
	cmp	ecx, DWORD PTR _nAllocationRequested$[ebp]
	jge	SHORT $LN5@Grow

; 592  : 			{
; 593  : 				m_nAllocationCount = ( m_nAllocationCount + nAllocationRequested ) / 2;

	mov	eax, DWORD PTR _this$[ebp]
	mov	eax, DWORD PTR [eax+4]
	add	eax, DWORD PTR _nAllocationRequested$[ebp]
	cdq
	sub	eax, edx
	sar	eax, 1
	mov	ecx, DWORD PTR _this$[ebp]
	mov	DWORD PTR [ecx+4], eax

; 594  : 			}

	jmp	SHORT $LN2@Grow
$LN5@Grow:

; 595  : 		}
; 596  : 	}
; 597  : 
; 598  : 	if (m_pMemory)

	mov	eax, DWORD PTR _this$[ebp]
	cmp	DWORD PTR [eax], 0
	je	SHORT $LN9@Grow

; 599  : 	{
; 600  : 		m_pMemory = (T*)realloc( m_pMemory, m_nAllocationCount * sizeof(T) );

	mov	eax, DWORD PTR _this$[ebp]
	imul	ecx, DWORD PTR [eax+4], 12
	push	ecx
	mov	edx, DWORD PTR _this$[ebp]
	mov	eax, DWORD PTR [edx]
	push	eax
	call	_realloc
	add	esp, 8
	mov	ecx, DWORD PTR _this$[ebp]
	mov	DWORD PTR [ecx], eax

; 601  : 		assert( m_pMemory );

	mov	eax, DWORD PTR _this$[ebp]
	cmp	DWORD PTR [eax], 0
	jne	SHORT $LN15@Grow
	push	601					; 00000259H
	push	OFFSET ??_C@_1JE@CIIIAKCN@?$AAd?$AA?3?$AA?2?$AA?$CB?$AAd?$AAi?$AAf?$AAf?$AAu?$AAs?$AAi?$AAo?$AAn?$AA?5?$AA2?$AA0?$AA2?$AA0?$AA?2?$AAs?$AAo?$AAu?$AAr?$AAc?$AAe?$AA?5?$AAc?$AAo?$AAd?$AAe?$AA?5?$AA2@
	push	OFFSET ??_C@_1BE@OPPFELHC@?$AAm?$AA_?$AAp?$AAM?$AAe?$AAm?$AAo?$AAr?$AAy?$AA?$AA@
	call	__wassert
	add	esp, 12					; 0000000cH
$LN15@Grow:

; 602  : 	}
; 603  : 	else

	jmp	SHORT $LN1@Grow
$LN9@Grow:

; 604  : 	{
; 605  : 		m_pMemory = (T*)malloc( m_nAllocationCount * sizeof(T) );

	mov	eax, DWORD PTR _this$[ebp]
	imul	ecx, DWORD PTR [eax+4], 12
	push	ecx
	call	_malloc
	add	esp, 4
	mov	edx, DWORD PTR _this$[ebp]
	mov	DWORD PTR [edx], eax

; 606  : 		assert( m_pMemory );

	mov	eax, DWORD PTR _this$[ebp]
	cmp	DWORD PTR [eax], 0
	jne	SHORT $LN1@Grow
	push	606					; 0000025eH
	push	OFFSET ??_C@_1JE@CIIIAKCN@?$AAd?$AA?3?$AA?2?$AA?$CB?$AAd?$AAi?$AAf?$AAf?$AAu?$AAs?$AAi?$AAo?$AAn?$AA?5?$AA2?$AA0?$AA2?$AA0?$AA?2?$AAs?$AAo?$AAu?$AAr?$AAc?$AAe?$AA?5?$AAc?$AAo?$AAd?$AAe?$AA?5?$AA2@
	push	OFFSET ??_C@_1BE@OPPFELHC@?$AAm?$AA_?$AAp?$AAM?$AAe?$AAm?$AAo?$AAr?$AAy?$AA?$AA@
	call	__wassert
	add	esp, 12					; 0000000cH
$LN1@Grow:

; 607  : 	}
; 608  : }

	pop	edi
	pop	esi
	pop	ebx
	mov	esp, ebp
	pop	ebp
	ret	4
?Grow@?$CUtlMemory@VVector@@H@@QAEXH@Z ENDP		; CUtlMemory<Vector,int>::Grow
_TEXT	ENDS
; Function compile flags: /Odtp /ZI
; File d:\!diffusion 2020\source code 2022\client-server\game_shared\utlmemory.h
;	COMDAT ?NumAllocated@?$CUtlMemory@VVector@@H@@QBEHXZ
_TEXT	SEGMENT
_this$ = -4						; size = 4
?NumAllocated@?$CUtlMemory@VVector@@H@@QBEHXZ PROC	; CUtlMemory<Vector,int>::NumAllocated, COMDAT
; _this$ = ecx

; 504  : {

	push	ebp
	mov	ebp, esp
	sub	esp, 68					; 00000044H
	push	ebx
	push	esi
	push	edi
	mov	DWORD PTR _this$[ebp], ecx

; 505  : 	return m_nAllocationCount;

	mov	eax, DWORD PTR _this$[ebp]
	mov	eax, DWORD PTR [eax+4]

; 506  : }

	pop	edi
	pop	esi
	pop	ebx
	mov	esp, ebp
	pop	ebp
	ret	0
?NumAllocated@?$CUtlMemory@VVector@@H@@QBEHXZ ENDP	; CUtlMemory<Vector,int>::NumAllocated
_TEXT	ENDS
; Function compile flags: /Odtp /ZI
; File d:\!diffusion 2020\source code 2022\client-server\game_shared\utlmemory.h
;	COMDAT ?Base@?$CUtlMemory@VVector@@H@@QAEPAVVector@@XZ
_TEXT	SEGMENT
_this$ = -4						; size = 4
?Base@?$CUtlMemory@VVector@@H@@QAEPAVVector@@XZ PROC	; CUtlMemory<Vector,int>::Base, COMDAT
; _this$ = ecx

; 487  : {

	push	ebp
	mov	ebp, esp
	sub	esp, 68					; 00000044H
	push	ebx
	push	esi
	push	edi
	mov	DWORD PTR _this$[ebp], ecx

; 488  : 	assert( !IsReadOnly() );

	mov	ecx, DWORD PTR _this$[ebp]
	call	?IsReadOnly@?$CUtlMemory@VVector@@H@@QBE_NXZ ; CUtlMemory<Vector,int>::IsReadOnly
	movzx	eax, al
	test	eax, eax
	je	SHORT $LN3@Base
	push	488					; 000001e8H
	push	OFFSET ??_C@_1JE@CIIIAKCN@?$AAd?$AA?3?$AA?2?$AA?$CB?$AAd?$AAi?$AAf?$AAf?$AAu?$AAs?$AAi?$AAo?$AAn?$AA?5?$AA2?$AA0?$AA2?$AA0?$AA?2?$AAs?$AAo?$AAu?$AAr?$AAc?$AAe?$AA?5?$AAc?$AAo?$AAd?$AAe?$AA?5?$AA2@
	push	OFFSET ??_C@_1BM@PFNFCCHH@?$AA?$CB?$AAI?$AAs?$AAR?$AAe?$AAa?$AAd?$AAO?$AAn?$AAl?$AAy?$AA?$CI?$AA?$CJ?$AA?$AA@
	call	__wassert
	add	esp, 12					; 0000000cH
$LN3@Base:

; 489  : 	return m_pMemory;

	mov	eax, DWORD PTR _this$[ebp]
	mov	eax, DWORD PTR [eax]

; 490  : }

	pop	edi
	pop	esi
	pop	ebx
	mov	esp, ebp
	pop	ebp
	ret	0
?Base@?$CUtlMemory@VVector@@H@@QAEPAVVector@@XZ ENDP	; CUtlMemory<Vector,int>::Base
_TEXT	ENDS
; Function compile flags: /Odtp /ZI
; File d:\!diffusion 2020\source code 2022\client-server\game_shared\utlmemory.h
;	COMDAT ?IsIdxValid@?$CUtlMemory@VVector@@H@@QBE_NH@Z
_TEXT	SEGMENT
tv67 = -72						; size = 4
_this$ = -4						; size = 4
_i$ = 8							; size = 4
?IsIdxValid@?$CUtlMemory@VVector@@H@@QBE_NH@Z PROC	; CUtlMemory<Vector,int>::IsIdxValid, COMDAT
; _this$ = ecx

; 520  : {

	push	ebp
	mov	ebp, esp
	sub	esp, 72					; 00000048H
	push	ebx
	push	esi
	push	edi
	mov	DWORD PTR _this$[ebp], ecx

; 521  : 	return ( ((int) i) >= 0 ) && ( ((int) i) < m_nAllocationCount );

	cmp	DWORD PTR _i$[ebp], 0
	jl	SHORT $LN3@IsIdxValid
	mov	eax, DWORD PTR _this$[ebp]
	mov	ecx, DWORD PTR _i$[ebp]
	cmp	ecx, DWORD PTR [eax+4]
	jge	SHORT $LN3@IsIdxValid
	mov	DWORD PTR tv67[ebp], 1
	jmp	SHORT $LN4@IsIdxValid
$LN3@IsIdxValid:
	mov	DWORD PTR tv67[ebp], 0
$LN4@IsIdxValid:
	mov	al, BYTE PTR tv67[ebp]

; 522  : }

	pop	edi
	pop	esi
	pop	ebx
	mov	esp, ebp
	pop	ebp
	ret	4
?IsIdxValid@?$CUtlMemory@VVector@@H@@QBE_NH@Z ENDP	; CUtlMemory<Vector,int>::IsIdxValid
_TEXT	ENDS
; Function compile flags: /Odtp /ZI
; File d:\!diffusion 2020\source code 2022\client-server\game_shared\utlmemory.h
;	COMDAT ??A?$CUtlMemory@VVector@@H@@QAEAAVVector@@H@Z
_TEXT	SEGMENT
_this$ = -4						; size = 4
_i$ = 8							; size = 4
??A?$CUtlMemory@VVector@@H@@QAEAAVVector@@H@Z PROC	; CUtlMemory<Vector,int>::operator[], COMDAT
; _this$ = ecx

; 423  : {

	push	ebp
	mov	ebp, esp
	sub	esp, 68					; 00000044H
	push	ebx
	push	esi
	push	edi
	mov	DWORD PTR _this$[ebp], ecx

; 424  : 	assert( !IsReadOnly() );

	mov	ecx, DWORD PTR _this$[ebp]
	call	?IsReadOnly@?$CUtlMemory@VVector@@H@@QBE_NXZ ; CUtlMemory<Vector,int>::IsReadOnly
	movzx	eax, al
	test	eax, eax
	je	SHORT $LN3@operator
	push	424					; 000001a8H
	push	OFFSET ??_C@_1JE@CIIIAKCN@?$AAd?$AA?3?$AA?2?$AA?$CB?$AAd?$AAi?$AAf?$AAf?$AAu?$AAs?$AAi?$AAo?$AAn?$AA?5?$AA2?$AA0?$AA2?$AA0?$AA?2?$AAs?$AAo?$AAu?$AAr?$AAc?$AAe?$AA?5?$AAc?$AAo?$AAd?$AAe?$AA?5?$AA2@
	push	OFFSET ??_C@_1BM@PFNFCCHH@?$AA?$CB?$AAI?$AAs?$AAR?$AAe?$AAa?$AAd?$AAO?$AAn?$AAl?$AAy?$AA?$CI?$AA?$CJ?$AA?$AA@
	call	__wassert
	add	esp, 12					; 0000000cH
$LN3@operator:

; 425  : 	assert( IsIdxValid(i) );

	mov	eax, DWORD PTR _i$[ebp]
	push	eax
	mov	ecx, DWORD PTR _this$[ebp]
	call	?IsIdxValid@?$CUtlMemory@VVector@@H@@QBE_NH@Z ; CUtlMemory<Vector,int>::IsIdxValid
	movzx	ecx, al
	test	ecx, ecx
	jne	SHORT $LN4@operator
	push	425					; 000001a9H
	push	OFFSET ??_C@_1JE@CIIIAKCN@?$AAd?$AA?3?$AA?2?$AA?$CB?$AAd?$AAi?$AAf?$AAf?$AAu?$AAs?$AAi?$AAo?$AAn?$AA?5?$AA2?$AA0?$AA2?$AA0?$AA?2?$AAs?$AAo?$AAu?$AAr?$AAc?$AAe?$AA?5?$AAc?$AAo?$AAd?$AAe?$AA?5?$AA2@
	push	OFFSET ??_C@_1BM@CKILBAKK@?$AAI?$AAs?$AAI?$AAd?$AAx?$AAV?$AAa?$AAl?$AAi?$AAd?$AA?$CI?$AAi?$AA?$CJ?$AA?$AA@
	call	__wassert
	add	esp, 12					; 0000000cH
$LN4@operator:

; 426  : 	return m_pMemory[i];

	imul	eax, DWORD PTR _i$[ebp], 12
	mov	ecx, DWORD PTR _this$[ebp]
	add	eax, DWORD PTR [ecx]

; 427  : }

	pop	edi
	pop	esi
	pop	ebx
	mov	esp, ebp
	pop	ebp
	ret	4
??A?$CUtlMemory@VVector@@H@@QAEAAVVector@@H@Z ENDP	; CUtlMemory<Vector,int>::operator[]
_TEXT	ENDS
; Function compile flags: /Odtp /ZI
; File d:\!diffusion 2020\source code 2022\client-server\game_shared\utlmemory.h
;	COMDAT ??1?$CUtlMemory@VVector@@H@@QAE@XZ
_TEXT	SEGMENT
_this$ = -16						; size = 4
__$EHRec$ = -12						; size = 12
??1?$CUtlMemory@VVector@@H@@QAE@XZ PROC			; CUtlMemory<Vector,int>::~CUtlMemory<Vector,int>, COMDAT
; _this$ = ecx

; 322  : {

	push	ebp
	mov	ebp, esp
	push	-1
	push	__ehhandler$??1?$CUtlMemory@VVector@@H@@QAE@XZ
	mov	eax, DWORD PTR fs:0
	push	eax
	sub	esp, 68					; 00000044H
	push	ebx
	push	esi
	push	edi
	mov	eax, DWORD PTR ___security_cookie
	xor	eax, ebp
	push	eax
	lea	eax, DWORD PTR __$EHRec$[ebp]
	mov	DWORD PTR fs:0, eax
	mov	DWORD PTR _this$[ebp], ecx

; 323  : 	Purge();

	mov	ecx, DWORD PTR _this$[ebp]
	call	?Purge@?$CUtlMemory@VVector@@H@@QAEXXZ	; CUtlMemory<Vector,int>::Purge

; 324  : }

	mov	ecx, DWORD PTR __$EHRec$[ebp]
	mov	DWORD PTR fs:0, ecx
	pop	ecx
	pop	edi
	pop	esi
	pop	ebx
	mov	esp, ebp
	pop	ebp
	ret	0
_TEXT	ENDS
;	COMDAT text$x
text$x	SEGMENT
__ehhandler$??1?$CUtlMemory@VVector@@H@@QAE@XZ:
	mov	edx, DWORD PTR [esp+8]
	lea	eax, DWORD PTR [edx+12]
	mov	ecx, DWORD PTR [edx-84]
	xor	ecx, eax
	call	@__security_check_cookie@4
	mov	eax, OFFSET __ehfuncinfo$??1?$CUtlMemory@VVector@@H@@QAE@XZ
	jmp	___CxxFrameHandler3
text$x	ENDS
??1?$CUtlMemory@VVector@@H@@QAE@XZ ENDP			; CUtlMemory<Vector,int>::~CUtlMemory<Vector,int>
; Function compile flags: /Odtp /ZI
; File d:\!diffusion 2020\source code 2022\client-server\game_shared\utlmemory.h
;	COMDAT ??0?$CUtlMemory@VVector@@H@@QAE@HH@Z
_TEXT	SEGMENT
_this$ = -4						; size = 4
_nGrowSize$ = 8						; size = 4
_nInitAllocationCount$ = 12				; size = 4
??0?$CUtlMemory@VVector@@H@@QAE@HH@Z PROC		; CUtlMemory<Vector,int>::CUtlMemory<Vector,int>, COMDAT
; _this$ = ecx

; 295  : {

	push	ebp
	mov	ebp, esp
	sub	esp, 68					; 00000044H
	push	ebx
	push	esi
	push	edi
	mov	DWORD PTR _this$[ebp], ecx

; 293  : CUtlMemory<T,I>::CUtlMemory( int nGrowSize, int nInitAllocationCount ) : m_pMemory(0), 

	mov	eax, DWORD PTR _this$[ebp]
	mov	DWORD PTR [eax], 0

; 294  : 	m_nAllocationCount( nInitAllocationCount ), m_nGrowSize( nGrowSize )

	mov	eax, DWORD PTR _this$[ebp]
	mov	ecx, DWORD PTR _nInitAllocationCount$[ebp]
	mov	DWORD PTR [eax+4], ecx
	mov	eax, DWORD PTR _this$[ebp]
	mov	ecx, DWORD PTR _nGrowSize$[ebp]
	mov	DWORD PTR [eax+8], ecx

; 296  : 	ValidateGrowSize();

	mov	ecx, DWORD PTR _this$[ebp]
	call	?ValidateGrowSize@?$CUtlMemory@VVector@@H@@IAEXXZ ; CUtlMemory<Vector,int>::ValidateGrowSize

; 297  : 	assert( nGrowSize >= 0 );

	cmp	DWORD PTR _nGrowSize$[ebp], 0
	jge	SHORT $LN4@CUtlMemory
	push	297					; 00000129H
	push	OFFSET ??_C@_1JE@CIIIAKCN@?$AAd?$AA?3?$AA?2?$AA?$CB?$AAd?$AAi?$AAf?$AAf?$AAu?$AAs?$AAi?$AAo?$AAn?$AA?5?$AA2?$AA0?$AA2?$AA0?$AA?2?$AAs?$AAo?$AAu?$AAr?$AAc?$AAe?$AA?5?$AAc?$AAo?$AAd?$AAe?$AA?5?$AA2@
	push	OFFSET ??_C@_1BO@FOOHAONO@?$AAn?$AAG?$AAr?$AAo?$AAw?$AAS?$AAi?$AAz?$AAe?$AA?5?$AA?$DO?$AA?$DN?$AA?5?$AA0?$AA?$AA@
	call	__wassert
	add	esp, 12					; 0000000cH
$LN4@CUtlMemory:

; 298  : 	if (m_nAllocationCount)

	mov	eax, DWORD PTR _this$[ebp]
	cmp	DWORD PTR [eax+4], 0
	je	SHORT $LN1@CUtlMemory

; 299  : 	{
; 300  : 		m_pMemory = (T*)malloc( m_nAllocationCount * sizeof(T) );

	mov	eax, DWORD PTR _this$[ebp]
	imul	ecx, DWORD PTR [eax+4], 12
	push	ecx
	call	_malloc
	add	esp, 4
	mov	edx, DWORD PTR _this$[ebp]
	mov	DWORD PTR [edx], eax
$LN1@CUtlMemory:

; 301  : 	}
; 302  : }

	mov	eax, DWORD PTR _this$[ebp]
	pop	edi
	pop	esi
	pop	ebx
	mov	esp, ebp
	pop	ebp
	ret	8
??0?$CUtlMemory@VVector@@H@@QAE@HH@Z ENDP		; CUtlMemory<Vector,int>::CUtlMemory<Vector,int>
_TEXT	ENDS
; Function compile flags: /Odtp /ZI
; File d:\!diffusion 2020\source code 2022\client-server\game_shared\utlarray.h
;	COMDAT ?ShiftElementsRight@?$CUtlArray@VVector@@V?$CUtlMemory@VVector@@H@@@@IAEXHH@Z
_TEXT	SEGMENT
_numToMove$ = -8					; size = 4
_this$ = -4						; size = 4
_elem$ = 8						; size = 4
_num$ = 12						; size = 4
?ShiftElementsRight@?$CUtlArray@VVector@@V?$CUtlMemory@VVector@@H@@@@IAEXHH@Z PROC ; CUtlArray<Vector,CUtlMemory<Vector,int> >::ShiftElementsRight, COMDAT
; _this$ = ecx

; 447  : {

	push	ebp
	mov	ebp, esp
	sub	esp, 72					; 00000048H
	push	ebx
	push	esi
	push	edi
	mov	DWORD PTR _this$[ebp], ecx

; 448  : 	assert( IsValidIndex(elem) || ( m_Size == 0 ) || ( num == 0 ));

	mov	eax, DWORD PTR _elem$[ebp]
	push	eax
	mov	ecx, DWORD PTR _this$[ebp]
	call	?IsValidIndex@?$CUtlArray@VVector@@V?$CUtlMemory@VVector@@H@@@@QBE_NH@Z ; CUtlArray<Vector,CUtlMemory<Vector,int> >::IsValidIndex
	movzx	ecx, al
	test	ecx, ecx
	jne	SHORT $LN4@ShiftEleme
	mov	edx, DWORD PTR _this$[ebp]
	cmp	DWORD PTR [edx+12], 0
	je	SHORT $LN4@ShiftEleme
	cmp	DWORD PTR _num$[ebp], 0
	je	SHORT $LN4@ShiftEleme
	push	448					; 000001c0H
	push	OFFSET ??_C@_1JC@EMNIBBBG@?$AAd?$AA?3?$AA?2?$AA?$CB?$AAd?$AAi?$AAf?$AAf?$AAu?$AAs?$AAi?$AAo?$AAn?$AA?5?$AA2?$AA0?$AA2?$AA0?$AA?2?$AAs?$AAo?$AAu?$AAr?$AAc?$AAe?$AA?5?$AAc?$AAo?$AAd?$AAe?$AA?5?$AA2@
	push	OFFSET ??_C@_1GM@CDMJDFPA@?$AAI?$AAs?$AAV?$AAa?$AAl?$AAi?$AAd?$AAI?$AAn?$AAd?$AAe?$AAx?$AA?$CI?$AAe?$AAl?$AAe?$AAm?$AA?$CJ?$AA?5?$AA?$HM?$AA?$HM?$AA?5?$AA?$CI?$AA?5?$AAm?$AA_?$AAS?$AAi?$AAz?$AAe?$AA?5?$AA?$DN@
	call	__wassert
	add	esp, 12					; 0000000cH
$LN4@ShiftEleme:

; 449  : 	int numToMove = m_Size - elem - num;

	mov	eax, DWORD PTR _this$[ebp]
	mov	ecx, DWORD PTR [eax+12]
	sub	ecx, DWORD PTR _elem$[ebp]
	sub	ecx, DWORD PTR _num$[ebp]
	mov	DWORD PTR _numToMove$[ebp], ecx

; 450  : 	if ((numToMove > 0) && (num > 0))

	cmp	DWORD PTR _numToMove$[ebp], 0
	jle	SHORT $LN1@ShiftEleme
	cmp	DWORD PTR _num$[ebp], 0
	jle	SHORT $LN1@ShiftEleme

; 451  : 		memmove( &Element(elem+num), &Element(elem), numToMove * sizeof(T) );

	imul	eax, DWORD PTR _numToMove$[ebp], 12
	push	eax
	mov	ecx, DWORD PTR _elem$[ebp]
	push	ecx
	mov	ecx, DWORD PTR _this$[ebp]
	call	?Element@?$CUtlArray@VVector@@V?$CUtlMemory@VVector@@H@@@@QAEAAVVector@@H@Z ; CUtlArray<Vector,CUtlMemory<Vector,int> >::Element
	push	eax
	mov	edx, DWORD PTR _elem$[ebp]
	add	edx, DWORD PTR _num$[ebp]
	push	edx
	mov	ecx, DWORD PTR _this$[ebp]
	call	?Element@?$CUtlArray@VVector@@V?$CUtlMemory@VVector@@H@@@@QAEAAVVector@@H@Z ; CUtlArray<Vector,CUtlMemory<Vector,int> >::Element
	push	eax
	call	_memmove
	add	esp, 12					; 0000000cH
$LN1@ShiftEleme:

; 452  : }

	pop	edi
	pop	esi
	pop	ebx
	mov	esp, ebp
	pop	ebp
	ret	8
?ShiftElementsRight@?$CUtlArray@VVector@@V?$CUtlMemory@VVector@@H@@@@IAEXHH@Z ENDP ; CUtlArray<Vector,CUtlMemory<Vector,int> >::ShiftElementsRight
_TEXT	ENDS
; Function compile flags: /Odtp /ZI
; File d:\!diffusion 2020\source code 2022\client-server\game_shared\utlarray.h
;	COMDAT ?GrowVector@?$CUtlArray@VVector@@V?$CUtlMemory@VVector@@H@@@@IAEXH@Z
_TEXT	SEGMENT
_this$ = -4						; size = 4
_num$ = 8						; size = 4
?GrowVector@?$CUtlArray@VVector@@V?$CUtlMemory@VVector@@H@@@@IAEXH@Z PROC ; CUtlArray<Vector,CUtlMemory<Vector,int> >::GrowVector, COMDAT
; _this$ = ecx

; 374  : {

	push	ebp
	mov	ebp, esp
	sub	esp, 68					; 00000044H
	push	ebx
	push	esi
	push	edi
	mov	DWORD PTR _this$[ebp], ecx

; 375  : 	if (m_Size + num > m_Memory.NumAllocated())

	mov	eax, DWORD PTR _this$[ebp]
	mov	esi, DWORD PTR [eax+12]
	add	esi, DWORD PTR _num$[ebp]
	mov	ecx, DWORD PTR _this$[ebp]
	call	?NumAllocated@?$CUtlMemory@VVector@@H@@QBEHXZ ; CUtlMemory<Vector,int>::NumAllocated
	cmp	esi, eax
	jle	SHORT $LN2@GrowVector

; 376  : 	{
; 377  : 		m_Memory.Grow( m_Size + num - m_Memory.NumAllocated() );

	mov	eax, DWORD PTR _this$[ebp]
	mov	esi, DWORD PTR [eax+12]
	add	esi, DWORD PTR _num$[ebp]
	mov	ecx, DWORD PTR _this$[ebp]
	call	?NumAllocated@?$CUtlMemory@VVector@@H@@QBEHXZ ; CUtlMemory<Vector,int>::NumAllocated
	sub	esi, eax
	push	esi
	mov	ecx, DWORD PTR _this$[ebp]
	call	?Grow@?$CUtlMemory@VVector@@H@@QAEXH@Z	; CUtlMemory<Vector,int>::Grow
$LN2@GrowVector:

; 378  : 	}
; 379  : 
; 380  : 	m_Size += num;

	mov	eax, DWORD PTR _this$[ebp]
	mov	ecx, DWORD PTR [eax+12]
	add	ecx, DWORD PTR _num$[ebp]
	mov	edx, DWORD PTR _this$[ebp]
	mov	DWORD PTR [edx+12], ecx

; 381  : 	ResetDbgInfo();

	mov	ecx, DWORD PTR _this$[ebp]
	call	?ResetDbgInfo@?$CUtlArray@VVector@@V?$CUtlMemory@VVector@@H@@@@IAEXXZ ; CUtlArray<Vector,CUtlMemory<Vector,int> >::ResetDbgInfo

; 382  : }

	pop	edi
	pop	esi
	pop	ebx
	mov	esp, ebp
	pop	ebp
	ret	4
?GrowVector@?$CUtlArray@VVector@@V?$CUtlMemory@VVector@@H@@@@IAEXH@Z ENDP ; CUtlArray<Vector,CUtlMemory<Vector,int> >::GrowVector
_TEXT	ENDS
; Function compile flags: /Odtp /ZI
; File d:\!diffusion 2020\source code 2022\client-server\game_shared\utlarray.h
;	COMDAT ?Purge@?$CUtlArray@VVector@@V?$CUtlMemory@VVector@@H@@@@QAEXXZ
_TEXT	SEGMENT
_this$ = -4						; size = 4
?Purge@?$CUtlArray@VVector@@V?$CUtlMemory@VVector@@H@@@@QAEXXZ PROC ; CUtlArray<Vector,CUtlMemory<Vector,int> >::Purge, COMDAT
; _this$ = ecx

; 742  : {

	push	ebp
	mov	ebp, esp
	sub	esp, 68					; 00000044H
	push	ebx
	push	esi
	push	edi
	mov	DWORD PTR _this$[ebp], ecx

; 743  : 	RemoveAll();

	mov	ecx, DWORD PTR _this$[ebp]
	call	?RemoveAll@?$CUtlArray@VVector@@V?$CUtlMemory@VVector@@H@@@@QAEXXZ ; CUtlArray<Vector,CUtlMemory<Vector,int> >::RemoveAll

; 744  : 	m_Memory.Purge();

	mov	ecx, DWORD PTR _this$[ebp]
	call	?Purge@?$CUtlMemory@VVector@@H@@QAEXXZ	; CUtlMemory<Vector,int>::Purge

; 745  : 	ResetDbgInfo();

	mov	ecx, DWORD PTR _this$[ebp]
	call	?ResetDbgInfo@?$CUtlArray@VVector@@V?$CUtlMemory@VVector@@H@@@@IAEXXZ ; CUtlArray<Vector,CUtlMemory<Vector,int> >::ResetDbgInfo

; 746  : }

	pop	edi
	pop	esi
	pop	ebx
	mov	esp, ebp
	pop	ebp
	ret	0
?Purge@?$CUtlArray@VVector@@V?$CUtlMemory@VVector@@H@@@@QAEXXZ ENDP ; CUtlArray<Vector,CUtlMemory<Vector,int> >::Purge
_TEXT	ENDS
; Function compile flags: /Odtp /ZI
; File d:\!diffusion 2020\source code 2022\client-server\game_shared\utlarray.h
;	COMDAT ?RemoveAll@?$CUtlArray@VVector@@V?$CUtlMemory@VVector@@H@@@@QAEXXZ
_TEXT	SEGMENT
_i$1 = -8						; size = 4
_this$ = -4						; size = 4
?RemoveAll@?$CUtlArray@VVector@@V?$CUtlMemory@VVector@@H@@@@QAEXXZ PROC ; CUtlArray<Vector,CUtlMemory<Vector,int> >::RemoveAll, COMDAT
; _this$ = ecx

; 726  : {

	push	ebp
	mov	ebp, esp
	sub	esp, 72					; 00000048H
	push	ebx
	push	esi
	push	edi
	mov	DWORD PTR _this$[ebp], ecx

; 727  : 	for (int i = m_Size; --i >= 0; )

	mov	eax, DWORD PTR _this$[ebp]
	mov	ecx, DWORD PTR [eax+12]
	mov	DWORD PTR _i$1[ebp], ecx
$LN4@RemoveAll:
	mov	eax, DWORD PTR _i$1[ebp]
	sub	eax, 1
	mov	DWORD PTR _i$1[ebp], eax
	js	SHORT $LN3@RemoveAll

; 728  : 	{
; 729  : 		Destruct(&Element(i));

	mov	eax, DWORD PTR _i$1[ebp]
	push	eax
	mov	ecx, DWORD PTR _this$[ebp]
	call	?Element@?$CUtlArray@VVector@@V?$CUtlMemory@VVector@@H@@@@QAEAAVVector@@H@Z ; CUtlArray<Vector,CUtlMemory<Vector,int> >::Element
	push	eax
	call	??$Destruct@VVector@@@@YAXPAVVector@@@Z	; Destruct<Vector>
	add	esp, 4

; 730  : 	}

	jmp	SHORT $LN4@RemoveAll
$LN3@RemoveAll:

; 731  : 
; 732  : 	m_Size = 0;

	mov	eax, DWORD PTR _this$[ebp]
	mov	DWORD PTR [eax+12], 0

; 733  : }

	pop	edi
	pop	esi
	pop	ebx
	mov	esp, ebp
	pop	ebp
	ret	0
?RemoveAll@?$CUtlArray@VVector@@V?$CUtlMemory@VVector@@H@@@@QAEXXZ ENDP ; CUtlArray<Vector,CUtlMemory<Vector,int> >::RemoveAll
_TEXT	ENDS
; Function compile flags: /Odtp /ZI
; File d:\!diffusion 2020\source code 2022\client-server\game_shared\utlarray.h
;	COMDAT ?InsertMultipleBefore@?$CUtlArray@VVector@@V?$CUtlMemory@VVector@@H@@@@QAEHHHPBVVector@@@Z
_TEXT	SEGMENT
_i$1 = -12						; size = 4
_i$2 = -8						; size = 4
_this$ = -4						; size = 4
_elem$ = 8						; size = 4
_num$ = 12						; size = 4
_pToInsert$ = 16					; size = 4
?InsertMultipleBefore@?$CUtlArray@VVector@@V?$CUtlMemory@VVector@@H@@@@QAEHHHPBVVector@@@Z PROC ; CUtlArray<Vector,CUtlMemory<Vector,int> >::InsertMultipleBefore, COMDAT
; _this$ = ecx

; 627  : {

	push	ebp
	mov	ebp, esp
	sub	esp, 76					; 0000004cH
	push	ebx
	push	esi
	push	edi
	mov	DWORD PTR _this$[ebp], ecx

; 628  : 	if( num == 0 )

	cmp	DWORD PTR _num$[ebp], 0
	jne	SHORT $LN8@InsertMult

; 629  : 		return elem;

	mov	eax, DWORD PTR _elem$[ebp]
	jmp	$LN1@InsertMult
$LN8@InsertMult:

; 630  : 	
; 631  : 	// Can insert at the end
; 632  : 	assert( (elem == Count()) || IsValidIndex(elem) );

	mov	ecx, DWORD PTR _this$[ebp]
	call	?Count@?$CUtlArray@VVector@@V?$CUtlMemory@VVector@@H@@@@QBEHXZ ; CUtlArray<Vector,CUtlMemory<Vector,int> >::Count
	cmp	DWORD PTR _elem$[ebp], eax
	je	SHORT $LN11@InsertMult
	mov	eax, DWORD PTR _elem$[ebp]
	push	eax
	mov	ecx, DWORD PTR _this$[ebp]
	call	?IsValidIndex@?$CUtlArray@VVector@@V?$CUtlMemory@VVector@@H@@@@QBE_NH@Z ; CUtlArray<Vector,CUtlMemory<Vector,int> >::IsValidIndex
	movzx	ecx, al
	test	ecx, ecx
	jne	SHORT $LN11@InsertMult
	push	632					; 00000278H
	push	OFFSET ??_C@_1JC@EMNIBBBG@?$AAd?$AA?3?$AA?2?$AA?$CB?$AAd?$AAi?$AAf?$AAf?$AAu?$AAs?$AAi?$AAo?$AAn?$AA?5?$AA2?$AA0?$AA2?$AA0?$AA?2?$AAs?$AAo?$AAu?$AAr?$AAc?$AAe?$AA?5?$AAc?$AAo?$AAd?$AAe?$AA?5?$AA2@
	push	OFFSET ??_C@_1FA@BPFBJKPF@?$AA?$CI?$AAe?$AAl?$AAe?$AAm?$AA?5?$AA?$DN?$AA?$DN?$AA?5?$AAC?$AAo?$AAu?$AAn?$AAt?$AA?$CI?$AA?$CJ?$AA?$CJ?$AA?5?$AA?$HM?$AA?$HM?$AA?5?$AAI?$AAs?$AAV?$AAa?$AAl?$AAi?$AAd?$AAI?$AAn?$AAd?$AAe@
	call	__wassert
	add	esp, 12					; 0000000cH
$LN11@InsertMult:

; 633  : 
; 634  : 	GrowVector(num);

	mov	eax, DWORD PTR _num$[ebp]
	push	eax
	mov	ecx, DWORD PTR _this$[ebp]
	call	?GrowVector@?$CUtlArray@VVector@@V?$CUtlMemory@VVector@@H@@@@IAEXH@Z ; CUtlArray<Vector,CUtlMemory<Vector,int> >::GrowVector

; 635  : 	ShiftElementsRight(elem, num);

	mov	eax, DWORD PTR _num$[ebp]
	push	eax
	mov	ecx, DWORD PTR _elem$[ebp]
	push	ecx
	mov	ecx, DWORD PTR _this$[ebp]
	call	?ShiftElementsRight@?$CUtlArray@VVector@@V?$CUtlMemory@VVector@@H@@@@IAEXHH@Z ; CUtlArray<Vector,CUtlMemory<Vector,int> >::ShiftElementsRight

; 636  : 
; 637  : 	// Invoke default constructors
; 638  : 	for (int i = 0; i < num; ++i)

	mov	DWORD PTR _i$2[ebp], 0
	jmp	SHORT $LN4@InsertMult
$LN2@InsertMult:
	mov	eax, DWORD PTR _i$2[ebp]
	add	eax, 1
	mov	DWORD PTR _i$2[ebp], eax
$LN4@InsertMult:
	mov	eax, DWORD PTR _i$2[ebp]
	cmp	eax, DWORD PTR _num$[ebp]
	jge	SHORT $LN3@InsertMult

; 639  : 		Construct( &Element(elem+i) );

	mov	eax, DWORD PTR _elem$[ebp]
	add	eax, DWORD PTR _i$2[ebp]
	push	eax
	mov	ecx, DWORD PTR _this$[ebp]
	call	?Element@?$CUtlArray@VVector@@V?$CUtlMemory@VVector@@H@@@@QAEAAVVector@@H@Z ; CUtlArray<Vector,CUtlMemory<Vector,int> >::Element
	push	eax
	call	??$Construct@VVector@@@@YAXPAVVector@@@Z ; Construct<Vector>
	add	esp, 4
	jmp	SHORT $LN2@InsertMult
$LN3@InsertMult:

; 640  : 
; 641  : 	// Copy stuff in?
; 642  : 	if ( pToInsert )

	cmp	DWORD PTR _pToInsert$[ebp], 0
	je	SHORT $LN9@InsertMult

; 643  : 	{
; 644  : 		for ( int i=0; i < num; i++ )

	mov	DWORD PTR _i$1[ebp], 0
	jmp	SHORT $LN7@InsertMult
$LN5@InsertMult:
	mov	eax, DWORD PTR _i$1[ebp]
	add	eax, 1
	mov	DWORD PTR _i$1[ebp], eax
$LN7@InsertMult:
	mov	eax, DWORD PTR _i$1[ebp]
	cmp	eax, DWORD PTR _num$[ebp]
	jge	SHORT $LN9@InsertMult

; 645  : 		{
; 646  : 			Element( elem+i ) = pToInsert[i];

	imul	esi, DWORD PTR _i$1[ebp], 12
	add	esi, DWORD PTR _pToInsert$[ebp]
	mov	eax, DWORD PTR _elem$[ebp]
	add	eax, DWORD PTR _i$1[ebp]
	push	eax
	mov	ecx, DWORD PTR _this$[ebp]
	call	?Element@?$CUtlArray@VVector@@V?$CUtlMemory@VVector@@H@@@@QAEAAVVector@@H@Z ; CUtlArray<Vector,CUtlMemory<Vector,int> >::Element
	mov	ecx, DWORD PTR [esi]
	mov	DWORD PTR [eax], ecx
	mov	edx, DWORD PTR [esi+4]
	mov	DWORD PTR [eax+4], edx
	mov	ecx, DWORD PTR [esi+8]
	mov	DWORD PTR [eax+8], ecx

; 647  : 		}

	jmp	SHORT $LN5@InsertMult
$LN9@InsertMult:

; 648  : 	}
; 649  : 
; 650  : 	return elem;

	mov	eax, DWORD PTR _elem$[ebp]
$LN1@InsertMult:

; 651  : }

	pop	edi
	pop	esi
	pop	ebx
	mov	esp, ebp
	pop	ebp
	ret	12					; 0000000cH
?InsertMultipleBefore@?$CUtlArray@VVector@@V?$CUtlMemory@VVector@@H@@@@QAEHHHPBVVector@@@Z ENDP ; CUtlArray<Vector,CUtlMemory<Vector,int> >::InsertMultipleBefore
_TEXT	ENDS
; Function compile flags: /Odtp /ZI
; File d:\!diffusion 2020\source code 2022\client-server\game_shared\utlarray.h
;	COMDAT ?AddMultipleToTail@?$CUtlArray@VVector@@V?$CUtlMemory@VVector@@H@@@@QAEHHPBVVector@@@Z
_TEXT	SEGMENT
_this$ = -4						; size = 4
_num$ = 8						; size = 4
_pToCopy$ = 12						; size = 4
?AddMultipleToTail@?$CUtlArray@VVector@@V?$CUtlMemory@VVector@@H@@@@QAEHHPBVVector@@@Z PROC ; CUtlArray<Vector,CUtlMemory<Vector,int> >::AddMultipleToTail, COMDAT
; _this$ = ecx

; 558  : {

	push	ebp
	mov	ebp, esp
	sub	esp, 68					; 00000044H
	push	ebx
	push	esi
	push	edi
	mov	DWORD PTR _this$[ebp], ecx

; 559  : 	// Can't insert something that's in the list... reallocation may hose us
; 560  : 	assert( (Base() == NULL) || !pToCopy || (pToCopy + num < Base()) || (pToCopy >= (Base() + Count()) ) ); 

	mov	ecx, DWORD PTR _this$[ebp]
	call	?Base@?$CUtlArray@VVector@@V?$CUtlMemory@VVector@@H@@@@QAEPAVVector@@XZ ; CUtlArray<Vector,CUtlMemory<Vector,int> >::Base
	test	eax, eax
	je	SHORT $LN3@AddMultipl
	cmp	DWORD PTR _pToCopy$[ebp], 0
	je	SHORT $LN3@AddMultipl
	imul	esi, DWORD PTR _num$[ebp], 12
	add	esi, DWORD PTR _pToCopy$[ebp]
	mov	ecx, DWORD PTR _this$[ebp]
	call	?Base@?$CUtlArray@VVector@@V?$CUtlMemory@VVector@@H@@@@QAEPAVVector@@XZ ; CUtlArray<Vector,CUtlMemory<Vector,int> >::Base
	cmp	esi, eax
	jb	SHORT $LN3@AddMultipl
	mov	ecx, DWORD PTR _this$[ebp]
	call	?Base@?$CUtlArray@VVector@@V?$CUtlMemory@VVector@@H@@@@QAEPAVVector@@XZ ; CUtlArray<Vector,CUtlMemory<Vector,int> >::Base
	mov	esi, eax
	mov	ecx, DWORD PTR _this$[ebp]
	call	?Count@?$CUtlArray@VVector@@V?$CUtlMemory@VVector@@H@@@@QBEHXZ ; CUtlArray<Vector,CUtlMemory<Vector,int> >::Count
	imul	eax, eax, 12
	add	esi, eax
	cmp	DWORD PTR _pToCopy$[ebp], esi
	jae	SHORT $LN3@AddMultipl
	push	560					; 00000230H
	push	OFFSET ??_C@_1JC@EMNIBBBG@?$AAd?$AA?3?$AA?2?$AA?$CB?$AAd?$AAi?$AAf?$AAf?$AAu?$AAs?$AAi?$AAo?$AAn?$AA?5?$AA2?$AA0?$AA2?$AA0?$AA?2?$AAs?$AAo?$AAu?$AAr?$AAc?$AAe?$AA?5?$AAc?$AAo?$AAd?$AAe?$AA?5?$AA2@
	push	OFFSET ??_C@_1LK@CNNNCGDG@?$AA?$CI?$AAB?$AAa?$AAs?$AAe?$AA?$CI?$AA?$CJ?$AA?5?$AA?$DN?$AA?$DN?$AA?5?$AAN?$AAU?$AAL?$AAL?$AA?$CJ?$AA?5?$AA?$HM?$AA?$HM?$AA?5?$AA?$CB?$AAp?$AAT?$AAo?$AAC?$AAo?$AAp?$AAy?$AA?5?$AA?$HM?$AA?$HM?$AA?5@
	call	__wassert
	add	esp, 12					; 0000000cH
$LN3@AddMultipl:

; 561  : 
; 562  : 	return InsertMultipleBefore( m_Size, num, pToCopy );

	mov	eax, DWORD PTR _pToCopy$[ebp]
	push	eax
	mov	ecx, DWORD PTR _num$[ebp]
	push	ecx
	mov	edx, DWORD PTR _this$[ebp]
	mov	eax, DWORD PTR [edx+12]
	push	eax
	mov	ecx, DWORD PTR _this$[ebp]
	call	?InsertMultipleBefore@?$CUtlArray@VVector@@V?$CUtlMemory@VVector@@H@@@@QAEHHHPBVVector@@@Z ; CUtlArray<Vector,CUtlMemory<Vector,int> >::InsertMultipleBefore

; 563  : }

	pop	edi
	pop	esi
	pop	ebx
	mov	esp, ebp
	pop	ebp
	ret	8
?AddMultipleToTail@?$CUtlArray@VVector@@V?$CUtlMemory@VVector@@H@@@@QAEHHPBVVector@@@Z ENDP ; CUtlArray<Vector,CUtlMemory<Vector,int> >::AddMultipleToTail
_TEXT	ENDS
; Function compile flags: /Odtp /ZI
; File d:\!diffusion 2020\source code 2022\client-server\game_shared\utlarray.h
;	COMDAT ?IsValidIndex@?$CUtlArray@VVector@@V?$CUtlMemory@VVector@@H@@@@QBE_NH@Z
_TEXT	SEGMENT
tv67 = -72						; size = 4
_this$ = -4						; size = 4
_i$ = 8							; size = 4
?IsValidIndex@?$CUtlArray@VVector@@V?$CUtlMemory@VVector@@H@@@@QBE_NH@Z PROC ; CUtlArray<Vector,CUtlMemory<Vector,int> >::IsValidIndex, COMDAT
; _this$ = ecx

; 354  : {

	push	ebp
	mov	ebp, esp
	sub	esp, 72					; 00000048H
	push	ebx
	push	esi
	push	edi
	mov	DWORD PTR _this$[ebp], ecx

; 355  : 	return (i >= 0) && (i < m_Size);

	cmp	DWORD PTR _i$[ebp], 0
	jl	SHORT $LN3@IsValidInd
	mov	eax, DWORD PTR _this$[ebp]
	mov	ecx, DWORD PTR _i$[ebp]
	cmp	ecx, DWORD PTR [eax+12]
	jge	SHORT $LN3@IsValidInd
	mov	DWORD PTR tv67[ebp], 1
	jmp	SHORT $LN4@IsValidInd
$LN3@IsValidInd:
	mov	DWORD PTR tv67[ebp], 0
$LN4@IsValidInd:
	mov	al, BYTE PTR tv67[ebp]

; 356  : }

	pop	edi
	pop	esi
	pop	ebx
	mov	esp, ebp
	pop	ebp
	ret	4
?IsValidIndex@?$CUtlArray@VVector@@V?$CUtlMemory@VVector@@H@@@@QBE_NH@Z ENDP ; CUtlArray<Vector,CUtlMemory<Vector,int> >::IsValidIndex
_TEXT	ENDS
; Function compile flags: /Odtp /ZI
; File d:\!diffusion 2020\source code 2022\client-server\game_shared\utlarray.h
;	COMDAT ?Count@?$CUtlArray@VVector@@V?$CUtlMemory@VVector@@H@@@@QBEHXZ
_TEXT	SEGMENT
_this$ = -4						; size = 4
?Count@?$CUtlArray@VVector@@V?$CUtlMemory@VVector@@H@@@@QBEHXZ PROC ; CUtlArray<Vector,CUtlMemory<Vector,int> >::Count, COMDAT
; _this$ = ecx

; 344  : {

	push	ebp
	mov	ebp, esp
	sub	esp, 68					; 00000044H
	push	ebx
	push	esi
	push	edi
	mov	DWORD PTR _this$[ebp], ecx

; 345  : 	return m_Size;

	mov	eax, DWORD PTR _this$[ebp]
	mov	eax, DWORD PTR [eax+12]

; 346  : }

	pop	edi
	pop	esi
	pop	ebx
	mov	esp, ebp
	pop	ebp
	ret	0
?Count@?$CUtlArray@VVector@@V?$CUtlMemory@VVector@@H@@@@QBEHXZ ENDP ; CUtlArray<Vector,CUtlMemory<Vector,int> >::Count
_TEXT	ENDS
; Function compile flags: /Odtp /ZI
; File d:\!diffusion 2020\source code 2022\client-server\game_shared\utlarray.h
;	COMDAT ?Base@?$CUtlArray@VVector@@V?$CUtlMemory@VVector@@H@@@@QAEPAVVector@@XZ
_TEXT	SEGMENT
_this$ = -4						; size = 4
?Base@?$CUtlArray@VVector@@V?$CUtlMemory@VVector@@H@@@@QAEPAVVector@@XZ PROC ; CUtlArray<Vector,CUtlMemory<Vector,int> >::Base, COMDAT
; _this$ = ecx

; 60   : 	T* Base()								{ return m_Memory.Base(); }

	push	ebp
	mov	ebp, esp
	sub	esp, 68					; 00000044H
	push	ebx
	push	esi
	push	edi
	mov	DWORD PTR _this$[ebp], ecx
	mov	ecx, DWORD PTR _this$[ebp]
	call	?Base@?$CUtlMemory@VVector@@H@@QAEPAVVector@@XZ ; CUtlMemory<Vector,int>::Base
	pop	edi
	pop	esi
	pop	ebx
	mov	esp, ebp
	pop	ebp
	ret	0
?Base@?$CUtlArray@VVector@@V?$CUtlMemory@VVector@@H@@@@QAEPAVVector@@XZ ENDP ; CUtlArray<Vector,CUtlMemory<Vector,int> >::Base
_TEXT	ENDS
; Function compile flags: /Odtp /ZI
; File d:\!diffusion 2020\source code 2022\client-server\game_shared\utlarray.h
;	COMDAT ?Element@?$CUtlArray@VVector@@V?$CUtlMemory@VVector@@H@@@@QAEAAVVector@@H@Z
_TEXT	SEGMENT
_this$ = -4						; size = 4
_i$ = 8							; size = 4
?Element@?$CUtlArray@VVector@@V?$CUtlMemory@VVector@@H@@@@QAEAAVVector@@H@Z PROC ; CUtlArray<Vector,CUtlMemory<Vector,int> >::Element, COMDAT
; _this$ = ecx

; 294  : {

	push	ebp
	mov	ebp, esp
	sub	esp, 68					; 00000044H
	push	ebx
	push	esi
	push	edi
	mov	DWORD PTR _this$[ebp], ecx

; 295  : 	return m_Memory[ i ];

	mov	eax, DWORD PTR _i$[ebp]
	push	eax
	mov	ecx, DWORD PTR _this$[ebp]
	call	??A?$CUtlMemory@VVector@@H@@QAEAAVVector@@H@Z ; CUtlMemory<Vector,int>::operator[]

; 296  : }

	pop	edi
	pop	esi
	pop	ebx
	mov	esp, ebp
	pop	ebp
	ret	4
?Element@?$CUtlArray@VVector@@V?$CUtlMemory@VVector@@H@@@@QAEAAVVector@@H@Z ENDP ; CUtlArray<Vector,CUtlMemory<Vector,int> >::Element
_TEXT	ENDS
; Function compile flags: /Odtp /ZI
; File d:\!diffusion 2020\source code 2022\client-server\game_shared\utlarray.h
;	COMDAT ??A?$CUtlArray@VVector@@V?$CUtlMemory@VVector@@H@@@@QAEAAVVector@@H@Z
_TEXT	SEGMENT
_this$ = -4						; size = 4
_i$ = 8							; size = 4
??A?$CUtlArray@VVector@@V?$CUtlMemory@VVector@@H@@@@QAEAAVVector@@H@Z PROC ; CUtlArray<Vector,CUtlMemory<Vector,int> >::operator[], COMDAT
; _this$ = ecx

; 282  : {

	push	ebp
	mov	ebp, esp
	sub	esp, 68					; 00000044H
	push	ebx
	push	esi
	push	edi
	mov	DWORD PTR _this$[ebp], ecx

; 283  : 	return m_Memory[ i ];

	mov	eax, DWORD PTR _i$[ebp]
	push	eax
	mov	ecx, DWORD PTR _this$[ebp]
	call	??A?$CUtlMemory@VVector@@H@@QAEAAVVector@@H@Z ; CUtlMemory<Vector,int>::operator[]

; 284  : }

	pop	edi
	pop	esi
	pop	ebx
	mov	esp, ebp
	pop	ebp
	ret	4
??A?$CUtlArray@VVector@@V?$CUtlMemory@VVector@@H@@@@QAEAAVVector@@H@Z ENDP ; CUtlArray<Vector,CUtlMemory<Vector,int> >::operator[]
_TEXT	ENDS
; Function compile flags: /Odtp /ZI
; File d:\!diffusion 2020\source code 2022\client-server\game_shared\utlarray.h
;	COMDAT ??1?$CUtlArray@VVector@@V?$CUtlMemory@VVector@@H@@@@QAE@XZ
_TEXT	SEGMENT
_this$ = -16						; size = 4
__$EHRec$ = -12						; size = 12
??1?$CUtlArray@VVector@@V?$CUtlMemory@VVector@@H@@@@QAE@XZ PROC ; CUtlArray<Vector,CUtlMemory<Vector,int> >::~CUtlArray<Vector,CUtlMemory<Vector,int> >, COMDAT
; _this$ = ecx

; 260  : {

	push	ebp
	mov	ebp, esp
	push	-1
	push	__ehhandler$??1?$CUtlArray@VVector@@V?$CUtlMemory@VVector@@H@@@@QAE@XZ
	mov	eax, DWORD PTR fs:0
	push	eax
	sub	esp, 68					; 00000044H
	push	ebx
	push	esi
	push	edi
	mov	eax, DWORD PTR ___security_cookie
	xor	eax, ebp
	push	eax
	lea	eax, DWORD PTR __$EHRec$[ebp]
	mov	DWORD PTR fs:0, eax
	mov	DWORD PTR _this$[ebp], ecx

; 261  : 	Purge();

	mov	ecx, DWORD PTR _this$[ebp]
	call	?Purge@?$CUtlArray@VVector@@V?$CUtlMemory@VVector@@H@@@@QAEXXZ ; CUtlArray<Vector,CUtlMemory<Vector,int> >::Purge

; 262  : }

	mov	ecx, DWORD PTR _this$[ebp]
	call	??1?$CUtlMemory@VVector@@H@@QAE@XZ	; CUtlMemory<Vector,int>::~CUtlMemory<Vector,int>
	mov	ecx, DWORD PTR __$EHRec$[ebp]
	mov	DWORD PTR fs:0, ecx
	pop	ecx
	pop	edi
	pop	esi
	pop	ebx
	mov	esp, ebp
	pop	ebp
	ret	0
_TEXT	ENDS
;	COMDAT text$x
text$x	SEGMENT
__ehhandler$??1?$CUtlArray@VVector@@V?$CUtlMemory@VVector@@H@@@@QAE@XZ:
	mov	edx, DWORD PTR [esp+8]
	lea	eax, DWORD PTR [edx+12]
	mov	ecx, DWORD PTR [edx-84]
	xor	ecx, eax
	call	@__security_check_cookie@4
	mov	eax, OFFSET __ehfuncinfo$??1?$CUtlArray@VVector@@V?$CUtlMemory@VVector@@H@@@@QAE@XZ
	jmp	___CxxFrameHandler3
text$x	ENDS
??1?$CUtlArray@VVector@@V?$CUtlMemory@VVector@@H@@@@QAE@XZ ENDP ; CUtlArray<Vector,CUtlMemory<Vector,int> >::~CUtlArray<Vector,CUtlMemory<Vector,int> >
; Function compile flags: /Odtp /ZI
; File d:\!diffusion 2020\source code 2022\client-server\game_shared\utlarray.h
;	COMDAT ??0?$CUtlArray@VVector@@V?$CUtlMemory@VVector@@H@@@@QAE@HH@Z
_TEXT	SEGMENT
_this$ = -16						; size = 4
__$EHRec$ = -12						; size = 12
_growSize$ = 8						; size = 4
_initSize$ = 12						; size = 4
??0?$CUtlArray@VVector@@V?$CUtlMemory@VVector@@H@@@@QAE@HH@Z PROC ; CUtlArray<Vector,CUtlMemory<Vector,int> >::CUtlArray<Vector,CUtlMemory<Vector,int> >, COMDAT
; _this$ = ecx

; 247  : {

	push	ebp
	mov	ebp, esp
	push	-1
	push	__ehhandler$??0?$CUtlArray@VVector@@V?$CUtlMemory@VVector@@H@@@@QAE@HH@Z
	mov	eax, DWORD PTR fs:0
	push	eax
	sub	esp, 68					; 00000044H
	push	ebx
	push	esi
	push	edi
	mov	eax, DWORD PTR ___security_cookie
	xor	eax, ebp
	push	eax
	lea	eax, DWORD PTR __$EHRec$[ebp]
	mov	DWORD PTR fs:0, eax
	mov	DWORD PTR _this$[ebp], ecx

; 246  : 	m_Memory(growSize, initSize), m_Size(0)

	mov	eax, DWORD PTR _initSize$[ebp]
	push	eax
	mov	ecx, DWORD PTR _growSize$[ebp]
	push	ecx
	mov	ecx, DWORD PTR _this$[ebp]
	call	??0?$CUtlMemory@VVector@@H@@QAE@HH@Z	; CUtlMemory<Vector,int>::CUtlMemory<Vector,int>
	mov	DWORD PTR __$EHRec$[ebp+8], 0
	mov	eax, DWORD PTR _this$[ebp]
	mov	DWORD PTR [eax+12], 0

; 248  : 	ResetDbgInfo();

	mov	ecx, DWORD PTR _this$[ebp]
	call	?ResetDbgInfo@?$CUtlArray@VVector@@V?$CUtlMemory@VVector@@H@@@@IAEXXZ ; CUtlArray<Vector,CUtlMemory<Vector,int> >::ResetDbgInfo

; 249  : }

	mov	DWORD PTR __$EHRec$[ebp+8], -1
	mov	eax, DWORD PTR _this$[ebp]
	mov	ecx, DWORD PTR __$EHRec$[ebp]
	mov	DWORD PTR fs:0, ecx
	pop	ecx
	pop	edi
	pop	esi
	pop	ebx
	mov	esp, ebp
	pop	ebp
	ret	8
_TEXT	ENDS
;	COMDAT text$x
text$x	SEGMENT
__unwindfunclet$??0?$CUtlArray@VVector@@V?$CUtlMemory@VVector@@H@@@@QAE@HH@Z$0:
	mov	ecx, DWORD PTR _this$[ebp]
	jmp	??1?$CUtlMemory@VVector@@H@@QAE@XZ	; CUtlMemory<Vector,int>::~CUtlMemory<Vector,int>
__ehhandler$??0?$CUtlArray@VVector@@V?$CUtlMemory@VVector@@H@@@@QAE@HH@Z:
	mov	edx, DWORD PTR [esp+8]
	lea	eax, DWORD PTR [edx+12]
	mov	ecx, DWORD PTR [edx-84]
	xor	ecx, eax
	call	@__security_check_cookie@4
	mov	eax, OFFSET __ehfuncinfo$??0?$CUtlArray@VVector@@V?$CUtlMemory@VVector@@H@@@@QAE@HH@Z
	jmp	___CxxFrameHandler3
text$x	ENDS
??0?$CUtlArray@VVector@@V?$CUtlMemory@VVector@@H@@@@QAE@HH@Z ENDP ; CUtlArray<Vector,CUtlMemory<Vector,int> >::CUtlArray<Vector,CUtlMemory<Vector,int> >
; Function compile flags: /Odtp /ZI
;	COMDAT ??_G?$CUtlArray@HV?$CUtlMemory@HH@@@@QAEPAXI@Z
_TEXT	SEGMENT
_this$ = -4						; size = 4
___flags$ = 8						; size = 4
??_G?$CUtlArray@HV?$CUtlMemory@HH@@@@QAEPAXI@Z PROC	; CUtlArray<int,CUtlMemory<int,int> >::`scalar deleting destructor', COMDAT
; _this$ = ecx
	push	ebp
	mov	ebp, esp
	sub	esp, 68					; 00000044H
	push	ebx
	push	esi
	push	edi
	mov	DWORD PTR _this$[ebp], ecx
	mov	ecx, DWORD PTR _this$[ebp]
	call	??1?$CUtlArray@HV?$CUtlMemory@HH@@@@QAE@XZ ; CUtlArray<int,CUtlMemory<int,int> >::~CUtlArray<int,CUtlMemory<int,int> >
	mov	eax, DWORD PTR ___flags$[ebp]
	and	eax, 1
	je	SHORT $LN2@scalar
	push	20					; 00000014H
	mov	eax, DWORD PTR _this$[ebp]
	push	eax
	call	??3@YAXPAXI@Z				; operator delete
	add	esp, 8
$LN2@scalar:
	mov	eax, DWORD PTR _this$[ebp]
	pop	edi
	pop	esi
	pop	ebx
	mov	esp, ebp
	pop	ebp
	ret	4
??_G?$CUtlArray@HV?$CUtlMemory@HH@@@@QAEPAXI@Z ENDP	; CUtlArray<int,CUtlMemory<int,int> >::`scalar deleting destructor'
_TEXT	ENDS
; Function compile flags: /Odtp /ZI
; File d:\!diffusion 2020\source code 2022\client-server\game_shared\utlarray.h
;	COMDAT ?ResetDbgInfo@?$CUtlArray@HV?$CUtlMemory@HH@@@@IAEXXZ
_TEXT	SEGMENT
_this$ = -4						; size = 4
?ResetDbgInfo@?$CUtlArray@HV?$CUtlMemory@HH@@@@IAEXXZ PROC ; CUtlArray<int,CUtlMemory<int,int> >::ResetDbgInfo, COMDAT
; _this$ = ecx

; 160  : 	{

	push	ebp
	mov	ebp, esp
	sub	esp, 68					; 00000044H
	push	ebx
	push	esi
	push	edi
	mov	DWORD PTR _this$[ebp], ecx

; 161  : 		m_pElements = Base();

	mov	ecx, DWORD PTR _this$[ebp]
	call	?Base@?$CUtlArray@HV?$CUtlMemory@HH@@@@QAEPAHXZ ; CUtlArray<int,CUtlMemory<int,int> >::Base
	mov	ecx, DWORD PTR _this$[ebp]
	mov	DWORD PTR [ecx+16], eax

; 162  : 	}

	pop	edi
	pop	esi
	pop	ebx
	mov	esp, ebp
	pop	ebp
	ret	0
?ResetDbgInfo@?$CUtlArray@HV?$CUtlMemory@HH@@@@IAEXXZ ENDP ; CUtlArray<int,CUtlMemory<int,int> >::ResetDbgInfo
_TEXT	ENDS
; Function compile flags: /Odtp /ZI
; File d:\!diffusion 2020\source code 2022\client-server\game_shared\utlmemory.h
;	COMDAT ?ValidateGrowSize@?$CUtlMemory@HH@@IAEXXZ
_TEXT	SEGMENT
_this$ = -4						; size = 4
?ValidateGrowSize@?$CUtlMemory@HH@@IAEXXZ PROC		; CUtlMemory<int,int>::ValidateGrowSize, COMDAT
; _this$ = ecx

; 148  : 	{

	push	ebp
	mov	ebp, esp
	sub	esp, 68					; 00000044H
	push	ebx
	push	esi
	push	edi
	mov	DWORD PTR _this$[ebp], ecx

; 149  : #ifdef _X360
; 150  : 		if ( m_nGrowSize && m_nGrowSize != EXTERNAL_BUFFER_MARKER )
; 151  : 		{
; 152  : 			// Max grow size at 128 bytes on XBOX
; 153  : 			const int MAX_GROW = 128;
; 154  : 			if ( m_nGrowSize * sizeof(T) > MAX_GROW )
; 155  : 			{
; 156  : 				m_nGrowSize = max( 1, MAX_GROW / sizeof(T) );
; 157  : 			}
; 158  : 		}
; 159  : #endif
; 160  : 	}

	pop	edi
	pop	esi
	pop	ebx
	mov	esp, ebp
	pop	ebp
	ret	0
?ValidateGrowSize@?$CUtlMemory@HH@@IAEXXZ ENDP		; CUtlMemory<int,int>::ValidateGrowSize
_TEXT	ENDS
; Function compile flags: /Odtp /ZI
; File d:\!diffusion 2020\source code 2022\client-server\game_shared\utlmemory.h
;	COMDAT ?IsReadOnly@?$CUtlMemory@HH@@QBE_NXZ
_TEXT	SEGMENT
tv66 = -72						; size = 4
_this$ = -4						; size = 4
?IsReadOnly@?$CUtlMemory@HH@@QBE_NXZ PROC		; CUtlMemory<int,int>::IsReadOnly, COMDAT
; _this$ = ecx

; 467  : {

	push	ebp
	mov	ebp, esp
	sub	esp, 72					; 00000048H
	push	ebx
	push	esi
	push	edi
	mov	DWORD PTR _this$[ebp], ecx

; 468  : 	return (m_nGrowSize == EXTERNAL_CONST_BUFFER_MARKER);

	mov	eax, DWORD PTR _this$[ebp]
	cmp	DWORD PTR [eax+8], -2			; fffffffeH
	jne	SHORT $LN3@IsReadOnly
	mov	DWORD PTR tv66[ebp], 1
	jmp	SHORT $LN4@IsReadOnly
$LN3@IsReadOnly:
	mov	DWORD PTR tv66[ebp], 0
$LN4@IsReadOnly:
	mov	al, BYTE PTR tv66[ebp]

; 469  : }

	pop	edi
	pop	esi
	pop	ebx
	mov	esp, ebp
	pop	ebp
	ret	0
?IsReadOnly@?$CUtlMemory@HH@@QBE_NXZ ENDP		; CUtlMemory<int,int>::IsReadOnly
_TEXT	ENDS
; Function compile flags: /Odtp /ZI
; File d:\!diffusion 2020\source code 2022\client-server\game_shared\utlmemory.h
;	COMDAT ?IsExternallyAllocated@?$CUtlMemory@HH@@QBE_NXZ
_TEXT	SEGMENT
tv66 = -72						; size = 4
_this$ = -4						; size = 4
?IsExternallyAllocated@?$CUtlMemory@HH@@QBE_NXZ PROC	; CUtlMemory<int,int>::IsExternallyAllocated, COMDAT
; _this$ = ecx

; 457  : {

	push	ebp
	mov	ebp, esp
	sub	esp, 72					; 00000048H
	push	ebx
	push	esi
	push	edi
	mov	DWORD PTR _this$[ebp], ecx

; 458  : 	return (m_nGrowSize < 0);

	mov	eax, DWORD PTR _this$[ebp]
	cmp	DWORD PTR [eax+8], 0
	jge	SHORT $LN3@IsExternal
	mov	DWORD PTR tv66[ebp], 1
	jmp	SHORT $LN4@IsExternal
$LN3@IsExternal:
	mov	DWORD PTR tv66[ebp], 0
$LN4@IsExternal:
	mov	al, BYTE PTR tv66[ebp]

; 459  : }

	pop	edi
	pop	esi
	pop	ebx
	mov	esp, ebp
	pop	ebp
	ret	0
?IsExternallyAllocated@?$CUtlMemory@HH@@QBE_NXZ ENDP	; CUtlMemory<int,int>::IsExternallyAllocated
_TEXT	ENDS
; Function compile flags: /Odtp /ZI
; File d:\!diffusion 2020\source code 2022\client-server\game_shared\utlmemory.h
;	COMDAT ?Purge@?$CUtlMemory@HH@@QAEXXZ
_TEXT	SEGMENT
_this$ = -4						; size = 4
?Purge@?$CUtlMemory@HH@@QAEXXZ PROC			; CUtlMemory<int,int>::Purge, COMDAT
; _this$ = ecx

; 645  : {

	push	ebp
	mov	ebp, esp
	sub	esp, 68					; 00000044H
	push	ebx
	push	esi
	push	edi
	mov	DWORD PTR _this$[ebp], ecx

; 646  : 	if ( !IsExternallyAllocated() )

	mov	ecx, DWORD PTR _this$[ebp]
	call	?IsExternallyAllocated@?$CUtlMemory@HH@@QBE_NXZ ; CUtlMemory<int,int>::IsExternallyAllocated
	movzx	eax, al
	test	eax, eax
	jne	SHORT $LN1@Purge

; 647  : 	{
; 648  : 		if (m_pMemory)

	mov	eax, DWORD PTR _this$[ebp]
	cmp	DWORD PTR [eax], 0
	je	SHORT $LN3@Purge

; 649  : 		{
; 650  : 			free( (void*)m_pMemory );

	mov	eax, DWORD PTR _this$[ebp]
	mov	ecx, DWORD PTR [eax]
	push	ecx
	call	_free
	add	esp, 4

; 651  : 			m_pMemory = 0;

	mov	eax, DWORD PTR _this$[ebp]
	mov	DWORD PTR [eax], 0
$LN3@Purge:

; 652  : 		}
; 653  : 		m_nAllocationCount = 0;

	mov	eax, DWORD PTR _this$[ebp]
	mov	DWORD PTR [eax+4], 0
$LN1@Purge:

; 654  : 	}
; 655  : }

	pop	edi
	pop	esi
	pop	ebx
	mov	esp, ebp
	pop	ebp
	ret	0
?Purge@?$CUtlMemory@HH@@QAEXXZ ENDP			; CUtlMemory<int,int>::Purge
_TEXT	ENDS
; Function compile flags: /Odtp /ZI
; File d:\!diffusion 2020\source code 2022\client-server\game_shared\utlmemory.h
;	COMDAT ?Grow@?$CUtlMemory@HH@@QAEXH@Z
_TEXT	SEGMENT
_nAllocationRequested$ = -8				; size = 4
_this$ = -4						; size = 4
_num$ = 8						; size = 4
?Grow@?$CUtlMemory@HH@@QAEXH@Z PROC			; CUtlMemory<int,int>::Grow, COMDAT
; _this$ = ecx

; 560  : {

	push	ebp
	mov	ebp, esp
	sub	esp, 72					; 00000048H
	push	ebx
	push	esi
	push	edi
	mov	DWORD PTR _this$[ebp], ecx

; 561  : 	assert( num > 0 );

	cmp	DWORD PTR _num$[ebp], 0
	jg	SHORT $LN12@Grow
	push	561					; 00000231H
	push	OFFSET ??_C@_1JE@CIIIAKCN@?$AAd?$AA?3?$AA?2?$AA?$CB?$AAd?$AAi?$AAf?$AAf?$AAu?$AAs?$AAi?$AAo?$AAn?$AA?5?$AA2?$AA0?$AA2?$AA0?$AA?2?$AAs?$AAo?$AAu?$AAr?$AAc?$AAe?$AA?5?$AAc?$AAo?$AAd?$AAe?$AA?5?$AA2@
	push	OFFSET ??_C@_1BA@PKCLMAEA@?$AAn?$AAu?$AAm?$AA?5?$AA?$DO?$AA?5?$AA0?$AA?$AA@
	call	__wassert
	add	esp, 12					; 0000000cH
$LN12@Grow:

; 562  : 
; 563  : 	if ( IsExternallyAllocated() )

	mov	ecx, DWORD PTR _this$[ebp]
	call	?IsExternallyAllocated@?$CUtlMemory@HH@@QBE_NXZ ; CUtlMemory<int,int>::IsExternallyAllocated
	movzx	eax, al
	test	eax, eax
	je	SHORT $LN4@Grow

; 564  : 	{
; 565  : 		// Can't grow a buffer whose memory was externally allocated 
; 566  : 		assert(0);

	xor	eax, eax
	jne	SHORT $LN13@Grow
	push	566					; 00000236H
	push	OFFSET ??_C@_1JE@CIIIAKCN@?$AAd?$AA?3?$AA?2?$AA?$CB?$AAd?$AAi?$AAf?$AAf?$AAu?$AAs?$AAi?$AAo?$AAn?$AA?5?$AA2?$AA0?$AA2?$AA0?$AA?2?$AAs?$AAo?$AAu?$AAr?$AAc?$AAe?$AA?5?$AAc?$AAo?$AAd?$AAe?$AA?5?$AA2@
	push	OFFSET ??_C@_13COJANIEC@?$AA0?$AA?$AA@
	call	__wassert
	add	esp, 12					; 0000000cH
$LN13@Grow:

; 567  : 		return;

	jmp	$LN1@Grow
$LN4@Grow:

; 568  : 	}
; 569  : 
; 570  : 	// Make sure we have at least numallocated + num allocations.
; 571  : 	// Use the grow rules specified for this memory (in m_nGrowSize)
; 572  : 	int nAllocationRequested = m_nAllocationCount + num;

	mov	eax, DWORD PTR _this$[ebp]
	mov	ecx, DWORD PTR [eax+4]
	add	ecx, DWORD PTR _num$[ebp]
	mov	DWORD PTR _nAllocationRequested$[ebp], ecx

; 573  : 
; 574  : 	m_nAllocationCount = UtlMemory_CalcNewAllocationCount( m_nAllocationCount, m_nGrowSize, nAllocationRequested, sizeof(T) );

	push	4
	mov	eax, DWORD PTR _nAllocationRequested$[ebp]
	push	eax
	mov	ecx, DWORD PTR _this$[ebp]
	mov	edx, DWORD PTR [ecx+8]
	push	edx
	mov	eax, DWORD PTR _this$[ebp]
	mov	ecx, DWORD PTR [eax+4]
	push	ecx
	call	?UtlMemory_CalcNewAllocationCount@@YAHHHHH@Z ; UtlMemory_CalcNewAllocationCount
	add	esp, 16					; 00000010H
	mov	edx, DWORD PTR _this$[ebp]
	mov	DWORD PTR [edx+4], eax

; 575  : 
; 576  : 	// if m_nAllocationRequested wraps index type I, recalculate
; 577  : 	if ( ( int )( I )m_nAllocationCount < nAllocationRequested )

	mov	eax, DWORD PTR _this$[ebp]
	mov	ecx, DWORD PTR [eax+4]
	cmp	ecx, DWORD PTR _nAllocationRequested$[ebp]
	jge	SHORT $LN5@Grow

; 578  : 	{
; 579  : 		if ( ( int )( I )m_nAllocationCount == 0 && ( int )( I )( m_nAllocationCount - 1 ) >= nAllocationRequested )

	mov	eax, DWORD PTR _this$[ebp]
	cmp	DWORD PTR [eax+4], 0
	jne	SHORT $LN6@Grow
	mov	eax, DWORD PTR _this$[ebp]
	mov	ecx, DWORD PTR [eax+4]
	sub	ecx, 1
	cmp	ecx, DWORD PTR _nAllocationRequested$[ebp]
	jl	SHORT $LN6@Grow

; 580  : 		{
; 581  : 			--m_nAllocationCount; // deal w/ the common case of m_nAllocationCount == MAX_USHORT + 1

	mov	eax, DWORD PTR _this$[ebp]
	mov	ecx, DWORD PTR [eax+4]
	sub	ecx, 1
	mov	edx, DWORD PTR _this$[ebp]
	mov	DWORD PTR [edx+4], ecx

; 582  : 		}
; 583  : 		else

	jmp	SHORT $LN5@Grow
$LN6@Grow:

; 584  : 		{
; 585  : 			if ( ( int )( I )nAllocationRequested != nAllocationRequested )

	mov	eax, DWORD PTR _nAllocationRequested$[ebp]
	cmp	eax, DWORD PTR _nAllocationRequested$[ebp]
	je	SHORT $LN2@Grow

; 586  : 			{
; 587  : 				// we've been asked to grow memory to a size s.t. the index type can't address the requested amount of memory
; 588  : 				assert( 0 );

	xor	eax, eax
	jne	SHORT $LN14@Grow
	push	588					; 0000024cH
	push	OFFSET ??_C@_1JE@CIIIAKCN@?$AAd?$AA?3?$AA?2?$AA?$CB?$AAd?$AAi?$AAf?$AAf?$AAu?$AAs?$AAi?$AAo?$AAn?$AA?5?$AA2?$AA0?$AA2?$AA0?$AA?2?$AAs?$AAo?$AAu?$AAr?$AAc?$AAe?$AA?5?$AAc?$AAo?$AAd?$AAe?$AA?5?$AA2@
	push	OFFSET ??_C@_13COJANIEC@?$AA0?$AA?$AA@
	call	__wassert
	add	esp, 12					; 0000000cH
$LN14@Grow:

; 589  : 				return;

	jmp	$LN1@Grow
$LN2@Grow:

; 590  : 			}
; 591  : 			while ( ( int )( I )m_nAllocationCount < nAllocationRequested )

	mov	eax, DWORD PTR _this$[ebp]
	mov	ecx, DWORD PTR [eax+4]
	cmp	ecx, DWORD PTR _nAllocationRequested$[ebp]
	jge	SHORT $LN5@Grow

; 592  : 			{
; 593  : 				m_nAllocationCount = ( m_nAllocationCount + nAllocationRequested ) / 2;

	mov	eax, DWORD PTR _this$[ebp]
	mov	eax, DWORD PTR [eax+4]
	add	eax, DWORD PTR _nAllocationRequested$[ebp]
	cdq
	sub	eax, edx
	sar	eax, 1
	mov	ecx, DWORD PTR _this$[ebp]
	mov	DWORD PTR [ecx+4], eax

; 594  : 			}

	jmp	SHORT $LN2@Grow
$LN5@Grow:

; 595  : 		}
; 596  : 	}
; 597  : 
; 598  : 	if (m_pMemory)

	mov	eax, DWORD PTR _this$[ebp]
	cmp	DWORD PTR [eax], 0
	je	SHORT $LN9@Grow

; 599  : 	{
; 600  : 		m_pMemory = (T*)realloc( m_pMemory, m_nAllocationCount * sizeof(T) );

	mov	eax, DWORD PTR _this$[ebp]
	mov	ecx, DWORD PTR [eax+4]
	shl	ecx, 2
	push	ecx
	mov	edx, DWORD PTR _this$[ebp]
	mov	eax, DWORD PTR [edx]
	push	eax
	call	_realloc
	add	esp, 8
	mov	ecx, DWORD PTR _this$[ebp]
	mov	DWORD PTR [ecx], eax

; 601  : 		assert( m_pMemory );

	mov	eax, DWORD PTR _this$[ebp]
	cmp	DWORD PTR [eax], 0
	jne	SHORT $LN15@Grow
	push	601					; 00000259H
	push	OFFSET ??_C@_1JE@CIIIAKCN@?$AAd?$AA?3?$AA?2?$AA?$CB?$AAd?$AAi?$AAf?$AAf?$AAu?$AAs?$AAi?$AAo?$AAn?$AA?5?$AA2?$AA0?$AA2?$AA0?$AA?2?$AAs?$AAo?$AAu?$AAr?$AAc?$AAe?$AA?5?$AAc?$AAo?$AAd?$AAe?$AA?5?$AA2@
	push	OFFSET ??_C@_1BE@OPPFELHC@?$AAm?$AA_?$AAp?$AAM?$AAe?$AAm?$AAo?$AAr?$AAy?$AA?$AA@
	call	__wassert
	add	esp, 12					; 0000000cH
$LN15@Grow:

; 602  : 	}
; 603  : 	else

	jmp	SHORT $LN1@Grow
$LN9@Grow:

; 604  : 	{
; 605  : 		m_pMemory = (T*)malloc( m_nAllocationCount * sizeof(T) );

	mov	eax, DWORD PTR _this$[ebp]
	mov	ecx, DWORD PTR [eax+4]
	shl	ecx, 2
	push	ecx
	call	_malloc
	add	esp, 4
	mov	edx, DWORD PTR _this$[ebp]
	mov	DWORD PTR [edx], eax

; 606  : 		assert( m_pMemory );

	mov	eax, DWORD PTR _this$[ebp]
	cmp	DWORD PTR [eax], 0
	jne	SHORT $LN1@Grow
	push	606					; 0000025eH
	push	OFFSET ??_C@_1JE@CIIIAKCN@?$AAd?$AA?3?$AA?2?$AA?$CB?$AAd?$AAi?$AAf?$AAf?$AAu?$AAs?$AAi?$AAo?$AAn?$AA?5?$AA2?$AA0?$AA2?$AA0?$AA?2?$AAs?$AAo?$AAu?$AAr?$AAc?$AAe?$AA?5?$AAc?$AAo?$AAd?$AAe?$AA?5?$AA2@
	push	OFFSET ??_C@_1BE@OPPFELHC@?$AAm?$AA_?$AAp?$AAM?$AAe?$AAm?$AAo?$AAr?$AAy?$AA?$AA@
	call	__wassert
	add	esp, 12					; 0000000cH
$LN1@Grow:

; 607  : 	}
; 608  : }

	pop	edi
	pop	esi
	pop	ebx
	mov	esp, ebp
	pop	ebp
	ret	4
?Grow@?$CUtlMemory@HH@@QAEXH@Z ENDP			; CUtlMemory<int,int>::Grow
_TEXT	ENDS
; Function compile flags: /Odtp /ZI
; File d:\!diffusion 2020\source code 2022\client-server\game_shared\utlmemory.h
;	COMDAT ?NumAllocated@?$CUtlMemory@HH@@QBEHXZ
_TEXT	SEGMENT
_this$ = -4						; size = 4
?NumAllocated@?$CUtlMemory@HH@@QBEHXZ PROC		; CUtlMemory<int,int>::NumAllocated, COMDAT
; _this$ = ecx

; 504  : {

	push	ebp
	mov	ebp, esp
	sub	esp, 68					; 00000044H
	push	ebx
	push	esi
	push	edi
	mov	DWORD PTR _this$[ebp], ecx

; 505  : 	return m_nAllocationCount;

	mov	eax, DWORD PTR _this$[ebp]
	mov	eax, DWORD PTR [eax+4]

; 506  : }

	pop	edi
	pop	esi
	pop	ebx
	mov	esp, ebp
	pop	ebp
	ret	0
?NumAllocated@?$CUtlMemory@HH@@QBEHXZ ENDP		; CUtlMemory<int,int>::NumAllocated
_TEXT	ENDS
; Function compile flags: /Odtp /ZI
; File d:\!diffusion 2020\source code 2022\client-server\game_shared\utlmemory.h
;	COMDAT ?Base@?$CUtlMemory@HH@@QAEPAHXZ
_TEXT	SEGMENT
_this$ = -4						; size = 4
?Base@?$CUtlMemory@HH@@QAEPAHXZ PROC			; CUtlMemory<int,int>::Base, COMDAT
; _this$ = ecx

; 487  : {

	push	ebp
	mov	ebp, esp
	sub	esp, 68					; 00000044H
	push	ebx
	push	esi
	push	edi
	mov	DWORD PTR _this$[ebp], ecx

; 488  : 	assert( !IsReadOnly() );

	mov	ecx, DWORD PTR _this$[ebp]
	call	?IsReadOnly@?$CUtlMemory@HH@@QBE_NXZ	; CUtlMemory<int,int>::IsReadOnly
	movzx	eax, al
	test	eax, eax
	je	SHORT $LN3@Base
	push	488					; 000001e8H
	push	OFFSET ??_C@_1JE@CIIIAKCN@?$AAd?$AA?3?$AA?2?$AA?$CB?$AAd?$AAi?$AAf?$AAf?$AAu?$AAs?$AAi?$AAo?$AAn?$AA?5?$AA2?$AA0?$AA2?$AA0?$AA?2?$AAs?$AAo?$AAu?$AAr?$AAc?$AAe?$AA?5?$AAc?$AAo?$AAd?$AAe?$AA?5?$AA2@
	push	OFFSET ??_C@_1BM@PFNFCCHH@?$AA?$CB?$AAI?$AAs?$AAR?$AAe?$AAa?$AAd?$AAO?$AAn?$AAl?$AAy?$AA?$CI?$AA?$CJ?$AA?$AA@
	call	__wassert
	add	esp, 12					; 0000000cH
$LN3@Base:

; 489  : 	return m_pMemory;

	mov	eax, DWORD PTR _this$[ebp]
	mov	eax, DWORD PTR [eax]

; 490  : }

	pop	edi
	pop	esi
	pop	ebx
	mov	esp, ebp
	pop	ebp
	ret	0
?Base@?$CUtlMemory@HH@@QAEPAHXZ ENDP			; CUtlMemory<int,int>::Base
_TEXT	ENDS
; Function compile flags: /Odtp /ZI
; File d:\!diffusion 2020\source code 2022\client-server\game_shared\utlmemory.h
;	COMDAT ?IsIdxValid@?$CUtlMemory@HH@@QBE_NH@Z
_TEXT	SEGMENT
tv67 = -72						; size = 4
_this$ = -4						; size = 4
_i$ = 8							; size = 4
?IsIdxValid@?$CUtlMemory@HH@@QBE_NH@Z PROC		; CUtlMemory<int,int>::IsIdxValid, COMDAT
; _this$ = ecx

; 520  : {

	push	ebp
	mov	ebp, esp
	sub	esp, 72					; 00000048H
	push	ebx
	push	esi
	push	edi
	mov	DWORD PTR _this$[ebp], ecx

; 521  : 	return ( ((int) i) >= 0 ) && ( ((int) i) < m_nAllocationCount );

	cmp	DWORD PTR _i$[ebp], 0
	jl	SHORT $LN3@IsIdxValid
	mov	eax, DWORD PTR _this$[ebp]
	mov	ecx, DWORD PTR _i$[ebp]
	cmp	ecx, DWORD PTR [eax+4]
	jge	SHORT $LN3@IsIdxValid
	mov	DWORD PTR tv67[ebp], 1
	jmp	SHORT $LN4@IsIdxValid
$LN3@IsIdxValid:
	mov	DWORD PTR tv67[ebp], 0
$LN4@IsIdxValid:
	mov	al, BYTE PTR tv67[ebp]

; 522  : }

	pop	edi
	pop	esi
	pop	ebx
	mov	esp, ebp
	pop	ebp
	ret	4
?IsIdxValid@?$CUtlMemory@HH@@QBE_NH@Z ENDP		; CUtlMemory<int,int>::IsIdxValid
_TEXT	ENDS
; Function compile flags: /Odtp /ZI
; File d:\!diffusion 2020\source code 2022\client-server\game_shared\utlmemory.h
;	COMDAT ??A?$CUtlMemory@HH@@QBEABHH@Z
_TEXT	SEGMENT
_this$ = -4						; size = 4
_i$ = 8							; size = 4
??A?$CUtlMemory@HH@@QBEABHH@Z PROC			; CUtlMemory<int,int>::operator[], COMDAT
; _this$ = ecx

; 431  : {

	push	ebp
	mov	ebp, esp
	sub	esp, 68					; 00000044H
	push	ebx
	push	esi
	push	edi
	mov	DWORD PTR _this$[ebp], ecx

; 432  : 	assert( IsIdxValid(i) );

	mov	eax, DWORD PTR _i$[ebp]
	push	eax
	mov	ecx, DWORD PTR _this$[ebp]
	call	?IsIdxValid@?$CUtlMemory@HH@@QBE_NH@Z	; CUtlMemory<int,int>::IsIdxValid
	movzx	ecx, al
	test	ecx, ecx
	jne	SHORT $LN3@operator
	push	432					; 000001b0H
	push	OFFSET ??_C@_1JE@CIIIAKCN@?$AAd?$AA?3?$AA?2?$AA?$CB?$AAd?$AAi?$AAf?$AAf?$AAu?$AAs?$AAi?$AAo?$AAn?$AA?5?$AA2?$AA0?$AA2?$AA0?$AA?2?$AAs?$AAo?$AAu?$AAr?$AAc?$AAe?$AA?5?$AAc?$AAo?$AAd?$AAe?$AA?5?$AA2@
	push	OFFSET ??_C@_1BM@CKILBAKK@?$AAI?$AAs?$AAI?$AAd?$AAx?$AAV?$AAa?$AAl?$AAi?$AAd?$AA?$CI?$AAi?$AA?$CJ?$AA?$AA@
	call	__wassert
	add	esp, 12					; 0000000cH
$LN3@operator:

; 433  : 	return m_pMemory[i];

	mov	eax, DWORD PTR _this$[ebp]
	mov	ecx, DWORD PTR [eax]
	mov	edx, DWORD PTR _i$[ebp]
	lea	eax, DWORD PTR [ecx+edx*4]

; 434  : }

	pop	edi
	pop	esi
	pop	ebx
	mov	esp, ebp
	pop	ebp
	ret	4
??A?$CUtlMemory@HH@@QBEABHH@Z ENDP			; CUtlMemory<int,int>::operator[]
_TEXT	ENDS
; Function compile flags: /Odtp /ZI
; File d:\!diffusion 2020\source code 2022\client-server\game_shared\utlmemory.h
;	COMDAT ??A?$CUtlMemory@HH@@QAEAAHH@Z
_TEXT	SEGMENT
_this$ = -4						; size = 4
_i$ = 8							; size = 4
??A?$CUtlMemory@HH@@QAEAAHH@Z PROC			; CUtlMemory<int,int>::operator[], COMDAT
; _this$ = ecx

; 423  : {

	push	ebp
	mov	ebp, esp
	sub	esp, 68					; 00000044H
	push	ebx
	push	esi
	push	edi
	mov	DWORD PTR _this$[ebp], ecx

; 424  : 	assert( !IsReadOnly() );

	mov	ecx, DWORD PTR _this$[ebp]
	call	?IsReadOnly@?$CUtlMemory@HH@@QBE_NXZ	; CUtlMemory<int,int>::IsReadOnly
	movzx	eax, al
	test	eax, eax
	je	SHORT $LN3@operator
	push	424					; 000001a8H
	push	OFFSET ??_C@_1JE@CIIIAKCN@?$AAd?$AA?3?$AA?2?$AA?$CB?$AAd?$AAi?$AAf?$AAf?$AAu?$AAs?$AAi?$AAo?$AAn?$AA?5?$AA2?$AA0?$AA2?$AA0?$AA?2?$AAs?$AAo?$AAu?$AAr?$AAc?$AAe?$AA?5?$AAc?$AAo?$AAd?$AAe?$AA?5?$AA2@
	push	OFFSET ??_C@_1BM@PFNFCCHH@?$AA?$CB?$AAI?$AAs?$AAR?$AAe?$AAa?$AAd?$AAO?$AAn?$AAl?$AAy?$AA?$CI?$AA?$CJ?$AA?$AA@
	call	__wassert
	add	esp, 12					; 0000000cH
$LN3@operator:

; 425  : 	assert( IsIdxValid(i) );

	mov	eax, DWORD PTR _i$[ebp]
	push	eax
	mov	ecx, DWORD PTR _this$[ebp]
	call	?IsIdxValid@?$CUtlMemory@HH@@QBE_NH@Z	; CUtlMemory<int,int>::IsIdxValid
	movzx	ecx, al
	test	ecx, ecx
	jne	SHORT $LN4@operator
	push	425					; 000001a9H
	push	OFFSET ??_C@_1JE@CIIIAKCN@?$AAd?$AA?3?$AA?2?$AA?$CB?$AAd?$AAi?$AAf?$AAf?$AAu?$AAs?$AAi?$AAo?$AAn?$AA?5?$AA2?$AA0?$AA2?$AA0?$AA?2?$AAs?$AAo?$AAu?$AAr?$AAc?$AAe?$AA?5?$AAc?$AAo?$AAd?$AAe?$AA?5?$AA2@
	push	OFFSET ??_C@_1BM@CKILBAKK@?$AAI?$AAs?$AAI?$AAd?$AAx?$AAV?$AAa?$AAl?$AAi?$AAd?$AA?$CI?$AAi?$AA?$CJ?$AA?$AA@
	call	__wassert
	add	esp, 12					; 0000000cH
$LN4@operator:

; 426  : 	return m_pMemory[i];

	mov	eax, DWORD PTR _this$[ebp]
	mov	ecx, DWORD PTR [eax]
	mov	edx, DWORD PTR _i$[ebp]
	lea	eax, DWORD PTR [ecx+edx*4]

; 427  : }

	pop	edi
	pop	esi
	pop	ebx
	mov	esp, ebp
	pop	ebp
	ret	4
??A?$CUtlMemory@HH@@QAEAAHH@Z ENDP			; CUtlMemory<int,int>::operator[]
_TEXT	ENDS
; Function compile flags: /Odtp /ZI
; File d:\!diffusion 2020\source code 2022\client-server\game_shared\utlmemory.h
;	COMDAT ??1?$CUtlMemory@HH@@QAE@XZ
_TEXT	SEGMENT
_this$ = -16						; size = 4
__$EHRec$ = -12						; size = 12
??1?$CUtlMemory@HH@@QAE@XZ PROC				; CUtlMemory<int,int>::~CUtlMemory<int,int>, COMDAT
; _this$ = ecx

; 322  : {

	push	ebp
	mov	ebp, esp
	push	-1
	push	__ehhandler$??1?$CUtlMemory@HH@@QAE@XZ
	mov	eax, DWORD PTR fs:0
	push	eax
	sub	esp, 68					; 00000044H
	push	ebx
	push	esi
	push	edi
	mov	eax, DWORD PTR ___security_cookie
	xor	eax, ebp
	push	eax
	lea	eax, DWORD PTR __$EHRec$[ebp]
	mov	DWORD PTR fs:0, eax
	mov	DWORD PTR _this$[ebp], ecx

; 323  : 	Purge();

	mov	ecx, DWORD PTR _this$[ebp]
	call	?Purge@?$CUtlMemory@HH@@QAEXXZ		; CUtlMemory<int,int>::Purge

; 324  : }

	mov	ecx, DWORD PTR __$EHRec$[ebp]
	mov	DWORD PTR fs:0, ecx
	pop	ecx
	pop	edi
	pop	esi
	pop	ebx
	mov	esp, ebp
	pop	ebp
	ret	0
_TEXT	ENDS
;	COMDAT text$x
text$x	SEGMENT
__ehhandler$??1?$CUtlMemory@HH@@QAE@XZ:
	mov	edx, DWORD PTR [esp+8]
	lea	eax, DWORD PTR [edx+12]
	mov	ecx, DWORD PTR [edx-84]
	xor	ecx, eax
	call	@__security_check_cookie@4
	mov	eax, OFFSET __ehfuncinfo$??1?$CUtlMemory@HH@@QAE@XZ
	jmp	___CxxFrameHandler3
text$x	ENDS
??1?$CUtlMemory@HH@@QAE@XZ ENDP				; CUtlMemory<int,int>::~CUtlMemory<int,int>
; Function compile flags: /Odtp /ZI
; File d:\!diffusion 2020\source code 2022\client-server\game_shared\utlmemory.h
;	COMDAT ??0?$CUtlMemory@HH@@QAE@HH@Z
_TEXT	SEGMENT
_this$ = -4						; size = 4
_nGrowSize$ = 8						; size = 4
_nInitAllocationCount$ = 12				; size = 4
??0?$CUtlMemory@HH@@QAE@HH@Z PROC			; CUtlMemory<int,int>::CUtlMemory<int,int>, COMDAT
; _this$ = ecx

; 295  : {

	push	ebp
	mov	ebp, esp
	sub	esp, 68					; 00000044H
	push	ebx
	push	esi
	push	edi
	mov	DWORD PTR _this$[ebp], ecx

; 293  : CUtlMemory<T,I>::CUtlMemory( int nGrowSize, int nInitAllocationCount ) : m_pMemory(0), 

	mov	eax, DWORD PTR _this$[ebp]
	mov	DWORD PTR [eax], 0

; 294  : 	m_nAllocationCount( nInitAllocationCount ), m_nGrowSize( nGrowSize )

	mov	eax, DWORD PTR _this$[ebp]
	mov	ecx, DWORD PTR _nInitAllocationCount$[ebp]
	mov	DWORD PTR [eax+4], ecx
	mov	eax, DWORD PTR _this$[ebp]
	mov	ecx, DWORD PTR _nGrowSize$[ebp]
	mov	DWORD PTR [eax+8], ecx

; 296  : 	ValidateGrowSize();

	mov	ecx, DWORD PTR _this$[ebp]
	call	?ValidateGrowSize@?$CUtlMemory@HH@@IAEXXZ ; CUtlMemory<int,int>::ValidateGrowSize

; 297  : 	assert( nGrowSize >= 0 );

	cmp	DWORD PTR _nGrowSize$[ebp], 0
	jge	SHORT $LN4@CUtlMemory
	push	297					; 00000129H
	push	OFFSET ??_C@_1JE@CIIIAKCN@?$AAd?$AA?3?$AA?2?$AA?$CB?$AAd?$AAi?$AAf?$AAf?$AAu?$AAs?$AAi?$AAo?$AAn?$AA?5?$AA2?$AA0?$AA2?$AA0?$AA?2?$AAs?$AAo?$AAu?$AAr?$AAc?$AAe?$AA?5?$AAc?$AAo?$AAd?$AAe?$AA?5?$AA2@
	push	OFFSET ??_C@_1BO@FOOHAONO@?$AAn?$AAG?$AAr?$AAo?$AAw?$AAS?$AAi?$AAz?$AAe?$AA?5?$AA?$DO?$AA?$DN?$AA?5?$AA0?$AA?$AA@
	call	__wassert
	add	esp, 12					; 0000000cH
$LN4@CUtlMemory:

; 298  : 	if (m_nAllocationCount)

	mov	eax, DWORD PTR _this$[ebp]
	cmp	DWORD PTR [eax+4], 0
	je	SHORT $LN1@CUtlMemory

; 299  : 	{
; 300  : 		m_pMemory = (T*)malloc( m_nAllocationCount * sizeof(T) );

	mov	eax, DWORD PTR _this$[ebp]
	mov	ecx, DWORD PTR [eax+4]
	shl	ecx, 2
	push	ecx
	call	_malloc
	add	esp, 4
	mov	edx, DWORD PTR _this$[ebp]
	mov	DWORD PTR [edx], eax
$LN1@CUtlMemory:

; 301  : 	}
; 302  : }

	mov	eax, DWORD PTR _this$[ebp]
	pop	edi
	pop	esi
	pop	ebx
	mov	esp, ebp
	pop	ebp
	ret	8
??0?$CUtlMemory@HH@@QAE@HH@Z ENDP			; CUtlMemory<int,int>::CUtlMemory<int,int>
_TEXT	ENDS
; Function compile flags: /Odtp /ZI
; File d:\!diffusion 2020\source code 2022\client-server\game_shared\utlarray.h
;	COMDAT ?ShiftElementsRight@?$CUtlArray@HV?$CUtlMemory@HH@@@@IAEXHH@Z
_TEXT	SEGMENT
_numToMove$ = -8					; size = 4
_this$ = -4						; size = 4
_elem$ = 8						; size = 4
_num$ = 12						; size = 4
?ShiftElementsRight@?$CUtlArray@HV?$CUtlMemory@HH@@@@IAEXHH@Z PROC ; CUtlArray<int,CUtlMemory<int,int> >::ShiftElementsRight, COMDAT
; _this$ = ecx

; 447  : {

	push	ebp
	mov	ebp, esp
	sub	esp, 72					; 00000048H
	push	ebx
	push	esi
	push	edi
	mov	DWORD PTR _this$[ebp], ecx

; 448  : 	assert( IsValidIndex(elem) || ( m_Size == 0 ) || ( num == 0 ));

	mov	eax, DWORD PTR _elem$[ebp]
	push	eax
	mov	ecx, DWORD PTR _this$[ebp]
	call	?IsValidIndex@?$CUtlArray@HV?$CUtlMemory@HH@@@@QBE_NH@Z ; CUtlArray<int,CUtlMemory<int,int> >::IsValidIndex
	movzx	ecx, al
	test	ecx, ecx
	jne	SHORT $LN4@ShiftEleme
	mov	edx, DWORD PTR _this$[ebp]
	cmp	DWORD PTR [edx+12], 0
	je	SHORT $LN4@ShiftEleme
	cmp	DWORD PTR _num$[ebp], 0
	je	SHORT $LN4@ShiftEleme
	push	448					; 000001c0H
	push	OFFSET ??_C@_1JC@EMNIBBBG@?$AAd?$AA?3?$AA?2?$AA?$CB?$AAd?$AAi?$AAf?$AAf?$AAu?$AAs?$AAi?$AAo?$AAn?$AA?5?$AA2?$AA0?$AA2?$AA0?$AA?2?$AAs?$AAo?$AAu?$AAr?$AAc?$AAe?$AA?5?$AAc?$AAo?$AAd?$AAe?$AA?5?$AA2@
	push	OFFSET ??_C@_1GM@CDMJDFPA@?$AAI?$AAs?$AAV?$AAa?$AAl?$AAi?$AAd?$AAI?$AAn?$AAd?$AAe?$AAx?$AA?$CI?$AAe?$AAl?$AAe?$AAm?$AA?$CJ?$AA?5?$AA?$HM?$AA?$HM?$AA?5?$AA?$CI?$AA?5?$AAm?$AA_?$AAS?$AAi?$AAz?$AAe?$AA?5?$AA?$DN@
	call	__wassert
	add	esp, 12					; 0000000cH
$LN4@ShiftEleme:

; 449  : 	int numToMove = m_Size - elem - num;

	mov	eax, DWORD PTR _this$[ebp]
	mov	ecx, DWORD PTR [eax+12]
	sub	ecx, DWORD PTR _elem$[ebp]
	sub	ecx, DWORD PTR _num$[ebp]
	mov	DWORD PTR _numToMove$[ebp], ecx

; 450  : 	if ((numToMove > 0) && (num > 0))

	cmp	DWORD PTR _numToMove$[ebp], 0
	jle	SHORT $LN1@ShiftEleme
	cmp	DWORD PTR _num$[ebp], 0
	jle	SHORT $LN1@ShiftEleme

; 451  : 		memmove( &Element(elem+num), &Element(elem), numToMove * sizeof(T) );

	mov	eax, DWORD PTR _numToMove$[ebp]
	shl	eax, 2
	push	eax
	mov	ecx, DWORD PTR _elem$[ebp]
	push	ecx
	mov	ecx, DWORD PTR _this$[ebp]
	call	?Element@?$CUtlArray@HV?$CUtlMemory@HH@@@@QAEAAHH@Z ; CUtlArray<int,CUtlMemory<int,int> >::Element
	push	eax
	mov	edx, DWORD PTR _elem$[ebp]
	add	edx, DWORD PTR _num$[ebp]
	push	edx
	mov	ecx, DWORD PTR _this$[ebp]
	call	?Element@?$CUtlArray@HV?$CUtlMemory@HH@@@@QAEAAHH@Z ; CUtlArray<int,CUtlMemory<int,int> >::Element
	push	eax
	call	_memmove
	add	esp, 12					; 0000000cH
$LN1@ShiftEleme:

; 452  : }

	pop	edi
	pop	esi
	pop	ebx
	mov	esp, ebp
	pop	ebp
	ret	8
?ShiftElementsRight@?$CUtlArray@HV?$CUtlMemory@HH@@@@IAEXHH@Z ENDP ; CUtlArray<int,CUtlMemory<int,int> >::ShiftElementsRight
_TEXT	ENDS
; Function compile flags: /Odtp /ZI
; File d:\!diffusion 2020\source code 2022\client-server\game_shared\utlarray.h
;	COMDAT ?GrowVector@?$CUtlArray@HV?$CUtlMemory@HH@@@@IAEXH@Z
_TEXT	SEGMENT
_this$ = -4						; size = 4
_num$ = 8						; size = 4
?GrowVector@?$CUtlArray@HV?$CUtlMemory@HH@@@@IAEXH@Z PROC ; CUtlArray<int,CUtlMemory<int,int> >::GrowVector, COMDAT
; _this$ = ecx

; 374  : {

	push	ebp
	mov	ebp, esp
	sub	esp, 68					; 00000044H
	push	ebx
	push	esi
	push	edi
	mov	DWORD PTR _this$[ebp], ecx

; 375  : 	if (m_Size + num > m_Memory.NumAllocated())

	mov	eax, DWORD PTR _this$[ebp]
	mov	esi, DWORD PTR [eax+12]
	add	esi, DWORD PTR _num$[ebp]
	mov	ecx, DWORD PTR _this$[ebp]
	call	?NumAllocated@?$CUtlMemory@HH@@QBEHXZ	; CUtlMemory<int,int>::NumAllocated
	cmp	esi, eax
	jle	SHORT $LN2@GrowVector

; 376  : 	{
; 377  : 		m_Memory.Grow( m_Size + num - m_Memory.NumAllocated() );

	mov	eax, DWORD PTR _this$[ebp]
	mov	esi, DWORD PTR [eax+12]
	add	esi, DWORD PTR _num$[ebp]
	mov	ecx, DWORD PTR _this$[ebp]
	call	?NumAllocated@?$CUtlMemory@HH@@QBEHXZ	; CUtlMemory<int,int>::NumAllocated
	sub	esi, eax
	push	esi
	mov	ecx, DWORD PTR _this$[ebp]
	call	?Grow@?$CUtlMemory@HH@@QAEXH@Z		; CUtlMemory<int,int>::Grow
$LN2@GrowVector:

; 378  : 	}
; 379  : 
; 380  : 	m_Size += num;

	mov	eax, DWORD PTR _this$[ebp]
	mov	ecx, DWORD PTR [eax+12]
	add	ecx, DWORD PTR _num$[ebp]
	mov	edx, DWORD PTR _this$[ebp]
	mov	DWORD PTR [edx+12], ecx

; 381  : 	ResetDbgInfo();

	mov	ecx, DWORD PTR _this$[ebp]
	call	?ResetDbgInfo@?$CUtlArray@HV?$CUtlMemory@HH@@@@IAEXXZ ; CUtlArray<int,CUtlMemory<int,int> >::ResetDbgInfo

; 382  : }

	pop	edi
	pop	esi
	pop	ebx
	mov	esp, ebp
	pop	ebp
	ret	4
?GrowVector@?$CUtlArray@HV?$CUtlMemory@HH@@@@IAEXH@Z ENDP ; CUtlArray<int,CUtlMemory<int,int> >::GrowVector
_TEXT	ENDS
; Function compile flags: /Odtp /ZI
; File d:\!diffusion 2020\source code 2022\client-server\game_shared\utlarray.h
;	COMDAT ?Purge@?$CUtlArray@HV?$CUtlMemory@HH@@@@QAEXXZ
_TEXT	SEGMENT
_this$ = -4						; size = 4
?Purge@?$CUtlArray@HV?$CUtlMemory@HH@@@@QAEXXZ PROC	; CUtlArray<int,CUtlMemory<int,int> >::Purge, COMDAT
; _this$ = ecx

; 742  : {

	push	ebp
	mov	ebp, esp
	sub	esp, 68					; 00000044H
	push	ebx
	push	esi
	push	edi
	mov	DWORD PTR _this$[ebp], ecx

; 743  : 	RemoveAll();

	mov	ecx, DWORD PTR _this$[ebp]
	call	?RemoveAll@?$CUtlArray@HV?$CUtlMemory@HH@@@@QAEXXZ ; CUtlArray<int,CUtlMemory<int,int> >::RemoveAll

; 744  : 	m_Memory.Purge();

	mov	ecx, DWORD PTR _this$[ebp]
	call	?Purge@?$CUtlMemory@HH@@QAEXXZ		; CUtlMemory<int,int>::Purge

; 745  : 	ResetDbgInfo();

	mov	ecx, DWORD PTR _this$[ebp]
	call	?ResetDbgInfo@?$CUtlArray@HV?$CUtlMemory@HH@@@@IAEXXZ ; CUtlArray<int,CUtlMemory<int,int> >::ResetDbgInfo

; 746  : }

	pop	edi
	pop	esi
	pop	ebx
	mov	esp, ebp
	pop	ebp
	ret	0
?Purge@?$CUtlArray@HV?$CUtlMemory@HH@@@@QAEXXZ ENDP	; CUtlArray<int,CUtlMemory<int,int> >::Purge
_TEXT	ENDS
; Function compile flags: /Odtp /ZI
; File d:\!diffusion 2020\source code 2022\client-server\game_shared\utlarray.h
;	COMDAT ?RemoveAll@?$CUtlArray@HV?$CUtlMemory@HH@@@@QAEXXZ
_TEXT	SEGMENT
_i$1 = -8						; size = 4
_this$ = -4						; size = 4
?RemoveAll@?$CUtlArray@HV?$CUtlMemory@HH@@@@QAEXXZ PROC	; CUtlArray<int,CUtlMemory<int,int> >::RemoveAll, COMDAT
; _this$ = ecx

; 726  : {

	push	ebp
	mov	ebp, esp
	sub	esp, 72					; 00000048H
	push	ebx
	push	esi
	push	edi
	mov	DWORD PTR _this$[ebp], ecx

; 727  : 	for (int i = m_Size; --i >= 0; )

	mov	eax, DWORD PTR _this$[ebp]
	mov	ecx, DWORD PTR [eax+12]
	mov	DWORD PTR _i$1[ebp], ecx
$LN4@RemoveAll:
	mov	eax, DWORD PTR _i$1[ebp]
	sub	eax, 1
	mov	DWORD PTR _i$1[ebp], eax
	js	SHORT $LN3@RemoveAll

; 728  : 	{
; 729  : 		Destruct(&Element(i));

	mov	eax, DWORD PTR _i$1[ebp]
	push	eax
	mov	ecx, DWORD PTR _this$[ebp]
	call	?Element@?$CUtlArray@HV?$CUtlMemory@HH@@@@QAEAAHH@Z ; CUtlArray<int,CUtlMemory<int,int> >::Element
	push	eax
	call	??$Destruct@H@@YAXPAH@Z			; Destruct<int>
	add	esp, 4

; 730  : 	}

	jmp	SHORT $LN4@RemoveAll
$LN3@RemoveAll:

; 731  : 
; 732  : 	m_Size = 0;

	mov	eax, DWORD PTR _this$[ebp]
	mov	DWORD PTR [eax+12], 0

; 733  : }

	pop	edi
	pop	esi
	pop	ebx
	mov	esp, ebp
	pop	ebp
	ret	0
?RemoveAll@?$CUtlArray@HV?$CUtlMemory@HH@@@@QAEXXZ ENDP	; CUtlArray<int,CUtlMemory<int,int> >::RemoveAll
_TEXT	ENDS
; Function compile flags: /Odtp /ZI
; File d:\!diffusion 2020\source code 2022\client-server\game_shared\utlarray.h
;	COMDAT ?SetCount@?$CUtlArray@HV?$CUtlMemory@HH@@@@QAEXH@Z
_TEXT	SEGMENT
_this$ = -4						; size = 4
_count$ = 8						; size = 4
?SetCount@?$CUtlArray@HV?$CUtlMemory@HH@@@@QAEXH@Z PROC	; CUtlArray<int,CUtlMemory<int,int> >::SetCount, COMDAT
; _this$ = ecx

; 574  : {

	push	ebp
	mov	ebp, esp
	sub	esp, 68					; 00000044H
	push	ebx
	push	esi
	push	edi
	mov	DWORD PTR _this$[ebp], ecx

; 575  : 	RemoveAll();

	mov	ecx, DWORD PTR _this$[ebp]
	call	?RemoveAll@?$CUtlArray@HV?$CUtlMemory@HH@@@@QAEXXZ ; CUtlArray<int,CUtlMemory<int,int> >::RemoveAll

; 576  : 	AddMultipleToTail( count );

	push	0
	mov	eax, DWORD PTR _count$[ebp]
	push	eax
	mov	ecx, DWORD PTR _this$[ebp]
	call	?AddMultipleToTail@?$CUtlArray@HV?$CUtlMemory@HH@@@@QAEHHPBH@Z ; CUtlArray<int,CUtlMemory<int,int> >::AddMultipleToTail

; 577  : }

	pop	edi
	pop	esi
	pop	ebx
	mov	esp, ebp
	pop	ebp
	ret	4
?SetCount@?$CUtlArray@HV?$CUtlMemory@HH@@@@QAEXH@Z ENDP	; CUtlArray<int,CUtlMemory<int,int> >::SetCount
_TEXT	ENDS
; Function compile flags: /Odtp /ZI
; File d:\!diffusion 2020\source code 2022\client-server\game_shared\utlarray.h
;	COMDAT ?SetSize@?$CUtlArray@HV?$CUtlMemory@HH@@@@QAEXH@Z
_TEXT	SEGMENT
_this$ = -4						; size = 4
_size$ = 8						; size = 4
?SetSize@?$CUtlArray@HV?$CUtlMemory@HH@@@@QAEXH@Z PROC	; CUtlArray<int,CUtlMemory<int,int> >::SetSize, COMDAT
; _this$ = ecx

; 581  : {

	push	ebp
	mov	ebp, esp
	sub	esp, 68					; 00000044H
	push	ebx
	push	esi
	push	edi
	mov	DWORD PTR _this$[ebp], ecx

; 582  : 	SetCount( size );

	mov	eax, DWORD PTR _size$[ebp]
	push	eax
	mov	ecx, DWORD PTR _this$[ebp]
	call	?SetCount@?$CUtlArray@HV?$CUtlMemory@HH@@@@QAEXH@Z ; CUtlArray<int,CUtlMemory<int,int> >::SetCount

; 583  : }

	pop	edi
	pop	esi
	pop	ebx
	mov	esp, ebp
