; Listing generated by Microsoft (R) Optimizing Compiler Version 19.00.24247.2 

	TITLE	D:\!DIFFUSION 2020\source code 2022\client-server\client\render\r_studiodecal.cpp
	.686P
	.XMM
	include listing.inc
	.model	flat

INCLUDELIB LIBCMT
INCLUDELIB OLDNAMES

PUBLIC	??_H@YGXPAXIIP6EPAX0@Z@Z			; `vector constructor iterator'
PUBLIC	??__G@YGXPAX0IIP6EPAX00@Z@Z			; `vector copy constructor iterator'
PUBLIC	??0Vector2D@@QAE@XZ				; Vector2D::Vector2D
PUBLIC	??0Vector2D@@QAE@MM@Z				; Vector2D::Vector2D
PUBLIC	??HVector2D@@QBE?AV0@ABV0@@Z			; Vector2D::operator+
PUBLIC	??GVector2D@@QBE?AV0@ABV0@@Z			; Vector2D::operator-
PUBLIC	??DVector2D@@QBE?AV0@M@Z			; Vector2D::operator*
PUBLIC	??XVector2D@@QAEAAV0@M@Z			; Vector2D::operator*=
PUBLIC	??BVector2D@@QAEPAMXZ				; Vector2D::operator float *
PUBLIC	??0Vector@@QAE@XZ				; Vector::Vector
PUBLIC	??0Vector@@QAE@MMM@Z				; Vector::Vector
PUBLIC	??0Vector@@QAE@ABV0@@Z				; Vector::Vector
PUBLIC	??0Vector@@QAE@QAM@Z				; Vector::Vector
PUBLIC	??HVector@@QBE?AV0@ABV0@@Z			; Vector::operator+
PUBLIC	??GVector@@QBE?AV0@ABV0@@Z			; Vector::operator-
PUBLIC	??DVector@@QBE?AV0@M@Z				; Vector::operator*
PUBLIC	?Length@Vector@@QBEMXZ				; Vector::Length
PUBLIC	??BVector@@QAEPAMXZ				; Vector::operator float *
PUBLIC	?Normalize@Vector@@QBE?AV1@XZ			; Vector::Normalize
PUBLIC	?NormalizeLength@Vector@@QAEMXZ			; Vector::NormalizeLength
PUBLIC	?DotProduct@@YAMABVVector@@0@Z			; DotProduct
PUBLIC	?CrossProduct@@YA?AVVector@@ABV1@0@Z		; CrossProduct
PUBLIC	??Amatrix3x3@@QAEPAMH@Z				; matrix3x3::operator[]
PUBLIC	??0matrix3x3@@QAE@$$QAV0@@Z			; matrix3x3::matrix3x3
PUBLIC	??Amatrix3x4@@QAEPAMH@Z				; matrix3x4::operator[]
PUBLIC	??0matrix3x4@@QAE@ABV0@@Z			; matrix3x4::matrix3x4
PUBLIC	??0DecalVertex_t@@QAE@XZ			; DecalVertex_t::DecalVertex_t
PUBLIC	??0DecalVertex_t@@QAE@ABU0@@Z			; DecalVertex_t::DecalVertex_t
PUBLIC	??0DecalClipState_t@@QAE@XZ			; DecalClipState_t::DecalClipState_t
PUBLIC	??2@YAPAXIPAX@Z					; operator new
PUBLIC	??3@YAXPAX0@Z					; operator delete
PUBLIC	?UtlMemory_CalcNewAllocationCount@@YAHHHHH@Z	; UtlMemory_CalcNewAllocationCount
PUBLIC	??0Decal_t@CStudioModelRenderer@@QAE@XZ		; CStudioModelRenderer::Decal_t::Decal_t
PUBLIC	??0?$CUtlArray@GV?$CUtlMemory@GH@@@@QAE@HH@Z	; CUtlArray<unsigned short,CUtlMemory<unsigned short,int> >::CUtlArray<unsigned short,CUtlMemory<unsigned short,int> >
PUBLIC	??1?$CUtlArray@GV?$CUtlMemory@GH@@@@QAE@XZ	; CUtlArray<unsigned short,CUtlMemory<unsigned short,int> >::~CUtlArray<unsigned short,CUtlMemory<unsigned short,int> >
PUBLIC	??A?$CUtlArray@GV?$CUtlMemory@GH@@@@QAEAAGH@Z	; CUtlArray<unsigned short,CUtlMemory<unsigned short,int> >::operator[]
PUBLIC	?Element@?$CUtlArray@GV?$CUtlMemory@GH@@@@QAEAAGH@Z ; CUtlArray<unsigned short,CUtlMemory<unsigned short,int> >::Element
PUBLIC	?Base@?$CUtlArray@GV?$CUtlMemory@GH@@@@QAEPAGXZ	; CUtlArray<unsigned short,CUtlMemory<unsigned short,int> >::Base
PUBLIC	?Count@?$CUtlArray@GV?$CUtlMemory@GH@@@@QBEHXZ	; CUtlArray<unsigned short,CUtlMemory<unsigned short,int> >::Count
PUBLIC	?IsValidIndex@?$CUtlArray@GV?$CUtlMemory@GH@@@@QBE_NH@Z ; CUtlArray<unsigned short,CUtlMemory<unsigned short,int> >::IsValidIndex
PUBLIC	?AddToTail@?$CUtlArray@GV?$CUtlMemory@GH@@@@QAEHABG@Z ; CUtlArray<unsigned short,CUtlMemory<unsigned short,int> >::AddToTail
PUBLIC	?InsertBefore@?$CUtlArray@GV?$CUtlMemory@GH@@@@QAEHHABG@Z ; CUtlArray<unsigned short,CUtlMemory<unsigned short,int> >::InsertBefore
PUBLIC	?RemoveMultiple@?$CUtlArray@GV?$CUtlMemory@GH@@@@QAEXHH@Z ; CUtlArray<unsigned short,CUtlMemory<unsigned short,int> >::RemoveMultiple
PUBLIC	?RemoveAll@?$CUtlArray@GV?$CUtlMemory@GH@@@@QAEXXZ ; CUtlArray<unsigned short,CUtlMemory<unsigned short,int> >::RemoveAll
PUBLIC	?Purge@?$CUtlArray@GV?$CUtlMemory@GH@@@@QAEXXZ	; CUtlArray<unsigned short,CUtlMemory<unsigned short,int> >::Purge
PUBLIC	?GrowVector@?$CUtlArray@GV?$CUtlMemory@GH@@@@IAEXH@Z ; CUtlArray<unsigned short,CUtlMemory<unsigned short,int> >::GrowVector
PUBLIC	?ShiftElementsRight@?$CUtlArray@GV?$CUtlMemory@GH@@@@IAEXHH@Z ; CUtlArray<unsigned short,CUtlMemory<unsigned short,int> >::ShiftElementsRight
PUBLIC	?ShiftElementsLeft@?$CUtlArray@GV?$CUtlMemory@GH@@@@IAEXHH@Z ; CUtlArray<unsigned short,CUtlMemory<unsigned short,int> >::ShiftElementsLeft
PUBLIC	??0?$CUtlMemory@GH@@QAE@HH@Z			; CUtlMemory<unsigned short,int>::CUtlMemory<unsigned short,int>
PUBLIC	??1?$CUtlMemory@GH@@QAE@XZ			; CUtlMemory<unsigned short,int>::~CUtlMemory<unsigned short,int>
PUBLIC	??A?$CUtlMemory@GH@@QAEAAGH@Z			; CUtlMemory<unsigned short,int>::operator[]
PUBLIC	?IsIdxValid@?$CUtlMemory@GH@@QBE_NH@Z		; CUtlMemory<unsigned short,int>::IsIdxValid
PUBLIC	?Base@?$CUtlMemory@GH@@QAEPAGXZ			; CUtlMemory<unsigned short,int>::Base
PUBLIC	?NumAllocated@?$CUtlMemory@GH@@QBEHXZ		; CUtlMemory<unsigned short,int>::NumAllocated
PUBLIC	?Grow@?$CUtlMemory@GH@@QAEXH@Z			; CUtlMemory<unsigned short,int>::Grow
PUBLIC	?Purge@?$CUtlMemory@GH@@QAEXXZ			; CUtlMemory<unsigned short,int>::Purge
PUBLIC	?IsExternallyAllocated@?$CUtlMemory@GH@@QBE_NXZ	; CUtlMemory<unsigned short,int>::IsExternallyAllocated
PUBLIC	?IsReadOnly@?$CUtlMemory@GH@@QBE_NXZ		; CUtlMemory<unsigned short,int>::IsReadOnly
PUBLIC	?ValidateGrowSize@?$CUtlMemory@GH@@IAEXXZ	; CUtlMemory<unsigned short,int>::ValidateGrowSize
PUBLIC	?ResetDbgInfo@?$CUtlArray@GV?$CUtlMemory@GH@@@@IAEXXZ ; CUtlArray<unsigned short,CUtlMemory<unsigned short,int> >::ResetDbgInfo
PUBLIC	??0?$CUtlLinkedList@UDecalVertex_t@@G@@QAE@HH@Z	; CUtlLinkedList<DecalVertex_t,unsigned short>::CUtlLinkedList<DecalVertex_t,unsigned short>
PUBLIC	??1?$CUtlLinkedList@UDecalVertex_t@@G@@QAE@XZ	; CUtlLinkedList<DecalVertex_t,unsigned short>::~CUtlLinkedList<DecalVertex_t,unsigned short>
PUBLIC	?Element@?$CUtlLinkedList@UDecalVertex_t@@G@@QAEAAUDecalVertex_t@@G@Z ; CUtlLinkedList<DecalVertex_t,unsigned short>::Element
PUBLIC	??A?$CUtlLinkedList@UDecalVertex_t@@G@@QAEAAUDecalVertex_t@@G@Z ; CUtlLinkedList<DecalVertex_t,unsigned short>::operator[]
PUBLIC	?InsertBefore@?$CUtlLinkedList@UDecalVertex_t@@G@@QAEGG@Z ; CUtlLinkedList<DecalVertex_t,unsigned short>::InsertBefore
PUBLIC	?AddToTail@?$CUtlLinkedList@UDecalVertex_t@@G@@QAEGXZ ; CUtlLinkedList<DecalVertex_t,unsigned short>::AddToTail
PUBLIC	?InsertBefore@?$CUtlLinkedList@UDecalVertex_t@@G@@QAEGGABUDecalVertex_t@@@Z ; CUtlLinkedList<DecalVertex_t,unsigned short>::InsertBefore
PUBLIC	?AddToTail@?$CUtlLinkedList@UDecalVertex_t@@G@@QAEGABUDecalVertex_t@@@Z ; CUtlLinkedList<DecalVertex_t,unsigned short>::AddToTail
PUBLIC	?Remove@?$CUtlLinkedList@UDecalVertex_t@@G@@QAEXG@Z ; CUtlLinkedList<DecalVertex_t,unsigned short>::Remove
PUBLIC	?RemoveAll@?$CUtlLinkedList@UDecalVertex_t@@G@@QAEXXZ ; CUtlLinkedList<DecalVertex_t,unsigned short>::RemoveAll
PUBLIC	?Free@?$CUtlLinkedList@UDecalVertex_t@@G@@QAEXG@Z ; CUtlLinkedList<DecalVertex_t,unsigned short>::Free
PUBLIC	?LinkBefore@?$CUtlLinkedList@UDecalVertex_t@@G@@QAEXGG@Z ; CUtlLinkedList<DecalVertex_t,unsigned short>::LinkBefore
PUBLIC	?Unlink@?$CUtlLinkedList@UDecalVertex_t@@G@@QAEXG@Z ; CUtlLinkedList<DecalVertex_t,unsigned short>::Unlink
PUBLIC	?InvalidIndex@?$CUtlLinkedList@UDecalVertex_t@@G@@SAGXZ ; CUtlLinkedList<DecalVertex_t,unsigned short>::InvalidIndex
PUBLIC	?Count@?$CUtlLinkedList@UDecalVertex_t@@G@@QBEHXZ ; CUtlLinkedList<DecalVertex_t,unsigned short>::Count
PUBLIC	?Head@?$CUtlLinkedList@UDecalVertex_t@@G@@QBEGXZ ; CUtlLinkedList<DecalVertex_t,unsigned short>::Head
PUBLIC	?Previous@?$CUtlLinkedList@UDecalVertex_t@@G@@QBEGG@Z ; CUtlLinkedList<DecalVertex_t,unsigned short>::Previous
PUBLIC	?Next@?$CUtlLinkedList@UDecalVertex_t@@G@@QBEGG@Z ; CUtlLinkedList<DecalVertex_t,unsigned short>::Next
PUBLIC	?IsValidIndex@?$CUtlLinkedList@UDecalVertex_t@@G@@QBE_NG@Z ; CUtlLinkedList<DecalVertex_t,unsigned short>::IsValidIndex
PUBLIC	?IsInList@?$CUtlLinkedList@UDecalVertex_t@@G@@QBE_NG@Z ; CUtlLinkedList<DecalVertex_t,unsigned short>::IsInList
PUBLIC	?AllocInternal@?$CUtlLinkedList@UDecalVertex_t@@G@@IAEG_N@Z ; CUtlLinkedList<DecalVertex_t,unsigned short>::AllocInternal
PUBLIC	?ConstructList@?$CUtlLinkedList@UDecalVertex_t@@G@@IAEXXZ ; CUtlLinkedList<DecalVertex_t,unsigned short>::ConstructList
PUBLIC	?InternalElement@?$CUtlLinkedList@UDecalVertex_t@@G@@IAEAAUListElem_t@1@G@Z ; CUtlLinkedList<DecalVertex_t,unsigned short>::InternalElement
PUBLIC	?InternalElement@?$CUtlLinkedList@UDecalVertex_t@@G@@IBEABUListElem_t@1@G@Z ; CUtlLinkedList<DecalVertex_t,unsigned short>::InternalElement
PUBLIC	?ResetDbgInfo@?$CUtlLinkedList@UDecalVertex_t@@G@@IAEXXZ ; CUtlLinkedList<DecalVertex_t,unsigned short>::ResetDbgInfo
PUBLIC	??0?$CUtlMemory@UListElem_t@?$CUtlLinkedList@UDecalVertex_t@@G@@H@@QAE@HH@Z ; CUtlMemory<CUtlLinkedList<DecalVertex_t,unsigned short>::ListElem_t,int>::CUtlMemory<CUtlLinkedList<DecalVertex_t,unsigned short>::ListElem_t,int>
PUBLIC	??1?$CUtlMemory@UListElem_t@?$CUtlLinkedList@UDecalVertex_t@@G@@H@@QAE@XZ ; CUtlMemory<CUtlLinkedList<DecalVertex_t,unsigned short>::ListElem_t,int>::~CUtlMemory<CUtlLinkedList<DecalVertex_t,unsigned short>::ListElem_t,int>
PUBLIC	??A?$CUtlMemory@UListElem_t@?$CUtlLinkedList@UDecalVertex_t@@G@@H@@QAEAAUListElem_t@?$CUtlLinkedList@UDecalVertex_t@@G@@H@Z ; CUtlMemory<CUtlLinkedList<DecalVertex_t,unsigned short>::ListElem_t,int>::operator[]
PUBLIC	??A?$CUtlMemory@UListElem_t@?$CUtlLinkedList@UDecalVertex_t@@G@@H@@QBEABUListElem_t@?$CUtlLinkedList@UDecalVertex_t@@G@@H@Z ; CUtlMemory<CUtlLinkedList<DecalVertex_t,unsigned short>::ListElem_t,int>::operator[]
PUBLIC	?IsIdxValid@?$CUtlMemory@UListElem_t@?$CUtlLinkedList@UDecalVertex_t@@G@@H@@QBE_NH@Z ; CUtlMemory<CUtlLinkedList<DecalVertex_t,unsigned short>::ListElem_t,int>::IsIdxValid
PUBLIC	?Base@?$CUtlMemory@UListElem_t@?$CUtlLinkedList@UDecalVertex_t@@G@@H@@QAEPAUListElem_t@?$CUtlLinkedList@UDecalVertex_t@@G@@XZ ; CUtlMemory<CUtlLinkedList<DecalVertex_t,unsigned short>::ListElem_t,int>::Base
PUBLIC	?NumAllocated@?$CUtlMemory@UListElem_t@?$CUtlLinkedList@UDecalVertex_t@@G@@H@@QBEHXZ ; CUtlMemory<CUtlLinkedList<DecalVertex_t,unsigned short>::ListElem_t,int>::NumAllocated
PUBLIC	?Grow@?$CUtlMemory@UListElem_t@?$CUtlLinkedList@UDecalVertex_t@@G@@H@@QAEXH@Z ; CUtlMemory<CUtlLinkedList<DecalVertex_t,unsigned short>::ListElem_t,int>::Grow
PUBLIC	?Purge@?$CUtlMemory@UListElem_t@?$CUtlLinkedList@UDecalVertex_t@@G@@H@@QAEXXZ ; CUtlMemory<CUtlLinkedList<DecalVertex_t,unsigned short>::ListElem_t,int>::Purge
PUBLIC	?IsExternallyAllocated@?$CUtlMemory@UListElem_t@?$CUtlLinkedList@UDecalVertex_t@@G@@H@@QBE_NXZ ; CUtlMemory<CUtlLinkedList<DecalVertex_t,unsigned short>::ListElem_t,int>::IsExternallyAllocated
PUBLIC	?IsReadOnly@?$CUtlMemory@UListElem_t@?$CUtlLinkedList@UDecalVertex_t@@G@@H@@QBE_NXZ ; CUtlMemory<CUtlLinkedList<DecalVertex_t,unsigned short>::ListElem_t,int>::IsReadOnly
PUBLIC	?ValidateGrowSize@?$CUtlMemory@UListElem_t@?$CUtlLinkedList@UDecalVertex_t@@G@@H@@IAEXXZ ; CUtlMemory<CUtlLinkedList<DecalVertex_t,unsigned short>::ListElem_t,int>::ValidateGrowSize
PUBLIC	??0?$CUtlLinkedList@UDecal_t@CStudioModelRenderer@@G@@QAE@HH@Z ; CUtlLinkedList<CStudioModelRenderer::Decal_t,unsigned short>::CUtlLinkedList<CStudioModelRenderer::Decal_t,unsigned short>
PUBLIC	??1?$CUtlLinkedList@UDecal_t@CStudioModelRenderer@@G@@QAE@XZ ; CUtlLinkedList<CStudioModelRenderer::Decal_t,unsigned short>::~CUtlLinkedList<CStudioModelRenderer::Decal_t,unsigned short>
PUBLIC	?Element@?$CUtlLinkedList@UDecal_t@CStudioModelRenderer@@G@@QAEAAUDecal_t@CStudioModelRenderer@@G@Z ; CUtlLinkedList<CStudioModelRenderer::Decal_t,unsigned short>::Element
PUBLIC	??A?$CUtlLinkedList@UDecal_t@CStudioModelRenderer@@G@@QAEAAUDecal_t@CStudioModelRenderer@@G@Z ; CUtlLinkedList<CStudioModelRenderer::Decal_t,unsigned short>::operator[]
PUBLIC	?InsertBefore@?$CUtlLinkedList@UDecal_t@CStudioModelRenderer@@G@@QAEGG@Z ; CUtlLinkedList<CStudioModelRenderer::Decal_t,unsigned short>::InsertBefore
PUBLIC	?AddToTail@?$CUtlLinkedList@UDecal_t@CStudioModelRenderer@@G@@QAEGXZ ; CUtlLinkedList<CStudioModelRenderer::Decal_t,unsigned short>::AddToTail
PUBLIC	?Remove@?$CUtlLinkedList@UDecal_t@CStudioModelRenderer@@G@@QAEXG@Z ; CUtlLinkedList<CStudioModelRenderer::Decal_t,unsigned short>::Remove
PUBLIC	?RemoveAll@?$CUtlLinkedList@UDecal_t@CStudioModelRenderer@@G@@QAEXXZ ; CUtlLinkedList<CStudioModelRenderer::Decal_t,unsigned short>::RemoveAll
PUBLIC	?Free@?$CUtlLinkedList@UDecal_t@CStudioModelRenderer@@G@@QAEXG@Z ; CUtlLinkedList<CStudioModelRenderer::Decal_t,unsigned short>::Free
PUBLIC	?LinkBefore@?$CUtlLinkedList@UDecal_t@CStudioModelRenderer@@G@@QAEXGG@Z ; CUtlLinkedList<CStudioModelRenderer::Decal_t,unsigned short>::LinkBefore
PUBLIC	?Unlink@?$CUtlLinkedList@UDecal_t@CStudioModelRenderer@@G@@QAEXG@Z ; CUtlLinkedList<CStudioModelRenderer::Decal_t,unsigned short>::Unlink
PUBLIC	?InvalidIndex@?$CUtlLinkedList@UDecal_t@CStudioModelRenderer@@G@@SAGXZ ; CUtlLinkedList<CStudioModelRenderer::Decal_t,unsigned short>::InvalidIndex
PUBLIC	?Head@?$CUtlLinkedList@UDecal_t@CStudioModelRenderer@@G@@QBEGXZ ; CUtlLinkedList<CStudioModelRenderer::Decal_t,unsigned short>::Head
PUBLIC	?Previous@?$CUtlLinkedList@UDecal_t@CStudioModelRenderer@@G@@QBEGG@Z ; CUtlLinkedList<CStudioModelRenderer::Decal_t,unsigned short>::Previous
PUBLIC	?Next@?$CUtlLinkedList@UDecal_t@CStudioModelRenderer@@G@@QBEGG@Z ; CUtlLinkedList<CStudioModelRenderer::Decal_t,unsigned short>::Next
PUBLIC	?IsValidIndex@?$CUtlLinkedList@UDecal_t@CStudioModelRenderer@@G@@QBE_NG@Z ; CUtlLinkedList<CStudioModelRenderer::Decal_t,unsigned short>::IsValidIndex
PUBLIC	?IsInList@?$CUtlLinkedList@UDecal_t@CStudioModelRenderer@@G@@QBE_NG@Z ; CUtlLinkedList<CStudioModelRenderer::Decal_t,unsigned short>::IsInList
PUBLIC	?AllocInternal@?$CUtlLinkedList@UDecal_t@CStudioModelRenderer@@G@@IAEG_N@Z ; CUtlLinkedList<CStudioModelRenderer::Decal_t,unsigned short>::AllocInternal
PUBLIC	?ConstructList@?$CUtlLinkedList@UDecal_t@CStudioModelRenderer@@G@@IAEXXZ ; CUtlLinkedList<CStudioModelRenderer::Decal_t,unsigned short>::ConstructList
PUBLIC	?InternalElement@?$CUtlLinkedList@UDecal_t@CStudioModelRenderer@@G@@IAEAAUListElem_t@1@G@Z ; CUtlLinkedList<CStudioModelRenderer::Decal_t,unsigned short>::InternalElement
PUBLIC	?InternalElement@?$CUtlLinkedList@UDecal_t@CStudioModelRenderer@@G@@IBEABUListElem_t@1@G@Z ; CUtlLinkedList<CStudioModelRenderer::Decal_t,unsigned short>::InternalElement
PUBLIC	?ResetDbgInfo@?$CUtlLinkedList@UDecal_t@CStudioModelRenderer@@G@@IAEXXZ ; CUtlLinkedList<CStudioModelRenderer::Decal_t,unsigned short>::ResetDbgInfo
PUBLIC	??0?$CUtlMemory@UListElem_t@?$CUtlLinkedList@UDecal_t@CStudioModelRenderer@@G@@H@@QAE@HH@Z ; CUtlMemory<CUtlLinkedList<CStudioModelRenderer::Decal_t,unsigned short>::ListElem_t,int>::CUtlMemory<CUtlLinkedList<CStudioModelRenderer::Decal_t,unsigned short>::ListElem_t,int>
PUBLIC	??1?$CUtlMemory@UListElem_t@?$CUtlLinkedList@UDecal_t@CStudioModelRenderer@@G@@H@@QAE@XZ ; CUtlMemory<CUtlLinkedList<CStudioModelRenderer::Decal_t,unsigned short>::ListElem_t,int>::~CUtlMemory<CUtlLinkedList<CStudioModelRenderer::Decal_t,unsigned short>::ListElem_t,int>
PUBLIC	??A?$CUtlMemory@UListElem_t@?$CUtlLinkedList@UDecal_t@CStudioModelRenderer@@G@@H@@QAEAAUListElem_t@?$CUtlLinkedList@UDecal_t@CStudioModelRenderer@@G@@H@Z ; CUtlMemory<CUtlLinkedList<CStudioModelRenderer::Decal_t,unsigned short>::ListElem_t,int>::operator[]
PUBLIC	??A?$CUtlMemory@UListElem_t@?$CUtlLinkedList@UDecal_t@CStudioModelRenderer@@G@@H@@QBEABUListElem_t@?$CUtlLinkedList@UDecal_t@CStudioModelRenderer@@G@@H@Z ; CUtlMemory<CUtlLinkedList<CStudioModelRenderer::Decal_t,unsigned short>::ListElem_t,int>::operator[]
PUBLIC	?IsIdxValid@?$CUtlMemory@UListElem_t@?$CUtlLinkedList@UDecal_t@CStudioModelRenderer@@G@@H@@QBE_NH@Z ; CUtlMemory<CUtlLinkedList<CStudioModelRenderer::Decal_t,unsigned short>::ListElem_t,int>::IsIdxValid
PUBLIC	?Base@?$CUtlMemory@UListElem_t@?$CUtlLinkedList@UDecal_t@CStudioModelRenderer@@G@@H@@QAEPAUListElem_t@?$CUtlLinkedList@UDecal_t@CStudioModelRenderer@@G@@XZ ; CUtlMemory<CUtlLinkedList<CStudioModelRenderer::Decal_t,unsigned short>::ListElem_t,int>::Base
PUBLIC	?NumAllocated@?$CUtlMemory@UListElem_t@?$CUtlLinkedList@UDecal_t@CStudioModelRenderer@@G@@H@@QBEHXZ ; CUtlMemory<CUtlLinkedList<CStudioModelRenderer::Decal_t,unsigned short>::ListElem_t,int>::NumAllocated
PUBLIC	?Grow@?$CUtlMemory@UListElem_t@?$CUtlLinkedList@UDecal_t@CStudioModelRenderer@@G@@H@@QAEXH@Z ; CUtlMemory<CUtlLinkedList<CStudioModelRenderer::Decal_t,unsigned short>::ListElem_t,int>::Grow
PUBLIC	?Purge@?$CUtlMemory@UListElem_t@?$CUtlLinkedList@UDecal_t@CStudioModelRenderer@@G@@H@@QAEXXZ ; CUtlMemory<CUtlLinkedList<CStudioModelRenderer::Decal_t,unsigned short>::ListElem_t,int>::Purge
PUBLIC	?IsExternallyAllocated@?$CUtlMemory@UListElem_t@?$CUtlLinkedList@UDecal_t@CStudioModelRenderer@@G@@H@@QBE_NXZ ; CUtlMemory<CUtlLinkedList<CStudioModelRenderer::Decal_t,unsigned short>::ListElem_t,int>::IsExternallyAllocated
PUBLIC	?IsReadOnly@?$CUtlMemory@UListElem_t@?$CUtlLinkedList@UDecal_t@CStudioModelRenderer@@G@@H@@QBE_NXZ ; CUtlMemory<CUtlLinkedList<CStudioModelRenderer::Decal_t,unsigned short>::ListElem_t,int>::IsReadOnly
PUBLIC	?ValidateGrowSize@?$CUtlMemory@UListElem_t@?$CUtlLinkedList@UDecal_t@CStudioModelRenderer@@G@@H@@IAEXXZ ; CUtlMemory<CUtlLinkedList<CStudioModelRenderer::Decal_t,unsigned short>::ListElem_t,int>::ValidateGrowSize
PUBLIC	??0DecalMaterial_t@CStudioModelRenderer@@QAE@XZ	; CStudioModelRenderer::DecalMaterial_t::DecalMaterial_t
PUBLIC	??1DecalMaterial_t@CStudioModelRenderer@@QAE@XZ	; CStudioModelRenderer::DecalMaterial_t::~DecalMaterial_t
PUBLIC	??_GDecalMaterial_t@CStudioModelRenderer@@QAEPAXI@Z ; CStudioModelRenderer::DecalMaterial_t::`scalar deleting destructor'
PUBLIC	??0?$CUtlLinkedList@UDecalHistory_t@CStudioModelRenderer@@G@@QAE@HH@Z ; CUtlLinkedList<CStudioModelRenderer::DecalHistory_t,unsigned short>::CUtlLinkedList<CStudioModelRenderer::DecalHistory_t,unsigned short>
PUBLIC	??1?$CUtlLinkedList@UDecalHistory_t@CStudioModelRenderer@@G@@QAE@XZ ; CUtlLinkedList<CStudioModelRenderer::DecalHistory_t,unsigned short>::~CUtlLinkedList<CStudioModelRenderer::DecalHistory_t,unsigned short>
PUBLIC	?Element@?$CUtlLinkedList@UDecalHistory_t@CStudioModelRenderer@@G@@QAEAAUDecalHistory_t@CStudioModelRenderer@@G@Z ; CUtlLinkedList<CStudioModelRenderer::DecalHistory_t,unsigned short>::Element
PUBLIC	??A?$CUtlLinkedList@UDecalHistory_t@CStudioModelRenderer@@G@@QAEAAUDecalHistory_t@CStudioModelRenderer@@G@Z ; CUtlLinkedList<CStudioModelRenderer::DecalHistory_t,unsigned short>::operator[]
PUBLIC	?InsertBefore@?$CUtlLinkedList@UDecalHistory_t@CStudioModelRenderer@@G@@QAEGG@Z ; CUtlLinkedList<CStudioModelRenderer::DecalHistory_t,unsigned short>::InsertBefore
PUBLIC	?AddToTail@?$CUtlLinkedList@UDecalHistory_t@CStudioModelRenderer@@G@@QAEGXZ ; CUtlLinkedList<CStudioModelRenderer::DecalHistory_t,unsigned short>::AddToTail
PUBLIC	?Remove@?$CUtlLinkedList@UDecalHistory_t@CStudioModelRenderer@@G@@QAEXG@Z ; CUtlLinkedList<CStudioModelRenderer::DecalHistory_t,unsigned short>::Remove
PUBLIC	?RemoveAll@?$CUtlLinkedList@UDecalHistory_t@CStudioModelRenderer@@G@@QAEXXZ ; CUtlLinkedList<CStudioModelRenderer::DecalHistory_t,unsigned short>::RemoveAll
PUBLIC	?Free@?$CUtlLinkedList@UDecalHistory_t@CStudioModelRenderer@@G@@QAEXG@Z ; CUtlLinkedList<CStudioModelRenderer::DecalHistory_t,unsigned short>::Free
PUBLIC	?LinkBefore@?$CUtlLinkedList@UDecalHistory_t@CStudioModelRenderer@@G@@QAEXGG@Z ; CUtlLinkedList<CStudioModelRenderer::DecalHistory_t,unsigned short>::LinkBefore
PUBLIC	?Unlink@?$CUtlLinkedList@UDecalHistory_t@CStudioModelRenderer@@G@@QAEXG@Z ; CUtlLinkedList<CStudioModelRenderer::DecalHistory_t,unsigned short>::Unlink
PUBLIC	?InvalidIndex@?$CUtlLinkedList@UDecalHistory_t@CStudioModelRenderer@@G@@SAGXZ ; CUtlLinkedList<CStudioModelRenderer::DecalHistory_t,unsigned short>::InvalidIndex
PUBLIC	?Count@?$CUtlLinkedList@UDecalHistory_t@CStudioModelRenderer@@G@@QBEHXZ ; CUtlLinkedList<CStudioModelRenderer::DecalHistory_t,unsigned short>::Count
PUBLIC	?Head@?$CUtlLinkedList@UDecalHistory_t@CStudioModelRenderer@@G@@QBEGXZ ; CUtlLinkedList<CStudioModelRenderer::DecalHistory_t,unsigned short>::Head
PUBLIC	?Previous@?$CUtlLinkedList@UDecalHistory_t@CStudioModelRenderer@@G@@QBEGG@Z ; CUtlLinkedList<CStudioModelRenderer::DecalHistory_t,unsigned short>::Previous
PUBLIC	?IsValidIndex@?$CUtlLinkedList@UDecalHistory_t@CStudioModelRenderer@@G@@QBE_NG@Z ; CUtlLinkedList<CStudioModelRenderer::DecalHistory_t,unsigned short>::IsValidIndex
PUBLIC	?IsInList@?$CUtlLinkedList@UDecalHistory_t@CStudioModelRenderer@@G@@QBE_NG@Z ; CUtlLinkedList<CStudioModelRenderer::DecalHistory_t,unsigned short>::IsInList
PUBLIC	?AllocInternal@?$CUtlLinkedList@UDecalHistory_t@CStudioModelRenderer@@G@@IAEG_N@Z ; CUtlLinkedList<CStudioModelRenderer::DecalHistory_t,unsigned short>::AllocInternal
PUBLIC	?ConstructList@?$CUtlLinkedList@UDecalHistory_t@CStudioModelRenderer@@G@@IAEXXZ ; CUtlLinkedList<CStudioModelRenderer::DecalHistory_t,unsigned short>::ConstructList
PUBLIC	?InternalElement@?$CUtlLinkedList@UDecalHistory_t@CStudioModelRenderer@@G@@IAEAAUListElem_t@1@G@Z ; CUtlLinkedList<CStudioModelRenderer::DecalHistory_t,unsigned short>::InternalElement
PUBLIC	?InternalElement@?$CUtlLinkedList@UDecalHistory_t@CStudioModelRenderer@@G@@IBEABUListElem_t@1@G@Z ; CUtlLinkedList<CStudioModelRenderer::DecalHistory_t,unsigned short>::InternalElement
PUBLIC	?ResetDbgInfo@?$CUtlLinkedList@UDecalHistory_t@CStudioModelRenderer@@G@@IAEXXZ ; CUtlLinkedList<CStudioModelRenderer::DecalHistory_t,unsigned short>::ResetDbgInfo
PUBLIC	??0?$CUtlMemory@UListElem_t@?$CUtlLinkedList@UDecalHistory_t@CStudioModelRenderer@@G@@H@@QAE@HH@Z ; CUtlMemory<CUtlLinkedList<CStudioModelRenderer::DecalHistory_t,unsigned short>::ListElem_t,int>::CUtlMemory<CUtlLinkedList<CStudioModelRenderer::DecalHistory_t,unsigned short>::ListElem_t,int>
PUBLIC	??1?$CUtlMemory@UListElem_t@?$CUtlLinkedList@UDecalHistory_t@CStudioModelRenderer@@G@@H@@QAE@XZ ; CUtlMemory<CUtlLinkedList<CStudioModelRenderer::DecalHistory_t,unsigned short>::ListElem_t,int>::~CUtlMemory<CUtlLinkedList<CStudioModelRenderer::DecalHistory_t,unsigned short>::ListElem_t,int>
PUBLIC	??A?$CUtlMemory@UListElem_t@?$CUtlLinkedList@UDecalHistory_t@CStudioModelRenderer@@G@@H@@QAEAAUListElem_t@?$CUtlLinkedList@UDecalHistory_t@CStudioModelRenderer@@G@@H@Z ; CUtlMemory<CUtlLinkedList<CStudioModelRenderer::DecalHistory_t,unsigned short>::ListElem_t,int>::operator[]
PUBLIC	??A?$CUtlMemory@UListElem_t@?$CUtlLinkedList@UDecalHistory_t@CStudioModelRenderer@@G@@H@@QBEABUListElem_t@?$CUtlLinkedList@UDecalHistory_t@CStudioModelRenderer@@G@@H@Z ; CUtlMemory<CUtlLinkedList<CStudioModelRenderer::DecalHistory_t,unsigned short>::ListElem_t,int>::operator[]
PUBLIC	?IsIdxValid@?$CUtlMemory@UListElem_t@?$CUtlLinkedList@UDecalHistory_t@CStudioModelRenderer@@G@@H@@QBE_NH@Z ; CUtlMemory<CUtlLinkedList<CStudioModelRenderer::DecalHistory_t,unsigned short>::ListElem_t,int>::IsIdxValid
PUBLIC	?Base@?$CUtlMemory@UListElem_t@?$CUtlLinkedList@UDecalHistory_t@CStudioModelRenderer@@G@@H@@QAEPAUListElem_t@?$CUtlLinkedList@UDecalHistory_t@CStudioModelRenderer@@G@@XZ ; CUtlMemory<CUtlLinkedList<CStudioModelRenderer::DecalHistory_t,unsigned short>::ListElem_t,int>::Base
PUBLIC	?NumAllocated@?$CUtlMemory@UListElem_t@?$CUtlLinkedList@UDecalHistory_t@CStudioModelRenderer@@G@@H@@QBEHXZ ; CUtlMemory<CUtlLinkedList<CStudioModelRenderer::DecalHistory_t,unsigned short>::ListElem_t,int>::NumAllocated
PUBLIC	?Grow@?$CUtlMemory@UListElem_t@?$CUtlLinkedList@UDecalHistory_t@CStudioModelRenderer@@G@@H@@QAEXH@Z ; CUtlMemory<CUtlLinkedList<CStudioModelRenderer::DecalHistory_t,unsigned short>::ListElem_t,int>::Grow
PUBLIC	?Purge@?$CUtlMemory@UListElem_t@?$CUtlLinkedList@UDecalHistory_t@CStudioModelRenderer@@G@@H@@QAEXXZ ; CUtlMemory<CUtlLinkedList<CStudioModelRenderer::DecalHistory_t,unsigned short>::ListElem_t,int>::Purge
PUBLIC	?IsExternallyAllocated@?$CUtlMemory@UListElem_t@?$CUtlLinkedList@UDecalHistory_t@CStudioModelRenderer@@G@@H@@QBE_NXZ ; CUtlMemory<CUtlLinkedList<CStudioModelRenderer::DecalHistory_t,unsigned short>::ListElem_t,int>::IsExternallyAllocated
PUBLIC	?IsReadOnly@?$CUtlMemory@UListElem_t@?$CUtlLinkedList@UDecalHistory_t@CStudioModelRenderer@@G@@H@@QBE_NXZ ; CUtlMemory<CUtlLinkedList<CStudioModelRenderer::DecalHistory_t,unsigned short>::ListElem_t,int>::IsReadOnly
PUBLIC	?ValidateGrowSize@?$CUtlMemory@UListElem_t@?$CUtlLinkedList@UDecalHistory_t@CStudioModelRenderer@@G@@H@@IAEXXZ ; CUtlMemory<CUtlLinkedList<CStudioModelRenderer::DecalHistory_t,unsigned short>::ListElem_t,int>::ValidateGrowSize
PUBLIC	??0DecalModelList_t@CStudioModelRenderer@@QAE@XZ ; CStudioModelRenderer::DecalModelList_t::DecalModelList_t
PUBLIC	??1DecalModelList_t@CStudioModelRenderer@@QAE@XZ ; CStudioModelRenderer::DecalModelList_t::~DecalModelList_t
PUBLIC	??_GDecalModelList_t@CStudioModelRenderer@@QAEPAXI@Z ; CStudioModelRenderer::DecalModelList_t::`scalar deleting destructor'
PUBLIC	??0DecalBuildInfo_t@CStudioModelRenderer@@QAE@XZ ; CStudioModelRenderer::DecalBuildInfo_t::DecalBuildInfo_t
PUBLIC	?Element@?$CUtlLinkedList@UDecalMaterial_t@CStudioModelRenderer@@G@@QAEAAUDecalMaterial_t@CStudioModelRenderer@@G@Z ; CUtlLinkedList<CStudioModelRenderer::DecalMaterial_t,unsigned short>::Element
PUBLIC	??A?$CUtlLinkedList@UDecalMaterial_t@CStudioModelRenderer@@G@@QAEAAUDecalMaterial_t@CStudioModelRenderer@@G@Z ; CUtlLinkedList<CStudioModelRenderer::DecalMaterial_t,unsigned short>::operator[]
PUBLIC	?Remove@?$CUtlLinkedList@UDecalMaterial_t@CStudioModelRenderer@@G@@QAEXG@Z ; CUtlLinkedList<CStudioModelRenderer::DecalMaterial_t,unsigned short>::Remove
PUBLIC	?Alloc@?$CUtlLinkedList@UDecalMaterial_t@CStudioModelRenderer@@G@@QAEG_N@Z ; CUtlLinkedList<CStudioModelRenderer::DecalMaterial_t,unsigned short>::Alloc
PUBLIC	?Free@?$CUtlLinkedList@UDecalMaterial_t@CStudioModelRenderer@@G@@QAEXG@Z ; CUtlLinkedList<CStudioModelRenderer::DecalMaterial_t,unsigned short>::Free
PUBLIC	?LinkBefore@?$CUtlLinkedList@UDecalMaterial_t@CStudioModelRenderer@@G@@QAEXGG@Z ; CUtlLinkedList<CStudioModelRenderer::DecalMaterial_t,unsigned short>::LinkBefore
PUBLIC	?Unlink@?$CUtlLinkedList@UDecalMaterial_t@CStudioModelRenderer@@G@@QAEXG@Z ; CUtlLinkedList<CStudioModelRenderer::DecalMaterial_t,unsigned short>::Unlink
PUBLIC	?InvalidIndex@?$CUtlLinkedList@UDecalMaterial_t@CStudioModelRenderer@@G@@SAGXZ ; CUtlLinkedList<CStudioModelRenderer::DecalMaterial_t,unsigned short>::InvalidIndex
PUBLIC	?Previous@?$CUtlLinkedList@UDecalMaterial_t@CStudioModelRenderer@@G@@QBEGG@Z ; CUtlLinkedList<CStudioModelRenderer::DecalMaterial_t,unsigned short>::Previous
PUBLIC	?Next@?$CUtlLinkedList@UDecalMaterial_t@CStudioModelRenderer@@G@@QBEGG@Z ; CUtlLinkedList<CStudioModelRenderer::DecalMaterial_t,unsigned short>::Next
PUBLIC	?IsValidIndex@?$CUtlLinkedList@UDecalMaterial_t@CStudioModelRenderer@@G@@QBE_NG@Z ; CUtlLinkedList<CStudioModelRenderer::DecalMaterial_t,unsigned short>::IsValidIndex
PUBLIC	?IsInList@?$CUtlLinkedList@UDecalMaterial_t@CStudioModelRenderer@@G@@QBE_NG@Z ; CUtlLinkedList<CStudioModelRenderer::DecalMaterial_t,unsigned short>::IsInList
PUBLIC	?AllocInternal@?$CUtlLinkedList@UDecalMaterial_t@CStudioModelRenderer@@G@@IAEG_N@Z ; CUtlLinkedList<CStudioModelRenderer::DecalMaterial_t,unsigned short>::AllocInternal
PUBLIC	?InternalElement@?$CUtlLinkedList@UDecalMaterial_t@CStudioModelRenderer@@G@@IAEAAUListElem_t@1@G@Z ; CUtlLinkedList<CStudioModelRenderer::DecalMaterial_t,unsigned short>::InternalElement
PUBLIC	?InternalElement@?$CUtlLinkedList@UDecalMaterial_t@CStudioModelRenderer@@G@@IBEABUListElem_t@1@G@Z ; CUtlLinkedList<CStudioModelRenderer::DecalMaterial_t,unsigned short>::InternalElement
PUBLIC	?ResetDbgInfo@?$CUtlLinkedList@UDecalMaterial_t@CStudioModelRenderer@@G@@IAEXXZ ; CUtlLinkedList<CStudioModelRenderer::DecalMaterial_t,unsigned short>::ResetDbgInfo
PUBLIC	??A?$CUtlMemory@UListElem_t@?$CUtlLinkedList@UDecalMaterial_t@CStudioModelRenderer@@G@@H@@QAEAAUListElem_t@?$CUtlLinkedList@UDecalMaterial_t@CStudioModelRenderer@@G@@H@Z ; CUtlMemory<CUtlLinkedList<CStudioModelRenderer::DecalMaterial_t,unsigned short>::ListElem_t,int>::operator[]
PUBLIC	??A?$CUtlMemory@UListElem_t@?$CUtlLinkedList@UDecalMaterial_t@CStudioModelRenderer@@G@@H@@QBEABUListElem_t@?$CUtlLinkedList@UDecalMaterial_t@CStudioModelRenderer@@G@@H@Z ; CUtlMemory<CUtlLinkedList<CStudioModelRenderer::DecalMaterial_t,unsigned short>::ListElem_t,int>::operator[]
PUBLIC	?IsIdxValid@?$CUtlMemory@UListElem_t@?$CUtlLinkedList@UDecalMaterial_t@CStudioModelRenderer@@G@@H@@QBE_NH@Z ; CUtlMemory<CUtlLinkedList<CStudioModelRenderer::DecalMaterial_t,unsigned short>::ListElem_t,int>::IsIdxValid
PUBLIC	?Base@?$CUtlMemory@UListElem_t@?$CUtlLinkedList@UDecalMaterial_t@CStudioModelRenderer@@G@@H@@QAEPAUListElem_t@?$CUtlLinkedList@UDecalMaterial_t@CStudioModelRenderer@@G@@XZ ; CUtlMemory<CUtlLinkedList<CStudioModelRenderer::DecalMaterial_t,unsigned short>::ListElem_t,int>::Base
PUBLIC	?NumAllocated@?$CUtlMemory@UListElem_t@?$CUtlLinkedList@UDecalMaterial_t@CStudioModelRenderer@@G@@H@@QBEHXZ ; CUtlMemory<CUtlLinkedList<CStudioModelRenderer::DecalMaterial_t,unsigned short>::ListElem_t,int>::NumAllocated
PUBLIC	?Grow@?$CUtlMemory@UListElem_t@?$CUtlLinkedList@UDecalMaterial_t@CStudioModelRenderer@@G@@H@@QAEXH@Z ; CUtlMemory<CUtlLinkedList<CStudioModelRenderer::DecalMaterial_t,unsigned short>::ListElem_t,int>::Grow
PUBLIC	?IsExternallyAllocated@?$CUtlMemory@UListElem_t@?$CUtlLinkedList@UDecalMaterial_t@CStudioModelRenderer@@G@@H@@QBE_NXZ ; CUtlMemory<CUtlLinkedList<CStudioModelRenderer::DecalMaterial_t,unsigned short>::ListElem_t,int>::IsExternallyAllocated
PUBLIC	?IsReadOnly@?$CUtlMemory@UListElem_t@?$CUtlLinkedList@UDecalMaterial_t@CStudioModelRenderer@@G@@H@@QBE_NXZ ; CUtlMemory<CUtlLinkedList<CStudioModelRenderer::DecalMaterial_t,unsigned short>::ListElem_t,int>::IsReadOnly
PUBLIC	?Element@?$CUtlLinkedList@UDecalModelList_t@CStudioModelRenderer@@G@@QAEAAUDecalModelList_t@CStudioModelRenderer@@G@Z ; CUtlLinkedList<CStudioModelRenderer::DecalModelList_t,unsigned short>::Element
PUBLIC	??A?$CUtlLinkedList@UDecalModelList_t@CStudioModelRenderer@@G@@QAEAAUDecalModelList_t@CStudioModelRenderer@@G@Z ; CUtlLinkedList<CStudioModelRenderer::DecalModelList_t,unsigned short>::operator[]
PUBLIC	?InsertBefore@?$CUtlLinkedList@UDecalModelList_t@CStudioModelRenderer@@G@@QAEGG@Z ; CUtlLinkedList<CStudioModelRenderer::DecalModelList_t,unsigned short>::InsertBefore
PUBLIC	?AddToTail@?$CUtlLinkedList@UDecalModelList_t@CStudioModelRenderer@@G@@QAEGXZ ; CUtlLinkedList<CStudioModelRenderer::DecalModelList_t,unsigned short>::AddToTail
PUBLIC	?Remove@?$CUtlLinkedList@UDecalModelList_t@CStudioModelRenderer@@G@@QAEXG@Z ; CUtlLinkedList<CStudioModelRenderer::DecalModelList_t,unsigned short>::Remove
PUBLIC	?Free@?$CUtlLinkedList@UDecalModelList_t@CStudioModelRenderer@@G@@QAEXG@Z ; CUtlLinkedList<CStudioModelRenderer::DecalModelList_t,unsigned short>::Free
PUBLIC	?LinkBefore@?$CUtlLinkedList@UDecalModelList_t@CStudioModelRenderer@@G@@QAEXGG@Z ; CUtlLinkedList<CStudioModelRenderer::DecalModelList_t,unsigned short>::LinkBefore
PUBLIC	?Unlink@?$CUtlLinkedList@UDecalModelList_t@CStudioModelRenderer@@G@@QAEXG@Z ; CUtlLinkedList<CStudioModelRenderer::DecalModelList_t,unsigned short>::Unlink
PUBLIC	?InvalidIndex@?$CUtlLinkedList@UDecalModelList_t@CStudioModelRenderer@@G@@SAGXZ ; CUtlLinkedList<CStudioModelRenderer::DecalModelList_t,unsigned short>::InvalidIndex
PUBLIC	?Previous@?$CUtlLinkedList@UDecalModelList_t@CStudioModelRenderer@@G@@QBEGG@Z ; CUtlLinkedList<CStudioModelRenderer::DecalModelList_t,unsigned short>::Previous
PUBLIC	?IsValidIndex@?$CUtlLinkedList@UDecalModelList_t@CStudioModelRenderer@@G@@QBE_NG@Z ; CUtlLinkedList<CStudioModelRenderer::DecalModelList_t,unsigned short>::IsValidIndex
PUBLIC	?IsInList@?$CUtlLinkedList@UDecalModelList_t@CStudioModelRenderer@@G@@QBE_NG@Z ; CUtlLinkedList<CStudioModelRenderer::DecalModelList_t,unsigned short>::IsInList
PUBLIC	?AllocInternal@?$CUtlLinkedList@UDecalModelList_t@CStudioModelRenderer@@G@@IAEG_N@Z ; CUtlLinkedList<CStudioModelRenderer::DecalModelList_t,unsigned short>::AllocInternal
PUBLIC	?InternalElement@?$CUtlLinkedList@UDecalModelList_t@CStudioModelRenderer@@G@@IAEAAUListElem_t@1@G@Z ; CUtlLinkedList<CStudioModelRenderer::DecalModelList_t,unsigned short>::InternalElement
PUBLIC	?InternalElement@?$CUtlLinkedList@UDecalModelList_t@CStudioModelRenderer@@G@@IBEABUListElem_t@1@G@Z ; CUtlLinkedList<CStudioModelRenderer::DecalModelList_t,unsigned short>::InternalElement
PUBLIC	?ResetDbgInfo@?$CUtlLinkedList@UDecalModelList_t@CStudioModelRenderer@@G@@IAEXXZ ; CUtlLinkedList<CStudioModelRenderer::DecalModelList_t,unsigned short>::ResetDbgInfo
PUBLIC	??A?$CUtlMemory@UListElem_t@?$CUtlLinkedList@UDecalModelList_t@CStudioModelRenderer@@G@@H@@QAEAAUListElem_t@?$CUtlLinkedList@UDecalModelList_t@CStudioModelRenderer@@G@@H@Z ; CUtlMemory<CUtlLinkedList<CStudioModelRenderer::DecalModelList_t,unsigned short>::ListElem_t,int>::operator[]
PUBLIC	??A?$CUtlMemory@UListElem_t@?$CUtlLinkedList@UDecalModelList_t@CStudioModelRenderer@@G@@H@@QBEABUListElem_t@?$CUtlLinkedList@UDecalModelList_t@CStudioModelRenderer@@G@@H@Z ; CUtlMemory<CUtlLinkedList<CStudioModelRenderer::DecalModelList_t,unsigned short>::ListElem_t,int>::operator[]
PUBLIC	?IsIdxValid@?$CUtlMemory@UListElem_t@?$CUtlLinkedList@UDecalModelList_t@CStudioModelRenderer@@G@@H@@QBE_NH@Z ; CUtlMemory<CUtlLinkedList<CStudioModelRenderer::DecalModelList_t,unsigned short>::ListElem_t,int>::IsIdxValid
PUBLIC	?Base@?$CUtlMemory@UListElem_t@?$CUtlLinkedList@UDecalModelList_t@CStudioModelRenderer@@G@@H@@QAEPAUListElem_t@?$CUtlLinkedList@UDecalModelList_t@CStudioModelRenderer@@G@@XZ ; CUtlMemory<CUtlLinkedList<CStudioModelRenderer::DecalModelList_t,unsigned short>::ListElem_t,int>::Base
PUBLIC	?NumAllocated@?$CUtlMemory@UListElem_t@?$CUtlLinkedList@UDecalModelList_t@CStudioModelRenderer@@G@@H@@QBEHXZ ; CUtlMemory<CUtlLinkedList<CStudioModelRenderer::DecalModelList_t,unsigned short>::ListElem_t,int>::NumAllocated
PUBLIC	?Grow@?$CUtlMemory@UListElem_t@?$CUtlLinkedList@UDecalModelList_t@CStudioModelRenderer@@G@@H@@QAEXH@Z ; CUtlMemory<CUtlLinkedList<CStudioModelRenderer::DecalModelList_t,unsigned short>::ListElem_t,int>::Grow
PUBLIC	?IsExternallyAllocated@?$CUtlMemory@UListElem_t@?$CUtlLinkedList@UDecalModelList_t@CStudioModelRenderer@@G@@H@@QBE_NXZ ; CUtlMemory<CUtlLinkedList<CStudioModelRenderer::DecalModelList_t,unsigned short>::ListElem_t,int>::IsExternallyAllocated
PUBLIC	?IsReadOnly@?$CUtlMemory@UListElem_t@?$CUtlLinkedList@UDecalModelList_t@CStudioModelRenderer@@G@@H@@QBE_NXZ ; CUtlMemory<CUtlLinkedList<CStudioModelRenderer::DecalModelList_t,unsigned short>::ListElem_t,int>::IsReadOnly
PUBLIC	??A?$CUtlLinkedList@UModelInstance_t@CStudioModelRenderer@@G@@QAEAAUModelInstance_t@CStudioModelRenderer@@G@Z ; CUtlLinkedList<CStudioModelRenderer::ModelInstance_t,unsigned short>::operator[]
PUBLIC	?Count@?$CUtlLinkedList@UModelInstance_t@CStudioModelRenderer@@G@@QBEHXZ ; CUtlLinkedList<CStudioModelRenderer::ModelInstance_t,unsigned short>::Count
PUBLIC	??A?$CUtlMemory@UListElem_t@?$CUtlLinkedList@UModelInstance_t@CStudioModelRenderer@@G@@H@@QAEAAUListElem_t@?$CUtlLinkedList@UModelInstance_t@CStudioModelRenderer@@G@@H@Z ; CUtlMemory<CUtlLinkedList<CStudioModelRenderer::ModelInstance_t,unsigned short>::ListElem_t,int>::operator[]
PUBLIC	?IsIdxValid@?$CUtlMemory@UListElem_t@?$CUtlLinkedList@UModelInstance_t@CStudioModelRenderer@@G@@H@@QBE_NH@Z ; CUtlMemory<CUtlLinkedList<CStudioModelRenderer::ModelInstance_t,unsigned short>::ListElem_t,int>::IsIdxValid
PUBLIC	?IsReadOnly@?$CUtlMemory@UListElem_t@?$CUtlLinkedList@UModelInstance_t@CStudioModelRenderer@@G@@H@@QBE_NXZ ; CUtlMemory<CUtlLinkedList<CStudioModelRenderer::ModelInstance_t,unsigned short>::ListElem_t,int>::IsReadOnly
PUBLIC	?ComputePoseToDecal@CStudioModelRenderer@@AAE_NABVVector@@0@Z ; CStudioModelRenderer::ComputePoseToDecal
PUBLIC	?AddDecalToModel@CStudioModelRenderer@@AAEXAAUDecalBuildInfo_t@1@@Z ; CStudioModelRenderer::AddDecalToModel
PUBLIC	?AddDecalToMesh@CStudioModelRenderer@@AAEXAAUDecalBuildInfo_t@1@@Z ; CStudioModelRenderer::AddDecalToMesh
PUBLIC	?ProjectDecalOntoMesh@CStudioModelRenderer@@AAEXAAUDecalBuildInfo_t@1@@Z ; CStudioModelRenderer::ProjectDecalOntoMesh
PUBLIC	?IsFrontFacing@CStudioModelRenderer@@AAE_NABVVector@@PAUmstudioboneweight_t@@@Z ; CStudioModelRenderer::IsFrontFacing
PUBLIC	?TransformToDecalSpace@CStudioModelRenderer@@AAE_NAAUDecalBuildInfo_t@1@ABVVector@@PAUmstudioboneweight_t@@AAVVector2D@@@Z ; CStudioModelRenderer::TransformToDecalSpace
PUBLIC	?GetDecalRotateTransform@CStudioModelRenderer@@AAE?AVmatrix3x3@@E@Z ; CStudioModelRenderer::GetDecalRotateTransform
PUBLIC	?AddTriangleToDecal@CStudioModelRenderer@@AAEXAAUDecalBuildInfo_t@1@HHH@Z ; CStudioModelRenderer::AddTriangleToDecal
PUBLIC	?ComputeClipFlags@CStudioModelRenderer@@AAEHABVVector2D@@@Z ; CStudioModelRenderer::ComputeClipFlags
PUBLIC	?ClipDecal@CStudioModelRenderer@@AAE_NAAUDecalBuildInfo_t@1@HHHPAH@Z ; CStudioModelRenderer::ClipDecal
PUBLIC	?ConvertMeshVertexToDecalVertex@CStudioModelRenderer@@AAEXAAUDecalBuildInfo_t@1@HAAUDecalVertex_t@@@Z ; CStudioModelRenderer::ConvertMeshVertexToDecalVertex
PUBLIC	?ClipTriangleAgainstPlane@CStudioModelRenderer@@AAEXAAUDecalClipState_t@@HHM@Z ; CStudioModelRenderer::ClipTriangleAgainstPlane
PUBLIC	?IntersectPlane@CStudioModelRenderer@@AAEHAAUDecalClipState_t@@HHHM@Z ; CStudioModelRenderer::IntersectPlane
PUBLIC	?AddVertexToDecal@CStudioModelRenderer@@AAEGAAUDecalBuildInfo_t@1@H@Z ; CStudioModelRenderer::AddVertexToDecal
PUBLIC	?AddVertexToDecal@CStudioModelRenderer@@AAEGAAUDecalBuildInfo_t@1@AAUDecalVertex_t@@@Z ; CStudioModelRenderer::AddVertexToDecal
PUBLIC	?AddClippedDecalToTriangle@CStudioModelRenderer@@AAEXAAUDecalBuildInfo_t@1@AAUDecalClipState_t@@@Z ; CStudioModelRenderer::AddClippedDecalToTriangle
PUBLIC	?GetDecalMaterial@CStudioModelRenderer@@AAEHAAUDecalModelList_t@1@HPAUmstudiomat_s@@_N@Z ; CStudioModelRenderer::GetDecalMaterial
PUBLIC	?ShouldRetireDecal@CStudioModelRenderer@@AAE_NPAUDecalMaterial_t@1@ABV?$CUtlLinkedList@UDecalHistory_t@CStudioModelRenderer@@G@@@Z ; CStudioModelRenderer::ShouldRetireDecal
PUBLIC	?CreateDecalForMaterial@CStudioModelRenderer@@AAEXAAUDecalBuildInfo_t@1@@Z ; CStudioModelRenderer::CreateDecalForMaterial
PUBLIC	?AddDecalToMaterialList@CStudioModelRenderer@@AAEHPAUDecalMaterial_t@1@@Z ; CStudioModelRenderer::AddDecalToMaterialList
PUBLIC	?RetireDecal@CStudioModelRenderer@@AAEXAAV?$CUtlLinkedList@UDecalHistory_t@CStudioModelRenderer@@G@@@Z ; CStudioModelRenderer::RetireDecal
PUBLIC	?DestroyDecalList@CStudioModelRenderer@@AAEXG@Z	; CStudioModelRenderer::DestroyDecalList
PUBLIC	?CreateDecalList@CStudioModelRenderer@@AAEGXZ	; CStudioModelRenderer::CreateDecalList
PUBLIC	?DrawDecal@CStudioModelRenderer@@AAEXPAUcl_entity_s@@@Z ; CStudioModelRenderer::DrawDecal
PUBLIC	?ComputeDecalTransform@CStudioModelRenderer@@AAEXAAUDecalMaterial_t@1@QBVmatrix3x4@@@Z ; CStudioModelRenderer::ComputeDecalTransform
PUBLIC	?DrawDecalMaterial@CStudioModelRenderer@@AAEXAAUDecalMaterial_t@1@QBVmatrix3x4@@@Z ; CStudioModelRenderer::DrawDecalMaterial
PUBLIC	?StudioDecalShoot@CStudioModelRenderer@@QAEXABVVector@@0HPAUcl_entity_s@@HPAUmodelstate_s@@@Z ; CStudioModelRenderer::StudioDecalShoot
PUBLIC	?StudioDecalList@CStudioModelRenderer@@QAEHPAUdecallist_s@@H@Z ; CStudioModelRenderer::StudioDecalList
PUBLIC	?StudioClearDecals@CStudioModelRenderer@@QAEXXZ	; CStudioModelRenderer::StudioClearDecals
PUBLIC	?RemoveAllDecals@CStudioModelRenderer@@QAEXH@Z	; CStudioModelRenderer::RemoveAllDecals
PUBLIC	??$Destruct@G@@YAXPAG@Z				; Destruct<unsigned short>
PUBLIC	??$Construct@UDecalMaterial_t@CStudioModelRenderer@@@@YAXPAUDecalMaterial_t@CStudioModelRenderer@@@Z ; Construct<CStudioModelRenderer::DecalMaterial_t>
PUBLIC	??$CopyConstruct@UDecalVertex_t@@@@YAXPAUDecalVertex_t@@ABU0@@Z ; CopyConstruct<DecalVertex_t>
PUBLIC	??$Construct@UDecalVertex_t@@@@YAXPAUDecalVertex_t@@@Z ; Construct<DecalVertex_t>
PUBLIC	??$Destruct@UDecalVertex_t@@@@YAXPAUDecalVertex_t@@@Z ; Destruct<DecalVertex_t>
PUBLIC	??$CopyConstruct@G@@YAXPAGABG@Z			; CopyConstruct<unsigned short>
PUBLIC	??$Construct@UDecal_t@CStudioModelRenderer@@@@YAXPAUDecal_t@CStudioModelRenderer@@@Z ; Construct<CStudioModelRenderer::Decal_t>
PUBLIC	??$Destruct@UDecal_t@CStudioModelRenderer@@@@YAXPAUDecal_t@CStudioModelRenderer@@@Z ; Destruct<CStudioModelRenderer::Decal_t>
PUBLIC	??$Construct@UDecalHistory_t@CStudioModelRenderer@@@@YAXPAUDecalHistory_t@CStudioModelRenderer@@@Z ; Construct<CStudioModelRenderer::DecalHistory_t>
PUBLIC	??$Destruct@UDecalHistory_t@CStudioModelRenderer@@@@YAXPAUDecalHistory_t@CStudioModelRenderer@@@Z ; Destruct<CStudioModelRenderer::DecalHistory_t>
PUBLIC	??$Destruct@UDecalMaterial_t@CStudioModelRenderer@@@@YAXPAUDecalMaterial_t@CStudioModelRenderer@@@Z ; Destruct<CStudioModelRenderer::DecalMaterial_t>
PUBLIC	??$Construct@UDecalModelList_t@CStudioModelRenderer@@@@YAXPAUDecalModelList_t@CStudioModelRenderer@@@Z ; Construct<CStudioModelRenderer::DecalModelList_t>
PUBLIC	??$Destruct@UDecalModelList_t@CStudioModelRenderer@@@@YAXPAUDecalModelList_t@CStudioModelRenderer@@@Z ; Destruct<CStudioModelRenderer::DecalModelList_t>
PUBLIC	??_C@_0DI@IHNHAFEA@StudioDecalList?3?5too?5many?5studio@ ; `string'
PUBLIC	?__LINE__Var@?0??AddVertexToDecal@CStudioModelRenderer@@AAEGAAUDecalBuildInfo_t@2@H@Z@4JA ; `CStudioModelRenderer::AddVertexToDecal'::`1'::__LINE__Var
PUBLIC	??_C@_0FC@KDOHJOI@d?3?2?$CBdiffusion?52020?2source?5code?52@ ; `string'
PUBLIC	??_C@_0BI@FECCGOFJ@assert?5failed?5at?5?$CFs?3?$CFi?6?$AA@ ; `string'
PUBLIC	?__LINE__Var@?0??AddVertexToDecal@CStudioModelRenderer@@AAEGAAUDecalBuildInfo_t@2@AAUDecalVertex_t@@@Z@4JA ; `CStudioModelRenderer::AddVertexToDecal'::`1'::__LINE__Var
PUBLIC	?__LINE__Var@?0??AddClippedDecalToTriangle@CStudioModelRenderer@@AAEXAAUDecalBuildInfo_t@2@AAUDecalClipState_t@@@Z@4JA ; `CStudioModelRenderer::AddClippedDecalToTriangle'::`1'::__LINE__Var
PUBLIC	?__LINE__Var@?0??IntersectPlane@CStudioModelRenderer@@AAEHAAUDecalClipState_t@@HHHM@Z@4JA ; `CStudioModelRenderer::IntersectPlane'::`1'::__LINE__Var
PUBLIC	?__LINE__Var@?0??CreateDecalForMaterial@CStudioModelRenderer@@AAEXAAUDecalBuildInfo_t@2@@Z@4JA ; `CStudioModelRenderer::CreateDecalForMaterial'::`1'::__LINE__Var
PUBLIC	?__LINE__Var@?0??RetireDecal@CStudioModelRenderer@@AAEXAAV?$CUtlLinkedList@UDecalHistory_t@CStudioModelRenderer@@G@@@Z@4JA ; `CStudioModelRenderer::RetireDecal'::`1'::__LINE__Var
PUBLIC	??_C@_1KE@KAKKLNNK@?$AAd?$AA?3?$AA?2?$AA?$CB?$AAd?$AAi?$AAf?$AAf?$AAu?$AAs?$AAi?$AAo?$AAn?$AA?5?$AA2?$AA0?$AA2?$AA0?$AA?2?$AAs?$AAo?$AAu?$AAr?$AAc?$AAe?$AA?5?$AAc?$AAo?$AAd?$AAe?$AA?5?$AA2@ ; `string'
PUBLIC	??_C@_1CI@PBOFKNGE@?$AAh?$AAi?$AAs?$AAt?$AAo?$AAr?$AAy?$AAL?$AAi?$AAs?$AAt?$AA?4?$AAC?$AAo?$AAu?$AAn?$AAt?$AA?$CI?$AA?$CJ?$AA?$AA@ ; `string'
PUBLIC	??_C@_1GA@NBLFBMKE@?$AAv?$AAe?$AAr?$AAt?$AAi?$AAc?$AAe?$AAs?$AA?4?$AAC?$AAo?$AAu?$AAn?$AAt?$AA?$CI?$AA?$CJ?$AA?5?$AA?$DO?$AA?$DN?$AA?5?$AAd?$AAe?$AAc?$AAa?$AAl?$AAT?$AAo?$AAR?$AAe?$AAm?$AAo?$AAv@ ; `string'
PUBLIC	?__LINE__Var@?0??DrawDecal@CStudioModelRenderer@@AAEXPAUcl_entity_s@@@Z@4JA ; `CStudioModelRenderer::DrawDecal'::`1'::__LINE__Var
PUBLIC	??_C@_1JM@DBANHAF@?$AAd?$AA?3?$AA?2?$AA?$CB?$AAd?$AAi?$AAf?$AAf?$AAu?$AAs?$AAi?$AAo?$AAn?$AA?5?$AA2?$AA0?$AA2?$AA0?$AA?2?$AAs?$AAo?$AAu?$AAr?$AAc?$AAe?$AA?5?$AAc?$AAo?$AAd?$AAe?$AA?5?$AA2@ ; `string'
PUBLIC	??_C@_1CA@DONHBKAI@?$AAI?$AAs?$AAV?$AAa?$AAl?$AAi?$AAd?$AAI?$AAn?$AAd?$AAe?$AAx?$AA?$CI?$AAi?$AA?$CJ?$AA?$AA@ ; `string'
PUBLIC	??_C@_1JC@EMNIBBBG@?$AAd?$AA?3?$AA?2?$AA?$CB?$AAd?$AAi?$AAf?$AAf?$AAu?$AAs?$AAi?$AAo?$AAn?$AA?5?$AA2?$AA0?$AA2?$AA0?$AA?2?$AAs?$AAo?$AAu?$AAr?$AAc?$AAe?$AA?5?$AAc?$AAo?$AAd?$AAe?$AA?5?$AA2@ ; `string'
PUBLIC	??_C@_1IK@DGJDJNN@?$AA?$CI?$AAB?$AAa?$AAs?$AAe?$AA?$CI?$AA?$CJ?$AA?5?$AA?$DN?$AA?$DN?$AA?5?$AAN?$AAU?$AAL?$AAL?$AA?$CJ?$AA?5?$AA?$HM?$AA?$HM?$AA?5?$AA?$CI?$AA?$CG?$AAs?$AAr?$AAc?$AA?5?$AA?$DM?$AA?5?$AAB?$AAa?$AAs?$AAe@ ; `string'
PUBLIC	??_C@_1BE@PAONIIIB@?$AAe?$AAl?$AAe?$AAm?$AA?5?$AA?$DO?$AA?$DN?$AA?5?$AA0?$AA?$AA@ ; `string'
PUBLIC	??_C@_1CM@EEMINNBO@?$AAe?$AAl?$AAe?$AAm?$AA?5?$AA?$CL?$AA?5?$AAn?$AAu?$AAm?$AA?5?$AA?$DM?$AA?$DN?$AA?5?$AAC?$AAo?$AAu?$AAn?$AAt?$AA?$CI?$AA?$CJ?$AA?$AA@ ; `string'
PUBLIC	??_C@_1CG@NPLHJHHO@?$AAI?$AAs?$AAV?$AAa?$AAl?$AAi?$AAd?$AAI?$AAn?$AAd?$AAe?$AAx?$AA?$CI?$AAe?$AAl?$AAe?$AAm?$AA?$CJ?$AA?$AA@ ; `string'
PUBLIC	??_C@_1CC@DEGLGEPC@?$AAI?$AAs?$AAI?$AAn?$AAL?$AAi?$AAs?$AAt?$AA?$CI?$AAb?$AAe?$AAf?$AAo?$AAr?$AAe?$AA?$CJ?$AA?$AA@ ; `string'
PUBLIC	??_C@_1JE@CIIIAKCN@?$AAd?$AA?3?$AA?2?$AA?$CB?$AAd?$AAi?$AAf?$AAf?$AAu?$AAs?$AAi?$AAo?$AAn?$AA?5?$AA2?$AA0?$AA2?$AA0?$AA?2?$AAs?$AAo?$AAu?$AAr?$AAc?$AAe?$AA?5?$AAc?$AAo?$AAd?$AAe?$AA?5?$AA2@ ; `string'
PUBLIC	??_C@_1BO@FOOHAONO@?$AAn?$AAG?$AAr?$AAo?$AAw?$AAS?$AAi?$AAz?$AAe?$AA?5?$AA?$DO?$AA?$DN?$AA?5?$AA0?$AA?$AA@ ; `string'
PUBLIC	??_C@_1BM@PFNFCCHH@?$AA?$CB?$AAI?$AAs?$AAR?$AAe?$AAa?$AAd?$AAO?$AAn?$AAl?$AAy?$AA?$CI?$AA?$CJ?$AA?$AA@ ; `string'
PUBLIC	??_C@_1BM@CKILBAKK@?$AAI?$AAs?$AAI?$AAd?$AAx?$AAV?$AAa?$AAl?$AAi?$AAd?$AA?$CI?$AAi?$AA?$CJ?$AA?$AA@ ; `string'
PUBLIC	??_C@_1FA@BPFBJKPF@?$AA?$CI?$AAe?$AAl?$AAe?$AAm?$AA?5?$AA?$DN?$AA?$DN?$AA?5?$AAC?$AAo?$AAu?$AAn?$AAt?$AA?$CI?$AA?$CJ?$AA?$CJ?$AA?5?$AA?$HM?$AA?$HM?$AA?5?$AAI?$AAs?$AAV?$AAa?$AAl?$AAi?$AAd?$AAI?$AAn?$AAd?$AAe@ ; `string'
PUBLIC	??_C@_1GM@CDMJDFPA@?$AAI?$AAs?$AAV?$AAa?$AAl?$AAi?$AAd?$AAI?$AAn?$AAd?$AAe?$AAx?$AA?$CI?$AAe?$AAl?$AAe?$AAm?$AA?$CJ?$AA?5?$AA?$HM?$AA?$HM?$AA?5?$AA?$CI?$AA?5?$AAm?$AA_?$AAS?$AAi?$AAz?$AAe?$AA?5?$AA?$DN@ ; `string'
PUBLIC	??_C@_1EE@GDGBJBP@?$AAm?$AA_?$AAT?$AAo?$AAt?$AAa?$AAl?$AAE?$AAl?$AAe?$AAm?$AAe?$AAn?$AAt?$AAs?$AA?5?$AA?$CB?$AA?$DN?$AA?5?$AAI?$AAn?$AAv?$AAa?$AAl?$AAi?$AAd?$AAI?$AAn?$AAd?$AAe?$AAx?$AA?$CI@ ; `string'
PUBLIC	??_C@_1CO@HPCBIHGE@?$AAe?$AAl?$AAe?$AAm?$AA?5?$AA?$CB?$AA?$DN?$AA?5?$AAI?$AAn?$AAv?$AAa?$AAl?$AAi?$AAd?$AAI?$AAn?$AAd?$AAe?$AAx?$AA?$CI?$AA?$CJ?$AA?$AA@ ; `string'
PUBLIC	??_C@_1BA@PKCLMAEA@?$AAn?$AAu?$AAm?$AA?5?$AA?$DO?$AA?5?$AA0?$AA?$AA@ ; `string'
PUBLIC	??_C@_13COJANIEC@?$AA0?$AA?$AA@			; `string'
PUBLIC	??_C@_1BE@OPPFELHC@?$AAm?$AA_?$AAp?$AAM?$AAe?$AAm?$AAo?$AAr?$AAy?$AA?$AA@ ; `string'
PUBLIC	__real@00000000
PUBLIC	__real@3dcccccd
PUBLIC	__real@3f000000
PUBLIC	__real@3f50624dd2f1a9fc
PUBLIC	__real@3f800000
PUBLIC	__real@3f8ccccd
PUBLIC	__real@437f0000
PUBLIC	__real@bf50624dd2f1a9fc
PUBLIC	__real@bf800000
PUBLIC	__xmm@80000000800000008000000080000000
EXTRN	??3@YAXPAXI@Z:PROC				; operator delete
EXTRN	_memcpy:PROC
EXTRN	_memmove:PROC
EXTRN	_memset:PROC
EXTRN	_free:PROC
EXTRN	_malloc:PROC
EXTRN	_realloc:PROC
EXTRN	_fabs:PROC
EXTRN	_sqrt:PROC
EXTRN	??0matrix3x3@@QAE@XZ:PROC			; matrix3x3::matrix3x3
EXTRN	??0matrix3x4@@QAE@XZ:PROC			; matrix3x4::matrix3x4
EXTRN	?VectorTransform@matrix3x4@@QBE?AVVector@@ABV2@@Z:PROC ; matrix3x4::VectorTransform
EXTRN	?VectorITransform@matrix3x4@@QBE?AVVector@@ABV2@@Z:PROC ; matrix3x4::VectorITransform
EXTRN	?VectorRotate@matrix3x4@@QBE?AVVector@@ABV2@@Z:PROC ; matrix3x4::VectorRotate
EXTRN	?VectorIRotate@matrix3x4@@QBE?AVVector@@ABV2@@Z:PROC ; matrix3x4::VectorIRotate
EXTRN	?ConcatTransforms@matrix3x4@@QAE?AV1@V1@@Z:PROC	; matrix3x4::ConcatTransforms
EXTRN	?HalfToFloat@@YAMG@Z:PROC			; HalfToFloat
EXTRN	?Q_strncpy@@YAIPADPBDI@Z:PROC			; Q_strncpy
EXTRN	?COM_FileBase@@YAXPBDPAD@Z:PROC			; COM_FileBase
EXTRN	__wassert:PROC
EXTRN	?ALERT@@YAXW4ALERT_TYPE@@PADZZ:PROC		; ALERT
EXTRN	?StudioSetEntity@CStudioModelRenderer@@AAE_NPAUcl_entity_s@@@Z:PROC ; CStudioModelRenderer::StudioSetEntity
EXTRN	?GL_Support@@YA_NH@Z:PROC			; GL_Support
EXTRN	?GL_Cull@@YAXI@Z:PROC				; GL_Cull
EXTRN	?GL_DepthMask@@YAXH@Z:PROC			; GL_DepthMask
EXTRN	?GL_AlphaTest@@YAXH@Z:PROC			; GL_AlphaTest
EXTRN	?GL_Blend@@YAXH@Z:PROC				; GL_Blend
EXTRN	?GL_BindShader@@YAXPAUglsl_prog_s@@@Z:PROC	; GL_BindShader
EXTRN	?GL_UberShaderForStudioDecal@@YAGPAUmstudiomat_s@@@Z:PROC ; GL_UberShaderForStudioDecal
EXTRN	@__security_check_cookie@4:PROC
EXTRN	___CxxFrameHandler3:PROC
EXTRN	__alloca_probe_16:PROC
EXTRN	?g_vecZero@@3VVector@@B:BYTE			; g_vecZero
EXTRN	?gEngfuncs@@3Ucl_enginefuncs_s@@A:BYTE		; gEngfuncs
EXTRN	?gRenderfuncs@@3Urender_api_s@@A:BYTE		; gRenderfuncs
EXTRN	?g_fRenderInitialized@@3HA:DWORD		; g_fRenderInitialized
EXTRN	?pglBlendFunc@@3P6GXII@ZA:DWORD			; pglBlendFunc
EXTRN	?pglDisable@@3P6GXI@ZA:DWORD			; pglDisable
EXTRN	?pglDisableClientState@@3P6GXI@ZA:DWORD		; pglDisableClientState
EXTRN	?pglEnable@@3P6GXI@ZA:DWORD			; pglEnable
EXTRN	?pglEnableClientState@@3P6GXI@ZA:DWORD		; pglEnableClientState
EXTRN	?pglPolygonOffset@@3P6GXMM@ZA:DWORD		; pglPolygonOffset
EXTRN	?pglDrawRangeElementsEXT@@3P6GXIIIHIPBX@ZA:DWORD ; pglDrawRangeElementsEXT
EXTRN	?pglDrawElements@@3P6GXIHIPBX@ZA:DWORD		; pglDrawElements
EXTRN	?pglVertexPointer@@3P6GXHIHPBX@ZA:DWORD		; pglVertexPointer
EXTRN	?pglColorPointer@@3P6GXHIHPBX@ZA:DWORD		; pglColorPointer
EXTRN	?pglTexCoordPointer@@3P6GXHIHPBX@ZA:DWORD	; pglTexCoordPointer
EXTRN	?pglUniform4fARB@@3P6GXHMMMM@ZA:DWORD		; pglUniform4fARB
EXTRN	?r_polyoffset@@3PAUcvar_s@@A:DWORD		; r_polyoffset
EXTRN	?RI@@3PAUref_instance_t@@A:DWORD		; RI
EXTRN	?tr@@3Uref_globals_t@@A:BYTE			; tr
EXTRN	?r_stats@@3Uref_stats_t@@A:BYTE			; r_stats
EXTRN	?glConfig@@3UglConfig_t@@A:BYTE			; glConfig
EXTRN	?glsl_programs@@3PAUglsl_prog_s@@A:BYTE		; glsl_programs
EXTRN	?world@@3PAUgl_world_t@@A:DWORD			; world
EXTRN	___security_cookie:DWORD
EXTRN	__fltused:DWORD
;	COMDAT __xmm@80000000800000008000000080000000
CONST	SEGMENT
__xmm@80000000800000008000000080000000 DB 00H, 00H, 00H, 080H, 00H, 00H, 00H
	DB	080H, 00H, 00H, 00H, 080H, 00H, 00H, 00H, 080H
CONST	ENDS
;	COMDAT __real@bf800000
CONST	SEGMENT
__real@bf800000 DD 0bf800000r			; -1
CONST	ENDS
;	COMDAT __real@bf50624dd2f1a9fc
CONST	SEGMENT
__real@bf50624dd2f1a9fc DQ 0bf50624dd2f1a9fcr	; -0.001
CONST	ENDS
;	COMDAT __real@437f0000
CONST	SEGMENT
__real@437f0000 DD 0437f0000r			; 255
CONST	ENDS
;	COMDAT __real@3f8ccccd
CONST	SEGMENT
__real@3f8ccccd DD 03f8ccccdr			; 1.1
CONST	ENDS
;	COMDAT __real@3f800000
CONST	SEGMENT
__real@3f800000 DD 03f800000r			; 1
CONST	ENDS
;	COMDAT __real@3f50624dd2f1a9fc
CONST	SEGMENT
__real@3f50624dd2f1a9fc DQ 03f50624dd2f1a9fcr	; 0.001
CONST	ENDS
;	COMDAT __real@3f000000
CONST	SEGMENT
__real@3f000000 DD 03f000000r			; 0.5
CONST	ENDS
;	COMDAT __real@3dcccccd
CONST	SEGMENT
__real@3dcccccd DD 03dcccccdr			; 0.1
CONST	ENDS
;	COMDAT __real@00000000
CONST	SEGMENT
__real@00000000 DD 000000000r			; 0
CONST	ENDS
;	COMDAT ??_C@_1BE@OPPFELHC@?$AAm?$AA_?$AAp?$AAM?$AAe?$AAm?$AAo?$AAr?$AAy?$AA?$AA@
CONST	SEGMENT
??_C@_1BE@OPPFELHC@?$AAm?$AA_?$AAp?$AAM?$AAe?$AAm?$AAo?$AAr?$AAy?$AA?$AA@ DB 'm'
	DB	00H, '_', 00H, 'p', 00H, 'M', 00H, 'e', 00H, 'm', 00H, 'o', 00H
	DB	'r', 00H, 'y', 00H, 00H, 00H			; `string'
CONST	ENDS
;	COMDAT ??_C@_13COJANIEC@?$AA0?$AA?$AA@
CONST	SEGMENT
??_C@_13COJANIEC@?$AA0?$AA?$AA@ DB '0', 00H, 00H, 00H	; `string'
CONST	ENDS
;	COMDAT ??_C@_1BA@PKCLMAEA@?$AAn?$AAu?$AAm?$AA?5?$AA?$DO?$AA?5?$AA0?$AA?$AA@
CONST	SEGMENT
??_C@_1BA@PKCLMAEA@?$AAn?$AAu?$AAm?$AA?5?$AA?$DO?$AA?5?$AA0?$AA?$AA@ DB 'n'
	DB	00H, 'u', 00H, 'm', 00H, ' ', 00H, '>', 00H, ' ', 00H, '0', 00H
	DB	00H, 00H					; `string'
CONST	ENDS
;	COMDAT ??_C@_1CO@HPCBIHGE@?$AAe?$AAl?$AAe?$AAm?$AA?5?$AA?$CB?$AA?$DN?$AA?5?$AAI?$AAn?$AAv?$AAa?$AAl?$AAi?$AAd?$AAI?$AAn?$AAd?$AAe?$AAx?$AA?$CI?$AA?$CJ?$AA?$AA@
CONST	SEGMENT
??_C@_1CO@HPCBIHGE@?$AAe?$AAl?$AAe?$AAm?$AA?5?$AA?$CB?$AA?$DN?$AA?5?$AAI?$AAn?$AAv?$AAa?$AAl?$AAi?$AAd?$AAI?$AAn?$AAd?$AAe?$AAx?$AA?$CI?$AA?$CJ?$AA?$AA@ DB 'e'
	DB	00H, 'l', 00H, 'e', 00H, 'm', 00H, ' ', 00H, '!', 00H, '=', 00H
	DB	' ', 00H, 'I', 00H, 'n', 00H, 'v', 00H, 'a', 00H, 'l', 00H, 'i'
	DB	00H, 'd', 00H, 'I', 00H, 'n', 00H, 'd', 00H, 'e', 00H, 'x', 00H
	DB	'(', 00H, ')', 00H, 00H, 00H			; `string'
CONST	ENDS
;	COMDAT ??_C@_1EE@GDGBJBP@?$AAm?$AA_?$AAT?$AAo?$AAt?$AAa?$AAl?$AAE?$AAl?$AAe?$AAm?$AAe?$AAn?$AAt?$AAs?$AA?5?$AA?$CB?$AA?$DN?$AA?5?$AAI?$AAn?$AAv?$AAa?$AAl?$AAi?$AAd?$AAI?$AAn?$AAd?$AAe?$AAx?$AA?$CI@
CONST	SEGMENT
??_C@_1EE@GDGBJBP@?$AAm?$AA_?$AAT?$AAo?$AAt?$AAa?$AAl?$AAE?$AAl?$AAe?$AAm?$AAe?$AAn?$AAt?$AAs?$AA?5?$AA?$CB?$AA?$DN?$AA?5?$AAI?$AAn?$AAv?$AAa?$AAl?$AAi?$AAd?$AAI?$AAn?$AAd?$AAe?$AAx?$AA?$CI@ DB 'm'
	DB	00H, '_', 00H, 'T', 00H, 'o', 00H, 't', 00H, 'a', 00H, 'l', 00H
	DB	'E', 00H, 'l', 00H, 'e', 00H, 'm', 00H, 'e', 00H, 'n', 00H, 't'
	DB	00H, 's', 00H, ' ', 00H, '!', 00H, '=', 00H, ' ', 00H, 'I', 00H
	DB	'n', 00H, 'v', 00H, 'a', 00H, 'l', 00H, 'i', 00H, 'd', 00H, 'I'
	DB	00H, 'n', 00H, 'd', 00H, 'e', 00H, 'x', 00H, '(', 00H, ')', 00H
	DB	00H, 00H					; `string'
CONST	ENDS
;	COMDAT ??_C@_1GM@CDMJDFPA@?$AAI?$AAs?$AAV?$AAa?$AAl?$AAi?$AAd?$AAI?$AAn?$AAd?$AAe?$AAx?$AA?$CI?$AAe?$AAl?$AAe?$AAm?$AA?$CJ?$AA?5?$AA?$HM?$AA?$HM?$AA?5?$AA?$CI?$AA?5?$AAm?$AA_?$AAS?$AAi?$AAz?$AAe?$AA?5?$AA?$DN@
CONST	SEGMENT
??_C@_1GM@CDMJDFPA@?$AAI?$AAs?$AAV?$AAa?$AAl?$AAi?$AAd?$AAI?$AAn?$AAd?$AAe?$AAx?$AA?$CI?$AAe?$AAl?$AAe?$AAm?$AA?$CJ?$AA?5?$AA?$HM?$AA?$HM?$AA?5?$AA?$CI?$AA?5?$AAm?$AA_?$AAS?$AAi?$AAz?$AAe?$AA?5?$AA?$DN@ DB 'I'
	DB	00H, 's', 00H, 'V', 00H, 'a', 00H, 'l', 00H, 'i', 00H, 'd', 00H
	DB	'I', 00H, 'n', 00H, 'd', 00H, 'e', 00H, 'x', 00H, '(', 00H, 'e'
	DB	00H, 'l', 00H, 'e', 00H, 'm', 00H, ')', 00H, ' ', 00H, '|', 00H
	DB	'|', 00H, ' ', 00H, '(', 00H, ' ', 00H, 'm', 00H, '_', 00H, 'S'
	DB	00H, 'i', 00H, 'z', 00H, 'e', 00H, ' ', 00H, '=', 00H, '=', 00H
	DB	' ', 00H, '0', 00H, ' ', 00H, ')', 00H, ' ', 00H, '|', 00H, '|'
	DB	00H, ' ', 00H, '(', 00H, ' ', 00H, 'n', 00H, 'u', 00H, 'm', 00H
	DB	' ', 00H, '=', 00H, '=', 00H, ' ', 00H, '0', 00H, ' ', 00H, ')'
	DB	00H, 00H, 00H				; `string'
CONST	ENDS
;	COMDAT ??_C@_1FA@BPFBJKPF@?$AA?$CI?$AAe?$AAl?$AAe?$AAm?$AA?5?$AA?$DN?$AA?$DN?$AA?5?$AAC?$AAo?$AAu?$AAn?$AAt?$AA?$CI?$AA?$CJ?$AA?$CJ?$AA?5?$AA?$HM?$AA?$HM?$AA?5?$AAI?$AAs?$AAV?$AAa?$AAl?$AAi?$AAd?$AAI?$AAn?$AAd?$AAe@
CONST	SEGMENT
??_C@_1FA@BPFBJKPF@?$AA?$CI?$AAe?$AAl?$AAe?$AAm?$AA?5?$AA?$DN?$AA?$DN?$AA?5?$AAC?$AAo?$AAu?$AAn?$AAt?$AA?$CI?$AA?$CJ?$AA?$CJ?$AA?5?$AA?$HM?$AA?$HM?$AA?5?$AAI?$AAs?$AAV?$AAa?$AAl?$AAi?$AAd?$AAI?$AAn?$AAd?$AAe@ DB '('
	DB	00H, 'e', 00H, 'l', 00H, 'e', 00H, 'm', 00H, ' ', 00H, '=', 00H
	DB	'=', 00H, ' ', 00H, 'C', 00H, 'o', 00H, 'u', 00H, 'n', 00H, 't'
	DB	00H, '(', 00H, ')', 00H, ')', 00H, ' ', 00H, '|', 00H, '|', 00H
	DB	' ', 00H, 'I', 00H, 's', 00H, 'V', 00H, 'a', 00H, 'l', 00H, 'i'
	DB	00H, 'd', 00H, 'I', 00H, 'n', 00H, 'd', 00H, 'e', 00H, 'x', 00H
	DB	'(', 00H, 'e', 00H, 'l', 00H, 'e', 00H, 'm', 00H, ')', 00H, 00H
	DB	00H						; `string'
CONST	ENDS
;	COMDAT ??_C@_1BM@CKILBAKK@?$AAI?$AAs?$AAI?$AAd?$AAx?$AAV?$AAa?$AAl?$AAi?$AAd?$AA?$CI?$AAi?$AA?$CJ?$AA?$AA@
CONST	SEGMENT
??_C@_1BM@CKILBAKK@?$AAI?$AAs?$AAI?$AAd?$AAx?$AAV?$AAa?$AAl?$AAi?$AAd?$AA?$CI?$AAi?$AA?$CJ?$AA?$AA@ DB 'I'
	DB	00H, 's', 00H, 'I', 00H, 'd', 00H, 'x', 00H, 'V', 00H, 'a', 00H
	DB	'l', 00H, 'i', 00H, 'd', 00H, '(', 00H, 'i', 00H, ')', 00H, 00H
	DB	00H						; `string'
CONST	ENDS
;	COMDAT ??_C@_1BM@PFNFCCHH@?$AA?$CB?$AAI?$AAs?$AAR?$AAe?$AAa?$AAd?$AAO?$AAn?$AAl?$AAy?$AA?$CI?$AA?$CJ?$AA?$AA@
CONST	SEGMENT
??_C@_1BM@PFNFCCHH@?$AA?$CB?$AAI?$AAs?$AAR?$AAe?$AAa?$AAd?$AAO?$AAn?$AAl?$AAy?$AA?$CI?$AA?$CJ?$AA?$AA@ DB '!'
	DB	00H, 'I', 00H, 's', 00H, 'R', 00H, 'e', 00H, 'a', 00H, 'd', 00H
	DB	'O', 00H, 'n', 00H, 'l', 00H, 'y', 00H, '(', 00H, ')', 00H, 00H
	DB	00H						; `string'
CONST	ENDS
;	COMDAT ??_C@_1BO@FOOHAONO@?$AAn?$AAG?$AAr?$AAo?$AAw?$AAS?$AAi?$AAz?$AAe?$AA?5?$AA?$DO?$AA?$DN?$AA?5?$AA0?$AA?$AA@
CONST	SEGMENT
??_C@_1BO@FOOHAONO@?$AAn?$AAG?$AAr?$AAo?$AAw?$AAS?$AAi?$AAz?$AAe?$AA?5?$AA?$DO?$AA?$DN?$AA?5?$AA0?$AA?$AA@ DB 'n'
	DB	00H, 'G', 00H, 'r', 00H, 'o', 00H, 'w', 00H, 'S', 00H, 'i', 00H
	DB	'z', 00H, 'e', 00H, ' ', 00H, '>', 00H, '=', 00H, ' ', 00H, '0'
	DB	00H, 00H, 00H				; `string'
CONST	ENDS
;	COMDAT ??_C@_1JE@CIIIAKCN@?$AAd?$AA?3?$AA?2?$AA?$CB?$AAd?$AAi?$AAf?$AAf?$AAu?$AAs?$AAi?$AAo?$AAn?$AA?5?$AA2?$AA0?$AA2?$AA0?$AA?2?$AAs?$AAo?$AAu?$AAr?$AAc?$AAe?$AA?5?$AAc?$AAo?$AAd?$AAe?$AA?5?$AA2@
CONST	SEGMENT
??_C@_1JE@CIIIAKCN@?$AAd?$AA?3?$AA?2?$AA?$CB?$AAd?$AAi?$AAf?$AAf?$AAu?$AAs?$AAi?$AAo?$AAn?$AA?5?$AA2?$AA0?$AA2?$AA0?$AA?2?$AAs?$AAo?$AAu?$AAr?$AAc?$AAe?$AA?5?$AAc?$AAo?$AAd?$AAe?$AA?5?$AA2@ DB 'd'
	DB	00H, ':', 00H, '\', 00H, '!', 00H, 'd', 00H, 'i', 00H, 'f', 00H
	DB	'f', 00H, 'u', 00H, 's', 00H, 'i', 00H, 'o', 00H, 'n', 00H, ' '
	DB	00H, '2', 00H, '0', 00H, '2', 00H, '0', 00H, '\', 00H, 's', 00H
	DB	'o', 00H, 'u', 00H, 'r', 00H, 'c', 00H, 'e', 00H, ' ', 00H, 'c'
	DB	00H, 'o', 00H, 'd', 00H, 'e', 00H, ' ', 00H, '2', 00H, '0', 00H
	DB	'2', 00H, '2', 00H, '\', 00H, 'c', 00H, 'l', 00H, 'i', 00H, 'e'
	DB	00H, 'n', 00H, 't', 00H, '-', 00H, 's', 00H, 'e', 00H, 'r', 00H
	DB	'v', 00H, 'e', 00H, 'r', 00H, '\', 00H, 'g', 00H, 'a', 00H, 'm'
	DB	00H, 'e', 00H, '_', 00H, 's', 00H, 'h', 00H, 'a', 00H, 'r', 00H
	DB	'e', 00H, 'd', 00H, '\', 00H, 'u', 00H, 't', 00H, 'l', 00H, 'm'
	DB	00H, 'e', 00H, 'm', 00H, 'o', 00H, 'r', 00H, 'y', 00H, '.', 00H
	DB	'h', 00H, 00H, 00H				; `string'
CONST	ENDS
;	COMDAT ??_C@_1CC@DEGLGEPC@?$AAI?$AAs?$AAI?$AAn?$AAL?$AAi?$AAs?$AAt?$AA?$CI?$AAb?$AAe?$AAf?$AAo?$AAr?$AAe?$AA?$CJ?$AA?$AA@
CONST	SEGMENT
??_C@_1CC@DEGLGEPC@?$AAI?$AAs?$AAI?$AAn?$AAL?$AAi?$AAs?$AAt?$AA?$CI?$AAb?$AAe?$AAf?$AAo?$AAr?$AAe?$AA?$CJ?$AA?$AA@ DB 'I'
	DB	00H, 's', 00H, 'I', 00H, 'n', 00H, 'L', 00H, 'i', 00H, 's', 00H
	DB	't', 00H, '(', 00H, 'b', 00H, 'e', 00H, 'f', 00H, 'o', 00H, 'r'
	DB	00H, 'e', 00H, ')', 00H, 00H, 00H		; `string'
CONST	ENDS
;	COMDAT ??_C@_1CG@NPLHJHHO@?$AAI?$AAs?$AAV?$AAa?$AAl?$AAi?$AAd?$AAI?$AAn?$AAd?$AAe?$AAx?$AA?$CI?$AAe?$AAl?$AAe?$AAm?$AA?$CJ?$AA?$AA@
CONST	SEGMENT
??_C@_1CG@NPLHJHHO@?$AAI?$AAs?$AAV?$AAa?$AAl?$AAi?$AAd?$AAI?$AAn?$AAd?$AAe?$AAx?$AA?$CI?$AAe?$AAl?$AAe?$AAm?$AA?$CJ?$AA?$AA@ DB 'I'
	DB	00H, 's', 00H, 'V', 00H, 'a', 00H, 'l', 00H, 'i', 00H, 'd', 00H
	DB	'I', 00H, 'n', 00H, 'd', 00H, 'e', 00H, 'x', 00H, '(', 00H, 'e'
	DB	00H, 'l', 00H, 'e', 00H, 'm', 00H, ')', 00H, 00H, 00H ; `string'
CONST	ENDS
;	COMDAT ??_C@_1CM@EEMINNBO@?$AAe?$AAl?$AAe?$AAm?$AA?5?$AA?$CL?$AA?5?$AAn?$AAu?$AAm?$AA?5?$AA?$DM?$AA?$DN?$AA?5?$AAC?$AAo?$AAu?$AAn?$AAt?$AA?$CI?$AA?$CJ?$AA?$AA@
CONST	SEGMENT
??_C@_1CM@EEMINNBO@?$AAe?$AAl?$AAe?$AAm?$AA?5?$AA?$CL?$AA?5?$AAn?$AAu?$AAm?$AA?5?$AA?$DM?$AA?$DN?$AA?5?$AAC?$AAo?$AAu?$AAn?$AAt?$AA?$CI?$AA?$CJ?$AA?$AA@ DB 'e'
	DB	00H, 'l', 00H, 'e', 00H, 'm', 00H, ' ', 00H, '+', 00H, ' ', 00H
	DB	'n', 00H, 'u', 00H, 'm', 00H, ' ', 00H, '<', 00H, '=', 00H, ' '
	DB	00H, 'C', 00H, 'o', 00H, 'u', 00H, 'n', 00H, 't', 00H, '(', 00H
	DB	')', 00H, 00H, 00H				; `string'
CONST	ENDS
;	COMDAT ??_C@_1BE@PAONIIIB@?$AAe?$AAl?$AAe?$AAm?$AA?5?$AA?$DO?$AA?$DN?$AA?5?$AA0?$AA?$AA@
CONST	SEGMENT
??_C@_1BE@PAONIIIB@?$AAe?$AAl?$AAe?$AAm?$AA?5?$AA?$DO?$AA?$DN?$AA?5?$AA0?$AA?$AA@ DB 'e'
	DB	00H, 'l', 00H, 'e', 00H, 'm', 00H, ' ', 00H, '>', 00H, '=', 00H
	DB	' ', 00H, '0', 00H, 00H, 00H			; `string'
CONST	ENDS
;	COMDAT ??_C@_1IK@DGJDJNN@?$AA?$CI?$AAB?$AAa?$AAs?$AAe?$AA?$CI?$AA?$CJ?$AA?5?$AA?$DN?$AA?$DN?$AA?5?$AAN?$AAU?$AAL?$AAL?$AA?$CJ?$AA?5?$AA?$HM?$AA?$HM?$AA?5?$AA?$CI?$AA?$CG?$AAs?$AAr?$AAc?$AA?5?$AA?$DM?$AA?5?$AAB?$AAa?$AAs?$AAe@
CONST	SEGMENT
??_C@_1IK@DGJDJNN@?$AA?$CI?$AAB?$AAa?$AAs?$AAe?$AA?$CI?$AA?$CJ?$AA?5?$AA?$DN?$AA?$DN?$AA?5?$AAN?$AAU?$AAL?$AAL?$AA?$CJ?$AA?5?$AA?$HM?$AA?$HM?$AA?5?$AA?$CI?$AA?$CG?$AAs?$AAr?$AAc?$AA?5?$AA?$DM?$AA?5?$AAB?$AAa?$AAs?$AAe@ DB '('
	DB	00H, 'B', 00H, 'a', 00H, 's', 00H, 'e', 00H, '(', 00H, ')', 00H
	DB	' ', 00H, '=', 00H, '=', 00H, ' ', 00H, 'N', 00H, 'U', 00H, 'L'
	DB	00H, 'L', 00H, ')', 00H, ' ', 00H, '|', 00H, '|', 00H, ' ', 00H
	DB	'(', 00H, '&', 00H, 's', 00H, 'r', 00H, 'c', 00H, ' ', 00H, '<'
	DB	00H, ' ', 00H, 'B', 00H, 'a', 00H, 's', 00H, 'e', 00H, '(', 00H
	DB	')', 00H, ')', 00H, ' ', 00H, '|', 00H, '|', 00H, ' ', 00H, '('
	DB	00H, '&', 00H, 's', 00H, 'r', 00H, 'c', 00H, ' ', 00H, '>', 00H
	DB	'=', 00H, ' ', 00H, '(', 00H, 'B', 00H, 'a', 00H, 's', 00H, 'e'
	DB	00H, '(', 00H, ')', 00H, ' ', 00H, '+', 00H, ' ', 00H, 'C', 00H
	DB	'o', 00H, 'u', 00H, 'n', 00H, 't', 00H, '(', 00H, ')', 00H, ')'
	DB	00H, ' ', 00H, ')', 00H, 00H, 00H		; `string'
CONST	ENDS
;	COMDAT ??_C@_1JC@EMNIBBBG@?$AAd?$AA?3?$AA?2?$AA?$CB?$AAd?$AAi?$AAf?$AAf?$AAu?$AAs?$AAi?$AAo?$AAn?$AA?5?$AA2?$AA0?$AA2?$AA0?$AA?2?$AAs?$AAo?$AAu?$AAr?$AAc?$AAe?$AA?5?$AAc?$AAo?$AAd?$AAe?$AA?5?$AA2@
CONST	SEGMENT
??_C@_1JC@EMNIBBBG@?$AAd?$AA?3?$AA?2?$AA?$CB?$AAd?$AAi?$AAf?$AAf?$AAu?$AAs?$AAi?$AAo?$AAn?$AA?5?$AA2?$AA0?$AA2?$AA0?$AA?2?$AAs?$AAo?$AAu?$AAr?$AAc?$AAe?$AA?5?$AAc?$AAo?$AAd?$AAe?$AA?5?$AA2@ DB 'd'
	DB	00H, ':', 00H, '\', 00H, '!', 00H, 'd', 00H, 'i', 00H, 'f', 00H
	DB	'f', 00H, 'u', 00H, 's', 00H, 'i', 00H, 'o', 00H, 'n', 00H, ' '
	DB	00H, '2', 00H, '0', 00H, '2', 00H, '0', 00H, '\', 00H, 's', 00H
	DB	'o', 00H, 'u', 00H, 'r', 00H, 'c', 00H, 'e', 00H, ' ', 00H, 'c'
	DB	00H, 'o', 00H, 'd', 00H, 'e', 00H, ' ', 00H, '2', 00H, '0', 00H
	DB	'2', 00H, '2', 00H, '\', 00H, 'c', 00H, 'l', 00H, 'i', 00H, 'e'
	DB	00H, 'n', 00H, 't', 00H, '-', 00H, 's', 00H, 'e', 00H, 'r', 00H
	DB	'v', 00H, 'e', 00H, 'r', 00H, '\', 00H, 'g', 00H, 'a', 00H, 'm'
	DB	00H, 'e', 00H, '_', 00H, 's', 00H, 'h', 00H, 'a', 00H, 'r', 00H
	DB	'e', 00H, 'd', 00H, '\', 00H, 'u', 00H, 't', 00H, 'l', 00H, 'a'
	DB	00H, 'r', 00H, 'r', 00H, 'a', 00H, 'y', 00H, '.', 00H, 'h', 00H
	DB	00H, 00H					; `string'
CONST	ENDS
;	COMDAT ??_C@_1CA@DONHBKAI@?$AAI?$AAs?$AAV?$AAa?$AAl?$AAi?$AAd?$AAI?$AAn?$AAd?$AAe?$AAx?$AA?$CI?$AAi?$AA?$CJ?$AA?$AA@
CONST	SEGMENT
??_C@_1CA@DONHBKAI@?$AAI?$AAs?$AAV?$AAa?$AAl?$AAi?$AAd?$AAI?$AAn?$AAd?$AAe?$AAx?$AA?$CI?$AAi?$AA?$CJ?$AA?$AA@ DB 'I'
	DB	00H, 's', 00H, 'V', 00H, 'a', 00H, 'l', 00H, 'i', 00H, 'd', 00H
	DB	'I', 00H, 'n', 00H, 'd', 00H, 'e', 00H, 'x', 00H, '(', 00H, 'i'
	DB	00H, ')', 00H, 00H, 00H			; `string'
CONST	ENDS
;	COMDAT ??_C@_1JM@DBANHAF@?$AAd?$AA?3?$AA?2?$AA?$CB?$AAd?$AAi?$AAf?$AAf?$AAu?$AAs?$AAi?$AAo?$AAn?$AA?5?$AA2?$AA0?$AA2?$AA0?$AA?2?$AAs?$AAo?$AAu?$AAr?$AAc?$AAe?$AA?5?$AAc?$AAo?$AAd?$AAe?$AA?5?$AA2@
CONST	SEGMENT
??_C@_1JM@DBANHAF@?$AAd?$AA?3?$AA?2?$AA?$CB?$AAd?$AAi?$AAf?$AAf?$AAu?$AAs?$AAi?$AAo?$AAn?$AA?5?$AA2?$AA0?$AA2?$AA0?$AA?2?$AAs?$AAo?$AAu?$AAr?$AAc?$AAe?$AA?5?$AAc?$AAo?$AAd?$AAe?$AA?5?$AA2@ DB 'd'
	DB	00H, ':', 00H, '\', 00H, '!', 00H, 'd', 00H, 'i', 00H, 'f', 00H
	DB	'f', 00H, 'u', 00H, 's', 00H, 'i', 00H, 'o', 00H, 'n', 00H, ' '
	DB	00H, '2', 00H, '0', 00H, '2', 00H, '0', 00H, '\', 00H, 's', 00H
	DB	'o', 00H, 'u', 00H, 'r', 00H, 'c', 00H, 'e', 00H, ' ', 00H, 'c'
	DB	00H, 'o', 00H, 'd', 00H, 'e', 00H, ' ', 00H, '2', 00H, '0', 00H
	DB	'2', 00H, '2', 00H, '\', 00H, 'c', 00H, 'l', 00H, 'i', 00H, 'e'
	DB	00H, 'n', 00H, 't', 00H, '-', 00H, 's', 00H, 'e', 00H, 'r', 00H
	DB	'v', 00H, 'e', 00H, 'r', 00H, '\', 00H, 'g', 00H, 'a', 00H, 'm'
	DB	00H, 'e', 00H, '_', 00H, 's', 00H, 'h', 00H, 'a', 00H, 'r', 00H
	DB	'e', 00H, 'd', 00H, '\', 00H, 'u', 00H, 't', 00H, 'l', 00H, 'l'
	DB	00H, 'i', 00H, 'n', 00H, 'k', 00H, 'e', 00H, 'd', 00H, 'l', 00H
	DB	'i', 00H, 's', 00H, 't', 00H, '.', 00H, 'h', 00H, 00H, 00H ; `string'
CONST	ENDS
;	COMDAT ?__LINE__Var@?0??DrawDecal@CStudioModelRenderer@@AAEXPAUcl_entity_s@@@Z@4JA
_DATA	SEGMENT
?__LINE__Var@?0??DrawDecal@CStudioModelRenderer@@AAEXPAUcl_entity_s@@@Z@4JA DD 04f5H ; `CStudioModelRenderer::DrawDecal'::`1'::__LINE__Var
_DATA	ENDS
;	COMDAT ??_C@_1GA@NBLFBMKE@?$AAv?$AAe?$AAr?$AAt?$AAi?$AAc?$AAe?$AAs?$AA?4?$AAC?$AAo?$AAu?$AAn?$AAt?$AA?$CI?$AA?$CJ?$AA?5?$AA?$DO?$AA?$DN?$AA?5?$AAd?$AAe?$AAc?$AAa?$AAl?$AAT?$AAo?$AAR?$AAe?$AAm?$AAo?$AAv@
CONST	SEGMENT
??_C@_1GA@NBLFBMKE@?$AAv?$AAe?$AAr?$AAt?$AAi?$AAc?$AAe?$AAs?$AA?4?$AAC?$AAo?$AAu?$AAn?$AAt?$AA?$CI?$AA?$CJ?$AA?5?$AA?$DO?$AA?$DN?$AA?5?$AAd?$AAe?$AAc?$AAa?$AAl?$AAT?$AAo?$AAR?$AAe?$AAm?$AAo?$AAv@ DB 'v'
	DB	00H, 'e', 00H, 'r', 00H, 't', 00H, 'i', 00H, 'c', 00H, 'e', 00H
	DB	's', 00H, '.', 00H, 'C', 00H, 'o', 00H, 'u', 00H, 'n', 00H, 't'
	DB	00H, '(', 00H, ')', 00H, ' ', 00H, '>', 00H, '=', 00H, ' ', 00H
	DB	'd', 00H, 'e', 00H, 'c', 00H, 'a', 00H, 'l', 00H, 'T', 00H, 'o'
	DB	00H, 'R', 00H, 'e', 00H, 'm', 00H, 'o', 00H, 'v', 00H, 'e', 00H
	DB	'.', 00H, 'm', 00H, '_', 00H, 'V', 00H, 'e', 00H, 'r', 00H, 't'
	DB	00H, 'e', 00H, 'x', 00H, 'C', 00H, 'o', 00H, 'u', 00H, 'n', 00H
	DB	't', 00H, 00H, 00H				; `string'
CONST	ENDS
;	COMDAT ??_C@_1CI@PBOFKNGE@?$AAh?$AAi?$AAs?$AAt?$AAo?$AAr?$AAy?$AAL?$AAi?$AAs?$AAt?$AA?4?$AAC?$AAo?$AAu?$AAn?$AAt?$AA?$CI?$AA?$CJ?$AA?$AA@
CONST	SEGMENT
??_C@_1CI@PBOFKNGE@?$AAh?$AAi?$AAs?$AAt?$AAo?$AAr?$AAy?$AAL?$AAi?$AAs?$AAt?$AA?4?$AAC?$AAo?$AAu?$AAn?$AAt?$AA?$CI?$AA?$CJ?$AA?$AA@ DB 'h'
	DB	00H, 'i', 00H, 's', 00H, 't', 00H, 'o', 00H, 'r', 00H, 'y', 00H
	DB	'L', 00H, 'i', 00H, 's', 00H, 't', 00H, '.', 00H, 'C', 00H, 'o'
	DB	00H, 'u', 00H, 'n', 00H, 't', 00H, '(', 00H, ')', 00H, 00H, 00H ; `string'
CONST	ENDS
;	COMDAT ??_C@_1KE@KAKKLNNK@?$AAd?$AA?3?$AA?2?$AA?$CB?$AAd?$AAi?$AAf?$AAf?$AAu?$AAs?$AAi?$AAo?$AAn?$AA?5?$AA2?$AA0?$AA2?$AA0?$AA?2?$AAs?$AAo?$AAu?$AAr?$AAc?$AAe?$AA?5?$AAc?$AAo?$AAd?$AAe?$AA?5?$AA2@
CONST	SEGMENT
??_C@_1KE@KAKKLNNK@?$AAd?$AA?3?$AA?2?$AA?$CB?$AAd?$AAi?$AAf?$AAf?$AAu?$AAs?$AAi?$AAo?$AAn?$AA?5?$AA2?$AA0?$AA2?$AA0?$AA?2?$AAs?$AAo?$AAu?$AAr?$AAc?$AAe?$AA?5?$AAc?$AAo?$AAd?$AAe?$AA?5?$AA2@ DB 'd'
	DB	00H, ':', 00H, '\', 00H, '!', 00H, 'd', 00H, 'i', 00H, 'f', 00H
	DB	'f', 00H, 'u', 00H, 's', 00H, 'i', 00H, 'o', 00H, 'n', 00H, ' '
	DB	00H, '2', 00H, '0', 00H, '2', 00H, '0', 00H, '\', 00H, 's', 00H
	DB	'o', 00H, 'u', 00H, 'r', 00H, 'c', 00H, 'e', 00H, ' ', 00H, 'c'
	DB	00H, 'o', 00H, 'd', 00H, 'e', 00H, ' ', 00H, '2', 00H, '0', 00H
	DB	'2', 00H, '2', 00H, '\', 00H, 'c', 00H, 'l', 00H, 'i', 00H, 'e'
	DB	00H, 'n', 00H, 't', 00H, '-', 00H, 's', 00H, 'e', 00H, 'r', 00H
	DB	'v', 00H, 'e', 00H, 'r', 00H, '\', 00H, 'c', 00H, 'l', 00H, 'i'
	DB	00H, 'e', 00H, 'n', 00H, 't', 00H, '\', 00H, 'r', 00H, 'e', 00H
	DB	'n', 00H, 'd', 00H, 'e', 00H, 'r', 00H, '\', 00H, 'r', 00H, '_'
	DB	00H, 's', 00H, 't', 00H, 'u', 00H, 'd', 00H, 'i', 00H, 'o', 00H
	DB	'd', 00H, 'e', 00H, 'c', 00H, 'a', 00H, 'l', 00H, '.', 00H, 'c'
	DB	00H, 'p', 00H, 'p', 00H, 00H, 00H		; `string'
CONST	ENDS
;	COMDAT ?__LINE__Var@?0??RetireDecal@CStudioModelRenderer@@AAEXAAV?$CUtlLinkedList@UDecalHistory_t@CStudioModelRenderer@@G@@@Z@4JA
_DATA	SEGMENT
?__LINE__Var@?0??RetireDecal@CStudioModelRenderer@@AAEXAAV?$CUtlLinkedList@UDecalHistory_t@CStudioModelRenderer@@G@@@Z@4JA DD 03cbH ; `CStudioModelRenderer::RetireDecal'::`1'::__LINE__Var
_DATA	ENDS
;	COMDAT ?__LINE__Var@?0??CreateDecalForMaterial@CStudioModelRenderer@@AAEXAAUDecalBuildInfo_t@2@@Z@4JA
_DATA	SEGMENT
?__LINE__Var@?0??CreateDecalForMaterial@CStudioModelRenderer@@AAEXAAUDecalBuildInfo_t@2@@Z@4JA DD 037cH ; `CStudioModelRenderer::CreateDecalForMaterial'::`1'::__LINE__Var
_DATA	ENDS
;	COMDAT ?__LINE__Var@?0??IntersectPlane@CStudioModelRenderer@@AAEHAAUDecalClipState_t@@HHHM@Z@4JA
_DATA	SEGMENT
?__LINE__Var@?0??IntersectPlane@CStudioModelRenderer@@AAEHAAUDecalClipState_t@@HHHM@Z@4JA DD 01fcH ; `CStudioModelRenderer::IntersectPlane'::`1'::__LINE__Var
_DATA	ENDS
;	COMDAT ?__LINE__Var@?0??AddClippedDecalToTriangle@CStudioModelRenderer@@AAEXAAUDecalBuildInfo_t@2@AAUDecalClipState_t@@@Z@4JA
_DATA	SEGMENT
?__LINE__Var@?0??AddClippedDecalToTriangle@CStudioModelRenderer@@AAEXAAUDecalBuildInfo_t@2@AAUDecalClipState_t@@@Z@4JA DD 01daH ; `CStudioModelRenderer::AddClippedDecalToTriangle'::`1'::__LINE__Var
_DATA	ENDS
;	COMDAT ?__LINE__Var@?0??AddVertexToDecal@CStudioModelRenderer@@AAEGAAUDecalBuildInfo_t@2@AAUDecalVertex_t@@@Z@4JA
_DATA	SEGMENT
?__LINE__Var@?0??AddVertexToDecal@CStudioModelRenderer@@AAEGAAUDecalBuildInfo_t@2@AAUDecalVertex_t@@@Z@4JA DD 01adH ; `CStudioModelRenderer::AddVertexToDecal'::`1'::__LINE__Var
_DATA	ENDS
;	COMDAT ??_C@_0BI@FECCGOFJ@assert?5failed?5at?5?$CFs?3?$CFi?6?$AA@
CONST	SEGMENT
??_C@_0BI@FECCGOFJ@assert?5failed?5at?5?$CFs?3?$CFi?6?$AA@ DB 'assert fai'
	DB	'led at %s:%i', 0aH, 00H			; `string'
CONST	ENDS
;	COMDAT ??_C@_0FC@KDOHJOI@d?3?2?$CBdiffusion?52020?2source?5code?52@
CONST	SEGMENT
??_C@_0FC@KDOHJOI@d?3?2?$CBdiffusion?52020?2source?5code?52@ DB 'd:\!diff'
	DB	'usion 2020\source code 2022\client-server\client\render\r_stu'
	DB	'diodecal.cpp', 00H				; `string'
CONST	ENDS
;	COMDAT ?__LINE__Var@?0??AddVertexToDecal@CStudioModelRenderer@@AAEGAAUDecalBuildInfo_t@2@H@Z@4JA
_DATA	SEGMENT
?__LINE__Var@?0??AddVertexToDecal@CStudioModelRenderer@@AAEGAAUDecalBuildInfo_t@2@H@Z@4JA DD 018aH ; `CStudioModelRenderer::AddVertexToDecal'::`1'::__LINE__Var
_DATA	ENDS
;	COMDAT ??_C@_0DI@IHNHAFEA@StudioDecalList?3?5too?5many?5studio@
CONST	SEGMENT
??_C@_0DI@IHNHAFEA@StudioDecalList?3?5too?5many?5studio@ DB 'StudioDecalL'
	DB	'ist: too many studio decals on save', 0dH, 'estore', 0aH, 00H ; `string'
CONST	ENDS
;	COMDAT xdata$x
xdata$x	SEGMENT
__unwindtable$??$Construct@UDecalModelList_t@CStudioModelRenderer@@@@YAXPAUDecalModelList_t@CStudioModelRenderer@@@Z DD 0ffffffffH
	DD	FLAT:__unwindfunclet$??$Construct@UDecalModelList_t@CStudioModelRenderer@@@@YAXPAUDecalModelList_t@CStudioModelRenderer@@@Z$0
__ehfuncinfo$??$Construct@UDecalModelList_t@CStudioModelRenderer@@@@YAXPAUDecalModelList_t@CStudioModelRenderer@@@Z DD 019930522H
	DD	01H
	DD	FLAT:__unwindtable$??$Construct@UDecalModelList_t@CStudioModelRenderer@@@@YAXPAUDecalModelList_t@CStudioModelRenderer@@@Z
	DD	2 DUP(00H)
	DD	2 DUP(00H)
	DD	00H
	DD	01H
xdata$x	ENDS
;	COMDAT xdata$x
xdata$x	SEGMENT
__unwindtable$??$Construct@UDecal_t@CStudioModelRenderer@@@@YAXPAUDecal_t@CStudioModelRenderer@@@Z DD 0ffffffffH
	DD	FLAT:__unwindfunclet$??$Construct@UDecal_t@CStudioModelRenderer@@@@YAXPAUDecal_t@CStudioModelRenderer@@@Z$0
__ehfuncinfo$??$Construct@UDecal_t@CStudioModelRenderer@@@@YAXPAUDecal_t@CStudioModelRenderer@@@Z DD 019930522H
	DD	01H
	DD	FLAT:__unwindtable$??$Construct@UDecal_t@CStudioModelRenderer@@@@YAXPAUDecal_t@CStudioModelRenderer@@@Z
	DD	2 DUP(00H)
	DD	2 DUP(00H)
	DD	00H
	DD	01H
xdata$x	ENDS
;	COMDAT xdata$x
xdata$x	SEGMENT
__unwindtable$??$Construct@UDecalVertex_t@@@@YAXPAUDecalVertex_t@@@Z DD 0ffffffffH
	DD	FLAT:__unwindfunclet$??$Construct@UDecalVertex_t@@@@YAXPAUDecalVertex_t@@@Z$0
__ehfuncinfo$??$Construct@UDecalVertex_t@@@@YAXPAUDecalVertex_t@@@Z DD 019930522H
	DD	01H
	DD	FLAT:__unwindtable$??$Construct@UDecalVertex_t@@@@YAXPAUDecalVertex_t@@@Z
	DD	2 DUP(00H)
	DD	2 DUP(00H)
	DD	00H
	DD	01H
xdata$x	ENDS
;	COMDAT xdata$x
xdata$x	SEGMENT
__unwindtable$??$CopyConstruct@UDecalVertex_t@@@@YAXPAUDecalVertex_t@@ABU0@@Z DD 0ffffffffH
	DD	FLAT:__unwindfunclet$??$CopyConstruct@UDecalVertex_t@@@@YAXPAUDecalVertex_t@@ABU0@@Z$0
__ehfuncinfo$??$CopyConstruct@UDecalVertex_t@@@@YAXPAUDecalVertex_t@@ABU0@@Z DD 019930522H
	DD	01H
	DD	FLAT:__unwindtable$??$CopyConstruct@UDecalVertex_t@@@@YAXPAUDecalVertex_t@@ABU0@@Z
	DD	2 DUP(00H)
	DD	2 DUP(00H)
	DD	00H
	DD	01H
xdata$x	ENDS
;	COMDAT xdata$x
xdata$x	SEGMENT
__unwindtable$??$Construct@UDecalMaterial_t@CStudioModelRenderer@@@@YAXPAUDecalMaterial_t@CStudioModelRenderer@@@Z DD 0ffffffffH
	DD	FLAT:__unwindfunclet$??$Construct@UDecalMaterial_t@CStudioModelRenderer@@@@YAXPAUDecalMaterial_t@CStudioModelRenderer@@@Z$0
__ehfuncinfo$??$Construct@UDecalMaterial_t@CStudioModelRenderer@@@@YAXPAUDecalMaterial_t@CStudioModelRenderer@@@Z DD 019930522H
	DD	01H
	DD	FLAT:__unwindtable$??$Construct@UDecalMaterial_t@CStudioModelRenderer@@@@YAXPAUDecalMaterial_t@CStudioModelRenderer@@@Z
	DD	2 DUP(00H)
	DD	2 DUP(00H)
	DD	00H
	DD	01H
xdata$x	ENDS
;	COMDAT xdata$x
xdata$x	SEGMENT
__ehfuncinfo$??1?$CUtlMemory@UListElem_t@?$CUtlLinkedList@UDecalHistory_t@CStudioModelRenderer@@G@@H@@QAE@XZ DD 019930522H
	DD	00H
	DD	00H
	DD	2 DUP(00H)
	DD	2 DUP(00H)
	DD	00H
	DD	05H
xdata$x	ENDS
;	COMDAT xdata$x
xdata$x	SEGMENT
__ehfuncinfo$??1?$CUtlLinkedList@UDecalHistory_t@CStudioModelRenderer@@G@@QAE@XZ DD 019930522H
	DD	00H
	DD	00H
	DD	2 DUP(00H)
	DD	2 DUP(00H)
	DD	00H
	DD	05H
xdata$x	ENDS
;	COMDAT xdata$x
xdata$x	SEGMENT
__unwindtable$??0?$CUtlLinkedList@UDecalHistory_t@CStudioModelRenderer@@G@@QAE@HH@Z DD 0ffffffffH
	DD	FLAT:__unwindfunclet$??0?$CUtlLinkedList@UDecalHistory_t@CStudioModelRenderer@@G@@QAE@HH@Z$0
__ehfuncinfo$??0?$CUtlLinkedList@UDecalHistory_t@CStudioModelRenderer@@G@@QAE@HH@Z DD 019930522H
	DD	01H
	DD	FLAT:__unwindtable$??0?$CUtlLinkedList@UDecalHistory_t@CStudioModelRenderer@@G@@QAE@HH@Z
	DD	2 DUP(00H)
	DD	2 DUP(00H)
	DD	00H
	DD	01H
xdata$x	ENDS
;	COMDAT xdata$x
xdata$x	SEGMENT
__unwindtable$??0DecalMaterial_t@CStudioModelRenderer@@QAE@XZ DD 0ffffffffH
	DD	FLAT:__unwindfunclet$??0DecalMaterial_t@CStudioModelRenderer@@QAE@XZ$0
	DD	00H
	DD	FLAT:__unwindfunclet$??0DecalMaterial_t@CStudioModelRenderer@@QAE@XZ$1
__ehfuncinfo$??0DecalMaterial_t@CStudioModelRenderer@@QAE@XZ DD 019930522H
	DD	02H
	DD	FLAT:__unwindtable$??0DecalMaterial_t@CStudioModelRenderer@@QAE@XZ
	DD	2 DUP(00H)
	DD	2 DUP(00H)
	DD	00H
	DD	01H
xdata$x	ENDS
;	COMDAT xdata$x
xdata$x	SEGMENT
__ehfuncinfo$??1?$CUtlMemory@UListElem_t@?$CUtlLinkedList@UDecal_t@CStudioModelRenderer@@G@@H@@QAE@XZ DD 019930522H
	DD	00H
	DD	00H
	DD	2 DUP(00H)
	DD	2 DUP(00H)
	DD	00H
	DD	05H
xdata$x	ENDS
;	COMDAT xdata$x
xdata$x	SEGMENT
__ehfuncinfo$??1?$CUtlLinkedList@UDecal_t@CStudioModelRenderer@@G@@QAE@XZ DD 019930522H
	DD	00H
	DD	00H
	DD	2 DUP(00H)
	DD	2 DUP(00H)
	DD	00H
	DD	05H
xdata$x	ENDS
;	COMDAT xdata$x
xdata$x	SEGMENT
__unwindtable$??0?$CUtlLinkedList@UDecal_t@CStudioModelRenderer@@G@@QAE@HH@Z DD 0ffffffffH
	DD	FLAT:__unwindfunclet$??0?$CUtlLinkedList@UDecal_t@CStudioModelRenderer@@G@@QAE@HH@Z$0
__ehfuncinfo$??0?$CUtlLinkedList@UDecal_t@CStudioModelRenderer@@G@@QAE@HH@Z DD 019930522H
	DD	01H
	DD	FLAT:__unwindtable$??0?$CUtlLinkedList@UDecal_t@CStudioModelRenderer@@G@@QAE@HH@Z
	DD	2 DUP(00H)
	DD	2 DUP(00H)
	DD	00H
	DD	01H
xdata$x	ENDS
;	COMDAT xdata$x
xdata$x	SEGMENT
__ehfuncinfo$??1?$CUtlMemory@UListElem_t@?$CUtlLinkedList@UDecalVertex_t@@G@@H@@QAE@XZ DD 019930522H
	DD	00H
	DD	00H
	DD	2 DUP(00H)
	DD	2 DUP(00H)
	DD	00H
	DD	05H
xdata$x	ENDS
;	COMDAT xdata$x
xdata$x	SEGMENT
__ehfuncinfo$??1?$CUtlLinkedList@UDecalVertex_t@@G@@QAE@XZ DD 019930522H
	DD	00H
	DD	00H
	DD	2 DUP(00H)
	DD	2 DUP(00H)
	DD	00H
	DD	05H
xdata$x	ENDS
;	COMDAT xdata$x
xdata$x	SEGMENT
__unwindtable$??0?$CUtlLinkedList@UDecalVertex_t@@G@@QAE@HH@Z DD 0ffffffffH
	DD	FLAT:__unwindfunclet$??0?$CUtlLinkedList@UDecalVertex_t@@G@@QAE@HH@Z$0
__ehfuncinfo$??0?$CUtlLinkedList@UDecalVertex_t@@G@@QAE@HH@Z DD 019930522H
	DD	01H
	DD	FLAT:__unwindtable$??0?$CUtlLinkedList@UDecalVertex_t@@G@@QAE@HH@Z
	DD	2 DUP(00H)
	DD	2 DUP(00H)
	DD	00H
	DD	01H
xdata$x	ENDS
;	COMDAT xdata$x
xdata$x	SEGMENT
__ehfuncinfo$??1?$CUtlMemory@GH@@QAE@XZ DD 019930522H
	DD	00H
	DD	00H
	DD	2 DUP(00H)
	DD	2 DUP(00H)
	DD	00H
	DD	05H
xdata$x	ENDS
;	COMDAT xdata$x
xdata$x	SEGMENT
__ehfuncinfo$??1?$CUtlArray@GV?$CUtlMemory@GH@@@@QAE@XZ DD 019930522H
	DD	00H
	DD	00H
	DD	2 DUP(00H)
	DD	2 DUP(00H)
	DD	00H
	DD	05H
xdata$x	ENDS
;	COMDAT xdata$x
xdata$x	SEGMENT
__unwindtable$??0?$CUtlArray@GV?$CUtlMemory@GH@@@@QAE@HH@Z DD 0ffffffffH
	DD	FLAT:__unwindfunclet$??0?$CUtlArray@GV?$CUtlMemory@GH@@@@QAE@HH@Z$0
__ehfuncinfo$??0?$CUtlArray@GV?$CUtlMemory@GH@@@@QAE@HH@Z DD 019930522H
	DD	01H
	DD	FLAT:__unwindtable$??0?$CUtlArray@GV?$CUtlMemory@GH@@@@QAE@HH@Z
	DD	2 DUP(00H)
	DD	2 DUP(00H)
	DD	00H
	DD	01H
xdata$x	ENDS
; Function compile flags: /Odtp /ZI
; File d:\!diffusion 2020\source code 2022\client-server\game_shared\utlmemory.h
;	COMDAT ??$Destruct@UDecalModelList_t@CStudioModelRenderer@@@@YAXPAUDecalModelList_t@CStudioModelRenderer@@@Z
_TEXT	SEGMENT
_pMemory$ = 8						; size = 4
??$Destruct@UDecalModelList_t@CStudioModelRenderer@@@@YAXPAUDecalModelList_t@CStudioModelRenderer@@@Z PROC ; Destruct<CStudioModelRenderer::DecalModelList_t>, COMDAT

; 49   : {

	push	ebp
	mov	ebp, esp
	sub	esp, 64					; 00000040H
	push	ebx
	push	esi
	push	edi

; 50   : 	pMemory->~T();

	push	0
	mov	ecx, DWORD PTR _pMemory$[ebp]
	call	??_GDecalModelList_t@CStudioModelRenderer@@QAEPAXI@Z

; 51   : 
; 52   : #ifdef _DEBUG
; 53   : 	memset( pMemory, 0xDD, sizeof(T) );

	push	32					; 00000020H
	push	221					; 000000ddH
	mov	eax, DWORD PTR _pMemory$[ebp]
	push	eax
	call	_memset
	add	esp, 12					; 0000000cH

; 54   : #endif
; 55   : }

	pop	edi
	pop	esi
	pop	ebx
	mov	esp, ebp
	pop	ebp
	ret	0
??$Destruct@UDecalModelList_t@CStudioModelRenderer@@@@YAXPAUDecalModelList_t@CStudioModelRenderer@@@Z ENDP ; Destruct<CStudioModelRenderer::DecalModelList_t>
_TEXT	ENDS
; Function compile flags: /Odtp /ZI
; File d:\!diffusion 2020\source code 2022\client-server\game_shared\utlmemory.h
;	COMDAT ??$Construct@UDecalModelList_t@CStudioModelRenderer@@@@YAXPAUDecalModelList_t@CStudioModelRenderer@@@Z
_TEXT	SEGMENT
tv76 = -88						; size = 4
$T2 = -84						; size = 4
$T3 = -80						; size = 4
__$EHRec$ = -12						; size = 12
_pMemory$ = 8						; size = 4
??$Construct@UDecalModelList_t@CStudioModelRenderer@@@@YAXPAUDecalModelList_t@CStudioModelRenderer@@@Z PROC ; Construct<CStudioModelRenderer::DecalModelList_t>, COMDAT

; 37   : {

	push	ebp
	mov	ebp, esp
	push	-1
	push	__ehhandler$??$Construct@UDecalModelList_t@CStudioModelRenderer@@@@YAXPAUDecalModelList_t@CStudioModelRenderer@@@Z
	mov	eax, DWORD PTR fs:0
	push	eax
	sub	esp, 76					; 0000004cH
	push	ebx
	push	esi
	push	edi
	mov	eax, DWORD PTR ___security_cookie
	xor	eax, ebp
	push	eax
	lea	eax, DWORD PTR __$EHRec$[ebp]
	mov	DWORD PTR fs:0, eax

; 38   : 	new( pMemory ) T;

	mov	eax, DWORD PTR _pMemory$[ebp]
	push	eax
	push	32					; 00000020H
	call	??2@YAPAXIPAX@Z				; operator new
	add	esp, 8
	mov	DWORD PTR $T2[ebp], eax
	mov	DWORD PTR __$EHRec$[ebp+8], 0
	cmp	DWORD PTR $T2[ebp], 0
	je	SHORT $LN3@Construct
	mov	ecx, DWORD PTR $T2[ebp]
	call	??0DecalModelList_t@CStudioModelRenderer@@QAE@XZ
	mov	DWORD PTR tv76[ebp], eax
	jmp	SHORT $LN4@Construct
$LN3@Construct:
	mov	DWORD PTR tv76[ebp], 0
$LN4@Construct:
	mov	ecx, DWORD PTR tv76[ebp]
	mov	DWORD PTR $T3[ebp], ecx
	mov	DWORD PTR __$EHRec$[ebp+8], -1

; 39   : }

	mov	ecx, DWORD PTR __$EHRec$[ebp]
	mov	DWORD PTR fs:0, ecx
	pop	ecx
	pop	edi
	pop	esi
	pop	ebx
	mov	esp, ebp
	pop	ebp
	ret	0
_TEXT	ENDS
;	COMDAT text$x
text$x	SEGMENT
__unwindfunclet$??$Construct@UDecalModelList_t@CStudioModelRenderer@@@@YAXPAUDecalModelList_t@CStudioModelRenderer@@@Z$0:
	mov	eax, DWORD PTR _pMemory$[ebp]
	push	eax
	mov	eax, DWORD PTR $T2[ebp]
	push	eax
	call	??3@YAXPAX0@Z				; operator delete
	add	esp, 8
	ret	0
__ehhandler$??$Construct@UDecalModelList_t@CStudioModelRenderer@@@@YAXPAUDecalModelList_t@CStudioModelRenderer@@@Z:
	mov	edx, DWORD PTR [esp+8]
	lea	eax, DWORD PTR [edx+12]
	mov	ecx, DWORD PTR [edx-92]
	xor	ecx, eax
	call	@__security_check_cookie@4
	mov	eax, OFFSET __ehfuncinfo$??$Construct@UDecalModelList_t@CStudioModelRenderer@@@@YAXPAUDecalModelList_t@CStudioModelRenderer@@@Z
	jmp	___CxxFrameHandler3
text$x	ENDS
??$Construct@UDecalModelList_t@CStudioModelRenderer@@@@YAXPAUDecalModelList_t@CStudioModelRenderer@@@Z ENDP ; Construct<CStudioModelRenderer::DecalModelList_t>
; Function compile flags: /Odtp /ZI
; File d:\!diffusion 2020\source code 2022\client-server\game_shared\utlmemory.h
;	COMDAT ??$Destruct@UDecalMaterial_t@CStudioModelRenderer@@@@YAXPAUDecalMaterial_t@CStudioModelRenderer@@@Z
_TEXT	SEGMENT
_pMemory$ = 8						; size = 4
??$Destruct@UDecalMaterial_t@CStudioModelRenderer@@@@YAXPAUDecalMaterial_t@CStudioModelRenderer@@@Z PROC ; Destruct<CStudioModelRenderer::DecalMaterial_t>, COMDAT

; 49   : {

	push	ebp
	mov	ebp, esp
	sub	esp, 64					; 00000040H
	push	ebx
	push	esi
	push	edi

; 50   : 	pMemory->~T();

	push	0
	mov	ecx, DWORD PTR _pMemory$[ebp]
	call	??_GDecalMaterial_t@CStudioModelRenderer@@QAEPAXI@Z

; 51   : 
; 52   : #ifdef _DEBUG
; 53   : 	memset( pMemory, 0xDD, sizeof(T) );

	push	92					; 0000005cH
	push	221					; 000000ddH
	mov	eax, DWORD PTR _pMemory$[ebp]
	push	eax
	call	_memset
	add	esp, 12					; 0000000cH

; 54   : #endif
; 55   : }

	pop	edi
	pop	esi
	pop	ebx
	mov	esp, ebp
	pop	ebp
	ret	0
??$Destruct@UDecalMaterial_t@CStudioModelRenderer@@@@YAXPAUDecalMaterial_t@CStudioModelRenderer@@@Z ENDP ; Destruct<CStudioModelRenderer::DecalMaterial_t>
_TEXT	ENDS
; Function compile flags: /Odtp /ZI
; File d:\!diffusion 2020\source code 2022\client-server\game_shared\utlmemory.h
;	COMDAT ??$Destruct@UDecalHistory_t@CStudioModelRenderer@@@@YAXPAUDecalHistory_t@CStudioModelRenderer@@@Z
_TEXT	SEGMENT
_pMemory$ = 8						; size = 4
??$Destruct@UDecalHistory_t@CStudioModelRenderer@@@@YAXPAUDecalHistory_t@CStudioModelRenderer@@@Z PROC ; Destruct<CStudioModelRenderer::DecalHistory_t>, COMDAT

; 49   : {

	push	ebp
	mov	ebp, esp
	sub	esp, 64					; 00000040H
	push	ebx
	push	esi
	push	edi

; 50   : 	pMemory->~T();
; 51   : 
; 52   : #ifdef _DEBUG
; 53   : 	memset( pMemory, 0xDD, sizeof(T) );

	push	4
	push	221					; 000000ddH
	mov	eax, DWORD PTR _pMemory$[ebp]
	push	eax
	call	_memset
	add	esp, 12					; 0000000cH

; 54   : #endif
; 55   : }

	pop	edi
	pop	esi
	pop	ebx
	mov	esp, ebp
	pop	ebp
	ret	0
??$Destruct@UDecalHistory_t@CStudioModelRenderer@@@@YAXPAUDecalHistory_t@CStudioModelRenderer@@@Z ENDP ; Destruct<CStudioModelRenderer::DecalHistory_t>
_TEXT	ENDS
; Function compile flags: /Odtp /ZI
; File d:\!diffusion 2020\source code 2022\client-server\game_shared\utlmemory.h
;	COMDAT ??$Construct@UDecalHistory_t@CStudioModelRenderer@@@@YAXPAUDecalHistory_t@CStudioModelRenderer@@@Z
_TEXT	SEGMENT
$T1 = -68						; size = 4
_pMemory$ = 8						; size = 4
??$Construct@UDecalHistory_t@CStudioModelRenderer@@@@YAXPAUDecalHistory_t@CStudioModelRenderer@@@Z PROC ; Construct<CStudioModelRenderer::DecalHistory_t>, COMDAT

; 37   : {

	push	ebp
	mov	ebp, esp
	sub	esp, 68					; 00000044H
	push	ebx
	push	esi
	push	edi

; 38   : 	new( pMemory ) T;

	mov	eax, DWORD PTR _pMemory$[ebp]
	push	eax
	push	4
	call	??2@YAPAXIPAX@Z				; operator new
	add	esp, 8
	mov	DWORD PTR $T1[ebp], eax

; 39   : }

	pop	edi
	pop	esi
	pop	ebx
	mov	esp, ebp
	pop	ebp
	ret	0
??$Construct@UDecalHistory_t@CStudioModelRenderer@@@@YAXPAUDecalHistory_t@CStudioModelRenderer@@@Z ENDP ; Construct<CStudioModelRenderer::DecalHistory_t>
_TEXT	ENDS
; Function compile flags: /Odtp /ZI
; File d:\!diffusion 2020\source code 2022\client-server\game_shared\utlmemory.h
;	COMDAT ??$Destruct@UDecal_t@CStudioModelRenderer@@@@YAXPAUDecal_t@CStudioModelRenderer@@@Z
_TEXT	SEGMENT
_pMemory$ = 8						; size = 4
??$Destruct@UDecal_t@CStudioModelRenderer@@@@YAXPAUDecal_t@CStudioModelRenderer@@@Z PROC ; Destruct<CStudioModelRenderer::Decal_t>, COMDAT

; 49   : {

	push	ebp
	mov	ebp, esp
	sub	esp, 64					; 00000040H
	push	ebx
	push	esi
	push	edi

; 50   : 	pMemory->~T();
; 51   : 
; 52   : #ifdef _DEBUG
; 53   : 	memset( pMemory, 0xDD, sizeof(T) );

	push	72					; 00000048H
	push	221					; 000000ddH
	mov	eax, DWORD PTR _pMemory$[ebp]
	push	eax
	call	_memset
	add	esp, 12					; 0000000cH

; 54   : #endif
; 55   : }

	pop	edi
	pop	esi
	pop	ebx
	mov	esp, ebp
	pop	ebp
	ret	0
??$Destruct@UDecal_t@CStudioModelRenderer@@@@YAXPAUDecal_t@CStudioModelRenderer@@@Z ENDP ; Destruct<CStudioModelRenderer::Decal_t>
_TEXT	ENDS
; Function compile flags: /Odtp /ZI
; File d:\!diffusion 2020\source code 2022\client-server\game_shared\utlmemory.h
;	COMDAT ??$Construct@UDecal_t@CStudioModelRenderer@@@@YAXPAUDecal_t@CStudioModelRenderer@@@Z
_TEXT	SEGMENT
tv76 = -88						; size = 4
$T2 = -84						; size = 4
$T3 = -80						; size = 4
__$EHRec$ = -12						; size = 12
_pMemory$ = 8						; size = 4
??$Construct@UDecal_t@CStudioModelRenderer@@@@YAXPAUDecal_t@CStudioModelRenderer@@@Z PROC ; Construct<CStudioModelRenderer::Decal_t>, COMDAT

; 37   : {

	push	ebp
	mov	ebp, esp
	push	-1
	push	__ehhandler$??$Construct@UDecal_t@CStudioModelRenderer@@@@YAXPAUDecal_t@CStudioModelRenderer@@@Z
	mov	eax, DWORD PTR fs:0
	push	eax
	sub	esp, 76					; 0000004cH
	push	ebx
	push	esi
	push	edi
	mov	eax, DWORD PTR ___security_cookie
	xor	eax, ebp
	push	eax
	lea	eax, DWORD PTR __$EHRec$[ebp]
	mov	DWORD PTR fs:0, eax

; 38   : 	new( pMemory ) T;

	mov	eax, DWORD PTR _pMemory$[ebp]
	push	eax
	push	72					; 00000048H
	call	??2@YAPAXIPAX@Z				; operator new
	add	esp, 8
	mov	DWORD PTR $T2[ebp], eax
	mov	DWORD PTR __$EHRec$[ebp+8], 0
	cmp	DWORD PTR $T2[ebp], 0
	je	SHORT $LN3@Construct
	mov	ecx, DWORD PTR $T2[ebp]
	call	??0Decal_t@CStudioModelRenderer@@QAE@XZ
	mov	DWORD PTR tv76[ebp], eax
	jmp	SHORT $LN4@Construct
$LN3@Construct:
	mov	DWORD PTR tv76[ebp], 0
$LN4@Construct:
	mov	ecx, DWORD PTR tv76[ebp]
	mov	DWORD PTR $T3[ebp], ecx
	mov	DWORD PTR __$EHRec$[ebp+8], -1

; 39   : }

	mov	ecx, DWORD PTR __$EHRec$[ebp]
	mov	DWORD PTR fs:0, ecx
	pop	ecx
	pop	edi
	pop	esi
	pop	ebx
	mov	esp, ebp
	pop	ebp
	ret	0
_TEXT	ENDS
;	COMDAT text$x
text$x	SEGMENT
__unwindfunclet$??$Construct@UDecal_t@CStudioModelRenderer@@@@YAXPAUDecal_t@CStudioModelRenderer@@@Z$0:
	mov	eax, DWORD PTR _pMemory$[ebp]
	push	eax
	mov	eax, DWORD PTR $T2[ebp]
	push	eax
	call	??3@YAXPAX0@Z				; operator delete
	add	esp, 8
	ret	0
__ehhandler$??$Construct@UDecal_t@CStudioModelRenderer@@@@YAXPAUDecal_t@CStudioModelRenderer@@@Z:
	mov	edx, DWORD PTR [esp+8]
	lea	eax, DWORD PTR [edx+12]
	mov	ecx, DWORD PTR [edx-92]
	xor	ecx, eax
	call	@__security_check_cookie@4
	mov	eax, OFFSET __ehfuncinfo$??$Construct@UDecal_t@CStudioModelRenderer@@@@YAXPAUDecal_t@CStudioModelRenderer@@@Z
	jmp	___CxxFrameHandler3
text$x	ENDS
??$Construct@UDecal_t@CStudioModelRenderer@@@@YAXPAUDecal_t@CStudioModelRenderer@@@Z ENDP ; Construct<CStudioModelRenderer::Decal_t>
; Function compile flags: /Odtp /ZI
; File d:\!diffusion 2020\source code 2022\client-server\game_shared\utlmemory.h
;	COMDAT ??$CopyConstruct@G@@YAXPAGABG@Z
_TEXT	SEGMENT
tv71 = -72						; size = 4
$T1 = -68						; size = 4
_pMemory$ = 8						; size = 4
_src$ = 12						; size = 4
??$CopyConstruct@G@@YAXPAGABG@Z PROC			; CopyConstruct<unsigned short>, COMDAT

; 43   : {

	push	ebp
	mov	ebp, esp
	sub	esp, 72					; 00000048H
	push	ebx
	push	esi
	push	edi

; 44   : 	new( pMemory ) T(src);

	mov	eax, DWORD PTR _pMemory$[ebp]
	push	eax
	push	2
	call	??2@YAPAXIPAX@Z				; operator new
	add	esp, 8
	mov	DWORD PTR $T1[ebp], eax
	cmp	DWORD PTR $T1[ebp], 0
	je	SHORT $LN3@CopyConstr
	mov	ecx, DWORD PTR $T1[ebp]
	mov	edx, DWORD PTR _src$[ebp]
	mov	ax, WORD PTR [edx]
	mov	WORD PTR [ecx], ax
	mov	ecx, DWORD PTR $T1[ebp]
	mov	DWORD PTR tv71[ebp], ecx
	jmp	SHORT $LN1@CopyConstr
$LN3@CopyConstr:
	mov	DWORD PTR tv71[ebp], 0
$LN1@CopyConstr:

; 45   : }

	pop	edi
	pop	esi
	pop	ebx
	mov	esp, ebp
	pop	ebp
	ret	0
??$CopyConstruct@G@@YAXPAGABG@Z ENDP			; CopyConstruct<unsigned short>
_TEXT	ENDS
; Function compile flags: /Odtp /ZI
; File d:\!diffusion 2020\source code 2022\client-server\game_shared\utlmemory.h
;	COMDAT ??$Destruct@UDecalVertex_t@@@@YAXPAUDecalVertex_t@@@Z
_TEXT	SEGMENT
_pMemory$ = 8						; size = 4
??$Destruct@UDecalVertex_t@@@@YAXPAUDecalVertex_t@@@Z PROC ; Destruct<DecalVertex_t>, COMDAT

; 49   : {

	push	ebp
	mov	ebp, esp
	sub	esp, 64					; 00000040H
	push	ebx
	push	esi
	push	edi

; 50   : 	pMemory->~T();
; 51   : 
; 52   : #ifdef _DEBUG
; 53   : 	memset( pMemory, 0xDD, sizeof(T) );

	push	64					; 00000040H
	push	221					; 000000ddH
	mov	eax, DWORD PTR _pMemory$[ebp]
	push	eax
	call	_memset
	add	esp, 12					; 0000000cH

; 54   : #endif
; 55   : }

	pop	edi
	pop	esi
	pop	ebx
	mov	esp, ebp
	pop	ebp
	ret	0
??$Destruct@UDecalVertex_t@@@@YAXPAUDecalVertex_t@@@Z ENDP ; Destruct<DecalVertex_t>
_TEXT	ENDS
; Function compile flags: /Odtp /ZI
; File d:\!diffusion 2020\source code 2022\client-server\game_shared\utlmemory.h
;	COMDAT ??$Construct@UDecalVertex_t@@@@YAXPAUDecalVertex_t@@@Z
_TEXT	SEGMENT
tv76 = -88						; size = 4
$T2 = -84						; size = 4
$T3 = -80						; size = 4
__$EHRec$ = -12						; size = 12
_pMemory$ = 8						; size = 4
??$Construct@UDecalVertex_t@@@@YAXPAUDecalVertex_t@@@Z PROC ; Construct<DecalVertex_t>, COMDAT

; 37   : {

	push	ebp
	mov	ebp, esp
	push	-1
	push	__ehhandler$??$Construct@UDecalVertex_t@@@@YAXPAUDecalVertex_t@@@Z
	mov	eax, DWORD PTR fs:0
	push	eax
	sub	esp, 76					; 0000004cH
	push	ebx
	push	esi
	push	edi
	mov	eax, DWORD PTR ___security_cookie
	xor	eax, ebp
	push	eax
	lea	eax, DWORD PTR __$EHRec$[ebp]
	mov	DWORD PTR fs:0, eax

; 38   : 	new( pMemory ) T;

	mov	eax, DWORD PTR _pMemory$[ebp]
	push	eax
	push	64					; 00000040H
	call	??2@YAPAXIPAX@Z				; operator new
	add	esp, 8
	mov	DWORD PTR $T2[ebp], eax
	mov	DWORD PTR __$EHRec$[ebp+8], 0
	cmp	DWORD PTR $T2[ebp], 0
	je	SHORT $LN3@Construct
	mov	ecx, DWORD PTR $T2[ebp]
	call	??0DecalVertex_t@@QAE@XZ
	mov	DWORD PTR tv76[ebp], eax
	jmp	SHORT $LN4@Construct
$LN3@Construct:
	mov	DWORD PTR tv76[ebp], 0
$LN4@Construct:
	mov	ecx, DWORD PTR tv76[ebp]
	mov	DWORD PTR $T3[ebp], ecx
	mov	DWORD PTR __$EHRec$[ebp+8], -1

; 39   : }

	mov	ecx, DWORD PTR __$EHRec$[ebp]
	mov	DWORD PTR fs:0, ecx
	pop	ecx
	pop	edi
	pop	esi
	pop	ebx
	mov	esp, ebp
	pop	ebp
	ret	0
_TEXT	ENDS
;	COMDAT text$x
text$x	SEGMENT
__unwindfunclet$??$Construct@UDecalVertex_t@@@@YAXPAUDecalVertex_t@@@Z$0:
	mov	eax, DWORD PTR _pMemory$[ebp]
	push	eax
	mov	eax, DWORD PTR $T2[ebp]
	push	eax
	call	??3@YAXPAX0@Z				; operator delete
	add	esp, 8
	ret	0
__ehhandler$??$Construct@UDecalVertex_t@@@@YAXPAUDecalVertex_t@@@Z:
	mov	edx, DWORD PTR [esp+8]
	lea	eax, DWORD PTR [edx+12]
	mov	ecx, DWORD PTR [edx-92]
	xor	ecx, eax
	call	@__security_check_cookie@4
	mov	eax, OFFSET __ehfuncinfo$??$Construct@UDecalVertex_t@@@@YAXPAUDecalVertex_t@@@Z
	jmp	___CxxFrameHandler3
text$x	ENDS
??$Construct@UDecalVertex_t@@@@YAXPAUDecalVertex_t@@@Z ENDP ; Construct<DecalVertex_t>
; Function compile flags: /Odtp /ZI
; File d:\!diffusion 2020\source code 2022\client-server\game_shared\utlmemory.h
;	COMDAT ??$CopyConstruct@UDecalVertex_t@@@@YAXPAUDecalVertex_t@@ABU0@@Z
_TEXT	SEGMENT
tv77 = -88						; size = 4
$T2 = -84						; size = 4
$T3 = -80						; size = 4
__$EHRec$ = -12						; size = 12
_pMemory$ = 8						; size = 4
_src$ = 12						; size = 4
??$CopyConstruct@UDecalVertex_t@@@@YAXPAUDecalVertex_t@@ABU0@@Z PROC ; CopyConstruct<DecalVertex_t>, COMDAT

; 43   : {

	push	ebp
	mov	ebp, esp
	push	-1
	push	__ehhandler$??$CopyConstruct@UDecalVertex_t@@@@YAXPAUDecalVertex_t@@ABU0@@Z
	mov	eax, DWORD PTR fs:0
	push	eax
	sub	esp, 76					; 0000004cH
	push	ebx
	push	esi
	push	edi
	mov	eax, DWORD PTR ___security_cookie
	xor	eax, ebp
	push	eax
	lea	eax, DWORD PTR __$EHRec$[ebp]
	mov	DWORD PTR fs:0, eax

; 44   : 	new( pMemory ) T(src);

	mov	eax, DWORD PTR _pMemory$[ebp]
	push	eax
	push	64					; 00000040H
	call	??2@YAPAXIPAX@Z				; operator new
	add	esp, 8
	mov	DWORD PTR $T2[ebp], eax
	mov	DWORD PTR __$EHRec$[ebp+8], 0
	cmp	DWORD PTR $T2[ebp], 0
	je	SHORT $LN3@CopyConstr
	mov	ecx, DWORD PTR _src$[ebp]
	push	ecx
	mov	ecx, DWORD PTR $T2[ebp]
	call	??0DecalVertex_t@@QAE@ABU0@@Z
	mov	DWORD PTR tv77[ebp], eax
	jmp	SHORT $LN4@CopyConstr
$LN3@CopyConstr:
	mov	DWORD PTR tv77[ebp], 0
$LN4@CopyConstr:
	mov	edx, DWORD PTR tv77[ebp]
	mov	DWORD PTR $T3[ebp], edx
	mov	DWORD PTR __$EHRec$[ebp+8], -1

; 45   : }

	mov	ecx, DWORD PTR __$EHRec$[ebp]
	mov	DWORD PTR fs:0, ecx
	pop	ecx
	pop	edi
	pop	esi
	pop	ebx
	mov	esp, ebp
	pop	ebp
	ret	0
_TEXT	ENDS
;	COMDAT text$x
text$x	SEGMENT
__unwindfunclet$??$CopyConstruct@UDecalVertex_t@@@@YAXPAUDecalVertex_t@@ABU0@@Z$0:
	mov	eax, DWORD PTR _pMemory$[ebp]
	push	eax
	mov	eax, DWORD PTR $T2[ebp]
	push	eax
	call	??3@YAXPAX0@Z				; operator delete
	add	esp, 8
	ret	0
__ehhandler$??$CopyConstruct@UDecalVertex_t@@@@YAXPAUDecalVertex_t@@ABU0@@Z:
	mov	edx, DWORD PTR [esp+8]
	lea	eax, DWORD PTR [edx+12]
	mov	ecx, DWORD PTR [edx-92]
	xor	ecx, eax
	call	@__security_check_cookie@4
	mov	eax, OFFSET __ehfuncinfo$??$CopyConstruct@UDecalVertex_t@@@@YAXPAUDecalVertex_t@@ABU0@@Z
	jmp	___CxxFrameHandler3
text$x	ENDS
??$CopyConstruct@UDecalVertex_t@@@@YAXPAUDecalVertex_t@@ABU0@@Z ENDP ; CopyConstruct<DecalVertex_t>
; Function compile flags: /Odtp /ZI
; File d:\!diffusion 2020\source code 2022\client-server\game_shared\utlmemory.h
;	COMDAT ??$Construct@UDecalMaterial_t@CStudioModelRenderer@@@@YAXPAUDecalMaterial_t@CStudioModelRenderer@@@Z
_TEXT	SEGMENT
tv76 = -88						; size = 4
$T2 = -84						; size = 4
$T3 = -80						; size = 4
__$EHRec$ = -12						; size = 12
_pMemory$ = 8						; size = 4
??$Construct@UDecalMaterial_t@CStudioModelRenderer@@@@YAXPAUDecalMaterial_t@CStudioModelRenderer@@@Z PROC ; Construct<CStudioModelRenderer::DecalMaterial_t>, COMDAT

; 37   : {

	push	ebp
	mov	ebp, esp
	push	-1
	push	__ehhandler$??$Construct@UDecalMaterial_t@CStudioModelRenderer@@@@YAXPAUDecalMaterial_t@CStudioModelRenderer@@@Z
	mov	eax, DWORD PTR fs:0
	push	eax
	sub	esp, 76					; 0000004cH
	push	ebx
	push	esi
	push	edi
	mov	eax, DWORD PTR ___security_cookie
	xor	eax, ebp
	push	eax
	lea	eax, DWORD PTR __$EHRec$[ebp]
	mov	DWORD PTR fs:0, eax

; 38   : 	new( pMemory ) T;

	mov	eax, DWORD PTR _pMemory$[ebp]
	push	eax
	push	92					; 0000005cH
	call	??2@YAPAXIPAX@Z				; operator new
	add	esp, 8
	mov	DWORD PTR $T2[ebp], eax
	mov	DWORD PTR __$EHRec$[ebp+8], 0
	cmp	DWORD PTR $T2[ebp], 0
	je	SHORT $LN3@Construct
	mov	ecx, DWORD PTR $T2[ebp]
	call	??0DecalMaterial_t@CStudioModelRenderer@@QAE@XZ
	mov	DWORD PTR tv76[ebp], eax
	jmp	SHORT $LN4@Construct
$LN3@Construct:
	mov	DWORD PTR tv76[ebp], 0
$LN4@Construct:
	mov	ecx, DWORD PTR tv76[ebp]
	mov	DWORD PTR $T3[ebp], ecx
	mov	DWORD PTR __$EHRec$[ebp+8], -1

; 39   : }

	mov	ecx, DWORD PTR __$EHRec$[ebp]
	mov	DWORD PTR fs:0, ecx
	pop	ecx
	pop	edi
	pop	esi
	pop	ebx
	mov	esp, ebp
	pop	ebp
	ret	0
_TEXT	ENDS
;	COMDAT text$x
text$x	SEGMENT
__unwindfunclet$??$Construct@UDecalMaterial_t@CStudioModelRenderer@@@@YAXPAUDecalMaterial_t@CStudioModelRenderer@@@Z$0:
	mov	eax, DWORD PTR _pMemory$[ebp]
	push	eax
	mov	eax, DWORD PTR $T2[ebp]
	push	eax
	call	??3@YAXPAX0@Z				; operator delete
	add	esp, 8
	ret	0
__ehhandler$??$Construct@UDecalMaterial_t@CStudioModelRenderer@@@@YAXPAUDecalMaterial_t@CStudioModelRenderer@@@Z:
	mov	edx, DWORD PTR [esp+8]
	lea	eax, DWORD PTR [edx+12]
	mov	ecx, DWORD PTR [edx-92]
	xor	ecx, eax
	call	@__security_check_cookie@4
	mov	eax, OFFSET __ehfuncinfo$??$Construct@UDecalMaterial_t@CStudioModelRenderer@@@@YAXPAUDecalMaterial_t@CStudioModelRenderer@@@Z
	jmp	___CxxFrameHandler3
text$x	ENDS
??$Construct@UDecalMaterial_t@CStudioModelRenderer@@@@YAXPAUDecalMaterial_t@CStudioModelRenderer@@@Z ENDP ; Construct<CStudioModelRenderer::DecalMaterial_t>
; Function compile flags: /Odtp /ZI
; File d:\!diffusion 2020\source code 2022\client-server\game_shared\utlmemory.h
;	COMDAT ??$Destruct@G@@YAXPAG@Z
_TEXT	SEGMENT
_pMemory$ = 8						; size = 4
??$Destruct@G@@YAXPAG@Z PROC				; Destruct<unsigned short>, COMDAT

; 49   : {

	push	ebp
	mov	ebp, esp
	sub	esp, 64					; 00000040H
	push	ebx
	push	esi
	push	edi

; 50   : 	pMemory->~T();
; 51   : 
; 52   : #ifdef _DEBUG
; 53   : 	memset( pMemory, 0xDD, sizeof(T) );

	push	2
	push	221					; 000000ddH
	mov	eax, DWORD PTR _pMemory$[ebp]
	push	eax
	call	_memset
	add	esp, 12					; 0000000cH

; 54   : #endif
; 55   : }

	pop	edi
	pop	esi
	pop	ebx
	mov	esp, ebp
	pop	ebp
	ret	0
??$Destruct@G@@YAXPAG@Z ENDP				; Destruct<unsigned short>
_TEXT	ENDS
; Function compile flags: /Odtp /ZI
; File d:\!diffusion 2020\source code 2022\client-server\client\render\r_studiodecal.cpp
;	COMDAT ?RemoveAllDecals@CStudioModelRenderer@@QAEXH@Z
_TEXT	SEGMENT
_inst$ = -12						; size = 4
_ent$ = -8						; size = 4
_this$ = -4						; size = 4
_entityIndex$ = 8					; size = 4
?RemoveAllDecals@CStudioModelRenderer@@QAEXH@Z PROC	; CStudioModelRenderer::RemoveAllDecals, COMDAT
; _this$ = ecx

; 81   : {

	push	ebp
	mov	ebp, esp
	sub	esp, 76					; 0000004cH
	push	ebx
	push	esi
	push	edi
	mov	DWORD PTR _this$[ebp], ecx

; 82   : 	if( !g_fRenderInitialized ) return;

	cmp	DWORD PTR ?g_fRenderInitialized@@3HA, 0	; g_fRenderInitialized
	jne	SHORT $LN2@RemoveAllD
	jmp	$LN1@RemoveAllD
$LN2@RemoveAllD:

; 83   : 
; 84   : 	cl_entity_t *ent = gEngfuncs.GetEntityByIndex( entityIndex );

	mov	eax, DWORD PTR _entityIndex$[ebp]
	push	eax
	call	DWORD PTR ?gEngfuncs@@3Ucl_enginefuncs_s@@A+212
	add	esp, 4
	mov	DWORD PTR _ent$[ebp], eax

; 85   : 
; 86   : 	if( !ent || ent->modelhandle == INVALID_HANDLE )

	cmp	DWORD PTR _ent$[ebp], 0
	je	SHORT $LN4@RemoveAllD
	mov	eax, DWORD PTR _ent$[ebp]
	cmp	DWORD PTR [eax+2960], 65535		; 0000ffffH
	jne	SHORT $LN3@RemoveAllD
$LN4@RemoveAllD:

; 87   : 		return;

	jmp	SHORT $LN1@RemoveAllD
$LN3@RemoveAllD:

; 88   : 
; 89   : 	ModelInstance_t *inst = &m_ModelInstances[ent->modelhandle];

	mov	eax, DWORD PTR _ent$[ebp]
	movzx	ecx, WORD PTR [eax+2960]
	push	ecx
	mov	ecx, DWORD PTR _this$[ebp]
	add	ecx, 64					; 00000040H
	call	??A?$CUtlLinkedList@UModelInstance_t@CStudioModelRenderer@@G@@QAEAAUModelInstance_t@CStudioModelRenderer@@G@Z ; CUtlLinkedList<CStudioModelRenderer::ModelInstance_t,unsigned short>::operator[]
	mov	DWORD PTR _inst$[ebp], eax

; 90   : 
; 91   : 	if (inst->m_DecalHandle == INVALID_HANDLE)

	mov	eax, DWORD PTR _inst$[ebp]
	movzx	ecx, WORD PTR [eax+8]
	cmp	ecx, 65535				; 0000ffffH
	jne	SHORT $LN5@RemoveAllD

; 92   : 		return;	// no decals data

	jmp	SHORT $LN1@RemoveAllD
$LN5@RemoveAllD:

; 93   : 
; 94   : 	if( !IsModelInstanceValid( inst ))

	mov	eax, DWORD PTR _inst$[ebp]
	push	eax
	mov	ecx, DWORD PTR _this$[ebp]
	mov	edx, DWORD PTR [ecx]
	mov	ecx, DWORD PTR _this$[ebp]
	mov	eax, DWORD PTR [edx+148]
	call	eax
	movzx	ecx, al
	test	ecx, ecx
	jne	SHORT $LN6@RemoveAllD

; 95   : 		return;	// no instance data

	jmp	SHORT $LN1@RemoveAllD
$LN6@RemoveAllD:

; 96   : 
; 97   : 	DestroyDecalList( inst->m_DecalHandle );

	mov	eax, DWORD PTR _inst$[ebp]
	movzx	ecx, WORD PTR [eax+8]
	push	ecx
	mov	ecx, DWORD PTR _this$[ebp]
	call	?DestroyDecalList@CStudioModelRenderer@@AAEXG@Z ; CStudioModelRenderer::DestroyDecalList

; 98   : 	inst->m_DecalHandle = INVALID_HANDLE;

	mov	eax, 65535				; 0000ffffH
	mov	ecx, DWORD PTR _inst$[ebp]
	mov	WORD PTR [ecx+8], ax
$LN1@RemoveAllD:

; 99   : }

	pop	edi
	pop	esi
	pop	ebx
	mov	esp, ebp
	pop	ebp
	ret	4
?RemoveAllDecals@CStudioModelRenderer@@QAEXH@Z ENDP	; CStudioModelRenderer::RemoveAllDecals
_TEXT	ENDS
; Function compile flags: /Odtp /ZI
; File d:\!diffusion 2020\source code 2022\client-server\client\render\r_studiodecal.cpp
;	COMDAT ?StudioClearDecals@CStudioModelRenderer@@QAEXXZ
_TEXT	SEGMENT
_inst$1 = -12						; size = 4
_i$2 = -8						; size = 4
_this$ = -4						; size = 4
?StudioClearDecals@CStudioModelRenderer@@QAEXXZ PROC	; CStudioModelRenderer::StudioClearDecals, COMDAT
; _this$ = ecx

; 63   : {

	push	ebp
	mov	ebp, esp
	sub	esp, 76					; 0000004cH
	push	ebx
	push	esi
	push	edi
	mov	DWORD PTR _this$[ebp], ecx

; 64   : 	// NOTE: should destroy in reverse-oreder because it's linked list not array!
; 65   : 	for( int i = m_ModelInstances.Count(); --i >= 0; )

	mov	ecx, DWORD PTR _this$[ebp]
	add	ecx, 64					; 00000040H
	call	?Count@?$CUtlLinkedList@UModelInstance_t@CStudioModelRenderer@@G@@QBEHXZ ; CUtlLinkedList<CStudioModelRenderer::ModelInstance_t,unsigned short>::Count
	mov	DWORD PTR _i$2[ebp], eax
$LN4@StudioClea:
	mov	eax, DWORD PTR _i$2[ebp]
	sub	eax, 1
	mov	DWORD PTR _i$2[ebp], eax
	js	SHORT $LN1@StudioClea

; 66   :           {
; 67   : 		ModelInstance_t& inst = m_ModelInstances[i];

	movzx	eax, WORD PTR _i$2[ebp]
	push	eax
	mov	ecx, DWORD PTR _this$[ebp]
	add	ecx, 64					; 00000040H
	call	??A?$CUtlLinkedList@UModelInstance_t@CStudioModelRenderer@@G@@QAEAAUModelInstance_t@CStudioModelRenderer@@G@Z ; CUtlLinkedList<CStudioModelRenderer::ModelInstance_t,unsigned short>::operator[]
	mov	DWORD PTR _inst$1[ebp], eax

; 68   : 
; 69   : 		if( inst.m_DecalHandle == INVALID_HANDLE )

	mov	eax, DWORD PTR _inst$1[ebp]
	movzx	ecx, WORD PTR [eax+8]
	cmp	ecx, 65535				; 0000ffffH
	jne	SHORT $LN5@StudioClea

; 70   : 			continue;	// not initialized?

	jmp	SHORT $LN4@StudioClea
$LN5@StudioClea:

; 71   : 
; 72   : 		DestroyDecalList( inst.m_DecalHandle );

	mov	eax, DWORD PTR _inst$1[ebp]
	movzx	ecx, WORD PTR [eax+8]
	push	ecx
	mov	ecx, DWORD PTR _this$[ebp]
	call	?DestroyDecalList@CStudioModelRenderer@@AAEXG@Z ; CStudioModelRenderer::DestroyDecalList

; 73   : 		inst.m_DecalHandle = INVALID_HANDLE;

	mov	eax, 65535				; 0000ffffH
	mov	ecx, DWORD PTR _inst$1[ebp]
	mov	WORD PTR [ecx+8], ax

; 74   : 	}

	jmp	SHORT $LN4@StudioClea
$LN1@StudioClea:

; 75   : }

	pop	edi
	pop	esi
	pop	ebx
	mov	esp, ebp
	pop	ebp
	ret	0
?StudioClearDecals@CStudioModelRenderer@@QAEXXZ ENDP	; CStudioModelRenderer::StudioClearDecals
_TEXT	ENDS
; Function compile flags: /Odtp /ZI
; File d:\!diffusion 2020\source code 2022\client-server\client\render\r_studiodecal.cpp
;	COMDAT ?StudioDecalList@CStudioModelRenderer@@QAEHPAUdecallist_s@@H@Z
_TEXT	SEGMENT
_pdecal$1 = -120					; size = 4
_decal$2 = -116						; size = 2
_decalMaterial$3 = -112					; size = 4
_mat$4 = -108						; size = 2
_decalMaterial$5 = -104					; size = 2
_list$6 = -100						; size = 4
_decalHandle$7 = -96					; size = 2
_i$8 = -92						; size = 4
_total$ = -88						; size = 4
_decalname$ = -84					; size = 64
_pEntity$ = -20						; size = 4
_pList$ = -16						; size = 4
_maxStudioDecals$ = -12					; size = 4
_this$ = -8						; size = 4
__$ArrayPad$ = -4					; size = 4
_pBaseList$ = 8						; size = 4
_count$ = 12						; size = 4
?StudioDecalList@CStudioModelRenderer@@QAEHPAUdecallist_s@@H@Z PROC ; CStudioModelRenderer::StudioDecalList, COMDAT
; _this$ = ecx

; 105  : {

	push	ebp
	mov	ebp, esp
	sub	esp, 184				; 000000b8H
	mov	eax, DWORD PTR ___security_cookie
	xor	eax, ebp
	mov	DWORD PTR __$ArrayPad$[ebp], eax
	push	ebx
	push	esi
	push	edi
	mov	DWORD PTR _this$[ebp], ecx

; 106  : 	if( !g_fRenderInitialized )

	cmp	DWORD PTR ?g_fRenderInitialized@@3HA, 0	; g_fRenderInitialized
	jne	SHORT $LN10@StudioDeca

; 107  : 		return 0;

	xor	eax, eax
	jmp	$LN1@StudioDeca
$LN10@StudioDeca:

; 108  : 
; 109  : 	int maxStudioDecals = MAX_STUDIO_DECALS + (MAX_BMODEL_DECALS - count);

	mov	eax, 4096				; 00001000H
	sub	eax, DWORD PTR _count$[ebp]
	add	eax, 4096				; 00001000H
	mov	DWORD PTR _maxStudioDecals$[ebp], eax

; 110  : 	decallist_t *pList = pBaseList + count;	// shift list to first free slot

	mov	eax, DWORD PTR _count$[ebp]
	shl	eax, 7
	add	eax, DWORD PTR _pBaseList$[ebp]
	mov	DWORD PTR _pList$[ebp], eax

; 111  : 	cl_entity_t *pEntity = NULL;

	mov	DWORD PTR _pEntity$[ebp], 0

; 112  : 	char decalname[64];
; 113  : 	int total = 0;

	mov	DWORD PTR _total$[ebp], 0

; 114  : 
; 115  : 	for( int i = 0; i < m_ModelInstances.Count(); i++ )

	mov	DWORD PTR _i$8[ebp], 0
	jmp	SHORT $LN4@StudioDeca
$LN2@StudioDeca:
	mov	eax, DWORD PTR _i$8[ebp]
	add	eax, 1
	mov	DWORD PTR _i$8[ebp], eax
$LN4@StudioDeca:
	mov	ecx, DWORD PTR _this$[ebp]
	add	ecx, 64					; 00000040H
	call	?Count@?$CUtlLinkedList@UModelInstance_t@CStudioModelRenderer@@G@@QBEHXZ ; CUtlLinkedList<CStudioModelRenderer::ModelInstance_t,unsigned short>::Count
	cmp	DWORD PTR _i$8[ebp], eax
	jge	$end_serialize$17

; 116  :           {
; 117  : 		word decalHandle = m_ModelInstances[i].m_DecalHandle;

	movzx	eax, WORD PTR _i$8[ebp]
	push	eax
	mov	ecx, DWORD PTR _this$[ebp]
	add	ecx, 64					; 00000040H
	call	??A?$CUtlLinkedList@UModelInstance_t@CStudioModelRenderer@@G@@QAEAAUModelInstance_t@CStudioModelRenderer@@G@Z ; CUtlLinkedList<CStudioModelRenderer::ModelInstance_t,unsigned short>::operator[]
	mov	cx, WORD PTR [eax+8]
	mov	WORD PTR _decalHandle$7[ebp], cx

; 118  : 
; 119  : 		if( decalHandle == INVALID_HANDLE )

	movzx	eax, WORD PTR _decalHandle$7[ebp]
	cmp	eax, 65535				; 0000ffffH
	jne	SHORT $LN11@StudioDeca

; 120  : 			continue;	// no decals for this entity

	jmp	SHORT $LN2@StudioDeca
$LN11@StudioDeca:

; 121  : 
; 122  : 		DecalModelList_t const& list = m_DecalList[decalHandle];

	movzx	eax, WORD PTR _decalHandle$7[ebp]
	push	eax
	mov	ecx, DWORD PTR _this$[ebp]
	add	ecx, 36					; 00000024H
	call	??A?$CUtlLinkedList@UDecalModelList_t@CStudioModelRenderer@@G@@QAEAAUDecalModelList_t@CStudioModelRenderer@@G@Z ; CUtlLinkedList<CStudioModelRenderer::DecalModelList_t,unsigned short>::operator[]
	mov	DWORD PTR _list$6[ebp], eax

; 123  : 		word decalMaterial = m_DecalList[decalHandle].m_FirstMaterial;

	movzx	eax, WORD PTR _decalHandle$7[ebp]
	push	eax
	mov	ecx, DWORD PTR _this$[ebp]
	add	ecx, 36					; 00000024H
	call	??A?$CUtlLinkedList@UDecalModelList_t@CStudioModelRenderer@@G@@QAEAAUDecalModelList_t@CStudioModelRenderer@@G@Z ; CUtlLinkedList<CStudioModelRenderer::DecalModelList_t,unsigned short>::operator[]
	mov	cx, WORD PTR [eax]
	mov	WORD PTR _decalMaterial$5[ebp], cx

; 124  : 
; 125  : 		// setup the decal entity
; 126  : 		pEntity = m_ModelInstances[i].m_pEntity;

	movzx	eax, WORD PTR _i$8[ebp]
	push	eax
	mov	ecx, DWORD PTR _this$[ebp]
	add	ecx, 64					; 00000040H
	call	??A?$CUtlLinkedList@UModelInstance_t@CStudioModelRenderer@@G@@QAEAAUModelInstance_t@CStudioModelRenderer@@G@Z ; CUtlLinkedList<CStudioModelRenderer::ModelInstance_t,unsigned short>::operator[]
	mov	ecx, DWORD PTR [eax]
	mov	DWORD PTR _pEntity$[ebp], ecx

; 127  : 
; 128  : 		for( word mat = list.m_FirstMaterial; mat != m_DecalMaterial.InvalidIndex(); mat = m_DecalMaterial.Next( mat ))

	mov	eax, DWORD PTR _list$6[ebp]
	mov	cx, WORD PTR [eax]
	mov	WORD PTR _mat$4[ebp], cx
	jmp	SHORT $LN7@StudioDeca
$LN5@StudioDeca:
	movzx	eax, WORD PTR _mat$4[ebp]
	push	eax
	mov	ecx, DWORD PTR _this$[ebp]
	add	ecx, 8
	call	?Next@?$CUtlLinkedList@UDecalMaterial_t@CStudioModelRenderer@@G@@QBEGG@Z ; CUtlLinkedList<CStudioModelRenderer::DecalMaterial_t,unsigned short>::Next
	mov	WORD PTR _mat$4[ebp], ax
$LN7@StudioDeca:
	movzx	esi, WORD PTR _mat$4[ebp]
	call	?InvalidIndex@?$CUtlLinkedList@UDecalMaterial_t@CStudioModelRenderer@@G@@SAGXZ ; CUtlLinkedList<CStudioModelRenderer::DecalMaterial_t,unsigned short>::InvalidIndex
	movzx	eax, ax
	cmp	esi, eax
	je	$LN6@StudioDeca

; 129  : 		{
; 130  : 			DecalMaterial_t& decalMaterial = m_DecalMaterial[mat];

	movzx	eax, WORD PTR _mat$4[ebp]
	push	eax
	mov	ecx, DWORD PTR _this$[ebp]
	add	ecx, 8
	call	??A?$CUtlLinkedList@UDecalMaterial_t@CStudioModelRenderer@@G@@QAEAAUDecalMaterial_t@CStudioModelRenderer@@G@Z ; CUtlLinkedList<CStudioModelRenderer::DecalMaterial_t,unsigned short>::operator[]
	mov	DWORD PTR _decalMaterial$3[ebp], eax

; 131  : 			word decal = decalMaterial.m_Decals.Head();

	mov	ecx, DWORD PTR _decalMaterial$3[ebp]
	add	ecx, 64					; 00000040H
	call	?Head@?$CUtlLinkedList@UDecal_t@CStudioModelRenderer@@G@@QBEGXZ ; CUtlLinkedList<CStudioModelRenderer::Decal_t,unsigned short>::Head
	mov	WORD PTR _decal$2[ebp], ax

; 132  : 
; 133  : 			// setup the decal texture
; 134  : 			Q_strncpy( decalname, GET_TEXTURE_NAME( decalMaterial.decalTexture ), sizeof( decalname ));

	push	64					; 00000040H
	mov	eax, DWORD PTR _decalMaterial$3[ebp]
	mov	ecx, DWORD PTR [eax+4]
	push	ecx
	call	DWORD PTR ?gRenderfuncs@@3Urender_api_s@@A+52
	add	esp, 4
	push	eax
	lea	edx, DWORD PTR _decalname$[ebp]
	push	edx
	call	?Q_strncpy@@YAIPADPBDI@Z		; Q_strncpy
	add	esp, 12					; 0000000cH
$LN8@StudioDeca:

; 135  : 
; 136  : 			while( decal != decalMaterial.m_Decals.InvalidIndex( ))

	movzx	esi, WORD PTR _decal$2[ebp]
	call	?InvalidIndex@?$CUtlLinkedList@UDecal_t@CStudioModelRenderer@@G@@SAGXZ ; CUtlLinkedList<CStudioModelRenderer::Decal_t,unsigned short>::InvalidIndex
	movzx	eax, ax
	cmp	esi, eax
	je	$LN9@StudioDeca

; 137  : 			{
; 138  : 				Decal_t *pdecal = &decalMaterial.m_Decals[decal];

	movzx	eax, WORD PTR _decal$2[ebp]
	push	eax
	mov	ecx, DWORD PTR _decalMaterial$3[ebp]
	add	ecx, 64					; 00000040H
	call	??A?$CUtlLinkedList@UDecal_t@CStudioModelRenderer@@G@@QAEAAUDecal_t@CStudioModelRenderer@@G@Z ; CUtlLinkedList<CStudioModelRenderer::Decal_t,unsigned short>::operator[]
	mov	DWORD PTR _pdecal$1[ebp], eax

; 139  : 
; 140  : 				if( FBitSet( pdecal->flags, FDECAL_DONTSAVE ))

	mov	eax, DWORD PTR _pdecal$1[ebp]
	movzx	ecx, BYTE PTR [eax+68]
	and	ecx, 32					; 00000020H
	je	SHORT $LN12@StudioDeca

; 141  : 				{	
; 142  : 					decal = decalMaterial.m_Decals.Next( decal ); 

	movzx	eax, WORD PTR _decal$2[ebp]
	push	eax
	mov	ecx, DWORD PTR _decalMaterial$3[ebp]
	add	ecx, 64					; 00000040H
	call	?Next@?$CUtlLinkedList@UDecal_t@CStudioModelRenderer@@G@@QBEGG@Z ; CUtlLinkedList<CStudioModelRenderer::Decal_t,unsigned short>::Next
	mov	WORD PTR _decal$2[ebp], ax

; 143  : 					continue;

	jmp	SHORT $LN8@StudioDeca
$LN12@StudioDeca:

; 144  : 				}
; 145  : 
; 146  : 				pList[total].depth = pdecal->depth;

	mov	eax, DWORD PTR _total$[ebp]
	shl	eax, 7
	mov	ecx, DWORD PTR _pList$[ebp]
	mov	edx, DWORD PTR _pdecal$1[ebp]
	mov	dl, BYTE PTR [edx+40]
	mov	BYTE PTR [ecx+eax+78], dl

; 147  : 				pList[total].flags = pdecal->flags|FDECAL_STUDIO;

	mov	eax, DWORD PTR _pdecal$1[ebp]
	movzx	ecx, BYTE PTR [eax+68]
	or	ecx, 64					; 00000040H
	mov	edx, DWORD PTR _total$[ebp]
	shl	edx, 7
	mov	eax, DWORD PTR _pList$[ebp]
	mov	BYTE PTR [eax+edx+79], cl

; 148  : 				pList[total].entityIndex = pEntity->index;

	mov	eax, DWORD PTR _total$[ebp]
	shl	eax, 7
	mov	ecx, DWORD PTR _pList$[ebp]
	mov	edx, DWORD PTR _pEntity$[ebp]
	mov	dx, WORD PTR [edx]
	mov	WORD PTR [ecx+eax+76], dx

; 149  : 				pList[total].studio_state = pdecal->state;

	mov	esi, DWORD PTR _pdecal$1[ebp]
	add	esi, 8
	mov	eax, DWORD PTR _total$[ebp]
	shl	eax, 7
	mov	ecx, DWORD PTR _pList$[ebp]
	lea	edi, DWORD PTR [ecx+eax+96]
	mov	ecx, 7
	rep movsd
	movsw

; 150  : 				pList[total].position = pdecal->vecLocalEnd;

	mov	eax, DWORD PTR _pdecal$1[ebp]
	add	eax, 56					; 00000038H
	mov	ecx, DWORD PTR _total$[ebp]
	shl	ecx, 7
	add	ecx, DWORD PTR _pList$[ebp]
	mov	edx, DWORD PTR [eax]
	mov	DWORD PTR [ecx], edx
	mov	edx, DWORD PTR [eax+4]
	mov	DWORD PTR [ecx+4], edx
	mov	eax, DWORD PTR [eax+8]
	mov	DWORD PTR [ecx+8], eax

; 151  : 				pList[total].impactPlaneNormal = pdecal->vecLocalStart;

	mov	eax, DWORD PTR _pdecal$1[ebp]
	add	eax, 44					; 0000002cH
	mov	ecx, DWORD PTR _total$[ebp]
	shl	ecx, 7
	mov	edx, DWORD PTR _pList$[ebp]
	lea	ecx, DWORD PTR [edx+ecx+84]
	mov	edx, DWORD PTR [eax]
	mov	DWORD PTR [ecx], edx
	mov	edx, DWORD PTR [eax+4]
	mov	DWORD PTR [ecx+4], edx
	mov	eax, DWORD PTR [eax+8]
	mov	DWORD PTR [ecx+8], eax

; 152  : 				COM_FileBase( decalname, pList[total].name );

	mov	eax, DWORD PTR _total$[ebp]
	shl	eax, 7
	mov	ecx, DWORD PTR _pList$[ebp]
	lea	edx, DWORD PTR [ecx+eax+12]
	push	edx
	lea	eax, DWORD PTR _decalname$[ebp]
	push	eax
	call	?COM_FileBase@@YAXPBDPAD@Z		; COM_FileBase
	add	esp, 8

; 153  : 				total++;

	mov	eax, DWORD PTR _total$[ebp]
	add	eax, 1
	mov	DWORD PTR _total$[ebp], eax

; 154  : 
; 155  : 				// check for list overflow
; 156  : 				if( total >= maxStudioDecals )

	mov	eax, DWORD PTR _total$[ebp]
	cmp	eax, DWORD PTR _maxStudioDecals$[ebp]
	jl	SHORT $LN13@StudioDeca

; 157  : 				{
; 158  : 					ALERT( at_error, "StudioDecalList: too many studio decals on save\restore\n" );

	push	OFFSET ??_C@_0DI@IHNHAFEA@StudioDecalList?3?5too?5many?5studio@
	push	4
	call	?ALERT@@YAXW4ALERT_TYPE@@PADZZ		; ALERT
	add	esp, 8

; 159  : 					goto end_serialize;

	jmp	SHORT $end_serialize$17
	jmp	SHORT $end_serialize$17
$LN13@StudioDeca:

; 160  : 				}
; 161  : 
; 162  : 				decal = decalMaterial.m_Decals.Next( decal ); 

	movzx	eax, WORD PTR _decal$2[ebp]
	push	eax
	mov	ecx, DWORD PTR _decalMaterial$3[ebp]
	add	ecx, 64					; 00000040H
	call	?Next@?$CUtlLinkedList@UDecal_t@CStudioModelRenderer@@G@@QBEGG@Z ; CUtlLinkedList<CStudioModelRenderer::Decal_t,unsigned short>::Next
	mov	WORD PTR _decal$2[ebp], ax

; 163  : 			}

	jmp	$LN8@StudioDeca
$LN9@StudioDeca:

; 164  : 		}

	jmp	$LN5@StudioDeca
$LN6@StudioDeca:

; 165  : 	}

	jmp	$LN2@StudioDeca
$end_serialize$17:

; 166  : end_serialize:
; 167  : 
; 168  : 	return total;

	mov	eax, DWORD PTR _total$[ebp]
$LN1@StudioDeca:

; 169  : }

	pop	edi
	pop	esi
	pop	ebx
	mov	ecx, DWORD PTR __$ArrayPad$[ebp]
	xor	ecx, ebp
	call	@__security_check_cookie@4
	mov	esp, ebp
	pop	ebp
	ret	8
?StudioDecalList@CStudioModelRenderer@@QAEHPAUdecallist_s@@H@Z ENDP ; CStudioModelRenderer::StudioDecalList
_TEXT	ENDS
; Function compile flags: /Odtp /ZI
; File d:\!diffusion 2020\source code 2022\client-server\client\render\r_studiodecal.cpp
;	COMDAT ?StudioDecalShoot@CStudioModelRenderer@@QAEXABVVector@@0HPAUcl_entity_s@@HPAUmodelstate_s@@@Z
_TEXT	SEGMENT
tv254 = -356						; size = 4
tv245 = -356						; size = 4
$T1 = -352						; size = 12
$T2 = -340						; size = 12
$T3 = -328						; size = 48
$T4 = -276						; size = 48
_k$5 = -160						; size = 4
_dvl$6 = -156						; size = 4
_cacheID$7 = -152					; size = 4
_buildInfo$ = -148					; size = 92
_radius$ = -56						; size = 4
_h$ = -52						; size = 4
_w$ = -48						; size = 4
_i$8 = -44						; size = 4
_i$9 = -40						; size = 4
_i$10 = -36						; size = 4
_vecLocalEnd$ = -32					; size = 12
_vecLocalSrc$ = -20					; size = 12
_this$ = -8						; size = 4
__$ArrayPad$ = -4					; size = 4
_vecSrc$ = 8						; size = 4
_vecEnd$ = 12						; size = 4
_decalTexture$ = 16					; size = 4
_ent$ = 20						; size = 4
_flags$ = 24						; size = 4
_state$ = 28						; size = 4
?StudioDecalShoot@CStudioModelRenderer@@QAEXABVVector@@0HPAUcl_entity_s@@HPAUmodelstate_s@@@Z PROC ; CStudioModelRenderer::StudioDecalShoot, COMDAT
; _this$ = ecx

; 1025 : {

	push	ebp
	mov	ebp, esp
	sub	esp, 356				; 00000164H
	mov	eax, DWORD PTR ___security_cookie
	xor	eax, ebp
	mov	DWORD PTR __$ArrayPad$[ebp], eax
	push	ebx
	push	esi
	push	edi
	mov	DWORD PTR _this$[ebp], ecx

; 1026 : 	Vector	vecLocalSrc;

	lea	ecx, DWORD PTR _vecLocalSrc$[ebp]
	call	??0Vector@@QAE@XZ			; Vector::Vector

; 1027 : 	Vector	vecLocalEnd;

	lea	ecx, DWORD PTR _vecLocalEnd$[ebp]
	call	??0Vector@@QAE@XZ			; Vector::Vector

; 1028 : 
; 1029 : 	if( !g_fRenderInitialized )

	cmp	DWORD PTR ?g_fRenderInitialized@@3HA, 0	; g_fRenderInitialized
	jne	SHORT $LN14@StudioDeca

; 1030 : 		return;

	jmp	$LN1@StudioDeca
$LN14@StudioDeca:

; 1031 : 
; 1032 : 	if( !ent || ent == gEngfuncs.GetViewModel( ))

	cmp	DWORD PTR _ent$[ebp], 0
	je	SHORT $LN16@StudioDeca
	call	DWORD PTR ?gEngfuncs@@3Ucl_enginefuncs_s@@A+208
	cmp	DWORD PTR _ent$[ebp], eax
	jne	SHORT $LN15@StudioDeca
$LN16@StudioDeca:

; 1033 : 		return; // no decals for viewmodel

	jmp	$LN1@StudioDeca
$LN15@StudioDeca:

; 1034 : 
; 1035 : 	if( !StudioSetEntity( ent ))

	mov	eax, DWORD PTR _ent$[ebp]
	push	eax
	mov	ecx, DWORD PTR _this$[ebp]
	call	?StudioSetEntity@CStudioModelRenderer@@AAE_NPAUcl_entity_s@@@Z ; CStudioModelRenderer::StudioSetEntity
	movzx	ecx, al
	test	ecx, ecx
	jne	SHORT $LN17@StudioDeca

; 1036 : 		return;

	jmp	$LN1@StudioDeca
$LN17@StudioDeca:

; 1037 : 
; 1038 : 	if( m_pStudioHeader->numbodyparts == 0 )

	mov	eax, DWORD PTR _this$[ebp]
	mov	ecx, DWORD PTR [eax+19124]
	cmp	DWORD PTR [ecx+204], 0
	jne	SHORT $LN18@StudioDeca

; 1039 : 		return;

	jmp	$LN1@StudioDeca
$LN18@StudioDeca:

; 1040 : 
; 1041 : 	tr.time = GET_CLIENT_TIME();

	call	DWORD PTR ?gEngfuncs@@3Ucl_enginefuncs_s@@A+216
	fstp	QWORD PTR ?tr@@3Uref_globals_t@@A+8

; 1042 : 	tr.oldtime = GET_CLIENT_OLDTIME();

	call	DWORD PTR ?gEngfuncs@@3Ucl_enginefuncs_s@@A+420
	fstp	QWORD PTR ?tr@@3Uref_globals_t@@A+16

; 1043 : 
; 1044 : 	// allocate new decallist
; 1045 : 	if( m_pModelInstance->m_DecalHandle == INVALID_HANDLE )

	mov	eax, DWORD PTR _this$[ebp]
	mov	ecx, DWORD PTR [eax+19112]
	movzx	edx, WORD PTR [ecx+8]
	cmp	edx, 65535				; 0000ffffH
	jne	SHORT $LN19@StudioDeca

; 1046 : 		m_pModelInstance->m_DecalHandle = CreateDecalList();

	mov	ecx, DWORD PTR _this$[ebp]
	call	?CreateDecalList@CStudioModelRenderer@@AAEGXZ ; CStudioModelRenderer::CreateDecalList
	mov	ecx, DWORD PTR _this$[ebp]
	mov	edx, DWORD PTR [ecx+19112]
	mov	WORD PTR [edx+8], ax
$LN19@StudioDeca:

; 1047 : 
; 1048 : 	m_fShootDecal = true;

	mov	eax, DWORD PTR _this$[ebp]
	mov	BYTE PTR [eax+96], 1

; 1049 : 	m_fDoInterp = false;

	mov	eax, DWORD PTR _this$[ebp]
	mov	DWORD PTR [eax+92], 0

; 1050 : 
; 1051 : 	if( FBitSet( flags, FDECAL_LOCAL_SPACE ))

	mov	eax, DWORD PTR _flags$[ebp]
	and	eax, 128				; 00000080H
	je	SHORT $LN20@StudioDeca

; 1052 : 	{
; 1053 : 		// make sure that model is in local space
; 1054 : 		m_pCurrentEntity->origin = g_vecZero;

	mov	eax, DWORD PTR _this$[ebp]
	mov	ecx, DWORD PTR [eax+19104]
	add	ecx, 2888				; 00000b48H
	mov	edx, DWORD PTR ?g_vecZero@@3VVector@@B
	mov	DWORD PTR [ecx], edx
	mov	eax, DWORD PTR ?g_vecZero@@3VVector@@B+4
	mov	DWORD PTR [ecx+4], eax
	mov	edx, DWORD PTR ?g_vecZero@@3VVector@@B+8
	mov	DWORD PTR [ecx+8], edx

; 1055 : 		m_pCurrentEntity->angles = g_vecZero;

	mov	eax, DWORD PTR _this$[ebp]
	mov	ecx, DWORD PTR [eax+19104]
	add	ecx, 2900				; 00000b54H
	mov	edx, DWORD PTR ?g_vecZero@@3VVector@@B
	mov	DWORD PTR [ecx], edx
	mov	eax, DWORD PTR ?g_vecZero@@3VVector@@B+4
	mov	DWORD PTR [ecx+4], eax
	mov	edx, DWORD PTR ?g_vecZero@@3VVector@@B+8
	mov	DWORD PTR [ecx+8], edx
$LN20@StudioDeca:

; 1056 : 	}
; 1057 : 
; 1058 : 	// setup bones
; 1059 : 	StudioSetUpTransform ( );

	mov	eax, DWORD PTR _this$[ebp]
	mov	edx, DWORD PTR [eax]
	mov	ecx, DWORD PTR _this$[ebp]
	mov	eax, DWORD PTR [edx+20]
	call	eax

; 1060 : 	StudioSetupBones ( );

	mov	eax, DWORD PTR _this$[ebp]
	mov	edx, DWORD PTR [eax]
	mov	ecx, DWORD PTR _this$[ebp]
	mov	eax, DWORD PTR [edx+24]
	call	eax

; 1061 : 
; 1062 : 	// setup worldtransform array
; 1063 : 	if( m_pRenderModel->poseToBone != NULL )

	mov	eax, DWORD PTR _this$[ebp]
	mov	ecx, DWORD PTR [eax+19108]
	cmp	DWORD PTR [ecx+376], 0
	je	$LN21@StudioDeca

; 1064 : 	{
; 1065 : 		for( int i = 0; i < m_pStudioHeader->numbones; i++ )

	mov	DWORD PTR _i$10[ebp], 0
	jmp	SHORT $LN4@StudioDeca
$LN2@StudioDeca:
	mov	eax, DWORD PTR _i$10[ebp]
	add	eax, 1
	mov	DWORD PTR _i$10[ebp], eax
$LN4@StudioDeca:
	mov	eax, DWORD PTR _this$[ebp]
	mov	ecx, DWORD PTR [eax+19124]
	mov	edx, DWORD PTR _i$10[ebp]
	cmp	edx, DWORD PTR [ecx+140]
	jge	SHORT $LN3@StudioDeca

; 1066 : 			m_pworldtransform[i] = m_pModelInstance->m_pbones[i].ConcatTransforms( m_pRenderModel->poseToBone->posetobone[i] );

	mov	eax, DWORD PTR _this$[ebp]
	mov	ecx, DWORD PTR [eax+19108]
	mov	edx, DWORD PTR [ecx+376]
	imul	eax, DWORD PTR _i$10[ebp], 48
	add	edx, eax
	sub	esp, 48					; 00000030H
	mov	ecx, esp
	push	edx
	call	??0matrix3x4@@QAE@ABV0@@Z
	lea	ecx, DWORD PTR $T4[ebp]
	push	ecx
	mov	edx, DWORD PTR _this$[ebp]
	mov	eax, DWORD PTR [edx+19112]
	imul	ecx, DWORD PTR _i$10[ebp], 48
	lea	ecx, DWORD PTR [eax+ecx+12336]
	call	?ConcatTransforms@matrix3x4@@QAE?AV1@V1@@Z ; matrix3x4::ConcatTransforms
	imul	edx, DWORD PTR _i$10[ebp], 48
	mov	ecx, DWORD PTR _this$[ebp]
	lea	edi, DWORD PTR [ecx+edx+1274076]
	mov	ecx, 12					; 0000000cH
	mov	esi, eax
	rep movsd
	jmp	SHORT $LN2@StudioDeca
$LN3@StudioDeca:

; 1067 : 	}
; 1068 : 	else

	jmp	SHORT $LN6@StudioDeca
$LN21@StudioDeca:

; 1069 : 	{
; 1070 : 		// no pose to bone just copy the bones
; 1071 : 		for( int i = 0; i < m_pStudioHeader->numbones; i++ )

	mov	DWORD PTR _i$9[ebp], 0
	jmp	SHORT $LN7@StudioDeca
$LN5@StudioDeca:
	mov	eax, DWORD PTR _i$9[ebp]
	add	eax, 1
	mov	DWORD PTR _i$9[ebp], eax
$LN7@StudioDeca:
	mov	eax, DWORD PTR _this$[ebp]
	mov	ecx, DWORD PTR [eax+19124]
	mov	edx, DWORD PTR _i$9[ebp]
	cmp	edx, DWORD PTR [ecx+140]
	jge	SHORT $LN6@StudioDeca

; 1072 : 			m_pworldtransform[i] = m_pModelInstance->m_pbones[i];

	mov	eax, DWORD PTR _this$[ebp]
	mov	ecx, DWORD PTR [eax+19112]
	imul	edx, DWORD PTR _i$9[ebp], 48
	lea	esi, DWORD PTR [ecx+edx+12336]
	imul	eax, DWORD PTR _i$9[ebp], 48
	mov	ecx, DWORD PTR _this$[ebp]
	lea	edi, DWORD PTR [ecx+eax+1274076]
	mov	ecx, 12					; 0000000cH
	rep movsd
	jmp	SHORT $LN5@StudioDeca
$LN6@StudioDeca:

; 1073 : 	}
; 1074 : 
; 1075 : 	for( int i = 0; i < m_pStudioHeader->numbones; i++ )

	mov	DWORD PTR _i$8[ebp], 0
	jmp	SHORT $LN10@StudioDeca
$LN8@StudioDeca:
	mov	eax, DWORD PTR _i$8[ebp]
	add	eax, 1
	mov	DWORD PTR _i$8[ebp], eax
$LN10@StudioDeca:
	mov	eax, DWORD PTR _this$[ebp]
	mov	ecx, DWORD PTR [eax+19124]
	mov	edx, DWORD PTR _i$8[ebp]
	cmp	edx, DWORD PTR [ecx+140]
	jge	SHORT $LN9@StudioDeca

; 1076 : 		m_pworldtransform[i] = m_pModelInstance->m_protationmatrix.ConcatTransforms( m_pworldtransform[i] );

	imul	eax, DWORD PTR _i$8[ebp], 48
	mov	ecx, DWORD PTR _this$[ebp]
	lea	edx, DWORD PTR [ecx+eax+1274076]
	sub	esp, 48					; 00000030H
	mov	ecx, esp
	push	edx
	call	??0matrix3x4@@QAE@ABV0@@Z
	lea	eax, DWORD PTR $T3[ebp]
	push	eax
	mov	ecx, DWORD PTR _this$[ebp]
	mov	ecx, DWORD PTR [ecx+19112]
	add	ecx, 12240				; 00002fd0H
	call	?ConcatTransforms@matrix3x4@@QAE?AV1@V1@@Z ; matrix3x4::ConcatTransforms
	imul	edx, DWORD PTR _i$8[ebp], 48
	mov	ecx, DWORD PTR _this$[ebp]
	lea	edi, DWORD PTR [ecx+edx+1274076]
	mov	ecx, 12					; 0000000cH
	mov	esi, eax
	rep movsd
	jmp	SHORT $LN8@StudioDeca
$LN9@StudioDeca:

; 1077 : 
; 1078 : 	if( FBitSet( flags, FDECAL_LOCAL_SPACE ))

	mov	eax, DWORD PTR _flags$[ebp]
	and	eax, 128				; 00000080H
	je	SHORT $LN23@StudioDeca

; 1079 : 	{
; 1080 : 		vecLocalSrc = vecSrc;

	mov	eax, DWORD PTR _vecSrc$[ebp]
	mov	ecx, DWORD PTR [eax]
	mov	DWORD PTR _vecLocalSrc$[ebp], ecx
	mov	edx, DWORD PTR [eax+4]
	mov	DWORD PTR _vecLocalSrc$[ebp+4], edx
	mov	eax, DWORD PTR [eax+8]
	mov	DWORD PTR _vecLocalSrc$[ebp+8], eax

; 1081 : 		vecLocalEnd = vecEnd;

	mov	eax, DWORD PTR _vecEnd$[ebp]
	mov	ecx, DWORD PTR [eax]
	mov	DWORD PTR _vecLocalEnd$[ebp], ecx
	mov	edx, DWORD PTR [eax+4]
	mov	DWORD PTR _vecLocalEnd$[ebp+4], edx
	mov	eax, DWORD PTR [eax+8]
	mov	DWORD PTR _vecLocalEnd$[ebp+8], eax

; 1082 : 	}
; 1083 : 	else

	jmp	SHORT $LN24@StudioDeca
$LN23@StudioDeca:

; 1084 : 	{
; 1085 : 		vecLocalSrc = m_pModelInstance->m_protationmatrix.VectorITransform( vecSrc );

	mov	eax, DWORD PTR _vecSrc$[ebp]
	push	eax
	lea	ecx, DWORD PTR $T2[ebp]
	push	ecx
	mov	edx, DWORD PTR _this$[ebp]
	mov	ecx, DWORD PTR [edx+19112]
	add	ecx, 12240				; 00002fd0H
	call	?VectorITransform@matrix3x4@@QBE?AVVector@@ABV2@@Z ; matrix3x4::VectorITransform
	mov	ecx, DWORD PTR [eax]
	mov	DWORD PTR _vecLocalSrc$[ebp], ecx
	mov	edx, DWORD PTR [eax+4]
	mov	DWORD PTR _vecLocalSrc$[ebp+4], edx
	mov	eax, DWORD PTR [eax+8]
	mov	DWORD PTR _vecLocalSrc$[ebp+8], eax

; 1086 : 		vecLocalEnd = m_pModelInstance->m_protationmatrix.VectorITransform( vecEnd );

	mov	eax, DWORD PTR _vecEnd$[ebp]
	push	eax
	lea	ecx, DWORD PTR $T1[ebp]
	push	ecx
	mov	edx, DWORD PTR _this$[ebp]
	mov	ecx, DWORD PTR [edx+19112]
	add	ecx, 12240				; 00002fd0H
	call	?VectorITransform@matrix3x4@@QBE?AVVector@@ABV2@@Z ; matrix3x4::VectorITransform
	mov	ecx, DWORD PTR [eax]
	mov	DWORD PTR _vecLocalEnd$[ebp], ecx
	mov	edx, DWORD PTR [eax+4]
	mov	DWORD PTR _vecLocalEnd$[ebp+4], edx
	mov	eax, DWORD PTR [eax+8]
	mov	DWORD PTR _vecLocalEnd$[ebp+8], eax

; 1087 : 		SetBits( flags, FDECAL_LOCAL_SPACE ); // now it's in local space

	mov	eax, DWORD PTR _flags$[ebp]
	or	eax, 128				; 00000080H
	mov	DWORD PTR _flags$[ebp], eax
$LN24@StudioDeca:

; 1088 : 	}
; 1089 : 
; 1090 : 	if( !ComputePoseToDecal( vecSrc, vecEnd ))

	mov	eax, DWORD PTR _vecEnd$[ebp]
	push	eax
	mov	ecx, DWORD PTR _vecSrc$[ebp]
	push	ecx
	mov	ecx, DWORD PTR _this$[ebp]
	call	?ComputePoseToDecal@CStudioModelRenderer@@AAE_NABVVector@@0@Z ; CStudioModelRenderer::ComputePoseToDecal
	movzx	edx, al
	test	edx, edx
	jne	SHORT $LN25@StudioDeca

; 1091 : 	{
; 1092 : 		m_fShootDecal = false;

	mov	eax, DWORD PTR _this$[ebp]
	mov	BYTE PTR [eax+96], 0

; 1093 : 		m_fDoInterp = true;

	mov	eax, DWORD PTR _this$[ebp]
	mov	DWORD PTR [eax+92], 1

; 1094 : 		return;

	jmp	$LN1@StudioDeca
$LN25@StudioDeca:

; 1095 : 	}
; 1096 : 
; 1097 : 	float w = (float)RENDER_GET_PARM( PARM_TEX_SRC_WIDTH, decalTexture ) * 0.5f;

	mov	eax, DWORD PTR _decalTexture$[ebp]
	push	eax
	push	3
	call	DWORD PTR ?gRenderfuncs@@3Urender_api_s@@A
	add	esp, 8
	cvtsi2ss xmm0, eax
	mulss	xmm0, DWORD PTR __real@3f000000
	movss	DWORD PTR _w$[ebp], xmm0

; 1098 : 	float h = (float)RENDER_GET_PARM( PARM_TEX_SRC_HEIGHT, decalTexture ) * 0.5f;

	mov	eax, DWORD PTR _decalTexture$[ebp]
	push	eax
	push	4
	call	DWORD PTR ?gRenderfuncs@@3Urender_api_s@@A
	add	esp, 8
	cvtsi2ss xmm0, eax
	mulss	xmm0, DWORD PTR __real@3f000000
	movss	DWORD PTR _h$[ebp], xmm0

; 1099 :  	float radius = Q_max( w, h ) * 0.5f; // scale decals so the look same as on world geometry

	movss	xmm0, DWORD PTR _w$[ebp]
	comiss	xmm0, DWORD PTR _h$[ebp]
	jbe	SHORT $LN29@StudioDeca
	movss	xmm0, DWORD PTR _w$[ebp]
	movss	DWORD PTR tv245[ebp], xmm0
	jmp	SHORT $LN30@StudioDeca
$LN29@StudioDeca:
	movss	xmm0, DWORD PTR _h$[ebp]
	movss	DWORD PTR tv245[ebp], xmm0
$LN30@StudioDeca:
	movss	xmm0, DWORD PTR tv245[ebp]
	mulss	xmm0, DWORD PTR __real@3f000000
	movss	DWORD PTR _radius$[ebp], xmm0

; 1100 : 
; 1101 : 	// This sucker is state needed only when building decals
; 1102 : 	DecalBuildInfo_t buildInfo;

	lea	ecx, DWORD PTR _buildInfo$[ebp]
	call	??0DecalBuildInfo_t@CStudioModelRenderer@@QAE@XZ

; 1103 : 	memset( &buildInfo, 0, sizeof( buildInfo ));

	push	92					; 0000005cH
	push	0
	lea	eax, DWORD PTR _buildInfo$[ebp]
	push	eax
	call	_memset
	add	esp, 12					; 0000000cH

; 1104 : 	buildInfo.vecLocalStart = vecLocalSrc;

	mov	eax, DWORD PTR _vecLocalSrc$[ebp]
	mov	DWORD PTR _buildInfo$[ebp+24], eax
	mov	ecx, DWORD PTR _vecLocalSrc$[ebp+4]
	mov	DWORD PTR _buildInfo$[ebp+28], ecx
	mov	edx, DWORD PTR _vecLocalSrc$[ebp+8]
	mov	DWORD PTR _buildInfo$[ebp+32], edx

; 1105 : 	buildInfo.vecLocalEnd = vecLocalEnd;

	mov	eax, DWORD PTR _vecLocalEnd$[ebp]
	mov	DWORD PTR _buildInfo$[ebp+36], eax
	mov	ecx, DWORD PTR _vecLocalEnd$[ebp+4]
	mov	DWORD PTR _buildInfo$[ebp+40], ecx
	mov	edx, DWORD PTR _vecLocalEnd$[ebp+8]
	mov	DWORD PTR _buildInfo$[ebp+44], edx

; 1106 : 	buildInfo.m_UseClipVert = ( m_pStudioHeader->numbones <= 1 ); // produce clipped verts only for static props

	mov	eax, DWORD PTR _this$[ebp]
	mov	ecx, DWORD PTR [eax+19124]
	cmp	DWORD PTR [ecx+140], 1
	jg	SHORT $LN31@StudioDeca
	mov	DWORD PTR tv254[ebp], 1
	jmp	SHORT $LN32@StudioDeca
$LN31@StudioDeca:
	mov	DWORD PTR tv254[ebp], 0
$LN32@StudioDeca:
	mov	dl, BYTE PTR tv254[ebp]
	mov	BYTE PTR _buildInfo$[ebp+88], dl

; 1107 : 	buildInfo.decalDepth = m_pModelInstance->m_DecalCount++;

	mov	eax, DWORD PTR _this$[ebp]
	mov	ecx, DWORD PTR [eax+19112]
	mov	edx, DWORD PTR [ecx+12]
	mov	DWORD PTR _buildInfo$[ebp+20], edx
	mov	eax, DWORD PTR _this$[ebp]
	mov	ecx, DWORD PTR [eax+19112]
	mov	edx, DWORD PTR [ecx+12]
	add	edx, 1
	mov	eax, DWORD PTR _this$[ebp]
	mov	ecx, DWORD PTR [eax+19112]
	mov	DWORD PTR [ecx+12], edx

; 1108 : 	buildInfo.m_iDecalTexture = decalTexture;

	mov	eax, DWORD PTR _decalTexture$[ebp]
	mov	DWORD PTR _buildInfo$[ebp+4], eax

; 1109 : 	buildInfo.decalFlags = (byte)flags;

	mov	al, BYTE PTR _flags$[ebp]
	mov	BYTE PTR _buildInfo$[ebp+48], al

; 1110 : 	buildInfo.m_iDecalMaterial = -1;

	mov	DWORD PTR _buildInfo$[ebp], -1

; 1111 : 	buildInfo.modelState = state;

	mov	eax, DWORD PTR _state$[ebp]
	mov	DWORD PTR _buildInfo$[ebp+12], eax

; 1112 : 	buildInfo.m_Radius = radius;

	movss	xmm0, DWORD PTR _radius$[ebp]
	movss	DWORD PTR _buildInfo$[ebp+8], xmm0

; 1113 : 
; 1114 : 	// special check for per-vertex lighting
; 1115 : 	if(( ent->curstate.iuser3 > 0 ) && world->vertex_lighting != NULL )

	mov	eax, DWORD PTR _ent$[ebp]
	cmp	DWORD PTR [eax+956], 0
	jle	SHORT $LN27@StudioDeca
	mov	eax, DWORD PTR ?world@@3PAUgl_world_t@@A ; world
	cmp	DWORD PTR [eax+120], 0
	je	SHORT $LN27@StudioDeca

; 1116 : 	{
; 1117 : 		int		cacheID = m_pCurrentEntity->curstate.iuser3 - 1;

	mov	eax, DWORD PTR _this$[ebp]
	mov	ecx, DWORD PTR [eax+19104]
	mov	edx, DWORD PTR [ecx+956]
	sub	edx, 1
	mov	DWORD PTR _cacheID$7[ebp], edx

; 1118 : 		dvlightlump_t	*dvl = world->vertex_lighting;

	mov	eax, DWORD PTR ?world@@3PAUgl_world_t@@A ; world
	mov	ecx, DWORD PTR [eax+120]
	mov	DWORD PTR _dvl$6[ebp], ecx

; 1119 : 
; 1120 : 		if( cacheID < dvl->nummodels && dvl->dataofs[cacheID] != -1 )

	mov	eax, DWORD PTR _dvl$6[ebp]
	mov	ecx, DWORD PTR _cacheID$7[ebp]
	cmp	ecx, DWORD PTR [eax+8]
	jge	SHORT $LN27@StudioDeca
	mov	eax, DWORD PTR _cacheID$7[ebp]
	mov	ecx, DWORD PTR _dvl$6[ebp]
	cmp	DWORD PTR [ecx+eax*4+12], -1
	je	SHORT $LN27@StudioDeca

; 1121 : 			buildInfo.modelLight = (dmodellight_t *)((byte *)world->vertex_lighting + dvl->dataofs[cacheID]);

	mov	eax, DWORD PTR ?world@@3PAUgl_world_t@@A ; world
	mov	ecx, DWORD PTR [eax+120]
	mov	edx, DWORD PTR _cacheID$7[ebp]
	mov	eax, DWORD PTR _dvl$6[ebp]
	add	ecx, DWORD PTR [eax+edx*4+12]
	mov	DWORD PTR _buildInfo$[ebp+16], ecx
$LN27@StudioDeca:

; 1122 : 	}
; 1123 : 
; 1124 : 	// step over all body parts + add decals to them all!
; 1125 : 	for( int k = 0; k < m_pStudioHeader->numbodyparts; k++ ) 

	mov	DWORD PTR _k$5[ebp], 0
	jmp	SHORT $LN13@StudioDeca
$LN11@StudioDeca:
	mov	eax, DWORD PTR _k$5[ebp]
	add	eax, 1
	mov	DWORD PTR _k$5[ebp], eax
$LN13@StudioDeca:
	mov	eax, DWORD PTR _this$[ebp]
	mov	ecx, DWORD PTR [eax+19124]
	mov	edx, DWORD PTR _k$5[ebp]
	cmp	edx, DWORD PTR [ecx+204]
	jge	SHORT $LN12@StudioDeca

; 1126 : 	{
; 1127 : 		// grab the model for this body part
; 1128 : 		buildInfo.m_Model = StudioSetupModel( k, (void **)&m_pBodyPart, (void **)&m_pSubModel );

	mov	eax, DWORD PTR _this$[ebp]
	add	eax, 19132				; 00004abcH
	push	eax
	mov	ecx, DWORD PTR _this$[ebp]
	add	ecx, 19128				; 00004ab8H
	push	ecx
	mov	edx, DWORD PTR _k$5[ebp]
	push	edx
	mov	eax, DWORD PTR _this$[ebp]
	mov	edx, DWORD PTR [eax]
	mov	ecx, DWORD PTR _this$[ebp]
	mov	eax, DWORD PTR [edx+96]
	call	eax
	mov	DWORD PTR _buildInfo$[ebp+76], eax

; 1129 : 		buildInfo.m_Body = k;

	mov	eax, DWORD PTR _k$5[ebp]
	mov	DWORD PTR _buildInfo$[ebp+68], eax

; 1130 : 		AddDecalToModel( buildInfo );

	lea	eax, DWORD PTR _buildInfo$[ebp]
	push	eax
	mov	ecx, DWORD PTR _this$[ebp]
	call	?AddDecalToModel@CStudioModelRenderer@@AAEXAAUDecalBuildInfo_t@1@@Z ; CStudioModelRenderer::AddDecalToModel

; 1131 : 	}

	jmp	SHORT $LN11@StudioDeca
$LN12@StudioDeca:

; 1132 : 
; 1133 : 	// dump remainig vertices
; 1134 : 	CreateDecalForMaterial( buildInfo );

	lea	eax, DWORD PTR _buildInfo$[ebp]
	push	eax
	mov	ecx, DWORD PTR _this$[ebp]
	call	?CreateDecalForMaterial@CStudioModelRenderer@@AAEXAAUDecalBuildInfo_t@1@@Z ; CStudioModelRenderer::CreateDecalForMaterial

; 1135 : 
; 1136 : 	m_fShootDecal = false;

	mov	eax, DWORD PTR _this$[ebp]
	mov	BYTE PTR [eax+96], 0

; 1137 : 	m_fDoInterp = true;

	mov	eax, DWORD PTR _this$[ebp]
	mov	DWORD PTR [eax+92], 1
$LN1@StudioDeca:

; 1138 : }

	pop	edi
	pop	esi
	pop	ebx
	mov	ecx, DWORD PTR __$ArrayPad$[ebp]
	xor	ecx, ebp
	call	@__security_check_cookie@4
	mov	esp, ebp
	pop	ebp
	ret	24					; 00000018H
?StudioDecalShoot@CStudioModelRenderer@@QAEXABVVector@@0HPAUcl_entity_s@@HPAUmodelstate_s@@@Z ENDP ; CStudioModelRenderer::StudioDecalShoot
_TEXT	ENDS
; Function compile flags: /Odtp /ZI
; File d:\!diffusion 2020\source code 2022\client-server\client\render\r_studiodecal.cpp
;	COMDAT ?DrawDecalMaterial@CStudioModelRenderer@@AAEXAAUDecalMaterial_t@1@QBVmatrix3x4@@@Z
_TEXT	SEGMENT
_i$1 = -28						; size = 4
_vertexOffset$ = -24					; size = 4
_indicesRemaining$ = -20				; size = 4
_decal$ = -16						; size = 2
_vertexCount$ = -12					; size = 4
_indexCount$ = -8					; size = 4
_this$ = -4						; size = 4
_decalMaterial$ = 8					; size = 4
_bones$ = 12						; size = 4
?DrawDecalMaterial@CStudioModelRenderer@@AAEXAAUDecalMaterial_t@1@QBVmatrix3x4@@@Z PROC ; CStudioModelRenderer::DrawDecalMaterial, COMDAT
; _this$ = ecx

; 1224 : {

	push	ebp
	mov	ebp, esp
	sub	esp, 92					; 0000005cH
	push	ebx
	push	esi
	push	edi
	mov	DWORD PTR _this$[ebp], ecx

; 1225 : 	// It's possible for the index count to become zero due to decal retirement
; 1226 : 	int indexCount = decalMaterial.m_Indices.Count();

	mov	ecx, DWORD PTR _decalMaterial$[ebp]
	add	ecx, 16					; 00000010H
	call	?Count@?$CUtlArray@GV?$CUtlMemory@GH@@@@QBEHXZ ; CUtlArray<unsigned short,CUtlMemory<unsigned short,int> >::Count
	mov	DWORD PTR _indexCount$[ebp], eax

; 1227 : 	if( indexCount == 0 ) return;

	cmp	DWORD PTR _indexCount$[ebp], 0
	jne	SHORT $LN5@DrawDecalM
	jmp	$LN1@DrawDecalM
$LN5@DrawDecalM:

; 1228 : 
; 1229 : 	int vertexCount = decalMaterial.m_Vertices.Count();

	mov	ecx, DWORD PTR _decalMaterial$[ebp]
	add	ecx, 36					; 00000024H
	call	?Count@?$CUtlLinkedList@UDecalVertex_t@@G@@QBEHXZ ; CUtlLinkedList<DecalVertex_t,unsigned short>::Count
	mov	DWORD PTR _vertexCount$[ebp], eax

; 1230 : 
; 1231 : 	ComputeDecalTransform( decalMaterial, bones );

	mov	eax, DWORD PTR _bones$[ebp]
	push	eax
	mov	ecx, DWORD PTR _decalMaterial$[ebp]
	push	ecx
	mov	ecx, DWORD PTR _this$[ebp]
	call	?ComputeDecalTransform@CStudioModelRenderer@@AAEXAAUDecalMaterial_t@1@QBVmatrix3x4@@@Z ; CStudioModelRenderer::ComputeDecalTransform

; 1232 : 
; 1233 : 	// Set the indices
; 1234 : 	// This is a little tricky. Because we can retire decals, the indices
; 1235 : 	// for each decal start at 0. We output all the vertices in order of
; 1236 : 	// each decal, and then fix up the indices based on how many vertices
; 1237 : 	// we wrote out for the decals
; 1238 : 	word decal = decalMaterial.m_Decals.Head();

	mov	ecx, DWORD PTR _decalMaterial$[ebp]
	add	ecx, 64					; 00000040H
	call	?Head@?$CUtlLinkedList@UDecal_t@CStudioModelRenderer@@G@@QBEGXZ ; CUtlLinkedList<CStudioModelRenderer::Decal_t,unsigned short>::Head
	mov	WORD PTR _decal$[ebp], ax

; 1239 : 	int indicesRemaining = decalMaterial.m_Decals[decal].m_IndexCount;

	movzx	eax, WORD PTR _decal$[ebp]
	push	eax
	mov	ecx, DWORD PTR _decalMaterial$[ebp]
	add	ecx, 64					; 00000040H
	call	??A?$CUtlLinkedList@UDecal_t@CStudioModelRenderer@@G@@QAEAAUDecal_t@CStudioModelRenderer@@G@Z ; CUtlLinkedList<CStudioModelRenderer::Decal_t,unsigned short>::operator[]
	mov	ecx, DWORD PTR [eax]
	mov	DWORD PTR _indicesRemaining$[ebp], ecx

; 1240 : 	int vertexOffset = 0;

	mov	DWORD PTR _vertexOffset$[ebp], 0

; 1241 : 
; 1242 : 	for( int i = 0; i < indexCount; i++ )

	mov	DWORD PTR _i$1[ebp], 0
	jmp	SHORT $LN4@DrawDecalM
$LN2@DrawDecalM:
	mov	eax, DWORD PTR _i$1[ebp]
	add	eax, 1
	mov	DWORD PTR _i$1[ebp], eax
$LN4@DrawDecalM:
	mov	eax, DWORD PTR _i$1[ebp]
	cmp	eax, DWORD PTR _indexCount$[ebp]
	jge	$LN3@DrawDecalM

; 1243 : 	{
; 1244 : 		m_arrayelems[m_nNumArrayElems] = decalMaterial.m_Indices[i] + vertexOffset; 

	mov	eax, DWORD PTR _i$1[ebp]
	push	eax
	mov	ecx, DWORD PTR _decalMaterial$[ebp]
	add	ecx, 16					; 00000010H
	call	??A?$CUtlArray@GV?$CUtlMemory@GH@@@@QAEAAGH@Z ; CUtlArray<unsigned short,CUtlMemory<unsigned short,int> >::operator[]
	movzx	ecx, WORD PTR [eax]
	add	ecx, DWORD PTR _vertexOffset$[ebp]
	mov	edx, DWORD PTR _this$[ebp]
	mov	eax, DWORD PTR [edx+19594976]
	mov	edx, DWORD PTR _this$[ebp]
	mov	DWORD PTR [edx+eax*4+11914972], ecx

; 1245 : 		m_nNumArrayElems++;

	mov	eax, DWORD PTR _this$[ebp]
	mov	ecx, DWORD PTR [eax+19594976]
	add	ecx, 1
	mov	edx, DWORD PTR _this$[ebp]
	mov	DWORD PTR [edx+19594976], ecx

; 1246 : 
; 1247 : 		if( --indicesRemaining <= 0 )

	mov	eax, DWORD PTR _indicesRemaining$[ebp]
	sub	eax, 1
	mov	DWORD PTR _indicesRemaining$[ebp], eax
	cmp	DWORD PTR _indicesRemaining$[ebp], 0
	jg	SHORT $LN6@DrawDecalM

; 1248 : 		{
; 1249 : 			vertexOffset += decalMaterial.m_Decals[decal].m_VertexCount;

	movzx	eax, WORD PTR _decal$[ebp]
	push	eax
	mov	ecx, DWORD PTR _decalMaterial$[ebp]
	add	ecx, 64					; 00000040H
	call	??A?$CUtlLinkedList@UDecal_t@CStudioModelRenderer@@G@@QAEAAUDecal_t@CStudioModelRenderer@@G@Z ; CUtlLinkedList<CStudioModelRenderer::Decal_t,unsigned short>::operator[]
	mov	ecx, DWORD PTR _vertexOffset$[ebp]
	add	ecx, DWORD PTR [eax+4]
	mov	DWORD PTR _vertexOffset$[ebp], ecx

; 1250 : 			decal = decalMaterial.m_Decals.Next( decal ); 

	movzx	eax, WORD PTR _decal$[ebp]
	push	eax
	mov	ecx, DWORD PTR _decalMaterial$[ebp]
	add	ecx, 64					; 00000040H
	call	?Next@?$CUtlLinkedList@UDecal_t@CStudioModelRenderer@@G@@QBEGG@Z ; CUtlLinkedList<CStudioModelRenderer::Decal_t,unsigned short>::Next
	mov	WORD PTR _decal$[ebp], ax

; 1251 : 
; 1252 : 			if( decal != decalMaterial.m_Decals.InvalidIndex( ))

	movzx	esi, WORD PTR _decal$[ebp]
	call	?InvalidIndex@?$CUtlLinkedList@UDecal_t@CStudioModelRenderer@@G@@SAGXZ ; CUtlLinkedList<CStudioModelRenderer::Decal_t,unsigned short>::InvalidIndex
	movzx	eax, ax
	cmp	esi, eax
	je	SHORT $LN6@DrawDecalM

; 1253 : 				indicesRemaining = decalMaterial.m_Decals[decal].m_IndexCount;

	movzx	eax, WORD PTR _decal$[ebp]
	push	eax
	mov	ecx, DWORD PTR _decalMaterial$[ebp]
	add	ecx, 64					; 00000040H
	call	??A?$CUtlLinkedList@UDecal_t@CStudioModelRenderer@@G@@QAEAAUDecal_t@CStudioModelRenderer@@G@Z ; CUtlLinkedList<CStudioModelRenderer::Decal_t,unsigned short>::operator[]
	mov	ecx, DWORD PTR [eax]
	mov	DWORD PTR _indicesRemaining$[ebp], ecx
$LN6@DrawDecalM:

; 1254 : 		}
; 1255 : 	}

	jmp	$LN2@DrawDecalM
$LN3@DrawDecalM:

; 1256 : 
; 1257 : 	if( GL_Support( R_DRAW_RANGEELEMENTS_EXT ))

	push	11					; 0000000bH
	call	?GL_Support@@YA_NH@Z			; GL_Support
	add	esp, 4
	movzx	eax, al
	test	eax, eax
	je	SHORT $LN8@DrawDecalM

; 1258 : 		pglDrawRangeElementsEXT( GL_TRIANGLES, 0, m_nNumArrayVerts, m_nNumArrayElems, GL_UNSIGNED_INT, m_arrayelems );

	mov	eax, DWORD PTR _this$[ebp]
	add	eax, 11914972				; 00b5cedcH
	push	eax
	push	5125					; 00001405H
	mov	ecx, DWORD PTR _this$[ebp]
	mov	edx, DWORD PTR [ecx+19594976]
	push	edx
	mov	eax, DWORD PTR _this$[ebp]
	mov	ecx, DWORD PTR [eax+19594972]
	push	ecx
	push	0
	push	4
	call	DWORD PTR ?pglDrawRangeElementsEXT@@3P6GXIIIHIPBX@ZA ; pglDrawRangeElementsEXT
	jmp	SHORT $LN9@DrawDecalM
$LN8@DrawDecalM:

; 1259 : 	else pglDrawElements( GL_TRIANGLES, m_nNumArrayElems, GL_UNSIGNED_INT, m_arrayelems );

	mov	eax, DWORD PTR _this$[ebp]
	add	eax, 11914972				; 00b5cedcH
	push	eax
	push	5125					; 00001405H
	mov	ecx, DWORD PTR _this$[ebp]
	mov	edx, DWORD PTR [ecx+19594976]
	push	edx
	push	4
	call	DWORD PTR ?pglDrawElements@@3P6GXIHIPBX@ZA ; pglDrawElements
$LN9@DrawDecalM:

; 1260 : 
; 1261 : 	r_stats.c_total_tris += (m_nNumArrayElems / 3);

	mov	eax, DWORD PTR _this$[ebp]
	mov	eax, DWORD PTR [eax+19594976]
	xor	edx, edx
	mov	ecx, 3
	div	ecx
	add	eax, DWORD PTR ?r_stats@@3Uref_stats_t@@A+60
	mov	DWORD PTR ?r_stats@@3Uref_stats_t@@A+60, eax

; 1262 : 	r_stats.num_flushes++;

	mov	eax, DWORD PTR ?r_stats@@3Uref_stats_t@@A+88
	add	eax, 1
	mov	DWORD PTR ?r_stats@@3Uref_stats_t@@A+88, eax
$LN1@DrawDecalM:

; 1263 : }

	pop	edi
	pop	esi
	pop	ebx
	mov	esp, ebp
	pop	ebp
	ret	8
?DrawDecalMaterial@CStudioModelRenderer@@AAEXAAUDecalMaterial_t@1@QBVmatrix3x4@@@Z ENDP ; CStudioModelRenderer::DrawDecalMaterial
_TEXT	ENDS
; Function compile flags: /Odtp /ZI
; File d:\!diffusion 2020\source code 2022\client-server\client\render\r_studiodecal.cpp
;	COMDAT ?ComputeDecalTransform@CStudioModelRenderer@@AAEXAAUDecalMaterial_t@1@QBVmatrix3x4@@@Z
_TEXT	SEGMENT
tv277 = -268						; size = 4
tv261 = -268						; size = 4
tv245 = -268						; size = 4
$T1 = -264						; size = 12
$T2 = -252						; size = 12
$T3 = -240						; size = 12
$T4 = -228						; size = 12
$T5 = -216						; size = 12
_lv$6 = -140						; size = 4
_vertexLight$7 = -136					; size = 12
_lv$8 = -124						; size = 4
_vecNormal$9 = -120					; size = 12
_vertexLight$10 = -108					; size = 12
_map$11 = -96						; size = 4
_scale$12 = -92						; size = 4
_bl$13 = -88						; size = 12
_bone$14 = -76						; size = 4
_vertex$15 = -72					; size = 4
_i$16 = -68						; size = 2
_alpha$ = -61						; size = 1
_skinMat$ = -60						; size = 48
_verts$ = -12						; size = 4
_this$ = -8						; size = 4
__$ArrayPad$ = -4					; size = 4
_decalMaterial$ = 8					; size = 4
_bones$ = 12						; size = 4
?ComputeDecalTransform@CStudioModelRenderer@@AAEXAAUDecalMaterial_t@1@QBVmatrix3x4@@@Z PROC ; CStudioModelRenderer::ComputeDecalTransform, COMDAT
; _this$ = ecx

; 1141 : {

	push	ebp
	mov	ebp, esp
	sub	esp, 268				; 0000010cH
	mov	eax, DWORD PTR ___security_cookie
	xor	eax, ebp
	mov	DWORD PTR __$ArrayPad$[ebp], eax
	push	ebx
	push	esi
	push	edi
	mov	DWORD PTR _this$[ebp], ecx

; 1142 : 	DecalVertexList_t& verts = decalMaterial.m_Vertices; 

	mov	eax, DWORD PTR _decalMaterial$[ebp]
	add	eax, 36					; 00000024H
	mov	DWORD PTR _verts$[ebp], eax

; 1143 : 	m_nNumArrayVerts = m_nNumArrayElems = 0;

	mov	eax, DWORD PTR _this$[ebp]
	mov	DWORD PTR [eax+19594976], 0
	mov	ecx, DWORD PTR _this$[ebp]
	mov	DWORD PTR [ecx+19594972], 0

; 1144 : 	matrix3x4	skinMat;

	lea	ecx, DWORD PTR _skinMat$[ebp]
	call	??0matrix3x4@@QAE@XZ			; matrix3x4::matrix3x4

; 1145 : 	byte alpha = 255;

	mov	BYTE PTR _alpha$[ebp], 255		; 000000ffH

; 1146 : 
; 1147 : 	if( !R_ModelOpaque( m_pCurrentEntity->curstate.rendermode, m_pCurrentEntity->curstate.renderamt ))

	mov	eax, DWORD PTR _this$[ebp]
	mov	ecx, DWORD PTR [eax+19104]
	cmp	DWORD PTR [ecx+760], 0
	je	SHORT $LN8@ComputeDec
	mov	eax, DWORD PTR _this$[ebp]
	mov	ecx, DWORD PTR [eax+19104]
	cmp	DWORD PTR [ecx+760], 4
	je	SHORT $LN8@ComputeDec

; 1148 : 		alpha = m_pCurrentEntity->curstate.renderamt;

	mov	eax, DWORD PTR _this$[ebp]
	mov	ecx, DWORD PTR [eax+19104]
	mov	dl, BYTE PTR [ecx+764]
	mov	BYTE PTR _alpha$[ebp], dl
$LN8@ComputeDec:

; 1149 : 
; 1150 : 	for( word i = verts.Head(); i != verts.InvalidIndex(); i = verts.Next( i ))

	mov	ecx, DWORD PTR _verts$[ebp]
	call	?Head@?$CUtlLinkedList@UDecalVertex_t@@G@@QBEGXZ ; CUtlLinkedList<DecalVertex_t,unsigned short>::Head
	mov	WORD PTR _i$16[ebp], ax
	jmp	SHORT $LN4@ComputeDec
$LN2@ComputeDec:
	movzx	eax, WORD PTR _i$16[ebp]
	push	eax
	mov	ecx, DWORD PTR _verts$[ebp]
	call	?Next@?$CUtlLinkedList@UDecalVertex_t@@G@@QBEGG@Z ; CUtlLinkedList<DecalVertex_t,unsigned short>::Next
	mov	WORD PTR _i$16[ebp], ax
$LN4@ComputeDec:
	movzx	esi, WORD PTR _i$16[ebp]
	call	?InvalidIndex@?$CUtlLinkedList@UDecalVertex_t@@G@@SAGXZ ; CUtlLinkedList<DecalVertex_t,unsigned short>::InvalidIndex
	movzx	eax, ax
	cmp	esi, eax
	je	$LN3@ComputeDec

; 1151 : 	{
; 1152 : 		DecalVertex_t& vertex = verts[i];

	movzx	eax, WORD PTR _i$16[ebp]
	push	eax
	mov	ecx, DWORD PTR _verts$[ebp]
	call	??A?$CUtlLinkedList@UDecalVertex_t@@G@@QAEAAUDecalVertex_t@@G@Z ; CUtlLinkedList<DecalVertex_t,unsigned short>::operator[]
	mov	DWORD PTR _vertex$15[ebp], eax

; 1153 : 		int bone = vertex.m_BoneWeights.bone[0];

	mov	eax, 1
	imul	ecx, eax, 0
	mov	edx, DWORD PTR _vertex$15[ebp]
	movsx	eax, BYTE PTR [edx+ecx+56]
	mov	DWORD PTR _bone$14[ebp], eax

; 1154 : 
; 1155 : 		if( m_pRenderModel->poseToBone != NULL )

	mov	eax, DWORD PTR _this$[ebp]
	mov	ecx, DWORD PTR [eax+19108]
	cmp	DWORD PTR [ecx+376], 0
	je	SHORT $LN9@ComputeDec

; 1156 : 		{
; 1157 : 			ComputeSkinMatrix( &vertex.m_BoneWeights, m_pworldtransform, skinMat );

	lea	eax, DWORD PTR _skinMat$[ebp]
	push	eax
	mov	ecx, DWORD PTR _this$[ebp]
	add	ecx, 1274076				; 001370dcH
	push	ecx
	mov	edx, DWORD PTR _vertex$15[ebp]
	add	edx, 52					; 00000034H
	push	edx
	mov	eax, DWORD PTR _this$[ebp]
	mov	edx, DWORD PTR [eax]
	mov	ecx, DWORD PTR _this$[ebp]
	mov	eax, DWORD PTR [edx+80]
	call	eax

; 1158 : 			m_arrayverts[m_nNumArrayVerts] = skinMat.VectorTransform( vertex.m_Position );

	mov	eax, DWORD PTR _vertex$15[ebp]
	push	eax
	lea	ecx, DWORD PTR $T5[ebp]
	push	ecx
	lea	ecx, DWORD PTR _skinMat$[ebp]
	call	?VectorTransform@matrix3x4@@QBE?AVVector@@ABV2@@Z ; matrix3x4::VectorTransform
	mov	edx, DWORD PTR _this$[ebp]
	imul	ecx, DWORD PTR [edx+19594972], 12
	mov	edx, DWORD PTR _this$[ebp]
	lea	ecx, DWORD PTR [edx+ecx+1674972]
	mov	edx, DWORD PTR [eax]
	mov	DWORD PTR [ecx], edx
	mov	edx, DWORD PTR [eax+4]
	mov	DWORD PTR [ecx+4], edx
	mov	eax, DWORD PTR [eax+8]
	mov	DWORD PTR [ecx+8], eax

; 1159 : 		}
; 1160 : 		else

	jmp	SHORT $LN10@ComputeDec
$LN9@ComputeDec:

; 1161 : 		{
; 1162 : 			m_arrayverts[m_nNumArrayVerts] = bones[bone].VectorTransform( vertex.m_Position );

	mov	eax, DWORD PTR _vertex$15[ebp]
	push	eax
	lea	ecx, DWORD PTR $T4[ebp]
	push	ecx
	imul	ecx, DWORD PTR _bone$14[ebp], 48
	add	ecx, DWORD PTR _bones$[ebp]
	call	?VectorTransform@matrix3x4@@QBE?AVVector@@ABV2@@Z ; matrix3x4::VectorTransform
	mov	edx, DWORD PTR _this$[ebp]
	imul	ecx, DWORD PTR [edx+19594972], 12
	mov	edx, DWORD PTR _this$[ebp]
	lea	ecx, DWORD PTR [edx+ecx+1674972]
	mov	edx, DWORD PTR [eax]
	mov	DWORD PTR [ecx], edx
	mov	edx, DWORD PTR [eax+4]
	mov	DWORD PTR [ecx+4], edx
	mov	eax, DWORD PTR [eax+8]
	mov	DWORD PTR [ecx+8], eax
$LN10@ComputeDec:

; 1163 : 		}
; 1164 : 
; 1165 : 		if( FBitSet( m_pModelInstance->info_flags, MF_VERTEX_LIGHTING ))

	mov	eax, DWORD PTR _this$[ebp]
	mov	ecx, DWORD PTR [eax+19112]
	mov	edx, DWORD PTR [ecx+16]
	and	edx, 2
	je	$LN11@ComputeDec

; 1166 : 		{
; 1167 : 			unsigned int	bl[3], scale;
; 1168 : 
; 1169 : 			bl[0] = bl[1] = bl[2] = 0;

	mov	eax, 4
	shl	eax, 1
	mov	DWORD PTR _bl$13[ebp+eax], 0
	mov	ecx, 4
	shl	ecx, 0
	mov	DWORD PTR _bl$13[ebp+ecx], 0
	mov	edx, 4
	imul	eax, edx, 0
	mov	DWORD PTR _bl$13[ebp+eax], 0

; 1170 : 
; 1171 : 			// add all the lightmaps
; 1172 : 			for( int map = 0; map < MAXLIGHTMAPS && m_pModelInstance->styles[map] != 255; map++ )

	mov	DWORD PTR _map$11[ebp], 0
	jmp	SHORT $LN7@ComputeDec
$LN5@ComputeDec:
	mov	eax, DWORD PTR _map$11[ebp]
	add	eax, 1
	mov	DWORD PTR _map$11[ebp], eax
$LN7@ComputeDec:
	cmp	DWORD PTR _map$11[ebp], 4
	jge	$LN6@ComputeDec
	mov	eax, DWORD PTR _this$[ebp]
	mov	ecx, DWORD PTR [eax+19112]
	mov	edx, DWORD PTR _map$11[ebp]
	movzx	eax, BYTE PTR [ecx+edx+24]
	cmp	eax, 255				; 000000ffH
	je	$LN6@ComputeDec

; 1173 : 			{
; 1174 : 				scale = tr.lightstylevalue[m_pModelInstance->styles[map]];

	mov	eax, DWORD PTR _this$[ebp]
	mov	ecx, DWORD PTR [eax+19112]
	mov	edx, DWORD PTR _map$11[ebp]
	movzx	eax, BYTE PTR [ecx+edx+24]
	mov	ecx, DWORD PTR ?tr@@3Uref_globals_t@@A[eax*4+531184]
	mov	DWORD PTR _scale$12[ebp], ecx

; 1175 : 				bl[0] += TEXTURE_TO_TEXGAMMA( vertex.m_Light[map][0] ) * scale;

	mov	eax, 4
	imul	esi, eax, 0
	imul	ecx, DWORD PTR _map$11[ebp], 3
	mov	edx, DWORD PTR _vertex$15[ebp]
	lea	eax, DWORD PTR [edx+ecx+40]
	mov	ecx, 1
	imul	edx, ecx, 0
	movzx	eax, BYTE PTR [eax+edx]
	push	eax
	call	DWORD PTR ?gRenderfuncs@@3Urender_api_s@@A+24
	add	esp, 4
	movzx	ecx, al
	imul	ecx, DWORD PTR _scale$12[ebp]
	add	ecx, DWORD PTR _bl$13[ebp+esi]
	mov	edx, 4
	imul	eax, edx, 0
	mov	DWORD PTR _bl$13[ebp+eax], ecx

; 1176 : 				bl[1] += TEXTURE_TO_TEXGAMMA( vertex.m_Light[map][1] ) * scale;

	mov	esi, 4
	shl	esi, 0
	imul	eax, DWORD PTR _map$11[ebp], 3
	mov	ecx, DWORD PTR _vertex$15[ebp]
	lea	edx, DWORD PTR [ecx+eax+40]
	mov	eax, 1
	shl	eax, 0
	movzx	ecx, BYTE PTR [edx+eax]
	push	ecx
	call	DWORD PTR ?gRenderfuncs@@3Urender_api_s@@A+24
	add	esp, 4
	movzx	edx, al
	imul	edx, DWORD PTR _scale$12[ebp]
	add	edx, DWORD PTR _bl$13[ebp+esi]
	mov	eax, 4
	shl	eax, 0
	mov	DWORD PTR _bl$13[ebp+eax], edx

; 1177 : 				bl[2] += TEXTURE_TO_TEXGAMMA( vertex.m_Light[map][2] ) * scale;

	mov	esi, 4
	shl	esi, 1
	imul	eax, DWORD PTR _map$11[ebp], 3
	mov	ecx, DWORD PTR _vertex$15[ebp]
	lea	edx, DWORD PTR [ecx+eax+40]
	mov	eax, 1
	shl	eax, 1
	movzx	ecx, BYTE PTR [edx+eax]
	push	ecx
	call	DWORD PTR ?gRenderfuncs@@3Urender_api_s@@A+24
	add	esp, 4
	movzx	edx, al
	imul	edx, DWORD PTR _scale$12[ebp]
	add	edx, DWORD PTR _bl$13[ebp+esi]
	mov	eax, 4
	shl	eax, 1
	mov	DWORD PTR _bl$13[ebp+eax], edx

; 1178 : 			}

	jmp	$LN5@ComputeDec
$LN6@ComputeDec:

; 1179 : 
; 1180 : 			m_arraycolor[m_nNumArrayVerts][0] = Q_min(( bl[0] >> 7 ), 255 );

	mov	eax, 4
	imul	ecx, eax, 0
	mov	edx, DWORD PTR _bl$13[ebp+ecx]
	shr	edx, 7
	cmp	edx, 255				; 000000ffH
	jae	SHORT $LN16@ComputeDec
	mov	eax, 4
	imul	ecx, eax, 0
	mov	edx, DWORD PTR _bl$13[ebp+ecx]
	shr	edx, 7
	mov	DWORD PTR tv245[ebp], edx
	jmp	SHORT $LN17@ComputeDec
$LN16@ComputeDec:
	mov	DWORD PTR tv245[ebp], 255		; 000000ffH
$LN17@ComputeDec:
	mov	eax, DWORD PTR _this$[ebp]
	mov	ecx, DWORD PTR [eax+19594972]
	mov	edx, DWORD PTR _this$[ebp]
	lea	eax, DWORD PTR [edx+ecx*4+10634972]
	mov	ecx, 1
	imul	edx, ecx, 0
	mov	cl, BYTE PTR tv245[ebp]
	mov	BYTE PTR [eax+edx], cl

; 1181 : 			m_arraycolor[m_nNumArrayVerts][1] = Q_min(( bl[1] >> 7 ), 255 );

	mov	eax, 4
	shl	eax, 0
	mov	ecx, DWORD PTR _bl$13[ebp+eax]
	shr	ecx, 7
	cmp	ecx, 255				; 000000ffH
	jae	SHORT $LN18@ComputeDec
	mov	edx, 4
	shl	edx, 0
	mov	eax, DWORD PTR _bl$13[ebp+edx]
	shr	eax, 7
	mov	DWORD PTR tv261[ebp], eax
	jmp	SHORT $LN19@ComputeDec
$LN18@ComputeDec:
	mov	DWORD PTR tv261[ebp], 255		; 000000ffH
$LN19@ComputeDec:
	mov	ecx, DWORD PTR _this$[ebp]
	mov	edx, DWORD PTR [ecx+19594972]
	mov	eax, DWORD PTR _this$[ebp]
	lea	ecx, DWORD PTR [eax+edx*4+10634972]
	mov	edx, 1
	shl	edx, 0
	mov	al, BYTE PTR tv261[ebp]
	mov	BYTE PTR [ecx+edx], al

; 1182 : 			m_arraycolor[m_nNumArrayVerts][2] = Q_min(( bl[2] >> 7 ), 255 );

	mov	eax, 4
	shl	eax, 1
	mov	ecx, DWORD PTR _bl$13[ebp+eax]
	shr	ecx, 7
	cmp	ecx, 255				; 000000ffH
	jae	SHORT $LN20@ComputeDec
	mov	edx, 4
	shl	edx, 1
	mov	eax, DWORD PTR _bl$13[ebp+edx]
	shr	eax, 7
	mov	DWORD PTR tv277[ebp], eax
	jmp	SHORT $LN21@ComputeDec
$LN20@ComputeDec:
	mov	DWORD PTR tv277[ebp], 255		; 000000ffH
$LN21@ComputeDec:
	mov	ecx, DWORD PTR _this$[ebp]
	mov	edx, DWORD PTR [ecx+19594972]
	mov	eax, DWORD PTR _this$[ebp]
	lea	ecx, DWORD PTR [eax+edx*4+10634972]
	mov	edx, 1
	shl	edx, 1
	mov	al, BYTE PTR tv277[ebp]
	mov	BYTE PTR [ecx+edx], al
	jmp	$LN14@ComputeDec
$LN11@ComputeDec:

; 1183 : 		}
; 1184 : 		else if( m_pRenderModel->poseToBone != NULL )

	mov	eax, DWORD PTR _this$[ebp]
	mov	ecx, DWORD PTR [eax+19108]
	cmp	DWORD PTR [ecx+376], 0
	je	$LN13@ComputeDec

; 1185 : 		{
; 1186 : 			Vector vertexLight, vecNormal;

	lea	ecx, DWORD PTR _vertexLight$10[ebp]
	call	??0Vector@@QAE@XZ			; Vector::Vector
	lea	ecx, DWORD PTR _vecNormal$9[ebp]
	call	??0Vector@@QAE@XZ			; Vector::Vector

; 1187 : 			float lv;
; 1188 : 
; 1189 : 			vecNormal = skinMat.VectorRotate( vertex.m_Normal );

	mov	eax, DWORD PTR _vertex$15[ebp]
	add	eax, 12					; 0000000cH
	push	eax
	lea	ecx, DWORD PTR $T3[ebp]
	push	ecx
	lea	ecx, DWORD PTR _skinMat$[ebp]
	call	?VectorRotate@matrix3x4@@QBE?AVVector@@ABV2@@Z ; matrix3x4::VectorRotate
	mov	edx, DWORD PTR [eax]
	mov	DWORD PTR _vecNormal$9[ebp], edx
	mov	ecx, DWORD PTR [eax+4]
	mov	DWORD PTR _vecNormal$9[ebp+4], ecx
	mov	edx, DWORD PTR [eax+8]
	mov	DWORD PTR _vecNormal$9[ebp+8], edx

; 1190 : 			StudioLighting( &lv, -1, decalMaterial.flags, vecNormal );

	lea	eax, DWORD PTR _vecNormal$9[ebp]
	push	eax
	mov	ecx, DWORD PTR _decalMaterial$[ebp]
	mov	edx, DWORD PTR [ecx+12]
	push	edx
	push	-1
	lea	eax, DWORD PTR _lv$8[ebp]
	push	eax
	mov	ecx, DWORD PTR _this$[ebp]
	mov	edx, DWORD PTR [ecx]
	mov	ecx, DWORD PTR _this$[ebp]
	mov	eax, DWORD PTR [edx+112]
	call	eax

; 1191 : 			vertexLight = m_pModelInstance->lighting.color * lv;

	push	ecx
	movss	xmm0, DWORD PTR _lv$8[ebp]
	movss	DWORD PTR [esp], xmm0
	lea	eax, DWORD PTR $T2[ebp]
	push	eax
	mov	ecx, DWORD PTR _this$[ebp]
	mov	ecx, DWORD PTR [ecx+19112]
	add	ecx, 36					; 00000024H
	call	??DVector@@QBE?AV0@M@Z			; Vector::operator*
	mov	edx, DWORD PTR [eax]
	mov	DWORD PTR _vertexLight$10[ebp], edx
	mov	ecx, DWORD PTR [eax+4]
	mov	DWORD PTR _vertexLight$10[ebp+4], ecx
	mov	edx, DWORD PTR [eax+8]
	mov	DWORD PTR _vertexLight$10[ebp+8], edx

; 1192 : 
; 1193 : 			m_arraycolor[m_nNumArrayVerts][0] = vertexLight.x * 255;

	movss	xmm0, DWORD PTR _vertexLight$10[ebp]
	mulss	xmm0, DWORD PTR __real@437f0000
	cvttss2si eax, xmm0
	mov	ecx, DWORD PTR _this$[ebp]
	mov	edx, DWORD PTR [ecx+19594972]
	mov	ecx, DWORD PTR _this$[ebp]
	lea	edx, DWORD PTR [ecx+edx*4+10634972]
	mov	ecx, 1
	imul	ecx, ecx, 0
	mov	BYTE PTR [edx+ecx], al

; 1194 : 			m_arraycolor[m_nNumArrayVerts][1] = vertexLight.y * 255;

	movss	xmm0, DWORD PTR _vertexLight$10[ebp+4]
	mulss	xmm0, DWORD PTR __real@437f0000
	cvttss2si eax, xmm0
	mov	ecx, DWORD PTR _this$[ebp]
	mov	edx, DWORD PTR [ecx+19594972]
	mov	ecx, DWORD PTR _this$[ebp]
	lea	edx, DWORD PTR [ecx+edx*4+10634972]
	mov	ecx, 1
	shl	ecx, 0
	mov	BYTE PTR [edx+ecx], al

; 1195 : 			m_arraycolor[m_nNumArrayVerts][2] = vertexLight.z * 255;

	movss	xmm0, DWORD PTR _vertexLight$10[ebp+8]
	mulss	xmm0, DWORD PTR __real@437f0000
	cvttss2si eax, xmm0
	mov	ecx, DWORD PTR _this$[ebp]
	mov	edx, DWORD PTR [ecx+19594972]
	mov	ecx, DWORD PTR _this$[ebp]
	lea	edx, DWORD PTR [ecx+edx*4+10634972]
	mov	ecx, 1
	shl	ecx, 1
	mov	BYTE PTR [edx+ecx], al

; 1196 : 		}
; 1197 : 		else

	jmp	$LN14@ComputeDec
$LN13@ComputeDec:

; 1198 : 		{
; 1199 : 			Vector vertexLight;

	lea	ecx, DWORD PTR _vertexLight$7[ebp]
	call	??0Vector@@QAE@XZ			; Vector::Vector

; 1200 : 			float lv;
; 1201 : 
; 1202 : 			// NOTE: studiolights used local coordinates for bonelighting so we pass untransformed normal
; 1203 : 			StudioLighting( &lv, bone, decalMaterial.flags, vertex.m_Normal );

	mov	eax, DWORD PTR _vertex$15[ebp]
	add	eax, 12					; 0000000cH
	push	eax
	mov	ecx, DWORD PTR _decalMaterial$[ebp]
	mov	edx, DWORD PTR [ecx+12]
	push	edx
	mov	eax, DWORD PTR _bone$14[ebp]
	push	eax
	lea	ecx, DWORD PTR _lv$6[ebp]
	push	ecx
	mov	edx, DWORD PTR _this$[ebp]
	mov	eax, DWORD PTR [edx]
	mov	ecx, DWORD PTR _this$[ebp]
	mov	edx, DWORD PTR [eax+112]
	call	edx

; 1204 : 			vertexLight = m_pModelInstance->lighting.color * lv;

	push	ecx
	movss	xmm0, DWORD PTR _lv$6[ebp]
	movss	DWORD PTR [esp], xmm0
	lea	eax, DWORD PTR $T1[ebp]
	push	eax
	mov	ecx, DWORD PTR _this$[ebp]
	mov	ecx, DWORD PTR [ecx+19112]
	add	ecx, 36					; 00000024H
	call	??DVector@@QBE?AV0@M@Z			; Vector::operator*
	mov	edx, DWORD PTR [eax]
	mov	DWORD PTR _vertexLight$7[ebp], edx
	mov	ecx, DWORD PTR [eax+4]
	mov	DWORD PTR _vertexLight$7[ebp+4], ecx
	mov	edx, DWORD PTR [eax+8]
	mov	DWORD PTR _vertexLight$7[ebp+8], edx

; 1205 : 
; 1206 : 			m_arraycolor[m_nNumArrayVerts][0] = vertexLight.x * 255;

	movss	xmm0, DWORD PTR _vertexLight$7[ebp]
	mulss	xmm0, DWORD PTR __real@437f0000
	cvttss2si eax, xmm0
	mov	ecx, DWORD PTR _this$[ebp]
	mov	edx, DWORD PTR [ecx+19594972]
	mov	ecx, DWORD PTR _this$[ebp]
	lea	edx, DWORD PTR [ecx+edx*4+10634972]
	mov	ecx, 1
	imul	ecx, ecx, 0
	mov	BYTE PTR [edx+ecx], al

; 1207 : 			m_arraycolor[m_nNumArrayVerts][1] = vertexLight.y * 255;

	movss	xmm0, DWORD PTR _vertexLight$7[ebp+4]
	mulss	xmm0, DWORD PTR __real@437f0000
	cvttss2si eax, xmm0
	mov	ecx, DWORD PTR _this$[ebp]
	mov	edx, DWORD PTR [ecx+19594972]
	mov	ecx, DWORD PTR _this$[ebp]
	lea	edx, DWORD PTR [ecx+edx*4+10634972]
	mov	ecx, 1
	shl	ecx, 0
	mov	BYTE PTR [edx+ecx], al

; 1208 : 			m_arraycolor[m_nNumArrayVerts][2] = vertexLight.z * 255;

	movss	xmm0, DWORD PTR _vertexLight$7[ebp+8]
	mulss	xmm0, DWORD PTR __real@437f0000
	cvttss2si eax, xmm0
	mov	ecx, DWORD PTR _this$[ebp]
	mov	edx, DWORD PTR [ecx+19594972]
	mov	ecx, DWORD PTR _this$[ebp]
	lea	edx, DWORD PTR [ecx+edx*4+10634972]
	mov	ecx, 1
	shl	ecx, 1
	mov	BYTE PTR [edx+ecx], al
$LN14@ComputeDec:

; 1209 : 		}
; 1210 : 
; 1211 : 		m_arraycoord[m_nNumArrayVerts].x = vertex.m_TexCoord0.x;

	mov	eax, DWORD PTR _this$[ebp]
	mov	ecx, DWORD PTR [eax+19594972]
	shl	ecx, 4
	mov	edx, DWORD PTR _this$[ebp]
	mov	eax, DWORD PTR _vertex$15[ebp]
	mov	eax, DWORD PTR [eax+24]
	mov	DWORD PTR [edx+ecx+5514972], eax

; 1212 : 		m_arraycoord[m_nNumArrayVerts].y = vertex.m_TexCoord0.y;

	mov	eax, DWORD PTR _this$[ebp]
	mov	ecx, DWORD PTR [eax+19594972]
	shl	ecx, 4
	mov	edx, DWORD PTR _this$[ebp]
	mov	eax, DWORD PTR _vertex$15[ebp]
	mov	eax, DWORD PTR [eax+28]
	mov	DWORD PTR [edx+ecx+5514976], eax

; 1213 : 		m_arraycoord[m_nNumArrayVerts].z = vertex.m_TexCoord1.x;

	mov	eax, DWORD PTR _this$[ebp]
	mov	ecx, DWORD PTR [eax+19594972]
	shl	ecx, 4
	mov	edx, DWORD PTR _this$[ebp]
	mov	eax, DWORD PTR _vertex$15[ebp]
	mov	eax, DWORD PTR [eax+32]
	mov	DWORD PTR [edx+ecx+5514980], eax

; 1214 : 		m_arraycoord[m_nNumArrayVerts].w = vertex.m_TexCoord1.y;

	mov	eax, DWORD PTR _this$[ebp]
	mov	ecx, DWORD PTR [eax+19594972]
	shl	ecx, 4
	mov	edx, DWORD PTR _this$[ebp]
	mov	eax, DWORD PTR _vertex$15[ebp]
	mov	eax, DWORD PTR [eax+36]
	mov	DWORD PTR [edx+ecx+5514984], eax

; 1215 : 		m_arraycolor[m_nNumArrayVerts][3] = alpha; // fade decals when fade corpse 

	mov	eax, DWORD PTR _this$[ebp]
	mov	ecx, DWORD PTR [eax+19594972]
	mov	edx, DWORD PTR _this$[ebp]
	lea	eax, DWORD PTR [edx+ecx*4+10634972]
	mov	ecx, 1
	imul	edx, ecx, 3
	mov	cl, BYTE PTR _alpha$[ebp]
	mov	BYTE PTR [eax+edx], cl

; 1216 : 		m_nNumArrayVerts++;	

	mov	eax, DWORD PTR _this$[ebp]
	mov	ecx, DWORD PTR [eax+19594972]
	add	ecx, 1
	mov	edx, DWORD PTR _this$[ebp]
	mov	DWORD PTR [edx+19594972], ecx

; 1217 : 	}

	jmp	$LN2@ComputeDec
$LN3@ComputeDec:

; 1218 : }

	pop	edi
	pop	esi
	pop	ebx
	mov	ecx, DWORD PTR __$ArrayPad$[ebp]
	xor	ecx, ebp
	call	@__security_check_cookie@4
	mov	esp, ebp
	pop	ebp
	ret	8
?ComputeDecalTransform@CStudioModelRenderer@@AAEXAAUDecalMaterial_t@1@QBVmatrix3x4@@@Z ENDP ; CStudioModelRenderer::ComputeDecalTransform
_TEXT	ENDS
; Function compile flags: /Odtp /ZI
; File d:\!diffusion 2020\source code 2022\client-server\client\render\r_studiodecal.cpp
;	COMDAT ?DrawDecal@CStudioModelRenderer@@AAEXPAUcl_entity_s@@@Z
_TEXT	SEGMENT
tv305 = -185						; size = 1
tv231 = -185						; size = 1
tv186 = -185						; size = 1
$T1 = -184						; size = 12
$T2 = -172						; size = 48
_valid$3 = -53						; size = 1
_decalMaterial$4 = -52					; size = 4
_mat$5 = -48						; size = 2
_hLastShader$ = -44					; size = 2
_modelTexture$ = -40					; size = 4
_decalTexture$ = -36					; size = 4
_i$6 = -32						; size = 4
_i$7 = -28						; size = 4
_i$8 = -24						; size = 4
_m$ = -20						; size = 4
_list$ = -16						; size = 4
_inst$ = -12						; size = 4
_this$ = -8						; size = 4
__$ArrayPad$ = -4					; size = 4
_e$ = 8							; size = 4
?DrawDecal@CStudioModelRenderer@@AAEXPAUcl_entity_s@@@Z PROC ; CStudioModelRenderer::DrawDecal, COMDAT
; _this$ = ecx

; 1269 : {

	push	ebp
	mov	ebp, esp
	sub	esp, 188				; 000000bcH
	mov	eax, DWORD PTR ___security_cookie
	xor	eax, ebp
	mov	DWORD PTR __$ArrayPad$[ebp], eax
	push	ebx
	push	esi
	push	edi
	mov	DWORD PTR _this$[ebp], ecx

; 1270 : 	if( e->modelhandle == INVALID_HANDLE )

	mov	eax, DWORD PTR _e$[ebp]
	cmp	DWORD PTR [eax+2960], 65535		; 0000ffffH
	jne	SHORT $LN14@DrawDecal

; 1271 : 		return;

	jmp	$LN1@DrawDecal
$LN14@DrawDecal:

; 1272 : 
; 1273 : 	ModelInstance_t *inst = &m_ModelInstances[e->modelhandle];

	mov	eax, DWORD PTR _e$[ebp]
	movzx	ecx, WORD PTR [eax+2960]
	push	ecx
	mov	ecx, DWORD PTR _this$[ebp]
	add	ecx, 64					; 00000040H
	call	??A?$CUtlLinkedList@UModelInstance_t@CStudioModelRenderer@@G@@QAEAAUModelInstance_t@CStudioModelRenderer@@G@Z ; CUtlLinkedList<CStudioModelRenderer::ModelInstance_t,unsigned short>::operator[]
	mov	DWORD PTR _inst$[ebp], eax

; 1274 : 
; 1275 : 	if( inst->visframe != tr.realframecount )

	mov	eax, DWORD PTR _inst$[ebp]
	mov	ecx, DWORD PTR [eax+49212]
	cmp	ecx, DWORD PTR ?tr@@3Uref_globals_t@@A+5830928
	je	SHORT $LN15@DrawDecal

; 1276 : 		return;	// model is culled

	jmp	$LN1@DrawDecal
$LN15@DrawDecal:

; 1277 : 
; 1278 : 	if( inst->m_DecalHandle == INVALID_HANDLE )

	mov	eax, DWORD PTR _inst$[ebp]
	movzx	ecx, WORD PTR [eax+8]
	cmp	ecx, 65535				; 0000ffffH
	jne	SHORT $LN16@DrawDecal

; 1279 : 		return;	// no decals for this model

	jmp	$LN1@DrawDecal
$LN16@DrawDecal:

; 1280 : 
; 1281 : 	// All decal vertex data is are stored in pose space
; 1282 : 	// So as long as the pose-to-world transforms are set, we're all ready!
; 1283 : 
; 1284 : 	// Get the decal list for this lod
; 1285 : 	DecalModelList_t const& list = m_DecalList[inst->m_DecalHandle];

	mov	eax, DWORD PTR _inst$[ebp]
	movzx	ecx, WORD PTR [eax+8]
	push	ecx
	mov	ecx, DWORD PTR _this$[ebp]
	add	ecx, 36					; 00000024H
	call	??A?$CUtlLinkedList@UDecalModelList_t@CStudioModelRenderer@@G@@QAEAAUDecalModelList_t@CStudioModelRenderer@@G@Z ; CUtlLinkedList<CStudioModelRenderer::DecalModelList_t,unsigned short>::operator[]
	mov	DWORD PTR _list$[ebp], eax

; 1286 : 
; 1287 : 	mposetobone_t *m = m_pRenderModel->poseToBone;

	mov	eax, DWORD PTR _this$[ebp]
	mov	ecx, DWORD PTR [eax+19108]
	mov	edx, DWORD PTR [ecx+376]
	mov	DWORD PTR _m$[ebp], edx

; 1288 : 
; 1289 : 	// setup bone transform
; 1290 : 	if( m != NULL )

	cmp	DWORD PTR _m$[ebp], 0
	je	SHORT $LN17@DrawDecal

; 1291 : 	{
; 1292 : 		for( int i = 0; i < m_pStudioHeader->numbones; i++ )

	mov	DWORD PTR _i$8[ebp], 0
	jmp	SHORT $LN4@DrawDecal
$LN2@DrawDecal:
	mov	eax, DWORD PTR _i$8[ebp]
	add	eax, 1
	mov	DWORD PTR _i$8[ebp], eax
$LN4@DrawDecal:
	mov	eax, DWORD PTR _this$[ebp]
	mov	ecx, DWORD PTR [eax+19124]
	mov	edx, DWORD PTR _i$8[ebp]
	cmp	edx, DWORD PTR [ecx+140]
	jge	SHORT $LN3@DrawDecal

; 1293 : 			m_pworldtransform[i] = m_pModelInstance->m_pbones[i].ConcatTransforms( m->posetobone[i] );

	imul	eax, DWORD PTR _i$8[ebp], 48
	add	eax, DWORD PTR _m$[ebp]
	sub	esp, 48					; 00000030H
	mov	ecx, esp
	push	eax
	call	??0matrix3x4@@QAE@ABV0@@Z
	lea	ecx, DWORD PTR $T2[ebp]
	push	ecx
	mov	edx, DWORD PTR _this$[ebp]
	mov	eax, DWORD PTR [edx+19112]
	imul	ecx, DWORD PTR _i$8[ebp], 48
	lea	ecx, DWORD PTR [eax+ecx+12336]
	call	?ConcatTransforms@matrix3x4@@QAE?AV1@V1@@Z ; matrix3x4::ConcatTransforms
	imul	edx, DWORD PTR _i$8[ebp], 48
	mov	ecx, DWORD PTR _this$[ebp]
	lea	edi, DWORD PTR [ecx+edx+1274076]
	mov	ecx, 12					; 0000000cH
	mov	esi, eax
	rep movsd
	jmp	SHORT $LN2@DrawDecal
$LN3@DrawDecal:

; 1294 : 	}
; 1295 : 	else

	jmp	SHORT $LN6@DrawDecal
$LN17@DrawDecal:

; 1296 : 	{
; 1297 : 		// no pose to bone just copy the bones
; 1298 : 		for( int i = 0; i < m_pStudioHeader->numbones; i++ )

	mov	DWORD PTR _i$7[ebp], 0
	jmp	SHORT $LN7@DrawDecal
$LN5@DrawDecal:
	mov	eax, DWORD PTR _i$7[ebp]
	add	eax, 1
	mov	DWORD PTR _i$7[ebp], eax
$LN7@DrawDecal:
	mov	eax, DWORD PTR _this$[ebp]
	mov	ecx, DWORD PTR [eax+19124]
	mov	edx, DWORD PTR _i$7[ebp]
	cmp	edx, DWORD PTR [ecx+140]
	jge	SHORT $LN6@DrawDecal

; 1299 : 			m_pworldtransform[i] = m_pModelInstance->m_pbones[i];

	mov	eax, DWORD PTR _this$[ebp]
	mov	ecx, DWORD PTR [eax+19112]
	imul	edx, DWORD PTR _i$7[ebp], 48
	lea	esi, DWORD PTR [ecx+edx+12336]
	imul	eax, DWORD PTR _i$7[ebp], 48
	mov	ecx, DWORD PTR _this$[ebp]
	lea	edi, DWORD PTR [ecx+eax+1274076]
	mov	ecx, 12					; 0000000cH
	rep movsd
	jmp	SHORT $LN5@DrawDecal
$LN6@DrawDecal:

; 1300 : 	}
; 1301 : 
; 1302 : 	// setup bone lighting
; 1303 : 	if( !m_pRenderModel->poseToBone && !FBitSet( m_pModelInstance->info_flags, MF_VERTEX_LIGHTING ))

	mov	eax, DWORD PTR _this$[ebp]
	mov	ecx, DWORD PTR [eax+19108]
	cmp	DWORD PTR [ecx+376], 0
	jne	SHORT $LN9@DrawDecal
	mov	eax, DWORD PTR _this$[ebp]
	mov	ecx, DWORD PTR [eax+19112]
	mov	edx, DWORD PTR [ecx+16]
	and	edx, 2
	jne	SHORT $LN9@DrawDecal

; 1304 : 	{
; 1305 : 		for( int i = 0; i < m_pStudioHeader->numbones; i++ )

	mov	DWORD PTR _i$6[ebp], 0
	jmp	SHORT $LN10@DrawDecal
$LN8@DrawDecal:
	mov	eax, DWORD PTR _i$6[ebp]
	add	eax, 1
	mov	DWORD PTR _i$6[ebp], eax
$LN10@DrawDecal:
	mov	eax, DWORD PTR _this$[ebp]
	mov	ecx, DWORD PTR [eax+19124]
	mov	edx, DWORD PTR _i$6[ebp]
	cmp	edx, DWORD PTR [ecx+140]
	jge	SHORT $LN9@DrawDecal

; 1306 : 			m_bonelightvecs[i] = m_pworldtransform[i].VectorIRotate( inst->lighting.plightvec );

	mov	eax, DWORD PTR _inst$[ebp]
	add	eax, 48					; 00000030H
	push	eax
	lea	ecx, DWORD PTR $T1[ebp]
	push	ecx
	imul	edx, DWORD PTR _i$6[ebp], 48
	mov	eax, DWORD PTR _this$[ebp]
	lea	ecx, DWORD PTR [eax+edx+1274076]
	call	?VectorIRotate@matrix3x4@@QBE?AVVector@@ABV2@@Z ; matrix3x4::VectorIRotate
	imul	ecx, DWORD PTR _i$6[ebp], 12
	mov	edx, DWORD PTR _this$[ebp]
	lea	ecx, DWORD PTR [edx+ecx+1280220]
	mov	edx, DWORD PTR [eax]
	mov	DWORD PTR [ecx], edx
	mov	edx, DWORD PTR [eax+4]
	mov	DWORD PTR [ecx+4], edx
	mov	eax, DWORD PTR [eax+8]
	mov	DWORD PTR [ecx+8], eax
	jmp	SHORT $LN8@DrawDecal
$LN9@DrawDecal:

; 1307 : 	}
; 1308 : 
; 1309 : 	GL_Blend( GL_TRUE );

	push	1
	call	?GL_Blend@@YAXH@Z			; GL_Blend
	add	esp, 4

; 1310 : 	pglBlendFunc( GL_SRC_ALPHA, GL_ONE_MINUS_SRC_ALPHA );

	push	771					; 00000303H
	push	770					; 00000302H
	call	DWORD PTR ?pglBlendFunc@@3P6GXII@ZA	; pglBlendFunc

; 1311 : 
; 1312 : 	if( CVAR_TO_BOOL( r_polyoffset ))

	cmp	DWORD PTR ?r_polyoffset@@3PAUcvar_s@@A, 0 ; r_polyoffset
	je	SHORT $LN31@DrawDecal
	mov	eax, DWORD PTR ?r_polyoffset@@3PAUcvar_s@@A ; r_polyoffset
	movss	xmm0, DWORD PTR [eax+12]
	ucomiss	xmm0, DWORD PTR __real@00000000
	lahf
	test	ah, 68					; 00000044H
	jnp	SHORT $LN31@DrawDecal
	mov	BYTE PTR tv186[ebp], 1
	jmp	SHORT $LN32@DrawDecal
$LN31@DrawDecal:
	mov	BYTE PTR tv186[ebp], 0
$LN32@DrawDecal:
	movzx	ecx, BYTE PTR tv186[ebp]
	test	ecx, ecx
	je	SHORT $LN20@DrawDecal

; 1313 : 	{
; 1314 : 		pglEnable( GL_POLYGON_OFFSET_FILL );

	push	32823					; 00008037H
	call	DWORD PTR ?pglEnable@@3P6GXI@ZA		; pglEnable

; 1315 : 		pglPolygonOffset( -1.0f, -r_polyoffset->value );

	mov	eax, DWORD PTR ?r_polyoffset@@3PAUcvar_s@@A ; r_polyoffset
	movss	xmm0, DWORD PTR [eax+12]
	xorps	xmm0, DWORD PTR __xmm@80000000800000008000000080000000
	push	ecx
	movss	DWORD PTR [esp], xmm0
	push	ecx
	movss	xmm0, DWORD PTR __real@bf800000
	movss	DWORD PTR [esp], xmm0
	call	DWORD PTR ?pglPolygonOffset@@3P6GXMM@ZA	; pglPolygonOffset
$LN20@DrawDecal:

; 1316 : 	}
; 1317 : 
; 1318 : 	GL_DepthMask( GL_FALSE );

	push	0
	call	?GL_DepthMask@@YAXH@Z			; GL_DepthMask
	add	esp, 4

; 1319 : 	GL_AlphaTest( GL_FALSE );

	push	0
	call	?GL_AlphaTest@@YAXH@Z			; GL_AlphaTest
	add	esp, 4

; 1320 : 
; 1321 : 	GL_SelectTexture( GL_TEXTURE0 ); // keep texcoords at 0-th unit

	push	0
	call	DWORD PTR ?gRenderfuncs@@3Urender_api_s@@A+136
	add	esp, 4

; 1322 : 	pglEnableClientState( GL_TEXTURE_COORD_ARRAY );

	push	32888					; 00008078H
	call	DWORD PTR ?pglEnableClientState@@3P6GXI@ZA ; pglEnableClientState

; 1323 : 	pglTexCoordPointer( 4, GL_FLOAT, 16, m_arraycoord );

	mov	eax, DWORD PTR _this$[ebp]
	add	eax, 5514972				; 005426dcH
	push	eax
	push	16					; 00000010H
	push	5126					; 00001406H
	push	4
	call	DWORD PTR ?pglTexCoordPointer@@3P6GXHIHPBX@ZA ; pglTexCoordPointer

; 1324 : 
; 1325 : 	pglEnableClientState( GL_COLOR_ARRAY );

	push	32886					; 00008076H
	call	DWORD PTR ?pglEnableClientState@@3P6GXI@ZA ; pglEnableClientState

; 1326 : 	pglColorPointer( 4, GL_UNSIGNED_BYTE, 0, m_arraycolor );

	mov	eax, DWORD PTR _this$[ebp]
	add	eax, 10634972				; 00a246dcH
	push	eax
	push	0
	push	5121					; 00001401H
	push	4
	call	DWORD PTR ?pglColorPointer@@3P6GXHIHPBX@ZA ; pglColorPointer

; 1327 : 
; 1328 : 	pglEnableClientState( GL_VERTEX_ARRAY );

	push	32884					; 00008074H
	call	DWORD PTR ?pglEnableClientState@@3P6GXI@ZA ; pglEnableClientState

; 1329 : 	pglVertexPointer( 3, GL_FLOAT, 12, m_arrayverts );

	mov	eax, DWORD PTR _this$[ebp]
	add	eax, 1674972				; 00198edcH
	push	eax
	push	12					; 0000000cH
	push	5126					; 00001406H
	push	3
	call	DWORD PTR ?pglVertexPointer@@3P6GXHIHPBX@ZA ; pglVertexPointer

; 1330 : 
; 1331 : 	int decalTexture = -1;

	mov	DWORD PTR _decalTexture$[ebp], -1

; 1332 : 	int modelTexture = -1;

	mov	DWORD PTR _modelTexture$[ebp], -1

; 1333 : 	word hLastShader = -1;

	mov	eax, 65535				; 0000ffffH
	mov	WORD PTR _hLastShader$[ebp], ax

; 1334 : 
; 1335 : 	// Draw each set of decals using a particular material
; 1336 : 	for( word mat = list.m_FirstMaterial; mat != m_DecalMaterial.InvalidIndex(); mat = m_DecalMaterial.Next( mat ))

	mov	eax, DWORD PTR _list$[ebp]
	mov	cx, WORD PTR [eax]
	mov	WORD PTR _mat$5[ebp], cx
	jmp	SHORT $LN13@DrawDecal
$LN11@DrawDecal:
	movzx	eax, WORD PTR _mat$5[ebp]
	push	eax
	mov	ecx, DWORD PTR _this$[ebp]
	add	ecx, 8
	call	?Next@?$CUtlLinkedList@UDecalMaterial_t@CStudioModelRenderer@@G@@QBEGG@Z ; CUtlLinkedList<CStudioModelRenderer::DecalMaterial_t,unsigned short>::Next
	mov	WORD PTR _mat$5[ebp], ax
$LN13@DrawDecal:
	movzx	esi, WORD PTR _mat$5[ebp]
	call	?InvalidIndex@?$CUtlLinkedList@UDecalMaterial_t@CStudioModelRenderer@@G@@SAGXZ ; CUtlLinkedList<CStudioModelRenderer::DecalMaterial_t,unsigned short>::InvalidIndex
	movzx	eax, ax
	cmp	esi, eax
	je	$LN12@DrawDecal

; 1337 : 	{
; 1338 : 		DecalMaterial_t& decalMaterial = m_DecalMaterial[mat];

	movzx	eax, WORD PTR _mat$5[ebp]
	push	eax
	mov	ecx, DWORD PTR _this$[ebp]
	add	ecx, 8
	call	??A?$CUtlLinkedList@UDecalMaterial_t@CStudioModelRenderer@@G@@QAEAAUDecalMaterial_t@CStudioModelRenderer@@G@Z ; CUtlLinkedList<CStudioModelRenderer::DecalMaterial_t,unsigned short>::operator[]
	mov	DWORD PTR _decalMaterial$4[ebp], eax

; 1339 : 		bool valid = FBitSet( decalMaterial.flags, STUDIO_NF_NODRAW ) ? false : true;

	mov	eax, DWORD PTR _decalMaterial$4[ebp]
	mov	ecx, DWORD PTR [eax+12]
	and	ecx, 65536				; 00010000H
	je	SHORT $LN33@DrawDecal
	mov	BYTE PTR tv231[ebp], 0
	jmp	SHORT $LN34@DrawDecal
$LN33@DrawDecal:
	mov	BYTE PTR tv231[ebp], 1
$LN34@DrawDecal:
	mov	dl, BYTE PTR tv231[ebp]
	mov	BYTE PTR _valid$3[ebp], dl

; 1340 : 
; 1341 : 		// NOTE: even if shader was failed we can draw the decals with some limitations
; 1342 : 		if( valid && (( mat == list.m_FirstMaterial ) || ( RI->currentshader != &glsl_programs[decalMaterial.hProgram] )))

	movzx	eax, BYTE PTR _valid$3[ebp]
	test	eax, eax
	je	$LN21@DrawDecal
	movzx	eax, WORD PTR _mat$5[ebp]
	mov	ecx, DWORD PTR _list$[ebp]
	movzx	edx, WORD PTR [ecx]
	cmp	eax, edx
	je	SHORT $LN22@DrawDecal
	mov	eax, DWORD PTR _decalMaterial$4[ebp]
	movzx	ecx, WORD PTR [eax]
	imul	edx, ecx, 972
	add	edx, OFFSET ?glsl_programs@@3PAUglsl_prog_s@@A ; glsl_programs
	mov	eax, DWORD PTR ?RI@@3PAUref_instance_t@@A ; RI
	cmp	DWORD PTR [eax+28], edx
	je	$LN21@DrawDecal
$LN22@DrawDecal:

; 1343 : 		{
; 1344 : 			GL_BindShader( &glsl_programs[decalMaterial.hProgram] );			

	mov	eax, DWORD PTR _decalMaterial$4[ebp]
	movzx	ecx, WORD PTR [eax]
	imul	edx, ecx, 972
	add	edx, OFFSET ?glsl_programs@@3PAUglsl_prog_s@@A ; glsl_programs
	push	edx
	call	?GL_BindShader@@YAXPAUglsl_prog_s@@@Z	; GL_BindShader
	add	esp, 4

; 1345 : 			ASSERT( RI->currentshader != NULL );

	mov	eax, DWORD PTR ?RI@@3PAUref_instance_t@@A ; RI
	cmp	DWORD PTR [eax+28], 0
	jne	SHORT $LN23@DrawDecal
	mov	eax, DWORD PTR ?__LINE__Var@?0??DrawDecal@CStudioModelRenderer@@AAEXPAUcl_entity_s@@@Z@4JA
	add	eax, 76					; 0000004cH
	push	eax
	push	OFFSET ??_C@_0FC@KDOHJOI@d?3?2?$CBdiffusion?52020?2source?5code?52@
	push	OFFSET ??_C@_0BI@FECCGOFJ@assert?5failed?5at?5?$CFs?3?$CFi?6?$AA@
	call	DWORD PTR ?gRenderfuncs@@3Urender_api_s@@A+236
	add	esp, 12					; 0000000cH
$LN23@DrawDecal:

; 1346 : 			pglUniform4fARB( RI->currentshader->u_FogParams, tr.fogColor[0], tr.fogColor[1], tr.fogColor[2], tr.fogDensity );

	push	ecx
	movss	xmm0, DWORD PTR ?tr@@3Uref_globals_t@@A+5830908
	movss	DWORD PTR [esp], xmm0
	mov	ecx, OFFSET ?tr@@3Uref_globals_t@@A+5830896
	call	??BVector@@QAEPAMXZ			; Vector::operator float *
	mov	ecx, 4
	shl	ecx, 1
	push	ecx
	movss	xmm0, DWORD PTR [eax+ecx]
	movss	DWORD PTR [esp], xmm0
	mov	ecx, OFFSET ?tr@@3Uref_globals_t@@A+5830896
	call	??BVector@@QAEPAMXZ			; Vector::operator float *
	mov	edx, 4
	shl	edx, 0
	push	ecx
	movss	xmm0, DWORD PTR [eax+edx]
	movss	DWORD PTR [esp], xmm0
	mov	ecx, OFFSET ?tr@@3Uref_globals_t@@A+5830896
	call	??BVector@@QAEPAMXZ			; Vector::operator float *
	mov	ecx, 4
	imul	edx, ecx, 0
	push	ecx
	movss	xmm0, DWORD PTR [eax+edx]
	movss	DWORD PTR [esp], xmm0
	mov	eax, DWORD PTR ?RI@@3PAUref_instance_t@@A ; RI
	mov	ecx, DWORD PTR [eax+28]
	mov	edx, DWORD PTR [ecx+788]
	push	edx
	call	DWORD PTR ?pglUniform4fARB@@3P6GXHMMMM@ZA ; pglUniform4fARB
$LN21@DrawDecal:

; 1347 : 		}
; 1348 : 
; 1349 : 		if(( decalTexture != decalMaterial.decalTexture ) || ( modelTexture != decalMaterial.modelTexture ))

	mov	eax, DWORD PTR _decalMaterial$4[ebp]
	mov	ecx, DWORD PTR _decalTexture$[ebp]
	cmp	ecx, DWORD PTR [eax+4]
	jne	SHORT $LN25@DrawDecal
	mov	eax, DWORD PTR _decalMaterial$4[ebp]
	mov	ecx, DWORD PTR _modelTexture$[ebp]
	cmp	ecx, DWORD PTR [eax+8]
	je	SHORT $LN24@DrawDecal
$LN25@DrawDecal:

; 1350 : 		{
; 1351 : 			// bind the decal texture
; 1352 : 			GL_Bind( GL_TEXTURE0, decalMaterial.decalTexture );

	mov	eax, DWORD PTR _decalMaterial$4[ebp]
	mov	ecx, DWORD PTR [eax+4]
	push	ecx
	push	0
	call	DWORD PTR ?gRenderfuncs@@3Urender_api_s@@A+132
	add	esp, 8

; 1353 : 			if( valid ) GL_Bind( GL_TEXTURE1, decalMaterial.modelTexture );

	movzx	eax, BYTE PTR _valid$3[ebp]
	test	eax, eax
	je	SHORT $LN26@DrawDecal
	mov	eax, DWORD PTR _decalMaterial$4[ebp]
	mov	ecx, DWORD PTR [eax+8]
	push	ecx
	push	1
	call	DWORD PTR ?gRenderfuncs@@3Urender_api_s@@A+132
	add	esp, 8
$LN26@DrawDecal:

; 1354 : 			decalTexture = decalMaterial.decalTexture;

	mov	eax, DWORD PTR _decalMaterial$4[ebp]
	mov	ecx, DWORD PTR [eax+4]
	mov	DWORD PTR _decalTexture$[ebp], ecx

; 1355 : 			modelTexture = decalMaterial.modelTexture;

	mov	eax, DWORD PTR _decalMaterial$4[ebp]
	mov	ecx, DWORD PTR [eax+8]
	mov	DWORD PTR _modelTexture$[ebp], ecx
$LN24@DrawDecal:

; 1356 : 		}
; 1357 : 
; 1358 : 		// adjust the cull state
; 1359 : 		if( valid && FBitSet( decalMaterial.flags, STUDIO_NF_HAS_ALPHA ))

	movzx	eax, BYTE PTR _valid$3[ebp]
	test	eax, eax
	je	SHORT $LN27@DrawDecal
	mov	eax, DWORD PTR _decalMaterial$4[ebp]
	mov	ecx, DWORD PTR [eax+12]
	and	ecx, 524288				; 00080000H
	je	SHORT $LN27@DrawDecal

; 1360 : 			GL_Cull( GL_NONE );

	push	0
	call	?GL_Cull@@YAXI@Z			; GL_Cull
	add	esp, 4
	jmp	SHORT $LN28@DrawDecal
$LN27@DrawDecal:

; 1361 : 		else GL_Cull( GL_FRONT );

	push	1028					; 00000404H
	call	?GL_Cull@@YAXI@Z			; GL_Cull
	add	esp, 4
$LN28@DrawDecal:

; 1362 : 
; 1363 : 		DrawDecalMaterial( decalMaterial, m_pworldtransform );

	mov	eax, DWORD PTR _this$[ebp]
	add	eax, 1274076				; 001370dcH
	push	eax
	mov	ecx, DWORD PTR _decalMaterial$4[ebp]
	push	ecx
	mov	ecx, DWORD PTR _this$[ebp]
	call	?DrawDecalMaterial@CStudioModelRenderer@@AAEXAAUDecalMaterial_t@1@QBVmatrix3x4@@@Z ; CStudioModelRenderer::DrawDecalMaterial

; 1364 : 	}

	jmp	$LN11@DrawDecal
$LN12@DrawDecal:

; 1365 : 
; 1366 : 	pglDisableClientState( GL_TEXTURE_COORD_ARRAY );

	push	32888					; 00008078H
	call	DWORD PTR ?pglDisableClientState@@3P6GXI@ZA ; pglDisableClientState

; 1367 : 	pglDisableClientState( GL_VERTEX_ARRAY );

	push	32884					; 00008074H
	call	DWORD PTR ?pglDisableClientState@@3P6GXI@ZA ; pglDisableClientState

; 1368 : 	pglDisableClientState( GL_COLOR_ARRAY );

	push	32886					; 00008076H
	call	DWORD PTR ?pglDisableClientState@@3P6GXI@ZA ; pglDisableClientState

; 1369 : 	if( CVAR_TO_BOOL( r_polyoffset ))

	cmp	DWORD PTR ?r_polyoffset@@3PAUcvar_s@@A, 0 ; r_polyoffset
	je	SHORT $LN35@DrawDecal
	mov	eax, DWORD PTR ?r_polyoffset@@3PAUcvar_s@@A ; r_polyoffset
	movss	xmm0, DWORD PTR [eax+12]
	ucomiss	xmm0, DWORD PTR __real@00000000
	lahf
	test	ah, 68					; 00000044H
	jnp	SHORT $LN35@DrawDecal
	mov	BYTE PTR tv305[ebp], 1
	jmp	SHORT $LN36@DrawDecal
$LN35@DrawDecal:
	mov	BYTE PTR tv305[ebp], 0
$LN36@DrawDecal:
	movzx	ecx, BYTE PTR tv305[ebp]
	test	ecx, ecx
	je	SHORT $LN29@DrawDecal

; 1370 : 		pglDisable( GL_POLYGON_OFFSET_FILL );

	push	32823					; 00008037H
	call	DWORD PTR ?pglDisable@@3P6GXI@ZA	; pglDisable
$LN29@DrawDecal:

; 1371 : 	GL_SelectTexture( glConfig.max_texture_units - 1 ); // force to cleanup all the units

	mov	eax, DWORD PTR ?glConfig@@3UglConfig_t@@A+52
	sub	eax, 1
	push	eax
	call	DWORD PTR ?gRenderfuncs@@3Urender_api_s@@A+136
	add	esp, 4

; 1372 : 	GL_CleanUpTextureUnits( 0 );

	push	0
	call	DWORD PTR ?gRenderfuncs@@3Urender_api_s@@A+148
	add	esp, 4

; 1373 : 	GL_Cull( GL_FRONT );

	push	1028					; 00000404H
	call	?GL_Cull@@YAXI@Z			; GL_Cull
	add	esp, 4
$LN1@DrawDecal:

; 1374 : }

	pop	edi
	pop	esi
	pop	ebx
	mov	ecx, DWORD PTR __$ArrayPad$[ebp]
	xor	ecx, ebp
	call	@__security_check_cookie@4
	mov	esp, ebp
	pop	ebp
	ret	4
?DrawDecal@CStudioModelRenderer@@AAEXPAUcl_entity_s@@@Z ENDP ; CStudioModelRenderer::DrawDecal
_TEXT	ENDS
; Function compile flags: /Odtp /ZI
; File d:\!diffusion 2020\source code 2022\client-server\client\render\r_studiodecal.cpp
;	COMDAT ?CreateDecalList@CStudioModelRenderer@@AAEGXZ
_TEXT	SEGMENT
_handle$ = -8						; size = 2
_this$ = -4						; size = 4
?CreateDecalList@CStudioModelRenderer@@AAEGXZ PROC	; CStudioModelRenderer::CreateDecalList, COMDAT
; _this$ = ecx

; 36   : {

	push	ebp
	mov	ebp, esp
	sub	esp, 72					; 00000048H
	push	ebx
	push	esi
	push	edi
	mov	DWORD PTR _this$[ebp], ecx

; 37   : 	word handle = m_DecalList.AddToTail();

	mov	ecx, DWORD PTR _this$[ebp]
	add	ecx, 36					; 00000024H
	call	?AddToTail@?$CUtlLinkedList@UDecalModelList_t@CStudioModelRenderer@@G@@QAEGXZ ; CUtlLinkedList<CStudioModelRenderer::DecalModelList_t,unsigned short>::AddToTail
	mov	WORD PTR _handle$[ebp], ax

; 38   : 
; 39   : 	m_DecalList[handle].m_FirstMaterial = m_DecalMaterial.InvalidIndex();

	call	?InvalidIndex@?$CUtlLinkedList@UDecalMaterial_t@CStudioModelRenderer@@G@@SAGXZ ; CUtlLinkedList<CStudioModelRenderer::DecalMaterial_t,unsigned short>::InvalidIndex
	mov	si, ax
	movzx	eax, WORD PTR _handle$[ebp]
	push	eax
	mov	ecx, DWORD PTR _this$[ebp]
	add	ecx, 36					; 00000024H
	call	??A?$CUtlLinkedList@UDecalModelList_t@CStudioModelRenderer@@G@@QAEAAUDecalModelList_t@CStudioModelRenderer@@G@Z ; CUtlLinkedList<CStudioModelRenderer::DecalModelList_t,unsigned short>::operator[]
	mov	WORD PTR [eax], si

; 40   : 
; 41   : 	return handle;

	mov	ax, WORD PTR _handle$[ebp]

; 42   : }

	pop	edi
	pop	esi
	pop	ebx
	mov	esp, ebp
	pop	ebp
	ret	0
?CreateDecalList@CStudioModelRenderer@@AAEGXZ ENDP	; CStudioModelRenderer::CreateDecalList
_TEXT	ENDS
; Function compile flags: /Odtp /ZI
; File d:\!diffusion 2020\source code 2022\client-server\client\render\r_studiodecal.cpp
;	COMDAT ?DestroyDecalList@CStudioModelRenderer@@AAEXG@Z
_TEXT	SEGMENT
_next$1 = -12						; size = 2
_mat$ = -8						; size = 2
_this$ = -4						; size = 4
_handle$ = 8						; size = 2
?DestroyDecalList@CStudioModelRenderer@@AAEXG@Z PROC	; CStudioModelRenderer::DestroyDecalList, COMDAT
; _this$ = ecx

; 45   : {

	push	ebp
	mov	ebp, esp
	sub	esp, 76					; 0000004cH
	push	ebx
	push	esi
	push	edi
	mov	DWORD PTR _this$[ebp], ecx

; 46   : 	if( handle == INVALID_HANDLE )

	movzx	eax, WORD PTR _handle$[ebp]
	cmp	eax, 65535				; 0000ffffH
	jne	SHORT $LN4@DestroyDec

; 47   : 		return;

	jmp	SHORT $LN1@DestroyDec
$LN4@DestroyDec:

; 48   : 
; 49   : 	// blat out all geometry associated with all materials
; 50   : 	word mat = m_DecalList[handle].m_FirstMaterial;

	movzx	eax, WORD PTR _handle$[ebp]
	push	eax
	mov	ecx, DWORD PTR _this$[ebp]
	add	ecx, 36					; 00000024H
	call	??A?$CUtlLinkedList@UDecalModelList_t@CStudioModelRenderer@@G@@QAEAAUDecalModelList_t@CStudioModelRenderer@@G@Z ; CUtlLinkedList<CStudioModelRenderer::DecalModelList_t,unsigned short>::operator[]
	mov	cx, WORD PTR [eax]
	mov	WORD PTR _mat$[ebp], cx
$LN2@DestroyDec:

; 51   : 
; 52   : 	while( mat != m_DecalMaterial.InvalidIndex( ))

	movzx	esi, WORD PTR _mat$[ebp]
	call	?InvalidIndex@?$CUtlLinkedList@UDecalMaterial_t@CStudioModelRenderer@@G@@SAGXZ ; CUtlLinkedList<CStudioModelRenderer::DecalMaterial_t,unsigned short>::InvalidIndex
	movzx	eax, ax
	cmp	esi, eax
	je	SHORT $LN3@DestroyDec

; 53   : 	{
; 54   : 		word next = m_DecalMaterial.Next( mat );

	movzx	eax, WORD PTR _mat$[ebp]
	push	eax
	mov	ecx, DWORD PTR _this$[ebp]
	add	ecx, 8
	call	?Next@?$CUtlLinkedList@UDecalMaterial_t@CStudioModelRenderer@@G@@QBEGG@Z ; CUtlLinkedList<CStudioModelRenderer::DecalMaterial_t,unsigned short>::Next
	mov	WORD PTR _next$1[ebp], ax

; 55   : 		m_DecalMaterial.Remove( mat );

	movzx	eax, WORD PTR _mat$[ebp]
	push	eax
	mov	ecx, DWORD PTR _this$[ebp]
	add	ecx, 8
	call	?Remove@?$CUtlLinkedList@UDecalMaterial_t@CStudioModelRenderer@@G@@QAEXG@Z ; CUtlLinkedList<CStudioModelRenderer::DecalMaterial_t,unsigned short>::Remove

; 56   : 		mat = next;

	mov	ax, WORD PTR _next$1[ebp]
	mov	WORD PTR _mat$[ebp], ax

; 57   : 	}

	jmp	SHORT $LN2@DestroyDec
$LN3@DestroyDec:

; 58   : 
; 59   : 	m_DecalList.Remove( handle );

	movzx	eax, WORD PTR _handle$[ebp]
	push	eax
	mov	ecx, DWORD PTR _this$[ebp]
	add	ecx, 36					; 00000024H
	call	?Remove@?$CUtlLinkedList@UDecalModelList_t@CStudioModelRenderer@@G@@QAEXG@Z ; CUtlLinkedList<CStudioModelRenderer::DecalModelList_t,unsigned short>::Remove
$LN1@DestroyDec:

; 60   : }

	pop	edi
	pop	esi
	pop	ebx
	mov	esp, ebp
	pop	ebp
	ret	4
?DestroyDecalList@CStudioModelRenderer@@AAEXG@Z ENDP	; CStudioModelRenderer::DestroyDecalList
_TEXT	ENDS
; Function compile flags: /Odtp /ZI
; File d:\!diffusion 2020\source code 2022\client-server\client\render\r_studiodecal.cpp
;	COMDAT ?RetireDecal@CStudioModelRenderer@@AAEXAAV?$CUtlLinkedList@UDecalHistory_t@CStudioModelRenderer@@G@@@Z
_TEXT	SEGMENT
_vertsToRemove$ = -32					; size = 4
_vert$ = -28						; size = 2
_next$ = -24						; size = 2
_decalToRemove$ = -20					; size = 4
_vertices$ = -16					; size = 4
_material$ = -12					; size = 4
_decalHistory$ = -8					; size = 4
_this$ = -4						; size = 4
_historyList$ = 8					; size = 4
?RetireDecal@CStudioModelRenderer@@AAEXAAV?$CUtlLinkedList@UDecalHistory_t@CStudioModelRenderer@@G@@@Z PROC ; CStudioModelRenderer::RetireDecal, COMDAT
; _this$ = ecx

; 971  : {

	push	ebp
	mov	ebp, esp
	sub	esp, 96					; 00000060H
	push	ebx
	push	esi
	push	edi
	mov	DWORD PTR _this$[ebp], ecx

; 972  : 	assert( historyList.Count() );

	mov	ecx, DWORD PTR _historyList$[ebp]
	call	?Count@?$CUtlLinkedList@UDecalHistory_t@CStudioModelRenderer@@G@@QBEHXZ ; CUtlLinkedList<CStudioModelRenderer::DecalHistory_t,unsigned short>::Count
	test	eax, eax
	jne	SHORT $LN5@RetireDeca
	mov	eax, DWORD PTR ?__LINE__Var@?0??RetireDecal@CStudioModelRenderer@@AAEXAAV?$CUtlLinkedList@UDecalHistory_t@CStudioModelRenderer@@G@@@Z@4JA
	add	eax, 1
	push	eax
	push	OFFSET ??_C@_1KE@KAKKLNNK@?$AAd?$AA?3?$AA?2?$AA?$CB?$AAd?$AAi?$AAf?$AAf?$AAu?$AAs?$AAi?$AAo?$AAn?$AA?5?$AA2?$AA0?$AA2?$AA0?$AA?2?$AAs?$AAo?$AAu?$AAr?$AAc?$AAe?$AA?5?$AAc?$AAo?$AAd?$AAe?$AA?5?$AA2@
	push	OFFSET ??_C@_1CI@PBOFKNGE@?$AAh?$AAi?$AAs?$AAt?$AAo?$AAr?$AAy?$AAL?$AAi?$AAs?$AAt?$AA?4?$AAC?$AAo?$AAu?$AAn?$AAt?$AA?$CI?$AA?$CJ?$AA?$AA@
	call	__wassert
	add	esp, 12					; 0000000cH
$LN5@RetireDeca:

; 973  : 	DecalHistory_t& decalHistory = historyList[ historyList.Head() ];

	mov	ecx, DWORD PTR _historyList$[ebp]
	call	?Head@?$CUtlLinkedList@UDecalHistory_t@CStudioModelRenderer@@G@@QBEGXZ ; CUtlLinkedList<CStudioModelRenderer::DecalHistory_t,unsigned short>::Head
	movzx	eax, ax
	push	eax
	mov	ecx, DWORD PTR _historyList$[ebp]
	call	??A?$CUtlLinkedList@UDecalHistory_t@CStudioModelRenderer@@G@@QAEAAUDecalHistory_t@CStudioModelRenderer@@G@Z ; CUtlLinkedList<CStudioModelRenderer::DecalHistory_t,unsigned short>::operator[]
	mov	DWORD PTR _decalHistory$[ebp], eax

; 974  : 
; 975  : 	// Find the decal material for the decal to remove
; 976  : 	DecalMaterial_t& material = m_DecalMaterial[decalHistory.m_Material];

	mov	eax, DWORD PTR _decalHistory$[ebp]
	movzx	ecx, WORD PTR [eax]
	push	ecx
	mov	ecx, DWORD PTR _this$[ebp]
	add	ecx, 8
	call	??A?$CUtlLinkedList@UDecalMaterial_t@CStudioModelRenderer@@G@@QAEAAUDecalMaterial_t@CStudioModelRenderer@@G@Z ; CUtlLinkedList<CStudioModelRenderer::DecalMaterial_t,unsigned short>::operator[]
	mov	DWORD PTR _material$[ebp], eax

; 977  : 
; 978  : 	DecalVertexList_t& vertices = material.m_Vertices;

	mov	eax, DWORD PTR _material$[ebp]
	add	eax, 36					; 00000024H
	mov	DWORD PTR _vertices$[ebp], eax

; 979  : 	Decal_t& decalToRemove = material.m_Decals[decalHistory.m_Decal];

	mov	eax, DWORD PTR _decalHistory$[ebp]
	movzx	ecx, WORD PTR [eax+2]
	push	ecx
	mov	ecx, DWORD PTR _material$[ebp]
	add	ecx, 64					; 00000040H
	call	??A?$CUtlLinkedList@UDecal_t@CStudioModelRenderer@@G@@QAEAAUDecal_t@CStudioModelRenderer@@G@Z ; CUtlLinkedList<CStudioModelRenderer::Decal_t,unsigned short>::operator[]
	mov	DWORD PTR _decalToRemove$[ebp], eax

; 980  : 	
; 981  : 	// Now clear out the vertices referenced by the indices....
; 982  : 	word next, vert = vertices.Head();

	mov	ecx, DWORD PTR _vertices$[ebp]
	call	?Head@?$CUtlLinkedList@UDecalVertex_t@@G@@QBEGXZ ; CUtlLinkedList<DecalVertex_t,unsigned short>::Head
	mov	WORD PTR _vert$[ebp], ax

; 983  : 	assert( vertices.Count() >= decalToRemove.m_VertexCount );

	mov	ecx, DWORD PTR _vertices$[ebp]
	call	?Count@?$CUtlLinkedList@UDecalVertex_t@@G@@QBEHXZ ; CUtlLinkedList<DecalVertex_t,unsigned short>::Count
	mov	ecx, DWORD PTR _decalToRemove$[ebp]
	cmp	eax, DWORD PTR [ecx+4]
	jge	SHORT $LN6@RetireDeca
	mov	edx, DWORD PTR ?__LINE__Var@?0??RetireDecal@CStudioModelRenderer@@AAEXAAV?$CUtlLinkedList@UDecalHistory_t@CStudioModelRenderer@@G@@@Z@4JA
	add	edx, 12					; 0000000cH
	push	edx
	push	OFFSET ??_C@_1KE@KAKKLNNK@?$AAd?$AA?3?$AA?2?$AA?$CB?$AAd?$AAi?$AAf?$AAf?$AAu?$AAs?$AAi?$AAo?$AAn?$AA?5?$AA2?$AA0?$AA2?$AA0?$AA?2?$AAs?$AAo?$AAu?$AAr?$AAc?$AAe?$AA?5?$AAc?$AAo?$AAd?$AAe?$AA?5?$AA2@
	push	OFFSET ??_C@_1GA@NBLFBMKE@?$AAv?$AAe?$AAr?$AAt?$AAi?$AAc?$AAe?$AAs?$AA?4?$AAC?$AAo?$AAu?$AAn?$AAt?$AA?$CI?$AA?$CJ?$AA?5?$AA?$DO?$AA?$DN?$AA?5?$AAd?$AAe?$AAc?$AAa?$AAl?$AAT?$AAo?$AAR?$AAe?$AAm?$AAo?$AAv@
	call	__wassert
	add	esp, 12					; 0000000cH
$LN6@RetireDeca:

; 984  : 
; 985  : 	int vertsToRemove = decalToRemove.m_VertexCount;

	mov	eax, DWORD PTR _decalToRemove$[ebp]
	mov	ecx, DWORD PTR [eax+4]
	mov	DWORD PTR _vertsToRemove$[ebp], ecx
$LN2@RetireDeca:

; 986  : 
; 987  : 	while( vertsToRemove > 0 )

	cmp	DWORD PTR _vertsToRemove$[ebp], 0
	jle	SHORT $LN3@RetireDeca

; 988  : 	{
; 989  : 		// blat out the vertices
; 990  : 		next = vertices.Next( vert );

	movzx	eax, WORD PTR _vert$[ebp]
	push	eax
	mov	ecx, DWORD PTR _vertices$[ebp]
	call	?Next@?$CUtlLinkedList@UDecalVertex_t@@G@@QBEGG@Z ; CUtlLinkedList<DecalVertex_t,unsigned short>::Next
	mov	WORD PTR _next$[ebp], ax

; 991  : 		vertices.Remove( vert );

	movzx	eax, WORD PTR _vert$[ebp]
	push	eax
	mov	ecx, DWORD PTR _vertices$[ebp]
	call	?Remove@?$CUtlLinkedList@UDecalVertex_t@@G@@QAEXG@Z ; CUtlLinkedList<DecalVertex_t,unsigned short>::Remove

; 992  : 		vertsToRemove--;

	mov	eax, DWORD PTR _vertsToRemove$[ebp]
	sub	eax, 1
	mov	DWORD PTR _vertsToRemove$[ebp], eax

; 993  : 		vert = next;

	mov	ax, WORD PTR _next$[ebp]
	mov	WORD PTR _vert$[ebp], ax

; 994  : 	}

	jmp	SHORT $LN2@RetireDeca
$LN3@RetireDeca:

; 995  : 
; 996  : 	material.m_Indices.RemoveMultiple( 0, decalToRemove.m_IndexCount );

	mov	eax, DWORD PTR _decalToRemove$[ebp]
	mov	ecx, DWORD PTR [eax]
	push	ecx
	push	0
	mov	ecx, DWORD PTR _material$[ebp]
	add	ecx, 16					; 00000010H
	call	?RemoveMultiple@?$CUtlArray@GV?$CUtlMemory@GH@@@@QAEXHH@Z ; CUtlArray<unsigned short,CUtlMemory<unsigned short,int> >::RemoveMultiple

; 997  : 
; 998  : 	// Remove the decal
; 999  : 	material.m_Decals.Remove( decalHistory.m_Decal );

	mov	eax, DWORD PTR _decalHistory$[ebp]
	movzx	ecx, WORD PTR [eax+2]
	push	ecx
	mov	ecx, DWORD PTR _material$[ebp]
	add	ecx, 64					; 00000040H
	call	?Remove@?$CUtlLinkedList@UDecal_t@CStudioModelRenderer@@G@@QAEXG@Z ; CUtlLinkedList<CStudioModelRenderer::Decal_t,unsigned short>::Remove

; 1000 : 
; 1001 : 	// Clear the decal out of the history
; 1002 : 	historyList.Remove( historyList.Head() );

	mov	ecx, DWORD PTR _historyList$[ebp]
	call	?Head@?$CUtlLinkedList@UDecalHistory_t@CStudioModelRenderer@@G@@QBEGXZ ; CUtlLinkedList<CStudioModelRenderer::DecalHistory_t,unsigned short>::Head
	movzx	eax, ax
	push	eax
	mov	ecx, DWORD PTR _historyList$[ebp]
	call	?Remove@?$CUtlLinkedList@UDecalHistory_t@CStudioModelRenderer@@G@@QAEXG@Z ; CUtlLinkedList<CStudioModelRenderer::DecalHistory_t,unsigned short>::Remove

; 1003 : }

	pop	edi
	pop	esi
	pop	ebx
	mov	esp, ebp
	pop	ebp
	ret	4
?RetireDecal@CStudioModelRenderer@@AAEXAAV?$CUtlLinkedList@UDecalHistory_t@CStudioModelRenderer@@G@@@Z ENDP ; CStudioModelRenderer::RetireDecal
_TEXT	ENDS
; Function compile flags: /Odtp /ZI
; File d:\!diffusion 2020\source code 2022\client-server\client\render\r_studiodecal.cpp
;	COMDAT ?AddDecalToMaterialList@CStudioModelRenderer@@AAEHPAUDecalMaterial_t@1@@Z
_TEXT	SEGMENT
_decalList$ = -8					; size = 4
_this$ = -4						; size = 4
_pMaterial$ = 8						; size = 4
?AddDecalToMaterialList@CStudioModelRenderer@@AAEHPAUDecalMaterial_t@1@@Z PROC ; CStudioModelRenderer::AddDecalToMaterialList, COMDAT
; _this$ = ecx

; 1012 : {

	push	ebp
	mov	ebp, esp
	sub	esp, 72					; 00000048H
	push	ebx
	push	esi
	push	edi
	mov	DWORD PTR _this$[ebp], ecx

; 1013 : 	DecalList_t& decalList = pMaterial->m_Decals;

	mov	eax, DWORD PTR _pMaterial$[ebp]
	add	eax, 64					; 00000040H
	mov	DWORD PTR _decalList$[ebp], eax

; 1014 : 	return decalList.AddToTail();

	mov	ecx, DWORD PTR _decalList$[ebp]
	call	?AddToTail@?$CUtlLinkedList@UDecal_t@CStudioModelRenderer@@G@@QAEGXZ ; CUtlLinkedList<CStudioModelRenderer::Decal_t,unsigned short>::AddToTail
	movzx	eax, ax

; 1015 : }

	pop	edi
	pop	esi
	pop	ebx
	mov	esp, ebp
	pop	ebp
	ret	4
?AddDecalToMaterialList@CStudioModelRenderer@@AAEHPAUDecalMaterial_t@1@@Z ENDP ; CStudioModelRenderer::AddDecalToMaterialList
_TEXT	ENDS
; Function compile flags: /Odtp /ZI
; File d:\!diffusion 2020\source code 2022\client-server\client\render\r_studiodecal.cpp
;	COMDAT ?CreateDecalForMaterial@CStudioModelRenderer@@AAEXAAUDecalBuildInfo_t@1@@Z
_TEXT	SEGMENT
_h$1 = -24						; size = 4
_decal$2 = -20						; size = 4
_decalIndex$3 = -16					; size = 4
_list$4 = -12						; size = 4
_decalIndexCount$5 = -8					; size = 4
_this$ = -4						; size = 4
_buildInfo$ = 8						; size = 4
?CreateDecalForMaterial@CStudioModelRenderer@@AAEXAAUDecalBuildInfo_t@1@@Z PROC ; CStudioModelRenderer::CreateDecalForMaterial, COMDAT
; _this$ = ecx

; 892  : {

	push	ebp
	mov	ebp, esp
	sub	esp, 88					; 00000058H
	push	ebx
	push	esi
	push	edi
	mov	DWORD PTR _this$[ebp], ecx

; 893  : 	// add this to the list of decals in this material
; 894  : 	if( buildInfo.m_VertexCount && buildInfo.m_iDecalMaterial != -1 && buildInfo.m_pDecalMaterial != NULL )

	mov	eax, DWORD PTR _buildInfo$[ebp]
	movzx	ecx, WORD PTR [eax+82]
	test	ecx, ecx
	je	$LN1@CreateDeca
	mov	eax, DWORD PTR _buildInfo$[ebp]
	cmp	DWORD PTR [eax], -1
	je	$LN1@CreateDeca
	mov	eax, DWORD PTR _buildInfo$[ebp]
	cmp	DWORD PTR [eax+60], 0
	je	$LN1@CreateDeca

; 895  : 	{
; 896  : 		int decalIndexCount = buildInfo.m_pDecalMaterial->m_Indices.Count() - buildInfo.m_PrevIndexCount;

	mov	eax, DWORD PTR _buildInfo$[ebp]
	mov	ecx, DWORD PTR [eax+60]
	add	ecx, 16					; 00000010H
	call	?Count@?$CUtlArray@GV?$CUtlMemory@GH@@@@QBEHXZ ; CUtlArray<unsigned short,CUtlMemory<unsigned short,int> >::Count
	mov	ecx, DWORD PTR _buildInfo$[ebp]
	sub	eax, DWORD PTR [ecx+84]
	mov	DWORD PTR _decalIndexCount$5[ebp], eax

; 897  : 		DecalModelList_t& list = m_DecalList[m_pModelInstance->m_DecalHandle];

	mov	eax, DWORD PTR _this$[ebp]
	mov	ecx, DWORD PTR [eax+19112]
	movzx	edx, WORD PTR [ecx+8]
	push	edx
	mov	ecx, DWORD PTR _this$[ebp]
	add	ecx, 36					; 00000024H
	call	??A?$CUtlLinkedList@UDecalModelList_t@CStudioModelRenderer@@G@@QAEAAUDecalModelList_t@CStudioModelRenderer@@G@Z ; CUtlLinkedList<CStudioModelRenderer::DecalModelList_t,unsigned short>::operator[]
	mov	DWORD PTR _list$4[ebp], eax

; 898  : 		ASSERT( decalIndexCount > 0 );

	cmp	DWORD PTR _decalIndexCount$5[ebp], 0
	jg	SHORT $LN3@CreateDeca
	mov	eax, DWORD PTR ?__LINE__Var@?0??CreateDecalForMaterial@CStudioModelRenderer@@AAEXAAUDecalBuildInfo_t@2@@Z@4JA
	add	eax, 6
	push	eax
	push	OFFSET ??_C@_0FC@KDOHJOI@d?3?2?$CBdiffusion?52020?2source?5code?52@
	push	OFFSET ??_C@_0BI@FECCGOFJ@assert?5failed?5at?5?$CFs?3?$CFi?6?$AA@
	call	DWORD PTR ?gRenderfuncs@@3Urender_api_s@@A+236
	add	esp, 12					; 0000000cH
$LN3@CreateDeca:

; 899  : 
; 900  : 		int decalIndex = AddDecalToMaterialList( buildInfo.m_pDecalMaterial );

	mov	eax, DWORD PTR _buildInfo$[ebp]
	mov	ecx, DWORD PTR [eax+60]
	push	ecx
	mov	ecx, DWORD PTR _this$[ebp]
	call	?AddDecalToMaterialList@CStudioModelRenderer@@AAEHPAUDecalMaterial_t@1@@Z ; CStudioModelRenderer::AddDecalToMaterialList
	mov	DWORD PTR _decalIndex$3[ebp], eax

; 901  : 		Decal_t& decal = buildInfo.m_pDecalMaterial->m_Decals[decalIndex];

	movzx	eax, WORD PTR _decalIndex$3[ebp]
	push	eax
	mov	ecx, DWORD PTR _buildInfo$[ebp]
	mov	ecx, DWORD PTR [ecx+60]
	add	ecx, 64					; 00000040H
	call	??A?$CUtlLinkedList@UDecal_t@CStudioModelRenderer@@G@@QAEAAUDecal_t@CStudioModelRenderer@@G@Z ; CUtlLinkedList<CStudioModelRenderer::Decal_t,unsigned short>::operator[]
	mov	DWORD PTR _decal$2[ebp], eax

; 902  : 		decal.m_VertexCount = buildInfo.m_VertexCount;

	mov	eax, DWORD PTR _buildInfo$[ebp]
	movzx	ecx, WORD PTR [eax+82]
	mov	edx, DWORD PTR _decal$2[ebp]
	mov	DWORD PTR [edx+4], ecx

; 903  : 		decal.m_IndexCount = decalIndexCount;

	mov	eax, DWORD PTR _decal$2[ebp]
	mov	ecx, DWORD PTR _decalIndexCount$5[ebp]
	mov	DWORD PTR [eax], ecx

; 904  : 
; 905  : 		decal.state = *buildInfo.modelState;

	mov	eax, DWORD PTR _buildInfo$[ebp]
	mov	edi, DWORD PTR _decal$2[ebp]
	add	edi, 8
	mov	ecx, 7
	mov	esi, DWORD PTR [eax+12]
	rep movsd
	movsw

; 906  : 		decal.depth = buildInfo.decalDepth;

	mov	eax, DWORD PTR _decal$2[ebp]
	mov	ecx, DWORD PTR _buildInfo$[ebp]
	mov	edx, DWORD PTR [ecx+20]
	mov	DWORD PTR [eax+40], edx

; 907  : 		decal.vecLocalStart = buildInfo.vecLocalStart;

	mov	eax, DWORD PTR _buildInfo$[ebp]
	add	eax, 24					; 00000018H
	mov	ecx, DWORD PTR _decal$2[ebp]
	add	ecx, 44					; 0000002cH
	mov	edx, DWORD PTR [eax]
	mov	DWORD PTR [ecx], edx
	mov	edx, DWORD PTR [eax+4]
	mov	DWORD PTR [ecx+4], edx
	mov	eax, DWORD PTR [eax+8]
	mov	DWORD PTR [ecx+8], eax

; 908  : 		decal.vecLocalEnd = buildInfo.vecLocalEnd;

	mov	eax, DWORD PTR _buildInfo$[ebp]
	add	eax, 36					; 00000024H
	mov	ecx, DWORD PTR _decal$2[ebp]
	add	ecx, 56					; 00000038H
	mov	edx, DWORD PTR [eax]
	mov	DWORD PTR [ecx], edx
	mov	edx, DWORD PTR [eax+4]
	mov	DWORD PTR [ecx+4], edx
	mov	eax, DWORD PTR [eax+8]
	mov	DWORD PTR [ecx+8], eax

; 909  : 		decal.flags = buildInfo.decalFlags;

	mov	eax, DWORD PTR _decal$2[ebp]
	mov	ecx, DWORD PTR _buildInfo$[ebp]
	mov	dl, BYTE PTR [ecx+48]
	mov	BYTE PTR [eax+68], dl

; 910  : 
; 911  : 		// Add this decal to the history...
; 912  : 		int h = list.m_DecalHistory.AddToTail();

	mov	ecx, DWORD PTR _list$4[ebp]
	add	ecx, 4
	call	?AddToTail@?$CUtlLinkedList@UDecalHistory_t@CStudioModelRenderer@@G@@QAEGXZ ; CUtlLinkedList<CStudioModelRenderer::DecalHistory_t,unsigned short>::AddToTail
	movzx	eax, ax
	mov	DWORD PTR _h$1[ebp], eax

; 913  : 		list.m_DecalHistory[h].m_Material = buildInfo.m_iDecalMaterial;

	movzx	eax, WORD PTR _h$1[ebp]
	push	eax
	mov	ecx, DWORD PTR _list$4[ebp]
	add	ecx, 4
	call	??A?$CUtlLinkedList@UDecalHistory_t@CStudioModelRenderer@@G@@QAEAAUDecalHistory_t@CStudioModelRenderer@@G@Z ; CUtlLinkedList<CStudioModelRenderer::DecalHistory_t,unsigned short>::operator[]
	mov	ecx, DWORD PTR _buildInfo$[ebp]
	mov	dx, WORD PTR [ecx]
	mov	WORD PTR [eax], dx

; 914  : 		list.m_DecalHistory[h].m_Decal = decalIndex;

	movzx	eax, WORD PTR _h$1[ebp]
	push	eax
	mov	ecx, DWORD PTR _list$4[ebp]
	add	ecx, 4
	call	??A?$CUtlLinkedList@UDecalHistory_t@CStudioModelRenderer@@G@@QAEAAUDecalHistory_t@CStudioModelRenderer@@G@Z ; CUtlLinkedList<CStudioModelRenderer::DecalHistory_t,unsigned short>::operator[]
	mov	cx, WORD PTR _decalIndex$3[ebp]
	mov	WORD PTR [eax+2], cx
$LN1@CreateDeca:

; 915  : 	}
; 916  : }

	pop	edi
	pop	esi
	pop	ebx
	mov	esp, ebp
	pop	ebp
	ret	4
?CreateDecalForMaterial@CStudioModelRenderer@@AAEXAAUDecalBuildInfo_t@1@@Z ENDP ; CStudioModelRenderer::CreateDecalForMaterial
_TEXT	ENDS
; Function compile flags: /Odtp /ZI
; File d:\!diffusion 2020\source code 2022\client-server\client\render\r_studiodecal.cpp
;	COMDAT ?ShouldRetireDecal@CStudioModelRenderer@@AAE_NPAUDecalMaterial_t@1@ABV?$CUtlLinkedList@UDecalHistory_t@CStudioModelRenderer@@G@@@Z
_TEXT	SEGMENT
tv71 = -72						; size = 4
_this$ = -4						; size = 4
_pDecalMaterial$ = 8					; size = 4
_decalHistory$ = 12					; size = 4
?ShouldRetireDecal@CStudioModelRenderer@@AAE_NPAUDecalMaterial_t@1@ABV?$CUtlLinkedList@UDecalHistory_t@CStudioModelRenderer@@G@@@Z PROC ; CStudioModelRenderer::ShouldRetireDecal, COMDAT
; _this$ = ecx

; 1006 : {

	push	ebp
	mov	ebp, esp
	sub	esp, 72					; 00000048H
	push	ebx
	push	esi
	push	edi
	mov	DWORD PTR _this$[ebp], ecx

; 1007 : 	// Check to see if we should retire the decal
; 1008 : 	return ( decalHistory.Count() >= 50 ) || ( pDecalMaterial->m_Indices.Count() > 2048 );

	mov	ecx, DWORD PTR _decalHistory$[ebp]
	call	?Count@?$CUtlLinkedList@UDecalHistory_t@CStudioModelRenderer@@G@@QBEHXZ ; CUtlLinkedList<CStudioModelRenderer::DecalHistory_t,unsigned short>::Count
	cmp	eax, 50					; 00000032H
	jge	SHORT $LN3@ShouldReti
	mov	ecx, DWORD PTR _pDecalMaterial$[ebp]
	add	ecx, 16					; 00000010H
	call	?Count@?$CUtlArray@GV?$CUtlMemory@GH@@@@QBEHXZ ; CUtlArray<unsigned short,CUtlMemory<unsigned short,int> >::Count
	cmp	eax, 2048				; 00000800H
	jg	SHORT $LN3@ShouldReti
	mov	DWORD PTR tv71[ebp], 0
	jmp	SHORT $LN4@ShouldReti
$LN3@ShouldReti:
	mov	DWORD PTR tv71[ebp], 1
$LN4@ShouldReti:
	mov	al, BYTE PTR tv71[ebp]

; 1009 : }

	pop	edi
	pop	esi
	pop	ebx
	mov	esp, ebp
	pop	ebp
	ret	8
?ShouldRetireDecal@CStudioModelRenderer@@AAE_NPAUDecalMaterial_t@1@ABV?$CUtlLinkedList@UDecalHistory_t@CStudioModelRenderer@@G@@@Z ENDP ; CStudioModelRenderer::ShouldRetireDecal
_TEXT	ENDS
; Function compile flags: /Odtp /ZI
; File d:\!diffusion 2020\source code 2022\client-server\client\render\r_studiodecal.cpp
;	COMDAT ?GetDecalMaterial@CStudioModelRenderer@@AAEHAAUDecalModelList_t@1@HPAUmstudiomat_s@@_N@Z
_TEXT	SEGMENT
tv174 = -88						; size = 4
_pdecal$1 = -20						; size = 4
_j$ = -16						; size = 2
_hProgram$ = -12					; size = 2
_modelTexture$ = -8					; size = 4
_this$ = -4						; size = 4
_decalList$ = 8						; size = 4
_decalTexture$ = 12					; size = 4
_mat$ = 16						; size = 4
_create$ = 20						; size = 1
?GetDecalMaterial@CStudioModelRenderer@@AAEHAAUDecalModelList_t@1@HPAUmstudiomat_s@@_N@Z PROC ; CStudioModelRenderer::GetDecalMaterial, COMDAT
; _this$ = ecx

; 922  : {

	push	ebp
	mov	ebp, esp
	sub	esp, 88					; 00000058H
	push	ebx
	push	esi
	push	edi
	mov	DWORD PTR _this$[ebp], ecx

; 923  : 	// first we need to determine model texture, because we only require textures for alpha and solid modes.
; 924  : 	// otherwise we can use stub like '*whiteTexture' to prevent produce multiple materials
; 925  : 	int modelTexture = tr.whiteTexture;

	mov	eax, DWORD PTR ?tr@@3Uref_globals_t@@A+32
	mov	DWORD PTR _modelTexture$[ebp], eax

; 926  : 
; 927  : 	if( FBitSet( mat->flags, STUDIO_NF_MASKED|STUDIO_NF_HAS_ALPHA ))

	mov	eax, DWORD PTR _mat$[ebp]
	mov	ecx, DWORD PTR [eax+8]
	and	ecx, 524352				; 00080040H
	je	SHORT $LN5@GetDecalMa

; 928  : 		modelTexture = mat->gl_diffuse_id;

	mov	eax, DWORD PTR _mat$[ebp]
	movzx	ecx, WORD PTR [eax+4]
	mov	DWORD PTR _modelTexture$[ebp], ecx
$LN5@GetDecalMa:

; 929  : 
; 930  : 	word hProgram = GL_UberShaderForStudioDecal( mat );

	mov	eax, DWORD PTR _mat$[ebp]
	push	eax
	call	?GL_UberShaderForStudioDecal@@YAGPAUmstudiomat_s@@@Z ; GL_UberShaderForStudioDecal
	add	esp, 4
	mov	WORD PTR _hProgram$[ebp], ax

; 931  : 
; 932  : 	if( !create && !hProgram )

	movzx	eax, BYTE PTR _create$[ebp]
	test	eax, eax
	jne	SHORT $LN6@GetDecalMa
	movzx	eax, WORD PTR _hProgram$[ebp]
	test	eax, eax
	jne	SHORT $LN6@GetDecalMa

; 933  : 		return 0xFFFF; // create a new material with invalid shader

	mov	eax, 65535				; 0000ffffH
	jmp	$LN1@GetDecalMa
$LN6@GetDecalMa:

; 934  : 
; 935  : 	word j;
; 936  : 	for( j = decalList.m_FirstMaterial; j != m_DecalMaterial.InvalidIndex(); j = m_DecalMaterial.Next( j ))

	mov	eax, DWORD PTR _decalList$[ebp]
	mov	cx, WORD PTR [eax]
	mov	WORD PTR _j$[ebp], cx
	jmp	SHORT $LN4@GetDecalMa
$LN2@GetDecalMa:
	movzx	eax, WORD PTR _j$[ebp]
	push	eax
	mov	ecx, DWORD PTR _this$[ebp]
	add	ecx, 8
	call	?Next@?$CUtlLinkedList@UDecalMaterial_t@CStudioModelRenderer@@G@@QBEGG@Z ; CUtlLinkedList<CStudioModelRenderer::DecalMaterial_t,unsigned short>::Next
	mov	WORD PTR _j$[ebp], ax
$LN4@GetDecalMa:
	movzx	esi, WORD PTR _j$[ebp]
	call	?InvalidIndex@?$CUtlLinkedList@UDecalMaterial_t@CStudioModelRenderer@@G@@SAGXZ ; CUtlLinkedList<CStudioModelRenderer::DecalMaterial_t,unsigned short>::InvalidIndex
	movzx	eax, ax
	cmp	esi, eax
	je	SHORT $LN3@GetDecalMa

; 937  : 	{
; 938  : 		DecalMaterial_t *pdecal = &m_DecalMaterial[j];

	movzx	eax, WORD PTR _j$[ebp]
	push	eax
	mov	ecx, DWORD PTR _this$[ebp]
	add	ecx, 8
	call	??A?$CUtlLinkedList@UDecalMaterial_t@CStudioModelRenderer@@G@@QAEAAUDecalMaterial_t@CStudioModelRenderer@@G@Z ; CUtlLinkedList<CStudioModelRenderer::DecalMaterial_t,unsigned short>::operator[]
	mov	DWORD PTR _pdecal$1[ebp], eax

; 939  : 
; 940  : 		if( pdecal->decalTexture == decalTexture && pdecal->modelTexture == modelTexture && pdecal->hProgram == hProgram )

	mov	eax, DWORD PTR _pdecal$1[ebp]
	mov	ecx, DWORD PTR [eax+4]
	cmp	ecx, DWORD PTR _decalTexture$[ebp]
	jne	SHORT $LN7@GetDecalMa
	mov	eax, DWORD PTR _pdecal$1[ebp]
	mov	ecx, DWORD PTR [eax+8]
	cmp	ecx, DWORD PTR _modelTexture$[ebp]
	jne	SHORT $LN7@GetDecalMa
	mov	eax, DWORD PTR _pdecal$1[ebp]
	movzx	ecx, WORD PTR [eax]
	movzx	edx, WORD PTR _hProgram$[ebp]
	cmp	ecx, edx
	jne	SHORT $LN7@GetDecalMa

; 941  : 		{
; 942  : 			return j;

	movzx	eax, WORD PTR _j$[ebp]
	jmp	$LN1@GetDecalMa
$LN7@GetDecalMa:

; 943  : 		}
; 944  : 	}

	jmp	SHORT $LN2@GetDecalMa
$LN3@GetDecalMa:

; 945  : 
; 946  : 	if( !create ) return 0xFFFF; // material was not found

	movzx	eax, BYTE PTR _create$[ebp]
	test	eax, eax
	jne	SHORT $LN8@GetDecalMa
	mov	eax, 65535				; 0000ffffH
	jmp	$LN1@GetDecalMa
$LN8@GetDecalMa:

; 947  : 
; 948  : 	// If we got here, this must be the first time we saw this material
; 949  : 	j = m_DecalMaterial.Alloc( true );

	push	1
	mov	ecx, DWORD PTR _this$[ebp]
	add	ecx, 8
	call	?Alloc@?$CUtlLinkedList@UDecalMaterial_t@CStudioModelRenderer@@G@@QAEG_N@Z ; CUtlLinkedList<CStudioModelRenderer::DecalMaterial_t,unsigned short>::Alloc
	mov	WORD PTR _j$[ebp], ax

; 950  : 	
; 951  : 	// Link it into the list of data
; 952  : 	if( decalList.m_FirstMaterial != m_DecalMaterial.InvalidIndex( ))

	mov	eax, DWORD PTR _decalList$[ebp]
	movzx	esi, WORD PTR [eax]
	call	?InvalidIndex@?$CUtlLinkedList@UDecalMaterial_t@CStudioModelRenderer@@G@@SAGXZ ; CUtlLinkedList<CStudioModelRenderer::DecalMaterial_t,unsigned short>::InvalidIndex
	movzx	ecx, ax
	cmp	esi, ecx
	je	SHORT $LN9@GetDecalMa

; 953  : 		m_DecalMaterial.LinkBefore( decalList.m_FirstMaterial, j );

	movzx	eax, WORD PTR _j$[ebp]
	push	eax
	mov	ecx, DWORD PTR _decalList$[ebp]
	movzx	edx, WORD PTR [ecx]
	push	edx
	mov	ecx, DWORD PTR _this$[ebp]
	add	ecx, 8
	call	?LinkBefore@?$CUtlLinkedList@UDecalMaterial_t@CStudioModelRenderer@@G@@QAEXGG@Z ; CUtlLinkedList<CStudioModelRenderer::DecalMaterial_t,unsigned short>::LinkBefore
$LN9@GetDecalMa:

; 954  : 	decalList.m_FirstMaterial = j;

	mov	eax, DWORD PTR _decalList$[ebp]
	mov	cx, WORD PTR _j$[ebp]
	mov	WORD PTR [eax], cx

; 955  : 
; 956  : 	m_DecalMaterial[j].decalTexture = decalTexture;

	movzx	eax, WORD PTR _j$[ebp]
	push	eax
	mov	ecx, DWORD PTR _this$[ebp]
	add	ecx, 8
	call	??A?$CUtlLinkedList@UDecalMaterial_t@CStudioModelRenderer@@G@@QAEAAUDecalMaterial_t@CStudioModelRenderer@@G@Z ; CUtlLinkedList<CStudioModelRenderer::DecalMaterial_t,unsigned short>::operator[]
	mov	ecx, DWORD PTR _decalTexture$[ebp]
	mov	DWORD PTR [eax+4], ecx

; 957  : 	m_DecalMaterial[j].modelTexture = modelTexture;

	movzx	eax, WORD PTR _j$[ebp]
	push	eax
	mov	ecx, DWORD PTR _this$[ebp]
	add	ecx, 8
	call	??A?$CUtlLinkedList@UDecalMaterial_t@CStudioModelRenderer@@G@@QAEAAUDecalMaterial_t@CStudioModelRenderer@@G@Z ; CUtlLinkedList<CStudioModelRenderer::DecalMaterial_t,unsigned short>::operator[]
	mov	ecx, DWORD PTR _modelTexture$[ebp]
	mov	DWORD PTR [eax+8], ecx

; 958  : 	m_DecalMaterial[j].hProgram = hProgram;

	movzx	eax, WORD PTR _j$[ebp]
	push	eax
	mov	ecx, DWORD PTR _this$[ebp]
	add	ecx, 8
	call	??A?$CUtlLinkedList@UDecalMaterial_t@CStudioModelRenderer@@G@@QAEAAUDecalMaterial_t@CStudioModelRenderer@@G@Z ; CUtlLinkedList<CStudioModelRenderer::DecalMaterial_t,unsigned short>::operator[]
	mov	cx, WORD PTR _hProgram$[ebp]
	mov	WORD PTR [eax], cx

; 959  : 	m_DecalMaterial[j].flags = mat->flags;

	movzx	eax, WORD PTR _j$[ebp]
	push	eax
	mov	ecx, DWORD PTR _this$[ebp]
	add	ecx, 8
	call	??A?$CUtlLinkedList@UDecalMaterial_t@CStudioModelRenderer@@G@@QAEAAUDecalMaterial_t@CStudioModelRenderer@@G@Z ; CUtlLinkedList<CStudioModelRenderer::DecalMaterial_t,unsigned short>::operator[]
	mov	ecx, DWORD PTR _mat$[ebp]
	mov	edx, DWORD PTR [ecx+8]
	mov	DWORD PTR [eax+12], edx

; 960  : 
; 961  : 	if( !hProgram ) // it's invalid material, disable shader

	movzx	eax, WORD PTR _hProgram$[ebp]
	test	eax, eax
	jne	SHORT $LN10@GetDecalMa

; 962  : 		m_DecalMaterial[j].flags |= STUDIO_NF_NODRAW;

	movzx	eax, WORD PTR _j$[ebp]
	push	eax
	mov	ecx, DWORD PTR _this$[ebp]
	add	ecx, 8
	call	??A?$CUtlLinkedList@UDecalMaterial_t@CStudioModelRenderer@@G@@QAEAAUDecalMaterial_t@CStudioModelRenderer@@G@Z ; CUtlLinkedList<CStudioModelRenderer::DecalMaterial_t,unsigned short>::operator[]
	add	eax, 12					; 0000000cH
	mov	DWORD PTR tv174[ebp], eax
	mov	ecx, DWORD PTR tv174[ebp]
	mov	edx, DWORD PTR [ecx]
	or	edx, 65536				; 00010000H
	mov	eax, DWORD PTR tv174[ebp]
	mov	DWORD PTR [eax], edx
$LN10@GetDecalMa:

; 963  : 
; 964  : 	return j;

	movzx	eax, WORD PTR _j$[ebp]
$LN1@GetDecalMa:

; 965  : }

	pop	edi
	pop	esi
	pop	ebx
	mov	esp, ebp
	pop	ebp
	ret	16					; 00000010H
?GetDecalMaterial@CStudioModelRenderer@@AAEHAAUDecalModelList_t@1@HPAUmstudiomat_s@@_N@Z ENDP ; CStudioModelRenderer::GetDecalMaterial
_TEXT	ENDS
; Function compile flags: /Odtp /ZI
; File d:\!diffusion 2020\source code 2022\client-server\client\render\r_studiodecal.cpp
;	COMDAT ?AddClippedDecalToTriangle@CStudioModelRenderer@@AAEXAAUDecalBuildInfo_t@1@AAUDecalClipState_t@@@Z
_TEXT	SEGMENT
_vertIdx$1 = -32					; size = 4
_indices$ = -28						; size = 14
_i$ = -12						; size = 4
_this$ = -8						; size = 4
__$ArrayPad$ = -4					; size = 4
_build$ = 8						; size = 4
_clipState$ = 12					; size = 4
?AddClippedDecalToTriangle@CStudioModelRenderer@@AAEXAAUDecalBuildInfo_t@1@AAUDecalClipState_t@@@Z PROC ; CStudioModelRenderer::AddClippedDecalToTriangle, COMDAT
; _this$ = ecx

; 474  : {

	push	ebp
	mov	ebp, esp
	sub	esp, 96					; 00000060H
	mov	eax, DWORD PTR ___security_cookie
	xor	eax, ebp
	mov	DWORD PTR __$ArrayPad$[ebp], eax
	push	ebx
	push	esi
	push	edi
	mov	DWORD PTR _this$[ebp], ecx

; 475  : 	ASSERT( clipState.m_VertCount <= 7 );

	mov	eax, DWORD PTR _clipState$[ebp]
	cmp	DWORD PTR [eax], 7
	jle	SHORT $LN8@AddClipped
	mov	eax, DWORD PTR ?__LINE__Var@?0??AddClippedDecalToTriangle@CStudioModelRenderer@@AAEXAAUDecalBuildInfo_t@2@AAUDecalClipState_t@@@Z@4JA
	add	eax, 1
	push	eax
	push	OFFSET ??_C@_0FC@KDOHJOI@d?3?2?$CBdiffusion?52020?2source?5code?52@
	push	OFFSET ??_C@_0BI@FECCGOFJ@assert?5failed?5at?5?$CFs?3?$CFi?6?$AA@
	call	DWORD PTR ?gRenderfuncs@@3Urender_api_s@@A+236
	add	esp, 12					; 0000000cH
$LN8@AddClipped:

; 476  : 
; 477  : 	// Yeah baby yeah!!	Add this sucka
; 478  : 	int i;
; 479  : 	word indices[7];
; 480  : 	for( i = 0; i < clipState.m_VertCount; i++ )

	mov	DWORD PTR _i$[ebp], 0
	jmp	SHORT $LN4@AddClipped
$LN2@AddClipped:
	mov	eax, DWORD PTR _i$[ebp]
	add	eax, 1
	mov	DWORD PTR _i$[ebp], eax
$LN4@AddClipped:
	mov	eax, DWORD PTR _clipState$[ebp]
	mov	ecx, DWORD PTR _i$[ebp]
	cmp	ecx, DWORD PTR [eax]
	jge	SHORT $LN3@AddClipped

; 481  : 	{
; 482  : 		// First add the vertices
; 483  : 		int vertIdx = clipState.m_Indices[clipState.m_Pass][i];

	mov	eax, DWORD PTR _clipState$[ebp]
	movzx	ecx, BYTE PTR [eax+60]
	imul	edx, ecx, 28
	mov	eax, DWORD PTR _clipState$[ebp]
	lea	ecx, DWORD PTR [eax+edx+4]
	mov	edx, DWORD PTR _i$[ebp]
	mov	eax, DWORD PTR [ecx+edx*4]
	mov	DWORD PTR _vertIdx$1[ebp], eax

; 484  : 
; 485  : 		if( vertIdx < 3 )

	cmp	DWORD PTR _vertIdx$1[ebp], 3
	jge	SHORT $LN9@AddClipped

; 486  : 		{
; 487  : 			indices[i] = AddVertexToDecal( build, clipState.m_ClipVerts[vertIdx].m_MeshVertexIndex );

	mov	eax, DWORD PTR _vertIdx$1[ebp]
	shl	eax, 6
	mov	ecx, DWORD PTR _clipState$[ebp]
	movzx	edx, WORD PTR [ecx+eax+128]
	push	edx
	mov	eax, DWORD PTR _build$[ebp]
	push	eax
	mov	ecx, DWORD PTR _this$[ebp]
	call	?AddVertexToDecal@CStudioModelRenderer@@AAEGAAUDecalBuildInfo_t@1@H@Z ; CStudioModelRenderer::AddVertexToDecal
	mov	ecx, DWORD PTR _i$[ebp]
	mov	WORD PTR _indices$[ebp+ecx*2], ax

; 488  : 		}
; 489  : 		else

	jmp	SHORT $LN10@AddClipped
$LN9@AddClipped:

; 490  : 		{
; 491  : 			indices[i] = AddVertexToDecal( build, clipState.m_ClipVerts[vertIdx] );

	mov	eax, DWORD PTR _vertIdx$1[ebp]
	shl	eax, 6
	mov	ecx, DWORD PTR _clipState$[ebp]
	lea	edx, DWORD PTR [ecx+eax+68]
	push	edx
	mov	eax, DWORD PTR _build$[ebp]
	push	eax
	mov	ecx, DWORD PTR _this$[ebp]
	call	?AddVertexToDecal@CStudioModelRenderer@@AAEGAAUDecalBuildInfo_t@1@AAUDecalVertex_t@@@Z ; CStudioModelRenderer::AddVertexToDecal
	mov	ecx, DWORD PTR _i$[ebp]
	mov	WORD PTR _indices$[ebp+ecx*2], ax
$LN10@AddClipped:

; 492  : 		}
; 493  : 	}

	jmp	SHORT $LN2@AddClipped
$LN3@AddClipped:

; 494  : 
; 495  : 	// Add a trifan worth of triangles
; 496  : 	for( i = 1; i < clipState.m_VertCount - 1; i++ )

	mov	DWORD PTR _i$[ebp], 1
	jmp	SHORT $LN7@AddClipped
$LN5@AddClipped:
	mov	eax, DWORD PTR _i$[ebp]
	add	eax, 1
	mov	DWORD PTR _i$[ebp], eax
$LN7@AddClipped:
	mov	eax, DWORD PTR _clipState$[ebp]
	mov	ecx, DWORD PTR [eax]
	sub	ecx, 1
	cmp	DWORD PTR _i$[ebp], ecx
	jge	SHORT $LN1@AddClipped

; 497  : 	{
; 498  : 		build.m_pDecalMaterial->m_Indices.AddToTail( indices[0] );

	mov	eax, 2
	imul	ecx, eax, 0
	lea	edx, DWORD PTR _indices$[ebp+ecx]
	push	edx
	mov	eax, DWORD PTR _build$[ebp]
	mov	ecx, DWORD PTR [eax+60]
	add	ecx, 16					; 00000010H
	call	?AddToTail@?$CUtlArray@GV?$CUtlMemory@GH@@@@QAEHABG@Z ; CUtlArray<unsigned short,CUtlMemory<unsigned short,int> >::AddToTail

; 499  : 		build.m_pDecalMaterial->m_Indices.AddToTail( indices[i] );

	mov	eax, DWORD PTR _i$[ebp]
	lea	ecx, DWORD PTR _indices$[ebp+eax*2]
	push	ecx
	mov	edx, DWORD PTR _build$[ebp]
	mov	ecx, DWORD PTR [edx+60]
	add	ecx, 16					; 00000010H
	call	?AddToTail@?$CUtlArray@GV?$CUtlMemory@GH@@@@QAEHABG@Z ; CUtlArray<unsigned short,CUtlMemory<unsigned short,int> >::AddToTail

; 500  : 		build.m_pDecalMaterial->m_Indices.AddToTail( indices[i+1] );

	mov	eax, DWORD PTR _i$[ebp]
	lea	ecx, DWORD PTR _indices$[ebp+eax*2+2]
	push	ecx
	mov	edx, DWORD PTR _build$[ebp]
	mov	ecx, DWORD PTR [edx+60]
	add	ecx, 16					; 00000010H
	call	?AddToTail@?$CUtlArray@GV?$CUtlMemory@GH@@@@QAEHABG@Z ; CUtlArray<unsigned short,CUtlMemory<unsigned short,int> >::AddToTail

; 501  : 	}

	jmp	SHORT $LN5@AddClipped
$LN1@AddClipped:

; 502  : }

	pop	edi
	pop	esi
	pop	ebx
	mov	ecx, DWORD PTR __$ArrayPad$[ebp]
	xor	ecx, ebp
	call	@__security_check_cookie@4
	mov	esp, ebp
	pop	ebp
	ret	8
?AddClippedDecalToTriangle@CStudioModelRenderer@@AAEXAAUDecalBuildInfo_t@1@AAUDecalClipState_t@@@Z ENDP ; CStudioModelRenderer::AddClippedDecalToTriangle
_TEXT	ENDS
; Function compile flags: /Odtp /ZI
; File d:\!diffusion 2020\source code 2022\client-server\client\render\r_studiodecal.cpp
;	COMDAT ?AddVertexToDecal@CStudioModelRenderer@@AAEGAAUDecalBuildInfo_t@1@AAUDecalVertex_t@@@Z
_TEXT	SEGMENT
tv317 = -116						; size = 8
tv310 = -116						; size = 8
tv303 = -116						; size = 8
tv282 = -116						; size = 8
tv275 = -116						; size = 8
tv268 = -116						; size = 8
tv238 = -110						; size = 2
$T1 = -108						; size = 12
_idx$ = -32						; size = 2
_temp$2 = -28						; size = 12
_i$3 = -16						; size = 2
_vertexCount$ = -12					; size = 2
_decalVertexList$ = -8					; size = 4
_this$ = -4						; size = 4
_build$ = 8						; size = 4
_vert$ = 12						; size = 4
?AddVertexToDecal@CStudioModelRenderer@@AAEGAAUDecalBuildInfo_t@1@AAUDecalVertex_t@@@Z PROC ; CStudioModelRenderer::AddVertexToDecal, COMDAT
; _this$ = ecx

; 429  : {

	push	ebp
	mov	ebp, esp
	sub	esp, 116				; 00000074H
	push	ebx
	push	esi
	push	edi
	mov	DWORD PTR _this$[ebp], ecx

; 430  : 	// This creates a unique vertex
; 431  : 	DecalVertexList_t& decalVertexList = build.m_pDecalMaterial->m_Vertices;

	mov	eax, DWORD PTR _build$[ebp]
	mov	ecx, DWORD PTR [eax+60]
	add	ecx, 36					; 00000024H
	mov	DWORD PTR _decalVertexList$[ebp], ecx

; 432  : 
; 433  : 	// Try to see if the clipped vertex already exists in our decal list...
; 434  : 	// Only search for matches with verts appearing in the current decal
; 435  : 	word vertexCount = 0;

	xor	eax, eax
	mov	WORD PTR _vertexCount$[ebp], ax

; 436  : 
; 437  : 	for( word i = build.m_FirstVertex; i != decalVertexList.InvalidIndex(); i = decalVertexList.Next(i), ++vertexCount )

	mov	eax, DWORD PTR _build$[ebp]
	mov	cx, WORD PTR [eax+80]
	mov	WORD PTR _i$3[ebp], cx
	jmp	SHORT $LN4@AddVertexT
$LN2@AddVertexT:
	movzx	eax, WORD PTR _i$3[ebp]
	push	eax
	mov	ecx, DWORD PTR _decalVertexList$[ebp]
	call	?Next@?$CUtlLinkedList@UDecalVertex_t@@G@@QBEGG@Z ; CUtlLinkedList<DecalVertex_t,unsigned short>::Next
	mov	WORD PTR _i$3[ebp], ax
	mov	cx, WORD PTR _vertexCount$[ebp]
	add	cx, 1
	mov	WORD PTR _vertexCount$[ebp], cx
$LN4@AddVertexT:
	movzx	esi, WORD PTR _i$3[ebp]
	call	?InvalidIndex@?$CUtlLinkedList@UDecalVertex_t@@G@@SAGXZ ; CUtlLinkedList<DecalVertex_t,unsigned short>::InvalidIndex
	movzx	eax, ax
	cmp	esi, eax
	je	$LN3@AddVertexT

; 438  : 	{
; 439  : 		// Only bother to check against clipped vertices
; 440  : 		if( decalVertexList[i].m_MeshVertexIndex != INVALID_HANDLE )

	movzx	eax, WORD PTR _i$3[ebp]
	push	eax
	mov	ecx, DWORD PTR _decalVertexList$[ebp]
	call	??A?$CUtlLinkedList@UDecalVertex_t@@G@@QAEAAUDecalVertex_t@@G@Z ; CUtlLinkedList<DecalVertex_t,unsigned short>::operator[]
	movzx	ecx, WORD PTR [eax+60]
	cmp	ecx, 65535				; 0000ffffH
	je	SHORT $LN5@AddVertexT

; 441  : 			continue;

	jmp	SHORT $LN2@AddVertexT
$LN5@AddVertexT:

; 442  : 
; 443  : 		// They must have the same position, and normal
; 444  : 		// texcoord will fall right out if the positions match
; 445  : 		Vector temp = decalVertexList[i].m_Position - vert.m_Position;

	mov	eax, DWORD PTR _vert$[ebp]
	push	eax
	lea	ecx, DWORD PTR _temp$2[ebp]
	push	ecx
	movzx	edx, WORD PTR _i$3[ebp]
	push	edx
	mov	ecx, DWORD PTR _decalVertexList$[ebp]
	call	??A?$CUtlLinkedList@UDecalVertex_t@@G@@QAEAAUDecalVertex_t@@G@Z ; CUtlLinkedList<DecalVertex_t,unsigned short>::operator[]
	mov	ecx, eax
	call	??GVector@@QBE?AV0@ABV0@@Z		; Vector::operator-

; 446  : 		if(( fabs( temp[0] ) > 1e-3 ) || (fabs( temp[1] ) > 1e-3 ) || ( fabs( temp[2] ) > 1e-3 ))

	lea	ecx, DWORD PTR _temp$2[ebp]
	call	??BVector@@QAEPAMXZ			; Vector::operator float *
	mov	ecx, 4
	imul	edx, ecx, 0
	cvtss2sd xmm0, DWORD PTR [eax+edx]
	sub	esp, 8
	movsd	QWORD PTR [esp], xmm0
	call	_fabs
	add	esp, 8
	fstp	QWORD PTR tv268[ebp]
	movsd	xmm0, QWORD PTR tv268[ebp]
	comisd	xmm0, QWORD PTR __real@3f50624dd2f1a9fc
	ja	SHORT $LN7@AddVertexT
	lea	ecx, DWORD PTR _temp$2[ebp]
	call	??BVector@@QAEPAMXZ			; Vector::operator float *
	mov	ecx, 4
	shl	ecx, 0
	cvtss2sd xmm0, DWORD PTR [eax+ecx]
	sub	esp, 8
	movsd	QWORD PTR [esp], xmm0
	call	_fabs
	add	esp, 8
	fstp	QWORD PTR tv275[ebp]
	movsd	xmm0, QWORD PTR tv275[ebp]
	comisd	xmm0, QWORD PTR __real@3f50624dd2f1a9fc
	ja	SHORT $LN7@AddVertexT
	lea	ecx, DWORD PTR _temp$2[ebp]
	call	??BVector@@QAEPAMXZ			; Vector::operator float *
	mov	ecx, 4
	shl	ecx, 1
	cvtss2sd xmm0, DWORD PTR [eax+ecx]
	sub	esp, 8
	movsd	QWORD PTR [esp], xmm0
	call	_fabs
	add	esp, 8
	fstp	QWORD PTR tv282[ebp]
	movsd	xmm0, QWORD PTR tv282[ebp]
	comisd	xmm0, QWORD PTR __real@3f50624dd2f1a9fc
	jbe	SHORT $LN6@AddVertexT
$LN7@AddVertexT:

; 447  : 			continue;

	jmp	$LN2@AddVertexT
$LN6@AddVertexT:

; 448  : 
; 449  : 		temp = decalVertexList[i].m_Normal - vert.m_Normal;

	mov	eax, DWORD PTR _vert$[ebp]
	add	eax, 12					; 0000000cH
	push	eax
	lea	ecx, DWORD PTR $T1[ebp]
	push	ecx
	movzx	edx, WORD PTR _i$3[ebp]
	push	edx
	mov	ecx, DWORD PTR _decalVertexList$[ebp]
	call	??A?$CUtlLinkedList@UDecalVertex_t@@G@@QAEAAUDecalVertex_t@@G@Z ; CUtlLinkedList<DecalVertex_t,unsigned short>::operator[]
	add	eax, 12					; 0000000cH
	mov	ecx, eax
	call	??GVector@@QBE?AV0@ABV0@@Z		; Vector::operator-
	mov	ecx, DWORD PTR [eax]
	mov	DWORD PTR _temp$2[ebp], ecx
	mov	edx, DWORD PTR [eax+4]
	mov	DWORD PTR _temp$2[ebp+4], edx
	mov	eax, DWORD PTR [eax+8]
	mov	DWORD PTR _temp$2[ebp+8], eax

; 450  : 		if(( fabs( temp[0] ) > 1e-3 ) || ( fabs( temp[1] ) > 1e-3 ) || ( fabs( temp[2] ) > 1e-3 ))

	lea	ecx, DWORD PTR _temp$2[ebp]
	call	??BVector@@QAEPAMXZ			; Vector::operator float *
	mov	ecx, 4
	imul	edx, ecx, 0
	cvtss2sd xmm0, DWORD PTR [eax+edx]
	sub	esp, 8
	movsd	QWORD PTR [esp], xmm0
	call	_fabs
	add	esp, 8
	fstp	QWORD PTR tv303[ebp]
	movsd	xmm0, QWORD PTR tv303[ebp]
	comisd	xmm0, QWORD PTR __real@3f50624dd2f1a9fc
	ja	SHORT $LN9@AddVertexT
	lea	ecx, DWORD PTR _temp$2[ebp]
	call	??BVector@@QAEPAMXZ			; Vector::operator float *
	mov	ecx, 4
	shl	ecx, 0
	cvtss2sd xmm0, DWORD PTR [eax+ecx]
	sub	esp, 8
	movsd	QWORD PTR [esp], xmm0
	call	_fabs
	add	esp, 8
	fstp	QWORD PTR tv310[ebp]
	movsd	xmm0, QWORD PTR tv310[ebp]
	comisd	xmm0, QWORD PTR __real@3f50624dd2f1a9fc
	ja	SHORT $LN9@AddVertexT
	lea	ecx, DWORD PTR _temp$2[ebp]
	call	??BVector@@QAEPAMXZ			; Vector::operator float *
	mov	ecx, 4
	shl	ecx, 1
	cvtss2sd xmm0, DWORD PTR [eax+ecx]
	sub	esp, 8
	movsd	QWORD PTR [esp], xmm0
	call	_fabs
	add	esp, 8
	fstp	QWORD PTR tv317[ebp]
	movsd	xmm0, QWORD PTR tv317[ebp]
	comisd	xmm0, QWORD PTR __real@3f50624dd2f1a9fc
	jbe	SHORT $LN8@AddVertexT
$LN9@AddVertexT:

; 451  : 			continue;

	jmp	$LN2@AddVertexT
$LN8@AddVertexT:

; 452  : 
; 453  : 		return vertexCount;

	mov	ax, WORD PTR _vertexCount$[ebp]
	jmp	$LN1@AddVertexT

; 454  : 	}

	jmp	$LN2@AddVertexT
$LN3@AddVertexT:

; 455  : 
; 456  : 	// This path is the path taken by clipped vertices
; 457  : 	ASSERT( (vert.m_TexCoord0[0] >= -1e-3) && (vert.m_TexCoord0[0] - 1.0f < 1e-3) );

	mov	ecx, DWORD PTR _vert$[ebp]
	add	ecx, 24					; 00000018H
	call	??BVector2D@@QAEPAMXZ			; Vector2D::operator float *
	mov	ecx, 4
	imul	edx, ecx, 0
	cvtss2sd xmm0, DWORD PTR [eax+edx]
	comisd	xmm0, QWORD PTR __real@bf50624dd2f1a9fc
	jb	SHORT $LN11@AddVertexT
	mov	ecx, DWORD PTR _vert$[ebp]
	add	ecx, 24					; 00000018H
	call	??BVector2D@@QAEPAMXZ			; Vector2D::operator float *
	mov	ecx, 4
	imul	edx, ecx, 0
	movss	xmm0, DWORD PTR [eax+edx]
	subss	xmm0, DWORD PTR __real@3f800000
	cvtss2sd xmm0, xmm0
	movsd	xmm1, QWORD PTR __real@3f50624dd2f1a9fc
	comisd	xmm1, xmm0
	ja	SHORT $LN10@AddVertexT
$LN11@AddVertexT:
	mov	eax, DWORD PTR ?__LINE__Var@?0??AddVertexToDecal@CStudioModelRenderer@@AAEGAAUDecalBuildInfo_t@2@AAUDecalVertex_t@@@Z@4JA
	add	eax, 28					; 0000001cH
	push	eax
	push	OFFSET ??_C@_0FC@KDOHJOI@d?3?2?$CBdiffusion?52020?2source?5code?52@
	push	OFFSET ??_C@_0BI@FECCGOFJ@assert?5failed?5at?5?$CFs?3?$CFi?6?$AA@
	call	DWORD PTR ?gRenderfuncs@@3Urender_api_s@@A+236
	add	esp, 12					; 0000000cH
$LN10@AddVertexT:

; 458  : 	ASSERT( (vert.m_TexCoord0[1] >= -1e-3) && (vert.m_TexCoord0[1] - 1.0f < 1e-3) );

	mov	ecx, DWORD PTR _vert$[ebp]
	add	ecx, 24					; 00000018H
	call	??BVector2D@@QAEPAMXZ			; Vector2D::operator float *
	mov	ecx, 4
	shl	ecx, 0
	cvtss2sd xmm0, DWORD PTR [eax+ecx]
	comisd	xmm0, QWORD PTR __real@bf50624dd2f1a9fc
	jb	SHORT $LN13@AddVertexT
	mov	ecx, DWORD PTR _vert$[ebp]
	add	ecx, 24					; 00000018H
	call	??BVector2D@@QAEPAMXZ			; Vector2D::operator float *
	mov	ecx, 4
	shl	ecx, 0
	movss	xmm0, DWORD PTR [eax+ecx]
	subss	xmm0, DWORD PTR __real@3f800000
	cvtss2sd xmm0, xmm0
	movsd	xmm1, QWORD PTR __real@3f50624dd2f1a9fc
	comisd	xmm1, xmm0
	ja	SHORT $LN12@AddVertexT
$LN13@AddVertexT:
	mov	eax, DWORD PTR ?__LINE__Var@?0??AddVertexToDecal@CStudioModelRenderer@@AAEGAAUDecalBuildInfo_t@2@AAUDecalVertex_t@@@Z@4JA
	add	eax, 29					; 0000001dH
	push	eax
	push	OFFSET ??_C@_0FC@KDOHJOI@d?3?2?$CBdiffusion?52020?2source?5code?52@
	push	OFFSET ??_C@_0BI@FECCGOFJ@assert?5failed?5at?5?$CFs?3?$CFi?6?$AA@
	call	DWORD PTR ?gRenderfuncs@@3Urender_api_s@@A+236
	add	esp, 12					; 0000000cH
$LN12@AddVertexT:

; 459  : 
; 460  : 	// Must create a new vertex...
; 461  : 	word idx = decalVertexList.AddToTail( vert );

	mov	eax, DWORD PTR _vert$[ebp]
	push	eax
	mov	ecx, DWORD PTR _decalVertexList$[ebp]
	call	?AddToTail@?$CUtlLinkedList@UDecalVertex_t@@G@@QAEGABUDecalVertex_t@@@Z ; CUtlLinkedList<DecalVertex_t,unsigned short>::AddToTail
	mov	WORD PTR _idx$[ebp], ax

; 462  : 	if( build.m_FirstVertex == decalVertexList.InvalidIndex( ))

	mov	eax, DWORD PTR _build$[ebp]
	movzx	esi, WORD PTR [eax+80]
	call	?InvalidIndex@?$CUtlLinkedList@UDecalVertex_t@@G@@SAGXZ ; CUtlLinkedList<DecalVertex_t,unsigned short>::InvalidIndex
	movzx	ecx, ax
	cmp	esi, ecx
	jne	SHORT $LN14@AddVertexT

; 463  : 		build.m_FirstVertex = idx;

	mov	eax, DWORD PTR _build$[ebp]
	mov	cx, WORD PTR _idx$[ebp]
	mov	WORD PTR [eax+80], cx
$LN14@AddVertexT:

; 464  : 
; 465  : 	ASSERT( vertexCount == build.m_VertexCount );

	movzx	eax, WORD PTR _vertexCount$[ebp]
	mov	ecx, DWORD PTR _build$[ebp]
	movzx	edx, WORD PTR [ecx+82]
	cmp	eax, edx
	je	SHORT $LN15@AddVertexT
	mov	eax, DWORD PTR ?__LINE__Var@?0??AddVertexToDecal@CStudioModelRenderer@@AAEGAAUDecalBuildInfo_t@2@AAUDecalVertex_t@@@Z@4JA
	add	eax, 36					; 00000024H
	push	eax
	push	OFFSET ??_C@_0FC@KDOHJOI@d?3?2?$CBdiffusion?52020?2source?5code?52@
	push	OFFSET ??_C@_0BI@FECCGOFJ@assert?5failed?5at?5?$CFs?3?$CFi?6?$AA@
	call	DWORD PTR ?gRenderfuncs@@3Urender_api_s@@A+236
	add	esp, 12					; 0000000cH
$LN15@AddVertexT:

; 466  : 
; 467  : 	return build.m_VertexCount++;

	mov	eax, DWORD PTR _build$[ebp]
	mov	cx, WORD PTR [eax+82]
	mov	WORD PTR tv238[ebp], cx
	mov	edx, DWORD PTR _build$[ebp]
	mov	ax, WORD PTR [edx+82]
	add	ax, 1
	mov	ecx, DWORD PTR _build$[ebp]
	mov	WORD PTR [ecx+82], ax
	mov	ax, WORD PTR tv238[ebp]
$LN1@AddVertexT:

; 468  : }

	pop	edi
	pop	esi
	pop	ebx
	mov	esp, ebp
	pop	ebp
	ret	8
?AddVertexToDecal@CStudioModelRenderer@@AAEGAAUDecalBuildInfo_t@1@AAUDecalVertex_t@@@Z ENDP ; CStudioModelRenderer::AddVertexToDecal
_TEXT	ENDS
; Function compile flags: /Odtp /ZI
; File d:\!diffusion 2020\source code 2022\client-server\client\render\r_studiodecal.cpp
;	COMDAT ?AddVertexToDecal@CStudioModelRenderer@@AAEGAAUDecalBuildInfo_t@1@H@Z
_TEXT	SEGMENT
_v$1 = -16						; size = 4
_decalVertexList$2 = -12				; size = 4
_pVertexInfo$ = -8					; size = 4
_this$ = -4						; size = 4
_build$ = 8						; size = 4
_meshIndex$ = 12					; size = 4
?AddVertexToDecal@CStudioModelRenderer@@AAEGAAUDecalBuildInfo_t@1@H@Z PROC ; CStudioModelRenderer::AddVertexToDecal, COMDAT
; _this$ = ecx

; 394  : {

	push	ebp
	mov	ebp, esp
	sub	esp, 80					; 00000050H
	push	ebx
	push	esi
	push	edi
	mov	DWORD PTR _this$[ebp], ecx

; 395  : 	DecalVertexInfo_t* pVertexInfo = build.m_pVertexInfo;

	mov	eax, DWORD PTR _build$[ebp]
	mov	ecx, DWORD PTR [eax+64]
	mov	DWORD PTR _pVertexInfo$[ebp], ecx

; 396  : 
; 397  : 	// If we've never seen this vertex before, we need to add a new decal vert
; 398  : 	if( pVertexInfo[meshIndex].m_VertexIndex == 0xFFFF )

	imul	eax, DWORD PTR _meshIndex$[ebp], 12
	mov	ecx, DWORD PTR _pVertexInfo$[ebp]
	movzx	edx, WORD PTR [ecx+eax+8]
	cmp	edx, 65535				; 0000ffffH
	jne	$LN8@AddVertexT

; 399  : 	{
; 400  : 		DecalVertexList_t& decalVertexList = build.m_pDecalMaterial->m_Vertices;

	mov	eax, DWORD PTR _build$[ebp]
	mov	ecx, DWORD PTR [eax+60]
	add	ecx, 36					; 00000024H
	mov	DWORD PTR _decalVertexList$2[ebp], ecx

; 401  : 		int v = decalVertexList.AddToTail();

	mov	ecx, DWORD PTR _decalVertexList$2[ebp]
	call	?AddToTail@?$CUtlLinkedList@UDecalVertex_t@@G@@QAEGXZ ; CUtlLinkedList<DecalVertex_t,unsigned short>::AddToTail
	movzx	eax, ax
	mov	DWORD PTR _v$1[ebp], eax

; 402  : 
; 403  : 		// Copy over the data;
; 404  : 		ConvertMeshVertexToDecalVertex( build, meshIndex, build.m_pDecalMaterial->m_Vertices[v] );

	movzx	eax, WORD PTR _v$1[ebp]
	push	eax
	mov	ecx, DWORD PTR _build$[ebp]
	mov	ecx, DWORD PTR [ecx+60]
	add	ecx, 36					; 00000024H
	call	??A?$CUtlLinkedList@UDecalVertex_t@@G@@QAEAAUDecalVertex_t@@G@Z ; CUtlLinkedList<DecalVertex_t,unsigned short>::operator[]
	push	eax
	mov	edx, DWORD PTR _meshIndex$[ebp]
	push	edx
	mov	eax, DWORD PTR _build$[ebp]
	push	eax
	mov	ecx, DWORD PTR _this$[ebp]
	call	?ConvertMeshVertexToDecalVertex@CStudioModelRenderer@@AAEXAAUDecalBuildInfo_t@1@HAAUDecalVertex_t@@@Z ; CStudioModelRenderer::ConvertMeshVertexToDecalVertex

; 405  : 
; 406  : #ifdef _DEBUG
; 407  : 		// Make sure clipped vertices are in the right range...
; 408  : 		if( build.m_UseClipVert )

	mov	eax, DWORD PTR _build$[ebp]
	movzx	ecx, BYTE PTR [eax+88]
	test	ecx, ecx
	je	$LN6@AddVertexT

; 409  : 		{
; 410  : 			ASSERT(( decalVertexList[v].m_TexCoord0[0] >= -1e-3 ) && ( decalVertexList[v].m_TexCoord0[0] - 1.0f < 1e-3 ));

	movzx	eax, WORD PTR _v$1[ebp]
	push	eax
	mov	ecx, DWORD PTR _decalVertexList$2[ebp]
	call	??A?$CUtlLinkedList@UDecalVertex_t@@G@@QAEAAUDecalVertex_t@@G@Z ; CUtlLinkedList<DecalVertex_t,unsigned short>::operator[]
	add	eax, 24					; 00000018H
	mov	ecx, eax
	call	??BVector2D@@QAEPAMXZ			; Vector2D::operator float *
	mov	ecx, 4
	imul	edx, ecx, 0
	cvtss2sd xmm0, DWORD PTR [eax+edx]
	comisd	xmm0, QWORD PTR __real@bf50624dd2f1a9fc
	jb	SHORT $LN5@AddVertexT
	movzx	eax, WORD PTR _v$1[ebp]
	push	eax
	mov	ecx, DWORD PTR _decalVertexList$2[ebp]
	call	??A?$CUtlLinkedList@UDecalVertex_t@@G@@QAEAAUDecalVertex_t@@G@Z ; CUtlLinkedList<DecalVertex_t,unsigned short>::operator[]
	add	eax, 24					; 00000018H
	mov	ecx, eax
	call	??BVector2D@@QAEPAMXZ			; Vector2D::operator float *
	mov	ecx, 4
	imul	edx, ecx, 0
	movss	xmm0, DWORD PTR [eax+edx]
	subss	xmm0, DWORD PTR __real@3f800000
	cvtss2sd xmm0, xmm0
	movsd	xmm1, QWORD PTR __real@3f50624dd2f1a9fc
	comisd	xmm1, xmm0
	ja	SHORT $LN4@AddVertexT
$LN5@AddVertexT:
	mov	eax, DWORD PTR ?__LINE__Var@?0??AddVertexToDecal@CStudioModelRenderer@@AAEGAAUDecalBuildInfo_t@2@H@Z@4JA
	add	eax, 16					; 00000010H
	push	eax
	push	OFFSET ??_C@_0FC@KDOHJOI@d?3?2?$CBdiffusion?52020?2source?5code?52@
	push	OFFSET ??_C@_0BI@FECCGOFJ@assert?5failed?5at?5?$CFs?3?$CFi?6?$AA@
	call	DWORD PTR ?gRenderfuncs@@3Urender_api_s@@A+236
	add	esp, 12					; 0000000cH
$LN4@AddVertexT:

; 411  : 			ASSERT(( decalVertexList[v].m_TexCoord0[1] >= -1e-3 ) && ( decalVertexList[v].m_TexCoord0[1] - 1.0f < 1e-3 ));

	movzx	eax, WORD PTR _v$1[ebp]
	push	eax
	mov	ecx, DWORD PTR _decalVertexList$2[ebp]
	call	??A?$CUtlLinkedList@UDecalVertex_t@@G@@QAEAAUDecalVertex_t@@G@Z ; CUtlLinkedList<DecalVertex_t,unsigned short>::operator[]
	add	eax, 24					; 00000018H
	mov	ecx, eax
	call	??BVector2D@@QAEPAMXZ			; Vector2D::operator float *
	mov	ecx, 4
	shl	ecx, 0
	cvtss2sd xmm0, DWORD PTR [eax+ecx]
	comisd	xmm0, QWORD PTR __real@bf50624dd2f1a9fc
	jb	SHORT $LN7@AddVertexT
	movzx	eax, WORD PTR _v$1[ebp]
	push	eax
	mov	ecx, DWORD PTR _decalVertexList$2[ebp]
	call	??A?$CUtlLinkedList@UDecalVertex_t@@G@@QAEAAUDecalVertex_t@@G@Z ; CUtlLinkedList<DecalVertex_t,unsigned short>::operator[]
	add	eax, 24					; 00000018H
	mov	ecx, eax
	call	??BVector2D@@QAEPAMXZ			; Vector2D::operator float *
	mov	ecx, 4
	shl	ecx, 0
	movss	xmm0, DWORD PTR [eax+ecx]
	subss	xmm0, DWORD PTR __real@3f800000
	cvtss2sd xmm0, xmm0
	movsd	xmm1, QWORD PTR __real@3f50624dd2f1a9fc
	comisd	xmm1, xmm0
	ja	SHORT $LN6@AddVertexT
$LN7@AddVertexT:
	mov	eax, DWORD PTR ?__LINE__Var@?0??AddVertexToDecal@CStudioModelRenderer@@AAEGAAUDecalBuildInfo_t@2@H@Z@4JA
	add	eax, 17					; 00000011H
	push	eax
	push	OFFSET ??_C@_0FC@KDOHJOI@d?3?2?$CBdiffusion?52020?2source?5code?52@
	push	OFFSET ??_C@_0BI@FECCGOFJ@assert?5failed?5at?5?$CFs?3?$CFi?6?$AA@
	call	DWORD PTR ?gRenderfuncs@@3Urender_api_s@@A+236
	add	esp, 12					; 0000000cH
$LN6@AddVertexT:

; 412  : 		}
; 413  : #endif
; 414  : 
; 415  : 		// Store off the index of this vertex so we can reference it again
; 416  : 		pVertexInfo[meshIndex].m_VertexIndex = build.m_VertexCount;

	imul	eax, DWORD PTR _meshIndex$[ebp], 12
	mov	ecx, DWORD PTR _pVertexInfo$[ebp]
	mov	edx, DWORD PTR _build$[ebp]
	mov	dx, WORD PTR [edx+82]
	mov	WORD PTR [ecx+eax+8], dx

; 417  : 		++build.m_VertexCount;

	mov	eax, DWORD PTR _build$[ebp]
	mov	cx, WORD PTR [eax+82]
	add	cx, 1
	mov	edx, DWORD PTR _build$[ebp]
	mov	WORD PTR [edx+82], cx

; 418  : 		if( build.m_FirstVertex == decalVertexList.InvalidIndex( ))

	mov	eax, DWORD PTR _build$[ebp]
	movzx	esi, WORD PTR [eax+80]
	call	?InvalidIndex@?$CUtlLinkedList@UDecalVertex_t@@G@@SAGXZ ; CUtlLinkedList<DecalVertex_t,unsigned short>::InvalidIndex
	movzx	ecx, ax
	cmp	esi, ecx
	jne	SHORT $LN8@AddVertexT

; 419  : 			build.m_FirstVertex = v;

	mov	eax, DWORD PTR _build$[ebp]
	mov	cx, WORD PTR _v$1[ebp]
	mov	WORD PTR [eax+80], cx
$LN8@AddVertexT:

; 420  : 	}
; 421  : 
; 422  : 	return pVertexInfo[meshIndex].m_VertexIndex;

	imul	eax, DWORD PTR _meshIndex$[ebp], 12
	mov	ecx, DWORD PTR _pVertexInfo$[ebp]
	mov	ax, WORD PTR [ecx+eax+8]

; 423  : }

	pop	edi
	pop	esi
	pop	ebx
	mov	esp, ebp
	pop	ebp
	ret	8
?AddVertexToDecal@CStudioModelRenderer@@AAEGAAUDecalBuildInfo_t@1@H@Z ENDP ; CStudioModelRenderer::AddVertexToDecal
_TEXT	ENDS
; Function compile flags: /Odtp /ZI
; File d:\!diffusion 2020\source code 2022\client-server\client\render\r_studiodecal.cpp
;	COMDAT ?IntersectPlane@CStudioModelRenderer@@AAEHAAUDecalClipState_t@@HHHM@Z
_TEXT	SEGMENT
tv418 = -244						; size = 4
$T1 = -240						; size = 8
$T2 = -232						; size = 8
$T3 = -224						; size = 8
$T4 = -216						; size = 8
$T5 = -208						; size = 8
$T6 = -200						; size = 8
$T7 = -192						; size = 12
$T8 = -180						; size = 12
$T9 = -168						; size = 12
$T10 = -156						; size = 12
$T11 = -144						; size = 12
$T12 = -132						; size = 12
$T13 = -120						; size = 12
_j$14 = -44						; size = 4
_i$15 = -40						; size = 4
_pbones$ = -36						; size = 4
_newVert$ = -32						; size = 4
_out$ = -28						; size = 4
_t$ = -24						; size = 4
_dir$ = -20						; size = 8
_endVert$ = -12						; size = 4
_startVert$ = -8					; size = 4
_this$ = -4						; size = 4
_state$ = 8						; size = 4
_start$ = 12						; size = 4
_end$ = 16						; size = 4
_normalInd$ = 20					; size = 4
_val$ = 24						; size = 4
?IntersectPlane@CStudioModelRenderer@@AAEHAAUDecalClipState_t@@HHHM@Z PROC ; CStudioModelRenderer::IntersectPlane, COMDAT
; _this$ = ecx

; 508  : {

	push	ebp
	mov	ebp, esp
	sub	esp, 244				; 000000f4H
	push	ebx
	push	esi
	push	edi
	mov	DWORD PTR _this$[ebp], ecx

; 509  : 	DecalVertex_t& startVert = state.m_ClipVerts[start];

	mov	eax, DWORD PTR _start$[ebp]
	shl	eax, 6
	mov	ecx, DWORD PTR _state$[ebp]
	lea	edx, DWORD PTR [ecx+eax+68]
	mov	DWORD PTR _startVert$[ebp], edx

; 510  : 	DecalVertex_t& endVert = state.m_ClipVerts[end];

	mov	eax, DWORD PTR _end$[ebp]
	shl	eax, 6
	mov	ecx, DWORD PTR _state$[ebp]
	lea	edx, DWORD PTR [ecx+eax+68]
	mov	DWORD PTR _endVert$[ebp], edx

; 511  : 
; 512  : 	Vector2D dir = endVert.m_TexCoord0 - startVert.m_TexCoord0;

	mov	eax, DWORD PTR _startVert$[ebp]
	add	eax, 24					; 00000018H
	push	eax
	lea	ecx, DWORD PTR _dir$[ebp]
	push	ecx
	mov	ecx, DWORD PTR _endVert$[ebp]
	add	ecx, 24					; 00000018H
	call	??GVector2D@@QBE?AV0@ABV0@@Z		; Vector2D::operator-

; 513  : 
; 514  : 	ASSERT( dir[normalInd] != 0.0f );

	lea	ecx, DWORD PTR _dir$[ebp]
	call	??BVector2D@@QAEPAMXZ			; Vector2D::operator float *
	mov	ecx, DWORD PTR _normalInd$[ebp]
	movss	xmm0, DWORD PTR [eax+ecx*4]
	ucomiss	xmm0, DWORD PTR __real@00000000
	lahf
	test	ah, 68					; 00000044H
	jp	SHORT $LN8@IntersectP
	mov	eax, DWORD PTR ?__LINE__Var@?0??IntersectPlane@CStudioModelRenderer@@AAEHAAUDecalClipState_t@@HHHM@Z@4JA
	add	eax, 6
	push	eax
	push	OFFSET ??_C@_0FC@KDOHJOI@d?3?2?$CBdiffusion?52020?2source?5code?52@
	push	OFFSET ??_C@_0BI@FECCGOFJ@assert?5failed?5at?5?$CFs?3?$CFi?6?$AA@
	call	DWORD PTR ?gRenderfuncs@@3Urender_api_s@@A+236
	add	esp, 12					; 0000000cH
$LN8@IntersectP:

; 515  : 	float t = (val - startVert.m_TexCoord0[normalInd]) / dir[normalInd];

	mov	ecx, DWORD PTR _startVert$[ebp]
	add	ecx, 24					; 00000018H
	call	??BVector2D@@QAEPAMXZ			; Vector2D::operator float *
	mov	ecx, DWORD PTR _normalInd$[ebp]
	movss	xmm0, DWORD PTR _val$[ebp]
	subss	xmm0, DWORD PTR [eax+ecx*4]
	lea	ecx, DWORD PTR _dir$[ebp]
	movss	DWORD PTR tv418[ebp], xmm0
	call	??BVector2D@@QAEPAMXZ			; Vector2D::operator float *
	mov	edx, DWORD PTR _normalInd$[ebp]
	movss	xmm0, DWORD PTR tv418[ebp]
	divss	xmm0, DWORD PTR [eax+edx*4]
	movss	DWORD PTR _t$[ebp], xmm0

; 516  : 				 
; 517  : 	// Allocate a clipped vertex
; 518  : 	DecalVertex_t& out = state.m_ClipVerts[state.m_ClipVertCount];

	mov	eax, DWORD PTR _state$[ebp]
	mov	ecx, DWORD PTR [eax+64]
	shl	ecx, 6
	mov	edx, DWORD PTR _state$[ebp]
	lea	eax, DWORD PTR [edx+ecx+68]
	mov	DWORD PTR _out$[ebp], eax

; 519  : 	int newVert = state.m_ClipVertCount++;

	mov	eax, DWORD PTR _state$[ebp]
	mov	ecx, DWORD PTR [eax+64]
	mov	DWORD PTR _newVert$[ebp], ecx
	mov	edx, DWORD PTR _state$[ebp]
	mov	eax, DWORD PTR [edx+64]
	add	eax, 1
	mov	ecx, DWORD PTR _state$[ebp]
	mov	DWORD PTR [ecx+64], eax

; 520  : 
; 521  : 	mstudiobone_t *pbones = (mstudiobone_t *)((byte *)m_pStudioHeader + m_pStudioHeader->boneindex);

	mov	eax, DWORD PTR _this$[ebp]
	mov	ecx, DWORD PTR [eax+19124]
	mov	edx, DWORD PTR _this$[ebp]
	mov	eax, DWORD PTR [edx+19124]
	add	eax, DWORD PTR [ecx+144]
	mov	DWORD PTR _pbones$[ebp], eax

; 522  : 
; 523  : 	// the clipped vertex has no analogue in the original mesh
; 524  : 	out.m_MeshVertexIndex = INVALID_HANDLE;

	mov	eax, 65535				; 0000ffffH
	mov	ecx, DWORD PTR _out$[ebp]
	mov	WORD PTR [ecx+60], ax

; 525  : 
; 526  : 	// just select bone by interpolation factor
; 527  : 	if( t <= 0.5f ) out.m_BoneWeights = startVert.m_BoneWeights;

	movss	xmm0, DWORD PTR __real@3f000000
	comiss	xmm0, DWORD PTR _t$[ebp]
	jb	SHORT $LN9@IntersectP
	mov	eax, DWORD PTR _startVert$[ebp]
	mov	ecx, DWORD PTR [eax+52]
	mov	edx, DWORD PTR [eax+56]
	mov	eax, DWORD PTR _out$[ebp]
	mov	DWORD PTR [eax+52], ecx
	mov	DWORD PTR [eax+56], edx
	jmp	SHORT $LN10@IntersectP
$LN9@IntersectP:

; 528  : 	else out.m_BoneWeights = endVert.m_BoneWeights;

	mov	eax, DWORD PTR _endVert$[ebp]
	mov	ecx, DWORD PTR [eax+52]
	mov	edx, DWORD PTR [eax+56]
	mov	eax, DWORD PTR _out$[ebp]
	mov	DWORD PTR [eax+52], ecx
	mov	DWORD PTR [eax+56], edx
$LN10@IntersectP:

; 529  : 
; 530  : 	// Interpolate position
; 531  : 	out.m_Position = startVert.m_Position * (1.0f - t) + endVert.m_Position * t;

	push	ecx
	movss	xmm0, DWORD PTR _t$[ebp]
	movss	DWORD PTR [esp], xmm0
	lea	eax, DWORD PTR $T12[ebp]
	push	eax
	mov	ecx, DWORD PTR _endVert$[ebp]
	call	??DVector@@QBE?AV0@M@Z			; Vector::operator*
	push	eax
	lea	ecx, DWORD PTR $T11[ebp]
	push	ecx
	movss	xmm0, DWORD PTR __real@3f800000
	subss	xmm0, DWORD PTR _t$[ebp]
	push	ecx
	movss	DWORD PTR [esp], xmm0
	lea	edx, DWORD PTR $T13[ebp]
	push	edx
	mov	ecx, DWORD PTR _startVert$[ebp]
	call	??DVector@@QBE?AV0@M@Z			; Vector::operator*
	mov	ecx, eax
	call	??HVector@@QBE?AV0@ABV0@@Z		; Vector::operator+
	mov	ecx, DWORD PTR _out$[ebp]
	mov	edx, DWORD PTR [eax]
	mov	DWORD PTR [ecx], edx
	mov	edx, DWORD PTR [eax+4]
	mov	DWORD PTR [ecx+4], edx
	mov	eax, DWORD PTR [eax+8]
	mov	DWORD PTR [ecx+8], eax

; 532  : 
; 533  : 	// Interpolate normal
; 534  : 	out.m_Normal = startVert.m_Normal * (1.0f - t) + endVert.m_Normal * t;

	push	ecx
	movss	xmm0, DWORD PTR _t$[ebp]
	movss	DWORD PTR [esp], xmm0
	lea	eax, DWORD PTR $T9[ebp]
	push	eax
	mov	ecx, DWORD PTR _endVert$[ebp]
	add	ecx, 12					; 0000000cH
	call	??DVector@@QBE?AV0@M@Z			; Vector::operator*
	push	eax
	lea	ecx, DWORD PTR $T8[ebp]
	push	ecx
	movss	xmm0, DWORD PTR __real@3f800000
	subss	xmm0, DWORD PTR _t$[ebp]
	push	ecx
	movss	DWORD PTR [esp], xmm0
	lea	edx, DWORD PTR $T10[ebp]
	push	edx
	mov	ecx, DWORD PTR _startVert$[ebp]
	add	ecx, 12					; 0000000cH
	call	??DVector@@QBE?AV0@M@Z			; Vector::operator*
	mov	ecx, eax
	call	??HVector@@QBE?AV0@ABV0@@Z		; Vector::operator+
	mov	ecx, DWORD PTR _out$[ebp]
	add	ecx, 12					; 0000000cH
	mov	edx, DWORD PTR [eax]
	mov	DWORD PTR [ecx], edx
	mov	edx, DWORD PTR [eax+4]
	mov	DWORD PTR [ecx+4], edx
	mov	eax, DWORD PTR [eax+8]
	mov	DWORD PTR [ecx+8], eax

; 535  : 	out.m_Normal = out.m_Normal.Normalize();

	lea	eax, DWORD PTR $T7[ebp]
	push	eax
	mov	ecx, DWORD PTR _out$[ebp]
	add	ecx, 12					; 0000000cH
	call	?Normalize@Vector@@QBE?AV1@XZ		; Vector::Normalize
	mov	ecx, DWORD PTR _out$[ebp]
	add	ecx, 12					; 0000000cH
	mov	edx, DWORD PTR [eax]
	mov	DWORD PTR [ecx], edx
	mov	edx, DWORD PTR [eax+4]
	mov	DWORD PTR [ecx+4], edx
	mov	eax, DWORD PTR [eax+8]
	mov	DWORD PTR [ecx+8], eax

; 536  : 
; 537  : 	// Interpolate texture coord
; 538  : 	out.m_TexCoord0 = startVert.m_TexCoord0 + (endVert.m_TexCoord0 - startVert.m_TexCoord0) * t;

	push	ecx
	movss	xmm0, DWORD PTR _t$[ebp]
	movss	DWORD PTR [esp], xmm0
	lea	eax, DWORD PTR $T5[ebp]
	push	eax
	mov	ecx, DWORD PTR _startVert$[ebp]
	add	ecx, 24					; 00000018H
	push	ecx
	lea	edx, DWORD PTR $T6[ebp]
	push	edx
	mov	ecx, DWORD PTR _endVert$[ebp]
	add	ecx, 24					; 00000018H
	call	??GVector2D@@QBE?AV0@ABV0@@Z		; Vector2D::operator-
	mov	ecx, eax
	call	??DVector2D@@QBE?AV0@M@Z		; Vector2D::operator*
	push	eax
	lea	eax, DWORD PTR $T4[ebp]
	push	eax
	mov	ecx, DWORD PTR _startVert$[ebp]
	add	ecx, 24					; 00000018H
	call	??HVector2D@@QBE?AV0@ABV0@@Z		; Vector2D::operator+
	mov	ecx, DWORD PTR [eax]
	mov	edx, DWORD PTR [eax+4]
	mov	eax, DWORD PTR _out$[ebp]
	mov	DWORD PTR [eax+24], ecx
	mov	DWORD PTR [eax+28], edx

; 539  : 	out.m_TexCoord1 = startVert.m_TexCoord1 + (endVert.m_TexCoord1 - startVert.m_TexCoord1) * t;

	push	ecx
	movss	xmm0, DWORD PTR _t$[ebp]
	movss	DWORD PTR [esp], xmm0
	lea	eax, DWORD PTR $T2[ebp]
	push	eax
	mov	ecx, DWORD PTR _startVert$[ebp]
	add	ecx, 32					; 00000020H
	push	ecx
	lea	edx, DWORD PTR $T3[ebp]
	push	edx
	mov	ecx, DWORD PTR _endVert$[ebp]
	add	ecx, 32					; 00000020H
	call	??GVector2D@@QBE?AV0@ABV0@@Z		; Vector2D::operator-
	mov	ecx, eax
	call	??DVector2D@@QBE?AV0@M@Z		; Vector2D::operator*
	push	eax
	lea	eax, DWORD PTR $T1[ebp]
	push	eax
	mov	ecx, DWORD PTR _startVert$[ebp]
	add	ecx, 32					; 00000020H
	call	??HVector2D@@QBE?AV0@ABV0@@Z		; Vector2D::operator+
	mov	ecx, DWORD PTR [eax]
	mov	edx, DWORD PTR [eax+4]
	mov	eax, DWORD PTR _out$[ebp]
	mov	DWORD PTR [eax+32], ecx
	mov	DWORD PTR [eax+36], edx

; 540  : 
; 541  : 	// Interpolate lighting
; 542  : 	for( int i = 0; i < LM_STYLES; i++ )

	mov	DWORD PTR _i$15[ebp], 0
	jmp	SHORT $LN4@IntersectP
$LN2@IntersectP:
	mov	eax, DWORD PTR _i$15[ebp]
	add	eax, 1
	mov	DWORD PTR _i$15[ebp], eax
$LN4@IntersectP:
	cmp	DWORD PTR _i$15[ebp], 4
	jge	SHORT $LN3@IntersectP

; 543  : 	{
; 544  : 		for( int j = 0; j < 3; j++ )

	mov	DWORD PTR _j$14[ebp], 0
	jmp	SHORT $LN7@IntersectP
$LN5@IntersectP:
	mov	eax, DWORD PTR _j$14[ebp]
	add	eax, 1
	mov	DWORD PTR _j$14[ebp], eax
$LN7@IntersectP:
	cmp	DWORD PTR _j$14[ebp], 3
	jge	SHORT $LN6@IntersectP

; 545  : 			out.m_Light[i][j] = startVert.m_Light[i][j] + (endVert.m_Light[i][j] - startVert.m_Light[i][j]) * t;

	imul	eax, DWORD PTR _i$15[ebp], 3
	mov	ecx, DWORD PTR _startVert$[ebp]
	lea	edx, DWORD PTR [ecx+eax+40]
	mov	eax, DWORD PTR _j$14[ebp]
	movzx	ecx, BYTE PTR [edx+eax]
	cvtsi2ss xmm0, ecx
	imul	edx, DWORD PTR _i$15[ebp], 3
	mov	eax, DWORD PTR _endVert$[ebp]
	lea	ecx, DWORD PTR [eax+edx+40]
	mov	edx, DWORD PTR _j$14[ebp]
	movzx	eax, BYTE PTR [ecx+edx]
	imul	ecx, DWORD PTR _i$15[ebp], 3
	mov	edx, DWORD PTR _startVert$[ebp]
	lea	ecx, DWORD PTR [edx+ecx+40]
	mov	edx, DWORD PTR _j$14[ebp]
	movzx	ecx, BYTE PTR [ecx+edx]
	sub	eax, ecx
	cvtsi2ss xmm1, eax
	mulss	xmm1, DWORD PTR _t$[ebp]
	addss	xmm0, xmm1
	cvttss2si edx, xmm0
	imul	eax, DWORD PTR _i$15[ebp], 3
	mov	ecx, DWORD PTR _out$[ebp]
	lea	eax, DWORD PTR [ecx+eax+40]
	mov	ecx, DWORD PTR _j$14[ebp]
	mov	BYTE PTR [eax+ecx], dl
	jmp	SHORT $LN5@IntersectP
$LN6@IntersectP:

; 546  : 	}

	jmp	$LN2@IntersectP
$LN3@IntersectP:

; 547  : 
; 548  : 	// Compute the clip flags baby...
; 549  : 	state.m_ClipFlags[newVert] = ComputeClipFlags( out.m_TexCoord0 );

	mov	eax, DWORD PTR _out$[ebp]
	add	eax, 24					; 00000018H
	push	eax
	mov	ecx, DWORD PTR _this$[ebp]
	call	?ComputeClipFlags@CStudioModelRenderer@@AAEHABVVector2D@@@Z ; CStudioModelRenderer::ComputeClipFlags
	mov	ecx, DWORD PTR _newVert$[ebp]
	mov	edx, DWORD PTR _state$[ebp]
	mov	DWORD PTR [edx+ecx*4+1092], eax

; 550  : 
; 551  : 	return newVert;

	mov	eax, DWORD PTR _newVert$[ebp]

; 552  : }

	pop	edi
	pop	esi
	pop	ebx
	mov	esp, ebp
	pop	ebp
	ret	20					; 00000014H
?IntersectPlane@CStudioModelRenderer@@AAEHAAUDecalClipState_t@@HHHM@Z ENDP ; CStudioModelRenderer::IntersectPlane
_TEXT	ENDS
; Function compile flags: /Odtp /ZI
; File d:\!diffusion 2020\source code 2022\client-server\client\render\r_studiodecal.cpp
;	COMDAT ?ClipTriangleAgainstPlane@CStudioModelRenderer@@AAEXAAUDecalClipState_t@@HHM@Z
_TEXT	SEGMENT
tv183 = -104						; size = 4
tv173 = -104						; size = 4
tv154 = -104						; size = 4
tv144 = -104						; size = 4
tv95 = -104						; size = 4
tv78 = -104						; size = 4
_clipVert$1 = -36					; size = 4
_clipVert$2 = -32					; size = 4
_endInside$3 = -25					; size = 1
_end$4 = -24						; size = 4
_i$5 = -20						; size = 4
_startInside$ = -13					; size = 1
_start$ = -12						; size = 4
_outVertCount$ = -8					; size = 4
_this$ = -4						; size = 4
_state$ = 8						; size = 4
_normalInd$ = 12					; size = 4
_flag$ = 16						; size = 4
_val$ = 20						; size = 4
?ClipTriangleAgainstPlane@CStudioModelRenderer@@AAEXAAUDecalClipState_t@@HHM@Z PROC ; CStudioModelRenderer::ClipTriangleAgainstPlane, COMDAT
; _this$ = ecx

; 558  : {

	push	ebp
	mov	ebp, esp
	sub	esp, 104				; 00000068H
	push	ebx
	push	esi
	push	edi
	mov	DWORD PTR _this$[ebp], ecx

; 559  : 	// Ye Olde Sutherland-Hodgman clipping algorithm
; 560  : 	int outVertCount = 0;

	mov	DWORD PTR _outVertCount$[ebp], 0

; 561  : 	int start = state.m_Indices[state.m_Pass][state.m_VertCount - 1];

	mov	eax, DWORD PTR _state$[ebp]
	movzx	ecx, BYTE PTR [eax+60]
	imul	edx, ecx, 28
	mov	eax, DWORD PTR _state$[ebp]
	lea	ecx, DWORD PTR [eax+edx+4]
	mov	edx, DWORD PTR _state$[ebp]
	mov	eax, DWORD PTR [edx]
	mov	ecx, DWORD PTR [ecx+eax*4-4]
	mov	DWORD PTR _start$[ebp], ecx

; 562  : 	bool startInside = (state.m_ClipFlags[start] & flag) == 0;

	mov	eax, DWORD PTR _start$[ebp]
	mov	ecx, DWORD PTR _state$[ebp]
	mov	edx, DWORD PTR [ecx+eax*4+1092]
	and	edx, DWORD PTR _flag$[ebp]
	jne	SHORT $LN10@ClipTriang
	mov	DWORD PTR tv78[ebp], 1
	jmp	SHORT $LN11@ClipTriang
$LN10@ClipTriang:
	mov	DWORD PTR tv78[ebp], 0
$LN11@ClipTriang:
	mov	al, BYTE PTR tv78[ebp]
	mov	BYTE PTR _startInside$[ebp], al

; 563  : 	for( int i = 0; i < state.m_VertCount; i++ )

	mov	DWORD PTR _i$5[ebp], 0
	jmp	SHORT $LN4@ClipTriang
$LN2@ClipTriang:
	mov	eax, DWORD PTR _i$5[ebp]
	add	eax, 1
	mov	DWORD PTR _i$5[ebp], eax
$LN4@ClipTriang:
	mov	eax, DWORD PTR _state$[ebp]
	mov	ecx, DWORD PTR _i$5[ebp]
	cmp	ecx, DWORD PTR [eax]
	jge	$LN3@ClipTriang

; 564  : 	{
; 565  : 		int end = state.m_Indices[state.m_Pass][i];

	mov	eax, DWORD PTR _state$[ebp]
	movzx	ecx, BYTE PTR [eax+60]
	imul	edx, ecx, 28
	mov	eax, DWORD PTR _state$[ebp]
	lea	ecx, DWORD PTR [eax+edx+4]
	mov	edx, DWORD PTR _i$5[ebp]
	mov	eax, DWORD PTR [ecx+edx*4]
	mov	DWORD PTR _end$4[ebp], eax

; 566  : 
; 567  : 		bool endInside = (state.m_ClipFlags[end] & flag) == 0;

	mov	eax, DWORD PTR _end$4[ebp]
	mov	ecx, DWORD PTR _state$[ebp]
	mov	edx, DWORD PTR [ecx+eax*4+1092]
	and	edx, DWORD PTR _flag$[ebp]
	jne	SHORT $LN12@ClipTriang
	mov	DWORD PTR tv95[ebp], 1
	jmp	SHORT $LN13@ClipTriang
$LN12@ClipTriang:
	mov	DWORD PTR tv95[ebp], 0
$LN13@ClipTriang:
	mov	al, BYTE PTR tv95[ebp]
	mov	BYTE PTR _endInside$3[ebp], al

; 568  : 
; 569  : 		if( endInside )

	movzx	eax, BYTE PTR _endInside$3[ebp]
	test	eax, eax
	je	$LN5@ClipTriang

; 570  : 		{
; 571  : 			if( !startInside )

	movzx	eax, BYTE PTR _startInside$[ebp]
	test	eax, eax
	jne	SHORT $LN7@ClipTriang

; 572  : 			{
; 573  : 				int clipVert = IntersectPlane( state, start, end, normalInd, val );

	push	ecx
	movss	xmm0, DWORD PTR _val$[ebp]
	movss	DWORD PTR [esp], xmm0
	mov	eax, DWORD PTR _normalInd$[ebp]
	push	eax
	mov	ecx, DWORD PTR _end$4[ebp]
	push	ecx
	mov	edx, DWORD PTR _start$[ebp]
	push	edx
	mov	eax, DWORD PTR _state$[ebp]
	push	eax
	mov	ecx, DWORD PTR _this$[ebp]
	call	?IntersectPlane@CStudioModelRenderer@@AAEHAAUDecalClipState_t@@HHHM@Z ; CStudioModelRenderer::IntersectPlane
	mov	DWORD PTR _clipVert$2[ebp], eax

; 574  : 				state.m_Indices[!state.m_Pass][outVertCount++] = clipVert;

	mov	eax, DWORD PTR _state$[ebp]
	movzx	ecx, BYTE PTR [eax+60]
	test	ecx, ecx
	jne	SHORT $LN14@ClipTriang
	mov	DWORD PTR tv144[ebp], 1
	jmp	SHORT $LN15@ClipTriang
$LN14@ClipTriang:
	mov	DWORD PTR tv144[ebp], 0
$LN15@ClipTriang:
	imul	edx, DWORD PTR tv144[ebp], 28
	mov	eax, DWORD PTR _state$[ebp]
	lea	ecx, DWORD PTR [eax+edx+4]
	mov	edx, DWORD PTR _outVertCount$[ebp]
	mov	eax, DWORD PTR _clipVert$2[ebp]
	mov	DWORD PTR [ecx+edx*4], eax
	mov	ecx, DWORD PTR _outVertCount$[ebp]
	add	ecx, 1
	mov	DWORD PTR _outVertCount$[ebp], ecx
$LN7@ClipTriang:

; 575  : 			}
; 576  : 			state.m_Indices[!state.m_Pass][outVertCount++] = end;

	mov	eax, DWORD PTR _state$[ebp]
	movzx	ecx, BYTE PTR [eax+60]
	test	ecx, ecx
	jne	SHORT $LN16@ClipTriang
	mov	DWORD PTR tv154[ebp], 1
	jmp	SHORT $LN17@ClipTriang
$LN16@ClipTriang:
	mov	DWORD PTR tv154[ebp], 0
$LN17@ClipTriang:
	imul	edx, DWORD PTR tv154[ebp], 28
	mov	eax, DWORD PTR _state$[ebp]
	lea	ecx, DWORD PTR [eax+edx+4]
	mov	edx, DWORD PTR _outVertCount$[ebp]
	mov	eax, DWORD PTR _end$4[ebp]
	mov	DWORD PTR [ecx+edx*4], eax
	mov	ecx, DWORD PTR _outVertCount$[ebp]
	add	ecx, 1
	mov	DWORD PTR _outVertCount$[ebp], ecx

; 577  : 		}
; 578  : 		else

	jmp	SHORT $LN8@ClipTriang
$LN5@ClipTriang:

; 579  : 		{
; 580  : 			if( startInside )

	movzx	eax, BYTE PTR _startInside$[ebp]
	test	eax, eax
	je	SHORT $LN8@ClipTriang

; 581  : 			{
; 582  : 				int clipVert = IntersectPlane( state, start, end, normalInd, val );

	push	ecx
	movss	xmm0, DWORD PTR _val$[ebp]
	movss	DWORD PTR [esp], xmm0
	mov	eax, DWORD PTR _normalInd$[ebp]
	push	eax
	mov	ecx, DWORD PTR _end$4[ebp]
	push	ecx
	mov	edx, DWORD PTR _start$[ebp]
	push	edx
	mov	eax, DWORD PTR _state$[ebp]
	push	eax
	mov	ecx, DWORD PTR _this$[ebp]
	call	?IntersectPlane@CStudioModelRenderer@@AAEHAAUDecalClipState_t@@HHHM@Z ; CStudioModelRenderer::IntersectPlane
	mov	DWORD PTR _clipVert$1[ebp], eax

; 583  : 				state.m_Indices[!state.m_Pass][outVertCount++] = clipVert;

	mov	eax, DWORD PTR _state$[ebp]
	movzx	ecx, BYTE PTR [eax+60]
	test	ecx, ecx
	jne	SHORT $LN18@ClipTriang
	mov	DWORD PTR tv173[ebp], 1
	jmp	SHORT $LN19@ClipTriang
$LN18@ClipTriang:
	mov	DWORD PTR tv173[ebp], 0
$LN19@ClipTriang:
	imul	edx, DWORD PTR tv173[ebp], 28
	mov	eax, DWORD PTR _state$[ebp]
	lea	ecx, DWORD PTR [eax+edx+4]
	mov	edx, DWORD PTR _outVertCount$[ebp]
	mov	eax, DWORD PTR _clipVert$1[ebp]
	mov	DWORD PTR [ecx+edx*4], eax
	mov	ecx, DWORD PTR _outVertCount$[ebp]
	add	ecx, 1
	mov	DWORD PTR _outVertCount$[ebp], ecx
$LN8@ClipTriang:

; 584  : 			}
; 585  : 		}
; 586  : 
; 587  : 		start = end;

	mov	eax, DWORD PTR _end$4[ebp]
	mov	DWORD PTR _start$[ebp], eax

; 588  : 		startInside = endInside;

	mov	al, BYTE PTR _endInside$3[ebp]
	mov	BYTE PTR _startInside$[ebp], al

; 589  : 	}

	jmp	$LN2@ClipTriang
$LN3@ClipTriang:

; 590  : 
; 591  : 	state.m_Pass = !state.m_Pass;

	mov	eax, DWORD PTR _state$[ebp]
	movzx	ecx, BYTE PTR [eax+60]
	test	ecx, ecx
	jne	SHORT $LN20@ClipTriang
	mov	DWORD PTR tv183[ebp], 1
	jmp	SHORT $LN21@ClipTriang
$LN20@ClipTriang:
	mov	DWORD PTR tv183[ebp], 0
$LN21@ClipTriang:
	mov	edx, DWORD PTR _state$[ebp]
	mov	al, BYTE PTR tv183[ebp]
	mov	BYTE PTR [edx+60], al

; 592  : 	state.m_VertCount = outVertCount;

	mov	eax, DWORD PTR _state$[ebp]
	mov	ecx, DWORD PTR _outVertCount$[ebp]
	mov	DWORD PTR [eax], ecx

; 593  : }

	pop	edi
	pop	esi
	pop	ebx
	mov	esp, ebp
	pop	ebp
	ret	16					; 00000010H
?ClipTriangleAgainstPlane@CStudioModelRenderer@@AAEXAAUDecalClipState_t@@HHM@Z ENDP ; CStudioModelRenderer::ClipTriangleAgainstPlane
_TEXT	ENDS
; Function compile flags: /Odtp /ZI
; File d:\!diffusion 2020\source code 2022\client-server\client\render\r_studiodecal.cpp
;	COMDAT ?ConvertMeshVertexToDecalVertex@CStudioModelRenderer@@AAEXAAUDecalBuildInfo_t@1@HAAUDecalVertex_t@@@Z
_TEXT	SEGMENT
_this$ = -4						; size = 4
_build$ = 8						; size = 4
_meshIndex$ = 12					; size = 4
_decalVertex$ = 16					; size = 4
?ConvertMeshVertexToDecalVertex@CStudioModelRenderer@@AAEXAAUDecalBuildInfo_t@1@HAAUDecalVertex_t@@@Z PROC ; CStudioModelRenderer::ConvertMeshVertexToDecalVertex, COMDAT
; _this$ = ecx

; 379  : {

	push	ebp
	mov	ebp, esp
	sub	esp, 68					; 00000044H
	push	ebx
	push	esi
	push	edi
	mov	DWORD PTR _this$[ebp], ecx

; 380  : 	// Copy over the data;
; 381  : 	decalVertex = m_decalverts[m_arrayelems[build.m_pDecalMesh->firstvertex + meshIndex]];

	mov	eax, DWORD PTR _build$[ebp]
	mov	ecx, DWORD PTR [eax+56]
	mov	edx, DWORD PTR [ecx+4]
	add	edx, DWORD PTR _meshIndex$[ebp]
	mov	eax, DWORD PTR _this$[ebp]
	mov	ecx, DWORD PTR [eax+edx*4+11914972]
	shl	ecx, 6
	mov	edx, DWORD PTR _this$[ebp]
	lea	esi, DWORD PTR [edx+ecx+225500]
	mov	ecx, 16					; 00000010H
	mov	edi, DWORD PTR _decalVertex$[ebp]
	rep movsd

; 382  : 
; 383  : 	// get the texture coords from the decal planar projection
; 384  : 	decalVertex.m_TexCoord0 = build.m_pVertexInfo[meshIndex].m_UV;

	imul	eax, DWORD PTR _meshIndex$[ebp], 12
	mov	ecx, DWORD PTR _build$[ebp]
	mov	edx, DWORD PTR [ecx+64]
	mov	ecx, DWORD PTR [edx+eax]
	mov	edx, DWORD PTR [edx+eax+4]
	mov	eax, DWORD PTR _decalVertex$[ebp]
	mov	DWORD PTR [eax+24], ecx
	mov	DWORD PTR [eax+28], edx

; 385  : 
; 386  : 	// if meshIndex is valid this vertex was created from original
; 387  : 	decalVertex.m_MeshVertexIndex = meshIndex;

	mov	eax, DWORD PTR _decalVertex$[ebp]
	mov	cx, WORD PTR _meshIndex$[ebp]
	mov	WORD PTR [eax+60], cx

; 388  : }

	pop	edi
	pop	esi
	pop	ebx
	mov	esp, ebp
	pop	ebp
	ret	12					; 0000000cH
?ConvertMeshVertexToDecalVertex@CStudioModelRenderer@@AAEXAAUDecalBuildInfo_t@1@HAAUDecalVertex_t@@@Z ENDP ; CStudioModelRenderer::ConvertMeshVertexToDecalVertex
_TEXT	ENDS
; Function compile flags: /Odtp /ZI
; File d:\!diffusion 2020\source code 2022\client-server\client\render\r_studiodecal.cpp
;	COMDAT ?ClipDecal@CStudioModelRenderer@@AAE_NAAUDecalBuildInfo_t@1@HHHPAH@Z
_TEXT	SEGMENT
_i$1 = -1168						; size = 4
_clipState$ = -1164					; size = 1156
_this$ = -8						; size = 4
__$ArrayPad$ = -4					; size = 4
_build$ = 8						; size = 4
_i1$ = 12						; size = 4
_i2$ = 16						; size = 4
_i3$ = 20						; size = 4
_pClipFlags$ = 24					; size = 4
?ClipDecal@CStudioModelRenderer@@AAE_NAAUDecalBuildInfo_t@1@HHHPAH@Z PROC ; CStudioModelRenderer::ClipDecal, COMDAT
; _this$ = ecx

; 599  : {

	push	ebp
	mov	ebp, esp
	sub	esp, 1360				; 00000550H
	mov	eax, DWORD PTR ___security_cookie
	xor	eax, ebp
	mov	DWORD PTR __$ArrayPad$[ebp], eax
	push	ebx
	push	esi
	push	edi
	mov	DWORD PTR _this$[ebp], ecx

; 600  : 	DecalClipState_t clipState;

	lea	ecx, DWORD PTR _clipState$[ebp]
	call	??0DecalClipState_t@@QAE@XZ

; 601  : 	clipState.m_VertCount = 3;

	mov	DWORD PTR _clipState$[ebp], 3

; 602  : 
; 603  : 	ConvertMeshVertexToDecalVertex( build, i1, clipState.m_ClipVerts[0] );

	mov	eax, 64					; 00000040H
	imul	ecx, eax, 0
	lea	edx, DWORD PTR _clipState$[ebp+ecx+68]
	push	edx
	mov	eax, DWORD PTR _i1$[ebp]
	push	eax
	mov	ecx, DWORD PTR _build$[ebp]
	push	ecx
	mov	ecx, DWORD PTR _this$[ebp]
	call	?ConvertMeshVertexToDecalVertex@CStudioModelRenderer@@AAEXAAUDecalBuildInfo_t@1@HAAUDecalVertex_t@@@Z ; CStudioModelRenderer::ConvertMeshVertexToDecalVertex

; 604  : 	ConvertMeshVertexToDecalVertex( build, i2, clipState.m_ClipVerts[1] );

	mov	eax, 64					; 00000040H
	shl	eax, 0
	lea	ecx, DWORD PTR _clipState$[ebp+eax+68]
	push	ecx
	mov	edx, DWORD PTR _i2$[ebp]
	push	edx
	mov	eax, DWORD PTR _build$[ebp]
	push	eax
	mov	ecx, DWORD PTR _this$[ebp]
