; Listing generated by Microsoft (R) Optimizing Compiler Version 19.00.24247.2 

	TITLE	D:\!DIFFUSION 2020\source code 2022\client-server\client\render\r_surf.cpp
	.686P
	.XMM
	include listing.inc
	.model	flat

INCLUDELIB LIBCMT
INCLUDELIB OLDNAMES

PUBLIC	??_H@YGXPAXIIP6EPAX0@Z@Z			; `vector constructor iterator'
PUBLIC	??__G@YGXPAX0IIP6EPAX00@Z@Z			; `vector copy constructor iterator'
PUBLIC	??BVector4D@@QAEPAMXZ				; Vector4D::operator float *
PUBLIC	?HUD_BuildLightmaps@@YAXXZ			; HUD_BuildLightmaps
PUBLIC	?R_TextureAnimation@@YAPAUtexture_s@@PAUmsurface_s@@@Z ; R_TextureAnimation
PUBLIC	?GL_InitRandomTable@@YAXXZ			; GL_InitRandomTable
PUBLIC	??_C@_0CB@IAFBOMBO@R_TextureAnimation?3?5broken?5loop?6@ ; `string'
PUBLIC	??_C@_0CD@BGNOJPP@R_TextureAnimation?3?5infinite?5loo@ ; `string'
PUBLIC	__real@00000000
PUBLIC	__real@437f0000
EXTRN	?ALERT@@YAXW4ALERT_TYPE@@PADZZ:PROC		; ALERT
EXTRN	?gEngfuncs@@3Ucl_enginefuncs_s@@A:BYTE		; gEngfuncs
EXTRN	?gRenderfuncs@@3Urender_api_s@@A:BYTE		; gRenderfuncs
EXTRN	?g_fRenderInitialized@@3HA:DWORD		; g_fRenderInitialized
EXTRN	?RI@@3PAUref_instance_t@@A:DWORD		; RI
EXTRN	?tr@@3Uref_globals_t@@A:BYTE			; tr
EXTRN	__fltused:DWORD
_BSS	SEGMENT
?rtable@@3PAY0BE@HA DD 0190H DUP (?)			; rtable
_BSS	ENDS
;	COMDAT __real@437f0000
CONST	SEGMENT
__real@437f0000 DD 0437f0000r			; 255
CONST	ENDS
;	COMDAT __real@00000000
CONST	SEGMENT
__real@00000000 DD 000000000r			; 0
CONST	ENDS
;	COMDAT ??_C@_0CD@BGNOJPP@R_TextureAnimation?3?5infinite?5loo@
CONST	SEGMENT
??_C@_0CD@BGNOJPP@R_TextureAnimation?3?5infinite?5loo@ DB 'R_TextureAnima'
	DB	'tion: infinite loop', 0aH, 00H		; `string'
CONST	ENDS
;	COMDAT ??_C@_0CB@IAFBOMBO@R_TextureAnimation?3?5broken?5loop?6@
CONST	SEGMENT
??_C@_0CB@IAFBOMBO@R_TextureAnimation?3?5broken?5loop?6@ DB 'R_TextureAni'
	DB	'mation: broken loop', 0aH, 00H		; `string'
CONST	ENDS
; Function compile flags: /Odtp /ZI
; File d:\!diffusion 2020\source code 2022\client-server\client\render\r_surf.cpp
;	COMDAT ?GL_InitRandomTable@@YAXXZ
_TEXT	SEGMENT
_tv$ = -8						; size = 4
_tu$ = -4						; size = 4
?GL_InitRandomTable@@YAXXZ PROC				; GL_InitRandomTable, COMDAT

; 109  : {

	push	ebp
	mov	ebp, esp
	sub	esp, 72					; 00000048H
	push	ebx
	push	esi
	push	edi

; 110  : 	int	tu, tv;
; 111  : 
; 112  : 	// make random predictable
; 113  : 	RANDOM_SEED( 255 );

	push	255					; 000000ffH
	call	DWORD PTR ?gRenderfuncs@@3Urender_api_s@@A+256
	add	esp, 4

; 114  : 
; 115  : 	for( tu = 0; tu < MOD_FRAMES; tu++ )

	mov	DWORD PTR _tu$[ebp], 0
	jmp	SHORT $LN4@GL_InitRan
$LN2@GL_InitRan:
	mov	eax, DWORD PTR _tu$[ebp]
	add	eax, 1
	mov	DWORD PTR _tu$[ebp], eax
$LN4@GL_InitRan:
	cmp	DWORD PTR _tu$[ebp], 20			; 00000014H
	jge	SHORT $LN3@GL_InitRan

; 116  : 	{
; 117  : 		for( tv = 0; tv < MOD_FRAMES; tv++ )

	mov	DWORD PTR _tv$[ebp], 0
	jmp	SHORT $LN7@GL_InitRan
$LN5@GL_InitRan:
	mov	eax, DWORD PTR _tv$[ebp]
	add	eax, 1
	mov	DWORD PTR _tv$[ebp], eax
$LN7@GL_InitRan:
	cmp	DWORD PTR _tv$[ebp], 20			; 00000014H
	jge	SHORT $LN6@GL_InitRan

; 118  : 		{
; 119  : 			rtable[tu][tv] = RANDOM_LONG( 0, 0x7FFF );

	push	32767					; 00007fffH
	push	0
	call	DWORD PTR ?gEngfuncs@@3Ucl_enginefuncs_s@@A+272
	add	esp, 8
	imul	ecx, DWORD PTR _tu$[ebp], 80
	mov	edx, DWORD PTR _tv$[ebp]
	mov	DWORD PTR ?rtable@@3PAY0BE@HA[ecx+edx*4], eax

; 120  : 		}

	jmp	SHORT $LN5@GL_InitRan
$LN6@GL_InitRan:

; 121  : 	}

	jmp	SHORT $LN2@GL_InitRan
$LN3@GL_InitRan:

; 122  : 
; 123  : 	RANDOM_SEED( 0 );

	push	0
	call	DWORD PTR ?gRenderfuncs@@3Urender_api_s@@A+256
	add	esp, 4

; 124  : }

	pop	edi
	pop	esi
	pop	ebx
	mov	esp, ebp
	pop	ebp
	ret	0
?GL_InitRandomTable@@YAXXZ ENDP				; GL_InitRandomTable
_TEXT	ENDS
; Function compile flags: /Odtp /ZI
; File d:\!diffusion 2020\source code 2022\client-server\client\render\r_surf.cpp
;	COMDAT ?R_TextureAnimation@@YAPAUtexture_s@@PAUmsurface_s@@@Z
_TEXT	SEGMENT
_ty$1 = -24						; size = 4
_tx$2 = -20						; size = 4
_speed$ = -16						; size = 4
_reletive$ = -12					; size = 4
_count$ = -8						; size = 4
_base$ = -4						; size = 4
_s$ = 8							; size = 4
?R_TextureAnimation@@YAPAUtexture_s@@PAUmsurface_s@@@Z PROC ; R_TextureAnimation, COMDAT

; 35   : {

	push	ebp
	mov	ebp, esp
	sub	esp, 88					; 00000058H
	push	ebx
	push	esi
	push	edi

; 36   : 	texture_t	*base = s->texinfo->texture;

	mov	eax, DWORD PTR _s$[ebp]
	mov	ecx, DWORD PTR [eax+44]
	mov	edx, DWORD PTR [ecx+36]
	mov	DWORD PTR _base$[ebp], edx

; 37   : 	int	count, reletive;
; 38   : 	int	speed = 20;

	mov	DWORD PTR _speed$[ebp], 20		; 00000014H

; 39   : 
; 40   : 	if( RI->currententity != NULL && RI->currententity->curstate.frame )

	mov	eax, DWORD PTR ?RI@@3PAUref_instance_t@@A ; RI
	cmp	DWORD PTR [eax+16], 0
	je	SHORT $LN5@R_TextureA
	mov	eax, DWORD PTR ?RI@@3PAUref_instance_t@@A ; RI
	mov	ecx, DWORD PTR [eax+16]
	movss	xmm0, DWORD PTR [ecx+736]
	ucomiss	xmm0, DWORD PTR __real@00000000
	lahf
	test	ah, 68					; 00000044H
	jnp	SHORT $LN5@R_TextureA

; 41   : 	{
; 42   : 		if( base->alternate_anims )

	mov	eax, DWORD PTR _base$[ebp]
	cmp	DWORD PTR [eax+48], 0
	je	SHORT $LN5@R_TextureA

; 43   : 			base = base->alternate_anims;

	mov	eax, DWORD PTR _base$[ebp]
	mov	ecx, DWORD PTR [eax+48]
	mov	DWORD PTR _base$[ebp], ecx
$LN5@R_TextureA:

; 44   : 	}
; 45   : 	
; 46   : 	if( !base->anim_total )

	mov	eax, DWORD PTR _base$[ebp]
	cmp	DWORD PTR [eax+32], 0
	jne	SHORT $LN6@R_TextureA

; 47   : 		return base;

	mov	eax, DWORD PTR _base$[ebp]
	jmp	$LN1@R_TextureA
$LN6@R_TextureA:

; 48   : 
; 49   : 	if( base->name[0] == '-' )

	mov	eax, 1
	imul	ecx, eax, 0
	mov	edx, DWORD PTR _base$[ebp]
	movsx	eax, BYTE PTR [edx+ecx]
	cmp	eax, 45					; 0000002dH
	jne	SHORT $LN7@R_TextureA

; 50   : 	{
; 51   : 		int tx = (int)((s->texturemins[0] + (base->width << 16)) / base->width) % MOD_FRAMES;

	mov	eax, 2
	imul	ecx, eax, 0
	mov	edx, DWORD PTR _s$[ebp]
	movsx	eax, WORD PTR [edx+ecx+20]
	mov	ecx, DWORD PTR _base$[ebp]
	mov	edx, DWORD PTR [ecx+16]
	shl	edx, 16					; 00000010H
	add	eax, edx
	mov	ecx, DWORD PTR _base$[ebp]
	xor	edx, edx
	div	DWORD PTR [ecx+16]
	cdq
	mov	ecx, 20					; 00000014H
	idiv	ecx
	mov	DWORD PTR _tx$2[ebp], edx

; 52   : 		int ty = (int)((s->texturemins[1] + (base->height << 16)) / base->height) % MOD_FRAMES;

	mov	eax, 2
	shl	eax, 0
	mov	ecx, DWORD PTR _s$[ebp]
	movsx	eax, WORD PTR [ecx+eax+20]
	mov	edx, DWORD PTR _base$[ebp]
	mov	ecx, DWORD PTR [edx+20]
	shl	ecx, 16					; 00000010H
	add	eax, ecx
	mov	ecx, DWORD PTR _base$[ebp]
	xor	edx, edx
	div	DWORD PTR [ecx+20]
	cdq
	mov	ecx, 20					; 00000014H
	idiv	ecx
	mov	DWORD PTR _ty$1[ebp], edx

; 53   : 
; 54   : 		reletive = rtable[tx][ty] % base->anim_total;

	imul	eax, DWORD PTR _tx$2[ebp], 80
	mov	ecx, DWORD PTR _ty$1[ebp]
	mov	esi, DWORD PTR _base$[ebp]
	mov	eax, DWORD PTR ?rtable@@3PAY0BE@HA[eax+ecx*4]
	cdq
	idiv	DWORD PTR [esi+32]
	mov	DWORD PTR _reletive$[ebp], edx

; 55   : 	}
; 56   : 	else

	jmp	SHORT $LN8@R_TextureA
$LN7@R_TextureA:

; 57   : 	{
; 58   : 		// GoldSrc and Quake1 has different animating speed
; 59   : 		if( FBitSet( RENDER_GET_PARM( PARM_TEX_FLAGS, base->gl_texturenum ), TF_QUAKEPAL ))

	mov	eax, DWORD PTR _base$[ebp]
	mov	ecx, DWORD PTR [eax+24]
	push	ecx
	push	10					; 0000000aH
	call	DWORD PTR ?gRenderfuncs@@3Urender_api_s@@A
	add	esp, 8
	and	eax, 256				; 00000100H
	je	SHORT $LN9@R_TextureA

; 60   : 			speed = 10;

	mov	DWORD PTR _speed$[ebp], 10		; 0000000aH
$LN9@R_TextureA:

; 61   : 
; 62   : 		// diffusion
; 63   : 		if( RI->currententity != NULL && RI->currententity->curstate.framerate > 0 )

	mov	eax, DWORD PTR ?RI@@3PAUref_instance_t@@A ; RI
	cmp	DWORD PTR [eax+16], 0
	je	SHORT $LN10@R_TextureA
	mov	eax, DWORD PTR ?RI@@3PAUref_instance_t@@A ; RI
	mov	ecx, DWORD PTR [eax+16]
	movss	xmm0, DWORD PTR [ecx+784]
	comiss	xmm0, DWORD PTR __real@00000000
	jbe	SHORT $LN10@R_TextureA

; 64   : 			speed = (int)RI->currententity->curstate.framerate;

	mov	eax, DWORD PTR ?RI@@3PAUref_instance_t@@A ; RI
	mov	ecx, DWORD PTR [eax+16]
	cvttss2si edx, DWORD PTR [ecx+784]
	mov	DWORD PTR _speed$[ebp], edx
$LN10@R_TextureA:

; 65   : 		
; 66   : 		reletive = (int)(tr.time * speed) % base->anim_total;

	cvtsi2sd xmm0, DWORD PTR _speed$[ebp]
	mulsd	xmm0, QWORD PTR ?tr@@3Uref_globals_t@@A+8
	cvttsd2si eax, xmm0
	mov	ecx, DWORD PTR _base$[ebp]
	cdq
	idiv	DWORD PTR [ecx+32]
	mov	DWORD PTR _reletive$[ebp], edx
$LN8@R_TextureA:

; 67   : 	}
; 68   : 
; 69   : 	count = 0;

	mov	DWORD PTR _count$[ebp], 0
$LN2@R_TextureA:

; 70   : 
; 71   : 	while( base->anim_min > reletive || base->anim_max <= reletive )

	mov	eax, DWORD PTR _base$[ebp]
	mov	ecx, DWORD PTR [eax+36]
	cmp	ecx, DWORD PTR _reletive$[ebp]
	jg	SHORT $LN11@R_TextureA
	mov	eax, DWORD PTR _base$[ebp]
	mov	ecx, DWORD PTR [eax+40]
	cmp	ecx, DWORD PTR _reletive$[ebp]
	jg	SHORT $LN3@R_TextureA
$LN11@R_TextureA:

; 72   : 	{
; 73   : 		base = base->anim_next;

	mov	eax, DWORD PTR _base$[ebp]
	mov	ecx, DWORD PTR [eax+44]
	mov	DWORD PTR _base$[ebp], ecx

; 74   : 
; 75   : 		if( !base )

	cmp	DWORD PTR _base$[ebp], 0
	jne	SHORT $LN12@R_TextureA

; 76   : 		{
; 77   : 			ALERT( at_error, "R_TextureAnimation: broken loop\n" );

	push	OFFSET ??_C@_0CB@IAFBOMBO@R_TextureAnimation?3?5broken?5loop?6@
	push	4
	call	?ALERT@@YAXW4ALERT_TYPE@@PADZZ		; ALERT
	add	esp, 8

; 78   : 			return s->texinfo->texture;

	mov	eax, DWORD PTR _s$[ebp]
	mov	ecx, DWORD PTR [eax+44]
	mov	eax, DWORD PTR [ecx+36]
	jmp	SHORT $LN1@R_TextureA
$LN12@R_TextureA:

; 79   : 		}
; 80   : 
; 81   : 		if( ++count > MOD_FRAMES )

	mov	eax, DWORD PTR _count$[ebp]
	add	eax, 1
	mov	DWORD PTR _count$[ebp], eax
	cmp	DWORD PTR _count$[ebp], 20		; 00000014H
	jle	SHORT $LN13@R_TextureA

; 82   : 		{
; 83   : 			ALERT( at_error, "R_TextureAnimation: infinite loop\n" );

	push	OFFSET ??_C@_0CD@BGNOJPP@R_TextureAnimation?3?5infinite?5loo@
	push	4
	call	?ALERT@@YAXW4ALERT_TYPE@@PADZZ		; ALERT
	add	esp, 8

; 84   : 			return s->texinfo->texture;

	mov	eax, DWORD PTR _s$[ebp]
	mov	ecx, DWORD PTR [eax+44]
	mov	eax, DWORD PTR [ecx+36]
	jmp	SHORT $LN1@R_TextureA
$LN13@R_TextureA:

; 85   : 		}
; 86   : 	}

	jmp	SHORT $LN2@R_TextureA
$LN3@R_TextureA:

; 87   : 
; 88   : 	return base;

	mov	eax, DWORD PTR _base$[ebp]
$LN1@R_TextureA:

; 89   : }

	pop	edi
	pop	esi
	pop	ebx
	mov	esp, ebp
	pop	ebp
	ret	0
?R_TextureAnimation@@YAPAUtexture_s@@PAUmsurface_s@@@Z ENDP ; R_TextureAnimation
_TEXT	ENDS
; Function compile flags: /Odtp /ZI
; File d:\!diffusion 2020\source code 2022\client-server\client\render\r_surf.cpp
;	COMDAT ?HUD_BuildLightmaps@@YAXXZ
_TEXT	SEGMENT
tv92 = -72						; size = 4
_i$1 = -4						; size = 4
?HUD_BuildLightmaps@@YAXXZ PROC				; HUD_BuildLightmaps, COMDAT

; 100  : {

	push	ebp
	mov	ebp, esp
	sub	esp, 72					; 00000048H
	push	ebx
	push	esi
	push	edi

; 101  : 	if( !g_fRenderInitialized ) return;

	cmp	DWORD PTR ?g_fRenderInitialized@@3HA, 0	; g_fRenderInitialized
	jne	SHORT $LN5@HUD_BuildL
	jmp	SHORT $LN1@HUD_BuildL
$LN5@HUD_BuildL:

; 102  : 
; 103  : 	// put the gamma into GLSL-friendly array
; 104  : 	for( int i = 0; i < 256; i++ )

	mov	DWORD PTR _i$1[ebp], 0
	jmp	SHORT $LN4@HUD_BuildL
$LN2@HUD_BuildL:
	mov	eax, DWORD PTR _i$1[ebp]
	add	eax, 1
	mov	DWORD PTR _i$1[ebp], eax
$LN4@HUD_BuildL:
	cmp	DWORD PTR _i$1[ebp], 256		; 00000100H
	jge	SHORT $LN3@HUD_BuildL

; 105  : 		tr.gamma_table[i/4][i%4] = (float)TEXTURE_TO_TEXGAMMA( i ) / 255.0f;

	movzx	eax, BYTE PTR _i$1[ebp]
	push	eax
	call	DWORD PTR ?gRenderfuncs@@3Urender_api_s@@A+24
	add	esp, 4
	movzx	ecx, al
	cvtsi2ss xmm0, ecx
	divss	xmm0, DWORD PTR __real@437f0000
	mov	eax, DWORD PTR _i$1[ebp]
	cdq
	and	edx, 3
	add	eax, edx
	sar	eax, 2
	shl	eax, 4
	add	eax, OFFSET ?tr@@3Uref_globals_t@@A+5835076
	mov	ecx, eax
	movss	DWORD PTR tv92[ebp], xmm0
	call	??BVector4D@@QAEPAMXZ			; Vector4D::operator float *
	mov	edx, DWORD PTR _i$1[ebp]
	and	edx, -2147483645			; 80000003H
	jns	SHORT $LN7@HUD_BuildL
	dec	edx
	or	edx, -4					; fffffffcH
	inc	edx
$LN7@HUD_BuildL:
	movss	xmm0, DWORD PTR tv92[ebp]
	movss	DWORD PTR [eax+edx*4], xmm0
	jmp	SHORT $LN2@HUD_BuildL
$LN3@HUD_BuildL:
$LN1@HUD_BuildL:

; 106  : }

	pop	edi
	pop	esi
	pop	ebx
	mov	esp, ebp
	pop	ebp
	ret	0
?HUD_BuildLightmaps@@YAXXZ ENDP				; HUD_BuildLightmaps
_TEXT	ENDS
; Function compile flags: /Odtp /ZI
; File d:\!diffusion 2020\source code 2022\client-server\game_shared\vector.h
;	COMDAT ??BVector4D@@QAEPAMXZ
_TEXT	SEGMENT
_this$ = -4						; size = 4
??BVector4D@@QAEPAMXZ PROC				; Vector4D::operator float *, COMDAT
; _this$ = ecx

; 344  : 	operator float *()					{ return &x; }

	push	ebp
	mov	ebp, esp
	sub	esp, 68					; 00000044H
	push	ebx
	push	esi
	push	edi
	mov	DWORD PTR _this$[ebp], ecx
	mov	eax, DWORD PTR _this$[ebp]
	pop	edi
	pop	esi
	pop	ebx
	mov	esp, ebp
	pop	ebp
	ret	0
??BVector4D@@QAEPAMXZ ENDP				; Vector4D::operator float *
_TEXT	ENDS
; Function compile flags: /Odtp /ZI
;	COMDAT ??__G@YGXPAX0IIP6EPAX00@Z@Z
_TEXT	SEGMENT
tv66 = -68						; size = 4
___t$ = 8						; size = 4
___u$ = 12						; size = 4
___s$ = 16						; size = 4
___n$ = 20						; size = 4
___f$ = 24						; size = 4
??__G@YGXPAX0IIP6EPAX00@Z@Z PROC			; `vector copy constructor iterator', COMDAT
	push	ebp
	mov	ebp, esp
	sub	esp, 68					; 00000044H
	push	ebx
	push	esi
	push	edi
$LN2@vector:
	mov	eax, DWORD PTR ___n$[ebp]
	mov	DWORD PTR tv66[ebp], eax
	mov	ecx, DWORD PTR ___n$[ebp]
	sub	ecx, 1
	mov	DWORD PTR ___n$[ebp], ecx
	cmp	DWORD PTR tv66[ebp], 0
	jbe	SHORT $LN1@vector
	mov	eax, DWORD PTR ___u$[ebp]
	push	eax
	mov	ecx, DWORD PTR ___t$[ebp]
	call	DWORD PTR ___f$[ebp]
	mov	eax, DWORD PTR ___t$[ebp]
	add	eax, DWORD PTR ___s$[ebp]
	mov	DWORD PTR ___t$[ebp], eax
	mov	eax, DWORD PTR ___u$[ebp]
	add	eax, DWORD PTR ___s$[ebp]
	mov	DWORD PTR ___u$[ebp], eax
	jmp	SHORT $LN2@vector
$LN1@vector:
	pop	edi
	pop	esi
	pop	ebx
	mov	esp, ebp
	pop	ebp
	ret	20					; 00000014H
??__G@YGXPAX0IIP6EPAX00@Z@Z ENDP			; `vector copy constructor iterator'
_TEXT	ENDS
; Function compile flags: /Odtp /ZI
;	COMDAT ??_H@YGXPAXIIP6EPAX0@Z@Z
_TEXT	SEGMENT
tv66 = -68						; size = 4
___t$ = 8						; size = 4
___s$ = 12						; size = 4
___n$ = 16						; size = 4
___f$ = 20						; size = 4
??_H@YGXPAXIIP6EPAX0@Z@Z PROC				; `vector constructor iterator', COMDAT
	push	ebp
	mov	ebp, esp
	sub	esp, 68					; 00000044H
	push	ebx
	push	esi
	push	edi
$LN2@vector:
	mov	eax, DWORD PTR ___n$[ebp]
	mov	DWORD PTR tv66[ebp], eax
	mov	ecx, DWORD PTR ___n$[ebp]
	sub	ecx, 1
	mov	DWORD PTR ___n$[ebp], ecx
	cmp	DWORD PTR tv66[ebp], 0
	jbe	SHORT $LN1@vector
	mov	ecx, DWORD PTR ___t$[ebp]
	call	DWORD PTR ___f$[ebp]
	mov	eax, DWORD PTR ___t$[ebp]
	add	eax, DWORD PTR ___s$[ebp]
	mov	DWORD PTR ___t$[ebp], eax
	jmp	SHORT $LN2@vector
$LN1@vector:
	pop	edi
	pop	esi
	pop	ebx
	mov	esp, ebp
	pop	ebp
	ret	16					; 00000010H
??_H@YGXPAXIIP6EPAX0@Z@Z ENDP				; `vector constructor iterator'
_TEXT	ENDS
END
