; Listing generated by Microsoft (R) Optimizing Compiler Version 19.00.24247.2 

	TITLE	D:\!DIFFUSION 2020\source code 2022\client-server\client\render\r_subview.cpp
	.686P
	.XMM
	include listing.inc
	.model	flat

INCLUDELIB LIBCMT
INCLUDELIB OLDNAMES

PUBLIC	??_H@YGXPAXIIP6EPAX0@Z@Z			; `vector constructor iterator'
PUBLIC	??__G@YGXPAX0IIP6EPAX00@Z@Z			; `vector copy constructor iterator'
PUBLIC	?SinCos@@YAXMPAM0@Z				; SinCos
PUBLIC	??0Vector@@QAE@XZ				; Vector::Vector
PUBLIC	??0Vector@@QAE@MMM@Z				; Vector::Vector
PUBLIC	??0Vector@@QAE@ABV0@@Z				; Vector::Vector
PUBLIC	??GVector@@QBE?AV0@XZ				; Vector::operator-
PUBLIC	??8Vector@@QBEHABV0@@Z				; Vector::operator==
PUBLIC	??9Vector@@QBEHABV0@@Z				; Vector::operator!=
PUBLIC	??HVector@@QBE?AV0@ABV0@@Z			; Vector::operator+
PUBLIC	??GVector@@QBE?AV0@ABV0@@Z			; Vector::operator-
PUBLIC	??DVector@@QBE?AV0@M@Z				; Vector::operator*
PUBLIC	??YVector@@QAEAAV0@ABV0@@Z			; Vector::operator+=
PUBLIC	?Length@Vector@@QBEMXZ				; Vector::Length
PUBLIC	??BVector@@QAEPAMXZ				; Vector::operator float *
PUBLIC	??BVector@@QBEPBMXZ				; Vector::operator float const *
PUBLIC	?Normalize@Vector@@QBE?AV1@XZ			; Vector::Normalize
PUBLIC	??D@YA?AVVector@@MABV0@@Z			; operator*
PUBLIC	?DotProduct@@YAMABVVector@@0@Z			; DotProduct
PUBLIC	??0Vector4D@@QAE@XZ				; Vector4D::Vector4D
PUBLIC	??0Vector4D@@QAE@MMMM@Z				; Vector4D::Vector4D
PUBLIC	??0Vector4D@@QAE@ABV0@@Z			; Vector4D::Vector4D
PUBLIC	??0Vector4D@@QAE@ABVVector@@@Z			; Vector4D::Vector4D
PUBLIC	??BVector4D@@QAEPAMXZ				; Vector4D::operator float *
PUBLIC	??BVector4D@@QAE?AVVector@@XZ			; Vector4D::operator Vector
PUBLIC	??BVector4D@@QBE?BVVector@@XZ			; Vector4D::operator Vector const 
PUBLIC	?SetForward@matrix3x3@@QAEXABVVector@@@Z	; matrix3x3::SetForward
PUBLIC	?SetRight@matrix3x3@@QAEXABVVector@@@Z		; matrix3x3::SetRight
PUBLIC	?SetUp@matrix3x3@@QAEXABVVector@@@Z		; matrix3x3::SetUp
PUBLIC	?GetAngles@matrix3x3@@QAE?AVVector@@XZ		; matrix3x3::GetAngles
PUBLIC	??0matrix4x4@@QAE@ABVVector@@0M@Z		; matrix4x4::matrix4x4
PUBLIC	?GetForward@matrix4x4@@QBE?AVVector@@XZ		; matrix4x4::GetForward
PUBLIC	?SetForward@matrix4x4@@QAEXABVVector4D@@@Z	; matrix4x4::SetForward
PUBLIC	?SetRight@matrix4x4@@QAEXABVVector4D@@@Z	; matrix4x4::SetRight
PUBLIC	?SetUp@matrix4x4@@QAEXABVVector4D@@@Z		; matrix4x4::SetUp
PUBLIC	?SetOrigin@matrix4x4@@QAEXABVVector@@@Z		; matrix4x4::SetOrigin
PUBLIC	?GetOrigin@matrix4x4@@QAEXAAVVector@@@Z		; matrix4x4::GetOrigin
PUBLIC	?GetAngles@matrix4x4@@QAE?AVVector@@XZ		; matrix4x4::GetAngles
PUBLIC	?GetAngles@matrix4x4@@QAEXAAVVector@@@Z		; matrix4x4::GetAngles
PUBLIC	??0matrix4x4@@QAE@ABV0@@Z			; matrix4x4::matrix4x4
PUBLIC	?anglemod@@YAMM@Z				; anglemod
PUBLIC	??0mplane_s@@QAE@XZ				; mplane_s::mplane_s
PUBLIC	??0ref_params_s@@QAE@XZ				; ref_params_s::ref_params_s
PUBLIC	?R_RenderSubview@@YAXXZ				; R_RenderSubview
PUBLIC	?R_SetupMirrorView@@YAHPAUmsurface_s@@PAUcl_entity_s@@AAVmatrix4x4@@@Z ; R_SetupMirrorView
PUBLIC	?R_SetupPortalView@@YAHPAUmsurface_s@@PAUcl_entity_s@@AAVmatrix4x4@@@Z ; R_SetupPortalView
PUBLIC	?R_SetupScreenView@@YAHPAUmsurface_s@@PAUcl_entity_s@@AAVmatrix4x4@@@Z ; R_SetupScreenView
PUBLIC	?R_AllocateSubviewTexture@@YAHQAHH@Z		; R_AllocateSubviewTexture
PUBLIC	?R_CheckMirrorClone@@YA_NPAUmsurface_s@@0@Z	; R_CheckMirrorClone
PUBLIC	?R_CheckScreenSource@@YA_NPAUmsurface_s@@0@Z	; R_CheckScreenSource
PUBLIC	?R_CheckPortalSource@@YA_NPAUmsurface_s@@0@Z	; R_CheckPortalSource
PUBLIC	?R_CanSkipPass@@YA_NHPAUmsurface_s@@PAUref_instance_t@@@Z ; R_CanSkipPass
PUBLIC	?R_CalcSubviewMatrix@@YAXHABVmatrix4x4@@PAUcl_entity_s@@@Z ; R_CalcSubviewMatrix
PUBLIC	?R_DrawSubviewPasses@@YAXXZ			; R_DrawSubviewPasses
PUBLIC	?R_WorldFindMirrors@@YAXXZ			; R_WorldFindMirrors
PUBLIC	?R_FindBmodelSubview@@YAXPAUcl_entity_s@@@Z	; R_FindBmodelSubview
PUBLIC	?R_FindSubviewEnts@@YAXXZ			; R_FindSubviewEnts
PUBLIC	??_C@_0DM@PKAKDCBK@R_AllocSubviewTexture?3?5texture?5l@ ; `string'
PUBLIC	??_C@_0L@EIAPAJPJ@?$CKsubview?$CFi?$AA@		; `string'
PUBLIC	__real@00000000
PUBLIC	__real@3a83126f
PUBLIC	__real@3bb40000
PUBLIC	__real@3dcccccd
PUBLIC	__real@3e19999a
PUBLIC	__real@3eb33333
PUBLIC	__real@3f333333
PUBLIC	__real@3f800000
PUBLIC	__real@3f91df46a2529d39
PUBLIC	__real@3ff0000000000000
PUBLIC	__real@4040000000000000
PUBLIC	__real@41000000
PUBLIC	__real@41200000
PUBLIC	__real@42652ee1
PUBLIC	__real@42b40000
PUBLIC	__real@42f00000
PUBLIC	__real@43160000
PUBLIC	__real@43360b61
PUBLIC	__real@c0000000
PUBLIC	__xmm@80000000800000008000000080000000
EXTRN	_memcpy:PROC
EXTRN	_memset:PROC
EXTRN	_atan2:PROC
EXTRN	_cos:PROC
EXTRN	_fabs:PROC
EXTRN	_sin:PROC
EXTRN	_sqrt:PROC
EXTRN	??0matrix3x3@@QAE@XZ:PROC			; matrix3x3::matrix3x3
EXTRN	??0matrix4x4@@QAE@XZ:PROC			; matrix4x4::matrix4x4
EXTRN	?Identity@matrix4x4@@QAEXXZ:PROC		; matrix4x4::Identity
EXTRN	??4matrix4x4@@QAEAAV0@ABV0@@Z:PROC		; matrix4x4::operator=
EXTRN	?VectorTransform@matrix4x4@@QBE?AVVector@@ABV2@@Z:PROC ; matrix4x4::VectorTransform
EXTRN	?VectorITransform@matrix4x4@@QBE?AVVector@@ABV2@@Z:PROC ; matrix4x4::VectorITransform
EXTRN	?TransformPositivePlane@matrix4x4@@QAEXABUmplane_s@@AAU2@@Z:PROC ; matrix4x4::TransformPositivePlane
EXTRN	?Invert@matrix4x4@@QBE?AV1@XZ:PROC		; matrix4x4::Invert
EXTRN	?ConcatTransforms@matrix4x4@@QAE?AV1@V1@@Z:PROC	; matrix4x4::ConcatTransforms
EXTRN	?Concat@matrix4x4@@QAE?AV1@V1@@Z:PROC		; matrix4x4::Concat
EXTRN	?TransformAABB@@YAXABVmatrix4x4@@ABVVector@@1AAV2@2@Z:PROC ; TransformAABB
EXTRN	?NearestPOW@@YAHH_N@Z:PROC			; NearestPOW
EXTRN	?SetPlane@@YAXPAUmplane_s@@ABVVector@@M@Z:PROC	; SetPlane
EXTRN	?va@@YAPADPBDZZ:PROC				; va
EXTRN	?V_CalcFirstPersonRefdef@@YAXPAUref_params_s@@@Z:PROC ; V_CalcFirstPersonRefdef
EXTRN	?ALERT@@YAXW4ALERT_TYPE@@PADZZ:PROC		; ALERT
EXTRN	?Mod_CheckBoxVisible@@YA_NABVVector@@0@Z:PROC	; Mod_CheckBoxVisible
EXTRN	?UTIL_IsLocal@@YA_NH@Z:PROC			; UTIL_IsLocal
EXTRN	?SetPlane@CFrustum@@QAEXHABVVector@@M@Z:PROC	; CFrustum::SetPlane
EXTRN	?CullBox@CFrustum@@QAE_NABVVector@@0H@Z:PROC	; CFrustum::CullBox
EXTRN	?GL_Support@@YA_NH@Z:PROC			; GL_Support
EXTRN	?R_AllocFrameBuffer@@YAHQAH@Z:PROC		; R_AllocFrameBuffer
EXTRN	?GL_BindFrameBuffer@@YAXHH@Z:PROC		; GL_BindFrameBuffer
EXTRN	?GL_BindFBO@@YAXH@Z:PROC			; GL_BindFBO
EXTRN	?R_CullModel@@YA_NPAUcl_entity_s@@ABVVector@@1@Z:PROC ; R_CullModel
EXTRN	?R_CullSurfaceExt@@YAHPAUmsurface_s@@PAVCFrustum@@@Z:PROC ; R_CullSurfaceExt
EXTRN	?R_SetupProjectionMatrix@@YAXMMAAVmatrix4x4@@@Z:PROC ; R_SetupProjectionMatrix
EXTRN	?R_SetupModelviewMatrix@@YAXAAVmatrix4x4@@@Z:PROC ; R_SetupModelviewMatrix
EXTRN	?R_RenderScene@@YAXXZ:PROC			; R_RenderScene
EXTRN	?R_FindViewLeaf@@YAXXZ:PROC			; R_FindViewLeaf
EXTRN	?R_SetupFrustum@@YAXXZ:PROC			; R_SetupFrustum
EXTRN	?R_ResetRefState@@YAXXZ:PROC			; R_ResetRefState
EXTRN	?R_PushRefState@@YAXXZ:PROC			; R_PushRefState
EXTRN	?R_PopRefState@@YAXXZ:PROC			; R_PopRefState
EXTRN	?R_GetPrevInstance@@YAPAUref_instance_t@@XZ:PROC ; R_GetPrevInstance
EXTRN	?R_MarkLeaves@@YAXXZ:PROC			; R_MarkLeaves
EXTRN	?V_CalcFov@@YAMAAMMM@Z:PROC			; V_CalcFov
EXTRN	@__security_check_cookie@4:PROC
EXTRN	__ftoui3:PROC
EXTRN	?g_vecZero@@3VVector@@B:BYTE			; g_vecZero
EXTRN	?gEngfuncs@@3Ucl_enginefuncs_s@@A:BYTE		; gEngfuncs
EXTRN	?gRenderfuncs@@3Urender_api_s@@A:BYTE		; gRenderfuncs
EXTRN	?r_currentMessageNum@@3HA:DWORD			; r_currentMessageNum
EXTRN	?pglCopyTexImage2D@@3P6GXIHIHHHHH@ZA:DWORD	; pglCopyTexImage2D
EXTRN	?gl_allow_portals@@3PAUcvar_s@@A:DWORD		; gl_allow_portals
EXTRN	?gl_allow_screens@@3PAUcvar_s@@A:DWORD		; gl_allow_screens
EXTRN	?r_recursion_depth@@3PAUcvar_s@@A:DWORD		; r_recursion_depth
EXTRN	?r_mirrorquality@@3PAUcvar_s@@A:DWORD		; r_mirrorquality
EXTRN	?gl_water_planar@@3PAUcvar_s@@A:DWORD		; gl_water_planar
EXTRN	?IEngineStudio@@3Uengine_studio_api_s@@A:BYTE	; IEngineStudio
EXTRN	?worldmodel@@3PAUmodel_s@@A:DWORD		; worldmodel
EXTRN	?RI@@3PAUref_instance_t@@A:DWORD		; RI
EXTRN	?tr@@3Uref_globals_t@@A:BYTE			; tr
EXTRN	?r_stats@@3Uref_stats_t@@A:BYTE			; r_stats
EXTRN	?glState@@3UglState_t@@A:BYTE			; glState
EXTRN	?world@@3PAUgl_world_t@@A:DWORD			; world
EXTRN	___security_cookie:DWORD
EXTRN	__fltused:DWORD
;	COMDAT __xmm@80000000800000008000000080000000
CONST	SEGMENT
__xmm@80000000800000008000000080000000 DB 00H, 00H, 00H, 080H, 00H, 00H, 00H
	DB	080H, 00H, 00H, 00H, 080H, 00H, 00H, 00H, 080H
CONST	ENDS
;	COMDAT __real@c0000000
CONST	SEGMENT
__real@c0000000 DD 0c0000000r			; -2
CONST	ENDS
;	COMDAT __real@43360b61
CONST	SEGMENT
__real@43360b61 DD 043360b61r			; 182.044
CONST	ENDS
;	COMDAT __real@43160000
CONST	SEGMENT
__real@43160000 DD 043160000r			; 150
CONST	ENDS
;	COMDAT __real@42f00000
CONST	SEGMENT
__real@42f00000 DD 042f00000r			; 120
CONST	ENDS
;	COMDAT __real@42b40000
CONST	SEGMENT
__real@42b40000 DD 042b40000r			; 90
CONST	ENDS
;	COMDAT __real@42652ee1
CONST	SEGMENT
__real@42652ee1 DD 042652ee1r			; 57.2958
CONST	ENDS
;	COMDAT __real@41200000
CONST	SEGMENT
__real@41200000 DD 041200000r			; 10
CONST	ENDS
;	COMDAT __real@41000000
CONST	SEGMENT
__real@41000000 DD 041000000r			; 8
CONST	ENDS
;	COMDAT __real@4040000000000000
CONST	SEGMENT
__real@4040000000000000 DQ 04040000000000000r	; 32
CONST	ENDS
;	COMDAT __real@3ff0000000000000
CONST	SEGMENT
__real@3ff0000000000000 DQ 03ff0000000000000r	; 1
CONST	ENDS
;	COMDAT __real@3f91df46a2529d39
CONST	SEGMENT
__real@3f91df46a2529d39 DQ 03f91df46a2529d39r	; 0.0174533
CONST	ENDS
;	COMDAT __real@3f800000
CONST	SEGMENT
__real@3f800000 DD 03f800000r			; 1
CONST	ENDS
;	COMDAT __real@3f333333
CONST	SEGMENT
__real@3f333333 DD 03f333333r			; 0.7
CONST	ENDS
;	COMDAT __real@3eb33333
CONST	SEGMENT
__real@3eb33333 DD 03eb33333r			; 0.35
CONST	ENDS
;	COMDAT __real@3e19999a
CONST	SEGMENT
__real@3e19999a DD 03e19999ar			; 0.15
CONST	ENDS
;	COMDAT __real@3dcccccd
CONST	SEGMENT
__real@3dcccccd DD 03dcccccdr			; 0.1
CONST	ENDS
;	COMDAT __real@3bb40000
CONST	SEGMENT
__real@3bb40000 DD 03bb40000r			; 0.00549316
CONST	ENDS
;	COMDAT __real@3a83126f
CONST	SEGMENT
__real@3a83126f DD 03a83126fr			; 0.001
CONST	ENDS
;	COMDAT __real@00000000
CONST	SEGMENT
__real@00000000 DD 000000000r			; 0
CONST	ENDS
;	COMDAT ??_C@_0L@EIAPAJPJ@?$CKsubview?$CFi?$AA@
CONST	SEGMENT
??_C@_0L@EIAPAJPJ@?$CKsubview?$CFi?$AA@ DB '*subview%i', 00H ; `string'
CONST	ENDS
;	COMDAT ??_C@_0DM@PKAKDCBK@R_AllocSubviewTexture?3?5texture?5l@
CONST	SEGMENT
??_C@_0DM@PKAKDCBK@R_AllocSubviewTexture?3?5texture?5l@ DB 'R_AllocSubvie'
	DB	'wTexture: texture limit exceeded (per frame)!', 0aH, 00H ; `string'
CONST	ENDS
; Function compile flags: /Odtp /ZI
; File d:\!diffusion 2020\source code 2022\client-server\client\render\r_subview.cpp
;	COMDAT ?R_FindSubviewEnts@@YAXXZ
_TEXT	SEGMENT
_i$ = -4						; size = 4
?R_FindSubviewEnts@@YAXXZ PROC				; R_FindSubviewEnts, COMDAT

; 794  : {

	push	ebp
	mov	ebp, esp
	sub	esp, 68					; 00000044H
	push	ebx
	push	esi
	push	edi

; 795  : 	int	i;
; 796  : 
; 797  : 	// check solid entities
; 798  : 	for( i = 0; i < tr.num_solid_entities; i++ )

	mov	DWORD PTR _i$[ebp], 0
	jmp	SHORT $LN4@R_FindSubv
$LN2@R_FindSubv:
	mov	eax, DWORD PTR _i$[ebp]
	add	eax, 1
	mov	DWORD PTR _i$[ebp], eax
$LN4@R_FindSubv:
	mov	eax, DWORD PTR _i$[ebp]
	cmp	eax, DWORD PTR ?tr@@3Uref_globals_t@@A+4765684
	jge	SHORT $LN3@R_FindSubv

; 799  : 	{
; 800  : 		RI->currententity = tr.solid_entities[i];

	mov	eax, DWORD PTR ?RI@@3PAUref_instance_t@@A ; RI
	mov	ecx, DWORD PTR _i$[ebp]
	mov	edx, DWORD PTR ?tr@@3Uref_globals_t@@A[ecx*4+4732148]
	mov	DWORD PTR [eax+16], edx

; 801  : 		RI->currentmodel = RI->currententity->model;

	mov	eax, DWORD PTR ?RI@@3PAUref_instance_t@@A ; RI
	mov	ecx, DWORD PTR [eax+16]
	mov	edx, DWORD PTR ?RI@@3PAUref_instance_t@@A ; RI
	mov	eax, DWORD PTR [ecx+2964]
	mov	DWORD PTR [edx+20], eax

; 802  : 
; 803  : 		if( RI->currentmodel->type != mod_brush )

	mov	eax, DWORD PTR ?RI@@3PAUref_instance_t@@A ; RI
	mov	ecx, DWORD PTR [eax+20]
	cmp	DWORD PTR [ecx+68], 0
	je	SHORT $LN8@R_FindSubv

; 804  : 			continue;

	jmp	SHORT $LN2@R_FindSubv
$LN8@R_FindSubv:

; 805  : 
; 806  : 		if( RI->num_subview_faces >= MAX_SUBVIEWS )

	mov	eax, DWORD PTR ?RI@@3PAUref_instance_t@@A ; RI
	cmp	DWORD PTR [eax+14000], 256		; 00000100H
	jl	SHORT $LN9@R_FindSubv

; 807  : 			return; // limit is out

	jmp	$LN1@R_FindSubv
$LN9@R_FindSubv:

; 808  : 
; 809  : 		R_FindBmodelSubview( RI->currententity );

	mov	eax, DWORD PTR ?RI@@3PAUref_instance_t@@A ; RI
	mov	ecx, DWORD PTR [eax+16]
	push	ecx
	call	?R_FindBmodelSubview@@YAXPAUcl_entity_s@@@Z ; R_FindBmodelSubview
	add	esp, 4

; 810  : 	}

	jmp	SHORT $LN2@R_FindSubv
$LN3@R_FindSubv:

; 811  : 
; 812  : 	// check translucent entities
; 813  : 	for( i = 0; i < tr.num_trans_entities; i++ )

	mov	DWORD PTR _i$[ebp], 0
	jmp	SHORT $LN7@R_FindSubv
$LN5@R_FindSubv:
	mov	eax, DWORD PTR _i$[ebp]
	add	eax, 1
	mov	DWORD PTR _i$[ebp], eax
$LN7@R_FindSubv:
	mov	eax, DWORD PTR _i$[ebp]
	cmp	eax, DWORD PTR ?tr@@3Uref_globals_t@@A+4765688
	jge	SHORT $LN1@R_FindSubv

; 814  : 	{
; 815  : 		RI->currententity = tr.trans_entities[i];

	mov	eax, DWORD PTR ?RI@@3PAUref_instance_t@@A ; RI
	mov	ecx, DWORD PTR _i$[ebp]
	mov	edx, DWORD PTR ?tr@@3Uref_globals_t@@A[ecx*4+4748532]
	mov	DWORD PTR [eax+16], edx

; 816  : 		RI->currentmodel = RI->currententity->model;

	mov	eax, DWORD PTR ?RI@@3PAUref_instance_t@@A ; RI
	mov	ecx, DWORD PTR [eax+16]
	mov	edx, DWORD PTR ?RI@@3PAUref_instance_t@@A ; RI
	mov	eax, DWORD PTR [ecx+2964]
	mov	DWORD PTR [edx+20], eax

; 817  : 	
; 818  : 		if( RI->currentmodel->type != mod_brush )

	mov	eax, DWORD PTR ?RI@@3PAUref_instance_t@@A ; RI
	mov	ecx, DWORD PTR [eax+20]
	cmp	DWORD PTR [ecx+68], 0
	je	SHORT $LN10@R_FindSubv

; 819  : 			continue;

	jmp	SHORT $LN5@R_FindSubv
$LN10@R_FindSubv:

; 820  : 
; 821  : 		if( RI->num_subview_faces >= MAX_SUBVIEWS )

	mov	eax, DWORD PTR ?RI@@3PAUref_instance_t@@A ; RI
	cmp	DWORD PTR [eax+14000], 256		; 00000100H
	jl	SHORT $LN11@R_FindSubv

; 822  : 			return; // limit is out

	jmp	SHORT $LN1@R_FindSubv
$LN11@R_FindSubv:

; 823  : 
; 824  : 		R_FindBmodelSubview( RI->currententity );

	mov	eax, DWORD PTR ?RI@@3PAUref_instance_t@@A ; RI
	mov	ecx, DWORD PTR [eax+16]
	push	ecx
	call	?R_FindBmodelSubview@@YAXPAUcl_entity_s@@@Z ; R_FindBmodelSubview
	add	esp, 4

; 825  : 	}

	jmp	SHORT $LN5@R_FindSubv
$LN1@R_FindSubv:

; 826  : }

	pop	edi
	pop	esi
	pop	ebx
	mov	esp, ebp
	pop	ebp
	ret	0
?R_FindSubviewEnts@@YAXXZ ENDP				; R_FindSubviewEnts
_TEXT	ENDS
; Function compile flags: /Odtp /ZI
; File d:\!diffusion 2020\source code 2022\client-server\client\render\r_subview.cpp
;	COMDAT ?R_FindBmodelSubview@@YAXPAUcl_entity_s@@@Z
_TEXT	SEGMENT
tv226 = -213						; size = 1
tv217 = -213						; size = 1
tv208 = -213						; size = 1
$T1 = -212						; size = 12
$T2 = -200						; size = 12
$T3 = -188						; size = 12
$T4 = -176						; size = 12
$T5 = -164						; size = 12
$T6 = -152						; size = 12
$T7 = -140						; size = 12
_i$8 = -64						; size = 4
_glm$ = -60						; size = 4
_plane$ = -56						; size = 20
_psurf$ = -36						; size = 4
_clmodel$ = -32						; size = 4
_absmax$ = -28						; size = 12
_absmin$ = -16						; size = 12
__$ArrayPad$ = -4					; size = 4
_e$ = 8							; size = 4
?R_FindBmodelSubview@@YAXPAUcl_entity_s@@@Z PROC	; R_FindBmodelSubview, COMDAT

; 697  : {

	push	ebp
	mov	ebp, esp
	sub	esp, 216				; 000000d8H
	mov	eax, DWORD PTR ___security_cookie
	xor	eax, ebp
	mov	DWORD PTR __$ArrayPad$[ebp], eax
	push	ebx
	push	esi
	push	edi

; 698  : 	Vector		absmin, absmax;

	lea	ecx, DWORD PTR _absmin$[ebp]
	call	??0Vector@@QAE@XZ			; Vector::Vector
	lea	ecx, DWORD PTR _absmax$[ebp]
	call	??0Vector@@QAE@XZ			; Vector::Vector

; 699  : 	model_t		*clmodel;
; 700  : 	msurface_t	*psurf;
; 701  : 	mplane_t		plane;

	lea	ecx, DWORD PTR _plane$[ebp]
	call	??0mplane_s@@QAE@XZ

; 702  : 
; 703  : 	clmodel = e->model;

	mov	eax, DWORD PTR _e$[ebp]
	mov	ecx, DWORD PTR [eax+2964]
	mov	DWORD PTR _clmodel$[ebp], ecx

; 704  : 
; 705  : 	// disabled screen
; 706  : 	if( FBitSet( e->curstate.effects, EF_SCREEN ) && !e->curstate.body )

	mov	eax, DWORD PTR _e$[ebp]
	mov	ecx, DWORD PTR [eax+748]
	and	ecx, 1024				; 00000400H
	je	SHORT $LN5@R_FindBmod
	mov	eax, DWORD PTR _e$[ebp]
	cmp	DWORD PTR [eax+788], 0
	jne	SHORT $LN5@R_FindBmod

; 707  : 		return;

	jmp	$LN1@R_FindBmod
$LN5@R_FindBmod:

; 708  : 
; 709  : 	gl_state_t *glm = &tr.cached_state[e->hCachedMatrix];

	mov	eax, DWORD PTR _e$[ebp]
	movzx	ecx, WORD PTR [eax+2976]
	shl	ecx, 7
	add	ecx, OFFSET ?tr@@3Uref_globals_t@@A+6892
	mov	DWORD PTR _glm$[ebp], ecx

; 710  : 
; 711  : 	if( e->angles != g_vecZero )

	push	OFFSET ?g_vecZero@@3VVector@@B		; g_vecZero
	mov	ecx, DWORD PTR _e$[ebp]
	add	ecx, 2900				; 00000b54H
	call	??9Vector@@QBEHABV0@@Z			; Vector::operator!=
	test	eax, eax
	je	SHORT $LN6@R_FindBmod

; 712  : 	{
; 713  : 		// cull portals accuracy
; 714  : 		TransformAABB( glm->transform, clmodel->mins, clmodel->maxs, absmin, absmax );

	lea	eax, DWORD PTR _absmax$[ebp]
	push	eax
	lea	ecx, DWORD PTR _absmin$[ebp]
	push	ecx
	mov	edx, DWORD PTR _clmodel$[ebp]
	add	edx, 96					; 00000060H
	push	edx
	mov	eax, DWORD PTR _clmodel$[ebp]
	add	eax, 84					; 00000054H
	push	eax
	mov	ecx, DWORD PTR _glm$[ebp]
	add	ecx, 64					; 00000040H
	push	ecx
	call	?TransformAABB@@YAXABVmatrix4x4@@ABVVector@@1AAV2@2@Z ; TransformAABB
	add	esp, 20					; 00000014H

; 715  : 	}
; 716  : 	else

	jmp	SHORT $LN7@R_FindBmod
$LN6@R_FindBmod:

; 717  : 	{
; 718  : 		absmin = e->origin + clmodel->mins;

	mov	eax, DWORD PTR _clmodel$[ebp]
	add	eax, 84					; 00000054H
	push	eax
	lea	ecx, DWORD PTR $T7[ebp]
	push	ecx
	mov	ecx, DWORD PTR _e$[ebp]
	add	ecx, 2888				; 00000b48H
	call	??HVector@@QBE?AV0@ABV0@@Z		; Vector::operator+
	mov	edx, DWORD PTR [eax]
	mov	DWORD PTR _absmin$[ebp], edx
	mov	ecx, DWORD PTR [eax+4]
	mov	DWORD PTR _absmin$[ebp+4], ecx
	mov	edx, DWORD PTR [eax+8]
	mov	DWORD PTR _absmin$[ebp+8], edx

; 719  : 		absmax = e->origin + clmodel->maxs;

	mov	eax, DWORD PTR _clmodel$[ebp]
	add	eax, 96					; 00000060H
	push	eax
	lea	ecx, DWORD PTR $T6[ebp]
	push	ecx
	mov	ecx, DWORD PTR _e$[ebp]
	add	ecx, 2888				; 00000b48H
	call	??HVector@@QBE?AV0@ABV0@@Z		; Vector::operator+
	mov	edx, DWORD PTR [eax]
	mov	DWORD PTR _absmax$[ebp], edx
	mov	ecx, DWORD PTR [eax+4]
	mov	DWORD PTR _absmax$[ebp+4], ecx
	mov	edx, DWORD PTR [eax+8]
	mov	DWORD PTR _absmax$[ebp+8], edx
$LN7@R_FindBmod:

; 720  : 	}
; 721  : 
; 722  : 	if( !Mod_CheckBoxVisible( absmin, absmax ))

	lea	eax, DWORD PTR _absmax$[ebp]
	push	eax
	lea	ecx, DWORD PTR _absmin$[ebp]
	push	ecx
	call	?Mod_CheckBoxVisible@@YA_NABVVector@@0@Z ; Mod_CheckBoxVisible
	add	esp, 8
	movzx	edx, al
	test	edx, edx
	jne	SHORT $LN8@R_FindBmod

; 723  : 		return;

	jmp	$LN1@R_FindBmod
$LN8@R_FindBmod:

; 724  : 
; 725  : 	if( R_CullModel( e, absmin, absmax ))

	lea	eax, DWORD PTR _absmax$[ebp]
	push	eax
	lea	ecx, DWORD PTR _absmin$[ebp]
	push	ecx
	mov	edx, DWORD PTR _e$[ebp]
	push	edx
	call	?R_CullModel@@YA_NPAUcl_entity_s@@ABVVector@@1@Z ; R_CullModel
	add	esp, 12					; 0000000cH
	movzx	eax, al
	test	eax, eax
	je	SHORT $LN9@R_FindBmod

; 726  : 		return;

	jmp	$LN1@R_FindBmod
$LN9@R_FindBmod:

; 727  : 
; 728  : 	if( FBitSet( e->curstate.effects, EF_SCREEN|EF_PORTAL ))

	mov	eax, DWORD PTR _e$[ebp]
	mov	ecx, DWORD PTR [eax+748]
	and	ecx, 1536				; 00000600H
	je	$LN10@R_FindBmod

; 729  : 	{
; 730  : 		if( e->angles != g_vecZero )

	push	OFFSET ?g_vecZero@@3VVector@@B		; g_vecZero
	mov	ecx, DWORD PTR _e$[ebp]
	add	ecx, 2900				; 00000b54H
	call	??9Vector@@QBEHABV0@@Z			; Vector::operator!=
	test	eax, eax
	je	SHORT $LN12@R_FindBmod

; 731  : 			tr.modelorg = glm->transform.VectorITransform( RI->vieworg );

	mov	eax, DWORD PTR ?RI@@3PAUref_instance_t@@A ; RI
	add	eax, 204				; 000000ccH
	push	eax
	lea	ecx, DWORD PTR $T5[ebp]
	push	ecx
	mov	ecx, DWORD PTR _glm$[ebp]
	add	ecx, 64					; 00000040H
	call	?VectorITransform@matrix4x4@@QBE?AVVector@@ABV2@@Z ; matrix4x4::VectorITransform
	mov	edx, DWORD PTR [eax]
	mov	DWORD PTR ?tr@@3Uref_globals_t@@A+5852544, edx
	mov	ecx, DWORD PTR [eax+4]
	mov	DWORD PTR ?tr@@3Uref_globals_t@@A+5852548, ecx
	mov	edx, DWORD PTR [eax+8]
	mov	DWORD PTR ?tr@@3Uref_globals_t@@A+5852552, edx
	jmp	SHORT $LN13@R_FindBmod
$LN12@R_FindBmod:

; 732  : 		else tr.modelorg = RI->vieworg - e->origin;

	mov	eax, DWORD PTR _e$[ebp]
	add	eax, 2888				; 00000b48H
	push	eax
	lea	ecx, DWORD PTR $T4[ebp]
	push	ecx
	mov	ecx, DWORD PTR ?RI@@3PAUref_instance_t@@A ; RI
	add	ecx, 204				; 000000ccH
	call	??GVector@@QBE?AV0@ABV0@@Z		; Vector::operator-
	mov	edx, DWORD PTR [eax]
	mov	DWORD PTR ?tr@@3Uref_globals_t@@A+5852544, edx
	mov	ecx, DWORD PTR [eax+4]
	mov	DWORD PTR ?tr@@3Uref_globals_t@@A+5852548, ecx
	mov	edx, DWORD PTR [eax+8]
	mov	DWORD PTR ?tr@@3Uref_globals_t@@A+5852552, edx
$LN13@R_FindBmod:

; 733  : 	}
; 734  : 	else

	jmp	$LN15@R_FindBmod
$LN10@R_FindBmod:

; 735  : 	{
; 736  : 		// mirror handled by pvsorigin
; 737  : 		if( e->angles != g_vecZero )

	push	OFFSET ?g_vecZero@@3VVector@@B		; g_vecZero
	mov	ecx, DWORD PTR _e$[ebp]
	add	ecx, 2900				; 00000b54H
	call	??9Vector@@QBEHABV0@@Z			; Vector::operator!=
	test	eax, eax
	je	SHORT $LN14@R_FindBmod

; 738  : 			tr.modelorg = glm->transform.VectorITransform( RI->pvsorigin );

	mov	eax, DWORD PTR ?RI@@3PAUref_instance_t@@A ; RI
	add	eax, 180				; 000000b4H
	push	eax
	lea	ecx, DWORD PTR $T3[ebp]
	push	ecx
	mov	ecx, DWORD PTR _glm$[ebp]
	add	ecx, 64					; 00000040H
	call	?VectorITransform@matrix4x4@@QBE?AVVector@@ABV2@@Z ; matrix4x4::VectorITransform
	mov	edx, DWORD PTR [eax]
	mov	DWORD PTR ?tr@@3Uref_globals_t@@A+5852544, edx
	mov	ecx, DWORD PTR [eax+4]
	mov	DWORD PTR ?tr@@3Uref_globals_t@@A+5852548, ecx
	mov	edx, DWORD PTR [eax+8]
	mov	DWORD PTR ?tr@@3Uref_globals_t@@A+5852552, edx
	jmp	SHORT $LN15@R_FindBmod
$LN14@R_FindBmod:

; 739  : 		else tr.modelorg = RI->pvsorigin - e->origin;

	mov	eax, DWORD PTR _e$[ebp]
	add	eax, 2888				; 00000b48H
	push	eax
	lea	ecx, DWORD PTR $T2[ebp]
	push	ecx
	mov	ecx, DWORD PTR ?RI@@3PAUref_instance_t@@A ; RI
	add	ecx, 180				; 000000b4H
	call	??GVector@@QBE?AV0@ABV0@@Z		; Vector::operator-
	mov	edx, DWORD PTR [eax]
	mov	DWORD PTR ?tr@@3Uref_globals_t@@A+5852544, edx
	mov	ecx, DWORD PTR [eax+4]
	mov	DWORD PTR ?tr@@3Uref_globals_t@@A+5852548, ecx
	mov	edx, DWORD PTR [eax+8]
	mov	DWORD PTR ?tr@@3Uref_globals_t@@A+5852552, edx
$LN15@R_FindBmod:

; 740  : 	}
; 741  : 
; 742  : 	psurf = &clmodel->surfaces[clmodel->firstmodelsurface];

	mov	eax, DWORD PTR _clmodel$[ebp]
	imul	ecx, DWORD PTR [eax+112], 92
	mov	edx, DWORD PTR _clmodel$[ebp]
	add	ecx, DWORD PTR [edx+180]
	mov	DWORD PTR _psurf$[ebp], ecx

; 743  : 	for( int i = 0; i < clmodel->nummodelsurfaces; i++, psurf++ )

	mov	DWORD PTR _i$8[ebp], 0
	jmp	SHORT $LN4@R_FindBmod
$LN2@R_FindBmod:
	mov	eax, DWORD PTR _i$8[ebp]
	add	eax, 1
	mov	DWORD PTR _i$8[ebp], eax
	mov	ecx, DWORD PTR _psurf$[ebp]
	add	ecx, 92					; 0000005cH
	mov	DWORD PTR _psurf$[ebp], ecx
$LN4@R_FindBmod:
	mov	eax, DWORD PTR _clmodel$[ebp]
	mov	ecx, DWORD PTR _i$8[ebp]
	cmp	ecx, DWORD PTR [eax+116]
	jge	$LN3@R_FindBmod

; 744  : 	{
; 745  : 		// not a subview faces
; 746  : 		if( !FBitSet( psurf->flags, SURF_REFLECT|SURF_PORTAL|SURF_SCREEN ))

	mov	eax, DWORD PTR _psurf$[ebp]
	mov	ecx, DWORD PTR [eax+8]
	and	ecx, -2147482112			; 80000600H
	jne	SHORT $LN16@R_FindBmod

; 747  : 			continue;

	jmp	SHORT $LN2@R_FindBmod
$LN16@R_FindBmod:

; 748  : 
; 749  : 		if( FBitSet( psurf->flags, SURF_REFLECT ) && !CVAR_TO_BOOL( r_mirrorquality ))

	mov	eax, DWORD PTR _psurf$[ebp]
	mov	ecx, DWORD PTR [eax+8]
	and	ecx, -2147483648			; 80000000H
	je	SHORT $LN17@R_FindBmod
	cmp	DWORD PTR ?r_mirrorquality@@3PAUcvar_s@@A, 0 ; r_mirrorquality
	je	SHORT $LN29@R_FindBmod
	mov	eax, DWORD PTR ?r_mirrorquality@@3PAUcvar_s@@A ; r_mirrorquality
	movss	xmm0, DWORD PTR [eax+12]
	ucomiss	xmm0, DWORD PTR __real@00000000
	lahf
	test	ah, 68					; 00000044H
	jnp	SHORT $LN29@R_FindBmod
	mov	BYTE PTR tv208[ebp], 1
	jmp	SHORT $LN30@R_FindBmod
$LN29@R_FindBmod:
	mov	BYTE PTR tv208[ebp], 0
$LN30@R_FindBmod:
	movzx	ecx, BYTE PTR tv208[ebp]
	test	ecx, ecx
	jne	SHORT $LN17@R_FindBmod

; 750  : 			continue;

	jmp	SHORT $LN2@R_FindBmod
$LN17@R_FindBmod:

; 751  : 
; 752  : 		if( FBitSet( psurf->flags, SURF_SCREEN ) && !CVAR_TO_BOOL( gl_allow_screens ))

	mov	eax, DWORD PTR _psurf$[ebp]
	mov	ecx, DWORD PTR [eax+8]
	and	ecx, 1024				; 00000400H
	je	SHORT $LN18@R_FindBmod
	cmp	DWORD PTR ?gl_allow_screens@@3PAUcvar_s@@A, 0 ; gl_allow_screens
	je	SHORT $LN31@R_FindBmod
	mov	eax, DWORD PTR ?gl_allow_screens@@3PAUcvar_s@@A ; gl_allow_screens
	movss	xmm0, DWORD PTR [eax+12]
	ucomiss	xmm0, DWORD PTR __real@00000000
	lahf
	test	ah, 68					; 00000044H
	jnp	SHORT $LN31@R_FindBmod
	mov	BYTE PTR tv217[ebp], 1
	jmp	SHORT $LN32@R_FindBmod
$LN31@R_FindBmod:
	mov	BYTE PTR tv217[ebp], 0
$LN32@R_FindBmod:
	movzx	ecx, BYTE PTR tv217[ebp]
	test	ecx, ecx
	jne	SHORT $LN18@R_FindBmod

; 753  : 			continue;

	jmp	$LN2@R_FindBmod
$LN18@R_FindBmod:

; 754  : 
; 755  : 		if( FBitSet( psurf->flags, SURF_PORTAL ) && !CVAR_TO_BOOL( gl_allow_portals ))

	mov	eax, DWORD PTR _psurf$[ebp]
	mov	ecx, DWORD PTR [eax+8]
	and	ecx, 512				; 00000200H
	je	SHORT $LN19@R_FindBmod
	cmp	DWORD PTR ?gl_allow_portals@@3PAUcvar_s@@A, 0 ; gl_allow_portals
	je	SHORT $LN33@R_FindBmod
	mov	eax, DWORD PTR ?gl_allow_portals@@3PAUcvar_s@@A ; gl_allow_portals
	movss	xmm0, DWORD PTR [eax+12]
	ucomiss	xmm0, DWORD PTR __real@00000000
	lahf
	test	ah, 68					; 00000044H
	jnp	SHORT $LN33@R_FindBmod
	mov	BYTE PTR tv226[ebp], 1
	jmp	SHORT $LN34@R_FindBmod
$LN33@R_FindBmod:
	mov	BYTE PTR tv226[ebp], 0
$LN34@R_FindBmod:
	movzx	ecx, BYTE PTR tv226[ebp]
	test	ecx, ecx
	jne	SHORT $LN19@R_FindBmod

; 756  : 			continue;

	jmp	$LN2@R_FindBmod
$LN19@R_FindBmod:

; 757  : 
; 758  : 		if( FBitSet( psurf->flags, SURF_WATER ))

	mov	eax, DWORD PTR _psurf$[ebp]
	mov	ecx, DWORD PTR [eax+8]
	and	ecx, 16					; 00000010H
	je	$LN25@R_FindBmod

; 759  : 		{
; 760  : 			if( FBitSet( psurf->flags, SURF_PLANEBACK ))

	mov	eax, DWORD PTR _psurf$[ebp]
	mov	ecx, DWORD PTR [eax+8]
	and	ecx, 2
	je	SHORT $LN21@R_FindBmod

; 761  : 				SetPlane( &plane, -psurf->plane->normal, -psurf->plane->dist );

	mov	eax, DWORD PTR _psurf$[ebp]
	mov	ecx, DWORD PTR [eax+4]
	movss	xmm0, DWORD PTR [ecx+12]
	xorps	xmm0, DWORD PTR __xmm@80000000800000008000000080000000
	push	ecx
	movss	DWORD PTR [esp], xmm0
	lea	edx, DWORD PTR $T1[ebp]
	push	edx
	mov	eax, DWORD PTR _psurf$[ebp]
	mov	ecx, DWORD PTR [eax+4]
	call	??GVector@@QBE?AV0@XZ			; Vector::operator-
	push	eax
	lea	ecx, DWORD PTR _plane$[ebp]
	push	ecx
	call	?SetPlane@@YAXPAUmplane_s@@ABVVector@@M@Z ; SetPlane
	add	esp, 12					; 0000000cH
	jmp	SHORT $LN22@R_FindBmod
$LN21@R_FindBmod:

; 762  : 			else SetPlane( &plane, psurf->plane->normal, psurf->plane->dist );

	mov	eax, DWORD PTR _psurf$[ebp]
	mov	ecx, DWORD PTR [eax+4]
	push	ecx
	movss	xmm0, DWORD PTR [ecx+12]
	movss	DWORD PTR [esp], xmm0
	mov	edx, DWORD PTR _psurf$[ebp]
	mov	eax, DWORD PTR [edx+4]
	push	eax
	lea	ecx, DWORD PTR _plane$[ebp]
	push	ecx
	call	?SetPlane@@YAXPAUmplane_s@@ABVVector@@M@Z ; SetPlane
	add	esp, 12					; 0000000cH
$LN22@R_FindBmod:

; 763  : 
; 764  : 			if( e->hCachedMatrix != WORLD_MATRIX )

	mov	eax, DWORD PTR _e$[ebp]
	movzx	ecx, WORD PTR [eax+2976]
	test	ecx, ecx
	je	SHORT $LN23@R_FindBmod

; 765  : 				glm->transform.TransformPositivePlane( plane, plane );

	lea	eax, DWORD PTR _plane$[ebp]
	push	eax
	lea	ecx, DWORD PTR _plane$[ebp]
	push	ecx
	mov	ecx, DWORD PTR _glm$[ebp]
	add	ecx, 64					; 00000040H
	call	?TransformPositivePlane@matrix4x4@@QAEXABUmplane_s@@AAU2@@Z ; matrix4x4::TransformPositivePlane
$LN23@R_FindBmod:

; 766  : 
; 767  : 			if( psurf->plane->type != PLANE_Z && !FBitSet( e->curstate.effects, EF_WATERSIDES ))

	mov	eax, DWORD PTR _psurf$[ebp]
	mov	ecx, DWORD PTR [eax+4]
	movzx	edx, BYTE PTR [ecx+16]
	cmp	edx, 2
	je	SHORT $LN24@R_FindBmod
	mov	eax, DWORD PTR _e$[ebp]
	mov	ecx, DWORD PTR [eax+748]
	and	ecx, 67108864				; 04000000H
	jne	SHORT $LN24@R_FindBmod

; 768  : 				continue;

	jmp	$LN2@R_FindBmod
$LN24@R_FindBmod:

; 769  : 
; 770  : 			if( absmin[2] + 1.0 >= plane.dist )

	lea	ecx, DWORD PTR _absmin$[ebp]
	call	??BVector@@QAEPAMXZ			; Vector::operator float *
	mov	ecx, 4
	shl	ecx, 1
	cvtss2sd xmm0, DWORD PTR [eax+ecx]
	addsd	xmm0, QWORD PTR __real@3ff0000000000000
	cvtss2sd xmm1, DWORD PTR _plane$[ebp+12]
	comisd	xmm0, xmm1
	jb	SHORT $LN25@R_FindBmod

; 771  : 				continue;

	jmp	$LN2@R_FindBmod
$LN25@R_FindBmod:

; 772  : 		}
; 773  : 
; 774  : 		if( R_CullSurface( psurf ))

	mov	eax, DWORD PTR ?RI@@3PAUref_instance_t@@A ; RI
	add	eax, 48					; 00000030H
	push	eax
	mov	ecx, DWORD PTR _psurf$[ebp]
	push	ecx
	call	?R_CullSurfaceExt@@YAHPAUmsurface_s@@PAVCFrustum@@@Z ; R_CullSurfaceExt
	add	esp, 8
	test	eax, eax
	je	SHORT $LN26@R_FindBmod

; 775  : 			continue;

	jmp	$LN2@R_FindBmod
$LN26@R_FindBmod:

; 776  : 
; 777  : 		if( RI->num_subview_faces >= MAX_SUBVIEWS )

	mov	eax, DWORD PTR ?RI@@3PAUref_instance_t@@A ; RI
	cmp	DWORD PTR [eax+14000], 256		; 00000100H
	jl	SHORT $LN27@R_FindBmod

; 778  : 			return; // limit is out

	jmp	SHORT $LN1@R_FindBmod
$LN27@R_FindBmod:

; 779  : 
; 780  : 		RI->subview_faces[RI->num_subview_faces] = psurf;

	mov	eax, DWORD PTR ?RI@@3PAUref_instance_t@@A ; RI
	mov	ecx, DWORD PTR [eax+14000]
	mov	edx, DWORD PTR ?RI@@3PAUref_instance_t@@A ; RI
	mov	eax, DWORD PTR _psurf$[ebp]
	mov	DWORD PTR [edx+ecx*4+12976], eax

; 781  : 		psurf->info->parent = RI->currententity;

	mov	eax, DWORD PTR _psurf$[ebp]
	mov	ecx, DWORD PTR [eax+80]
	mov	edx, DWORD PTR ?RI@@3PAUref_instance_t@@A ; RI
	mov	eax, DWORD PTR [edx+16]
	mov	DWORD PTR [ecx+112], eax

; 782  : 		RI->num_subview_faces++;

	mov	eax, DWORD PTR ?RI@@3PAUref_instance_t@@A ; RI
	mov	ecx, DWORD PTR [eax+14000]
	add	ecx, 1
	mov	edx, DWORD PTR ?RI@@3PAUref_instance_t@@A ; RI
	mov	DWORD PTR [edx+14000], ecx

; 783  : 	}

	jmp	$LN2@R_FindBmod
$LN3@R_FindBmod:
$LN1@R_FindBmod:

; 784  : }

	pop	edi
	pop	esi
	pop	ebx
	mov	ecx, DWORD PTR __$ArrayPad$[ebp]
	xor	ecx, ebp
	call	@__security_check_cookie@4
	mov	esp, ebp
	pop	ebp
	ret	0
?R_FindBmodelSubview@@YAXPAUcl_entity_s@@@Z ENDP	; R_FindBmodelSubview
_TEXT	ENDS
; Function compile flags: /Odtp /ZI
; File d:\!diffusion 2020\source code 2022\client-server\client\render\r_subview.cpp
;	COMDAT ?R_WorldFindMirrors@@YAXXZ
_TEXT	SEGMENT
tv181 = -93						; size = 1
tv179 = -92						; size = 4
tv208 = -89						; size = 1
tv131 = -89						; size = 1
tv67 = -89						; size = 1
_j$ = -24						; size = 4
_i$ = -20						; size = 4
_leaf$ = -16						; size = 4
_mark$ = -12						; size = 4
_surf$ = -8						; size = 4
_frustum$ = -4						; size = 4
?R_WorldFindMirrors@@YAXXZ PROC				; R_WorldFindMirrors, COMDAT

; 634  : {

	push	ebp
	mov	ebp, esp
	sub	esp, 96					; 00000060H
	push	ebx
	push	esi
	push	edi

; 635  : 	if( !CVAR_TO_BOOL( r_mirrorquality ) )

	cmp	DWORD PTR ?r_mirrorquality@@3PAUcvar_s@@A, 0 ; r_mirrorquality
	je	SHORT $LN22@R_WorldFin
	mov	eax, DWORD PTR ?r_mirrorquality@@3PAUcvar_s@@A ; r_mirrorquality
	movss	xmm0, DWORD PTR [eax+12]
	ucomiss	xmm0, DWORD PTR __real@00000000
	lahf
	test	ah, 68					; 00000044H
	jnp	SHORT $LN22@R_WorldFin
	mov	BYTE PTR tv67[ebp], 1
	jmp	SHORT $LN23@R_WorldFin
$LN22@R_WorldFin:
	mov	BYTE PTR tv67[ebp], 0
$LN23@R_WorldFin:
	movzx	ecx, BYTE PTR tv67[ebp]
	test	ecx, ecx
	jne	SHORT $LN11@R_WorldFin

; 636  : 		return; // disabled

	jmp	$LN1@R_WorldFin
$LN11@R_WorldFin:

; 637  : 	
; 638  : 	CFrustum		*frustum = &RI->frustum;

	mov	eax, DWORD PTR ?RI@@3PAUref_instance_t@@A ; RI
	add	eax, 48					; 00000030H
	mov	DWORD PTR _frustum$[ebp], eax

; 639  : 	msurface_t	*surf, **mark;
; 640  : 	mworldleaf_t	*leaf;
; 641  : 	int		i, j;
; 642  : 
; 643  : 	memset( RI->visfaces, 0x00, ( world->numsortedfaces + 7) >> 3 );

	mov	eax, DWORD PTR ?world@@3PAUgl_world_t@@A ; world
	movzx	ecx, WORD PTR [eax+136]
	add	ecx, 7
	sar	ecx, 3
	push	ecx
	push	0
	mov	edx, DWORD PTR ?RI@@3PAUref_instance_t@@A ; RI
	add	edx, 4779				; 000012abH
	push	edx
	call	_memset
	add	esp, 12					; 0000000cH

; 644  : 
; 645  : 	// always skip the leaf 0, because is outside leaf
; 646  : 	for( i = 1, leaf = &world->leafs[1]; i < world->numleafs; i++, leaf++ )

	mov	DWORD PTR _i$[ebp], 1
	mov	eax, 88					; 00000058H
	shl	eax, 0
	mov	ecx, DWORD PTR ?world@@3PAUgl_world_t@@A ; world
	add	eax, DWORD PTR [ecx+68]
	mov	DWORD PTR _leaf$[ebp], eax
	jmp	SHORT $LN4@R_WorldFin
$LN2@R_WorldFin:
	mov	eax, DWORD PTR _i$[ebp]
	add	eax, 1
	mov	DWORD PTR _i$[ebp], eax
	mov	ecx, DWORD PTR _leaf$[ebp]
	add	ecx, 88					; 00000058H
	mov	DWORD PTR _leaf$[ebp], ecx
$LN4@R_WorldFin:
	mov	eax, DWORD PTR ?world@@3PAUgl_world_t@@A ; world
	mov	ecx, DWORD PTR _i$[ebp]
	cmp	ecx, DWORD PTR [eax+72]
	jge	$LN3@R_WorldFin

; 647  : 	{
; 648  : 		if( CHECKVISBIT( RI->visbytes, leaf->cluster ) && ( leaf->efrags || leaf->nummarksurfaces ))

	mov	eax, DWORD PTR _leaf$[ebp]
	cmp	DWORD PTR [eax+76], 0
	jl	SHORT $LN24@R_WorldFin
	mov	ecx, DWORD PTR _leaf$[ebp]
	mov	edx, DWORD PTR [ecx+76]
	sar	edx, 3
	mov	eax, DWORD PTR ?RI@@3PAUref_instance_t@@A ; RI
	movzx	edx, BYTE PTR [eax+edx+684]
	mov	eax, DWORD PTR _leaf$[ebp]
	mov	ecx, DWORD PTR [eax+76]
	and	ecx, 7
	mov	eax, 1
	shl	eax, cl
	and	edx, eax
	mov	BYTE PTR tv131[ebp], dl
	jmp	SHORT $LN25@R_WorldFin
$LN24@R_WorldFin:
	mov	BYTE PTR tv131[ebp], 0
$LN25@R_WorldFin:
	movzx	ecx, BYTE PTR tv131[ebp]
	test	ecx, ecx
	je	$LN6@R_WorldFin
	mov	eax, DWORD PTR _leaf$[ebp]
	cmp	DWORD PTR [eax+64], 0
	jne	SHORT $LN13@R_WorldFin
	mov	eax, DWORD PTR _leaf$[ebp]
	cmp	DWORD PTR [eax+72], 0
	je	$LN6@R_WorldFin
$LN13@R_WorldFin:

; 649  : 		{
; 650  : 			if( RI->frustum.CullBox( leaf->mins, leaf->maxs ))

	push	0
	mov	eax, DWORD PTR _leaf$[ebp]
	add	eax, 48					; 00000030H
	push	eax
	mov	ecx, DWORD PTR _leaf$[ebp]
	add	ecx, 36					; 00000024H
	push	ecx
	mov	ecx, DWORD PTR ?RI@@3PAUref_instance_t@@A ; RI
	add	ecx, 48					; 00000030H
	call	?CullBox@CFrustum@@QAE_NABVVector@@0H@Z	; CFrustum::CullBox
	movzx	edx, al
	test	edx, edx
	je	SHORT $LN14@R_WorldFin

; 651  : 				continue;

	jmp	$LN2@R_WorldFin
$LN14@R_WorldFin:

; 652  : 
; 653  : 			if( leaf->nummarksurfaces )

	mov	eax, DWORD PTR _leaf$[ebp]
	cmp	DWORD PTR [eax+72], 0
	je	$LN6@R_WorldFin

; 654  : 			{
; 655  : 				for( j = 0, mark = leaf->firstmarksurface; j < leaf->nummarksurfaces; j++, mark++ )

	mov	DWORD PTR _j$[ebp], 0
	mov	eax, DWORD PTR _leaf$[ebp]
	mov	ecx, DWORD PTR [eax+68]
	mov	DWORD PTR _mark$[ebp], ecx
	jmp	SHORT $LN7@R_WorldFin
$LN5@R_WorldFin:
	mov	eax, DWORD PTR _j$[ebp]
	add	eax, 1
	mov	DWORD PTR _j$[ebp], eax
	mov	ecx, DWORD PTR _mark$[ebp]
	add	ecx, 4
	mov	DWORD PTR _mark$[ebp], ecx
$LN7@R_WorldFin:
	mov	eax, DWORD PTR _leaf$[ebp]
	mov	ecx, DWORD PTR _j$[ebp]
	cmp	ecx, DWORD PTR [eax+72]
	jge	$LN6@R_WorldFin

; 656  : 					SETVISBIT( RI->visfaces, *mark - worldmodel->surfaces );

	mov	eax, DWORD PTR _mark$[ebp]
	mov	ecx, DWORD PTR ?worldmodel@@3PAUmodel_s@@A ; worldmodel
	mov	eax, DWORD PTR [eax]
	sub	eax, DWORD PTR [ecx+180]
	cdq
	mov	ecx, 92					; 0000005cH
	idiv	ecx
	test	eax, eax
	jl	$LN26@R_WorldFin
	mov	edx, DWORD PTR _mark$[ebp]
	mov	eax, DWORD PTR ?worldmodel@@3PAUmodel_s@@A ; worldmodel
	mov	ecx, DWORD PTR [edx]
	sub	ecx, DWORD PTR [eax+180]
	mov	eax, ecx
	cdq
	mov	ecx, 92					; 0000005cH
	idiv	ecx
	mov	esi, eax
	sar	esi, 3
	mov	edx, DWORD PTR _mark$[ebp]
	mov	eax, DWORD PTR ?worldmodel@@3PAUmodel_s@@A ; worldmodel
	mov	ecx, DWORD PTR [edx]
	sub	ecx, DWORD PTR [eax+180]
	mov	eax, ecx
	cdq
	mov	ecx, 92					; 0000005cH
	idiv	ecx
	and	eax, 7
	mov	edx, 1
	mov	ecx, eax
	shl	edx, cl
	mov	eax, DWORD PTR ?RI@@3PAUref_instance_t@@A ; RI
	movzx	ecx, BYTE PTR [eax+esi+4779]
	or	ecx, edx
	mov	DWORD PTR tv179[ebp], ecx
	mov	edx, DWORD PTR _mark$[ebp]
	mov	eax, DWORD PTR ?worldmodel@@3PAUmodel_s@@A ; worldmodel
	mov	ecx, DWORD PTR [edx]
	sub	ecx, DWORD PTR [eax+180]
	mov	eax, ecx
	cdq
	mov	ecx, 92					; 0000005cH
	idiv	ecx
	sar	eax, 3
	mov	edx, DWORD PTR ?RI@@3PAUref_instance_t@@A ; RI
	mov	cl, BYTE PTR tv179[ebp]
	mov	BYTE PTR [edx+eax+4779], cl
	mov	dl, BYTE PTR tv179[ebp]
	mov	BYTE PTR tv181[ebp], dl
	jmp	SHORT $LN27@R_WorldFin
$LN26@R_WorldFin:
	mov	BYTE PTR tv181[ebp], 0
$LN27@R_WorldFin:
	jmp	$LN5@R_WorldFin
$LN6@R_WorldFin:

; 657  : 			}
; 658  : 		}
; 659  : 	}

	jmp	$LN2@R_WorldFin
$LN3@R_WorldFin:

; 660  : 
; 661  : 	// create drawlist for faces, do additional culling for world faces
; 662  : 	for( i = 0; i < world->numsortedfaces; i++ )

	mov	DWORD PTR _i$[ebp], 0
	jmp	SHORT $LN10@R_WorldFin
$LN8@R_WorldFin:
	mov	eax, DWORD PTR _i$[ebp]
	add	eax, 1
	mov	DWORD PTR _i$[ebp], eax
$LN10@R_WorldFin:
	mov	eax, DWORD PTR ?world@@3PAUgl_world_t@@A ; world
	movzx	ecx, WORD PTR [eax+136]
	cmp	DWORD PTR _i$[ebp], ecx
	jge	$LN9@R_WorldFin

; 663  : 	{
; 664  : 		j = world->sortedfaces[i];

	mov	eax, DWORD PTR ?world@@3PAUgl_world_t@@A ; world
	mov	ecx, DWORD PTR [eax+132]
	mov	edx, DWORD PTR _i$[ebp]
	movzx	eax, WORD PTR [ecx+edx*2]
	mov	DWORD PTR _j$[ebp], eax

; 665  : 
; 666  : 		if( j >= worldmodel->nummodelsurfaces )

	mov	eax, DWORD PTR ?worldmodel@@3PAUmodel_s@@A ; worldmodel
	mov	ecx, DWORD PTR _j$[ebp]
	cmp	ecx, DWORD PTR [eax+116]
	jl	SHORT $LN16@R_WorldFin

; 667  : 			continue;	// not a world face

	jmp	SHORT $LN8@R_WorldFin
$LN16@R_WorldFin:

; 668  : 
; 669  : 		surf = worldmodel->surfaces + j;

	imul	eax, DWORD PTR _j$[ebp], 92
	mov	ecx, DWORD PTR ?worldmodel@@3PAUmodel_s@@A ; worldmodel
	add	eax, DWORD PTR [ecx+180]
	mov	DWORD PTR _surf$[ebp], eax

; 670  : 
; 671  : 		if( !FBitSet( surf->flags, SURF_REFLECT ))

	mov	eax, DWORD PTR _surf$[ebp]
	mov	ecx, DWORD PTR [eax+8]
	and	ecx, -2147483648			; 80000000H
	jne	SHORT $LN17@R_WorldFin

; 672  : 			continue;	// only mirrors interesting us

	jmp	SHORT $LN8@R_WorldFin
$LN17@R_WorldFin:

; 673  : 
; 674  : 		if( CHECKVISBIT( RI->visfaces, j ))

	cmp	DWORD PTR _j$[ebp], 0
	jl	SHORT $LN28@R_WorldFin
	mov	eax, DWORD PTR _j$[ebp]
	sar	eax, 3
	mov	ecx, DWORD PTR ?RI@@3PAUref_instance_t@@A ; RI
	movzx	edx, BYTE PTR [ecx+eax+4779]
	mov	ecx, DWORD PTR _j$[ebp]
	and	ecx, 7
	mov	eax, 1
	shl	eax, cl
	and	edx, eax
	mov	BYTE PTR tv208[ebp], dl
	jmp	SHORT $LN29@R_WorldFin
$LN28@R_WorldFin:
	mov	BYTE PTR tv208[ebp], 0
$LN29@R_WorldFin:
	movzx	ecx, BYTE PTR tv208[ebp]
	test	ecx, ecx
	je	SHORT $LN18@R_WorldFin

; 675  : 		{
; 676  : 			if( R_CullSurface( surf ))

	mov	eax, DWORD PTR ?RI@@3PAUref_instance_t@@A ; RI
	add	eax, 48					; 00000030H
	push	eax
	mov	ecx, DWORD PTR _surf$[ebp]
	push	ecx
	call	?R_CullSurfaceExt@@YAHPAUmsurface_s@@PAVCFrustum@@@Z ; R_CullSurfaceExt
	add	esp, 8
	test	eax, eax
	je	SHORT $LN19@R_WorldFin

; 677  : 				continue;

	jmp	$LN8@R_WorldFin
$LN19@R_WorldFin:

; 678  : 
; 679  : 			if( RI->num_subview_faces >= MAX_SUBVIEWS )

	mov	eax, DWORD PTR ?RI@@3PAUref_instance_t@@A ; RI
	cmp	DWORD PTR [eax+14000], 256		; 00000100H
	jl	SHORT $LN20@R_WorldFin

; 680  : 				return; // limit is out

	jmp	SHORT $LN1@R_WorldFin
$LN20@R_WorldFin:

; 681  : 
; 682  : 			RI->subview_faces[RI->num_subview_faces] = surf;

	mov	eax, DWORD PTR ?RI@@3PAUref_instance_t@@A ; RI
	mov	ecx, DWORD PTR [eax+14000]
	mov	edx, DWORD PTR ?RI@@3PAUref_instance_t@@A ; RI
	mov	eax, DWORD PTR _surf$[ebp]
	mov	DWORD PTR [edx+ecx*4+12976], eax

; 683  : 			surf->info->parent = RI->currententity;

	mov	eax, DWORD PTR _surf$[ebp]
	mov	ecx, DWORD PTR [eax+80]
	mov	edx, DWORD PTR ?RI@@3PAUref_instance_t@@A ; RI
	mov	eax, DWORD PTR [edx+16]
	mov	DWORD PTR [ecx+112], eax

; 684  : 			RI->num_subview_faces++;

	mov	eax, DWORD PTR ?RI@@3PAUref_instance_t@@A ; RI
	mov	ecx, DWORD PTR [eax+14000]
	add	ecx, 1
	mov	edx, DWORD PTR ?RI@@3PAUref_instance_t@@A ; RI
	mov	DWORD PTR [edx+14000], ecx
$LN18@R_WorldFin:

; 685  : 		}
; 686  : 	}

	jmp	$LN8@R_WorldFin
$LN9@R_WorldFin:
$LN1@R_WorldFin:

; 687  : }

	pop	edi
	pop	esi
	pop	ebx
	mov	esp, ebp
	pop	ebp
	ret	0
?R_WorldFindMirrors@@YAXXZ ENDP				; R_WorldFindMirrors
_TEXT	ENDS
; Function compile flags: /Odtp /ZI
; File d:\!diffusion 2020\source code 2022\client-server\client\render\r_subview.cpp
;	COMDAT ?R_DrawSubviewPasses@@YAXXZ
_TEXT	SEGMENT
_viewmatrix$1 = -112					; size = 64
_subview$2 = -48					; size = 4
_texFlags$3 = -44					; size = 4
_surf$4 = -40						; size = 4
_i$5 = -36						; size = 4
_oldFBO$ = -32						; size = 4
_camera$ = -28						; size = 4
_prevRI$ = -24						; size = 4
_viewport$ = -20					; size = 16
__$ArrayPad$ = -4					; size = 4
?R_DrawSubviewPasses@@YAXXZ PROC			; R_DrawSubviewPasses, COMDAT

; 548  : {

	push	ebp
	mov	ebp, esp
	sub	esp, 176				; 000000b0H
	mov	eax, DWORD PTR ___security_cookie
	xor	eax, ebp
	mov	DWORD PTR __$ArrayPad$[ebp], eax
	push	ebx
	push	esi
	push	edi

; 549  : 	int		viewport[4];
; 550  : 	ref_instance_t	*prevRI;
; 551  : 	cl_entity_t	*camera;
; 552  : 	unsigned int oldFBO;
; 553  : 
; 554  : 	R_PushRefState();

	call	?R_PushRefState@@YAXXZ			; R_PushRefState

; 555  : 	prevRI = R_GetPrevInstance();

	call	?R_GetPrevInstance@@YAPAUref_instance_t@@XZ ; R_GetPrevInstance
	mov	DWORD PTR _prevRI$[ebp], eax

; 556  : 
; 557  : 	for( int i = 0; i < prevRI->num_subview_faces; i++ )

	mov	DWORD PTR _i$5[ebp], 0
	jmp	SHORT $LN4@R_DrawSubv
$LN2@R_DrawSubv:
	mov	eax, DWORD PTR _i$5[ebp]
	add	eax, 1
	mov	DWORD PTR _i$5[ebp], eax
$LN4@R_DrawSubv:
	mov	eax, DWORD PTR _prevRI$[ebp]
	mov	ecx, DWORD PTR _i$5[ebp]
	cmp	ecx, DWORD PTR [eax+14000]
	jge	$LN3@R_DrawSubv

; 558  : 	{
; 559  : 		msurface_t *surf = prevRI->subview_faces[i];

	mov	eax, DWORD PTR _i$5[ebp]
	mov	ecx, DWORD PTR _prevRI$[ebp]
	mov	edx, DWORD PTR [ecx+eax*4+12976]
	mov	DWORD PTR _surf$4[ebp], edx

; 560  : 		int texFlags = 0, subview;

	mov	DWORD PTR _texFlags$3[ebp], 0

; 561  : 		matrix4x4 viewmatrix;

	lea	ecx, DWORD PTR _viewmatrix$1[ebp]
	call	??0matrix4x4@@QAE@XZ			; matrix4x4::matrix4x4

; 562  : 
; 563  : 		if( R_CanSkipPass( i, surf, prevRI ))

	mov	eax, DWORD PTR _prevRI$[ebp]
	push	eax
	mov	ecx, DWORD PTR _surf$4[ebp]
	push	ecx
	mov	edx, DWORD PTR _i$5[ebp]
	push	edx
	call	?R_CanSkipPass@@YA_NHPAUmsurface_s@@PAUref_instance_t@@@Z ; R_CanSkipPass
	add	esp, 12					; 0000000cH
	movzx	eax, al
	test	eax, eax
	je	SHORT $LN5@R_DrawSubv

; 564  : 			continue;

	jmp	SHORT $LN2@R_DrawSubv
$LN5@R_DrawSubv:

; 565  : 
; 566  : 		// handle camera
; 567  : 		if( !FBitSet( surf->flags, SURF_REFLECT ))

	mov	eax, DWORD PTR _surf$4[ebp]
	mov	ecx, DWORD PTR [eax+8]
	and	ecx, -2147483648			; 80000000H
	jne	SHORT $LN6@R_DrawSubv

; 568  : 		{
; 569  : 			if( surf->info->parent->curstate.sequence <= 0 )

	mov	eax, DWORD PTR _surf$4[ebp]
	mov	ecx, DWORD PTR [eax+80]
	mov	edx, DWORD PTR [ecx+112]
	cmp	DWORD PTR [edx+732], 0
	jg	SHORT $LN8@R_DrawSubv

; 570  : 				continue;	// target is missed

	jmp	SHORT $LN2@R_DrawSubv
$LN8@R_DrawSubv:

; 571  : 			camera = GET_ENTITY( surf->info->parent->curstate.sequence );

	mov	eax, DWORD PTR _surf$4[ebp]
	mov	ecx, DWORD PTR [eax+80]
	mov	edx, DWORD PTR [ecx+112]
	mov	eax, DWORD PTR [edx+732]
	push	eax
	call	DWORD PTR ?gEngfuncs@@3Ucl_enginefuncs_s@@A+212
	add	esp, 4
	mov	DWORD PTR _camera$[ebp], eax
	jmp	SHORT $LN7@R_DrawSubv
$LN6@R_DrawSubv:

; 572  : 		}
; 573  : 		else camera = surf->info->parent; // mirror camera is himself

	mov	eax, DWORD PTR _surf$4[ebp]
	mov	ecx, DWORD PTR [eax+80]
	mov	edx, DWORD PTR [ecx+112]
	mov	DWORD PTR _camera$[ebp], edx
$LN7@R_DrawSubv:

; 574  : 
; 575  : 		// NOTE: we can do additionaly culling here by PVS
; 576  : 		if( !camera || camera->curstate.messagenum != r_currentMessageNum )

	cmp	DWORD PTR _camera$[ebp], 0
	je	SHORT $LN10@R_DrawSubv
	mov	eax, DWORD PTR _camera$[ebp]
	mov	ecx, DWORD PTR [eax+700]
	cmp	ecx, DWORD PTR ?r_currentMessageNum@@3HA ; r_currentMessageNum
	je	SHORT $LN9@R_DrawSubv
$LN10@R_DrawSubv:

; 577  : 			continue; // bad camera, ignore

	jmp	$LN2@R_DrawSubv
$LN9@R_DrawSubv:

; 578  : 
; 579  : 		// setup view apropriate by type
; 580  : 		if( FBitSet( surf->flags, SURF_REFLECT ))

	mov	eax, DWORD PTR _surf$4[ebp]
	mov	ecx, DWORD PTR [eax+8]
	and	ecx, -2147483648			; 80000000H
	je	SHORT $LN11@R_DrawSubv

; 581  : 		{
; 582  : 			if( FBitSet( surf->flags, SURF_WATER ) && (gl_water_planar->value <= 0) )

	mov	eax, DWORD PTR _surf$4[ebp]
	mov	ecx, DWORD PTR [eax+8]
	and	ecx, 16					; 00000010H
	je	SHORT $LN13@R_DrawSubv
	mov	eax, DWORD PTR ?gl_water_planar@@3PAUcvar_s@@A ; gl_water_planar
	xorps	xmm0, xmm0
	comiss	xmm0, DWORD PTR [eax+12]
	jb	SHORT $LN13@R_DrawSubv

; 583  : 				continue;

	jmp	$LN2@R_DrawSubv
$LN13@R_DrawSubv:

; 584  : 			
; 585  : 			texFlags = R_SetupMirrorView( surf, camera, viewmatrix );

	lea	eax, DWORD PTR _viewmatrix$1[ebp]
	push	eax
	mov	ecx, DWORD PTR _camera$[ebp]
	push	ecx
	mov	edx, DWORD PTR _surf$4[ebp]
	push	edx
	call	?R_SetupMirrorView@@YAHPAUmsurface_s@@PAUcl_entity_s@@AAVmatrix4x4@@@Z ; R_SetupMirrorView
	add	esp, 12					; 0000000cH
	mov	DWORD PTR _texFlags$3[ebp], eax

; 586  : 			r_stats.c_mirror_passes++;

	mov	eax, DWORD PTR ?r_stats@@3Uref_stats_t@@A+44
	add	eax, 1
	mov	DWORD PTR ?r_stats@@3Uref_stats_t@@A+44, eax
	jmp	SHORT $LN17@R_DrawSubv
$LN11@R_DrawSubv:

; 587  : 		}
; 588  : 		else if( FBitSet( surf->flags, SURF_PORTAL ))

	mov	eax, DWORD PTR _surf$4[ebp]
	mov	ecx, DWORD PTR [eax+8]
	and	ecx, 512				; 00000200H
	je	SHORT $LN14@R_DrawSubv

; 589  : 		{
; 590  : 			texFlags = R_SetupPortalView( surf, camera, viewmatrix );

	lea	eax, DWORD PTR _viewmatrix$1[ebp]
	push	eax
	mov	ecx, DWORD PTR _camera$[ebp]
	push	ecx
	mov	edx, DWORD PTR _surf$4[ebp]
	push	edx
	call	?R_SetupPortalView@@YAHPAUmsurface_s@@PAUcl_entity_s@@AAVmatrix4x4@@@Z ; R_SetupPortalView
	add	esp, 12					; 0000000cH
	mov	DWORD PTR _texFlags$3[ebp], eax

; 591  : 			r_stats.c_portal_passes++;

	mov	eax, DWORD PTR ?r_stats@@3Uref_stats_t@@A+40
	add	eax, 1
	mov	DWORD PTR ?r_stats@@3Uref_stats_t@@A+40, eax
	jmp	SHORT $LN17@R_DrawSubv
$LN14@R_DrawSubv:

; 592  : 		}
; 593  : 		else if( FBitSet( surf->flags, SURF_SCREEN ))

	mov	eax, DWORD PTR _surf$4[ebp]
	mov	ecx, DWORD PTR [eax+8]
	and	ecx, 1024				; 00000400H
	je	SHORT $LN16@R_DrawSubv

; 594  : 		{
; 595  : 			texFlags = R_SetupScreenView( surf, camera, viewmatrix );

	lea	eax, DWORD PTR _viewmatrix$1[ebp]
	push	eax
	mov	ecx, DWORD PTR _camera$[ebp]
	push	ecx
	mov	edx, DWORD PTR _surf$4[ebp]
	push	edx
	call	?R_SetupScreenView@@YAHPAUmsurface_s@@PAUcl_entity_s@@AAVmatrix4x4@@@Z ; R_SetupScreenView
	add	esp, 12					; 0000000cH
	mov	DWORD PTR _texFlags$3[ebp], eax

; 596  : 			r_stats.c_screen_passes++;

	mov	eax, DWORD PTR ?r_stats@@3Uref_stats_t@@A+48
	add	eax, 1
	mov	DWORD PTR ?r_stats@@3Uref_stats_t@@A+48, eax

; 597  : 		}
; 598  : 		else continue; // ???

	jmp	SHORT $LN17@R_DrawSubv
$LN16@R_DrawSubv:
	jmp	$LN2@R_DrawSubv
$LN17@R_DrawSubv:

; 599  : 
; 600  : 		memcpy( viewport, RI->viewport, sizeof( viewport ));

	push	16					; 00000010H
	mov	eax, DWORD PTR ?RI@@3PAUref_instance_t@@A ; RI
	add	eax, 32					; 00000020H
	push	eax
	lea	ecx, DWORD PTR _viewport$[ebp]
	push	ecx
	call	_memcpy
	add	esp, 12					; 0000000cH

; 601  : 		oldFBO = glState.frameBuffer;

	mov	eax, DWORD PTR ?glState@@3UglState_t@@A+24
	mov	DWORD PTR _oldFBO$[ebp], eax

; 602  : 
; 603  : 		if( GL_Support( R_FRAMEBUFFER_OBJECT ))

	push	20					; 00000014H
	call	?GL_Support@@YA_NH@Z			; GL_Support
	add	esp, 4
	movzx	eax, al
	test	eax, eax
	je	SHORT $LN18@R_DrawSubv

; 604  : 		{
; 605  : 			if(( subview = R_AllocateSubviewTexture( viewport, texFlags )) == 0 )

	mov	eax, DWORD PTR _texFlags$3[ebp]
	push	eax
	lea	ecx, DWORD PTR _viewport$[ebp]
	push	ecx
	call	?R_AllocateSubviewTexture@@YAHQAHH@Z	; R_AllocateSubviewTexture
	add	esp, 8
	mov	DWORD PTR _subview$2[ebp], eax
	cmp	DWORD PTR _subview$2[ebp], 0
	jne	SHORT $LN19@R_DrawSubv

; 606  : 				continue;

	jmp	$LN2@R_DrawSubv
$LN19@R_DrawSubv:

; 607  : 			R_CalcSubviewMatrix( subview, viewmatrix, camera );

	mov	eax, DWORD PTR _camera$[ebp]
	push	eax
	lea	ecx, DWORD PTR _viewmatrix$1[ebp]
	push	ecx
	mov	edx, DWORD PTR _subview$2[ebp]
	push	edx
	call	?R_CalcSubviewMatrix@@YAXHABVmatrix4x4@@PAUcl_entity_s@@@Z ; R_CalcSubviewMatrix
	add	esp, 12					; 0000000cH
$LN18@R_DrawSubv:

; 608  : 		}
; 609  : 
; 610  : 		// reset the subinfo
; 611  : 		surf->info->subtexture[glState.stack_position-1] = 0;

	mov	eax, DWORD PTR _surf$4[ebp]
	mov	ecx, DWORD PTR [eax+80]
	xor	edx, edx
	mov	eax, DWORD PTR ?glState@@3UglState_t@@A+112296
	mov	WORD PTR [ecx+eax*2+220], dx

; 612  : 		RI->reject_face = surf;

	mov	eax, DWORD PTR ?RI@@3PAUref_instance_t@@A ; RI
	mov	ecx, DWORD PTR _surf$4[ebp]
	mov	DWORD PTR [eax+14004], ecx

; 613  : 
; 614  : 		R_RenderScene();

	call	?R_RenderScene@@YAXXZ			; R_RenderScene

; 615  : 
; 616  : 		RI->reject_face = NULL;

	mov	eax, DWORD PTR ?RI@@3PAUref_instance_t@@A ; RI
	mov	DWORD PTR [eax+14004], 0

; 617  : 
; 618  : 		if( !GL_Support( R_FRAMEBUFFER_OBJECT ))

	push	20					; 00000014H
	call	?GL_Support@@YA_NH@Z			; GL_Support
	add	esp, 4
	movzx	eax, al
	test	eax, eax
	jne	SHORT $LN20@R_DrawSubv

; 619  : 		{
; 620  : 			subview = R_AllocateSubviewTexture( viewport, texFlags );

	mov	eax, DWORD PTR _texFlags$3[ebp]
	push	eax
	lea	ecx, DWORD PTR _viewport$[ebp]
	push	ecx
	call	?R_AllocateSubviewTexture@@YAHQAHH@Z	; R_AllocateSubviewTexture
	add	esp, 8
	mov	DWORD PTR _subview$2[ebp], eax

; 621  : 			R_CalcSubviewMatrix( subview, viewmatrix, camera );

	mov	eax, DWORD PTR _camera$[ebp]
	push	eax
	lea	ecx, DWORD PTR _viewmatrix$1[ebp]
	push	ecx
	mov	edx, DWORD PTR _subview$2[ebp]
	push	edx
	call	?R_CalcSubviewMatrix@@YAXHABVmatrix4x4@@PAUcl_entity_s@@@Z ; R_CalcSubviewMatrix
	add	esp, 12					; 0000000cH
$LN20@R_DrawSubv:

; 622  : 		}
; 623  : 
; 624  : 		surf->info->subtexture[glState.stack_position-1] = subview; // now it's valid

	mov	eax, DWORD PTR _surf$4[ebp]
	mov	ecx, DWORD PTR [eax+80]
	mov	edx, DWORD PTR ?glState@@3UglState_t@@A+112296
	mov	ax, WORD PTR _subview$2[ebp]
	mov	WORD PTR [ecx+edx*2+220], ax

; 625  : 		GL_BindFBO( oldFBO );

	mov	eax, DWORD PTR _oldFBO$[ebp]
	push	eax
	call	?GL_BindFBO@@YAXH@Z			; GL_BindFBO
	add	esp, 4

; 626  : 		R_ResetRefState();

	call	?R_ResetRefState@@YAXXZ			; R_ResetRefState

; 627  : 	}

	jmp	$LN2@R_DrawSubv
$LN3@R_DrawSubv:

; 628  : 
; 629  : 	prevRI->num_subview_faces = 0;

	mov	eax, DWORD PTR _prevRI$[ebp]
	mov	DWORD PTR [eax+14000], 0

; 630  : 	R_PopRefState();

	call	?R_PopRefState@@YAXXZ			; R_PopRefState

; 631  : }

	pop	edi
	pop	esi
	pop	ebx
	mov	ecx, DWORD PTR __$ArrayPad$[ebp]
	xor	ecx, ebp
	call	@__security_check_cookie@4
	mov	esp, ebp
	pop	ebp
	ret	0
?R_DrawSubviewPasses@@YAXXZ ENDP			; R_DrawSubviewPasses
_TEXT	ENDS
; Function compile flags: /Odtp /ZI
; File d:\!diffusion 2020\source code 2022\client-server\client\render\r_subview.cpp
;	COMDAT ?R_CalcSubviewMatrix@@YAXHABVmatrix4x4@@PAUcl_entity_s@@@Z
_TEXT	SEGMENT
$T1 = -464						; size = 64
$T2 = -396						; size = 64
$T3 = -328						; size = 64
_projection$ = -196					; size = 64
_modelView$ = -132					; size = 64
_worldView$ = -68					; size = 64
__$ArrayPad$ = -4					; size = 4
_subtexturenum$ = 8					; size = 4
_viewmatrix$ = 12					; size = 4
_camera$ = 16						; size = 4
?R_CalcSubviewMatrix@@YAXHABVmatrix4x4@@PAUcl_entity_s@@@Z PROC ; R_CalcSubviewMatrix, COMDAT

; 526  : {

	push	ebp
	mov	ebp, esp
	sub	esp, 464				; 000001d0H
	mov	eax, DWORD PTR ___security_cookie
	xor	eax, ebp
	mov	DWORD PTR __$ArrayPad$[ebp], eax
	push	ebx
	push	esi
	push	edi

; 527  : 	matrix4x4	worldView, modelView, projection;

	lea	ecx, DWORD PTR _worldView$[ebp]
	call	??0matrix4x4@@QAE@XZ			; matrix4x4::matrix4x4
	lea	ecx, DWORD PTR _modelView$[ebp]
	call	??0matrix4x4@@QAE@XZ			; matrix4x4::matrix4x4
	lea	ecx, DWORD PTR _projection$[ebp]
	call	??0matrix4x4@@QAE@XZ			; matrix4x4::matrix4x4

; 528  : 
; 529  : 	if( subtexturenum <= 0 )

	cmp	DWORD PTR _subtexturenum$[ebp], 0
	jg	SHORT $LN2@R_CalcSubv

; 530  : 		return;

	jmp	$LN1@R_CalcSubv
$LN2@R_CalcSubv:

; 531  : 
; 532  : 	R_SetupModelviewMatrix( worldView );

	lea	eax, DWORD PTR _worldView$[ebp]
	push	eax
	call	?R_SetupModelviewMatrix@@YAXAAVmatrix4x4@@@Z ; R_SetupModelviewMatrix
	add	esp, 4

; 533  : 	R_SetupProjectionMatrix( RI->fov_x, RI->fov_y, projection );

	lea	eax, DWORD PTR _projection$[ebp]
	push	eax
	mov	ecx, DWORD PTR ?RI@@3PAUref_instance_t@@A ; RI
	push	ecx
	movss	xmm0, DWORD PTR [ecx+12]
	movss	DWORD PTR [esp], xmm0
	mov	edx, DWORD PTR ?RI@@3PAUref_instance_t@@A ; RI
	push	ecx
	movss	xmm0, DWORD PTR [edx+8]
	movss	DWORD PTR [esp], xmm0
	call	?R_SetupProjectionMatrix@@YAXMMAAVmatrix4x4@@@Z ; R_SetupProjectionMatrix
	add	esp, 12					; 0000000cH

; 534  : 
; 535  : 	// create personal projection matrix for mirror
; 536  : 	if( R_StaticEntity( camera ))

	push	OFFSET ?g_vecZero@@3VVector@@B		; g_vecZero
	mov	ecx, DWORD PTR _camera$[ebp]
	add	ecx, 2888				; 00000b48H
	call	??8Vector@@QBEHABV0@@Z			; Vector::operator==
	test	eax, eax
	je	SHORT $LN3@R_CalcSubv
	push	OFFSET ?g_vecZero@@3VVector@@B		; g_vecZero
	mov	ecx, DWORD PTR _camera$[ebp]
	add	ecx, 2900				; 00000b54H
	call	??8Vector@@QBEHABV0@@Z			; Vector::operator==
	test	eax, eax
	je	SHORT $LN3@R_CalcSubv

; 537  : 	{
; 538  : 		tr.subviewTextures[subtexturenum-1].matrix = projection.Concat( worldView );

	sub	esp, 64					; 00000040H
	mov	ecx, esp
	lea	eax, DWORD PTR _worldView$[ebp]
	push	eax
	call	??0matrix4x4@@QAE@ABV0@@Z
	lea	ecx, DWORD PTR $T3[ebp]
	push	ecx
	lea	ecx, DWORD PTR _projection$[ebp]
	call	?Concat@matrix4x4@@QAE?AV1@V1@@Z	; matrix4x4::Concat
	push	eax
	mov	edx, DWORD PTR _subtexturenum$[ebp]
	sub	edx, 1
	imul	ecx, edx, 76
	add	ecx, OFFSET ?tr@@3Uref_globals_t@@A+88
	call	??4matrix4x4@@QAEAAV0@ABV0@@Z		; matrix4x4::operator=

; 539  : 	}
; 540  : 	else

	jmp	SHORT $LN4@R_CalcSubv
$LN3@R_CalcSubv:

; 541  : 	{
; 542  : 		modelView = worldView.ConcatTransforms( viewmatrix );

	sub	esp, 64					; 00000040H
	mov	ecx, esp
	mov	eax, DWORD PTR _viewmatrix$[ebp]
	push	eax
	call	??0matrix4x4@@QAE@ABV0@@Z
	lea	ecx, DWORD PTR $T2[ebp]
	push	ecx
	lea	ecx, DWORD PTR _worldView$[ebp]
	call	?ConcatTransforms@matrix4x4@@QAE?AV1@V1@@Z ; matrix4x4::ConcatTransforms
	push	eax
	lea	ecx, DWORD PTR _modelView$[ebp]
	call	??4matrix4x4@@QAEAAV0@ABV0@@Z		; matrix4x4::operator=

; 543  : 		tr.subviewTextures[subtexturenum-1].matrix = projection.Concat( modelView );

	sub	esp, 64					; 00000040H
	mov	ecx, esp
	lea	eax, DWORD PTR _modelView$[ebp]
	push	eax
	call	??0matrix4x4@@QAE@ABV0@@Z
	lea	ecx, DWORD PTR $T1[ebp]
	push	ecx
	lea	ecx, DWORD PTR _projection$[ebp]
	call	?Concat@matrix4x4@@QAE?AV1@V1@@Z	; matrix4x4::Concat
	push	eax
	mov	edx, DWORD PTR _subtexturenum$[ebp]
	sub	edx, 1
	imul	ecx, edx, 76
	add	ecx, OFFSET ?tr@@3Uref_globals_t@@A+88
	call	??4matrix4x4@@QAEAAV0@ABV0@@Z		; matrix4x4::operator=
$LN4@R_CalcSubv:
$LN1@R_CalcSubv:

; 544  : 	}
; 545  : }

	pop	edi
	pop	esi
	pop	ebx
	mov	ecx, DWORD PTR __$ArrayPad$[ebp]
	xor	ecx, ebp
	call	@__security_check_cookie@4
	mov	esp, ebp
	pop	ebp
	ret	0
?R_CalcSubviewMatrix@@YAXHABVmatrix4x4@@PAUcl_entity_s@@@Z ENDP ; R_CalcSubviewMatrix
_TEXT	ENDS
; Function compile flags: /Odtp /ZI
; File d:\!diffusion 2020\source code 2022\client-server\client\render\r_subview.cpp
;	COMDAT ?R_CanSkipPass@@YA_NHPAUmsurface_s@@PAUref_instance_t@@@Z
_TEXT	SEGMENT
_i$1 = -8						; size = 4
_oldRI$2 = -4						; size = 4
_end$ = 8						; size = 4
_surf$ = 12						; size = 4
_prevRI$ = 16						; size = 4
?R_CanSkipPass@@YA_NHPAUmsurface_s@@PAUref_instance_t@@@Z PROC ; R_CanSkipPass, COMDAT

; 494  : {

	push	ebp
	mov	ebp, esp
	sub	esp, 72					; 00000048H
	push	ebx
	push	esi
	push	edi

; 495  : 	// IMPORTANT: limit the recursion depth
; 496  : 	if( surf == prevRI->reject_face )

	mov	eax, DWORD PTR _prevRI$[ebp]
	mov	ecx, DWORD PTR _surf$[ebp]
	cmp	ecx, DWORD PTR [eax+14004]
	jne	SHORT $LN5@R_CanSkipP

; 497  : 	{
; 498  : 		if( !FBitSet( RI->params, RP_SCREENVIEW ))

	mov	eax, DWORD PTR ?RI@@3PAUref_instance_t@@A ; RI
	mov	ecx, DWORD PTR [eax]
	and	ecx, 128				; 00000080H
	jne	SHORT $LN6@R_CanSkipP

; 499  : 		{
; 500  : 			return true;

	mov	al, 1
	jmp	$LN1@R_CanSkipP
	jmp	SHORT $LN5@R_CanSkipP
$LN6@R_CanSkipP:

; 501  : 		}
; 502  : 		else if( glState.stack_position > 1 )

	cmp	DWORD PTR ?glState@@3UglState_t@@A+112296, 1
	jbe	SHORT $LN5@R_CanSkipP

; 503  : 		{
; 504  : 			ref_instance_t *oldRI = &glState.stack[glState.stack_position - 2];

	mov	eax, DWORD PTR ?glState@@3UglState_t@@A+112296
	sub	eax, 2
	imul	ecx, eax, 14032
	add	ecx, OFFSET ?glState@@3UglState_t@@A+40
	mov	DWORD PTR _oldRI$2[ebp], ecx

; 505  : 			if( FBitSet( oldRI->params, RP_SCREENVIEW ))			

	mov	eax, DWORD PTR _oldRI$2[ebp]
	mov	ecx, DWORD PTR [eax]
	and	ecx, 128				; 00000080H
	je	SHORT $LN5@R_CanSkipP

; 506  : 				return true;

	mov	al, 1
	jmp	$LN1@R_CanSkipP
$LN5@R_CanSkipP:

; 507  : 		}
; 508  : 	}
; 509  : 
; 510  : 	for( int i = 0; i < end; i++ )

	mov	DWORD PTR _i$1[ebp], 0
	jmp	SHORT $LN4@R_CanSkipP
$LN2@R_CanSkipP:
	mov	eax, DWORD PTR _i$1[ebp]
	add	eax, 1
	mov	DWORD PTR _i$1[ebp], eax
$LN4@R_CanSkipP:
	mov	eax, DWORD PTR _i$1[ebp]
	cmp	eax, DWORD PTR _end$[ebp]
	jge	SHORT $LN3@R_CanSkipP

; 511  : 	{
; 512  : 		if( R_CheckMirrorClone( surf, prevRI->subview_faces[i] ))

	mov	eax, DWORD PTR _i$1[ebp]
	mov	ecx, DWORD PTR _prevRI$[ebp]
	mov	edx, DWORD PTR [ecx+eax*4+12976]
	push	edx
	mov	eax, DWORD PTR _surf$[ebp]
	push	eax
	call	?R_CheckMirrorClone@@YA_NPAUmsurface_s@@0@Z ; R_CheckMirrorClone
	add	esp, 8
	movzx	ecx, al
	test	ecx, ecx
	je	SHORT $LN10@R_CanSkipP

; 513  : 			return true;			

	mov	al, 1
	jmp	SHORT $LN1@R_CanSkipP
$LN10@R_CanSkipP:

; 514  : 
; 515  : 		if( R_CheckPortalSource( surf, prevRI->subview_faces[i] ))

	mov	eax, DWORD PTR _i$1[ebp]
	mov	ecx, DWORD PTR _prevRI$[ebp]
	mov	edx, DWORD PTR [ecx+eax*4+12976]
	push	edx
	mov	eax, DWORD PTR _surf$[ebp]
	push	eax
	call	?R_CheckPortalSource@@YA_NPAUmsurface_s@@0@Z ; R_CheckPortalSource
	add	esp, 8
	movzx	ecx, al
	test	ecx, ecx
	je	SHORT $LN11@R_CanSkipP

; 516  : 			return true;

	mov	al, 1
	jmp	SHORT $LN1@R_CanSkipP
$LN11@R_CanSkipP:

; 517  : 
; 518  : 		if( R_CheckScreenSource( surf, prevRI->subview_faces[i] ))

	mov	eax, DWORD PTR _i$1[ebp]
	mov	ecx, DWORD PTR _prevRI$[ebp]
	mov	edx, DWORD PTR [ecx+eax*4+12976]
	push	edx
	mov	eax, DWORD PTR _surf$[ebp]
	push	eax
	call	?R_CheckScreenSource@@YA_NPAUmsurface_s@@0@Z ; R_CheckScreenSource
	add	esp, 8
	movzx	ecx, al
	test	ecx, ecx
	je	SHORT $LN12@R_CanSkipP

; 519  : 			return true;

	mov	al, 1
	jmp	SHORT $LN1@R_CanSkipP
$LN12@R_CanSkipP:

; 520  : 	}

	jmp	$LN2@R_CanSkipP
$LN3@R_CanSkipP:

; 521  : 
; 522  : 	return false;

	xor	al, al
$LN1@R_CanSkipP:

; 523  : }

	pop	edi
	pop	esi
	pop	ebx
	mov	esp, ebp
	pop	ebp
	ret	0
?R_CanSkipPass@@YA_NHPAUmsurface_s@@PAUref_instance_t@@@Z ENDP ; R_CanSkipPass
_TEXT	ENDS
; Function compile flags: /Odtp /ZI
; File d:\!diffusion 2020\source code 2022\client-server\client\render\r_subview.cpp
;	COMDAT ?R_CheckPortalSource@@YA_NPAUmsurface_s@@0@Z
_TEXT	SEGMENT
_surf$ = 8						; size = 4
_check$ = 12						; size = 4
?R_CheckPortalSource@@YA_NPAUmsurface_s@@0@Z PROC	; R_CheckPortalSource, COMDAT

; 473  : {

	push	ebp
	mov	ebp, esp
	sub	esp, 64					; 00000040H
	push	ebx
	push	esi
	push	edi

; 474  : 	if( !FBitSet( surf->flags, SURF_PORTAL ))

	mov	eax, DWORD PTR _surf$[ebp]
	mov	ecx, DWORD PTR [eax+8]
	and	ecx, 512				; 00000200H
	jne	SHORT $LN2@R_CheckPor

; 475  : 		return false;

	xor	al, al
	jmp	SHORT $LN1@R_CheckPor
$LN2@R_CheckPor:

; 476  : 
; 477  : 	if( !FBitSet( check->flags, SURF_PORTAL ))

	mov	eax, DWORD PTR _check$[ebp]
	mov	ecx, DWORD PTR [eax+8]
	and	ecx, 512				; 00000200H
	jne	SHORT $LN3@R_CheckPor

; 478  : 		return false;

	xor	al, al
	jmp	SHORT $LN1@R_CheckPor
$LN3@R_CheckPor:

; 479  : 
; 480  : 	if( !check->info->subtexture[glState.stack_position-1] )

	mov	eax, DWORD PTR _check$[ebp]
	mov	ecx, DWORD PTR [eax+80]
	mov	edx, DWORD PTR ?glState@@3UglState_t@@A+112296
	movsx	eax, WORD PTR [ecx+edx*2+220]
	test	eax, eax
	jne	SHORT $LN4@R_CheckPor

; 481  : 		return false;

	xor	al, al
	jmp	SHORT $LN1@R_CheckPor
$LN4@R_CheckPor:

; 482  : 
; 483  : 	// different cameras
; 484  : 	if( surf->info->parent->curstate.sequence != check->info->parent->curstate.sequence )

	mov	eax, DWORD PTR _surf$[ebp]
	mov	ecx, DWORD PTR [eax+80]
	mov	edx, DWORD PTR [ecx+112]
	mov	eax, DWORD PTR _check$[ebp]
	mov	ecx, DWORD PTR [eax+80]
	mov	eax, DWORD PTR [ecx+112]
	mov	ecx, DWORD PTR [edx+732]
	cmp	ecx, DWORD PTR [eax+732]
	je	SHORT $LN5@R_CheckPor

; 485  : 		return false;

	xor	al, al
	jmp	SHORT $LN1@R_CheckPor
$LN5@R_CheckPor:

; 486  : 
; 487  : 	// just reuse the handle
; 488  : 	surf->info->subtexture[glState.stack_position-1] = check->info->subtexture[glState.stack_position-1];

	mov	eax, DWORD PTR _check$[ebp]
	mov	ecx, DWORD PTR [eax+80]
	mov	edx, DWORD PTR _surf$[ebp]
	mov	eax, DWORD PTR [edx+80]
	mov	edx, DWORD PTR ?glState@@3UglState_t@@A+112296
	mov	esi, DWORD PTR ?glState@@3UglState_t@@A+112296
	mov	cx, WORD PTR [ecx+esi*2+220]
	mov	WORD PTR [eax+edx*2+220], cx

; 489  : 
; 490  : 	return true;

	mov	al, 1
$LN1@R_CheckPor:

; 491  : }

	pop	edi
	pop	esi
	pop	ebx
	mov	esp, ebp
	pop	ebp
	ret	0
?R_CheckPortalSource@@YA_NPAUmsurface_s@@0@Z ENDP	; R_CheckPortalSource
_TEXT	ENDS
; Function compile flags: /Odtp /ZI
; File d:\!diffusion 2020\source code 2022\client-server\client\render\r_subview.cpp
;	COMDAT ?R_CheckScreenSource@@YA_NPAUmsurface_s@@0@Z
_TEXT	SEGMENT
_surf$ = 8						; size = 4
_check$ = 12						; size = 4
?R_CheckScreenSource@@YA_NPAUmsurface_s@@0@Z PROC	; R_CheckScreenSource, COMDAT

; 448  : {

	push	ebp
	mov	ebp, esp
	sub	esp, 64					; 00000040H
	push	ebx
	push	esi
	push	edi

; 449  : 	if( !FBitSet( surf->flags, SURF_SCREEN ))

	mov	eax, DWORD PTR _surf$[ebp]
	mov	ecx, DWORD PTR [eax+8]
	and	ecx, 1024				; 00000400H
	jne	SHORT $LN2@R_CheckScr

; 450  : 		return false;

	xor	al, al
	jmp	$LN1@R_CheckScr
$LN2@R_CheckScr:

; 451  : 
; 452  : 	if( !FBitSet( check->flags, SURF_SCREEN ))

	mov	eax, DWORD PTR _check$[ebp]
	mov	ecx, DWORD PTR [eax+8]
	and	ecx, 1024				; 00000400H
	jne	SHORT $LN3@R_CheckScr

; 453  : 		return false;

	xor	al, al
	jmp	$LN1@R_CheckScr
$LN3@R_CheckScr:

; 454  : 
; 455  : 	if( !check->info->subtexture[glState.stack_position-1] )

	mov	eax, DWORD PTR _check$[ebp]
	mov	ecx, DWORD PTR [eax+80]
	mov	edx, DWORD PTR ?glState@@3UglState_t@@A+112296
	movsx	eax, WORD PTR [ecx+edx*2+220]
	test	eax, eax
	jne	SHORT $LN4@R_CheckScr

; 456  : 		return false;

	xor	al, al
	jmp	SHORT $LN1@R_CheckScr
$LN4@R_CheckScr:

; 457  : 
; 458  : 	// different fov
; 459  : 	if( surf->info->parent->curstate.fuser2 != check->info->parent->curstate.fuser2 )

	mov	eax, DWORD PTR _surf$[ebp]
	mov	ecx, DWORD PTR [eax+80]
	mov	edx, DWORD PTR [ecx+112]
	mov	eax, DWORD PTR _check$[ebp]
	mov	ecx, DWORD PTR [eax+80]
	mov	eax, DWORD PTR [ecx+112]
	movss	xmm0, DWORD PTR [edx+968]
	ucomiss	xmm0, DWORD PTR [eax+968]
	lahf
	test	ah, 68					; 00000044H
	jnp	SHORT $LN5@R_CheckScr

; 460  : 		return false;

	xor	al, al
	jmp	SHORT $LN1@R_CheckScr
$LN5@R_CheckScr:

; 461  : 
; 462  : 	// different cameras
; 463  : 	if( surf->info->parent->curstate.sequence != check->info->parent->curstate.sequence )

	mov	eax, DWORD PTR _surf$[ebp]
	mov	ecx, DWORD PTR [eax+80]
	mov	edx, DWORD PTR [ecx+112]
	mov	eax, DWORD PTR _check$[ebp]
	mov	ecx, DWORD PTR [eax+80]
	mov	eax, DWORD PTR [ecx+112]
	mov	ecx, DWORD PTR [edx+732]
	cmp	ecx, DWORD PTR [eax+732]
	je	SHORT $LN6@R_CheckScr

; 464  : 		return false;

	xor	al, al
	jmp	SHORT $LN1@R_CheckScr
$LN6@R_CheckScr:

; 465  : 
; 466  : 	// just reuse the handle
; 467  : 	surf->info->subtexture[glState.stack_position-1] = check->info->subtexture[glState.stack_position-1];

	mov	eax, DWORD PTR _check$[ebp]
	mov	ecx, DWORD PTR [eax+80]
	mov	edx, DWORD PTR _surf$[ebp]
	mov	eax, DWORD PTR [edx+80]
	mov	edx, DWORD PTR ?glState@@3UglState_t@@A+112296
	mov	esi, DWORD PTR ?glState@@3UglState_t@@A+112296
	mov	cx, WORD PTR [ecx+esi*2+220]
	mov	WORD PTR [eax+edx*2+220], cx

; 468  : 
; 469  : 	return true;

	mov	al, 1
$LN1@R_CheckScr:

; 470  : }

	pop	edi
	pop	esi
	pop	ebx
	mov	esp, ebp
	pop	ebp
	ret	0
?R_CheckScreenSource@@YA_NPAUmsurface_s@@0@Z ENDP	; R_CheckScreenSource
_TEXT	ENDS
; Function compile flags: /Odtp /ZI
; File d:\!diffusion 2020\source code 2022\client-server\client\render\r_subview.cpp
;	COMDAT ?R_CheckMirrorClone@@YA_NPAUmsurface_s@@0@Z
_TEXT	SEGMENT
tv184 = -72						; size = 8
_surf$ = 8						; size = 4
_check$ = 12						; size = 4
?R_CheckMirrorClone@@YA_NPAUmsurface_s@@0@Z PROC	; R_CheckMirrorClone, COMDAT

; 419  : {

	push	ebp
	mov	ebp, esp
	sub	esp, 72					; 00000048H
	push	ebx
	push	esi
	push	edi

; 420  : 	if( !FBitSet( surf->flags, SURF_REFLECT ))

	mov	eax, DWORD PTR _surf$[ebp]
	mov	ecx, DWORD PTR [eax+8]
	and	ecx, -2147483648			; 80000000H
	jne	SHORT $LN2@R_CheckMir

; 421  : 		return false;

	xor	al, al
	jmp	$LN1@R_CheckMir
$LN2@R_CheckMir:

; 422  : 
; 423  : 	if( !FBitSet( check->flags, SURF_REFLECT ))

	mov	eax, DWORD PTR _check$[ebp]
	mov	ecx, DWORD PTR [eax+8]
	and	ecx, -2147483648			; 80000000H
	jne	SHORT $LN3@R_CheckMir

; 424  : 		return false;

	xor	al, al
	jmp	$LN1@R_CheckMir
$LN3@R_CheckMir:

; 425  : 
; 426  : 	if( !check->info->subtexture[glState.stack_position-1] )

	mov	eax, DWORD PTR _check$[ebp]
	mov	ecx, DWORD PTR [eax+80]
	mov	edx, DWORD PTR ?glState@@3UglState_t@@A+112296
	movsx	eax, WORD PTR [ecx+edx*2+220]
	test	eax, eax
	jne	SHORT $LN4@R_CheckMir

; 427  : 		return false;

	xor	al, al
	jmp	$LN1@R_CheckMir
$LN4@R_CheckMir:

; 428  : 
; 429  : 	if( surf->info->parent != check->info->parent )

	mov	eax, DWORD PTR _surf$[ebp]
	mov	ecx, DWORD PTR [eax+80]
	mov	edx, DWORD PTR _check$[ebp]
	mov	eax, DWORD PTR [edx+80]
	mov	ecx, DWORD PTR [ecx+112]
	cmp	ecx, DWORD PTR [eax+112]
	je	SHORT $LN5@R_CheckMir

; 430  : 		return false;

	xor	al, al
	jmp	$LN1@R_CheckMir
$LN5@R_CheckMir:

; 431  : 
; 432  : 	if( FBitSet( surf->flags, SURF_PLANEBACK ) != FBitSet( check->flags, SURF_PLANEBACK ))

	mov	eax, DWORD PTR _surf$[ebp]
	mov	ecx, DWORD PTR [eax+8]
	and	ecx, 2
	mov	edx, DWORD PTR _check$[ebp]
	mov	eax, DWORD PTR [edx+8]
	and	eax, 2
	cmp	ecx, eax
	je	SHORT $LN6@R_CheckMir

; 433  : 		return false;

	xor	al, al
	jmp	$LN1@R_CheckMir
$LN6@R_CheckMir:

; 434  : 
; 435  : 	if( surf->plane->normal != check->plane->normal )

	mov	eax, DWORD PTR _check$[ebp]
	mov	ecx, DWORD PTR [eax+4]
	push	ecx
	mov	edx, DWORD PTR _surf$[ebp]
	mov	ecx, DWORD PTR [edx+4]
	call	??9Vector@@QBEHABV0@@Z			; Vector::operator!=
	test	eax, eax
	je	SHORT $LN7@R_CheckMir

; 436  : 		return false;

	xor	al, al
	jmp	SHORT $LN1@R_CheckMir
$LN7@R_CheckMir:

; 437  : 
; 438  : 	if( fabs( surf->plane->dist - check->plane->dist ) > MIRROR_PLANE_EPSILON )

	mov	eax, DWORD PTR _surf$[ebp]
	mov	ecx, DWORD PTR [eax+4]
	mov	edx, DWORD PTR _check$[ebp]
	mov	eax, DWORD PTR [edx+4]
	movss	xmm0, DWORD PTR [ecx+12]
	subss	xmm0, DWORD PTR [eax+12]
	cvtss2sd xmm0, xmm0
	sub	esp, 8
	movsd	QWORD PTR [esp], xmm0
	call	_fabs
	add	esp, 8
	fstp	QWORD PTR tv184[ebp]
	movsd	xmm0, QWORD PTR tv184[ebp]
	comisd	xmm0, QWORD PTR __real@4040000000000000
	jbe	SHORT $LN8@R_CheckMir

; 439  : 		return false;

	xor	al, al
	jmp	SHORT $LN1@R_CheckMir
$LN8@R_CheckMir:

; 440  : 
; 441  : 	// just reuse the handle
; 442  : 	surf->info->subtexture[glState.stack_position-1] = check->info->subtexture[glState.stack_position-1];

	mov	eax, DWORD PTR _check$[ebp]
	mov	ecx, DWORD PTR [eax+80]
	mov	edx, DWORD PTR _surf$[ebp]
	mov	eax, DWORD PTR [edx+80]
	mov	edx, DWORD PTR ?glState@@3UglState_t@@A+112296
	mov	esi, DWORD PTR ?glState@@3UglState_t@@A+112296
	mov	cx, WORD PTR [ecx+esi*2+220]
	mov	WORD PTR [eax+edx*2+220], cx

; 443  : 
; 444  : 	return true;

	mov	al, 1
$LN1@R_CheckMir:

; 445  : }

	pop	edi
	pop	esi
	pop	ebx
	mov	esp, ebp
	pop	ebp
	ret	0
?R_CheckMirrorClone@@YA_NPAUmsurface_s@@0@Z ENDP	; R_CheckMirrorClone
_TEXT	ENDS
; Function compile flags: /Odtp /ZI
; File d:\!diffusion 2020\source code 2022\client-server\client\render\r_subview.cpp
;	COMDAT ?R_AllocateSubviewTexture@@YAHQAHH@Z
_TEXT	SEGMENT
_texture$ = -8						; size = 4
_i$ = -4						; size = 4
_viewport$ = 8						; size = 4
_texFlags$ = 12						; size = 4
?R_AllocateSubviewTexture@@YAHQAHH@Z PROC		; R_AllocateSubviewTexture, COMDAT

; 360  : {

	push	ebp
	mov	ebp, esp
	sub	esp, 72					; 00000048H
	push	ebx
	push	esi
	push	edi

; 361  : 	int	i, texture;
; 362  : 
; 363  : 	// FIXME: get rid of this
; 364  : 	if( tr.realframecount <= 1 )

	cmp	DWORD PTR ?tr@@3Uref_globals_t@@A+5830928, 1
	jg	SHORT $LN5@R_Allocate

; 365  : 		return 0;

	xor	eax, eax
	jmp	$LN1@R_Allocate
$LN5@R_Allocate:

; 366  : 
; 367  : 	// first, search for available mirror texture
; 368  : 	for( i = 0; i < tr.num_subview_used; i++ )

	mov	DWORD PTR _i$[ebp], 0
	jmp	SHORT $LN4@R_Allocate
$LN2@R_Allocate:
	mov	eax, DWORD PTR _i$[ebp]
	add	eax, 1
	mov	DWORD PTR _i$[ebp], eax
$LN4@R_Allocate:
	mov	eax, DWORD PTR _i$[ebp]
	cmp	eax, DWORD PTR ?tr@@3Uref_globals_t@@A+5708
	jge	$LN3@R_Allocate

; 369  : 	{
; 370  : 		if( tr.subviewTextures[i].texframe == tr.realframecount )

	imul	eax, DWORD PTR _i$[ebp], 76
	mov	ecx, DWORD PTR ?tr@@3Uref_globals_t@@A[eax+84]
	cmp	ecx, DWORD PTR ?tr@@3Uref_globals_t@@A+5830928
	jne	SHORT $LN6@R_Allocate

; 371  : 			continue;	// already used for this frame

	jmp	SHORT $LN2@R_Allocate
$LN6@R_Allocate:

; 372  : 
; 373  : 		if( viewport[2] != RENDER_GET_PARM( PARM_TEX_WIDTH, tr.subviewTextures[i].texturenum ))

	mov	esi, 4
	shl	esi, 1
	imul	eax, DWORD PTR _i$[ebp], 76
	mov	ecx, DWORD PTR ?tr@@3Uref_globals_t@@A[eax+80]
	push	ecx
	push	1
	call	DWORD PTR ?gRenderfuncs@@3Urender_api_s@@A
	add	esp, 8
	mov	edx, DWORD PTR _viewport$[ebp]
	cmp	DWORD PTR [edx+esi], eax
	je	SHORT $LN7@R_Allocate

; 374  : 			continue;	// width mismatched

	jmp	SHORT $LN2@R_Allocate
$LN7@R_Allocate:

; 375  : 
; 376  : 		if( viewport[3] != RENDER_GET_PARM( PARM_TEX_HEIGHT, tr.subviewTextures[i].texturenum ))

	mov	eax, 4
	imul	esi, eax, 3
	imul	ecx, DWORD PTR _i$[ebp], 76
	mov	edx, DWORD PTR ?tr@@3Uref_globals_t@@A[ecx+80]
	push	edx
	push	2
	call	DWORD PTR ?gRenderfuncs@@3Urender_api_s@@A
	add	esp, 8
	mov	ecx, DWORD PTR _viewport$[ebp]
	cmp	DWORD PTR [ecx+esi], eax
	je	SHORT $LN8@R_Allocate

; 377  : 			continue;	// height mismatched

	jmp	SHORT $LN2@R_Allocate
$LN8@R_Allocate:

; 378  : 
; 379  : 		// screens don't want textures with 'clamp' modifier
; 380  : 		if( FBitSet( texFlags, TF_CLAMP ) != FBitSet( RENDER_GET_PARM( PARM_TEX_FLAGS, tr.subviewTextures[i].texturenum ), TF_CLAMP ))

	mov	esi, DWORD PTR _texFlags$[ebp]
	and	esi, 2048				; 00000800H
	imul	eax, DWORD PTR _i$[ebp], 76
	mov	ecx, DWORD PTR ?tr@@3Uref_globals_t@@A[eax+80]
	push	ecx
	push	10					; 0000000aH
	call	DWORD PTR ?gRenderfuncs@@3Urender_api_s@@A
	add	esp, 8
	and	eax, 2048				; 00000800H
	cmp	esi, eax
	je	SHORT $LN9@R_Allocate

; 381  : 			continue;	// mismatch texture flags

	jmp	$LN2@R_Allocate
$LN9@R_Allocate:

; 382  : 
; 383  : 		// found a valid spot
; 384  : 		tr.subviewTextures[i].texframe = tr.realframecount; // now used

	imul	eax, DWORD PTR _i$[ebp], 76
	mov	ecx, DWORD PTR ?tr@@3Uref_globals_t@@A+5830928
	mov	DWORD PTR ?tr@@3Uref_globals_t@@A[eax+84], ecx

; 385  : 		texture = tr.subviewTextures[i].texturenum;

	imul	eax, DWORD PTR _i$[ebp], 76
	mov	ecx, DWORD PTR ?tr@@3Uref_globals_t@@A[eax+80]
	mov	DWORD PTR _texture$[ebp], ecx

; 386  : 		break;

	jmp	SHORT $LN3@R_Allocate

; 387  : 	}

	jmp	$LN2@R_Allocate
$LN3@R_Allocate:

; 388  : 
; 389  : 	if( i == tr.num_subview_used )

	mov	eax, DWORD PTR _i$[ebp]
	cmp	eax, DWORD PTR ?tr@@3Uref_globals_t@@A+5708
	jne	$LN10@R_Allocate

; 390  : 	{
; 391  : 		if( i == MAX_SUBVIEW_TEXTURES )

	cmp	DWORD PTR _i$[ebp], 64			; 00000040H
	jne	SHORT $LN11@R_Allocate

; 392  : 		{
; 393  : 			ALERT( at_error, "R_AllocSubviewTexture: texture limit exceeded (per frame)!\n" );

	push	OFFSET ??_C@_0DM@PKAKDCBK@R_AllocSubviewTexture?3?5texture?5l@
	push	4
	call	?ALERT@@YAXW4ALERT_TYPE@@PADZZ		; ALERT
	add	esp, 8

; 394  : 			return 0;	// disable

	xor	eax, eax
	jmp	$LN1@R_Allocate
$LN11@R_Allocate:

; 395  : 		}
; 396  : 
; 397  : 		// create new mirror texture
; 398  : 		tr.subviewTextures[i].texturenum = texture = CREATE_TEXTURE( va( "*subview%i", i ), viewport[2], viewport[3], NULL, texFlags ); 

	mov	eax, DWORD PTR _texFlags$[ebp]
	push	eax
	push	0
	mov	ecx, 4
	imul	edx, ecx, 3
	mov	eax, DWORD PTR _viewport$[ebp]
	mov	ecx, DWORD PTR [eax+edx]
	push	ecx
	mov	edx, 4
	shl	edx, 1
	mov	eax, DWORD PTR _viewport$[ebp]
	mov	ecx, DWORD PTR [eax+edx]
	push	ecx
	mov	edx, DWORD PTR _i$[ebp]
	push	edx
	push	OFFSET ??_C@_0L@EIAPAJPJ@?$CKsubview?$CFi?$AA@
	call	?va@@YAPADPBDZZ				; va
	add	esp, 8
	push	eax
	call	DWORD PTR ?gRenderfuncs@@3Urender_api_s@@A+64
	add	esp, 20					; 00000014H
	mov	DWORD PTR _texture$[ebp], eax
	imul	eax, DWORD PTR _i$[ebp], 76
	mov	ecx, DWORD PTR _texture$[ebp]
	mov	DWORD PTR ?tr@@3Uref_globals_t@@A[eax+80], ecx

; 399  : 		tr.subviewTextures[i].texframe = tr.realframecount; // now used

	imul	eax, DWORD PTR _i$[ebp], 76
	mov	ecx, DWORD PTR ?tr@@3Uref_globals_t@@A+5830928
	mov	DWORD PTR ?tr@@3Uref_globals_t@@A[eax+84], ecx

; 400  : 		if( GL_Support( R_FRAMEBUFFER_OBJECT ))

	push	20					; 00000014H
	call	?GL_Support@@YA_NH@Z			; GL_Support
	add	esp, 4
	movzx	eax, al
	test	eax, eax
	je	SHORT $LN12@R_Allocate

; 401  : 			tr.subviewTextures[i].framebuffer = R_AllocFrameBuffer( viewport );

	mov	eax, DWORD PTR _viewport$[ebp]
	push	eax
	call	?R_AllocFrameBuffer@@YAHQAH@Z		; R_AllocFrameBuffer
	add	esp, 4
	imul	ecx, DWORD PTR _i$[ebp], 76
	mov	DWORD PTR ?tr@@3Uref_globals_t@@A[ecx+76], eax
$LN12@R_Allocate:

; 402  : 		tr.num_subview_used++; // allocate new one

	mov	eax, DWORD PTR ?tr@@3Uref_globals_t@@A+5708
	add	eax, 1
	mov	DWORD PTR ?tr@@3Uref_globals_t@@A+5708, eax
$LN10@R_Allocate:

; 403  : 	}
; 404  : 
; 405  : 	if( GL_Support( R_FRAMEBUFFER_OBJECT ))

	push	20					; 00000014H
	call	?GL_Support@@YA_NH@Z			; GL_Support
	add	esp, 4
	movzx	eax, al
	test	eax, eax
	je	SHORT $LN13@R_Allocate

; 406  :  	{
; 407  : 		GL_BindFrameBuffer( tr.subviewTextures[i].framebuffer, tr.subviewTextures[i].texturenum );

	imul	eax, DWORD PTR _i$[ebp], 76
	mov	ecx, DWORD PTR ?tr@@3Uref_globals_t@@A[eax+80]
	push	ecx
	imul	edx, DWORD PTR _i$[ebp], 76
	mov	eax, DWORD PTR ?tr@@3Uref_globals_t@@A[edx+76]
	push	eax
	call	?GL_BindFrameBuffer@@YAXHH@Z		; GL_BindFrameBuffer
	add	esp, 8

; 408  : 	}
; 409  : 	else 

	jmp	SHORT $LN14@R_Allocate
$LN13@R_Allocate:

; 410  : 	{
; 411  : 		GL_Bind( GL_TEXTURE0, texture );

	mov	eax, DWORD PTR _texture$[ebp]
	push	eax
	push	0
	call	DWORD PTR ?gRenderfuncs@@3Urender_api_s@@A+132
	add	esp, 8

; 412  : 		pglCopyTexImage2D( GL_TEXTURE_2D, 0, GL_RGB, viewport[0], viewport[1], viewport[2], viewport[3], 0 );

	push	0
	mov	eax, 4
	imul	ecx, eax, 3
	mov	edx, DWORD PTR _viewport$[ebp]
	mov	eax, DWORD PTR [edx+ecx]
	push	eax
	mov	ecx, 4
	shl	ecx, 1
	mov	edx, DWORD PTR _viewport$[ebp]
	mov	eax, DWORD PTR [edx+ecx]
	push	eax
	mov	ecx, 4
	shl	ecx, 0
	mov	edx, DWORD PTR _viewport$[ebp]
	mov	eax, DWORD PTR [edx+ecx]
	push	eax
	mov	ecx, 4
	imul	edx, ecx, 0
	mov	eax, DWORD PTR _viewport$[ebp]
	mov	ecx, DWORD PTR [eax+edx]
	push	ecx
	push	6407					; 00001907H
	push	0
	push	3553					; 00000de1H
	call	DWORD PTR ?pglCopyTexImage2D@@3P6GXIHIHHHHH@ZA ; pglCopyTexImage2D
$LN14@R_Allocate:

; 413  : 	}
; 414  : 
; 415  : 	return (i+1);

	mov	eax, DWORD PTR _i$[ebp]
	add	eax, 1
$LN1@R_Allocate:

; 416  : }

	pop	edi
	pop	esi
	pop	ebx
	mov	esp, ebp
	pop	ebp
	ret	0
?R_AllocateSubviewTexture@@YAHQAHH@Z ENDP		; R_AllocateSubviewTexture
_TEXT	ENDS
; Function compile flags: /Odtp /ZI
; File d:\!diffusion 2020\source code 2022\client-server\client\render\r_subview.cpp
;	COMDAT ?R_SetupScreenView@@YAHPAUmsurface_s@@PAUcl_entity_s@@AAVmatrix4x4@@@Z
_TEXT	SEGMENT
tv290 = -412						; size = 4
tv277 = -412						; size = 4
tv248 = -412						; size = 4
tv640 = -408						; size = 4
tv638 = -408						; size = 4
tv636 = -408						; size = 4
tv289 = -408						; size = 4
tv276 = -408						; size = 4
tv247 = -408						; size = 4
tv225 = -408						; size = 4
$T1 = -404						; size = 12
$T2 = -392						; size = 12
$T3 = -380						; size = 12
_t$4 = -304						; size = 4
_steptime$5 = -300					; size = 4
_viewpos$6 = -296					; size = 12
_forward$7 = -284					; size = 12
_viewmonster$ = -272					; size = 4
_viewparams$8 = -268					; size = 232
_fov$ = -36						; size = 4
_angles$ = -32						; size = 12
_origin$ = -20						; size = 12
_ent$ = -8						; size = 4
__$ArrayPad$ = -4					; size = 4
_surf$ = 8						; size = 4
_camera$ = 12						; size = 4
_viewmatrix$ = 16					; size = 4
?R_SetupScreenView@@YAHPAUmsurface_s@@PAUcl_entity_s@@AAVmatrix4x4@@@Z PROC ; R_SetupScreenView, COMDAT

; 239  : {

	push	ebp
	mov	ebp, esp
	sub	esp, 412				; 0000019cH
	mov	eax, DWORD PTR ___security_cookie
	xor	eax, ebp
	mov	DWORD PTR __$ArrayPad$[ebp], eax
	push	ebx
	push	esi
	push	edi

; 240  : 	cl_entity_t	*ent = surf->info->parent;

	mov	eax, DWORD PTR _surf$[ebp]
	mov	ecx, DWORD PTR [eax+80]
	mov	edx, DWORD PTR [ecx+112]
	mov	DWORD PTR _ent$[ebp], edx

; 241  : 	Vector		origin, angles;

	lea	ecx, DWORD PTR _origin$[ebp]
	call	??0Vector@@QAE@XZ			; Vector::Vector
	lea	ecx, DWORD PTR _angles$[ebp]
	call	??0Vector@@QAE@XZ			; Vector::Vector

; 242  : 	float		fov = 90;

	movss	xmm0, DWORD PTR __real@42b40000
	movss	DWORD PTR _fov$[ebp], xmm0

; 243  : 	
; 244  : 	viewmatrix.Identity();

	mov	ecx, DWORD PTR _viewmatrix$[ebp]
	call	?Identity@matrix4x4@@QAEXXZ		; matrix4x4::Identity

; 245  : 
; 246  : 	if( camera->player && UTIL_IsLocal( camera->curstate.number ))

	mov	eax, DWORD PTR _camera$[ebp]
	cmp	DWORD PTR [eax+4], 0
	je	$LN2@R_SetupScr
	mov	eax, DWORD PTR _camera$[ebp]
	mov	ecx, DWORD PTR [eax+692]
	push	ecx
	call	?UTIL_IsLocal@@YA_NH@Z			; UTIL_IsLocal
	add	esp, 4
	movzx	edx, al
	test	edx, edx
	je	$LN2@R_SetupScr

; 247  : 	{
; 248  : 		ref_params_t	viewparams;

	lea	ecx, DWORD PTR _viewparams$8[ebp]
	call	??0ref_params_s@@QAE@XZ

; 249  : 
; 250  : 		memcpy( &viewparams, &tr.viewparams, sizeof( viewparams ));

	push	232					; 000000e8H
	push	OFFSET ?tr@@3Uref_globals_t@@A+5830656
	lea	eax, DWORD PTR _viewparams$8[ebp]
	push	eax
	call	_memcpy
	add	esp, 12					; 0000000cH

; 251  : 
; 252  : 		// player seen through camera. Restore firstperson view here
; 253  : 		if( tr.viewparams.viewentity > tr.viewparams.maxclients )

	mov	eax, DWORD PTR ?tr@@3Uref_globals_t@@A+5830832
	cmp	eax, DWORD PTR ?tr@@3Uref_globals_t@@A+5830828
	jle	SHORT $LN3@R_SetupScr

; 254  : 			V_CalcFirstPersonRefdef( &viewparams );

	lea	eax, DWORD PTR _viewparams$8[ebp]
	push	eax
	call	?V_CalcFirstPersonRefdef@@YAXPAUref_params_s@@@Z ; V_CalcFirstPersonRefdef
	add	esp, 4
$LN3@R_SetupScr:

; 255  : 
; 256  : 		SetBits( RI->params, RP_SCREENVIEW|RP_FORCE_NOPLAYER );

	mov	eax, DWORD PTR ?RI@@3PAUref_instance_t@@A ; RI
	mov	ecx, DWORD PTR [eax]
	or	ecx, 144				; 00000090H
	mov	edx, DWORD PTR ?RI@@3PAUref_instance_t@@A ; RI
	mov	DWORD PTR [edx], ecx

; 257  : 		RI->pvsorigin = viewparams.vieworg;

	mov	eax, DWORD PTR ?RI@@3PAUref_instance_t@@A ; RI
	add	eax, 180				; 000000b4H
	mov	ecx, DWORD PTR _viewparams$8[ebp]
	mov	DWORD PTR [eax], ecx
	mov	edx, DWORD PTR _viewparams$8[ebp+4]
	mov	DWORD PTR [eax+4], edx
	mov	ecx, DWORD PTR _viewparams$8[ebp+8]
	mov	DWORD PTR [eax+8], ecx

; 258  : 		return TF_NOMIPMAP;

	mov	eax, 4096				; 00001000H
	jmp	$LN1@R_SetupScr
$LN2@R_SetupScr:

; 259  : 	}
; 260  : 
; 261  : 	origin = camera->origin;

	mov	eax, DWORD PTR _camera$[ebp]
	add	eax, 2888				; 00000b48H
	mov	ecx, DWORD PTR [eax]
	mov	DWORD PTR _origin$[ebp], ecx
	mov	edx, DWORD PTR [eax+4]
	mov	DWORD PTR _origin$[ebp+4], edx
	mov	eax, DWORD PTR [eax+8]
	mov	DWORD PTR _origin$[ebp+8], eax

; 262  : 	angles = camera->angles;

	mov	eax, DWORD PTR _camera$[ebp]
	add	eax, 2900				; 00000b54H
	mov	ecx, DWORD PTR [eax]
	mov	DWORD PTR _angles$[ebp], ecx
	mov	edx, DWORD PTR [eax+4]
	mov	DWORD PTR _angles$[ebp+4], edx
	mov	eax, DWORD PTR [eax+8]
	mov	DWORD PTR _angles$[ebp+8], eax

; 263  : 
; 264  : 	studiohdr_t *viewmonster = (studiohdr_t *)IEngineStudio.Mod_Extradata( camera->model );

	mov	eax, DWORD PTR _camera$[ebp]
	mov	ecx, DWORD PTR [eax+2964]
	push	ecx
	call	DWORD PTR ?IEngineStudio@@3Uengine_studio_api_s@@A+16
	add	esp, 4
	mov	DWORD PTR _viewmonster$[ebp], eax

; 265  : 
; 266  : 	// it's monster
; 267  : 	if( viewmonster && FBitSet( camera->curstate.eflags, EFLAG_SLERP ))

	cmp	DWORD PTR _viewmonster$[ebp], 0
	je	$LN4@R_SetupScr
	mov	eax, DWORD PTR _camera$[ebp]
	movzx	ecx, BYTE PTR [eax+756]
	and	ecx, 1
	je	$LN4@R_SetupScr

; 268  : 	{
; 269  : 		Vector forward;

	lea	ecx, DWORD PTR _forward$7[ebp]
	call	??0Vector@@QAE@XZ			; Vector::Vector

; 270  : 		AngleVectors( angles, forward, NULL, NULL );

	push	0
	push	0
	lea	ecx, DWORD PTR _forward$7[ebp]
	call	??BVector@@QAEPAMXZ			; Vector::operator float *
	push	eax
	lea	ecx, DWORD PTR _angles$[ebp]
	call	??BVector@@QAEPAMXZ			; Vector::operator float *
	push	eax
	call	DWORD PTR ?gEngfuncs@@3Ucl_enginefuncs_s@@A+96
	add	esp, 16					; 00000010H

; 271  : 
; 272  : 		Vector viewpos = viewmonster->eyeposition;

	mov	eax, DWORD PTR _viewmonster$[ebp]
	add	eax, 76					; 0000004cH
	push	eax
	lea	ecx, DWORD PTR _viewpos$6[ebp]
	call	??0Vector@@QAE@ABV0@@Z			; Vector::Vector

; 273  : 
; 274  : 		if( viewpos == g_vecZero )

	push	OFFSET ?g_vecZero@@3VVector@@B		; g_vecZero
	lea	ecx, DWORD PTR _viewpos$6[ebp]
	call	??8Vector@@QBEHABV0@@Z			; Vector::operator==
	test	eax, eax
	je	SHORT $LN5@R_SetupScr

; 275  : 			viewpos = Vector( 0, 0, 8.0f );// monster_cockroach

	push	ecx
	movss	xmm0, DWORD PTR __real@41000000
	movss	DWORD PTR [esp], xmm0
	push	ecx
	xorps	xmm0, xmm0
	movss	DWORD PTR [esp], xmm0
	push	ecx
	xorps	xmm0, xmm0
	movss	DWORD PTR [esp], xmm0
	lea	ecx, DWORD PTR $T3[ebp]
	call	??0Vector@@QAE@MMM@Z			; Vector::Vector
	mov	ecx, DWORD PTR [eax]
	mov	DWORD PTR _viewpos$6[ebp], ecx
	mov	edx, DWORD PTR [eax+4]
	mov	DWORD PTR _viewpos$6[ebp+4], edx
	mov	eax, DWORD PTR [eax+8]
	mov	DWORD PTR _viewpos$6[ebp+8], eax
$LN5@R_SetupScr:

; 276  : 		origin += viewpos + forward * 8.0f;	// best value for humans

	push	ecx
	movss	xmm0, DWORD PTR __real@41000000
	movss	DWORD PTR [esp], xmm0
	lea	eax, DWORD PTR $T2[ebp]
	push	eax
	lea	ecx, DWORD PTR _forward$7[ebp]
	call	??DVector@@QBE?AV0@M@Z			; Vector::operator*
	push	eax
	lea	ecx, DWORD PTR $T1[ebp]
	push	ecx
	lea	ecx, DWORD PTR _viewpos$6[ebp]
	call	??HVector@@QBE?AV0@ABV0@@Z		; Vector::operator+
	push	eax
	lea	ecx, DWORD PTR _origin$[ebp]
	call	??YVector@@QAEAAV0@ABV0@@Z		; Vector::operator+=
$LN4@R_SetupScr:

; 277  : 	}
; 278  : 
; 279  : 	// smooth step stair climbing
; 280  : 	// lasttime goes into ent->latched.sequencetime
; 281  : 	// oldz goes into ent->latched.prevanimtime
; 282  : 	// HACKHACK we store interpolate values into func_monitor entity to avoid broke lerp
; 283  : 	if( origin[2] - ent->latched.prevanimtime > 0.0f )

	lea	ecx, DWORD PTR _origin$[ebp]
	call	??BVector@@QAEPAMXZ			; Vector::operator float *
	mov	ecx, 4
	shl	ecx, 1
	mov	edx, DWORD PTR _ent$[ebp]
	movss	xmm0, DWORD PTR [eax+ecx]
	subss	xmm0, DWORD PTR [edx+2832]
	comiss	xmm0, DWORD PTR __real@00000000
	jbe	$LN6@R_SetupScr

; 284  : 	{
; 285  : 		float steptime;
; 286  : 		
; 287  : 		steptime = tr.time - ent->latched.sequencetime;

	mov	eax, DWORD PTR _ent$[ebp]
	cvtss2sd xmm0, DWORD PTR [eax+2836]
	movsd	xmm1, QWORD PTR ?tr@@3Uref_globals_t@@A+8
	subsd	xmm1, xmm0
	cvtsd2ss xmm0, xmm1
	movss	DWORD PTR _steptime$5[ebp], xmm0

; 288  : 		if( steptime < 0 ) steptime = 0;

	xorps	xmm0, xmm0
	comiss	xmm0, DWORD PTR _steptime$5[ebp]
	jbe	SHORT $LN8@R_SetupScr
	xorps	xmm0, xmm0
	movss	DWORD PTR _steptime$5[ebp], xmm0
$LN8@R_SetupScr:

; 289  : 
; 290  : 		ent->latched.prevanimtime += steptime * 150.0f;

	movss	xmm0, DWORD PTR _steptime$5[ebp]
	mulss	xmm0, DWORD PTR __real@43160000
	mov	eax, DWORD PTR _ent$[ebp]
	addss	xmm0, DWORD PTR [eax+2832]
	mov	ecx, DWORD PTR _ent$[ebp]
	movss	DWORD PTR [ecx+2832], xmm0

; 291  : 
; 292  : 		if( ent->latched.prevanimtime > origin[2] )

	lea	ecx, DWORD PTR _origin$[ebp]
	call	??BVector@@QAEPAMXZ			; Vector::operator float *
	mov	ecx, 4
	shl	ecx, 1
	mov	edx, DWORD PTR _ent$[ebp]
	movss	xmm0, DWORD PTR [edx+2832]
	comiss	xmm0, DWORD PTR [eax+ecx]
	jbe	SHORT $LN9@R_SetupScr

; 293  : 			ent->latched.prevanimtime = origin[2];

	lea	ecx, DWORD PTR _origin$[ebp]
	call	??BVector@@QAEPAMXZ			; Vector::operator float *
	mov	ecx, 4
	shl	ecx, 1
	mov	edx, DWORD PTR _ent$[ebp]
	mov	eax, DWORD PTR [eax+ecx]
	mov	DWORD PTR [edx+2832], eax
$LN9@R_SetupScr:

; 294  : 		if( origin[2] - ent->latched.prevanimtime > tr.movevars->stepsize )

	lea	ecx, DWORD PTR _origin$[ebp]
	call	??BVector@@QAEPAMXZ			; Vector::operator float *
	mov	ecx, 4
	shl	ecx, 1
	mov	edx, DWORD PTR _ent$[ebp]
	movss	xmm0, DWORD PTR [eax+ecx]
	subss	xmm0, DWORD PTR [edx+2832]
	mov	eax, DWORD PTR ?tr@@3Uref_globals_t@@A+5830888
	comiss	xmm0, DWORD PTR [eax+48]
	jbe	SHORT $LN10@R_SetupScr

; 295  : 			ent->latched.prevanimtime = origin[2] - tr.movevars->stepsize;

	lea	ecx, DWORD PTR _origin$[ebp]
	call	??BVector@@QAEPAMXZ			; Vector::operator float *
	mov	ecx, 4
	shl	ecx, 1
	mov	edx, DWORD PTR ?tr@@3Uref_globals_t@@A+5830888
	movss	xmm0, DWORD PTR [eax+ecx]
	subss	xmm0, DWORD PTR [edx+48]
	mov	eax, DWORD PTR _ent$[ebp]
	movss	DWORD PTR [eax+2832], xmm0
$LN10@R_SetupScr:

; 296  : 
; 297  : 		origin[2] += ent->latched.prevanimtime - origin[2];

	lea	ecx, DWORD PTR _origin$[ebp]
	call	??BVector@@QAEPAMXZ			; Vector::operator float *
	mov	ecx, 4
	shl	ecx, 1
	add	eax, ecx
	mov	DWORD PTR tv225[ebp], eax
	lea	ecx, DWORD PTR _origin$[ebp]
	call	??BVector@@QAEPAMXZ			; Vector::operator float *
	mov	edx, 4
	shl	edx, 1
	mov	ecx, DWORD PTR _ent$[ebp]
	movss	xmm0, DWORD PTR [ecx+2832]
	subss	xmm0, DWORD PTR [eax+edx]
	mov	edx, DWORD PTR tv225[ebp]
	addss	xmm0, DWORD PTR [edx]
	mov	eax, DWORD PTR tv225[ebp]
	movss	DWORD PTR [eax], xmm0

; 298  : 	}
; 299  : 	else

	jmp	SHORT $LN7@R_SetupScr
$LN6@R_SetupScr:

; 300  : 	{
; 301  : 		ent->latched.prevanimtime = origin[2];

	lea	ecx, DWORD PTR _origin$[ebp]
	call	??BVector@@QAEPAMXZ			; Vector::operator float *
	mov	ecx, 4
	shl	ecx, 1
	mov	edx, DWORD PTR _ent$[ebp]
	mov	eax, DWORD PTR [eax+ecx]
	mov	DWORD PTR [edx+2832], eax
$LN7@R_SetupScr:

; 302  : 	}
; 303  : 
; 304  : 	ent->latched.sequencetime = tr.time;

	cvtsd2ss xmm0, QWORD PTR ?tr@@3Uref_globals_t@@A+8
	mov	eax, DWORD PTR _ent$[ebp]
	movss	DWORD PTR [eax+2836], xmm0

; 305  :  
; 306  : 	// setup the screen fov
; 307  :  	if( ent->curstate.fuser2 != 0.0f )

	mov	eax, DWORD PTR _ent$[ebp]
	movss	xmm0, DWORD PTR [eax+968]
	ucomiss	xmm0, DWORD PTR __real@00000000
	lahf
	test	ah, 68					; 00000044H
	jnp	SHORT $LN11@R_SetupScr

; 308  :  		fov = bound( 10, ent->curstate.fuser2, 120 );

	mov	eax, DWORD PTR _ent$[ebp]
	movss	xmm0, DWORD PTR [eax+968]
	comiss	xmm0, DWORD PTR __real@41200000
	jb	SHORT $LN22@R_SetupScr
	mov	ecx, DWORD PTR _ent$[ebp]
	movss	xmm0, DWORD PTR __real@42f00000
	comiss	xmm0, DWORD PTR [ecx+968]
	jbe	SHORT $LN20@R_SetupScr
	mov	edx, DWORD PTR _ent$[ebp]
	movss	xmm0, DWORD PTR [edx+968]
	movss	DWORD PTR tv247[ebp], xmm0
	jmp	SHORT $LN21@R_SetupScr
$LN20@R_SetupScr:
	movss	xmm0, DWORD PTR __real@42f00000
	movss	DWORD PTR tv247[ebp], xmm0
$LN21@R_SetupScr:
	movss	xmm0, DWORD PTR tv247[ebp]
	movss	DWORD PTR tv248[ebp], xmm0
	jmp	SHORT $LN23@R_SetupScr
$LN22@R_SetupScr:
	movss	xmm0, DWORD PTR __real@41200000
	movss	DWORD PTR tv248[ebp], xmm0
$LN23@R_SetupScr:
	movss	xmm0, DWORD PTR tv248[ebp]
	movss	DWORD PTR _fov$[ebp], xmm0
$LN11@R_SetupScr:

; 309  : 
; 310  :  	if( GL_Support( R_ARB_TEXTURE_NPOT_EXT ))

	push	16					; 00000010H
	call	?GL_Support@@YA_NH@Z			; GL_Support
	add	esp, 4
	movzx	eax, al
	test	eax, eax
	je	$LN12@R_SetupScr

; 311  : 	{
; 312  : 		texture_t	*t = surf->texinfo->texture;

	mov	eax, DWORD PTR _surf$[ebp]
	mov	ecx, DWORD PTR [eax+44]
	mov	edx, DWORD PTR [ecx+36]
	mov	DWORD PTR _t$4[ebp], edx

; 313  : 
; 314  : 		if(( t->width == 64 ) && ( t->height == 64 )) 

	mov	eax, DWORD PTR _t$4[ebp]
	cmp	DWORD PTR [eax+16], 64			; 00000040H
	jne	SHORT $LN14@R_SetupScr
	mov	eax, DWORD PTR _t$4[ebp]
	cmp	DWORD PTR [eax+20], 64			; 00000040H
	jne	SHORT $LN14@R_SetupScr

; 315  : 		{
; 316  : 			// HACKHACK: for default texture
; 317  : 			RI->viewport[2] = RI->viewport[3] = 512;

	mov	eax, 4
	imul	ecx, eax, 3
	mov	edx, DWORD PTR ?RI@@3PAUref_instance_t@@A ; RI
	mov	DWORD PTR [edx+ecx+32], 512		; 00000200H
	mov	eax, 4
	shl	eax, 1
	mov	ecx, DWORD PTR ?RI@@3PAUref_instance_t@@A ; RI
	mov	DWORD PTR [ecx+eax+32], 512		; 00000200H

; 318  : 		}
; 319  : 		else

	jmp	$LN15@R_SetupScr
$LN14@R_SetupScr:

; 320  : 		{
; 321  : 			RI->viewport[2] = bound( 64, t->width * 2, 2048 ); // diffusion - increased from 1024 to 2048

	mov	eax, DWORD PTR _t$4[ebp]
	mov	ecx, DWORD PTR [eax+16]
	shl	ecx, 1
	cmp	ecx, 64					; 00000040H
	jb	SHORT $LN26@R_SetupScr
	mov	edx, DWORD PTR _t$4[ebp]
	mov	eax, DWORD PTR [edx+16]
	shl	eax, 1
	cmp	eax, 2048				; 00000800H
	jae	SHORT $LN24@R_SetupScr
	mov	ecx, DWORD PTR _t$4[ebp]
	mov	edx, DWORD PTR [ecx+16]
	shl	edx, 1
	mov	DWORD PTR tv276[ebp], edx
	jmp	SHORT $LN25@R_SetupScr
$LN24@R_SetupScr:
	mov	DWORD PTR tv276[ebp], 2048		; 00000800H
$LN25@R_SetupScr:
	mov	eax, DWORD PTR tv276[ebp]
	mov	DWORD PTR tv277[ebp], eax
	jmp	SHORT $LN27@R_SetupScr
$LN26@R_SetupScr:
	mov	DWORD PTR tv277[ebp], 64		; 00000040H
$LN27@R_SetupScr:
	mov	ecx, 4
	shl	ecx, 1
	mov	edx, DWORD PTR ?RI@@3PAUref_instance_t@@A ; RI
	mov	eax, DWORD PTR tv277[ebp]
	mov	DWORD PTR [edx+ecx+32], eax

; 322  : 			RI->viewport[3] = bound( 64, t->height * 2, 2048 );

	mov	eax, DWORD PTR _t$4[ebp]
	mov	ecx, DWORD PTR [eax+20]
	shl	ecx, 1
	cmp	ecx, 64					; 00000040H
	jb	SHORT $LN30@R_SetupScr
	mov	edx, DWORD PTR _t$4[ebp]
	mov	eax, DWORD PTR [edx+20]
	shl	eax, 1
	cmp	eax, 2048				; 00000800H
	jae	SHORT $LN28@R_SetupScr
	mov	ecx, DWORD PTR _t$4[ebp]
	mov	edx, DWORD PTR [ecx+20]
	shl	edx, 1
	mov	DWORD PTR tv289[ebp], edx
	jmp	SHORT $LN29@R_SetupScr
$LN28@R_SetupScr:
	mov	DWORD PTR tv289[ebp], 2048		; 00000800H
$LN29@R_SetupScr:
	mov	eax, DWORD PTR tv289[ebp]
	mov	DWORD PTR tv290[ebp], eax
	jmp	SHORT $LN31@R_SetupScr
$LN30@R_SetupScr:
	mov	DWORD PTR tv290[ebp], 64		; 00000040H
$LN31@R_SetupScr:
	mov	ecx, 4
	imul	edx, ecx, 3
	mov	eax, DWORD PTR ?RI@@3PAUref_instance_t@@A ; RI
	mov	ecx, DWORD PTR tv290[ebp]
	mov	DWORD PTR [eax+edx+32], ecx
$LN15@R_SetupScr:

; 323  : 		}

	jmp	SHORT $LN13@R_SetupScr
$LN12@R_SetupScr:

; 324  : 	}
; 325  : 	else RI->viewport[2] = RI->viewport[3] = 512;

	mov	eax, 4
	imul	ecx, eax, 3
	mov	edx, DWORD PTR ?RI@@3PAUref_instance_t@@A ; RI
	mov	DWORD PTR [edx+ecx+32], 512		; 00000200H
	mov	eax, 4
	shl	eax, 1
	mov	ecx, DWORD PTR ?RI@@3PAUref_instance_t@@A ; RI
	mov	DWORD PTR [ecx+eax+32], 512		; 00000200H
$LN13@R_SetupScr:

; 326  : 
; 327  :  	// setup the screen FOV
; 328  :  	if( RI->viewport[2] == RI->viewport[3] )

	mov	eax, 4
	shl	eax, 1
	mov	ecx, 4
	imul	edx, ecx, 3
	mov	ecx, DWORD PTR ?RI@@3PAUref_instance_t@@A ; RI
	mov	esi, DWORD PTR ?RI@@3PAUref_instance_t@@A ; RI
	mov	eax, DWORD PTR [ecx+eax+32]
	cmp	eax, DWORD PTR [esi+edx+32]
	jne	SHORT $LN16@R_SetupScr

; 329  :  	{
; 330  :   		RI->fov_x = fov;

	mov	eax, DWORD PTR ?RI@@3PAUref_instance_t@@A ; RI
	movss	xmm0, DWORD PTR _fov$[ebp]
	movss	DWORD PTR [eax+8], xmm0

; 331  :  		RI->fov_y = fov;

	mov	eax, DWORD PTR ?RI@@3PAUref_instance_t@@A ; RI
	movss	xmm0, DWORD PTR _fov$[ebp]
	movss	DWORD PTR [eax+12], xmm0

; 332  :  	}
; 333  : 	else

	jmp	SHORT $LN17@R_SetupScr
$LN16@R_SetupScr:

; 334  : 	{
; 335  :  		RI->fov_x = fov;

	mov	eax, DWORD PTR ?RI@@3PAUref_instance_t@@A ; RI
	movss	xmm0, DWORD PTR _fov$[ebp]
	movss	DWORD PTR [eax+8], xmm0

; 336  :  		RI->fov_y = V_CalcFov( RI->fov_x, RI->viewport[2], RI->viewport[3] );

	mov	eax, 4
	imul	ecx, eax, 3
	mov	edx, DWORD PTR ?RI@@3PAUref_instance_t@@A ; RI
	cvtsi2ss xmm0, DWORD PTR [edx+ecx+32]
	push	ecx
	movss	DWORD PTR [esp], xmm0
	mov	eax, 4
	shl	eax, 1
	mov	ecx, DWORD PTR ?RI@@3PAUref_instance_t@@A ; RI
	cvtsi2ss xmm0, DWORD PTR [ecx+eax+32]
	push	ecx
	movss	DWORD PTR [esp], xmm0
	mov	edx, DWORD PTR ?RI@@3PAUref_instance_t@@A ; RI
	add	edx, 8
	push	edx
	call	?V_CalcFov@@YAMAAMMM@Z			; V_CalcFov
	add	esp, 12					; 0000000cH
	mov	eax, DWORD PTR ?RI@@3PAUref_instance_t@@A ; RI
	fstp	DWORD PTR [eax+12]
$LN17@R_SetupScr:

; 337  : 	}
; 338  : 
; 339  : 	RI->viewangles[0] = anglemod( angles[0] );

	lea	ecx, DWORD PTR _angles$[ebp]
	call	??BVector@@QAEPAMXZ			; Vector::operator float *
	mov	ecx, 4
	imul	edx, ecx, 0
	push	ecx
	movss	xmm0, DWORD PTR [eax+edx]
	movss	DWORD PTR [esp], xmm0
	call	?anglemod@@YAMM@Z			; anglemod
	add	esp, 4
	mov	ecx, DWORD PTR ?RI@@3PAUref_instance_t@@A ; RI
	add	ecx, 192				; 000000c0H
	fstp	DWORD PTR tv636[ebp]
	call	??BVector@@QAEPAMXZ			; Vector::operator float *
	mov	ecx, 4
	imul	edx, ecx, 0
	fld	DWORD PTR tv636[ebp]
	fstp	DWORD PTR [eax+edx]

; 340  : 	RI->viewangles[1] = anglemod( angles[1] );

	lea	ecx, DWORD PTR _angles$[ebp]
	call	??BVector@@QAEPAMXZ			; Vector::operator float *
	mov	ecx, 4
	shl	ecx, 0
	push	ecx
	movss	xmm0, DWORD PTR [eax+ecx]
	movss	DWORD PTR [esp], xmm0
	call	?anglemod@@YAMM@Z			; anglemod
	add	esp, 4
	mov	ecx, DWORD PTR ?RI@@3PAUref_instance_t@@A ; RI
	add	ecx, 192				; 000000c0H
	fstp	DWORD PTR tv638[ebp]
	call	??BVector@@QAEPAMXZ			; Vector::operator float *
	mov	edx, 4
	shl	edx, 0
	fld	DWORD PTR tv638[ebp]
	fstp	DWORD PTR [eax+edx]

; 341  : 	RI->viewangles[2] = anglemod( angles[2] );

	lea	ecx, DWORD PTR _angles$[ebp]
	call	??BVector@@QAEPAMXZ			; Vector::operator float *
	mov	ecx, 4
	shl	ecx, 1
	push	ecx
	movss	xmm0, DWORD PTR [eax+ecx]
	movss	DWORD PTR [esp], xmm0
	call	?anglemod@@YAMM@Z			; anglemod
	add	esp, 4
	mov	ecx, DWORD PTR ?RI@@3PAUref_instance_t@@A ; RI
	add	ecx, 192				; 000000c0H
	fstp	DWORD PTR tv640[ebp]
	call	??BVector@@QAEPAMXZ			; Vector::operator float *
	mov	edx, 4
	shl	edx, 1
	fld	DWORD PTR tv640[ebp]
	fstp	DWORD PTR [eax+edx]

; 342  : 	RI->pvsorigin = camera->origin;

	mov	eax, DWORD PTR _camera$[ebp]
	add	eax, 2888				; 00000b48H
	mov	ecx, DWORD PTR ?RI@@3PAUref_instance_t@@A ; RI
	add	ecx, 180				; 000000b4H
	mov	edx, DWORD PTR [eax]
	mov	DWORD PTR [ecx], edx
	mov	edx, DWORD PTR [eax+4]
	mov	DWORD PTR [ecx+4], edx
	mov	eax, DWORD PTR [eax+8]
	mov	DWORD PTR [ecx+8], eax

; 343  : 	RI->vieworg = origin;

	mov	eax, DWORD PTR ?RI@@3PAUref_instance_t@@A ; RI
	add	eax, 204				; 000000ccH
	mov	ecx, DWORD PTR _origin$[ebp]
	mov	DWORD PTR [eax], ecx
	mov	edx, DWORD PTR _origin$[ebp+4]
	mov	DWORD PTR [eax+4], edx
	mov	ecx, DWORD PTR _origin$[ebp+8]
	mov	DWORD PTR [eax+8], ecx

; 344  : 
; 345  : 	RI->params = RP_SCREENVIEW;

	mov	eax, DWORD PTR ?RI@@3PAUref_instance_t@@A ; RI
	mov	DWORD PTR [eax], 128			; 00000080H

; 346  : 	if( camera->player )

	mov	eax, DWORD PTR _camera$[ebp]
	cmp	DWORD PTR [eax+4], 0
	je	SHORT $LN18@R_SetupScr

; 347  : 		SetBits( RI->params, RP_FORCE_NOPLAYER ); // camera set to player don't draw him

	mov	eax, DWORD PTR ?RI@@3PAUref_instance_t@@A ; RI
	mov	ecx, DWORD PTR [eax]
	or	ecx, 16					; 00000010H
	mov	edx, DWORD PTR ?RI@@3PAUref_instance_t@@A ; RI
	mov	DWORD PTR [edx], ecx
$LN18@R_SetupScr:

; 348  : 
; 349  : 	return TF_NOMIPMAP;

	mov	eax, 4096				; 00001000H
$LN1@R_SetupScr:

; 350  : }

	pop	edi
	pop	esi
	pop	ebx
	mov	ecx, DWORD PTR __$ArrayPad$[ebp]
	xor	ecx, ebp
	call	@__security_check_cookie@4
	mov	esp, ebp
	pop	ebp
	ret	0
?R_SetupScreenView@@YAHPAUmsurface_s@@PAUcl_entity_s@@AAVmatrix4x4@@@Z ENDP ; R_SetupScreenView
_TEXT	ENDS
; Function compile flags: /Odtp /ZI
; File d:\!diffusion 2020\source code 2022\client-server\client\render\r_subview.cpp
;	COMDAT ?R_SetupPortalView@@YAHPAUmsurface_s@@PAUcl_entity_s@@AAVmatrix4x4@@@Z
_TEXT	SEGMENT
tv391 = -936						; size = 4
tv375 = -936						; size = 4
tv341 = -936						; size = 4
tv325 = -936						; size = 4
tv628 = -932						; size = 4
tv626 = -932						; size = 4
tv624 = -932						; size = 4
tv622 = -932						; size = 4
tv390 = -932						; size = 4
tv374 = -932						; size = 4
tv340 = -932						; size = 4
tv324 = -932						; size = 4
$T1 = -928						; size = 12
$T2 = -916						; size = 12
$T3 = -904						; size = 64
$T4 = -836						; size = 64
$T5 = -768						; size = 64
$T6 = -704						; size = 12
$T7 = -692						; size = 16
$T8 = -676						; size = 16
$T9 = -660						; size = 16
$T10 = -644						; size = 16
$T11 = -628						; size = 64
$T12 = -564						; size = 64
$T13 = -500						; size = 64
$T14 = -436						; size = 64
_plane$ = -244						; size = 20
_angles$ = -224						; size = 12
_origin$ = -212						; size = 12
_viewMat$ = -200					; size = 64
_cameraMat$ = -136					; size = 64
_surfaceMat$ = -72					; size = 64
_ent$ = -8						; size = 4
__$ArrayPad$ = -4					; size = 4
_surf$ = 8						; size = 4
_camera$ = 12						; size = 4
_viewmatrix$ = 16					; size = 4
?R_SetupPortalView@@YAHPAUmsurface_s@@PAUcl_entity_s@@AAVmatrix4x4@@@Z PROC ; R_SetupPortalView, COMDAT

; 150  : {

	push	ebp
	mov	ebp, esp
	sub	esp, 936				; 000003a8H
	mov	eax, DWORD PTR ___security_cookie
	xor	eax, ebp
	mov	DWORD PTR __$ArrayPad$[ebp], eax
	push	ebx
	push	esi
	push	edi

; 151  : 	cl_entity_t	*ent = surf->info->parent;

	mov	eax, DWORD PTR _surf$[ebp]
	mov	ecx, DWORD PTR [eax+80]
	mov	edx, DWORD PTR [ecx+112]
	mov	DWORD PTR _ent$[ebp], edx

; 152  : 	matrix4x4		surfaceMat, cameraMat, viewMat;

	lea	ecx, DWORD PTR _surfaceMat$[ebp]
	call	??0matrix4x4@@QAE@XZ			; matrix4x4::matrix4x4
	lea	ecx, DWORD PTR _cameraMat$[ebp]
	call	??0matrix4x4@@QAE@XZ			; matrix4x4::matrix4x4
	lea	ecx, DWORD PTR _viewMat$[ebp]
	call	??0matrix4x4@@QAE@XZ			; matrix4x4::matrix4x4

; 153  : 	Vector		origin, angles;

	lea	ecx, DWORD PTR _origin$[ebp]
	call	??0Vector@@QAE@XZ			; Vector::Vector
	lea	ecx, DWORD PTR _angles$[ebp]
	call	??0Vector@@QAE@XZ			; Vector::Vector

; 154  : 	mplane_t		plane;

	lea	ecx, DWORD PTR _plane$[ebp]
	call	??0mplane_s@@QAE@XZ

; 155  : 
; 156  : 	if( !R_StaticEntity( ent ))

	push	OFFSET ?g_vecZero@@3VVector@@B		; g_vecZero
	mov	ecx, DWORD PTR _ent$[ebp]
	add	ecx, 2888				; 00000b48H
	call	??8Vector@@QBEHABV0@@Z			; Vector::operator==
	test	eax, eax
	je	SHORT $LN4@R_SetupPor
	push	OFFSET ?g_vecZero@@3VVector@@B		; g_vecZero
	mov	ecx, DWORD PTR _ent$[ebp]
	add	ecx, 2900				; 00000b54H
	call	??8Vector@@QBEHABV0@@Z			; Vector::operator==
	test	eax, eax
	jne	$LN2@R_SetupPor
$LN4@R_SetupPor:

; 157  : 	{
; 158  : 		if( ent->angles != g_vecZero )

	push	OFFSET ?g_vecZero@@3VVector@@B		; g_vecZero
	mov	ecx, DWORD PTR _ent$[ebp]
	add	ecx, 2900				; 00000b54H
	call	??9Vector@@QBEHABV0@@Z			; Vector::operator!=
	test	eax, eax
	je	SHORT $LN5@R_SetupPor

; 159  : 			surfaceMat = matrix4x4( ent->origin, ent->angles );

	push	ecx
	movss	xmm0, DWORD PTR __real@3f800000
	movss	DWORD PTR [esp], xmm0
	mov	eax, DWORD PTR _ent$[ebp]
	add	eax, 2900				; 00000b54H
	push	eax
	mov	ecx, DWORD PTR _ent$[ebp]
	add	ecx, 2888				; 00000b48H
	push	ecx
	lea	ecx, DWORD PTR $T14[ebp]
	call	??0matrix4x4@@QAE@ABVVector@@0M@Z	; matrix4x4::matrix4x4
	push	eax
	lea	ecx, DWORD PTR _surfaceMat$[ebp]
	call	??4matrix4x4@@QAEAAV0@ABV0@@Z		; matrix4x4::operator=

; 160  : 		else

	jmp	SHORT $LN6@R_SetupPor
$LN5@R_SetupPor:

; 161  : 			surfaceMat = matrix4x4( ent->origin, g_vecZero );

	push	ecx
	movss	xmm0, DWORD PTR __real@3f800000
	movss	DWORD PTR [esp], xmm0
	push	OFFSET ?g_vecZero@@3VVector@@B		; g_vecZero
	mov	eax, DWORD PTR _ent$[ebp]
	add	eax, 2888				; 00000b48H
	push	eax
	lea	ecx, DWORD PTR $T13[ebp]
	call	??0matrix4x4@@QAE@ABVVector@@0M@Z	; matrix4x4::matrix4x4
	push	eax
	lea	ecx, DWORD PTR _surfaceMat$[ebp]
	call	??4matrix4x4@@QAEAAV0@ABV0@@Z		; matrix4x4::operator=
$LN6@R_SetupPor:

; 162  : 	}
; 163  : 	else

	jmp	SHORT $LN3@R_SetupPor
$LN2@R_SetupPor:

; 164  : 		surfaceMat.Identity();

	lea	ecx, DWORD PTR _surfaceMat$[ebp]
	call	?Identity@matrix4x4@@QAEXXZ		; matrix4x4::Identity
$LN3@R_SetupPor:

; 165  : 
; 166  : 	if( !R_StaticEntity( camera ))

	push	OFFSET ?g_vecZero@@3VVector@@B		; g_vecZero
	mov	ecx, DWORD PTR _camera$[ebp]
	add	ecx, 2888				; 00000b48H
	call	??8Vector@@QBEHABV0@@Z			; Vector::operator==
	test	eax, eax
	je	SHORT $LN9@R_SetupPor
	push	OFFSET ?g_vecZero@@3VVector@@B		; g_vecZero
	mov	ecx, DWORD PTR _camera$[ebp]
	add	ecx, 2900				; 00000b54H
	call	??8Vector@@QBEHABV0@@Z			; Vector::operator==
	test	eax, eax
	jne	$LN7@R_SetupPor
$LN9@R_SetupPor:

; 167  : 	{
; 168  : 		if( camera->angles != g_vecZero )

	push	OFFSET ?g_vecZero@@3VVector@@B		; g_vecZero
	mov	ecx, DWORD PTR _camera$[ebp]
	add	ecx, 2900				; 00000b54H
	call	??9Vector@@QBEHABV0@@Z			; Vector::operator!=
	test	eax, eax
	je	SHORT $LN10@R_SetupPor

; 169  : 			cameraMat = matrix4x4( camera->origin, camera->angles );

	push	ecx
	movss	xmm0, DWORD PTR __real@3f800000
	movss	DWORD PTR [esp], xmm0
	mov	eax, DWORD PTR _camera$[ebp]
	add	eax, 2900				; 00000b54H
	push	eax
	mov	ecx, DWORD PTR _camera$[ebp]
	add	ecx, 2888				; 00000b48H
	push	ecx
	lea	ecx, DWORD PTR $T12[ebp]
	call	??0matrix4x4@@QAE@ABVVector@@0M@Z	; matrix4x4::matrix4x4
	push	eax
	lea	ecx, DWORD PTR _cameraMat$[ebp]
	call	??4matrix4x4@@QAEAAV0@ABV0@@Z		; matrix4x4::operator=

; 170  : 		else

	jmp	SHORT $LN11@R_SetupPor
$LN10@R_SetupPor:

; 171  : 			cameraMat = matrix4x4( camera->origin, g_vecZero );

	push	ecx
	movss	xmm0, DWORD PTR __real@3f800000
	movss	DWORD PTR [esp], xmm0
	push	OFFSET ?g_vecZero@@3VVector@@B		; g_vecZero
	mov	eax, DWORD PTR _camera$[ebp]
	add	eax, 2888				; 00000b48H
	push	eax
	lea	ecx, DWORD PTR $T11[ebp]
	call	??0matrix4x4@@QAE@ABVVector@@0M@Z	; matrix4x4::matrix4x4
	push	eax
	lea	ecx, DWORD PTR _cameraMat$[ebp]
	call	??4matrix4x4@@QAEAAV0@ABV0@@Z		; matrix4x4::operator=
$LN11@R_SetupPor:

; 172  : 	}
; 173  : 	else

	jmp	SHORT $LN8@R_SetupPor
$LN7@R_SetupPor:

; 174  : 		cameraMat.Identity();

	lea	ecx, DWORD PTR _cameraMat$[ebp]
	call	?Identity@matrix4x4@@QAEXXZ		; matrix4x4::Identity
$LN8@R_SetupPor:

; 175  : 
; 176  : 	// now get the camera origin and orientation
; 177  : 	viewmatrix = cameraMat;

	lea	eax, DWORD PTR _cameraMat$[ebp]
	push	eax
	mov	ecx, DWORD PTR _viewmatrix$[ebp]
	call	??4matrix4x4@@QAEAAV0@ABV0@@Z		; matrix4x4::operator=

; 178  : 
; 179  : 	viewMat.SetForward( (Vector4D)RI->vforward );

	mov	eax, DWORD PTR ?RI@@3PAUref_instance_t@@A ; RI
	add	eax, 228				; 000000e4H
	push	eax
	lea	ecx, DWORD PTR $T10[ebp]
	call	??0Vector4D@@QAE@ABVVector@@@Z		; Vector4D::Vector4D
	push	eax
	lea	ecx, DWORD PTR _viewMat$[ebp]
	call	?SetForward@matrix4x4@@QAEXABVVector4D@@@Z ; matrix4x4::SetForward

; 180  : 	viewMat.SetRight( (Vector4D)RI->vright );

	mov	eax, DWORD PTR ?RI@@3PAUref_instance_t@@A ; RI
	add	eax, 240				; 000000f0H
	push	eax
	lea	ecx, DWORD PTR $T9[ebp]
	call	??0Vector4D@@QAE@ABVVector@@@Z		; Vector4D::Vector4D
	push	eax
	lea	ecx, DWORD PTR _viewMat$[ebp]
	call	?SetRight@matrix4x4@@QAEXABVVector4D@@@Z ; matrix4x4::SetRight

; 181  : 	viewMat.SetUp( (Vector4D)RI->vup );

	mov	eax, DWORD PTR ?RI@@3PAUref_instance_t@@A ; RI
	add	eax, 252				; 000000fcH
	push	eax
	lea	ecx, DWORD PTR $T8[ebp]
	call	??0Vector4D@@QAE@ABVVector@@@Z		; Vector4D::Vector4D
	push	eax
	lea	ecx, DWORD PTR _viewMat$[ebp]
	call	?SetUp@matrix4x4@@QAEXABVVector4D@@@Z	; matrix4x4::SetUp

; 182  : 	viewMat.SetOrigin( (Vector4D)RI->vieworg );

	lea	eax, DWORD PTR $T6[ebp]
	push	eax
	mov	ecx, DWORD PTR ?RI@@3PAUref_instance_t@@A ; RI
	add	ecx, 204				; 000000ccH
	push	ecx
	lea	ecx, DWORD PTR $T7[ebp]
	call	??0Vector4D@@QAE@ABVVector@@@Z		; Vector4D::Vector4D
	mov	ecx, eax
	call	??BVector4D@@QAE?AVVector@@XZ		; Vector4D::operator Vector
	lea	edx, DWORD PTR $T6[ebp]
	push	edx
	lea	ecx, DWORD PTR _viewMat$[ebp]
	call	?SetOrigin@matrix4x4@@QAEXABVVector@@@Z	; matrix4x4::SetOrigin

; 183  : 
; 184  : 	surfaceMat = surfaceMat.Invert();

	lea	eax, DWORD PTR $T5[ebp]
	push	eax
	lea	ecx, DWORD PTR _surfaceMat$[ebp]
	call	?Invert@matrix4x4@@QBE?AV1@XZ		; matrix4x4::Invert
	push	eax
	lea	ecx, DWORD PTR _surfaceMat$[ebp]
	call	??4matrix4x4@@QAEAAV0@ABV0@@Z		; matrix4x4::operator=

; 185  : 
; 186  : 	viewMat = surfaceMat.ConcatTransforms( viewMat );

	sub	esp, 64					; 00000040H
	mov	ecx, esp
	lea	eax, DWORD PTR _viewMat$[ebp]
	push	eax
	call	??0matrix4x4@@QAE@ABV0@@Z
	lea	ecx, DWORD PTR $T4[ebp]
	push	ecx
	lea	ecx, DWORD PTR _surfaceMat$[ebp]
	call	?ConcatTransforms@matrix4x4@@QAE?AV1@V1@@Z ; matrix4x4::ConcatTransforms
	push	eax
	lea	ecx, DWORD PTR _viewMat$[ebp]
	call	??4matrix4x4@@QAEAAV0@ABV0@@Z		; matrix4x4::operator=

; 187  : 	viewMat = cameraMat.ConcatTransforms( viewMat );

	sub	esp, 64					; 00000040H
	mov	ecx, esp
	lea	eax, DWORD PTR _viewMat$[ebp]
	push	eax
	call	??0matrix4x4@@QAE@ABV0@@Z
	lea	ecx, DWORD PTR $T3[ebp]
	push	ecx
	lea	ecx, DWORD PTR _cameraMat$[ebp]
	call	?ConcatTransforms@matrix4x4@@QAE?AV1@V1@@Z ; matrix4x4::ConcatTransforms
	push	eax
	lea	ecx, DWORD PTR _viewMat$[ebp]
	call	??4matrix4x4@@QAEAAV0@ABV0@@Z		; matrix4x4::operator=

; 188  : 
; 189  : 	viewMat.GetAngles( angles );

	lea	eax, DWORD PTR _angles$[ebp]
	push	eax
	lea	ecx, DWORD PTR _viewMat$[ebp]
	call	?GetAngles@matrix4x4@@QAEXAAVVector@@@Z	; matrix4x4::GetAngles

; 190  : 	viewMat.GetOrigin( origin );

	lea	eax, DWORD PTR _origin$[ebp]
	push	eax
	lea	ecx, DWORD PTR _viewMat$[ebp]
	call	?GetOrigin@matrix4x4@@QAEXAAVVector@@@Z	; matrix4x4::GetOrigin

; 191  : 
; 192  : 	RI->viewangles[0] = anglemod( angles[0] );

	lea	ecx, DWORD PTR _angles$[ebp]
	call	??BVector@@QAEPAMXZ			; Vector::operator float *
	mov	ecx, 4
	imul	edx, ecx, 0
	push	ecx
	movss	xmm0, DWORD PTR [eax+edx]
	movss	DWORD PTR [esp], xmm0
	call	?anglemod@@YAMM@Z			; anglemod
	add	esp, 4
	mov	ecx, DWORD PTR ?RI@@3PAUref_instance_t@@A ; RI
	add	ecx, 192				; 000000c0H
	fstp	DWORD PTR tv622[ebp]
	call	??BVector@@QAEPAMXZ			; Vector::operator float *
	mov	ecx, 4
	imul	edx, ecx, 0
	fld	DWORD PTR tv622[ebp]
	fstp	DWORD PTR [eax+edx]

; 193  : 	RI->viewangles[1] = anglemod( angles[1] );

	lea	ecx, DWORD PTR _angles$[ebp]
	call	??BVector@@QAEPAMXZ			; Vector::operator float *
	mov	ecx, 4
	shl	ecx, 0
	push	ecx
	movss	xmm0, DWORD PTR [eax+ecx]
	movss	DWORD PTR [esp], xmm0
	call	?anglemod@@YAMM@Z			; anglemod
	add	esp, 4
	mov	ecx, DWORD PTR ?RI@@3PAUref_instance_t@@A ; RI
	add	ecx, 192				; 000000c0H
	fstp	DWORD PTR tv624[ebp]
	call	??BVector@@QAEPAMXZ			; Vector::operator float *
	mov	edx, 4
	shl	edx, 0
	fld	DWORD PTR tv624[ebp]
	fstp	DWORD PTR [eax+edx]

; 194  : 	RI->viewangles[2] = anglemod( angles[2] );

	lea	ecx, DWORD PTR _angles$[ebp]
	call	??BVector@@QAEPAMXZ			; Vector::operator float *
	mov	ecx, 4
	shl	ecx, 1
	push	ecx
	movss	xmm0, DWORD PTR [eax+ecx]
	movss	DWORD PTR [esp], xmm0
	call	?anglemod@@YAMM@Z			; anglemod
	add	esp, 4
	mov	ecx, DWORD PTR ?RI@@3PAUref_instance_t@@A ; RI
	add	ecx, 192				; 000000c0H
	fstp	DWORD PTR tv626[ebp]
	call	??BVector@@QAEPAMXZ			; Vector::operator float *
	mov	edx, 4
	shl	edx, 1
	fld	DWORD PTR tv626[ebp]
	fstp	DWORD PTR [eax+edx]

; 195  : 	RI->viewangles[2] = -RI->viewangles[2];

	mov	ecx, DWORD PTR ?RI@@3PAUref_instance_t@@A ; RI
	add	ecx, 192				; 000000c0H
	call	??BVector@@QAEPAMXZ			; Vector::operator float *
	mov	ecx, 4
	shl	ecx, 1
	movss	xmm0, DWORD PTR [eax+ecx]
	xorps	xmm0, DWORD PTR __xmm@80000000800000008000000080000000
	mov	ecx, DWORD PTR ?RI@@3PAUref_instance_t@@A ; RI
	add	ecx, 192				; 000000c0H
	movss	DWORD PTR tv628[ebp], xmm0
	call	??BVector@@QAEPAMXZ			; Vector::operator float *
	mov	edx, 4
	shl	edx, 1
	movss	xmm0, DWORD PTR tv628[ebp]
	movss	DWORD PTR [eax+edx], xmm0

; 196  : 	RI->pvsorigin = camera->origin;

	mov	eax, DWORD PTR _camera$[ebp]
	add	eax, 2888				; 00000b48H
	mov	ecx, DWORD PTR ?RI@@3PAUref_instance_t@@A ; RI
	add	ecx, 180				; 000000b4H
	mov	edx, DWORD PTR [eax]
	mov	DWORD PTR [ecx], edx
	mov	edx, DWORD PTR [eax+4]
	mov	DWORD PTR [ecx+4], edx
	mov	eax, DWORD PTR [eax+8]
	mov	DWORD PTR [ecx+8], eax

; 197  : 	RI->vieworg = origin;

	mov	eax, DWORD PTR ?RI@@3PAUref_instance_t@@A ; RI
	add	eax, 204				; 000000ccH
	mov	ecx, DWORD PTR _origin$[ebp]
	mov	DWORD PTR [eax], ecx
	mov	edx, DWORD PTR _origin$[ebp+4]
	mov	DWORD PTR [eax+4], edx
	mov	ecx, DWORD PTR _origin$[ebp+8]
	mov	DWORD PTR [eax+8], ecx

; 198  : 
; 199  : 	plane.dist += ON_EPSILON; // to prevent z-fighting with reflective water

	movss	xmm0, DWORD PTR _plane$[ebp+12]
	addss	xmm0, DWORD PTR __real@3dcccccd
	movss	DWORD PTR _plane$[ebp+12], xmm0

; 200  : 
; 201  : 	// set clipping plane
; 202  : 	SetPlane( &plane, cameraMat.GetForward(), DotProduct( cameraMat.GetForward(), camera->origin ));

	mov	eax, DWORD PTR _camera$[ebp]
	add	eax, 2888				; 00000b48H
	push	eax
	lea	ecx, DWORD PTR $T2[ebp]
	push	ecx
	lea	ecx, DWORD PTR _cameraMat$[ebp]
	call	?GetForward@matrix4x4@@QBE?AVVector@@XZ	; matrix4x4::GetForward
	push	eax
	call	?DotProduct@@YAMABVVector@@0@Z		; DotProduct
	add	esp, 4
	fstp	DWORD PTR [esp]
	lea	edx, DWORD PTR $T1[ebp]
	push	edx
	lea	ecx, DWORD PTR _cameraMat$[ebp]
	call	?GetForward@matrix4x4@@QBE?AVVector@@XZ	; matrix4x4::GetForward
	push	eax
	lea	eax, DWORD PTR _plane$[ebp]
	push	eax
	call	?SetPlane@@YAXPAUmplane_s@@ABVVector@@M@Z ; SetPlane
	add	esp, 12					; 0000000cH

; 203  : 	RI->params = RP_PORTALVIEW|RP_CLIPPLANE;

	mov	eax, DWORD PTR ?RI@@3PAUref_instance_t@@A ; RI
	mov	DWORD PTR [eax], 72			; 00000048H

; 204  : 	RI->frustum.SetPlane( FRUSTUM_NEAR, plane.normal, plane.dist );

	push	ecx
	movss	xmm0, DWORD PTR _plane$[ebp+12]
	movss	DWORD PTR [esp], xmm0
	lea	eax, DWORD PTR _plane$[ebp]
	push	eax
	push	5
	mov	ecx, DWORD PTR ?RI@@3PAUref_instance_t@@A ; RI
	add	ecx, 48					; 00000030H
	call	?SetPlane@CFrustum@@QAEXHABVVector@@M@Z	; CFrustum::SetPlane

; 205  : 	RI->clipPlane = plane;

	mov	eax, DWORD PTR ?RI@@3PAUref_instance_t@@A ; RI
	add	eax, 14012				; 000036bcH
	mov	ecx, DWORD PTR _plane$[ebp]
	mov	DWORD PTR [eax], ecx
	mov	edx, DWORD PTR _plane$[ebp+4]
	mov	DWORD PTR [eax+4], edx
	mov	ecx, DWORD PTR _plane$[ebp+8]
	mov	DWORD PTR [eax+8], ecx
	mov	edx, DWORD PTR _plane$[ebp+12]
	mov	DWORD PTR [eax+12], edx
	mov	ecx, DWORD PTR _plane$[ebp+16]
	mov	DWORD PTR [eax+16], ecx

; 206  : 
; 207  : 	if( GL_Support( R_ARB_TEXTURE_NPOT_EXT ))

	push	16					; 00000010H
	call	?GL_Support@@YA_NH@Z			; GL_Support
	add	esp, 4
	movzx	eax, al
	test	eax, eax
	je	$LN12@R_SetupPor

; 208  : 	{
; 209  : 		// allow screen size
; 210  : 		RI->viewport[2] = bound( 96, RI->viewport[2], 1024 );

	mov	eax, 4
	shl	eax, 1
	mov	ecx, DWORD PTR ?RI@@3PAUref_instance_t@@A ; RI
	cmp	DWORD PTR [ecx+eax+32], 96		; 00000060H
	jl	SHORT $LN17@R_SetupPor
	mov	edx, 4
	shl	edx, 1
	mov	eax, DWORD PTR ?RI@@3PAUref_instance_t@@A ; RI
	cmp	DWORD PTR [eax+edx+32], 1024		; 00000400H
	jge	SHORT $LN15@R_SetupPor
	mov	ecx, 4
	shl	ecx, 1
	mov	edx, DWORD PTR ?RI@@3PAUref_instance_t@@A ; RI
	mov	eax, DWORD PTR [edx+ecx+32]
	mov	DWORD PTR tv324[ebp], eax
	jmp	SHORT $LN16@R_SetupPor
$LN15@R_SetupPor:
	mov	DWORD PTR tv324[ebp], 1024		; 00000400H
$LN16@R_SetupPor:
	mov	ecx, DWORD PTR tv324[ebp]
	mov	DWORD PTR tv325[ebp], ecx
	jmp	SHORT $LN18@R_SetupPor
$LN17@R_SetupPor:
	mov	DWORD PTR tv325[ebp], 96		; 00000060H
$LN18@R_SetupPor:
	mov	edx, 4
	shl	edx, 1
	mov	eax, DWORD PTR ?RI@@3PAUref_instance_t@@A ; RI
	mov	ecx, DWORD PTR tv325[ebp]
	mov	DWORD PTR [eax+edx+32], ecx

; 211  : 		RI->viewport[3] = bound( 72, RI->viewport[3], 768 );

	mov	eax, 4
	imul	ecx, eax, 3
	mov	edx, DWORD PTR ?RI@@3PAUref_instance_t@@A ; RI
	cmp	DWORD PTR [edx+ecx+32], 72		; 00000048H
	jl	SHORT $LN21@R_SetupPor
	mov	eax, 4
	imul	ecx, eax, 3
	mov	edx, DWORD PTR ?RI@@3PAUref_instance_t@@A ; RI
	cmp	DWORD PTR [edx+ecx+32], 768		; 00000300H
	jge	SHORT $LN19@R_SetupPor
	mov	eax, 4
	imul	ecx, eax, 3
	mov	edx, DWORD PTR ?RI@@3PAUref_instance_t@@A ; RI
	mov	eax, DWORD PTR [edx+ecx+32]
	mov	DWORD PTR tv340[ebp], eax
	jmp	SHORT $LN20@R_SetupPor
$LN19@R_SetupPor:
	mov	DWORD PTR tv340[ebp], 768		; 00000300H
$LN20@R_SetupPor:
	mov	ecx, DWORD PTR tv340[ebp]
	mov	DWORD PTR tv341[ebp], ecx
	jmp	SHORT $LN22@R_SetupPor
$LN21@R_SetupPor:
	mov	DWORD PTR tv341[ebp], 72		; 00000048H
$LN22@R_SetupPor:
	mov	edx, 4
	imul	eax, edx, 3
	mov	ecx, DWORD PTR ?RI@@3PAUref_instance_t@@A ; RI
	mov	edx, DWORD PTR tv341[ebp]
	mov	DWORD PTR [ecx+eax+32], edx

; 212  : 	}
; 213  : 	else

	jmp	$LN13@R_SetupPor
$LN12@R_SetupPor:

; 214  : 	{
; 215  : 		RI->viewport[2] = NearestPOW( RI->viewport[2], true );

	push	1
	mov	eax, 4
	shl	eax, 1
	mov	ecx, DWORD PTR ?RI@@3PAUref_instance_t@@A ; RI
	mov	edx, DWORD PTR [ecx+eax+32]
	push	edx
	call	?NearestPOW@@YAHH_N@Z			; NearestPOW
	add	esp, 8
	mov	ecx, 4
	shl	ecx, 1
	mov	edx, DWORD PTR ?RI@@3PAUref_instance_t@@A ; RI
	mov	DWORD PTR [edx+ecx+32], eax

; 216  : 		RI->viewport[3] = NearestPOW( RI->viewport[3], true );

	push	1
	mov	eax, 4
	imul	ecx, eax, 3
	mov	edx, DWORD PTR ?RI@@3PAUref_instance_t@@A ; RI
	mov	eax, DWORD PTR [edx+ecx+32]
	push	eax
	call	?NearestPOW@@YAHH_N@Z			; NearestPOW
	add	esp, 8
	mov	ecx, 4
	imul	edx, ecx, 3
	mov	ecx, DWORD PTR ?RI@@3PAUref_instance_t@@A ; RI
	mov	DWORD PTR [ecx+edx+32], eax

; 217  : 		RI->viewport[2] = bound( 128, RI->viewport[2], 1024 );

	mov	eax, 4
	shl	eax, 1
	mov	ecx, DWORD PTR ?RI@@3PAUref_instance_t@@A ; RI
	cmp	DWORD PTR [ecx+eax+32], 128		; 00000080H
	jl	SHORT $LN25@R_SetupPor
	mov	edx, 4
	shl	edx, 1
	mov	eax, DWORD PTR ?RI@@3PAUref_instance_t@@A ; RI
	cmp	DWORD PTR [eax+edx+32], 1024		; 00000400H
	jge	SHORT $LN23@R_SetupPor
	mov	ecx, 4
	shl	ecx, 1
	mov	edx, DWORD PTR ?RI@@3PAUref_instance_t@@A ; RI
	mov	eax, DWORD PTR [edx+ecx+32]
	mov	DWORD PTR tv374[ebp], eax
	jmp	SHORT $LN24@R_SetupPor
$LN23@R_SetupPor:
	mov	DWORD PTR tv374[ebp], 1024		; 00000400H
$LN24@R_SetupPor:
	mov	ecx, DWORD PTR tv374[ebp]
	mov	DWORD PTR tv375[ebp], ecx
	jmp	SHORT $LN26@R_SetupPor
$LN25@R_SetupPor:
	mov	DWORD PTR tv375[ebp], 128		; 00000080H
$LN26@R_SetupPor:
	mov	edx, 4
	shl	edx, 1
	mov	eax, DWORD PTR ?RI@@3PAUref_instance_t@@A ; RI
	mov	ecx, DWORD PTR tv375[ebp]
	mov	DWORD PTR [eax+edx+32], ecx

; 218  : 		RI->viewport[3] = bound( 64, RI->viewport[3], 512 );

	mov	eax, 4
	imul	ecx, eax, 3
	mov	edx, DWORD PTR ?RI@@3PAUref_instance_t@@A ; RI
	cmp	DWORD PTR [edx+ecx+32], 64		; 00000040H
	jl	SHORT $LN29@R_SetupPor
	mov	eax, 4
	imul	ecx, eax, 3
	mov	edx, DWORD PTR ?RI@@3PAUref_instance_t@@A ; RI
	cmp	DWORD PTR [edx+ecx+32], 512		; 00000200H
	jge	SHORT $LN27@R_SetupPor
	mov	eax, 4
	imul	ecx, eax, 3
	mov	edx, DWORD PTR ?RI@@3PAUref_instance_t@@A ; RI
	mov	eax, DWORD PTR [edx+ecx+32]
	mov	DWORD PTR tv390[ebp], eax
	jmp	SHORT $LN28@R_SetupPor
$LN27@R_SetupPor:
	mov	DWORD PTR tv390[ebp], 512		; 00000200H
$LN28@R_SetupPor:
	mov	ecx, DWORD PTR tv390[ebp]
	mov	DWORD PTR tv391[ebp], ecx
	jmp	SHORT $LN30@R_SetupPor
$LN29@R_SetupPor:
	mov	DWORD PTR tv391[ebp], 64		; 00000040H
$LN30@R_SetupPor:
	mov	edx, 4
	imul	eax, edx, 3
	mov	ecx, DWORD PTR ?RI@@3PAUref_instance_t@@A ; RI
	mov	edx, DWORD PTR tv391[ebp]
	mov	DWORD PTR [ecx+eax+32], edx
$LN13@R_SetupPor:

; 219  : 	}
; 220  : 
; 221  : 	return TF_SCREEN;

	mov	eax, 6144				; 00001800H

; 222  : }

	pop	edi
	pop	esi
	pop	ebx
	mov	ecx, DWORD PTR __$ArrayPad$[ebp]
	xor	ecx, ebp
	call	@__security_check_cookie@4
	mov	esp, ebp
	pop	ebp
	ret	0
?R_SetupPortalView@@YAHPAUmsurface_s@@PAUcl_entity_s@@AAVmatrix4x4@@@Z ENDP ; R_SetupPortalView
_TEXT	ENDS
; Function compile flags: /Odtp /ZI
; File d:\!diffusion 2020\source code 2022\client-server\client\render\r_subview.cpp
;	COMDAT ?R_SetupMirrorView@@YAHPAUmsurface_s@@PAUcl_entity_s@@AAVmatrix4x4@@@Z
_TEXT	SEGMENT
tv431 = -496						; size = 4
tv415 = -496						; size = 4
tv387 = -496						; size = 4
tv371 = -496						; size = 4
tv730 = -492						; size = 4
tv728 = -492						; size = 4
tv726 = -492						; size = 4
tv526 = -492						; size = 4
tv510 = -492						; size = 4
tv494 = -492						; size = 4
tv480 = -492						; size = 4
tv430 = -492						; size = 4
tv414 = -492						; size = 4
tv386 = -492						; size = 4
tv370 = -492						; size = 4
tv304 = -492						; size = 4
$T1 = -488						; size = 12
$T2 = -476						; size = 12
$T3 = -464						; size = 12
$T4 = -452						; size = 12
$T5 = -440						; size = 12
$T6 = -428						; size = 12
$T7 = -416						; size = 12
$T8 = -404						; size = 12
$T9 = -392						; size = 12
$T10 = -380						; size = 12
$T11 = -368						; size = 12
$T12 = -356						; size = 12
$T13 = -344						; size = 64
$T14 = -280						; size = 64
$T15 = -216						; size = 12
_ScreenH$ = -140					; size = 4
_ScreenW$ = -136					; size = 4
_QualityLevel$ = -132					; size = 4
_angles$ = -128						; size = 12
_up$ = -116						; size = 12
_right$ = -104						; size = 12
_forward$ = -92						; size = 12
_origin$ = -80						; size = 12
_d$ = -68						; size = 4
_plane$ = -64						; size = 20
_matAngles$ = -44					; size = 36
_ent$ = -8						; size = 4
__$ArrayPad$ = -4					; size = 4
_surf$ = 8						; size = 4
_camera$ = 12						; size = 4
_viewmatrix$ = 16					; size = 4
?R_SetupMirrorView@@YAHPAUmsurface_s@@PAUcl_entity_s@@AAVmatrix4x4@@@Z PROC ; R_SetupMirrorView, COMDAT

; 42   : {

	push	ebp
	mov	ebp, esp
	sub	esp, 496				; 000001f0H
	mov	eax, DWORD PTR ___security_cookie
	xor	eax, ebp
	mov	DWORD PTR __$ArrayPad$[ebp], eax
	push	ebx
	push	esi
	push	edi

; 43   : 	cl_entity_t	*ent = surf->info->parent;

	mov	eax, DWORD PTR _surf$[ebp]
	mov	ecx, DWORD PTR [eax+80]
	mov	edx, DWORD PTR [ecx+112]
	mov	DWORD PTR _ent$[ebp], edx

; 44   : 	matrix3x3 matAngles;

	lea	ecx, DWORD PTR _matAngles$[ebp]
	call	??0matrix3x3@@QAE@XZ			; matrix3x3::matrix3x3

; 45   : 	mplane_t plane;

	lea	ecx, DWORD PTR _plane$[ebp]
	call	??0mplane_s@@QAE@XZ

; 46   : 	float d;
; 47   : 
; 48   : 	// setup mirror plane
; 49   : 	// setup portal plane
; 50   : 	if( FBitSet( surf->flags, SURF_PLANEBACK ))

	mov	eax, DWORD PTR _surf$[ebp]
	mov	ecx, DWORD PTR [eax+8]
	and	ecx, 2
	je	SHORT $LN4@R_SetupMir

; 51   : 		SetPlane( &plane, -surf->plane->normal, -surf->plane->dist );

	mov	eax, DWORD PTR _surf$[ebp]
	mov	ecx, DWORD PTR [eax+4]
	movss	xmm0, DWORD PTR [ecx+12]
	xorps	xmm0, DWORD PTR __xmm@80000000800000008000000080000000
	push	ecx
	movss	DWORD PTR [esp], xmm0
	lea	edx, DWORD PTR $T15[ebp]
	push	edx
	mov	eax, DWORD PTR _surf$[ebp]
	mov	ecx, DWORD PTR [eax+4]
	call	??GVector@@QBE?AV0@XZ			; Vector::operator-
	push	eax
	lea	ecx, DWORD PTR _plane$[ebp]
	push	ecx
	call	?SetPlane@@YAXPAUmplane_s@@ABVVector@@M@Z ; SetPlane
	add	esp, 12					; 0000000cH
	jmp	SHORT $LN5@R_SetupMir
$LN4@R_SetupMir:

; 52   : 	else SetPlane( &plane, surf->plane->normal, surf->plane->dist );

	mov	eax, DWORD PTR _surf$[ebp]
	mov	ecx, DWORD PTR [eax+4]
	push	ecx
	movss	xmm0, DWORD PTR [ecx+12]
	movss	DWORD PTR [esp], xmm0
	mov	edx, DWORD PTR _surf$[ebp]
	mov	eax, DWORD PTR [edx+4]
	push	eax
	lea	ecx, DWORD PTR _plane$[ebp]
	push	ecx
	call	?SetPlane@@YAXPAUmplane_s@@ABVVector@@M@Z ; SetPlane
	add	esp, 12					; 0000000cH
$LN5@R_SetupMir:

; 53   : 
; 54   : 	if( !R_StaticEntity( ent ))

	push	OFFSET ?g_vecZero@@3VVector@@B		; g_vecZero
	mov	ecx, DWORD PTR _ent$[ebp]
	add	ecx, 2888				; 00000b48H
	call	??8Vector@@QBEHABV0@@Z			; Vector::operator==
	test	eax, eax
	je	SHORT $LN8@R_SetupMir
	push	OFFSET ?g_vecZero@@3VVector@@B		; g_vecZero
	mov	ecx, DWORD PTR _ent$[ebp]
	add	ecx, 2900				; 00000b54H
	call	??8Vector@@QBEHABV0@@Z			; Vector::operator==
	test	eax, eax
	jne	$LN6@R_SetupMir
$LN8@R_SetupMir:

; 55   : 	{
; 56   : 		if( ent->angles != g_vecZero )

	push	OFFSET ?g_vecZero@@3VVector@@B		; g_vecZero
	mov	ecx, DWORD PTR _ent$[ebp]
	add	ecx, 2900				; 00000b54H
	call	??9Vector@@QBEHABV0@@Z			; Vector::operator!=
	test	eax, eax
	je	SHORT $LN9@R_SetupMir

; 57   : 			viewmatrix = matrix4x4( ent->origin, ent->angles );

	push	ecx
	movss	xmm0, DWORD PTR __real@3f800000
	movss	DWORD PTR [esp], xmm0
	mov	eax, DWORD PTR _ent$[ebp]
	add	eax, 2900				; 00000b54H
	push	eax
	mov	ecx, DWORD PTR _ent$[ebp]
	add	ecx, 2888				; 00000b48H
	push	ecx
	lea	ecx, DWORD PTR $T14[ebp]
	call	??0matrix4x4@@QAE@ABVVector@@0M@Z	; matrix4x4::matrix4x4
	push	eax
	mov	ecx, DWORD PTR _viewmatrix$[ebp]
	call	??4matrix4x4@@QAEAAV0@ABV0@@Z		; matrix4x4::operator=
	jmp	SHORT $LN10@R_SetupMir
$LN9@R_SetupMir:

; 58   : 		else viewmatrix = matrix4x4( ent->origin, g_vecZero );

	push	ecx
	movss	xmm0, DWORD PTR __real@3f800000
	movss	DWORD PTR [esp], xmm0
	push	OFFSET ?g_vecZero@@3VVector@@B		; g_vecZero
	mov	eax, DWORD PTR _ent$[ebp]
	add	eax, 2888				; 00000b48H
	push	eax
	lea	ecx, DWORD PTR $T13[ebp]
	call	??0matrix4x4@@QAE@ABVVector@@0M@Z	; matrix4x4::matrix4x4
	push	eax
	mov	ecx, DWORD PTR _viewmatrix$[ebp]
	call	??4matrix4x4@@QAEAAV0@ABV0@@Z		; matrix4x4::operator=
$LN10@R_SetupMir:

; 59   : 		viewmatrix.TransformPositivePlane( plane, plane );

	lea	eax, DWORD PTR _plane$[ebp]
	push	eax
	lea	ecx, DWORD PTR _plane$[ebp]
	push	ecx
	mov	ecx, DWORD PTR _viewmatrix$[ebp]
	call	?TransformPositivePlane@matrix4x4@@QAEXABUmplane_s@@AAU2@@Z ; matrix4x4::TransformPositivePlane
	jmp	SHORT $LN7@R_SetupMir
$LN6@R_SetupMir:

; 60   : 	}
; 61   : 	else viewmatrix.Identity();

	mov	ecx, DWORD PTR _viewmatrix$[ebp]
	call	?Identity@matrix4x4@@QAEXXZ		; matrix4x4::Identity
$LN7@R_SetupMir:

; 62   : 
; 63   : 	// reflect view by mirror plane
; 64   : 	d = -2.0f * ( DotProduct( RI->vieworg, plane.normal ) - plane.dist );

	lea	eax, DWORD PTR _plane$[ebp]
	push	eax
	mov	ecx, DWORD PTR ?RI@@3PAUref_instance_t@@A ; RI
	add	ecx, 204				; 000000ccH
	push	ecx
	call	?DotProduct@@YAMABVVector@@0@Z		; DotProduct
	add	esp, 8
	fstp	DWORD PTR tv480[ebp]
	movss	xmm0, DWORD PTR tv480[ebp]
	subss	xmm0, DWORD PTR _plane$[ebp+12]
	mulss	xmm0, DWORD PTR __real@c0000000
	movss	DWORD PTR _d$[ebp], xmm0

; 65   : 	Vector origin = RI->vieworg + d * plane.normal;

	lea	eax, DWORD PTR _plane$[ebp]
	push	eax
	push	ecx
	movss	xmm0, DWORD PTR _d$[ebp]
	movss	DWORD PTR [esp], xmm0
	lea	ecx, DWORD PTR $T12[ebp]
	push	ecx
	call	??D@YA?AVVector@@MABV0@@Z		; operator*
	add	esp, 12					; 0000000cH
	push	eax
	lea	edx, DWORD PTR _origin$[ebp]
	push	edx
	mov	ecx, DWORD PTR ?RI@@3PAUref_instance_t@@A ; RI
	add	ecx, 204				; 000000ccH
	call	??HVector@@QBE?AV0@ABV0@@Z		; Vector::operator+

; 66   : 
; 67   : 	d = -2.0f * DotProduct( RI->vforward, plane.normal );

	lea	eax, DWORD PTR _plane$[ebp]
	push	eax
	mov	ecx, DWORD PTR ?RI@@3PAUref_instance_t@@A ; RI
	add	ecx, 228				; 000000e4H
	push	ecx
	call	?DotProduct@@YAMABVVector@@0@Z		; DotProduct
	add	esp, 8
	fstp	DWORD PTR tv494[ebp]
	movss	xmm0, DWORD PTR tv494[ebp]
	mulss	xmm0, DWORD PTR __real@c0000000
	movss	DWORD PTR _d$[ebp], xmm0

; 68   : 	Vector forward = ( RI->vforward + d * plane.normal ).Normalize();

	lea	eax, DWORD PTR _forward$[ebp]
	push	eax
	lea	ecx, DWORD PTR _plane$[ebp]
	push	ecx
	push	ecx
	movss	xmm0, DWORD PTR _d$[ebp]
	movss	DWORD PTR [esp], xmm0
	lea	edx, DWORD PTR $T11[ebp]
	push	edx
	call	??D@YA?AVVector@@MABV0@@Z		; operator*
	add	esp, 12					; 0000000cH
	push	eax
	lea	eax, DWORD PTR $T10[ebp]
	push	eax
	mov	ecx, DWORD PTR ?RI@@3PAUref_instance_t@@A ; RI
	add	ecx, 228				; 000000e4H
	call	??HVector@@QBE?AV0@ABV0@@Z		; Vector::operator+
	mov	ecx, eax
	call	?Normalize@Vector@@QBE?AV1@XZ		; Vector::Normalize

; 69   : 
; 70   : 	d = -2.0f * DotProduct( RI->vright, plane.normal );

	lea	eax, DWORD PTR _plane$[ebp]
	push	eax
	mov	ecx, DWORD PTR ?RI@@3PAUref_instance_t@@A ; RI
	add	ecx, 240				; 000000f0H
	push	ecx
	call	?DotProduct@@YAMABVVector@@0@Z		; DotProduct
	add	esp, 8
	fstp	DWORD PTR tv510[ebp]
	movss	xmm0, DWORD PTR tv510[ebp]
	mulss	xmm0, DWORD PTR __real@c0000000
	movss	DWORD PTR _d$[ebp], xmm0

; 71   : 	Vector right = ( RI->vright + d * plane.normal ).Normalize();

	lea	eax, DWORD PTR _right$[ebp]
	push	eax
	lea	ecx, DWORD PTR _plane$[ebp]
	push	ecx
	push	ecx
	movss	xmm0, DWORD PTR _d$[ebp]
	movss	DWORD PTR [esp], xmm0
	lea	edx, DWORD PTR $T9[ebp]
	push	edx
	call	??D@YA?AVVector@@MABV0@@Z		; operator*
	add	esp, 12					; 0000000cH
	push	eax
	lea	eax, DWORD PTR $T8[ebp]
	push	eax
	mov	ecx, DWORD PTR ?RI@@3PAUref_instance_t@@A ; RI
	add	ecx, 240				; 000000f0H
	call	??HVector@@QBE?AV0@ABV0@@Z		; Vector::operator+
	mov	ecx, eax
	call	?Normalize@Vector@@QBE?AV1@XZ		; Vector::Normalize

; 72   : 
; 73   : 	d = -2.0f * DotProduct( RI->vup, plane.normal );

	lea	eax, DWORD PTR _plane$[ebp]
	push	eax
	mov	ecx, DWORD PTR ?RI@@3PAUref_instance_t@@A ; RI
	add	ecx, 252				; 000000fcH
	push	ecx
	call	?DotProduct@@YAMABVVector@@0@Z		; DotProduct
	add	esp, 8
	fstp	DWORD PTR tv526[ebp]
	movss	xmm0, DWORD PTR tv526[ebp]
	mulss	xmm0, DWORD PTR __real@c0000000
	movss	DWORD PTR _d$[ebp], xmm0

; 74   : 	Vector up = ( RI->vup + d * plane.normal ).Normalize();

	lea	eax, DWORD PTR _up$[ebp]
	push	eax
	lea	ecx, DWORD PTR _plane$[ebp]
	push	ecx
	push	ecx
	movss	xmm0, DWORD PTR _d$[ebp]
	movss	DWORD PTR [esp], xmm0
	lea	edx, DWORD PTR $T7[ebp]
	push	edx
	call	??D@YA?AVVector@@MABV0@@Z		; operator*
	add	esp, 12					; 0000000cH
	push	eax
	lea	eax, DWORD PTR $T6[ebp]
	push	eax
	mov	ecx, DWORD PTR ?RI@@3PAUref_instance_t@@A ; RI
	add	ecx, 252				; 000000fcH
	call	??HVector@@QBE?AV0@ABV0@@Z		; Vector::operator+
	mov	ecx, eax
	call	?Normalize@Vector@@QBE?AV1@XZ		; Vector::Normalize

; 75   : 
; 76   : 	// compute mirror angles
; 77   : 	matAngles.SetForward( forward );

	lea	eax, DWORD PTR _forward$[ebp]
	push	eax
	lea	ecx, DWORD PTR _matAngles$[ebp]
	call	?SetForward@matrix3x3@@QAEXABVVector@@@Z ; matrix3x3::SetForward

; 78   : 	matAngles.SetRight( right );

	lea	eax, DWORD PTR _right$[ebp]
	push	eax
	lea	ecx, DWORD PTR _matAngles$[ebp]
	call	?SetRight@matrix3x3@@QAEXABVVector@@@Z	; matrix3x3::SetRight

; 79   : 	matAngles.SetUp( up );

	lea	eax, DWORD PTR _up$[ebp]
	push	eax
	lea	ecx, DWORD PTR _matAngles$[ebp]
	call	?SetUp@matrix3x3@@QAEXABVVector@@@Z	; matrix3x3::SetUp

; 80   : 	Vector angles = matAngles.GetAngles();

	lea	eax, DWORD PTR _angles$[ebp]
	push	eax
	lea	ecx, DWORD PTR _matAngles$[ebp]
	call	?GetAngles@matrix3x3@@QAE?AVVector@@XZ	; matrix3x3::GetAngles

; 81   : 
; 82   : 	plane.dist += ON_EPSILON; // to prevent z-fighting with reflective water

	movss	xmm0, DWORD PTR _plane$[ebp+12]
	addss	xmm0, DWORD PTR __real@3dcccccd
	movss	DWORD PTR _plane$[ebp+12], xmm0

; 83   : 
; 84   : 	RI->params = RP_MIRRORVIEW|RP_CLIPPLANE|RP_OLDVIEWLEAF;

	mov	eax, DWORD PTR ?RI@@3PAUref_instance_t@@A ; RI
	mov	DWORD PTR [eax], 13			; 0000000dH

; 85   : 	RI->frustum.SetPlane( FRUSTUM_NEAR, plane.normal, plane.dist );

	push	ecx
	movss	xmm0, DWORD PTR _plane$[ebp+12]
	movss	DWORD PTR [esp], xmm0
	lea	eax, DWORD PTR _plane$[ebp]
	push	eax
	push	5
	mov	ecx, DWORD PTR ?RI@@3PAUref_instance_t@@A ; RI
	add	ecx, 48					; 00000030H
	call	?SetPlane@CFrustum@@QAEXHABVVector@@M@Z	; CFrustum::SetPlane

; 86   : 	RI->clipPlane = plane;

	mov	eax, DWORD PTR ?RI@@3PAUref_instance_t@@A ; RI
	add	eax, 14012				; 000036bcH
	mov	ecx, DWORD PTR _plane$[ebp]
	mov	DWORD PTR [eax], ecx
	mov	edx, DWORD PTR _plane$[ebp+4]
	mov	DWORD PTR [eax+4], edx
	mov	ecx, DWORD PTR _plane$[ebp+8]
	mov	DWORD PTR [eax+8], ecx
	mov	edx, DWORD PTR _plane$[ebp+12]
	mov	DWORD PTR [eax+12], edx
	mov	ecx, DWORD PTR _plane$[ebp+16]
	mov	DWORD PTR [eax+16], ecx

; 87   : 
; 88   : 	RI->viewangles[0] = anglemod( angles[0] );

	lea	ecx, DWORD PTR _angles$[ebp]
	call	??BVector@@QAEPAMXZ			; Vector::operator float *
	mov	ecx, 4
	imul	edx, ecx, 0
	push	ecx
	movss	xmm0, DWORD PTR [eax+edx]
	movss	DWORD PTR [esp], xmm0
	call	?anglemod@@YAMM@Z			; anglemod
	add	esp, 4
	mov	ecx, DWORD PTR ?RI@@3PAUref_instance_t@@A ; RI
	add	ecx, 192				; 000000c0H
	fstp	DWORD PTR tv726[ebp]
	call	??BVector@@QAEPAMXZ			; Vector::operator float *
	mov	ecx, 4
	imul	edx, ecx, 0
	fld	DWORD PTR tv726[ebp]
	fstp	DWORD PTR [eax+edx]

; 89   : 	RI->viewangles[1] = anglemod( angles[1] );

	lea	ecx, DWORD PTR _angles$[ebp]
	call	??BVector@@QAEPAMXZ			; Vector::operator float *
	mov	ecx, 4
	shl	ecx, 0
	push	ecx
	movss	xmm0, DWORD PTR [eax+ecx]
	movss	DWORD PTR [esp], xmm0
	call	?anglemod@@YAMM@Z			; anglemod
	add	esp, 4
	mov	ecx, DWORD PTR ?RI@@3PAUref_instance_t@@A ; RI
	add	ecx, 192				; 000000c0H
	fstp	DWORD PTR tv728[ebp]
	call	??BVector@@QAEPAMXZ			; Vector::operator float *
	mov	edx, 4
	shl	edx, 0
	fld	DWORD PTR tv728[ebp]
	fstp	DWORD PTR [eax+edx]

; 90   : 	RI->viewangles[2] = anglemod( angles[2] );

	lea	ecx, DWORD PTR _angles$[ebp]
	call	??BVector@@QAEPAMXZ			; Vector::operator float *
	mov	ecx, 4
	shl	ecx, 1
	push	ecx
	movss	xmm0, DWORD PTR [eax+ecx]
	movss	DWORD PTR [esp], xmm0
	call	?anglemod@@YAMM@Z			; anglemod
	add	esp, 4
	mov	ecx, DWORD PTR ?RI@@3PAUref_instance_t@@A ; RI
	add	ecx, 192				; 000000c0H
	fstp	DWORD PTR tv730[ebp]
	call	??BVector@@QAEPAMXZ			; Vector::operator float *
	mov	edx, 4
	shl	edx, 1
	fld	DWORD PTR tv730[ebp]
	fstp	DWORD PTR [eax+edx]

; 91   : 	RI->vieworg = origin;

	mov	eax, DWORD PTR ?RI@@3PAUref_instance_t@@A ; RI
	add	eax, 204				; 000000ccH
	mov	ecx, DWORD PTR _origin$[ebp]
	mov	DWORD PTR [eax], ecx
	mov	edx, DWORD PTR _origin$[ebp+4]
	mov	DWORD PTR [eax+4], edx
	mov	ecx, DWORD PTR _origin$[ebp+8]
	mov	DWORD PTR [eax+8], ecx

; 92   : 	RI->vieworgscreen = RI->vieworg;

	mov	eax, DWORD PTR ?RI@@3PAUref_instance_t@@A ; RI
	add	eax, 204				; 000000ccH
	mov	ecx, DWORD PTR ?RI@@3PAUref_instance_t@@A ; RI
	add	ecx, 216				; 000000d8H
	mov	edx, DWORD PTR [eax]
	mov	DWORD PTR [ecx], edx
	mov	edx, DWORD PTR [eax+4]
	mov	DWORD PTR [ecx+4], edx
	mov	eax, DWORD PTR [eax+8]
	mov	DWORD PTR [ecx+8], eax

; 93   : 
; 94   : 	// put pvsorigin before the mirror plane to avoid get recursion with himself
; 95   : 	if( ent == GET_ENTITY( 0 )) origin = surf->info->origin + (1.0f * plane.normal);

	push	0
	call	DWORD PTR ?gEngfuncs@@3Ucl_enginefuncs_s@@A+212
	add	esp, 4
	cmp	DWORD PTR _ent$[ebp], eax
	jne	SHORT $LN11@R_SetupMir
	lea	eax, DWORD PTR _plane$[ebp]
	push	eax
	push	ecx
	movss	xmm0, DWORD PTR __real@3f800000
	movss	DWORD PTR [esp], xmm0
	lea	ecx, DWORD PTR $T5[ebp]
	push	ecx
	call	??D@YA?AVVector@@MABV0@@Z		; operator*
	add	esp, 12					; 0000000cH
	push	eax
	lea	edx, DWORD PTR $T4[ebp]
	push	edx
	mov	eax, DWORD PTR _surf$[ebp]
	mov	ecx, DWORD PTR [eax+80]
	add	ecx, 24					; 00000018H
	call	??HVector@@QBE?AV0@ABV0@@Z		; Vector::operator+
	mov	ecx, DWORD PTR [eax]
	mov	DWORD PTR _origin$[ebp], ecx
	mov	edx, DWORD PTR [eax+4]
	mov	DWORD PTR _origin$[ebp+4], edx
	mov	eax, DWORD PTR [eax+8]
	mov	DWORD PTR _origin$[ebp+8], eax
	jmp	SHORT $LN12@R_SetupMir
$LN11@R_SetupMir:

; 96   : 	else origin = viewmatrix.VectorTransform( surf->info->origin ) + (1.0f * plane.normal);

	lea	eax, DWORD PTR _plane$[ebp]
	push	eax
	push	ecx
	movss	xmm0, DWORD PTR __real@3f800000
	movss	DWORD PTR [esp], xmm0
	lea	ecx, DWORD PTR $T2[ebp]
	push	ecx
	call	??D@YA?AVVector@@MABV0@@Z		; operator*
	add	esp, 12					; 0000000cH
	push	eax
	lea	edx, DWORD PTR $T1[ebp]
	push	edx
	mov	eax, DWORD PTR _surf$[ebp]
	mov	ecx, DWORD PTR [eax+80]
	add	ecx, 24					; 00000018H
	push	ecx
	lea	edx, DWORD PTR $T3[ebp]
	push	edx
	mov	ecx, DWORD PTR _viewmatrix$[ebp]
	call	?VectorTransform@matrix4x4@@QBE?AVVector@@ABV2@@Z ; matrix4x4::VectorTransform
	mov	ecx, eax
	call	??HVector@@QBE?AV0@ABV0@@Z		; Vector::operator+
	mov	ecx, DWORD PTR [eax]
	mov	DWORD PTR _origin$[ebp], ecx
	mov	edx, DWORD PTR [eax+4]
	mov	DWORD PTR _origin$[ebp+4], edx
	mov	eax, DWORD PTR [eax+8]
	mov	DWORD PTR _origin$[ebp+8], eax
$LN12@R_SetupMir:

; 97   : 
; 98   : 	RI->pvsorigin = origin;

	mov	eax, DWORD PTR ?RI@@3PAUref_instance_t@@A ; RI
	add	eax, 180				; 000000b4H
	mov	ecx, DWORD PTR _origin$[ebp]
	mov	DWORD PTR [eax], ecx
	mov	edx, DWORD PTR _origin$[ebp+4]
	mov	DWORD PTR [eax+4], edx
	mov	ecx, DWORD PTR _origin$[ebp+8]
	mov	DWORD PTR [eax+8], ecx

; 99   : 
; 100  : 	// diffusion - made quality settings
; 101  : 	float QualityLevel;
; 102  : 
; 103  : 	switch( (int)r_mirrorquality->value )

	mov	eax, DWORD PTR ?r_mirrorquality@@3PAUcvar_s@@A ; r_mirrorquality
	cvttss2si ecx, DWORD PTR [eax+12]
	mov	DWORD PTR tv304[ebp], ecx
	cmp	DWORD PTR tv304[ebp], 1
	je	SHORT $LN13@R_SetupMir
	cmp	DWORD PTR tv304[ebp], 2
	je	SHORT $LN14@R_SetupMir
	cmp	DWORD PTR tv304[ebp], 3
	je	SHORT $LN15@R_SetupMir
	jmp	SHORT $LN16@R_SetupMir
$LN13@R_SetupMir:

; 104  : 	{
; 105  : 	case 1: QualityLevel = 0.15; break;

	movss	xmm0, DWORD PTR __real@3e19999a
	movss	DWORD PTR _QualityLevel$[ebp], xmm0
	jmp	SHORT $LN2@R_SetupMir
$LN14@R_SetupMir:

; 106  : 	case 2: QualityLevel = 0.35; break;

	movss	xmm0, DWORD PTR __real@3eb33333
	movss	DWORD PTR _QualityLevel$[ebp], xmm0
	jmp	SHORT $LN2@R_SetupMir
$LN15@R_SetupMir:

; 107  : 	case 3: QualityLevel = 0.7; break;

	movss	xmm0, DWORD PTR __real@3f333333
	movss	DWORD PTR _QualityLevel$[ebp], xmm0
	jmp	SHORT $LN2@R_SetupMir
$LN16@R_SetupMir:

; 108  : 	default:
; 109  : 	case 4: QualityLevel = 1.0; break;

	movss	xmm0, DWORD PTR __real@3f800000
	movss	DWORD PTR _QualityLevel$[ebp], xmm0
$LN2@R_SetupMir:

; 110  : 	}
; 111  : 
; 112  : 	int ScreenW = glState.width * QualityLevel;

	cvtsi2ss xmm0, DWORD PTR ?glState@@3UglState_t@@A
	mulss	xmm0, DWORD PTR _QualityLevel$[ebp]
	cvttss2si eax, xmm0
	mov	DWORD PTR _ScreenW$[ebp], eax

; 113  : 	int ScreenH = glState.height * QualityLevel;

	cvtsi2ss xmm0, DWORD PTR ?glState@@3UglState_t@@A+4
	mulss	xmm0, DWORD PTR _QualityLevel$[ebp]
	cvttss2si eax, xmm0
	mov	DWORD PTR _ScreenH$[ebp], eax

; 114  : 
; 115  : 	if( GL_Support( R_ARB_TEXTURE_NPOT_EXT ))

	push	16					; 00000010H
	call	?GL_Support@@YA_NH@Z			; GL_Support
	add	esp, 4
	movzx	eax, al
	test	eax, eax
	je	$LN17@R_SetupMir

; 116  : 	{
; 117  : 		// allow screen size
; 118  : 		RI->viewport[2] = ScreenW;

	mov	eax, 4
	shl	eax, 1
	mov	ecx, DWORD PTR ?RI@@3PAUref_instance_t@@A ; RI
	mov	edx, DWORD PTR _ScreenW$[ebp]
	mov	DWORD PTR [ecx+eax+32], edx

; 119  : 		RI->viewport[3] = ScreenH;

	mov	eax, 4
	imul	ecx, eax, 3
	mov	edx, DWORD PTR ?RI@@3PAUref_instance_t@@A ; RI
	mov	eax, DWORD PTR _ScreenH$[ebp]
	mov	DWORD PTR [edx+ecx+32], eax

; 120  : 		RI->viewport[2] = bound( 96, RI->viewport[2], glState.width );

	mov	eax, 4
	shl	eax, 1
	mov	ecx, DWORD PTR ?RI@@3PAUref_instance_t@@A ; RI
	cmp	DWORD PTR [ecx+eax+32], 96		; 00000060H
	jl	SHORT $LN22@R_SetupMir
	mov	edx, 4
	shl	edx, 1
	mov	eax, DWORD PTR ?RI@@3PAUref_instance_t@@A ; RI
	mov	ecx, DWORD PTR [eax+edx+32]
	cmp	ecx, DWORD PTR ?glState@@3UglState_t@@A
	jge	SHORT $LN20@R_SetupMir
	mov	edx, 4
	shl	edx, 1
	mov	eax, DWORD PTR ?RI@@3PAUref_instance_t@@A ; RI
	mov	ecx, DWORD PTR [eax+edx+32]
	mov	DWORD PTR tv370[ebp], ecx
	jmp	SHORT $LN21@R_SetupMir
$LN20@R_SetupMir:
	mov	edx, DWORD PTR ?glState@@3UglState_t@@A
	mov	DWORD PTR tv370[ebp], edx
$LN21@R_SetupMir:
	mov	eax, DWORD PTR tv370[ebp]
	mov	DWORD PTR tv371[ebp], eax
	jmp	SHORT $LN23@R_SetupMir
$LN22@R_SetupMir:
	mov	DWORD PTR tv371[ebp], 96		; 00000060H
$LN23@R_SetupMir:
	mov	ecx, 4
	shl	ecx, 1
	mov	edx, DWORD PTR ?RI@@3PAUref_instance_t@@A ; RI
	mov	eax, DWORD PTR tv371[ebp]
	mov	DWORD PTR [edx+ecx+32], eax

; 121  : 		RI->viewport[3] = bound( 72, RI->viewport[3], glState.height );

	mov	eax, 4
	imul	ecx, eax, 3
	mov	edx, DWORD PTR ?RI@@3PAUref_instance_t@@A ; RI
	cmp	DWORD PTR [edx+ecx+32], 72		; 00000048H
	jl	SHORT $LN26@R_SetupMir
	mov	eax, 4
	imul	ecx, eax, 3
	mov	edx, DWORD PTR ?RI@@3PAUref_instance_t@@A ; RI
	mov	eax, DWORD PTR [edx+ecx+32]
	cmp	eax, DWORD PTR ?glState@@3UglState_t@@A+4
	jge	SHORT $LN24@R_SetupMir
	mov	ecx, 4
	imul	edx, ecx, 3
	mov	eax, DWORD PTR ?RI@@3PAUref_instance_t@@A ; RI
	mov	ecx, DWORD PTR [eax+edx+32]
	mov	DWORD PTR tv386[ebp], ecx
	jmp	SHORT $LN25@R_SetupMir
$LN24@R_SetupMir:
	mov	edx, DWORD PTR ?glState@@3UglState_t@@A+4
	mov	DWORD PTR tv386[ebp], edx
$LN25@R_SetupMir:
	mov	eax, DWORD PTR tv386[ebp]
	mov	DWORD PTR tv387[ebp], eax
	jmp	SHORT $LN27@R_SetupMir
$LN26@R_SetupMir:
	mov	DWORD PTR tv387[ebp], 72		; 00000048H
$LN27@R_SetupMir:
	mov	ecx, 4
	imul	edx, ecx, 3
	mov	eax, DWORD PTR ?RI@@3PAUref_instance_t@@A ; RI
	mov	ecx, DWORD PTR tv387[ebp]
	mov	DWORD PTR [eax+edx+32], ecx

; 122  : 		
; 123  : 	}
; 124  : 	else

	jmp	$LN18@R_SetupMir
$LN17@R_SetupMir:

; 125  : 	{
; 126  : 		RI->viewport[2] = NearestPOW( ScreenW, true );

	push	1
	mov	eax, DWORD PTR _ScreenW$[ebp]
	push	eax
	call	?NearestPOW@@YAHH_N@Z			; NearestPOW
	add	esp, 8
	mov	ecx, 4
	shl	ecx, 1
	mov	edx, DWORD PTR ?RI@@3PAUref_instance_t@@A ; RI
	mov	DWORD PTR [edx+ecx+32], eax

; 127  : 		RI->viewport[3] = NearestPOW( ScreenH, true );

	push	1
	mov	eax, DWORD PTR _ScreenH$[ebp]
	push	eax
	call	?NearestPOW@@YAHH_N@Z			; NearestPOW
	add	esp, 8
	mov	ecx, 4
	imul	edx, ecx, 3
	mov	ecx, DWORD PTR ?RI@@3PAUref_instance_t@@A ; RI
	mov	DWORD PTR [ecx+edx+32], eax

; 128  : 		RI->viewport[2] = bound( 128, RI->viewport[2], glState.width );

	mov	eax, 4
	shl	eax, 1
	mov	ecx, DWORD PTR ?RI@@3PAUref_instance_t@@A ; RI
	cmp	DWORD PTR [ecx+eax+32], 128		; 00000080H
	jl	SHORT $LN30@R_SetupMir
	mov	edx, 4
	shl	edx, 1
	mov	eax, DWORD PTR ?RI@@3PAUref_instance_t@@A ; RI
	mov	ecx, DWORD PTR [eax+edx+32]
	cmp	ecx, DWORD PTR ?glState@@3UglState_t@@A
	jge	SHORT $LN28@R_SetupMir
	mov	edx, 4
	shl	edx, 1
	mov	eax, DWORD PTR ?RI@@3PAUref_instance_t@@A ; RI
	mov	ecx, DWORD PTR [eax+edx+32]
	mov	DWORD PTR tv414[ebp], ecx
	jmp	SHORT $LN29@R_SetupMir
$LN28@R_SetupMir:
	mov	edx, DWORD PTR ?glState@@3UglState_t@@A
	mov	DWORD PTR tv414[ebp], edx
$LN29@R_SetupMir:
	mov	eax, DWORD PTR tv414[ebp]
	mov	DWORD PTR tv415[ebp], eax
	jmp	SHORT $LN31@R_SetupMir
$LN30@R_SetupMir:
	mov	DWORD PTR tv415[ebp], 128		; 00000080H
$LN31@R_SetupMir:
	mov	ecx, 4
	shl	ecx, 1
	mov	edx, DWORD PTR ?RI@@3PAUref_instance_t@@A ; RI
	mov	eax, DWORD PTR tv415[ebp]
	mov	DWORD PTR [edx+ecx+32], eax

; 129  : 		RI->viewport[3] = bound( 64, RI->viewport[3], glState.height );

	mov	eax, 4
	imul	ecx, eax, 3
	mov	edx, DWORD PTR ?RI@@3PAUref_instance_t@@A ; RI
	cmp	DWORD PTR [edx+ecx+32], 64		; 00000040H
	jl	SHORT $LN34@R_SetupMir
	mov	eax, 4
	imul	ecx, eax, 3
	mov	edx, DWORD PTR ?RI@@3PAUref_instance_t@@A ; RI
	mov	eax, DWORD PTR [edx+ecx+32]
	cmp	eax, DWORD PTR ?glState@@3UglState_t@@A+4
	jge	SHORT $LN32@R_SetupMir
	mov	ecx, 4
	imul	edx, ecx, 3
	mov	eax, DWORD PTR ?RI@@3PAUref_instance_t@@A ; RI
	mov	ecx, DWORD PTR [eax+edx+32]
	mov	DWORD PTR tv430[ebp], ecx
	jmp	SHORT $LN33@R_SetupMir
$LN32@R_SetupMir:
	mov	edx, DWORD PTR ?glState@@3UglState_t@@A+4
	mov	DWORD PTR tv430[ebp], edx
$LN33@R_SetupMir:
	mov	eax, DWORD PTR tv430[ebp]
	mov	DWORD PTR tv431[ebp], eax
	jmp	SHORT $LN35@R_SetupMir
$LN34@R_SetupMir:
	mov	DWORD PTR tv431[ebp], 64		; 00000040H
$LN35@R_SetupMir:
	mov	ecx, 4
	imul	edx, ecx, 3
	mov	eax, DWORD PTR ?RI@@3PAUref_instance_t@@A ; RI
	mov	ecx, DWORD PTR tv431[ebp]
	mov	DWORD PTR [eax+edx+32], ecx
$LN18@R_SetupMir:

; 130  : 	}
; 131  : 
; 132  : 	return TF_SCREEN;

	mov	eax, 6144				; 00001800H

; 133  : }

	pop	edi
	pop	esi
	pop	ebx
	mov	ecx, DWORD PTR __$ArrayPad$[ebp]
	xor	ecx, ebp
	call	@__security_check_cookie@4
	mov	esp, ebp
	pop	ebp
	ret	0
?R_SetupMirrorView@@YAHPAUmsurface_s@@PAUcl_entity_s@@AAVmatrix4x4@@@Z ENDP ; R_SetupMirrorView
_TEXT	ENDS
; Function compile flags: /Odtp /ZI
; File d:\!diffusion 2020\source code 2022\client-server\client\render\r_subview.cpp
;	COMDAT ?R_RenderSubview@@YAXXZ
_TEXT	SEGMENT
_flags$ = -4						; size = 4
?R_RenderSubview@@YAXXZ PROC				; R_RenderSubview, COMDAT

; 836  : {

	push	ebp
	mov	ebp, esp
	sub	esp, 68					; 00000044H
	push	ebx
	push	esi
	push	edi

; 837  : 	int	flags = world->features;

	mov	eax, DWORD PTR ?world@@3PAUgl_world_t@@A ; world
	movzx	ecx, WORD PTR [eax+64]
	mov	DWORD PTR _flags$[ebp], ecx

; 838  : 
; 839  : 	if( glState.stack_position > (unsigned int)r_recursion_depth->value )

	mov	eax, DWORD PTR ?r_recursion_depth@@3PAUcvar_s@@A ; r_recursion_depth
	movss	xmm0, DWORD PTR [eax+12]
	call	__ftoui3
	cmp	DWORD PTR ?glState@@3UglState_t@@A+112296, eax
	jbe	SHORT $LN2@R_RenderSu

; 840  : 		return; // too deep...

	jmp	$LN1@R_RenderSu
$LN2@R_RenderSu:

; 841  : 
; 842  : 	if( FBitSet( RI->params, RP_OVERVIEW ))

	mov	eax, DWORD PTR ?RI@@3PAUref_instance_t@@A ; RI
	mov	ecx, DWORD PTR [eax]
	and	ecx, 512				; 00000200H
	je	SHORT $LN3@R_RenderSu

; 843  : 		return;

	jmp	$LN1@R_RenderSu
$LN3@R_RenderSu:

; 844  : 
; 845  : 	// no mirrors, portals or screens anyway
; 846  : 	if( !FBitSet( flags, WORLD_HAS_MIRRORS ) && !FBitSet( flags, WORLD_HAS_SCREENS ) && !FBitSet( flags, WORLD_HAS_PORTALS ))

	mov	eax, DWORD PTR _flags$[ebp]
	and	eax, 2
	jne	SHORT $LN4@R_RenderSu
	mov	eax, DWORD PTR _flags$[ebp]
	and	eax, 8
	jne	SHORT $LN4@R_RenderSu
	mov	eax, DWORD PTR _flags$[ebp]
	and	eax, 4
	jne	SHORT $LN4@R_RenderSu

; 847  : 		return;

	jmp	$LN1@R_RenderSu
$LN4@R_RenderSu:

; 848  : 
; 849  : 	// player is outside world. Don't draw subview for speedup reasons
; 850  : 	if( RP_OUTSIDE( RI->viewleaf ))

	mov	eax, DWORD PTR ?RI@@3PAUref_instance_t@@A ; RI
	mov	ecx, DWORD PTR ?worldmodel@@3PAUmodel_s@@A ; worldmodel
	mov	eax, DWORD PTR [eax+172]
	sub	eax, DWORD PTR [ecx+140]
	cdq
	mov	ecx, 60					; 0000003cH
	idiv	ecx
	sub	eax, 1
	cmp	eax, -1
	jne	SHORT $LN5@R_RenderSu

; 851  : 		return;

	jmp	$LN1@R_RenderSu
$LN5@R_RenderSu:

; 852  : 
; 853  : 	if( !FBitSet( RI->params, RP_OLDVIEWLEAF ))

	mov	eax, DWORD PTR ?RI@@3PAUref_instance_t@@A ; RI
	mov	ecx, DWORD PTR [eax]
	and	ecx, 4
	jne	SHORT $LN6@R_RenderSu

; 854  : 		R_FindViewLeaf();

	call	?R_FindViewLeaf@@YAXXZ			; R_FindViewLeaf
$LN6@R_RenderSu:

; 855  : 	R_SetupFrustum();

	call	?R_SetupFrustum@@YAXXZ			; R_SetupFrustum

; 856  : 	R_MarkLeaves ();

	call	?R_MarkLeaves@@YAXXZ			; R_MarkLeaves

; 857  : 
; 858  : 	if( FBitSet( RI->params, RP_MIRRORVIEW ))

	mov	eax, DWORD PTR ?RI@@3PAUref_instance_t@@A ; RI
	mov	ecx, DWORD PTR [eax]
	and	ecx, 1
	je	SHORT $LN7@R_RenderSu

; 859  : 		tr.modelorg = RI->pvsorigin;

	mov	eax, DWORD PTR ?RI@@3PAUref_instance_t@@A ; RI
	add	eax, 180				; 000000b4H
	mov	ecx, DWORD PTR [eax]
	mov	DWORD PTR ?tr@@3Uref_globals_t@@A+5852544, ecx
	mov	edx, DWORD PTR [eax+4]
	mov	DWORD PTR ?tr@@3Uref_globals_t@@A+5852548, edx
	mov	eax, DWORD PTR [eax+8]
	mov	DWORD PTR ?tr@@3Uref_globals_t@@A+5852552, eax
	jmp	SHORT $LN8@R_RenderSu
$LN7@R_RenderSu:

; 860  : 	else tr.modelorg = RI->vieworg;

	mov	eax, DWORD PTR ?RI@@3PAUref_instance_t@@A ; RI
	add	eax, 204				; 000000ccH
	mov	ecx, DWORD PTR [eax]
	mov	DWORD PTR ?tr@@3Uref_globals_t@@A+5852544, ecx
	mov	edx, DWORD PTR [eax+4]
	mov	DWORD PTR ?tr@@3Uref_globals_t@@A+5852548, edx
	mov	eax, DWORD PTR [eax+8]
	mov	DWORD PTR ?tr@@3Uref_globals_t@@A+5852552, eax
$LN8@R_RenderSu:

; 861  : 	RI->currententity = GET_ENTITY( 0 );

	push	0
	call	DWORD PTR ?gEngfuncs@@3Ucl_enginefuncs_s@@A+212
	add	esp, 4
	mov	ecx, DWORD PTR ?RI@@3PAUref_instance_t@@A ; RI
	mov	DWORD PTR [ecx+16], eax

; 862  : 	RI->currentmodel = RI->currententity->model;

	mov	eax, DWORD PTR ?RI@@3PAUref_instance_t@@A ; RI
	mov	ecx, DWORD PTR [eax+16]
	mov	edx, DWORD PTR ?RI@@3PAUref_instance_t@@A ; RI
	mov	eax, DWORD PTR [ecx+2964]
	mov	DWORD PTR [edx+20], eax

; 863  : 	RI->num_subview_faces = 0;

	mov	eax, DWORD PTR ?RI@@3PAUref_instance_t@@A ; RI
	mov	DWORD PTR [eax+14000], 0

; 864  : 
; 865  : 	R_WorldFindMirrors();	// yes, only mirrors are allowed in the world

	call	?R_WorldFindMirrors@@YAXXZ		; R_WorldFindMirrors

; 866  : 	R_FindSubviewEnts();	// include mirrors, portals and screens

	call	?R_FindSubviewEnts@@YAXXZ		; R_FindSubviewEnts

; 867  : 
; 868  : 	if( RI->num_subview_faces != 0 )

	mov	eax, DWORD PTR ?RI@@3PAUref_instance_t@@A ; RI
	cmp	DWORD PTR [eax+14000], 0
	je	SHORT $LN9@R_RenderSu

; 869  : 		R_DrawSubviewPasses();

	call	?R_DrawSubviewPasses@@YAXXZ		; R_DrawSubviewPasses
$LN9@R_RenderSu:
$LN1@R_RenderSu:

; 870  : }

	pop	edi
	pop	esi
	pop	ebx
	mov	esp, ebp
	pop	ebp
	ret	0
?R_RenderSubview@@YAXXZ ENDP				; R_RenderSubview
_TEXT	ENDS
; Function compile flags: /Odtp /ZI
;	COMDAT ??0ref_params_s@@QAE@XZ
_TEXT	SEGMENT
_this$ = -4						; size = 4
??0ref_params_s@@QAE@XZ PROC				; ref_params_s::ref_params_s, COMDAT
; _this$ = ecx
	push	ebp
	mov	ebp, esp
	sub	esp, 68					; 00000044H
	push	ebx
	push	esi
	push	edi
	mov	DWORD PTR _this$[ebp], ecx
	mov	ecx, DWORD PTR _this$[ebp]
	call	??0Vector@@QAE@XZ			; Vector::Vector
	mov	ecx, DWORD PTR _this$[ebp]
	add	ecx, 12					; 0000000cH
	call	??0Vector@@QAE@XZ			; Vector::Vector
	mov	ecx, DWORD PTR _this$[ebp]
	add	ecx, 24					; 00000018H
	call	??0Vector@@QAE@XZ			; Vector::Vector
	mov	ecx, DWORD PTR _this$[ebp]
	add	ecx, 36					; 00000024H
	call	??0Vector@@QAE@XZ			; Vector::Vector
	mov	ecx, DWORD PTR _this$[ebp]
	add	ecx, 48					; 00000030H
	call	??0Vector@@QAE@XZ			; Vector::Vector
	mov	ecx, DWORD PTR _this$[ebp]
	add	ecx, 88					; 00000058H
	call	??0Vector@@QAE@XZ			; Vector::Vector
	mov	ecx, DWORD PTR _this$[ebp]
	add	ecx, 100				; 00000064H
	call	??0Vector@@QAE@XZ			; Vector::Vector
	mov	ecx, DWORD PTR _this$[ebp]
	add	ecx, 112				; 00000070H
	call	??0Vector@@QAE@XZ			; Vector::Vector
	mov	ecx, DWORD PTR _this$[ebp]
	add	ecx, 128				; 00000080H
	call	??0Vector@@QAE@XZ			; Vector::Vector
	mov	ecx, DWORD PTR _this$[ebp]
	add	ecx, 144				; 00000090H
	call	??0Vector@@QAE@XZ			; Vector::Vector
	mov	ecx, DWORD PTR _this$[ebp]
	add	ecx, 160				; 000000a0H
	call	??0Vector@@QAE@XZ			; Vector::Vector
	mov	eax, DWORD PTR _this$[ebp]
	pop	edi
	pop	esi
	pop	ebx
	mov	esp, ebp
	pop	ebp
	ret	0
??0ref_params_s@@QAE@XZ ENDP				; ref_params_s::ref_params_s
_TEXT	ENDS
; Function compile flags: /Odtp /ZI
;	COMDAT ??0mplane_s@@QAE@XZ
_TEXT	SEGMENT
_this$ = -4						; size = 4
??0mplane_s@@QAE@XZ PROC				; mplane_s::mplane_s, COMDAT
; _this$ = ecx
	push	ebp
	mov	ebp, esp
	sub	esp, 68					; 00000044H
	push	ebx
	push	esi
	push	edi
	mov	DWORD PTR _this$[ebp], ecx
	mov	ecx, DWORD PTR _this$[ebp]
	call	??0Vector@@QAE@XZ			; Vector::Vector
	mov	eax, DWORD PTR _this$[ebp]
	pop	edi
	pop	esi
	pop	ebx
	mov	esp, ebp
	pop	ebp
	ret	0
??0mplane_s@@QAE@XZ ENDP				; mplane_s::mplane_s
_TEXT	ENDS
; Function compile flags: /Odtp /ZI
; File d:\!diffusion 2020\source code 2022\client-server\game_shared\mathlib.h
;	COMDAT ?anglemod@@YAMM@Z
_TEXT	SEGMENT
tv73 = -68						; size = 4
_a$ = 8							; size = 4
?anglemod@@YAMM@Z PROC					; anglemod, COMDAT

; 82   : inline float anglemod( float a ) { return (360.0f / 65536) * ((int)(a * (65536 / 360.0f)) & 65535); }

	push	ebp
	mov	ebp, esp
	sub	esp, 68					; 00000044H
	push	ebx
	push	esi
	push	edi
	movss	xmm0, DWORD PTR _a$[ebp]
	mulss	xmm0, DWORD PTR __real@43360b61
	cvttss2si eax, xmm0
	and	eax, 65535				; 0000ffffH
	cvtsi2ss xmm0, eax
	mulss	xmm0, DWORD PTR __real@3bb40000
	movss	DWORD PTR tv73[ebp], xmm0
	fld	DWORD PTR tv73[ebp]
	pop	edi
	pop	esi
	pop	ebx
	mov	esp, ebp
	pop	ebp
	ret	0
?anglemod@@YAMM@Z ENDP					; anglemod
_TEXT	ENDS
; Function compile flags: /Odtp /ZI
;	COMDAT ??0matrix4x4@@QAE@ABV0@@Z
_TEXT	SEGMENT
_this$ = -4						; size = 4
___that$ = 8						; size = 4
??0matrix4x4@@QAE@ABV0@@Z PROC				; matrix4x4::matrix4x4, COMDAT
; _this$ = ecx
	push	ebp
	mov	ebp, esp
	sub	esp, 68					; 00000044H
	push	ebx
	push	esi
	push	edi
	mov	DWORD PTR _this$[ebp], ecx
	push	OFFSET ??0Vector4D@@QAE@ABV0@@Z		; Vector4D::Vector4D
	push	4
	push	16					; 00000010H
	mov	eax, DWORD PTR ___that$[ebp]
	push	eax
	mov	ecx, DWORD PTR _this$[ebp]
	push	ecx
	call	??__G@YGXPAX0IIP6EPAX00@Z@Z
	mov	eax, DWORD PTR _this$[ebp]
	pop	edi
	pop	esi
	pop	ebx
	mov	esp, ebp
	pop	ebp
	ret	4
??0matrix4x4@@QAE@ABV0@@Z ENDP				; matrix4x4::matrix4x4
_TEXT	ENDS
; Function compile flags: /Odtp /ZI
; File d:\!diffusion 2020\source code 2022\client-server\game_shared\matrix.h
;	COMDAT ?GetAngles@matrix4x4@@QAEXAAVVector@@@Z
_TEXT	SEGMENT
$T1 = -80						; size = 12
_this$ = -4						; size = 4
_angles$ = 8						; size = 4
?GetAngles@matrix4x4@@QAEXAAVVector@@@Z PROC		; matrix4x4::GetAngles, COMDAT
; _this$ = ecx

; 1014 : 	void	GetAngles( Vector &angles ) { angles = GetAngles(); }

	push	ebp
	mov	ebp, esp
	sub	esp, 80					; 00000050H
	push	ebx
	push	esi
	push	edi
	mov	DWORD PTR _this$[ebp], ecx
	lea	eax, DWORD PTR $T1[ebp]
	push	eax
	mov	ecx, DWORD PTR _this$[ebp]
	call	?GetAngles@matrix4x4@@QAE?AVVector@@XZ	; matrix4x4::GetAngles
	mov	ecx, DWORD PTR _angles$[ebp]
	mov	edx, DWORD PTR [eax]
	mov	DWORD PTR [ecx], edx
	mov	edx, DWORD PTR [eax+4]
	mov	DWORD PTR [ecx+4], edx
	mov	eax, DWORD PTR [eax+8]
	mov	DWORD PTR [ecx+8], eax
	pop	edi
	pop	esi
	pop	ebx
	mov	esp, ebp
	pop	ebp
	ret	4
?GetAngles@matrix4x4@@QAEXAAVVector@@@Z ENDP		; matrix4x4::GetAngles
_TEXT	ENDS
; Function compile flags: /Odtp /ZI
; File d:\!diffusion 2020\source code 2022\client-server\game_shared\matrix.h
;	COMDAT ?GetAngles@matrix4x4@@QAE?AVVector@@XZ
_TEXT	SEGMENT
tv370 = -96						; size = 4
tv368 = -96						; size = 4
tv366 = -96						; size = 4
tv364 = -96						; size = 4
tv362 = -96						; size = 4
tv350 = -92						; size = 8
tv334 = -92						; size = 8
tv321 = -92						; size = 8
tv306 = -92						; size = 8
tv291 = -92						; size = 8
tv360 = -88						; size = 4
_angles$ = -20						; size = 12
_xyDist$ = -8						; size = 4
_this$ = -4						; size = 4
___$ReturnUdt$ = 8					; size = 4
?GetAngles@matrix4x4@@QAE?AVVector@@XZ PROC		; matrix4x4::GetAngles, COMDAT
; _this$ = ecx

; 993  : 	{

	push	ebp
	mov	ebp, esp
	sub	esp, 96					; 00000060H
	push	ebx
	push	esi
	push	edi
	mov	DWORD PTR _this$[ebp], ecx

; 994  : 		float xyDist = sqrt( mat[0][0] * mat[0][0] + mat[0][1] * mat[0][1] );

	mov	eax, 16					; 00000010H
	imul	ecx, eax, 0
	add	ecx, DWORD PTR _this$[ebp]
	call	??BVector4D@@QAEPAMXZ			; Vector4D::operator float *
	mov	esi, eax
	mov	ecx, 4
	imul	edi, ecx, 0
	mov	edx, 16					; 00000010H
	imul	ecx, edx, 0
	add	ecx, DWORD PTR _this$[ebp]
	call	??BVector4D@@QAEPAMXZ			; Vector4D::operator float *
	mov	ecx, 4
	imul	edx, ecx, 0
	movss	xmm0, DWORD PTR [esi+edi]
	mulss	xmm0, DWORD PTR [eax+edx]
	mov	eax, 16					; 00000010H
	imul	ecx, eax, 0
	add	ecx, DWORD PTR _this$[ebp]
	movss	DWORD PTR tv360[ebp], xmm0
	call	??BVector4D@@QAEPAMXZ			; Vector4D::operator float *
	mov	esi, eax
	mov	edi, 4
	shl	edi, 0
	mov	ecx, 16					; 00000010H
	imul	ecx, ecx, 0
	add	ecx, DWORD PTR _this$[ebp]
	call	??BVector4D@@QAEPAMXZ			; Vector4D::operator float *
	mov	edx, 4
	shl	edx, 0
	movss	xmm0, DWORD PTR [esi+edi]
	mulss	xmm0, DWORD PTR [eax+edx]
	movss	xmm1, DWORD PTR tv360[ebp]
	addss	xmm1, xmm0
	cvtss2sd xmm0, xmm1
	sub	esp, 8
	movsd	QWORD PTR [esp], xmm0
	call	_sqrt
	add	esp, 8
	fstp	DWORD PTR _xyDist$[ebp]

; 995  : 		Vector angles;

	lea	ecx, DWORD PTR _angles$[ebp]
	call	??0Vector@@QAE@XZ			; Vector::Vector

; 996  : 
; 997  : 		// enough here to get angles?
; 998  : 		if( xyDist > 0.001f )

	movss	xmm0, DWORD PTR _xyDist$[ebp]
	comiss	xmm0, DWORD PTR __real@3a83126f
	jbe	$LN2@GetAngles

; 999  : 		{
; 1000 : 			angles[0] = RAD2DEG( atan2( -mat[0][2], xyDist ) );

	cvtss2sd xmm0, DWORD PTR _xyDist$[ebp]
	sub	esp, 8
	movsd	QWORD PTR [esp], xmm0
	mov	eax, 16					; 00000010H
	imul	ecx, eax, 0
	add	ecx, DWORD PTR _this$[ebp]
	call	??BVector4D@@QAEPAMXZ			; Vector4D::operator float *
	mov	ecx, 4
	shl	ecx, 1
	movss	xmm0, DWORD PTR [eax+ecx]
	xorps	xmm0, DWORD PTR __xmm@80000000800000008000000080000000
	cvtss2sd xmm0, xmm0
	sub	esp, 8
	movsd	QWORD PTR [esp], xmm0
	call	_atan2
	add	esp, 16					; 00000010H
	fstp	QWORD PTR tv291[ebp]
	movsd	xmm0, QWORD PTR tv291[ebp]
	cvtsd2ss xmm0, xmm0
	mulss	xmm0, DWORD PTR __real@42652ee1
	lea	ecx, DWORD PTR _angles$[ebp]
	movss	DWORD PTR tv362[ebp], xmm0
	call	??BVector@@QAEPAMXZ			; Vector::operator float *
	mov	edx, 4
	imul	ecx, edx, 0
	movss	xmm0, DWORD PTR tv362[ebp]
	movss	DWORD PTR [eax+ecx], xmm0

; 1001 : 			angles[1] = RAD2DEG( atan2( mat[0][1], mat[0][0] ) );

	mov	eax, 16					; 00000010H
	imul	ecx, eax, 0
	add	ecx, DWORD PTR _this$[ebp]
	call	??BVector4D@@QAEPAMXZ			; Vector4D::operator float *
	mov	ecx, 4
	imul	edx, ecx, 0
	cvtss2sd xmm0, DWORD PTR [eax+edx]
	sub	esp, 8
	movsd	QWORD PTR [esp], xmm0
	mov	eax, 16					; 00000010H
	imul	ecx, eax, 0
	add	ecx, DWORD PTR _this$[ebp]
	call	??BVector4D@@QAEPAMXZ			; Vector4D::operator float *
	mov	ecx, 4
	shl	ecx, 0
	cvtss2sd xmm0, DWORD PTR [eax+ecx]
	sub	esp, 8
	movsd	QWORD PTR [esp], xmm0
	call	_atan2
	add	esp, 16					; 00000010H
	fstp	QWORD PTR tv306[ebp]
	movsd	xmm0, QWORD PTR tv306[ebp]
	cvtsd2ss xmm0, xmm0
	mulss	xmm0, DWORD PTR __real@42652ee1
	lea	ecx, DWORD PTR _angles$[ebp]
	movss	DWORD PTR tv364[ebp], xmm0
	call	??BVector@@QAEPAMXZ			; Vector::operator float *
	mov	edx, 4
	shl	edx, 0
	movss	xmm0, DWORD PTR tv364[ebp]
	movss	DWORD PTR [eax+edx], xmm0

; 1002 : 			angles[2] = RAD2DEG( atan2( mat[1][2], mat[2][2] ) );

	mov	ecx, 16					; 00000010H
	shl	ecx, 1
	add	ecx, DWORD PTR _this$[ebp]
	call	??BVector4D@@QAEPAMXZ			; Vector4D::operator float *
	mov	ecx, 4
	shl	ecx, 1
	cvtss2sd xmm0, DWORD PTR [eax+ecx]
	sub	esp, 8
	movsd	QWORD PTR [esp], xmm0
	mov	ecx, 16					; 00000010H
	shl	ecx, 0
	add	ecx, DWORD PTR _this$[ebp]
	call	??BVector4D@@QAEPAMXZ			; Vector4D::operator float *
	mov	edx, 4
	shl	edx, 1
	cvtss2sd xmm0, DWORD PTR [eax+edx]
	sub	esp, 8
	movsd	QWORD PTR [esp], xmm0
	call	_atan2
	add	esp, 16					; 00000010H
	fstp	QWORD PTR tv321[ebp]
	movsd	xmm0, QWORD PTR tv321[ebp]
	cvtsd2ss xmm0, xmm0
	mulss	xmm0, DWORD PTR __real@42652ee1
	lea	ecx, DWORD PTR _angles$[ebp]
	movss	DWORD PTR tv366[ebp], xmm0
	call	??BVector@@QAEPAMXZ			; Vector::operator float *
	mov	ecx, 4
	shl	ecx, 1
	movss	xmm0, DWORD PTR tv366[ebp]
	movss	DWORD PTR [eax+ecx], xmm0

; 1003 : 		}
; 1004 : 		else	// forward is mostly Z, gimbal lock

	jmp	$LN3@GetAngles
$LN2@GetAngles:

; 1005 : 		{
; 1006 : 			angles[0] = RAD2DEG( atan2( -mat[0][2], xyDist ) );

	cvtss2sd xmm0, DWORD PTR _xyDist$[ebp]
	sub	esp, 8
	movsd	QWORD PTR [esp], xmm0
	mov	eax, 16					; 00000010H
	imul	ecx, eax, 0
	add	ecx, DWORD PTR _this$[ebp]
	call	??BVector4D@@QAEPAMXZ			; Vector4D::operator float *
	mov	ecx, 4
	shl	ecx, 1
	movss	xmm0, DWORD PTR [eax+ecx]
	xorps	xmm0, DWORD PTR __xmm@80000000800000008000000080000000
	cvtss2sd xmm0, xmm0
	sub	esp, 8
	movsd	QWORD PTR [esp], xmm0
	call	_atan2
	add	esp, 16					; 00000010H
	fstp	QWORD PTR tv334[ebp]
	movsd	xmm0, QWORD PTR tv334[ebp]
	cvtsd2ss xmm0, xmm0
	mulss	xmm0, DWORD PTR __real@42652ee1
	lea	ecx, DWORD PTR _angles$[ebp]
	movss	DWORD PTR tv368[ebp], xmm0
	call	??BVector@@QAEPAMXZ			; Vector::operator float *
	mov	edx, 4
	imul	ecx, edx, 0
	movss	xmm0, DWORD PTR tv368[ebp]
	movss	DWORD PTR [eax+ecx], xmm0

; 1007 : 			angles[1] = RAD2DEG( atan2( -mat[1][0], mat[1][1] ) );

	mov	ecx, 16					; 00000010H
	shl	ecx, 0
	add	ecx, DWORD PTR _this$[ebp]
	call	??BVector4D@@QAEPAMXZ			; Vector4D::operator float *
	mov	ecx, 4
	shl	ecx, 0
	cvtss2sd xmm0, DWORD PTR [eax+ecx]
	sub	esp, 8
	movsd	QWORD PTR [esp], xmm0
	mov	ecx, 16					; 00000010H
	shl	ecx, 0
	add	ecx, DWORD PTR _this$[ebp]
	call	??BVector4D@@QAEPAMXZ			; Vector4D::operator float *
	mov	edx, 4
	imul	ecx, edx, 0
	movss	xmm0, DWORD PTR [eax+ecx]
	xorps	xmm0, DWORD PTR __xmm@80000000800000008000000080000000
	cvtss2sd xmm0, xmm0
	sub	esp, 8
	movsd	QWORD PTR [esp], xmm0
	call	_atan2
	add	esp, 16					; 00000010H
	fstp	QWORD PTR tv350[ebp]
	movsd	xmm0, QWORD PTR tv350[ebp]
	cvtsd2ss xmm0, xmm0
	mulss	xmm0, DWORD PTR __real@42652ee1
	lea	ecx, DWORD PTR _angles$[ebp]
	movss	DWORD PTR tv370[ebp], xmm0
	call	??BVector@@QAEPAMXZ			; Vector::operator float *
	mov	edx, 4
	shl	edx, 0
	movss	xmm0, DWORD PTR tv370[ebp]
	movss	DWORD PTR [eax+edx], xmm0

; 1008 : 			angles[2] = 0;

	lea	ecx, DWORD PTR _angles$[ebp]
	call	??BVector@@QAEPAMXZ			; Vector::operator float *
	mov	ecx, 4
	shl	ecx, 1
	xorps	xmm0, xmm0
	movss	DWORD PTR [eax+ecx], xmm0
$LN3@GetAngles:

; 1009 : 		}
; 1010 : 
; 1011 : 		return angles;

	lea	eax, DWORD PTR _angles$[ebp]
	push	eax
	mov	ecx, DWORD PTR ___$ReturnUdt$[ebp]
	call	??0Vector@@QAE@ABV0@@Z			; Vector::Vector
	mov	eax, DWORD PTR ___$ReturnUdt$[ebp]

; 1012 : 	}

	pop	edi
	pop	esi
	pop	ebx
	mov	esp, ebp
	pop	ebp
	ret	4
?GetAngles@matrix4x4@@QAE?AVVector@@XZ ENDP		; matrix4x4::GetAngles
_TEXT	ENDS
; Function compile flags: /Odtp /ZI
; File d:\!diffusion 2020\source code 2022\client-server\game_shared\matrix.h
;	COMDAT ?GetOrigin@matrix4x4@@QAEXAAVVector@@@Z
_TEXT	SEGMENT
$T1 = -80						; size = 12
_this$ = -4						; size = 4
_vOrigin$ = 8						; size = 4
?GetOrigin@matrix4x4@@QAEXAAVVector@@@Z PROC		; matrix4x4::GetOrigin, COMDAT
; _this$ = ecx

; 990  : 	void	GetOrigin( Vector &vOrigin ) { vOrigin = mat[3]; };

	push	ebp
	mov	ebp, esp
	sub	esp, 80					; 00000050H
	push	ebx
	push	esi
	push	edi
	mov	DWORD PTR _this$[ebp], ecx
	lea	eax, DWORD PTR $T1[ebp]
	push	eax
	mov	ecx, 16					; 00000010H
	imul	ecx, ecx, 3
	add	ecx, DWORD PTR _this$[ebp]
	call	??BVector4D@@QAE?AVVector@@XZ		; Vector4D::operator Vector
	mov	edx, DWORD PTR _vOrigin$[ebp]
	mov	eax, DWORD PTR $T1[ebp]
	mov	DWORD PTR [edx], eax
	mov	ecx, DWORD PTR $T1[ebp+4]
	mov	DWORD PTR [edx+4], ecx
	mov	eax, DWORD PTR $T1[ebp+8]
	mov	DWORD PTR [edx+8], eax
	pop	edi
	pop	esi
	pop	ebx
	mov	esp, ebp
	pop	ebp
	ret	4
?GetOrigin@matrix4x4@@QAEXAAVVector@@@Z ENDP		; matrix4x4::GetOrigin
_TEXT	ENDS
; Function compile flags: /Odtp /ZI
; File d:\!diffusion 2020\source code 2022\client-server\game_shared\matrix.h
;	COMDAT ?SetOrigin@matrix4x4@@QAEXABVVector@@@Z
_TEXT	SEGMENT
$T1 = -84						; size = 16
_this$ = -4						; size = 4
_vOrigin$ = 8						; size = 4
?SetOrigin@matrix4x4@@QAEXABVVector@@@Z PROC		; matrix4x4::SetOrigin, COMDAT
; _this$ = ecx

; 989  : 	void	SetOrigin( const Vector &vOrigin ) { mat[3] = Vector4D( vOrigin.x, vOrigin.y, vOrigin.z, 1.0f ); };

	push	ebp
	mov	ebp, esp
	sub	esp, 84					; 00000054H
	push	ebx
	push	esi
	push	edi
	mov	DWORD PTR _this$[ebp], ecx
	push	ecx
	movss	xmm0, DWORD PTR __real@3f800000
	movss	DWORD PTR [esp], xmm0
	mov	eax, DWORD PTR _vOrigin$[ebp]
	push	ecx
	movss	xmm0, DWORD PTR [eax+8]
	movss	DWORD PTR [esp], xmm0
	mov	ecx, DWORD PTR _vOrigin$[ebp]
	push	ecx
	movss	xmm0, DWORD PTR [ecx+4]
	movss	DWORD PTR [esp], xmm0
	mov	edx, DWORD PTR _vOrigin$[ebp]
	push	ecx
	movss	xmm0, DWORD PTR [edx]
	movss	DWORD PTR [esp], xmm0
	lea	ecx, DWORD PTR $T1[ebp]
	call	??0Vector4D@@QAE@MMMM@Z			; Vector4D::Vector4D
	mov	ecx, 16					; 00000010H
	imul	edx, ecx, 3
	add	edx, DWORD PTR _this$[ebp]
	mov	ecx, DWORD PTR [eax]
	mov	DWORD PTR [edx], ecx
	mov	ecx, DWORD PTR [eax+4]
	mov	DWORD PTR [edx+4], ecx
	mov	ecx, DWORD PTR [eax+8]
	mov	DWORD PTR [edx+8], ecx
	mov	eax, DWORD PTR [eax+12]
	mov	DWORD PTR [edx+12], eax
	pop	edi
	pop	esi
	pop	ebx
	mov	esp, ebp
	pop	ebp
	ret	4
?SetOrigin@matrix4x4@@QAEXABVVector@@@Z ENDP		; matrix4x4::SetOrigin
_TEXT	ENDS
; Function compile flags: /Odtp /ZI
; File d:\!diffusion 2020\source code 2022\client-server\game_shared\matrix.h
;	COMDAT ?SetUp@matrix4x4@@QAEXABVVector4D@@@Z
_TEXT	SEGMENT
_this$ = -4						; size = 4
_vUp$ = 8						; size = 4
?SetUp@matrix4x4@@QAEXABVVector4D@@@Z PROC		; matrix4x4::SetUp, COMDAT
; _this$ = ecx

; 984  : 	void	SetUp( const Vector4D &vUp ) { mat[2] = vUp; };

	push	ebp
	mov	ebp, esp
	sub	esp, 68					; 00000044H
	push	ebx
	push	esi
	push	edi
	mov	DWORD PTR _this$[ebp], ecx
	mov	eax, 16					; 00000010H
	shl	eax, 1
	add	eax, DWORD PTR _this$[ebp]
	mov	ecx, DWORD PTR _vUp$[ebp]
	mov	edx, DWORD PTR [ecx]
	mov	DWORD PTR [eax], edx
	mov	edx, DWORD PTR [ecx+4]
	mov	DWORD PTR [eax+4], edx
	mov	edx, DWORD PTR [ecx+8]
	mov	DWORD PTR [eax+8], edx
	mov	ecx, DWORD PTR [ecx+12]
	mov	DWORD PTR [eax+12], ecx
	pop	edi
	pop	esi
	pop	ebx
	mov	esp, ebp
	pop	ebp
	ret	4
?SetUp@matrix4x4@@QAEXABVVector4D@@@Z ENDP		; matrix4x4::SetUp
_TEXT	ENDS
; Function compile flags: /Odtp /ZI
; File d:\!diffusion 2020\source code 2022\client-server\game_shared\matrix.h
;	COMDAT ?SetRight@matrix4x4@@QAEXABVVector4D@@@Z
_TEXT	SEGMENT
_this$ = -4						; size = 4
_vRight$ = 8						; size = 4
?SetRight@matrix4x4@@QAEXABVVector4D@@@Z PROC		; matrix4x4::SetRight, COMDAT
; _this$ = ecx

; 983  : 	void	SetRight( const Vector4D &vRight ) { mat[1] = vRight; };

	push	ebp
	mov	ebp, esp
	sub	esp, 68					; 00000044H
	push	ebx
	push	esi
	push	edi
	mov	DWORD PTR _this$[ebp], ecx
	mov	eax, 16					; 00000010H
	shl	eax, 0
	add	eax, DWORD PTR _this$[ebp]
	mov	ecx, DWORD PTR _vRight$[ebp]
	mov	edx, DWORD PTR [ecx]
	mov	DWORD PTR [eax], edx
	mov	edx, DWORD PTR [ecx+4]
	mov	DWORD PTR [eax+4], edx
	mov	edx, DWORD PTR [ecx+8]
	mov	DWORD PTR [eax+8], edx
	mov	ecx, DWORD PTR [ecx+12]
	mov	DWORD PTR [eax+12], ecx
	pop	edi
	pop	esi
	pop	ebx
	mov	esp, ebp
	pop	ebp
	ret	4
?SetRight@matrix4x4@@QAEXABVVector4D@@@Z ENDP		; matrix4x4::SetRight
_TEXT	ENDS
; Function compile flags: /Odtp /ZI
; File d:\!diffusion 2020\source code 2022\client-server\game_shared\matrix.h
;	COMDAT ?SetForward@matrix4x4@@QAEXABVVector4D@@@Z
_TEXT	SEGMENT
_this$ = -4						; size = 4
_vForward$ = 8						; size = 4
?SetForward@matrix4x4@@QAEXABVVector4D@@@Z PROC		; matrix4x4::SetForward, COMDAT
; _this$ = ecx

; 982  : 	void	SetForward( const Vector4D &vForward ) { mat[0] = vForward; };

	push	ebp
	mov	ebp, esp
	sub	esp, 68					; 00000044H
	push	ebx
	push	esi
	push	edi
	mov	DWORD PTR _this$[ebp], ecx
	mov	eax, 16					; 00000010H
	imul	ecx, eax, 0
	add	ecx, DWORD PTR _this$[ebp]
	mov	edx, DWORD PTR _vForward$[ebp]
	mov	eax, DWORD PTR [edx]
	mov	DWORD PTR [ecx], eax
	mov	eax, DWORD PTR [edx+4]
	mov	DWORD PTR [ecx+4], eax
	mov	eax, DWORD PTR [edx+8]
	mov	DWORD PTR [ecx+8], eax
	mov	edx, DWORD PTR [edx+12]
	mov	DWORD PTR [ecx+12], edx
	pop	edi
	pop	esi
	pop	ebx
	mov	esp, ebp
	pop	ebp
	ret	4
?SetForward@matrix4x4@@QAEXABVVector4D@@@Z ENDP		; matrix4x4::SetForward
_TEXT	ENDS
; Function compile flags: /Odtp /ZI
; File d:\!diffusion 2020\source code 2022\client-server\game_shared\matrix.h
;	COMDAT ?GetForward@matrix4x4@@QBE?AVVector@@XZ
_TEXT	SEGMENT
$T1 = -80						; size = 12
_this$ = -4						; size = 4
___$ReturnUdt$ = 8					; size = 4
?GetForward@matrix4x4@@QBE?AVVector@@XZ PROC		; matrix4x4::GetForward, COMDAT
; _this$ = ecx

; 976  : 	Vector	GetForward() const { return mat[0]; };

	push	ebp
	mov	ebp, esp
	sub	esp, 80					; 00000050H
	push	ebx
	push	esi
	push	edi
	mov	DWORD PTR _this$[ebp], ecx
	lea	eax, DWORD PTR $T1[ebp]
	push	eax
	mov	ecx, 16					; 00000010H
	imul	ecx, ecx, 0
	add	ecx, DWORD PTR _this$[ebp]
	call	??BVector4D@@QBE?BVVector@@XZ		; Vector4D::operator Vector const 
	lea	edx, DWORD PTR $T1[ebp]
	push	edx
	mov	ecx, DWORD PTR ___$ReturnUdt$[ebp]
	call	??0Vector@@QAE@ABV0@@Z			; Vector::Vector
	mov	eax, DWORD PTR ___$ReturnUdt$[ebp]
	pop	edi
	pop	esi
	pop	ebx
	mov	esp, ebp
	pop	ebp
	ret	4
?GetForward@matrix4x4@@QBE?AVVector@@XZ ENDP		; matrix4x4::GetForward
_TEXT	ENDS
; Function compile flags: /Odtp /ZI
; File d:\!diffusion 2020\source code 2022\client-server\game_shared\matrix.h
;	COMDAT ??0matrix4x4@@QAE@ABVVector@@0M@Z
_TEXT	SEGMENT
tv1056 = -100						; size = 4
tv1054 = -100						; size = 4
tv1052 = -100						; size = 4
tv1050 = -100						; size = 4
tv1048 = -100						; size = 4
tv1046 = -100						; size = 4
tv1044 = -100						; size = 4
tv1042 = -100						; size = 4
tv1040 = -100						; size = 4
tv1038 = -100						; size = 4
tv1036 = -100						; size = 4
tv1034 = -100						; size = 4
tv1032 = -100						; size = 4
tv1030 = -100						; size = 4
tv1028 = -100						; size = 4
tv1026 = -100						; size = 4
tv1024 = -100						; size = 4
tv1022 = -100						; size = 4
tv1020 = -100						; size = 4
tv1018 = -100						; size = 4
tv1016 = -100						; size = 4
_cy$ = -32						; size = 4
_cp$ = -28						; size = 4
_cr$ = -24						; size = 4
_sy$ = -20						; size = 4
_sp$ = -16						; size = 4
_sr$ = -12						; size = 4
_angle$ = -8						; size = 4
_this$ = -4						; size = 4
_origin$ = 8						; size = 4
_angles$ = 12						; size = 4
_scale$ = 16						; size = 4
??0matrix4x4@@QAE@ABVVector@@0M@Z PROC			; matrix4x4::matrix4x4, COMDAT
; _this$ = ecx

; 701  : 	_forceinline matrix4x4( const Vector &origin, const Vector &angles, float scale = 1.0f )

	push	ebp
	mov	ebp, esp
	sub	esp, 100				; 00000064H
	push	ebx
	push	esi
	push	edi
	mov	DWORD PTR _this$[ebp], ecx

; 702  : 	{

	push	OFFSET ??0Vector4D@@QAE@XZ		; Vector4D::Vector4D
	push	4
	push	16					; 00000010H
	mov	eax, DWORD PTR _this$[ebp]
	push	eax
	call	??_H@YGXPAXIIP6EPAX0@Z@Z

; 703  : 		float	angle, sr, sp, sy, cr, cp, cy;
; 704  : 
; 705  : 		if( angles[ROLL] )

	mov	ecx, DWORD PTR _angles$[ebp]
	call	??BVector@@QBEPBMXZ			; Vector::operator float const *
	mov	ecx, 4
	shl	ecx, 1
	movss	xmm0, DWORD PTR [eax+ecx]
	ucomiss	xmm0, DWORD PTR __real@00000000
	lahf
	test	ah, 68					; 00000044H
	jnp	$LN2@matrix4x4

; 706  : 		{
; 707  : 			angle = angles[YAW] * (M_PI*2 / 360);

	mov	ecx, DWORD PTR _angles$[ebp]
	call	??BVector@@QBEPBMXZ			; Vector::operator float const *
	mov	ecx, 4
	shl	ecx, 0
	cvtss2sd xmm0, DWORD PTR [eax+ecx]
	mulsd	xmm0, QWORD PTR __real@3f91df46a2529d39
	cvtsd2ss xmm0, xmm0
	movss	DWORD PTR _angle$[ebp], xmm0

; 708  : 			SinCos( angle, &sy, &cy );

	lea	eax, DWORD PTR _cy$[ebp]
	push	eax
	lea	ecx, DWORD PTR _sy$[ebp]
	push	ecx
	push	ecx
	movss	xmm0, DWORD PTR _angle$[ebp]
	movss	DWORD PTR [esp], xmm0
	call	?SinCos@@YAXMPAM0@Z			; SinCos
	add	esp, 12					; 0000000cH

; 709  : 			angle = angles[PITCH] * (M_PI*2 / 360);

	mov	ecx, DWORD PTR _angles$[ebp]
	call	??BVector@@QBEPBMXZ			; Vector::operator float const *
	mov	ecx, 4
	imul	edx, ecx, 0
	cvtss2sd xmm0, DWORD PTR [eax+edx]
	mulsd	xmm0, QWORD PTR __real@3f91df46a2529d39
	cvtsd2ss xmm0, xmm0
	movss	DWORD PTR _angle$[ebp], xmm0

; 710  : 			SinCos( angle, &sp, &cp );

	lea	eax, DWORD PTR _cp$[ebp]
	push	eax
	lea	ecx, DWORD PTR _sp$[ebp]
	push	ecx
	push	ecx
	movss	xmm0, DWORD PTR _angle$[ebp]
	movss	DWORD PTR [esp], xmm0
	call	?SinCos@@YAXMPAM0@Z			; SinCos
	add	esp, 12					; 0000000cH

; 711  : 			angle = angles[ROLL] * (M_PI*2 / 360);

	mov	ecx, DWORD PTR _angles$[ebp]
	call	??BVector@@QBEPBMXZ			; Vector::operator float const *
	mov	ecx, 4
	shl	ecx, 1
	cvtss2sd xmm0, DWORD PTR [eax+ecx]
	mulsd	xmm0, QWORD PTR __real@3f91df46a2529d39
	cvtsd2ss xmm0, xmm0
	movss	DWORD PTR _angle$[ebp], xmm0

; 712  : 			SinCos( angle, &sr, &cr );

	lea	eax, DWORD PTR _cr$[ebp]
	push	eax
	lea	ecx, DWORD PTR _sr$[ebp]
	push	ecx
	push	ecx
	movss	xmm0, DWORD PTR _angle$[ebp]
	movss	DWORD PTR [esp], xmm0
	call	?SinCos@@YAXMPAM0@Z			; SinCos
	add	esp, 12					; 0000000cH

; 713  : 
; 714  : 			mat[0][0] = (cp*cy) * scale;

	movss	xmm0, DWORD PTR _cp$[ebp]
	mulss	xmm0, DWORD PTR _cy$[ebp]
	mulss	xmm0, DWORD PTR _scale$[ebp]
	mov	eax, 16					; 00000010H
	imul	ecx, eax, 0
	add	ecx, DWORD PTR _this$[ebp]
	movss	DWORD PTR tv1016[ebp], xmm0
	call	??BVector4D@@QAEPAMXZ			; Vector4D::operator float *
	mov	ecx, 4
	imul	edx, ecx, 0
	movss	xmm0, DWORD PTR tv1016[ebp]
	movss	DWORD PTR [eax+edx], xmm0

; 715  : 			mat[1][0] = (sr*sp*cy+cr*-sy) * scale;

	movss	xmm0, DWORD PTR _sr$[ebp]
	mulss	xmm0, DWORD PTR _sp$[ebp]
	mulss	xmm0, DWORD PTR _cy$[ebp]
	movss	xmm1, DWORD PTR _sy$[ebp]
	xorps	xmm1, DWORD PTR __xmm@80000000800000008000000080000000
	mulss	xmm1, DWORD PTR _cr$[ebp]
	addss	xmm0, xmm1
	mulss	xmm0, DWORD PTR _scale$[ebp]
	mov	ecx, 16					; 00000010H
	shl	ecx, 0
	add	ecx, DWORD PTR _this$[ebp]
	movss	DWORD PTR tv1018[ebp], xmm0
	call	??BVector4D@@QAEPAMXZ			; Vector4D::operator float *
	mov	ecx, 4
	imul	edx, ecx, 0
	movss	xmm0, DWORD PTR tv1018[ebp]
	movss	DWORD PTR [eax+edx], xmm0

; 716  : 			mat[2][0] = (cr*sp*cy+-sr*-sy) * scale;

	movss	xmm0, DWORD PTR _cr$[ebp]
	mulss	xmm0, DWORD PTR _sp$[ebp]
	mulss	xmm0, DWORD PTR _cy$[ebp]
	movss	xmm1, DWORD PTR _sr$[ebp]
	xorps	xmm1, DWORD PTR __xmm@80000000800000008000000080000000
	movss	xmm2, DWORD PTR _sy$[ebp]
	xorps	xmm2, DWORD PTR __xmm@80000000800000008000000080000000
	mulss	xmm1, xmm2
	addss	xmm0, xmm1
	mulss	xmm0, DWORD PTR _scale$[ebp]
	mov	ecx, 16					; 00000010H
	shl	ecx, 1
	add	ecx, DWORD PTR _this$[ebp]
	movss	DWORD PTR tv1020[ebp], xmm0
	call	??BVector4D@@QAEPAMXZ			; Vector4D::operator float *
	mov	ecx, 4
	imul	edx, ecx, 0
	movss	xmm0, DWORD PTR tv1020[ebp]
	movss	DWORD PTR [eax+edx], xmm0

; 717  : 			mat[3][0] = origin.x;

	mov	eax, 16					; 00000010H
	imul	ecx, eax, 3
	add	ecx, DWORD PTR _this$[ebp]
	call	??BVector4D@@QAEPAMXZ			; Vector4D::operator float *
	mov	ecx, 4
	imul	edx, ecx, 0
	mov	ecx, DWORD PTR _origin$[ebp]
	mov	ecx, DWORD PTR [ecx]
	mov	DWORD PTR [eax+edx], ecx

; 718  : 			mat[0][1] = (cp*sy) * scale;

	movss	xmm0, DWORD PTR _cp$[ebp]
	mulss	xmm0, DWORD PTR _sy$[ebp]
	mulss	xmm0, DWORD PTR _scale$[ebp]
	mov	eax, 16					; 00000010H
	imul	ecx, eax, 0
	add	ecx, DWORD PTR _this$[ebp]
	movss	DWORD PTR tv1022[ebp], xmm0
	call	??BVector4D@@QAEPAMXZ			; Vector4D::operator float *
	mov	ecx, 4
	shl	ecx, 0
	movss	xmm0, DWORD PTR tv1022[ebp]
	movss	DWORD PTR [eax+ecx], xmm0

; 719  : 			mat[1][1] = (sr*sp*sy+cr*cy) * scale;

	movss	xmm0, DWORD PTR _sr$[ebp]
	mulss	xmm0, DWORD PTR _sp$[ebp]
	mulss	xmm0, DWORD PTR _sy$[ebp]
	movss	xmm1, DWORD PTR _cr$[ebp]
	mulss	xmm1, DWORD PTR _cy$[ebp]
	addss	xmm0, xmm1
	mulss	xmm0, DWORD PTR _scale$[ebp]
	mov	ecx, 16					; 00000010H
	shl	ecx, 0
	add	ecx, DWORD PTR _this$[ebp]
	movss	DWORD PTR tv1024[ebp], xmm0
	call	??BVector4D@@QAEPAMXZ			; Vector4D::operator float *
	mov	ecx, 4
	shl	ecx, 0
	movss	xmm0, DWORD PTR tv1024[ebp]
	movss	DWORD PTR [eax+ecx], xmm0

; 720  : 			mat[2][1] = (cr*sp*sy+-sr*cy) * scale;

	movss	xmm0, DWORD PTR _cr$[ebp]
	mulss	xmm0, DWORD PTR _sp$[ebp]
	mulss	xmm0, DWORD PTR _sy$[ebp]
	movss	xmm1, DWORD PTR _sr$[ebp]
	xorps	xmm1, DWORD PTR __xmm@80000000800000008000000080000000
	mulss	xmm1, DWORD PTR _cy$[ebp]
	addss	xmm0, xmm1
	mulss	xmm0, DWORD PTR _scale$[ebp]
	mov	ecx, 16					; 00000010H
	shl	ecx, 1
	add	ecx, DWORD PTR _this$[ebp]
	movss	DWORD PTR tv1026[ebp], xmm0
	call	??BVector4D@@QAEPAMXZ			; Vector4D::operator float *
	mov	ecx, 4
	shl	ecx, 0
	movss	xmm0, DWORD PTR tv1026[ebp]
	movss	DWORD PTR [eax+ecx], xmm0

; 721  : 			mat[3][1] = origin.y;

	mov	eax, 16					; 00000010H
	imul	ecx, eax, 3
	add	ecx, DWORD PTR _this$[ebp]
	call	??BVector4D@@QAEPAMXZ			; Vector4D::operator float *
	mov	ecx, 4
	shl	ecx, 0
	mov	edx, DWORD PTR _origin$[ebp]
	mov	edx, DWORD PTR [edx+4]
	mov	DWORD PTR [eax+ecx], edx

; 722  : 			mat[0][2] = (-sp) * scale;

	movss	xmm0, DWORD PTR _sp$[ebp]
	xorps	xmm0, DWORD PTR __xmm@80000000800000008000000080000000
	mulss	xmm0, DWORD PTR _scale$[ebp]
	mov	eax, 16					; 00000010H
	imul	ecx, eax, 0
	add	ecx, DWORD PTR _this$[ebp]
	movss	DWORD PTR tv1028[ebp], xmm0
	call	??BVector4D@@QAEPAMXZ			; Vector4D::operator float *
	mov	ecx, 4
	shl	ecx, 1
	movss	xmm0, DWORD PTR tv1028[ebp]
	movss	DWORD PTR [eax+ecx], xmm0

; 723  : 			mat[1][2] = (sr*cp) * scale;

	movss	xmm0, DWORD PTR _sr$[ebp]
	mulss	xmm0, DWORD PTR _cp$[ebp]
	mulss	xmm0, DWORD PTR _scale$[ebp]
	mov	ecx, 16					; 00000010H
	shl	ecx, 0
	add	ecx, DWORD PTR _this$[ebp]
	movss	DWORD PTR tv1030[ebp], xmm0
	call	??BVector4D@@QAEPAMXZ			; Vector4D::operator float *
	mov	ecx, 4
	shl	ecx, 1
	movss	xmm0, DWORD PTR tv1030[ebp]
	movss	DWORD PTR [eax+ecx], xmm0

; 724  : 			mat[2][2] = (cr*cp) * scale;

	movss	xmm0, DWORD PTR _cr$[ebp]
	mulss	xmm0, DWORD PTR _cp$[ebp]
	mulss	xmm0, DWORD PTR _scale$[ebp]
	mov	ecx, 16					; 00000010H
	shl	ecx, 1
	add	ecx, DWORD PTR _this$[ebp]
	movss	DWORD PTR tv1032[ebp], xmm0
	call	??BVector4D@@QAEPAMXZ			; Vector4D::operator float *
	mov	ecx, 4
	shl	ecx, 1
	movss	xmm0, DWORD PTR tv1032[ebp]
	movss	DWORD PTR [eax+ecx], xmm0

; 725  : 			mat[3][2] = origin.z;

	mov	eax, 16					; 00000010H
	imul	ecx, eax, 3
	add	ecx, DWORD PTR _this$[ebp]
	call	??BVector4D@@QAEPAMXZ			; Vector4D::operator float *
	mov	ecx, 4
	shl	ecx, 1
	mov	edx, DWORD PTR _origin$[ebp]
	mov	edx, DWORD PTR [edx+8]
	mov	DWORD PTR [eax+ecx], edx

; 726  : 			mat[0][3] = 0;

	mov	eax, 16					; 00000010H
	imul	ecx, eax, 0
	add	ecx, DWORD PTR _this$[ebp]
	call	??BVector4D@@QAEPAMXZ			; Vector4D::operator float *
	mov	ecx, 4
	imul	edx, ecx, 3
	xorps	xmm0, xmm0
	movss	DWORD PTR [eax+edx], xmm0

; 727  : 			mat[1][3] = 0;

	mov	ecx, 16					; 00000010H
	shl	ecx, 0
	add	ecx, DWORD PTR _this$[ebp]
	call	??BVector4D@@QAEPAMXZ			; Vector4D::operator float *
	mov	ecx, 4
	imul	edx, ecx, 3
	xorps	xmm0, xmm0
	movss	DWORD PTR [eax+edx], xmm0

; 728  : 			mat[2][3] = 0;

	mov	ecx, 16					; 00000010H
	shl	ecx, 1
	add	ecx, DWORD PTR _this$[ebp]
	call	??BVector4D@@QAEPAMXZ			; Vector4D::operator float *
	mov	ecx, 4
	imul	edx, ecx, 3
	xorps	xmm0, xmm0
	movss	DWORD PTR [eax+edx], xmm0

; 729  : 			mat[3][3] = 1;

	mov	eax, 16					; 00000010H
	imul	ecx, eax, 3
	add	ecx, DWORD PTR _this$[ebp]
	call	??BVector4D@@QAEPAMXZ			; Vector4D::operator float *
	mov	ecx, 4
	imul	edx, ecx, 3
	movss	xmm0, DWORD PTR __real@3f800000
	movss	DWORD PTR [eax+edx], xmm0
	jmp	$LN7@matrix4x4
$LN2@matrix4x4:

; 730  : 		}
; 731  : 		else if( angles[PITCH] )

	mov	ecx, DWORD PTR _angles$[ebp]
	call	??BVector@@QBEPBMXZ			; Vector::operator float const *
	mov	ecx, 4
	imul	edx, ecx, 0
	movss	xmm0, DWORD PTR [eax+edx]
	ucomiss	xmm0, DWORD PTR __real@00000000
	lahf
	test	ah, 68					; 00000044H
	jnp	$LN4@matrix4x4

; 732  : 		{
; 733  : 			angle = angles[YAW] * (M_PI*2 / 360);

	mov	ecx, DWORD PTR _angles$[ebp]
	call	??BVector@@QBEPBMXZ			; Vector::operator float const *
	mov	ecx, 4
	shl	ecx, 0
	cvtss2sd xmm0, DWORD PTR [eax+ecx]
	mulsd	xmm0, QWORD PTR __real@3f91df46a2529d39
	cvtsd2ss xmm0, xmm0
	movss	DWORD PTR _angle$[ebp], xmm0

; 734  : 			SinCos( angle, &sy, &cy );

	lea	eax, DWORD PTR _cy$[ebp]
	push	eax
	lea	ecx, DWORD PTR _sy$[ebp]
	push	ecx
	push	ecx
	movss	xmm0, DWORD PTR _angle$[ebp]
	movss	DWORD PTR [esp], xmm0
	call	?SinCos@@YAXMPAM0@Z			; SinCos
	add	esp, 12					; 0000000cH

; 735  : 			angle = angles[PITCH] * (M_PI*2 / 360);

	mov	ecx, DWORD PTR _angles$[ebp]
	call	??BVector@@QBEPBMXZ			; Vector::operator float const *
	mov	ecx, 4
	imul	edx, ecx, 0
	cvtss2sd xmm0, DWORD PTR [eax+edx]
	mulsd	xmm0, QWORD PTR __real@3f91df46a2529d39
	cvtsd2ss xmm0, xmm0
	movss	DWORD PTR _angle$[ebp], xmm0

; 736  : 			SinCos( angle, &sp, &cp );

	lea	eax, DWORD PTR _cp$[ebp]
	push	eax
	lea	ecx, DWORD PTR _sp$[ebp]
	push	ecx
	push	ecx
	movss	xmm0, DWORD PTR _angle$[ebp]
	movss	DWORD PTR [esp], xmm0
	call	?SinCos@@YAXMPAM0@Z			; SinCos
	add	esp, 12					; 0000000cH

; 737  : 
; 738  : 			mat[0][0] = (cp*cy) * scale;

	movss	xmm0, DWORD PTR _cp$[ebp]
	mulss	xmm0, DWORD PTR _cy$[ebp]
	mulss	xmm0, DWORD PTR _scale$[ebp]
	mov	eax, 16					; 00000010H
	imul	ecx, eax, 0
	add	ecx, DWORD PTR _this$[ebp]
	movss	DWORD PTR tv1034[ebp], xmm0
	call	??BVector4D@@QAEPAMXZ			; Vector4D::operator float *
	mov	ecx, 4
	imul	edx, ecx, 0
	movss	xmm0, DWORD PTR tv1034[ebp]
	movss	DWORD PTR [eax+edx], xmm0

; 739  : 			mat[1][0] = (-sy) * scale;

	movss	xmm0, DWORD PTR _sy$[ebp]
	xorps	xmm0, DWORD PTR __xmm@80000000800000008000000080000000
	mulss	xmm0, DWORD PTR _scale$[ebp]
	mov	ecx, 16					; 00000010H
	shl	ecx, 0
	add	ecx, DWORD PTR _this$[ebp]
	movss	DWORD PTR tv1036[ebp], xmm0
	call	??BVector4D@@QAEPAMXZ			; Vector4D::operator float *
	mov	ecx, 4
	imul	edx, ecx, 0
	movss	xmm0, DWORD PTR tv1036[ebp]
	movss	DWORD PTR [eax+edx], xmm0

; 740  : 			mat[2][0] = (sp*cy) * scale;

	movss	xmm0, DWORD PTR _sp$[ebp]
	mulss	xmm0, DWORD PTR _cy$[ebp]
	mulss	xmm0, DWORD PTR _scale$[ebp]
	mov	ecx, 16					; 00000010H
	shl	ecx, 1
	add	ecx, DWORD PTR _this$[ebp]
	movss	DWORD PTR tv1038[ebp], xmm0
	call	??BVector4D@@QAEPAMXZ			; Vector4D::operator float *
	mov	ecx, 4
	imul	edx, ecx, 0
	movss	xmm0, DWORD PTR tv1038[ebp]
	movss	DWORD PTR [eax+edx], xmm0

; 741  : 			mat[3][0] = origin.x;

	mov	eax, 16					; 00000010H
	imul	ecx, eax, 3
	add	ecx, DWORD PTR _this$[ebp]
	call	??BVector4D@@QAEPAMXZ			; Vector4D::operator float *
	mov	ecx, 4
	imul	edx, ecx, 0
	mov	ecx, DWORD PTR _origin$[ebp]
	mov	ecx, DWORD PTR [ecx]
	mov	DWORD PTR [eax+edx], ecx

; 742  : 			mat[0][1] = (cp*sy) * scale;

	movss	xmm0, DWORD PTR _cp$[ebp]
	mulss	xmm0, DWORD PTR _sy$[ebp]
	mulss	xmm0, DWORD PTR _scale$[ebp]
	mov	eax, 16					; 00000010H
	imul	ecx, eax, 0
	add	ecx, DWORD PTR _this$[ebp]
	movss	DWORD PTR tv1040[ebp], xmm0
	call	??BVector4D@@QAEPAMXZ			; Vector4D::operator float *
	mov	ecx, 4
	shl	ecx, 0
	movss	xmm0, DWORD PTR tv1040[ebp]
	movss	DWORD PTR [eax+ecx], xmm0

; 743  : 			mat[1][1] = (cy) * scale;

	movss	xmm0, DWORD PTR _cy$[ebp]
	mulss	xmm0, DWORD PTR _scale$[ebp]
	mov	ecx, 16					; 00000010H
	shl	ecx, 0
	add	ecx, DWORD PTR _this$[ebp]
	movss	DWORD PTR tv1042[ebp], xmm0
	call	??BVector4D@@QAEPAMXZ			; Vector4D::operator float *
	mov	ecx, 4
	shl	ecx, 0
	movss	xmm0, DWORD PTR tv1042[ebp]
	movss	DWORD PTR [eax+ecx], xmm0

; 744  : 			mat[2][1] = (sp*sy) * scale;

	movss	xmm0, DWORD PTR _sp$[ebp]
	mulss	xmm0, DWORD PTR _sy$[ebp]
	mulss	xmm0, DWORD PTR _scale$[ebp]
	mov	ecx, 16					; 00000010H
	shl	ecx, 1
	add	ecx, DWORD PTR _this$[ebp]
	movss	DWORD PTR tv1044[ebp], xmm0
	call	??BVector4D@@QAEPAMXZ			; Vector4D::operator float *
	mov	ecx, 4
	shl	ecx, 0
	movss	xmm0, DWORD PTR tv1044[ebp]
	movss	DWORD PTR [eax+ecx], xmm0

; 745  : 			mat[3][1] = origin.y;

	mov	eax, 16					; 00000010H
	imul	ecx, eax, 3
	add	ecx, DWORD PTR _this$[ebp]
	call	??BVector4D@@QAEPAMXZ			; Vector4D::operator float *
	mov	ecx, 4
	shl	ecx, 0
	mov	edx, DWORD PTR _origin$[ebp]
	mov	edx, DWORD PTR [edx+4]
	mov	DWORD PTR [eax+ecx], edx

; 746  : 			mat[0][2] = (-sp) * scale;

	movss	xmm0, DWORD PTR _sp$[ebp]
	xorps	xmm0, DWORD PTR __xmm@80000000800000008000000080000000
	mulss	xmm0, DWORD PTR _scale$[ebp]
	mov	eax, 16					; 00000010H
	imul	ecx, eax, 0
	add	ecx, DWORD PTR _this$[ebp]
	movss	DWORD PTR tv1046[ebp], xmm0
	call	??BVector4D@@QAEPAMXZ			; Vector4D::operator float *
	mov	ecx, 4
	shl	ecx, 1
	movss	xmm0, DWORD PTR tv1046[ebp]
	movss	DWORD PTR [eax+ecx], xmm0

; 747  : 			mat[1][2] = 0;

	mov	ecx, 16					; 00000010H
	shl	ecx, 0
	add	ecx, DWORD PTR _this$[ebp]
	call	??BVector4D@@QAEPAMXZ			; Vector4D::operator float *
	mov	ecx, 4
	shl	ecx, 1
	xorps	xmm0, xmm0
	movss	DWORD PTR [eax+ecx], xmm0

; 748  : 			mat[2][2] = (cp) * scale;

	movss	xmm0, DWORD PTR _cp$[ebp]
	mulss	xmm0, DWORD PTR _scale$[ebp]
	mov	ecx, 16					; 00000010H
	shl	ecx, 1
	add	ecx, DWORD PTR _this$[ebp]
	movss	DWORD PTR tv1048[ebp], xmm0
	call	??BVector4D@@QAEPAMXZ			; Vector4D::operator float *
	mov	ecx, 4
	shl	ecx, 1
	movss	xmm0, DWORD PTR tv1048[ebp]
	movss	DWORD PTR [eax+ecx], xmm0

; 749  : 			mat[3][2] = origin.z;

	mov	eax, 16					; 00000010H
	imul	ecx, eax, 3
	add	ecx, DWORD PTR _this$[ebp]
	call	??BVector4D@@QAEPAMXZ			; Vector4D::operator float *
	mov	ecx, 4
	shl	ecx, 1
	mov	edx, DWORD PTR _origin$[ebp]
	mov	edx, DWORD PTR [edx+8]
	mov	DWORD PTR [eax+ecx], edx

; 750  : 			mat[0][3] = 0;

	mov	eax, 16					; 00000010H
	imul	ecx, eax, 0
	add	ecx, DWORD PTR _this$[ebp]
	call	??BVector4D@@QAEPAMXZ			; Vector4D::operator float *
	mov	ecx, 4
	imul	edx, ecx, 3
	xorps	xmm0, xmm0
	movss	DWORD PTR [eax+edx], xmm0

; 751  : 			mat[1][3] = 0;

	mov	ecx, 16					; 00000010H
	shl	ecx, 0
	add	ecx, DWORD PTR _this$[ebp]
	call	??BVector4D@@QAEPAMXZ			; Vector4D::operator float *
	mov	ecx, 4
	imul	edx, ecx, 3
	xorps	xmm0, xmm0
	movss	DWORD PTR [eax+edx], xmm0

; 752  : 			mat[2][3] = 0;

	mov	ecx, 16					; 00000010H
	shl	ecx, 1
	add	ecx, DWORD PTR _this$[ebp]
	call	??BVector4D@@QAEPAMXZ			; Vector4D::operator float *
	mov	ecx, 4
	imul	edx, ecx, 3
	xorps	xmm0, xmm0
	movss	DWORD PTR [eax+edx], xmm0

; 753  : 			mat[3][3] = 1;

	mov	eax, 16					; 00000010H
	imul	ecx, eax, 3
	add	ecx, DWORD PTR _this$[ebp]
	call	??BVector4D@@QAEPAMXZ			; Vector4D::operator float *
	mov	ecx, 4
	imul	edx, ecx, 3
	movss	xmm0, DWORD PTR __real@3f800000
	movss	DWORD PTR [eax+edx], xmm0
	jmp	$LN7@matrix4x4
$LN4@matrix4x4:

; 754  : 		}
; 755  : 		else if( angles[YAW] )

	mov	ecx, DWORD PTR _angles$[ebp]
	call	??BVector@@QBEPBMXZ			; Vector::operator float const *
	mov	ecx, 4
	shl	ecx, 0
	movss	xmm0, DWORD PTR [eax+ecx]
	ucomiss	xmm0, DWORD PTR __real@00000000
	lahf
	test	ah, 68					; 00000044H
	jnp	$LN6@matrix4x4

; 756  : 		{
; 757  : 			angle = angles[YAW] * (M_PI*2 / 360);

	mov	ecx, DWORD PTR _angles$[ebp]
	call	??BVector@@QBEPBMXZ			; Vector::operator float const *
	mov	ecx, 4
	shl	ecx, 0
	cvtss2sd xmm0, DWORD PTR [eax+ecx]
	mulsd	xmm0, QWORD PTR __real@3f91df46a2529d39
	cvtsd2ss xmm0, xmm0
	movss	DWORD PTR _angle$[ebp], xmm0

; 758  : 			SinCos( angle, &sy, &cy );

	lea	eax, DWORD PTR _cy$[ebp]
	push	eax
	lea	ecx, DWORD PTR _sy$[ebp]
	push	ecx
	push	ecx
	movss	xmm0, DWORD PTR _angle$[ebp]
	movss	DWORD PTR [esp], xmm0
	call	?SinCos@@YAXMPAM0@Z			; SinCos
	add	esp, 12					; 0000000cH

; 759  : 
; 760  : 			mat[0][0] = (cy) * scale;

	movss	xmm0, DWORD PTR _cy$[ebp]
	mulss	xmm0, DWORD PTR _scale$[ebp]
	mov	eax, 16					; 00000010H
	imul	ecx, eax, 0
	add	ecx, DWORD PTR _this$[ebp]
	movss	DWORD PTR tv1050[ebp], xmm0
	call	??BVector4D@@QAEPAMXZ			; Vector4D::operator float *
	mov	ecx, 4
	imul	edx, ecx, 0
	movss	xmm0, DWORD PTR tv1050[ebp]
	movss	DWORD PTR [eax+edx], xmm0

; 761  : 			mat[1][0] = (-sy) * scale;

	movss	xmm0, DWORD PTR _sy$[ebp]
	xorps	xmm0, DWORD PTR __xmm@80000000800000008000000080000000
	mulss	xmm0, DWORD PTR _scale$[ebp]
	mov	ecx, 16					; 00000010H
	shl	ecx, 0
	add	ecx, DWORD PTR _this$[ebp]
	movss	DWORD PTR tv1052[ebp], xmm0
	call	??BVector4D@@QAEPAMXZ			; Vector4D::operator float *
	mov	ecx, 4
	imul	edx, ecx, 0
	movss	xmm0, DWORD PTR tv1052[ebp]
	movss	DWORD PTR [eax+edx], xmm0

; 762  : 			mat[2][0] = 0;

	mov	ecx, 16					; 00000010H
	shl	ecx, 1
	add	ecx, DWORD PTR _this$[ebp]
	call	??BVector4D@@QAEPAMXZ			; Vector4D::operator float *
	mov	ecx, 4
	imul	edx, ecx, 0
	xorps	xmm0, xmm0
	movss	DWORD PTR [eax+edx], xmm0

; 763  : 			mat[3][0] = origin.x;

	mov	eax, 16					; 00000010H
	imul	ecx, eax, 3
	add	ecx, DWORD PTR _this$[ebp]
	call	??BVector4D@@QAEPAMXZ			; Vector4D::operator float *
	mov	ecx, 4
	imul	edx, ecx, 0
	mov	ecx, DWORD PTR _origin$[ebp]
	mov	ecx, DWORD PTR [ecx]
	mov	DWORD PTR [eax+edx], ecx

; 764  : 			mat[0][1] = (sy) * scale;

	movss	xmm0, DWORD PTR _sy$[ebp]
	mulss	xmm0, DWORD PTR _scale$[ebp]
	mov	eax, 16					; 00000010H
	imul	ecx, eax, 0
	add	ecx, DWORD PTR _this$[ebp]
	movss	DWORD PTR tv1054[ebp], xmm0
	call	??BVector4D@@QAEPAMXZ			; Vector4D::operator float *
	mov	ecx, 4
	shl	ecx, 0
	movss	xmm0, DWORD PTR tv1054[ebp]
	movss	DWORD PTR [eax+ecx], xmm0

; 765  : 			mat[1][1] = (cy) * scale;

	movss	xmm0, DWORD PTR _cy$[ebp]
	mulss	xmm0, DWORD PTR _scale$[ebp]
	mov	ecx, 16					; 00000010H
	shl	ecx, 0
	add	ecx, DWORD PTR _this$[ebp]
	movss	DWORD PTR tv1056[ebp], xmm0
	call	??BVector4D@@QAEPAMXZ			; Vector4D::operator float *
	mov	ecx, 4
	shl	ecx, 0
	movss	xmm0, DWORD PTR tv1056[ebp]
	movss	DWORD PTR [eax+ecx], xmm0

; 766  : 			mat[2][1] = 0;

	mov	ecx, 16					; 00000010H
	shl	ecx, 1
	add	ecx, DWORD PTR _this$[ebp]
	call	??BVector4D@@QAEPAMXZ			; Vector4D::operator float *
	mov	ecx, 4
	shl	ecx, 0
	xorps	xmm0, xmm0
	movss	DWORD PTR [eax+ecx], xmm0

; 767  : 			mat[3][1] = origin.y;

	mov	eax, 16					; 00000010H
	imul	ecx, eax, 3
	add	ecx, DWORD PTR _this$[ebp]
	call	??BVector4D@@QAEPAMXZ			; Vector4D::operator float *
	mov	ecx, 4
	shl	ecx, 0
	mov	edx, DWORD PTR _origin$[ebp]
	mov	edx, DWORD PTR [edx+4]
	mov	DWORD PTR [eax+ecx], edx

; 768  : 			mat[0][2] = 0;

	mov	eax, 16					; 00000010H
	imul	ecx, eax, 0
	add	ecx, DWORD PTR _this$[ebp]
	call	??BVector4D@@QAEPAMXZ			; Vector4D::operator float *
	mov	ecx, 4
	shl	ecx, 1
	xorps	xmm0, xmm0
	movss	DWORD PTR [eax+ecx], xmm0

; 769  : 			mat[1][2] = 0;

	mov	ecx, 16					; 00000010H
	shl	ecx, 0
	add	ecx, DWORD PTR _this$[ebp]
	call	??BVector4D@@QAEPAMXZ			; Vector4D::operator float *
	mov	ecx, 4
	shl	ecx, 1
	xorps	xmm0, xmm0
	movss	DWORD PTR [eax+ecx], xmm0

; 770  : 			mat[2][2] = scale;

	mov	ecx, 16					; 00000010H
	shl	ecx, 1
	add	ecx, DWORD PTR _this$[ebp]
	call	??BVector4D@@QAEPAMXZ			; Vector4D::operator float *
	mov	ecx, 4
	shl	ecx, 1
	movss	xmm0, DWORD PTR _scale$[ebp]
	movss	DWORD PTR [eax+ecx], xmm0

; 771  : 			mat[3][2] = origin.z;

	mov	eax, 16					; 00000010H
	imul	ecx, eax, 3
	add	ecx, DWORD PTR _this$[ebp]
	call	??BVector4D@@QAEPAMXZ			; Vector4D::operator float *
	mov	ecx, 4
	shl	ecx, 1
	mov	edx, DWORD PTR _origin$[ebp]
	mov	edx, DWORD PTR [edx+8]
	mov	DWORD PTR [eax+ecx], edx

; 772  : 			mat[0][3] = 0;

	mov	eax, 16					; 00000010H
	imul	ecx, eax, 0
	add	ecx, DWORD PTR _this$[ebp]
	call	??BVector4D@@QAEPAMXZ			; Vector4D::operator float *
	mov	ecx, 4
	imul	edx, ecx, 3
	xorps	xmm0, xmm0
	movss	DWORD PTR [eax+edx], xmm0

; 773  : 			mat[1][3] = 0;

	mov	ecx, 16					; 00000010H
	shl	ecx, 0
	add	ecx, DWORD PTR _this$[ebp]
	call	??BVector4D@@QAEPAMXZ			; Vector4D::operator float *
	mov	ecx, 4
	imul	edx, ecx, 3
	xorps	xmm0, xmm0
	movss	DWORD PTR [eax+edx], xmm0

; 774  : 			mat[2][3] = 0;

	mov	ecx, 16					; 00000010H
	shl	ecx, 1
	add	ecx, DWORD PTR _this$[ebp]
	call	??BVector4D@@QAEPAMXZ			; Vector4D::operator float *
	mov	ecx, 4
	imul	edx, ecx, 3
	xorps	xmm0, xmm0
	movss	DWORD PTR [eax+edx], xmm0

; 775  : 			mat[3][3] = 1;

	mov	eax, 16					; 00000010H
	imul	ecx, eax, 3
	add	ecx, DWORD PTR _this$[ebp]
	call	??BVector4D@@QAEPAMXZ			; Vector4D::operator float *
	mov	ecx, 4
	imul	edx, ecx, 3
	movss	xmm0, DWORD PTR __real@3f800000
	movss	DWORD PTR [eax+edx], xmm0

; 776  : 		}
; 777  : 		else

	jmp	$LN7@matrix4x4
$LN6@matrix4x4:

; 778  : 		{
; 779  : 			mat[0][0] = scale;

	mov	eax, 16					; 00000010H
	imul	ecx, eax, 0
	add	ecx, DWORD PTR _this$[ebp]
	call	??BVector4D@@QAEPAMXZ			; Vector4D::operator float *
	mov	ecx, 4
	imul	edx, ecx, 0
	movss	xmm0, DWORD PTR _scale$[ebp]
	movss	DWORD PTR [eax+edx], xmm0

; 780  : 			mat[1][0] = 0;

	mov	ecx, 16					; 00000010H
	shl	ecx, 0
	add	ecx, DWORD PTR _this$[ebp]
	call	??BVector4D@@QAEPAMXZ			; Vector4D::operator float *
	mov	ecx, 4
	imul	edx, ecx, 0
	xorps	xmm0, xmm0
	movss	DWORD PTR [eax+edx], xmm0

; 781  : 			mat[2][0] = 0;

	mov	ecx, 16					; 00000010H
	shl	ecx, 1
	add	ecx, DWORD PTR _this$[ebp]
	call	??BVector4D@@QAEPAMXZ			; Vector4D::operator float *
	mov	ecx, 4
	imul	edx, ecx, 0
	xorps	xmm0, xmm0
	movss	DWORD PTR [eax+edx], xmm0

; 782  : 			mat[3][0] = origin.x;

	mov	eax, 16					; 00000010H
	imul	ecx, eax, 3
	add	ecx, DWORD PTR _this$[ebp]
	call	??BVector4D@@QAEPAMXZ			; Vector4D::operator float *
	mov	ecx, 4
	imul	edx, ecx, 0
	mov	ecx, DWORD PTR _origin$[ebp]
	mov	ecx, DWORD PTR [ecx]
	mov	DWORD PTR [eax+edx], ecx

; 783  : 			mat[0][1] = 0;

	mov	eax, 16					; 00000010H
	imul	ecx, eax, 0
	add	ecx, DWORD PTR _this$[ebp]
	call	??BVector4D@@QAEPAMXZ			; Vector4D::operator float *
	mov	ecx, 4
	shl	ecx, 0
	xorps	xmm0, xmm0
	movss	DWORD PTR [eax+ecx], xmm0

; 784  : 			mat[1][1] = scale;

	mov	ecx, 16					; 00000010H
	shl	ecx, 0
	add	ecx, DWORD PTR _this$[ebp]
	call	??BVector4D@@QAEPAMXZ			; Vector4D::operator float *
	mov	ecx, 4
	shl	ecx, 0
	movss	xmm0, DWORD PTR _scale$[ebp]
	movss	DWORD PTR [eax+ecx], xmm0

; 785  : 			mat[2][1] = 0;

	mov	ecx, 16					; 00000010H
	shl	ecx, 1
	add	ecx, DWORD PTR _this$[ebp]
	call	??BVector4D@@QAEPAMXZ			; Vector4D::operator float *
	mov	ecx, 4
	shl	ecx, 0
	xorps	xmm0, xmm0
	movss	DWORD PTR [eax+ecx], xmm0

; 786  : 			mat[3][1] = origin.y;

	mov	eax, 16					; 00000010H
	imul	ecx, eax, 3
	add	ecx, DWORD PTR _this$[ebp]
	call	??BVector4D@@QAEPAMXZ			; Vector4D::operator float *
	mov	ecx, 4
	shl	ecx, 0
	mov	edx, DWORD PTR _origin$[ebp]
	mov	edx, DWORD PTR [edx+4]
	mov	DWORD PTR [eax+ecx], edx

; 787  : 			mat[0][2] = 0;

	mov	eax, 16					; 00000010H
	imul	ecx, eax, 0
	add	ecx, DWORD PTR _this$[ebp]
	call	??BVector4D@@QAEPAMXZ			; Vector4D::operator float *
	mov	ecx, 4
	shl	ecx, 1
	xorps	xmm0, xmm0
	movss	DWORD PTR [eax+ecx], xmm0

; 788  : 			mat[1][2] = 0;

	mov	ecx, 16					; 00000010H
	shl	ecx, 0
	add	ecx, DWORD PTR _this$[ebp]
	call	??BVector4D@@QAEPAMXZ			; Vector4D::operator float *
	mov	ecx, 4
	shl	ecx, 1
	xorps	xmm0, xmm0
	movss	DWORD PTR [eax+ecx], xmm0

; 789  : 			mat[2][2] = scale;

	mov	ecx, 16					; 00000010H
	shl	ecx, 1
	add	ecx, DWORD PTR _this$[ebp]
	call	??BVector4D@@QAEPAMXZ			; Vector4D::operator float *
	mov	ecx, 4
	shl	ecx, 1
	movss	xmm0, DWORD PTR _scale$[ebp]
	movss	DWORD PTR [eax+ecx], xmm0

; 790  : 			mat[3][2] = origin.z;

	mov	eax, 16					; 00000010H
	imul	ecx, eax, 3
	add	ecx, DWORD PTR _this$[ebp]
	call	??BVector4D@@QAEPAMXZ			; Vector4D::operator float *
	mov	ecx, 4
	shl	ecx, 1
	mov	edx, DWORD PTR _origin$[ebp]
	mov	edx, DWORD PTR [edx+8]
	mov	DWORD PTR [eax+ecx], edx

; 791  : 			mat[0][3] = 0;

	mov	eax, 16					; 00000010H
	imul	ecx, eax, 0
	add	ecx, DWORD PTR _this$[ebp]
	call	??BVector4D@@QAEPAMXZ			; Vector4D::operator float *
	mov	ecx, 4
	imul	edx, ecx, 3
	xorps	xmm0, xmm0
	movss	DWORD PTR [eax+edx], xmm0

; 792  : 			mat[1][3] = 0;

	mov	ecx, 16					; 00000010H
	shl	ecx, 0
	add	ecx, DWORD PTR _this$[ebp]
	call	??BVector4D@@QAEPAMXZ			; Vector4D::operator float *
	mov	ecx, 4
	imul	edx, ecx, 3
	xorps	xmm0, xmm0
	movss	DWORD PTR [eax+edx], xmm0

; 793  : 			mat[2][3] = 0;

	mov	ecx, 16					; 00000010H
	shl	ecx, 1
	add	ecx, DWORD PTR _this$[ebp]
	call	??BVector4D@@QAEPAMXZ			; Vector4D::operator float *
	mov	ecx, 4
	imul	edx, ecx, 3
	xorps	xmm0, xmm0
	movss	DWORD PTR [eax+edx], xmm0

; 794  : 			mat[3][3] = 1;

	mov	eax, 16					; 00000010H
	imul	ecx, eax, 3
	add	ecx, DWORD PTR _this$[ebp]
	call	??BVector4D@@QAEPAMXZ			; Vector4D::operator float *
	mov	ecx, 4
	imul	edx, ecx, 3
	movss	xmm0, DWORD PTR __real@3f800000
	movss	DWORD PTR [eax+edx], xmm0
$LN7@matrix4x4:

; 795  : 		}
; 796  : 	}

	mov	eax, DWORD PTR _this$[ebp]
	pop	edi
	pop	esi
	pop	ebx
	mov	esp, ebp
	pop	ebp
	ret	12					; 0000000cH
??0matrix4x4@@QAE@ABVVector@@0M@Z ENDP			; matrix4x4::matrix4x4
_TEXT	ENDS
; Function compile flags: /Odtp /ZI
; File d:\!diffusion 2020\source code 2022\client-server\game_shared\matrix.h
;	COMDAT ?GetAngles@matrix3x3@@QAE?AVVector@@XZ
_TEXT	SEGMENT
tv370 = -96						; size = 4
tv368 = -96						; size = 4
tv366 = -96						; size = 4
tv364 = -96						; size = 4
tv362 = -96						; size = 4
tv350 = -92						; size = 8
tv334 = -92						; size = 8
tv321 = -92						; size = 8
tv306 = -92						; size = 8
tv291 = -92						; size = 8
tv360 = -88						; size = 4
_angles$ = -20						; size = 12
_xyDist$ = -8						; size = 4
_this$ = -4						; size = 4
___$ReturnUdt$ = 8					; size = 4
?GetAngles@matrix3x3@@QAE?AVVector@@XZ PROC		; matrix3x3::GetAngles, COMDAT
; _this$ = ecx

; 166  : 	{

	push	ebp
	mov	ebp, esp
	sub	esp, 96					; 00000060H
	push	ebx
	push	esi
	push	edi
	mov	DWORD PTR _this$[ebp], ecx

; 167  : 		float xyDist = sqrt( mat[0][0] * mat[0][0] + mat[0][1] * mat[0][1] );

	mov	eax, 12					; 0000000cH
	imul	ecx, eax, 0
	add	ecx, DWORD PTR _this$[ebp]
	call	??BVector@@QAEPAMXZ			; Vector::operator float *
	mov	esi, eax
	mov	ecx, 4
	imul	edi, ecx, 0
	mov	edx, 12					; 0000000cH
	imul	ecx, edx, 0
	add	ecx, DWORD PTR _this$[ebp]
	call	??BVector@@QAEPAMXZ			; Vector::operator float *
	mov	ecx, 4
	imul	edx, ecx, 0
	movss	xmm0, DWORD PTR [esi+edi]
	mulss	xmm0, DWORD PTR [eax+edx]
	mov	eax, 12					; 0000000cH
	imul	ecx, eax, 0
	add	ecx, DWORD PTR _this$[ebp]
	movss	DWORD PTR tv360[ebp], xmm0
	call	??BVector@@QAEPAMXZ			; Vector::operator float *
	mov	esi, eax
	mov	edi, 4
	shl	edi, 0
	mov	ecx, 12					; 0000000cH
	imul	ecx, ecx, 0
	add	ecx, DWORD PTR _this$[ebp]
	call	??BVector@@QAEPAMXZ			; Vector::operator float *
	mov	edx, 4
	shl	edx, 0
	movss	xmm0, DWORD PTR [esi+edi]
	mulss	xmm0, DWORD PTR [eax+edx]
	movss	xmm1, DWORD PTR tv360[ebp]
	addss	xmm1, xmm0
	cvtss2sd xmm0, xmm1
	sub	esp, 8
	movsd	QWORD PTR [esp], xmm0
	call	_sqrt
	add	esp, 8
	fstp	DWORD PTR _xyDist$[ebp]

; 168  : 		Vector angles;

	lea	ecx, DWORD PTR _angles$[ebp]
	call	??0Vector@@QAE@XZ			; Vector::Vector

; 169  : 
; 170  : 		// enough here to get angles?
; 171  : 		if( xyDist > 0.001f )

	movss	xmm0, DWORD PTR _xyDist$[ebp]
	comiss	xmm0, DWORD PTR __real@3a83126f
	jbe	$LN2@GetAngles

; 172  : 		{
; 173  : 			angles[0] = RAD2DEG( atan2( -mat[0][2], xyDist ) );

	cvtss2sd xmm0, DWORD PTR _xyDist$[ebp]
	sub	esp, 8
	movsd	QWORD PTR [esp], xmm0
	mov	eax, 12					; 0000000cH
	imul	ecx, eax, 0
	add	ecx, DWORD PTR _this$[ebp]
	call	??BVector@@QAEPAMXZ			; Vector::operator float *
	mov	ecx, 4
	shl	ecx, 1
	movss	xmm0, DWORD PTR [eax+ecx]
	xorps	xmm0, DWORD PTR __xmm@80000000800000008000000080000000
	cvtss2sd xmm0, xmm0
	sub	esp, 8
	movsd	QWORD PTR [esp], xmm0
	call	_atan2
	add	esp, 16					; 00000010H
	fstp	QWORD PTR tv291[ebp]
	movsd	xmm0, QWORD PTR tv291[ebp]
	cvtsd2ss xmm0, xmm0
	mulss	xmm0, DWORD PTR __real@42652ee1
	lea	ecx, DWORD PTR _angles$[ebp]
	movss	DWORD PTR tv362[ebp], xmm0
	call	??BVector@@QAEPAMXZ			; Vector::operator float *
	mov	edx, 4
	imul	ecx, edx, 0
	movss	xmm0, DWORD PTR tv362[ebp]
	movss	DWORD PTR [eax+ecx], xmm0

; 174  : 			angles[1] = RAD2DEG( atan2( mat[0][1], mat[0][0] ) );

	mov	eax, 12					; 0000000cH
	imul	ecx, eax, 0
	add	ecx, DWORD PTR _this$[ebp]
	call	??BVector@@QAEPAMXZ			; Vector::operator float *
	mov	ecx, 4
	imul	edx, ecx, 0
	cvtss2sd xmm0, DWORD PTR [eax+edx]
	sub	esp, 8
	movsd	QWORD PTR [esp], xmm0
	mov	eax, 12					; 0000000cH
	imul	ecx, eax, 0
	add	ecx, DWORD PTR _this$[ebp]
	call	??BVector@@QAEPAMXZ			; Vector::operator float *
	mov	ecx, 4
	shl	ecx, 0
	cvtss2sd xmm0, DWORD PTR [eax+ecx]
	sub	esp, 8
	movsd	QWORD PTR [esp], xmm0
	call	_atan2
	add	esp, 16					; 00000010H
	fstp	QWORD PTR tv306[ebp]
	movsd	xmm0, QWORD PTR tv306[ebp]
	cvtsd2ss xmm0, xmm0
	mulss	xmm0, DWORD PTR __real@42652ee1
	lea	ecx, DWORD PTR _angles$[ebp]
	movss	DWORD PTR tv364[ebp], xmm0
	call	??BVector@@QAEPAMXZ			; Vector::operator float *
	mov	edx, 4
	shl	edx, 0
	movss	xmm0, DWORD PTR tv364[ebp]
	movss	DWORD PTR [eax+edx], xmm0

; 175  : 			angles[2] = RAD2DEG( atan2( mat[1][2], mat[2][2] ) );

	mov	ecx, 12					; 0000000cH
	shl	ecx, 1
	add	ecx, DWORD PTR _this$[ebp]
	call	??BVector@@QAEPAMXZ			; Vector::operator float *
	mov	ecx, 4
	shl	ecx, 1
	cvtss2sd xmm0, DWORD PTR [eax+ecx]
	sub	esp, 8
	movsd	QWORD PTR [esp], xmm0
	mov	ecx, 12					; 0000000cH
	shl	ecx, 0
	add	ecx, DWORD PTR _this$[ebp]
	call	??BVector@@QAEPAMXZ			; Vector::operator float *
	mov	edx, 4
	shl	edx, 1
	cvtss2sd xmm0, DWORD PTR [eax+edx]
	sub	esp, 8
	movsd	QWORD PTR [esp], xmm0
	call	_atan2
	add	esp, 16					; 00000010H
	fstp	QWORD PTR tv321[ebp]
	movsd	xmm0, QWORD PTR tv321[ebp]
	cvtsd2ss xmm0, xmm0
	mulss	xmm0, DWORD PTR __real@42652ee1
	lea	ecx, DWORD PTR _angles$[ebp]
	movss	DWORD PTR tv366[ebp], xmm0
	call	??BVector@@QAEPAMXZ			; Vector::operator float *
	mov	ecx, 4
	shl	ecx, 1
	movss	xmm0, DWORD PTR tv366[ebp]
	movss	DWORD PTR [eax+ecx], xmm0

; 176  : 		}
; 177  : 		else	// forward is mostly Z, gimbal lock

	jmp	$LN3@GetAngles
$LN2@GetAngles:

; 178  : 		{
; 179  : 			angles[0] = RAD2DEG( atan2( -mat[0][2], xyDist ) );

	cvtss2sd xmm0, DWORD PTR _xyDist$[ebp]
	sub	esp, 8
	movsd	QWORD PTR [esp], xmm0
	mov	eax, 12					; 0000000cH
	imul	ecx, eax, 0
	add	ecx, DWORD PTR _this$[ebp]
	call	??BVector@@QAEPAMXZ			; Vector::operator float *
	mov	ecx, 4
	shl	ecx, 1
	movss	xmm0, DWORD PTR [eax+ecx]
	xorps	xmm0, DWORD PTR __xmm@80000000800000008000000080000000
	cvtss2sd xmm0, xmm0
	sub	esp, 8
	movsd	QWORD PTR [esp], xmm0
	call	_atan2
	add	esp, 16					; 00000010H
	fstp	QWORD PTR tv334[ebp]
	movsd	xmm0, QWORD PTR tv334[ebp]
	cvtsd2ss xmm0, xmm0
	mulss	xmm0, DWORD PTR __real@42652ee1
	lea	ecx, DWORD PTR _angles$[ebp]
	movss	DWORD PTR tv368[ebp], xmm0
	call	??BVector@@QAEPAMXZ			; Vector::operator float *
	mov	edx, 4
	imul	ecx, edx, 0
	movss	xmm0, DWORD PTR tv368[ebp]
	movss	DWORD PTR [eax+ecx], xmm0

; 180  : 			angles[1] = RAD2DEG( atan2( -mat[1][0], mat[1][1] ) );

	mov	ecx, 12					; 0000000cH
	shl	ecx, 0
	add	ecx, DWORD PTR _this$[ebp]
	call	??BVector@@QAEPAMXZ			; Vector::operator float *
	mov	ecx, 4
	shl	ecx, 0
	cvtss2sd xmm0, DWORD PTR [eax+ecx]
	sub	esp, 8
	movsd	QWORD PTR [esp], xmm0
	mov	ecx, 12					; 0000000cH
	shl	ecx, 0
	add	ecx, DWORD PTR _this$[ebp]
	call	??BVector@@QAEPAMXZ			; Vector::operator float *
	mov	edx, 4
	imul	ecx, edx, 0
	movss	xmm0, DWORD PTR [eax+ecx]
	xorps	xmm0, DWORD PTR __xmm@80000000800000008000000080000000
	cvtss2sd xmm0, xmm0
	sub	esp, 8
	movsd	QWORD PTR [esp], xmm0
	call	_atan2
	add	esp, 16					; 00000010H
	fstp	QWORD PTR tv350[ebp]
	movsd	xmm0, QWORD PTR tv350[ebp]
	cvtsd2ss xmm0, xmm0
	mulss	xmm0, DWORD PTR __real@42652ee1
	lea	ecx, DWORD PTR _angles$[ebp]
	movss	DWORD PTR tv370[ebp], xmm0
	call	??BVector@@QAEPAMXZ			; Vector::operator float *
	mov	edx, 4
	shl	edx, 0
	movss	xmm0, DWORD PTR tv370[ebp]
	movss	DWORD PTR [eax+edx], xmm0

; 181  : 			angles[2] = 0;

	lea	ecx, DWORD PTR _angles$[ebp]
	call	??BVector@@QAEPAMXZ			; Vector::operator float *
	mov	ecx, 4
	shl	ecx, 1
	xorps	xmm0, xmm0
	movss	DWORD PTR [eax+ecx], xmm0
$LN3@GetAngles:

; 182  : 		}
; 183  : 
; 184  : 		return angles;

	lea	eax, DWORD PTR _angles$[ebp]
	push	eax
	mov	ecx, DWORD PTR ___$ReturnUdt$[ebp]
	call	??0Vector@@QAE@ABV0@@Z			; Vector::Vector
	mov	eax, DWORD PTR ___$ReturnUdt$[ebp]

; 185  : 	}

	pop	edi
	pop	esi
	pop	ebx
	mov	esp, ebp
	pop	ebp
	ret	4
?GetAngles@matrix3x3@@QAE?AVVector@@XZ ENDP		; matrix3x3::GetAngles
_TEXT	ENDS
; Function compile flags: /Odtp /ZI
; File d:\!diffusion 2020\source code 2022\client-server\game_shared\matrix.h
;	COMDAT ?SetUp@matrix3x3@@QAEXABVVector@@@Z
_TEXT	SEGMENT
_this$ = -4						; size = 4
_vUp$ = 8						; size = 4
?SetUp@matrix3x3@@QAEXABVVector@@@Z PROC		; matrix3x3::SetUp, COMDAT
; _this$ = ecx

; 161  : 	void	SetUp( const Vector &vUp ) { mat[2] = vUp; };

	push	ebp
	mov	ebp, esp
	sub	esp, 68					; 00000044H
	push	ebx
	push	esi
	push	edi
	mov	DWORD PTR _this$[ebp], ecx
	mov	eax, 12					; 0000000cH
	shl	eax, 1
	add	eax, DWORD PTR _this$[ebp]
	mov	ecx, DWORD PTR _vUp$[ebp]
	mov	edx, DWORD PTR [ecx]
	mov	DWORD PTR [eax], edx
	mov	edx, DWORD PTR [ecx+4]
	mov	DWORD PTR [eax+4], edx
	mov	ecx, DWORD PTR [ecx+8]
	mov	DWORD PTR [eax+8], ecx
	pop	edi
	pop	esi
	pop	ebx
	mov	esp, ebp
	pop	ebp
	ret	4
?SetUp@matrix3x3@@QAEXABVVector@@@Z ENDP		; matrix3x3::SetUp
_TEXT	ENDS
; Function compile flags: /Odtp /ZI
; File d:\!diffusion 2020\source code 2022\client-server\game_shared\matrix.h
;	COMDAT ?SetRight@matrix3x3@@QAEXABVVector@@@Z
_TEXT	SEGMENT
_this$ = -4						; size = 4
_vRight$ = 8						; size = 4
?SetRight@matrix3x3@@QAEXABVVector@@@Z PROC		; matrix3x3::SetRight, COMDAT
; _this$ = ecx

; 160  : 	void	SetRight( const Vector &vRight ) { mat[1] = vRight; };

	push	ebp
	mov	ebp, esp
	sub	esp, 68					; 00000044H
	push	ebx
	push	esi
	push	edi
	mov	DWORD PTR _this$[ebp], ecx
	mov	eax, 12					; 0000000cH
	shl	eax, 0
	add	eax, DWORD PTR _this$[ebp]
	mov	ecx, DWORD PTR _vRight$[ebp]
	mov	edx, DWORD PTR [ecx]
	mov	DWORD PTR [eax], edx
	mov	edx, DWORD PTR [ecx+4]
	mov	DWORD PTR [eax+4], edx
	mov	ecx, DWORD PTR [ecx+8]
	mov	DWORD PTR [eax+8], ecx
	pop	edi
	pop	esi
	pop	ebx
	mov	esp, ebp
	pop	ebp
	ret	4
?SetRight@matrix3x3@@QAEXABVVector@@@Z ENDP		; matrix3x3::SetRight
_TEXT	ENDS
; Function compile flags: /Odtp /ZI
; File d:\!diffusion 2020\source code 2022\client-server\game_shared\matrix.h
;	COMDAT ?SetForward@matrix3x3@@QAEXABVVector@@@Z
_TEXT	SEGMENT
_this$ = -4						; size = 4
_vForward$ = 8						; size = 4
?SetForward@matrix3x3@@QAEXABVVector@@@Z PROC		; matrix3x3::SetForward, COMDAT
; _this$ = ecx

; 159  : 	void	SetForward( const Vector &vForward ) { mat[0] = vForward; };

	push	ebp
	mov	ebp, esp
	sub	esp, 68					; 00000044H
	push	ebx
	push	esi
	push	edi
	mov	DWORD PTR _this$[ebp], ecx
	mov	eax, 12					; 0000000cH
	imul	ecx, eax, 0
	add	ecx, DWORD PTR _this$[ebp]
	mov	edx, DWORD PTR _vForward$[ebp]
	mov	eax, DWORD PTR [edx]
	mov	DWORD PTR [ecx], eax
	mov	eax, DWORD PTR [edx+4]
	mov	DWORD PTR [ecx+4], eax
	mov	edx, DWORD PTR [edx+8]
	mov	DWORD PTR [ecx+8], edx
	pop	edi
	pop	esi
	pop	ebx
	mov	esp, ebp
	pop	ebp
	ret	4
?SetForward@matrix3x3@@QAEXABVVector@@@Z ENDP		; matrix3x3::SetForward
_TEXT	ENDS
; Function compile flags: /Odtp /ZI
; File d:\!diffusion 2020\source code 2022\client-server\game_shared\vector.h
;	COMDAT ??BVector4D@@QBE?BVVector@@XZ
_TEXT	SEGMENT
_this$ = -4						; size = 4
___$ReturnUdt$ = 8					; size = 4
??BVector4D@@QBE?BVVector@@XZ PROC			; Vector4D::operator Vector const , COMDAT
; _this$ = ecx

; 349  : 	operator const Vector() const				{ return Vector( x, y, z ); } 

	push	ebp
	mov	ebp, esp
	sub	esp, 68					; 00000044H
	push	ebx
	push	esi
	push	edi
	mov	DWORD PTR _this$[ebp], ecx
	mov	eax, DWORD PTR _this$[ebp]
	push	ecx
	movss	xmm0, DWORD PTR [eax+8]
	movss	DWORD PTR [esp], xmm0
	mov	ecx, DWORD PTR _this$[ebp]
	push	ecx
	movss	xmm0, DWORD PTR [ecx+4]
	movss	DWORD PTR [esp], xmm0
	mov	edx, DWORD PTR _this$[ebp]
	push	ecx
	movss	xmm0, DWORD PTR [edx]
	movss	DWORD PTR [esp], xmm0
	mov	ecx, DWORD PTR ___$ReturnUdt$[ebp]
	call	??0Vector@@QAE@MMM@Z			; Vector::Vector
	mov	eax, DWORD PTR ___$ReturnUdt$[ebp]
	pop	edi
	pop	esi
	pop	ebx
	mov	esp, ebp
	pop	ebp
	ret	4
??BVector4D@@QBE?BVVector@@XZ ENDP			; Vector4D::operator Vector const 
_TEXT	ENDS
; Function compile flags: /Odtp /ZI
; File d:\!diffusion 2020\source code 2022\client-server\game_shared\vector.h
;	COMDAT ??BVector4D@@QAE?AVVector@@XZ
_TEXT	SEGMENT
_this$ = -4						; size = 4
___$ReturnUdt$ = 8					; size = 4
??BVector4D@@QAE?AVVector@@XZ PROC			; Vector4D::operator Vector, COMDAT
; _this$ = ecx

; 348  : 	operator Vector()					{ return Vector( x, y, z ); }

	push	ebp
	mov	ebp, esp
	sub	esp, 68					; 00000044H
	push	ebx
	push	esi
	push	edi
	mov	DWORD PTR _this$[ebp], ecx
	mov	eax, DWORD PTR _this$[ebp]
	push	ecx
	movss	xmm0, DWORD PTR [eax+8]
	movss	DWORD PTR [esp], xmm0
	mov	ecx, DWORD PTR _this$[ebp]
	push	ecx
	movss	xmm0, DWORD PTR [ecx+4]
	movss	DWORD PTR [esp], xmm0
	mov	edx, DWORD PTR _this$[ebp]
	push	ecx
	movss	xmm0, DWORD PTR [edx]
	movss	DWORD PTR [esp], xmm0
	mov	ecx, DWORD PTR ___$ReturnUdt$[ebp]
	call	??0Vector@@QAE@MMM@Z			; Vector::Vector
	mov	eax, DWORD PTR ___$ReturnUdt$[ebp]
	pop	edi
	pop	esi
	pop	ebx
	mov	esp, ebp
	pop	ebp
	ret	4
??BVector4D@@QAE?AVVector@@XZ ENDP			; Vector4D::operator Vector
_TEXT	ENDS
; Function compile flags: /Odtp /ZI
; File d:\!diffusion 2020\source code 2022\client-server\game_shared\vector.h
;	COMDAT ??BVector4D@@QAEPAMXZ
_TEXT	SEGMENT
_this$ = -4						; size = 4
??BVector4D@@QAEPAMXZ PROC				; Vector4D::operator float *, COMDAT
; _this$ = ecx

; 344  : 	operator float *()					{ return &x; }

	push	ebp
	mov	ebp, esp
	sub	esp, 68					; 00000044H
	push	ebx
	push	esi
	push	edi
	mov	DWORD PTR _this$[ebp], ecx
	mov	eax, DWORD PTR _this$[ebp]
	pop	edi
	pop	esi
	pop	ebx
	mov	esp, ebp
	pop	ebp
	ret	0
??BVector4D@@QAEPAMXZ ENDP				; Vector4D::operator float *
_TEXT	ENDS
; Function compile flags: /Odtp /ZI
; File d:\!diffusion 2020\source code 2022\client-server\game_shared\vector.h
;	COMDAT ??0Vector4D@@QAE@ABVVector@@@Z
_TEXT	SEGMENT
_this$ = -4						; size = 4
_v$ = 8							; size = 4
??0Vector4D@@QAE@ABVVector@@@Z PROC			; Vector4D::Vector4D, COMDAT
; _this$ = ecx

; 334  : 	inline Vector4D( const Vector& v ) { x = v.x; y = v.y; z = v.z; w = 1.0f; }

	push	ebp
	mov	ebp, esp
	sub	esp, 68					; 00000044H
	push	ebx
	push	esi
	push	edi
	mov	DWORD PTR _this$[ebp], ecx
	mov	eax, DWORD PTR _this$[ebp]
	mov	ecx, DWORD PTR _v$[ebp]
	mov	edx, DWORD PTR [ecx]
	mov	DWORD PTR [eax], edx
	mov	eax, DWORD PTR _this$[ebp]
	mov	ecx, DWORD PTR _v$[ebp]
	mov	edx, DWORD PTR [ecx+4]
	mov	DWORD PTR [eax+4], edx
	mov	eax, DWORD PTR _this$[ebp]
	mov	ecx, DWORD PTR _v$[ebp]
	mov	edx, DWORD PTR [ecx+8]
	mov	DWORD PTR [eax+8], edx
	mov	eax, DWORD PTR _this$[ebp]
	movss	xmm0, DWORD PTR __real@3f800000
	movss	DWORD PTR [eax+12], xmm0
	mov	eax, DWORD PTR _this$[ebp]
	pop	edi
	pop	esi
	pop	ebx
	mov	esp, ebp
	pop	ebp
	ret	4
??0Vector4D@@QAE@ABVVector@@@Z ENDP			; Vector4D::Vector4D
_TEXT	ENDS
; Function compile flags: /Odtp /ZI
; File d:\!diffusion 2020\source code 2022\client-server\game_shared\vector.h
;	COMDAT ??0Vector4D@@QAE@ABV0@@Z
_TEXT	SEGMENT
_this$ = -4						; size = 4
_v$ = 8							; size = 4
??0Vector4D@@QAE@ABV0@@Z PROC				; Vector4D::Vector4D, COMDAT
; _this$ = ecx

; 332  : 	inline Vector4D( const Vector4D& v ) { x = v.x; y = v.y; z = v.z, w = v.w; } 

	push	ebp
	mov	ebp, esp
	sub	esp, 68					; 00000044H
	push	ebx
	push	esi
	push	edi
	mov	DWORD PTR _this$[ebp], ecx
	mov	eax, DWORD PTR _this$[ebp]
	mov	ecx, DWORD PTR _v$[ebp]
	mov	edx, DWORD PTR [ecx]
	mov	DWORD PTR [eax], edx
	mov	eax, DWORD PTR _this$[ebp]
	mov	ecx, DWORD PTR _v$[ebp]
	mov	edx, DWORD PTR [ecx+4]
	mov	DWORD PTR [eax+4], edx
	mov	eax, DWORD PTR _this$[ebp]
	mov	ecx, DWORD PTR _v$[ebp]
	mov	edx, DWORD PTR [ecx+8]
	mov	DWORD PTR [eax+8], edx
	mov	eax, DWORD PTR _this$[ebp]
	mov	ecx, DWORD PTR _v$[ebp]
	mov	edx, DWORD PTR [ecx+12]
	mov	DWORD PTR [eax+12], edx
	mov	eax, DWORD PTR _this$[ebp]
	pop	edi
	pop	esi
	pop	ebx
	mov	esp, ebp
	pop	ebp
	ret	4
??0Vector4D@@QAE@ABV0@@Z ENDP				; Vector4D::Vector4D
_TEXT	ENDS
; Function compile flags: /Odtp /ZI
; File d:\!diffusion 2020\source code 2022\client-server\game_shared\vector.h
;	COMDAT ??0Vector4D@@QAE@MMMM@Z
_TEXT	SEGMENT
_this$ = -4						; size = 4
_X$ = 8							; size = 4
_Y$ = 12						; size = 4
_Z$ = 16						; size = 4
_W$ = 20						; size = 4
??0Vector4D@@QAE@MMMM@Z PROC				; Vector4D::Vector4D, COMDAT
; _this$ = ecx

; 331  : 	inline Vector4D( float X, float Y, float Z, float W ) { x = X; y = Y; z = Z; w = W; }

	push	ebp
	mov	ebp, esp
	sub	esp, 68					; 00000044H
	push	ebx
	push	esi
	push	edi
	mov	DWORD PTR _this$[ebp], ecx
	mov	eax, DWORD PTR _this$[ebp]
	movss	xmm0, DWORD PTR _X$[ebp]
	movss	DWORD PTR [eax], xmm0
	mov	eax, DWORD PTR _this$[ebp]
	movss	xmm0, DWORD PTR _Y$[ebp]
	movss	DWORD PTR [eax+4], xmm0
	mov	eax, DWORD PTR _this$[ebp]
	movss	xmm0, DWORD PTR _Z$[ebp]
	movss	DWORD PTR [eax+8], xmm0
	mov	eax, DWORD PTR _this$[ebp]
	movss	xmm0, DWORD PTR _W$[ebp]
	movss	DWORD PTR [eax+12], xmm0
	mov	eax, DWORD PTR _this$[ebp]
	pop	edi
	pop	esi
	pop	ebx
	mov	esp, ebp
	pop	ebp
	ret	16					; 00000010H
??0Vector4D@@QAE@MMMM@Z ENDP				; Vector4D::Vector4D
_TEXT	ENDS
; Function compile flags: /Odtp /ZI
; File d:\!diffusion 2020\source code 2022\client-server\game_shared\vector.h
;	COMDAT ??0Vector4D@@QAE@XZ
_TEXT	SEGMENT
_this$ = -4						; size = 4
??0Vector4D@@QAE@XZ PROC				; Vector4D::Vector4D, COMDAT
; _this$ = ecx

; 330  : 	inline Vector4D( void ) { }

	push	ebp
	mov	ebp, esp
	sub	esp, 68					; 00000044H
	push	ebx
	push	esi
	push	edi
	mov	DWORD PTR _this$[ebp], ecx
	mov	eax, DWORD PTR _this$[ebp]
	pop	edi
	pop	esi
	pop	ebx
	mov	esp, ebp
	pop	ebp
	ret	0
??0Vector4D@@QAE@XZ ENDP				; Vector4D::Vector4D
_TEXT	ENDS
; Function compile flags: /Odtp /ZI
; File d:\!diffusion 2020\source code 2022\client-server\game_shared\vector.h
;	COMDAT ?DotProduct@@YAMABVVector@@0@Z
_TEXT	SEGMENT
tv86 = -68						; size = 4
_a$ = 8							; size = 4
_b$ = 12						; size = 4
?DotProduct@@YAMABVVector@@0@Z PROC			; DotProduct, COMDAT

; 308  : inline float DotProduct(const Vector& a, const Vector& b ) { return( a.x * b.x + a.y * b.y + a.z * b.z ); }

	push	ebp
	mov	ebp, esp
	sub	esp, 68					; 00000044H
	push	ebx
	push	esi
	push	edi
	mov	eax, DWORD PTR _a$[ebp]
	mov	ecx, DWORD PTR _b$[ebp]
	movss	xmm0, DWORD PTR [eax]
	mulss	xmm0, DWORD PTR [ecx]
	mov	edx, DWORD PTR _a$[ebp]
	mov	eax, DWORD PTR _b$[ebp]
	movss	xmm1, DWORD PTR [edx+4]
	mulss	xmm1, DWORD PTR [eax+4]
	addss	xmm0, xmm1
	mov	ecx, DWORD PTR _a$[ebp]
	mov	edx, DWORD PTR _b$[ebp]
	movss	xmm1, DWORD PTR [ecx+8]
	mulss	xmm1, DWORD PTR [edx+8]
	addss	xmm0, xmm1
	movss	DWORD PTR tv86[ebp], xmm0
	fld	DWORD PTR tv86[ebp]
	pop	edi
	pop	esi
	pop	ebx
	mov	esp, ebp
	pop	ebp
	ret	0
?DotProduct@@YAMABVVector@@0@Z ENDP			; DotProduct
_TEXT	ENDS
; Function compile flags: /Odtp /ZI
; File d:\!diffusion 2020\source code 2022\client-server\game_shared\vector.h
;	COMDAT ??D@YA?AVVector@@MABV0@@Z
_TEXT	SEGMENT
___$ReturnUdt$ = 8					; size = 4
_fl$ = 12						; size = 4
_v$ = 16						; size = 4
??D@YA?AVVector@@MABV0@@Z PROC				; operator*, COMDAT

; 307  : inline Vector operator* ( float fl, const Vector& v ) { return v * fl; }

	push	ebp
	mov	ebp, esp
	sub	esp, 64					; 00000040H
	push	ebx
	push	esi
	push	edi
	push	ecx
	movss	xmm0, DWORD PTR _fl$[ebp]
	movss	DWORD PTR [esp], xmm0
	mov	eax, DWORD PTR ___$ReturnUdt$[ebp]
	push	eax
	mov	ecx, DWORD PTR _v$[ebp]
	call	??DVector@@QBE?AV0@M@Z			; Vector::operator*
	mov	eax, DWORD PTR ___$ReturnUdt$[ebp]
	pop	edi
	pop	esi
	pop	ebx
	mov	esp, ebp
	pop	ebp
	ret	0
??D@YA?AVVector@@MABV0@@Z ENDP				; operator*
_TEXT	ENDS
; Function compile flags: /Odtp /ZI
; File d:\!diffusion 2020\source code 2022\client-server\game_shared\vector.h
;	COMDAT ?Normalize@Vector@@QBE?AV1@XZ
_TEXT	SEGMENT
_flLen$ = -8						; size = 4
_this$ = -4						; size = 4
___$ReturnUdt$ = 8					; size = 4
?Normalize@Vector@@QBE?AV1@XZ PROC			; Vector::Normalize, COMDAT
; _this$ = ecx

; 251  : 	{

	push	ebp
	mov	ebp, esp
	sub	esp, 72					; 00000048H
	push	ebx
	push	esi
	push	edi
	mov	DWORD PTR _this$[ebp], ecx

; 252  : 		float flLen = Length();

	mov	ecx, DWORD PTR _this$[ebp]
	call	?Length@Vector@@QBEMXZ			; Vector::Length
	fstp	DWORD PTR _flLen$[ebp]

; 253  : 
; 254  : 		if( flLen )

	movss	xmm0, DWORD PTR _flLen$[ebp]
	ucomiss	xmm0, DWORD PTR __real@00000000
	lahf
	test	ah, 68					; 00000044H
	jnp	SHORT $LN2@Normalize

; 255  : 		{
; 256  : 			flLen = 1.0f / flLen;

	movss	xmm0, DWORD PTR __real@3f800000
	divss	xmm0, DWORD PTR _flLen$[ebp]
	movss	DWORD PTR _flLen$[ebp], xmm0

; 257  : 			return Vector( x * flLen, y * flLen, z * flLen );

	mov	eax, DWORD PTR _this$[ebp]
	movss	xmm0, DWORD PTR [eax+8]
	mulss	xmm0, DWORD PTR _flLen$[ebp]
	push	ecx
	movss	DWORD PTR [esp], xmm0
	mov	ecx, DWORD PTR _this$[ebp]
	movss	xmm0, DWORD PTR [ecx+4]
	mulss	xmm0, DWORD PTR _flLen$[ebp]
	push	ecx
	movss	DWORD PTR [esp], xmm0
	mov	edx, DWORD PTR _this$[ebp]
	movss	xmm0, DWORD PTR [edx]
	mulss	xmm0, DWORD PTR _flLen$[ebp]
	push	ecx
	movss	DWORD PTR [esp], xmm0
	mov	ecx, DWORD PTR ___$ReturnUdt$[ebp]
	call	??0Vector@@QAE@MMM@Z			; Vector::Vector
	mov	eax, DWORD PTR ___$ReturnUdt$[ebp]
	jmp	SHORT $LN1@Normalize
$LN2@Normalize:

; 258  : 		}
; 259  : 
; 260  : 		return *this; // can't normalize

	mov	eax, DWORD PTR _this$[ebp]
	push	eax
	mov	ecx, DWORD PTR ___$ReturnUdt$[ebp]
	call	??0Vector@@QAE@ABV0@@Z			; Vector::Vector
	mov	eax, DWORD PTR ___$ReturnUdt$[ebp]
$LN1@Normalize:

; 261  : 	}

	pop	edi
	pop	esi
	pop	ebx
	mov	esp, ebp
	pop	ebp
	ret	4
?Normalize@Vector@@QBE?AV1@XZ ENDP			; Vector::Normalize
_TEXT	ENDS
; Function compile flags: /Odtp /ZI
; File d:\!diffusion 2020\source code 2022\client-server\game_shared\vector.h
;	COMDAT ??BVector@@QBEPBMXZ
_TEXT	SEGMENT
_this$ = -4						; size = 4
??BVector@@QBEPBMXZ PROC				; Vector::operator float const *, COMDAT
; _this$ = ecx

; 248  : 	operator const float *() const		{ return &x; } 

	push	ebp
	mov	ebp, esp
	sub	esp, 68					; 00000044H
	push	ebx
	push	esi
	push	edi
	mov	DWORD PTR _this$[ebp], ecx
	mov	eax, DWORD PTR _this$[ebp]
	pop	edi
	pop	esi
	pop	ebx
	mov	esp, ebp
	pop	ebp
	ret	0
??BVector@@QBEPBMXZ ENDP				; Vector::operator float const *
_TEXT	ENDS
; Function compile flags: /Odtp /ZI
; File d:\!diffusion 2020\source code 2022\client-server\game_shared\vector.h
;	COMDAT ??BVector@@QAEPAMXZ
_TEXT	SEGMENT
_this$ = -4						; size = 4
??BVector@@QAEPAMXZ PROC				; Vector::operator float *, COMDAT
; _this$ = ecx

; 247  : 	operator float *()				{ return &x; } // Vectors will now automatically convert to float * when needed

	push	ebp
	mov	ebp, esp
	sub	esp, 68					; 00000044H
	push	ebx
	push	esi
	push	edi
	mov	DWORD PTR _this$[ebp], ecx
	mov	eax, DWORD PTR _this$[ebp]
	pop	edi
	pop	esi
	pop	ebx
	mov	esp, ebp
	pop	ebp
	ret	0
??BVector@@QAEPAMXZ ENDP				; Vector::operator float *
_TEXT	ENDS
; Function compile flags: /Odtp /ZI
; File d:\!diffusion 2020\source code 2022\client-server\game_shared\vector.h
;	COMDAT ?Length@Vector@@QBEMXZ
_TEXT	SEGMENT
tv91 = -72						; size = 4
_this$ = -4						; size = 4
?Length@Vector@@QBEMXZ PROC				; Vector::Length, COMDAT
; _this$ = ecx

; 245  : 	inline float Length(void) const		{ return sqrt( x*x + y*y + z*z ); }

	push	ebp
	mov	ebp, esp
	sub	esp, 72					; 00000048H
	push	ebx
	push	esi
	push	edi
	mov	DWORD PTR _this$[ebp], ecx
	mov	eax, DWORD PTR _this$[ebp]
	mov	ecx, DWORD PTR _this$[ebp]
	movss	xmm0, DWORD PTR [eax]
	mulss	xmm0, DWORD PTR [ecx]
	mov	edx, DWORD PTR _this$[ebp]
	mov	eax, DWORD PTR _this$[ebp]
	movss	xmm1, DWORD PTR [edx+4]
	mulss	xmm1, DWORD PTR [eax+4]
	addss	xmm0, xmm1
	mov	ecx, DWORD PTR _this$[ebp]
	mov	edx, DWORD PTR _this$[ebp]
	movss	xmm1, DWORD PTR [ecx+8]
	mulss	xmm1, DWORD PTR [edx+8]
	addss	xmm0, xmm1
	cvtss2sd xmm0, xmm0
	sub	esp, 8
	movsd	QWORD PTR [esp], xmm0
	call	_sqrt
	add	esp, 8
	fstp	DWORD PTR tv91[ebp]
	fld	DWORD PTR tv91[ebp]
	pop	edi
	pop	esi
	pop	ebx
	mov	esp, ebp
	pop	ebp
	ret	0
?Length@Vector@@QBEMXZ ENDP				; Vector::Length
_TEXT	ENDS
; Function compile flags: /Odtp /ZI
; File d:\!diffusion 2020\source code 2022\client-server\game_shared\vector.h
;	COMDAT ??YVector@@QAEAAV0@ABV0@@Z
_TEXT	SEGMENT
_this$ = -4						; size = 4
_v$ = 8							; size = 4
??YVector@@QAEAAV0@ABV0@@Z PROC				; Vector::operator+=, COMDAT
; _this$ = ecx

; 168  : 	{

	push	ebp
	mov	ebp, esp
	sub	esp, 68					; 00000044H
	push	ebx
	push	esi
	push	edi
	mov	DWORD PTR _this$[ebp], ecx

; 169  : 		x+=v.x; y+=v.y; z += v.z;	

	mov	eax, DWORD PTR _this$[ebp]
	mov	ecx, DWORD PTR _v$[ebp]
	movss	xmm0, DWORD PTR [eax]
	addss	xmm0, DWORD PTR [ecx]
	mov	edx, DWORD PTR _this$[ebp]
	movss	DWORD PTR [edx], xmm0
	mov	eax, DWORD PTR _this$[ebp]
	mov	ecx, DWORD PTR _v$[ebp]
	movss	xmm0, DWORD PTR [eax+4]
	addss	xmm0, DWORD PTR [ecx+4]
	mov	edx, DWORD PTR _this$[ebp]
	movss	DWORD PTR [edx+4], xmm0
	mov	eax, DWORD PTR _this$[ebp]
	mov	ecx, DWORD PTR _v$[ebp]
	movss	xmm0, DWORD PTR [eax+8]
	addss	xmm0, DWORD PTR [ecx+8]
	mov	edx, DWORD PTR _this$[ebp]
	movss	DWORD PTR [edx+8], xmm0

; 170  : 		return *this;

	mov	eax, DWORD PTR _this$[ebp]

; 171  : 	}			

	pop	edi
	pop	esi
	pop	ebx
	mov	esp, ebp
	pop	ebp
	ret	4
??YVector@@QAEAAV0@ABV0@@Z ENDP				; Vector::operator+=
_TEXT	ENDS
; Function compile flags: /Odtp /ZI
; File d:\!diffusion 2020\source code 2022\client-server\game_shared\vector.h
;	COMDAT ??DVector@@QBE?AV0@M@Z
_TEXT	SEGMENT
_this$ = -4						; size = 4
___$ReturnUdt$ = 8					; size = 4
_fl$ = 12						; size = 4
??DVector@@QBE?AV0@M@Z PROC				; Vector::operator*, COMDAT
; _this$ = ecx

; 162  : 	inline Vector operator*(float fl) const		{ return Vector(x*fl, y*fl, z*fl);	   }

	push	ebp
	mov	ebp, esp
	sub	esp, 68					; 00000044H
	push	ebx
	push	esi
	push	edi
	mov	DWORD PTR _this$[ebp], ecx
	mov	eax, DWORD PTR _this$[ebp]
	movss	xmm0, DWORD PTR [eax+8]
	mulss	xmm0, DWORD PTR _fl$[ebp]
	push	ecx
	movss	DWORD PTR [esp], xmm0
	mov	ecx, DWORD PTR _this$[ebp]
	movss	xmm0, DWORD PTR [ecx+4]
	mulss	xmm0, DWORD PTR _fl$[ebp]
	push	ecx
	movss	DWORD PTR [esp], xmm0
	mov	edx, DWORD PTR _this$[ebp]
	movss	xmm0, DWORD PTR [edx]
	mulss	xmm0, DWORD PTR _fl$[ebp]
	push	ecx
	movss	DWORD PTR [esp], xmm0
	mov	ecx, DWORD PTR ___$ReturnUdt$[ebp]
	call	??0Vector@@QAE@MMM@Z			; Vector::Vector
	mov	eax, DWORD PTR ___$ReturnUdt$[ebp]
	pop	edi
	pop	esi
	pop	ebx
	mov	esp, ebp
	pop	ebp
	ret	8
??DVector@@QBE?AV0@M@Z ENDP				; Vector::operator*
_TEXT	ENDS
; Function compile flags: /Odtp /ZI
; File d:\!diffusion 2020\source code 2022\client-server\game_shared\vector.h
;	COMDAT ??GVector@@QBE?AV0@ABV0@@Z
_TEXT	SEGMENT
_this$ = -4						; size = 4
___$ReturnUdt$ = 8					; size = 4
_v$ = 12						; size = 4
??GVector@@QBE?AV0@ABV0@@Z PROC				; Vector::operator-, COMDAT
; _this$ = ecx

; 159  : 	inline Vector operator-(const Vector& v) const	{ return Vector(x-v.x, y-v.y, z-v.z);	   }

	push	ebp
	mov	ebp, esp
	sub	esp, 68					; 00000044H
	push	ebx
	push	esi
	push	edi
	mov	DWORD PTR _this$[ebp], ecx
	mov	eax, DWORD PTR _this$[ebp]
	mov	ecx, DWORD PTR _v$[ebp]
	movss	xmm0, DWORD PTR [eax+8]
	subss	xmm0, DWORD PTR [ecx+8]
	push	ecx
	movss	DWORD PTR [esp], xmm0
	mov	edx, DWORD PTR _this$[ebp]
	mov	eax, DWORD PTR _v$[ebp]
	movss	xmm0, DWORD PTR [edx+4]
	subss	xmm0, DWORD PTR [eax+4]
	push	ecx
	movss	DWORD PTR [esp], xmm0
	mov	ecx, DWORD PTR _this$[ebp]
	mov	edx, DWORD PTR _v$[ebp]
	movss	xmm0, DWORD PTR [ecx]
	subss	xmm0, DWORD PTR [edx]
	push	ecx
	movss	DWORD PTR [esp], xmm0
	mov	ecx, DWORD PTR ___$ReturnUdt$[ebp]
	call	??0Vector@@QAE@MMM@Z			; Vector::Vector
	mov	eax, DWORD PTR ___$ReturnUdt$[ebp]
	pop	edi
	pop	esi
	pop	ebx
	mov	esp, ebp
	pop	ebp
	ret	8
??GVector@@QBE?AV0@ABV0@@Z ENDP				; Vector::operator-
_TEXT	ENDS
; Function compile flags: /Odtp /ZI
; File d:\!diffusion 2020\source code 2022\client-server\game_shared\vector.h
;	COMDAT ??HVector@@QBE?AV0@ABV0@@Z
_TEXT	SEGMENT
_this$ = -4						; size = 4
___$ReturnUdt$ = 8					; size = 4
_v$ = 12						; size = 4
??HVector@@QBE?AV0@ABV0@@Z PROC				; Vector::operator+, COMDAT
; _this$ = ecx

; 158  : 	inline Vector operator+(const Vector& v) const	{ return Vector(x+v.x, y+v.y, z+v.z);	   }

	push	ebp
	mov	ebp, esp
	sub	esp, 68					; 00000044H
	push	ebx
	push	esi
	push	edi
	mov	DWORD PTR _this$[ebp], ecx
	mov	eax, DWORD PTR _this$[ebp]
	mov	ecx, DWORD PTR _v$[ebp]
	movss	xmm0, DWORD PTR [eax+8]
	addss	xmm0, DWORD PTR [ecx+8]
	push	ecx
	movss	DWORD PTR [esp], xmm0
	mov	edx, DWORD PTR _this$[ebp]
	mov	eax, DWORD PTR _v$[ebp]
	movss	xmm0, DWORD PTR [edx+4]
	addss	xmm0, DWORD PTR [eax+4]
	push	ecx
	movss	DWORD PTR [esp], xmm0
	mov	ecx, DWORD PTR _this$[ebp]
	mov	edx, DWORD PTR _v$[ebp]
	movss	xmm0, DWORD PTR [ecx]
	addss	xmm0, DWORD PTR [edx]
	push	ecx
	movss	DWORD PTR [esp], xmm0
	mov	ecx, DWORD PTR ___$ReturnUdt$[ebp]
	call	??0Vector@@QAE@MMM@Z			; Vector::Vector
	mov	eax, DWORD PTR ___$ReturnUdt$[ebp]
	pop	edi
	pop	esi
	pop	ebx
	mov	esp, ebp
	pop	ebp
	ret	8
??HVector@@QBE?AV0@ABV0@@Z ENDP				; Vector::operator+
_TEXT	ENDS
; Function compile flags: /Odtp /ZI
; File d:\!diffusion 2020\source code 2022\client-server\game_shared\vector.h
;	COMDAT ??9Vector@@QBEHABV0@@Z
_TEXT	SEGMENT
tv68 = -72						; size = 4
_this$ = -4						; size = 4
_v$ = 8							; size = 4
??9Vector@@QBEHABV0@@Z PROC				; Vector::operator!=, COMDAT
; _this$ = ecx

; 157  : 	inline int operator!=(const Vector& v) const	{ return !(*this==v);		   }

	push	ebp
	mov	ebp, esp
	sub	esp, 72					; 00000048H
	push	ebx
	push	esi
	push	edi
	mov	DWORD PTR _this$[ebp], ecx
	mov	eax, DWORD PTR _v$[ebp]
	push	eax
	mov	ecx, DWORD PTR _this$[ebp]
	call	??8Vector@@QBEHABV0@@Z			; Vector::operator==
	test	eax, eax
	jne	SHORT $LN3@operator
	mov	DWORD PTR tv68[ebp], 1
	jmp	SHORT $LN4@operator
$LN3@operator:
	mov	DWORD PTR tv68[ebp], 0
$LN4@operator:
	mov	eax, DWORD PTR tv68[ebp]
	pop	edi
	pop	esi
	pop	ebx
	mov	esp, ebp
	pop	ebp
	ret	4
??9Vector@@QBEHABV0@@Z ENDP				; Vector::operator!=
_TEXT	ENDS
; Function compile flags: /Odtp /ZI
; File d:\!diffusion 2020\source code 2022\client-server\game_shared\vector.h
;	COMDAT ??8Vector@@QBEHABV0@@Z
_TEXT	SEGMENT
tv73 = -72						; size = 4
_this$ = -4						; size = 4
_v$ = 8							; size = 4
??8Vector@@QBEHABV0@@Z PROC				; Vector::operator==, COMDAT
; _this$ = ecx

; 156  : 	inline int operator==(const Vector& v) const	{ return x==v.x && y==v.y && z==v.z;	   }

	push	ebp
	mov	ebp, esp
	sub	esp, 72					; 00000048H
	push	ebx
	push	esi
	push	edi
	mov	DWORD PTR _this$[ebp], ecx
	mov	eax, DWORD PTR _this$[ebp]
	mov	ecx, DWORD PTR _v$[ebp]
	movss	xmm0, DWORD PTR [eax]
	ucomiss	xmm0, DWORD PTR [ecx]
	lahf
	test	ah, 68					; 00000044H
	jp	SHORT $LN3@operator
	mov	edx, DWORD PTR _this$[ebp]
	mov	eax, DWORD PTR _v$[ebp]
	movss	xmm0, DWORD PTR [edx+4]
	ucomiss	xmm0, DWORD PTR [eax+4]
	lahf
	test	ah, 68					; 00000044H
	jp	SHORT $LN3@operator
	mov	ecx, DWORD PTR _this$[ebp]
	mov	edx, DWORD PTR _v$[ebp]
	movss	xmm0, DWORD PTR [ecx+8]
	ucomiss	xmm0, DWORD PTR [edx+8]
	lahf
	test	ah, 68					; 00000044H
	jp	SHORT $LN3@operator
	mov	DWORD PTR tv73[ebp], 1
	jmp	SHORT $LN4@operator
$LN3@operator:
	mov	DWORD PTR tv73[ebp], 0
$LN4@operator:
	mov	eax, DWORD PTR tv73[ebp]
	pop	edi
	pop	esi
	pop	ebx
	mov	esp, ebp
	pop	ebp
	ret	4
??8Vector@@QBEHABV0@@Z ENDP				; Vector::operator==
_TEXT	ENDS
; Function compile flags: /Odtp /ZI
; File d:\!diffusion 2020\source code 2022\client-server\game_shared\vector.h
;	COMDAT ??GVector@@QBE?AV0@XZ
_TEXT	SEGMENT
_this$ = -4						; size = 4
___$ReturnUdt$ = 8					; size = 4
??GVector@@QBE?AV0@XZ PROC				; Vector::operator-, COMDAT
; _this$ = ecx

; 155  : 	inline Vector operator-(void) const		{ return Vector(-x,-y,-z);		   }

	push	ebp
	mov	ebp, esp
	sub	esp, 68					; 00000044H
	push	ebx
	push	esi
	push	edi
	mov	DWORD PTR _this$[ebp], ecx
	mov	eax, DWORD PTR _this$[ebp]
	movss	xmm0, DWORD PTR [eax+8]
	xorps	xmm0, DWORD PTR __xmm@80000000800000008000000080000000
	push	ecx
	movss	DWORD PTR [esp], xmm0
	mov	ecx, DWORD PTR _this$[ebp]
	movss	xmm0, DWORD PTR [ecx+4]
	xorps	xmm0, DWORD PTR __xmm@80000000800000008000000080000000
	push	ecx
	movss	DWORD PTR [esp], xmm0
	mov	edx, DWORD PTR _this$[ebp]
	movss	xmm0, DWORD PTR [edx]
	xorps	xmm0, DWORD PTR __xmm@80000000800000008000000080000000
	push	ecx
	movss	DWORD PTR [esp], xmm0
	mov	ecx, DWORD PTR ___$ReturnUdt$[ebp]
	call	??0Vector@@QAE@MMM@Z			; Vector::Vector
	mov	eax, DWORD PTR ___$ReturnUdt$[ebp]
	pop	edi
	pop	esi
	pop	ebx
	mov	esp, ebp
	pop	ebp
	ret	4
??GVector@@QBE?AV0@XZ ENDP				; Vector::operator-
_TEXT	ENDS
; Function compile flags: /Odtp /ZI
; File d:\!diffusion 2020\source code 2022\client-server\game_shared\vector.h
;	COMDAT ??0Vector@@QAE@ABV0@@Z
_TEXT	SEGMENT
_this$ = -4						; size = 4
_v$ = 8							; size = 4
??0Vector@@QAE@ABV0@@Z PROC				; Vector::Vector, COMDAT
; _this$ = ecx

; 145  : 	inline Vector(const Vector& v)		{ x = v.x; y = v.y; z = v.z;		   }

	push	ebp
	mov	ebp, esp
	sub	esp, 68					; 00000044H
	push	ebx
	push	esi
	push	edi
	mov	DWORD PTR _this$[ebp], ecx
	mov	eax, DWORD PTR _this$[ebp]
	mov	ecx, DWORD PTR _v$[ebp]
	mov	edx, DWORD PTR [ecx]
	mov	DWORD PTR [eax], edx
	mov	eax, DWORD PTR _this$[ebp]
	mov	ecx, DWORD PTR _v$[ebp]
	mov	edx, DWORD PTR [ecx+4]
	mov	DWORD PTR [eax+4], edx
	mov	eax, DWORD PTR _this$[ebp]
	mov	ecx, DWORD PTR _v$[ebp]
	mov	edx, DWORD PTR [ecx+8]
	mov	DWORD PTR [eax+8], edx
	mov	eax, DWORD PTR _this$[ebp]
	pop	edi
	pop	esi
	pop	ebx
	mov	esp, ebp
	pop	ebp
	ret	4
??0Vector@@QAE@ABV0@@Z ENDP				; Vector::Vector
_TEXT	ENDS
; Function compile flags: /Odtp /ZI
; File d:\!diffusion 2020\source code 2022\client-server\game_shared\vector.h
;	COMDAT ??0Vector@@QAE@MMM@Z
_TEXT	SEGMENT
_this$ = -4						; size = 4
_X$ = 8							; size = 4
_Y$ = 12						; size = 4
_Z$ = 16						; size = 4
??0Vector@@QAE@MMM@Z PROC				; Vector::Vector, COMDAT
; _this$ = ecx

; 144  : 	inline Vector(float X, float Y, float Z)	{ x = X; y = Y; z = Z;                     }

	push	ebp
	mov	ebp, esp
	sub	esp, 68					; 00000044H
	push	ebx
	push	esi
	push	edi
	mov	DWORD PTR _this$[ebp], ecx
	mov	eax, DWORD PTR _this$[ebp]
	movss	xmm0, DWORD PTR _X$[ebp]
	movss	DWORD PTR [eax], xmm0
	mov	eax, DWORD PTR _this$[ebp]
	movss	xmm0, DWORD PTR _Y$[ebp]
	movss	DWORD PTR [eax+4], xmm0
	mov	eax, DWORD PTR _this$[ebp]
	movss	xmm0, DWORD PTR _Z$[ebp]
	movss	DWORD PTR [eax+8], xmm0
	mov	eax, DWORD PTR _this$[ebp]
	pop	edi
	pop	esi
	pop	ebx
	mov	esp, ebp
	pop	ebp
	ret	12					; 0000000cH
??0Vector@@QAE@MMM@Z ENDP				; Vector::Vector
_TEXT	ENDS
; Function compile flags: /Odtp /ZI
; File d:\!diffusion 2020\source code 2022\client-server\game_shared\vector.h
;	COMDAT ??0Vector@@QAE@XZ
_TEXT	SEGMENT
_this$ = -4						; size = 4
??0Vector@@QAE@XZ PROC					; Vector::Vector, COMDAT
; _this$ = ecx

; 143  : 	inline Vector(void)				{ }

	push	ebp
	mov	ebp, esp
	sub	esp, 68					; 00000044H
	push	ebx
	push	esi
	push	edi
	mov	DWORD PTR _this$[ebp], ecx
	mov	eax, DWORD PTR _this$[ebp]
	pop	edi
	pop	esi
	pop	ebx
	mov	esp, ebp
	pop	ebp
	ret	0
??0Vector@@QAE@XZ ENDP					; Vector::Vector
_TEXT	ENDS
; Function compile flags: /Odtp /ZI
; File d:\!diffusion 2020\source code 2022\client-server\game_shared\vector.h
;	COMDAT ?SinCos@@YAXMPAM0@Z
_TEXT	SEGMENT
_angle$ = 8						; size = 4
_sine$ = 12						; size = 4
_cosine$ = 16						; size = 4
?SinCos@@YAXMPAM0@Z PROC				; SinCos, COMDAT

; 36   : {

	push	ebp
	mov	ebp, esp
	sub	esp, 64					; 00000040H
	push	ebx
	push	esi
	push	edi

; 37   : 	/*
; 38   : 	__asm
; 39   : 	{
; 40   : 		push	ecx
; 41   : 		fld	dword ptr angle
; 42   : 		fsincos
; 43   : 		mov	ecx, dword ptr[cosine]
; 44   : 		fstp      dword ptr [ecx]
; 45   : 		mov 	ecx, dword ptr[sine]
; 46   : 		fstp	dword ptr [ecx]
; 47   : 		pop	ecx
; 48   : 	}*/
; 49   : 	*sine = sin( angle );

	cvtss2sd xmm0, DWORD PTR _angle$[ebp]
	sub	esp, 8
	movsd	QWORD PTR [esp], xmm0
	call	_sin
	add	esp, 8
	mov	eax, DWORD PTR _sine$[ebp]
	fstp	DWORD PTR [eax]

; 50   : 	*cosine = cos( angle );

	cvtss2sd xmm0, DWORD PTR _angle$[ebp]
	sub	esp, 8
	movsd	QWORD PTR [esp], xmm0
	call	_cos
	add	esp, 8
	mov	eax, DWORD PTR _cosine$[ebp]
	fstp	DWORD PTR [eax]

; 51   : }

	pop	edi
	pop	esi
	pop	ebx
	mov	esp, ebp
	pop	ebp
	ret	0
?SinCos@@YAXMPAM0@Z ENDP				; SinCos
_TEXT	ENDS
; Function compile flags: /Odtp /ZI
;	COMDAT ??__G@YGXPAX0IIP6EPAX00@Z@Z
_TEXT	SEGMENT
tv66 = -68						; size = 4
___t$ = 8						; size = 4
___u$ = 12						; size = 4
___s$ = 16						; size = 4
___n$ = 20						; size = 4
___f$ = 24						; size = 4
??__G@YGXPAX0IIP6EPAX00@Z@Z PROC			; `vector copy constructor iterator', COMDAT
	push	ebp
	mov	ebp, esp
	sub	esp, 68					; 00000044H
	push	ebx
	push	esi
	push	edi
$LN2@vector:
	mov	eax, DWORD PTR ___n$[ebp]
	mov	DWORD PTR tv66[ebp], eax
	mov	ecx, DWORD PTR ___n$[ebp]
	sub	ecx, 1
	mov	DWORD PTR ___n$[ebp], ecx
	cmp	DWORD PTR tv66[ebp], 0
	jbe	SHORT $LN1@vector
	mov	eax, DWORD PTR ___u$[ebp]
	push	eax
	mov	ecx, DWORD PTR ___t$[ebp]
	call	DWORD PTR ___f$[ebp]
	mov	eax, DWORD PTR ___t$[ebp]
	add	eax, DWORD PTR ___s$[ebp]
	mov	DWORD PTR ___t$[ebp], eax
	mov	eax, DWORD PTR ___u$[ebp]
	add	eax, DWORD PTR ___s$[ebp]
	mov	DWORD PTR ___u$[ebp], eax
	jmp	SHORT $LN2@vector
$LN1@vector:
	pop	edi
	pop	esi
	pop	ebx
	mov	esp, ebp
	pop	ebp
	ret	20					; 00000014H
??__G@YGXPAX0IIP6EPAX00@Z@Z ENDP			; `vector copy constructor iterator'
_TEXT	ENDS
; Function compile flags: /Odtp /ZI
;	COMDAT ??_H@YGXPAXIIP6EPAX0@Z@Z
_TEXT	SEGMENT
tv66 = -68						; size = 4
___t$ = 8						; size = 4
___s$ = 12						; size = 4
___n$ = 16						; size = 4
___f$ = 20						; size = 4
??_H@YGXPAXIIP6EPAX0@Z@Z PROC				; `vector constructor iterator', COMDAT
	push	ebp
	mov	ebp, esp
	sub	esp, 68					; 00000044H
	push	ebx
	push	esi
	push	edi
$LN2@vector:
	mov	eax, DWORD PTR ___n$[ebp]
	mov	DWORD PTR tv66[ebp], eax
	mov	ecx, DWORD PTR ___n$[ebp]
	sub	ecx, 1
	mov	DWORD PTR ___n$[ebp], ecx
	cmp	DWORD PTR tv66[ebp], 0
	jbe	SHORT $LN1@vector
	mov	ecx, DWORD PTR ___t$[ebp]
	call	DWORD PTR ___f$[ebp]
	mov	eax, DWORD PTR ___t$[ebp]
	add	eax, DWORD PTR ___s$[ebp]
	mov	DWORD PTR ___t$[ebp], eax
	jmp	SHORT $LN2@vector
$LN1@vector:
	pop	edi
	pop	esi
	pop	ebx
	mov	esp, ebp
	pop	ebp
	ret	16					; 00000010H
??_H@YGXPAXIIP6EPAX0@Z@Z ENDP				; `vector constructor iterator'
_TEXT	ENDS
END
