; Listing generated by Microsoft (R) Optimizing Compiler Version 19.00.24247.2 

	TITLE	D:\!DIFFUSION 2020\source code 2022\client-server\client\render\r_tempents.cpp
	.686P
	.XMM
	include listing.inc
	.model	flat

INCLUDELIB LIBCMT
INCLUDELIB OLDNAMES

_BSS	SEGMENT
?gTempEntFrame@?1??HUD_TempEntUpdate@@YAXNNNPAPAUtempent_s@@0P6AHPAUcl_entity_s@@@ZP6AXPAU2@M@Z@Z@4HA DD 01H DUP (?) ; `HUD_TempEntUpdate'::`2'::gTempEntFrame
_BSS	ENDS
PUBLIC	??_H@YGXPAXIIP6EPAX0@Z@Z			; `vector constructor iterator'
PUBLIC	??__G@YGXPAX0IIP6EPAX00@Z@Z			; `vector copy constructor iterator'
PUBLIC	?SinCos@@YAXMPAM0@Z				; SinCos
PUBLIC	??0Vector@@QAE@XZ				; Vector::Vector
PUBLIC	??0Vector@@QAE@MMM@Z				; Vector::Vector
PUBLIC	??HVector@@QBE?AV0@ABV0@@Z			; Vector::operator+
PUBLIC	??DVector@@QBE?AV0@M@Z				; Vector::operator*
PUBLIC	??YVector@@QAEAAV0@ABV0@@Z			; Vector::operator+=
PUBLIC	??XVector@@QAEAAV0@M@Z				; Vector::operator*=
PUBLIC	?Length@Vector@@QBEMXZ				; Vector::Length
PUBLIC	??BVector@@QAEPAMXZ				; Vector::operator float *
PUBLIC	?DotProduct@@YAMABVVector@@0@Z			; DotProduct
PUBLIC	?HUD_TempEntUpdate@@YAXNNNPAPAUtempent_s@@0P6AHPAUcl_entity_s@@@ZP6AXPAU1@M@Z@Z ; HUD_TempEntUpdate
PUBLIC	??0pmplane_t@@QAE@XZ				; pmplane_t::pmplane_t
PUBLIC	??0pmtrace_s@@QAE@XZ				; pmtrace_s::pmtrace_s
PUBLIC	__real@00000000
PUBLIC	__real@3dcccccd
PUBLIC	__real@3f000000
PUBLIC	__real@3f19999a
PUBLIC	__real@3f333333
PUBLIC	__real@3f666666
PUBLIC	__real@3f800000
PUBLIC	__real@3f847ae140000000
PUBLIC	__real@3fb99999a0000000
PUBLIC	__real@3fe0000000000000
PUBLIC	__real@40000000
PUBLIC	__real@4010000000000000
PUBLIC	__real@4016000000000000
PUBLIC	__real@4020000000000000
PUBLIC	__real@4024000000000000
PUBLIC	__real@4034000000000000
PUBLIC	__real@403e000000000000
PUBLIC	__real@40400000
PUBLIC	__real@41000000
PUBLIC	__real@41200000
PUBLIC	__real@42700000
PUBLIC	__real@42b40000
PUBLIC	__xmm@80000000000000008000000000000000
PUBLIC	__xmm@80000000800000008000000080000000
EXTRN	_cos:PROC
EXTRN	_sin:PROC
EXTRN	_sqrt:PROC
EXTRN	?R_SetupLightProjection@@YAXPAUplight_s@@ABVVector@@1MM@Z:PROC ; R_SetupLightProjection
EXTRN	?R_SetupLightAttenuationTexture@@YAXPAUplight_s@@H@Z:PROC ; R_SetupLightAttenuationTexture
EXTRN	?CL_AllocPlight@@YAPAUplight_s@@H@Z:PROC	; CL_AllocPlight
EXTRN	?g_vecZero@@3VVector@@B:BYTE			; g_vecZero
EXTRN	?gEngfuncs@@3Ucl_enginefuncs_s@@A:BYTE		; gEngfuncs
EXTRN	?tr@@3Uref_globals_t@@A:BYTE			; tr
EXTRN	?r_stats@@3Uref_stats_t@@A:BYTE			; r_stats
EXTRN	__fltused:DWORD
;	COMDAT __xmm@80000000800000008000000080000000
CONST	SEGMENT
__xmm@80000000800000008000000080000000 DB 00H, 00H, 00H, 080H, 00H, 00H, 00H
	DB	080H, 00H, 00H, 00H, 080H, 00H, 00H, 00H, 080H
CONST	ENDS
;	COMDAT __xmm@80000000000000008000000000000000
CONST	SEGMENT
__xmm@80000000000000008000000000000000 DB 00H, 00H, 00H, 00H, 00H, 00H, 00H
	DB	080H, 00H, 00H, 00H, 00H, 00H, 00H, 00H, 080H
CONST	ENDS
;	COMDAT __real@42b40000
CONST	SEGMENT
__real@42b40000 DD 042b40000r			; 90
CONST	ENDS
;	COMDAT __real@42700000
CONST	SEGMENT
__real@42700000 DD 042700000r			; 60
CONST	ENDS
;	COMDAT __real@41200000
CONST	SEGMENT
__real@41200000 DD 041200000r			; 10
CONST	ENDS
;	COMDAT __real@41000000
CONST	SEGMENT
__real@41000000 DD 041000000r			; 8
CONST	ENDS
;	COMDAT __real@40400000
CONST	SEGMENT
__real@40400000 DD 040400000r			; 3
CONST	ENDS
;	COMDAT __real@403e000000000000
CONST	SEGMENT
__real@403e000000000000 DQ 0403e000000000000r	; 30
CONST	ENDS
;	COMDAT __real@4034000000000000
CONST	SEGMENT
__real@4034000000000000 DQ 04034000000000000r	; 20
CONST	ENDS
;	COMDAT __real@4024000000000000
CONST	SEGMENT
__real@4024000000000000 DQ 04024000000000000r	; 10
CONST	ENDS
;	COMDAT __real@4020000000000000
CONST	SEGMENT
__real@4020000000000000 DQ 04020000000000000r	; 8
CONST	ENDS
;	COMDAT __real@4016000000000000
CONST	SEGMENT
__real@4016000000000000 DQ 04016000000000000r	; 5.5
CONST	ENDS
;	COMDAT __real@4010000000000000
CONST	SEGMENT
__real@4010000000000000 DQ 04010000000000000r	; 4
CONST	ENDS
;	COMDAT __real@40000000
CONST	SEGMENT
__real@40000000 DD 040000000r			; 2
CONST	ENDS
;	COMDAT __real@3fe0000000000000
CONST	SEGMENT
__real@3fe0000000000000 DQ 03fe0000000000000r	; 0.5
CONST	ENDS
;	COMDAT __real@3fb99999a0000000
CONST	SEGMENT
__real@3fb99999a0000000 DQ 03fb99999a0000000r	; 0.1
CONST	ENDS
;	COMDAT __real@3f847ae140000000
CONST	SEGMENT
__real@3f847ae140000000 DQ 03f847ae140000000r	; 0.01
CONST	ENDS
;	COMDAT __real@3f800000
CONST	SEGMENT
__real@3f800000 DD 03f800000r			; 1
CONST	ENDS
;	COMDAT __real@3f666666
CONST	SEGMENT
__real@3f666666 DD 03f666666r			; 0.9
CONST	ENDS
;	COMDAT __real@3f333333
CONST	SEGMENT
__real@3f333333 DD 03f333333r			; 0.7
CONST	ENDS
;	COMDAT __real@3f19999a
CONST	SEGMENT
__real@3f19999a DD 03f19999ar			; 0.6
CONST	ENDS
;	COMDAT __real@3f000000
CONST	SEGMENT
__real@3f000000 DD 03f000000r			; 0.5
CONST	ENDS
;	COMDAT __real@3dcccccd
CONST	SEGMENT
__real@3dcccccd DD 03dcccccdr			; 0.1
CONST	ENDS
;	COMDAT __real@00000000
CONST	SEGMENT
__real@00000000 DD 000000000r			; 0
CONST	ENDS
; Function compile flags: /Odtp /ZI
;	COMDAT ??0pmtrace_s@@QAE@XZ
_TEXT	SEGMENT
_this$ = -4						; size = 4
??0pmtrace_s@@QAE@XZ PROC				; pmtrace_s::pmtrace_s, COMDAT
; _this$ = ecx
	push	ebp
	mov	ebp, esp
	sub	esp, 68					; 00000044H
	push	ebx
	push	esi
	push	edi
	mov	DWORD PTR _this$[ebp], ecx
	mov	ecx, DWORD PTR _this$[ebp]
	add	ecx, 20					; 00000014H
	call	??0Vector@@QAE@XZ			; Vector::Vector
	mov	ecx, DWORD PTR _this$[ebp]
	add	ecx, 32					; 00000020H
	call	??0pmplane_t@@QAE@XZ
	mov	ecx, DWORD PTR _this$[ebp]
	add	ecx, 52					; 00000034H
	call	??0Vector@@QAE@XZ			; Vector::Vector
	mov	eax, DWORD PTR _this$[ebp]
	pop	edi
	pop	esi
	pop	ebx
	mov	esp, ebp
	pop	ebp
	ret	0
??0pmtrace_s@@QAE@XZ ENDP				; pmtrace_s::pmtrace_s
_TEXT	ENDS
; Function compile flags: /Odtp /ZI
;	COMDAT ??0pmplane_t@@QAE@XZ
_TEXT	SEGMENT
_this$ = -4						; size = 4
??0pmplane_t@@QAE@XZ PROC				; pmplane_t::pmplane_t, COMDAT
; _this$ = ecx
	push	ebp
	mov	ebp, esp
	sub	esp, 68					; 00000044H
	push	ebx
	push	esi
	push	edi
	mov	DWORD PTR _this$[ebp], ecx
	mov	ecx, DWORD PTR _this$[ebp]
	call	??0Vector@@QAE@XZ			; Vector::Vector
	mov	eax, DWORD PTR _this$[ebp]
	pop	edi
	pop	esi
	pop	ebx
	mov	esp, ebp
	pop	ebp
	ret	0
??0pmplane_t@@QAE@XZ ENDP				; pmplane_t::pmplane_t
_TEXT	ENDS
; Function compile flags: /Odtp /ZI
; File d:\!diffusion 2020\source code 2022\client-server\client\render\r_tempents.cpp
;	COMDAT ?HUD_TempEntUpdate@@YAXNNNPAPAUtempent_s@@0P6AHPAUcl_entity_s@@@ZP6AXPAU1@M@Z@Z
_TEXT	SEGMENT
tv1360 = -372						; size = 4
tv1356 = -372						; size = 4
tv1035 = -372						; size = 8
tv1020 = -372						; size = 8
tv986 = -368						; size = 8
tv971 = -368						; size = 8
tv1364 = -364						; size = 8
tv1362 = -364						; size = 8
tv1358 = -360						; size = 8
tv1354 = -360						; size = 8
tv1204 = -356						; size = 4
tv410 = -356						; size = 4
tv391 = -356						; size = 4
tv365 = -356						; size = 4
tv325 = -356						; size = 4
$T1 = -352						; size = 12
$T2 = -340						; size = 12
$T3 = -328						; size = 12
$T4 = -316						; size = 12
$T5 = -304						; size = 12
$T6 = -292						; size = 12
_dl$7 = -216						; size = 4
_damp$8 = -212						; size = 4
_proj$9 = -208						; size = 4
_pmtrace$10 = -204					; size = 68
_pe$11 = -136						; size = 4
_pmtrace$12 = -132					; size = 68
_traceFraction$13 = -64					; size = 4
_traceNormal$14 = -60					; size = 12
_c$15 = -48						; size = 4
_s$16 = -44						; size = 4
_pClient$17 = -40					; size = 4
_active$18 = -36					; size = 4
_fastFreq$ = -32					; size = 4
_life$ = -28						; size = 4
_gravitySlow$ = -24					; size = 4
_gravity$ = -20						; size = 4
_freq$ = -16						; size = 4
_pprev$ = -12						; size = 4
_pnext$ = -8						; size = 4
_pTemp$ = -4						; size = 4
_frametime$ = 8						; size = 8
_client_time$ = 16					; size = 8
_cl_gravity$ = 24					; size = 8
_ppTempEntFree$ = 32					; size = 4
_ppTempEntActive$ = 36					; size = 4
_Callback_AddVisibleEntity$ = 40			; size = 4
_Callback_TempEntPlaySound$ = 44			; size = 4
?HUD_TempEntUpdate@@YAXNNNPAPAUtempent_s@@0P6AHPAUcl_entity_s@@@ZP6AXPAU1@M@Z@Z PROC ; HUD_TempEntUpdate, COMDAT

; 43   : {

	push	ebp
	mov	ebp, esp
	sub	esp, 372				; 00000174H
	push	ebx
	push	esi
	push	edi

; 44   : 	static int gTempEntFrame = 0;
; 45   : 	TEMPENTITY *pTemp, *pnext, *pprev;
; 46   : 	float freq, gravity, gravitySlow, life, fastFreq;
; 47   : 
; 48   : 	// nothing to simulate
; 49   : 	if( !*ppTempEntActive ) return;

	mov	eax, DWORD PTR _ppTempEntActive$[ebp]
	cmp	DWORD PTR [eax], 0
	jne	SHORT $LN6@HUD_TempEn
	jmp	$LN1@HUD_TempEn
$LN6@HUD_TempEn:

; 50   : 
; 51   : 	// in order to have tents collide with players, we have to run the player prediction code so
; 52   : 	// that the client has the player list. We run this code once when we detect any COLLIDEALL 
; 53   : 	// tent, then set this BOOL to true so the code doesn't get run again if there's more than
; 54   : 	// one COLLIDEALL ent for this update. (often are).
; 55   : 	gEngfuncs.pEventAPI->EV_SetUpPlayerPrediction( false, true );

	push	1
	push	0
	mov	eax, DWORD PTR ?gEngfuncs@@3Ucl_enginefuncs_s@@A+336
	mov	ecx, DWORD PTR [eax+40]
	call	ecx
	add	esp, 8

; 56   : 
; 57   : 	// Store off the old count
; 58   : 	gEngfuncs.pEventAPI->EV_PushPMStates();

	mov	eax, DWORD PTR ?gEngfuncs@@3Ucl_enginefuncs_s@@A+336
	mov	ecx, DWORD PTR [eax+44]
	call	ecx

; 59   : 
; 60   : 	// Now add in all of the players.
; 61   : 	gEngfuncs.pEventAPI->EV_SetSolidPlayers( -1 );	

	push	-1
	mov	eax, DWORD PTR ?gEngfuncs@@3Ucl_enginefuncs_s@@A+336
	mov	ecx, DWORD PTR [eax+52]
	call	ecx
	add	esp, 4

; 62   : 
; 63   : 	// !!!BUGBUG -- This needs to be time based
; 64   : 	gTempEntFrame = (gTempEntFrame+1) & 31;

	mov	eax, DWORD PTR ?gTempEntFrame@?1??HUD_TempEntUpdate@@YAXNNNPAPAUtempent_s@@0P6AHPAUcl_entity_s@@@ZP6AXPAU2@M@Z@Z@4HA
	add	eax, 1
	and	eax, 31					; 0000001fH
	mov	DWORD PTR ?gTempEntFrame@?1??HUD_TempEntUpdate@@YAXNNNPAPAUtempent_s@@0P6AHPAUcl_entity_s@@@ZP6AXPAU2@M@Z@Z@4HA, eax

; 65   : 
; 66   : 	pTemp = *ppTempEntActive;

	mov	eax, DWORD PTR _ppTempEntActive$[ebp]
	mov	ecx, DWORD PTR [eax]
	mov	DWORD PTR _pTemp$[ebp], ecx

; 67   : 
; 68   : 	// !!! Don't simulate while paused....  This is sort of a hack, revisit.
; 69   : 	if( frametime <= 0 )

	xorps	xmm0, xmm0
	comisd	xmm0, QWORD PTR _frametime$[ebp]
	jb	SHORT $LN7@HUD_TempEn
$LN2@HUD_TempEn:

; 70   : 	{
; 71   : 		while( pTemp )

	cmp	DWORD PTR _pTemp$[ebp], 0
	je	SHORT $LN3@HUD_TempEn

; 72   : 		{
; 73   : 			if(!( pTemp->flags & FTENT_NOMODEL ))

	mov	eax, DWORD PTR _pTemp$[ebp]
	mov	ecx, DWORD PTR [eax]
	and	ecx, 262144				; 00040000H
	jne	SHORT $LN8@HUD_TempEn

; 74   : 			{
; 75   : 				Callback_AddVisibleEntity( &pTemp->entity );

	mov	eax, DWORD PTR _pTemp$[ebp]
	add	eax, 68					; 00000044H
	push	eax
	call	DWORD PTR _Callback_AddVisibleEntity$[ebp]
	add	esp, 4

; 76   : 				r_stats.c_active_tents_count++;

	mov	eax, DWORD PTR ?r_stats@@3Uref_stats_t@@A+20
	add	eax, 1
	mov	DWORD PTR ?r_stats@@3Uref_stats_t@@A+20, eax
$LN8@HUD_TempEn:

; 77   : 			}
; 78   : 			pTemp = pTemp->next;

	mov	eax, DWORD PTR _pTemp$[ebp]
	mov	ecx, DWORD PTR [eax+44]
	mov	DWORD PTR _pTemp$[ebp], ecx

; 79   : 		}

	jmp	SHORT $LN2@HUD_TempEn
$LN3@HUD_TempEn:

; 80   : 		goto finish;

	jmp	$LN9@HUD_TempEn
	jmp	$finish$72
$LN7@HUD_TempEn:

; 81   : 	}
; 82   : 
; 83   : 	pprev = NULL;

	mov	DWORD PTR _pprev$[ebp], 0

; 84   : 	freq = client_time * 0.01f;

	movsd	xmm0, QWORD PTR _client_time$[ebp]
	mulsd	xmm0, QWORD PTR __real@3f847ae140000000
	cvtsd2ss xmm0, xmm0
	movss	DWORD PTR _freq$[ebp], xmm0

; 85   : 	fastFreq = client_time * 5.5f;

	movsd	xmm0, QWORD PTR _client_time$[ebp]
	mulsd	xmm0, QWORD PTR __real@4016000000000000
	cvtsd2ss xmm0, xmm0
	movss	DWORD PTR _fastFreq$[ebp], xmm0

; 86   : 	gravity = -frametime * cl_gravity;

	movsd	xmm0, QWORD PTR _frametime$[ebp]
	xorps	xmm0, QWORD PTR __xmm@80000000000000008000000000000000
	mulsd	xmm0, QWORD PTR _cl_gravity$[ebp]
	cvtsd2ss xmm0, xmm0
	movss	DWORD PTR _gravity$[ebp], xmm0

; 87   : 	gravitySlow = gravity * 0.5f;

	movss	xmm0, DWORD PTR _gravity$[ebp]
	mulss	xmm0, DWORD PTR __real@3f000000
	movss	DWORD PTR _gravitySlow$[ebp], xmm0
$LN71@HUD_TempEn:

; 88   : 
; 89   : 	while( pTemp )

	cmp	DWORD PTR _pTemp$[ebp], 0
	je	$LN5@HUD_TempEn

; 90   : 	{
; 91   : 		int active = 1;

	mov	DWORD PTR _active$18[ebp], 1

; 92   : 
; 93   : 		life = pTemp->die - client_time;

	mov	eax, DWORD PTR _pTemp$[ebp]
	cvtss2sd xmm0, DWORD PTR [eax+4]
	subsd	xmm0, QWORD PTR _client_time$[ebp]
	cvtsd2ss xmm0, xmm0
	movss	DWORD PTR _life$[ebp], xmm0

; 94   : 		pnext = pTemp->next;

	mov	eax, DWORD PTR _pTemp$[ebp]
	mov	ecx, DWORD PTR [eax+44]
	mov	DWORD PTR _pnext$[ebp], ecx

; 95   : 
; 96   : 		if( life < 0 )

	xorps	xmm0, xmm0
	comiss	xmm0, DWORD PTR _life$[ebp]
	jbe	SHORT $LN12@HUD_TempEn

; 97   : 		{
; 98   : 			if( pTemp->flags & FTENT_FADEOUT )

	mov	eax, DWORD PTR _pTemp$[ebp]
	mov	ecx, DWORD PTR [eax]
	and	ecx, 128				; 00000080H
	je	SHORT $LN11@HUD_TempEn

; 99   : 			{
; 100  : 				if( pTemp->entity.curstate.rendermode == kRenderNormal )

	mov	eax, DWORD PTR _pTemp$[ebp]
	cmp	DWORD PTR [eax+828], 0
	jne	SHORT $LN13@HUD_TempEn

; 101  : 					pTemp->entity.curstate.rendermode = kRenderFade;

	mov	eax, DWORD PTR _pTemp$[ebp]
	mov	DWORD PTR [eax+828], 6
$LN13@HUD_TempEn:

; 102  : 				pTemp->entity.curstate.renderamt = pTemp->entity.baseline.renderamt * ( 1.0f + life * pTemp->fadeSpeed );

	mov	eax, DWORD PTR _pTemp$[ebp]
	cvtsi2ss xmm0, DWORD PTR [eax+152]
	mov	ecx, DWORD PTR _pTemp$[ebp]
	movss	xmm1, DWORD PTR _life$[ebp]
	mulss	xmm1, DWORD PTR [ecx+24]
	addss	xmm1, DWORD PTR __real@3f800000
	mulss	xmm0, xmm1
	cvttss2si edx, xmm0
	mov	eax, DWORD PTR _pTemp$[ebp]
	mov	DWORD PTR [eax+832], edx

; 103  : 
; 104  : 				if( pTemp->entity.curstate.renderamt <= 0 )

	mov	eax, DWORD PTR _pTemp$[ebp]
	cmp	DWORD PTR [eax+832], 0
	jg	SHORT $LN14@HUD_TempEn

; 105  : 					active = 0;

	mov	DWORD PTR _active$18[ebp], 0
$LN14@HUD_TempEn:

; 106  : 
; 107  : 			}

	jmp	SHORT $LN12@HUD_TempEn
$LN11@HUD_TempEn:

; 108  : 			else active = 0;

	mov	DWORD PTR _active$18[ebp], 0
$LN12@HUD_TempEn:

; 109  : 		}
; 110  : 
; 111  : 		if( !active ) // Kill it

	cmp	DWORD PTR _active$18[ebp], 0
	jne	SHORT $LN15@HUD_TempEn

; 112  : 		{
; 113  : 			pTemp->next = *ppTempEntFree;

	mov	eax, DWORD PTR _pTemp$[ebp]
	mov	ecx, DWORD PTR _ppTempEntFree$[ebp]
	mov	edx, DWORD PTR [ecx]
	mov	DWORD PTR [eax+44], edx

; 114  : 			*ppTempEntFree = pTemp;

	mov	eax, DWORD PTR _ppTempEntFree$[ebp]
	mov	ecx, DWORD PTR _pTemp$[ebp]
	mov	DWORD PTR [eax], ecx

; 115  : 
; 116  : 			if( !pprev ) // deleting at head of list

	cmp	DWORD PTR _pprev$[ebp], 0
	jne	SHORT $LN17@HUD_TempEn

; 117  : 				*ppTempEntActive = pnext;

	mov	eax, DWORD PTR _ppTempEntActive$[ebp]
	mov	ecx, DWORD PTR _pnext$[ebp]
	mov	DWORD PTR [eax], ecx

; 118  : 			else

	jmp	SHORT $LN18@HUD_TempEn
$LN17@HUD_TempEn:

; 119  : 				pprev->next = pnext;

	mov	eax, DWORD PTR _pprev$[ebp]
	mov	ecx, DWORD PTR _pnext$[ebp]
	mov	DWORD PTR [eax+44], ecx
$LN18@HUD_TempEn:

; 120  : 		}
; 121  : 		else

	jmp	$LN68@HUD_TempEn
$LN15@HUD_TempEn:

; 122  : 		{
; 123  : 			pprev = pTemp;

	mov	eax, DWORD PTR _pTemp$[ebp]
	mov	DWORD PTR _pprev$[ebp], eax

; 124  : 			
; 125  : 			pTemp->entity.prevstate.origin = pTemp->entity.origin;

	mov	eax, DWORD PTR _pTemp$[ebp]
	add	eax, 2956				; 00000b8cH
	mov	ecx, DWORD PTR _pTemp$[ebp]
	add	ecx, 432				; 000001b0H
	mov	edx, DWORD PTR [eax]
	mov	DWORD PTR [ecx], edx
	mov	edx, DWORD PTR [eax+4]
	mov	DWORD PTR [ecx+4], edx
	mov	eax, DWORD PTR [eax+8]
	mov	DWORD PTR [ecx+8], eax

; 126  : 
; 127  : 			if( pTemp->flags & FTENT_SPARKSHOWER )

	mov	eax, DWORD PTR _pTemp$[ebp]
	mov	ecx, DWORD PTR [eax]
	and	ecx, 131072				; 00020000H
	je	$LN19@HUD_TempEn

; 128  : 			{
; 129  : 				// Adjust speed if it's time
; 130  : 				// Scale is next think time
; 131  : 				if( client_time > pTemp->entity.baseline.scale )

	mov	eax, DWORD PTR _pTemp$[ebp]
	cvtss2sd xmm0, DWORD PTR [eax+140]
	movsd	xmm1, QWORD PTR _client_time$[ebp]
	comisd	xmm1, xmm0
	jbe	$LN23@HUD_TempEn

; 132  : 				{
; 133  : 					// show Sparks
; 134  : 					gEngfuncs.pEfxAPI->R_SparkEffect( pTemp->entity.origin, 8, -200, 200 );

	push	200					; 000000c8H
	push	-200					; ffffff38H
	push	8
	mov	ecx, DWORD PTR _pTemp$[ebp]
	add	ecx, 2956				; 00000b8cH
	call	??BVector@@QAEPAMXZ			; Vector::operator float *
	push	eax
	mov	eax, DWORD PTR ?gEngfuncs@@3Ucl_enginefuncs_s@@A+332
	mov	ecx, DWORD PTR [eax+132]
	call	ecx
	add	esp, 16					; 00000010H

; 135  : 
; 136  : 					// reduce life
; 137  : 					pTemp->entity.baseline.framerate -= 0.1f;

	mov	eax, DWORD PTR _pTemp$[ebp]
	movss	xmm0, DWORD PTR [eax+172]
	subss	xmm0, DWORD PTR __real@3dcccccd
	mov	ecx, DWORD PTR _pTemp$[ebp]
	movss	DWORD PTR [ecx+172], xmm0

; 138  : 
; 139  : 					if( pTemp->entity.baseline.framerate <= 0.0f )

	mov	eax, DWORD PTR _pTemp$[ebp]
	xorps	xmm0, xmm0
	comiss	xmm0, DWORD PTR [eax+172]
	jb	SHORT $LN22@HUD_TempEn

; 140  : 					{
; 141  : 						pTemp->die = client_time;

	cvtsd2ss xmm0, QWORD PTR _client_time$[ebp]
	mov	eax, DWORD PTR _pTemp$[ebp]
	movss	DWORD PTR [eax+4], xmm0

; 142  : 					}
; 143  : 					else

	jmp	SHORT $LN23@HUD_TempEn
$LN22@HUD_TempEn:

; 144  : 					{
; 145  : 						// so it will die no matter what
; 146  : 						pTemp->die = client_time + 0.5;

	movsd	xmm0, QWORD PTR _client_time$[ebp]
	addsd	xmm0, QWORD PTR __real@3fe0000000000000
	cvtsd2ss xmm0, xmm0
	mov	eax, DWORD PTR _pTemp$[ebp]
	movss	DWORD PTR [eax+4], xmm0

; 147  : 
; 148  : 						// next think
; 149  : 						pTemp->entity.baseline.scale = client_time + 0.1f;

	movsd	xmm0, QWORD PTR _client_time$[ebp]
	addsd	xmm0, QWORD PTR __real@3fb99999a0000000
	cvtsd2ss xmm0, xmm0
	mov	eax, DWORD PTR _pTemp$[ebp]
	movss	DWORD PTR [eax+140], xmm0
$LN23@HUD_TempEn:

; 150  : 					}
; 151  : 				}
; 152  : 			}

	jmp	$LN29@HUD_TempEn
$LN19@HUD_TempEn:

; 153  : 			else if( pTemp->flags & FTENT_PLYRATTACHMENT )

	mov	eax, DWORD PTR _pTemp$[ebp]
	mov	ecx, DWORD PTR [eax]
	and	ecx, 32768				; 00008000H
	je	SHORT $LN24@HUD_TempEn

; 154  : 			{
; 155  : 				cl_entity_t *pClient;
; 156  : 
; 157  : 				pClient = gEngfuncs.GetEntityByIndex( pTemp->clientIndex );

	mov	eax, DWORD PTR _pTemp$[ebp]
	movsx	ecx, WORD PTR [eax+52]
	push	ecx
	call	DWORD PTR ?gEngfuncs@@3Ucl_enginefuncs_s@@A+212
	add	esp, 4
	mov	DWORD PTR _pClient$17[ebp], eax

; 158  : 				pTemp->entity.origin = pClient->origin + pTemp->tentOffset;

	mov	eax, DWORD PTR _pTemp$[ebp]
	add	eax, 56					; 00000038H
	push	eax
	lea	ecx, DWORD PTR $T6[ebp]
	push	ecx
	mov	ecx, DWORD PTR _pClient$17[ebp]
	add	ecx, 2888				; 00000b48H
	call	??HVector@@QBE?AV0@ABV0@@Z		; Vector::operator+
	mov	edx, DWORD PTR _pTemp$[ebp]
	add	edx, 2956				; 00000b8cH
	mov	ecx, DWORD PTR [eax]
	mov	DWORD PTR [edx], ecx
	mov	ecx, DWORD PTR [eax+4]
	mov	DWORD PTR [edx+4], ecx
	mov	eax, DWORD PTR [eax+8]
	mov	DWORD PTR [edx+8], eax
	jmp	$LN29@HUD_TempEn
$LN24@HUD_TempEn:

; 159  : 			}
; 160  : 			else if( pTemp->flags & FTENT_SINEWAVE )

	mov	eax, DWORD PTR _pTemp$[ebp]
	mov	ecx, DWORD PTR [eax]
	and	ecx, 1
	je	$LN26@HUD_TempEn

; 161  : 			{
; 162  : 				pTemp->x += pTemp->entity.baseline.origin[0] * frametime;

	mov	ecx, DWORD PTR _pTemp$[ebp]
	add	ecx, 92					; 0000005cH
	call	??BVector@@QAEPAMXZ			; Vector::operator float *
	mov	ecx, 4
	imul	edx, ecx, 0
	cvtss2sd xmm0, DWORD PTR [eax+edx]
	mulsd	xmm0, QWORD PTR _frametime$[ebp]
	mov	eax, DWORD PTR _pTemp$[ebp]
	cvtss2sd xmm1, DWORD PTR [eax+12]
	addsd	xmm1, xmm0
	cvtsd2ss xmm0, xmm1
	mov	ecx, DWORD PTR _pTemp$[ebp]
	movss	DWORD PTR [ecx+12], xmm0

; 163  : 				pTemp->y += pTemp->entity.baseline.origin[1] * frametime;

	mov	ecx, DWORD PTR _pTemp$[ebp]
	add	ecx, 92					; 0000005cH
	call	??BVector@@QAEPAMXZ			; Vector::operator float *
	mov	ecx, 4
	shl	ecx, 0
	cvtss2sd xmm0, DWORD PTR [eax+ecx]
	mulsd	xmm0, QWORD PTR _frametime$[ebp]
	mov	edx, DWORD PTR _pTemp$[ebp]
	cvtss2sd xmm1, DWORD PTR [edx+16]
	addsd	xmm1, xmm0
	cvtsd2ss xmm0, xmm1
	mov	eax, DWORD PTR _pTemp$[ebp]
	movss	DWORD PTR [eax+16], xmm0

; 164  : 
; 165  : 				pTemp->entity.origin[0] = pTemp->x + sin( pTemp->entity.baseline.origin[2] + client_time * pTemp->entity.prevstate.frame ) * (10 * pTemp->entity.curstate.framerate);

	mov	eax, DWORD PTR _pTemp$[ebp]
	cvtss2sd xmm0, DWORD PTR [eax+12]
	mov	ecx, DWORD PTR _pTemp$[ebp]
	add	ecx, 92					; 0000005cH
	movsd	QWORD PTR tv1354[ebp], xmm0
	call	??BVector@@QAEPAMXZ			; Vector::operator float *
	mov	ecx, 4
	shl	ecx, 1
	cvtss2sd xmm0, DWORD PTR [eax+ecx]
	mov	edx, DWORD PTR _pTemp$[ebp]
	cvtss2sd xmm1, DWORD PTR [edx+464]
	mulsd	xmm1, QWORD PTR _client_time$[ebp]
	addsd	xmm0, xmm1
	sub	esp, 8
	movsd	QWORD PTR [esp], xmm0
	call	_sin
	add	esp, 8
	fstp	QWORD PTR tv971[ebp]
	movsd	xmm0, QWORD PTR tv971[ebp]
	mov	eax, DWORD PTR _pTemp$[ebp]
	movss	xmm1, DWORD PTR __real@41200000
	mulss	xmm1, DWORD PTR [eax+852]
	cvtss2sd xmm1, xmm1
	mulsd	xmm0, xmm1
	movsd	xmm1, QWORD PTR tv1354[ebp]
	addsd	xmm1, xmm0
	cvtsd2ss xmm0, xmm1
	mov	ecx, DWORD PTR _pTemp$[ebp]
	add	ecx, 2956				; 00000b8cH
	movss	DWORD PTR tv1356[ebp], xmm0
	call	??BVector@@QAEPAMXZ			; Vector::operator float *
	mov	ecx, 4
	imul	edx, ecx, 0
	movss	xmm0, DWORD PTR tv1356[ebp]
	movss	DWORD PTR [eax+edx], xmm0

; 166  : 				pTemp->entity.origin[1] = pTemp->y + sin( pTemp->entity.baseline.origin[2] + fastFreq + 0.7f ) * (8 * pTemp->entity.curstate.framerate);

	mov	eax, DWORD PTR _pTemp$[ebp]
	cvtss2sd xmm0, DWORD PTR [eax+16]
	mov	ecx, DWORD PTR _pTemp$[ebp]
	add	ecx, 92					; 0000005cH
	movsd	QWORD PTR tv1358[ebp], xmm0
	call	??BVector@@QAEPAMXZ			; Vector::operator float *
	mov	ecx, 4
	shl	ecx, 1
	movss	xmm0, DWORD PTR [eax+ecx]
	addss	xmm0, DWORD PTR _fastFreq$[ebp]
	addss	xmm0, DWORD PTR __real@3f333333
	cvtss2sd xmm0, xmm0
	sub	esp, 8
	movsd	QWORD PTR [esp], xmm0
	call	_sin
	add	esp, 8
	fstp	QWORD PTR tv986[ebp]
	movsd	xmm0, QWORD PTR tv986[ebp]
	mov	edx, DWORD PTR _pTemp$[ebp]
	movss	xmm1, DWORD PTR __real@41000000
	mulss	xmm1, DWORD PTR [edx+852]
	cvtss2sd xmm1, xmm1
	mulsd	xmm0, xmm1
	movsd	xmm1, QWORD PTR tv1358[ebp]
	addsd	xmm1, xmm0
	cvtsd2ss xmm0, xmm1
	mov	ecx, DWORD PTR _pTemp$[ebp]
	add	ecx, 2956				; 00000b8cH
	movss	DWORD PTR tv1360[ebp], xmm0
	call	??BVector@@QAEPAMXZ			; Vector::operator float *
	mov	ecx, 4
	shl	ecx, 0
	movss	xmm0, DWORD PTR tv1360[ebp]
	movss	DWORD PTR [eax+ecx], xmm0

; 167  : 				pTemp->entity.origin[2] += pTemp->entity.baseline.origin[2] * frametime;

	mov	ecx, DWORD PTR _pTemp$[ebp]
	add	ecx, 2956				; 00000b8cH
	call	??BVector@@QAEPAMXZ			; Vector::operator float *
	mov	ecx, 4
	shl	ecx, 1
	add	eax, ecx
	mov	DWORD PTR tv325[ebp], eax
	mov	ecx, DWORD PTR _pTemp$[ebp]
	add	ecx, 92					; 0000005cH
	call	??BVector@@QAEPAMXZ			; Vector::operator float *
	mov	edx, 4
	shl	edx, 1
	cvtss2sd xmm0, DWORD PTR [eax+edx]
	mulsd	xmm0, QWORD PTR _frametime$[ebp]
	mov	eax, DWORD PTR tv325[ebp]
	cvtss2sd xmm1, DWORD PTR [eax]
	addsd	xmm1, xmm0
	cvtsd2ss xmm0, xmm1
	mov	ecx, DWORD PTR tv325[ebp]
	movss	DWORD PTR [ecx], xmm0
	jmp	$LN29@HUD_TempEn
$LN26@HUD_TempEn:

; 168  : 			}
; 169  : 			else if( pTemp->flags & FTENT_SPIRAL )

	mov	eax, DWORD PTR _pTemp$[ebp]
	mov	ecx, DWORD PTR [eax]
	and	ecx, 1024				; 00000400H
	je	$LN28@HUD_TempEn

; 170  : 			{
; 171  : 				float s, c;
; 172  : 				SinCos( pTemp->entity.baseline.origin[2] + fastFreq, &s, &c );

	lea	eax, DWORD PTR _c$15[ebp]
	push	eax
	lea	ecx, DWORD PTR _s$16[ebp]
	push	ecx
	mov	ecx, DWORD PTR _pTemp$[ebp]
	add	ecx, 92					; 0000005cH
	call	??BVector@@QAEPAMXZ			; Vector::operator float *
	mov	edx, 4
	shl	edx, 1
	movss	xmm0, DWORD PTR [eax+edx]
	addss	xmm0, DWORD PTR _fastFreq$[ebp]
	push	ecx
	movss	DWORD PTR [esp], xmm0
	call	?SinCos@@YAXMPAM0@Z			; SinCos
	add	esp, 12					; 0000000cH

; 173  : 
; 174  : 				pTemp->entity.origin[0] += pTemp->entity.baseline.origin[0] * frametime + 8 * sin( client_time * 20 + (int)pTemp );

	mov	ecx, DWORD PTR _pTemp$[ebp]
	add	ecx, 2956				; 00000b8cH
	call	??BVector@@QAEPAMXZ			; Vector::operator float *
	mov	ecx, 4
	imul	edx, ecx, 0
	add	eax, edx
	mov	DWORD PTR tv365[ebp], eax
	mov	ecx, DWORD PTR _pTemp$[ebp]
	add	ecx, 92					; 0000005cH
	call	??BVector@@QAEPAMXZ			; Vector::operator float *
	mov	ecx, 4
	imul	edx, ecx, 0
	cvtss2sd xmm0, DWORD PTR [eax+edx]
	mulsd	xmm0, QWORD PTR _frametime$[ebp]
	movsd	xmm1, QWORD PTR _client_time$[ebp]
	mulsd	xmm1, QWORD PTR __real@4034000000000000
	cvtsi2sd xmm2, DWORD PTR _pTemp$[ebp]
	addsd	xmm1, xmm2
	sub	esp, 8
	movsd	QWORD PTR [esp], xmm1
	movsd	QWORD PTR tv1362[ebp], xmm0
	call	_sin
	add	esp, 8
	fstp	QWORD PTR tv1020[ebp]
	movsd	xmm0, QWORD PTR tv1020[ebp]
	mulsd	xmm0, QWORD PTR __real@4020000000000000
	movsd	xmm1, QWORD PTR tv1362[ebp]
	addsd	xmm1, xmm0
	mov	eax, DWORD PTR tv365[ebp]
	cvtss2sd xmm0, DWORD PTR [eax]
	addsd	xmm0, xmm1
	cvtsd2ss xmm0, xmm0
	mov	ecx, DWORD PTR tv365[ebp]
	movss	DWORD PTR [ecx], xmm0

; 175  : 				pTemp->entity.origin[1] += pTemp->entity.baseline.origin[1] * frametime + 4 * sin( client_time * 30 + (int)pTemp );

	mov	ecx, DWORD PTR _pTemp$[ebp]
	add	ecx, 2956				; 00000b8cH
	call	??BVector@@QAEPAMXZ			; Vector::operator float *
	mov	ecx, 4
	shl	ecx, 0
	add	eax, ecx
	mov	DWORD PTR tv391[ebp], eax
	mov	ecx, DWORD PTR _pTemp$[ebp]
	add	ecx, 92					; 0000005cH
	call	??BVector@@QAEPAMXZ			; Vector::operator float *
	mov	edx, 4
	shl	edx, 0
	cvtss2sd xmm0, DWORD PTR [eax+edx]
	mulsd	xmm0, QWORD PTR _frametime$[ebp]
	movsd	xmm1, QWORD PTR _client_time$[ebp]
	mulsd	xmm1, QWORD PTR __real@403e000000000000
	cvtsi2sd xmm2, DWORD PTR _pTemp$[ebp]
	addsd	xmm1, xmm2
	sub	esp, 8
	movsd	QWORD PTR [esp], xmm1
	movsd	QWORD PTR tv1364[ebp], xmm0
	call	_sin
	add	esp, 8
	fstp	QWORD PTR tv1035[ebp]
	movsd	xmm0, QWORD PTR tv1035[ebp]
	mulsd	xmm0, QWORD PTR __real@4010000000000000
	movsd	xmm1, QWORD PTR tv1364[ebp]
	addsd	xmm1, xmm0
	mov	eax, DWORD PTR tv391[ebp]
	cvtss2sd xmm0, DWORD PTR [eax]
	addsd	xmm0, xmm1
	cvtsd2ss xmm0, xmm0
	mov	ecx, DWORD PTR tv391[ebp]
	movss	DWORD PTR [ecx], xmm0

; 176  : 				pTemp->entity.origin[2] += pTemp->entity.baseline.origin[2] * frametime;

	mov	ecx, DWORD PTR _pTemp$[ebp]
	add	ecx, 2956				; 00000b8cH
	call	??BVector@@QAEPAMXZ			; Vector::operator float *
	mov	ecx, 4
	shl	ecx, 1
	add	eax, ecx
	mov	DWORD PTR tv410[ebp], eax
	mov	ecx, DWORD PTR _pTemp$[ebp]
	add	ecx, 92					; 0000005cH
	call	??BVector@@QAEPAMXZ			; Vector::operator float *
	mov	edx, 4
	shl	edx, 1
	cvtss2sd xmm0, DWORD PTR [eax+edx]
	mulsd	xmm0, QWORD PTR _frametime$[ebp]
	mov	eax, DWORD PTR tv410[ebp]
	cvtss2sd xmm1, DWORD PTR [eax]
	addsd	xmm1, xmm0
	cvtsd2ss xmm0, xmm1
	mov	ecx, DWORD PTR tv410[ebp]
	movss	DWORD PTR [ecx], xmm0

; 177  : 			}
; 178  : 			
; 179  : 			else 

	jmp	SHORT $LN29@HUD_TempEn
$LN28@HUD_TempEn:

; 180  : 			{
; 181  : 				pTemp->entity.origin += pTemp->entity.baseline.origin * frametime;

	cvtsd2ss xmm0, QWORD PTR _frametime$[ebp]
	push	ecx
	movss	DWORD PTR [esp], xmm0
	lea	eax, DWORD PTR $T5[ebp]
	push	eax
	mov	ecx, DWORD PTR _pTemp$[ebp]
	add	ecx, 92					; 0000005cH
	call	??DVector@@QBE?AV0@M@Z			; Vector::operator*
	push	eax
	mov	ecx, DWORD PTR _pTemp$[ebp]
	add	ecx, 2956				; 00000b8cH
	call	??YVector@@QAEAAV0@ABV0@@Z		; Vector::operator+=
$LN29@HUD_TempEn:

; 182  : 			}
; 183  : 			
; 184  : 			if( pTemp->flags & FTENT_SPRANIMATE )

	mov	eax, DWORD PTR _pTemp$[ebp]
	mov	ecx, DWORD PTR [eax]
	and	ecx, 256				; 00000100H
	je	$LN30@HUD_TempEn

; 185  : 			{
; 186  : 				pTemp->entity.curstate.frame += frametime * pTemp->entity.curstate.framerate;

	mov	eax, DWORD PTR _pTemp$[ebp]
	cvtss2sd xmm0, DWORD PTR [eax+852]
	mulsd	xmm0, QWORD PTR _frametime$[ebp]
	mov	ecx, DWORD PTR _pTemp$[ebp]
	cvtss2sd xmm1, DWORD PTR [ecx+804]
	addsd	xmm1, xmm0
	cvtsd2ss xmm0, xmm1
	mov	edx, DWORD PTR _pTemp$[ebp]
	movss	DWORD PTR [edx+804], xmm0

; 187  : 
; 188  : 				if( pTemp->entity.curstate.frame >= pTemp->frameMax )

	mov	eax, DWORD PTR _pTemp$[ebp]
	mov	ecx, DWORD PTR _pTemp$[ebp]
	movss	xmm0, DWORD PTR [eax+804]
	comiss	xmm0, DWORD PTR [ecx+8]
	jb	SHORT $LN33@HUD_TempEn

; 189  : 				{
; 190  : 					pTemp->entity.curstate.frame = pTemp->entity.curstate.frame - (int)(pTemp->entity.curstate.frame);

	mov	eax, DWORD PTR _pTemp$[ebp]
	cvttss2si ecx, DWORD PTR [eax+804]
	cvtsi2ss xmm0, ecx
	mov	edx, DWORD PTR _pTemp$[ebp]
	movss	xmm1, DWORD PTR [edx+804]
	subss	xmm1, xmm0
	mov	eax, DWORD PTR _pTemp$[ebp]
	movss	DWORD PTR [eax+804], xmm1

; 191  : 
; 192  : 					if(!( pTemp->flags & FTENT_SPRANIMATELOOP ))

	mov	eax, DWORD PTR _pTemp$[ebp]
	mov	ecx, DWORD PTR [eax]
	and	ecx, 65536				; 00010000H
	jne	SHORT $LN33@HUD_TempEn

; 193  : 					{
; 194  : 						// this animating sprite isn't set to loop, so destroy it.
; 195  : 						pTemp->die = client_time;

	cvtsd2ss xmm0, QWORD PTR _client_time$[ebp]
	mov	eax, DWORD PTR _pTemp$[ebp]
	movss	DWORD PTR [eax+4], xmm0

; 196  : 						pTemp = pnext;

	mov	eax, DWORD PTR _pnext$[ebp]
	mov	DWORD PTR _pTemp$[ebp], eax

; 197  : 						continue;

	jmp	$LN71@HUD_TempEn
$LN33@HUD_TempEn:

; 198  : 					}
; 199  : 				}
; 200  : 			}

	jmp	SHORT $LN35@HUD_TempEn
$LN30@HUD_TempEn:

; 201  : 			else if( pTemp->flags & FTENT_SPRCYCLE )

	mov	eax, DWORD PTR _pTemp$[ebp]
	mov	ecx, DWORD PTR [eax]
	and	ecx, 2048				; 00000800H
	je	SHORT $LN35@HUD_TempEn

; 202  : 			{
; 203  : 				pTemp->entity.curstate.frame += frametime * 10;

	movsd	xmm0, QWORD PTR _frametime$[ebp]
	mulsd	xmm0, QWORD PTR __real@4024000000000000
	mov	eax, DWORD PTR _pTemp$[ebp]
	cvtss2sd xmm1, DWORD PTR [eax+804]
	addsd	xmm1, xmm0
	cvtsd2ss xmm0, xmm1
	mov	ecx, DWORD PTR _pTemp$[ebp]
	movss	DWORD PTR [ecx+804], xmm0

; 204  : 
; 205  : 				if( pTemp->entity.curstate.frame >= pTemp->frameMax )

	mov	eax, DWORD PTR _pTemp$[ebp]
	mov	ecx, DWORD PTR _pTemp$[ebp]
	movss	xmm0, DWORD PTR [eax+804]
	comiss	xmm0, DWORD PTR [ecx+8]
	jb	SHORT $LN35@HUD_TempEn

; 206  : 				{
; 207  : 					pTemp->entity.curstate.frame = pTemp->entity.curstate.frame - (int)(pTemp->entity.curstate.frame);

	mov	eax, DWORD PTR _pTemp$[ebp]
	cvttss2si ecx, DWORD PTR [eax+804]
	cvtsi2ss xmm0, ecx
	mov	edx, DWORD PTR _pTemp$[ebp]
	movss	xmm1, DWORD PTR [edx+804]
	subss	xmm1, xmm0
	mov	eax, DWORD PTR _pTemp$[ebp]
	movss	DWORD PTR [eax+804], xmm1
$LN35@HUD_TempEn:

; 208  : 				}
; 209  : 			}
; 210  : 
; 211  : 			if( pTemp->flags & FTENT_SCALE )

	mov	eax, DWORD PTR _pTemp$[ebp]
	mov	ecx, DWORD PTR [eax]
	and	ecx, 1048576				; 00100000H
	je	SHORT $LN36@HUD_TempEn

; 212  : 				pTemp->entity.curstate.framerate += 20.0 * (frametime / pTemp->entity.curstate.framerate);

	mov	eax, DWORD PTR _pTemp$[ebp]
	cvtss2sd xmm0, DWORD PTR [eax+852]
	movsd	xmm1, QWORD PTR _frametime$[ebp]
	divsd	xmm1, xmm0
	mulsd	xmm1, QWORD PTR __real@4034000000000000
	mov	ecx, DWORD PTR _pTemp$[ebp]
	cvtss2sd xmm0, DWORD PTR [ecx+852]
	addsd	xmm0, xmm1
	cvtsd2ss xmm0, xmm0
	mov	edx, DWORD PTR _pTemp$[ebp]
	movss	DWORD PTR [edx+852], xmm0
$LN36@HUD_TempEn:

; 213  : 
; 214  : 			if( pTemp->flags & FTENT_ROTATE )

	mov	eax, DWORD PTR _pTemp$[ebp]
	mov	ecx, DWORD PTR [eax]
	and	ecx, 4
	je	SHORT $LN37@HUD_TempEn

; 215  : 			{
; 216  : 				pTemp->entity.angles += pTemp->entity.baseline.angles * frametime;

	cvtsd2ss xmm0, QWORD PTR _frametime$[ebp]
	push	ecx
	movss	DWORD PTR [esp], xmm0
	lea	eax, DWORD PTR $T4[ebp]
	push	eax
	mov	ecx, DWORD PTR _pTemp$[ebp]
	add	ecx, 104				; 00000068H
	call	??DVector@@QBE?AV0@M@Z			; Vector::operator*
	push	eax
	mov	ecx, DWORD PTR _pTemp$[ebp]
	add	ecx, 2968				; 00000b98H
	call	??YVector@@QAEAAV0@ABV0@@Z		; Vector::operator+=

; 217  : 				pTemp->entity.latched.prevangles = pTemp->entity.angles;

	mov	eax, DWORD PTR _pTemp$[ebp]
	add	eax, 2968				; 00000b98H
	mov	ecx, DWORD PTR _pTemp$[ebp]
	add	ecx, 2924				; 00000b6cH
	mov	edx, DWORD PTR [eax]
	mov	DWORD PTR [ecx], edx
	mov	edx, DWORD PTR [eax+4]
	mov	DWORD PTR [ecx+4], edx
	mov	eax, DWORD PTR [eax+8]
	mov	DWORD PTR [ecx+8], eax
$LN37@HUD_TempEn:

; 218  : 			}
; 219  : 
; 220  : 			if( pTemp->flags & ( FTENT_COLLIDEALL|FTENT_COLLIDEWORLD ))

	mov	eax, DWORD PTR _pTemp$[ebp]
	mov	ecx, DWORD PTR [eax]
	and	ecx, 4128				; 00001020H
	je	$LN58@HUD_TempEn

; 221  : 			{
; 222  : 				Vector	traceNormal;

	lea	ecx, DWORD PTR _traceNormal$14[ebp]
	call	??0Vector@@QAE@XZ			; Vector::Vector

; 223  : 				float	traceFraction = 1;

	movss	xmm0, DWORD PTR __real@3f800000
	movss	DWORD PTR _traceFraction$13[ebp], xmm0

; 224  : 
; 225  : 				if( pTemp->flags & FTENT_COLLIDEALL )

	mov	eax, DWORD PTR _pTemp$[ebp]
	mov	ecx, DWORD PTR [eax]
	and	ecx, 4096				; 00001000H
	je	$LN39@HUD_TempEn

; 226  : 				{
; 227  : 					pmtrace_t pmtrace;

	lea	ecx, DWORD PTR _pmtrace$12[ebp]
	call	??0pmtrace_s@@QAE@XZ

; 228  : 					physent_t *pe;
; 229  : 				
; 230  : 					gEngfuncs.pEventAPI->EV_SetTraceHull( 2 );

	push	2
	mov	eax, DWORD PTR ?gEngfuncs@@3Ucl_enginefuncs_s@@A+336
	mov	ecx, DWORD PTR [eax+56]
	call	ecx
	add	esp, 4

; 231  : 					gEngfuncs.pEventAPI->EV_PlayerTrace( pTemp->entity.prevstate.origin, pTemp->entity.origin, PM_STUDIO_BOX, -1, &pmtrace );

	lea	eax, DWORD PTR _pmtrace$12[ebp]
	push	eax
	push	-1
	push	2
	mov	ecx, DWORD PTR _pTemp$[ebp]
	add	ecx, 2956				; 00000b8cH
	call	??BVector@@QAEPAMXZ			; Vector::operator float *
	push	eax
	mov	ecx, DWORD PTR _pTemp$[ebp]
	add	ecx, 432				; 000001b0H
	call	??BVector@@QAEPAMXZ			; Vector::operator float *
	push	eax
	mov	ecx, DWORD PTR ?gEngfuncs@@3Ucl_enginefuncs_s@@A+336
	mov	edx, DWORD PTR [ecx+60]
	call	edx
	add	esp, 20					; 00000014H

; 232  : 
; 233  : 					if( pmtrace.fraction != 1.0f )

	movss	xmm0, DWORD PTR _pmtrace$12[ebp+16]
	ucomiss	xmm0, DWORD PTR __real@3f800000
	lahf
	test	ah, 68					; 00000044H
	jnp	SHORT $LN44@HUD_TempEn

; 234  : 					{
; 235  : 						pe = gEngfuncs.pEventAPI->EV_GetPhysent( pmtrace.ent );

	mov	eax, DWORD PTR _pmtrace$12[ebp+48]
	push	eax
	mov	ecx, DWORD PTR ?gEngfuncs@@3Ucl_enginefuncs_s@@A+336
	mov	edx, DWORD PTR [ecx+36]
	call	edx
	add	esp, 4
	mov	DWORD PTR _pe$11[ebp], eax

; 236  : 
; 237  : 						if( !pmtrace.ent || ( pe->info != pTemp->clientIndex ))

	cmp	DWORD PTR _pmtrace$12[ebp+48], 0
	je	SHORT $LN43@HUD_TempEn
	mov	eax, DWORD PTR _pTemp$[ebp]
	movsx	ecx, WORD PTR [eax+52]
	mov	edx, DWORD PTR _pe$11[ebp]
	cmp	DWORD PTR [edx+80], ecx
	je	SHORT $LN44@HUD_TempEn
$LN43@HUD_TempEn:

; 238  : 						{
; 239  : 							traceFraction = pmtrace.fraction;

	movss	xmm0, DWORD PTR _pmtrace$12[ebp+16]
	movss	DWORD PTR _traceFraction$13[ebp], xmm0

; 240  : 							traceNormal = pmtrace.plane.normal;

	mov	eax, DWORD PTR _pmtrace$12[ebp+32]
	mov	DWORD PTR _traceNormal$14[ebp], eax
	mov	ecx, DWORD PTR _pmtrace$12[ebp+36]
	mov	DWORD PTR _traceNormal$14[ebp+4], ecx
	mov	edx, DWORD PTR _pmtrace$12[ebp+40]
	mov	DWORD PTR _traceNormal$14[ebp+8], edx

; 241  : 
; 242  : 							if( pTemp->hitcallback )

	mov	eax, DWORD PTR _pTemp$[ebp]
	cmp	DWORD PTR [eax+36], 0
	je	SHORT $LN44@HUD_TempEn

; 243  : 							{
; 244  : 								(*pTemp->hitcallback)( pTemp, &pmtrace );

	lea	eax, DWORD PTR _pmtrace$12[ebp]
	push	eax
	mov	ecx, DWORD PTR _pTemp$[ebp]
	push	ecx
	mov	edx, DWORD PTR _pTemp$[ebp]
	mov	eax, DWORD PTR [edx+36]
	call	eax
	add	esp, 8
$LN44@HUD_TempEn:

; 245  : 							}
; 246  : 						}
; 247  : 					}
; 248  : 				}

	jmp	$LN49@HUD_TempEn
$LN39@HUD_TempEn:

; 249  : 				else if( pTemp->flags & FTENT_COLLIDEWORLD )

	mov	eax, DWORD PTR _pTemp$[ebp]
	mov	ecx, DWORD PTR [eax]
	and	ecx, 32					; 00000020H
	je	$LN49@HUD_TempEn

; 250  : 				{
; 251  : 					pmtrace_t pmtrace;

	lea	ecx, DWORD PTR _pmtrace$10[ebp]
	call	??0pmtrace_s@@QAE@XZ

; 252  : 					
; 253  : 					gEngfuncs.pEventAPI->EV_SetTraceHull( 2 );

	push	2
	mov	eax, DWORD PTR ?gEngfuncs@@3Ucl_enginefuncs_s@@A+336
	mov	ecx, DWORD PTR [eax+56]
	call	ecx
	add	esp, 4

; 254  : 					gEngfuncs.pEventAPI->EV_PlayerTrace( pTemp->entity.prevstate.origin, pTemp->entity.origin, PM_STUDIO_BOX | PM_WORLD_ONLY, -1, &pmtrace );

	lea	eax, DWORD PTR _pmtrace$10[ebp]
	push	eax
	push	-1
	push	10					; 0000000aH
	mov	ecx, DWORD PTR _pTemp$[ebp]
	add	ecx, 2956				; 00000b8cH
	call	??BVector@@QAEPAMXZ			; Vector::operator float *
	push	eax
	mov	ecx, DWORD PTR _pTemp$[ebp]
	add	ecx, 432				; 000001b0H
	call	??BVector@@QAEPAMXZ			; Vector::operator float *
	push	eax
	mov	ecx, DWORD PTR ?gEngfuncs@@3Ucl_enginefuncs_s@@A+336
	mov	edx, DWORD PTR [ecx+60]
	call	edx
	add	esp, 20					; 00000014H

; 255  : 
; 256  : 					if( pmtrace.fraction != 1.0f )

	movss	xmm0, DWORD PTR _pmtrace$10[ebp+16]
	ucomiss	xmm0, DWORD PTR __real@3f800000
	lahf
	test	ah, 68					; 00000044H
	jnp	$LN49@HUD_TempEn

; 257  : 					{
; 258  : 						traceFraction = pmtrace.fraction;

	movss	xmm0, DWORD PTR _pmtrace$10[ebp+16]
	movss	DWORD PTR _traceFraction$13[ebp], xmm0

; 259  : 						traceNormal = pmtrace.plane.normal;

	mov	eax, DWORD PTR _pmtrace$10[ebp+32]
	mov	DWORD PTR _traceNormal$14[ebp], eax
	mov	ecx, DWORD PTR _pmtrace$10[ebp+36]
	mov	DWORD PTR _traceNormal$14[ebp+4], ecx
	mov	edx, DWORD PTR _pmtrace$10[ebp+40]
	mov	DWORD PTR _traceNormal$14[ebp+8], edx

; 260  : 
; 261  : 						if( pTemp->flags & FTENT_SPARKSHOWER )

	mov	eax, DWORD PTR _pTemp$[ebp]
	mov	ecx, DWORD PTR [eax]
	and	ecx, 131072				; 00020000H
	je	SHORT $LN48@HUD_TempEn

; 262  : 						{
; 263  : 							// Chop spark speeds a bit more
; 264  : 							pTemp->entity.baseline.origin *= 0.6f;

	push	ecx
	movss	xmm0, DWORD PTR __real@3f19999a
	movss	DWORD PTR [esp], xmm0
	mov	ecx, DWORD PTR _pTemp$[ebp]
	add	ecx, 92					; 0000005cH
	call	??XVector@@QAEAAV0@M@Z			; Vector::operator*=

; 265  : 
; 266  : 							if( pTemp->entity.baseline.origin.Length() < 10.0f )

	mov	ecx, DWORD PTR _pTemp$[ebp]
	add	ecx, 92					; 0000005cH
	call	?Length@Vector@@QBEMXZ			; Vector::Length
	fstp	DWORD PTR tv1204[ebp]
	movss	xmm0, DWORD PTR __real@41200000
	comiss	xmm0, DWORD PTR tv1204[ebp]
	jbe	SHORT $LN48@HUD_TempEn

; 267  : 							{
; 268  : 								pTemp->entity.baseline.framerate = 0.0f;

	mov	eax, DWORD PTR _pTemp$[ebp]
	xorps	xmm0, xmm0
	movss	DWORD PTR [eax+172], xmm0
$LN48@HUD_TempEn:

; 269  : 							}
; 270  : 						}
; 271  : 
; 272  : 						if( pTemp->hitcallback )

	mov	eax, DWORD PTR _pTemp$[ebp]
	cmp	DWORD PTR [eax+36], 0
	je	SHORT $LN49@HUD_TempEn

; 273  : 						{
; 274  : 							(*pTemp->hitcallback)( pTemp, &pmtrace );

	lea	eax, DWORD PTR _pmtrace$10[ebp]
	push	eax
	mov	ecx, DWORD PTR _pTemp$[ebp]
	push	ecx
	mov	edx, DWORD PTR _pTemp$[ebp]
	mov	eax, DWORD PTR [edx+36]
	call	eax
	add	esp, 8
$LN49@HUD_TempEn:

; 275  : 						}
; 276  : 					}
; 277  : 				}
; 278  : 
; 279  : 				// decent collision now, and damping works
; 280  : 				if( traceFraction != 1 )

	movss	xmm0, DWORD PTR _traceFraction$13[ebp]
	ucomiss	xmm0, DWORD PTR __real@3f800000
	lahf
	test	ah, 68					; 00000044H
	jnp	$LN58@HUD_TempEn

; 281  : 				{
; 282  : 					float  proj, damp;
; 283  : 
; 284  : 					// place at contact point
; 285  : 					pTemp->entity.origin = pTemp->entity.prevstate.origin + pTemp->entity.baseline.origin * (traceFraction * frametime );

	cvtss2sd xmm0, DWORD PTR _traceFraction$13[ebp]
	mulsd	xmm0, QWORD PTR _frametime$[ebp]
	cvtsd2ss xmm0, xmm0
	push	ecx
	movss	DWORD PTR [esp], xmm0
	lea	eax, DWORD PTR $T3[ebp]
	push	eax
	mov	ecx, DWORD PTR _pTemp$[ebp]
	add	ecx, 92					; 0000005cH
	call	??DVector@@QBE?AV0@M@Z			; Vector::operator*
	push	eax
	lea	ecx, DWORD PTR $T2[ebp]
	push	ecx
	mov	ecx, DWORD PTR _pTemp$[ebp]
	add	ecx, 432				; 000001b0H
	call	??HVector@@QBE?AV0@ABV0@@Z		; Vector::operator+
	mov	edx, DWORD PTR _pTemp$[ebp]
	add	edx, 2956				; 00000b8cH
	mov	ecx, DWORD PTR [eax]
	mov	DWORD PTR [edx], ecx
	mov	ecx, DWORD PTR [eax+4]
	mov	DWORD PTR [edx+4], ecx
	mov	eax, DWORD PTR [eax+8]
	mov	DWORD PTR [edx+8], eax

; 286  : 
; 287  : 					// damp velocity
; 288  : 					damp = pTemp->bounceFactor;

	mov	eax, DWORD PTR _pTemp$[ebp]
	movss	xmm0, DWORD PTR [eax+28]
	movss	DWORD PTR _damp$8[ebp], xmm0

; 289  : 
; 290  : 					if( pTemp->flags & ( FTENT_GRAVITY|FTENT_SLOWGRAVITY ))

	mov	eax, DWORD PTR _pTemp$[ebp]
	mov	ecx, DWORD PTR [eax]
	and	ecx, 10					; 0000000aH
	je	$LN53@HUD_TempEn

; 291  : 					{
; 292  : 						damp *= 0.5f;

	movss	xmm0, DWORD PTR _damp$8[ebp]
	mulss	xmm0, DWORD PTR __real@3f000000
	movss	DWORD PTR _damp$8[ebp], xmm0

; 293  : 
; 294  : 						if( traceNormal.z > 0.9f ) // hit floor?

	movss	xmm0, DWORD PTR _traceNormal$14[ebp+8]
	comiss	xmm0, DWORD PTR __real@3f666666
	jbe	SHORT $LN53@HUD_TempEn

; 295  : 						{
; 296  : 							if( pTemp->entity.baseline.origin[2] <= 0 && pTemp->entity.baseline.origin[2] >= gravity * 3 )

	mov	ecx, DWORD PTR _pTemp$[ebp]
	add	ecx, 92					; 0000005cH
	call	??BVector@@QAEPAMXZ			; Vector::operator float *
	mov	ecx, 4
	shl	ecx, 1
	xorps	xmm0, xmm0
	comiss	xmm0, DWORD PTR [eax+ecx]
	jb	SHORT $LN53@HUD_TempEn
	mov	ecx, DWORD PTR _pTemp$[ebp]
	add	ecx, 92					; 0000005cH
	call	??BVector@@QAEPAMXZ			; Vector::operator float *
	mov	ecx, 4
	shl	ecx, 1
	movss	xmm0, DWORD PTR _gravity$[ebp]
	mulss	xmm0, DWORD PTR __real@40400000
	movss	xmm1, DWORD PTR [eax+ecx]
	comiss	xmm1, xmm0
	jb	SHORT $LN53@HUD_TempEn

; 297  : 							{
; 298  : 								damp = 0; // stop

	xorps	xmm0, xmm0
	movss	DWORD PTR _damp$8[ebp], xmm0

; 299  : 								pTemp->flags &= ~(FTENT_ROTATE|FTENT_GRAVITY|FTENT_SLOWGRAVITY|FTENT_COLLIDEWORLD|FTENT_SMOKETRAIL);

	mov	eax, DWORD PTR _pTemp$[ebp]
	mov	ecx, DWORD PTR [eax]
	and	ecx, -63				; ffffffc1H
	mov	edx, DWORD PTR _pTemp$[ebp]
	mov	DWORD PTR [edx], ecx

; 300  : 								pTemp->entity.angles.x = 0;

	mov	eax, DWORD PTR _pTemp$[ebp]
	xorps	xmm0, xmm0
	movss	DWORD PTR [eax+2968], xmm0

; 301  : 								pTemp->entity.angles.z = 0;

	mov	eax, DWORD PTR _pTemp$[ebp]
	xorps	xmm0, xmm0
	movss	DWORD PTR [eax+2976], xmm0
$LN53@HUD_TempEn:

; 302  : 							}
; 303  : 						}
; 304  : 					}
; 305  : 
; 306  : 					if( pTemp->hitSound )

	mov	eax, DWORD PTR _pTemp$[ebp]
	cmp	DWORD PTR [eax+32], 0
	je	SHORT $LN54@HUD_TempEn

; 307  : 					{
; 308  : 						Callback_TempEntPlaySound( pTemp, damp );

	push	ecx
	movss	xmm0, DWORD PTR _damp$8[ebp]
	movss	DWORD PTR [esp], xmm0
	mov	eax, DWORD PTR _pTemp$[ebp]
	push	eax
	call	DWORD PTR _Callback_TempEntPlaySound$[ebp]
	add	esp, 8
$LN54@HUD_TempEn:

; 309  : 					}
; 310  : 
; 311  : 					if( pTemp->flags & FTENT_COLLIDEKILL )

	mov	eax, DWORD PTR _pTemp$[ebp]
	mov	ecx, DWORD PTR [eax]
	and	ecx, 16384				; 00004000H
	je	SHORT $LN55@HUD_TempEn

; 312  : 					{
; 313  : 						// die on impact
; 314  : 						pTemp->flags &= ~FTENT_FADEOUT;	

	mov	eax, DWORD PTR _pTemp$[ebp]
	mov	ecx, DWORD PTR [eax]
	and	ecx, -129				; ffffff7fH
	mov	edx, DWORD PTR _pTemp$[ebp]
	mov	DWORD PTR [edx], ecx

; 315  : 						pTemp->die = client_time;			

	cvtsd2ss xmm0, QWORD PTR _client_time$[ebp]
	mov	eax, DWORD PTR _pTemp$[ebp]
	movss	DWORD PTR [eax+4], xmm0

; 316  : 					}
; 317  : 					else

	jmp	$LN58@HUD_TempEn
$LN55@HUD_TempEn:

; 318  : 					{
; 319  : 						// reflect velocity
; 320  : 						if ( damp != 0 )

	movss	xmm0, DWORD PTR _damp$8[ebp]
	ucomiss	xmm0, DWORD PTR __real@00000000
	lahf
	test	ah, 68					; 00000044H
	jnp	SHORT $LN57@HUD_TempEn

; 321  : 						{
; 322  : 							proj = DotProduct( pTemp->entity.baseline.origin, traceNormal );

	lea	eax, DWORD PTR _traceNormal$14[ebp]
	push	eax
	mov	ecx, DWORD PTR _pTemp$[ebp]
	add	ecx, 92					; 0000005cH
	push	ecx
	call	?DotProduct@@YAMABVVector@@0@Z		; DotProduct
	add	esp, 8
	fstp	DWORD PTR _proj$9[ebp]

; 323  : 							pTemp->entity.baseline.origin += traceNormal * (-proj * 2);

	movss	xmm0, DWORD PTR _proj$9[ebp]
	xorps	xmm0, DWORD PTR __xmm@80000000800000008000000080000000
	mulss	xmm0, DWORD PTR __real@40000000
	push	ecx
	movss	DWORD PTR [esp], xmm0
	lea	eax, DWORD PTR $T1[ebp]
	push	eax
	lea	ecx, DWORD PTR _traceNormal$14[ebp]
	call	??DVector@@QBE?AV0@M@Z			; Vector::operator*
	push	eax
	mov	ecx, DWORD PTR _pTemp$[ebp]
	add	ecx, 92					; 0000005cH
	call	??YVector@@QAEAAV0@ABV0@@Z		; Vector::operator+=

; 324  : 	         
; 325  : 							// reflect rotation (fake)
; 326  :                    						pTemp->entity.angles.y = -pTemp->entity.angles.y;

	mov	eax, DWORD PTR _pTemp$[ebp]
	movss	xmm0, DWORD PTR [eax+2972]
	xorps	xmm0, DWORD PTR __xmm@80000000800000008000000080000000
	mov	ecx, DWORD PTR _pTemp$[ebp]
	movss	DWORD PTR [ecx+2972], xmm0
$LN57@HUD_TempEn:

; 327  : 						}
; 328  : 						
; 329  : 						if( damp != 1.0f )

	movss	xmm0, DWORD PTR _damp$8[ebp]
	ucomiss	xmm0, DWORD PTR __real@3f800000
	lahf
	test	ah, 68					; 00000044H
	jnp	SHORT $LN58@HUD_TempEn

; 330  : 						{
; 331  : 							pTemp->entity.baseline.origin *= damp;

	push	ecx
	movss	xmm0, DWORD PTR _damp$8[ebp]
	movss	DWORD PTR [esp], xmm0
	mov	ecx, DWORD PTR _pTemp$[ebp]
	add	ecx, 92					; 0000005cH
	call	??XVector@@QAEAAV0@M@Z			; Vector::operator*=

; 332  : 							pTemp->entity.angles *= 0.9;

	push	ecx
	movss	xmm0, DWORD PTR __real@3f666666
	movss	DWORD PTR [esp], xmm0
	mov	ecx, DWORD PTR _pTemp$[ebp]
	add	ecx, 2968				; 00000b98H
	call	??XVector@@QAEAAV0@M@Z			; Vector::operator*=
$LN58@HUD_TempEn:

; 333  : 						}
; 334  : 					}
; 335  : 				}
; 336  : 			}
; 337  : 
; 338  : 
; 339  : 			if(( pTemp->flags & FTENT_FLICKER ) && gTempEntFrame == pTemp->entity.curstate.effects )

	mov	eax, DWORD PTR _pTemp$[ebp]
	mov	ecx, DWORD PTR [eax]
	and	ecx, 64					; 00000040H
	je	$LN59@HUD_TempEn
	mov	eax, DWORD PTR _pTemp$[ebp]
	mov	ecx, DWORD PTR ?gTempEntFrame@?1??HUD_TempEntUpdate@@YAXNNNPAPAUtempent_s@@0P6AHPAUcl_entity_s@@@ZP6AXPAU2@M@Z@Z@4HA
	cmp	ecx, DWORD PTR [eax+816]
	jne	$LN59@HUD_TempEn

; 340  : 			{
; 341  : 				plight_t *dl = CL_AllocPlight( 0 );

	push	0
	call	?CL_AllocPlight@@YAPAUplight_s@@H@Z	; CL_AllocPlight
	add	esp, 4
	mov	DWORD PTR _dl$7[ebp], eax

; 342  : 				dl->pointlight = true;

	mov	eax, DWORD PTR _dl$7[ebp]
	mov	BYTE PTR [eax+44], 1

; 343  : 				dl->projectionTexture = tr.whiteCubeTexture;

	mov	eax, DWORD PTR _dl$7[ebp]
	mov	ecx, DWORD PTR ?tr@@3Uref_globals_t@@A+5724
	mov	DWORD PTR [eax+452], ecx

; 344  : 				dl->radius = 60;

	mov	eax, DWORD PTR _dl$7[ebp]
	movss	xmm0, DWORD PTR __real@42700000
	movss	DWORD PTR [eax+24], xmm0

; 345  : 				dl->color.r = 255;

	mov	eax, DWORD PTR _dl$7[ebp]
	mov	BYTE PTR [eax+28], 255			; 000000ffH

; 346  : 				dl->color.g = 120;

	mov	eax, DWORD PTR _dl$7[ebp]
	mov	BYTE PTR [eax+29], 120			; 00000078H

; 347  : 				dl->color.b = 0;

	mov	eax, DWORD PTR _dl$7[ebp]
	mov	BYTE PTR [eax+30], 0

; 348  : 				dl->die = tr.time;

	cvtsd2ss xmm0, QWORD PTR ?tr@@3Uref_globals_t@@A+8
	mov	eax, DWORD PTR _dl$7[ebp]
	movss	DWORD PTR [eax+32], xmm0

; 349  : 				R_SetupLightProjection( dl, pTemp->entity.origin, g_vecZero, dl->radius, 90.0f );

	push	ecx
	movss	xmm0, DWORD PTR __real@42b40000
	movss	DWORD PTR [esp], xmm0
	mov	eax, DWORD PTR _dl$7[ebp]
	push	ecx
	movss	xmm0, DWORD PTR [eax+24]
	movss	DWORD PTR [esp], xmm0
	push	OFFSET ?g_vecZero@@3VVector@@B		; g_vecZero
	mov	ecx, DWORD PTR _pTemp$[ebp]
	add	ecx, 2956				; 00000b8cH
	push	ecx
	mov	edx, DWORD PTR _dl$7[ebp]
	push	edx
	call	?R_SetupLightProjection@@YAXPAUplight_s@@ABVVector@@1MM@Z ; R_SetupLightProjection
	add	esp, 20					; 00000014H

; 350  : 				R_SetupLightAttenuationTexture( dl );

	push	-1
	mov	eax, DWORD PTR _dl$7[ebp]
	push	eax
	call	?R_SetupLightAttenuationTexture@@YAXPAUplight_s@@H@Z ; R_SetupLightAttenuationTexture
	add	esp, 8
$LN59@HUD_TempEn:

; 351  : 			}
; 352  : 
; 353  : 			if( pTemp->flags & FTENT_SMOKETRAIL )

	mov	eax, DWORD PTR _pTemp$[ebp]
	mov	ecx, DWORD PTR [eax]
	and	ecx, 16					; 00000010H
	je	SHORT $LN60@HUD_TempEn

; 354  : 				gEngfuncs.pEfxAPI->R_RocketTrail( pTemp->entity.prevstate.origin, pTemp->entity.origin, 1 );

	push	1
	mov	ecx, DWORD PTR _pTemp$[ebp]
	add	ecx, 2956				; 00000b8cH
	call	??BVector@@QAEPAMXZ			; Vector::operator float *
	push	eax
	mov	ecx, DWORD PTR _pTemp$[ebp]
	add	ecx, 432				; 000001b0H
	call	??BVector@@QAEPAMXZ			; Vector::operator float *
	push	eax
	mov	eax, DWORD PTR ?gEngfuncs@@3Ucl_enginefuncs_s@@A+332
	mov	ecx, DWORD PTR [eax+120]
	call	ecx
	add	esp, 12					; 0000000cH
$LN60@HUD_TempEn:

; 355  : 
; 356  : 			if( pTemp->flags & FTENT_GRAVITY )

	mov	eax, DWORD PTR _pTemp$[ebp]
	mov	ecx, DWORD PTR [eax]
	and	ecx, 2
	je	SHORT $LN61@HUD_TempEn

; 357  : 				pTemp->entity.baseline.origin.z += gravity;

	mov	eax, DWORD PTR _pTemp$[ebp]
	movss	xmm0, DWORD PTR [eax+100]
	addss	xmm0, DWORD PTR _gravity$[ebp]
	mov	ecx, DWORD PTR _pTemp$[ebp]
	movss	DWORD PTR [ecx+100], xmm0
	jmp	SHORT $LN63@HUD_TempEn
$LN61@HUD_TempEn:

; 358  : 			else if( pTemp->flags & FTENT_SLOWGRAVITY )

	mov	eax, DWORD PTR _pTemp$[ebp]
	mov	ecx, DWORD PTR [eax]
	and	ecx, 8
	je	SHORT $LN63@HUD_TempEn

; 359  : 				pTemp->entity.baseline.origin.z += gravitySlow;

	mov	eax, DWORD PTR _pTemp$[ebp]
	movss	xmm0, DWORD PTR [eax+100]
	addss	xmm0, DWORD PTR _gravitySlow$[ebp]
	mov	ecx, DWORD PTR _pTemp$[ebp]
	movss	DWORD PTR [ecx+100], xmm0
$LN63@HUD_TempEn:

; 360  : 
; 361  : 			if( pTemp->flags & FTENT_CLIENTCUSTOM )

	mov	eax, DWORD PTR _pTemp$[ebp]
	mov	ecx, DWORD PTR [eax]
	and	ecx, 524288				; 00080000H
	je	SHORT $LN65@HUD_TempEn

; 362  : 			{
; 363  : 				if( pTemp->callback )

	mov	eax, DWORD PTR _pTemp$[ebp]
	cmp	DWORD PTR [eax+40], 0
	je	SHORT $LN65@HUD_TempEn

; 364  : 				{
; 365  : 					(*pTemp->callback)( pTemp, frametime, client_time );

	cvtsd2ss xmm0, QWORD PTR _client_time$[ebp]
	push	ecx
	movss	DWORD PTR [esp], xmm0
	cvtsd2ss xmm0, QWORD PTR _frametime$[ebp]
	push	ecx
	movss	DWORD PTR [esp], xmm0
	mov	eax, DWORD PTR _pTemp$[ebp]
	push	eax
	mov	ecx, DWORD PTR _pTemp$[ebp]
	mov	edx, DWORD PTR [ecx+40]
	call	edx
	add	esp, 12					; 0000000cH
$LN65@HUD_TempEn:

; 366  : 				}
; 367  : 			}
; 368  : 
; 369  : 			// cull to PVS (not frustum cull, just PVS)
; 370  : 			if(!( pTemp->flags & FTENT_NOMODEL ))

	mov	eax, DWORD PTR _pTemp$[ebp]
	mov	ecx, DWORD PTR [eax]
	and	ecx, 262144				; 00040000H
	jne	SHORT $LN68@HUD_TempEn

; 371  : 			{
; 372  : 				if( !Callback_AddVisibleEntity( &pTemp->entity ))

	mov	eax, DWORD PTR _pTemp$[ebp]
	add	eax, 68					; 00000044H
	push	eax
	call	DWORD PTR _Callback_AddVisibleEntity$[ebp]
	add	esp, 4
	test	eax, eax
	jne	SHORT $LN67@HUD_TempEn

; 373  : 				{
; 374  : 					if(!( pTemp->flags & FTENT_PERSIST )) 

	mov	eax, DWORD PTR _pTemp$[ebp]
	mov	ecx, DWORD PTR [eax]
	and	ecx, 8192				; 00002000H
	jne	SHORT $LN69@HUD_TempEn

; 375  : 					{
; 376  : 						pTemp->die = client_time;		// If we can't draw it this frame, just dump it.

	cvtsd2ss xmm0, QWORD PTR _client_time$[ebp]
	mov	eax, DWORD PTR _pTemp$[ebp]
	movss	DWORD PTR [eax+4], xmm0

; 377  : 						pTemp->flags &= ~FTENT_FADEOUT;	// Don't fade out, just die

	mov	eax, DWORD PTR _pTemp$[ebp]
	mov	ecx, DWORD PTR [eax]
	and	ecx, -129				; ffffff7fH
	mov	edx, DWORD PTR _pTemp$[ebp]
	mov	DWORD PTR [edx], ecx
$LN69@HUD_TempEn:

; 378  : 					}
; 379  : 				}
; 380  : 				else

	jmp	SHORT $LN68@HUD_TempEn
$LN67@HUD_TempEn:

; 381  : 				{
; 382  : 					r_stats.c_active_tents_count++;

	mov	eax, DWORD PTR ?r_stats@@3Uref_stats_t@@A+20
	add	eax, 1
	mov	DWORD PTR ?r_stats@@3Uref_stats_t@@A+20, eax
$LN68@HUD_TempEn:

; 383  : 				}
; 384  : 			}
; 385  : 		}
; 386  : 		pTemp = pnext;

	mov	eax, DWORD PTR _pnext$[ebp]
	mov	DWORD PTR _pTemp$[ebp], eax

; 387  : 	}

	jmp	$LN71@HUD_TempEn
$LN5@HUD_TempEn:
$LN9@HUD_TempEn:
$finish$72:

; 388  : finish:
; 389  : 	// Restore state info
; 390  : 	gEngfuncs.pEventAPI->EV_PopPMStates();

	mov	eax, DWORD PTR ?gEngfuncs@@3Ucl_enginefuncs_s@@A+336
	mov	ecx, DWORD PTR [eax+48]
	call	ecx
$LN1@HUD_TempEn:

; 391  : }

	pop	edi
	pop	esi
	pop	ebx
	mov	esp, ebp
	pop	ebp
	ret	0
?HUD_TempEntUpdate@@YAXNNNPAPAUtempent_s@@0P6AHPAUcl_entity_s@@@ZP6AXPAU1@M@Z@Z ENDP ; HUD_TempEntUpdate
_TEXT	ENDS
; Function compile flags: /Odtp /ZI
; File d:\!diffusion 2020\source code 2022\client-server\game_shared\vector.h
;	COMDAT ?DotProduct@@YAMABVVector@@0@Z
_TEXT	SEGMENT
tv86 = -68						; size = 4
_a$ = 8							; size = 4
_b$ = 12						; size = 4
?DotProduct@@YAMABVVector@@0@Z PROC			; DotProduct, COMDAT

; 308  : inline float DotProduct(const Vector& a, const Vector& b ) { return( a.x * b.x + a.y * b.y + a.z * b.z ); }

	push	ebp
	mov	ebp, esp
	sub	esp, 68					; 00000044H
	push	ebx
	push	esi
	push	edi
	mov	eax, DWORD PTR _a$[ebp]
	mov	ecx, DWORD PTR _b$[ebp]
	movss	xmm0, DWORD PTR [eax]
	mulss	xmm0, DWORD PTR [ecx]
	mov	edx, DWORD PTR _a$[ebp]
	mov	eax, DWORD PTR _b$[ebp]
	movss	xmm1, DWORD PTR [edx+4]
	mulss	xmm1, DWORD PTR [eax+4]
	addss	xmm0, xmm1
	mov	ecx, DWORD PTR _a$[ebp]
	mov	edx, DWORD PTR _b$[ebp]
	movss	xmm1, DWORD PTR [ecx+8]
	mulss	xmm1, DWORD PTR [edx+8]
	addss	xmm0, xmm1
	movss	DWORD PTR tv86[ebp], xmm0
	fld	DWORD PTR tv86[ebp]
	pop	edi
	pop	esi
	pop	ebx
	mov	esp, ebp
	pop	ebp
	ret	0
?DotProduct@@YAMABVVector@@0@Z ENDP			; DotProduct
_TEXT	ENDS
; Function compile flags: /Odtp /ZI
; File d:\!diffusion 2020\source code 2022\client-server\game_shared\vector.h
;	COMDAT ??BVector@@QAEPAMXZ
_TEXT	SEGMENT
_this$ = -4						; size = 4
??BVector@@QAEPAMXZ PROC				; Vector::operator float *, COMDAT
; _this$ = ecx

; 247  : 	operator float *()				{ return &x; } // Vectors will now automatically convert to float * when needed

	push	ebp
	mov	ebp, esp
	sub	esp, 68					; 00000044H
	push	ebx
	push	esi
	push	edi
	mov	DWORD PTR _this$[ebp], ecx
	mov	eax, DWORD PTR _this$[ebp]
	pop	edi
	pop	esi
	pop	ebx
	mov	esp, ebp
	pop	ebp
	ret	0
??BVector@@QAEPAMXZ ENDP				; Vector::operator float *
_TEXT	ENDS
; Function compile flags: /Odtp /ZI
; File d:\!diffusion 2020\source code 2022\client-server\game_shared\vector.h
;	COMDAT ?Length@Vector@@QBEMXZ
_TEXT	SEGMENT
tv91 = -72						; size = 4
_this$ = -4						; size = 4
?Length@Vector@@QBEMXZ PROC				; Vector::Length, COMDAT
; _this$ = ecx

; 245  : 	inline float Length(void) const		{ return sqrt( x*x + y*y + z*z ); }

	push	ebp
	mov	ebp, esp
	sub	esp, 72					; 00000048H
	push	ebx
	push	esi
	push	edi
	mov	DWORD PTR _this$[ebp], ecx
	mov	eax, DWORD PTR _this$[ebp]
	mov	ecx, DWORD PTR _this$[ebp]
	movss	xmm0, DWORD PTR [eax]
	mulss	xmm0, DWORD PTR [ecx]
	mov	edx, DWORD PTR _this$[ebp]
	mov	eax, DWORD PTR _this$[ebp]
	movss	xmm1, DWORD PTR [edx+4]
	mulss	xmm1, DWORD PTR [eax+4]
	addss	xmm0, xmm1
	mov	ecx, DWORD PTR _this$[ebp]
	mov	edx, DWORD PTR _this$[ebp]
	movss	xmm1, DWORD PTR [ecx+8]
	mulss	xmm1, DWORD PTR [edx+8]
	addss	xmm0, xmm1
	cvtss2sd xmm0, xmm0
	sub	esp, 8
	movsd	QWORD PTR [esp], xmm0
	call	_sqrt
	add	esp, 8
	fstp	DWORD PTR tv91[ebp]
	fld	DWORD PTR tv91[ebp]
	pop	edi
	pop	esi
	pop	ebx
	mov	esp, ebp
	pop	ebp
	ret	0
?Length@Vector@@QBEMXZ ENDP				; Vector::Length
_TEXT	ENDS
; Function compile flags: /Odtp /ZI
; File d:\!diffusion 2020\source code 2022\client-server\game_shared\vector.h
;	COMDAT ??XVector@@QAEAAV0@M@Z
_TEXT	SEGMENT
_this$ = -4						; size = 4
_s$ = 8							; size = 4
??XVector@@QAEAAV0@M@Z PROC				; Vector::operator*=, COMDAT
; _this$ = ecx

; 183  : 	{

	push	ebp
	mov	ebp, esp
	sub	esp, 68					; 00000044H
	push	ebx
	push	esi
	push	edi
	mov	DWORD PTR _this$[ebp], ecx

; 184  : 		x *= s; y *= s; z *= s;

	mov	eax, DWORD PTR _this$[ebp]
	movss	xmm0, DWORD PTR [eax]
	mulss	xmm0, DWORD PTR _s$[ebp]
	mov	ecx, DWORD PTR _this$[ebp]
	movss	DWORD PTR [ecx], xmm0
	mov	eax, DWORD PTR _this$[ebp]
	movss	xmm0, DWORD PTR [eax+4]
	mulss	xmm0, DWORD PTR _s$[ebp]
	mov	ecx, DWORD PTR _this$[ebp]
	movss	DWORD PTR [ecx+4], xmm0
	mov	eax, DWORD PTR _this$[ebp]
	movss	xmm0, DWORD PTR [eax+8]
	mulss	xmm0, DWORD PTR _s$[ebp]
	mov	ecx, DWORD PTR _this$[ebp]
	movss	DWORD PTR [ecx+8], xmm0

; 185  : 		return *this;

	mov	eax, DWORD PTR _this$[ebp]

; 186  : 	}

	pop	edi
	pop	esi
	pop	ebx
	mov	esp, ebp
	pop	ebp
	ret	4
??XVector@@QAEAAV0@M@Z ENDP				; Vector::operator*=
_TEXT	ENDS
; Function compile flags: /Odtp /ZI
; File d:\!diffusion 2020\source code 2022\client-server\game_shared\vector.h
;	COMDAT ??YVector@@QAEAAV0@ABV0@@Z
_TEXT	SEGMENT
_this$ = -4						; size = 4
_v$ = 8							; size = 4
??YVector@@QAEAAV0@ABV0@@Z PROC				; Vector::operator+=, COMDAT
; _this$ = ecx

; 168  : 	{

	push	ebp
	mov	ebp, esp
	sub	esp, 68					; 00000044H
	push	ebx
	push	esi
	push	edi
	mov	DWORD PTR _this$[ebp], ecx

; 169  : 		x+=v.x; y+=v.y; z += v.z;	

	mov	eax, DWORD PTR _this$[ebp]
	mov	ecx, DWORD PTR _v$[ebp]
	movss	xmm0, DWORD PTR [eax]
	addss	xmm0, DWORD PTR [ecx]
	mov	edx, DWORD PTR _this$[ebp]
	movss	DWORD PTR [edx], xmm0
	mov	eax, DWORD PTR _this$[ebp]
	mov	ecx, DWORD PTR _v$[ebp]
	movss	xmm0, DWORD PTR [eax+4]
	addss	xmm0, DWORD PTR [ecx+4]
	mov	edx, DWORD PTR _this$[ebp]
	movss	DWORD PTR [edx+4], xmm0
	mov	eax, DWORD PTR _this$[ebp]
	mov	ecx, DWORD PTR _v$[ebp]
	movss	xmm0, DWORD PTR [eax+8]
	addss	xmm0, DWORD PTR [ecx+8]
	mov	edx, DWORD PTR _this$[ebp]
	movss	DWORD PTR [edx+8], xmm0

; 170  : 		return *this;

	mov	eax, DWORD PTR _this$[ebp]

; 171  : 	}			

	pop	edi
	pop	esi
	pop	ebx
	mov	esp, ebp
	pop	ebp
	ret	4
??YVector@@QAEAAV0@ABV0@@Z ENDP				; Vector::operator+=
_TEXT	ENDS
; Function compile flags: /Odtp /ZI
; File d:\!diffusion 2020\source code 2022\client-server\game_shared\vector.h
;	COMDAT ??DVector@@QBE?AV0@M@Z
_TEXT	SEGMENT
_this$ = -4						; size = 4
___$ReturnUdt$ = 8					; size = 4
_fl$ = 12						; size = 4
??DVector@@QBE?AV0@M@Z PROC				; Vector::operator*, COMDAT
; _this$ = ecx

; 162  : 	inline Vector operator*(float fl) const		{ return Vector(x*fl, y*fl, z*fl);	   }

	push	ebp
	mov	ebp, esp
	sub	esp, 68					; 00000044H
	push	ebx
	push	esi
	push	edi
	mov	DWORD PTR _this$[ebp], ecx
	mov	eax, DWORD PTR _this$[ebp]
	movss	xmm0, DWORD PTR [eax+8]
	mulss	xmm0, DWORD PTR _fl$[ebp]
	push	ecx
	movss	DWORD PTR [esp], xmm0
	mov	ecx, DWORD PTR _this$[ebp]
	movss	xmm0, DWORD PTR [ecx+4]
	mulss	xmm0, DWORD PTR _fl$[ebp]
	push	ecx
	movss	DWORD PTR [esp], xmm0
	mov	edx, DWORD PTR _this$[ebp]
	movss	xmm0, DWORD PTR [edx]
	mulss	xmm0, DWORD PTR _fl$[ebp]
	push	ecx
	movss	DWORD PTR [esp], xmm0
	mov	ecx, DWORD PTR ___$ReturnUdt$[ebp]
	call	??0Vector@@QAE@MMM@Z			; Vector::Vector
	mov	eax, DWORD PTR ___$ReturnUdt$[ebp]
	pop	edi
	pop	esi
	pop	ebx
	mov	esp, ebp
	pop	ebp
	ret	8
??DVector@@QBE?AV0@M@Z ENDP				; Vector::operator*
_TEXT	ENDS
; Function compile flags: /Odtp /ZI
; File d:\!diffusion 2020\source code 2022\client-server\game_shared\vector.h
;	COMDAT ??HVector@@QBE?AV0@ABV0@@Z
_TEXT	SEGMENT
_this$ = -4						; size = 4
___$ReturnUdt$ = 8					; size = 4
_v$ = 12						; size = 4
??HVector@@QBE?AV0@ABV0@@Z PROC				; Vector::operator+, COMDAT
; _this$ = ecx

; 158  : 	inline Vector operator+(const Vector& v) const	{ return Vector(x+v.x, y+v.y, z+v.z);	   }

	push	ebp
	mov	ebp, esp
	sub	esp, 68					; 00000044H
	push	ebx
	push	esi
	push	edi
	mov	DWORD PTR _this$[ebp], ecx
	mov	eax, DWORD PTR _this$[ebp]
	mov	ecx, DWORD PTR _v$[ebp]
	movss	xmm0, DWORD PTR [eax+8]
	addss	xmm0, DWORD PTR [ecx+8]
	push	ecx
	movss	DWORD PTR [esp], xmm0
	mov	edx, DWORD PTR _this$[ebp]
	mov	eax, DWORD PTR _v$[ebp]
	movss	xmm0, DWORD PTR [edx+4]
	addss	xmm0, DWORD PTR [eax+4]
	push	ecx
	movss	DWORD PTR [esp], xmm0
	mov	ecx, DWORD PTR _this$[ebp]
	mov	edx, DWORD PTR _v$[ebp]
	movss	xmm0, DWORD PTR [ecx]
	addss	xmm0, DWORD PTR [edx]
	push	ecx
	movss	DWORD PTR [esp], xmm0
	mov	ecx, DWORD PTR ___$ReturnUdt$[ebp]
	call	??0Vector@@QAE@MMM@Z			; Vector::Vector
	mov	eax, DWORD PTR ___$ReturnUdt$[ebp]
	pop	edi
	pop	esi
	pop	ebx
	mov	esp, ebp
	pop	ebp
	ret	8
??HVector@@QBE?AV0@ABV0@@Z ENDP				; Vector::operator+
_TEXT	ENDS
; Function compile flags: /Odtp /ZI
; File d:\!diffusion 2020\source code 2022\client-server\game_shared\vector.h
;	COMDAT ??0Vector@@QAE@MMM@Z
_TEXT	SEGMENT
_this$ = -4						; size = 4
_X$ = 8							; size = 4
_Y$ = 12						; size = 4
_Z$ = 16						; size = 4
??0Vector@@QAE@MMM@Z PROC				; Vector::Vector, COMDAT
; _this$ = ecx

; 144  : 	inline Vector(float X, float Y, float Z)	{ x = X; y = Y; z = Z;                     }

	push	ebp
	mov	ebp, esp
	sub	esp, 68					; 00000044H
	push	ebx
	push	esi
	push	edi
	mov	DWORD PTR _this$[ebp], ecx
	mov	eax, DWORD PTR _this$[ebp]
	movss	xmm0, DWORD PTR _X$[ebp]
	movss	DWORD PTR [eax], xmm0
	mov	eax, DWORD PTR _this$[ebp]
	movss	xmm0, DWORD PTR _Y$[ebp]
	movss	DWORD PTR [eax+4], xmm0
	mov	eax, DWORD PTR _this$[ebp]
	movss	xmm0, DWORD PTR _Z$[ebp]
	movss	DWORD PTR [eax+8], xmm0
	mov	eax, DWORD PTR _this$[ebp]
	pop	edi
	pop	esi
	pop	ebx
	mov	esp, ebp
	pop	ebp
	ret	12					; 0000000cH
??0Vector@@QAE@MMM@Z ENDP				; Vector::Vector
_TEXT	ENDS
; Function compile flags: /Odtp /ZI
; File d:\!diffusion 2020\source code 2022\client-server\game_shared\vector.h
;	COMDAT ??0Vector@@QAE@XZ
_TEXT	SEGMENT
_this$ = -4						; size = 4
??0Vector@@QAE@XZ PROC					; Vector::Vector, COMDAT
; _this$ = ecx

; 143  : 	inline Vector(void)				{ }

	push	ebp
	mov	ebp, esp
	sub	esp, 68					; 00000044H
	push	ebx
	push	esi
	push	edi
	mov	DWORD PTR _this$[ebp], ecx
	mov	eax, DWORD PTR _this$[ebp]
	pop	edi
	pop	esi
	pop	ebx
	mov	esp, ebp
	pop	ebp
	ret	0
??0Vector@@QAE@XZ ENDP					; Vector::Vector
_TEXT	ENDS
; Function compile flags: /Odtp /ZI
; File d:\!diffusion 2020\source code 2022\client-server\game_shared\vector.h
;	COMDAT ?SinCos@@YAXMPAM0@Z
_TEXT	SEGMENT
_angle$ = 8						; size = 4
_sine$ = 12						; size = 4
_cosine$ = 16						; size = 4
?SinCos@@YAXMPAM0@Z PROC				; SinCos, COMDAT

; 36   : {

	push	ebp
	mov	ebp, esp
	sub	esp, 64					; 00000040H
	push	ebx
	push	esi
	push	edi

; 37   : 	/*
; 38   : 	__asm
; 39   : 	{
; 40   : 		push	ecx
; 41   : 		fld	dword ptr angle
; 42   : 		fsincos
; 43   : 		mov	ecx, dword ptr[cosine]
; 44   : 		fstp      dword ptr [ecx]
; 45   : 		mov 	ecx, dword ptr[sine]
; 46   : 		fstp	dword ptr [ecx]
; 47   : 		pop	ecx
; 48   : 	}*/
; 49   : 	*sine = sin( angle );

	cvtss2sd xmm0, DWORD PTR _angle$[ebp]
	sub	esp, 8
	movsd	QWORD PTR [esp], xmm0
	call	_sin
	add	esp, 8
	mov	eax, DWORD PTR _sine$[ebp]
	fstp	DWORD PTR [eax]

; 50   : 	*cosine = cos( angle );

	cvtss2sd xmm0, DWORD PTR _angle$[ebp]
	sub	esp, 8
	movsd	QWORD PTR [esp], xmm0
	call	_cos
	add	esp, 8
	mov	eax, DWORD PTR _cosine$[ebp]
	fstp	DWORD PTR [eax]

; 51   : }

	pop	edi
	pop	esi
	pop	ebx
	mov	esp, ebp
	pop	ebp
	ret	0
?SinCos@@YAXMPAM0@Z ENDP				; SinCos
_TEXT	ENDS
; Function compile flags: /Odtp /ZI
;	COMDAT ??__G@YGXPAX0IIP6EPAX00@Z@Z
_TEXT	SEGMENT
tv66 = -68						; size = 4
___t$ = 8						; size = 4
___u$ = 12						; size = 4
___s$ = 16						; size = 4
___n$ = 20						; size = 4
___f$ = 24						; size = 4
??__G@YGXPAX0IIP6EPAX00@Z@Z PROC			; `vector copy constructor iterator', COMDAT
	push	ebp
	mov	ebp, esp
	sub	esp, 68					; 00000044H
	push	ebx
	push	esi
	push	edi
$LN2@vector:
	mov	eax, DWORD PTR ___n$[ebp]
	mov	DWORD PTR tv66[ebp], eax
	mov	ecx, DWORD PTR ___n$[ebp]
	sub	ecx, 1
	mov	DWORD PTR ___n$[ebp], ecx
	cmp	DWORD PTR tv66[ebp], 0
	jbe	SHORT $LN1@vector
	mov	eax, DWORD PTR ___u$[ebp]
	push	eax
	mov	ecx, DWORD PTR ___t$[ebp]
	call	DWORD PTR ___f$[ebp]
	mov	eax, DWORD PTR ___t$[ebp]
	add	eax, DWORD PTR ___s$[ebp]
	mov	DWORD PTR ___t$[ebp], eax
	mov	eax, DWORD PTR ___u$[ebp]
	add	eax, DWORD PTR ___s$[ebp]
	mov	DWORD PTR ___u$[ebp], eax
	jmp	SHORT $LN2@vector
$LN1@vector:
	pop	edi
	pop	esi
	pop	ebx
	mov	esp, ebp
	pop	ebp
	ret	20					; 00000014H
??__G@YGXPAX0IIP6EPAX00@Z@Z ENDP			; `vector copy constructor iterator'
_TEXT	ENDS
; Function compile flags: /Odtp /ZI
;	COMDAT ??_H@YGXPAXIIP6EPAX0@Z@Z
_TEXT	SEGMENT
tv66 = -68						; size = 4
___t$ = 8						; size = 4
___s$ = 12						; size = 4
___n$ = 16						; size = 4
___f$ = 20						; size = 4
??_H@YGXPAXIIP6EPAX0@Z@Z PROC				; `vector constructor iterator', COMDAT
	push	ebp
	mov	ebp, esp
	sub	esp, 68					; 00000044H
	push	ebx
	push	esi
	push	edi
$LN2@vector:
	mov	eax, DWORD PTR ___n$[ebp]
	mov	DWORD PTR tv66[ebp], eax
	mov	ecx, DWORD PTR ___n$[ebp]
	sub	ecx, 1
	mov	DWORD PTR ___n$[ebp], ecx
	cmp	DWORD PTR tv66[ebp], 0
	jbe	SHORT $LN1@vector
	mov	ecx, DWORD PTR ___t$[ebp]
	call	DWORD PTR ___f$[ebp]
	mov	eax, DWORD PTR ___t$[ebp]
	add	eax, DWORD PTR ___s$[ebp]
	mov	DWORD PTR ___t$[ebp], eax
	jmp	SHORT $LN2@vector
$LN1@vector:
	pop	edi
	pop	esi
	pop	ebx
	mov	esp, ebp
	pop	ebp
	ret	16					; 00000010H
??_H@YGXPAXIIP6EPAX0@Z@Z ENDP				; `vector constructor iterator'
_TEXT	ENDS
END
