; Listing generated by Microsoft (R) Optimizing Compiler Version 19.00.24247.2 

	TITLE	D:\!DIFFUSION 2020\source code 2022\client-server\client\render\r_warp.cpp
	.686P
	.XMM
	include listing.inc
	.model	flat

INCLUDELIB LIBCMT
INCLUDELIB OLDNAMES

CONST	SEGMENT
?r_skyTexOrder@@3QBHB DD 00H				; r_skyTexOrder
	DD	02H
	DD	01H
	DD	03H
	DD	04H
	DD	05H
?st_to_vec@@3QAY02$$CBHA DD 03H				; st_to_vec
	DD	0ffffffffH
	DD	02H
	DD	0fffffffdH
	DD	01H
	DD	02H
	DD	01H
	DD	03H
	DD	02H
	DD	0ffffffffH
	DD	0fffffffdH
	DD	02H
	DD	0fffffffeH
	DD	0ffffffffH
	DD	03H
	DD	02H
	DD	0ffffffffH
	DD	0fffffffdH
?vec_to_st@@3QAY02$$CBHA DD 0fffffffeH			; vec_to_st
	DD	03H
	DD	01H
	DD	02H
	DD	03H
	DD	0ffffffffH
	DD	01H
	DD	03H
	DD	02H
	DD	0ffffffffH
	DD	03H
	DD	0fffffffeH
	DD	0fffffffeH
	DD	0ffffffffH
	DD	03H
	DD	0fffffffeH
	DD	01H
	DD	0fffffffdH
CONST	ENDS
PUBLIC	??_H@YGXPAXIIP6EPAX0@Z@Z			; `vector constructor iterator'
PUBLIC	??__G@YGXPAX0IIP6EPAX00@Z@Z			; `vector copy constructor iterator'
PUBLIC	??0Vector@@QAE@XZ				; Vector::Vector
PUBLIC	??0Vector@@QAE@MMM@Z				; Vector::Vector
PUBLIC	??0Vector@@QAE@ABV0@@Z				; Vector::Vector
PUBLIC	??8Vector@@QBEHABV0@@Z				; Vector::operator==
PUBLIC	??9Vector@@QBEHABV0@@Z				; Vector::operator!=
PUBLIC	??DVector@@QBE?AV0@M@Z				; Vector::operator*
PUBLIC	??YVector@@QAEAAV0@ABV0@@Z			; Vector::operator+=
PUBLIC	??XVector@@QAEAAV0@M@Z				; Vector::operator*=
PUBLIC	?Length@Vector@@QBEMXZ				; Vector::Length
PUBLIC	??BVector@@QAEPAMXZ				; Vector::operator float *
PUBLIC	?Normalize@Vector@@QBE?AV1@XZ			; Vector::Normalize
PUBLIC	?DotProduct@@YAMABVVector@@0@Z			; DotProduct
PUBLIC	?R_DrawSkyBox@@YAXXZ				; R_DrawSkyBox
PUBLIC	?R_ClearSkyBox@@YAXXZ				; R_ClearSkyBox
PUBLIC	?R_CheckSkyPortal@@YAXPAUcl_entity_s@@@Z	; R_CheckSkyPortal
PUBLIC	?R_DrawSkyPortal@@YAXPAUcl_entity_s@@@Z		; R_DrawSkyPortal
PUBLIC	?R_AddSkyBoxSurface@@YAXPAUmsurface_s@@@Z	; R_AddSkyBoxSurface
PUBLIC	?DrawSkyPolygon@@YAXHQAVVector@@@Z		; DrawSkyPolygon
PUBLIC	?ClipSkyPolygon@@YAXHQAVVector@@H@Z		; ClipSkyPolygon
PUBLIC	?R_WorldFindSky@@YAXXZ				; R_WorldFindSky
PUBLIC	??_C@_0CA@BKNCOCCA@ClipSkyPolygon?3?5MAX_CLIP_VERTS?6?$AA@ ; `string'
PUBLIC	??_C@_0DA@NALGDGEN@R_AddSkyBoxSurface?3?5numverts?5?$DO?$DN?5@ ; `string'
PUBLIC	__real@00000000
PUBLIC	__real@3b000000
PUBLIC	__real@3c000000
PUBLIC	__real@3c4ccccd
PUBLIC	__real@3dcccccd
PUBLIC	__real@3f000000
PUBLIC	__real@3f7f8000
PUBLIC	__real@3f800000
PUBLIC	__real@47c34f80
PUBLIC	__real@bdcccccd
PUBLIC	__real@bf800000
PUBLIC	__real@c7c34f80
PUBLIC	__xmm@80000000800000008000000080000000
EXTRN	_memset:PROC
EXTRN	_fabs:PROC
EXTRN	_sqrt:PROC
EXTRN	?ColorNormalize@@YAMABVVector@@AAV1@@Z:PROC	; ColorNormalize
EXTRN	?CullBox@CFrustum@@QAE_NABVVector@@0H@Z:PROC	; CFrustum::CullBox
EXTRN	?DisablePlane@CFrustum@@QAEXH@Z:PROC		; CFrustum::DisablePlane
EXTRN	?R_CullSurfaceExt@@YAHPAUmsurface_s@@PAVCFrustum@@@Z:PROC ; R_CullSurfaceExt
EXTRN	?R_RenderScene@@YAXXZ:PROC			; R_RenderScene
EXTRN	?R_LoadIdentity@@YAXXZ:PROC			; R_LoadIdentity
EXTRN	?R_FindViewLeaf@@YAXXZ:PROC			; R_FindViewLeaf
EXTRN	?R_SetupFrustum@@YAXXZ:PROC			; R_SetupFrustum
EXTRN	?R_PushRefState@@YAXXZ:PROC			; R_PushRefState
EXTRN	?R_PopRefState@@YAXXZ:PROC			; R_PopRefState
EXTRN	?R_MarkLeaves@@YAXXZ:PROC			; R_MarkLeaves
EXTRN	?GL_BindShader@@YAXPAUglsl_prog_s@@@Z:PROC	; GL_BindShader
EXTRN	?V_CalcFov@@YAMAAMMM@Z:PROC			; V_CalcFov
EXTRN	?V_AdjustFov@@YAXAAM0MM_N@Z:PROC		; V_AdjustFov
EXTRN	@__security_check_cookie@4:PROC
EXTRN	?g_vecZero@@3VVector@@B:BYTE			; g_vecZero
EXTRN	?gEngfuncs@@3Ucl_enginefuncs_s@@A:BYTE		; gEngfuncs
EXTRN	?gRenderfuncs@@3Urender_api_s@@A:BYTE		; gRenderfuncs
EXTRN	?pglBegin@@3P6GXI@ZA:DWORD			; pglBegin
EXTRN	?pglDisable@@3P6GXI@ZA:DWORD			; pglDisable
EXTRN	?pglEnd@@3P6GXXZA:DWORD				; pglEnd
EXTRN	?pglTexCoord2f@@3P6GXMM@ZA:DWORD		; pglTexCoord2f
EXTRN	?pglTexEnvi@@3P6GXIIH@ZA:DWORD			; pglTexEnvi
EXTRN	?pglVertex3fv@@3P6GXPBM@ZA:DWORD		; pglVertex3fv
EXTRN	?pglUniform1fARB@@3P6GXHM@ZA:DWORD		; pglUniform1fARB
EXTRN	?pglUniform3fARB@@3P6GXHMMM@ZA:DWORD		; pglUniform3fARB
EXTRN	?pglUniform4fARB@@3P6GXHMMMM@ZA:DWORD		; pglUniform4fARB
EXTRN	?r_adjust_fov@@3PAUcvar_s@@A:DWORD		; r_adjust_fov
EXTRN	?r_allow_3dsky@@3PAUcvar_s@@A:DWORD		; r_allow_3dsky
EXTRN	?r_lighting_modulate@@3PAUcvar_s@@A:DWORD	; r_lighting_modulate
EXTRN	?worldmodel@@3PAUmodel_s@@A:DWORD		; worldmodel
EXTRN	?RI@@3PAUref_instance_t@@A:DWORD		; RI
EXTRN	?tr@@3Uref_globals_t@@A:BYTE			; tr
EXTRN	?r_stats@@3Uref_stats_t@@A:BYTE			; r_stats
EXTRN	?world@@3PAUgl_world_t@@A:DWORD			; world
EXTRN	?glsl@@3Uref_shaders_t@@A:BYTE			; glsl
EXTRN	___security_cookie:DWORD
EXTRN	__fltused:DWORD
_BSS	SEGMENT
?skyclip@@3QBVVector@@B DB 048H DUP (?)			; skyclip
_BSS	ENDS
CRT$XCU	SEGMENT
?skyclip$initializer$@@3P6AXXZA DD FLAT:??__Eskyclip@@YAXXZ ; skyclip$initializer$
CRT$XCU	ENDS
;	COMDAT __xmm@80000000800000008000000080000000
CONST	SEGMENT
__xmm@80000000800000008000000080000000 DB 00H, 00H, 00H, 080H, 00H, 00H, 00H
	DB	080H, 00H, 00H, 00H, 080H, 00H, 00H, 00H, 080H
CONST	ENDS
;	COMDAT __real@c7c34f80
CONST	SEGMENT
__real@c7c34f80 DD 0c7c34f80r			; -99999
CONST	ENDS
;	COMDAT __real@bf800000
CONST	SEGMENT
__real@bf800000 DD 0bf800000r			; -1
CONST	ENDS
;	COMDAT __real@bdcccccd
CONST	SEGMENT
__real@bdcccccd DD 0bdcccccdr			; -0.1
CONST	ENDS
;	COMDAT __real@47c34f80
CONST	SEGMENT
__real@47c34f80 DD 047c34f80r			; 99999
CONST	ENDS
;	COMDAT __real@3f800000
CONST	SEGMENT
__real@3f800000 DD 03f800000r			; 1
CONST	ENDS
;	COMDAT __real@3f7f8000
CONST	SEGMENT
__real@3f7f8000 DD 03f7f8000r			; 0.998047
CONST	ENDS
;	COMDAT __real@3f000000
CONST	SEGMENT
__real@3f000000 DD 03f000000r			; 0.5
CONST	ENDS
;	COMDAT __real@3dcccccd
CONST	SEGMENT
__real@3dcccccd DD 03dcccccdr			; 0.1
CONST	ENDS
;	COMDAT __real@3c4ccccd
CONST	SEGMENT
__real@3c4ccccd DD 03c4ccccdr			; 0.0125
CONST	ENDS
;	COMDAT __real@3c000000
CONST	SEGMENT
__real@3c000000 DD 03c000000r			; 0.0078125
CONST	ENDS
;	COMDAT __real@3b000000
CONST	SEGMENT
__real@3b000000 DD 03b000000r			; 0.00195313
CONST	ENDS
;	COMDAT __real@00000000
CONST	SEGMENT
__real@00000000 DD 000000000r			; 0
CONST	ENDS
;	COMDAT ??_C@_0DA@NALGDGEN@R_AddSkyBoxSurface?3?5numverts?5?$DO?$DN?5@
CONST	SEGMENT
??_C@_0DA@NALGDGEN@R_AddSkyBoxSurface?3?5numverts?5?$DO?$DN?5@ DB 'R_AddS'
	DB	'kyBoxSurface: numverts >= MAX_CLIP_VERTS', 0aH, 00H ; `string'
CONST	ENDS
;	COMDAT ??_C@_0CA@BKNCOCCA@ClipSkyPolygon?3?5MAX_CLIP_VERTS?6?$AA@
CONST	SEGMENT
??_C@_0CA@BKNCOCCA@ClipSkyPolygon?3?5MAX_CLIP_VERTS?6?$AA@ DB 'ClipSkyPol'
	DB	'ygon: MAX_CLIP_VERTS', 0aH, 00H		; `string'
CONST	ENDS
; Function compile flags: /Odtp /ZI
; File d:\!diffusion 2020\source code 2022\client-server\client\render\r_warp.cpp
;	COMDAT ?R_WorldFindSky@@YAXXZ
_TEXT	SEGMENT
tv175 = -93						; size = 1
tv173 = -92						; size = 4
tv202 = -89						; size = 1
tv93 = -89						; size = 1
_j$ = -24						; size = 4
_i$ = -20						; size = 4
_leaf$ = -16						; size = 4
_mark$ = -12						; size = 4
_surf$ = -8						; size = 4
_frustum$ = -4						; size = 4
?R_WorldFindSky@@YAXXZ PROC				; R_WorldFindSky, COMDAT

; 324  : {

	push	ebp
	mov	ebp, esp
	sub	esp, 96					; 00000060H
	push	ebx
	push	esi
	push	edi

; 325  : 	CFrustum		*frustum = &RI->frustum;

	mov	eax, DWORD PTR ?RI@@3PAUref_instance_t@@A ; RI
	add	eax, 48					; 00000030H
	mov	DWORD PTR _frustum$[ebp], eax

; 326  : 	msurface_t	*surf, **mark;
; 327  : 	mworldleaf_t	*leaf;
; 328  : 	int		i, j;
; 329  : 
; 330  : 	memset( RI->visfaces, 0x00, ( world->numsortedfaces + 7) >> 3 );

	mov	eax, DWORD PTR ?world@@3PAUgl_world_t@@A ; world
	movzx	ecx, WORD PTR [eax+136]
	add	ecx, 7
	sar	ecx, 3
	push	ecx
	push	0
	mov	edx, DWORD PTR ?RI@@3PAUref_instance_t@@A ; RI
	add	edx, 4779				; 000012abH
	push	edx
	call	_memset
	add	esp, 12					; 0000000cH

; 331  : 
; 332  : 	// always skip the leaf 0, because it's an outside leaf
; 333  : 	for( i = 1, leaf = &world->leafs[1]; i < world->numleafs; i++, leaf++ )

	mov	DWORD PTR _i$[ebp], 1
	mov	eax, 88					; 00000058H
	shl	eax, 0
	mov	ecx, DWORD PTR ?world@@3PAUgl_world_t@@A ; world
	add	eax, DWORD PTR [ecx+68]
	mov	DWORD PTR _leaf$[ebp], eax
	jmp	SHORT $LN4@R_WorldFin
$LN2@R_WorldFin:
	mov	eax, DWORD PTR _i$[ebp]
	add	eax, 1
	mov	DWORD PTR _i$[ebp], eax
	mov	ecx, DWORD PTR _leaf$[ebp]
	add	ecx, 88					; 00000058H
	mov	DWORD PTR _leaf$[ebp], ecx
$LN4@R_WorldFin:
	mov	eax, DWORD PTR ?world@@3PAUgl_world_t@@A ; world
	mov	ecx, DWORD PTR _i$[ebp]
	cmp	ecx, DWORD PTR [eax+72]
	jge	$LN3@R_WorldFin

; 334  : 	{
; 335  : 		if( CHECKVISBIT( RI->visbytes, leaf->cluster ) && ( leaf->efrags || leaf->nummarksurfaces ))

	mov	eax, DWORD PTR _leaf$[ebp]
	cmp	DWORD PTR [eax+76], 0
	jl	SHORT $LN20@R_WorldFin
	mov	ecx, DWORD PTR _leaf$[ebp]
	mov	edx, DWORD PTR [ecx+76]
	sar	edx, 3
	mov	eax, DWORD PTR ?RI@@3PAUref_instance_t@@A ; RI
	movzx	edx, BYTE PTR [eax+edx+684]
	mov	eax, DWORD PTR _leaf$[ebp]
	mov	ecx, DWORD PTR [eax+76]
	and	ecx, 7
	mov	eax, 1
	shl	eax, cl
	and	edx, eax
	mov	BYTE PTR tv93[ebp], dl
	jmp	SHORT $LN21@R_WorldFin
$LN20@R_WorldFin:
	mov	BYTE PTR tv93[ebp], 0
$LN21@R_WorldFin:
	movzx	ecx, BYTE PTR tv93[ebp]
	test	ecx, ecx
	je	$LN11@R_WorldFin
	mov	eax, DWORD PTR _leaf$[ebp]
	cmp	DWORD PTR [eax+64], 0
	jne	SHORT $LN12@R_WorldFin
	mov	eax, DWORD PTR _leaf$[ebp]
	cmp	DWORD PTR [eax+72], 0
	je	$LN11@R_WorldFin
$LN12@R_WorldFin:

; 336  : 		{
; 337  : 			if( RI->frustum.CullBox( leaf->mins, leaf->maxs ))

	push	0
	mov	eax, DWORD PTR _leaf$[ebp]
	add	eax, 48					; 00000030H
	push	eax
	mov	ecx, DWORD PTR _leaf$[ebp]
	add	ecx, 36					; 00000024H
	push	ecx
	mov	ecx, DWORD PTR ?RI@@3PAUref_instance_t@@A ; RI
	add	ecx, 48					; 00000030H
	call	?CullBox@CFrustum@@QAE_NABVVector@@0H@Z	; CFrustum::CullBox
	movzx	edx, al
	test	edx, edx
	je	SHORT $LN13@R_WorldFin

; 338  : 				continue;

	jmp	$LN2@R_WorldFin
$LN13@R_WorldFin:

; 339  : 
; 340  : 			if( leaf->nummarksurfaces )

	mov	eax, DWORD PTR _leaf$[ebp]
	cmp	DWORD PTR [eax+72], 0
	je	$LN11@R_WorldFin

; 341  : 			{
; 342  : 				for( j = 0, mark = leaf->firstmarksurface; j < leaf->nummarksurfaces; j++, mark++ )

	mov	DWORD PTR _j$[ebp], 0
	mov	eax, DWORD PTR _leaf$[ebp]
	mov	ecx, DWORD PTR [eax+68]
	mov	DWORD PTR _mark$[ebp], ecx
	jmp	SHORT $LN7@R_WorldFin
$LN5@R_WorldFin:
	mov	eax, DWORD PTR _j$[ebp]
	add	eax, 1
	mov	DWORD PTR _j$[ebp], eax
	mov	ecx, DWORD PTR _mark$[ebp]
	add	ecx, 4
	mov	DWORD PTR _mark$[ebp], ecx
$LN7@R_WorldFin:
	mov	eax, DWORD PTR _leaf$[ebp]
	mov	ecx, DWORD PTR _j$[ebp]
	cmp	ecx, DWORD PTR [eax+72]
	jge	$LN11@R_WorldFin

; 343  : 					SETVISBIT( RI->visfaces, *mark - worldmodel->surfaces );

	mov	eax, DWORD PTR _mark$[ebp]
	mov	ecx, DWORD PTR ?worldmodel@@3PAUmodel_s@@A ; worldmodel
	mov	eax, DWORD PTR [eax]
	sub	eax, DWORD PTR [ecx+180]
	cdq
	mov	ecx, 92					; 0000005cH
	idiv	ecx
	test	eax, eax
	jl	$LN22@R_WorldFin
	mov	edx, DWORD PTR _mark$[ebp]
	mov	eax, DWORD PTR ?worldmodel@@3PAUmodel_s@@A ; worldmodel
	mov	ecx, DWORD PTR [edx]
	sub	ecx, DWORD PTR [eax+180]
	mov	eax, ecx
	cdq
	mov	ecx, 92					; 0000005cH
	idiv	ecx
	mov	esi, eax
	sar	esi, 3
	mov	edx, DWORD PTR _mark$[ebp]
	mov	eax, DWORD PTR ?worldmodel@@3PAUmodel_s@@A ; worldmodel
	mov	ecx, DWORD PTR [edx]
	sub	ecx, DWORD PTR [eax+180]
	mov	eax, ecx
	cdq
	mov	ecx, 92					; 0000005cH
	idiv	ecx
	and	eax, 7
	mov	edx, 1
	mov	ecx, eax
	shl	edx, cl
	mov	eax, DWORD PTR ?RI@@3PAUref_instance_t@@A ; RI
	movzx	ecx, BYTE PTR [eax+esi+4779]
	or	ecx, edx
	mov	DWORD PTR tv173[ebp], ecx
	mov	edx, DWORD PTR _mark$[ebp]
	mov	eax, DWORD PTR ?worldmodel@@3PAUmodel_s@@A ; worldmodel
	mov	ecx, DWORD PTR [edx]
	sub	ecx, DWORD PTR [eax+180]
	mov	eax, ecx
	cdq
	mov	ecx, 92					; 0000005cH
	idiv	ecx
	sar	eax, 3
	mov	edx, DWORD PTR ?RI@@3PAUref_instance_t@@A ; RI
	mov	cl, BYTE PTR tv173[ebp]
	mov	BYTE PTR [edx+eax+4779], cl
	mov	dl, BYTE PTR tv173[ebp]
	mov	BYTE PTR tv175[ebp], dl
	jmp	SHORT $LN23@R_WorldFin
$LN22@R_WorldFin:
	mov	BYTE PTR tv175[ebp], 0
$LN23@R_WorldFin:
	jmp	$LN5@R_WorldFin
$LN11@R_WorldFin:

; 344  : 			}
; 345  : 		}
; 346  : 	}

	jmp	$LN2@R_WorldFin
$LN3@R_WorldFin:

; 347  : 
; 348  : 	// create drawlist for faces, do additional culling for world faces
; 349  : 	for( i = 0; i < world->numsortedfaces; i++ )

	mov	DWORD PTR _i$[ebp], 0
	jmp	SHORT $LN10@R_WorldFin
$LN8@R_WorldFin:
	mov	eax, DWORD PTR _i$[ebp]
	add	eax, 1
	mov	DWORD PTR _i$[ebp], eax
$LN10@R_WorldFin:
	mov	eax, DWORD PTR ?world@@3PAUgl_world_t@@A ; world
	movzx	ecx, WORD PTR [eax+136]
	cmp	DWORD PTR _i$[ebp], ecx
	jge	$LN1@R_WorldFin

; 350  : 	{
; 351  : 		j = world->sortedfaces[i];

	mov	eax, DWORD PTR ?world@@3PAUgl_world_t@@A ; world
	mov	ecx, DWORD PTR [eax+132]
	mov	edx, DWORD PTR _i$[ebp]
	movzx	eax, WORD PTR [ecx+edx*2]
	mov	DWORD PTR _j$[ebp], eax

; 352  : 
; 353  : 		if( j >= worldmodel->nummodelsurfaces )

	mov	eax, DWORD PTR ?worldmodel@@3PAUmodel_s@@A ; worldmodel
	mov	ecx, DWORD PTR _j$[ebp]
	cmp	ecx, DWORD PTR [eax+116]
	jl	SHORT $LN15@R_WorldFin

; 354  : 			continue;	// not a world face

	jmp	SHORT $LN8@R_WorldFin
$LN15@R_WorldFin:

; 355  : 
; 356  : 		surf = worldmodel->surfaces + j;

	imul	eax, DWORD PTR _j$[ebp], 92
	mov	ecx, DWORD PTR ?worldmodel@@3PAUmodel_s@@A ; worldmodel
	add	eax, DWORD PTR [ecx+180]
	mov	DWORD PTR _surf$[ebp], eax

; 357  : 
; 358  : 		if( !FBitSet( surf->flags, SURF_DRAWSKY ))

	mov	eax, DWORD PTR _surf$[ebp]
	mov	ecx, DWORD PTR [eax+8]
	and	ecx, 4
	jne	SHORT $LN16@R_WorldFin

; 359  : 			continue;	// only skyfaces interesting us

	jmp	SHORT $LN8@R_WorldFin
$LN16@R_WorldFin:

; 360  : 
; 361  : 		if( CHECKVISBIT( RI->visfaces, j ))

	cmp	DWORD PTR _j$[ebp], 0
	jl	SHORT $LN24@R_WorldFin
	mov	eax, DWORD PTR _j$[ebp]
	sar	eax, 3
	mov	ecx, DWORD PTR ?RI@@3PAUref_instance_t@@A ; RI
	movzx	edx, BYTE PTR [ecx+eax+4779]
	mov	ecx, DWORD PTR _j$[ebp]
	and	ecx, 7
	mov	eax, 1
	shl	eax, cl
	and	edx, eax
	mov	BYTE PTR tv202[ebp], dl
	jmp	SHORT $LN25@R_WorldFin
$LN24@R_WorldFin:
	mov	BYTE PTR tv202[ebp], 0
$LN25@R_WorldFin:
	movzx	ecx, BYTE PTR tv202[ebp]
	test	ecx, ecx
	je	SHORT $LN17@R_WorldFin

; 362  : 		{
; 363  : 			RI->currententity = GET_ENTITY( 0 );

	push	0
	call	DWORD PTR ?gEngfuncs@@3Ucl_enginefuncs_s@@A+212
	add	esp, 4
	mov	ecx, DWORD PTR ?RI@@3PAUref_instance_t@@A ; RI
	mov	DWORD PTR [ecx+16], eax

; 364  : 			RI->currentmodel = RI->currententity->model;

	mov	eax, DWORD PTR ?RI@@3PAUref_instance_t@@A ; RI
	mov	ecx, DWORD PTR [eax+16]
	mov	edx, DWORD PTR ?RI@@3PAUref_instance_t@@A ; RI
	mov	eax, DWORD PTR [ecx+2964]
	mov	DWORD PTR [edx+20], eax

; 365  : 
; 366  : 			if( R_CullSurfaceExt( surf, frustum ))

	mov	eax, DWORD PTR _frustum$[ebp]
	push	eax
	mov	ecx, DWORD PTR _surf$[ebp]
	push	ecx
	call	?R_CullSurfaceExt@@YAHPAUmsurface_s@@PAVCFrustum@@@Z ; R_CullSurfaceExt
	add	esp, 8
	test	eax, eax
	je	SHORT $LN18@R_WorldFin

; 367  : 				continue;

	jmp	$LN8@R_WorldFin
$LN18@R_WorldFin:

; 368  : 
; 369  : 			SetBits( RI->params, RP_SKYVISIBLE ); // now sky is visible

	mov	eax, DWORD PTR ?RI@@3PAUref_instance_t@@A ; RI
	mov	ecx, DWORD PTR [eax]
	or	ecx, 2048				; 00000800H
	mov	edx, DWORD PTR ?RI@@3PAUref_instance_t@@A ; RI
	mov	DWORD PTR [edx], ecx

; 370  : 			return;

	jmp	SHORT $LN1@R_WorldFin
$LN17@R_WorldFin:

; 371  : 		}
; 372  : 	}

	jmp	$LN8@R_WorldFin
$LN1@R_WorldFin:

; 373  : }

	pop	edi
	pop	esi
	pop	ebx
	mov	esp, ebp
	pop	ebp
	ret	0
?R_WorldFindSky@@YAXXZ ENDP				; R_WorldFindSky
_TEXT	ENDS
; Function compile flags: /Odtp /ZI
; File d:\!diffusion 2020\source code 2022\client-server\client\render\r_warp.cpp
;	COMDAT ?MakeSkyVec@@YAXMMH@Z
_TEXT	SEGMENT
tv222 = -104						; size = 4
tv220 = -104						; size = 4
tv218 = -104						; size = 4
tv153 = -104						; size = 4
tv143 = -104						; size = 4
_b$ = -36						; size = 12
_v$ = -24						; size = 12
_farclip$ = -12						; size = 4
_k$ = -8						; size = 4
_j$ = -4						; size = 4
_s$ = 8							; size = 4
_t$ = 12						; size = 4
_axis$ = 16						; size = 4
?MakeSkyVec@@YAXMMH@Z PROC				; MakeSkyVec, COMDAT

; 202  : {

	push	ebp
	mov	ebp, esp
	sub	esp, 104				; 00000068H
	push	ebx
	push	esi
	push	edi

; 203  : 	int	j, k, farclip;
; 204  : 	Vector	v, b;

	lea	ecx, DWORD PTR _v$[ebp]
	call	??0Vector@@QAE@XZ			; Vector::Vector
	lea	ecx, DWORD PTR _b$[ebp]
	call	??0Vector@@QAE@XZ			; Vector::Vector

; 205  : 
; 206  : 	farclip = RI->farClip;

	mov	eax, DWORD PTR ?RI@@3PAUref_instance_t@@A ; RI
	cvttss2si ecx, DWORD PTR [eax+264]
	mov	DWORD PTR _farclip$[ebp], ecx

; 207  : 
; 208  : 	b[0] = s * (farclip >> 1);

	mov	eax, DWORD PTR _farclip$[ebp]
	sar	eax, 1
	cvtsi2ss xmm0, eax
	mulss	xmm0, DWORD PTR _s$[ebp]
	lea	ecx, DWORD PTR _b$[ebp]
	movss	DWORD PTR tv218[ebp], xmm0
	call	??BVector@@QAEPAMXZ			; Vector::operator float *
	mov	ecx, 4
	imul	edx, ecx, 0
	movss	xmm0, DWORD PTR tv218[ebp]
	movss	DWORD PTR [eax+edx], xmm0

; 209  : 	b[1] = t * (farclip >> 1);

	mov	eax, DWORD PTR _farclip$[ebp]
	sar	eax, 1
	cvtsi2ss xmm0, eax
	mulss	xmm0, DWORD PTR _t$[ebp]
	lea	ecx, DWORD PTR _b$[ebp]
	movss	DWORD PTR tv220[ebp], xmm0
	call	??BVector@@QAEPAMXZ			; Vector::operator float *
	mov	ecx, 4
	shl	ecx, 0
	movss	xmm0, DWORD PTR tv220[ebp]
	movss	DWORD PTR [eax+ecx], xmm0

; 210  : 	b[2] = (farclip >> 1);

	mov	eax, DWORD PTR _farclip$[ebp]
	sar	eax, 1
	cvtsi2ss xmm0, eax
	lea	ecx, DWORD PTR _b$[ebp]
	movss	DWORD PTR tv222[ebp], xmm0
	call	??BVector@@QAEPAMXZ			; Vector::operator float *
	mov	ecx, 4
	shl	ecx, 1
	movss	xmm0, DWORD PTR tv222[ebp]
	movss	DWORD PTR [eax+ecx], xmm0

; 211  : 
; 212  : 	for( j = 0; j < 3; j++ )

	mov	DWORD PTR _j$[ebp], 0
	jmp	SHORT $LN4@MakeSkyVec
$LN2@MakeSkyVec:
	mov	eax, DWORD PTR _j$[ebp]
	add	eax, 1
	mov	DWORD PTR _j$[ebp], eax
$LN4@MakeSkyVec:
	cmp	DWORD PTR _j$[ebp], 3
	jge	$LN3@MakeSkyVec

; 213  : 	{
; 214  : 		k = st_to_vec[axis][j];

	imul	eax, DWORD PTR _axis$[ebp], 12
	mov	ecx, DWORD PTR _j$[ebp]
	mov	edx, DWORD PTR ?st_to_vec@@3QAY02$$CBHA[eax+ecx*4]
	mov	DWORD PTR _k$[ebp], edx

; 215  : 		v[j] = (k < 0) ? -b[-k-1] : b[k-1];

	cmp	DWORD PTR _k$[ebp], 0
	jge	SHORT $LN12@MakeSkyVec
	lea	ecx, DWORD PTR _b$[ebp]
	call	??BVector@@QAEPAMXZ			; Vector::operator float *
	mov	ecx, DWORD PTR _k$[ebp]
	neg	ecx
	movss	xmm0, DWORD PTR [eax+ecx*4-4]
	xorps	xmm0, DWORD PTR __xmm@80000000800000008000000080000000
	movss	DWORD PTR tv143[ebp], xmm0
	jmp	SHORT $LN13@MakeSkyVec
$LN12@MakeSkyVec:
	lea	ecx, DWORD PTR _b$[ebp]
	call	??BVector@@QAEPAMXZ			; Vector::operator float *
	mov	edx, DWORD PTR _k$[ebp]
	movss	xmm0, DWORD PTR [eax+edx*4-4]
	movss	DWORD PTR tv143[ebp], xmm0
$LN13@MakeSkyVec:
	lea	ecx, DWORD PTR _v$[ebp]
	call	??BVector@@QAEPAMXZ			; Vector::operator float *
	mov	ecx, DWORD PTR _j$[ebp]
	movss	xmm0, DWORD PTR tv143[ebp]
	movss	DWORD PTR [eax+ecx*4], xmm0

; 216  : 		v[j] += RI->vieworg[j];

	lea	ecx, DWORD PTR _v$[ebp]
	call	??BVector@@QAEPAMXZ			; Vector::operator float *
	mov	ecx, DWORD PTR _j$[ebp]
	lea	edx, DWORD PTR [eax+ecx*4]
	mov	DWORD PTR tv153[ebp], edx
	mov	ecx, DWORD PTR ?RI@@3PAUref_instance_t@@A ; RI
	add	ecx, 204				; 000000ccH
	call	??BVector@@QAEPAMXZ			; Vector::operator float *
	mov	ecx, DWORD PTR tv153[ebp]
	mov	edx, DWORD PTR _j$[ebp]
	movss	xmm0, DWORD PTR [ecx]
	addss	xmm0, DWORD PTR [eax+edx*4]
	mov	eax, DWORD PTR tv153[ebp]
	movss	DWORD PTR [eax], xmm0

; 217  : 	}

	jmp	$LN2@MakeSkyVec
$LN3@MakeSkyVec:

; 218  : 
; 219  : 	// avoid bilerp seam
; 220  : 	s = (s + 1) * 0.5f;

	movss	xmm0, DWORD PTR _s$[ebp]
	addss	xmm0, DWORD PTR __real@3f800000
	mulss	xmm0, DWORD PTR __real@3f000000
	movss	DWORD PTR _s$[ebp], xmm0

; 221  : 	t = (t + 1) * 0.5f;

	movss	xmm0, DWORD PTR _t$[ebp]
	addss	xmm0, DWORD PTR __real@3f800000
	mulss	xmm0, DWORD PTR __real@3f000000
	movss	DWORD PTR _t$[ebp], xmm0

; 222  : 
; 223  : 	if( s < 1.0f / 512.0f )

	movss	xmm0, DWORD PTR __real@3b000000
	comiss	xmm0, DWORD PTR _s$[ebp]
	jbe	SHORT $LN5@MakeSkyVec

; 224  : 		s = 1.0f / 512.0f;

	movss	xmm0, DWORD PTR __real@3b000000
	movss	DWORD PTR _s$[ebp], xmm0
	jmp	SHORT $LN7@MakeSkyVec
$LN5@MakeSkyVec:

; 225  : 	else if( s > 511.0f / 512.0f )

	movss	xmm0, DWORD PTR _s$[ebp]
	comiss	xmm0, DWORD PTR __real@3f7f8000
	jbe	SHORT $LN7@MakeSkyVec

; 226  : 		s = 511.0f / 512.0f;

	movss	xmm0, DWORD PTR __real@3f7f8000
	movss	DWORD PTR _s$[ebp], xmm0
$LN7@MakeSkyVec:

; 227  : 	if( t < 1.0f / 512.0f )

	movss	xmm0, DWORD PTR __real@3b000000
	comiss	xmm0, DWORD PTR _t$[ebp]
	jbe	SHORT $LN8@MakeSkyVec

; 228  : 		t = 1.0f / 512.0f;

	movss	xmm0, DWORD PTR __real@3b000000
	movss	DWORD PTR _t$[ebp], xmm0
	jmp	SHORT $LN10@MakeSkyVec
$LN8@MakeSkyVec:

; 229  : 	else if( t > 511.0f / 512.0f )

	movss	xmm0, DWORD PTR _t$[ebp]
	comiss	xmm0, DWORD PTR __real@3f7f8000
	jbe	SHORT $LN10@MakeSkyVec

; 230  : 		t = 511.0f / 512.0f;

	movss	xmm0, DWORD PTR __real@3f7f8000
	movss	DWORD PTR _t$[ebp], xmm0
$LN10@MakeSkyVec:

; 231  : 
; 232  : 	t = 1.0f - t;

	movss	xmm0, DWORD PTR __real@3f800000
	subss	xmm0, DWORD PTR _t$[ebp]
	movss	DWORD PTR _t$[ebp], xmm0

; 233  : 
; 234  : 	pglTexCoord2f( s, t );

	push	ecx
	movss	xmm0, DWORD PTR _t$[ebp]
	movss	DWORD PTR [esp], xmm0
	push	ecx
	movss	xmm0, DWORD PTR _s$[ebp]
	movss	DWORD PTR [esp], xmm0
	call	DWORD PTR ?pglTexCoord2f@@3P6GXMM@ZA	; pglTexCoord2f

; 235  : 	pglVertex3fv( v );

	lea	ecx, DWORD PTR _v$[ebp]
	call	??BVector@@QAEPAMXZ			; Vector::operator float *
	push	eax
	call	DWORD PTR ?pglVertex3fv@@3P6GXPBM@ZA	; pglVertex3fv

; 236  : }

	pop	edi
	pop	esi
	pop	ebx
	mov	esp, ebp
	pop	ebp
	ret	0
?MakeSkyVec@@YAXMMH@Z ENDP				; MakeSkyVec
_TEXT	ENDS
; Function compile flags: /Odtp /ZI
; File d:\!diffusion 2020\source code 2022\client-server\client\render\r_warp.cpp
;	COMDAT ?ClipSkyPolygon@@YAXHQAVVector@@H@Z
_TEXT	SEGMENT
tv148 = -2444						; size = 4
_j$1 = -2120						; size = 4
_norm$ = -2116						; size = 4
_i$ = -2112						; size = 4
_e$ = -2108						; size = 4
_d$ = -2104						; size = 4
_newc$ = -2100						; size = 8
_newv$ = -2092						; size = 1560
_sides$ = -532						; size = 260
_dists$ = -272						; size = 260
_back$ = -12						; size = 4
_front$ = -8						; size = 4
__$ArrayPad$ = -4					; size = 4
_nump$ = 8						; size = 4
_vecs$ = 12						; size = 4
_stage$ = 16						; size = 4
?ClipSkyPolygon@@YAXHQAVVector@@H@Z PROC		; ClipSkyPolygon, COMDAT

; 106  : {

	push	ebp
	mov	ebp, esp
	sub	esp, 2444				; 0000098cH
	mov	eax, DWORD PTR ___security_cookie
	xor	eax, ebp
	mov	DWORD PTR __$ArrayPad$[ebp], eax
	push	ebx
	push	esi
	push	edi

; 107  : 	qboolean		front, back;
; 108  : 	float		dists[MAX_CLIP_VERTS + 1];
; 109  : 	int		sides[MAX_CLIP_VERTS + 1];
; 110  : 	Vector		newv[2][MAX_CLIP_VERTS + 1];

	push	OFFSET ??0Vector@@QAE@XZ		; Vector::Vector
	push	130					; 00000082H
	push	12					; 0000000cH
	lea	eax, DWORD PTR _newv$[ebp]
	push	eax
	call	??_H@YGXPAXIIP6EPAX0@Z@Z

; 111  : 	int		newc[2];
; 112  : 	float		d, e;
; 113  : 	int		i;
; 114  : 
; 115  : 	if( nump > MAX_CLIP_VERTS )

	cmp	DWORD PTR _nump$[ebp], 64		; 00000040H
	jle	SHORT $loc1$27

; 116  : 		HOST_ERROR( "ClipSkyPolygon: MAX_CLIP_VERTS\n" );

	push	OFFSET ??_C@_0CA@BKNCOCCA@ClipSkyPolygon?3?5MAX_CLIP_VERTS?6?$AA@
	call	DWORD PTR ?gRenderfuncs@@3Urender_api_s@@A+236
	add	esp, 4
$loc1$27:

; 117  : loc1:
; 118  : 	if( stage == 6 )

	cmp	DWORD PTR _stage$[ebp], 6
	jne	SHORT $LN14@ClipSkyPol

; 119  : 	{	
; 120  : 		// fully clipped, so draw it
; 121  : 		DrawSkyPolygon( nump, vecs );

	mov	eax, DWORD PTR _vecs$[ebp]
	push	eax
	mov	ecx, DWORD PTR _nump$[ebp]
	push	ecx
	call	?DrawSkyPolygon@@YAXHQAVVector@@@Z	; DrawSkyPolygon
	add	esp, 8

; 122  : 		return;

	jmp	$LN1@ClipSkyPol
$LN14@ClipSkyPol:

; 123  : 	}
; 124  : 
; 125  : 	front = back = false;

	mov	DWORD PTR _back$[ebp], 0
	mov	eax, DWORD PTR _back$[ebp]
	mov	DWORD PTR _front$[ebp], eax

; 126  : 	const Vector &norm = skyclip[stage];

	imul	eax, DWORD PTR _stage$[ebp], 12
	add	eax, OFFSET ?skyclip@@3QBVVector@@B
	mov	DWORD PTR _norm$[ebp], eax

; 127  : 
; 128  : 	for( i = 0; i < nump; i++ )

	mov	DWORD PTR _i$[ebp], 0
	jmp	SHORT $LN4@ClipSkyPol
$LN2@ClipSkyPol:
	mov	eax, DWORD PTR _i$[ebp]
	add	eax, 1
	mov	DWORD PTR _i$[ebp], eax
$LN4@ClipSkyPol:
	mov	eax, DWORD PTR _i$[ebp]
	cmp	eax, DWORD PTR _nump$[ebp]
	jge	$LN3@ClipSkyPol

; 129  : 	{
; 130  : 		d = DotProduct( vecs[i], norm );

	mov	eax, DWORD PTR _norm$[ebp]
	push	eax
	imul	ecx, DWORD PTR _i$[ebp], 12
	add	ecx, DWORD PTR _vecs$[ebp]
	push	ecx
	call	?DotProduct@@YAMABVVector@@0@Z		; DotProduct
	add	esp, 8
	fstp	DWORD PTR _d$[ebp]

; 131  : 		if( d > ON_EPSILON )

	movss	xmm0, DWORD PTR _d$[ebp]
	comiss	xmm0, DWORD PTR __real@3dcccccd
	jbe	SHORT $LN15@ClipSkyPol

; 132  : 		{
; 133  : 			front = true;

	mov	DWORD PTR _front$[ebp], 1

; 134  : 			sides[i] = SIDE_FRONT;

	mov	eax, DWORD PTR _i$[ebp]
	mov	DWORD PTR _sides$[ebp+eax*4], 0
	jmp	SHORT $LN18@ClipSkyPol
$LN15@ClipSkyPol:

; 135  : 		}
; 136  : 		else if( d < -ON_EPSILON )

	movss	xmm0, DWORD PTR __real@bdcccccd
	comiss	xmm0, DWORD PTR _d$[ebp]
	jbe	SHORT $LN17@ClipSkyPol

; 137  : 		{
; 138  : 			back = true;

	mov	DWORD PTR _back$[ebp], 1

; 139  : 			sides[i] = SIDE_BACK;

	mov	eax, DWORD PTR _i$[ebp]
	mov	DWORD PTR _sides$[ebp+eax*4], 1

; 140  : 		}
; 141  : 		else

	jmp	SHORT $LN18@ClipSkyPol
$LN17@ClipSkyPol:

; 142  : 		{
; 143  : 			sides[i] = SIDE_ON;

	mov	eax, DWORD PTR _i$[ebp]
	mov	DWORD PTR _sides$[ebp+eax*4], 2
$LN18@ClipSkyPol:

; 144  : 		}
; 145  : 		dists[i] = d;

	mov	eax, DWORD PTR _i$[ebp]
	movss	xmm0, DWORD PTR _d$[ebp]
	movss	DWORD PTR _dists$[ebp+eax*4], xmm0

; 146  : 	}

	jmp	$LN2@ClipSkyPol
$LN3@ClipSkyPol:

; 147  : 
; 148  : 	if( !front || !back )

	cmp	DWORD PTR _front$[ebp], 0
	je	SHORT $LN20@ClipSkyPol
	cmp	DWORD PTR _back$[ebp], 0
	jne	SHORT $LN19@ClipSkyPol
$LN20@ClipSkyPol:

; 149  : 	{	
; 150  : 		// not clipped
; 151  : 		stage++;

	mov	eax, DWORD PTR _stage$[ebp]
	add	eax, 1
	mov	DWORD PTR _stage$[ebp], eax

; 152  : 		goto loc1;

	jmp	$loc1$27
$LN19@ClipSkyPol:

; 153  : 	}
; 154  : 
; 155  : 	// clip it
; 156  : 	sides[i] = sides[0];

	mov	eax, 4
	imul	ecx, eax, 0
	mov	edx, DWORD PTR _i$[ebp]
	mov	eax, DWORD PTR _sides$[ebp+ecx]
	mov	DWORD PTR _sides$[ebp+edx*4], eax

; 157  : 	dists[i] = dists[0];

	mov	eax, 4
	imul	ecx, eax, 0
	mov	edx, DWORD PTR _i$[ebp]
	mov	eax, DWORD PTR _dists$[ebp+ecx]
	mov	DWORD PTR _dists$[ebp+edx*4], eax

; 158  : 	vecs[i] = vecs[0];

	mov	eax, 12					; 0000000cH
	imul	ecx, eax, 0
	add	ecx, DWORD PTR _vecs$[ebp]
	imul	edx, DWORD PTR _i$[ebp], 12
	add	edx, DWORD PTR _vecs$[ebp]
	mov	eax, DWORD PTR [ecx]
	mov	DWORD PTR [edx], eax
	mov	eax, DWORD PTR [ecx+4]
	mov	DWORD PTR [edx+4], eax
	mov	ecx, DWORD PTR [ecx+8]
	mov	DWORD PTR [edx+8], ecx

; 159  : 	newc[0] = newc[1] = 0;

	mov	eax, 4
	shl	eax, 0
	mov	DWORD PTR _newc$[ebp+eax], 0
	mov	ecx, 4
	imul	edx, ecx, 0
	mov	DWORD PTR _newc$[ebp+edx], 0

; 160  : 
; 161  : 	for( i = 0; i < nump; i++ )

	mov	DWORD PTR _i$[ebp], 0
	jmp	SHORT $LN7@ClipSkyPol
$LN5@ClipSkyPol:
	mov	eax, DWORD PTR _i$[ebp]
	add	eax, 1
	mov	DWORD PTR _i$[ebp], eax
$LN7@ClipSkyPol:
	mov	eax, DWORD PTR _i$[ebp]
	cmp	eax, DWORD PTR _nump$[ebp]
	jge	$LN6@ClipSkyPol

; 162  : 	{
; 163  : 		switch( sides[i] )

	mov	eax, DWORD PTR _i$[ebp]
	mov	ecx, DWORD PTR _sides$[ebp+eax*4]
	mov	DWORD PTR tv148[ebp], ecx
	cmp	DWORD PTR tv148[ebp], 0
	je	SHORT $LN21@ClipSkyPol
	cmp	DWORD PTR tv148[ebp], 1
	je	SHORT $LN22@ClipSkyPol
	cmp	DWORD PTR tv148[ebp], 2
	je	$LN23@ClipSkyPol
	jmp	$LN8@ClipSkyPol
$LN21@ClipSkyPol:

; 164  : 		{
; 165  : 		case SIDE_FRONT:
; 166  : 			newv[0][newc[0]] = vecs[i];

	imul	eax, DWORD PTR _i$[ebp], 12
	add	eax, DWORD PTR _vecs$[ebp]
	mov	ecx, 780				; 0000030cH
	imul	edx, ecx, 0
	lea	ecx, DWORD PTR _newv$[ebp+edx]
	mov	edx, 4
	imul	edx, edx, 0
	imul	edx, DWORD PTR _newc$[ebp+edx], 12
	add	ecx, edx
	mov	edx, DWORD PTR [eax]
	mov	DWORD PTR [ecx], edx
	mov	edx, DWORD PTR [eax+4]
	mov	DWORD PTR [ecx+4], edx
	mov	eax, DWORD PTR [eax+8]
	mov	DWORD PTR [ecx+8], eax

; 167  : 			newc[0]++;

	mov	eax, 4
	imul	ecx, eax, 0
	mov	edx, DWORD PTR _newc$[ebp+ecx]
	add	edx, 1
	mov	eax, 4
	imul	ecx, eax, 0
	mov	DWORD PTR _newc$[ebp+ecx], edx

; 168  : 			break;

	jmp	$LN8@ClipSkyPol
$LN22@ClipSkyPol:

; 169  : 		case SIDE_BACK:
; 170  : 			newv[1][newc[1]] = vecs[i];

	imul	eax, DWORD PTR _i$[ebp], 12
	add	eax, DWORD PTR _vecs$[ebp]
	mov	ecx, 780				; 0000030cH
	shl	ecx, 0
	lea	edx, DWORD PTR _newv$[ebp+ecx]
	mov	ecx, 4
	shl	ecx, 0
	imul	ecx, DWORD PTR _newc$[ebp+ecx], 12
	add	edx, ecx
	mov	ecx, DWORD PTR [eax]
	mov	DWORD PTR [edx], ecx
	mov	ecx, DWORD PTR [eax+4]
	mov	DWORD PTR [edx+4], ecx
	mov	eax, DWORD PTR [eax+8]
	mov	DWORD PTR [edx+8], eax

; 171  : 			newc[1]++;

	mov	eax, 4
	shl	eax, 0
	mov	ecx, DWORD PTR _newc$[ebp+eax]
	add	ecx, 1
	mov	edx, 4
	shl	edx, 0
	mov	DWORD PTR _newc$[ebp+edx], ecx

; 172  : 			break;

	jmp	$LN8@ClipSkyPol
$LN23@ClipSkyPol:

; 173  : 		case SIDE_ON:
; 174  : 			newv[0][newc[0]] = vecs[i];

	imul	eax, DWORD PTR _i$[ebp], 12
	add	eax, DWORD PTR _vecs$[ebp]
	mov	ecx, 780				; 0000030cH
	imul	edx, ecx, 0
	lea	ecx, DWORD PTR _newv$[ebp+edx]
	mov	edx, 4
	imul	edx, edx, 0
	imul	edx, DWORD PTR _newc$[ebp+edx], 12
	add	ecx, edx
	mov	edx, DWORD PTR [eax]
	mov	DWORD PTR [ecx], edx
	mov	edx, DWORD PTR [eax+4]
	mov	DWORD PTR [ecx+4], edx
	mov	eax, DWORD PTR [eax+8]
	mov	DWORD PTR [ecx+8], eax

; 175  : 			newc[0]++;

	mov	eax, 4
	imul	ecx, eax, 0
	mov	edx, DWORD PTR _newc$[ebp+ecx]
	add	edx, 1
	mov	eax, 4
	imul	ecx, eax, 0
	mov	DWORD PTR _newc$[ebp+ecx], edx

; 176  : 			newv[1][newc[1]] = vecs[i];

	imul	eax, DWORD PTR _i$[ebp], 12
	add	eax, DWORD PTR _vecs$[ebp]
	mov	ecx, 780				; 0000030cH
	shl	ecx, 0
	lea	edx, DWORD PTR _newv$[ebp+ecx]
	mov	ecx, 4
	shl	ecx, 0
	imul	ecx, DWORD PTR _newc$[ebp+ecx], 12
	add	edx, ecx
	mov	ecx, DWORD PTR [eax]
	mov	DWORD PTR [edx], ecx
	mov	ecx, DWORD PTR [eax+4]
	mov	DWORD PTR [edx+4], ecx
	mov	eax, DWORD PTR [eax+8]
	mov	DWORD PTR [edx+8], eax

; 177  : 			newc[1]++;

	mov	eax, 4
	shl	eax, 0
	mov	ecx, DWORD PTR _newc$[ebp+eax]
	add	ecx, 1
	mov	edx, 4
	shl	edx, 0
	mov	DWORD PTR _newc$[ebp+edx], ecx
$LN8@ClipSkyPol:

; 178  : 			break;
; 179  : 		}
; 180  : 
; 181  : 		if( sides[i] == SIDE_ON || sides[i+1] == SIDE_ON || sides[i+1] == sides[i] )

	mov	eax, DWORD PTR _i$[ebp]
	cmp	DWORD PTR _sides$[ebp+eax*4], 2
	je	SHORT $LN25@ClipSkyPol
	mov	eax, DWORD PTR _i$[ebp]
	cmp	DWORD PTR _sides$[ebp+eax*4+4], 2
	je	SHORT $LN25@ClipSkyPol
	mov	eax, DWORD PTR _i$[ebp]
	mov	ecx, DWORD PTR _i$[ebp]
	mov	edx, DWORD PTR _sides$[ebp+eax*4+4]
	cmp	edx, DWORD PTR _sides$[ebp+ecx*4]
	jne	SHORT $LN24@ClipSkyPol
$LN25@ClipSkyPol:

; 182  : 			continue;

	jmp	$LN5@ClipSkyPol
$LN24@ClipSkyPol:

; 183  : 
; 184  : 		d = dists[i] / ( dists[i] - dists[i+1] );

	mov	eax, DWORD PTR _i$[ebp]
	mov	ecx, DWORD PTR _i$[ebp]
	movss	xmm0, DWORD PTR _dists$[ebp+eax*4]
	subss	xmm0, DWORD PTR _dists$[ebp+ecx*4+4]
	mov	edx, DWORD PTR _i$[ebp]
	movss	xmm1, DWORD PTR _dists$[ebp+edx*4]
	divss	xmm1, xmm0
	movss	DWORD PTR _d$[ebp], xmm1

; 185  : 
; 186  : 		for( int j = 0; j < 3; j++ )

	mov	DWORD PTR _j$1[ebp], 0
	jmp	SHORT $LN12@ClipSkyPol
$LN10@ClipSkyPol:
	mov	eax, DWORD PTR _j$1[ebp]
	add	eax, 1
	mov	DWORD PTR _j$1[ebp], eax
$LN12@ClipSkyPol:
	cmp	DWORD PTR _j$1[ebp], 3
	jge	$LN11@ClipSkyPol

; 187  : 		{
; 188  : 			e = (vecs[i])[j] + d * ( (vecs[i+1])[j] - (vecs[i])[j] );

	imul	ecx, DWORD PTR _i$[ebp], 12
	add	ecx, DWORD PTR _vecs$[ebp]
	call	??BVector@@QAEPAMXZ			; Vector::operator float *
	mov	esi, eax
	mov	eax, DWORD PTR _i$[ebp]
	add	eax, 1
	imul	ecx, eax, 12
	add	ecx, DWORD PTR _vecs$[ebp]
	call	??BVector@@QAEPAMXZ			; Vector::operator float *
	mov	edi, eax
	imul	ecx, DWORD PTR _i$[ebp], 12
	add	ecx, DWORD PTR _vecs$[ebp]
	call	??BVector@@QAEPAMXZ			; Vector::operator float *
	mov	ecx, DWORD PTR _j$1[ebp]
	mov	edx, DWORD PTR _j$1[ebp]
	movss	xmm0, DWORD PTR [edi+ecx*4]
	subss	xmm0, DWORD PTR [eax+edx*4]
	mulss	xmm0, DWORD PTR _d$[ebp]
	mov	eax, DWORD PTR _j$1[ebp]
	addss	xmm0, DWORD PTR [esi+eax*4]
	movss	DWORD PTR _e$[ebp], xmm0

; 189  : 			newv[0][newc[0]][j] = e;

	mov	eax, 780				; 0000030cH
	imul	ecx, eax, 0
	lea	ecx, DWORD PTR _newv$[ebp+ecx]
	mov	edx, 4
	imul	eax, edx, 0
	imul	edx, DWORD PTR _newc$[ebp+eax], 12
	add	ecx, edx
	call	??BVector@@QAEPAMXZ			; Vector::operator float *
	mov	ecx, DWORD PTR _j$1[ebp]
	movss	xmm0, DWORD PTR _e$[ebp]
	movss	DWORD PTR [eax+ecx*4], xmm0

; 190  : 			newv[1][newc[1]][j] = e;

	mov	eax, 780				; 0000030cH
	shl	eax, 0
	lea	ecx, DWORD PTR _newv$[ebp+eax]
	mov	edx, 4
	shl	edx, 0
	imul	eax, DWORD PTR _newc$[ebp+edx], 12
	add	ecx, eax
	call	??BVector@@QAEPAMXZ			; Vector::operator float *
	mov	ecx, DWORD PTR _j$1[ebp]
	movss	xmm0, DWORD PTR _e$[ebp]
	movss	DWORD PTR [eax+ecx*4], xmm0

; 191  : 		}

	jmp	$LN10@ClipSkyPol
$LN11@ClipSkyPol:

; 192  : 		newc[0]++;

	mov	eax, 4
	imul	ecx, eax, 0
	mov	edx, DWORD PTR _newc$[ebp+ecx]
	add	edx, 1
	mov	eax, 4
	imul	ecx, eax, 0
	mov	DWORD PTR _newc$[ebp+ecx], edx

; 193  : 		newc[1]++;

	mov	eax, 4
	shl	eax, 0
	mov	ecx, DWORD PTR _newc$[ebp+eax]
	add	ecx, 1
	mov	edx, 4
	shl	edx, 0
	mov	DWORD PTR _newc$[ebp+edx], ecx

; 194  : 	}

	jmp	$LN5@ClipSkyPol
$LN6@ClipSkyPol:

; 195  : 
; 196  : 	// continue
; 197  : 	ClipSkyPolygon( newc[0], newv[0], stage + 1 );

	mov	eax, DWORD PTR _stage$[ebp]
	add	eax, 1
	push	eax
	mov	ecx, 780				; 0000030cH
	imul	edx, ecx, 0
	lea	eax, DWORD PTR _newv$[ebp+edx]
	push	eax
	mov	ecx, 4
	imul	edx, ecx, 0
	mov	eax, DWORD PTR _newc$[ebp+edx]
	push	eax
	call	?ClipSkyPolygon@@YAXHQAVVector@@H@Z	; ClipSkyPolygon
	add	esp, 12					; 0000000cH

; 198  : 	ClipSkyPolygon( newc[1], newv[1], stage + 1 );

	mov	eax, DWORD PTR _stage$[ebp]
	add	eax, 1
	push	eax
	mov	ecx, 780				; 0000030cH
	shl	ecx, 0
	lea	edx, DWORD PTR _newv$[ebp+ecx]
	push	edx
	mov	eax, 4
	shl	eax, 0
	mov	ecx, DWORD PTR _newc$[ebp+eax]
	push	ecx
	call	?ClipSkyPolygon@@YAXHQAVVector@@H@Z	; ClipSkyPolygon
	add	esp, 12					; 0000000cH
$LN1@ClipSkyPol:

; 199  : }

	pop	edi
	pop	esi
	pop	ebx
	mov	ecx, DWORD PTR __$ArrayPad$[ebp]
	xor	ecx, ebp
	call	@__security_check_cookie@4
	mov	esp, ebp
	pop	ebp
	ret	0
?ClipSkyPolygon@@YAXHQAVVector@@H@Z ENDP		; ClipSkyPolygon
_TEXT	ENDS
; Function compile flags: /Odtp /ZI
; File d:\!diffusion 2020\source code 2022\client-server\client\render\r_warp.cpp
;	COMDAT ?DrawSkyPolygon@@YAXHQAVVector@@@Z
_TEXT	SEGMENT
tv442 = -120						; size = 4
tv440 = -120						; size = 4
tv438 = -120						; size = 4
tv342 = -116						; size = 4
tv334 = -116						; size = 4
tv326 = -116						; size = 4
tv265 = -116						; size = 4
tv241 = -116						; size = 4
tv217 = -116						; size = 4
tv193 = -116						; size = 4
tv187 = -116						; size = 4
tv163 = -116						; size = 4
_av$ = -48						; size = 12
_v$ = -36						; size = 12
_dv$ = -24						; size = 4
_t$ = -20						; size = 4
_s$ = -16						; size = 4
_axis$ = -12						; size = 4
_j$ = -8						; size = 4
_i$ = -4						; size = 4
_nump$ = 8						; size = 4
_vecs$ = 12						; size = 4
?DrawSkyPolygon@@YAXHQAVVector@@@Z PROC			; DrawSkyPolygon, COMDAT

; 58   : {

	push	ebp
	mov	ebp, esp
	sub	esp, 120				; 00000078H
	push	ebx
	push	esi
	push	edi

; 59   : 	int	i, j, axis;
; 60   : 	float	s, t, dv;
; 61   : 	Vector	v, av;

	lea	ecx, DWORD PTR _v$[ebp]
	call	??0Vector@@QAE@XZ			; Vector::Vector
	lea	ecx, DWORD PTR _av$[ebp]
	call	??0Vector@@QAE@XZ			; Vector::Vector

; 62   : 
; 63   : 	// decide which face it maps to
; 64   : 	v = g_vecZero;

	mov	eax, DWORD PTR ?g_vecZero@@3VVector@@B
	mov	DWORD PTR _v$[ebp], eax
	mov	ecx, DWORD PTR ?g_vecZero@@3VVector@@B+4
	mov	DWORD PTR _v$[ebp+4], ecx
	mov	edx, DWORD PTR ?g_vecZero@@3VVector@@B+8
	mov	DWORD PTR _v$[ebp+8], edx

; 65   : 
; 66   : 	for( i = 0; i < nump; i++ )

	mov	DWORD PTR _i$[ebp], 0
	jmp	SHORT $LN4@DrawSkyPol
$LN2@DrawSkyPol:
	mov	eax, DWORD PTR _i$[ebp]
	add	eax, 1
	mov	DWORD PTR _i$[ebp], eax
$LN4@DrawSkyPol:
	mov	eax, DWORD PTR _i$[ebp]
	cmp	eax, DWORD PTR _nump$[ebp]
	jge	SHORT $LN3@DrawSkyPol

; 67   : 	{
; 68   : 		v += vecs[i];

	imul	eax, DWORD PTR _i$[ebp], 12
	add	eax, DWORD PTR _vecs$[ebp]
	push	eax
	lea	ecx, DWORD PTR _v$[ebp]
	call	??YVector@@QAEAAV0@ABV0@@Z		; Vector::operator+=

; 69   : 	}

	jmp	SHORT $LN2@DrawSkyPol
$LN3@DrawSkyPol:

; 70   : 
; 71   : 	av[0] = fabs( v[0] );

	lea	ecx, DWORD PTR _v$[ebp]
	call	??BVector@@QAEPAMXZ			; Vector::operator float *
	mov	ecx, 4
	imul	edx, ecx, 0
	cvtss2sd xmm0, DWORD PTR [eax+edx]
	sub	esp, 8
	movsd	QWORD PTR [esp], xmm0
	call	_fabs
	add	esp, 8
	fstp	DWORD PTR tv326[ebp]
	fld	DWORD PTR tv326[ebp]
	lea	ecx, DWORD PTR _av$[ebp]
	fstp	DWORD PTR tv438[ebp]
	call	??BVector@@QAEPAMXZ			; Vector::operator float *
	mov	ecx, 4
	imul	edx, ecx, 0
	fld	DWORD PTR tv438[ebp]
	fstp	DWORD PTR [eax+edx]

; 72   : 	av[1] = fabs( v[1] );

	lea	ecx, DWORD PTR _v$[ebp]
	call	??BVector@@QAEPAMXZ			; Vector::operator float *
	mov	ecx, 4
	shl	ecx, 0
	cvtss2sd xmm0, DWORD PTR [eax+ecx]
	sub	esp, 8
	movsd	QWORD PTR [esp], xmm0
	call	_fabs
	add	esp, 8
	fstp	DWORD PTR tv334[ebp]
	fld	DWORD PTR tv334[ebp]
	lea	ecx, DWORD PTR _av$[ebp]
	fstp	DWORD PTR tv440[ebp]
	call	??BVector@@QAEPAMXZ			; Vector::operator float *
	mov	edx, 4
	shl	edx, 0
	fld	DWORD PTR tv440[ebp]
	fstp	DWORD PTR [eax+edx]

; 73   : 	av[2] = fabs( v[2] );

	lea	ecx, DWORD PTR _v$[ebp]
	call	??BVector@@QAEPAMXZ			; Vector::operator float *
	mov	ecx, 4
	shl	ecx, 1
	cvtss2sd xmm0, DWORD PTR [eax+ecx]
	sub	esp, 8
	movsd	QWORD PTR [esp], xmm0
	call	_fabs
	add	esp, 8
	fstp	DWORD PTR tv342[ebp]
	fld	DWORD PTR tv342[ebp]
	lea	ecx, DWORD PTR _av$[ebp]
	fstp	DWORD PTR tv442[ebp]
	call	??BVector@@QAEPAMXZ			; Vector::operator float *
	mov	edx, 4
	shl	edx, 1
	fld	DWORD PTR tv442[ebp]
	fstp	DWORD PTR [eax+edx]

; 74   : 
; 75   : 	if( av[0] > av[1] && av[0] > av[2] )

	lea	ecx, DWORD PTR _av$[ebp]
	call	??BVector@@QAEPAMXZ			; Vector::operator float *
	mov	esi, eax
	mov	eax, 4
	imul	edi, eax, 0
	lea	ecx, DWORD PTR _av$[ebp]
	call	??BVector@@QAEPAMXZ			; Vector::operator float *
	mov	ecx, 4
	shl	ecx, 0
	movss	xmm0, DWORD PTR [esi+edi]
	comiss	xmm0, DWORD PTR [eax+ecx]
	jbe	SHORT $LN8@DrawSkyPol
	lea	ecx, DWORD PTR _av$[ebp]
	call	??BVector@@QAEPAMXZ			; Vector::operator float *
	mov	esi, eax
	mov	eax, 4
	imul	edi, eax, 0
	lea	ecx, DWORD PTR _av$[ebp]
	call	??BVector@@QAEPAMXZ			; Vector::operator float *
	mov	ecx, 4
	shl	ecx, 1
	movss	xmm0, DWORD PTR [esi+edi]
	comiss	xmm0, DWORD PTR [eax+ecx]
	jbe	SHORT $LN8@DrawSkyPol

; 76   : 		axis = (v[0] < 0) ? 1 : 0;

	lea	ecx, DWORD PTR _v$[ebp]
	call	??BVector@@QAEPAMXZ			; Vector::operator float *
	mov	ecx, 4
	imul	edx, ecx, 0
	xorps	xmm0, xmm0
	comiss	xmm0, DWORD PTR [eax+edx]
	jbe	SHORT $LN17@DrawSkyPol
	mov	DWORD PTR tv163[ebp], 1
	jmp	SHORT $LN18@DrawSkyPol
$LN17@DrawSkyPol:
	mov	DWORD PTR tv163[ebp], 0
$LN18@DrawSkyPol:
	mov	eax, DWORD PTR tv163[ebp]
	mov	DWORD PTR _axis$[ebp], eax
	jmp	$LN11@DrawSkyPol
$LN8@DrawSkyPol:

; 77   : 	else if( av[1] > av[2] && av[1] > av[0] )

	lea	ecx, DWORD PTR _av$[ebp]
	call	??BVector@@QAEPAMXZ			; Vector::operator float *
	mov	esi, eax
	mov	edi, 4
	shl	edi, 0
	lea	ecx, DWORD PTR _av$[ebp]
	call	??BVector@@QAEPAMXZ			; Vector::operator float *
	mov	ecx, 4
	shl	ecx, 1
	movss	xmm0, DWORD PTR [esi+edi]
	comiss	xmm0, DWORD PTR [eax+ecx]
	jbe	SHORT $LN10@DrawSkyPol
	lea	ecx, DWORD PTR _av$[ebp]
	call	??BVector@@QAEPAMXZ			; Vector::operator float *
	mov	esi, eax
	mov	edi, 4
	shl	edi, 0
	lea	ecx, DWORD PTR _av$[ebp]
	call	??BVector@@QAEPAMXZ			; Vector::operator float *
	mov	ecx, 4
	imul	edx, ecx, 0
	movss	xmm0, DWORD PTR [esi+edi]
	comiss	xmm0, DWORD PTR [eax+edx]
	jbe	SHORT $LN10@DrawSkyPol

; 78   : 		axis = (v[1] < 0) ? 3 : 2;

	lea	ecx, DWORD PTR _v$[ebp]
	call	??BVector@@QAEPAMXZ			; Vector::operator float *
	mov	ecx, 4
	shl	ecx, 0
	xorps	xmm0, xmm0
	comiss	xmm0, DWORD PTR [eax+ecx]
	jbe	SHORT $LN19@DrawSkyPol
	mov	DWORD PTR tv187[ebp], 3
	jmp	SHORT $LN20@DrawSkyPol
$LN19@DrawSkyPol:
	mov	DWORD PTR tv187[ebp], 2
$LN20@DrawSkyPol:
	mov	edx, DWORD PTR tv187[ebp]
	mov	DWORD PTR _axis$[ebp], edx
	jmp	SHORT $LN11@DrawSkyPol
$LN10@DrawSkyPol:

; 79   : 	else axis = (v[2] < 0) ? 5 : 4;

	lea	ecx, DWORD PTR _v$[ebp]
	call	??BVector@@QAEPAMXZ			; Vector::operator float *
	mov	ecx, 4
	shl	ecx, 1
	xorps	xmm0, xmm0
	comiss	xmm0, DWORD PTR [eax+ecx]
	jbe	SHORT $LN21@DrawSkyPol
	mov	DWORD PTR tv193[ebp], 5
	jmp	SHORT $LN22@DrawSkyPol
$LN21@DrawSkyPol:
	mov	DWORD PTR tv193[ebp], 4
$LN22@DrawSkyPol:
	mov	edx, DWORD PTR tv193[ebp]
	mov	DWORD PTR _axis$[ebp], edx
$LN11@DrawSkyPol:

; 80   : 
; 81   : 	// project new texture coords
; 82   : 	for( i = 0; i < nump; i++ )

	mov	DWORD PTR _i$[ebp], 0
	jmp	SHORT $LN7@DrawSkyPol
$LN5@DrawSkyPol:
	mov	eax, DWORD PTR _i$[ebp]
	add	eax, 1
	mov	DWORD PTR _i$[ebp], eax
$LN7@DrawSkyPol:
	mov	eax, DWORD PTR _i$[ebp]
	cmp	eax, DWORD PTR _nump$[ebp]
	jge	$LN6@DrawSkyPol

; 83   : 	{
; 84   : 		j = vec_to_st[axis][2];

	imul	eax, DWORD PTR _axis$[ebp], 12
	mov	ecx, 4
	shl	ecx, 1
	mov	edx, DWORD PTR ?vec_to_st@@3QAY02$$CBHA[eax+ecx]
	mov	DWORD PTR _j$[ebp], edx

; 85   : 		dv = (j > 0) ? (vecs[i])[j-1] : -(vecs[i])[-j-1];

	cmp	DWORD PTR _j$[ebp], 0
	jle	SHORT $LN23@DrawSkyPol
	imul	ecx, DWORD PTR _i$[ebp], 12
	add	ecx, DWORD PTR _vecs$[ebp]
	call	??BVector@@QAEPAMXZ			; Vector::operator float *
	mov	ecx, DWORD PTR _j$[ebp]
	movss	xmm0, DWORD PTR [eax+ecx*4-4]
	movss	DWORD PTR tv217[ebp], xmm0
	jmp	SHORT $LN24@DrawSkyPol
$LN23@DrawSkyPol:
	imul	ecx, DWORD PTR _i$[ebp], 12
	add	ecx, DWORD PTR _vecs$[ebp]
	call	??BVector@@QAEPAMXZ			; Vector::operator float *
	mov	edx, DWORD PTR _j$[ebp]
	neg	edx
	movss	xmm0, DWORD PTR [eax+edx*4-4]
	xorps	xmm0, DWORD PTR __xmm@80000000800000008000000080000000
	movss	DWORD PTR tv217[ebp], xmm0
$LN24@DrawSkyPol:
	movss	xmm0, DWORD PTR tv217[ebp]
	movss	DWORD PTR _dv$[ebp], xmm0

; 86   : 
; 87   : 		j = vec_to_st[axis][0];

	imul	eax, DWORD PTR _axis$[ebp], 12
	mov	ecx, 4
	imul	edx, ecx, 0
	mov	eax, DWORD PTR ?vec_to_st@@3QAY02$$CBHA[eax+edx]
	mov	DWORD PTR _j$[ebp], eax

; 88   : 		s = (j < 0) ? -vecs[i][-j-1] / dv : (vecs[i])[j-1] / dv;

	cmp	DWORD PTR _j$[ebp], 0
	jge	SHORT $LN25@DrawSkyPol
	imul	ecx, DWORD PTR _i$[ebp], 12
	add	ecx, DWORD PTR _vecs$[ebp]
	call	??BVector@@QAEPAMXZ			; Vector::operator float *
	mov	ecx, DWORD PTR _j$[ebp]
	neg	ecx
	movss	xmm0, DWORD PTR [eax+ecx*4-4]
	xorps	xmm0, DWORD PTR __xmm@80000000800000008000000080000000
	divss	xmm0, DWORD PTR _dv$[ebp]
	movss	DWORD PTR tv241[ebp], xmm0
	jmp	SHORT $LN26@DrawSkyPol
$LN25@DrawSkyPol:
	imul	ecx, DWORD PTR _i$[ebp], 12
	add	ecx, DWORD PTR _vecs$[ebp]
	call	??BVector@@QAEPAMXZ			; Vector::operator float *
	mov	edx, DWORD PTR _j$[ebp]
	movss	xmm0, DWORD PTR [eax+edx*4-4]
	divss	xmm0, DWORD PTR _dv$[ebp]
	movss	DWORD PTR tv241[ebp], xmm0
$LN26@DrawSkyPol:
	movss	xmm0, DWORD PTR tv241[ebp]
	movss	DWORD PTR _s$[ebp], xmm0

; 89   : 
; 90   : 		j = vec_to_st[axis][1];

	imul	eax, DWORD PTR _axis$[ebp], 12
	mov	ecx, 4
	shl	ecx, 0
	mov	edx, DWORD PTR ?vec_to_st@@3QAY02$$CBHA[eax+ecx]
	mov	DWORD PTR _j$[ebp], edx

; 91   : 		t = (j < 0) ? -(vecs[i])[-j-1] / dv : (vecs[i])[j-1] / dv;

	cmp	DWORD PTR _j$[ebp], 0
	jge	SHORT $LN27@DrawSkyPol
	imul	ecx, DWORD PTR _i$[ebp], 12
	add	ecx, DWORD PTR _vecs$[ebp]
	call	??BVector@@QAEPAMXZ			; Vector::operator float *
	mov	ecx, DWORD PTR _j$[ebp]
	neg	ecx
	movss	xmm0, DWORD PTR [eax+ecx*4-4]
	xorps	xmm0, DWORD PTR __xmm@80000000800000008000000080000000
	divss	xmm0, DWORD PTR _dv$[ebp]
	movss	DWORD PTR tv265[ebp], xmm0
	jmp	SHORT $LN28@DrawSkyPol
$LN27@DrawSkyPol:
	imul	ecx, DWORD PTR _i$[ebp], 12
	add	ecx, DWORD PTR _vecs$[ebp]
	call	??BVector@@QAEPAMXZ			; Vector::operator float *
	mov	edx, DWORD PTR _j$[ebp]
	movss	xmm0, DWORD PTR [eax+edx*4-4]
	divss	xmm0, DWORD PTR _dv$[ebp]
	movss	DWORD PTR tv265[ebp], xmm0
$LN28@DrawSkyPol:
	movss	xmm0, DWORD PTR tv265[ebp]
	movss	DWORD PTR _t$[ebp], xmm0

; 92   : 
; 93   : 		if( s < RI->skyMins[0][axis] ) RI->skyMins[0][axis] = s;

	mov	eax, 24					; 00000018H
	imul	ecx, eax, 0
	mov	edx, DWORD PTR ?RI@@3PAUref_instance_t@@A ; RI
	lea	eax, DWORD PTR [edx+ecx+268]
	mov	ecx, DWORD PTR _axis$[ebp]
	movss	xmm0, DWORD PTR [eax+ecx*4]
	comiss	xmm0, DWORD PTR _s$[ebp]
	jbe	SHORT $LN12@DrawSkyPol
	mov	eax, 24					; 00000018H
	imul	ecx, eax, 0
	mov	edx, DWORD PTR ?RI@@3PAUref_instance_t@@A ; RI
	lea	eax, DWORD PTR [edx+ecx+268]
	mov	ecx, DWORD PTR _axis$[ebp]
	movss	xmm0, DWORD PTR _s$[ebp]
	movss	DWORD PTR [eax+ecx*4], xmm0
$LN12@DrawSkyPol:

; 94   : 		if( t < RI->skyMins[1][axis] ) RI->skyMins[1][axis] = t;

	mov	eax, 24					; 00000018H
	shl	eax, 0
	mov	ecx, DWORD PTR ?RI@@3PAUref_instance_t@@A ; RI
	lea	edx, DWORD PTR [ecx+eax+268]
	mov	eax, DWORD PTR _axis$[ebp]
	movss	xmm0, DWORD PTR [edx+eax*4]
	comiss	xmm0, DWORD PTR _t$[ebp]
	jbe	SHORT $LN13@DrawSkyPol
	mov	eax, 24					; 00000018H
	shl	eax, 0
	mov	ecx, DWORD PTR ?RI@@3PAUref_instance_t@@A ; RI
	lea	edx, DWORD PTR [ecx+eax+268]
	mov	eax, DWORD PTR _axis$[ebp]
	movss	xmm0, DWORD PTR _t$[ebp]
	movss	DWORD PTR [edx+eax*4], xmm0
$LN13@DrawSkyPol:

; 95   : 		if( s > RI->skyMaxs[0][axis] ) RI->skyMaxs[0][axis] = s;

	mov	eax, 24					; 00000018H
	imul	ecx, eax, 0
	mov	edx, DWORD PTR ?RI@@3PAUref_instance_t@@A ; RI
	lea	eax, DWORD PTR [edx+ecx+316]
	mov	ecx, DWORD PTR _axis$[ebp]
	movss	xmm0, DWORD PTR _s$[ebp]
	comiss	xmm0, DWORD PTR [eax+ecx*4]
	jbe	SHORT $LN14@DrawSkyPol
	mov	eax, 24					; 00000018H
	imul	ecx, eax, 0
	mov	edx, DWORD PTR ?RI@@3PAUref_instance_t@@A ; RI
	lea	eax, DWORD PTR [edx+ecx+316]
	mov	ecx, DWORD PTR _axis$[ebp]
	movss	xmm0, DWORD PTR _s$[ebp]
	movss	DWORD PTR [eax+ecx*4], xmm0
$LN14@DrawSkyPol:

; 96   : 		if( t > RI->skyMaxs[1][axis] ) RI->skyMaxs[1][axis] = t;

	mov	eax, 24					; 00000018H
	shl	eax, 0
	mov	ecx, DWORD PTR ?RI@@3PAUref_instance_t@@A ; RI
	lea	edx, DWORD PTR [ecx+eax+316]
	mov	eax, DWORD PTR _axis$[ebp]
	movss	xmm0, DWORD PTR _t$[ebp]
	comiss	xmm0, DWORD PTR [edx+eax*4]
	jbe	SHORT $LN15@DrawSkyPol
	mov	eax, 24					; 00000018H
	shl	eax, 0
	mov	ecx, DWORD PTR ?RI@@3PAUref_instance_t@@A ; RI
	lea	edx, DWORD PTR [ecx+eax+316]
	mov	eax, DWORD PTR _axis$[ebp]
	movss	xmm0, DWORD PTR _t$[ebp]
	movss	DWORD PTR [edx+eax*4], xmm0
$LN15@DrawSkyPol:

; 97   : 	}

	jmp	$LN5@DrawSkyPol
$LN6@DrawSkyPol:

; 98   : }

	pop	edi
	pop	esi
	pop	ebx
	mov	esp, ebp
	pop	ebp
	ret	0
?DrawSkyPolygon@@YAXHQAVVector@@@Z ENDP			; DrawSkyPolygon
_TEXT	ENDS
; Function compile flags: /Odtp /ZI
; File d:\!diffusion 2020\source code 2022\client-server\client\render\r_warp.cpp
;	COMDAT ??__Eskyclip@@YAXXZ
text$di	SEGMENT
??__Eskyclip@@YAXXZ PROC				; `dynamic initializer for 'skyclip'', COMDAT

; 33   : };

	push	ebp
	mov	ebp, esp
	sub	esp, 64					; 00000040H
	push	ebx
	push	esi
	push	edi

; 27   : Vector(  1,  1,  0 ),

	push	ecx
	xorps	xmm0, xmm0
	movss	DWORD PTR [esp], xmm0
	push	ecx
	movss	xmm0, DWORD PTR __real@3f800000
	movss	DWORD PTR [esp], xmm0
	push	ecx
	movss	xmm0, DWORD PTR __real@3f800000
	movss	DWORD PTR [esp], xmm0
	mov	ecx, OFFSET ?skyclip@@3QBVVector@@B
	call	??0Vector@@QAE@MMM@Z			; Vector::Vector

; 28   : Vector(  1, -1,  0 ),

	push	ecx
	xorps	xmm0, xmm0
	movss	DWORD PTR [esp], xmm0
	push	ecx
	movss	xmm0, DWORD PTR __real@bf800000
	movss	DWORD PTR [esp], xmm0
	push	ecx
	movss	xmm0, DWORD PTR __real@3f800000
	movss	DWORD PTR [esp], xmm0
	mov	ecx, OFFSET ?skyclip@@3QBVVector@@B+12
	call	??0Vector@@QAE@MMM@Z			; Vector::Vector

; 29   : Vector(  0, -1,  1 ),

	push	ecx
	movss	xmm0, DWORD PTR __real@3f800000
	movss	DWORD PTR [esp], xmm0
	push	ecx
	movss	xmm0, DWORD PTR __real@bf800000
	movss	DWORD PTR [esp], xmm0
	push	ecx
	xorps	xmm0, xmm0
	movss	DWORD PTR [esp], xmm0
	mov	ecx, OFFSET ?skyclip@@3QBVVector@@B+24
	call	??0Vector@@QAE@MMM@Z			; Vector::Vector

; 30   : Vector(  0,  1,  1 ),

	push	ecx
	movss	xmm0, DWORD PTR __real@3f800000
	movss	DWORD PTR [esp], xmm0
	push	ecx
	movss	xmm0, DWORD PTR __real@3f800000
	movss	DWORD PTR [esp], xmm0
	push	ecx
	xorps	xmm0, xmm0
	movss	DWORD PTR [esp], xmm0
	mov	ecx, OFFSET ?skyclip@@3QBVVector@@B+36
	call	??0Vector@@QAE@MMM@Z			; Vector::Vector

; 31   : Vector(  1,  0,  1 ),

	push	ecx
	movss	xmm0, DWORD PTR __real@3f800000
	movss	DWORD PTR [esp], xmm0
	push	ecx
	xorps	xmm0, xmm0
	movss	DWORD PTR [esp], xmm0
	push	ecx
	movss	xmm0, DWORD PTR __real@3f800000
	movss	DWORD PTR [esp], xmm0
	mov	ecx, OFFSET ?skyclip@@3QBVVector@@B+48
	call	??0Vector@@QAE@MMM@Z			; Vector::Vector

; 32   : Vector( -1,  0,  1 ) 

	push	ecx
	movss	xmm0, DWORD PTR __real@3f800000
	movss	DWORD PTR [esp], xmm0
	push	ecx
	xorps	xmm0, xmm0
	movss	DWORD PTR [esp], xmm0
	push	ecx
	movss	xmm0, DWORD PTR __real@bf800000
	movss	DWORD PTR [esp], xmm0
	mov	ecx, OFFSET ?skyclip@@3QBVVector@@B+60
	call	??0Vector@@QAE@MMM@Z			; Vector::Vector
	pop	edi
	pop	esi
	pop	ebx
	mov	esp, ebp
	pop	ebp
	ret	0
??__Eskyclip@@YAXXZ ENDP				; `dynamic initializer for 'skyclip''
text$di	ENDS
; Function compile flags: /Odtp /ZI
; File d:\!diffusion 2020\source code 2022\client-server\client\render\r_warp.cpp
;	COMDAT ?R_AddSkyBoxSurface@@YAXPAUmsurface_s@@@Z
_TEXT	SEGMENT
tv210 = -912						; size = 4
tv208 = -912						; size = 4
tv206 = -912						; size = 4
_i$1 = -780						; size = 4
_p$2 = -776						; size = 4
_verts$ = -772						; size = 768
__$ArrayPad$ = -4					; size = 4
_fa$ = 8						; size = 4
?R_AddSkyBoxSurface@@YAXPAUmsurface_s@@@Z PROC		; R_AddSkyBoxSurface, COMDAT

; 260  : {

	push	ebp
	mov	ebp, esp
	sub	esp, 912				; 00000390H
	mov	eax, DWORD PTR ___security_cookie
	xor	eax, ebp
	mov	DWORD PTR __$ArrayPad$[ebp], eax
	push	ebx
	push	esi
	push	edi

; 261  : 	Vector verts[MAX_CLIP_VERTS];

	push	OFFSET ??0Vector@@QAE@XZ		; Vector::Vector
	push	64					; 00000040H
	push	12					; 0000000cH
	lea	eax, DWORD PTR _verts$[ebp]
	push	eax
	call	??_H@YGXPAXIIP6EPAX0@Z@Z

; 262  : 
; 263  : 	// calculate vertex values for sky box
; 264  : 	for( glpoly_t *p = fa->polys; p; p = p->next )

	mov	eax, DWORD PTR _fa$[ebp]
	mov	ecx, DWORD PTR [eax+36]
	mov	DWORD PTR _p$2[ebp], ecx
	jmp	SHORT $LN4@R_AddSkyBo
$LN2@R_AddSkyBo:
	mov	eax, DWORD PTR _p$2[ebp]
	mov	ecx, DWORD PTR [eax]
	mov	DWORD PTR _p$2[ebp], ecx
$LN4@R_AddSkyBo:
	cmp	DWORD PTR _p$2[ebp], 0
	je	$LN3@R_AddSkyBo

; 265  : 	{
; 266  : 		if( p->numverts >= MAX_CLIP_VERTS )

	mov	eax, DWORD PTR _p$2[ebp]
	cmp	DWORD PTR [eax+8], 64			; 00000040H
	jl	SHORT $LN8@R_AddSkyBo

; 267  : 			HOST_ERROR( "R_AddSkyBoxSurface: numverts >= MAX_CLIP_VERTS\n" );

	push	OFFSET ??_C@_0DA@NALGDGEN@R_AddSkyBoxSurface?3?5numverts?5?$DO?$DN?5@
	call	DWORD PTR ?gRenderfuncs@@3Urender_api_s@@A+236
	add	esp, 4
$LN8@R_AddSkyBo:

; 268  : 
; 269  : 		for( int i = 0; i < p->numverts; i++ )

	mov	DWORD PTR _i$1[ebp], 0
	jmp	SHORT $LN7@R_AddSkyBo
$LN5@R_AddSkyBo:
	mov	eax, DWORD PTR _i$1[ebp]
	add	eax, 1
	mov	DWORD PTR _i$1[ebp], eax
$LN7@R_AddSkyBo:
	mov	eax, DWORD PTR _p$2[ebp]
	mov	ecx, DWORD PTR _i$1[ebp]
	cmp	ecx, DWORD PTR [eax+8]
	jge	$LN6@R_AddSkyBo

; 270  : 		{
; 271  : 			verts[i][0] = p->verts[i][0] - RI->vieworg[0];

	imul	eax, DWORD PTR _i$1[ebp], 28
	mov	ecx, DWORD PTR _p$2[ebp]
	lea	esi, DWORD PTR [ecx+eax+16]
	mov	edx, 4
	imul	edi, edx, 0
	mov	ecx, DWORD PTR ?RI@@3PAUref_instance_t@@A ; RI
	add	ecx, 204				; 000000ccH
	call	??BVector@@QAEPAMXZ			; Vector::operator float *
	mov	ecx, 4
	imul	edx, ecx, 0
	movss	xmm0, DWORD PTR [esi+edi]
	subss	xmm0, DWORD PTR [eax+edx]
	imul	eax, DWORD PTR _i$1[ebp], 12
	lea	ecx, DWORD PTR _verts$[ebp+eax]
	movss	DWORD PTR tv206[ebp], xmm0
	call	??BVector@@QAEPAMXZ			; Vector::operator float *
	mov	ecx, 4
	imul	edx, ecx, 0
	movss	xmm0, DWORD PTR tv206[ebp]
	movss	DWORD PTR [eax+edx], xmm0

; 272  : 			verts[i][1] = p->verts[i][1] - RI->vieworg[1];

	imul	eax, DWORD PTR _i$1[ebp], 28
	mov	ecx, DWORD PTR _p$2[ebp]
	lea	esi, DWORD PTR [ecx+eax+16]
	mov	edi, 4
	shl	edi, 0
	mov	ecx, DWORD PTR ?RI@@3PAUref_instance_t@@A ; RI
	add	ecx, 204				; 000000ccH
	call	??BVector@@QAEPAMXZ			; Vector::operator float *
	mov	edx, 4
	shl	edx, 0
	movss	xmm0, DWORD PTR [esi+edi]
	subss	xmm0, DWORD PTR [eax+edx]
	imul	eax, DWORD PTR _i$1[ebp], 12
	lea	ecx, DWORD PTR _verts$[ebp+eax]
	movss	DWORD PTR tv208[ebp], xmm0
	call	??BVector@@QAEPAMXZ			; Vector::operator float *
	mov	ecx, 4
	shl	ecx, 0
	movss	xmm0, DWORD PTR tv208[ebp]
	movss	DWORD PTR [eax+ecx], xmm0

; 273  : 			verts[i][2] = p->verts[i][2] - RI->vieworg[2];

	imul	eax, DWORD PTR _i$1[ebp], 28
	mov	ecx, DWORD PTR _p$2[ebp]
	lea	esi, DWORD PTR [ecx+eax+16]
	mov	edi, 4
	shl	edi, 1
	mov	ecx, DWORD PTR ?RI@@3PAUref_instance_t@@A ; RI
	add	ecx, 204				; 000000ccH
	call	??BVector@@QAEPAMXZ			; Vector::operator float *
	mov	edx, 4
	shl	edx, 1
	movss	xmm0, DWORD PTR [esi+edi]
	subss	xmm0, DWORD PTR [eax+edx]
	imul	eax, DWORD PTR _i$1[ebp], 12
	lea	ecx, DWORD PTR _verts$[ebp+eax]
	movss	DWORD PTR tv210[ebp], xmm0
	call	??BVector@@QAEPAMXZ			; Vector::operator float *
	mov	ecx, 4
	shl	ecx, 1
	movss	xmm0, DWORD PTR tv210[ebp]
	movss	DWORD PTR [eax+ecx], xmm0

; 274  : 		}

	jmp	$LN5@R_AddSkyBo
$LN6@R_AddSkyBo:

; 275  : 
; 276  : 		ClipSkyPolygon( p->numverts, verts, 0 );

	push	0
	lea	eax, DWORD PTR _verts$[ebp]
	push	eax
	mov	ecx, DWORD PTR _p$2[ebp]
	mov	edx, DWORD PTR [ecx+8]
	push	edx
	call	?ClipSkyPolygon@@YAXHQAVVector@@H@Z	; ClipSkyPolygon
	add	esp, 12					; 0000000cH

; 277  : 	}

	jmp	$LN2@R_AddSkyBo
$LN3@R_AddSkyBo:

; 278  : 
; 279  : 	SetBits( RI->params, RP_SKYVISIBLE ); // now sky is visible

	mov	eax, DWORD PTR ?RI@@3PAUref_instance_t@@A ; RI
	mov	ecx, DWORD PTR [eax]
	or	ecx, 2048				; 00000800H
	mov	edx, DWORD PTR ?RI@@3PAUref_instance_t@@A ; RI
	mov	DWORD PTR [edx], ecx

; 280  : }

	pop	edi
	pop	esi
	pop	ebx
	mov	ecx, DWORD PTR __$ArrayPad$[ebp]
	xor	ecx, ebp
	call	@__security_check_cookie@4
	mov	esp, ebp
	pop	ebp
	ret	0
?R_AddSkyBoxSurface@@YAXPAUmsurface_s@@@Z ENDP		; R_AddSkyBoxSurface
_TEXT	ENDS
; Function compile flags: /Odtp /ZI
; File d:\!diffusion 2020\source code 2022\client-server\client\render\r_warp.cpp
;	COMDAT ?R_DrawSkyPortal@@YAXPAUcl_entity_s@@@Z
_TEXT	SEGMENT
tv160 = -69						; size = 1
_scale$1 = -4						; size = 4
_skyPortal$ = 8						; size = 4
?R_DrawSkyPortal@@YAXPAUcl_entity_s@@@Z PROC		; R_DrawSkyPortal, COMDAT

; 288  : {

	push	ebp
	mov	ebp, esp
	sub	esp, 72					; 00000048H
	push	ebx
	push	esi
	push	edi

; 289  : 	R_PushRefState();

	call	?R_PushRefState@@YAXXZ			; R_PushRefState

; 290  : 
; 291  : 	RI->params = ( RI->params|RP_SKYPORTALVIEW ) & ~(RP_OLDVIEWLEAF|RP_CLIPPLANE);

	mov	eax, DWORD PTR ?RI@@3PAUref_instance_t@@A ; RI
	mov	ecx, DWORD PTR [eax]
	or	ecx, 32					; 00000020H
	and	ecx, -13				; fffffff3H
	mov	edx, DWORD PTR ?RI@@3PAUref_instance_t@@A ; RI
	mov	DWORD PTR [edx], ecx

; 292  : 	RI->pvsorigin = skyPortal->curstate.origin;

	mov	eax, DWORD PTR _skyPortal$[ebp]
	add	eax, 704				; 000002c0H
	mov	ecx, DWORD PTR ?RI@@3PAUref_instance_t@@A ; RI
	add	ecx, 180				; 000000b4H
	mov	edx, DWORD PTR [eax]
	mov	DWORD PTR [ecx], edx
	mov	edx, DWORD PTR [eax+4]
	mov	DWORD PTR [ecx+4], edx
	mov	eax, DWORD PTR [eax+8]
	mov	DWORD PTR [ecx+8], eax

; 293  : 	RI->frustum.DisablePlane( FRUSTUM_FAR );

	push	4
	mov	ecx, DWORD PTR ?RI@@3PAUref_instance_t@@A ; RI
	add	ecx, 48					; 00000030H
	call	?DisablePlane@CFrustum@@QAEXH@Z		; CFrustum::DisablePlane

; 294  : 	RI->frustum.DisablePlane( FRUSTUM_NEAR );

	push	5
	mov	ecx, DWORD PTR ?RI@@3PAUref_instance_t@@A ; RI
	add	ecx, 48					; 00000030H
	call	?DisablePlane@CFrustum@@QAEXH@Z		; CFrustum::DisablePlane

; 295  : 
; 296  : 	if( skyPortal->curstate.scale )

	mov	eax, DWORD PTR _skyPortal$[ebp]
	movss	xmm0, DWORD PTR [eax+752]
	ucomiss	xmm0, DWORD PTR __real@00000000
	lahf
	test	ah, 68					; 00000044H
	jnp	SHORT $LN2@R_DrawSkyP

; 297  : 	{
; 298  : 		float scale = 1.0f / skyPortal->curstate.scale;

	mov	eax, DWORD PTR _skyPortal$[ebp]
	movss	xmm0, DWORD PTR __real@3f800000
	divss	xmm0, DWORD PTR [eax+752]
	movss	DWORD PTR _scale$1[ebp], xmm0

; 299  : 		RI->vieworg *= scale;

	push	ecx
	movss	xmm0, DWORD PTR _scale$1[ebp]
	movss	DWORD PTR [esp], xmm0
	mov	ecx, DWORD PTR ?RI@@3PAUref_instance_t@@A ; RI
	add	ecx, 204				; 000000ccH
	call	??XVector@@QAEAAV0@M@Z			; Vector::operator*=

; 300  : 		RI->vieworg += skyPortal->curstate.origin;

	mov	eax, DWORD PTR _skyPortal$[ebp]
	add	eax, 704				; 000002c0H
	push	eax
	mov	ecx, DWORD PTR ?RI@@3PAUref_instance_t@@A ; RI
	add	ecx, 204				; 000000ccH
	call	??YVector@@QAEAAV0@ABV0@@Z		; Vector::operator+=

; 301  : 	}
; 302  : 	else

	jmp	SHORT $LN3@R_DrawSkyP
$LN2@R_DrawSkyP:

; 303  : 		RI->vieworg = skyPortal->curstate.origin;

	mov	eax, DWORD PTR _skyPortal$[ebp]
	add	eax, 704				; 000002c0H
	mov	ecx, DWORD PTR ?RI@@3PAUref_instance_t@@A ; RI
	add	ecx, 204				; 000000ccH
	mov	edx, DWORD PTR [eax]
	mov	DWORD PTR [ecx], edx
	mov	edx, DWORD PTR [eax+4]
	mov	DWORD PTR [ecx+4], edx
	mov	eax, DWORD PTR [eax+8]
	mov	DWORD PTR [ecx+8], eax
$LN3@R_DrawSkyP:

; 304  : 
; 305  : 	// angle offset
; 306  : 	RI->viewangles += skyPortal->curstate.angles;

	mov	eax, DWORD PTR _skyPortal$[ebp]
	add	eax, 716				; 000002ccH
	push	eax
	mov	ecx, DWORD PTR ?RI@@3PAUref_instance_t@@A ; RI
	add	ecx, 192				; 000000c0H
	call	??YVector@@QAEAAV0@ABV0@@Z		; Vector::operator+=

; 307  : 
; 308  : 	if( skyPortal->curstate.fuser2 )

	mov	eax, DWORD PTR _skyPortal$[ebp]
	movss	xmm0, DWORD PTR [eax+968]
	ucomiss	xmm0, DWORD PTR __real@00000000
	lahf
	test	ah, 68					; 00000044H
	jnp	$LN5@R_DrawSkyP

; 309  : 	{
; 310  : 		RI->fov_x = skyPortal->curstate.fuser2;

	mov	eax, DWORD PTR ?RI@@3PAUref_instance_t@@A ; RI
	mov	ecx, DWORD PTR _skyPortal$[ebp]
	mov	edx, DWORD PTR [ecx+968]
	mov	DWORD PTR [eax+8], edx

; 311  : 		RI->fov_y = V_CalcFov( RI->fov_x, RI->viewport[2], RI->viewport[3] );

	mov	eax, 4
	imul	ecx, eax, 3
	mov	edx, DWORD PTR ?RI@@3PAUref_instance_t@@A ; RI
	cvtsi2ss xmm0, DWORD PTR [edx+ecx+32]
	push	ecx
	movss	DWORD PTR [esp], xmm0
	mov	eax, 4
	shl	eax, 1
	mov	ecx, DWORD PTR ?RI@@3PAUref_instance_t@@A ; RI
	cvtsi2ss xmm0, DWORD PTR [ecx+eax+32]
	push	ecx
	movss	DWORD PTR [esp], xmm0
	mov	edx, DWORD PTR ?RI@@3PAUref_instance_t@@A ; RI
	add	edx, 8
	push	edx
	call	?V_CalcFov@@YAMAAMMM@Z			; V_CalcFov
	add	esp, 12					; 0000000cH
	mov	eax, DWORD PTR ?RI@@3PAUref_instance_t@@A ; RI
	fstp	DWORD PTR [eax+12]

; 312  : 
; 313  : 		if( RENDER_GET_PARM( PARM_WIDESCREEN, 0 ) && CVAR_TO_BOOL( r_adjust_fov ))

	push	0
	push	21					; 00000015H
	call	DWORD PTR ?gRenderfuncs@@3Urender_api_s@@A
	add	esp, 8
	test	eax, eax
	je	$LN5@R_DrawSkyP
	cmp	DWORD PTR ?r_adjust_fov@@3PAUcvar_s@@A, 0 ; r_adjust_fov
	je	SHORT $LN7@R_DrawSkyP
	mov	eax, DWORD PTR ?r_adjust_fov@@3PAUcvar_s@@A ; r_adjust_fov
	movss	xmm0, DWORD PTR [eax+12]
	ucomiss	xmm0, DWORD PTR __real@00000000
	lahf
	test	ah, 68					; 00000044H
	jnp	SHORT $LN7@R_DrawSkyP
	mov	BYTE PTR tv160[ebp], 1
	jmp	SHORT $LN8@R_DrawSkyP
$LN7@R_DrawSkyP:
	mov	BYTE PTR tv160[ebp], 0
$LN8@R_DrawSkyP:
	movzx	ecx, BYTE PTR tv160[ebp]
	test	ecx, ecx
	je	SHORT $LN5@R_DrawSkyP

; 314  : 			V_AdjustFov( RI->fov_x, RI->fov_y, RI->viewport[2], RI->viewport[3], false );

	push	0
	mov	eax, 4
	imul	ecx, eax, 3
	mov	edx, DWORD PTR ?RI@@3PAUref_instance_t@@A ; RI
	cvtsi2ss xmm0, DWORD PTR [edx+ecx+32]
	push	ecx
	movss	DWORD PTR [esp], xmm0
	mov	eax, 4
	shl	eax, 1
	mov	ecx, DWORD PTR ?RI@@3PAUref_instance_t@@A ; RI
	cvtsi2ss xmm0, DWORD PTR [ecx+eax+32]
	push	ecx
	movss	DWORD PTR [esp], xmm0
	mov	edx, DWORD PTR ?RI@@3PAUref_instance_t@@A ; RI
	add	edx, 12					; 0000000cH
	push	edx
	mov	eax, DWORD PTR ?RI@@3PAUref_instance_t@@A ; RI
	add	eax, 8
	push	eax
	call	?V_AdjustFov@@YAXAAM0MM_N@Z		; V_AdjustFov
	add	esp, 20					; 00000014H
$LN5@R_DrawSkyP:

; 315  : 	}
; 316  : 
; 317  : 	r_stats.c_sky_passes++;

	mov	eax, DWORD PTR ?r_stats@@3Uref_stats_t@@A+56
	add	eax, 1
	mov	DWORD PTR ?r_stats@@3Uref_stats_t@@A+56, eax

; 318  : 
; 319  : 	R_RenderScene();

	call	?R_RenderScene@@YAXXZ			; R_RenderScene

; 320  : 	R_PopRefState();

	call	?R_PopRefState@@YAXXZ			; R_PopRefState

; 321  : }

	pop	edi
	pop	esi
	pop	ebx
	mov	esp, ebp
	pop	ebp
	ret	0
?R_DrawSkyPortal@@YAXPAUcl_entity_s@@@Z ENDP		; R_DrawSkyPortal
_TEXT	ENDS
; Function compile flags: /Odtp /ZI
; File d:\!diffusion 2020\source code 2022\client-server\client\render\r_warp.cpp
;	COMDAT ?R_CheckSkyPortal@@YAXPAUcl_entity_s@@@Z
_TEXT	SEGMENT
tv68 = -65						; size = 1
_skyPortal$ = 8						; size = 4
?R_CheckSkyPortal@@YAXPAUcl_entity_s@@@Z PROC		; R_CheckSkyPortal, COMDAT

; 383  : {

	push	ebp
	mov	ebp, esp
	sub	esp, 68					; 00000044H
	push	ebx
	push	esi
	push	edi

; 384  : 	tr.fIgnoreSkybox = false;

	mov	BYTE PTR ?tr@@3Uref_globals_t@@A+5830652, 0

; 385  : 
; 386  : 	if( tr.sky_camera == NULL )

	cmp	DWORD PTR ?tr@@3Uref_globals_t@@A+5830648, 0
	jne	SHORT $LN2@R_CheckSky

; 387  : 		return;

	jmp	$LN1@R_CheckSky
$LN2@R_CheckSky:

; 388  : 
; 389  : 	if( !CVAR_TO_BOOL( r_allow_3dsky ) )

	cmp	DWORD PTR ?r_allow_3dsky@@3PAUcvar_s@@A, 0 ; r_allow_3dsky
	je	SHORT $LN11@R_CheckSky
	mov	eax, DWORD PTR ?r_allow_3dsky@@3PAUcvar_s@@A ; r_allow_3dsky
	movss	xmm0, DWORD PTR [eax+12]
	ucomiss	xmm0, DWORD PTR __real@00000000
	lahf
	test	ah, 68					; 00000044H
	jnp	SHORT $LN11@R_CheckSky
	mov	BYTE PTR tv68[ebp], 1
	jmp	SHORT $LN12@R_CheckSky
$LN11@R_CheckSky:
	mov	BYTE PTR tv68[ebp], 0
$LN12@R_CheckSky:
	movzx	ecx, BYTE PTR tv68[ebp]
	test	ecx, ecx
	jne	SHORT $LN3@R_CheckSky

; 390  : 	{
; 391  : 		// diffusion - just so that sunshafts would work if we disable sky
; 392  : 		tr.sky_camera = NULL;

	mov	DWORD PTR ?tr@@3Uref_globals_t@@A+5830648, 0

; 393  : 		return;

	jmp	$LN1@R_CheckSky
$LN3@R_CheckSky:

; 394  : 	}
; 395  : 
; 396  : 	if( FBitSet( RI->params, RP_OVERVIEW ))

	mov	eax, DWORD PTR ?RI@@3PAUref_instance_t@@A ; RI
	mov	ecx, DWORD PTR [eax]
	and	ecx, 512				; 00000200H
	je	SHORT $LN4@R_CheckSky

; 397  : 		return;

	jmp	$LN1@R_CheckSky
$LN4@R_CheckSky:

; 398  : 
; 399  : 	// don't allow recursive 3dsky
; 400  : 	if( FBitSet( RI->params, RP_SKYPORTALVIEW ))

	mov	eax, DWORD PTR ?RI@@3PAUref_instance_t@@A ; RI
	mov	ecx, DWORD PTR [eax]
	and	ecx, 32					; 00000020H
	je	SHORT $LN5@R_CheckSky

; 401  : 		return;

	jmp	$LN1@R_CheckSky
$LN5@R_CheckSky:

; 402  : 		
; 403  : 	if( !FBitSet( RI->params, RP_OLDVIEWLEAF ))

	mov	eax, DWORD PTR ?RI@@3PAUref_instance_t@@A ; RI
	mov	ecx, DWORD PTR [eax]
	and	ecx, 4
	jne	SHORT $LN6@R_CheckSky

; 404  : 		R_FindViewLeaf();

	call	?R_FindViewLeaf@@YAXXZ			; R_FindViewLeaf
$LN6@R_CheckSky:

; 405  : 
; 406  : 	R_SetupFrustum();

	call	?R_SetupFrustum@@YAXXZ			; R_SetupFrustum

; 407  : 	R_MarkLeaves();

	call	?R_MarkLeaves@@YAXXZ			; R_MarkLeaves

; 408  : 
; 409  : 	if( FBitSet( RI->params, RP_MIRRORVIEW ))

	mov	eax, DWORD PTR ?RI@@3PAUref_instance_t@@A ; RI
	mov	ecx, DWORD PTR [eax]
	and	ecx, 1
	je	SHORT $LN7@R_CheckSky

; 410  : 		tr.modelorg = RI->pvsorigin;

	mov	eax, DWORD PTR ?RI@@3PAUref_instance_t@@A ; RI
	add	eax, 180				; 000000b4H
	mov	ecx, DWORD PTR [eax]
	mov	DWORD PTR ?tr@@3Uref_globals_t@@A+5852544, ecx
	mov	edx, DWORD PTR [eax+4]
	mov	DWORD PTR ?tr@@3Uref_globals_t@@A+5852548, edx
	mov	eax, DWORD PTR [eax+8]
	mov	DWORD PTR ?tr@@3Uref_globals_t@@A+5852552, eax
	jmp	SHORT $LN8@R_CheckSky
$LN7@R_CheckSky:

; 411  : 	else tr.modelorg = RI->vieworg;

	mov	eax, DWORD PTR ?RI@@3PAUref_instance_t@@A ; RI
	add	eax, 204				; 000000ccH
	mov	ecx, DWORD PTR [eax]
	mov	DWORD PTR ?tr@@3Uref_globals_t@@A+5852544, ecx
	mov	edx, DWORD PTR [eax+4]
	mov	DWORD PTR ?tr@@3Uref_globals_t@@A+5852548, edx
	mov	eax, DWORD PTR [eax+8]
	mov	DWORD PTR ?tr@@3Uref_globals_t@@A+5852552, eax
$LN8@R_CheckSky:

; 412  : 
; 413  : 	RI->currententity = GET_ENTITY( 0 );

	push	0
	call	DWORD PTR ?gEngfuncs@@3Ucl_enginefuncs_s@@A+212
	add	esp, 4
	mov	ecx, DWORD PTR ?RI@@3PAUref_instance_t@@A ; RI
	mov	DWORD PTR [ecx+16], eax

; 414  : 	RI->currentmodel = RI->currententity->model;

	mov	eax, DWORD PTR ?RI@@3PAUref_instance_t@@A ; RI
	mov	ecx, DWORD PTR [eax+16]
	mov	edx, DWORD PTR ?RI@@3PAUref_instance_t@@A ; RI
	mov	eax, DWORD PTR [ecx+2964]
	mov	DWORD PTR [edx+20], eax

; 415  : 	R_WorldFindSky();

	call	?R_WorldFindSky@@YAXXZ			; R_WorldFindSky

; 416  : 
; 417  : 	if( FBitSet( RI->params, RP_SKYVISIBLE ))

	mov	eax, DWORD PTR ?RI@@3PAUref_instance_t@@A ; RI
	mov	ecx, DWORD PTR [eax]
	and	ecx, 2048				; 00000800H
	je	SHORT $LN9@R_CheckSky

; 418  : 	{
; 419  : 		R_DrawSkyPortal( skyPortal );

	mov	eax, DWORD PTR _skyPortal$[ebp]
	push	eax
	call	?R_DrawSkyPortal@@YAXPAUcl_entity_s@@@Z	; R_DrawSkyPortal
	add	esp, 4

; 420  : 		tr.fIgnoreSkybox = true;

	mov	BYTE PTR ?tr@@3Uref_globals_t@@A+5830652, 1
$LN9@R_CheckSky:
$LN1@R_CheckSky:

; 421  : 	}
; 422  : }

	pop	edi
	pop	esi
	pop	ebx
	mov	esp, ebp
	pop	ebp
	ret	0
?R_CheckSkyPortal@@YAXPAUcl_entity_s@@@Z ENDP		; R_CheckSkyPortal
_TEXT	ENDS
; Function compile flags: /Odtp /ZI
; File d:\!diffusion 2020\source code 2022\client-server\client\render\r_warp.cpp
;	COMDAT ?R_ClearSkyBox@@YAXXZ
_TEXT	SEGMENT
_i$1 = -4						; size = 4
?R_ClearSkyBox@@YAXXZ PROC				; R_ClearSkyBox, COMDAT

; 244  : {

	push	ebp
	mov	ebp, esp
	sub	esp, 68					; 00000044H
	push	ebx
	push	esi
	push	edi

; 245  : 	for( int i = 0; i < 6; i++ )

	mov	DWORD PTR _i$1[ebp], 0
	jmp	SHORT $LN4@R_ClearSky
$LN2@R_ClearSky:
	mov	eax, DWORD PTR _i$1[ebp]
	add	eax, 1
	mov	DWORD PTR _i$1[ebp], eax
$LN4@R_ClearSky:
	cmp	DWORD PTR _i$1[ebp], 6
	jge	$LN3@R_ClearSky

; 246  : 	{
; 247  : 		RI->skyMins[0][i] = RI->skyMins[1][i] =  99999.0f;

	mov	eax, 24					; 00000018H
	shl	eax, 0
	mov	ecx, DWORD PTR ?RI@@3PAUref_instance_t@@A ; RI
	lea	edx, DWORD PTR [ecx+eax+268]
	mov	eax, DWORD PTR _i$1[ebp]
	movss	xmm0, DWORD PTR __real@47c34f80
	movss	DWORD PTR [edx+eax*4], xmm0
	mov	ecx, 24					; 00000018H
	imul	edx, ecx, 0
	mov	eax, DWORD PTR ?RI@@3PAUref_instance_t@@A ; RI
	lea	ecx, DWORD PTR [eax+edx+268]
	mov	edx, DWORD PTR _i$1[ebp]
	movss	xmm0, DWORD PTR __real@47c34f80
	movss	DWORD PTR [ecx+edx*4], xmm0

; 248  : 		RI->skyMaxs[0][i] = RI->skyMaxs[1][i] = -99999.0f;

	mov	eax, 24					; 00000018H
	shl	eax, 0
	mov	ecx, DWORD PTR ?RI@@3PAUref_instance_t@@A ; RI
	lea	edx, DWORD PTR [ecx+eax+316]
	mov	eax, DWORD PTR _i$1[ebp]
	movss	xmm0, DWORD PTR __real@c7c34f80
	movss	DWORD PTR [edx+eax*4], xmm0
	mov	ecx, 24					; 00000018H
	imul	edx, ecx, 0
	mov	eax, DWORD PTR ?RI@@3PAUref_instance_t@@A ; RI
	lea	ecx, DWORD PTR [eax+edx+316]
	mov	edx, DWORD PTR _i$1[ebp]
	movss	xmm0, DWORD PTR __real@c7c34f80
	movss	DWORD PTR [ecx+edx*4], xmm0

; 249  : 	}

	jmp	$LN2@R_ClearSky
$LN3@R_ClearSky:

; 250  : 
; 251  : 	ClearBits( RI->params, RP_SKYVISIBLE ); // now sky is invisible

	mov	eax, DWORD PTR ?RI@@3PAUref_instance_t@@A ; RI
	mov	ecx, DWORD PTR [eax]
	and	ecx, -2049				; fffff7ffH
	mov	edx, DWORD PTR ?RI@@3PAUref_instance_t@@A ; RI
	mov	DWORD PTR [edx], ecx

; 252  : }

	pop	edi
	pop	esi
	pop	ebx
	mov	esp, ebp
	pop	ebp
	ret	0
?R_ClearSkyBox@@YAXXZ ENDP				; R_ClearSkyBox
_TEXT	ENDS
; Function compile flags: /Odtp /ZI
; File d:\!diffusion 2020\source code 2022\client-server\client\render\r_warp.cpp
;	COMDAT ?R_DrawSkyBox@@YAXXZ
_TEXT	SEGMENT
tv129 = -112						; size = 4
$T1 = -108						; size = 12
_i$2 = -32						; size = 4
_sundisk$3 = -25					; size = 1
_sky_vec$4 = -24					; size = 12
_sky_color$5 = -12					; size = 12
?R_DrawSkyBox@@YAXXZ PROC				; R_DrawSkyBox, COMDAT

; 430  : {

	push	ebp
	mov	ebp, esp
	sub	esp, 112				; 00000070H
	push	ebx
	push	esi
	push	edi

; 431  : 	if( !FBitSet( RI->params, RP_SKYVISIBLE ) )

	mov	eax, DWORD PTR ?RI@@3PAUref_instance_t@@A ; RI
	mov	ecx, DWORD PTR [eax]
	and	ecx, 2048				; 00000800H
	jne	SHORT $LN5@R_DrawSkyB

; 432  : 		return;

	jmp	$LN1@R_DrawSkyB
$LN5@R_DrawSkyB:

; 433  : 
; 434  : 	if( FBitSet( RI->params, RP_SKYBOXRENDERED ) )

	mov	eax, DWORD PTR ?RI@@3PAUref_instance_t@@A ; RI
	mov	ecx, DWORD PTR [eax]
	and	ecx, 16384				; 00004000H
	je	SHORT $LN6@R_DrawSkyB

; 435  : 		return;

	jmp	$LN1@R_DrawSkyB
$LN6@R_DrawSkyB:

; 436  : 
; 437  : 	pglDisable( GL_BLEND );

	push	3042					; 00000be2H
	call	DWORD PTR ?pglDisable@@3P6GXI@ZA	; pglDisable

; 438  : 	pglDisable( GL_ALPHA_TEST );

	push	3008					; 00000bc0H
	call	DWORD PTR ?pglDisable@@3P6GXI@ZA	; pglDisable

; 439  : 	pglTexEnvi( GL_TEXTURE_ENV, GL_TEXTURE_ENV_MODE, GL_REPLACE );

	push	7681					; 00001e01H
	push	8704					; 00002200H
	push	8960					; 00002300H
	call	DWORD PTR ?pglTexEnvi@@3P6GXIIH@ZA	; pglTexEnvi

; 440  : 
; 441  : 	// make sure that light_environment is present
; 442  : 	// affect the skybox with fog and draw the sun disk
; 443  : 	if( tr.sky_normal != g_vecZero && CheckShader( glsl.skyboxEnv ) )

	push	OFFSET ?g_vecZero@@3VVector@@B		; g_vecZero
	mov	ecx, OFFSET ?tr@@3Uref_globals_t@@A+5836136
	call	??9Vector@@QBEHABV0@@Z			; Vector::operator!=
	test	eax, eax
	je	$LN7@R_DrawSkyB
	cmp	DWORD PTR ?glsl@@3Uref_shaders_t@@A+16, 0
	je	$LN7@R_DrawSkyB
	mov	eax, DWORD PTR ?glsl@@3Uref_shaders_t@@A+16
	movzx	ecx, WORD PTR [eax+580]
	cmp	ecx, 7
	jne	$LN7@R_DrawSkyB

; 444  : 	{
; 445  : 		Vector sky_color = tr.sky_ambient * (1.0f / 128.0f) * r_lighting_modulate->value;

	mov	eax, DWORD PTR ?r_lighting_modulate@@3PAUcvar_s@@A ; r_lighting_modulate
	push	ecx
	movss	xmm0, DWORD PTR [eax+12]
	movss	DWORD PTR [esp], xmm0
	lea	ecx, DWORD PTR _sky_color$5[ebp]
	push	ecx
	push	ecx
	movss	xmm0, DWORD PTR __real@3c000000
	movss	DWORD PTR [esp], xmm0
	lea	edx, DWORD PTR $T1[ebp]
	push	edx
	mov	ecx, OFFSET ?tr@@3Uref_globals_t@@A+5836148
	call	??DVector@@QBE?AV0@M@Z			; Vector::operator*
	mov	ecx, eax
	call	??DVector@@QBE?AV0@M@Z			; Vector::operator*

; 446  : 		Vector sky_vec = tr.sky_normal.Normalize();

	lea	eax, DWORD PTR _sky_vec$4[ebp]
	push	eax
	mov	ecx, OFFSET ?tr@@3Uref_globals_t@@A+5836136
	call	?Normalize@Vector@@QBE?AV1@XZ		; Vector::Normalize

; 447  : 		bool sundisk = false;

	mov	BYTE PTR _sundisk$3[ebp], 0

; 448  : 		if( tr.shader_modifier )

	cmp	DWORD PTR ?tr@@3Uref_globals_t@@A+5852560, 0
	je	SHORT $LN8@R_DrawSkyB

; 449  : 			sundisk = (tr.shader_modifier->curstate.iuser3 > 0);

	mov	eax, DWORD PTR ?tr@@3Uref_globals_t@@A+5852560
	cmp	DWORD PTR [eax+956], 0
	jle	SHORT $LN12@R_DrawSkyB
	mov	DWORD PTR tv129[ebp], 1
	jmp	SHORT $LN13@R_DrawSkyB
$LN12@R_DrawSkyB:
	mov	DWORD PTR tv129[ebp], 0
$LN13@R_DrawSkyB:
	mov	cl, BYTE PTR tv129[ebp]
	mov	BYTE PTR _sundisk$3[ebp], cl
$LN8@R_DrawSkyB:

; 450  : 
; 451  : 		GL_BindShader( glsl.skyboxEnv );

	mov	eax, DWORD PTR ?glsl@@3Uref_shaders_t@@A+16
	push	eax
	call	?GL_BindShader@@YAXPAUglsl_prog_s@@@Z	; GL_BindShader
	add	esp, 4

; 452  : 
; 453  : 		ColorNormalize( sky_color, sky_color );

	lea	eax, DWORD PTR _sky_color$5[ebp]
	push	eax
	lea	ecx, DWORD PTR _sky_color$5[ebp]
	push	ecx
	call	?ColorNormalize@@YAMABVVector@@AAV1@@Z	; ColorNormalize
	fstp	ST(0)
	add	esp, 8

; 454  : 		
; 455  : 		pglUniform3fARB( RI->currentshader->u_LightDir, sky_vec.x, sky_vec.y, sky_vec.z );

	push	ecx
	movss	xmm0, DWORD PTR _sky_vec$4[ebp+8]
	movss	DWORD PTR [esp], xmm0
	push	ecx
	movss	xmm0, DWORD PTR _sky_vec$4[ebp+4]
	movss	DWORD PTR [esp], xmm0
	push	ecx
	movss	xmm0, DWORD PTR _sky_vec$4[ebp]
	movss	DWORD PTR [esp], xmm0
	mov	eax, DWORD PTR ?RI@@3PAUref_instance_t@@A ; RI
	mov	ecx, DWORD PTR [eax+28]
	mov	edx, DWORD PTR [ecx+744]
	push	edx
	call	DWORD PTR ?pglUniform3fARB@@3P6GXHMMM@ZA ; pglUniform3fARB

; 456  : 		pglUniform3fARB( RI->currentshader->u_LightDiffuse, sky_color.x, sky_color.y, sky_color.z );

	push	ecx
	movss	xmm0, DWORD PTR _sky_color$5[ebp+8]
	movss	DWORD PTR [esp], xmm0
	push	ecx
	movss	xmm0, DWORD PTR _sky_color$5[ebp+4]
	movss	DWORD PTR [esp], xmm0
	push	ecx
	movss	xmm0, DWORD PTR _sky_color$5[ebp]
	movss	DWORD PTR [esp], xmm0
	mov	eax, DWORD PTR ?RI@@3PAUref_instance_t@@A ; RI
	mov	ecx, DWORD PTR [eax+28]
	mov	edx, DWORD PTR [ecx+760]
	push	edx
	call	DWORD PTR ?pglUniform3fARB@@3P6GXHMMM@ZA ; pglUniform3fARB

; 457  : 		pglUniform3fARB( RI->currentshader->u_ViewOrigin, RI->vieworg.x, RI->vieworg.y, RI->vieworg.z );

	mov	eax, DWORD PTR ?RI@@3PAUref_instance_t@@A ; RI
	push	ecx
	movss	xmm0, DWORD PTR [eax+212]
	movss	DWORD PTR [esp], xmm0
	mov	ecx, DWORD PTR ?RI@@3PAUref_instance_t@@A ; RI
	push	ecx
	movss	xmm0, DWORD PTR [ecx+208]
	movss	DWORD PTR [esp], xmm0
	mov	edx, DWORD PTR ?RI@@3PAUref_instance_t@@A ; RI
	push	ecx
	movss	xmm0, DWORD PTR [edx+204]
	movss	DWORD PTR [esp], xmm0
	mov	eax, DWORD PTR ?RI@@3PAUref_instance_t@@A ; RI
	mov	ecx, DWORD PTR [eax+28]
	mov	edx, DWORD PTR [ecx+800]
	push	edx
	call	DWORD PTR ?pglUniform3fARB@@3P6GXHMMM@ZA ; pglUniform3fARB

; 458  : 		pglUniform4fARB( RI->currentshader->u_FogParams, tr.fogColor[0], tr.fogColor[1], tr.fogColor[2], tr.fogDensity * 0.0125f );

	movss	xmm0, DWORD PTR ?tr@@3Uref_globals_t@@A+5830908
	mulss	xmm0, DWORD PTR __real@3c4ccccd
	push	ecx
	movss	DWORD PTR [esp], xmm0
	mov	ecx, OFFSET ?tr@@3Uref_globals_t@@A+5830896
	call	??BVector@@QAEPAMXZ			; Vector::operator float *
	mov	ecx, 4
	shl	ecx, 1
	push	ecx
	movss	xmm0, DWORD PTR [eax+ecx]
	movss	DWORD PTR [esp], xmm0
	mov	ecx, OFFSET ?tr@@3Uref_globals_t@@A+5830896
	call	??BVector@@QAEPAMXZ			; Vector::operator float *
	mov	edx, 4
	shl	edx, 0
	push	ecx
	movss	xmm0, DWORD PTR [eax+edx]
	movss	DWORD PTR [esp], xmm0
	mov	ecx, OFFSET ?tr@@3Uref_globals_t@@A+5830896
	call	??BVector@@QAEPAMXZ			; Vector::operator float *
	mov	ecx, 4
	imul	edx, ecx, 0
	push	ecx
	movss	xmm0, DWORD PTR [eax+edx]
	movss	DWORD PTR [esp], xmm0
	mov	eax, DWORD PTR ?RI@@3PAUref_instance_t@@A ; RI
	mov	ecx, DWORD PTR [eax+28]
	mov	edx, DWORD PTR [ecx+788]
	push	edx
	call	DWORD PTR ?pglUniform4fARB@@3P6GXHMMMM@ZA ; pglUniform4fARB

; 459  : 		pglUniform1fARB( RI->currentshader->u_GenericCondition, (float)sundisk );

	movzx	eax, BYTE PTR _sundisk$3[ebp]
	cvtsi2ss xmm0, eax
	push	ecx
	movss	DWORD PTR [esp], xmm0
	mov	ecx, DWORD PTR ?RI@@3PAUref_instance_t@@A ; RI
	mov	edx, DWORD PTR [ecx+28]
	mov	eax, DWORD PTR [edx+704]
	push	eax
	call	DWORD PTR ?pglUniform1fARB@@3P6GXHM@ZA	; pglUniform1fARB
$LN7@R_DrawSkyB:

; 460  : 	}
; 461  : 
; 462  : 	for( int i = 0; i < 6; i++ )

	mov	DWORD PTR _i$2[ebp], 0
	jmp	SHORT $LN4@R_DrawSkyB
$LN2@R_DrawSkyB:
	mov	eax, DWORD PTR _i$2[ebp]
	add	eax, 1
	mov	DWORD PTR _i$2[ebp], eax
$LN4@R_DrawSkyB:
	cmp	DWORD PTR _i$2[ebp], 6
	jge	$LN3@R_DrawSkyB

; 463  : 	{
; 464  : 		if( RI->skyMins[0][i] >= RI->skyMaxs[0][i] || RI->skyMins[1][i] >= RI->skyMaxs[1][i] )

	mov	eax, 24					; 00000018H
	imul	ecx, eax, 0
	mov	edx, DWORD PTR ?RI@@3PAUref_instance_t@@A ; RI
	lea	eax, DWORD PTR [edx+ecx+268]
	mov	ecx, 24					; 00000018H
	imul	edx, ecx, 0
	mov	ecx, DWORD PTR ?RI@@3PAUref_instance_t@@A ; RI
	lea	edx, DWORD PTR [ecx+edx+316]
	mov	ecx, DWORD PTR _i$2[ebp]
	mov	esi, DWORD PTR _i$2[ebp]
	movss	xmm0, DWORD PTR [eax+ecx*4]
	comiss	xmm0, DWORD PTR [edx+esi*4]
	jae	SHORT $LN10@R_DrawSkyB
	mov	eax, 24					; 00000018H
	shl	eax, 0
	mov	ecx, DWORD PTR ?RI@@3PAUref_instance_t@@A ; RI
	lea	edx, DWORD PTR [ecx+eax+268]
	mov	eax, 24					; 00000018H
	shl	eax, 0
	mov	ecx, DWORD PTR ?RI@@3PAUref_instance_t@@A ; RI
	lea	eax, DWORD PTR [ecx+eax+316]
	mov	ecx, DWORD PTR _i$2[ebp]
	mov	esi, DWORD PTR _i$2[ebp]
	movss	xmm0, DWORD PTR [edx+ecx*4]
	comiss	xmm0, DWORD PTR [eax+esi*4]
	jb	SHORT $LN9@R_DrawSkyB
$LN10@R_DrawSkyB:

; 465  : 			continue;

	jmp	$LN2@R_DrawSkyB
$LN9@R_DrawSkyB:

; 466  : 
; 467  : 		// diffusion - so the "skyname" console command would work
; 468  : 		tr.skyboxTextures[i] = RENDER_GET_PARM( PARM_TEX_SKYBOX, i );

	mov	eax, DWORD PTR _i$2[ebp]
	push	eax
	push	5
	call	DWORD PTR ?gRenderfuncs@@3Urender_api_s@@A
	add	esp, 8
	mov	ecx, DWORD PTR _i$2[ebp]
	mov	DWORD PTR ?tr@@3Uref_globals_t@@A[ecx*4+52], eax

; 469  : 
; 470  : 		GL_Bind( GL_TEXTURE0, tr.skyboxTextures[r_skyTexOrder[i]] );

	mov	eax, DWORD PTR _i$2[ebp]
	mov	ecx, DWORD PTR ?r_skyTexOrder@@3QBHB[eax*4]
	mov	edx, DWORD PTR ?tr@@3Uref_globals_t@@A[ecx*4+52]
	push	edx
	push	0
	call	DWORD PTR ?gRenderfuncs@@3Urender_api_s@@A+132
	add	esp, 8

; 471  : 
; 472  : 		pglBegin( GL_QUADS );

	push	7
	call	DWORD PTR ?pglBegin@@3P6GXI@ZA		; pglBegin

; 473  : 		MakeSkyVec( RI->skyMins[0][i], RI->skyMins[1][i], i );

	mov	eax, DWORD PTR _i$2[ebp]
	push	eax
	mov	ecx, 24					; 00000018H
	shl	ecx, 0
	mov	edx, DWORD PTR ?RI@@3PAUref_instance_t@@A ; RI
	lea	eax, DWORD PTR [edx+ecx+268]
	mov	ecx, DWORD PTR _i$2[ebp]
	push	ecx
	movss	xmm0, DWORD PTR [eax+ecx*4]
	movss	DWORD PTR [esp], xmm0
	mov	edx, 24					; 00000018H
	imul	eax, edx, 0
	mov	ecx, DWORD PTR ?RI@@3PAUref_instance_t@@A ; RI
	lea	edx, DWORD PTR [ecx+eax+268]
	mov	eax, DWORD PTR _i$2[ebp]
	push	ecx
	movss	xmm0, DWORD PTR [edx+eax*4]
	movss	DWORD PTR [esp], xmm0
	call	?MakeSkyVec@@YAXMMH@Z			; MakeSkyVec
	add	esp, 12					; 0000000cH

; 474  : 		MakeSkyVec( RI->skyMins[0][i], RI->skyMaxs[1][i], i );

	mov	eax, DWORD PTR _i$2[ebp]
	push	eax
	mov	ecx, 24					; 00000018H
	shl	ecx, 0
	mov	edx, DWORD PTR ?RI@@3PAUref_instance_t@@A ; RI
	lea	eax, DWORD PTR [edx+ecx+316]
	mov	ecx, DWORD PTR _i$2[ebp]
	push	ecx
	movss	xmm0, DWORD PTR [eax+ecx*4]
	movss	DWORD PTR [esp], xmm0
	mov	edx, 24					; 00000018H
	imul	eax, edx, 0
	mov	ecx, DWORD PTR ?RI@@3PAUref_instance_t@@A ; RI
	lea	edx, DWORD PTR [ecx+eax+268]
	mov	eax, DWORD PTR _i$2[ebp]
	push	ecx
	movss	xmm0, DWORD PTR [edx+eax*4]
	movss	DWORD PTR [esp], xmm0
	call	?MakeSkyVec@@YAXMMH@Z			; MakeSkyVec
	add	esp, 12					; 0000000cH

; 475  : 		MakeSkyVec( RI->skyMaxs[0][i], RI->skyMaxs[1][i], i );

	mov	eax, DWORD PTR _i$2[ebp]
	push	eax
	mov	ecx, 24					; 00000018H
	shl	ecx, 0
	mov	edx, DWORD PTR ?RI@@3PAUref_instance_t@@A ; RI
	lea	eax, DWORD PTR [edx+ecx+316]
	mov	ecx, DWORD PTR _i$2[ebp]
	push	ecx
	movss	xmm0, DWORD PTR [eax+ecx*4]
	movss	DWORD PTR [esp], xmm0
	mov	edx, 24					; 00000018H
	imul	eax, edx, 0
	mov	ecx, DWORD PTR ?RI@@3PAUref_instance_t@@A ; RI
	lea	edx, DWORD PTR [ecx+eax+316]
	mov	eax, DWORD PTR _i$2[ebp]
	push	ecx
	movss	xmm0, DWORD PTR [edx+eax*4]
	movss	DWORD PTR [esp], xmm0
	call	?MakeSkyVec@@YAXMMH@Z			; MakeSkyVec
	add	esp, 12					; 0000000cH

; 476  : 		MakeSkyVec( RI->skyMaxs[0][i], RI->skyMins[1][i], i );

	mov	eax, DWORD PTR _i$2[ebp]
	push	eax
	mov	ecx, 24					; 00000018H
	shl	ecx, 0
	mov	edx, DWORD PTR ?RI@@3PAUref_instance_t@@A ; RI
	lea	eax, DWORD PTR [edx+ecx+268]
	mov	ecx, DWORD PTR _i$2[ebp]
	push	ecx
	movss	xmm0, DWORD PTR [eax+ecx*4]
	movss	DWORD PTR [esp], xmm0
	mov	edx, 24					; 00000018H
	imul	eax, edx, 0
	mov	ecx, DWORD PTR ?RI@@3PAUref_instance_t@@A ; RI
	lea	edx, DWORD PTR [ecx+eax+316]
	mov	eax, DWORD PTR _i$2[ebp]
	push	ecx
	movss	xmm0, DWORD PTR [edx+eax*4]
	movss	DWORD PTR [esp], xmm0
	call	?MakeSkyVec@@YAXMMH@Z			; MakeSkyVec
	add	esp, 12					; 0000000cH

; 477  : 		pglEnd();

	call	DWORD PTR ?pglEnd@@3P6GXXZA		; pglEnd

; 478  : 	}

	jmp	$LN2@R_DrawSkyB
$LN3@R_DrawSkyB:

; 479  : 
; 480  : 	GL_BindShader( NULL );

	push	0
	call	?GL_BindShader@@YAXPAUglsl_prog_s@@@Z	; GL_BindShader
	add	esp, 4

; 481  : 	R_LoadIdentity();

	call	?R_LoadIdentity@@YAXXZ			; R_LoadIdentity

; 482  : 
; 483  : 	RI->params |= RP_SKYBOXRENDERED;

	mov	eax, DWORD PTR ?RI@@3PAUref_instance_t@@A ; RI
	mov	ecx, DWORD PTR [eax]
	or	ecx, 16384				; 00004000H
	mov	edx, DWORD PTR ?RI@@3PAUref_instance_t@@A ; RI
	mov	DWORD PTR [edx], ecx
$LN1@R_DrawSkyB:

; 484  : }

	pop	edi
	pop	esi
	pop	ebx
	mov	esp, ebp
	pop	ebp
	ret	0
?R_DrawSkyBox@@YAXXZ ENDP				; R_DrawSkyBox
_TEXT	ENDS
; Function compile flags: /Odtp /ZI
; File d:\!diffusion 2020\source code 2022\client-server\game_shared\vector.h
;	COMDAT ?DotProduct@@YAMABVVector@@0@Z
_TEXT	SEGMENT
tv86 = -68						; size = 4
_a$ = 8							; size = 4
_b$ = 12						; size = 4
?DotProduct@@YAMABVVector@@0@Z PROC			; DotProduct, COMDAT

; 308  : inline float DotProduct(const Vector& a, const Vector& b ) { return( a.x * b.x + a.y * b.y + a.z * b.z ); }

	push	ebp
	mov	ebp, esp
	sub	esp, 68					; 00000044H
	push	ebx
	push	esi
	push	edi
	mov	eax, DWORD PTR _a$[ebp]
	mov	ecx, DWORD PTR _b$[ebp]
	movss	xmm0, DWORD PTR [eax]
	mulss	xmm0, DWORD PTR [ecx]
	mov	edx, DWORD PTR _a$[ebp]
	mov	eax, DWORD PTR _b$[ebp]
	movss	xmm1, DWORD PTR [edx+4]
	mulss	xmm1, DWORD PTR [eax+4]
	addss	xmm0, xmm1
	mov	ecx, DWORD PTR _a$[ebp]
	mov	edx, DWORD PTR _b$[ebp]
	movss	xmm1, DWORD PTR [ecx+8]
	mulss	xmm1, DWORD PTR [edx+8]
	addss	xmm0, xmm1
	movss	DWORD PTR tv86[ebp], xmm0
	fld	DWORD PTR tv86[ebp]
	pop	edi
	pop	esi
	pop	ebx
	mov	esp, ebp
	pop	ebp
	ret	0
?DotProduct@@YAMABVVector@@0@Z ENDP			; DotProduct
_TEXT	ENDS
; Function compile flags: /Odtp /ZI
; File d:\!diffusion 2020\source code 2022\client-server\game_shared\vector.h
;	COMDAT ?Normalize@Vector@@QBE?AV1@XZ
_TEXT	SEGMENT
_flLen$ = -8						; size = 4
_this$ = -4						; size = 4
___$ReturnUdt$ = 8					; size = 4
?Normalize@Vector@@QBE?AV1@XZ PROC			; Vector::Normalize, COMDAT
; _this$ = ecx

; 251  : 	{

	push	ebp
	mov	ebp, esp
	sub	esp, 72					; 00000048H
	push	ebx
	push	esi
	push	edi
	mov	DWORD PTR _this$[ebp], ecx

; 252  : 		float flLen = Length();

	mov	ecx, DWORD PTR _this$[ebp]
	call	?Length@Vector@@QBEMXZ			; Vector::Length
	fstp	DWORD PTR _flLen$[ebp]

; 253  : 
; 254  : 		if( flLen )

	movss	xmm0, DWORD PTR _flLen$[ebp]
	ucomiss	xmm0, DWORD PTR __real@00000000
	lahf
	test	ah, 68					; 00000044H
	jnp	SHORT $LN2@Normalize

; 255  : 		{
; 256  : 			flLen = 1.0f / flLen;

	movss	xmm0, DWORD PTR __real@3f800000
	divss	xmm0, DWORD PTR _flLen$[ebp]
	movss	DWORD PTR _flLen$[ebp], xmm0

; 257  : 			return Vector( x * flLen, y * flLen, z * flLen );

	mov	eax, DWORD PTR _this$[ebp]
	movss	xmm0, DWORD PTR [eax+8]
	mulss	xmm0, DWORD PTR _flLen$[ebp]
	push	ecx
	movss	DWORD PTR [esp], xmm0
	mov	ecx, DWORD PTR _this$[ebp]
	movss	xmm0, DWORD PTR [ecx+4]
	mulss	xmm0, DWORD PTR _flLen$[ebp]
	push	ecx
	movss	DWORD PTR [esp], xmm0
	mov	edx, DWORD PTR _this$[ebp]
	movss	xmm0, DWORD PTR [edx]
	mulss	xmm0, DWORD PTR _flLen$[ebp]
	push	ecx
	movss	DWORD PTR [esp], xmm0
	mov	ecx, DWORD PTR ___$ReturnUdt$[ebp]
	call	??0Vector@@QAE@MMM@Z			; Vector::Vector
	mov	eax, DWORD PTR ___$ReturnUdt$[ebp]
	jmp	SHORT $LN1@Normalize
$LN2@Normalize:

; 258  : 		}
; 259  : 
; 260  : 		return *this; // can't normalize

	mov	eax, DWORD PTR _this$[ebp]
	push	eax
	mov	ecx, DWORD PTR ___$ReturnUdt$[ebp]
	call	??0Vector@@QAE@ABV0@@Z			; Vector::Vector
	mov	eax, DWORD PTR ___$ReturnUdt$[ebp]
$LN1@Normalize:

; 261  : 	}

	pop	edi
	pop	esi
	pop	ebx
	mov	esp, ebp
	pop	ebp
	ret	4
?Normalize@Vector@@QBE?AV1@XZ ENDP			; Vector::Normalize
_TEXT	ENDS
; Function compile flags: /Odtp /ZI
; File d:\!diffusion 2020\source code 2022\client-server\game_shared\vector.h
;	COMDAT ??BVector@@QAEPAMXZ
_TEXT	SEGMENT
_this$ = -4						; size = 4
??BVector@@QAEPAMXZ PROC				; Vector::operator float *, COMDAT
; _this$ = ecx

; 247  : 	operator float *()				{ return &x; } // Vectors will now automatically convert to float * when needed

	push	ebp
	mov	ebp, esp
	sub	esp, 68					; 00000044H
	push	ebx
	push	esi
	push	edi
	mov	DWORD PTR _this$[ebp], ecx
	mov	eax, DWORD PTR _this$[ebp]
	pop	edi
	pop	esi
	pop	ebx
	mov	esp, ebp
	pop	ebp
	ret	0
??BVector@@QAEPAMXZ ENDP				; Vector::operator float *
_TEXT	ENDS
; Function compile flags: /Odtp /ZI
; File d:\!diffusion 2020\source code 2022\client-server\game_shared\vector.h
;	COMDAT ?Length@Vector@@QBEMXZ
_TEXT	SEGMENT
tv91 = -72						; size = 4
_this$ = -4						; size = 4
?Length@Vector@@QBEMXZ PROC				; Vector::Length, COMDAT
; _this$ = ecx

; 245  : 	inline float Length(void) const		{ return sqrt( x*x + y*y + z*z ); }

	push	ebp
	mov	ebp, esp
	sub	esp, 72					; 00000048H
	push	ebx
	push	esi
	push	edi
	mov	DWORD PTR _this$[ebp], ecx
	mov	eax, DWORD PTR _this$[ebp]
	mov	ecx, DWORD PTR _this$[ebp]
	movss	xmm0, DWORD PTR [eax]
	mulss	xmm0, DWORD PTR [ecx]
	mov	edx, DWORD PTR _this$[ebp]
	mov	eax, DWORD PTR _this$[ebp]
	movss	xmm1, DWORD PTR [edx+4]
	mulss	xmm1, DWORD PTR [eax+4]
	addss	xmm0, xmm1
	mov	ecx, DWORD PTR _this$[ebp]
	mov	edx, DWORD PTR _this$[ebp]
	movss	xmm1, DWORD PTR [ecx+8]
	mulss	xmm1, DWORD PTR [edx+8]
	addss	xmm0, xmm1
	cvtss2sd xmm0, xmm0
	sub	esp, 8
	movsd	QWORD PTR [esp], xmm0
	call	_sqrt
	add	esp, 8
	fstp	DWORD PTR tv91[ebp]
	fld	DWORD PTR tv91[ebp]
	pop	edi
	pop	esi
	pop	ebx
	mov	esp, ebp
	pop	ebp
	ret	0
?Length@Vector@@QBEMXZ ENDP				; Vector::Length
_TEXT	ENDS
; Function compile flags: /Odtp /ZI
; File d:\!diffusion 2020\source code 2022\client-server\game_shared\vector.h
;	COMDAT ??XVector@@QAEAAV0@M@Z
_TEXT	SEGMENT
_this$ = -4						; size = 4
_s$ = 8							; size = 4
??XVector@@QAEAAV0@M@Z PROC				; Vector::operator*=, COMDAT
; _this$ = ecx

; 183  : 	{

	push	ebp
	mov	ebp, esp
	sub	esp, 68					; 00000044H
	push	ebx
	push	esi
	push	edi
	mov	DWORD PTR _this$[ebp], ecx

; 184  : 		x *= s; y *= s; z *= s;

	mov	eax, DWORD PTR _this$[ebp]
	movss	xmm0, DWORD PTR [eax]
	mulss	xmm0, DWORD PTR _s$[ebp]
	mov	ecx, DWORD PTR _this$[ebp]
	movss	DWORD PTR [ecx], xmm0
	mov	eax, DWORD PTR _this$[ebp]
	movss	xmm0, DWORD PTR [eax+4]
	mulss	xmm0, DWORD PTR _s$[ebp]
	mov	ecx, DWORD PTR _this$[ebp]
	movss	DWORD PTR [ecx+4], xmm0
	mov	eax, DWORD PTR _this$[ebp]
	movss	xmm0, DWORD PTR [eax+8]
	mulss	xmm0, DWORD PTR _s$[ebp]
	mov	ecx, DWORD PTR _this$[ebp]
	movss	DWORD PTR [ecx+8], xmm0

; 185  : 		return *this;

	mov	eax, DWORD PTR _this$[ebp]

; 186  : 	}

	pop	edi
	pop	esi
	pop	ebx
	mov	esp, ebp
	pop	ebp
	ret	4
??XVector@@QAEAAV0@M@Z ENDP				; Vector::operator*=
_TEXT	ENDS
; Function compile flags: /Odtp /ZI
; File d:\!diffusion 2020\source code 2022\client-server\game_shared\vector.h
;	COMDAT ??YVector@@QAEAAV0@ABV0@@Z
_TEXT	SEGMENT
_this$ = -4						; size = 4
_v$ = 8							; size = 4
??YVector@@QAEAAV0@ABV0@@Z PROC				; Vector::operator+=, COMDAT
; _this$ = ecx

; 168  : 	{

	push	ebp
	mov	ebp, esp
	sub	esp, 68					; 00000044H
	push	ebx
	push	esi
	push	edi
	mov	DWORD PTR _this$[ebp], ecx

; 169  : 		x+=v.x; y+=v.y; z += v.z;	

	mov	eax, DWORD PTR _this$[ebp]
	mov	ecx, DWORD PTR _v$[ebp]
	movss	xmm0, DWORD PTR [eax]
	addss	xmm0, DWORD PTR [ecx]
	mov	edx, DWORD PTR _this$[ebp]
	movss	DWORD PTR [edx], xmm0
	mov	eax, DWORD PTR _this$[ebp]
	mov	ecx, DWORD PTR _v$[ebp]
	movss	xmm0, DWORD PTR [eax+4]
	addss	xmm0, DWORD PTR [ecx+4]
	mov	edx, DWORD PTR _this$[ebp]
	movss	DWORD PTR [edx+4], xmm0
	mov	eax, DWORD PTR _this$[ebp]
	mov	ecx, DWORD PTR _v$[ebp]
	movss	xmm0, DWORD PTR [eax+8]
	addss	xmm0, DWORD PTR [ecx+8]
	mov	edx, DWORD PTR _this$[ebp]
	movss	DWORD PTR [edx+8], xmm0

; 170  : 		return *this;

	mov	eax, DWORD PTR _this$[ebp]

; 171  : 	}			

	pop	edi
	pop	esi
	pop	ebx
	mov	esp, ebp
	pop	ebp
	ret	4
??YVector@@QAEAAV0@ABV0@@Z ENDP				; Vector::operator+=
_TEXT	ENDS
; Function compile flags: /Odtp /ZI
; File d:\!diffusion 2020\source code 2022\client-server\game_shared\vector.h
;	COMDAT ??DVector@@QBE?AV0@M@Z
_TEXT	SEGMENT
_this$ = -4						; size = 4
___$ReturnUdt$ = 8					; size = 4
_fl$ = 12						; size = 4
??DVector@@QBE?AV0@M@Z PROC				; Vector::operator*, COMDAT
; _this$ = ecx

; 162  : 	inline Vector operator*(float fl) const		{ return Vector(x*fl, y*fl, z*fl);	   }

	push	ebp
	mov	ebp, esp
	sub	esp, 68					; 00000044H
	push	ebx
	push	esi
	push	edi
	mov	DWORD PTR _this$[ebp], ecx
	mov	eax, DWORD PTR _this$[ebp]
	movss	xmm0, DWORD PTR [eax+8]
	mulss	xmm0, DWORD PTR _fl$[ebp]
	push	ecx
	movss	DWORD PTR [esp], xmm0
	mov	ecx, DWORD PTR _this$[ebp]
	movss	xmm0, DWORD PTR [ecx+4]
	mulss	xmm0, DWORD PTR _fl$[ebp]
	push	ecx
	movss	DWORD PTR [esp], xmm0
	mov	edx, DWORD PTR _this$[ebp]
	movss	xmm0, DWORD PTR [edx]
	mulss	xmm0, DWORD PTR _fl$[ebp]
	push	ecx
	movss	DWORD PTR [esp], xmm0
	mov	ecx, DWORD PTR ___$ReturnUdt$[ebp]
	call	??0Vector@@QAE@MMM@Z			; Vector::Vector
	mov	eax, DWORD PTR ___$ReturnUdt$[ebp]
	pop	edi
	pop	esi
	pop	ebx
	mov	esp, ebp
	pop	ebp
	ret	8
??DVector@@QBE?AV0@M@Z ENDP				; Vector::operator*
_TEXT	ENDS
; Function compile flags: /Odtp /ZI
; File d:\!diffusion 2020\source code 2022\client-server\game_shared\vector.h
;	COMDAT ??9Vector@@QBEHABV0@@Z
_TEXT	SEGMENT
tv68 = -72						; size = 4
_this$ = -4						; size = 4
_v$ = 8							; size = 4
??9Vector@@QBEHABV0@@Z PROC				; Vector::operator!=, COMDAT
; _this$ = ecx

; 157  : 	inline int operator!=(const Vector& v) const	{ return !(*this==v);		   }

	push	ebp
	mov	ebp, esp
	sub	esp, 72					; 00000048H
	push	ebx
	push	esi
	push	edi
	mov	DWORD PTR _this$[ebp], ecx
	mov	eax, DWORD PTR _v$[ebp]
	push	eax
	mov	ecx, DWORD PTR _this$[ebp]
	call	??8Vector@@QBEHABV0@@Z			; Vector::operator==
	test	eax, eax
	jne	SHORT $LN3@operator
	mov	DWORD PTR tv68[ebp], 1
	jmp	SHORT $LN4@operator
$LN3@operator:
	mov	DWORD PTR tv68[ebp], 0
$LN4@operator:
	mov	eax, DWORD PTR tv68[ebp]
	pop	edi
	pop	esi
	pop	ebx
	mov	esp, ebp
	pop	ebp
	ret	4
??9Vector@@QBEHABV0@@Z ENDP				; Vector::operator!=
_TEXT	ENDS
; Function compile flags: /Odtp /ZI
; File d:\!diffusion 2020\source code 2022\client-server\game_shared\vector.h
;	COMDAT ??8Vector@@QBEHABV0@@Z
_TEXT	SEGMENT
tv73 = -72						; size = 4
_this$ = -4						; size = 4
_v$ = 8							; size = 4
??8Vector@@QBEHABV0@@Z PROC				; Vector::operator==, COMDAT
; _this$ = ecx

; 156  : 	inline int operator==(const Vector& v) const	{ return x==v.x && y==v.y && z==v.z;	   }

	push	ebp
	mov	ebp, esp
	sub	esp, 72					; 00000048H
	push	ebx
	push	esi
	push	edi
	mov	DWORD PTR _this$[ebp], ecx
	mov	eax, DWORD PTR _this$[ebp]
	mov	ecx, DWORD PTR _v$[ebp]
	movss	xmm0, DWORD PTR [eax]
	ucomiss	xmm0, DWORD PTR [ecx]
	lahf
	test	ah, 68					; 00000044H
	jp	SHORT $LN3@operator
	mov	edx, DWORD PTR _this$[ebp]
	mov	eax, DWORD PTR _v$[ebp]
	movss	xmm0, DWORD PTR [edx+4]
	ucomiss	xmm0, DWORD PTR [eax+4]
	lahf
	test	ah, 68					; 00000044H
	jp	SHORT $LN3@operator
	mov	ecx, DWORD PTR _this$[ebp]
	mov	edx, DWORD PTR _v$[ebp]
	movss	xmm0, DWORD PTR [ecx+8]
	ucomiss	xmm0, DWORD PTR [edx+8]
	lahf
	test	ah, 68					; 00000044H
	jp	SHORT $LN3@operator
	mov	DWORD PTR tv73[ebp], 1
	jmp	SHORT $LN4@operator
$LN3@operator:
	mov	DWORD PTR tv73[ebp], 0
$LN4@operator:
	mov	eax, DWORD PTR tv73[ebp]
	pop	edi
	pop	esi
	pop	ebx
	mov	esp, ebp
	pop	ebp
	ret	4
??8Vector@@QBEHABV0@@Z ENDP				; Vector::operator==
_TEXT	ENDS
; Function compile flags: /Odtp /ZI
; File d:\!diffusion 2020\source code 2022\client-server\game_shared\vector.h
;	COMDAT ??0Vector@@QAE@ABV0@@Z
_TEXT	SEGMENT
_this$ = -4						; size = 4
_v$ = 8							; size = 4
??0Vector@@QAE@ABV0@@Z PROC				; Vector::Vector, COMDAT
; _this$ = ecx

; 145  : 	inline Vector(const Vector& v)		{ x = v.x; y = v.y; z = v.z;		   }

	push	ebp
	mov	ebp, esp
	sub	esp, 68					; 00000044H
	push	ebx
	push	esi
	push	edi
	mov	DWORD PTR _this$[ebp], ecx
	mov	eax, DWORD PTR _this$[ebp]
	mov	ecx, DWORD PTR _v$[ebp]
	mov	edx, DWORD PTR [ecx]
	mov	DWORD PTR [eax], edx
	mov	eax, DWORD PTR _this$[ebp]
	mov	ecx, DWORD PTR _v$[ebp]
	mov	edx, DWORD PTR [ecx+4]
	mov	DWORD PTR [eax+4], edx
	mov	eax, DWORD PTR _this$[ebp]
	mov	ecx, DWORD PTR _v$[ebp]
	mov	edx, DWORD PTR [ecx+8]
	mov	DWORD PTR [eax+8], edx
	mov	eax, DWORD PTR _this$[ebp]
	pop	edi
	pop	esi
	pop	ebx
	mov	esp, ebp
	pop	ebp
	ret	4
??0Vector@@QAE@ABV0@@Z ENDP				; Vector::Vector
_TEXT	ENDS
; Function compile flags: /Odtp /ZI
; File d:\!diffusion 2020\source code 2022\client-server\game_shared\vector.h
;	COMDAT ??0Vector@@QAE@MMM@Z
_TEXT	SEGMENT
_this$ = -4						; size = 4
_X$ = 8							; size = 4
_Y$ = 12						; size = 4
_Z$ = 16						; size = 4
??0Vector@@QAE@MMM@Z PROC				; Vector::Vector, COMDAT
; _this$ = ecx

; 144  : 	inline Vector(float X, float Y, float Z)	{ x = X; y = Y; z = Z;                     }

	push	ebp
	mov	ebp, esp
	sub	esp, 68					; 00000044H
	push	ebx
	push	esi
	push	edi
	mov	DWORD PTR _this$[ebp], ecx
	mov	eax, DWORD PTR _this$[ebp]
	movss	xmm0, DWORD PTR _X$[ebp]
	movss	DWORD PTR [eax], xmm0
	mov	eax, DWORD PTR _this$[ebp]
	movss	xmm0, DWORD PTR _Y$[ebp]
	movss	DWORD PTR [eax+4], xmm0
	mov	eax, DWORD PTR _this$[ebp]
	movss	xmm0, DWORD PTR _Z$[ebp]
	movss	DWORD PTR [eax+8], xmm0
	mov	eax, DWORD PTR _this$[ebp]
	pop	edi
	pop	esi
	pop	ebx
	mov	esp, ebp
	pop	ebp
	ret	12					; 0000000cH
??0Vector@@QAE@MMM@Z ENDP				; Vector::Vector
_TEXT	ENDS
; Function compile flags: /Odtp /ZI
; File d:\!diffusion 2020\source code 2022\client-server\game_shared\vector.h
;	COMDAT ??0Vector@@QAE@XZ
_TEXT	SEGMENT
_this$ = -4						; size = 4
??0Vector@@QAE@XZ PROC					; Vector::Vector, COMDAT
; _this$ = ecx

; 143  : 	inline Vector(void)				{ }

	push	ebp
	mov	ebp, esp
	sub	esp, 68					; 00000044H
	push	ebx
	push	esi
	push	edi
	mov	DWORD PTR _this$[ebp], ecx
	mov	eax, DWORD PTR _this$[ebp]
	pop	edi
	pop	esi
	pop	ebx
	mov	esp, ebp
	pop	ebp
	ret	0
??0Vector@@QAE@XZ ENDP					; Vector::Vector
_TEXT	ENDS
; Function compile flags: /Odtp /ZI
;	COMDAT ??__G@YGXPAX0IIP6EPAX00@Z@Z
_TEXT	SEGMENT
tv66 = -68						; size = 4
___t$ = 8						; size = 4
___u$ = 12						; size = 4
___s$ = 16						; size = 4
___n$ = 20						; size = 4
___f$ = 24						; size = 4
??__G@YGXPAX0IIP6EPAX00@Z@Z PROC			; `vector copy constructor iterator', COMDAT
	push	ebp
	mov	ebp, esp
	sub	esp, 68					; 00000044H
	push	ebx
	push	esi
	push	edi
$LN2@vector:
	mov	eax, DWORD PTR ___n$[ebp]
	mov	DWORD PTR tv66[ebp], eax
	mov	ecx, DWORD PTR ___n$[ebp]
	sub	ecx, 1
	mov	DWORD PTR ___n$[ebp], ecx
	cmp	DWORD PTR tv66[ebp], 0
	jbe	SHORT $LN1@vector
	mov	eax, DWORD PTR ___u$[ebp]
	push	eax
	mov	ecx, DWORD PTR ___t$[ebp]
	call	DWORD PTR ___f$[ebp]
	mov	eax, DWORD PTR ___t$[ebp]
	add	eax, DWORD PTR ___s$[ebp]
	mov	DWORD PTR ___t$[ebp], eax
	mov	eax, DWORD PTR ___u$[ebp]
	add	eax, DWORD PTR ___s$[ebp]
	mov	DWORD PTR ___u$[ebp], eax
	jmp	SHORT $LN2@vector
$LN1@vector:
	pop	edi
	pop	esi
	pop	ebx
	mov	esp, ebp
	pop	ebp
	ret	20					; 00000014H
??__G@YGXPAX0IIP6EPAX00@Z@Z ENDP			; `vector copy constructor iterator'
_TEXT	ENDS
; Function compile flags: /Odtp /ZI
;	COMDAT ??_H@YGXPAXIIP6EPAX0@Z@Z
_TEXT	SEGMENT
tv66 = -68						; size = 4
___t$ = 8						; size = 4
___s$ = 12						; size = 4
___n$ = 16						; size = 4
___f$ = 20						; size = 4
??_H@YGXPAXIIP6EPAX0@Z@Z PROC				; `vector constructor iterator', COMDAT
	push	ebp
	mov	ebp, esp
	sub	esp, 68					; 00000044H
	push	ebx
	push	esi
	push	edi
$LN2@vector:
	mov	eax, DWORD PTR ___n$[ebp]
	mov	DWORD PTR tv66[ebp], eax
	mov	ecx, DWORD PTR ___n$[ebp]
	sub	ecx, 1
	mov	DWORD PTR ___n$[ebp], ecx
	cmp	DWORD PTR tv66[ebp], 0
	jbe	SHORT $LN1@vector
	mov	ecx, DWORD PTR ___t$[ebp]
	call	DWORD PTR ___f$[ebp]
	mov	eax, DWORD PTR ___t$[ebp]
	add	eax, DWORD PTR ___s$[ebp]
	mov	DWORD PTR ___t$[ebp], eax
	jmp	SHORT $LN2@vector
$LN1@vector:
	pop	edi
	pop	esi
	pop	ebx
	mov	esp, ebp
	pop	ebp
	ret	16					; 00000010H
??_H@YGXPAXIIP6EPAX0@Z@Z ENDP				; `vector constructor iterator'
_TEXT	ENDS
END
