; Listing generated by Microsoft (R) Optimizing Compiler Version 19.00.24247.2 

	TITLE	D:\!DIFFUSION 2020\source code 2022\client-server\client\render\r_weather.cpp
	.686P
	.XMM
	include listing.inc
	.model	flat

INCLUDELIB LIBCMT
INCLUDELIB OLDNAMES

PUBLIC	?Rain@@3U<unnamed-type-Rain>@@A			; Rain
PUBLIC	?cl_debug_rain@@3PAUcvar_s@@A			; cl_debug_rain
PUBLIC	?rain_curtime@@3NA				; rain_curtime
PUBLIC	?rain_oldtime@@3NA				; rain_oldtime
PUBLIC	?rain_timedelta@@3NA				; rain_timedelta
PUBLIC	?rain_nextspawntime@@3NA			; rain_nextspawntime
PUBLIC	?dripcounter@@3HA				; dripcounter
PUBLIC	?fxcounter@@3HA					; fxcounter
_BSS	SEGMENT
?Rain@@3U<unnamed-type-Rain>@@A DB 020H DUP (?)		; Rain
?cl_debug_rain@@3PAUcvar_s@@A DD 01H DUP (?)		; cl_debug_rain
	ALIGN	8

?rain_curtime@@3NA DQ 01H DUP (?)			; rain_curtime
?rain_oldtime@@3NA DQ 01H DUP (?)			; rain_oldtime
?rain_timedelta@@3NA DQ 01H DUP (?)			; rain_timedelta
?rain_nextspawntime@@3NA DQ 01H DUP (?)			; rain_nextspawntime
?dripcounter@@3HA DD 01H DUP (?)			; dripcounter
?fxcounter@@3HA DD 01H DUP (?)				; fxcounter
_BSS	ENDS
PUBLIC	??_H@YGXPAXIIP6EPAX0@Z@Z			; `vector constructor iterator'
PUBLIC	??__G@YGXPAX0IIP6EPAX00@Z@Z			; `vector copy constructor iterator'
PUBLIC	??0Vector2D@@QAE@XZ				; Vector2D::Vector2D
PUBLIC	??0Vector2D@@QAE@MM@Z				; Vector2D::Vector2D
PUBLIC	?Length@Vector2D@@QBEMXZ			; Vector2D::Length
PUBLIC	?Normalize@Vector2D@@QBE?AV1@XZ			; Vector2D::Normalize
PUBLIC	??0Vector@@QAE@XZ				; Vector::Vector
PUBLIC	??0Vector@@QAE@MMM@Z				; Vector::Vector
PUBLIC	??0Vector@@QAE@ABV0@@Z				; Vector::Vector
PUBLIC	??HVector@@QBE?AV0@ABV0@@Z			; Vector::operator+
PUBLIC	??DVector@@QBE?AV0@M@Z				; Vector::operator*
PUBLIC	??BVector@@QAEPAMXZ				; Vector::operator float *
PUBLIC	??0pmplane_t@@QAE@XZ				; pmplane_t::pmplane_t
PUBLIC	??0pmtrace_s@@QAE@XZ				; pmtrace_s::pmtrace_s
PUBLIC	??0cl_drip@@QAE@XZ				; cl_drip::cl_drip
PUBLIC	??0cl_rainfx@@QAE@XZ				; cl_rainfx::cl_rainfx
PUBLIC	?R_InitWeather@@YAXXZ				; R_InitWeather
PUBLIC	?R_ResetWeather@@YAXXZ				; R_ResetWeather
PUBLIC	?R_DrawWeather@@YAXXZ				; R_DrawWeather
PUBLIC	?R_ParseRainMessage@@YAXXZ			; R_ParseRainMessage
PUBLIC	?WaterLandingEffect@@YAXPAUcl_drip@@@Z		; WaterLandingEffect
PUBLIC	?ParseRainFile@@YAXXZ				; ParseRainFile
PUBLIC	??0?$MemBlock@Ucl_drip@@@@QAE@H@Z		; MemBlock<cl_drip>::MemBlock<cl_drip>
PUBLIC	??1?$MemBlock@Ucl_drip@@@@QAE@XZ		; MemBlock<cl_drip>::~MemBlock<cl_drip>
PUBLIC	?Clear@?$MemBlock@Ucl_drip@@@@QAEXXZ		; MemBlock<cl_drip>::Clear
PUBLIC	?Allocate@?$MemBlock@Ucl_drip@@@@QAEPAUcl_drip@@XZ ; MemBlock<cl_drip>::Allocate
PUBLIC	?IsClear@?$MemBlock@Ucl_drip@@@@QAE_NXZ		; MemBlock<cl_drip>::IsClear
PUBLIC	?StartPass@?$MemBlock@Ucl_drip@@@@QAE_NXZ	; MemBlock<cl_drip>::StartPass
PUBLIC	?GetCurrent@?$MemBlock@Ucl_drip@@@@QAEPAUcl_drip@@XZ ; MemBlock<cl_drip>::GetCurrent
PUBLIC	?MoveNext@?$MemBlock@Ucl_drip@@@@QAEXXZ		; MemBlock<cl_drip>::MoveNext
PUBLIC	?DeleteCurrent@?$MemBlock@Ucl_drip@@@@QAEXXZ	; MemBlock<cl_drip>::DeleteCurrent
PUBLIC	??0?$MemBlock@Ucl_rainfx@@@@QAE@H@Z		; MemBlock<cl_rainfx>::MemBlock<cl_rainfx>
PUBLIC	??1?$MemBlock@Ucl_rainfx@@@@QAE@XZ		; MemBlock<cl_rainfx>::~MemBlock<cl_rainfx>
PUBLIC	?Clear@?$MemBlock@Ucl_rainfx@@@@QAEXXZ		; MemBlock<cl_rainfx>::Clear
PUBLIC	?Allocate@?$MemBlock@Ucl_rainfx@@@@QAEPAUcl_rainfx@@XZ ; MemBlock<cl_rainfx>::Allocate
PUBLIC	?IsClear@?$MemBlock@Ucl_rainfx@@@@QAE_NXZ	; MemBlock<cl_rainfx>::IsClear
PUBLIC	?StartPass@?$MemBlock@Ucl_rainfx@@@@QAE_NXZ	; MemBlock<cl_rainfx>::StartPass
PUBLIC	?GetCurrent@?$MemBlock@Ucl_rainfx@@@@QAEPAUcl_rainfx@@XZ ; MemBlock<cl_rainfx>::GetCurrent
PUBLIC	?MoveNext@?$MemBlock@Ucl_rainfx@@@@QAEXXZ	; MemBlock<cl_rainfx>::MoveNext
PUBLIC	?DeleteCurrent@?$MemBlock@Ucl_rainfx@@@@QAEXXZ	; MemBlock<cl_rainfx>::DeleteCurrent
PUBLIC	?ProcessRain@@YAXXZ				; ProcessRain
PUBLIC	?ProcessFXObjects@@YAXXZ			; ProcessFXObjects
PUBLIC	?DrawRain@@YAXXZ				; DrawRain
PUBLIC	?DrawFXObjects@@YAXXZ				; DrawFXObjects
PUBLIC	??0chunk_s@?$MemBlock@Ucl_rainfx@@@@QAE@XZ	; MemBlock<cl_rainfx>::chunk_s::chunk_s
PUBLIC	??0chunk_s@?$MemBlock@Ucl_drip@@@@QAE@XZ	; MemBlock<cl_drip>::chunk_s::chunk_s
PUBLIC	?g_dripsArray@@3V?$MemBlock@Ucl_drip@@@@A	; g_dripsArray
PUBLIC	?g_fxArray@@3V?$MemBlock@Ucl_rainfx@@@@A	; g_fxArray
PUBLIC	??_C@_0CI@CILLMKND@rain?3?5failed?5to?5allocate?5memory?5@ ; `string'
PUBLIC	??_C@_0BO@MJEPEKGL@rain?3?5can?8t?5get?5water?5entity?6?$AA@ ; `string'
PUBLIC	??_C@_0CG@MNFPINEB@rain?3?5water?5is?5not?5func_water?5en@ ; `string'
PUBLIC	??_C@_0CC@ILHLDHGO@rain?3?5can?8t?5create?5drip?5in?5water@ ; `string'
PUBLIC	??_C@_0CC@OLLGANOB@rain?3?5failed?5to?5allocate?5object?$CB@ ; `string'
PUBLIC	??_C@_0BM@FMKNJMMG@rain?3?5Drip?5limit?5overflow?$CB?6?$AA@ ; `string'
PUBLIC	??_C@_0BM@DGLLEDDM@rain?5info?3?5Drips?5exist?3?5?$CFi?6?$AA@ ; `string'
PUBLIC	??_C@_0BL@LFBPKBHL@rain?5info?3?5FX?8s?5exist?3?5?$CFi?6?$AA@ ; `string'
PUBLIC	??_C@_0CG@PDEMFKPF@rain?5info?3?5Attempted?1Dropped?3?5?$CFi@ ; `string'
PUBLIC	??_C@_0CH@NEFABCL@rain?5info?3?5Average?5drip?5life?5tim@ ; `string'
PUBLIC	??_C@_0CH@LEDOELOF@rain?5info?3?5Average?5drip?5life?5tim@ ; `string'
PUBLIC	??_C@_0BK@HEHHBOBI@rain?3?5FX?5limit?5overflow?$CB?6?$AA@ ; `string'
PUBLIC	??_C@_0CF@LAPKHEFD@rain?3?5failed?5to?5allocate?5FX?5obje@ ; `string'
PUBLIC	??_C@_01GBGANLPD@0?$AA@				; `string'
PUBLIC	??_C@_0O@EKIBMLEM@cl_debug_rain?$AA@		; `string'
PUBLIC	??_C@_0BP@IKKCGABN@rain?3?5unable?5to?5read?5map?5name?6?$AA@ ; `string'
PUBLIC	??_C@_04GCJAGGFH@?4pcs?$AA@			; `string'
PUBLIC	??_C@_05EIIHFKFD@drips?$AA@			; `string'
PUBLIC	??_C@_08LHFODBFO@distance?$AA@			; `string'
PUBLIC	??_C@_05LPPJGGCL@windx?$AA@			; `string'
PUBLIC	??_C@_05KGOCFHGK@windy?$AA@			; `string'
PUBLIC	??_C@_05NPEELMFJ@randx?$AA@			; `string'
PUBLIC	??_C@_05MGFPINBI@randy?$AA@			; `string'
PUBLIC	??_C@_04GMGOKAFF@mode?$AA@			; `string'
PUBLIC	??_C@_06LNLHEAAG@height?$AA@			; `string'
PUBLIC	??_C@_0CD@OPENICNN@rain?3?5unknown?5token?5?$CFs?5in?5file?5?$CF@ ; `string'
PUBLIC	??_C@_0BF@LDGAMEKL@sprites?1raindrop?4spr?$AA@	; `string'
PUBLIC	??_C@_0BG@HIMOHDLA@sprites?1snowflake?4spr?$AA@	; `string'
PUBLIC	??_C@_0BG@ELFADAAO@sprites?1waterring?4spr?$AA@	; `string'
PUBLIC	__real@00000000
PUBLIC	__real@0000000000000000
PUBLIC	__real@3df5c28f
PUBLIC	__real@3e4ccccd
PUBLIC	__real@3f000000
PUBLIC	__real@3f19999a
PUBLIC	__real@3f333333
PUBLIC	__real@3f666666
PUBLIC	__real@3f800000
PUBLIC	__real@3fb99999a0000000
PUBLIC	__real@3ff0000000000000
PUBLIC	__real@4039000000000000
PUBLIC	__real@40400000
PUBLIC	__real@4069000000000000
PUBLIC	__real@406fe00000000000
PUBLIC	__real@40800000
PUBLIC	__real@408c200000000000
PUBLIC	__real@41000000
PUBLIC	__real@41d00000
PUBLIC	__real@42380000
PUBLIC	__real@42a00000
PUBLIC	__real@43480000
PUBLIC	__real@437f0000
PUBLIC	__real@44610000
PUBLIC	__real@451c4000
PUBLIC	__real@45800000
PUBLIC	__real@bf800000
PUBLIC	__real@c0400000
PUBLIC	__real@c5800000
EXTRN	??_U@YAPAXI@Z:PROC				; operator new[]
EXTRN	??_V@YAXPAX@Z:PROC				; operator delete[]
EXTRN	??_V@YAXPAXI@Z:PROC				; operator delete[]
EXTRN	_atexit:PROC
EXTRN	_memset:PROC
EXTRN	_sqrt:PROC
EXTRN	?ClearBounds@@YAXAAVVector@@0@Z:PROC		; ClearBounds
EXTRN	?Q_strlen@@YAHPBD@Z:PROC			; Q_strlen
EXTRN	?Q_strncpy@@YAIPADPBDI@Z:PROC			; Q_strncpy
EXTRN	?Q_atoi@@YAHPBD@Z:PROC				; Q_atoi
EXTRN	?Q_atof@@YAMPBD@Z:PROC				; Q_atof
EXTRN	?Q_strnicmp@@YAHPBD0H@Z:PROC			; Q_strnicmp
EXTRN	?COM_StripExtension@@YAXPAD@Z:PROC		; COM_StripExtension
EXTRN	?COM_DefaultExtension@@YAXPADPBD@Z:PROC		; COM_DefaultExtension
EXTRN	?COM_ParseFileExt@@YAPADPAD0J_N@Z:PROC		; COM_ParseFileExt
EXTRN	?ALERT@@YAXW4ALERT_TYPE@@PADZZ:PROC		; ALERT
EXTRN	?LoadSprite@@YAHPBD@Z:PROC			; LoadSprite
EXTRN	?Mod_BoxVisible@@YA_NVVector@@0PBE@Z:PROC	; Mod_BoxVisible
EXTRN	?READ_SHORT@@YAHXZ:PROC				; READ_SHORT
EXTRN	?READ_COORD@@YAMXZ:PROC				; READ_COORD
EXTRN	?CullSphere@CFrustum@@QAE_NABVVector@@MH@Z:PROC	; CFrustum::CullSphere
EXTRN	?GL_Support@@YA_NH@Z:PROC			; GL_Support
EXTRN	?GL_DepthMask@@YAXH@Z:PROC			; GL_DepthMask
EXTRN	?GL_AlphaTest@@YAXH@Z:PROC			; GL_AlphaTest
EXTRN	?GL_CleanupDrawState@@YAXXZ:PROC		; GL_CleanupDrawState
EXTRN	?DBG_DrawBBox@@YAXABVVector@@0@Z:PROC		; DBG_DrawBBox
EXTRN	?Mod_GetCurrentVis@@YAPAEXZ:PROC		; Mod_GetCurrentVis
EXTRN	@__security_check_cookie@4:PROC
EXTRN	___CxxFrameHandler3:PROC
EXTRN	?gEngfuncs@@3Ucl_enginefuncs_s@@A:BYTE		; gEngfuncs
EXTRN	?gHUD@@3VCHud@@A:BYTE				; gHUD
EXTRN	?pglDisableClientState@@3P6GXI@ZA:DWORD		; pglDisableClientState
EXTRN	?pglEnableClientState@@3P6GXI@ZA:DWORD		; pglEnableClientState
EXTRN	?pglDrawRangeElementsEXT@@3P6GXIIIHIPBX@ZA:DWORD ; pglDrawRangeElementsEXT
EXTRN	?pglDrawElements@@3P6GXIHIPBX@ZA:DWORD		; pglDrawElements
EXTRN	?pglVertexPointer@@3P6GXHIHPBX@ZA:DWORD		; pglVertexPointer
EXTRN	?pglColorPointer@@3P6GXHIHPBX@ZA:DWORD		; pglColorPointer
EXTRN	?pglTexCoordPointer@@3P6GXHIHPBX@ZA:DWORD	; pglTexCoordPointer
EXTRN	?RI@@3PAUref_instance_t@@A:DWORD		; RI
EXTRN	?tr@@3Uref_globals_t@@A:BYTE			; tr
EXTRN	?r_stats@@3Uref_stats_t@@A:BYTE			; r_stats
EXTRN	___security_cookie:DWORD
EXTRN	__fltused:DWORD
_BSS	SEGMENT
?g_dripsArray@@3V?$MemBlock@Ucl_drip@@@@A DB 010H DUP (?) ; g_dripsArray
?g_fxArray@@3V?$MemBlock@Ucl_rainfx@@@@A DB 010H DUP (?) ; g_fxArray
?rain_mins@@3VVector@@A DB 0cH DUP (?)			; rain_mins
?rain_maxs@@3VVector@@A DB 0cH DUP (?)			; rain_maxs
?m_vertexarray@@3PAVVector@@A DB 0c0000H DUP (?)	; m_vertexarray
?m_colorarray@@3PAY03EA DB 040020H DUP (?)		; m_colorarray
?m_coordsarray@@3PAVVector2D@@A DQ 010004H DUP (?)	; m_coordsarray
?m_indexarray@@3PAGA DW 040010H DUP (?)			; m_indexarray
?m_iNumVerts@@3HA DD 01H DUP (?)			; m_iNumVerts
?m_iNumIndex@@3HA DD 01H DUP (?)			; m_iNumIndex
_BSS	ENDS
CRT$XCU	SEGMENT
?g_dripsArray$initializer$@@3P6AXXZA DD FLAT:??__Eg_dripsArray@@YAXXZ ; g_dripsArray$initializer$
CRT$XCU	ENDS
;	COMDAT __real@c5800000
CONST	SEGMENT
__real@c5800000 DD 0c5800000r			; -4096
CONST	ENDS
;	COMDAT __real@c0400000
CONST	SEGMENT
__real@c0400000 DD 0c0400000r			; -3
CONST	ENDS
;	COMDAT __real@bf800000
CONST	SEGMENT
__real@bf800000 DD 0bf800000r			; -1
CONST	ENDS
;	COMDAT __real@45800000
CONST	SEGMENT
__real@45800000 DD 045800000r			; 4096
CONST	ENDS
;	COMDAT __real@451c4000
CONST	SEGMENT
__real@451c4000 DD 0451c4000r			; 2500
CONST	ENDS
;	COMDAT __real@44610000
CONST	SEGMENT
__real@44610000 DD 044610000r			; 900
CONST	ENDS
;	COMDAT __real@437f0000
CONST	SEGMENT
__real@437f0000 DD 0437f0000r			; 255
CONST	ENDS
;	COMDAT __real@43480000
CONST	SEGMENT
__real@43480000 DD 043480000r			; 200
CONST	ENDS
;	COMDAT __real@42a00000
CONST	SEGMENT
__real@42a00000 DD 042a00000r			; 80
CONST	ENDS
;	COMDAT __real@42380000
CONST	SEGMENT
__real@42380000 DD 042380000r			; 46
CONST	ENDS
;	COMDAT __real@41d00000
CONST	SEGMENT
__real@41d00000 DD 041d00000r			; 26
CONST	ENDS
;	COMDAT __real@41000000
CONST	SEGMENT
__real@41000000 DD 041000000r			; 8
CONST	ENDS
;	COMDAT __real@408c200000000000
CONST	SEGMENT
__real@408c200000000000 DQ 0408c200000000000r	; 900
CONST	ENDS
;	COMDAT __real@40800000
CONST	SEGMENT
__real@40800000 DD 040800000r			; 4
CONST	ENDS
;	COMDAT __real@406fe00000000000
CONST	SEGMENT
__real@406fe00000000000 DQ 0406fe00000000000r	; 255
CONST	ENDS
;	COMDAT __real@4069000000000000
CONST	SEGMENT
__real@4069000000000000 DQ 04069000000000000r	; 200
CONST	ENDS
;	COMDAT __real@40400000
CONST	SEGMENT
__real@40400000 DD 040400000r			; 3
CONST	ENDS
;	COMDAT __real@4039000000000000
CONST	SEGMENT
__real@4039000000000000 DQ 04039000000000000r	; 25
CONST	ENDS
;	COMDAT __real@3ff0000000000000
CONST	SEGMENT
__real@3ff0000000000000 DQ 03ff0000000000000r	; 1
CONST	ENDS
;	COMDAT __real@3fb99999a0000000
CONST	SEGMENT
__real@3fb99999a0000000 DQ 03fb99999a0000000r	; 0.1
CONST	ENDS
;	COMDAT __real@3f800000
CONST	SEGMENT
__real@3f800000 DD 03f800000r			; 1
CONST	ENDS
;	COMDAT __real@3f666666
CONST	SEGMENT
__real@3f666666 DD 03f666666r			; 0.9
CONST	ENDS
;	COMDAT __real@3f333333
CONST	SEGMENT
__real@3f333333 DD 03f333333r			; 0.7
CONST	ENDS
;	COMDAT __real@3f19999a
CONST	SEGMENT
__real@3f19999a DD 03f19999ar			; 0.6
CONST	ENDS
;	COMDAT __real@3f000000
CONST	SEGMENT
__real@3f000000 DD 03f000000r			; 0.5
CONST	ENDS
;	COMDAT __real@3e4ccccd
CONST	SEGMENT
__real@3e4ccccd DD 03e4ccccdr			; 0.2
CONST	ENDS
;	COMDAT __real@3df5c28f
CONST	SEGMENT
__real@3df5c28f DD 03df5c28fr			; 0.12
CONST	ENDS
;	COMDAT __real@0000000000000000
CONST	SEGMENT
__real@0000000000000000 DQ 00000000000000000r	; 0
CONST	ENDS
;	COMDAT __real@00000000
CONST	SEGMENT
__real@00000000 DD 000000000r			; 0
CONST	ENDS
;	COMDAT ??_C@_0BG@ELFADAAO@sprites?1waterring?4spr?$AA@
CONST	SEGMENT
??_C@_0BG@ELFADAAO@sprites?1waterring?4spr?$AA@ DB 'sprites/waterring.spr'
	DB	00H						; `string'
CONST	ENDS
;	COMDAT ??_C@_0BG@HIMOHDLA@sprites?1snowflake?4spr?$AA@
CONST	SEGMENT
??_C@_0BG@HIMOHDLA@sprites?1snowflake?4spr?$AA@ DB 'sprites/snowflake.spr'
	DB	00H						; `string'
CONST	ENDS
;	COMDAT ??_C@_0BF@LDGAMEKL@sprites?1raindrop?4spr?$AA@
CONST	SEGMENT
??_C@_0BF@LDGAMEKL@sprites?1raindrop?4spr?$AA@ DB 'sprites/raindrop.spr', 00H ; `string'
CONST	ENDS
;	COMDAT ??_C@_0CD@OPENICNN@rain?3?5unknown?5token?5?$CFs?5in?5file?5?$CF@
CONST	SEGMENT
??_C@_0CD@OPENICNN@rain?3?5unknown?5token?5?$CFs?5in?5file?5?$CF@ DB 'rai'
	DB	'n: unknown token %s in file %s', 0aH, 00H	; `string'
CONST	ENDS
;	COMDAT ??_C@_06LNLHEAAG@height?$AA@
CONST	SEGMENT
??_C@_06LNLHEAAG@height?$AA@ DB 'height', 00H		; `string'
CONST	ENDS
;	COMDAT ??_C@_04GMGOKAFF@mode?$AA@
CONST	SEGMENT
??_C@_04GMGOKAFF@mode?$AA@ DB 'mode', 00H		; `string'
CONST	ENDS
;	COMDAT ??_C@_05MGFPINBI@randy?$AA@
CONST	SEGMENT
??_C@_05MGFPINBI@randy?$AA@ DB 'randy', 00H		; `string'
CONST	ENDS
;	COMDAT ??_C@_05NPEELMFJ@randx?$AA@
CONST	SEGMENT
??_C@_05NPEELMFJ@randx?$AA@ DB 'randx', 00H		; `string'
CONST	ENDS
;	COMDAT ??_C@_05KGOCFHGK@windy?$AA@
CONST	SEGMENT
??_C@_05KGOCFHGK@windy?$AA@ DB 'windy', 00H		; `string'
CONST	ENDS
;	COMDAT ??_C@_05LPPJGGCL@windx?$AA@
CONST	SEGMENT
??_C@_05LPPJGGCL@windx?$AA@ DB 'windx', 00H		; `string'
CONST	ENDS
;	COMDAT ??_C@_08LHFODBFO@distance?$AA@
CONST	SEGMENT
??_C@_08LHFODBFO@distance?$AA@ DB 'distance', 00H	; `string'
CONST	ENDS
;	COMDAT ??_C@_05EIIHFKFD@drips?$AA@
CONST	SEGMENT
??_C@_05EIIHFKFD@drips?$AA@ DB 'drips', 00H		; `string'
CONST	ENDS
;	COMDAT ??_C@_04GCJAGGFH@?4pcs?$AA@
CONST	SEGMENT
??_C@_04GCJAGGFH@?4pcs?$AA@ DB '.pcs', 00H		; `string'
CONST	ENDS
;	COMDAT ??_C@_0BP@IKKCGABN@rain?3?5unable?5to?5read?5map?5name?6?$AA@
CONST	SEGMENT
??_C@_0BP@IKKCGABN@rain?3?5unable?5to?5read?5map?5name?6?$AA@ DB 'rain: u'
	DB	'nable to read map name', 0aH, 00H		; `string'
CONST	ENDS
;	COMDAT ??_C@_0O@EKIBMLEM@cl_debug_rain?$AA@
CONST	SEGMENT
??_C@_0O@EKIBMLEM@cl_debug_rain?$AA@ DB 'cl_debug_rain', 00H ; `string'
CONST	ENDS
;	COMDAT ??_C@_01GBGANLPD@0?$AA@
CONST	SEGMENT
??_C@_01GBGANLPD@0?$AA@ DB '0', 00H			; `string'
CONST	ENDS
;	COMDAT ??_C@_0CF@LAPKHEFD@rain?3?5failed?5to?5allocate?5FX?5obje@
CONST	SEGMENT
??_C@_0CF@LAPKHEFD@rain?3?5failed?5to?5allocate?5FX?5obje@ DB 'rain: fail'
	DB	'ed to allocate FX object!', 0aH, 00H	; `string'
CONST	ENDS
;	COMDAT ??_C@_0BK@HEHHBOBI@rain?3?5FX?5limit?5overflow?$CB?6?$AA@
CONST	SEGMENT
??_C@_0BK@HEHHBOBI@rain?3?5FX?5limit?5overflow?$CB?6?$AA@ DB 'rain: FX li'
	DB	'mit overflow!', 0aH, 00H			; `string'
CONST	ENDS
;	COMDAT ??_C@_0CH@LEDOELOF@rain?5info?3?5Average?5drip?5life?5tim@
CONST	SEGMENT
??_C@_0CH@LEDOELOF@rain?5info?3?5Average?5drip?5life?5tim@ DB 'rain info:'
	DB	' Average drip life time: --', 0aH, 00H	; `string'
CONST	ENDS
;	COMDAT ??_C@_0CH@NEFABCL@rain?5info?3?5Average?5drip?5life?5tim@
CONST	SEGMENT
??_C@_0CH@NEFABCL@rain?5info?3?5Average?5drip?5life?5tim@ DB 'rain info: '
	DB	'Average drip life time: %f', 0aH, 00H	; `string'
CONST	ENDS
;	COMDAT ??_C@_0CG@PDEMFKPF@rain?5info?3?5Attempted?1Dropped?3?5?$CFi@
CONST	SEGMENT
??_C@_0CG@PDEMFKPF@rain?5info?3?5Attempted?1Dropped?3?5?$CFi@ DB 'rain in'
	DB	'fo: Attempted/Dropped: %i, %i', 0aH, 00H	; `string'
CONST	ENDS
;	COMDAT ??_C@_0BL@LFBPKBHL@rain?5info?3?5FX?8s?5exist?3?5?$CFi?6?$AA@
CONST	SEGMENT
??_C@_0BL@LFBPKBHL@rain?5info?3?5FX?8s?5exist?3?5?$CFi?6?$AA@ DB 'rain in'
	DB	'fo: FX''s exist: %i', 0aH, 00H		; `string'
CONST	ENDS
;	COMDAT ??_C@_0BM@DGLLEDDM@rain?5info?3?5Drips?5exist?3?5?$CFi?6?$AA@
CONST	SEGMENT
??_C@_0BM@DGLLEDDM@rain?5info?3?5Drips?5exist?3?5?$CFi?6?$AA@ DB 'rain in'
	DB	'fo: Drips exist: %i', 0aH, 00H		; `string'
CONST	ENDS
;	COMDAT ??_C@_0BM@FMKNJMMG@rain?3?5Drip?5limit?5overflow?$CB?6?$AA@
CONST	SEGMENT
??_C@_0BM@FMKNJMMG@rain?3?5Drip?5limit?5overflow?$CB?6?$AA@ DB 'rain: Dri'
	DB	'p limit overflow!', 0aH, 00H		; `string'
CONST	ENDS
;	COMDAT ??_C@_0CC@OLLGANOB@rain?3?5failed?5to?5allocate?5object?$CB@
CONST	SEGMENT
??_C@_0CC@OLLGANOB@rain?3?5failed?5to?5allocate?5object?$CB@ DB 'rain: fa'
	DB	'iled to allocate object!', 0aH, 00H		; `string'
CONST	ENDS
;	COMDAT ??_C@_0CC@ILHLDHGO@rain?3?5can?8t?5create?5drip?5in?5water@
CONST	SEGMENT
??_C@_0CC@ILHLDHGO@rain?3?5can?8t?5create?5drip?5in?5water@ DB 'rain: can'
	DB	'''t create drip in water', 0aH, 00H		; `string'
CONST	ENDS
;	COMDAT ??_C@_0CG@MNFPINEB@rain?3?5water?5is?5not?5func_water?5en@
CONST	SEGMENT
??_C@_0CG@MNFPINEB@rain?3?5water?5is?5not?5func_water?5en@ DB 'rain: wate'
	DB	'r is not func_water entity', 0aH, 00H	; `string'
CONST	ENDS
;	COMDAT ??_C@_0BO@MJEPEKGL@rain?3?5can?8t?5get?5water?5entity?6?$AA@
CONST	SEGMENT
??_C@_0BO@MJEPEKGL@rain?3?5can?8t?5get?5water?5entity?6?$AA@ DB 'rain: ca'
	DB	'n''t get water entity', 0aH, 00H		; `string'
CONST	ENDS
;	COMDAT ??_C@_0CI@CILLMKND@rain?3?5failed?5to?5allocate?5memory?5@
CONST	SEGMENT
??_C@_0CI@CILLMKND@rain?3?5failed?5to?5allocate?5memory?5@ DB 'rain: fail'
	DB	'ed to allocate memory block!', 0aH, 00H	; `string'
CONST	ENDS
;	COMDAT xdata$x
xdata$x	SEGMENT
__unwindtable$??0?$MemBlock@Ucl_rainfx@@@@QAE@H@Z DD 0ffffffffH
	DD	FLAT:__unwindfunclet$??0?$MemBlock@Ucl_rainfx@@@@QAE@H@Z$0
__ehfuncinfo$??0?$MemBlock@Ucl_rainfx@@@@QAE@H@Z DD 019930522H
	DD	01H
	DD	FLAT:__unwindtable$??0?$MemBlock@Ucl_rainfx@@@@QAE@H@Z
	DD	2 DUP(00H)
	DD	2 DUP(00H)
	DD	00H
	DD	01H
xdata$x	ENDS
;	COMDAT xdata$x
xdata$x	SEGMENT
__unwindtable$??0?$MemBlock@Ucl_drip@@@@QAE@H@Z DD 0ffffffffH
	DD	FLAT:__unwindfunclet$??0?$MemBlock@Ucl_drip@@@@QAE@H@Z$0
__ehfuncinfo$??0?$MemBlock@Ucl_drip@@@@QAE@H@Z DD 019930522H
	DD	01H
	DD	FLAT:__unwindtable$??0?$MemBlock@Ucl_drip@@@@QAE@H@Z
	DD	2 DUP(00H)
	DD	2 DUP(00H)
	DD	00H
	DD	01H
xdata$x	ENDS
CRT$XCU	SEGMENT
?g_fxArray$initializer$@@3P6AXXZA DD FLAT:??__Eg_fxArray@@YAXXZ ; g_fxArray$initializer$
CRT$XCU	ENDS
CRT$XCU	SEGMENT
?rain_mins$initializer$@@3P6AXXZA DD FLAT:??__Erain_mins@@YAXXZ ; rain_mins$initializer$
CRT$XCU	ENDS
CRT$XCU	SEGMENT
?rain_maxs$initializer$@@3P6AXXZA DD FLAT:??__Erain_maxs@@YAXXZ ; rain_maxs$initializer$
CRT$XCU	ENDS
CRT$XCU	SEGMENT
?m_vertexarray$initializer$@@3P6AXXZA DD FLAT:??__Em_vertexarray@@YAXXZ ; m_vertexarray$initializer$
CRT$XCU	ENDS
CRT$XCU	SEGMENT
?m_coordsarray$initializer$@@3P6AXXZA DD FLAT:??__Em_coordsarray@@YAXXZ ; m_coordsarray$initializer$
CRT$XCU	ENDS
; Function compile flags: /Odtp /ZI
;	COMDAT ??0chunk_s@?$MemBlock@Ucl_drip@@@@QAE@XZ
_TEXT	SEGMENT
_this$ = -4						; size = 4
??0chunk_s@?$MemBlock@Ucl_drip@@@@QAE@XZ PROC		; MemBlock<cl_drip>::chunk_s::chunk_s, COMDAT
; _this$ = ecx
	push	ebp
	mov	ebp, esp
	sub	esp, 68					; 00000044H
	push	ebx
	push	esi
	push	edi
	mov	DWORD PTR _this$[ebp], ecx
	mov	ecx, DWORD PTR _this$[ebp]
	add	ecx, 4
	call	??0cl_drip@@QAE@XZ
	mov	eax, DWORD PTR _this$[ebp]
	pop	edi
	pop	esi
	pop	ebx
	mov	esp, ebp
	pop	ebp
	ret	0
??0chunk_s@?$MemBlock@Ucl_drip@@@@QAE@XZ ENDP		; MemBlock<cl_drip>::chunk_s::chunk_s
_TEXT	ENDS
; Function compile flags: /Odtp /ZI
;	COMDAT ??0chunk_s@?$MemBlock@Ucl_rainfx@@@@QAE@XZ
_TEXT	SEGMENT
_this$ = -4						; size = 4
??0chunk_s@?$MemBlock@Ucl_rainfx@@@@QAE@XZ PROC		; MemBlock<cl_rainfx>::chunk_s::chunk_s, COMDAT
; _this$ = ecx
	push	ebp
	mov	ebp, esp
	sub	esp, 68					; 00000044H
	push	ebx
	push	esi
	push	edi
	mov	DWORD PTR _this$[ebp], ecx
	mov	ecx, DWORD PTR _this$[ebp]
	add	ecx, 4
	call	??0cl_rainfx@@QAE@XZ
	mov	eax, DWORD PTR _this$[ebp]
	pop	edi
	pop	esi
	pop	ebx
	mov	esp, ebp
	pop	ebp
	ret	0
??0chunk_s@?$MemBlock@Ucl_rainfx@@@@QAE@XZ ENDP		; MemBlock<cl_rainfx>::chunk_s::chunk_s
_TEXT	ENDS
; Function compile flags: /Odtp /ZI
; File d:\!diffusion 2020\source code 2022\client-server\client\render\r_weather.cpp
;	COMDAT ?DrawFXObjects@@YAXXZ
_TEXT	SEGMENT
$T1 = -132						; size = 12
$T2 = -120						; size = 12
$T3 = -108						; size = 12
$T4 = -96						; size = 12
_size$5 = -20						; size = 4
_alpha$6 = -13						; size = 1
_curFX$ = -12						; size = 4
_pTexture$ = -8						; size = 4
_hsprTexture$ = -4					; size = 4
?DrawFXObjects@@YAXXZ PROC				; DrawFXObjects, COMDAT

; 742  : {

	push	ebp
	mov	ebp, esp
	sub	esp, 132				; 00000084H
	push	ebx
	push	esi
	push	edi

; 743  : 	if( g_fxArray.IsClear( ))

	mov	ecx, OFFSET ?g_fxArray@@3V?$MemBlock@Ucl_rainfx@@@@A ; g_fxArray
	call	?IsClear@?$MemBlock@Ucl_rainfx@@@@QAE_NXZ ; MemBlock<cl_rainfx>::IsClear
	movzx	eax, al
	test	eax, eax
	je	SHORT $LN4@DrawFXObje

; 744  : 		return; // no objects to draw

	jmp	$LN1@DrawFXObje
$LN4@DrawFXObje:

; 745  : 
; 746  : 	SpriteHandle hsprTexture;
; 747  : 
; 748  : 	hsprTexture = LoadSprite( "sprites/waterring.spr" ); // load water ring sprite

	push	OFFSET ??_C@_0BG@ELFADAAO@sprites?1waterring?4spr?$AA@
	call	?LoadSprite@@YAHPBD@Z			; LoadSprite
	add	esp, 4
	mov	DWORD PTR _hsprTexture$[ebp], eax

; 749  : 	if( !hsprTexture ) return;

	cmp	DWORD PTR _hsprTexture$[ebp], 0
	jne	SHORT $LN5@DrawFXObje
	jmp	$LN1@DrawFXObje
$LN5@DrawFXObje:

; 750  : 
; 751  : 	const model_s *pTexture = gEngfuncs.GetSpritePointer( hsprTexture );

	mov	eax, DWORD PTR _hsprTexture$[ebp]
	push	eax
	call	DWORD PTR ?gEngfuncs@@3Ucl_enginefuncs_s@@A+248
	add	esp, 4
	mov	DWORD PTR _pTexture$[ebp], eax

; 752  : 	if( !gEngfuncs.pTriAPI->SpriteTexture(( struct model_s *)pTexture, 0 ))

	push	0
	mov	eax, DWORD PTR _pTexture$[ebp]
	push	eax
	mov	ecx, DWORD PTR ?gEngfuncs@@3Ucl_enginefuncs_s@@A+328
	mov	edx, DWORD PTR [ecx+44]
	call	edx
	add	esp, 8
	test	eax, eax
	jne	SHORT $LN6@DrawFXObje

; 753  : 		return;

	jmp	$LN1@DrawFXObje
$LN6@DrawFXObje:

; 754  : 
; 755  : 	gEngfuncs.pTriAPI->RenderMode( kRenderTransAdd );

	push	5
	mov	eax, DWORD PTR ?gEngfuncs@@3Ucl_enginefuncs_s@@A+328
	mov	ecx, DWORD PTR [eax+4]
	call	ecx
	add	esp, 4

; 756  : 	gEngfuncs.pTriAPI->CullFace( TRI_NONE ); // because we also want to view water rings underwater

	push	1
	mov	eax, DWORD PTR ?gEngfuncs@@3Ucl_enginefuncs_s@@A+328
	mov	ecx, DWORD PTR [eax+40]
	call	ecx
	add	esp, 4

; 757  : 	
; 758  : 	// go through objects list
; 759  : 	g_fxArray.StartPass();

	mov	ecx, OFFSET ?g_fxArray@@3V?$MemBlock@Ucl_rainfx@@@@A ; g_fxArray
	call	?StartPass@?$MemBlock@Ucl_rainfx@@@@QAE_NXZ ; MemBlock<cl_rainfx>::StartPass

; 760  : 	cl_rainfx *curFX = g_fxArray.GetCurrent();

	mov	ecx, OFFSET ?g_fxArray@@3V?$MemBlock@Ucl_rainfx@@@@A ; g_fxArray
	call	?GetCurrent@?$MemBlock@Ucl_rainfx@@@@QAEPAUcl_rainfx@@XZ ; MemBlock<cl_rainfx>::GetCurrent
	mov	DWORD PTR _curFX$[ebp], eax

; 761  : 
; 762  : 	m_iNumVerts = m_iNumIndex = 0;

	mov	DWORD PTR ?m_iNumIndex@@3HA, 0
	mov	eax, DWORD PTR ?m_iNumIndex@@3HA
	mov	DWORD PTR ?m_iNumVerts@@3HA, eax

; 763  : 
; 764  : 	pglEnableClientState( GL_VERTEX_ARRAY );

	push	32884					; 00008074H
	call	DWORD PTR ?pglEnableClientState@@3P6GXI@ZA ; pglEnableClientState

; 765  : 	pglVertexPointer( 3, GL_FLOAT, 0, m_vertexarray );

	push	OFFSET ?m_vertexarray@@3PAVVector@@A
	push	0
	push	5126					; 00001406H
	push	3
	call	DWORD PTR ?pglVertexPointer@@3P6GXHIHPBX@ZA ; pglVertexPointer

; 766  : 
; 767  : 	pglEnableClientState( GL_TEXTURE_COORD_ARRAY );

	push	32888					; 00008078H
	call	DWORD PTR ?pglEnableClientState@@3P6GXI@ZA ; pglEnableClientState

; 768  : 	pglTexCoordPointer( 2, GL_FLOAT, 0, m_coordsarray );

	push	OFFSET ?m_coordsarray@@3PAVVector2D@@A
	push	0
	push	5126					; 00001406H
	push	2
	call	DWORD PTR ?pglTexCoordPointer@@3P6GXHIHPBX@ZA ; pglTexCoordPointer

; 769  : 
; 770  : 	pglEnableClientState( GL_COLOR_ARRAY );

	push	32886					; 00008076H
	call	DWORD PTR ?pglEnableClientState@@3P6GXI@ZA ; pglEnableClientState

; 771  : 	pglColorPointer( 4, GL_UNSIGNED_BYTE, 0, m_colorarray );

	push	OFFSET ?m_colorarray@@3PAY03EA
	push	0
	push	5121					; 00001401H
	push	4
	call	DWORD PTR ?pglColorPointer@@3P6GXHIHPBX@ZA ; pglColorPointer
$LN15@DrawFXObje:

; 772  : 
; 773  : 	while( curFX != NULL )

	cmp	DWORD PTR _curFX$[ebp], 0
	je	$LN3@DrawFXObje

; 774  : 	{
; 775  : 		if(( m_iNumVerts + 4 ) >= MAX_RAIN_VERTICES )

	mov	eax, DWORD PTR ?m_iNumVerts@@3HA
	add	eax, 4
	cmp	eax, 65536				; 00010000H
	jl	$LN7@DrawFXObje

; 776  : 		{
; 777  : 			// it's time to flush
; 778  : 			if( GL_Support( R_DRAW_RANGEELEMENTS_EXT ))

	push	11					; 0000000bH
	call	?GL_Support@@YA_NH@Z			; GL_Support
	add	esp, 4
	movzx	eax, al
	test	eax, eax
	je	SHORT $LN8@DrawFXObje

; 779  : 				pglDrawRangeElementsEXT( GL_QUADS, 0, m_iNumVerts, m_iNumIndex, GL_UNSIGNED_SHORT, m_indexarray );

	push	OFFSET ?m_indexarray@@3PAGA
	push	5123					; 00001403H
	mov	eax, DWORD PTR ?m_iNumIndex@@3HA
	push	eax
	mov	ecx, DWORD PTR ?m_iNumVerts@@3HA
	push	ecx
	push	0
	push	7
	call	DWORD PTR ?pglDrawRangeElementsEXT@@3P6GXIIIHIPBX@ZA ; pglDrawRangeElementsEXT
	jmp	SHORT $LN9@DrawFXObje
$LN8@DrawFXObje:

; 780  : 			else pglDrawElements( GL_QUADS, m_iNumIndex, GL_UNSIGNED_SHORT, m_indexarray );

	push	OFFSET ?m_indexarray@@3PAGA
	push	5123					; 00001403H
	mov	eax, DWORD PTR ?m_iNumIndex@@3HA
	push	eax
	push	7
	call	DWORD PTR ?pglDrawElements@@3P6GXIHIPBX@ZA ; pglDrawElements
$LN9@DrawFXObje:

; 781  : 			r_stats.c_total_tris += (m_iNumVerts / 2);

	mov	eax, DWORD PTR ?m_iNumVerts@@3HA
	cdq
	sub	eax, edx
	sar	eax, 1
	add	eax, DWORD PTR ?r_stats@@3Uref_stats_t@@A+60
	mov	DWORD PTR ?r_stats@@3Uref_stats_t@@A+60, eax

; 782  : 			m_iNumVerts = m_iNumIndex = 0;

	mov	DWORD PTR ?m_iNumIndex@@3HA, 0
	mov	eax, DWORD PTR ?m_iNumIndex@@3HA
	mov	DWORD PTR ?m_iNumVerts@@3HA, eax

; 783  : 			r_stats.num_flushes++;

	mov	eax, DWORD PTR ?r_stats@@3Uref_stats_t@@A+88
	add	eax, 1
	mov	DWORD PTR ?r_stats@@3Uref_stats_t@@A+88, eax
$LN7@DrawFXObje:

; 784  : 		}
; 785  : 
; 786  : 		// cull invisible rings
; 787  : 		if( R_CullSphere( curFX->origin, MAX_RING_HALFSIZE + 1 ))

	push	0
	push	ecx
	movss	xmm0, DWORD PTR __real@41d00000
	movss	DWORD PTR [esp], xmm0
	mov	eax, DWORD PTR _curFX$[ebp]
	add	eax, 8
	push	eax
	mov	ecx, DWORD PTR ?RI@@3PAUref_instance_t@@A ; RI
	add	ecx, 48					; 00000030H
	call	?CullSphere@CFrustum@@QAE_NABVVector@@MH@Z ; CFrustum::CullSphere
	movzx	ecx, al
	test	ecx, ecx
	je	SHORT $LN10@DrawFXObje

; 788  : 		{
; 789  : 			g_fxArray.MoveNext();

	mov	ecx, OFFSET ?g_fxArray@@3V?$MemBlock@Ucl_rainfx@@@@A ; g_fxArray
	call	?MoveNext@?$MemBlock@Ucl_rainfx@@@@QAEXXZ ; MemBlock<cl_rainfx>::MoveNext

; 790  : 			curFX = g_fxArray.GetCurrent();

	mov	ecx, OFFSET ?g_fxArray@@3V?$MemBlock@Ucl_rainfx@@@@A ; g_fxArray
	call	?GetCurrent@?$MemBlock@Ucl_rainfx@@@@QAEPAUcl_rainfx@@XZ ; MemBlock<cl_rainfx>::GetCurrent
	mov	DWORD PTR _curFX$[ebp], eax

; 791  : 			continue;

	jmp	$LN15@DrawFXObje
$LN10@DrawFXObje:

; 792  : 		}
; 793  : 					
; 794  : 		// fadeout
; 795  : 		byte alpha = (((curFX->birthTime + curFX->life - rain_curtime) / curFX->life) * curFX->alpha) * 255;

	mov	eax, DWORD PTR _curFX$[ebp]
	mov	ecx, DWORD PTR _curFX$[ebp]
	movss	xmm0, DWORD PTR [eax]
	addss	xmm0, DWORD PTR [ecx+4]
	cvtss2sd xmm0, xmm0
	subsd	xmm0, QWORD PTR ?rain_curtime@@3NA
	mov	edx, DWORD PTR _curFX$[ebp]
	cvtss2sd xmm1, DWORD PTR [edx+4]
	divsd	xmm0, xmm1
	mov	eax, DWORD PTR _curFX$[ebp]
	cvtss2sd xmm1, DWORD PTR [eax+20]
	mulsd	xmm0, xmm1
	mulsd	xmm0, QWORD PTR __real@406fe00000000000
	cvttsd2si ecx, xmm0
	mov	BYTE PTR _alpha$6[ebp], cl

; 796  : 		float size = (rain_curtime - curFX->birthTime) * MAX_RING_HALFSIZE;

	mov	eax, DWORD PTR _curFX$[ebp]
	cvtss2sd xmm0, DWORD PTR [eax]
	movsd	xmm1, QWORD PTR ?rain_curtime@@3NA
	subsd	xmm1, xmm0
	mulsd	xmm1, QWORD PTR __real@4039000000000000
	cvtsd2ss xmm0, xmm1
	movss	DWORD PTR _size$5[ebp], xmm0

; 797  : 
; 798  : 		m_coordsarray[m_iNumVerts].x = 0.0f;

	mov	eax, DWORD PTR ?m_iNumVerts@@3HA
	xorps	xmm0, xmm0
	movss	DWORD PTR ?m_coordsarray@@3PAVVector2D@@A[eax*8], xmm0

; 799  : 		m_coordsarray[m_iNumVerts].y = 0.0f;

	mov	eax, DWORD PTR ?m_iNumVerts@@3HA
	xorps	xmm0, xmm0
	movss	DWORD PTR ?m_coordsarray@@3PAVVector2D@@A[eax*8+4], xmm0

; 800  : 		m_colorarray[m_iNumVerts][0] = 255;

	mov	eax, 1
	imul	ecx, eax, 0
	mov	edx, DWORD PTR ?m_iNumVerts@@3HA
	mov	BYTE PTR ?m_colorarray@@3PAY03EA[ecx+edx*4], 255 ; 000000ffH

; 801  : 		m_colorarray[m_iNumVerts][1] = 255;

	mov	eax, 1
	shl	eax, 0
	mov	ecx, DWORD PTR ?m_iNumVerts@@3HA
	mov	BYTE PTR ?m_colorarray@@3PAY03EA[eax+ecx*4], 255 ; 000000ffH

; 802  : 		m_colorarray[m_iNumVerts][2] = 255;

	mov	eax, 1
	shl	eax, 1
	mov	ecx, DWORD PTR ?m_iNumVerts@@3HA
	mov	BYTE PTR ?m_colorarray@@3PAY03EA[eax+ecx*4], 255 ; 000000ffH

; 803  : 		m_colorarray[m_iNumVerts][3] = alpha;

	mov	eax, 1
	imul	ecx, eax, 3
	mov	edx, DWORD PTR ?m_iNumVerts@@3HA
	mov	al, BYTE PTR _alpha$6[ebp]
	mov	BYTE PTR ?m_colorarray@@3PAY03EA[ecx+edx*4], al

; 804  : 		m_vertexarray[m_iNumVerts] = Vector( curFX->origin.x - size, curFX->origin.y - size, curFX->origin.z );

	mov	eax, DWORD PTR _curFX$[ebp]
	push	ecx
	movss	xmm0, DWORD PTR [eax+16]
	movss	DWORD PTR [esp], xmm0
	mov	ecx, DWORD PTR _curFX$[ebp]
	movss	xmm0, DWORD PTR [ecx+12]
	subss	xmm0, DWORD PTR _size$5[ebp]
	push	ecx
	movss	DWORD PTR [esp], xmm0
	mov	edx, DWORD PTR _curFX$[ebp]
	movss	xmm0, DWORD PTR [edx+8]
	subss	xmm0, DWORD PTR _size$5[ebp]
	push	ecx
	movss	DWORD PTR [esp], xmm0
	lea	ecx, DWORD PTR $T4[ebp]
	call	??0Vector@@QAE@MMM@Z			; Vector::Vector
	imul	ecx, DWORD PTR ?m_iNumVerts@@3HA, 12
	add	ecx, OFFSET ?m_vertexarray@@3PAVVector@@A
	mov	edx, DWORD PTR [eax]
	mov	DWORD PTR [ecx], edx
	mov	edx, DWORD PTR [eax+4]
	mov	DWORD PTR [ecx+4], edx
	mov	eax, DWORD PTR [eax+8]
	mov	DWORD PTR [ecx+8], eax

; 805  : 		m_indexarray[m_iNumIndex++] = m_iNumVerts++;

	mov	eax, DWORD PTR ?m_iNumIndex@@3HA
	mov	cx, WORD PTR ?m_iNumVerts@@3HA
	mov	WORD PTR ?m_indexarray@@3PAGA[eax*2], cx
	mov	edx, DWORD PTR ?m_iNumIndex@@3HA
	add	edx, 1
	mov	DWORD PTR ?m_iNumIndex@@3HA, edx
	mov	eax, DWORD PTR ?m_iNumVerts@@3HA
	add	eax, 1
	mov	DWORD PTR ?m_iNumVerts@@3HA, eax

; 806  : 
; 807  : 		m_coordsarray[m_iNumVerts].x = 0.0f;

	mov	eax, DWORD PTR ?m_iNumVerts@@3HA
	xorps	xmm0, xmm0
	movss	DWORD PTR ?m_coordsarray@@3PAVVector2D@@A[eax*8], xmm0

; 808  : 		m_coordsarray[m_iNumVerts].y = 1.0f;

	mov	eax, DWORD PTR ?m_iNumVerts@@3HA
	movss	xmm0, DWORD PTR __real@3f800000
	movss	DWORD PTR ?m_coordsarray@@3PAVVector2D@@A[eax*8+4], xmm0

; 809  : 		m_colorarray[m_iNumVerts][0] = 255;

	mov	eax, 1
	imul	ecx, eax, 0
	mov	edx, DWORD PTR ?m_iNumVerts@@3HA
	mov	BYTE PTR ?m_colorarray@@3PAY03EA[ecx+edx*4], 255 ; 000000ffH

; 810  : 		m_colorarray[m_iNumVerts][1] = 255;

	mov	eax, 1
	shl	eax, 0
	mov	ecx, DWORD PTR ?m_iNumVerts@@3HA
	mov	BYTE PTR ?m_colorarray@@3PAY03EA[eax+ecx*4], 255 ; 000000ffH

; 811  : 		m_colorarray[m_iNumVerts][2] = 255;

	mov	eax, 1
	shl	eax, 1
	mov	ecx, DWORD PTR ?m_iNumVerts@@3HA
	mov	BYTE PTR ?m_colorarray@@3PAY03EA[eax+ecx*4], 255 ; 000000ffH

; 812  : 		m_colorarray[m_iNumVerts][3] = alpha;

	mov	eax, 1
	imul	ecx, eax, 3
	mov	edx, DWORD PTR ?m_iNumVerts@@3HA
	mov	al, BYTE PTR _alpha$6[ebp]
	mov	BYTE PTR ?m_colorarray@@3PAY03EA[ecx+edx*4], al

; 813  : 		m_vertexarray[m_iNumVerts] = Vector( curFX->origin.x - size, curFX->origin.y + size, curFX->origin.z );

	mov	eax, DWORD PTR _curFX$[ebp]
	push	ecx
	movss	xmm0, DWORD PTR [eax+16]
	movss	DWORD PTR [esp], xmm0
	mov	ecx, DWORD PTR _curFX$[ebp]
	movss	xmm0, DWORD PTR [ecx+12]
	addss	xmm0, DWORD PTR _size$5[ebp]
	push	ecx
	movss	DWORD PTR [esp], xmm0
	mov	edx, DWORD PTR _curFX$[ebp]
	movss	xmm0, DWORD PTR [edx+8]
	subss	xmm0, DWORD PTR _size$5[ebp]
	push	ecx
	movss	DWORD PTR [esp], xmm0
	lea	ecx, DWORD PTR $T3[ebp]
	call	??0Vector@@QAE@MMM@Z			; Vector::Vector
	imul	ecx, DWORD PTR ?m_iNumVerts@@3HA, 12
	add	ecx, OFFSET ?m_vertexarray@@3PAVVector@@A
	mov	edx, DWORD PTR [eax]
	mov	DWORD PTR [ecx], edx
	mov	edx, DWORD PTR [eax+4]
	mov	DWORD PTR [ecx+4], edx
	mov	eax, DWORD PTR [eax+8]
	mov	DWORD PTR [ecx+8], eax

; 814  : 		m_indexarray[m_iNumIndex++] = m_iNumVerts++;

	mov	eax, DWORD PTR ?m_iNumIndex@@3HA
	mov	cx, WORD PTR ?m_iNumVerts@@3HA
	mov	WORD PTR ?m_indexarray@@3PAGA[eax*2], cx
	mov	edx, DWORD PTR ?m_iNumIndex@@3HA
	add	edx, 1
	mov	DWORD PTR ?m_iNumIndex@@3HA, edx
	mov	eax, DWORD PTR ?m_iNumVerts@@3HA
	add	eax, 1
	mov	DWORD PTR ?m_iNumVerts@@3HA, eax

; 815  : 
; 816  : 		m_coordsarray[m_iNumVerts].x = 1.0f;

	mov	eax, DWORD PTR ?m_iNumVerts@@3HA
	movss	xmm0, DWORD PTR __real@3f800000
	movss	DWORD PTR ?m_coordsarray@@3PAVVector2D@@A[eax*8], xmm0

; 817  : 		m_coordsarray[m_iNumVerts].y = 1.0f;

	mov	eax, DWORD PTR ?m_iNumVerts@@3HA
	movss	xmm0, DWORD PTR __real@3f800000
	movss	DWORD PTR ?m_coordsarray@@3PAVVector2D@@A[eax*8+4], xmm0

; 818  : 		m_colorarray[m_iNumVerts][0] = 255;

	mov	eax, 1
	imul	ecx, eax, 0
	mov	edx, DWORD PTR ?m_iNumVerts@@3HA
	mov	BYTE PTR ?m_colorarray@@3PAY03EA[ecx+edx*4], 255 ; 000000ffH

; 819  : 		m_colorarray[m_iNumVerts][1] = 255;

	mov	eax, 1
	shl	eax, 0
	mov	ecx, DWORD PTR ?m_iNumVerts@@3HA
	mov	BYTE PTR ?m_colorarray@@3PAY03EA[eax+ecx*4], 255 ; 000000ffH

; 820  : 		m_colorarray[m_iNumVerts][2] = 255;

	mov	eax, 1
	shl	eax, 1
	mov	ecx, DWORD PTR ?m_iNumVerts@@3HA
	mov	BYTE PTR ?m_colorarray@@3PAY03EA[eax+ecx*4], 255 ; 000000ffH

; 821  : 		m_colorarray[m_iNumVerts][3] = alpha;

	mov	eax, 1
	imul	ecx, eax, 3
	mov	edx, DWORD PTR ?m_iNumVerts@@3HA
	mov	al, BYTE PTR _alpha$6[ebp]
	mov	BYTE PTR ?m_colorarray@@3PAY03EA[ecx+edx*4], al

; 822  : 		m_vertexarray[m_iNumVerts] = Vector( curFX->origin.x + size, curFX->origin.y + size, curFX->origin.z );

	mov	eax, DWORD PTR _curFX$[ebp]
	push	ecx
	movss	xmm0, DWORD PTR [eax+16]
	movss	DWORD PTR [esp], xmm0
	mov	ecx, DWORD PTR _curFX$[ebp]
	movss	xmm0, DWORD PTR [ecx+12]
	addss	xmm0, DWORD PTR _size$5[ebp]
	push	ecx
	movss	DWORD PTR [esp], xmm0
	mov	edx, DWORD PTR _curFX$[ebp]
	movss	xmm0, DWORD PTR [edx+8]
	addss	xmm0, DWORD PTR _size$5[ebp]
	push	ecx
	movss	DWORD PTR [esp], xmm0
	lea	ecx, DWORD PTR $T2[ebp]
	call	??0Vector@@QAE@MMM@Z			; Vector::Vector
	imul	ecx, DWORD PTR ?m_iNumVerts@@3HA, 12
	add	ecx, OFFSET ?m_vertexarray@@3PAVVector@@A
	mov	edx, DWORD PTR [eax]
	mov	DWORD PTR [ecx], edx
	mov	edx, DWORD PTR [eax+4]
	mov	DWORD PTR [ecx+4], edx
	mov	eax, DWORD PTR [eax+8]
	mov	DWORD PTR [ecx+8], eax

; 823  : 		m_indexarray[m_iNumIndex++] = m_iNumVerts++;

	mov	eax, DWORD PTR ?m_iNumIndex@@3HA
	mov	cx, WORD PTR ?m_iNumVerts@@3HA
	mov	WORD PTR ?m_indexarray@@3PAGA[eax*2], cx
	mov	edx, DWORD PTR ?m_iNumIndex@@3HA
	add	edx, 1
	mov	DWORD PTR ?m_iNumIndex@@3HA, edx
	mov	eax, DWORD PTR ?m_iNumVerts@@3HA
	add	eax, 1
	mov	DWORD PTR ?m_iNumVerts@@3HA, eax

; 824  : 
; 825  : 		m_coordsarray[m_iNumVerts].x = 1.0f;

	mov	eax, DWORD PTR ?m_iNumVerts@@3HA
	movss	xmm0, DWORD PTR __real@3f800000
	movss	DWORD PTR ?m_coordsarray@@3PAVVector2D@@A[eax*8], xmm0

; 826  : 		m_coordsarray[m_iNumVerts].y = 0.0f;

	mov	eax, DWORD PTR ?m_iNumVerts@@3HA
	xorps	xmm0, xmm0
	movss	DWORD PTR ?m_coordsarray@@3PAVVector2D@@A[eax*8+4], xmm0

; 827  : 		m_colorarray[m_iNumVerts][0] = 255;

	mov	eax, 1
	imul	ecx, eax, 0
	mov	edx, DWORD PTR ?m_iNumVerts@@3HA
	mov	BYTE PTR ?m_colorarray@@3PAY03EA[ecx+edx*4], 255 ; 000000ffH

; 828  : 		m_colorarray[m_iNumVerts][1] = 255;

	mov	eax, 1
	shl	eax, 0
	mov	ecx, DWORD PTR ?m_iNumVerts@@3HA
	mov	BYTE PTR ?m_colorarray@@3PAY03EA[eax+ecx*4], 255 ; 000000ffH

; 829  : 		m_colorarray[m_iNumVerts][2] = 255;

	mov	eax, 1
	shl	eax, 1
	mov	ecx, DWORD PTR ?m_iNumVerts@@3HA
	mov	BYTE PTR ?m_colorarray@@3PAY03EA[eax+ecx*4], 255 ; 000000ffH

; 830  : 		m_colorarray[m_iNumVerts][3] = alpha;

	mov	eax, 1
	imul	ecx, eax, 3
	mov	edx, DWORD PTR ?m_iNumVerts@@3HA
	mov	al, BYTE PTR _alpha$6[ebp]
	mov	BYTE PTR ?m_colorarray@@3PAY03EA[ecx+edx*4], al

; 831  : 		m_vertexarray[m_iNumVerts] = Vector( curFX->origin.x + size, curFX->origin.y - size, curFX->origin.z );

	mov	eax, DWORD PTR _curFX$[ebp]
	push	ecx
	movss	xmm0, DWORD PTR [eax+16]
	movss	DWORD PTR [esp], xmm0
	mov	ecx, DWORD PTR _curFX$[ebp]
	movss	xmm0, DWORD PTR [ecx+12]
	subss	xmm0, DWORD PTR _size$5[ebp]
	push	ecx
	movss	DWORD PTR [esp], xmm0
	mov	edx, DWORD PTR _curFX$[ebp]
	movss	xmm0, DWORD PTR [edx+8]
	addss	xmm0, DWORD PTR _size$5[ebp]
	push	ecx
	movss	DWORD PTR [esp], xmm0
	lea	ecx, DWORD PTR $T1[ebp]
	call	??0Vector@@QAE@MMM@Z			; Vector::Vector
	imul	ecx, DWORD PTR ?m_iNumVerts@@3HA, 12
	add	ecx, OFFSET ?m_vertexarray@@3PAVVector@@A
	mov	edx, DWORD PTR [eax]
	mov	DWORD PTR [ecx], edx
	mov	edx, DWORD PTR [eax+4]
	mov	DWORD PTR [ecx+4], edx
	mov	eax, DWORD PTR [eax+8]
	mov	DWORD PTR [ecx+8], eax

; 832  : 		m_indexarray[m_iNumIndex++] = m_iNumVerts++;

	mov	eax, DWORD PTR ?m_iNumIndex@@3HA
	mov	cx, WORD PTR ?m_iNumVerts@@3HA
	mov	WORD PTR ?m_indexarray@@3PAGA[eax*2], cx
	mov	edx, DWORD PTR ?m_iNumIndex@@3HA
	add	edx, 1
	mov	DWORD PTR ?m_iNumIndex@@3HA, edx
	mov	eax, DWORD PTR ?m_iNumVerts@@3HA
	add	eax, 1
	mov	DWORD PTR ?m_iNumVerts@@3HA, eax

; 833  : 
; 834  : 		g_fxArray.MoveNext();

	mov	ecx, OFFSET ?g_fxArray@@3V?$MemBlock@Ucl_rainfx@@@@A ; g_fxArray
	call	?MoveNext@?$MemBlock@Ucl_rainfx@@@@QAEXXZ ; MemBlock<cl_rainfx>::MoveNext

; 835  : 		curFX = g_fxArray.GetCurrent();

	mov	ecx, OFFSET ?g_fxArray@@3V?$MemBlock@Ucl_rainfx@@@@A ; g_fxArray
	call	?GetCurrent@?$MemBlock@Ucl_rainfx@@@@QAEPAUcl_rainfx@@XZ ; MemBlock<cl_rainfx>::GetCurrent
	mov	DWORD PTR _curFX$[ebp], eax

; 836  : 	}

	jmp	$LN15@DrawFXObje
$LN3@DrawFXObje:

; 837  : 
; 838  : 	if( m_iNumVerts && m_iNumIndex )

	cmp	DWORD PTR ?m_iNumVerts@@3HA, 0
	je	SHORT $LN11@DrawFXObje
	cmp	DWORD PTR ?m_iNumIndex@@3HA, 0
	je	SHORT $LN11@DrawFXObje

; 839  : 	{
; 840  : 		// flush any remaining verts
; 841  : 		if( GL_Support( R_DRAW_RANGEELEMENTS_EXT ))

	push	11					; 0000000bH
	call	?GL_Support@@YA_NH@Z			; GL_Support
	add	esp, 4
	movzx	eax, al
	test	eax, eax
	je	SHORT $LN12@DrawFXObje

; 842  : 			pglDrawRangeElementsEXT( GL_QUADS, 0, m_iNumVerts, m_iNumIndex, GL_UNSIGNED_SHORT, m_indexarray );

	push	OFFSET ?m_indexarray@@3PAGA
	push	5123					; 00001403H
	mov	eax, DWORD PTR ?m_iNumIndex@@3HA
	push	eax
	mov	ecx, DWORD PTR ?m_iNumVerts@@3HA
	push	ecx
	push	0
	push	7
	call	DWORD PTR ?pglDrawRangeElementsEXT@@3P6GXIIIHIPBX@ZA ; pglDrawRangeElementsEXT
	jmp	SHORT $LN13@DrawFXObje
$LN12@DrawFXObje:

; 843  : 		else pglDrawElements( GL_QUADS, m_iNumIndex, GL_UNSIGNED_SHORT, m_indexarray );

	push	OFFSET ?m_indexarray@@3PAGA
	push	5123					; 00001403H
	mov	eax, DWORD PTR ?m_iNumIndex@@3HA
	push	eax
	push	7
	call	DWORD PTR ?pglDrawElements@@3P6GXIHIPBX@ZA ; pglDrawElements
$LN13@DrawFXObje:

; 844  : 		r_stats.c_total_tris += (m_iNumVerts / 2);

	mov	eax, DWORD PTR ?m_iNumVerts@@3HA
	cdq
	sub	eax, edx
	sar	eax, 1
	add	eax, DWORD PTR ?r_stats@@3Uref_stats_t@@A+60
	mov	DWORD PTR ?r_stats@@3Uref_stats_t@@A+60, eax

; 845  : 		r_stats.num_flushes++;

	mov	eax, DWORD PTR ?r_stats@@3Uref_stats_t@@A+88
	add	eax, 1
	mov	DWORD PTR ?r_stats@@3Uref_stats_t@@A+88, eax
$LN11@DrawFXObje:

; 846  : 	}
; 847  : 
; 848  : 	pglDisableClientState( GL_TEXTURE_COORD_ARRAY );

	push	32888					; 00008078H
	call	DWORD PTR ?pglDisableClientState@@3P6GXI@ZA ; pglDisableClientState

; 849  : 	pglDisableClientState( GL_VERTEX_ARRAY );

	push	32884					; 00008074H
	call	DWORD PTR ?pglDisableClientState@@3P6GXI@ZA ; pglDisableClientState

; 850  : 	pglDisableClientState( GL_COLOR_ARRAY );

	push	32886					; 00008076H
	call	DWORD PTR ?pglDisableClientState@@3P6GXI@ZA ; pglDisableClientState

; 851  : 
; 852  : 	gEngfuncs.pTriAPI->CullFace( TRI_FRONT );

	push	0
	mov	eax, DWORD PTR ?gEngfuncs@@3Ucl_enginefuncs_s@@A+328
	mov	ecx, DWORD PTR [eax+40]
	call	ecx
	add	esp, 4
$LN1@DrawFXObje:

; 853  : }

	pop	edi
	pop	esi
	pop	ebx
	mov	esp, ebp
	pop	ebp
	ret	0
?DrawFXObjects@@YAXXZ ENDP				; DrawFXObjects
_TEXT	ENDS
; Function compile flags: /Odtp /ZI
; File d:\!diffusion 2020\source code 2022\client-server\client\render\r_weather.cpp
;	COMDAT ?DrawRain@@YAXXZ
_TEXT	SEGMENT
$T1 = -344						; size = 12
$T2 = -332						; size = 12
$T3 = -320						; size = 12
$T4 = -308						; size = 12
$T5 = -296						; size = 12
$T6 = -284						; size = 12
$T7 = -272						; size = 12
$T8 = -260						; size = 12
$T9 = -248						; size = 12
$T10 = -236						; size = 12
$T11 = -224						; size = 12
$T12 = -212						; size = 12
$T13 = -200						; size = 12
$T14 = -188						; size = 12
$T15 = -176						; size = 12
$T16 = -164						; size = 12
$T17 = -152						; size = 12
$T18 = -140						; size = 12
$T19 = -128						; size = 12
$T20 = -116						; size = 8
_alpha$21 = -34						; size = 1
_alpha$22 = -33						; size = 1
_shiftY$23 = -32					; size = 4
_shiftX$24 = -28					; size = 4
_toPlayer$25 = -24					; size = 8
_Drip$ = -16						; size = 4
_visibleHeight$ = -12					; size = 4
_pTexture$ = -8						; size = 4
_hsprTexture$ = -4					; size = 4
?DrawRain@@YAXXZ PROC					; DrawRain, COMDAT

; 526  : {

	push	ebp
	mov	ebp, esp
	sub	esp, 344				; 00000158H
	push	ebx
	push	esi
	push	edi

; 527  : 	if( g_dripsArray.IsClear( ))

	mov	ecx, OFFSET ?g_dripsArray@@3V?$MemBlock@Ucl_drip@@@@A ; g_dripsArray
	call	?IsClear@?$MemBlock@Ucl_drip@@@@QAE_NXZ	; MemBlock<cl_drip>::IsClear
	movzx	eax, al
	test	eax, eax
	je	SHORT $LN6@DrawRain

; 528  : 		return; // no drips to draw

	jmp	$LN1@DrawRain
$LN6@DrawRain:

; 529  : 
; 530  : 	if( !Mod_BoxVisible( rain_mins, rain_maxs, Mod_GetCurrentVis( )))

	call	?Mod_GetCurrentVis@@YAPAEXZ		; Mod_GetCurrentVis
	push	eax
	sub	esp, 12					; 0000000cH
	mov	ecx, esp
	push	OFFSET ?rain_maxs@@3VVector@@A
	call	??0Vector@@QAE@ABV0@@Z			; Vector::Vector
	sub	esp, 12					; 0000000cH
	mov	ecx, esp
	push	OFFSET ?rain_mins@@3VVector@@A
	call	??0Vector@@QAE@ABV0@@Z			; Vector::Vector
	call	?Mod_BoxVisible@@YA_NVVector@@0PBE@Z	; Mod_BoxVisible
	add	esp, 28					; 0000001cH
	movzx	eax, al
	test	eax, eax
	jne	SHORT $LN7@DrawRain

; 531  : 		return; // rain volume is invisible

	jmp	$LN1@DrawRain
$LN7@DrawRain:

; 532  : 
; 533  : 	if( cl_debug_rain->value )

	mov	eax, DWORD PTR ?cl_debug_rain@@3PAUcvar_s@@A ; cl_debug_rain
	movss	xmm0, DWORD PTR [eax+12]
	ucomiss	xmm0, DWORD PTR __real@00000000
	lahf
	test	ah, 68					; 00000044H
	jnp	SHORT $LN8@DrawRain

; 534  : 		DBG_DrawBBox( rain_mins, rain_maxs );

	push	OFFSET ?rain_maxs@@3VVector@@A
	push	OFFSET ?rain_mins@@3VVector@@A
	call	?DBG_DrawBBox@@YAXABVVector@@0@Z	; DBG_DrawBBox
	add	esp, 8
$LN8@DrawRain:

; 535  : 
; 536  : 	SpriteHandle hsprTexture = 0;

	mov	DWORD PTR _hsprTexture$[ebp], 0

; 537  : 
; 538  : 	if( Rain.weatherMode == MODE_RAIN )

	cmp	DWORD PTR ?Rain@@3U<unnamed-type-Rain>@@A+24, 0
	jne	SHORT $LN9@DrawRain

; 539  : 		hsprTexture = LoadSprite( "sprites/raindrop.spr" ); // load rain sprite

	push	OFFSET ??_C@_0BF@LDGAMEKL@sprites?1raindrop?4spr?$AA@
	call	?LoadSprite@@YAHPBD@Z			; LoadSprite
	add	esp, 4
	mov	DWORD PTR _hsprTexture$[ebp], eax
	jmp	SHORT $LN11@DrawRain
$LN9@DrawRain:

; 540  : 	else if( Rain.weatherMode == MODE_SNOW )

	cmp	DWORD PTR ?Rain@@3U<unnamed-type-Rain>@@A+24, 1
	jne	SHORT $LN11@DrawRain

; 541  : 		hsprTexture = LoadSprite( "sprites/snowflake.spr" ); // load snow sprite

	push	OFFSET ??_C@_0BG@HIMOHDLA@sprites?1snowflake?4spr?$AA@
	call	?LoadSprite@@YAHPBD@Z			; LoadSprite
	add	esp, 4
	mov	DWORD PTR _hsprTexture$[ebp], eax
$LN11@DrawRain:

; 542  : 
; 543  : 	if( !hsprTexture ) return;

	cmp	DWORD PTR _hsprTexture$[ebp], 0
	jne	SHORT $LN12@DrawRain
	jmp	$LN1@DrawRain
$LN12@DrawRain:

; 544  : 
; 545  : 	// usual triapi stuff
; 546  : 	const model_s *pTexture = gEngfuncs.GetSpritePointer( hsprTexture );

	mov	eax, DWORD PTR _hsprTexture$[ebp]
	push	eax
	call	DWORD PTR ?gEngfuncs@@3Ucl_enginefuncs_s@@A+248
	add	esp, 4
	mov	DWORD PTR _pTexture$[ebp], eax

; 547  : 	if( !gEngfuncs.pTriAPI->SpriteTexture(( struct model_s *)pTexture, 0 ))

	push	0
	mov	eax, DWORD PTR _pTexture$[ebp]
	push	eax
	mov	ecx, DWORD PTR ?gEngfuncs@@3Ucl_enginefuncs_s@@A+328
	mov	edx, DWORD PTR [ecx+44]
	call	edx
	add	esp, 8
	test	eax, eax
	jne	SHORT $LN13@DrawRain

; 548  : 		return;

	jmp	$LN1@DrawRain
$LN13@DrawRain:

; 549  : 
; 550  : 	gEngfuncs.pTriAPI->RenderMode( kRenderTransAdd );

	push	5
	mov	eax, DWORD PTR ?gEngfuncs@@3Ucl_enginefuncs_s@@A+328
	mov	ecx, DWORD PTR [eax+4]
	call	ecx
	add	esp, 4

; 551  : 	
; 552  : 	float visibleHeight = Rain.globalHeight - SNOWFADEDIST;

	movss	xmm0, DWORD PTR ?Rain@@3U<unnamed-type-Rain>@@A+28
	subss	xmm0, DWORD PTR __real@42a00000
	movss	DWORD PTR _visibleHeight$[ebp], xmm0

; 553  : 
; 554  : 	m_iNumVerts = m_iNumIndex = 0;

	mov	DWORD PTR ?m_iNumIndex@@3HA, 0
	mov	eax, DWORD PTR ?m_iNumIndex@@3HA
	mov	DWORD PTR ?m_iNumVerts@@3HA, eax

; 555  : 
; 556  : 	// go through drips list
; 557  : 	g_dripsArray.StartPass();

	mov	ecx, OFFSET ?g_dripsArray@@3V?$MemBlock@Ucl_drip@@@@A ; g_dripsArray
	call	?StartPass@?$MemBlock@Ucl_drip@@@@QAE_NXZ ; MemBlock<cl_drip>::StartPass

; 558  : 	cl_drip *Drip = g_dripsArray.GetCurrent();

	mov	ecx, OFFSET ?g_dripsArray@@3V?$MemBlock@Ucl_drip@@@@A ; g_dripsArray
	call	?GetCurrent@?$MemBlock@Ucl_drip@@@@QAEPAUcl_drip@@XZ ; MemBlock<cl_drip>::GetCurrent
	mov	DWORD PTR _Drip$[ebp], eax

; 559  : 
; 560  : 	pglEnableClientState( GL_VERTEX_ARRAY );

	push	32884					; 00008074H
	call	DWORD PTR ?pglEnableClientState@@3P6GXI@ZA ; pglEnableClientState

; 561  : 	pglVertexPointer( 3, GL_FLOAT, 0, m_vertexarray );

	push	OFFSET ?m_vertexarray@@3PAVVector@@A
	push	0
	push	5126					; 00001406H
	push	3
	call	DWORD PTR ?pglVertexPointer@@3P6GXHIHPBX@ZA ; pglVertexPointer

; 562  : 
; 563  : 	pglEnableClientState( GL_TEXTURE_COORD_ARRAY );

	push	32888					; 00008078H
	call	DWORD PTR ?pglEnableClientState@@3P6GXI@ZA ; pglEnableClientState

; 564  : 	pglTexCoordPointer( 2, GL_FLOAT, 0, m_coordsarray );

	push	OFFSET ?m_coordsarray@@3PAVVector2D@@A
	push	0
	push	5126					; 00001406H
	push	2
	call	DWORD PTR ?pglTexCoordPointer@@3P6GXHIHPBX@ZA ; pglTexCoordPointer

; 565  : 
; 566  : 	pglEnableClientState( GL_COLOR_ARRAY );

	push	32886					; 00008076H
	call	DWORD PTR ?pglEnableClientState@@3P6GXI@ZA ; pglEnableClientState

; 567  : 	pglColorPointer( 4, GL_UNSIGNED_BYTE, 0, m_colorarray );

	push	OFFSET ?m_colorarray@@3PAY03EA
	push	0
	push	5121					; 00001401H
	push	4
	call	DWORD PTR ?pglColorPointer@@3P6GXHIHPBX@ZA ; pglColorPointer

; 568  : 
; 569  : 	if( Rain.weatherMode == MODE_RAIN )

	cmp	DWORD PTR ?Rain@@3U<unnamed-type-Rain>@@A+24, 0
	jne	$LN14@DrawRain
$LN34@DrawRain:

; 570  : 	{
; 571  : 		while( Drip != NULL )

	cmp	DWORD PTR _Drip$[ebp], 0
	je	$LN3@DrawRain

; 572  : 		{
; 573  : 			// cull invisible drips
; 574  : 			if( R_CullSphere( Drip->origin, SNOW_SPRITE_HALFSIZE + 1 ))

	push	0
	push	ecx
	movss	xmm0, DWORD PTR __real@40800000
	movss	DWORD PTR [esp], xmm0
	mov	eax, DWORD PTR _Drip$[ebp]
	add	eax, 8
	push	eax
	mov	ecx, DWORD PTR ?RI@@3PAUref_instance_t@@A ; RI
	add	ecx, 48					; 00000030H
	call	?CullSphere@CFrustum@@QAE_NABVVector@@MH@Z ; CFrustum::CullSphere
	movzx	ecx, al
	test	ecx, ecx
	je	SHORT $LN16@DrawRain

; 575  : 			{
; 576  : 				g_dripsArray.MoveNext();

	mov	ecx, OFFSET ?g_dripsArray@@3V?$MemBlock@Ucl_drip@@@@A ; g_dripsArray
	call	?MoveNext@?$MemBlock@Ucl_drip@@@@QAEXXZ	; MemBlock<cl_drip>::MoveNext

; 577  : 				Drip = g_dripsArray.GetCurrent();

	mov	ecx, OFFSET ?g_dripsArray@@3V?$MemBlock@Ucl_drip@@@@A ; g_dripsArray
	call	?GetCurrent@?$MemBlock@Ucl_drip@@@@QAEPAUcl_drip@@XZ ; MemBlock<cl_drip>::GetCurrent
	mov	DWORD PTR _Drip$[ebp], eax

; 578  : 				continue;

	jmp	SHORT $LN34@DrawRain
$LN16@DrawRain:

; 579  : 			}
; 580  : 
; 581  : 			if(( m_iNumVerts + 4 ) >= MAX_RAIN_VERTICES )

	mov	eax, DWORD PTR ?m_iNumVerts@@3HA
	add	eax, 4
	cmp	eax, 65536				; 00010000H
	jl	$LN17@DrawRain

; 582  : 			{
; 583  : 				// it's time to flush
; 584  : 				if( GL_Support( R_DRAW_RANGEELEMENTS_EXT ))

	push	11					; 0000000bH
	call	?GL_Support@@YA_NH@Z			; GL_Support
	add	esp, 4
	movzx	eax, al
	test	eax, eax
	je	SHORT $LN18@DrawRain

; 585  : 					pglDrawRangeElementsEXT( GL_TRIANGLES, 0, m_iNumVerts, m_iNumIndex, GL_UNSIGNED_SHORT, m_indexarray );

	push	OFFSET ?m_indexarray@@3PAGA
	push	5123					; 00001403H
	mov	eax, DWORD PTR ?m_iNumIndex@@3HA
	push	eax
	mov	ecx, DWORD PTR ?m_iNumVerts@@3HA
	push	ecx
	push	0
	push	4
	call	DWORD PTR ?pglDrawRangeElementsEXT@@3P6GXIIIHIPBX@ZA ; pglDrawRangeElementsEXT
	jmp	SHORT $LN19@DrawRain
$LN18@DrawRain:

; 586  : 				else pglDrawElements( GL_TRIANGLES, m_iNumIndex, GL_UNSIGNED_SHORT, m_indexarray );

	push	OFFSET ?m_indexarray@@3PAGA
	push	5123					; 00001403H
	mov	eax, DWORD PTR ?m_iNumIndex@@3HA
	push	eax
	push	4
	call	DWORD PTR ?pglDrawElements@@3P6GXIHIPBX@ZA ; pglDrawElements
$LN19@DrawRain:

; 587  : 				r_stats.c_total_tris += (m_iNumVerts - 2);

	mov	eax, DWORD PTR ?m_iNumVerts@@3HA
	mov	ecx, DWORD PTR ?r_stats@@3Uref_stats_t@@A+60
	lea	edx, DWORD PTR [ecx+eax-2]
	mov	DWORD PTR ?r_stats@@3Uref_stats_t@@A+60, edx

; 588  : 				m_iNumVerts = m_iNumIndex = 0;

	mov	DWORD PTR ?m_iNumIndex@@3HA, 0
	mov	eax, DWORD PTR ?m_iNumIndex@@3HA
	mov	DWORD PTR ?m_iNumVerts@@3HA, eax

; 589  : 				r_stats.num_flushes++;

	mov	eax, DWORD PTR ?r_stats@@3Uref_stats_t@@A+88
	add	eax, 1
	mov	DWORD PTR ?r_stats@@3Uref_stats_t@@A+88, eax
$LN17@DrawRain:

; 590  : 			}
; 591  : 
; 592  : 			Vector2D toPlayer; 

	lea	ecx, DWORD PTR _toPlayer$25[ebp]
	call	??0Vector2D@@QAE@XZ			; Vector2D::Vector2D

; 593  : 			toPlayer.x = RI->vieworg[0] - Drip->origin[0];

	mov	ecx, DWORD PTR ?RI@@3PAUref_instance_t@@A ; RI
	add	ecx, 204				; 000000ccH
	call	??BVector@@QAEPAMXZ			; Vector::operator float *
	mov	esi, eax
	mov	eax, 4
	imul	edi, eax, 0
	mov	ecx, DWORD PTR _Drip$[ebp]
	add	ecx, 8
	call	??BVector@@QAEPAMXZ			; Vector::operator float *
	mov	ecx, 4
	imul	edx, ecx, 0
	movss	xmm0, DWORD PTR [esi+edi]
	subss	xmm0, DWORD PTR [eax+edx]
	movss	DWORD PTR _toPlayer$25[ebp], xmm0

; 594  : 			toPlayer.y = RI->vieworg[1] - Drip->origin[1];

	mov	ecx, DWORD PTR ?RI@@3PAUref_instance_t@@A ; RI
	add	ecx, 204				; 000000ccH
	call	??BVector@@QAEPAMXZ			; Vector::operator float *
	mov	esi, eax
	mov	edi, 4
	shl	edi, 0
	mov	ecx, DWORD PTR _Drip$[ebp]
	add	ecx, 8
	call	??BVector@@QAEPAMXZ			; Vector::operator float *
	mov	ecx, 4
	shl	ecx, 0
	movss	xmm0, DWORD PTR [esi+edi]
	subss	xmm0, DWORD PTR [eax+ecx]
	movss	DWORD PTR _toPlayer$25[ebp+4], xmm0

; 595  : 			toPlayer = toPlayer.Normalize();

	lea	eax, DWORD PTR $T20[ebp]
	push	eax
	lea	ecx, DWORD PTR _toPlayer$25[ebp]
	call	?Normalize@Vector2D@@QBE?AV1@XZ		; Vector2D::Normalize
	mov	ecx, DWORD PTR [eax]
	mov	edx, DWORD PTR [eax+4]
	mov	DWORD PTR _toPlayer$25[ebp], ecx
	mov	DWORD PTR _toPlayer$25[ebp+4], edx

; 596  : 	
; 597  : 			toPlayer.x *= DRIP_SPRITE_HALFWIDTH;

	movss	xmm0, DWORD PTR _toPlayer$25[ebp]
	mulss	xmm0, DWORD PTR __real@41000000
	movss	DWORD PTR _toPlayer$25[ebp], xmm0

; 598  : 			toPlayer.y *= DRIP_SPRITE_HALFWIDTH;

	movss	xmm0, DWORD PTR _toPlayer$25[ebp+4]
	mulss	xmm0, DWORD PTR __real@41000000
	movss	DWORD PTR _toPlayer$25[ebp+4], xmm0

; 599  : 
; 600  : 			float shiftX = (Drip->xDelta / DRIPSPEED) * DRIP_SPRITE_HALFHEIGHT;

	mov	eax, DWORD PTR _Drip$[ebp]
	movss	xmm0, DWORD PTR [eax+24]
	divss	xmm0, DWORD PTR __real@44610000
	mulss	xmm0, DWORD PTR __real@42380000
	movss	DWORD PTR _shiftX$24[ebp], xmm0

; 601  : 			float shiftY = (Drip->yDelta / DRIPSPEED) * DRIP_SPRITE_HALFHEIGHT;

	mov	eax, DWORD PTR _Drip$[ebp]
	movss	xmm0, DWORD PTR [eax+28]
	divss	xmm0, DWORD PTR __real@44610000
	mulss	xmm0, DWORD PTR __real@42380000
	movss	DWORD PTR _shiftY$23[ebp], xmm0

; 602  : 
; 603  : 			byte alpha = Drip->alpha * 255;

	mov	eax, DWORD PTR _Drip$[ebp]
	movss	xmm0, DWORD PTR [eax+20]
	mulss	xmm0, DWORD PTR __real@437f0000
	cvttss2si ecx, xmm0
	mov	BYTE PTR _alpha$22[ebp], cl

; 604  : 			
; 605  : 			m_coordsarray[m_iNumVerts].x = 0.0f;

	mov	eax, DWORD PTR ?m_iNumVerts@@3HA
	xorps	xmm0, xmm0
	movss	DWORD PTR ?m_coordsarray@@3PAVVector2D@@A[eax*8], xmm0

; 606  : 			m_coordsarray[m_iNumVerts].y = 0.0f;

	mov	eax, DWORD PTR ?m_iNumVerts@@3HA
	xorps	xmm0, xmm0
	movss	DWORD PTR ?m_coordsarray@@3PAVVector2D@@A[eax*8+4], xmm0

; 607  : 			m_colorarray[m_iNumVerts][0] = 255;

	mov	eax, 1
	imul	ecx, eax, 0
	mov	edx, DWORD PTR ?m_iNumVerts@@3HA
	mov	BYTE PTR ?m_colorarray@@3PAY03EA[ecx+edx*4], 255 ; 000000ffH

; 608  : 			m_colorarray[m_iNumVerts][1] = 255;

	mov	eax, 1
	shl	eax, 0
	mov	ecx, DWORD PTR ?m_iNumVerts@@3HA
	mov	BYTE PTR ?m_colorarray@@3PAY03EA[eax+ecx*4], 255 ; 000000ffH

; 609  : 			m_colorarray[m_iNumVerts][2] = 255;

	mov	eax, 1
	shl	eax, 1
	mov	ecx, DWORD PTR ?m_iNumVerts@@3HA
	mov	BYTE PTR ?m_colorarray@@3PAY03EA[eax+ecx*4], 255 ; 000000ffH

; 610  : 			m_colorarray[m_iNumVerts][3] = alpha;

	mov	eax, 1
	imul	ecx, eax, 3
	mov	edx, DWORD PTR ?m_iNumVerts@@3HA
	mov	al, BYTE PTR _alpha$22[ebp]
	mov	BYTE PTR ?m_colorarray@@3PAY03EA[ecx+edx*4], al

; 611  : 			m_vertexarray[m_iNumVerts] = Vector( Drip->origin.x - toPlayer.y - shiftX, Drip->origin.y + toPlayer.x - shiftY, Drip->origin.z + DRIP_SPRITE_HALFHEIGHT );

	mov	eax, DWORD PTR _Drip$[ebp]
	movss	xmm0, DWORD PTR [eax+16]
	addss	xmm0, DWORD PTR __real@42380000
	push	ecx
	movss	DWORD PTR [esp], xmm0
	mov	ecx, DWORD PTR _Drip$[ebp]
	movss	xmm0, DWORD PTR [ecx+12]
	addss	xmm0, DWORD PTR _toPlayer$25[ebp]
	subss	xmm0, DWORD PTR _shiftY$23[ebp]
	push	ecx
	movss	DWORD PTR [esp], xmm0
	mov	edx, DWORD PTR _Drip$[ebp]
	movss	xmm0, DWORD PTR [edx+8]
	subss	xmm0, DWORD PTR _toPlayer$25[ebp+4]
	subss	xmm0, DWORD PTR _shiftX$24[ebp]
	push	ecx
	movss	DWORD PTR [esp], xmm0
	lea	ecx, DWORD PTR $T19[ebp]
	call	??0Vector@@QAE@MMM@Z			; Vector::Vector
	imul	ecx, DWORD PTR ?m_iNumVerts@@3HA, 12
	add	ecx, OFFSET ?m_vertexarray@@3PAVVector@@A
	mov	edx, DWORD PTR [eax]
	mov	DWORD PTR [ecx], edx
	mov	edx, DWORD PTR [eax+4]
	mov	DWORD PTR [ecx+4], edx
	mov	eax, DWORD PTR [eax+8]
	mov	DWORD PTR [ecx+8], eax

; 612  : 			m_indexarray[m_iNumIndex++] = m_iNumVerts++;

	mov	eax, DWORD PTR ?m_iNumIndex@@3HA
	mov	cx, WORD PTR ?m_iNumVerts@@3HA
	mov	WORD PTR ?m_indexarray@@3PAGA[eax*2], cx
	mov	edx, DWORD PTR ?m_iNumIndex@@3HA
	add	edx, 1
	mov	DWORD PTR ?m_iNumIndex@@3HA, edx
	mov	eax, DWORD PTR ?m_iNumVerts@@3HA
	add	eax, 1
	mov	DWORD PTR ?m_iNumVerts@@3HA, eax

; 613  : 
; 614  : 			m_coordsarray[m_iNumVerts].x = 0.5f;

	mov	eax, DWORD PTR ?m_iNumVerts@@3HA
	movss	xmm0, DWORD PTR __real@3f000000
	movss	DWORD PTR ?m_coordsarray@@3PAVVector2D@@A[eax*8], xmm0

; 615  : 			m_coordsarray[m_iNumVerts].y = 1.0f;

	mov	eax, DWORD PTR ?m_iNumVerts@@3HA
	movss	xmm0, DWORD PTR __real@3f800000
	movss	DWORD PTR ?m_coordsarray@@3PAVVector2D@@A[eax*8+4], xmm0

; 616  : 			m_colorarray[m_iNumVerts][0] = 255;

	mov	eax, 1
	imul	ecx, eax, 0
	mov	edx, DWORD PTR ?m_iNumVerts@@3HA
	mov	BYTE PTR ?m_colorarray@@3PAY03EA[ecx+edx*4], 255 ; 000000ffH

; 617  : 			m_colorarray[m_iNumVerts][1] = 255;

	mov	eax, 1
	shl	eax, 0
	mov	ecx, DWORD PTR ?m_iNumVerts@@3HA
	mov	BYTE PTR ?m_colorarray@@3PAY03EA[eax+ecx*4], 255 ; 000000ffH

; 618  : 			m_colorarray[m_iNumVerts][2] = 255;

	mov	eax, 1
	shl	eax, 1
	mov	ecx, DWORD PTR ?m_iNumVerts@@3HA
	mov	BYTE PTR ?m_colorarray@@3PAY03EA[eax+ecx*4], 255 ; 000000ffH

; 619  : 			m_colorarray[m_iNumVerts][3] = alpha;

	mov	eax, 1
	imul	ecx, eax, 3
	mov	edx, DWORD PTR ?m_iNumVerts@@3HA
	mov	al, BYTE PTR _alpha$22[ebp]
	mov	BYTE PTR ?m_colorarray@@3PAY03EA[ecx+edx*4], al

; 620  : 			m_vertexarray[m_iNumVerts] = Vector( Drip->origin.x + shiftX, Drip->origin.y + shiftY, Drip->origin.z - DRIP_SPRITE_HALFHEIGHT );

	mov	eax, DWORD PTR _Drip$[ebp]
	movss	xmm0, DWORD PTR [eax+16]
	subss	xmm0, DWORD PTR __real@42380000
	push	ecx
	movss	DWORD PTR [esp], xmm0
	mov	ecx, DWORD PTR _Drip$[ebp]
	movss	xmm0, DWORD PTR [ecx+12]
	addss	xmm0, DWORD PTR _shiftY$23[ebp]
	push	ecx
	movss	DWORD PTR [esp], xmm0
	mov	edx, DWORD PTR _Drip$[ebp]
	movss	xmm0, DWORD PTR [edx+8]
	addss	xmm0, DWORD PTR _shiftX$24[ebp]
	push	ecx
	movss	DWORD PTR [esp], xmm0
	lea	ecx, DWORD PTR $T18[ebp]
	call	??0Vector@@QAE@MMM@Z			; Vector::Vector
	imul	ecx, DWORD PTR ?m_iNumVerts@@3HA, 12
	add	ecx, OFFSET ?m_vertexarray@@3PAVVector@@A
	mov	edx, DWORD PTR [eax]
	mov	DWORD PTR [ecx], edx
	mov	edx, DWORD PTR [eax+4]
	mov	DWORD PTR [ecx+4], edx
	mov	eax, DWORD PTR [eax+8]
	mov	DWORD PTR [ecx+8], eax

; 621  : 			m_indexarray[m_iNumIndex++] = m_iNumVerts++;

	mov	eax, DWORD PTR ?m_iNumIndex@@3HA
	mov	cx, WORD PTR ?m_iNumVerts@@3HA
	mov	WORD PTR ?m_indexarray@@3PAGA[eax*2], cx
	mov	edx, DWORD PTR ?m_iNumIndex@@3HA
	add	edx, 1
	mov	DWORD PTR ?m_iNumIndex@@3HA, edx
	mov	eax, DWORD PTR ?m_iNumVerts@@3HA
	add	eax, 1
	mov	DWORD PTR ?m_iNumVerts@@3HA, eax

; 622  : 
; 623  : 			// set right top corner
; 624  : 			m_coordsarray[m_iNumVerts].x = 1.0f;

	mov	eax, DWORD PTR ?m_iNumVerts@@3HA
	movss	xmm0, DWORD PTR __real@3f800000
	movss	DWORD PTR ?m_coordsarray@@3PAVVector2D@@A[eax*8], xmm0

; 625  : 			m_coordsarray[m_iNumVerts].y = 0.0f;

	mov	eax, DWORD PTR ?m_iNumVerts@@3HA
	xorps	xmm0, xmm0
	movss	DWORD PTR ?m_coordsarray@@3PAVVector2D@@A[eax*8+4], xmm0

; 626  : 			m_colorarray[m_iNumVerts][0] = 255;

	mov	eax, 1
	imul	ecx, eax, 0
	mov	edx, DWORD PTR ?m_iNumVerts@@3HA
	mov	BYTE PTR ?m_colorarray@@3PAY03EA[ecx+edx*4], 255 ; 000000ffH

; 627  : 			m_colorarray[m_iNumVerts][1] = 255;

	mov	eax, 1
	shl	eax, 0
	mov	ecx, DWORD PTR ?m_iNumVerts@@3HA
	mov	BYTE PTR ?m_colorarray@@3PAY03EA[eax+ecx*4], 255 ; 000000ffH

; 628  : 			m_colorarray[m_iNumVerts][2] = 255;

	mov	eax, 1
	shl	eax, 1
	mov	ecx, DWORD PTR ?m_iNumVerts@@3HA
	mov	BYTE PTR ?m_colorarray@@3PAY03EA[eax+ecx*4], 255 ; 000000ffH

; 629  : 			m_colorarray[m_iNumVerts][3] = alpha;

	mov	eax, 1
	imul	ecx, eax, 3
	mov	edx, DWORD PTR ?m_iNumVerts@@3HA
	mov	al, BYTE PTR _alpha$22[ebp]
	mov	BYTE PTR ?m_colorarray@@3PAY03EA[ecx+edx*4], al

; 630  : 			m_vertexarray[m_iNumVerts] = Vector( Drip->origin.x + toPlayer.y - shiftX, Drip->origin.y - toPlayer.x - shiftY, Drip->origin.z + DRIP_SPRITE_HALFHEIGHT );

	mov	eax, DWORD PTR _Drip$[ebp]
	movss	xmm0, DWORD PTR [eax+16]
	addss	xmm0, DWORD PTR __real@42380000
	push	ecx
	movss	DWORD PTR [esp], xmm0
	mov	ecx, DWORD PTR _Drip$[ebp]
	movss	xmm0, DWORD PTR [ecx+12]
	subss	xmm0, DWORD PTR _toPlayer$25[ebp]
	subss	xmm0, DWORD PTR _shiftY$23[ebp]
	push	ecx
	movss	DWORD PTR [esp], xmm0
	mov	edx, DWORD PTR _Drip$[ebp]
	movss	xmm0, DWORD PTR [edx+8]
	addss	xmm0, DWORD PTR _toPlayer$25[ebp+4]
	subss	xmm0, DWORD PTR _shiftX$24[ebp]
	push	ecx
	movss	DWORD PTR [esp], xmm0
	lea	ecx, DWORD PTR $T17[ebp]
	call	??0Vector@@QAE@MMM@Z			; Vector::Vector
	imul	ecx, DWORD PTR ?m_iNumVerts@@3HA, 12
	add	ecx, OFFSET ?m_vertexarray@@3PAVVector@@A
	mov	edx, DWORD PTR [eax]
	mov	DWORD PTR [ecx], edx
	mov	edx, DWORD PTR [eax+4]
	mov	DWORD PTR [ecx+4], edx
	mov	eax, DWORD PTR [eax+8]
	mov	DWORD PTR [ecx+8], eax

; 631  : 			m_indexarray[m_iNumIndex++] = m_iNumVerts++;

	mov	eax, DWORD PTR ?m_iNumIndex@@3HA
	mov	cx, WORD PTR ?m_iNumVerts@@3HA
	mov	WORD PTR ?m_indexarray@@3PAGA[eax*2], cx
	mov	edx, DWORD PTR ?m_iNumIndex@@3HA
	add	edx, 1
	mov	DWORD PTR ?m_iNumIndex@@3HA, edx
	mov	eax, DWORD PTR ?m_iNumVerts@@3HA
	add	eax, 1
	mov	DWORD PTR ?m_iNumVerts@@3HA, eax

; 632  : 
; 633  : 			g_dripsArray.MoveNext();

	mov	ecx, OFFSET ?g_dripsArray@@3V?$MemBlock@Ucl_drip@@@@A ; g_dripsArray
	call	?MoveNext@?$MemBlock@Ucl_drip@@@@QAEXXZ	; MemBlock<cl_drip>::MoveNext

; 634  : 			Drip = g_dripsArray.GetCurrent();

	mov	ecx, OFFSET ?g_dripsArray@@3V?$MemBlock@Ucl_drip@@@@A ; g_dripsArray
	call	?GetCurrent@?$MemBlock@Ucl_drip@@@@QAEPAUcl_drip@@XZ ; MemBlock<cl_drip>::GetCurrent
	mov	DWORD PTR _Drip$[ebp], eax

; 635  : 		}

	jmp	$LN34@DrawRain
$LN3@DrawRain:

; 636  : 
; 637  : 		if( m_iNumVerts && m_iNumIndex )

	cmp	DWORD PTR ?m_iNumVerts@@3HA, 0
	je	SHORT $LN20@DrawRain
	cmp	DWORD PTR ?m_iNumIndex@@3HA, 0
	je	SHORT $LN20@DrawRain

; 638  : 		{
; 639  : 			if( GL_Support( R_DRAW_RANGEELEMENTS_EXT ))

	push	11					; 0000000bH
	call	?GL_Support@@YA_NH@Z			; GL_Support
	add	esp, 4
	movzx	eax, al
	test	eax, eax
	je	SHORT $LN21@DrawRain

; 640  : 				pglDrawRangeElementsEXT( GL_TRIANGLES, 0, m_iNumVerts, m_iNumIndex, GL_UNSIGNED_SHORT, m_indexarray );

	push	OFFSET ?m_indexarray@@3PAGA
	push	5123					; 00001403H
	mov	eax, DWORD PTR ?m_iNumIndex@@3HA
	push	eax
	mov	ecx, DWORD PTR ?m_iNumVerts@@3HA
	push	ecx
	push	0
	push	4
	call	DWORD PTR ?pglDrawRangeElementsEXT@@3P6GXIIIHIPBX@ZA ; pglDrawRangeElementsEXT
	jmp	SHORT $LN22@DrawRain
$LN21@DrawRain:

; 641  : 			else pglDrawElements( GL_TRIANGLES, m_iNumIndex, GL_UNSIGNED_SHORT, m_indexarray );

	push	OFFSET ?m_indexarray@@3PAGA
	push	5123					; 00001403H
	mov	eax, DWORD PTR ?m_iNumIndex@@3HA
	push	eax
	push	4
	call	DWORD PTR ?pglDrawElements@@3P6GXIHIPBX@ZA ; pglDrawElements
$LN22@DrawRain:

; 642  : 			r_stats.c_total_tris += (m_iNumVerts - 2);

	mov	eax, DWORD PTR ?m_iNumVerts@@3HA
	mov	ecx, DWORD PTR ?r_stats@@3Uref_stats_t@@A+60
	lea	edx, DWORD PTR [ecx+eax-2]
	mov	DWORD PTR ?r_stats@@3Uref_stats_t@@A+60, edx

; 643  : 			r_stats.num_flushes++;

	mov	eax, DWORD PTR ?r_stats@@3Uref_stats_t@@A+88
	add	eax, 1
	mov	DWORD PTR ?r_stats@@3Uref_stats_t@@A+88, eax
$LN20@DrawRain:

; 644  : 		}
; 645  : 	}

	jmp	$LN30@DrawRain
$LN14@DrawRain:

; 646  : 	else if( Rain.weatherMode == MODE_SNOW )

	cmp	DWORD PTR ?Rain@@3U<unnamed-type-Rain>@@A+24, 1
	jne	$LN30@DrawRain
$LN35@DrawRain:

; 647  : 	{ 
; 648  : 		while( Drip != NULL )

	cmp	DWORD PTR _Drip$[ebp], 0
	je	$LN5@DrawRain

; 649  : 		{
; 650  : 			// cull invisible flakes
; 651  : 			if( R_CullSphere( Drip->origin, SNOW_SPRITE_HALFSIZE + 1 ))

	push	0
	push	ecx
	movss	xmm0, DWORD PTR __real@40800000
	movss	DWORD PTR [esp], xmm0
	mov	eax, DWORD PTR _Drip$[ebp]
	add	eax, 8
	push	eax
	mov	ecx, DWORD PTR ?RI@@3PAUref_instance_t@@A ; RI
	add	ecx, 48					; 00000030H
	call	?CullSphere@CFrustum@@QAE_NABVVector@@MH@Z ; CFrustum::CullSphere
	movzx	ecx, al
	test	ecx, ecx
	je	SHORT $LN24@DrawRain

; 652  : 			{
; 653  : 				g_dripsArray.MoveNext();

	mov	ecx, OFFSET ?g_dripsArray@@3V?$MemBlock@Ucl_drip@@@@A ; g_dripsArray
	call	?MoveNext@?$MemBlock@Ucl_drip@@@@QAEXXZ	; MemBlock<cl_drip>::MoveNext

; 654  : 				Drip = g_dripsArray.GetCurrent();

	mov	ecx, OFFSET ?g_dripsArray@@3V?$MemBlock@Ucl_drip@@@@A ; g_dripsArray
	call	?GetCurrent@?$MemBlock@Ucl_drip@@@@QAEPAUcl_drip@@XZ ; MemBlock<cl_drip>::GetCurrent
	mov	DWORD PTR _Drip$[ebp], eax

; 655  : 				continue;

	jmp	SHORT $LN35@DrawRain
$LN24@DrawRain:

; 656  : 			}
; 657  : 
; 658  : 			if(( m_iNumVerts + 4 ) >= MAX_RAIN_VERTICES )

	mov	eax, DWORD PTR ?m_iNumVerts@@3HA
	add	eax, 4
	cmp	eax, 65536				; 00010000H
	jl	$LN25@DrawRain

; 659  : 			{
; 660  : 				// it's time to flush
; 661  : 				if( GL_Support( R_DRAW_RANGEELEMENTS_EXT ))

	push	11					; 0000000bH
	call	?GL_Support@@YA_NH@Z			; GL_Support
	add	esp, 4
	movzx	eax, al
	test	eax, eax
	je	SHORT $LN26@DrawRain

; 662  : 					pglDrawRangeElementsEXT( GL_QUADS, 0, m_iNumVerts, m_iNumIndex, GL_UNSIGNED_SHORT, m_indexarray );

	push	OFFSET ?m_indexarray@@3PAGA
	push	5123					; 00001403H
	mov	eax, DWORD PTR ?m_iNumIndex@@3HA
	push	eax
	mov	ecx, DWORD PTR ?m_iNumVerts@@3HA
	push	ecx
	push	0
	push	7
	call	DWORD PTR ?pglDrawRangeElementsEXT@@3P6GXIIIHIPBX@ZA ; pglDrawRangeElementsEXT
	jmp	SHORT $LN27@DrawRain
$LN26@DrawRain:

; 663  : 				else pglDrawElements( GL_QUADS, m_iNumIndex, GL_UNSIGNED_SHORT, m_indexarray );

	push	OFFSET ?m_indexarray@@3PAGA
	push	5123					; 00001403H
	mov	eax, DWORD PTR ?m_iNumIndex@@3HA
	push	eax
	push	7
	call	DWORD PTR ?pglDrawElements@@3P6GXIHIPBX@ZA ; pglDrawElements
$LN27@DrawRain:

; 664  : 				r_stats.c_total_tris += (m_iNumVerts / 2);

	mov	eax, DWORD PTR ?m_iNumVerts@@3HA
	cdq
	sub	eax, edx
	sar	eax, 1
	add	eax, DWORD PTR ?r_stats@@3Uref_stats_t@@A+60
	mov	DWORD PTR ?r_stats@@3Uref_stats_t@@A+60, eax

; 665  : 				m_iNumVerts = m_iNumIndex = 0;

	mov	DWORD PTR ?m_iNumIndex@@3HA, 0
	mov	eax, DWORD PTR ?m_iNumIndex@@3HA
	mov	DWORD PTR ?m_iNumVerts@@3HA, eax

; 666  : 				r_stats.num_flushes++;

	mov	eax, DWORD PTR ?r_stats@@3Uref_stats_t@@A+88
	add	eax, 1
	mov	DWORD PTR ?r_stats@@3Uref_stats_t@@A+88, eax
$LN25@DrawRain:

; 667  : 			}
; 668  : 
; 669  : 			// apply start fading effect
; 670  : 			byte alpha;
; 671  : 
; 672  : 			if( Drip->origin.z <= visibleHeight )

	mov	eax, DWORD PTR _Drip$[ebp]
	movss	xmm0, DWORD PTR _visibleHeight$[ebp]
	comiss	xmm0, DWORD PTR [eax+16]
	jb	SHORT $LN28@DrawRain

; 673  : 				alpha = Drip->alpha * 255;

	mov	eax, DWORD PTR _Drip$[ebp]
	movss	xmm0, DWORD PTR [eax+20]
	mulss	xmm0, DWORD PTR __real@437f0000
	cvttss2si ecx, xmm0
	mov	BYTE PTR _alpha$21[ebp], cl
	jmp	SHORT $LN29@DrawRain
$LN28@DrawRain:

; 674  : 			else alpha = ((( Rain.globalHeight - Drip->origin.z ) / (float)SNOWFADEDIST ) * Drip->alpha) * 255;

	mov	eax, DWORD PTR _Drip$[ebp]
	movss	xmm0, DWORD PTR ?Rain@@3U<unnamed-type-Rain>@@A+28
	subss	xmm0, DWORD PTR [eax+16]
	divss	xmm0, DWORD PTR __real@42a00000
	mov	ecx, DWORD PTR _Drip$[ebp]
	mulss	xmm0, DWORD PTR [ecx+20]
	mulss	xmm0, DWORD PTR __real@437f0000
	cvttss2si edx, xmm0
	mov	BYTE PTR _alpha$21[ebp], dl
$LN29@DrawRain:

; 675  : 
; 676  : 			// set left bottom corner
; 677  : 			m_coordsarray[m_iNumVerts].x = 0.0f;

	mov	eax, DWORD PTR ?m_iNumVerts@@3HA
	xorps	xmm0, xmm0
	movss	DWORD PTR ?m_coordsarray@@3PAVVector2D@@A[eax*8], xmm0

; 678  : 			m_coordsarray[m_iNumVerts].y = 1.0f;

	mov	eax, DWORD PTR ?m_iNumVerts@@3HA
	movss	xmm0, DWORD PTR __real@3f800000
	movss	DWORD PTR ?m_coordsarray@@3PAVVector2D@@A[eax*8+4], xmm0

; 679  : 			m_colorarray[m_iNumVerts][0] = 255;

	mov	eax, 1
	imul	ecx, eax, 0
	mov	edx, DWORD PTR ?m_iNumVerts@@3HA
	mov	BYTE PTR ?m_colorarray@@3PAY03EA[ecx+edx*4], 255 ; 000000ffH

; 680  : 			m_colorarray[m_iNumVerts][1] = 255;

	mov	eax, 1
	shl	eax, 0
	mov	ecx, DWORD PTR ?m_iNumVerts@@3HA
	mov	BYTE PTR ?m_colorarray@@3PAY03EA[eax+ecx*4], 255 ; 000000ffH

; 681  : 			m_colorarray[m_iNumVerts][2] = 255;

	mov	eax, 1
	shl	eax, 1
	mov	ecx, DWORD PTR ?m_iNumVerts@@3HA
	mov	BYTE PTR ?m_colorarray@@3PAY03EA[eax+ecx*4], 255 ; 000000ffH

; 682  : 			m_colorarray[m_iNumVerts][3] = alpha;

	mov	eax, 1
	imul	ecx, eax, 3
	mov	edx, DWORD PTR ?m_iNumVerts@@3HA
	mov	al, BYTE PTR _alpha$21[ebp]
	mov	BYTE PTR ?m_colorarray@@3PAY03EA[ecx+edx*4], al

; 683  : 			m_vertexarray[m_iNumVerts] = Drip->origin + RI->vright * -SNOW_SPRITE_HALFSIZE + RI->vup * -SNOW_SPRITE_HALFSIZE;

	push	ecx
	movss	xmm0, DWORD PTR __real@c0400000
	movss	DWORD PTR [esp], xmm0
	lea	eax, DWORD PTR $T14[ebp]
	push	eax
	mov	ecx, DWORD PTR ?RI@@3PAUref_instance_t@@A ; RI
	add	ecx, 252				; 000000fcH
	call	??DVector@@QBE?AV0@M@Z			; Vector::operator*
	push	eax
	lea	ecx, DWORD PTR $T13[ebp]
	push	ecx
	push	ecx
	movss	xmm0, DWORD PTR __real@c0400000
	movss	DWORD PTR [esp], xmm0
	lea	edx, DWORD PTR $T16[ebp]
	push	edx
	mov	ecx, DWORD PTR ?RI@@3PAUref_instance_t@@A ; RI
	add	ecx, 240				; 000000f0H
	call	??DVector@@QBE?AV0@M@Z			; Vector::operator*
	push	eax
	lea	eax, DWORD PTR $T15[ebp]
	push	eax
	mov	ecx, DWORD PTR _Drip$[ebp]
	add	ecx, 8
	call	??HVector@@QBE?AV0@ABV0@@Z		; Vector::operator+
	mov	ecx, eax
	call	??HVector@@QBE?AV0@ABV0@@Z		; Vector::operator+
	imul	ecx, DWORD PTR ?m_iNumVerts@@3HA, 12
	add	ecx, OFFSET ?m_vertexarray@@3PAVVector@@A
	mov	edx, DWORD PTR [eax]
	mov	DWORD PTR [ecx], edx
	mov	edx, DWORD PTR [eax+4]
	mov	DWORD PTR [ecx+4], edx
	mov	eax, DWORD PTR [eax+8]
	mov	DWORD PTR [ecx+8], eax

; 684  : 			m_indexarray[m_iNumIndex++] = m_iNumVerts++;

	mov	eax, DWORD PTR ?m_iNumIndex@@3HA
	mov	cx, WORD PTR ?m_iNumVerts@@3HA
	mov	WORD PTR ?m_indexarray@@3PAGA[eax*2], cx
	mov	edx, DWORD PTR ?m_iNumIndex@@3HA
	add	edx, 1
	mov	DWORD PTR ?m_iNumIndex@@3HA, edx
	mov	eax, DWORD PTR ?m_iNumVerts@@3HA
	add	eax, 1
	mov	DWORD PTR ?m_iNumVerts@@3HA, eax

; 685  : 
; 686  : 			// set left top corner
; 687  : 			m_coordsarray[m_iNumVerts].x = 0.0f;

	mov	eax, DWORD PTR ?m_iNumVerts@@3HA
	xorps	xmm0, xmm0
	movss	DWORD PTR ?m_coordsarray@@3PAVVector2D@@A[eax*8], xmm0

; 688  : 			m_coordsarray[m_iNumVerts].y = 0.0f;

	mov	eax, DWORD PTR ?m_iNumVerts@@3HA
	xorps	xmm0, xmm0
	movss	DWORD PTR ?m_coordsarray@@3PAVVector2D@@A[eax*8+4], xmm0

; 689  : 			m_colorarray[m_iNumVerts][0] = 255;

	mov	eax, 1
	imul	ecx, eax, 0
	mov	edx, DWORD PTR ?m_iNumVerts@@3HA
	mov	BYTE PTR ?m_colorarray@@3PAY03EA[ecx+edx*4], 255 ; 000000ffH

; 690  : 			m_colorarray[m_iNumVerts][1] = 255;

	mov	eax, 1
	shl	eax, 0
	mov	ecx, DWORD PTR ?m_iNumVerts@@3HA
	mov	BYTE PTR ?m_colorarray@@3PAY03EA[eax+ecx*4], 255 ; 000000ffH

; 691  : 			m_colorarray[m_iNumVerts][2] = 255;

	mov	eax, 1
	shl	eax, 1
	mov	ecx, DWORD PTR ?m_iNumVerts@@3HA
	mov	BYTE PTR ?m_colorarray@@3PAY03EA[eax+ecx*4], 255 ; 000000ffH

; 692  : 			m_colorarray[m_iNumVerts][3] = alpha;

	mov	eax, 1
	imul	ecx, eax, 3
	mov	edx, DWORD PTR ?m_iNumVerts@@3HA
	mov	al, BYTE PTR _alpha$21[ebp]
	mov	BYTE PTR ?m_colorarray@@3PAY03EA[ecx+edx*4], al

; 693  : 			m_vertexarray[m_iNumVerts] = Drip->origin + RI->vright * -SNOW_SPRITE_HALFSIZE + RI->vup * SNOW_SPRITE_HALFSIZE;

	push	ecx
	movss	xmm0, DWORD PTR __real@40400000
	movss	DWORD PTR [esp], xmm0
	lea	eax, DWORD PTR $T10[ebp]
	push	eax
	mov	ecx, DWORD PTR ?RI@@3PAUref_instance_t@@A ; RI
	add	ecx, 252				; 000000fcH
	call	??DVector@@QBE?AV0@M@Z			; Vector::operator*
	push	eax
	lea	ecx, DWORD PTR $T9[ebp]
	push	ecx
	push	ecx
	movss	xmm0, DWORD PTR __real@c0400000
	movss	DWORD PTR [esp], xmm0
	lea	edx, DWORD PTR $T12[ebp]
	push	edx
	mov	ecx, DWORD PTR ?RI@@3PAUref_instance_t@@A ; RI
	add	ecx, 240				; 000000f0H
	call	??DVector@@QBE?AV0@M@Z			; Vector::operator*
	push	eax
	lea	eax, DWORD PTR $T11[ebp]
	push	eax
	mov	ecx, DWORD PTR _Drip$[ebp]
	add	ecx, 8
	call	??HVector@@QBE?AV0@ABV0@@Z		; Vector::operator+
	mov	ecx, eax
	call	??HVector@@QBE?AV0@ABV0@@Z		; Vector::operator+
	imul	ecx, DWORD PTR ?m_iNumVerts@@3HA, 12
	add	ecx, OFFSET ?m_vertexarray@@3PAVVector@@A
	mov	edx, DWORD PTR [eax]
	mov	DWORD PTR [ecx], edx
	mov	edx, DWORD PTR [eax+4]
	mov	DWORD PTR [ecx+4], edx
	mov	eax, DWORD PTR [eax+8]
	mov	DWORD PTR [ecx+8], eax

; 694  : 			m_indexarray[m_iNumIndex++] = m_iNumVerts++;

	mov	eax, DWORD PTR ?m_iNumIndex@@3HA
	mov	cx, WORD PTR ?m_iNumVerts@@3HA
	mov	WORD PTR ?m_indexarray@@3PAGA[eax*2], cx
	mov	edx, DWORD PTR ?m_iNumIndex@@3HA
	add	edx, 1
	mov	DWORD PTR ?m_iNumIndex@@3HA, edx
	mov	eax, DWORD PTR ?m_iNumVerts@@3HA
	add	eax, 1
	mov	DWORD PTR ?m_iNumVerts@@3HA, eax

; 695  : 
; 696  : 			// set right top corner
; 697  : 			m_coordsarray[m_iNumVerts].x = 1.0f;

	mov	eax, DWORD PTR ?m_iNumVerts@@3HA
	movss	xmm0, DWORD PTR __real@3f800000
	movss	DWORD PTR ?m_coordsarray@@3PAVVector2D@@A[eax*8], xmm0

; 698  : 			m_coordsarray[m_iNumVerts].y = 0.0f;

	mov	eax, DWORD PTR ?m_iNumVerts@@3HA
	xorps	xmm0, xmm0
	movss	DWORD PTR ?m_coordsarray@@3PAVVector2D@@A[eax*8+4], xmm0

; 699  : 			m_colorarray[m_iNumVerts][0] = 255;

	mov	eax, 1
	imul	ecx, eax, 0
	mov	edx, DWORD PTR ?m_iNumVerts@@3HA
	mov	BYTE PTR ?m_colorarray@@3PAY03EA[ecx+edx*4], 255 ; 000000ffH

; 700  : 			m_colorarray[m_iNumVerts][1] = 255;

	mov	eax, 1
	shl	eax, 0
	mov	ecx, DWORD PTR ?m_iNumVerts@@3HA
	mov	BYTE PTR ?m_colorarray@@3PAY03EA[eax+ecx*4], 255 ; 000000ffH

; 701  : 			m_colorarray[m_iNumVerts][2] = 255;

	mov	eax, 1
	shl	eax, 1
	mov	ecx, DWORD PTR ?m_iNumVerts@@3HA
	mov	BYTE PTR ?m_colorarray@@3PAY03EA[eax+ecx*4], 255 ; 000000ffH

; 702  : 			m_colorarray[m_iNumVerts][3] = alpha;

	mov	eax, 1
	imul	ecx, eax, 3
	mov	edx, DWORD PTR ?m_iNumVerts@@3HA
	mov	al, BYTE PTR _alpha$21[ebp]
	mov	BYTE PTR ?m_colorarray@@3PAY03EA[ecx+edx*4], al

; 703  : 			m_vertexarray[m_iNumVerts] = Drip->origin + RI->vright * SNOW_SPRITE_HALFSIZE + RI->vup * SNOW_SPRITE_HALFSIZE;

	push	ecx
	movss	xmm0, DWORD PTR __real@40400000
	movss	DWORD PTR [esp], xmm0
	lea	eax, DWORD PTR $T6[ebp]
	push	eax
	mov	ecx, DWORD PTR ?RI@@3PAUref_instance_t@@A ; RI
	add	ecx, 252				; 000000fcH
	call	??DVector@@QBE?AV0@M@Z			; Vector::operator*
	push	eax
	lea	ecx, DWORD PTR $T5[ebp]
	push	ecx
	push	ecx
	movss	xmm0, DWORD PTR __real@40400000
	movss	DWORD PTR [esp], xmm0
	lea	edx, DWORD PTR $T8[ebp]
	push	edx
	mov	ecx, DWORD PTR ?RI@@3PAUref_instance_t@@A ; RI
	add	ecx, 240				; 000000f0H
	call	??DVector@@QBE?AV0@M@Z			; Vector::operator*
	push	eax
	lea	eax, DWORD PTR $T7[ebp]
	push	eax
	mov	ecx, DWORD PTR _Drip$[ebp]
	add	ecx, 8
	call	??HVector@@QBE?AV0@ABV0@@Z		; Vector::operator+
	mov	ecx, eax
	call	??HVector@@QBE?AV0@ABV0@@Z		; Vector::operator+
	imul	ecx, DWORD PTR ?m_iNumVerts@@3HA, 12
	add	ecx, OFFSET ?m_vertexarray@@3PAVVector@@A
	mov	edx, DWORD PTR [eax]
	mov	DWORD PTR [ecx], edx
	mov	edx, DWORD PTR [eax+4]
	mov	DWORD PTR [ecx+4], edx
	mov	eax, DWORD PTR [eax+8]
	mov	DWORD PTR [ecx+8], eax

; 704  : 			m_indexarray[m_iNumIndex++] = m_iNumVerts++;

	mov	eax, DWORD PTR ?m_iNumIndex@@3HA
	mov	cx, WORD PTR ?m_iNumVerts@@3HA
	mov	WORD PTR ?m_indexarray@@3PAGA[eax*2], cx
	mov	edx, DWORD PTR ?m_iNumIndex@@3HA
	add	edx, 1
	mov	DWORD PTR ?m_iNumIndex@@3HA, edx
	mov	eax, DWORD PTR ?m_iNumVerts@@3HA
	add	eax, 1
	mov	DWORD PTR ?m_iNumVerts@@3HA, eax

; 705  : 
; 706  : 			// set right bottom corner
; 707  : 			m_coordsarray[m_iNumVerts].x = 1.0f;

	mov	eax, DWORD PTR ?m_iNumVerts@@3HA
	movss	xmm0, DWORD PTR __real@3f800000
	movss	DWORD PTR ?m_coordsarray@@3PAVVector2D@@A[eax*8], xmm0

; 708  : 			m_coordsarray[m_iNumVerts].y = 1.0f;

	mov	eax, DWORD PTR ?m_iNumVerts@@3HA
	movss	xmm0, DWORD PTR __real@3f800000
	movss	DWORD PTR ?m_coordsarray@@3PAVVector2D@@A[eax*8+4], xmm0

; 709  : 			m_colorarray[m_iNumVerts][0] = 255;

	mov	eax, 1
	imul	ecx, eax, 0
	mov	edx, DWORD PTR ?m_iNumVerts@@3HA
	mov	BYTE PTR ?m_colorarray@@3PAY03EA[ecx+edx*4], 255 ; 000000ffH

; 710  : 			m_colorarray[m_iNumVerts][1] = 255;

	mov	eax, 1
	shl	eax, 0
	mov	ecx, DWORD PTR ?m_iNumVerts@@3HA
	mov	BYTE PTR ?m_colorarray@@3PAY03EA[eax+ecx*4], 255 ; 000000ffH

; 711  : 			m_colorarray[m_iNumVerts][2] = 255;

	mov	eax, 1
	shl	eax, 1
	mov	ecx, DWORD PTR ?m_iNumVerts@@3HA
	mov	BYTE PTR ?m_colorarray@@3PAY03EA[eax+ecx*4], 255 ; 000000ffH

; 712  : 			m_colorarray[m_iNumVerts][3] = alpha;

	mov	eax, 1
	imul	ecx, eax, 3
	mov	edx, DWORD PTR ?m_iNumVerts@@3HA
	mov	al, BYTE PTR _alpha$21[ebp]
	mov	BYTE PTR ?m_colorarray@@3PAY03EA[ecx+edx*4], al

; 713  : 			m_vertexarray[m_iNumVerts] = Drip->origin + RI->vright * SNOW_SPRITE_HALFSIZE + RI->vup * -SNOW_SPRITE_HALFSIZE;

	push	ecx
	movss	xmm0, DWORD PTR __real@c0400000
	movss	DWORD PTR [esp], xmm0
	lea	eax, DWORD PTR $T2[ebp]
	push	eax
	mov	ecx, DWORD PTR ?RI@@3PAUref_instance_t@@A ; RI
	add	ecx, 252				; 000000fcH
	call	??DVector@@QBE?AV0@M@Z			; Vector::operator*
	push	eax
	lea	ecx, DWORD PTR $T1[ebp]
	push	ecx
	push	ecx
	movss	xmm0, DWORD PTR __real@40400000
	movss	DWORD PTR [esp], xmm0
	lea	edx, DWORD PTR $T4[ebp]
	push	edx
	mov	ecx, DWORD PTR ?RI@@3PAUref_instance_t@@A ; RI
	add	ecx, 240				; 000000f0H
	call	??DVector@@QBE?AV0@M@Z			; Vector::operator*
	push	eax
	lea	eax, DWORD PTR $T3[ebp]
	push	eax
	mov	ecx, DWORD PTR _Drip$[ebp]
	add	ecx, 8
	call	??HVector@@QBE?AV0@ABV0@@Z		; Vector::operator+
	mov	ecx, eax
	call	??HVector@@QBE?AV0@ABV0@@Z		; Vector::operator+
	imul	ecx, DWORD PTR ?m_iNumVerts@@3HA, 12
	add	ecx, OFFSET ?m_vertexarray@@3PAVVector@@A
	mov	edx, DWORD PTR [eax]
	mov	DWORD PTR [ecx], edx
	mov	edx, DWORD PTR [eax+4]
	mov	DWORD PTR [ecx+4], edx
	mov	eax, DWORD PTR [eax+8]
	mov	DWORD PTR [ecx+8], eax

; 714  : 			m_indexarray[m_iNumIndex++] = m_iNumVerts++;

	mov	eax, DWORD PTR ?m_iNumIndex@@3HA
	mov	cx, WORD PTR ?m_iNumVerts@@3HA
	mov	WORD PTR ?m_indexarray@@3PAGA[eax*2], cx
	mov	edx, DWORD PTR ?m_iNumIndex@@3HA
	add	edx, 1
	mov	DWORD PTR ?m_iNumIndex@@3HA, edx
	mov	eax, DWORD PTR ?m_iNumVerts@@3HA
	add	eax, 1
	mov	DWORD PTR ?m_iNumVerts@@3HA, eax

; 715  : 
; 716  : 			g_dripsArray.MoveNext();

	mov	ecx, OFFSET ?g_dripsArray@@3V?$MemBlock@Ucl_drip@@@@A ; g_dripsArray
	call	?MoveNext@?$MemBlock@Ucl_drip@@@@QAEXXZ	; MemBlock<cl_drip>::MoveNext

; 717  : 			Drip = g_dripsArray.GetCurrent();

	mov	ecx, OFFSET ?g_dripsArray@@3V?$MemBlock@Ucl_drip@@@@A ; g_dripsArray
	call	?GetCurrent@?$MemBlock@Ucl_drip@@@@QAEPAUcl_drip@@XZ ; MemBlock<cl_drip>::GetCurrent
	mov	DWORD PTR _Drip$[ebp], eax

; 718  : 		}

	jmp	$LN35@DrawRain
$LN5@DrawRain:

; 719  : 
; 720  : 		if( m_iNumVerts && m_iNumIndex )

	cmp	DWORD PTR ?m_iNumVerts@@3HA, 0
	je	SHORT $LN30@DrawRain
	cmp	DWORD PTR ?m_iNumIndex@@3HA, 0
	je	SHORT $LN30@DrawRain

; 721  : 		{
; 722  : 			// flush any remaining verts
; 723  : 			if( GL_Support( R_DRAW_RANGEELEMENTS_EXT ))

	push	11					; 0000000bH
	call	?GL_Support@@YA_NH@Z			; GL_Support
	add	esp, 4
	movzx	eax, al
	test	eax, eax
	je	SHORT $LN31@DrawRain

; 724  : 				pglDrawRangeElementsEXT( GL_QUADS, 0, m_iNumVerts, m_iNumIndex, GL_UNSIGNED_SHORT, m_indexarray );

	push	OFFSET ?m_indexarray@@3PAGA
	push	5123					; 00001403H
	mov	eax, DWORD PTR ?m_iNumIndex@@3HA
	push	eax
	mov	ecx, DWORD PTR ?m_iNumVerts@@3HA
	push	ecx
	push	0
	push	7
	call	DWORD PTR ?pglDrawRangeElementsEXT@@3P6GXIIIHIPBX@ZA ; pglDrawRangeElementsEXT
	jmp	SHORT $LN32@DrawRain
$LN31@DrawRain:

; 725  : 			else pglDrawElements( GL_QUADS, m_iNumIndex, GL_UNSIGNED_SHORT, m_indexarray );

	push	OFFSET ?m_indexarray@@3PAGA
	push	5123					; 00001403H
	mov	eax, DWORD PTR ?m_iNumIndex@@3HA
	push	eax
	push	7
	call	DWORD PTR ?pglDrawElements@@3P6GXIHIPBX@ZA ; pglDrawElements
$LN32@DrawRain:

; 726  : 			r_stats.c_total_tris += (m_iNumVerts / 2);

	mov	eax, DWORD PTR ?m_iNumVerts@@3HA
	cdq
	sub	eax, edx
	sar	eax, 1
	add	eax, DWORD PTR ?r_stats@@3Uref_stats_t@@A+60
	mov	DWORD PTR ?r_stats@@3Uref_stats_t@@A+60, eax

; 727  : 			r_stats.num_flushes++;

	mov	eax, DWORD PTR ?r_stats@@3Uref_stats_t@@A+88
	add	eax, 1
	mov	DWORD PTR ?r_stats@@3Uref_stats_t@@A+88, eax
$LN30@DrawRain:

; 728  : 		}
; 729  : 	}
; 730  : 
; 731  : 	pglDisableClientState( GL_TEXTURE_COORD_ARRAY );

	push	32888					; 00008078H
	call	DWORD PTR ?pglDisableClientState@@3P6GXI@ZA ; pglDisableClientState

; 732  : 	pglDisableClientState( GL_VERTEX_ARRAY );

	push	32884					; 00008074H
	call	DWORD PTR ?pglDisableClientState@@3P6GXI@ZA ; pglDisableClientState

; 733  : 	pglDisableClientState( GL_COLOR_ARRAY );

	push	32886					; 00008076H
	call	DWORD PTR ?pglDisableClientState@@3P6GXI@ZA ; pglDisableClientState
$LN1@DrawRain:

; 734  : }

	pop	edi
	pop	esi
	pop	ebx
	mov	esp, ebp
	pop	ebp
	ret	0
?DrawRain@@YAXXZ ENDP					; DrawRain
_TEXT	ENDS
; Function compile flags: /Odtp /ZI
; File d:\!diffusion 2020\source code 2022\client-server\client\render\r_weather.cpp
;	COMDAT ?ProcessFXObjects@@YAXXZ
_TEXT	SEGMENT
_curFX$ = -4						; size = 4
?ProcessFXObjects@@YAXXZ PROC				; ProcessFXObjects, COMDAT

; 342  : {

	push	ebp
	mov	ebp, esp
	sub	esp, 68					; 00000044H
	push	ebx
	push	esi
	push	edi

; 343  : 	if( !g_fxArray.StartPass( ))

	mov	ecx, OFFSET ?g_fxArray@@3V?$MemBlock@Ucl_rainfx@@@@A ; g_fxArray
	call	?StartPass@?$MemBlock@Ucl_rainfx@@@@QAE_NXZ ; MemBlock<cl_rainfx>::StartPass
	movzx	eax, al
	test	eax, eax
	jne	SHORT $LN4@ProcessFXO

; 344  : 	{
; 345  : 		Rain.dripsPerSecond = 0; // disable rain

	mov	DWORD PTR ?Rain@@3U<unnamed-type-Rain>@@A, 0

; 346  : 		ALERT( at_error, "rain: failed to allocate FX object!\n" );

	push	OFFSET ??_C@_0CF@LAPKHEFD@rain?3?5failed?5to?5allocate?5FX?5obje@
	push	4
	call	?ALERT@@YAXW4ALERT_TYPE@@PADZZ		; ALERT
	add	esp, 8

; 347  : 		return;

	jmp	SHORT $LN1@ProcessFXO
$LN4@ProcessFXO:

; 348  : 	}
; 349  : 
; 350  : 	cl_rainfx* curFX = g_fxArray.GetCurrent();

	mov	ecx, OFFSET ?g_fxArray@@3V?$MemBlock@Ucl_rainfx@@@@A ; g_fxArray
	call	?GetCurrent@?$MemBlock@Ucl_rainfx@@@@QAEPAUcl_rainfx@@XZ ; MemBlock<cl_rainfx>::GetCurrent
	mov	DWORD PTR _curFX$[ebp], eax
$LN2@ProcessFXO:

; 351  : 
; 352  : 	while( curFX != NULL ) // go through FX objects list

	cmp	DWORD PTR _curFX$[ebp], 0
	je	SHORT $LN3@ProcessFXO

; 353  : 	{
; 354  : 		// delete current?
; 355  : 		if(( curFX->birthTime + curFX->life ) < rain_curtime )

	mov	eax, DWORD PTR _curFX$[ebp]
	mov	ecx, DWORD PTR _curFX$[ebp]
	movss	xmm0, DWORD PTR [eax]
	addss	xmm0, DWORD PTR [ecx+4]
	cvtss2sd xmm0, xmm0
	movsd	xmm1, QWORD PTR ?rain_curtime@@3NA
	comisd	xmm1, xmm0
	jbe	SHORT $LN5@ProcessFXO

; 356  : 		{
; 357  : 			g_fxArray.DeleteCurrent();					

	mov	ecx, OFFSET ?g_fxArray@@3V?$MemBlock@Ucl_rainfx@@@@A ; g_fxArray
	call	?DeleteCurrent@?$MemBlock@Ucl_rainfx@@@@QAEXXZ ; MemBlock<cl_rainfx>::DeleteCurrent

; 358  : 			fxcounter--;

	mov	eax, DWORD PTR ?fxcounter@@3HA		; fxcounter
	sub	eax, 1
	mov	DWORD PTR ?fxcounter@@3HA, eax		; fxcounter

; 359  : 		}
; 360  : 		else

	jmp	SHORT $LN6@ProcessFXO
$LN5@ProcessFXO:

; 361  : 			g_fxArray.MoveNext();

	mov	ecx, OFFSET ?g_fxArray@@3V?$MemBlock@Ucl_rainfx@@@@A ; g_fxArray
	call	?MoveNext@?$MemBlock@Ucl_rainfx@@@@QAEXXZ ; MemBlock<cl_rainfx>::MoveNext
$LN6@ProcessFXO:

; 362  : 
; 363  : 		curFX = g_fxArray.GetCurrent();

	mov	ecx, OFFSET ?g_fxArray@@3V?$MemBlock@Ucl_rainfx@@@@A ; g_fxArray
	call	?GetCurrent@?$MemBlock@Ucl_rainfx@@@@QAEPAUcl_rainfx@@XZ ; MemBlock<cl_rainfx>::GetCurrent
	mov	DWORD PTR _curFX$[ebp], eax

; 364  : 	}

	jmp	SHORT $LN2@ProcessFXO
$LN3@ProcessFXO:
$LN1@ProcessFXO:

; 365  : }

	pop	edi
	pop	esi
	pop	ebx
	mov	esp, ebp
	pop	ebp
	ret	0
?ProcessFXObjects@@YAXXZ ENDP				; ProcessFXObjects
_TEXT	ENDS
; Function compile flags: /Odtp /ZI
; File d:\!diffusion 2020\source code 2022\client-server\client\render\r_weather.cpp
;	COMDAT ?ProcessRain@@YAXXZ
_TEXT	SEGMENT
tv73 = -252						; size = 8
tv855 = -248						; size = 4
tv853 = -248						; size = 4
tv851 = -248						; size = 4
tv849 = -248						; size = 4
tv810 = -248						; size = 4
tv760 = -248						; size = 4
tv751 = -248						; size = 4
$T1 = -236						; size = 12
_ave$2 = -160						; size = 4
_newClDrip$3 = -156					; size = 4
_pwater$4 = -152					; size = 4
_waterEntity$5 = -148					; size = 4
_contents$6 = -144					; size = 4
_pmtrace$7 = -140					; size = 68
_yDelta$8 = -72						; size = 4
_xDelta$9 = -68						; size = 4
_vecEnd$10 = -64					; size = 12
_vecStart$11 = -52					; size = 12
_deathHeight$12 = -40					; size = 4
_falltime$ = -36					; size = 4
_maxDelta$ = -32					; size = 4
_debug_dropped$ = -28					; size = 4
_debug_attempted$ = -24					; size = 4
_debug_howmany$ = -20					; size = 4
_debug_lifetime$ = -16					; size = 4
_curDrip$ = -12						; size = 4
_timeBetweenDrips$ = -8					; size = 8
?ProcessRain@@YAXXZ PROC				; ProcessRain, COMDAT

; 69   : {

	push	ebp
	mov	ebp, esp
	sub	esp, 252				; 000000fcH
	push	ebx
	push	esi
	push	edi

; 70   : 	rain_oldtime = rain_curtime; // save old time

	movsd	xmm0, QWORD PTR ?rain_curtime@@3NA
	movsd	QWORD PTR ?rain_oldtime@@3NA, xmm0

; 71   : 	rain_curtime = tr.time;

	movsd	xmm0, QWORD PTR ?tr@@3Uref_globals_t@@A+8
	movsd	QWORD PTR ?rain_curtime@@3NA, xmm0

; 72   : 	rain_timedelta = rain_curtime - rain_oldtime;

	movsd	xmm0, QWORD PTR ?rain_curtime@@3NA
	subsd	xmm0, QWORD PTR ?rain_oldtime@@3NA
	movsd	QWORD PTR ?rain_timedelta@@3NA, xmm0

; 73   : 
; 74   : 	// first frame
; 75   : 	if( rain_oldtime == 0 )

	movsd	xmm0, QWORD PTR ?rain_oldtime@@3NA
	ucomisd	xmm0, QWORD PTR __real@0000000000000000
	lahf
	test	ah, 68					; 00000044H
	jp	SHORT $LN6@ProcessRai

; 76   : 	{
; 77   : 		// fix first frame bug with nextspawntime
; 78   : 		rain_nextspawntime = rain_curtime;

	movsd	xmm0, QWORD PTR ?rain_curtime@@3NA
	movsd	QWORD PTR ?rain_nextspawntime@@3NA, xmm0

; 79   : 		ParseRainFile();

	call	?ParseRainFile@@YAXXZ			; ParseRainFile

; 80   : 		return;

	jmp	$LN1@ProcessRai
$LN6@ProcessRai:

; 81   : 	}
; 82   : 
; 83   : 	if(( !Rain.dripsPerSecond && g_dripsArray.IsClear( )) || rain_timedelta > 0.1f )

	cmp	DWORD PTR ?Rain@@3U<unnamed-type-Rain>@@A, 0
	jne	SHORT $LN9@ProcessRai
	mov	ecx, OFFSET ?g_dripsArray@@3V?$MemBlock@Ucl_drip@@@@A ; g_dripsArray
	call	?IsClear@?$MemBlock@Ucl_drip@@@@QAE_NXZ	; MemBlock<cl_drip>::IsClear
	movzx	eax, al
	test	eax, eax
	jne	SHORT $LN8@ProcessRai
$LN9@ProcessRai:
	movsd	xmm0, QWORD PTR ?rain_timedelta@@3NA
	comisd	xmm0, QWORD PTR __real@3fb99999a0000000
	jbe	SHORT $LN7@ProcessRai
$LN8@ProcessRai:

; 84   : 	{
; 85   : 		rain_timedelta = min( rain_timedelta, 0.1f );

	movsd	xmm0, QWORD PTR __real@3fb99999a0000000
	comisd	xmm0, QWORD PTR ?rain_timedelta@@3NA
	jbe	SHORT $LN49@ProcessRai
	movsd	xmm0, QWORD PTR ?rain_timedelta@@3NA
	movsd	QWORD PTR tv73[ebp], xmm0
	jmp	SHORT $LN50@ProcessRai
$LN49@ProcessRai:
	movsd	xmm0, QWORD PTR __real@3fb99999a0000000
	movsd	QWORD PTR tv73[ebp], xmm0
$LN50@ProcessRai:
	movsd	xmm0, QWORD PTR tv73[ebp]
	movsd	QWORD PTR ?rain_timedelta@@3NA, xmm0

; 86   : 
; 87   : 		// keep nextspawntime correct
; 88   : 		rain_nextspawntime = rain_curtime;

	movsd	xmm0, QWORD PTR ?rain_curtime@@3NA
	movsd	QWORD PTR ?rain_nextspawntime@@3NA, xmm0

; 89   : 		return;

	jmp	$LN1@ProcessRai
$LN7@ProcessRai:

; 90   : 	}
; 91   : 
; 92   : 	if( rain_timedelta == 0 ) return; // not in pause

	movsd	xmm0, QWORD PTR ?rain_timedelta@@3NA
	ucomisd	xmm0, QWORD PTR __real@0000000000000000
	lahf
	test	ah, 68					; 00000044H
	jp	SHORT $LN10@ProcessRai
	jmp	$LN1@ProcessRai
$LN10@ProcessRai:

; 93   : 
; 94   : 	double timeBetweenDrips = 1.0 / (double)Rain.dripsPerSecond;

	cvtsi2sd xmm0, DWORD PTR ?Rain@@3U<unnamed-type-Rain>@@A
	movsd	xmm1, QWORD PTR __real@3ff0000000000000
	divsd	xmm1, xmm0
	movsd	QWORD PTR _timeBetweenDrips$[ebp], xmm1

; 95   : 
; 96   : 	if( !g_dripsArray.StartPass( ))

	mov	ecx, OFFSET ?g_dripsArray@@3V?$MemBlock@Ucl_drip@@@@A ; g_dripsArray
	call	?StartPass@?$MemBlock@Ucl_drip@@@@QAE_NXZ ; MemBlock<cl_drip>::StartPass
	movzx	eax, al
	test	eax, eax
	jne	SHORT $LN11@ProcessRai

; 97   : 	{
; 98   : 		Rain.dripsPerSecond = 0; // disable rain

	mov	DWORD PTR ?Rain@@3U<unnamed-type-Rain>@@A, 0

; 99   : 		ALERT( at_error, "rain: failed to allocate memory block!\n" );

	push	OFFSET ??_C@_0CI@CILLMKND@rain?3?5failed?5to?5allocate?5memory?5@
	push	4
	call	?ALERT@@YAXW4ALERT_TYPE@@PADZZ		; ALERT
	add	esp, 8

; 100  : 		return;

	jmp	$LN1@ProcessRai
$LN11@ProcessRai:

; 101  : 	}
; 102  : 
; 103  : 	cl_drip *curDrip = g_dripsArray.GetCurrent();

	mov	ecx, OFFSET ?g_dripsArray@@3V?$MemBlock@Ucl_drip@@@@A ; g_dripsArray
	call	?GetCurrent@?$MemBlock@Ucl_drip@@@@QAEPAUcl_drip@@XZ ; MemBlock<cl_drip>::GetCurrent
	mov	DWORD PTR _curDrip$[ebp], eax

; 104  : 
; 105  : 	// save debug info
; 106  : 	float debug_lifetime = 0;

	xorps	xmm0, xmm0
	movss	DWORD PTR _debug_lifetime$[ebp], xmm0

; 107  : 	int debug_howmany = 0;

	mov	DWORD PTR _debug_howmany$[ebp], 0

; 108  : 	int debug_attempted = 0;

	mov	DWORD PTR _debug_attempted$[ebp], 0

; 109  : 	int debug_dropped = 0;

	mov	DWORD PTR _debug_dropped$[ebp], 0

; 110  : 
; 111  : 	ClearBounds( rain_mins, rain_maxs );

	push	OFFSET ?rain_maxs@@3VVector@@A
	push	OFFSET ?rain_mins@@3VVector@@A
	call	?ClearBounds@@YAXAAVVector@@0@Z		; ClearBounds
	add	esp, 8
$LN2@ProcessRai:

; 112  : 
; 113  : 	while( curDrip != NULL ) // go through list

	cmp	DWORD PTR _curDrip$[ebp], 0
	je	$LN3@ProcessRai

; 114  : 	{
; 115  : 		if( Rain.weatherMode == MODE_RAIN )

	cmp	DWORD PTR ?Rain@@3U<unnamed-type-Rain>@@A+24, 0
	jne	SHORT $LN12@ProcessRai

; 116  : 			curDrip->origin.z -= rain_timedelta * DRIPSPEED;

	movsd	xmm0, QWORD PTR ?rain_timedelta@@3NA
	mulsd	xmm0, QWORD PTR __real@408c200000000000
	mov	eax, DWORD PTR _curDrip$[ebp]
	cvtss2sd xmm1, DWORD PTR [eax+16]
	subsd	xmm1, xmm0
	cvtsd2ss xmm0, xmm1
	mov	ecx, DWORD PTR _curDrip$[ebp]
	movss	DWORD PTR [ecx+16], xmm0
	jmp	SHORT $LN15@ProcessRai
$LN12@ProcessRai:

; 117  : 		else if( Rain.weatherMode == MODE_SNOW )

	cmp	DWORD PTR ?Rain@@3U<unnamed-type-Rain>@@A+24, 1
	jne	SHORT $LN14@ProcessRai

; 118  : 			curDrip->origin.z -= rain_timedelta * SNOWSPEED;

	movsd	xmm0, QWORD PTR ?rain_timedelta@@3NA
	mulsd	xmm0, QWORD PTR __real@4069000000000000
	mov	eax, DWORD PTR _curDrip$[ebp]
	cvtss2sd xmm1, DWORD PTR [eax+16]
	subsd	xmm1, xmm0
	cvtsd2ss xmm0, xmm1
	mov	ecx, DWORD PTR _curDrip$[ebp]
	movss	DWORD PTR [ecx+16], xmm0

; 119  : 		else return;

	jmp	SHORT $LN15@ProcessRai
$LN14@ProcessRai:
	jmp	$LN1@ProcessRai
$LN15@ProcessRai:

; 120  : 
; 121  : 		curDrip->origin.x += rain_timedelta * curDrip->xDelta;

	mov	eax, DWORD PTR _curDrip$[ebp]
	cvtss2sd xmm0, DWORD PTR [eax+24]
	mulsd	xmm0, QWORD PTR ?rain_timedelta@@3NA
	mov	ecx, DWORD PTR _curDrip$[ebp]
	cvtss2sd xmm1, DWORD PTR [ecx+8]
	addsd	xmm1, xmm0
	cvtsd2ss xmm0, xmm1
	mov	edx, DWORD PTR _curDrip$[ebp]
	movss	DWORD PTR [edx+8], xmm0

; 122  : 		curDrip->origin.y += rain_timedelta * curDrip->yDelta;

	mov	eax, DWORD PTR _curDrip$[ebp]
	cvtss2sd xmm0, DWORD PTR [eax+28]
	mulsd	xmm0, QWORD PTR ?rain_timedelta@@3NA
	mov	ecx, DWORD PTR _curDrip$[ebp]
	cvtss2sd xmm1, DWORD PTR [ecx+12]
	addsd	xmm1, xmm0
	cvtsd2ss xmm0, xmm1
	mov	edx, DWORD PTR _curDrip$[ebp]
	movss	DWORD PTR [edx+12], xmm0

; 123  : #if 1
; 124  : 		// unrolled version of AddPointToBounds (perf)
; 125  : 		if( curDrip->origin[0] < rain_mins[0] ) rain_mins[0] = curDrip->origin[0];

	mov	ecx, DWORD PTR _curDrip$[ebp]
	add	ecx, 8
	call	??BVector@@QAEPAMXZ			; Vector::operator float *
	mov	esi, eax
	mov	eax, 4
	imul	edi, eax, 0
	mov	ecx, OFFSET ?rain_mins@@3VVector@@A
	call	??BVector@@QAEPAMXZ			; Vector::operator float *
	mov	ecx, 4
	imul	edx, ecx, 0
	movss	xmm0, DWORD PTR [eax+edx]
	comiss	xmm0, DWORD PTR [esi+edi]
	jbe	SHORT $LN16@ProcessRai
	mov	ecx, DWORD PTR _curDrip$[ebp]
	add	ecx, 8
	call	??BVector@@QAEPAMXZ			; Vector::operator float *
	mov	esi, eax
	mov	eax, 4
	imul	edi, eax, 0
	mov	ecx, OFFSET ?rain_mins@@3VVector@@A
	call	??BVector@@QAEPAMXZ			; Vector::operator float *
	mov	ecx, 4
	imul	edx, ecx, 0
	mov	ecx, DWORD PTR [esi+edi]
	mov	DWORD PTR [eax+edx], ecx
$LN16@ProcessRai:

; 126  : 		if( curDrip->origin[0] > rain_maxs[0] ) rain_maxs[0] = curDrip->origin[0];

	mov	ecx, DWORD PTR _curDrip$[ebp]
	add	ecx, 8
	call	??BVector@@QAEPAMXZ			; Vector::operator float *
	mov	esi, eax
	mov	eax, 4
	imul	edi, eax, 0
	mov	ecx, OFFSET ?rain_maxs@@3VVector@@A
	call	??BVector@@QAEPAMXZ			; Vector::operator float *
	mov	ecx, 4
	imul	edx, ecx, 0
	movss	xmm0, DWORD PTR [esi+edi]
	comiss	xmm0, DWORD PTR [eax+edx]
	jbe	SHORT $LN17@ProcessRai
	mov	ecx, DWORD PTR _curDrip$[ebp]
	add	ecx, 8
	call	??BVector@@QAEPAMXZ			; Vector::operator float *
	mov	esi, eax
	mov	eax, 4
	imul	edi, eax, 0
	mov	ecx, OFFSET ?rain_maxs@@3VVector@@A
	call	??BVector@@QAEPAMXZ			; Vector::operator float *
	mov	ecx, 4
	imul	edx, ecx, 0
	mov	ecx, DWORD PTR [esi+edi]
	mov	DWORD PTR [eax+edx], ecx
$LN17@ProcessRai:

; 127  : 		if( curDrip->origin[1] < rain_mins[1] ) rain_mins[1] = curDrip->origin[1];

	mov	ecx, DWORD PTR _curDrip$[ebp]
	add	ecx, 8
	call	??BVector@@QAEPAMXZ			; Vector::operator float *
	mov	esi, eax
	mov	edi, 4
	shl	edi, 0
	mov	ecx, OFFSET ?rain_mins@@3VVector@@A
	call	??BVector@@QAEPAMXZ			; Vector::operator float *
	mov	ecx, 4
	shl	ecx, 0
	movss	xmm0, DWORD PTR [eax+ecx]
	comiss	xmm0, DWORD PTR [esi+edi]
	jbe	SHORT $LN18@ProcessRai
	mov	ecx, DWORD PTR _curDrip$[ebp]
	add	ecx, 8
	call	??BVector@@QAEPAMXZ			; Vector::operator float *
	mov	esi, eax
	mov	edi, 4
	shl	edi, 0
	mov	ecx, OFFSET ?rain_mins@@3VVector@@A
	call	??BVector@@QAEPAMXZ			; Vector::operator float *
	mov	ecx, 4
	shl	ecx, 0
	mov	edx, DWORD PTR [esi+edi]
	mov	DWORD PTR [eax+ecx], edx
$LN18@ProcessRai:

; 128  : 		if( curDrip->origin[1] > rain_maxs[1] ) rain_maxs[1] = curDrip->origin[1];

	mov	ecx, DWORD PTR _curDrip$[ebp]
	add	ecx, 8
	call	??BVector@@QAEPAMXZ			; Vector::operator float *
	mov	esi, eax
	mov	edi, 4
	shl	edi, 0
	mov	ecx, OFFSET ?rain_maxs@@3VVector@@A
	call	??BVector@@QAEPAMXZ			; Vector::operator float *
	mov	ecx, 4
	shl	ecx, 0
	movss	xmm0, DWORD PTR [esi+edi]
	comiss	xmm0, DWORD PTR [eax+ecx]
	jbe	SHORT $LN19@ProcessRai
	mov	ecx, DWORD PTR _curDrip$[ebp]
	add	ecx, 8
	call	??BVector@@QAEPAMXZ			; Vector::operator float *
	mov	esi, eax
	mov	edi, 4
	shl	edi, 0
	mov	ecx, OFFSET ?rain_maxs@@3VVector@@A
	call	??BVector@@QAEPAMXZ			; Vector::operator float *
	mov	ecx, 4
	shl	ecx, 0
	mov	edx, DWORD PTR [esi+edi]
	mov	DWORD PTR [eax+ecx], edx
$LN19@ProcessRai:

; 129  : 		if( curDrip->origin[2] < rain_mins[2] ) rain_mins[2] = curDrip->origin[2];

	mov	ecx, DWORD PTR _curDrip$[ebp]
	add	ecx, 8
	call	??BVector@@QAEPAMXZ			; Vector::operator float *
	mov	esi, eax
	mov	edi, 4
	shl	edi, 1
	mov	ecx, OFFSET ?rain_mins@@3VVector@@A
	call	??BVector@@QAEPAMXZ			; Vector::operator float *
	mov	ecx, 4
	shl	ecx, 1
	movss	xmm0, DWORD PTR [eax+ecx]
	comiss	xmm0, DWORD PTR [esi+edi]
	jbe	SHORT $LN20@ProcessRai
	mov	ecx, DWORD PTR _curDrip$[ebp]
	add	ecx, 8
	call	??BVector@@QAEPAMXZ			; Vector::operator float *
	mov	esi, eax
	mov	edi, 4
	shl	edi, 1
	mov	ecx, OFFSET ?rain_mins@@3VVector@@A
	call	??BVector@@QAEPAMXZ			; Vector::operator float *
	mov	ecx, 4
	shl	ecx, 1
	mov	edx, DWORD PTR [esi+edi]
	mov	DWORD PTR [eax+ecx], edx
$LN20@ProcessRai:

; 130  : 		if( curDrip->origin[2] > rain_maxs[2] ) rain_maxs[2] = curDrip->origin[2];

	mov	ecx, DWORD PTR _curDrip$[ebp]
	add	ecx, 8
	call	??BVector@@QAEPAMXZ			; Vector::operator float *
	mov	esi, eax
	mov	edi, 4
	shl	edi, 1
	mov	ecx, OFFSET ?rain_maxs@@3VVector@@A
	call	??BVector@@QAEPAMXZ			; Vector::operator float *
	mov	ecx, 4
	shl	ecx, 1
	movss	xmm0, DWORD PTR [esi+edi]
	comiss	xmm0, DWORD PTR [eax+ecx]
	jbe	SHORT $LN21@ProcessRai
	mov	ecx, DWORD PTR _curDrip$[ebp]
	add	ecx, 8
	call	??BVector@@QAEPAMXZ			; Vector::operator float *
	mov	esi, eax
	mov	edi, 4
	shl	edi, 1
	mov	ecx, OFFSET ?rain_maxs@@3VVector@@A
	call	??BVector@@QAEPAMXZ			; Vector::operator float *
	mov	ecx, 4
	shl	ecx, 1
	mov	edx, DWORD PTR [esi+edi]
	mov	DWORD PTR [eax+ecx], edx
$LN21@ProcessRai:

; 131  : #else
; 132  : 		AddPointToBounds( curDrip->origin, rain_mins, rain_maxs );
; 133  : #endif		
; 134  : 		// remove drip if its origin lower than minHeight
; 135  : 		if( curDrip->origin.z < curDrip->minHeight ) 

	mov	eax, DWORD PTR _curDrip$[ebp]
	mov	ecx, DWORD PTR _curDrip$[ebp]
	movss	xmm0, DWORD PTR [eax+4]
	comiss	xmm0, DWORD PTR [ecx+16]
	jbe	SHORT $LN22@ProcessRai

; 136  : 		{
; 137  : 			if( curDrip->landInWater )

	mov	eax, DWORD PTR _curDrip$[ebp]
	cmp	DWORD PTR [eax+32], 0
	je	SHORT $LN24@ProcessRai

; 138  : 				WaterLandingEffect( curDrip ); // create water rings

	mov	eax, DWORD PTR _curDrip$[ebp]
	push	eax
	call	?WaterLandingEffect@@YAXPAUcl_drip@@@Z	; WaterLandingEffect
	add	esp, 4
$LN24@ProcessRai:

; 139  : 
; 140  : 			if( cl_debug_rain->value )

	mov	eax, DWORD PTR ?cl_debug_rain@@3PAUcvar_s@@A ; cl_debug_rain
	movss	xmm0, DWORD PTR [eax+12]
	ucomiss	xmm0, DWORD PTR __real@00000000
	lahf
	test	ah, 68					; 00000044H
	jnp	SHORT $LN25@ProcessRai

; 141  : 			{
; 142  : 				debug_lifetime += (rain_curtime - curDrip->birthTime);

	mov	eax, DWORD PTR _curDrip$[ebp]
	cvtss2sd xmm0, DWORD PTR [eax]
	movsd	xmm1, QWORD PTR ?rain_curtime@@3NA
	subsd	xmm1, xmm0
	cvtss2sd xmm0, DWORD PTR _debug_lifetime$[ebp]
	addsd	xmm0, xmm1
	cvtsd2ss xmm0, xmm0
	movss	DWORD PTR _debug_lifetime$[ebp], xmm0

; 143  : 				debug_howmany++;

	mov	eax, DWORD PTR _debug_howmany$[ebp]
	add	eax, 1
	mov	DWORD PTR _debug_howmany$[ebp], eax
$LN25@ProcessRai:

; 144  : 			}
; 145  : 			
; 146  : 			g_dripsArray.DeleteCurrent();

	mov	ecx, OFFSET ?g_dripsArray@@3V?$MemBlock@Ucl_drip@@@@A ; g_dripsArray
	call	?DeleteCurrent@?$MemBlock@Ucl_drip@@@@QAEXXZ ; MemBlock<cl_drip>::DeleteCurrent

; 147  : 			dripcounter--;

	mov	eax, DWORD PTR ?dripcounter@@3HA	; dripcounter
	sub	eax, 1
	mov	DWORD PTR ?dripcounter@@3HA, eax	; dripcounter

; 148  : 		}
; 149  : 		else

	jmp	SHORT $LN23@ProcessRai
$LN22@ProcessRai:

; 150  : 			g_dripsArray.MoveNext();

	mov	ecx, OFFSET ?g_dripsArray@@3V?$MemBlock@Ucl_drip@@@@A ; g_dripsArray
	call	?MoveNext@?$MemBlock@Ucl_drip@@@@QAEXXZ	; MemBlock<cl_drip>::MoveNext
$LN23@ProcessRai:

; 151  : 
; 152  : 		curDrip = g_dripsArray.GetCurrent();

	mov	ecx, OFFSET ?g_dripsArray@@3V?$MemBlock@Ucl_drip@@@@A ; g_dripsArray
	call	?GetCurrent@?$MemBlock@Ucl_drip@@@@QAEPAUcl_drip@@XZ ; MemBlock<cl_drip>::GetCurrent
	mov	DWORD PTR _curDrip$[ebp], eax

; 153  : 	}

	jmp	$LN2@ProcessRai
$LN3@ProcessRai:

; 154  : 
; 155  : 	int maxDelta; // maximum height randomize distance
; 156  : 	float falltime;
; 157  : 
; 158  : 	if( Rain.weatherMode == MODE_RAIN )

	cmp	DWORD PTR ?Rain@@3U<unnamed-type-Rain>@@A+24, 0
	jne	SHORT $LN26@ProcessRai

; 159  : 	{
; 160  : 		maxDelta = DRIPSPEED * rain_timedelta; // for rain

	movsd	xmm0, QWORD PTR __real@408c200000000000
	mulsd	xmm0, QWORD PTR ?rain_timedelta@@3NA
	cvttsd2si eax, xmm0
	mov	DWORD PTR _maxDelta$[ebp], eax

; 161  : 		falltime = (Rain.globalHeight + 4096) / DRIPSPEED;

	movss	xmm0, DWORD PTR ?Rain@@3U<unnamed-type-Rain>@@A+28
	addss	xmm0, DWORD PTR __real@45800000
	divss	xmm0, DWORD PTR __real@44610000
	movss	DWORD PTR _falltime$[ebp], xmm0

; 162  : 	}
; 163  : 	else

	jmp	SHORT $LN27@ProcessRai
$LN26@ProcessRai:

; 164  : 	{
; 165  : 		maxDelta = SNOWSPEED * rain_timedelta; // for snow

	movsd	xmm0, QWORD PTR __real@4069000000000000
	mulsd	xmm0, QWORD PTR ?rain_timedelta@@3NA
	cvttsd2si eax, xmm0
	mov	DWORD PTR _maxDelta$[ebp], eax

; 166  : 		falltime = (Rain.globalHeight + 4096) / SNOWSPEED;

	movss	xmm0, DWORD PTR ?Rain@@3U<unnamed-type-Rain>@@A+28
	addss	xmm0, DWORD PTR __real@45800000
	divss	xmm0, DWORD PTR __real@43480000
	movss	DWORD PTR _falltime$[ebp], xmm0
$LN27@ProcessRai:

; 167  : 	}
; 168  : 
; 169  : 	while( rain_nextspawntime < rain_curtime )

	movsd	xmm0, QWORD PTR ?rain_curtime@@3NA
	comisd	xmm0, QWORD PTR ?rain_nextspawntime@@3NA
	jbe	$LN5@ProcessRai

; 170  : 	{
; 171  : 		rain_nextspawntime += timeBetweenDrips;		

	movsd	xmm0, QWORD PTR ?rain_nextspawntime@@3NA
	addsd	xmm0, QWORD PTR _timeBetweenDrips$[ebp]
	movsd	QWORD PTR ?rain_nextspawntime@@3NA, xmm0

; 172  : 
; 173  : 		if( cl_debug_rain->value )

	mov	eax, DWORD PTR ?cl_debug_rain@@3PAUcvar_s@@A ; cl_debug_rain
	movss	xmm0, DWORD PTR [eax+12]
	ucomiss	xmm0, DWORD PTR __real@00000000
	lahf
	test	ah, 68					; 00000044H
	jnp	SHORT $LN28@ProcessRai

; 174  : 			debug_attempted++;

	mov	eax, DWORD PTR _debug_attempted$[ebp]
	add	eax, 1
	mov	DWORD PTR _debug_attempted$[ebp], eax
$LN28@ProcessRai:

; 175  : 
; 176  : 		// check for overflow
; 177  : 		if( dripcounter < MAXDRIPS )

	cmp	DWORD PTR ?dripcounter@@3HA, 40000	; dripcounter, 00009c40H
	jge	$LN29@ProcessRai

; 178  : 		{
; 179  : 			float deathHeight = 0.0f;

	xorps	xmm0, xmm0
	movss	DWORD PTR _deathHeight$12[ebp], xmm0

; 180  : 			Vector vecStart, vecEnd;

	lea	ecx, DWORD PTR _vecStart$11[ebp]
	call	??0Vector@@QAE@XZ			; Vector::Vector
	lea	ecx, DWORD PTR _vecEnd$10[ebp]
	call	??0Vector@@QAE@XZ			; Vector::Vector

; 181  : 
; 182  : 			vecStart[0] = RANDOM_FLOAT( RI->vieworg.x - Rain.distFromPlayer, RI->vieworg.x + Rain.distFromPlayer );

	mov	eax, DWORD PTR ?RI@@3PAUref_instance_t@@A ; RI
	movss	xmm0, DWORD PTR [eax+204]
	addss	xmm0, DWORD PTR ?Rain@@3U<unnamed-type-Rain>@@A+4
	push	ecx
	movss	DWORD PTR [esp], xmm0
	mov	ecx, DWORD PTR ?RI@@3PAUref_instance_t@@A ; RI
	movss	xmm0, DWORD PTR [ecx+204]
	subss	xmm0, DWORD PTR ?Rain@@3U<unnamed-type-Rain>@@A+4
	push	ecx
	movss	DWORD PTR [esp], xmm0
	call	DWORD PTR ?gEngfuncs@@3Ucl_enginefuncs_s@@A+268
	add	esp, 8
	lea	ecx, DWORD PTR _vecStart$11[ebp]
	fstp	DWORD PTR tv849[ebp]
	call	??BVector@@QAEPAMXZ			; Vector::operator float *
	mov	edx, 4
	imul	ecx, edx, 0
	fld	DWORD PTR tv849[ebp]
	fstp	DWORD PTR [eax+ecx]

; 183  : 			vecStart[1] = RANDOM_FLOAT( RI->vieworg.y - Rain.distFromPlayer, RI->vieworg.y + Rain.distFromPlayer );

	mov	eax, DWORD PTR ?RI@@3PAUref_instance_t@@A ; RI
	movss	xmm0, DWORD PTR [eax+208]
	addss	xmm0, DWORD PTR ?Rain@@3U<unnamed-type-Rain>@@A+4
	push	ecx
	movss	DWORD PTR [esp], xmm0
	mov	ecx, DWORD PTR ?RI@@3PAUref_instance_t@@A ; RI
	movss	xmm0, DWORD PTR [ecx+208]
	subss	xmm0, DWORD PTR ?Rain@@3U<unnamed-type-Rain>@@A+4
	push	ecx
	movss	DWORD PTR [esp], xmm0
	call	DWORD PTR ?gEngfuncs@@3Ucl_enginefuncs_s@@A+268
	add	esp, 8
	lea	ecx, DWORD PTR _vecStart$11[ebp]
	fstp	DWORD PTR tv851[ebp]
	call	??BVector@@QAEPAMXZ			; Vector::operator float *
	mov	edx, 4
	shl	edx, 0
	fld	DWORD PTR tv851[ebp]
	fstp	DWORD PTR [eax+edx]

; 184  : 			vecStart[2] = Rain.globalHeight;

	lea	ecx, DWORD PTR _vecStart$11[ebp]
	call	??BVector@@QAEPAMXZ			; Vector::operator float *
	mov	ecx, 4
	shl	ecx, 1
	movss	xmm0, DWORD PTR ?Rain@@3U<unnamed-type-Rain>@@A+28
	movss	DWORD PTR [eax+ecx], xmm0

; 185  : 
; 186  : 			float xDelta = Rain.windX + RANDOM_FLOAT( Rain.randX * -1, Rain.randX );

	push	ecx
	movss	xmm0, DWORD PTR ?Rain@@3U<unnamed-type-Rain>@@A+16
	movss	DWORD PTR [esp], xmm0
	movss	xmm0, DWORD PTR ?Rain@@3U<unnamed-type-Rain>@@A+16
	mulss	xmm0, DWORD PTR __real@bf800000
	push	ecx
	movss	DWORD PTR [esp], xmm0
	call	DWORD PTR ?gEngfuncs@@3Ucl_enginefuncs_s@@A+268
	add	esp, 8
	fstp	DWORD PTR tv751[ebp]
	movss	xmm0, DWORD PTR tv751[ebp]
	addss	xmm0, DWORD PTR ?Rain@@3U<unnamed-type-Rain>@@A+8
	movss	DWORD PTR _xDelta$9[ebp], xmm0

; 187  : 			float yDelta = Rain.windY + RANDOM_FLOAT( Rain.randY * -1, Rain.randY );

	push	ecx
	movss	xmm0, DWORD PTR ?Rain@@3U<unnamed-type-Rain>@@A+20
	movss	DWORD PTR [esp], xmm0
	movss	xmm0, DWORD PTR ?Rain@@3U<unnamed-type-Rain>@@A+20
	mulss	xmm0, DWORD PTR __real@bf800000
	push	ecx
	movss	DWORD PTR [esp], xmm0
	call	DWORD PTR ?gEngfuncs@@3Ucl_enginefuncs_s@@A+268
	add	esp, 8
	fstp	DWORD PTR tv760[ebp]
	movss	xmm0, DWORD PTR tv760[ebp]
	addss	xmm0, DWORD PTR ?Rain@@3U<unnamed-type-Rain>@@A+12
	movss	DWORD PTR _yDelta$8[ebp], xmm0

; 188  : 
; 189  : 			// find a point at bottom of map
; 190  : 			vecEnd[0] = falltime * xDelta;

	movss	xmm0, DWORD PTR _falltime$[ebp]
	mulss	xmm0, DWORD PTR _xDelta$9[ebp]
	lea	ecx, DWORD PTR _vecEnd$10[ebp]
	movss	DWORD PTR tv853[ebp], xmm0
	call	??BVector@@QAEPAMXZ			; Vector::operator float *
	mov	ecx, 4
	imul	edx, ecx, 0
	movss	xmm0, DWORD PTR tv853[ebp]
	movss	DWORD PTR [eax+edx], xmm0

; 191  : 			vecEnd[1] = falltime * yDelta;

	movss	xmm0, DWORD PTR _falltime$[ebp]
	mulss	xmm0, DWORD PTR _yDelta$8[ebp]
	lea	ecx, DWORD PTR _vecEnd$10[ebp]
	movss	DWORD PTR tv855[ebp], xmm0
	call	??BVector@@QAEPAMXZ			; Vector::operator float *
	mov	ecx, 4
	shl	ecx, 0
	movss	xmm0, DWORD PTR tv855[ebp]
	movss	DWORD PTR [eax+ecx], xmm0

; 192  : 			vecEnd[2] = -4096;

	lea	ecx, DWORD PTR _vecEnd$10[ebp]
	call	??BVector@@QAEPAMXZ			; Vector::operator float *
	mov	ecx, 4
	shl	ecx, 1
	movss	xmm0, DWORD PTR __real@c5800000
	movss	DWORD PTR [eax+ecx], xmm0

; 193  : 
; 194  : 			pmtrace_t pmtrace;

	lea	ecx, DWORD PTR _pmtrace$7[ebp]
	call	??0pmtrace_s@@QAE@XZ

; 195  : 			int contents = CONTENTS_EMPTY;

	mov	DWORD PTR _contents$6[ebp], -1

; 196  : 
; 197  : 			// FIXME: use VisTraceLine instead to handle func_water
; 198  : 			gEngfuncs.pEventAPI->EV_SetTraceHull( 2 );

	push	2
	mov	eax, DWORD PTR ?gEngfuncs@@3Ucl_enginefuncs_s@@A+336
	mov	ecx, DWORD PTR [eax+56]
	call	ecx
	add	esp, 4

; 199  : 			gEngfuncs.pEventAPI->EV_PlayerTrace( vecStart, vecStart + vecEnd, PM_STUDIO_IGNORE, -1, &pmtrace );

	lea	eax, DWORD PTR _pmtrace$7[ebp]
	push	eax
	push	-1
	push	1
	lea	ecx, DWORD PTR _vecEnd$10[ebp]
	push	ecx
	lea	edx, DWORD PTR $T1[ebp]
	push	edx
	lea	ecx, DWORD PTR _vecStart$11[ebp]
	call	??HVector@@QBE?AV0@ABV0@@Z		; Vector::operator+
	mov	ecx, eax
	call	??BVector@@QAEPAMXZ			; Vector::operator float *
	push	eax
	lea	ecx, DWORD PTR _vecStart$11[ebp]
	call	??BVector@@QAEPAMXZ			; Vector::operator float *
	push	eax
	mov	eax, DWORD PTR ?gEngfuncs@@3Ucl_enginefuncs_s@@A+336
	mov	ecx, DWORD PTR [eax+60]
	call	ecx
	add	esp, 20					; 00000014H

; 200  : 
; 201  : 			// falling to water?
; 202  : 			contents = POINT_CONTENTS( pmtrace.endpos );

	push	0
	lea	ecx, DWORD PTR _pmtrace$7[ebp+20]
	call	??BVector@@QAEPAMXZ			; Vector::operator float *
	push	eax
	call	DWORD PTR ?gEngfuncs@@3Ucl_enginefuncs_s@@A+228
	add	esp, 8
	mov	DWORD PTR _contents$6[ebp], eax

; 203  : 
; 204  : 			if( pmtrace.startsolid || pmtrace.allsolid )

	cmp	DWORD PTR _pmtrace$7[ebp+4], 0
	jne	SHORT $LN32@ProcessRai
	cmp	DWORD PTR _pmtrace$7[ebp], 0
	je	SHORT $LN31@ProcessRai
$LN32@ProcessRai:

; 205  : 			{
; 206  : 				if( cl_debug_rain->value )

	mov	eax, DWORD PTR ?cl_debug_rain@@3PAUcvar_s@@A ; cl_debug_rain
	movss	xmm0, DWORD PTR [eax+12]
	ucomiss	xmm0, DWORD PTR __real@00000000
	lahf
	test	ah, 68					; 00000044H
	jnp	SHORT $LN33@ProcessRai

; 207  : 					debug_dropped++;

	mov	eax, DWORD PTR _debug_dropped$[ebp]
	add	eax, 1
	mov	DWORD PTR _debug_dropped$[ebp], eax
$LN33@ProcessRai:

; 208  : 				continue; // drip cannot be placed

	jmp	$LN27@ProcessRai
$LN31@ProcessRai:

; 209  : 			}
; 210  : 
; 211  : 			if( contents == CONTENTS_WATER )

	cmp	DWORD PTR _contents$6[ebp], -3		; fffffffdH
	jne	$LN34@ProcessRai

; 212  : 			{
; 213  : 				int waterEntity = WATER_ENTITY( pmtrace.endpos );

	lea	ecx, DWORD PTR _pmtrace$7[ebp+20]
	call	??BVector@@QAEPAMXZ			; Vector::operator float *
	push	eax
	call	DWORD PTR ?gEngfuncs@@3Ucl_enginefuncs_s@@A+232
	add	esp, 4
	mov	DWORD PTR _waterEntity$5[ebp], eax

; 214  : 				if( waterEntity > 0 )

	cmp	DWORD PTR _waterEntity$5[ebp], 0
	jle	$LN36@ProcessRai

; 215  : 				{
; 216  : 					cl_entity_t *pwater = GET_ENTITY( waterEntity );

	mov	eax, DWORD PTR _waterEntity$5[ebp]
	push	eax
	call	DWORD PTR ?gEngfuncs@@3Ucl_enginefuncs_s@@A+212
	add	esp, 4
	mov	DWORD PTR _pwater$4[ebp], eax

; 217  : 
; 218  : 					if( pwater && ( pwater->model != NULL ))

	cmp	DWORD PTR _pwater$4[ebp], 0
	je	SHORT $LN38@ProcessRai
	mov	eax, DWORD PTR _pwater$4[ebp]
	cmp	DWORD PTR [eax+2964], 0
	je	SHORT $LN38@ProcessRai

; 219  : 					{
; 220  : 						deathHeight = pwater->curstate.maxs.z - 1.0f;

	mov	eax, DWORD PTR _pwater$4[ebp]
	movss	xmm0, DWORD PTR [eax+832]
	subss	xmm0, DWORD PTR __real@3f800000
	movss	DWORD PTR _deathHeight$12[ebp], xmm0

; 221  : 
; 222  : 						if( !Mod_BoxVisible( pwater->curstate.mins, pwater->curstate.maxs, Mod_GetCurrentVis( )))

	call	?Mod_GetCurrentVis@@YAPAEXZ		; Mod_GetCurrentVis
	push	eax
	mov	eax, DWORD PTR _pwater$4[ebp]
	add	eax, 824				; 00000338H
	sub	esp, 12					; 0000000cH
	mov	ecx, esp
	push	eax
	call	??0Vector@@QAE@ABV0@@Z			; Vector::Vector
	mov	ecx, DWORD PTR _pwater$4[ebp]
	add	ecx, 812				; 0000032cH
	sub	esp, 12					; 0000000cH
	mov	edx, esp
	push	ecx
	mov	ecx, edx
	call	??0Vector@@QAE@ABV0@@Z			; Vector::Vector
	call	?Mod_BoxVisible@@YA_NVVector@@0PBE@Z	; Mod_BoxVisible
	add	esp, 28					; 0000001cH
	movzx	eax, al
	test	eax, eax
	jne	SHORT $LN40@ProcessRai

; 223  : 							contents = CONTENTS_EMPTY; // not error, just water out of PVS

	mov	DWORD PTR _contents$6[ebp], -1
$LN40@ProcessRai:

; 224  : 					}
; 225  : 					else

	jmp	SHORT $LN39@ProcessRai
$LN38@ProcessRai:

; 226  : 					{
; 227  : 						ALERT( at_error, "rain: can't get water entity\n");

	push	OFFSET ??_C@_0BO@MJEPEKGL@rain?3?5can?8t?5get?5water?5entity?6?$AA@
	push	4
	call	?ALERT@@YAXW4ALERT_TYPE@@PADZZ		; ALERT
	add	esp, 8

; 228  : 						continue;

	jmp	$LN27@ProcessRai
$LN39@ProcessRai:

; 229  : 					}
; 230  : 				}
; 231  : 				else

	jmp	SHORT $LN37@ProcessRai
$LN36@ProcessRai:

; 232  : 				{
; 233  : 					ALERT( at_error, "rain: water is not func_water entity\n");

	push	OFFSET ??_C@_0CG@MNFPINEB@rain?3?5water?5is?5not?5func_water?5en@
	push	4
	call	?ALERT@@YAXW4ALERT_TYPE@@PADZZ		; ALERT
	add	esp, 8

; 234  : 					continue;

	jmp	$LN27@ProcessRai
$LN37@ProcessRai:

; 235  : 				}
; 236  : 			}
; 237  : 			else

	jmp	SHORT $LN35@ProcessRai
$LN34@ProcessRai:

; 238  : 			{
; 239  : 				deathHeight = pmtrace.endpos.z;

	movss	xmm0, DWORD PTR _pmtrace$7[ebp+28]
	movss	DWORD PTR _deathHeight$12[ebp], xmm0
$LN35@ProcessRai:

; 240  : 			}
; 241  : 
; 242  : 			// just in case..
; 243  : 			if( deathHeight > vecStart.z )

	movss	xmm0, DWORD PTR _deathHeight$12[ebp]
	comiss	xmm0, DWORD PTR _vecStart$11[ebp+8]
	jbe	SHORT $LN41@ProcessRai

; 244  : 			{
; 245  : 				ALERT( at_error, "rain: can't create drip in water\n");

	push	OFFSET ??_C@_0CC@ILHLDHGO@rain?3?5can?8t?5create?5drip?5in?5water@
	push	4
	call	?ALERT@@YAXW4ALERT_TYPE@@PADZZ		; ALERT
	add	esp, 8

; 246  : 				continue;

	jmp	$LN27@ProcessRai
$LN41@ProcessRai:

; 247  : 			}
; 248  : 
; 249  : 
; 250  : 			cl_drip *newClDrip = g_dripsArray.Allocate();

	mov	ecx, OFFSET ?g_dripsArray@@3V?$MemBlock@Ucl_drip@@@@A ; g_dripsArray
	call	?Allocate@?$MemBlock@Ucl_drip@@@@QAEPAUcl_drip@@XZ ; MemBlock<cl_drip>::Allocate
	mov	DWORD PTR _newClDrip$3[ebp], eax

; 251  : 
; 252  : 			if( !newClDrip )

	cmp	DWORD PTR _newClDrip$3[ebp], 0
	jne	SHORT $LN42@ProcessRai

; 253  : 			{
; 254  : 				Rain.dripsPerSecond = 0; // disable rain

	mov	DWORD PTR ?Rain@@3U<unnamed-type-Rain>@@A, 0

; 255  : 				ALERT( at_error, "rain: failed to allocate object!\n" );

	push	OFFSET ??_C@_0CC@OLLGANOB@rain?3?5failed?5to?5allocate?5object?$CB@
	push	4
	call	?ALERT@@YAXW4ALERT_TYPE@@PADZZ		; ALERT
	add	esp, 8

; 256  : 				return;

	jmp	$LN1@ProcessRai
$LN42@ProcessRai:

; 257  : 			}
; 258  : 			
; 259  : 			vecStart.z -= RANDOM_FLOAT( 0, maxDelta ); // randomize a bit

	cvtsi2ss xmm0, DWORD PTR _maxDelta$[ebp]
	push	ecx
	movss	DWORD PTR [esp], xmm0
	push	ecx
	xorps	xmm0, xmm0
	movss	DWORD PTR [esp], xmm0
	call	DWORD PTR ?gEngfuncs@@3Ucl_enginefuncs_s@@A+268
	add	esp, 8
	fstp	DWORD PTR tv810[ebp]
	movss	xmm0, DWORD PTR _vecStart$11[ebp+8]
	subss	xmm0, DWORD PTR tv810[ebp]
	movss	DWORD PTR _vecStart$11[ebp+8], xmm0

; 260  : 			
; 261  : 			newClDrip->alpha = RANDOM_FLOAT( 0.12f, 0.2f );

	push	ecx
	movss	xmm0, DWORD PTR __real@3e4ccccd
	movss	DWORD PTR [esp], xmm0
	push	ecx
	movss	xmm0, DWORD PTR __real@3df5c28f
	movss	DWORD PTR [esp], xmm0
	call	DWORD PTR ?gEngfuncs@@3Ucl_enginefuncs_s@@A+268
	add	esp, 8
	mov	eax, DWORD PTR _newClDrip$3[ebp]
	fstp	DWORD PTR [eax+20]

; 262  : 			newClDrip->origin = vecStart;

	mov	eax, DWORD PTR _newClDrip$3[ebp]
	add	eax, 8
	mov	ecx, DWORD PTR _vecStart$11[ebp]
	mov	DWORD PTR [eax], ecx
	mov	edx, DWORD PTR _vecStart$11[ebp+4]
	mov	DWORD PTR [eax+4], edx
	mov	ecx, DWORD PTR _vecStart$11[ebp+8]
	mov	DWORD PTR [eax+8], ecx

; 263  : 			
; 264  : 			newClDrip->xDelta = xDelta;

	mov	eax, DWORD PTR _newClDrip$3[ebp]
	movss	xmm0, DWORD PTR _xDelta$9[ebp]
	movss	DWORD PTR [eax+24], xmm0

; 265  : 			newClDrip->yDelta = yDelta;

	mov	eax, DWORD PTR _newClDrip$3[ebp]
	movss	xmm0, DWORD PTR _yDelta$8[ebp]
	movss	DWORD PTR [eax+28], xmm0

; 266  : 	
; 267  : 			newClDrip->birthTime = rain_curtime; // store time when it was spawned

	cvtsd2ss xmm0, QWORD PTR ?rain_curtime@@3NA
	mov	eax, DWORD PTR _newClDrip$3[ebp]
	movss	DWORD PTR [eax], xmm0

; 268  : 			newClDrip->minHeight = deathHeight;

	mov	eax, DWORD PTR _newClDrip$3[ebp]
	movss	xmm0, DWORD PTR _deathHeight$12[ebp]
	movss	DWORD PTR [eax+4], xmm0

; 269  : 
; 270  : 			if( contents == CONTENTS_WATER )

	cmp	DWORD PTR _contents$6[ebp], -3		; fffffffdH
	jne	SHORT $LN43@ProcessRai

; 271  : 				newClDrip->landInWater = 1;

	mov	eax, DWORD PTR _newClDrip$3[ebp]
	mov	DWORD PTR [eax+32], 1

; 272  : 			else

	jmp	SHORT $LN44@ProcessRai
$LN43@ProcessRai:

; 273  : 				newClDrip->landInWater = 0;

	mov	eax, DWORD PTR _newClDrip$3[ebp]
	mov	DWORD PTR [eax+32], 0
$LN44@ProcessRai:

; 274  : 
; 275  : 			// add to first place in chain
; 276  : 			dripcounter++;

	mov	eax, DWORD PTR ?dripcounter@@3HA	; dripcounter
	add	eax, 1
	mov	DWORD PTR ?dripcounter@@3HA, eax	; dripcounter

; 277  : 		}
; 278  : 		else

	jmp	SHORT $LN30@ProcessRai
$LN29@ProcessRai:

; 279  : 		{
; 280  : 			ALERT( at_error, "rain: Drip limit overflow!\n" );

	push	OFFSET ??_C@_0BM@FMKNJMMG@rain?3?5Drip?5limit?5overflow?$CB?6?$AA@
	push	4
	call	?ALERT@@YAXW4ALERT_TYPE@@PADZZ		; ALERT
	add	esp, 8

; 281  : 			return;

	jmp	$LN1@ProcessRai
$LN30@ProcessRai:

; 282  : 		}
; 283  : 	}

	jmp	$LN27@ProcessRai
$LN5@ProcessRai:

; 284  : 
; 285  : 	if( cl_debug_rain->value )

	mov	eax, DWORD PTR ?cl_debug_rain@@3PAUcvar_s@@A ; cl_debug_rain
	movss	xmm0, DWORD PTR [eax+12]
	ucomiss	xmm0, DWORD PTR __real@00000000
	lahf
	test	ah, 68					; 00000044H
	jnp	$LN47@ProcessRai

; 286  : 	{
; 287  : 		// print debug info
; 288  : 		gEngfuncs.Con_NPrintf( 1, "rain info: Drips exist: %i\n", dripcounter );

	mov	eax, DWORD PTR ?dripcounter@@3HA	; dripcounter
	push	eax
	push	OFFSET ??_C@_0BM@DGLLEDDM@rain?5info?3?5Drips?5exist?3?5?$CFi?6?$AA@
	push	1
	call	DWORD PTR ?gEngfuncs@@3Ucl_enginefuncs_s@@A+168
	add	esp, 12					; 0000000cH

; 289  : 		gEngfuncs.Con_NPrintf( 2, "rain info: FX's exist: %i\n", fxcounter );

	mov	eax, DWORD PTR ?fxcounter@@3HA		; fxcounter
	push	eax
	push	OFFSET ??_C@_0BL@LFBPKBHL@rain?5info?3?5FX?8s?5exist?3?5?$CFi?6?$AA@
	push	2
	call	DWORD PTR ?gEngfuncs@@3Ucl_enginefuncs_s@@A+168
	add	esp, 12					; 0000000cH

; 290  : 		gEngfuncs.Con_NPrintf( 3, "rain info: Attempted/Dropped: %i, %i\n", debug_attempted, debug_dropped );

	mov	eax, DWORD PTR _debug_dropped$[ebp]
	push	eax
	mov	ecx, DWORD PTR _debug_attempted$[ebp]
	push	ecx
	push	OFFSET ??_C@_0CG@PDEMFKPF@rain?5info?3?5Attempted?1Dropped?3?5?$CFi@
	push	3
	call	DWORD PTR ?gEngfuncs@@3Ucl_enginefuncs_s@@A+168
	add	esp, 16					; 00000010H

; 291  : 
; 292  : 		if( debug_howmany )

	cmp	DWORD PTR _debug_howmany$[ebp], 0
	je	SHORT $LN46@ProcessRai

; 293  : 		{
; 294  : 			float ave = debug_lifetime / (float)debug_howmany;

	cvtsi2ss xmm0, DWORD PTR _debug_howmany$[ebp]
	movss	xmm1, DWORD PTR _debug_lifetime$[ebp]
	divss	xmm1, xmm0
	movss	DWORD PTR _ave$2[ebp], xmm1

; 295  : 			gEngfuncs.Con_NPrintf( 4, "rain info: Average drip life time: %f\n", ave );

	cvtss2sd xmm0, DWORD PTR _ave$2[ebp]
	sub	esp, 8
	movsd	QWORD PTR [esp], xmm0
	push	OFFSET ??_C@_0CH@NEFABCL@rain?5info?3?5Average?5drip?5life?5tim@
	push	4
	call	DWORD PTR ?gEngfuncs@@3Ucl_enginefuncs_s@@A+168
	add	esp, 16					; 00000010H

; 296  : 		}
; 297  : 		else

	jmp	SHORT $LN47@ProcessRai
$LN46@ProcessRai:

; 298  : 			gEngfuncs.Con_NPrintf( 4, "rain info: Average drip life time: --\n" );

	push	OFFSET ??_C@_0CH@LEDOELOF@rain?5info?3?5Average?5drip?5life?5tim@
	push	4
	call	DWORD PTR ?gEngfuncs@@3Ucl_enginefuncs_s@@A+168
	add	esp, 8
$LN47@ProcessRai:
$LN1@ProcessRai:

; 299  : 	}
; 300  : }

	pop	edi
	pop	esi
	pop	ebx
	mov	esp, ebp
	pop	ebp
	ret	0
?ProcessRain@@YAXXZ ENDP				; ProcessRain
_TEXT	ENDS
; Function compile flags: /Odtp /ZI
; File d:\!diffusion 2020\source code 2022\client-server\client\render\r_weather.cpp
;	COMDAT ??__Em_coordsarray@@YAXXZ
text$di	SEGMENT
??__Em_coordsarray@@YAXXZ PROC				; `dynamic initializer for 'm_coordsarray'', COMDAT

; 57   : static Vector2D	m_coordsarray[MAX_RAIN_VERTICES];

	push	ebp
	mov	ebp, esp
	sub	esp, 64					; 00000040H
	push	ebx
	push	esi
	push	edi
	push	OFFSET ??0Vector2D@@QAE@XZ		; Vector2D::Vector2D
	push	65536					; 00010000H
	push	8
	push	OFFSET ?m_coordsarray@@3PAVVector2D@@A
	call	??_H@YGXPAXIIP6EPAX0@Z@Z
	pop	edi
	pop	esi
	pop	ebx
	mov	esp, ebp
	pop	ebp
	ret	0
??__Em_coordsarray@@YAXXZ ENDP				; `dynamic initializer for 'm_coordsarray''
text$di	ENDS
; Function compile flags: /Odtp /ZI
; File d:\!diffusion 2020\source code 2022\client-server\client\render\r_weather.cpp
;	COMDAT ??__Em_vertexarray@@YAXXZ
text$di	SEGMENT
??__Em_vertexarray@@YAXXZ PROC				; `dynamic initializer for 'm_vertexarray'', COMDAT

; 55   : static Vector	m_vertexarray[MAX_RAIN_VERTICES];

	push	ebp
	mov	ebp, esp
	sub	esp, 64					; 00000040H
	push	ebx
	push	esi
	push	edi
	push	OFFSET ??0Vector@@QAE@XZ		; Vector::Vector
	push	65536					; 00010000H
	push	12					; 0000000cH
	push	OFFSET ?m_vertexarray@@3PAVVector@@A
	call	??_H@YGXPAXIIP6EPAX0@Z@Z
	pop	edi
	pop	esi
	pop	ebx
	mov	esp, ebp
	pop	ebp
	ret	0
??__Em_vertexarray@@YAXXZ ENDP				; `dynamic initializer for 'm_vertexarray''
text$di	ENDS
; Function compile flags: /Odtp /ZI
; File d:\!diffusion 2020\source code 2022\client-server\client\render\r_weather.cpp
;	COMDAT ??__Erain_maxs@@YAXXZ
text$di	SEGMENT
??__Erain_maxs@@YAXXZ PROC				; `dynamic initializer for 'rain_maxs'', COMDAT

; 54   : static Vector	rain_mins, rain_maxs; // for vis culling

	push	ebp
	mov	ebp, esp
	sub	esp, 64					; 00000040H
	push	ebx
	push	esi
	push	edi
	mov	ecx, OFFSET ?rain_maxs@@3VVector@@A
	call	??0Vector@@QAE@XZ			; Vector::Vector
	pop	edi
	pop	esi
	pop	ebx
	mov	esp, ebp
	pop	ebp
	ret	0
??__Erain_maxs@@YAXXZ ENDP				; `dynamic initializer for 'rain_maxs''
text$di	ENDS
; Function compile flags: /Odtp /ZI
; File d:\!diffusion 2020\source code 2022\client-server\client\render\r_weather.cpp
;	COMDAT ??__Erain_mins@@YAXXZ
text$di	SEGMENT
??__Erain_mins@@YAXXZ PROC				; `dynamic initializer for 'rain_mins'', COMDAT

; 54   : static Vector	rain_mins, rain_maxs; // for vis culling

	push	ebp
	mov	ebp, esp
	sub	esp, 64					; 00000040H
	push	ebx
	push	esi
	push	edi
	mov	ecx, OFFSET ?rain_mins@@3VVector@@A
	call	??0Vector@@QAE@XZ			; Vector::Vector
	pop	edi
	pop	esi
	pop	ebx
	mov	esp, ebp
	pop	ebp
	ret	0
??__Erain_mins@@YAXXZ ENDP				; `dynamic initializer for 'rain_mins''
text$di	ENDS
; Function compile flags: /Odtp /ZI
;	COMDAT ??__Fg_fxArray@@YAXXZ
text$yd	SEGMENT
??__Fg_fxArray@@YAXXZ PROC				; `dynamic atexit destructor for 'g_fxArray'', COMDAT
	push	ebp
	mov	ebp, esp
	sub	esp, 64					; 00000040H
	push	ebx
	push	esi
	push	edi
	mov	ecx, OFFSET ?g_fxArray@@3V?$MemBlock@Ucl_rainfx@@@@A ; g_fxArray
	call	??1?$MemBlock@Ucl_rainfx@@@@QAE@XZ	; MemBlock<cl_rainfx>::~MemBlock<cl_rainfx>
	pop	edi
	pop	esi
	pop	ebx
	mov	esp, ebp
	pop	ebp
	ret	0
??__Fg_fxArray@@YAXXZ ENDP				; `dynamic atexit destructor for 'g_fxArray''
text$yd	ENDS
; Function compile flags: /Odtp /ZI
; File d:\!diffusion 2020\source code 2022\client-server\client\render\r_weather.cpp
;	COMDAT ??__Eg_fxArray@@YAXXZ
text$di	SEGMENT
??__Eg_fxArray@@YAXXZ PROC				; `dynamic initializer for 'g_fxArray'', COMDAT

; 43   : MemBlock<cl_rainfx>	g_fxArray( MAXFX );

	push	ebp
	mov	ebp, esp
	sub	esp, 64					; 00000040H
	push	ebx
	push	esi
	push	edi
	push	20000					; 00004e20H
	mov	ecx, OFFSET ?g_fxArray@@3V?$MemBlock@Ucl_rainfx@@@@A ; g_fxArray
	call	??0?$MemBlock@Ucl_rainfx@@@@QAE@H@Z	; MemBlock<cl_rainfx>::MemBlock<cl_rainfx>
	push	OFFSET ??__Fg_fxArray@@YAXXZ		; `dynamic atexit destructor for 'g_fxArray''
	call	_atexit
	add	esp, 4
	pop	edi
	pop	esi
	pop	ebx
	mov	esp, ebp
	pop	ebp
	ret	0
??__Eg_fxArray@@YAXXZ ENDP				; `dynamic initializer for 'g_fxArray''
text$di	ENDS
; Function compile flags: /Odtp /ZI
; File d:\!diffusion 2020\source code 2022\client-server\game_shared\custom_alloc.h
;	COMDAT ?DeleteCurrent@?$MemBlock@Ucl_rainfx@@@@QAEXXZ
_TEXT	SEGMENT
_delindex$ = -8						; size = 4
_this$ = -4						; size = 4
?DeleteCurrent@?$MemBlock@Ucl_rainfx@@@@QAEXXZ PROC	; MemBlock<cl_rainfx>::DeleteCurrent, COMDAT
; _this$ = ecx

; 93   : 	{

	push	ebp
	mov	ebp, esp
	sub	esp, 72					; 00000048H
	push	ebx
	push	esi
	push	edi
	mov	DWORD PTR _this$[ebp], ecx

; 94   : 		int delindex = m_pArray[m_iCurrent].next;

	mov	eax, DWORD PTR _this$[ebp]
	imul	ecx, DWORD PTR [eax+8], 28
	mov	edx, DWORD PTR _this$[ebp]
	mov	eax, DWORD PTR [edx]
	mov	ecx, DWORD PTR [eax+ecx]
	mov	DWORD PTR _delindex$[ebp], ecx

; 95   : 		m_pArray[m_iCurrent].next = m_pArray[delindex].next; // âűáđŕńűâŕĺě ýëĺěĺíň čç öĺďč çŕí˙ňűő

	imul	eax, DWORD PTR _delindex$[ebp], 28
	mov	ecx, DWORD PTR _this$[ebp]
	mov	edx, DWORD PTR [ecx]
	mov	ecx, DWORD PTR _this$[ebp]
	imul	ecx, DWORD PTR [ecx+8], 28
	mov	esi, DWORD PTR _this$[ebp]
	mov	esi, DWORD PTR [esi]
	mov	edx, DWORD PTR [edx+eax]
	mov	DWORD PTR [esi+ecx], edx

; 96   : 		m_pArray[delindex].next = m_iFirstFree;

	imul	eax, DWORD PTR _delindex$[ebp], 28
	mov	ecx, DWORD PTR _this$[ebp]
	mov	edx, DWORD PTR [ecx]
	mov	ecx, DWORD PTR _this$[ebp]
	mov	ecx, DWORD PTR [ecx+12]
	mov	DWORD PTR [edx+eax], ecx

; 97   : 		m_iFirstFree = delindex; // âęëţ÷ŕĺě ýëĺěĺíň â íŕ÷ŕëî öĺďč ńâîáîäíűő

	mov	eax, DWORD PTR _this$[ebp]
	mov	ecx, DWORD PTR _delindex$[ebp]
	mov	DWORD PTR [eax+12], ecx

; 98   : 	}

	pop	edi
	pop	esi
	pop	ebx
	mov	esp, ebp
	pop	ebp
	ret	0
?DeleteCurrent@?$MemBlock@Ucl_rainfx@@@@QAEXXZ ENDP	; MemBlock<cl_rainfx>::DeleteCurrent
_TEXT	ENDS
; Function compile flags: /Odtp /ZI
; File d:\!diffusion 2020\source code 2022\client-server\game_shared\custom_alloc.h
;	COMDAT ?MoveNext@?$MemBlock@Ucl_rainfx@@@@QAEXXZ
_TEXT	SEGMENT
_this$ = -4						; size = 4
?MoveNext@?$MemBlock@Ucl_rainfx@@@@QAEXXZ PROC		; MemBlock<cl_rainfx>::MoveNext, COMDAT
; _this$ = ecx

; 88   : 	{

	push	ebp
	mov	ebp, esp
	sub	esp, 68					; 00000044H
	push	ebx
	push	esi
	push	edi
	mov	DWORD PTR _this$[ebp], ecx

; 89   : 		m_iCurrent = m_pArray[m_iCurrent].next;

	mov	eax, DWORD PTR _this$[ebp]
	imul	ecx, DWORD PTR [eax+8], 28
	mov	edx, DWORD PTR _this$[ebp]
	mov	eax, DWORD PTR [edx]
	mov	edx, DWORD PTR _this$[ebp]
	mov	eax, DWORD PTR [eax+ecx]
	mov	DWORD PTR [edx+8], eax

; 90   : 	}

	pop	edi
	pop	esi
	pop	ebx
	mov	esp, ebp
	pop	ebp
	ret	0
?MoveNext@?$MemBlock@Ucl_rainfx@@@@QAEXXZ ENDP		; MemBlock<cl_rainfx>::MoveNext
_TEXT	ENDS
; Function compile flags: /Odtp /ZI
; File d:\!diffusion 2020\source code 2022\client-server\game_shared\custom_alloc.h
;	COMDAT ?GetCurrent@?$MemBlock@Ucl_rainfx@@@@QAEPAUcl_rainfx@@XZ
_TEXT	SEGMENT
_retindex$ = -8						; size = 4
_this$ = -4						; size = 4
?GetCurrent@?$MemBlock@Ucl_rainfx@@@@QAEPAUcl_rainfx@@XZ PROC ; MemBlock<cl_rainfx>::GetCurrent, COMDAT
; _this$ = ecx

; 79   : 	{

	push	ebp
	mov	ebp, esp
	sub	esp, 72					; 00000048H
	push	ebx
	push	esi
	push	edi
	mov	DWORD PTR _this$[ebp], ecx

; 80   : 		int retindex = m_pArray[m_iCurrent].next;

	mov	eax, DWORD PTR _this$[ebp]
	imul	ecx, DWORD PTR [eax+8], 28
	mov	edx, DWORD PTR _this$[ebp]
	mov	eax, DWORD PTR [edx]
	mov	ecx, DWORD PTR [eax+ecx]
	mov	DWORD PTR _retindex$[ebp], ecx

; 81   : 		if (!retindex)

	cmp	DWORD PTR _retindex$[ebp], 0
	jne	SHORT $LN2@GetCurrent

; 82   : 			return NULL;

	xor	eax, eax
	jmp	SHORT $LN1@GetCurrent
$LN2@GetCurrent:

; 83   : 
; 84   : 		return &(m_pArray[retindex].data);

	imul	eax, DWORD PTR _retindex$[ebp], 28
	mov	ecx, DWORD PTR _this$[ebp]
	mov	edx, DWORD PTR [ecx]
	lea	eax, DWORD PTR [edx+eax+4]
$LN1@GetCurrent:

; 85   : 	}

	pop	edi
	pop	esi
	pop	ebx
	mov	esp, ebp
	pop	ebp
	ret	0
?GetCurrent@?$MemBlock@Ucl_rainfx@@@@QAEPAUcl_rainfx@@XZ ENDP ; MemBlock<cl_rainfx>::GetCurrent
_TEXT	ENDS
; Function compile flags: /Odtp /ZI
; File d:\!diffusion 2020\source code 2022\client-server\game_shared\custom_alloc.h
;	COMDAT ?StartPass@?$MemBlock@Ucl_rainfx@@@@QAE_NXZ
_TEXT	SEGMENT
_this$ = -4						; size = 4
?StartPass@?$MemBlock@Ucl_rainfx@@@@QAE_NXZ PROC	; MemBlock<cl_rainfx>::StartPass, COMDAT
; _this$ = ecx

; 69   : 	{

	push	ebp
	mov	ebp, esp
	sub	esp, 68					; 00000044H
	push	ebx
	push	esi
	push	edi
	mov	DWORD PTR _this$[ebp], ecx

; 70   : 		m_iCurrent = 0; // íŕ÷číŕĺě îáőîä ń íóëĺâîăî ýëĺěĺíňŕ

	mov	eax, DWORD PTR _this$[ebp]
	mov	DWORD PTR [eax+8], 0

; 71   : 
; 72   : 		if (m_iSIZEOFARRAY > 1)

	mov	eax, DWORD PTR _this$[ebp]
	cmp	DWORD PTR [eax+4], 1
	jle	SHORT $LN2@StartPass

; 73   : 			return true;

	mov	al, 1
	jmp	SHORT $LN1@StartPass

; 74   : 		else

	jmp	SHORT $LN1@StartPass
$LN2@StartPass:

; 75   : 			return false;

	xor	al, al
$LN1@StartPass:

; 76   : 	}

	pop	edi
	pop	esi
	pop	ebx
	mov	esp, ebp
	pop	ebp
	ret	0
?StartPass@?$MemBlock@Ucl_rainfx@@@@QAE_NXZ ENDP	; MemBlock<cl_rainfx>::StartPass
_TEXT	ENDS
; Function compile flags: /Odtp /ZI
; File d:\!diffusion 2020\source code 2022\client-server\game_shared\custom_alloc.h
;	COMDAT ?IsClear@?$MemBlock@Ucl_rainfx@@@@QAE_NXZ
_TEXT	SEGMENT
tv69 = -69						; size = 1
_this$ = -4						; size = 4
?IsClear@?$MemBlock@Ucl_rainfx@@@@QAE_NXZ PROC		; MemBlock<cl_rainfx>::IsClear, COMDAT
; _this$ = ecx

; 64   : 	{

	push	ebp
	mov	ebp, esp
	sub	esp, 72					; 00000048H
	push	ebx
	push	esi
	push	edi
	mov	DWORD PTR _this$[ebp], ecx

; 65   : 		return m_pArray[0].next ? false : true;

	mov	eax, 28					; 0000001cH
	imul	ecx, eax, 0
	mov	edx, DWORD PTR _this$[ebp]
	mov	eax, DWORD PTR [edx]
	cmp	DWORD PTR [eax+ecx], 0
	je	SHORT $LN3@IsClear
	mov	BYTE PTR tv69[ebp], 0
	jmp	SHORT $LN4@IsClear
$LN3@IsClear:
	mov	BYTE PTR tv69[ebp], 1
$LN4@IsClear:
	mov	al, BYTE PTR tv69[ebp]

; 66   : 	}

	pop	edi
	pop	esi
	pop	ebx
	mov	esp, ebp
	pop	ebp
	ret	0
?IsClear@?$MemBlock@Ucl_rainfx@@@@QAE_NXZ ENDP		; MemBlock<cl_rainfx>::IsClear
_TEXT	ENDS
; Function compile flags: /Odtp /ZI
; File d:\!diffusion 2020\source code 2022\client-server\game_shared\custom_alloc.h
;	COMDAT ?Allocate@?$MemBlock@Ucl_rainfx@@@@QAEPAUcl_rainfx@@XZ
_TEXT	SEGMENT
_savedFirstFree$1 = -8					; size = 4
_this$ = -4						; size = 4
?Allocate@?$MemBlock@Ucl_rainfx@@@@QAEPAUcl_rainfx@@XZ PROC ; MemBlock<cl_rainfx>::Allocate, COMDAT
; _this$ = ecx

; 50   : 	{

	push	ebp
	mov	ebp, esp
	sub	esp, 72					; 00000048H
	push	ebx
	push	esi
	push	edi
	mov	DWORD PTR _this$[ebp], ecx

; 51   : 		if (m_iFirstFree != m_iSIZEOFARRAY)

	mov	eax, DWORD PTR _this$[ebp]
	mov	ecx, DWORD PTR _this$[ebp]
	mov	edx, DWORD PTR [eax+12]
	cmp	edx, DWORD PTR [ecx+4]
	je	SHORT $LN2@Allocate

; 52   : 		{
; 53   : 			int savedFirstFree = m_pArray[m_iFirstFree].next;

	mov	eax, DWORD PTR _this$[ebp]
	imul	ecx, DWORD PTR [eax+12], 28
	mov	edx, DWORD PTR _this$[ebp]
	mov	eax, DWORD PTR [edx]
	mov	ecx, DWORD PTR [eax+ecx]
	mov	DWORD PTR _savedFirstFree$1[ebp], ecx

; 54   : 			m_pArray[m_iFirstFree].next = m_pArray[0].next; // äîáŕâë˙ĺě ńâîáîäíóţ ˙÷ĺéęó â

	mov	eax, 28					; 0000001cH
	imul	ecx, eax, 0
	mov	edx, DWORD PTR _this$[ebp]
	mov	eax, DWORD PTR [edx]
	mov	edx, DWORD PTR _this$[ebp]
	imul	edx, DWORD PTR [edx+12], 28
	mov	esi, DWORD PTR _this$[ebp]
	mov	esi, DWORD PTR [esi]
	mov	eax, DWORD PTR [eax+ecx]
	mov	DWORD PTR [esi+edx], eax

; 55   : 			m_pArray[0].next = m_iFirstFree;				//   ńďčńîę çŕí˙ňűő

	mov	eax, 28					; 0000001cH
	imul	ecx, eax, 0
	mov	edx, DWORD PTR _this$[ebp]
	mov	eax, DWORD PTR [edx]
	mov	edx, DWORD PTR _this$[ebp]
	mov	edx, DWORD PTR [edx+12]
	mov	DWORD PTR [eax+ecx], edx

; 56   : 			m_iFirstFree = savedFirstFree;	// čńęëţ÷ŕĺě ˙÷ĺéęó čç ńďčńęŕ ńâîáîäíűő

	mov	eax, DWORD PTR _this$[ebp]
	mov	ecx, DWORD PTR _savedFirstFree$1[ebp]
	mov	DWORD PTR [eax+12], ecx

; 57   : 			return &(m_pArray[m_pArray[0].next].data);

	mov	eax, 28					; 0000001cH
	imul	ecx, eax, 0
	mov	edx, DWORD PTR _this$[ebp]
	mov	eax, DWORD PTR [edx]
	imul	ecx, DWORD PTR [eax+ecx], 28
	mov	edx, DWORD PTR _this$[ebp]
	mov	eax, DWORD PTR [edx]
	lea	eax, DWORD PTR [eax+ecx+4]
	jmp	SHORT $LN1@Allocate

; 58   : 		}
; 59   : 		else

	jmp	SHORT $LN1@Allocate
$LN2@Allocate:

; 60   : 			return NULL;

	xor	eax, eax
$LN1@Allocate:

; 61   : 	}

	pop	edi
	pop	esi
	pop	ebx
	mov	esp, ebp
	pop	ebp
	ret	0
?Allocate@?$MemBlock@Ucl_rainfx@@@@QAEPAUcl_rainfx@@XZ ENDP ; MemBlock<cl_rainfx>::Allocate
_TEXT	ENDS
; Function compile flags: /Odtp /ZI
; File d:\!diffusion 2020\source code 2022\client-server\game_shared\custom_alloc.h
;	COMDAT ?Clear@?$MemBlock@Ucl_rainfx@@@@QAEXXZ
_TEXT	SEGMENT
_i$1 = -8						; size = 4
_this$ = -4						; size = 4
?Clear@?$MemBlock@Ucl_rainfx@@@@QAEXXZ PROC		; MemBlock<cl_rainfx>::Clear, COMDAT
; _this$ = ecx

; 38   : 	{

	push	ebp
	mov	ebp, esp
	sub	esp, 72					; 00000048H
	push	ebx
	push	esi
	push	edi
	mov	DWORD PTR _this$[ebp], ecx

; 39   : 		if (m_iSIZEOFARRAY > 1)

	mov	eax, DWORD PTR _this$[ebp]
	cmp	DWORD PTR [eax+4], 1
	jle	SHORT $LN1@Clear

; 40   : 		{
; 41   : 			m_pArray[0].next = 0; // ĺńëč îí ńńűëŕĺňń˙ ńŕě íŕ ńĺá˙, çíŕ÷čň ńďčńîę çŕí˙ňűő ďóńň

	mov	eax, 28					; 0000001cH
	imul	ecx, eax, 0
	mov	edx, DWORD PTR _this$[ebp]
	mov	eax, DWORD PTR [edx]
	mov	DWORD PTR [eax+ecx], 0

; 42   : 			m_iFirstFree = 1;

	mov	eax, DWORD PTR _this$[ebp]
	mov	DWORD PTR [eax+12], 1

; 43   : 
; 44   : 			for (int i = 1; i < m_iSIZEOFARRAY; ++i)

	mov	DWORD PTR _i$1[ebp], 1
	jmp	SHORT $LN4@Clear
$LN2@Clear:
	mov	eax, DWORD PTR _i$1[ebp]
	add	eax, 1
	mov	DWORD PTR _i$1[ebp], eax
$LN4@Clear:
	mov	eax, DWORD PTR _this$[ebp]
	mov	ecx, DWORD PTR _i$1[ebp]
	cmp	ecx, DWORD PTR [eax+4]
	jge	SHORT $LN1@Clear

; 45   : 				m_pArray[i].next = i + 1;

	mov	eax, DWORD PTR _i$1[ebp]
	add	eax, 1
	imul	ecx, DWORD PTR _i$1[ebp], 28
	mov	edx, DWORD PTR _this$[ebp]
	mov	edx, DWORD PTR [edx]
	mov	DWORD PTR [edx+ecx], eax
	jmp	SHORT $LN2@Clear
$LN1@Clear:

; 46   : 		}
; 47   : 	}

	pop	edi
	pop	esi
	pop	ebx
	mov	esp, ebp
	pop	ebp
	ret	0
?Clear@?$MemBlock@Ucl_rainfx@@@@QAEXXZ ENDP		; MemBlock<cl_rainfx>::Clear
_TEXT	ENDS
; Function compile flags: /Odtp /ZI
; File d:\!diffusion 2020\source code 2022\client-server\game_shared\custom_alloc.h
;	COMDAT ??1?$MemBlock@Ucl_rainfx@@@@QAE@XZ
_TEXT	SEGMENT
$T1 = -72						; size = 4
_this$ = -4						; size = 4
??1?$MemBlock@Ucl_rainfx@@@@QAE@XZ PROC			; MemBlock<cl_rainfx>::~MemBlock<cl_rainfx>, COMDAT
; _this$ = ecx

; 32   : 	{

	push	ebp
	mov	ebp, esp
	sub	esp, 72					; 00000048H
	push	ebx
	push	esi
	push	edi
	mov	DWORD PTR _this$[ebp], ecx

; 33   : 		delete[] m_pArray;

	mov	eax, DWORD PTR _this$[ebp]
	mov	ecx, DWORD PTR [eax]
	mov	DWORD PTR $T1[ebp], ecx
	mov	edx, DWORD PTR $T1[ebp]
	push	edx
	call	??_V@YAXPAX@Z				; operator delete[]
	add	esp, 4

; 34   : 		m_pArray = NULL;

	mov	eax, DWORD PTR _this$[ebp]
	mov	DWORD PTR [eax], 0

; 35   : 	}

	pop	edi
	pop	esi
	pop	ebx
	mov	esp, ebp
	pop	ebp
	ret	0
??1?$MemBlock@Ucl_rainfx@@@@QAE@XZ ENDP			; MemBlock<cl_rainfx>::~MemBlock<cl_rainfx>
_TEXT	ENDS
; Function compile flags: /Odtp /ZI
; File d:\!diffusion 2020\source code 2022\client-server\game_shared\custom_alloc.h
;	COMDAT ??0?$MemBlock@Ucl_rainfx@@@@QAE@H@Z
_TEXT	SEGMENT
tv91 = -96						; size = 4
$T2 = -92						; size = 4
$T3 = -88						; size = 4
$T4 = -84						; size = 4
_this$ = -16						; size = 4
__$EHRec$ = -12						; size = 12
_numElements$ = 8					; size = 4
??0?$MemBlock@Ucl_rainfx@@@@QAE@H@Z PROC		; MemBlock<cl_rainfx>::MemBlock<cl_rainfx>, COMDAT
; _this$ = ecx

; 15   : 	MemBlock(int numElements)

	push	ebp
	mov	ebp, esp
	push	-1
	push	__ehhandler$??0?$MemBlock@Ucl_rainfx@@@@QAE@H@Z
	mov	eax, DWORD PTR fs:0
	push	eax
	sub	esp, 84					; 00000054H
	push	ebx
	push	esi
	push	edi
	mov	eax, DWORD PTR ___security_cookie
	xor	eax, ebp
	push	eax
	lea	eax, DWORD PTR __$EHRec$[ebp]
	mov	DWORD PTR fs:0, eax
	mov	DWORD PTR _this$[ebp], ecx

; 16   : 	{
; 17   : 		// ýëĺěĺíň 0 čńďîëüçóĺňń˙ â ęŕ÷ĺńňâĺ íŕ÷ŕëŕ ńďčńęŕ çŕí˙ňűő ˙÷ĺĺę
; 18   : 		m_iSIZEOFARRAY = numElements + 1;

	mov	eax, DWORD PTR _numElements$[ebp]
	add	eax, 1
	mov	ecx, DWORD PTR _this$[ebp]
	mov	DWORD PTR [ecx+4], eax

; 19   : 		m_pArray = new chunk_t[m_iSIZEOFARRAY];		

	mov	eax, DWORD PTR _this$[ebp]
	mov	ecx, DWORD PTR [eax+4]
	mov	DWORD PTR $T4[ebp], ecx
	xor	ecx, ecx
	mov	eax, DWORD PTR $T4[ebp]
	mov	edx, 28					; 0000001cH
	mul	edx
	seto	cl
	neg	ecx
	or	ecx, eax
	push	ecx
	call	??_U@YAPAXI@Z				; operator new[]
	add	esp, 4
	mov	DWORD PTR $T2[ebp], eax
	mov	DWORD PTR __$EHRec$[ebp+8], 0
	cmp	DWORD PTR $T2[ebp], 0
	je	SHORT $LN4@MemBlock
	push	OFFSET ??0chunk_s@?$MemBlock@Ucl_rainfx@@@@QAE@XZ
	mov	eax, DWORD PTR $T4[ebp]
	push	eax
	push	28					; 0000001cH
	mov	ecx, DWORD PTR $T2[ebp]
	push	ecx
	call	??_H@YGXPAXIIP6EPAX0@Z@Z
	mov	edx, DWORD PTR $T2[ebp]
	mov	DWORD PTR tv91[ebp], edx
	jmp	SHORT $LN5@MemBlock
$LN4@MemBlock:
	mov	DWORD PTR tv91[ebp], 0
$LN5@MemBlock:
	mov	eax, DWORD PTR tv91[ebp]
	mov	DWORD PTR $T3[ebp], eax
	mov	DWORD PTR __$EHRec$[ebp+8], -1
	mov	ecx, DWORD PTR _this$[ebp]
	mov	edx, DWORD PTR $T3[ebp]
	mov	DWORD PTR [ecx], edx

; 20   : 
; 21   : 		if (!m_pArray)

	mov	eax, DWORD PTR _this$[ebp]
	cmp	DWORD PTR [eax], 0
	jne	SHORT $LN2@MemBlock

; 22   : 		{
; 23   : 			m_iSIZEOFARRAY = 1;

	mov	eax, DWORD PTR _this$[ebp]
	mov	DWORD PTR [eax+4], 1

; 24   : 			m_iFirstFree = m_iSIZEOFARRAY;

	mov	eax, DWORD PTR _this$[ebp]
	mov	ecx, DWORD PTR _this$[ebp]
	mov	edx, DWORD PTR [ecx+4]
	mov	DWORD PTR [eax+12], edx

; 25   : 			return;

	jmp	SHORT $LN1@MemBlock
$LN2@MemBlock:

; 26   : 		}
; 27   : 
; 28   : 		Clear();

	mov	ecx, DWORD PTR _this$[ebp]
	call	?Clear@?$MemBlock@Ucl_rainfx@@@@QAEXXZ	; MemBlock<cl_rainfx>::Clear
$LN1@MemBlock:

; 29   : 	}

	mov	eax, DWORD PTR _this$[ebp]
	mov	ecx, DWORD PTR __$EHRec$[ebp]
	mov	DWORD PTR fs:0, ecx
	pop	ecx
	pop	edi
	pop	esi
	pop	ebx
	mov	esp, ebp
	pop	ebp
	ret	4
_TEXT	ENDS
;	COMDAT text$x
text$x	SEGMENT
__unwindfunclet$??0?$MemBlock@Ucl_rainfx@@@@QAE@H@Z$0:
	xor	ebx, ebx
	mov	eax, DWORD PTR $T4[ebp]
	mov	ecx, 28					; 0000001cH
	mul	ecx
	seto	bl
	neg	ebx
	or	ebx, eax
	push	ebx
	mov	eax, DWORD PTR $T2[ebp]
	push	eax
	call	??_V@YAXPAXI@Z				; operator delete[]
	add	esp, 8
	ret	0
__ehhandler$??0?$MemBlock@Ucl_rainfx@@@@QAE@H@Z:
	mov	edx, DWORD PTR [esp+8]
	lea	eax, DWORD PTR [edx+12]
	mov	ecx, DWORD PTR [edx-100]
	xor	ecx, eax
	call	@__security_check_cookie@4
	mov	eax, OFFSET __ehfuncinfo$??0?$MemBlock@Ucl_rainfx@@@@QAE@H@Z
	jmp	___CxxFrameHandler3
text$x	ENDS
??0?$MemBlock@Ucl_rainfx@@@@QAE@H@Z ENDP		; MemBlock<cl_rainfx>::MemBlock<cl_rainfx>
; Function compile flags: /Odtp /ZI
;	COMDAT ??__Fg_dripsArray@@YAXXZ
text$yd	SEGMENT
??__Fg_dripsArray@@YAXXZ PROC				; `dynamic atexit destructor for 'g_dripsArray'', COMDAT
	push	ebp
	mov	ebp, esp
	sub	esp, 64					; 00000040H
	push	ebx
	push	esi
	push	edi
	mov	ecx, OFFSET ?g_dripsArray@@3V?$MemBlock@Ucl_drip@@@@A ; g_dripsArray
	call	??1?$MemBlock@Ucl_drip@@@@QAE@XZ	; MemBlock<cl_drip>::~MemBlock<cl_drip>
	pop	edi
	pop	esi
	pop	ebx
	mov	esp, ebp
	pop	ebp
	ret	0
??__Fg_dripsArray@@YAXXZ ENDP				; `dynamic atexit destructor for 'g_dripsArray''
text$yd	ENDS
; Function compile flags: /Odtp /ZI
; File d:\!diffusion 2020\source code 2022\client-server\client\render\r_weather.cpp
;	COMDAT ??__Eg_dripsArray@@YAXXZ
text$di	SEGMENT
??__Eg_dripsArray@@YAXXZ PROC				; `dynamic initializer for 'g_dripsArray'', COMDAT

; 42   : MemBlock<cl_drip>	g_dripsArray( MAXDRIPS );

	push	ebp
	mov	ebp, esp
	sub	esp, 64					; 00000040H
	push	ebx
	push	esi
	push	edi
	push	40000					; 00009c40H
	mov	ecx, OFFSET ?g_dripsArray@@3V?$MemBlock@Ucl_drip@@@@A ; g_dripsArray
	call	??0?$MemBlock@Ucl_drip@@@@QAE@H@Z	; MemBlock<cl_drip>::MemBlock<cl_drip>
	push	OFFSET ??__Fg_dripsArray@@YAXXZ		; `dynamic atexit destructor for 'g_dripsArray''
	call	_atexit
	add	esp, 4
	pop	edi
	pop	esi
	pop	ebx
	mov	esp, ebp
	pop	ebp
	ret	0
??__Eg_dripsArray@@YAXXZ ENDP				; `dynamic initializer for 'g_dripsArray''
text$di	ENDS
; Function compile flags: /Odtp /ZI
; File d:\!diffusion 2020\source code 2022\client-server\game_shared\custom_alloc.h
;	COMDAT ?DeleteCurrent@?$MemBlock@Ucl_drip@@@@QAEXXZ
_TEXT	SEGMENT
_delindex$ = -8						; size = 4
_this$ = -4						; size = 4
?DeleteCurrent@?$MemBlock@Ucl_drip@@@@QAEXXZ PROC	; MemBlock<cl_drip>::DeleteCurrent, COMDAT
; _this$ = ecx

; 93   : 	{

	push	ebp
	mov	ebp, esp
	sub	esp, 72					; 00000048H
	push	ebx
	push	esi
	push	edi
	mov	DWORD PTR _this$[ebp], ecx

; 94   : 		int delindex = m_pArray[m_iCurrent].next;

	mov	eax, DWORD PTR _this$[ebp]
	imul	ecx, DWORD PTR [eax+8], 40
	mov	edx, DWORD PTR _this$[ebp]
	mov	eax, DWORD PTR [edx]
	mov	ecx, DWORD PTR [eax+ecx]
	mov	DWORD PTR _delindex$[ebp], ecx

; 95   : 		m_pArray[m_iCurrent].next = m_pArray[delindex].next; // âűáđŕńűâŕĺě ýëĺěĺíň čç öĺďč çŕí˙ňűő

	imul	eax, DWORD PTR _delindex$[ebp], 40
	mov	ecx, DWORD PTR _this$[ebp]
	mov	edx, DWORD PTR [ecx]
	mov	ecx, DWORD PTR _this$[ebp]
	imul	ecx, DWORD PTR [ecx+8], 40
	mov	esi, DWORD PTR _this$[ebp]
	mov	esi, DWORD PTR [esi]
	mov	edx, DWORD PTR [edx+eax]
	mov	DWORD PTR [esi+ecx], edx

; 96   : 		m_pArray[delindex].next = m_iFirstFree;

	imul	eax, DWORD PTR _delindex$[ebp], 40
	mov	ecx, DWORD PTR _this$[ebp]
	mov	edx, DWORD PTR [ecx]
	mov	ecx, DWORD PTR _this$[ebp]
	mov	ecx, DWORD PTR [ecx+12]
	mov	DWORD PTR [edx+eax], ecx

; 97   : 		m_iFirstFree = delindex; // âęëţ÷ŕĺě ýëĺěĺíň â íŕ÷ŕëî öĺďč ńâîáîäíűő

	mov	eax, DWORD PTR _this$[ebp]
	mov	ecx, DWORD PTR _delindex$[ebp]
	mov	DWORD PTR [eax+12], ecx

; 98   : 	}

	pop	edi
	pop	esi
	pop	ebx
	mov	esp, ebp
	pop	ebp
	ret	0
?DeleteCurrent@?$MemBlock@Ucl_drip@@@@QAEXXZ ENDP	; MemBlock<cl_drip>::DeleteCurrent
_TEXT	ENDS
; Function compile flags: /Odtp /ZI
; File d:\!diffusion 2020\source code 2022\client-server\game_shared\custom_alloc.h
;	COMDAT ?MoveNext@?$MemBlock@Ucl_drip@@@@QAEXXZ
_TEXT	SEGMENT
_this$ = -4						; size = 4
?MoveNext@?$MemBlock@Ucl_drip@@@@QAEXXZ PROC		; MemBlock<cl_drip>::MoveNext, COMDAT
; _this$ = ecx

; 88   : 	{

	push	ebp
	mov	ebp, esp
	sub	esp, 68					; 00000044H
	push	ebx
	push	esi
	push	edi
	mov	DWORD PTR _this$[ebp], ecx

; 89   : 		m_iCurrent = m_pArray[m_iCurrent].next;

	mov	eax, DWORD PTR _this$[ebp]
	imul	ecx, DWORD PTR [eax+8], 40
	mov	edx, DWORD PTR _this$[ebp]
	mov	eax, DWORD PTR [edx]
	mov	edx, DWORD PTR _this$[ebp]
	mov	eax, DWORD PTR [eax+ecx]
	mov	DWORD PTR [edx+8], eax

; 90   : 	}

	pop	edi
	pop	esi
	pop	ebx
	mov	esp, ebp
	pop	ebp
	ret	0
?MoveNext@?$MemBlock@Ucl_drip@@@@QAEXXZ ENDP		; MemBlock<cl_drip>::MoveNext
_TEXT	ENDS
; Function compile flags: /Odtp /ZI
; File d:\!diffusion 2020\source code 2022\client-server\game_shared\custom_alloc.h
;	COMDAT ?GetCurrent@?$MemBlock@Ucl_drip@@@@QAEPAUcl_drip@@XZ
_TEXT	SEGMENT
_retindex$ = -8						; size = 4
_this$ = -4						; size = 4
?GetCurrent@?$MemBlock@Ucl_drip@@@@QAEPAUcl_drip@@XZ PROC ; MemBlock<cl_drip>::GetCurrent, COMDAT
; _this$ = ecx

; 79   : 	{

	push	ebp
	mov	ebp, esp
	sub	esp, 72					; 00000048H
	push	ebx
	push	esi
	push	edi
	mov	DWORD PTR _this$[ebp], ecx

; 80   : 		int retindex = m_pArray[m_iCurrent].next;

	mov	eax, DWORD PTR _this$[ebp]
	imul	ecx, DWORD PTR [eax+8], 40
	mov	edx, DWORD PTR _this$[ebp]
	mov	eax, DWORD PTR [edx]
	mov	ecx, DWORD PTR [eax+ecx]
	mov	DWORD PTR _retindex$[ebp], ecx

; 81   : 		if (!retindex)

	cmp	DWORD PTR _retindex$[ebp], 0
	jne	SHORT $LN2@GetCurrent

; 82   : 			return NULL;

	xor	eax, eax
	jmp	SHORT $LN1@GetCurrent
$LN2@GetCurrent:

; 83   : 
; 84   : 		return &(m_pArray[retindex].data);

	imul	eax, DWORD PTR _retindex$[ebp], 40
	mov	ecx, DWORD PTR _this$[ebp]
	mov	edx, DWORD PTR [ecx]
	lea	eax, DWORD PTR [edx+eax+4]
$LN1@GetCurrent:

; 85   : 	}

	pop	edi
	pop	esi
	pop	ebx
	mov	esp, ebp
	pop	ebp
	ret	0
?GetCurrent@?$MemBlock@Ucl_drip@@@@QAEPAUcl_drip@@XZ ENDP ; MemBlock<cl_drip>::GetCurrent
_TEXT	ENDS
; Function compile flags: /Odtp /ZI
; File d:\!diffusion 2020\source code 2022\client-server\game_shared\custom_alloc.h
;	COMDAT ?StartPass@?$MemBlock@Ucl_drip@@@@QAE_NXZ
_TEXT	SEGMENT
_this$ = -4						; size = 4
?StartPass@?$MemBlock@Ucl_drip@@@@QAE_NXZ PROC		; MemBlock<cl_drip>::StartPass, COMDAT
; _this$ = ecx

; 69   : 	{

	push	ebp
	mov	ebp, esp
	sub	esp, 68					; 00000044H
	push	ebx
	push	esi
	push	edi
	mov	DWORD PTR _this$[ebp], ecx

; 70   : 		m_iCurrent = 0; // íŕ÷číŕĺě îáőîä ń íóëĺâîăî ýëĺěĺíňŕ

	mov	eax, DWORD PTR _this$[ebp]
	mov	DWORD PTR [eax+8], 0

; 71   : 
; 72   : 		if (m_iSIZEOFARRAY > 1)

	mov	eax, DWORD PTR _this$[ebp]
	cmp	DWORD PTR [eax+4], 1
	jle	SHORT $LN2@StartPass

; 73   : 			return true;

	mov	al, 1
	jmp	SHORT $LN1@StartPass

; 74   : 		else

	jmp	SHORT $LN1@StartPass
$LN2@StartPass:

; 75   : 			return false;

	xor	al, al
$LN1@StartPass:

; 76   : 	}

	pop	edi
	pop	esi
	pop	ebx
	mov	esp, ebp
	pop	ebp
	ret	0
?StartPass@?$MemBlock@Ucl_drip@@@@QAE_NXZ ENDP		; MemBlock<cl_drip>::StartPass
_TEXT	ENDS
; Function compile flags: /Odtp /ZI
; File d:\!diffusion 2020\source code 2022\client-server\game_shared\custom_alloc.h
;	COMDAT ?IsClear@?$MemBlock@Ucl_drip@@@@QAE_NXZ
_TEXT	SEGMENT
tv69 = -69						; size = 1
_this$ = -4						; size = 4
?IsClear@?$MemBlock@Ucl_drip@@@@QAE_NXZ PROC		; MemBlock<cl_drip>::IsClear, COMDAT
; _this$ = ecx

; 64   : 	{

	push	ebp
	mov	ebp, esp
	sub	esp, 72					; 00000048H
	push	ebx
	push	esi
	push	edi
	mov	DWORD PTR _this$[ebp], ecx

; 65   : 		return m_pArray[0].next ? false : true;

	mov	eax, 40					; 00000028H
	imul	ecx, eax, 0
	mov	edx, DWORD PTR _this$[ebp]
	mov	eax, DWORD PTR [edx]
	cmp	DWORD PTR [eax+ecx], 0
	je	SHORT $LN3@IsClear
	mov	BYTE PTR tv69[ebp], 0
	jmp	SHORT $LN4@IsClear
$LN3@IsClear:
	mov	BYTE PTR tv69[ebp], 1
$LN4@IsClear:
	mov	al, BYTE PTR tv69[ebp]

; 66   : 	}

	pop	edi
	pop	esi
	pop	ebx
	mov	esp, ebp
	pop	ebp
	ret	0
?IsClear@?$MemBlock@Ucl_drip@@@@QAE_NXZ ENDP		; MemBlock<cl_drip>::IsClear
_TEXT	ENDS
; Function compile flags: /Odtp /ZI
; File d:\!diffusion 2020\source code 2022\client-server\game_shared\custom_alloc.h
;	COMDAT ?Allocate@?$MemBlock@Ucl_drip@@@@QAEPAUcl_drip@@XZ
_TEXT	SEGMENT
_savedFirstFree$1 = -8					; size = 4
_this$ = -4						; size = 4
?Allocate@?$MemBlock@Ucl_drip@@@@QAEPAUcl_drip@@XZ PROC	; MemBlock<cl_drip>::Allocate, COMDAT
; _this$ = ecx

; 50   : 	{

	push	ebp
	mov	ebp, esp
	sub	esp, 72					; 00000048H
	push	ebx
	push	esi
	push	edi
	mov	DWORD PTR _this$[ebp], ecx

; 51   : 		if (m_iFirstFree != m_iSIZEOFARRAY)

	mov	eax, DWORD PTR _this$[ebp]
	mov	ecx, DWORD PTR _this$[ebp]
	mov	edx, DWORD PTR [eax+12]
	cmp	edx, DWORD PTR [ecx+4]
	je	SHORT $LN2@Allocate

; 52   : 		{
; 53   : 			int savedFirstFree = m_pArray[m_iFirstFree].next;

	mov	eax, DWORD PTR _this$[ebp]
	imul	ecx, DWORD PTR [eax+12], 40
	mov	edx, DWORD PTR _this$[ebp]
	mov	eax, DWORD PTR [edx]
	mov	ecx, DWORD PTR [eax+ecx]
	mov	DWORD PTR _savedFirstFree$1[ebp], ecx

; 54   : 			m_pArray[m_iFirstFree].next = m_pArray[0].next; // äîáŕâë˙ĺě ńâîáîäíóţ ˙÷ĺéęó â

	mov	eax, 40					; 00000028H
	imul	ecx, eax, 0
	mov	edx, DWORD PTR _this$[ebp]
	mov	eax, DWORD PTR [edx]
	mov	edx, DWORD PTR _this$[ebp]
	imul	edx, DWORD PTR [edx+12], 40
	mov	esi, DWORD PTR _this$[ebp]
	mov	esi, DWORD PTR [esi]
	mov	eax, DWORD PTR [eax+ecx]
	mov	DWORD PTR [esi+edx], eax

; 55   : 			m_pArray[0].next = m_iFirstFree;				//   ńďčńîę çŕí˙ňűő

	mov	eax, 40					; 00000028H
	imul	ecx, eax, 0
	mov	edx, DWORD PTR _this$[ebp]
	mov	eax, DWORD PTR [edx]
	mov	edx, DWORD PTR _this$[ebp]
	mov	edx, DWORD PTR [edx+12]
	mov	DWORD PTR [eax+ecx], edx

; 56   : 			m_iFirstFree = savedFirstFree;	// čńęëţ÷ŕĺě ˙÷ĺéęó čç ńďčńęŕ ńâîáîäíűő

	mov	eax, DWORD PTR _this$[ebp]
	mov	ecx, DWORD PTR _savedFirstFree$1[ebp]
	mov	DWORD PTR [eax+12], ecx

; 57   : 			return &(m_pArray[m_pArray[0].next].data);

	mov	eax, 40					; 00000028H
	imul	ecx, eax, 0
	mov	edx, DWORD PTR _this$[ebp]
	mov	eax, DWORD PTR [edx]
	imul	ecx, DWORD PTR [eax+ecx], 40
	mov	edx, DWORD PTR _this$[ebp]
	mov	eax, DWORD PTR [edx]
	lea	eax, DWORD PTR [eax+ecx+4]
	jmp	SHORT $LN1@Allocate

; 58   : 		}
; 59   : 		else

	jmp	SHORT $LN1@Allocate
$LN2@Allocate:

; 60   : 			return NULL;

	xor	eax, eax
$LN1@Allocate:

; 61   : 	}

	pop	edi
	pop	esi
	pop	ebx
	mov	esp, ebp
	pop	ebp
	ret	0
?Allocate@?$MemBlock@Ucl_drip@@@@QAEPAUcl_drip@@XZ ENDP	; MemBlock<cl_drip>::Allocate
_TEXT	ENDS
; Function compile flags: /Odtp /ZI
; File d:\!diffusion 2020\source code 2022\client-server\game_shared\custom_alloc.h
;	COMDAT ?Clear@?$MemBlock@Ucl_drip@@@@QAEXXZ
_TEXT	SEGMENT
_i$1 = -8						; size = 4
_this$ = -4						; size = 4
?Clear@?$MemBlock@Ucl_drip@@@@QAEXXZ PROC		; MemBlock<cl_drip>::Clear, COMDAT
; _this$ = ecx

; 38   : 	{

	push	ebp
	mov	ebp, esp
	sub	esp, 72					; 00000048H
	push	ebx
	push	esi
	push	edi
	mov	DWORD PTR _this$[ebp], ecx

; 39   : 		if (m_iSIZEOFARRAY > 1)

	mov	eax, DWORD PTR _this$[ebp]
	cmp	DWORD PTR [eax+4], 1
	jle	SHORT $LN1@Clear

; 40   : 		{
; 41   : 			m_pArray[0].next = 0; // ĺńëč îí ńńűëŕĺňń˙ ńŕě íŕ ńĺá˙, çíŕ÷čň ńďčńîę çŕí˙ňűő ďóńň

	mov	eax, 40					; 00000028H
	imul	ecx, eax, 0
	mov	edx, DWORD PTR _this$[ebp]
	mov	eax, DWORD PTR [edx]
	mov	DWORD PTR [eax+ecx], 0

; 42   : 			m_iFirstFree = 1;

	mov	eax, DWORD PTR _this$[ebp]
	mov	DWORD PTR [eax+12], 1

; 43   : 
; 44   : 			for (int i = 1; i < m_iSIZEOFARRAY; ++i)

	mov	DWORD PTR _i$1[ebp], 1
	jmp	SHORT $LN4@Clear
$LN2@Clear:
	mov	eax, DWORD PTR _i$1[ebp]
	add	eax, 1
	mov	DWORD PTR _i$1[ebp], eax
$LN4@Clear:
	mov	eax, DWORD PTR _this$[ebp]
	mov	ecx, DWORD PTR _i$1[ebp]
	cmp	ecx, DWORD PTR [eax+4]
	jge	SHORT $LN1@Clear

; 45   : 				m_pArray[i].next = i + 1;

	mov	eax, DWORD PTR _i$1[ebp]
	add	eax, 1
	imul	ecx, DWORD PTR _i$1[ebp], 40
	mov	edx, DWORD PTR _this$[ebp]
	mov	edx, DWORD PTR [edx]
	mov	DWORD PTR [edx+ecx], eax
	jmp	SHORT $LN2@Clear
$LN1@Clear:

; 46   : 		}
; 47   : 	}

	pop	edi
	pop	esi
	pop	ebx
	mov	esp, ebp
	pop	ebp
	ret	0
?Clear@?$MemBlock@Ucl_drip@@@@QAEXXZ ENDP		; MemBlock<cl_drip>::Clear
_TEXT	ENDS
; Function compile flags: /Odtp /ZI
; File d:\!diffusion 2020\source code 2022\client-server\game_shared\custom_alloc.h
;	COMDAT ??1?$MemBlock@Ucl_drip@@@@QAE@XZ
_TEXT	SEGMENT
$T1 = -72						; size = 4
_this$ = -4						; size = 4
??1?$MemBlock@Ucl_drip@@@@QAE@XZ PROC			; MemBlock<cl_drip>::~MemBlock<cl_drip>, COMDAT
; _this$ = ecx

; 32   : 	{

	push	ebp
	mov	ebp, esp
	sub	esp, 72					; 00000048H
	push	ebx
	push	esi
	push	edi
	mov	DWORD PTR _this$[ebp], ecx

; 33   : 		delete[] m_pArray;

	mov	eax, DWORD PTR _this$[ebp]
	mov	ecx, DWORD PTR [eax]
	mov	DWORD PTR $T1[ebp], ecx
	mov	edx, DWORD PTR $T1[ebp]
	push	edx
	call	??_V@YAXPAX@Z				; operator delete[]
	add	esp, 4

; 34   : 		m_pArray = NULL;

	mov	eax, DWORD PTR _this$[ebp]
	mov	DWORD PTR [eax], 0

; 35   : 	}

	pop	edi
	pop	esi
	pop	ebx
	mov	esp, ebp
	pop	ebp
	ret	0
??1?$MemBlock@Ucl_drip@@@@QAE@XZ ENDP			; MemBlock<cl_drip>::~MemBlock<cl_drip>
_TEXT	ENDS
; Function compile flags: /Odtp /ZI
; File d:\!diffusion 2020\source code 2022\client-server\game_shared\custom_alloc.h
;	COMDAT ??0?$MemBlock@Ucl_drip@@@@QAE@H@Z
_TEXT	SEGMENT
tv91 = -96						; size = 4
$T2 = -92						; size = 4
$T3 = -88						; size = 4
$T4 = -84						; size = 4
_this$ = -16						; size = 4
__$EHRec$ = -12						; size = 12
_numElements$ = 8					; size = 4
??0?$MemBlock@Ucl_drip@@@@QAE@H@Z PROC			; MemBlock<cl_drip>::MemBlock<cl_drip>, COMDAT
; _this$ = ecx

; 15   : 	MemBlock(int numElements)

	push	ebp
	mov	ebp, esp
	push	-1
	push	__ehhandler$??0?$MemBlock@Ucl_drip@@@@QAE@H@Z
	mov	eax, DWORD PTR fs:0
	push	eax
	sub	esp, 84					; 00000054H
	push	ebx
	push	esi
	push	edi
	mov	eax, DWORD PTR ___security_cookie
	xor	eax, ebp
	push	eax
	lea	eax, DWORD PTR __$EHRec$[ebp]
	mov	DWORD PTR fs:0, eax
	mov	DWORD PTR _this$[ebp], ecx

; 16   : 	{
; 17   : 		// ýëĺěĺíň 0 čńďîëüçóĺňń˙ â ęŕ÷ĺńňâĺ íŕ÷ŕëŕ ńďčńęŕ çŕí˙ňűő ˙÷ĺĺę
; 18   : 		m_iSIZEOFARRAY = numElements + 1;

	mov	eax, DWORD PTR _numElements$[ebp]
	add	eax, 1
	mov	ecx, DWORD PTR _this$[ebp]
	mov	DWORD PTR [ecx+4], eax

; 19   : 		m_pArray = new chunk_t[m_iSIZEOFARRAY];		

	mov	eax, DWORD PTR _this$[ebp]
	mov	ecx, DWORD PTR [eax+4]
	mov	DWORD PTR $T4[ebp], ecx
	xor	ecx, ecx
	mov	eax, DWORD PTR $T4[ebp]
	mov	edx, 40					; 00000028H
	mul	edx
	seto	cl
	neg	ecx
	or	ecx, eax
	push	ecx
	call	??_U@YAPAXI@Z				; operator new[]
	add	esp, 4
	mov	DWORD PTR $T2[ebp], eax
	mov	DWORD PTR __$EHRec$[ebp+8], 0
	cmp	DWORD PTR $T2[ebp], 0
	je	SHORT $LN4@MemBlock
	push	OFFSET ??0chunk_s@?$MemBlock@Ucl_drip@@@@QAE@XZ
	mov	eax, DWORD PTR $T4[ebp]
	push	eax
	push	40					; 00000028H
	mov	ecx, DWORD PTR $T2[ebp]
	push	ecx
	call	??_H@YGXPAXIIP6EPAX0@Z@Z
	mov	edx, DWORD PTR $T2[ebp]
	mov	DWORD PTR tv91[ebp], edx
	jmp	SHORT $LN5@MemBlock
$LN4@MemBlock:
	mov	DWORD PTR tv91[ebp], 0
$LN5@MemBlock:
	mov	eax, DWORD PTR tv91[ebp]
	mov	DWORD PTR $T3[ebp], eax
	mov	DWORD PTR __$EHRec$[ebp+8], -1
	mov	ecx, DWORD PTR _this$[ebp]
	mov	edx, DWORD PTR $T3[ebp]
	mov	DWORD PTR [ecx], edx

; 20   : 
; 21   : 		if (!m_pArray)

	mov	eax, DWORD PTR _this$[ebp]
	cmp	DWORD PTR [eax], 0
	jne	SHORT $LN2@MemBlock

; 22   : 		{
; 23   : 			m_iSIZEOFARRAY = 1;

	mov	eax, DWORD PTR _this$[ebp]
	mov	DWORD PTR [eax+4], 1

; 24   : 			m_iFirstFree = m_iSIZEOFARRAY;

	mov	eax, DWORD PTR _this$[ebp]
	mov	ecx, DWORD PTR _this$[ebp]
	mov	edx, DWORD PTR [ecx+4]
	mov	DWORD PTR [eax+12], edx

; 25   : 			return;

	jmp	SHORT $LN1@MemBlock
$LN2@MemBlock:

; 26   : 		}
; 27   : 
; 28   : 		Clear();

	mov	ecx, DWORD PTR _this$[ebp]
	call	?Clear@?$MemBlock@Ucl_drip@@@@QAEXXZ	; MemBlock<cl_drip>::Clear
$LN1@MemBlock:

; 29   : 	}

	mov	eax, DWORD PTR _this$[ebp]
	mov	ecx, DWORD PTR __$EHRec$[ebp]
	mov	DWORD PTR fs:0, ecx
	pop	ecx
	pop	edi
	pop	esi
	pop	ebx
	mov	esp, ebp
	pop	ebp
	ret	4
_TEXT	ENDS
;	COMDAT text$x
text$x	SEGMENT
__unwindfunclet$??0?$MemBlock@Ucl_drip@@@@QAE@H@Z$0:
	xor	ebx, ebx
	mov	eax, DWORD PTR $T4[ebp]
	mov	ecx, 40					; 00000028H
	mul	ecx
	seto	bl
	neg	ebx
	or	ebx, eax
	push	ebx
	mov	eax, DWORD PTR $T2[ebp]
	push	eax
	call	??_V@YAXPAXI@Z				; operator delete[]
	add	esp, 8
	ret	0
__ehhandler$??0?$MemBlock@Ucl_drip@@@@QAE@H@Z:
	mov	edx, DWORD PTR [esp+8]
	lea	eax, DWORD PTR [edx+12]
	mov	ecx, DWORD PTR [edx-100]
	xor	ecx, eax
	call	@__security_check_cookie@4
	mov	eax, OFFSET __ehfuncinfo$??0?$MemBlock@Ucl_drip@@@@QAE@H@Z
	jmp	___CxxFrameHandler3
text$x	ENDS
??0?$MemBlock@Ucl_drip@@@@QAE@H@Z ENDP			; MemBlock<cl_drip>::MemBlock<cl_drip>
; Function compile flags: /Odtp /ZI
; File d:\!diffusion 2020\source code 2022\client-server\client\render\r_weather.cpp
;	COMDAT ?ParseRainFile@@YAXXZ
_TEXT	SEGMENT
_pfile$ = -140						; size = 4
_afile$ = -136						; size = 4
_token$ = -132						; size = 64
_mapname$ = -68						; size = 64
__$ArrayPad$ = -4					; size = 4
?ParseRainFile@@YAXXZ PROC				; ParseRainFile, COMDAT

; 422  : {

	push	ebp
	mov	ebp, esp
	sub	esp, 204				; 000000ccH
	mov	eax, DWORD PTR ___security_cookie
	xor	eax, ebp
	mov	DWORD PTR __$ArrayPad$[ebp], eax
	push	ebx
	push	esi
	push	edi

; 423  : 	if( Rain.distFromPlayer || Rain.dripsPerSecond || Rain.globalHeight )

	movss	xmm0, DWORD PTR ?Rain@@3U<unnamed-type-Rain>@@A+4
	ucomiss	xmm0, DWORD PTR __real@00000000
	lahf
	test	ah, 68					; 00000044H
	jp	SHORT $LN5@ParseRainF
	cmp	DWORD PTR ?Rain@@3U<unnamed-type-Rain>@@A, 0
	jne	SHORT $LN5@ParseRainF
	movss	xmm0, DWORD PTR ?Rain@@3U<unnamed-type-Rain>@@A+28
	ucomiss	xmm0, DWORD PTR __real@00000000
	lahf
	test	ah, 68					; 00000044H
	jnp	SHORT $LN4@ParseRainF
$LN5@ParseRainF:

; 424  : 		return;	// already specified?

	jmp	$LN1@ParseRainF
$LN4@ParseRainF:

; 425  : 
; 426  : 	char mapname[64];
; 427  : 	char token[64];
; 428  : 	char *afile, *pfile;
; 429  : 
; 430  : 	Q_strcpy( mapname, gEngfuncs.pfnGetLevelName( ));

	push	99999					; 0001869fH
	call	DWORD PTR ?gEngfuncs@@3Ucl_enginefuncs_s@@A+296
	push	eax
	lea	eax, DWORD PTR _mapname$[ebp]
	push	eax
	call	?Q_strncpy@@YAIPADPBDI@Z		; Q_strncpy
	add	esp, 12					; 0000000cH

; 431  : 	if( !Q_strlen( mapname ))

	lea	eax, DWORD PTR _mapname$[ebp]
	push	eax
	call	?Q_strlen@@YAHPBD@Z			; Q_strlen
	add	esp, 4
	test	eax, eax
	jne	SHORT $LN6@ParseRainF

; 432  : 	{
; 433  : 		ALERT( at_error, "rain: unable to read map name\n");

	push	OFFSET ??_C@_0BP@IKKCGABN@rain?3?5unable?5to?5read?5map?5name?6?$AA@
	push	4
	call	?ALERT@@YAXW4ALERT_TYPE@@PADZZ		; ALERT
	add	esp, 8

; 434  : 		return;

	jmp	$LN1@ParseRainF
$LN6@ParseRainF:

; 435  : 	}
; 436  : 
; 437  : 	COM_StripExtension( mapname );

	lea	eax, DWORD PTR _mapname$[ebp]
	push	eax
	call	?COM_StripExtension@@YAXPAD@Z		; COM_StripExtension
	add	esp, 4

; 438  : 	COM_DefaultExtension( mapname, ".pcs" );

	push	OFFSET ??_C@_04GCJAGGFH@?4pcs?$AA@
	lea	eax, DWORD PTR _mapname$[ebp]
	push	eax
	call	?COM_DefaultExtension@@YAXPADPBD@Z	; COM_DefaultExtension
	add	esp, 8

; 439  : 
; 440  : 	afile = (char *)gEngfuncs.COM_LoadFile( mapname, 5, NULL);

	push	0
	push	5
	lea	eax, DWORD PTR _mapname$[ebp]
	push	eax
	call	DWORD PTR ?gEngfuncs@@3Ucl_enginefuncs_s@@A+316
	add	esp, 12					; 0000000cH
	mov	DWORD PTR _afile$[ebp], eax

; 441  : 	pfile = afile;

	mov	eax, DWORD PTR _afile$[ebp]
	mov	DWORD PTR _pfile$[ebp], eax

; 442  : 
; 443  : 	// no rain specified for this map
; 444  : 	if( !pfile ) return;

	cmp	DWORD PTR _pfile$[ebp], 0
	jne	SHORT $LN7@ParseRainF
	jmp	$LN1@ParseRainF
$LN7@ParseRainF:

; 445  : 
; 446  : 	while( 1 )

	mov	eax, 1
	test	eax, eax
	je	$LN3@ParseRainF

; 447  : 	{
; 448  : 		pfile = COM_ParseFile( pfile, token );

	push	1
	push	64					; 00000040H
	lea	eax, DWORD PTR _token$[ebp]
	push	eax
	mov	ecx, DWORD PTR _pfile$[ebp]
	push	ecx
	call	?COM_ParseFileExt@@YAPADPAD0J_N@Z	; COM_ParseFileExt
	add	esp, 16					; 00000010H
	mov	DWORD PTR _pfile$[ebp], eax

; 449  : 		if( !pfile ) break;

	cmp	DWORD PTR _pfile$[ebp], 0
	jne	SHORT $LN8@ParseRainF
	jmp	$LN3@ParseRainF
$LN8@ParseRainF:

; 450  : 
; 451  : 		if( !Q_stricmp( token, "drips" )) // dripsPerSecond

	push	99999					; 0001869fH
	push	OFFSET ??_C@_05EIIHFKFD@drips?$AA@
	lea	eax, DWORD PTR _token$[ebp]
	push	eax
	call	?Q_strnicmp@@YAHPBD0H@Z			; Q_strnicmp
	add	esp, 12					; 0000000cH
	test	eax, eax
	jne	SHORT $LN9@ParseRainF

; 452  : 		{
; 453  : 			pfile = COM_ParseFile( pfile, token );

	push	1
	push	64					; 00000040H
	lea	eax, DWORD PTR _token$[ebp]
	push	eax
	mov	ecx, DWORD PTR _pfile$[ebp]
	push	ecx
	call	?COM_ParseFileExt@@YAPADPAD0J_N@Z	; COM_ParseFileExt
	add	esp, 16					; 00000010H
	mov	DWORD PTR _pfile$[ebp], eax

; 454  : 			Rain.dripsPerSecond = Q_atoi( token );

	lea	eax, DWORD PTR _token$[ebp]
	push	eax
	call	?Q_atoi@@YAHPBD@Z			; Q_atoi
	add	esp, 4
	mov	DWORD PTR ?Rain@@3U<unnamed-type-Rain>@@A, eax
	jmp	$LN24@ParseRainF
$LN9@ParseRainF:

; 455  : 		}
; 456  : 		else if( !Q_stricmp( token, "distance" )) // distFromPlayer

	push	99999					; 0001869fH
	push	OFFSET ??_C@_08LHFODBFO@distance?$AA@
	lea	eax, DWORD PTR _token$[ebp]
	push	eax
	call	?Q_strnicmp@@YAHPBD0H@Z			; Q_strnicmp
	add	esp, 12					; 0000000cH
	test	eax, eax
	jne	SHORT $LN11@ParseRainF

; 457  : 		{
; 458  : 			pfile = COM_ParseFile( pfile, token );

	push	1
	push	64					; 00000040H
	lea	eax, DWORD PTR _token$[ebp]
	push	eax
	mov	ecx, DWORD PTR _pfile$[ebp]
	push	ecx
	call	?COM_ParseFileExt@@YAPADPAD0J_N@Z	; COM_ParseFileExt
	add	esp, 16					; 00000010H
	mov	DWORD PTR _pfile$[ebp], eax

; 459  : 			Rain.distFromPlayer = Q_atof( token );

	lea	eax, DWORD PTR _token$[ebp]
	push	eax
	call	?Q_atof@@YAMPBD@Z			; Q_atof
	add	esp, 4
	fstp	DWORD PTR ?Rain@@3U<unnamed-type-Rain>@@A+4
	jmp	$LN24@ParseRainF
$LN11@ParseRainF:

; 460  : 		}
; 461  : 		else if( !Q_stricmp( token, "windx" )) // windX

	push	99999					; 0001869fH
	push	OFFSET ??_C@_05LPPJGGCL@windx?$AA@
	lea	eax, DWORD PTR _token$[ebp]
	push	eax
	call	?Q_strnicmp@@YAHPBD0H@Z			; Q_strnicmp
	add	esp, 12					; 0000000cH
	test	eax, eax
	jne	SHORT $LN13@ParseRainF

; 462  : 		{
; 463  : 			pfile = COM_ParseFile( pfile, token );

	push	1
	push	64					; 00000040H
	lea	eax, DWORD PTR _token$[ebp]
	push	eax
	mov	ecx, DWORD PTR _pfile$[ebp]
	push	ecx
	call	?COM_ParseFileExt@@YAPADPAD0J_N@Z	; COM_ParseFileExt
	add	esp, 16					; 00000010H
	mov	DWORD PTR _pfile$[ebp], eax

; 464  : 			Rain.windX = Q_atof( token );

	lea	eax, DWORD PTR _token$[ebp]
	push	eax
	call	?Q_atof@@YAMPBD@Z			; Q_atof
	add	esp, 4
	fstp	DWORD PTR ?Rain@@3U<unnamed-type-Rain>@@A+8
	jmp	$LN24@ParseRainF
$LN13@ParseRainF:

; 465  : 		}
; 466  : 		else if( !Q_stricmp( token, "windy" )) // windY

	push	99999					; 0001869fH
	push	OFFSET ??_C@_05KGOCFHGK@windy?$AA@
	lea	eax, DWORD PTR _token$[ebp]
	push	eax
	call	?Q_strnicmp@@YAHPBD0H@Z			; Q_strnicmp
	add	esp, 12					; 0000000cH
	test	eax, eax
	jne	SHORT $LN15@ParseRainF

; 467  : 		{
; 468  : 			pfile = COM_ParseFile( pfile, token );

	push	1
	push	64					; 00000040H
	lea	eax, DWORD PTR _token$[ebp]
	push	eax
	mov	ecx, DWORD PTR _pfile$[ebp]
	push	ecx
	call	?COM_ParseFileExt@@YAPADPAD0J_N@Z	; COM_ParseFileExt
	add	esp, 16					; 00000010H
	mov	DWORD PTR _pfile$[ebp], eax

; 469  : 			Rain.windY = Q_atof( token );		

	lea	eax, DWORD PTR _token$[ebp]
	push	eax
	call	?Q_atof@@YAMPBD@Z			; Q_atof
	add	esp, 4
	fstp	DWORD PTR ?Rain@@3U<unnamed-type-Rain>@@A+12
	jmp	$LN24@ParseRainF
$LN15@ParseRainF:

; 470  : 		}
; 471  : 		else if( !Q_stricmp( token, "randx" )) // randX

	push	99999					; 0001869fH
	push	OFFSET ??_C@_05NPEELMFJ@randx?$AA@
	lea	eax, DWORD PTR _token$[ebp]
	push	eax
	call	?Q_strnicmp@@YAHPBD0H@Z			; Q_strnicmp
	add	esp, 12					; 0000000cH
	test	eax, eax
	jne	SHORT $LN17@ParseRainF

; 472  : 		{
; 473  : 			pfile = COM_ParseFile( pfile, token );

	push	1
	push	64					; 00000040H
	lea	eax, DWORD PTR _token$[ebp]
	push	eax
	mov	ecx, DWORD PTR _pfile$[ebp]
	push	ecx
	call	?COM_ParseFileExt@@YAPADPAD0J_N@Z	; COM_ParseFileExt
	add	esp, 16					; 00000010H
	mov	DWORD PTR _pfile$[ebp], eax

; 474  : 			Rain.randX = Q_atof( token );

	lea	eax, DWORD PTR _token$[ebp]
	push	eax
	call	?Q_atof@@YAMPBD@Z			; Q_atof
	add	esp, 4
	fstp	DWORD PTR ?Rain@@3U<unnamed-type-Rain>@@A+16
	jmp	$LN24@ParseRainF
$LN17@ParseRainF:

; 475  : 		}
; 476  : 		else if( !Q_stricmp( token, "randy" )) // randY

	push	99999					; 0001869fH
	push	OFFSET ??_C@_05MGFPINBI@randy?$AA@
	lea	eax, DWORD PTR _token$[ebp]
	push	eax
	call	?Q_strnicmp@@YAHPBD0H@Z			; Q_strnicmp
	add	esp, 12					; 0000000cH
	test	eax, eax
	jne	SHORT $LN19@ParseRainF

; 477  : 		{
; 478  : 			pfile = COM_ParseFile(pfile, token);

	push	1
	push	64					; 00000040H
	lea	eax, DWORD PTR _token$[ebp]
	push	eax
	mov	ecx, DWORD PTR _pfile$[ebp]
	push	ecx
	call	?COM_ParseFileExt@@YAPADPAD0J_N@Z	; COM_ParseFileExt
	add	esp, 16					; 00000010H
	mov	DWORD PTR _pfile$[ebp], eax

; 479  : 			Rain.randY = Q_atof(token);

	lea	eax, DWORD PTR _token$[ebp]
	push	eax
	call	?Q_atof@@YAMPBD@Z			; Q_atof
	add	esp, 4
	fstp	DWORD PTR ?Rain@@3U<unnamed-type-Rain>@@A+20
	jmp	$LN24@ParseRainF
$LN19@ParseRainF:

; 480  : 		}
; 481  : 		else if( !Q_stricmp( token, "mode" )) // weatherMode

	push	99999					; 0001869fH
	push	OFFSET ??_C@_04GMGOKAFF@mode?$AA@
	lea	eax, DWORD PTR _token$[ebp]
	push	eax
	call	?Q_strnicmp@@YAHPBD0H@Z			; Q_strnicmp
	add	esp, 12					; 0000000cH
	test	eax, eax
	jne	SHORT $LN21@ParseRainF

; 482  : 		{
; 483  : 			pfile = COM_ParseFile( pfile, token );

	push	1
	push	64					; 00000040H
	lea	eax, DWORD PTR _token$[ebp]
	push	eax
	mov	ecx, DWORD PTR _pfile$[ebp]
	push	ecx
	call	?COM_ParseFileExt@@YAPADPAD0J_N@Z	; COM_ParseFileExt
	add	esp, 16					; 00000010H
	mov	DWORD PTR _pfile$[ebp], eax

; 484  : 			Rain.weatherMode = Q_atoi( token );

	lea	eax, DWORD PTR _token$[ebp]
	push	eax
	call	?Q_atoi@@YAHPBD@Z			; Q_atoi
	add	esp, 4
	mov	DWORD PTR ?Rain@@3U<unnamed-type-Rain>@@A+24, eax
	jmp	SHORT $LN24@ParseRainF
$LN21@ParseRainF:

; 485  : 		}
; 486  : 		else if( !Q_stricmp( token, "height" )) // globalHeight

	push	99999					; 0001869fH
	push	OFFSET ??_C@_06LNLHEAAG@height?$AA@
	lea	eax, DWORD PTR _token$[ebp]
	push	eax
	call	?Q_strnicmp@@YAHPBD0H@Z			; Q_strnicmp
	add	esp, 12					; 0000000cH
	test	eax, eax
	jne	SHORT $LN23@ParseRainF

; 487  : 		{
; 488  : 			pfile = COM_ParseFile( pfile, token );

	push	1
	push	64					; 00000040H
	lea	eax, DWORD PTR _token$[ebp]
	push	eax
	mov	ecx, DWORD PTR _pfile$[ebp]
	push	ecx
	call	?COM_ParseFileExt@@YAPADPAD0J_N@Z	; COM_ParseFileExt
	add	esp, 16					; 00000010H
	mov	DWORD PTR _pfile$[ebp], eax

; 489  : 			Rain.globalHeight = Q_atof( token );

	lea	eax, DWORD PTR _token$[ebp]
	push	eax
	call	?Q_atof@@YAMPBD@Z			; Q_atof
	add	esp, 4
	fstp	DWORD PTR ?Rain@@3U<unnamed-type-Rain>@@A+28

; 490  : 		}
; 491  : 		else

	jmp	SHORT $LN24@ParseRainF
$LN23@ParseRainF:

; 492  : 		{
; 493  : 			ALERT( at_error, "rain: unknown token %s in file %s\n", token, mapname );

	lea	eax, DWORD PTR _mapname$[ebp]
	push	eax
	lea	ecx, DWORD PTR _token$[ebp]
	push	ecx
	push	OFFSET ??_C@_0CD@OPENICNN@rain?3?5unknown?5token?5?$CFs?5in?5file?5?$CF@
	push	4
	call	?ALERT@@YAXW4ALERT_TYPE@@PADZZ		; ALERT
	add	esp, 16					; 00000010H
$LN24@ParseRainF:

; 494  : 		}
; 495  : 	}

	jmp	$LN7@ParseRainF
$LN3@ParseRainF:

; 496  : 	
; 497  : 	gEngfuncs.COM_FreeFile( afile );

	mov	eax, DWORD PTR _afile$[ebp]
	push	eax
	call	DWORD PTR ?gEngfuncs@@3Ucl_enginefuncs_s@@A+324
	add	esp, 4
$LN1@ParseRainF:

; 498  : }

	pop	edi
	pop	esi
	pop	ebx
	mov	ecx, DWORD PTR __$ArrayPad$[ebp]
	xor	ecx, ebp
	call	@__security_check_cookie@4
	mov	esp, ebp
	pop	ebp
	ret	0
?ParseRainFile@@YAXXZ ENDP				; ParseRainFile
_TEXT	ENDS
; Function compile flags: /Odtp /ZI
; File d:\!diffusion 2020\source code 2022\client-server\client\render\r_weather.cpp
;	COMDAT ?WaterLandingEffect@@YAXPAUcl_drip@@@Z
_TEXT	SEGMENT
_newFX$ = -4						; size = 4
_drip$ = 8						; size = 4
?WaterLandingEffect@@YAXPAUcl_drip@@@Z PROC		; WaterLandingEffect, COMDAT

; 308  : {

	push	ebp
	mov	ebp, esp
	sub	esp, 68					; 00000044H
	push	ebx
	push	esi
	push	edi

; 309  : 	if( fxcounter >= MAXFX )

	cmp	DWORD PTR ?fxcounter@@3HA, 20000	; fxcounter, 00004e20H
	jl	SHORT $LN2@WaterLandi

; 310  : 	{
; 311  : 		ALERT( at_error, "rain: FX limit overflow!\n" );

	push	OFFSET ??_C@_0BK@HEHHBOBI@rain?3?5FX?5limit?5overflow?$CB?6?$AA@
	push	4
	call	?ALERT@@YAXW4ALERT_TYPE@@PADZZ		; ALERT
	add	esp, 8

; 312  : 		return;

	jmp	$LN1@WaterLandi
$LN2@WaterLandi:

; 313  : 	}	
; 314  : 	
; 315  : 	cl_rainfx *newFX = g_fxArray.Allocate();

	mov	ecx, OFFSET ?g_fxArray@@3V?$MemBlock@Ucl_rainfx@@@@A ; g_fxArray
	call	?Allocate@?$MemBlock@Ucl_rainfx@@@@QAEPAUcl_rainfx@@XZ ; MemBlock<cl_rainfx>::Allocate
	mov	DWORD PTR _newFX$[ebp], eax

; 316  : 	if( !newFX )

	cmp	DWORD PTR _newFX$[ebp], 0
	jne	SHORT $LN3@WaterLandi

; 317  : 	{
; 318  : 		ALERT( at_error, "rain: failed to allocate FX object!\n" );

	push	OFFSET ??_C@_0CF@LAPKHEFD@rain?3?5failed?5to?5allocate?5FX?5obje@
	push	4
	call	?ALERT@@YAXW4ALERT_TYPE@@PADZZ		; ALERT
	add	esp, 8

; 319  : 		return;

	jmp	$LN1@WaterLandi
$LN3@WaterLandi:

; 320  : 	}
; 321  : 			
; 322  : 	newFX->alpha = RANDOM_FLOAT( 0.6f, 0.9f );

	push	ecx
	movss	xmm0, DWORD PTR __real@3f666666
	movss	DWORD PTR [esp], xmm0
	push	ecx
	movss	xmm0, DWORD PTR __real@3f19999a
	movss	DWORD PTR [esp], xmm0
	call	DWORD PTR ?gEngfuncs@@3Ucl_enginefuncs_s@@A+268
	add	esp, 8
	mov	eax, DWORD PTR _newFX$[ebp]
	fstp	DWORD PTR [eax+20]

; 323  : 	newFX->origin = drip->origin; 

	mov	eax, DWORD PTR _drip$[ebp]
	add	eax, 8
	mov	ecx, DWORD PTR _newFX$[ebp]
	add	ecx, 8
	mov	edx, DWORD PTR [eax]
	mov	DWORD PTR [ecx], edx
	mov	edx, DWORD PTR [eax+4]
	mov	DWORD PTR [ecx+4], edx
	mov	eax, DWORD PTR [eax+8]
	mov	DWORD PTR [ecx+8], eax

; 324  : 	newFX->origin.z = drip->minHeight - 1; // correct position

	mov	eax, DWORD PTR _drip$[ebp]
	movss	xmm0, DWORD PTR [eax+4]
	subss	xmm0, DWORD PTR __real@3f800000
	mov	ecx, DWORD PTR _newFX$[ebp]
	movss	DWORD PTR [ecx+16], xmm0

; 325  : 			
; 326  : 	newFX->birthTime = tr.time;

	cvtsd2ss xmm0, QWORD PTR ?tr@@3Uref_globals_t@@A+8
	mov	eax, DWORD PTR _newFX$[ebp]
	movss	DWORD PTR [eax], xmm0

; 327  : 	newFX->life = RANDOM_FLOAT( 0.7f, 1.0f );

	push	ecx
	movss	xmm0, DWORD PTR __real@3f800000
	movss	DWORD PTR [esp], xmm0
	push	ecx
	movss	xmm0, DWORD PTR __real@3f333333
	movss	DWORD PTR [esp], xmm0
	call	DWORD PTR ?gEngfuncs@@3Ucl_enginefuncs_s@@A+268
	add	esp, 8
	mov	eax, DWORD PTR _newFX$[ebp]
	fstp	DWORD PTR [eax+4]

; 328  : 
; 329  : 	// add to first place in chain
; 330  : 	fxcounter++;

	mov	eax, DWORD PTR ?fxcounter@@3HA		; fxcounter
	add	eax, 1
	mov	DWORD PTR ?fxcounter@@3HA, eax		; fxcounter
$LN1@WaterLandi:

; 331  : }

	pop	edi
	pop	esi
	pop	ebx
	mov	esp, ebp
	pop	ebp
	ret	0
?WaterLandingEffect@@YAXPAUcl_drip@@@Z ENDP		; WaterLandingEffect
_TEXT	ENDS
; Function compile flags: /Odtp /ZI
; File d:\!diffusion 2020\source code 2022\client-server\client\render\r_weather.cpp
;	COMDAT ?R_ParseRainMessage@@YAXXZ
_TEXT	SEGMENT
?R_ParseRainMessage@@YAXXZ PROC				; R_ParseRainMessage, COMDAT

; 506  : {

	push	ebp
	mov	ebp, esp
	sub	esp, 64					; 00000040H
	push	ebx
	push	esi
	push	edi

; 507  : 	Rain.dripsPerSecond = READ_SHORT();

	call	?READ_SHORT@@YAHXZ			; READ_SHORT
	mov	DWORD PTR ?Rain@@3U<unnamed-type-Rain>@@A, eax

; 508  : 	Rain.distFromPlayer = READ_COORD();

	call	?READ_COORD@@YAMXZ			; READ_COORD
	fstp	DWORD PTR ?Rain@@3U<unnamed-type-Rain>@@A+4

; 509  : 	Rain.windX = READ_COORD();

	call	?READ_COORD@@YAMXZ			; READ_COORD
	fstp	DWORD PTR ?Rain@@3U<unnamed-type-Rain>@@A+8

; 510  : 	Rain.windY = READ_COORD();

	call	?READ_COORD@@YAMXZ			; READ_COORD
	fstp	DWORD PTR ?Rain@@3U<unnamed-type-Rain>@@A+12

; 511  : 	Rain.randX = READ_COORD();

	call	?READ_COORD@@YAMXZ			; READ_COORD
	fstp	DWORD PTR ?Rain@@3U<unnamed-type-Rain>@@A+16

; 512  : 	Rain.randY = READ_COORD();

	call	?READ_COORD@@YAMXZ			; READ_COORD
	fstp	DWORD PTR ?Rain@@3U<unnamed-type-Rain>@@A+20

; 513  : 	Rain.weatherMode = READ_SHORT();

	call	?READ_SHORT@@YAHXZ			; READ_SHORT
	mov	DWORD PTR ?Rain@@3U<unnamed-type-Rain>@@A+24, eax

; 514  : 	Rain.globalHeight = READ_COORD();

	call	?READ_COORD@@YAMXZ			; READ_COORD
	fstp	DWORD PTR ?Rain@@3U<unnamed-type-Rain>@@A+28

; 515  : }

	pop	edi
	pop	esi
	pop	ebx
	mov	esp, ebp
	pop	ebp
	ret	0
?R_ParseRainMessage@@YAXXZ ENDP				; R_ParseRainMessage
_TEXT	ENDS
; Function compile flags: /Odtp /ZI
; File d:\!diffusion 2020\source code 2022\client-server\client\render\r_weather.cpp
;	COMDAT ?R_DrawWeather@@YAXXZ
_TEXT	SEGMENT
tv82 = -164						; size = 4
tv81 = -160						; size = 4
_RainOrg$1 = -92					; size = 12
_PlayerOrg$2 = -80					; size = 12
_trace$3 = -68						; size = 68
?R_DrawWeather@@YAXXZ PROC				; R_DrawWeather, COMDAT

; 861  : {	

	push	ebp
	mov	ebp, esp
	sub	esp, 164				; 000000a4H
	push	ebx
	push	esi
	push	edi

; 862  : 	if( FBitSet( RI->params, RP_SKYPORTALVIEW ) || FBitSet( RI->params, RP_SHADOWPASS ) || FBitSet( RI->params, RP_ENVVIEW ) )

	mov	eax, DWORD PTR ?RI@@3PAUref_instance_t@@A ; RI
	mov	ecx, DWORD PTR [eax]
	and	ecx, 32					; 00000020H
	jne	SHORT $LN3@R_DrawWeat
	mov	eax, DWORD PTR ?RI@@3PAUref_instance_t@@A ; RI
	mov	ecx, DWORD PTR [eax]
	and	ecx, 256				; 00000100H
	jne	SHORT $LN3@R_DrawWeat
	mov	eax, DWORD PTR ?RI@@3PAUref_instance_t@@A ; RI
	mov	ecx, DWORD PTR [eax]
	and	ecx, 2
	je	SHORT $LN2@R_DrawWeat
$LN3@R_DrawWeat:

; 863  : 		return;

	jmp	$LN1@R_DrawWeat
$LN2@R_DrawWeat:

; 864  : 
; 865  : 	GL_CleanupDrawState();

	call	?GL_CleanupDrawState@@YAXXZ		; GL_CleanupDrawState

; 866  : 	GL_AlphaTest( GL_FALSE );

	push	0
	call	?GL_AlphaTest@@YAXH@Z			; GL_AlphaTest
	add	esp, 4

; 867  : 	GL_DepthMask( GL_FALSE );

	push	0
	call	?GL_DepthMask@@YAXH@Z			; GL_DepthMask
	add	esp, 4

; 868  : 	
; 869  : 	ProcessRain();

	call	?ProcessRain@@YAXXZ			; ProcessRain

; 870  : 	ProcessFXObjects();

	call	?ProcessFXObjects@@YAXXZ		; ProcessFXObjects

; 871  : 
; 872  : 	gHUD.ScreenDrips_Visible = false;

	mov	BYTE PTR ?gHUD@@3VCHud@@A+160, 0

; 873  : 	if( gHUD.ScreenDrips_OverrideTime < tr.time )

	cvtss2sd xmm0, DWORD PTR ?gHUD@@3VCHud@@A+168
	movsd	xmm1, QWORD PTR ?tr@@3Uref_globals_t@@A+8
	comisd	xmm1, xmm0
	jbe	$LN4@R_DrawWeat

; 874  : 	{
; 875  : 		gHUD.ScreenDrips_DripIntensity = Rain.dripsPerSecond / 2500.0f; // this number can be tuned

	cvtsi2ss xmm0, DWORD PTR ?Rain@@3U<unnamed-type-Rain>@@A
	divss	xmm0, DWORD PTR __real@451c4000
	movss	DWORD PTR ?gHUD@@3VCHud@@A+164, xmm0

; 876  : 		gHUD.ScreenDrips_DripIntensity = bound( 0.0f, gHUD.ScreenDrips_DripIntensity, 0.5f );

	movss	xmm0, DWORD PTR ?gHUD@@3VCHud@@A+164
	comiss	xmm0, DWORD PTR __real@00000000
	jb	SHORT $LN11@R_DrawWeat
	movss	xmm0, DWORD PTR __real@3f000000
	comiss	xmm0, DWORD PTR ?gHUD@@3VCHud@@A+164
	jbe	SHORT $LN9@R_DrawWeat
	movss	xmm0, DWORD PTR ?gHUD@@3VCHud@@A+164
	movss	DWORD PTR tv81[ebp], xmm0
	jmp	SHORT $LN10@R_DrawWeat
$LN9@R_DrawWeat:
	movss	xmm0, DWORD PTR __real@3f000000
	movss	DWORD PTR tv81[ebp], xmm0
$LN10@R_DrawWeat:
	movss	xmm0, DWORD PTR tv81[ebp]
	movss	DWORD PTR tv82[ebp], xmm0
	jmp	SHORT $LN12@R_DrawWeat
$LN11@R_DrawWeat:
	xorps	xmm0, xmm0
	movss	DWORD PTR tv82[ebp], xmm0
$LN12@R_DrawWeat:
	movss	xmm0, DWORD PTR tv82[ebp]
	movss	DWORD PTR ?gHUD@@3VCHud@@A+164, xmm0
$LN4@R_DrawWeat:

; 877  : 	}
; 878  : 
; 879  : 	if( Rain.dripsPerSecond > 0 )

	cmp	DWORD PTR ?Rain@@3U<unnamed-type-Rain>@@A, 0
	jle	$LN7@R_DrawWeat

; 880  : 	{
; 881  : 		// diffusion - trace up from the player to check if he is under a roof
; 882  : 		// make sure he is not above it
; 883  : 		if( gEngfuncs.GetLocalPlayer()->curstate.origin.z < Rain.globalHeight )

	call	DWORD PTR ?gEngfuncs@@3Ucl_enginefuncs_s@@A+204
	movss	xmm0, DWORD PTR ?Rain@@3U<unnamed-type-Rain>@@A+28
	comiss	xmm0, DWORD PTR [eax+712]
	jbe	$LN7@R_DrawWeat

; 884  : 		{
; 885  : 			pmtrace_t trace;

	lea	ecx, DWORD PTR _trace$3[ebp]
	call	??0pmtrace_s@@QAE@XZ

; 886  : 			Vector PlayerOrg = gEngfuncs.GetLocalPlayer()->curstate.origin;

	call	DWORD PTR ?gEngfuncs@@3Ucl_enginefuncs_s@@A+204
	add	eax, 704				; 000002c0H
	push	eax
	lea	ecx, DWORD PTR _PlayerOrg$2[ebp]
	call	??0Vector@@QAE@ABV0@@Z			; Vector::Vector

; 887  : 			Vector RainOrg = PlayerOrg;

	lea	eax, DWORD PTR _PlayerOrg$2[ebp]
	push	eax
	lea	ecx, DWORD PTR _RainOrg$1[ebp]
	call	??0Vector@@QAE@ABV0@@Z			; Vector::Vector

; 888  : 			RainOrg.z = Rain.globalHeight;

	movss	xmm0, DWORD PTR ?Rain@@3U<unnamed-type-Rain>@@A+28
	movss	DWORD PTR _RainOrg$1[ebp+8], xmm0

; 889  : 			gEngfuncs.pEventAPI->EV_SetTraceHull( 2 );

	push	2
	mov	eax, DWORD PTR ?gEngfuncs@@3Ucl_enginefuncs_s@@A+336
	mov	ecx, DWORD PTR [eax+56]
	call	ecx
	add	esp, 4

; 890  : 			gEngfuncs.pEventAPI->EV_PlayerTrace( PlayerOrg, RainOrg, PM_TRACELINE_PHYSENTSONLY, gEngfuncs.GetLocalPlayer()->index, &trace );

	lea	eax, DWORD PTR _trace$3[ebp]
	push	eax
	call	DWORD PTR ?gEngfuncs@@3Ucl_enginefuncs_s@@A+204
	mov	ecx, DWORD PTR [eax]
	push	ecx
	push	0
	lea	ecx, DWORD PTR _RainOrg$1[ebp]
	call	??BVector@@QAEPAMXZ			; Vector::operator float *
	push	eax
	lea	ecx, DWORD PTR _PlayerOrg$2[ebp]
	call	??BVector@@QAEPAMXZ			; Vector::operator float *
	push	eax
	mov	edx, DWORD PTR ?gEngfuncs@@3Ucl_enginefuncs_s@@A+336
	mov	eax, DWORD PTR [edx+60]
	call	eax
	add	esp, 20					; 00000014H

; 891  : 			if( trace.fraction == 1.0f ) // in the open // P.S. maybe check a sky texture instead? or both methods? anyway this works well for now

	movss	xmm0, DWORD PTR _trace$3[ebp+16]
	ucomiss	xmm0, DWORD PTR __real@3f800000
	lahf
	test	ah, 68					; 00000044H
	jp	SHORT $LN7@R_DrawWeat

; 892  : 				gHUD.ScreenDrips_Visible = true;

	mov	BYTE PTR ?gHUD@@3VCHud@@A+160, 1
$LN7@R_DrawWeat:

; 893  : 		}
; 894  : 	}
; 895  : 
; 896  : 	DrawRain();

	call	?DrawRain@@YAXXZ			; DrawRain

; 897  : 	DrawFXObjects();

	call	?DrawFXObjects@@YAXXZ			; DrawFXObjects
$LN1@R_DrawWeat:

; 898  : }

	pop	edi
	pop	esi
	pop	ebx
	mov	esp, ebp
	pop	ebp
	ret	0
?R_DrawWeather@@YAXXZ ENDP				; R_DrawWeather
_TEXT	ENDS
; Function compile flags: /Odtp /ZI
; File d:\!diffusion 2020\source code 2022\client-server\client\render\r_weather.cpp
;	COMDAT ?R_ResetWeather@@YAXXZ
_TEXT	SEGMENT
?R_ResetWeather@@YAXXZ PROC				; R_ResetWeather, COMDAT

; 374  : {

	push	ebp
	mov	ebp, esp
	sub	esp, 64					; 00000040H
	push	ebx
	push	esi
	push	edi

; 375  : 	// delete all drips
; 376  : 	g_dripsArray.Clear();

	mov	ecx, OFFSET ?g_dripsArray@@3V?$MemBlock@Ucl_drip@@@@A ; g_dripsArray
	call	?Clear@?$MemBlock@Ucl_drip@@@@QAEXXZ	; MemBlock<cl_drip>::Clear

; 377  : 	g_fxArray.Clear();

	mov	ecx, OFFSET ?g_fxArray@@3V?$MemBlock@Ucl_rainfx@@@@A ; g_fxArray
	call	?Clear@?$MemBlock@Ucl_rainfx@@@@QAEXXZ	; MemBlock<cl_rainfx>::Clear

; 378  : 	
; 379  : 	dripcounter = 0;

	mov	DWORD PTR ?dripcounter@@3HA, 0		; dripcounter

; 380  : 	fxcounter = 0;

	mov	DWORD PTR ?fxcounter@@3HA, 0		; fxcounter

; 381  : 
; 382  : 	R_InitWeather();

	call	?R_InitWeather@@YAXXZ			; R_InitWeather

; 383  : }

	pop	edi
	pop	esi
	pop	ebx
	mov	esp, ebp
	pop	ebp
	ret	0
?R_ResetWeather@@YAXXZ ENDP				; R_ResetWeather
_TEXT	ENDS
; Function compile flags: /Odtp /ZI
; File d:\!diffusion 2020\source code 2022\client-server\client\render\r_weather.cpp
;	COMDAT ?R_InitWeather@@YAXXZ
_TEXT	SEGMENT
?R_InitWeather@@YAXXZ PROC				; R_InitWeather, COMDAT

; 392  : {

	push	ebp
	mov	ebp, esp
	sub	esp, 64					; 00000040H
	push	ebx
	push	esi
	push	edi

; 393  : 	cl_debug_rain = CVAR_REGISTER( "cl_debug_rain", "0", 0 ); 

	push	0
	push	OFFSET ??_C@_01GBGANLPD@0?$AA@
	push	OFFSET ??_C@_0O@EKIBMLEM@cl_debug_rain?$AA@
	call	DWORD PTR ?gEngfuncs@@3Ucl_enginefuncs_s@@A+56
	add	esp, 12					; 0000000cH
	mov	DWORD PTR ?cl_debug_rain@@3PAUcvar_s@@A, eax ; cl_debug_rain

; 394  : 	memset( &Rain, 0, sizeof( Rain ));

	push	32					; 00000020H
	push	0
	push	OFFSET ?Rain@@3U<unnamed-type-Rain>@@A	; Rain
	call	_memset
	add	esp, 12					; 0000000cH

; 395  : 
; 396  : 	rain_nextspawntime = 0;

	xorps	xmm0, xmm0
	movsd	QWORD PTR ?rain_nextspawntime@@3NA, xmm0

; 397  : 	rain_oldtime = 0;

	xorps	xmm0, xmm0
	movsd	QWORD PTR ?rain_oldtime@@3NA, xmm0

; 398  : 	rain_curtime = 0;

	xorps	xmm0, xmm0
	movsd	QWORD PTR ?rain_curtime@@3NA, xmm0

; 399  : 
; 400  : 	gHUD.ScreenDrips_Visible = false;

	mov	BYTE PTR ?gHUD@@3VCHud@@A+160, 0

; 401  : 	gHUD.ScreenDrips_CurVisibility = 0.0f;

	xorps	xmm0, xmm0
	movss	DWORD PTR ?gHUD@@3VCHud@@A+156, xmm0

; 402  : 	gHUD.ScreenDrips_DripIntensity = 0.0f;

	xorps	xmm0, xmm0
	movss	DWORD PTR ?gHUD@@3VCHud@@A+164, xmm0

; 403  : 	gHUD.ScreenDrips_OverrideTime = 0.0f;

	xorps	xmm0, xmm0
	movss	DWORD PTR ?gHUD@@3VCHud@@A+168, xmm0

; 404  : }

	pop	edi
	pop	esi
	pop	ebx
	mov	esp, ebp
	pop	ebp
	ret	0
?R_InitWeather@@YAXXZ ENDP				; R_InitWeather
_TEXT	ENDS
; Function compile flags: /Odtp /ZI
;	COMDAT ??0cl_rainfx@@QAE@XZ
_TEXT	SEGMENT
_this$ = -4						; size = 4
??0cl_rainfx@@QAE@XZ PROC				; cl_rainfx::cl_rainfx, COMDAT
; _this$ = ecx
	push	ebp
	mov	ebp, esp
	sub	esp, 68					; 00000044H
	push	ebx
	push	esi
	push	edi
	mov	DWORD PTR _this$[ebp], ecx
	mov	ecx, DWORD PTR _this$[ebp]
	add	ecx, 8
	call	??0Vector@@QAE@XZ			; Vector::Vector
	mov	eax, DWORD PTR _this$[ebp]
	pop	edi
	pop	esi
	pop	ebx
	mov	esp, ebp
	pop	ebp
	ret	0
??0cl_rainfx@@QAE@XZ ENDP				; cl_rainfx::cl_rainfx
_TEXT	ENDS
; Function compile flags: /Odtp /ZI
;	COMDAT ??0cl_drip@@QAE@XZ
_TEXT	SEGMENT
_this$ = -4						; size = 4
??0cl_drip@@QAE@XZ PROC					; cl_drip::cl_drip, COMDAT
; _this$ = ecx
	push	ebp
	mov	ebp, esp
	sub	esp, 68					; 00000044H
	push	ebx
	push	esi
	push	edi
	mov	DWORD PTR _this$[ebp], ecx
	mov	ecx, DWORD PTR _this$[ebp]
	add	ecx, 8
	call	??0Vector@@QAE@XZ			; Vector::Vector
	mov	eax, DWORD PTR _this$[ebp]
	pop	edi
	pop	esi
	pop	ebx
	mov	esp, ebp
	pop	ebp
	ret	0
??0cl_drip@@QAE@XZ ENDP					; cl_drip::cl_drip
_TEXT	ENDS
; Function compile flags: /Odtp /ZI
;	COMDAT ??0pmtrace_s@@QAE@XZ
_TEXT	SEGMENT
_this$ = -4						; size = 4
??0pmtrace_s@@QAE@XZ PROC				; pmtrace_s::pmtrace_s, COMDAT
; _this$ = ecx
	push	ebp
	mov	ebp, esp
	sub	esp, 68					; 00000044H
	push	ebx
	push	esi
	push	edi
	mov	DWORD PTR _this$[ebp], ecx
	mov	ecx, DWORD PTR _this$[ebp]
	add	ecx, 20					; 00000014H
	call	??0Vector@@QAE@XZ			; Vector::Vector
	mov	ecx, DWORD PTR _this$[ebp]
	add	ecx, 32					; 00000020H
	call	??0pmplane_t@@QAE@XZ
	mov	ecx, DWORD PTR _this$[ebp]
	add	ecx, 52					; 00000034H
	call	??0Vector@@QAE@XZ			; Vector::Vector
	mov	eax, DWORD PTR _this$[ebp]
	pop	edi
	pop	esi
	pop	ebx
	mov	esp, ebp
	pop	ebp
	ret	0
??0pmtrace_s@@QAE@XZ ENDP				; pmtrace_s::pmtrace_s
_TEXT	ENDS
; Function compile flags: /Odtp /ZI
;	COMDAT ??0pmplane_t@@QAE@XZ
_TEXT	SEGMENT
_this$ = -4						; size = 4
??0pmplane_t@@QAE@XZ PROC				; pmplane_t::pmplane_t, COMDAT
; _this$ = ecx
	push	ebp
	mov	ebp, esp
	sub	esp, 68					; 00000044H
	push	ebx
	push	esi
	push	edi
	mov	DWORD PTR _this$[ebp], ecx
	mov	ecx, DWORD PTR _this$[ebp]
	call	??0Vector@@QAE@XZ			; Vector::Vector
	mov	eax, DWORD PTR _this$[ebp]
	pop	edi
	pop	esi
	pop	ebx
	mov	esp, ebp
	pop	ebp
	ret	0
??0pmplane_t@@QAE@XZ ENDP				; pmplane_t::pmplane_t
_TEXT	ENDS
; Function compile flags: /Odtp /ZI
; File d:\!diffusion 2020\source code 2022\client-server\game_shared\vector.h
;	COMDAT ??BVector@@QAEPAMXZ
_TEXT	SEGMENT
_this$ = -4						; size = 4
??BVector@@QAEPAMXZ PROC				; Vector::operator float *, COMDAT
; _this$ = ecx

; 247  : 	operator float *()				{ return &x; } // Vectors will now automatically convert to float * when needed

	push	ebp
	mov	ebp, esp
	sub	esp, 68					; 00000044H
	push	ebx
	push	esi
	push	edi
	mov	DWORD PTR _this$[ebp], ecx
	mov	eax, DWORD PTR _this$[ebp]
	pop	edi
	pop	esi
	pop	ebx
	mov	esp, ebp
	pop	ebp
	ret	0
??BVector@@QAEPAMXZ ENDP				; Vector::operator float *
_TEXT	ENDS
; Function compile flags: /Odtp /ZI
; File d:\!diffusion 2020\source code 2022\client-server\game_shared\vector.h
;	COMDAT ??DVector@@QBE?AV0@M@Z
_TEXT	SEGMENT
_this$ = -4						; size = 4
___$ReturnUdt$ = 8					; size = 4
_fl$ = 12						; size = 4
??DVector@@QBE?AV0@M@Z PROC				; Vector::operator*, COMDAT
; _this$ = ecx

; 162  : 	inline Vector operator*(float fl) const		{ return Vector(x*fl, y*fl, z*fl);	   }

	push	ebp
	mov	ebp, esp
	sub	esp, 68					; 00000044H
	push	ebx
	push	esi
	push	edi
	mov	DWORD PTR _this$[ebp], ecx
	mov	eax, DWORD PTR _this$[ebp]
	movss	xmm0, DWORD PTR [eax+8]
	mulss	xmm0, DWORD PTR _fl$[ebp]
	push	ecx
	movss	DWORD PTR [esp], xmm0
	mov	ecx, DWORD PTR _this$[ebp]
	movss	xmm0, DWORD PTR [ecx+4]
	mulss	xmm0, DWORD PTR _fl$[ebp]
	push	ecx
	movss	DWORD PTR [esp], xmm0
	mov	edx, DWORD PTR _this$[ebp]
	movss	xmm0, DWORD PTR [edx]
	mulss	xmm0, DWORD PTR _fl$[ebp]
	push	ecx
	movss	DWORD PTR [esp], xmm0
	mov	ecx, DWORD PTR ___$ReturnUdt$[ebp]
	call	??0Vector@@QAE@MMM@Z			; Vector::Vector
	mov	eax, DWORD PTR ___$ReturnUdt$[ebp]
	pop	edi
	pop	esi
	pop	ebx
	mov	esp, ebp
	pop	ebp
	ret	8
??DVector@@QBE?AV0@M@Z ENDP				; Vector::operator*
_TEXT	ENDS
; Function compile flags: /Odtp /ZI
; File d:\!diffusion 2020\source code 2022\client-server\game_shared\vector.h
;	COMDAT ??HVector@@QBE?AV0@ABV0@@Z
_TEXT	SEGMENT
_this$ = -4						; size = 4
___$ReturnUdt$ = 8					; size = 4
_v$ = 12						; size = 4
??HVector@@QBE?AV0@ABV0@@Z PROC				; Vector::operator+, COMDAT
; _this$ = ecx

; 158  : 	inline Vector operator+(const Vector& v) const	{ return Vector(x+v.x, y+v.y, z+v.z);	   }

	push	ebp
	mov	ebp, esp
	sub	esp, 68					; 00000044H
	push	ebx
	push	esi
	push	edi
	mov	DWORD PTR _this$[ebp], ecx
	mov	eax, DWORD PTR _this$[ebp]
	mov	ecx, DWORD PTR _v$[ebp]
	movss	xmm0, DWORD PTR [eax+8]
	addss	xmm0, DWORD PTR [ecx+8]
	push	ecx
	movss	DWORD PTR [esp], xmm0
	mov	edx, DWORD PTR _this$[ebp]
	mov	eax, DWORD PTR _v$[ebp]
	movss	xmm0, DWORD PTR [edx+4]
	addss	xmm0, DWORD PTR [eax+4]
	push	ecx
	movss	DWORD PTR [esp], xmm0
	mov	ecx, DWORD PTR _this$[ebp]
	mov	edx, DWORD PTR _v$[ebp]
	movss	xmm0, DWORD PTR [ecx]
	addss	xmm0, DWORD PTR [edx]
	push	ecx
	movss	DWORD PTR [esp], xmm0
	mov	ecx, DWORD PTR ___$ReturnUdt$[ebp]
	call	??0Vector@@QAE@MMM@Z			; Vector::Vector
	mov	eax, DWORD PTR ___$ReturnUdt$[ebp]
	pop	edi
	pop	esi
	pop	ebx
	mov	esp, ebp
	pop	ebp
	ret	8
??HVector@@QBE?AV0@ABV0@@Z ENDP				; Vector::operator+
_TEXT	ENDS
; Function compile flags: /Odtp /ZI
; File d:\!diffusion 2020\source code 2022\client-server\game_shared\vector.h
;	COMDAT ??0Vector@@QAE@ABV0@@Z
_TEXT	SEGMENT
_this$ = -4						; size = 4
_v$ = 8							; size = 4
??0Vector@@QAE@ABV0@@Z PROC				; Vector::Vector, COMDAT
; _this$ = ecx

; 145  : 	inline Vector(const Vector& v)		{ x = v.x; y = v.y; z = v.z;		   }

	push	ebp
	mov	ebp, esp
	sub	esp, 68					; 00000044H
	push	ebx
	push	esi
	push	edi
	mov	DWORD PTR _this$[ebp], ecx
	mov	eax, DWORD PTR _this$[ebp]
	mov	ecx, DWORD PTR _v$[ebp]
	mov	edx, DWORD PTR [ecx]
	mov	DWORD PTR [eax], edx
	mov	eax, DWORD PTR _this$[ebp]
	mov	ecx, DWORD PTR _v$[ebp]
	mov	edx, DWORD PTR [ecx+4]
	mov	DWORD PTR [eax+4], edx
	mov	eax, DWORD PTR _this$[ebp]
	mov	ecx, DWORD PTR _v$[ebp]
	mov	edx, DWORD PTR [ecx+8]
	mov	DWORD PTR [eax+8], edx
	mov	eax, DWORD PTR _this$[ebp]
	pop	edi
	pop	esi
	pop	ebx
	mov	esp, ebp
	pop	ebp
	ret	4
??0Vector@@QAE@ABV0@@Z ENDP				; Vector::Vector
_TEXT	ENDS
; Function compile flags: /Odtp /ZI
; File d:\!diffusion 2020\source code 2022\client-server\game_shared\vector.h
;	COMDAT ??0Vector@@QAE@MMM@Z
_TEXT	SEGMENT
_this$ = -4						; size = 4
_X$ = 8							; size = 4
_Y$ = 12						; size = 4
_Z$ = 16						; size = 4
??0Vector@@QAE@MMM@Z PROC				; Vector::Vector, COMDAT
; _this$ = ecx

; 144  : 	inline Vector(float X, float Y, float Z)	{ x = X; y = Y; z = Z;                     }

	push	ebp
	mov	ebp, esp
	sub	esp, 68					; 00000044H
	push	ebx
	push	esi
	push	edi
	mov	DWORD PTR _this$[ebp], ecx
	mov	eax, DWORD PTR _this$[ebp]
	movss	xmm0, DWORD PTR _X$[ebp]
	movss	DWORD PTR [eax], xmm0
	mov	eax, DWORD PTR _this$[ebp]
	movss	xmm0, DWORD PTR _Y$[ebp]
	movss	DWORD PTR [eax+4], xmm0
	mov	eax, DWORD PTR _this$[ebp]
	movss	xmm0, DWORD PTR _Z$[ebp]
	movss	DWORD PTR [eax+8], xmm0
	mov	eax, DWORD PTR _this$[ebp]
	pop	edi
	pop	esi
	pop	ebx
	mov	esp, ebp
	pop	ebp
	ret	12					; 0000000cH
??0Vector@@QAE@MMM@Z ENDP				; Vector::Vector
_TEXT	ENDS
; Function compile flags: /Odtp /ZI
; File d:\!diffusion 2020\source code 2022\client-server\game_shared\vector.h
;	COMDAT ??0Vector@@QAE@XZ
_TEXT	SEGMENT
_this$ = -4						; size = 4
??0Vector@@QAE@XZ PROC					; Vector::Vector, COMDAT
; _this$ = ecx

; 143  : 	inline Vector(void)				{ }

	push	ebp
	mov	ebp, esp
	sub	esp, 68					; 00000044H
	push	ebx
	push	esi
	push	edi
	mov	DWORD PTR _this$[ebp], ecx
	mov	eax, DWORD PTR _this$[ebp]
	pop	edi
	pop	esi
	pop	ebx
	mov	esp, ebp
	pop	ebp
	ret	0
??0Vector@@QAE@XZ ENDP					; Vector::Vector
_TEXT	ENDS
; Function compile flags: /Odtp /ZI
; File d:\!diffusion 2020\source code 2022\client-server\game_shared\vector.h
;	COMDAT ?Normalize@Vector2D@@QBE?AV1@XZ
_TEXT	SEGMENT
_flLen$ = -16						; size = 4
_vec2$ = -12						; size = 8
_this$ = -4						; size = 4
___$ReturnUdt$ = 8					; size = 4
?Normalize@Vector2D@@QBE?AV1@XZ PROC			; Vector2D::Normalize, COMDAT
; _this$ = ecx

; 106  : 	{

	push	ebp
	mov	ebp, esp
	sub	esp, 80					; 00000050H
	push	ebx
	push	esi
	push	edi
	mov	DWORD PTR _this$[ebp], ecx

; 107  : 		Vector2D vec2;

	lea	ecx, DWORD PTR _vec2$[ebp]
	call	??0Vector2D@@QAE@XZ			; Vector2D::Vector2D

; 108  : 
; 109  : 		float flLen = Length();

	mov	ecx, DWORD PTR _this$[ebp]
	call	?Length@Vector2D@@QBEMXZ		; Vector2D::Length
	fstp	DWORD PTR _flLen$[ebp]

; 110  : 		if ( flLen == 0 )

	movss	xmm0, DWORD PTR _flLen$[ebp]
	ucomiss	xmm0, DWORD PTR __real@00000000
	lahf
	test	ah, 68					; 00000044H
	jp	SHORT $LN2@Normalize

; 111  : 		{
; 112  : 			return Vector2D( 0, 0 );

	push	ecx
	xorps	xmm0, xmm0
	movss	DWORD PTR [esp], xmm0
	push	ecx
	xorps	xmm0, xmm0
	movss	DWORD PTR [esp], xmm0
	mov	ecx, DWORD PTR ___$ReturnUdt$[ebp]
	call	??0Vector2D@@QAE@MM@Z			; Vector2D::Vector2D
	mov	eax, DWORD PTR ___$ReturnUdt$[ebp]
	jmp	SHORT $LN3@Normalize

; 113  : 		}
; 114  : 		else

	jmp	SHORT $LN3@Normalize
$LN2@Normalize:

; 115  : 		{
; 116  : 			flLen = 1 / flLen;

	movss	xmm0, DWORD PTR __real@3f800000
	divss	xmm0, DWORD PTR _flLen$[ebp]
	movss	DWORD PTR _flLen$[ebp], xmm0

; 117  : 			return Vector2D( x * flLen, y * flLen );

	mov	eax, DWORD PTR _this$[ebp]
	movss	xmm0, DWORD PTR [eax+4]
	mulss	xmm0, DWORD PTR _flLen$[ebp]
	push	ecx
	movss	DWORD PTR [esp], xmm0
	mov	ecx, DWORD PTR _this$[ebp]
	movss	xmm0, DWORD PTR [ecx]
	mulss	xmm0, DWORD PTR _flLen$[ebp]
	push	ecx
	movss	DWORD PTR [esp], xmm0
	mov	ecx, DWORD PTR ___$ReturnUdt$[ebp]
	call	??0Vector2D@@QAE@MM@Z			; Vector2D::Vector2D
	mov	eax, DWORD PTR ___$ReturnUdt$[ebp]
$LN3@Normalize:

; 118  : 		}
; 119  : 	}

	pop	edi
	pop	esi
	pop	ebx
	mov	esp, ebp
	pop	ebp
	ret	4
?Normalize@Vector2D@@QBE?AV1@XZ ENDP			; Vector2D::Normalize
_TEXT	ENDS
; Function compile flags: /Odtp /ZI
; File d:\!diffusion 2020\source code 2022\client-server\game_shared\vector.h
;	COMDAT ?Length@Vector2D@@QBEMXZ
_TEXT	SEGMENT
tv84 = -72						; size = 4
_this$ = -4						; size = 4
?Length@Vector2D@@QBEMXZ PROC				; Vector2D::Length, COMDAT
; _this$ = ecx

; 104  : 	inline float Length(void) const { return sqrt(x*x + y*y ); }

	push	ebp
	mov	ebp, esp
	sub	esp, 72					; 00000048H
	push	ebx
	push	esi
	push	edi
	mov	DWORD PTR _this$[ebp], ecx
	mov	eax, DWORD PTR _this$[ebp]
	mov	ecx, DWORD PTR _this$[ebp]
	movss	xmm0, DWORD PTR [eax]
	mulss	xmm0, DWORD PTR [ecx]
	mov	edx, DWORD PTR _this$[ebp]
	mov	eax, DWORD PTR _this$[ebp]
	movss	xmm1, DWORD PTR [edx+4]
	mulss	xmm1, DWORD PTR [eax+4]
	addss	xmm0, xmm1
	cvtss2sd xmm0, xmm0
	sub	esp, 8
	movsd	QWORD PTR [esp], xmm0
	call	_sqrt
	add	esp, 8
	fstp	DWORD PTR tv84[ebp]
	fld	DWORD PTR tv84[ebp]
	pop	edi
	pop	esi
	pop	ebx
	mov	esp, ebp
	pop	ebp
	ret	0
?Length@Vector2D@@QBEMXZ ENDP				; Vector2D::Length
_TEXT	ENDS
; Function compile flags: /Odtp /ZI
; File d:\!diffusion 2020\source code 2022\client-server\game_shared\vector.h
;	COMDAT ??0Vector2D@@QAE@MM@Z
_TEXT	SEGMENT
_this$ = -4						; size = 4
_X$ = 8							; size = 4
_Y$ = 12						; size = 4
??0Vector2D@@QAE@MM@Z PROC				; Vector2D::Vector2D, COMDAT
; _this$ = ecx

; 61   : 	inline Vector2D(float X, float Y) { x = X; y = Y; }

	push	ebp
	mov	ebp, esp
	sub	esp, 68					; 00000044H
	push	ebx
	push	esi
	push	edi
	mov	DWORD PTR _this$[ebp], ecx
	mov	eax, DWORD PTR _this$[ebp]
	movss	xmm0, DWORD PTR _X$[ebp]
	movss	DWORD PTR [eax], xmm0
	mov	eax, DWORD PTR _this$[ebp]
	movss	xmm0, DWORD PTR _Y$[ebp]
	movss	DWORD PTR [eax+4], xmm0
	mov	eax, DWORD PTR _this$[ebp]
	pop	edi
	pop	esi
	pop	ebx
	mov	esp, ebp
	pop	ebp
	ret	8
??0Vector2D@@QAE@MM@Z ENDP				; Vector2D::Vector2D
_TEXT	ENDS
; Function compile flags: /Odtp /ZI
; File d:\!diffusion 2020\source code 2022\client-server\game_shared\vector.h
;	COMDAT ??0Vector2D@@QAE@XZ
_TEXT	SEGMENT
_this$ = -4						; size = 4
??0Vector2D@@QAE@XZ PROC				; Vector2D::Vector2D, COMDAT
; _this$ = ecx

; 60   : 	inline Vector2D(void) { }

	push	ebp
	mov	ebp, esp
	sub	esp, 68					; 00000044H
	push	ebx
	push	esi
	push	edi
	mov	DWORD PTR _this$[ebp], ecx
	mov	eax, DWORD PTR _this$[ebp]
	pop	edi
	pop	esi
	pop	ebx
	mov	esp, ebp
	pop	ebp
	ret	0
??0Vector2D@@QAE@XZ ENDP				; Vector2D::Vector2D
_TEXT	ENDS
; Function compile flags: /Odtp /ZI
;	COMDAT ??__G@YGXPAX0IIP6EPAX00@Z@Z
_TEXT	SEGMENT
tv66 = -68						; size = 4
___t$ = 8						; size = 4
___u$ = 12						; size = 4
___s$ = 16						; size = 4
___n$ = 20						; size = 4
___f$ = 24						; size = 4
??__G@YGXPAX0IIP6EPAX00@Z@Z PROC			; `vector copy constructor iterator', COMDAT
	push	ebp
	mov	ebp, esp
	sub	esp, 68					; 00000044H
	push	ebx
	push	esi
	push	edi
$LN2@vector:
	mov	eax, DWORD PTR ___n$[ebp]
	mov	DWORD PTR tv66[ebp], eax
	mov	ecx, DWORD PTR ___n$[ebp]
	sub	ecx, 1
	mov	DWORD PTR ___n$[ebp], ecx
	cmp	DWORD PTR tv66[ebp], 0
	jbe	SHORT $LN1@vector
	mov	eax, DWORD PTR ___u$[ebp]
	push	eax
	mov	ecx, DWORD PTR ___t$[ebp]
	call	DWORD PTR ___f$[ebp]
	mov	eax, DWORD PTR ___t$[ebp]
	add	eax, DWORD PTR ___s$[ebp]
	mov	DWORD PTR ___t$[ebp], eax
	mov	eax, DWORD PTR ___u$[ebp]
	add	eax, DWORD PTR ___s$[ebp]
	mov	DWORD PTR ___u$[ebp], eax
	jmp	SHORT $LN2@vector
$LN1@vector:
	pop	edi
	pop	esi
	pop	ebx
	mov	esp, ebp
	pop	ebp
	ret	20					; 00000014H
??__G@YGXPAX0IIP6EPAX00@Z@Z ENDP			; `vector copy constructor iterator'
_TEXT	ENDS
; Function compile flags: /Odtp /ZI
;	COMDAT ??_H@YGXPAXIIP6EPAX0@Z@Z
_TEXT	SEGMENT
tv66 = -68						; size = 4
___t$ = 8						; size = 4
___s$ = 12						; size = 4
___n$ = 16						; size = 4
___f$ = 20						; size = 4
??_H@YGXPAXIIP6EPAX0@Z@Z PROC				; `vector constructor iterator', COMDAT
	push	ebp
	mov	ebp, esp
	sub	esp, 68					; 00000044H
	push	ebx
	push	esi
	push	edi
$LN2@vector:
	mov	eax, DWORD PTR ___n$[ebp]
	mov	DWORD PTR tv66[ebp], eax
	mov	ecx, DWORD PTR ___n$[ebp]
	sub	ecx, 1
	mov	DWORD PTR ___n$[ebp], ecx
	cmp	DWORD PTR tv66[ebp], 0
	jbe	SHORT $LN1@vector
	mov	ecx, DWORD PTR ___t$[ebp]
	call	DWORD PTR ___f$[ebp]
	mov	eax, DWORD PTR ___t$[ebp]
	add	eax, DWORD PTR ___s$[ebp]
	mov	DWORD PTR ___t$[ebp], eax
	jmp	SHORT $LN2@vector
$LN1@vector:
	pop	edi
	pop	esi
	pop	ebx
	mov	esp, ebp
	pop	ebp
	ret	16					; 00000010H
??_H@YGXPAXIIP6EPAX0@Z@Z ENDP				; `vector constructor iterator'
_TEXT	ENDS
END
