; Listing generated by Microsoft (R) Optimizing Compiler Version 19.00.24247.2 

	TITLE	D:\!DIFFUSION 2020\source code 2022\client-server\client\render\r_world.cpp
	.686P
	.XMM
	include listing.inc
	.model	flat

INCLUDELIB LIBCMT
INCLUDELIB OLDNAMES

PUBLIC	?world@@3PAUgl_world_t@@A			; world
_DATA	SEGMENT
?world@@3PAUgl_world_t@@A DD FLAT:?worlddata@@3Ugl_world_t@@A ; world
_DATA	ENDS
PUBLIC	??_H@YGXPAXIIP6EPAX0@Z@Z			; `vector constructor iterator'
PUBLIC	??__G@YGXPAX0IIP6EPAX00@Z@Z			; `vector copy constructor iterator'
PUBLIC	___local_stdio_printf_options
PUBLIC	__vsprintf_s_l
PUBLIC	_vsprintf_s
PUBLIC	??0Vector2D@@QAE@XZ				; Vector2D::Vector2D
PUBLIC	??0Vector2D@@QAE@MM@Z				; Vector2D::Vector2D
PUBLIC	??BVector2D@@QAEPAMXZ				; Vector2D::operator float *
PUBLIC	??0Vector@@QAE@XZ				; Vector::Vector
PUBLIC	??0Vector@@QAE@MMM@Z				; Vector::Vector
PUBLIC	??0Vector@@QAE@ABV0@@Z				; Vector::Vector
PUBLIC	??0Vector@@QAE@QAM@Z				; Vector::Vector
PUBLIC	??GVector@@QBE?AV0@XZ				; Vector::operator-
PUBLIC	??8Vector@@QBEHABV0@@Z				; Vector::operator==
PUBLIC	??9Vector@@QBEHABV0@@Z				; Vector::operator!=
PUBLIC	??HVector@@QBE?AV0@ABV0@@Z			; Vector::operator+
PUBLIC	??GVector@@QBE?AV0@ABV0@@Z			; Vector::operator-
PUBLIC	?Length@Vector@@QBEMXZ				; Vector::Length
PUBLIC	??BVector@@QAEPAMXZ				; Vector::operator float *
PUBLIC	??BVector@@QBEPBMXZ				; Vector::operator float const *
PUBLIC	?Normalize@Vector@@QBE?AV1@XZ			; Vector::Normalize
PUBLIC	?DotProduct@@YAMABVVector@@0@Z			; DotProduct
PUBLIC	?CrossProduct@@YA?AVVector@@ABV1@0@Z		; CrossProduct
PUBLIC	??0Vector4D@@QAE@ABV0@@Z			; Vector4D::Vector4D
PUBLIC	??BVector4D@@QAEPAMXZ				; Vector4D::operator float *
PUBLIC	??BVector4D@@QBEPBMXZ				; Vector4D::operator float const *
PUBLIC	??Amatrix4x4@@QAEPAMH@Z				; matrix4x4::operator[]
PUBLIC	?CopyToArray@matrix4x4@@QBEXPAM@Z		; matrix4x4::CopyToArray
PUBLIC	??0matrix4x4@@QAE@ABV0@@Z			; matrix4x4::matrix4x4
PUBLIC	??0mplane_s@@QAE@XZ				; mplane_s::mplane_s
PUBLIC	??0mcubemap_s@@QAE@XZ				; mcubemap_s::mcubemap_s
PUBLIC	?FILE_EXISTS@@YA_NPBD@Z				; FILE_EXISTS
PUBLIC	?GetPlane@CFrustum@@QBEPBUmplane_s@@H@Z		; CFrustum::GetPlane
PUBLIC	?GetClipFlags@CFrustum@@QBEIXZ			; CFrustum::GetClipFlags
PUBLIC	?Mod_ThrowModelInstances@@YAXXZ			; Mod_ThrowModelInstances
PUBLIC	?Mod_PrepareModelInstances@@YAXXZ		; Mod_PrepareModelInstances
PUBLIC	?Mod_SampleSizeForFace@@YAHPAUmsurface_s@@@Z	; Mod_SampleSizeForFace
PUBLIC	?R_MarkLeaves@@YAXXZ				; R_MarkLeaves
PUBLIC	?R_DrawWorld@@YAXXZ				; R_DrawWorld
PUBLIC	?R_DrawWorldShadowPass@@YAXXZ			; R_DrawWorldShadowPass
PUBLIC	?R_DrawBrushModel@@YAXPAUcl_entity_s@@_N@Z	; R_DrawBrushModel
PUBLIC	?R_DrawBrushModelShadow@@YAXPAUcl_entity_s@@@Z	; R_DrawBrushModelShadow
PUBLIC	?R_ProcessWorldData@@YAXPAUmodel_s@@HPBE@Z	; R_ProcessWorldData
PUBLIC	?Mod_CheckLayerNameForSurf@@YA_NPAUmsurface_s@@PBD@Z ; Mod_CheckLayerNameForSurf
PUBLIC	?Mod_CheckLayerNameForPixel@@YA_NPAUmfaceinfo_t@@ABVVector@@PBD@Z ; Mod_CheckLayerNameForPixel
PUBLIC	?Mod_SetOrthoBounds@@YAXPBM0@Z			; Mod_SetOrthoBounds
PUBLIC	?R_SetRenderColor@@YAXPAUcl_entity_s@@@Z	; R_SetRenderColor
PUBLIC	?LoadMaterialSettingsForTexture@@YAXH@Z		; LoadMaterialSettingsForTexture
PUBLIC	??0gl_world_t@@QAE@XZ				; gl_world_t::gl_world_t
PUBLIC	?R_WorldMarkVisibleFaces@@YAXXZ			; R_WorldMarkVisibleFaces
PUBLIC	??$strcpy_s@$0EA@@@YAHAAY0EA@DPBD@Z		; strcpy_s<64>
PUBLIC	??$sprintf_s@$0GE@@@YAHAAY0GE@DPBDZZ		; sprintf_s<100>
PUBLIC	?R_ChooseBmodelProgram@@YAGPAUmsurface_s@@PAUcl_entity_s@@_N@Z ; R_ChooseBmodelProgram
PUBLIC	?R_AddSurfaceToDrawList@@YA_NPAUmsurface_s@@_N@Z ; R_AddSurfaceToDrawList
PUBLIC	?R_BuildFaceListForLight@@YAXPAUplight_s@@@Z	; R_BuildFaceListForLight
PUBLIC	?R_DrawLightForSurfList@@YAXPAUplight_s@@@Z	; R_DrawLightForSurfList
PUBLIC	?R_RenderDynLightList@@YAXXZ			; R_RenderDynLightList
PUBLIC	?R_DrawShadowBrushList@@YAXXZ			; R_DrawShadowBrushList
PUBLIC	?R_DrawBrushList@@YAXXZ				; R_DrawBrushList
PUBLIC	?R_SetRenderMode@@YAXPAUcl_entity_s@@@Z		; R_SetRenderMode
PUBLIC	?R_UpdateEngineVisibility@@YAXXZ		; R_UpdateEngineVisibility
PUBLIC	?R_RecursiveWorldNode@@YAXPAUmworldnode_s@@I@Z	; R_RecursiveWorldNode
PUBLIC	??$__vcrt_va_start_verify_argument_type@PBD@@YAXXZ ; __vcrt_va_start_verify_argument_type<char const *>
PUBLIC	?_OptionsStorage@?1??__local_stdio_printf_options@@9@4_KA ; `__local_stdio_printf_options'::`2'::_OptionsStorage
PUBLIC	??_C@_01GBGANLPD@0?$AA@				; `string'
PUBLIC	??_C@_09CBPMOBF@textures?1?$AA@			; `string'
PUBLIC	??_C@_00CNPNBAHC@?$AA@				; `string'
PUBLIC	??_C@_08GIGBPACO@?$CFs?$CFs?4txt?$AA@		; `string'
PUBLIC	??_C@_0O@FABBPFLC@DynlightScale?$AA@		; `string'
PUBLIC	??_C@_0L@FCAAPODF@GlossScale?$AA@		; `string'
PUBLIC	??_C@_0BA@ICCAKNBK@GlossSmoothness?$AA@		; `string'
PUBLIC	??_C@_0M@JAGIKOLG@EmbossScale?$AA@		; `string'
PUBLIC	??_C@_0N@IEPEEFFF@ReflectScale?$AA@		; `string'
PUBLIC	??_C@_0BD@OJLEKCEC@PlanarReflectScale?$AA@	; `string'
PUBLIC	??_C@_0BC@PMKJFOIN@FoliageSwayHeight?$AA@	; `string'
PUBLIC	??_C@_09ILPGELJF@NormalMap?$AA@			; `string'
PUBLIC	??_C@_0DL@HBBKAOHC@?$FO1Error?3?$FO7?5NormalMap?5for?5texture@ ; `string'
PUBLIC	??_C@_0M@EHKLCBDM@InteriorMap?$AA@		; `string'
PUBLIC	??_C@_0DN@LEIBLINF@?$FO1Error?3?$FO7?5InteriorMap?5for?5textu@ ; `string'
PUBLIC	??_C@_0N@DFFCABCK@InteriorGrid?$AA@		; `string'
PUBLIC	??_C@_0BD@ONHGNLFC@InteriorLightState?$AA@	; `string'
PUBLIC	??_C@_0L@MGDMKJPB@ApplyColor?$AA@		; `string'
PUBLIC	??_C@_09KFDFCIJG@ColorMask?$AA@			; `string'
PUBLIC	??_C@_0DL@FIMFFKLC@?$FO1Error?3?$FO7?5ColorMask?5for?5texture@ ; `string'
PUBLIC	??_C@_0DF@GNFDAIBL@Unknown?5parameter?5for?5texture?5?$CC?$CF@ ; `string'
PUBLIC	??_C@_0DE@FCCLJFMK@?$FO1Error?3?$FO7?5txt?5file?5for?5texture?5@ ; `string'
PUBLIC	??_C@_0M@HBPNKFIC@textures?1?$CFs?$AA@		; `string'
PUBLIC	??_C@_06NJHCGIDI@?$CFs?4tga?$AA@		; `string'
PUBLIC	??_C@_06PDNJPBCN@?$CFs?4dds?$AA@		; `string'
PUBLIC	??_C@_02DKCKIIND@?$CFs?$AA@			; `string'
PUBLIC	??_C@_0BB@PLLJNAKE@textures?1?$CFs_luma?$AA@	; `string'
PUBLIC	??_C@_03BNEOMJOP@sky?$AA@			; `string'
PUBLIC	?__LINE__Var@?0??Mod_SetParent@@YAXPAUmworldnode_s@@0@Z@4JA ; `Mod_SetParent'::`1'::__LINE__Var
PUBLIC	??_C@_0EM@FJLGGOCA@d?3?2?$CBdiffusion?52020?2source?5code?52@ ; `string'
PUBLIC	??_C@_0BI@FECCGOFJ@assert?5failed?5at?5?$CFs?3?$CFi?6?$AA@ ; `string'
PUBLIC	?__LINE__Var@?0??Mod_SetupWorldLeafs@@YAXXZ@4JA	; `Mod_SetupWorldLeafs'::`1'::__LINE__Var
PUBLIC	?__LINE__Var@?0??Mod_SetupWorldNodes@@YAXXZ@4JA	; `Mod_SetupWorldNodes'::`1'::__LINE__Var
PUBLIC	?__LINE__Var@?0??Mod_LoadVertNormals@@YAXPBEPBUdlump_t@@@Z@4JA ; `Mod_LoadVertNormals'::`1'::__LINE__Var
PUBLIC	??_C@_0CG@MGLECGBE@Mod_LoadVertNormals?3?5funny?5lump?5@ ; `string'
PUBLIC	??_C@_0BJ@ELOHEAJF@total?5?$CFd?5packed?5normals?6?$AA@ ; `string'
PUBLIC	?__LINE__Var@?0??Mod_LoadVertexLighting@@YAXPBEPBUdlump_t@@@Z@4JA ; `Mod_LoadVertexLighting'::`1'::__LINE__Var
PUBLIC	?__LINE__Var@?0??Mod_LoadLeafAmbientLighting@@YAXPBEPBUdlump_t@@@Z@4JA ; `Mod_LoadLeafAmbientLighting'::`1'::__LINE__Var
PUBLIC	??_C@_0DE@KLDEDHBL@Mod_LoadLeafAmbientLighting?3?5fun@ ; `string'
PUBLIC	?__LINE__Var@?0??Mod_FinalizeWorld@@YAXXZ@4JA	; `Mod_FinalizeWorld'::`1'::__LINE__Var
PUBLIC	??_C@_0CH@HCMJLECA@normal?5index?5?$CFd?5out?5of?5range?5?$CIma@ ; `string'
PUBLIC	??_C@_0CP@LGPKAEA@Mod_ProcessLandscapes?3?5?$CFs?5missin@ ; `string'
PUBLIC	??_C@_0DI@CIADECFM@Mod_SubdividePolygon?3?5too?5many?5v@ ; `string'
PUBLIC	?__LINE__Var@?0??Mod_SubdivideSurface@@YAHPAUmsurface_s@@_N@Z@4JA ; `Mod_SubdivideSurface'::`1'::__LINE__Var
PUBLIC	?__LINE__Var@?0??Mod_CreateBufferObject@@YAXXZ@4JA ; `Mod_CreateBufferObject'::`1'::__LINE__Var
PUBLIC	??_C@_05PAONDCEJ@movie?$AA@			; `string'
PUBLIC	??_C@_07CCHDGNII@reflect?$AA@			; `string'
PUBLIC	??_C@_08DENCDAKP@?$CBreflect?$AA@		; `string'
PUBLIC	??_C@_06JAELEMPN@portal?$AA@			; `string'
PUBLIC	??_C@_07LAMOHCEE@monitor?$AA@			; `string'
PUBLIC	??_C@_06IELIGIKF@chrome?$AA@			; `string'
PUBLIC	??_C@_03LPALPDIP@fff?$AA@			; `string'
PUBLIC	?__LINE__Var@?0??Mod_FreeWorld@@YAXPAUmodel_s@@@Z@4JA ; `Mod_FreeWorld'::`1'::__LINE__Var
PUBLIC	?__LINE__Var@?0??R_DrawSurface@@YAXPAUmextrasurf_s@@@Z@4JA ; `R_DrawSurface'::`1'::__LINE__Var
PUBLIC	?__LINE__Var@?0??R_DrawIndexedSurface@@YAXPAUmextrasurf_s@@@Z@4JA ; `R_DrawIndexedSurface'::`1'::__LINE__Var
PUBLIC	?__LINE__Var@?0??R_DrawLightForSurfList@@YAXPAUplight_s@@@Z@4JA ; `R_DrawLightForSurfList'::`1'::__LINE__Var
PUBLIC	?__LINE__Var@?0??R_DrawShadowBrushList@@YAXXZ@4JA ; `R_DrawShadowBrushList'::`1'::__LINE__Var
PUBLIC	?__LINE__Var@?0??R_DrawBrushList@@YAXXZ@4JA	; `R_DrawBrushList'::`1'::__LINE__Var
PUBLIC	__real@00000000
PUBLIC	__real@3c23d70a
PUBLIC	__real@3e800000
PUBLIC	__real@3f000000
PUBLIC	__real@3f400000
PUBLIC	__real@3f800000
PUBLIC	__real@3ff0000000000000
PUBLIC	__real@40000000
PUBLIC	__real@4034000000000000
PUBLIC	__real@4060000000000000
PUBLIC	__real@40a00000
PUBLIC	__real@41000000
PUBLIC	__real@41700000
PUBLIC	__real@43000000
PUBLIC	__real@437f0000
PUBLIC	__real@4479c000
PUBLIC	__real@46040000
PUBLIC	__real@bc23d70a
PUBLIC	__real@bf800000
PUBLIC	__xmm@80000000800000008000000080000000
EXTRN	__invalid_parameter_noinfo:PROC
EXTRN	__errno:PROC
EXTRN	_memcpy:PROC
EXTRN	_memset:PROC
EXTRN	_strcpy_s:PROC
EXTRN	_qsort:PROC
EXTRN	_abs:PROC
EXTRN	_sqrt:PROC
EXTRN	_floor:PROC
EXTRN	___stdio_common_vsprintf_s:PROC
EXTRN	?VectorITransform@matrix4x4@@QBE?AVVector@@ABV2@@Z:PROC ; matrix4x4::VectorITransform
EXTRN	?TransformPositivePlane@matrix4x4@@QAEXABUmplane_s@@AAU2@@Z:PROC ; matrix4x4::TransformPositivePlane
EXTRN	?TransformAABB@@YAXABVmatrix4x4@@ABVVector@@1AAV2@2@Z:PROC ; TransformAABB
EXTRN	?SetPlane@@YAXPAUmplane_s@@ABVVector@@M@Z:PROC	; SetPlane
EXTRN	?ClearBounds@@YAXAAVVector@@0@Z:PROC		; ClearBounds
EXTRN	?AddPointToBounds@@YAXABVVector@@AAV1@1M@Z:PROC	; AddPointToBounds
EXTRN	?RadiusFromBounds@@YAMABVVector@@0@Z:PROC	; RadiusFromBounds
EXTRN	?BoxOnPlaneSide@@YAHABVVector@@0PBUmplane_s@@@Z:PROC ; BoxOnPlaneSide
EXTRN	?Q_atoi@@YAHPBD@Z:PROC				; Q_atoi
EXTRN	?Q_atof@@YAMPBD@Z:PROC				; Q_atof
EXTRN	?Q_atov@@YAXPAMPBDI@Z:PROC			; Q_atov
EXTRN	?Q_strnicmp@@YAHPBD0H@Z:PROC			; Q_strnicmp
EXTRN	?Q_strncmp@@YAHPBD0H@Z:PROC			; Q_strncmp
EXTRN	?Q_snprintf@@YAHPADIPBDZZ:PROC			; Q_snprintf
EXTRN	?va@@YAPADPBDZZ:PROC				; va
EXTRN	?COM_FileBase@@YAXPBDPAD@Z:PROC			; COM_FileBase
EXTRN	?COM_ParseFileExt@@YAPADPAD0J_N@Z:PROC		; COM_ParseFileExt
EXTRN	?ALERT@@YAXW4ALERT_TYPE@@PADZZ:PROC		; ALERT
EXTRN	?Mod_CheckBoxVisible@@YA_NABVVector@@0@Z:PROC	; Mod_CheckBoxVisible
EXTRN	?R_ScissorForAABB@@YA_NABVVector@@0PAM111@Z:PROC ; R_ScissorForAABB
EXTRN	?CullBox@CFrustum@@QAE_NABVVector@@0H@Z:PROC	; CFrustum::CullBox
EXTRN	?DestroyAllModelInstances@CStudioModelRenderer@@QAEXXZ:PROC ; CStudioModelRenderer::DestroyAllModelInstances
EXTRN	?R_GrassInitForSurface@@YAXPAUmsurface_s@@@Z:PROC ; R_GrassInitForSurface
EXTRN	?R_DrawGrass@@YAXH@Z:PROC			; R_DrawGrass
EXTRN	?R_RenderGrassOnList@@YAXXZ:PROC		; R_RenderGrassOnList
EXTRN	?R_GrassPrepareFrame@@YAXXZ:PROC		; R_GrassPrepareFrame
EXTRN	?R_GrassPrepareLight@@YAXXZ:PROC		; R_GrassPrepareLight
EXTRN	?R_RenderShadowGrassOnList@@YAXXZ:PROC		; R_RenderShadowGrassOnList
EXTRN	?R_DrawLightForGrass@@YAXPAUplight_s@@@Z:PROC	; R_DrawLightForGrass
EXTRN	?R_AddGrassToChain@@YA_NPAUmsurface_s@@PAVCFrustum@@_NPAUmworldleaf_s@@@Z:PROC ; R_AddGrassToChain
EXTRN	?R_RemoveGrassForSurface@@YAXPAUmextrasurf_s@@@Z:PROC ; R_RemoveGrassForSurface
EXTRN	?R_DrawGrassLight@@YAXPAUplight_s@@@Z:PROC	; R_DrawGrassLight
EXTRN	?R_GrassUseBufferObject@@YA_NXZ:PROC		; R_GrassUseBufferObject
EXTRN	?GL_Support@@YA_NH@Z:PROC			; GL_Support
EXTRN	?GL_LoadTexMatrix@@YAXVmatrix4x4@@@Z:PROC	; GL_LoadTexMatrix
EXTRN	?GL_Cull@@YAXI@Z:PROC				; GL_Cull
EXTRN	?GL_DepthMask@@YAXH@Z:PROC			; GL_DepthMask
EXTRN	?GL_AlphaTest@@YAXH@Z:PROC			; GL_AlphaTest
EXTRN	?GL_Blend@@YAXH@Z:PROC				; GL_Blend
EXTRN	?GL_BindFBO@@YAXH@Z:PROC			; GL_BindFBO
EXTRN	?R_CullModel@@YA_NPAUcl_entity_s@@ABVVector@@1@Z:PROC ; R_CullModel
EXTRN	?R_CullSurfaceExt@@YAHPAUmsurface_s@@PAVCFrustum@@@Z:PROC ; R_CullSurfaceExt
EXTRN	?R_CullNodeTopView@@YA_NPBUmworldnode_s@@@Z:PROC ; R_CullNodeTopView
EXTRN	?DrawWireFrame@@YAXXZ:PROC			; DrawWireFrame
EXTRN	?DrawDecalsBatch@@YAXXZ:PROC			; DrawDecalsBatch
EXTRN	?R_CountPlights@@YAH_N@Z:PROC			; R_CountPlights
EXTRN	?R_UpdateSurfaceParams@@YAXPAUmsurface_s@@@Z:PROC ; R_UpdateSurfaceParams
EXTRN	?GL_BeginBuildingLightmaps@@YAXXZ:PROC		; GL_BeginBuildingLightmaps
EXTRN	?GL_AllocLightmapForFace@@YAXPAUmsurface_s@@@Z:PROC ; GL_AllocLightmapForFace
EXTRN	?GL_EndBuildingLightmaps@@YAX_N0@Z:PROC		; GL_EndBuildingLightmaps
EXTRN	?R_TextureCoords@@YAXPAUmsurface_s@@ABVVector@@PAM@Z:PROC ; R_TextureCoords
EXTRN	?R_GlobalCoords@@YAXPAUmsurface_s@@ABVVector@@PAM@Z:PROC ; R_GlobalCoords
EXTRN	?R_LightmapCoords@@YAXPAUmsurface_s@@ABVVector@@PAMH@Z:PROC ; R_LightmapCoords
EXTRN	?R_CheckChanges@@YAXXZ:PROC			; R_CheckChanges
EXTRN	?R_LoadIdentity@@YAXXZ:PROC			; R_LoadIdentity
EXTRN	?R_LoadLandscapes@@YAXPBD@Z:PROC		; R_LoadLandscapes
EXTRN	?R_FindTerrain@@YAPAUterrain_s@@PBD@Z:PROC	; R_FindTerrain
EXTRN	?R_FreeLandscapes@@YAXXZ:PROC			; R_FreeLandscapes
EXTRN	?R_InitCinematics@@YAXXZ:PROC			; R_InitCinematics
EXTRN	?R_FreeCinematics@@YAXXZ:PROC			; R_FreeCinematics
EXTRN	?R_TextureAnimation@@YAPAUtexture_s@@PAUmsurface_s@@@Z:PROC ; R_TextureAnimation
EXTRN	?GL_BindShader@@YAXPAUglsl_prog_s@@@Z:PROC	; GL_BindShader
EXTRN	?GL_UberShaderForSolidBmodel@@YAGPAUmsurface_s@@_N@Z:PROC ; GL_UberShaderForSolidBmodel
EXTRN	?GL_UberShaderForBmodelDlight@@YAGPBUplight_s@@PAUmsurface_s@@_N@Z:PROC ; GL_UberShaderForBmodelDlight
EXTRN	?Mod_LoadCubemaps@@YAXPBEPBUdlump_t@@@Z:PROC	; Mod_LoadCubemaps
EXTRN	?Mod_FreeCubemaps@@YAXXZ:PROC			; Mod_FreeCubemaps
EXTRN	?R_DrawSkyBox@@YAXXZ:PROC			; R_DrawSkyBox
EXTRN	?R_ClearSkyBox@@YAXXZ:PROC			; R_ClearSkyBox
EXTRN	?R_AddSkyBoxSurface@@YAXPAUmsurface_s@@@Z:PROC	; R_AddSkyBoxSurface
EXTRN	@__security_check_cookie@4:PROC
EXTRN	__chkstk:PROC
EXTRN	_memset:PROC
EXTRN	?g_vecZero@@3VVector@@B:BYTE			; g_vecZero
EXTRN	?gEngfuncs@@3Ucl_enginefuncs_s@@A:BYTE		; gEngfuncs
EXTRN	?gRenderfuncs@@3Urender_api_s@@A:BYTE		; gRenderfuncs
EXTRN	?g_fRenderInitialized@@3HA:DWORD		; g_fRenderInitialized
EXTRN	?pglAlphaFunc@@3P6GXIM@ZA:DWORD			; pglAlphaFunc
EXTRN	?pglBlendFunc@@3P6GXII@ZA:DWORD			; pglBlendFunc
EXTRN	?pglColor4f@@3P6GXMMMM@ZA:DWORD			; pglColor4f
EXTRN	?pglColor4ub@@3P6GXEEEE@ZA:DWORD		; pglColor4ub
EXTRN	?pglCopyTexSubImage2D@@3P6GXIHHHHHHH@ZA:DWORD	; pglCopyTexSubImage2D
EXTRN	?pglDepthMask@@3P6GXE@ZA:DWORD			; pglDepthMask
EXTRN	?pglDisable@@3P6GXI@ZA:DWORD			; pglDisable
EXTRN	?pglEnable@@3P6GXI@ZA:DWORD			; pglEnable
EXTRN	?pglScissor@@3P6GXHHHH@ZA:DWORD			; pglScissor
EXTRN	?pglTexEnvf@@3P6GXIIM@ZA:DWORD			; pglTexEnvf
EXTRN	?pglDrawRangeElementsEXT@@3P6GXIIIHIPBX@ZA:DWORD ; pglDrawRangeElementsEXT
EXTRN	?pglUniform1fARB@@3P6GXHM@ZA:DWORD		; pglUniform1fARB
EXTRN	?pglUniform2fARB@@3P6GXHMM@ZA:DWORD		; pglUniform2fARB
EXTRN	?pglUniform3fARB@@3P6GXHMMM@ZA:DWORD		; pglUniform3fARB
EXTRN	?pglUniform4fARB@@3P6GXHMMMM@ZA:DWORD		; pglUniform4fARB
EXTRN	?pglUniform1fvARB@@3P6GXHHPBM@ZA:DWORD		; pglUniform1fvARB
EXTRN	?pglUniform3fvARB@@3P6GXHHPBM@ZA:DWORD		; pglUniform3fvARB
EXTRN	?pglUniformMatrix4fvARB@@3P6GXHHEPBM@ZA:DWORD	; pglUniformMatrix4fvARB
EXTRN	?pglVertexAttribPointerARB@@3P6GXIHIEHPBX@ZA:DWORD ; pglVertexAttribPointerARB
EXTRN	?pglEnableVertexAttribArrayARB@@3P6GXI@ZA:DWORD	; pglEnableVertexAttribArrayARB
EXTRN	?pglBindBufferARB@@3P6GXII@ZA:DWORD		; pglBindBufferARB
EXTRN	?pglDeleteBuffersARB@@3P6GXHPBI@ZA:DWORD	; pglDeleteBuffersARB
EXTRN	?pglGenBuffersARB@@3P6GXHPAI@ZA:DWORD		; pglGenBuffersARB
EXTRN	?pglBufferDataARB@@3P6GXIHPBXI@ZA:DWORD		; pglBufferDataARB
EXTRN	?pglBindVertexArray@@3P6GXI@ZA:DWORD		; pglBindVertexArray
EXTRN	?pglDeleteVertexArrays@@3P6GXHPBI@ZA:DWORD	; pglDeleteVertexArrays
EXTRN	?pglGenVertexArrays@@3P6GXHPBI@ZA:DWORD		; pglGenVertexArrays
EXTRN	?r_novis@@3PAUcvar_s@@A:DWORD			; r_novis
EXTRN	?r_lockpvs@@3PAUcvar_s@@A:DWORD			; r_lockpvs
EXTRN	?r_lightmap@@3PAUcvar_s@@A:DWORD		; r_lightmap
EXTRN	?r_fullbright@@3PAUcvar_s@@A:DWORD		; r_fullbright
EXTRN	?r_drawworld@@3PAUcvar_s@@A:DWORD		; r_drawworld
EXTRN	?r_detailtextures@@3PAUcvar_s@@A:DWORD		; r_detailtextures
EXTRN	?r_recursive_world_node@@3PAUcvar_s@@A:DWORD	; r_recursive_world_node
EXTRN	?r_grass@@3PAUcvar_s@@A:DWORD			; r_grass
EXTRN	?gl_water_refraction@@3PAUcvar_s@@A:DWORD	; gl_water_refraction
EXTRN	?gl_water_planar@@3PAUcvar_s@@A:DWORD		; gl_water_planar
EXTRN	?gl_cubemaps@@3PAUcvar_s@@A:DWORD		; gl_cubemaps
EXTRN	?g_StudioRenderer@@3VCStudioModelRenderer@@A:BYTE ; g_StudioRenderer
EXTRN	?worldmodel@@3PAUmodel_s@@A:DWORD		; worldmodel
EXTRN	?RI@@3PAUref_instance_t@@A:DWORD		; RI
EXTRN	?tr@@3Uref_globals_t@@A:BYTE			; tr
EXTRN	?r_stats@@3Uref_stats_t@@A:BYTE			; r_stats
EXTRN	?cl_plights@@3PAUplight_s@@A:BYTE		; cl_plights
EXTRN	?glState@@3UglState_t@@A:BYTE			; glState
EXTRN	?glConfig@@3UglConfig_t@@A:BYTE			; glConfig
EXTRN	?glsl_programs@@3PAUglsl_prog_s@@A:BYTE		; glsl_programs
EXTRN	?glsl@@3Uref_shaders_t@@A:BYTE			; glsl
EXTRN	___security_cookie:DWORD
EXTRN	__fltused:DWORD
;	COMDAT ?_OptionsStorage@?1??__local_stdio_printf_options@@9@4_KA
_BSS	SEGMENT
?_OptionsStorage@?1??__local_stdio_printf_options@@9@4_KA DQ 01H DUP (?) ; `__local_stdio_printf_options'::`2'::_OptionsStorage
_BSS	ENDS
_BSS	SEGMENT
?worlddata@@3Ugl_world_t@@A DB 01c12cH DUP (?)		; worlddata
?tempElems@@3PAIA DD 04fffbH DUP (?)			; tempElems
?numTempElems@@3IA DD 01H DUP (?)			; numTempElems
_BSS	ENDS
CRT$XCU	SEGMENT
?worlddata$initializer$@@3P6AXXZA DD FLAT:??__Eworlddata@@YAXXZ ; worlddata$initializer$
CRT$XCU	ENDS
;	COMDAT __xmm@80000000800000008000000080000000
CONST	SEGMENT
__xmm@80000000800000008000000080000000 DB 00H, 00H, 00H, 080H, 00H, 00H, 00H
	DB	080H, 00H, 00H, 00H, 080H, 00H, 00H, 00H, 080H
CONST	ENDS
;	COMDAT __real@bf800000
CONST	SEGMENT
__real@bf800000 DD 0bf800000r			; -1
CONST	ENDS
;	COMDAT __real@bc23d70a
CONST	SEGMENT
__real@bc23d70a DD 0bc23d70ar			; -0.01
CONST	ENDS
;	COMDAT __real@46040000
CONST	SEGMENT
__real@46040000 DD 046040000r			; 8448
CONST	ENDS
;	COMDAT __real@4479c000
CONST	SEGMENT
__real@4479c000 DD 04479c000r			; 999
CONST	ENDS
;	COMDAT __real@437f0000
CONST	SEGMENT
__real@437f0000 DD 0437f0000r			; 255
CONST	ENDS
;	COMDAT __real@43000000
CONST	SEGMENT
__real@43000000 DD 043000000r			; 128
CONST	ENDS
;	COMDAT __real@41700000
CONST	SEGMENT
__real@41700000 DD 041700000r			; 15
CONST	ENDS
;	COMDAT __real@41000000
CONST	SEGMENT
__real@41000000 DD 041000000r			; 8
CONST	ENDS
;	COMDAT __real@40a00000
CONST	SEGMENT
__real@40a00000 DD 040a00000r			; 5
CONST	ENDS
;	COMDAT __real@4060000000000000
CONST	SEGMENT
__real@4060000000000000 DQ 04060000000000000r	; 128
CONST	ENDS
;	COMDAT __real@4034000000000000
CONST	SEGMENT
__real@4034000000000000 DQ 04034000000000000r	; 20
CONST	ENDS
;	COMDAT __real@40000000
CONST	SEGMENT
__real@40000000 DD 040000000r			; 2
CONST	ENDS
;	COMDAT __real@3ff0000000000000
CONST	SEGMENT
__real@3ff0000000000000 DQ 03ff0000000000000r	; 1
CONST	ENDS
;	COMDAT __real@3f800000
CONST	SEGMENT
__real@3f800000 DD 03f800000r			; 1
CONST	ENDS
;	COMDAT __real@3f400000
CONST	SEGMENT
__real@3f400000 DD 03f400000r			; 0.75
CONST	ENDS
;	COMDAT __real@3f000000
CONST	SEGMENT
__real@3f000000 DD 03f000000r			; 0.5
CONST	ENDS
;	COMDAT __real@3e800000
CONST	SEGMENT
__real@3e800000 DD 03e800000r			; 0.25
CONST	ENDS
;	COMDAT __real@3c23d70a
CONST	SEGMENT
__real@3c23d70a DD 03c23d70ar			; 0.01
CONST	ENDS
;	COMDAT __real@00000000
CONST	SEGMENT
__real@00000000 DD 000000000r			; 0
CONST	ENDS
;	COMDAT ?__LINE__Var@?0??R_DrawBrushList@@YAXXZ@4JA
_DATA	SEGMENT
?__LINE__Var@?0??R_DrawBrushList@@YAXXZ@4JA DD 0965H	; `R_DrawBrushList'::`1'::__LINE__Var
_DATA	ENDS
;	COMDAT ?__LINE__Var@?0??R_DrawShadowBrushList@@YAXXZ@4JA
_DATA	SEGMENT
?__LINE__Var@?0??R_DrawShadowBrushList@@YAXXZ@4JA DD 08e5H ; `R_DrawShadowBrushList'::`1'::__LINE__Var
_DATA	ENDS
;	COMDAT ?__LINE__Var@?0??R_DrawLightForSurfList@@YAXPAUplight_s@@@Z@4JA
_DATA	SEGMENT
?__LINE__Var@?0??R_DrawLightForSurfList@@YAXPAUplight_s@@@Z@4JA DD 07c4H ; `R_DrawLightForSurfList'::`1'::__LINE__Var
_DATA	ENDS
;	COMDAT ?__LINE__Var@?0??R_DrawIndexedSurface@@YAXPAUmextrasurf_s@@@Z@4JA
_DATA	SEGMENT
?__LINE__Var@?0??R_DrawIndexedSurface@@YAXPAUmextrasurf_s@@@Z@4JA DD 0723H ; `R_DrawIndexedSurface'::`1'::__LINE__Var
_DATA	ENDS
;	COMDAT ?__LINE__Var@?0??R_DrawSurface@@YAXPAUmextrasurf_s@@@Z@4JA
_DATA	SEGMENT
?__LINE__Var@?0??R_DrawSurface@@YAXPAUmextrasurf_s@@@Z@4JA DD 0717H ; `R_DrawSurface'::`1'::__LINE__Var
_DATA	ENDS
;	COMDAT ?__LINE__Var@?0??Mod_FreeWorld@@YAXPAUmodel_s@@@Z@4JA
_DATA	SEGMENT
?__LINE__Var@?0??Mod_FreeWorld@@YAXPAUmodel_s@@@Z@4JA DD 06baH ; `Mod_FreeWorld'::`1'::__LINE__Var
_DATA	ENDS
;	COMDAT ??_C@_03LPALPDIP@fff?$AA@
CONST	SEGMENT
??_C@_03LPALPDIP@fff?$AA@ DB 'fff', 00H			; `string'
CONST	ENDS
;	COMDAT ??_C@_06IELIGIKF@chrome?$AA@
CONST	SEGMENT
??_C@_06IELIGIKF@chrome?$AA@ DB 'chrome', 00H		; `string'
CONST	ENDS
;	COMDAT ??_C@_07LAMOHCEE@monitor?$AA@
CONST	SEGMENT
??_C@_07LAMOHCEE@monitor?$AA@ DB 'monitor', 00H		; `string'
CONST	ENDS
;	COMDAT ??_C@_06JAELEMPN@portal?$AA@
CONST	SEGMENT
??_C@_06JAELEMPN@portal?$AA@ DB 'portal', 00H		; `string'
CONST	ENDS
;	COMDAT ??_C@_08DENCDAKP@?$CBreflect?$AA@
CONST	SEGMENT
??_C@_08DENCDAKP@?$CBreflect?$AA@ DB '!reflect', 00H	; `string'
CONST	ENDS
;	COMDAT ??_C@_07CCHDGNII@reflect?$AA@
CONST	SEGMENT
??_C@_07CCHDGNII@reflect?$AA@ DB 'reflect', 00H		; `string'
CONST	ENDS
;	COMDAT ??_C@_05PAONDCEJ@movie?$AA@
CONST	SEGMENT
??_C@_05PAONDCEJ@movie?$AA@ DB 'movie', 00H		; `string'
CONST	ENDS
;	COMDAT ?__LINE__Var@?0??Mod_CreateBufferObject@@YAXXZ@4JA
_DATA	SEGMENT
?__LINE__Var@?0??Mod_CreateBufferObject@@YAXXZ@4JA DD 0557H ; `Mod_CreateBufferObject'::`1'::__LINE__Var
_DATA	ENDS
;	COMDAT ?__LINE__Var@?0??Mod_SubdivideSurface@@YAHPAUmsurface_s@@_N@Z@4JA
_DATA	SEGMENT
?__LINE__Var@?0??Mod_SubdivideSurface@@YAHPAUmsurface_s@@_N@Z@4JA DD 0532H ; `Mod_SubdivideSurface'::`1'::__LINE__Var
_DATA	ENDS
;	COMDAT ??_C@_0DI@CIADECFM@Mod_SubdividePolygon?3?5too?5many?5v@
CONST	SEGMENT
??_C@_0DI@CIADECFM@Mod_SubdividePolygon?3?5too?5many?5v@ DB 'Mod_Subdivid'
	DB	'ePolygon: too many vertexes on face ( %i )', 0aH, 00H ; `string'
CONST	ENDS
;	COMDAT ??_C@_0CP@LGPKAEA@Mod_ProcessLandscapes?3?5?$CFs?5missin@
CONST	SEGMENT
??_C@_0CP@LGPKAEA@Mod_ProcessLandscapes?3?5?$CFs?5missin@ DB 'Mod_Process'
	DB	'Landscapes: %s missing description', 0aH, 00H ; `string'
CONST	ENDS
;	COMDAT ??_C@_0CH@HCMJLECA@normal?5index?5?$CFd?5out?5of?5range?5?$CIma@
CONST	SEGMENT
??_C@_0CH@HCMJLECA@normal?5index?5?$CFd?5out?5of?5range?5?$CIma@ DB 'norm'
	DB	'al index %d out of range (max %d)', 0aH, 00H ; `string'
CONST	ENDS
;	COMDAT ?__LINE__Var@?0??Mod_FinalizeWorld@@YAXXZ@4JA
_DATA	SEGMENT
?__LINE__Var@?0??Mod_FinalizeWorld@@YAXXZ@4JA DD 02ffH	; `Mod_FinalizeWorld'::`1'::__LINE__Var
_DATA	ENDS
;	COMDAT ??_C@_0DE@KLDEDHBL@Mod_LoadLeafAmbientLighting?3?5fun@
CONST	SEGMENT
??_C@_0DE@KLDEDHBL@Mod_LoadLeafAmbientLighting?3?5fun@ DB 'Mod_LoadLeafAm'
	DB	'bientLighting: funny lump size in %s', 0aH, 00H ; `string'
CONST	ENDS
;	COMDAT ?__LINE__Var@?0??Mod_LoadLeafAmbientLighting@@YAXPBEPBUdlump_t@@@Z@4JA
_DATA	SEGMENT
?__LINE__Var@?0??Mod_LoadLeafAmbientLighting@@YAXPBEPBUdlump_t@@@Z@4JA DD 0268H ; `Mod_LoadLeafAmbientLighting'::`1'::__LINE__Var
_DATA	ENDS
;	COMDAT ?__LINE__Var@?0??Mod_LoadVertexLighting@@YAXPBEPBUdlump_t@@@Z@4JA
_DATA	SEGMENT
?__LINE__Var@?0??Mod_LoadVertexLighting@@YAXPBEPBUdlump_t@@@Z@4JA DD 024dH ; `Mod_LoadVertexLighting'::`1'::__LINE__Var
_DATA	ENDS
;	COMDAT ??_C@_0BJ@ELOHEAJF@total?5?$CFd?5packed?5normals?6?$AA@
CONST	SEGMENT
??_C@_0BJ@ELOHEAJF@total?5?$CFd?5packed?5normals?6?$AA@ DB 'total %d pack'
	DB	'ed normals', 0aH, 00H			; `string'
CONST	ENDS
;	COMDAT ??_C@_0CG@MGLECGBE@Mod_LoadVertNormals?3?5funny?5lump?5@
CONST	SEGMENT
??_C@_0CG@MGLECGBE@Mod_LoadVertNormals?3?5funny?5lump?5@ DB 'Mod_LoadVert'
	DB	'Normals: funny lump size', 0aH, 00H		; `string'
CONST	ENDS
;	COMDAT ?__LINE__Var@?0??Mod_LoadVertNormals@@YAXPBEPBUdlump_t@@@Z@4JA
_DATA	SEGMENT
?__LINE__Var@?0??Mod_LoadVertNormals@@YAXPBEPBUdlump_t@@@Z@4JA DD 0213H ; `Mod_LoadVertNormals'::`1'::__LINE__Var
_DATA	ENDS
;	COMDAT ?__LINE__Var@?0??Mod_SetupWorldNodes@@YAXXZ@4JA
_DATA	SEGMENT
?__LINE__Var@?0??Mod_SetupWorldNodes@@YAXXZ@4JA DD 01cdH ; `Mod_SetupWorldNodes'::`1'::__LINE__Var
_DATA	ENDS
;	COMDAT ?__LINE__Var@?0??Mod_SetupWorldLeafs@@YAXXZ@4JA
_DATA	SEGMENT
?__LINE__Var@?0??Mod_SetupWorldLeafs@@YAXXZ@4JA DD 01b3H ; `Mod_SetupWorldLeafs'::`1'::__LINE__Var
_DATA	ENDS
;	COMDAT ??_C@_0BI@FECCGOFJ@assert?5failed?5at?5?$CFs?3?$CFi?6?$AA@
CONST	SEGMENT
??_C@_0BI@FECCGOFJ@assert?5failed?5at?5?$CFs?3?$CFi?6?$AA@ DB 'assert fai'
	DB	'led at %s:%i', 0aH, 00H			; `string'
CONST	ENDS
;	COMDAT ??_C@_0EM@FJLGGOCA@d?3?2?$CBdiffusion?52020?2source?5code?52@
CONST	SEGMENT
??_C@_0EM@FJLGGOCA@d?3?2?$CBdiffusion?52020?2source?5code?52@ DB 'd:\!dif'
	DB	'fusion 2020\source code 2022\client-server\client\render\r_wo'
	DB	'rld.cpp', 00H				; `string'
CONST	ENDS
;	COMDAT ?__LINE__Var@?0??Mod_SetParent@@YAXPAUmworldnode_s@@0@Z@4JA
_DATA	SEGMENT
?__LINE__Var@?0??Mod_SetParent@@YAXPAUmworldnode_s@@0@Z@4JA DD 0192H ; `Mod_SetParent'::`1'::__LINE__Var
_DATA	ENDS
;	COMDAT ??_C@_03BNEOMJOP@sky?$AA@
CONST	SEGMENT
??_C@_03BNEOMJOP@sky?$AA@ DB 'sky', 00H			; `string'
CONST	ENDS
;	COMDAT ??_C@_0BB@PLLJNAKE@textures?1?$CFs_luma?$AA@
CONST	SEGMENT
??_C@_0BB@PLLJNAKE@textures?1?$CFs_luma?$AA@ DB 'textures/%s_luma', 00H ; `string'
CONST	ENDS
;	COMDAT ??_C@_02DKCKIIND@?$CFs?$AA@
CONST	SEGMENT
??_C@_02DKCKIIND@?$CFs?$AA@ DB '%s', 00H		; `string'
CONST	ENDS
;	COMDAT ??_C@_06PDNJPBCN@?$CFs?4dds?$AA@
CONST	SEGMENT
??_C@_06PDNJPBCN@?$CFs?4dds?$AA@ DB '%s.dds', 00H	; `string'
CONST	ENDS
;	COMDAT ??_C@_06NJHCGIDI@?$CFs?4tga?$AA@
CONST	SEGMENT
??_C@_06NJHCGIDI@?$CFs?4tga?$AA@ DB '%s.tga', 00H	; `string'
CONST	ENDS
;	COMDAT ??_C@_0M@HBPNKFIC@textures?1?$CFs?$AA@
CONST	SEGMENT
??_C@_0M@HBPNKFIC@textures?1?$CFs?$AA@ DB 'textures/%s', 00H ; `string'
CONST	ENDS
;	COMDAT ??_C@_0DE@FCCLJFMK@?$FO1Error?3?$FO7?5txt?5file?5for?5texture?5@
CONST	SEGMENT
??_C@_0DE@FCCLJFMK@?$FO1Error?3?$FO7?5txt?5file?5for?5texture?5@ DB '^1Er'
	DB	'ror:^7 txt file for texture "%s" is incorrect.', 0aH, 00H ; `string'
CONST	ENDS
;	COMDAT ??_C@_0DF@GNFDAIBL@Unknown?5parameter?5for?5texture?5?$CC?$CF@
CONST	SEGMENT
??_C@_0DF@GNFDAIBL@Unknown?5parameter?5for?5texture?5?$CC?$CF@ DB 'Unknow'
	DB	'n parameter for texture "%s", check txt file.', 0aH, 00H ; `string'
CONST	ENDS
;	COMDAT ??_C@_0DL@FIMFFKLC@?$FO1Error?3?$FO7?5ColorMask?5for?5texture@
CONST	SEGMENT
??_C@_0DL@FIMFFKLC@?$FO1Error?3?$FO7?5ColorMask?5for?5texture@ DB '^1Erro'
	DB	'r:^7 ColorMask for texture "%s" couldn''t be loaded.', 0aH, 00H ; `string'
CONST	ENDS
;	COMDAT ??_C@_09KFDFCIJG@ColorMask?$AA@
CONST	SEGMENT
??_C@_09KFDFCIJG@ColorMask?$AA@ DB 'ColorMask', 00H	; `string'
CONST	ENDS
;	COMDAT ??_C@_0L@MGDMKJPB@ApplyColor?$AA@
CONST	SEGMENT
??_C@_0L@MGDMKJPB@ApplyColor?$AA@ DB 'ApplyColor', 00H	; `string'
CONST	ENDS
;	COMDAT ??_C@_0BD@ONHGNLFC@InteriorLightState?$AA@
CONST	SEGMENT
??_C@_0BD@ONHGNLFC@InteriorLightState?$AA@ DB 'InteriorLightState', 00H ; `string'
CONST	ENDS
;	COMDAT ??_C@_0N@DFFCABCK@InteriorGrid?$AA@
CONST	SEGMENT
??_C@_0N@DFFCABCK@InteriorGrid?$AA@ DB 'InteriorGrid', 00H ; `string'
CONST	ENDS
;	COMDAT ??_C@_0DN@LEIBLINF@?$FO1Error?3?$FO7?5InteriorMap?5for?5textu@
CONST	SEGMENT
??_C@_0DN@LEIBLINF@?$FO1Error?3?$FO7?5InteriorMap?5for?5textu@ DB '^1Erro'
	DB	'r:^7 InteriorMap for texture "%s" couldn''t be loaded.', 0aH, 00H ; `string'
CONST	ENDS
;	COMDAT ??_C@_0M@EHKLCBDM@InteriorMap?$AA@
CONST	SEGMENT
??_C@_0M@EHKLCBDM@InteriorMap?$AA@ DB 'InteriorMap', 00H ; `string'
CONST	ENDS
;	COMDAT ??_C@_0DL@HBBKAOHC@?$FO1Error?3?$FO7?5NormalMap?5for?5texture@
CONST	SEGMENT
??_C@_0DL@HBBKAOHC@?$FO1Error?3?$FO7?5NormalMap?5for?5texture@ DB '^1Erro'
	DB	'r:^7 NormalMap for texture "%s" couldn''t be loaded.', 0aH, 00H ; `string'
CONST	ENDS
;	COMDAT ??_C@_09ILPGELJF@NormalMap?$AA@
CONST	SEGMENT
??_C@_09ILPGELJF@NormalMap?$AA@ DB 'NormalMap', 00H	; `string'
CONST	ENDS
;	COMDAT ??_C@_0BC@PMKJFOIN@FoliageSwayHeight?$AA@
CONST	SEGMENT
??_C@_0BC@PMKJFOIN@FoliageSwayHeight?$AA@ DB 'FoliageSwayHeight', 00H ; `string'
CONST	ENDS
;	COMDAT ??_C@_0BD@OJLEKCEC@PlanarReflectScale?$AA@
CONST	SEGMENT
??_C@_0BD@OJLEKCEC@PlanarReflectScale?$AA@ DB 'PlanarReflectScale', 00H ; `string'
CONST	ENDS
;	COMDAT ??_C@_0N@IEPEEFFF@ReflectScale?$AA@
CONST	SEGMENT
??_C@_0N@IEPEEFFF@ReflectScale?$AA@ DB 'ReflectScale', 00H ; `string'
CONST	ENDS
;	COMDAT ??_C@_0M@JAGIKOLG@EmbossScale?$AA@
CONST	SEGMENT
??_C@_0M@JAGIKOLG@EmbossScale?$AA@ DB 'EmbossScale', 00H ; `string'
CONST	ENDS
;	COMDAT ??_C@_0BA@ICCAKNBK@GlossSmoothness?$AA@
CONST	SEGMENT
??_C@_0BA@ICCAKNBK@GlossSmoothness?$AA@ DB 'GlossSmoothness', 00H ; `string'
CONST	ENDS
;	COMDAT ??_C@_0L@FCAAPODF@GlossScale?$AA@
CONST	SEGMENT
??_C@_0L@FCAAPODF@GlossScale?$AA@ DB 'GlossScale', 00H	; `string'
CONST	ENDS
;	COMDAT ??_C@_0O@FABBPFLC@DynlightScale?$AA@
CONST	SEGMENT
??_C@_0O@FABBPFLC@DynlightScale?$AA@ DB 'DynlightScale', 00H ; `string'
CONST	ENDS
;	COMDAT ??_C@_08GIGBPACO@?$CFs?$CFs?4txt?$AA@
CONST	SEGMENT
??_C@_08GIGBPACO@?$CFs?$CFs?4txt?$AA@ DB '%s%s.txt', 00H ; `string'
CONST	ENDS
;	COMDAT ??_C@_00CNPNBAHC@?$AA@
CONST	SEGMENT
??_C@_00CNPNBAHC@?$AA@ DB 00H				; `string'
CONST	ENDS
;	COMDAT ??_C@_09CBPMOBF@textures?1?$AA@
CONST	SEGMENT
??_C@_09CBPMOBF@textures?1?$AA@ DB 'textures/', 00H	; `string'
CONST	ENDS
;	COMDAT ??_C@_01GBGANLPD@0?$AA@
CONST	SEGMENT
??_C@_01GBGANLPD@0?$AA@ DB '0', 00H			; `string'
CONST	ENDS
; Function compile flags: /Odtp /ZI
; File c:\program files (x86)\microsoft visual studio 14.0\vc\include\vadefs.h
;	COMDAT ??$__vcrt_va_start_verify_argument_type@PBD@@YAXXZ
_TEXT	SEGMENT
??$__vcrt_va_start_verify_argument_type@PBD@@YAXXZ PROC	; __vcrt_va_start_verify_argument_type<char const *>, COMDAT

; 144  :         {

	push	ebp
	mov	ebp, esp
	sub	esp, 64					; 00000040H
	push	ebx
	push	esi
	push	edi

; 145  :             static_assert(!__vcrt_va_list_is_reference<_Ty>::__the_value, "va_start argument must not have reference type and must not be parenthesized");
; 146  :         }

	pop	edi
	pop	esi
	pop	ebx
	mov	esp, ebp
	pop	ebp
	ret	0
??$__vcrt_va_start_verify_argument_type@PBD@@YAXXZ ENDP	; __vcrt_va_start_verify_argument_type<char const *>
_TEXT	ENDS
; Function compile flags: /Odtp /ZI
; File d:\!diffusion 2020\source code 2022\client-server\client\render\r_world.cpp
;	COMDAT ?R_RecursiveWorldNode@@YAXPAUmworldnode_s@@I@Z
_TEXT	SEGMENT
tv165 = -113						; size = 1
tv309 = -112						; size = 4
tv274 = -112						; size = 4
tv196 = -112						; size = 4
tv191 = -112						; size = 4
tv163 = -112						; size = 4
tv248 = -106						; size = 1
tv242 = -106						; size = 1
tv215 = -106						; size = 1
tv132 = -106						; size = 1
_backplane$1 = -41					; size = 1
_clipped$2 = -40					; size = 4
_p$3 = -36						; size = 4
_i$4 = -32						; size = 4
_dot$ = -28						; size = 4
_side$ = -24						; size = 4
_c$ = -20						; size = 4
_pleaf$ = -16						; size = 4
_mark$ = -12						; size = 4
_surf$ = -8						; size = 4
_stack$ = -4						; size = 4
_node$ = 8						; size = 4
_clipflags$ = 12					; size = 4
?R_RecursiveWorldNode@@YAXPAUmworldnode_s@@I@Z PROC	; R_RecursiveWorldNode, COMDAT

; 3118 : {

	push	ebp
	mov	ebp, esp
	sub	esp, 116				; 00000074H
	push	ebx
	push	esi
	push	edi

; 3119 : 	int		stack = glState.stack_position;

	mov	eax, DWORD PTR ?glState@@3UglState_t@@A+112296
	mov	DWORD PTR _stack$[ebp], eax
$loc0$52:

; 3120 : 	msurface_t *surf, **mark;
; 3121 : 	mworldleaf_t *pleaf;
; 3122 : 	int		c, side;
; 3123 : 	float		dot;
; 3124 : loc0:
; 3125 : 	if( node->contents == CONTENTS_SOLID )

	mov	eax, DWORD PTR _node$[ebp]
	cmp	DWORD PTR [eax], -2			; fffffffeH
	jne	SHORT $LN11@R_Recursiv

; 3126 : 		return; // hit a solid leaf

	jmp	$LN1@R_Recursiv
$LN11@R_Recursiv:

; 3127 : 
; 3128 : 	if( node->visframe[stack] < RI->visframecount ) // diffusion - was !=

	mov	eax, DWORD PTR _stack$[ebp]
	mov	ecx, DWORD PTR _node$[ebp]
	mov	edx, DWORD PTR ?RI@@3PAUref_instance_t@@A ; RI
	mov	eax, DWORD PTR [ecx+eax*4+4]
	cmp	eax, DWORD PTR [edx+12972]
	jge	SHORT $LN12@R_Recursiv

; 3129 : 		return;

	jmp	$LN1@R_Recursiv
$LN12@R_Recursiv:

; 3130 : 
; 3131 : 	if( clipflags )

	cmp	DWORD PTR _clipflags$[ebp], 0
	je	$LN3@R_Recursiv

; 3132 : 	{
; 3133 : 		for( int i = 0; i < FRUSTUM_PLANES; i++ )

	mov	DWORD PTR _i$4[ebp], 0
	jmp	SHORT $LN4@R_Recursiv
$LN2@R_Recursiv:
	mov	eax, DWORD PTR _i$4[ebp]
	add	eax, 1
	mov	DWORD PTR _i$4[ebp], eax
$LN4@R_Recursiv:
	cmp	DWORD PTR _i$4[ebp], 6
	jge	SHORT $LN3@R_Recursiv

; 3134 : 		{
; 3135 : 			if( !FBitSet( clipflags, BIT( i ) ) )

	mov	eax, 1
	mov	ecx, DWORD PTR _i$4[ebp]
	shl	eax, cl
	and	eax, DWORD PTR _clipflags$[ebp]
	jne	SHORT $LN14@R_Recursiv

; 3136 : 				continue;

	jmp	SHORT $LN2@R_Recursiv
$LN14@R_Recursiv:

; 3137 : 
; 3138 : 			const mplane_t *p = RI->frustum.GetPlane( i );

	mov	eax, DWORD PTR _i$4[ebp]
	push	eax
	mov	ecx, DWORD PTR ?RI@@3PAUref_instance_t@@A ; RI
	add	ecx, 48					; 00000030H
	call	?GetPlane@CFrustum@@QBEPBUmplane_s@@H@Z	; CFrustum::GetPlane
	mov	DWORD PTR _p$3[ebp], eax

; 3139 : 			int clipped = BoxOnPlaneSide( node->mins, node->maxs, p );

	mov	eax, DWORD PTR _p$3[ebp]
	push	eax
	mov	ecx, DWORD PTR _node$[ebp]
	add	ecx, 48					; 00000030H
	push	ecx
	mov	edx, DWORD PTR _node$[ebp]
	add	edx, 36					; 00000024H
	push	edx
	call	?BoxOnPlaneSide@@YAHABVVector@@0PBUmplane_s@@@Z ; BoxOnPlaneSide
	add	esp, 12					; 0000000cH
	mov	DWORD PTR _clipped$2[ebp], eax

; 3140 : 			if( clipped == 2 )

	cmp	DWORD PTR _clipped$2[ebp], 2
	jne	SHORT $LN15@R_Recursiv

; 3141 : 				return;

	jmp	$LN1@R_Recursiv
$LN15@R_Recursiv:

; 3142 : 
; 3143 : 			if( clipped == 1 )

	cmp	DWORD PTR _clipped$2[ebp], 1
	jne	SHORT $LN16@R_Recursiv

; 3144 : 				ClearBits( clipflags, BIT( i ) );

	mov	eax, 1
	mov	ecx, DWORD PTR _i$4[ebp]
	shl	eax, cl
	not	eax
	and	eax, DWORD PTR _clipflags$[ebp]
	mov	DWORD PTR _clipflags$[ebp], eax
$LN16@R_Recursiv:

; 3145 : 		}

	jmp	SHORT $LN2@R_Recursiv
$LN3@R_Recursiv:

; 3146 : 	}
; 3147 : 
; 3148 : 	// if a leaf node, draw stuff
; 3149 : 	if( node->contents < 0 )

	mov	eax, DWORD PTR _node$[ebp]
	cmp	DWORD PTR [eax], 0
	jge	$LN17@R_Recursiv

; 3150 : 	{
; 3151 : 		pleaf = (mworldleaf_t *)node;

	mov	eax, DWORD PTR _node$[ebp]
	mov	DWORD PTR _pleaf$[ebp], eax

; 3152 : 
; 3153 : 		mark = pleaf->firstmarksurface;

	mov	eax, DWORD PTR _pleaf$[ebp]
	mov	ecx, DWORD PTR [eax+68]
	mov	DWORD PTR _mark$[ebp], ecx

; 3154 : 		c = pleaf->nummarksurfaces;

	mov	eax, DWORD PTR _pleaf$[ebp]
	mov	ecx, DWORD PTR [eax+72]
	mov	DWORD PTR _c$[ebp], ecx

; 3155 : 
; 3156 : 		if( c )

	cmp	DWORD PTR _c$[ebp], 0
	je	$LN6@R_Recursiv
$LN7@R_Recursiv:

; 3157 : 		{
; 3158 : 			do
; 3159 : 			{
; 3160 : 				surf = *mark;

	mov	eax, DWORD PTR _mark$[ebp]
	mov	ecx, DWORD PTR [eax]
	mov	DWORD PTR _surf$[ebp], ecx

; 3161 : 
; 3162 : 				// update leaf bounds with grass bounds
; 3163 : 				if( CVAR_TO_BOOL( r_grass ) )

	cmp	DWORD PTR ?r_grass@@3PAUcvar_s@@A, 0	; r_grass
	je	SHORT $LN34@R_Recursiv
	mov	eax, DWORD PTR ?r_grass@@3PAUcvar_s@@A	; r_grass
	movss	xmm0, DWORD PTR [eax+12]
	ucomiss	xmm0, DWORD PTR __real@00000000
	lahf
	test	ah, 68					; 00000044H
	jnp	SHORT $LN34@R_Recursiv
	mov	BYTE PTR tv132[ebp], 1
	jmp	SHORT $LN35@R_Recursiv
$LN34@R_Recursiv:
	mov	BYTE PTR tv132[ebp], 0
$LN35@R_Recursiv:
	movzx	ecx, BYTE PTR tv132[ebp]
	test	ecx, ecx
	je	SHORT $LN19@R_Recursiv

; 3164 : 					R_AddGrassToChain( surf, NULL, false, pleaf );

	mov	eax, DWORD PTR _pleaf$[ebp]
	push	eax
	push	0
	push	0
	mov	ecx, DWORD PTR _surf$[ebp]
	push	ecx
	call	?R_AddGrassToChain@@YA_NPAUmsurface_s@@PAVCFrustum@@_NPAUmworldleaf_s@@@Z ; R_AddGrassToChain
	add	esp, 16					; 00000010H
$LN19@R_Recursiv:

; 3165 : 
; 3166 : 				SETVISBIT( RI->visfaces, surf - worldmodel->surfaces );

	mov	eax, DWORD PTR ?worldmodel@@3PAUmodel_s@@A ; worldmodel
	mov	ecx, DWORD PTR _surf$[ebp]
	sub	ecx, DWORD PTR [eax+180]
	mov	eax, ecx
	cdq
	mov	ecx, 92					; 0000005cH
	idiv	ecx
	test	eax, eax
	jl	$LN36@R_Recursiv
	mov	edx, DWORD PTR ?worldmodel@@3PAUmodel_s@@A ; worldmodel
	mov	eax, DWORD PTR _surf$[ebp]
	sub	eax, DWORD PTR [edx+180]
	cdq
	mov	ecx, 92					; 0000005cH
	idiv	ecx
	mov	esi, eax
	sar	esi, 3
	mov	edx, DWORD PTR ?worldmodel@@3PAUmodel_s@@A ; worldmodel
	mov	eax, DWORD PTR _surf$[ebp]
	sub	eax, DWORD PTR [edx+180]
	cdq
	mov	ecx, 92					; 0000005cH
	idiv	ecx
	and	eax, 7
	mov	edx, 1
	mov	ecx, eax
	shl	edx, cl
	mov	eax, DWORD PTR ?RI@@3PAUref_instance_t@@A ; RI
	movzx	ecx, BYTE PTR [eax+esi+4779]
	or	ecx, edx
	mov	DWORD PTR tv163[ebp], ecx
	mov	edx, DWORD PTR ?worldmodel@@3PAUmodel_s@@A ; worldmodel
	mov	eax, DWORD PTR _surf$[ebp]
	sub	eax, DWORD PTR [edx+180]
	cdq
	mov	ecx, 92					; 0000005cH
	idiv	ecx
	sar	eax, 3
	mov	edx, DWORD PTR ?RI@@3PAUref_instance_t@@A ; RI
	mov	cl, BYTE PTR tv163[ebp]
	mov	BYTE PTR [edx+eax+4779], cl
	mov	dl, BYTE PTR tv163[ebp]
	mov	BYTE PTR tv165[ebp], dl
	jmp	SHORT $LN37@R_Recursiv
$LN36@R_Recursiv:
	mov	BYTE PTR tv165[ebp], 0
$LN37@R_Recursiv:

; 3167 : 				mark++;

	mov	eax, DWORD PTR _mark$[ebp]
	add	eax, 4
	mov	DWORD PTR _mark$[ebp], eax

; 3168 : 			} while( --c );

	mov	eax, DWORD PTR _c$[ebp]
	sub	eax, 1
	mov	DWORD PTR _c$[ebp], eax
	jne	$LN7@R_Recursiv
$LN6@R_Recursiv:

; 3169 : 		}
; 3170 : 
; 3171 : 		// deal with model fragments in this leaf
; 3172 : 		if( pleaf->efrags )

	mov	eax, DWORD PTR _pleaf$[ebp]
	cmp	DWORD PTR [eax+64], 0
	je	SHORT $LN20@R_Recursiv

; 3173 : 			STORE_EFRAGS( pleaf->efrags, tr.realframecount );

	mov	eax, DWORD PTR ?tr@@3Uref_globals_t@@A+5830928
	push	eax
	mov	ecx, DWORD PTR _pleaf$[ebp]
	mov	edx, DWORD PTR [ecx+64]
	push	edx
	call	DWORD PTR ?gRenderfuncs@@3Urender_api_s@@A+44
	add	esp, 8
$LN20@R_Recursiv:

; 3174 : 
; 3175 : 		r_stats.c_world_leafs++;

	mov	eax, DWORD PTR ?r_stats@@3Uref_stats_t@@A+12
	add	eax, 1
	mov	DWORD PTR ?r_stats@@3Uref_stats_t@@A+12, eax

; 3176 : 		return;

	jmp	$LN1@R_Recursiv
$LN17@R_Recursiv:

; 3177 : 	}
; 3178 : 
; 3179 : 	// node is just a decision point, so go down the appropriate sides
; 3180 : 
; 3181 : 	// find which side of the node we are on
; 3182 : 	dot = PlaneDiff( tr.modelorg, node->plane );

	mov	eax, DWORD PTR _node$[ebp]
	mov	ecx, DWORD PTR [eax+64]
	movzx	edx, BYTE PTR [ecx+16]
	cmp	edx, 3
	jge	SHORT $LN38@R_Recursiv
	mov	ecx, OFFSET ?tr@@3Uref_globals_t@@A+5852544
	call	??BVector@@QAEPAMXZ			; Vector::operator float *
	mov	ecx, DWORD PTR _node$[ebp]
	mov	edx, DWORD PTR [ecx+64]
	movzx	ecx, BYTE PTR [edx+16]
	movss	xmm0, DWORD PTR [eax+ecx*4]
	movss	DWORD PTR tv191[ebp], xmm0
	jmp	SHORT $LN39@R_Recursiv
$LN38@R_Recursiv:
	mov	edx, DWORD PTR _node$[ebp]
	mov	eax, DWORD PTR [edx+64]
	push	eax
	push	OFFSET ?tr@@3Uref_globals_t@@A+5852544
	call	?DotProduct@@YAMABVVector@@0@Z		; DotProduct
	add	esp, 8
	fstp	DWORD PTR tv191[ebp]
$LN39@R_Recursiv:
	mov	ecx, DWORD PTR _node$[ebp]
	mov	edx, DWORD PTR [ecx+64]
	movss	xmm0, DWORD PTR tv191[ebp]
	subss	xmm0, DWORD PTR [edx+12]
	movss	DWORD PTR _dot$[ebp], xmm0

; 3183 : 	side = (dot >= 0.0f) ? 0 : 1;

	movss	xmm0, DWORD PTR _dot$[ebp]
	comiss	xmm0, DWORD PTR __real@00000000
	jb	SHORT $LN40@R_Recursiv
	mov	DWORD PTR tv196[ebp], 0
	jmp	SHORT $LN41@R_Recursiv
$LN40@R_Recursiv:
	mov	DWORD PTR tv196[ebp], 1
$LN41@R_Recursiv:
	mov	eax, DWORD PTR tv196[ebp]
	mov	DWORD PTR _side$[ebp], eax

; 3184 : 
; 3185 : 	// recurse down the children, front side first
; 3186 : 	R_RecursiveWorldNode( node->children[side], clipflags );

	mov	eax, DWORD PTR _clipflags$[ebp]
	push	eax
	mov	ecx, DWORD PTR _side$[ebp]
	mov	edx, DWORD PTR _node$[ebp]
	mov	eax, DWORD PTR [edx+ecx*4+68]
	push	eax
	call	?R_RecursiveWorldNode@@YAXPAUmworldnode_s@@I@Z ; R_RecursiveWorldNode
	add	esp, 8

; 3187 : 
; 3188 : 	// draw stuff
; 3189 : 	for( c = node->numsurfaces, surf = worldmodel->surfaces + node->firstsurface; c; c--, surf++ )

	mov	eax, DWORD PTR _node$[ebp]
	movzx	ecx, WORD PTR [eax+78]
	mov	DWORD PTR _c$[ebp], ecx
	mov	edx, DWORD PTR _node$[ebp]
	movzx	eax, WORD PTR [edx+76]
	imul	ecx, eax, 92
	mov	edx, DWORD PTR ?worldmodel@@3PAUmodel_s@@A ; worldmodel
	add	ecx, DWORD PTR [edx+180]
	mov	DWORD PTR _surf$[ebp], ecx
	jmp	SHORT $LN10@R_Recursiv
$LN8@R_Recursiv:
	mov	eax, DWORD PTR _c$[ebp]
	sub	eax, 1
	mov	DWORD PTR _c$[ebp], eax
	mov	ecx, DWORD PTR _surf$[ebp]
	add	ecx, 92					; 0000005cH
	mov	DWORD PTR _surf$[ebp], ecx
$LN10@R_Recursiv:
	cmp	DWORD PTR _c$[ebp], 0
	je	$LN9@R_Recursiv

; 3190 : 	{
; 3191 : 		// in some cases surface is invisible but grass is not
; 3192 : 		if( CVAR_TO_BOOL( r_grass ) )

	cmp	DWORD PTR ?r_grass@@3PAUcvar_s@@A, 0	; r_grass
	je	SHORT $LN42@R_Recursiv
	mov	eax, DWORD PTR ?r_grass@@3PAUcvar_s@@A	; r_grass
	movss	xmm0, DWORD PTR [eax+12]
	ucomiss	xmm0, DWORD PTR __real@00000000
	lahf
	test	ah, 68					; 00000044H
	jnp	SHORT $LN42@R_Recursiv
	mov	BYTE PTR tv215[ebp], 1
	jmp	SHORT $LN43@R_Recursiv
$LN42@R_Recursiv:
	mov	BYTE PTR tv215[ebp], 0
$LN43@R_Recursiv:
	movzx	ecx, BYTE PTR tv215[ebp]
	test	ecx, ecx
	je	SHORT $LN21@R_Recursiv

; 3193 : 			R_AddGrassToChain( surf, &RI->frustum );

	push	0
	push	0
	mov	eax, DWORD PTR ?RI@@3PAUref_instance_t@@A ; RI
	add	eax, 48					; 00000030H
	push	eax
	mov	ecx, DWORD PTR _surf$[ebp]
	push	ecx
	call	?R_AddGrassToChain@@YA_NPAUmsurface_s@@PAVCFrustum@@_NPAUmworldleaf_s@@@Z ; R_AddGrassToChain
	add	esp, 16					; 00000010H
$LN21@R_Recursiv:

; 3194 : 
; 3195 : 		if( !CHECKVISBIT( RI->visfaces, surf - worldmodel->surfaces ) )

	mov	eax, DWORD PTR ?worldmodel@@3PAUmodel_s@@A ; worldmodel
	mov	ecx, DWORD PTR _surf$[ebp]
	sub	ecx, DWORD PTR [eax+180]
	mov	eax, ecx
	cdq
	mov	ecx, 92					; 0000005cH
	idiv	ecx
	test	eax, eax
	jl	SHORT $LN44@R_Recursiv
	mov	edx, DWORD PTR ?worldmodel@@3PAUmodel_s@@A ; worldmodel
	mov	eax, DWORD PTR _surf$[ebp]
	sub	eax, DWORD PTR [edx+180]
	cdq
	mov	ecx, 92					; 0000005cH
	idiv	ecx
	sar	eax, 3
	mov	edx, DWORD PTR ?RI@@3PAUref_instance_t@@A ; RI
	movzx	ebx, BYTE PTR [edx+eax+4779]
	mov	eax, DWORD PTR ?worldmodel@@3PAUmodel_s@@A ; worldmodel
	mov	ecx, DWORD PTR _surf$[ebp]
	sub	ecx, DWORD PTR [eax+180]
	mov	eax, ecx
	cdq
	mov	ecx, 92					; 0000005cH
	idiv	ecx
	and	eax, 7
	mov	edx, 1
	mov	ecx, eax
	shl	edx, cl
	and	ebx, edx
	mov	BYTE PTR tv242[ebp], bl
	jmp	SHORT $LN45@R_Recursiv
$LN44@R_Recursiv:
	mov	BYTE PTR tv242[ebp], 0
$LN45@R_Recursiv:
	movzx	eax, BYTE PTR tv242[ebp]
	test	eax, eax
	jne	SHORT $LN22@R_Recursiv

; 3196 : 			continue;	// not visible

	jmp	$LN8@R_Recursiv
$LN22@R_Recursiv:

; 3197 : 
; 3198 : 		bool backplane = FBitSet( surf->flags, SURF_PLANEBACK ) ? true : false;

	mov	eax, DWORD PTR _surf$[ebp]
	mov	ecx, DWORD PTR [eax+8]
	and	ecx, 2
	je	SHORT $LN46@R_Recursiv
	mov	BYTE PTR tv248[ebp], 1
	jmp	SHORT $LN47@R_Recursiv
$LN46@R_Recursiv:
	mov	BYTE PTR tv248[ebp], 0
$LN47@R_Recursiv:
	mov	dl, BYTE PTR tv248[ebp]
	mov	BYTE PTR _backplane$1[ebp], dl

; 3199 : 
; 3200 : 		if( FBitSet( RI->params, RP_OVERVIEW ) )

	mov	eax, DWORD PTR ?RI@@3PAUref_instance_t@@A ; RI
	mov	ecx, DWORD PTR [eax]
	and	ecx, 512				; 00000200H
	je	SHORT $LN23@R_Recursiv

; 3201 : 			dot = surf->plane->normal[2];

	mov	eax, DWORD PTR _surf$[ebp]
	mov	ecx, DWORD PTR [eax+4]
	call	??BVector@@QAEPAMXZ			; Vector::operator float *
	mov	ecx, 4
	shl	ecx, 1
	movss	xmm0, DWORD PTR [eax+ecx]
	movss	DWORD PTR _dot$[ebp], xmm0
	jmp	SHORT $LN24@R_Recursiv
$LN23@R_Recursiv:

; 3202 : 		else dot = PlaneDiff( tr.modelorg, surf->plane );

	mov	eax, DWORD PTR _surf$[ebp]
	mov	ecx, DWORD PTR [eax+4]
	movzx	edx, BYTE PTR [ecx+16]
	cmp	edx, 3
	jge	SHORT $LN48@R_Recursiv
	mov	ecx, OFFSET ?tr@@3Uref_globals_t@@A+5852544
	call	??BVector@@QAEPAMXZ			; Vector::operator float *
	mov	ecx, DWORD PTR _surf$[ebp]
	mov	edx, DWORD PTR [ecx+4]
	movzx	ecx, BYTE PTR [edx+16]
	movss	xmm0, DWORD PTR [eax+ecx*4]
	movss	DWORD PTR tv274[ebp], xmm0
	jmp	SHORT $LN49@R_Recursiv
$LN48@R_Recursiv:
	mov	edx, DWORD PTR _surf$[ebp]
	mov	eax, DWORD PTR [edx+4]
	push	eax
	push	OFFSET ?tr@@3Uref_globals_t@@A+5852544
	call	?DotProduct@@YAMABVVector@@0@Z		; DotProduct
	add	esp, 8
	fstp	DWORD PTR tv274[ebp]
$LN49@R_Recursiv:
	mov	ecx, DWORD PTR _surf$[ebp]
	mov	edx, DWORD PTR [ecx+4]
	movss	xmm0, DWORD PTR tv274[ebp]
	subss	xmm0, DWORD PTR [edx+12]
	movss	DWORD PTR _dot$[ebp], xmm0
$LN24@R_Recursiv:

; 3203 : 
; 3204 : 		if( (backplane && dot >= -BACKFACE_EPSILON) || (!backplane && dot <= BACKFACE_EPSILON) )

	movzx	eax, BYTE PTR _backplane$1[ebp]
	test	eax, eax
	je	SHORT $LN27@R_Recursiv
	movss	xmm0, DWORD PTR _dot$[ebp]
	comiss	xmm0, DWORD PTR __real@bc23d70a
	jae	SHORT $LN26@R_Recursiv
$LN27@R_Recursiv:
	movzx	eax, BYTE PTR _backplane$1[ebp]
	test	eax, eax
	jne	SHORT $LN25@R_Recursiv
	movss	xmm0, DWORD PTR __real@3c23d70a
	comiss	xmm0, DWORD PTR _dot$[ebp]
	jb	SHORT $LN25@R_Recursiv
$LN26@R_Recursiv:

; 3205 : 			continue; // wrong side

	jmp	$LN8@R_Recursiv
$LN25@R_Recursiv:

; 3206 : 
; 3207 : 		if( RI->frustum.CullBox( surf->info->mins, surf->info->maxs ) )

	push	0
	mov	eax, DWORD PTR _surf$[ebp]
	mov	ecx, DWORD PTR [eax+80]
	add	ecx, 12					; 0000000cH
	push	ecx
	mov	edx, DWORD PTR _surf$[ebp]
	mov	eax, DWORD PTR [edx+80]
	push	eax
	mov	ecx, DWORD PTR ?RI@@3PAUref_instance_t@@A ; RI
	add	ecx, 48					; 00000030H
	call	?CullBox@CFrustum@@QAE_NABVVector@@0H@Z	; CFrustum::CullBox
	movzx	ecx, al
	test	ecx, ecx
	je	SHORT $LN28@R_Recursiv

; 3208 : 			continue;

	jmp	$LN8@R_Recursiv
$LN28@R_Recursiv:

; 3209 : 
; 3210 : 		if( FBitSet( surf->flags, SURF_DRAWSKY ) )

	mov	eax, DWORD PTR _surf$[ebp]
	mov	ecx, DWORD PTR [eax+8]
	and	ecx, 4
	je	SHORT $LN29@R_Recursiv

; 3211 : 		{
; 3212 : 			if( FBitSet( RI->params, RP_SHADOWPASS ) )

	mov	eax, DWORD PTR ?RI@@3PAUref_instance_t@@A ; RI
	mov	ecx, DWORD PTR [eax]
	and	ecx, 256				; 00000100H
	je	SHORT $LN31@R_Recursiv

; 3213 : 				continue;

	jmp	$LN8@R_Recursiv
$LN31@R_Recursiv:

; 3214 : 
; 3215 : 			if( tr.fIgnoreSkybox )

	movzx	eax, BYTE PTR ?tr@@3Uref_globals_t@@A+5830652
	test	eax, eax
	je	SHORT $LN32@R_Recursiv

; 3216 : 				continue;

	jmp	$LN8@R_Recursiv
$LN32@R_Recursiv:

; 3217 : 
; 3218 : 			R_AddSkyBoxSurface( surf );

	mov	eax, DWORD PTR _surf$[ebp]
	push	eax
	call	?R_AddSkyBoxSurface@@YAXPAUmsurface_s@@@Z ; R_AddSkyBoxSurface
	add	esp, 4

; 3219 : 		}
; 3220 : 		else

	jmp	SHORT $LN30@R_Recursiv
$LN29@R_Recursiv:

; 3221 : 			R_AddSurfaceToDrawList( surf, false );

	push	0
	mov	eax, DWORD PTR _surf$[ebp]
	push	eax
	call	?R_AddSurfaceToDrawList@@YA_NPAUmsurface_s@@_N@Z ; R_AddSurfaceToDrawList
	add	esp, 8
$LN30@R_Recursiv:

; 3222 : 	}

	jmp	$LN8@R_Recursiv
$LN9@R_Recursiv:

; 3223 : 
; 3224 : 	// recurse down the back side
; 3225 : 	node = node->children[!side];

	cmp	DWORD PTR _side$[ebp], 0
	jne	SHORT $LN50@R_Recursiv
	mov	DWORD PTR tv309[ebp], 1
	jmp	SHORT $LN51@R_Recursiv
$LN50@R_Recursiv:
	mov	DWORD PTR tv309[ebp], 0
$LN51@R_Recursiv:
	mov	eax, DWORD PTR tv309[ebp]
	mov	ecx, DWORD PTR _node$[ebp]
	mov	edx, DWORD PTR [ecx+eax*4+68]
	mov	DWORD PTR _node$[ebp], edx

; 3226 : 	goto loc0;

	jmp	$loc0$52
$LN1@R_Recursiv:

; 3227 : }

	pop	edi
	pop	esi
	pop	ebx
	mov	esp, ebp
	pop	ebp
	ret	0
?R_RecursiveWorldNode@@YAXPAUmworldnode_s@@I@Z ENDP	; R_RecursiveWorldNode
_TEXT	ENDS
; Function compile flags: /Odtp /ZI
; File d:\!diffusion 2020\source code 2022\client-server\client\render\r_world.cpp
;	COMDAT ?R_UpdateEngineVisibility@@YAXXZ
_TEXT	SEGMENT
_j$1 = -4						; size = 4
?R_UpdateEngineVisibility@@YAXXZ PROC			; R_UpdateEngineVisibility, COMDAT

; 3044 : {

	push	ebp
	mov	ebp, esp
	sub	esp, 68					; 00000044H
	push	ebx
	push	esi
	push	edi

; 3045 : 	// just update shared PVS because it's reset each frame
; 3046 : 	for( int j = 0; j < tr.pvssize; j++ )

	mov	DWORD PTR _j$1[ebp], 0
	jmp	SHORT $LN4@R_UpdateEn
$LN2@R_UpdateEn:
	mov	eax, DWORD PTR _j$1[ebp]
	add	eax, 1
	mov	DWORD PTR _j$1[ebp], eax
$LN4@R_UpdateEn:
	mov	eax, DWORD PTR _j$1[ebp]
	cmp	eax, DWORD PTR ?tr@@3Uref_globals_t@@A+5835052
	jge	SHORT $LN1@R_UpdateEn

; 3047 : 		SetBits( tr.visbytes[j], RI->visbytes[j] );

	mov	eax, DWORD PTR _j$1[ebp]
	movzx	ecx, BYTE PTR ?tr@@3Uref_globals_t@@A[eax+5830956]
	mov	edx, DWORD PTR ?RI@@3PAUref_instance_t@@A ; RI
	add	edx, DWORD PTR _j$1[ebp]
	movzx	eax, BYTE PTR [edx+684]
	or	ecx, eax
	mov	edx, DWORD PTR _j$1[ebp]
	mov	BYTE PTR ?tr@@3Uref_globals_t@@A[edx+5830956], cl
	jmp	SHORT $LN2@R_UpdateEn
$LN1@R_UpdateEn:

; 3048 : }

	pop	edi
	pop	esi
	pop	ebx
	mov	esp, ebp
	pop	ebp
	ret	0
?R_UpdateEngineVisibility@@YAXXZ ENDP			; R_UpdateEngineVisibility
_TEXT	ENDS
; Function compile flags: /Odtp /ZI
; File d:\!diffusion 2020\source code 2022\client-server\client\render\r_world.cpp
;	COMDAT ?R_SetRenderMode@@YAXPAUcl_entity_s@@@Z
_TEXT	SEGMENT
tv68 = -68						; size = 4
_e$ = 8							; size = 4
?R_SetRenderMode@@YAXPAUcl_entity_s@@@Z PROC		; R_SetRenderMode, COMDAT

; 2825 : {

	push	ebp
	mov	ebp, esp
	sub	esp, 68					; 00000044H
	push	ebx
	push	esi
	push	edi

; 2826 : 	pglDisable( GL_ALPHA_TEST );

	push	3008					; 00000bc0H
	call	DWORD PTR ?pglDisable@@3P6GXI@ZA	; pglDisable

; 2827 : 	pglDepthMask( GL_TRUE );

	push	1
	call	DWORD PTR ?pglDepthMask@@3P6GXE@ZA	; pglDepthMask

; 2828 : 
; 2829 : 	switch( e->curstate.rendermode )

	mov	eax, DWORD PTR _e$[ebp]
	mov	ecx, DWORD PTR [eax+760]
	mov	DWORD PTR tv68[ebp], ecx
	cmp	DWORD PTR tv68[ebp], 5
	ja	$LN8@R_SetRende
	mov	edx, DWORD PTR tv68[ebp]
	jmp	DWORD PTR $LN15@R_SetRende[edx*4]
$LN4@R_SetRende:

; 2830 : 	{
; 2831 : 	case kRenderNormal:
; 2832 : 		pglColor4f( 1.0f, 1.0f, 1.0f, 1.0f );

	push	ecx
	movss	xmm0, DWORD PTR __real@3f800000
	movss	DWORD PTR [esp], xmm0
	push	ecx
	movss	xmm0, DWORD PTR __real@3f800000
	movss	DWORD PTR [esp], xmm0
	push	ecx
	movss	xmm0, DWORD PTR __real@3f800000
	movss	DWORD PTR [esp], xmm0
	push	ecx
	movss	xmm0, DWORD PTR __real@3f800000
	movss	DWORD PTR [esp], xmm0
	call	DWORD PTR ?pglColor4f@@3P6GXMMMM@ZA	; pglColor4f

; 2833 : 		pglDisable( GL_BLEND );

	push	3042					; 00000be2H
	call	DWORD PTR ?pglDisable@@3P6GXI@ZA	; pglDisable

; 2834 : 		break;

	jmp	$LN2@R_SetRende
$LN5@R_SetRende:

; 2835 : 	case kRenderTransColor:
; 2836 : 		pglBlendFunc( GL_SRC_ALPHA, GL_ONE_MINUS_SRC_ALPHA );

	push	771					; 00000303H
	push	770					; 00000302H
	call	DWORD PTR ?pglBlendFunc@@3P6GXII@ZA	; pglBlendFunc

; 2837 : 		pglColor4ub( e->curstate.rendercolor.r, e->curstate.rendercolor.g, e->curstate.rendercolor.b, e->curstate.renderamt );

	mov	eax, DWORD PTR _e$[ebp]
	movzx	ecx, BYTE PTR [eax+764]
	push	ecx
	mov	edx, DWORD PTR _e$[ebp]
	movzx	eax, BYTE PTR [edx+770]
	push	eax
	mov	ecx, DWORD PTR _e$[ebp]
	movzx	edx, BYTE PTR [ecx+769]
	push	edx
	mov	eax, DWORD PTR _e$[ebp]
	movzx	ecx, BYTE PTR [eax+768]
	push	ecx
	call	DWORD PTR ?pglColor4ub@@3P6GXEEEE@ZA	; pglColor4ub

; 2838 : 		pglTexEnvf( GL_TEXTURE_ENV, GL_TEXTURE_ENV_MODE, GL_MODULATE );

	push	ecx
	movss	xmm0, DWORD PTR __real@46040000
	movss	DWORD PTR [esp], xmm0
	push	8704					; 00002200H
	push	8960					; 00002300H
	call	DWORD PTR ?pglTexEnvf@@3P6GXIIM@ZA	; pglTexEnvf

; 2839 : 		pglDisable( GL_TEXTURE_2D );

	push	3553					; 00000de1H
	call	DWORD PTR ?pglDisable@@3P6GXI@ZA	; pglDisable

; 2840 : 		pglEnable( GL_BLEND );

	push	3042					; 00000be2H
	call	DWORD PTR ?pglEnable@@3P6GXI@ZA		; pglEnable

; 2841 : 		break;

	jmp	$LN2@R_SetRende
$LN6@R_SetRende:

; 2842 : 	case kRenderTransAdd:
; 2843 : 		pglTexEnvf( GL_TEXTURE_ENV, GL_TEXTURE_ENV_MODE, GL_MODULATE );

	push	ecx
	movss	xmm0, DWORD PTR __real@46040000
	movss	DWORD PTR [esp], xmm0
	push	8704					; 00002200H
	push	8960					; 00002300H
	call	DWORD PTR ?pglTexEnvf@@3P6GXIIM@ZA	; pglTexEnvf

; 2844 : 		pglColor4f( tr.blend, tr.blend, tr.blend, 1.0f );

	push	ecx
	movss	xmm0, DWORD PTR __real@3f800000
	movss	DWORD PTR [esp], xmm0
	push	ecx
	movss	xmm0, DWORD PTR ?tr@@3Uref_globals_t@@A+5830912
	movss	DWORD PTR [esp], xmm0
	push	ecx
	movss	xmm0, DWORD PTR ?tr@@3Uref_globals_t@@A+5830912
	movss	DWORD PTR [esp], xmm0
	push	ecx
	movss	xmm0, DWORD PTR ?tr@@3Uref_globals_t@@A+5830912
	movss	DWORD PTR [esp], xmm0
	call	DWORD PTR ?pglColor4f@@3P6GXMMMM@ZA	; pglColor4f

; 2845 : 		pglBlendFunc( GL_ONE, GL_ONE );

	push	1
	push	1
	call	DWORD PTR ?pglBlendFunc@@3P6GXII@ZA	; pglBlendFunc

; 2846 : 		pglDepthMask( GL_FALSE );

	push	0
	call	DWORD PTR ?pglDepthMask@@3P6GXE@ZA	; pglDepthMask

; 2847 : 		pglEnable( GL_BLEND );

	push	3042					; 00000be2H
	call	DWORD PTR ?pglEnable@@3P6GXI@ZA		; pglEnable

; 2848 : 		break;

	jmp	$LN2@R_SetRende
$LN7@R_SetRende:

; 2849 : 	case kRenderTransAlpha:
; 2850 : 		pglEnable( GL_ALPHA_TEST );

	push	3008					; 00000bc0H
	call	DWORD PTR ?pglEnable@@3P6GXI@ZA		; pglEnable

; 2851 : 		pglTexEnvf( GL_TEXTURE_ENV, GL_TEXTURE_ENV_MODE, GL_MODULATE );

	push	ecx
	movss	xmm0, DWORD PTR __real@46040000
	movss	DWORD PTR [esp], xmm0
	push	8704					; 00002200H
	push	8960					; 00002300H
	call	DWORD PTR ?pglTexEnvf@@3P6GXIIM@ZA	; pglTexEnvf

; 2852 : 		pglColor4f( 1.0f, 1.0f, 1.0f, 1.0f );

	push	ecx
	movss	xmm0, DWORD PTR __real@3f800000
	movss	DWORD PTR [esp], xmm0
	push	ecx
	movss	xmm0, DWORD PTR __real@3f800000
	movss	DWORD PTR [esp], xmm0
	push	ecx
	movss	xmm0, DWORD PTR __real@3f800000
	movss	DWORD PTR [esp], xmm0
	push	ecx
	movss	xmm0, DWORD PTR __real@3f800000
	movss	DWORD PTR [esp], xmm0
	call	DWORD PTR ?pglColor4f@@3P6GXMMMM@ZA	; pglColor4f

; 2853 : 		pglDisable( GL_BLEND );

	push	3042					; 00000be2H
	call	DWORD PTR ?pglDisable@@3P6GXI@ZA	; pglDisable

; 2854 : 		pglAlphaFunc( GL_GREATER, 0.25f );

	push	ecx
	movss	xmm0, DWORD PTR __real@3e800000
	movss	DWORD PTR [esp], xmm0
	push	516					; 00000204H
	call	DWORD PTR ?pglAlphaFunc@@3P6GXIM@ZA	; pglAlphaFunc

; 2855 : 		break;

	jmp	$LN2@R_SetRende
$LN8@R_SetRende:

; 2856 : 	default:
; 2857 : 		pglTexEnvf( GL_TEXTURE_ENV, GL_TEXTURE_ENV_MODE, GL_MODULATE );

	push	ecx
	movss	xmm0, DWORD PTR __real@46040000
	movss	DWORD PTR [esp], xmm0
	push	8704					; 00002200H
	push	8960					; 00002300H
	call	DWORD PTR ?pglTexEnvf@@3P6GXIIM@ZA	; pglTexEnvf

; 2858 : 		pglBlendFunc( GL_SRC_ALPHA, GL_ONE_MINUS_SRC_ALPHA );

	push	771					; 00000303H
	push	770					; 00000302H
	call	DWORD PTR ?pglBlendFunc@@3P6GXII@ZA	; pglBlendFunc

; 2859 : 		pglColor4f( 1.0f, 1.0f, 1.0f, tr.blend );

	push	ecx
	movss	xmm0, DWORD PTR ?tr@@3Uref_globals_t@@A+5830912
	movss	DWORD PTR [esp], xmm0
	push	ecx
	movss	xmm0, DWORD PTR __real@3f800000
	movss	DWORD PTR [esp], xmm0
	push	ecx
	movss	xmm0, DWORD PTR __real@3f800000
	movss	DWORD PTR [esp], xmm0
	push	ecx
	movss	xmm0, DWORD PTR __real@3f800000
	movss	DWORD PTR [esp], xmm0
	call	DWORD PTR ?pglColor4f@@3P6GXMMMM@ZA	; pglColor4f

; 2860 : 		pglDepthMask( GL_FALSE );

	push	0
	call	DWORD PTR ?pglDepthMask@@3P6GXE@ZA	; pglDepthMask

; 2861 : 
; 2862 : 		if( e->curstate.skin == CONTENTS_WATER )

	mov	eax, DWORD PTR _e$[ebp]
	movsx	ecx, WORD PTR [eax+744]
	cmp	ecx, -3					; fffffffdH
	jne	SHORT $LN9@R_SetRende

; 2863 : 		{
; 2864 : 			if( e->curstate.renderfx == kRenderFxNoRefraction || (gl_water_refraction->value == 0) )

	mov	eax, DWORD PTR _e$[ebp]
	cmp	DWORD PTR [eax+772], 28			; 0000001cH
	je	SHORT $LN13@R_SetRende
	mov	eax, DWORD PTR ?gl_water_refraction@@3PAUcvar_s@@A ; gl_water_refraction
	movss	xmm0, DWORD PTR [eax+12]
	ucomiss	xmm0, DWORD PTR __real@00000000
	lahf
	test	ah, 68					; 00000044H
	jp	SHORT $LN11@R_SetRende
$LN13@R_SetRende:

; 2865 : 				pglEnable( GL_BLEND ); // default half-life water

	push	3042					; 00000be2H
	call	DWORD PTR ?pglEnable@@3P6GXI@ZA		; pglEnable

; 2866 : 			else

	jmp	SHORT $LN12@R_SetRende
$LN11@R_SetRende:

; 2867 : 				pglDisable( GL_BLEND );

	push	3042					; 00000be2H
	call	DWORD PTR ?pglDisable@@3P6GXI@ZA	; pglDisable
$LN12@R_SetRende:

; 2868 : 		}
; 2869 : 		else

	jmp	SHORT $LN10@R_SetRende
$LN9@R_SetRende:

; 2870 : 			pglEnable( GL_BLEND );

	push	3042					; 00000be2H
	call	DWORD PTR ?pglEnable@@3P6GXI@ZA		; pglEnable
$LN10@R_SetRende:
$LN2@R_SetRende:

; 2871 : 		break;
; 2872 : 	}
; 2873 : }

	pop	edi
	pop	esi
	pop	ebx
	mov	esp, ebp
	pop	ebp
	ret	0
	npad	3
$LN15@R_SetRende:
	DD	$LN4@R_SetRende
	DD	$LN5@R_SetRende
	DD	$LN8@R_SetRende
	DD	$LN8@R_SetRende
	DD	$LN7@R_SetRende
	DD	$LN6@R_SetRende
?R_SetRenderMode@@YAXPAUcl_entity_s@@@Z ENDP		; R_SetRenderMode
_TEXT	ENDS
; Function compile flags: /Odtp /ZI
; File d:\!diffusion 2020\source code 2022\client-server\client\render\r_world.cpp
;	COMDAT ?R_TransSurfaceCompare@@YAHPBUgl_bmodelface_t@@0@Z
_TEXT	SEGMENT
tv153 = -108						; size = 4
tv146 = -108						; size = 4
_len2$ = -40						; size = 4
_len1$ = -36						; size = 4
_org2$ = -32						; size = 12
_org1$ = -20						; size = 12
_surf2$ = -8						; size = 4
_surf1$ = -4						; size = 4
_a$ = 8							; size = 4
_b$ = 12						; size = 4
?R_TransSurfaceCompare@@YAHPBUgl_bmodelface_t@@0@Z PROC	; R_TransSurfaceCompare, COMDAT

; 2807 : {

	push	ebp
	mov	ebp, esp
	sub	esp, 108				; 0000006cH
	push	ebx
	push	esi
	push	edi

; 2808 : 	msurface_t *surf1 = (msurface_t *)a->surface;

	mov	eax, DWORD PTR _a$[ebp]
	mov	ecx, DWORD PTR [eax]
	mov	DWORD PTR _surf1$[ebp], ecx

; 2809 : 	msurface_t *surf2 = (msurface_t *)b->surface;

	mov	eax, DWORD PTR _b$[ebp]
	mov	ecx, DWORD PTR [eax]
	mov	DWORD PTR _surf2$[ebp], ecx

; 2810 : 	Vector org1 = RI->currententity->origin + surf1->info->origin;

	mov	eax, DWORD PTR _surf1$[ebp]
	mov	ecx, DWORD PTR [eax+80]
	add	ecx, 24					; 00000018H
	push	ecx
	lea	edx, DWORD PTR _org1$[ebp]
	push	edx
	mov	eax, DWORD PTR ?RI@@3PAUref_instance_t@@A ; RI
	mov	ecx, DWORD PTR [eax+16]
	add	ecx, 2888				; 00000b48H
	call	??HVector@@QBE?AV0@ABV0@@Z		; Vector::operator+

; 2811 : 	Vector org2 = RI->currententity->origin + surf2->info->origin;

	mov	eax, DWORD PTR _surf2$[ebp]
	mov	ecx, DWORD PTR [eax+80]
	add	ecx, 24					; 00000018H
	push	ecx
	lea	edx, DWORD PTR _org2$[ebp]
	push	edx
	mov	eax, DWORD PTR ?RI@@3PAUref_instance_t@@A ; RI
	mov	ecx, DWORD PTR [eax+16]
	add	ecx, 2888				; 00000b48H
	call	??HVector@@QBE?AV0@ABV0@@Z		; Vector::operator+

; 2812 : 	float len1 = DotProduct( org1, RI->vforward ) - RI->viewplanedist;

	mov	eax, DWORD PTR ?RI@@3PAUref_instance_t@@A ; RI
	add	eax, 228				; 000000e4H
	push	eax
	lea	ecx, DWORD PTR _org1$[ebp]
	push	ecx
	call	?DotProduct@@YAMABVVector@@0@Z		; DotProduct
	add	esp, 8
	fstp	DWORD PTR tv146[ebp]
	movss	xmm0, DWORD PTR tv146[ebp]
	mov	edx, DWORD PTR ?RI@@3PAUref_instance_t@@A ; RI
	subss	xmm0, DWORD PTR [edx+14008]
	movss	DWORD PTR _len1$[ebp], xmm0

; 2813 : 	float len2 = DotProduct( org2, RI->vforward ) - RI->viewplanedist;

	mov	eax, DWORD PTR ?RI@@3PAUref_instance_t@@A ; RI
	add	eax, 228				; 000000e4H
	push	eax
	lea	ecx, DWORD PTR _org2$[ebp]
	push	ecx
	call	?DotProduct@@YAMABVVector@@0@Z		; DotProduct
	add	esp, 8
	fstp	DWORD PTR tv153[ebp]
	movss	xmm0, DWORD PTR tv153[ebp]
	mov	edx, DWORD PTR ?RI@@3PAUref_instance_t@@A ; RI
	subss	xmm0, DWORD PTR [edx+14008]
	movss	DWORD PTR _len2$[ebp], xmm0

; 2814 : 
; 2815 : 	// compare by plane dists
; 2816 : 	if( len1 > len2 )

	movss	xmm0, DWORD PTR _len1$[ebp]
	comiss	xmm0, DWORD PTR _len2$[ebp]
	jbe	SHORT $LN2@R_TransSur

; 2817 : 		return -1;

	or	eax, -1
	jmp	SHORT $LN1@R_TransSur
$LN2@R_TransSur:

; 2818 : 	if( len1 < len2 )

	movss	xmm0, DWORD PTR _len2$[ebp]
	comiss	xmm0, DWORD PTR _len1$[ebp]
	jbe	SHORT $LN3@R_TransSur

; 2819 : 		return 0;

	xor	eax, eax
	jmp	SHORT $LN1@R_TransSur
$LN3@R_TransSur:

; 2820 : 
; 2821 : 	return 0;

	xor	eax, eax
$LN1@R_TransSur:

; 2822 : }

	pop	edi
	pop	esi
	pop	ebx
	mov	esp, ebp
	pop	ebp
	ret	0
?R_TransSurfaceCompare@@YAHPBUgl_bmodelface_t@@0@Z ENDP	; R_TransSurfaceCompare
_TEXT	ENDS
; Function compile flags: /Odtp /ZI
; File d:\!diffusion 2020\source code 2022\client-server\client\render\r_world.cpp
;	COMDAT ?R_SolidSurfaceCompare@@YAHPBUgl_bmodelface_t@@0@Z
_TEXT	SEGMENT
_esrf2$ = -24						; size = 4
_esrf1$ = -20						; size = 4
_tx2$ = -16						; size = 4
_tx1$ = -12						; size = 4
_surf2$ = -8						; size = 4
_surf1$ = -4						; size = 4
_a$ = 8							; size = 4
_b$ = 12						; size = 4
?R_SolidSurfaceCompare@@YAHPBUgl_bmodelface_t@@0@Z PROC	; R_SolidSurfaceCompare, COMDAT

; 2766 : {

	push	ebp
	mov	ebp, esp
	sub	esp, 88					; 00000058H
	push	ebx
	push	esi
	push	edi

; 2767 : 	msurface_t *surf1 = (msurface_t *)a->surface;

	mov	eax, DWORD PTR _a$[ebp]
	mov	ecx, DWORD PTR [eax]
	mov	DWORD PTR _surf1$[ebp], ecx

; 2768 : 	msurface_t *surf2 = (msurface_t *)b->surface;

	mov	eax, DWORD PTR _b$[ebp]
	mov	ecx, DWORD PTR [eax]
	mov	DWORD PTR _surf2$[ebp], ecx

; 2769 : 	texture_t *tx1 = R_TextureAnimation( surf1 );

	mov	eax, DWORD PTR _surf1$[ebp]
	push	eax
	call	?R_TextureAnimation@@YAPAUtexture_s@@PAUmsurface_s@@@Z ; R_TextureAnimation
	add	esp, 4
	mov	DWORD PTR _tx1$[ebp], eax

; 2770 : 	texture_t *tx2 = R_TextureAnimation( surf2 );

	mov	eax, DWORD PTR _surf2$[ebp]
	push	eax
	call	?R_TextureAnimation@@YAPAUtexture_s@@PAUmsurface_s@@@Z ; R_TextureAnimation
	add	esp, 4
	mov	DWORD PTR _tx2$[ebp], eax

; 2771 : 	mextrasurf_t *esrf1 = surf1->info;

	mov	eax, DWORD PTR _surf1$[ebp]
	mov	ecx, DWORD PTR [eax+80]
	mov	DWORD PTR _esrf1$[ebp], ecx

; 2772 : 	mextrasurf_t *esrf2 = surf2->info;

	mov	eax, DWORD PTR _surf2$[ebp]
	mov	ecx, DWORD PTR [eax+80]
	mov	DWORD PTR _esrf2$[ebp], ecx

; 2773 : 
; 2774 : 	// sort priority
; 2775 : 	// 1. shaders
; 2776 : 	if( esrf1->shaderNum[0] > esrf2->shaderNum[0] )

	mov	eax, 2
	imul	ecx, eax, 0
	mov	edx, DWORD PTR _esrf1$[ebp]
	movzx	eax, WORD PTR [edx+ecx+166]
	mov	ecx, 2
	imul	edx, ecx, 0
	mov	ecx, DWORD PTR _esrf2$[ebp]
	movzx	edx, WORD PTR [ecx+edx+166]
	cmp	eax, edx
	jle	SHORT $LN2@R_SolidSur

; 2777 : 		return 1;

	mov	eax, 1
	jmp	$LN1@R_SolidSur
$LN2@R_SolidSur:

; 2778 : 
; 2779 : 	if( esrf1->shaderNum[0] < esrf2->shaderNum[0] )

	mov	eax, 2
	imul	ecx, eax, 0
	mov	edx, DWORD PTR _esrf1$[ebp]
	movzx	eax, WORD PTR [edx+ecx+166]
	mov	ecx, 2
	imul	edx, ecx, 0
	mov	ecx, DWORD PTR _esrf2$[ebp]
	movzx	edx, WORD PTR [ecx+edx+166]
	cmp	eax, edx
	jge	SHORT $LN3@R_SolidSur

; 2780 : 		return -1;

	or	eax, -1
	jmp	SHORT $LN1@R_SolidSur
$LN3@R_SolidSur:

; 2781 : 
; 2782 : 	// 2. texture number
; 2783 : 	if( tx1->gl_texturenum > tx2->gl_texturenum )

	mov	eax, DWORD PTR _tx1$[ebp]
	mov	ecx, DWORD PTR _tx2$[ebp]
	mov	edx, DWORD PTR [eax+24]
	cmp	edx, DWORD PTR [ecx+24]
	jle	SHORT $LN4@R_SolidSur

; 2784 : 		return 1;

	mov	eax, 1
	jmp	SHORT $LN1@R_SolidSur
$LN4@R_SolidSur:

; 2785 : 
; 2786 : 	if( tx1->gl_texturenum < tx2->gl_texturenum )

	mov	eax, DWORD PTR _tx1$[ebp]
	mov	ecx, DWORD PTR _tx2$[ebp]
	mov	edx, DWORD PTR [eax+24]
	cmp	edx, DWORD PTR [ecx+24]
	jge	SHORT $LN5@R_SolidSur

; 2787 : 		return -1;

	or	eax, -1
	jmp	SHORT $LN1@R_SolidSur
$LN5@R_SolidSur:

; 2788 : 
; 2789 : 	// 3. lightmap texture number
; 2790 : 	if( esrf1->lightmaptexturenum > esrf2->lightmaptexturenum )

	mov	eax, DWORD PTR _esrf1$[ebp]
	movzx	ecx, WORD PTR [eax+164]
	mov	edx, DWORD PTR _esrf2$[ebp]
	movzx	eax, WORD PTR [edx+164]
	cmp	ecx, eax
	jle	SHORT $LN6@R_SolidSur

; 2791 : 		return 1;

	mov	eax, 1
	jmp	SHORT $LN1@R_SolidSur
$LN6@R_SolidSur:

; 2792 : 
; 2793 : 	if( esrf1->lightmaptexturenum < esrf2->lightmaptexturenum )

	mov	eax, DWORD PTR _esrf1$[ebp]
	movzx	ecx, WORD PTR [eax+164]
	mov	edx, DWORD PTR _esrf2$[ebp]
	movzx	eax, WORD PTR [edx+164]
	cmp	ecx, eax
	jge	SHORT $LN7@R_SolidSur

; 2794 : 		return -1;

	or	eax, -1
	jmp	SHORT $LN1@R_SolidSur
$LN7@R_SolidSur:

; 2795 : 
; 2796 : 	return 0;

	xor	eax, eax
$LN1@R_SolidSur:

; 2797 : }

	pop	edi
	pop	esi
	pop	ebx
	mov	esp, ebp
	pop	ebp
	ret	0
?R_SolidSurfaceCompare@@YAHPBUgl_bmodelface_t@@0@Z ENDP	; R_SolidSurfaceCompare
_TEXT	ENDS
; Function compile flags: /Odtp /ZI
; File d:\!diffusion 2020\source code 2022\client-server\client\render\r_world.cpp
;	COMDAT ?R_DrawBrushList@@YAXXZ
_TEXT	SEGMENT
tv1529 = -288						; size = 4
tv849 = -288						; size = 4
tv834 = -288						; size = 4
tv1033 = -285						; size = 1
tv705 = -285						; size = 1
_g$1 = -216						; size = 4
_r$2 = -212						; size = 4
_origin$3 = -208					; size = 24
_maxs$4 = -184						; size = 24
_mins$5 = -160						; size = 24
_brushbounds$6 = -136					; size = 4
_handle$7 = -132					; size = 4
_waveHeight$8 = -128					; size = 4
_yScale$9 = -124					; size = 4
_xScale$10 = -120					; size = 4
_land$11 = -116						; size = 4
_tx$12 = -112						; size = 4
_y2$13 = -108						; size = 4
_h$14 = -104						; size = 4
_w$15 = -100						; size = 4
_y$16 = -96						; size = 4
_x$17 = -92						; size = 4
_absmax$18 = -88					; size = 12
_absmin$19 = -76					; size = 12
_glm$20 = -64						; size = 4
_s$21 = -60						; size = 4
_es$22 = -56						; size = 4
_entry$23 = -52						; size = 4
_i$ = -48						; size = 4
_cached_cubemap$ = -44					; size = 8
_endv$ = -36						; size = 4
_startv$ = -32						; size = 4
_cached_texofs$ = -28					; size = 8
_e$ = -20						; size = 4
_flush_buffer$ = -16					; size = 4
_cached_texture$ = -12					; size = 4
_cached_lightmap$ = -8					; size = 4
_cached_mirror$ = -4					; size = 4
?R_DrawBrushList@@YAXXZ PROC				; R_DrawBrushList, COMDAT

; 2405 : {

	push	ebp
	mov	ebp, esp
	sub	esp, 288				; 00000120H
	push	ebx
	push	esi
	push	edi

; 2406 : 	int		cached_mirror = -1;

	mov	DWORD PTR _cached_mirror$[ebp], -1

; 2407 : 	int		cached_lightmap = -1;

	mov	DWORD PTR _cached_lightmap$[ebp], -1

; 2408 : 	int		cached_texture = -1;

	mov	DWORD PTR _cached_texture$[ebp], -1

; 2409 : 	qboolean		flush_buffer = false;

	mov	DWORD PTR _flush_buffer$[ebp], 0

; 2410 : 	cl_entity_t *e = RI->currententity;

	mov	eax, DWORD PTR ?RI@@3PAUref_instance_t@@A ; RI
	mov	ecx, DWORD PTR [eax+16]
	mov	DWORD PTR _e$[ebp], ecx

; 2411 : 	float		cached_texofs[2] = { -1.0f, -1.0f };

	movss	xmm0, DWORD PTR __real@bf800000
	movss	DWORD PTR _cached_texofs$[ebp], xmm0
	movss	xmm0, DWORD PTR __real@bf800000
	movss	DWORD PTR _cached_texofs$[ebp+4], xmm0

; 2412 : 	int		startv, endv;
; 2413 : 	mcubemap_t *cached_cubemap[2];
; 2414 : 
; 2415 : 	if( !tr.num_draw_surfaces )

	cmp	DWORD PTR ?tr@@3Uref_globals_t@@A+5289972, 0
	jne	SHORT $LN8@R_DrawBrus

; 2416 : 		return;

	jmp	$LN1@R_DrawBrus
$LN8@R_DrawBrus:

; 2417 : 
; 2418 : 	RI->currentmodel = e->model;

	mov	eax, DWORD PTR ?RI@@3PAUref_instance_t@@A ; RI
	mov	ecx, DWORD PTR _e$[ebp]
	mov	edx, DWORD PTR [ecx+2964]
	mov	DWORD PTR [eax+20], edx

; 2419 : 	R_LoadIdentity();

	call	?R_LoadIdentity@@YAXXZ			; R_LoadIdentity

; 2420 : 	startv = MAX_MAP_ELEMS;

	mov	DWORD PTR _startv$[ebp], 327675		; 0004fffbH

; 2421 : 	numTempElems = 0;

	mov	DWORD PTR ?numTempElems@@3IA, 0

; 2422 : 	endv = 0;

	mov	DWORD PTR _endv$[ebp], 0

; 2423 : 
; 2424 : 	// diffusioncubemaps
; 2425 : 	if( GL_Support( R_SEAMLESS_CUBEMAP ) )

	push	23					; 00000017H
	call	?GL_Support@@YA_NH@Z			; GL_Support
	add	esp, 4
	movzx	eax, al
	test	eax, eax
	je	SHORT $LN9@R_DrawBrus

; 2426 : 		pglEnable( GL_TEXTURE_CUBE_MAP_SEAMLESS );

	push	34895					; 0000884fH
	call	DWORD PTR ?pglEnable@@3P6GXI@ZA		; pglEnable
$LN9@R_DrawBrus:

; 2427 : 
; 2428 : 	pglBindVertexArray( world->vertex_array_object );

	mov	eax, DWORD PTR ?world@@3PAUgl_world_t@@A ; world
	mov	ecx, DWORD PTR [eax+128]
	push	ecx
	call	DWORD PTR ?pglBindVertexArray@@3P6GXI@ZA ; pglBindVertexArray

; 2429 : 	r_stats.c_world_polys += tr.num_draw_surfaces;

	mov	eax, DWORD PTR ?r_stats@@3Uref_stats_t@@A
	add	eax, DWORD PTR ?tr@@3Uref_globals_t@@A+5289972
	mov	DWORD PTR ?r_stats@@3Uref_stats_t@@A, eax

; 2430 : 
; 2431 : 	// diffusioncubemaps
; 2432 : 	cached_cubemap[0] = &world->defaultCubemap;

	mov	eax, DWORD PTR ?world@@3PAUgl_world_t@@A ; world
	add	eax, 114864				; 0001c0b0H
	mov	ecx, 4
	imul	edx, ecx, 0
	mov	DWORD PTR _cached_cubemap$[ebp+edx], eax

; 2433 : 	cached_cubemap[1] = &world->defaultCubemap;

	mov	eax, DWORD PTR ?world@@3PAUgl_world_t@@A ; world
	add	eax, 114864				; 0001c0b0H
	mov	ecx, 4
	shl	ecx, 0
	mov	DWORD PTR _cached_cubemap$[ebp+ecx], eax

; 2434 : 
; 2435 : 	int i;
; 2436 : 	for( i = 0; i < tr.num_draw_surfaces; i++ )

	mov	DWORD PTR _i$[ebp], 0
	jmp	SHORT $LN4@R_DrawBrus
$LN2@R_DrawBrus:
	mov	eax, DWORD PTR _i$[ebp]
	add	eax, 1
	mov	DWORD PTR _i$[ebp], eax
$LN4@R_DrawBrus:
	mov	eax, DWORD PTR _i$[ebp]
	cmp	eax, DWORD PTR ?tr@@3Uref_globals_t@@A+5289972
	jge	$LN3@R_DrawBrus

; 2437 : 	{
; 2438 : 		gl_bmodelface_t *entry = &tr.draw_surfaces[i];

	mov	eax, DWORD PTR _i$[ebp]
	lea	ecx, DWORD PTR ?tr@@3Uref_globals_t@@A[eax*8+4765692]
	mov	DWORD PTR _entry$23[ebp], ecx

; 2439 : 		mextrasurf_t *es = entry->surface->info;

	mov	eax, DWORD PTR _entry$23[ebp]
	mov	ecx, DWORD PTR [eax]
	mov	edx, DWORD PTR [ecx+80]
	mov	DWORD PTR _es$22[ebp], edx

; 2440 : 		msurface_t *s = entry->surface;

	mov	eax, DWORD PTR _entry$23[ebp]
	mov	ecx, DWORD PTR [eax]
	mov	DWORD PTR _s$21[ebp], ecx

; 2441 : 
; 2442 : 		if( !entry->hProgram ) continue;

	mov	eax, DWORD PTR _entry$23[ebp]
	movzx	ecx, WORD PTR [eax+4]
	test	ecx, ecx
	jne	SHORT $LN10@R_DrawBrus
	jmp	SHORT $LN2@R_DrawBrus
$LN10@R_DrawBrus:

; 2443 : 
; 2444 : 		if( (i == 0) || (RI->currentshader != &glsl_programs[entry->hProgram]) )

	cmp	DWORD PTR _i$[ebp], 0
	je	SHORT $LN12@R_DrawBrus
	mov	eax, DWORD PTR _entry$23[ebp]
	movzx	ecx, WORD PTR [eax+4]
	imul	edx, ecx, 972
	add	edx, OFFSET ?glsl_programs@@3PAUglsl_prog_s@@A ; glsl_programs
	mov	eax, DWORD PTR ?RI@@3PAUref_instance_t@@A ; RI
	cmp	DWORD PTR [eax+28], edx
	je	SHORT $LN11@R_DrawBrus
$LN12@R_DrawBrus:

; 2445 : 			flush_buffer = true;

	mov	DWORD PTR _flush_buffer$[ebp], 1
$LN11@R_DrawBrus:

; 2446 : 
; 2447 : 		if( cached_lightmap != es->lightmaptexturenum )

	mov	eax, DWORD PTR _es$22[ebp]
	movzx	ecx, WORD PTR [eax+164]
	cmp	DWORD PTR _cached_lightmap$[ebp], ecx
	je	SHORT $LN13@R_DrawBrus

; 2448 : 			flush_buffer = true;

	mov	DWORD PTR _flush_buffer$[ebp], 1
$LN13@R_DrawBrus:

; 2449 : 
; 2450 : 		if( cached_mirror != es->subtexture[glState.stack_position] )

	mov	eax, DWORD PTR ?glState@@3UglState_t@@A+112296
	mov	ecx, DWORD PTR _es$22[ebp]
	movsx	edx, WORD PTR [ecx+eax*2+222]
	cmp	DWORD PTR _cached_mirror$[ebp], edx
	je	SHORT $LN14@R_DrawBrus

; 2451 : 			flush_buffer = true;

	mov	DWORD PTR _flush_buffer$[ebp], 1
$LN14@R_DrawBrus:

; 2452 : 
; 2453 : 		if( cached_texture != es->gl_texturenum )

	mov	eax, DWORD PTR _es$22[ebp]
	movzx	ecx, WORD PTR [eax+238]
	cmp	DWORD PTR _cached_texture$[ebp], ecx
	je	SHORT $LN15@R_DrawBrus

; 2454 : 			flush_buffer = true;

	mov	DWORD PTR _flush_buffer$[ebp], 1
$LN15@R_DrawBrus:

; 2455 : 
; 2456 : 		if( cached_texofs[0] != es->texofs[0] || cached_texofs[1] != es->texofs[1] )

	mov	eax, 4
	imul	ecx, eax, 0
	mov	edx, 4
	imul	eax, edx, 0
	mov	edx, DWORD PTR _es$22[ebp]
	movss	xmm0, DWORD PTR _cached_texofs$[ebp+ecx]
	ucomiss	xmm0, DWORD PTR [edx+eax+192]
	lahf
	test	ah, 68					; 00000044H
	jp	SHORT $LN17@R_DrawBrus
	mov	eax, 4
	shl	eax, 0
	mov	ecx, 4
	shl	ecx, 0
	mov	edx, DWORD PTR _es$22[ebp]
	movss	xmm0, DWORD PTR _cached_texofs$[ebp+eax]
	ucomiss	xmm0, DWORD PTR [edx+ecx+192]
	lahf
	test	ah, 68					; 00000044H
	jnp	SHORT $LN16@R_DrawBrus
$LN17@R_DrawBrus:

; 2457 : 			flush_buffer = true;

	mov	DWORD PTR _flush_buffer$[ebp], 1
$LN16@R_DrawBrus:

; 2458 : 
; 2459 : 		// diffusioncubemaps
; 2460 : 		if( cached_cubemap[0] != es->cubemap[0] || cached_cubemap[1] != es->cubemap[1] )

	mov	eax, 4
	imul	ecx, eax, 0
	mov	edx, 4
	imul	eax, edx, 0
	mov	edx, DWORD PTR _es$22[ebp]
	mov	ecx, DWORD PTR _cached_cubemap$[ebp+ecx]
	cmp	ecx, DWORD PTR [edx+eax+200]
	jne	SHORT $LN19@R_DrawBrus
	mov	eax, 4
	shl	eax, 0
	mov	ecx, 4
	shl	ecx, 0
	mov	edx, DWORD PTR _es$22[ebp]
	mov	eax, DWORD PTR _cached_cubemap$[ebp+eax]
	cmp	eax, DWORD PTR [edx+ecx+200]
	je	SHORT $LN18@R_DrawBrus
$LN19@R_DrawBrus:

; 2461 : 			flush_buffer = true;

	mov	DWORD PTR _flush_buffer$[ebp], 1
$LN18@R_DrawBrus:

; 2462 : 
; 2463 : 		if( flush_buffer )

	cmp	DWORD PTR _flush_buffer$[ebp], 0
	je	SHORT $LN20@R_DrawBrus

; 2464 : 		{
; 2465 : 			if( numTempElems )

	cmp	DWORD PTR ?numTempElems@@3IA, 0
	je	SHORT $LN21@R_DrawBrus

; 2466 : 			{
; 2467 : 				pglDrawRangeElementsEXT( GL_TRIANGLES, startv, endv - 1, numTempElems, GL_UNSIGNED_INT, tempElems );

	push	OFFSET ?tempElems@@3PAIA
	push	5125					; 00001405H
	mov	eax, DWORD PTR ?numTempElems@@3IA
	push	eax
	mov	ecx, DWORD PTR _endv$[ebp]
	sub	ecx, 1
	push	ecx
	mov	edx, DWORD PTR _startv$[ebp]
	push	edx
	push	4
	call	DWORD PTR ?pglDrawRangeElementsEXT@@3P6GXIIIHIPBX@ZA ; pglDrawRangeElementsEXT

; 2468 : 				r_stats.c_total_tris += (numTempElems / 3);

	mov	eax, DWORD PTR ?numTempElems@@3IA
	xor	edx, edx
	mov	ecx, 3
	div	ecx
	add	eax, DWORD PTR ?r_stats@@3Uref_stats_t@@A+60
	mov	DWORD PTR ?r_stats@@3Uref_stats_t@@A+60, eax

; 2469 : 				r_stats.num_flushes++;

	mov	eax, DWORD PTR ?r_stats@@3Uref_stats_t@@A+88
	add	eax, 1
	mov	DWORD PTR ?r_stats@@3Uref_stats_t@@A+88, eax

; 2470 : 				startv = MAX_MAP_ELEMS;

	mov	DWORD PTR _startv$[ebp], 327675		; 0004fffbH

; 2471 : 				numTempElems = 0;

	mov	DWORD PTR ?numTempElems@@3IA, 0

; 2472 : 				endv = 0;

	mov	DWORD PTR _endv$[ebp], 0
$LN21@R_DrawBrus:

; 2473 : 			}
; 2474 : 			flush_buffer = false;

	mov	DWORD PTR _flush_buffer$[ebp], 0
$LN20@R_DrawBrus:

; 2475 : 		}
; 2476 : 
; 2477 : 		// begin draw the sorted list
; 2478 : 		if( (i == 0) || (RI->currentshader != &glsl_programs[entry->hProgram]) )

	cmp	DWORD PTR _i$[ebp], 0
	je	SHORT $LN23@R_DrawBrus
	mov	eax, DWORD PTR _entry$23[ebp]
	movzx	ecx, WORD PTR [eax+4]
	imul	edx, ecx, 972
	add	edx, OFFSET ?glsl_programs@@3PAUglsl_prog_s@@A ; glsl_programs
	mov	eax, DWORD PTR ?RI@@3PAUref_instance_t@@A ; RI
	cmp	DWORD PTR [eax+28], edx
	je	$LN22@R_DrawBrus
$LN23@R_DrawBrus:

; 2479 : 		{
; 2480 : 			GL_BindShader( &glsl_programs[entry->hProgram] );

	mov	eax, DWORD PTR _entry$23[ebp]
	movzx	ecx, WORD PTR [eax+4]
	imul	edx, ecx, 972
	add	edx, OFFSET ?glsl_programs@@3PAUglsl_prog_s@@A ; glsl_programs
	push	edx
	call	?GL_BindShader@@YAXPAUglsl_prog_s@@@Z	; GL_BindShader
	add	esp, 4

; 2481 : 
; 2482 : 			ASSERT( RI->currentshader != NULL );

	mov	eax, DWORD PTR ?RI@@3PAUref_instance_t@@A ; RI
	cmp	DWORD PTR [eax+28], 0
	jne	SHORT $LN24@R_DrawBrus
	mov	eax, DWORD PTR ?__LINE__Var@?0??R_DrawBrushList@@YAXXZ@4JA
	add	eax, 77					; 0000004dH
	push	eax
	push	OFFSET ??_C@_0EM@FJLGGOCA@d?3?2?$CBdiffusion?52020?2source?5code?52@
	push	OFFSET ??_C@_0BI@FECCGOFJ@assert?5failed?5at?5?$CFs?3?$CFi?6?$AA@
	call	DWORD PTR ?gRenderfuncs@@3Urender_api_s@@A+236
	add	esp, 12					; 0000000cH
$LN24@R_DrawBrus:

; 2483 : 
; 2484 : 			gl_state_t *glm = &tr.cached_state[e->hCachedMatrix];

	mov	eax, DWORD PTR _e$[ebp]
	movzx	ecx, WORD PTR [eax+2976]
	shl	ecx, 7
	add	ecx, OFFSET ?tr@@3Uref_globals_t@@A+6892
	mov	DWORD PTR _glm$20[ebp], ecx

; 2485 : 
; 2486 : 			// write constants
; 2487 : 			pglUniform1fvARB( RI->currentshader->u_LightStyleValues, MAX_LIGHTSTYLES, &tr.lightstyles[0] );

	mov	eax, 4
	imul	ecx, eax, 0
	add	ecx, OFFSET ?tr@@3Uref_globals_t@@A+531440
	push	ecx
	push	64					; 00000040H
	mov	edx, DWORD PTR ?RI@@3PAUref_instance_t@@A ; RI
	mov	eax, DWORD PTR [edx+28]
	mov	ecx, DWORD PTR [eax+768]
	push	ecx
	call	DWORD PTR ?pglUniform1fvARB@@3P6GXHHPBM@ZA ; pglUniform1fvARB

; 2488 : 			pglUniform4fARB( RI->currentshader->u_FogParams, tr.fogColor[0], tr.fogColor[1], tr.fogColor[2], tr.fogDensity );

	push	ecx
	movss	xmm0, DWORD PTR ?tr@@3Uref_globals_t@@A+5830908
	movss	DWORD PTR [esp], xmm0
	mov	ecx, OFFSET ?tr@@3Uref_globals_t@@A+5830896
	call	??BVector@@QAEPAMXZ			; Vector::operator float *
	mov	ecx, 4
	shl	ecx, 1
	push	ecx
	movss	xmm0, DWORD PTR [eax+ecx]
	movss	DWORD PTR [esp], xmm0
	mov	ecx, OFFSET ?tr@@3Uref_globals_t@@A+5830896
	call	??BVector@@QAEPAMXZ			; Vector::operator float *
	mov	edx, 4
	shl	edx, 0
	push	ecx
	movss	xmm0, DWORD PTR [eax+edx]
	movss	DWORD PTR [esp], xmm0
	mov	ecx, OFFSET ?tr@@3Uref_globals_t@@A+5830896
	call	??BVector@@QAEPAMXZ			; Vector::operator float *
	mov	ecx, 4
	imul	edx, ecx, 0
	push	ecx
	movss	xmm0, DWORD PTR [eax+edx]
	movss	DWORD PTR [esp], xmm0
	mov	eax, DWORD PTR ?RI@@3PAUref_instance_t@@A ; RI
	mov	ecx, DWORD PTR [eax+28]
	mov	edx, DWORD PTR [ecx+788]
	push	edx
	call	DWORD PTR ?pglUniform4fARB@@3P6GXHMMMM@ZA ; pglUniform4fARB

; 2489 : 			pglUniformMatrix4fvARB( RI->currentshader->u_ModelMatrix, 1, GL_FALSE, &glm->modelMatrix[0] );

	mov	eax, 4
	imul	ecx, eax, 0
	add	ecx, DWORD PTR _glm$20[ebp]
	push	ecx
	push	0
	push	1
	mov	edx, DWORD PTR ?RI@@3PAUref_instance_t@@A ; RI
	mov	eax, DWORD PTR [edx+28]
	mov	ecx, DWORD PTR [eax+688]
	push	ecx
	call	DWORD PTR ?pglUniformMatrix4fvARB@@3P6GXHHEPBM@ZA ; pglUniformMatrix4fvARB

; 2490 : 			pglUniform2fARB( RI->currentshader->u_ScreenSizeInv, 1.0f / (float)glState.width, 1.0f / (float)glState.height );

	cvtsi2ss xmm0, DWORD PTR ?glState@@3UglState_t@@A+4
	movss	xmm1, DWORD PTR __real@3f800000
	divss	xmm1, xmm0
	push	ecx
	movss	DWORD PTR [esp], xmm1
	cvtsi2ss xmm0, DWORD PTR ?glState@@3UglState_t@@A
	movss	xmm1, DWORD PTR __real@3f800000
	divss	xmm1, xmm0
	push	ecx
	movss	DWORD PTR [esp], xmm1
	mov	eax, DWORD PTR ?RI@@3PAUref_instance_t@@A ; RI
	mov	ecx, DWORD PTR [eax+28]
	mov	edx, DWORD PTR [ecx+724]
	push	edx
	call	DWORD PTR ?pglUniform2fARB@@3P6GXHMM@ZA	; pglUniform2fARB

; 2491 : 			pglUniform1fARB( RI->currentshader->u_zFar, -RI->farClip );

	mov	eax, DWORD PTR ?RI@@3PAUref_instance_t@@A ; RI
	movss	xmm0, DWORD PTR [eax+264]
	xorps	xmm0, DWORD PTR __xmm@80000000800000008000000080000000
	push	ecx
	movss	DWORD PTR [esp], xmm0
	mov	ecx, DWORD PTR ?RI@@3PAUref_instance_t@@A ; RI
	mov	edx, DWORD PTR [ecx+28]
	mov	eax, DWORD PTR [edx+728]
	push	eax
	call	DWORD PTR ?pglUniform1fARB@@3P6GXHM@ZA	; pglUniform1fARB

; 2492 : 		//	R_SetRenderColor( RI->currententity );
; 2493 : 
; 2494 : 			// reset cache
; 2495 : 			cached_texofs[0] = -1.0f;

	mov	eax, 4
	imul	ecx, eax, 0
	movss	xmm0, DWORD PTR __real@bf800000
	movss	DWORD PTR _cached_texofs$[ebp+ecx], xmm0

; 2496 : 			cached_texofs[1] = -1.0f;

	mov	eax, 4
	shl	eax, 0
	movss	xmm0, DWORD PTR __real@bf800000
	movss	DWORD PTR _cached_texofs$[ebp+eax], xmm0

; 2497 : 			cached_texture = NULL;

	mov	DWORD PTR _cached_texture$[ebp], 0

; 2498 : 			cached_lightmap = -1;

	mov	DWORD PTR _cached_lightmap$[ebp], -1

; 2499 : 			cached_mirror = -1;

	mov	DWORD PTR _cached_mirror$[ebp], -1

; 2500 : 
; 2501 : 			// diffusioncubemaps
; 2502 : 			cached_cubemap[0] = 0;

	mov	eax, 4
	imul	ecx, eax, 0
	mov	DWORD PTR _cached_cubemap$[ebp+ecx], 0

; 2503 : 			cached_cubemap[1] = 0;

	mov	eax, 4
	shl	eax, 0
	mov	DWORD PTR _cached_cubemap$[ebp+eax], 0
$LN22@R_DrawBrus:

; 2504 : 		}
; 2505 : 
; 2506 : 		if( ScreenCopyRequired( RI->currentshader ) )

	mov	eax, DWORD PTR ?RI@@3PAUref_instance_t@@A ; RI
	cmp	DWORD PTR [eax+28], 0
	je	$LN26@R_DrawBrus
	mov	eax, DWORD PTR ?RI@@3PAUref_instance_t@@A ; RI
	mov	ecx, DWORD PTR [eax+28]
	movzx	edx, WORD PTR [ecx+580]
	and	edx, 16					; 00000010H
	je	$LN26@R_DrawBrus

; 2507 : 		{
; 2508 : 			Vector	absmin = e->origin + es->mins;

	mov	eax, DWORD PTR _es$22[ebp]
	push	eax
	lea	ecx, DWORD PTR _absmin$19[ebp]
	push	ecx
	mov	ecx, DWORD PTR _e$[ebp]
	add	ecx, 2888				; 00000b48H
	call	??HVector@@QBE?AV0@ABV0@@Z		; Vector::operator+

; 2509 : 			Vector	absmax = e->origin + es->maxs;

	mov	eax, DWORD PTR _es$22[ebp]
	add	eax, 12					; 0000000cH
	push	eax
	lea	ecx, DWORD PTR _absmax$18[ebp]
	push	ecx
	mov	ecx, DWORD PTR _e$[ebp]
	add	ecx, 2888				; 00000b48H
	call	??HVector@@QBE?AV0@ABV0@@Z		; Vector::operator+

; 2510 : 			float	x, y, w, h;
; 2511 : 
; 2512 : 			if( R_ScissorForAABB( absmin, absmax, &x, &y, &w, &h ) )

	lea	eax, DWORD PTR _h$14[ebp]
	push	eax
	lea	ecx, DWORD PTR _w$15[ebp]
	push	ecx
	lea	edx, DWORD PTR _y$16[ebp]
	push	edx
	lea	eax, DWORD PTR _x$17[ebp]
	push	eax
	lea	ecx, DWORD PTR _absmax$18[ebp]
	push	ecx
	lea	edx, DWORD PTR _absmin$19[ebp]
	push	edx
	call	?R_ScissorForAABB@@YA_NABVVector@@0PAM111@Z ; R_ScissorForAABB
	add	esp, 24					; 00000018H
	movzx	eax, al
	test	eax, eax
	je	$LN26@R_DrawBrus

; 2513 : 			{
; 2514 : 				// keep screencopy an actual
; 2515 : 				float y2 = (float)RI->viewport[3] - h - y;

	mov	eax, 4
	imul	ecx, eax, 3
	mov	edx, DWORD PTR ?RI@@3PAUref_instance_t@@A ; RI
	cvtsi2ss xmm0, DWORD PTR [edx+ecx+32]
	subss	xmm0, DWORD PTR _h$14[ebp]
	subss	xmm0, DWORD PTR _y$16[ebp]
	movss	DWORD PTR _y2$13[ebp], xmm0

; 2516 : 				GL_Bind( GL_TEXTURE0, tr.screen_color );

	mov	eax, DWORD PTR ?tr@@3Uref_globals_t@@A+5732
	push	eax
	push	0
	call	DWORD PTR ?gRenderfuncs@@3Urender_api_s@@A+132
	add	esp, 8

; 2517 : 				pglCopyTexSubImage2D( GL_TEXTURE_2D, 0, x, y2, x, y2, w, h );

	cvttss2si eax, DWORD PTR _h$14[ebp]
	push	eax
	cvttss2si ecx, DWORD PTR _w$15[ebp]
	push	ecx
	cvttss2si edx, DWORD PTR _y2$13[ebp]
	push	edx
	cvttss2si eax, DWORD PTR _x$17[ebp]
	push	eax
	cvttss2si ecx, DWORD PTR _y2$13[ebp]
	push	ecx
	cvttss2si edx, DWORD PTR _x$17[ebp]
	push	edx
	push	0
	push	3553					; 00000de1H
	call	DWORD PTR ?pglCopyTexSubImage2D@@3P6GXIHHHHHHH@ZA ; pglCopyTexSubImage2D

; 2518 : 				r_stats.c_screen_copy++;

	mov	eax, DWORD PTR ?r_stats@@3Uref_stats_t@@A+76
	add	eax, 1
	mov	DWORD PTR ?r_stats@@3Uref_stats_t@@A+76, eax

; 2519 : 				cached_texture = NULL;

	mov	DWORD PTR _cached_texture$[ebp], 0

; 2520 : 				flush_buffer = true;

	mov	DWORD PTR _flush_buffer$[ebp], 1
$LN26@R_DrawBrus:

; 2521 : 			}
; 2522 : 		}
; 2523 : 
; 2524 : 		if( (cached_mirror != es->subtexture[glState.stack_position]) || (cached_texture != es->gl_texturenum) )

	mov	eax, DWORD PTR ?glState@@3UglState_t@@A+112296
	mov	ecx, DWORD PTR _es$22[ebp]
	movsx	edx, WORD PTR [ecx+eax*2+222]
	cmp	DWORD PTR _cached_mirror$[ebp], edx
	jne	SHORT $LN28@R_DrawBrus
	mov	eax, DWORD PTR _es$22[ebp]
	movzx	ecx, WORD PTR [eax+238]
	cmp	DWORD PTR _cached_texture$[ebp], ecx
	je	$LN27@R_DrawBrus
$LN28@R_DrawBrus:

; 2525 : 		{
; 2526 : 			mtexinfo_t *tx = s->texinfo;

	mov	eax, DWORD PTR _s$21[ebp]
	mov	ecx, DWORD PTR [eax+44]
	mov	DWORD PTR _tx$12[ebp], ecx

; 2527 : 			mfaceinfo_t *land = tx->faceinfo;

	mov	eax, DWORD PTR _tx$12[ebp]
	mov	ecx, DWORD PTR [eax+32]
	mov	DWORD PTR _land$11[ebp], ecx

; 2528 : 			float xScale, yScale, waveHeight;
; 2529 : 
; 2530 : 			// set the current waveheight
; 2531 : 			if( s->polys->verts[0][2] >= RI->vieworg[2] )

	mov	eax, DWORD PTR _s$21[ebp]
	mov	ecx, DWORD PTR [eax+36]
	mov	edx, 28					; 0000001cH
	imul	eax, edx, 0
	lea	esi, DWORD PTR [ecx+eax+16]
	mov	edi, 4
	shl	edi, 1
	mov	ecx, DWORD PTR ?RI@@3PAUref_instance_t@@A ; RI
	add	ecx, 204				; 000000ccH
	call	??BVector@@QAEPAMXZ			; Vector::operator float *
	mov	ecx, 4
	shl	ecx, 1
	movss	xmm0, DWORD PTR [esi+edi]
	comiss	xmm0, DWORD PTR [eax+ecx]
	jb	SHORT $LN29@R_DrawBrus

; 2532 : 				waveHeight = -RI->currententity->curstate.scale;

	mov	eax, DWORD PTR ?RI@@3PAUref_instance_t@@A ; RI
	mov	ecx, DWORD PTR [eax+16]
	movss	xmm0, DWORD PTR [ecx+752]
	xorps	xmm0, DWORD PTR __xmm@80000000800000008000000080000000
	movss	DWORD PTR _waveHeight$8[ebp], xmm0

; 2533 : 			else

	jmp	SHORT $LN30@R_DrawBrus
$LN29@R_DrawBrus:

; 2534 : 				waveHeight = RI->currententity->curstate.scale;

	mov	eax, DWORD PTR ?RI@@3PAUref_instance_t@@A ; RI
	mov	ecx, DWORD PTR [eax+16]
	movss	xmm0, DWORD PTR [ecx+752]
	movss	DWORD PTR _waveHeight$8[ebp], xmm0
$LN30@R_DrawBrus:

; 2535 : 
; 2536 : 			if( FBitSet( s->flags, SURF_REFLECT | SURF_PORTAL | SURF_SCREEN ) && es->subtexture[glState.stack_position] )

	mov	eax, DWORD PTR _s$21[ebp]
	mov	ecx, DWORD PTR [eax+8]
	and	ecx, -2147482112			; 80000600H
	je	$LN31@R_DrawBrus
	mov	eax, DWORD PTR ?glState@@3UglState_t@@A+112296
	mov	ecx, DWORD PTR _es$22[ebp]
	movsx	edx, WORD PTR [ecx+eax*2+222]
	test	edx, edx
	je	$LN31@R_DrawBrus

; 2537 : 			{
; 2538 : 				int handle = es->subtexture[glState.stack_position];

	mov	eax, DWORD PTR ?glState@@3UglState_t@@A+112296
	mov	ecx, DWORD PTR _es$22[ebp]
	movsx	edx, WORD PTR [ecx+eax*2+222]
	mov	DWORD PTR _handle$7[ebp], edx

; 2539 : 				GL_Bind( GL_TEXTURE0, tr.subviewTextures[handle - 1].texturenum ); // u_ColorMap

	mov	eax, DWORD PTR _handle$7[ebp]
	sub	eax, 1
	imul	ecx, eax, 76
	mov	edx, DWORD PTR ?tr@@3Uref_globals_t@@A[ecx+80]
	push	edx
	push	0
	call	DWORD PTR ?gRenderfuncs@@3Urender_api_s@@A+132
	add	esp, 8

; 2540 : 				GL_LoadTexMatrix( tr.subviewTextures[handle - 1].matrix );

	mov	eax, DWORD PTR _handle$7[ebp]
	sub	eax, 1
	imul	ecx, eax, 76
	add	ecx, OFFSET ?tr@@3Uref_globals_t@@A+88
	sub	esp, 64					; 00000040H
	mov	edx, esp
	push	ecx
	mov	ecx, edx
	call	??0matrix4x4@@QAE@ABV0@@Z
	call	?GL_LoadTexMatrix@@YAXVmatrix4x4@@@Z	; GL_LoadTexMatrix
	add	esp, 64					; 00000040H

; 2541 : 
; 2542 : 				if( FBitSet( s->flags, SURF_REFLECT ) )

	mov	eax, DWORD PTR _s$21[ebp]
	mov	ecx, DWORD PTR [eax+8]
	and	ecx, -2147483648			; 80000000H
	je	SHORT $LN33@R_DrawBrus

; 2543 : 					pglUniform1fARB( RI->currentshader->u_PlanarReflectScale, tr.materials[es->gl_texturenum].PlanarReflectScale );

	mov	eax, DWORD PTR _es$22[ebp]
	movzx	ecx, WORD PTR [eax+238]
	imul	edx, ecx, 196
	push	ecx
	movss	xmm0, DWORD PTR ?tr@@3Uref_globals_t@@A[edx+5885492]
	movss	DWORD PTR [esp], xmm0
	mov	eax, DWORD PTR ?RI@@3PAUref_instance_t@@A ; RI
	mov	ecx, DWORD PTR [eax+28]
	mov	edx, DWORD PTR [ecx+856]
	push	edx
	call	DWORD PTR ?pglUniform1fARB@@3P6GXHM@ZA	; pglUniform1fARB
$LN33@R_DrawBrus:

; 2544 : 			}
; 2545 : 			else

	jmp	SHORT $LN32@R_DrawBrus
$LN31@R_DrawBrus:

; 2546 : 			{
; 2547 : 				GL_Bind( GL_TEXTURE0, es->gl_texturenum );

	mov	eax, DWORD PTR _es$22[ebp]
	movzx	ecx, WORD PTR [eax+238]
	push	ecx
	push	0
	call	DWORD PTR ?gRenderfuncs@@3Urender_api_s@@A+132
	add	esp, 8

; 2548 : 				GL_LoadIdentityTexMatrix();

	call	DWORD PTR ?gRenderfuncs@@3Urender_api_s@@A+144
$LN32@R_DrawBrus:

; 2549 : 			}
; 2550 : 
; 2551 : 			GL_Bind( GL_TEXTURE1, es->dt_texturenum );

	mov	eax, DWORD PTR _es$22[ebp]
	movzx	ecx, WORD PTR [eax+240]
	push	ecx
	push	1
	call	DWORD PTR ?gRenderfuncs@@3Urender_api_s@@A+132
	add	esp, 8

; 2552 : 			GET_DETAIL_SCALE( es->gl_texturenum, &xScale, &yScale );

	lea	eax, DWORD PTR _yScale$9[ebp]
	push	eax
	lea	ecx, DWORD PTR _xScale$10[ebp]
	push	ecx
	mov	edx, DWORD PTR _es$22[ebp]
	movzx	eax, WORD PTR [edx+238]
	push	eax
	call	DWORD PTR ?gRenderfuncs@@3Urender_api_s@@A+4
	add	esp, 12					; 0000000cH

; 2553 : 			pglUniform3fARB( RI->currentshader->u_DetailScale, xScale, yScale, waveHeight );

	push	ecx
	movss	xmm0, DWORD PTR _waveHeight$8[ebp]
	movss	DWORD PTR [esp], xmm0
	push	ecx
	movss	xmm0, DWORD PTR _yScale$9[ebp]
	movss	DWORD PTR [esp], xmm0
	push	ecx
	movss	xmm0, DWORD PTR _xScale$10[ebp]
	movss	DWORD PTR [esp], xmm0
	mov	eax, DWORD PTR ?RI@@3PAUref_instance_t@@A ; RI
	mov	ecx, DWORD PTR [eax+28]
	mov	edx, DWORD PTR [ecx+840]
	push	edx
	call	DWORD PTR ?pglUniform3fARB@@3P6GXHMMM@ZA ; pglUniform3fARB

; 2554 : 			pglUniform3fARB( RI->currentshader->u_ViewOrigin, tr.cached_vieworigin.x, tr.cached_vieworigin.y, tr.cached_vieworigin.z );

	push	ecx
	movss	xmm0, DWORD PTR ?tr@@3Uref_globals_t@@A+5836108
	movss	DWORD PTR [esp], xmm0
	push	ecx
	movss	xmm0, DWORD PTR ?tr@@3Uref_globals_t@@A+5836104
	movss	DWORD PTR [esp], xmm0
	push	ecx
	movss	xmm0, DWORD PTR ?tr@@3Uref_globals_t@@A+5836100
	movss	DWORD PTR [esp], xmm0
	mov	eax, DWORD PTR ?RI@@3PAUref_instance_t@@A ; RI
	mov	ecx, DWORD PTR [eax+28]
	mov	edx, DWORD PTR [ecx+800]
	push	edx
	call	DWORD PTR ?pglUniform3fARB@@3P6GXHMMM@ZA ; pglUniform3fARB

; 2555 : 
; 2556 : 			if( FBitSet( s->flags, SURF_LANDSCAPE ) && land && land->terrain )

	mov	eax, DWORD PTR _s$21[ebp]
	mov	ecx, DWORD PTR [eax+8]
	and	ecx, 8192				; 00002000H
	je	$LN34@R_DrawBrus
	cmp	DWORD PTR _land$11[ebp], 0
	je	$LN34@R_DrawBrus
	mov	eax, DWORD PTR _land$11[ebp]
	cmp	DWORD PTR [eax+48], 0
	je	$LN34@R_DrawBrus

; 2557 : 			{
; 2558 : 				pglUniform1fvARB( RI->currentshader->u_GlossSmoothness, land->terrain->numLayers, &land->terrain->layermap.GlossSmoothness[0] );

	mov	eax, DWORD PTR _land$11[ebp]
	mov	ecx, DWORD PTR [eax+48]
	mov	edx, 4
	imul	eax, edx, 0
	lea	ecx, DWORD PTR [ecx+eax+2344]
	push	ecx
	mov	edx, DWORD PTR _land$11[ebp]
	mov	eax, DWORD PTR [edx+48]
	mov	ecx, DWORD PTR [eax+2472]
	push	ecx
	mov	edx, DWORD PTR ?RI@@3PAUref_instance_t@@A ; RI
	mov	eax, DWORD PTR [edx+28]
	mov	ecx, DWORD PTR [eax+920]
	push	ecx
	call	DWORD PTR ?pglUniform1fvARB@@3P6GXHHPBM@ZA ; pglUniform1fvARB

; 2559 : 				pglUniform1fvARB( RI->currentshader->u_GlossScale, land->terrain->numLayers, &land->terrain->layermap.GlossScale[0] );

	mov	eax, DWORD PTR _land$11[ebp]
	mov	ecx, DWORD PTR [eax+48]
	mov	edx, 4
	imul	eax, edx, 0
	lea	ecx, DWORD PTR [ecx+eax+2280]
	push	ecx
	mov	edx, DWORD PTR _land$11[ebp]
	mov	eax, DWORD PTR [edx+48]
	mov	ecx, DWORD PTR [eax+2472]
	push	ecx
	mov	edx, DWORD PTR ?RI@@3PAUref_instance_t@@A ; RI
	mov	eax, DWORD PTR [edx+28]
	mov	ecx, DWORD PTR [eax+916]
	push	ecx
	call	DWORD PTR ?pglUniform1fvARB@@3P6GXHHPBM@ZA ; pglUniform1fvARB

; 2560 : 				pglUniform1fvARB( RI->currentshader->u_EmbossScale, land->terrain->numLayers, &land->terrain->layermap.EmbossScale[0] );

	mov	eax, DWORD PTR _land$11[ebp]
	mov	ecx, DWORD PTR [eax+48]
	mov	edx, 4
	imul	eax, edx, 0
	lea	ecx, DWORD PTR [ecx+eax+2408]
	push	ecx
	mov	edx, DWORD PTR _land$11[ebp]
	mov	eax, DWORD PTR [edx+48]
	mov	ecx, DWORD PTR [eax+2472]
	push	ecx
	mov	edx, DWORD PTR ?RI@@3PAUref_instance_t@@A ; RI
	mov	eax, DWORD PTR [edx+28]
	mov	ecx, DWORD PTR [eax+924]
	push	ecx
	call	DWORD PTR ?pglUniform1fvARB@@3P6GXHHPBM@ZA ; pglUniform1fvARB

; 2561 : 				if( land->terrain->layermap.gl_normalmap_id > 0 )

	mov	eax, DWORD PTR _land$11[ebp]
	mov	ecx, DWORD PTR [eax+48]
	movzx	edx, WORD PTR [ecx+2212]
	test	edx, edx
	jle	SHORT $LN36@R_DrawBrus

; 2562 : 					GL_Bind( GL_TEXTURE6, land->terrain->layermap.gl_normalmap_id );

	mov	eax, DWORD PTR _land$11[ebp]
	mov	ecx, DWORD PTR [eax+48]
	movzx	edx, WORD PTR [ecx+2212]
	push	edx
	push	6
	call	DWORD PTR ?gRenderfuncs@@3Urender_api_s@@A+132
	add	esp, 8
$LN36@R_DrawBrus:

; 2563 : 			}
; 2564 : 			else

	jmp	$LN37@R_DrawBrus
$LN34@R_DrawBrus:

; 2565 : 			{
; 2566 : 				pglUniform1fARB( RI->currentshader->u_GlossSmoothness, tr.materials[s->texinfo->texture->gl_texturenum].GlossSmoothness );

	mov	eax, DWORD PTR _s$21[ebp]
	mov	ecx, DWORD PTR [eax+44]
	mov	edx, DWORD PTR [ecx+36]
	imul	eax, DWORD PTR [edx+24], 196
	push	ecx
	movss	xmm0, DWORD PTR ?tr@@3Uref_globals_t@@A[eax+5885480]
	movss	DWORD PTR [esp], xmm0
	mov	ecx, DWORD PTR ?RI@@3PAUref_instance_t@@A ; RI
	mov	edx, DWORD PTR [ecx+28]
	mov	eax, DWORD PTR [edx+920]
	push	eax
	call	DWORD PTR ?pglUniform1fARB@@3P6GXHM@ZA	; pglUniform1fARB

; 2567 : 				pglUniform1fARB( RI->currentshader->u_GlossScale, tr.materials[s->texinfo->texture->gl_texturenum].GlossScale );

	mov	eax, DWORD PTR _s$21[ebp]
	mov	ecx, DWORD PTR [eax+44]
	mov	edx, DWORD PTR [ecx+36]
	imul	eax, DWORD PTR [edx+24], 196
	push	ecx
	movss	xmm0, DWORD PTR ?tr@@3Uref_globals_t@@A[eax+5885476]
	movss	DWORD PTR [esp], xmm0
	mov	ecx, DWORD PTR ?RI@@3PAUref_instance_t@@A ; RI
	mov	edx, DWORD PTR [ecx+28]
	mov	eax, DWORD PTR [edx+916]
	push	eax
	call	DWORD PTR ?pglUniform1fARB@@3P6GXHM@ZA	; pglUniform1fARB

; 2568 : 				pglUniform1fARB( RI->currentshader->u_EmbossScale, tr.materials[s->texinfo->texture->gl_texturenum].EmbossScale );

	mov	eax, DWORD PTR _s$21[ebp]
	mov	ecx, DWORD PTR [eax+44]
	mov	edx, DWORD PTR [ecx+36]
	imul	eax, DWORD PTR [edx+24], 196
	push	ecx
	movss	xmm0, DWORD PTR ?tr@@3Uref_globals_t@@A[eax+5885484]
	movss	DWORD PTR [esp], xmm0
	mov	ecx, DWORD PTR ?RI@@3PAUref_instance_t@@A ; RI
	mov	edx, DWORD PTR [ecx+28]
	mov	eax, DWORD PTR [edx+924]
	push	eax
	call	DWORD PTR ?pglUniform1fARB@@3P6GXHM@ZA	; pglUniform1fARB

; 2569 : 
; 2570 : 				if( tr.materials[es->gl_texturenum].gl_normalmap_id > 0 )

	mov	eax, DWORD PTR _es$22[ebp]
	movzx	ecx, WORD PTR [eax+238]
	imul	edx, ecx, 196
	movzx	eax, WORD PTR ?tr@@3Uref_globals_t@@A[edx+5885528]
	test	eax, eax
	jle	SHORT $LN37@R_DrawBrus

; 2571 : 					GL_Bind( GL_TEXTURE6, tr.materials[es->gl_texturenum].gl_normalmap_id );

	mov	eax, DWORD PTR _es$22[ebp]
	movzx	ecx, WORD PTR [eax+238]
	imul	edx, ecx, 196
	movzx	eax, WORD PTR ?tr@@3Uref_globals_t@@A[edx+5885528]
	push	eax
	push	6
	call	DWORD PTR ?gRenderfuncs@@3Urender_api_s@@A+132
	add	esp, 8
$LN37@R_DrawBrus:

; 2572 : 			}
; 2573 : 
; 2574 : 			if( ScreenCopyRequired( RI->currentshader ) )

	mov	eax, DWORD PTR ?RI@@3PAUref_instance_t@@A ; RI
	cmp	DWORD PTR [eax+28], 0
	je	SHORT $LN38@R_DrawBrus
	mov	eax, DWORD PTR ?RI@@3PAUref_instance_t@@A ; RI
	mov	ecx, DWORD PTR [eax+28]
	movzx	edx, WORD PTR [ecx+580]
	and	edx, 16					; 00000010H
	je	SHORT $LN38@R_DrawBrus

; 2575 : 				GL_Bind( GL_TEXTURE3, tr.screen_color );

	mov	eax, DWORD PTR ?tr@@3Uref_globals_t@@A+5732
	push	eax
	push	3
	call	DWORD PTR ?gRenderfuncs@@3Urender_api_s@@A+132
	add	esp, 8
	jmp	SHORT $LN42@R_DrawBrus
$LN38@R_DrawBrus:

; 2576 : 			else if( FBitSet( s->flags, SURF_WATER ) && FBitSet( s->flags, SURF_REFLECT ) && (gl_water_planar->value > 0) )

	mov	eax, DWORD PTR _s$21[ebp]
	mov	ecx, DWORD PTR [eax+8]
	and	ecx, 16					; 00000010H
	je	SHORT $LN40@R_DrawBrus
	mov	eax, DWORD PTR _s$21[ebp]
	mov	ecx, DWORD PTR [eax+8]
	and	ecx, -2147483648			; 80000000H
	je	SHORT $LN40@R_DrawBrus
	mov	eax, DWORD PTR ?gl_water_planar@@3PAUcvar_s@@A ; gl_water_planar
	movss	xmm0, DWORD PTR [eax+12]
	comiss	xmm0, DWORD PTR __real@00000000
	jbe	SHORT $LN40@R_DrawBrus

; 2577 : 				GL_Bind( GL_TEXTURE11, es->gl_texturenum ); // u_ReflectMap - mix turbulency texture and reflection

	mov	eax, DWORD PTR _es$22[ebp]
	movzx	ecx, WORD PTR [eax+238]
	push	ecx
	push	11					; 0000000bH
	call	DWORD PTR ?gRenderfuncs@@3Urender_api_s@@A+132
	add	esp, 8
	jmp	SHORT $LN42@R_DrawBrus
$LN40@R_DrawBrus:

; 2578 : 			else if( !FBitSet( s->flags, SURF_WATER ) )

	mov	eax, DWORD PTR _s$21[ebp]
	mov	ecx, DWORD PTR [eax+8]
	and	ecx, 16					; 00000010H
	jne	SHORT $LN42@R_DrawBrus

; 2579 : 				GL_Bind( GL_TEXTURE3, tr.whiteTexture );

	mov	eax, DWORD PTR ?tr@@3Uref_globals_t@@A+32
	push	eax
	push	3
	call	DWORD PTR ?gRenderfuncs@@3Urender_api_s@@A+132
	add	esp, 8
$LN42@R_DrawBrus:

; 2580 : 
; 2581 : 			if( FBitSet( s->flags, SURF_LANDSCAPE ) && land && land->terrain )

	mov	eax, DWORD PTR _s$21[ebp]
	mov	ecx, DWORD PTR [eax+8]
	and	ecx, 8192				; 00002000H
	je	SHORT $LN43@R_DrawBrus
	cmp	DWORD PTR _land$11[ebp], 0
	je	SHORT $LN43@R_DrawBrus
	mov	eax, DWORD PTR _land$11[ebp]
	cmp	DWORD PTR [eax+48], 0
	je	SHORT $LN43@R_DrawBrus

; 2582 : 				GL_Bind( GL_TEXTURE4, land->terrain->indexmap.gl_heightmap_id );

	mov	eax, DWORD PTR _land$11[ebp]
	mov	ecx, DWORD PTR [eax+48]
	movzx	edx, WORD PTR [ecx+146]
	push	edx
	push	4
	call	DWORD PTR ?gRenderfuncs@@3Urender_api_s@@A+132
	add	esp, 8
$LN43@R_DrawBrus:

; 2583 : 
; 2584 : 			GL_Bind( GL_TEXTURE5, tx->texture->fb_texturenum );

	mov	eax, DWORD PTR _tx$12[ebp]
	mov	ecx, DWORD PTR [eax+36]
	movzx	edx, WORD PTR [ecx+52]
	push	edx
	push	5
	call	DWORD PTR ?gRenderfuncs@@3Urender_api_s@@A+132
	add	esp, 8

; 2585 : 
; 2586 : 			// diffusion - refracted water!!!
; 2587 : 			if( FBitSet( s->flags, SURF_WATER ) && (gl_water_refraction->value > 0) && (e->curstate.renderfx != kRenderFxNoRefraction) )

	mov	eax, DWORD PTR _s$21[ebp]
	mov	ecx, DWORD PTR [eax+8]
	and	ecx, 16					; 00000010H
	je	$LN44@R_DrawBrus
	mov	eax, DWORD PTR ?gl_water_refraction@@3PAUcvar_s@@A ; gl_water_refraction
	movss	xmm0, DWORD PTR [eax+12]
	comiss	xmm0, DWORD PTR __real@00000000
	jbe	$LN44@R_DrawBrus
	mov	eax, DWORD PTR _e$[ebp]
	cmp	DWORD PTR [eax+772], 28			; 0000001cH
	je	$LN44@R_DrawBrus

; 2588 : 			{
; 2589 : 				// request screen depth
; 2590 : 				GL_Bind( GL_TEXTURE7, tr.screen_depth ); // u_DepthMap

	mov	eax, DWORD PTR ?tr@@3Uref_globals_t@@A+5728
	push	eax
	push	7
	call	DWORD PTR ?gRenderfuncs@@3Urender_api_s@@A+132
	add	esp, 8

; 2591 : 				pglCopyTexSubImage2D( GL_TEXTURE_2D, 0, 0, 0, 0, 0, glState.width, glState.height );

	mov	eax, DWORD PTR ?glState@@3UglState_t@@A+4
	push	eax
	mov	ecx, DWORD PTR ?glState@@3UglState_t@@A
	push	ecx
	push	0
	push	0
	push	0
	push	0
	push	0
	push	3553					; 00000de1H
	call	DWORD PTR ?pglCopyTexSubImage2D@@3P6GXIHHHHHHH@ZA ; pglCopyTexSubImage2D

; 2592 : 
; 2593 : 				// request screen color
; 2594 : 				GL_Bind( GL_TEXTURE3, tr.screen_color ); // u_ScreenMap

	mov	eax, DWORD PTR ?tr@@3Uref_globals_t@@A+5732
	push	eax
	push	3
	call	DWORD PTR ?gRenderfuncs@@3Urender_api_s@@A+132
	add	esp, 8

; 2595 : 				pglCopyTexSubImage2D( GL_TEXTURE_2D, 0, 0, 0, 0, 0, glState.width, glState.height );

	mov	eax, DWORD PTR ?glState@@3UglState_t@@A+4
	push	eax
	mov	ecx, DWORD PTR ?glState@@3UglState_t@@A
	push	ecx
	push	0
	push	0
	push	0
	push	0
	push	0
	push	3553					; 00000de1H
	call	DWORD PTR ?pglCopyTexSubImage2D@@3P6GXIHHHHHHH@ZA ; pglCopyTexSubImage2D

; 2596 : 
; 2597 : 				GL_Bind( GL_TEXTURE6, tr.waterTextures[(int)(tr.time * 20.0f) % WATER_TEXTURES] ); // u_NormalMap

	movsd	xmm0, QWORD PTR ?tr@@3Uref_globals_t@@A+8
	mulsd	xmm0, QWORD PTR __real@4034000000000000
	cvttsd2si eax, xmm0
	cdq
	mov	ecx, 29					; 0000001dH
	idiv	ecx
	mov	edx, DWORD PTR ?tr@@3Uref_globals_t@@A[edx*4+5748]
	push	edx
	push	6
	call	DWORD PTR ?gRenderfuncs@@3Urender_api_s@@A+132
	add	esp, 8

; 2598 : 
; 2599 : 				float brushbounds = 2.0f * RadiusFromBounds( e->curstate.mins, e->curstate.maxs );

	mov	eax, DWORD PTR _e$[ebp]
	add	eax, 824				; 00000338H
	push	eax
	mov	ecx, DWORD PTR _e$[ebp]
	add	ecx, 812				; 0000032cH
	push	ecx
	call	?RadiusFromBounds@@YAMABVVector@@0@Z	; RadiusFromBounds
	add	esp, 8
	fstp	DWORD PTR tv1529[ebp]
	movss	xmm0, DWORD PTR tv1529[ebp]
	mulss	xmm0, DWORD PTR __real@40000000
	movss	DWORD PTR _brushbounds$6[ebp], xmm0

; 2600 : 				pglUniform1fARB( RI->currentshader->u_zFar, -brushbounds );

	movss	xmm0, DWORD PTR _brushbounds$6[ebp]
	xorps	xmm0, DWORD PTR __xmm@80000000800000008000000080000000
	push	ecx
	movss	DWORD PTR [esp], xmm0
	mov	eax, DWORD PTR ?RI@@3PAUref_instance_t@@A ; RI
	mov	ecx, DWORD PTR [eax+28]
	mov	edx, DWORD PTR [ecx+728]
	push	edx
	call	DWORD PTR ?pglUniform1fARB@@3P6GXHM@ZA	; pglUniform1fARB
$LN44@R_DrawBrus:

; 2601 : 			}
; 2602 : 
; 2603 : 			if( !RP_CUBEPASS() && (world->rebuilding_cubemaps == CMREBUILD_INACTIVE) && (tr.materials[es->gl_texturenum].ReflectScale > 0.01f) && CVAR_TO_BOOL( gl_cubemaps ) && (world->num_cubemaps > 0) ) // diffusioncubemaps

	mov	eax, DWORD PTR ?RI@@3PAUref_instance_t@@A ; RI
	mov	ecx, DWORD PTR [eax]
	and	ecx, 2
	jne	$LN45@R_DrawBrus
	mov	eax, DWORD PTR ?world@@3PAUgl_world_t@@A ; world
	cmp	DWORD PTR [eax+168], 0
	jne	$LN45@R_DrawBrus
	mov	eax, DWORD PTR _es$22[ebp]
	movzx	ecx, WORD PTR [eax+238]
	imul	edx, ecx, 196
	movss	xmm0, DWORD PTR ?tr@@3Uref_globals_t@@A[edx+5885488]
	comiss	xmm0, DWORD PTR __real@3c23d70a
	jbe	$LN45@R_DrawBrus
	cmp	DWORD PTR ?gl_cubemaps@@3PAUcvar_s@@A, 0 ; gl_cubemaps
	je	SHORT $LN75@R_DrawBrus
	mov	eax, DWORD PTR ?gl_cubemaps@@3PAUcvar_s@@A ; gl_cubemaps
	movss	xmm0, DWORD PTR [eax+12]
	ucomiss	xmm0, DWORD PTR __real@00000000
	lahf
	test	ah, 68					; 00000044H
	jnp	SHORT $LN75@R_DrawBrus
	mov	BYTE PTR tv705[ebp], 1
	jmp	SHORT $LN76@R_DrawBrus
$LN75@R_DrawBrus:
	mov	BYTE PTR tv705[ebp], 0
$LN76@R_DrawBrus:
	movzx	ecx, BYTE PTR tv705[ebp]
	test	ecx, ecx
	je	$LN45@R_DrawBrus
	mov	eax, DWORD PTR ?world@@3PAUgl_world_t@@A ; world
	cmp	DWORD PTR [eax+114976], 0
	jle	$LN45@R_DrawBrus

; 2604 : 			{
; 2605 : 				if( es->cubemap[0] != NULL )

	mov	eax, 4
	imul	ecx, eax, 0
	mov	edx, DWORD PTR _es$22[ebp]
	cmp	DWORD PTR [edx+ecx+200], 0
	je	SHORT $LN46@R_DrawBrus

; 2606 : 					GL_Bind( GL_TEXTURE9, es->cubemap[0]->texture );

	mov	eax, 4
	imul	ecx, eax, 0
	mov	edx, DWORD PTR _es$22[ebp]
	mov	eax, DWORD PTR [edx+ecx+200]
	mov	ecx, DWORD PTR [eax+64]
	push	ecx
	push	9
	call	DWORD PTR ?gRenderfuncs@@3Urender_api_s@@A+132
	add	esp, 8

; 2607 : 				else

	jmp	SHORT $LN47@R_DrawBrus
$LN46@R_DrawBrus:

; 2608 : 					GL_Bind( GL_TEXTURE9, tr.whiteCubeTexture );

	mov	eax, DWORD PTR ?tr@@3Uref_globals_t@@A+5724
	push	eax
	push	9
	call	DWORD PTR ?gRenderfuncs@@3Urender_api_s@@A+132
	add	esp, 8
$LN47@R_DrawBrus:

; 2609 : 
; 2610 : 				if( es->cubemap[1] != NULL )

	mov	eax, 4
	shl	eax, 0
	mov	ecx, DWORD PTR _es$22[ebp]
	cmp	DWORD PTR [ecx+eax+200], 0
	je	SHORT $LN48@R_DrawBrus

; 2611 : 					GL_Bind( GL_TEXTURE10, es->cubemap[1]->texture );

	mov	eax, 4
	shl	eax, 0
	mov	ecx, DWORD PTR _es$22[ebp]
	mov	edx, DWORD PTR [ecx+eax+200]
	mov	eax, DWORD PTR [edx+64]
	push	eax
	push	10					; 0000000aH
	call	DWORD PTR ?gRenderfuncs@@3Urender_api_s@@A+132
	add	esp, 8

; 2612 : 				else

	jmp	SHORT $LN49@R_DrawBrus
$LN48@R_DrawBrus:

; 2613 : 					GL_Bind( GL_TEXTURE10, tr.whiteCubeTexture );

	mov	eax, DWORD PTR ?tr@@3Uref_globals_t@@A+5724
	push	eax
	push	10					; 0000000aH
	call	DWORD PTR ?gRenderfuncs@@3Urender_api_s@@A+132
	add	esp, 8
$LN49@R_DrawBrus:

; 2614 : 
; 2615 : 				Vector mins[2];

	push	OFFSET ??0Vector@@QAE@XZ		; Vector::Vector
	push	2
	push	12					; 0000000cH
	lea	eax, DWORD PTR _mins$5[ebp]
	push	eax
	call	??_H@YGXPAXIIP6EPAX0@Z@Z

; 2616 : 				mins[0] = es->cubemap[0]->mins;

	mov	eax, 4
	imul	ecx, eax, 0
	mov	edx, DWORD PTR _es$22[ebp]
	mov	eax, DWORD PTR [edx+ecx+200]
	add	eax, 68					; 00000044H
	mov	ecx, 12					; 0000000cH
	imul	edx, ecx, 0
	lea	ecx, DWORD PTR _mins$5[ebp+edx]
	mov	edx, DWORD PTR [eax]
	mov	DWORD PTR [ecx], edx
	mov	edx, DWORD PTR [eax+4]
	mov	DWORD PTR [ecx+4], edx
	mov	eax, DWORD PTR [eax+8]
	mov	DWORD PTR [ecx+8], eax

; 2617 : 				mins[1] = es->cubemap[1]->mins;

	mov	eax, 4
	shl	eax, 0
	mov	ecx, DWORD PTR _es$22[ebp]
	mov	edx, DWORD PTR [ecx+eax+200]
	add	edx, 68					; 00000044H
	mov	eax, 12					; 0000000cH
	shl	eax, 0
	lea	ecx, DWORD PTR _mins$5[ebp+eax]
	mov	eax, DWORD PTR [edx]
	mov	DWORD PTR [ecx], eax
	mov	eax, DWORD PTR [edx+4]
	mov	DWORD PTR [ecx+4], eax
	mov	edx, DWORD PTR [edx+8]
	mov	DWORD PTR [ecx+8], edx

; 2618 : 				pglUniform3fvARB( RI->currentshader->u_BoxMins, 2, &mins[0][0] );

	mov	eax, 12					; 0000000cH
	imul	ecx, eax, 0
	lea	ecx, DWORD PTR _mins$5[ebp+ecx]
	call	??BVector@@QAEPAMXZ			; Vector::operator float *
	mov	edx, 4
	imul	ecx, edx, 0
	add	eax, ecx
	push	eax
	push	2
	mov	edx, DWORD PTR ?RI@@3PAUref_instance_t@@A ; RI
	mov	eax, DWORD PTR [edx+28]
	mov	ecx, DWORD PTR [eax+872]
	push	ecx
	call	DWORD PTR ?pglUniform3fvARB@@3P6GXHHPBM@ZA ; pglUniform3fvARB

; 2619 : 
; 2620 : 				Vector maxs[2];

	push	OFFSET ??0Vector@@QAE@XZ		; Vector::Vector
	push	2
	push	12					; 0000000cH
	lea	eax, DWORD PTR _maxs$4[ebp]
	push	eax
	call	??_H@YGXPAXIIP6EPAX0@Z@Z

; 2621 : 				maxs[0] = es->cubemap[0]->maxs;

	mov	eax, 4
	imul	ecx, eax, 0
	mov	edx, DWORD PTR _es$22[ebp]
	mov	eax, DWORD PTR [edx+ecx+200]
	add	eax, 80					; 00000050H
	mov	ecx, 12					; 0000000cH
	imul	edx, ecx, 0
	lea	ecx, DWORD PTR _maxs$4[ebp+edx]
	mov	edx, DWORD PTR [eax]
	mov	DWORD PTR [ecx], edx
	mov	edx, DWORD PTR [eax+4]
	mov	DWORD PTR [ecx+4], edx
	mov	eax, DWORD PTR [eax+8]
	mov	DWORD PTR [ecx+8], eax

; 2622 : 				maxs[1] = es->cubemap[1]->maxs;

	mov	eax, 4
	shl	eax, 0
	mov	ecx, DWORD PTR _es$22[ebp]
	mov	edx, DWORD PTR [ecx+eax+200]
	add	edx, 80					; 00000050H
	mov	eax, 12					; 0000000cH
	shl	eax, 0
	lea	ecx, DWORD PTR _maxs$4[ebp+eax]
	mov	eax, DWORD PTR [edx]
	mov	DWORD PTR [ecx], eax
	mov	eax, DWORD PTR [edx+4]
	mov	DWORD PTR [ecx+4], eax
	mov	edx, DWORD PTR [edx+8]
	mov	DWORD PTR [ecx+8], edx

; 2623 : 				pglUniform3fvARB( RI->currentshader->u_BoxMaxs, 2, &maxs[0][0] );

	mov	eax, 12					; 0000000cH
	imul	ecx, eax, 0
	lea	ecx, DWORD PTR _maxs$4[ebp+ecx]
	call	??BVector@@QAEPAMXZ			; Vector::operator float *
	mov	edx, 4
	imul	ecx, edx, 0
	add	eax, ecx
	push	eax
	push	2
	mov	edx, DWORD PTR ?RI@@3PAUref_instance_t@@A ; RI
	mov	eax, DWORD PTR [edx+28]
	mov	ecx, DWORD PTR [eax+876]
	push	ecx
	call	DWORD PTR ?pglUniform3fvARB@@3P6GXHHPBM@ZA ; pglUniform3fvARB

; 2624 : 
; 2625 : 				Vector origin[2];

	push	OFFSET ??0Vector@@QAE@XZ		; Vector::Vector
	push	2
	push	12					; 0000000cH
	lea	eax, DWORD PTR _origin$3[ebp]
	push	eax
	call	??_H@YGXPAXIIP6EPAX0@Z@Z

; 2626 : 				origin[0] = es->cubemap[0]->origin;

	mov	eax, 4
	imul	ecx, eax, 0
	mov	edx, DWORD PTR _es$22[ebp]
	mov	eax, DWORD PTR [edx+ecx+200]
	add	eax, 96					; 00000060H
	mov	ecx, 12					; 0000000cH
	imul	edx, ecx, 0
	lea	ecx, DWORD PTR _origin$3[ebp+edx]
	mov	edx, DWORD PTR [eax]
	mov	DWORD PTR [ecx], edx
	mov	edx, DWORD PTR [eax+4]
	mov	DWORD PTR [ecx+4], edx
	mov	eax, DWORD PTR [eax+8]
	mov	DWORD PTR [ecx+8], eax

; 2627 : 				origin[1] = es->cubemap[1]->origin;

	mov	eax, 4
	shl	eax, 0
	mov	ecx, DWORD PTR _es$22[ebp]
	mov	edx, DWORD PTR [ecx+eax+200]
	add	edx, 96					; 00000060H
	mov	eax, 12					; 0000000cH
	shl	eax, 0
	lea	ecx, DWORD PTR _origin$3[ebp+eax]
	mov	eax, DWORD PTR [edx]
	mov	DWORD PTR [ecx], eax
	mov	eax, DWORD PTR [edx+4]
	mov	DWORD PTR [ecx+4], eax
	mov	edx, DWORD PTR [edx+8]
	mov	DWORD PTR [ecx+8], edx

; 2628 : 				pglUniform3fvARB( RI->currentshader->u_CubeOrigin, 2, &origin[0][0] );

	mov	eax, 12					; 0000000cH
	imul	ecx, eax, 0
	lea	ecx, DWORD PTR _origin$3[ebp+ecx]
	call	??BVector@@QAEPAMXZ			; Vector::operator float *
	mov	edx, 4
	imul	ecx, edx, 0
	add	eax, ecx
	push	eax
	push	2
	mov	edx, DWORD PTR ?RI@@3PAUref_instance_t@@A ; RI
	mov	eax, DWORD PTR [edx+28]
	mov	ecx, DWORD PTR [eax+880]
	push	ecx
	call	DWORD PTR ?pglUniform3fvARB@@3P6GXHHPBM@ZA ; pglUniform3fvARB

; 2629 : 
; 2630 : 				float r = Q_max( 1, es->cubemap[0]->numMips - 8 ); // 8 is cv_cube_lod_bias->value UNDONE

	mov	eax, 4
	imul	ecx, eax, 0
	mov	edx, DWORD PTR _es$22[ebp]
	mov	eax, DWORD PTR [edx+ecx+200]
	movzx	ecx, BYTE PTR [eax+110]
	sub	ecx, 8
	cmp	ecx, 1
	jge	SHORT $LN77@R_DrawBrus
	mov	DWORD PTR tv834[ebp], 1
	jmp	SHORT $LN78@R_DrawBrus
$LN77@R_DrawBrus:
	mov	edx, 4
	imul	eax, edx, 0
	mov	ecx, DWORD PTR _es$22[ebp]
	mov	edx, DWORD PTR [ecx+eax+200]
	movzx	eax, BYTE PTR [edx+110]
	sub	eax, 8
	mov	DWORD PTR tv834[ebp], eax
$LN78@R_DrawBrus:
	cvtsi2ss xmm0, DWORD PTR tv834[ebp]
	movss	DWORD PTR _r$2[ebp], xmm0

; 2631 : 				float g = Q_max( 1, es->cubemap[1]->numMips - 8 );

	mov	eax, 4
	shl	eax, 0
	mov	ecx, DWORD PTR _es$22[ebp]
	mov	edx, DWORD PTR [ecx+eax+200]
	movzx	eax, BYTE PTR [edx+110]
	sub	eax, 8
	cmp	eax, 1
	jge	SHORT $LN79@R_DrawBrus
	mov	DWORD PTR tv849[ebp], 1
	jmp	SHORT $LN80@R_DrawBrus
$LN79@R_DrawBrus:
	mov	ecx, 4
	shl	ecx, 0
	mov	edx, DWORD PTR _es$22[ebp]
	mov	eax, DWORD PTR [edx+ecx+200]
	movzx	ecx, BYTE PTR [eax+110]
	sub	ecx, 8
	mov	DWORD PTR tv849[ebp], ecx
$LN80@R_DrawBrus:
	cvtsi2ss xmm0, DWORD PTR tv849[ebp]
	movss	DWORD PTR _g$1[ebp], xmm0

; 2632 : 				pglUniform2fARB( RI->currentshader->u_CubeMipCount, r, g );

	push	ecx
	movss	xmm0, DWORD PTR _g$1[ebp]
	movss	DWORD PTR [esp], xmm0
	push	ecx
	movss	xmm0, DWORD PTR _r$2[ebp]
	movss	DWORD PTR [esp], xmm0
	mov	eax, DWORD PTR ?RI@@3PAUref_instance_t@@A ; RI
	mov	ecx, DWORD PTR [eax+28]
	mov	edx, DWORD PTR [ecx+884]
	push	edx
	call	DWORD PTR ?pglUniform2fARB@@3P6GXHMM@ZA	; pglUniform2fARB

; 2633 : 
; 2634 : 				pglUniform1fARB( RI->currentshader->u_LerpFactor, es->lerpFactor );

	mov	eax, DWORD PTR _es$22[ebp]
	push	ecx
	movss	xmm0, DWORD PTR [eax+208]
	movss	DWORD PTR [esp], xmm0
	mov	ecx, DWORD PTR ?RI@@3PAUref_instance_t@@A ; RI
	mov	edx, DWORD PTR [ecx+28]
	mov	eax, DWORD PTR [edx+812]
	push	eax
	call	DWORD PTR ?pglUniform1fARB@@3P6GXHM@ZA	; pglUniform1fARB

; 2635 : 				pglUniform1fARB( RI->currentshader->u_ReflectScale, tr.materials[es->gl_texturenum].ReflectScale );

	mov	eax, DWORD PTR _es$22[ebp]
	movzx	ecx, WORD PTR [eax+238]
	imul	edx, ecx, 196
	push	ecx
	movss	xmm0, DWORD PTR ?tr@@3Uref_globals_t@@A[edx+5885488]
	movss	DWORD PTR [esp], xmm0
	mov	eax, DWORD PTR ?RI@@3PAUref_instance_t@@A ; RI
	mov	ecx, DWORD PTR [eax+28]
	mov	edx, DWORD PTR [ecx+852]
	push	edx
	call	DWORD PTR ?pglUniform1fARB@@3P6GXHM@ZA	; pglUniform1fARB

; 2636 : 
; 2637 : 				cached_cubemap[0] = es->cubemap[0];

	mov	eax, 4
	imul	ecx, eax, 0
	mov	edx, 4
	imul	eax, edx, 0
	mov	edx, DWORD PTR _es$22[ebp]
	mov	ecx, DWORD PTR [edx+ecx+200]
	mov	DWORD PTR _cached_cubemap$[ebp+eax], ecx

; 2638 : 				cached_cubemap[1] = es->cubemap[1];

	mov	eax, 4
	shl	eax, 0
	mov	ecx, 4
	shl	ecx, 0
	mov	edx, DWORD PTR _es$22[ebp]
	mov	eax, DWORD PTR [edx+eax+200]
	mov	DWORD PTR _cached_cubemap$[ebp+ecx], eax
$LN45@R_DrawBrus:

; 2639 : 			}
; 2640 : 
; 2641 : 			// diffusion - interior mapping
; 2642 : 			if( tr.materials[s->texinfo->texture->gl_texturenum].gl_interiormap_id > 0 )

	mov	eax, DWORD PTR _s$21[ebp]
	mov	ecx, DWORD PTR [eax+44]
	mov	edx, DWORD PTR [ecx+36]
	imul	eax, DWORD PTR [edx+24], 196
	movzx	ecx, WORD PTR ?tr@@3Uref_globals_t@@A[eax+5885504]
	test	ecx, ecx
	jle	$LN50@R_DrawBrus

; 2643 : 			{
; 2644 : 				pglUniform1fARB( RI->currentshader->u_RealTime, tr.time );

	cvtsd2ss xmm0, QWORD PTR ?tr@@3Uref_globals_t@@A+8
	push	ecx
	movss	DWORD PTR [esp], xmm0
	mov	eax, DWORD PTR ?RI@@3PAUref_instance_t@@A ; RI
	mov	ecx, DWORD PTR [eax+28]
	mov	edx, DWORD PTR [ecx+868]
	push	edx
	call	DWORD PTR ?pglUniform1fARB@@3P6GXHM@ZA	; pglUniform1fARB

; 2645 : 				pglUniform2fARB( RI->currentshader->u_InteriorGrid, tr.materials[s->texinfo->texture->gl_texturenum].InteriorGrid.x, tr.materials[s->texinfo->texture->gl_texturenum].InteriorGrid.y );

	mov	eax, DWORD PTR _s$21[ebp]
	mov	ecx, DWORD PTR [eax+44]
	mov	edx, DWORD PTR [ecx+36]
	imul	eax, DWORD PTR [edx+24], 196
	push	ecx
	movss	xmm0, DWORD PTR ?tr@@3Uref_globals_t@@A[eax+5885512]
	movss	DWORD PTR [esp], xmm0
	mov	ecx, DWORD PTR _s$21[ebp]
	mov	edx, DWORD PTR [ecx+44]
	mov	eax, DWORD PTR [edx+36]
	imul	ecx, DWORD PTR [eax+24], 196
	push	ecx
	movss	xmm0, DWORD PTR ?tr@@3Uref_globals_t@@A[ecx+5885508]
	movss	DWORD PTR [esp], xmm0
	mov	edx, DWORD PTR ?RI@@3PAUref_instance_t@@A ; RI
	mov	eax, DWORD PTR [edx+28]
	mov	ecx, DWORD PTR [eax+664]
	push	ecx
	call	DWORD PTR ?pglUniform2fARB@@3P6GXHMM@ZA	; pglUniform2fARB

; 2646 : 				pglUniform1fARB( RI->currentshader->u_InteriorLightState, (float)tr.materials[s->texinfo->texture->gl_texturenum].InteriorLightState );

	mov	eax, DWORD PTR _s$21[ebp]
	mov	ecx, DWORD PTR [eax+44]
	mov	edx, DWORD PTR [ecx+36]
	imul	eax, DWORD PTR [edx+24], 196
	cvtsi2ss xmm0, DWORD PTR ?tr@@3Uref_globals_t@@A[eax+5885516]
	push	ecx
	movss	DWORD PTR [esp], xmm0
	mov	ecx, DWORD PTR ?RI@@3PAUref_instance_t@@A ; RI
	mov	edx, DWORD PTR [ecx+28]
	mov	eax, DWORD PTR [edx+668]
	push	eax
	call	DWORD PTR ?pglUniform1fARB@@3P6GXHM@ZA	; pglUniform1fARB

; 2647 : 				GL_Bind( GL_TEXTURE11, tr.materials[s->texinfo->texture->gl_texturenum].gl_interiormap_id ); // u_InteriorMap

	mov	eax, DWORD PTR _s$21[ebp]
	mov	ecx, DWORD PTR [eax+44]
	mov	edx, DWORD PTR [ecx+36]
	imul	eax, DWORD PTR [edx+24], 196
	movzx	ecx, WORD PTR ?tr@@3Uref_globals_t@@A[eax+5885504]
	push	ecx
	push	11					; 0000000bH
	call	DWORD PTR ?gRenderfuncs@@3Urender_api_s@@A+132
	add	esp, 8
$LN50@R_DrawBrus:

; 2648 : 			}
; 2649 : 
; 2650 : 			// diffusion - apply custom color to a specific texture
; 2651 : 			if( tr.materials[s->texinfo->texture->gl_texturenum].ApplyColor )

	mov	eax, DWORD PTR _s$21[ebp]
	mov	ecx, DWORD PTR [eax+44]
	mov	edx, DWORD PTR [ecx+36]
	imul	eax, DWORD PTR [edx+24], 196
	movzx	ecx, BYTE PTR ?tr@@3Uref_globals_t@@A[eax+5885500]
	test	ecx, ecx
	je	$LN51@R_DrawBrus

; 2652 : 			{
; 2653 : 				// hack
; 2654 : 				if( e->curstate.rendermode == kRenderTransAdd )

	mov	eax, DWORD PTR _e$[ebp]
	cmp	DWORD PTR [eax+760], 5
	jne	$LN53@R_DrawBrus

; 2655 : 				{
; 2656 : 					if( e->curstate.rendercolor.r == 0 && e->curstate.rendercolor.g == 0 && e->curstate.rendercolor.b == 0 )

	mov	eax, DWORD PTR _e$[ebp]
	movzx	ecx, BYTE PTR [eax+768]
	test	ecx, ecx
	jne	SHORT $LN55@R_DrawBrus
	mov	eax, DWORD PTR _e$[ebp]
	movzx	ecx, BYTE PTR [eax+769]
	test	ecx, ecx
	jne	SHORT $LN55@R_DrawBrus
	mov	eax, DWORD PTR _e$[ebp]
	movzx	ecx, BYTE PTR [eax+770]
	test	ecx, ecx
	jne	SHORT $LN55@R_DrawBrus

; 2657 : 						pglUniform4fARB( RI->currentshader->u_RenderColor, 1.0f, 1.0f, 1.0f, tr.blend );

	push	ecx
	movss	xmm0, DWORD PTR ?tr@@3Uref_globals_t@@A+5830912
	movss	DWORD PTR [esp], xmm0
	push	ecx
	movss	xmm0, DWORD PTR __real@3f800000
	movss	DWORD PTR [esp], xmm0
	push	ecx
	movss	xmm0, DWORD PTR __real@3f800000
	movss	DWORD PTR [esp], xmm0
	push	ecx
	movss	xmm0, DWORD PTR __real@3f800000
	movss	DWORD PTR [esp], xmm0
	mov	eax, DWORD PTR ?RI@@3PAUref_instance_t@@A ; RI
	mov	ecx, DWORD PTR [eax+28]
	mov	edx, DWORD PTR [ecx+864]
	push	edx
	call	DWORD PTR ?pglUniform4fARB@@3P6GXHMMMM@ZA ; pglUniform4fARB

; 2658 : 					else

	jmp	SHORT $LN56@R_DrawBrus
$LN55@R_DrawBrus:

; 2659 : 						pglUniform4fARB( RI->currentshader->u_RenderColor, e->curstate.rendercolor.r / 255.0f, e->curstate.rendercolor.g / 255.0f, e->curstate.rendercolor.b / 255.0f, tr.blend );

	push	ecx
	movss	xmm0, DWORD PTR ?tr@@3Uref_globals_t@@A+5830912
	movss	DWORD PTR [esp], xmm0
	mov	eax, DWORD PTR _e$[ebp]
	movzx	ecx, BYTE PTR [eax+770]
	cvtsi2ss xmm0, ecx
	divss	xmm0, DWORD PTR __real@437f0000
	push	ecx
	movss	DWORD PTR [esp], xmm0
	mov	edx, DWORD PTR _e$[ebp]
	movzx	eax, BYTE PTR [edx+769]
	cvtsi2ss xmm0, eax
	divss	xmm0, DWORD PTR __real@437f0000
	push	ecx
	movss	DWORD PTR [esp], xmm0
	mov	ecx, DWORD PTR _e$[ebp]
	movzx	edx, BYTE PTR [ecx+768]
	cvtsi2ss xmm0, edx
	divss	xmm0, DWORD PTR __real@437f0000
	push	ecx
	movss	DWORD PTR [esp], xmm0
	mov	eax, DWORD PTR ?RI@@3PAUref_instance_t@@A ; RI
	mov	ecx, DWORD PTR [eax+28]
	mov	edx, DWORD PTR [ecx+864]
	push	edx
	call	DWORD PTR ?pglUniform4fARB@@3P6GXHMMMM@ZA ; pglUniform4fARB
$LN56@R_DrawBrus:

; 2660 : 				}
; 2661 : 				else

	jmp	SHORT $LN54@R_DrawBrus
$LN53@R_DrawBrus:

; 2662 : 					pglUniform4fARB( RI->currentshader->u_RenderColor, e->curstate.rendercolor.r / 255.0f, e->curstate.rendercolor.g / 255.0f, e->curstate.rendercolor.b / 255.0f, tr.blend );

	push	ecx
	movss	xmm0, DWORD PTR ?tr@@3Uref_globals_t@@A+5830912
	movss	DWORD PTR [esp], xmm0
	mov	eax, DWORD PTR _e$[ebp]
	movzx	ecx, BYTE PTR [eax+770]
	cvtsi2ss xmm0, ecx
	divss	xmm0, DWORD PTR __real@437f0000
	push	ecx
	movss	DWORD PTR [esp], xmm0
	mov	edx, DWORD PTR _e$[ebp]
	movzx	eax, BYTE PTR [edx+769]
	cvtsi2ss xmm0, eax
	divss	xmm0, DWORD PTR __real@437f0000
	push	ecx
	movss	DWORD PTR [esp], xmm0
	mov	ecx, DWORD PTR _e$[ebp]
	movzx	edx, BYTE PTR [ecx+768]
	cvtsi2ss xmm0, edx
	divss	xmm0, DWORD PTR __real@437f0000
	push	ecx
	movss	DWORD PTR [esp], xmm0
	mov	eax, DWORD PTR ?RI@@3PAUref_instance_t@@A ; RI
	mov	ecx, DWORD PTR [eax+28]
	mov	edx, DWORD PTR [ecx+864]
	push	edx
	call	DWORD PTR ?pglUniform4fARB@@3P6GXHMMMM@ZA ; pglUniform4fARB
$LN54@R_DrawBrus:

; 2663 : 			}
; 2664 : 			else

	jmp	SHORT $LN52@R_DrawBrus
$LN51@R_DrawBrus:

; 2665 : 				R_SetRenderColor( RI->currententity );

	mov	eax, DWORD PTR ?RI@@3PAUref_instance_t@@A ; RI
	mov	ecx, DWORD PTR [eax+16]
	push	ecx
	call	?R_SetRenderColor@@YAXPAUcl_entity_s@@@Z ; R_SetRenderColor
	add	esp, 4
$LN52@R_DrawBrus:

; 2666 : 
; 2667 : 			cached_mirror = es->subtexture[glState.stack_position];

	mov	eax, DWORD PTR ?glState@@3UglState_t@@A+112296
	mov	ecx, DWORD PTR _es$22[ebp]
	movsx	edx, WORD PTR [ecx+eax*2+222]
	mov	DWORD PTR _cached_mirror$[ebp], edx

; 2668 : 			cached_texture = es->gl_texturenum;

	mov	eax, DWORD PTR _es$22[ebp]
	movzx	ecx, WORD PTR [eax+238]
	mov	DWORD PTR _cached_texture$[ebp], ecx

; 2669 : 			cached_texofs[0] = -1.0f;

	mov	eax, 4
	imul	ecx, eax, 0
	movss	xmm0, DWORD PTR __real@bf800000
	movss	DWORD PTR _cached_texofs$[ebp+ecx], xmm0

; 2670 : 			cached_texofs[1] = -1.0f;

	mov	eax, 4
	shl	eax, 0
	movss	xmm0, DWORD PTR __real@bf800000
	movss	DWORD PTR _cached_texofs$[ebp+eax], xmm0
$LN27@R_DrawBrus:

; 2671 : 		}
; 2672 : 
; 2673 : 		if( cached_lightmap != es->lightmaptexturenum )

	mov	eax, DWORD PTR _es$22[ebp]
	movzx	ecx, WORD PTR [eax+164]
	cmp	DWORD PTR _cached_lightmap$[ebp], ecx
	je	$LN57@R_DrawBrus

; 2674 : 		{
; 2675 : 			if( R_FullBright() )

	cmp	DWORD PTR ?r_fullbright@@3PAUcvar_s@@A, 0 ; r_fullbright
	je	SHORT $LN81@R_DrawBrus
	mov	eax, DWORD PTR ?r_fullbright@@3PAUcvar_s@@A ; r_fullbright
	movss	xmm0, DWORD PTR [eax+12]
	ucomiss	xmm0, DWORD PTR __real@00000000
	lahf
	test	ah, 68					; 00000044H
	jnp	SHORT $LN81@R_DrawBrus
	mov	BYTE PTR tv1033[ebp], 1
	jmp	SHORT $LN82@R_DrawBrus
$LN81@R_DrawBrus:
	mov	BYTE PTR tv1033[ebp], 0
$LN82@R_DrawBrus:
	movzx	ecx, BYTE PTR tv1033[ebp]
	test	ecx, ecx
	jne	SHORT $LN60@R_DrawBrus
	mov	eax, DWORD PTR ?worldmodel@@3PAUmodel_s@@A ; worldmodel
	cmp	DWORD PTR [eax+380], 0
	jne	SHORT $LN58@R_DrawBrus
$LN60@R_DrawBrus:

; 2676 : 			{
; 2677 : 				// bind stubs (helper to reduce conditions in shader)
; 2678 : 				GL_Bind( GL_TEXTURE2, tr.whiteTexture );

	mov	eax, DWORD PTR ?tr@@3Uref_globals_t@@A+32
	push	eax
	push	2
	call	DWORD PTR ?gRenderfuncs@@3Urender_api_s@@A+132
	add	esp, 8

; 2679 : 				GL_Bind( GL_TEXTURE8, tr.whiteTexture );

	mov	eax, DWORD PTR ?tr@@3Uref_globals_t@@A+32
	push	eax
	push	8
	call	DWORD PTR ?gRenderfuncs@@3Urender_api_s@@A+132
	add	esp, 8

; 2680 : 			}
; 2681 : 			else

	jmp	SHORT $LN59@R_DrawBrus
$LN58@R_DrawBrus:

; 2682 : 			{
; 2683 : 				// bind real data
; 2684 : 				GL_Bind( GL_TEXTURE2, tr.lightmaps[es->lightmaptexturenum].lightmap );

	mov	eax, DWORD PTR _es$22[ebp]
	movzx	ecx, WORD PTR [eax+164]
	imul	edx, ecx, 8204
	mov	eax, DWORD PTR ?tr@@3Uref_globals_t@@A[edx+539892]
	push	eax
	push	2
	call	DWORD PTR ?gRenderfuncs@@3Urender_api_s@@A+132
	add	esp, 8

; 2685 : 				GL_Bind( GL_TEXTURE8, tr.lightmaps[es->lightmaptexturenum].deluxmap );

	mov	eax, DWORD PTR _es$22[ebp]
	movzx	ecx, WORD PTR [eax+164]
	imul	edx, ecx, 8204
	mov	eax, DWORD PTR ?tr@@3Uref_globals_t@@A[edx+539896]
	push	eax
	push	8
	call	DWORD PTR ?gRenderfuncs@@3Urender_api_s@@A+132
	add	esp, 8
$LN59@R_DrawBrus:

; 2686 : 			}
; 2687 : 			cached_lightmap = es->lightmaptexturenum;

	mov	eax, DWORD PTR _es$22[ebp]
	movzx	ecx, WORD PTR [eax+164]
	mov	DWORD PTR _cached_lightmap$[ebp], ecx
$LN57@R_DrawBrus:

; 2688 : 		}
; 2689 : 
; 2690 : 		if( tr.viewparams.waterlevel >= 3 && RP_NORMALPASS() && FBitSet( s->flags, SURF_WATER ) )

	cmp	DWORD PTR ?tr@@3Uref_globals_t@@A+5830740, 3
	jl	SHORT $LN61@R_DrawBrus
	mov	eax, DWORD PTR ?RI@@3PAUref_instance_t@@A ; RI
	mov	ecx, DWORD PTR [eax]
	and	ecx, 483				; 000001e3H
	jne	SHORT $LN61@R_DrawBrus
	mov	eax, DWORD PTR _s$21[ebp]
	mov	ecx, DWORD PTR [eax+8]
	and	ecx, 16					; 00000010H
	je	SHORT $LN61@R_DrawBrus

; 2691 : 			GL_Cull( GL_BACK );

	push	1029					; 00000405H
	call	?GL_Cull@@YAXI@Z			; GL_Cull
	add	esp, 4
	jmp	SHORT $LN62@R_DrawBrus
$LN61@R_DrawBrus:

; 2692 : 		else GL_Cull( GL_FRONT );

	push	1028					; 00000404H
	call	?GL_Cull@@YAXI@Z			; GL_Cull
	add	esp, 4
$LN62@R_DrawBrus:

; 2693 : 
; 2694 : 		if( cached_texofs[0] != es->texofs[0] || cached_texofs[1] != es->texofs[1] )

	mov	eax, 4
	imul	ecx, eax, 0
	mov	edx, 4
	imul	eax, edx, 0
	mov	edx, DWORD PTR _es$22[ebp]
	movss	xmm0, DWORD PTR _cached_texofs$[ebp+ecx]
	ucomiss	xmm0, DWORD PTR [edx+eax+192]
	lahf
	test	ah, 68					; 00000044H
	jp	SHORT $LN64@R_DrawBrus
	mov	eax, 4
	shl	eax, 0
	mov	ecx, 4
	shl	ecx, 0
	mov	edx, DWORD PTR _es$22[ebp]
	movss	xmm0, DWORD PTR _cached_texofs$[ebp+eax]
	ucomiss	xmm0, DWORD PTR [edx+ecx+192]
	lahf
	test	ah, 68					; 00000044H
	jnp	$LN63@R_DrawBrus
$LN64@R_DrawBrus:

; 2695 : 		{
; 2696 : 			pglUniform3fARB( RI->currentshader->u_TexOffset, es->texofs[0], es->texofs[1], tr.time );

	cvtsd2ss xmm0, QWORD PTR ?tr@@3Uref_globals_t@@A+8
	push	ecx
	movss	DWORD PTR [esp], xmm0
	mov	eax, 4
	shl	eax, 0
	mov	ecx, DWORD PTR _es$22[ebp]
	push	ecx
	movss	xmm0, DWORD PTR [ecx+eax+192]
	movss	DWORD PTR [esp], xmm0
	mov	edx, 4
	imul	eax, edx, 0
	mov	ecx, DWORD PTR _es$22[ebp]
	push	ecx
	movss	xmm0, DWORD PTR [ecx+eax+192]
	movss	DWORD PTR [esp], xmm0
	mov	edx, DWORD PTR ?RI@@3PAUref_instance_t@@A ; RI
	mov	eax, DWORD PTR [edx+28]
	mov	ecx, DWORD PTR [eax+860]
	push	ecx
	call	DWORD PTR ?pglUniform3fARB@@3P6GXHMMM@ZA ; pglUniform3fARB

; 2697 : 			cached_texofs[0] = es->texofs[0];

	mov	eax, 4
	imul	ecx, eax, 0
	mov	edx, 4
	imul	eax, edx, 0
	mov	edx, DWORD PTR _es$22[ebp]
	mov	ecx, DWORD PTR [edx+ecx+192]
	mov	DWORD PTR _cached_texofs$[ebp+eax], ecx

; 2698 : 			cached_texofs[1] = es->texofs[1];

	mov	eax, 4
	shl	eax, 0
	mov	ecx, 4
	shl	ecx, 0
	mov	edx, DWORD PTR _es$22[ebp]
	mov	eax, DWORD PTR [edx+eax+192]
	mov	DWORD PTR _cached_texofs$[ebp+ecx], eax
$LN63@R_DrawBrus:

; 2699 : 		}
; 2700 : 
; 2701 : 		if( es->firstvertex < startv )

	mov	eax, DWORD PTR _es$22[ebp]
	mov	ecx, DWORD PTR [eax+128]
	cmp	ecx, DWORD PTR _startv$[ebp]
	jge	SHORT $LN65@R_DrawBrus

; 2702 : 			startv = es->firstvertex;

	mov	eax, DWORD PTR _es$22[ebp]
	mov	ecx, DWORD PTR [eax+128]
	mov	DWORD PTR _startv$[ebp], ecx
$LN65@R_DrawBrus:

; 2703 : 
; 2704 : 		if( (es->firstvertex + es->numverts) > endv )

	mov	eax, DWORD PTR _es$22[ebp]
	movzx	ecx, WORD PTR [eax+126]
	mov	edx, DWORD PTR _es$22[ebp]
	add	ecx, DWORD PTR [edx+128]
	cmp	ecx, DWORD PTR _endv$[ebp]
	jle	SHORT $LN66@R_DrawBrus

; 2705 : 			endv = es->firstvertex + es->numverts;

	mov	eax, DWORD PTR _es$22[ebp]
	movzx	ecx, WORD PTR [eax+126]
	mov	edx, DWORD PTR _es$22[ebp]
	add	ecx, DWORD PTR [edx+128]
	mov	DWORD PTR _endv$[ebp], ecx
$LN66@R_DrawBrus:

; 2706 : 
; 2707 : 		if( FBitSet( s->flags, SURF_WATER ) )

	mov	eax, DWORD PTR _s$21[ebp]
	mov	ecx, DWORD PTR [eax+8]
	and	ecx, 16					; 00000010H
	je	SHORT $LN67@R_DrawBrus

; 2708 : 			R_DrawIndexedSurface( es );

	mov	eax, DWORD PTR _es$22[ebp]
	push	eax
	call	?R_DrawIndexedSurface@@YAXPAUmextrasurf_s@@@Z ; R_DrawIndexedSurface
	add	esp, 4

; 2709 : 		else

	jmp	SHORT $LN68@R_DrawBrus
$LN67@R_DrawBrus:

; 2710 : 			R_DrawSurface( es );

	mov	eax, DWORD PTR _es$22[ebp]
	push	eax
	call	?R_DrawSurface@@YAXPAUmextrasurf_s@@@Z	; R_DrawSurface
	add	esp, 4
$LN68@R_DrawBrus:

; 2711 : 	}

	jmp	$LN2@R_DrawBrus
$LN3@R_DrawBrus:

; 2712 : 
; 2713 : 	if( numTempElems )

	cmp	DWORD PTR ?numTempElems@@3IA, 0
	je	SHORT $LN69@R_DrawBrus

; 2714 : 	{
; 2715 : 		pglDrawRangeElementsEXT( GL_TRIANGLES, startv, endv - 1, numTempElems, GL_UNSIGNED_INT, tempElems );

	push	OFFSET ?tempElems@@3PAIA
	push	5125					; 00001405H
	mov	eax, DWORD PTR ?numTempElems@@3IA
	push	eax
	mov	ecx, DWORD PTR _endv$[ebp]
	sub	ecx, 1
	push	ecx
	mov	edx, DWORD PTR _startv$[ebp]
	push	edx
	push	4
	call	DWORD PTR ?pglDrawRangeElementsEXT@@3P6GXIIIHIPBX@ZA ; pglDrawRangeElementsEXT

; 2716 : 		r_stats.c_total_tris += (numTempElems / 3);

	mov	eax, DWORD PTR ?numTempElems@@3IA
	xor	edx, edx
	mov	ecx, 3
	div	ecx
	add	eax, DWORD PTR ?r_stats@@3Uref_stats_t@@A+60
	mov	DWORD PTR ?r_stats@@3Uref_stats_t@@A+60, eax

; 2717 : 		r_stats.num_flushes++;

	mov	eax, DWORD PTR ?r_stats@@3Uref_stats_t@@A+88
	add	eax, 1
	mov	DWORD PTR ?r_stats@@3Uref_stats_t@@A+88, eax

; 2718 : 		numTempElems = 0;

	mov	DWORD PTR ?numTempElems@@3IA, 0
$LN69@R_DrawBrus:

; 2719 : 	}
; 2720 : 
; 2721 : 	// diffusioncubemaps
; 2722 : 	if( GL_Support( R_SEAMLESS_CUBEMAP ) )

	push	23					; 00000017H
	call	?GL_Support@@YA_NH@Z			; GL_Support
	add	esp, 4
	movzx	eax, al
	test	eax, eax
	je	SHORT $LN70@R_DrawBrus

; 2723 : 		pglDisable( GL_TEXTURE_CUBE_MAP_SEAMLESS );

	push	34895					; 0000884fH
	call	DWORD PTR ?pglDisable@@3P6GXI@ZA	; pglDisable
$LN70@R_DrawBrus:

; 2724 : 
; 2725 : 	GL_SelectTexture( glConfig.max_texture_units - 1 ); // force to cleanup all the units

	mov	eax, DWORD PTR ?glConfig@@3UglConfig_t@@A+52
	sub	eax, 1
	push	eax
	call	DWORD PTR ?gRenderfuncs@@3Urender_api_s@@A+136
	add	esp, 4

; 2726 : 	GL_CleanUpTextureUnits( 0 );

	push	0
	call	DWORD PTR ?gRenderfuncs@@3Urender_api_s@@A+148
	add	esp, 4

; 2727 : 	pglBindVertexArray( GL_FALSE );

	push	0
	call	DWORD PTR ?pglBindVertexArray@@3P6GXI@ZA ; pglBindVertexArray

; 2728 : 	GL_BindShader( NULL );

	push	0
	call	?GL_BindShader@@YAXPAUglsl_prog_s@@@Z	; GL_BindShader
	add	esp, 4

; 2729 : 	GL_Cull( GL_FRONT );

	push	1028					; 00000404H
	call	?GL_Cull@@YAXI@Z			; GL_Cull
	add	esp, 4

; 2730 : 
; 2731 : 	// draw grass on visible surfaces
; 2732 : 	if( R_GrassUseBufferObject() )

	call	?R_GrassUseBufferObject@@YA_NXZ		; R_GrassUseBufferObject
	movzx	eax, al
	test	eax, eax
	je	SHORT $LN71@R_DrawBrus

; 2733 : 		R_RenderGrassOnList();

	call	?R_RenderGrassOnList@@YAXXZ		; R_RenderGrassOnList

; 2734 : 	else

	jmp	SHORT $LN72@R_DrawBrus
$LN71@R_DrawBrus:

; 2735 : 		R_DrawGrass();

	push	0
	call	?R_DrawGrass@@YAXH@Z			; R_DrawGrass
	add	esp, 4
$LN72@R_DrawBrus:

; 2736 : 
; 2737 : 	// draw dynamic lighting for world and bmodels
; 2738 : 	R_RenderDynLightList();

	call	?R_RenderDynLightList@@YAXXZ		; R_RenderDynLightList

; 2739 : 
; 2740 : 	pglBindVertexArray( GL_FALSE );

	push	0
	call	DWORD PTR ?pglBindVertexArray@@3P6GXI@ZA ; pglBindVertexArray

; 2741 : 	GL_BindShader( NULL );

	push	0
	call	?GL_BindShader@@YAXPAUglsl_prog_s@@@Z	; GL_BindShader
	add	esp, 4

; 2742 : 	pglAlphaFunc( GL_GREATER, DEFAULT_ALPHATEST );

	push	ecx
	xorps	xmm0, xmm0
	movss	DWORD PTR [esp], xmm0
	push	516					; 00000204H
	call	DWORD PTR ?pglAlphaFunc@@3P6GXIM@ZA	; pglAlphaFunc

; 2743 : 	DrawWireFrame();

	call	?DrawWireFrame@@YAXXZ			; DrawWireFrame

; 2744 : 
; 2745 : 	// clear the subview pointers after normalpass
; 2746 : 	if( RP_NORMALPASS() )

	mov	eax, DWORD PTR ?RI@@3PAUref_instance_t@@A ; RI
	mov	ecx, DWORD PTR [eax]
	and	ecx, 483				; 000001e3H
	jne	SHORT $LN6@R_DrawBrus

; 2747 : 	{
; 2748 : 		for( i = 0; i < tr.num_draw_surfaces; i++ )

	mov	DWORD PTR _i$[ebp], 0
	jmp	SHORT $LN7@R_DrawBrus
$LN5@R_DrawBrus:
	mov	eax, DWORD PTR _i$[ebp]
	add	eax, 1
	mov	DWORD PTR _i$[ebp], eax
$LN7@R_DrawBrus:
	mov	eax, DWORD PTR _i$[ebp]
	cmp	eax, DWORD PTR ?tr@@3Uref_globals_t@@A+5289972
	jge	SHORT $LN6@R_DrawBrus

; 2749 : 			memset( tr.draw_surfaces[i].surface->info->subtexture, 0, sizeof( short[8] ) );

	push	16					; 00000010H
	push	0
	mov	eax, DWORD PTR _i$[ebp]
	mov	ecx, DWORD PTR ?tr@@3Uref_globals_t@@A[eax*8+4765692]
	mov	edx, DWORD PTR [ecx+80]
	add	edx, 222				; 000000deH
	push	edx
	call	_memset
	add	esp, 12					; 0000000cH
	jmp	SHORT $LN5@R_DrawBrus
$LN6@R_DrawBrus:

; 2750 : 	}
; 2751 : 
; 2752 : 	tr.num_draw_surfaces = 0;

	mov	DWORD PTR ?tr@@3Uref_globals_t@@A+5289972, 0

; 2753 : 
; 2754 : 	// render all decals on world and opaque bmodels
; 2755 : 	DrawDecalsBatch();

	call	?DrawDecalsBatch@@YAXXZ			; DrawDecalsBatch
$LN1@R_DrawBrus:

; 2756 : }

	pop	edi
	pop	esi
	pop	ebx
	mov	esp, ebp
	pop	ebp
	ret	0
?R_DrawBrushList@@YAXXZ ENDP				; R_DrawBrushList
_TEXT	ENDS
; Function compile flags: /Odtp /ZI
; File d:\!diffusion 2020\source code 2022\client-server\client\render\r_world.cpp
;	COMDAT ?R_DrawShadowBrushList@@YAXXZ
_TEXT	SEGMENT
_j$1 = -56						; size = 4
_glm$2 = -52						; size = 4
_tex$3 = -48						; size = 4
_curtex$4 = -44						; size = 4
_s$5 = -40						; size = 4
_es$6 = -36						; size = 4
_entry$7 = -32						; size = 4
_i$8 = -28						; size = 4
_endv$ = -24						; size = 4
_startv$ = -20						; size = 4
_e$ = -16						; size = 4
_pl$ = -12						; size = 4
_flush_buffer$ = -8					; size = 4
_cached_texture$ = -4					; size = 4
?R_DrawShadowBrushList@@YAXXZ PROC			; R_DrawShadowBrushList, COMDAT

; 2277 : {

	push	ebp
	mov	ebp, esp
	sub	esp, 120				; 00000078H
	push	ebx
	push	esi
	push	edi

; 2278 : 	int cached_texture = -1;

	mov	DWORD PTR _cached_texture$[ebp], -1

; 2279 : 	qboolean flush_buffer = false;

	mov	DWORD PTR _flush_buffer$[ebp], 0

; 2280 : 	plight_t *pl = RI->currentlight;

	mov	eax, DWORD PTR ?RI@@3PAUref_instance_t@@A ; RI
	mov	ecx, DWORD PTR [eax+24]
	mov	DWORD PTR _pl$[ebp], ecx

; 2281 : 	cl_entity_t *e = RI->currententity;

	mov	eax, DWORD PTR ?RI@@3PAUref_instance_t@@A ; RI
	mov	ecx, DWORD PTR [eax+16]
	mov	DWORD PTR _e$[ebp], ecx

; 2282 : 	int startv, endv;
; 2283 : 
; 2284 : 	if( !tr.num_draw_surfaces )

	cmp	DWORD PTR ?tr@@3Uref_globals_t@@A+5289972, 0
	jne	SHORT $LN8@R_DrawShad

; 2285 : 		return;

	jmp	$LN1@R_DrawShad
$LN8@R_DrawShad:

; 2286 : 
; 2287 : 	RI->currentmodel = e->model;

	mov	eax, DWORD PTR ?RI@@3PAUref_instance_t@@A ; RI
	mov	ecx, DWORD PTR _e$[ebp]
	mov	edx, DWORD PTR [ecx+2964]
	mov	DWORD PTR [eax+20], edx

; 2288 : 	R_LoadIdentity();

	call	?R_LoadIdentity@@YAXXZ			; R_LoadIdentity

; 2289 : 	startv = MAX_MAP_ELEMS;

	mov	DWORD PTR _startv$[ebp], 327675		; 0004fffbH

; 2290 : 	numTempElems = 0;

	mov	DWORD PTR ?numTempElems@@3IA, 0

; 2291 : 	endv = 0;

	mov	DWORD PTR _endv$[ebp], 0

; 2292 : 	pglBindVertexArray( world->vertex_array_object );

	mov	eax, DWORD PTR ?world@@3PAUgl_world_t@@A ; world
	mov	ecx, DWORD PTR [eax+128]
	push	ecx
	call	DWORD PTR ?pglBindVertexArray@@3P6GXI@ZA ; pglBindVertexArray

; 2293 : 	pglAlphaFunc( GL_GREATER, 0.25f );

	push	ecx
	movss	xmm0, DWORD PTR __real@3e800000
	movss	DWORD PTR [esp], xmm0
	push	516					; 00000204H
	call	DWORD PTR ?pglAlphaFunc@@3P6GXIM@ZA	; pglAlphaFunc

; 2294 : 	GL_TextureTarget( GL_NONE );

	push	0
	call	DWORD PTR ?gRenderfuncs@@3Urender_api_s@@A+156
	add	esp, 4

; 2295 : 
; 2296 : 	for( int i = 0; i < tr.num_draw_surfaces; i++ )

	mov	DWORD PTR _i$8[ebp], 0
	jmp	SHORT $LN4@R_DrawShad
$LN2@R_DrawShad:
	mov	eax, DWORD PTR _i$8[ebp]
	add	eax, 1
	mov	DWORD PTR _i$8[ebp], eax
$LN4@R_DrawShad:
	mov	eax, DWORD PTR _i$8[ebp]
	cmp	eax, DWORD PTR ?tr@@3Uref_globals_t@@A+5289972
	jge	$LN3@R_DrawShad

; 2297 : 	{
; 2298 : 		gl_bmodelface_t *entry = &tr.draw_surfaces[i];

	mov	eax, DWORD PTR _i$8[ebp]
	lea	ecx, DWORD PTR ?tr@@3Uref_globals_t@@A[eax*8+4765692]
	mov	DWORD PTR _entry$7[ebp], ecx

; 2299 : 		mextrasurf_t *es = entry->surface->info;

	mov	eax, DWORD PTR _entry$7[ebp]
	mov	ecx, DWORD PTR [eax]
	mov	edx, DWORD PTR [ecx+80]
	mov	DWORD PTR _es$6[ebp], edx

; 2300 : 		msurface_t *s = entry->surface;

	mov	eax, DWORD PTR _entry$7[ebp]
	mov	ecx, DWORD PTR [eax]
	mov	DWORD PTR _s$5[ebp], ecx

; 2301 : 
; 2302 : 		if( !entry->hProgram )

	mov	eax, DWORD PTR _entry$7[ebp]
	movzx	ecx, WORD PTR [eax+4]
	test	ecx, ecx
	jne	SHORT $LN9@R_DrawShad

; 2303 : 			continue;

	jmp	SHORT $LN2@R_DrawShad
$LN9@R_DrawShad:

; 2304 : 
; 2305 : 		int curtex = tr.whiteTexture;

	mov	eax, DWORD PTR ?tr@@3Uref_globals_t@@A+32
	mov	DWORD PTR _curtex$4[ebp], eax

; 2306 : 		texture_t *tex = R_TextureAnimation( s );

	mov	eax, DWORD PTR _s$5[ebp]
	push	eax
	call	?R_TextureAnimation@@YAPAUtexture_s@@PAUmsurface_s@@@Z ; R_TextureAnimation
	add	esp, 4
	mov	DWORD PTR _tex$3[ebp], eax

; 2307 : 		if( FBitSet( s->flags, SURF_TRANSPARENT ) )

	mov	eax, DWORD PTR _s$5[ebp]
	mov	ecx, DWORD PTR [eax+8]
	and	ecx, 256				; 00000100H
	je	SHORT $LN10@R_DrawShad

; 2308 : 			curtex = tex->gl_texturenum;

	mov	eax, DWORD PTR _tex$3[ebp]
	mov	ecx, DWORD PTR [eax+24]
	mov	DWORD PTR _curtex$4[ebp], ecx
$LN10@R_DrawShad:

; 2309 : 
; 2310 : 		if( (i == 0) || (RI->currentshader != &glsl_programs[entry->hProgram]) )

	cmp	DWORD PTR _i$8[ebp], 0
	je	SHORT $LN12@R_DrawShad
	mov	eax, DWORD PTR _entry$7[ebp]
	movzx	ecx, WORD PTR [eax+4]
	imul	edx, ecx, 972
	add	edx, OFFSET ?glsl_programs@@3PAUglsl_prog_s@@A ; glsl_programs
	mov	eax, DWORD PTR ?RI@@3PAUref_instance_t@@A ; RI
	cmp	DWORD PTR [eax+28], edx
	je	SHORT $LN11@R_DrawShad
$LN12@R_DrawShad:

; 2311 : 			flush_buffer = true;

	mov	DWORD PTR _flush_buffer$[ebp], 1
$LN11@R_DrawShad:

; 2312 : 
; 2313 : 		if( cached_texture != curtex )

	mov	eax, DWORD PTR _cached_texture$[ebp]
	cmp	eax, DWORD PTR _curtex$4[ebp]
	je	SHORT $LN13@R_DrawShad

; 2314 : 			flush_buffer = true;

	mov	DWORD PTR _flush_buffer$[ebp], 1
$LN13@R_DrawShad:

; 2315 : 
; 2316 : 		if( flush_buffer )

	cmp	DWORD PTR _flush_buffer$[ebp], 0
	je	SHORT $LN14@R_DrawShad

; 2317 : 		{
; 2318 : 			if( numTempElems )

	cmp	DWORD PTR ?numTempElems@@3IA, 0
	je	SHORT $LN15@R_DrawShad

; 2319 : 			{
; 2320 : 				pglDrawRangeElementsEXT( GL_TRIANGLES, startv, endv - 1, numTempElems, GL_UNSIGNED_INT, tempElems );

	push	OFFSET ?tempElems@@3PAIA
	push	5125					; 00001405H
	mov	eax, DWORD PTR ?numTempElems@@3IA
	push	eax
	mov	ecx, DWORD PTR _endv$[ebp]
	sub	ecx, 1
	push	ecx
	mov	edx, DWORD PTR _startv$[ebp]
	push	edx
	push	4
	call	DWORD PTR ?pglDrawRangeElementsEXT@@3P6GXIIIHIPBX@ZA ; pglDrawRangeElementsEXT

; 2321 : 				r_stats.c_total_tris += (numTempElems / 3);

	mov	eax, DWORD PTR ?numTempElems@@3IA
	xor	edx, edx
	mov	ecx, 3
	div	ecx
	add	eax, DWORD PTR ?r_stats@@3Uref_stats_t@@A+60
	mov	DWORD PTR ?r_stats@@3Uref_stats_t@@A+60, eax

; 2322 : 				r_stats.num_flushes++;

	mov	eax, DWORD PTR ?r_stats@@3Uref_stats_t@@A+88
	add	eax, 1
	mov	DWORD PTR ?r_stats@@3Uref_stats_t@@A+88, eax

; 2323 : 				startv = MAX_MAP_ELEMS;

	mov	DWORD PTR _startv$[ebp], 327675		; 0004fffbH

; 2324 : 				numTempElems = 0;

	mov	DWORD PTR ?numTempElems@@3IA, 0

; 2325 : 				endv = 0;

	mov	DWORD PTR _endv$[ebp], 0
$LN15@R_DrawShad:

; 2326 : 			}
; 2327 : 			flush_buffer = false;

	mov	DWORD PTR _flush_buffer$[ebp], 0
$LN14@R_DrawShad:

; 2328 : 		}
; 2329 : 
; 2330 : 		// begin draw the sorted list
; 2331 : 		if( (i == 0) || (RI->currentshader != &glsl_programs[entry->hProgram]) )

	cmp	DWORD PTR _i$8[ebp], 0
	je	SHORT $LN17@R_DrawShad
	mov	eax, DWORD PTR _entry$7[ebp]
	movzx	ecx, WORD PTR [eax+4]
	imul	edx, ecx, 972
	add	edx, OFFSET ?glsl_programs@@3PAUglsl_prog_s@@A ; glsl_programs
	mov	eax, DWORD PTR ?RI@@3PAUref_instance_t@@A ; RI
	cmp	DWORD PTR [eax+28], edx
	je	$LN16@R_DrawShad
$LN17@R_DrawShad:

; 2332 : 		{
; 2333 : 			GL_BindShader( &glsl_programs[entry->hProgram] );

	mov	eax, DWORD PTR _entry$7[ebp]
	movzx	ecx, WORD PTR [eax+4]
	imul	edx, ecx, 972
	add	edx, OFFSET ?glsl_programs@@3PAUglsl_prog_s@@A ; glsl_programs
	push	edx
	call	?GL_BindShader@@YAXPAUglsl_prog_s@@@Z	; GL_BindShader
	add	esp, 4

; 2334 : 
; 2335 : 			ASSERT( RI->currentshader != NULL );

	mov	eax, DWORD PTR ?RI@@3PAUref_instance_t@@A ; RI
	cmp	DWORD PTR [eax+28], 0
	jne	SHORT $LN18@R_DrawShad
	mov	eax, DWORD PTR ?__LINE__Var@?0??R_DrawShadowBrushList@@YAXXZ@4JA
	add	eax, 58					; 0000003aH
	push	eax
	push	OFFSET ??_C@_0EM@FJLGGOCA@d?3?2?$CBdiffusion?52020?2source?5code?52@
	push	OFFSET ??_C@_0BI@FECCGOFJ@assert?5failed?5at?5?$CFs?3?$CFi?6?$AA@
	call	DWORD PTR ?gRenderfuncs@@3Urender_api_s@@A+236
	add	esp, 12					; 0000000cH
$LN18@R_DrawShad:

; 2336 : 
; 2337 : 			gl_state_t *glm = &tr.cached_state[e->hCachedMatrix];

	mov	eax, DWORD PTR _e$[ebp]
	movzx	ecx, WORD PTR [eax+2976]
	shl	ecx, 7
	add	ecx, OFFSET ?tr@@3Uref_globals_t@@A+6892
	mov	DWORD PTR _glm$2[ebp], ecx

; 2338 : 
; 2339 : 			pglUniformMatrix4fvARB( RI->currentshader->u_ModelMatrix, 1, GL_FALSE, &glm->modelMatrix[0] );

	mov	eax, 4
	imul	ecx, eax, 0
	add	ecx, DWORD PTR _glm$2[ebp]
	push	ecx
	push	0
	push	1
	mov	edx, DWORD PTR ?RI@@3PAUref_instance_t@@A ; RI
	mov	eax, DWORD PTR [edx+28]
	mov	ecx, DWORD PTR [eax+688]
	push	ecx
	call	DWORD PTR ?pglUniformMatrix4fvARB@@3P6GXHHEPBM@ZA ; pglUniformMatrix4fvARB

; 2340 : 			pglUniform2fARB( RI->currentshader->u_TexOffset, es->texofs[0], es->texofs[1] );

	mov	eax, 4
	shl	eax, 0
	mov	ecx, DWORD PTR _es$6[ebp]
	push	ecx
	movss	xmm0, DWORD PTR [ecx+eax+192]
	movss	DWORD PTR [esp], xmm0
	mov	edx, 4
	imul	eax, edx, 0
	mov	ecx, DWORD PTR _es$6[ebp]
	push	ecx
	movss	xmm0, DWORD PTR [ecx+eax+192]
	movss	DWORD PTR [esp], xmm0
	mov	edx, DWORD PTR ?RI@@3PAUref_instance_t@@A ; RI
	mov	eax, DWORD PTR [edx+28]
	mov	ecx, DWORD PTR [eax+860]
	push	ecx
	call	DWORD PTR ?pglUniform2fARB@@3P6GXHMM@ZA	; pglUniform2fARB

; 2341 : 
; 2342 : 			// reset cache
; 2343 : 			cached_texture = -1;

	mov	DWORD PTR _cached_texture$[ebp], -1
$LN16@R_DrawShad:

; 2344 : 		}
; 2345 : 
; 2346 : 		// begin draw the sorted list
; 2347 : 		if( cached_texture != curtex )

	mov	eax, DWORD PTR _cached_texture$[ebp]
	cmp	eax, DWORD PTR _curtex$4[ebp]
	je	SHORT $LN19@R_DrawShad

; 2348 : 		{
; 2349 : 			if( curtex != tr.whiteTexture )

	mov	eax, DWORD PTR _curtex$4[ebp]
	cmp	eax, DWORD PTR ?tr@@3Uref_globals_t@@A+32
	je	SHORT $LN20@R_DrawShad

; 2350 : 				GL_AlphaTest( GL_TRUE );

	push	1
	call	?GL_AlphaTest@@YAXH@Z			; GL_AlphaTest
	add	esp, 4
	jmp	SHORT $LN21@R_DrawShad
$LN20@R_DrawShad:

; 2351 : 			else GL_AlphaTest( GL_FALSE );

	push	0
	call	?GL_AlphaTest@@YAXH@Z			; GL_AlphaTest
	add	esp, 4
$LN21@R_DrawShad:

; 2352 : 
; 2353 : 			GL_Bind( GL_TEXTURE0, curtex );

	mov	eax, DWORD PTR _curtex$4[ebp]
	push	eax
	push	0
	call	DWORD PTR ?gRenderfuncs@@3Urender_api_s@@A+132
	add	esp, 8

; 2354 : 			cached_texture = curtex;

	mov	eax, DWORD PTR _curtex$4[ebp]
	mov	DWORD PTR _cached_texture$[ebp], eax
$LN19@R_DrawShad:

; 2355 : 		}
; 2356 : 
; 2357 : 		if( es->firstvertex < startv )

	mov	eax, DWORD PTR _es$6[ebp]
	mov	ecx, DWORD PTR [eax+128]
	cmp	ecx, DWORD PTR _startv$[ebp]
	jge	SHORT $LN22@R_DrawShad

; 2358 : 			startv = es->firstvertex;

	mov	eax, DWORD PTR _es$6[ebp]
	mov	ecx, DWORD PTR [eax+128]
	mov	DWORD PTR _startv$[ebp], ecx
$LN22@R_DrawShad:

; 2359 : 
; 2360 : 		if( (es->firstvertex + es->numverts) > endv )

	mov	eax, DWORD PTR _es$6[ebp]
	movzx	ecx, WORD PTR [eax+126]
	mov	edx, DWORD PTR _es$6[ebp]
	add	ecx, DWORD PTR [edx+128]
	cmp	ecx, DWORD PTR _endv$[ebp]
	jle	SHORT $LN23@R_DrawShad

; 2361 : 			endv = es->firstvertex + es->numverts;

	mov	eax, DWORD PTR _es$6[ebp]
	movzx	ecx, WORD PTR [eax+126]
	mov	edx, DWORD PTR _es$6[ebp]
	add	ecx, DWORD PTR [edx+128]
	mov	DWORD PTR _endv$[ebp], ecx
$LN23@R_DrawShad:

; 2362 : 
; 2363 : 		// accumulate the indices
; 2364 : 		for( int j = 0; j < es->numverts - 2; j++ )

	mov	DWORD PTR _j$1[ebp], 0
	jmp	SHORT $LN7@R_DrawShad
$LN5@R_DrawShad:
	mov	eax, DWORD PTR _j$1[ebp]
	add	eax, 1
	mov	DWORD PTR _j$1[ebp], eax
$LN7@R_DrawShad:
	mov	eax, DWORD PTR _es$6[ebp]
	movzx	ecx, WORD PTR [eax+126]
	sub	ecx, 2
	cmp	DWORD PTR _j$1[ebp], ecx
	jge	$LN6@R_DrawShad

; 2365 : 		{
; 2366 : 			ASSERT( numTempElems < (MAX_MAP_ELEMS - 3) );

	cmp	DWORD PTR ?numTempElems@@3IA, 327672	; 0004fff8H
	jb	SHORT $LN24@R_DrawShad
	mov	eax, DWORD PTR ?__LINE__Var@?0??R_DrawShadowBrushList@@YAXXZ@4JA
	add	eax, 89					; 00000059H
	push	eax
	push	OFFSET ??_C@_0EM@FJLGGOCA@d?3?2?$CBdiffusion?52020?2source?5code?52@
	push	OFFSET ??_C@_0BI@FECCGOFJ@assert?5failed?5at?5?$CFs?3?$CFi?6?$AA@
	call	DWORD PTR ?gRenderfuncs@@3Urender_api_s@@A+236
	add	esp, 12					; 0000000cH
$LN24@R_DrawShad:

; 2367 : 
; 2368 : 			tempElems[numTempElems++] = es->firstvertex;

	mov	eax, DWORD PTR ?numTempElems@@3IA
	mov	ecx, DWORD PTR _es$6[ebp]
	mov	edx, DWORD PTR [ecx+128]
	mov	DWORD PTR ?tempElems@@3PAIA[eax*4], edx
	mov	eax, DWORD PTR ?numTempElems@@3IA
	add	eax, 1
	mov	DWORD PTR ?numTempElems@@3IA, eax

; 2369 : 			tempElems[numTempElems++] = es->firstvertex + j + 1;

	mov	eax, DWORD PTR _es$6[ebp]
	mov	ecx, DWORD PTR [eax+128]
	mov	edx, DWORD PTR _j$1[ebp]
	lea	eax, DWORD PTR [ecx+edx+1]
	mov	ecx, DWORD PTR ?numTempElems@@3IA
	mov	DWORD PTR ?tempElems@@3PAIA[ecx*4], eax
	mov	edx, DWORD PTR ?numTempElems@@3IA
	add	edx, 1
	mov	DWORD PTR ?numTempElems@@3IA, edx

; 2370 : 			tempElems[numTempElems++] = es->firstvertex + j + 2;

	mov	eax, DWORD PTR _es$6[ebp]
	mov	ecx, DWORD PTR [eax+128]
	mov	edx, DWORD PTR _j$1[ebp]
	lea	eax, DWORD PTR [ecx+edx+2]
	mov	ecx, DWORD PTR ?numTempElems@@3IA
	mov	DWORD PTR ?tempElems@@3PAIA[ecx*4], eax
	mov	edx, DWORD PTR ?numTempElems@@3IA
	add	edx, 1
	mov	DWORD PTR ?numTempElems@@3IA, edx

; 2371 : 		}

	jmp	$LN5@R_DrawShad
$LN6@R_DrawShad:

; 2372 : 	}

	jmp	$LN2@R_DrawShad
$LN3@R_DrawShad:

; 2373 : 
; 2374 : 	if( numTempElems )

	cmp	DWORD PTR ?numTempElems@@3IA, 0
	je	SHORT $LN25@R_DrawShad

; 2375 : 	{
; 2376 : 		pglDrawRangeElementsEXT( GL_TRIANGLES, startv, endv - 1, numTempElems, GL_UNSIGNED_INT, tempElems );

	push	OFFSET ?tempElems@@3PAIA
	push	5125					; 00001405H
	mov	eax, DWORD PTR ?numTempElems@@3IA
	push	eax
	mov	ecx, DWORD PTR _endv$[ebp]
	sub	ecx, 1
	push	ecx
	mov	edx, DWORD PTR _startv$[ebp]
	push	edx
	push	4
	call	DWORD PTR ?pglDrawRangeElementsEXT@@3P6GXIIIHIPBX@ZA ; pglDrawRangeElementsEXT

; 2377 : 		r_stats.c_total_tris += (numTempElems / 3);

	mov	eax, DWORD PTR ?numTempElems@@3IA
	xor	edx, edx
	mov	ecx, 3
	div	ecx
	add	eax, DWORD PTR ?r_stats@@3Uref_stats_t@@A+60
	mov	DWORD PTR ?r_stats@@3Uref_stats_t@@A+60, eax

; 2378 : 		r_stats.num_flushes++;

	mov	eax, DWORD PTR ?r_stats@@3Uref_stats_t@@A+88
	add	eax, 1
	mov	DWORD PTR ?r_stats@@3Uref_stats_t@@A+88, eax

; 2379 : 		startv = MAX_MAP_ELEMS;

	mov	DWORD PTR _startv$[ebp], 327675		; 0004fffbH

; 2380 : 		numTempElems = 0;

	mov	DWORD PTR ?numTempElems@@3IA, 0

; 2381 : 		endv = 0;

	mov	DWORD PTR _endv$[ebp], 0
$LN25@R_DrawShad:

; 2382 : 	}
; 2383 : 
; 2384 : 	GL_SelectTexture( glConfig.max_texture_units - 1 ); // force to cleanup all the units

	mov	eax, DWORD PTR ?glConfig@@3UglConfig_t@@A+52
	sub	eax, 1
	push	eax
	call	DWORD PTR ?gRenderfuncs@@3Urender_api_s@@A+136
	add	esp, 4

; 2385 : 	GL_CleanUpTextureUnits( 0 );

	push	0
	call	DWORD PTR ?gRenderfuncs@@3Urender_api_s@@A+148
	add	esp, 4

; 2386 : 	pglBindVertexArray( GL_FALSE );

	push	0
	call	DWORD PTR ?pglBindVertexArray@@3P6GXI@ZA ; pglBindVertexArray

; 2387 : 	GL_BindShader( GL_FALSE );

	push	0
	call	?GL_BindShader@@YAXPAUglsl_prog_s@@@Z	; GL_BindShader
	add	esp, 4

; 2388 : 	tr.num_draw_surfaces = 0;

	mov	DWORD PTR ?tr@@3Uref_globals_t@@A+5289972, 0

; 2389 : 	//	GL_Cull( GL_FRONT );
; 2390 : 
; 2391 : 	if( R_GrassUseBufferObject() )

	call	?R_GrassUseBufferObject@@YA_NXZ		; R_GrassUseBufferObject
	movzx	eax, al
	test	eax, eax
	je	SHORT $LN26@R_DrawShad

; 2392 : 		R_RenderShadowGrassOnList();

	call	?R_RenderShadowGrassOnList@@YAXXZ	; R_RenderShadowGrassOnList

; 2393 : 	else

	jmp	SHORT $LN27@R_DrawShad
$LN26@R_DrawShad:

; 2394 : 		R_DrawGrass();

	push	0
	call	?R_DrawGrass@@YAXH@Z			; R_DrawGrass
	add	esp, 4
$LN27@R_DrawShad:

; 2395 : 
; 2396 : 	GL_Cull( GL_FRONT );

	push	1028					; 00000404H
	call	?GL_Cull@@YAXI@Z			; GL_Cull
	add	esp, 4
$LN1@R_DrawShad:

; 2397 : }

	pop	edi
	pop	esi
	pop	ebx
	mov	esp, ebp
	pop	ebp
	ret	0
?R_DrawShadowBrushList@@YAXXZ ENDP			; R_DrawShadowBrushList
_TEXT	ENDS
; Function compile flags: /Odtp /ZI
; File d:\!diffusion 2020\source code 2022\client-server\client\render\r_world.cpp
;	COMDAT ?R_RenderDynLightList@@YAXXZ
_TEXT	SEGMENT
tv70 = -73						; size = 1
_i$1 = -8						; size = 4
_pl$ = -4						; size = 4
?R_RenderDynLightList@@YAXXZ PROC			; R_RenderDynLightList, COMDAT

; 2221 : {

	push	ebp
	mov	ebp, esp
	sub	esp, 76					; 0000004cH
	push	ebx
	push	esi
	push	edi

; 2222 : 	if( FBitSet( RI->params, RP_ENVVIEW ) )

	mov	eax, DWORD PTR ?RI@@3PAUref_instance_t@@A ; RI
	mov	ecx, DWORD PTR [eax]
	and	ecx, 2
	je	SHORT $LN5@R_RenderDy

; 2223 : 		return;

	jmp	$LN1@R_RenderDy
$LN5@R_RenderDy:

; 2224 : 
; 2225 : 	if( R_FullBright() )

	cmp	DWORD PTR ?r_fullbright@@3PAUcvar_s@@A, 0 ; r_fullbright
	je	SHORT $LN15@R_RenderDy
	mov	eax, DWORD PTR ?r_fullbright@@3PAUcvar_s@@A ; r_fullbright
	movss	xmm0, DWORD PTR [eax+12]
	ucomiss	xmm0, DWORD PTR __real@00000000
	lahf
	test	ah, 68					; 00000044H
	jnp	SHORT $LN15@R_RenderDy
	mov	BYTE PTR tv70[ebp], 1
	jmp	SHORT $LN16@R_RenderDy
$LN15@R_RenderDy:
	mov	BYTE PTR tv70[ebp], 0
$LN16@R_RenderDy:
	movzx	ecx, BYTE PTR tv70[ebp]
	test	ecx, ecx
	jne	SHORT $LN7@R_RenderDy
	mov	eax, DWORD PTR ?worldmodel@@3PAUmodel_s@@A ; worldmodel
	cmp	DWORD PTR [eax+380], 0
	jne	SHORT $LN6@R_RenderDy
$LN7@R_RenderDy:

; 2226 : 		return;

	jmp	$LN1@R_RenderDy
$LN6@R_RenderDy:

; 2227 : 
; 2228 : 	if( !R_CountPlights() )

	push	0
	call	?R_CountPlights@@YAH_N@Z		; R_CountPlights
	add	esp, 4
	test	eax, eax
	jne	SHORT $LN8@R_RenderDy

; 2229 : 		return;

	jmp	$LN1@R_RenderDy
$LN8@R_RenderDy:

; 2230 : 
; 2231 : 	GL_Blend( GL_TRUE );

	push	1
	call	?GL_Blend@@YAXH@Z			; GL_Blend
	add	esp, 4

; 2232 : 	GL_AlphaTest( GL_FALSE );

	push	0
	call	?GL_AlphaTest@@YAXH@Z			; GL_AlphaTest
	add	esp, 4

; 2233 : 	GL_DepthMask( GL_FALSE ); // diffusion - this caused sunshafts to brighten when flashlight is on, but re-enabling depthmask at the bottom seems to fix it

	push	0
	call	?GL_DepthMask@@YAXH@Z			; GL_DepthMask
	add	esp, 4

; 2234 : 	pglEnable( GL_SCISSOR_TEST );

	push	3089					; 00000c11H
	call	DWORD PTR ?pglEnable@@3P6GXI@ZA		; pglEnable

; 2235 : 	pglBindVertexArray( world->vertex_array_object );

	mov	eax, DWORD PTR ?world@@3PAUgl_world_t@@A ; world
	mov	ecx, DWORD PTR [eax+128]
	push	ecx
	call	DWORD PTR ?pglBindVertexArray@@3P6GXI@ZA ; pglBindVertexArray

; 2236 : 
; 2237 : 	plight_t *pl = cl_plights;

	mov	DWORD PTR _pl$[ebp], OFFSET ?cl_plights@@3PAUplight_s@@A ; cl_plights

; 2238 : 
; 2239 : 	for( int i = 0; i < MAX_PLIGHTS; i++, pl++ )

	mov	DWORD PTR _i$1[ebp], 0
	jmp	SHORT $LN4@R_RenderDy
$LN2@R_RenderDy:
	mov	eax, DWORD PTR _i$1[ebp]
	add	eax, 1
	mov	DWORD PTR _i$1[ebp], eax
	mov	ecx, DWORD PTR _pl$[ebp]
	add	ecx, 768				; 00000300H
	mov	DWORD PTR _pl$[ebp], ecx
$LN4@R_RenderDy:
	cmp	DWORD PTR _i$1[ebp], 96			; 00000060H
	jge	$LN3@R_RenderDy

; 2240 : 	{
; 2241 : 		if( pl->die < tr.time || !pl->radius || pl->culled )

	mov	eax, DWORD PTR _pl$[ebp]
	cvtss2sd xmm0, DWORD PTR [eax+32]
	movsd	xmm1, QWORD PTR ?tr@@3Uref_globals_t@@A+8
	comisd	xmm1, xmm0
	ja	SHORT $LN10@R_RenderDy
	mov	eax, DWORD PTR _pl$[ebp]
	movss	xmm0, DWORD PTR [eax+24]
	ucomiss	xmm0, DWORD PTR __real@00000000
	lahf
	test	ah, 68					; 00000044H
	jnp	SHORT $LN10@R_RenderDy
	mov	eax, DWORD PTR _pl$[ebp]
	movzx	ecx, BYTE PTR [eax+46]
	test	ecx, ecx
	je	SHORT $LN9@R_RenderDy
$LN10@R_RenderDy:

; 2242 : 			continue;

	jmp	SHORT $LN2@R_RenderDy
$LN9@R_RenderDy:

; 2243 : 
; 2244 : 		RI->currentlight = pl;

	mov	eax, DWORD PTR ?RI@@3PAUref_instance_t@@A ; RI
	mov	ecx, DWORD PTR _pl$[ebp]
	mov	DWORD PTR [eax+24], ecx

; 2245 : 
; 2246 : 		if( !Mod_CheckBoxVisible( pl->absmin, pl->absmax ) )

	mov	eax, DWORD PTR _pl$[ebp]
	add	eax, 316				; 0000013cH
	push	eax
	mov	ecx, DWORD PTR _pl$[ebp]
	add	ecx, 304				; 00000130H
	push	ecx
	call	?Mod_CheckBoxVisible@@YA_NABVVector@@0@Z ; Mod_CheckBoxVisible
	add	esp, 8
	movzx	edx, al
	test	edx, edx
	jne	SHORT $LN11@R_RenderDy

; 2247 : 			continue;

	jmp	$LN2@R_RenderDy
$LN11@R_RenderDy:

; 2248 : 
; 2249 : 		if( R_CullBox( pl->absmin, pl->absmax ) )

	push	0
	mov	eax, DWORD PTR _pl$[ebp]
	add	eax, 316				; 0000013cH
	push	eax
	mov	ecx, DWORD PTR _pl$[ebp]
	add	ecx, 304				; 00000130H
	push	ecx
	mov	ecx, DWORD PTR ?RI@@3PAUref_instance_t@@A ; RI
	add	ecx, 48					; 00000030H
	call	?CullBox@CFrustum@@QAE_NABVVector@@0H@Z	; CFrustum::CullBox
	movzx	edx, al
	test	edx, edx
	je	SHORT $LN12@R_RenderDy

; 2250 : 			continue;

	jmp	$LN2@R_RenderDy
$LN12@R_RenderDy:

; 2251 : 
; 2252 : 		// draw world from light position
; 2253 : 		R_BuildFaceListForLight( pl );

	mov	eax, DWORD PTR _pl$[ebp]
	push	eax
	call	?R_BuildFaceListForLight@@YAXPAUplight_s@@@Z ; R_BuildFaceListForLight
	add	esp, 4

; 2254 : 
; 2255 : 		if( !tr.num_light_surfaces && !tr.num_light_grass )

	cmp	DWORD PTR ?tr@@3Uref_globals_t@@A+5814256, 0
	jne	SHORT $LN13@R_RenderDy
	cmp	DWORD PTR ?tr@@3Uref_globals_t@@A+5830948, 0
	jne	SHORT $LN13@R_RenderDy

; 2256 : 			continue;	// no interaction with this light?

	jmp	$LN2@R_RenderDy
$LN13@R_RenderDy:

; 2257 : 
; 2258 : 		R_DrawLightForSurfList( pl );

	mov	eax, DWORD PTR _pl$[ebp]
	push	eax
	call	?R_DrawLightForSurfList@@YAXPAUplight_s@@@Z ; R_DrawLightForSurfList
	add	esp, 4

; 2259 : 	}

	jmp	$LN2@R_RenderDy
$LN3@R_RenderDy:

; 2260 : 
; 2261 : 	GL_SelectTexture( glConfig.max_texture_units - 1 ); // force to cleanup all the units

	mov	eax, DWORD PTR ?glConfig@@3UglConfig_t@@A+52
	sub	eax, 1
	push	eax
	call	DWORD PTR ?gRenderfuncs@@3Urender_api_s@@A+136
	add	esp, 4

; 2262 : 	pglDisable( GL_SCISSOR_TEST );

	push	3089					; 00000c11H
	call	DWORD PTR ?pglDisable@@3P6GXI@ZA	; pglDisable

; 2263 : 
; 2264 : 	GL_CleanUpTextureUnits( 0 );

	push	0
	call	DWORD PTR ?gRenderfuncs@@3Urender_api_s@@A+148
	add	esp, 4

; 2265 : 	RI->currentlight = NULL;

	mov	eax, DWORD PTR ?RI@@3PAUref_instance_t@@A ; RI
	mov	DWORD PTR [eax+24], 0

; 2266 : 
; 2267 : 	GL_DepthMask( GL_TRUE );

	push	1
	call	?GL_DepthMask@@YAXH@Z			; GL_DepthMask
	add	esp, 4
$LN1@R_RenderDy:

; 2268 : }

	pop	edi
	pop	esi
	pop	ebx
	mov	esp, ebp
	pop	ebp
	ret	0
?R_RenderDynLightList@@YAXXZ ENDP			; R_RenderDynLightList
_TEXT	ENDS
; Function compile flags: /Odtp /ZI
; File d:\!diffusion 2020\source code 2022\client-server\client\render\r_world.cpp
;	COMDAT ?R_DrawLightForSurfList@@YAXPAUplight_s@@@Z
_TEXT	SEGMENT
tv426 = -301						; size = 1
tv396 = -301						; size = 1
_sc$1 = -236						; size = 4
_ScaledDynLightBrightness$2 = -232			; size = 64
_waveHeight$3 = -168					; size = 4
_yScale$4 = -164					; size = 4
_xScale$5 = -160					; size = 4
_land$6 = -156						; size = 4
_tx$7 = -152						; size = 4
_shadowHeight$8 = -148					; size = 4
_shadowWidth$9 = -144					; size = 4
_lightdir$10 = -140					; size = 12
_tex$11 = -128						; size = 4
_s$12 = -124						; size = 4
_es$13 = -120						; size = 4
_entry$14 = -116					; size = 4
_i$15 = -112						; size = 4
_lightdir$ = -108					; size = 12
_y2$ = -96						; size = 4
_endv$ = -92						; size = 4
_startv$ = -88						; size = 4
_gl_lightViewProjMatrix$ = -84				; size = 64
_glm$ = -20						; size = 4
_e$ = -16						; size = 4
_flush_buffer$ = -12					; size = 4
_cached_texture$ = -8					; size = 4
__$ArrayPad$ = -4					; size = 4
_pl$ = 8						; size = 4
?R_DrawLightForSurfList@@YAXPAUplight_s@@@Z PROC	; R_DrawLightForSurfList, COMDAT

; 1988 : {

	push	ebp
	mov	ebp, esp
	sub	esp, 304				; 00000130H
	mov	eax, DWORD PTR ___security_cookie
	xor	eax, ebp
	mov	DWORD PTR __$ArrayPad$[ebp], eax
	push	ebx
	push	esi
	push	edi

; 1989 : 	texture_t *cached_texture = NULL;

	mov	DWORD PTR _cached_texture$[ebp], 0

; 1990 : 	qboolean flush_buffer = false;

	mov	DWORD PTR _flush_buffer$[ebp], 0

; 1991 : 	cl_entity_t *e = RI->currententity;

	mov	eax, DWORD PTR ?RI@@3PAUref_instance_t@@A ; RI
	mov	ecx, DWORD PTR [eax+16]
	mov	DWORD PTR _e$[ebp], ecx

; 1992 : 	gl_state_t *glm = &tr.cached_state[e->hCachedMatrix];

	mov	eax, DWORD PTR _e$[ebp]
	movzx	ecx, WORD PTR [eax+2976]
	shl	ecx, 7
	add	ecx, OFFSET ?tr@@3Uref_globals_t@@A+6892
	mov	DWORD PTR _glm$[ebp], ecx

; 1993 : 	GLfloat	gl_lightViewProjMatrix[16];
; 1994 : 	int	startv, endv;
; 1995 : 
; 1996 : 	if( e->curstate.rendermode == kRenderTransAlpha )

	mov	eax, DWORD PTR _e$[ebp]
	cmp	DWORD PTR [eax+760], 4
	jne	SHORT $LN8@R_DrawLigh

; 1997 : 		pglEnable( GL_ALPHA_TEST );

	push	3008					; 00000bc0H
	call	DWORD PTR ?pglEnable@@3P6GXI@ZA		; pglEnable
$LN8@R_DrawLigh:

; 1998 : 	pglBlendFunc( GL_ONE, GL_ONE );

	push	1
	push	1
	call	DWORD PTR ?pglBlendFunc@@3P6GXII@ZA	; pglBlendFunc

; 1999 : 	startv = MAX_MAP_ELEMS;

	mov	DWORD PTR _startv$[ebp], 327675		; 0004fffbH

; 2000 : 	numTempElems = 0;

	mov	DWORD PTR ?numTempElems@@3IA, 0

; 2001 : 	endv = 0;

	mov	DWORD PTR _endv$[ebp], 0

; 2002 : 
; 2003 : 	float y2 = (float)RI->viewport[3] - pl->h - pl->y;

	mov	eax, 4
	imul	ecx, eax, 3
	mov	edx, DWORD PTR ?RI@@3PAUref_instance_t@@A ; RI
	cvtsi2ss xmm0, DWORD PTR [edx+ecx+32]
	mov	eax, DWORD PTR _pl$[ebp]
	subss	xmm0, DWORD PTR [eax+736]
	mov	ecx, DWORD PTR _pl$[ebp]
	subss	xmm0, DWORD PTR [ecx+728]
	movss	DWORD PTR _y2$[ebp], xmm0

; 2004 : 	pglScissor( pl->x, y2, pl->w, pl->h );

	mov	eax, DWORD PTR _pl$[ebp]
	cvttss2si ecx, DWORD PTR [eax+736]
	push	ecx
	mov	edx, DWORD PTR _pl$[ebp]
	cvttss2si eax, DWORD PTR [edx+732]
	push	eax
	cvttss2si ecx, DWORD PTR _y2$[ebp]
	push	ecx
	mov	edx, DWORD PTR _pl$[ebp]
	cvttss2si eax, DWORD PTR [edx+724]
	push	eax
	call	DWORD PTR ?pglScissor@@3P6GXHHHH@ZA	; pglScissor

; 2005 : 
; 2006 : 	Vector lightdir = pl->frustum.GetPlane( FRUSTUM_FAR )->normal;

	push	4
	mov	ecx, DWORD PTR _pl$[ebp]
	add	ecx, 328				; 00000148H
	call	?GetPlane@CFrustum@@QBEPBUmplane_s@@H@Z	; CFrustum::GetPlane
	push	eax
	lea	ecx, DWORD PTR _lightdir$[ebp]
	call	??0Vector@@QAE@ABV0@@Z			; Vector::Vector

; 2007 : 	pl->lightviewProjMatrix.CopyToArray( gl_lightViewProjMatrix );

	lea	eax, DWORD PTR _gl_lightViewProjMatrix$[ebp]
	push	eax
	mov	ecx, DWORD PTR _pl$[ebp]
	add	ecx, 176				; 000000b0H
	call	?CopyToArray@matrix4x4@@QBEXPAM@Z	; matrix4x4::CopyToArray

; 2008 : 
; 2009 : 	for( int i = 0; i < tr.num_light_surfaces; i++ )

	mov	DWORD PTR _i$15[ebp], 0
	jmp	SHORT $LN4@R_DrawLigh
$LN2@R_DrawLigh:
	mov	eax, DWORD PTR _i$15[ebp]
	add	eax, 1
	mov	DWORD PTR _i$15[ebp], eax
$LN4@R_DrawLigh:
	mov	eax, DWORD PTR _i$15[ebp]
	cmp	eax, DWORD PTR ?tr@@3Uref_globals_t@@A+5814256
	jge	$LN3@R_DrawLigh

; 2010 : 	{
; 2011 : 		gl_bmodelface_t *entry = &tr.light_surfaces[i];

	mov	eax, DWORD PTR _i$15[ebp]
	lea	ecx, DWORD PTR ?tr@@3Uref_globals_t@@A[eax*8+5289976]
	mov	DWORD PTR _entry$14[ebp], ecx

; 2012 : 		mextrasurf_t *es = entry->surface->info;

	mov	eax, DWORD PTR _entry$14[ebp]
	mov	ecx, DWORD PTR [eax]
	mov	edx, DWORD PTR [ecx+80]
	mov	DWORD PTR _es$13[ebp], edx

; 2013 : 		msurface_t *s = entry->surface;

	mov	eax, DWORD PTR _entry$14[ebp]
	mov	ecx, DWORD PTR [eax]
	mov	DWORD PTR _s$12[ebp], ecx

; 2014 : 
; 2015 : 		texture_t *tex = R_TextureAnimation( s );

	mov	eax, DWORD PTR _s$12[ebp]
	push	eax
	call	?R_TextureAnimation@@YAPAUtexture_s@@PAUmsurface_s@@@Z ; R_TextureAnimation
	add	esp, 4
	mov	DWORD PTR _tex$11[ebp], eax

; 2016 : 
; 2017 : 		if( (i == 0) || (RI->currentshader != &glsl_programs[entry->hProgram]) )

	cmp	DWORD PTR _i$15[ebp], 0
	je	SHORT $LN10@R_DrawLigh
	mov	eax, DWORD PTR _entry$14[ebp]
	movzx	ecx, WORD PTR [eax+4]
	imul	edx, ecx, 972
	add	edx, OFFSET ?glsl_programs@@3PAUglsl_prog_s@@A ; glsl_programs
	mov	eax, DWORD PTR ?RI@@3PAUref_instance_t@@A ; RI
	cmp	DWORD PTR [eax+28], edx
	je	SHORT $LN9@R_DrawLigh
$LN10@R_DrawLigh:

; 2018 : 			flush_buffer = true;

	mov	DWORD PTR _flush_buffer$[ebp], 1
$LN9@R_DrawLigh:

; 2019 : 
; 2020 : 		if( cached_texture != tex )

	mov	eax, DWORD PTR _cached_texture$[ebp]
	cmp	eax, DWORD PTR _tex$11[ebp]
	je	SHORT $LN11@R_DrawLigh

; 2021 : 			flush_buffer = true;

	mov	DWORD PTR _flush_buffer$[ebp], 1
$LN11@R_DrawLigh:

; 2022 : 
; 2023 : 		if( flush_buffer )

	cmp	DWORD PTR _flush_buffer$[ebp], 0
	je	SHORT $LN12@R_DrawLigh

; 2024 : 		{
; 2025 : 			if( numTempElems )

	cmp	DWORD PTR ?numTempElems@@3IA, 0
	je	SHORT $LN13@R_DrawLigh

; 2026 : 			{
; 2027 : 				pglDrawRangeElementsEXT( GL_TRIANGLES, startv, endv - 1, numTempElems, GL_UNSIGNED_INT, tempElems );

	push	OFFSET ?tempElems@@3PAIA
	push	5125					; 00001405H
	mov	eax, DWORD PTR ?numTempElems@@3IA
	push	eax
	mov	ecx, DWORD PTR _endv$[ebp]
	sub	ecx, 1
	push	ecx
	mov	edx, DWORD PTR _startv$[ebp]
	push	edx
	push	4
	call	DWORD PTR ?pglDrawRangeElementsEXT@@3P6GXIIIHIPBX@ZA ; pglDrawRangeElementsEXT

; 2028 : 				r_stats.c_total_tris += (numTempElems / 3);

	mov	eax, DWORD PTR ?numTempElems@@3IA
	xor	edx, edx
	mov	ecx, 3
	div	ecx
	add	eax, DWORD PTR ?r_stats@@3Uref_stats_t@@A+60
	mov	DWORD PTR ?r_stats@@3Uref_stats_t@@A+60, eax

; 2029 : 				r_stats.num_flushes++;

	mov	eax, DWORD PTR ?r_stats@@3Uref_stats_t@@A+88
	add	eax, 1
	mov	DWORD PTR ?r_stats@@3Uref_stats_t@@A+88, eax

; 2030 : 				startv = MAX_MAP_ELEMS;

	mov	DWORD PTR _startv$[ebp], 327675		; 0004fffbH

; 2031 : 				numTempElems = 0;

	mov	DWORD PTR ?numTempElems@@3IA, 0

; 2032 : 				endv = 0;

	mov	DWORD PTR _endv$[ebp], 0
$LN13@R_DrawLigh:

; 2033 : 			}
; 2034 : 			flush_buffer = false;

	mov	DWORD PTR _flush_buffer$[ebp], 0
$LN12@R_DrawLigh:

; 2035 : 		}
; 2036 : 
; 2037 : 		// begin draw the sorted list
; 2038 : 		if( (i == 0) || (RI->currentshader != &glsl_programs[entry->hProgram]) )

	cmp	DWORD PTR _i$15[ebp], 0
	je	SHORT $LN15@R_DrawLigh
	mov	eax, DWORD PTR _entry$14[ebp]
	movzx	ecx, WORD PTR [eax+4]
	imul	edx, ecx, 972
	add	edx, OFFSET ?glsl_programs@@3PAUglsl_prog_s@@A ; glsl_programs
	mov	eax, DWORD PTR ?RI@@3PAUref_instance_t@@A ; RI
	cmp	DWORD PTR [eax+28], edx
	je	$LN14@R_DrawLigh
$LN15@R_DrawLigh:

; 2039 : 		{
; 2040 : 			Vector lightdir = pl->frustum.GetPlane( FRUSTUM_FAR )->normal;

	push	4
	mov	ecx, DWORD PTR _pl$[ebp]
	add	ecx, 328				; 00000148H
	call	?GetPlane@CFrustum@@QBEPBUmplane_s@@H@Z	; CFrustum::GetPlane
	push	eax
	lea	ecx, DWORD PTR _lightdir$10[ebp]
	call	??0Vector@@QAE@ABV0@@Z			; Vector::Vector

; 2041 : 
; 2042 : 			GL_BindShader( &glsl_programs[entry->hProgram] );

	mov	eax, DWORD PTR _entry$14[ebp]
	movzx	ecx, WORD PTR [eax+4]
	imul	edx, ecx, 972
	add	edx, OFFSET ?glsl_programs@@3PAUglsl_prog_s@@A ; glsl_programs
	push	edx
	call	?GL_BindShader@@YAXPAUglsl_prog_s@@@Z	; GL_BindShader
	add	esp, 4

; 2043 : 
; 2044 : 			ASSERT( RI->currentshader != NULL );

	mov	eax, DWORD PTR ?RI@@3PAUref_instance_t@@A ; RI
	cmp	DWORD PTR [eax+28], 0
	jne	SHORT $LN16@R_DrawLigh
	mov	eax, DWORD PTR ?__LINE__Var@?0??R_DrawLightForSurfList@@YAXPAUplight_s@@@Z@4JA
	add	eax, 56					; 00000038H
	push	eax
	push	OFFSET ??_C@_0EM@FJLGGOCA@d?3?2?$CBdiffusion?52020?2source?5code?52@
	push	OFFSET ??_C@_0BI@FECCGOFJ@assert?5failed?5at?5?$CFs?3?$CFi?6?$AA@
	call	DWORD PTR ?gRenderfuncs@@3Urender_api_s@@A+236
	add	esp, 12					; 0000000cH
$LN16@R_DrawLigh:

; 2045 : 
; 2046 : 			// write constants
; 2047 : 			pglUniformMatrix4fvARB( RI->currentshader->u_LightViewProjectionMatrix, 1, GL_FALSE, &gl_lightViewProjMatrix[0] );

	mov	eax, 4
	imul	ecx, eax, 0
	lea	edx, DWORD PTR _gl_lightViewProjMatrix$[ebp+ecx]
	push	edx
	push	0
	push	1
	mov	eax, DWORD PTR ?RI@@3PAUref_instance_t@@A ; RI
	mov	ecx, DWORD PTR [eax+28]
	mov	edx, DWORD PTR [ecx+696]
	push	edx
	call	DWORD PTR ?pglUniformMatrix4fvARB@@3P6GXHHEPBM@ZA ; pglUniformMatrix4fvARB

; 2048 : 			float shadowWidth = 1.0f / (float)RENDER_GET_PARM( PARM_TEX_WIDTH, pl->shadowTexture[0] );

	mov	eax, 4
	imul	ecx, eax, 0
	mov	edx, DWORD PTR _pl$[ebp]
	mov	eax, DWORD PTR [edx+ecx+468]
	push	eax
	push	1
	call	DWORD PTR ?gRenderfuncs@@3Urender_api_s@@A
	add	esp, 8
	cvtsi2ss xmm0, eax
	movss	xmm1, DWORD PTR __real@3f800000
	divss	xmm1, xmm0
	movss	DWORD PTR _shadowWidth$9[ebp], xmm1

; 2049 : 			float shadowHeight = 1.0f / (float)RENDER_GET_PARM( PARM_TEX_HEIGHT, pl->shadowTexture[0] );

	mov	eax, 4
	imul	ecx, eax, 0
	mov	edx, DWORD PTR _pl$[ebp]
	mov	eax, DWORD PTR [edx+ecx+468]
	push	eax
	push	2
	call	DWORD PTR ?gRenderfuncs@@3Urender_api_s@@A
	add	esp, 8
	cvtsi2ss xmm0, eax
	movss	xmm1, DWORD PTR __real@3f800000
	divss	xmm1, xmm0
	movss	DWORD PTR _shadowHeight$8[ebp], xmm1

; 2050 : 
; 2051 : 			// depth scale and bias and shadowmap resolution
; 2052 : 			pglUniform4fARB( RI->currentshader->u_LightDir, lightdir.x, lightdir.y, lightdir.z, pl->fov );

	mov	eax, DWORD PTR _pl$[ebp]
	push	ecx
	movss	xmm0, DWORD PTR [eax+748]
	movss	DWORD PTR [esp], xmm0
	push	ecx
	movss	xmm0, DWORD PTR _lightdir$10[ebp+8]
	movss	DWORD PTR [esp], xmm0
	push	ecx
	movss	xmm0, DWORD PTR _lightdir$10[ebp+4]
	movss	DWORD PTR [esp], xmm0
	push	ecx
	movss	xmm0, DWORD PTR _lightdir$10[ebp]
	movss	DWORD PTR [esp], xmm0
	mov	ecx, DWORD PTR ?RI@@3PAUref_instance_t@@A ; RI
	mov	edx, DWORD PTR [ecx+28]
	mov	eax, DWORD PTR [edx+744]
	push	eax
	call	DWORD PTR ?pglUniform4fARB@@3P6GXHMMMM@ZA ; pglUniform4fARB

; 2053 : 			pglUniform4fARB( RI->currentshader->u_LightDiffuse, pl->color.r / 255.0f, pl->color.g / 255.0f, pl->color.b / 255.0f, pl->lightFalloff );

	mov	eax, DWORD PTR _pl$[ebp]
	push	ecx
	movss	xmm0, DWORD PTR [eax+740]
	movss	DWORD PTR [esp], xmm0
	mov	ecx, DWORD PTR _pl$[ebp]
	movzx	edx, BYTE PTR [ecx+30]
	cvtsi2ss xmm0, edx
	divss	xmm0, DWORD PTR __real@437f0000
	push	ecx
	movss	DWORD PTR [esp], xmm0
	mov	eax, DWORD PTR _pl$[ebp]
	movzx	ecx, BYTE PTR [eax+29]
	cvtsi2ss xmm0, ecx
	divss	xmm0, DWORD PTR __real@437f0000
	push	ecx
	movss	DWORD PTR [esp], xmm0
	mov	edx, DWORD PTR _pl$[ebp]
	movzx	eax, BYTE PTR [edx+28]
	cvtsi2ss xmm0, eax
	divss	xmm0, DWORD PTR __real@437f0000
	push	ecx
	movss	DWORD PTR [esp], xmm0
	mov	ecx, DWORD PTR ?RI@@3PAUref_instance_t@@A ; RI
	mov	edx, DWORD PTR [ecx+28]
	mov	eax, DWORD PTR [edx+760]
	push	eax
	call	DWORD PTR ?pglUniform4fARB@@3P6GXHMMMM@ZA ; pglUniform4fARB

; 2054 : 			pglUniform4fARB( RI->currentshader->u_ShadowParams, shadowWidth, shadowHeight, -pl->projectionMatrix[2][2], pl->projectionMatrix[3][2] );

	push	3
	mov	ecx, DWORD PTR _pl$[ebp]
	add	ecx, 48					; 00000030H
	call	??Amatrix4x4@@QAEPAMH@Z			; matrix4x4::operator[]
	mov	ecx, 4
	shl	ecx, 1
	push	ecx
	movss	xmm0, DWORD PTR [eax+ecx]
	movss	DWORD PTR [esp], xmm0
	push	2
	mov	ecx, DWORD PTR _pl$[ebp]
	add	ecx, 48					; 00000030H
	call	??Amatrix4x4@@QAEPAMH@Z			; matrix4x4::operator[]
	mov	edx, 4
	shl	edx, 1
	movss	xmm0, DWORD PTR [eax+edx]
	xorps	xmm0, DWORD PTR __xmm@80000000800000008000000080000000
	push	ecx
	movss	DWORD PTR [esp], xmm0
	push	ecx
	movss	xmm0, DWORD PTR _shadowHeight$8[ebp]
	movss	DWORD PTR [esp], xmm0
	push	ecx
	movss	xmm0, DWORD PTR _shadowWidth$9[ebp]
	movss	DWORD PTR [esp], xmm0
	mov	eax, DWORD PTR ?RI@@3PAUref_instance_t@@A ; RI
	mov	ecx, DWORD PTR [eax+28]
	mov	edx, DWORD PTR [ecx+836]
	push	edx
	call	DWORD PTR ?pglUniform4fARB@@3P6GXHMMMM@ZA ; pglUniform4fARB

; 2055 : 			pglUniform4fARB( RI->currentshader->u_LightOrigin, pl->origin.x, pl->origin.y, pl->origin.z, (1.0f / pl->radius) );

	mov	eax, DWORD PTR _pl$[ebp]
	movss	xmm0, DWORD PTR __real@3f800000
	divss	xmm0, DWORD PTR [eax+24]
	push	ecx
	movss	DWORD PTR [esp], xmm0
	mov	ecx, DWORD PTR _pl$[ebp]
	push	ecx
	movss	xmm0, DWORD PTR [ecx+8]
	movss	DWORD PTR [esp], xmm0
	mov	edx, DWORD PTR _pl$[ebp]
	push	ecx
	movss	xmm0, DWORD PTR [edx+4]
	movss	DWORD PTR [esp], xmm0
	mov	eax, DWORD PTR _pl$[ebp]
	push	ecx
	movss	xmm0, DWORD PTR [eax]
	movss	DWORD PTR [esp], xmm0
	mov	ecx, DWORD PTR ?RI@@3PAUref_instance_t@@A ; RI
	mov	edx, DWORD PTR [ecx+28]
	mov	eax, DWORD PTR [edx+792]
	push	eax
	call	DWORD PTR ?pglUniform4fARB@@3P6GXHMMMM@ZA ; pglUniform4fARB

; 2056 : 			pglUniform4fARB( RI->currentshader->u_FogParams, tr.fogColor[0], tr.fogColor[1], tr.fogColor[2], tr.fogDensity );

	push	ecx
	movss	xmm0, DWORD PTR ?tr@@3Uref_globals_t@@A+5830908
	movss	DWORD PTR [esp], xmm0
	mov	ecx, OFFSET ?tr@@3Uref_globals_t@@A+5830896
	call	??BVector@@QAEPAMXZ			; Vector::operator float *
	mov	ecx, 4
	shl	ecx, 1
	push	ecx
	movss	xmm0, DWORD PTR [eax+ecx]
	movss	DWORD PTR [esp], xmm0
	mov	ecx, OFFSET ?tr@@3Uref_globals_t@@A+5830896
	call	??BVector@@QAEPAMXZ			; Vector::operator float *
	mov	edx, 4
	shl	edx, 0
	push	ecx
	movss	xmm0, DWORD PTR [eax+edx]
	movss	DWORD PTR [esp], xmm0
	mov	ecx, OFFSET ?tr@@3Uref_globals_t@@A+5830896
	call	??BVector@@QAEPAMXZ			; Vector::operator float *
	mov	ecx, 4
	imul	edx, ecx, 0
	push	ecx
	movss	xmm0, DWORD PTR [eax+edx]
	movss	DWORD PTR [esp], xmm0
	mov	eax, DWORD PTR ?RI@@3PAUref_instance_t@@A ; RI
	mov	ecx, DWORD PTR [eax+28]
	mov	edx, DWORD PTR [ecx+788]
	push	edx
	call	DWORD PTR ?pglUniform4fARB@@3P6GXHMMMM@ZA ; pglUniform4fARB

; 2057 : 
; 2058 : 			pglUniformMatrix4fvARB( RI->currentshader->u_ModelMatrix, 1, GL_FALSE, &glm->modelMatrix[0] );

	mov	eax, 4
	imul	ecx, eax, 0
	add	ecx, DWORD PTR _glm$[ebp]
	push	ecx
	push	0
	push	1
	mov	edx, DWORD PTR ?RI@@3PAUref_instance_t@@A ; RI
	mov	eax, DWORD PTR [edx+28]
	mov	ecx, DWORD PTR [eax+688]
	push	ecx
	call	DWORD PTR ?pglUniformMatrix4fvARB@@3P6GXHHEPBM@ZA ; pglUniformMatrix4fvARB

; 2059 : 			pglUniform2fARB( RI->currentshader->u_ScreenSizeInv, 1.0f / (float)glState.width, 1.0f / (float)glState.height );

	cvtsi2ss xmm0, DWORD PTR ?glState@@3UglState_t@@A+4
	movss	xmm1, DWORD PTR __real@3f800000
	divss	xmm1, xmm0
	push	ecx
	movss	DWORD PTR [esp], xmm1
	cvtsi2ss xmm0, DWORD PTR ?glState@@3UglState_t@@A
	movss	xmm1, DWORD PTR __real@3f800000
	divss	xmm1, xmm0
	push	ecx
	movss	DWORD PTR [esp], xmm1
	mov	eax, DWORD PTR ?RI@@3PAUref_instance_t@@A ; RI
	mov	ecx, DWORD PTR [eax+28]
	mov	edx, DWORD PTR [ecx+724]
	push	edx
	call	DWORD PTR ?pglUniform2fARB@@3P6GXHMM@ZA	; pglUniform2fARB

; 2060 : 		//	R_SetRenderColor( RI->currententity );
; 2061 : 
; 2062 : 			GL_Bind( GL_TEXTURE2, pl->projectionTexture );

	mov	eax, DWORD PTR _pl$[ebp]
	mov	ecx, DWORD PTR [eax+452]
	push	ecx
	push	2
	call	DWORD PTR ?gRenderfuncs@@3Urender_api_s@@A+132
	add	esp, 8

; 2063 : 			GL_Bind( GL_TEXTURE3, pl->shadowTexture[0] );

	mov	eax, 4
	imul	ecx, eax, 0
	mov	edx, DWORD PTR _pl$[ebp]
	mov	eax, DWORD PTR [edx+ecx+468]
	push	eax
	push	3
	call	DWORD PTR ?gRenderfuncs@@3Urender_api_s@@A+132
	add	esp, 8

; 2064 : 
; 2065 : 			// reset cache
; 2066 : 			cached_texture = NULL;

	mov	DWORD PTR _cached_texture$[ebp], 0
$LN14@R_DrawLigh:

; 2067 : 		}
; 2068 : 
; 2069 : 		if( cached_texture != tex )

	mov	eax, DWORD PTR _cached_texture$[ebp]
	cmp	eax, DWORD PTR _tex$11[ebp]
	je	$LN17@R_DrawLigh

; 2070 : 		{
; 2071 : 			mtexinfo_t *tx = s->texinfo;

	mov	eax, DWORD PTR _s$12[ebp]
	mov	ecx, DWORD PTR [eax+44]
	mov	DWORD PTR _tx$7[ebp], ecx

; 2072 : 			mfaceinfo_t *land = tx->faceinfo;

	mov	eax, DWORD PTR _tx$7[ebp]
	mov	ecx, DWORD PTR [eax+32]
	mov	DWORD PTR _land$6[ebp], ecx

; 2073 : 			float xScale, yScale, waveHeight;
; 2074 : 
; 2075 : 			// set the current waveheight
; 2076 : 			if( s->polys->verts[0][2] >= RI->vieworg[2] )

	mov	eax, DWORD PTR _s$12[ebp]
	mov	ecx, DWORD PTR [eax+36]
	mov	edx, 28					; 0000001cH
	imul	eax, edx, 0
	lea	esi, DWORD PTR [ecx+eax+16]
	mov	edi, 4
	shl	edi, 1
	mov	ecx, DWORD PTR ?RI@@3PAUref_instance_t@@A ; RI
	add	ecx, 204				; 000000ccH
	call	??BVector@@QAEPAMXZ			; Vector::operator float *
	mov	ecx, 4
	shl	ecx, 1
	movss	xmm0, DWORD PTR [esi+edi]
	comiss	xmm0, DWORD PTR [eax+ecx]
	jb	SHORT $LN18@R_DrawLigh

; 2077 : 				waveHeight = -RI->currententity->curstate.scale;

	mov	eax, DWORD PTR ?RI@@3PAUref_instance_t@@A ; RI
	mov	ecx, DWORD PTR [eax+16]
	movss	xmm0, DWORD PTR [ecx+752]
	xorps	xmm0, DWORD PTR __xmm@80000000800000008000000080000000
	movss	DWORD PTR _waveHeight$3[ebp], xmm0
	jmp	SHORT $LN19@R_DrawLigh
$LN18@R_DrawLigh:

; 2078 : 			else waveHeight = RI->currententity->curstate.scale;

	mov	eax, DWORD PTR ?RI@@3PAUref_instance_t@@A ; RI
	mov	ecx, DWORD PTR [eax+16]
	movss	xmm0, DWORD PTR [ecx+752]
	movss	DWORD PTR _waveHeight$3[ebp], xmm0
$LN19@R_DrawLigh:

; 2079 : 
; 2080 : 			if( FBitSet( s->flags, SURF_MOVIE ) && RI->currententity->curstate.body )

	mov	eax, DWORD PTR _s$12[ebp]
	mov	ecx, DWORD PTR [eax+8]
	and	ecx, 2048				; 00000800H
	je	SHORT $LN20@R_DrawLigh
	mov	eax, DWORD PTR ?RI@@3PAUref_instance_t@@A ; RI
	mov	ecx, DWORD PTR [eax+16]
	cmp	DWORD PTR [ecx+788], 0
	je	SHORT $LN20@R_DrawLigh

; 2081 : 			{
; 2082 : 				GL_Bind( GL_TEXTURE0, tr.cinTextures[es->cintexturenum - 1] );

	mov	eax, DWORD PTR _es$13[ebp]
	mov	ecx, DWORD PTR [eax+96]
	mov	edx, DWORD PTR ?tr@@3Uref_globals_t@@A[ecx*4+4936]
	push	edx
	push	0
	call	DWORD PTR ?gRenderfuncs@@3Urender_api_s@@A+132
	add	esp, 8

; 2083 : 				GL_LoadIdentityTexMatrix();

	call	DWORD PTR ?gRenderfuncs@@3Urender_api_s@@A+144
	jmp	$LN25@R_DrawLigh
$LN20@R_DrawLigh:

; 2084 : 			}
; 2085 : 			else if( CVAR_TO_BOOL( r_lightmap ) )

	cmp	DWORD PTR ?r_lightmap@@3PAUcvar_s@@A, 0	; r_lightmap
	je	SHORT $LN54@R_DrawLigh
	mov	eax, DWORD PTR ?r_lightmap@@3PAUcvar_s@@A ; r_lightmap
	movss	xmm0, DWORD PTR [eax+12]
	ucomiss	xmm0, DWORD PTR __real@00000000
	lahf
	test	ah, 68					; 00000044H
	jnp	SHORT $LN54@R_DrawLigh
	mov	BYTE PTR tv396[ebp], 1
	jmp	SHORT $LN55@R_DrawLigh
$LN54@R_DrawLigh:
	mov	BYTE PTR tv396[ebp], 0
$LN55@R_DrawLigh:
	movzx	ecx, BYTE PTR tv396[ebp]
	test	ecx, ecx
	je	SHORT $LN22@R_DrawLigh

; 2086 : 			{
; 2087 : 				GL_Bind( GL_TEXTURE0, tr.whiteTexture );

	mov	eax, DWORD PTR ?tr@@3Uref_globals_t@@A+32
	push	eax
	push	0
	call	DWORD PTR ?gRenderfuncs@@3Urender_api_s@@A+132
	add	esp, 8

; 2088 : 				GL_LoadIdentityTexMatrix();

	call	DWORD PTR ?gRenderfuncs@@3Urender_api_s@@A+144
	jmp	$LN25@R_DrawLigh
$LN22@R_DrawLigh:

; 2089 : 			}
; 2090 : 			else if( FBitSet( s->flags, SURF_LANDSCAPE ) && land && land->terrain )

	mov	eax, DWORD PTR _s$12[ebp]
	mov	ecx, DWORD PTR [eax+8]
	and	ecx, 8192				; 00002000H
	je	$LN24@R_DrawLigh
	cmp	DWORD PTR _land$6[ebp], 0
	je	$LN24@R_DrawLigh
	mov	eax, DWORD PTR _land$6[ebp]
	cmp	DWORD PTR [eax+48], 0
	je	$LN24@R_DrawLigh

; 2091 : 			{
; 2092 : 				if( land->terrain->layermap.gl_diffuse_id )

	mov	eax, DWORD PTR _land$6[ebp]
	mov	ecx, DWORD PTR [eax+48]
	movzx	edx, WORD PTR [ecx+2208]
	test	edx, edx
	je	SHORT $LN26@R_DrawLigh

; 2093 : 					GL_Bind( GL_TEXTURE0, land->terrain->layermap.gl_diffuse_id );

	mov	eax, DWORD PTR _land$6[ebp]
	mov	ecx, DWORD PTR [eax+48]
	movzx	edx, WORD PTR [ecx+2208]
	push	edx
	push	0
	call	DWORD PTR ?gRenderfuncs@@3Urender_api_s@@A+132
	add	esp, 8
	jmp	SHORT $LN29@R_DrawLigh
$LN26@R_DrawLigh:

; 2094 : 				else if( land->terrain->indexmap.gl_diffuse_id && CVAR_TO_BOOL( r_detailtextures ) )

	mov	eax, DWORD PTR _land$6[ebp]
	mov	ecx, DWORD PTR [eax+48]
	movzx	edx, WORD PTR [ecx+144]
	test	edx, edx
	je	SHORT $LN28@R_DrawLigh
	cmp	DWORD PTR ?r_detailtextures@@3PAUcvar_s@@A, 0 ; r_detailtextures
	je	SHORT $LN56@R_DrawLigh
	mov	eax, DWORD PTR ?r_detailtextures@@3PAUcvar_s@@A ; r_detailtextures
	movss	xmm0, DWORD PTR [eax+12]
	ucomiss	xmm0, DWORD PTR __real@00000000
	lahf
	test	ah, 68					; 00000044H
	jnp	SHORT $LN56@R_DrawLigh
	mov	BYTE PTR tv426[ebp], 1
	jmp	SHORT $LN57@R_DrawLigh
$LN56@R_DrawLigh:
	mov	BYTE PTR tv426[ebp], 0
$LN57@R_DrawLigh:
	movzx	ecx, BYTE PTR tv426[ebp]
	test	ecx, ecx
	je	SHORT $LN28@R_DrawLigh

; 2095 : 					GL_Bind( GL_TEXTURE0, tr.grayTexture );

	mov	eax, DWORD PTR ?tr@@3Uref_globals_t@@A+36
	push	eax
	push	0
	call	DWORD PTR ?gRenderfuncs@@3Urender_api_s@@A+132
	add	esp, 8
	jmp	SHORT $LN29@R_DrawLigh
$LN28@R_DrawLigh:

; 2096 : 				else GL_Bind( GL_TEXTURE0, tex->gl_texturenum );

	mov	eax, DWORD PTR _tex$11[ebp]
	mov	ecx, DWORD PTR [eax+24]
	push	ecx
	push	0
	call	DWORD PTR ?gRenderfuncs@@3Urender_api_s@@A+132
	add	esp, 8
$LN29@R_DrawLigh:

; 2097 : 				GL_LoadIdentityTexMatrix();

	call	DWORD PTR ?gRenderfuncs@@3Urender_api_s@@A+144

; 2098 : 			}
; 2099 : 			else

	jmp	SHORT $LN25@R_DrawLigh
$LN24@R_DrawLigh:

; 2100 : 			{
; 2101 : 				GL_Bind( GL_TEXTURE0, tex->gl_texturenum );

	mov	eax, DWORD PTR _tex$11[ebp]
	mov	ecx, DWORD PTR [eax+24]
	push	ecx
	push	0
	call	DWORD PTR ?gRenderfuncs@@3Urender_api_s@@A+132
	add	esp, 8

; 2102 : 				GL_LoadIdentityTexMatrix();

	call	DWORD PTR ?gRenderfuncs@@3Urender_api_s@@A+144
$LN25@R_DrawLigh:

; 2103 : 			}
; 2104 : 
; 2105 : 			if( land && land->terrain && land->terrain->indexmap.gl_diffuse_id != 0 )

	cmp	DWORD PTR _land$6[ebp], 0
	je	SHORT $LN30@R_DrawLigh
	mov	eax, DWORD PTR _land$6[ebp]
	cmp	DWORD PTR [eax+48], 0
	je	SHORT $LN30@R_DrawLigh
	mov	eax, DWORD PTR _land$6[ebp]
	mov	ecx, DWORD PTR [eax+48]
	movzx	edx, WORD PTR [ecx+144]
	test	edx, edx
	je	SHORT $LN30@R_DrawLigh

; 2106 : 				GL_Bind( GL_TEXTURE1, land->terrain->indexmap.gl_diffuse_id );

	mov	eax, DWORD PTR _land$6[ebp]
	mov	ecx, DWORD PTR [eax+48]
	movzx	edx, WORD PTR [ecx+144]
	push	edx
	push	1
	call	DWORD PTR ?gRenderfuncs@@3Urender_api_s@@A+132
	add	esp, 8

; 2107 : 			else 

	jmp	SHORT $LN31@R_DrawLigh
$LN30@R_DrawLigh:

; 2108 : 				GL_Bind( GL_TEXTURE1, tex->dt_texturenum );

	mov	eax, DWORD PTR _tex$11[ebp]
	movzx	ecx, WORD PTR [eax+54]
	push	ecx
	push	1
	call	DWORD PTR ?gRenderfuncs@@3Urender_api_s@@A+132
	add	esp, 8
$LN31@R_DrawLigh:

; 2109 : 
; 2110 : 			GET_DETAIL_SCALE( tex->gl_texturenum, &xScale, &yScale );

	lea	eax, DWORD PTR _yScale$4[ebp]
	push	eax
	lea	ecx, DWORD PTR _xScale$5[ebp]
	push	ecx
	mov	edx, DWORD PTR _tex$11[ebp]
	mov	eax, DWORD PTR [edx+24]
	push	eax
	call	DWORD PTR ?gRenderfuncs@@3Urender_api_s@@A+4
	add	esp, 12					; 0000000cH

; 2111 : 			pglUniform3fARB( RI->currentshader->u_DetailScale, xScale, yScale, waveHeight );

	push	ecx
	movss	xmm0, DWORD PTR _waveHeight$3[ebp]
	movss	DWORD PTR [esp], xmm0
	push	ecx
	movss	xmm0, DWORD PTR _yScale$4[ebp]
	movss	DWORD PTR [esp], xmm0
	push	ecx
	movss	xmm0, DWORD PTR _xScale$5[ebp]
	movss	DWORD PTR [esp], xmm0
	mov	eax, DWORD PTR ?RI@@3PAUref_instance_t@@A ; RI
	mov	ecx, DWORD PTR [eax+28]
	mov	edx, DWORD PTR [ecx+840]
	push	edx
	call	DWORD PTR ?pglUniform3fARB@@3P6GXHMMM@ZA ; pglUniform3fARB

; 2112 : 			pglUniform3fARB( RI->currentshader->u_TexOffset, es->texofs[0], es->texofs[1], tr.time );

	cvtsd2ss xmm0, QWORD PTR ?tr@@3Uref_globals_t@@A+8
	push	ecx
	movss	DWORD PTR [esp], xmm0
	mov	eax, 4
	shl	eax, 0
	mov	ecx, DWORD PTR _es$13[ebp]
	push	ecx
	movss	xmm0, DWORD PTR [ecx+eax+192]
	movss	DWORD PTR [esp], xmm0
	mov	edx, 4
	imul	eax, edx, 0
	mov	ecx, DWORD PTR _es$13[ebp]
	push	ecx
	movss	xmm0, DWORD PTR [ecx+eax+192]
	movss	DWORD PTR [esp], xmm0
	mov	edx, DWORD PTR ?RI@@3PAUref_instance_t@@A ; RI
	mov	eax, DWORD PTR [edx+28]
	mov	ecx, DWORD PTR [eax+860]
	push	ecx
	call	DWORD PTR ?pglUniform3fARB@@3P6GXHMMM@ZA ; pglUniform3fARB

; 2113 : 			pglUniform3fARB( RI->currentshader->u_ViewOrigin, tr.cached_vieworigin.x, tr.cached_vieworigin.y, tr.cached_vieworigin.z );

	push	ecx
	movss	xmm0, DWORD PTR ?tr@@3Uref_globals_t@@A+5836108
	movss	DWORD PTR [esp], xmm0
	push	ecx
	movss	xmm0, DWORD PTR ?tr@@3Uref_globals_t@@A+5836104
	movss	DWORD PTR [esp], xmm0
	push	ecx
	movss	xmm0, DWORD PTR ?tr@@3Uref_globals_t@@A+5836100
	movss	DWORD PTR [esp], xmm0
	mov	eax, DWORD PTR ?RI@@3PAUref_instance_t@@A ; RI
	mov	ecx, DWORD PTR [eax+28]
	mov	edx, DWORD PTR [ecx+800]
	push	edx
	call	DWORD PTR ?pglUniform3fARB@@3P6GXHMMM@ZA ; pglUniform3fARB

; 2114 : 
; 2115 : 			if( ScreenCopyRequired( RI->currentshader ) )

	mov	eax, DWORD PTR ?RI@@3PAUref_instance_t@@A ; RI
	cmp	DWORD PTR [eax+28], 0
	je	SHORT $LN32@R_DrawLigh
	mov	eax, DWORD PTR ?RI@@3PAUref_instance_t@@A ; RI
	mov	ecx, DWORD PTR [eax+28]
	movzx	edx, WORD PTR [ecx+580]
	and	edx, 16					; 00000010H
	je	SHORT $LN32@R_DrawLigh

; 2116 : 				GL_Bind( GL_TEXTURE4, tr.screen_color );

	mov	eax, DWORD PTR ?tr@@3Uref_globals_t@@A+5732
	push	eax
	push	4
	call	DWORD PTR ?gRenderfuncs@@3Urender_api_s@@A+132
	add	esp, 8

; 2117 : 			else

	jmp	SHORT $LN33@R_DrawLigh
$LN32@R_DrawLigh:

; 2118 : 				GL_Bind( GL_TEXTURE4, tr.whiteTexture );

	mov	eax, DWORD PTR ?tr@@3Uref_globals_t@@A+32
	push	eax
	push	4
	call	DWORD PTR ?gRenderfuncs@@3Urender_api_s@@A+132
	add	esp, 8
$LN33@R_DrawLigh:

; 2119 : 
; 2120 : 			if( FBitSet( s->flags, SURF_LANDSCAPE ) && land && land->terrain )

	mov	eax, DWORD PTR _s$12[ebp]
	mov	ecx, DWORD PTR [eax+8]
	and	ecx, 8192				; 00002000H
	je	SHORT $LN34@R_DrawLigh
	cmp	DWORD PTR _land$6[ebp], 0
	je	SHORT $LN34@R_DrawLigh
	mov	eax, DWORD PTR _land$6[ebp]
	cmp	DWORD PTR [eax+48], 0
	je	SHORT $LN34@R_DrawLigh

; 2121 : 			{
; 2122 : 				GL_Bind( GL_TEXTURE5, land->terrain->indexmap.gl_heightmap_id );

	mov	eax, DWORD PTR _land$6[ebp]
	mov	ecx, DWORD PTR [eax+48]
	movzx	edx, WORD PTR [ecx+146]
	push	edx
	push	5
	call	DWORD PTR ?gRenderfuncs@@3Urender_api_s@@A+132
	add	esp, 8

; 2123 : 				GL_Bind( GL_TEXTURE6, land->terrain->layermap.gl_normalmap_id );

	mov	eax, DWORD PTR _land$6[ebp]
	mov	ecx, DWORD PTR [eax+48]
	movzx	edx, WORD PTR [ecx+2212]
	push	edx
	push	6
	call	DWORD PTR ?gRenderfuncs@@3Urender_api_s@@A+132
	add	esp, 8
$LN34@R_DrawLigh:

; 2124 : 			}
; 2125 : 
; 2126 : 			if( FBitSet( s->flags, SURF_LANDSCAPE ) && land && land->terrain )

	mov	eax, DWORD PTR _s$12[ebp]
	mov	ecx, DWORD PTR [eax+8]
	and	ecx, 8192				; 00002000H
	je	$LN35@R_DrawLigh
	cmp	DWORD PTR _land$6[ebp], 0
	je	$LN35@R_DrawLigh
	mov	eax, DWORD PTR _land$6[ebp]
	cmp	DWORD PTR [eax+48], 0
	je	$LN35@R_DrawLigh

; 2127 : 			{
; 2128 : 				float ScaledDynLightBrightness[MAX_LANDSCAPE_LAYERS];
; 2129 : 				memcpy_s( ScaledDynLightBrightness, MAX_LANDSCAPE_LAYERS, land->terrain->layermap.DynlightScale, MAX_LANDSCAPE_LAYERS );

	push	16					; 00000010H
	mov	eax, DWORD PTR _land$6[ebp]
	mov	ecx, DWORD PTR [eax+48]
	add	ecx, 2216				; 000008a8H
	push	ecx
	push	16					; 00000010H
	lea	edx, DWORD PTR _ScaledDynLightBrightness$2[ebp]
	push	edx
	call	_memcpy_s
	add	esp, 16					; 00000010H

; 2130 : 
; 2131 : 				for( int sc = 0; sc < land->terrain->numLayers; sc++ )

	mov	DWORD PTR _sc$1[ebp], 0
	jmp	SHORT $LN7@R_DrawLigh
$LN5@R_DrawLigh:
	mov	eax, DWORD PTR _sc$1[ebp]
	add	eax, 1
	mov	DWORD PTR _sc$1[ebp], eax
$LN7@R_DrawLigh:
	mov	eax, DWORD PTR _land$6[ebp]
	mov	ecx, DWORD PTR [eax+48]
	mov	edx, DWORD PTR _sc$1[ebp]
	cmp	edx, DWORD PTR [ecx+2472]
	jge	SHORT $LN6@R_DrawLigh

; 2132 : 					ScaledDynLightBrightness[sc] *= pl->brightness;

	mov	eax, DWORD PTR _sc$1[ebp]
	mov	ecx, DWORD PTR _pl$[ebp]
	movss	xmm0, DWORD PTR _ScaledDynLightBrightness$2[ebp+eax*4]
	mulss	xmm0, DWORD PTR [ecx+764]
	mov	edx, DWORD PTR _sc$1[ebp]
	movss	DWORD PTR _ScaledDynLightBrightness$2[ebp+edx*4], xmm0
	jmp	SHORT $LN5@R_DrawLigh
$LN6@R_DrawLigh:

; 2133 : 
; 2134 : 				pglUniform1fvARB( RI->currentshader->u_DynLightBrightness, land->terrain->numLayers, &ScaledDynLightBrightness[0] );

	mov	eax, 4
	imul	ecx, eax, 0
	lea	edx, DWORD PTR _ScaledDynLightBrightness$2[ebp+ecx]
	push	edx
	mov	eax, DWORD PTR _land$6[ebp]
	mov	ecx, DWORD PTR [eax+48]
	mov	edx, DWORD PTR [ecx+2472]
	push	edx
	mov	eax, DWORD PTR ?RI@@3PAUref_instance_t@@A ; RI
	mov	ecx, DWORD PTR [eax+28]
	mov	edx, DWORD PTR [ecx+912]
	push	edx
	call	DWORD PTR ?pglUniform1fvARB@@3P6GXHHPBM@ZA ; pglUniform1fvARB

; 2135 : 				pglUniform1fvARB( RI->currentshader->u_GlossSmoothness, land->terrain->numLayers, &land->terrain->layermap.GlossSmoothness[0] );

	mov	eax, DWORD PTR _land$6[ebp]
	mov	ecx, DWORD PTR [eax+48]
	mov	edx, 4
	imul	eax, edx, 0
	lea	ecx, DWORD PTR [ecx+eax+2344]
	push	ecx
	mov	edx, DWORD PTR _land$6[ebp]
	mov	eax, DWORD PTR [edx+48]
	mov	ecx, DWORD PTR [eax+2472]
	push	ecx
	mov	edx, DWORD PTR ?RI@@3PAUref_instance_t@@A ; RI
	mov	eax, DWORD PTR [edx+28]
	mov	ecx, DWORD PTR [eax+920]
	push	ecx
	call	DWORD PTR ?pglUniform1fvARB@@3P6GXHHPBM@ZA ; pglUniform1fvARB

; 2136 : 				pglUniform1fvARB( RI->currentshader->u_GlossScale, land->terrain->numLayers, &land->terrain->layermap.GlossScale[0] );

	mov	eax, DWORD PTR _land$6[ebp]
	mov	ecx, DWORD PTR [eax+48]
	mov	edx, 4
	imul	eax, edx, 0
	lea	ecx, DWORD PTR [ecx+eax+2280]
	push	ecx
	mov	edx, DWORD PTR _land$6[ebp]
	mov	eax, DWORD PTR [edx+48]
	mov	ecx, DWORD PTR [eax+2472]
	push	ecx
	mov	edx, DWORD PTR ?RI@@3PAUref_instance_t@@A ; RI
	mov	eax, DWORD PTR [edx+28]
	mov	ecx, DWORD PTR [eax+916]
	push	ecx
	call	DWORD PTR ?pglUniform1fvARB@@3P6GXHHPBM@ZA ; pglUniform1fvARB

; 2137 : 				pglUniform1fvARB( RI->currentshader->u_EmbossScale, land->terrain->numLayers, &land->terrain->layermap.EmbossScale[0] );

	mov	eax, DWORD PTR _land$6[ebp]
	mov	ecx, DWORD PTR [eax+48]
	mov	edx, 4
	imul	eax, edx, 0
	lea	ecx, DWORD PTR [ecx+eax+2408]
	push	ecx
	mov	edx, DWORD PTR _land$6[ebp]
	mov	eax, DWORD PTR [edx+48]
	mov	ecx, DWORD PTR [eax+2472]
	push	ecx
	mov	edx, DWORD PTR ?RI@@3PAUref_instance_t@@A ; RI
	mov	eax, DWORD PTR [edx+28]
	mov	ecx, DWORD PTR [eax+924]
	push	ecx
	call	DWORD PTR ?pglUniform1fvARB@@3P6GXHHPBM@ZA ; pglUniform1fvARB

; 2138 : 			}
; 2139 : 			else

	jmp	$LN37@R_DrawLigh
$LN35@R_DrawLigh:

; 2140 : 			{
; 2141 : 				pglUniform1fARB( RI->currentshader->u_DynLightBrightness, pl->brightness * tr.materials[s->texinfo->texture->gl_texturenum].DynlightScale );

	mov	eax, DWORD PTR _s$12[ebp]
	mov	ecx, DWORD PTR [eax+44]
	mov	edx, DWORD PTR [ecx+36]
	imul	eax, DWORD PTR [edx+24], 196
	mov	ecx, DWORD PTR _pl$[ebp]
	movss	xmm0, DWORD PTR [ecx+764]
	mulss	xmm0, DWORD PTR ?tr@@3Uref_globals_t@@A[eax+5885472]
	push	ecx
	movss	DWORD PTR [esp], xmm0
	mov	edx, DWORD PTR ?RI@@3PAUref_instance_t@@A ; RI
	mov	eax, DWORD PTR [edx+28]
	mov	ecx, DWORD PTR [eax+912]
	push	ecx
	call	DWORD PTR ?pglUniform1fARB@@3P6GXHM@ZA	; pglUniform1fARB

; 2142 : 				pglUniform1fARB( RI->currentshader->u_GlossSmoothness, tr.materials[s->texinfo->texture->gl_texturenum].GlossSmoothness );

	mov	eax, DWORD PTR _s$12[ebp]
	mov	ecx, DWORD PTR [eax+44]
	mov	edx, DWORD PTR [ecx+36]
	imul	eax, DWORD PTR [edx+24], 196
	push	ecx
	movss	xmm0, DWORD PTR ?tr@@3Uref_globals_t@@A[eax+5885480]
	movss	DWORD PTR [esp], xmm0
	mov	ecx, DWORD PTR ?RI@@3PAUref_instance_t@@A ; RI
	mov	edx, DWORD PTR [ecx+28]
	mov	eax, DWORD PTR [edx+920]
	push	eax
	call	DWORD PTR ?pglUniform1fARB@@3P6GXHM@ZA	; pglUniform1fARB

; 2143 : 				pglUniform1fARB( RI->currentshader->u_GlossScale, tr.materials[s->texinfo->texture->gl_texturenum].GlossScale );

	mov	eax, DWORD PTR _s$12[ebp]
	mov	ecx, DWORD PTR [eax+44]
	mov	edx, DWORD PTR [ecx+36]
	imul	eax, DWORD PTR [edx+24], 196
	push	ecx
	movss	xmm0, DWORD PTR ?tr@@3Uref_globals_t@@A[eax+5885476]
	movss	DWORD PTR [esp], xmm0
	mov	ecx, DWORD PTR ?RI@@3PAUref_instance_t@@A ; RI
	mov	edx, DWORD PTR [ecx+28]
	mov	eax, DWORD PTR [edx+916]
	push	eax
	call	DWORD PTR ?pglUniform1fARB@@3P6GXHM@ZA	; pglUniform1fARB

; 2144 : 				pglUniform1fARB( RI->currentshader->u_EmbossScale, tr.materials[s->texinfo->texture->gl_texturenum].EmbossScale );

	mov	eax, DWORD PTR _s$12[ebp]
	mov	ecx, DWORD PTR [eax+44]
	mov	edx, DWORD PTR [ecx+36]
	imul	eax, DWORD PTR [edx+24], 196
	push	ecx
	movss	xmm0, DWORD PTR ?tr@@3Uref_globals_t@@A[eax+5885484]
	movss	DWORD PTR [esp], xmm0
	mov	ecx, DWORD PTR ?RI@@3PAUref_instance_t@@A ; RI
	mov	edx, DWORD PTR [ecx+28]
	mov	eax, DWORD PTR [edx+924]
	push	eax
	call	DWORD PTR ?pglUniform1fARB@@3P6GXHM@ZA	; pglUniform1fARB

; 2145 : 
; 2146 : 				if( tr.materials[tex->gl_texturenum].gl_normalmap_id > 0 )

	mov	eax, DWORD PTR _tex$11[ebp]
	imul	ecx, DWORD PTR [eax+24], 196
	movzx	edx, WORD PTR ?tr@@3Uref_globals_t@@A[ecx+5885528]
	test	edx, edx
	jle	SHORT $LN37@R_DrawLigh

; 2147 : 					GL_Bind( GL_TEXTURE6, tr.materials[tex->gl_texturenum].gl_normalmap_id );

	mov	eax, DWORD PTR _tex$11[ebp]
	imul	ecx, DWORD PTR [eax+24], 196
	movzx	edx, WORD PTR ?tr@@3Uref_globals_t@@A[ecx+5885528]
	push	edx
	push	6
	call	DWORD PTR ?gRenderfuncs@@3Urender_api_s@@A+132
	add	esp, 8
$LN37@R_DrawLigh:

; 2148 : 			}
; 2149 : 
; 2150 : 			if( FBitSet( s->flags, SURF_WATER ) && (gl_water_refraction->value > 0) && (e->curstate.renderfx != kRenderFxNoRefraction) )

	mov	eax, DWORD PTR _s$12[ebp]
	mov	ecx, DWORD PTR [eax+8]
	and	ecx, 16					; 00000010H
	je	SHORT $LN38@R_DrawLigh
	mov	eax, DWORD PTR ?gl_water_refraction@@3PAUcvar_s@@A ; gl_water_refraction
	movss	xmm0, DWORD PTR [eax+12]
	comiss	xmm0, DWORD PTR __real@00000000
	jbe	SHORT $LN38@R_DrawLigh
	mov	eax, DWORD PTR _e$[ebp]
	cmp	DWORD PTR [eax+772], 28			; 0000001cH
	je	SHORT $LN38@R_DrawLigh

; 2151 : 				GL_Bind( GL_TEXTURE6, tr.waterTextures[(int)(tr.time * 20.0f) % WATER_TEXTURES] ); // u_NormalMap

	movsd	xmm0, QWORD PTR ?tr@@3Uref_globals_t@@A+8
	mulsd	xmm0, QWORD PTR __real@4034000000000000
	cvttsd2si eax, xmm0
	cdq
	mov	ecx, 29					; 0000001dH
	idiv	ecx
	mov	edx, DWORD PTR ?tr@@3Uref_globals_t@@A[edx*4+5748]
	push	edx
	push	6
	call	DWORD PTR ?gRenderfuncs@@3Urender_api_s@@A+132
	add	esp, 8
$LN38@R_DrawLigh:

; 2152 : 
; 2153 : 			// diffusion - interior mapping
; 2154 : 			if( tr.materials[s->texinfo->texture->gl_texturenum].gl_interiormap_id > 0 )

	mov	eax, DWORD PTR _s$12[ebp]
	mov	ecx, DWORD PTR [eax+44]
	mov	edx, DWORD PTR [ecx+36]
	imul	eax, DWORD PTR [edx+24], 196
	movzx	ecx, WORD PTR ?tr@@3Uref_globals_t@@A[eax+5885504]
	test	ecx, ecx
	jle	$LN39@R_DrawLigh

; 2155 : 			{
; 2156 : 				pglUniform1fARB( RI->currentshader->u_RealTime, tr.time );

	cvtsd2ss xmm0, QWORD PTR ?tr@@3Uref_globals_t@@A+8
	push	ecx
	movss	DWORD PTR [esp], xmm0
	mov	eax, DWORD PTR ?RI@@3PAUref_instance_t@@A ; RI
	mov	ecx, DWORD PTR [eax+28]
	mov	edx, DWORD PTR [ecx+868]
	push	edx
	call	DWORD PTR ?pglUniform1fARB@@3P6GXHM@ZA	; pglUniform1fARB

; 2157 : 				pglUniform2fARB( RI->currentshader->u_InteriorGrid, tr.materials[s->texinfo->texture->gl_texturenum].InteriorGrid.x, tr.materials[s->texinfo->texture->gl_texturenum].InteriorGrid.y );

	mov	eax, DWORD PTR _s$12[ebp]
	mov	ecx, DWORD PTR [eax+44]
	mov	edx, DWORD PTR [ecx+36]
	imul	eax, DWORD PTR [edx+24], 196
	push	ecx
	movss	xmm0, DWORD PTR ?tr@@3Uref_globals_t@@A[eax+5885512]
	movss	DWORD PTR [esp], xmm0
	mov	ecx, DWORD PTR _s$12[ebp]
	mov	edx, DWORD PTR [ecx+44]
	mov	eax, DWORD PTR [edx+36]
	imul	ecx, DWORD PTR [eax+24], 196
	push	ecx
	movss	xmm0, DWORD PTR ?tr@@3Uref_globals_t@@A[ecx+5885508]
	movss	DWORD PTR [esp], xmm0
	mov	edx, DWORD PTR ?RI@@3PAUref_instance_t@@A ; RI
	mov	eax, DWORD PTR [edx+28]
	mov	ecx, DWORD PTR [eax+664]
	push	ecx
	call	DWORD PTR ?pglUniform2fARB@@3P6GXHMM@ZA	; pglUniform2fARB

; 2158 : 				pglUniform1fARB( RI->currentshader->u_InteriorLightState, (float)tr.materials[s->texinfo->texture->gl_texturenum].InteriorLightState );

	mov	eax, DWORD PTR _s$12[ebp]
	mov	ecx, DWORD PTR [eax+44]
	mov	edx, DWORD PTR [ecx+36]
	imul	eax, DWORD PTR [edx+24], 196
	cvtsi2ss xmm0, DWORD PTR ?tr@@3Uref_globals_t@@A[eax+5885516]
	push	ecx
	movss	DWORD PTR [esp], xmm0
	mov	ecx, DWORD PTR ?RI@@3PAUref_instance_t@@A ; RI
	mov	edx, DWORD PTR [ecx+28]
	mov	eax, DWORD PTR [edx+668]
	push	eax
	call	DWORD PTR ?pglUniform1fARB@@3P6GXHM@ZA	; pglUniform1fARB

; 2159 : 				GL_Bind( GL_TEXTURE7, tr.materials[s->texinfo->texture->gl_texturenum].gl_interiormap_id ); // u_InteriorMap

	mov	eax, DWORD PTR _s$12[ebp]
	mov	ecx, DWORD PTR [eax+44]
	mov	edx, DWORD PTR [ecx+36]
	imul	eax, DWORD PTR [edx+24], 196
	movzx	ecx, WORD PTR ?tr@@3Uref_globals_t@@A[eax+5885504]
	push	ecx
	push	7
	call	DWORD PTR ?gRenderfuncs@@3Urender_api_s@@A+132
	add	esp, 8
$LN39@R_DrawLigh:

; 2160 : 			}
; 2161 : 
; 2162 : 			// diffusion - apply custom color to a specific texture
; 2163 : 			if( tr.materials[s->texinfo->texture->gl_texturenum].ApplyColor )

	mov	eax, DWORD PTR _s$12[ebp]
	mov	ecx, DWORD PTR [eax+44]
	mov	edx, DWORD PTR [ecx+36]
	imul	eax, DWORD PTR [edx+24], 196
	movzx	ecx, BYTE PTR ?tr@@3Uref_globals_t@@A[eax+5885500]
	test	ecx, ecx
	je	$LN40@R_DrawLigh

; 2164 : 			{
; 2165 : 				// hack
; 2166 : 				if( e->curstate.rendermode == kRenderTransAdd )

	mov	eax, DWORD PTR _e$[ebp]
	cmp	DWORD PTR [eax+760], 5
	jne	$LN42@R_DrawLigh

; 2167 : 				{
; 2168 : 					if( e->curstate.rendercolor.r == 0 && e->curstate.rendercolor.g == 0 && e->curstate.rendercolor.b == 0 )

	mov	eax, DWORD PTR _e$[ebp]
	movzx	ecx, BYTE PTR [eax+768]
	test	ecx, ecx
	jne	SHORT $LN44@R_DrawLigh
	mov	eax, DWORD PTR _e$[ebp]
	movzx	ecx, BYTE PTR [eax+769]
	test	ecx, ecx
	jne	SHORT $LN44@R_DrawLigh
	mov	eax, DWORD PTR _e$[ebp]
	movzx	ecx, BYTE PTR [eax+770]
	test	ecx, ecx
	jne	SHORT $LN44@R_DrawLigh

; 2169 : 						pglUniform4fARB( RI->currentshader->u_RenderColor, 1.0f, 1.0f, 1.0f, tr.blend );

	push	ecx
	movss	xmm0, DWORD PTR ?tr@@3Uref_globals_t@@A+5830912
	movss	DWORD PTR [esp], xmm0
	push	ecx
	movss	xmm0, DWORD PTR __real@3f800000
	movss	DWORD PTR [esp], xmm0
	push	ecx
	movss	xmm0, DWORD PTR __real@3f800000
	movss	DWORD PTR [esp], xmm0
	push	ecx
	movss	xmm0, DWORD PTR __real@3f800000
	movss	DWORD PTR [esp], xmm0
	mov	eax, DWORD PTR ?RI@@3PAUref_instance_t@@A ; RI
	mov	ecx, DWORD PTR [eax+28]
	mov	edx, DWORD PTR [ecx+864]
	push	edx
	call	DWORD PTR ?pglUniform4fARB@@3P6GXHMMMM@ZA ; pglUniform4fARB

; 2170 : 					else

	jmp	SHORT $LN45@R_DrawLigh
$LN44@R_DrawLigh:

; 2171 : 						pglUniform4fARB( RI->currentshader->u_RenderColor, e->curstate.rendercolor.r / 255.0f, e->curstate.rendercolor.g / 255.0f, e->curstate.rendercolor.b / 255.0f, tr.blend );

	push	ecx
	movss	xmm0, DWORD PTR ?tr@@3Uref_globals_t@@A+5830912
	movss	DWORD PTR [esp], xmm0
	mov	eax, DWORD PTR _e$[ebp]
	movzx	ecx, BYTE PTR [eax+770]
	cvtsi2ss xmm0, ecx
	divss	xmm0, DWORD PTR __real@437f0000
	push	ecx
	movss	DWORD PTR [esp], xmm0
	mov	edx, DWORD PTR _e$[ebp]
	movzx	eax, BYTE PTR [edx+769]
	cvtsi2ss xmm0, eax
	divss	xmm0, DWORD PTR __real@437f0000
	push	ecx
	movss	DWORD PTR [esp], xmm0
	mov	ecx, DWORD PTR _e$[ebp]
	movzx	edx, BYTE PTR [ecx+768]
	cvtsi2ss xmm0, edx
	divss	xmm0, DWORD PTR __real@437f0000
	push	ecx
	movss	DWORD PTR [esp], xmm0
	mov	eax, DWORD PTR ?RI@@3PAUref_instance_t@@A ; RI
	mov	ecx, DWORD PTR [eax+28]
	mov	edx, DWORD PTR [ecx+864]
	push	edx
	call	DWORD PTR ?pglUniform4fARB@@3P6GXHMMMM@ZA ; pglUniform4fARB
$LN45@R_DrawLigh:

; 2172 : 				}
; 2173 : 				else

	jmp	SHORT $LN43@R_DrawLigh
$LN42@R_DrawLigh:

; 2174 : 					pglUniform4fARB( RI->currentshader->u_RenderColor, e->curstate.rendercolor.r / 255.0f, e->curstate.rendercolor.g / 255.0f, e->curstate.rendercolor.b / 255.0f, tr.blend );

	push	ecx
	movss	xmm0, DWORD PTR ?tr@@3Uref_globals_t@@A+5830912
	movss	DWORD PTR [esp], xmm0
	mov	eax, DWORD PTR _e$[ebp]
	movzx	ecx, BYTE PTR [eax+770]
	cvtsi2ss xmm0, ecx
	divss	xmm0, DWORD PTR __real@437f0000
	push	ecx
	movss	DWORD PTR [esp], xmm0
	mov	edx, DWORD PTR _e$[ebp]
	movzx	eax, BYTE PTR [edx+769]
	cvtsi2ss xmm0, eax
	divss	xmm0, DWORD PTR __real@437f0000
	push	ecx
	movss	DWORD PTR [esp], xmm0
	mov	ecx, DWORD PTR _e$[ebp]
	movzx	edx, BYTE PTR [ecx+768]
	cvtsi2ss xmm0, edx
	divss	xmm0, DWORD PTR __real@437f0000
	push	ecx
	movss	DWORD PTR [esp], xmm0
	mov	eax, DWORD PTR ?RI@@3PAUref_instance_t@@A ; RI
	mov	ecx, DWORD PTR [eax+28]
	mov	edx, DWORD PTR [ecx+864]
	push	edx
	call	DWORD PTR ?pglUniform4fARB@@3P6GXHMMMM@ZA ; pglUniform4fARB
$LN43@R_DrawLigh:

; 2175 : 			}
; 2176 : 			else

	jmp	SHORT $LN41@R_DrawLigh
$LN40@R_DrawLigh:

; 2177 : 				R_SetRenderColor( RI->currententity );

	mov	eax, DWORD PTR ?RI@@3PAUref_instance_t@@A ; RI
	mov	ecx, DWORD PTR [eax+16]
	push	ecx
	call	?R_SetRenderColor@@YAXPAUcl_entity_s@@@Z ; R_SetRenderColor
	add	esp, 4
$LN41@R_DrawLigh:

; 2178 : 
; 2179 : 			cached_texture = tex;

	mov	eax, DWORD PTR _tex$11[ebp]
	mov	DWORD PTR _cached_texture$[ebp], eax
$LN17@R_DrawLigh:

; 2180 : 		}
; 2181 : 
; 2182 : 		if( es->firstvertex < startv )

	mov	eax, DWORD PTR _es$13[ebp]
	mov	ecx, DWORD PTR [eax+128]
	cmp	ecx, DWORD PTR _startv$[ebp]
	jge	SHORT $LN46@R_DrawLigh

; 2183 : 			startv = es->firstvertex;

	mov	eax, DWORD PTR _es$13[ebp]
	mov	ecx, DWORD PTR [eax+128]
	mov	DWORD PTR _startv$[ebp], ecx
$LN46@R_DrawLigh:

; 2184 : 
; 2185 : 		if( (es->firstvertex + es->numverts) > endv )

	mov	eax, DWORD PTR _es$13[ebp]
	movzx	ecx, WORD PTR [eax+126]
	mov	edx, DWORD PTR _es$13[ebp]
	add	ecx, DWORD PTR [edx+128]
	cmp	ecx, DWORD PTR _endv$[ebp]
	jle	SHORT $LN47@R_DrawLigh

; 2186 : 			endv = es->firstvertex + es->numverts;

	mov	eax, DWORD PTR _es$13[ebp]
	movzx	ecx, WORD PTR [eax+126]
	mov	edx, DWORD PTR _es$13[ebp]
	add	ecx, DWORD PTR [edx+128]
	mov	DWORD PTR _endv$[ebp], ecx
$LN47@R_DrawLigh:

; 2187 : 
; 2188 : 		// accumulate the indices
; 2189 : 		if( FBitSet( s->flags, SURF_WATER ) )

	mov	eax, DWORD PTR _s$12[ebp]
	mov	ecx, DWORD PTR [eax+8]
	and	ecx, 16					; 00000010H
	je	SHORT $LN48@R_DrawLigh

; 2190 : 			R_DrawIndexedSurface( es );

	mov	eax, DWORD PTR _es$13[ebp]
	push	eax
	call	?R_DrawIndexedSurface@@YAXPAUmextrasurf_s@@@Z ; R_DrawIndexedSurface
	add	esp, 4

; 2191 : 		else

	jmp	SHORT $LN49@R_DrawLigh
$LN48@R_DrawLigh:

; 2192 : 			R_DrawSurface( es );

	mov	eax, DWORD PTR _es$13[ebp]
	push	eax
	call	?R_DrawSurface@@YAXPAUmextrasurf_s@@@Z	; R_DrawSurface
	add	esp, 4
$LN49@R_DrawLigh:

; 2193 : 
; 2194 : 		r_stats.num_light_surfaces++;

	mov	eax, DWORD PTR ?r_stats@@3Uref_stats_t@@A+100
	add	eax, 1
	mov	DWORD PTR ?r_stats@@3Uref_stats_t@@A+100, eax

; 2195 : 	}

	jmp	$LN2@R_DrawLigh
$LN3@R_DrawLigh:

; 2196 : 
; 2197 : 	if( numTempElems )

	cmp	DWORD PTR ?numTempElems@@3IA, 0
	je	SHORT $LN50@R_DrawLigh

; 2198 : 	{
; 2199 : 		pglDrawRangeElementsEXT( GL_TRIANGLES, startv, endv - 1, numTempElems, GL_UNSIGNED_INT, tempElems );

	push	OFFSET ?tempElems@@3PAIA
	push	5125					; 00001405H
	mov	eax, DWORD PTR ?numTempElems@@3IA
	push	eax
	mov	ecx, DWORD PTR _endv$[ebp]
	sub	ecx, 1
	push	ecx
	mov	edx, DWORD PTR _startv$[ebp]
	push	edx
	push	4
	call	DWORD PTR ?pglDrawRangeElementsEXT@@3P6GXIIIHIPBX@ZA ; pglDrawRangeElementsEXT

; 2200 : 		r_stats.c_total_tris += (numTempElems / 3);

	mov	eax, DWORD PTR ?numTempElems@@3IA
	xor	edx, edx
	mov	ecx, 3
	div	ecx
	add	eax, DWORD PTR ?r_stats@@3Uref_stats_t@@A+60
	mov	DWORD PTR ?r_stats@@3Uref_stats_t@@A+60, eax

; 2201 : 		r_stats.num_flushes++;

	mov	eax, DWORD PTR ?r_stats@@3Uref_stats_t@@A+88
	add	eax, 1
	mov	DWORD PTR ?r_stats@@3Uref_stats_t@@A+88, eax

; 2202 : 		startv = MAX_MAP_ELEMS;

	mov	DWORD PTR _startv$[ebp], 327675		; 0004fffbH

; 2203 : 		numTempElems = 0;

	mov	DWORD PTR ?numTempElems@@3IA, 0

; 2204 : 		endv = 0;

	mov	DWORD PTR _endv$[ebp], 0
$LN50@R_DrawLigh:

; 2205 : 	}
; 2206 : 
; 2207 : 	if( R_GrassUseBufferObject() )

	call	?R_GrassUseBufferObject@@YA_NXZ		; R_GrassUseBufferObject
	movzx	eax, al
	test	eax, eax
	je	SHORT $LN51@R_DrawLigh

; 2208 : 		R_DrawLightForGrass( pl );

	mov	eax, DWORD PTR _pl$[ebp]
	push	eax
	call	?R_DrawLightForGrass@@YAXPAUplight_s@@@Z ; R_DrawLightForGrass
	add	esp, 4

; 2209 : 	else

	jmp	SHORT $LN52@R_DrawLigh
$LN51@R_DrawLigh:

; 2210 : 		R_DrawGrassLight( pl );

	mov	eax, DWORD PTR _pl$[ebp]
	push	eax
	call	?R_DrawGrassLight@@YAXPAUplight_s@@@Z	; R_DrawGrassLight
	add	esp, 4
$LN52@R_DrawLigh:

; 2211 : }

	pop	edi
	pop	esi
	pop	ebx
	mov	ecx, DWORD PTR __$ArrayPad$[ebp]
	xor	ecx, ebp
	call	@__security_check_cookie@4
	mov	esp, ebp
	pop	ebp
	ret	0
?R_DrawLightForSurfList@@YAXPAUplight_s@@@Z ENDP	; R_DrawLightForSurfList
_TEXT	ENDS
; Function compile flags: /Odtp /ZI
; File d:\!diffusion 2020\source code 2022\client-server\client\render\r_world.cpp
;	COMDAT ?R_BuildFaceListForLight@@YAXPAUplight_s@@@Z
_TEXT	SEGMENT
tv68 = -97						; size = 1
$T1 = -96						; size = 12
_glm$2 = -20						; size = 4
_es$3 = -16						; size = 4
_entry$4 = -12						; size = 4
_i$5 = -8						; size = 4
_e$ = -4						; size = 4
_pl$ = 8						; size = 4
?R_BuildFaceListForLight@@YAXPAUplight_s@@@Z PROC	; R_BuildFaceListForLight, COMDAT

; 1947 : {

	push	ebp
	mov	ebp, esp
	sub	esp, 100				; 00000064H
	push	ebx
	push	esi
	push	edi

; 1948 : 	cl_entity_t *e = RI->currententity;

	mov	eax, DWORD PTR ?RI@@3PAUref_instance_t@@A ; RI
	mov	ecx, DWORD PTR [eax+16]
	mov	DWORD PTR _e$[ebp], ecx

; 1949 : 
; 1950 : 	if( CVAR_TO_BOOL( r_grass ) )

	cmp	DWORD PTR ?r_grass@@3PAUcvar_s@@A, 0	; r_grass
	je	SHORT $LN10@R_BuildFac
	mov	eax, DWORD PTR ?r_grass@@3PAUcvar_s@@A	; r_grass
	movss	xmm0, DWORD PTR [eax+12]
	ucomiss	xmm0, DWORD PTR __real@00000000
	lahf
	test	ah, 68					; 00000044H
	jnp	SHORT $LN10@R_BuildFac
	mov	BYTE PTR tv68[ebp], 1
	jmp	SHORT $LN11@R_BuildFac
$LN10@R_BuildFac:
	mov	BYTE PTR tv68[ebp], 0
$LN11@R_BuildFac:
	movzx	ecx, BYTE PTR tv68[ebp]
	test	ecx, ecx
	je	SHORT $LN5@R_BuildFac

; 1951 : 		R_GrassPrepareLight();

	call	?R_GrassPrepareLight@@YAXXZ		; R_GrassPrepareLight
$LN5@R_BuildFac:

; 1952 : 
; 1953 : 	tr.num_light_surfaces = 0;

	mov	DWORD PTR ?tr@@3Uref_globals_t@@A+5814256, 0

; 1954 : 	tr.modelorg = pl->origin;

	mov	eax, DWORD PTR _pl$[ebp]
	mov	ecx, DWORD PTR [eax]
	mov	DWORD PTR ?tr@@3Uref_globals_t@@A+5852544, ecx
	mov	edx, DWORD PTR [eax+4]
	mov	DWORD PTR ?tr@@3Uref_globals_t@@A+5852548, edx
	mov	eax, DWORD PTR [eax+8]
	mov	DWORD PTR ?tr@@3Uref_globals_t@@A+5852552, eax

; 1955 : 
; 1956 : 	// only visible polys passed through the light list
; 1957 : 	for( int i = 0; i < tr.num_draw_surfaces; i++ )

	mov	DWORD PTR _i$5[ebp], 0
	jmp	SHORT $LN4@R_BuildFac
$LN2@R_BuildFac:
	mov	eax, DWORD PTR _i$5[ebp]
	add	eax, 1
	mov	DWORD PTR _i$5[ebp], eax
$LN4@R_BuildFac:
	mov	eax, DWORD PTR _i$5[ebp]
	cmp	eax, DWORD PTR ?tr@@3Uref_globals_t@@A+5289972
	jge	$LN3@R_BuildFac

; 1958 : 	{
; 1959 : 		gl_bmodelface_t *entry = &tr.draw_surfaces[i];

	mov	eax, DWORD PTR _i$5[ebp]
	lea	ecx, DWORD PTR ?tr@@3Uref_globals_t@@A[eax*8+4765692]
	mov	DWORD PTR _entry$4[ebp], ecx

; 1960 : 		mextrasurf_t *es = entry->surface->info;

	mov	eax, DWORD PTR _entry$4[ebp]
	mov	ecx, DWORD PTR [eax]
	mov	edx, DWORD PTR [ecx+80]
	mov	DWORD PTR _es$3[ebp], edx

; 1961 : 		gl_state_t *glm = &tr.cached_state[e->hCachedMatrix];

	mov	eax, DWORD PTR _e$[ebp]
	movzx	ecx, WORD PTR [eax+2976]
	shl	ecx, 7
	add	ecx, OFFSET ?tr@@3Uref_globals_t@@A+6892
	mov	DWORD PTR _glm$2[ebp], ecx

; 1962 : 		tr.modelorg = glm->transform.VectorITransform( pl->origin );

	mov	eax, DWORD PTR _pl$[ebp]
	push	eax
	lea	ecx, DWORD PTR $T1[ebp]
	push	ecx
	mov	ecx, DWORD PTR _glm$2[ebp]
	add	ecx, 64					; 00000040H
	call	?VectorITransform@matrix4x4@@QBE?AVVector@@ABV2@@Z ; matrix4x4::VectorITransform
	mov	edx, DWORD PTR [eax]
	mov	DWORD PTR ?tr@@3Uref_globals_t@@A+5852544, edx
	mov	ecx, DWORD PTR [eax+4]
	mov	DWORD PTR ?tr@@3Uref_globals_t@@A+5852548, ecx
	mov	edx, DWORD PTR [eax+8]
	mov	DWORD PTR ?tr@@3Uref_globals_t@@A+5852552, edx

; 1963 : 
; 1964 : 		if( es->subtexture[glState.stack_position] && !(es->surf->flags & SURF_WATER) )

	mov	eax, DWORD PTR ?glState@@3UglState_t@@A+112296
	mov	ecx, DWORD PTR _es$3[ebp]
	movsx	edx, WORD PTR [ecx+eax*2+222]
	test	edx, edx
	je	SHORT $LN6@R_BuildFac
	mov	eax, DWORD PTR _es$3[ebp]
	mov	ecx, DWORD PTR [eax+36]
	mov	edx, DWORD PTR [ecx+8]
	and	edx, 16					; 00000010H
	jne	SHORT $LN6@R_BuildFac

; 1965 : 			continue; // don't light the mirrors, portals etc // diffusion - except water

	jmp	$LN2@R_BuildFac
$LN6@R_BuildFac:

; 1966 : 
; 1967 : 		if( (e->curstate.rendermode == kRenderTransAdd) && (e->model->type == mod_brush) )

	mov	eax, DWORD PTR _e$[ebp]
	cmp	DWORD PTR [eax+760], 5
	jne	SHORT $LN7@R_BuildFac
	mov	eax, DWORD PTR _e$[ebp]
	mov	ecx, DWORD PTR [eax+2964]
	cmp	DWORD PTR [ecx+68], 0
	jne	SHORT $LN7@R_BuildFac

; 1968 : 			continue; // diffusion - don't light brushes with additive rendermode

	jmp	$LN2@R_BuildFac
$LN7@R_BuildFac:

; 1969 : 
; 1970 : 		R_AddGrassToChain( entry->surface, &pl->frustum, true );

	push	0
	push	1
	mov	eax, DWORD PTR _pl$[ebp]
	add	eax, 328				; 00000148H
	push	eax
	mov	ecx, DWORD PTR _entry$4[ebp]
	mov	edx, DWORD PTR [ecx]
	push	edx
	call	?R_AddGrassToChain@@YA_NPAUmsurface_s@@PAVCFrustum@@_NPAUmworldleaf_s@@@Z ; R_AddGrassToChain
	add	esp, 16					; 00000010H

; 1971 : 
; 1972 : 		if( R_CullSurfaceExt( entry->surface, &pl->frustum ) )

	mov	eax, DWORD PTR _pl$[ebp]
	add	eax, 328				; 00000148H
	push	eax
	mov	ecx, DWORD PTR _entry$4[ebp]
	mov	edx, DWORD PTR [ecx]
	push	edx
	call	?R_CullSurfaceExt@@YAHPAUmsurface_s@@PAVCFrustum@@@Z ; R_CullSurfaceExt
	add	esp, 8
	test	eax, eax
	je	SHORT $LN8@R_BuildFac

; 1973 : 			continue;

	jmp	$LN2@R_BuildFac
$LN8@R_BuildFac:

; 1974 : 
; 1975 : 		// move from main list into light list
; 1976 : 		R_AddSurfaceToDrawList( entry->surface, true );

	push	1
	mov	eax, DWORD PTR _entry$4[ebp]
	mov	ecx, DWORD PTR [eax]
	push	ecx
	call	?R_AddSurfaceToDrawList@@YA_NPAUmsurface_s@@_N@Z ; R_AddSurfaceToDrawList
	add	esp, 8

; 1977 : 	}

	jmp	$LN2@R_BuildFac
$LN3@R_BuildFac:

; 1978 : }

	pop	edi
	pop	esi
	pop	ebx
	mov	esp, ebp
	pop	ebp
	ret	0
?R_BuildFaceListForLight@@YAXPAUplight_s@@@Z ENDP	; R_BuildFaceListForLight
_TEXT	ENDS
; Function compile flags: /Odtp /ZI
; File d:\!diffusion 2020\source code 2022\client-server\client\render\r_world.cpp
;	COMDAT ?R_AddSurfaceToDrawList@@YA_NPAUmsurface_s@@_N@Z
_TEXT	SEGMENT
_entry$ = -12						; size = 4
_hProgram$ = -8						; size = 2
_e$ = -4						; size = 4
_surf$ = 8						; size = 4
_lightpass$ = 12					; size = 1
?R_AddSurfaceToDrawList@@YA_NPAUmsurface_s@@_N@Z PROC	; R_AddSurfaceToDrawList, COMDAT

; 1869 : {

	push	ebp
	mov	ebp, esp
	sub	esp, 76					; 0000004cH
	push	ebx
	push	esi
	push	edi

; 1870 : 	cl_entity_t *e = RI->currententity;

	mov	eax, DWORD PTR ?RI@@3PAUref_instance_t@@A ; RI
	mov	ecx, DWORD PTR [eax+16]
	mov	DWORD PTR _e$[ebp], ecx

; 1871 : 	word hProgram;
; 1872 : 	gl_bmodelface_t *entry;
; 1873 : 
; 1874 : 	if( FBitSet( RI->params, RP_SHADOWPASS ) )

	mov	eax, DWORD PTR ?RI@@3PAUref_instance_t@@A ; RI
	mov	ecx, DWORD PTR [eax]
	and	ecx, 256				; 00000100H
	je	SHORT $LN2@R_AddSurfa

; 1875 : 		lightpass = false;

	mov	BYTE PTR _lightpass$[ebp], 0
$LN2@R_AddSurfa:

; 1876 : 
; 1877 : 	if( lightpass )

	movzx	eax, BYTE PTR _lightpass$[ebp]
	test	eax, eax
	je	SHORT $LN3@R_AddSurfa

; 1878 : 	{
; 1879 : 		if( tr.num_light_surfaces >= MAX_MAP_FACES )

	cmp	DWORD PTR ?tr@@3Uref_globals_t@@A+5814256, 65535 ; 0000ffffH
	jl	SHORT $LN5@R_AddSurfa

; 1880 : 			return false;

	xor	al, al
	jmp	$LN1@R_AddSurfa
$LN5@R_AddSurfa:

; 1881 : 	}
; 1882 : 	else

	jmp	SHORT $LN4@R_AddSurfa
$LN3@R_AddSurfa:

; 1883 : 	{
; 1884 : 		if( tr.num_draw_surfaces >= MAX_MAP_FACES )

	cmp	DWORD PTR ?tr@@3Uref_globals_t@@A+5289972, 65535 ; 0000ffffH
	jl	SHORT $LN4@R_AddSurfa

; 1885 : 			return false;

	xor	al, al
	jmp	$LN1@R_AddSurfa
$LN4@R_AddSurfa:

; 1886 : 	}
; 1887 : 	
; 1888 : 	if( !(hProgram = R_ChooseBmodelProgram( surf, e, lightpass )) )

	movzx	eax, BYTE PTR _lightpass$[ebp]
	push	eax
	mov	ecx, DWORD PTR _e$[ebp]
	push	ecx
	mov	edx, DWORD PTR _surf$[ebp]
	push	edx
	call	?R_ChooseBmodelProgram@@YAGPAUmsurface_s@@PAUcl_entity_s@@_N@Z ; R_ChooseBmodelProgram
	add	esp, 12					; 0000000cH
	mov	WORD PTR _hProgram$[ebp], ax
	movzx	eax, WORD PTR _hProgram$[ebp]
	test	eax, eax
	jne	SHORT $LN7@R_AddSurfa

; 1889 : 	{
; 1890 : 		return false; // failed to build shader, don't draw this surface

	xor	al, al
	jmp	$LN1@R_AddSurfa
$LN7@R_AddSurfa:

; 1891 : 	}
; 1892 : 
; 1893 : 	if( lightpass ) entry = &tr.light_surfaces[tr.num_light_surfaces++];

	movzx	eax, BYTE PTR _lightpass$[ebp]
	test	eax, eax
	je	SHORT $LN8@R_AddSurfa
	mov	eax, DWORD PTR ?tr@@3Uref_globals_t@@A+5814256
	lea	ecx, DWORD PTR ?tr@@3Uref_globals_t@@A[eax*8+5289976]
	mov	DWORD PTR _entry$[ebp], ecx
	mov	edx, DWORD PTR ?tr@@3Uref_globals_t@@A+5814256
	add	edx, 1
	mov	DWORD PTR ?tr@@3Uref_globals_t@@A+5814256, edx
	jmp	SHORT $LN9@R_AddSurfa
$LN8@R_AddSurfa:

; 1894 : 	else entry = &tr.draw_surfaces[tr.num_draw_surfaces++];

	mov	eax, DWORD PTR ?tr@@3Uref_globals_t@@A+5289972
	lea	ecx, DWORD PTR ?tr@@3Uref_globals_t@@A[eax*8+4765692]
	mov	DWORD PTR _entry$[ebp], ecx
	mov	edx, DWORD PTR ?tr@@3Uref_globals_t@@A+5289972
	add	edx, 1
	mov	DWORD PTR ?tr@@3Uref_globals_t@@A+5289972, edx
$LN9@R_AddSurfa:

; 1895 : 
; 1896 : 	// surface has passed all visibility checks
; 1897 : 	// and can be updating some data (lightmaps, mirror matrix, etc.)
; 1898 : 	R_UpdateSurfaceParams( surf );

	mov	eax, DWORD PTR _surf$[ebp]
	push	eax
	call	?R_UpdateSurfaceParams@@YAXPAUmsurface_s@@@Z ; R_UpdateSurfaceParams
	add	esp, 4

; 1899 : 
; 1900 : 	entry->hProgram = hProgram;

	mov	eax, DWORD PTR _entry$[ebp]
	mov	cx, WORD PTR _hProgram$[ebp]
	mov	WORD PTR [eax+4], cx

; 1901 : 	entry->surface = surf;

	mov	eax, DWORD PTR _entry$[ebp]
	mov	ecx, DWORD PTR _surf$[ebp]
	mov	DWORD PTR [eax], ecx

; 1902 : 
; 1903 : 	// diffusion - added lightpass check (decals were multiplying 3x)
; 1904 : 	if( !FBitSet( RI->params, RP_SHADOWPASS ) && (lightpass == false) )

	mov	eax, DWORD PTR ?RI@@3PAUref_instance_t@@A ; RI
	mov	ecx, DWORD PTR [eax]
	and	ecx, 256				; 00000100H
	jne	SHORT $LN10@R_AddSurfa
	movzx	eax, BYTE PTR _lightpass$[ebp]
	test	eax, eax
	jne	SHORT $LN10@R_AddSurfa

; 1905 : 	{
; 1906 : 		if( surf->pdecals && tr.num_draw_decals < MAX_DECAL_SURFS )

	mov	eax, DWORD PTR _surf$[ebp]
	cmp	DWORD PTR [eax+88], 0
	je	SHORT $LN10@R_AddSurfa
	cmp	DWORD PTR ?tr@@3Uref_globals_t@@A+5830644, 4096 ; 00001000H
	jge	SHORT $LN10@R_AddSurfa

; 1907 : 			tr.draw_decals[tr.num_draw_decals++] = surf;

	mov	eax, DWORD PTR ?tr@@3Uref_globals_t@@A+5830644
	mov	ecx, DWORD PTR _surf$[ebp]
	mov	DWORD PTR ?tr@@3Uref_globals_t@@A[eax*4+5814260], ecx
	mov	edx, DWORD PTR ?tr@@3Uref_globals_t@@A+5830644
	add	edx, 1
	mov	DWORD PTR ?tr@@3Uref_globals_t@@A+5830644, edx
$LN10@R_AddSurfa:

; 1908 : 	}
; 1909 : 
; 1910 : 	return true;

	mov	al, 1
$LN1@R_AddSurfa:

; 1911 : }

	pop	edi
	pop	esi
	pop	ebx
	mov	esp, ebp
	pop	ebp
	ret	0
?R_AddSurfaceToDrawList@@YA_NPAUmsurface_s@@_N@Z ENDP	; R_AddSurfaceToDrawList
_TEXT	ENDS
; Function compile flags: /Odtp /ZI
; File d:\!diffusion 2020\source code 2022\client-server\client\render\r_world.cpp
;	COMDAT ?R_ChooseBmodelProgram@@YAGPAUmsurface_s@@PAUcl_entity_s@@_N@Z
_TEXT	SEGMENT
tv72 = -72						; size = 4
_translucent$ = -1					; size = 1
_surf$ = 8						; size = 4
_e$ = 12						; size = 4
_lightpass$ = 16					; size = 1
?R_ChooseBmodelProgram@@YAGPAUmsurface_s@@PAUcl_entity_s@@_N@Z PROC ; R_ChooseBmodelProgram, COMDAT

; 1836 : {

	push	ebp
	mov	ebp, esp
	sub	esp, 72					; 00000048H
	push	ebx
	push	esi
	push	edi

; 1837 : 	if( FBitSet( RI->params, RP_SHADOWPASS ) ) // shadow pass

	mov	eax, DWORD PTR ?RI@@3PAUref_instance_t@@A ; RI
	mov	ecx, DWORD PTR [eax]
	and	ecx, 256				; 00000100H
	je	SHORT $LN4@R_ChooseBm

; 1838 : 		return (glsl.bmodelDepthFill - glsl_programs);

	mov	eax, DWORD PTR ?glsl@@3Uref_shaders_t@@A+24
	sub	eax, OFFSET ?glsl_programs@@3PAUglsl_prog_s@@A ; glsl_programs
	cdq
	mov	ecx, 972				; 000003ccH
	idiv	ecx
	jmp	$LN1@R_ChooseBm
$LN4@R_ChooseBm:

; 1839 : 	
; 1840 : 	bool translucent = false;

	mov	BYTE PTR _translucent$[ebp], 0

; 1841 : 
; 1842 : 	switch( e->curstate.rendermode )

	mov	eax, DWORD PTR _e$[ebp]
	mov	ecx, DWORD PTR [eax+760]
	mov	DWORD PTR tv72[ebp], ecx
	cmp	DWORD PTR tv72[ebp], 5
	je	SHORT $LN5@R_ChooseBm
	jmp	SHORT $LN2@R_ChooseBm
$LN5@R_ChooseBm:

; 1843 : 	{
; 1844 : 	// case kRenderTransTexture:
; 1845 : 	// case kRenderTransColor:
; 1846 : 	case kRenderTransAdd:
; 1847 : 		translucent = true;

	mov	BYTE PTR _translucent$[ebp], 1
$LN2@R_ChooseBm:

; 1848 : 		break;
; 1849 : 	}
; 1850 : 
; 1851 : 	// diffusion - shader must be reset when model changes appearance
; 1852 : 	// UPD#1: doesn't work if the model was outside of pvs when the change occured!!!
; 1853 : 	if( (e->curstate.renderfx != e->prevstate.renderfx) || (e->curstate.rendermode != e->prevstate.rendermode) )

	mov	eax, DWORD PTR _e$[ebp]
	mov	ecx, DWORD PTR _e$[ebp]
	mov	edx, DWORD PTR [eax+772]
	cmp	edx, DWORD PTR [ecx+432]
	jne	SHORT $LN7@R_ChooseBm
	mov	eax, DWORD PTR _e$[ebp]
	mov	ecx, DWORD PTR _e$[ebp]
	mov	edx, DWORD PTR [eax+760]
	cmp	edx, DWORD PTR [ecx+420]
	je	SHORT $LN6@R_ChooseBm
$LN7@R_ChooseBm:

; 1854 : 		surf->info->glsl_sequence[0] = surf->info->glsl_sequence[1] = 0; // reset it anyway! TEST PERFORMANCE // UPD#2: 100fps -> 82fps TOO BAD! Try to find a solution for UPD#1!

	mov	eax, DWORD PTR _surf$[ebp]
	mov	ecx, DWORD PTR [eax+80]
	mov	edx, 2
	shl	edx, 0
	xor	eax, eax
	mov	WORD PTR [ecx+edx+178], ax
	mov	ecx, DWORD PTR _surf$[ebp]
	mov	edx, DWORD PTR [ecx+80]
	mov	eax, 2
	imul	ecx, eax, 0
	xor	eax, eax
	mov	WORD PTR [edx+ecx+178], ax
$LN6@R_ChooseBm:

; 1855 : 
; 1856 : 	if( lightpass )

	movzx	eax, BYTE PTR _lightpass$[ebp]
	test	eax, eax
	je	SHORT $LN8@R_ChooseBm

; 1857 : 		return GL_UberShaderForBmodelDlight( RI->currentlight, surf, translucent );

	movzx	eax, BYTE PTR _translucent$[ebp]
	push	eax
	mov	ecx, DWORD PTR _surf$[ebp]
	push	ecx
	mov	edx, DWORD PTR ?RI@@3PAUref_instance_t@@A ; RI
	mov	eax, DWORD PTR [edx+24]
	push	eax
	call	?GL_UberShaderForBmodelDlight@@YAGPBUplight_s@@PAUmsurface_s@@_N@Z ; GL_UberShaderForBmodelDlight
	add	esp, 12					; 0000000cH
	jmp	SHORT $LN1@R_ChooseBm
$LN8@R_ChooseBm:

; 1858 : 	return GL_UberShaderForSolidBmodel( surf, translucent );

	movzx	eax, BYTE PTR _translucent$[ebp]
	push	eax
	mov	ecx, DWORD PTR _surf$[ebp]
	push	ecx
	call	?GL_UberShaderForSolidBmodel@@YAGPAUmsurface_s@@_N@Z ; GL_UberShaderForSolidBmodel
	add	esp, 8
$LN1@R_ChooseBm:

; 1859 : }

	pop	edi
	pop	esi
	pop	ebx
	mov	esp, ebp
	pop	ebp
	ret	0
?R_ChooseBmodelProgram@@YAGPAUmsurface_s@@PAUcl_entity_s@@_N@Z ENDP ; R_ChooseBmodelProgram
_TEXT	ENDS
; Function compile flags: /Odtp /ZI
; File d:\!diffusion 2020\source code 2022\client-server\client\render\r_world.cpp
;	COMDAT ?R_DrawIndexedSurface@@YAXPAUmextrasurf_s@@@Z
_TEXT	SEGMENT
_elem$1 = -4						; size = 4
_esurf$ = 8						; size = 4
?R_DrawIndexedSurface@@YAXPAUmextrasurf_s@@@Z PROC	; R_DrawIndexedSurface, COMDAT

; 1827 : {

	push	ebp
	mov	ebp, esp
	sub	esp, 68					; 00000044H
	push	ebx
	push	esi
	push	edi

; 1828 : 	for( int elem = 0; elem < esurf->numindexes; elem++ )

	mov	DWORD PTR _elem$1[ebp], 0
	jmp	SHORT $LN4@R_DrawInde
$LN2@R_DrawInde:
	mov	eax, DWORD PTR _elem$1[ebp]
	add	eax, 1
	mov	DWORD PTR _elem$1[ebp], eax
$LN4@R_DrawInde:
	mov	eax, DWORD PTR _esurf$[ebp]
	movzx	ecx, WORD PTR [eax+220]
	cmp	DWORD PTR _elem$1[ebp], ecx
	jge	SHORT $LN1@R_DrawInde

; 1829 : 	{
; 1830 : 		ASSERT( numTempElems < (MAX_MAP_ELEMS - 3) );

	cmp	DWORD PTR ?numTempElems@@3IA, 327672	; 0004fff8H
	jb	SHORT $LN5@R_DrawInde
	mov	eax, DWORD PTR ?__LINE__Var@?0??R_DrawIndexedSurface@@YAXPAUmextrasurf_s@@@Z@4JA
	add	eax, 3
	push	eax
	push	OFFSET ??_C@_0EM@FJLGGOCA@d?3?2?$CBdiffusion?52020?2source?5code?52@
	push	OFFSET ??_C@_0BI@FECCGOFJ@assert?5failed?5at?5?$CFs?3?$CFi?6?$AA@
	call	DWORD PTR ?gRenderfuncs@@3Urender_api_s@@A+236
	add	esp, 12					; 0000000cH
$LN5@R_DrawInde:

; 1831 : 		tempElems[numTempElems++] = esurf->firstvertex + esurf->indexes[elem];

	mov	eax, DWORD PTR _esurf$[ebp]
	mov	ecx, DWORD PTR [eax+216]
	mov	edx, DWORD PTR _elem$1[ebp]
	movzx	eax, WORD PTR [ecx+edx*2]
	mov	ecx, DWORD PTR _esurf$[ebp]
	add	eax, DWORD PTR [ecx+128]
	mov	edx, DWORD PTR ?numTempElems@@3IA
	mov	DWORD PTR ?tempElems@@3PAIA[edx*4], eax
	mov	eax, DWORD PTR ?numTempElems@@3IA
	add	eax, 1
	mov	DWORD PTR ?numTempElems@@3IA, eax

; 1832 : 	}

	jmp	SHORT $LN2@R_DrawInde
$LN1@R_DrawInde:

; 1833 : }

	pop	edi
	pop	esi
	pop	ebx
	mov	esp, ebp
	pop	ebp
	ret	0
?R_DrawIndexedSurface@@YAXPAUmextrasurf_s@@@Z ENDP	; R_DrawIndexedSurface
_TEXT	ENDS
; Function compile flags: /Odtp /ZI
; File d:\!diffusion 2020\source code 2022\client-server\client\render\r_world.cpp
;	COMDAT ?R_DrawSurface@@YAXPAUmextrasurf_s@@@Z
_TEXT	SEGMENT
_vert$1 = -4						; size = 4
_esurf$ = 8						; size = 4
?R_DrawSurface@@YAXPAUmextrasurf_s@@@Z PROC		; R_DrawSurface, COMDAT

; 1815 : {

	push	ebp
	mov	ebp, esp
	sub	esp, 68					; 00000044H
	push	ebx
	push	esi
	push	edi

; 1816 : 	for( int vert = 0; vert < esurf->numverts - 2; vert++ )

	mov	DWORD PTR _vert$1[ebp], 0
	jmp	SHORT $LN4@R_DrawSurf
$LN2@R_DrawSurf:
	mov	eax, DWORD PTR _vert$1[ebp]
	add	eax, 1
	mov	DWORD PTR _vert$1[ebp], eax
$LN4@R_DrawSurf:
	mov	eax, DWORD PTR _esurf$[ebp]
	movzx	ecx, WORD PTR [eax+126]
	sub	ecx, 2
	cmp	DWORD PTR _vert$1[ebp], ecx
	jge	$LN1@R_DrawSurf

; 1817 : 	{
; 1818 : 		ASSERT( numTempElems < (MAX_MAP_ELEMS - 3) );

	cmp	DWORD PTR ?numTempElems@@3IA, 327672	; 0004fff8H
	jb	SHORT $LN5@R_DrawSurf
	mov	eax, DWORD PTR ?__LINE__Var@?0??R_DrawSurface@@YAXPAUmextrasurf_s@@@Z@4JA
	add	eax, 3
	push	eax
	push	OFFSET ??_C@_0EM@FJLGGOCA@d?3?2?$CBdiffusion?52020?2source?5code?52@
	push	OFFSET ??_C@_0BI@FECCGOFJ@assert?5failed?5at?5?$CFs?3?$CFi?6?$AA@
	call	DWORD PTR ?gRenderfuncs@@3Urender_api_s@@A+236
	add	esp, 12					; 0000000cH
$LN5@R_DrawSurf:

; 1819 : 		tempElems[numTempElems++] = esurf->firstvertex;

	mov	eax, DWORD PTR ?numTempElems@@3IA
	mov	ecx, DWORD PTR _esurf$[ebp]
	mov	edx, DWORD PTR [ecx+128]
	mov	DWORD PTR ?tempElems@@3PAIA[eax*4], edx
	mov	eax, DWORD PTR ?numTempElems@@3IA
	add	eax, 1
	mov	DWORD PTR ?numTempElems@@3IA, eax

; 1820 : 		tempElems[numTempElems++] = esurf->firstvertex + vert + 1;

	mov	eax, DWORD PTR _esurf$[ebp]
	mov	ecx, DWORD PTR [eax+128]
	mov	edx, DWORD PTR _vert$1[ebp]
	lea	eax, DWORD PTR [ecx+edx+1]
	mov	ecx, DWORD PTR ?numTempElems@@3IA
	mov	DWORD PTR ?tempElems@@3PAIA[ecx*4], eax
	mov	edx, DWORD PTR ?numTempElems@@3IA
	add	edx, 1
	mov	DWORD PTR ?numTempElems@@3IA, edx

; 1821 : 		tempElems[numTempElems++] = esurf->firstvertex + vert + 2;

	mov	eax, DWORD PTR _esurf$[ebp]
	mov	ecx, DWORD PTR [eax+128]
	mov	edx, DWORD PTR _vert$1[ebp]
	lea	eax, DWORD PTR [ecx+edx+2]
	mov	ecx, DWORD PTR ?numTempElems@@3IA
	mov	DWORD PTR ?tempElems@@3PAIA[ecx*4], eax
	mov	edx, DWORD PTR ?numTempElems@@3IA
	add	edx, 1
	mov	DWORD PTR ?numTempElems@@3IA, edx

; 1822 : 	}

	jmp	$LN2@R_DrawSurf
$LN1@R_DrawSurf:

; 1823 : }

	pop	edi
	pop	esi
	pop	ebx
	mov	esp, ebp
	pop	ebp
	ret	0
?R_DrawSurface@@YAXPAUmextrasurf_s@@@Z ENDP		; R_DrawSurface
_TEXT	ENDS
; Function compile flags: /Odtp /ZI
; File d:\!diffusion 2020\source code 2022\client-server\client\render\r_world.cpp
;	COMDAT ?Mod_FreeWorld@@YAXPAUmodel_s@@@Z
_TEXT	SEGMENT
_i$1 = -12						; size = 4
_tx$2 = -8						; size = 4
_i$3 = -4						; size = 4
_mod$ = 8						; size = 4
?Mod_FreeWorld@@YAXPAUmodel_s@@@Z PROC			; Mod_FreeWorld, COMDAT

; 1722 : {

	push	ebp
	mov	ebp, esp
	sub	esp, 76					; 0000004cH
	push	ebx
	push	esi
	push	edi

; 1723 : 	//	Msg( "Mod_FreeWorld: %s\n", world->name );
; 1724 : 
; 1725 : 	Mod_FreeCubemaps();

	call	?Mod_FreeCubemaps@@YAXXZ		; Mod_FreeCubemaps

; 1726 : 
; 1727 : 	for( int i = 0; i < worldmodel->numtextures; i++ )

	mov	DWORD PTR _i$3[ebp], 0
	jmp	SHORT $LN4@Mod_FreeWo
$LN2@Mod_FreeWo:
	mov	eax, DWORD PTR _i$3[ebp]
	add	eax, 1
	mov	DWORD PTR _i$3[ebp], eax
$LN4@Mod_FreeWo:
	mov	eax, DWORD PTR ?worldmodel@@3PAUmodel_s@@A ; worldmodel
	mov	ecx, DWORD PTR _i$3[ebp]
	cmp	ecx, DWORD PTR [eax+368]
	jge	SHORT $LN3@Mod_FreeWo

; 1728 : 	{
; 1729 : 		texture_t *tx = worldmodel->textures[i];

	mov	eax, DWORD PTR ?worldmodel@@3PAUmodel_s@@A ; worldmodel
	mov	ecx, DWORD PTR [eax+372]
	mov	edx, DWORD PTR _i$3[ebp]
	mov	eax, DWORD PTR [ecx+edx*4]
	mov	DWORD PTR _tx$2[ebp], eax

; 1730 : 
; 1731 : 		// bad texture? 
; 1732 : 		if( !tx || !tx->name[0] ) continue;

	cmp	DWORD PTR _tx$2[ebp], 0
	je	SHORT $LN9@Mod_FreeWo
	mov	eax, 1
	imul	ecx, eax, 0
	mov	edx, DWORD PTR _tx$2[ebp]
	movsx	eax, BYTE PTR [edx+ecx]
	test	eax, eax
	jne	SHORT $LN8@Mod_FreeWo
$LN9@Mod_FreeWo:
	jmp	SHORT $LN2@Mod_FreeWo
$LN8@Mod_FreeWo:

; 1733 : 
; 1734 : 		FREE_TEXTURE( tx->fb_texturenum );

	mov	eax, DWORD PTR _tx$2[ebp]
	movzx	ecx, WORD PTR [eax+52]
	push	ecx
	call	DWORD PTR ?gRenderfuncs@@3Urender_api_s@@A+76
	add	esp, 4

; 1735 : 	}

	jmp	SHORT $LN2@Mod_FreeWo
$LN3@Mod_FreeWo:

; 1736 : 
; 1737 : 	if( world->leafs )

	mov	eax, DWORD PTR ?world@@3PAUgl_world_t@@A ; world
	cmp	DWORD PTR [eax+68], 0
	je	SHORT $LN10@Mod_FreeWo

; 1738 : 		Mem_Free( world->leafs );

	mov	eax, DWORD PTR ?__LINE__Var@?0??Mod_FreeWorld@@YAXPAUmodel_s@@@Z@4JA
	add	eax, 16					; 00000010H
	push	eax
	push	OFFSET ??_C@_0EM@FJLGGOCA@d?3?2?$CBdiffusion?52020?2source?5code?52@
	mov	ecx, DWORD PTR ?world@@3PAUgl_world_t@@A ; world
	mov	edx, DWORD PTR [ecx+68]
	push	edx
	call	DWORD PTR ?gRenderfuncs@@3Urender_api_s@@A+220
	add	esp, 12					; 0000000cH
$LN10@Mod_FreeWo:

; 1739 : 	world->leafs = NULL;

	mov	eax, DWORD PTR ?world@@3PAUgl_world_t@@A ; world
	mov	DWORD PTR [eax+68], 0

; 1740 : 
; 1741 : 	if( world->vertexes )

	mov	eax, DWORD PTR ?world@@3PAUgl_world_t@@A ; world
	cmp	DWORD PTR [eax+112], 0
	je	SHORT $LN11@Mod_FreeWo

; 1742 : 		Mem_Free( world->vertexes );

	mov	eax, DWORD PTR ?__LINE__Var@?0??Mod_FreeWorld@@YAXPAUmodel_s@@@Z@4JA
	add	eax, 20					; 00000014H
	push	eax
	push	OFFSET ??_C@_0EM@FJLGGOCA@d?3?2?$CBdiffusion?52020?2source?5code?52@
	mov	ecx, DWORD PTR ?world@@3PAUgl_world_t@@A ; world
	mov	edx, DWORD PTR [ecx+112]
	push	edx
	call	DWORD PTR ?gRenderfuncs@@3Urender_api_s@@A+220
	add	esp, 12					; 0000000cH
$LN11@Mod_FreeWo:

; 1743 : 	world->vertexes = NULL;

	mov	eax, DWORD PTR ?world@@3PAUgl_world_t@@A ; world
	mov	DWORD PTR [eax+112], 0

; 1744 : 
; 1745 : 	if( world->vertex_lighting )

	mov	eax, DWORD PTR ?world@@3PAUgl_world_t@@A ; world
	cmp	DWORD PTR [eax+120], 0
	je	SHORT $LN12@Mod_FreeWo

; 1746 : 		Mem_Free( world->vertex_lighting );

	mov	eax, DWORD PTR ?__LINE__Var@?0??Mod_FreeWorld@@YAXPAUmodel_s@@@Z@4JA
	add	eax, 24					; 00000018H
	push	eax
	push	OFFSET ??_C@_0EM@FJLGGOCA@d?3?2?$CBdiffusion?52020?2source?5code?52@
	mov	ecx, DWORD PTR ?world@@3PAUgl_world_t@@A ; world
	mov	edx, DWORD PTR [ecx+120]
	push	edx
	call	DWORD PTR ?gRenderfuncs@@3Urender_api_s@@A+220
	add	esp, 12					; 0000000cH
$LN12@Mod_FreeWo:

; 1747 : 	world->vertex_lighting = NULL;

	mov	eax, DWORD PTR ?world@@3PAUgl_world_t@@A ; world
	mov	DWORD PTR [eax+120], 0

; 1748 : 
; 1749 : 	// destroy VBO & VAO
; 1750 : 	Mod_DeleteBufferObject();

	call	?Mod_DeleteBufferObject@@YAXXZ		; Mod_DeleteBufferObject

; 1751 : 
; 1752 : 	// free old cinematics
; 1753 : 	R_FreeCinematics();

	call	?R_FreeCinematics@@YAXXZ		; R_FreeCinematics

; 1754 : 
; 1755 : 	// free landscapes
; 1756 : 	R_FreeLandscapes();

	call	?R_FreeLandscapes@@YAXXZ		; R_FreeLandscapes

; 1757 : 
; 1758 : 	if( FBitSet( world->features, WORLD_HAS_GRASS ) )

	mov	eax, DWORD PTR ?world@@3PAUgl_world_t@@A ; world
	movzx	ecx, WORD PTR [eax+64]
	and	ecx, 16					; 00000010H
	je	SHORT $LN13@Mod_FreeWo

; 1759 : 	{
; 1760 : 		// throw grass vbo's
; 1761 : 		for( int i = 0; i < worldmodel->numsurfaces; i++ )

	mov	DWORD PTR _i$1[ebp], 0
	jmp	SHORT $LN7@Mod_FreeWo
$LN5@Mod_FreeWo:
	mov	eax, DWORD PTR _i$1[ebp]
	add	eax, 1
	mov	DWORD PTR _i$1[ebp], eax
$LN7@Mod_FreeWo:
	mov	eax, DWORD PTR ?worldmodel@@3PAUmodel_s@@A ; worldmodel
	mov	ecx, DWORD PTR _i$1[ebp]
	cmp	ecx, DWORD PTR [eax+176]
	jge	SHORT $LN13@Mod_FreeWo

; 1762 : 			R_RemoveGrassForSurface( worldmodel->surfaces[i].info );

	imul	eax, DWORD PTR _i$1[ebp], 92
	mov	ecx, DWORD PTR ?worldmodel@@3PAUmodel_s@@A ; worldmodel
	mov	edx, DWORD PTR [ecx+180]
	mov	eax, DWORD PTR [edx+eax+80]
	push	eax
	call	?R_RemoveGrassForSurface@@YAXPAUmextrasurf_s@@@Z ; R_RemoveGrassForSurface
	add	esp, 4
	jmp	SHORT $LN5@Mod_FreeWo
$LN13@Mod_FreeWo:

; 1763 : 	}
; 1764 : 
; 1765 : 	memset( world, 0, sizeof( gl_world_t ) );

	push	114988					; 0001c12cH
	push	0
	mov	eax, DWORD PTR ?world@@3PAUgl_world_t@@A ; world
	push	eax
	call	_memset
	add	esp, 12					; 0000000cH

; 1766 : 	tr.grass_total_size = 0;

	mov	DWORD PTR ?tr@@3Uref_globals_t@@A+5852556, 0

; 1767 : }

	pop	edi
	pop	esi
	pop	ebx
	mov	esp, ebp
	pop	ebp
	ret	0
?Mod_FreeWorld@@YAXPAUmodel_s@@@Z ENDP			; Mod_FreeWorld
_TEXT	ENDS
; Function compile flags: /Odtp /ZI
; File d:\!diffusion 2020\source code 2022\client-server\client\render\r_world.cpp
;	COMDAT ?Mod_LoadWorld@@YAXPAUmodel_s@@PBE@Z
_TEXT	SEGMENT
tv299 = -102						; size = 1
tv295 = -101						; size = 1
_tex$1 = -36						; size = 4
_surf$2 = -32						; size = 4
_j$3 = -28						; size = 4
_surf$4 = -24						; size = 4
_bm$5 = -20						; size = 4
_visclusters$ = -16					; size = 4
_i$ = -12						; size = 4
_extrahdr$ = -8						; size = 4
_header$ = -4						; size = 4
_mod$ = 8						; size = 4
_buf$ = 12						; size = 4
?Mod_LoadWorld@@YAXPAUmodel_s@@PBE@Z PROC		; Mod_LoadWorld, COMDAT

; 1575 : {

	push	ebp
	mov	ebp, esp
	sub	esp, 104				; 00000068H
	push	ebx
	push	esi
	push	edi

; 1576 : 	dheader_t *header;
; 1577 : 	dextrahdr_t *extrahdr;
; 1578 : 	int i;
; 1579 : 
; 1580 : 	header = (dheader_t *)buf;

	mov	eax, DWORD PTR _buf$[ebp]
	mov	DWORD PTR _header$[ebp], eax

; 1581 : 	extrahdr = (dextrahdr_t *)((byte *)buf + sizeof( dheader_t ));

	mov	eax, DWORD PTR _buf$[ebp]
	add	eax, 124				; 0000007cH
	mov	DWORD PTR _extrahdr$[ebp], eax

; 1582 : 
; 1583 : 	if( RENDER_GET_PARM( PARM_MAP_HAS_DELUXE, 0 ) )

	push	0
	push	19					; 00000013H
	call	DWORD PTR ?gRenderfuncs@@3Urender_api_s@@A
	add	esp, 8
	test	eax, eax
	je	SHORT $LN17@Mod_LoadWo

; 1584 : 		SetBits( world->features, WORLD_HAS_DELUXEMAP );

	mov	eax, DWORD PTR ?world@@3PAUgl_world_t@@A ; world
	movzx	ecx, WORD PTR [eax+64]
	or	ecx, 32					; 00000020H
	mov	edx, DWORD PTR ?world@@3PAUgl_world_t@@A ; world
	mov	WORD PTR [edx+64], cx
$LN17@Mod_LoadWo:

; 1585 : 
; 1586 : 	if( RENDER_GET_PARM( PARM_WATER_ALPHA, 0 ) )

	push	0
	push	37					; 00000025H
	call	DWORD PTR ?gRenderfuncs@@3Urender_api_s@@A
	add	esp, 8
	test	eax, eax
	je	SHORT $LN18@Mod_LoadWo

; 1587 : 		SetBits( world->features, WORLD_WATERALPHA );

	mov	eax, DWORD PTR ?world@@3PAUgl_world_t@@A ; world
	movzx	ecx, WORD PTR [eax+64]
	or	ecx, 128				; 00000080H
	mov	edx, DWORD PTR ?world@@3PAUgl_world_t@@A ; world
	mov	WORD PTR [edx+64], cx
$LN18@Mod_LoadWo:

; 1588 : 
; 1589 : 	COM_FileBase( worldmodel->name, world->name );

	mov	eax, DWORD PTR ?world@@3PAUgl_world_t@@A ; world
	push	eax
	mov	ecx, DWORD PTR ?worldmodel@@3PAUmodel_s@@A ; worldmodel
	push	ecx
	call	?COM_FileBase@@YAXPBDPAD@Z		; COM_FileBase
	add	esp, 8

; 1590 : #if 0
; 1591 : 	Msg( "Mod_LoadWorld: %s\n", world->name );
; 1592 : 	Msg( "sizeof( bvert_t ) == %d bytes\n", sizeof( bvert_t ) );
; 1593 : 	Msg( "sizeof( svert_t ) == %d bytes\n", sizeof( svert_t ) );
; 1594 : #endif
; 1595 : 	R_CheckChanges(); // catch all the cvar changes

	call	?R_CheckChanges@@YAXXZ			; R_CheckChanges

; 1596 : 	tr.glsl_valid_sequence = 1;

	mov	DWORD PTR ?tr@@3Uref_globals_t@@A+5830936, 1

; 1597 : 	tr.params_changed = false;

	mov	BYTE PTR ?tr@@3Uref_globals_t@@A+5830932, 0

; 1598 : 
; 1599 : 	// precache and upload cinematics
; 1600 : 	R_InitCinematics();

	call	?R_InitCinematics@@YAXXZ		; R_InitCinematics

; 1601 : 
; 1602 : 	// prepare visibility and setup leaf extradata
; 1603 : 	Mod_SetupWorldLeafs();

	call	?Mod_SetupWorldLeafs@@YAXXZ		; Mod_SetupWorldLeafs

; 1604 : 	Mod_SetupWorldNodes();

	call	?Mod_SetupWorldNodes@@YAXXZ		; Mod_SetupWorldNodes

; 1605 : 
; 1606 : 	int visclusters = mod->submodels[0].visleafs;

	mov	eax, 64					; 00000040H
	imul	ecx, eax, 0
	mov	edx, DWORD PTR _mod$[ebp]
	mov	eax, DWORD PTR [edx+124]
	mov	ecx, DWORD PTR [eax+ecx+52]
	mov	DWORD PTR _visclusters$[ebp], ecx

; 1607 : 	tr.pvssize = (visclusters + 7) >> 3;

	mov	eax, DWORD PTR _visclusters$[ebp]
	add	eax, 7
	sar	eax, 3
	mov	DWORD PTR ?tr@@3Uref_globals_t@@A+5835052, eax

; 1608 : 
; 1609 : 	// all the old lightmaps are freed
; 1610 : 	GL_BeginBuildingLightmaps();

	call	?GL_BeginBuildingLightmaps@@YAXXZ	; GL_BeginBuildingLightmaps

; 1611 : 
; 1612 : 	// process landscapes first
; 1613 : 	R_LoadLandscapes( world->name );

	mov	eax, DWORD PTR ?world@@3PAUgl_world_t@@A ; world
	push	eax
	call	?R_LoadLandscapes@@YAXPBD@Z		; R_LoadLandscapes
	add	esp, 4

; 1614 : 
; 1615 : 	// load material textures
; 1616 : 	Mod_LoadWorldMaterials();

	call	?Mod_LoadWorldMaterials@@YAXXZ		; Mod_LoadWorldMaterials

; 1617 : 
; 1618 : 	// mark submodel faces
; 1619 : 	for( i = worldmodel->submodels[0].numfaces; i < worldmodel->numsurfaces; i++ )

	mov	eax, 64					; 00000040H
	imul	ecx, eax, 0
	mov	edx, DWORD PTR ?worldmodel@@3PAUmodel_s@@A ; worldmodel
	mov	eax, DWORD PTR [edx+124]
	mov	ecx, DWORD PTR [eax+ecx+60]
	mov	DWORD PTR _i$[ebp], ecx
	jmp	SHORT $LN4@Mod_LoadWo
$LN2@Mod_LoadWo:
	mov	eax, DWORD PTR _i$[ebp]
	add	eax, 1
	mov	DWORD PTR _i$[ebp], eax
$LN4@Mod_LoadWo:
	mov	eax, DWORD PTR ?worldmodel@@3PAUmodel_s@@A ; worldmodel
	mov	ecx, DWORD PTR _i$[ebp]
	cmp	ecx, DWORD PTR [eax+176]
	jge	SHORT $LN3@Mod_LoadWo

; 1620 : 		SetBits( worldmodel->surfaces[i].flags, SURF_OF_SUBMODEL );

	imul	eax, DWORD PTR _i$[ebp], 92
	mov	ecx, DWORD PTR ?worldmodel@@3PAUmodel_s@@A ; worldmodel
	mov	edx, DWORD PTR [ecx+180]
	mov	eax, DWORD PTR [edx+eax+8]
	or	eax, 67108864				; 04000000H
	imul	ecx, DWORD PTR _i$[ebp], 92
	mov	edx, DWORD PTR ?worldmodel@@3PAUmodel_s@@A ; worldmodel
	mov	edx, DWORD PTR [edx+180]
	mov	DWORD PTR [edx+ecx+8], eax
	jmp	SHORT $LN2@Mod_LoadWo
$LN3@Mod_LoadWo:

; 1621 : 
; 1622 : 	// detect surfs in local space
; 1623 : 	for( i = 0; i < worldmodel->numsubmodels; i++ )

	mov	DWORD PTR _i$[ebp], 0
	jmp	SHORT $LN7@Mod_LoadWo
$LN5@Mod_LoadWo:
	mov	eax, DWORD PTR _i$[ebp]
	add	eax, 1
	mov	DWORD PTR _i$[ebp], eax
$LN7@Mod_LoadWo:
	mov	eax, DWORD PTR ?worldmodel@@3PAUmodel_s@@A ; worldmodel
	mov	ecx, DWORD PTR _i$[ebp]
	cmp	ecx, DWORD PTR [eax+120]
	jge	SHORT $LN6@Mod_LoadWo

; 1624 : 	{
; 1625 : 		dmodel_t *bm = &worldmodel->submodels[i];

	mov	eax, DWORD PTR _i$[ebp]
	shl	eax, 6
	mov	ecx, DWORD PTR ?worldmodel@@3PAUmodel_s@@A ; worldmodel
	add	eax, DWORD PTR [ecx+124]
	mov	DWORD PTR _bm$5[ebp], eax

; 1626 : 		if( bm->origin == g_vecZero )

	push	OFFSET ?g_vecZero@@3VVector@@B		; g_vecZero
	mov	ecx, DWORD PTR _bm$5[ebp]
	add	ecx, 24					; 00000018H
	call	??8Vector@@QBEHABV0@@Z			; Vector::operator==
	test	eax, eax
	je	SHORT $LN19@Mod_LoadWo

; 1627 : 			continue; // abs space

	jmp	SHORT $LN5@Mod_LoadWo
$LN19@Mod_LoadWo:

; 1628 : 
; 1629 : 		// mark surfs in local space
; 1630 : 		msurface_t *surf = worldmodel->surfaces + bm->firstface;

	mov	eax, DWORD PTR _bm$5[ebp]
	imul	ecx, DWORD PTR [eax+56], 92
	mov	edx, DWORD PTR ?worldmodel@@3PAUmodel_s@@A ; worldmodel
	add	ecx, DWORD PTR [edx+180]
	mov	DWORD PTR _surf$4[ebp], ecx

; 1631 : 		for( int j = 0; j < bm->numfaces; j++, surf++ )

	mov	DWORD PTR _j$3[ebp], 0
	jmp	SHORT $LN10@Mod_LoadWo
$LN8@Mod_LoadWo:
	mov	eax, DWORD PTR _j$3[ebp]
	add	eax, 1
	mov	DWORD PTR _j$3[ebp], eax
	mov	ecx, DWORD PTR _surf$4[ebp]
	add	ecx, 92					; 0000005cH
	mov	DWORD PTR _surf$4[ebp], ecx
$LN10@Mod_LoadWo:
	mov	eax, DWORD PTR _bm$5[ebp]
	mov	ecx, DWORD PTR _j$3[ebp]
	cmp	ecx, DWORD PTR [eax+60]
	jge	SHORT $LN9@Mod_LoadWo

; 1632 : 			SetBits( surf->flags, SURF_LOCAL_SPACE );

	mov	eax, DWORD PTR _surf$4[ebp]
	mov	ecx, DWORD PTR [eax+8]
	or	ecx, 134217728				; 08000000H
	mov	edx, DWORD PTR _surf$4[ebp]
	mov	DWORD PTR [edx+8], ecx
	jmp	SHORT $LN8@Mod_LoadWo
$LN9@Mod_LoadWo:

; 1633 : 	}

	jmp	$LN5@Mod_LoadWo
$LN6@Mod_LoadWo:

; 1634 : 
; 1635 : 	if( extrahdr->id == IDEXTRAHEADER && extrahdr->version == EXTRA_VERSION )

	mov	eax, DWORD PTR _extrahdr$[ebp]
	cmp	DWORD PTR [eax], 1213415768		; 48534158H
	jne	SHORT $LN20@Mod_LoadWo
	mov	eax, DWORD PTR _extrahdr$[ebp]
	cmp	DWORD PTR [eax+4], 4
	jne	SHORT $LN20@Mod_LoadWo

; 1636 : 	{
; 1637 : 		// new Xash3D extended format
; 1638 : 		Mod_LoadVertNormals( buf, &extrahdr->lumps[LUMP_VERTNORMALS] );

	mov	eax, 8
	imul	ecx, eax, 3
	mov	edx, DWORD PTR _extrahdr$[ebp]
	lea	eax, DWORD PTR [edx+ecx+8]
	push	eax
	mov	ecx, DWORD PTR _buf$[ebp]
	push	ecx
	call	?Mod_LoadVertNormals@@YAXPBEPBUdlump_t@@@Z ; Mod_LoadVertNormals
	add	esp, 8

; 1639 : 		Mod_LoadLeafAmbientLighting( buf, &extrahdr->lumps[LUMP_LEAF_LIGHTING] );

	mov	eax, 8
	shl	eax, 2
	mov	ecx, DWORD PTR _extrahdr$[ebp]
	lea	edx, DWORD PTR [ecx+eax+8]
	push	edx
	mov	eax, DWORD PTR _buf$[ebp]
	push	eax
	call	?Mod_LoadLeafAmbientLighting@@YAXPBEPBUdlump_t@@@Z ; Mod_LoadLeafAmbientLighting
	add	esp, 8

; 1640 : 		Mod_LoadVertexLighting( buf, &extrahdr->lumps[LUMP_VERTEX_LIGHT] );

	mov	eax, 8
	imul	ecx, eax, 9
	mov	edx, DWORD PTR _extrahdr$[ebp]
	lea	eax, DWORD PTR [edx+ecx+8]
	push	eax
	mov	ecx, DWORD PTR _buf$[ebp]
	push	ecx
	call	?Mod_LoadVertexLighting@@YAXPBEPBUdlump_t@@@Z ; Mod_LoadVertexLighting
	add	esp, 8

; 1641 : 
; 1642 : 		Mod_LinkLeafLights();

	call	?Mod_LinkLeafLights@@YAXXZ		; Mod_LinkLeafLights
$LN20@Mod_LoadWo:

; 1643 : 	}
; 1644 : 
; 1645 : 	// mark surfaces for world features
; 1646 : 	for( i = 0; i < worldmodel->numsurfaces; i++ )

	mov	DWORD PTR _i$[ebp], 0
	jmp	SHORT $LN13@Mod_LoadWo
$LN11@Mod_LoadWo:
	mov	eax, DWORD PTR _i$[ebp]
	add	eax, 1
	mov	DWORD PTR _i$[ebp], eax
$LN13@Mod_LoadWo:
	mov	eax, DWORD PTR ?worldmodel@@3PAUmodel_s@@A ; worldmodel
	mov	ecx, DWORD PTR _i$[ebp]
	cmp	ecx, DWORD PTR [eax+176]
	jge	$LN12@Mod_LoadWo

; 1647 : 	{
; 1648 : 		msurface_t *surf = &worldmodel->surfaces[i];

	imul	eax, DWORD PTR _i$[ebp], 92
	mov	ecx, DWORD PTR ?worldmodel@@3PAUmodel_s@@A ; worldmodel
	add	eax, DWORD PTR [ecx+180]
	mov	DWORD PTR _surf$2[ebp], eax

; 1649 : 		texture_t *tex = surf->texinfo->texture;

	mov	eax, DWORD PTR _surf$2[ebp]
	mov	ecx, DWORD PTR [eax+44]
	mov	edx, DWORD PTR [ecx+36]
	mov	DWORD PTR _tex$1[ebp], edx

; 1650 : 
; 1651 : 		if( FBitSet( surf->flags, SURF_DRAWSKY ) )

	mov	eax, DWORD PTR _surf$2[ebp]
	mov	ecx, DWORD PTR [eax+8]
	and	ecx, 4
	je	SHORT $LN21@Mod_LoadWo

; 1652 : 			SetBits( world->features, WORLD_HAS_SKYBOX );

	mov	eax, DWORD PTR ?world@@3PAUgl_world_t@@A ; world
	movzx	ecx, WORD PTR [eax+64]
	or	ecx, 64					; 00000040H
	mov	edx, DWORD PTR ?world@@3PAUgl_world_t@@A ; world
	mov	WORD PTR [edx+64], cx
$LN21@Mod_LoadWo:

; 1653 : 
; 1654 : 		if( !Q_strncmp( tex->name, "movie", 5 ) )

	push	5
	push	OFFSET ??_C@_05PAONDCEJ@movie?$AA@
	mov	eax, DWORD PTR _tex$1[ebp]
	push	eax
	call	?Q_strncmp@@YAHPBD0H@Z			; Q_strncmp
	add	esp, 12					; 0000000cH
	test	eax, eax
	jne	SHORT $LN22@Mod_LoadWo

; 1655 : 		{
; 1656 : 			SetBits( world->features, WORLD_HAS_MOVIES );

	mov	eax, DWORD PTR ?world@@3PAUgl_world_t@@A ; world
	movzx	ecx, WORD PTR [eax+64]
	or	ecx, 1
	mov	edx, DWORD PTR ?world@@3PAUgl_world_t@@A ; world
	mov	WORD PTR [edx+64], cx

; 1657 : 			SetBits( surf->flags, SURF_MOVIE );

	mov	eax, DWORD PTR _surf$2[ebp]
	mov	ecx, DWORD PTR [eax+8]
	or	ecx, 2048				; 00000800H
	mov	edx, DWORD PTR _surf$2[ebp]
	mov	DWORD PTR [edx+8], ecx
$LN22@Mod_LoadWo:

; 1658 : 		}
; 1659 : 
; 1660 : 		if( tr.materials[tex->gl_texturenum].PlanarReflectScale > 0.01f || !Q_strncmp( tex->name, "reflect", 7 ) || !Q_strncmp( tex->name, "!reflect", 8 ) )

	mov	eax, DWORD PTR _tex$1[ebp]
	imul	ecx, DWORD PTR [eax+24], 196
	movss	xmm0, DWORD PTR ?tr@@3Uref_globals_t@@A[ecx+5885492]
	comiss	xmm0, DWORD PTR __real@3c23d70a
	ja	SHORT $LN24@Mod_LoadWo
	push	7
	push	OFFSET ??_C@_07CCHDGNII@reflect?$AA@
	mov	eax, DWORD PTR _tex$1[ebp]
	push	eax
	call	?Q_strncmp@@YAHPBD0H@Z			; Q_strncmp
	add	esp, 12					; 0000000cH
	test	eax, eax
	je	SHORT $LN24@Mod_LoadWo
	push	8
	push	OFFSET ??_C@_08DENCDAKP@?$CBreflect?$AA@
	mov	eax, DWORD PTR _tex$1[ebp]
	push	eax
	call	?Q_strncmp@@YAHPBD0H@Z			; Q_strncmp
	add	esp, 12					; 0000000cH
	test	eax, eax
	jne	SHORT $LN23@Mod_LoadWo
$LN24@Mod_LoadWo:

; 1661 : 		{
; 1662 : 			SetBits( world->features, WORLD_HAS_MIRRORS );

	mov	eax, DWORD PTR ?world@@3PAUgl_world_t@@A ; world
	movzx	ecx, WORD PTR [eax+64]
	or	ecx, 2
	mov	edx, DWORD PTR ?world@@3PAUgl_world_t@@A ; world
	mov	WORD PTR [edx+64], cx

; 1663 : 			SetBits( surf->flags, SURF_REFLECT );

	mov	eax, DWORD PTR _surf$2[ebp]
	mov	ecx, DWORD PTR [eax+8]
	or	ecx, -2147483648			; 80000000H
	mov	edx, DWORD PTR _surf$2[ebp]
	mov	DWORD PTR [edx+8], ecx
$LN23@Mod_LoadWo:

; 1664 : 		}
; 1665 : 
; 1666 : 		if( !Q_strncmp( tex->name, "portal", 6 ) )

	push	6
	push	OFFSET ??_C@_06JAELEMPN@portal?$AA@
	mov	eax, DWORD PTR _tex$1[ebp]
	push	eax
	call	?Q_strncmp@@YAHPBD0H@Z			; Q_strncmp
	add	esp, 12					; 0000000cH
	test	eax, eax
	jne	SHORT $LN25@Mod_LoadWo

; 1667 : 		{
; 1668 : 			SetBits( world->features, WORLD_HAS_PORTALS );

	mov	eax, DWORD PTR ?world@@3PAUgl_world_t@@A ; world
	movzx	ecx, WORD PTR [eax+64]
	or	ecx, 4
	mov	edx, DWORD PTR ?world@@3PAUgl_world_t@@A ; world
	mov	WORD PTR [edx+64], cx

; 1669 : 			SetBits( surf->flags, SURF_PORTAL );

	mov	eax, DWORD PTR _surf$2[ebp]
	mov	ecx, DWORD PTR [eax+8]
	or	ecx, 512				; 00000200H
	mov	edx, DWORD PTR _surf$2[ebp]
	mov	DWORD PTR [edx+8], ecx
$LN25@Mod_LoadWo:

; 1670 : 		}
; 1671 : 
; 1672 : 		if( !Q_strncmp( tex->name, "monitor", 7 ) )

	push	7
	push	OFFSET ??_C@_07LAMOHCEE@monitor?$AA@
	mov	eax, DWORD PTR _tex$1[ebp]
	push	eax
	call	?Q_strncmp@@YAHPBD0H@Z			; Q_strncmp
	add	esp, 12					; 0000000cH
	test	eax, eax
	jne	SHORT $LN26@Mod_LoadWo

; 1673 : 		{
; 1674 : 			SetBits( world->features, WORLD_HAS_SCREENS );

	mov	eax, DWORD PTR ?world@@3PAUgl_world_t@@A ; world
	movzx	ecx, WORD PTR [eax+64]
	or	ecx, 8
	mov	edx, DWORD PTR ?world@@3PAUgl_world_t@@A ; world
	mov	WORD PTR [edx+64], cx

; 1675 : 			SetBits( surf->flags, SURF_SCREEN );

	mov	eax, DWORD PTR _surf$2[ebp]
	mov	ecx, DWORD PTR [eax+8]
	or	ecx, 1024				; 00000400H
	mov	edx, DWORD PTR _surf$2[ebp]
	mov	DWORD PTR [edx+8], ecx
$LN26@Mod_LoadWo:

; 1676 : 		}
; 1677 : 
; 1678 : 		if( !Q_strncmp( tex->name, "chrome", 6 ) )

	push	6
	push	OFFSET ??_C@_06IELIGIKF@chrome?$AA@
	mov	eax, DWORD PTR _tex$1[ebp]
	push	eax
	call	?Q_strncmp@@YAHPBD0H@Z			; Q_strncmp
	add	esp, 12					; 0000000cH
	test	eax, eax
	jne	SHORT $LN27@Mod_LoadWo

; 1679 : 		{
; 1680 : 			SetBits( surf->flags, SURF_CHROME );

	mov	eax, DWORD PTR _surf$2[ebp]
	mov	ecx, DWORD PTR [eax+8]
	or	ecx, 4096				; 00001000H
	mov	edx, DWORD PTR _surf$2[ebp]
	mov	DWORD PTR [edx+8], ecx
$LN27@Mod_LoadWo:

; 1681 : 		}
; 1682 : 
; 1683 : 		if( !Q_strncmp( tex->name, "fff", 3 ) ) // diffusion

	push	3
	push	OFFSET ??_C@_03LPALPDIP@fff?$AA@
	mov	eax, DWORD PTR _tex$1[ebp]
	push	eax
	call	?Q_strncmp@@YAHPBD0H@Z			; Q_strncmp
	add	esp, 12					; 0000000cH
	test	eax, eax
	jne	SHORT $LN28@Mod_LoadWo

; 1684 : 		{
; 1685 : 			SetBits( surf->flags, SURF_FULLBRIGHT );

	mov	eax, DWORD PTR _surf$2[ebp]
	mov	ecx, DWORD PTR [eax+8]
	or	ecx, 33554432				; 02000000H
	mov	edx, DWORD PTR _surf$2[ebp]
	mov	DWORD PTR [edx+8], ecx
$LN28@Mod_LoadWo:

; 1686 : 		}
; 1687 : 	}

	jmp	$LN11@Mod_LoadWo
$LN12@Mod_LoadWo:

; 1688 : 
; 1689 : 	// init default lights - helpers to precache shaders
; 1690 : 	memset( &tr.defSpotlight, 0, sizeof( tr.defSpotlight ) );

	push	768					; 00000300H
	push	0
	push	OFFSET ?tr@@3Uref_globals_t@@A+7523812
	call	_memset
	add	esp, 12					; 0000000cH

; 1691 : 	memset( &tr.defOmnilight, 0, sizeof( tr.defOmnilight ) );

	push	768					; 00000300H
	push	0
	push	OFFSET ?tr@@3Uref_globals_t@@A+7524580
	call	_memset
	add	esp, 12					; 0000000cH

; 1692 : 	tr.defSpotlight.pointlight = false;

	mov	BYTE PTR ?tr@@3Uref_globals_t@@A+7523856, 0

; 1693 : 	tr.defOmnilight.pointlight = true;

	mov	BYTE PTR ?tr@@3Uref_globals_t@@A+7524624, 1

; 1694 : 
; 1695 : 	Mod_FinalizeWorld();

	call	?Mod_FinalizeWorld@@YAXXZ		; Mod_FinalizeWorld

; 1696 : 
; 1697 : 	// create lightmap pages (empty at this moment)
; 1698 : 	GL_EndBuildingLightmaps( (worldmodel->lightdata != NULL), FBitSet( world->features, WORLD_HAS_DELUXEMAP ) ? true : false );

	mov	eax, DWORD PTR ?world@@3PAUgl_world_t@@A ; world
	movzx	ecx, WORD PTR [eax+64]
	and	ecx, 32					; 00000020H
	je	SHORT $LN32@Mod_LoadWo
	mov	BYTE PTR tv295[ebp], 1
	jmp	SHORT $LN33@Mod_LoadWo
$LN32@Mod_LoadWo:
	mov	BYTE PTR tv295[ebp], 0
$LN33@Mod_LoadWo:
	mov	edx, DWORD PTR ?worldmodel@@3PAUmodel_s@@A ; worldmodel
	cmp	DWORD PTR [edx+380], 0
	je	SHORT $LN34@Mod_LoadWo
	mov	BYTE PTR tv299[ebp], 1
	jmp	SHORT $LN35@Mod_LoadWo
$LN34@Mod_LoadWo:
	mov	BYTE PTR tv299[ebp], 0
$LN35@Mod_LoadWo:
	movzx	eax, BYTE PTR tv295[ebp]
	push	eax
	movzx	ecx, BYTE PTR tv299[ebp]
	push	ecx
	call	?GL_EndBuildingLightmaps@@YAX_N0@Z	; GL_EndBuildingLightmaps
	add	esp, 8

; 1699 : 	Mod_CreateBufferObject();

	call	?Mod_CreateBufferObject@@YAXXZ		; Mod_CreateBufferObject

; 1700 : 	tr.fResetVis = true;

	mov	BYTE PTR ?tr@@3Uref_globals_t@@A, 1

; 1701 : 
; 1702 : 	// time to place grass
; 1703 : 	for( i = 0; i < worldmodel->numsurfaces; i++ )

	mov	DWORD PTR _i$[ebp], 0
	jmp	SHORT $LN16@Mod_LoadWo
$LN14@Mod_LoadWo:
	mov	eax, DWORD PTR _i$[ebp]
	add	eax, 1
	mov	DWORD PTR _i$[ebp], eax
$LN16@Mod_LoadWo:
	mov	eax, DWORD PTR ?worldmodel@@3PAUmodel_s@@A ; worldmodel
	mov	ecx, DWORD PTR _i$[ebp]
	cmp	ecx, DWORD PTR [eax+176]
	jge	SHORT $LN15@Mod_LoadWo

; 1704 : 	{
; 1705 : 		// place to initialize our grass
; 1706 : 		R_GrassInitForSurface( &worldmodel->surfaces[i] );

	imul	eax, DWORD PTR _i$[ebp], 92
	mov	ecx, DWORD PTR ?worldmodel@@3PAUmodel_s@@A ; worldmodel
	add	eax, DWORD PTR [ecx+180]
	push	eax
	call	?R_GrassInitForSurface@@YAXPAUmsurface_s@@@Z ; R_GrassInitForSurface
	add	esp, 4

; 1707 : 	}

	jmp	SHORT $LN14@Mod_LoadWo
$LN15@Mod_LoadWo:

; 1708 : 
; 1709 : 	// precache world shaders
; 1710 : 	Mod_PrecacheShaders();

	call	?Mod_PrecacheShaders@@YAXXZ		; Mod_PrecacheShaders

; 1711 : 	Mod_ResortFaces();

	call	?Mod_ResortFaces@@YAXXZ			; Mod_ResortFaces

; 1712 : 
; 1713 : 	if( extrahdr->id == IDEXTRAHEADER && extrahdr->version == EXTRA_VERSION )

	mov	eax, DWORD PTR _extrahdr$[ebp]
	cmp	DWORD PTR [eax], 1213415768		; 48534158H
	jne	SHORT $LN30@Mod_LoadWo
	mov	eax, DWORD PTR _extrahdr$[ebp]
	cmp	DWORD PTR [eax+4], 4
	jne	SHORT $LN30@Mod_LoadWo

; 1714 : 	{
; 1715 : 		// diffusioncubemaps
; 1716 : 		if( GL_Support( R_TEXTURECUBEMAP_EXT ) ) // loading cubemaps only when it's supported

	push	9
	call	?GL_Support@@YA_NH@Z			; GL_Support
	add	esp, 4
	movzx	eax, al
	test	eax, eax
	je	SHORT $LN30@Mod_LoadWo

; 1717 : 			Mod_LoadCubemaps( buf, &extrahdr->lumps[LUMP_CUBEMAPS] );

	mov	eax, 8
	shl	eax, 1
	mov	ecx, DWORD PTR _extrahdr$[ebp]
	lea	edx, DWORD PTR [ecx+eax+8]
	push	edx
	mov	eax, DWORD PTR _buf$[ebp]
	push	eax
	call	?Mod_LoadCubemaps@@YAXPBEPBUdlump_t@@@Z	; Mod_LoadCubemaps
	add	esp, 8
$LN30@Mod_LoadWo:

; 1718 : 	}
; 1719 : }

	pop	edi
	pop	esi
	pop	ebx
	mov	esp, ebp
	pop	ebp
	ret	0
?Mod_LoadWorld@@YAXPAUmodel_s@@PBE@Z ENDP		; Mod_LoadWorld
_TEXT	ENDS
; Function compile flags: /Odtp /ZI
; File d:\!diffusion 2020\source code 2022\client-server\client\render\r_world.cpp
;	COMDAT ?Mod_DeleteBufferObject@@YAXXZ
_TEXT	SEGMENT
?Mod_DeleteBufferObject@@YAXXZ PROC			; Mod_DeleteBufferObject, COMDAT

; 1517 : {

	push	ebp
	mov	ebp, esp
	sub	esp, 64					; 00000040H
	push	ebx
	push	esi
	push	edi

; 1518 : 	if( world->vertex_array_object ) pglDeleteVertexArrays( 1, &world->vertex_array_object );

	mov	eax, DWORD PTR ?world@@3PAUgl_world_t@@A ; world
	cmp	DWORD PTR [eax+128], 0
	je	SHORT $LN2@Mod_Delete
	mov	eax, DWORD PTR ?world@@3PAUgl_world_t@@A ; world
	add	eax, 128				; 00000080H
	push	eax
	push	1
	call	DWORD PTR ?pglDeleteVertexArrays@@3P6GXHPBI@ZA ; pglDeleteVertexArrays
$LN2@Mod_Delete:

; 1519 : 	if( world->vertex_buffer_object ) pglDeleteBuffersARB( 1, &world->vertex_buffer_object );

	mov	eax, DWORD PTR ?world@@3PAUgl_world_t@@A ; world
	cmp	DWORD PTR [eax+124], 0
	je	SHORT $LN3@Mod_Delete
	mov	eax, DWORD PTR ?world@@3PAUgl_world_t@@A ; world
	add	eax, 124				; 0000007cH
	push	eax
	push	1
	call	DWORD PTR ?pglDeleteBuffersARB@@3P6GXHPBI@ZA ; pglDeleteBuffersARB
$LN3@Mod_Delete:

; 1520 : 
; 1521 : 	world->vertex_array_object = world->vertex_buffer_object = 0;

	mov	eax, DWORD PTR ?world@@3PAUgl_world_t@@A ; world
	mov	DWORD PTR [eax+124], 0
	mov	ecx, DWORD PTR ?world@@3PAUgl_world_t@@A ; world
	mov	DWORD PTR [ecx+128], 0

; 1522 : }

	pop	edi
	pop	esi
	pop	ebx
	mov	esp, ebp
	pop	ebp
	ret	0
?Mod_DeleteBufferObject@@YAXXZ ENDP			; Mod_DeleteBufferObject
_TEXT	ENDS
; Function compile flags: /Odtp /ZI
; File d:\!diffusion 2020\source code 2022\client-server\client\render\r_world.cpp
;	COMDAT ?Mod_CreateBufferObject@@YAXXZ
_TEXT	SEGMENT
tv169 = -132						; size = 4
$T1 = -128						; size = 12
$T2 = -116						; size = 12
_surf$3 = -40						; size = 4
_surf$4 = -36						; size = 4
_vert$5 = -32						; size = 4
_l$6 = -28						; size = 4
_mv$ = -24						; size = 4
_dv$ = -20						; size = 4
_curVert$ = -16						; size = 4
_j$ = -12						; size = 4
_i$ = -8						; size = 4
_surf$ = -4						; size = 4
?Mod_CreateBufferObject@@YAXXZ PROC			; Mod_CreateBufferObject, COMDAT

; 1367 : {

	push	ebp
	mov	ebp, esp
	sub	esp, 132				; 00000084H
	push	ebx
	push	esi
	push	edi

; 1368 : 	if( world->vertex_buffer_object )

	mov	eax, DWORD PTR ?world@@3PAUgl_world_t@@A ; world
	cmp	DWORD PTR [eax+124], 0
	je	SHORT $LN17@Mod_Create

; 1369 : 		return; // already created

	jmp	$LN1@Mod_Create
$LN17@Mod_Create:

; 1370 : 
; 1371 : 	// calculate number of used faces and vertexes
; 1372 : 	msurface_t *surf = worldmodel->surfaces;

	mov	eax, DWORD PTR ?worldmodel@@3PAUmodel_s@@A ; worldmodel
	mov	ecx, DWORD PTR [eax+180]
	mov	DWORD PTR _surf$[ebp], ecx

; 1373 : 	int i, j, curVert = 0;

	mov	DWORD PTR _curVert$[ebp], 0

; 1374 : 	mvertex_t *dv;
; 1375 : 	bvert_t *mv;
; 1376 : 
; 1377 : 	world->numvertexes = 0;

	mov	eax, DWORD PTR ?world@@3PAUgl_world_t@@A ; world
	mov	DWORD PTR [eax+116], 0

; 1378 : 
; 1379 : 	// compute totalvertex count for VBO but ignore sky polys
; 1380 : 	for( i = 0; i < worldmodel->numsurfaces; i++, surf++ )

	mov	DWORD PTR _i$[ebp], 0
	jmp	SHORT $LN4@Mod_Create
$LN2@Mod_Create:
	mov	eax, DWORD PTR _i$[ebp]
	add	eax, 1
	mov	DWORD PTR _i$[ebp], eax
	mov	ecx, DWORD PTR _surf$[ebp]
	add	ecx, 92					; 0000005cH
	mov	DWORD PTR _surf$[ebp], ecx
$LN4@Mod_Create:
	mov	eax, DWORD PTR ?worldmodel@@3PAUmodel_s@@A ; worldmodel
	mov	ecx, DWORD PTR _i$[ebp]
	cmp	ecx, DWORD PTR [eax+176]
	jge	SHORT $LN3@Mod_Create

; 1381 : 	{
; 1382 : 		if( FBitSet( surf->flags, SURF_DRAWSKY ) )

	mov	eax, DWORD PTR _surf$[ebp]
	mov	ecx, DWORD PTR [eax+8]
	and	ecx, 4
	je	SHORT $LN18@Mod_Create

; 1383 : 			continue;

	jmp	SHORT $LN2@Mod_Create
$LN18@Mod_Create:

; 1384 : 		if( FBitSet( surf->flags, SURF_WATER ) )

	mov	eax, DWORD PTR _surf$[ebp]
	mov	ecx, DWORD PTR [eax+8]
	and	ecx, 16					; 00000010H
	je	SHORT $LN19@Mod_Create

; 1385 : 			world->numvertexes += Mod_SubdivideSurface( surf, true );

	push	1
	mov	eax, DWORD PTR _surf$[ebp]
	push	eax
	call	?Mod_SubdivideSurface@@YAHPAUmsurface_s@@_N@Z ; Mod_SubdivideSurface
	add	esp, 8
	mov	ecx, DWORD PTR ?world@@3PAUgl_world_t@@A ; world
	add	eax, DWORD PTR [ecx+116]
	mov	edx, DWORD PTR ?world@@3PAUgl_world_t@@A ; world
	mov	DWORD PTR [edx+116], eax

; 1386 : 		else

	jmp	SHORT $LN20@Mod_Create
$LN19@Mod_Create:

; 1387 : 			world->numvertexes += surf->numedges;

	mov	eax, DWORD PTR ?world@@3PAUgl_world_t@@A ; world
	mov	ecx, DWORD PTR [eax+116]
	mov	edx, DWORD PTR _surf$[ebp]
	add	ecx, DWORD PTR [edx+16]
	mov	eax, DWORD PTR ?world@@3PAUgl_world_t@@A ; world
	mov	DWORD PTR [eax+116], ecx
$LN20@Mod_Create:

; 1388 : 	}

	jmp	SHORT $LN2@Mod_Create
$LN3@Mod_Create:

; 1389 : 
; 1390 : 	// temporary array will be removed at end of this function
; 1391 : 	// g-cont. i'm leaving local copy of vertexes for some debug purpoces
; 1392 : 	world->vertexes = (bvert_t *)Mem_Alloc( sizeof( bvert_t ) * world->numvertexes );

	mov	eax, DWORD PTR ?__LINE__Var@?0??Mod_CreateBufferObject@@YAXXZ@4JA
	add	eax, 25					; 00000019H
	push	eax
	push	OFFSET ??_C@_0EM@FJLGGOCA@d?3?2?$CBdiffusion?52020?2source?5code?52@
	mov	ecx, DWORD PTR ?world@@3PAUgl_world_t@@A ; world
	imul	edx, DWORD PTR [ecx+116], 100
	push	edx
	call	DWORD PTR ?gRenderfuncs@@3Urender_api_s@@A+216
	add	esp, 12					; 0000000cH
	mov	ecx, DWORD PTR ?world@@3PAUgl_world_t@@A ; world
	mov	DWORD PTR [ecx+112], eax

; 1393 : 	surf = worldmodel->surfaces;

	mov	eax, DWORD PTR ?worldmodel@@3PAUmodel_s@@A ; worldmodel
	mov	ecx, DWORD PTR [eax+180]
	mov	DWORD PTR _surf$[ebp], ecx

; 1394 : 
; 1395 : 	// create VBO-optimized vertex array (single for world and all brush-models)
; 1396 : 	for( i = 0; i < worldmodel->numsurfaces; i++, surf++ )

	mov	DWORD PTR _i$[ebp], 0
	jmp	SHORT $LN7@Mod_Create
$LN5@Mod_Create:
	mov	eax, DWORD PTR _i$[ebp]
	add	eax, 1
	mov	DWORD PTR _i$[ebp], eax
	mov	ecx, DWORD PTR _surf$[ebp]
	add	ecx, 92					; 0000005cH
	mov	DWORD PTR _surf$[ebp], ecx
$LN7@Mod_Create:
	mov	eax, DWORD PTR ?worldmodel@@3PAUmodel_s@@A ; worldmodel
	mov	ecx, DWORD PTR _i$[ebp]
	cmp	ecx, DWORD PTR [eax+176]
	jge	$LN6@Mod_Create

; 1397 : 	{
; 1398 : 		if( FBitSet( surf->flags, SURF_DRAWSKY ) )

	mov	eax, DWORD PTR _surf$[ebp]
	mov	ecx, DWORD PTR [eax+8]
	and	ecx, 4
	je	SHORT $LN21@Mod_Create

; 1399 : 			continue;	// ignore sky polys it is never drawn

	jmp	SHORT $LN5@Mod_Create
$LN21@Mod_Create:

; 1400 : 
; 1401 : 		if( FBitSet( surf->flags, SURF_WATER ) )

	mov	eax, DWORD PTR _surf$[ebp]
	mov	ecx, DWORD PTR [eax+8]
	and	ecx, 16					; 00000010H
	je	SHORT $LN22@Mod_Create

; 1402 : 		{
; 1403 : 			surf->info->firstvertex = curVert;

	mov	eax, DWORD PTR _surf$[ebp]
	mov	ecx, DWORD PTR [eax+80]
	mov	edx, DWORD PTR _curVert$[ebp]
	mov	DWORD PTR [ecx+128], edx

; 1404 : 			Mod_ComputeFaceTBN( surf, surf->info );

	mov	eax, DWORD PTR _surf$[ebp]
	mov	ecx, DWORD PTR [eax+80]
	push	ecx
	mov	edx, DWORD PTR _surf$[ebp]
	push	edx
	call	?Mod_ComputeFaceTBN@@YAXPAUmsurface_s@@PAUmextrasurf_s@@@Z ; Mod_ComputeFaceTBN
	add	esp, 8

; 1405 : 			Mod_SubdivideSurface( surf, false );

	push	0
	mov	eax, DWORD PTR _surf$[ebp]
	push	eax
	call	?Mod_SubdivideSurface@@YAHPAUmsurface_s@@_N@Z ; Mod_SubdivideSurface
	add	esp, 8

; 1406 : 			curVert += surf->info->numverts;

	mov	eax, DWORD PTR _surf$[ebp]
	mov	ecx, DWORD PTR [eax+80]
	movzx	edx, WORD PTR [ecx+126]
	add	edx, DWORD PTR _curVert$[ebp]
	mov	DWORD PTR _curVert$[ebp], edx

; 1407 : 		}
; 1408 : 		else

	jmp	$LN23@Mod_Create
$LN22@Mod_Create:

; 1409 : 		{
; 1410 : 			mv = &world->vertexes[curVert];

	imul	eax, DWORD PTR _curVert$[ebp], 100
	mov	ecx, DWORD PTR ?world@@3PAUgl_world_t@@A ; world
	add	eax, DWORD PTR [ecx+112]
	mov	DWORD PTR _mv$[ebp], eax

; 1411 : 
; 1412 : 			// NOTE: all polygons stored as source (no tesselation anyway)
; 1413 : 			for( j = 0; j < surf->numedges; j++, mv++ )

	mov	DWORD PTR _j$[ebp], 0
	jmp	SHORT $LN10@Mod_Create
$LN8@Mod_Create:
	mov	eax, DWORD PTR _j$[ebp]
	add	eax, 1
	mov	DWORD PTR _j$[ebp], eax
	mov	ecx, DWORD PTR _mv$[ebp]
	add	ecx, 100				; 00000064H
	mov	DWORD PTR _mv$[ebp], ecx
$LN10@Mod_Create:
	mov	eax, DWORD PTR _surf$[ebp]
	mov	ecx, DWORD PTR _j$[ebp]
	cmp	ecx, DWORD PTR [eax+16]
	jge	$LN9@Mod_Create

; 1414 : 			{
; 1415 : 				int l = worldmodel->surfedges[surf->firstedge + j];

	mov	eax, DWORD PTR _surf$[ebp]
	mov	ecx, DWORD PTR [eax+12]
	add	ecx, DWORD PTR _j$[ebp]
	mov	edx, DWORD PTR ?worldmodel@@3PAUmodel_s@@A ; worldmodel
	mov	eax, DWORD PTR [edx+188]
	mov	ecx, DWORD PTR [eax+ecx*4]
	mov	DWORD PTR _l$6[ebp], ecx

; 1416 : 				int vert = worldmodel->edges[abs( l )].v[(l > 0) ? 0 : 1];

	cmp	DWORD PTR _l$6[ebp], 0
	jle	SHORT $LN34@Mod_Create
	mov	DWORD PTR tv169[ebp], 0
	jmp	SHORT $LN35@Mod_Create
$LN34@Mod_Create:
	mov	DWORD PTR tv169[ebp], 1
$LN35@Mod_Create:
	mov	eax, DWORD PTR _l$6[ebp]
	push	eax
	call	_abs
	add	esp, 4
	mov	ecx, DWORD PTR ?worldmodel@@3PAUmodel_s@@A ; worldmodel
	mov	edx, DWORD PTR [ecx+156]
	lea	eax, DWORD PTR [edx+eax*8]
	mov	ecx, DWORD PTR tv169[ebp]
	movzx	edx, WORD PTR [eax+ecx*2]
	mov	DWORD PTR _vert$5[ebp], edx

; 1417 : 				memcpy( mv->styles, surf->styles, sizeof( surf->styles ) );

	push	4
	mov	eax, DWORD PTR _surf$[ebp]
	add	eax, 60					; 0000003cH
	push	eax
	mov	ecx, DWORD PTR _mv$[ebp]
	add	ecx, 96					; 00000060H
	push	ecx
	call	_memcpy
	add	esp, 12					; 0000000cH

; 1418 : 				dv = &worldmodel->vertexes[vert];

	imul	eax, DWORD PTR _vert$5[ebp], 12
	mov	ecx, DWORD PTR ?worldmodel@@3PAUmodel_s@@A ; worldmodel
	add	eax, DWORD PTR [ecx+148]
	mov	DWORD PTR _dv$[ebp], eax

; 1419 : 				mv->vertex = dv->position;

	mov	eax, DWORD PTR _dv$[ebp]
	mov	ecx, DWORD PTR _mv$[ebp]
	mov	edx, DWORD PTR [eax]
	mov	DWORD PTR [ecx], edx
	mov	edx, DWORD PTR [eax+4]
	mov	DWORD PTR [ecx+4], edx
	mov	eax, DWORD PTR [eax+8]
	mov	DWORD PTR [ecx+8], eax

; 1420 : 
; 1421 : 				if( world->surfnormals != NULL && world->normals != NULL )

	mov	eax, DWORD PTR ?world@@3PAUgl_world_t@@A ; world
	cmp	DWORD PTR [eax+84], 0
	je	$LN24@Mod_Create
	mov	eax, DWORD PTR ?world@@3PAUgl_world_t@@A ; world
	cmp	DWORD PTR [eax+88], 0
	je	SHORT $LN24@Mod_Create

; 1422 : 				{
; 1423 : 					l = world->surfnormals[surf->firstedge + j];

	mov	eax, DWORD PTR _surf$[ebp]
	mov	ecx, DWORD PTR [eax+12]
	add	ecx, DWORD PTR _j$[ebp]
	mov	edx, DWORD PTR ?world@@3PAUgl_world_t@@A ; world
	mov	eax, DWORD PTR [edx+84]
	movzx	ecx, WORD PTR [eax+ecx*2]
	mov	DWORD PTR _l$6[ebp], ecx

; 1424 : 					if( l >= 0 || l < world->numnormals )

	cmp	DWORD PTR _l$6[ebp], 0
	jge	SHORT $LN28@Mod_Create
	mov	eax, DWORD PTR ?world@@3PAUgl_world_t@@A ; world
	mov	ecx, DWORD PTR _l$6[ebp]
	cmp	ecx, DWORD PTR [eax+92]
	jge	SHORT $LN26@Mod_Create
$LN28@Mod_Create:

; 1425 : 						mv->normal = Vector( world->normals[l].normal );

	imul	eax, DWORD PTR _l$6[ebp], 12
	mov	ecx, DWORD PTR ?world@@3PAUgl_world_t@@A ; world
	mov	edx, DWORD PTR [ecx+88]
	add	edx, eax
	push	edx
	lea	ecx, DWORD PTR $T2[ebp]
	call	??0Vector@@QAE@QAM@Z			; Vector::Vector
	mov	ecx, DWORD PTR _mv$[ebp]
	add	ecx, 36					; 00000024H
	mov	edx, DWORD PTR [eax]
	mov	DWORD PTR [ecx], edx
	mov	edx, DWORD PTR [eax+4]
	mov	DWORD PTR [ecx+4], edx
	mov	eax, DWORD PTR [eax+8]
	mov	DWORD PTR [ecx+8], eax
	jmp	SHORT $LN27@Mod_Create
$LN26@Mod_Create:

; 1426 : 					else ALERT( at_error, "normal index %d out of range (max %d)\n", l, world->numnormals );

	mov	eax, DWORD PTR ?world@@3PAUgl_world_t@@A ; world
	mov	ecx, DWORD PTR [eax+92]
	push	ecx
	mov	edx, DWORD PTR _l$6[ebp]
	push	edx
	push	OFFSET ??_C@_0CH@HCMJLECA@normal?5index?5?$CFd?5out?5of?5range?5?$CIma@
	push	4
	call	?ALERT@@YAXW4ALERT_TYPE@@PADZZ		; ALERT
	add	esp, 16					; 00000010H
$LN27@Mod_Create:
	jmp	SHORT $LN25@Mod_Create
$LN24@Mod_Create:

; 1427 : 				}
; 1428 : 				else if( world->normals != NULL )

	mov	eax, DWORD PTR ?world@@3PAUgl_world_t@@A ; world
	cmp	DWORD PTR [eax+88], 0
	je	SHORT $LN25@Mod_Create

; 1429 : 					mv->normal = Vector( world->normals[vert].normal );

	imul	eax, DWORD PTR _vert$5[ebp], 12
	mov	ecx, DWORD PTR ?world@@3PAUgl_world_t@@A ; world
	mov	edx, DWORD PTR [ecx+88]
	add	edx, eax
	push	edx
	lea	ecx, DWORD PTR $T1[ebp]
	call	??0Vector@@QAE@QAM@Z			; Vector::Vector
	mov	ecx, DWORD PTR _mv$[ebp]
	add	ecx, 36					; 00000024H
	mov	edx, DWORD PTR [eax]
	mov	DWORD PTR [ecx], edx
	mov	edx, DWORD PTR [eax+4]
	mov	DWORD PTR [ecx+4], edx
	mov	eax, DWORD PTR [eax+8]
	mov	DWORD PTR [ecx+8], eax
$LN25@Mod_Create:

; 1430 : 
; 1431 : 				R_TextureCoords( surf, mv->vertex, mv->stcoord0 );

	mov	eax, DWORD PTR _mv$[ebp]
	add	eax, 48					; 00000030H
	push	eax
	mov	ecx, DWORD PTR _mv$[ebp]
	push	ecx
	mov	edx, DWORD PTR _surf$[ebp]
	push	edx
	call	?R_TextureCoords@@YAXPAUmsurface_s@@ABVVector@@PAM@Z ; R_TextureCoords
	add	esp, 12					; 0000000cH

; 1432 : 				R_LightmapCoords( surf, mv->vertex, mv->lmcoord0, 0 );	// styles 0-1

	push	0
	mov	eax, DWORD PTR _mv$[ebp]
	add	eax, 64					; 00000040H
	push	eax
	mov	ecx, DWORD PTR _mv$[ebp]
	push	ecx
	mov	edx, DWORD PTR _surf$[ebp]
	push	edx
	call	?R_LightmapCoords@@YAXPAUmsurface_s@@ABVVector@@PAMH@Z ; R_LightmapCoords
	add	esp, 16					; 00000010H

; 1433 : 				R_LightmapCoords( surf, mv->vertex, mv->lmcoord1, 2 );	// styles 2-3

	push	2
	mov	eax, DWORD PTR _mv$[ebp]
	add	eax, 80					; 00000050H
	push	eax
	mov	ecx, DWORD PTR _mv$[ebp]
	push	ecx
	mov	edx, DWORD PTR _surf$[ebp]
	push	edx
	call	?R_LightmapCoords@@YAXPAUmsurface_s@@ABVVector@@PAMH@Z ; R_LightmapCoords
	add	esp, 16					; 00000010H

; 1434 : 			}

	jmp	$LN8@Mod_Create
$LN9@Mod_Create:

; 1435 : 
; 1436 : 			// NOTE: now firstvertex are handled in world->vertexes[] array, not in world->tbn_vectors[] !!!
; 1437 : 			surf->info->firstvertex = curVert;

	mov	eax, DWORD PTR _surf$[ebp]
	mov	ecx, DWORD PTR [eax+80]
	mov	edx, DWORD PTR _curVert$[ebp]
	mov	DWORD PTR [ecx+128], edx

; 1438 : 			surf->info->numverts = surf->numedges;

	mov	eax, DWORD PTR _surf$[ebp]
	mov	ecx, DWORD PTR [eax+80]
	mov	edx, DWORD PTR _surf$[ebp]
	mov	ax, WORD PTR [edx+16]
	mov	WORD PTR [ecx+126], ax

; 1439 : 			curVert += surf->numedges;

	mov	eax, DWORD PTR _surf$[ebp]
	mov	ecx, DWORD PTR _curVert$[ebp]
	add	ecx, DWORD PTR [eax+16]
	mov	DWORD PTR _curVert$[ebp], ecx
$LN23@Mod_Create:

; 1440 : 		}
; 1441 : 
; 1442 : 		if( !FBitSet( surf->flags, SURF_WATER ) )

	mov	eax, DWORD PTR _surf$[ebp]
	mov	ecx, DWORD PTR [eax+8]
	and	ecx, 16					; 00000010H
	jne	SHORT $LN30@Mod_Create

; 1443 : 			Mod_ComputeFaceTBN( surf, surf->info );

	mov	eax, DWORD PTR _surf$[ebp]
	mov	ecx, DWORD PTR [eax+80]
	push	ecx
	mov	edx, DWORD PTR _surf$[ebp]
	push	edx
	call	?Mod_ComputeFaceTBN@@YAXPAUmsurface_s@@PAUmextrasurf_s@@@Z ; Mod_ComputeFaceTBN
	add	esp, 8
$LN30@Mod_Create:

; 1444 : 	}

	jmp	$LN5@Mod_Create
$LN6@Mod_Create:

; 1445 : #if 0
; 1446 : 	// it's works for a very long time
; 1447 : 	Mod_SmoothVertexNormals();
; 1448 : #endif
; 1449 : 
; 1450 : 	// time to prepare landscapes
; 1451 : 	for( i = 0; i < worldmodel->numsurfaces; i++ )

	mov	DWORD PTR _i$[ebp], 0
	jmp	SHORT $LN13@Mod_Create
$LN11@Mod_Create:
	mov	eax, DWORD PTR _i$[ebp]
	add	eax, 1
	mov	DWORD PTR _i$[ebp], eax
