; Listing generated by Microsoft (R) Optimizing Compiler Version 19.00.24247.2 

	TITLE	D:\!DIFFUSION 2020\source code 2022\client-server\client\saytext.cpp
	.686P
	.XMM
	include listing.inc
	.model	flat

INCLUDELIB LIBCMT
INCLUDELIB OLDNAMES

_BSS	SEGMENT
?flScrollTime@@3MA DD 01H DUP (?)			; flScrollTime
?Y_START@@3HA DD 01H DUP (?)				; Y_START
?line_height@@3HA DD 01H DUP (?)			; line_height
_BSS	ENDS
PUBLIC	??_H@YGXPAXIIP6EPAX0@Z@Z			; `vector constructor iterator'
PUBLIC	??__G@YGXPAX0IIP6EPAX00@Z@Z			; `vector copy constructor iterator'
PUBLIC	?__empty_global_delete@@YAXPAX@Z		; __empty_global_delete
PUBLIC	?__empty_global_delete@@YAXPAXI@Z		; __empty_global_delete
PUBLIC	?PlaySoundA@@YAXPADM@Z				; PlaySoundA
PUBLIC	?Init@CHudSayText@@UAEHXZ			; CHudSayText::Init
PUBLIC	?InitHUDData@CHudSayText@@UAEXXZ		; CHudSayText::InitHUDData
PUBLIC	?VidInit@CHudSayText@@UAEHXZ			; CHudSayText::VidInit
PUBLIC	?Draw@CHudSayText@@UAEHM@Z			; CHudSayText::Draw
PUBLIC	?MsgFunc_SayText@CHudSayText@@QAEHPBDHPAX@Z	; CHudSayText::MsgFunc_SayText
PUBLIC	?SayTextPrint@CHudSayText@@QAEXPBDHH@Z		; CHudSayText::SayTextPrint
PUBLIC	?EnsureTextFitsInOneLineAndWrapIfHaveTo@CHudSayText@@QAEXH@Z ; CHudSayText::EnsureTextFitsInOneLineAndWrapIfHaveTo
PUBLIC	?__MsgFunc_SayText@@YAHPBDHPAX@Z		; __MsgFunc_SayText
PUBLIC	?ScrollTextUp@@YAHXZ				; ScrollTextUp
PUBLIC	??$strncpy_s@$0BAA@@@YAHAAY0BAA@DPBDI@Z		; strncpy_s<256>
PUBLIC	??_C@_07JAECCEML@SayText?$AA@			; `string'
PUBLIC	??_C@_01HIHLOKLC@1?$AA@				; `string'
PUBLIC	??_C@_0M@GCMOLOHF@hud_saytext?$AA@		; `string'
PUBLIC	??_C@_01BMBHCPLG@5?$AA@				; `string'
PUBLIC	??_C@_0BB@OPEEGHEM@hud_saytext_time?$AA@	; `string'
PUBLIC	??_C@_0O@JPPDMPEP@misc?1talk?4wav?$AA@		; `string'
PUBLIC	??_C@_01CLKCMJKC@?5?$AA@			; `string'
PUBLIC	__real@00000000
PUBLIC	__real@3f800000
EXTRN	___report_rangecheckfailure:PROC
EXTRN	_memmove:PROC
EXTRN	_memset:PROC
EXTRN	_strncpy_s:PROC
EXTRN	?Q_strlen@@YAHPBD@Z:PROC			; Q_strlen
EXTRN	?Q_strncat@@YAIPADPBDI@Z:PROC			; Q_strncat
EXTRN	?Q_strncpy@@YAIPADPBDI@Z:PROC			; Q_strncpy
EXTRN	?Q_strstr@@YAPADPBD0@Z:PROC			; Q_strstr
EXTRN	?AddHudElem@CHud@@QAEXPAVCHudBase@@@Z:PROC	; CHud::AddHudElem
EXTRN	?BEGIN_READ@@YAXPBDPAXH@Z:PROC			; BEGIN_READ
EXTRN	?END_READ@@YAXXZ:PROC				; END_READ
EXTRN	?READ_BYTE@@YAHXZ:PROC				; READ_BYTE
EXTRN	?READ_STRING@@YAPADXZ:PROC			; READ_STRING
EXTRN	?GetClientColor@@YAPAMH@Z:PROC			; GetClientColor
EXTRN	@__security_check_cookie@4:PROC
EXTRN	_memset:PROC
EXTRN	?gEngfuncs@@3Ucl_enginefuncs_s@@A:BYTE		; gEngfuncs
EXTRN	?gHUD@@3VCHud@@A:BYTE				; gHUD
EXTRN	?g_PlayerInfoList@@3PAUhud_player_info_s@@A:BYTE ; g_PlayerInfoList
EXTRN	___security_cookie:DWORD
EXTRN	__fltused:DWORD
_BSS	SEGMENT
?g_szLineBuffer@@3PAY0BAA@DA DB 0600H DUP (?)		; g_szLineBuffer
?g_pflNameColors@@3PAPAMA DD 06H DUP (?)		; g_pflNameColors
?g_iNameLengths@@3PAHA DD 06H DUP (?)			; g_iNameLengths
_BSS	ENDS
;	COMDAT __real@3f800000
CONST	SEGMENT
__real@3f800000 DD 03f800000r			; 1
CONST	ENDS
;	COMDAT __real@00000000
CONST	SEGMENT
__real@00000000 DD 000000000r			; 0
CONST	ENDS
;	COMDAT ??_C@_01CLKCMJKC@?5?$AA@
CONST	SEGMENT
??_C@_01CLKCMJKC@?5?$AA@ DB ' ', 00H			; `string'
CONST	ENDS
;	COMDAT ??_C@_0O@JPPDMPEP@misc?1talk?4wav?$AA@
CONST	SEGMENT
??_C@_0O@JPPDMPEP@misc?1talk?4wav?$AA@ DB 'misc/talk.wav', 00H ; `string'
CONST	ENDS
;	COMDAT ??_C@_0BB@OPEEGHEM@hud_saytext_time?$AA@
CONST	SEGMENT
??_C@_0BB@OPEEGHEM@hud_saytext_time?$AA@ DB 'hud_saytext_time', 00H ; `string'
CONST	ENDS
;	COMDAT ??_C@_01BMBHCPLG@5?$AA@
CONST	SEGMENT
??_C@_01BMBHCPLG@5?$AA@ DB '5', 00H			; `string'
CONST	ENDS
;	COMDAT ??_C@_0M@GCMOLOHF@hud_saytext?$AA@
CONST	SEGMENT
??_C@_0M@GCMOLOHF@hud_saytext?$AA@ DB 'hud_saytext', 00H ; `string'
CONST	ENDS
;	COMDAT ??_C@_01HIHLOKLC@1?$AA@
CONST	SEGMENT
??_C@_01HIHLOKLC@1?$AA@ DB '1', 00H			; `string'
CONST	ENDS
;	COMDAT ??_C@_07JAECCEML@SayText?$AA@
CONST	SEGMENT
??_C@_07JAECCEML@SayText?$AA@ DB 'SayText', 00H		; `string'
CONST	ENDS
; Function compile flags: /Odtp /ZI
; File c:\program files (x86)\windows kits\10\include\10.0.10240.0\ucrt\string.h
;	COMDAT ??$strncpy_s@$0BAA@@@YAHAAY0BAA@DPBDI@Z
_TEXT	SEGMENT
__Destination$ = 8					; size = 4
__Source$ = 12						; size = 4
__Count$ = 16						; size = 4
??$strncpy_s@$0BAA@@@YAHAAY0BAA@DPBDI@Z PROC		; strncpy_s<256>, COMDAT

; 338  :     )

	push	ebp
	mov	ebp, esp
	sub	esp, 64					; 00000040H
	push	ebx
	push	esi
	push	edi

; 333  : __DEFINE_CPP_OVERLOAD_SECURE_FUNC_0_2(

	mov	eax, DWORD PTR __Count$[ebp]
	push	eax
	mov	ecx, DWORD PTR __Source$[ebp]
	push	ecx
	push	256					; 00000100H
	mov	edx, DWORD PTR __Destination$[ebp]
	push	edx
	call	_strncpy_s
	add	esp, 16					; 00000010H
	pop	edi
	pop	esi
	pop	ebx
	mov	esp, ebp
	pop	ebp
	ret	0
??$strncpy_s@$0BAA@@@YAHAAY0BAA@DPBDI@Z ENDP		; strncpy_s<256>
_TEXT	ENDS
; Function compile flags: /Odtp /ZI
; File d:\!diffusion 2020\source code 2022\client-server\client\saytext.cpp
;	COMDAT ?ScrollTextUp@@YAHXZ
_TEXT	SEGMENT
?ScrollTextUp@@YAHXZ PROC				; ScrollTextUp, COMDAT

; 74   : {

	push	ebp
	mov	ebp, esp
	sub	esp, 64					; 00000040H
	push	ebx
	push	esi
	push	edi

; 75   : 	ConsolePrint( g_szLineBuffer[0] ); // move the first line into the console buffer

	mov	eax, 256				; 00000100H
	imul	ecx, eax, 0
	add	ecx, OFFSET ?g_szLineBuffer@@3PAY0BAA@DA
	push	ecx
	call	DWORD PTR ?gEngfuncs@@3Ucl_enginefuncs_s@@A+120
	add	esp, 4

; 76   : 	g_szLineBuffer[MAX_LINES][0] = 0;

	mov	eax, 256				; 00000100H
	imul	ecx, eax, 5
	mov	edx, 1
	imul	eax, edx, 0
	mov	BYTE PTR ?g_szLineBuffer@@3PAY0BAA@DA[ecx+eax], 0

; 77   : 
; 78   : 	memmove( g_szLineBuffer[0], g_szLineBuffer[1], sizeof( g_szLineBuffer ) - sizeof( g_szLineBuffer[0] ));

	push	1280					; 00000500H
	mov	eax, 256				; 00000100H
	shl	eax, 0
	add	eax, OFFSET ?g_szLineBuffer@@3PAY0BAA@DA
	push	eax
	mov	ecx, 256				; 00000100H
	imul	edx, ecx, 0
	add	edx, OFFSET ?g_szLineBuffer@@3PAY0BAA@DA
	push	edx
	call	_memmove
	add	esp, 12					; 0000000cH

; 79   : 	memmove( &g_pflNameColors[0], &g_pflNameColors[1], sizeof( g_pflNameColors ) - sizeof( g_pflNameColors[0] ));

	push	20					; 00000014H
	mov	eax, 4
	shl	eax, 0
	add	eax, OFFSET ?g_pflNameColors@@3PAPAMA
	push	eax
	mov	ecx, 4
	imul	edx, ecx, 0
	add	edx, OFFSET ?g_pflNameColors@@3PAPAMA
	push	edx
	call	_memmove
	add	esp, 12					; 0000000cH

; 80   : 	memmove( &g_iNameLengths[0], &g_iNameLengths[1], sizeof( g_iNameLengths ) - sizeof( g_iNameLengths[0] ));

	push	20					; 00000014H
	mov	eax, 4
	shl	eax, 0
	add	eax, OFFSET ?g_iNameLengths@@3PAHA
	push	eax
	mov	ecx, 4
	imul	edx, ecx, 0
	add	edx, OFFSET ?g_iNameLengths@@3PAHA
	push	edx
	call	_memmove
	add	esp, 12					; 0000000cH

; 81   : 	g_szLineBuffer[MAX_LINES-1][0] = 0;

	mov	eax, 256				; 00000100H
	shl	eax, 2
	mov	ecx, 1
	imul	edx, ecx, 0
	mov	BYTE PTR ?g_szLineBuffer@@3PAY0BAA@DA[eax+edx], 0

; 82   : 
; 83   : 	if( g_szLineBuffer[0][0] == ' ' )

	mov	eax, 256				; 00000100H
	imul	ecx, eax, 0
	mov	edx, 1
	imul	eax, edx, 0
	movsx	ecx, BYTE PTR ?g_szLineBuffer@@3PAY0BAA@DA[ecx+eax]
	cmp	ecx, 32					; 00000020H
	jne	SHORT $LN2@ScrollText

; 84   : 	{
; 85   : 		// also scroll up following lines
; 86   : 		g_szLineBuffer[0][0] = 2;

	mov	eax, 256				; 00000100H
	imul	ecx, eax, 0
	mov	edx, 1
	imul	eax, edx, 0
	mov	BYTE PTR ?g_szLineBuffer@@3PAY0BAA@DA[ecx+eax], 2

; 87   : 		return 1 + ScrollTextUp();

	call	?ScrollTextUp@@YAHXZ			; ScrollTextUp
	add	eax, 1
	jmp	SHORT $LN1@ScrollText
$LN2@ScrollText:

; 88   : 	}
; 89   : 
; 90   : 	return 1;

	mov	eax, 1
$LN1@ScrollText:

; 91   : }

	pop	edi
	pop	esi
	pop	ebx
	mov	esp, ebp
	pop	ebp
	ret	0
?ScrollTextUp@@YAHXZ ENDP				; ScrollTextUp
_TEXT	ENDS
; Function compile flags: /Odtp /ZI
; File d:\!diffusion 2020\source code 2022\client-server\client\saytext.cpp
;	COMDAT ?__MsgFunc_SayText@@YAHPBDHPAX@Z
_TEXT	SEGMENT
_pszName$ = 8						; size = 4
_iSize$ = 12						; size = 4
_pbuf$ = 16						; size = 4
?__MsgFunc_SayText@@YAHPBDHPAX@Z PROC			; __MsgFunc_SayText, COMDAT

; 43   : DECLARE_MESSAGE( m_SayText, SayText );

	push	ebp
	mov	ebp, esp
	sub	esp, 64					; 00000040H
	push	ebx
	push	esi
	push	edi
	mov	eax, DWORD PTR _pbuf$[ebp]
	push	eax
	mov	ecx, DWORD PTR _iSize$[ebp]
	push	ecx
	mov	edx, DWORD PTR _pszName$[ebp]
	push	edx
	mov	ecx, OFFSET ?gHUD@@3VCHud@@A+1384
	call	?MsgFunc_SayText@CHudSayText@@QAEHPBDHPAX@Z ; CHudSayText::MsgFunc_SayText
	pop	edi
	pop	esi
	pop	ebx
	mov	esp, ebp
	pop	ebp
	ret	0
?__MsgFunc_SayText@@YAHPBDHPAX@Z ENDP			; __MsgFunc_SayText
_TEXT	ENDS
; Function compile flags: /Odtp /ZI
; File d:\!diffusion 2020\source code 2022\client-server\client\saytext.cpp
;	COMDAT ?EnsureTextFitsInOneLineAndWrapIfHaveTo@CHudSayText@@QAEXH@Z
_TEXT	SEGMENT
$T1 = -112						; size = 4
_remaininglen$2 = -44					; size = 4
_linelen$3 = -40					; size = 4
_linesmoved$4 = -36					; size = 4
_j$5 = -32						; size = 4
_buf$6 = -28						; size = 2
_x$7 = -24						; size = 4
_last_break$8 = -20					; size = 4
_tmp_len$9 = -16					; size = 4
_length$10 = -12					; size = 4
_line_width$ = -8					; size = 4
_this$ = -4						; size = 4
_line$ = 8						; size = 4
?EnsureTextFitsInOneLineAndWrapIfHaveTo@CHudSayText@@QAEXH@Z PROC ; CHudSayText::EnsureTextFitsInOneLineAndWrapIfHaveTo, COMDAT
; _this$ = ecx

; 232  : {

	push	ebp
	mov	ebp, esp
	sub	esp, 112				; 00000070H
	push	ebx
	push	esi
	push	edi
	mov	DWORD PTR _this$[ebp], ecx

; 233  : 	int line_width = 0;

	mov	DWORD PTR _line_width$[ebp], 0

; 234  : 
; 235  : 	GetConsoleStringSize( g_szLineBuffer[line], &line_width, &line_height );

	push	OFFSET ?line_height@@3HA
	lea	eax, DWORD PTR _line_width$[ebp]
	push	eax
	mov	ecx, DWORD PTR _line$[ebp]
	shl	ecx, 8
	add	ecx, OFFSET ?g_szLineBuffer@@3PAY0BAA@DA
	push	ecx
	call	DWORD PTR ?gEngfuncs@@3Ucl_enginefuncs_s@@A+116
	add	esp, 12					; 0000000cH

; 236  : 
; 237  : 	if(( line_width + LINE_START ) > MAX_LINE_WIDTH )

	mov	eax, DWORD PTR _line_width$[ebp]
	add	eax, 10					; 0000000aH
	mov	ecx, DWORD PTR ?gHUD@@3VCHud@@A+8436
	sub	ecx, 40					; 00000028H
	cmp	eax, ecx
	jle	$LN26@EnsureText

; 238  : 	{
; 239  : 		// string is too long to fit on line
; 240  : 		// scan the string until we find what word is too long,  and wrap the end of the sentence after the word
; 241  : 
; 242  : 		int length = LINE_START;

	mov	DWORD PTR _length$10[ebp], 10		; 0000000aH

; 243  : 		int tmp_len = 0;

	mov	DWORD PTR _tmp_len$9[ebp], 0

; 244  : 		char *last_break = NULL;

	mov	DWORD PTR _last_break$8[ebp], 0

; 245  : 
; 246  : 		for( char *x = g_szLineBuffer[line]; *x != 0; x++ )

	mov	eax, DWORD PTR _line$[ebp]
	shl	eax, 8
	add	eax, OFFSET ?g_szLineBuffer@@3PAY0BAA@DA
	mov	DWORD PTR _x$7[ebp], eax
	jmp	SHORT $LN4@EnsureText
$LN2@EnsureText:
	mov	eax, DWORD PTR _x$7[ebp]
	add	eax, 1
	mov	DWORD PTR _x$7[ebp], eax
$LN4@EnsureText:
	mov	eax, DWORD PTR _x$7[ebp]
	movsx	ecx, BYTE PTR [eax]
	test	ecx, ecx
	je	$LN26@EnsureText

; 247  : 		{
; 248  : 			// check for a color change, if so skip past it
; 249  : 			if( x[0] == '/' && x[1] == '(' )

	mov	eax, 1
	imul	ecx, eax, 0
	mov	edx, DWORD PTR _x$7[ebp]
	movsx	eax, BYTE PTR [edx+ecx]
	cmp	eax, 47					; 0000002fH
	jne	SHORT $LN14@EnsureText
	mov	eax, 1
	shl	eax, 0
	mov	ecx, DWORD PTR _x$7[ebp]
	movsx	edx, BYTE PTR [ecx+eax]
	cmp	edx, 40					; 00000028H
	jne	SHORT $LN14@EnsureText

; 250  : 			{
; 251  : 				x += 2;

	mov	eax, DWORD PTR _x$7[ebp]
	add	eax, 2
	mov	DWORD PTR _x$7[ebp], eax
$LN5@EnsureText:

; 252  : 
; 253  : 				// skip forward until past mode specifier
; 254  : 				while( *x != 0 && *x != ')' )

	mov	eax, DWORD PTR _x$7[ebp]
	movsx	ecx, BYTE PTR [eax]
	test	ecx, ecx
	je	SHORT $LN6@EnsureText
	mov	eax, DWORD PTR _x$7[ebp]
	movsx	ecx, BYTE PTR [eax]
	cmp	ecx, 41					; 00000029H
	je	SHORT $LN6@EnsureText

; 255  : 					x++;

	mov	eax, DWORD PTR _x$7[ebp]
	add	eax, 1
	mov	DWORD PTR _x$7[ebp], eax
	jmp	SHORT $LN5@EnsureText
$LN6@EnsureText:

; 256  : 
; 257  : 				if( *x != 0 )

	mov	eax, DWORD PTR _x$7[ebp]
	movsx	ecx, BYTE PTR [eax]
	test	ecx, ecx
	je	SHORT $LN15@EnsureText

; 258  : 					x++;

	mov	eax, DWORD PTR _x$7[ebp]
	add	eax, 1
	mov	DWORD PTR _x$7[ebp], eax
$LN15@EnsureText:

; 259  : 
; 260  : 				if( *x == 0 )

	mov	eax, DWORD PTR _x$7[ebp]
	movsx	ecx, BYTE PTR [eax]
	test	ecx, ecx
	jne	SHORT $LN14@EnsureText

; 261  : 					break;

	jmp	$LN26@EnsureText
$LN14@EnsureText:

; 262  : 			}
; 263  : 
; 264  : 			char buf[2];
; 265  : 			buf[1] = 0;

	mov	DWORD PTR $T1[ebp], 1
	cmp	DWORD PTR $T1[ebp], 2
	jae	SHORT $LN27@EnsureText
	jmp	SHORT $LN28@EnsureText
$LN27@EnsureText:
	call	___report_rangecheckfailure
$LN28@EnsureText:
	mov	eax, DWORD PTR $T1[ebp]
	mov	BYTE PTR _buf$6[ebp+eax], 0

; 266  : 
; 267  : 			// store each line break,  except for the very first character
; 268  : 			if( *x == ' ' && x != g_szLineBuffer[line] )

	mov	eax, DWORD PTR _x$7[ebp]
	movsx	ecx, BYTE PTR [eax]
	cmp	ecx, 32					; 00000020H
	jne	SHORT $LN17@EnsureText
	mov	eax, DWORD PTR _line$[ebp]
	shl	eax, 8
	add	eax, OFFSET ?g_szLineBuffer@@3PAY0BAA@DA
	cmp	DWORD PTR _x$7[ebp], eax
	je	SHORT $LN17@EnsureText

; 269  : 				last_break = x;

	mov	eax, DWORD PTR _x$7[ebp]
	mov	DWORD PTR _last_break$8[ebp], eax
$LN17@EnsureText:

; 270  : 
; 271  : 			buf[0] = *x;  // get the length of the current character

	mov	eax, 1
	imul	ecx, eax, 0
	mov	edx, DWORD PTR _x$7[ebp]
	mov	al, BYTE PTR [edx]
	mov	BYTE PTR _buf$6[ebp+ecx], al

; 272  : 
; 273  : 			GetConsoleStringSize( buf, &tmp_len, &line_height );

	push	OFFSET ?line_height@@3HA
	lea	eax, DWORD PTR _tmp_len$9[ebp]
	push	eax
	lea	ecx, DWORD PTR _buf$6[ebp]
	push	ecx
	call	DWORD PTR ?gEngfuncs@@3Ucl_enginefuncs_s@@A+116
	add	esp, 12					; 0000000cH

; 274  : 			length += tmp_len;

	mov	eax, DWORD PTR _length$10[ebp]
	add	eax, DWORD PTR _tmp_len$9[ebp]
	mov	DWORD PTR _length$10[ebp], eax

; 275  : 
; 276  : 			if( length > MAX_LINE_WIDTH )

	mov	eax, DWORD PTR ?gHUD@@3VCHud@@A+8436
	sub	eax, 40					; 00000028H
	cmp	DWORD PTR _length$10[ebp], eax
	jle	$LN18@EnsureText

; 277  : 			{
; 278  : 				// needs to be broken up
; 279  : 				if( !last_break )

	cmp	DWORD PTR _last_break$8[ebp], 0
	jne	SHORT $LN19@EnsureText

; 280  : 					last_break = x-1;

	mov	eax, DWORD PTR _x$7[ebp]
	sub	eax, 1
	mov	DWORD PTR _last_break$8[ebp], eax
$LN19@EnsureText:

; 281  : 
; 282  : 				x = last_break;

	mov	eax, DWORD PTR _last_break$8[ebp]
	mov	DWORD PTR _x$7[ebp], eax
$LN9@EnsureText:

; 283  : 
; 284  : 				// find an empty string slot
; 285  : 				int j;
; 286  : 				do 
; 287  : 				{
; 288  : 					for( j = 0; j < MAX_LINES; j++ )

	mov	DWORD PTR _j$5[ebp], 0
	jmp	SHORT $LN12@EnsureText
$LN10@EnsureText:
	mov	eax, DWORD PTR _j$5[ebp]
	add	eax, 1
	mov	DWORD PTR _j$5[ebp], eax
$LN12@EnsureText:
	cmp	DWORD PTR _j$5[ebp], 5
	jge	SHORT $LN11@EnsureText

; 289  : 					{
; 290  : 						if( !*g_szLineBuffer[j] )

	mov	eax, DWORD PTR _j$5[ebp]
	shl	eax, 8
	mov	ecx, 1
	imul	edx, ecx, 0
	movsx	eax, BYTE PTR ?g_szLineBuffer@@3PAY0BAA@DA[eax+edx]
	test	eax, eax
	jne	SHORT $LN20@EnsureText

; 291  : 							break;

	jmp	SHORT $LN11@EnsureText
$LN20@EnsureText:

; 292  : 					}

	jmp	SHORT $LN10@EnsureText
$LN11@EnsureText:

; 293  : 		
; 294  : 					if( j == MAX_LINES )

	cmp	DWORD PTR _j$5[ebp], 5
	jne	SHORT $LN7@EnsureText

; 295  : 					{
; 296  : 						// need to make more room to display text, scroll stuff up then fix the pointers
; 297  : 						int linesmoved = ScrollTextUp();

	call	?ScrollTextUp@@YAHXZ			; ScrollTextUp
	mov	DWORD PTR _linesmoved$4[ebp], eax

; 298  : 						line -= linesmoved;

	mov	eax, DWORD PTR _line$[ebp]
	sub	eax, DWORD PTR _linesmoved$4[ebp]
	mov	DWORD PTR _line$[ebp], eax

; 299  : 						last_break = last_break - ( sizeof( g_szLineBuffer[0] ) * linesmoved );

	mov	eax, DWORD PTR _linesmoved$4[ebp]
	shl	eax, 8
	mov	ecx, DWORD PTR _last_break$8[ebp]
	sub	ecx, eax
	mov	DWORD PTR _last_break$8[ebp], ecx
$LN7@EnsureText:

; 300  : 					}
; 301  : 				} while( j == MAX_LINES );

	cmp	DWORD PTR _j$5[ebp], 5
	je	SHORT $LN9@EnsureText

; 302  : 
; 303  : 				// copy remaining string into next buffer,  making sure it starts with a space character
; 304  : 				if( *last_break == ' ' )

	mov	eax, DWORD PTR _last_break$8[ebp]
	movsx	ecx, BYTE PTR [eax]
	cmp	ecx, 32					; 00000020H
	jne	SHORT $LN22@EnsureText

; 305  : 				{
; 306  : 					int linelen = Q_strlen( g_szLineBuffer[j] );

	mov	eax, DWORD PTR _j$5[ebp]
	shl	eax, 8
	add	eax, OFFSET ?g_szLineBuffer@@3PAY0BAA@DA
	push	eax
	call	?Q_strlen@@YAHPBD@Z			; Q_strlen
	add	esp, 4
	mov	DWORD PTR _linelen$3[ebp], eax

; 307  : 					int remaininglen = Q_strlen( last_break );

	mov	eax, DWORD PTR _last_break$8[ebp]
	push	eax
	call	?Q_strlen@@YAHPBD@Z			; Q_strlen
	add	esp, 4
	mov	DWORD PTR _remaininglen$2[ebp], eax

; 308  : 
; 309  : 					if(( linelen - remaininglen ) <= MAX_CHARS_PER_LINE )

	mov	eax, DWORD PTR _linelen$3[ebp]
	sub	eax, DWORD PTR _remaininglen$2[ebp]
	cmp	eax, 256				; 00000100H
	jg	SHORT $LN24@EnsureText

; 310  : 						Q_strcat( g_szLineBuffer[j], last_break );

	push	99999					; 0001869fH
	mov	eax, DWORD PTR _last_break$8[ebp]
	push	eax
	mov	ecx, DWORD PTR _j$5[ebp]
	shl	ecx, 8
	add	ecx, OFFSET ?g_szLineBuffer@@3PAY0BAA@DA
	push	ecx
	call	?Q_strncat@@YAIPADPBDI@Z		; Q_strncat
	add	esp, 12					; 0000000cH
$LN24@EnsureText:

; 311  : 				}
; 312  : 				else

	jmp	SHORT $LN23@EnsureText
$LN22@EnsureText:

; 313  : 				{
; 314  : 					if(( Q_strlen( g_szLineBuffer[j] ) - Q_strlen( last_break ) - 2 ) < MAX_CHARS_PER_LINE )

	mov	eax, DWORD PTR _j$5[ebp]
	shl	eax, 8
	add	eax, OFFSET ?g_szLineBuffer@@3PAY0BAA@DA
	push	eax
	call	?Q_strlen@@YAHPBD@Z			; Q_strlen
	add	esp, 4
	mov	esi, eax
	mov	ecx, DWORD PTR _last_break$8[ebp]
	push	ecx
	call	?Q_strlen@@YAHPBD@Z			; Q_strlen
	add	esp, 4
	sub	esi, eax
	sub	esi, 2
	cmp	esi, 256				; 00000100H
	jge	SHORT $LN23@EnsureText

; 315  : 					{
; 316  : 						Q_strcat( g_szLineBuffer[j], " " );

	push	99999					; 0001869fH
	push	OFFSET ??_C@_01CLKCMJKC@?5?$AA@
	mov	eax, DWORD PTR _j$5[ebp]
	shl	eax, 8
	add	eax, OFFSET ?g_szLineBuffer@@3PAY0BAA@DA
	push	eax
	call	?Q_strncat@@YAIPADPBDI@Z		; Q_strncat
	add	esp, 12					; 0000000cH

; 317  : 						Q_strcat( g_szLineBuffer[j], last_break );

	push	99999					; 0001869fH
	mov	eax, DWORD PTR _last_break$8[ebp]
	push	eax
	mov	ecx, DWORD PTR _j$5[ebp]
	shl	ecx, 8
	add	ecx, OFFSET ?g_szLineBuffer@@3PAY0BAA@DA
	push	ecx
	call	?Q_strncat@@YAIPADPBDI@Z		; Q_strncat
	add	esp, 12					; 0000000cH
$LN23@EnsureText:

; 318  : 					}
; 319  : 				}
; 320  : 
; 321  : 				*last_break = 0; // cut off the last string

	mov	eax, DWORD PTR _last_break$8[ebp]
	mov	BYTE PTR [eax], 0

; 322  : 
; 323  : 				EnsureTextFitsInOneLineAndWrapIfHaveTo( j );

	mov	eax, DWORD PTR _j$5[ebp]
	push	eax
	mov	ecx, DWORD PTR _this$[ebp]
	call	?EnsureTextFitsInOneLineAndWrapIfHaveTo@CHudSayText@@QAEXH@Z ; CHudSayText::EnsureTextFitsInOneLineAndWrapIfHaveTo

; 324  : 				break;

	jmp	SHORT $LN26@EnsureText
$LN18@EnsureText:

; 325  : 			}
; 326  : 		}

	jmp	$LN2@EnsureText
$LN26@EnsureText:

; 327  : 	}
; 328  : }

	pop	edi
	pop	esi
	pop	ebx
	mov	esp, ebp
	pop	ebp
	ret	4
?EnsureTextFitsInOneLineAndWrapIfHaveTo@CHudSayText@@QAEXH@Z ENDP ; CHudSayText::EnsureTextFitsInOneLineAndWrapIfHaveTo
_TEXT	ENDS
; Function compile flags: /Odtp /ZI
; File d:\!diffusion 2020\source code 2022\client-server\client\saytext.cpp
;	COMDAT ?SayTextPrint@CHudSayText@@QAEXPBDHH@Z
_TEXT	SEGMENT
tv138 = -84						; size = 4
_nameInString$1 = -16					; size = 4
_pName$2 = -12						; size = 4
_i$ = -8						; size = 4
_this$ = -4						; size = 4
_pszBuf$ = 8						; size = 4
_iBufSize$ = 12						; size = 4
_clientIndex$ = 16					; size = 4
?SayTextPrint@CHudSayText@@QAEXPBDHH@Z PROC		; CHudSayText::SayTextPrint, COMDAT
; _this$ = ecx

; 174  : {

	push	ebp
	mov	ebp, esp
	sub	esp, 84					; 00000054H
	push	ebx
	push	esi
	push	edi
	mov	DWORD PTR _this$[ebp], ecx

; 175  : 	// find an empty string slot
; 176  : 	int i;
; 177  : 	for( i = 0; i < MAX_LINES; i++ )

	mov	DWORD PTR _i$[ebp], 0
	jmp	SHORT $LN4@SayTextPri
$LN2@SayTextPri:
	mov	eax, DWORD PTR _i$[ebp]
	add	eax, 1
	mov	DWORD PTR _i$[ebp], eax
$LN4@SayTextPri:
	cmp	DWORD PTR _i$[ebp], 5
	jge	SHORT $LN3@SayTextPri

; 178  : 	{
; 179  : 		if( !*g_szLineBuffer[i] )

	mov	eax, DWORD PTR _i$[ebp]
	shl	eax, 8
	mov	ecx, 1
	imul	edx, ecx, 0
	movsx	eax, BYTE PTR ?g_szLineBuffer@@3PAY0BAA@DA[eax+edx]
	test	eax, eax
	jne	SHORT $LN5@SayTextPri

; 180  : 			break;

	jmp	SHORT $LN3@SayTextPri
$LN5@SayTextPri:

; 181  : 	}

	jmp	SHORT $LN2@SayTextPri
$LN3@SayTextPri:

; 182  : 
; 183  : 	if( i == MAX_LINES )

	cmp	DWORD PTR _i$[ebp], 5
	jne	SHORT $LN6@SayTextPri

; 184  : 	{
; 185  : 		// force scroll buffer up
; 186  : 		ScrollTextUp();

	call	?ScrollTextUp@@YAHXZ			; ScrollTextUp

; 187  : 		i = MAX_LINES - 1;

	mov	DWORD PTR _i$[ebp], 4
$LN6@SayTextPri:

; 188  : 	}
; 189  : 
; 190  : 	g_iNameLengths[i] = 0;

	mov	eax, DWORD PTR _i$[ebp]
	mov	DWORD PTR ?g_iNameLengths@@3PAHA[eax*4], 0

; 191  : 	g_pflNameColors[i] = NULL;

	mov	eax, DWORD PTR _i$[ebp]
	mov	DWORD PTR ?g_pflNameColors@@3PAPAMA[eax*4], 0

; 192  : 
; 193  : 	// if it's a say message, search for the players name in the string
; 194  : 	if( *pszBuf == 2 && clientIndex > 0 )

	mov	eax, DWORD PTR _pszBuf$[ebp]
	movsx	ecx, BYTE PTR [eax]
	cmp	ecx, 2
	jne	SHORT $LN9@SayTextPri
	cmp	DWORD PTR _clientIndex$[ebp], 0
	jle	SHORT $LN9@SayTextPri

; 195  : 	{
; 196  : 		GetPlayerInfo( clientIndex, &g_PlayerInfoList[clientIndex] );

	imul	eax, DWORD PTR _clientIndex$[ebp], 20
	add	eax, OFFSET ?g_PlayerInfoList@@3PAUhud_player_info_s@@A ; g_PlayerInfoList
	push	eax
	mov	ecx, DWORD PTR _clientIndex$[ebp]
	push	ecx
	call	DWORD PTR ?gEngfuncs@@3Ucl_enginefuncs_s@@A+84
	add	esp, 8

; 197  : 		const char *pName = g_PlayerInfoList[clientIndex].name;

	imul	eax, DWORD PTR _clientIndex$[ebp], 20
	mov	ecx, DWORD PTR ?g_PlayerInfoList@@3PAUhud_player_info_s@@A[eax]
	mov	DWORD PTR _pName$2[ebp], ecx

; 198  : 
; 199  : 		if( pName )

	cmp	DWORD PTR _pName$2[ebp], 0
	je	SHORT $LN9@SayTextPri

; 200  : 		{
; 201  : 			const char *nameInString = Q_strstr( pszBuf, pName );

	mov	eax, DWORD PTR _pName$2[ebp]
	push	eax
	mov	ecx, DWORD PTR _pszBuf$[ebp]
	push	ecx
	call	?Q_strstr@@YAPADPBD0@Z			; Q_strstr
	add	esp, 8
	mov	DWORD PTR _nameInString$1[ebp], eax

; 202  : 
; 203  : 			if( nameInString )

	cmp	DWORD PTR _nameInString$1[ebp], 0
	je	SHORT $LN9@SayTextPri

; 204  : 			{
; 205  : 				g_iNameLengths[i] = Q_strlen( pName ) + (nameInString - pszBuf);

	mov	eax, DWORD PTR _pName$2[ebp]
	push	eax
	call	?Q_strlen@@YAHPBD@Z			; Q_strlen
	add	esp, 4
	mov	ecx, DWORD PTR _nameInString$1[ebp]
	sub	ecx, DWORD PTR _pszBuf$[ebp]
	add	eax, ecx
	mov	edx, DWORD PTR _i$[ebp]
	mov	DWORD PTR ?g_iNameLengths@@3PAHA[edx*4], eax

; 206  : 				g_pflNameColors[i] = GetClientColor( clientIndex );

	mov	eax, DWORD PTR _clientIndex$[ebp]
	push	eax
	call	?GetClientColor@@YAPAMH@Z		; GetClientColor
	add	esp, 4
	mov	ecx, DWORD PTR _i$[ebp]
	mov	DWORD PTR ?g_pflNameColors@@3PAPAMA[ecx*4], eax
$LN9@SayTextPri:

; 207  : 			}
; 208  : 		}
; 209  : 	}
; 210  : 
; 211  : 	Q_strncpy( g_szLineBuffer[i], pszBuf, max( iBufSize - 1, MAX_CHARS_PER_LINE - 1 ));

	mov	eax, DWORD PTR _iBufSize$[ebp]
	sub	eax, 1
	cmp	eax, 255				; 000000ffH
	jle	SHORT $LN14@SayTextPri
	mov	ecx, DWORD PTR _iBufSize$[ebp]
	sub	ecx, 1
	mov	DWORD PTR tv138[ebp], ecx
	jmp	SHORT $LN15@SayTextPri
$LN14@SayTextPri:
	mov	DWORD PTR tv138[ebp], 255		; 000000ffH
$LN15@SayTextPri:
	mov	edx, DWORD PTR tv138[ebp]
	push	edx
	mov	eax, DWORD PTR _pszBuf$[ebp]
	push	eax
	mov	ecx, DWORD PTR _i$[ebp]
	shl	ecx, 8
	add	ecx, OFFSET ?g_szLineBuffer@@3PAY0BAA@DA
	push	ecx
	call	?Q_strncpy@@YAIPADPBDI@Z		; Q_strncpy
	add	esp, 12					; 0000000cH

; 212  : 
; 213  : 	// make sure the text fits in one line
; 214  : 	EnsureTextFitsInOneLineAndWrapIfHaveTo( i );

	mov	eax, DWORD PTR _i$[ebp]
	push	eax
	mov	ecx, DWORD PTR _this$[ebp]
	call	?EnsureTextFitsInOneLineAndWrapIfHaveTo@CHudSayText@@QAEXH@Z ; CHudSayText::EnsureTextFitsInOneLineAndWrapIfHaveTo

; 215  : 
; 216  : 	// Set scroll time
; 217  : 	if( i == 0 )

	cmp	DWORD PTR _i$[ebp], 0
	jne	SHORT $LN10@SayTextPri

; 218  : 		flScrollTime = gHUD.m_flTime + m_HUD_saytext_time->value;

	mov	eax, DWORD PTR _this$[ebp]
	mov	ecx, DWORD PTR [eax+12]
	movss	xmm0, DWORD PTR ?gHUD@@3VCHud@@A+32
	addss	xmm0, DWORD PTR [ecx+12]
	movss	DWORD PTR ?flScrollTime@@3MA, xmm0
$LN10@SayTextPri:

; 219  : 
; 220  : 	m_iFlags |= HUD_ACTIVE;

	mov	eax, DWORD PTR _this$[ebp]
	mov	ecx, DWORD PTR [eax+4]
	or	ecx, 1
	mov	edx, DWORD PTR _this$[ebp]
	mov	DWORD PTR [edx+4], ecx

; 221  : 	PlaySound( "misc/talk.wav", 1 ); // diffusionFIXME - a cvar needed

	push	ecx
	movss	xmm0, DWORD PTR __real@3f800000
	movss	DWORD PTR [esp], xmm0
	push	OFFSET ??_C@_0O@JPPDMPEP@misc?1talk?4wav?$AA@
	call	?PlaySoundA@@YAXPADM@Z			; PlaySoundA
	add	esp, 8

; 222  : 
; 223  : 	if( ScreenHeight >= 480 )

	cmp	DWORD PTR ?gHUD@@3VCHud@@A+8440, 480	; 000001e0H
	jl	SHORT $LN11@SayTextPri

; 224  : 		Y_START = ScreenHeight - 60;

	mov	eax, DWORD PTR ?gHUD@@3VCHud@@A+8440
	sub	eax, 60					; 0000003cH
	mov	DWORD PTR ?Y_START@@3HA, eax

; 225  : 	else

	jmp	SHORT $LN12@SayTextPri
$LN11@SayTextPri:

; 226  : 		Y_START = ScreenHeight - 45;

	mov	eax, DWORD PTR ?gHUD@@3VCHud@@A+8440
	sub	eax, 45					; 0000002dH
	mov	DWORD PTR ?Y_START@@3HA, eax
$LN12@SayTextPri:

; 227  : 
; 228  : 	Y_START -= (line_height * (MAX_LINES+1));

	imul	eax, DWORD PTR ?line_height@@3HA, 6
	mov	ecx, DWORD PTR ?Y_START@@3HA
	sub	ecx, eax
	mov	DWORD PTR ?Y_START@@3HA, ecx

; 229  : }

	pop	edi
	pop	esi
	pop	ebx
	mov	esp, ebp
	pop	ebp
	ret	12					; 0000000cH
?SayTextPrint@CHudSayText@@QAEXPBDHH@Z ENDP		; CHudSayText::SayTextPrint
_TEXT	ENDS
; Function compile flags: /Odtp /ZI
; File d:\!diffusion 2020\source code 2022\client-server\client\saytext.cpp
;	COMDAT ?MsgFunc_SayText@CHudSayText@@QAEHPBDHPAX@Z
_TEXT	SEGMENT
_client_index$ = -8					; size = 4
_this$ = -4						; size = 4
_pszName$ = 8						; size = 4
_iSize$ = 12						; size = 4
_pbuf$ = 16						; size = 4
?MsgFunc_SayText@CHudSayText@@QAEHPBDHPAX@Z PROC	; CHudSayText::MsgFunc_SayText, COMDAT
; _this$ = ecx

; 162  : {

	push	ebp
	mov	ebp, esp
	sub	esp, 72					; 00000048H
	push	ebx
	push	esi
	push	edi
	mov	DWORD PTR _this$[ebp], ecx

; 163  : 	BEGIN_READ( pszName, pbuf, iSize );

	mov	eax, DWORD PTR _iSize$[ebp]
	push	eax
	mov	ecx, DWORD PTR _pbuf$[ebp]
	push	ecx
	mov	edx, DWORD PTR _pszName$[ebp]
	push	edx
	call	?BEGIN_READ@@YAXPBDPAXH@Z		; BEGIN_READ
	add	esp, 12					; 0000000cH

; 164  : 
; 165  : 	int client_index = READ_BYTE(); // the client who spoke the message

	call	?READ_BYTE@@YAHXZ			; READ_BYTE
	mov	DWORD PTR _client_index$[ebp], eax

; 166  : 	SayTextPrint( READ_STRING(), iSize - 1, client_index );

	mov	eax, DWORD PTR _client_index$[ebp]
	push	eax
	mov	ecx, DWORD PTR _iSize$[ebp]
	sub	ecx, 1
	push	ecx
	call	?READ_STRING@@YAPADXZ			; READ_STRING
	push	eax
	mov	ecx, DWORD PTR _this$[ebp]
	call	?SayTextPrint@CHudSayText@@QAEXPBDHH@Z	; CHudSayText::SayTextPrint

; 167  : 
; 168  : 	END_READ();

	call	?END_READ@@YAXXZ			; END_READ

; 169  : 	
; 170  : 	return 1;

	mov	eax, 1

; 171  : }

	pop	edi
	pop	esi
	pop	ebx
	mov	esp, ebp
	pop	ebp
	ret	12					; 0000000cH
?MsgFunc_SayText@CHudSayText@@QAEHPBDHPAX@Z ENDP	; CHudSayText::MsgFunc_SayText
_TEXT	ENDS
; Function compile flags: /Odtp /ZI
; File d:\!diffusion 2020\source code 2022\client-server\client\saytext.cpp
;	COMDAT ?Draw@CHudSayText@@UAEHM@Z
_TEXT	SEGMENT
tv157 = -356						; size = 4
tv74 = -356						; size = 4
$T1 = -352						; size = 4
$T2 = -348						; size = 4
_x$3 = -280						; size = 4
_playerNameEndIndex$4 = -276				; size = 4
_i$5 = -272						; size = 4
_line$ = -268						; size = 256
_y$ = -12						; size = 4
_this$ = -8						; size = 4
__$ArrayPad$ = -4					; size = 4
_flTime$ = 8						; size = 4
?Draw@CHudSayText@@UAEHM@Z PROC				; CHudSayText::Draw, COMDAT
; _this$ = ecx

; 94   : {

	push	ebp
	mov	ebp, esp
	sub	esp, 356				; 00000164H
	mov	eax, DWORD PTR ___security_cookie
	xor	eax, ebp
	mov	DWORD PTR __$ArrayPad$[ebp], eax
	push	ebx
	push	esi
	push	edi
	mov	DWORD PTR _this$[ebp], ecx

; 95   : 	if( !m_HUD_saytext->value )

	mov	eax, DWORD PTR _this$[ebp]
	mov	ecx, DWORD PTR [eax+8]
	movss	xmm0, DWORD PTR [ecx+12]
	ucomiss	xmm0, DWORD PTR __real@00000000
	lahf
	test	ah, 68					; 00000044H
	jp	SHORT $LN5@Draw

; 96   : 		return 1;

	mov	eax, 1
	jmp	$LN1@Draw
$LN5@Draw:

; 97   : 
; 98   : 	int y = Y_START;

	mov	eax, DWORD PTR ?Y_START@@3HA
	mov	DWORD PTR _y$[ebp], eax

; 99   : 
; 100  : 	// make sure the scrolltime is within reasonable bounds, to guard against the clock being reset
; 101  : 	flScrollTime = min( flScrollTime, flTime + m_HUD_saytext_time->value );

	mov	eax, DWORD PTR _this$[ebp]
	mov	ecx, DWORD PTR [eax+12]
	movss	xmm0, DWORD PTR _flTime$[ebp]
	addss	xmm0, DWORD PTR [ecx+12]
	comiss	xmm0, DWORD PTR ?flScrollTime@@3MA
	jbe	SHORT $LN13@Draw
	movss	xmm0, DWORD PTR ?flScrollTime@@3MA
	movss	DWORD PTR tv74[ebp], xmm0
	jmp	SHORT $LN14@Draw
$LN13@Draw:
	mov	edx, DWORD PTR _this$[ebp]
	mov	eax, DWORD PTR [edx+12]
	movss	xmm0, DWORD PTR _flTime$[ebp]
	addss	xmm0, DWORD PTR [eax+12]
	movss	DWORD PTR tv74[ebp], xmm0
$LN14@Draw:
	movss	xmm0, DWORD PTR tv74[ebp]
	movss	DWORD PTR ?flScrollTime@@3MA, xmm0

; 102  : 
; 103  : 	if( flScrollTime <= flTime )

	movss	xmm0, DWORD PTR _flTime$[ebp]
	comiss	xmm0, DWORD PTR ?flScrollTime@@3MA
	jb	SHORT $LN8@Draw

; 104  : 	{
; 105  : 		if( *g_szLineBuffer[0] )

	mov	eax, 256				; 00000100H
	imul	ecx, eax, 0
	mov	edx, 1
	imul	eax, edx, 0
	movsx	ecx, BYTE PTR ?g_szLineBuffer@@3PAY0BAA@DA[ecx+eax]
	test	ecx, ecx
	je	SHORT $LN7@Draw

; 106  : 		{
; 107  : 			flScrollTime = flTime + m_HUD_saytext_time->value;

	mov	eax, DWORD PTR _this$[ebp]
	mov	ecx, DWORD PTR [eax+12]
	movss	xmm0, DWORD PTR _flTime$[ebp]
	addss	xmm0, DWORD PTR [ecx+12]
	movss	DWORD PTR ?flScrollTime@@3MA, xmm0

; 108  : 			// push the console up
; 109  : 			ScrollTextUp();

	call	?ScrollTextUp@@YAHXZ			; ScrollTextUp

; 110  : 		}
; 111  : 		else

	jmp	SHORT $LN8@Draw
$LN7@Draw:

; 112  : 		{
; 113  : 			// buffer is empty,  just disable drawing of this section
; 114  : 			m_iFlags &= ~HUD_ACTIVE;

	mov	eax, DWORD PTR _this$[ebp]
	mov	ecx, DWORD PTR [eax+4]
	and	ecx, -2					; fffffffeH
	mov	edx, DWORD PTR _this$[ebp]
	mov	DWORD PTR [edx+4], ecx
$LN8@Draw:

; 115  : 		}
; 116  : 	}
; 117  : 
; 118  : 	char line[MAX_CHARS_PER_LINE]{};

	push	256					; 00000100H
	push	0
	lea	eax, DWORD PTR _line$[ebp]
	push	eax
	call	_memset
	add	esp, 12					; 0000000cH

; 119  : 
; 120  : 	for( int i = 0; i < MAX_LINES; i++ )

	mov	DWORD PTR _i$5[ebp], 0
	jmp	SHORT $LN4@Draw
$LN2@Draw:
	mov	eax, DWORD PTR _i$5[ebp]
	add	eax, 1
	mov	DWORD PTR _i$5[ebp], eax
$LN4@Draw:
	cmp	DWORD PTR _i$5[ebp], 5
	jge	$LN3@Draw

; 121  : 	{
; 122  : 		if( '\0' != *g_szLineBuffer[i] )

	mov	eax, DWORD PTR _i$5[ebp]
	shl	eax, 8
	mov	ecx, 1
	imul	edx, ecx, 0
	movsx	eax, BYTE PTR ?g_szLineBuffer@@3PAY0BAA@DA[eax+edx]
	test	eax, eax
	je	$LN11@Draw

; 123  : 		{
; 124  : 			if( *g_szLineBuffer[i] == 2 && g_pflNameColors[i] )

	mov	eax, DWORD PTR _i$5[ebp]
	shl	eax, 8
	mov	ecx, 1
	imul	edx, ecx, 0
	movsx	eax, BYTE PTR ?g_szLineBuffer@@3PAY0BAA@DA[eax+edx]
	cmp	eax, 2
	jne	$LN10@Draw
	mov	eax, DWORD PTR _i$5[ebp]
	cmp	DWORD PTR ?g_pflNameColors@@3PAPAMA[eax*4], 0
	je	$LN10@Draw

; 125  : 			{
; 126  : 				// it's a saytext string
; 127  : 
; 128  : 				//Make a copy we can freely modify
; 129  : 				strncpy_s( line, g_szLineBuffer[i], sizeof( line ) - 1 );

	push	255					; 000000ffH
	mov	eax, DWORD PTR _i$5[ebp]
	shl	eax, 8
	add	eax, OFFSET ?g_szLineBuffer@@3PAY0BAA@DA
	push	eax
	lea	ecx, DWORD PTR _line$[ebp]
	push	ecx
	call	??$strncpy_s@$0BAA@@@YAHAAY0BAA@DPBDI@Z	; strncpy_s<256>
	add	esp, 12					; 0000000cH

; 130  : 				line[sizeof( line ) - 1] = '\0';

	mov	eax, 1
	imul	ecx, eax, 255
	mov	DWORD PTR $T2[ebp], ecx
	cmp	DWORD PTR $T2[ebp], 256			; 00000100H
	jae	SHORT $LN15@Draw
	jmp	SHORT $LN16@Draw
$LN15@Draw:
	call	___report_rangecheckfailure
$LN16@Draw:
	mov	edx, DWORD PTR $T2[ebp]
	mov	BYTE PTR _line$[ebp+edx], 0

; 131  : 
; 132  : 				// draw the first x characters in the player color
; 133  : 				const std::size_t playerNameEndIndex = min( g_iNameLengths[i], MAX_PLAYER_NAME_LENGTH + 31 );

	mov	eax, DWORD PTR _i$5[ebp]
	cmp	DWORD PTR ?g_iNameLengths@@3PAHA[eax*4], 63 ; 0000003fH
	jge	SHORT $LN17@Draw
	mov	ecx, DWORD PTR _i$5[ebp]
	mov	edx, DWORD PTR ?g_iNameLengths@@3PAHA[ecx*4]
	mov	DWORD PTR tv157[ebp], edx
	jmp	SHORT $LN18@Draw
$LN17@Draw:
	mov	DWORD PTR tv157[ebp], 63		; 0000003fH
$LN18@Draw:
	mov	eax, DWORD PTR tv157[ebp]
	mov	DWORD PTR _playerNameEndIndex$4[ebp], eax

; 134  : 
; 135  : 				//Cut off the actual text so we can print player name
; 136  : 				line[playerNameEndIndex] = '\0';

	mov	eax, DWORD PTR _playerNameEndIndex$4[ebp]
	mov	DWORD PTR $T1[ebp], eax
	cmp	DWORD PTR $T1[ebp], 256			; 00000100H
	jae	SHORT $LN19@Draw
	jmp	SHORT $LN20@Draw
$LN19@Draw:
	call	___report_rangecheckfailure
$LN20@Draw:
	mov	ecx, DWORD PTR $T1[ebp]
	mov	BYTE PTR _line$[ebp+ecx], 0

; 137  : 
; 138  : 				gEngfuncs.pfnDrawSetTextColor( g_pflNameColors[i][0], g_pflNameColors[i][1], g_pflNameColors[i][2] );

	mov	eax, 4
	shl	eax, 1
	mov	ecx, DWORD PTR _i$5[ebp]
	mov	edx, DWORD PTR ?g_pflNameColors@@3PAPAMA[ecx*4]
	push	ecx
	movss	xmm0, DWORD PTR [edx+eax]
	movss	DWORD PTR [esp], xmm0
	mov	eax, 4
	shl	eax, 0
	mov	ecx, DWORD PTR _i$5[ebp]
	mov	edx, DWORD PTR ?g_pflNameColors@@3PAPAMA[ecx*4]
	push	ecx
	movss	xmm0, DWORD PTR [edx+eax]
	movss	DWORD PTR [esp], xmm0
	mov	eax, 4
	imul	ecx, eax, 0
	mov	edx, DWORD PTR _i$5[ebp]
	mov	eax, DWORD PTR ?g_pflNameColors@@3PAPAMA[edx*4]
	push	ecx
	movss	xmm0, DWORD PTR [eax+ecx]
	movss	DWORD PTR [esp], xmm0
	call	DWORD PTR ?gEngfuncs@@3Ucl_enginefuncs_s@@A+112
	add	esp, 12					; 0000000cH

; 139  : 				const int x = DrawConsoleString( LINE_START, y, line + 1 ); // don't draw the control code at the start

	lea	eax, DWORD PTR _line$[ebp+1]
	push	eax
	mov	ecx, DWORD PTR _y$[ebp]
	push	ecx
	push	10					; 0000000aH
	call	DWORD PTR ?gEngfuncs@@3Ucl_enginefuncs_s@@A+108
	add	esp, 12					; 0000000cH
	mov	DWORD PTR _x$3[ebp], eax

; 140  : 
; 141  : 				//Reset last character
; 142  : 				line[playerNameEndIndex] = g_szLineBuffer[i][playerNameEndIndex];

	mov	eax, DWORD PTR _i$5[ebp]
	shl	eax, 8
	mov	ecx, DWORD PTR _playerNameEndIndex$4[ebp]
	mov	edx, DWORD PTR _playerNameEndIndex$4[ebp]
	mov	al, BYTE PTR ?g_szLineBuffer@@3PAY0BAA@DA[eax+edx]
	mov	BYTE PTR _line$[ebp+ecx], al

; 143  : 
; 144  : 				// color is reset after each string draw
; 145  : 				//Print the text without player name
; 146  : 				DrawConsoleString( x, y, line + g_iNameLengths[i] );

	mov	eax, DWORD PTR _i$5[ebp]
	mov	ecx, DWORD PTR ?g_iNameLengths@@3PAHA[eax*4]
	lea	edx, DWORD PTR _line$[ebp+ecx]
	push	edx
	mov	eax, DWORD PTR _y$[ebp]
	push	eax
	mov	ecx, DWORD PTR _x$3[ebp]
	push	ecx
	call	DWORD PTR ?gEngfuncs@@3Ucl_enginefuncs_s@@A+108
	add	esp, 12					; 0000000cH

; 147  : 			}
; 148  : 			else

	jmp	SHORT $LN11@Draw
$LN10@Draw:

; 149  : 			{
; 150  : 				// normal draw
; 151  : 				DrawConsoleString( LINE_START, y, g_szLineBuffer[i] );

	mov	eax, DWORD PTR _i$5[ebp]
	shl	eax, 8
	add	eax, OFFSET ?g_szLineBuffer@@3PAY0BAA@DA
	push	eax
	mov	ecx, DWORD PTR _y$[ebp]
	push	ecx
	push	10					; 0000000aH
	call	DWORD PTR ?gEngfuncs@@3Ucl_enginefuncs_s@@A+108
	add	esp, 12					; 0000000cH
$LN11@Draw:

; 152  : 			}
; 153  : 		}
; 154  : 
; 155  : 		y += line_height;

	mov	eax, DWORD PTR _y$[ebp]
	add	eax, DWORD PTR ?line_height@@3HA
	mov	DWORD PTR _y$[ebp], eax

; 156  : 	}

	jmp	$LN2@Draw
$LN3@Draw:

; 157  : 
; 158  : 	return 1;

	mov	eax, 1
$LN1@Draw:

; 159  : }

	pop	edi
	pop	esi
	pop	ebx
	mov	ecx, DWORD PTR __$ArrayPad$[ebp]
	xor	ecx, ebp
	call	@__security_check_cookie@4
	mov	esp, ebp
	pop	ebp
	ret	4
?Draw@CHudSayText@@UAEHM@Z ENDP				; CHudSayText::Draw
_TEXT	ENDS
; Function compile flags: /Odtp /ZI
; File d:\!diffusion 2020\source code 2022\client-server\client\saytext.cpp
;	COMDAT ?VidInit@CHudSayText@@UAEHXZ
_TEXT	SEGMENT
_this$ = -4						; size = 4
?VidInit@CHudSayText@@UAEHXZ PROC			; CHudSayText::VidInit, COMDAT
; _this$ = ecx

; 69   : {

	push	ebp
	mov	ebp, esp
	sub	esp, 68					; 00000044H
	push	ebx
	push	esi
	push	edi
	mov	DWORD PTR _this$[ebp], ecx

; 70   : 	return 1;

	mov	eax, 1

; 71   : }

	pop	edi
	pop	esi
	pop	ebx
	mov	esp, ebp
	pop	ebp
	ret	0
?VidInit@CHudSayText@@UAEHXZ ENDP			; CHudSayText::VidInit
_TEXT	ENDS
; Function compile flags: /Odtp /ZI
; File d:\!diffusion 2020\source code 2022\client-server\client\saytext.cpp
;	COMDAT ?InitHUDData@CHudSayText@@UAEXXZ
_TEXT	SEGMENT
_this$ = -4						; size = 4
?InitHUDData@CHudSayText@@UAEXXZ PROC			; CHudSayText::InitHUDData, COMDAT
; _this$ = ecx

; 62   : {

	push	ebp
	mov	ebp, esp
	sub	esp, 68					; 00000044H
	push	ebx
	push	esi
	push	edi
	mov	DWORD PTR _this$[ebp], ecx

; 63   : 	memset( g_szLineBuffer, 0, sizeof g_szLineBuffer );

	push	1536					; 00000600H
	push	0
	push	OFFSET ?g_szLineBuffer@@3PAY0BAA@DA
	call	_memset
	add	esp, 12					; 0000000cH

; 64   : 	memset( g_pflNameColors, 0, sizeof g_pflNameColors );

	push	24					; 00000018H
	push	0
	push	OFFSET ?g_pflNameColors@@3PAPAMA
	call	_memset
	add	esp, 12					; 0000000cH

; 65   : 	memset( g_iNameLengths, 0, sizeof g_iNameLengths );

	push	24					; 00000018H
	push	0
	push	OFFSET ?g_iNameLengths@@3PAHA
	call	_memset
	add	esp, 12					; 0000000cH

; 66   : }

	pop	edi
	pop	esi
	pop	ebx
	mov	esp, ebp
	pop	ebp
	ret	0
?InitHUDData@CHudSayText@@UAEXXZ ENDP			; CHudSayText::InitHUDData
_TEXT	ENDS
; Function compile flags: /Odtp /ZI
; File d:\!diffusion 2020\source code 2022\client-server\client\saytext.cpp
;	COMDAT ?Init@CHudSayText@@UAEHXZ
_TEXT	SEGMENT
_this$ = -4						; size = 4
?Init@CHudSayText@@UAEHXZ PROC				; CHudSayText::Init, COMDAT
; _this$ = ecx

; 46   : {

	push	ebp
	mov	ebp, esp
	sub	esp, 68					; 00000044H
	push	ebx
	push	esi
	push	edi
	mov	DWORD PTR _this$[ebp], ecx

; 47   : 	gHUD.AddHudElem( this );

	mov	eax, DWORD PTR _this$[ebp]
	push	eax
	mov	ecx, OFFSET ?gHUD@@3VCHud@@A		; gHUD
	call	?AddHudElem@CHud@@QAEXPAVCHudBase@@@Z	; CHud::AddHudElem

; 48   : 
; 49   : 	HOOK_MESSAGE( SayText );

	push	OFFSET ?__MsgFunc_SayText@@YAHPBDHPAX@Z	; __MsgFunc_SayText
	push	OFFSET ??_C@_07JAECCEML@SayText?$AA@
	call	DWORD PTR ?gEngfuncs@@3Ucl_enginefuncs_s@@A+72
	add	esp, 8

; 50   : 
; 51   : 	InitHUDData();

	mov	eax, DWORD PTR _this$[ebp]
	mov	edx, DWORD PTR [eax]
	mov	ecx, DWORD PTR _this$[ebp]
	mov	eax, DWORD PTR [edx+24]
	call	eax

; 52   : 
; 53   : 	m_HUD_saytext = CVAR_REGISTER( "hud_saytext", "1", 0 );

	push	0
	push	OFFSET ??_C@_01HIHLOKLC@1?$AA@
	push	OFFSET ??_C@_0M@GCMOLOHF@hud_saytext?$AA@
	call	DWORD PTR ?gEngfuncs@@3Ucl_enginefuncs_s@@A+56
	add	esp, 12					; 0000000cH
	mov	ecx, DWORD PTR _this$[ebp]
	mov	DWORD PTR [ecx+8], eax

; 54   : 	m_HUD_saytext_time = CVAR_REGISTER( "hud_saytext_time", "5", 0 );

	push	0
	push	OFFSET ??_C@_01BMBHCPLG@5?$AA@
	push	OFFSET ??_C@_0BB@OPEEGHEM@hud_saytext_time?$AA@
	call	DWORD PTR ?gEngfuncs@@3Ucl_enginefuncs_s@@A+56
	add	esp, 12					; 0000000cH
	mov	ecx, DWORD PTR _this$[ebp]
	mov	DWORD PTR [ecx+12], eax

; 55   : 
; 56   : 	m_iFlags |= HUD_INTERMISSION; // is always drawn during an intermission

	mov	eax, DWORD PTR _this$[ebp]
	mov	ecx, DWORD PTR [eax+4]
	or	ecx, 2
	mov	edx, DWORD PTR _this$[ebp]
	mov	DWORD PTR [edx+4], ecx

; 57   : 
; 58   : 	return 1;

	mov	eax, 1

; 59   : }

	pop	edi
	pop	esi
	pop	ebx
	mov	esp, ebp
	pop	ebp
	ret	0
?Init@CHudSayText@@UAEHXZ ENDP				; CHudSayText::Init
_TEXT	ENDS
; Function compile flags: /Odtp /ZI
; File d:\!diffusion 2020\source code 2022\client-server\client\enginecallback.h
;	COMDAT ?PlaySoundA@@YAXPADM@Z
_TEXT	SEGMENT
_szSound$ = 8						; size = 4
_vol$ = 12						; size = 4
?PlaySoundA@@YAXPADM@Z PROC				; PlaySoundA, COMDAT

; 75   : inline void PlaySound( char *szSound, float vol ) { gEngfuncs.pfnPlaySoundByName( szSound, vol ); }

	push	ebp
	mov	ebp, esp
	sub	esp, 64					; 00000040H
	push	ebx
	push	esi
	push	edi
	push	ecx
	movss	xmm0, DWORD PTR _vol$[ebp]
	movss	DWORD PTR [esp], xmm0
	mov	eax, DWORD PTR _szSound$[ebp]
	push	eax
	call	DWORD PTR ?gEngfuncs@@3Ucl_enginefuncs_s@@A+88
	add	esp, 8
	pop	edi
	pop	esi
	pop	ebx
	mov	esp, ebp
	pop	ebp
	ret	0
?PlaySoundA@@YAXPADM@Z ENDP				; PlaySoundA
_TEXT	ENDS
; Function compile flags: /Odtp /ZI
; File d:\!diffusion 2020\source code 2022\client-server\client\saytext.cpp
;	COMDAT ?__empty_global_delete@@YAXPAXI@Z
_TEXT	SEGMENT
___formal$ = 8						; size = 4
___formal$ = 12						; size = 4
?__empty_global_delete@@YAXPAXI@Z PROC			; __empty_global_delete, COMDAT

	push	ebp
	mov	ebp, esp
	sub	esp, 64					; 00000040H
	push	ebx
	push	esi
	push	edi
	pop	edi
	pop	esi
	pop	ebx
	mov	esp, ebp
	pop	ebp
	ret	0
?__empty_global_delete@@YAXPAXI@Z ENDP			; __empty_global_delete
_TEXT	ENDS
; Function compile flags: /Odtp /ZI
; File d:\!diffusion 2020\source code 2022\client-server\client\saytext.cpp
;	COMDAT ?__empty_global_delete@@YAXPAX@Z
_TEXT	SEGMENT
___formal$ = 8						; size = 4
?__empty_global_delete@@YAXPAX@Z PROC			; __empty_global_delete, COMDAT

; 329  : }

	push	ebp
	mov	ebp, esp
	sub	esp, 64					; 00000040H
	push	ebx
	push	esi
	push	edi
	pop	edi
	pop	esi
	pop	ebx
	mov	esp, ebp
	pop	ebp
	ret	0
?__empty_global_delete@@YAXPAX@Z ENDP			; __empty_global_delete
_TEXT	ENDS
; Function compile flags: /Odtp /ZI
;	COMDAT ??__G@YGXPAX0IIP6EPAX00@Z@Z
_TEXT	SEGMENT
tv66 = -68						; size = 4
___t$ = 8						; size = 4
___u$ = 12						; size = 4
___s$ = 16						; size = 4
___n$ = 20						; size = 4
___f$ = 24						; size = 4
??__G@YGXPAX0IIP6EPAX00@Z@Z PROC			; `vector copy constructor iterator', COMDAT
	push	ebp
	mov	ebp, esp
	sub	esp, 68					; 00000044H
	push	ebx
	push	esi
	push	edi
$LN2@vector:
	mov	eax, DWORD PTR ___n$[ebp]
	mov	DWORD PTR tv66[ebp], eax
	mov	ecx, DWORD PTR ___n$[ebp]
	sub	ecx, 1
	mov	DWORD PTR ___n$[ebp], ecx
	cmp	DWORD PTR tv66[ebp], 0
	jbe	SHORT $LN1@vector
	mov	eax, DWORD PTR ___u$[ebp]
	push	eax
	mov	ecx, DWORD PTR ___t$[ebp]
	call	DWORD PTR ___f$[ebp]
	mov	eax, DWORD PTR ___t$[ebp]
	add	eax, DWORD PTR ___s$[ebp]
	mov	DWORD PTR ___t$[ebp], eax
	mov	eax, DWORD PTR ___u$[ebp]
	add	eax, DWORD PTR ___s$[ebp]
	mov	DWORD PTR ___u$[ebp], eax
	jmp	SHORT $LN2@vector
$LN1@vector:
	pop	edi
	pop	esi
	pop	ebx
	mov	esp, ebp
	pop	ebp
	ret	20					; 00000014H
??__G@YGXPAX0IIP6EPAX00@Z@Z ENDP			; `vector copy constructor iterator'
_TEXT	ENDS
; Function compile flags: /Odtp /ZI
;	COMDAT ??_H@YGXPAXIIP6EPAX0@Z@Z
_TEXT	SEGMENT
tv66 = -68						; size = 4
___t$ = 8						; size = 4
___s$ = 12						; size = 4
___n$ = 16						; size = 4
___f$ = 20						; size = 4
??_H@YGXPAXIIP6EPAX0@Z@Z PROC				; `vector constructor iterator', COMDAT
	push	ebp
	mov	ebp, esp
	sub	esp, 68					; 00000044H
	push	ebx
	push	esi
	push	edi
$LN2@vector:
	mov	eax, DWORD PTR ___n$[ebp]
	mov	DWORD PTR tv66[ebp], eax
	mov	ecx, DWORD PTR ___n$[ebp]
	sub	ecx, 1
	mov	DWORD PTR ___n$[ebp], ecx
	cmp	DWORD PTR tv66[ebp], 0
	jbe	SHORT $LN1@vector
	mov	ecx, DWORD PTR ___t$[ebp]
	call	DWORD PTR ___f$[ebp]
	mov	eax, DWORD PTR ___t$[ebp]
	add	eax, DWORD PTR ___s$[ebp]
	mov	DWORD PTR ___t$[ebp], eax
	jmp	SHORT $LN2@vector
$LN1@vector:
	pop	edi
	pop	esi
	pop	ebx
	mov	esp, ebp
	pop	ebp
	ret	16					; 00000010H
??_H@YGXPAXIIP6EPAX0@Z@Z ENDP				; `vector constructor iterator'
_TEXT	ENDS
END
