; Listing generated by Microsoft (R) Optimizing Compiler Version 19.00.24247.2 

	TITLE	D:\!DIFFUSION 2020\source code 2022\client-server\client\scoreboard.cpp
	.686P
	.XMM
	include listing.inc
	.model	flat

INCLUDELIB LIBCMT
INCLUDELIB OLDNAMES

PUBLIC	?g_PlayerInfoList@@3PAUhud_player_info_s@@A	; g_PlayerInfoList
PUBLIC	?g_PlayerExtraInfo@@3PAUextra_player_info_t@@A	; g_PlayerExtraInfo
PUBLIC	?g_TeamInfo@@3PAUteam_info_t@@A			; g_TeamInfo
_BSS	SEGMENT
?g_PlayerInfoList@@3PAUhud_player_info_s@@A DB 0514H DUP (?) ; g_PlayerInfoList
?g_PlayerExtraInfo@@3PAUextra_player_info_t@@A DB 069aH DUP (?) ; g_PlayerExtraInfo
	ALIGN	4

?g_TeamInfo@@3PAUteam_info_t@@A DB 0a28H DUP (?)	; g_TeamInfo
_BSS	ENDS
PUBLIC	??_H@YGXPAXIIP6EPAX0@Z@Z			; `vector constructor iterator'
PUBLIC	??__G@YGXPAX0IIP6EPAX00@Z@Z			; `vector copy constructor iterator'
PUBLIC	?Init@CHudScoreboard@@UAEHXZ			; CHudScoreboard::Init
PUBLIC	?InitHUDData@CHudScoreboard@@UAEXXZ		; CHudScoreboard::InitHUDData
PUBLIC	?VidInit@CHudScoreboard@@UAEHXZ			; CHudScoreboard::VidInit
PUBLIC	?Draw@CHudScoreboard@@UAEHM@Z			; CHudScoreboard::Draw
PUBLIC	?DrawPlayers@CHudScoreboard@@QAEHHMHPAD@Z	; CHudScoreboard::DrawPlayers
PUBLIC	?UserCmd_ShowScores@CHudScoreboard@@QAEXXZ	; CHudScoreboard::UserCmd_ShowScores
PUBLIC	?UserCmd_HideScores@CHudScoreboard@@QAEXXZ	; CHudScoreboard::UserCmd_HideScores
PUBLIC	?MsgFunc_ScoreInfo@CHudScoreboard@@QAEHPBDHPAX@Z ; CHudScoreboard::MsgFunc_ScoreInfo
PUBLIC	?MsgFunc_TeamInfo@CHudScoreboard@@QAEHPBDHPAX@Z	; CHudScoreboard::MsgFunc_TeamInfo
PUBLIC	?MsgFunc_TeamScore@CHudScoreboard@@QAEHPBDHPAX@Z ; CHudScoreboard::MsgFunc_TeamScore
PUBLIC	?DeathMsg@CHudScoreboard@@QAEXHH@Z		; CHudScoreboard::DeathMsg
PUBLIC	?GetAllPlayersInfo@CHudScoreboard@@QAEXXZ	; CHudScoreboard::GetAllPlayersInfo
PUBLIC	?UnpackRGB@@YAXAAH00K@Z				; UnpackRGB
PUBLIC	?__CmdFunc_ShowScores@@YAXXZ			; __CmdFunc_ShowScores
PUBLIC	?__CmdFunc_HideScores@@YAXXZ			; __CmdFunc_HideScores
PUBLIC	?__MsgFunc_ScoreInfo@@YAHPBDHPAX@Z		; __MsgFunc_ScoreInfo
PUBLIC	?__MsgFunc_TeamInfo@@YAHPBDHPAX@Z		; __MsgFunc_TeamInfo
PUBLIC	?__MsgFunc_TeamScore@@YAHPBDHPAX@Z		; __MsgFunc_TeamScore
PUBLIC	??_C@_0M@KOIMPMNL@?$CLshowscores?$AA@		; `string'
PUBLIC	??_C@_0M@EBLBFJDL@?9showscores?$AA@		; `string'
PUBLIC	??_C@_09CBJIIAKN@ScoreInfo?$AA@			; `string'
PUBLIC	??_C@_09DEGMELBN@TeamScore?$AA@			; `string'
PUBLIC	??_C@_08BHMNHEND@TeamInfo?$AA@			; `string'
PUBLIC	??_C@_06NPAAKFED@Player?$AA@			; `string'
PUBLIC	??_C@_05EPHHAOKA@Teams?$AA@			; `string'
PUBLIC	??_C@_05ILKPOBAF@Kills?$AA@			; `string'
PUBLIC	??_C@_06IIDHDGJJ@Deaths?$AA@			; `string'
PUBLIC	??_C@_04CPBFGEOK@Ping?$AA@			; `string'
PUBLIC	??_C@_02DPKJAMEF@?$CFd?$AA@			; `string'
PUBLIC	??_C@_00CNPNBAHC@?$AA@				; `string'
PUBLIC	??_C@_03EKLHOCPI@BOT?$AA@			; `string'
PUBLIC	??_C@_0P@PKMILLAG@showobjective?6?$AA@		; `string'
PUBLIC	??_C@_0P@PKLLKPAB@hideobjective?6?$AA@		; `string'
PUBLIC	__real@3f4ccccd
PUBLIC	__real@3f800000
PUBLIC	__real@3f99999a
PUBLIC	__real@3fe0000000000000
PUBLIC	__real@41200000
PUBLIC	__real@41700000
PUBLIC	__real@41a00000
PUBLIC	__real@41c80000
PUBLIC	__real@41f00000
EXTRN	_memset:PROC
EXTRN	?Q_strncpy@@YAIPADPBDI@Z:PROC			; Q_strncpy
EXTRN	?Q_strnicmp@@YAHPBD0H@Z:PROC			; Q_strnicmp
EXTRN	?Q_snprintf@@YAHPADIPBDZZ:PROC			; Q_snprintf
EXTRN	?DrawHudString@CHud@@QAEHHHHPADHHH@Z:PROC	; CHud::DrawHudString
EXTRN	?DrawHudStringReverse@CHud@@QAEHHHHPADHHH@Z:PROC ; CHud::DrawHudStringReverse
EXTRN	?DrawHudNumberString@CHud@@QAEHHHHHHHH@Z:PROC	; CHud::DrawHudNumberString
EXTRN	?AddHudElem@CHud@@QAEXPAVCHudBase@@@Z:PROC	; CHud::AddHudElem
EXTRN	?BEGIN_READ@@YAXPBDPAXH@Z:PROC			; BEGIN_READ
EXTRN	?END_READ@@YAXXZ:PROC				; END_READ
EXTRN	?READ_BYTE@@YAHXZ:PROC				; READ_BYTE
EXTRN	?READ_SHORT@@YAHXZ:PROC				; READ_SHORT
EXTRN	?READ_STRING@@YAPADXZ:PROC			; READ_STRING
EXTRN	?gEngfuncs@@3Ucl_enginefuncs_s@@A:BYTE		; gEngfuncs
EXTRN	?gHUD@@3VCHud@@A:BYTE				; gHUD
EXTRN	__fltused:DWORD
_BSS	SEGMENT
?buf@?CH@??Draw@CHudScoreboard@@UAEHM@Z@4PADA DB 040H DUP (?) ; `CHudScoreboard::Draw'::`39'::buf
?buf@?3??DrawPlayers@CHudScoreboard@@QAEHHMHPAD@Z@4PADA DB 040H DUP (?) ; `CHudScoreboard::DrawPlayers'::`4'::buf
_BSS	ENDS
;	COMDAT __real@41f00000
CONST	SEGMENT
__real@41f00000 DD 041f00000r			; 30
CONST	ENDS
;	COMDAT __real@41c80000
CONST	SEGMENT
__real@41c80000 DD 041c80000r			; 25
CONST	ENDS
;	COMDAT __real@41a00000
CONST	SEGMENT
__real@41a00000 DD 041a00000r			; 20
CONST	ENDS
;	COMDAT __real@41700000
CONST	SEGMENT
__real@41700000 DD 041700000r			; 15
CONST	ENDS
;	COMDAT __real@41200000
CONST	SEGMENT
__real@41200000 DD 041200000r			; 10
CONST	ENDS
;	COMDAT __real@3fe0000000000000
CONST	SEGMENT
__real@3fe0000000000000 DQ 03fe0000000000000r	; 0.5
CONST	ENDS
;	COMDAT __real@3f99999a
CONST	SEGMENT
__real@3f99999a DD 03f99999ar			; 1.2
CONST	ENDS
;	COMDAT __real@3f800000
CONST	SEGMENT
__real@3f800000 DD 03f800000r			; 1
CONST	ENDS
;	COMDAT __real@3f4ccccd
CONST	SEGMENT
__real@3f4ccccd DD 03f4ccccdr			; 0.8
CONST	ENDS
;	COMDAT ??_C@_0P@PKLLKPAB@hideobjective?6?$AA@
CONST	SEGMENT
??_C@_0P@PKLLKPAB@hideobjective?6?$AA@ DB 'hideobjective', 0aH, 00H ; `string'
CONST	ENDS
;	COMDAT ??_C@_0P@PKMILLAG@showobjective?6?$AA@
CONST	SEGMENT
??_C@_0P@PKMILLAG@showobjective?6?$AA@ DB 'showobjective', 0aH, 00H ; `string'
CONST	ENDS
;	COMDAT ??_C@_03EKLHOCPI@BOT?$AA@
CONST	SEGMENT
??_C@_03EKLHOCPI@BOT?$AA@ DB 'BOT', 00H			; `string'
CONST	ENDS
;	COMDAT ??_C@_00CNPNBAHC@?$AA@
CONST	SEGMENT
??_C@_00CNPNBAHC@?$AA@ DB 00H				; `string'
CONST	ENDS
;	COMDAT ??_C@_02DPKJAMEF@?$CFd?$AA@
CONST	SEGMENT
??_C@_02DPKJAMEF@?$CFd?$AA@ DB '%d', 00H		; `string'
CONST	ENDS
;	COMDAT ??_C@_04CPBFGEOK@Ping?$AA@
CONST	SEGMENT
??_C@_04CPBFGEOK@Ping?$AA@ DB 'Ping', 00H		; `string'
CONST	ENDS
;	COMDAT ??_C@_06IIDHDGJJ@Deaths?$AA@
CONST	SEGMENT
??_C@_06IIDHDGJJ@Deaths?$AA@ DB 'Deaths', 00H		; `string'
CONST	ENDS
;	COMDAT ??_C@_05ILKPOBAF@Kills?$AA@
CONST	SEGMENT
??_C@_05ILKPOBAF@Kills?$AA@ DB 'Kills', 00H		; `string'
CONST	ENDS
;	COMDAT ??_C@_05EPHHAOKA@Teams?$AA@
CONST	SEGMENT
??_C@_05EPHHAOKA@Teams?$AA@ DB 'Teams', 00H		; `string'
CONST	ENDS
;	COMDAT ??_C@_06NPAAKFED@Player?$AA@
CONST	SEGMENT
??_C@_06NPAAKFED@Player?$AA@ DB 'Player', 00H		; `string'
CONST	ENDS
;	COMDAT ??_C@_08BHMNHEND@TeamInfo?$AA@
CONST	SEGMENT
??_C@_08BHMNHEND@TeamInfo?$AA@ DB 'TeamInfo', 00H	; `string'
CONST	ENDS
;	COMDAT ??_C@_09DEGMELBN@TeamScore?$AA@
CONST	SEGMENT
??_C@_09DEGMELBN@TeamScore?$AA@ DB 'TeamScore', 00H	; `string'
CONST	ENDS
;	COMDAT ??_C@_09CBJIIAKN@ScoreInfo?$AA@
CONST	SEGMENT
??_C@_09CBJIIAKN@ScoreInfo?$AA@ DB 'ScoreInfo', 00H	; `string'
CONST	ENDS
;	COMDAT ??_C@_0M@EBLBFJDL@?9showscores?$AA@
CONST	SEGMENT
??_C@_0M@EBLBFJDL@?9showscores?$AA@ DB '-showscores', 00H ; `string'
CONST	ENDS
;	COMDAT ??_C@_0M@KOIMPMNL@?$CLshowscores?$AA@
CONST	SEGMENT
??_C@_0M@KOIMPMNL@?$CLshowscores?$AA@ DB '+showscores', 00H ; `string'
CONST	ENDS
; Function compile flags: /Odtp /ZI
; File d:\!diffusion 2020\source code 2022\client-server\client\scoreboard.cpp
;	COMDAT ?__MsgFunc_TeamScore@@YAHPBDHPAX@Z
_TEXT	SEGMENT
_pszName$ = 8						; size = 4
_iSize$ = 12						; size = 4
_pbuf$ = 16						; size = 4
?__MsgFunc_TeamScore@@YAHPBDHPAX@Z PROC			; __MsgFunc_TeamScore, COMDAT

; 34   : DECLARE_MESSAGE( m_Scoreboard, TeamScore );

	push	ebp
	mov	ebp, esp
	sub	esp, 64					; 00000040H
	push	ebx
	push	esi
	push	edi
	mov	eax, DWORD PTR _pbuf$[ebp]
	push	eax
	mov	ecx, DWORD PTR _iSize$[ebp]
	push	ecx
	mov	edx, DWORD PTR _pszName$[ebp]
	push	edx
	mov	ecx, OFFSET ?gHUD@@3VCHud@@A+772
	call	?MsgFunc_TeamScore@CHudScoreboard@@QAEHPBDHPAX@Z ; CHudScoreboard::MsgFunc_TeamScore
	pop	edi
	pop	esi
	pop	ebx
	mov	esp, ebp
	pop	ebp
	ret	0
?__MsgFunc_TeamScore@@YAHPBDHPAX@Z ENDP			; __MsgFunc_TeamScore
_TEXT	ENDS
; Function compile flags: /Odtp /ZI
; File d:\!diffusion 2020\source code 2022\client-server\client\scoreboard.cpp
;	COMDAT ?__MsgFunc_TeamInfo@@YAHPBDHPAX@Z
_TEXT	SEGMENT
_pszName$ = 8						; size = 4
_iSize$ = 12						; size = 4
_pbuf$ = 16						; size = 4
?__MsgFunc_TeamInfo@@YAHPBDHPAX@Z PROC			; __MsgFunc_TeamInfo, COMDAT

; 33   : DECLARE_MESSAGE( m_Scoreboard, TeamInfo );

	push	ebp
	mov	ebp, esp
	sub	esp, 64					; 00000040H
	push	ebx
	push	esi
	push	edi
	mov	eax, DWORD PTR _pbuf$[ebp]
	push	eax
	mov	ecx, DWORD PTR _iSize$[ebp]
	push	ecx
	mov	edx, DWORD PTR _pszName$[ebp]
	push	edx
	mov	ecx, OFFSET ?gHUD@@3VCHud@@A+772
	call	?MsgFunc_TeamInfo@CHudScoreboard@@QAEHPBDHPAX@Z ; CHudScoreboard::MsgFunc_TeamInfo
	pop	edi
	pop	esi
	pop	ebx
	mov	esp, ebp
	pop	ebp
	ret	0
?__MsgFunc_TeamInfo@@YAHPBDHPAX@Z ENDP			; __MsgFunc_TeamInfo
_TEXT	ENDS
; Function compile flags: /Odtp /ZI
; File d:\!diffusion 2020\source code 2022\client-server\client\scoreboard.cpp
;	COMDAT ?__MsgFunc_ScoreInfo@@YAHPBDHPAX@Z
_TEXT	SEGMENT
_pszName$ = 8						; size = 4
_iSize$ = 12						; size = 4
_pbuf$ = 16						; size = 4
?__MsgFunc_ScoreInfo@@YAHPBDHPAX@Z PROC			; __MsgFunc_ScoreInfo, COMDAT

; 32   : DECLARE_MESSAGE( m_Scoreboard, ScoreInfo );

	push	ebp
	mov	ebp, esp
	sub	esp, 64					; 00000040H
	push	ebx
	push	esi
	push	edi
	mov	eax, DWORD PTR _pbuf$[ebp]
	push	eax
	mov	ecx, DWORD PTR _iSize$[ebp]
	push	ecx
	mov	edx, DWORD PTR _pszName$[ebp]
	push	edx
	mov	ecx, OFFSET ?gHUD@@3VCHud@@A+772
	call	?MsgFunc_ScoreInfo@CHudScoreboard@@QAEHPBDHPAX@Z ; CHudScoreboard::MsgFunc_ScoreInfo
	pop	edi
	pop	esi
	pop	ebx
	mov	esp, ebp
	pop	ebp
	ret	0
?__MsgFunc_ScoreInfo@@YAHPBDHPAX@Z ENDP			; __MsgFunc_ScoreInfo
_TEXT	ENDS
; Function compile flags: /Odtp /ZI
; File d:\!diffusion 2020\source code 2022\client-server\client\scoreboard.cpp
;	COMDAT ?__CmdFunc_HideScores@@YAXXZ
_TEXT	SEGMENT
?__CmdFunc_HideScores@@YAXXZ PROC			; __CmdFunc_HideScores, COMDAT

; 30   : DECLARE_COMMAND( m_Scoreboard, HideScores );

	push	ebp
	mov	ebp, esp
	sub	esp, 64					; 00000040H
	push	ebx
	push	esi
	push	edi
	mov	ecx, OFFSET ?gHUD@@3VCHud@@A+772
	call	?UserCmd_HideScores@CHudScoreboard@@QAEXXZ ; CHudScoreboard::UserCmd_HideScores
	pop	edi
	pop	esi
	pop	ebx
	mov	esp, ebp
	pop	ebp
	ret	0
?__CmdFunc_HideScores@@YAXXZ ENDP			; __CmdFunc_HideScores
_TEXT	ENDS
; Function compile flags: /Odtp /ZI
; File d:\!diffusion 2020\source code 2022\client-server\client\scoreboard.cpp
;	COMDAT ?__CmdFunc_ShowScores@@YAXXZ
_TEXT	SEGMENT
?__CmdFunc_ShowScores@@YAXXZ PROC			; __CmdFunc_ShowScores, COMDAT

; 29   : DECLARE_COMMAND( m_Scoreboard, ShowScores );

	push	ebp
	mov	ebp, esp
	sub	esp, 64					; 00000040H
	push	ebx
	push	esi
	push	edi
	mov	ecx, OFFSET ?gHUD@@3VCHud@@A+772
	call	?UserCmd_ShowScores@CHudScoreboard@@QAEXXZ ; CHudScoreboard::UserCmd_ShowScores
	pop	edi
	pop	esi
	pop	ebx
	mov	esp, ebp
	pop	ebp
	ret	0
?__CmdFunc_ShowScores@@YAXXZ ENDP			; __CmdFunc_ShowScores
_TEXT	ENDS
; Function compile flags: /Odtp /ZI
; File d:\!diffusion 2020\source code 2022\client-server\client\utils.h
;	COMDAT ?UnpackRGB@@YAXAAH00K@Z
_TEXT	SEGMENT
_r$ = 8							; size = 4
_g$ = 12						; size = 4
_b$ = 16						; size = 4
_ulRGB$ = 20						; size = 4
?UnpackRGB@@YAXAAH00K@Z PROC				; UnpackRGB, COMDAT

; 98   : {\

	push	ebp
	mov	ebp, esp
	sub	esp, 64					; 00000040H
	push	ebx
	push	esi
	push	edi

; 99   : 	r = (ulRGB & 0xFF0000) >>16;\

	mov	eax, DWORD PTR _ulRGB$[ebp]
	and	eax, 16711680				; 00ff0000H
	shr	eax, 16					; 00000010H
	mov	ecx, DWORD PTR _r$[ebp]
	mov	DWORD PTR [ecx], eax

; 100  : 	g = (ulRGB & 0xFF00) >> 8;\

	mov	eax, DWORD PTR _ulRGB$[ebp]
	and	eax, 65280				; 0000ff00H
	shr	eax, 8
	mov	ecx, DWORD PTR _g$[ebp]
	mov	DWORD PTR [ecx], eax

; 101  : 	b = ulRGB & 0xFF;\

	mov	eax, DWORD PTR _ulRGB$[ebp]
	and	eax, 255				; 000000ffH
	mov	ecx, DWORD PTR _b$[ebp]
	mov	DWORD PTR [ecx], eax

; 102  : }

	pop	edi
	pop	esi
	pop	ebx
	mov	esp, ebp
	pop	ebp
	ret	0
?UnpackRGB@@YAXAAH00K@Z ENDP				; UnpackRGB
_TEXT	ENDS
; Function compile flags: /Odtp /ZI
; File d:\!diffusion 2020\source code 2022\client-server\client\scoreboard.cpp
;	COMDAT ?GetAllPlayersInfo@CHudScoreboard@@QAEXXZ
_TEXT	SEGMENT
_i$1 = -8						; size = 4
_this$ = -4						; size = 4
?GetAllPlayersInfo@CHudScoreboard@@QAEXXZ PROC		; CHudScoreboard::GetAllPlayersInfo, COMDAT
; _this$ = ecx

; 397  : {

	push	ebp
	mov	ebp, esp
	sub	esp, 72					; 00000048H
	push	ebx
	push	esi
	push	edi
	mov	DWORD PTR _this$[ebp], ecx

; 398  : 	for( int i = 1; i < MAX_PLAYERS; i++ )

	mov	DWORD PTR _i$1[ebp], 1
	jmp	SHORT $LN4@GetAllPlay
$LN2@GetAllPlay:
	mov	eax, DWORD PTR _i$1[ebp]
	add	eax, 1
	mov	DWORD PTR _i$1[ebp], eax
$LN4@GetAllPlay:
	cmp	DWORD PTR _i$1[ebp], 64			; 00000040H
	jge	SHORT $LN1@GetAllPlay

; 399  : 	{
; 400  : 		GetPlayerInfo( i, &g_PlayerInfoList[i] );

	imul	eax, DWORD PTR _i$1[ebp], 20
	add	eax, OFFSET ?g_PlayerInfoList@@3PAUhud_player_info_s@@A ; g_PlayerInfoList
	push	eax
	mov	ecx, DWORD PTR _i$1[ebp]
	push	ecx
	call	DWORD PTR ?gEngfuncs@@3Ucl_enginefuncs_s@@A+84
	add	esp, 8

; 401  : 
; 402  : 		if( g_PlayerInfoList[i].thisplayer )

	imul	eax, DWORD PTR _i$1[ebp], 20
	movzx	ecx, BYTE PTR ?g_PlayerInfoList@@3PAUhud_player_info_s@@A[eax+6]
	test	ecx, ecx
	je	SHORT $LN5@GetAllPlay

; 403  : 			m_iPlayerNum = i;  // !!!HACK: this should be initialized elsewhere... maybe gotten from the engine

	mov	eax, DWORD PTR _this$[ebp]
	mov	ecx, DWORD PTR _i$1[ebp]
	mov	DWORD PTR [eax+20], ecx
$LN5@GetAllPlay:

; 404  : 	}

	jmp	SHORT $LN2@GetAllPlay
$LN1@GetAllPlay:

; 405  : }

	pop	edi
	pop	esi
	pop	ebx
	mov	esp, ebp
	pop	ebp
	ret	0
?GetAllPlayersInfo@CHudScoreboard@@QAEXXZ ENDP		; CHudScoreboard::GetAllPlayersInfo
_TEXT	ENDS
; Function compile flags: /Odtp /ZI
; File d:\!diffusion 2020\source code 2022\client-server\client\scoreboard.cpp
;	COMDAT ?DeathMsg@CHudScoreboard@@QAEXHH@Z
_TEXT	SEGMENT
tv70 = -72						; size = 4
_this$ = -4						; size = 4
_killer$ = 8						; size = 4
_victim$ = 12						; size = 4
?DeathMsg@CHudScoreboard@@QAEXHH@Z PROC			; CHudScoreboard::DeathMsg, COMDAT
; _this$ = ecx

; 550  : {

	push	ebp
	mov	ebp, esp
	sub	esp, 72					; 00000048H
	push	ebx
	push	esi
	push	edi
	mov	DWORD PTR _this$[ebp], ecx

; 551  : 	// if we were the one killed,  or the world killed us, set the scoreboard to indicate suicide
; 552  : 	if( victim == m_iPlayerNum || killer == 0 )

	mov	eax, DWORD PTR _this$[ebp]
	mov	ecx, DWORD PTR _victim$[ebp]
	cmp	ecx, DWORD PTR [eax+20]
	je	SHORT $LN3@DeathMsg
	cmp	DWORD PTR _killer$[ebp], 0
	jne	SHORT $LN4@DeathMsg
$LN3@DeathMsg:

; 553  : 	{
; 554  : 		m_iLastKilledBy = killer ? killer : m_iPlayerNum;

	cmp	DWORD PTR _killer$[ebp], 0
	je	SHORT $LN6@DeathMsg
	mov	eax, DWORD PTR _killer$[ebp]
	mov	DWORD PTR tv70[ebp], eax
	jmp	SHORT $LN7@DeathMsg
$LN6@DeathMsg:
	mov	ecx, DWORD PTR _this$[ebp]
	mov	edx, DWORD PTR [ecx+20]
	mov	DWORD PTR tv70[ebp], edx
$LN7@DeathMsg:
	mov	eax, DWORD PTR _this$[ebp]
	mov	ecx, DWORD PTR tv70[ebp]
	mov	DWORD PTR [eax+12], ecx

; 555  : 		m_fLastKillTime = gHUD.m_flTime + 10;	// display who we were killed by for 10 seconds

	movss	xmm0, DWORD PTR ?gHUD@@3VCHud@@A+32
	addss	xmm0, DWORD PTR __real@41200000
	cvttss2si eax, xmm0
	mov	ecx, DWORD PTR _this$[ebp]
	mov	DWORD PTR [ecx+16], eax

; 556  : 
; 557  : 		if( killer == m_iPlayerNum )

	mov	eax, DWORD PTR _this$[ebp]
	mov	ecx, DWORD PTR _killer$[ebp]
	cmp	ecx, DWORD PTR [eax+20]
	jne	SHORT $LN4@DeathMsg

; 558  : 			m_iLastKilledBy = m_iPlayerNum;

	mov	eax, DWORD PTR _this$[ebp]
	mov	ecx, DWORD PTR _this$[ebp]
	mov	edx, DWORD PTR [ecx+20]
	mov	DWORD PTR [eax+12], edx
$LN4@DeathMsg:

; 559  : 	}
; 560  : }

	pop	edi
	pop	esi
	pop	ebx
	mov	esp, ebp
	pop	ebp
	ret	8
?DeathMsg@CHudScoreboard@@QAEXHH@Z ENDP			; CHudScoreboard::DeathMsg
_TEXT	ENDS
; Function compile flags: /Odtp /ZI
; File d:\!diffusion 2020\source code 2022\client-server\client\scoreboard.cpp
;	COMDAT ?MsgFunc_TeamScore@CHudScoreboard@@QAEHPBDHPAX@Z
_TEXT	SEGMENT
_i$ = -12						; size = 4
_TeamName$ = -8						; size = 4
_this$ = -4						; size = 4
_pszName$ = 8						; size = 4
_iSize$ = 12						; size = 4
_pbuf$ = 16						; size = 4
?MsgFunc_TeamScore@CHudScoreboard@@QAEHPBDHPAX@Z PROC	; CHudScoreboard::MsgFunc_TeamScore, COMDAT
; _this$ = ecx

; 523  : {

	push	ebp
	mov	ebp, esp
	sub	esp, 76					; 0000004cH
	push	ebx
	push	esi
	push	edi
	mov	DWORD PTR _this$[ebp], ecx

; 524  : 	BEGIN_READ( pszName, pbuf, iSize );

	mov	eax, DWORD PTR _iSize$[ebp]
	push	eax
	mov	ecx, DWORD PTR _pbuf$[ebp]
	push	ecx
	mov	edx, DWORD PTR _pszName$[ebp]
	push	edx
	call	?BEGIN_READ@@YAXPBDPAXH@Z		; BEGIN_READ
	add	esp, 12					; 0000000cH

; 525  : 
; 526  : 	char *TeamName = READ_STRING();

	call	?READ_STRING@@YAPADXZ			; READ_STRING
	mov	DWORD PTR _TeamName$[ebp], eax

; 527  : 
; 528  : 	// find the team matching the name
; 529  : 	int i;
; 530  : 	for( i = 1; i <= m_iNumTeams; i++ )

	mov	DWORD PTR _i$[ebp], 1
	jmp	SHORT $LN4@MsgFunc_Te
$LN2@MsgFunc_Te:
	mov	eax, DWORD PTR _i$[ebp]
	add	eax, 1
	mov	DWORD PTR _i$[ebp], eax
$LN4@MsgFunc_Te:
	mov	eax, DWORD PTR _this$[ebp]
	mov	ecx, DWORD PTR _i$[ebp]
	cmp	ecx, DWORD PTR [eax+8]
	jg	SHORT $LN3@MsgFunc_Te

; 531  : 	{
; 532  : 		if( !Q_stricmp( TeamName, g_TeamInfo[i].name ))

	push	99999					; 0001869fH
	imul	eax, DWORD PTR _i$[ebp], 40
	add	eax, OFFSET ?g_TeamInfo@@3PAUteam_info_t@@A ; g_TeamInfo
	push	eax
	mov	ecx, DWORD PTR _TeamName$[ebp]
	push	ecx
	call	?Q_strnicmp@@YAHPBD0H@Z			; Q_strnicmp
	add	esp, 12					; 0000000cH
	test	eax, eax
	jne	SHORT $LN5@MsgFunc_Te

; 533  : 			break;

	jmp	SHORT $LN3@MsgFunc_Te
$LN5@MsgFunc_Te:

; 534  : 	}

	jmp	SHORT $LN2@MsgFunc_Te
$LN3@MsgFunc_Te:

; 535  : 
; 536  : 	if( i > m_iNumTeams )

	mov	eax, DWORD PTR _this$[ebp]
	mov	ecx, DWORD PTR _i$[ebp]
	cmp	ecx, DWORD PTR [eax+8]
	jle	SHORT $LN6@MsgFunc_Te

; 537  : 		return 1;

	mov	eax, 1
	jmp	SHORT $LN1@MsgFunc_Te
$LN6@MsgFunc_Te:

; 538  : 
; 539  : 	// use this new score data instead of combined player scores
; 540  : 	g_TeamInfo[i].scores_overriden = TRUE;

	imul	eax, DWORD PTR _i$[ebp], 40
	mov	DWORD PTR ?g_TeamInfo@@3PAUteam_info_t@@A[eax+32], 1

; 541  : 	g_TeamInfo[i].frags = READ_SHORT();

	call	?READ_SHORT@@YAHXZ			; READ_SHORT
	imul	ecx, DWORD PTR _i$[ebp], 40
	mov	WORD PTR ?g_TeamInfo@@3PAUteam_info_t@@A[ecx+16], ax

; 542  : 	g_TeamInfo[i].deaths = READ_SHORT();

	call	?READ_SHORT@@YAHXZ			; READ_SHORT
	imul	ecx, DWORD PTR _i$[ebp], 40
	mov	WORD PTR ?g_TeamInfo@@3PAUteam_info_t@@A[ecx+18], ax

; 543  : 
; 544  : 	END_READ();

	call	?END_READ@@YAXXZ			; END_READ

; 545  : 	
; 546  : 	return 1;

	mov	eax, 1
$LN1@MsgFunc_Te:

; 547  : }

	pop	edi
	pop	esi
	pop	ebx
	mov	esp, ebp
	pop	ebp
	ret	12					; 0000000cH
?MsgFunc_TeamScore@CHudScoreboard@@QAEHPBDHPAX@Z ENDP	; CHudScoreboard::MsgFunc_TeamScore
_TEXT	ENDS
; Function compile flags: /Odtp /ZI
; File d:\!diffusion 2020\source code 2022\client-server\client\scoreboard.cpp
;	COMDAT ?MsgFunc_TeamInfo@CHudScoreboard@@QAEHPBDHPAX@Z
_TEXT	SEGMENT
tv171 = -88						; size = 4
_j$1 = -20						; size = 4
_j$ = -16						; size = 4
_i$ = -12						; size = 4
_cl$ = -8						; size = 2
_this$ = -4						; size = 4
_pszName$ = 8						; size = 4
_iSize$ = 12						; size = 4
_pbuf$ = 16						; size = 4
?MsgFunc_TeamInfo@CHudScoreboard@@QAEHPBDHPAX@Z PROC	; CHudScoreboard::MsgFunc_TeamInfo, COMDAT
; _this$ = ecx

; 444  : {

	push	ebp
	mov	ebp, esp
	sub	esp, 88					; 00000058H
	push	ebx
	push	esi
	push	edi
	mov	DWORD PTR _this$[ebp], ecx

; 445  : 	BEGIN_READ( pszName, pbuf, iSize );

	mov	eax, DWORD PTR _iSize$[ebp]
	push	eax
	mov	ecx, DWORD PTR _pbuf$[ebp]
	push	ecx
	mov	edx, DWORD PTR _pszName$[ebp]
	push	edx
	call	?BEGIN_READ@@YAXPBDPAXH@Z		; BEGIN_READ
	add	esp, 12					; 0000000cH

; 446  : 	short cl = READ_BYTE();

	call	?READ_BYTE@@YAHXZ			; READ_BYTE
	mov	WORD PTR _cl$[ebp], ax

; 447  : 	
; 448  : 	if( cl > 0 && cl <= MAX_PLAYERS )

	movsx	eax, WORD PTR _cl$[ebp]
	test	eax, eax
	jle	SHORT $LN17@MsgFunc_Te
	movsx	eax, WORD PTR _cl$[ebp]
	cmp	eax, 64					; 00000040H
	jg	SHORT $LN17@MsgFunc_Te

; 449  : 	{
; 450  : 		// set the players team
; 451  : 		Q_strncpy( g_PlayerExtraInfo[cl].teamname, READ_STRING(), MAX_TEAM_NAME );

	push	16					; 00000010H
	call	?READ_STRING@@YAPADXZ			; READ_STRING
	push	eax
	movsx	eax, WORD PTR _cl$[ebp]
	imul	ecx, eax, 26
	add	ecx, OFFSET ?g_PlayerExtraInfo@@3PAUextra_player_info_t@@A+8
	push	ecx
	call	?Q_strncpy@@YAIPADPBDI@Z		; Q_strncpy
	add	esp, 12					; 0000000cH
$LN17@MsgFunc_Te:

; 452  : 	}
; 453  : 
; 454  : 	// rebuild the list of teams
; 455  : 
; 456  : 	// clear out player counts from teams
; 457  : 	int i, j;
; 458  : 	for( i = 1; i <= m_iNumTeams; i++ )

	mov	DWORD PTR _i$[ebp], 1
	jmp	SHORT $LN4@MsgFunc_Te
$LN2@MsgFunc_Te:
	mov	eax, DWORD PTR _i$[ebp]
	add	eax, 1
	mov	DWORD PTR _i$[ebp], eax
$LN4@MsgFunc_Te:
	mov	eax, DWORD PTR _this$[ebp]
	mov	ecx, DWORD PTR _i$[ebp]
	cmp	ecx, DWORD PTR [eax+8]
	jg	SHORT $LN3@MsgFunc_Te

; 459  : 	{
; 460  : 		g_TeamInfo[i].players = 0;

	imul	eax, DWORD PTR _i$[ebp], 40
	xor	ecx, ecx
	mov	WORD PTR ?g_TeamInfo@@3PAUteam_info_t@@A[eax+26], cx

; 461  : 	}

	jmp	SHORT $LN2@MsgFunc_Te
$LN3@MsgFunc_Te:

; 462  : 
; 463  : 	// rebuild the team list
; 464  : 	GetAllPlayersInfo();

	mov	ecx, DWORD PTR _this$[ebp]
	call	?GetAllPlayersInfo@CHudScoreboard@@QAEXXZ ; CHudScoreboard::GetAllPlayersInfo

; 465  : 
; 466  : 	m_iNumTeams = 0;

	mov	eax, DWORD PTR _this$[ebp]
	mov	DWORD PTR [eax+8], 0

; 467  : 
; 468  : 	for( i = 1; i < MAX_PLAYERS; i++ )

	mov	DWORD PTR _i$[ebp], 1
	jmp	SHORT $LN7@MsgFunc_Te
$LN5@MsgFunc_Te:
	mov	eax, DWORD PTR _i$[ebp]
	add	eax, 1
	mov	DWORD PTR _i$[ebp], eax
$LN7@MsgFunc_Te:
	cmp	DWORD PTR _i$[ebp], 64			; 00000040H
	jge	$LN6@MsgFunc_Te

; 469  : 	{
; 470  : 		if( g_PlayerInfoList[i].name == NULL )

	imul	eax, DWORD PTR _i$[ebp], 20
	cmp	DWORD PTR ?g_PlayerInfoList@@3PAUhud_player_info_s@@A[eax], 0
	jne	SHORT $LN18@MsgFunc_Te

; 471  : 			continue;

	jmp	SHORT $LN5@MsgFunc_Te
$LN18@MsgFunc_Te:

; 472  : 
; 473  : 		if( g_PlayerExtraInfo[i].teamname[0] == 0 )

	imul	eax, DWORD PTR _i$[ebp], 26
	mov	ecx, 1
	imul	edx, ecx, 0
	movsx	eax, BYTE PTR ?g_PlayerExtraInfo@@3PAUextra_player_info_t@@A[eax+edx+8]
	test	eax, eax
	jne	SHORT $LN19@MsgFunc_Te

; 474  : 			continue; // skip over players who are not in a team

	jmp	SHORT $LN5@MsgFunc_Te
$LN19@MsgFunc_Te:

; 475  : 
; 476  : 		// is this player in an existing team?
; 477  : 		for( j = 1; j <= m_iNumTeams; j++ )

	mov	DWORD PTR _j$[ebp], 1
	jmp	SHORT $LN10@MsgFunc_Te
$LN8@MsgFunc_Te:
	mov	eax, DWORD PTR _j$[ebp]
	add	eax, 1
	mov	DWORD PTR _j$[ebp], eax
$LN10@MsgFunc_Te:
	mov	eax, DWORD PTR _this$[ebp]
	mov	ecx, DWORD PTR _j$[ebp]
	cmp	ecx, DWORD PTR [eax+8]
	jg	SHORT $LN9@MsgFunc_Te

; 478  : 		{
; 479  : 			if( g_TeamInfo[j].name[0] == '\0' )

	imul	eax, DWORD PTR _j$[ebp], 40
	mov	ecx, 1
	imul	edx, ecx, 0
	movsx	eax, BYTE PTR ?g_TeamInfo@@3PAUteam_info_t@@A[eax+edx]
	test	eax, eax
	jne	SHORT $LN20@MsgFunc_Te

; 480  : 				break;

	jmp	SHORT $LN9@MsgFunc_Te
$LN20@MsgFunc_Te:

; 481  : 
; 482  : 			if( !Q_stricmp( g_PlayerExtraInfo[i].teamname, g_TeamInfo[j].name ) )

	push	99999					; 0001869fH
	imul	eax, DWORD PTR _j$[ebp], 40
	add	eax, OFFSET ?g_TeamInfo@@3PAUteam_info_t@@A ; g_TeamInfo
	push	eax
	imul	ecx, DWORD PTR _i$[ebp], 26
	add	ecx, OFFSET ?g_PlayerExtraInfo@@3PAUextra_player_info_t@@A+8
	push	ecx
	call	?Q_strnicmp@@YAHPBD0H@Z			; Q_strnicmp
	add	esp, 12					; 0000000cH
	test	eax, eax
	jne	SHORT $LN21@MsgFunc_Te

; 483  : 				break;

	jmp	SHORT $LN9@MsgFunc_Te
$LN21@MsgFunc_Te:

; 484  : 		}

	jmp	SHORT $LN8@MsgFunc_Te
$LN9@MsgFunc_Te:

; 485  : 
; 486  : 		if( j > m_iNumTeams )

	mov	eax, DWORD PTR _this$[ebp]
	mov	ecx, DWORD PTR _j$[ebp]
	cmp	ecx, DWORD PTR [eax+8]
	jle	$LN22@MsgFunc_Te

; 487  : 		{
; 488  : 			// they aren't in a listed team, so make a new one
; 489  : 			// search through for an empty team slot
; 490  : 			for( int j = 1; j <= m_iNumTeams; j++ )

	mov	DWORD PTR _j$1[ebp], 1
	jmp	SHORT $LN13@MsgFunc_Te
$LN11@MsgFunc_Te:
	mov	eax, DWORD PTR _j$1[ebp]
	add	eax, 1
	mov	DWORD PTR _j$1[ebp], eax
$LN13@MsgFunc_Te:
	mov	eax, DWORD PTR _this$[ebp]
	mov	ecx, DWORD PTR _j$1[ebp]
	cmp	ecx, DWORD PTR [eax+8]
	jg	SHORT $LN12@MsgFunc_Te

; 491  : 			{
; 492  : 				if( g_TeamInfo[j].name[0] == '\0' )

	imul	eax, DWORD PTR _j$1[ebp], 40
	mov	ecx, 1
	imul	edx, ecx, 0
	movsx	eax, BYTE PTR ?g_TeamInfo@@3PAUteam_info_t@@A[eax+edx]
	test	eax, eax
	jne	SHORT $LN23@MsgFunc_Te

; 493  : 					break;

	jmp	SHORT $LN12@MsgFunc_Te
$LN23@MsgFunc_Te:

; 494  : 			}

	jmp	SHORT $LN11@MsgFunc_Te
$LN12@MsgFunc_Te:

; 495  : 
; 496  : 			m_iNumTeams = max( j, m_iNumTeams );

	mov	eax, DWORD PTR _this$[ebp]
	mov	ecx, DWORD PTR _j$[ebp]
	cmp	ecx, DWORD PTR [eax+8]
	jle	SHORT $LN26@MsgFunc_Te
	mov	edx, DWORD PTR _j$[ebp]
	mov	DWORD PTR tv171[ebp], edx
	jmp	SHORT $LN27@MsgFunc_Te
$LN26@MsgFunc_Te:
	mov	eax, DWORD PTR _this$[ebp]
	mov	ecx, DWORD PTR [eax+8]
	mov	DWORD PTR tv171[ebp], ecx
$LN27@MsgFunc_Te:
	mov	edx, DWORD PTR _this$[ebp]
	mov	eax, DWORD PTR tv171[ebp]
	mov	DWORD PTR [edx+8], eax

; 497  : 			Q_strncpy( g_TeamInfo[j].name, g_PlayerExtraInfo[i].teamname, MAX_TEAM_NAME );

	push	16					; 00000010H
	imul	eax, DWORD PTR _i$[ebp], 26
	add	eax, OFFSET ?g_PlayerExtraInfo@@3PAUextra_player_info_t@@A+8
	push	eax
	imul	ecx, DWORD PTR _j$[ebp], 40
	add	ecx, OFFSET ?g_TeamInfo@@3PAUteam_info_t@@A ; g_TeamInfo
	push	ecx
	call	?Q_strncpy@@YAIPADPBDI@Z		; Q_strncpy
	add	esp, 12					; 0000000cH

; 498  : 			g_TeamInfo[j].players = 0;

	imul	eax, DWORD PTR _j$[ebp], 40
	xor	ecx, ecx
	mov	WORD PTR ?g_TeamInfo@@3PAUteam_info_t@@A[eax+26], cx
$LN22@MsgFunc_Te:

; 499  : 		}
; 500  : 
; 501  : 		g_TeamInfo[j].players++;

	imul	eax, DWORD PTR _j$[ebp], 40
	mov	cx, WORD PTR ?g_TeamInfo@@3PAUteam_info_t@@A[eax+26]
	add	cx, 1
	imul	edx, DWORD PTR _j$[ebp], 40
	mov	WORD PTR ?g_TeamInfo@@3PAUteam_info_t@@A[edx+26], cx

; 502  : 	}

	jmp	$LN5@MsgFunc_Te
$LN6@MsgFunc_Te:

; 503  : 
; 504  : 	// clear out any empty teams
; 505  : 	for( i = 1; i <= m_iNumTeams; i++ )

	mov	DWORD PTR _i$[ebp], 1
	jmp	SHORT $LN16@MsgFunc_Te
$LN14@MsgFunc_Te:
	mov	eax, DWORD PTR _i$[ebp]
	add	eax, 1
	mov	DWORD PTR _i$[ebp], eax
$LN16@MsgFunc_Te:
	mov	eax, DWORD PTR _this$[ebp]
	mov	ecx, DWORD PTR _i$[ebp]
	cmp	ecx, DWORD PTR [eax+8]
	jg	SHORT $LN15@MsgFunc_Te

; 506  : 	{
; 507  : 		if( g_TeamInfo[i].players < 1 )

	imul	eax, DWORD PTR _i$[ebp], 40
	movsx	ecx, WORD PTR ?g_TeamInfo@@3PAUteam_info_t@@A[eax+26]
	cmp	ecx, 1
	jge	SHORT $LN24@MsgFunc_Te

; 508  : 			memset( &g_TeamInfo[i], 0, sizeof( team_info_t ));

	push	40					; 00000028H
	push	0
	imul	eax, DWORD PTR _i$[ebp], 40
	add	eax, OFFSET ?g_TeamInfo@@3PAUteam_info_t@@A ; g_TeamInfo
	push	eax
	call	_memset
	add	esp, 12					; 0000000cH
$LN24@MsgFunc_Te:

; 509  : 	}

	jmp	SHORT $LN14@MsgFunc_Te
$LN15@MsgFunc_Te:

; 510  : 
; 511  : 	END_READ();

	call	?END_READ@@YAXXZ			; END_READ

; 512  : 
; 513  : 	return 1;

	mov	eax, 1

; 514  : }

	pop	edi
	pop	esi
	pop	ebx
	mov	esp, ebp
	pop	ebp
	ret	12					; 0000000cH
?MsgFunc_TeamInfo@CHudScoreboard@@QAEHPBDHPAX@Z ENDP	; CHudScoreboard::MsgFunc_TeamInfo
_TEXT	ENDS
; Function compile flags: /Odtp /ZI
; File d:\!diffusion 2020\source code 2022\client-server\client\scoreboard.cpp
;	COMDAT ?MsgFunc_ScoreInfo@CHudScoreboard@@QAEHPBDHPAX@Z
_TEXT	SEGMENT
tv152 = -96						; size = 4
_isBot$ = -28						; size = 4
_teamnumber$ = -24					; size = 2
_playerclass$ = -20					; size = 2
_deaths$ = -16						; size = 2
_frags$ = -12						; size = 2
_cl$ = -8						; size = 2
_this$ = -4						; size = 4
_pszName$ = 8						; size = 4
_iSize$ = 12						; size = 4
_pbuf$ = 16						; size = 4
?MsgFunc_ScoreInfo@CHudScoreboard@@QAEHPBDHPAX@Z PROC	; CHudScoreboard::MsgFunc_ScoreInfo, COMDAT
; _this$ = ecx

; 408  : {

	push	ebp
	mov	ebp, esp
	sub	esp, 96					; 00000060H
	push	ebx
	push	esi
	push	edi
	mov	DWORD PTR _this$[ebp], ecx

; 409  : 	m_iFlags |= HUD_ACTIVE;

	mov	eax, DWORD PTR _this$[ebp]
	mov	ecx, DWORD PTR [eax+4]
	or	ecx, 1
	mov	edx, DWORD PTR _this$[ebp]
	mov	DWORD PTR [edx+4], ecx

; 410  : 
; 411  : 	BEGIN_READ( pszName, pbuf, iSize );

	mov	eax, DWORD PTR _iSize$[ebp]
	push	eax
	mov	ecx, DWORD PTR _pbuf$[ebp]
	push	ecx
	mov	edx, DWORD PTR _pszName$[ebp]
	push	edx
	call	?BEGIN_READ@@YAXPBDPAXH@Z		; BEGIN_READ
	add	esp, 12					; 0000000cH

; 412  : 
; 413  : 	short cl = READ_BYTE();

	call	?READ_BYTE@@YAHXZ			; READ_BYTE
	mov	WORD PTR _cl$[ebp], ax

; 414  : 	short frags = READ_SHORT();

	call	?READ_SHORT@@YAHXZ			; READ_SHORT
	mov	WORD PTR _frags$[ebp], ax

; 415  : 	short deaths = READ_SHORT();

	call	?READ_SHORT@@YAHXZ			; READ_SHORT
	mov	WORD PTR _deaths$[ebp], ax

; 416  : 	short playerclass = READ_SHORT();

	call	?READ_SHORT@@YAHXZ			; READ_SHORT
	mov	WORD PTR _playerclass$[ebp], ax

; 417  : 	short teamnumber = READ_SHORT();

	call	?READ_SHORT@@YAHXZ			; READ_SHORT
	mov	WORD PTR _teamnumber$[ebp], ax

; 418  : 	int isBot = READ_BYTE();

	call	?READ_BYTE@@YAHXZ			; READ_BYTE
	mov	DWORD PTR _isBot$[ebp], eax

; 419  : 
; 420  : 	if( cl > 0 && cl <= MAX_PLAYERS )

	movsx	eax, WORD PTR _cl$[ebp]
	test	eax, eax
	jle	$LN2@MsgFunc_Sc
	movsx	eax, WORD PTR _cl$[ebp]
	cmp	eax, 64					; 00000040H
	jg	$LN2@MsgFunc_Sc

; 421  : 	{
; 422  : 		g_PlayerExtraInfo[cl].frags = frags;

	movsx	eax, WORD PTR _cl$[ebp]
	imul	ecx, eax, 26
	mov	dx, WORD PTR _frags$[ebp]
	mov	WORD PTR ?g_PlayerExtraInfo@@3PAUextra_player_info_t@@A[ecx], dx

; 423  : 		g_PlayerExtraInfo[cl].deaths = deaths;

	movsx	eax, WORD PTR _cl$[ebp]
	imul	ecx, eax, 26
	mov	dx, WORD PTR _deaths$[ebp]
	mov	WORD PTR ?g_PlayerExtraInfo@@3PAUextra_player_info_t@@A[ecx+2], dx

; 424  : 		g_PlayerExtraInfo[cl].playerclass = playerclass;

	movsx	eax, WORD PTR _cl$[ebp]
	imul	ecx, eax, 26
	mov	dx, WORD PTR _playerclass$[ebp]
	mov	WORD PTR ?g_PlayerExtraInfo@@3PAUextra_player_info_t@@A[ecx+4], dx

; 425  : 		g_PlayerExtraInfo[cl].teamnumber = teamnumber;

	movsx	eax, WORD PTR _cl$[ebp]
	imul	ecx, eax, 26
	mov	dx, WORD PTR _teamnumber$[ebp]
	mov	WORD PTR ?g_PlayerExtraInfo@@3PAUextra_player_info_t@@A[ecx+6], dx

; 426  : 
; 427  : 		// don't go bellow 0!
; 428  : 		if( g_PlayerExtraInfo[cl].teamnumber < 0 )

	movsx	eax, WORD PTR _cl$[ebp]
	imul	ecx, eax, 26
	movsx	edx, WORD PTR ?g_PlayerExtraInfo@@3PAUextra_player_info_t@@A[ecx+6]
	test	edx, edx
	jge	SHORT $LN3@MsgFunc_Sc

; 429  : 			g_PlayerExtraInfo[cl].teamnumber = 0;

	movsx	eax, WORD PTR _cl$[ebp]
	imul	ecx, eax, 26
	xor	edx, edx
	mov	WORD PTR ?g_PlayerExtraInfo@@3PAUextra_player_info_t@@A[ecx+6], dx
$LN3@MsgFunc_Sc:

; 430  : 
; 431  : 		g_PlayerExtraInfo[cl].isBot = (isBot > 0);

	cmp	DWORD PTR _isBot$[ebp], 0
	jle	SHORT $LN5@MsgFunc_Sc
	mov	DWORD PTR tv152[ebp], 1
	jmp	SHORT $LN6@MsgFunc_Sc
$LN5@MsgFunc_Sc:
	mov	DWORD PTR tv152[ebp], 0
$LN6@MsgFunc_Sc:
	movsx	eax, WORD PTR _cl$[ebp]
	imul	ecx, eax, 26
	mov	dl, BYTE PTR tv152[ebp]
	mov	BYTE PTR ?g_PlayerExtraInfo@@3PAUextra_player_info_t@@A[ecx+24], dl
$LN2@MsgFunc_Sc:

; 432  : 	}
; 433  : 
; 434  : 	END_READ();

	call	?END_READ@@YAXXZ			; END_READ

; 435  : 
; 436  : 	return 1;

	mov	eax, 1

; 437  : }

	pop	edi
	pop	esi
	pop	ebx
	mov	esp, ebp
	pop	ebp
	ret	12					; 0000000cH
?MsgFunc_ScoreInfo@CHudScoreboard@@QAEHPBDHPAX@Z ENDP	; CHudScoreboard::MsgFunc_ScoreInfo
_TEXT	ENDS
; Function compile flags: /Odtp /ZI
; File d:\!diffusion 2020\source code 2022\client-server\client\scoreboard.cpp
;	COMDAT ?UserCmd_HideScores@CHudScoreboard@@QAEXXZ
_TEXT	SEGMENT
_this$ = -4						; size = 4
?UserCmd_HideScores@CHudScoreboard@@QAEXXZ PROC		; CHudScoreboard::UserCmd_HideScores, COMDAT
; _this$ = ecx

; 574  : {

	push	ebp
	mov	ebp, esp
	sub	esp, 68					; 00000044H
	push	ebx
	push	esi
	push	edi
	mov	DWORD PTR _this$[ebp], ecx

; 575  : 	m_iShowscoresHeld = FALSE;

	mov	eax, DWORD PTR _this$[ebp]
	mov	DWORD PTR [eax+24], 0

; 576  : 	if( IsShowingObjective )

	mov	eax, DWORD PTR _this$[ebp]
	movzx	ecx, BYTE PTR [eax+32]
	test	ecx, ecx
	je	SHORT $LN1@UserCmd_Hi

; 577  : 	{
; 578  : 		ClientCmd( "hideobjective\n" );

	push	OFFSET ??_C@_0P@PKLLKPAB@hideobjective?6?$AA@
	call	DWORD PTR ?gEngfuncs@@3Ucl_enginefuncs_s@@A+80
	add	esp, 4

; 579  : 		IsShowingObjective = false;

	mov	eax, DWORD PTR _this$[ebp]
	mov	BYTE PTR [eax+32], 0
$LN1@UserCmd_Hi:

; 580  : 	}
; 581  : }

	pop	edi
	pop	esi
	pop	ebx
	mov	esp, ebp
	pop	ebp
	ret	0
?UserCmd_HideScores@CHudScoreboard@@QAEXXZ ENDP		; CHudScoreboard::UserCmd_HideScores
_TEXT	ENDS
; Function compile flags: /Odtp /ZI
; File d:\!diffusion 2020\source code 2022\client-server\client\scoreboard.cpp
;	COMDAT ?UserCmd_ShowScores@CHudScoreboard@@QAEXXZ
_TEXT	SEGMENT
_this$ = -4						; size = 4
?UserCmd_ShowScores@CHudScoreboard@@QAEXXZ PROC		; CHudScoreboard::UserCmd_ShowScores, COMDAT
; _this$ = ecx

; 563  : {

	push	ebp
	mov	ebp, esp
	sub	esp, 68					; 00000044H
	push	ebx
	push	esi
	push	edi
	mov	DWORD PTR _this$[ebp], ecx

; 564  : 	m_iShowscoresHeld = TRUE;

	mov	eax, DWORD PTR _this$[ebp]
	mov	DWORD PTR [eax+24], 1

; 565  : 
; 566  : 	if( !IsShowingObjective )

	mov	eax, DWORD PTR _this$[ebp]
	movzx	ecx, BYTE PTR [eax+32]
	test	ecx, ecx
	jne	SHORT $LN1@UserCmd_Sh

; 567  : 	{
; 568  : 		ClientCmd( "showobjective\n" );

	push	OFFSET ??_C@_0P@PKMILLAG@showobjective?6?$AA@
	call	DWORD PTR ?gEngfuncs@@3Ucl_enginefuncs_s@@A+80
	add	esp, 4

; 569  : 		IsShowingObjective = true;

	mov	eax, DWORD PTR _this$[ebp]
	mov	BYTE PTR [eax+32], 1
$LN1@UserCmd_Sh:

; 570  : 	}
; 571  : }

	pop	edi
	pop	esi
	pop	ebx
	mov	esp, ebp
	pop	ebp
	ret	0
?UserCmd_ShowScores@CHudScoreboard@@QAEXXZ ENDP		; CHudScoreboard::UserCmd_ShowScores
_TEXT	ENDS
; Function compile flags: /Odtp /ZI
; File d:\!diffusion 2020\source code 2022\client-server\client\scoreboard.cpp
;	COMDAT ?DrawPlayers@CHudScoreboard@@QAEHHMHPAD@Z
_TEXT	SEGMENT
_b$1 = -48						; size = 4
_g$2 = -44						; size = 4
_r$3 = -40						; size = 4
_xpos$4 = -36						; size = 4
_ypos$5 = -32						; size = 4
_pl_info$6 = -28					; size = 4
_pl_info$7 = -24					; size = 4
_i$8 = -20						; size = 4
_best_player$9 = -16					; size = 4
_lowest_deaths$10 = -12					; size = 4
_highest_frags$11 = -8					; size = 4
_this$ = -4						; size = 4
_xpos_rel$ = 8						; size = 4
_list_slot$ = 12					; size = 4
_nameoffset$ = 16					; size = 4
_team$ = 20						; size = 4
?DrawPlayers@CHudScoreboard@@QAEHHMHPAD@Z PROC		; CHudScoreboard::DrawPlayers, COMDAT
; _this$ = ecx

; 289  : {

	push	ebp
	mov	ebp, esp
	sub	esp, 112				; 00000070H
	push	ebx
	push	esi
	push	edi
	mov	DWORD PTR _this$[ebp], ecx
$LN2@DrawPlayer:

; 290  : 	// draw the players, in order,  and restricted to team if set
; 291  : 	while( 1 )

	mov	eax, 1
	test	eax, eax
	je	$LN3@DrawPlayer

; 292  : 	{
; 293  : 		// Find the top ranking player
; 294  : 		int highest_frags = -99999;	int lowest_deaths = 99999;

	mov	DWORD PTR _highest_frags$11[ebp], -99999 ; fffe7961H
	mov	DWORD PTR _lowest_deaths$10[ebp], 99999	; 0001869fH

; 295  : 		int best_player = 0;

	mov	DWORD PTR _best_player$9[ebp], 0

; 296  : 
; 297  : 		for( int i = 1; i < MAX_PLAYERS; i++ )

	mov	DWORD PTR _i$8[ebp], 1
	jmp	SHORT $LN6@DrawPlayer
$LN4@DrawPlayer:
	mov	eax, DWORD PTR _i$8[ebp]
	add	eax, 1
	mov	DWORD PTR _i$8[ebp], eax
$LN6@DrawPlayer:
	cmp	DWORD PTR _i$8[ebp], 64			; 00000040H
	jge	$LN5@DrawPlayer

; 298  : 		{
; 299  : 			if( g_PlayerInfoList[i].name && g_PlayerExtraInfo[i].frags >= highest_frags )

	imul	eax, DWORD PTR _i$8[ebp], 20
	cmp	DWORD PTR ?g_PlayerInfoList@@3PAUhud_player_info_s@@A[eax], 0
	je	SHORT $LN10@DrawPlayer
	imul	eax, DWORD PTR _i$8[ebp], 26
	movsx	ecx, WORD PTR ?g_PlayerExtraInfo@@3PAUextra_player_info_t@@A[eax]
	cmp	ecx, DWORD PTR _highest_frags$11[ebp]
	jl	SHORT $LN10@DrawPlayer

; 300  : 			{
; 301  : 				if(!( team && Q_stricmp( g_PlayerExtraInfo[i].teamname, team )))  // make sure it is the specified team

	cmp	DWORD PTR _team$[ebp], 0
	je	SHORT $LN9@DrawPlayer
	push	99999					; 0001869fH
	mov	eax, DWORD PTR _team$[ebp]
	push	eax
	imul	ecx, DWORD PTR _i$8[ebp], 26
	add	ecx, OFFSET ?g_PlayerExtraInfo@@3PAUextra_player_info_t@@A+8
	push	ecx
	call	?Q_strnicmp@@YAHPBD0H@Z			; Q_strnicmp
	add	esp, 12					; 0000000cH
	test	eax, eax
	jne	SHORT $LN10@DrawPlayer
$LN9@DrawPlayer:

; 302  : 				{
; 303  : 					extra_player_info_t *pl_info = &g_PlayerExtraInfo[i];

	imul	eax, DWORD PTR _i$8[ebp], 26
	add	eax, OFFSET ?g_PlayerExtraInfo@@3PAUextra_player_info_t@@A
	mov	DWORD PTR _pl_info$7[ebp], eax

; 304  : 
; 305  : 					if( pl_info->frags > highest_frags || pl_info->deaths < lowest_deaths )

	mov	eax, DWORD PTR _pl_info$7[ebp]
	movsx	ecx, WORD PTR [eax]
	cmp	ecx, DWORD PTR _highest_frags$11[ebp]
	jg	SHORT $LN11@DrawPlayer
	mov	eax, DWORD PTR _pl_info$7[ebp]
	movsx	ecx, WORD PTR [eax+2]
	cmp	ecx, DWORD PTR _lowest_deaths$10[ebp]
	jge	SHORT $LN10@DrawPlayer
$LN11@DrawPlayer:

; 306  : 					{
; 307  : 						best_player = i;

	mov	eax, DWORD PTR _i$8[ebp]
	mov	DWORD PTR _best_player$9[ebp], eax

; 308  : 						lowest_deaths = pl_info->deaths;

	mov	eax, DWORD PTR _pl_info$7[ebp]
	movsx	ecx, WORD PTR [eax+2]
	mov	DWORD PTR _lowest_deaths$10[ebp], ecx

; 309  : 						highest_frags = pl_info->frags;

	mov	eax, DWORD PTR _pl_info$7[ebp]
	movsx	ecx, WORD PTR [eax]
	mov	DWORD PTR _highest_frags$11[ebp], ecx
$LN10@DrawPlayer:

; 310  : 					}
; 311  : 				}
; 312  : 			}
; 313  : 		}

	jmp	$LN4@DrawPlayer
$LN5@DrawPlayer:

; 314  : 
; 315  : 		if( !best_player )

	cmp	DWORD PTR _best_player$9[ebp], 0
	jne	SHORT $LN12@DrawPlayer

; 316  : 			break;

	jmp	$LN3@DrawPlayer
$LN12@DrawPlayer:

; 317  : 
; 318  : 		// draw out the best player
; 319  : 		hud_player_info_t *pl_info = &g_PlayerInfoList[best_player];

	imul	eax, DWORD PTR _best_player$9[ebp], 20
	add	eax, OFFSET ?g_PlayerInfoList@@3PAUhud_player_info_s@@A ; g_PlayerInfoList
	mov	DWORD PTR _pl_info$6[ebp], eax

; 320  : 
; 321  : 		int ypos = ROW_RANGE_MIN + (list_slot * ROW_GAP) + ((ScreenHeight / 10) + 10);

	movss	xmm0, DWORD PTR _list_slot$[ebp]
	mulss	xmm0, DWORD PTR __real@41f00000
	addss	xmm0, DWORD PTR __real@41c80000
	mov	eax, DWORD PTR ?gHUD@@3VCHud@@A+8440
	cdq
	mov	ecx, 10					; 0000000aH
	idiv	ecx
	add	eax, 10					; 0000000aH
	cvtsi2ss xmm1, eax
	addss	xmm0, xmm1
	cvttss2si edx, xmm0
	mov	DWORD PTR _ypos$5[ebp], edx

; 322  : 
; 323  : 		// check we haven't drawn too far down
; 324  : 		if( ypos > ROW_RANGE_MAX )  // don't draw too close to the lower border

	mov	eax, DWORD PTR ?gHUD@@3VCHud@@A+8440
	sub	eax, 50					; 00000032H
	cmp	DWORD PTR _ypos$5[ebp], eax
	jle	SHORT $LN13@DrawPlayer

; 325  : 			break;

	jmp	$LN3@DrawPlayer
$LN13@DrawPlayer:

; 326  : 
; 327  : 		int xpos = NAME_RANGE_MIN + xpos_rel;

	mov	eax, DWORD PTR _xpos_rel$[ebp]
	add	eax, 20					; 00000014H
	mov	DWORD PTR _xpos$4[ebp], eax

; 328  : 		int r = 255, g = 255, b = 255;

	mov	DWORD PTR _r$3[ebp], 255		; 000000ffH
	mov	DWORD PTR _g$2[ebp], 255		; 000000ffH
	mov	DWORD PTR _b$1[ebp], 255		; 000000ffH

; 329  : 
; 330  : 		if( best_player == m_iLastKilledBy && m_fLastKillTime && m_fLastKillTime > gHUD.m_flTime )

	mov	eax, DWORD PTR _this$[ebp]
	mov	ecx, DWORD PTR _best_player$9[ebp]
	cmp	ecx, DWORD PTR [eax+12]
	jne	$LN14@DrawPlayer
	mov	eax, DWORD PTR _this$[ebp]
	cmp	DWORD PTR [eax+16], 0
	je	$LN14@DrawPlayer
	mov	eax, DWORD PTR _this$[ebp]
	cvtsi2ss xmm0, DWORD PTR [eax+16]
	comiss	xmm0, DWORD PTR ?gHUD@@3VCHud@@A+32
	jbe	SHORT $LN14@DrawPlayer

; 331  : 		{
; 332  : 			if( pl_info->thisplayer )

	mov	eax, DWORD PTR _pl_info$6[ebp]
	movzx	ecx, BYTE PTR [eax+6]
	test	ecx, ecx
	je	SHORT $LN16@DrawPlayer

; 333  : 			{
; 334  : 				// green is the suicide color? i wish this could do grey...
; 335  : 				FillRGBA( NAME_RANGE_MIN + xpos_rel - 5, ypos, PING_RANGE_MAX - 5, ROW_GAP, 80, 155, 0, 70 );

	push	70					; 00000046H
	push	0
	push	155					; 0000009bH
	push	80					; 00000050H
	push	30					; 0000001eH
	push	655					; 0000028fH
	mov	eax, DWORD PTR _ypos$5[ebp]
	push	eax
	mov	ecx, DWORD PTR _xpos_rel$[ebp]
	add	ecx, 15					; 0000000fH
	push	ecx
	call	DWORD PTR ?gEngfuncs@@3Ucl_enginefuncs_s@@A+44
	add	esp, 32					; 00000020H

; 336  : 			}
; 337  : 			else

	jmp	SHORT $LN17@DrawPlayer
$LN16@DrawPlayer:

; 338  : 			{
; 339  : 				// Highlight the killers name - overlay the background in red,  then draw the score text over it
; 340  : 				FillRGBA( NAME_RANGE_MIN + xpos_rel - 5, ypos, PING_RANGE_MAX - 5, ROW_GAP, 255, 0, 0, (15.0f * (float)(m_fLastKillTime - gHUD.m_flTime )));

	mov	eax, DWORD PTR _this$[ebp]
	cvtsi2ss xmm0, DWORD PTR [eax+16]
	subss	xmm0, DWORD PTR ?gHUD@@3VCHud@@A+32
	mulss	xmm0, DWORD PTR __real@41700000
	cvttss2si ecx, xmm0
	push	ecx
	push	0
	push	0
	push	255					; 000000ffH
	push	30					; 0000001eH
	push	655					; 0000028fH
	mov	edx, DWORD PTR _ypos$5[ebp]
	push	edx
	mov	eax, DWORD PTR _xpos_rel$[ebp]
	add	eax, 15					; 0000000fH
	push	eax
	call	DWORD PTR ?gEngfuncs@@3Ucl_enginefuncs_s@@A+44
	add	esp, 32					; 00000020H
$LN17@DrawPlayer:

; 341  : 			}

	jmp	SHORT $LN18@DrawPlayer
$LN14@DrawPlayer:

; 342  : 		}
; 343  : 		else if( pl_info->thisplayer ) // if it is their name, draw it a different color

	mov	eax, DWORD PTR _pl_info$6[ebp]
	movzx	ecx, BYTE PTR [eax+6]
	test	ecx, ecx
	je	SHORT $LN18@DrawPlayer

; 344  : 		{
; 345  : 			// overlay the background in blue,  then draw the score text over it
; 346  : 			FillRGBA( NAME_RANGE_MIN + xpos_rel - 5, ypos, PING_RANGE_MAX - 5, ROW_GAP, 0, 0, 255, 70 );

	push	70					; 00000046H
	push	255					; 000000ffH
	push	0
	push	0
	push	30					; 0000001eH
	push	655					; 0000028fH
	mov	eax, DWORD PTR _ypos$5[ebp]
	push	eax
	mov	ecx, DWORD PTR _xpos_rel$[ebp]
	add	ecx, 15					; 0000000fH
	push	ecx
	call	DWORD PTR ?gEngfuncs@@3Ucl_enginefuncs_s@@A+44
	add	esp, 32					; 00000020H
$LN18@DrawPlayer:

; 347  : 		}
; 348  : 
; 349  : 		// draw their name (left to right)
; 350  : 		gHUD.DrawHudString( xpos + nameoffset, ypos, NAME_RANGE_MAX + xpos_rel, pl_info->name, r, g, b );

	mov	eax, DWORD PTR _b$1[ebp]
	push	eax
	mov	ecx, DWORD PTR _g$2[ebp]
	push	ecx
	mov	edx, DWORD PTR _r$3[ebp]
	push	edx
	mov	eax, DWORD PTR _pl_info$6[ebp]
	mov	ecx, DWORD PTR [eax]
	push	ecx
	mov	edx, DWORD PTR _xpos_rel$[ebp]
	add	edx, 400				; 00000190H
	push	edx
	mov	eax, DWORD PTR _ypos$5[ebp]
	push	eax
	mov	ecx, DWORD PTR _xpos$4[ebp]
	add	ecx, DWORD PTR _nameoffset$[ebp]
	push	ecx
	mov	ecx, OFFSET ?gHUD@@3VCHud@@A		; gHUD
	call	?DrawHudString@CHud@@QAEHHHHPADHHH@Z	; CHud::DrawHudString

; 351  : 
; 352  : 		// draw kills (right to left)
; 353  : 		xpos = KILLS_RANGE_MAX + xpos_rel - 10;

	mov	eax, DWORD PTR _xpos_rel$[ebp]
	add	eax, 490				; 000001eaH
	mov	DWORD PTR _xpos$4[ebp], eax

; 354  : 	//	gHUD.DrawHudNumberString( xpos, ypos, KILLS_RANGE_MIN + xpos_rel, g_PlayerExtraInfo[best_player].frags, r, g, b );
; 355  : 		gHUD.DrawHudNumberString( xpos, ypos, KILLS_RANGE_MIN + xpos_rel, g_PlayerExtraInfo[best_player].frags, 25, 255, 25 );

	push	25					; 00000019H
	push	255					; 000000ffH
	push	25					; 00000019H
	imul	eax, DWORD PTR _best_player$9[ebp], 26
	movsx	ecx, WORD PTR ?g_PlayerExtraInfo@@3PAUextra_player_info_t@@A[eax]
	push	ecx
	mov	edx, DWORD PTR _xpos_rel$[ebp]
	add	edx, 420				; 000001a4H
	push	edx
	mov	eax, DWORD PTR _ypos$5[ebp]
	push	eax
	mov	ecx, DWORD PTR _xpos$4[ebp]
	push	ecx
	mov	ecx, OFFSET ?gHUD@@3VCHud@@A		; gHUD
	call	?DrawHudNumberString@CHud@@QAEHHHHHHHH@Z ; CHud::DrawHudNumberString

; 356  : 
; 357  : 		// draw divider
; 358  : 	//	xpos = DIVIDER_POS + xpos_rel;
; 359  : 	//	gHUD.DrawHudString( xpos, ypos, xpos + 20, "/", r, g, b );
; 360  : 
; 361  : 		// draw deaths
; 362  : 		xpos = DEATHS_RANGE_MAX + xpos_rel + 10;

	mov	eax, DWORD PTR _xpos_rel$[ebp]
	add	eax, 590				; 0000024eH
	mov	DWORD PTR _xpos$4[ebp], eax

; 363  : 	//	gHUD.DrawHudNumberString( xpos, ypos, DEATHS_RANGE_MIN + xpos_rel, g_PlayerExtraInfo[best_player].deaths, r, g, b );
; 364  : 		gHUD.DrawHudNumberString( xpos, ypos, DEATHS_RANGE_MIN + xpos_rel, g_PlayerExtraInfo[best_player].deaths, 255, 25, 25 );

	push	25					; 00000019H
	push	25					; 00000019H
	push	255					; 000000ffH
	imul	eax, DWORD PTR _best_player$9[ebp], 26
	movsx	ecx, WORD PTR ?g_PlayerExtraInfo@@3PAUextra_player_info_t@@A[eax+2]
	push	ecx
	mov	edx, DWORD PTR _xpos_rel$[ebp]
	add	edx, 520				; 00000208H
	push	edx
	mov	eax, DWORD PTR _ypos$5[ebp]
	push	eax
	mov	ecx, DWORD PTR _xpos$4[ebp]
	push	ecx
	mov	ecx, OFFSET ?gHUD@@3VCHud@@A		; gHUD
	call	?DrawHudNumberString@CHud@@QAEHHHHHHHH@Z ; CHud::DrawHudNumberString

; 365  : 
; 366  : 		// draw ping & packetloss
; 367  : 		static char buf[64];
; 368  : 		if( g_PlayerExtraInfo[best_player].isBot )

	imul	eax, DWORD PTR _best_player$9[ebp], 26
	movzx	ecx, BYTE PTR ?g_PlayerExtraInfo@@3PAUextra_player_info_t@@A[eax+24]
	test	ecx, ecx
	je	SHORT $LN19@DrawPlayer

; 369  : 			Q_snprintf( buf, sizeof( buf ), "BOT" );

	push	OFFSET ??_C@_03EKLHOCPI@BOT?$AA@
	push	64					; 00000040H
	push	OFFSET ?buf@?3??DrawPlayers@CHudScoreboard@@QAEHHMHPAD@Z@4PADA
	call	?Q_snprintf@@YAHPADIPBDZZ		; Q_snprintf
	add	esp, 12					; 0000000cH

; 370  : 		else

	jmp	SHORT $LN20@DrawPlayer
$LN19@DrawPlayer:

; 371  : 			Q_snprintf( buf, sizeof( buf ), "%d", g_PlayerInfoList[best_player].ping );

	imul	eax, DWORD PTR _best_player$9[ebp], 20
	movsx	ecx, WORD PTR ?g_PlayerInfoList@@3PAUhud_player_info_s@@A[eax+4]
	push	ecx
	push	OFFSET ??_C@_02DPKJAMEF@?$CFd?$AA@
	push	64					; 00000040H
	push	OFFSET ?buf@?3??DrawPlayers@CHudScoreboard@@QAEHHMHPAD@Z@4PADA
	call	?Q_snprintf@@YAHPADIPBDZZ		; Q_snprintf
	add	esp, 16					; 00000010H
$LN20@DrawPlayer:

; 372  : 		xpos = ((PING_RANGE_MAX - PING_RANGE_MIN) / 2) + PING_RANGE_MIN + xpos_rel + 25;

	mov	eax, DWORD PTR _xpos_rel$[ebp]
	add	eax, 660				; 00000294H
	mov	DWORD PTR _xpos$4[ebp], eax

; 373  : 		gHUD.DrawHudStringReverse( xpos, ypos, xpos - 50, buf, r, g, b );

	mov	eax, DWORD PTR _b$1[ebp]
	push	eax
	mov	ecx, DWORD PTR _g$2[ebp]
	push	ecx
	mov	edx, DWORD PTR _r$3[ebp]
	push	edx
	push	OFFSET ?buf@?3??DrawPlayers@CHudScoreboard@@QAEHHMHPAD@Z@4PADA
	mov	eax, DWORD PTR _xpos$4[ebp]
	sub	eax, 50					; 00000032H
	push	eax
	mov	ecx, DWORD PTR _ypos$5[ebp]
	push	ecx
	mov	edx, DWORD PTR _xpos$4[ebp]
	push	edx
	mov	ecx, OFFSET ?gHUD@@3VCHud@@A		; gHUD
	call	?DrawHudStringReverse@CHud@@QAEHHHHPADHHH@Z ; CHud::DrawHudStringReverse

; 374  : #if 0		
; 375  : 		// Packetloss removed on Kelly 'shipping nazi' Bailey's orders
; 376  : 		if( g_PlayerInfoList[best_player].packetloss >= 63 )
; 377  : 		{
; 378  : 			UnpackRGB( r, g, b, RGB_REDISH );
; 379  : 			Q_snprintf( buf, sizeof( buf ), " !!!!" );
; 380  : 		}
; 381  : 		else
; 382  : 		{
; 383  : 			Q_snprintf( buf, sizeof( buf ), " %d", g_PlayerInfoList[best_player].packetloss );
; 384  : 		}
; 385  : 		gHUD.DrawHudString( xpos, ypos, xpos+50, buf, r, g, b );
; 386  : #endif
; 387  : 		pl_info->name = NULL;  // set the name to be NULL, so this client won't get drawn again

	mov	eax, DWORD PTR _pl_info$6[ebp]
	mov	DWORD PTR [eax], 0

; 388  : 		list_slot++;

	movss	xmm0, DWORD PTR _list_slot$[ebp]
	addss	xmm0, DWORD PTR __real@3f800000
	movss	DWORD PTR _list_slot$[ebp], xmm0

; 389  : 	}

	jmp	$LN2@DrawPlayer
$LN3@DrawPlayer:

; 390  : 
; 391  : 	ypos_bottom = list_slot * ROW_GAP + 20;

	movss	xmm0, DWORD PTR _list_slot$[ebp]
	mulss	xmm0, DWORD PTR __real@41f00000
	addss	xmm0, DWORD PTR __real@41a00000
	cvttss2si eax, xmm0
	mov	ecx, DWORD PTR _this$[ebp]
	mov	DWORD PTR [ecx+28], eax

; 392  : 
; 393  : 	return list_slot;

	cvttss2si eax, DWORD PTR _list_slot$[ebp]

; 394  : }

	pop	edi
	pop	esi
	pop	ebx
	mov	esp, ebp
	pop	ebp
	ret	16					; 00000010H
?DrawPlayers@CHudScoreboard@@QAEHHMHPAD@Z ENDP		; CHudScoreboard::DrawPlayers
_TEXT	ENDS
; Function compile flags: /Odtp /ZI
; File d:\!diffusion 2020\source code 2022\client-server\client\scoreboard.cpp
;	COMDAT ?Draw@CHudScoreboard@@UAEHM@Z
_TEXT	SEGMENT
_b$1 = -56						; size = 4
_g$2 = -52						; size = 4
_r$3 = -48						; size = 4
_team_info$4 = -44					; size = 4
_best_team$5 = -40					; size = 4
_lowest_deaths$6 = -36					; size = 4
_highest_frags$7 = -32					; size = 4
_j$8 = -28						; size = 4
_i$ = -24						; size = 4
_xpos$ = -20						; size = 4
_ypos$ = -16						; size = 4
_xpos_rel$ = -12					; size = 4
_list_slot$ = -8					; size = 4
_this$ = -4						; size = 4
_fTime$ = 8						; size = 4
?Draw@CHudScoreboard@@UAEHM@Z PROC			; CHudScoreboard::Draw, COMDAT
; _this$ = ecx

; 99   : {

	push	ebp
	mov	ebp, esp
	sub	esp, 120				; 00000078H
	push	ebx
	push	esi
	push	edi
	mov	DWORD PTR _this$[ebp], ecx

; 100  : 	if( !m_iShowscoresHeld && gHUD.m_Health.m_iHealth > 0 && !gHUD.m_iIntermission )

	mov	eax, DWORD PTR _this$[ebp]
	cmp	DWORD PTR [eax+24], 0
	jne	SHORT $LN19@Draw
	cmp	DWORD PTR ?gHUD@@3VCHud@@A+304, 0
	jle	SHORT $LN19@Draw
	cmp	DWORD PTR ?gHUD@@3VCHud@@A+8976, 0
	jne	SHORT $LN19@Draw

; 101  : 		return 1;

	mov	eax, 1
	jmp	$LN1@Draw
$LN19@Draw:

; 102  : 
; 103  : 	GetAllPlayersInfo();

	mov	ecx, DWORD PTR _this$[ebp]
	call	?GetAllPlayersInfo@CHudScoreboard@@QAEXXZ ; CHudScoreboard::GetAllPlayersInfo

; 104  : 
; 105  : 	// just sort the list on the fly
; 106  : 	// list is sorted first by frags, then by deaths
; 107  : 	float list_slot = 0;

	xorps	xmm0, xmm0
	movss	DWORD PTR _list_slot$[ebp], xmm0

; 108  : 	int xpos_rel = (ScreenWidth - SCOREBOARD_WIDTH) / 2;

	mov	eax, DWORD PTR ?gHUD@@3VCHud@@A+8436
	sub	eax, 666				; 0000029aH
	cdq
	sub	eax, edx
	sar	eax, 1
	mov	DWORD PTR _xpos_rel$[ebp], eax

; 109  : 
; 110  : 	// print the heading line
; 111  : 	int ypos = ROW_RANGE_MIN + (list_slot * ROW_GAP) + ((ScreenHeight / 10) + 10);

	movss	xmm0, DWORD PTR _list_slot$[ebp]
	mulss	xmm0, DWORD PTR __real@41f00000
	addss	xmm0, DWORD PTR __real@41c80000
	mov	eax, DWORD PTR ?gHUD@@3VCHud@@A+8440
	cdq
	mov	ecx, 10					; 0000000aH
	idiv	ecx
	add	eax, 10					; 0000000aH
	cvtsi2ss xmm1, eax
	addss	xmm0, xmm1
	cvttss2si edx, xmm0
	mov	DWORD PTR _ypos$[ebp], edx

; 112  : 	int xpos = NAME_RANGE_MIN + xpos_rel;

	mov	eax, DWORD PTR _xpos_rel$[ebp]
	add	eax, 20					; 00000014H
	mov	DWORD PTR _xpos$[ebp], eax

; 113  : 
; 114  : 	// diffusion - background
; 115  : 	gEngfuncs.pfnFillRGBABlend( xpos_rel - 10, ypos - 10, SCOREBOARD_WIDTH + 25, ypos_bottom, 0, 0, 0, 150 ); // bottom border

	push	150					; 00000096H
	push	0
	push	0
	push	0
	mov	eax, DWORD PTR _this$[ebp]
	mov	ecx, DWORD PTR [eax+28]
	push	ecx
	push	691					; 000002b3H
	mov	edx, DWORD PTR _ypos$[ebp]
	sub	edx, 10					; 0000000aH
	push	edx
	mov	eax, DWORD PTR _xpos_rel$[ebp]
	sub	eax, 10					; 0000000aH
	push	eax
	call	DWORD PTR ?gEngfuncs@@3Ucl_enginefuncs_s@@A+520
	add	esp, 32					; 00000020H

; 116  : 
; 117  : 	if( !gHUD.m_Teamplay ) 

	cmp	DWORD PTR ?gHUD@@3VCHud@@A+84, 0
	jne	SHORT $LN20@Draw

; 118  : 		gHUD.DrawHudString( xpos, ypos, NAME_RANGE_MAX + xpos_rel, "Player", 255, 140, 0 );

	push	0
	push	140					; 0000008cH
	push	255					; 000000ffH
	push	OFFSET ??_C@_06NPAAKFED@Player?$AA@
	mov	eax, DWORD PTR _xpos_rel$[ebp]
	add	eax, 400				; 00000190H
	push	eax
	mov	ecx, DWORD PTR _ypos$[ebp]
	push	ecx
	mov	edx, DWORD PTR _xpos$[ebp]
	push	edx
	mov	ecx, OFFSET ?gHUD@@3VCHud@@A		; gHUD
	call	?DrawHudString@CHud@@QAEHHHHPADHHH@Z	; CHud::DrawHudString

; 119  : 	else

	jmp	SHORT $LN21@Draw
$LN20@Draw:

; 120  : 		gHUD.DrawHudString( xpos, ypos, NAME_RANGE_MAX + xpos_rel, "Teams", 255, 140, 0 );

	push	0
	push	140					; 0000008cH
	push	255					; 000000ffH
	push	OFFSET ??_C@_05EPHHAOKA@Teams?$AA@
	mov	eax, DWORD PTR _xpos_rel$[ebp]
	add	eax, 400				; 00000190H
	push	eax
	mov	ecx, DWORD PTR _ypos$[ebp]
	push	ecx
	mov	edx, DWORD PTR _xpos$[ebp]
	push	edx
	mov	ecx, OFFSET ?gHUD@@3VCHud@@A		; gHUD
	call	?DrawHudString@CHud@@QAEHHHHPADHHH@Z	; CHud::DrawHudString
$LN21@Draw:

; 121  : 
; 122  : //	gHUD.DrawHudStringReverse( KILLS_RANGE_MAX + xpos_rel, ypos, 0, "Kills", 255, 140, 0 );
; 123  : //	gHUD.DrawHudString( DIVIDER_POS + xpos_rel, ypos, ScreenWidth, "/", 255, 140, 0 );
; 124  : 	gHUD.DrawHudString( KILLS_RANGE_MIN + xpos_rel + 30, ypos, ScreenWidth, "Kills", 255, 140, 0 );

	push	0
	push	140					; 0000008cH
	push	255					; 000000ffH
	push	OFFSET ??_C@_05ILKPOBAF@Kills?$AA@
	mov	eax, DWORD PTR ?gHUD@@3VCHud@@A+8436
	push	eax
	mov	ecx, DWORD PTR _ypos$[ebp]
	push	ecx
	mov	edx, DWORD PTR _xpos_rel$[ebp]
	add	edx, 450				; 000001c2H
	push	edx
	mov	ecx, OFFSET ?gHUD@@3VCHud@@A		; gHUD
	call	?DrawHudString@CHud@@QAEHHHHPADHHH@Z	; CHud::DrawHudString

; 125  : 	gHUD.DrawHudString( DEATHS_RANGE_MIN + xpos_rel + 5, ypos, ScreenWidth, "Deaths", 255, 140, 0 );

	push	0
	push	140					; 0000008cH
	push	255					; 000000ffH
	push	OFFSET ??_C@_06IIDHDGJJ@Deaths?$AA@
	mov	eax, DWORD PTR ?gHUD@@3VCHud@@A+8436
	push	eax
	mov	ecx, DWORD PTR _ypos$[ebp]
	push	ecx
	mov	edx, DWORD PTR _xpos_rel$[ebp]
	add	edx, 525				; 0000020dH
	push	edx
	mov	ecx, OFFSET ?gHUD@@3VCHud@@A		; gHUD
	call	?DrawHudString@CHud@@QAEHHHHPADHHH@Z	; CHud::DrawHudString

; 126  : 	gHUD.DrawHudString( PING_RANGE_MAX + xpos_rel - 35, ypos, ScreenWidth, "Ping", 255, 140, 0 );

	push	0
	push	140					; 0000008cH
	push	255					; 000000ffH
	push	OFFSET ??_C@_04CPBFGEOK@Ping?$AA@
	mov	eax, DWORD PTR ?gHUD@@3VCHud@@A+8436
	push	eax
	mov	ecx, DWORD PTR _ypos$[ebp]
	push	ecx
	mov	edx, DWORD PTR _xpos_rel$[ebp]
	add	edx, 625				; 00000271H
	push	edx
	mov	ecx, OFFSET ?gHUD@@3VCHud@@A		; gHUD
	call	?DrawHudString@CHud@@QAEHHHHPADHHH@Z	; CHud::DrawHudString

; 127  : 
; 128  : 	list_slot += 1.2f;

	movss	xmm0, DWORD PTR _list_slot$[ebp]
	addss	xmm0, DWORD PTR __real@3f99999a
	movss	DWORD PTR _list_slot$[ebp], xmm0

; 129  : 	ypos = ROW_RANGE_MIN + (list_slot * ROW_GAP) + ((ScreenHeight / 10) + 10);

	movss	xmm0, DWORD PTR _list_slot$[ebp]
	mulss	xmm0, DWORD PTR __real@41f00000
	addss	xmm0, DWORD PTR __real@41c80000
	mov	eax, DWORD PTR ?gHUD@@3VCHud@@A+8440
	cdq
	mov	ecx, 10					; 0000000aH
	idiv	ecx
	add	eax, 10					; 0000000aH
	cvtsi2ss xmm1, eax
	addss	xmm0, xmm1
	cvttss2si edx, xmm0
	mov	DWORD PTR _ypos$[ebp], edx

; 130  : 	xpos = NAME_RANGE_MIN + xpos_rel;

	mov	eax, DWORD PTR _xpos_rel$[ebp]
	add	eax, 20					; 00000014H
	mov	DWORD PTR _xpos$[ebp], eax

; 131  : 
; 132  : 	FillRGBA( xpos - 5, ypos, PING_RANGE_MAX - 5, 1, 255, 140, 0, 255 );  // draw the separator line

	push	255					; 000000ffH
	push	0
	push	140					; 0000008cH
	push	255					; 000000ffH
	push	1
	push	655					; 0000028fH
	mov	eax, DWORD PTR _ypos$[ebp]
	push	eax
	mov	ecx, DWORD PTR _xpos$[ebp]
	sub	ecx, 5
	push	ecx
	call	DWORD PTR ?gEngfuncs@@3Ucl_enginefuncs_s@@A+44
	add	esp, 32					; 00000020H

; 133  : 	
; 134  : 	list_slot += 0.8f;

	movss	xmm0, DWORD PTR _list_slot$[ebp]
	addss	xmm0, DWORD PTR __real@3f4ccccd
	movss	DWORD PTR _list_slot$[ebp], xmm0

; 135  : 
; 136  : 	if( !gHUD.m_Teamplay )

	cmp	DWORD PTR ?gHUD@@3VCHud@@A+84, 0
	jne	SHORT $LN22@Draw

; 137  : 	{
; 138  : 		// it's not teamplay,  so just draw a simple player list
; 139  : 		DrawPlayers( xpos_rel, list_slot );

	push	0
	push	0
	push	ecx
	movss	xmm0, DWORD PTR _list_slot$[ebp]
	movss	DWORD PTR [esp], xmm0
	mov	eax, DWORD PTR _xpos_rel$[ebp]
	push	eax
	mov	ecx, DWORD PTR _this$[ebp]
	call	?DrawPlayers@CHudScoreboard@@QAEHHMHPAD@Z ; CHudScoreboard::DrawPlayers

; 140  : 		return 1;

	mov	eax, 1
	jmp	$LN1@Draw
$LN22@Draw:

; 141  : 	}
; 142  : 
; 143  : 	// clear out team scores
; 144  : 	int i;
; 145  : 	for( i = 1; i <= m_iNumTeams; i++ )

	mov	DWORD PTR _i$[ebp], 1
	jmp	SHORT $LN4@Draw
$LN2@Draw:
	mov	eax, DWORD PTR _i$[ebp]
	add	eax, 1
	mov	DWORD PTR _i$[ebp], eax
$LN4@Draw:
	mov	eax, DWORD PTR _this$[ebp]
	mov	ecx, DWORD PTR _i$[ebp]
	cmp	ecx, DWORD PTR [eax+8]
	jg	SHORT $LN3@Draw

; 146  : 	{
; 147  : 		if( !g_TeamInfo[i].scores_overriden )

	imul	eax, DWORD PTR _i$[ebp], 40
	cmp	DWORD PTR ?g_TeamInfo@@3PAUteam_info_t@@A[eax+32], 0
	jne	SHORT $LN23@Draw

; 148  : 			g_TeamInfo[i].frags = g_TeamInfo[i].deaths = 0;

	imul	eax, DWORD PTR _i$[ebp], 40
	xor	ecx, ecx
	mov	WORD PTR ?g_TeamInfo@@3PAUteam_info_t@@A[eax+18], cx
	imul	edx, DWORD PTR _i$[ebp], 40
	xor	eax, eax
	mov	WORD PTR ?g_TeamInfo@@3PAUteam_info_t@@A[edx+16], ax
$LN23@Draw:

; 149  : 		g_TeamInfo[i].ping = g_TeamInfo[i].packetloss = 0;

	imul	eax, DWORD PTR _i$[ebp], 40
	xor	ecx, ecx
	mov	WORD PTR ?g_TeamInfo@@3PAUteam_info_t@@A[eax+22], cx
	imul	edx, DWORD PTR _i$[ebp], 40
	xor	eax, eax
	mov	WORD PTR ?g_TeamInfo@@3PAUteam_info_t@@A[edx+20], ax

; 150  : 	}

	jmp	SHORT $LN2@Draw
$LN3@Draw:

; 151  : 
; 152  : 	// recalc the team scores, then draw them
; 153  : 	for( i = 1; i < MAX_PLAYERS; i++ )

	mov	DWORD PTR _i$[ebp], 1
	jmp	SHORT $LN7@Draw
$LN5@Draw:
	mov	eax, DWORD PTR _i$[ebp]
	add	eax, 1
	mov	DWORD PTR _i$[ebp], eax
$LN7@Draw:
	cmp	DWORD PTR _i$[ebp], 64			; 00000040H
	jge	$LN6@Draw

; 154  : 	{
; 155  : 		if( g_PlayerInfoList[i].name == NULL )

	imul	eax, DWORD PTR _i$[ebp], 20
	cmp	DWORD PTR ?g_PlayerInfoList@@3PAUhud_player_info_s@@A[eax], 0
	jne	SHORT $LN24@Draw

; 156  : 			continue; // empty player slot, skip

	jmp	SHORT $LN5@Draw
$LN24@Draw:

; 157  : 
; 158  : 		if( g_PlayerExtraInfo[i].teamname[0] == 0 )

	imul	eax, DWORD PTR _i$[ebp], 26
	mov	ecx, 1
	imul	edx, ecx, 0
	movsx	eax, BYTE PTR ?g_PlayerExtraInfo@@3PAUextra_player_info_t@@A[eax+edx+8]
	test	eax, eax
	jne	SHORT $LN25@Draw

; 159  : 			continue; // skip over players who are not in a team

	jmp	SHORT $LN5@Draw
$LN25@Draw:

; 160  : 
; 161  : 		// find what team this player is in
; 162  : 		int j;
; 163  : 		for( j = 1; j <= m_iNumTeams; j++ )

	mov	DWORD PTR _j$8[ebp], 1
	jmp	SHORT $LN10@Draw
$LN8@Draw:
	mov	eax, DWORD PTR _j$8[ebp]
	add	eax, 1
	mov	DWORD PTR _j$8[ebp], eax
$LN10@Draw:
	mov	eax, DWORD PTR _this$[ebp]
	mov	ecx, DWORD PTR _j$8[ebp]
	cmp	ecx, DWORD PTR [eax+8]
	jg	SHORT $LN9@Draw

; 164  : 		{
; 165  : 			if( !Q_stricmp( g_PlayerExtraInfo[i].teamname, g_TeamInfo[j].name ))

	push	99999					; 0001869fH
	imul	eax, DWORD PTR _j$8[ebp], 40
	add	eax, OFFSET ?g_TeamInfo@@3PAUteam_info_t@@A ; g_TeamInfo
	push	eax
	imul	ecx, DWORD PTR _i$[ebp], 26
	add	ecx, OFFSET ?g_PlayerExtraInfo@@3PAUextra_player_info_t@@A+8
	push	ecx
	call	?Q_strnicmp@@YAHPBD0H@Z			; Q_strnicmp
	add	esp, 12					; 0000000cH
	test	eax, eax
	jne	SHORT $LN26@Draw

; 166  : 				break;

	jmp	SHORT $LN9@Draw
$LN26@Draw:

; 167  : 		}

	jmp	SHORT $LN8@Draw
$LN9@Draw:

; 168  : 
; 169  : 		if( j > m_iNumTeams )  // player is not in a team, skip to the next guy

	mov	eax, DWORD PTR _this$[ebp]
	mov	ecx, DWORD PTR _j$8[ebp]
	cmp	ecx, DWORD PTR [eax+8]
	jle	SHORT $LN27@Draw

; 170  : 			continue;

	jmp	$LN5@Draw
$LN27@Draw:

; 171  : 
; 172  : 		if( !g_TeamInfo[j].scores_overriden )

	imul	eax, DWORD PTR _j$8[ebp], 40
	cmp	DWORD PTR ?g_TeamInfo@@3PAUteam_info_t@@A[eax+32], 0
	jne	SHORT $LN28@Draw

; 173  : 		{
; 174  : 			g_TeamInfo[j].frags += g_PlayerExtraInfo[i].frags;

	imul	eax, DWORD PTR _j$8[ebp], 40
	imul	ecx, DWORD PTR _i$[ebp], 26
	movsx	edx, WORD PTR ?g_PlayerExtraInfo@@3PAUextra_player_info_t@@A[ecx]
	movsx	eax, WORD PTR ?g_TeamInfo@@3PAUteam_info_t@@A[eax+16]
	add	eax, edx
	imul	ecx, DWORD PTR _j$8[ebp], 40
	mov	WORD PTR ?g_TeamInfo@@3PAUteam_info_t@@A[ecx+16], ax

; 175  : 			g_TeamInfo[j].deaths += g_PlayerExtraInfo[i].deaths;

	imul	eax, DWORD PTR _j$8[ebp], 40
	imul	ecx, DWORD PTR _i$[ebp], 26
	movsx	edx, WORD PTR ?g_PlayerExtraInfo@@3PAUextra_player_info_t@@A[ecx+2]
	movsx	eax, WORD PTR ?g_TeamInfo@@3PAUteam_info_t@@A[eax+18]
	add	eax, edx
	imul	ecx, DWORD PTR _j$8[ebp], 40
	mov	WORD PTR ?g_TeamInfo@@3PAUteam_info_t@@A[ecx+18], ax
$LN28@Draw:

; 176  : 		}
; 177  : 
; 178  : 		g_TeamInfo[j].ping += g_PlayerInfoList[i].ping;

	imul	eax, DWORD PTR _j$8[ebp], 40
	imul	ecx, DWORD PTR _i$[ebp], 20
	movsx	edx, WORD PTR ?g_PlayerInfoList@@3PAUhud_player_info_s@@A[ecx+4]
	movsx	eax, WORD PTR ?g_TeamInfo@@3PAUteam_info_t@@A[eax+20]
	add	eax, edx
	imul	ecx, DWORD PTR _j$8[ebp], 40
	mov	WORD PTR ?g_TeamInfo@@3PAUteam_info_t@@A[ecx+20], ax

; 179  : 		g_TeamInfo[j].packetloss += g_PlayerInfoList[i].packetloss;

	imul	eax, DWORD PTR _j$8[ebp], 40
	imul	ecx, DWORD PTR _i$[ebp], 20
	movzx	edx, BYTE PTR ?g_PlayerInfoList@@3PAUhud_player_info_s@@A[ecx+8]
	movsx	eax, WORD PTR ?g_TeamInfo@@3PAUteam_info_t@@A[eax+22]
	add	eax, edx
	imul	ecx, DWORD PTR _j$8[ebp], 40
	mov	WORD PTR ?g_TeamInfo@@3PAUteam_info_t@@A[ecx+22], ax

; 180  : 
; 181  : 		if( g_PlayerInfoList[i].thisplayer )

	imul	eax, DWORD PTR _i$[ebp], 20
	movzx	ecx, BYTE PTR ?g_PlayerInfoList@@3PAUhud_player_info_s@@A[eax+6]
	test	ecx, ecx
	je	SHORT $LN29@Draw

; 182  : 			g_TeamInfo[j].ownteam = TRUE;

	imul	eax, DWORD PTR _j$8[ebp], 40
	mov	ecx, 1
	mov	WORD PTR ?g_TeamInfo@@3PAUteam_info_t@@A[eax+24], cx

; 183  : 		else

	jmp	SHORT $LN30@Draw
$LN29@Draw:

; 184  : 			g_TeamInfo[j].ownteam = FALSE;

	imul	eax, DWORD PTR _j$8[ebp], 40
	xor	ecx, ecx
	mov	WORD PTR ?g_TeamInfo@@3PAUteam_info_t@@A[eax+24], cx
$LN30@Draw:

; 185  : 	}

	jmp	$LN5@Draw
$LN6@Draw:

; 186  : 
; 187  : 	// find team ping/packetloss averages
; 188  : 	for( i = 1; i <= m_iNumTeams; i++ )

	mov	DWORD PTR _i$[ebp], 1
	jmp	SHORT $LN13@Draw
$LN11@Draw:
	mov	eax, DWORD PTR _i$[ebp]
	add	eax, 1
	mov	DWORD PTR _i$[ebp], eax
$LN13@Draw:
	mov	eax, DWORD PTR _this$[ebp]
	mov	ecx, DWORD PTR _i$[ebp]
	cmp	ecx, DWORD PTR [eax+8]
	jg	SHORT $LN12@Draw

; 189  : 	{
; 190  : 		g_TeamInfo[i].already_drawn = FALSE;

	imul	eax, DWORD PTR _i$[ebp], 40
	mov	DWORD PTR ?g_TeamInfo@@3PAUteam_info_t@@A[eax+28], 0

; 191  : 
; 192  : 		if( g_TeamInfo[i].players > 0 )

	imul	eax, DWORD PTR _i$[ebp], 40
	movsx	ecx, WORD PTR ?g_TeamInfo@@3PAUteam_info_t@@A[eax+26]
	test	ecx, ecx
	jle	SHORT $LN31@Draw

; 193  : 		{
; 194  : 			g_TeamInfo[i].ping /= g_TeamInfo[i].players;  // use the average ping of all the players in the team as the teams ping

	imul	eax, DWORD PTR _i$[ebp], 40
	imul	ecx, DWORD PTR _i$[ebp], 40
	movsx	ecx, WORD PTR ?g_TeamInfo@@3PAUteam_info_t@@A[ecx+26]
	movsx	eax, WORD PTR ?g_TeamInfo@@3PAUteam_info_t@@A[eax+20]
	cdq
	idiv	ecx
	imul	edx, DWORD PTR _i$[ebp], 40
	mov	WORD PTR ?g_TeamInfo@@3PAUteam_info_t@@A[edx+20], ax

; 195  : 			g_TeamInfo[i].packetloss /= g_TeamInfo[i].players;  // use the average ping of all the players in the team as the teams ping

	imul	eax, DWORD PTR _i$[ebp], 40
	imul	ecx, DWORD PTR _i$[ebp], 40
	movsx	ecx, WORD PTR ?g_TeamInfo@@3PAUteam_info_t@@A[ecx+26]
	movsx	eax, WORD PTR ?g_TeamInfo@@3PAUteam_info_t@@A[eax+22]
	cdq
	idiv	ecx
	imul	edx, DWORD PTR _i$[ebp], 40
	mov	WORD PTR ?g_TeamInfo@@3PAUteam_info_t@@A[edx+22], ax
$LN31@Draw:

; 196  : 		}
; 197  : 	}

	jmp	SHORT $LN11@Draw
$LN12@Draw:

; 198  : 
; 199  : 	// Draw the teams
; 200  : 	while( 1 )

	mov	eax, 1
	test	eax, eax
	je	$LN15@Draw

; 201  : 	{
; 202  : 		int highest_frags = -99999; int lowest_deaths = 99999;

	mov	DWORD PTR _highest_frags$7[ebp], -99999	; fffe7961H
	mov	DWORD PTR _lowest_deaths$6[ebp], 99999	; 0001869fH

; 203  : 		int best_team = 0;

	mov	DWORD PTR _best_team$5[ebp], 0

; 204  : 
; 205  : 		for( i = 1; i <= m_iNumTeams; i++ )

	mov	DWORD PTR _i$[ebp], 1
	jmp	SHORT $LN18@Draw
$LN16@Draw:
	mov	eax, DWORD PTR _i$[ebp]
	add	eax, 1
	mov	DWORD PTR _i$[ebp], eax
$LN18@Draw:
	mov	eax, DWORD PTR _this$[ebp]
	mov	ecx, DWORD PTR _i$[ebp]
	cmp	ecx, DWORD PTR [eax+8]
	jg	SHORT $LN17@Draw

; 206  : 		{
; 207  : 			if( g_TeamInfo[i].players < 0 )

	imul	eax, DWORD PTR _i$[ebp], 40
	movsx	ecx, WORD PTR ?g_TeamInfo@@3PAUteam_info_t@@A[eax+26]
	test	ecx, ecx
	jge	SHORT $LN32@Draw

; 208  : 				continue;

	jmp	SHORT $LN16@Draw
$LN32@Draw:

; 209  : 
; 210  : 			if( !g_TeamInfo[i].already_drawn && g_TeamInfo[i].frags >= highest_frags )

	imul	eax, DWORD PTR _i$[ebp], 40
	cmp	DWORD PTR ?g_TeamInfo@@3PAUteam_info_t@@A[eax+28], 0
	jne	SHORT $LN34@Draw
	imul	eax, DWORD PTR _i$[ebp], 40
	movsx	ecx, WORD PTR ?g_TeamInfo@@3PAUteam_info_t@@A[eax+16]
	cmp	ecx, DWORD PTR _highest_frags$7[ebp]
	jl	SHORT $LN34@Draw

; 211  : 			{
; 212  : 				if( g_TeamInfo[i].frags > highest_frags || g_TeamInfo[i].deaths < lowest_deaths )

	imul	eax, DWORD PTR _i$[ebp], 40
	movsx	ecx, WORD PTR ?g_TeamInfo@@3PAUteam_info_t@@A[eax+16]
	cmp	ecx, DWORD PTR _highest_frags$7[ebp]
	jg	SHORT $LN35@Draw
	imul	eax, DWORD PTR _i$[ebp], 40
	movsx	ecx, WORD PTR ?g_TeamInfo@@3PAUteam_info_t@@A[eax+18]
	cmp	ecx, DWORD PTR _lowest_deaths$6[ebp]
	jge	SHORT $LN34@Draw
$LN35@Draw:

; 213  : 				{
; 214  : 					best_team = i;

	mov	eax, DWORD PTR _i$[ebp]
	mov	DWORD PTR _best_team$5[ebp], eax

; 215  : 					lowest_deaths = g_TeamInfo[i].deaths;

	imul	eax, DWORD PTR _i$[ebp], 40
	movsx	ecx, WORD PTR ?g_TeamInfo@@3PAUteam_info_t@@A[eax+18]
	mov	DWORD PTR _lowest_deaths$6[ebp], ecx

; 216  : 					highest_frags = g_TeamInfo[i].frags;

	imul	eax, DWORD PTR _i$[ebp], 40
	movsx	ecx, WORD PTR ?g_TeamInfo@@3PAUteam_info_t@@A[eax+16]
	mov	DWORD PTR _highest_frags$7[ebp], ecx
$LN34@Draw:

; 217  : 				}
; 218  : 			}
; 219  : 		}

	jmp	$LN16@Draw
$LN17@Draw:

; 220  : 
; 221  : 		// draw the best team on the scoreboard
; 222  : 		if( !best_team ) break;

	cmp	DWORD PTR _best_team$5[ebp], 0
	jne	SHORT $LN36@Draw
	jmp	$LN15@Draw
$LN36@Draw:

; 223  : 
; 224  : 		// draw out the best team
; 225  : 		team_info_t *team_info = &g_TeamInfo[best_team];

	imul	eax, DWORD PTR _best_team$5[ebp], 40
	add	eax, OFFSET ?g_TeamInfo@@3PAUteam_info_t@@A ; g_TeamInfo
	mov	DWORD PTR _team_info$4[ebp], eax

; 226  : 
; 227  : 		ypos = ROW_RANGE_MIN + (list_slot * ROW_GAP) + ((ScreenHeight / 10) + 10);

	movss	xmm0, DWORD PTR _list_slot$[ebp]
	mulss	xmm0, DWORD PTR __real@41f00000
	addss	xmm0, DWORD PTR __real@41c80000
	mov	eax, DWORD PTR ?gHUD@@3VCHud@@A+8440
	cdq
	mov	ecx, 10					; 0000000aH
	idiv	ecx
	add	eax, 10					; 0000000aH
	cvtsi2ss xmm1, eax
	addss	xmm0, xmm1
	cvttss2si edx, xmm0
	mov	DWORD PTR _ypos$[ebp], edx

; 228  : 
; 229  : 		// check we haven't drawn too far down
; 230  : 		if( ypos > ROW_RANGE_MAX )  // don't draw to close to the lower border

	mov	eax, DWORD PTR ?gHUD@@3VCHud@@A+8440
	sub	eax, 50					; 00000032H
	cmp	DWORD PTR _ypos$[ebp], eax
	jle	SHORT $LN37@Draw

; 231  : 			break;

	jmp	$LN15@Draw
$LN37@Draw:

; 232  : 
; 233  : 		xpos = NAME_RANGE_MIN + xpos_rel;

	mov	eax, DWORD PTR _xpos_rel$[ebp]
	add	eax, 20					; 00000014H
	mov	DWORD PTR _xpos$[ebp], eax

; 234  : 		int r = 255, g = 225, b = 55; // draw the stuff kinda yellowish

	mov	DWORD PTR _r$3[ebp], 255		; 000000ffH
	mov	DWORD PTR _g$2[ebp], 225		; 000000e1H
	mov	DWORD PTR _b$1[ebp], 55			; 00000037H

; 235  : 		
; 236  : 		if( team_info->ownteam ) // if it is their team, draw the background different color

	mov	eax, DWORD PTR _team_info$4[ebp]
	movsx	ecx, WORD PTR [eax+24]
	test	ecx, ecx
	je	SHORT $LN38@Draw

; 237  : 		{
; 238  : 			// overlay the background in blue,  then draw the score text over it
; 239  : 			FillRGBA( NAME_RANGE_MIN + xpos_rel - 5, ypos, PING_RANGE_MAX - 5, ROW_GAP, 0, 0, 255, 70 );

	push	70					; 00000046H
	push	255					; 000000ffH
	push	0
	push	0
	push	30					; 0000001eH
	push	655					; 0000028fH
	mov	eax, DWORD PTR _ypos$[ebp]
	push	eax
	mov	ecx, DWORD PTR _xpos_rel$[ebp]
	add	ecx, 15					; 0000000fH
	push	ecx
	call	DWORD PTR ?gEngfuncs@@3Ucl_enginefuncs_s@@A+44
	add	esp, 32					; 00000020H
$LN38@Draw:

; 240  : 		}
; 241  : 
; 242  : 		// draw their name (left to right)
; 243  : 		gHUD.DrawHudString( xpos, ypos, NAME_RANGE_MAX + xpos_rel, team_info->name, r, g, b );

	mov	eax, DWORD PTR _b$1[ebp]
	push	eax
	mov	ecx, DWORD PTR _g$2[ebp]
	push	ecx
	mov	edx, DWORD PTR _r$3[ebp]
	push	edx
	mov	eax, DWORD PTR _team_info$4[ebp]
	push	eax
	mov	ecx, DWORD PTR _xpos_rel$[ebp]
	add	ecx, 400				; 00000190H
	push	ecx
	mov	edx, DWORD PTR _ypos$[ebp]
	push	edx
	mov	eax, DWORD PTR _xpos$[ebp]
	push	eax
	mov	ecx, OFFSET ?gHUD@@3VCHud@@A		; gHUD
	call	?DrawHudString@CHud@@QAEHHHHPADHHH@Z	; CHud::DrawHudString

; 244  : 
; 245  : 		// draw kills (right to left)
; 246  : 		xpos = KILLS_RANGE_MAX + xpos_rel;

	mov	eax, DWORD PTR _xpos_rel$[ebp]
	add	eax, 500				; 000001f4H
	mov	DWORD PTR _xpos$[ebp], eax

; 247  : 	//	gHUD.DrawHudNumberString( xpos, ypos, KILLS_RANGE_MIN + xpos_rel, team_info->frags, r, g, b );
; 248  : 		gHUD.DrawHudNumberString( xpos, ypos, KILLS_RANGE_MIN + xpos_rel, team_info->frags, 25, 255, 25 );

	push	25					; 00000019H
	push	255					; 000000ffH
	push	25					; 00000019H
	mov	eax, DWORD PTR _team_info$4[ebp]
	movsx	ecx, WORD PTR [eax+16]
	push	ecx
	mov	edx, DWORD PTR _xpos_rel$[ebp]
	add	edx, 420				; 000001a4H
	push	edx
	mov	eax, DWORD PTR _ypos$[ebp]
	push	eax
	mov	ecx, DWORD PTR _xpos$[ebp]
	push	ecx
	mov	ecx, OFFSET ?gHUD@@3VCHud@@A		; gHUD
	call	?DrawHudNumberString@CHud@@QAEHHHHHHHH@Z ; CHud::DrawHudNumberString

; 249  : 
; 250  : 		// draw divider
; 251  : 	//	xpos = DIVIDER_POS + xpos_rel;
; 252  : 	//	gHUD.DrawHudString( xpos, ypos, xpos + 20, "/", r, g, b );
; 253  : 
; 254  : 		// draw deaths
; 255  : 		xpos = DEATHS_RANGE_MAX + xpos_rel;

	mov	eax, DWORD PTR _xpos_rel$[ebp]
	add	eax, 580				; 00000244H
	mov	DWORD PTR _xpos$[ebp], eax

; 256  : 	//	gHUD.DrawHudNumberString( xpos, ypos, DEATHS_RANGE_MIN + xpos_rel, team_info->deaths, r, g, b );
; 257  : 		gHUD.DrawHudNumberString( xpos, ypos, DEATHS_RANGE_MIN + xpos_rel, team_info->deaths, 255, 25, 25 );

	push	25					; 00000019H
	push	25					; 00000019H
	push	255					; 000000ffH
	mov	eax, DWORD PTR _team_info$4[ebp]
	movsx	ecx, WORD PTR [eax+18]
	push	ecx
	mov	edx, DWORD PTR _xpos_rel$[ebp]
	add	edx, 520				; 00000208H
	push	edx
	mov	eax, DWORD PTR _ypos$[ebp]
	push	eax
	mov	ecx, DWORD PTR _xpos$[ebp]
	push	ecx
	mov	ecx, OFFSET ?gHUD@@3VCHud@@A		; gHUD
	call	?DrawHudNumberString@CHud@@QAEHHHHHHHH@Z ; CHud::DrawHudNumberString

; 258  : 
; 259  : 		// draw ping
; 260  : 		// draw ping & packetloss
; 261  : 		static char buf[64];
; 262  : 		Q_snprintf( buf, sizeof( buf ), "%d", team_info->ping );

	mov	eax, DWORD PTR _team_info$4[ebp]
	movsx	ecx, WORD PTR [eax+20]
	push	ecx
	push	OFFSET ??_C@_02DPKJAMEF@?$CFd?$AA@
	push	64					; 00000040H
	push	OFFSET ?buf@?CH@??Draw@CHudScoreboard@@UAEHM@Z@4PADA
	call	?Q_snprintf@@YAHPADIPBDZZ		; Q_snprintf
	add	esp, 16					; 00000010H

; 263  : 		xpos = ((PING_RANGE_MAX - PING_RANGE_MIN) / 2) + PING_RANGE_MIN + xpos_rel + 25;

	mov	eax, DWORD PTR _xpos_rel$[ebp]
	add	eax, 660				; 00000294H
	mov	DWORD PTR _xpos$[ebp], eax

; 264  : 		UnpackRGB( r, g, b, RGB_YELLOWISH );

	push	16752640				; 00ffa000H
	lea	eax, DWORD PTR _b$1[ebp]
	push	eax
	lea	ecx, DWORD PTR _g$2[ebp]
	push	ecx
	lea	edx, DWORD PTR _r$3[ebp]
	push	edx
	call	?UnpackRGB@@YAXAAH00K@Z			; UnpackRGB
	add	esp, 16					; 00000010H

; 265  : 		gHUD.DrawHudStringReverse( xpos, ypos, xpos - 50, buf, r, g, b );

	mov	eax, DWORD PTR _b$1[ebp]
	push	eax
	mov	ecx, DWORD PTR _g$2[ebp]
	push	ecx
	mov	edx, DWORD PTR _r$3[ebp]
	push	edx
	push	OFFSET ?buf@?CH@??Draw@CHudScoreboard@@UAEHM@Z@4PADA
	mov	eax, DWORD PTR _xpos$[ebp]
	sub	eax, 50					; 00000032H
	push	eax
	mov	ecx, DWORD PTR _ypos$[ebp]
	push	ecx
	mov	edx, DWORD PTR _xpos$[ebp]
	push	edx
	mov	ecx, OFFSET ?gHUD@@3VCHud@@A		; gHUD
	call	?DrawHudStringReverse@CHud@@QAEHHHHPADHHH@Z ; CHud::DrawHudStringReverse

; 266  : #if 0
; 267  : 		// Packetloss removed on Kelly 'shipping nazi' Bailey's orders
; 268  : 		Q_snprintf( buf, sizeof( buf ), " %d", team_info->packetloss );
; 269  : 		gHUD.DrawHudString( xpos, ypos, xpos+50, buf, r, g, b );
; 270  : #endif
; 271  : 		team_info->already_drawn = TRUE;  // set the already_drawn to be TRUE, so this team won't get drawn again

	mov	eax, DWORD PTR _team_info$4[ebp]
	mov	DWORD PTR [eax+28], 1

; 272  : 		list_slot++;

	movss	xmm0, DWORD PTR _list_slot$[ebp]
	addss	xmm0, DWORD PTR __real@3f800000
	movss	DWORD PTR _list_slot$[ebp], xmm0

; 273  : 
; 274  : 		// draw all the players that belong to this team, indented slightly
; 275  : 		list_slot = DrawPlayers( xpos_rel, list_slot, 10, team_info->name );

	mov	eax, DWORD PTR _team_info$4[ebp]
	push	eax
	push	10					; 0000000aH
	push	ecx
	movss	xmm0, DWORD PTR _list_slot$[ebp]
	movss	DWORD PTR [esp], xmm0
	mov	ecx, DWORD PTR _xpos_rel$[ebp]
	push	ecx
	mov	ecx, DWORD PTR _this$[ebp]
	call	?DrawPlayers@CHudScoreboard@@QAEHHMHPAD@Z ; CHudScoreboard::DrawPlayers
	cvtsi2ss xmm0, eax
	movss	DWORD PTR _list_slot$[ebp], xmm0

; 276  : 	}

	jmp	$LN12@Draw
$LN15@Draw:

; 277  : 
; 278  : 	// draw all the players who are not in a team
; 279  : 	list_slot += 0.5;

	cvtss2sd xmm0, DWORD PTR _list_slot$[ebp]
	addsd	xmm0, QWORD PTR __real@3fe0000000000000
	cvtsd2ss xmm0, xmm0
	movss	DWORD PTR _list_slot$[ebp], xmm0

; 280  : 	DrawPlayers( xpos_rel, list_slot, 0, "" );

	push	OFFSET ??_C@_00CNPNBAHC@?$AA@
	push	0
	push	ecx
	movss	xmm0, DWORD PTR _list_slot$[ebp]
	movss	DWORD PTR [esp], xmm0
	mov	eax, DWORD PTR _xpos_rel$[ebp]
	push	eax
	mov	ecx, DWORD PTR _this$[ebp]
	call	?DrawPlayers@CHudScoreboard@@QAEHHMHPAD@Z ; CHudScoreboard::DrawPlayers

; 281  : 
; 282  : 	return 1;

	mov	eax, 1
$LN1@Draw:

; 283  : }

	pop	edi
	pop	esi
	pop	ebx
	mov	esp, ebp
	pop	ebp
	ret	4
?Draw@CHudScoreboard@@UAEHM@Z ENDP			; CHudScoreboard::Draw
_TEXT	ENDS
; Function compile flags: /Odtp /ZI
; File d:\!diffusion 2020\source code 2022\client-server\client\scoreboard.cpp
;	COMDAT ?VidInit@CHudScoreboard@@UAEHXZ
_TEXT	SEGMENT
_this$ = -4						; size = 4
?VidInit@CHudScoreboard@@UAEHXZ PROC			; CHudScoreboard::VidInit, COMDAT
; _this$ = ecx

; 56   : {

	push	ebp
	mov	ebp, esp
	sub	esp, 68					; 00000044H
	push	ebx
	push	esi
	push	edi
	mov	DWORD PTR _this$[ebp], ecx

; 57   : 	IsShowingObjective = false;

	mov	eax, DWORD PTR _this$[ebp]
	mov	BYTE PTR [eax+32], 0

; 58   : 	return 1;

	mov	eax, 1

; 59   : }

	pop	edi
	pop	esi
	pop	ebx
	mov	esp, ebp
	pop	ebp
	ret	0
?VidInit@CHudScoreboard@@UAEHXZ ENDP			; CHudScoreboard::VidInit
_TEXT	ENDS
; Function compile flags: /Odtp /ZI
; File d:\!diffusion 2020\source code 2022\client-server\client\scoreboard.cpp
;	COMDAT ?InitHUDData@CHudScoreboard@@UAEXXZ
_TEXT	SEGMENT
_this$ = -4						; size = 4
?InitHUDData@CHudScoreboard@@UAEXXZ PROC		; CHudScoreboard::InitHUDData, COMDAT
; _this$ = ecx

; 62   : {

	push	ebp
	mov	ebp, esp
	sub	esp, 68					; 00000044H
	push	ebx
	push	esi
	push	edi
	mov	DWORD PTR _this$[ebp], ecx

; 63   : 	m_iLastKilledBy = 0;

	mov	eax, DWORD PTR _this$[ebp]
	mov	DWORD PTR [eax+12], 0

; 64   : 	m_fLastKillTime = 0;

	mov	eax, DWORD PTR _this$[ebp]
	mov	DWORD PTR [eax+16], 0

; 65   : 	m_iPlayerNum = 0;

	mov	eax, DWORD PTR _this$[ebp]
	mov	DWORD PTR [eax+20], 0

; 66   : 	m_iNumTeams = 0;

	mov	eax, DWORD PTR _this$[ebp]
	mov	DWORD PTR [eax+8], 0

; 67   : 
; 68   : 	m_iFlags &= ~HUD_ACTIVE;  // starts out inactive

	mov	eax, DWORD PTR _this$[ebp]
	mov	ecx, DWORD PTR [eax+4]
	and	ecx, -2					; fffffffeH
	mov	edx, DWORD PTR _this$[ebp]
	mov	DWORD PTR [edx+4], ecx

; 69   : 	m_iFlags |= HUD_INTERMISSION; // is always drawn during an intermission

	mov	eax, DWORD PTR _this$[ebp]
	mov	ecx, DWORD PTR [eax+4]
	or	ecx, 2
	mov	edx, DWORD PTR _this$[ebp]
	mov	DWORD PTR [edx+4], ecx

; 70   : 
; 71   : 	memset( g_PlayerExtraInfo, 0, sizeof g_PlayerExtraInfo );

	push	1690					; 0000069aH
	push	0
	push	OFFSET ?g_PlayerExtraInfo@@3PAUextra_player_info_t@@A ; g_PlayerExtraInfo
	call	_memset
	add	esp, 12					; 0000000cH

; 72   : 	memset( g_TeamInfo, 0, sizeof g_TeamInfo );

	push	2600					; 00000a28H
	push	0
	push	OFFSET ?g_TeamInfo@@3PAUteam_info_t@@A	; g_TeamInfo
	call	_memset
	add	esp, 12					; 0000000cH

; 73   : }

	pop	edi
	pop	esi
	pop	ebx
	mov	esp, ebp
	pop	ebp
	ret	0
?InitHUDData@CHudScoreboard@@UAEXXZ ENDP		; CHudScoreboard::InitHUDData
_TEXT	ENDS
; Function compile flags: /Odtp /ZI
; File d:\!diffusion 2020\source code 2022\client-server\client\scoreboard.cpp
;	COMDAT ?Init@CHudScoreboard@@UAEHXZ
_TEXT	SEGMENT
_this$ = -4						; size = 4
?Init@CHudScoreboard@@UAEHXZ PROC			; CHudScoreboard::Init, COMDAT
; _this$ = ecx

; 37   : {

	push	ebp
	mov	ebp, esp
	sub	esp, 68					; 00000044H
	push	ebx
	push	esi
	push	edi
	mov	DWORD PTR _this$[ebp], ecx

; 38   : 	gHUD.AddHudElem( this );

	mov	eax, DWORD PTR _this$[ebp]
	push	eax
	mov	ecx, OFFSET ?gHUD@@3VCHud@@A		; gHUD
	call	?AddHudElem@CHud@@QAEXPAVCHudBase@@@Z	; CHud::AddHudElem

; 39   : 
; 40   : 	// Hook messages & commands here
; 41   : 	HOOK_COMMAND( "+showscores", ShowScores );

	push	OFFSET ?__CmdFunc_ShowScores@@YAXXZ	; __CmdFunc_ShowScores
	push	OFFSET ??_C@_0M@KOIMPMNL@?$CLshowscores?$AA@
	call	DWORD PTR ?gEngfuncs@@3Ucl_enginefuncs_s@@A+68
	add	esp, 8

; 42   : 	HOOK_COMMAND( "-showscores", HideScores );

	push	OFFSET ?__CmdFunc_HideScores@@YAXXZ	; __CmdFunc_HideScores
	push	OFFSET ??_C@_0M@EBLBFJDL@?9showscores?$AA@
	call	DWORD PTR ?gEngfuncs@@3Ucl_enginefuncs_s@@A+68
	add	esp, 8

; 43   : 
; 44   : 	HOOK_MESSAGE( ScoreInfo );

	push	OFFSET ?__MsgFunc_ScoreInfo@@YAHPBDHPAX@Z ; __MsgFunc_ScoreInfo
	push	OFFSET ??_C@_09CBJIIAKN@ScoreInfo?$AA@
	call	DWORD PTR ?gEngfuncs@@3Ucl_enginefuncs_s@@A+72
	add	esp, 8

; 45   : 	HOOK_MESSAGE( TeamScore );

	push	OFFSET ?__MsgFunc_TeamScore@@YAHPBDHPAX@Z ; __MsgFunc_TeamScore
	push	OFFSET ??_C@_09DEGMELBN@TeamScore?$AA@
	call	DWORD PTR ?gEngfuncs@@3Ucl_enginefuncs_s@@A+72
	add	esp, 8

; 46   : 	HOOK_MESSAGE( TeamInfo );

	push	OFFSET ?__MsgFunc_TeamInfo@@YAHPBDHPAX@Z ; __MsgFunc_TeamInfo
	push	OFFSET ??_C@_08BHMNHEND@TeamInfo?$AA@
	call	DWORD PTR ?gEngfuncs@@3Ucl_enginefuncs_s@@A+72
	add	esp, 8

; 47   : 
; 48   : 	InitHUDData();

	mov	eax, DWORD PTR _this$[ebp]
	mov	edx, DWORD PTR [eax]
	mov	ecx, DWORD PTR _this$[ebp]
	mov	eax, DWORD PTR [edx+24]
	call	eax

; 49   : 
; 50   : 	ypos_bottom = 0;

	mov	eax, DWORD PTR _this$[ebp]
	mov	DWORD PTR [eax+28], 0

; 51   : 
; 52   : 	return 1;

	mov	eax, 1

; 53   : }

	pop	edi
	pop	esi
	pop	ebx
	mov	esp, ebp
	pop	ebp
	ret	0
?Init@CHudScoreboard@@UAEHXZ ENDP			; CHudScoreboard::Init
_TEXT	ENDS
; Function compile flags: /Odtp /ZI
;	COMDAT ??__G@YGXPAX0IIP6EPAX00@Z@Z
_TEXT	SEGMENT
tv66 = -68						; size = 4
___t$ = 8						; size = 4
___u$ = 12						; size = 4
___s$ = 16						; size = 4
___n$ = 20						; size = 4
___f$ = 24						; size = 4
??__G@YGXPAX0IIP6EPAX00@Z@Z PROC			; `vector copy constructor iterator', COMDAT
	push	ebp
	mov	ebp, esp
	sub	esp, 68					; 00000044H
	push	ebx
	push	esi
	push	edi
$LN2@vector:
	mov	eax, DWORD PTR ___n$[ebp]
	mov	DWORD PTR tv66[ebp], eax
	mov	ecx, DWORD PTR ___n$[ebp]
	sub	ecx, 1
	mov	DWORD PTR ___n$[ebp], ecx
	cmp	DWORD PTR tv66[ebp], 0
	jbe	SHORT $LN1@vector
	mov	eax, DWORD PTR ___u$[ebp]
	push	eax
	mov	ecx, DWORD PTR ___t$[ebp]
	call	DWORD PTR ___f$[ebp]
	mov	eax, DWORD PTR ___t$[ebp]
	add	eax, DWORD PTR ___s$[ebp]
	mov	DWORD PTR ___t$[ebp], eax
	mov	eax, DWORD PTR ___u$[ebp]
	add	eax, DWORD PTR ___s$[ebp]
	mov	DWORD PTR ___u$[ebp], eax
	jmp	SHORT $LN2@vector
$LN1@vector:
	pop	edi
	pop	esi
	pop	ebx
	mov	esp, ebp
	pop	ebp
	ret	20					; 00000014H
??__G@YGXPAX0IIP6EPAX00@Z@Z ENDP			; `vector copy constructor iterator'
_TEXT	ENDS
; Function compile flags: /Odtp /ZI
;	COMDAT ??_H@YGXPAXIIP6EPAX0@Z@Z
_TEXT	SEGMENT
tv66 = -68						; size = 4
___t$ = 8						; size = 4
___s$ = 12						; size = 4
___n$ = 16						; size = 4
___f$ = 20						; size = 4
??_H@YGXPAXIIP6EPAX0@Z@Z PROC				; `vector constructor iterator', COMDAT
	push	ebp
	mov	ebp, esp
	sub	esp, 68					; 00000044H
	push	ebx
	push	esi
	push	edi
$LN2@vector:
	mov	eax, DWORD PTR ___n$[ebp]
	mov	DWORD PTR tv66[ebp], eax
	mov	ecx, DWORD PTR ___n$[ebp]
	sub	ecx, 1
	mov	DWORD PTR ___n$[ebp], ecx
	cmp	DWORD PTR tv66[ebp], 0
	jbe	SHORT $LN1@vector
	mov	ecx, DWORD PTR ___t$[ebp]
	call	DWORD PTR ___f$[ebp]
	mov	eax, DWORD PTR ___t$[ebp]
	add	eax, DWORD PTR ___s$[ebp]
	mov	DWORD PTR ___t$[ebp], eax
	jmp	SHORT $LN2@vector
$LN1@vector:
	pop	edi
	pop	esi
	pop	ebx
	mov	esp, ebp
	pop	ebp
	ret	16					; 00000010H
??_H@YGXPAXIIP6EPAX0@Z@Z ENDP				; `vector constructor iterator'
_TEXT	ENDS
END
