; Listing generated by Microsoft (R) Optimizing Compiler Version 19.00.24247.2 

	TITLE	D:\!DIFFUSION 2020\source code 2022\client-server\client\status_icons.cpp
	.686P
	.XMM
	include listing.inc
	.model	flat

INCLUDELIB LIBCMT
INCLUDELIB OLDNAMES

PUBLIC	??_H@YGXPAXIIP6EPAX0@Z@Z			; `vector constructor iterator'
PUBLIC	??__G@YGXPAX0IIP6EPAX00@Z@Z			; `vector copy constructor iterator'
PUBLIC	?Init@CHudStatusIcons@@UAEHXZ			; CHudStatusIcons::Init
PUBLIC	?VidInit@CHudStatusIcons@@UAEHXZ		; CHudStatusIcons::VidInit
PUBLIC	?Reset@CHudStatusIcons@@UAEXXZ			; CHudStatusIcons::Reset
PUBLIC	?Draw@CHudStatusIcons@@UAEHM@Z			; CHudStatusIcons::Draw
PUBLIC	?MsgFunc_StatusIcon@CHudStatusIcons@@QAEHPBDHPAX@Z ; CHudStatusIcons::MsgFunc_StatusIcon
PUBLIC	?EnableIcon@CHudStatusIcons@@QAEXPADEEE@Z	; CHudStatusIcons::EnableIcon
PUBLIC	?DisableIcon@CHudStatusIcons@@QAEXPAD@Z		; CHudStatusIcons::DisableIcon
PUBLIC	?GetSprite@CHud@@QAEHH@Z			; CHud::GetSprite
PUBLIC	?GetSpriteRect@CHud@@QAEAAUwrect_s@@H@Z		; CHud::GetSpriteRect
PUBLIC	?__MsgFunc_StatusIcon@@YAHPBDHPAX@Z		; __MsgFunc_StatusIcon
PUBLIC	??_C@_0L@BOOHPCFL@StatusIcon?$AA@		; `string'
PUBLIC	__real@0000000000000000
EXTRN	_memset:PROC
EXTRN	?Q_strncpy@@YAIPADPBDI@Z:PROC			; Q_strncpy
EXTRN	?Q_strnicmp@@YAHPBD0H@Z:PROC			; Q_strnicmp
EXTRN	?GetSpriteIndex@CHud@@QAEHPBD@Z:PROC		; CHud::GetSpriteIndex
EXTRN	?AddHudElem@CHud@@QAEXPAVCHudBase@@@Z:PROC	; CHud::AddHudElem
EXTRN	?BEGIN_READ@@YAXPBDPAXH@Z:PROC			; BEGIN_READ
EXTRN	?END_READ@@YAXXZ:PROC				; END_READ
EXTRN	?READ_BYTE@@YAHXZ:PROC				; READ_BYTE
EXTRN	?READ_STRING@@YAPADXZ:PROC			; READ_STRING
EXTRN	?gEngfuncs@@3Ucl_enginefuncs_s@@A:BYTE		; gEngfuncs
EXTRN	?gHUD@@3VCHud@@A:BYTE				; gHUD
EXTRN	__fltused:DWORD
;	COMDAT __real@0000000000000000
CONST	SEGMENT
__real@0000000000000000 DQ 00000000000000000r	; 0
CONST	ENDS
;	COMDAT ??_C@_0L@BOOHPCFL@StatusIcon?$AA@
CONST	SEGMENT
??_C@_0L@BOOHPCFL@StatusIcon?$AA@ DB 'StatusIcon', 00H	; `string'
CONST	ENDS
; Function compile flags: /Odtp /ZI
; File d:\!diffusion 2020\source code 2022\client-server\client\status_icons.cpp
;	COMDAT ?__MsgFunc_StatusIcon@@YAHPBDHPAX@Z
_TEXT	SEGMENT
_pszName$ = 8						; size = 4
_iSize$ = 12						; size = 4
_pbuf$ = 16						; size = 4
?__MsgFunc_StatusIcon@@YAHPBDHPAX@Z PROC		; __MsgFunc_StatusIcon, COMDAT

; 22   : DECLARE_MESSAGE( m_StatusIcons, StatusIcon );

	push	ebp
	mov	ebp, esp
	sub	esp, 64					; 00000040H
	push	ebx
	push	esi
	push	edi
	mov	eax, DWORD PTR _pbuf$[ebp]
	push	eax
	mov	ecx, DWORD PTR _iSize$[ebp]
	push	ecx
	mov	edx, DWORD PTR _pszName$[ebp]
	push	edx
	mov	ecx, OFFSET ?gHUD@@3VCHud@@A+1464
	call	?MsgFunc_StatusIcon@CHudStatusIcons@@QAEHPBDHPAX@Z ; CHudStatusIcons::MsgFunc_StatusIcon
	pop	edi
	pop	esi
	pop	ebx
	mov	esp, ebp
	pop	ebp
	ret	0
?__MsgFunc_StatusIcon@@YAHPBDHPAX@Z ENDP		; __MsgFunc_StatusIcon
_TEXT	ENDS
; Function compile flags: /Odtp /ZI
; File d:\!diffusion 2020\source code 2022\client-server\client\hud.h
;	COMDAT ?GetSpriteRect@CHud@@QAEAAUwrect_s@@H@Z
_TEXT	SEGMENT
_this$ = -4						; size = 4
_index$ = 8						; size = 4
?GetSpriteRect@CHud@@QAEAAUwrect_s@@H@Z PROC		; CHud::GetSpriteRect, COMDAT
; _this$ = ecx

; 952  : 	wrect_t& GetSpriteRect( int index ) { return m_rgrcRects[index]; }

	push	ebp
	mov	ebp, esp
	sub	esp, 68					; 00000044H
	push	ebx
	push	esi
	push	edi
	mov	DWORD PTR _this$[ebp], ecx
	mov	eax, DWORD PTR _index$[ebp]
	shl	eax, 4
	mov	ecx, DWORD PTR _this$[ebp]
	add	eax, DWORD PTR [ecx+232]
	pop	edi
	pop	esi
	pop	ebx
	mov	esp, ebp
	pop	ebp
	ret	4
?GetSpriteRect@CHud@@QAEAAUwrect_s@@H@Z ENDP		; CHud::GetSpriteRect
_TEXT	ENDS
; Function compile flags: /Odtp /ZI
; File d:\!diffusion 2020\source code 2022\client-server\client\hud.h
;	COMDAT ?GetSprite@CHud@@QAEHH@Z
_TEXT	SEGMENT
tv68 = -72						; size = 4
_this$ = -4						; size = 4
_index$ = 8						; size = 4
?GetSprite@CHud@@QAEHH@Z PROC				; CHud::GetSprite, COMDAT
; _this$ = ecx

; 951  : 	SpriteHandle GetSprite( int index ) { return (index < 0) ? 0 : m_rghSprites[index]; }

	push	ebp
	mov	ebp, esp
	sub	esp, 72					; 00000048H
	push	ebx
	push	esi
	push	edi
	mov	DWORD PTR _this$[ebp], ecx
	cmp	DWORD PTR _index$[ebp], 0
	jge	SHORT $LN3@GetSprite
	mov	DWORD PTR tv68[ebp], 0
	jmp	SHORT $LN4@GetSprite
$LN3@GetSprite:
	mov	eax, DWORD PTR _this$[ebp]
	mov	ecx, DWORD PTR [eax+228]
	mov	edx, DWORD PTR _index$[ebp]
	mov	eax, DWORD PTR [ecx+edx*4]
	mov	DWORD PTR tv68[ebp], eax
$LN4@GetSprite:
	mov	eax, DWORD PTR tv68[ebp]
	pop	edi
	pop	esi
	pop	ebx
	mov	esp, ebp
	pop	ebp
	ret	4
?GetSprite@CHud@@QAEHH@Z ENDP				; CHud::GetSprite
_TEXT	ENDS
; Function compile flags: /Odtp /ZI
; File d:\!diffusion 2020\source code 2022\client-server\client\status_icons.cpp
;	COMDAT ?DisableIcon@CHudStatusIcons@@QAEXPAD@Z
_TEXT	SEGMENT
_i$1 = -8						; size = 4
_this$ = -4						; size = 4
_pszIconName$ = 8					; size = 4
?DisableIcon@CHudStatusIcons@@QAEXPAD@Z PROC		; CHudStatusIcons::DisableIcon, COMDAT
; _this$ = ecx

; 149  : {

	push	ebp
	mov	ebp, esp
	sub	esp, 72					; 00000048H
	push	ebx
	push	esi
	push	edi
	mov	DWORD PTR _this$[ebp], ecx

; 150  : 	// find the sprite is in the current list
; 151  : 	for( int i = 0; i < MAX_ICONSPRITES; i++ )

	mov	DWORD PTR _i$1[ebp], 0
	jmp	SHORT $LN4@DisableIco
$LN2@DisableIco:
	mov	eax, DWORD PTR _i$1[ebp]
	add	eax, 1
	mov	DWORD PTR _i$1[ebp], eax
$LN4@DisableIco:
	cmp	DWORD PTR _i$1[ebp], 8
	jge	SHORT $LN1@DisableIco

; 152  : 	{
; 153  : 		if( !Q_stricmp( m_IconList[i].szSpriteName, pszIconName ))

	push	99999					; 0001869fH
	mov	eax, DWORD PTR _pszIconName$[ebp]
	push	eax
	imul	ecx, DWORD PTR _i$1[ebp], 56
	mov	edx, DWORD PTR _this$[ebp]
	lea	eax, DWORD PTR [edx+ecx+12]
	push	eax
	call	?Q_strnicmp@@YAHPBD0H@Z			; Q_strnicmp
	add	esp, 12					; 0000000cH
	test	eax, eax
	jne	SHORT $LN5@DisableIco

; 154  : 		{
; 155  : 			// clear the item from the list
; 156  : 			memset( &m_IconList[i], 0, sizeof( icon_sprite_t ));

	push	56					; 00000038H
	push	0
	imul	eax, DWORD PTR _i$1[ebp], 56
	mov	ecx, DWORD PTR _this$[ebp]
	lea	edx, DWORD PTR [ecx+eax+12]
	push	edx
	call	_memset
	add	esp, 12					; 0000000cH

; 157  : 			return;

	jmp	SHORT $LN1@DisableIco
$LN5@DisableIco:

; 158  : 		}
; 159  : 	}

	jmp	SHORT $LN2@DisableIco
$LN1@DisableIco:

; 160  : }

	pop	edi
	pop	esi
	pop	ebx
	mov	esp, ebp
	pop	ebp
	ret	4
?DisableIcon@CHudStatusIcons@@QAEXPAD@Z ENDP		; CHudStatusIcons::DisableIcon
_TEXT	ENDS
; Function compile flags: /Odtp /ZI
; File d:\!diffusion 2020\source code 2022\client-server\client\status_icons.cpp
;	COMDAT ?EnableIcon@CHudStatusIcons@@QAEXPADEEE@Z
_TEXT	SEGMENT
_spr_index$ = -12					; size = 4
_i$ = -8						; size = 4
_this$ = -4						; size = 4
_pszIconName$ = 8					; size = 4
_red$ = 12						; size = 1
_green$ = 16						; size = 1
_blue$ = 20						; size = 1
?EnableIcon@CHudStatusIcons@@QAEXPADEEE@Z PROC		; CHudStatusIcons::EnableIcon, COMDAT
; _this$ = ecx

; 114  : {

	push	ebp
	mov	ebp, esp
	sub	esp, 76					; 0000004cH
	push	ebx
	push	esi
	push	edi
	mov	DWORD PTR _this$[ebp], ecx

; 115  : 	// check to see if the sprite is in the current list
; 116  : 	int i;
; 117  : 	for( i = 0; i < MAX_ICONSPRITES; i++ )

	mov	DWORD PTR _i$[ebp], 0
	jmp	SHORT $LN4@EnableIcon
$LN2@EnableIcon:
	mov	eax, DWORD PTR _i$[ebp]
	add	eax, 1
	mov	DWORD PTR _i$[ebp], eax
$LN4@EnableIcon:
	cmp	DWORD PTR _i$[ebp], 8
	jge	SHORT $LN3@EnableIcon

; 118  : 	{
; 119  : 		if( !Q_stricmp( m_IconList[i].szSpriteName, pszIconName ))

	push	99999					; 0001869fH
	mov	eax, DWORD PTR _pszIconName$[ebp]
	push	eax
	imul	ecx, DWORD PTR _i$[ebp], 56
	mov	edx, DWORD PTR _this$[ebp]
	lea	eax, DWORD PTR [edx+ecx+12]
	push	eax
	call	?Q_strnicmp@@YAHPBD0H@Z			; Q_strnicmp
	add	esp, 12					; 0000000cH
	test	eax, eax
	jne	SHORT $LN8@EnableIcon

; 120  : 			break;

	jmp	SHORT $LN3@EnableIcon
$LN8@EnableIcon:

; 121  : 	}

	jmp	SHORT $LN2@EnableIcon
$LN3@EnableIcon:

; 122  : 
; 123  : 	if( i == MAX_ICONSPRITES )

	cmp	DWORD PTR _i$[ebp], 8
	jne	SHORT $LN9@EnableIcon

; 124  : 	{
; 125  : 		// icon not in list, so find an empty slot to add to
; 126  : 		for( i = 0; i < MAX_ICONSPRITES; i++ )

	mov	DWORD PTR _i$[ebp], 0
	jmp	SHORT $LN7@EnableIcon
$LN5@EnableIcon:
	mov	eax, DWORD PTR _i$[ebp]
	add	eax, 1
	mov	DWORD PTR _i$[ebp], eax
$LN7@EnableIcon:
	cmp	DWORD PTR _i$[ebp], 8
	jge	SHORT $LN9@EnableIcon

; 127  : 		{
; 128  : 			if( !m_IconList[i].spr )

	imul	eax, DWORD PTR _i$[ebp], 56
	mov	ecx, DWORD PTR _this$[ebp]
	cmp	DWORD PTR [ecx+eax+44], 0
	jne	SHORT $LN10@EnableIcon

; 129  : 				break;

	jmp	SHORT $LN9@EnableIcon
$LN10@EnableIcon:

; 130  : 		}

	jmp	SHORT $LN5@EnableIcon
$LN9@EnableIcon:

; 131  : 	}
; 132  : 
; 133  : 	// if we've run out of space in the list, overwrite the first icon
; 134  : 	if( i == MAX_ICONSPRITES )

	cmp	DWORD PTR _i$[ebp], 8
	jne	SHORT $LN11@EnableIcon

; 135  : 		i = 0;

	mov	DWORD PTR _i$[ebp], 0
$LN11@EnableIcon:

; 136  : 
; 137  : 	// Load the sprite and add it to the list
; 138  : 	// the sprite must be listed in hud.txt
; 139  : 	int spr_index = gHUD.GetSpriteIndex( pszIconName );

	mov	eax, DWORD PTR _pszIconName$[ebp]
	push	eax
	mov	ecx, OFFSET ?gHUD@@3VCHud@@A		; gHUD
	call	?GetSpriteIndex@CHud@@QAEHPBD@Z		; CHud::GetSpriteIndex
	mov	DWORD PTR _spr_index$[ebp], eax

; 140  : 	m_IconList[i].spr = gHUD.GetSprite( spr_index );

	mov	eax, DWORD PTR _spr_index$[ebp]
	push	eax
	mov	ecx, OFFSET ?gHUD@@3VCHud@@A		; gHUD
	call	?GetSprite@CHud@@QAEHH@Z		; CHud::GetSprite
	imul	ecx, DWORD PTR _i$[ebp], 56
	mov	edx, DWORD PTR _this$[ebp]
	mov	DWORD PTR [edx+ecx+44], eax

; 141  : 	m_IconList[i].rc = gHUD.GetSpriteRect( spr_index );

	mov	eax, DWORD PTR _spr_index$[ebp]
	push	eax
	mov	ecx, OFFSET ?gHUD@@3VCHud@@A		; gHUD
	call	?GetSpriteRect@CHud@@QAEAAUwrect_s@@H@Z	; CHud::GetSpriteRect
	imul	ecx, DWORD PTR _i$[ebp], 56
	mov	edx, DWORD PTR _this$[ebp]
	lea	ecx, DWORD PTR [edx+ecx+48]
	mov	edx, DWORD PTR [eax]
	mov	DWORD PTR [ecx], edx
	mov	edx, DWORD PTR [eax+4]
	mov	DWORD PTR [ecx+4], edx
	mov	edx, DWORD PTR [eax+8]
	mov	DWORD PTR [ecx+8], edx
	mov	eax, DWORD PTR [eax+12]
	mov	DWORD PTR [ecx+12], eax

; 142  : 	m_IconList[i].r = red;

	imul	eax, DWORD PTR _i$[ebp], 56
	mov	ecx, DWORD PTR _this$[ebp]
	mov	dl, BYTE PTR _red$[ebp]
	mov	BYTE PTR [ecx+eax+64], dl

; 143  : 	m_IconList[i].g = green;

	imul	eax, DWORD PTR _i$[ebp], 56
	mov	ecx, DWORD PTR _this$[ebp]
	mov	dl, BYTE PTR _green$[ebp]
	mov	BYTE PTR [ecx+eax+65], dl

; 144  : 	m_IconList[i].b = blue;

	imul	eax, DWORD PTR _i$[ebp], 56
	mov	ecx, DWORD PTR _this$[ebp]
	mov	dl, BYTE PTR _blue$[ebp]
	mov	BYTE PTR [ecx+eax+66], dl

; 145  : 	Q_strcpy( m_IconList[i].szSpriteName, pszIconName );

	push	99999					; 0001869fH
	mov	eax, DWORD PTR _pszIconName$[ebp]
	push	eax
	imul	ecx, DWORD PTR _i$[ebp], 56
	mov	edx, DWORD PTR _this$[ebp]
	lea	eax, DWORD PTR [edx+ecx+12]
	push	eax
	call	?Q_strncpy@@YAIPADPBDI@Z		; Q_strncpy
	add	esp, 12					; 0000000cH

; 146  : }

	pop	edi
	pop	esi
	pop	ebx
	mov	esp, ebp
	pop	ebp
	ret	16					; 00000010H
?EnableIcon@CHudStatusIcons@@QAEXPADEEE@Z ENDP		; CHudStatusIcons::EnableIcon
_TEXT	ENDS
; Function compile flags: /Odtp /ZI
; File d:\!diffusion 2020\source code 2022\client-server\client\status_icons.cpp
;	COMDAT ?MsgFunc_StatusIcon@CHudStatusIcons@@QAEHPBDHPAX@Z
_TEXT	SEGMENT
_b$1 = -24						; size = 4
_g$2 = -20						; size = 4
_r$3 = -16						; size = 4
_pszIconName$ = -12					; size = 4
_ShouldEnable$ = -8					; size = 4
_this$ = -4						; size = 4
_pszName$ = 8						; size = 4
_iSize$ = 12						; size = 4
_pbuf$ = 16						; size = 4
?MsgFunc_StatusIcon@CHudStatusIcons@@QAEHPBDHPAX@Z PROC	; CHudStatusIcons::MsgFunc_StatusIcon, COMDAT
; _this$ = ecx

; 86   : {

	push	ebp
	mov	ebp, esp
	sub	esp, 88					; 00000058H
	push	ebx
	push	esi
	push	edi
	mov	DWORD PTR _this$[ebp], ecx

; 87   : 	BEGIN_READ( pszName, pbuf, iSize );

	mov	eax, DWORD PTR _iSize$[ebp]
	push	eax
	mov	ecx, DWORD PTR _pbuf$[ebp]
	push	ecx
	mov	edx, DWORD PTR _pszName$[ebp]
	push	edx
	call	?BEGIN_READ@@YAXPBDPAXH@Z		; BEGIN_READ
	add	esp, 12					; 0000000cH

; 88   : 
; 89   : 	int ShouldEnable = READ_BYTE();

	call	?READ_BYTE@@YAHXZ			; READ_BYTE
	mov	DWORD PTR _ShouldEnable$[ebp], eax

; 90   : 	char *pszIconName = READ_STRING();

	call	?READ_STRING@@YAPADXZ			; READ_STRING
	mov	DWORD PTR _pszIconName$[ebp], eax

; 91   : 
; 92   : 	if( ShouldEnable )

	cmp	DWORD PTR _ShouldEnable$[ebp], 0
	je	SHORT $LN2@MsgFunc_St

; 93   : 	{
; 94   : 		int r = READ_BYTE();

	call	?READ_BYTE@@YAHXZ			; READ_BYTE
	mov	DWORD PTR _r$3[ebp], eax

; 95   : 		int g = READ_BYTE();

	call	?READ_BYTE@@YAHXZ			; READ_BYTE
	mov	DWORD PTR _g$2[ebp], eax

; 96   : 		int b = READ_BYTE();

	call	?READ_BYTE@@YAHXZ			; READ_BYTE
	mov	DWORD PTR _b$1[ebp], eax

; 97   : 		IsAdditive = READ_BYTE();

	call	?READ_BYTE@@YAHXZ			; READ_BYTE
	mov	ecx, DWORD PTR _this$[ebp]
	mov	DWORD PTR [ecx+8], eax

; 98   : 
; 99   : 		EnableIcon( pszIconName, r, g, b );

	movzx	eax, BYTE PTR _b$1[ebp]
	push	eax
	movzx	ecx, BYTE PTR _g$2[ebp]
	push	ecx
	movzx	edx, BYTE PTR _r$3[ebp]
	push	edx
	mov	eax, DWORD PTR _pszIconName$[ebp]
	push	eax
	mov	ecx, DWORD PTR _this$[ebp]
	call	?EnableIcon@CHudStatusIcons@@QAEXPADEEE@Z ; CHudStatusIcons::EnableIcon

; 100  : 		m_iFlags |= HUD_ACTIVE;

	mov	eax, DWORD PTR _this$[ebp]
	mov	ecx, DWORD PTR [eax+4]
	or	ecx, 1
	mov	edx, DWORD PTR _this$[ebp]
	mov	DWORD PTR [edx+4], ecx

; 101  : 	}
; 102  : 	else

	jmp	SHORT $LN3@MsgFunc_St
$LN2@MsgFunc_St:

; 103  : 	{
; 104  : 		DisableIcon( pszIconName );

	mov	eax, DWORD PTR _pszIconName$[ebp]
	push	eax
	mov	ecx, DWORD PTR _this$[ebp]
	call	?DisableIcon@CHudStatusIcons@@QAEXPAD@Z	; CHudStatusIcons::DisableIcon
$LN3@MsgFunc_St:

; 105  : 	}
; 106  : 
; 107  : 	END_READ();

	call	?END_READ@@YAXXZ			; END_READ

; 108  : 
; 109  : 	return 1;

	mov	eax, 1

; 110  : }

	pop	edi
	pop	esi
	pop	ebx
	mov	esp, ebp
	pop	ebp
	ret	12					; 0000000cH
?MsgFunc_StatusIcon@CHudStatusIcons@@QAEHPBDHPAX@Z ENDP	; CHudStatusIcons::MsgFunc_StatusIcon
_TEXT	ENDS
; Function compile flags: /Odtp /ZI
; File d:\!diffusion 2020\source code 2022\client-server\client\status_icons.cpp
;	COMDAT ?Draw@CHudStatusIcons@@UAEHM@Z
_TEXT	SEGMENT
_i$1 = -16						; size = 4
_y$ = -12						; size = 4
_x$ = -8						; size = 4
_this$ = -4						; size = 4
_flTime$ = 8						; size = 4
?Draw@CHudStatusIcons@@UAEHM@Z PROC			; CHudStatusIcons::Draw, COMDAT
; _this$ = ecx

; 48   : {

	push	ebp
	mov	ebp, esp
	sub	esp, 80					; 00000050H
	push	ebx
	push	esi
	push	edi
	mov	DWORD PTR _this$[ebp], ecx

; 49   : 	if( gHUD.m_flTimeDelta == 0 ) // paused

	movsd	xmm0, QWORD PTR ?gHUD@@3VCHud@@A+40
	ucomisd	xmm0, QWORD PTR __real@0000000000000000
	lahf
	test	ah, 68					; 00000044H
	jp	SHORT $LN5@Draw

; 50   : 		return 0;

	xor	eax, eax
	jmp	$LN1@Draw
$LN5@Draw:

; 51   : 	
; 52   : 	// find starting position to draw from, along right-hand side of screen
; 53   : 	int x = 10; 

	mov	DWORD PTR _x$[ebp], 10			; 0000000aH

; 54   : 	//x = ScreenWidth / 2;
; 55   : 	int y = ScreenHeight / 2;

	mov	eax, DWORD PTR ?gHUD@@3VCHud@@A+8440
	cdq
	sub	eax, edx
	sar	eax, 1
	mov	DWORD PTR _y$[ebp], eax

; 56   : //	int y = ScreenHeight - (ScreenHeight / 8);
; 57   : 	
; 58   : 	// loop through icon list, and draw any valid icons drawing up from the middle of screen
; 59   : 	for( int i = 0; i < MAX_ICONSPRITES; i++ )

	mov	DWORD PTR _i$1[ebp], 0
	jmp	SHORT $LN4@Draw
$LN2@Draw:
	mov	eax, DWORD PTR _i$1[ebp]
	add	eax, 1
	mov	DWORD PTR _i$1[ebp], eax
$LN4@Draw:
	cmp	DWORD PTR _i$1[ebp], 8
	jge	$LN3@Draw

; 60   : 	{
; 61   : 		if( m_IconList[i].spr )

	imul	eax, DWORD PTR _i$1[ebp], 56
	mov	ecx, DWORD PTR _this$[ebp]
	cmp	DWORD PTR [ecx+eax+44], 0
	je	$LN8@Draw

; 62   : 		{
; 63   : 			y -= ( m_IconList[i].rc.bottom - m_IconList[i].rc.top ) + 5;

	imul	eax, DWORD PTR _i$1[ebp], 56
	imul	ecx, DWORD PTR _i$1[ebp], 56
	mov	edx, DWORD PTR _this$[ebp]
	mov	esi, DWORD PTR _this$[ebp]
	mov	eax, DWORD PTR [edx+eax+60]
	sub	eax, DWORD PTR [esi+ecx+56]
	add	eax, 5
	mov	ecx, DWORD PTR _y$[ebp]
	sub	ecx, eax
	mov	DWORD PTR _y$[ebp], ecx

; 64   : 			
; 65   : 			SPR_Set( m_IconList[i].spr, m_IconList[i].r, m_IconList[i].g, m_IconList[i].b );

	imul	eax, DWORD PTR _i$1[ebp], 56
	mov	ecx, DWORD PTR _this$[ebp]
	movzx	edx, BYTE PTR [ecx+eax+66]
	push	edx
	imul	eax, DWORD PTR _i$1[ebp], 56
	mov	ecx, DWORD PTR _this$[ebp]
	movzx	edx, BYTE PTR [ecx+eax+65]
	push	edx
	imul	eax, DWORD PTR _i$1[ebp], 56
	mov	ecx, DWORD PTR _this$[ebp]
	movzx	edx, BYTE PTR [ecx+eax+64]
	push	edx
	imul	eax, DWORD PTR _i$1[ebp], 56
	mov	ecx, DWORD PTR _this$[ebp]
	mov	edx, DWORD PTR [ecx+eax+44]
	push	edx
	call	DWORD PTR ?gEngfuncs@@3Ucl_enginefuncs_s@@A+16
	add	esp, 16					; 00000010H

; 66   : 
; 67   : 			if( IsAdditive == 1 )

	mov	eax, DWORD PTR _this$[ebp]
	cmp	DWORD PTR [eax+8], 1
	jne	SHORT $LN7@Draw

; 68   : 				SPR_DrawAdditive( 0, x, y, &m_IconList[i].rc );

	imul	eax, DWORD PTR _i$1[ebp], 56
	mov	ecx, DWORD PTR _this$[ebp]
	lea	edx, DWORD PTR [ecx+eax+48]
	push	edx
	mov	eax, DWORD PTR _y$[ebp]
	push	eax
	mov	ecx, DWORD PTR _x$[ebp]
	push	ecx
	push	0
	call	DWORD PTR ?gEngfuncs@@3Ucl_enginefuncs_s@@A+28
	add	esp, 16					; 00000010H

; 69   : 			else

	jmp	SHORT $LN8@Draw
$LN7@Draw:

; 70   : 				SPR_Draw( 0, x, y, &m_IconList[i].rc );

	imul	eax, DWORD PTR _i$1[ebp], 56
	mov	ecx, DWORD PTR _this$[ebp]
	lea	edx, DWORD PTR [ecx+eax+48]
	push	edx
	mov	eax, DWORD PTR _y$[ebp]
	push	eax
	mov	ecx, DWORD PTR _x$[ebp]
	push	ecx
	push	0
	call	DWORD PTR ?gEngfuncs@@3Ucl_enginefuncs_s@@A+20
	add	esp, 16					; 00000010H
$LN8@Draw:

; 71   : 
; 72   : 	//		gEngfuncs.Con_NPrintf( 1, "x %i y %i\n", x, y );
; 73   : 		}
; 74   : 	}

	jmp	$LN2@Draw
$LN3@Draw:

; 75   : 	return 1;

	mov	eax, 1
$LN1@Draw:

; 76   : }

	pop	edi
	pop	esi
	pop	ebx
	mov	esp, ebp
	pop	ebp
	ret	4
?Draw@CHudStatusIcons@@UAEHM@Z ENDP			; CHudStatusIcons::Draw
_TEXT	ENDS
; Function compile flags: /Odtp /ZI
; File d:\!diffusion 2020\source code 2022\client-server\client\status_icons.cpp
;	COMDAT ?Reset@CHudStatusIcons@@UAEXXZ
_TEXT	SEGMENT
_this$ = -4						; size = 4
?Reset@CHudStatusIcons@@UAEXXZ PROC			; CHudStatusIcons::Reset, COMDAT
; _this$ = ecx

; 41   : {

	push	ebp
	mov	ebp, esp
	sub	esp, 68					; 00000044H
	push	ebx
	push	esi
	push	edi
	mov	DWORD PTR _this$[ebp], ecx

; 42   : 	memset( m_IconList, 0, sizeof m_IconList );

	push	448					; 000001c0H
	push	0
	mov	eax, DWORD PTR _this$[ebp]
	add	eax, 12					; 0000000cH
	push	eax
	call	_memset
	add	esp, 12					; 0000000cH

; 43   : 	m_iFlags &= ~HUD_ACTIVE;

	mov	eax, DWORD PTR _this$[ebp]
	mov	ecx, DWORD PTR [eax+4]
	and	ecx, -2					; fffffffeH
	mov	edx, DWORD PTR _this$[ebp]
	mov	DWORD PTR [edx+4], ecx

; 44   : }

	pop	edi
	pop	esi
	pop	ebx
	mov	esp, ebp
	pop	ebp
	ret	0
?Reset@CHudStatusIcons@@UAEXXZ ENDP			; CHudStatusIcons::Reset
_TEXT	ENDS
; Function compile flags: /Odtp /ZI
; File d:\!diffusion 2020\source code 2022\client-server\client\status_icons.cpp
;	COMDAT ?VidInit@CHudStatusIcons@@UAEHXZ
_TEXT	SEGMENT
_this$ = -4						; size = 4
?VidInit@CHudStatusIcons@@UAEHXZ PROC			; CHudStatusIcons::VidInit, COMDAT
; _this$ = ecx

; 36   : {

	push	ebp
	mov	ebp, esp
	sub	esp, 68					; 00000044H
	push	ebx
	push	esi
	push	edi
	mov	DWORD PTR _this$[ebp], ecx

; 37   : 	return 1;

	mov	eax, 1

; 38   : }

	pop	edi
	pop	esi
	pop	ebx
	mov	esp, ebp
	pop	ebp
	ret	0
?VidInit@CHudStatusIcons@@UAEHXZ ENDP			; CHudStatusIcons::VidInit
_TEXT	ENDS
; Function compile flags: /Odtp /ZI
; File d:\!diffusion 2020\source code 2022\client-server\client\status_icons.cpp
;	COMDAT ?Init@CHudStatusIcons@@UAEHXZ
_TEXT	SEGMENT
_this$ = -4						; size = 4
?Init@CHudStatusIcons@@UAEHXZ PROC			; CHudStatusIcons::Init, COMDAT
; _this$ = ecx

; 25   : {

	push	ebp
	mov	ebp, esp
	sub	esp, 68					; 00000044H
	push	ebx
	push	esi
	push	edi
	mov	DWORD PTR _this$[ebp], ecx

; 26   : 	HOOK_MESSAGE( StatusIcon );

	push	OFFSET ?__MsgFunc_StatusIcon@@YAHPBDHPAX@Z ; __MsgFunc_StatusIcon
	push	OFFSET ??_C@_0L@BOOHPCFL@StatusIcon?$AA@
	call	DWORD PTR ?gEngfuncs@@3Ucl_enginefuncs_s@@A+72
	add	esp, 8

; 27   : 
; 28   : 	gHUD.AddHudElem( this );

	mov	eax, DWORD PTR _this$[ebp]
	push	eax
	mov	ecx, OFFSET ?gHUD@@3VCHud@@A		; gHUD
	call	?AddHudElem@CHud@@QAEXPAVCHudBase@@@Z	; CHud::AddHudElem

; 29   : 
; 30   : 	Reset();

	mov	eax, DWORD PTR _this$[ebp]
	mov	edx, DWORD PTR [eax]
	mov	ecx, DWORD PTR _this$[ebp]
	mov	eax, DWORD PTR [edx+20]
	call	eax

; 31   : 
; 32   : 	return 1;

	mov	eax, 1

; 33   : }

	pop	edi
	pop	esi
	pop	ebx
	mov	esp, ebp
	pop	ebp
	ret	0
?Init@CHudStatusIcons@@UAEHXZ ENDP			; CHudStatusIcons::Init
_TEXT	ENDS
; Function compile flags: /Odtp /ZI
;	COMDAT ??__G@YGXPAX0IIP6EPAX00@Z@Z
_TEXT	SEGMENT
tv66 = -68						; size = 4
___t$ = 8						; size = 4
___u$ = 12						; size = 4
___s$ = 16						; size = 4
___n$ = 20						; size = 4
___f$ = 24						; size = 4
??__G@YGXPAX0IIP6EPAX00@Z@Z PROC			; `vector copy constructor iterator', COMDAT
	push	ebp
	mov	ebp, esp
	sub	esp, 68					; 00000044H
	push	ebx
	push	esi
	push	edi
$LN2@vector:
	mov	eax, DWORD PTR ___n$[ebp]
	mov	DWORD PTR tv66[ebp], eax
	mov	ecx, DWORD PTR ___n$[ebp]
	sub	ecx, 1
	mov	DWORD PTR ___n$[ebp], ecx
	cmp	DWORD PTR tv66[ebp], 0
	jbe	SHORT $LN1@vector
	mov	eax, DWORD PTR ___u$[ebp]
	push	eax
	mov	ecx, DWORD PTR ___t$[ebp]
	call	DWORD PTR ___f$[ebp]
	mov	eax, DWORD PTR ___t$[ebp]
	add	eax, DWORD PTR ___s$[ebp]
	mov	DWORD PTR ___t$[ebp], eax
	mov	eax, DWORD PTR ___u$[ebp]
	add	eax, DWORD PTR ___s$[ebp]
	mov	DWORD PTR ___u$[ebp], eax
	jmp	SHORT $LN2@vector
$LN1@vector:
	pop	edi
	pop	esi
	pop	ebx
	mov	esp, ebp
	pop	ebp
	ret	20					; 00000014H
??__G@YGXPAX0IIP6EPAX00@Z@Z ENDP			; `vector copy constructor iterator'
_TEXT	ENDS
; Function compile flags: /Odtp /ZI
;	COMDAT ??_H@YGXPAXIIP6EPAX0@Z@Z
_TEXT	SEGMENT
tv66 = -68						; size = 4
___t$ = 8						; size = 4
___s$ = 12						; size = 4
___n$ = 16						; size = 4
___f$ = 20						; size = 4
??_H@YGXPAXIIP6EPAX0@Z@Z PROC				; `vector constructor iterator', COMDAT
	push	ebp
	mov	ebp, esp
	sub	esp, 68					; 00000044H
	push	ebx
	push	esi
	push	edi
$LN2@vector:
	mov	eax, DWORD PTR ___n$[ebp]
	mov	DWORD PTR tv66[ebp], eax
	mov	ecx, DWORD PTR ___n$[ebp]
	sub	ecx, 1
	mov	DWORD PTR ___n$[ebp], ecx
	cmp	DWORD PTR tv66[ebp], 0
	jbe	SHORT $LN1@vector
	mov	ecx, DWORD PTR ___t$[ebp]
	call	DWORD PTR ___f$[ebp]
	mov	eax, DWORD PTR ___t$[ebp]
	add	eax, DWORD PTR ___s$[ebp]
	mov	DWORD PTR ___t$[ebp], eax
	jmp	SHORT $LN2@vector
$LN1@vector:
	pop	edi
	pop	esi
	pop	ebx
	mov	esp, ebp
	pop	ebp
	ret	16					; 00000010H
??_H@YGXPAXIIP6EPAX0@Z@Z ENDP				; `vector constructor iterator'
_TEXT	ENDS
END
