; Listing generated by Microsoft (R) Optimizing Compiler Version 19.00.24247.2 

	TITLE	D:\!DIFFUSION 2020\source code 2022\client-server\client\status_tutor.cpp
	.686P
	.XMM
	include listing.inc
	.model	flat

INCLUDELIB LIBCMT
INCLUDELIB OLDNAMES

PUBLIC	??_H@YGXPAXIIP6EPAX0@Z@Z			; `vector constructor iterator'
PUBLIC	??__G@YGXPAX0IIP6EPAX00@Z@Z			; `vector copy constructor iterator'
PUBLIC	?PlaySoundA@@YAXPADM@Z				; PlaySoundA
PUBLIC	?Init@CHudTutorial@@UAEHXZ			; CHudTutorial::Init
PUBLIC	?VidInit@CHudTutorial@@UAEHXZ			; CHudTutorial::VidInit
PUBLIC	?Draw@CHudTutorial@@UAEHM@Z			; CHudTutorial::Draw
PUBLIC	?MsgFunc_StatusIconTutor@CHudTutorial@@QAEHPBDHPAX@Z ; CHudTutorial::MsgFunc_StatusIconTutor
PUBLIC	?EnableTutorial@CHudTutorial@@QAEXPAD@Z		; CHudTutorial::EnableTutorial
PUBLIC	?GetSprite@CHud@@QAEHH@Z			; CHud::GetSprite
PUBLIC	?GetSpriteRect@CHud@@QAEAAUwrect_s@@H@Z		; CHud::GetSpriteRect
PUBLIC	?__MsgFunc_StatusIconTutor@@YAHPBDHPAX@Z	; __MsgFunc_StatusIconTutor
PUBLIC	??_C@_0BA@HLCFMPA@StatusIconTutor?$AA@		; `string'
PUBLIC	??_C@_05KKCIMGE@error?$AA@			; `string'
PUBLIC	??_C@_0P@BHPALEMO@misc?1tutor?4wav?$AA@		; `string'
PUBLIC	__real@00000000
PUBLIC	__real@0000000000000000
PUBLIC	__real@3f800000
PUBLIC	__real@3fc3333333333333
PUBLIC	__real@41200000
PUBLIC	__real@43480000
PUBLIC	__real@44160000
PUBLIC	__real@c4160000
EXTRN	?Q_strncpy@@YAIPADPBDI@Z:PROC			; Q_strncpy
EXTRN	?GetSpriteIndex@CHud@@QAEHPBD@Z:PROC		; CHud::GetSpriteIndex
EXTRN	?AddHudElem@CHud@@QAEXPAVCHudBase@@@Z:PROC	; CHud::AddHudElem
EXTRN	?BEGIN_READ@@YAXPBDPAXH@Z:PROC			; BEGIN_READ
EXTRN	?END_READ@@YAXXZ:PROC				; END_READ
EXTRN	?READ_STRING@@YAPADXZ:PROC			; READ_STRING
EXTRN	?gEngfuncs@@3Ucl_enginefuncs_s@@A:BYTE		; gEngfuncs
EXTRN	?gHUD@@3VCHud@@A:BYTE				; gHUD
EXTRN	?g_fFrametime@@3MA:DWORD			; g_fFrametime
EXTRN	?cl_tutor@@3PAUcvar_s@@A:DWORD			; cl_tutor
EXTRN	__fltused:DWORD
;	COMDAT __real@c4160000
CONST	SEGMENT
__real@c4160000 DD 0c4160000r			; -600
CONST	ENDS
;	COMDAT __real@44160000
CONST	SEGMENT
__real@44160000 DD 044160000r			; 600
CONST	ENDS
;	COMDAT __real@43480000
CONST	SEGMENT
__real@43480000 DD 043480000r			; 200
CONST	ENDS
;	COMDAT __real@41200000
CONST	SEGMENT
__real@41200000 DD 041200000r			; 10
CONST	ENDS
;	COMDAT __real@3fc3333333333333
CONST	SEGMENT
__real@3fc3333333333333 DQ 03fc3333333333333r	; 0.15
CONST	ENDS
;	COMDAT __real@3f800000
CONST	SEGMENT
__real@3f800000 DD 03f800000r			; 1
CONST	ENDS
;	COMDAT __real@0000000000000000
CONST	SEGMENT
__real@0000000000000000 DQ 00000000000000000r	; 0
CONST	ENDS
;	COMDAT __real@00000000
CONST	SEGMENT
__real@00000000 DD 000000000r			; 0
CONST	ENDS
;	COMDAT ??_C@_0P@BHPALEMO@misc?1tutor?4wav?$AA@
CONST	SEGMENT
??_C@_0P@BHPALEMO@misc?1tutor?4wav?$AA@ DB 'misc/tutor.wav', 00H ; `string'
CONST	ENDS
;	COMDAT ??_C@_05KKCIMGE@error?$AA@
CONST	SEGMENT
??_C@_05KKCIMGE@error?$AA@ DB 'error', 00H		; `string'
CONST	ENDS
;	COMDAT ??_C@_0BA@HLCFMPA@StatusIconTutor?$AA@
CONST	SEGMENT
??_C@_0BA@HLCFMPA@StatusIconTutor?$AA@ DB 'StatusIconTutor', 00H ; `string'
CONST	ENDS
; Function compile flags: /Odtp /ZI
; File d:\!diffusion 2020\source code 2022\client-server\client\status_tutor.cpp
;	COMDAT ?__MsgFunc_StatusIconTutor@@YAHPBDHPAX@Z
_TEXT	SEGMENT
_pszName$ = 8						; size = 4
_iSize$ = 12						; size = 4
_pbuf$ = 16						; size = 4
?__MsgFunc_StatusIconTutor@@YAHPBDHPAX@Z PROC		; __MsgFunc_StatusIconTutor, COMDAT

; 6    : DECLARE_MESSAGE( m_StatusIconsTutor, StatusIconTutor );

	push	ebp
	mov	ebp, esp
	sub	esp, 64					; 00000040H
	push	ebx
	push	esi
	push	edi
	mov	eax, DWORD PTR _pbuf$[ebp]
	push	eax
	mov	ecx, DWORD PTR _iSize$[ebp]
	push	ecx
	mov	edx, DWORD PTR _pszName$[ebp]
	push	edx
	mov	ecx, OFFSET ?gHUD@@3VCHud@@A+1924
	call	?MsgFunc_StatusIconTutor@CHudTutorial@@QAEHPBDHPAX@Z ; CHudTutorial::MsgFunc_StatusIconTutor
	pop	edi
	pop	esi
	pop	ebx
	mov	esp, ebp
	pop	ebp
	ret	0
?__MsgFunc_StatusIconTutor@@YAHPBDHPAX@Z ENDP		; __MsgFunc_StatusIconTutor
_TEXT	ENDS
; Function compile flags: /Odtp /ZI
; File d:\!diffusion 2020\source code 2022\client-server\client\hud.h
;	COMDAT ?GetSpriteRect@CHud@@QAEAAUwrect_s@@H@Z
_TEXT	SEGMENT
_this$ = -4						; size = 4
_index$ = 8						; size = 4
?GetSpriteRect@CHud@@QAEAAUwrect_s@@H@Z PROC		; CHud::GetSpriteRect, COMDAT
; _this$ = ecx

; 952  : 	wrect_t& GetSpriteRect( int index ) { return m_rgrcRects[index]; }

	push	ebp
	mov	ebp, esp
	sub	esp, 68					; 00000044H
	push	ebx
	push	esi
	push	edi
	mov	DWORD PTR _this$[ebp], ecx
	mov	eax, DWORD PTR _index$[ebp]
	shl	eax, 4
	mov	ecx, DWORD PTR _this$[ebp]
	add	eax, DWORD PTR [ecx+232]
	pop	edi
	pop	esi
	pop	ebx
	mov	esp, ebp
	pop	ebp
	ret	4
?GetSpriteRect@CHud@@QAEAAUwrect_s@@H@Z ENDP		; CHud::GetSpriteRect
_TEXT	ENDS
; Function compile flags: /Odtp /ZI
; File d:\!diffusion 2020\source code 2022\client-server\client\hud.h
;	COMDAT ?GetSprite@CHud@@QAEHH@Z
_TEXT	SEGMENT
tv68 = -72						; size = 4
_this$ = -4						; size = 4
_index$ = 8						; size = 4
?GetSprite@CHud@@QAEHH@Z PROC				; CHud::GetSprite, COMDAT
; _this$ = ecx

; 951  : 	SpriteHandle GetSprite( int index ) { return (index < 0) ? 0 : m_rghSprites[index]; }

	push	ebp
	mov	ebp, esp
	sub	esp, 72					; 00000048H
	push	ebx
	push	esi
	push	edi
	mov	DWORD PTR _this$[ebp], ecx
	cmp	DWORD PTR _index$[ebp], 0
	jge	SHORT $LN3@GetSprite
	mov	DWORD PTR tv68[ebp], 0
	jmp	SHORT $LN4@GetSprite
$LN3@GetSprite:
	mov	eax, DWORD PTR _this$[ebp]
	mov	ecx, DWORD PTR [eax+228]
	mov	edx, DWORD PTR _index$[ebp]
	mov	eax, DWORD PTR [ecx+edx*4]
	mov	DWORD PTR tv68[ebp], eax
$LN4@GetSprite:
	mov	eax, DWORD PTR tv68[ebp]
	pop	edi
	pop	esi
	pop	ebx
	mov	esp, ebp
	pop	ebp
	ret	4
?GetSprite@CHud@@QAEHH@Z ENDP				; CHud::GetSprite
_TEXT	ENDS
; Function compile flags: /Odtp /ZI
; File d:\!diffusion 2020\source code 2022\client-server\client\status_tutor.cpp
;	COMDAT ?EnableTutorial@CHudTutorial@@QAEXPAD@Z
_TEXT	SEGMENT
_spr_index$ = -8					; size = 4
_this$ = -4						; size = 4
_pszIconName$ = 8					; size = 4
?EnableTutorial@CHudTutorial@@QAEXPAD@Z PROC		; CHudTutorial::EnableTutorial, COMDAT
; _this$ = ecx

; 36   : {

	push	ebp
	mov	ebp, esp
	sub	esp, 72					; 00000048H
	push	ebx
	push	esi
	push	edi
	mov	DWORD PTR _this$[ebp], ecx

; 37   : //	if( IsTutorDrawing ) // don't override currently showing tutor
; 38   : //		return;
; 39   : 
; 40   : 	if( !cl_tutor->value )

	mov	eax, DWORD PTR ?cl_tutor@@3PAUcvar_s@@A	; cl_tutor
	movss	xmm0, DWORD PTR [eax+12]
	ucomiss	xmm0, DWORD PTR __real@00000000
	lahf
	test	ah, 68					; 00000044H
	jp	SHORT $LN2@EnableTuto

; 41   : 		return;

	jmp	$LN1@EnableTuto
$LN2@EnableTuto:

; 42   : 
; 43   : 	// the sprite must be listed in hud.txt
; 44   : 	int spr_index;
; 45   : 	spr_index = gHUD.GetSpriteIndex( pszIconName );

	mov	eax, DWORD PTR _pszIconName$[ebp]
	push	eax
	mov	ecx, OFFSET ?gHUD@@3VCHud@@A		; gHUD
	call	?GetSpriteIndex@CHud@@QAEHPBD@Z		; CHud::GetSpriteIndex
	mov	DWORD PTR _spr_index$[ebp], eax

; 46   : 	m_TutorSpr.spr = gHUD.GetSprite( spr_index );

	mov	eax, DWORD PTR _spr_index$[ebp]
	push	eax
	mov	ecx, OFFSET ?gHUD@@3VCHud@@A		; gHUD
	call	?GetSprite@CHud@@QAEHH@Z		; CHud::GetSprite
	mov	ecx, DWORD PTR _this$[ebp]
	mov	DWORD PTR [ecx+56], eax

; 47   : 	if( !m_TutorSpr.spr )

	mov	eax, DWORD PTR _this$[ebp]
	cmp	DWORD PTR [eax+56], 0
	jne	SHORT $LN3@EnableTuto

; 48   : 	{
; 49   : 		spr_index = gHUD.GetSpriteIndex( "error" );

	push	OFFSET ??_C@_05KKCIMGE@error?$AA@
	mov	ecx, OFFSET ?gHUD@@3VCHud@@A		; gHUD
	call	?GetSpriteIndex@CHud@@QAEHPBD@Z		; CHud::GetSpriteIndex
	mov	DWORD PTR _spr_index$[ebp], eax

; 50   : 		m_TutorSpr.spr = gHUD.GetSprite( spr_index );

	mov	eax, DWORD PTR _spr_index$[ebp]
	push	eax
	mov	ecx, OFFSET ?gHUD@@3VCHud@@A		; gHUD
	call	?GetSprite@CHud@@QAEHH@Z		; CHud::GetSprite
	mov	ecx, DWORD PTR _this$[ebp]
	mov	DWORD PTR [ecx+56], eax
$LN3@EnableTuto:

; 51   : 	}
; 52   : 	m_TutorSpr.rc = gHUD.GetSpriteRect( spr_index );

	mov	eax, DWORD PTR _spr_index$[ebp]
	push	eax
	mov	ecx, OFFSET ?gHUD@@3VCHud@@A		; gHUD
	call	?GetSpriteRect@CHud@@QAEAAUwrect_s@@H@Z	; CHud::GetSpriteRect
	mov	ecx, DWORD PTR _this$[ebp]
	add	ecx, 60					; 0000003cH
	mov	edx, DWORD PTR [eax]
	mov	DWORD PTR [ecx], edx
	mov	edx, DWORD PTR [eax+4]
	mov	DWORD PTR [ecx+4], edx
	mov	edx, DWORD PTR [eax+8]
	mov	DWORD PTR [ecx+8], edx
	mov	eax, DWORD PTR [eax+12]
	mov	DWORD PTR [ecx+12], eax

; 53   : 	m_TutorSpr.r = m_TutorSpr.g = m_TutorSpr.b = 255;

	mov	eax, DWORD PTR _this$[ebp]
	mov	BYTE PTR [eax+78], 255			; 000000ffH
	mov	ecx, DWORD PTR _this$[ebp]
	mov	BYTE PTR [ecx+77], 255			; 000000ffH
	mov	edx, DWORD PTR _this$[ebp]
	mov	BYTE PTR [edx+76], 255			; 000000ffH

; 54   : 	Q_strcpy( m_TutorSpr.szSpriteName, pszIconName );

	push	99999					; 0001869fH
	mov	eax, DWORD PTR _pszIconName$[ebp]
	push	eax
	mov	ecx, DWORD PTR _this$[ebp]
	add	ecx, 24					; 00000018H
	push	ecx
	call	?Q_strncpy@@YAIPADPBDI@Z		; Q_strncpy
	add	esp, 12					; 0000000cH

; 55   : 
; 56   : 	TutorStartTime = gHUD.m_flTime;

	mov	eax, DWORD PTR _this$[ebp]
	movss	xmm0, DWORD PTR ?gHUD@@3VCHud@@A+32
	movss	DWORD PTR [eax+16], xmm0

; 57   : 	IsTutorDrawing = true;

	mov	eax, DWORD PTR _this$[ebp]
	mov	BYTE PTR [eax+20], 1

; 58   : 	x_direction = false;

	mov	eax, DWORD PTR _this$[ebp]
	mov	BYTE PTR [eax+21], 0

; 59   : 	x = -600; // HACKHACK starting position

	mov	eax, DWORD PTR _this$[ebp]
	movss	xmm0, DWORD PTR __real@c4160000
	movss	DWORD PTR [eax+8], xmm0

; 60   : 
; 61   : 	PlaySound( "misc/tutor.wav", 1.0 );

	push	ecx
	movss	xmm0, DWORD PTR __real@3f800000
	movss	DWORD PTR [esp], xmm0
	push	OFFSET ??_C@_0P@BHPALEMO@misc?1tutor?4wav?$AA@
	call	?PlaySoundA@@YAXPADM@Z			; PlaySoundA
	add	esp, 8

; 62   : 
; 63   : 	m_iFlags |= HUD_ACTIVE;

	mov	eax, DWORD PTR _this$[ebp]
	mov	ecx, DWORD PTR [eax+4]
	or	ecx, 1
	mov	edx, DWORD PTR _this$[ebp]
	mov	DWORD PTR [edx+4], ecx
$LN1@EnableTuto:

; 64   : }

	pop	edi
	pop	esi
	pop	ebx
	mov	esp, ebp
	pop	ebp
	ret	4
?EnableTutorial@CHudTutorial@@QAEXPAD@Z ENDP		; CHudTutorial::EnableTutorial
_TEXT	ENDS
; Function compile flags: /Odtp /ZI
; File d:\!diffusion 2020\source code 2022\client-server\client\status_tutor.cpp
;	COMDAT ?MsgFunc_StatusIconTutor@CHudTutorial@@QAEHPBDHPAX@Z
_TEXT	SEGMENT
_pszIconName$ = -8					; size = 4
_this$ = -4						; size = 4
_pszName$ = 8						; size = 4
_iSize$ = 12						; size = 4
_pbuf$ = 16						; size = 4
?MsgFunc_StatusIconTutor@CHudTutorial@@QAEHPBDHPAX@Z PROC ; CHudTutorial::MsgFunc_StatusIconTutor, COMDAT
; _this$ = ecx

; 25   : {

	push	ebp
	mov	ebp, esp
	sub	esp, 72					; 00000048H
	push	ebx
	push	esi
	push	edi
	mov	DWORD PTR _this$[ebp], ecx

; 26   : 	BEGIN_READ( pszName, pbuf, iSize );

	mov	eax, DWORD PTR _iSize$[ebp]
	push	eax
	mov	ecx, DWORD PTR _pbuf$[ebp]
	push	ecx
	mov	edx, DWORD PTR _pszName$[ebp]
	push	edx
	call	?BEGIN_READ@@YAXPBDPAXH@Z		; BEGIN_READ
	add	esp, 12					; 0000000cH

; 27   : 	char *pszIconName = READ_STRING();

	call	?READ_STRING@@YAPADXZ			; READ_STRING
	mov	DWORD PTR _pszIconName$[ebp], eax

; 28   : 	END_READ();

	call	?END_READ@@YAXXZ			; END_READ

; 29   : 
; 30   : 	EnableTutorial( pszIconName );

	mov	eax, DWORD PTR _pszIconName$[ebp]
	push	eax
	mov	ecx, DWORD PTR _this$[ebp]
	call	?EnableTutorial@CHudTutorial@@QAEXPAD@Z	; CHudTutorial::EnableTutorial

; 31   : 
; 32   : 	return 1;

	mov	eax, 1

; 33   : }

	pop	edi
	pop	esi
	pop	ebx
	mov	esp, ebp
	pop	ebp
	ret	12					; 0000000cH
?MsgFunc_StatusIconTutor@CHudTutorial@@QAEHPBDHPAX@Z ENDP ; CHudTutorial::MsgFunc_StatusIconTutor
_TEXT	ENDS
; Function compile flags: /Odtp /ZI
; File d:\!diffusion 2020\source code 2022\client-server\client\status_tutor.cpp
;	COMDAT ?Draw@CHudTutorial@@UAEHM@Z
_TEXT	SEGMENT
_this$ = -4						; size = 4
_flTime$ = 8						; size = 4
?Draw@CHudTutorial@@UAEHM@Z PROC			; CHudTutorial::Draw, COMDAT
; _this$ = ecx

; 67   : {

	push	ebp
	mov	ebp, esp
	sub	esp, 68					; 00000044H
	push	ebx
	push	esi
	push	edi
	mov	DWORD PTR _this$[ebp], ecx

; 68   : 	if( gHUD.m_flTimeDelta == 0 ) // paused

	movsd	xmm0, QWORD PTR ?gHUD@@3VCHud@@A+40
	ucomisd	xmm0, QWORD PTR __real@0000000000000000
	lahf
	test	ah, 68					; 00000044H
	jp	SHORT $LN2@Draw

; 69   : 		return 0;

	xor	eax, eax
	jmp	$LN1@Draw
$LN2@Draw:

; 70   : 
; 71   : 	if( !IsTutorDrawing )

	mov	eax, DWORD PTR _this$[ebp]
	movzx	ecx, BYTE PTR [eax+20]
	test	ecx, ecx
	jne	SHORT $LN3@Draw

; 72   : 		return 0;

	xor	eax, eax
	jmp	$LN1@Draw
$LN3@Draw:

; 73   : 
; 74   : //	if( gHUD.m_flTime > TutorStartTime + 1 )
; 75   : //	{
; 76   : //		if( gHUD.m_iKeyBits & IN_USE )
; 77   : //			x_direction = true; // let's hide the tutor
; 78   : //	}
; 79   : 
; 80   : 	// set the coordinates
; 81   : 	y = ScreenHeight * 0.15;

	cvtsi2sd xmm0, DWORD PTR ?gHUD@@3VCHud@@A+8440
	mulsd	xmm0, QWORD PTR __real@3fc3333333333333
	cvtsd2ss xmm0, xmm0
	mov	eax, DWORD PTR _this$[ebp]
	movss	DWORD PTR [eax+12], xmm0

; 82   : 
; 83   : 	if( !x_direction ) // tutor is now showing

	mov	eax, DWORD PTR _this$[ebp]
	movzx	ecx, BYTE PTR [eax+21]
	test	ecx, ecx
	jne	SHORT $LN4@Draw

; 84   : 	{
; 85   : 		if( x < 10 ) x += 600 * g_fFrametime;

	mov	eax, DWORD PTR _this$[ebp]
	movss	xmm0, DWORD PTR __real@41200000
	comiss	xmm0, DWORD PTR [eax+8]
	jbe	SHORT $LN6@Draw
	movss	xmm0, DWORD PTR __real@44160000
	mulss	xmm0, DWORD PTR ?g_fFrametime@@3MA
	mov	eax, DWORD PTR _this$[ebp]
	addss	xmm0, DWORD PTR [eax+8]
	mov	ecx, DWORD PTR _this$[ebp]
	movss	DWORD PTR [ecx+8], xmm0
$LN6@Draw:

; 86   : 
; 87   : 		if( x > 10 ) x = 10;

	mov	eax, DWORD PTR _this$[ebp]
	movss	xmm0, DWORD PTR [eax+8]
	comiss	xmm0, DWORD PTR __real@41200000
	jbe	SHORT $LN7@Draw
	mov	eax, DWORD PTR _this$[ebp]
	movss	xmm0, DWORD PTR __real@41200000
	movss	DWORD PTR [eax+8], xmm0
$LN7@Draw:

; 88   : 	}
; 89   : 	else // tutor is hiding

	jmp	SHORT $LN8@Draw
$LN4@Draw:

; 90   : 	{
; 91   : 		x -= 200 * g_fFrametime;

	movss	xmm0, DWORD PTR __real@43480000
	mulss	xmm0, DWORD PTR ?g_fFrametime@@3MA
	mov	eax, DWORD PTR _this$[ebp]
	movss	xmm1, DWORD PTR [eax+8]
	subss	xmm1, xmm0
	mov	ecx, DWORD PTR _this$[ebp]
	movss	DWORD PTR [ecx+8], xmm1

; 92   : 
; 93   : 		// fully hidden, finish up
; 94   : 		if( x < -600 )

	mov	eax, DWORD PTR _this$[ebp]
	movss	xmm0, DWORD PTR __real@c4160000
	comiss	xmm0, DWORD PTR [eax+8]
	jbe	SHORT $LN8@Draw

; 95   : 		{
; 96   : 			IsTutorDrawing = false;

	mov	eax, DWORD PTR _this$[ebp]
	mov	BYTE PTR [eax+20], 0

; 97   : 			m_iFlags &= ~HUD_ACTIVE;

	mov	eax, DWORD PTR _this$[ebp]
	mov	ecx, DWORD PTR [eax+4]
	and	ecx, -2					; fffffffeH
	mov	edx, DWORD PTR _this$[ebp]
	mov	DWORD PTR [edx+4], ecx

; 98   : 			TutorStartTime = 0;

	mov	eax, DWORD PTR _this$[ebp]
	xorps	xmm0, xmm0
	movss	DWORD PTR [eax+16], xmm0

; 99   : 			return 0;

	xor	eax, eax
	jmp	SHORT $LN1@Draw
$LN8@Draw:

; 100  : 		}
; 101  : 	}
; 102  : 
; 103  : 	if( m_TutorSpr.spr )

	mov	eax, DWORD PTR _this$[ebp]
	cmp	DWORD PTR [eax+56], 0
	je	SHORT $LN9@Draw

; 104  : 	{
; 105  : 		SPR_Set( m_TutorSpr.spr, m_TutorSpr.r, m_TutorSpr.g, m_TutorSpr.b );

	mov	eax, DWORD PTR _this$[ebp]
	movzx	ecx, BYTE PTR [eax+78]
	push	ecx
	mov	edx, DWORD PTR _this$[ebp]
	movzx	eax, BYTE PTR [edx+77]
	push	eax
	mov	ecx, DWORD PTR _this$[ebp]
	movzx	edx, BYTE PTR [ecx+76]
	push	edx
	mov	eax, DWORD PTR _this$[ebp]
	mov	ecx, DWORD PTR [eax+56]
	push	ecx
	call	DWORD PTR ?gEngfuncs@@3Ucl_enginefuncs_s@@A+16
	add	esp, 16					; 00000010H

; 106  : 		SPR_Draw( 0, x, y, &m_TutorSpr.rc );

	mov	eax, DWORD PTR _this$[ebp]
	add	eax, 60					; 0000003cH
	push	eax
	mov	ecx, DWORD PTR _this$[ebp]
	cvttss2si edx, DWORD PTR [ecx+12]
	push	edx
	mov	eax, DWORD PTR _this$[ebp]
	cvttss2si ecx, DWORD PTR [eax+8]
	push	ecx
	push	0
	call	DWORD PTR ?gEngfuncs@@3Ucl_enginefuncs_s@@A+20
	add	esp, 16					; 00000010H
$LN9@Draw:

; 107  : 	}
; 108  : 	
; 109  : 	return 1;

	mov	eax, 1
$LN1@Draw:

; 110  : }

	pop	edi
	pop	esi
	pop	ebx
	mov	esp, ebp
	pop	ebp
	ret	4
?Draw@CHudTutorial@@UAEHM@Z ENDP			; CHudTutorial::Draw
_TEXT	ENDS
; Function compile flags: /Odtp /ZI
; File d:\!diffusion 2020\source code 2022\client-server\client\status_tutor.cpp
;	COMDAT ?VidInit@CHudTutorial@@UAEHXZ
_TEXT	SEGMENT
_this$ = -4						; size = 4
?VidInit@CHudTutorial@@UAEHXZ PROC			; CHudTutorial::VidInit, COMDAT
; _this$ = ecx

; 17   : {

	push	ebp
	mov	ebp, esp
	sub	esp, 68					; 00000044H
	push	ebx
	push	esi
	push	edi
	mov	DWORD PTR _this$[ebp], ecx

; 18   : 	IsTutorDrawing = false;

	mov	eax, DWORD PTR _this$[ebp]
	mov	BYTE PTR [eax+20], 0

; 19   : 	TutorStartTime = 0;

	mov	eax, DWORD PTR _this$[ebp]
	xorps	xmm0, xmm0
	movss	DWORD PTR [eax+16], xmm0

; 20   : 	x_direction = false;

	mov	eax, DWORD PTR _this$[ebp]
	mov	BYTE PTR [eax+21], 0

; 21   : 	return 1;

	mov	eax, 1

; 22   : }

	pop	edi
	pop	esi
	pop	ebx
	mov	esp, ebp
	pop	ebp
	ret	0
?VidInit@CHudTutorial@@UAEHXZ ENDP			; CHudTutorial::VidInit
_TEXT	ENDS
; Function compile flags: /Odtp /ZI
; File d:\!diffusion 2020\source code 2022\client-server\client\status_tutor.cpp
;	COMDAT ?Init@CHudTutorial@@UAEHXZ
_TEXT	SEGMENT
_this$ = -4						; size = 4
?Init@CHudTutorial@@UAEHXZ PROC				; CHudTutorial::Init, COMDAT
; _this$ = ecx

; 9    : {

	push	ebp
	mov	ebp, esp
	sub	esp, 68					; 00000044H
	push	ebx
	push	esi
	push	edi
	mov	DWORD PTR _this$[ebp], ecx

; 10   : 	HOOK_MESSAGE( StatusIconTutor );

	push	OFFSET ?__MsgFunc_StatusIconTutor@@YAHPBDHPAX@Z ; __MsgFunc_StatusIconTutor
	push	OFFSET ??_C@_0BA@HLCFMPA@StatusIconTutor?$AA@
	call	DWORD PTR ?gEngfuncs@@3Ucl_enginefuncs_s@@A+72
	add	esp, 8

; 11   : 	gHUD.AddHudElem( this );

	mov	eax, DWORD PTR _this$[ebp]
	push	eax
	mov	ecx, OFFSET ?gHUD@@3VCHud@@A		; gHUD
	call	?AddHudElem@CHud@@QAEXPAVCHudBase@@@Z	; CHud::AddHudElem

; 12   : 	m_iFlags &= ~HUD_ACTIVE;

	mov	eax, DWORD PTR _this$[ebp]
	mov	ecx, DWORD PTR [eax+4]
	and	ecx, -2					; fffffffeH
	mov	edx, DWORD PTR _this$[ebp]
	mov	DWORD PTR [edx+4], ecx

; 13   : 	return 1;

	mov	eax, 1

; 14   : }

	pop	edi
	pop	esi
	pop	ebx
	mov	esp, ebp
	pop	ebp
	ret	0
?Init@CHudTutorial@@UAEHXZ ENDP				; CHudTutorial::Init
_TEXT	ENDS
; Function compile flags: /Odtp /ZI
; File d:\!diffusion 2020\source code 2022\client-server\client\enginecallback.h
;	COMDAT ?PlaySoundA@@YAXPADM@Z
_TEXT	SEGMENT
_szSound$ = 8						; size = 4
_vol$ = 12						; size = 4
?PlaySoundA@@YAXPADM@Z PROC				; PlaySoundA, COMDAT

; 75   : inline void PlaySound( char *szSound, float vol ) { gEngfuncs.pfnPlaySoundByName( szSound, vol ); }

	push	ebp
	mov	ebp, esp
	sub	esp, 64					; 00000040H
	push	ebx
	push	esi
	push	edi
	push	ecx
	movss	xmm0, DWORD PTR _vol$[ebp]
	movss	DWORD PTR [esp], xmm0
	mov	eax, DWORD PTR _szSound$[ebp]
	push	eax
	call	DWORD PTR ?gEngfuncs@@3Ucl_enginefuncs_s@@A+88
	add	esp, 8
	pop	edi
	pop	esi
	pop	ebx
	mov	esp, ebp
	pop	ebp
	ret	0
?PlaySoundA@@YAXPADM@Z ENDP				; PlaySoundA
_TEXT	ENDS
; Function compile flags: /Odtp /ZI
;	COMDAT ??__G@YGXPAX0IIP6EPAX00@Z@Z
_TEXT	SEGMENT
tv66 = -68						; size = 4
___t$ = 8						; size = 4
___u$ = 12						; size = 4
___s$ = 16						; size = 4
___n$ = 20						; size = 4
___f$ = 24						; size = 4
??__G@YGXPAX0IIP6EPAX00@Z@Z PROC			; `vector copy constructor iterator', COMDAT
	push	ebp
	mov	ebp, esp
	sub	esp, 68					; 00000044H
	push	ebx
	push	esi
	push	edi
$LN2@vector:
	mov	eax, DWORD PTR ___n$[ebp]
	mov	DWORD PTR tv66[ebp], eax
	mov	ecx, DWORD PTR ___n$[ebp]
	sub	ecx, 1
	mov	DWORD PTR ___n$[ebp], ecx
	cmp	DWORD PTR tv66[ebp], 0
	jbe	SHORT $LN1@vector
	mov	eax, DWORD PTR ___u$[ebp]
	push	eax
	mov	ecx, DWORD PTR ___t$[ebp]
	call	DWORD PTR ___f$[ebp]
	mov	eax, DWORD PTR ___t$[ebp]
	add	eax, DWORD PTR ___s$[ebp]
	mov	DWORD PTR ___t$[ebp], eax
	mov	eax, DWORD PTR ___u$[ebp]
	add	eax, DWORD PTR ___s$[ebp]
	mov	DWORD PTR ___u$[ebp], eax
	jmp	SHORT $LN2@vector
$LN1@vector:
	pop	edi
	pop	esi
	pop	ebx
	mov	esp, ebp
	pop	ebp
	ret	20					; 00000014H
??__G@YGXPAX0IIP6EPAX00@Z@Z ENDP			; `vector copy constructor iterator'
_TEXT	ENDS
; Function compile flags: /Odtp /ZI
;	COMDAT ??_H@YGXPAXIIP6EPAX0@Z@Z
_TEXT	SEGMENT
tv66 = -68						; size = 4
___t$ = 8						; size = 4
___s$ = 12						; size = 4
___n$ = 16						; size = 4
___f$ = 20						; size = 4
??_H@YGXPAXIIP6EPAX0@Z@Z PROC				; `vector constructor iterator', COMDAT
	push	ebp
	mov	ebp, esp
	sub	esp, 68					; 00000044H
	push	ebx
	push	esi
	push	edi
$LN2@vector:
	mov	eax, DWORD PTR ___n$[ebp]
	mov	DWORD PTR tv66[ebp], eax
	mov	ecx, DWORD PTR ___n$[ebp]
	sub	ecx, 1
	mov	DWORD PTR ___n$[ebp], ecx
	cmp	DWORD PTR tv66[ebp], 0
	jbe	SHORT $LN1@vector
	mov	ecx, DWORD PTR ___t$[ebp]
	call	DWORD PTR ___f$[ebp]
	mov	eax, DWORD PTR ___t$[ebp]
	add	eax, DWORD PTR ___s$[ebp]
	mov	DWORD PTR ___t$[ebp], eax
	jmp	SHORT $LN2@vector
$LN1@vector:
	pop	edi
	pop	esi
	pop	ebx
	mov	esp, ebp
	pop	ebp
	ret	16					; 00000010H
??_H@YGXPAXIIP6EPAX0@Z@Z ENDP				; `vector constructor iterator'
_TEXT	ENDS
END
