; Listing generated by Microsoft (R) Optimizing Compiler Version 19.00.24247.2 

	TITLE	D:\!DIFFUSION 2020\source code 2022\client-server\client\statusbar.cpp
	.686P
	.XMM
	include listing.inc
	.model	flat

INCLUDELIB LIBCMT
INCLUDELIB OLDNAMES

PUBLIC	??_H@YGXPAXIIP6EPAX0@Z@Z			; `vector constructor iterator'
PUBLIC	??__G@YGXPAX0IIP6EPAX00@Z@Z			; `vector copy constructor iterator'
PUBLIC	?Init@CHudStatusBar@@UAEHXZ			; CHudStatusBar::Init
PUBLIC	?VidInit@CHudStatusBar@@UAEHXZ			; CHudStatusBar::VidInit
PUBLIC	?Draw@CHudStatusBar@@UAEHM@Z			; CHudStatusBar::Draw
PUBLIC	?Reset@CHudStatusBar@@UAEXXZ			; CHudStatusBar::Reset
PUBLIC	?ParseStatusString@CHudStatusBar@@QAEXH@Z	; CHudStatusBar::ParseStatusString
PUBLIC	?MsgFunc_StatusText@CHudStatusBar@@QAEHPBDHPAX@Z ; CHudStatusBar::MsgFunc_StatusText
PUBLIC	?MsgFunc_StatusValue@CHudStatusBar@@QAEHPBDHPAX@Z ; CHudStatusBar::MsgFunc_StatusValue
PUBLIC	?__MsgFunc_StatusText@@YAHPBDHPAX@Z		; __MsgFunc_StatusText
PUBLIC	?__MsgFunc_StatusValue@@YAHPBDHPAX@Z		; __MsgFunc_StatusValue
PUBLIC	??_C@_0L@KLILBJK@StatusText?$AA@		; `string'
PUBLIC	??_C@_0M@GOKLPADN@StatusValue?$AA@		; `string'
PUBLIC	??_C@_01GBGANLPD@0?$AA@				; `string'
PUBLIC	??_C@_0N@NACMNLCC@hud_centerid?$AA@		; `string'
PUBLIC	??_C@_06LBCGBHOC@?$CK?$CK?$CK?$CK?$CK?$CK?$AA@	; `string'
PUBLIC	??_C@_02DPKJAMEF@?$CFd?$AA@			; `string'
PUBLIC	__real@00000000
PUBLIC	__real@3f000000
PUBLIC	__real@42100000
PUBLIC	__real@43f00000
EXTRN	___report_rangecheckfailure:PROC
EXTRN	_memset:PROC
EXTRN	?Q_strncpy@@YAIPADPBDI@Z:PROC			; Q_strncpy
EXTRN	?Q_atoi@@YAHPBD@Z:PROC				; Q_atoi
EXTRN	?Q_snprintf@@YAHPADIPBDZZ:PROC			; Q_snprintf
EXTRN	?LocaliseTextString@CHudTextMessage@@SAPADPBDPADH@Z:PROC ; CHudTextMessage::LocaliseTextString
EXTRN	?AddHudElem@CHud@@QAEXPAVCHudBase@@@Z:PROC	; CHud::AddHudElem
EXTRN	?BEGIN_READ@@YAXPBDPAXH@Z:PROC			; BEGIN_READ
EXTRN	?END_READ@@YAXXZ:PROC				; END_READ
EXTRN	?READ_BYTE@@YAHXZ:PROC				; READ_BYTE
EXTRN	?READ_SHORT@@YAHXZ:PROC				; READ_SHORT
EXTRN	?READ_STRING@@YAPADXZ:PROC			; READ_STRING
EXTRN	?GetClientColor@@YAPAMH@Z:PROC			; GetClientColor
EXTRN	@__security_check_cookie@4:PROC
EXTRN	?gEngfuncs@@3Ucl_enginefuncs_s@@A:BYTE		; gEngfuncs
EXTRN	?gHUD@@3VCHud@@A:BYTE				; gHUD
EXTRN	?g_PlayerInfoList@@3PAUhud_player_info_s@@A:BYTE ; g_PlayerInfoList
EXTRN	?g_ColorYellow@@3PAMA:BYTE			; g_ColorYellow
EXTRN	___security_cookie:DWORD
EXTRN	__fltused:DWORD
;	COMDAT __real@43f00000
CONST	SEGMENT
__real@43f00000 DD 043f00000r			; 480
CONST	ENDS
;	COMDAT __real@42100000
CONST	SEGMENT
__real@42100000 DD 042100000r			; 36
CONST	ENDS
;	COMDAT __real@3f000000
CONST	SEGMENT
__real@3f000000 DD 03f000000r			; 0.5
CONST	ENDS
;	COMDAT __real@00000000
CONST	SEGMENT
__real@00000000 DD 000000000r			; 0
CONST	ENDS
;	COMDAT ??_C@_02DPKJAMEF@?$CFd?$AA@
CONST	SEGMENT
??_C@_02DPKJAMEF@?$CFd?$AA@ DB '%d', 00H		; `string'
CONST	ENDS
;	COMDAT ??_C@_06LBCGBHOC@?$CK?$CK?$CK?$CK?$CK?$CK?$AA@
CONST	SEGMENT
??_C@_06LBCGBHOC@?$CK?$CK?$CK?$CK?$CK?$CK?$AA@ DB '******', 00H ; `string'
CONST	ENDS
;	COMDAT ??_C@_0N@NACMNLCC@hud_centerid?$AA@
CONST	SEGMENT
??_C@_0N@NACMNLCC@hud_centerid?$AA@ DB 'hud_centerid', 00H ; `string'
CONST	ENDS
;	COMDAT ??_C@_01GBGANLPD@0?$AA@
CONST	SEGMENT
??_C@_01GBGANLPD@0?$AA@ DB '0', 00H			; `string'
CONST	ENDS
;	COMDAT ??_C@_0M@GOKLPADN@StatusValue?$AA@
CONST	SEGMENT
??_C@_0M@GOKLPADN@StatusValue?$AA@ DB 'StatusValue', 00H ; `string'
CONST	ENDS
;	COMDAT ??_C@_0L@KLILBJK@StatusText?$AA@
CONST	SEGMENT
??_C@_0L@KLILBJK@StatusText?$AA@ DB 'StatusText', 00H	; `string'
CONST	ENDS
; Function compile flags: /Odtp /ZI
; File d:\!diffusion 2020\source code 2022\client-server\client\statusbar.cpp
;	COMDAT ?__MsgFunc_StatusValue@@YAHPBDHPAX@Z
_TEXT	SEGMENT
_pszName$ = 8						; size = 4
_iSize$ = 12						; size = 4
_pbuf$ = 16						; size = 4
?__MsgFunc_StatusValue@@YAHPBDHPAX@Z PROC		; __MsgFunc_StatusValue, COMDAT

; 27   : DECLARE_MESSAGE( m_StatusBar, StatusValue );

	push	ebp
	mov	ebp, esp
	sub	esp, 64					; 00000040H
	push	ebx
	push	esi
	push	edi
	mov	eax, DWORD PTR _pbuf$[ebp]
	push	eax
	mov	ecx, DWORD PTR _iSize$[ebp]
	push	ecx
	mov	edx, DWORD PTR _pszName$[ebp]
	push	edx
	mov	ecx, OFFSET ?gHUD@@3VCHud@@A+808
	call	?MsgFunc_StatusValue@CHudStatusBar@@QAEHPBDHPAX@Z ; CHudStatusBar::MsgFunc_StatusValue
	pop	edi
	pop	esi
	pop	ebx
	mov	esp, ebp
	pop	ebp
	ret	0
?__MsgFunc_StatusValue@@YAHPBDHPAX@Z ENDP		; __MsgFunc_StatusValue
_TEXT	ENDS
; Function compile flags: /Odtp /ZI
; File d:\!diffusion 2020\source code 2022\client-server\client\statusbar.cpp
;	COMDAT ?__MsgFunc_StatusText@@YAHPBDHPAX@Z
_TEXT	SEGMENT
_pszName$ = 8						; size = 4
_iSize$ = 12						; size = 4
_pbuf$ = 16						; size = 4
?__MsgFunc_StatusText@@YAHPBDHPAX@Z PROC		; __MsgFunc_StatusText, COMDAT

; 26   : DECLARE_MESSAGE( m_StatusBar, StatusText );

	push	ebp
	mov	ebp, esp
	sub	esp, 64					; 00000040H
	push	ebx
	push	esi
	push	edi
	mov	eax, DWORD PTR _pbuf$[ebp]
	push	eax
	mov	ecx, DWORD PTR _iSize$[ebp]
	push	ecx
	mov	edx, DWORD PTR _pszName$[ebp]
	push	edx
	mov	ecx, OFFSET ?gHUD@@3VCHud@@A+808
	call	?MsgFunc_StatusText@CHudStatusBar@@QAEHPBDHPAX@Z ; CHudStatusBar::MsgFunc_StatusText
	pop	edi
	pop	esi
	pop	ebx
	mov	esp, ebp
	pop	ebp
	ret	0
?__MsgFunc_StatusText@@YAHPBDHPAX@Z ENDP		; __MsgFunc_StatusText
_TEXT	ENDS
; Function compile flags: /Odtp /ZI
; File d:\!diffusion 2020\source code 2022\client-server\client\statusbar.cpp
;	COMDAT ?MsgFunc_StatusValue@CHudStatusBar@@QAEHPBDHPAX@Z
_TEXT	SEGMENT
_index$ = -8						; size = 4
_this$ = -4						; size = 4
_pszName$ = 8						; size = 4
_iSize$ = 12						; size = 4
_pbuf$ = 16						; size = 4
?MsgFunc_StatusValue@CHudStatusBar@@QAEHPBDHPAX@Z PROC	; CHudStatusBar::MsgFunc_StatusValue, COMDAT
; _this$ = ecx

; 257  : {

	push	ebp
	mov	ebp, esp
	sub	esp, 72					; 00000048H
	push	ebx
	push	esi
	push	edi
	mov	DWORD PTR _this$[ebp], ecx

; 258  : 	BEGIN_READ( pszName, pbuf, iSize );

	mov	eax, DWORD PTR _iSize$[ebp]
	push	eax
	mov	ecx, DWORD PTR _pbuf$[ebp]
	push	ecx
	mov	edx, DWORD PTR _pszName$[ebp]
	push	edx
	call	?BEGIN_READ@@YAXPBDPAXH@Z		; BEGIN_READ
	add	esp, 12					; 0000000cH

; 259  : 
; 260  : 	int index = READ_BYTE();

	call	?READ_BYTE@@YAHXZ			; READ_BYTE
	mov	DWORD PTR _index$[ebp], eax

; 261  : 	if( index < 1 || index >= MAX_STATUSBAR_VALUES )

	cmp	DWORD PTR _index$[ebp], 1
	jl	SHORT $LN3@MsgFunc_St
	cmp	DWORD PTR _index$[ebp], 8
	jl	SHORT $LN2@MsgFunc_St
$LN3@MsgFunc_St:

; 262  : 		return 1; // index out of range

	mov	eax, 1
	jmp	SHORT $LN1@MsgFunc_St
$LN2@MsgFunc_St:

; 263  : 
; 264  : 	m_iStatusValues[index] = READ_SHORT();

	call	?READ_SHORT@@YAHXZ			; READ_SHORT
	mov	ecx, DWORD PTR _index$[ebp]
	mov	edx, DWORD PTR _this$[ebp]
	mov	DWORD PTR [edx+ecx*4+520], eax

; 265  : 
; 266  : 	m_bReparseString = TRUE;

	mov	eax, DWORD PTR _this$[ebp]
	mov	DWORD PTR [eax+552], 1

; 267  : 
; 268  : 	END_READ();

	call	?END_READ@@YAXXZ			; END_READ

; 269  : 	
; 270  : 	return 1;

	mov	eax, 1
$LN1@MsgFunc_St:

; 271  : }

	pop	edi
	pop	esi
	pop	ebx
	mov	esp, ebp
	pop	ebp
	ret	12					; 0000000cH
?MsgFunc_StatusValue@CHudStatusBar@@QAEHPBDHPAX@Z ENDP	; CHudStatusBar::MsgFunc_StatusValue
_TEXT	ENDS
; Function compile flags: /Odtp /ZI
; File d:\!diffusion 2020\source code 2022\client-server\client\statusbar.cpp
;	COMDAT ?MsgFunc_StatusText@CHudStatusBar@@QAEHPBDHPAX@Z
_TEXT	SEGMENT
_line$ = -8						; size = 4
_this$ = -4						; size = 4
_pszName$ = 8						; size = 4
_iSize$ = 12						; size = 4
_pbuf$ = 16						; size = 4
?MsgFunc_StatusText@CHudStatusBar@@QAEHPBDHPAX@Z PROC	; CHudStatusBar::MsgFunc_StatusText, COMDAT
; _this$ = ecx

; 229  : {

	push	ebp
	mov	ebp, esp
	sub	esp, 72					; 00000048H
	push	ebx
	push	esi
	push	edi
	mov	DWORD PTR _this$[ebp], ecx

; 230  : 	BEGIN_READ( pszName, pbuf, iSize );

	mov	eax, DWORD PTR _iSize$[ebp]
	push	eax
	mov	ecx, DWORD PTR _pbuf$[ebp]
	push	ecx
	mov	edx, DWORD PTR _pszName$[ebp]
	push	edx
	call	?BEGIN_READ@@YAXPBDPAXH@Z		; BEGIN_READ
	add	esp, 12					; 0000000cH

; 231  : 
; 232  : 	int line = READ_BYTE();

	call	?READ_BYTE@@YAHXZ			; READ_BYTE
	mov	DWORD PTR _line$[ebp], eax

; 233  : 
; 234  : 	if( line < 0 || line >= MAX_STATUSBAR_LINES )

	cmp	DWORD PTR _line$[ebp], 0
	jl	SHORT $LN3@MsgFunc_St
	cmp	DWORD PTR _line$[ebp], 2
	jl	SHORT $LN2@MsgFunc_St
$LN3@MsgFunc_St:

; 235  : 		return 1;

	mov	eax, 1
	jmp	$LN1@MsgFunc_St
$LN2@MsgFunc_St:

; 236  : 
; 237  : 	Q_strncpy( m_szStatusText[line], READ_STRING(), MAX_STATUSTEXT_LENGTH );

	push	128					; 00000080H
	call	?READ_STRING@@YAPADXZ			; READ_STRING
	push	eax
	mov	eax, DWORD PTR _line$[ebp]
	shl	eax, 7
	mov	ecx, DWORD PTR _this$[ebp]
	lea	edx, DWORD PTR [ecx+eax+8]
	push	edx
	call	?Q_strncpy@@YAIPADPBDI@Z		; Q_strncpy
	add	esp, 12					; 0000000cH

; 238  : 	m_szStatusText[line][MAX_STATUSTEXT_LENGTH-1] = 0;  // ensure it's null terminated ( strncpy() won't null terminate if read string too long)

	mov	eax, DWORD PTR _line$[ebp]
	shl	eax, 7
	mov	ecx, DWORD PTR _this$[ebp]
	lea	edx, DWORD PTR [ecx+eax+8]
	mov	eax, 1
	imul	ecx, eax, 127
	mov	BYTE PTR [edx+ecx], 0

; 239  : 
; 240  : 	if( m_szStatusText[0] == 0 )

	mov	eax, 128				; 00000080H
	imul	ecx, eax, 0
	mov	edx, DWORD PTR _this$[ebp]
	lea	eax, DWORD PTR [edx+ecx+8]
	test	eax, eax
	jne	SHORT $LN4@MsgFunc_St

; 241  : 		m_iFlags &= ~HUD_ACTIVE;

	mov	eax, DWORD PTR _this$[ebp]
	mov	ecx, DWORD PTR [eax+4]
	and	ecx, -2					; fffffffeH
	mov	edx, DWORD PTR _this$[ebp]
	mov	DWORD PTR [edx+4], ecx

; 242  : 	else

	jmp	SHORT $LN5@MsgFunc_St
$LN4@MsgFunc_St:

; 243  : 		m_iFlags |= HUD_ACTIVE;  // we have status text, so turn on the status bar

	mov	eax, DWORD PTR _this$[ebp]
	mov	ecx, DWORD PTR [eax+4]
	or	ecx, 1
	mov	edx, DWORD PTR _this$[ebp]
	mov	DWORD PTR [edx+4], ecx
$LN5@MsgFunc_St:

; 244  : 
; 245  : 	m_bReparseString = TRUE;

	mov	eax, DWORD PTR _this$[ebp]
	mov	DWORD PTR [eax+552], 1

; 246  : 
; 247  : 	END_READ();

	call	?END_READ@@YAXXZ			; END_READ

; 248  : 
; 249  : 	return 1;

	mov	eax, 1
$LN1@MsgFunc_St:

; 250  : }

	pop	edi
	pop	esi
	pop	ebx
	mov	esp, ebp
	pop	ebp
	ret	12					; 0000000cH
?MsgFunc_StatusText@CHudStatusBar@@QAEHPBDHPAX@Z ENDP	; CHudStatusBar::MsgFunc_StatusText
_TEXT	ENDS
; Function compile flags: /Odtp /ZI
; File d:\!diffusion 2020\source code 2022\client-server\client\statusbar.cpp
;	COMDAT ?ParseStatusString@CHudStatusBar@@QAEXH@Z
_TEXT	SEGMENT
tv167 = -272						; size = 4
$T1 = -268						; size = 4
_cp$2 = -200						; size = 4
_szRepString$3 = -196					; size = 32
_indexval$4 = -164					; size = 4
_valtype$5 = -157					; size = 1
_index$6 = -156						; size = 4
_dst_start$ = -152					; size = 4
_src_start$ = -148					; size = 4
_dst$ = -144						; size = 4
_src$ = -140						; size = 4
_szBuffer$ = -136					; size = 128
_this$ = -8						; size = 4
__$ArrayPad$ = -4					; size = 4
_line_num$ = 8						; size = 4
?ParseStatusString@CHudStatusBar@@QAEXH@Z PROC		; CHudStatusBar::ParseStatusString, COMDAT
; _this$ = ecx

; 71   : {

	push	ebp
	mov	ebp, esp
	sub	esp, 272				; 00000110H
	mov	eax, DWORD PTR ___security_cookie
	xor	eax, ebp
	mov	DWORD PTR __$ArrayPad$[ebp], eax
	push	ebx
	push	esi
	push	edi
	mov	DWORD PTR _this$[ebp], ecx

; 72   : 	// localise string first
; 73   : 	char szBuffer[MAX_STATUSTEXT_LENGTH];
; 74   : 	memset( szBuffer, 0, sizeof szBuffer );

	push	128					; 00000080H
	push	0
	lea	eax, DWORD PTR _szBuffer$[ebp]
	push	eax
	call	_memset
	add	esp, 12					; 0000000cH

; 75   : 	gHUD.m_TextMessage.LocaliseTextString( m_szStatusText[line_num], szBuffer, MAX_STATUSTEXT_LENGTH );

	push	128					; 00000080H
	lea	eax, DWORD PTR _szBuffer$[ebp]
	push	eax
	mov	ecx, DWORD PTR _line_num$[ebp]
	shl	ecx, 7
	mov	edx, DWORD PTR _this$[ebp]
	lea	eax, DWORD PTR [edx+ecx+8]
	push	eax
	call	?LocaliseTextString@CHudTextMessage@@SAPADPBDPADH@Z ; CHudTextMessage::LocaliseTextString
	add	esp, 12					; 0000000cH

; 76   : 
; 77   : 	// parse m_szStatusText & m_iStatusValues into m_szStatusBar
; 78   : 	memset( m_szStatusBar[line_num], 0, MAX_STATUSTEXT_LENGTH );

	push	128					; 00000080H
	push	0
	mov	eax, DWORD PTR _line_num$[ebp]
	shl	eax, 7
	mov	ecx, DWORD PTR _this$[ebp]
	lea	edx, DWORD PTR [ecx+eax+264]
	push	edx
	call	_memset
	add	esp, 12					; 0000000cH

; 79   : 	char *src = szBuffer;

	lea	eax, DWORD PTR _szBuffer$[ebp]
	mov	DWORD PTR _src$[ebp], eax

; 80   : 	char *dst = m_szStatusBar[line_num];

	mov	eax, DWORD PTR _line_num$[ebp]
	shl	eax, 7
	mov	ecx, DWORD PTR _this$[ebp]
	lea	edx, DWORD PTR [ecx+eax+264]
	mov	DWORD PTR _dst$[ebp], edx

; 81   : 
; 82   : 	char *src_start = src, *dst_start = dst;

	mov	eax, DWORD PTR _src$[ebp]
	mov	DWORD PTR _src_start$[ebp], eax
	mov	eax, DWORD PTR _dst$[ebp]
	mov	DWORD PTR _dst_start$[ebp], eax
$LN2@ParseStatu:

; 83   : 
; 84   : 	while( *src != 0 )

	mov	eax, DWORD PTR _src$[ebp]
	movsx	ecx, BYTE PTR [eax]
	test	ecx, ecx
	je	$LN34@ParseStatu
$LN4@ParseStatu:

; 85   : 	{
; 86   : 		while( *src == '\n' )

	mov	eax, DWORD PTR _src$[ebp]
	movsx	ecx, BYTE PTR [eax]
	cmp	ecx, 10					; 0000000aH
	jne	SHORT $LN5@ParseStatu

; 87   : 			src++;  // skip over any newlines

	mov	eax, DWORD PTR _src$[ebp]
	add	eax, 1
	mov	DWORD PTR _src$[ebp], eax
	jmp	SHORT $LN4@ParseStatu
$LN5@ParseStatu:

; 88   : 
; 89   : 		if((( src - src_start ) >= MAX_STATUSTEXT_LENGTH ) || (( dst - dst_start ) >= MAX_STATUSTEXT_LENGTH ))

	mov	eax, DWORD PTR _src$[ebp]
	sub	eax, DWORD PTR _src_start$[ebp]
	cmp	eax, 128				; 00000080H
	jge	SHORT $LN20@ParseStatu
	mov	eax, DWORD PTR _dst$[ebp]
	sub	eax, DWORD PTR _dst_start$[ebp]
	cmp	eax, 128				; 00000080H
	jl	SHORT $LN19@ParseStatu
$LN20@ParseStatu:

; 90   : 			break;

	jmp	$LN34@ParseStatu
$LN19@ParseStatu:

; 91   : 
; 92   : 		int index = Q_atoi( src );

	mov	eax, DWORD PTR _src$[ebp]
	push	eax
	call	?Q_atoi@@YAHPBD@Z			; Q_atoi
	add	esp, 4
	mov	DWORD PTR _index$6[ebp], eax

; 93   : 
; 94   : 		// should we draw this line?
; 95   : 		if(( index >= 0 && index < MAX_STATUSBAR_VALUES ) && ( m_iStatusValues[index] != 0 ))

	cmp	DWORD PTR _index$6[ebp], 0
	jl	$LN17@ParseStatu
	cmp	DWORD PTR _index$6[ebp], 8
	jge	$LN17@ParseStatu
	mov	eax, DWORD PTR _index$6[ebp]
	mov	ecx, DWORD PTR _this$[ebp]
	cmp	DWORD PTR [ecx+eax*4+520], 0
	je	$LN17@ParseStatu
$LN6@ParseStatu:

; 96   : 		{
; 97   : 			// parse this line and append result to the status bar
; 98   : 			while( *src >= '0' && *src <= '9' )

	mov	eax, DWORD PTR _src$[ebp]
	movsx	ecx, BYTE PTR [eax]
	cmp	ecx, 48					; 00000030H
	jl	SHORT $LN7@ParseStatu
	mov	eax, DWORD PTR _src$[ebp]
	movsx	ecx, BYTE PTR [eax]
	cmp	ecx, 57					; 00000039H
	jg	SHORT $LN7@ParseStatu

; 99   : 				src++;

	mov	eax, DWORD PTR _src$[ebp]
	add	eax, 1
	mov	DWORD PTR _src$[ebp], eax
	jmp	SHORT $LN6@ParseStatu
$LN7@ParseStatu:

; 100  : 
; 101  : 			if( *src == '\n' || *src == 0 )

	mov	eax, DWORD PTR _src$[ebp]
	movsx	ecx, BYTE PTR [eax]
	cmp	ecx, 10					; 0000000aH
	je	SHORT $LN24@ParseStatu
	mov	eax, DWORD PTR _src$[ebp]
	movsx	ecx, BYTE PTR [eax]
	test	ecx, ecx
	jne	SHORT $LN8@ParseStatu
$LN24@ParseStatu:

; 102  : 				continue; // no more left in this text line

	jmp	$LN2@ParseStatu
$LN8@ParseStatu:

; 103  : 
; 104  : 			// copy the text, char by char, until we hit a % or a \n
; 105  : 			while( *src != '\n' && *src != 0 )

	mov	eax, DWORD PTR _src$[ebp]
	movsx	ecx, BYTE PTR [eax]
	cmp	ecx, 10					; 0000000aH
	je	$LN9@ParseStatu
	mov	eax, DWORD PTR _src$[ebp]
	movsx	ecx, BYTE PTR [eax]
	test	ecx, ecx
	je	$LN9@ParseStatu

; 106  : 			{
; 107  : 				if( *src != '%' )

	mov	eax, DWORD PTR _src$[ebp]
	movsx	ecx, BYTE PTR [eax]
	cmp	ecx, 37					; 00000025H
	je	SHORT $LN25@ParseStatu

; 108  : 				{
; 109  : 					// just copy the character
; 110  : 					*dst = *src;

	mov	eax, DWORD PTR _dst$[ebp]
	mov	ecx, DWORD PTR _src$[ebp]
	mov	dl, BYTE PTR [ecx]
	mov	BYTE PTR [eax], dl

; 111  : 					dst++, src++;

	mov	eax, DWORD PTR _dst$[ebp]
	add	eax, 1
	mov	DWORD PTR _dst$[ebp], eax
	mov	ecx, DWORD PTR _src$[ebp]
	add	ecx, 1
	mov	DWORD PTR _src$[ebp], ecx

; 112  : 				}
; 113  : 				else

	jmp	$LN26@ParseStatu
$LN25@ParseStatu:

; 114  : 				{
; 115  : 					// get the descriptor
; 116  : 					char valtype = *(++src); // move over %

	mov	eax, DWORD PTR _src$[ebp]
	add	eax, 1
	mov	DWORD PTR _src$[ebp], eax
	mov	ecx, DWORD PTR _src$[ebp]
	mov	dl, BYTE PTR [ecx]
	mov	BYTE PTR _valtype$5[ebp], dl

; 117  : 
; 118  : 					// if it's a %, draw a % sign
; 119  : 					if( valtype == '%' )

	movsx	eax, BYTE PTR _valtype$5[ebp]
	cmp	eax, 37					; 00000025H
	jne	SHORT $LN27@ParseStatu

; 120  : 					{
; 121  : 						*dst = valtype;

	mov	eax, DWORD PTR _dst$[ebp]
	mov	cl, BYTE PTR _valtype$5[ebp]
	mov	BYTE PTR [eax], cl

; 122  : 						dst++, src++;

	mov	eax, DWORD PTR _dst$[ebp]
	add	eax, 1
	mov	DWORD PTR _dst$[ebp], eax
	mov	ecx, DWORD PTR _src$[ebp]
	add	ecx, 1
	mov	DWORD PTR _src$[ebp], ecx

; 123  : 						continue;

	jmp	$LN8@ParseStatu
$LN27@ParseStatu:

; 124  : 					}
; 125  : 
; 126  : 					// move over descriptor, then get and move over the index
; 127  : 					index = Q_atoi( ++src ); 

	mov	eax, DWORD PTR _src$[ebp]
	add	eax, 1
	mov	DWORD PTR _src$[ebp], eax
	mov	ecx, DWORD PTR _src$[ebp]
	push	ecx
	call	?Q_atoi@@YAHPBD@Z			; Q_atoi
	add	esp, 4
	mov	DWORD PTR _index$6[ebp], eax
$LN10@ParseStatu:

; 128  : 					while( *src >= '0' && *src <= '9' )

	mov	eax, DWORD PTR _src$[ebp]
	movsx	ecx, BYTE PTR [eax]
	cmp	ecx, 48					; 00000030H
	jl	SHORT $LN11@ParseStatu
	mov	eax, DWORD PTR _src$[ebp]
	movsx	ecx, BYTE PTR [eax]
	cmp	ecx, 57					; 00000039H
	jg	SHORT $LN11@ParseStatu

; 129  : 						src++;

	mov	eax, DWORD PTR _src$[ebp]
	add	eax, 1
	mov	DWORD PTR _src$[ebp], eax
	jmp	SHORT $LN10@ParseStatu
$LN11@ParseStatu:

; 130  : 
; 131  : 					if( index >= 0 && index < MAX_STATUSBAR_VALUES )

	cmp	DWORD PTR _index$6[ebp], 0
	jl	$LN26@ParseStatu
	cmp	DWORD PTR _index$6[ebp], 8
	jge	$LN26@ParseStatu

; 132  : 					{
; 133  : 						int indexval = m_iStatusValues[index];

	mov	eax, DWORD PTR _index$6[ebp]
	mov	ecx, DWORD PTR _this$[ebp]
	mov	edx, DWORD PTR [ecx+eax*4+520]
	mov	DWORD PTR _indexval$4[ebp], edx

; 134  : 
; 135  : 						// get the string to substitute in place of the %XX
; 136  : 						char szRepString[MAX_PLAYER_NAME_LENGTH];
; 137  : 
; 138  : 						switch( valtype )

	mov	al, BYTE PTR _valtype$5[ebp]
	mov	BYTE PTR tv167[ebp], al
	cmp	BYTE PTR tv167[ebp], 105		; 00000069H
	je	$LN32@ParseStatu
	cmp	BYTE PTR tv167[ebp], 112		; 00000070H
	je	SHORT $LN29@ParseStatu
	jmp	$LN33@ParseStatu
$LN29@ParseStatu:

; 139  : 						{
; 140  : 						case 'p':
; 141  : 							// player name
; 142  : 							GetPlayerInfo( indexval, &g_PlayerInfoList[indexval] );

	imul	eax, DWORD PTR _indexval$4[ebp], 20
	add	eax, OFFSET ?g_PlayerInfoList@@3PAUhud_player_info_s@@A ; g_PlayerInfoList
	push	eax
	mov	ecx, DWORD PTR _indexval$4[ebp]
	push	ecx
	call	DWORD PTR ?gEngfuncs@@3Ucl_enginefuncs_s@@A+84
	add	esp, 8

; 143  : 							if ( g_PlayerInfoList[indexval].name != NULL )

	imul	eax, DWORD PTR _indexval$4[ebp], 20
	cmp	DWORD PTR ?g_PlayerInfoList@@3PAUhud_player_info_s@@A[eax], 0
	je	SHORT $LN30@ParseStatu

; 144  : 							{
; 145  : 								Q_strncpy( szRepString, g_PlayerInfoList[indexval].name, MAX_PLAYER_NAME_LENGTH );

	push	32					; 00000020H
	imul	eax, DWORD PTR _indexval$4[ebp], 20
	mov	ecx, DWORD PTR ?g_PlayerInfoList@@3PAUhud_player_info_s@@A[eax]
	push	ecx
	lea	edx, DWORD PTR _szRepString$3[ebp]
	push	edx
	call	?Q_strncpy@@YAIPADPBDI@Z		; Q_strncpy
	add	esp, 12					; 0000000cH

; 146  : 								m_pflNameColors[line_num] = GetClientColor( indexval );

	mov	eax, DWORD PTR _indexval$4[ebp]
	push	eax
	call	?GetClientColor@@YAPAMH@Z		; GetClientColor
	add	esp, 4
	mov	ecx, DWORD PTR _line_num$[ebp]
	mov	edx, DWORD PTR _this$[ebp]
	mov	DWORD PTR [edx+ecx*4+556], eax

; 147  : 							}
; 148  : 							else

	jmp	SHORT $LN31@ParseStatu
$LN30@ParseStatu:

; 149  : 							{
; 150  : 								Q_strcpy( szRepString, "******" );

	push	99999					; 0001869fH
	push	OFFSET ??_C@_06LBCGBHOC@?$CK?$CK?$CK?$CK?$CK?$CK?$AA@
	lea	eax, DWORD PTR _szRepString$3[ebp]
	push	eax
	call	?Q_strncpy@@YAIPADPBDI@Z		; Q_strncpy
	add	esp, 12					; 0000000cH
$LN31@ParseStatu:

; 151  : 							}
; 152  : 							break;

	jmp	SHORT $LN12@ParseStatu
$LN32@ParseStatu:

; 153  : 						case 'i': 
; 154  : 							// number
; 155  : 							Q_snprintf( szRepString, sizeof( szRepString ), "%d", indexval );

	mov	eax, DWORD PTR _indexval$4[ebp]
	push	eax
	push	OFFSET ??_C@_02DPKJAMEF@?$CFd?$AA@
	push	32					; 00000020H
	lea	ecx, DWORD PTR _szRepString$3[ebp]
	push	ecx
	call	?Q_snprintf@@YAHPADIPBDZZ		; Q_snprintf
	add	esp, 16					; 00000010H

; 156  : 							break;

	jmp	SHORT $LN12@ParseStatu
$LN33@ParseStatu:

; 157  : 						default:
; 158  : 							szRepString[0] = 0;

	mov	eax, 1
	imul	ecx, eax, 0
	mov	DWORD PTR $T1[ebp], ecx
	cmp	DWORD PTR $T1[ebp], 32			; 00000020H
	jae	SHORT $LN35@ParseStatu
	jmp	SHORT $LN36@ParseStatu
$LN35@ParseStatu:
	call	___report_rangecheckfailure
$LN36@ParseStatu:
	mov	edx, DWORD PTR $T1[ebp]
	mov	BYTE PTR _szRepString$3[ebp+edx], 0
$LN12@ParseStatu:

; 159  : 							break;
; 160  : 						}
; 161  : 
; 162  : 						for( char *cp = szRepString; *cp != 0 && ((dst - dst_start) < MAX_STATUSTEXT_LENGTH); cp++, dst++ )

	lea	eax, DWORD PTR _szRepString$3[ebp]
	mov	DWORD PTR _cp$2[ebp], eax
	jmp	SHORT $LN16@ParseStatu
$LN14@ParseStatu:
	mov	eax, DWORD PTR _cp$2[ebp]
	add	eax, 1
	mov	DWORD PTR _cp$2[ebp], eax
	mov	ecx, DWORD PTR _dst$[ebp]
	add	ecx, 1
	mov	DWORD PTR _dst$[ebp], ecx
$LN16@ParseStatu:
	mov	eax, DWORD PTR _cp$2[ebp]
	movsx	ecx, BYTE PTR [eax]
	test	ecx, ecx
	je	SHORT $LN26@ParseStatu
	mov	eax, DWORD PTR _dst$[ebp]
	sub	eax, DWORD PTR _dst_start$[ebp]
	cmp	eax, 128				; 00000080H
	jge	SHORT $LN26@ParseStatu

; 163  : 							*dst = *cp;

	mov	eax, DWORD PTR _dst$[ebp]
	mov	ecx, DWORD PTR _cp$2[ebp]
	mov	dl, BYTE PTR [ecx]
	mov	BYTE PTR [eax], dl
	jmp	SHORT $LN14@ParseStatu
$LN26@ParseStatu:

; 164  : 					}
; 165  : 				}
; 166  : 			}

	jmp	$LN8@ParseStatu
$LN9@ParseStatu:

; 167  : 		}
; 168  : 		else

	jmp	SHORT $LN22@ParseStatu
$LN17@ParseStatu:

; 169  : 		{
; 170  : 			// skip to next line of text
; 171  : 			while( *src != 0 && *src != '\n' )

	mov	eax, DWORD PTR _src$[ebp]
	movsx	ecx, BYTE PTR [eax]
	test	ecx, ecx
	je	SHORT $LN22@ParseStatu
	mov	eax, DWORD PTR _src$[ebp]
	movsx	ecx, BYTE PTR [eax]
	cmp	ecx, 10					; 0000000aH
	je	SHORT $LN22@ParseStatu

; 172  : 				src++;

	mov	eax, DWORD PTR _src$[ebp]
	add	eax, 1
	mov	DWORD PTR _src$[ebp], eax
	jmp	SHORT $LN17@ParseStatu
$LN22@ParseStatu:

; 173  : 		}
; 174  : 	}

	jmp	$LN2@ParseStatu
$LN34@ParseStatu:

; 175  : }

	pop	edi
	pop	esi
	pop	ebx
	mov	ecx, DWORD PTR __$ArrayPad$[ebp]
	xor	ecx, ebp
	call	@__security_check_cookie@4
	mov	esp, ebp
	pop	ebp
	ret	4
?ParseStatusString@CHudStatusBar@@QAEXH@Z ENDP		; CHudStatusBar::ParseStatusString
_TEXT	ENDS
; Function compile flags: /Odtp /ZI
; File d:\!diffusion 2020\source code 2022\client-server\client\statusbar.cpp
;	COMDAT ?Reset@CHudStatusBar@@UAEXXZ
_TEXT	SEGMENT
_i$ = -8						; size = 4
_this$ = -4						; size = 4
?Reset@CHudStatusBar@@UAEXXZ PROC			; CHudStatusBar::Reset, COMDAT
; _this$ = ecx

; 54   : {

	push	ebp
	mov	ebp, esp
	sub	esp, 72					; 00000048H
	push	ebx
	push	esi
	push	edi
	mov	DWORD PTR _this$[ebp], ecx

; 55   : 	m_iFlags &= ~HUD_ACTIVE;  // start out inactive

	mov	eax, DWORD PTR _this$[ebp]
	mov	ecx, DWORD PTR [eax+4]
	and	ecx, -2					; fffffffeH
	mov	edx, DWORD PTR _this$[ebp]
	mov	DWORD PTR [edx+4], ecx

; 56   : 
; 57   : 	int i;
; 58   : 	for( i = 0; i < MAX_STATUSBAR_LINES; i++ )

	mov	DWORD PTR _i$[ebp], 0
	jmp	SHORT $LN4@Reset
$LN2@Reset:
	mov	eax, DWORD PTR _i$[ebp]
	add	eax, 1
	mov	DWORD PTR _i$[ebp], eax
$LN4@Reset:
	cmp	DWORD PTR _i$[ebp], 2
	jge	SHORT $LN3@Reset

; 59   : 		m_szStatusText[i][0] = 0;

	mov	eax, DWORD PTR _i$[ebp]
	shl	eax, 7
	mov	ecx, DWORD PTR _this$[ebp]
	lea	edx, DWORD PTR [ecx+eax+8]
	mov	eax, 1
	imul	ecx, eax, 0
	mov	BYTE PTR [edx+ecx], 0
	jmp	SHORT $LN2@Reset
$LN3@Reset:

; 60   : 
; 61   : 	memset( m_iStatusValues, 0, sizeof m_iStatusValues );

	push	32					; 00000020H
	push	0
	mov	eax, DWORD PTR _this$[ebp]
	add	eax, 520				; 00000208H
	push	eax
	call	_memset
	add	esp, 12					; 0000000cH

; 62   : 
; 63   : 	m_iStatusValues[0] = 1;  // 0 is the special index, which always returns true

	mov	eax, 4
	imul	ecx, eax, 0
	mov	edx, DWORD PTR _this$[ebp]
	mov	DWORD PTR [edx+ecx+520], 1

; 64   : 
; 65   : 	// reset our colors for the status bar lines (yellow is default)
; 66   : 	for( i = 0; i < MAX_STATUSBAR_LINES; i++ )

	mov	DWORD PTR _i$[ebp], 0
	jmp	SHORT $LN7@Reset
$LN5@Reset:
	mov	eax, DWORD PTR _i$[ebp]
	add	eax, 1
	mov	DWORD PTR _i$[ebp], eax
$LN7@Reset:
	cmp	DWORD PTR _i$[ebp], 2
	jge	SHORT $LN1@Reset

; 67   : 		m_pflNameColors[i] = g_ColorYellow;

	mov	eax, DWORD PTR _i$[ebp]
	mov	ecx, DWORD PTR _this$[ebp]
	mov	DWORD PTR [ecx+eax*4+556], OFFSET ?g_ColorYellow@@3PAMA ; g_ColorYellow
	jmp	SHORT $LN5@Reset
$LN1@Reset:

; 68   : }

	pop	edi
	pop	esi
	pop	ebx
	mov	esp, ebp
	pop	ebp
	ret	0
?Reset@CHudStatusBar@@UAEXXZ ENDP			; CHudStatusBar::Reset
_TEXT	ENDS
; Function compile flags: /Odtp /ZI
; File d:\!diffusion 2020\source code 2022\client-server\client\statusbar.cpp
;	COMDAT ?Draw@CHudStatusBar@@UAEHM@Z
_TEXT	SEGMENT
tv224 = -108						; size = 4
tv137 = -108						; size = 4
tv251 = -104						; size = 4
tv139 = -104						; size = 4
tv249 = -100						; size = 4
tv198 = -100						; size = 4
tv131 = -100						; size = 4
_y$1 = -32						; size = 4
_x$2 = -28						; size = 4
_TextWidth$3 = -24					; size = 4
_TextHeight$4 = -20					; size = 4
_i$5 = -16						; size = 4
_Y_START$ = -12						; size = 4
_i$6 = -8						; size = 4
_this$ = -4						; size = 4
_fTime$ = 8						; size = 4
?Draw@CHudStatusBar@@UAEHM@Z PROC			; CHudStatusBar::Draw, COMDAT
; _this$ = ecx

; 178  : {

	push	ebp
	mov	ebp, esp
	sub	esp, 108				; 0000006cH
	push	ebx
	push	esi
	push	edi
	mov	DWORD PTR _this$[ebp], ecx

; 179  : 	if( m_bReparseString )

	mov	eax, DWORD PTR _this$[ebp]
	cmp	DWORD PTR [eax+552], 0
	je	SHORT $LN8@Draw

; 180  : 	{
; 181  : 		for( int i = 0; i < MAX_STATUSBAR_LINES; i++ )

	mov	DWORD PTR _i$6[ebp], 0
	jmp	SHORT $LN4@Draw
$LN2@Draw:
	mov	eax, DWORD PTR _i$6[ebp]
	add	eax, 1
	mov	DWORD PTR _i$6[ebp], eax
$LN4@Draw:
	cmp	DWORD PTR _i$6[ebp], 2
	jge	SHORT $LN3@Draw

; 182  : 		{
; 183  : 			m_pflNameColors[i] = g_ColorYellow;

	mov	eax, DWORD PTR _i$6[ebp]
	mov	ecx, DWORD PTR _this$[ebp]
	mov	DWORD PTR [ecx+eax*4+556], OFFSET ?g_ColorYellow@@3PAMA ; g_ColorYellow

; 184  : 			ParseStatusString( i );

	mov	eax, DWORD PTR _i$6[ebp]
	push	eax
	mov	ecx, DWORD PTR _this$[ebp]
	call	?ParseStatusString@CHudStatusBar@@QAEXH@Z ; CHudStatusBar::ParseStatusString

; 185  : 		}

	jmp	SHORT $LN2@Draw
$LN3@Draw:

; 186  : 		m_bReparseString = FALSE;

	mov	eax, DWORD PTR _this$[ebp]
	mov	DWORD PTR [eax+552], 0
$LN8@Draw:

; 187  : 	}
; 188  : 
; 189  : 	int Y_START = ScreenHeight - YRES( 32 + 4 );

	cvtsi2ss xmm0, DWORD PTR ?gHUD@@3VCHud@@A+8440
	divss	xmm0, DWORD PTR __real@43f00000
	mulss	xmm0, DWORD PTR __real@42100000
	addss	xmm0, DWORD PTR __real@3f000000
	cvttss2si eax, xmm0
	mov	ecx, DWORD PTR ?gHUD@@3VCHud@@A+8440
	sub	ecx, eax
	mov	DWORD PTR _Y_START$[ebp], ecx

; 190  : 
; 191  : 	// Draw the status bar lines
; 192  : 	for( int i = 0; i < MAX_STATUSBAR_LINES; i++ )

	mov	DWORD PTR _i$5[ebp], 0
	jmp	SHORT $LN7@Draw
$LN5@Draw:
	mov	eax, DWORD PTR _i$5[ebp]
	add	eax, 1
	mov	DWORD PTR _i$5[ebp], eax
$LN7@Draw:
	cmp	DWORD PTR _i$5[ebp], 2
	jge	$LN6@Draw

; 193  : 	{
; 194  : 		int TextHeight, TextWidth;
; 195  : 		GetConsoleStringSize( m_szStatusBar[i], &TextWidth, &TextHeight );

	lea	eax, DWORD PTR _TextHeight$4[ebp]
	push	eax
	lea	ecx, DWORD PTR _TextWidth$3[ebp]
	push	ecx
	mov	edx, DWORD PTR _i$5[ebp]
	shl	edx, 7
	mov	eax, DWORD PTR _this$[ebp]
	lea	ecx, DWORD PTR [eax+edx+264]
	push	ecx
	call	DWORD PTR ?gEngfuncs@@3Ucl_enginefuncs_s@@A+116
	add	esp, 12					; 0000000cH

; 196  : 
; 197  : 		int x = 4;

	mov	DWORD PTR _x$2[ebp], 4

; 198  : 		int y = Y_START - ( 4 + TextHeight * i ); // draw along bottom of screen

	mov	eax, DWORD PTR _TextHeight$4[ebp]
	imul	eax, DWORD PTR _i$5[ebp]
	add	eax, 4
	mov	ecx, DWORD PTR _Y_START$[ebp]
	sub	ecx, eax
	mov	DWORD PTR _y$1[ebp], ecx

; 199  : 
; 200  : 		// let user set status ID bar centering
; 201  : 		if(( i == STATUSBAR_ID_LINE ) && CVAR_GET_FLOAT( "hud_centerid" ))

	cmp	DWORD PTR _i$5[ebp], 1
	jne	$LN9@Draw
	push	OFFSET ??_C@_0N@NACMNLCC@hud_centerid?$AA@
	call	DWORD PTR ?gEngfuncs@@3Ucl_enginefuncs_s@@A+60
	add	esp, 4
	fstp	DWORD PTR tv198[ebp]
	movss	xmm0, DWORD PTR tv198[ebp]
	ucomiss	xmm0, DWORD PTR __real@00000000
	lahf
	test	ah, 68					; 00000044H
	jnp	$LN9@Draw

; 202  : 		{
; 203  : 			x = max( 0, max( 2, (ScreenWidth - TextWidth)) / 2 );

	mov	eax, DWORD PTR ?gHUD@@3VCHud@@A+8436
	sub	eax, DWORD PTR _TextWidth$3[ebp]
	cmp	eax, 2
	jge	SHORT $LN12@Draw
	mov	DWORD PTR tv131[ebp], 2
	jmp	SHORT $LN13@Draw
$LN12@Draw:
	mov	ecx, DWORD PTR ?gHUD@@3VCHud@@A+8436
	sub	ecx, DWORD PTR _TextWidth$3[ebp]
	mov	DWORD PTR tv131[ebp], ecx
$LN13@Draw:
	mov	eax, DWORD PTR tv131[ebp]
	cdq
	sub	eax, edx
	sar	eax, 1
	jns	SHORT $LN16@Draw
	mov	DWORD PTR tv139[ebp], 0
	jmp	SHORT $LN17@Draw
$LN16@Draw:
	mov	edx, DWORD PTR ?gHUD@@3VCHud@@A+8436
	sub	edx, DWORD PTR _TextWidth$3[ebp]
	cmp	edx, 2
	jge	SHORT $LN14@Draw
	mov	DWORD PTR tv137[ebp], 2
	jmp	SHORT $LN15@Draw
$LN14@Draw:
	mov	eax, DWORD PTR ?gHUD@@3VCHud@@A+8436
	sub	eax, DWORD PTR _TextWidth$3[ebp]
	mov	DWORD PTR tv137[ebp], eax
$LN15@Draw:
	mov	eax, DWORD PTR tv137[ebp]
	cdq
	sub	eax, edx
	sar	eax, 1
	mov	DWORD PTR tv139[ebp], eax
$LN17@Draw:
	mov	ecx, DWORD PTR tv139[ebp]
	mov	DWORD PTR _x$2[ebp], ecx

; 204  : 			y = (ScreenHeight / 2) + (TextHeight * CVAR_GET_FLOAT( "hud_centerid" ));

	mov	eax, DWORD PTR ?gHUD@@3VCHud@@A+8440
	cdq
	sub	eax, edx
	sar	eax, 1
	cvtsi2ss xmm0, eax
	cvtsi2ss xmm1, DWORD PTR _TextHeight$4[ebp]
	push	OFFSET ??_C@_0N@NACMNLCC@hud_centerid?$AA@
	movss	DWORD PTR tv249[ebp], xmm0
	movss	DWORD PTR tv251[ebp], xmm1
	call	DWORD PTR ?gEngfuncs@@3Ucl_enginefuncs_s@@A+60
	add	esp, 4
	fstp	DWORD PTR tv224[ebp]
	movss	xmm0, DWORD PTR tv251[ebp]
	mulss	xmm0, DWORD PTR tv224[ebp]
	movss	xmm1, DWORD PTR tv249[ebp]
	addss	xmm1, xmm0
	cvttss2si eax, xmm1
	mov	DWORD PTR _y$1[ebp], eax
$LN9@Draw:

; 205  : 		}
; 206  : 
; 207  : 		if( m_pflNameColors[i] )

	mov	eax, DWORD PTR _i$5[ebp]
	mov	ecx, DWORD PTR _this$[ebp]
	cmp	DWORD PTR [ecx+eax*4+556], 0
	je	SHORT $LN10@Draw

; 208  : 			DrawSetTextColor( m_pflNameColors[i][0], m_pflNameColors[i][1], m_pflNameColors[i][2] );

	mov	eax, 4
	shl	eax, 1
	mov	ecx, DWORD PTR _i$5[ebp]
	mov	edx, DWORD PTR _this$[ebp]
	mov	ecx, DWORD PTR [edx+ecx*4+556]
	push	ecx
	movss	xmm0, DWORD PTR [ecx+eax]
	movss	DWORD PTR [esp], xmm0
	mov	edx, 4
	shl	edx, 0
	mov	eax, DWORD PTR _i$5[ebp]
	mov	ecx, DWORD PTR _this$[ebp]
	mov	eax, DWORD PTR [ecx+eax*4+556]
	push	ecx
	movss	xmm0, DWORD PTR [eax+edx]
	movss	DWORD PTR [esp], xmm0
	mov	ecx, 4
	imul	edx, ecx, 0
	mov	eax, DWORD PTR _i$5[ebp]
	mov	ecx, DWORD PTR _this$[ebp]
	mov	eax, DWORD PTR [ecx+eax*4+556]
	push	ecx
	movss	xmm0, DWORD PTR [eax+edx]
	movss	DWORD PTR [esp], xmm0
	call	DWORD PTR ?gEngfuncs@@3Ucl_enginefuncs_s@@A+112
	add	esp, 12					; 0000000cH
$LN10@Draw:

; 209  : 
; 210  : 		DrawConsoleString( x, y, m_szStatusBar[i] );

	mov	eax, DWORD PTR _i$5[ebp]
	shl	eax, 7
	mov	ecx, DWORD PTR _this$[ebp]
	lea	edx, DWORD PTR [ecx+eax+264]
	push	edx
	mov	eax, DWORD PTR _y$1[ebp]
	push	eax
	mov	ecx, DWORD PTR _x$2[ebp]
	push	ecx
	call	DWORD PTR ?gEngfuncs@@3Ucl_enginefuncs_s@@A+108
	add	esp, 12					; 0000000cH

; 211  : 	}

	jmp	$LN5@Draw
$LN6@Draw:

; 212  : 
; 213  : 	return 1;

	mov	eax, 1

; 214  : }

	pop	edi
	pop	esi
	pop	ebx
	mov	esp, ebp
	pop	ebp
	ret	4
?Draw@CHudStatusBar@@UAEHM@Z ENDP			; CHudStatusBar::Draw
_TEXT	ENDS
; Function compile flags: /Odtp /ZI
; File d:\!diffusion 2020\source code 2022\client-server\client\statusbar.cpp
;	COMDAT ?VidInit@CHudStatusBar@@UAEHXZ
_TEXT	SEGMENT
_this$ = -4						; size = 4
?VidInit@CHudStatusBar@@UAEHXZ PROC			; CHudStatusBar::VidInit, COMDAT
; _this$ = ecx

; 49   : {

	push	ebp
	mov	ebp, esp
	sub	esp, 68					; 00000044H
	push	ebx
	push	esi
	push	edi
	mov	DWORD PTR _this$[ebp], ecx

; 50   : 	return 1;

	mov	eax, 1

; 51   : }

	pop	edi
	pop	esi
	pop	ebx
	mov	esp, ebp
	pop	ebp
	ret	0
?VidInit@CHudStatusBar@@UAEHXZ ENDP			; CHudStatusBar::VidInit
_TEXT	ENDS
; Function compile flags: /Odtp /ZI
; File d:\!diffusion 2020\source code 2022\client-server\client\statusbar.cpp
;	COMDAT ?Init@CHudStatusBar@@UAEHXZ
_TEXT	SEGMENT
_this$ = -4						; size = 4
?Init@CHudStatusBar@@UAEHXZ PROC			; CHudStatusBar::Init, COMDAT
; _this$ = ecx

; 35   : {

	push	ebp
	mov	ebp, esp
	sub	esp, 68					; 00000044H
	push	ebx
	push	esi
	push	edi
	mov	DWORD PTR _this$[ebp], ecx

; 36   : 	gHUD.AddHudElem( this );

	mov	eax, DWORD PTR _this$[ebp]
	push	eax
	mov	ecx, OFFSET ?gHUD@@3VCHud@@A		; gHUD
	call	?AddHudElem@CHud@@QAEXPAVCHudBase@@@Z	; CHud::AddHudElem

; 37   : 
; 38   : 	HOOK_MESSAGE( StatusText );

	push	OFFSET ?__MsgFunc_StatusText@@YAHPBDHPAX@Z ; __MsgFunc_StatusText
	push	OFFSET ??_C@_0L@KLILBJK@StatusText?$AA@
	call	DWORD PTR ?gEngfuncs@@3Ucl_enginefuncs_s@@A+72
	add	esp, 8

; 39   : 	HOOK_MESSAGE( StatusValue );

	push	OFFSET ?__MsgFunc_StatusValue@@YAHPBDHPAX@Z ; __MsgFunc_StatusValue
	push	OFFSET ??_C@_0M@GOKLPADN@StatusValue?$AA@
	call	DWORD PTR ?gEngfuncs@@3Ucl_enginefuncs_s@@A+72
	add	esp, 8

; 40   : 
; 41   : 	Reset();

	mov	eax, DWORD PTR _this$[ebp]
	mov	edx, DWORD PTR [eax]
	mov	ecx, DWORD PTR _this$[ebp]
	mov	eax, DWORD PTR [edx+20]
	call	eax

; 42   : 
; 43   : 	CVAR_REGISTER( "hud_centerid", "0", FCVAR_ARCHIVE );

	push	1
	push	OFFSET ??_C@_01GBGANLPD@0?$AA@
	push	OFFSET ??_C@_0N@NACMNLCC@hud_centerid?$AA@
	call	DWORD PTR ?gEngfuncs@@3Ucl_enginefuncs_s@@A+56
	add	esp, 12					; 0000000cH

; 44   : 
; 45   : 	return 1;

	mov	eax, 1

; 46   : }

	pop	edi
	pop	esi
	pop	ebx
	mov	esp, ebp
	pop	ebp
	ret	0
?Init@CHudStatusBar@@UAEHXZ ENDP			; CHudStatusBar::Init
_TEXT	ENDS
; Function compile flags: /Odtp /ZI
;	COMDAT ??__G@YGXPAX0IIP6EPAX00@Z@Z
_TEXT	SEGMENT
tv66 = -68						; size = 4
___t$ = 8						; size = 4
___u$ = 12						; size = 4
___s$ = 16						; size = 4
___n$ = 20						; size = 4
___f$ = 24						; size = 4
??__G@YGXPAX0IIP6EPAX00@Z@Z PROC			; `vector copy constructor iterator', COMDAT
	push	ebp
	mov	ebp, esp
	sub	esp, 68					; 00000044H
	push	ebx
	push	esi
	push	edi
$LN2@vector:
	mov	eax, DWORD PTR ___n$[ebp]
	mov	DWORD PTR tv66[ebp], eax
	mov	ecx, DWORD PTR ___n$[ebp]
	sub	ecx, 1
	mov	DWORD PTR ___n$[ebp], ecx
	cmp	DWORD PTR tv66[ebp], 0
	jbe	SHORT $LN1@vector
	mov	eax, DWORD PTR ___u$[ebp]
	push	eax
	mov	ecx, DWORD PTR ___t$[ebp]
	call	DWORD PTR ___f$[ebp]
	mov	eax, DWORD PTR ___t$[ebp]
	add	eax, DWORD PTR ___s$[ebp]
	mov	DWORD PTR ___t$[ebp], eax
	mov	eax, DWORD PTR ___u$[ebp]
	add	eax, DWORD PTR ___s$[ebp]
	mov	DWORD PTR ___u$[ebp], eax
	jmp	SHORT $LN2@vector
$LN1@vector:
	pop	edi
	pop	esi
	pop	ebx
	mov	esp, ebp
	pop	ebp
	ret	20					; 00000014H
??__G@YGXPAX0IIP6EPAX00@Z@Z ENDP			; `vector copy constructor iterator'
_TEXT	ENDS
; Function compile flags: /Odtp /ZI
;	COMDAT ??_H@YGXPAXIIP6EPAX0@Z@Z
_TEXT	SEGMENT
tv66 = -68						; size = 4
___t$ = 8						; size = 4
___s$ = 12						; size = 4
___n$ = 16						; size = 4
___f$ = 20						; size = 4
??_H@YGXPAXIIP6EPAX0@Z@Z PROC				; `vector constructor iterator', COMDAT
	push	ebp
	mov	ebp, esp
	sub	esp, 68					; 00000044H
	push	ebx
	push	esi
	push	edi
$LN2@vector:
	mov	eax, DWORD PTR ___n$[ebp]
	mov	DWORD PTR tv66[ebp], eax
	mov	ecx, DWORD PTR ___n$[ebp]
	sub	ecx, 1
	mov	DWORD PTR ___n$[ebp], ecx
	cmp	DWORD PTR tv66[ebp], 0
	jbe	SHORT $LN1@vector
	mov	ecx, DWORD PTR ___t$[ebp]
	call	DWORD PTR ___f$[ebp]
	mov	eax, DWORD PTR ___t$[ebp]
	add	eax, DWORD PTR ___s$[ebp]
	mov	DWORD PTR ___t$[ebp], eax
	jmp	SHORT $LN2@vector
$LN1@vector:
	pop	edi
	pop	esi
	pop	ebx
	mov	esp, ebp
	pop	ebp
	ret	16					; 00000010H
??_H@YGXPAXIIP6EPAX0@Z@Z ENDP				; `vector constructor iterator'
_TEXT	ENDS
END
