; Listing generated by Microsoft (R) Optimizing Compiler Version 19.00.24247.2 

	TITLE	D:\!DIFFUSION 2020\source code 2022\client-server\client\text_message.cpp
	.686P
	.XMM
	include listing.inc
	.model	flat

INCLUDELIB LIBCMT
INCLUDELIB OLDNAMES

PUBLIC	??_H@YGXPAXIIP6EPAX0@Z@Z			; `vector constructor iterator'
PUBLIC	??__G@YGXPAX0IIP6EPAX00@Z@Z			; `vector copy constructor iterator'
PUBLIC	?Init@CHudTextMessage@@UAEHXZ			; CHudTextMessage::Init
PUBLIC	?LocaliseTextString@CHudTextMessage@@SAPADPBDPADH@Z ; CHudTextMessage::LocaliseTextString
PUBLIC	?BufferedLocaliseTextString@CHudTextMessage@@SAPADPBD@Z ; CHudTextMessage::BufferedLocaliseTextString
PUBLIC	?LookupString@CHudTextMessage@@QAEPADPBDPAH@Z	; CHudTextMessage::LookupString
PUBLIC	?MsgFunc_TextMsg@CHudTextMessage@@QAEHPBDHPAX@Z	; CHudTextMessage::MsgFunc_TextMsg
PUBLIC	?__MsgFunc_TextMsg@@YAHPBDHPAX@Z		; __MsgFunc_TextMsg
PUBLIC	?StripEndNewlineFromString@@YAXPAD@Z		; StripEndNewlineFromString
PUBLIC	?ConvertCRtoNL@@YAPADPAD@Z			; ConvertCRtoNL
PUBLIC	??_C@_07GMGJNMMC@TextMsg?$AA@			; `string'
PUBLIC	??_C@_00CNPNBAHC@?$AA@				; `string'
EXTRN	_strcpy:PROC
EXTRN	_strlen:PROC
EXTRN	?Q_snprintf@@YAHPADIPBDZZ:PROC			; Q_snprintf
EXTRN	?SayTextPrint@CHudSayText@@QAEXPBDHH@Z:PROC	; CHudSayText::SayTextPrint
EXTRN	?AddHudElem@CHud@@QAEXPAVCHudBase@@@Z:PROC	; CHud::AddHudElem
EXTRN	?BEGIN_READ@@YAXPBDPAXH@Z:PROC			; BEGIN_READ
EXTRN	?END_READ@@YAXXZ:PROC				; END_READ
EXTRN	?READ_BYTE@@YAHXZ:PROC				; READ_BYTE
EXTRN	?READ_STRING@@YAPADXZ:PROC			; READ_STRING
EXTRN	?gEngfuncs@@3Ucl_enginefuncs_s@@A:BYTE		; gEngfuncs
EXTRN	?gHUD@@3VCHud@@A:BYTE				; gHUD
_BSS	SEGMENT
?word_buf@?6??LocaliseTextString@CHudTextMessage@@SAPADPBDPADH@Z@4PADA DB 0ffH DUP (?) ; `CHudTextMessage::LocaliseTextString'::`7'::word_buf
	ALIGN	4

?dst_buffer@?1??BufferedLocaliseTextString@CHudTextMessage@@SAPADPBD@Z@4PADA DB 0400H DUP (?) ; `CHudTextMessage::BufferedLocaliseTextString'::`2'::dst_buffer
?szBuf@?1??MsgFunc_TextMsg@CHudTextMessage@@QAEHPBDHPAX@Z@4PAY0IA@DA DB 0300H DUP (?) ; `CHudTextMessage::MsgFunc_TextMsg'::`2'::szBuf
_BSS	ENDS
;	COMDAT ??_C@_00CNPNBAHC@?$AA@
CONST	SEGMENT
??_C@_00CNPNBAHC@?$AA@ DB 00H				; `string'
CONST	ENDS
;	COMDAT ??_C@_07GMGJNMMC@TextMsg?$AA@
CONST	SEGMENT
??_C@_07GMGJNMMC@TextMsg?$AA@ DB 'TextMsg', 00H		; `string'
CONST	ENDS
; Function compile flags: /Odtp /ZI
; File d:\!diffusion 2020\source code 2022\client-server\client\text_message.cpp
;	COMDAT ?ConvertCRtoNL@@YAPADPAD@Z
_TEXT	SEGMENT
_ch$1 = -4						; size = 4
_str$ = 8						; size = 4
?ConvertCRtoNL@@YAPADPAD@Z PROC				; ConvertCRtoNL, COMDAT

; 139  : {

	push	ebp
	mov	ebp, esp
	sub	esp, 68					; 00000044H
	push	ebx
	push	esi
	push	edi

; 140  : 	for( char *ch = str; *ch != 0; ch++ )

	mov	eax, DWORD PTR _str$[ebp]
	mov	DWORD PTR _ch$1[ebp], eax
	jmp	SHORT $LN4@ConvertCRt
$LN2@ConvertCRt:
	mov	eax, DWORD PTR _ch$1[ebp]
	add	eax, 1
	mov	DWORD PTR _ch$1[ebp], eax
$LN4@ConvertCRt:
	mov	eax, DWORD PTR _ch$1[ebp]
	movsx	ecx, BYTE PTR [eax]
	test	ecx, ecx
	je	SHORT $LN3@ConvertCRt

; 141  : 		if( *ch == '\r' )

	mov	eax, DWORD PTR _ch$1[ebp]
	movsx	ecx, BYTE PTR [eax]
	cmp	ecx, 13					; 0000000dH
	jne	SHORT $LN5@ConvertCRt

; 142  : 			*ch = '\n';

	mov	eax, DWORD PTR _ch$1[ebp]
	mov	BYTE PTR [eax], 10			; 0000000aH
$LN5@ConvertCRt:

; 143  : 	return str;

	jmp	SHORT $LN2@ConvertCRt
$LN3@ConvertCRt:
	mov	eax, DWORD PTR _str$[ebp]

; 144  : }

	pop	edi
	pop	esi
	pop	ebx
	mov	esp, ebp
	pop	ebp
	ret	0
?ConvertCRtoNL@@YAPADPAD@Z ENDP				; ConvertCRtoNL
_TEXT	ENDS
; Function compile flags: /Odtp /ZI
; File d:\!diffusion 2020\source code 2022\client-server\client\text_message.cpp
;	COMDAT ?StripEndNewlineFromString@@YAXPAD@Z
_TEXT	SEGMENT
_s$ = -4						; size = 4
_str$ = 8						; size = 4
?StripEndNewlineFromString@@YAXPAD@Z PROC		; StripEndNewlineFromString, COMDAT

; 130  : {

	push	ebp
	mov	ebp, esp
	sub	esp, 68					; 00000044H
	push	ebx
	push	esi
	push	edi

; 131  : 	int s = strlen( str ) - 1;

	mov	eax, DWORD PTR _str$[ebp]
	push	eax
	call	_strlen
	add	esp, 4
	sub	eax, 1
	mov	DWORD PTR _s$[ebp], eax

; 132  : 	if ( str[s] == '\n' || str[s] == '\r' )

	mov	eax, DWORD PTR _str$[ebp]
	add	eax, DWORD PTR _s$[ebp]
	movsx	ecx, BYTE PTR [eax]
	cmp	ecx, 10					; 0000000aH
	je	SHORT $LN3@StripEndNe
	mov	eax, DWORD PTR _str$[ebp]
	add	eax, DWORD PTR _s$[ebp]
	movsx	ecx, BYTE PTR [eax]
	cmp	ecx, 13					; 0000000dH
	jne	SHORT $LN1@StripEndNe
$LN3@StripEndNe:

; 133  : 		str[s] = 0;

	mov	eax, DWORD PTR _str$[ebp]
	add	eax, DWORD PTR _s$[ebp]
	mov	BYTE PTR [eax], 0
$LN1@StripEndNe:

; 134  : }

	pop	edi
	pop	esi
	pop	ebx
	mov	esp, ebp
	pop	ebp
	ret	0
?StripEndNewlineFromString@@YAXPAD@Z ENDP		; StripEndNewlineFromString
_TEXT	ENDS
; Function compile flags: /Odtp /ZI
; File d:\!diffusion 2020\source code 2022\client-server\client\text_message.cpp
;	COMDAT ?__MsgFunc_TextMsg@@YAHPBDHPAX@Z
_TEXT	SEGMENT
_pszName$ = 8						; size = 4
_iSize$ = 12						; size = 4
_pbuf$ = 16						; size = 4
?__MsgFunc_TextMsg@@YAHPBDHPAX@Z PROC			; __MsgFunc_TextMsg, COMDAT

; 27   : DECLARE_MESSAGE( m_TextMessage, TextMsg );

	push	ebp
	mov	ebp, esp
	sub	esp, 64					; 00000040H
	push	ebx
	push	esi
	push	edi
	mov	eax, DWORD PTR _pbuf$[ebp]
	push	eax
	mov	ecx, DWORD PTR _iSize$[ebp]
	push	ecx
	mov	edx, DWORD PTR _pszName$[ebp]
	push	edx
	mov	ecx, OFFSET ?gHUD@@3VCHud@@A+1456
	call	?MsgFunc_TextMsg@CHudTextMessage@@QAEHPBDHPAX@Z ; CHudTextMessage::MsgFunc_TextMsg
	pop	edi
	pop	esi
	pop	ebx
	mov	esp, ebp
	pop	ebp
	ret	0
?__MsgFunc_TextMsg@@YAHPBDHPAX@Z ENDP			; __MsgFunc_TextMsg
_TEXT	ENDS
; Function compile flags: /Odtp /ZI
; File d:\!diffusion 2020\source code 2022\client-server\client\text_message.cpp
;	COMDAT ?MsgFunc_TextMsg@CHudTextMessage@@QAEHPBDHPAX@Z
_TEXT	SEGMENT
tv156 = -100						; size = 4
_psz$ = -32						; size = 4
_sstr4$ = -28						; size = 4
_sstr3$ = -24						; size = 4
_sstr2$ = -20						; size = 4
_sstr1$ = -16						; size = 4
_msg_text$ = -12					; size = 4
_msg_dest$ = -8						; size = 4
_this$ = -4						; size = 4
_pszName$ = 8						; size = 4
_iSize$ = 12						; size = 4
_pbuf$ = 16						; size = 4
?MsgFunc_TextMsg@CHudTextMessage@@QAEHPBDHPAX@Z PROC	; CHudTextMessage::MsgFunc_TextMsg, COMDAT
; _this$ = ecx

; 159  : {

	push	ebp
	mov	ebp, esp
	sub	esp, 100				; 00000064H
	push	ebx
	push	esi
	push	edi
	mov	DWORD PTR _this$[ebp], ecx

; 160  : 	BEGIN_READ( pszName, pbuf, iSize );

	mov	eax, DWORD PTR _iSize$[ebp]
	push	eax
	mov	ecx, DWORD PTR _pbuf$[ebp]
	push	ecx
	mov	edx, DWORD PTR _pszName$[ebp]
	push	edx
	call	?BEGIN_READ@@YAXPBDPAXH@Z		; BEGIN_READ
	add	esp, 12					; 0000000cH

; 161  : 
; 162  : 	int msg_dest = READ_BYTE();

	call	?READ_BYTE@@YAHXZ			; READ_BYTE
	mov	DWORD PTR _msg_dest$[ebp], eax

; 163  : 
; 164  : 	static char szBuf[6][128];
; 165  : 	char *msg_text = LookupString( READ_STRING(), &msg_dest );

	lea	eax, DWORD PTR _msg_dest$[ebp]
	push	eax
	call	?READ_STRING@@YAPADXZ			; READ_STRING
	push	eax
	mov	ecx, DWORD PTR _this$[ebp]
	call	?LookupString@CHudTextMessage@@QAEPADPBDPAH@Z ; CHudTextMessage::LookupString
	mov	DWORD PTR _msg_text$[ebp], eax

; 166  : 	msg_text = strcpy( szBuf[0], msg_text );

	mov	eax, DWORD PTR _msg_text$[ebp]
	push	eax
	mov	ecx, 128				; 00000080H
	imul	edx, ecx, 0
	add	edx, OFFSET ?szBuf@?1??MsgFunc_TextMsg@CHudTextMessage@@QAEHPBDHPAX@Z@4PAY0IA@DA
	push	edx
	call	_strcpy
	add	esp, 8
	mov	DWORD PTR _msg_text$[ebp], eax

; 167  : 
; 168  : 	// keep reading strings and using C format strings for subsituting the strings into the localised text string
; 169  : 	char *sstr1 = LookupString( READ_STRING() );

	push	0
	call	?READ_STRING@@YAPADXZ			; READ_STRING
	push	eax
	mov	ecx, DWORD PTR _this$[ebp]
	call	?LookupString@CHudTextMessage@@QAEPADPBDPAH@Z ; CHudTextMessage::LookupString
	mov	DWORD PTR _sstr1$[ebp], eax

; 170  : 	sstr1 = strcpy( szBuf[1], sstr1 );

	mov	eax, DWORD PTR _sstr1$[ebp]
	push	eax
	mov	ecx, 128				; 00000080H
	shl	ecx, 0
	add	ecx, OFFSET ?szBuf@?1??MsgFunc_TextMsg@CHudTextMessage@@QAEHPBDHPAX@Z@4PAY0IA@DA
	push	ecx
	call	_strcpy
	add	esp, 8
	mov	DWORD PTR _sstr1$[ebp], eax

; 171  : 	StripEndNewlineFromString( sstr1 );  // these strings are meant for subsitution into the main strings, so cull the automatic end newlines

	mov	eax, DWORD PTR _sstr1$[ebp]
	push	eax
	call	?StripEndNewlineFromString@@YAXPAD@Z	; StripEndNewlineFromString
	add	esp, 4

; 172  : 	char *sstr2 = LookupString( READ_STRING() );

	push	0
	call	?READ_STRING@@YAPADXZ			; READ_STRING
	push	eax
	mov	ecx, DWORD PTR _this$[ebp]
	call	?LookupString@CHudTextMessage@@QAEPADPBDPAH@Z ; CHudTextMessage::LookupString
	mov	DWORD PTR _sstr2$[ebp], eax

; 173  : 	sstr2 = strcpy( szBuf[2], sstr2 );

	mov	eax, DWORD PTR _sstr2$[ebp]
	push	eax
	mov	ecx, 128				; 00000080H
	shl	ecx, 1
	add	ecx, OFFSET ?szBuf@?1??MsgFunc_TextMsg@CHudTextMessage@@QAEHPBDHPAX@Z@4PAY0IA@DA
	push	ecx
	call	_strcpy
	add	esp, 8
	mov	DWORD PTR _sstr2$[ebp], eax

; 174  : 	StripEndNewlineFromString( sstr2 );

	mov	eax, DWORD PTR _sstr2$[ebp]
	push	eax
	call	?StripEndNewlineFromString@@YAXPAD@Z	; StripEndNewlineFromString
	add	esp, 4

; 175  : 	char *sstr3 = LookupString( READ_STRING() );

	push	0
	call	?READ_STRING@@YAPADXZ			; READ_STRING
	push	eax
	mov	ecx, DWORD PTR _this$[ebp]
	call	?LookupString@CHudTextMessage@@QAEPADPBDPAH@Z ; CHudTextMessage::LookupString
	mov	DWORD PTR _sstr3$[ebp], eax

; 176  : 	sstr3 = strcpy( szBuf[3], sstr3 );

	mov	eax, DWORD PTR _sstr3$[ebp]
	push	eax
	mov	ecx, 128				; 00000080H
	imul	edx, ecx, 3
	add	edx, OFFSET ?szBuf@?1??MsgFunc_TextMsg@CHudTextMessage@@QAEHPBDHPAX@Z@4PAY0IA@DA
	push	edx
	call	_strcpy
	add	esp, 8
	mov	DWORD PTR _sstr3$[ebp], eax

; 177  : 	StripEndNewlineFromString( sstr3 );

	mov	eax, DWORD PTR _sstr3$[ebp]
	push	eax
	call	?StripEndNewlineFromString@@YAXPAD@Z	; StripEndNewlineFromString
	add	esp, 4

; 178  : 	char *sstr4 = LookupString( READ_STRING() );

	push	0
	call	?READ_STRING@@YAPADXZ			; READ_STRING
	push	eax
	mov	ecx, DWORD PTR _this$[ebp]
	call	?LookupString@CHudTextMessage@@QAEPADPBDPAH@Z ; CHudTextMessage::LookupString
	mov	DWORD PTR _sstr4$[ebp], eax

; 179  : 	sstr4 = strcpy( szBuf[4], sstr4 );

	mov	eax, DWORD PTR _sstr4$[ebp]
	push	eax
	mov	ecx, 128				; 00000080H
	shl	ecx, 2
	add	ecx, OFFSET ?szBuf@?1??MsgFunc_TextMsg@CHudTextMessage@@QAEHPBDHPAX@Z@4PAY0IA@DA
	push	ecx
	call	_strcpy
	add	esp, 8
	mov	DWORD PTR _sstr4$[ebp], eax

; 180  : 	StripEndNewlineFromString( sstr4 );

	mov	eax, DWORD PTR _sstr4$[ebp]
	push	eax
	call	?StripEndNewlineFromString@@YAXPAD@Z	; StripEndNewlineFromString
	add	esp, 4

; 181  : 	char *psz = szBuf[5];

	mov	eax, 128				; 00000080H
	imul	ecx, eax, 5
	add	ecx, OFFSET ?szBuf@?1??MsgFunc_TextMsg@CHudTextMessage@@QAEHPBDHPAX@Z@4PAY0IA@DA
	mov	DWORD PTR _psz$[ebp], ecx

; 182  : 
; 183  : 	switch ( msg_dest )

	mov	eax, DWORD PTR _msg_dest$[ebp]
	mov	DWORD PTR tv156[ebp], eax
	mov	ecx, DWORD PTR tv156[ebp]
	sub	ecx, 1
	mov	DWORD PTR tv156[ebp], ecx
	cmp	DWORD PTR tv156[ebp], 3
	ja	$LN2@MsgFunc_Te
	mov	edx, DWORD PTR tv156[ebp]
	jmp	DWORD PTR $LN9@MsgFunc_Te[edx*4]
$LN4@MsgFunc_Te:

; 184  : 	{
; 185  : 	case HUD_PRINTCENTER:
; 186  : 		Q_snprintf( psz, sizeof( szBuf[5] ), msg_text, sstr1, sstr2, sstr3, sstr4 );

	mov	eax, DWORD PTR _sstr4$[ebp]
	push	eax
	mov	ecx, DWORD PTR _sstr3$[ebp]
	push	ecx
	mov	edx, DWORD PTR _sstr2$[ebp]
	push	edx
	mov	eax, DWORD PTR _sstr1$[ebp]
	push	eax
	mov	ecx, DWORD PTR _msg_text$[ebp]
	push	ecx
	push	128					; 00000080H
	mov	edx, DWORD PTR _psz$[ebp]
	push	edx
	call	?Q_snprintf@@YAHPADIPBDZZ		; Q_snprintf
	add	esp, 28					; 0000001cH

; 187  : 		CenterPrint( ConvertCRtoNL( psz ));

	mov	eax, DWORD PTR _psz$[ebp]
	push	eax
	call	?ConvertCRtoNL@@YAPADPAD@Z		; ConvertCRtoNL
	add	esp, 4
	push	eax
	call	DWORD PTR ?gEngfuncs@@3Ucl_enginefuncs_s@@A+124
	add	esp, 4

; 188  : 		break;

	jmp	$LN2@MsgFunc_Te
$LN5@MsgFunc_Te:

; 189  : 	case HUD_PRINTNOTIFY:
; 190  : 		psz[0] = 1;  // mark this message to go into the notify buffer

	mov	eax, 1
	imul	ecx, eax, 0
	mov	edx, DWORD PTR _psz$[ebp]
	mov	BYTE PTR [edx+ecx], 1

; 191  : 		Q_snprintf( psz + 1, sizeof( szBuf[5] ), msg_text, sstr1, sstr2, sstr3, sstr4 );

	mov	eax, DWORD PTR _sstr4$[ebp]
	push	eax
	mov	ecx, DWORD PTR _sstr3$[ebp]
	push	ecx
	mov	edx, DWORD PTR _sstr2$[ebp]
	push	edx
	mov	eax, DWORD PTR _sstr1$[ebp]
	push	eax
	mov	ecx, DWORD PTR _msg_text$[ebp]
	push	ecx
	push	128					; 00000080H
	mov	edx, DWORD PTR _psz$[ebp]
	add	edx, 1
	push	edx
	call	?Q_snprintf@@YAHPADIPBDZZ		; Q_snprintf
	add	esp, 28					; 0000001cH

; 192  : 		ConsolePrint( ConvertCRtoNL( psz ) );

	mov	eax, DWORD PTR _psz$[ebp]
	push	eax
	call	?ConvertCRtoNL@@YAPADPAD@Z		; ConvertCRtoNL
	add	esp, 4
	push	eax
	call	DWORD PTR ?gEngfuncs@@3Ucl_enginefuncs_s@@A+120
	add	esp, 4

; 193  : 		break;

	jmp	$LN2@MsgFunc_Te
$LN6@MsgFunc_Te:

; 194  : 
; 195  : 	case HUD_PRINTTALK:
; 196  : 		Q_snprintf( psz, sizeof( szBuf[5] ), msg_text, sstr1, sstr2, sstr3, sstr4 );

	mov	eax, DWORD PTR _sstr4$[ebp]
	push	eax
	mov	ecx, DWORD PTR _sstr3$[ebp]
	push	ecx
	mov	edx, DWORD PTR _sstr2$[ebp]
	push	edx
	mov	eax, DWORD PTR _sstr1$[ebp]
	push	eax
	mov	ecx, DWORD PTR _msg_text$[ebp]
	push	ecx
	push	128					; 00000080H
	mov	edx, DWORD PTR _psz$[ebp]
	push	edx
	call	?Q_snprintf@@YAHPADIPBDZZ		; Q_snprintf
	add	esp, 28					; 0000001cH

; 197  : 		gHUD.m_SayText.SayTextPrint( ConvertCRtoNL( psz ), 128 );

	push	-1
	push	128					; 00000080H
	mov	eax, DWORD PTR _psz$[ebp]
	push	eax
	call	?ConvertCRtoNL@@YAPADPAD@Z		; ConvertCRtoNL
	add	esp, 4
	push	eax
	mov	ecx, OFFSET ?gHUD@@3VCHud@@A+1384
	call	?SayTextPrint@CHudSayText@@QAEXPBDHH@Z	; CHudSayText::SayTextPrint

; 198  : 		break;

	jmp	SHORT $LN2@MsgFunc_Te
$LN7@MsgFunc_Te:

; 199  : 
; 200  : 	case HUD_PRINTCONSOLE:
; 201  : 		Q_snprintf( psz, sizeof( szBuf[5] ), msg_text, sstr1, sstr2, sstr3, sstr4 );

	mov	eax, DWORD PTR _sstr4$[ebp]
	push	eax
	mov	ecx, DWORD PTR _sstr3$[ebp]
	push	ecx
	mov	edx, DWORD PTR _sstr2$[ebp]
	push	edx
	mov	eax, DWORD PTR _sstr1$[ebp]
	push	eax
	mov	ecx, DWORD PTR _msg_text$[ebp]
	push	ecx
	push	128					; 00000080H
	mov	edx, DWORD PTR _psz$[ebp]
	push	edx
	call	?Q_snprintf@@YAHPADIPBDZZ		; Q_snprintf
	add	esp, 28					; 0000001cH

; 202  : 		ConsolePrint( ConvertCRtoNL( psz ));

	mov	eax, DWORD PTR _psz$[ebp]
	push	eax
	call	?ConvertCRtoNL@@YAPADPAD@Z		; ConvertCRtoNL
	add	esp, 4
	push	eax
	call	DWORD PTR ?gEngfuncs@@3Ucl_enginefuncs_s@@A+120
	add	esp, 4
$LN2@MsgFunc_Te:

; 203  : 		break;
; 204  : 	}
; 205  : 
; 206  : 	END_READ();

	call	?END_READ@@YAXXZ			; END_READ

; 207  : 
; 208  : 	return 1;

	mov	eax, 1

; 209  : }

	pop	edi
	pop	esi
	pop	ebx
	mov	esp, ebp
	pop	ebp
	ret	12					; 0000000cH
	npad	1
$LN9@MsgFunc_Te:
	DD	$LN5@MsgFunc_Te
	DD	$LN7@MsgFunc_Te
	DD	$LN6@MsgFunc_Te
	DD	$LN4@MsgFunc_Te
?MsgFunc_TextMsg@CHudTextMessage@@QAEHPBDHPAX@Z ENDP	; CHudTextMessage::MsgFunc_TextMsg
_TEXT	ENDS
; Function compile flags: /Odtp /ZI
; File d:\!diffusion 2020\source code 2022\client-server\client\text_message.cpp
;	COMDAT ?LookupString@CHudTextMessage@@QAEPADPBDPAH@Z
_TEXT	SEGMENT
_clmsg$1 = -8						; size = 4
_this$ = -4						; size = 4
_msg$ = 8						; size = 4
_msg_dest$ = 12						; size = 4
?LookupString@CHudTextMessage@@QAEPADPBDPAH@Z PROC	; CHudTextMessage::LookupString, COMDAT
; _this$ = ecx

; 100  : {

	push	ebp
	mov	ebp, esp
	sub	esp, 72					; 00000048H
	push	ebx
	push	esi
	push	edi
	mov	DWORD PTR _this$[ebp], ecx

; 101  : 	if( !msg ) return "";

	cmp	DWORD PTR _msg$[ebp], 0
	jne	SHORT $LN2@LookupStri
	mov	eax, OFFSET ??_C@_00CNPNBAHC@?$AA@
	jmp	SHORT $LN1@LookupStri
$LN2@LookupStri:

; 102  : 
; 103  : 	// '#' character indicates this is a reference to a string in titles.txt, and not the string itself
; 104  : 	if( msg[0] == '#' ) 

	mov	eax, 1
	imul	ecx, eax, 0
	mov	edx, DWORD PTR _msg$[ebp]
	movsx	eax, BYTE PTR [edx+ecx]
	cmp	eax, 35					; 00000023H
	jne	SHORT $LN3@LookupStri

; 105  : 	{
; 106  : 		// this is a message name, so look up the real message
; 107  : 		client_textmessage_t *clmsg = TextMessageGet( msg + 1 );

	mov	eax, DWORD PTR _msg$[ebp]
	add	eax, 1
	push	eax
	call	DWORD PTR ?gEngfuncs@@3Ucl_enginefuncs_s@@A+100
	add	esp, 4
	mov	DWORD PTR _clmsg$1[ebp], eax

; 108  : 
; 109  : 		if( !clmsg || !( clmsg->pMessage ))

	cmp	DWORD PTR _clmsg$1[ebp], 0
	je	SHORT $LN6@LookupStri
	mov	eax, DWORD PTR _clmsg$1[ebp]
	cmp	DWORD PTR [eax+40], 0
	jne	SHORT $LN5@LookupStri
$LN6@LookupStri:

; 110  : 			return (char*)msg; // lookup failed, so return the original string

	mov	eax, DWORD PTR _msg$[ebp]
	jmp	SHORT $LN1@LookupStri
$LN5@LookupStri:

; 111  : 		
; 112  : 		if( msg_dest )

	cmp	DWORD PTR _msg_dest$[ebp], 0
	je	SHORT $LN7@LookupStri

; 113  : 		{
; 114  : 			// check to see if titles.txt info overrides msg destination
; 115  : 			// if clmsg->effect is less than 0, then clmsg->effect holds -1 * message_destination
; 116  : 			if( clmsg->effect < 0 )

	mov	eax, DWORD PTR _clmsg$1[ebp]
	cmp	DWORD PTR [eax], 0
	jge	SHORT $LN7@LookupStri

; 117  : 				*msg_dest = -clmsg->effect;

	mov	eax, DWORD PTR _clmsg$1[ebp]
	mov	ecx, DWORD PTR [eax]
	neg	ecx
	mov	edx, DWORD PTR _msg_dest$[ebp]
	mov	DWORD PTR [edx], ecx
$LN7@LookupStri:

; 118  : 		}
; 119  : 
; 120  : 		return (char*)clmsg->pMessage;

	mov	eax, DWORD PTR _clmsg$1[ebp]
	mov	eax, DWORD PTR [eax+40]
	jmp	SHORT $LN1@LookupStri

; 121  : 	}
; 122  : 	else

	jmp	SHORT $LN1@LookupStri
$LN3@LookupStri:

; 123  : 	{
; 124  : 		// nothing special about this message, so just return the same string
; 125  : 		return (char*)msg;

	mov	eax, DWORD PTR _msg$[ebp]
$LN1@LookupStri:

; 126  : 	}
; 127  : }

	pop	edi
	pop	esi
	pop	ebx
	mov	esp, ebp
	pop	ebp
	ret	8
?LookupString@CHudTextMessage@@QAEPADPBDPAH@Z ENDP	; CHudTextMessage::LookupString
_TEXT	ENDS
; Function compile flags: /Odtp /ZI
; File d:\!diffusion 2020\source code 2022\client-server\client\text_message.cpp
;	COMDAT ?BufferedLocaliseTextString@CHudTextMessage@@SAPADPBD@Z
_TEXT	SEGMENT
_msg$ = 8						; size = 4
?BufferedLocaliseTextString@CHudTextMessage@@SAPADPBD@Z PROC ; CHudTextMessage::BufferedLocaliseTextString, COMDAT

; 92   : {

	push	ebp
	mov	ebp, esp
	sub	esp, 64					; 00000040H
	push	ebx
	push	esi
	push	edi

; 93   : 	static char dst_buffer[1024];
; 94   : 	LocaliseTextString( msg, dst_buffer, 1024 );

	push	1024					; 00000400H
	push	OFFSET ?dst_buffer@?1??BufferedLocaliseTextString@CHudTextMessage@@SAPADPBD@Z@4PADA
	mov	eax, DWORD PTR _msg$[ebp]
	push	eax
	call	?LocaliseTextString@CHudTextMessage@@SAPADPBDPADH@Z ; CHudTextMessage::LocaliseTextString
	add	esp, 12					; 0000000cH

; 95   : 	return dst_buffer;

	mov	eax, OFFSET ?dst_buffer@?1??BufferedLocaliseTextString@CHudTextMessage@@SAPADPBD@Z@4PADA

; 96   : }

	pop	edi
	pop	esi
	pop	ebx
	mov	esp, ebp
	pop	ebp
	ret	0
?BufferedLocaliseTextString@CHudTextMessage@@SAPADPBD@Z ENDP ; CHudTextMessage::BufferedLocaliseTextString
_TEXT	ENDS
; Function compile flags: /Odtp /ZI
; File d:\!diffusion 2020\source code 2022\client-server\client\text_message.cpp
;	COMDAT ?LocaliseTextString@CHudTextMessage@@SAPADPBDPADH@Z
_TEXT	SEGMENT
_wsrc$1 = -24						; size = 4
_clmsg$2 = -20						; size = 4
_word_start$3 = -16					; size = 4
_wdst$4 = -12						; size = 4
_src$5 = -8						; size = 4
_dst$ = -4						; size = 4
_msg$ = 8						; size = 4
_dst_buffer$ = 12					; size = 4
_buffer_size$ = 16					; size = 4
?LocaliseTextString@CHudTextMessage@@SAPADPBDPADH@Z PROC ; CHudTextMessage::LocaliseTextString, COMDAT

; 44   : {

	push	ebp
	mov	ebp, esp
	sub	esp, 88					; 00000058H
	push	ebx
	push	esi
	push	edi

; 45   : 	char *dst = dst_buffer;

	mov	eax, DWORD PTR _dst_buffer$[ebp]
	mov	DWORD PTR _dst$[ebp], eax

; 46   : 
; 47   : 	for( char *src = (char *)msg; *src != 0 && buffer_size > 0; buffer_size-- )

	mov	eax, DWORD PTR _msg$[ebp]
	mov	DWORD PTR _src$5[ebp], eax
	jmp	SHORT $LN4@LocaliseTe
$LN2@LocaliseTe:
	mov	eax, DWORD PTR _buffer_size$[ebp]
	sub	eax, 1
	mov	DWORD PTR _buffer_size$[ebp], eax
$LN4@LocaliseTe:
	mov	eax, DWORD PTR _src$5[ebp]
	movsx	ecx, BYTE PTR [eax]
	test	ecx, ecx
	je	$LN3@LocaliseTe
	cmp	DWORD PTR _buffer_size$[ebp], 0
	jle	$LN3@LocaliseTe

; 48   : 	{
; 49   : 		if( *src == '#' )

	mov	eax, DWORD PTR _src$5[ebp]
	movsx	ecx, BYTE PTR [eax]
	cmp	ecx, 35					; 00000023H
	jne	$LN11@LocaliseTe

; 50   : 		{
; 51   : 			// cut msg name out of string
; 52   : 			static char word_buf[255];
; 53   : 			char *wdst = word_buf, *word_start = src;

	mov	DWORD PTR _wdst$4[ebp], OFFSET ?word_buf@?6??LocaliseTextString@CHudTextMessage@@SAPADPBDPADH@Z@4PADA
	mov	eax, DWORD PTR _src$5[ebp]
	mov	DWORD PTR _word_start$3[ebp], eax

; 54   : 			for( ++src ; (*src >= 'A' && *src <= 'z') || (*src >= '0' && *src <= '9'); wdst++, src++ )

	mov	eax, DWORD PTR _src$5[ebp]
	add	eax, 1
	mov	DWORD PTR _src$5[ebp], eax
	jmp	SHORT $LN7@LocaliseTe
$LN5@LocaliseTe:
	mov	eax, DWORD PTR _wdst$4[ebp]
	add	eax, 1
	mov	DWORD PTR _wdst$4[ebp], eax
	mov	ecx, DWORD PTR _src$5[ebp]
	add	ecx, 1
	mov	DWORD PTR _src$5[ebp], ecx
$LN7@LocaliseTe:
	mov	eax, DWORD PTR _src$5[ebp]
	movsx	ecx, BYTE PTR [eax]
	cmp	ecx, 65					; 00000041H
	jl	SHORT $LN14@LocaliseTe
	mov	eax, DWORD PTR _src$5[ebp]
	movsx	ecx, BYTE PTR [eax]
	cmp	ecx, 122				; 0000007aH
	jle	SHORT $LN13@LocaliseTe
$LN14@LocaliseTe:
	mov	eax, DWORD PTR _src$5[ebp]
	movsx	ecx, BYTE PTR [eax]
	cmp	ecx, 48					; 00000030H
	jl	SHORT $LN6@LocaliseTe
	mov	eax, DWORD PTR _src$5[ebp]
	movsx	ecx, BYTE PTR [eax]
	cmp	ecx, 57					; 00000039H
	jg	SHORT $LN6@LocaliseTe
$LN13@LocaliseTe:

; 55   : 			{
; 56   : 				*wdst = *src;

	mov	eax, DWORD PTR _wdst$4[ebp]
	mov	ecx, DWORD PTR _src$5[ebp]
	mov	dl, BYTE PTR [ecx]
	mov	BYTE PTR [eax], dl

; 57   : 			}

	jmp	SHORT $LN5@LocaliseTe
$LN6@LocaliseTe:

; 58   : 			*wdst = 0;

	mov	eax, DWORD PTR _wdst$4[ebp]
	mov	BYTE PTR [eax], 0

; 59   : 
; 60   : 			// lookup msg name in titles.txt
; 61   : 			client_textmessage_t *clmsg = TextMessageGet( word_buf );

	push	OFFSET ?word_buf@?6??LocaliseTextString@CHudTextMessage@@SAPADPBDPADH@Z@4PADA
	call	DWORD PTR ?gEngfuncs@@3Ucl_enginefuncs_s@@A+100
	add	esp, 4
	mov	DWORD PTR _clmsg$2[ebp], eax

; 62   : 
; 63   : 			if( !clmsg || !( clmsg->pMessage ))

	cmp	DWORD PTR _clmsg$2[ebp], 0
	je	SHORT $LN16@LocaliseTe
	mov	eax, DWORD PTR _clmsg$2[ebp]
	cmp	DWORD PTR [eax+40], 0
	jne	SHORT $LN15@LocaliseTe
$LN16@LocaliseTe:

; 64   : 			{
; 65   : 				src = word_start;

	mov	eax, DWORD PTR _word_start$3[ebp]
	mov	DWORD PTR _src$5[ebp], eax

; 66   : 				*dst = *src;

	mov	eax, DWORD PTR _dst$[ebp]
	mov	ecx, DWORD PTR _src$5[ebp]
	mov	dl, BYTE PTR [ecx]
	mov	BYTE PTR [eax], dl

; 67   : 				dst++, src++;

	mov	eax, DWORD PTR _dst$[ebp]
	add	eax, 1
	mov	DWORD PTR _dst$[ebp], eax
	mov	ecx, DWORD PTR _src$5[ebp]
	add	ecx, 1
	mov	DWORD PTR _src$5[ebp], ecx

; 68   : 				continue;

	jmp	$LN2@LocaliseTe
$LN15@LocaliseTe:

; 69   : 			}
; 70   : 
; 71   : 			// copy string into message over the msg name
; 72   : 			for( char *wsrc = (char *)clmsg->pMessage; *wsrc != 0; wsrc++, dst++ )

	mov	eax, DWORD PTR _clmsg$2[ebp]
	mov	ecx, DWORD PTR [eax+40]
	mov	DWORD PTR _wsrc$1[ebp], ecx
	jmp	SHORT $LN10@LocaliseTe
$LN8@LocaliseTe:
	mov	eax, DWORD PTR _wsrc$1[ebp]
	add	eax, 1
	mov	DWORD PTR _wsrc$1[ebp], eax
	mov	ecx, DWORD PTR _dst$[ebp]
	add	ecx, 1
	mov	DWORD PTR _dst$[ebp], ecx
$LN10@LocaliseTe:
	mov	eax, DWORD PTR _wsrc$1[ebp]
	movsx	ecx, BYTE PTR [eax]
	test	ecx, ecx
	je	SHORT $LN9@LocaliseTe

; 73   : 			{
; 74   : 				*dst = *wsrc;

	mov	eax, DWORD PTR _dst$[ebp]
	mov	ecx, DWORD PTR _wsrc$1[ebp]
	mov	dl, BYTE PTR [ecx]
	mov	BYTE PTR [eax], dl

; 75   : 			}

	jmp	SHORT $LN8@LocaliseTe
$LN9@LocaliseTe:

; 76   : 			*dst = 0;

	mov	eax, DWORD PTR _dst$[ebp]
	mov	BYTE PTR [eax], 0

; 77   : 		}
; 78   : 		else

	jmp	SHORT $LN12@LocaliseTe
$LN11@LocaliseTe:

; 79   : 		{
; 80   : 			*dst = *src;

	mov	eax, DWORD PTR _dst$[ebp]
	mov	ecx, DWORD PTR _src$5[ebp]
	mov	dl, BYTE PTR [ecx]
	mov	BYTE PTR [eax], dl

; 81   : 			dst++, src++;

	mov	eax, DWORD PTR _dst$[ebp]
	add	eax, 1
	mov	DWORD PTR _dst$[ebp], eax
	mov	ecx, DWORD PTR _src$5[ebp]
	add	ecx, 1
	mov	DWORD PTR _src$5[ebp], ecx

; 82   : 			*dst = 0;

	mov	eax, DWORD PTR _dst$[ebp]
	mov	BYTE PTR [eax], 0
$LN12@LocaliseTe:

; 83   : 		}
; 84   : 	}

	jmp	$LN2@LocaliseTe
$LN3@LocaliseTe:

; 85   : 
; 86   : 	dst_buffer[buffer_size-1] = 0; // ensure null termination

	mov	eax, DWORD PTR _dst_buffer$[ebp]
	add	eax, DWORD PTR _buffer_size$[ebp]
	mov	BYTE PTR [eax-1], 0

; 87   : 	return dst_buffer;

	mov	eax, DWORD PTR _dst_buffer$[ebp]

; 88   : }

	pop	edi
	pop	esi
	pop	ebx
	mov	esp, ebp
	pop	ebp
	ret	0
?LocaliseTextString@CHudTextMessage@@SAPADPBDPADH@Z ENDP ; CHudTextMessage::LocaliseTextString
_TEXT	ENDS
; Function compile flags: /Odtp /ZI
; File d:\!diffusion 2020\source code 2022\client-server\client\text_message.cpp
;	COMDAT ?Init@CHudTextMessage@@UAEHXZ
_TEXT	SEGMENT
_this$ = -4						; size = 4
?Init@CHudTextMessage@@UAEHXZ PROC			; CHudTextMessage::Init, COMDAT
; _this$ = ecx

; 30   : {

	push	ebp
	mov	ebp, esp
	sub	esp, 68					; 00000044H
	push	ebx
	push	esi
	push	edi
	mov	DWORD PTR _this$[ebp], ecx

; 31   : 	HOOK_MESSAGE( TextMsg );

	push	OFFSET ?__MsgFunc_TextMsg@@YAHPBDHPAX@Z	; __MsgFunc_TextMsg
	push	OFFSET ??_C@_07GMGJNMMC@TextMsg?$AA@
	call	DWORD PTR ?gEngfuncs@@3Ucl_enginefuncs_s@@A+72
	add	esp, 8

; 32   : 
; 33   : 	gHUD.AddHudElem( this );

	mov	eax, DWORD PTR _this$[ebp]
	push	eax
	mov	ecx, OFFSET ?gHUD@@3VCHud@@A		; gHUD
	call	?AddHudElem@CHud@@QAEXPAVCHudBase@@@Z	; CHud::AddHudElem

; 34   : 
; 35   : 	Reset();

	mov	eax, DWORD PTR _this$[ebp]
	mov	edx, DWORD PTR [eax]
	mov	ecx, DWORD PTR _this$[ebp]
	mov	eax, DWORD PTR [edx+20]
	call	eax

; 36   : 
; 37   : 	return 1;

	mov	eax, 1

; 38   : }

	pop	edi
	pop	esi
	pop	ebx
	mov	esp, ebp
	pop	ebp
	ret	0
?Init@CHudTextMessage@@UAEHXZ ENDP			; CHudTextMessage::Init
_TEXT	ENDS
; Function compile flags: /Odtp /ZI
;	COMDAT ??__G@YGXPAX0IIP6EPAX00@Z@Z
_TEXT	SEGMENT
tv66 = -68						; size = 4
___t$ = 8						; size = 4
___u$ = 12						; size = 4
___s$ = 16						; size = 4
___n$ = 20						; size = 4
___f$ = 24						; size = 4
??__G@YGXPAX0IIP6EPAX00@Z@Z PROC			; `vector copy constructor iterator', COMDAT
	push	ebp
	mov	ebp, esp
	sub	esp, 68					; 00000044H
	push	ebx
	push	esi
	push	edi
$LN2@vector:
	mov	eax, DWORD PTR ___n$[ebp]
	mov	DWORD PTR tv66[ebp], eax
	mov	ecx, DWORD PTR ___n$[ebp]
	sub	ecx, 1
	mov	DWORD PTR ___n$[ebp], ecx
	cmp	DWORD PTR tv66[ebp], 0
	jbe	SHORT $LN1@vector
	mov	eax, DWORD PTR ___u$[ebp]
	push	eax
	mov	ecx, DWORD PTR ___t$[ebp]
	call	DWORD PTR ___f$[ebp]
	mov	eax, DWORD PTR ___t$[ebp]
	add	eax, DWORD PTR ___s$[ebp]
	mov	DWORD PTR ___t$[ebp], eax
	mov	eax, DWORD PTR ___u$[ebp]
	add	eax, DWORD PTR ___s$[ebp]
	mov	DWORD PTR ___u$[ebp], eax
	jmp	SHORT $LN2@vector
$LN1@vector:
	pop	edi
	pop	esi
	pop	ebx
	mov	esp, ebp
	pop	ebp
	ret	20					; 00000014H
??__G@YGXPAX0IIP6EPAX00@Z@Z ENDP			; `vector copy constructor iterator'
_TEXT	ENDS
; Function compile flags: /Odtp /ZI
;	COMDAT ??_H@YGXPAXIIP6EPAX0@Z@Z
_TEXT	SEGMENT
tv66 = -68						; size = 4
___t$ = 8						; size = 4
___s$ = 12						; size = 4
___n$ = 16						; size = 4
___f$ = 20						; size = 4
??_H@YGXPAXIIP6EPAX0@Z@Z PROC				; `vector constructor iterator', COMDAT
	push	ebp
	mov	ebp, esp
	sub	esp, 68					; 00000044H
	push	ebx
	push	esi
	push	edi
$LN2@vector:
	mov	eax, DWORD PTR ___n$[ebp]
	mov	DWORD PTR tv66[ebp], eax
	mov	ecx, DWORD PTR ___n$[ebp]
	sub	ecx, 1
	mov	DWORD PTR ___n$[ebp], ecx
	cmp	DWORD PTR tv66[ebp], 0
	jbe	SHORT $LN1@vector
	mov	ecx, DWORD PTR ___t$[ebp]
	call	DWORD PTR ___f$[ebp]
	mov	eax, DWORD PTR ___t$[ebp]
	add	eax, DWORD PTR ___s$[ebp]
	mov	DWORD PTR ___t$[ebp], eax
	jmp	SHORT $LN2@vector
$LN1@vector:
	pop	edi
	pop	esi
	pop	ebx
	mov	esp, ebp
	pop	ebp
	ret	16					; 00000010H
??_H@YGXPAXIIP6EPAX0@Z@Z ENDP				; `vector constructor iterator'
_TEXT	ENDS
END
