; Listing generated by Microsoft (R) Optimizing Compiler Version 19.00.24247.2 

	TITLE	D:\!DIFFUSION 2020\source code 2022\client-server\client\train.cpp
	.686P
	.XMM
	include listing.inc
	.model	flat

INCLUDELIB LIBCMT
INCLUDELIB OLDNAMES

PUBLIC	??_H@YGXPAXIIP6EPAX0@Z@Z			; `vector constructor iterator'
PUBLIC	??__G@YGXPAX0IIP6EPAX00@Z@Z			; `vector copy constructor iterator'
PUBLIC	?Init@CHudTrain@@UAEHXZ				; CHudTrain::Init
PUBLIC	?VidInit@CHudTrain@@UAEHXZ			; CHudTrain::VidInit
PUBLIC	?Draw@CHudTrain@@UAEHM@Z			; CHudTrain::Draw
PUBLIC	?MsgFunc_Train@CHudTrain@@QAEHPBDHPAX@Z		; CHudTrain::MsgFunc_Train
PUBLIC	?UnpackRGB@@YAXAAH00K@Z				; UnpackRGB
PUBLIC	?__MsgFunc_Train@@YAHPBDHPAX@Z			; __MsgFunc_Train
PUBLIC	??_C@_05GFNCIBPC@Train?$AA@			; `string'
PUBLIC	??_C@_0BG@EGLADJEI@sprites?1640_train?4spr?$AA@	; `string'
EXTRN	?AddHudElem@CHud@@QAEXPAVCHudBase@@@Z:PROC	; CHud::AddHudElem
EXTRN	?LoadSprite@@YAHPBD@Z:PROC			; LoadSprite
EXTRN	?BEGIN_READ@@YAXPBDPAXH@Z:PROC			; BEGIN_READ
EXTRN	?END_READ@@YAXXZ:PROC				; END_READ
EXTRN	?READ_BYTE@@YAHXZ:PROC				; READ_BYTE
EXTRN	?gEngfuncs@@3Ucl_enginefuncs_s@@A:BYTE		; gEngfuncs
EXTRN	?gHUD@@3VCHud@@A:BYTE				; gHUD
;	COMDAT ??_C@_0BG@EGLADJEI@sprites?1640_train?4spr?$AA@
CONST	SEGMENT
??_C@_0BG@EGLADJEI@sprites?1640_train?4spr?$AA@ DB 'sprites/640_train.spr'
	DB	00H						; `string'
CONST	ENDS
;	COMDAT ??_C@_05GFNCIBPC@Train?$AA@
CONST	SEGMENT
??_C@_05GFNCIBPC@Train?$AA@ DB 'Train', 00H		; `string'
CONST	ENDS
; Function compile flags: /Odtp /ZI
; File d:\!diffusion 2020\source code 2022\client-server\client\train.cpp
;	COMDAT ?__MsgFunc_Train@@YAHPBDHPAX@Z
_TEXT	SEGMENT
_pszName$ = 8						; size = 4
_iSize$ = 12						; size = 4
_pbuf$ = 16						; size = 4
?__MsgFunc_Train@@YAHPBDHPAX@Z PROC			; __MsgFunc_Train, COMDAT

; 25   : DECLARE_MESSAGE( m_Train, Train )

	push	ebp
	mov	ebp, esp
	sub	esp, 64					; 00000040H
	push	ebx
	push	esi
	push	edi
	mov	eax, DWORD PTR _pbuf$[ebp]
	push	eax
	mov	ecx, DWORD PTR _iSize$[ebp]
	push	ecx
	mov	edx, DWORD PTR _pszName$[ebp]
	push	edx
	mov	ecx, OFFSET ?gHUD@@3VCHud@@A+488
	call	?MsgFunc_Train@CHudTrain@@QAEHPBDHPAX@Z	; CHudTrain::MsgFunc_Train
	pop	edi
	pop	esi
	pop	ebx
	mov	esp, ebp
	pop	ebp
	ret	0
?__MsgFunc_Train@@YAHPBDHPAX@Z ENDP			; __MsgFunc_Train
_TEXT	ENDS
; Function compile flags: /Odtp /ZI
; File d:\!diffusion 2020\source code 2022\client-server\client\utils.h
;	COMDAT ?UnpackRGB@@YAXAAH00K@Z
_TEXT	SEGMENT
_r$ = 8							; size = 4
_g$ = 12						; size = 4
_b$ = 16						; size = 4
_ulRGB$ = 20						; size = 4
?UnpackRGB@@YAXAAH00K@Z PROC				; UnpackRGB, COMDAT

; 98   : {\

	push	ebp
	mov	ebp, esp
	sub	esp, 64					; 00000040H
	push	ebx
	push	esi
	push	edi

; 99   : 	r = (ulRGB & 0xFF0000) >>16;\

	mov	eax, DWORD PTR _ulRGB$[ebp]
	and	eax, 16711680				; 00ff0000H
	shr	eax, 16					; 00000010H
	mov	ecx, DWORD PTR _r$[ebp]
	mov	DWORD PTR [ecx], eax

; 100  : 	g = (ulRGB & 0xFF00) >> 8;\

	mov	eax, DWORD PTR _ulRGB$[ebp]
	and	eax, 65280				; 0000ff00H
	shr	eax, 8
	mov	ecx, DWORD PTR _g$[ebp]
	mov	DWORD PTR [ecx], eax

; 101  : 	b = ulRGB & 0xFF;\

	mov	eax, DWORD PTR _ulRGB$[ebp]
	and	eax, 255				; 000000ffH
	mov	ecx, DWORD PTR _b$[ebp]
	mov	DWORD PTR [ecx], eax

; 102  : }

	pop	edi
	pop	esi
	pop	ebx
	mov	esp, ebp
	pop	ebp
	ret	0
?UnpackRGB@@YAXAAH00K@Z ENDP				; UnpackRGB
_TEXT	ENDS
; Function compile flags: /Odtp /ZI
; File d:\!diffusion 2020\source code 2022\client-server\client\train.cpp
;	COMDAT ?MsgFunc_Train@CHudTrain@@QAEHPBDHPAX@Z
_TEXT	SEGMENT
_this$ = -4						; size = 4
_pszName$ = 8						; size = 4
_iSize$ = 12						; size = 4
_pbuf$ = 16						; size = 4
?MsgFunc_Train@CHudTrain@@QAEHPBDHPAX@Z PROC		; CHudTrain::MsgFunc_Train, COMDAT
; _this$ = ecx

; 68   : {

	push	ebp
	mov	ebp, esp
	sub	esp, 68					; 00000044H
	push	ebx
	push	esi
	push	edi
	mov	DWORD PTR _this$[ebp], ecx

; 69   : 	BEGIN_READ( pszName, pbuf, iSize );

	mov	eax, DWORD PTR _iSize$[ebp]
	push	eax
	mov	ecx, DWORD PTR _pbuf$[ebp]
	push	ecx
	mov	edx, DWORD PTR _pszName$[ebp]
	push	edx
	call	?BEGIN_READ@@YAXPBDPAXH@Z		; BEGIN_READ
	add	esp, 12					; 0000000cH

; 70   : 
; 71   : 	// update Train data
; 72   : 	m_iPos = READ_BYTE();

	call	?READ_BYTE@@YAHXZ			; READ_BYTE
	mov	ecx, DWORD PTR _this$[ebp]
	mov	DWORD PTR [ecx+12], eax

; 73   : 
; 74   : 	if( m_iPos )

	mov	eax, DWORD PTR _this$[ebp]
	cmp	DWORD PTR [eax+12], 0
	je	SHORT $LN2@MsgFunc_Tr

; 75   : 		m_iFlags |= HUD_ACTIVE;

	mov	eax, DWORD PTR _this$[ebp]
	mov	ecx, DWORD PTR [eax+4]
	or	ecx, 1
	mov	edx, DWORD PTR _this$[ebp]
	mov	DWORD PTR [edx+4], ecx

; 76   : 	else

	jmp	SHORT $LN3@MsgFunc_Tr
$LN2@MsgFunc_Tr:

; 77   : 		m_iFlags &= ~HUD_ACTIVE;

	mov	eax, DWORD PTR _this$[ebp]
	mov	ecx, DWORD PTR [eax+4]
	and	ecx, -2					; fffffffeH
	mov	edx, DWORD PTR _this$[ebp]
	mov	DWORD PTR [edx+4], ecx
$LN3@MsgFunc_Tr:

; 78   : 
; 79   : 	END_READ();

	call	?END_READ@@YAXXZ			; END_READ

; 80   : 
; 81   : 	return 1;

	mov	eax, 1

; 82   : }

	pop	edi
	pop	esi
	pop	ebx
	mov	esp, ebp
	pop	ebp
	ret	12					; 0000000cH
?MsgFunc_Train@CHudTrain@@QAEHPBDHPAX@Z ENDP		; CHudTrain::MsgFunc_Train
_TEXT	ENDS
; Function compile flags: /Odtp /ZI
; File d:\!diffusion 2020\source code 2022\client-server\client\train.cpp
;	COMDAT ?Draw@CHudTrain@@UAEHM@Z
_TEXT	SEGMENT
_y$1 = -24						; size = 4
_x$2 = -20						; size = 4
_b$3 = -16						; size = 4
_g$4 = -12						; size = 4
_r$5 = -8						; size = 4
_this$ = -4						; size = 4
_fTime$ = 8						; size = 4
?Draw@CHudTrain@@UAEHM@Z PROC				; CHudTrain::Draw, COMDAT
; _this$ = ecx

; 47   : {

	push	ebp
	mov	ebp, esp
	sub	esp, 88					; 00000058H
	push	ebx
	push	esi
	push	edi
	mov	DWORD PTR _this$[ebp], ecx

; 48   : 	if( !m_hSprite )

	mov	eax, DWORD PTR _this$[ebp]
	cmp	DWORD PTR [eax+8], 0
	jne	SHORT $LN2@Draw

; 49   : 		m_hSprite = LoadSprite( "sprites/640_train.spr" );

	push	OFFSET ??_C@_0BG@EGLADJEI@sprites?1640_train?4spr?$AA@
	call	?LoadSprite@@YAHPBD@Z			; LoadSprite
	add	esp, 4
	mov	ecx, DWORD PTR _this$[ebp]
	mov	DWORD PTR [ecx+8], eax
$LN2@Draw:

; 50   : 
; 51   : 	if( m_iPos )

	mov	eax, DWORD PTR _this$[ebp]
	cmp	DWORD PTR [eax+12], 0
	je	$LN3@Draw

; 52   : 	{
; 53   : 		int r, g, b, x, y;
; 54   : 
; 55   : 		UnpackRGB( r, g, b, gHUD.m_iHUDColor );

	mov	eax, DWORD PTR ?gHUD@@3VCHud@@A+108
	push	eax
	lea	ecx, DWORD PTR _b$3[ebp]
	push	ecx
	lea	edx, DWORD PTR _g$4[ebp]
	push	edx
	lea	eax, DWORD PTR _r$5[ebp]
	push	eax
	call	?UnpackRGB@@YAXAAH00K@Z			; UnpackRGB
	add	esp, 16					; 00000010H

; 56   : 		SPR_Set( m_hSprite, r, g, b );

	mov	eax, DWORD PTR _b$3[ebp]
	push	eax
	mov	ecx, DWORD PTR _g$4[ebp]
	push	ecx
	mov	edx, DWORD PTR _r$5[ebp]
	push	edx
	mov	eax, DWORD PTR _this$[ebp]
	mov	ecx, DWORD PTR [eax+8]
	push	ecx
	call	DWORD PTR ?gEngfuncs@@3Ucl_enginefuncs_s@@A+16
	add	esp, 16					; 00000010H

; 57   : 
; 58   : 		// This should show up to the right and part way up the armor number
; 59   : 		y = ScreenHeight - SPR_Height( m_hSprite, 0 ) - gHUD.m_iFontHeight;

	push	0
	mov	eax, DWORD PTR _this$[ebp]
	mov	ecx, DWORD PTR [eax+8]
	push	ecx
	call	DWORD PTR ?gEngfuncs@@3Ucl_enginefuncs_s@@A+8
	add	esp, 8
	mov	edx, DWORD PTR ?gHUD@@3VCHud@@A+8440
	sub	edx, eax
	sub	edx, DWORD PTR ?gHUD@@3VCHud@@A+104
	mov	DWORD PTR _y$1[ebp], edx

; 60   : 		x = ScreenWidth / 3 + SPR_Width( m_hSprite, 0 ) / 4;

	mov	eax, DWORD PTR ?gHUD@@3VCHud@@A+8436
	cdq
	mov	ecx, 3
	idiv	ecx
	mov	esi, eax
	push	0
	mov	edx, DWORD PTR _this$[ebp]
	mov	eax, DWORD PTR [edx+8]
	push	eax
	call	DWORD PTR ?gEngfuncs@@3Ucl_enginefuncs_s@@A+12
	add	esp, 8
	cdq
	and	edx, 3
	add	eax, edx
	sar	eax, 2
	add	esi, eax
	mov	DWORD PTR _x$2[ebp], esi

; 61   : 
; 62   : 		SPR_DrawAdditive( m_iPos - 1,  x, y, NULL );

	push	0
	mov	eax, DWORD PTR _y$1[ebp]
	push	eax
	mov	ecx, DWORD PTR _x$2[ebp]
	push	ecx
	mov	edx, DWORD PTR _this$[ebp]
	mov	eax, DWORD PTR [edx+12]
	sub	eax, 1
	push	eax
	call	DWORD PTR ?gEngfuncs@@3Ucl_enginefuncs_s@@A+28
	add	esp, 16					; 00000010H
$LN3@Draw:

; 63   : 	}
; 64   : 	return 1;

	mov	eax, 1

; 65   : }

	pop	edi
	pop	esi
	pop	ebx
	mov	esp, ebp
	pop	ebp
	ret	4
?Draw@CHudTrain@@UAEHM@Z ENDP				; CHudTrain::Draw
_TEXT	ENDS
; Function compile flags: /Odtp /ZI
; File d:\!diffusion 2020\source code 2022\client-server\client\train.cpp
;	COMDAT ?VidInit@CHudTrain@@UAEHXZ
_TEXT	SEGMENT
_this$ = -4						; size = 4
?VidInit@CHudTrain@@UAEHXZ PROC				; CHudTrain::VidInit, COMDAT
; _this$ = ecx

; 40   : {

	push	ebp
	mov	ebp, esp
	sub	esp, 68					; 00000044H
	push	ebx
	push	esi
	push	edi
	mov	DWORD PTR _this$[ebp], ecx

; 41   : 	m_hSprite = 0;

	mov	eax, DWORD PTR _this$[ebp]
	mov	DWORD PTR [eax+8], 0

; 42   : 
; 43   : 	return 1;

	mov	eax, 1

; 44   : }

	pop	edi
	pop	esi
	pop	ebx
	mov	esp, ebp
	pop	ebp
	ret	0
?VidInit@CHudTrain@@UAEHXZ ENDP				; CHudTrain::VidInit
_TEXT	ENDS
; Function compile flags: /Odtp /ZI
; File d:\!diffusion 2020\source code 2022\client-server\client\train.cpp
;	COMDAT ?Init@CHudTrain@@UAEHXZ
_TEXT	SEGMENT
_this$ = -4						; size = 4
?Init@CHudTrain@@UAEHXZ PROC				; CHudTrain::Init, COMDAT
; _this$ = ecx

; 28   : {

	push	ebp
	mov	ebp, esp
	sub	esp, 68					; 00000044H
	push	ebx
	push	esi
	push	edi
	mov	DWORD PTR _this$[ebp], ecx

; 29   : 	HOOK_MESSAGE( Train );

	push	OFFSET ?__MsgFunc_Train@@YAHPBDHPAX@Z	; __MsgFunc_Train
	push	OFFSET ??_C@_05GFNCIBPC@Train?$AA@
	call	DWORD PTR ?gEngfuncs@@3Ucl_enginefuncs_s@@A+72
	add	esp, 8

; 30   : 
; 31   : 	m_iPos = 0;

	mov	eax, DWORD PTR _this$[ebp]
	mov	DWORD PTR [eax+12], 0

; 32   : 	m_iFlags = 0;

	mov	eax, DWORD PTR _this$[ebp]
	mov	DWORD PTR [eax+4], 0

; 33   : 
; 34   : 	gHUD.AddHudElem( this );

	mov	eax, DWORD PTR _this$[ebp]
	push	eax
	mov	ecx, OFFSET ?gHUD@@3VCHud@@A		; gHUD
	call	?AddHudElem@CHud@@QAEXPAVCHudBase@@@Z	; CHud::AddHudElem

; 35   : 
; 36   : 	return 1;

	mov	eax, 1

; 37   : }

	pop	edi
	pop	esi
	pop	ebx
	mov	esp, ebp
	pop	ebp
	ret	0
?Init@CHudTrain@@UAEHXZ ENDP				; CHudTrain::Init
_TEXT	ENDS
; Function compile flags: /Odtp /ZI
;	COMDAT ??__G@YGXPAX0IIP6EPAX00@Z@Z
_TEXT	SEGMENT
tv66 = -68						; size = 4
___t$ = 8						; size = 4
___u$ = 12						; size = 4
___s$ = 16						; size = 4
___n$ = 20						; size = 4
___f$ = 24						; size = 4
??__G@YGXPAX0IIP6EPAX00@Z@Z PROC			; `vector copy constructor iterator', COMDAT
	push	ebp
	mov	ebp, esp
	sub	esp, 68					; 00000044H
	push	ebx
	push	esi
	push	edi
$LN2@vector:
	mov	eax, DWORD PTR ___n$[ebp]
	mov	DWORD PTR tv66[ebp], eax
	mov	ecx, DWORD PTR ___n$[ebp]
	sub	ecx, 1
	mov	DWORD PTR ___n$[ebp], ecx
	cmp	DWORD PTR tv66[ebp], 0
	jbe	SHORT $LN1@vector
	mov	eax, DWORD PTR ___u$[ebp]
	push	eax
	mov	ecx, DWORD PTR ___t$[ebp]
	call	DWORD PTR ___f$[ebp]
	mov	eax, DWORD PTR ___t$[ebp]
	add	eax, DWORD PTR ___s$[ebp]
	mov	DWORD PTR ___t$[ebp], eax
	mov	eax, DWORD PTR ___u$[ebp]
	add	eax, DWORD PTR ___s$[ebp]
	mov	DWORD PTR ___u$[ebp], eax
	jmp	SHORT $LN2@vector
$LN1@vector:
	pop	edi
	pop	esi
	pop	ebx
	mov	esp, ebp
	pop	ebp
	ret	20					; 00000014H
??__G@YGXPAX0IIP6EPAX00@Z@Z ENDP			; `vector copy constructor iterator'
_TEXT	ENDS
; Function compile flags: /Odtp /ZI
;	COMDAT ??_H@YGXPAXIIP6EPAX0@Z@Z
_TEXT	SEGMENT
tv66 = -68						; size = 4
___t$ = 8						; size = 4
___s$ = 12						; size = 4
___n$ = 16						; size = 4
___f$ = 20						; size = 4
??_H@YGXPAXIIP6EPAX0@Z@Z PROC				; `vector constructor iterator', COMDAT
	push	ebp
	mov	ebp, esp
	sub	esp, 68					; 00000044H
	push	ebx
	push	esi
	push	edi
$LN2@vector:
	mov	eax, DWORD PTR ___n$[ebp]
	mov	DWORD PTR tv66[ebp], eax
	mov	ecx, DWORD PTR ___n$[ebp]
	sub	ecx, 1
	mov	DWORD PTR ___n$[ebp], ecx
	cmp	DWORD PTR tv66[ebp], 0
	jbe	SHORT $LN1@vector
	mov	ecx, DWORD PTR ___t$[ebp]
	call	DWORD PTR ___f$[ebp]
	mov	eax, DWORD PTR ___t$[ebp]
	add	eax, DWORD PTR ___s$[ebp]
	mov	DWORD PTR ___t$[ebp], eax
	jmp	SHORT $LN2@vector
$LN1@vector:
	pop	edi
	pop	esi
	pop	ebx
	mov	esp, ebp
	pop	ebp
	ret	16					; 00000010H
??_H@YGXPAXIIP6EPAX0@Z@Z ENDP				; `vector constructor iterator'
_TEXT	ENDS
END
