; Listing generated by Microsoft (R) Optimizing Compiler Version 19.00.24247.2 

	TITLE	D:\!DIFFUSION 2020\source code 2022\client-server\client\render\tri.cpp
	.686P
	.XMM
	include listing.inc
	.model	flat

INCLUDELIB LIBCMT
INCLUDELIB OLDNAMES

PUBLIC	??_H@YGXPAXIIP6EPAX0@Z@Z			; `vector constructor iterator'
PUBLIC	??__G@YGXPAX0IIP6EPAX00@Z@Z			; `vector copy constructor iterator'
PUBLIC	??BVector@@QAEPAMXZ				; Vector::operator float *
PUBLIC	?HUD_DrawNormalTriangles@@YAXXZ			; HUD_DrawNormalTriangles
PUBLIC	?HUD_DrawTransparentTriangles@@YAXXZ		; HUD_DrawTransparentTriangles
EXTRN	?UpdateSystems@CParticleSystemManager@@QAEXXZ:PROC ; CParticleSystemManager::UpdateSystems
EXTRN	?Update@CQuakePartSystem@@QAEXXZ:PROC		; CQuakePartSystem::Update
EXTRN	?R_DrawWeather@@YAXXZ:PROC			; R_DrawWeather
EXTRN	?gEngfuncs@@3Ucl_enginefuncs_s@@A:BYTE		; gEngfuncs
EXTRN	?g_fRenderInitialized@@3HA:DWORD		; g_fRenderInitialized
EXTRN	?g_pParticleSystems@@3PAVCParticleSystemManager@@A:DWORD ; g_pParticleSystems
EXTRN	?g_pParticles@@3VCQuakePartSystem@@A:BYTE	; g_pParticles
EXTRN	?RI@@3PAUref_instance_t@@A:DWORD		; RI
EXTRN	?tr@@3Uref_globals_t@@A:BYTE			; tr
EXTRN	__fltused:DWORD
; Function compile flags: /Odtp /ZI
; File d:\!diffusion 2020\source code 2022\client-server\client\render\tri.cpp
;	COMDAT ?HUD_DrawTransparentTriangles@@YAXXZ
_TEXT	SEGMENT
?HUD_DrawTransparentTriangles@@YAXXZ PROC		; HUD_DrawTransparentTriangles, COMDAT

; 31   : {

	push	ebp
	mov	ebp, esp
	sub	esp, 64					; 00000040H
	push	ebx
	push	esi
	push	edi

; 32   : 	if( !g_fRenderInitialized )

	cmp	DWORD PTR ?g_fRenderInitialized@@3HA, 0	; g_fRenderInitialized
	jne	SHORT $LN2@HUD_DrawTr

; 33   : 	{
; 34   : 		gEngfuncs.GetViewAngles( (float *)RI->viewangles );

	mov	ecx, DWORD PTR ?RI@@3PAUref_instance_t@@A ; RI
	add	ecx, 192				; 000000c0H
	call	??BVector@@QAEPAMXZ			; Vector::operator float *
	push	eax
	call	DWORD PTR ?gEngfuncs@@3Ucl_enginefuncs_s@@A+136
	add	esp, 4

; 35   : 		tr.time = GET_CLIENT_TIME();

	call	DWORD PTR ?gEngfuncs@@3Ucl_enginefuncs_s@@A+216
	fstp	QWORD PTR ?tr@@3Uref_globals_t@@A+8

; 36   : 		tr.oldtime = GET_CLIENT_OLDTIME();

	call	DWORD PTR ?gEngfuncs@@3Ucl_enginefuncs_s@@A+420
	fstp	QWORD PTR ?tr@@3Uref_globals_t@@A+16
$LN2@HUD_DrawTr:

; 37   : 	}
; 38   : 
; 39   : 	if( !tr.fCustomRendering )

	movzx	eax, BYTE PTR ?tr@@3Uref_globals_t@@A+1
	test	eax, eax
	jne	SHORT $LN3@HUD_DrawTr

; 40   : 	{
; 41   : 		AngleVectors( RI->viewangles, RI->vforward, RI->vright, RI->vup );

	mov	ecx, DWORD PTR ?RI@@3PAUref_instance_t@@A ; RI
	add	ecx, 252				; 000000fcH
	call	??BVector@@QAEPAMXZ			; Vector::operator float *
	push	eax
	mov	ecx, DWORD PTR ?RI@@3PAUref_instance_t@@A ; RI
	add	ecx, 240				; 000000f0H
	call	??BVector@@QAEPAMXZ			; Vector::operator float *
	push	eax
	mov	ecx, DWORD PTR ?RI@@3PAUref_instance_t@@A ; RI
	add	ecx, 228				; 000000e4H
	call	??BVector@@QAEPAMXZ			; Vector::operator float *
	push	eax
	mov	ecx, DWORD PTR ?RI@@3PAUref_instance_t@@A ; RI
	add	ecx, 192				; 000000c0H
	call	??BVector@@QAEPAMXZ			; Vector::operator float *
	push	eax
	call	DWORD PTR ?gEngfuncs@@3Ucl_enginefuncs_s@@A+96
	add	esp, 16					; 00000010H

; 42   : 		tr.frametime = tr.time - tr.oldtime;

	movsd	xmm0, QWORD PTR ?tr@@3Uref_globals_t@@A+8
	subsd	xmm0, QWORD PTR ?tr@@3Uref_globals_t@@A+16
	movsd	QWORD PTR ?tr@@3Uref_globals_t@@A+24, xmm0
$LN3@HUD_DrawTr:

; 43   : 	}
; 44   : 
; 45   : 	if( g_pParticleSystems )

	cmp	DWORD PTR ?g_pParticleSystems@@3PAVCParticleSystemManager@@A, 0 ; g_pParticleSystems
	je	SHORT $LN4@HUD_DrawTr

; 46   : 		g_pParticleSystems->UpdateSystems();

	mov	ecx, DWORD PTR ?g_pParticleSystems@@3PAVCParticleSystemManager@@A ; g_pParticleSystems
	call	?UpdateSystems@CParticleSystemManager@@QAEXXZ ; CParticleSystemManager::UpdateSystems
$LN4@HUD_DrawTr:

; 47   : 
; 48   : 	g_pParticles.Update();

	mov	ecx, OFFSET ?g_pParticles@@3VCQuakePartSystem@@A ; g_pParticles
	call	?Update@CQuakePartSystem@@QAEXXZ	; CQuakePartSystem::Update

; 49   : 
; 50   : 	if( g_fRenderInitialized )

	cmp	DWORD PTR ?g_fRenderInitialized@@3HA, 0	; g_fRenderInitialized
	je	SHORT $LN5@HUD_DrawTr

; 51   : 		R_DrawWeather();

	call	?R_DrawWeather@@YAXXZ			; R_DrawWeather
$LN5@HUD_DrawTr:

; 52   : }

	pop	edi
	pop	esi
	pop	ebx
	mov	esp, ebp
	pop	ebp
	ret	0
?HUD_DrawTransparentTriangles@@YAXXZ ENDP		; HUD_DrawTransparentTriangles
_TEXT	ENDS
; Function compile flags: /Odtp /ZI
; File d:\!diffusion 2020\source code 2022\client-server\client\render\tri.cpp
;	COMDAT ?HUD_DrawNormalTriangles@@YAXXZ
_TEXT	SEGMENT
?HUD_DrawNormalTriangles@@YAXXZ PROC			; HUD_DrawNormalTriangles, COMDAT

; 25   : {

	push	ebp
	mov	ebp, esp
	sub	esp, 64					; 00000040H
	push	ebx
	push	esi
	push	edi

; 26   : 	gEngfuncs.pTriAPI->Begin(TRI_POLYGON);

	push	3
	mov	eax, DWORD PTR ?gEngfuncs@@3Ucl_enginefuncs_s@@A+328
	mov	ecx, DWORD PTR [eax+8]
	call	ecx
	add	esp, 4

; 27   : 	gEngfuncs.pTriAPI->End();

	mov	eax, DWORD PTR ?gEngfuncs@@3Ucl_enginefuncs_s@@A+328
	mov	ecx, DWORD PTR [eax+12]
	call	ecx

; 28   : }

	pop	edi
	pop	esi
	pop	ebx
	mov	esp, ebp
	pop	ebp
	ret	0
?HUD_DrawNormalTriangles@@YAXXZ ENDP			; HUD_DrawNormalTriangles
_TEXT	ENDS
; Function compile flags: /Odtp /ZI
; File d:\!diffusion 2020\source code 2022\client-server\game_shared\vector.h
;	COMDAT ??BVector@@QAEPAMXZ
_TEXT	SEGMENT
_this$ = -4						; size = 4
??BVector@@QAEPAMXZ PROC				; Vector::operator float *, COMDAT
; _this$ = ecx

; 247  : 	operator float *()				{ return &x; } // Vectors will now automatically convert to float * when needed

	push	ebp
	mov	ebp, esp
	sub	esp, 68					; 00000044H
	push	ebx
	push	esi
	push	edi
	mov	DWORD PTR _this$[ebp], ecx
	mov	eax, DWORD PTR _this$[ebp]
	pop	edi
	pop	esi
	pop	ebx
	mov	esp, ebp
	pop	ebp
	ret	0
??BVector@@QAEPAMXZ ENDP				; Vector::operator float *
_TEXT	ENDS
; Function compile flags: /Odtp /ZI
;	COMDAT ??__G@YGXPAX0IIP6EPAX00@Z@Z
_TEXT	SEGMENT
tv66 = -68						; size = 4
___t$ = 8						; size = 4
___u$ = 12						; size = 4
___s$ = 16						; size = 4
___n$ = 20						; size = 4
___f$ = 24						; size = 4
??__G@YGXPAX0IIP6EPAX00@Z@Z PROC			; `vector copy constructor iterator', COMDAT
	push	ebp
	mov	ebp, esp
	sub	esp, 68					; 00000044H
	push	ebx
	push	esi
	push	edi
$LN2@vector:
	mov	eax, DWORD PTR ___n$[ebp]
	mov	DWORD PTR tv66[ebp], eax
	mov	ecx, DWORD PTR ___n$[ebp]
	sub	ecx, 1
	mov	DWORD PTR ___n$[ebp], ecx
	cmp	DWORD PTR tv66[ebp], 0
	jbe	SHORT $LN1@vector
	mov	eax, DWORD PTR ___u$[ebp]
	push	eax
	mov	ecx, DWORD PTR ___t$[ebp]
	call	DWORD PTR ___f$[ebp]
	mov	eax, DWORD PTR ___t$[ebp]
	add	eax, DWORD PTR ___s$[ebp]
	mov	DWORD PTR ___t$[ebp], eax
	mov	eax, DWORD PTR ___u$[ebp]
	add	eax, DWORD PTR ___s$[ebp]
	mov	DWORD PTR ___u$[ebp], eax
	jmp	SHORT $LN2@vector
$LN1@vector:
	pop	edi
	pop	esi
	pop	ebx
	mov	esp, ebp
	pop	ebp
	ret	20					; 00000014H
??__G@YGXPAX0IIP6EPAX00@Z@Z ENDP			; `vector copy constructor iterator'
_TEXT	ENDS
; Function compile flags: /Odtp /ZI
;	COMDAT ??_H@YGXPAXIIP6EPAX0@Z@Z
_TEXT	SEGMENT
tv66 = -68						; size = 4
___t$ = 8						; size = 4
___s$ = 12						; size = 4
___n$ = 16						; size = 4
___f$ = 20						; size = 4
??_H@YGXPAXIIP6EPAX0@Z@Z PROC				; `vector constructor iterator', COMDAT
	push	ebp
	mov	ebp, esp
	sub	esp, 68					; 00000044H
	push	ebx
	push	esi
	push	edi
$LN2@vector:
	mov	eax, DWORD PTR ___n$[ebp]
	mov	DWORD PTR tv66[ebp], eax
	mov	ecx, DWORD PTR ___n$[ebp]
	sub	ecx, 1
	mov	DWORD PTR ___n$[ebp], ecx
	cmp	DWORD PTR tv66[ebp], 0
	jbe	SHORT $LN1@vector
	mov	ecx, DWORD PTR ___t$[ebp]
	call	DWORD PTR ___f$[ebp]
	mov	eax, DWORD PTR ___t$[ebp]
	add	eax, DWORD PTR ___s$[ebp]
	mov	DWORD PTR ___t$[ebp], eax
	jmp	SHORT $LN2@vector
$LN1@vector:
	pop	edi
	pop	esi
	pop	ebx
	mov	esp, ebp
	pop	ebp
	ret	16					; 00000010H
??_H@YGXPAXIIP6EPAX0@Z@Z ENDP				; `vector constructor iterator'
_TEXT	ENDS
END
