; Listing generated by Microsoft (R) Optimizing Compiler Version 19.00.24247.2 

	TITLE	D:\!DIFFUSION 2020\source code 2022\client-server\client\use_icon.cpp
	.686P
	.XMM
	include listing.inc
	.model	flat

INCLUDELIB LIBCMT
INCLUDELIB OLDNAMES

PUBLIC	??_H@YGXPAXIIP6EPAX0@Z@Z			; `vector constructor iterator'
PUBLIC	??__G@YGXPAX0IIP6EPAX00@Z@Z			; `vector copy constructor iterator'
PUBLIC	?Init@CUseIcon@@UAEHXZ				; CUseIcon::Init
PUBLIC	?VidInit@CUseIcon@@UAEHXZ			; CUseIcon::VidInit
PUBLIC	?Draw@CUseIcon@@UAEHM@Z				; CUseIcon::Draw
PUBLIC	?MsgFunc_UseIcon@CUseIcon@@QAEHPBDHPAX@Z	; CUseIcon::MsgFunc_UseIcon
PUBLIC	?EnableIcon@CUseIcon@@QAEXH@Z			; CUseIcon::EnableIcon
PUBLIC	?GetSprite@CHud@@QAEHH@Z			; CHud::GetSprite
PUBLIC	?GetSpriteRect@CHud@@QAEAAUwrect_s@@H@Z		; CHud::GetSpriteRect
PUBLIC	?UnpackRGB@@YAXAAH00K@Z				; UnpackRGB
PUBLIC	?__MsgFunc_UseIcon@@YAHPBDHPAX@Z		; __MsgFunc_UseIcon
PUBLIC	??_C@_07MGCHCBIK@UseIcon?$AA@			; `string'
PUBLIC	??_C@_03MMGHDJKG@use?$AA@			; `string'
PUBLIC	??_C@_07BNKOHPMP@use_yes?$AA@			; `string'
PUBLIC	??_C@_08LCBCECON@use_busy?$AA@			; `string'
PUBLIC	??_C@_0L@FEANOKFB@use_locked?$AA@		; `string'
EXTRN	?Q_strncpy@@YAIPADPBDI@Z:PROC			; Q_strncpy
EXTRN	?GetSpriteIndex@CHud@@QAEHPBD@Z:PROC		; CHud::GetSpriteIndex
EXTRN	?AddHudElem@CHud@@QAEXPAVCHudBase@@@Z:PROC	; CHud::AddHudElem
EXTRN	?ScaleColors@@YAXAAH00H@Z:PROC			; ScaleColors
EXTRN	?BEGIN_READ@@YAXPBDPAXH@Z:PROC			; BEGIN_READ
EXTRN	?END_READ@@YAXXZ:PROC				; END_READ
EXTRN	?READ_BYTE@@YAHXZ:PROC				; READ_BYTE
EXTRN	?gEngfuncs@@3Ucl_enginefuncs_s@@A:BYTE		; gEngfuncs
EXTRN	?gHUD@@3VCHud@@A:BYTE				; gHUD
;	COMDAT ??_C@_0L@FEANOKFB@use_locked?$AA@
CONST	SEGMENT
??_C@_0L@FEANOKFB@use_locked?$AA@ DB 'use_locked', 00H	; `string'
CONST	ENDS
;	COMDAT ??_C@_08LCBCECON@use_busy?$AA@
CONST	SEGMENT
??_C@_08LCBCECON@use_busy?$AA@ DB 'use_busy', 00H	; `string'
CONST	ENDS
;	COMDAT ??_C@_07BNKOHPMP@use_yes?$AA@
CONST	SEGMENT
??_C@_07BNKOHPMP@use_yes?$AA@ DB 'use_yes', 00H		; `string'
CONST	ENDS
;	COMDAT ??_C@_03MMGHDJKG@use?$AA@
CONST	SEGMENT
??_C@_03MMGHDJKG@use?$AA@ DB 'use', 00H			; `string'
CONST	ENDS
;	COMDAT ??_C@_07MGCHCBIK@UseIcon?$AA@
CONST	SEGMENT
??_C@_07MGCHCBIK@UseIcon?$AA@ DB 'UseIcon', 00H		; `string'
CONST	ENDS
; Function compile flags: /Odtp /ZI
; File d:\!diffusion 2020\source code 2022\client-server\client\use_icon.cpp
;	COMDAT ?__MsgFunc_UseIcon@@YAHPBDHPAX@Z
_TEXT	SEGMENT
_pszName$ = 8						; size = 4
_iSize$ = 12						; size = 4
_pbuf$ = 16						; size = 4
?__MsgFunc_UseIcon@@YAHPBDHPAX@Z PROC			; __MsgFunc_UseIcon, COMDAT

; 7    : DECLARE_MESSAGE( m_UseIcon, UseIcon );

	push	ebp
	mov	ebp, esp
	sub	esp, 64					; 00000040H
	push	ebx
	push	esi
	push	edi
	mov	eax, DWORD PTR _pbuf$[ebp]
	push	eax
	mov	ecx, DWORD PTR _iSize$[ebp]
	push	ecx
	mov	edx, DWORD PTR _pszName$[ebp]
	push	edx
	mov	ecx, OFFSET ?gHUD@@3VCHud@@A+7692
	call	?MsgFunc_UseIcon@CUseIcon@@QAEHPBDHPAX@Z ; CUseIcon::MsgFunc_UseIcon
	pop	edi
	pop	esi
	pop	ebx
	mov	esp, ebp
	pop	ebp
	ret	0
?__MsgFunc_UseIcon@@YAHPBDHPAX@Z ENDP			; __MsgFunc_UseIcon
_TEXT	ENDS
; Function compile flags: /Odtp /ZI
; File d:\!diffusion 2020\source code 2022\client-server\client\utils.h
;	COMDAT ?UnpackRGB@@YAXAAH00K@Z
_TEXT	SEGMENT
_r$ = 8							; size = 4
_g$ = 12						; size = 4
_b$ = 16						; size = 4
_ulRGB$ = 20						; size = 4
?UnpackRGB@@YAXAAH00K@Z PROC				; UnpackRGB, COMDAT

; 98   : {\

	push	ebp
	mov	ebp, esp
	sub	esp, 64					; 00000040H
	push	ebx
	push	esi
	push	edi

; 99   : 	r = (ulRGB & 0xFF0000) >>16;\

	mov	eax, DWORD PTR _ulRGB$[ebp]
	and	eax, 16711680				; 00ff0000H
	shr	eax, 16					; 00000010H
	mov	ecx, DWORD PTR _r$[ebp]
	mov	DWORD PTR [ecx], eax

; 100  : 	g = (ulRGB & 0xFF00) >> 8;\

	mov	eax, DWORD PTR _ulRGB$[ebp]
	and	eax, 65280				; 0000ff00H
	shr	eax, 8
	mov	ecx, DWORD PTR _g$[ebp]
	mov	DWORD PTR [ecx], eax

; 101  : 	b = ulRGB & 0xFF;\

	mov	eax, DWORD PTR _ulRGB$[ebp]
	and	eax, 255				; 000000ffH
	mov	ecx, DWORD PTR _b$[ebp]
	mov	DWORD PTR [ecx], eax

; 102  : }

	pop	edi
	pop	esi
	pop	ebx
	mov	esp, ebp
	pop	ebp
	ret	0
?UnpackRGB@@YAXAAH00K@Z ENDP				; UnpackRGB
_TEXT	ENDS
; Function compile flags: /Odtp /ZI
; File d:\!diffusion 2020\source code 2022\client-server\client\hud.h
;	COMDAT ?GetSpriteRect@CHud@@QAEAAUwrect_s@@H@Z
_TEXT	SEGMENT
_this$ = -4						; size = 4
_index$ = 8						; size = 4
?GetSpriteRect@CHud@@QAEAAUwrect_s@@H@Z PROC		; CHud::GetSpriteRect, COMDAT
; _this$ = ecx

; 952  : 	wrect_t& GetSpriteRect( int index ) { return m_rgrcRects[index]; }

	push	ebp
	mov	ebp, esp
	sub	esp, 68					; 00000044H
	push	ebx
	push	esi
	push	edi
	mov	DWORD PTR _this$[ebp], ecx
	mov	eax, DWORD PTR _index$[ebp]
	shl	eax, 4
	mov	ecx, DWORD PTR _this$[ebp]
	add	eax, DWORD PTR [ecx+232]
	pop	edi
	pop	esi
	pop	ebx
	mov	esp, ebp
	pop	ebp
	ret	4
?GetSpriteRect@CHud@@QAEAAUwrect_s@@H@Z ENDP		; CHud::GetSpriteRect
_TEXT	ENDS
; Function compile flags: /Odtp /ZI
; File d:\!diffusion 2020\source code 2022\client-server\client\hud.h
;	COMDAT ?GetSprite@CHud@@QAEHH@Z
_TEXT	SEGMENT
tv68 = -72						; size = 4
_this$ = -4						; size = 4
_index$ = 8						; size = 4
?GetSprite@CHud@@QAEHH@Z PROC				; CHud::GetSprite, COMDAT
; _this$ = ecx

; 951  : 	SpriteHandle GetSprite( int index ) { return (index < 0) ? 0 : m_rghSprites[index]; }

	push	ebp
	mov	ebp, esp
	sub	esp, 72					; 00000048H
	push	ebx
	push	esi
	push	edi
	mov	DWORD PTR _this$[ebp], ecx
	cmp	DWORD PTR _index$[ebp], 0
	jge	SHORT $LN3@GetSprite
	mov	DWORD PTR tv68[ebp], 0
	jmp	SHORT $LN4@GetSprite
$LN3@GetSprite:
	mov	eax, DWORD PTR _this$[ebp]
	mov	ecx, DWORD PTR [eax+228]
	mov	edx, DWORD PTR _index$[ebp]
	mov	eax, DWORD PTR [ecx+edx*4]
	mov	DWORD PTR tv68[ebp], eax
$LN4@GetSprite:
	mov	eax, DWORD PTR tv68[ebp]
	pop	edi
	pop	esi
	pop	ebx
	mov	esp, ebp
	pop	ebp
	ret	4
?GetSprite@CHud@@QAEHH@Z ENDP				; CHud::GetSprite
_TEXT	ENDS
; Function compile flags: /Odtp /ZI
; File d:\!diffusion 2020\source code 2022\client-server\client\use_icon.cpp
;	COMDAT ?EnableIcon@CUseIcon@@QAEXH@Z
_TEXT	SEGMENT
tv64 = -76						; size = 4
_pszIconName$ = -8					; size = 4
_this$ = -4						; size = 4
_UsePressed$ = 8					; size = 4
?EnableIcon@CUseIcon@@QAEXH@Z PROC			; CUseIcon::EnableIcon, COMDAT
; _this$ = ecx

; 69   : {	

	push	ebp
	mov	ebp, esp
	sub	esp, 76					; 0000004cH
	push	ebx
	push	esi
	push	edi
	mov	DWORD PTR _this$[ebp], ecx

; 70   : 	char *pszIconName;
; 71   : 	
; 72   : 	switch( UsePressed )

	mov	eax, DWORD PTR _UsePressed$[ebp]
	mov	DWORD PTR tv64[ebp], eax
	mov	ecx, DWORD PTR tv64[ebp]
	sub	ecx, 1
	mov	DWORD PTR tv64[ebp], ecx
	cmp	DWORD PTR tv64[ebp], 3
	ja	SHORT $LN2@EnableIcon
	mov	edx, DWORD PTR tv64[ebp]
	jmp	DWORD PTR $LN9@EnableIcon[edx*4]
$LN4@EnableIcon:

; 73   : 	{
; 74   : 	case 1: pszIconName = "use"; break;

	mov	DWORD PTR _pszIconName$[ebp], OFFSET ??_C@_03MMGHDJKG@use?$AA@
	jmp	SHORT $LN2@EnableIcon
$LN5@EnableIcon:

; 75   : 	case 2: pszIconName = "use_yes"; break;

	mov	DWORD PTR _pszIconName$[ebp], OFFSET ??_C@_07BNKOHPMP@use_yes?$AA@
	jmp	SHORT $LN2@EnableIcon
$LN6@EnableIcon:

; 76   : 	case 3: pszIconName = "use_busy"; break;

	mov	DWORD PTR _pszIconName$[ebp], OFFSET ??_C@_08LCBCECON@use_busy?$AA@
	jmp	SHORT $LN2@EnableIcon
$LN7@EnableIcon:

; 77   : 	case 4: pszIconName = "use_locked"; break;

	mov	DWORD PTR _pszIconName$[ebp], OFFSET ??_C@_0L@FEANOKFB@use_locked?$AA@
$LN2@EnableIcon:

; 78   : 	}
; 79   : 	
; 80   : 	// the sprite must be listed in hud.txt
; 81   : 	UseIconSprite = gHUD.GetSpriteIndex( pszIconName );

	mov	eax, DWORD PTR _pszIconName$[ebp]
	push	eax
	mov	ecx, OFFSET ?gHUD@@3VCHud@@A		; gHUD
	call	?GetSpriteIndex@CHud@@QAEHPBD@Z		; CHud::GetSpriteIndex
	mov	ecx, DWORD PTR _this$[ebp]
	mov	DWORD PTR [ecx+24], eax

; 82   : 	m_UseIcon.spr = gHUD.GetSprite( UseIconSprite );

	mov	eax, DWORD PTR _this$[ebp]
	mov	ecx, DWORD PTR [eax+24]
	push	ecx
	mov	ecx, OFFSET ?gHUD@@3VCHud@@A		; gHUD
	call	?GetSprite@CHud@@QAEHH@Z		; CHud::GetSprite
	mov	edx, DWORD PTR _this$[ebp]
	mov	DWORD PTR [edx+64], eax

; 83   : 	m_UseIcon.rc = gHUD.GetSpriteRect( UseIconSprite );

	mov	eax, DWORD PTR _this$[ebp]
	mov	ecx, DWORD PTR [eax+24]
	push	ecx
	mov	ecx, OFFSET ?gHUD@@3VCHud@@A		; gHUD
	call	?GetSpriteRect@CHud@@QAEAAUwrect_s@@H@Z	; CHud::GetSpriteRect
	mov	edx, DWORD PTR _this$[ebp]
	add	edx, 68					; 00000044H
	mov	ecx, DWORD PTR [eax]
	mov	DWORD PTR [edx], ecx
	mov	ecx, DWORD PTR [eax+4]
	mov	DWORD PTR [edx+4], ecx
	mov	ecx, DWORD PTR [eax+8]
	mov	DWORD PTR [edx+8], ecx
	mov	eax, DWORD PTR [eax+12]
	mov	DWORD PTR [edx+12], eax

; 84   : 	Q_strcpy( m_UseIcon.szSpriteName, pszIconName );

	push	99999					; 0001869fH
	mov	eax, DWORD PTR _pszIconName$[ebp]
	push	eax
	mov	ecx, DWORD PTR _this$[ebp]
	add	ecx, 32					; 00000020H
	push	ecx
	call	?Q_strncpy@@YAIPADPBDI@Z		; Q_strncpy
	add	esp, 12					; 0000000cH

; 85   : }

	pop	edi
	pop	esi
	pop	ebx
	mov	esp, ebp
	pop	ebp
	ret	4
	npad	2
$LN9@EnableIcon:
	DD	$LN4@EnableIcon
	DD	$LN5@EnableIcon
	DD	$LN6@EnableIcon
	DD	$LN7@EnableIcon
?EnableIcon@CUseIcon@@QAEXH@Z ENDP			; CUseIcon::EnableIcon
_TEXT	ENDS
; Function compile flags: /Odtp /ZI
; File d:\!diffusion 2020\source code 2022\client-server\client\use_icon.cpp
;	COMDAT ?MsgFunc_UseIcon@CUseIcon@@QAEHPBDHPAX@Z
_TEXT	SEGMENT
_this$ = -4						; size = 4
_pszName$ = 8						; size = 4
_iSize$ = 12						; size = 4
_pbuf$ = 16						; size = 4
?MsgFunc_UseIcon@CUseIcon@@QAEHPBDHPAX@Z PROC		; CUseIcon::MsgFunc_UseIcon, COMDAT
; _this$ = ecx

; 48   : {

	push	ebp
	mov	ebp, esp
	sub	esp, 68					; 00000044H
	push	ebx
	push	esi
	push	edi
	mov	DWORD PTR _this$[ebp], ecx

; 49   : 
; 50   : 	BEGIN_READ( pszName, pbuf, iSize );

	mov	eax, DWORD PTR _iSize$[ebp]
	push	eax
	mov	ecx, DWORD PTR _pbuf$[ebp]
	push	ecx
	mov	edx, DWORD PTR _pszName$[ebp]
	push	edx
	call	?BEGIN_READ@@YAXPBDPAXH@Z		; BEGIN_READ
	add	esp, 12					; 0000000cH

; 51   : 
; 52   : 	UsePressed = READ_BYTE();

	call	?READ_BYTE@@YAHXZ			; READ_BYTE
	mov	ecx, DWORD PTR _this$[ebp]
	mov	DWORD PTR [ecx+16], eax

; 53   : //	UseableEntIndex = READ_SHORT();
; 54   : 
; 55   : 	if( UsePressed > 0 )

	mov	eax, DWORD PTR _this$[ebp]
	cmp	DWORD PTR [eax+16], 0
	jle	SHORT $LN2@MsgFunc_Us

; 56   : 	{
; 57   : 		EnableIcon( UsePressed );

	mov	eax, DWORD PTR _this$[ebp]
	mov	ecx, DWORD PTR [eax+16]
	push	ecx
	mov	ecx, DWORD PTR _this$[ebp]
	call	?EnableIcon@CUseIcon@@QAEXH@Z		; CUseIcon::EnableIcon

; 58   : 		m_iFlags |= HUD_ACTIVE;

	mov	eax, DWORD PTR _this$[ebp]
	mov	ecx, DWORD PTR [eax+4]
	or	ecx, 1
	mov	edx, DWORD PTR _this$[ebp]
	mov	DWORD PTR [edx+4], ecx

; 59   : 	}
; 60   : 	else

	jmp	SHORT $LN3@MsgFunc_Us
$LN2@MsgFunc_Us:

; 61   : 		m_iFlags &= ~HUD_ACTIVE;

	mov	eax, DWORD PTR _this$[ebp]
	mov	ecx, DWORD PTR [eax+4]
	and	ecx, -2					; fffffffeH
	mov	edx, DWORD PTR _this$[ebp]
	mov	DWORD PTR [edx+4], ecx
$LN3@MsgFunc_Us:

; 62   : 
; 63   : 	END_READ();

	call	?END_READ@@YAXXZ			; END_READ

; 64   : 
; 65   : 	return 1;

	mov	eax, 1

; 66   : }

	pop	edi
	pop	esi
	pop	ebx
	mov	esp, ebp
	pop	ebp
	ret	12					; 0000000cH
?MsgFunc_UseIcon@CUseIcon@@QAEHPBDHPAX@Z ENDP		; CUseIcon::MsgFunc_UseIcon
_TEXT	ENDS
; Function compile flags: /Odtp /ZI
; File d:\!diffusion 2020\source code 2022\client-server\client\use_icon.cpp
;	COMDAT ?Draw@CUseIcon@@UAEHM@Z
_TEXT	SEGMENT
_b$ = -16						; size = 4
_g$ = -12						; size = 4
_r$ = -8						; size = 4
_this$ = -4						; size = 4
_flTime$ = 8						; size = 4
?Draw@CUseIcon@@UAEHM@Z PROC				; CUseIcon::Draw, COMDAT
; _this$ = ecx

; 22   : {	

	push	ebp
	mov	ebp, esp
	sub	esp, 80					; 00000050H
	push	ebx
	push	esi
	push	edi
	mov	DWORD PTR _this$[ebp], ecx

; 23   : 	int r, g, b;
; 24   : 	
; 25   : 	x = (ScreenWidth / 2) - 32;  // 64x64 icon, drawing on top of crosshair

	mov	eax, DWORD PTR ?gHUD@@3VCHud@@A+8436
	cdq
	sub	eax, edx
	sar	eax, 1
	sub	eax, 32					; 00000020H
	mov	ecx, DWORD PTR _this$[ebp]
	mov	DWORD PTR [ecx+8], eax

; 26   : 	y = (ScreenHeight / 2) - 80;

	mov	eax, DWORD PTR ?gHUD@@3VCHud@@A+8440
	cdq
	sub	eax, edx
	sar	eax, 1
	sub	eax, 80					; 00000050H
	mov	ecx, DWORD PTR _this$[ebp]
	mov	DWORD PTR [ecx+12], eax

; 27   : 
; 28   : 	if( UsePressed == 2 )

	mov	eax, DWORD PTR _this$[ebp]
	cmp	DWORD PTR [eax+16], 2
	jne	SHORT $LN2@Draw

; 29   : 		UnpackRGB(r,g,b,0x0046FF71); // green

	push	4652913					; 0046ff71H
	lea	eax, DWORD PTR _b$[ebp]
	push	eax
	lea	ecx, DWORD PTR _g$[ebp]
	push	ecx
	lea	edx, DWORD PTR _r$[ebp]
	push	edx
	call	?UnpackRGB@@YAXAAH00K@Z			; UnpackRGB
	add	esp, 16					; 00000010H
	jmp	SHORT $LN3@Draw
$LN2@Draw:

; 30   : 	else if( UsePressed == 3 )

	mov	eax, DWORD PTR _this$[ebp]
	cmp	DWORD PTR [eax+16], 3
	jne	SHORT $LN4@Draw

; 31   : 		UnpackRGB(r,g,b,0x00FF8A14); // orange

	push	16747028				; 00ff8a14H
	lea	eax, DWORD PTR _b$[ebp]
	push	eax
	lea	ecx, DWORD PTR _g$[ebp]
	push	ecx
	lea	edx, DWORD PTR _r$[ebp]
	push	edx
	call	?UnpackRGB@@YAXAAH00K@Z			; UnpackRGB
	add	esp, 16					; 00000010H
	jmp	SHORT $LN3@Draw
$LN4@Draw:

; 32   : 	else if( UsePressed == 4 )

	mov	eax, DWORD PTR _this$[ebp]
	cmp	DWORD PTR [eax+16], 4
	jne	SHORT $LN6@Draw

; 33   : 		UnpackRGB(r,g,b,0x00FF3232); // red

	push	16724530				; 00ff3232H
	lea	eax, DWORD PTR _b$[ebp]
	push	eax
	lea	ecx, DWORD PTR _g$[ebp]
	push	ecx
	lea	edx, DWORD PTR _r$[ebp]
	push	edx
	call	?UnpackRGB@@YAXAAH00K@Z			; UnpackRGB
	add	esp, 16					; 00000010H

; 34   : 	else

	jmp	SHORT $LN3@Draw
$LN6@Draw:

; 35   : 		UnpackRGB(r,g,b,0x0046A9FF); // blue

	push	4631039					; 0046a9ffH
	lea	eax, DWORD PTR _b$[ebp]
	push	eax
	lea	ecx, DWORD PTR _g$[ebp]
	push	ecx
	lea	edx, DWORD PTR _r$[ebp]
	push	edx
	call	?UnpackRGB@@YAXAAH00K@Z			; UnpackRGB
	add	esp, 16					; 00000010H
$LN3@Draw:

; 36   : 
; 37   : 	ScaleColors(r,g,b,150); 

	push	150					; 00000096H
	lea	eax, DWORD PTR _b$[ebp]
	push	eax
	lea	ecx, DWORD PTR _g$[ebp]
	push	ecx
	lea	edx, DWORD PTR _r$[ebp]
	push	edx
	call	?ScaleColors@@YAXAAH00H@Z		; ScaleColors
	add	esp, 16					; 00000010H

; 38   : 
; 39   : 	SPR_Set( m_UseIcon.spr, r, g, b );

	mov	eax, DWORD PTR _b$[ebp]
	push	eax
	mov	ecx, DWORD PTR _g$[ebp]
	push	ecx
	mov	edx, DWORD PTR _r$[ebp]
	push	edx
	mov	eax, DWORD PTR _this$[ebp]
	mov	ecx, DWORD PTR [eax+64]
	push	ecx
	call	DWORD PTR ?gEngfuncs@@3Ucl_enginefuncs_s@@A+16
	add	esp, 16					; 00000010H

; 40   : 			
; 41   : 	SPR_DrawAdditive( 0, x, y, &m_UseIcon.rc );

	mov	eax, DWORD PTR _this$[ebp]
	add	eax, 68					; 00000044H
	push	eax
	mov	ecx, DWORD PTR _this$[ebp]
	mov	edx, DWORD PTR [ecx+12]
	push	edx
	mov	eax, DWORD PTR _this$[ebp]
	mov	ecx, DWORD PTR [eax+8]
	push	ecx
	push	0
	call	DWORD PTR ?gEngfuncs@@3Ucl_enginefuncs_s@@A+28
	add	esp, 16					; 00000010H

; 42   : 
; 43   : 	//	gEngfuncs.Con_NPrintf( 1, "%i %i\n", x, y );
; 44   : 	return 1;

	mov	eax, 1

; 45   : }

	pop	edi
	pop	esi
	pop	ebx
	mov	esp, ebp
	pop	ebp
	ret	4
?Draw@CUseIcon@@UAEHM@Z ENDP				; CUseIcon::Draw
_TEXT	ENDS
; Function compile flags: /Odtp /ZI
; File d:\!diffusion 2020\source code 2022\client-server\client\use_icon.cpp
;	COMDAT ?VidInit@CUseIcon@@UAEHXZ
_TEXT	SEGMENT
_this$ = -4						; size = 4
?VidInit@CUseIcon@@UAEHXZ PROC				; CUseIcon::VidInit, COMDAT
; _this$ = ecx

; 17   : {

	push	ebp
	mov	ebp, esp
	sub	esp, 68					; 00000044H
	push	ebx
	push	esi
	push	edi
	mov	DWORD PTR _this$[ebp], ecx

; 18   : 	return 1;

	mov	eax, 1

; 19   : }

	pop	edi
	pop	esi
	pop	ebx
	mov	esp, ebp
	pop	ebp
	ret	0
?VidInit@CUseIcon@@UAEHXZ ENDP				; CUseIcon::VidInit
_TEXT	ENDS
; Function compile flags: /Odtp /ZI
; File d:\!diffusion 2020\source code 2022\client-server\client\use_icon.cpp
;	COMDAT ?Init@CUseIcon@@UAEHXZ
_TEXT	SEGMENT
_this$ = -4						; size = 4
?Init@CUseIcon@@UAEHXZ PROC				; CUseIcon::Init, COMDAT
; _this$ = ecx

; 10   : {

	push	ebp
	mov	ebp, esp
	sub	esp, 68					; 00000044H
	push	ebx
	push	esi
	push	edi
	mov	DWORD PTR _this$[ebp], ecx

; 11   : 	HOOK_MESSAGE( UseIcon );

	push	OFFSET ?__MsgFunc_UseIcon@@YAHPBDHPAX@Z	; __MsgFunc_UseIcon
	push	OFFSET ??_C@_07MGCHCBIK@UseIcon?$AA@
	call	DWORD PTR ?gEngfuncs@@3Ucl_enginefuncs_s@@A+72
	add	esp, 8

; 12   : 	gHUD.AddHudElem( this );

	mov	eax, DWORD PTR _this$[ebp]
	push	eax
	mov	ecx, OFFSET ?gHUD@@3VCHud@@A		; gHUD
	call	?AddHudElem@CHud@@QAEXPAVCHudBase@@@Z	; CHud::AddHudElem

; 13   : 	return 1;

	mov	eax, 1

; 14   : }

	pop	edi
	pop	esi
	pop	ebx
	mov	esp, ebp
	pop	ebp
	ret	0
?Init@CUseIcon@@UAEHXZ ENDP				; CUseIcon::Init
_TEXT	ENDS
; Function compile flags: /Odtp /ZI
;	COMDAT ??__G@YGXPAX0IIP6EPAX00@Z@Z
_TEXT	SEGMENT
tv66 = -68						; size = 4
___t$ = 8						; size = 4
___u$ = 12						; size = 4
___s$ = 16						; size = 4
___n$ = 20						; size = 4
___f$ = 24						; size = 4
??__G@YGXPAX0IIP6EPAX00@Z@Z PROC			; `vector copy constructor iterator', COMDAT
	push	ebp
	mov	ebp, esp
	sub	esp, 68					; 00000044H
	push	ebx
	push	esi
	push	edi
$LN2@vector:
	mov	eax, DWORD PTR ___n$[ebp]
	mov	DWORD PTR tv66[ebp], eax
	mov	ecx, DWORD PTR ___n$[ebp]
	sub	ecx, 1
	mov	DWORD PTR ___n$[ebp], ecx
	cmp	DWORD PTR tv66[ebp], 0
	jbe	SHORT $LN1@vector
	mov	eax, DWORD PTR ___u$[ebp]
	push	eax
	mov	ecx, DWORD PTR ___t$[ebp]
	call	DWORD PTR ___f$[ebp]
	mov	eax, DWORD PTR ___t$[ebp]
	add	eax, DWORD PTR ___s$[ebp]
	mov	DWORD PTR ___t$[ebp], eax
	mov	eax, DWORD PTR ___u$[ebp]
	add	eax, DWORD PTR ___s$[ebp]
	mov	DWORD PTR ___u$[ebp], eax
	jmp	SHORT $LN2@vector
$LN1@vector:
	pop	edi
	pop	esi
	pop	ebx
	mov	esp, ebp
	pop	ebp
	ret	20					; 00000014H
??__G@YGXPAX0IIP6EPAX00@Z@Z ENDP			; `vector copy constructor iterator'
_TEXT	ENDS
; Function compile flags: /Odtp /ZI
;	COMDAT ??_H@YGXPAXIIP6EPAX0@Z@Z
_TEXT	SEGMENT
tv66 = -68						; size = 4
___t$ = 8						; size = 4
___s$ = 12						; size = 4
___n$ = 16						; size = 4
___f$ = 20						; size = 4
??_H@YGXPAXIIP6EPAX0@Z@Z PROC				; `vector constructor iterator', COMDAT
	push	ebp
	mov	ebp, esp
	sub	esp, 68					; 00000044H
	push	ebx
	push	esi
	push	edi
$LN2@vector:
	mov	eax, DWORD PTR ___n$[ebp]
	mov	DWORD PTR tv66[ebp], eax
	mov	ecx, DWORD PTR ___n$[ebp]
	sub	ecx, 1
	mov	DWORD PTR ___n$[ebp], ecx
	cmp	DWORD PTR tv66[ebp], 0
	jbe	SHORT $LN1@vector
	mov	ecx, DWORD PTR ___t$[ebp]
	call	DWORD PTR ___f$[ebp]
	mov	eax, DWORD PTR ___t$[ebp]
	add	eax, DWORD PTR ___s$[ebp]
	mov	DWORD PTR ___t$[ebp], eax
	jmp	SHORT $LN2@vector
$LN1@vector:
	pop	edi
	pop	esi
	pop	ebx
	mov	esp, ebp
	pop	ebp
	ret	16					; 00000010H
??_H@YGXPAXIIP6EPAX0@Z@Z ENDP				; `vector constructor iterator'
_TEXT	ENDS
END
