; Listing generated by Microsoft (R) Optimizing Compiler Version 19.00.24247.2 

	TITLE	D:\!DIFFUSION 2020\source code 2022\client-server\client\utils.cpp
	.686P
	.XMM
	include listing.inc
	.model	flat

INCLUDELIB LIBCMT
INCLUDELIB OLDNAMES

PUBLIC	?g_hullcolor@@3PAY02MA				; g_hullcolor
PUBLIC	?g_boxpnt@@3PAY03HA				; g_boxpnt
_DATA	SEGMENT
?cornerIndices@?1??R_ScissorForBounds@@YA_NQBVVector@@PAM111@Z@4PAY03HA DD 03H ; `R_ScissorForBounds'::`2'::cornerIndices
	DD	02H
	DD	06H
	DD	07H
	DD	00H
	DD	01H
	DD	05H
	DD	04H
	DD	02H
	DD	03H
	DD	01H
	DD	00H
	DD	04H
	DD	05H
	DD	07H
	DD	06H
	DD	01H
	DD	03H
	DD	07H
	DD	05H
	DD	02H
	DD	00H
	DD	04H
	DD	06H
?g_hullcolor@@3PAY02MA DD 03f800000r		; 1	; g_hullcolor
	DD	03f800000r			; 1
	DD	03f800000r			; 1
	DD	03f800000r			; 1
	DD	03f000000r			; 0.5
	DD	03f000000r			; 0.5
	DD	03f000000r			; 0.5
	DD	03f800000r			; 1
	DD	03f000000r			; 0.5
	DD	03f800000r			; 1
	DD	03f800000r			; 1
	DD	03f000000r			; 0.5
	DD	03f000000r			; 0.5
	DD	03f000000r			; 0.5
	DD	03f800000r			; 1
	DD	03f800000r			; 1
	DD	03f000000r			; 0.5
	DD	03f800000r			; 1
	DD	03f000000r			; 0.5
	DD	03f800000r			; 1
	DD	03f800000r			; 1
	DD	03f800000r			; 1
	DD	03f800000r			; 1
	DD	03f800000r			; 1
?g_boxpnt@@3PAY03HA DD 00H				; g_boxpnt
	DD	04H
	DD	06H
	DD	02H
	DD	00H
	DD	01H
	DD	05H
	DD	04H
	DD	00H
	DD	02H
	DD	03H
	DD	01H
	DD	07H
	DD	05H
	DD	01H
	DD	03H
	DD	07H
	DD	03H
	DD	02H
	DD	06H
	DD	07H
	DD	06H
	DD	04H
	DD	05H
_DATA	ENDS
PUBLIC	??_H@YGXPAXIIP6EPAX0@Z@Z			; `vector constructor iterator'
PUBLIC	??__G@YGXPAX0IIP6EPAX00@Z@Z			; `vector copy constructor iterator'
PUBLIC	??0Vector2D@@QAE@MM@Z				; Vector2D::Vector2D
PUBLIC	??0Vector@@QAE@XZ				; Vector::Vector
PUBLIC	??0Vector@@QAE@MMM@Z				; Vector::Vector
PUBLIC	??0Vector@@QAE@ABV0@@Z				; Vector::Vector
PUBLIC	??HVector@@QBE?AV0@ABV0@@Z			; Vector::operator+
PUBLIC	??GVector@@QBE?AV0@ABV0@@Z			; Vector::operator-
PUBLIC	??DVector@@QBE?AV0@M@Z				; Vector::operator*
PUBLIC	??BVector@@QAEPAMXZ				; Vector::operator float *
PUBLIC	??BVector@@QBEPBMXZ				; Vector::operator float const *
PUBLIC	?DotProduct@@YAMABVVector@@0@Z			; DotProduct
PUBLIC	??0Vector4D@@QAE@XZ				; Vector4D::Vector4D
PUBLIC	??BVector4D@@QAEPAMXZ				; Vector4D::operator float *
PUBLIC	??Amatrix4x4@@QAEPAMH@Z				; matrix4x4::operator[]
PUBLIC	?GetSpriteList@@YAPAUclient_sprite_s@@PAU1@PBDHH@Z ; GetSpriteList
PUBLIC	?DrawQuad@@YAXMMMM@Z				; DrawQuad
PUBLIC	?ALERT@@YAXW4ALERT_TYPE@@PADZZ			; ALERT
PUBLIC	?Mod_Handle@@YAPAUmodel_s@@H@Z			; Mod_Handle
PUBLIC	?Sys_LoadLibrary@@YA_NPBDPAPAUHINSTANCE__@@PBUdllfunc_s@@@Z ; Sys_LoadLibrary
PUBLIC	?Sys_GetProcAddress@@YAPAXPAUHINSTANCE__@@PBD@Z	; Sys_GetProcAddress
PUBLIC	?Sys_FreeLibrary@@YAXPAPAUHINSTANCE__@@@Z	; Sys_FreeLibrary
PUBLIC	?Sys_RemoveFile@@YA_NPBD@Z			; Sys_RemoveFile
PUBLIC	?ScaleColors@@YAXAAH00H@Z			; ScaleColors
PUBLIC	?PackColor@@YAMABUcolor24@@@Z			; PackColor
PUBLIC	?LoadSprite@@YAHPBD@Z				; LoadSprite
PUBLIC	??0leaflist_s@@QAE@XZ				; leaflist_s::leaflist_s
PUBLIC	?CL_UTIL_Approach@@YAMMMM@Z			; CL_UTIL_Approach
PUBLIC	?Mod_PointInLeaf@@YAPAUmleaf_s@@VVector@@PAUmnode_s@@@Z ; Mod_PointInLeaf
PUBLIC	?Mod_BoxVisible@@YA_NVVector@@0PBE@Z		; Mod_BoxVisible
PUBLIC	?Mod_CheckEntityPVS@@YA_NPAUcl_entity_s@@@Z	; Mod_CheckEntityPVS
PUBLIC	?Mod_CheckTempEntityPVS@@YA_NPAUtempent_s@@@Z	; Mod_CheckTempEntityPVS
PUBLIC	?Mod_CheckEntityLeafPVS@@YA_NABVVector@@0PAUmleaf_s@@@Z ; Mod_CheckEntityLeafPVS
PUBLIC	?Mod_CheckBoxVisible@@YA_NABVVector@@0@Z	; Mod_CheckBoxVisible
PUBLIC	?Mod_GetFrames@@YAXHAAH@Z			; Mod_GetFrames
PUBLIC	?Mod_GetType@@YAHH@Z				; Mod_GetType
PUBLIC	?R_ScissorForAABB@@YA_NABVVector@@0PAM111@Z	; R_ScissorForAABB
PUBLIC	?R_ScissorForCorners@@YA_NQBVVector@@PAM111@Z	; R_ScissorForCorners
PUBLIC	?R_AABBToScreen@@YA_NABVVector@@0AAVVector2D@@1PAUwrect_s@@@Z ; R_AABBToScreen
PUBLIC	?R_TransformWorldToDevice@@YAXABVVector@@AAV1@@Z ; R_TransformWorldToDevice
PUBLIC	?R_TransformDeviceToScreen@@YAXABVVector@@AAV1@@Z ; R_TransformDeviceToScreen
PUBLIC	?R_ClipPolygon@@YA_NHPAVVector@@PBUmplane_s@@PAH0@Z ; R_ClipPolygon
PUBLIC	?R_SplitPolygon@@YAXHPAVVector@@PBUmplane_s@@PAH020@Z ; R_SplitPolygon
PUBLIC	?UTIL_IsPlayer@@YA_NH@Z				; UTIL_IsPlayer
PUBLIC	?UTIL_IsLocal@@YA_NH@Z				; UTIL_IsLocal
PUBLIC	?GetPlane@CFrustum@@QBEPBUmplane_s@@H@Z		; CFrustum::GetPlane
PUBLIC	?GetClipFlags@CFrustum@@QBEIXZ			; CFrustum::GetClipFlags
PUBLIC	?WorldToScreen@@YAHABVVector@@AAV1@@Z		; WorldToScreen
PUBLIC	?Mod_LeafPVS@@YAPAEPAUmleaf_s@@PAUmodel_s@@@Z	; Mod_LeafPVS
PUBLIC	?Mod_GetCurrentVis@@YAPAEXZ			; Mod_GetCurrentVis
PUBLIC	?Mod_GetEngineVis@@YAPAEXZ			; Mod_GetEngineVis
PUBLIC	?V_CalcFov@@YAMAAMMM@Z				; V_CalcFov
PUBLIC	?V_AdjustFov@@YAXAAM0MM_N@Z			; V_AdjustFov
PUBLIC	??$__vcrt_va_start_verify_argument_type@PAD@@YAXXZ ; __vcrt_va_start_verify_argument_type<char *>
PUBLIC	?Mod_BoxLeafnums@@YAHABVVector@@0PAFHPAPAUmnode_s@@@Z ; Mod_BoxLeafnums
PUBLIC	?Mod_HeadnodeVisible@@YA_NPAUmnode_s@@PBE@Z	; Mod_HeadnodeVisible
PUBLIC	?Mod_DecompressVis@@YAPAEPBEPAUmodel_s@@@Z	; Mod_DecompressVis
PUBLIC	?R_BoundsForAABB@@YAXABVVector@@0QAV1@@Z	; R_BoundsForAABB
PUBLIC	?ParseHudSprite@@YAPADPAD0PAUclient_sprite_s@@@Z ; ParseHudSprite
PUBLIC	??_C@_0BA@KNHIKLDN@?$FO3Warning?3?$FO7?5?$CFs?$AA@ ; `string'
PUBLIC	??_C@_0O@DKJGHMGN@?$FO1Error?3?$FO7?5?$CFs?$AA@	; `string'
PUBLIC	??_C@_0CH@KGNNFBBJ@R_ClipPolygon?3?5MAX_POLYGON_POINT@ ; `string'
PUBLIC	??_C@_0CI@OPFIFHKG@R_SplitPolygon?3?5MAX_POLYGON_POIN@ ; `string'
PUBLIC	?__LINE__Var@?0??R_BoundsForAABB@@YAXABVVector@@0QAV2@@Z@4JA ; `R_BoundsForAABB'::`1'::__LINE__Var
PUBLIC	??_C@_0ED@FPLDKGDB@d?3?2?$CBdiffusion?52020?2source?5code?52@ ; `string'
PUBLIC	??_C@_0BI@FECCGOFJ@assert?5failed?5at?5?$CFs?3?$CFi?6?$AA@ ; `string'
PUBLIC	??_C@_0BI@KHJCGMOJ@V_CalcFov?3?5bad?5fov?5?$CFg?$CB?6?$AA@ ; `string'
PUBLIC	??_C@_01HCONENDN@?$HL?$AA@			; `string'
PUBLIC	??_C@_01CELHOKLL@?$HN?$AA@			; `string'
PUBLIC	??_C@_04DAMGJPCA@file?$AA@			; `string'
PUBLIC	??_C@_04MEMAJGDJ@name?$AA@			; `string'
PUBLIC	??_C@_01FJMABOPO@x?$AA@				; `string'
PUBLIC	??_C@_01EANLCPLP@y?$AA@				; `string'
PUBLIC	??_C@_05IGKADHGO@width?$AA@			; `string'
PUBLIC	??_C@_06LNLHEAAG@height?$AA@			; `string'
PUBLIC	??_C@_09ILGMALND@?$CFs?1bin?1?$CFs?$AA@		; `string'
PUBLIC	??_C@_0BI@BOKDEL@?$CFs?5loaded?5succesfully?$CB?6?$AA@ ; `string'
PUBLIC	??_C@_05GFOLEBJA@?$CFs?1?$CFs?$AA@		; `string'
PUBLIC	__real@00000000
PUBLIC	__real@3c8efa35
PUBLIC	__real@3dcccccd
PUBLIC	__real@3f000000
PUBLIC	__real@3f800000
PUBLIC	__real@3fe0000000000000
PUBLIC	__real@40000000
PUBLIC	__real@4000000000000000
PUBLIC	__real@400921fb54442d18
PUBLIC	__real@40400000
PUBLIC	__real@4076800000000000
PUBLIC	__real@40800000
PUBLIC	__real@40a00000
PUBLIC	__real@4170000000000000
PUBLIC	__real@42652ee1
PUBLIC	__real@42b40000
PUBLIC	__real@432a0000
PUBLIC	__real@437f0000
PUBLIC	__real@43f00000
PUBLIC	__real@44200000
PUBLIC	__real@bdcccccd
PUBLIC	__real@bf000000
PUBLIC	__real@bf800000
PUBLIC	__xmm@80000000800000008000000080000000
EXTRN	_memcpy:PROC
EXTRN	_memset:PROC
EXTRN	__imp__FreeLibrary@4:PROC
EXTRN	__imp__GetProcAddress@8:PROC
EXTRN	__imp__LoadLibraryA@4:PROC
EXTRN	_atan:PROC
EXTRN	_tan:PROC
EXTRN	_remove:PROC
EXTRN	?ClearBounds@@YAXAAVVector@@0@Z:PROC		; ClearBounds
EXTRN	?ClearBounds@@YAXAAVVector2D@@0@Z:PROC		; ClearBounds
EXTRN	?BoundsIsCleared@@YA_NABVVector@@0@Z:PROC	; BoundsIsCleared
EXTRN	?AddPointToBounds@@YAXABVVector@@AAV1@1M@Z:PROC	; AddPointToBounds
EXTRN	?AddPointToBounds@@YAXABVVector2D@@AAV1@1@Z:PROC ; AddPointToBounds
EXTRN	?BoxOnPlaneSide@@YAHABVVector@@0PBUmplane_s@@@Z:PROC ; BoxOnPlaneSide
EXTRN	?Q_strncpy@@YAIPADPBDI@Z:PROC			; Q_strncpy
EXTRN	?Q_atoi@@YAHPBD@Z:PROC				; Q_atoi
EXTRN	?Q_strnicmp@@YAHPBD0H@Z:PROC			; Q_strnicmp
EXTRN	?Q_strncmp@@YAHPBD0H@Z:PROC			; Q_strncmp
EXTRN	?Q_vsnprintf@@YAHPADIPBD0@Z:PROC		; Q_vsnprintf
EXTRN	?Q_snprintf@@YAHPADIPBDZZ:PROC			; Q_snprintf
EXTRN	?va@@YAPADPBDZZ:PROC				; va
EXTRN	?COM_ParseFileExt@@YAPADPAD0J_N@Z:PROC		; COM_ParseFileExt
EXTRN	?COM_FixSlashes@@YAXPAD@Z:PROC			; COM_FixSlashes
EXTRN	?R_WorldToScreen@@YAHABVVector@@AAV1@@Z:PROC	; R_WorldToScreen
EXTRN	@__security_check_cookie@4:PROC
EXTRN	__chkstk:PROC
EXTRN	?gEngfuncs@@3Ucl_enginefuncs_s@@A:BYTE		; gEngfuncs
EXTRN	?gRenderfuncs@@3Urender_api_s@@A:BYTE		; gRenderfuncs
EXTRN	?gHUD@@3VCHud@@A:BYTE				; gHUD
EXTRN	?developer_level@@3HA:DWORD			; developer_level
EXTRN	?r_currentMessageNum@@3HA:DWORD			; r_currentMessageNum
EXTRN	?IEngineStudio@@3Uengine_studio_api_s@@A:BYTE	; IEngineStudio
EXTRN	?worldmodel@@3PAUmodel_s@@A:DWORD		; worldmodel
EXTRN	?RI@@3PAUref_instance_t@@A:DWORD		; RI
EXTRN	?tr@@3Uref_globals_t@@A:BYTE			; tr
EXTRN	___security_cookie:DWORD
EXTRN	__fltused:DWORD
_BSS	SEGMENT
?decompressed@?1??Mod_DecompressVis@@YAPAEPBEPAUmodel_s@@@Z@4PAEA DB 0fffH DUP (?) ; `Mod_DecompressVis'::`2'::decompressed
	ALIGN	4

?real_path@?1??Sys_RemoveFile@@YA_NPBD@Z@4PADA DB 0400H DUP (?) ; `Sys_RemoveFile'::`2'::real_path
_BSS	ENDS
;	COMDAT __xmm@80000000800000008000000080000000
CONST	SEGMENT
__xmm@80000000800000008000000080000000 DB 00H, 00H, 00H, 080H, 00H, 00H, 00H
	DB	080H, 00H, 00H, 00H, 080H, 00H, 00H, 00H, 080H
CONST	ENDS
;	COMDAT __real@bf800000
CONST	SEGMENT
__real@bf800000 DD 0bf800000r			; -1
CONST	ENDS
;	COMDAT __real@bf000000
CONST	SEGMENT
__real@bf000000 DD 0bf000000r			; -0.5
CONST	ENDS
;	COMDAT __real@bdcccccd
CONST	SEGMENT
__real@bdcccccd DD 0bdcccccdr			; -0.1
CONST	ENDS
;	COMDAT __real@44200000
CONST	SEGMENT
__real@44200000 DD 044200000r			; 640
CONST	ENDS
;	COMDAT __real@43f00000
CONST	SEGMENT
__real@43f00000 DD 043f00000r			; 480
CONST	ENDS
;	COMDAT __real@437f0000
CONST	SEGMENT
__real@437f0000 DD 0437f0000r			; 255
CONST	ENDS
;	COMDAT __real@432a0000
CONST	SEGMENT
__real@432a0000 DD 0432a0000r			; 170
CONST	ENDS
;	COMDAT __real@42b40000
CONST	SEGMENT
__real@42b40000 DD 042b40000r			; 90
CONST	ENDS
;	COMDAT __real@42652ee1
CONST	SEGMENT
__real@42652ee1 DD 042652ee1r			; 57.2958
CONST	ENDS
;	COMDAT __real@4170000000000000
CONST	SEGMENT
__real@4170000000000000 DQ 04170000000000000r	; 1.67772e+07
CONST	ENDS
;	COMDAT __real@40a00000
CONST	SEGMENT
__real@40a00000 DD 040a00000r			; 5
CONST	ENDS
;	COMDAT __real@40800000
CONST	SEGMENT
__real@40800000 DD 040800000r			; 4
CONST	ENDS
;	COMDAT __real@4076800000000000
CONST	SEGMENT
__real@4076800000000000 DQ 04076800000000000r	; 360
CONST	ENDS
;	COMDAT __real@40400000
CONST	SEGMENT
__real@40400000 DD 040400000r			; 3
CONST	ENDS
;	COMDAT __real@400921fb54442d18
CONST	SEGMENT
__real@400921fb54442d18 DQ 0400921fb54442d18r	; 3.14159
CONST	ENDS
;	COMDAT __real@4000000000000000
CONST	SEGMENT
__real@4000000000000000 DQ 04000000000000000r	; 2
CONST	ENDS
;	COMDAT __real@40000000
CONST	SEGMENT
__real@40000000 DD 040000000r			; 2
CONST	ENDS
;	COMDAT __real@3fe0000000000000
CONST	SEGMENT
__real@3fe0000000000000 DQ 03fe0000000000000r	; 0.5
CONST	ENDS
;	COMDAT __real@3f800000
CONST	SEGMENT
__real@3f800000 DD 03f800000r			; 1
CONST	ENDS
;	COMDAT __real@3f000000
CONST	SEGMENT
__real@3f000000 DD 03f000000r			; 0.5
CONST	ENDS
;	COMDAT __real@3dcccccd
CONST	SEGMENT
__real@3dcccccd DD 03dcccccdr			; 0.1
CONST	ENDS
;	COMDAT __real@3c8efa35
CONST	SEGMENT
__real@3c8efa35 DD 03c8efa35r			; 0.0174533
CONST	ENDS
;	COMDAT __real@00000000
CONST	SEGMENT
__real@00000000 DD 000000000r			; 0
CONST	ENDS
;	COMDAT ??_C@_05GFOLEBJA@?$CFs?1?$CFs?$AA@
CONST	SEGMENT
??_C@_05GFOLEBJA@?$CFs?1?$CFs?$AA@ DB '%s/%s', 00H	; `string'
CONST	ENDS
;	COMDAT ??_C@_0BI@BOKDEL@?$CFs?5loaded?5succesfully?$CB?6?$AA@
CONST	SEGMENT
??_C@_0BI@BOKDEL@?$CFs?5loaded?5succesfully?$CB?6?$AA@ DB '%s loaded succ'
	DB	'esfully!', 0aH, 00H				; `string'
CONST	ENDS
;	COMDAT ??_C@_09ILGMALND@?$CFs?1bin?1?$CFs?$AA@
CONST	SEGMENT
??_C@_09ILGMALND@?$CFs?1bin?1?$CFs?$AA@ DB '%s/bin/%s', 00H ; `string'
CONST	ENDS
;	COMDAT ??_C@_06LNLHEAAG@height?$AA@
CONST	SEGMENT
??_C@_06LNLHEAAG@height?$AA@ DB 'height', 00H		; `string'
CONST	ENDS
;	COMDAT ??_C@_05IGKADHGO@width?$AA@
CONST	SEGMENT
??_C@_05IGKADHGO@width?$AA@ DB 'width', 00H		; `string'
CONST	ENDS
;	COMDAT ??_C@_01EANLCPLP@y?$AA@
CONST	SEGMENT
??_C@_01EANLCPLP@y?$AA@ DB 'y', 00H			; `string'
CONST	ENDS
;	COMDAT ??_C@_01FJMABOPO@x?$AA@
CONST	SEGMENT
??_C@_01FJMABOPO@x?$AA@ DB 'x', 00H			; `string'
CONST	ENDS
;	COMDAT ??_C@_04MEMAJGDJ@name?$AA@
CONST	SEGMENT
??_C@_04MEMAJGDJ@name?$AA@ DB 'name', 00H		; `string'
CONST	ENDS
;	COMDAT ??_C@_04DAMGJPCA@file?$AA@
CONST	SEGMENT
??_C@_04DAMGJPCA@file?$AA@ DB 'file', 00H		; `string'
CONST	ENDS
;	COMDAT ??_C@_01CELHOKLL@?$HN?$AA@
CONST	SEGMENT
??_C@_01CELHOKLL@?$HN?$AA@ DB '}', 00H			; `string'
CONST	ENDS
;	COMDAT ??_C@_01HCONENDN@?$HL?$AA@
CONST	SEGMENT
??_C@_01HCONENDN@?$HL?$AA@ DB '{', 00H			; `string'
CONST	ENDS
;	COMDAT ??_C@_0BI@KHJCGMOJ@V_CalcFov?3?5bad?5fov?5?$CFg?$CB?6?$AA@
CONST	SEGMENT
??_C@_0BI@KHJCGMOJ@V_CalcFov?3?5bad?5fov?5?$CFg?$CB?6?$AA@ DB 'V_CalcFov:'
	DB	' bad fov %g!', 0aH, 00H			; `string'
CONST	ENDS
;	COMDAT ??_C@_0BI@FECCGOFJ@assert?5failed?5at?5?$CFs?3?$CFi?6?$AA@
CONST	SEGMENT
??_C@_0BI@FECCGOFJ@assert?5failed?5at?5?$CFs?3?$CFi?6?$AA@ DB 'assert fai'
	DB	'led at %s:%i', 0aH, 00H			; `string'
CONST	ENDS
;	COMDAT ??_C@_0ED@FPLDKGDB@d?3?2?$CBdiffusion?52020?2source?5code?52@
CONST	SEGMENT
??_C@_0ED@FPLDKGDB@d?3?2?$CBdiffusion?52020?2source?5code?52@ DB 'd:\!dif'
	DB	'fusion 2020\source code 2022\client-server\client\utils.cpp', 00H ; `string'
CONST	ENDS
;	COMDAT ?__LINE__Var@?0??R_BoundsForAABB@@YAXABVVector@@0QAV2@@Z@4JA
_DATA	SEGMENT
?__LINE__Var@?0??R_BoundsForAABB@@YAXABVVector@@0QAV2@@Z@4JA DD 0304H ; `R_BoundsForAABB'::`1'::__LINE__Var
_DATA	ENDS
;	COMDAT ??_C@_0CI@OPFIFHKG@R_SplitPolygon?3?5MAX_POLYGON_POIN@
CONST	SEGMENT
??_C@_0CI@OPFIFHKG@R_SplitPolygon?3?5MAX_POLYGON_POIN@ DB 'R_SplitPolygon'
	DB	': MAX_POLYGON_POINTS hit', 0aH, 00H		; `string'
CONST	ENDS
;	COMDAT ??_C@_0CH@KGNNFBBJ@R_ClipPolygon?3?5MAX_POLYGON_POINT@
CONST	SEGMENT
??_C@_0CH@KGNNFBBJ@R_ClipPolygon?3?5MAX_POLYGON_POINT@ DB 'R_ClipPolygon:'
	DB	' MAX_POLYGON_POINTS hit', 0aH, 00H		; `string'
CONST	ENDS
;	COMDAT ??_C@_0O@DKJGHMGN@?$FO1Error?3?$FO7?5?$CFs?$AA@
CONST	SEGMENT
??_C@_0O@DKJGHMGN@?$FO1Error?3?$FO7?5?$CFs?$AA@ DB '^1Error:^7 %s', 00H ; `string'
CONST	ENDS
;	COMDAT ??_C@_0BA@KNHIKLDN@?$FO3Warning?3?$FO7?5?$CFs?$AA@
CONST	SEGMENT
??_C@_0BA@KNHIKLDN@?$FO3Warning?3?$FO7?5?$CFs?$AA@ DB '^3Warning:^7 %s', 00H ; `string'
CONST	ENDS
; Function compile flags: /Odtp /ZI
; File d:\!diffusion 2020\source code 2022\client-server\client\utils.cpp
;	COMDAT ?ParseHudSprite@@YAPADPAD0PAUclient_sprite_s@@@Z
_TEXT	SEGMENT
_m_hSprite$1 = -440					; size = 4
_testSprite$2 = -436					; size = 4
_token$ = -432						; size = 256
_section$ = -176					; size = 4
_height$ = -172						; size = 4
_width$ = -168						; size = 4
_y$ = -164						; size = 4
_x$ = -160						; size = 4
_tempSprite$ = -156					; size = 152
__$ArrayPad$ = -4					; size = 4
_pfile$ = 8						; size = 4
_psz$ = 12						; size = 4
_result$ = 16						; size = 4
?ParseHudSprite@@YAPADPAD0PAUclient_sprite_s@@@Z PROC	; ParseHudSprite, COMDAT

; 889  : {

	push	ebp
	mov	ebp, esp
	sub	esp, 504				; 000001f8H
	mov	eax, DWORD PTR ___security_cookie
	xor	eax, ebp
	mov	DWORD PTR __$ArrayPad$[ebp], eax
	push	ebx
	push	esi
	push	edi

; 890  : 	client_sprite_t tempSprite;
; 891  : 	int x = 0, y = 0, width = 0, height = 0;

	mov	DWORD PTR _x$[ebp], 0
	mov	DWORD PTR _y$[ebp], 0
	mov	DWORD PTR _width$[ebp], 0
	mov	DWORD PTR _height$[ebp], 0

; 892  : 	int section = 0;

	mov	DWORD PTR _section$[ebp], 0

; 893  : 	char token[256];
; 894  : 	
; 895  : 	memset( &tempSprite, 0, sizeof( tempSprite ));

	push	152					; 00000098H
	push	0
	lea	eax, DWORD PTR _tempSprite$[ebp]
	push	eax
	call	_memset
	add	esp, 12					; 0000000cH

; 896  : 	memset( result, 0, sizeof( *result ));

	push	152					; 00000098H
	push	0
	mov	eax, DWORD PTR _result$[ebp]
	push	eax
	call	_memset
	add	esp, 12					; 0000000cH
$LN2@ParseHudSp:

; 897  :           
; 898  : 	while( pfile )

	cmp	DWORD PTR _pfile$[ebp], 0
	je	$LN3@ParseHudSp

; 899  : 	{
; 900  : 		pfile = COM_ParseFile( pfile, token );	

	push	1
	push	256					; 00000100H
	lea	eax, DWORD PTR _token$[ebp]
	push	eax
	mov	ecx, DWORD PTR _pfile$[ebp]
	push	ecx
	call	?COM_ParseFileExt@@YAPADPAD0J_N@Z	; COM_ParseFileExt
	add	esp, 16					; 00000010H
	mov	DWORD PTR _pfile$[ebp], eax

; 901  : 
; 902  : 		if( !Q_stricmp( token, psz ))

	push	99999					; 0001869fH
	mov	eax, DWORD PTR _psz$[ebp]
	push	eax
	lea	ecx, DWORD PTR _token$[ebp]
	push	ecx
	call	?Q_strnicmp@@YAHPBD0H@Z			; Q_strnicmp
	add	esp, 12					; 0000000cH
	test	eax, eax
	jne	SHORT $LN4@ParseHudSp

; 903  : 		{
; 904  : 			pfile = COM_ParseFile( pfile, token );	

	push	1
	push	256					; 00000100H
	lea	eax, DWORD PTR _token$[ebp]
	push	eax
	mov	ecx, DWORD PTR _pfile$[ebp]
	push	ecx
	call	?COM_ParseFileExt@@YAPADPAD0J_N@Z	; COM_ParseFileExt
	add	esp, 16					; 00000010H
	mov	DWORD PTR _pfile$[ebp], eax

; 905  : 			if( !Q_stricmp( token, "{" )) section = 1;

	push	99999					; 0001869fH
	push	OFFSET ??_C@_01HCONENDN@?$HL?$AA@
	lea	eax, DWORD PTR _token$[ebp]
	push	eax
	call	?Q_strnicmp@@YAHPBD0H@Z			; Q_strnicmp
	add	esp, 12					; 0000000cH
	test	eax, eax
	jne	SHORT $LN4@ParseHudSp
	mov	DWORD PTR _section$[ebp], 1
$LN4@ParseHudSp:

; 906  : 		}
; 907  : 
; 908  : 		if( section )

	cmp	DWORD PTR _section$[ebp], 0
	je	$LN6@ParseHudSp

; 909  : 		{
; 910  : 			if( !Q_stricmp( token, "}" ))

	push	99999					; 0001869fH
	push	OFFSET ??_C@_01CELHOKLL@?$HN?$AA@
	lea	eax, DWORD PTR _token$[ebp]
	push	eax
	call	?Q_strnicmp@@YAHPBD0H@Z			; Q_strnicmp
	add	esp, 12					; 0000000cH
	test	eax, eax
	jne	SHORT $LN7@ParseHudSp

; 911  : 				break; // end section

	jmp	$LN3@ParseHudSp
$LN7@ParseHudSp:

; 912  : 			
; 913  : 			if( !Q_stricmp( token, "file" )) 

	push	99999					; 0001869fH
	push	OFFSET ??_C@_04DAMGJPCA@file?$AA@
	lea	eax, DWORD PTR _token$[ebp]
	push	eax
	call	?Q_strnicmp@@YAHPBD0H@Z			; Q_strnicmp
	add	esp, 12					; 0000000cH
	test	eax, eax
	jne	$LN8@ParseHudSp

; 914  : 			{                                          
; 915  : 				pfile = COM_ParseFile( pfile, token );

	push	1
	push	256					; 00000100H
	lea	eax, DWORD PTR _token$[ebp]
	push	eax
	mov	ecx, DWORD PTR _pfile$[ebp]
	push	ecx
	call	?COM_ParseFileExt@@YAPADPAD0J_N@Z	; COM_ParseFileExt
	add	esp, 16					; 00000010H
	mov	DWORD PTR _pfile$[ebp], eax

; 916  : 				Q_strcpy( tempSprite.szSprite, token );

	push	99999					; 0001869fH
	lea	eax, DWORD PTR _token$[ebp]
	push	eax
	lea	ecx, DWORD PTR _tempSprite$[ebp+64]
	push	ecx
	call	?Q_strncpy@@YAIPADPBDI@Z		; Q_strncpy
	add	esp, 12					; 0000000cH

; 917  : 				void *testSprite;
; 918  : 
; 919  : 				if(( testSprite = gEngfuncs.COM_LoadFile( tempSprite.szSprite, 5, NULL )) != NULL )

	push	0
	push	5
	lea	eax, DWORD PTR _tempSprite$[ebp+64]
	push	eax
	call	DWORD PTR ?gEngfuncs@@3Ucl_enginefuncs_s@@A+316
	add	esp, 12					; 0000000cH
	mov	DWORD PTR _testSprite$2[ebp], eax
	cmp	DWORD PTR _testSprite$2[ebp], 0
	je	SHORT $LN10@ParseHudSp

; 920  : 				{
; 921  : 					gEngfuncs.COM_FreeFile( testSprite );

	mov	eax, DWORD PTR _testSprite$2[ebp]
	push	eax
	call	DWORD PTR ?gEngfuncs@@3Ucl_enginefuncs_s@@A+324
	add	esp, 4

; 922  : 
; 923  : 					// fill structure at default
; 924  : 					SpriteHandle m_hSprite = SPR_Load( tempSprite.szSprite );

	lea	eax, DWORD PTR _tempSprite$[ebp+64]
	push	eax
	call	DWORD PTR ?gEngfuncs@@3Ucl_enginefuncs_s@@A
	add	esp, 4
	mov	DWORD PTR _m_hSprite$1[ebp], eax

; 925  : 
; 926  : 					width = SPR_Width( m_hSprite, 0 );

	push	0
	mov	eax, DWORD PTR _m_hSprite$1[ebp]
	push	eax
	call	DWORD PTR ?gEngfuncs@@3Ucl_enginefuncs_s@@A+12
	add	esp, 8
	mov	DWORD PTR _width$[ebp], eax

; 927  : 					height = SPR_Height( m_hSprite, 0 );

	push	0
	mov	eax, DWORD PTR _m_hSprite$1[ebp]
	push	eax
	call	DWORD PTR ?gEngfuncs@@3Ucl_enginefuncs_s@@A+8
	add	esp, 8
	mov	DWORD PTR _height$[ebp], eax

; 928  : 					x = y = 0;

	mov	DWORD PTR _y$[ebp], 0
	mov	eax, DWORD PTR _y$[ebp]
	mov	DWORD PTR _x$[ebp], eax

; 929  : 				}
; 930  : 				else

	jmp	SHORT $LN11@ParseHudSp
$LN10@ParseHudSp:

; 931  : 				{
; 932  : 					return pfile;

	mov	eax, DWORD PTR _pfile$[ebp]
	jmp	$LN1@ParseHudSp
$LN11@ParseHudSp:

; 933  : 				}

	jmp	$LN6@ParseHudSp
$LN8@ParseHudSp:

; 934  : 			}
; 935  : 			else if( !Q_stricmp( token, "name" )) 

	push	99999					; 0001869fH
	push	OFFSET ??_C@_04MEMAJGDJ@name?$AA@
	lea	eax, DWORD PTR _token$[ebp]
	push	eax
	call	?Q_strnicmp@@YAHPBD0H@Z			; Q_strnicmp
	add	esp, 12					; 0000000cH
	test	eax, eax
	jne	SHORT $LN12@ParseHudSp

; 936  : 			{                                          
; 937  : 				pfile = COM_ParseFile( pfile, token );

	push	1
	push	256					; 00000100H
	lea	eax, DWORD PTR _token$[ebp]
	push	eax
	mov	ecx, DWORD PTR _pfile$[ebp]
	push	ecx
	call	?COM_ParseFileExt@@YAPADPAD0J_N@Z	; COM_ParseFileExt
	add	esp, 16					; 00000010H
	mov	DWORD PTR _pfile$[ebp], eax

; 938  : 				Q_strcpy( tempSprite.szName, token );

	push	99999					; 0001869fH
	lea	eax, DWORD PTR _token$[ebp]
	push	eax
	lea	ecx, DWORD PTR _tempSprite$[ebp]
	push	ecx
	call	?Q_strncpy@@YAIPADPBDI@Z		; Q_strncpy
	add	esp, 12					; 0000000cH
	jmp	$LN6@ParseHudSp
$LN12@ParseHudSp:

; 939  : 			}
; 940  : 			else if( !Q_stricmp( token, "x" )) 

	push	99999					; 0001869fH
	push	OFFSET ??_C@_01FJMABOPO@x?$AA@
	lea	eax, DWORD PTR _token$[ebp]
	push	eax
	call	?Q_strnicmp@@YAHPBD0H@Z			; Q_strnicmp
	add	esp, 12					; 0000000cH
	test	eax, eax
	jne	SHORT $LN14@ParseHudSp

; 941  : 			{                                          
; 942  : 				pfile = COM_ParseFile( pfile, token );

	push	1
	push	256					; 00000100H
	lea	eax, DWORD PTR _token$[ebp]
	push	eax
	mov	ecx, DWORD PTR _pfile$[ebp]
	push	ecx
	call	?COM_ParseFileExt@@YAPADPAD0J_N@Z	; COM_ParseFileExt
	add	esp, 16					; 00000010H
	mov	DWORD PTR _pfile$[ebp], eax

; 943  : 				x = Q_atoi( token );

	lea	eax, DWORD PTR _token$[ebp]
	push	eax
	call	?Q_atoi@@YAHPBD@Z			; Q_atoi
	add	esp, 4
	mov	DWORD PTR _x$[ebp], eax
	jmp	$LN6@ParseHudSp
$LN14@ParseHudSp:

; 944  : 			}
; 945  : 			else if( !Q_stricmp( token, "y" )) 

	push	99999					; 0001869fH
	push	OFFSET ??_C@_01EANLCPLP@y?$AA@
	lea	eax, DWORD PTR _token$[ebp]
	push	eax
	call	?Q_strnicmp@@YAHPBD0H@Z			; Q_strnicmp
	add	esp, 12					; 0000000cH
	test	eax, eax
	jne	SHORT $LN16@ParseHudSp

; 946  : 			{                                          
; 947  : 				pfile = COM_ParseFile( pfile, token );

	push	1
	push	256					; 00000100H
	lea	eax, DWORD PTR _token$[ebp]
	push	eax
	mov	ecx, DWORD PTR _pfile$[ebp]
	push	ecx
	call	?COM_ParseFileExt@@YAPADPAD0J_N@Z	; COM_ParseFileExt
	add	esp, 16					; 00000010H
	mov	DWORD PTR _pfile$[ebp], eax

; 948  : 				y = Q_atoi( token );

	lea	eax, DWORD PTR _token$[ebp]
	push	eax
	call	?Q_atoi@@YAHPBD@Z			; Q_atoi
	add	esp, 4
	mov	DWORD PTR _y$[ebp], eax
	jmp	$LN6@ParseHudSp
$LN16@ParseHudSp:

; 949  : 			}
; 950  : 			else if( !Q_stricmp( token, "width" )) 

	push	99999					; 0001869fH
	push	OFFSET ??_C@_05IGKADHGO@width?$AA@
	lea	eax, DWORD PTR _token$[ebp]
	push	eax
	call	?Q_strnicmp@@YAHPBD0H@Z			; Q_strnicmp
	add	esp, 12					; 0000000cH
	test	eax, eax
	jne	SHORT $LN18@ParseHudSp

; 951  : 			{                                          
; 952  : 				pfile = COM_ParseFile( pfile, token );

	push	1
	push	256					; 00000100H
	lea	eax, DWORD PTR _token$[ebp]
	push	eax
	mov	ecx, DWORD PTR _pfile$[ebp]
	push	ecx
	call	?COM_ParseFileExt@@YAPADPAD0J_N@Z	; COM_ParseFileExt
	add	esp, 16					; 00000010H
	mov	DWORD PTR _pfile$[ebp], eax

; 953  : 				width = Q_atoi( token );

	lea	eax, DWORD PTR _token$[ebp]
	push	eax
	call	?Q_atoi@@YAHPBD@Z			; Q_atoi
	add	esp, 4
	mov	DWORD PTR _width$[ebp], eax
	jmp	SHORT $LN6@ParseHudSp
$LN18@ParseHudSp:

; 954  : 			}
; 955  : 			else if( !Q_stricmp( token, "height" )) 

	push	99999					; 0001869fH
	push	OFFSET ??_C@_06LNLHEAAG@height?$AA@
	lea	eax, DWORD PTR _token$[ebp]
	push	eax
	call	?Q_strnicmp@@YAHPBD0H@Z			; Q_strnicmp
	add	esp, 12					; 0000000cH
	test	eax, eax
	jne	SHORT $LN6@ParseHudSp

; 956  : 			{                                          
; 957  : 				pfile = COM_ParseFile( pfile, token );

	push	1
	push	256					; 00000100H
	lea	eax, DWORD PTR _token$[ebp]
	push	eax
	mov	ecx, DWORD PTR _pfile$[ebp]
	push	ecx
	call	?COM_ParseFileExt@@YAPADPAD0J_N@Z	; COM_ParseFileExt
	add	esp, 16					; 00000010H
	mov	DWORD PTR _pfile$[ebp], eax

; 958  : 				height = Q_atoi( token );

	lea	eax, DWORD PTR _token$[ebp]
	push	eax
	call	?Q_atoi@@YAHPBD@Z			; Q_atoi
	add	esp, 4
	mov	DWORD PTR _height$[ebp], eax
$LN6@ParseHudSp:

; 959  : 			}
; 960  : 		}
; 961  : 	}

	jmp	$LN2@ParseHudSp
$LN3@ParseHudSp:

; 962  : 
; 963  : 	if( !section )

	cmp	DWORD PTR _section$[ebp], 0
	jne	SHORT $LN21@ParseHudSp

; 964  : 		return pfile; // data not found

	mov	eax, DWORD PTR _pfile$[ebp]
	jmp	SHORT $LN1@ParseHudSp
$LN21@ParseHudSp:

; 965  : 
; 966  : 	// calculate sprite position
; 967  : 	tempSprite.rc.left = x;

	mov	eax, DWORD PTR _x$[ebp]
	mov	DWORD PTR _tempSprite$[ebp+136], eax

; 968  : 	tempSprite.rc.right = x + width; 

	mov	eax, DWORD PTR _x$[ebp]
	add	eax, DWORD PTR _width$[ebp]
	mov	DWORD PTR _tempSprite$[ebp+140], eax

; 969  : 	tempSprite.rc.top = y;

	mov	eax, DWORD PTR _y$[ebp]
	mov	DWORD PTR _tempSprite$[ebp+144], eax

; 970  : 	tempSprite.rc.bottom = y + height;

	mov	eax, DWORD PTR _y$[ebp]
	add	eax, DWORD PTR _height$[ebp]
	mov	DWORD PTR _tempSprite$[ebp+148], eax

; 971  : 
; 972  : 	// write resolution for backward compatibility
; 973  : 	if( ScreenWidth < 640 )

	cmp	DWORD PTR ?gHUD@@3VCHud@@A+8436, 640	; 00000280H
	jge	SHORT $LN22@ParseHudSp

; 974  : 		tempSprite.iRes = 320;

	mov	DWORD PTR _tempSprite$[ebp+132], 320	; 00000140H
	jmp	SHORT $LN23@ParseHudSp
$LN22@ParseHudSp:

; 975  : 	else tempSprite.iRes = 640;

	mov	DWORD PTR _tempSprite$[ebp+132], 640	; 00000280H
$LN23@ParseHudSp:

; 976  : 
; 977  : 	*result = tempSprite;

	mov	ecx, 38					; 00000026H
	lea	esi, DWORD PTR _tempSprite$[ebp]
	mov	edi, DWORD PTR _result$[ebp]
	rep movsd

; 978  : 
; 979  : 	return pfile;

	mov	eax, DWORD PTR _pfile$[ebp]
$LN1@ParseHudSp:

; 980  : }

	pop	edi
	pop	esi
	pop	ebx
	mov	ecx, DWORD PTR __$ArrayPad$[ebp]
	xor	ecx, ebp
	call	@__security_check_cookie@4
	mov	esp, ebp
	pop	ebp
	ret	0
?ParseHudSprite@@YAPADPAD0PAUclient_sprite_s@@@Z ENDP	; ParseHudSprite
_TEXT	ENDS
; Function compile flags: /Odtp /ZI
; File d:\!diffusion 2020\source code 2022\client-server\client\utils.cpp
;	COMDAT ?R_BoundsForAABB@@YAXABVVector@@0QAV1@@Z
_TEXT	SEGMENT
tv153 = -72						; size = 4
tv136 = -72						; size = 4
tv87 = -72						; size = 4
_i$1 = -4						; size = 4
_absmin$ = 8						; size = 4
_absmax$ = 12						; size = 4
_bbox$ = 16						; size = 4
?R_BoundsForAABB@@YAXABVVector@@0QAV1@@Z PROC		; R_BoundsForAABB, COMDAT

; 772  : {

	push	ebp
	mov	ebp, esp
	sub	esp, 72					; 00000048H
	push	ebx
	push	esi
	push	edi

; 773  : 	ASSERT( bbox != NULL );

	cmp	DWORD PTR _bbox$[ebp], 0
	jne	SHORT $LN5@R_BoundsFo
	mov	eax, DWORD PTR ?__LINE__Var@?0??R_BoundsForAABB@@YAXABVVector@@0QAV2@@Z@4JA
	add	eax, 1
	push	eax
	push	OFFSET ??_C@_0ED@FPLDKGDB@d?3?2?$CBdiffusion?52020?2source?5code?52@
	push	OFFSET ??_C@_0BI@FECCGOFJ@assert?5failed?5at?5?$CFs?3?$CFi?6?$AA@
	call	DWORD PTR ?gRenderfuncs@@3Urender_api_s@@A+236
	add	esp, 12					; 0000000cH
$LN5@R_BoundsFo:

; 774  : 
; 775  : 	// compute a full bounding box
; 776  : 	for( int i = 0; i < 8; i++ )

	mov	DWORD PTR _i$1[ebp], 0
	jmp	SHORT $LN4@R_BoundsFo
$LN2@R_BoundsFo:
	mov	eax, DWORD PTR _i$1[ebp]
	add	eax, 1
	mov	DWORD PTR _i$1[ebp], eax
$LN4@R_BoundsFo:
	cmp	DWORD PTR _i$1[ebp], 8
	jge	$LN3@R_BoundsFo

; 777  : 	{
; 778  :   		bbox[i][0] = ( i & 1 ) ? absmin[0] : absmax[0];

	mov	eax, DWORD PTR _i$1[ebp]
	and	eax, 1
	je	SHORT $LN7@R_BoundsFo
	mov	ecx, DWORD PTR _absmin$[ebp]
	call	??BVector@@QBEPBMXZ			; Vector::operator float const *
	mov	ecx, 4
	imul	edx, ecx, 0
	movss	xmm0, DWORD PTR [eax+edx]
	movss	DWORD PTR tv87[ebp], xmm0
	jmp	SHORT $LN8@R_BoundsFo
$LN7@R_BoundsFo:
	mov	ecx, DWORD PTR _absmax$[ebp]
	call	??BVector@@QBEPBMXZ			; Vector::operator float const *
	mov	ecx, 4
	imul	edx, ecx, 0
	movss	xmm0, DWORD PTR [eax+edx]
	movss	DWORD PTR tv87[ebp], xmm0
$LN8@R_BoundsFo:
	imul	ecx, DWORD PTR _i$1[ebp], 12
	add	ecx, DWORD PTR _bbox$[ebp]
	call	??BVector@@QAEPAMXZ			; Vector::operator float *
	mov	ecx, 4
	imul	edx, ecx, 0
	movss	xmm0, DWORD PTR tv87[ebp]
	movss	DWORD PTR [eax+edx], xmm0

; 779  :   		bbox[i][1] = ( i & 2 ) ? absmin[1] : absmax[1];

	mov	eax, DWORD PTR _i$1[ebp]
	and	eax, 2
	je	SHORT $LN9@R_BoundsFo
	mov	ecx, DWORD PTR _absmin$[ebp]
	call	??BVector@@QBEPBMXZ			; Vector::operator float const *
	mov	ecx, 4
	shl	ecx, 0
	movss	xmm0, DWORD PTR [eax+ecx]
	movss	DWORD PTR tv136[ebp], xmm0
	jmp	SHORT $LN10@R_BoundsFo
$LN9@R_BoundsFo:
	mov	ecx, DWORD PTR _absmax$[ebp]
	call	??BVector@@QBEPBMXZ			; Vector::operator float const *
	mov	edx, 4
	shl	edx, 0
	movss	xmm0, DWORD PTR [eax+edx]
	movss	DWORD PTR tv136[ebp], xmm0
$LN10@R_BoundsFo:
	imul	ecx, DWORD PTR _i$1[ebp], 12
	add	ecx, DWORD PTR _bbox$[ebp]
	call	??BVector@@QAEPAMXZ			; Vector::operator float *
	mov	ecx, 4
	shl	ecx, 0
	movss	xmm0, DWORD PTR tv136[ebp]
	movss	DWORD PTR [eax+ecx], xmm0

; 780  :   		bbox[i][2] = ( i & 4 ) ? absmin[2] : absmax[2];

	mov	eax, DWORD PTR _i$1[ebp]
	and	eax, 4
	je	SHORT $LN11@R_BoundsFo
	mov	ecx, DWORD PTR _absmin$[ebp]
	call	??BVector@@QBEPBMXZ			; Vector::operator float const *
	mov	ecx, 4
	shl	ecx, 1
	movss	xmm0, DWORD PTR [eax+ecx]
	movss	DWORD PTR tv153[ebp], xmm0
	jmp	SHORT $LN12@R_BoundsFo
$LN11@R_BoundsFo:
	mov	ecx, DWORD PTR _absmax$[ebp]
	call	??BVector@@QBEPBMXZ			; Vector::operator float const *
	mov	edx, 4
	shl	edx, 1
	movss	xmm0, DWORD PTR [eax+edx]
	movss	DWORD PTR tv153[ebp], xmm0
$LN12@R_BoundsFo:
	imul	ecx, DWORD PTR _i$1[ebp], 12
	add	ecx, DWORD PTR _bbox$[ebp]
	call	??BVector@@QAEPAMXZ			; Vector::operator float *
	mov	ecx, 4
	shl	ecx, 1
	movss	xmm0, DWORD PTR tv153[ebp]
	movss	DWORD PTR [eax+ecx], xmm0

; 781  : 	}

	jmp	$LN2@R_BoundsFo
$LN3@R_BoundsFo:

; 782  : }

	pop	edi
	pop	esi
	pop	ebx
	mov	esp, ebp
	pop	ebp
	ret	0
?R_BoundsForAABB@@YAXABVVector@@0QAV1@@Z ENDP		; R_BoundsForAABB
_TEXT	ENDS
; Function compile flags: /Odtp /ZI
; File d:\!diffusion 2020\source code 2022\client-server\client\utils.cpp
;	COMDAT ?R_ScissorForBounds@@YA_NQBVVector@@PAM111@Z
_TEXT	SEGMENT
tv277 = -1884						; size = 4
tv267 = -1884						; size = 4
tv257 = -1884						; size = 4
tv247 = -1884						; size = 4
tv167 = -1884						; size = 4
_j$ = -1624						; size = 4
_i$ = -1620						; size = 4
_pingPong$ = -1616					; size = 4
_ndc$ = -1612						; size = 12
_bounds$ = -1600					; size = 24
_numPoints$ = -1576					; size = 4
_y2$ = -1572						; size = 4
_x2$ = -1568						; size = 4
_y1$ = -1564						; size = 4
_x1$ = -1560						; size = 4
_iy2$ = -1556						; size = 4
_ix2$ = -1552						; size = 4
_iy1$ = -1548						; size = 4
_ix1$ = -1544						; size = 4
_points$ = -1540					; size = 1536
__$ArrayPad$ = -4					; size = 4
_bbox$ = 8						; size = 4
_x$ = 12						; size = 4
_y$ = 16						; size = 4
_w$ = 20						; size = 4
_h$ = 24						; size = 4
?R_ScissorForBounds@@YA_NQBVVector@@PAM111@Z PROC	; R_ScissorForBounds, COMDAT

; 694  : {

	push	ebp
	mov	ebp, esp
	sub	esp, 1884				; 0000075cH
	mov	eax, DWORD PTR ___security_cookie
	xor	eax, ebp
	mov	DWORD PTR __$ArrayPad$[ebp], eax
	push	ebx
	push	esi
	push	edi

; 695  : 	static int	cornerIndices[6][4] = {{3, 2, 6, 7}, {0, 1, 5, 4}, {2, 3, 1, 0}, {4, 5, 7, 6}, {1, 3, 7, 5}, {2, 0, 4, 6}};
; 696  : 	Vector		points[2][MAX_POLYGON_POINTS];

	push	OFFSET ??0Vector@@QAE@XZ		; Vector::Vector
	push	128					; 00000080H
	push	12					; 0000000cH
	lea	eax, DWORD PTR _points$[ebp]
	push	eax
	call	??_H@YGXPAXIIP6EPAX0@Z@Z

; 697  : 	float		ix1, iy1, ix2, iy2;
; 698  : 	float		x1, y1, x2, y2;
; 699  : 	int		numPoints;
; 700  : 	Vector		bounds[2];

	push	OFFSET ??0Vector@@QAE@XZ		; Vector::Vector
	push	2
	push	12					; 0000000cH
	lea	eax, DWORD PTR _bounds$[ebp]
	push	eax
	call	??_H@YGXPAXIIP6EPAX0@Z@Z

; 701  : 	Vector		ndc;

	lea	ecx, DWORD PTR _ndc$[ebp]
	call	??0Vector@@QAE@XZ			; Vector::Vector

; 702  : 	int		pingPong = 0;

	mov	DWORD PTR _pingPong$[ebp], 0

; 703  : 	int		i, j;
; 704  : 
; 705  : 	// Clip the light volume to the view frustum
; 706  : 	ClearBounds( bounds[0], bounds[1] );

	mov	eax, 12					; 0000000cH
	shl	eax, 0
	lea	ecx, DWORD PTR _bounds$[ebp+eax]
	push	ecx
	mov	edx, 12					; 0000000cH
	imul	eax, edx, 0
	lea	ecx, DWORD PTR _bounds$[ebp+eax]
	push	ecx
	call	?ClearBounds@@YAXAAVVector@@0@Z		; ClearBounds
	add	esp, 8

; 707  : 
; 708  : 	for( i = 0; i < 6; i++ )

	mov	DWORD PTR _i$[ebp], 0
	jmp	SHORT $LN4@R_ScissorF
$LN2@R_ScissorF:
	mov	eax, DWORD PTR _i$[ebp]
	add	eax, 1
	mov	DWORD PTR _i$[ebp], eax
$LN4@R_ScissorF:
	cmp	DWORD PTR _i$[ebp], 6
	jge	$LN3@R_ScissorF

; 709  : 	{
; 710  : 		numPoints = 4;

	mov	DWORD PTR _numPoints$[ebp], 4

; 711  : 
; 712  : 		points[pingPong][0] = bbox[cornerIndices[i][0]];

	mov	eax, DWORD PTR _i$[ebp]
	shl	eax, 4
	mov	ecx, 4
	imul	edx, ecx, 0
	imul	eax, DWORD PTR ?cornerIndices@?1??R_ScissorForBounds@@YA_NQBVVector@@PAM111@Z@4PAY03HA[eax+edx], 12
	add	eax, DWORD PTR _bbox$[ebp]
	imul	ecx, DWORD PTR _pingPong$[ebp], 768
	lea	edx, DWORD PTR _points$[ebp+ecx]
	mov	ecx, 12					; 0000000cH
	imul	ecx, ecx, 0
	add	edx, ecx
	mov	ecx, DWORD PTR [eax]
	mov	DWORD PTR [edx], ecx
	mov	ecx, DWORD PTR [eax+4]
	mov	DWORD PTR [edx+4], ecx
	mov	eax, DWORD PTR [eax+8]
	mov	DWORD PTR [edx+8], eax

; 713  : 		points[pingPong][1] = bbox[cornerIndices[i][1]];

	mov	eax, DWORD PTR _i$[ebp]
	shl	eax, 4
	mov	ecx, 4
	shl	ecx, 0
	imul	edx, DWORD PTR ?cornerIndices@?1??R_ScissorForBounds@@YA_NQBVVector@@PAM111@Z@4PAY03HA[eax+ecx], 12
	add	edx, DWORD PTR _bbox$[ebp]
	imul	eax, DWORD PTR _pingPong$[ebp], 768
	lea	ecx, DWORD PTR _points$[ebp+eax]
	mov	eax, 12					; 0000000cH
	shl	eax, 0
	add	ecx, eax
	mov	eax, DWORD PTR [edx]
	mov	DWORD PTR [ecx], eax
	mov	eax, DWORD PTR [edx+4]
	mov	DWORD PTR [ecx+4], eax
	mov	edx, DWORD PTR [edx+8]
	mov	DWORD PTR [ecx+8], edx

; 714  : 		points[pingPong][2] = bbox[cornerIndices[i][2]];

	mov	eax, DWORD PTR _i$[ebp]
	shl	eax, 4
	mov	ecx, 4
	shl	ecx, 1
	imul	edx, DWORD PTR ?cornerIndices@?1??R_ScissorForBounds@@YA_NQBVVector@@PAM111@Z@4PAY03HA[eax+ecx], 12
	add	edx, DWORD PTR _bbox$[ebp]
	imul	eax, DWORD PTR _pingPong$[ebp], 768
	lea	ecx, DWORD PTR _points$[ebp+eax]
	mov	eax, 12					; 0000000cH
	shl	eax, 1
	add	ecx, eax
	mov	eax, DWORD PTR [edx]
	mov	DWORD PTR [ecx], eax
	mov	eax, DWORD PTR [edx+4]
	mov	DWORD PTR [ecx+4], eax
	mov	edx, DWORD PTR [edx+8]
	mov	DWORD PTR [ecx+8], edx

; 715  : 		points[pingPong][3] = bbox[cornerIndices[i][3]];

	mov	eax, DWORD PTR _i$[ebp]
	shl	eax, 4
	mov	ecx, 4
	imul	edx, ecx, 3
	imul	eax, DWORD PTR ?cornerIndices@?1??R_ScissorForBounds@@YA_NQBVVector@@PAM111@Z@4PAY03HA[eax+edx], 12
	add	eax, DWORD PTR _bbox$[ebp]
	imul	ecx, DWORD PTR _pingPong$[ebp], 768
	lea	edx, DWORD PTR _points$[ebp+ecx]
	mov	ecx, 12					; 0000000cH
	imul	ecx, ecx, 3
	add	edx, ecx
	mov	ecx, DWORD PTR [eax]
	mov	DWORD PTR [edx], ecx
	mov	ecx, DWORD PTR [eax+4]
	mov	DWORD PTR [edx+4], ecx
	mov	eax, DWORD PTR [eax+8]
	mov	DWORD PTR [edx+8], eax

; 716  : 
; 717  : 		for( j = 0; j < FRUSTUM_PLANES; j++ )

	mov	DWORD PTR _j$[ebp], 0
	jmp	SHORT $LN7@R_ScissorF
$LN5@R_ScissorF:
	mov	eax, DWORD PTR _j$[ebp]
	add	eax, 1
	mov	DWORD PTR _j$[ebp], eax
$LN7@R_ScissorF:
	cmp	DWORD PTR _j$[ebp], 6
	jge	$LN6@R_ScissorF

; 718  : 		{
; 719  : 			if( !FBitSet( RI->frustum.GetClipFlags(), BIT( j )))

	mov	ecx, DWORD PTR ?RI@@3PAUref_instance_t@@A ; RI
	add	ecx, 48					; 00000030H
	call	?GetClipFlags@CFrustum@@QBEIXZ		; CFrustum::GetClipFlags
	mov	edx, 1
	mov	ecx, DWORD PTR _j$[ebp]
	shl	edx, cl
	and	eax, edx
	jne	SHORT $LN11@R_ScissorF

; 720  : 				continue;

	jmp	SHORT $LN5@R_ScissorF
$LN11@R_ScissorF:

; 721  : 
; 722  : 			if( !R_ClipPolygon( numPoints, points[pingPong], RI->frustum.GetPlane( j ), &numPoints, points[!pingPong] ))

	cmp	DWORD PTR _pingPong$[ebp], 0
	jne	SHORT $LN18@R_ScissorF
	mov	DWORD PTR tv167[ebp], 1
	jmp	SHORT $LN19@R_ScissorF
$LN18@R_ScissorF:
	mov	DWORD PTR tv167[ebp], 0
$LN19@R_ScissorF:
	imul	eax, DWORD PTR tv167[ebp], 768
	lea	ecx, DWORD PTR _points$[ebp+eax]
	push	ecx
	lea	edx, DWORD PTR _numPoints$[ebp]
	push	edx
	mov	eax, DWORD PTR _j$[ebp]
	push	eax
	mov	ecx, DWORD PTR ?RI@@3PAUref_instance_t@@A ; RI
	add	ecx, 48					; 00000030H
	call	?GetPlane@CFrustum@@QBEPBUmplane_s@@H@Z	; CFrustum::GetPlane
	push	eax
	imul	ecx, DWORD PTR _pingPong$[ebp], 768
	lea	edx, DWORD PTR _points$[ebp+ecx]
	push	edx
	mov	eax, DWORD PTR _numPoints$[ebp]
	push	eax
	call	?R_ClipPolygon@@YA_NHPAVVector@@PBUmplane_s@@PAH0@Z ; R_ClipPolygon
	add	esp, 20					; 00000014H
	movzx	ecx, al
	test	ecx, ecx
	jne	SHORT $LN12@R_ScissorF

; 723  : 				break;

	jmp	SHORT $LN6@R_ScissorF
$LN12@R_ScissorF:

; 724  : 
; 725  : 			pingPong ^= 1;

	mov	eax, DWORD PTR _pingPong$[ebp]
	xor	eax, 1
	mov	DWORD PTR _pingPong$[ebp], eax

; 726  : 		}

	jmp	$LN5@R_ScissorF
$LN6@R_ScissorF:

; 727  : 
; 728  : 		if( j != FRUSTUM_PLANES )

	cmp	DWORD PTR _j$[ebp], 6
	je	SHORT $LN13@R_ScissorF

; 729  : 			continue;

	jmp	$LN2@R_ScissorF
$LN13@R_ScissorF:

; 730  : 
; 731  : 		// Add the clipped points
; 732  : 		for( j = 0; j < numPoints; j++ )

	mov	DWORD PTR _j$[ebp], 0
	jmp	SHORT $LN10@R_ScissorF
$LN8@R_ScissorF:
	mov	eax, DWORD PTR _j$[ebp]
	add	eax, 1
	mov	DWORD PTR _j$[ebp], eax
$LN10@R_ScissorF:
	mov	eax, DWORD PTR _j$[ebp]
	cmp	eax, DWORD PTR _numPoints$[ebp]
	jge	SHORT $LN9@R_ScissorF

; 733  : 		{
; 734  : 			// Transform into normalized device coordinates
; 735  : 			R_TransformWorldToDevice( points[pingPong][j], ndc );

	lea	eax, DWORD PTR _ndc$[ebp]
	push	eax
	imul	ecx, DWORD PTR _pingPong$[ebp], 768
	lea	edx, DWORD PTR _points$[ebp+ecx]
	imul	eax, DWORD PTR _j$[ebp], 12
	add	edx, eax
	push	edx
	call	?R_TransformWorldToDevice@@YAXABVVector@@AAV1@@Z ; R_TransformWorldToDevice
	add	esp, 8

; 736  : 
; 737  : 			// Add it
; 738  : 			AddPointToBounds( ndc, bounds[0], bounds[1] );

	push	ecx
	xorps	xmm0, xmm0
	movss	DWORD PTR [esp], xmm0
	mov	eax, 12					; 0000000cH
	shl	eax, 0
	lea	ecx, DWORD PTR _bounds$[ebp+eax]
	push	ecx
	mov	edx, 12					; 0000000cH
	imul	eax, edx, 0
	lea	ecx, DWORD PTR _bounds$[ebp+eax]
	push	ecx
	lea	edx, DWORD PTR _ndc$[ebp]
	push	edx
	call	?AddPointToBounds@@YAXABVVector@@AAV1@1M@Z ; AddPointToBounds
	add	esp, 16					; 00000010H

; 739  : 		}

	jmp	$LN8@R_ScissorF
$LN9@R_ScissorF:

; 740  : 	}

	jmp	$LN2@R_ScissorF
$LN3@R_ScissorF:

; 741  : 
; 742  : 	// If completely clipped away, clear the scissor
; 743  : 	if( BoundsIsCleared( bounds[0], bounds[1] ))

	mov	eax, 12					; 0000000cH
	shl	eax, 0
	lea	ecx, DWORD PTR _bounds$[ebp+eax]
	push	ecx
	mov	edx, 12					; 0000000cH
	imul	eax, edx, 0
	lea	ecx, DWORD PTR _bounds$[ebp+eax]
	push	ecx
	call	?BoundsIsCleared@@YA_NABVVector@@0@Z	; BoundsIsCleared
	add	esp, 8
	movzx	edx, al
	test	edx, edx
	je	SHORT $LN14@R_ScissorF

; 744  : 		return false;

	xor	al, al
	jmp	$LN1@R_ScissorF
$LN14@R_ScissorF:

; 745  : 
; 746  : 	// Transform into screen space
; 747  : 	R_TransformDeviceToScreen( bounds[0], bounds[0] );

	mov	eax, 12					; 0000000cH
	imul	ecx, eax, 0
	lea	edx, DWORD PTR _bounds$[ebp+ecx]
	push	edx
	mov	eax, 12					; 0000000cH
	imul	ecx, eax, 0
	lea	edx, DWORD PTR _bounds$[ebp+ecx]
	push	edx
	call	?R_TransformDeviceToScreen@@YAXABVVector@@AAV1@@Z ; R_TransformDeviceToScreen
	add	esp, 8

; 748  : 	R_TransformDeviceToScreen( bounds[1], bounds[1] );

	mov	eax, 12					; 0000000cH
	shl	eax, 0
	lea	ecx, DWORD PTR _bounds$[ebp+eax]
	push	ecx
	mov	edx, 12					; 0000000cH
	shl	edx, 0
	lea	eax, DWORD PTR _bounds$[ebp+edx]
	push	eax
	call	?R_TransformDeviceToScreen@@YAXABVVector@@AAV1@@Z ; R_TransformDeviceToScreen
	add	esp, 8

; 749  : 
; 750  : 	x1 = bounds[0].x - 1.0f;

	mov	eax, 12					; 0000000cH
	imul	ecx, eax, 0
	movss	xmm0, DWORD PTR _bounds$[ebp+ecx]
	subss	xmm0, DWORD PTR __real@3f800000
	movss	DWORD PTR _x1$[ebp], xmm0

; 751  : 	y1 = bounds[0].y - 1.0f;

	mov	eax, 12					; 0000000cH
	imul	ecx, eax, 0
	movss	xmm0, DWORD PTR _bounds$[ebp+ecx+4]
	subss	xmm0, DWORD PTR __real@3f800000
	movss	DWORD PTR _y1$[ebp], xmm0

; 752  : 	x2 = bounds[1].x + 1.0f;

	mov	eax, 12					; 0000000cH
	shl	eax, 0
	movss	xmm0, DWORD PTR _bounds$[ebp+eax]
	addss	xmm0, DWORD PTR __real@3f800000
	movss	DWORD PTR _x2$[ebp], xmm0

; 753  : 	y2 = bounds[1].y + 1.0f;

	mov	eax, 12					; 0000000cH
	shl	eax, 0
	movss	xmm0, DWORD PTR _bounds$[ebp+eax+4]
	addss	xmm0, DWORD PTR __real@3f800000
	movss	DWORD PTR _y2$[ebp], xmm0

; 754  : 
; 755  : 	ix1 = Q_max( x1, RI->viewport[0] );

	mov	eax, 4
	imul	ecx, eax, 0
	mov	edx, DWORD PTR ?RI@@3PAUref_instance_t@@A ; RI
	cvtsi2ss xmm0, DWORD PTR [edx+ecx+32]
	movss	xmm1, DWORD PTR _x1$[ebp]
	comiss	xmm1, xmm0
	jbe	SHORT $LN20@R_ScissorF
	movss	xmm0, DWORD PTR _x1$[ebp]
	movss	DWORD PTR tv247[ebp], xmm0
	jmp	SHORT $LN21@R_ScissorF
$LN20@R_ScissorF:
	mov	eax, 4
	imul	ecx, eax, 0
	mov	edx, DWORD PTR ?RI@@3PAUref_instance_t@@A ; RI
	cvtsi2ss xmm0, DWORD PTR [edx+ecx+32]
	movss	DWORD PTR tv247[ebp], xmm0
$LN21@R_ScissorF:
	movss	xmm0, DWORD PTR tv247[ebp]
	movss	DWORD PTR _ix1$[ebp], xmm0

; 756  : 	ix2 = Q_min( x2, RI->viewport[2] );

	mov	eax, 4
	shl	eax, 1
	mov	ecx, DWORD PTR ?RI@@3PAUref_instance_t@@A ; RI
	cvtsi2ss xmm0, DWORD PTR [ecx+eax+32]
	comiss	xmm0, DWORD PTR _x2$[ebp]
	jbe	SHORT $LN22@R_ScissorF
	movss	xmm0, DWORD PTR _x2$[ebp]
	movss	DWORD PTR tv257[ebp], xmm0
	jmp	SHORT $LN23@R_ScissorF
$LN22@R_ScissorF:
	mov	edx, 4
	shl	edx, 1
	mov	eax, DWORD PTR ?RI@@3PAUref_instance_t@@A ; RI
	cvtsi2ss xmm0, DWORD PTR [eax+edx+32]
	movss	DWORD PTR tv257[ebp], xmm0
$LN23@R_ScissorF:
	movss	xmm0, DWORD PTR tv257[ebp]
	movss	DWORD PTR _ix2$[ebp], xmm0

; 757  : 	iy1 = Q_max( y1, RI->viewport[1] );

	mov	eax, 4
	shl	eax, 0
	mov	ecx, DWORD PTR ?RI@@3PAUref_instance_t@@A ; RI
	cvtsi2ss xmm0, DWORD PTR [ecx+eax+32]
	movss	xmm1, DWORD PTR _y1$[ebp]
	comiss	xmm1, xmm0
	jbe	SHORT $LN24@R_ScissorF
	movss	xmm0, DWORD PTR _y1$[ebp]
	movss	DWORD PTR tv267[ebp], xmm0
	jmp	SHORT $LN25@R_ScissorF
$LN24@R_ScissorF:
	mov	edx, 4
	shl	edx, 0
	mov	eax, DWORD PTR ?RI@@3PAUref_instance_t@@A ; RI
	cvtsi2ss xmm0, DWORD PTR [eax+edx+32]
	movss	DWORD PTR tv267[ebp], xmm0
$LN25@R_ScissorF:
	movss	xmm0, DWORD PTR tv267[ebp]
	movss	DWORD PTR _iy1$[ebp], xmm0

; 758  : 	iy2 = Q_min( y2, RI->viewport[3] );

	mov	eax, 4
	imul	ecx, eax, 3
	mov	edx, DWORD PTR ?RI@@3PAUref_instance_t@@A ; RI
	cvtsi2ss xmm0, DWORD PTR [edx+ecx+32]
	comiss	xmm0, DWORD PTR _y2$[ebp]
	jbe	SHORT $LN26@R_ScissorF
	movss	xmm0, DWORD PTR _y2$[ebp]
	movss	DWORD PTR tv277[ebp], xmm0
	jmp	SHORT $LN27@R_ScissorF
$LN26@R_ScissorF:
	mov	eax, 4
	imul	ecx, eax, 3
	mov	edx, DWORD PTR ?RI@@3PAUref_instance_t@@A ; RI
	cvtsi2ss xmm0, DWORD PTR [edx+ecx+32]
	movss	DWORD PTR tv277[ebp], xmm0
$LN27@R_ScissorF:
	movss	xmm0, DWORD PTR tv277[ebp]
	movss	DWORD PTR _iy2$[ebp], xmm0

; 759  : 
; 760  : 	*x = ix1 + 1.0f;

	movss	xmm0, DWORD PTR _ix1$[ebp]
	addss	xmm0, DWORD PTR __real@3f800000
	mov	eax, DWORD PTR _x$[ebp]
	movss	DWORD PTR [eax], xmm0

; 761  : 	*y = RI->viewport[3] - iy2; // OpenGL specifics

	mov	eax, 4
	imul	ecx, eax, 3
	mov	edx, DWORD PTR ?RI@@3PAUref_instance_t@@A ; RI
	cvtsi2ss xmm0, DWORD PTR [edx+ecx+32]
	subss	xmm0, DWORD PTR _iy2$[ebp]
	mov	eax, DWORD PTR _y$[ebp]
	movss	DWORD PTR [eax], xmm0

; 762  : 	*w = ix2 - ix1 - 1.0f;

	movss	xmm0, DWORD PTR _ix2$[ebp]
	subss	xmm0, DWORD PTR _ix1$[ebp]
	subss	xmm0, DWORD PTR __real@3f800000
	mov	eax, DWORD PTR _w$[ebp]
	movss	DWORD PTR [eax], xmm0

; 763  : 	*h = iy2 - iy1 - 1.0f;

	movss	xmm0, DWORD PTR _iy2$[ebp]
	subss	xmm0, DWORD PTR _iy1$[ebp]
	subss	xmm0, DWORD PTR __real@3f800000
	mov	eax, DWORD PTR _h$[ebp]
	movss	DWORD PTR [eax], xmm0

; 764  : 
; 765  : 	// headshield issues
; 766  : 	if( ix1 >= ix2 || iy1 >= iy2 )

	movss	xmm0, DWORD PTR _ix1$[ebp]
	comiss	xmm0, DWORD PTR _ix2$[ebp]
	jae	SHORT $LN16@R_ScissorF
	movss	xmm0, DWORD PTR _iy1$[ebp]
	comiss	xmm0, DWORD PTR _iy2$[ebp]
	jb	SHORT $LN15@R_ScissorF
$LN16@R_ScissorF:

; 767  : 		return false;

	xor	al, al
	jmp	SHORT $LN1@R_ScissorF
$LN15@R_ScissorF:

; 768  : 	return true;

	mov	al, 1
$LN1@R_ScissorF:

; 769  : }

	pop	edi
	pop	esi
	pop	ebx
	mov	ecx, DWORD PTR __$ArrayPad$[ebp]
	xor	ecx, ebp
	call	@__security_check_cookie@4
	mov	esp, ebp
	pop	ebp
	ret	0
?R_ScissorForBounds@@YA_NQBVVector@@PAM111@Z ENDP	; R_ScissorForBounds
_TEXT	ENDS
; Function compile flags: /Odtp /ZI
; File d:\!diffusion 2020\source code 2022\client-server\client\utils.cpp
;	COMDAT ?Mod_DecompressVis@@YAPAEPBEPAUmodel_s@@@Z
_TEXT	SEGMENT
_row$ = -12						; size = 4
_out$ = -8						; size = 4
_c$ = -4						; size = 4
_in$ = 8						; size = 4
_model$ = 12						; size = 4
?Mod_DecompressVis@@YAPAEPBEPAUmodel_s@@@Z PROC		; Mod_DecompressVis, COMDAT

; 313  : {

	push	ebp
	mov	ebp, esp
	sub	esp, 76					; 0000004cH
	push	ebx
	push	esi
	push	edi

; 314  : 	static byte	decompressed[MAX_MAP_LEAFS/8];
; 315  : 	int		c;
; 316  : 	byte		*out;
; 317  : 	int		row;
; 318  : 
; 319  : 	row = (model->numleafs+7)>>3;	

	mov	eax, DWORD PTR _model$[ebp]
	mov	ecx, DWORD PTR [eax+136]
	add	ecx, 7
	sar	ecx, 3
	mov	DWORD PTR _row$[ebp], ecx

; 320  : 	out = decompressed;

	mov	DWORD PTR _out$[ebp], OFFSET ?decompressed@?1??Mod_DecompressVis@@YAPAEPBEPAUmodel_s@@@Z@4PAEA

; 321  : 
; 322  : 	if( !in )

	cmp	DWORD PTR _in$[ebp], 0
	jne	SHORT $LN6@Mod_Decomp
$LN2@Mod_Decomp:

; 323  : 	{	// no vis info, so make all visible
; 324  : 		while( row )

	cmp	DWORD PTR _row$[ebp], 0
	je	SHORT $LN3@Mod_Decomp

; 325  : 		{
; 326  : 			*out++ = 0xff;

	mov	eax, DWORD PTR _out$[ebp]
	mov	BYTE PTR [eax], 255			; 000000ffH
	mov	ecx, DWORD PTR _out$[ebp]
	add	ecx, 1
	mov	DWORD PTR _out$[ebp], ecx

; 327  : 			row--;

	mov	eax, DWORD PTR _row$[ebp]
	sub	eax, 1
	mov	DWORD PTR _row$[ebp], eax

; 328  : 		}

	jmp	SHORT $LN2@Mod_Decomp
$LN3@Mod_Decomp:

; 329  : 		return decompressed;

	mov	eax, OFFSET ?decompressed@?1??Mod_DecompressVis@@YAPAEPBEPAUmodel_s@@@Z@4PAEA
	jmp	SHORT $LN1@Mod_Decomp
$LN6@Mod_Decomp:

; 330  : 	}
; 331  : 
; 332  : 	do
; 333  : 	{
; 334  : 		if( *in )

	mov	eax, DWORD PTR _in$[ebp]
	movzx	ecx, BYTE PTR [eax]
	test	ecx, ecx
	je	SHORT $LN10@Mod_Decomp

; 335  : 		{
; 336  : 			*out++ = *in++;

	mov	eax, DWORD PTR _out$[ebp]
	mov	ecx, DWORD PTR _in$[ebp]
	mov	dl, BYTE PTR [ecx]
	mov	BYTE PTR [eax], dl
	mov	eax, DWORD PTR _out$[ebp]
	add	eax, 1
	mov	DWORD PTR _out$[ebp], eax
	mov	ecx, DWORD PTR _in$[ebp]
	add	ecx, 1
	mov	DWORD PTR _in$[ebp], ecx

; 337  : 			continue;

	jmp	SHORT $LN4@Mod_Decomp
$LN10@Mod_Decomp:

; 338  : 		}
; 339  : 
; 340  : 		c = in[1];

	mov	eax, 1
	shl	eax, 0
	mov	ecx, DWORD PTR _in$[ebp]
	movzx	edx, BYTE PTR [ecx+eax]
	mov	DWORD PTR _c$[ebp], edx

; 341  : 		in += 2;

	mov	eax, DWORD PTR _in$[ebp]
	add	eax, 2
	mov	DWORD PTR _in$[ebp], eax
$LN7@Mod_Decomp:

; 342  : 		while( c )

	cmp	DWORD PTR _c$[ebp], 0
	je	SHORT $LN4@Mod_Decomp

; 343  : 		{
; 344  : 			*out++ = 0;

	mov	eax, DWORD PTR _out$[ebp]
	mov	BYTE PTR [eax], 0
	mov	ecx, DWORD PTR _out$[ebp]
	add	ecx, 1
	mov	DWORD PTR _out$[ebp], ecx

; 345  : 			c--;

	mov	eax, DWORD PTR _c$[ebp]
	sub	eax, 1
	mov	DWORD PTR _c$[ebp], eax

; 346  : 		}

	jmp	SHORT $LN7@Mod_Decomp
$LN4@Mod_Decomp:

; 347  : 	} while( out - decompressed < row );

	mov	eax, DWORD PTR _out$[ebp]
	sub	eax, OFFSET ?decompressed@?1??Mod_DecompressVis@@YAPAEPBEPAUmodel_s@@@Z@4PAEA
	cmp	eax, DWORD PTR _row$[ebp]
	jl	SHORT $LN6@Mod_Decomp

; 348  : 	
; 349  : 	return decompressed;

	mov	eax, OFFSET ?decompressed@?1??Mod_DecompressVis@@YAPAEPBEPAUmodel_s@@@Z@4PAEA
$LN1@Mod_Decomp:

; 350  : }

	pop	edi
	pop	esi
	pop	ebx
	mov	esp, ebp
	pop	ebp
	ret	0
?Mod_DecompressVis@@YAPAEPBEPAUmodel_s@@@Z ENDP		; Mod_DecompressVis
_TEXT	ENDS
; Function compile flags: /Odtp /ZI
; File d:\!diffusion 2020\source code 2022\client-server\client\utils.cpp
;	COMDAT ?Mod_HeadnodeVisible@@YA_NPAUmnode_s@@PBE@Z
_TEXT	SEGMENT
tv81 = -65						; size = 1
_node$ = 8						; size = 4
_visbits$ = 12						; size = 4
?Mod_HeadnodeVisible@@YA_NPAUmnode_s@@PBE@Z PROC	; Mod_HeadnodeVisible, COMDAT

; 255  : {

	push	ebp
	mov	ebp, esp
	sub	esp, 68					; 00000044H
	push	ebx
	push	esi
	push	edi

; 256  : 	if( !node || node->contents == CONTENTS_SOLID )

	cmp	DWORD PTR _node$[ebp], 0
	je	SHORT $LN3@Mod_Headno
	mov	eax, DWORD PTR _node$[ebp]
	cmp	DWORD PTR [eax], -2			; fffffffeH
	jne	SHORT $LN2@Mod_Headno
$LN3@Mod_Headno:

; 257  : 		return false;

	xor	al, al
	jmp	$LN1@Mod_Headno
$LN2@Mod_Headno:

; 258  : 
; 259  : 	if( node->contents < 0 )

	mov	eax, DWORD PTR _node$[ebp]
	cmp	DWORD PTR [eax], 0
	jge	SHORT $LN4@Mod_Headno

; 260  : 	{
; 261  : 		if( CHECKVISBIT( visbits, ((mleaf_t *)node)->cluster ))

	mov	eax, DWORD PTR _node$[ebp]
	cmp	DWORD PTR [eax+52], 0
	jl	SHORT $LN8@Mod_Headno
	mov	ecx, DWORD PTR _node$[ebp]
	mov	edx, DWORD PTR [ecx+52]
	sar	edx, 3
	mov	eax, DWORD PTR _visbits$[ebp]
	movzx	edx, BYTE PTR [eax+edx]
	mov	eax, DWORD PTR _node$[ebp]
	mov	ecx, DWORD PTR [eax+52]
	and	ecx, 7
	mov	eax, 1
	shl	eax, cl
	and	edx, eax
	mov	BYTE PTR tv81[ebp], dl
	jmp	SHORT $LN9@Mod_Headno
$LN8@Mod_Headno:
	mov	BYTE PTR tv81[ebp], 0
$LN9@Mod_Headno:
	movzx	ecx, BYTE PTR tv81[ebp]
	test	ecx, ecx
	je	SHORT $LN5@Mod_Headno

; 262  : 			return true;

	mov	al, 1
	jmp	SHORT $LN1@Mod_Headno
$LN5@Mod_Headno:

; 263  : 		return false;

	xor	al, al
	jmp	SHORT $LN1@Mod_Headno
$LN4@Mod_Headno:

; 264  : 	}
; 265  : 
; 266  : 	if( Mod_HeadnodeVisible( node->children[0], visbits ))

	mov	eax, DWORD PTR _visbits$[ebp]
	push	eax
	mov	ecx, 4
	imul	edx, ecx, 0
	mov	eax, DWORD PTR _node$[ebp]
	mov	ecx, DWORD PTR [eax+edx+40]
	push	ecx
	call	?Mod_HeadnodeVisible@@YA_NPAUmnode_s@@PBE@Z ; Mod_HeadnodeVisible
	add	esp, 8
	movzx	edx, al
	test	edx, edx
	je	SHORT $LN6@Mod_Headno

; 267  : 		return true;

	mov	al, 1
	jmp	SHORT $LN1@Mod_Headno
$LN6@Mod_Headno:

; 268  : 
; 269  : 	return Mod_HeadnodeVisible( node->children[1], visbits );

	mov	eax, DWORD PTR _visbits$[ebp]
	push	eax
	mov	ecx, 4
	shl	ecx, 0
	mov	edx, DWORD PTR _node$[ebp]
	mov	eax, DWORD PTR [edx+ecx+40]
	push	eax
	call	?Mod_HeadnodeVisible@@YA_NPAUmnode_s@@PBE@Z ; Mod_HeadnodeVisible
	add	esp, 8
$LN1@Mod_Headno:

; 270  : }

	pop	edi
	pop	esi
	pop	ebx
	mov	esp, ebp
	pop	ebp
	ret	0
?Mod_HeadnodeVisible@@YA_NPAUmnode_s@@PBE@Z ENDP	; Mod_HeadnodeVisible
_TEXT	ENDS
; Function compile flags: /Odtp /ZI
; File d:\!diffusion 2020\source code 2022\client-server\client\utils.cpp
;	COMDAT ?Mod_BoxLeafnums@@YAHABVVector@@0PAFHPAPAUmnode_s@@@Z
_TEXT	SEGMENT
_worldmodel$ = -48					; size = 4
_ll$ = -44						; size = 44
_mins$ = 8						; size = 4
_maxs$ = 12						; size = 4
_list$ = 16						; size = 4
_listsize$ = 20						; size = 4
_headnode$ = 24						; size = 4
?Mod_BoxLeafnums@@YAHABVVector@@0PAFHPAPAUmnode_s@@@Z PROC ; Mod_BoxLeafnums, COMDAT

; 224  : {

	push	ebp
	mov	ebp, esp
	sub	esp, 112				; 00000070H
	push	ebx
	push	esi
	push	edi

; 225  : 	leaflist_t ll;

	lea	ecx, DWORD PTR _ll$[ebp]
	call	??0leaflist_s@@QAE@XZ

; 226  : 	model_t	*worldmodel;
; 227  : 
; 228  : 	worldmodel = gEngfuncs.GetEntityByIndex( 0 )->model;

	push	0
	call	DWORD PTR ?gEngfuncs@@3Ucl_enginefuncs_s@@A+212
	add	esp, 4
	mov	eax, DWORD PTR [eax+2964]
	mov	DWORD PTR _worldmodel$[ebp], eax

; 229  : 	if( headnode ) *headnode = NULL;

	cmp	DWORD PTR _headnode$[ebp], 0
	je	SHORT $LN2@Mod_BoxLea
	mov	eax, DWORD PTR _headnode$[ebp]
	mov	DWORD PTR [eax], 0
$LN2@Mod_BoxLea:

; 230  : 
; 231  : 	if( !worldmodel )

	cmp	DWORD PTR _worldmodel$[ebp], 0
	jne	SHORT $LN3@Mod_BoxLea

; 232  : 		return 0;

	xor	eax, eax
	jmp	SHORT $LN1@Mod_BoxLea
$LN3@Mod_BoxLea:

; 233  : 
; 234  : 	ll.mins = mins;

	mov	eax, DWORD PTR _mins$[ebp]
	mov	ecx, DWORD PTR [eax]
	mov	DWORD PTR _ll$[ebp+16], ecx
	mov	edx, DWORD PTR [eax+4]
	mov	DWORD PTR _ll$[ebp+20], edx
	mov	eax, DWORD PTR [eax+8]
	mov	DWORD PTR _ll$[ebp+24], eax

; 235  : 	ll.maxs = maxs;

	mov	eax, DWORD PTR _maxs$[ebp]
	mov	ecx, DWORD PTR [eax]
	mov	DWORD PTR _ll$[ebp+28], ecx
	mov	edx, DWORD PTR [eax+4]
	mov	DWORD PTR _ll$[ebp+32], edx
	mov	eax, DWORD PTR [eax+8]
	mov	DWORD PTR _ll$[ebp+36], eax

; 236  : 	ll.count = 0;

	mov	DWORD PTR _ll$[ebp], 0

; 237  : 	ll.maxcount = listsize;

	mov	eax, DWORD PTR _listsize$[ebp]
	mov	DWORD PTR _ll$[ebp+4], eax

; 238  : 	ll.list = list;

	mov	eax, DWORD PTR _list$[ebp]
	mov	DWORD PTR _ll$[ebp+12], eax

; 239  : 	ll.headnode = NULL;

	mov	DWORD PTR _ll$[ebp+40], 0

; 240  : 	ll.overflowed = false;

	mov	BYTE PTR _ll$[ebp+8], 0

; 241  : 
; 242  : 	Mod_BoxLeafnums_r( &ll, worldmodel->nodes, worldmodel );

	mov	eax, DWORD PTR _worldmodel$[ebp]
	push	eax
	mov	ecx, DWORD PTR _worldmodel$[ebp]
	mov	edx, DWORD PTR [ecx+164]
	push	edx
	lea	eax, DWORD PTR _ll$[ebp]
	push	eax
	call	?Mod_BoxLeafnums_r@@YAXPAUleaflist_s@@PAUmnode_s@@PAUmodel_s@@@Z ; Mod_BoxLeafnums_r
	add	esp, 12					; 0000000cH

; 243  : 
; 244  : 	if( headnode )

	cmp	DWORD PTR _headnode$[ebp], 0
	je	SHORT $LN4@Mod_BoxLea

; 245  : 		*headnode = ll.headnode;

	mov	eax, DWORD PTR _headnode$[ebp]
	mov	ecx, DWORD PTR _ll$[ebp+40]
	mov	DWORD PTR [eax], ecx
$LN4@Mod_BoxLea:

; 246  : 	return ll.count;

	mov	eax, DWORD PTR _ll$[ebp]
$LN1@Mod_BoxLea:

; 247  : }

	pop	edi
	pop	esi
	pop	ebx
	mov	esp, ebp
	pop	ebp
	ret	0
?Mod_BoxLeafnums@@YAHABVVector@@0PAFHPAPAUmnode_s@@@Z ENDP ; Mod_BoxLeafnums
_TEXT	ENDS
; Function compile flags: /Odtp /ZI
; File d:\!diffusion 2020\source code 2022\client-server\client\utils.cpp
;	COMDAT ?Mod_BoxLeafnums_r@@YAXPAUleaflist_s@@PAUmnode_s@@PAUmodel_s@@@Z
_TEXT	SEGMENT
tv148 = -84						; size = 4
tv139 = -80						; size = 4
tv140 = -76						; size = 4
_leaf$1 = -8						; size = 4
_s$ = -4						; size = 4
_ll$ = 8						; size = 4
_node$ = 12						; size = 4
_worldmodel$ = 16					; size = 4
?Mod_BoxLeafnums_r@@YAXPAUleaflist_s@@PAUmnode_s@@PAUmodel_s@@@Z PROC ; Mod_BoxLeafnums_r, COMDAT

; 174  : {

	push	ebp
	mov	ebp, esp
	sub	esp, 84					; 00000054H
	push	ebx
	push	esi
	push	edi
$LN2@Mod_BoxLea:

; 175  : 	int	s;
; 176  : 
; 177  : 	while( 1 )

	mov	eax, 1
	test	eax, eax
	je	$LN3@Mod_BoxLea

; 178  : 	{
; 179  : 		if( node->contents == CONTENTS_SOLID )

	mov	eax, DWORD PTR _node$[ebp]
	cmp	DWORD PTR [eax], -2			; fffffffeH
	jne	SHORT $LN4@Mod_BoxLea

; 180  : 			return;

	jmp	$LN1@Mod_BoxLea
$LN4@Mod_BoxLea:

; 181  : 
; 182  : 		if( node->contents < 0 )

	mov	eax, DWORD PTR _node$[ebp]
	cmp	DWORD PTR [eax], 0
	jge	SHORT $LN5@Mod_BoxLea

; 183  : 		{
; 184  : 			mleaf_t	*leaf = (mleaf_t *)node;

	mov	eax, DWORD PTR _node$[ebp]
	mov	DWORD PTR _leaf$1[ebp], eax

; 185  : 
; 186  : 			// it's a leaf!
; 187  : 			if( ll->count >= ll->maxcount )

	mov	eax, DWORD PTR _ll$[ebp]
	mov	ecx, DWORD PTR _ll$[ebp]
	mov	edx, DWORD PTR [eax]
	cmp	edx, DWORD PTR [ecx+4]
	jl	SHORT $LN6@Mod_BoxLea

; 188  : 			{
; 189  : 				ll->overflowed = true;

	mov	eax, DWORD PTR _ll$[ebp]
	mov	BYTE PTR [eax+8], 1

; 190  : 				return;

	jmp	$LN1@Mod_BoxLea
$LN6@Mod_BoxLea:

; 191  : 			}
; 192  : 
; 193  : 			ll->list[ll->count++] = leaf->cluster;

	mov	eax, DWORD PTR _ll$[ebp]
	mov	ecx, DWORD PTR [eax]
	mov	edx, DWORD PTR _ll$[ebp]
	mov	eax, DWORD PTR [edx+12]
	mov	edx, DWORD PTR _leaf$1[ebp]
	mov	dx, WORD PTR [edx+52]
	mov	WORD PTR [eax+ecx*2], dx
	mov	eax, DWORD PTR _ll$[ebp]
	mov	ecx, DWORD PTR [eax]
	add	ecx, 1
	mov	edx, DWORD PTR _ll$[ebp]
	mov	DWORD PTR [edx], ecx

; 194  : 			return;

	jmp	$LN1@Mod_BoxLea
$LN5@Mod_BoxLea:

; 195  : 		}
; 196  : 	
; 197  : 		s = BOX_ON_PLANE_SIDE( ll->mins, ll->maxs, node->plane );

	mov	eax, DWORD PTR _node$[ebp]
	mov	ecx, DWORD PTR [eax+36]
	movzx	edx, BYTE PTR [ecx+16]
	cmp	edx, 3
	jge	SHORT $LN17@Mod_BoxLea
	mov	eax, DWORD PTR _node$[ebp]
	mov	esi, DWORD PTR [eax+36]
	mov	ecx, DWORD PTR _ll$[ebp]
	add	ecx, 16					; 00000010H
	call	??BVector@@QAEPAMXZ			; Vector::operator float *
	mov	ecx, DWORD PTR _node$[ebp]
	mov	edx, DWORD PTR [ecx+36]
	movzx	ecx, BYTE PTR [edx+16]
	movss	xmm0, DWORD PTR [eax+ecx*4]
	comiss	xmm0, DWORD PTR [esi+12]
	jb	SHORT $LN15@Mod_BoxLea
	mov	DWORD PTR tv140[ebp], 1
	jmp	SHORT $LN16@Mod_BoxLea
$LN15@Mod_BoxLea:
	mov	edx, DWORD PTR _node$[ebp]
	mov	esi, DWORD PTR [edx+36]
	mov	ecx, DWORD PTR _ll$[ebp]
	add	ecx, 28					; 0000001cH
	call	??BVector@@QAEPAMXZ			; Vector::operator float *
	mov	ecx, DWORD PTR _node$[ebp]
	mov	edx, DWORD PTR [ecx+36]
	movzx	ecx, BYTE PTR [edx+16]
	movss	xmm0, DWORD PTR [esi+12]
	comiss	xmm0, DWORD PTR [eax+ecx*4]
	jb	SHORT $LN13@Mod_BoxLea
	mov	DWORD PTR tv139[ebp], 2
	jmp	SHORT $LN14@Mod_BoxLea
$LN13@Mod_BoxLea:
	mov	DWORD PTR tv139[ebp], 3
$LN14@Mod_BoxLea:
	mov	edx, DWORD PTR tv139[ebp]
	mov	DWORD PTR tv140[ebp], edx
$LN16@Mod_BoxLea:
	mov	eax, DWORD PTR tv140[ebp]
	mov	DWORD PTR tv148[ebp], eax
	jmp	SHORT $LN18@Mod_BoxLea
$LN17@Mod_BoxLea:
	mov	ecx, DWORD PTR _node$[ebp]
	mov	edx, DWORD PTR [ecx+36]
	push	edx
	mov	eax, DWORD PTR _ll$[ebp]
	add	eax, 28					; 0000001cH
	push	eax
	mov	ecx, DWORD PTR _ll$[ebp]
	add	ecx, 16					; 00000010H
	push	ecx
	call	?BoxOnPlaneSide@@YAHABVVector@@0PBUmplane_s@@@Z ; BoxOnPlaneSide
	add	esp, 12					; 0000000cH
	mov	DWORD PTR tv148[ebp], eax
$LN18@Mod_BoxLea:
	mov	edx, DWORD PTR tv148[ebp]
	mov	DWORD PTR _s$[ebp], edx

; 198  : 
; 199  : 		if( s == 1 )

	cmp	DWORD PTR _s$[ebp], 1
	jne	SHORT $LN7@Mod_BoxLea

; 200  : 		{
; 201  : 			node = node->children[0];

	mov	eax, 4
	imul	ecx, eax, 0
	mov	edx, DWORD PTR _node$[ebp]
	mov	eax, DWORD PTR [edx+ecx+40]
	mov	DWORD PTR _node$[ebp], eax
	jmp	SHORT $LN10@Mod_BoxLea
$LN7@Mod_BoxLea:

; 202  : 		}
; 203  : 		else if( s == 2 )

	cmp	DWORD PTR _s$[ebp], 2
	jne	SHORT $LN9@Mod_BoxLea

; 204  : 		{
; 205  : 			node = node->children[1];

	mov	eax, 4
	shl	eax, 0
	mov	ecx, DWORD PTR _node$[ebp]
	mov	edx, DWORD PTR [ecx+eax+40]
	mov	DWORD PTR _node$[ebp], edx

; 206  : 		}
; 207  : 		else

	jmp	SHORT $LN10@Mod_BoxLea
$LN9@Mod_BoxLea:

; 208  : 		{
; 209  : 			// go down both
; 210  : 			if( ll->headnode == NULL )

	mov	eax, DWORD PTR _ll$[ebp]
	cmp	DWORD PTR [eax+40], 0
	jne	SHORT $LN11@Mod_BoxLea

; 211  : 				ll->headnode = node;

	mov	eax, DWORD PTR _ll$[ebp]
	mov	ecx, DWORD PTR _node$[ebp]
	mov	DWORD PTR [eax+40], ecx
$LN11@Mod_BoxLea:

; 212  : 			Mod_BoxLeafnums_r( ll, node->children[0], worldmodel );

	mov	eax, DWORD PTR _worldmodel$[ebp]
	push	eax
	mov	ecx, 4
	imul	edx, ecx, 0
	mov	eax, DWORD PTR _node$[ebp]
	mov	ecx, DWORD PTR [eax+edx+40]
	push	ecx
	mov	edx, DWORD PTR _ll$[ebp]
	push	edx
	call	?Mod_BoxLeafnums_r@@YAXPAUleaflist_s@@PAUmnode_s@@PAUmodel_s@@@Z ; Mod_BoxLeafnums_r
	add	esp, 12					; 0000000cH

; 213  : 			node = node->children[1];

	mov	eax, 4
	shl	eax, 0
	mov	ecx, DWORD PTR _node$[ebp]
	mov	edx, DWORD PTR [ecx+eax+40]
	mov	DWORD PTR _node$[ebp], edx
$LN10@Mod_BoxLea:

; 214  : 		}
; 215  : 	}

	jmp	$LN2@Mod_BoxLea
$LN3@Mod_BoxLea:
$LN1@Mod_BoxLea:

; 216  : }

	pop	edi
	pop	esi
	pop	ebx
	mov	esp, ebp
	pop	ebp
	ret	0
?Mod_BoxLeafnums_r@@YAXPAUleaflist_s@@PAUmnode_s@@PAUmodel_s@@@Z ENDP ; Mod_BoxLeafnums_r
_TEXT	ENDS
; Function compile flags: /Odtp /ZI
; File c:\program files (x86)\microsoft visual studio 14.0\vc\include\vadefs.h
;	COMDAT ??$__vcrt_va_start_verify_argument_type@PAD@@YAXXZ
_TEXT	SEGMENT
??$__vcrt_va_start_verify_argument_type@PAD@@YAXXZ PROC	; __vcrt_va_start_verify_argument_type<char *>, COMDAT

; 144  :         {

	push	ebp
	mov	ebp, esp
	sub	esp, 64					; 00000040H
	push	ebx
	push	esi
	push	edi

; 145  :             static_assert(!__vcrt_va_list_is_reference<_Ty>::__the_value, "va_start argument must not have reference type and must not be parenthesized");
; 146  :         }

	pop	edi
	pop	esi
	pop	ebx
	mov	esp, ebp
	pop	ebp
	ret	0
??$__vcrt_va_start_verify_argument_type@PAD@@YAXXZ ENDP	; __vcrt_va_start_verify_argument_type<char *>
_TEXT	ENDS
; Function compile flags: /Odtp /ZI
; File d:\!diffusion 2020\source code 2022\client-server\client\utils.cpp
;	COMDAT ?V_AdjustFov@@YAXAAM0MM_N@Z
_TEXT	SEGMENT
tv151 = -96						; size = 8
tv146 = -88						; size = 8
tv178 = -80						; size = 8
_y$ = -8						; size = 4
_x$ = -4						; size = 4
_fov_x$ = 8						; size = 4
_fov_y$ = 12						; size = 4
_width$ = 16						; size = 4
_height$ = 20						; size = 4
_lock_x$ = 24						; size = 1
?V_AdjustFov@@YAXAAM0MM_N@Z PROC			; V_AdjustFov, COMDAT

; 857  : {

	push	ebp
	mov	ebp, esp
	sub	esp, 96					; 00000060H
	push	ebx
	push	esi
	push	edi

; 858  : 	float x, y;
; 859  : 
; 860  : 	if(( width * 3 ) == ( 4 * height ) || ( width * 4 ) == ( height * 5 ))

	movss	xmm0, DWORD PTR _width$[ebp]
	mulss	xmm0, DWORD PTR __real@40400000
	movss	xmm1, DWORD PTR __real@40800000
	mulss	xmm1, DWORD PTR _height$[ebp]
	ucomiss	xmm0, xmm1
	lahf
	test	ah, 68					; 00000044H
	jnp	SHORT $LN3@V_AdjustFo
	movss	xmm0, DWORD PTR _width$[ebp]
	mulss	xmm0, DWORD PTR __real@40800000
	movss	xmm1, DWORD PTR _height$[ebp]
	mulss	xmm1, DWORD PTR __real@40a00000
	ucomiss	xmm0, xmm1
	lahf
	test	ah, 68					; 00000044H
	jp	SHORT $LN2@V_AdjustFo
$LN3@V_AdjustFo:

; 861  : 	{
; 862  : 		// 4:3 or 5:4 ratio
; 863  : 		return;

	jmp	$LN1@V_AdjustFo
$LN2@V_AdjustFo:

; 864  : 	}
; 865  : 
; 866  : 	if( lock_x )

	movzx	eax, BYTE PTR _lock_x$[ebp]
	test	eax, eax
	je	$LN4@V_AdjustFo

; 867  : 	{
; 868  : 		fov_y = 2 * atan(( width * 3 ) / ( height * 4 ) * tan( fov_y * M_PI / 360.0 * 0.5 )) * 360 / M_PI;

	movss	xmm0, DWORD PTR _width$[ebp]
	mulss	xmm0, DWORD PTR __real@40400000
	movss	xmm1, DWORD PTR _height$[ebp]
	mulss	xmm1, DWORD PTR __real@40800000
	divss	xmm0, xmm1
	cvtss2sd xmm0, xmm0
	mov	eax, DWORD PTR _fov_y$[ebp]
	cvtss2sd xmm1, DWORD PTR [eax]
	mulsd	xmm1, QWORD PTR __real@400921fb54442d18
	divsd	xmm1, QWORD PTR __real@4076800000000000
	mulsd	xmm1, QWORD PTR __real@3fe0000000000000
	sub	esp, 8
	movsd	QWORD PTR [esp], xmm1
	movsd	QWORD PTR tv178[ebp], xmm0
	call	_tan
	add	esp, 8
	fstp	QWORD PTR tv146[ebp]
	movsd	xmm0, QWORD PTR tv178[ebp]
	mulsd	xmm0, QWORD PTR tv146[ebp]
	sub	esp, 8
	movsd	QWORD PTR [esp], xmm0
	call	_atan
	add	esp, 8
	fstp	QWORD PTR tv151[ebp]
	movsd	xmm0, QWORD PTR tv151[ebp]
	mulsd	xmm0, QWORD PTR __real@4000000000000000
	mulsd	xmm0, QWORD PTR __real@4076800000000000
	divsd	xmm0, QWORD PTR __real@400921fb54442d18
	cvtsd2ss xmm0, xmm0
	mov	ecx, DWORD PTR _fov_y$[ebp]
	movss	DWORD PTR [ecx], xmm0

; 869  : 		return;

	jmp	$LN1@V_AdjustFo
$LN4@V_AdjustFo:

; 870  : 	}
; 871  : 
; 872  : 	y = V_CalcFov( fov_x, 640, 480 );

	push	ecx
	movss	xmm0, DWORD PTR __real@43f00000
	movss	DWORD PTR [esp], xmm0
	push	ecx
	movss	xmm0, DWORD PTR __real@44200000
	movss	DWORD PTR [esp], xmm0
	mov	eax, DWORD PTR _fov_x$[ebp]
	push	eax
	call	?V_CalcFov@@YAMAAMMM@Z			; V_CalcFov
	add	esp, 12					; 0000000cH
	fstp	DWORD PTR _y$[ebp]

; 873  : 	x = fov_x;

	mov	eax, DWORD PTR _fov_x$[ebp]
	movss	xmm0, DWORD PTR [eax]
	movss	DWORD PTR _x$[ebp], xmm0

; 874  : 
; 875  : 	fov_x = V_CalcFov( y, height, width );

	push	ecx
	movss	xmm0, DWORD PTR _width$[ebp]
	movss	DWORD PTR [esp], xmm0
	push	ecx
	movss	xmm0, DWORD PTR _height$[ebp]
	movss	DWORD PTR [esp], xmm0
	lea	eax, DWORD PTR _y$[ebp]
	push	eax
	call	?V_CalcFov@@YAMAAMMM@Z			; V_CalcFov
	add	esp, 12					; 0000000cH
	mov	ecx, DWORD PTR _fov_x$[ebp]
	fstp	DWORD PTR [ecx]

; 876  : 
; 877  : 	if( fov_x < x )

	mov	eax, DWORD PTR _fov_x$[ebp]
	movss	xmm0, DWORD PTR _x$[ebp]
	comiss	xmm0, DWORD PTR [eax]
	jbe	SHORT $LN5@V_AdjustFo

; 878  : 		fov_x = x;

	mov	eax, DWORD PTR _fov_x$[ebp]
	movss	xmm0, DWORD PTR _x$[ebp]
	movss	DWORD PTR [eax], xmm0
	jmp	SHORT $LN6@V_AdjustFo
$LN5@V_AdjustFo:

; 879  : 	else fov_y = y;

	mov	eax, DWORD PTR _fov_y$[ebp]
	movss	xmm0, DWORD PTR _y$[ebp]
	movss	DWORD PTR [eax], xmm0
$LN6@V_AdjustFo:
$LN1@V_AdjustFo:

; 880  : }

	pop	edi
	pop	esi
	pop	ebx
	mov	esp, ebp
	pop	ebp
	ret	0
?V_AdjustFov@@YAXAAM0MM_N@Z ENDP			; V_AdjustFov
_TEXT	ENDS
; Function compile flags: /Odtp /ZI
; File d:\!diffusion 2020\source code 2022\client-server\client\utils.cpp
;	COMDAT ?V_CalcFov@@YAMAAMMM@Z
_TEXT	SEGMENT
tv132 = -88						; size = 8
tv143 = -80						; size = 8
tv140 = -76						; size = 4
_half_fov_y$ = -8					; size = 4
_x$ = -4						; size = 4
_fov_x$ = 8						; size = 4
_width$ = 12						; size = 4
_height$ = 16						; size = 4
?V_CalcFov@@YAMAAMMM@Z PROC				; V_CalcFov, COMDAT

; 836  : {

	push	ebp
	mov	ebp, esp
	sub	esp, 88					; 00000058H
	push	ebx
	push	esi
	push	edi

; 837  : 	float x, half_fov_y;
; 838  : 
; 839  : 	if( fov_x < 1 || fov_x > 170 )

	mov	eax, DWORD PTR _fov_x$[ebp]
	movss	xmm0, DWORD PTR __real@3f800000
	comiss	xmm0, DWORD PTR [eax]
	ja	SHORT $LN3@V_CalcFov
	mov	eax, DWORD PTR _fov_x$[ebp]
	movss	xmm0, DWORD PTR [eax]
	comiss	xmm0, DWORD PTR __real@432a0000
	jbe	SHORT $LN2@V_CalcFov
$LN3@V_CalcFov:

; 840  : 	{
; 841  : 		ALERT( at_error, "V_CalcFov: bad fov %g!\n", fov_x );

	mov	eax, DWORD PTR _fov_x$[ebp]
	cvtss2sd xmm0, DWORD PTR [eax]
	sub	esp, 8
	movsd	QWORD PTR [esp], xmm0
	push	OFFSET ??_C@_0BI@KHJCGMOJ@V_CalcFov?3?5bad?5fov?5?$CFg?$CB?6?$AA@
	push	4
	call	?ALERT@@YAXW4ALERT_TYPE@@PADZZ		; ALERT
	add	esp, 16					; 00000010H

; 842  : 		fov_x = 90;

	mov	eax, DWORD PTR _fov_x$[ebp]
	movss	xmm0, DWORD PTR __real@42b40000
	movss	DWORD PTR [eax], xmm0
$LN2@V_CalcFov:

; 843  : 	}
; 844  : 
; 845  : 	x = width / tan( DEG2RAD( fov_x ) * 0.5f );

	cvtss2sd xmm0, DWORD PTR _width$[ebp]
	mov	eax, DWORD PTR _fov_x$[ebp]
	movss	xmm1, DWORD PTR [eax]
	mulss	xmm1, DWORD PTR __real@3c8efa35
	mulss	xmm1, DWORD PTR __real@3f000000
	cvtss2sd xmm1, xmm1
	sub	esp, 8
	movsd	QWORD PTR [esp], xmm1
	movsd	QWORD PTR tv143[ebp], xmm0
	call	_tan
	add	esp, 8
	fstp	QWORD PTR tv132[ebp]
	movsd	xmm0, QWORD PTR tv143[ebp]
	divsd	xmm0, QWORD PTR tv132[ebp]
	cvtsd2ss xmm0, xmm0
	movss	DWORD PTR _x$[ebp], xmm0

; 846  : 	half_fov_y = atan( height / x );

	movss	xmm0, DWORD PTR _height$[ebp]
	divss	xmm0, DWORD PTR _x$[ebp]
	cvtss2sd xmm0, xmm0
	sub	esp, 8
	movsd	QWORD PTR [esp], xmm0
	call	_atan
	add	esp, 8
	fstp	DWORD PTR _half_fov_y$[ebp]

; 847  : 
; 848  : 	return RAD2DEG( half_fov_y ) * 2;

	movss	xmm0, DWORD PTR _half_fov_y$[ebp]
	mulss	xmm0, DWORD PTR __real@42652ee1
	mulss	xmm0, DWORD PTR __real@40000000
	movss	DWORD PTR tv140[ebp], xmm0
	fld	DWORD PTR tv140[ebp]

; 849  : }

	pop	edi
	pop	esi
	pop	ebx
	mov	esp, ebp
	pop	ebp
	ret	0
?V_CalcFov@@YAMAAMMM@Z ENDP				; V_CalcFov
_TEXT	ENDS
; Function compile flags: /Odtp /ZI
; File d:\!diffusion 2020\source code 2022\client-server\client\utils.cpp
;	COMDAT ?Mod_GetEngineVis@@YAPAEXZ
_TEXT	SEGMENT
?Mod_GetEngineVis@@YAPAEXZ PROC				; Mod_GetEngineVis, COMDAT

; 386  : {

	push	ebp
	mov	ebp, esp
	sub	esp, 64					; 00000040H
	push	ebx
	push	esi
	push	edi

; 387  : 	return tr.visbytes;

	mov	eax, OFFSET ?tr@@3Uref_globals_t@@A+5830956

; 388  : }

	pop	edi
	pop	esi
	pop	ebx
	mov	esp, ebp
	pop	ebp
	ret	0
?Mod_GetEngineVis@@YAPAEXZ ENDP				; Mod_GetEngineVis
_TEXT	ENDS
; Function compile flags: /Odtp /ZI
; File d:\!diffusion 2020\source code 2022\client-server\client\utils.cpp
;	COMDAT ?Mod_GetCurrentVis@@YAPAEXZ
_TEXT	SEGMENT
?Mod_GetCurrentVis@@YAPAEXZ PROC			; Mod_GetCurrentVis, COMDAT

; 380  : {

	push	ebp
	mov	ebp, esp
	sub	esp, 64					; 00000040H
	push	ebx
	push	esi
	push	edi

; 381  : 	return RI->visbytes;

	mov	eax, DWORD PTR ?RI@@3PAUref_instance_t@@A ; RI
	add	eax, 684				; 000002acH

; 382  : //	return Mod_LeafPVS( r_viewleaf, worldmodel );
; 383  : }

	pop	edi
	pop	esi
	pop	ebx
	mov	esp, ebp
	pop	ebp
	ret	0
?Mod_GetCurrentVis@@YAPAEXZ ENDP			; Mod_GetCurrentVis
_TEXT	ENDS
; Function compile flags: /Odtp /ZI
; File d:\!diffusion 2020\source code 2022\client-server\client\utils.cpp
;	COMDAT ?Mod_LeafPVS@@YAPAEPAUmleaf_s@@PAUmodel_s@@@Z
_TEXT	SEGMENT
_leaf$ = 8						; size = 4
_model$ = 12						; size = 4
?Mod_LeafPVS@@YAPAEPAUmleaf_s@@PAUmodel_s@@@Z PROC	; Mod_LeafPVS, COMDAT

; 353  : {

	push	ebp
	mov	ebp, esp
	sub	esp, 64					; 00000040H
	push	ebx
	push	esi
	push	edi

; 354  : 	if( !model || !leaf || leaf == model->leafs || !model->visdata )

	cmp	DWORD PTR _model$[ebp], 0
	je	SHORT $LN3@Mod_LeafPV
	cmp	DWORD PTR _leaf$[ebp], 0
	je	SHORT $LN3@Mod_LeafPV
	mov	eax, DWORD PTR _model$[ebp]
	mov	ecx, DWORD PTR _leaf$[ebp]
	cmp	ecx, DWORD PTR [eax+140]
	je	SHORT $LN3@Mod_LeafPV
	mov	eax, DWORD PTR _model$[ebp]
	cmp	DWORD PTR [eax+376], 0
	jne	SHORT $LN2@Mod_LeafPV
$LN3@Mod_LeafPV:

; 355  : 		return Mod_DecompressVis( NULL, model );

	mov	eax, DWORD PTR _model$[ebp]
	push	eax
	push	0
	call	?Mod_DecompressVis@@YAPAEPBEPAUmodel_s@@@Z ; Mod_DecompressVis
	add	esp, 8
	jmp	SHORT $LN1@Mod_LeafPV
$LN2@Mod_LeafPV:

; 356  : 
; 357  : 	return Mod_DecompressVis( leaf->compressed_vis, model );

	mov	eax, DWORD PTR _model$[ebp]
	push	eax
	mov	ecx, DWORD PTR _leaf$[ebp]
	mov	edx, DWORD PTR [ecx+36]
	push	edx
	call	?Mod_DecompressVis@@YAPAEPBEPAUmodel_s@@@Z ; Mod_DecompressVis
	add	esp, 8
$LN1@Mod_LeafPV:

; 358  : }

	pop	edi
	pop	esi
	pop	ebx
	mov	esp, ebp
	pop	ebp
	ret	0
?Mod_LeafPVS@@YAPAEPAUmleaf_s@@PAUmodel_s@@@Z ENDP	; Mod_LeafPVS
_TEXT	ENDS
; Function compile flags: /Odtp /ZI
; File d:\!diffusion 2020\source code 2022\client-server\client\utils.cpp
;	COMDAT ?WorldToScreen@@YAHABVVector@@AAV1@@Z
_TEXT	SEGMENT
tv185 = -72						; size = 4
tv183 = -72						; size = 4
tv147 = -72						; size = 4
tv136 = -72						; size = 4
_retval$ = -4						; size = 4
_world$ = 8						; size = 4
_screen$ = 12						; size = 4
?WorldToScreen@@YAHABVVector@@AAV1@@Z PROC		; WorldToScreen, COMDAT

; 108  : {

	push	ebp
	mov	ebp, esp
	sub	esp, 72					; 00000048H
	push	ebx
	push	esi
	push	edi

; 109  : 	int retval = R_WorldToScreen( world, screen );

	mov	eax, DWORD PTR _screen$[ebp]
	push	eax
	mov	ecx, DWORD PTR _world$[ebp]
	push	ecx
	call	?R_WorldToScreen@@YAHABVVector@@AAV1@@Z	; R_WorldToScreen
	add	esp, 8
	mov	DWORD PTR _retval$[ebp], eax

; 110  : 
; 111  : 	screen[0] =  0.5f * screen[0] * (float)RI->viewport[2];

	mov	ecx, DWORD PTR _screen$[ebp]
	call	??BVector@@QAEPAMXZ			; Vector::operator float *
	mov	ecx, 4
	imul	edx, ecx, 0
	movss	xmm0, DWORD PTR __real@3f000000
	mulss	xmm0, DWORD PTR [eax+edx]
	mov	eax, 4
	shl	eax, 1
	mov	ecx, DWORD PTR ?RI@@3PAUref_instance_t@@A ; RI
	cvtsi2ss xmm1, DWORD PTR [ecx+eax+32]
	mulss	xmm0, xmm1
	mov	ecx, DWORD PTR _screen$[ebp]
	movss	DWORD PTR tv183[ebp], xmm0
	call	??BVector@@QAEPAMXZ			; Vector::operator float *
	mov	edx, 4
	imul	ecx, edx, 0
	movss	xmm0, DWORD PTR tv183[ebp]
	movss	DWORD PTR [eax+ecx], xmm0

; 112  : 	screen[1] = -0.5f * screen[1] * (float)RI->viewport[3];

	mov	ecx, DWORD PTR _screen$[ebp]
	call	??BVector@@QAEPAMXZ			; Vector::operator float *
	mov	ecx, 4
	shl	ecx, 0
	movss	xmm0, DWORD PTR __real@bf000000
	mulss	xmm0, DWORD PTR [eax+ecx]
	mov	edx, 4
	imul	eax, edx, 3
	mov	ecx, DWORD PTR ?RI@@3PAUref_instance_t@@A ; RI
	cvtsi2ss xmm1, DWORD PTR [ecx+eax+32]
	mulss	xmm0, xmm1
	mov	ecx, DWORD PTR _screen$[ebp]
	movss	DWORD PTR tv185[ebp], xmm0
	call	??BVector@@QAEPAMXZ			; Vector::operator float *
	mov	edx, 4
	shl	edx, 0
	movss	xmm0, DWORD PTR tv185[ebp]
	movss	DWORD PTR [eax+edx], xmm0

; 113  : 	screen[0] += 0.5f * (float)RI->viewport[2];

	mov	ecx, DWORD PTR _screen$[ebp]
	call	??BVector@@QAEPAMXZ			; Vector::operator float *
	mov	ecx, 4
	imul	edx, ecx, 0
	add	eax, edx
	mov	DWORD PTR tv136[ebp], eax
	mov	eax, 4
	shl	eax, 1
	mov	ecx, DWORD PTR ?RI@@3PAUref_instance_t@@A ; RI
	cvtsi2ss xmm0, DWORD PTR [ecx+eax+32]
	mulss	xmm0, DWORD PTR __real@3f000000
	mov	edx, DWORD PTR tv136[ebp]
	addss	xmm0, DWORD PTR [edx]
	mov	eax, DWORD PTR tv136[ebp]
	movss	DWORD PTR [eax], xmm0

; 114  : 	screen[1] += 0.5f * (float)RI->viewport[3];

	mov	ecx, DWORD PTR _screen$[ebp]
	call	??BVector@@QAEPAMXZ			; Vector::operator float *
	mov	ecx, 4
	shl	ecx, 0
	add	eax, ecx
	mov	DWORD PTR tv147[ebp], eax
	mov	edx, 4
	imul	eax, edx, 3
	mov	ecx, DWORD PTR ?RI@@3PAUref_instance_t@@A ; RI
	cvtsi2ss xmm0, DWORD PTR [ecx+eax+32]
	mulss	xmm0, DWORD PTR __real@3f000000
	mov	edx, DWORD PTR tv147[ebp]
	addss	xmm0, DWORD PTR [edx]
	mov	eax, DWORD PTR tv147[ebp]
	movss	DWORD PTR [eax], xmm0

; 115  : 
; 116  : 	return retval;

	mov	eax, DWORD PTR _retval$[ebp]

; 117  : }

	pop	edi
	pop	esi
	pop	ebx
	mov	esp, ebp
	pop	ebp
	ret	0
?WorldToScreen@@YAHABVVector@@AAV1@@Z ENDP		; WorldToScreen
_TEXT	ENDS
; Function compile flags: /Odtp /ZI
; File d:\!diffusion 2020\source code 2022\client-server\client\render\r_frustum.h
;	COMDAT ?GetClipFlags@CFrustum@@QBEIXZ
_TEXT	SEGMENT
_this$ = -4						; size = 4
?GetClipFlags@CFrustum@@QBEIXZ PROC			; CFrustum::GetClipFlags, COMDAT
; _this$ = ecx

; 40   : 	unsigned int GetClipFlags( void ) const { return clipFlags; }

	push	ebp
	mov	ebp, esp
	sub	esp, 68					; 00000044H
	push	ebx
	push	esi
	push	edi
	mov	DWORD PTR _this$[ebp], ecx
	mov	eax, DWORD PTR _this$[ebp]
	mov	eax, DWORD PTR [eax+120]
	pop	edi
	pop	esi
	pop	ebx
	mov	esp, ebp
	pop	ebp
	ret	0
?GetClipFlags@CFrustum@@QBEIXZ ENDP			; CFrustum::GetClipFlags
_TEXT	ENDS
; Function compile flags: /Odtp /ZI
; File d:\!diffusion 2020\source code 2022\client-server\client\render\r_frustum.h
;	COMDAT ?GetPlane@CFrustum@@QBEPBUmplane_s@@H@Z
_TEXT	SEGMENT
_this$ = -4						; size = 4
_side$ = 8						; size = 4
?GetPlane@CFrustum@@QBEPBUmplane_s@@H@Z PROC		; CFrustum::GetPlane, COMDAT
; _this$ = ecx

; 39   : 	const mplane_t *GetPlane( int side ) const { return &planes[side]; }

	push	ebp
	mov	ebp, esp
	sub	esp, 68					; 00000044H
	push	ebx
	push	esi
	push	edi
	mov	DWORD PTR _this$[ebp], ecx
	imul	eax, DWORD PTR _side$[ebp], 20
	add	eax, DWORD PTR _this$[ebp]
	pop	edi
	pop	esi
	pop	ebx
	mov	esp, ebp
	pop	ebp
	ret	4
?GetPlane@CFrustum@@QBEPBUmplane_s@@H@Z ENDP		; CFrustum::GetPlane
_TEXT	ENDS
; Function compile flags: /Odtp /ZI
; File d:\!diffusion 2020\source code 2022\client-server\client\utils.cpp
;	COMDAT ?UTIL_IsLocal@@YA_NH@Z
_TEXT	SEGMENT
tv69 = -65						; size = 1
_idx$ = 8						; size = 4
?UTIL_IsLocal@@YA_NH@Z PROC				; UTIL_IsLocal, COMDAT

; 161  : {

	push	ebp
	mov	ebp, esp
	sub	esp, 68					; 00000044H
	push	ebx
	push	esi
	push	edi

; 162  : 	return gEngfuncs.pEventAPI->EV_IsLocal( idx - 1 ) ? true : false;

	mov	eax, DWORD PTR _idx$[ebp]
	sub	eax, 1
	push	eax
	mov	ecx, DWORD PTR ?gEngfuncs@@3Ucl_enginefuncs_s@@A+336
	mov	edx, DWORD PTR [ecx+16]
	call	edx
	add	esp, 4
	test	eax, eax
	je	SHORT $LN3@UTIL_IsLoc
	mov	BYTE PTR tv69[ebp], 1
	jmp	SHORT $LN4@UTIL_IsLoc
$LN3@UTIL_IsLoc:
	mov	BYTE PTR tv69[ebp], 0
$LN4@UTIL_IsLoc:
	mov	al, BYTE PTR tv69[ebp]

; 163  : }

	pop	edi
	pop	esi
	pop	ebx
	mov	esp, ebp
	pop	ebp
	ret	0
?UTIL_IsLocal@@YA_NH@Z ENDP				; UTIL_IsLocal
_TEXT	ENDS
; Function compile flags: /Odtp /ZI
; File d:\!diffusion 2020\source code 2022\client-server\client\utils.cpp
;	COMDAT ?UTIL_IsPlayer@@YA_NH@Z
_TEXT	SEGMENT
_idx$ = 8						; size = 4
?UTIL_IsPlayer@@YA_NH@Z PROC				; UTIL_IsPlayer, COMDAT

; 150  : {

	push	ebp
	mov	ebp, esp
	sub	esp, 64					; 00000040H
	push	ebx
	push	esi
	push	edi

; 151  : 	if ( idx >= 1 && idx <= gEngfuncs.GetMaxClients() )

	cmp	DWORD PTR _idx$[ebp], 1
	jl	SHORT $LN2@UTIL_IsPla
	call	DWORD PTR ?gEngfuncs@@3Ucl_enginefuncs_s@@A+144
	cmp	DWORD PTR _idx$[ebp], eax
	jg	SHORT $LN2@UTIL_IsPla

; 152  : 		return true;

	mov	al, 1
	jmp	SHORT $LN1@UTIL_IsPla
$LN2@UTIL_IsPla:

; 153  : 	return false;

	xor	al, al
$LN1@UTIL_IsPla:

; 154  : }

	pop	edi
	pop	esi
	pop	ebx
	mov	esp, ebp
	pop	ebp
	ret	0
?UTIL_IsPlayer@@YA_NH@Z ENDP				; UTIL_IsPlayer
_TEXT	ENDS
; Function compile flags: /Odtp /ZI
; File d:\!diffusion 2020\source code 2022\client-server\client\utils.cpp
;	COMDAT ?R_SplitPolygon@@YAXHPAVVector@@PBUmplane_s@@PAH020@Z
_TEXT	SEGMENT
tv88 = -708						; size = 4
$T1 = -704						; size = 12
$T2 = -692						; size = 12
$T3 = -680						; size = 12
_i$ = -540						; size = 4
_frac$ = -536						; size = 4
_mid$ = -532						; size = 12
_backSide$ = -518					; size = 1
_frontSide$ = -517					; size = 1
_sides$ = -516						; size = 256
_dists$ = -260						; size = 256
__$ArrayPad$ = -4					; size = 4
_numPoints$ = 8						; size = 4
_points$ = 12						; size = 4
_plane$ = 16						; size = 4
_numFront$ = 20						; size = 4
_front$ = 24						; size = 4
_numBack$ = 28						; size = 4
_back$ = 32						; size = 4
?R_SplitPolygon@@YAXHPAVVector@@PBUmplane_s@@PAH020@Z PROC ; R_SplitPolygon, COMDAT

; 554  : {

	push	ebp
	mov	ebp, esp
	sub	esp, 708				; 000002c4H
	mov	eax, DWORD PTR ___security_cookie
	xor	eax, ebp
	mov	DWORD PTR __$ArrayPad$[ebp], eax
	push	ebx
	push	esi
	push	edi

; 555  : 	float	dists[MAX_POLYGON_POINTS];
; 556  : 	int	sides[MAX_POLYGON_POINTS];
; 557  : 	bool	frontSide, backSide;
; 558  : 	Vector	mid;

	lea	ecx, DWORD PTR _mid$[ebp]
	call	??0Vector@@QAE@XZ			; Vector::Vector

; 559  : 	float	frac;
; 560  : 	int	i;
; 561  : 
; 562  : 	if( numPoints >= MAX_POLYGON_POINTS - 2 )

	cmp	DWORD PTR _numPoints$[ebp], 62		; 0000003eH
	jl	SHORT $LN8@R_SplitPol

; 563  : 		HOST_ERROR( "R_SplitPolygon: MAX_POLYGON_POINTS hit\n" );

	push	OFFSET ??_C@_0CI@OPFIFHKG@R_SplitPolygon?3?5MAX_POLYGON_POIN@
	call	DWORD PTR ?gRenderfuncs@@3Urender_api_s@@A+236
	add	esp, 4
$LN8@R_SplitPol:

; 564  : 
; 565  : 	*numFront = 0;

	mov	eax, DWORD PTR _numFront$[ebp]
	mov	DWORD PTR [eax], 0

; 566  : 	*numBack = 0;

	mov	eax, DWORD PTR _numBack$[ebp]
	mov	DWORD PTR [eax], 0

; 567  : 
; 568  : 	// Determine sides for each point
; 569  : 	frontSide = false;

	mov	BYTE PTR _frontSide$[ebp], 0

; 570  : 	backSide = false;

	mov	BYTE PTR _backSide$[ebp], 0

; 571  : 
; 572  : 	for( i = 0; i < numPoints; i++ )

	mov	DWORD PTR _i$[ebp], 0
	jmp	SHORT $LN4@R_SplitPol
$LN2@R_SplitPol:
	mov	eax, DWORD PTR _i$[ebp]
	add	eax, 1
	mov	DWORD PTR _i$[ebp], eax
$LN4@R_SplitPol:
	mov	eax, DWORD PTR _i$[ebp]
	cmp	eax, DWORD PTR _numPoints$[ebp]
	jge	$LN3@R_SplitPol

; 573  : 	{
; 574  : 		dists[i] = PlaneDiff( points[i], plane );

	mov	eax, DWORD PTR _plane$[ebp]
	movzx	ecx, BYTE PTR [eax+16]
	cmp	ecx, 3
	jge	SHORT $LN21@R_SplitPol
	imul	ecx, DWORD PTR _i$[ebp], 12
	add	ecx, DWORD PTR _points$[ebp]
	call	??BVector@@QAEPAMXZ			; Vector::operator float *
	mov	edx, DWORD PTR _plane$[ebp]
	movzx	ecx, BYTE PTR [edx+16]
	movss	xmm0, DWORD PTR [eax+ecx*4]
	movss	DWORD PTR tv88[ebp], xmm0
	jmp	SHORT $LN22@R_SplitPol
$LN21@R_SplitPol:
	mov	edx, DWORD PTR _plane$[ebp]
	push	edx
	imul	eax, DWORD PTR _i$[ebp], 12
	add	eax, DWORD PTR _points$[ebp]
	push	eax
	call	?DotProduct@@YAMABVVector@@0@Z		; DotProduct
	add	esp, 8
	fstp	DWORD PTR tv88[ebp]
$LN22@R_SplitPol:
	mov	ecx, DWORD PTR _plane$[ebp]
	movss	xmm0, DWORD PTR tv88[ebp]
	subss	xmm0, DWORD PTR [ecx+12]
	mov	edx, DWORD PTR _i$[ebp]
	movss	DWORD PTR _dists$[ebp+edx*4], xmm0

; 575  : 
; 576  : 		if( dists[i] > ON_EPSILON )

	mov	eax, DWORD PTR _i$[ebp]
	movss	xmm0, DWORD PTR _dists$[ebp+eax*4]
	comiss	xmm0, DWORD PTR __real@3dcccccd
	jbe	SHORT $LN9@R_SplitPol

; 577  : 		{
; 578  : 			sides[i] = PLANESIDE_FRONT;

	mov	eax, DWORD PTR _i$[ebp]
	mov	DWORD PTR _sides$[ebp+eax*4], 1

; 579  : 			frontSide = true;

	mov	BYTE PTR _frontSide$[ebp], 1

; 580  : 			continue;

	jmp	$LN2@R_SplitPol
$LN9@R_SplitPol:

; 581  : 		}
; 582  : 
; 583  : 		if( dists[i] < -ON_EPSILON )

	mov	eax, DWORD PTR _i$[ebp]
	movss	xmm0, DWORD PTR __real@bdcccccd
	comiss	xmm0, DWORD PTR _dists$[ebp+eax*4]
	jbe	SHORT $LN10@R_SplitPol

; 584  : 		{
; 585  : 			sides[i] = PLANESIDE_BACK;

	mov	eax, DWORD PTR _i$[ebp]
	mov	DWORD PTR _sides$[ebp+eax*4], 2

; 586  : 			backSide = true;

	mov	BYTE PTR _backSide$[ebp], 1

; 587  : 			continue;

	jmp	$LN2@R_SplitPol
$LN10@R_SplitPol:

; 588  : 		}
; 589  : 
; 590  : 		sides[i] = PLANESIDE_ON;

	mov	eax, DWORD PTR _i$[ebp]
	mov	DWORD PTR _sides$[ebp+eax*4], 3

; 591  : 	}

	jmp	$LN2@R_SplitPol
$LN3@R_SplitPol:

; 592  : 
; 593  : 	if( !frontSide )

	movzx	eax, BYTE PTR _frontSide$[ebp]
	test	eax, eax
	jne	SHORT $LN11@R_SplitPol

; 594  : 	{
; 595  : 		*numBack = numPoints;

	mov	eax, DWORD PTR _numBack$[ebp]
	mov	ecx, DWORD PTR _numPoints$[ebp]
	mov	DWORD PTR [eax], ecx

; 596  : 		memcpy( back, points, numPoints * sizeof( Vector ));

	imul	eax, DWORD PTR _numPoints$[ebp], 12
	push	eax
	mov	ecx, DWORD PTR _points$[ebp]
	push	ecx
	mov	edx, DWORD PTR _back$[ebp]
	push	edx
	call	_memcpy
	add	esp, 12					; 0000000cH

; 597  : 		return;

	jmp	$LN1@R_SplitPol
$LN11@R_SplitPol:

; 598  : 	}
; 599  : 
; 600  : 	if( !backSide )

	movzx	eax, BYTE PTR _backSide$[ebp]
	test	eax, eax
	jne	SHORT $LN12@R_SplitPol

; 601  : 	{
; 602  : 		*numFront = numPoints;

	mov	eax, DWORD PTR _numFront$[ebp]
	mov	ecx, DWORD PTR _numPoints$[ebp]
	mov	DWORD PTR [eax], ecx

; 603  : 		memcpy( front, points, numPoints * sizeof( Vector ));

	imul	eax, DWORD PTR _numPoints$[ebp], 12
	push	eax
	mov	ecx, DWORD PTR _points$[ebp]
	push	ecx
	mov	edx, DWORD PTR _front$[ebp]
	push	edx
	call	_memcpy
	add	esp, 12					; 0000000cH

; 604  : 		return;

	jmp	$LN1@R_SplitPol
$LN12@R_SplitPol:

; 605  : 	}
; 606  : 
; 607  : 	// split it
; 608  : 	points[i] = points[0];

	mov	eax, 12					; 0000000cH
	imul	ecx, eax, 0
	add	ecx, DWORD PTR _points$[ebp]
	imul	edx, DWORD PTR _i$[ebp], 12
	add	edx, DWORD PTR _points$[ebp]
	mov	eax, DWORD PTR [ecx]
	mov	DWORD PTR [edx], eax
	mov	eax, DWORD PTR [ecx+4]
	mov	DWORD PTR [edx+4], eax
	mov	ecx, DWORD PTR [ecx+8]
	mov	DWORD PTR [edx+8], ecx

; 609  : 
; 610  : 	dists[i] = dists[0];

	mov	eax, 4
	imul	ecx, eax, 0
	mov	edx, DWORD PTR _i$[ebp]
	mov	eax, DWORD PTR _dists$[ebp+ecx]
	mov	DWORD PTR _dists$[ebp+edx*4], eax

; 611  : 	sides[i] = sides[0];

	mov	eax, 4
	imul	ecx, eax, 0
	mov	edx, DWORD PTR _i$[ebp]
	mov	eax, DWORD PTR _sides$[ebp+ecx]
	mov	DWORD PTR _sides$[ebp+edx*4], eax

; 612  : 
; 613  : 	for( i = 0; i < numPoints; i++ )

	mov	DWORD PTR _i$[ebp], 0
	jmp	SHORT $LN7@R_SplitPol
$LN5@R_SplitPol:
	mov	eax, DWORD PTR _i$[ebp]
	add	eax, 1
	mov	DWORD PTR _i$[ebp], eax
$LN7@R_SplitPol:
	mov	eax, DWORD PTR _i$[ebp]
	cmp	eax, DWORD PTR _numPoints$[ebp]
	jge	$LN6@R_SplitPol

; 614  : 	{
; 615  : 		if( sides[i] == PLANESIDE_ON )

	mov	eax, DWORD PTR _i$[ebp]
	cmp	DWORD PTR _sides$[ebp+eax*4], 3
	jne	SHORT $LN13@R_SplitPol

; 616  : 		{
; 617  : 			front[(*numFront)++] = points[i];

	imul	eax, DWORD PTR _i$[ebp], 12
	add	eax, DWORD PTR _points$[ebp]
	mov	ecx, DWORD PTR _numFront$[ebp]
	imul	edx, DWORD PTR [ecx], 12
	add	edx, DWORD PTR _front$[ebp]
	mov	ecx, DWORD PTR [eax]
	mov	DWORD PTR [edx], ecx
	mov	ecx, DWORD PTR [eax+4]
	mov	DWORD PTR [edx+4], ecx
	mov	eax, DWORD PTR [eax+8]
	mov	DWORD PTR [edx+8], eax
	mov	ecx, DWORD PTR _numFront$[ebp]
	mov	edx, DWORD PTR [ecx]
	add	edx, 1
	mov	eax, DWORD PTR _numFront$[ebp]
	mov	DWORD PTR [eax], edx

; 618  : 			back[(*numBack)++] = points[i];

	imul	eax, DWORD PTR _i$[ebp], 12
	add	eax, DWORD PTR _points$[ebp]
	mov	ecx, DWORD PTR _numBack$[ebp]
	imul	edx, DWORD PTR [ecx], 12
	add	edx, DWORD PTR _back$[ebp]
	mov	ecx, DWORD PTR [eax]
	mov	DWORD PTR [edx], ecx
	mov	ecx, DWORD PTR [eax+4]
	mov	DWORD PTR [edx+4], ecx
	mov	eax, DWORD PTR [eax+8]
	mov	DWORD PTR [edx+8], eax
	mov	ecx, DWORD PTR _numBack$[ebp]
	mov	edx, DWORD PTR [ecx]
	add	edx, 1
	mov	eax, DWORD PTR _numBack$[ebp]
	mov	DWORD PTR [eax], edx

; 619  : 			continue;

	jmp	$LN5@R_SplitPol
$LN13@R_SplitPol:

; 620  : 		}
; 621  : 
; 622  : 		if( sides[i] == PLANESIDE_FRONT )

	mov	eax, DWORD PTR _i$[ebp]
	cmp	DWORD PTR _sides$[ebp+eax*4], 1
	jne	SHORT $LN14@R_SplitPol

; 623  : 			front[(*numFront)++] = points[i];

	imul	eax, DWORD PTR _i$[ebp], 12
	add	eax, DWORD PTR _points$[ebp]
	mov	ecx, DWORD PTR _numFront$[ebp]
	imul	edx, DWORD PTR [ecx], 12
	add	edx, DWORD PTR _front$[ebp]
	mov	ecx, DWORD PTR [eax]
	mov	DWORD PTR [edx], ecx
	mov	ecx, DWORD PTR [eax+4]
	mov	DWORD PTR [edx+4], ecx
	mov	eax, DWORD PTR [eax+8]
	mov	DWORD PTR [edx+8], eax
	mov	ecx, DWORD PTR _numFront$[ebp]
	mov	edx, DWORD PTR [ecx]
	add	edx, 1
	mov	eax, DWORD PTR _numFront$[ebp]
	mov	DWORD PTR [eax], edx
$LN14@R_SplitPol:

; 624  : 
; 625  : 		if( sides[i] == PLANESIDE_BACK )

	mov	eax, DWORD PTR _i$[ebp]
	cmp	DWORD PTR _sides$[ebp+eax*4], 2
	jne	SHORT $LN15@R_SplitPol

; 626  : 			back[(*numBack)++] = points[i];

	imul	eax, DWORD PTR _i$[ebp], 12
	add	eax, DWORD PTR _points$[ebp]
	mov	ecx, DWORD PTR _numBack$[ebp]
	imul	edx, DWORD PTR [ecx], 12
	add	edx, DWORD PTR _back$[ebp]
	mov	ecx, DWORD PTR [eax]
	mov	DWORD PTR [edx], ecx
	mov	ecx, DWORD PTR [eax+4]
	mov	DWORD PTR [edx+4], ecx
	mov	eax, DWORD PTR [eax+8]
	mov	DWORD PTR [edx+8], eax
	mov	ecx, DWORD PTR _numBack$[ebp]
	mov	edx, DWORD PTR [ecx]
	add	edx, 1
	mov	eax, DWORD PTR _numBack$[ebp]
	mov	DWORD PTR [eax], edx
$LN15@R_SplitPol:

; 627  : 
; 628  : 		if( sides[i+1] == PLANESIDE_ON || sides[i+1] == sides[i] )

	mov	eax, DWORD PTR _i$[ebp]
	cmp	DWORD PTR _sides$[ebp+eax*4+4], 3
	je	SHORT $LN17@R_SplitPol
	mov	eax, DWORD PTR _i$[ebp]
	mov	ecx, DWORD PTR _i$[ebp]
	mov	edx, DWORD PTR _sides$[ebp+eax*4+4]
	cmp	edx, DWORD PTR _sides$[ebp+ecx*4]
	jne	SHORT $LN16@R_SplitPol
$LN17@R_SplitPol:

; 629  : 			continue;

	jmp	$LN5@R_SplitPol
$LN16@R_SplitPol:

; 630  : 
; 631  : 		if( dists[i] == dists[i+1] )

	mov	eax, DWORD PTR _i$[ebp]
	mov	ecx, DWORD PTR _i$[ebp]
	movss	xmm0, DWORD PTR _dists$[ebp+eax*4]
	ucomiss	xmm0, DWORD PTR _dists$[ebp+ecx*4+4]
	lahf
	test	ah, 68					; 00000044H
	jp	SHORT $LN18@R_SplitPol

; 632  : 		{
; 633  : 			front[(*numFront)++] = points[i];

	imul	eax, DWORD PTR _i$[ebp], 12
	add	eax, DWORD PTR _points$[ebp]
	mov	ecx, DWORD PTR _numFront$[ebp]
	imul	edx, DWORD PTR [ecx], 12
	add	edx, DWORD PTR _front$[ebp]
	mov	ecx, DWORD PTR [eax]
	mov	DWORD PTR [edx], ecx
	mov	ecx, DWORD PTR [eax+4]
	mov	DWORD PTR [edx+4], ecx
	mov	eax, DWORD PTR [eax+8]
	mov	DWORD PTR [edx+8], eax
	mov	ecx, DWORD PTR _numFront$[ebp]
	mov	edx, DWORD PTR [ecx]
	add	edx, 1
	mov	eax, DWORD PTR _numFront$[ebp]
	mov	DWORD PTR [eax], edx

; 634  : 			back[(*numBack)++] = points[i];

	imul	eax, DWORD PTR _i$[ebp], 12
	add	eax, DWORD PTR _points$[ebp]
	mov	ecx, DWORD PTR _numBack$[ebp]
	imul	edx, DWORD PTR [ecx], 12
	add	edx, DWORD PTR _back$[ebp]
	mov	ecx, DWORD PTR [eax]
	mov	DWORD PTR [edx], ecx
	mov	ecx, DWORD PTR [eax+4]
	mov	DWORD PTR [edx+4], ecx
	mov	eax, DWORD PTR [eax+8]
	mov	DWORD PTR [edx+8], eax
	mov	ecx, DWORD PTR _numBack$[ebp]
	mov	edx, DWORD PTR [ecx]
	add	edx, 1
	mov	eax, DWORD PTR _numBack$[ebp]
	mov	DWORD PTR [eax], edx

; 635  : 		}
; 636  : 		else

	jmp	$LN19@R_SplitPol
$LN18@R_SplitPol:

; 637  : 		{
; 638  : 			frac = dists[i] / (dists[i] - dists[i+1]);

	mov	eax, DWORD PTR _i$[ebp]
	mov	ecx, DWORD PTR _i$[ebp]
	movss	xmm0, DWORD PTR _dists$[ebp+eax*4]
	subss	xmm0, DWORD PTR _dists$[ebp+ecx*4+4]
	mov	edx, DWORD PTR _i$[ebp]
	movss	xmm1, DWORD PTR _dists$[ebp+edx*4]
	divss	xmm1, xmm0
	movss	DWORD PTR _frac$[ebp], xmm1

; 639  : 			mid = points[i] + (points[i+1] - points[i]) * frac;

	push	ecx
	movss	xmm0, DWORD PTR _frac$[ebp]
	movss	DWORD PTR [esp], xmm0
	lea	eax, DWORD PTR $T2[ebp]
	push	eax
	imul	ecx, DWORD PTR _i$[ebp], 12
	add	ecx, DWORD PTR _points$[ebp]
	push	ecx
	lea	edx, DWORD PTR $T3[ebp]
	push	edx
	mov	eax, DWORD PTR _i$[ebp]
	add	eax, 1
	imul	ecx, eax, 12
	add	ecx, DWORD PTR _points$[ebp]
	call	??GVector@@QBE?AV0@ABV0@@Z		; Vector::operator-
	mov	ecx, eax
	call	??DVector@@QBE?AV0@M@Z			; Vector::operator*
	push	eax
	lea	ecx, DWORD PTR $T1[ebp]
	push	ecx
	imul	ecx, DWORD PTR _i$[ebp], 12
	add	ecx, DWORD PTR _points$[ebp]
	call	??HVector@@QBE?AV0@ABV0@@Z		; Vector::operator+
	mov	edx, DWORD PTR [eax]
	mov	DWORD PTR _mid$[ebp], edx
	mov	ecx, DWORD PTR [eax+4]
	mov	DWORD PTR _mid$[ebp+4], ecx
	mov	edx, DWORD PTR [eax+8]
	mov	DWORD PTR _mid$[ebp+8], edx

; 640  : 			front[(*numFront)++] = mid;

	mov	eax, DWORD PTR _numFront$[ebp]
	imul	ecx, DWORD PTR [eax], 12
	add	ecx, DWORD PTR _front$[ebp]
	mov	edx, DWORD PTR _mid$[ebp]
	mov	DWORD PTR [ecx], edx
	mov	eax, DWORD PTR _mid$[ebp+4]
	mov	DWORD PTR [ecx+4], eax
	mov	edx, DWORD PTR _mid$[ebp+8]
	mov	DWORD PTR [ecx+8], edx
	mov	eax, DWORD PTR _numFront$[ebp]
	mov	ecx, DWORD PTR [eax]
	add	ecx, 1
	mov	edx, DWORD PTR _numFront$[ebp]
	mov	DWORD PTR [edx], ecx

; 641  : 			back[(*numBack)++] = mid;

	mov	eax, DWORD PTR _numBack$[ebp]
	imul	ecx, DWORD PTR [eax], 12
	add	ecx, DWORD PTR _back$[ebp]
	mov	edx, DWORD PTR _mid$[ebp]
	mov	DWORD PTR [ecx], edx
	mov	eax, DWORD PTR _mid$[ebp+4]
	mov	DWORD PTR [ecx+4], eax
	mov	edx, DWORD PTR _mid$[ebp+8]
	mov	DWORD PTR [ecx+8], edx
	mov	eax, DWORD PTR _numBack$[ebp]
	mov	ecx, DWORD PTR [eax]
	add	ecx, 1
	mov	edx, DWORD PTR _numBack$[ebp]
	mov	DWORD PTR [edx], ecx
$LN19@R_SplitPol:

; 642  : 		}
; 643  : 	}

	jmp	$LN5@R_SplitPol
$LN6@R_SplitPol:
$LN1@R_SplitPol:

; 644  : }

	pop	edi
	pop	esi
	pop	ebx
	mov	ecx, DWORD PTR __$ArrayPad$[ebp]
	xor	ecx, ebp
	call	@__security_check_cookie@4
	mov	esp, ebp
	pop	ebp
	ret	0
?R_SplitPolygon@@YAXHPAVVector@@PBUmplane_s@@PAH020@Z ENDP ; R_SplitPolygon
_TEXT	ENDS
; Function compile flags: /Odtp /ZI
; File d:\!diffusion 2020\source code 2022\client-server\client\utils.cpp
;	COMDAT ?R_ClipPolygon@@YA_NHPAVVector@@PBUmplane_s@@PAH0@Z
_TEXT	SEGMENT
tv87 = -696						; size = 4
$T1 = -692						; size = 12
$T2 = -680						; size = 12
$T3 = -668						; size = 12
_i$ = -528						; size = 4
_frac$ = -524						; size = 4
_backSide$ = -518					; size = 1
_frontSide$ = -517					; size = 1
_sides$ = -516						; size = 256
_dists$ = -260						; size = 256
__$ArrayPad$ = -4					; size = 4
_numPoints$ = 8						; size = 4
_points$ = 12						; size = 4
_plane$ = 16						; size = 4
_numClipped$ = 20					; size = 4
_clipped$ = 24						; size = 4
?R_ClipPolygon@@YA_NHPAVVector@@PBUmplane_s@@PAH0@Z PROC ; R_ClipPolygon, COMDAT

; 467  : {

	push	ebp
	mov	ebp, esp
	sub	esp, 696				; 000002b8H
	mov	eax, DWORD PTR ___security_cookie
	xor	eax, ebp
	mov	DWORD PTR __$ArrayPad$[ebp], eax
	push	ebx
	push	esi
	push	edi

; 468  : 	float	dists[MAX_POLYGON_POINTS];
; 469  : 	int	sides[MAX_POLYGON_POINTS];
; 470  : 	bool	frontSide, backSide;
; 471  : 	float	frac;
; 472  : 	int	i;
; 473  : 
; 474  : 	if( numPoints >= MAX_POLYGON_POINTS - 2 )

	cmp	DWORD PTR _numPoints$[ebp], 62		; 0000003eH
	jl	SHORT $LN8@R_ClipPoly

; 475  : 		HOST_ERROR( "R_ClipPolygon: MAX_POLYGON_POINTS hit\n" );

	push	OFFSET ??_C@_0CH@KGNNFBBJ@R_ClipPolygon?3?5MAX_POLYGON_POINT@
	call	DWORD PTR ?gRenderfuncs@@3Urender_api_s@@A+236
	add	esp, 4
$LN8@R_ClipPoly:

; 476  : 
; 477  : 	*numClipped = 0;

	mov	eax, DWORD PTR _numClipped$[ebp]
	mov	DWORD PTR [eax], 0

; 478  : 
; 479  : 	// Determine sides for each point
; 480  : 	frontSide = false;

	mov	BYTE PTR _frontSide$[ebp], 0

; 481  : 	backSide = false;

	mov	BYTE PTR _backSide$[ebp], 0

; 482  : 
; 483  : 	for( i = 0; i < numPoints; i++ )

	mov	DWORD PTR _i$[ebp], 0
	jmp	SHORT $LN4@R_ClipPoly
$LN2@R_ClipPoly:
	mov	eax, DWORD PTR _i$[ebp]
	add	eax, 1
	mov	DWORD PTR _i$[ebp], eax
$LN4@R_ClipPoly:
	mov	eax, DWORD PTR _i$[ebp]
	cmp	eax, DWORD PTR _numPoints$[ebp]
	jge	$LN3@R_ClipPoly

; 484  : 	{
; 485  : 		dists[i] = PlaneDiff( points[i], plane );

	mov	eax, DWORD PTR _plane$[ebp]
	movzx	ecx, BYTE PTR [eax+16]
	cmp	ecx, 3
	jge	SHORT $LN20@R_ClipPoly
	imul	ecx, DWORD PTR _i$[ebp], 12
	add	ecx, DWORD PTR _points$[ebp]
	call	??BVector@@QAEPAMXZ			; Vector::operator float *
	mov	edx, DWORD PTR _plane$[ebp]
	movzx	ecx, BYTE PTR [edx+16]
	movss	xmm0, DWORD PTR [eax+ecx*4]
	movss	DWORD PTR tv87[ebp], xmm0
	jmp	SHORT $LN21@R_ClipPoly
$LN20@R_ClipPoly:
	mov	edx, DWORD PTR _plane$[ebp]
	push	edx
	imul	eax, DWORD PTR _i$[ebp], 12
	add	eax, DWORD PTR _points$[ebp]
	push	eax
	call	?DotProduct@@YAMABVVector@@0@Z		; DotProduct
	add	esp, 8
	fstp	DWORD PTR tv87[ebp]
$LN21@R_ClipPoly:
	mov	ecx, DWORD PTR _plane$[ebp]
	movss	xmm0, DWORD PTR tv87[ebp]
	subss	xmm0, DWORD PTR [ecx+12]
	mov	edx, DWORD PTR _i$[ebp]
	movss	DWORD PTR _dists$[ebp+edx*4], xmm0

; 486  : 
; 487  : 		if( dists[i] > ON_EPSILON )

	mov	eax, DWORD PTR _i$[ebp]
	movss	xmm0, DWORD PTR _dists$[ebp+eax*4]
	comiss	xmm0, DWORD PTR __real@3dcccccd
	jbe	SHORT $LN9@R_ClipPoly

; 488  : 		{
; 489  : 			sides[i] = PLANESIDE_FRONT;

	mov	eax, DWORD PTR _i$[ebp]
	mov	DWORD PTR _sides$[ebp+eax*4], 1

; 490  : 			frontSide = true;

	mov	BYTE PTR _frontSide$[ebp], 1

; 491  : 			continue;

	jmp	$LN2@R_ClipPoly
$LN9@R_ClipPoly:

; 492  : 		}
; 493  : 
; 494  : 		if( dists[i] < -ON_EPSILON )

	mov	eax, DWORD PTR _i$[ebp]
	movss	xmm0, DWORD PTR __real@bdcccccd
	comiss	xmm0, DWORD PTR _dists$[ebp+eax*4]
	jbe	SHORT $LN10@R_ClipPoly

; 495  : 		{
; 496  : 			sides[i] = PLANESIDE_BACK;

	mov	eax, DWORD PTR _i$[ebp]
	mov	DWORD PTR _sides$[ebp+eax*4], 2

; 497  : 			backSide = true;

	mov	BYTE PTR _backSide$[ebp], 1

; 498  : 			continue;

	jmp	$LN2@R_ClipPoly
$LN10@R_ClipPoly:

; 499  : 		}
; 500  : 
; 501  : 		sides[i] = PLANESIDE_ON;

	mov	eax, DWORD PTR _i$[ebp]
	mov	DWORD PTR _sides$[ebp+eax*4], 3

; 502  : 	}

	jmp	$LN2@R_ClipPoly
$LN3@R_ClipPoly:

; 503  : 
; 504  : 	if( !frontSide )

	movzx	eax, BYTE PTR _frontSide$[ebp]
	test	eax, eax
	jne	SHORT $LN11@R_ClipPoly

; 505  : 		return false;	// Not clipped

	xor	al, al
	jmp	$LN1@R_ClipPoly
$LN11@R_ClipPoly:

; 506  : 
; 507  : 	if( !backSide )

	movzx	eax, BYTE PTR _backSide$[ebp]
	test	eax, eax
	jne	SHORT $LN12@R_ClipPoly

; 508  : 	{
; 509  : 		*numClipped = numPoints;

	mov	eax, DWORD PTR _numClipped$[ebp]
	mov	ecx, DWORD PTR _numPoints$[ebp]
	mov	DWORD PTR [eax], ecx

; 510  : 		memcpy( clipped, points, numPoints * sizeof( Vector ));

	imul	eax, DWORD PTR _numPoints$[ebp], 12
	push	eax
	mov	ecx, DWORD PTR _points$[ebp]
	push	ecx
	mov	edx, DWORD PTR _clipped$[ebp]
	push	edx
	call	_memcpy
	add	esp, 12					; 0000000cH

; 511  : 
; 512  : 		return true;

	mov	al, 1
	jmp	$LN1@R_ClipPoly
$LN12@R_ClipPoly:

; 513  : 	}
; 514  : 
; 515  : 	// xlip it
; 516  : 	points[i] = points[0];

	mov	eax, 12					; 0000000cH
	imul	ecx, eax, 0
	add	ecx, DWORD PTR _points$[ebp]
	imul	edx, DWORD PTR _i$[ebp], 12
	add	edx, DWORD PTR _points$[ebp]
	mov	eax, DWORD PTR [ecx]
	mov	DWORD PTR [edx], eax
	mov	eax, DWORD PTR [ecx+4]
	mov	DWORD PTR [edx+4], eax
	mov	ecx, DWORD PTR [ecx+8]
	mov	DWORD PTR [edx+8], ecx

; 517  : 	dists[i] = dists[0];

	mov	eax, 4
	imul	ecx, eax, 0
	mov	edx, DWORD PTR _i$[ebp]
	mov	eax, DWORD PTR _dists$[ebp+ecx]
	mov	DWORD PTR _dists$[ebp+edx*4], eax

; 518  : 	sides[i] = sides[0];

	mov	eax, 4
	imul	ecx, eax, 0
	mov	edx, DWORD PTR _i$[ebp]
	mov	eax, DWORD PTR _sides$[ebp+ecx]
	mov	DWORD PTR _sides$[ebp+edx*4], eax

; 519  : 
; 520  : 	for( i = 0; i < numPoints; i++ )

	mov	DWORD PTR _i$[ebp], 0
	jmp	SHORT $LN7@R_ClipPoly
$LN5@R_ClipPoly:
	mov	eax, DWORD PTR _i$[ebp]
	add	eax, 1
	mov	DWORD PTR _i$[ebp], eax
$LN7@R_ClipPoly:
	mov	eax, DWORD PTR _i$[ebp]
	cmp	eax, DWORD PTR _numPoints$[ebp]
	jge	$LN6@R_ClipPoly

; 521  : 	{
; 522  : 		if( sides[i] == PLANESIDE_ON )

	mov	eax, DWORD PTR _i$[ebp]
	cmp	DWORD PTR _sides$[ebp+eax*4], 3
	jne	SHORT $LN13@R_ClipPoly

; 523  : 		{
; 524  : 			clipped[(*numClipped)++] = points[i];

	imul	eax, DWORD PTR _i$[ebp], 12
	add	eax, DWORD PTR _points$[ebp]
	mov	ecx, DWORD PTR _numClipped$[ebp]
	imul	edx, DWORD PTR [ecx], 12
	add	edx, DWORD PTR _clipped$[ebp]
	mov	ecx, DWORD PTR [eax]
	mov	DWORD PTR [edx], ecx
	mov	ecx, DWORD PTR [eax+4]
	mov	DWORD PTR [edx+4], ecx
	mov	eax, DWORD PTR [eax+8]
	mov	DWORD PTR [edx+8], eax
	mov	ecx, DWORD PTR _numClipped$[ebp]
	mov	edx, DWORD PTR [ecx]
	add	edx, 1
	mov	eax, DWORD PTR _numClipped$[ebp]
	mov	DWORD PTR [eax], edx

; 525  : 			continue;

	jmp	SHORT $LN5@R_ClipPoly
$LN13@R_ClipPoly:

; 526  : 		}
; 527  : 
; 528  : 		if( sides[i] == PLANESIDE_FRONT )

	mov	eax, DWORD PTR _i$[ebp]
	cmp	DWORD PTR _sides$[ebp+eax*4], 1
	jne	SHORT $LN14@R_ClipPoly

; 529  : 			clipped[(*numClipped)++] = points[i];

	imul	eax, DWORD PTR _i$[ebp], 12
	add	eax, DWORD PTR _points$[ebp]
	mov	ecx, DWORD PTR _numClipped$[ebp]
	imul	edx, DWORD PTR [ecx], 12
	add	edx, DWORD PTR _clipped$[ebp]
	mov	ecx, DWORD PTR [eax]
	mov	DWORD PTR [edx], ecx
	mov	ecx, DWORD PTR [eax+4]
	mov	DWORD PTR [edx+4], ecx
	mov	eax, DWORD PTR [eax+8]
	mov	DWORD PTR [edx+8], eax
	mov	ecx, DWORD PTR _numClipped$[ebp]
	mov	edx, DWORD PTR [ecx]
	add	edx, 1
	mov	eax, DWORD PTR _numClipped$[ebp]
	mov	DWORD PTR [eax], edx
$LN14@R_ClipPoly:

; 530  : 
; 531  : 		if( sides[i+1] == PLANESIDE_ON || sides[i+1] == sides[i] )

	mov	eax, DWORD PTR _i$[ebp]
	cmp	DWORD PTR _sides$[ebp+eax*4+4], 3
	je	SHORT $LN16@R_ClipPoly
	mov	eax, DWORD PTR _i$[ebp]
	mov	ecx, DWORD PTR _i$[ebp]
	mov	edx, DWORD PTR _sides$[ebp+eax*4+4]
	cmp	edx, DWORD PTR _sides$[ebp+ecx*4]
	jne	SHORT $LN15@R_ClipPoly
$LN16@R_ClipPoly:

; 532  : 			continue;

	jmp	$LN5@R_ClipPoly
$LN15@R_ClipPoly:

; 533  : 
; 534  : 		if( dists[i] == dists[i+1] )

	mov	eax, DWORD PTR _i$[ebp]
	mov	ecx, DWORD PTR _i$[ebp]
	movss	xmm0, DWORD PTR _dists$[ebp+eax*4]
	ucomiss	xmm0, DWORD PTR _dists$[ebp+ecx*4+4]
	lahf
	test	ah, 68					; 00000044H
	jp	SHORT $LN17@R_ClipPoly

; 535  : 		{
; 536  : 			clipped[(*numClipped)++] = points[i];

	imul	eax, DWORD PTR _i$[ebp], 12
	add	eax, DWORD PTR _points$[ebp]
	mov	ecx, DWORD PTR _numClipped$[ebp]
	imul	edx, DWORD PTR [ecx], 12
	add	edx, DWORD PTR _clipped$[ebp]
	mov	ecx, DWORD PTR [eax]
	mov	DWORD PTR [edx], ecx
	mov	ecx, DWORD PTR [eax+4]
	mov	DWORD PTR [edx+4], ecx
	mov	eax, DWORD PTR [eax+8]
	mov	DWORD PTR [edx+8], eax
	mov	ecx, DWORD PTR _numClipped$[ebp]
	mov	edx, DWORD PTR [ecx]
	add	edx, 1
	mov	eax, DWORD PTR _numClipped$[ebp]
	mov	DWORD PTR [eax], edx

; 537  : 		}
; 538  : 		else

	jmp	$LN18@R_ClipPoly
$LN17@R_ClipPoly:

; 539  : 		{
; 540  : 			frac = dists[i] / (dists[i] - dists[i+1]);

	mov	eax, DWORD PTR _i$[ebp]
	mov	ecx, DWORD PTR _i$[ebp]
	movss	xmm0, DWORD PTR _dists$[ebp+eax*4]
	subss	xmm0, DWORD PTR _dists$[ebp+ecx*4+4]
	mov	edx, DWORD PTR _i$[ebp]
	movss	xmm1, DWORD PTR _dists$[ebp+edx*4]
	divss	xmm1, xmm0
	movss	DWORD PTR _frac$[ebp], xmm1

; 541  : 			clipped[(*numClipped)++] = points[i] + (points[i+1] - points[i]) * frac;

	push	ecx
	movss	xmm0, DWORD PTR _frac$[ebp]
	movss	DWORD PTR [esp], xmm0
	lea	eax, DWORD PTR $T2[ebp]
	push	eax
	imul	ecx, DWORD PTR _i$[ebp], 12
	add	ecx, DWORD PTR _points$[ebp]
	push	ecx
	lea	edx, DWORD PTR $T3[ebp]
	push	edx
	mov	eax, DWORD PTR _i$[ebp]
	add	eax, 1
	imul	ecx, eax, 12
	add	ecx, DWORD PTR _points$[ebp]
	call	??GVector@@QBE?AV0@ABV0@@Z		; Vector::operator-
	mov	ecx, eax
	call	??DVector@@QBE?AV0@M@Z			; Vector::operator*
	push	eax
	lea	ecx, DWORD PTR $T1[ebp]
	push	ecx
	imul	ecx, DWORD PTR _i$[ebp], 12
	add	ecx, DWORD PTR _points$[ebp]
	call	??HVector@@QBE?AV0@ABV0@@Z		; Vector::operator+
	mov	edx, DWORD PTR _numClipped$[ebp]
	imul	ecx, DWORD PTR [edx], 12
	add	ecx, DWORD PTR _clipped$[ebp]
	mov	edx, DWORD PTR [eax]
	mov	DWORD PTR [ecx], edx
	mov	edx, DWORD PTR [eax+4]
	mov	DWORD PTR [ecx+4], edx
	mov	eax, DWORD PTR [eax+8]
	mov	DWORD PTR [ecx+8], eax
	mov	ecx, DWORD PTR _numClipped$[ebp]
	mov	edx, DWORD PTR [ecx]
	add	edx, 1
	mov	eax, DWORD PTR _numClipped$[ebp]
	mov	DWORD PTR [eax], edx
$LN18@R_ClipPoly:

; 542  : 		}
; 543  : 	}

	jmp	$LN5@R_ClipPoly
$LN6@R_ClipPoly:

; 544  : 
; 545  : 	return true;

	mov	al, 1
$LN1@R_ClipPoly:

; 546  : }

	pop	edi
	pop	esi
	pop	ebx
	mov	ecx, DWORD PTR __$ArrayPad$[ebp]
	xor	ecx, ebp
	call	@__security_check_cookie@4
	mov	esp, ebp
	pop	ebp
	ret	0
?R_ClipPolygon@@YA_NHPAVVector@@PBUmplane_s@@PAH0@Z ENDP ; R_ClipPolygon
_TEXT	ENDS
; Function compile flags: /Odtp /ZI
; File d:\!diffusion 2020\source code 2022\client-server\client\utils.cpp
;	COMDAT ?R_TransformDeviceToScreen@@YAXABVVector@@AAV1@@Z
_TEXT	SEGMENT
tv187 = -68						; size = 4
tv185 = -68						; size = 4
tv183 = -68						; size = 4
_ndc$ = 8						; size = 4
_screen$ = 12						; size = 4
?R_TransformDeviceToScreen@@YAXABVVector@@AAV1@@Z PROC	; R_TransformDeviceToScreen, COMDAT

; 682  : {

	push	ebp
	mov	ebp, esp
	sub	esp, 68					; 00000044H
	push	ebx
	push	esi
	push	edi

; 683  : 	screen[0] = (ndc[0] * 0.5f + 0.5f) * (RI->viewport[2] - RI->viewport[0]) + RI->viewport[0];

	mov	ecx, DWORD PTR _ndc$[ebp]
	call	??BVector@@QBEPBMXZ			; Vector::operator float const *
	mov	ecx, 4
	imul	edx, ecx, 0
	movss	xmm0, DWORD PTR [eax+edx]
	mulss	xmm0, DWORD PTR __real@3f000000
	addss	xmm0, DWORD PTR __real@3f000000
	mov	eax, 4
	shl	eax, 1
	mov	ecx, 4
	imul	edx, ecx, 0
	mov	ecx, DWORD PTR ?RI@@3PAUref_instance_t@@A ; RI
	mov	esi, DWORD PTR ?RI@@3PAUref_instance_t@@A ; RI
	mov	eax, DWORD PTR [ecx+eax+32]
	sub	eax, DWORD PTR [esi+edx+32]
	cvtsi2ss xmm1, eax
	mulss	xmm0, xmm1
	mov	ecx, 4
	imul	edx, ecx, 0
	mov	eax, DWORD PTR ?RI@@3PAUref_instance_t@@A ; RI
	cvtsi2ss xmm1, DWORD PTR [eax+edx+32]
	addss	xmm0, xmm1
	mov	ecx, DWORD PTR _screen$[ebp]
	movss	DWORD PTR tv183[ebp], xmm0
	call	??BVector@@QAEPAMXZ			; Vector::operator float *
	mov	ecx, 4
	imul	edx, ecx, 0
	movss	xmm0, DWORD PTR tv183[ebp]
	movss	DWORD PTR [eax+edx], xmm0

; 684  : 	screen[1] = (ndc[1] * 0.5f + 0.5f) * (RI->viewport[3] - RI->viewport[1]) + RI->viewport[1];

	mov	ecx, DWORD PTR _ndc$[ebp]
	call	??BVector@@QBEPBMXZ			; Vector::operator float const *
	mov	ecx, 4
	shl	ecx, 0
	movss	xmm0, DWORD PTR [eax+ecx]
	mulss	xmm0, DWORD PTR __real@3f000000
	addss	xmm0, DWORD PTR __real@3f000000
	mov	edx, 4
	imul	eax, edx, 3
	mov	ecx, 4
	shl	ecx, 0
	mov	edx, DWORD PTR ?RI@@3PAUref_instance_t@@A ; RI
	mov	esi, DWORD PTR ?RI@@3PAUref_instance_t@@A ; RI
	mov	eax, DWORD PTR [edx+eax+32]
	sub	eax, DWORD PTR [esi+ecx+32]
	cvtsi2ss xmm1, eax
	mulss	xmm0, xmm1
	mov	ecx, 4
	shl	ecx, 0
	mov	edx, DWORD PTR ?RI@@3PAUref_instance_t@@A ; RI
	cvtsi2ss xmm1, DWORD PTR [edx+ecx+32]
	addss	xmm0, xmm1
	mov	ecx, DWORD PTR _screen$[ebp]
	movss	DWORD PTR tv185[ebp], xmm0
	call	??BVector@@QAEPAMXZ			; Vector::operator float *
	mov	ecx, 4
	shl	ecx, 0
	movss	xmm0, DWORD PTR tv185[ebp]
	movss	DWORD PTR [eax+ecx], xmm0

; 685  : 	screen[2] = (ndc[2] * 0.5f + 0.5f);

	mov	ecx, DWORD PTR _ndc$[ebp]
	call	??BVector@@QBEPBMXZ			; Vector::operator float const *
	mov	ecx, 4
	shl	ecx, 1
	movss	xmm0, DWORD PTR [eax+ecx]
	mulss	xmm0, DWORD PTR __real@3f000000
	addss	xmm0, DWORD PTR __real@3f000000
	mov	ecx, DWORD PTR _screen$[ebp]
	movss	DWORD PTR tv187[ebp], xmm0
	call	??BVector@@QAEPAMXZ			; Vector::operator float *
	mov	edx, 4
	shl	edx, 1
	movss	xmm0, DWORD PTR tv187[ebp]
	movss	DWORD PTR [eax+edx], xmm0

; 686  : }

	pop	edi
	pop	esi
	pop	ebx
	mov	esp, ebp
	pop	ebp
	ret	0
?R_TransformDeviceToScreen@@YAXABVVector@@AAV1@@Z ENDP	; R_TransformDeviceToScreen
_TEXT	ENDS
; Function compile flags: /Odtp /ZI
; File d:\!diffusion 2020\source code 2022\client-server\client\utils.cpp
;	COMDAT ?R_TransformWorldToDevice@@YAXABVVector@@AAV1@@Z
_TEXT	SEGMENT
tv496 = -100						; size = 4
tv488 = -100						; size = 4
tv480 = -100						; size = 4
tv472 = -100						; size = 4
tv494 = -96						; size = 4
tv486 = -96						; size = 4
tv478 = -96						; size = 4
tv470 = -96						; size = 4
tv492 = -92						; size = 4
tv484 = -92						; size = 4
tv476 = -92						; size = 4
tv468 = -92						; size = 4
tv502 = -88						; size = 4
tv500 = -88						; size = 4
tv498 = -88						; size = 4
tv490 = -88						; size = 4
tv482 = -88						; size = 4
tv474 = -88						; size = 4
tv466 = -88						; size = 4
_scale$ = -20						; size = 4
_clip$ = -16						; size = 16
_world$ = 8						; size = 4
_ndc$ = 12						; size = 4
?R_TransformWorldToDevice@@YAXABVVector@@AAV1@@Z PROC	; R_TransformWorldToDevice, COMDAT

; 652  : {

	push	ebp
	mov	ebp, esp
	sub	esp, 100				; 00000064H
	push	ebx
	push	esi
	push	edi

; 653  : 	Vector4D	clip;

	lea	ecx, DWORD PTR _clip$[ebp]
	call	??0Vector4D@@QAE@XZ			; Vector4D::Vector4D

; 654  : 	float	scale;
; 655  : 
; 656  : 	clip[0] = world[0] * RI->worldviewProjectionMatrix[0][0] + world[1] * RI->worldviewProjectionMatrix[1][0] + world[2] * RI->worldviewProjectionMatrix[2][0] + RI->worldviewProjectionMatrix[3][0];

	mov	ecx, DWORD PTR _world$[ebp]
	call	??BVector@@QBEPBMXZ			; Vector::operator float const *
	mov	esi, eax
	mov	eax, 4
	imul	edi, eax, 0
	push	0
	mov	ecx, DWORD PTR ?RI@@3PAUref_instance_t@@A ; RI
	add	ecx, 620				; 0000026cH
	call	??Amatrix4x4@@QAEPAMH@Z			; matrix4x4::operator[]
	mov	ecx, 4
	imul	edx, ecx, 0
	movss	xmm0, DWORD PTR [esi+edi]
	mulss	xmm0, DWORD PTR [eax+edx]
	mov	ecx, DWORD PTR _world$[ebp]
	movss	DWORD PTR tv466[ebp], xmm0
	call	??BVector@@QBEPBMXZ			; Vector::operator float const *
	mov	esi, eax
	mov	edi, 4
	shl	edi, 0
	push	1
	mov	ecx, DWORD PTR ?RI@@3PAUref_instance_t@@A ; RI
	add	ecx, 620				; 0000026cH
	call	??Amatrix4x4@@QAEPAMH@Z			; matrix4x4::operator[]
	mov	ecx, 4
	imul	edx, ecx, 0
	movss	xmm0, DWORD PTR [esi+edi]
	mulss	xmm0, DWORD PTR [eax+edx]
	movss	xmm1, DWORD PTR tv466[ebp]
	addss	xmm1, xmm0
	mov	ecx, DWORD PTR _world$[ebp]
	movss	DWORD PTR tv468[ebp], xmm1
	call	??BVector@@QBEPBMXZ			; Vector::operator float const *
	mov	esi, eax
	mov	edi, 4
	shl	edi, 1
	push	2
	mov	ecx, DWORD PTR ?RI@@3PAUref_instance_t@@A ; RI
	add	ecx, 620				; 0000026cH
	call	??Amatrix4x4@@QAEPAMH@Z			; matrix4x4::operator[]
	mov	ecx, 4
	imul	edx, ecx, 0
	movss	xmm0, DWORD PTR [esi+edi]
	mulss	xmm0, DWORD PTR [eax+edx]
	movss	xmm1, DWORD PTR tv468[ebp]
	addss	xmm1, xmm0
	push	3
	mov	ecx, DWORD PTR ?RI@@3PAUref_instance_t@@A ; RI
	add	ecx, 620				; 0000026cH
	movss	DWORD PTR tv470[ebp], xmm1
	call	??Amatrix4x4@@QAEPAMH@Z			; matrix4x4::operator[]
	mov	ecx, 4
	imul	edx, ecx, 0
	movss	xmm0, DWORD PTR tv470[ebp]
	addss	xmm0, DWORD PTR [eax+edx]
	lea	ecx, DWORD PTR _clip$[ebp]
	movss	DWORD PTR tv472[ebp], xmm0
	call	??BVector4D@@QAEPAMXZ			; Vector4D::operator float *
	mov	ecx, 4
	imul	edx, ecx, 0
	movss	xmm0, DWORD PTR tv472[ebp]
	movss	DWORD PTR [eax+edx], xmm0

; 657  : 	clip[1] = world[0] * RI->worldviewProjectionMatrix[0][1] + world[1] * RI->worldviewProjectionMatrix[1][1] + world[2] * RI->worldviewProjectionMatrix[2][1] + RI->worldviewProjectionMatrix[3][1];

	mov	ecx, DWORD PTR _world$[ebp]
	call	??BVector@@QBEPBMXZ			; Vector::operator float const *
	mov	esi, eax
	mov	eax, 4
	imul	edi, eax, 0
	push	0
	mov	ecx, DWORD PTR ?RI@@3PAUref_instance_t@@A ; RI
	add	ecx, 620				; 0000026cH
	call	??Amatrix4x4@@QAEPAMH@Z			; matrix4x4::operator[]
	mov	ecx, 4
	shl	ecx, 0
	movss	xmm0, DWORD PTR [esi+edi]
	mulss	xmm0, DWORD PTR [eax+ecx]
	mov	ecx, DWORD PTR _world$[ebp]
	movss	DWORD PTR tv474[ebp], xmm0
	call	??BVector@@QBEPBMXZ			; Vector::operator float const *
	mov	esi, eax
	mov	edi, 4
	shl	edi, 0
	push	1
	mov	ecx, DWORD PTR ?RI@@3PAUref_instance_t@@A ; RI
	add	ecx, 620				; 0000026cH
	call	??Amatrix4x4@@QAEPAMH@Z			; matrix4x4::operator[]
	mov	edx, 4
	shl	edx, 0
	movss	xmm0, DWORD PTR [esi+edi]
	mulss	xmm0, DWORD PTR [eax+edx]
	movss	xmm1, DWORD PTR tv474[ebp]
	addss	xmm1, xmm0
	mov	ecx, DWORD PTR _world$[ebp]
	movss	DWORD PTR tv476[ebp], xmm1
	call	??BVector@@QBEPBMXZ			; Vector::operator float const *
	mov	esi, eax
	mov	edi, 4
	shl	edi, 1
	push	2
	mov	ecx, DWORD PTR ?RI@@3PAUref_instance_t@@A ; RI
	add	ecx, 620				; 0000026cH
	call	??Amatrix4x4@@QAEPAMH@Z			; matrix4x4::operator[]
	mov	ecx, 4
	shl	ecx, 0
	movss	xmm0, DWORD PTR [esi+edi]
	mulss	xmm0, DWORD PTR [eax+ecx]
	movss	xmm1, DWORD PTR tv476[ebp]
	addss	xmm1, xmm0
	push	3
	mov	ecx, DWORD PTR ?RI@@3PAUref_instance_t@@A ; RI
	add	ecx, 620				; 0000026cH
	movss	DWORD PTR tv478[ebp], xmm1
	call	??Amatrix4x4@@QAEPAMH@Z			; matrix4x4::operator[]
	mov	edx, 4
	shl	edx, 0
	movss	xmm0, DWORD PTR tv478[ebp]
	addss	xmm0, DWORD PTR [eax+edx]
	lea	ecx, DWORD PTR _clip$[ebp]
	movss	DWORD PTR tv480[ebp], xmm0
	call	??BVector4D@@QAEPAMXZ			; Vector4D::operator float *
	mov	ecx, 4
	shl	ecx, 0
	movss	xmm0, DWORD PTR tv480[ebp]
	movss	DWORD PTR [eax+ecx], xmm0

; 658  : 	clip[2] = world[0] * RI->worldviewProjectionMatrix[0][2] + world[1] * RI->worldviewProjectionMatrix[1][2] + world[2] * RI->worldviewProjectionMatrix[2][2] + RI->worldviewProjectionMatrix[3][2];

	mov	ecx, DWORD PTR _world$[ebp]
	call	??BVector@@QBEPBMXZ			; Vector::operator float const *
	mov	esi, eax
	mov	eax, 4
	imul	edi, eax, 0
	push	0
	mov	ecx, DWORD PTR ?RI@@3PAUref_instance_t@@A ; RI
	add	ecx, 620				; 0000026cH
	call	??Amatrix4x4@@QAEPAMH@Z			; matrix4x4::operator[]
	mov	ecx, 4
	shl	ecx, 1
	movss	xmm0, DWORD PTR [esi+edi]
	mulss	xmm0, DWORD PTR [eax+ecx]
	mov	ecx, DWORD PTR _world$[ebp]
	movss	DWORD PTR tv482[ebp], xmm0
	call	??BVector@@QBEPBMXZ			; Vector::operator float const *
	mov	esi, eax
	mov	edi, 4
	shl	edi, 0
	push	1
	mov	ecx, DWORD PTR ?RI@@3PAUref_instance_t@@A ; RI
	add	ecx, 620				; 0000026cH
	call	??Amatrix4x4@@QAEPAMH@Z			; matrix4x4::operator[]
	mov	edx, 4
	shl	edx, 1
	movss	xmm0, DWORD PTR [esi+edi]
	mulss	xmm0, DWORD PTR [eax+edx]
	movss	xmm1, DWORD PTR tv482[ebp]
	addss	xmm1, xmm0
	mov	ecx, DWORD PTR _world$[ebp]
	movss	DWORD PTR tv484[ebp], xmm1
	call	??BVector@@QBEPBMXZ			; Vector::operator float const *
	mov	esi, eax
	mov	edi, 4
	shl	edi, 1
	push	2
	mov	ecx, DWORD PTR ?RI@@3PAUref_instance_t@@A ; RI
	add	ecx, 620				; 0000026cH
	call	??Amatrix4x4@@QAEPAMH@Z			; matrix4x4::operator[]
	mov	ecx, 4
	shl	ecx, 1
	movss	xmm0, DWORD PTR [esi+edi]
	mulss	xmm0, DWORD PTR [eax+ecx]
	movss	xmm1, DWORD PTR tv484[ebp]
	addss	xmm1, xmm0
	push	3
	mov	ecx, DWORD PTR ?RI@@3PAUref_instance_t@@A ; RI
	add	ecx, 620				; 0000026cH
	movss	DWORD PTR tv486[ebp], xmm1
	call	??Amatrix4x4@@QAEPAMH@Z			; matrix4x4::operator[]
	mov	edx, 4
	shl	edx, 1
	movss	xmm0, DWORD PTR tv486[ebp]
	addss	xmm0, DWORD PTR [eax+edx]
	lea	ecx, DWORD PTR _clip$[ebp]
	movss	DWORD PTR tv488[ebp], xmm0
	call	??BVector4D@@QAEPAMXZ			; Vector4D::operator float *
	mov	ecx, 4
	shl	ecx, 1
	movss	xmm0, DWORD PTR tv488[ebp]
	movss	DWORD PTR [eax+ecx], xmm0

; 659  : 	clip[3] = world[0] * RI->worldviewProjectionMatrix[0][3] + world[1] * RI->worldviewProjectionMatrix[1][3] + world[2] * RI->worldviewProjectionMatrix[2][3] + RI->worldviewProjectionMatrix[3][3];

	mov	ecx, DWORD PTR _world$[ebp]
	call	??BVector@@QBEPBMXZ			; Vector::operator float const *
	mov	esi, eax
	mov	eax, 4
	imul	edi, eax, 0
	push	0
	mov	ecx, DWORD PTR ?RI@@3PAUref_instance_t@@A ; RI
	add	ecx, 620				; 0000026cH
	call	??Amatrix4x4@@QAEPAMH@Z			; matrix4x4::operator[]
	mov	ecx, 4
	imul	edx, ecx, 3
	movss	xmm0, DWORD PTR [esi+edi]
	mulss	xmm0, DWORD PTR [eax+edx]
	mov	ecx, DWORD PTR _world$[ebp]
	movss	DWORD PTR tv490[ebp], xmm0
	call	??BVector@@QBEPBMXZ			; Vector::operator float const *
	mov	esi, eax
	mov	edi, 4
	shl	edi, 0
	push	1
	mov	ecx, DWORD PTR ?RI@@3PAUref_instance_t@@A ; RI
	add	ecx, 620				; 0000026cH
	call	??Amatrix4x4@@QAEPAMH@Z			; matrix4x4::operator[]
	mov	ecx, 4
	imul	edx, ecx, 3
	movss	xmm0, DWORD PTR [esi+edi]
	mulss	xmm0, DWORD PTR [eax+edx]
	movss	xmm1, DWORD PTR tv490[ebp]
	addss	xmm1, xmm0
	mov	ecx, DWORD PTR _world$[ebp]
	movss	DWORD PTR tv492[ebp], xmm1
	call	??BVector@@QBEPBMXZ			; Vector::operator float const *
	mov	esi, eax
	mov	edi, 4
	shl	edi, 1
	push	2
	mov	ecx, DWORD PTR ?RI@@3PAUref_instance_t@@A ; RI
	add	ecx, 620				; 0000026cH
	call	??Amatrix4x4@@QAEPAMH@Z			; matrix4x4::operator[]
	mov	ecx, 4
	imul	edx, ecx, 3
	movss	xmm0, DWORD PTR [esi+edi]
	mulss	xmm0, DWORD PTR [eax+edx]
	movss	xmm1, DWORD PTR tv492[ebp]
	addss	xmm1, xmm0
	push	3
	mov	ecx, DWORD PTR ?RI@@3PAUref_instance_t@@A ; RI
	add	ecx, 620				; 0000026cH
	movss	DWORD PTR tv494[ebp], xmm1
	call	??Amatrix4x4@@QAEPAMH@Z			; matrix4x4::operator[]
	mov	ecx, 4
	imul	edx, ecx, 3
	movss	xmm0, DWORD PTR tv494[ebp]
	addss	xmm0, DWORD PTR [eax+edx]
	lea	ecx, DWORD PTR _clip$[ebp]
	movss	DWORD PTR tv496[ebp], xmm0
	call	??BVector4D@@QAEPAMXZ			; Vector4D::operator float *
	mov	ecx, 4
	imul	edx, ecx, 3
	movss	xmm0, DWORD PTR tv496[ebp]
	movss	DWORD PTR [eax+edx], xmm0

; 660  : 
; 661  : 	if( clip[3] == 0.0f )

	lea	ecx, DWORD PTR _clip$[ebp]
	call	??BVector4D@@QAEPAMXZ			; Vector4D::operator float *
	mov	ecx, 4
	imul	edx, ecx, 3
	movss	xmm0, DWORD PTR [eax+edx]
	ucomiss	xmm0, DWORD PTR __real@00000000
	lahf
	test	ah, 68					; 00000044H
	jp	SHORT $LN2@R_Transfor

; 662  : 	{
; 663  : 		ndc[0] = clip[0];

	lea	ecx, DWORD PTR _clip$[ebp]
	call	??BVector4D@@QAEPAMXZ			; Vector4D::operator float *
	mov	esi, eax
	mov	eax, 4
	imul	edi, eax, 0
	mov	ecx, DWORD PTR _ndc$[ebp]
	call	??BVector@@QAEPAMXZ			; Vector::operator float *
	mov	ecx, 4
	imul	edx, ecx, 0
	mov	ecx, DWORD PTR [esi+edi]
	mov	DWORD PTR [eax+edx], ecx

; 664  : 		ndc[1] = clip[1];

	lea	ecx, DWORD PTR _clip$[ebp]
	call	??BVector4D@@QAEPAMXZ			; Vector4D::operator float *
	mov	esi, eax
	mov	edi, 4
	shl	edi, 0
	mov	ecx, DWORD PTR _ndc$[ebp]
	call	??BVector@@QAEPAMXZ			; Vector::operator float *
	mov	ecx, 4
	shl	ecx, 0
	mov	edx, DWORD PTR [esi+edi]
	mov	DWORD PTR [eax+ecx], edx

; 665  : 		ndc[2] = -1.0f;

	mov	ecx, DWORD PTR _ndc$[ebp]
	call	??BVector@@QAEPAMXZ			; Vector::operator float *
	mov	ecx, 4
	shl	ecx, 1
	movss	xmm0, DWORD PTR __real@bf800000
	movss	DWORD PTR [eax+ecx], xmm0

; 666  : 	}
; 667  : 	else

	jmp	$LN3@R_Transfor
$LN2@R_Transfor:

; 668  : 	{
; 669  : 		scale = 1.0f / clip[3];

	lea	ecx, DWORD PTR _clip$[ebp]
	call	??BVector4D@@QAEPAMXZ			; Vector4D::operator float *
	mov	ecx, 4
	imul	edx, ecx, 3
	movss	xmm0, DWORD PTR __real@3f800000
	divss	xmm0, DWORD PTR [eax+edx]
	movss	DWORD PTR _scale$[ebp], xmm0

; 670  : 		ndc[0] = clip[0] * scale;

	lea	ecx, DWORD PTR _clip$[ebp]
	call	??BVector4D@@QAEPAMXZ			; Vector4D::operator float *
	mov	ecx, 4
	imul	edx, ecx, 0
	movss	xmm0, DWORD PTR [eax+edx]
	mulss	xmm0, DWORD PTR _scale$[ebp]
	mov	ecx, DWORD PTR _ndc$[ebp]
	movss	DWORD PTR tv498[ebp], xmm0
	call	??BVector@@QAEPAMXZ			; Vector::operator float *
	mov	ecx, 4
	imul	edx, ecx, 0
	movss	xmm0, DWORD PTR tv498[ebp]
	movss	DWORD PTR [eax+edx], xmm0

; 671  : 		ndc[1] = clip[1] * scale;

	lea	ecx, DWORD PTR _clip$[ebp]
	call	??BVector4D@@QAEPAMXZ			; Vector4D::operator float *
	mov	ecx, 4
	shl	ecx, 0
	movss	xmm0, DWORD PTR [eax+ecx]
	mulss	xmm0, DWORD PTR _scale$[ebp]
	mov	ecx, DWORD PTR _ndc$[ebp]
	movss	DWORD PTR tv500[ebp], xmm0
	call	??BVector@@QAEPAMXZ			; Vector::operator float *
	mov	edx, 4
	shl	edx, 0
	movss	xmm0, DWORD PTR tv500[ebp]
	movss	DWORD PTR [eax+edx], xmm0

; 672  : 		ndc[2] = clip[2] * scale;

	lea	ecx, DWORD PTR _clip$[ebp]
	call	??BVector4D@@QAEPAMXZ			; Vector4D::operator float *
	mov	ecx, 4
	shl	ecx, 1
	movss	xmm0, DWORD PTR [eax+ecx]
	mulss	xmm0, DWORD PTR _scale$[ebp]
	mov	ecx, DWORD PTR _ndc$[ebp]
	movss	DWORD PTR tv502[ebp], xmm0
	call	??BVector@@QAEPAMXZ			; Vector::operator float *
	mov	edx, 4
	shl	edx, 1
	movss	xmm0, DWORD PTR tv502[ebp]
	movss	DWORD PTR [eax+edx], xmm0
$LN3@R_Transfor:

; 673  : 	}
; 674  : }

	pop	edi
	pop	esi
	pop	ebx
	mov	esp, ebp
	pop	ebp
	ret	0
?R_TransformWorldToDevice@@YAXABVVector@@AAV1@@Z ENDP	; R_TransformWorldToDevice
_TEXT	ENDS
; Function compile flags: /Odtp /ZI
; File d:\!diffusion 2020\source code 2022\client-server\client\utils.cpp
;	COMDAT ?R_AABBToScreen@@YA_NABVVector@@0AAVVector2D@@1PAUwrect_s@@@Z
_TEXT	SEGMENT
$T1 = -212						; size = 8
$T2 = -204						; size = 8
$T3 = -196						; size = 8
$T4 = -188						; size = 8
_bbox$ = -116						; size = 96
_h$ = -20						; size = 4
_w$ = -16						; size = 4
_y$ = -12						; size = 4
_x$ = -8						; size = 4
__$ArrayPad$ = -4					; size = 4
_absmin$ = 8						; size = 4
_absmax$ = 12						; size = 4
_scrmin$ = 16						; size = 4
_scrmax$ = 20						; size = 4
_rect$ = 24						; size = 4
?R_AABBToScreen@@YA_NABVVector@@0AAVVector2D@@1PAUwrect_s@@@Z PROC ; R_AABBToScreen, COMDAT

; 799  : {

	push	ebp
	mov	ebp, esp
	sub	esp, 212				; 000000d4H
	mov	eax, DWORD PTR ___security_cookie
	xor	eax, ebp
	mov	DWORD PTR __$ArrayPad$[ebp], eax
	push	ebx
	push	esi
	push	edi

; 800  : 	float x, y, w, h;
; 801  : 	Vector bbox[8];

	push	OFFSET ??0Vector@@QAE@XZ		; Vector::Vector
	push	8
	push	12					; 0000000cH
	lea	eax, DWORD PTR _bbox$[ebp]
	push	eax
	call	??_H@YGXPAXIIP6EPAX0@Z@Z

; 802  : 
; 803  : 	R_BoundsForAABB( absmin, absmax, bbox );

	lea	eax, DWORD PTR _bbox$[ebp]
	push	eax
	mov	ecx, DWORD PTR _absmax$[ebp]
	push	ecx
	mov	edx, DWORD PTR _absmin$[ebp]
	push	edx
	call	?R_BoundsForAABB@@YAXABVVector@@0QAV1@@Z ; R_BoundsForAABB
	add	esp, 12					; 0000000cH

; 804  : 	ClearBounds( scrmin, scrmax );

	mov	eax, DWORD PTR _scrmax$[ebp]
	push	eax
	mov	ecx, DWORD PTR _scrmin$[ebp]
	push	ecx
	call	?ClearBounds@@YAXAAVVector2D@@0@Z	; ClearBounds
	add	esp, 8

; 805  : 
; 806  : 	if( !R_ScissorForBounds( bbox, &x, &y, &w, &h ))

	lea	eax, DWORD PTR _h$[ebp]
	push	eax
	lea	ecx, DWORD PTR _w$[ebp]
	push	ecx
	lea	edx, DWORD PTR _y$[ebp]
	push	edx
	lea	eax, DWORD PTR _x$[ebp]
	push	eax
	lea	ecx, DWORD PTR _bbox$[ebp]
	push	ecx
	call	?R_ScissorForBounds@@YA_NQBVVector@@PAM111@Z ; R_ScissorForBounds
	add	esp, 20					; 00000014H
	movzx	edx, al
	test	edx, edx
	jne	SHORT $LN2@R_AABBToSc

; 807  : 	{
; 808  : 		if( rect ) memset( rect, 0, sizeof( *rect ));

	cmp	DWORD PTR _rect$[ebp], 0
	je	SHORT $LN3@R_AABBToSc
	push	16					; 00000010H
	push	0
	mov	eax, DWORD PTR _rect$[ebp]
	push	eax
	call	_memset
	add	esp, 12					; 0000000cH
$LN3@R_AABBToSc:

; 809  : 		return false;

	xor	al, al
	jmp	$LN1@R_AABBToSc
$LN2@R_AABBToSc:

; 810  :           }
; 811  : 
; 812  : 	// copy rectangle
; 813  : 	if( rect )

	cmp	DWORD PTR _rect$[ebp], 0
	je	SHORT $LN4@R_AABBToSc

; 814  : 	{
; 815  : 		rect->left = x;

	cvttss2si eax, DWORD PTR _x$[ebp]
	mov	ecx, DWORD PTR _rect$[ebp]
	mov	DWORD PTR [ecx], eax

; 816  : 		rect->right = RI->viewport[3] - h - y; // left bottom corner

	mov	eax, 4
	imul	ecx, eax, 3
	mov	edx, DWORD PTR ?RI@@3PAUref_instance_t@@A ; RI
	cvtsi2ss xmm0, DWORD PTR [edx+ecx+32]
	subss	xmm0, DWORD PTR _h$[ebp]
	subss	xmm0, DWORD PTR _y$[ebp]
	cvttss2si eax, xmm0
	mov	ecx, DWORD PTR _rect$[ebp]
	mov	DWORD PTR [ecx+4], eax

; 817  : 		rect->top = w;

	cvttss2si eax, DWORD PTR _w$[ebp]
	mov	ecx, DWORD PTR _rect$[ebp]
	mov	DWORD PTR [ecx+8], eax

; 818  : 		rect->bottom = h;

	cvttss2si eax, DWORD PTR _h$[ebp]
	mov	ecx, DWORD PTR _rect$[ebp]
	mov	DWORD PTR [ecx+12], eax
$LN4@R_AABBToSc:

; 819  : 	}
; 820  : 
; 821  : 	// compute a bounding box
; 822  : 	AddPointToBounds( Vector2D( x, y ), scrmin, scrmax );

	mov	eax, DWORD PTR _scrmax$[ebp]
	push	eax
	mov	ecx, DWORD PTR _scrmin$[ebp]
	push	ecx
	push	ecx
	movss	xmm0, DWORD PTR _y$[ebp]
	movss	DWORD PTR [esp], xmm0
	push	ecx
	movss	xmm0, DWORD PTR _x$[ebp]
	movss	DWORD PTR [esp], xmm0
	lea	ecx, DWORD PTR $T4[ebp]
	call	??0Vector2D@@QAE@MM@Z			; Vector2D::Vector2D
	push	eax
	call	?AddPointToBounds@@YAXABVVector2D@@AAV1@1@Z ; AddPointToBounds
	add	esp, 12					; 0000000cH

; 823  : 	AddPointToBounds( Vector2D( x + w, y ), scrmin, scrmax );

	mov	eax, DWORD PTR _scrmax$[ebp]
	push	eax
	mov	ecx, DWORD PTR _scrmin$[ebp]
	push	ecx
	push	ecx
	movss	xmm0, DWORD PTR _y$[ebp]
	movss	DWORD PTR [esp], xmm0
	movss	xmm0, DWORD PTR _x$[ebp]
	addss	xmm0, DWORD PTR _w$[ebp]
	push	ecx
	movss	DWORD PTR [esp], xmm0
	lea	ecx, DWORD PTR $T3[ebp]
	call	??0Vector2D@@QAE@MM@Z			; Vector2D::Vector2D
	push	eax
	call	?AddPointToBounds@@YAXABVVector2D@@AAV1@1@Z ; AddPointToBounds
	add	esp, 12					; 0000000cH

; 824  : 	AddPointToBounds( Vector2D( x, y + h ), scrmin, scrmax );

	mov	eax, DWORD PTR _scrmax$[ebp]
	push	eax
	mov	ecx, DWORD PTR _scrmin$[ebp]
	push	ecx
	movss	xmm0, DWORD PTR _y$[ebp]
	addss	xmm0, DWORD PTR _h$[ebp]
	push	ecx
	movss	DWORD PTR [esp], xmm0
	push	ecx
	movss	xmm0, DWORD PTR _x$[ebp]
	movss	DWORD PTR [esp], xmm0
	lea	ecx, DWORD PTR $T2[ebp]
	call	??0Vector2D@@QAE@MM@Z			; Vector2D::Vector2D
	push	eax
	call	?AddPointToBounds@@YAXABVVector2D@@AAV1@1@Z ; AddPointToBounds
	add	esp, 12					; 0000000cH

; 825  : 	AddPointToBounds( Vector2D( x + w, y + h ), scrmin, scrmax );

	mov	eax, DWORD PTR _scrmax$[ebp]
	push	eax
	mov	ecx, DWORD PTR _scrmin$[ebp]
	push	ecx
	movss	xmm0, DWORD PTR _y$[ebp]
	addss	xmm0, DWORD PTR _h$[ebp]
	push	ecx
	movss	DWORD PTR [esp], xmm0
	movss	xmm0, DWORD PTR _x$[ebp]
	addss	xmm0, DWORD PTR _w$[ebp]
	push	ecx
	movss	DWORD PTR [esp], xmm0
	lea	ecx, DWORD PTR $T1[ebp]
	call	??0Vector2D@@QAE@MM@Z			; Vector2D::Vector2D
	push	eax
	call	?AddPointToBounds@@YAXABVVector2D@@AAV1@1@Z ; AddPointToBounds
	add	esp, 12					; 0000000cH

; 826  : 
; 827  : 	return true;

	mov	al, 1
$LN1@R_AABBToSc:

; 828  : }

	pop	edi
	pop	esi
	pop	ebx
	mov	ecx, DWORD PTR __$ArrayPad$[ebp]
	xor	ecx, ebp
	call	@__security_check_cookie@4
	mov	esp, ebp
	pop	ebp
	ret	0
?R_AABBToScreen@@YA_NABVVector@@0AAVVector2D@@1PAUwrect_s@@@Z ENDP ; R_AABBToScreen
_TEXT	ENDS
; Function compile flags: /Odtp /ZI
; File d:\!diffusion 2020\source code 2022\client-server\client\utils.cpp
;	COMDAT ?R_ScissorForCorners@@YA_NQBVVector@@PAM111@Z
_TEXT	SEGMENT
_bbox$ = 8						; size = 4
_x$ = 12						; size = 4
_y$ = 16						; size = 4
_w$ = 20						; size = 4
_h$ = 24						; size = 4
?R_ScissorForCorners@@YA_NQBVVector@@PAM111@Z PROC	; R_ScissorForCorners, COMDAT

; 794  : {

	push	ebp
	mov	ebp, esp
	sub	esp, 64					; 00000040H
	push	ebx
	push	esi
	push	edi

; 795  : 	return R_ScissorForBounds( bbox, x, y, w, h );

	mov	eax, DWORD PTR _h$[ebp]
	push	eax
	mov	ecx, DWORD PTR _w$[ebp]
	push	ecx
	mov	edx, DWORD PTR _y$[ebp]
	push	edx
	mov	eax, DWORD PTR _x$[ebp]
	push	eax
	mov	ecx, DWORD PTR _bbox$[ebp]
	push	ecx
	call	?R_ScissorForBounds@@YA_NQBVVector@@PAM111@Z ; R_ScissorForBounds
	add	esp, 20					; 00000014H

; 796  : }

	pop	edi
	pop	esi
	pop	ebx
	mov	esp, ebp
	pop	ebp
	ret	0
?R_ScissorForCorners@@YA_NQBVVector@@PAM111@Z ENDP	; R_ScissorForCorners
_TEXT	ENDS
; Function compile flags: /Odtp /ZI
; File d:\!diffusion 2020\source code 2022\client-server\client\utils.cpp
;	COMDAT ?R_ScissorForAABB@@YA_NABVVector@@0PAM111@Z
_TEXT	SEGMENT
_bbox$ = -100						; size = 96
__$ArrayPad$ = -4					; size = 4
_absmin$ = 8						; size = 4
_absmax$ = 12						; size = 4
_x$ = 16						; size = 4
_y$ = 20						; size = 4
_w$ = 24						; size = 4
_h$ = 28						; size = 4
?R_ScissorForAABB@@YA_NABVVector@@0PAM111@Z PROC	; R_ScissorForAABB, COMDAT

; 785  : {

	push	ebp
	mov	ebp, esp
	sub	esp, 164				; 000000a4H
	mov	eax, DWORD PTR ___security_cookie
	xor	eax, ebp
	mov	DWORD PTR __$ArrayPad$[ebp], eax
	push	ebx
	push	esi
	push	edi

; 786  : 	Vector bbox[8];

	push	OFFSET ??0Vector@@QAE@XZ		; Vector::Vector
	push	8
	push	12					; 0000000cH
	lea	eax, DWORD PTR _bbox$[ebp]
	push	eax
	call	??_H@YGXPAXIIP6EPAX0@Z@Z

; 787  : 
; 788  : 	R_BoundsForAABB( absmin, absmax, bbox );

	lea	eax, DWORD PTR _bbox$[ebp]
	push	eax
	mov	ecx, DWORD PTR _absmax$[ebp]
	push	ecx
	mov	edx, DWORD PTR _absmin$[ebp]
	push	edx
	call	?R_BoundsForAABB@@YAXABVVector@@0QAV1@@Z ; R_BoundsForAABB
	add	esp, 12					; 0000000cH

; 789  : 
; 790  : 	return R_ScissorForBounds( bbox, x, y, w, h );

	mov	eax, DWORD PTR _h$[ebp]
	push	eax
	mov	ecx, DWORD PTR _w$[ebp]
	push	ecx
	mov	edx, DWORD PTR _y$[ebp]
	push	edx
	mov	eax, DWORD PTR _x$[ebp]
	push	eax
	lea	ecx, DWORD PTR _bbox$[ebp]
	push	ecx
	call	?R_ScissorForBounds@@YA_NQBVVector@@PAM111@Z ; R_ScissorForBounds
	add	esp, 20					; 00000014H

; 791  : }

	pop	edi
	pop	esi
	pop	ebx
	mov	ecx, DWORD PTR __$ArrayPad$[ebp]
	xor	ecx, ebp
	call	@__security_check_cookie@4
	mov	esp, ebp
	pop	ebp
	ret	0
?R_ScissorForAABB@@YA_NABVVector@@0PAM111@Z ENDP	; R_ScissorForAABB
_TEXT	ENDS
; Function compile flags: /Odtp /ZI
; File d:\!diffusion 2020\source code 2022\client-server\client\utils.cpp
;	COMDAT ?Mod_GetType@@YAHH@Z
_TEXT	SEGMENT
_m_pModel$ = -4						; size = 4
_modelIndex$ = 8					; size = 4
?Mod_GetType@@YAHH@Z PROC				; Mod_GetType, COMDAT

; 424  : {

	push	ebp
	mov	ebp, esp
	sub	esp, 68					; 00000044H
	push	ebx
	push	esi
	push	edi

; 425  : 	model_t 	*m_pModel;
; 426  : 
; 427  : 	m_pModel = IEngineStudio.GetModelByIndex( modelIndex );

	mov	eax, DWORD PTR _modelIndex$[ebp]
	push	eax
	call	DWORD PTR ?IEngineStudio@@3Uengine_studio_api_s@@A+20
	add	esp, 4
	mov	DWORD PTR _m_pModel$[ebp], eax

; 428  : 	if( m_pModel == NULL )

	cmp	DWORD PTR _m_pModel$[ebp], 0
	jne	SHORT $LN2@Mod_GetTyp

; 429  : 		return mod_bad;

	or	eax, -1
	jmp	SHORT $LN1@Mod_GetTyp
$LN2@Mod_GetTyp:

; 430  : 
; 431  : 	return m_pModel->type;

	mov	eax, DWORD PTR _m_pModel$[ebp]
	mov	eax, DWORD PTR [eax+68]
$LN1@Mod_GetTyp:

; 432  : }

	pop	edi
	pop	esi
	pop	ebx
	mov	esp, ebp
	pop	ebp
	ret	0
?Mod_GetType@@YAHH@Z ENDP				; Mod_GetType
_TEXT	ENDS
; Function compile flags: /Odtp /ZI
; File d:\!diffusion 2020\source code 2022\client-server\client\utils.cpp
;	COMDAT ?Mod_GetFrames@@YAXHAAH@Z
_TEXT	SEGMENT
_m_pModel$ = -4						; size = 4
_modelIndex$ = 8					; size = 4
_numFrames$ = 12					; size = 4
?Mod_GetFrames@@YAXHAAH@Z PROC				; Mod_GetFrames, COMDAT

; 440  : {

	push	ebp
	mov	ebp, esp
	sub	esp, 68					; 00000044H
	push	ebx
	push	esi
	push	edi

; 441  : 	model_t 	*m_pModel;
; 442  : 
; 443  : 	m_pModel = IEngineStudio.GetModelByIndex( modelIndex );

	mov	eax, DWORD PTR _modelIndex$[ebp]
	push	eax
	call	DWORD PTR ?IEngineStudio@@3Uengine_studio_api_s@@A+20
	add	esp, 4
	mov	DWORD PTR _m_pModel$[ebp], eax

; 444  : 
; 445  : 	if( !m_pModel )

	cmp	DWORD PTR _m_pModel$[ebp], 0
	jne	SHORT $LN2@Mod_GetFra

; 446  : 	{
; 447  : 		numFrames = 1;

	mov	eax, DWORD PTR _numFrames$[ebp]
	mov	DWORD PTR [eax], 1

; 448  : 		return;

	jmp	SHORT $LN1@Mod_GetFra
$LN2@Mod_GetFra:

; 449  : 	}
; 450  : 
; 451  : 	numFrames = m_pModel->numframes;

	mov	eax, DWORD PTR _numFrames$[ebp]
	mov	ecx, DWORD PTR _m_pModel$[ebp]
	mov	edx, DWORD PTR [ecx+72]
	mov	DWORD PTR [eax], edx

; 452  : 	if( numFrames < 1 ) numFrames = 1;

	mov	eax, DWORD PTR _numFrames$[ebp]
	cmp	DWORD PTR [eax], 1
	jge	SHORT $LN1@Mod_GetFra
	mov	eax, DWORD PTR _numFrames$[ebp]
	mov	DWORD PTR [eax], 1
$LN1@Mod_GetFra:

; 453  : }

	pop	edi
	pop	esi
	pop	ebx
	mov	esp, ebp
	pop	ebp
	ret	0
?Mod_GetFrames@@YAXHAAH@Z ENDP				; Mod_GetFrames
_TEXT	ENDS
; Function compile flags: /Odtp /ZI
; File d:\!diffusion 2020\source code 2022\client-server\client\utils.cpp
;	COMDAT ?Mod_CheckBoxVisible@@YA_NABVVector@@0@Z
_TEXT	SEGMENT
_absmin$ = 8						; size = 4
_absmax$ = 12						; size = 4
?Mod_CheckBoxVisible@@YA_NABVVector@@0@Z PROC		; Mod_CheckBoxVisible, COMDAT

; 391  : {

	push	ebp
	mov	ebp, esp
	sub	esp, 72					; 00000048H
	push	ebx
	push	esi
	push	edi

; 392  : 	return Mod_BoxVisible( absmin, absmax, Mod_GetCurrentVis( ));

	call	?Mod_GetCurrentVis@@YAPAEXZ		; Mod_GetCurrentVis
	push	eax
	sub	esp, 12					; 0000000cH
	mov	ecx, esp
	mov	eax, DWORD PTR _absmax$[ebp]
	push	eax
	call	??0Vector@@QAE@ABV0@@Z			; Vector::Vector
	sub	esp, 12					; 0000000cH
	mov	ecx, esp
	mov	edx, DWORD PTR _absmin$[ebp]
	push	edx
	call	??0Vector@@QAE@ABV0@@Z			; Vector::Vector
	call	?Mod_BoxVisible@@YA_NVVector@@0PBE@Z	; Mod_BoxVisible
	add	esp, 28					; 0000001cH

; 393  : }

	pop	edi
	pop	esi
	pop	ebx
	mov	esp, ebp
	pop	ebp
	ret	0
?Mod_CheckBoxVisible@@YA_NABVVector@@0@Z ENDP		; Mod_CheckBoxVisible
_TEXT	ENDS
; Function compile flags: /Odtp /ZI
; File d:\!diffusion 2020\source code 2022\client-server\client\utils.cpp
;	COMDAT ?Mod_CheckEntityLeafPVS@@YA_NABVVector@@0PAUmleaf_s@@@Z
_TEXT	SEGMENT
_absmin$ = 8						; size = 4
_absmax$ = 12						; size = 4
_leaf$ = 16						; size = 4
?Mod_CheckEntityLeafPVS@@YA_NABVVector@@0PAUmleaf_s@@@Z PROC ; Mod_CheckEntityLeafPVS, COMDAT

; 409  : {

	push	ebp
	mov	ebp, esp
	sub	esp, 72					; 00000048H
	push	ebx
	push	esi
	push	edi

; 410  : 	return Mod_BoxVisible( absmin, absmax, Mod_LeafPVS( leaf, worldmodel ));

	mov	eax, DWORD PTR ?worldmodel@@3PAUmodel_s@@A ; worldmodel
	push	eax
	mov	ecx, DWORD PTR _leaf$[ebp]
	push	ecx
	call	?Mod_LeafPVS@@YAPAEPAUmleaf_s@@PAUmodel_s@@@Z ; Mod_LeafPVS
	add	esp, 8
	push	eax
	sub	esp, 12					; 0000000cH
	mov	ecx, esp
	mov	edx, DWORD PTR _absmax$[ebp]
	push	edx
	call	??0Vector@@QAE@ABV0@@Z			; Vector::Vector
	sub	esp, 12					; 0000000cH
	mov	ecx, esp
	mov	eax, DWORD PTR _absmin$[ebp]
	push	eax
	call	??0Vector@@QAE@ABV0@@Z			; Vector::Vector
	call	?Mod_BoxVisible@@YA_NVVector@@0PBE@Z	; Mod_BoxVisible
	add	esp, 28					; 0000001cH

; 411  : }

	pop	edi
	pop	esi
	pop	ebx
	mov	esp, ebp
	pop	ebp
	ret	0
?Mod_CheckEntityLeafPVS@@YA_NABVVector@@0PAUmleaf_s@@@Z ENDP ; Mod_CheckEntityLeafPVS
_TEXT	ENDS
; Function compile flags: /Odtp /ZI
; File d:\!diffusion 2020\source code 2022\client-server\client\utils.cpp
;	COMDAT ?Mod_CheckTempEntityPVS@@YA_NPAUtempent_s@@@Z
_TEXT	SEGMENT
_maxs$ = -24						; size = 12
_mins$ = -12						; size = 12
_pTemp$ = 8						; size = 4
?Mod_CheckTempEntityPVS@@YA_NPAUtempent_s@@@Z PROC	; Mod_CheckTempEntityPVS, COMDAT

; 414  : {

	push	ebp
	mov	ebp, esp
	sub	esp, 96					; 00000060H
	push	ebx
	push	esi
	push	edi

; 415  : 	if( !pTemp ) return false; // not exist on the client

	cmp	DWORD PTR _pTemp$[ebp], 0
	jne	SHORT $LN2@Mod_CheckT
	xor	al, al
	jmp	SHORT $LN1@Mod_CheckT
$LN2@Mod_CheckT:

; 416  : 
; 417  : 	Vector mins = pTemp->entity.curstate.origin + pTemp->entity.curstate.mins;

	mov	eax, DWORD PTR _pTemp$[ebp]
	add	eax, 880				; 00000370H
	push	eax
	lea	ecx, DWORD PTR _mins$[ebp]
	push	ecx
	mov	ecx, DWORD PTR _pTemp$[ebp]
	add	ecx, 772				; 00000304H
	call	??HVector@@QBE?AV0@ABV0@@Z		; Vector::operator+

; 418  : 	Vector maxs = pTemp->entity.curstate.origin + pTemp->entity.curstate.maxs;

	mov	eax, DWORD PTR _pTemp$[ebp]
	add	eax, 892				; 0000037cH
	push	eax
	lea	ecx, DWORD PTR _maxs$[ebp]
	push	ecx
	mov	ecx, DWORD PTR _pTemp$[ebp]
	add	ecx, 772				; 00000304H
	call	??HVector@@QBE?AV0@ABV0@@Z		; Vector::operator+

; 419  : 
; 420  : 	return Mod_BoxVisible( mins, maxs, Mod_GetCurrentVis( ));

	call	?Mod_GetCurrentVis@@YAPAEXZ		; Mod_GetCurrentVis
	push	eax
	sub	esp, 12					; 0000000cH
	mov	ecx, esp
	lea	eax, DWORD PTR _maxs$[ebp]
	push	eax
	call	??0Vector@@QAE@ABV0@@Z			; Vector::Vector
	sub	esp, 12					; 0000000cH
	mov	ecx, esp
	lea	edx, DWORD PTR _mins$[ebp]
	push	edx
	call	??0Vector@@QAE@ABV0@@Z			; Vector::Vector
	call	?Mod_BoxVisible@@YA_NVVector@@0PBE@Z	; Mod_BoxVisible
	add	esp, 28					; 0000001cH
$LN1@Mod_CheckT:

; 421  : }

	pop	edi
	pop	esi
	pop	ebx
	mov	esp, ebp
	pop	ebp
	ret	0
?Mod_CheckTempEntityPVS@@YA_NPAUtempent_s@@@Z ENDP	; Mod_CheckTempEntityPVS
_TEXT	ENDS
; Function compile flags: /Odtp /ZI
; File d:\!diffusion 2020\source code 2022\client-server\client\utils.cpp
;	COMDAT ?Mod_CheckEntityPVS@@YA_NPAUcl_entity_s@@@Z
_TEXT	SEGMENT
_maxs$ = -24						; size = 12
_mins$ = -12						; size = 12
_ent$ = 8						; size = 4
?Mod_CheckEntityPVS@@YA_NPAUcl_entity_s@@@Z PROC	; Mod_CheckEntityPVS, COMDAT

; 396  : {

	push	ebp
	mov	ebp, esp
	sub	esp, 96					; 00000060H
	push	ebx
	push	esi
	push	edi

; 397  : 	if( !ent ) return false; // bad entity?

	cmp	DWORD PTR _ent$[ebp], 0
	jne	SHORT $LN2@Mod_CheckE
	xor	al, al
	jmp	SHORT $LN1@Mod_CheckE
$LN2@Mod_CheckE:

; 398  : 
; 399  : 	if( ent->curstate.messagenum != r_currentMessageNum )

	mov	eax, DWORD PTR _ent$[ebp]
	mov	ecx, DWORD PTR [eax+700]
	cmp	ecx, DWORD PTR ?r_currentMessageNum@@3HA ; r_currentMessageNum
	je	SHORT $LN3@Mod_CheckE

; 400  : 		return false; // already culled by server

	xor	al, al
	jmp	SHORT $LN1@Mod_CheckE
$LN3@Mod_CheckE:

; 401  : 
; 402  : 	Vector mins = ent->curstate.origin + ent->curstate.mins;

	mov	eax, DWORD PTR _ent$[ebp]
	add	eax, 812				; 0000032cH
	push	eax
	lea	ecx, DWORD PTR _mins$[ebp]
	push	ecx
	mov	ecx, DWORD PTR _ent$[ebp]
	add	ecx, 704				; 000002c0H
	call	??HVector@@QBE?AV0@ABV0@@Z		; Vector::operator+

; 403  : 	Vector maxs = ent->curstate.origin + ent->curstate.maxs;

	mov	eax, DWORD PTR _ent$[ebp]
	add	eax, 824				; 00000338H
	push	eax
	lea	ecx, DWORD PTR _maxs$[ebp]
	push	ecx
	mov	ecx, DWORD PTR _ent$[ebp]
	add	ecx, 704				; 000002c0H
	call	??HVector@@QBE?AV0@ABV0@@Z		; Vector::operator+

; 404  : 
; 405  : 	return Mod_BoxVisible( mins, maxs, Mod_GetCurrentVis( ));

	call	?Mod_GetCurrentVis@@YAPAEXZ		; Mod_GetCurrentVis
	push	eax
	sub	esp, 12					; 0000000cH
	mov	ecx, esp
	lea	eax, DWORD PTR _maxs$[ebp]
	push	eax
	call	??0Vector@@QAE@ABV0@@Z			; Vector::Vector
	sub	esp, 12					; 0000000cH
	mov	ecx, esp
	lea	edx, DWORD PTR _mins$[ebp]
	push	edx
	call	??0Vector@@QAE@ABV0@@Z			; Vector::Vector
	call	?Mod_BoxVisible@@YA_NVVector@@0PBE@Z	; Mod_BoxVisible
	add	esp, 28					; 0000001cH
$LN1@Mod_CheckE:

; 406  : }

	pop	edi
	pop	esi
	pop	ebx
	mov	esp, ebp
	pop	ebp
	ret	0
?Mod_CheckEntityPVS@@YA_NPAUcl_entity_s@@@Z ENDP	; Mod_CheckEntityPVS
_TEXT	ENDS
; Function compile flags: /Odtp /ZI
; File d:\!diffusion 2020\source code 2022\client-server\client\utils.cpp
;	COMDAT ?Mod_BoxVisible@@YA_NVVector@@0PBE@Z
_TEXT	SEGMENT
tv130 = -4625						; size = 1
_count$ = -4112						; size = 4
_i$ = -4108						; size = 4
_headnode$ = -4104					; size = 4
_leafList$ = -4100					; size = 4096
__$ArrayPad$ = -4					; size = 4
_mins$ = 8						; size = 12
_maxs$ = 20						; size = 12
_visbits$ = 32						; size = 4
?Mod_BoxVisible@@YA_NVVector@@0PBE@Z PROC		; Mod_BoxVisible, COMDAT

; 281  : {

	push	ebp
	mov	ebp, esp
	mov	eax, 4628				; 00001214H
	call	__chkstk
	mov	eax, DWORD PTR ___security_cookie
	xor	eax, ebp
	mov	DWORD PTR __$ArrayPad$[ebp], eax
	push	ebx
	push	esi
	push	edi

; 282  : 	short	leafList[2048];
; 283  : 	mnode_t	*headnode;
; 284  : 	int	i, count;
; 285  : 
; 286  : 	if( !visbits || !mins || !maxs )

	cmp	DWORD PTR _visbits$[ebp], 0
	je	SHORT $LN6@Mod_BoxVis
	lea	ecx, DWORD PTR _mins$[ebp]
	call	??BVector@@QBEPBMXZ			; Vector::operator float const *
	test	eax, eax
	je	SHORT $LN6@Mod_BoxVis
	lea	ecx, DWORD PTR _maxs$[ebp]
	call	??BVector@@QBEPBMXZ			; Vector::operator float const *
	test	eax, eax
	jne	SHORT $LN5@Mod_BoxVis
$LN6@Mod_BoxVis:

; 287  : 		return true;

	mov	al, 1
	jmp	$LN1@Mod_BoxVis
$LN5@Mod_BoxVis:

; 288  : 
; 289  : 	count = Mod_BoxLeafnums( mins, maxs, leafList, SIZEOFARRAY( leafList ), &headnode );

	lea	eax, DWORD PTR _headnode$[ebp]
	push	eax
	push	2048					; 00000800H
	lea	ecx, DWORD PTR _leafList$[ebp]
	push	ecx
	lea	edx, DWORD PTR _maxs$[ebp]
	push	edx
	lea	eax, DWORD PTR _mins$[ebp]
	push	eax
	call	?Mod_BoxLeafnums@@YAHABVVector@@0PAFHPAPAUmnode_s@@@Z ; Mod_BoxLeafnums
	add	esp, 20					; 00000014H
	mov	DWORD PTR _count$[ebp], eax

; 290  : 
; 291  : 	if( count < SIZEOFARRAY( leafList ))

	cmp	DWORD PTR _count$[ebp], 2048		; 00000800H
	jae	SHORT $LN7@Mod_BoxVis

; 292  : 		headnode = NULL; // ignore headnode if we not overflowed

	mov	DWORD PTR _headnode$[ebp], 0
$LN7@Mod_BoxVis:

; 293  : 
; 294  : 	for( i = 0; i < count; i++ )

	mov	DWORD PTR _i$[ebp], 0
	jmp	SHORT $LN4@Mod_BoxVis
$LN2@Mod_BoxVis:
	mov	eax, DWORD PTR _i$[ebp]
	add	eax, 1
	mov	DWORD PTR _i$[ebp], eax
$LN4@Mod_BoxVis:
	mov	eax, DWORD PTR _i$[ebp]
	cmp	eax, DWORD PTR _count$[ebp]
	jge	SHORT $LN3@Mod_BoxVis

; 295  : 	{
; 296  : 		if( CHECKVISBIT( visbits, leafList[i] ))

	mov	eax, DWORD PTR _i$[ebp]
	movsx	ecx, WORD PTR _leafList$[ebp+eax*2]
	test	ecx, ecx
	jl	SHORT $LN11@Mod_BoxVis
	mov	edx, DWORD PTR _i$[ebp]
	movsx	eax, WORD PTR _leafList$[ebp+edx*2]
	sar	eax, 3
	mov	ecx, DWORD PTR _visbits$[ebp]
	movzx	edx, BYTE PTR [ecx+eax]
	mov	eax, DWORD PTR _i$[ebp]
	movsx	ecx, WORD PTR _leafList$[ebp+eax*2]
	and	ecx, 7
	mov	eax, 1
	shl	eax, cl
	and	edx, eax
	mov	BYTE PTR tv130[ebp], dl
	jmp	SHORT $LN12@Mod_BoxVis
$LN11@Mod_BoxVis:
	mov	BYTE PTR tv130[ebp], 0
$LN12@Mod_BoxVis:
	movzx	ecx, BYTE PTR tv130[ebp]
	test	ecx, ecx
	je	SHORT $LN8@Mod_BoxVis

; 297  : 			return true;

	mov	al, 1
	jmp	SHORT $LN1@Mod_BoxVis
$LN8@Mod_BoxVis:

; 298  : 	}

	jmp	$LN2@Mod_BoxVis
$LN3@Mod_BoxVis:

; 299  : 
; 300  : 	if( Mod_HeadnodeVisible( headnode, visbits ))

	mov	eax, DWORD PTR _visbits$[ebp]
	push	eax
	mov	ecx, DWORD PTR _headnode$[ebp]
	push	ecx
	call	?Mod_HeadnodeVisible@@YA_NPAUmnode_s@@PBE@Z ; Mod_HeadnodeVisible
	add	esp, 8
	movzx	edx, al
	test	edx, edx
	je	SHORT $LN9@Mod_BoxVis

; 301  : 		return true;

	mov	al, 1
	jmp	SHORT $LN1@Mod_BoxVis
$LN9@Mod_BoxVis:

; 302  : 
; 303  : 	return false;

	xor	al, al
$LN1@Mod_BoxVis:

; 304  : }

	pop	edi
	pop	esi
	pop	ebx
	mov	ecx, DWORD PTR __$ArrayPad$[ebp]
	xor	ecx, ebp
	call	@__security_check_cookie@4
	mov	esp, ebp
	pop	ebp
	ret	0
?Mod_BoxVisible@@YA_NVVector@@0PBE@Z ENDP		; Mod_BoxVisible
_TEXT	ENDS
; Function compile flags: /Odtp /ZI
; File d:\!diffusion 2020\source code 2022\client-server\client\utils.cpp
;	COMDAT ?Mod_PointInLeaf@@YAPAUmleaf_s@@VVector@@PAUmnode_s@@@Z
_TEXT	SEGMENT
tv89 = -72						; size = 4
tv84 = -68						; size = 4
_p$ = 8							; size = 12
_node$ = 20						; size = 4
?Mod_PointInLeaf@@YAPAUmleaf_s@@VVector@@PAUmnode_s@@@Z PROC ; Mod_PointInLeaf, COMDAT

; 367  : {

	push	ebp
	mov	ebp, esp
	sub	esp, 72					; 00000048H
	push	ebx
	push	esi
	push	edi
$LN2@Mod_PointI:

; 368  : 	while( 1 )

	mov	eax, 1
	test	eax, eax
	je	$LN3@Mod_PointI

; 369  : 	{
; 370  : 		if( node->contents < 0 )

	mov	eax, DWORD PTR _node$[ebp]
	cmp	DWORD PTR [eax], 0
	jge	SHORT $LN4@Mod_PointI

; 371  : 			return (mleaf_t *)node;

	mov	eax, DWORD PTR _node$[ebp]
	jmp	SHORT $LN1@Mod_PointI
$LN4@Mod_PointI:

; 372  : 		node = node->children[PlaneDiff( p, node->plane ) < 0];

	mov	eax, DWORD PTR _node$[ebp]
	mov	ecx, DWORD PTR [eax+36]
	movzx	edx, BYTE PTR [ecx+16]
	cmp	edx, 3
	jge	SHORT $LN6@Mod_PointI
	lea	ecx, DWORD PTR _p$[ebp]
	call	??BVector@@QAEPAMXZ			; Vector::operator float *
	mov	ecx, DWORD PTR _node$[ebp]
	mov	edx, DWORD PTR [ecx+36]
	movzx	ecx, BYTE PTR [edx+16]
	movss	xmm0, DWORD PTR [eax+ecx*4]
	movss	DWORD PTR tv84[ebp], xmm0
	jmp	SHORT $LN7@Mod_PointI
$LN6@Mod_PointI:
	mov	edx, DWORD PTR _node$[ebp]
	mov	eax, DWORD PTR [edx+36]
	push	eax
	lea	ecx, DWORD PTR _p$[ebp]
	push	ecx
	call	?DotProduct@@YAMABVVector@@0@Z		; DotProduct
	add	esp, 8
	fstp	DWORD PTR tv84[ebp]
$LN7@Mod_PointI:
	mov	edx, DWORD PTR _node$[ebp]
	mov	eax, DWORD PTR [edx+36]
	movss	xmm0, DWORD PTR tv84[ebp]
	subss	xmm0, DWORD PTR [eax+12]
	xorps	xmm1, xmm1
	comiss	xmm1, xmm0
	jbe	SHORT $LN8@Mod_PointI
	mov	DWORD PTR tv89[ebp], 1
	jmp	SHORT $LN9@Mod_PointI
$LN8@Mod_PointI:
	mov	DWORD PTR tv89[ebp], 0
$LN9@Mod_PointI:
	mov	ecx, DWORD PTR tv89[ebp]
	mov	edx, DWORD PTR _node$[ebp]
	mov	eax, DWORD PTR [edx+ecx*4+40]
	mov	DWORD PTR _node$[ebp], eax

; 373  : 	}

	jmp	$LN2@Mod_PointI
$LN3@Mod_PointI:

; 374  : 
; 375  : 	// never reached
; 376  : 	return NULL;

	xor	eax, eax
$LN1@Mod_PointI:

; 377  : }

	pop	edi
	pop	esi
	pop	ebx
	mov	esp, ebp
	pop	ebp
	ret	0
?Mod_PointInLeaf@@YAPAUmleaf_s@@VVector@@PAUmnode_s@@@Z ENDP ; Mod_PointInLeaf
_TEXT	ENDS
; Function compile flags: /Odtp /ZI
; File d:\!diffusion 2020\source code 2022\client-server\client\utils.cpp
;	COMDAT ?CL_UTIL_Approach@@YAMMMM@Z
_TEXT	SEGMENT
_delta$ = -4						; size = 4
_target$ = 8						; size = 4
_value$ = 12						; size = 4
_speed$ = 16						; size = 4
?CL_UTIL_Approach@@YAMMMM@Z PROC			; CL_UTIL_Approach, COMDAT

; 1085 : {

	push	ebp
	mov	ebp, esp
	sub	esp, 68					; 00000044H
	push	ebx
	push	esi
	push	edi

; 1086 : 	if( speed == 0.0f ) // diffusion

	movss	xmm0, DWORD PTR _speed$[ebp]
	ucomiss	xmm0, DWORD PTR __real@00000000
	lahf
	test	ah, 68					; 00000044H
	jp	SHORT $LN2@CL_UTIL_Ap

; 1087 : 		return target;

	fld	DWORD PTR _target$[ebp]
	jmp	SHORT $LN1@CL_UTIL_Ap
$LN2@CL_UTIL_Ap:

; 1088 : 
; 1089 : 	float delta = target - value;

	movss	xmm0, DWORD PTR _target$[ebp]
	subss	xmm0, DWORD PTR _value$[ebp]
	movss	DWORD PTR _delta$[ebp], xmm0

; 1090 : 
; 1091 : 	if( delta > speed )

	movss	xmm0, DWORD PTR _delta$[ebp]
	comiss	xmm0, DWORD PTR _speed$[ebp]
	jbe	SHORT $LN3@CL_UTIL_Ap

; 1092 : 		value += speed;

	movss	xmm0, DWORD PTR _value$[ebp]
	addss	xmm0, DWORD PTR _speed$[ebp]
	movss	DWORD PTR _value$[ebp], xmm0
	jmp	SHORT $LN6@CL_UTIL_Ap
$LN3@CL_UTIL_Ap:

; 1093 : 	else if( delta < -speed )

	movss	xmm0, DWORD PTR _speed$[ebp]
	xorps	xmm0, DWORD PTR __xmm@80000000800000008000000080000000
	comiss	xmm0, DWORD PTR _delta$[ebp]
	jbe	SHORT $LN5@CL_UTIL_Ap

; 1094 : 		value -= speed;

	movss	xmm0, DWORD PTR _value$[ebp]
	subss	xmm0, DWORD PTR _speed$[ebp]
	movss	DWORD PTR _value$[ebp], xmm0

; 1095 : 	else

	jmp	SHORT $LN6@CL_UTIL_Ap
$LN5@CL_UTIL_Ap:

; 1096 : 		value = target;

	movss	xmm0, DWORD PTR _target$[ebp]
	movss	DWORD PTR _value$[ebp], xmm0
$LN6@CL_UTIL_Ap:

; 1097 : 
; 1098 : 	return value;

	fld	DWORD PTR _value$[ebp]
$LN1@CL_UTIL_Ap:

; 1099 : }

	pop	edi
	pop	esi
	pop	ebx
	mov	esp, ebp
	pop	ebp
	ret	0
?CL_UTIL_Approach@@YAMMMM@Z ENDP			; CL_UTIL_Approach
_TEXT	ENDS
; Function compile flags: /Odtp /ZI
;	COMDAT ??0leaflist_s@@QAE@XZ
_TEXT	SEGMENT
_this$ = -4						; size = 4
??0leaflist_s@@QAE@XZ PROC				; leaflist_s::leaflist_s, COMDAT
; _this$ = ecx
	push	ebp
	mov	ebp, esp
	sub	esp, 68					; 00000044H
	push	ebx
	push	esi
	push	edi
	mov	DWORD PTR _this$[ebp], ecx
	mov	ecx, DWORD PTR _this$[ebp]
	add	ecx, 16					; 00000010H
	call	??0Vector@@QAE@XZ			; Vector::Vector
	mov	ecx, DWORD PTR _this$[ebp]
	add	ecx, 28					; 0000001cH
	call	??0Vector@@QAE@XZ			; Vector::Vector
	mov	eax, DWORD PTR _this$[ebp]
	pop	edi
	pop	esi
	pop	ebx
	mov	esp, ebp
	pop	ebp
	ret	0
??0leaflist_s@@QAE@XZ ENDP				; leaflist_s::leaflist_s
_TEXT	ENDS
; Function compile flags: /Odtp /ZI
; File d:\!diffusion 2020\source code 2022\client-server\client\utils.cpp
;	COMDAT ?LoadSprite@@YAHPBD@Z
_TEXT	SEGMENT
_i$ = -264						; size = 4
_sz$ = -260						; size = 256
__$ArrayPad$ = -4					; size = 4
_pszName$ = 8						; size = 4
?LoadSprite@@YAHPBD@Z PROC				; LoadSprite, COMDAT

; 133  : {

	push	ebp
	mov	ebp, esp
	sub	esp, 328				; 00000148H
	mov	eax, DWORD PTR ___security_cookie
	xor	eax, ebp
	mov	DWORD PTR __$ArrayPad$[ebp], eax
	push	ebx
	push	esi
	push	edi

; 134  : 	char sz[256]; 
; 135  : 	int i;
; 136  : 
; 137  : 	if( ScreenWidth < 640 )

	cmp	DWORD PTR ?gHUD@@3VCHud@@A+8436, 640	; 00000280H
	jge	SHORT $LN2@LoadSprite

; 138  : 		i = 320;

	mov	DWORD PTR _i$[ebp], 320			; 00000140H
	jmp	SHORT $LN3@LoadSprite
$LN2@LoadSprite:

; 139  : 	else i = 640;

	mov	DWORD PTR _i$[ebp], 640			; 00000280H
$LN3@LoadSprite:

; 140  : 
; 141  : 	Q_snprintf( sz, sizeof( sz ), pszName, i );

	mov	eax, DWORD PTR _i$[ebp]
	push	eax
	mov	ecx, DWORD PTR _pszName$[ebp]
	push	ecx
	push	256					; 00000100H
	lea	edx, DWORD PTR _sz$[ebp]
	push	edx
	call	?Q_snprintf@@YAHPADIPBDZZ		; Q_snprintf
	add	esp, 16					; 00000010H

; 142  : 
; 143  : 	return SPR_Load( sz );

	lea	eax, DWORD PTR _sz$[ebp]
	push	eax
	call	DWORD PTR ?gEngfuncs@@3Ucl_enginefuncs_s@@A
	add	esp, 4

; 144  : }

	pop	edi
	pop	esi
	pop	ebx
	mov	ecx, DWORD PTR __$ArrayPad$[ebp]
	xor	ecx, ebp
	call	@__security_check_cookie@4
	mov	esp, ebp
	pop	ebp
	ret	0
?LoadSprite@@YAHPBD@Z ENDP				; LoadSprite
_TEXT	ENDS
; Function compile flags: /Odtp /ZI
; File d:\!diffusion 2020\source code 2022\client-server\client\utils.cpp
;	COMDAT ?PackColor@@YAMABUcolor24@@@Z
_TEXT	SEGMENT
tv82 = -68						; size = 4
_color$ = 8						; size = 4
?PackColor@@YAMABUcolor24@@@Z PROC			; PackColor, COMDAT

; 128  : {

	push	ebp
	mov	ebp, esp
	sub	esp, 68					; 00000044H
	push	ebx
	push	esi
	push	edi

; 129  : 	return (float)((double)((color.r << 16) | (color.g << 8) | color.b) / (double)(1 << 24));

	mov	eax, DWORD PTR _color$[ebp]
	movzx	ecx, BYTE PTR [eax]
	shl	ecx, 16					; 00000010H
	mov	edx, DWORD PTR _color$[ebp]
	movzx	eax, BYTE PTR [edx+1]
	shl	eax, 8
	or	ecx, eax
	mov	edx, DWORD PTR _color$[ebp]
	movzx	eax, BYTE PTR [edx+2]
	or	ecx, eax
	cvtsi2sd xmm0, ecx
	divsd	xmm0, QWORD PTR __real@4170000000000000
	cvtsd2ss xmm0, xmm0
	movss	DWORD PTR tv82[ebp], xmm0
	fld	DWORD PTR tv82[ebp]

; 130  : }

	pop	edi
	pop	esi
	pop	ebx
	mov	esp, ebp
	pop	ebp
	ret	0
?PackColor@@YAMABUcolor24@@@Z ENDP			; PackColor
_TEXT	ENDS
; Function compile flags: /Odtp /ZI
; File d:\!diffusion 2020\source code 2022\client-server\client\utils.cpp
;	COMDAT ?ScaleColors@@YAXAAH00H@Z
_TEXT	SEGMENT
_x$ = -4						; size = 4
_r$ = 8							; size = 4
_g$ = 12						; size = 4
_b$ = 16						; size = 4
_a$ = 20						; size = 4
?ScaleColors@@YAXAAH00H@Z PROC				; ScaleColors, COMDAT

; 120  : {

	push	ebp
	mov	ebp, esp
	sub	esp, 68					; 00000044H
	push	ebx
	push	esi
	push	edi

; 121  : 	float x = (float)a / 255;

	cvtsi2ss xmm0, DWORD PTR _a$[ebp]
	divss	xmm0, DWORD PTR __real@437f0000
	movss	DWORD PTR _x$[ebp], xmm0

; 122  : 	r = (int)(r * x);

	mov	eax, DWORD PTR _r$[ebp]
	cvtsi2ss xmm0, DWORD PTR [eax]
	mulss	xmm0, DWORD PTR _x$[ebp]
	cvttss2si ecx, xmm0
	mov	edx, DWORD PTR _r$[ebp]
	mov	DWORD PTR [edx], ecx

; 123  : 	g = (int)(g * x);

	mov	eax, DWORD PTR _g$[ebp]
	cvtsi2ss xmm0, DWORD PTR [eax]
	mulss	xmm0, DWORD PTR _x$[ebp]
	cvttss2si ecx, xmm0
	mov	edx, DWORD PTR _g$[ebp]
	mov	DWORD PTR [edx], ecx

; 124  : 	b = (int)(b * x);

	mov	eax, DWORD PTR _b$[ebp]
	cvtsi2ss xmm0, DWORD PTR [eax]
	mulss	xmm0, DWORD PTR _x$[ebp]
	cvttss2si ecx, xmm0
	mov	edx, DWORD PTR _b$[ebp]
	mov	DWORD PTR [edx], ecx

; 125  : }

	pop	edi
	pop	esi
	pop	ebx
	mov	esp, ebp
	pop	ebp
	ret	0
?ScaleColors@@YAXAAH00H@Z ENDP				; ScaleColors
_TEXT	ENDS
; Function compile flags: /Odtp /ZI
; File d:\!diffusion 2020\source code 2022\client-server\client\utils.cpp
;	COMDAT ?Sys_RemoveFile@@YA_NPBD@Z
_TEXT	SEGMENT
tv77 = -69						; size = 1
_iRet$ = -4						; size = 4
_path$ = 8						; size = 4
?Sys_RemoveFile@@YA_NPBD@Z PROC				; Sys_RemoveFile, COMDAT

; 1065 : {

	push	ebp
	mov	ebp, esp
	sub	esp, 72					; 00000048H
	push	ebx
	push	esi
	push	edi

; 1066 : 	static char	real_path[1024];
; 1067 : 	int	iRet = false;

	mov	DWORD PTR _iRet$[ebp], 0

; 1068 : 
; 1069 : 	if (!path || !*path)

	cmp	DWORD PTR _path$[ebp], 0
	je	SHORT $LN3@Sys_Remove
	mov	eax, DWORD PTR _path$[ebp]
	movsx	ecx, BYTE PTR [eax]
	test	ecx, ecx
	jne	SHORT $LN2@Sys_Remove
$LN3@Sys_Remove:

; 1070 : 		return false;

	xor	al, al
	jmp	SHORT $LN1@Sys_Remove
$LN2@Sys_Remove:

; 1071 : 
; 1072 : 	Q_snprintf(real_path, sizeof(real_path), "%s/%s", gEngfuncs.pfnGetGameDirectory(), path);

	mov	eax, DWORD PTR _path$[ebp]
	push	eax
	call	DWORD PTR ?gEngfuncs@@3Ucl_enginefuncs_s@@A+284
	push	eax
	push	OFFSET ??_C@_05GFOLEBJA@?$CFs?1?$CFs?$AA@
	push	1024					; 00000400H
	push	OFFSET ?real_path@?1??Sys_RemoveFile@@YA_NPBD@Z@4PADA
	call	?Q_snprintf@@YAHPADIPBDZZ		; Q_snprintf
	add	esp, 20					; 00000014H

; 1073 : 	COM_FixSlashes(real_path);

	push	OFFSET ?real_path@?1??Sys_RemoveFile@@YA_NPBD@Z@4PADA
	call	?COM_FixSlashes@@YAXPAD@Z		; COM_FixSlashes
	add	esp, 4

; 1074 : 	iRet = remove(real_path);

	push	OFFSET ?real_path@?1??Sys_RemoveFile@@YA_NPBD@Z@4PADA
	call	_remove
	add	esp, 4
	mov	DWORD PTR _iRet$[ebp], eax

; 1075 : 
; 1076 : 	return (iRet == 0) ? true : false;

	cmp	DWORD PTR _iRet$[ebp], 0
	jne	SHORT $LN5@Sys_Remove
	mov	BYTE PTR tv77[ebp], 1
	jmp	SHORT $LN6@Sys_Remove
$LN5@Sys_Remove:
	mov	BYTE PTR tv77[ebp], 0
$LN6@Sys_Remove:
	mov	al, BYTE PTR tv77[ebp]
$LN1@Sys_Remove:

; 1077 : }

	pop	edi
	pop	esi
	pop	ebx
	mov	esp, ebp
	pop	ebp
	ret	0
?Sys_RemoveFile@@YA_NPBD@Z ENDP				; Sys_RemoveFile
_TEXT	ENDS
; Function compile flags: /Odtp /ZI
; File d:\!diffusion 2020\source code 2022\client-server\client\utils.cpp
;	COMDAT ?Sys_FreeLibrary@@YAXPAPAUHINSTANCE__@@@Z
_TEXT	SEGMENT
_handle$ = 8						; size = 4
?Sys_FreeLibrary@@YAXPAPAUHINSTANCE__@@@Z PROC		; Sys_FreeLibrary, COMDAT

; 1056 : {

	push	ebp
	mov	ebp, esp
	sub	esp, 64					; 00000040H
	push	ebx
	push	esi
	push	edi

; 1057 : 	if( !handle || !*handle )

	cmp	DWORD PTR _handle$[ebp], 0
	je	SHORT $LN3@Sys_FreeLi
	mov	eax, DWORD PTR _handle$[ebp]
	cmp	DWORD PTR [eax], 0
	jne	SHORT $LN2@Sys_FreeLi
$LN3@Sys_FreeLi:

; 1058 : 		return;

	jmp	SHORT $LN1@Sys_FreeLi
$LN2@Sys_FreeLi:

; 1059 : 
; 1060 : 	FreeLibrary( *handle );

	mov	eax, DWORD PTR _handle$[ebp]
	mov	ecx, DWORD PTR [eax]
	push	ecx
	call	DWORD PTR __imp__FreeLibrary@4

; 1061 : 	*handle = NULL;

	mov	eax, DWORD PTR _handle$[ebp]
	mov	DWORD PTR [eax], 0
$LN1@Sys_FreeLi:

; 1062 : }

	pop	edi
	pop	esi
	pop	ebx
	mov	esp, ebp
	pop	ebp
	ret	0
?Sys_FreeLibrary@@YAXPAPAUHINSTANCE__@@@Z ENDP		; Sys_FreeLibrary
_TEXT	ENDS
; Function compile flags: /Odtp /ZI
; File d:\!diffusion 2020\source code 2022\client-server\client\utils.cpp
;	COMDAT ?Sys_GetProcAddress@@YAPAXPAUHINSTANCE__@@PBD@Z
_TEXT	SEGMENT
_handle$ = 8						; size = 4
_name$ = 12						; size = 4
?Sys_GetProcAddress@@YAPAXPAUHINSTANCE__@@PBD@Z PROC	; Sys_GetProcAddress, COMDAT

; 1051 : {

	push	ebp
	mov	ebp, esp
	sub	esp, 64					; 00000040H
	push	ebx
	push	esi
	push	edi

; 1052 : 	return (void *)GetProcAddress( handle, name );

	mov	eax, DWORD PTR _name$[ebp]
	push	eax
	mov	ecx, DWORD PTR _handle$[ebp]
	push	ecx
	call	DWORD PTR __imp__GetProcAddress@8

; 1053 : }

	pop	edi
	pop	esi
	pop	ebx
	mov	esp, ebp
	pop	ebp
	ret	0
?Sys_GetProcAddress@@YAPAXPAUHINSTANCE__@@PBD@Z ENDP	; Sys_GetProcAddress
_TEXT	ENDS
; Function compile flags: /Odtp /ZI
; File d:\!diffusion 2020\source code 2022\client-server\client\utils.cpp
;	COMDAT ?Sys_LoadLibrary@@YA_NPBDPAPAUHINSTANCE__@@PBUdllfunc_s@@@Z
_TEXT	SEGMENT
tv137 = -208						; size = 4
tv93 = -208						; size = 4
_dllhandle$ = -140					; size = 4
_dllpath$ = -136					; size = 128
_gamefunc$ = -8						; size = 4
__$ArrayPad$ = -4					; size = 4
_dllname$ = 8						; size = 4
_handle$ = 12						; size = 4
_fcts$ = 16						; size = 4
?Sys_LoadLibrary@@YA_NPBDPAPAUHINSTANCE__@@PBUdllfunc_s@@@Z PROC ; Sys_LoadLibrary, COMDAT

; 1014 : {

	push	ebp
	mov	ebp, esp
	sub	esp, 208				; 000000d0H
	mov	eax, DWORD PTR ___security_cookie
	xor	eax, ebp
	mov	DWORD PTR __$ArrayPad$[ebp], eax
	push	ebx
	push	esi
	push	edi

; 1015 : 	if( !handle ) return false;

	cmp	DWORD PTR _handle$[ebp], 0
	jne	SHORT $LN8@Sys_LoadLi
	xor	al, al
	jmp	$LN1@Sys_LoadLi
$LN8@Sys_LoadLi:

; 1016 : 
; 1017 : 	const dllfunc_t *gamefunc;
; 1018 : 
; 1019 : 	// Initializations
; 1020 : 	for( gamefunc = fcts; gamefunc && gamefunc->name != NULL; gamefunc++ )

	mov	eax, DWORD PTR _fcts$[ebp]
	mov	DWORD PTR _gamefunc$[ebp], eax
	jmp	SHORT $LN4@Sys_LoadLi
$LN2@Sys_LoadLi:
	mov	eax, DWORD PTR _gamefunc$[ebp]
	add	eax, 8
	mov	DWORD PTR _gamefunc$[ebp], eax
$LN4@Sys_LoadLi:
	cmp	DWORD PTR _gamefunc$[ebp], 0
	je	SHORT $LN3@Sys_LoadLi
	mov	eax, DWORD PTR _gamefunc$[ebp]
	cmp	DWORD PTR [eax], 0
	je	SHORT $LN3@Sys_LoadLi

; 1021 : 		*gamefunc->func = NULL;

	mov	eax, DWORD PTR _gamefunc$[ebp]
	mov	ecx, DWORD PTR [eax+4]
	mov	DWORD PTR [ecx], 0
	jmp	SHORT $LN2@Sys_LoadLi
$LN3@Sys_LoadLi:

; 1022 : 
; 1023 : 	char dllpath[128];
; 1024 : 
; 1025 : 	// is direct path used ?
; 1026 : 	if( dllname[0] == '*' ) Q_strncpy( dllpath, dllname + 1, sizeof( dllpath ));

	mov	eax, 1
	imul	ecx, eax, 0
	mov	edx, DWORD PTR _dllname$[ebp]
	movsx	eax, BYTE PTR [edx+ecx]
	cmp	eax, 42					; 0000002aH
	jne	SHORT $LN9@Sys_LoadLi
	push	128					; 00000080H
	mov	eax, DWORD PTR _dllname$[ebp]
	add	eax, 1
	push	eax
	lea	ecx, DWORD PTR _dllpath$[ebp]
	push	ecx
	call	?Q_strncpy@@YAIPADPBDI@Z		; Q_strncpy
	add	esp, 12					; 0000000cH
	jmp	SHORT $LN10@Sys_LoadLi
$LN9@Sys_LoadLi:

; 1027 : 	else Q_snprintf( dllpath, sizeof( dllpath ), "%s/bin/%s", gEngfuncs.pfnGetGameDirectory(), dllname );

	mov	eax, DWORD PTR _dllname$[ebp]
	push	eax
	call	DWORD PTR ?gEngfuncs@@3Ucl_enginefuncs_s@@A+284
	push	eax
	push	OFFSET ??_C@_09ILGMALND@?$CFs?1bin?1?$CFs?$AA@
	push	128					; 00000080H
	lea	ecx, DWORD PTR _dllpath$[ebp]
	push	ecx
	call	?Q_snprintf@@YAHPADIPBDZZ		; Q_snprintf
	add	esp, 20					; 00000014H
$LN10@Sys_LoadLi:

; 1028 : 
; 1029 : 	dllhandle_t dllhandle = LoadLibrary( dllpath );

	lea	eax, DWORD PTR _dllpath$[ebp]
	push	eax
	call	DWORD PTR __imp__LoadLibraryA@4
	mov	DWORD PTR _dllhandle$[ebp], eax

; 1030 :         
; 1031 : 	// No DLL found
; 1032 : 	if( !dllhandle ) return false;

	cmp	DWORD PTR _dllhandle$[ebp], 0
	jne	SHORT $LN11@Sys_LoadLi
	xor	al, al
	jmp	$LN1@Sys_LoadLi
$LN11@Sys_LoadLi:

; 1033 : 
; 1034 : 	// Get the function adresses
; 1035 : 	for( gamefunc = fcts; gamefunc && gamefunc->name != NULL; gamefunc++ )

	mov	eax, DWORD PTR _fcts$[ebp]
	mov	DWORD PTR _gamefunc$[ebp], eax
	jmp	SHORT $LN7@Sys_LoadLi
$LN5@Sys_LoadLi:
	mov	eax, DWORD PTR _gamefunc$[ebp]
	add	eax, 8
	mov	DWORD PTR _gamefunc$[ebp], eax
$LN7@Sys_LoadLi:
	cmp	DWORD PTR _gamefunc$[ebp], 0
	je	SHORT $LN6@Sys_LoadLi
	mov	eax, DWORD PTR _gamefunc$[ebp]
	cmp	DWORD PTR [eax], 0
	je	SHORT $LN6@Sys_LoadLi

; 1036 : 	{
; 1037 : 		if( !( *gamefunc->func = (void *)Sys_GetProcAddress( dllhandle, gamefunc->name )))

	mov	eax, DWORD PTR _gamefunc$[ebp]
	mov	ecx, DWORD PTR [eax]
	push	ecx
	mov	edx, DWORD PTR _dllhandle$[ebp]
	push	edx
	call	?Sys_GetProcAddress@@YAPAXPAUHINSTANCE__@@PBD@Z ; Sys_GetProcAddress
	add	esp, 8
	mov	DWORD PTR tv93[ebp], eax
	mov	eax, DWORD PTR _gamefunc$[ebp]
	mov	ecx, DWORD PTR [eax+4]
	mov	edx, DWORD PTR tv93[ebp]
	mov	DWORD PTR [ecx], edx
	cmp	DWORD PTR tv93[ebp], 0
	jne	SHORT $LN12@Sys_LoadLi

; 1038 : 		{
; 1039 : 			Sys_FreeLibrary( &dllhandle );

	lea	eax, DWORD PTR _dllhandle$[ebp]
	push	eax
	call	?Sys_FreeLibrary@@YAXPAPAUHINSTANCE__@@@Z ; Sys_FreeLibrary
	add	esp, 4

; 1040 : 			return false;

	xor	al, al
	jmp	SHORT $LN1@Sys_LoadLi
$LN12@Sys_LoadLi:

; 1041 : 		}
; 1042 : 	}          

	jmp	SHORT $LN5@Sys_LoadLi
$LN6@Sys_LoadLi:

; 1043 : 
; 1044 : 	ALERT( at_aiconsole, "%s loaded succesfully!\n", (dllname[0] == '*') ? (dllname+1) : (dllname));

	mov	eax, 1
	imul	ecx, eax, 0
	mov	edx, DWORD PTR _dllname$[ebp]
	movsx	eax, BYTE PTR [edx+ecx]
	cmp	eax, 42					; 0000002aH
	jne	SHORT $LN14@Sys_LoadLi
	mov	ecx, DWORD PTR _dllname$[ebp]
	add	ecx, 1
	mov	DWORD PTR tv137[ebp], ecx
	jmp	SHORT $LN15@Sys_LoadLi
$LN14@Sys_LoadLi:
	mov	edx, DWORD PTR _dllname$[ebp]
	mov	DWORD PTR tv137[ebp], edx
$LN15@Sys_LoadLi:
	mov	eax, DWORD PTR tv137[ebp]
	push	eax
	push	OFFSET ??_C@_0BI@BOKDEL@?$CFs?5loaded?5succesfully?$CB?6?$AA@
	push	2
	call	?ALERT@@YAXW4ALERT_TYPE@@PADZZ		; ALERT
	add	esp, 12					; 0000000cH

; 1045 : 	*handle = dllhandle;

	mov	eax, DWORD PTR _handle$[ebp]
	mov	ecx, DWORD PTR _dllhandle$[ebp]
	mov	DWORD PTR [eax], ecx

; 1046 : 
; 1047 : 	return true;

	mov	al, 1
$LN1@Sys_LoadLi:

; 1048 : }

	pop	edi
	pop	esi
	pop	ebx
	mov	ecx, DWORD PTR __$ArrayPad$[ebp]
	xor	ecx, ebp
	call	@__security_check_cookie@4
	mov	esp, ebp
	pop	ebp
	ret	0
?Sys_LoadLibrary@@YA_NPBDPAPAUHINSTANCE__@@PBUdllfunc_s@@@Z ENDP ; Sys_LoadLibrary
_TEXT	ENDS
; Function compile flags: /Odtp /ZI
; File d:\!diffusion 2020\source code 2022\client-server\client\utils.cpp
;	COMDAT ?Mod_Handle@@YAPAUmodel_s@@H@Z
_TEXT	SEGMENT
_modelIndex$ = 8					; size = 4
?Mod_Handle@@YAPAUmodel_s@@H@Z PROC			; Mod_Handle, COMDAT

; 1080 : {

	push	ebp
	mov	ebp, esp
	sub	esp, 64					; 00000040H
	push	ebx
	push	esi
	push	edi

; 1081 : 	return IEngineStudio.GetModelByIndex( modelIndex );

	mov	eax, DWORD PTR _modelIndex$[ebp]
	push	eax
	call	DWORD PTR ?IEngineStudio@@3Uengine_studio_api_s@@A+20
	add	esp, 4

; 1082 : }

	pop	edi
	pop	esi
	pop	ebx
	mov	esp, ebp
	pop	ebp
	ret	0
?Mod_Handle@@YAPAUmodel_s@@H@Z ENDP			; Mod_Handle
_TEXT	ENDS
; Function compile flags: /Odtp /ZI
; File d:\!diffusion 2020\source code 2022\client-server\client\utils.cpp
;	COMDAT ?ALERT@@YAXW4ALERT_TYPE@@PADZZ
_TEXT	SEGMENT
_args$ = -2056						; size = 4
_buffer$ = -2052					; size = 2048
__$ArrayPad$ = -4					; size = 4
_level$ = 8						; size = 4
_szFmt$ = 12						; size = 4
?ALERT@@YAXW4ALERT_TYPE@@PADZZ PROC			; ALERT, COMDAT

; 31   : {

	push	ebp
	mov	ebp, esp
	sub	esp, 2376				; 00000948H
	mov	eax, DWORD PTR ___security_cookie
	xor	eax, ebp
	mov	DWORD PTR __$ArrayPad$[ebp], eax
	push	ebx
	push	esi
	push	edi

; 32   : 	char	buffer[2048];	// must support > 1k messages
; 33   : 	va_list	args;
; 34   : 
; 35   : 	if( developer_level <= DEV_NONE )

	cmp	DWORD PTR ?developer_level@@3HA, 0	; developer_level
	jg	SHORT $LN2@ALERT

; 36   : 		return;

	jmp	$LN1@ALERT
$LN2@ALERT:

; 37   : 
; 38   : 	if( level == at_aiconsole && developer_level < DEV_EXTENDED )

	cmp	DWORD PTR _level$[ebp], 2
	jne	SHORT $LN3@ALERT
	cmp	DWORD PTR ?developer_level@@3HA, 2	; developer_level
	jge	SHORT $LN3@ALERT

; 39   : 		return;

	jmp	$LN1@ALERT
$LN3@ALERT:

; 40   : 
; 41   : 	va_start( args, szFmt );

	call	??$__vcrt_va_start_verify_argument_type@PAD@@YAXXZ ; __vcrt_va_start_verify_argument_type<char *>
	lea	eax, DWORD PTR _szFmt$[ebp+4]
	mov	DWORD PTR _args$[ebp], eax

; 42   : 	Q_vsnprintf( buffer, 2048, szFmt, args );

	mov	eax, DWORD PTR _args$[ebp]
	push	eax
	mov	ecx, DWORD PTR _szFmt$[ebp]
	push	ecx
	push	2048					; 00000800H
	lea	edx, DWORD PTR _buffer$[ebp]
	push	edx
	call	?Q_vsnprintf@@YAHPADIPBD0@Z		; Q_vsnprintf
	add	esp, 16					; 00000010H

; 43   : 	va_end( args );

	mov	DWORD PTR _args$[ebp], 0

; 44   : 
; 45   : 	if( level == at_warning )

	cmp	DWORD PTR _level$[ebp], 3
	jne	SHORT $LN4@ALERT

; 46   : 	{
; 47   : 		gEngfuncs.Con_Printf( va( "^3Warning:^7 %s", buffer ));

	lea	eax, DWORD PTR _buffer$[ebp]
	push	eax
	push	OFFSET ??_C@_0BA@KNHIKLDN@?$FO3Warning?3?$FO7?5?$CFs?$AA@
	call	?va@@YAPADPBDZZ				; va
	add	esp, 8
	push	eax
	call	DWORD PTR ?gEngfuncs@@3Ucl_enginefuncs_s@@A+160
	add	esp, 4
	jmp	SHORT $LN1@ALERT
$LN4@ALERT:

; 48   : 	}
; 49   : 	else if( level == at_error  )

	cmp	DWORD PTR _level$[ebp], 4
	jne	SHORT $LN6@ALERT

; 50   : 	{
; 51   : 		gEngfuncs.Con_Printf( va( "^1Error:^7 %s", buffer ));

	lea	eax, DWORD PTR _buffer$[ebp]
	push	eax
	push	OFFSET ??_C@_0O@DKJGHMGN@?$FO1Error?3?$FO7?5?$CFs?$AA@
	call	?va@@YAPADPBDZZ				; va
	add	esp, 8
	push	eax
	call	DWORD PTR ?gEngfuncs@@3Ucl_enginefuncs_s@@A+160
	add	esp, 4

; 52   : 	} 
; 53   : 	else

	jmp	SHORT $LN1@ALERT
$LN6@ALERT:

; 54   : 	{
; 55   : 		gEngfuncs.Con_Printf( buffer );

	lea	eax, DWORD PTR _buffer$[ebp]
	push	eax
	call	DWORD PTR ?gEngfuncs@@3Ucl_enginefuncs_s@@A+160
	add	esp, 4
$LN1@ALERT:

; 56   : 	}
; 57   : }

	pop	edi
	pop	esi
	pop	ebx
	mov	ecx, DWORD PTR __$ArrayPad$[ebp]
	xor	ecx, ebp
	call	@__security_check_cookie@4
	mov	esp, ebp
	pop	ebp
	ret	0
?ALERT@@YAXW4ALERT_TYPE@@PADZZ ENDP			; ALERT
_TEXT	ENDS
; Function compile flags: /Odtp /ZI
; File d:\!diffusion 2020\source code 2022\client-server\client\utils.cpp
;	COMDAT ?DrawQuad@@YAXMMMM@Z
_TEXT	SEGMENT
_xmin$ = 8						; size = 4
_ymin$ = 12						; size = 4
_xmax$ = 16						; size = 4
_ymax$ = 20						; size = 4
?DrawQuad@@YAXMMMM@Z PROC				; DrawQuad, COMDAT

; 82   : {

	push	ebp
	mov	ebp, esp
	sub	esp, 64					; 00000040H
	push	ebx
	push	esi
	push	edi

; 83   : 	// top left
; 84   : 	gEngfuncs.pTriAPI->TexCoord2f( 0, 0 );

	push	ecx
	xorps	xmm0, xmm0
	movss	DWORD PTR [esp], xmm0
	push	ecx
	xorps	xmm0, xmm0
	movss	DWORD PTR [esp], xmm0
	mov	eax, DWORD PTR ?gEngfuncs@@3Ucl_enginefuncs_s@@A+328
	mov	ecx, DWORD PTR [eax+24]
	call	ecx
	add	esp, 8

; 85   : 	gEngfuncs.pTriAPI->Vertex3f( xmin, ymin, 0 ); 

	push	ecx
	xorps	xmm0, xmm0
	movss	DWORD PTR [esp], xmm0
	push	ecx
	movss	xmm0, DWORD PTR _ymin$[ebp]
	movss	DWORD PTR [esp], xmm0
	push	ecx
	movss	xmm0, DWORD PTR _xmin$[ebp]
	movss	DWORD PTR [esp], xmm0
	mov	eax, DWORD PTR ?gEngfuncs@@3Ucl_enginefuncs_s@@A+328
	mov	ecx, DWORD PTR [eax+32]
	call	ecx
	add	esp, 12					; 0000000cH

; 86   : 
; 87   : 	// bottom left
; 88   : 	gEngfuncs.pTriAPI->TexCoord2f( 0, 1 );

	push	ecx
	movss	xmm0, DWORD PTR __real@3f800000
	movss	DWORD PTR [esp], xmm0
	push	ecx
	xorps	xmm0, xmm0
	movss	DWORD PTR [esp], xmm0
	mov	eax, DWORD PTR ?gEngfuncs@@3Ucl_enginefuncs_s@@A+328
	mov	ecx, DWORD PTR [eax+24]
	call	ecx
	add	esp, 8

; 89   : 	gEngfuncs.pTriAPI->Vertex3f( xmin, ymax, 0 );

	push	ecx
	xorps	xmm0, xmm0
	movss	DWORD PTR [esp], xmm0
	push	ecx
	movss	xmm0, DWORD PTR _ymax$[ebp]
	movss	DWORD PTR [esp], xmm0
	push	ecx
	movss	xmm0, DWORD PTR _xmin$[ebp]
	movss	DWORD PTR [esp], xmm0
	mov	eax, DWORD PTR ?gEngfuncs@@3Ucl_enginefuncs_s@@A+328
	mov	ecx, DWORD PTR [eax+32]
	call	ecx
	add	esp, 12					; 0000000cH

; 90   : 
; 91   : 	// bottom right
; 92   : 	gEngfuncs.pTriAPI->TexCoord2f( 1, 1 );

	push	ecx
	movss	xmm0, DWORD PTR __real@3f800000
	movss	DWORD PTR [esp], xmm0
	push	ecx
	movss	xmm0, DWORD PTR __real@3f800000
	movss	DWORD PTR [esp], xmm0
	mov	eax, DWORD PTR ?gEngfuncs@@3Ucl_enginefuncs_s@@A+328
	mov	ecx, DWORD PTR [eax+24]
	call	ecx
	add	esp, 8

; 93   : 	gEngfuncs.pTriAPI->Vertex3f( xmax, ymax, 0 );

	push	ecx
	xorps	xmm0, xmm0
	movss	DWORD PTR [esp], xmm0
	push	ecx
	movss	xmm0, DWORD PTR _ymax$[ebp]
	movss	DWORD PTR [esp], xmm0
	push	ecx
	movss	xmm0, DWORD PTR _xmax$[ebp]
	movss	DWORD PTR [esp], xmm0
	mov	eax, DWORD PTR ?gEngfuncs@@3Ucl_enginefuncs_s@@A+328
	mov	ecx, DWORD PTR [eax+32]
	call	ecx
	add	esp, 12					; 0000000cH

; 94   : 
; 95   : 	// top right
; 96   : 	gEngfuncs.pTriAPI->TexCoord2f( 1, 0 );

	push	ecx
	xorps	xmm0, xmm0
	movss	DWORD PTR [esp], xmm0
	push	ecx
	movss	xmm0, DWORD PTR __real@3f800000
	movss	DWORD PTR [esp], xmm0
	mov	eax, DWORD PTR ?gEngfuncs@@3Ucl_enginefuncs_s@@A+328
	mov	ecx, DWORD PTR [eax+24]
	call	ecx
	add	esp, 8

; 97   : 	gEngfuncs.pTriAPI->Vertex3f( xmax, ymin, 0 );

	push	ecx
	xorps	xmm0, xmm0
	movss	DWORD PTR [esp], xmm0
	push	ecx
	movss	xmm0, DWORD PTR _ymin$[ebp]
	movss	DWORD PTR [esp], xmm0
	push	ecx
	movss	xmm0, DWORD PTR _xmax$[ebp]
	movss	DWORD PTR [esp], xmm0
	mov	eax, DWORD PTR ?gEngfuncs@@3Ucl_enginefuncs_s@@A+328
	mov	ecx, DWORD PTR [eax+32]
	call	ecx
	add	esp, 12					; 0000000cH

; 98   : }

	pop	edi
	pop	esi
	pop	ebx
	mov	esp, ebp
	pop	ebp
	ret	0
?DrawQuad@@YAXMMMM@Z ENDP				; DrawQuad
_TEXT	ENDS
; Function compile flags: /Odtp /ZI
; File d:\!diffusion 2020\source code 2022\client-server\client\utils.cpp
;	COMDAT ?GetSpriteList@@YAPAUclient_sprite_s@@PAU1@PBDHH@Z
_TEXT	SEGMENT
tv67 = -76						; size = 4
_i$ = -8						; size = 4
_p$ = -4						; size = 4
_pList$ = 8						; size = 4
_psz$ = 12						; size = 4
_iRes$ = 16						; size = 4
_iCount$ = 20						; size = 4
?GetSpriteList@@YAPAUclient_sprite_s@@PAU1@PBDHH@Z PROC	; GetSpriteList, COMDAT

; 991  : {

	push	ebp
	mov	ebp, esp
	sub	esp, 76					; 0000004cH
	push	ebx
	push	esi
	push	edi

; 992  : 	if( !pList )

	cmp	DWORD PTR _pList$[ebp], 0
	jne	SHORT $LN4@GetSpriteL

; 993  : 		return NULL;

	xor	eax, eax
	jmp	SHORT $LN1@GetSpriteL
$LN4@GetSpriteL:

; 994  : 
; 995  : 	client_sprite_t *p = pList;

	mov	eax, DWORD PTR _pList$[ebp]
	mov	DWORD PTR _p$[ebp], eax

; 996  : 	int i = iCount;

	mov	eax, DWORD PTR _iCount$[ebp]
	mov	DWORD PTR _i$[ebp], eax
$LN2@GetSpriteL:

; 997  : 
; 998  : 	while( i-- )

	mov	eax, DWORD PTR _i$[ebp]
	mov	DWORD PTR tv67[ebp], eax
	mov	ecx, DWORD PTR _i$[ebp]
	sub	ecx, 1
	mov	DWORD PTR _i$[ebp], ecx
	cmp	DWORD PTR tv67[ebp], 0
	je	SHORT $LN3@GetSpriteL

; 999  : 	{
; 1000 : 		if(( !Q_strcmp( psz, p->szName )) && ( p->iRes == iRes ))

	push	99999					; 0001869fH
	mov	eax, DWORD PTR _p$[ebp]
	push	eax
	mov	ecx, DWORD PTR _psz$[ebp]
	push	ecx
	call	?Q_strncmp@@YAHPBD0H@Z			; Q_strncmp
	add	esp, 12					; 0000000cH
	test	eax, eax
	jne	SHORT $LN5@GetSpriteL
	mov	eax, DWORD PTR _p$[ebp]
	mov	ecx, DWORD PTR [eax+132]
	cmp	ecx, DWORD PTR _iRes$[ebp]
	jne	SHORT $LN5@GetSpriteL

; 1001 : 			return p;

	mov	eax, DWORD PTR _p$[ebp]
	jmp	SHORT $LN1@GetSpriteL
$LN5@GetSpriteL:

; 1002 : 		p++;

	mov	eax, DWORD PTR _p$[ebp]
	add	eax, 152				; 00000098H
	mov	DWORD PTR _p$[ebp], eax

; 1003 : 	}

	jmp	SHORT $LN2@GetSpriteL
$LN3@GetSpriteL:

; 1004 : 	return NULL;

	xor	eax, eax
$LN1@GetSpriteL:

; 1005 : }

	pop	edi
	pop	esi
	pop	ebx
	mov	esp, ebp
	pop	ebp
	ret	0
?GetSpriteList@@YAPAUclient_sprite_s@@PAU1@PBDHH@Z ENDP	; GetSpriteList
_TEXT	ENDS
; Function compile flags: /Odtp /ZI
; File d:\!diffusion 2020\source code 2022\client-server\game_shared\matrix.h
;	COMDAT ??Amatrix4x4@@QAEPAMH@Z
_TEXT	SEGMENT
_this$ = -4						; size = 4
_i$ = 8							; size = 4
??Amatrix4x4@@QAEPAMH@Z PROC				; matrix4x4::operator[], COMDAT
; _this$ = ecx

; 952  : 	float* operator[]( int i ) { return mat[i]; }

	push	ebp
	mov	ebp, esp
	sub	esp, 68					; 00000044H
	push	ebx
	push	esi
	push	edi
	mov	DWORD PTR _this$[ebp], ecx
	mov	ecx, DWORD PTR _i$[ebp]
	shl	ecx, 4
	add	ecx, DWORD PTR _this$[ebp]
	call	??BVector4D@@QAEPAMXZ			; Vector4D::operator float *
	pop	edi
	pop	esi
	pop	ebx
	mov	esp, ebp
	pop	ebp
	ret	4
??Amatrix4x4@@QAEPAMH@Z ENDP				; matrix4x4::operator[]
_TEXT	ENDS
; Function compile flags: /Odtp /ZI
; File d:\!diffusion 2020\source code 2022\client-server\game_shared\vector.h
;	COMDAT ??BVector4D@@QAEPAMXZ
_TEXT	SEGMENT
_this$ = -4						; size = 4
??BVector4D@@QAEPAMXZ PROC				; Vector4D::operator float *, COMDAT
; _this$ = ecx

; 344  : 	operator float *()					{ return &x; }

	push	ebp
	mov	ebp, esp
	sub	esp, 68					; 00000044H
	push	ebx
	push	esi
	push	edi
	mov	DWORD PTR _this$[ebp], ecx
	mov	eax, DWORD PTR _this$[ebp]
	pop	edi
	pop	esi
	pop	ebx
	mov	esp, ebp
	pop	ebp
	ret	0
??BVector4D@@QAEPAMXZ ENDP				; Vector4D::operator float *
_TEXT	ENDS
; Function compile flags: /Odtp /ZI
; File d:\!diffusion 2020\source code 2022\client-server\game_shared\vector.h
;	COMDAT ??0Vector4D@@QAE@XZ
_TEXT	SEGMENT
_this$ = -4						; size = 4
??0Vector4D@@QAE@XZ PROC				; Vector4D::Vector4D, COMDAT
; _this$ = ecx

; 330  : 	inline Vector4D( void ) { }

	push	ebp
	mov	ebp, esp
	sub	esp, 68					; 00000044H
	push	ebx
	push	esi
	push	edi
	mov	DWORD PTR _this$[ebp], ecx
	mov	eax, DWORD PTR _this$[ebp]
	pop	edi
	pop	esi
	pop	ebx
	mov	esp, ebp
	pop	ebp
	ret	0
??0Vector4D@@QAE@XZ ENDP				; Vector4D::Vector4D
_TEXT	ENDS
; Function compile flags: /Odtp /ZI
; File d:\!diffusion 2020\source code 2022\client-server\game_shared\vector.h
;	COMDAT ?DotProduct@@YAMABVVector@@0@Z
_TEXT	SEGMENT
tv86 = -68						; size = 4
_a$ = 8							; size = 4
_b$ = 12						; size = 4
?DotProduct@@YAMABVVector@@0@Z PROC			; DotProduct, COMDAT

; 308  : inline float DotProduct(const Vector& a, const Vector& b ) { return( a.x * b.x + a.y * b.y + a.z * b.z ); }

	push	ebp
	mov	ebp, esp
	sub	esp, 68					; 00000044H
	push	ebx
	push	esi
	push	edi
	mov	eax, DWORD PTR _a$[ebp]
	mov	ecx, DWORD PTR _b$[ebp]
	movss	xmm0, DWORD PTR [eax]
	mulss	xmm0, DWORD PTR [ecx]
	mov	edx, DWORD PTR _a$[ebp]
	mov	eax, DWORD PTR _b$[ebp]
	movss	xmm1, DWORD PTR [edx+4]
	mulss	xmm1, DWORD PTR [eax+4]
	addss	xmm0, xmm1
	mov	ecx, DWORD PTR _a$[ebp]
	mov	edx, DWORD PTR _b$[ebp]
	movss	xmm1, DWORD PTR [ecx+8]
	mulss	xmm1, DWORD PTR [edx+8]
	addss	xmm0, xmm1
	movss	DWORD PTR tv86[ebp], xmm0
	fld	DWORD PTR tv86[ebp]
	pop	edi
	pop	esi
	pop	ebx
	mov	esp, ebp
	pop	ebp
	ret	0
?DotProduct@@YAMABVVector@@0@Z ENDP			; DotProduct
_TEXT	ENDS
; Function compile flags: /Odtp /ZI
; File d:\!diffusion 2020\source code 2022\client-server\game_shared\vector.h
;	COMDAT ??BVector@@QBEPBMXZ
_TEXT	SEGMENT
_this$ = -4						; size = 4
??BVector@@QBEPBMXZ PROC				; Vector::operator float const *, COMDAT
; _this$ = ecx

; 248  : 	operator const float *() const		{ return &x; } 

	push	ebp
	mov	ebp, esp
	sub	esp, 68					; 00000044H
	push	ebx
	push	esi
	push	edi
	mov	DWORD PTR _this$[ebp], ecx
	mov	eax, DWORD PTR _this$[ebp]
	pop	edi
	pop	esi
	pop	ebx
	mov	esp, ebp
	pop	ebp
	ret	0
??BVector@@QBEPBMXZ ENDP				; Vector::operator float const *
_TEXT	ENDS
; Function compile flags: /Odtp /ZI
; File d:\!diffusion 2020\source code 2022\client-server\game_shared\vector.h
;	COMDAT ??BVector@@QAEPAMXZ
_TEXT	SEGMENT
_this$ = -4						; size = 4
??BVector@@QAEPAMXZ PROC				; Vector::operator float *, COMDAT
; _this$ = ecx

; 247  : 	operator float *()				{ return &x; } // Vectors will now automatically convert to float * when needed

	push	ebp
	mov	ebp, esp
	sub	esp, 68					; 00000044H
	push	ebx
	push	esi
	push	edi
	mov	DWORD PTR _this$[ebp], ecx
	mov	eax, DWORD PTR _this$[ebp]
	pop	edi
	pop	esi
	pop	ebx
	mov	esp, ebp
	pop	ebp
	ret	0
??BVector@@QAEPAMXZ ENDP				; Vector::operator float *
_TEXT	ENDS
; Function compile flags: /Odtp /ZI
; File d:\!diffusion 2020\source code 2022\client-server\game_shared\vector.h
;	COMDAT ??DVector@@QBE?AV0@M@Z
_TEXT	SEGMENT
_this$ = -4						; size = 4
___$ReturnUdt$ = 8					; size = 4
_fl$ = 12						; size = 4
??DVector@@QBE?AV0@M@Z PROC				; Vector::operator*, COMDAT
; _this$ = ecx

; 162  : 	inline Vector operator*(float fl) const		{ return Vector(x*fl, y*fl, z*fl);	   }

	push	ebp
	mov	ebp, esp
	sub	esp, 68					; 00000044H
	push	ebx
	push	esi
	push	edi
	mov	DWORD PTR _this$[ebp], ecx
	mov	eax, DWORD PTR _this$[ebp]
	movss	xmm0, DWORD PTR [eax+8]
	mulss	xmm0, DWORD PTR _fl$[ebp]
	push	ecx
	movss	DWORD PTR [esp], xmm0
	mov	ecx, DWORD PTR _this$[ebp]
	movss	xmm0, DWORD PTR [ecx+4]
	mulss	xmm0, DWORD PTR _fl$[ebp]
	push	ecx
	movss	DWORD PTR [esp], xmm0
	mov	edx, DWORD PTR _this$[ebp]
	movss	xmm0, DWORD PTR [edx]
	mulss	xmm0, DWORD PTR _fl$[ebp]
	push	ecx
	movss	DWORD PTR [esp], xmm0
	mov	ecx, DWORD PTR ___$ReturnUdt$[ebp]
	call	??0Vector@@QAE@MMM@Z			; Vector::Vector
	mov	eax, DWORD PTR ___$ReturnUdt$[ebp]
	pop	edi
	pop	esi
	pop	ebx
	mov	esp, ebp
	pop	ebp
	ret	8
??DVector@@QBE?AV0@M@Z ENDP				; Vector::operator*
_TEXT	ENDS
; Function compile flags: /Odtp /ZI
; File d:\!diffusion 2020\source code 2022\client-server\game_shared\vector.h
;	COMDAT ??GVector@@QBE?AV0@ABV0@@Z
_TEXT	SEGMENT
_this$ = -4						; size = 4
___$ReturnUdt$ = 8					; size = 4
_v$ = 12						; size = 4
??GVector@@QBE?AV0@ABV0@@Z PROC				; Vector::operator-, COMDAT
; _this$ = ecx

; 159  : 	inline Vector operator-(const Vector& v) const	{ return Vector(x-v.x, y-v.y, z-v.z);	   }

	push	ebp
	mov	ebp, esp
	sub	esp, 68					; 00000044H
	push	ebx
	push	esi
	push	edi
	mov	DWORD PTR _this$[ebp], ecx
	mov	eax, DWORD PTR _this$[ebp]
	mov	ecx, DWORD PTR _v$[ebp]
	movss	xmm0, DWORD PTR [eax+8]
	subss	xmm0, DWORD PTR [ecx+8]
	push	ecx
	movss	DWORD PTR [esp], xmm0
	mov	edx, DWORD PTR _this$[ebp]
	mov	eax, DWORD PTR _v$[ebp]
	movss	xmm0, DWORD PTR [edx+4]
	subss	xmm0, DWORD PTR [eax+4]
	push	ecx
	movss	DWORD PTR [esp], xmm0
	mov	ecx, DWORD PTR _this$[ebp]
	mov	edx, DWORD PTR _v$[ebp]
	movss	xmm0, DWORD PTR [ecx]
	subss	xmm0, DWORD PTR [edx]
	push	ecx
	movss	DWORD PTR [esp], xmm0
	mov	ecx, DWORD PTR ___$ReturnUdt$[ebp]
	call	??0Vector@@QAE@MMM@Z			; Vector::Vector
	mov	eax, DWORD PTR ___$ReturnUdt$[ebp]
	pop	edi
	pop	esi
	pop	ebx
	mov	esp, ebp
	pop	ebp
	ret	8
??GVector@@QBE?AV0@ABV0@@Z ENDP				; Vector::operator-
_TEXT	ENDS
; Function compile flags: /Odtp /ZI
; File d:\!diffusion 2020\source code 2022\client-server\game_shared\vector.h
;	COMDAT ??HVector@@QBE?AV0@ABV0@@Z
_TEXT	SEGMENT
_this$ = -4						; size = 4
___$ReturnUdt$ = 8					; size = 4
_v$ = 12						; size = 4
??HVector@@QBE?AV0@ABV0@@Z PROC				; Vector::operator+, COMDAT
; _this$ = ecx

; 158  : 	inline Vector operator+(const Vector& v) const	{ return Vector(x+v.x, y+v.y, z+v.z);	   }

	push	ebp
	mov	ebp, esp
	sub	esp, 68					; 00000044H
	push	ebx
	push	esi
	push	edi
	mov	DWORD PTR _this$[ebp], ecx
	mov	eax, DWORD PTR _this$[ebp]
	mov	ecx, DWORD PTR _v$[ebp]
	movss	xmm0, DWORD PTR [eax+8]
	addss	xmm0, DWORD PTR [ecx+8]
	push	ecx
	movss	DWORD PTR [esp], xmm0
	mov	edx, DWORD PTR _this$[ebp]
	mov	eax, DWORD PTR _v$[ebp]
	movss	xmm0, DWORD PTR [edx+4]
	addss	xmm0, DWORD PTR [eax+4]
	push	ecx
	movss	DWORD PTR [esp], xmm0
	mov	ecx, DWORD PTR _this$[ebp]
	mov	edx, DWORD PTR _v$[ebp]
	movss	xmm0, DWORD PTR [ecx]
	addss	xmm0, DWORD PTR [edx]
	push	ecx
	movss	DWORD PTR [esp], xmm0
	mov	ecx, DWORD PTR ___$ReturnUdt$[ebp]
	call	??0Vector@@QAE@MMM@Z			; Vector::Vector
	mov	eax, DWORD PTR ___$ReturnUdt$[ebp]
	pop	edi
	pop	esi
	pop	ebx
	mov	esp, ebp
	pop	ebp
	ret	8
??HVector@@QBE?AV0@ABV0@@Z ENDP				; Vector::operator+
_TEXT	ENDS
; Function compile flags: /Odtp /ZI
; File d:\!diffusion 2020\source code 2022\client-server\game_shared\vector.h
;	COMDAT ??0Vector@@QAE@ABV0@@Z
_TEXT	SEGMENT
_this$ = -4						; size = 4
_v$ = 8							; size = 4
??0Vector@@QAE@ABV0@@Z PROC				; Vector::Vector, COMDAT
; _this$ = ecx

; 145  : 	inline Vector(const Vector& v)		{ x = v.x; y = v.y; z = v.z;		   }

	push	ebp
	mov	ebp, esp
	sub	esp, 68					; 00000044H
	push	ebx
	push	esi
	push	edi
	mov	DWORD PTR _this$[ebp], ecx
	mov	eax, DWORD PTR _this$[ebp]
	mov	ecx, DWORD PTR _v$[ebp]
	mov	edx, DWORD PTR [ecx]
	mov	DWORD PTR [eax], edx
	mov	eax, DWORD PTR _this$[ebp]
	mov	ecx, DWORD PTR _v$[ebp]
	mov	edx, DWORD PTR [ecx+4]
	mov	DWORD PTR [eax+4], edx
	mov	eax, DWORD PTR _this$[ebp]
	mov	ecx, DWORD PTR _v$[ebp]
	mov	edx, DWORD PTR [ecx+8]
	mov	DWORD PTR [eax+8], edx
	mov	eax, DWORD PTR _this$[ebp]
	pop	edi
	pop	esi
	pop	ebx
	mov	esp, ebp
	pop	ebp
	ret	4
??0Vector@@QAE@ABV0@@Z ENDP				; Vector::Vector
_TEXT	ENDS
; Function compile flags: /Odtp /ZI
; File d:\!diffusion 2020\source code 2022\client-server\game_shared\vector.h
;	COMDAT ??0Vector@@QAE@MMM@Z
_TEXT	SEGMENT
_this$ = -4						; size = 4
_X$ = 8							; size = 4
_Y$ = 12						; size = 4
_Z$ = 16						; size = 4
??0Vector@@QAE@MMM@Z PROC				; Vector::Vector, COMDAT
; _this$ = ecx

; 144  : 	inline Vector(float X, float Y, float Z)	{ x = X; y = Y; z = Z;                     }

	push	ebp
	mov	ebp, esp
	sub	esp, 68					; 00000044H
	push	ebx
	push	esi
	push	edi
	mov	DWORD PTR _this$[ebp], ecx
	mov	eax, DWORD PTR _this$[ebp]
	movss	xmm0, DWORD PTR _X$[ebp]
	movss	DWORD PTR [eax], xmm0
	mov	eax, DWORD PTR _this$[ebp]
	movss	xmm0, DWORD PTR _Y$[ebp]
	movss	DWORD PTR [eax+4], xmm0
	mov	eax, DWORD PTR _this$[ebp]
	movss	xmm0, DWORD PTR _Z$[ebp]
	movss	DWORD PTR [eax+8], xmm0
	mov	eax, DWORD PTR _this$[ebp]
	pop	edi
	pop	esi
	pop	ebx
	mov	esp, ebp
	pop	ebp
	ret	12					; 0000000cH
??0Vector@@QAE@MMM@Z ENDP				; Vector::Vector
_TEXT	ENDS
; Function compile flags: /Odtp /ZI
; File d:\!diffusion 2020\source code 2022\client-server\game_shared\vector.h
;	COMDAT ??0Vector@@QAE@XZ
_TEXT	SEGMENT
_this$ = -4						; size = 4
??0Vector@@QAE@XZ PROC					; Vector::Vector, COMDAT
; _this$ = ecx

; 143  : 	inline Vector(void)				{ }

	push	ebp
	mov	ebp, esp
	sub	esp, 68					; 00000044H
	push	ebx
	push	esi
	push	edi
	mov	DWORD PTR _this$[ebp], ecx
	mov	eax, DWORD PTR _this$[ebp]
	pop	edi
	pop	esi
	pop	ebx
	mov	esp, ebp
	pop	ebp
	ret	0
??0Vector@@QAE@XZ ENDP					; Vector::Vector
_TEXT	ENDS
; Function compile flags: /Odtp /ZI
; File d:\!diffusion 2020\source code 2022\client-server\game_shared\vector.h
;	COMDAT ??0Vector2D@@QAE@MM@Z
_TEXT	SEGMENT
_this$ = -4						; size = 4
_X$ = 8							; size = 4
_Y$ = 12						; size = 4
??0Vector2D@@QAE@MM@Z PROC				; Vector2D::Vector2D, COMDAT
; _this$ = ecx

; 61   : 	inline Vector2D(float X, float Y) { x = X; y = Y; }

	push	ebp
	mov	ebp, esp
	sub	esp, 68					; 00000044H
	push	ebx
	push	esi
	push	edi
	mov	DWORD PTR _this$[ebp], ecx
	mov	eax, DWORD PTR _this$[ebp]
	movss	xmm0, DWORD PTR _X$[ebp]
	movss	DWORD PTR [eax], xmm0
	mov	eax, DWORD PTR _this$[ebp]
	movss	xmm0, DWORD PTR _Y$[ebp]
	movss	DWORD PTR [eax+4], xmm0
	mov	eax, DWORD PTR _this$[ebp]
	pop	edi
	pop	esi
	pop	ebx
	mov	esp, ebp
	pop	ebp
	ret	8
??0Vector2D@@QAE@MM@Z ENDP				; Vector2D::Vector2D
_TEXT	ENDS
; Function compile flags: /Odtp /ZI
;	COMDAT ??__G@YGXPAX0IIP6EPAX00@Z@Z
_TEXT	SEGMENT
tv66 = -68						; size = 4
___t$ = 8						; size = 4
___u$ = 12						; size = 4
___s$ = 16						; size = 4
___n$ = 20						; size = 4
___f$ = 24						; size = 4
??__G@YGXPAX0IIP6EPAX00@Z@Z PROC			; `vector copy constructor iterator', COMDAT
	push	ebp
	mov	ebp, esp
	sub	esp, 68					; 00000044H
	push	ebx
	push	esi
	push	edi
$LN2@vector:
	mov	eax, DWORD PTR ___n$[ebp]
	mov	DWORD PTR tv66[ebp], eax
	mov	ecx, DWORD PTR ___n$[ebp]
	sub	ecx, 1
	mov	DWORD PTR ___n$[ebp], ecx
	cmp	DWORD PTR tv66[ebp], 0
	jbe	SHORT $LN1@vector
	mov	eax, DWORD PTR ___u$[ebp]
	push	eax
	mov	ecx, DWORD PTR ___t$[ebp]
	call	DWORD PTR ___f$[ebp]
	mov	eax, DWORD PTR ___t$[ebp]
	add	eax, DWORD PTR ___s$[ebp]
	mov	DWORD PTR ___t$[ebp], eax
	mov	eax, DWORD PTR ___u$[ebp]
	add	eax, DWORD PTR ___s$[ebp]
	mov	DWORD PTR ___u$[ebp], eax
	jmp	SHORT $LN2@vector
$LN1@vector:
	pop	edi
	pop	esi
	pop	ebx
	mov	esp, ebp
	pop	ebp
	ret	20					; 00000014H
??__G@YGXPAX0IIP6EPAX00@Z@Z ENDP			; `vector copy constructor iterator'
_TEXT	ENDS
; Function compile flags: /Odtp /ZI
;	COMDAT ??_H@YGXPAXIIP6EPAX0@Z@Z
_TEXT	SEGMENT
tv66 = -68						; size = 4
___t$ = 8						; size = 4
___s$ = 12						; size = 4
___n$ = 16						; size = 4
___f$ = 20						; size = 4
??_H@YGXPAXIIP6EPAX0@Z@Z PROC				; `vector constructor iterator', COMDAT
	push	ebp
	mov	ebp, esp
	sub	esp, 68					; 00000044H
	push	ebx
	push	esi
	push	edi
$LN2@vector:
	mov	eax, DWORD PTR ___n$[ebp]
	mov	DWORD PTR tv66[ebp], eax
	mov	ecx, DWORD PTR ___n$[ebp]
	sub	ecx, 1
	mov	DWORD PTR ___n$[ebp], ecx
	cmp	DWORD PTR tv66[ebp], 0
	jbe	SHORT $LN1@vector
	mov	ecx, DWORD PTR ___t$[ebp]
	call	DWORD PTR ___f$[ebp]
	mov	eax, DWORD PTR ___t$[ebp]
	add	eax, DWORD PTR ___s$[ebp]
	mov	DWORD PTR ___t$[ebp], eax
	jmp	SHORT $LN2@vector
$LN1@vector:
	pop	edi
	pop	esi
	pop	ebx
	mov	esp, ebp
	pop	ebp
	ret	16					; 00000010H
??_H@YGXPAXIIP6EPAX0@Z@Z ENDP				; `vector constructor iterator'
_TEXT	ENDS
END
