; Listing generated by Microsoft (R) Optimizing Compiler Version 19.00.24247.2 

	TITLE	D:\!DIFFUSION 2020\source code 2022\client-server\client\render\view.cpp
	.686P
	.XMM
	include listing.inc
	.model	flat

INCLUDELIB LIBCMT
INCLUDELIB OLDNAMES

PUBLIC	?pd@@3U<unnamed-type-pd>@@A			; pd
PUBLIC	??_C@_0BG@HKBMANOC@models?1p_crossbow?4mdl?$AA@	; `string'
PUBLIC	??_C@_0BG@FIOGNJBA@models?1v_crossbow?4mdl?$AA@	; `string'
PUBLIC	??_C@_0BF@CKKEOHHH@models?1p_crowbar?4mdl?$AA@	; `string'
PUBLIC	??_C@_0BF@NCGGKMMB@models?1v_crowbar?4mdl?$AA@	; `string'
PUBLIC	??_C@_0BC@GKFFGKMI@models?1p_egon?4mdl?$AA@	; `string'
PUBLIC	??_C@_0BC@ICOAKAIL@models?1v_egon?4mdl?$AA@	; `string'
PUBLIC	??_C@_0BH@GDKDDFKC@models?1p_gausniper?4mdl?$AA@ ; `string'
PUBLIC	??_C@_0BH@DADCFMEG@models?1v_gausniper?4mdl?$AA@ ; `string'
PUBLIC	??_C@_0BI@EPPIOHID@models?1p_9mmhandgun?4mdl?$AA@ ; `string'
PUBLIC	??_C@_0BI@OIMMFAIL@models?1v_9mmhandgun?4mdl?$AA@ ; `string'
PUBLIC	??_C@_0BF@PMIHKCIM@models?1p_grenade?4mdl?$AA@	; `string'
PUBLIC	??_C@_0BF@EEFOJDK@models?1v_grenade?4mdl?$AA@	; `string'
PUBLIC	??_C@_0BC@FILEEOBP@models?1p_hgun?4mdl?$AA@	; `string'
PUBLIC	??_C@_0BC@LAABIEFM@models?1v_hgun?4mdl?$AA@	; `string'
PUBLIC	??_C@_0BD@BODGIAC@models?1p_9mmAR?4mdl?$AA@	; `string'
PUBLIC	??_C@_0BD@OONOMNOC@models?1v_9mmAR?4mdl?$AA@	; `string'
PUBLIC	??_C@_0BB@HAMKIBDK@models?1p_357?4mdl?$AA@	; `string'
PUBLIC	??_C@_0BB@HNNEPBHN@models?1v_357?4mdl?$AA@	; `string'
PUBLIC	??_C@_0BB@IPEABBGA@models?1p_rpg?4mdl?$AA@	; `string'
PUBLIC	??_C@_0BB@ICFOGBCH@models?1v_rpg?4mdl?$AA@	; `string'
PUBLIC	??_C@_0BF@PMANNOFI@models?1p_shotgun?4mdl?$AA@	; `string'
PUBLIC	??_C@_0BF@EMPJFOO@models?1v_shotgun?4mdl?$AA@	; `string'
PUBLIC	??_C@_0BE@OOEABCJM@models?1p_squeak?4mdl?$AA@	; `string'
PUBLIC	??_C@_0BE@EOKFMNEB@models?1v_squeak?4mdl?$AA@	; `string'
PUBLIC	??_C@_0BG@GBOLPBLB@models?1p_tripmine?4mdl?$AA@	; `string'
PUBLIC	??_C@_0BG@EDBBCFED@models?1v_tripmine?4mdl?$AA@	; `string'
PUBLIC	??_C@_0BL@DCPBNACK@models?1p_satchel_radio?4mdl?$AA@ ; `string'
PUBLIC	??_C@_0BL@LGNCENPP@models?1v_satchel_radio?4mdl?$AA@ ; `string'
PUBLIC	??_C@_0BF@GDJJJKBD@models?1p_satchel?4mdl?$AA@	; `string'
PUBLIC	??_C@_0BF@JLFLNBKF@models?1v_satchel?4mdl?$AA@	; `string'
PUBLIC	?v_intermission_spot@@3PAUcl_entity_s@@A	; v_intermission_spot
PUBLIC	?pause@@3HA					; pause
PUBLIC	?GunPosZCurrent@@3MA				; GunPosZCurrent
PUBLIC	?UnderwaterSoundPlaying@@3_NA			; UnderwaterSoundPlaying
PUBLIC	?g_iPlayerClass@@3HA				; g_iPlayerClass
PUBLIC	?g_iTeamNumber@@3HA				; g_iTeamNumber
PUBLIC	?g_iUser1@@3HA					; g_iUser1
PUBLIC	?g_iUser2@@3HA					; g_iUser2
PUBLIC	?g_iUser3@@3HA					; g_iUser3
PUBLIC	?g_bDucked@@3_NA				; g_bDucked
PUBLIC	?g_fFrametime@@3MA				; g_fFrametime
PUBLIC	?localanim_NextPAttackTime@@3MA			; localanim_NextPAttackTime
PUBLIC	?localanim_NextSAttackTime@@3MA			; localanim_NextSAttackTime
PUBLIC	?localanim_WeaponID@@3HA			; localanim_WeaponID
PUBLIC	?localanim_AllowRpgShoot@@3_NA			; localanim_AllowRpgShoot
PUBLIC	?v_frametime@@3MA				; v_frametime
PUBLIC	?v_lastDistance@@3MA				; v_lastDistance
PUBLIC	?v_cameraRelaxAngle@@3MA			; v_cameraRelaxAngle
PUBLIC	?v_cameraFocusAngle@@3MA			; v_cameraFocusAngle
PUBLIC	?v_resetCamera@@3HA				; v_resetCamera
PUBLIC	?g_lateralBob@@3MA				; g_lateralBob
PUBLIC	?g_verticalBob@@3MA				; g_verticalBob
PUBLIC	?cl_bobcycle@@3PAUcvar_s@@A			; cl_bobcycle
PUBLIC	?cl_bob@@3PAUcvar_s@@A				; cl_bob
PUBLIC	?cl_bobup@@3PAUcvar_s@@A			; cl_bobup
PUBLIC	?cl_waterdist@@3PAUcvar_s@@A			; cl_waterdist
PUBLIC	?cl_chasedist@@3PAUcvar_s@@A			; cl_chasedist
PUBLIC	?cl_weaponlag@@3PAUcvar_s@@A			; cl_weaponlag
PUBLIC	?cl_vsmoothing@@3PAUcvar_s@@A			; cl_vsmoothing
PUBLIC	?v_centermove@@3PAUcvar_s@@A			; v_centermove
PUBLIC	?v_centerspeed@@3PAUcvar_s@@A			; v_centerspeed
PUBLIC	?v_iyaw_cycle@@3Ucvar_s@@A			; v_iyaw_cycle
PUBLIC	??_C@_0N@LHNGEHIH@v_iyaw_cycle?$AA@		; `string'
PUBLIC	?v_idlescale@@3MA				; v_idlescale
PUBLIC	??_C@_01FDFGLJHB@2?$AA@				; `string'
PUBLIC	?v_iroll_cycle@@3Ucvar_s@@A			; v_iroll_cycle
PUBLIC	??_C@_0O@MDLCCKMC@v_iroll_cycle?$AA@		; `string'
PUBLIC	??_C@_03LOHCHBBO@0?45?$AA@			; `string'
PUBLIC	?v_ipitch_cycle@@3Ucvar_s@@A			; v_ipitch_cycle
PUBLIC	??_C@_0P@LNAJMEAA@v_ipitch_cycle?$AA@		; `string'
PUBLIC	??_C@_01HIHLOKLC@1?$AA@				; `string'
PUBLIC	?v_iyaw_level@@3Ucvar_s@@A			; v_iyaw_level
PUBLIC	??_C@_0N@FKEEKILK@v_iyaw_level?$AA@		; `string'
PUBLIC	??_C@_03OICINGJI@0?43?$AA@			; `string'
PUBLIC	?v_iroll_level@@3Ucvar_s@@A			; v_iroll_level
PUBLIC	??_C@_0O@COCAMFPP@v_iroll_level?$AA@		; `string'
PUBLIC	??_C@_03NKBOLEBK@0?41?$AA@			; `string'
PUBLIC	?v_ipitch_level@@3Ucvar_s@@A			; v_ipitch_level
PUBLIC	??_C@_0P@FAJLCLDN@v_ipitch_level?$AA@		; `string'
PUBLIC	?gl_renderer@@3PAUcvar_s@@A			; gl_renderer
PUBLIC	?gl_test@@3PAUcvar_s@@A				; gl_test
PUBLIC	?r_extensions@@3PAUcvar_s@@A			; r_extensions
PUBLIC	?r_shadows@@3PAUcvar_s@@A			; r_shadows
PUBLIC	?r_finish@@3PAUcvar_s@@A			; r_finish
PUBLIC	?r_clear@@3PAUcvar_s@@A				; r_clear
PUBLIC	?r_speeds@@3PAUcvar_s@@A			; r_speeds
PUBLIC	?cl_viewsize@@3PAUcvar_s@@A			; cl_viewsize
PUBLIC	?cl_hitsound@@3PAUcvar_s@@A			; cl_hitsound
PUBLIC	?cl_muzzlelight@@3PAUcvar_s@@A			; cl_muzzlelight
PUBLIC	?cl_localweaponanims@@3PAUcvar_s@@A		; cl_localweaponanims
PUBLIC	?cl_achievement_notify@@3PAUcvar_s@@A		; cl_achievement_notify
PUBLIC	?r_dynamic@@3PAUcvar_s@@A			; r_dynamic
PUBLIC	?r_novis@@3PAUcvar_s@@A				; r_novis
PUBLIC	?r_nocull@@3PAUcvar_s@@A			; r_nocull
PUBLIC	?r_nosort@@3PAUcvar_s@@A			; r_nosort
PUBLIC	?r_lockpvs@@3PAUcvar_s@@A			; r_lockpvs
PUBLIC	?r_lightmap@@3PAUcvar_s@@A			; r_lightmap
PUBLIC	?r_adjust_fov@@3PAUcvar_s@@A			; r_adjust_fov
PUBLIC	?r_wireframe@@3PAUcvar_s@@A			; r_wireframe
PUBLIC	?r_fullbright@@3PAUcvar_s@@A			; r_fullbright
PUBLIC	?r_drawentities@@3PAUcvar_s@@A			; r_drawentities
PUBLIC	?r_drawworld@@3PAUcvar_s@@A			; r_drawworld
PUBLIC	?r_drawsprites@@3PAUcvar_s@@A			; r_drawsprites
PUBLIC	?r_drawmodels@@3PAUcvar_s@@A			; r_drawmodels
PUBLIC	?r_allow_3dsky@@3PAUcvar_s@@A			; r_allow_3dsky
PUBLIC	?gl_allow_portals@@3PAUcvar_s@@A		; gl_allow_portals
PUBLIC	?gl_allow_screens@@3PAUcvar_s@@A		; gl_allow_screens
PUBLIC	?r_recursion_depth@@3PAUcvar_s@@A		; r_recursion_depth
PUBLIC	?r_detailtextures@@3PAUcvar_s@@A		; r_detailtextures
PUBLIC	?r_lighting_modulate@@3PAUcvar_s@@A		; r_lighting_modulate
PUBLIC	?r_lightstyle_lerping@@3PAUcvar_s@@A		; r_lightstyle_lerping
PUBLIC	?r_lighting_extended@@3PAUcvar_s@@A		; r_lighting_extended
PUBLIC	?r_recursive_world_node@@3PAUcvar_s@@A		; r_recursive_world_node
PUBLIC	?r_polyoffset@@3PAUcvar_s@@A			; r_polyoffset
PUBLIC	?r_grass@@3PAUcvar_s@@A				; r_grass
PUBLIC	?r_grass_alpha@@3PAUcvar_s@@A			; r_grass_alpha
PUBLIC	?r_grass_lighting@@3PAUcvar_s@@A		; r_grass_lighting
PUBLIC	?r_grass_shadows@@3PAUcvar_s@@A			; r_grass_shadows
PUBLIC	?r_grass_fade_start@@3PAUcvar_s@@A		; r_grass_fade_start
PUBLIC	?r_grass_fade_dist@@3PAUcvar_s@@A		; r_grass_fade_dist
PUBLIC	?gl_check_errors@@3PAUcvar_s@@A			; gl_check_errors
PUBLIC	?vid_gamma@@3PAUcvar_s@@A			; vid_gamma
PUBLIC	?vid_brightness@@3PAUcvar_s@@A			; vid_brightness
PUBLIC	?r_show_renderpass@@3PAUcvar_s@@A		; r_show_renderpass
PUBLIC	?r_show_light_scissors@@3PAUcvar_s@@A		; r_show_light_scissors
PUBLIC	?r_show_normals@@3PAUcvar_s@@A			; r_show_normals
PUBLIC	?r_show_lightprobes@@3PAUcvar_s@@A		; r_show_lightprobes
PUBLIC	?r_fade_props@@3PAUcvar_s@@A			; r_fade_props
PUBLIC	?r_show_cubemaps@@3PAUcvar_s@@A			; r_show_cubemaps
PUBLIC	?r_bloom_alpha@@3PAUcvar_s@@A			; r_bloom_alpha
PUBLIC	?r_bloom_darken@@3PAUcvar_s@@A			; r_bloom_darken
PUBLIC	?r_bloom_sample_size@@3PAUcvar_s@@A		; r_bloom_sample_size
PUBLIC	?r_bloom_fast_sample@@3PAUcvar_s@@A		; r_bloom_fast_sample
PUBLIC	?r_bloom_diamond_size@@3PAUcvar_s@@A		; r_bloom_diamond_size
PUBLIC	?r_bloom_intensity@@3PAUcvar_s@@A		; r_bloom_intensity
PUBLIC	?r_bloom_sprites@@3PAUcvar_s@@A			; r_bloom_sprites
PUBLIC	?r_bloom@@3PAUcvar_s@@A				; r_bloom
PUBLIC	?r_blur@@3PAUcvar_s@@A				; r_blur
PUBLIC	?r_blur_threshold@@3PAUcvar_s@@A		; r_blur_threshold
PUBLIC	?r_blur_strength@@3PAUcvar_s@@A			; r_blur_strength
PUBLIC	?gl_sunshafts@@3PAUcvar_s@@A			; gl_sunshafts
PUBLIC	?gl_sunshafts_blur@@3PAUcvar_s@@A		; gl_sunshafts_blur
PUBLIC	?gl_sunshafts_brightness@@3PAUcvar_s@@A		; gl_sunshafts_brightness
PUBLIC	?gl_ssao@@3PAUcvar_s@@A				; gl_ssao
PUBLIC	?gl_ssao_debug@@3PAUcvar_s@@A			; gl_ssao_debug
PUBLIC	?thirdperson@@3PAUcvar_s@@A			; thirdperson
PUBLIC	?r_sun_allowed@@3PAUcvar_s@@A			; r_sun_allowed
PUBLIC	?cl_showmsgs@@3PAUcvar_s@@A			; cl_showmsgs
PUBLIC	?cl_viewmodelblend@@3PAUcvar_s@@A		; cl_viewmodelblend
PUBLIC	?cl_tutor@@3PAUcvar_s@@A			; cl_tutor
PUBLIC	?cl_showhealthbars@@3PAUcvar_s@@A		; cl_showhealthbars
PUBLIC	?r_shadowquality@@3PAUcvar_s@@A			; r_shadowquality
PUBLIC	?r_mirrorquality@@3PAUcvar_s@@A			; r_mirrorquality
PUBLIC	?r_testdlight@@3PAUcvar_s@@A			; r_testdlight
PUBLIC	?gl_lensflare@@3PAUcvar_s@@A			; gl_lensflare
PUBLIC	?gl_water_refraction@@3PAUcvar_s@@A		; gl_water_refraction
PUBLIC	?gl_water_planar@@3PAUcvar_s@@A			; gl_water_planar
PUBLIC	?gl_exposure@@3PAUcvar_s@@A			; gl_exposure
PUBLIC	?gl_emboss@@3PAUcvar_s@@A			; gl_emboss
PUBLIC	?gl_specular@@3PAUcvar_s@@A			; gl_specular
PUBLIC	?gl_cubemaps@@3PAUcvar_s@@A			; gl_cubemaps
PUBLIC	?gl_bump@@3PAUcvar_s@@A				; gl_bump
PUBLIC	?cubeshot@@3PAUcvar_s@@A			; cubeshot
PUBLIC	?cl_notbn@@3PAUcvar_s@@A			; cl_notbn
PUBLIC	?ui_is_active@@3PAUcvar_s@@A			; ui_is_active
PUBLIC	?ui_backgroundmap_active@@3PAUcvar_s@@A		; ui_backgroundmap_active
_BSS	SEGMENT
?pd@@3U<unnamed-type-pd>@@A DB 018H DUP (?)		; pd
?lastWeaponModelIndex@?1??V_CalcSpectatorRefdef@@YAXPAUref_params_s@@@Z@4HA DD 01H DUP (?) ; `V_CalcSpectatorRefdef'::`2'::lastWeaponModelIndex
?lastViewModelIndex@?1??V_CalcSpectatorRefdef@@YAXPAUref_params_s@@@Z@4HA DD 01H DUP (?) ; `V_CalcSpectatorRefdef'::`2'::lastViewModelIndex
?add@?1??V_CalcViewModelLag@@YAXPAUref_params_s@@AAVVector@@1ABV3@@Z@4MA DD 01H DUP (?) ; `V_CalcViewModelLag'::`2'::add
?oldz@?1??V_CalcCameraRefdef@@YAXPAUref_params_s@@@Z@4MA DD 01H DUP (?) ; `V_CalcCameraRefdef'::`2'::oldz
?oldz@?1??V_CalcThirdPersonRefdef@@YAXPAUref_params_s@@@Z@4MA DD 01H DUP (?) ; `V_CalcThirdPersonRefdef'::`2'::oldz
?v_intermission_spot@@3PAUcl_entity_s@@A DD 01H DUP (?)	; v_intermission_spot
?wiggling_mult@?1??V_CalcFirstPersonRefdef@@YAXPAUref_params_s@@@Z@4MA DD 01H DUP (?) ; `V_CalcFirstPersonRefdef'::`2'::wiggling_mult
?angle@?BP@??V_CalcFirstPersonRefdef@@YAXPAUref_params_s@@@Z@4MA DD 01H DUP (?) ; `V_CalcFirstPersonRefdef'::`31'::angle
?pause@@3HA DD	01H DUP (?)				; pause
?GunPosZCurrent@@3MA DD 01H DUP (?)			; GunPosZCurrent
?tmtm@?BP@??V_CalcFirstPersonRefdef@@YAXPAUref_params_s@@@Z@4MA DD 01H DUP (?) ; `V_CalcFirstPersonRefdef'::`31'::tmtm
?UnderwaterSoundPlaying@@3_NA DB 01H DUP (?)		; UnderwaterSoundPlaying
	ALIGN	4

?Roll@?BP@??V_CalcFirstPersonRefdef@@YAXPAUref_params_s@@@Z@4MA DD 01H DUP (?) ; `V_CalcFirstPersonRefdef'::`31'::Roll
?oldz@?1??V_CalcFirstPersonRefdef@@YAXPAUref_params_s@@@Z@4MA DD 01H DUP (?) ; `V_CalcFirstPersonRefdef'::`2'::oldz
?g_iPlayerClass@@3HA DD 01H DUP (?)			; g_iPlayerClass
?g_iTeamNumber@@3HA DD 01H DUP (?)			; g_iTeamNumber
?g_iUser1@@3HA DD 01H DUP (?)				; g_iUser1
?g_iUser2@@3HA DD 01H DUP (?)				; g_iUser2
?g_iUser3@@3HA DD 01H DUP (?)				; g_iUser3
?g_bDucked@@3_NA DB 01H DUP (?)				; g_bDucked
	ALIGN	4

?g_fFrametime@@3MA DD 01H DUP (?)			; g_fFrametime
?localanim_NextPAttackTime@@3MA DD 01H DUP (?)		; localanim_NextPAttackTime
?localanim_NextSAttackTime@@3MA DD 01H DUP (?)		; localanim_NextSAttackTime
?localanim_WeaponID@@3HA DD 01H DUP (?)			; localanim_WeaponID
?localanim_AllowRpgShoot@@3_NA DB 01H DUP (?)		; localanim_AllowRpgShoot
	ALIGN	4

?v_frametime@@3MA DD 01H DUP (?)			; v_frametime
?v_lastDistance@@3MA DD 01H DUP (?)			; v_lastDistance
?g_lateralBob@@3MA DD 01H DUP (?)			; g_lateralBob
?g_verticalBob@@3MA DD 01H DUP (?)			; g_verticalBob
?cl_bobcycle@@3PAUcvar_s@@A DD 01H DUP (?)		; cl_bobcycle
?cl_bob@@3PAUcvar_s@@A DD 01H DUP (?)			; cl_bob
?cl_bobup@@3PAUcvar_s@@A DD 01H DUP (?)			; cl_bobup
?cl_waterdist@@3PAUcvar_s@@A DD 01H DUP (?)		; cl_waterdist
?cl_chasedist@@3PAUcvar_s@@A DD 01H DUP (?)		; cl_chasedist
?cl_weaponlag@@3PAUcvar_s@@A DD 01H DUP (?)		; cl_weaponlag
?cl_vsmoothing@@3PAUcvar_s@@A DD 01H DUP (?)		; cl_vsmoothing
?v_centermove@@3PAUcvar_s@@A DD 01H DUP (?)		; v_centermove
?v_centerspeed@@3PAUcvar_s@@A DD 01H DUP (?)		; v_centerspeed
?v_idlescale@@3MA DD 01H DUP (?)			; v_idlescale
?woosh_vol@?1??PlayFlingWhooshSound@@YAXPAUref_params_s@@@Z@4MA DD 01H DUP (?) ; `PlayFlingWhooshSound'::`2'::woosh_vol
?gl_renderer@@3PAUcvar_s@@A DD 01H DUP (?)		; gl_renderer
?gl_test@@3PAUcvar_s@@A DD 01H DUP (?)			; gl_test
?r_extensions@@3PAUcvar_s@@A DD 01H DUP (?)		; r_extensions
?r_shadows@@3PAUcvar_s@@A DD 01H DUP (?)		; r_shadows
?r_finish@@3PAUcvar_s@@A DD 01H DUP (?)			; r_finish
?r_clear@@3PAUcvar_s@@A DD 01H DUP (?)			; r_clear
?r_speeds@@3PAUcvar_s@@A DD 01H DUP (?)			; r_speeds
?cl_viewsize@@3PAUcvar_s@@A DD 01H DUP (?)		; cl_viewsize
?cl_hitsound@@3PAUcvar_s@@A DD 01H DUP (?)		; cl_hitsound
?cl_muzzlelight@@3PAUcvar_s@@A DD 01H DUP (?)		; cl_muzzlelight
?cl_localweaponanims@@3PAUcvar_s@@A DD 01H DUP (?)	; cl_localweaponanims
?cl_achievement_notify@@3PAUcvar_s@@A DD 01H DUP (?)	; cl_achievement_notify
?r_dynamic@@3PAUcvar_s@@A DD 01H DUP (?)		; r_dynamic
?r_novis@@3PAUcvar_s@@A DD 01H DUP (?)			; r_novis
?r_nocull@@3PAUcvar_s@@A DD 01H DUP (?)			; r_nocull
?r_nosort@@3PAUcvar_s@@A DD 01H DUP (?)			; r_nosort
?r_lockpvs@@3PAUcvar_s@@A DD 01H DUP (?)		; r_lockpvs
?r_lightmap@@3PAUcvar_s@@A DD 01H DUP (?)		; r_lightmap
?r_adjust_fov@@3PAUcvar_s@@A DD 01H DUP (?)		; r_adjust_fov
?r_wireframe@@3PAUcvar_s@@A DD 01H DUP (?)		; r_wireframe
?r_fullbright@@3PAUcvar_s@@A DD 01H DUP (?)		; r_fullbright
?r_drawentities@@3PAUcvar_s@@A DD 01H DUP (?)		; r_drawentities
?r_drawworld@@3PAUcvar_s@@A DD 01H DUP (?)		; r_drawworld
?r_drawsprites@@3PAUcvar_s@@A DD 01H DUP (?)		; r_drawsprites
?r_drawmodels@@3PAUcvar_s@@A DD 01H DUP (?)		; r_drawmodels
?r_allow_3dsky@@3PAUcvar_s@@A DD 01H DUP (?)		; r_allow_3dsky
?gl_allow_portals@@3PAUcvar_s@@A DD 01H DUP (?)		; gl_allow_portals
?gl_allow_screens@@3PAUcvar_s@@A DD 01H DUP (?)		; gl_allow_screens
?r_recursion_depth@@3PAUcvar_s@@A DD 01H DUP (?)	; r_recursion_depth
?r_detailtextures@@3PAUcvar_s@@A DD 01H DUP (?)		; r_detailtextures
?r_lighting_modulate@@3PAUcvar_s@@A DD 01H DUP (?)	; r_lighting_modulate
?r_lightstyle_lerping@@3PAUcvar_s@@A DD 01H DUP (?)	; r_lightstyle_lerping
?r_lighting_extended@@3PAUcvar_s@@A DD 01H DUP (?)	; r_lighting_extended
?r_recursive_world_node@@3PAUcvar_s@@A DD 01H DUP (?)	; r_recursive_world_node
?r_polyoffset@@3PAUcvar_s@@A DD 01H DUP (?)		; r_polyoffset
?r_grass@@3PAUcvar_s@@A DD 01H DUP (?)			; r_grass
?r_grass_alpha@@3PAUcvar_s@@A DD 01H DUP (?)		; r_grass_alpha
?r_grass_lighting@@3PAUcvar_s@@A DD 01H DUP (?)		; r_grass_lighting
?r_grass_shadows@@3PAUcvar_s@@A DD 01H DUP (?)		; r_grass_shadows
?r_grass_fade_start@@3PAUcvar_s@@A DD 01H DUP (?)	; r_grass_fade_start
?r_grass_fade_dist@@3PAUcvar_s@@A DD 01H DUP (?)	; r_grass_fade_dist
?gl_check_errors@@3PAUcvar_s@@A DD 01H DUP (?)		; gl_check_errors
?vid_gamma@@3PAUcvar_s@@A DD 01H DUP (?)		; vid_gamma
?vid_brightness@@3PAUcvar_s@@A DD 01H DUP (?)		; vid_brightness
?r_show_renderpass@@3PAUcvar_s@@A DD 01H DUP (?)	; r_show_renderpass
?r_show_light_scissors@@3PAUcvar_s@@A DD 01H DUP (?)	; r_show_light_scissors
?r_show_normals@@3PAUcvar_s@@A DD 01H DUP (?)		; r_show_normals
?r_show_lightprobes@@3PAUcvar_s@@A DD 01H DUP (?)	; r_show_lightprobes
?r_fade_props@@3PAUcvar_s@@A DD 01H DUP (?)		; r_fade_props
?r_show_cubemaps@@3PAUcvar_s@@A DD 01H DUP (?)		; r_show_cubemaps
?r_bloom_alpha@@3PAUcvar_s@@A DD 01H DUP (?)		; r_bloom_alpha
?r_bloom_darken@@3PAUcvar_s@@A DD 01H DUP (?)		; r_bloom_darken
?r_bloom_sample_size@@3PAUcvar_s@@A DD 01H DUP (?)	; r_bloom_sample_size
?r_bloom_fast_sample@@3PAUcvar_s@@A DD 01H DUP (?)	; r_bloom_fast_sample
?r_bloom_diamond_size@@3PAUcvar_s@@A DD 01H DUP (?)	; r_bloom_diamond_size
?r_bloom_intensity@@3PAUcvar_s@@A DD 01H DUP (?)	; r_bloom_intensity
?r_bloom_sprites@@3PAUcvar_s@@A DD 01H DUP (?)		; r_bloom_sprites
?r_bloom@@3PAUcvar_s@@A DD 01H DUP (?)			; r_bloom
?r_blur@@3PAUcvar_s@@A DD 01H DUP (?)			; r_blur
?r_blur_threshold@@3PAUcvar_s@@A DD 01H DUP (?)		; r_blur_threshold
?r_blur_strength@@3PAUcvar_s@@A DD 01H DUP (?)		; r_blur_strength
?gl_sunshafts@@3PAUcvar_s@@A DD 01H DUP (?)		; gl_sunshafts
?gl_sunshafts_blur@@3PAUcvar_s@@A DD 01H DUP (?)	; gl_sunshafts_blur
?gl_sunshafts_brightness@@3PAUcvar_s@@A DD 01H DUP (?)	; gl_sunshafts_brightness
?gl_ssao@@3PAUcvar_s@@A DD 01H DUP (?)			; gl_ssao
?gl_ssao_debug@@3PAUcvar_s@@A DD 01H DUP (?)		; gl_ssao_debug
?thirdperson@@3PAUcvar_s@@A DD 01H DUP (?)		; thirdperson
?r_sun_allowed@@3PAUcvar_s@@A DD 01H DUP (?)		; r_sun_allowed
?cl_showmsgs@@3PAUcvar_s@@A DD 01H DUP (?)		; cl_showmsgs
?cl_viewmodelblend@@3PAUcvar_s@@A DD 01H DUP (?)	; cl_viewmodelblend
?cl_tutor@@3PAUcvar_s@@A DD 01H DUP (?)			; cl_tutor
?cl_showhealthbars@@3PAUcvar_s@@A DD 01H DUP (?)	; cl_showhealthbars
?r_shadowquality@@3PAUcvar_s@@A DD 01H DUP (?)		; r_shadowquality
?r_mirrorquality@@3PAUcvar_s@@A DD 01H DUP (?)		; r_mirrorquality
?r_testdlight@@3PAUcvar_s@@A DD 01H DUP (?)		; r_testdlight
?gl_lensflare@@3PAUcvar_s@@A DD 01H DUP (?)		; gl_lensflare
?gl_water_refraction@@3PAUcvar_s@@A DD 01H DUP (?)	; gl_water_refraction
?gl_water_planar@@3PAUcvar_s@@A DD 01H DUP (?)		; gl_water_planar
?gl_exposure@@3PAUcvar_s@@A DD 01H DUP (?)		; gl_exposure
?gl_emboss@@3PAUcvar_s@@A DD 01H DUP (?)		; gl_emboss
?gl_specular@@3PAUcvar_s@@A DD 01H DUP (?)		; gl_specular
?gl_cubemaps@@3PAUcvar_s@@A DD 01H DUP (?)		; gl_cubemaps
?gl_bump@@3PAUcvar_s@@A DD 01H DUP (?)			; gl_bump
?cubeshot@@3PAUcvar_s@@A DD 01H DUP (?)			; cubeshot
?cl_notbn@@3PAUcvar_s@@A DD 01H DUP (?)			; cl_notbn
?ui_is_active@@3PAUcvar_s@@A DD 01H DUP (?)		; ui_is_active
?ui_backgroundmap_active@@3PAUcvar_s@@A DD 01H DUP (?)	; ui_backgroundmap_active
_BSS	ENDS
;	COMDAT ??_C@_0P@FAJLCLDN@v_ipitch_level?$AA@
CONST	SEGMENT
??_C@_0P@FAJLCLDN@v_ipitch_level?$AA@ DB 'v_ipitch_level', 00H ; `string'
CONST	ENDS
;	COMDAT ??_C@_03NKBOLEBK@0?41?$AA@
CONST	SEGMENT
??_C@_03NKBOLEBK@0?41?$AA@ DB '0.1', 00H		; `string'
CONST	ENDS
;	COMDAT ??_C@_0O@COCAMFPP@v_iroll_level?$AA@
CONST	SEGMENT
??_C@_0O@COCAMFPP@v_iroll_level?$AA@ DB 'v_iroll_level', 00H ; `string'
CONST	ENDS
;	COMDAT ??_C@_03OICINGJI@0?43?$AA@
CONST	SEGMENT
??_C@_03OICINGJI@0?43?$AA@ DB '0.3', 00H		; `string'
CONST	ENDS
;	COMDAT ??_C@_0N@FKEEKILK@v_iyaw_level?$AA@
CONST	SEGMENT
??_C@_0N@FKEEKILK@v_iyaw_level?$AA@ DB 'v_iyaw_level', 00H ; `string'
CONST	ENDS
;	COMDAT ??_C@_01HIHLOKLC@1?$AA@
CONST	SEGMENT
??_C@_01HIHLOKLC@1?$AA@ DB '1', 00H			; `string'
CONST	ENDS
;	COMDAT ??_C@_0P@LNAJMEAA@v_ipitch_cycle?$AA@
CONST	SEGMENT
??_C@_0P@LNAJMEAA@v_ipitch_cycle?$AA@ DB 'v_ipitch_cycle', 00H ; `string'
CONST	ENDS
;	COMDAT ??_C@_03LOHCHBBO@0?45?$AA@
CONST	SEGMENT
??_C@_03LOHCHBBO@0?45?$AA@ DB '0.5', 00H		; `string'
CONST	ENDS
;	COMDAT ??_C@_0O@MDLCCKMC@v_iroll_cycle?$AA@
CONST	SEGMENT
??_C@_0O@MDLCCKMC@v_iroll_cycle?$AA@ DB 'v_iroll_cycle', 00H ; `string'
CONST	ENDS
;	COMDAT ??_C@_01FDFGLJHB@2?$AA@
CONST	SEGMENT
??_C@_01FDFGLJHB@2?$AA@ DB '2', 00H			; `string'
CONST	ENDS
;	COMDAT ??_C@_0N@LHNGEHIH@v_iyaw_cycle?$AA@
CONST	SEGMENT
??_C@_0N@LHNGEHIH@v_iyaw_cycle?$AA@ DB 'v_iyaw_cycle', 00H ; `string'
CONST	ENDS
;	COMDAT ??_C@_0BF@JLFLNBKF@models?1v_satchel?4mdl?$AA@
CONST	SEGMENT
??_C@_0BF@JLFLNBKF@models?1v_satchel?4mdl?$AA@ DB 'models/v_satchel.mdl', 00H ; `string'
CONST	ENDS
;	COMDAT ??_C@_0BF@GDJJJKBD@models?1p_satchel?4mdl?$AA@
CONST	SEGMENT
??_C@_0BF@GDJJJKBD@models?1p_satchel?4mdl?$AA@ DB 'models/p_satchel.mdl', 00H ; `string'
CONST	ENDS
;	COMDAT ??_C@_0BL@LGNCENPP@models?1v_satchel_radio?4mdl?$AA@
CONST	SEGMENT
??_C@_0BL@LGNCENPP@models?1v_satchel_radio?4mdl?$AA@ DB 'models/v_satchel'
	DB	'_radio.mdl', 00H				; `string'
CONST	ENDS
;	COMDAT ??_C@_0BL@DCPBNACK@models?1p_satchel_radio?4mdl?$AA@
CONST	SEGMENT
??_C@_0BL@DCPBNACK@models?1p_satchel_radio?4mdl?$AA@ DB 'models/p_satchel'
	DB	'_radio.mdl', 00H				; `string'
CONST	ENDS
;	COMDAT ??_C@_0BG@EDBBCFED@models?1v_tripmine?4mdl?$AA@
CONST	SEGMENT
??_C@_0BG@EDBBCFED@models?1v_tripmine?4mdl?$AA@ DB 'models/v_tripmine.mdl'
	DB	00H						; `string'
CONST	ENDS
;	COMDAT ??_C@_0BG@GBOLPBLB@models?1p_tripmine?4mdl?$AA@
CONST	SEGMENT
??_C@_0BG@GBOLPBLB@models?1p_tripmine?4mdl?$AA@ DB 'models/p_tripmine.mdl'
	DB	00H						; `string'
CONST	ENDS
;	COMDAT ??_C@_0BE@EOKFMNEB@models?1v_squeak?4mdl?$AA@
CONST	SEGMENT
??_C@_0BE@EOKFMNEB@models?1v_squeak?4mdl?$AA@ DB 'models/v_squeak.mdl', 00H ; `string'
CONST	ENDS
;	COMDAT ??_C@_0BE@OOEABCJM@models?1p_squeak?4mdl?$AA@
CONST	SEGMENT
??_C@_0BE@OOEABCJM@models?1p_squeak?4mdl?$AA@ DB 'models/p_squeak.mdl', 00H ; `string'
CONST	ENDS
;	COMDAT ??_C@_0BF@EMPJFOO@models?1v_shotgun?4mdl?$AA@
CONST	SEGMENT
??_C@_0BF@EMPJFOO@models?1v_shotgun?4mdl?$AA@ DB 'models/v_shotgun.mdl', 00H ; `string'
CONST	ENDS
;	COMDAT ??_C@_0BF@PMANNOFI@models?1p_shotgun?4mdl?$AA@
CONST	SEGMENT
??_C@_0BF@PMANNOFI@models?1p_shotgun?4mdl?$AA@ DB 'models/p_shotgun.mdl', 00H ; `string'
CONST	ENDS
;	COMDAT ??_C@_0BB@ICFOGBCH@models?1v_rpg?4mdl?$AA@
CONST	SEGMENT
??_C@_0BB@ICFOGBCH@models?1v_rpg?4mdl?$AA@ DB 'models/v_rpg.mdl', 00H ; `string'
CONST	ENDS
;	COMDAT ??_C@_0BB@IPEABBGA@models?1p_rpg?4mdl?$AA@
CONST	SEGMENT
??_C@_0BB@IPEABBGA@models?1p_rpg?4mdl?$AA@ DB 'models/p_rpg.mdl', 00H ; `string'
CONST	ENDS
;	COMDAT ??_C@_0BB@HNNEPBHN@models?1v_357?4mdl?$AA@
CONST	SEGMENT
??_C@_0BB@HNNEPBHN@models?1v_357?4mdl?$AA@ DB 'models/v_357.mdl', 00H ; `string'
CONST	ENDS
;	COMDAT ??_C@_0BB@HAMKIBDK@models?1p_357?4mdl?$AA@
CONST	SEGMENT
??_C@_0BB@HAMKIBDK@models?1p_357?4mdl?$AA@ DB 'models/p_357.mdl', 00H ; `string'
CONST	ENDS
;	COMDAT ??_C@_0BD@OONOMNOC@models?1v_9mmAR?4mdl?$AA@
CONST	SEGMENT
??_C@_0BD@OONOMNOC@models?1v_9mmAR?4mdl?$AA@ DB 'models/v_9mmAR.mdl', 00H ; `string'
CONST	ENDS
;	COMDAT ??_C@_0BD@BODGIAC@models?1p_9mmAR?4mdl?$AA@
CONST	SEGMENT
??_C@_0BD@BODGIAC@models?1p_9mmAR?4mdl?$AA@ DB 'models/p_9mmAR.mdl', 00H ; `string'
CONST	ENDS
;	COMDAT ??_C@_0BC@LAABIEFM@models?1v_hgun?4mdl?$AA@
CONST	SEGMENT
??_C@_0BC@LAABIEFM@models?1v_hgun?4mdl?$AA@ DB 'models/v_hgun.mdl', 00H ; `string'
CONST	ENDS
;	COMDAT ??_C@_0BC@FILEEOBP@models?1p_hgun?4mdl?$AA@
CONST	SEGMENT
??_C@_0BC@FILEEOBP@models?1p_hgun?4mdl?$AA@ DB 'models/p_hgun.mdl', 00H ; `string'
CONST	ENDS
;	COMDAT ??_C@_0BF@EEFOJDK@models?1v_grenade?4mdl?$AA@
CONST	SEGMENT
??_C@_0BF@EEFOJDK@models?1v_grenade?4mdl?$AA@ DB 'models/v_grenade.mdl', 00H ; `string'
CONST	ENDS
;	COMDAT ??_C@_0BF@PMIHKCIM@models?1p_grenade?4mdl?$AA@
CONST	SEGMENT
??_C@_0BF@PMIHKCIM@models?1p_grenade?4mdl?$AA@ DB 'models/p_grenade.mdl', 00H ; `string'
CONST	ENDS
;	COMDAT ??_C@_0BI@OIMMFAIL@models?1v_9mmhandgun?4mdl?$AA@
CONST	SEGMENT
??_C@_0BI@OIMMFAIL@models?1v_9mmhandgun?4mdl?$AA@ DB 'models/v_9mmhandgun'
	DB	'.mdl', 00H					; `string'
CONST	ENDS
;	COMDAT ??_C@_0BI@EPPIOHID@models?1p_9mmhandgun?4mdl?$AA@
CONST	SEGMENT
??_C@_0BI@EPPIOHID@models?1p_9mmhandgun?4mdl?$AA@ DB 'models/p_9mmhandgun'
	DB	'.mdl', 00H					; `string'
CONST	ENDS
;	COMDAT ??_C@_0BH@DADCFMEG@models?1v_gausniper?4mdl?$AA@
CONST	SEGMENT
??_C@_0BH@DADCFMEG@models?1v_gausniper?4mdl?$AA@ DB 'models/v_gausniper.m'
	DB	'dl', 00H					; `string'
CONST	ENDS
;	COMDAT ??_C@_0BH@GDKDDFKC@models?1p_gausniper?4mdl?$AA@
CONST	SEGMENT
??_C@_0BH@GDKDDFKC@models?1p_gausniper?4mdl?$AA@ DB 'models/p_gausniper.m'
	DB	'dl', 00H					; `string'
CONST	ENDS
;	COMDAT ??_C@_0BC@ICOAKAIL@models?1v_egon?4mdl?$AA@
CONST	SEGMENT
??_C@_0BC@ICOAKAIL@models?1v_egon?4mdl?$AA@ DB 'models/v_egon.mdl', 00H ; `string'
CONST	ENDS
;	COMDAT ??_C@_0BC@GKFFGKMI@models?1p_egon?4mdl?$AA@
CONST	SEGMENT
??_C@_0BC@GKFFGKMI@models?1p_egon?4mdl?$AA@ DB 'models/p_egon.mdl', 00H ; `string'
CONST	ENDS
;	COMDAT ??_C@_0BF@NCGGKMMB@models?1v_crowbar?4mdl?$AA@
CONST	SEGMENT
??_C@_0BF@NCGGKMMB@models?1v_crowbar?4mdl?$AA@ DB 'models/v_crowbar.mdl', 00H ; `string'
CONST	ENDS
;	COMDAT ??_C@_0BF@CKKEOHHH@models?1p_crowbar?4mdl?$AA@
CONST	SEGMENT
??_C@_0BF@CKKEOHHH@models?1p_crowbar?4mdl?$AA@ DB 'models/p_crowbar.mdl', 00H ; `string'
CONST	ENDS
;	COMDAT ??_C@_0BG@FIOGNJBA@models?1v_crossbow?4mdl?$AA@
CONST	SEGMENT
??_C@_0BG@FIOGNJBA@models?1v_crossbow?4mdl?$AA@ DB 'models/v_crossbow.mdl'
	DB	00H						; `string'
CONST	ENDS
;	COMDAT ??_C@_0BG@HKBMANOC@models?1p_crossbow?4mdl?$AA@
CONST	SEGMENT
??_C@_0BG@HKBMANOC@models?1p_crossbow?4mdl?$AA@ DB 'models/p_crossbow.mdl'
	DB	00H						; `string'
CONST	ENDS
_DATA	SEGMENT
?modelmap@?1??V_FindViewModelByWeaponModel@@YAHH@Z@4PAY01PADA DD FLAT:??_C@_0BG@HKBMANOC@models?1p_crossbow?4mdl?$AA@ ; `V_FindViewModelByWeaponModel'::`2'::modelmap
	DD	FLAT:??_C@_0BG@FIOGNJBA@models?1v_crossbow?4mdl?$AA@
	DD	FLAT:??_C@_0BF@CKKEOHHH@models?1p_crowbar?4mdl?$AA@
	DD	FLAT:??_C@_0BF@NCGGKMMB@models?1v_crowbar?4mdl?$AA@
	DD	FLAT:??_C@_0BC@GKFFGKMI@models?1p_egon?4mdl?$AA@
	DD	FLAT:??_C@_0BC@ICOAKAIL@models?1v_egon?4mdl?$AA@
	DD	FLAT:??_C@_0BH@GDKDDFKC@models?1p_gausniper?4mdl?$AA@
	DD	FLAT:??_C@_0BH@DADCFMEG@models?1v_gausniper?4mdl?$AA@
	DD	FLAT:??_C@_0BI@EPPIOHID@models?1p_9mmhandgun?4mdl?$AA@
	DD	FLAT:??_C@_0BI@OIMMFAIL@models?1v_9mmhandgun?4mdl?$AA@
	DD	FLAT:??_C@_0BF@PMIHKCIM@models?1p_grenade?4mdl?$AA@
	DD	FLAT:??_C@_0BF@EEFOJDK@models?1v_grenade?4mdl?$AA@
	DD	FLAT:??_C@_0BC@FILEEOBP@models?1p_hgun?4mdl?$AA@
	DD	FLAT:??_C@_0BC@LAABIEFM@models?1v_hgun?4mdl?$AA@
	DD	FLAT:??_C@_0BD@BODGIAC@models?1p_9mmAR?4mdl?$AA@
	DD	FLAT:??_C@_0BD@OONOMNOC@models?1v_9mmAR?4mdl?$AA@
	DD	FLAT:??_C@_0BB@HAMKIBDK@models?1p_357?4mdl?$AA@
	DD	FLAT:??_C@_0BB@HNNEPBHN@models?1v_357?4mdl?$AA@
	DD	FLAT:??_C@_0BB@IPEABBGA@models?1p_rpg?4mdl?$AA@
	DD	FLAT:??_C@_0BB@ICFOGBCH@models?1v_rpg?4mdl?$AA@
	DD	FLAT:??_C@_0BF@PMANNOFI@models?1p_shotgun?4mdl?$AA@
	DD	FLAT:??_C@_0BF@EMPJFOO@models?1v_shotgun?4mdl?$AA@
	DD	FLAT:??_C@_0BE@OOEABCJM@models?1p_squeak?4mdl?$AA@
	DD	FLAT:??_C@_0BE@EOKFMNEB@models?1v_squeak?4mdl?$AA@
	DD	FLAT:??_C@_0BG@GBOLPBLB@models?1p_tripmine?4mdl?$AA@
	DD	FLAT:??_C@_0BG@EDBBCFED@models?1v_tripmine?4mdl?$AA@
	DD	FLAT:??_C@_0BL@DCPBNACK@models?1p_satchel_radio?4mdl?$AA@
	DD	FLAT:??_C@_0BL@LGNCENPP@models?1v_satchel_radio?4mdl?$AA@
	DD	FLAT:??_C@_0BF@GDJJJKBD@models?1p_satchel?4mdl?$AA@
	DD	FLAT:??_C@_0BF@JLFLNBKF@models?1v_satchel?4mdl?$AA@
	DD	00H
	DD	00H
?v_cameraRelaxAngle@@3MA DD 040a00000r		; 5	; v_cameraRelaxAngle
?v_cameraFocusAngle@@3MA DD 0420c0000r		; 35	; v_cameraFocusAngle
?v_resetCamera@@3HA DD 01H				; v_resetCamera
?v_iyaw_cycle@@3Ucvar_s@@A DD FLAT:??_C@_0N@LHNGEHIH@v_iyaw_cycle?$AA@ ; v_iyaw_cycle
	DD	FLAT:??_C@_01FDFGLJHB@2?$AA@
	DD	00H
	DD	040000000r			; 2
	ORG $+4
?v_iroll_cycle@@3Ucvar_s@@A DD FLAT:??_C@_0O@MDLCCKMC@v_iroll_cycle?$AA@ ; v_iroll_cycle
	DD	FLAT:??_C@_03LOHCHBBO@0?45?$AA@
	DD	00H
	DD	03f000000r			; 0.5
	ORG $+4
?v_ipitch_cycle@@3Ucvar_s@@A DD FLAT:??_C@_0P@LNAJMEAA@v_ipitch_cycle?$AA@ ; v_ipitch_cycle
	DD	FLAT:??_C@_01HIHLOKLC@1?$AA@
	DD	00H
	DD	03f800000r			; 1
	ORG $+4
?v_iyaw_level@@3Ucvar_s@@A DD FLAT:??_C@_0N@FKEEKILK@v_iyaw_level?$AA@ ; v_iyaw_level
	DD	FLAT:??_C@_03OICINGJI@0?43?$AA@
	DD	00H
	DD	03e99999ar			; 0.3
	ORG $+4
?v_iroll_level@@3Ucvar_s@@A DD FLAT:??_C@_0O@COCAMFPP@v_iroll_level?$AA@ ; v_iroll_level
	DD	FLAT:??_C@_03NKBOLEBK@0?41?$AA@
	DD	00H
	DD	03dcccccdr			; 0.1
	ORG $+4
?v_ipitch_level@@3Ucvar_s@@A DD FLAT:??_C@_0P@FAJLCLDN@v_ipitch_level?$AA@ ; v_ipitch_level
	DD	FLAT:??_C@_03OICINGJI@0?43?$AA@
	DD	00H
	DD	03e99999ar			; 0.3
	ORG $+4
_DATA	ENDS
PUBLIC	??_H@YGXPAXIIP6EPAX0@Z@Z			; `vector constructor iterator'
PUBLIC	??__G@YGXPAX0IIP6EPAX00@Z@Z			; `vector copy constructor iterator'
PUBLIC	??0Vector@@QAE@XZ				; Vector::Vector
PUBLIC	??0Vector@@QAE@MMM@Z				; Vector::Vector
PUBLIC	??0Vector@@QAE@ABV0@@Z				; Vector::Vector
PUBLIC	??GVector@@QBE?AV0@XZ				; Vector::operator-
PUBLIC	??8Vector@@QBEHABV0@@Z				; Vector::operator==
PUBLIC	??9Vector@@QBEHABV0@@Z				; Vector::operator!=
PUBLIC	??HVector@@QBE?AV0@ABV0@@Z			; Vector::operator+
PUBLIC	??GVector@@QBE?AV0@ABV0@@Z			; Vector::operator-
PUBLIC	??DVector@@QBE?AV0@M@Z				; Vector::operator*
PUBLIC	??YVector@@QAEAAV0@ABV0@@Z			; Vector::operator+=
PUBLIC	??XVector@@QAEAAV0@M@Z				; Vector::operator*=
PUBLIC	?CopyToArray@Vector@@QBEXPAM@Z			; Vector::CopyToArray
PUBLIC	?Length@Vector@@QBEMXZ				; Vector::Length
PUBLIC	??BVector@@QAEPAMXZ				; Vector::operator float *
PUBLIC	??BVector@@QBEPBMXZ				; Vector::operator float const *
PUBLIC	?Normalize@Vector@@QBE?AV1@XZ			; Vector::Normalize
PUBLIC	?Length2D@Vector@@QBEMXZ			; Vector::Length2D
PUBLIC	?DotProduct@@YAMABVVector@@0@Z			; DotProduct
PUBLIC	?RemapVal@@YAMMMMMM@Z				; RemapVal
PUBLIC	?RemapValClamped@@YAMMMMMM@Z			; RemapValClamped
PUBLIC	?SimpleSpline@@YAMM@Z				; SimpleSpline
PUBLIC	?V_Init@@YAXXZ					; V_Init
PUBLIC	?V_StartPitchDrift@@YAXXZ			; V_StartPitchDrift
PUBLIC	?V_StopPitchDrift@@YAXXZ			; V_StopPitchDrift
PUBLIC	?V_CalcFirstPersonRefdef@@YAXPAUref_params_s@@@Z ; V_CalcFirstPersonRefdef
PUBLIC	?V_ChangeView@@YAXXZ				; V_ChangeView
PUBLIC	?V_GetInEyePos@@YAXHAAVVector@@0@Z		; V_GetInEyePos
PUBLIC	?V_GetChasePos@@YAXHAAVVector@@00@Z		; V_GetChasePos
PUBLIC	?V_GetChaseOrigin@@YAXABVVector@@0MAAV1@@Z	; V_GetChaseOrigin
PUBLIC	?V_FindViewModelByWeaponModel@@YAHH@Z		; V_FindViewModelByWeaponModel
PUBLIC	?V_CalcRefdef@@YAXPAUref_params_s@@@Z		; V_CalcRefdef
PUBLIC	?CAM_Think@@YAXXZ				; CAM_Think
PUBLIC	?CL_CameraOffset@@YAXPAM@Z			; CL_CameraOffset
PUBLIC	?CL_IsThirdPerson@@YAHXZ			; CL_IsThirdPerson
PUBLIC	??0pmplane_t@@QAE@XZ				; pmplane_t::pmplane_t
PUBLIC	??0pmtrace_s@@QAE@XZ				; pmtrace_s::pmtrace_s
PUBLIC	?CountAmmo@WeaponsResource@@QAEHH@Z		; WeaponsResource::CountAmmo
PUBLIC	?CalcShake@@YAXXZ				; CalcShake
PUBLIC	?ApplyShake@@YAXPAM0M@Z				; ApplyShake
PUBLIC	?PlayWallSlideSound@@YAXPAUref_params_s@@@Z	; PlayWallSlideSound
PUBLIC	?PlayFlingWhooshSound@@YAXPAUref_params_s@@@Z	; PlayFlingWhooshSound
PUBLIC	?V_CalcBob@@YAMPAUref_params_s@@@Z		; V_CalcBob
PUBLIC	?V_CalcNewBob@@YAMPAUref_params_s@@@Z		; V_CalcNewBob
PUBLIC	?V_DriftPitch@@YAXPAUref_params_s@@@Z		; V_DriftPitch
PUBLIC	?V_CalcSpectatorRefdef@@YAXPAUref_params_s@@@Z	; V_CalcSpectatorRefdef
PUBLIC	?V_CalcGunAngle@@YAXPAUref_params_s@@@Z		; V_CalcGunAngle
PUBLIC	?V_CalcViewModelLag@@YAXPAUref_params_s@@AAVVector@@1ABV2@@Z ; V_CalcViewModelLag
PUBLIC	?V_AddIdle@@YAXPAUref_params_s@@@Z		; V_AddIdle
PUBLIC	?V_CalcViewRoll@@YAXPAUref_params_s@@@Z		; V_CalcViewRoll
PUBLIC	?V_CalcSendOrigin@@YAXPAUref_params_s@@@Z	; V_CalcSendOrigin
PUBLIC	?RemapAngleRange@@YAMMMMPAW4RemapAngleRange_CurvePart_t@@@Z ; RemapAngleRange
PUBLIC	?ApplyViewLocking@@YAMPAUref_params_s@@MMAAUViewLockData_t@@W4RemapAngleRange_CurvePart_t@@@Z ; ApplyViewLocking
PUBLIC	??$Lerp@M@@YAMMABM0@Z				; Lerp<float>
PUBLIC	?V_CalcCameraRefdef@@YAXPAUref_params_s@@@Z	; V_CalcCameraRefdef
PUBLIC	?V_FindIntermissionSpot@@YAPAUcl_entity_s@@PAUref_params_s@@@Z ; V_FindIntermissionSpot
PUBLIC	?V_CalcIntermissionRefdef@@YAXPAUref_params_s@@@Z ; V_CalcIntermissionRefdef
PUBLIC	?V_CalcThirdPersonRefdef@@YAXPAUref_params_s@@@Z ; V_CalcThirdPersonRefdef
PUBLIC	?V_CalcWaterLevel@@YAMPAUref_params_s@@@Z	; V_CalcWaterLevel
PUBLIC	??0viewinterp_t@@QAE@XZ				; viewinterp_t::viewinterp_t
PUBLIC	?V_InterpolatePos@@YAXPAUref_params_s@@@Z	; V_InterpolatePos
PUBLIC	?V_LocalWeaponAnimations@@YAXPAUref_params_s@@@Z ; V_LocalWeaponAnimations
PUBLIC	?v_origin@@3VVector@@A				; v_origin
PUBLIC	?v_angles@@3VVector@@A				; v_angles
PUBLIC	?v_cl_angles@@3VVector@@A			; v_cl_angles
PUBLIC	?v_sim_org@@3VVector@@A				; v_sim_org
PUBLIC	?v_lastAngles@@3VVector@@A			; v_lastAngles
PUBLIC	?vJumpOrigin@@3VVector@@A			; vJumpOrigin
PUBLIC	?vJumpAngles@@3VVector@@A			; vJumpAngles
PUBLIC	??_C@_0CP@KDMNNDA@Thirdperson?5is?5not?5allowed?5in?5sp@ ; `string'
PUBLIC	??_C@_0BF@DILEIDNG@player?1wallslide?4wav?$AA@	; `string'
PUBLIC	??_C@_0BI@ICOFOGGD@player?1fling_whoosh?4wav?$AA@ ; `string'
PUBLIC	??_C@_04FPIJCFHI@0?415?$AA@			; `string'
PUBLIC	??_C@_0N@DDEDDFCJ@v_centermove?$AA@		; `string'
PUBLIC	??_C@_03OCGDPLBD@500?$AA@			; `string'
PUBLIC	??_C@_0O@NKNAOODD@v_centerspeed?$AA@		; `string'
PUBLIC	??_C@_03LNMAPFD@0?48?$AA@			; `string'
PUBLIC	??_C@_0M@KEDGBCKK@cl_bobcycle?$AA@		; `string'
PUBLIC	??_C@_04DKCHIKEL@0?401?$AA@			; `string'
PUBLIC	??_C@_06JINHFLHC@cl_bob?$AA@			; `string'
PUBLIC	??_C@_08JMLFNIJC@cl_bobup?$AA@			; `string'
PUBLIC	??_C@_01FAMBOPH@4?$AA@				; `string'
PUBLIC	??_C@_0N@FKCHFPJN@cl_waterdist?$AA@		; `string'
PUBLIC	??_C@_03FOPFGEPB@112?$AA@			; `string'
PUBLIC	??_C@_0N@PGEHGMMM@cl_chasedist?$AA@		; `string'
PUBLIC	??_C@_0N@LKBNENON@cl_weaponlag?$AA@		; `string'
PUBLIC	??_C@_01GBGANLPD@0?$AA@				; `string'
PUBLIC	??_C@_0M@HAOCLFJC@cl_hitsound?$AA@		; `string'
PUBLIC	??_C@_0BG@MCDBKDJE@cl_achievement_notify?$AA@	; `string'
PUBLIC	??_C@_0BC@DKBJDAEO@cl_showhealthbars?$AA@	; `string'
PUBLIC	??_C@_0BE@JEBBIIEF@cl_localweaponanims?$AA@	; `string'
PUBLIC	??_C@_0P@FAGLAFPE@cl_muzzlelight?$AA@		; `string'
PUBLIC	??_C@_0M@DJGMFACH@cl_showmsgs?$AA@		; `string'
PUBLIC	??_C@_0BC@EICEGNAB@cl_viewmodelblend?$AA@	; `string'
PUBLIC	??_C@_08DFJPPKFA@cl_tutor?$AA@			; `string'
PUBLIC	??_C@_08FDCNJKIA@cl_notbn?$AA@			; `string'
PUBLIC	??_C@_0BE@PPOOCPHN@gl_allow_extensions?$AA@	; `string'
PUBLIC	??_C@_09EFDNHKBE@gl_finish?$AA@			; `string'
PUBLIC	??_C@_08PJGLHBHM@gl_clear?$AA@			; `string'
PUBLIC	??_C@_08ILOBJANK@r_speeds?$AA@			; `string'
PUBLIC	??_C@_07OMHDDOEC@gl_test?$AA@			; `string'
PUBLIC	??_C@_08CDPCOEFH@viewsize?$AA@			; `string'
PUBLIC	??_C@_07IFOJIEEJ@r_novis?$AA@			; `string'
PUBLIC	??_C@_08GDHICAID@r_nocull?$AA@			; `string'
PUBLIC	??_C@_09PKCFOMOL@gl_nosort?$AA@			; `string'
PUBLIC	??_C@_09OGELGAJA@r_lockpvs?$AA@			; `string'
PUBLIC	??_C@_09DIEFKAPA@r_dynamic?$AA@			; `string'
PUBLIC	??_C@_0L@GFIPPKI@r_lightmap?$AA@		; `string'
PUBLIC	??_C@_0N@BABLDJLO@gl_wireframe?$AA@		; `string'
PUBLIC	??_C@_0N@NDLEOLDK@r_adjust_fov?$AA@		; `string'
PUBLIC	??_C@_0BA@FJPIIIDB@gl_check_errors?$AA@		; `string'
PUBLIC	??_C@_05KDLBCAI@gamma?$AA@			; `string'
PUBLIC	??_C@_0L@BECHNFGG@brightness?$AA@		; `string'
PUBLIC	??_C@_0O@DJABIOB@gl_polyoffset?$AA@		; `string'
PUBLIC	??_C@_0N@JEFJGNMG@r_fullbright?$AA@		; `string'
PUBLIC	??_C@_0P@JAKGJBEE@r_drawentities?$AA@		; `string'
PUBLIC	??_C@_0BB@OJJFINJB@r_detailtextures?$AA@	; `string'
PUBLIC	??_C@_0BE@NGHAOOJB@r_lighting_modulate?$AA@	; `string'
PUBLIC	??_C@_0BG@IKBGNHPM@cl_lightstyle_lerping?$AA@	; `string'
PUBLIC	??_C@_0BE@DGDPLBLK@r_lighting_extended?$AA@	; `string'
PUBLIC	??_C@_04FOELEPEP@0?405?$AA@			; `string'
PUBLIC	??_C@_0O@MBIEBEEJ@cl_vsmoothing?$AA@		; `string'
PUBLIC	??_C@_0BB@KONHMNGC@gl_allow_portals?$AA@	; `string'
PUBLIC	??_C@_0BB@DGJOFNPO@gl_allow_screens?$AA@	; `string'
PUBLIC	??_C@_0M@HHCNIMA@gl_renderer?$AA@		; `string'
PUBLIC	??_C@_09EAFHGGLN@r_shadows?$AA@			; `string'
PUBLIC	??_C@_0P@IGFIIIOH@gl_allow_3dsky?$AA@		; `string'
PUBLIC	??_C@_0BD@ELMLAENJ@gl_recursion_depth?$AA@	; `string'
PUBLIC	??_C@_0BI@CDCICLLF@gl_recursive_world_node?$AA@	; `string'
PUBLIC	??_C@_0N@KNKGFGNJ@r_drawmodels?$AA@		; `string'
PUBLIC	??_C@_07OGOJMPDC@r_grass?$AA@			; `string'
PUBLIC	??_C@_0O@DPAFMEAD@r_grass_alpha?$AA@		; `string'
PUBLIC	??_C@_0BB@EALHKIOB@r_grass_lighting?$AA@	; `string'
PUBLIC	??_C@_0BA@MFPMGHMG@r_grass_shadows?$AA@		; `string'
PUBLIC	??_C@_04CGOKOKBC@2048?$AA@			; `string'
PUBLIC	??_C@_0BD@LAHCAEAM@r_grass_fade_start?$AA@	; `string'
PUBLIC	??_C@_0BC@MMLPIPBH@r_grass_fade_dist?$AA@	; `string'
PUBLIC	??_C@_0M@BIOFCHNF@r_drawworld?$AA@		; `string'
PUBLIC	??_C@_0O@JOGOIFBI@r_drawsprites?$AA@		; `string'
PUBLIC	??_C@_0BC@BGPMJJLI@r_show_renderpass?$AA@	; `string'
PUBLIC	??_C@_0BG@IECPCPIG@r_show_light_scissors?$AA@	; `string'
PUBLIC	??_C@_0P@PNMJIJOO@r_show_normals?$AA@		; `string'
PUBLIC	??_C@_0BD@BBNEEJCH@r_show_lightprobes?$AA@	; `string'
PUBLIC	??_C@_0N@BFAHHKIN@r_fade_props?$AA@		; `string'
PUBLIC	??_C@_0BA@OBDIHDFB@r_show_cubemaps?$AA@		; `string'
PUBLIC	??_C@_0O@GGCKPOBB@r_bloom_alpha?$AA@		; `string'
PUBLIC	??_C@_02MLODCJFF@32?$AA@			; `string'
PUBLIC	??_C@_0BE@FEEHIPNM@r_bloom_sample_size?$AA@	; `string'
PUBLIC	??_C@_0BE@HPCBIAOE@r_bloom_fast_sample?$AA@	; `string'
PUBLIC	??_C@_0P@BAHCCEAO@r_bloom_darken?$AA@		; `string'
PUBLIC	??_C@_01BMBHCPLG@5?$AA@				; `string'
PUBLIC	??_C@_0BF@EBOCIPBI@r_bloom_diamond_size?$AA@	; `string'
PUBLIC	??_C@_0BC@OAPGPDFN@r_bloom_intensity?$AA@	; `string'
PUBLIC	??_C@_0BA@MKFNFGCF@r_bloom_sprites?$AA@		; `string'
PUBLIC	??_C@_07EIFGGFJK@r_bloom?$AA@			; `string'
PUBLIC	??_C@_0M@BIELKGOF@thirdperson?$AA@		; `string'
PUBLIC	??_C@_06DJINIGPI@r_blur?$AA@			; `string'
PUBLIC	??_C@_0BB@CAFICHGA@r_blur_threshold?$AA@	; `string'
PUBLIC	??_C@_0BA@IGAEPFGJ@r_blur_strength?$AA@		; `string'
PUBLIC	??_C@_0O@DILNJCAB@r_sun_allowed?$AA@		; `string'
PUBLIC	??_C@_0N@PDOMDMIC@gl_sunshafts?$AA@		; `string'
PUBLIC	??_C@_0BC@MOFLFICK@gl_sunshafts_blur?$AA@	; `string'
PUBLIC	??_C@_0BI@DOBENBLG@gl_sunshafts_brightness?$AA@	; `string'
PUBLIC	??_C@_07JNLFFGJF@gl_ssao?$AA@			; `string'
PUBLIC	??_C@_0O@NLBMGMOM@gl_ssao_debug?$AA@		; `string'
PUBLIC	??_C@_0BA@BOFCDMGF@r_shadowquality?$AA@		; `string'
PUBLIC	??_C@_0BA@BJLPPIMH@r_mirrorquality?$AA@		; `string'
PUBLIC	??_C@_0N@MDEGGAML@r_testdlight?$AA@		; `string'
PUBLIC	??_C@_0N@MONBPAIL@gl_lensflare?$AA@		; `string'
PUBLIC	??_C@_0BE@BFMMIIHC@gl_water_refraction?$AA@	; `string'
PUBLIC	??_C@_0BA@EGFHJHFH@gl_water_planar?$AA@		; `string'
PUBLIC	??_C@_0M@BLNGKPCK@gl_exposure?$AA@		; `string'
PUBLIC	??_C@_09KGOJFLNI@gl_emboss?$AA@			; `string'
PUBLIC	??_C@_0M@OMHPIIHM@gl_specular?$AA@		; `string'
PUBLIC	??_C@_07CBBOEAIB@gl_bump?$AA@			; `string'
PUBLIC	??_C@_08JEIAHPPN@cubeshot?$AA@			; `string'
PUBLIC	??_C@_0O@KEIAHEAI@buildcubemaps?$AA@		; `string'
PUBLIC	??_C@_0M@LNKEOFGC@gl_cubemaps?$AA@		; `string'
PUBLIC	??_C@_0L@FHIBDANG@centerview?$AA@		; `string'
PUBLIC	??_C@_0N@MABMHHHC@ui_is_active?$AA@		; `string'
PUBLIC	??_C@_0BI@PLJDMDHA@ui_backgroundmap_active?$AA@	; `string'
PUBLIC	??_C@_09LPIEBFMA@BLEND?5?$CFf?6?$AA@		; `string'
PUBLIC	??_C@_08MIMEMOBM@CLAMPED?6?$AA@			; `string'
PUBLIC	??_C@_0O@IANKPAGM@STILL?5LOCKED?6?$AA@		; `string'
PUBLIC	??_C@_05DKELCLGM@incar?$AA@			; `string'
PUBLIC	??_C@_0BC@OMCPNPN@weapons?1mp5?91?4wav?$AA@	; `string'
PUBLIC	??_C@_0BC@IIFGIPFD@weapons?1mp5?92?4wav?$AA@	; `string'
PUBLIC	??_C@_0BC@EDAKFMPG@weapons?1mp5?93?4wav?$AA@	; `string'
PUBLIC	??_C@_0BB@NBAHOKLP@weapons?1hks1?4wav?$AA@	; `string'
PUBLIC	??_C@_0BB@FHJDJIBB@weapons?1hks2?4wav?$AA@	; `string'
PUBLIC	??_C@_0BB@JMMPELLE@weapons?1hks3?4wav?$AA@	; `string'
PUBLIC	??_C@_0BG@MDAACEKK@weapons?1glauncher?4wav?$AA@	; `string'
PUBLIC	??_C@_0BM@BIKGNHLI@drone?1aliendrone_shoot1?4wav?$AA@ ; `string'
PUBLIC	??_C@_0BM@JODCKFBG@drone?1aliendrone_shoot2?4wav?$AA@ ; `string'
PUBLIC	??_C@_0BM@FFGOHGLD@drone?1aliendrone_shoot3?4wav?$AA@ ; `string'
PUBLIC	??_C@_0BM@EIGLEGAL@drone?1aliendrone_shoot4?4wav?$AA@ ; `string'
PUBLIC	??_C@_0BK@HIMOJLLF@weapons?1ar2_secondary?4wav?$AA@ ; `string'
PUBLIC	??_C@_0BE@HABBDCEK@weapons?1pistol1?4wav?$AA@	; `string'
PUBLIC	??_C@_0BE@PGIFEAOE@weapons?1pistol2?4wav?$AA@	; `string'
PUBLIC	??_C@_0BE@DNNJJDEB@weapons?1pistol3?4wav?$AA@	; `string'
PUBLIC	??_C@_0BH@OFCAHODE@weapons?1xbow_fire1?4wav?$AA@ ; `string'
PUBLIC	??_C@_0BJ@KHPOFAGN@weapons?1deagle_shot1?4wav?$AA@ ; `string'
PUBLIC	??_C@_0BM@FJIGDPOC@weapons?1fiveseven_shoot?4wav?$AA@ ; `string'
PUBLIC	??_C@_0BH@EGIFNJD@weapons?1g36c_shoot?4wav?$AA@	; `string'
PUBLIC	??_C@_0BI@IJKHDNAN@weapons?1rocketfire1?4wav?$AA@ ; `string'
PUBLIC	??_C@_0BL@FDNMHMN@weapons?1shotgun_single?4wav?$AA@ ; `string'
PUBLIC	??_C@_0BI@KJGGOELM@weapons?1shotgun_dbl?4wav?$AA@ ; `string'
PUBLIC	??_C@_0BE@HHACBKGK@weapons?1xm_fire?4wav?$AA@	; `string'
PUBLIC	??_C@_0BM@KHOJKGHB@weapons?1sniper_wpn_fire?4wav?$AA@ ; `string'
PUBLIC	??_C@_0BG@NEKCBPOF@player?1underwater?4wav?$AA@	; `string'
PUBLIC	__real@00000000
PUBLIC	__real@0000000000000000
PUBLIC	__real@3b83126f
PUBLIC	__real@3c23d70a
PUBLIC	__real@3c75c28f
PUBLIC	__real@3ca3d70a
PUBLIC	__real@3d000000
PUBLIC	__real@3d4ccccd
PUBLIC	__real@3dcccccd
PUBLIC	__real@3e4ccccd
PUBLIC	__real@3e800000
PUBLIC	__real@3e99999a
PUBLIC	__real@3ecccccd
PUBLIC	__real@3ee66666
PUBLIC	__real@3f000000
PUBLIC	__real@3f19999a
PUBLIC	__real@3f40624dd2f1a9fc
PUBLIC	__real@3f4ccccd
PUBLIC	__real@3f666666
PUBLIC	__real@3f70624dd2f1a9fc
PUBLIC	__real@3f800000
PUBLIC	__real@3f847ae147ae147b
PUBLIC	__real@3f8eb851eb851eb8
PUBLIC	__real@3fa999999999999a
PUBLIC	__real@3fb999999999999a
PUBLIC	__real@3fc3333333333333
PUBLIC	__real@3fc999999999999a
PUBLIC	__real@3fd0000000000000
PUBLIC	__real@3fd3333333333333
PUBLIC	__real@3fd6666666666666
PUBLIC	__real@3fdccccccccccccc
PUBLIC	__real@3fe0000000000000
PUBLIC	__real@3fe6666666666666
PUBLIC	__real@3fe8000000000000
PUBLIC	__real@3ff0000000000000
PUBLIC	__real@3ff3333333333333
PUBLIC	__real@3ff4000000000000
PUBLIC	__real@3ff999999999999a
PUBLIC	__real@40000000
PUBLIC	__real@400921fb54442d18
PUBLIC	__real@40400000
PUBLIC	__real@4049000000000000
PUBLIC	__real@40800000
PUBLIC	__real@40a00000
PUBLIC	__real@41000000
PUBLIC	__real@41400000
PUBLIC	__real@41800000
PUBLIC	__real@41880000
PUBLIC	__real@41c80000
PUBLIC	__real@41e00000
PUBLIC	__real@42700000
PUBLIC	__real@42800000
PUBLIC	__real@42a00000
PUBLIC	__real@42b40000
PUBLIC	__real@42c80000
PUBLIC	__real@42dc0000
PUBLIC	__real@43160000
PUBLIC	__real@43340000
PUBLIC	__real@43480000
PUBLIC	__real@43a00000
PUBLIC	__real@43b40000
PUBLIC	__real@44fa0000
PUBLIC	__real@becccccd
PUBLIC	__real@bf800000
PUBLIC	__real@c008000000000000
PUBLIC	__real@c0400000
PUBLIC	__real@c0800000
PUBLIC	__real@c0a00000
PUBLIC	__real@c0e00000
PUBLIC	__real@c1000000
PUBLIC	__real@c1700000
PUBLIC	__real@c3340000
PUBLIC	__real@c3480000
PUBLIC	__real@c3a00000
PUBLIC	__real@c3b40000
PUBLIC	__xmm@80000000800000008000000080000000
EXTRN	__Init_thread_header:PROC
EXTRN	__Init_thread_abort:PROC
EXTRN	__Init_thread_footer:PROC
EXTRN	_memcpy:PROC
EXTRN	_memset:PROC
EXTRN	_strlen:PROC
EXTRN	__strnicmp:PROC
EXTRN	_atoi:PROC
EXTRN	_fabs:PROC
EXTRN	_sin:PROC
EXTRN	_sqrt:PROC
EXTRN	?AngleNormalize@@YAMM@Z:PROC			; AngleNormalize
EXTRN	?CL_UTIL_Approach@@YAMMMM@Z:PROC		; CL_UTIL_Approach
EXTRN	?CL_IsDead@@YAHXZ:PROC				; CL_IsDead
EXTRN	?PM_GetPhysEntInfo@@YAHH@Z:PROC			; PM_GetPhysEntInfo
EXTRN	?R_MakeWeaponShake@@YAXHH_N@Z:PROC		; R_MakeWeaponShake
EXTRN	?LocalWeaponAnims@@YA_NXZ:PROC			; LocalWeaponAnims
EXTRN	?PlayLowAmmoSound@@YAXHVVector@@H@Z:PROC	; PlayLowAmmoSound
EXTRN	?CL_BuildCubemaps_f@@YAXXZ:PROC			; CL_BuildCubemaps_f
EXTRN	@__security_check_cookie@4:PROC
EXTRN	___CxxFrameHandler3:PROC
EXTRN	__Init_thread_epoch:DWORD
EXTRN	?g_vecZero@@3VVector@@B:BYTE			; g_vecZero
EXTRN	?gEngfuncs@@3Ucl_enginefuncs_s@@A:BYTE		; gEngfuncs
EXTRN	?gHUD@@3VCHud@@A:BYTE				; gHUD
EXTRN	?PrevViewAngles@@3VVector@@A:BYTE		; PrevViewAngles
EXTRN	?PrevViewOrg@@3VVector@@A:BYTE			; PrevViewOrg
EXTRN	?IEngineStudio@@3Uengine_studio_api_s@@A:BYTE	; IEngineStudio
EXTRN	?RI@@3PAUref_instance_t@@A:DWORD		; RI
EXTRN	?tr@@3Uref_globals_t@@A:BYTE			; tr
EXTRN	?gWR@@3VWeaponsResource@@A:BYTE			; gWR
EXTRN	?cl_forwardspeed@@3PAUcvar_s@@A:DWORD		; cl_forwardspeed
EXTRN	___security_cookie:DWORD
EXTRN	__fltused:DWORD
EXTRN	__tls_array:DWORD
EXTRN	__tls_index:DWORD
_BSS	SEGMENT
?v_origin@@3VVector@@A DB 0cH DUP (?)			; v_origin
?v_angles@@3VVector@@A DB 0cH DUP (?)			; v_angles
?v_cl_angles@@3VVector@@A DB 0cH DUP (?)		; v_cl_angles
?v_sim_org@@3VVector@@A DB 0cH DUP (?)			; v_sim_org
?v_lastAngles@@3VVector@@A DB 0cH DUP (?)		; v_lastAngles
?vJumpOrigin@@3VVector@@A DB 0cH DUP (?)		; vJumpOrigin
?vJumpAngles@@3VVector@@A DB 0cH DUP (?)		; vJumpAngles
?bobtime@?1??V_CalcBob@@YAMPAUref_params_s@@@Z@4NA DQ 01H DUP (?) ; `V_CalcBob'::`2'::bobtime
?bob@?1??V_CalcBob@@YAMPAUref_params_s@@@Z@4MA DD 01H DUP (?) ; `V_CalcBob'::`2'::bob
?lasttime@?1??V_CalcBob@@YAMPAUref_params_s@@@Z@4MA DD 01H DUP (?) ; `V_CalcBob'::`2'::lasttime
?bobtime@?1??V_CalcNewBob@@YAMPAUref_params_s@@@Z@4MA DD 01H DUP (?) ; `V_CalcNewBob'::`2'::bobtime
?lastbobtime@?1??V_CalcNewBob@@YAMPAUref_params_s@@@Z@4MA DD 01H DUP (?) ; `V_CalcNewBob'::`2'::lastbobtime
?velocity@?1??V_CalcSpectatorRefdef@@YAXPAUref_params_s@@@Z@4VVector@@A DB 0cH DUP (?) ; `V_CalcSpectatorRefdef'::`2'::velocity
?$TSS0@?1??V_CalcSpectatorRefdef@@YAXPAUref_params_s@@@Z@4HA DD 01H DUP (?) ; `V_CalcSpectatorRefdef'::`2'::$TSS0
?m_vecLastFacing@?1??V_CalcViewModelLag@@YAXPAUref_params_s@@AAVVector@@1ABV3@@Z@4V3@A DB 0cH DUP (?) ; `V_CalcViewModelLag'::`2'::m_vecLastFacing
?$TSS0@?1??V_CalcViewModelLag@@YAXPAUref_params_s@@AAVVector@@1ABV3@@Z@4HA DD 01H DUP (?) ; `V_CalcViewModelLag'::`2'::$TSS0
?lasttime@?1??V_CalcCameraRefdef@@YAXPAUref_params_s@@@Z@4MA DD 01H DUP (?) ; `V_CalcCameraRefdef'::`2'::lasttime
?lasttime@?1??V_CalcThirdPersonRefdef@@YAXPAUref_params_s@@@Z@4MA DD 01H DUP (?) ; `V_CalcThirdPersonRefdef'::`2'::lasttime
?landtime@?1??V_LandDip@@YAXPAUref_params_s@@@Z@4MA DD 01H DUP (?) ; `V_LandDip'::`2'::landtime
?f@?1??V_LandDip@@YAXPAUref_params_s@@@Z@4MA DD 01H DUP (?) ; `V_LandDip'::`2'::f
?weptime@?1??V_LandDipWeapon@@YAXPAUref_params_s@@@Z@4MA DD 01H DUP (?) ; `V_LandDipWeapon'::`2'::weptime
?lastorg@?1??V_InterpolatePos@@YAXPAUref_params_s@@@Z@4VVector@@A DB 0cH DUP (?) ; `V_InterpolatePos'::`2'::lastorg
?$TSS0@?1??V_InterpolatePos@@YAXPAUref_params_s@@@Z@4HA DD 01H DUP (?) ; `V_InterpolatePos'::`2'::$TSS0
?ViewInterp@?1??V_InterpolatePos@@YAXPAUref_params_s@@@Z@4Uviewinterp_t@@A DB 0808H DUP (?) ; `V_InterpolatePos'::`2'::ViewInterp
?$TSS1@?1??V_InterpolatePos@@YAXPAUref_params_s@@@Z@4HA DD 01H DUP (?) ; `V_InterpolatePos'::`2'::$TSS1
?lasttime@?1??V_CalcFirstPersonRefdef@@YAXPAUref_params_s@@@Z@4MA DD 01H DUP (?) ; `V_CalcFirstPersonRefdef'::`2'::lasttime
?IsUpsideDown@?1??V_CalcFirstPersonRefdef@@YAXPAUref_params_s@@@Z@4_NA DB 01H DUP (?) ; `V_CalcFirstPersonRefdef'::`2'::IsUpsideDown
_BSS	ENDS
CRT$XCU	SEGMENT
?v_origin$initializer$@@3P6AXXZA DD FLAT:??__Ev_origin@@YAXXZ ; v_origin$initializer$
CRT$XCU	ENDS
;	COMDAT __xmm@80000000800000008000000080000000
CONST	SEGMENT
__xmm@80000000800000008000000080000000 DB 00H, 00H, 00H, 080H, 00H, 00H, 00H
	DB	080H, 00H, 00H, 00H, 080H, 00H, 00H, 00H, 080H
CONST	ENDS
;	COMDAT __real@c3b40000
CONST	SEGMENT
__real@c3b40000 DD 0c3b40000r			; -360
CONST	ENDS
;	COMDAT __real@c3a00000
CONST	SEGMENT
__real@c3a00000 DD 0c3a00000r			; -320
CONST	ENDS
;	COMDAT __real@c3480000
CONST	SEGMENT
__real@c3480000 DD 0c3480000r			; -200
CONST	ENDS
;	COMDAT __real@c3340000
CONST	SEGMENT
__real@c3340000 DD 0c3340000r			; -180
CONST	ENDS
;	COMDAT __real@c1700000
CONST	SEGMENT
__real@c1700000 DD 0c1700000r			; -15
CONST	ENDS
;	COMDAT __real@c1000000
CONST	SEGMENT
__real@c1000000 DD 0c1000000r			; -8
CONST	ENDS
;	COMDAT __real@c0e00000
CONST	SEGMENT
__real@c0e00000 DD 0c0e00000r			; -7
CONST	ENDS
;	COMDAT __real@c0a00000
CONST	SEGMENT
__real@c0a00000 DD 0c0a00000r			; -5
CONST	ENDS
;	COMDAT __real@c0800000
CONST	SEGMENT
__real@c0800000 DD 0c0800000r			; -4
CONST	ENDS
;	COMDAT __real@c0400000
CONST	SEGMENT
__real@c0400000 DD 0c0400000r			; -3
CONST	ENDS
;	COMDAT __real@c008000000000000
CONST	SEGMENT
__real@c008000000000000 DQ 0c008000000000000r	; -3
CONST	ENDS
;	COMDAT __real@bf800000
CONST	SEGMENT
__real@bf800000 DD 0bf800000r			; -1
CONST	ENDS
;	COMDAT __real@becccccd
CONST	SEGMENT
__real@becccccd DD 0becccccdr			; -0.4
CONST	ENDS
;	COMDAT __real@44fa0000
CONST	SEGMENT
__real@44fa0000 DD 044fa0000r			; 2000
CONST	ENDS
;	COMDAT __real@43b40000
CONST	SEGMENT
__real@43b40000 DD 043b40000r			; 360
CONST	ENDS
;	COMDAT __real@43a00000
CONST	SEGMENT
__real@43a00000 DD 043a00000r			; 320
CONST	ENDS
;	COMDAT __real@43480000
CONST	SEGMENT
__real@43480000 DD 043480000r			; 200
CONST	ENDS
;	COMDAT __real@43340000
CONST	SEGMENT
__real@43340000 DD 043340000r			; 180
CONST	ENDS
;	COMDAT __real@43160000
CONST	SEGMENT
__real@43160000 DD 043160000r			; 150
CONST	ENDS
;	COMDAT __real@42dc0000
CONST	SEGMENT
__real@42dc0000 DD 042dc0000r			; 110
CONST	ENDS
;	COMDAT __real@42c80000
CONST	SEGMENT
__real@42c80000 DD 042c80000r			; 100
CONST	ENDS
;	COMDAT __real@42b40000
CONST	SEGMENT
__real@42b40000 DD 042b40000r			; 90
CONST	ENDS
;	COMDAT __real@42a00000
CONST	SEGMENT
__real@42a00000 DD 042a00000r			; 80
CONST	ENDS
;	COMDAT __real@42800000
CONST	SEGMENT
__real@42800000 DD 042800000r			; 64
CONST	ENDS
;	COMDAT __real@42700000
CONST	SEGMENT
__real@42700000 DD 042700000r			; 60
CONST	ENDS
;	COMDAT __real@41e00000
CONST	SEGMENT
__real@41e00000 DD 041e00000r			; 28
CONST	ENDS
;	COMDAT __real@41c80000
CONST	SEGMENT
__real@41c80000 DD 041c80000r			; 25
CONST	ENDS
;	COMDAT __real@41880000
CONST	SEGMENT
__real@41880000 DD 041880000r			; 17
CONST	ENDS
;	COMDAT __real@41800000
CONST	SEGMENT
__real@41800000 DD 041800000r			; 16
CONST	ENDS
;	COMDAT __real@41400000
CONST	SEGMENT
__real@41400000 DD 041400000r			; 12
CONST	ENDS
;	COMDAT __real@41000000
CONST	SEGMENT
__real@41000000 DD 041000000r			; 8
CONST	ENDS
;	COMDAT __real@40a00000
CONST	SEGMENT
__real@40a00000 DD 040a00000r			; 5
CONST	ENDS
;	COMDAT __real@40800000
CONST	SEGMENT
__real@40800000 DD 040800000r			; 4
CONST	ENDS
;	COMDAT __real@4049000000000000
CONST	SEGMENT
__real@4049000000000000 DQ 04049000000000000r	; 50
CONST	ENDS
;	COMDAT __real@40400000
CONST	SEGMENT
__real@40400000 DD 040400000r			; 3
CONST	ENDS
;	COMDAT __real@400921fb54442d18
CONST	SEGMENT
__real@400921fb54442d18 DQ 0400921fb54442d18r	; 3.14159
CONST	ENDS
;	COMDAT __real@40000000
CONST	SEGMENT
__real@40000000 DD 040000000r			; 2
CONST	ENDS
;	COMDAT __real@3ff999999999999a
CONST	SEGMENT
__real@3ff999999999999a DQ 03ff999999999999ar	; 1.6
CONST	ENDS
;	COMDAT __real@3ff4000000000000
CONST	SEGMENT
__real@3ff4000000000000 DQ 03ff4000000000000r	; 1.25
CONST	ENDS
;	COMDAT __real@3ff3333333333333
CONST	SEGMENT
__real@3ff3333333333333 DQ 03ff3333333333333r	; 1.2
CONST	ENDS
;	COMDAT __real@3ff0000000000000
CONST	SEGMENT
__real@3ff0000000000000 DQ 03ff0000000000000r	; 1
CONST	ENDS
;	COMDAT __real@3fe8000000000000
CONST	SEGMENT
__real@3fe8000000000000 DQ 03fe8000000000000r	; 0.75
CONST	ENDS
;	COMDAT __real@3fe6666666666666
CONST	SEGMENT
__real@3fe6666666666666 DQ 03fe6666666666666r	; 0.7
CONST	ENDS
;	COMDAT __real@3fe0000000000000
CONST	SEGMENT
__real@3fe0000000000000 DQ 03fe0000000000000r	; 0.5
CONST	ENDS
;	COMDAT __real@3fdccccccccccccc
CONST	SEGMENT
__real@3fdccccccccccccc DQ 03fdcccccccccccccr	; 0.45
CONST	ENDS
;	COMDAT __real@3fd6666666666666
CONST	SEGMENT
__real@3fd6666666666666 DQ 03fd6666666666666r	; 0.35
CONST	ENDS
;	COMDAT __real@3fd3333333333333
CONST	SEGMENT
__real@3fd3333333333333 DQ 03fd3333333333333r	; 0.3
CONST	ENDS
;	COMDAT __real@3fd0000000000000
CONST	SEGMENT
__real@3fd0000000000000 DQ 03fd0000000000000r	; 0.25
CONST	ENDS
;	COMDAT __real@3fc999999999999a
CONST	SEGMENT
__real@3fc999999999999a DQ 03fc999999999999ar	; 0.2
CONST	ENDS
;	COMDAT __real@3fc3333333333333
CONST	SEGMENT
__real@3fc3333333333333 DQ 03fc3333333333333r	; 0.15
CONST	ENDS
;	COMDAT __real@3fb999999999999a
CONST	SEGMENT
__real@3fb999999999999a DQ 03fb999999999999ar	; 0.1
CONST	ENDS
;	COMDAT __real@3fa999999999999a
CONST	SEGMENT
__real@3fa999999999999a DQ 03fa999999999999ar	; 0.05
CONST	ENDS
;	COMDAT __real@3f8eb851eb851eb8
CONST	SEGMENT
__real@3f8eb851eb851eb8 DQ 03f8eb851eb851eb8r	; 0.015
CONST	ENDS
;	COMDAT __real@3f847ae147ae147b
CONST	SEGMENT
__real@3f847ae147ae147b DQ 03f847ae147ae147br	; 0.01
CONST	ENDS
;	COMDAT __real@3f800000
CONST	SEGMENT
__real@3f800000 DD 03f800000r			; 1
CONST	ENDS
;	COMDAT __real@3f70624dd2f1a9fc
CONST	SEGMENT
__real@3f70624dd2f1a9fc DQ 03f70624dd2f1a9fcr	; 0.004
CONST	ENDS
;	COMDAT __real@3f666666
CONST	SEGMENT
__real@3f666666 DD 03f666666r			; 0.9
CONST	ENDS
;	COMDAT __real@3f4ccccd
CONST	SEGMENT
__real@3f4ccccd DD 03f4ccccdr			; 0.8
CONST	ENDS
;	COMDAT __real@3f40624dd2f1a9fc
CONST	SEGMENT
__real@3f40624dd2f1a9fc DQ 03f40624dd2f1a9fcr	; 0.0005
CONST	ENDS
;	COMDAT __real@3f19999a
CONST	SEGMENT
__real@3f19999a DD 03f19999ar			; 0.6
CONST	ENDS
;	COMDAT __real@3f000000
CONST	SEGMENT
__real@3f000000 DD 03f000000r			; 0.5
CONST	ENDS
;	COMDAT __real@3ee66666
CONST	SEGMENT
__real@3ee66666 DD 03ee66666r			; 0.45
CONST	ENDS
;	COMDAT __real@3ecccccd
CONST	SEGMENT
__real@3ecccccd DD 03ecccccdr			; 0.4
CONST	ENDS
;	COMDAT __real@3e99999a
CONST	SEGMENT
__real@3e99999a DD 03e99999ar			; 0.3
CONST	ENDS
;	COMDAT __real@3e800000
CONST	SEGMENT
__real@3e800000 DD 03e800000r			; 0.25
CONST	ENDS
;	COMDAT __real@3e4ccccd
CONST	SEGMENT
__real@3e4ccccd DD 03e4ccccdr			; 0.2
CONST	ENDS
;	COMDAT __real@3dcccccd
CONST	SEGMENT
__real@3dcccccd DD 03dcccccdr			; 0.1
CONST	ENDS
;	COMDAT __real@3d4ccccd
CONST	SEGMENT
__real@3d4ccccd DD 03d4ccccdr			; 0.05
CONST	ENDS
;	COMDAT __real@3d000000
CONST	SEGMENT
__real@3d000000 DD 03d000000r			; 0.03125
CONST	ENDS
;	COMDAT __real@3ca3d70a
CONST	SEGMENT
__real@3ca3d70a DD 03ca3d70ar			; 0.02
CONST	ENDS
;	COMDAT __real@3c75c28f
CONST	SEGMENT
__real@3c75c28f DD 03c75c28fr			; 0.015
CONST	ENDS
;	COMDAT __real@3c23d70a
CONST	SEGMENT
__real@3c23d70a DD 03c23d70ar			; 0.01
CONST	ENDS
;	COMDAT __real@3b83126f
CONST	SEGMENT
__real@3b83126f DD 03b83126fr			; 0.004
CONST	ENDS
;	COMDAT __real@0000000000000000
CONST	SEGMENT
__real@0000000000000000 DQ 00000000000000000r	; 0
CONST	ENDS
;	COMDAT __real@00000000
CONST	SEGMENT
__real@00000000 DD 000000000r			; 0
CONST	ENDS
;	COMDAT ??_C@_0BG@NEKCBPOF@player?1underwater?4wav?$AA@
CONST	SEGMENT
??_C@_0BG@NEKCBPOF@player?1underwater?4wav?$AA@ DB 'player/underwater.wav'
	DB	00H						; `string'
CONST	ENDS
;	COMDAT ??_C@_0BM@KHOJKGHB@weapons?1sniper_wpn_fire?4wav?$AA@
CONST	SEGMENT
??_C@_0BM@KHOJKGHB@weapons?1sniper_wpn_fire?4wav?$AA@ DB 'weapons/sniper_'
	DB	'wpn_fire.wav', 00H				; `string'
CONST	ENDS
;	COMDAT ??_C@_0BE@HHACBKGK@weapons?1xm_fire?4wav?$AA@
CONST	SEGMENT
??_C@_0BE@HHACBKGK@weapons?1xm_fire?4wav?$AA@ DB 'weapons/xm_fire.wav', 00H ; `string'
CONST	ENDS
;	COMDAT ??_C@_0BI@KJGGOELM@weapons?1shotgun_dbl?4wav?$AA@
CONST	SEGMENT
??_C@_0BI@KJGGOELM@weapons?1shotgun_dbl?4wav?$AA@ DB 'weapons/shotgun_dbl'
	DB	'.wav', 00H					; `string'
CONST	ENDS
;	COMDAT ??_C@_0BL@FDNMHMN@weapons?1shotgun_single?4wav?$AA@
CONST	SEGMENT
??_C@_0BL@FDNMHMN@weapons?1shotgun_single?4wav?$AA@ DB 'weapons/shotgun_s'
	DB	'ingle.wav', 00H				; `string'
CONST	ENDS
;	COMDAT ??_C@_0BI@IJKHDNAN@weapons?1rocketfire1?4wav?$AA@
CONST	SEGMENT
??_C@_0BI@IJKHDNAN@weapons?1rocketfire1?4wav?$AA@ DB 'weapons/rocketfire1'
	DB	'.wav', 00H					; `string'
CONST	ENDS
;	COMDAT ??_C@_0BH@EGIFNJD@weapons?1g36c_shoot?4wav?$AA@
CONST	SEGMENT
??_C@_0BH@EGIFNJD@weapons?1g36c_shoot?4wav?$AA@ DB 'weapons/g36c_shoot.wa'
	DB	'v', 00H					; `string'
CONST	ENDS
;	COMDAT ??_C@_0BM@FJIGDPOC@weapons?1fiveseven_shoot?4wav?$AA@
CONST	SEGMENT
??_C@_0BM@FJIGDPOC@weapons?1fiveseven_shoot?4wav?$AA@ DB 'weapons/fivesev'
	DB	'en_shoot.wav', 00H				; `string'
CONST	ENDS
;	COMDAT ??_C@_0BJ@KHPOFAGN@weapons?1deagle_shot1?4wav?$AA@
CONST	SEGMENT
??_C@_0BJ@KHPOFAGN@weapons?1deagle_shot1?4wav?$AA@ DB 'weapons/deagle_sho'
	DB	't1.wav', 00H				; `string'
CONST	ENDS
;	COMDAT ??_C@_0BH@OFCAHODE@weapons?1xbow_fire1?4wav?$AA@
CONST	SEGMENT
??_C@_0BH@OFCAHODE@weapons?1xbow_fire1?4wav?$AA@ DB 'weapons/xbow_fire1.w'
	DB	'av', 00H					; `string'
CONST	ENDS
;	COMDAT ??_C@_0BE@DNNJJDEB@weapons?1pistol3?4wav?$AA@
CONST	SEGMENT
??_C@_0BE@DNNJJDEB@weapons?1pistol3?4wav?$AA@ DB 'weapons/pistol3.wav', 00H ; `string'
CONST	ENDS
;	COMDAT ??_C@_0BE@PGIFEAOE@weapons?1pistol2?4wav?$AA@
CONST	SEGMENT
??_C@_0BE@PGIFEAOE@weapons?1pistol2?4wav?$AA@ DB 'weapons/pistol2.wav', 00H ; `string'
CONST	ENDS
;	COMDAT ??_C@_0BE@HABBDCEK@weapons?1pistol1?4wav?$AA@
CONST	SEGMENT
??_C@_0BE@HABBDCEK@weapons?1pistol1?4wav?$AA@ DB 'weapons/pistol1.wav', 00H ; `string'
CONST	ENDS
;	COMDAT ??_C@_0BK@HIMOJLLF@weapons?1ar2_secondary?4wav?$AA@
CONST	SEGMENT
??_C@_0BK@HIMOJLLF@weapons?1ar2_secondary?4wav?$AA@ DB 'weapons/ar2_secon'
	DB	'dary.wav', 00H				; `string'
CONST	ENDS
;	COMDAT ??_C@_0BM@EIGLEGAL@drone?1aliendrone_shoot4?4wav?$AA@
CONST	SEGMENT
??_C@_0BM@EIGLEGAL@drone?1aliendrone_shoot4?4wav?$AA@ DB 'drone/aliendron'
	DB	'e_shoot4.wav', 00H				; `string'
CONST	ENDS
;	COMDAT ??_C@_0BM@FFGOHGLD@drone?1aliendrone_shoot3?4wav?$AA@
CONST	SEGMENT
??_C@_0BM@FFGOHGLD@drone?1aliendrone_shoot3?4wav?$AA@ DB 'drone/aliendron'
	DB	'e_shoot3.wav', 00H				; `string'
CONST	ENDS
;	COMDAT ??_C@_0BM@JODCKFBG@drone?1aliendrone_shoot2?4wav?$AA@
CONST	SEGMENT
??_C@_0BM@JODCKFBG@drone?1aliendrone_shoot2?4wav?$AA@ DB 'drone/aliendron'
	DB	'e_shoot2.wav', 00H				; `string'
CONST	ENDS
;	COMDAT ??_C@_0BM@BIKGNHLI@drone?1aliendrone_shoot1?4wav?$AA@
CONST	SEGMENT
??_C@_0BM@BIKGNHLI@drone?1aliendrone_shoot1?4wav?$AA@ DB 'drone/aliendron'
	DB	'e_shoot1.wav', 00H				; `string'
CONST	ENDS
;	COMDAT ??_C@_0BG@MDAACEKK@weapons?1glauncher?4wav?$AA@
CONST	SEGMENT
??_C@_0BG@MDAACEKK@weapons?1glauncher?4wav?$AA@ DB 'weapons/glauncher.wav'
	DB	00H						; `string'
CONST	ENDS
;	COMDAT ??_C@_0BB@JMMPELLE@weapons?1hks3?4wav?$AA@
CONST	SEGMENT
??_C@_0BB@JMMPELLE@weapons?1hks3?4wav?$AA@ DB 'weapons/hks3.wav', 00H ; `string'
CONST	ENDS
;	COMDAT ??_C@_0BB@FHJDJIBB@weapons?1hks2?4wav?$AA@
CONST	SEGMENT
??_C@_0BB@FHJDJIBB@weapons?1hks2?4wav?$AA@ DB 'weapons/hks2.wav', 00H ; `string'
CONST	ENDS
;	COMDAT ??_C@_0BB@NBAHOKLP@weapons?1hks1?4wav?$AA@
CONST	SEGMENT
??_C@_0BB@NBAHOKLP@weapons?1hks1?4wav?$AA@ DB 'weapons/hks1.wav', 00H ; `string'
CONST	ENDS
;	COMDAT ??_C@_0BC@EDAKFMPG@weapons?1mp5?93?4wav?$AA@
CONST	SEGMENT
??_C@_0BC@EDAKFMPG@weapons?1mp5?93?4wav?$AA@ DB 'weapons/mp5-3.wav', 00H ; `string'
CONST	ENDS
;	COMDAT ??_C@_0BC@IIFGIPFD@weapons?1mp5?92?4wav?$AA@
CONST	SEGMENT
??_C@_0BC@IIFGIPFD@weapons?1mp5?92?4wav?$AA@ DB 'weapons/mp5-2.wav', 00H ; `string'
CONST	ENDS
;	COMDAT ??_C@_0BC@OMCPNPN@weapons?1mp5?91?4wav?$AA@
CONST	SEGMENT
??_C@_0BC@OMCPNPN@weapons?1mp5?91?4wav?$AA@ DB 'weapons/mp5-1.wav', 00H ; `string'
CONST	ENDS
;	COMDAT ??_C@_05DKELCLGM@incar?$AA@
CONST	SEGMENT
??_C@_05DKELCLGM@incar?$AA@ DB 'incar', 00H		; `string'
CONST	ENDS
;	COMDAT ??_C@_0O@IANKPAGM@STILL?5LOCKED?6?$AA@
CONST	SEGMENT
??_C@_0O@IANKPAGM@STILL?5LOCKED?6?$AA@ DB 'STILL LOCKED', 0aH, 00H ; `string'
CONST	ENDS
;	COMDAT ??_C@_08MIMEMOBM@CLAMPED?6?$AA@
CONST	SEGMENT
??_C@_08MIMEMOBM@CLAMPED?6?$AA@ DB 'CLAMPED', 0aH, 00H	; `string'
CONST	ENDS
;	COMDAT ??_C@_09LPIEBFMA@BLEND?5?$CFf?6?$AA@
CONST	SEGMENT
??_C@_09LPIEBFMA@BLEND?5?$CFf?6?$AA@ DB 'BLEND %f', 0aH, 00H ; `string'
CONST	ENDS
;	COMDAT ??_C@_0BI@PLJDMDHA@ui_backgroundmap_active?$AA@
CONST	SEGMENT
??_C@_0BI@PLJDMDHA@ui_backgroundmap_active?$AA@ DB 'ui_backgroundmap_acti'
	DB	've', 00H					; `string'
CONST	ENDS
;	COMDAT ??_C@_0N@MABMHHHC@ui_is_active?$AA@
CONST	SEGMENT
??_C@_0N@MABMHHHC@ui_is_active?$AA@ DB 'ui_is_active', 00H ; `string'
CONST	ENDS
;	COMDAT ??_C@_0L@FHIBDANG@centerview?$AA@
CONST	SEGMENT
??_C@_0L@FHIBDANG@centerview?$AA@ DB 'centerview', 00H	; `string'
CONST	ENDS
;	COMDAT ??_C@_0M@LNKEOFGC@gl_cubemaps?$AA@
CONST	SEGMENT
??_C@_0M@LNKEOFGC@gl_cubemaps?$AA@ DB 'gl_cubemaps', 00H ; `string'
CONST	ENDS
;	COMDAT ??_C@_0O@KEIAHEAI@buildcubemaps?$AA@
CONST	SEGMENT
??_C@_0O@KEIAHEAI@buildcubemaps?$AA@ DB 'buildcubemaps', 00H ; `string'
CONST	ENDS
;	COMDAT ??_C@_08JEIAHPPN@cubeshot?$AA@
CONST	SEGMENT
??_C@_08JEIAHPPN@cubeshot?$AA@ DB 'cubeshot', 00H	; `string'
CONST	ENDS
;	COMDAT ??_C@_07CBBOEAIB@gl_bump?$AA@
CONST	SEGMENT
??_C@_07CBBOEAIB@gl_bump?$AA@ DB 'gl_bump', 00H		; `string'
CONST	ENDS
;	COMDAT ??_C@_0M@OMHPIIHM@gl_specular?$AA@
CONST	SEGMENT
??_C@_0M@OMHPIIHM@gl_specular?$AA@ DB 'gl_specular', 00H ; `string'
CONST	ENDS
;	COMDAT ??_C@_09KGOJFLNI@gl_emboss?$AA@
CONST	SEGMENT
??_C@_09KGOJFLNI@gl_emboss?$AA@ DB 'gl_emboss', 00H	; `string'
CONST	ENDS
;	COMDAT ??_C@_0M@BLNGKPCK@gl_exposure?$AA@
CONST	SEGMENT
??_C@_0M@BLNGKPCK@gl_exposure?$AA@ DB 'gl_exposure', 00H ; `string'
CONST	ENDS
;	COMDAT ??_C@_0BA@EGFHJHFH@gl_water_planar?$AA@
CONST	SEGMENT
??_C@_0BA@EGFHJHFH@gl_water_planar?$AA@ DB 'gl_water_planar', 00H ; `string'
CONST	ENDS
;	COMDAT ??_C@_0BE@BFMMIIHC@gl_water_refraction?$AA@
CONST	SEGMENT
??_C@_0BE@BFMMIIHC@gl_water_refraction?$AA@ DB 'gl_water_refraction', 00H ; `string'
CONST	ENDS
;	COMDAT ??_C@_0N@MONBPAIL@gl_lensflare?$AA@
CONST	SEGMENT
??_C@_0N@MONBPAIL@gl_lensflare?$AA@ DB 'gl_lensflare', 00H ; `string'
CONST	ENDS
;	COMDAT ??_C@_0N@MDEGGAML@r_testdlight?$AA@
CONST	SEGMENT
??_C@_0N@MDEGGAML@r_testdlight?$AA@ DB 'r_testdlight', 00H ; `string'
CONST	ENDS
;	COMDAT ??_C@_0BA@BJLPPIMH@r_mirrorquality?$AA@
CONST	SEGMENT
??_C@_0BA@BJLPPIMH@r_mirrorquality?$AA@ DB 'r_mirrorquality', 00H ; `string'
CONST	ENDS
;	COMDAT ??_C@_0BA@BOFCDMGF@r_shadowquality?$AA@
CONST	SEGMENT
??_C@_0BA@BOFCDMGF@r_shadowquality?$AA@ DB 'r_shadowquality', 00H ; `string'
CONST	ENDS
;	COMDAT ??_C@_0O@NLBMGMOM@gl_ssao_debug?$AA@
CONST	SEGMENT
??_C@_0O@NLBMGMOM@gl_ssao_debug?$AA@ DB 'gl_ssao_debug', 00H ; `string'
CONST	ENDS
;	COMDAT ??_C@_07JNLFFGJF@gl_ssao?$AA@
CONST	SEGMENT
??_C@_07JNLFFGJF@gl_ssao?$AA@ DB 'gl_ssao', 00H		; `string'
CONST	ENDS
;	COMDAT ??_C@_0BI@DOBENBLG@gl_sunshafts_brightness?$AA@
CONST	SEGMENT
??_C@_0BI@DOBENBLG@gl_sunshafts_brightness?$AA@ DB 'gl_sunshafts_brightne'
	DB	'ss', 00H					; `string'
CONST	ENDS
;	COMDAT ??_C@_0BC@MOFLFICK@gl_sunshafts_blur?$AA@
CONST	SEGMENT
??_C@_0BC@MOFLFICK@gl_sunshafts_blur?$AA@ DB 'gl_sunshafts_blur', 00H ; `string'
CONST	ENDS
;	COMDAT ??_C@_0N@PDOMDMIC@gl_sunshafts?$AA@
CONST	SEGMENT
??_C@_0N@PDOMDMIC@gl_sunshafts?$AA@ DB 'gl_sunshafts', 00H ; `string'
CONST	ENDS
;	COMDAT ??_C@_0O@DILNJCAB@r_sun_allowed?$AA@
CONST	SEGMENT
??_C@_0O@DILNJCAB@r_sun_allowed?$AA@ DB 'r_sun_allowed', 00H ; `string'
CONST	ENDS
;	COMDAT ??_C@_0BA@IGAEPFGJ@r_blur_strength?$AA@
CONST	SEGMENT
??_C@_0BA@IGAEPFGJ@r_blur_strength?$AA@ DB 'r_blur_strength', 00H ; `string'
CONST	ENDS
;	COMDAT ??_C@_0BB@CAFICHGA@r_blur_threshold?$AA@
CONST	SEGMENT
??_C@_0BB@CAFICHGA@r_blur_threshold?$AA@ DB 'r_blur_threshold', 00H ; `string'
CONST	ENDS
;	COMDAT ??_C@_06DJINIGPI@r_blur?$AA@
CONST	SEGMENT
??_C@_06DJINIGPI@r_blur?$AA@ DB 'r_blur', 00H		; `string'
CONST	ENDS
;	COMDAT ??_C@_0M@BIELKGOF@thirdperson?$AA@
CONST	SEGMENT
??_C@_0M@BIELKGOF@thirdperson?$AA@ DB 'thirdperson', 00H ; `string'
CONST	ENDS
;	COMDAT ??_C@_07EIFGGFJK@r_bloom?$AA@
CONST	SEGMENT
??_C@_07EIFGGFJK@r_bloom?$AA@ DB 'r_bloom', 00H		; `string'
CONST	ENDS
;	COMDAT ??_C@_0BA@MKFNFGCF@r_bloom_sprites?$AA@
CONST	SEGMENT
??_C@_0BA@MKFNFGCF@r_bloom_sprites?$AA@ DB 'r_bloom_sprites', 00H ; `string'
CONST	ENDS
;	COMDAT ??_C@_0BC@OAPGPDFN@r_bloom_intensity?$AA@
CONST	SEGMENT
??_C@_0BC@OAPGPDFN@r_bloom_intensity?$AA@ DB 'r_bloom_intensity', 00H ; `string'
CONST	ENDS
;	COMDAT ??_C@_0BF@EBOCIPBI@r_bloom_diamond_size?$AA@
CONST	SEGMENT
??_C@_0BF@EBOCIPBI@r_bloom_diamond_size?$AA@ DB 'r_bloom_diamond_size', 00H ; `string'
CONST	ENDS
;	COMDAT ??_C@_01BMBHCPLG@5?$AA@
CONST	SEGMENT
??_C@_01BMBHCPLG@5?$AA@ DB '5', 00H			; `string'
CONST	ENDS
;	COMDAT ??_C@_0P@BAHCCEAO@r_bloom_darken?$AA@
CONST	SEGMENT
??_C@_0P@BAHCCEAO@r_bloom_darken?$AA@ DB 'r_bloom_darken', 00H ; `string'
CONST	ENDS
;	COMDAT ??_C@_0BE@HPCBIAOE@r_bloom_fast_sample?$AA@
CONST	SEGMENT
??_C@_0BE@HPCBIAOE@r_bloom_fast_sample?$AA@ DB 'r_bloom_fast_sample', 00H ; `string'
CONST	ENDS
;	COMDAT ??_C@_0BE@FEEHIPNM@r_bloom_sample_size?$AA@
CONST	SEGMENT
??_C@_0BE@FEEHIPNM@r_bloom_sample_size?$AA@ DB 'r_bloom_sample_size', 00H ; `string'
CONST	ENDS
;	COMDAT ??_C@_02MLODCJFF@32?$AA@
CONST	SEGMENT
??_C@_02MLODCJFF@32?$AA@ DB '32', 00H			; `string'
CONST	ENDS
;	COMDAT ??_C@_0O@GGCKPOBB@r_bloom_alpha?$AA@
CONST	SEGMENT
??_C@_0O@GGCKPOBB@r_bloom_alpha?$AA@ DB 'r_bloom_alpha', 00H ; `string'
CONST	ENDS
;	COMDAT ??_C@_0BA@OBDIHDFB@r_show_cubemaps?$AA@
CONST	SEGMENT
??_C@_0BA@OBDIHDFB@r_show_cubemaps?$AA@ DB 'r_show_cubemaps', 00H ; `string'
CONST	ENDS
;	COMDAT ??_C@_0N@BFAHHKIN@r_fade_props?$AA@
CONST	SEGMENT
??_C@_0N@BFAHHKIN@r_fade_props?$AA@ DB 'r_fade_props', 00H ; `string'
CONST	ENDS
;	COMDAT ??_C@_0BD@BBNEEJCH@r_show_lightprobes?$AA@
CONST	SEGMENT
??_C@_0BD@BBNEEJCH@r_show_lightprobes?$AA@ DB 'r_show_lightprobes', 00H ; `string'
CONST	ENDS
;	COMDAT ??_C@_0P@PNMJIJOO@r_show_normals?$AA@
CONST	SEGMENT
??_C@_0P@PNMJIJOO@r_show_normals?$AA@ DB 'r_show_normals', 00H ; `string'
CONST	ENDS
;	COMDAT ??_C@_0BG@IECPCPIG@r_show_light_scissors?$AA@
CONST	SEGMENT
??_C@_0BG@IECPCPIG@r_show_light_scissors?$AA@ DB 'r_show_light_scissors', 00H ; `string'
CONST	ENDS
;	COMDAT ??_C@_0BC@BGPMJJLI@r_show_renderpass?$AA@
CONST	SEGMENT
??_C@_0BC@BGPMJJLI@r_show_renderpass?$AA@ DB 'r_show_renderpass', 00H ; `string'
CONST	ENDS
;	COMDAT ??_C@_0O@JOGOIFBI@r_drawsprites?$AA@
CONST	SEGMENT
??_C@_0O@JOGOIFBI@r_drawsprites?$AA@ DB 'r_drawsprites', 00H ; `string'
CONST	ENDS
;	COMDAT ??_C@_0M@BIOFCHNF@r_drawworld?$AA@
CONST	SEGMENT
??_C@_0M@BIOFCHNF@r_drawworld?$AA@ DB 'r_drawworld', 00H ; `string'
CONST	ENDS
;	COMDAT ??_C@_0BC@MMLPIPBH@r_grass_fade_dist?$AA@
CONST	SEGMENT
??_C@_0BC@MMLPIPBH@r_grass_fade_dist?$AA@ DB 'r_grass_fade_dist', 00H ; `string'
CONST	ENDS
;	COMDAT ??_C@_0BD@LAHCAEAM@r_grass_fade_start?$AA@
CONST	SEGMENT
??_C@_0BD@LAHCAEAM@r_grass_fade_start?$AA@ DB 'r_grass_fade_start', 00H ; `string'
CONST	ENDS
;	COMDAT ??_C@_04CGOKOKBC@2048?$AA@
CONST	SEGMENT
??_C@_04CGOKOKBC@2048?$AA@ DB '2048', 00H		; `string'
CONST	ENDS
;	COMDAT ??_C@_0BA@MFPMGHMG@r_grass_shadows?$AA@
CONST	SEGMENT
??_C@_0BA@MFPMGHMG@r_grass_shadows?$AA@ DB 'r_grass_shadows', 00H ; `string'
CONST	ENDS
;	COMDAT ??_C@_0BB@EALHKIOB@r_grass_lighting?$AA@
CONST	SEGMENT
??_C@_0BB@EALHKIOB@r_grass_lighting?$AA@ DB 'r_grass_lighting', 00H ; `string'
CONST	ENDS
;	COMDAT ??_C@_0O@DPAFMEAD@r_grass_alpha?$AA@
CONST	SEGMENT
??_C@_0O@DPAFMEAD@r_grass_alpha?$AA@ DB 'r_grass_alpha', 00H ; `string'
CONST	ENDS
;	COMDAT ??_C@_07OGOJMPDC@r_grass?$AA@
CONST	SEGMENT
??_C@_07OGOJMPDC@r_grass?$AA@ DB 'r_grass', 00H		; `string'
CONST	ENDS
;	COMDAT ??_C@_0N@KNKGFGNJ@r_drawmodels?$AA@
CONST	SEGMENT
??_C@_0N@KNKGFGNJ@r_drawmodels?$AA@ DB 'r_drawmodels', 00H ; `string'
CONST	ENDS
;	COMDAT ??_C@_0BI@CDCICLLF@gl_recursive_world_node?$AA@
CONST	SEGMENT
??_C@_0BI@CDCICLLF@gl_recursive_world_node?$AA@ DB 'gl_recursive_world_no'
	DB	'de', 00H					; `string'
CONST	ENDS
;	COMDAT ??_C@_0BD@ELMLAENJ@gl_recursion_depth?$AA@
CONST	SEGMENT
??_C@_0BD@ELMLAENJ@gl_recursion_depth?$AA@ DB 'gl_recursion_depth', 00H ; `string'
CONST	ENDS
;	COMDAT ??_C@_0P@IGFIIIOH@gl_allow_3dsky?$AA@
CONST	SEGMENT
??_C@_0P@IGFIIIOH@gl_allow_3dsky?$AA@ DB 'gl_allow_3dsky', 00H ; `string'
CONST	ENDS
;	COMDAT ??_C@_09EAFHGGLN@r_shadows?$AA@
CONST	SEGMENT
??_C@_09EAFHGGLN@r_shadows?$AA@ DB 'r_shadows', 00H	; `string'
CONST	ENDS
;	COMDAT ??_C@_0M@HHCNIMA@gl_renderer?$AA@
CONST	SEGMENT
??_C@_0M@HHCNIMA@gl_renderer?$AA@ DB 'gl_renderer', 00H	; `string'
CONST	ENDS
;	COMDAT ??_C@_0BB@DGJOFNPO@gl_allow_screens?$AA@
CONST	SEGMENT
??_C@_0BB@DGJOFNPO@gl_allow_screens?$AA@ DB 'gl_allow_screens', 00H ; `string'
CONST	ENDS
;	COMDAT ??_C@_0BB@KONHMNGC@gl_allow_portals?$AA@
CONST	SEGMENT
??_C@_0BB@KONHMNGC@gl_allow_portals?$AA@ DB 'gl_allow_portals', 00H ; `string'
CONST	ENDS
;	COMDAT ??_C@_0O@MBIEBEEJ@cl_vsmoothing?$AA@
CONST	SEGMENT
??_C@_0O@MBIEBEEJ@cl_vsmoothing?$AA@ DB 'cl_vsmoothing', 00H ; `string'
CONST	ENDS
;	COMDAT ??_C@_04FOELEPEP@0?405?$AA@
CONST	SEGMENT
??_C@_04FOELEPEP@0?405?$AA@ DB '0.05', 00H		; `string'
CONST	ENDS
;	COMDAT ??_C@_0BE@DGDPLBLK@r_lighting_extended?$AA@
CONST	SEGMENT
??_C@_0BE@DGDPLBLK@r_lighting_extended?$AA@ DB 'r_lighting_extended', 00H ; `string'
CONST	ENDS
;	COMDAT ??_C@_0BG@IKBGNHPM@cl_lightstyle_lerping?$AA@
CONST	SEGMENT
??_C@_0BG@IKBGNHPM@cl_lightstyle_lerping?$AA@ DB 'cl_lightstyle_lerping', 00H ; `string'
CONST	ENDS
;	COMDAT ??_C@_0BE@NGHAOOJB@r_lighting_modulate?$AA@
CONST	SEGMENT
??_C@_0BE@NGHAOOJB@r_lighting_modulate?$AA@ DB 'r_lighting_modulate', 00H ; `string'
CONST	ENDS
;	COMDAT ??_C@_0BB@OJJFINJB@r_detailtextures?$AA@
CONST	SEGMENT
??_C@_0BB@OJJFINJB@r_detailtextures?$AA@ DB 'r_detailtextures', 00H ; `string'
CONST	ENDS
;	COMDAT ??_C@_0P@JAKGJBEE@r_drawentities?$AA@
CONST	SEGMENT
??_C@_0P@JAKGJBEE@r_drawentities?$AA@ DB 'r_drawentities', 00H ; `string'
CONST	ENDS
;	COMDAT ??_C@_0N@JEFJGNMG@r_fullbright?$AA@
CONST	SEGMENT
??_C@_0N@JEFJGNMG@r_fullbright?$AA@ DB 'r_fullbright', 00H ; `string'
CONST	ENDS
;	COMDAT ??_C@_0O@DJABIOB@gl_polyoffset?$AA@
CONST	SEGMENT
??_C@_0O@DJABIOB@gl_polyoffset?$AA@ DB 'gl_polyoffset', 00H ; `string'
CONST	ENDS
;	COMDAT ??_C@_0L@BECHNFGG@brightness?$AA@
CONST	SEGMENT
??_C@_0L@BECHNFGG@brightness?$AA@ DB 'brightness', 00H	; `string'
CONST	ENDS
;	COMDAT ??_C@_05KDLBCAI@gamma?$AA@
CONST	SEGMENT
??_C@_05KDLBCAI@gamma?$AA@ DB 'gamma', 00H		; `string'
CONST	ENDS
;	COMDAT ??_C@_0BA@FJPIIIDB@gl_check_errors?$AA@
CONST	SEGMENT
??_C@_0BA@FJPIIIDB@gl_check_errors?$AA@ DB 'gl_check_errors', 00H ; `string'
CONST	ENDS
;	COMDAT ??_C@_0N@NDLEOLDK@r_adjust_fov?$AA@
CONST	SEGMENT
??_C@_0N@NDLEOLDK@r_adjust_fov?$AA@ DB 'r_adjust_fov', 00H ; `string'
CONST	ENDS
;	COMDAT ??_C@_0N@BABLDJLO@gl_wireframe?$AA@
CONST	SEGMENT
??_C@_0N@BABLDJLO@gl_wireframe?$AA@ DB 'gl_wireframe', 00H ; `string'
CONST	ENDS
;	COMDAT ??_C@_0L@GFIPPKI@r_lightmap?$AA@
CONST	SEGMENT
??_C@_0L@GFIPPKI@r_lightmap?$AA@ DB 'r_lightmap', 00H	; `string'
CONST	ENDS
;	COMDAT ??_C@_09DIEFKAPA@r_dynamic?$AA@
CONST	SEGMENT
??_C@_09DIEFKAPA@r_dynamic?$AA@ DB 'r_dynamic', 00H	; `string'
CONST	ENDS
;	COMDAT ??_C@_09OGELGAJA@r_lockpvs?$AA@
CONST	SEGMENT
??_C@_09OGELGAJA@r_lockpvs?$AA@ DB 'r_lockpvs', 00H	; `string'
CONST	ENDS
;	COMDAT ??_C@_09PKCFOMOL@gl_nosort?$AA@
CONST	SEGMENT
??_C@_09PKCFOMOL@gl_nosort?$AA@ DB 'gl_nosort', 00H	; `string'
CONST	ENDS
;	COMDAT ??_C@_08GDHICAID@r_nocull?$AA@
CONST	SEGMENT
??_C@_08GDHICAID@r_nocull?$AA@ DB 'r_nocull', 00H	; `string'
CONST	ENDS
;	COMDAT ??_C@_07IFOJIEEJ@r_novis?$AA@
CONST	SEGMENT
??_C@_07IFOJIEEJ@r_novis?$AA@ DB 'r_novis', 00H		; `string'
CONST	ENDS
;	COMDAT ??_C@_08CDPCOEFH@viewsize?$AA@
CONST	SEGMENT
??_C@_08CDPCOEFH@viewsize?$AA@ DB 'viewsize', 00H	; `string'
CONST	ENDS
;	COMDAT ??_C@_07OMHDDOEC@gl_test?$AA@
CONST	SEGMENT
??_C@_07OMHDDOEC@gl_test?$AA@ DB 'gl_test', 00H		; `string'
CONST	ENDS
;	COMDAT ??_C@_08ILOBJANK@r_speeds?$AA@
CONST	SEGMENT
??_C@_08ILOBJANK@r_speeds?$AA@ DB 'r_speeds', 00H	; `string'
CONST	ENDS
;	COMDAT ??_C@_08PJGLHBHM@gl_clear?$AA@
CONST	SEGMENT
??_C@_08PJGLHBHM@gl_clear?$AA@ DB 'gl_clear', 00H	; `string'
CONST	ENDS
;	COMDAT ??_C@_09EFDNHKBE@gl_finish?$AA@
CONST	SEGMENT
??_C@_09EFDNHKBE@gl_finish?$AA@ DB 'gl_finish', 00H	; `string'
CONST	ENDS
;	COMDAT ??_C@_0BE@PPOOCPHN@gl_allow_extensions?$AA@
CONST	SEGMENT
??_C@_0BE@PPOOCPHN@gl_allow_extensions?$AA@ DB 'gl_allow_extensions', 00H ; `string'
CONST	ENDS
;	COMDAT ??_C@_08FDCNJKIA@cl_notbn?$AA@
CONST	SEGMENT
??_C@_08FDCNJKIA@cl_notbn?$AA@ DB 'cl_notbn', 00H	; `string'
CONST	ENDS
;	COMDAT ??_C@_08DFJPPKFA@cl_tutor?$AA@
CONST	SEGMENT
??_C@_08DFJPPKFA@cl_tutor?$AA@ DB 'cl_tutor', 00H	; `string'
CONST	ENDS
;	COMDAT ??_C@_0BC@EICEGNAB@cl_viewmodelblend?$AA@
CONST	SEGMENT
??_C@_0BC@EICEGNAB@cl_viewmodelblend?$AA@ DB 'cl_viewmodelblend', 00H ; `string'
CONST	ENDS
;	COMDAT ??_C@_0M@DJGMFACH@cl_showmsgs?$AA@
CONST	SEGMENT
??_C@_0M@DJGMFACH@cl_showmsgs?$AA@ DB 'cl_showmsgs', 00H ; `string'
CONST	ENDS
;	COMDAT ??_C@_0P@FAGLAFPE@cl_muzzlelight?$AA@
CONST	SEGMENT
??_C@_0P@FAGLAFPE@cl_muzzlelight?$AA@ DB 'cl_muzzlelight', 00H ; `string'
CONST	ENDS
;	COMDAT ??_C@_0BE@JEBBIIEF@cl_localweaponanims?$AA@
CONST	SEGMENT
??_C@_0BE@JEBBIIEF@cl_localweaponanims?$AA@ DB 'cl_localweaponanims', 00H ; `string'
CONST	ENDS
;	COMDAT ??_C@_0BC@DKBJDAEO@cl_showhealthbars?$AA@
CONST	SEGMENT
??_C@_0BC@DKBJDAEO@cl_showhealthbars?$AA@ DB 'cl_showhealthbars', 00H ; `string'
CONST	ENDS
;	COMDAT ??_C@_0BG@MCDBKDJE@cl_achievement_notify?$AA@
CONST	SEGMENT
??_C@_0BG@MCDBKDJE@cl_achievement_notify?$AA@ DB 'cl_achievement_notify', 00H ; `string'
CONST	ENDS
;	COMDAT ??_C@_0M@HAOCLFJC@cl_hitsound?$AA@
CONST	SEGMENT
??_C@_0M@HAOCLFJC@cl_hitsound?$AA@ DB 'cl_hitsound', 00H ; `string'
CONST	ENDS
;	COMDAT ??_C@_01GBGANLPD@0?$AA@
CONST	SEGMENT
??_C@_01GBGANLPD@0?$AA@ DB '0', 00H			; `string'
CONST	ENDS
;	COMDAT ??_C@_0N@LKBNENON@cl_weaponlag?$AA@
CONST	SEGMENT
??_C@_0N@LKBNENON@cl_weaponlag?$AA@ DB 'cl_weaponlag', 00H ; `string'
CONST	ENDS
;	COMDAT ??_C@_0N@PGEHGMMM@cl_chasedist?$AA@
CONST	SEGMENT
??_C@_0N@PGEHGMMM@cl_chasedist?$AA@ DB 'cl_chasedist', 00H ; `string'
CONST	ENDS
;	COMDAT ??_C@_03FOPFGEPB@112?$AA@
CONST	SEGMENT
??_C@_03FOPFGEPB@112?$AA@ DB '112', 00H			; `string'
CONST	ENDS
;	COMDAT ??_C@_0N@FKCHFPJN@cl_waterdist?$AA@
CONST	SEGMENT
??_C@_0N@FKCHFPJN@cl_waterdist?$AA@ DB 'cl_waterdist', 00H ; `string'
CONST	ENDS
;	COMDAT ??_C@_01FAMBOPH@4?$AA@
CONST	SEGMENT
??_C@_01FAMBOPH@4?$AA@ DB '4', 00H			; `string'
CONST	ENDS
;	COMDAT ??_C@_08JMLFNIJC@cl_bobup?$AA@
CONST	SEGMENT
??_C@_08JMLFNIJC@cl_bobup?$AA@ DB 'cl_bobup', 00H	; `string'
CONST	ENDS
;	COMDAT ??_C@_06JINHFLHC@cl_bob?$AA@
CONST	SEGMENT
??_C@_06JINHFLHC@cl_bob?$AA@ DB 'cl_bob', 00H		; `string'
CONST	ENDS
;	COMDAT ??_C@_04DKCHIKEL@0?401?$AA@
CONST	SEGMENT
??_C@_04DKCHIKEL@0?401?$AA@ DB '0.01', 00H		; `string'
CONST	ENDS
;	COMDAT ??_C@_0M@KEDGBCKK@cl_bobcycle?$AA@
CONST	SEGMENT
??_C@_0M@KEDGBCKK@cl_bobcycle?$AA@ DB 'cl_bobcycle', 00H ; `string'
CONST	ENDS
;	COMDAT ??_C@_03LNMAPFD@0?48?$AA@
CONST	SEGMENT
??_C@_03LNMAPFD@0?48?$AA@ DB '0.8', 00H			; `string'
CONST	ENDS
;	COMDAT ??_C@_0O@NKNAOODD@v_centerspeed?$AA@
CONST	SEGMENT
??_C@_0O@NKNAOODD@v_centerspeed?$AA@ DB 'v_centerspeed', 00H ; `string'
CONST	ENDS
;	COMDAT ??_C@_03OCGDPLBD@500?$AA@
CONST	SEGMENT
??_C@_03OCGDPLBD@500?$AA@ DB '500', 00H			; `string'
CONST	ENDS
;	COMDAT ??_C@_0N@DDEDDFCJ@v_centermove?$AA@
CONST	SEGMENT
??_C@_0N@DDEDDFCJ@v_centermove?$AA@ DB 'v_centermove', 00H ; `string'
CONST	ENDS
;	COMDAT ??_C@_04FPIJCFHI@0?415?$AA@
CONST	SEGMENT
??_C@_04FPIJCFHI@0?415?$AA@ DB '0.15', 00H		; `string'
CONST	ENDS
;	COMDAT ??_C@_0BI@ICOFOGGD@player?1fling_whoosh?4wav?$AA@
CONST	SEGMENT
??_C@_0BI@ICOFOGGD@player?1fling_whoosh?4wav?$AA@ DB 'player/fling_whoosh'
	DB	'.wav', 00H					; `string'
CONST	ENDS
;	COMDAT ??_C@_0BF@DILEIDNG@player?1wallslide?4wav?$AA@
CONST	SEGMENT
??_C@_0BF@DILEIDNG@player?1wallslide?4wav?$AA@ DB 'player/wallslide.wav', 00H ; `string'
CONST	ENDS
;	COMDAT ??_C@_0CP@KDMNNDA@Thirdperson?5is?5not?5allowed?5in?5sp@
CONST	SEGMENT
??_C@_0CP@KDMNNDA@Thirdperson?5is?5not?5allowed?5in?5sp@ DB 'Thirdperson '
	DB	'is not allowed in spectator mode.', 0aH, 00H ; `string'
CONST	ENDS
;	COMDAT xdata$x
xdata$x	SEGMENT
__unwindtable$?V_InterpolatePos@@YAXPAUref_params_s@@@Z DD 0ffffffffH
	DD	FLAT:__unwindfunclet$?V_InterpolatePos@@YAXPAUref_params_s@@@Z$0
	DD	0ffffffffH
	DD	FLAT:__unwindfunclet$?V_InterpolatePos@@YAXPAUref_params_s@@@Z$1
__ehfuncinfo$?V_InterpolatePos@@YAXPAUref_params_s@@@Z DD 019930522H
	DD	02H
	DD	FLAT:__unwindtable$?V_InterpolatePos@@YAXPAUref_params_s@@@Z
	DD	2 DUP(00H)
	DD	2 DUP(00H)
	DD	00H
	DD	01H
xdata$x	ENDS
;	COMDAT xdata$x
xdata$x	SEGMENT
__unwindtable$?V_CalcViewModelLag@@YAXPAUref_params_s@@AAVVector@@1ABV2@@Z DD 0ffffffffH
	DD	FLAT:__unwindfunclet$?V_CalcViewModelLag@@YAXPAUref_params_s@@AAVVector@@1ABV2@@Z$0
__ehfuncinfo$?V_CalcViewModelLag@@YAXPAUref_params_s@@AAVVector@@1ABV2@@Z DD 019930522H
	DD	01H
	DD	FLAT:__unwindtable$?V_CalcViewModelLag@@YAXPAUref_params_s@@AAVVector@@1ABV2@@Z
	DD	2 DUP(00H)
	DD	2 DUP(00H)
	DD	00H
	DD	01H
xdata$x	ENDS
;	COMDAT xdata$x
xdata$x	SEGMENT
__unwindtable$?V_CalcSpectatorRefdef@@YAXPAUref_params_s@@@Z DD 0ffffffffH
	DD	FLAT:__unwindfunclet$?V_CalcSpectatorRefdef@@YAXPAUref_params_s@@@Z$0
__ehfuncinfo$?V_CalcSpectatorRefdef@@YAXPAUref_params_s@@@Z DD 019930522H
	DD	01H
	DD	FLAT:__unwindtable$?V_CalcSpectatorRefdef@@YAXPAUref_params_s@@@Z
	DD	2 DUP(00H)
	DD	2 DUP(00H)
	DD	00H
	DD	01H
xdata$x	ENDS
CRT$XCU	SEGMENT
?v_angles$initializer$@@3P6AXXZA DD FLAT:??__Ev_angles@@YAXXZ ; v_angles$initializer$
CRT$XCU	ENDS
CRT$XCU	SEGMENT
?v_cl_angles$initializer$@@3P6AXXZA DD FLAT:??__Ev_cl_angles@@YAXXZ ; v_cl_angles$initializer$
CRT$XCU	ENDS
CRT$XCU	SEGMENT
?v_sim_org$initializer$@@3P6AXXZA DD FLAT:??__Ev_sim_org@@YAXXZ ; v_sim_org$initializer$
CRT$XCU	ENDS
CRT$XCU	SEGMENT
?v_lastAngles$initializer$@@3P6AXXZA DD FLAT:??__Ev_lastAngles@@YAXXZ ; v_lastAngles$initializer$
CRT$XCU	ENDS
CRT$XCU	SEGMENT
?vJumpOrigin$initializer$@@3P6AXXZA DD FLAT:??__EvJumpOrigin@@YAXXZ ; vJumpOrigin$initializer$
CRT$XCU	ENDS
CRT$XCU	SEGMENT
?vJumpAngles$initializer$@@3P6AXXZA DD FLAT:??__EvJumpAngles@@YAXXZ ; vJumpAngles$initializer$
CRT$XCU	ENDS
; Function compile flags: /Odtp /ZI
; File d:\!diffusion 2020\source code 2022\client-server\client\render\view.cpp
;	COMDAT ?V_LocalWeaponAnimations@@YAXPAUref_params_s@@@Z
_TEXT	SEGMENT
tv652 = -104						; size = 4
tv487 = -104						; size = 4
tv380 = -104						; size = 4
tv329 = -104						; size = 4
tv239 = -104						; size = 4
tv212 = -104						; size = 4
tv154 = -104						; size = 4
tv141 = -104						; size = 4
tv83 = -104						; size = 4
tv80 = -101						; size = 1
tv77 = -101						; size = 1
_Underwater$ = -21					; size = 1
_MaxSAmmoCapacity$ = -20				; size = 4
_CurrentSAmmoClip$ = -16				; size = 4
_CurrentPAmmoClip$ = -12				; size = 4
_Attack2$ = -6						; size = 1
_Attack1$ = -5						; size = 1
_player$ = -4						; size = 4
_pparams$ = 8						; size = 4
?V_LocalWeaponAnimations@@YAXPAUref_params_s@@@Z PROC	; V_LocalWeaponAnimations, COMDAT

; 1794 : {

	push	ebp
	mov	ebp, esp
	sub	esp, 104				; 00000068H
	push	ebx
	push	esi
	push	edi

; 1795 : 	if( !LocalWeaponAnims() )

	call	?LocalWeaponAnims@@YA_NXZ		; LocalWeaponAnims
	movzx	eax, al
	test	eax, eax
	jne	SHORT $LN12@V_LocalWea

; 1796 : 		return;

	jmp	$LN1@V_LocalWea
$LN12@V_LocalWea:

; 1797 : 
; 1798 : 	if( !RP_NORMALPASS() )

	mov	eax, DWORD PTR ?RI@@3PAUref_instance_t@@A ; RI
	mov	ecx, DWORD PTR [eax]
	and	ecx, 483				; 000001e3H
	je	SHORT $LN13@V_LocalWea

; 1799 : 		return;

	jmp	$LN1@V_LocalWea
$LN13@V_LocalWea:

; 1800 : 
; 1801 : 	if( CL_IsThirdPerson() )

	call	?CL_IsThirdPerson@@YAHXZ		; CL_IsThirdPerson
	test	eax, eax
	je	SHORT $LN14@V_LocalWea

; 1802 : 		return;

	jmp	$LN1@V_LocalWea
$LN14@V_LocalWea:

; 1803 : 
; 1804 : 	// weapons are hidden
; 1805 : 	if( gHUD.m_iHideHUDDisplay & (HIDEHUD_WPNS | HIDEHUD_ALL | HIDEHUD_WPNS_HOLDABLEITEM | HIDEHUD_WPNS_CUSTOM) )

	mov	eax, DWORD PTR ?gHUD@@3VCHud@@A+76
	and	eax, 53					; 00000035H
	je	SHORT $LN15@V_LocalWea

; 1806 : 		return;

	jmp	$LN1@V_LocalWea
$LN15@V_LocalWea:

; 1807 : 
; 1808 : 	cl_entity_t *player = gEngfuncs.GetLocalPlayer();

	call	DWORD PTR ?gEngfuncs@@3Ucl_enginefuncs_s@@A+204
	mov	DWORD PTR _player$[ebp], eax

; 1809 : 
; 1810 : 	bool Attack1 = (gHUD.m_iKeyBits & IN_ATTACK) ? true : false;

	mov	eax, DWORD PTR ?gHUD@@3VCHud@@A+72
	and	eax, 1
	je	SHORT $LN75@V_LocalWea
	mov	BYTE PTR tv77[ebp], 1
	jmp	SHORT $LN76@V_LocalWea
$LN75@V_LocalWea:
	mov	BYTE PTR tv77[ebp], 0
$LN76@V_LocalWea:
	mov	cl, BYTE PTR tv77[ebp]
	mov	BYTE PTR _Attack1$[ebp], cl

; 1811 : 	bool Attack2 = (gHUD.m_iKeyBits & IN_ATTACK2) ? true : false;

	mov	eax, DWORD PTR ?gHUD@@3VCHud@@A+72
	and	eax, 2048				; 00000800H
	je	SHORT $LN77@V_LocalWea
	mov	BYTE PTR tv80[ebp], 1
	jmp	SHORT $LN78@V_LocalWea
$LN77@V_LocalWea:
	mov	BYTE PTR tv80[ebp], 0
$LN78@V_LocalWea:
	mov	cl, BYTE PTR tv80[ebp]
	mov	BYTE PTR _Attack2$[ebp], cl

; 1812 : 	int CurrentPAmmoClip = 0;

	mov	DWORD PTR _CurrentPAmmoClip$[ebp], 0

; 1813 : 	int CurrentSAmmoClip = 0;

	mov	DWORD PTR _CurrentSAmmoClip$[ebp], 0

; 1814 : 	int MaxSAmmoCapacity = 0;

	mov	DWORD PTR _MaxSAmmoCapacity$[ebp], 0

; 1815 : 	bool Underwater = (pparams->waterlevel == 3);

	mov	eax, DWORD PTR _pparams$[ebp]
	cmp	DWORD PTR [eax+84], 3
	jne	SHORT $LN79@V_LocalWea
	mov	DWORD PTR tv83[ebp], 1
	jmp	SHORT $LN80@V_LocalWea
$LN79@V_LocalWea:
	mov	DWORD PTR tv83[ebp], 0
$LN80@V_LocalWea:
	mov	cl, BYTE PTR tv83[ebp]
	mov	BYTE PTR _Underwater$[ebp], cl

; 1816 : 	if( gHUD.m_Ammo.m_pWeapon )

	cmp	DWORD PTR ?gHUD@@3VCHud@@A+252, 0
	je	SHORT $LN16@V_LocalWea

; 1817 : 	{
; 1818 : 		CurrentPAmmoClip = gHUD.m_Ammo.m_pWeapon->iClip;

	mov	eax, DWORD PTR ?gHUD@@3VCHud@@A+252
	mov	ecx, DWORD PTR [eax+160]
	mov	DWORD PTR _CurrentPAmmoClip$[ebp], ecx

; 1819 : 		CurrentSAmmoClip = gWR.CountAmmo( gHUD.m_Ammo.m_pWeapon->iAmmo2Type );

	mov	eax, DWORD PTR ?gHUD@@3VCHud@@A+252
	mov	ecx, DWORD PTR [eax+132]
	push	ecx
	mov	ecx, OFFSET ?gWR@@3VWeaponsResource@@A	; gWR
	call	?CountAmmo@WeaponsResource@@QAEHH@Z	; WeaponsResource::CountAmmo
	mov	DWORD PTR _CurrentSAmmoClip$[ebp], eax

; 1820 : 		MaxSAmmoCapacity = gHUD.m_Ammo.m_pWeapon->iMax2; // check if weapon has secondary ammo at all

	mov	eax, DWORD PTR ?gHUD@@3VCHud@@A+252
	mov	ecx, DWORD PTR [eax+140]
	mov	DWORD PTR _MaxSAmmoCapacity$[ebp], ecx
$LN16@V_LocalWea:

; 1821 : 	}
; 1822 : 
; 1823 : 	if( !gHUD.CanShoot )

	movzx	eax, BYTE PTR ?gHUD@@3VCHud@@A+128
	test	eax, eax
	jne	SHORT $LN17@V_LocalWea

; 1824 : 	{
; 1825 : 		Attack1 = false;

	mov	BYTE PTR _Attack1$[ebp], 0

; 1826 : 		Attack2 = false;

	mov	BYTE PTR _Attack2$[ebp], 0
$LN17@V_LocalWea:

; 1827 : 	}
; 1828 : 
; 1829 : 	if( Attack1 && (tr.time < localanim_NextPAttackTime) )

	movzx	eax, BYTE PTR _Attack1$[ebp]
	test	eax, eax
	je	SHORT $LN18@V_LocalWea
	cvtss2sd xmm0, DWORD PTR ?localanim_NextPAttackTime@@3MA
	comisd	xmm0, QWORD PTR ?tr@@3Uref_globals_t@@A+8
	jbe	SHORT $LN18@V_LocalWea

; 1830 : 		return;

	jmp	$LN1@V_LocalWea
$LN18@V_LocalWea:

; 1831 : 
; 1832 : 	if( Attack1 && CurrentPAmmoClip == 0 )

	movzx	eax, BYTE PTR _Attack1$[ebp]
	test	eax, eax
	je	SHORT $LN19@V_LocalWea
	cmp	DWORD PTR _CurrentPAmmoClip$[ebp], 0
	jne	SHORT $LN19@V_LocalWea

; 1833 : 		return;

	jmp	$LN1@V_LocalWea
$LN19@V_LocalWea:

; 1834 : 
; 1835 : 	if( Attack2 && (tr.time < localanim_NextSAttackTime) )

	movzx	eax, BYTE PTR _Attack2$[ebp]
	test	eax, eax
	je	SHORT $LN20@V_LocalWea
	cvtss2sd xmm0, DWORD PTR ?localanim_NextSAttackTime@@3MA
	comisd	xmm0, QWORD PTR ?tr@@3Uref_globals_t@@A+8
	jbe	SHORT $LN20@V_LocalWea

; 1836 : 		return;

	jmp	$LN1@V_LocalWea
$LN20@V_LocalWea:

; 1837 : 
; 1838 : 	if( Attack2 && CurrentSAmmoClip == 0 && MaxSAmmoCapacity != -1 )

	movzx	eax, BYTE PTR _Attack2$[ebp]
	test	eax, eax
	je	SHORT $LN21@V_LocalWea
	cmp	DWORD PTR _CurrentSAmmoClip$[ebp], 0
	jne	SHORT $LN21@V_LocalWea
	cmp	DWORD PTR _MaxSAmmoCapacity$[ebp], -1
	je	SHORT $LN21@V_LocalWea

; 1839 : 		return;

	jmp	$LN1@V_LocalWea
$LN21@V_LocalWea:

; 1840 : 	
; 1841 : 	switch( localanim_WeaponID )

	mov	eax, DWORD PTR ?localanim_WeaponID@@3HA	; localanim_WeaponID
	mov	DWORD PTR tv141[ebp], eax
	mov	ecx, DWORD PTR tv141[ebp]
	sub	ecx, 1
	mov	DWORD PTR tv141[ebp], ecx
	cmp	DWORD PTR tv141[ebp], 22		; 00000016H
	ja	$LN2@V_LocalWea
	mov	edx, DWORD PTR tv141[ebp]
	movzx	eax, BYTE PTR $LN87@V_LocalWea[edx]
	jmp	DWORD PTR $LN88@V_LocalWea[eax*4]
$LN22@V_LocalWea:

; 1842 : 	{
; 1843 : 	case WEAPON_HKMP5:
; 1844 : 		if( Attack1 && !Underwater )

	movzx	eax, BYTE PTR _Attack1$[ebp]
	test	eax, eax
	je	$LN23@V_LocalWea
	movzx	eax, BYTE PTR _Underwater$[ebp]
	test	eax, eax
	jne	$LN23@V_LocalWea

; 1845 : 		{
; 1846 : 			gEngfuncs.pfnWeaponAnim( RANDOM_LONG( 4, 6 ), 0 );

	push	0
	push	6
	push	4
	call	DWORD PTR ?gEngfuncs@@3Ucl_enginefuncs_s@@A+272
	add	esp, 8
	push	eax
	call	DWORD PTR ?gEngfuncs@@3Ucl_enginefuncs_s@@A+264
	add	esp, 8

; 1847 : 			switch( RANDOM_LONG( 0, 2 ) )

	push	2
	push	0
	call	DWORD PTR ?gEngfuncs@@3Ucl_enginefuncs_s@@A+272
	add	esp, 8
	mov	DWORD PTR tv154[ebp], eax
	cmp	DWORD PTR tv154[ebp], 0
	je	SHORT $LN24@V_LocalWea
	cmp	DWORD PTR tv154[ebp], 1
	je	SHORT $LN25@V_LocalWea
	cmp	DWORD PTR tv154[ebp], 2
	je	$LN26@V_LocalWea
	jmp	$LN4@V_LocalWea
$LN24@V_LocalWea:

; 1848 : 			{
; 1849 : 			case 0: gEngfuncs.pEventAPI->EV_PlaySound( player->index, player->origin, CHAN_WEAPON, "weapons/mp5-1.wav", VOL_NORM, 0.6, 0, RANDOM_LONG( 98, 103 ) ); break;

	push	103					; 00000067H
	push	98					; 00000062H
	call	DWORD PTR ?gEngfuncs@@3Ucl_enginefuncs_s@@A+272
	add	esp, 8
	push	eax
	push	0
	push	ecx
	movss	xmm0, DWORD PTR __real@3f19999a
	movss	DWORD PTR [esp], xmm0
	push	ecx
	movss	xmm0, DWORD PTR __real@3f800000
	movss	DWORD PTR [esp], xmm0
	push	OFFSET ??_C@_0BC@OMCPNPN@weapons?1mp5?91?4wav?$AA@
	push	1
	mov	ecx, DWORD PTR _player$[ebp]
	add	ecx, 2888				; 00000b48H
	call	??BVector@@QAEPAMXZ			; Vector::operator float *
	push	eax
	mov	eax, DWORD PTR _player$[ebp]
	mov	ecx, DWORD PTR [eax]
	push	ecx
	mov	edx, DWORD PTR ?gEngfuncs@@3Ucl_enginefuncs_s@@A+336
	mov	eax, DWORD PTR [edx+4]
	call	eax
	add	esp, 32					; 00000020H
	jmp	$LN4@V_LocalWea
$LN25@V_LocalWea:

; 1850 : 			case 1: gEngfuncs.pEventAPI->EV_PlaySound( player->index, player->origin, CHAN_WEAPON, "weapons/mp5-2.wav", VOL_NORM, 0.6, 0, RANDOM_LONG( 98, 103 ) ); break;

	push	103					; 00000067H
	push	98					; 00000062H
	call	DWORD PTR ?gEngfuncs@@3Ucl_enginefuncs_s@@A+272
	add	esp, 8
	push	eax
	push	0
	push	ecx
	movss	xmm0, DWORD PTR __real@3f19999a
	movss	DWORD PTR [esp], xmm0
	push	ecx
	movss	xmm0, DWORD PTR __real@3f800000
	movss	DWORD PTR [esp], xmm0
	push	OFFSET ??_C@_0BC@IIFGIPFD@weapons?1mp5?92?4wav?$AA@
	push	1
	mov	ecx, DWORD PTR _player$[ebp]
	add	ecx, 2888				; 00000b48H
	call	??BVector@@QAEPAMXZ			; Vector::operator float *
	push	eax
	mov	eax, DWORD PTR _player$[ebp]
	mov	ecx, DWORD PTR [eax]
	push	ecx
	mov	edx, DWORD PTR ?gEngfuncs@@3Ucl_enginefuncs_s@@A+336
	mov	eax, DWORD PTR [edx+4]
	call	eax
	add	esp, 32					; 00000020H
	jmp	SHORT $LN4@V_LocalWea
$LN26@V_LocalWea:

; 1851 : 			case 2: gEngfuncs.pEventAPI->EV_PlaySound( player->index, player->origin, CHAN_WEAPON, "weapons/mp5-3.wav", VOL_NORM, 0.6, 0, RANDOM_LONG( 98, 103 ) ); break;

	push	103					; 00000067H
	push	98					; 00000062H
	call	DWORD PTR ?gEngfuncs@@3Ucl_enginefuncs_s@@A+272
	add	esp, 8
	push	eax
	push	0
	push	ecx
	movss	xmm0, DWORD PTR __real@3f19999a
	movss	DWORD PTR [esp], xmm0
	push	ecx
	movss	xmm0, DWORD PTR __real@3f800000
	movss	DWORD PTR [esp], xmm0
	push	OFFSET ??_C@_0BC@EDAKFMPG@weapons?1mp5?93?4wav?$AA@
	push	1
	mov	ecx, DWORD PTR _player$[ebp]
	add	ecx, 2888				; 00000b48H
	call	??BVector@@QAEPAMXZ			; Vector::operator float *
	push	eax
	mov	eax, DWORD PTR _player$[ebp]
	mov	ecx, DWORD PTR [eax]
	push	ecx
	mov	edx, DWORD PTR ?gEngfuncs@@3Ucl_enginefuncs_s@@A+336
	mov	eax, DWORD PTR [edx+4]
	call	eax
	add	esp, 32					; 00000020H
$LN4@V_LocalWea:

; 1852 : 			}
; 1853 : 			localanim_NextPAttackTime = tr.time + 0.1;

	movsd	xmm0, QWORD PTR ?tr@@3Uref_globals_t@@A+8
	addsd	xmm0, QWORD PTR __real@3fb999999999999a
	cvtsd2ss xmm0, xmm0
	movss	DWORD PTR ?localanim_NextPAttackTime@@3MA, xmm0

; 1854 : 			R_MakeWeaponShake( WEAPON_HKMP5, 0, true );

	push	1
	push	0
	push	19					; 00000013H
	call	?R_MakeWeaponShake@@YAXHH_N@Z		; R_MakeWeaponShake
	add	esp, 12					; 0000000cH

; 1855 : 			PlayLowAmmoSound( player->index, player->origin, (CurrentPAmmoClip <= 10 ? CurrentPAmmoClip : 0) );

	cmp	DWORD PTR _CurrentPAmmoClip$[ebp], 10	; 0000000aH
	jg	SHORT $LN81@V_LocalWea
	mov	eax, DWORD PTR _CurrentPAmmoClip$[ebp]
	mov	DWORD PTR tv212[ebp], eax
	jmp	SHORT $LN82@V_LocalWea
$LN81@V_LocalWea:
	mov	DWORD PTR tv212[ebp], 0
$LN82@V_LocalWea:
	mov	ecx, DWORD PTR tv212[ebp]
	push	ecx
	mov	edx, DWORD PTR _player$[ebp]
	add	edx, 2888				; 00000b48H
	sub	esp, 12					; 0000000cH
	mov	ecx, esp
	push	edx
	call	??0Vector@@QAE@ABV0@@Z			; Vector::Vector
	mov	eax, DWORD PTR _player$[ebp]
	mov	ecx, DWORD PTR [eax]
	push	ecx
	call	?PlayLowAmmoSound@@YAXHVVector@@H@Z	; PlayLowAmmoSound
	add	esp, 20					; 00000014H
$LN23@V_LocalWea:

; 1856 : 		}
; 1857 : 	break;

	jmp	$LN2@V_LocalWea
$LN27@V_LocalWea:

; 1858 : 	case WEAPON_MRC:
; 1859 : 		if( Attack1 && !Underwater )

	movzx	eax, BYTE PTR _Attack1$[ebp]
	test	eax, eax
	je	$LN28@V_LocalWea
	movzx	eax, BYTE PTR _Underwater$[ebp]
	test	eax, eax
	jne	$LN28@V_LocalWea

; 1860 : 		{
; 1861 : 			gEngfuncs.pfnWeaponAnim( RANDOM_LONG( 5, 7 ), 0 );

	push	0
	push	7
	push	5
	call	DWORD PTR ?gEngfuncs@@3Ucl_enginefuncs_s@@A+272
	add	esp, 8
	push	eax
	call	DWORD PTR ?gEngfuncs@@3Ucl_enginefuncs_s@@A+264
	add	esp, 8

; 1862 : 			switch( RANDOM_LONG( 0, 2 ) )

	push	2
	push	0
	call	DWORD PTR ?gEngfuncs@@3Ucl_enginefuncs_s@@A+272
	add	esp, 8
	mov	DWORD PTR tv239[ebp], eax
	cmp	DWORD PTR tv239[ebp], 0
	je	SHORT $LN29@V_LocalWea
	cmp	DWORD PTR tv239[ebp], 1
	je	SHORT $LN30@V_LocalWea
	cmp	DWORD PTR tv239[ebp], 2
	je	$LN31@V_LocalWea
	jmp	$LN6@V_LocalWea
$LN29@V_LocalWea:

; 1863 : 			{
; 1864 : 			case 0: gEngfuncs.pEventAPI->EV_PlaySound( player->index, player->origin, CHAN_WEAPON, "weapons/hks1.wav", VOL_NORM, 0.6, 0, RANDOM_LONG( 98, 103 ) ); break;

	push	103					; 00000067H
	push	98					; 00000062H
	call	DWORD PTR ?gEngfuncs@@3Ucl_enginefuncs_s@@A+272
	add	esp, 8
	push	eax
	push	0
	push	ecx
	movss	xmm0, DWORD PTR __real@3f19999a
	movss	DWORD PTR [esp], xmm0
	push	ecx
	movss	xmm0, DWORD PTR __real@3f800000
	movss	DWORD PTR [esp], xmm0
	push	OFFSET ??_C@_0BB@NBAHOKLP@weapons?1hks1?4wav?$AA@
	push	1
	mov	ecx, DWORD PTR _player$[ebp]
	add	ecx, 2888				; 00000b48H
	call	??BVector@@QAEPAMXZ			; Vector::operator float *
	push	eax
	mov	eax, DWORD PTR _player$[ebp]
	mov	ecx, DWORD PTR [eax]
	push	ecx
	mov	edx, DWORD PTR ?gEngfuncs@@3Ucl_enginefuncs_s@@A+336
	mov	eax, DWORD PTR [edx+4]
	call	eax
	add	esp, 32					; 00000020H
	jmp	$LN6@V_LocalWea
$LN30@V_LocalWea:

; 1865 : 			case 1: gEngfuncs.pEventAPI->EV_PlaySound( player->index, player->origin, CHAN_WEAPON, "weapons/hks2.wav", VOL_NORM, 0.6, 0, RANDOM_LONG( 98, 103 ) ); break;

	push	103					; 00000067H
	push	98					; 00000062H
	call	DWORD PTR ?gEngfuncs@@3Ucl_enginefuncs_s@@A+272
	add	esp, 8
	push	eax
	push	0
	push	ecx
	movss	xmm0, DWORD PTR __real@3f19999a
	movss	DWORD PTR [esp], xmm0
	push	ecx
	movss	xmm0, DWORD PTR __real@3f800000
	movss	DWORD PTR [esp], xmm0
	push	OFFSET ??_C@_0BB@FHJDJIBB@weapons?1hks2?4wav?$AA@
	push	1
	mov	ecx, DWORD PTR _player$[ebp]
	add	ecx, 2888				; 00000b48H
	call	??BVector@@QAEPAMXZ			; Vector::operator float *
	push	eax
	mov	eax, DWORD PTR _player$[ebp]
	mov	ecx, DWORD PTR [eax]
	push	ecx
	mov	edx, DWORD PTR ?gEngfuncs@@3Ucl_enginefuncs_s@@A+336
	mov	eax, DWORD PTR [edx+4]
	call	eax
	add	esp, 32					; 00000020H
	jmp	SHORT $LN6@V_LocalWea
$LN31@V_LocalWea:

; 1866 : 			case 2: gEngfuncs.pEventAPI->EV_PlaySound( player->index, player->origin, CHAN_WEAPON, "weapons/hks3.wav", VOL_NORM, 0.6, 0, RANDOM_LONG( 98, 103 ) ); break;

	push	103					; 00000067H
	push	98					; 00000062H
	call	DWORD PTR ?gEngfuncs@@3Ucl_enginefuncs_s@@A+272
	add	esp, 8
	push	eax
	push	0
	push	ecx
	movss	xmm0, DWORD PTR __real@3f19999a
	movss	DWORD PTR [esp], xmm0
	push	ecx
	movss	xmm0, DWORD PTR __real@3f800000
	movss	DWORD PTR [esp], xmm0
	push	OFFSET ??_C@_0BB@JMMPELLE@weapons?1hks3?4wav?$AA@
	push	1
	mov	ecx, DWORD PTR _player$[ebp]
	add	ecx, 2888				; 00000b48H
	call	??BVector@@QAEPAMXZ			; Vector::operator float *
	push	eax
	mov	eax, DWORD PTR _player$[ebp]
	mov	ecx, DWORD PTR [eax]
	push	ecx
	mov	edx, DWORD PTR ?gEngfuncs@@3Ucl_enginefuncs_s@@A+336
	mov	eax, DWORD PTR [edx+4]
	call	eax
	add	esp, 32					; 00000020H
$LN6@V_LocalWea:

; 1867 : 			}
; 1868 : 			localanim_NextPAttackTime = tr.time + 0.1;

	movsd	xmm0, QWORD PTR ?tr@@3Uref_globals_t@@A+8
	addsd	xmm0, QWORD PTR __real@3fb999999999999a
	cvtsd2ss xmm0, xmm0
	movss	DWORD PTR ?localanim_NextPAttackTime@@3MA, xmm0

; 1869 : 			R_MakeWeaponShake( WEAPON_MRC, 0, true );

	push	1
	push	0
	push	4
	call	?R_MakeWeaponShake@@YAXHH_N@Z		; R_MakeWeaponShake
	add	esp, 12					; 0000000cH

; 1870 : 			PlayLowAmmoSound( player->index, player->origin, (CurrentPAmmoClip <= 15 ? CurrentPAmmoClip : 0) );

	cmp	DWORD PTR _CurrentPAmmoClip$[ebp], 15	; 0000000fH
	jg	SHORT $LN83@V_LocalWea
	mov	eax, DWORD PTR _CurrentPAmmoClip$[ebp]
	mov	DWORD PTR tv329[ebp], eax
	jmp	SHORT $LN84@V_LocalWea
$LN83@V_LocalWea:
	mov	DWORD PTR tv329[ebp], 0
$LN84@V_LocalWea:
	mov	ecx, DWORD PTR tv329[ebp]
	push	ecx
	mov	edx, DWORD PTR _player$[ebp]
	add	edx, 2888				; 00000b48H
	sub	esp, 12					; 0000000cH
	mov	ecx, esp
	push	edx
	call	??0Vector@@QAE@ABV0@@Z			; Vector::Vector
	mov	eax, DWORD PTR _player$[ebp]
	mov	ecx, DWORD PTR [eax]
	push	ecx
	call	?PlayLowAmmoSound@@YAXHVVector@@H@Z	; PlayLowAmmoSound
	add	esp, 20					; 00000014H
$LN28@V_LocalWea:

; 1871 : 		}
; 1872 : 		if( Attack2 && !Underwater )

	movzx	eax, BYTE PTR _Attack2$[ebp]
	test	eax, eax
	je	$LN32@V_LocalWea
	movzx	eax, BYTE PTR _Underwater$[ebp]
	test	eax, eax
	jne	$LN32@V_LocalWea

; 1873 : 		{
; 1874 : 			gEngfuncs.pfnWeaponAnim( 2, 0 );

	push	0
	push	2
	call	DWORD PTR ?gEngfuncs@@3Ucl_enginefuncs_s@@A+264
	add	esp, 8

; 1875 : 			gEngfuncs.pEventAPI->EV_PlaySound( player->index, player->origin, CHAN_WEAPON, "weapons/glauncher.wav", VOL_NORM, 0.6, 0, RANDOM_LONG( 98, 103 ) );

	push	103					; 00000067H
	push	98					; 00000062H
	call	DWORD PTR ?gEngfuncs@@3Ucl_enginefuncs_s@@A+272
	add	esp, 8
	push	eax
	push	0
	push	ecx
	movss	xmm0, DWORD PTR __real@3f19999a
	movss	DWORD PTR [esp], xmm0
	push	ecx
	movss	xmm0, DWORD PTR __real@3f800000
	movss	DWORD PTR [esp], xmm0
	push	OFFSET ??_C@_0BG@MDAACEKK@weapons?1glauncher?4wav?$AA@
	push	1
	mov	ecx, DWORD PTR _player$[ebp]
	add	ecx, 2888				; 00000b48H
	call	??BVector@@QAEPAMXZ			; Vector::operator float *
	push	eax
	mov	eax, DWORD PTR _player$[ebp]
	mov	ecx, DWORD PTR [eax]
	push	ecx
	mov	edx, DWORD PTR ?gEngfuncs@@3Ucl_enginefuncs_s@@A+336
	mov	eax, DWORD PTR [edx+4]
	call	eax
	add	esp, 32					; 00000020H

; 1876 : 			localanim_NextPAttackTime = localanim_NextSAttackTime = tr.time + 1.0;

	movsd	xmm0, QWORD PTR ?tr@@3Uref_globals_t@@A+8
	addsd	xmm0, QWORD PTR __real@3ff0000000000000
	cvtsd2ss xmm0, xmm0
	movss	DWORD PTR ?localanim_NextSAttackTime@@3MA, xmm0
	movss	xmm0, DWORD PTR ?localanim_NextSAttackTime@@3MA
	movss	DWORD PTR ?localanim_NextPAttackTime@@3MA, xmm0

; 1877 : 			R_MakeWeaponShake( WEAPON_MRC, 1, true );

	push	1
	push	1
	push	4
	call	?R_MakeWeaponShake@@YAXHH_N@Z		; R_MakeWeaponShake
	add	esp, 12					; 0000000cH
$LN32@V_LocalWea:

; 1878 : 		}
; 1879 : 	break;

	jmp	$LN2@V_LocalWea
$LN33@V_LocalWea:

; 1880 : 	case WEAPON_AR2:
; 1881 : 		if( Attack1 && !Underwater )

	movzx	eax, BYTE PTR _Attack1$[ebp]
	test	eax, eax
	je	$LN34@V_LocalWea
	movzx	eax, BYTE PTR _Underwater$[ebp]
	test	eax, eax
	jne	$LN34@V_LocalWea

; 1882 : 		{
; 1883 : 			gEngfuncs.pfnWeaponAnim( 3, 0 );

	push	0
	push	3
	call	DWORD PTR ?gEngfuncs@@3Ucl_enginefuncs_s@@A+264
	add	esp, 8

; 1884 : 			switch( RANDOM_LONG( 0, 3 ) )

	push	3
	push	0
	call	DWORD PTR ?gEngfuncs@@3Ucl_enginefuncs_s@@A+272
	add	esp, 8
	mov	DWORD PTR tv380[ebp], eax
	cmp	DWORD PTR tv380[ebp], 3
	ja	$LN8@V_LocalWea
	mov	eax, DWORD PTR tv380[ebp]
	jmp	DWORD PTR $LN89@V_LocalWea[eax*4]
$LN35@V_LocalWea:

; 1885 : 			{
; 1886 : 			case 0: gEngfuncs.pEventAPI->EV_PlaySound( player->index, player->origin, CHAN_WEAPON, "drone/aliendrone_shoot1.wav", VOL_NORM, 0.6, 0, RANDOM_LONG( 98, 103 ) ); break;

	push	103					; 00000067H
	push	98					; 00000062H
	call	DWORD PTR ?gEngfuncs@@3Ucl_enginefuncs_s@@A+272
	add	esp, 8
	push	eax
	push	0
	push	ecx
	movss	xmm0, DWORD PTR __real@3f19999a
	movss	DWORD PTR [esp], xmm0
	push	ecx
	movss	xmm0, DWORD PTR __real@3f800000
	movss	DWORD PTR [esp], xmm0
	push	OFFSET ??_C@_0BM@BIKGNHLI@drone?1aliendrone_shoot1?4wav?$AA@
	push	1
	mov	ecx, DWORD PTR _player$[ebp]
	add	ecx, 2888				; 00000b48H
	call	??BVector@@QAEPAMXZ			; Vector::operator float *
	push	eax
	mov	eax, DWORD PTR _player$[ebp]
	mov	ecx, DWORD PTR [eax]
	push	ecx
	mov	edx, DWORD PTR ?gEngfuncs@@3Ucl_enginefuncs_s@@A+336
	mov	eax, DWORD PTR [edx+4]
	call	eax
	add	esp, 32					; 00000020H
	jmp	$LN8@V_LocalWea
$LN36@V_LocalWea:

; 1887 : 			case 1: gEngfuncs.pEventAPI->EV_PlaySound( player->index, player->origin, CHAN_WEAPON, "drone/aliendrone_shoot2.wav", VOL_NORM, 0.6, 0, RANDOM_LONG( 98, 103 ) ); break;

	push	103					; 00000067H
	push	98					; 00000062H
	call	DWORD PTR ?gEngfuncs@@3Ucl_enginefuncs_s@@A+272
	add	esp, 8
	push	eax
	push	0
	push	ecx
	movss	xmm0, DWORD PTR __real@3f19999a
	movss	DWORD PTR [esp], xmm0
	push	ecx
	movss	xmm0, DWORD PTR __real@3f800000
	movss	DWORD PTR [esp], xmm0
	push	OFFSET ??_C@_0BM@JODCKFBG@drone?1aliendrone_shoot2?4wav?$AA@
	push	1
	mov	ecx, DWORD PTR _player$[ebp]
	add	ecx, 2888				; 00000b48H
	call	??BVector@@QAEPAMXZ			; Vector::operator float *
	push	eax
	mov	eax, DWORD PTR _player$[ebp]
	mov	ecx, DWORD PTR [eax]
	push	ecx
	mov	edx, DWORD PTR ?gEngfuncs@@3Ucl_enginefuncs_s@@A+336
	mov	eax, DWORD PTR [edx+4]
	call	eax
	add	esp, 32					; 00000020H
	jmp	$LN8@V_LocalWea
$LN37@V_LocalWea:

; 1888 : 			case 2: gEngfuncs.pEventAPI->EV_PlaySound( player->index, player->origin, CHAN_WEAPON, "drone/aliendrone_shoot3.wav", VOL_NORM, 0.6, 0, RANDOM_LONG( 98, 103 ) ); break;

	push	103					; 00000067H
	push	98					; 00000062H
	call	DWORD PTR ?gEngfuncs@@3Ucl_enginefuncs_s@@A+272
	add	esp, 8
	push	eax
	push	0
	push	ecx
	movss	xmm0, DWORD PTR __real@3f19999a
	movss	DWORD PTR [esp], xmm0
	push	ecx
	movss	xmm0, DWORD PTR __real@3f800000
	movss	DWORD PTR [esp], xmm0
	push	OFFSET ??_C@_0BM@FFGOHGLD@drone?1aliendrone_shoot3?4wav?$AA@
	push	1
	mov	ecx, DWORD PTR _player$[ebp]
	add	ecx, 2888				; 00000b48H
	call	??BVector@@QAEPAMXZ			; Vector::operator float *
	push	eax
	mov	eax, DWORD PTR _player$[ebp]
	mov	ecx, DWORD PTR [eax]
	push	ecx
	mov	edx, DWORD PTR ?gEngfuncs@@3Ucl_enginefuncs_s@@A+336
	mov	eax, DWORD PTR [edx+4]
	call	eax
	add	esp, 32					; 00000020H
	jmp	SHORT $LN8@V_LocalWea
$LN38@V_LocalWea:

; 1889 : 			case 3: gEngfuncs.pEventAPI->EV_PlaySound( player->index, player->origin, CHAN_WEAPON, "drone/aliendrone_shoot4.wav", VOL_NORM, 0.6, 0, RANDOM_LONG( 98, 103 ) ); break;

	push	103					; 00000067H
	push	98					; 00000062H
	call	DWORD PTR ?gEngfuncs@@3Ucl_enginefuncs_s@@A+272
	add	esp, 8
	push	eax
	push	0
	push	ecx
	movss	xmm0, DWORD PTR __real@3f19999a
	movss	DWORD PTR [esp], xmm0
	push	ecx
	movss	xmm0, DWORD PTR __real@3f800000
	movss	DWORD PTR [esp], xmm0
	push	OFFSET ??_C@_0BM@EIGLEGAL@drone?1aliendrone_shoot4?4wav?$AA@
	push	1
	mov	ecx, DWORD PTR _player$[ebp]
	add	ecx, 2888				; 00000b48H
	call	??BVector@@QAEPAMXZ			; Vector::operator float *
	push	eax
	mov	eax, DWORD PTR _player$[ebp]
	mov	ecx, DWORD PTR [eax]
	push	ecx
	mov	edx, DWORD PTR ?gEngfuncs@@3Ucl_enginefuncs_s@@A+336
	mov	eax, DWORD PTR [edx+4]
	call	eax
	add	esp, 32					; 00000020H
$LN8@V_LocalWea:

; 1890 : 			}
; 1891 : 			localanim_NextPAttackTime = tr.time + 0.1;

	movsd	xmm0, QWORD PTR ?tr@@3Uref_globals_t@@A+8
	addsd	xmm0, QWORD PTR __real@3fb999999999999a
	cvtsd2ss xmm0, xmm0
	movss	DWORD PTR ?localanim_NextPAttackTime@@3MA, xmm0

; 1892 : 			R_MakeWeaponShake( WEAPON_AR2, 0, true );

	push	1
	push	0
	push	16					; 00000010H
	call	?R_MakeWeaponShake@@YAXHH_N@Z		; R_MakeWeaponShake
	add	esp, 12					; 0000000cH
$LN34@V_LocalWea:

; 1893 : 		}
; 1894 : 		if( Attack2 && !Underwater )

	movzx	eax, BYTE PTR _Attack2$[ebp]
	test	eax, eax
	je	$LN39@V_LocalWea
	movzx	eax, BYTE PTR _Underwater$[ebp]
	test	eax, eax
	jne	$LN39@V_LocalWea

; 1895 : 		{
; 1896 : 			gEngfuncs.pfnWeaponAnim( 1, 0 );

	push	0
	push	1
	call	DWORD PTR ?gEngfuncs@@3Ucl_enginefuncs_s@@A+264
	add	esp, 8

; 1897 : 			gEngfuncs.pEventAPI->EV_PlaySound( player->index, player->origin, CHAN_WEAPON, "weapons/ar2_secondary.wav", VOL_NORM, 0.6, 0, RANDOM_LONG( 98, 103 ) );

	push	103					; 00000067H
	push	98					; 00000062H
	call	DWORD PTR ?gEngfuncs@@3Ucl_enginefuncs_s@@A+272
	add	esp, 8
	push	eax
	push	0
	push	ecx
	movss	xmm0, DWORD PTR __real@3f19999a
	movss	DWORD PTR [esp], xmm0
	push	ecx
	movss	xmm0, DWORD PTR __real@3f800000
	movss	DWORD PTR [esp], xmm0
	push	OFFSET ??_C@_0BK@HIMOJLLF@weapons?1ar2_secondary?4wav?$AA@
	push	1
	mov	ecx, DWORD PTR _player$[ebp]
	add	ecx, 2888				; 00000b48H
	call	??BVector@@QAEPAMXZ			; Vector::operator float *
	push	eax
	mov	eax, DWORD PTR _player$[ebp]
	mov	ecx, DWORD PTR [eax]
	push	ecx
	mov	edx, DWORD PTR ?gEngfuncs@@3Ucl_enginefuncs_s@@A+336
	mov	eax, DWORD PTR [edx+4]
	call	eax
	add	esp, 32					; 00000020H

; 1898 : 			localanim_NextPAttackTime = localanim_NextSAttackTime = tr.time + 1.0;

	movsd	xmm0, QWORD PTR ?tr@@3Uref_globals_t@@A+8
	addsd	xmm0, QWORD PTR __real@3ff0000000000000
	cvtsd2ss xmm0, xmm0
	movss	DWORD PTR ?localanim_NextSAttackTime@@3MA, xmm0
	movss	xmm0, DWORD PTR ?localanim_NextSAttackTime@@3MA
	movss	DWORD PTR ?localanim_NextPAttackTime@@3MA, xmm0

; 1899 : 			R_MakeWeaponShake( WEAPON_AR2, 1, true );

	push	1
	push	1
	push	16					; 00000010H
	call	?R_MakeWeaponShake@@YAXHH_N@Z		; R_MakeWeaponShake
	add	esp, 12					; 0000000cH
$LN39@V_LocalWea:

; 1900 : 		}
; 1901 : 	break;

	jmp	$LN2@V_LocalWea
$LN40@V_LocalWea:

; 1902 : 	case WEAPON_GLOCK:
; 1903 : 		if( Attack1 || Attack2 )

	movzx	eax, BYTE PTR _Attack1$[ebp]
	test	eax, eax
	jne	SHORT $LN42@V_LocalWea
	movzx	eax, BYTE PTR _Attack2$[ebp]
	test	eax, eax
	je	$LN47@V_LocalWea
$LN42@V_LocalWea:

; 1904 : 		{
; 1905 : 			gEngfuncs.pfnWeaponAnim( 3, 0 );

	push	0
	push	3
	call	DWORD PTR ?gEngfuncs@@3Ucl_enginefuncs_s@@A+264
	add	esp, 8

; 1906 : 			switch( RANDOM_LONG( 0, 2 ) )

	push	2
	push	0
	call	DWORD PTR ?gEngfuncs@@3Ucl_enginefuncs_s@@A+272
	add	esp, 8
	mov	DWORD PTR tv487[ebp], eax
	cmp	DWORD PTR tv487[ebp], 0
	je	SHORT $LN43@V_LocalWea
	cmp	DWORD PTR tv487[ebp], 1
	je	SHORT $LN44@V_LocalWea
	cmp	DWORD PTR tv487[ebp], 2
	je	$LN45@V_LocalWea
	jmp	$LN10@V_LocalWea
$LN43@V_LocalWea:

; 1907 : 			{
; 1908 : 			case 0: gEngfuncs.pEventAPI->EV_PlaySound( player->index, player->origin, CHAN_WEAPON, "weapons/pistol1.wav", VOL_NORM, 0.6, 0, RANDOM_LONG( 98, 103 ) ); break;

	push	103					; 00000067H
	push	98					; 00000062H
	call	DWORD PTR ?gEngfuncs@@3Ucl_enginefuncs_s@@A+272
	add	esp, 8
	push	eax
	push	0
	push	ecx
	movss	xmm0, DWORD PTR __real@3f19999a
	movss	DWORD PTR [esp], xmm0
	push	ecx
	movss	xmm0, DWORD PTR __real@3f800000
	movss	DWORD PTR [esp], xmm0
	push	OFFSET ??_C@_0BE@HABBDCEK@weapons?1pistol1?4wav?$AA@
	push	1
	mov	ecx, DWORD PTR _player$[ebp]
	add	ecx, 2888				; 00000b48H
	call	??BVector@@QAEPAMXZ			; Vector::operator float *
	push	eax
	mov	eax, DWORD PTR _player$[ebp]
	mov	ecx, DWORD PTR [eax]
	push	ecx
	mov	edx, DWORD PTR ?gEngfuncs@@3Ucl_enginefuncs_s@@A+336
	mov	eax, DWORD PTR [edx+4]
	call	eax
	add	esp, 32					; 00000020H
	jmp	$LN10@V_LocalWea
$LN44@V_LocalWea:

; 1909 : 			case 1: gEngfuncs.pEventAPI->EV_PlaySound( player->index, player->origin, CHAN_WEAPON, "weapons/pistol2.wav", VOL_NORM, 0.6, 0, RANDOM_LONG( 98, 103 ) ); break;

	push	103					; 00000067H
	push	98					; 00000062H
	call	DWORD PTR ?gEngfuncs@@3Ucl_enginefuncs_s@@A+272
	add	esp, 8
	push	eax
	push	0
	push	ecx
	movss	xmm0, DWORD PTR __real@3f19999a
	movss	DWORD PTR [esp], xmm0
	push	ecx
	movss	xmm0, DWORD PTR __real@3f800000
	movss	DWORD PTR [esp], xmm0
	push	OFFSET ??_C@_0BE@PGIFEAOE@weapons?1pistol2?4wav?$AA@
	push	1
	mov	ecx, DWORD PTR _player$[ebp]
	add	ecx, 2888				; 00000b48H
	call	??BVector@@QAEPAMXZ			; Vector::operator float *
	push	eax
	mov	eax, DWORD PTR _player$[ebp]
	mov	ecx, DWORD PTR [eax]
	push	ecx
	mov	edx, DWORD PTR ?gEngfuncs@@3Ucl_enginefuncs_s@@A+336
	mov	eax, DWORD PTR [edx+4]
	call	eax
	add	esp, 32					; 00000020H
	jmp	SHORT $LN10@V_LocalWea
$LN45@V_LocalWea:

; 1910 : 			case 2: gEngfuncs.pEventAPI->EV_PlaySound( player->index, player->origin, CHAN_WEAPON, "weapons/pistol3.wav", VOL_NORM, 0.6, 0, RANDOM_LONG( 98, 103 ) ); break;

	push	103					; 00000067H
	push	98					; 00000062H
	call	DWORD PTR ?gEngfuncs@@3Ucl_enginefuncs_s@@A+272
	add	esp, 8
	push	eax
	push	0
	push	ecx
	movss	xmm0, DWORD PTR __real@3f19999a
	movss	DWORD PTR [esp], xmm0
	push	ecx
	movss	xmm0, DWORD PTR __real@3f800000
	movss	DWORD PTR [esp], xmm0
	push	OFFSET ??_C@_0BE@DNNJJDEB@weapons?1pistol3?4wav?$AA@
	push	1
	mov	ecx, DWORD PTR _player$[ebp]
	add	ecx, 2888				; 00000b48H
	call	??BVector@@QAEPAMXZ			; Vector::operator float *
	push	eax
	mov	eax, DWORD PTR _player$[ebp]
	mov	ecx, DWORD PTR [eax]
	push	ecx
	mov	edx, DWORD PTR ?gEngfuncs@@3Ucl_enginefuncs_s@@A+336
	mov	eax, DWORD PTR [edx+4]
	call	eax
	add	esp, 32					; 00000020H
$LN10@V_LocalWea:

; 1911 : 			}
; 1912 : 			if( Attack1 )

	movzx	eax, BYTE PTR _Attack1$[ebp]
	test	eax, eax
	je	SHORT $LN46@V_LocalWea

; 1913 : 				localanim_NextPAttackTime = localanim_NextSAttackTime = tr.time + 0.3;

	movsd	xmm0, QWORD PTR ?tr@@3Uref_globals_t@@A+8
	addsd	xmm0, QWORD PTR __real@3fd3333333333333
	cvtsd2ss xmm0, xmm0
	movss	DWORD PTR ?localanim_NextSAttackTime@@3MA, xmm0
	movss	xmm0, DWORD PTR ?localanim_NextSAttackTime@@3MA
	movss	DWORD PTR ?localanim_NextPAttackTime@@3MA, xmm0

; 1914 : 			else

	jmp	SHORT $LN47@V_LocalWea
$LN46@V_LocalWea:

; 1915 : 				localanim_NextPAttackTime = localanim_NextSAttackTime = tr.time + 0.2;

	movsd	xmm0, QWORD PTR ?tr@@3Uref_globals_t@@A+8
	addsd	xmm0, QWORD PTR __real@3fc999999999999a
	cvtsd2ss xmm0, xmm0
	movss	DWORD PTR ?localanim_NextSAttackTime@@3MA, xmm0
	movss	xmm0, DWORD PTR ?localanim_NextSAttackTime@@3MA
	movss	DWORD PTR ?localanim_NextPAttackTime@@3MA, xmm0
$LN47@V_LocalWea:

; 1916 : 		}
; 1917 : 	break;

	jmp	$LN2@V_LocalWea
$LN48@V_LocalWea:

; 1918 : 	case WEAPON_CROSSBOW:
; 1919 : 		if( Attack1 )

	movzx	eax, BYTE PTR _Attack1$[ebp]
	test	eax, eax
	je	$LN49@V_LocalWea

; 1920 : 		{
; 1921 : 			if( CurrentPAmmoClip == 1 ) // last bolt

	cmp	DWORD PTR _CurrentPAmmoClip$[ebp], 1
	jne	SHORT $LN50@V_LocalWea

; 1922 : 				gEngfuncs.pfnWeaponAnim( 6, 0 );

	push	0
	push	6
	call	DWORD PTR ?gEngfuncs@@3Ucl_enginefuncs_s@@A+264
	add	esp, 8

; 1923 : 			else

	jmp	SHORT $LN51@V_LocalWea
$LN50@V_LocalWea:

; 1924 : 				gEngfuncs.pfnWeaponAnim( 4, 0 );

	push	0
	push	4
	call	DWORD PTR ?gEngfuncs@@3Ucl_enginefuncs_s@@A+264
	add	esp, 8
$LN51@V_LocalWea:

; 1925 : 			gEngfuncs.pEventAPI->EV_PlaySound( player->index, player->origin, CHAN_WEAPON, "weapons/xbow_fire1.wav", VOL_NORM, 0.6, 0, RANDOM_LONG( 98, 103 ) );

	push	103					; 00000067H
	push	98					; 00000062H
	call	DWORD PTR ?gEngfuncs@@3Ucl_enginefuncs_s@@A+272
	add	esp, 8
	push	eax
	push	0
	push	ecx
	movss	xmm0, DWORD PTR __real@3f19999a
	movss	DWORD PTR [esp], xmm0
	push	ecx
	movss	xmm0, DWORD PTR __real@3f800000
	movss	DWORD PTR [esp], xmm0
	push	OFFSET ??_C@_0BH@OFCAHODE@weapons?1xbow_fire1?4wav?$AA@
	push	1
	mov	ecx, DWORD PTR _player$[ebp]
	add	ecx, 2888				; 00000b48H
	call	??BVector@@QAEPAMXZ			; Vector::operator float *
	push	eax
	mov	eax, DWORD PTR _player$[ebp]
	mov	ecx, DWORD PTR [eax]
	push	ecx
	mov	edx, DWORD PTR ?gEngfuncs@@3Ucl_enginefuncs_s@@A+336
	mov	eax, DWORD PTR [edx+4]
	call	eax
	add	esp, 32					; 00000020H

; 1926 : 			localanim_NextPAttackTime = tr.time + 0.75;

	movsd	xmm0, QWORD PTR ?tr@@3Uref_globals_t@@A+8
	addsd	xmm0, QWORD PTR __real@3fe8000000000000
	cvtsd2ss xmm0, xmm0
	movss	DWORD PTR ?localanim_NextPAttackTime@@3MA, xmm0
$LN49@V_LocalWea:

; 1927 : 		}
; 1928 : 	break;

	jmp	$LN2@V_LocalWea
$LN52@V_LocalWea:

; 1929 : 	case WEAPON_DEAGLE:
; 1930 : 		if( Attack1 && !Underwater )

	movzx	eax, BYTE PTR _Attack1$[ebp]
	test	eax, eax
	je	$LN53@V_LocalWea
	movzx	eax, BYTE PTR _Underwater$[ebp]
	test	eax, eax
	jne	$LN53@V_LocalWea

; 1931 : 		{
; 1932 : 			gEngfuncs.pfnWeaponAnim( 2, 0 );

	push	0
	push	2
	call	DWORD PTR ?gEngfuncs@@3Ucl_enginefuncs_s@@A+264
	add	esp, 8

; 1933 : 			gEngfuncs.pEventAPI->EV_PlaySound( player->index, player->origin, CHAN_WEAPON, "weapons/deagle_shot1.wav", VOL_NORM, 0.6, 0, RANDOM_LONG( 98, 103 ) );

	push	103					; 00000067H
	push	98					; 00000062H
	call	DWORD PTR ?gEngfuncs@@3Ucl_enginefuncs_s@@A+272
	add	esp, 8
	push	eax
	push	0
	push	ecx
	movss	xmm0, DWORD PTR __real@3f19999a
	movss	DWORD PTR [esp], xmm0
	push	ecx
	movss	xmm0, DWORD PTR __real@3f800000
	movss	DWORD PTR [esp], xmm0
	push	OFFSET ??_C@_0BJ@KHPOFAGN@weapons?1deagle_shot1?4wav?$AA@
	push	1
	mov	ecx, DWORD PTR _player$[ebp]
	add	ecx, 2888				; 00000b48H
	call	??BVector@@QAEPAMXZ			; Vector::operator float *
	push	eax
	mov	eax, DWORD PTR _player$[ebp]
	mov	ecx, DWORD PTR [eax]
	push	ecx
	mov	edx, DWORD PTR ?gEngfuncs@@3Ucl_enginefuncs_s@@A+336
	mov	eax, DWORD PTR [edx+4]
	call	eax
	add	esp, 32					; 00000020H

; 1934 : 			localanim_NextPAttackTime = tr.time + 0.75;

	movsd	xmm0, QWORD PTR ?tr@@3Uref_globals_t@@A+8
	addsd	xmm0, QWORD PTR __real@3fe8000000000000
	cvtsd2ss xmm0, xmm0
	movss	DWORD PTR ?localanim_NextPAttackTime@@3MA, xmm0

; 1935 : 			R_MakeWeaponShake( WEAPON_DEAGLE, 0, true );

	push	1
	push	0
	push	3
	call	?R_MakeWeaponShake@@YAXHH_N@Z		; R_MakeWeaponShake
	add	esp, 12					; 0000000cH
$LN53@V_LocalWea:

; 1936 : 		}
; 1937 : 	break;

	jmp	$LN2@V_LocalWea
$LN54@V_LocalWea:

; 1938 : 	case WEAPON_FIVESEVEN:
; 1939 : 		if( Attack1 && !Underwater )

	movzx	eax, BYTE PTR _Attack1$[ebp]
	test	eax, eax
	je	$LN55@V_LocalWea
	movzx	eax, BYTE PTR _Underwater$[ebp]
	test	eax, eax
	jne	$LN55@V_LocalWea

; 1940 : 		{
; 1941 : 			if( CurrentPAmmoClip == 1 ) // last bullet

	cmp	DWORD PTR _CurrentPAmmoClip$[ebp], 1
	jne	SHORT $LN56@V_LocalWea

; 1942 : 				gEngfuncs.pfnWeaponAnim( 3, 0 );

	push	0
	push	3
	call	DWORD PTR ?gEngfuncs@@3Ucl_enginefuncs_s@@A+264
	add	esp, 8

; 1943 : 			else

	jmp	SHORT $LN57@V_LocalWea
$LN56@V_LocalWea:

; 1944 : 				gEngfuncs.pfnWeaponAnim( 1, 0 );

	push	0
	push	1
	call	DWORD PTR ?gEngfuncs@@3Ucl_enginefuncs_s@@A+264
	add	esp, 8
$LN57@V_LocalWea:

; 1945 : 			gEngfuncs.pEventAPI->EV_PlaySound( player->index, player->origin, CHAN_WEAPON, "weapons/fiveseven_shoot.wav", VOL_NORM, 0.6, 0, RANDOM_LONG( 98, 103 ) );

	push	103					; 00000067H
	push	98					; 00000062H
	call	DWORD PTR ?gEngfuncs@@3Ucl_enginefuncs_s@@A+272
	add	esp, 8
	push	eax
	push	0
	push	ecx
	movss	xmm0, DWORD PTR __real@3f19999a
	movss	DWORD PTR [esp], xmm0
	push	ecx
	movss	xmm0, DWORD PTR __real@3f800000
	movss	DWORD PTR [esp], xmm0
	push	OFFSET ??_C@_0BM@FJIGDPOC@weapons?1fiveseven_shoot?4wav?$AA@
	push	1
	mov	ecx, DWORD PTR _player$[ebp]
	add	ecx, 2888				; 00000b48H
	call	??BVector@@QAEPAMXZ			; Vector::operator float *
	push	eax
	mov	eax, DWORD PTR _player$[ebp]
	mov	ecx, DWORD PTR [eax]
	push	ecx
	mov	edx, DWORD PTR ?gEngfuncs@@3Ucl_enginefuncs_s@@A+336
	mov	eax, DWORD PTR [edx+4]
	call	eax
	add	esp, 32					; 00000020H

; 1946 : 			localanim_NextPAttackTime = tr.time + 0.2;

	movsd	xmm0, QWORD PTR ?tr@@3Uref_globals_t@@A+8
	addsd	xmm0, QWORD PTR __real@3fc999999999999a
	cvtsd2ss xmm0, xmm0
	movss	DWORD PTR ?localanim_NextPAttackTime@@3MA, xmm0
$LN55@V_LocalWea:

; 1947 : 		}
; 1948 : 	break;

	jmp	$LN2@V_LocalWea
$LN58@V_LocalWea:

; 1949 : 	case WEAPON_G36C:
; 1950 : 		if( Attack1 && !Underwater )

	movzx	eax, BYTE PTR _Attack1$[ebp]
	test	eax, eax
	je	$LN59@V_LocalWea
	movzx	eax, BYTE PTR _Underwater$[ebp]
	test	eax, eax
	jne	$LN59@V_LocalWea

; 1951 : 		{
; 1952 : 			gEngfuncs.pfnWeaponAnim( 3, 0 );

	push	0
	push	3
	call	DWORD PTR ?gEngfuncs@@3Ucl_enginefuncs_s@@A+264
	add	esp, 8

; 1953 : 			gEngfuncs.pEventAPI->EV_PlaySound( player->index, player->origin, CHAN_WEAPON, "weapons/g36c_shoot.wav", VOL_NORM, 0.6, 0, RANDOM_LONG( 98, 103 ) );

	push	103					; 00000067H
	push	98					; 00000062H
	call	DWORD PTR ?gEngfuncs@@3Ucl_enginefuncs_s@@A+272
	add	esp, 8
	push	eax
	push	0
	push	ecx
	movss	xmm0, DWORD PTR __real@3f19999a
	movss	DWORD PTR [esp], xmm0
	push	ecx
	movss	xmm0, DWORD PTR __real@3f800000
	movss	DWORD PTR [esp], xmm0
	push	OFFSET ??_C@_0BH@EGIFNJD@weapons?1g36c_shoot?4wav?$AA@
	push	1
	mov	ecx, DWORD PTR _player$[ebp]
	add	ecx, 2888				; 00000b48H
	call	??BVector@@QAEPAMXZ			; Vector::operator float *
	push	eax
	mov	eax, DWORD PTR _player$[ebp]
	mov	ecx, DWORD PTR [eax]
	push	ecx
	mov	edx, DWORD PTR ?gEngfuncs@@3Ucl_enginefuncs_s@@A+336
	mov	eax, DWORD PTR [edx+4]
	call	eax
	add	esp, 32					; 00000020H

; 1954 : 			localanim_NextPAttackTime = tr.time + 0.1;

	movsd	xmm0, QWORD PTR ?tr@@3Uref_globals_t@@A+8
	addsd	xmm0, QWORD PTR __real@3fb999999999999a
	cvtsd2ss xmm0, xmm0
	movss	DWORD PTR ?localanim_NextPAttackTime@@3MA, xmm0

; 1955 : 			R_MakeWeaponShake( WEAPON_G36C, 0, true );

	push	1
	push	0
	push	23					; 00000017H
	call	?R_MakeWeaponShake@@YAXHH_N@Z		; R_MakeWeaponShake
	add	esp, 12					; 0000000cH

; 1956 : 			PlayLowAmmoSound( player->index, player->origin, (CurrentPAmmoClip <= 10 ? CurrentPAmmoClip : 0) );

	cmp	DWORD PTR _CurrentPAmmoClip$[ebp], 10	; 0000000aH
	jg	SHORT $LN85@V_LocalWea
	mov	eax, DWORD PTR _CurrentPAmmoClip$[ebp]
	mov	DWORD PTR tv652[ebp], eax
	jmp	SHORT $LN86@V_LocalWea
$LN85@V_LocalWea:
	mov	DWORD PTR tv652[ebp], 0
$LN86@V_LocalWea:
	mov	ecx, DWORD PTR tv652[ebp]
	push	ecx
	mov	edx, DWORD PTR _player$[ebp]
	add	edx, 2888				; 00000b48H
	sub	esp, 12					; 0000000cH
	mov	ecx, esp
	push	edx
	call	??0Vector@@QAE@ABV0@@Z			; Vector::Vector
	mov	eax, DWORD PTR _player$[ebp]
	mov	ecx, DWORD PTR [eax]
	push	ecx
	call	?PlayLowAmmoSound@@YAXHVVector@@H@Z	; PlayLowAmmoSound
	add	esp, 20					; 00000014H
$LN59@V_LocalWea:

; 1957 : 		}
; 1958 : 	break;

	jmp	$LN2@V_LocalWea
$LN60@V_LocalWea:

; 1959 : 	case WEAPON_KNIFE:
; 1960 : 		if( Attack1 )

	movzx	eax, BYTE PTR _Attack1$[ebp]
	test	eax, eax
	je	SHORT $LN61@V_LocalWea

; 1961 : 		{
; 1962 : 			gEngfuncs.pfnWeaponAnim( 3, 0 );

	push	0
	push	3
	call	DWORD PTR ?gEngfuncs@@3Ucl_enginefuncs_s@@A+264
	add	esp, 8

; 1963 : 			localanim_NextPAttackTime = localanim_NextSAttackTime = tr.time + 0.5;

	movsd	xmm0, QWORD PTR ?tr@@3Uref_globals_t@@A+8
	addsd	xmm0, QWORD PTR __real@3fe0000000000000
	cvtsd2ss xmm0, xmm0
	movss	DWORD PTR ?localanim_NextSAttackTime@@3MA, xmm0
	movss	xmm0, DWORD PTR ?localanim_NextSAttackTime@@3MA
	movss	DWORD PTR ?localanim_NextPAttackTime@@3MA, xmm0
$LN61@V_LocalWea:

; 1964 : 		}
; 1965 : 		if( Attack2 )

	movzx	eax, BYTE PTR _Attack2$[ebp]
	test	eax, eax
	je	SHORT $LN62@V_LocalWea

; 1966 : 		{
; 1967 : 			gEngfuncs.pfnWeaponAnim( 6, 0 );

	push	0
	push	6
	call	DWORD PTR ?gEngfuncs@@3Ucl_enginefuncs_s@@A+264
	add	esp, 8

; 1968 : 			localanim_NextPAttackTime = localanim_NextSAttackTime = tr.time + 1.25;

	movsd	xmm0, QWORD PTR ?tr@@3Uref_globals_t@@A+8
	addsd	xmm0, QWORD PTR __real@3ff4000000000000
	cvtsd2ss xmm0, xmm0
	movss	DWORD PTR ?localanim_NextSAttackTime@@3MA, xmm0
	movss	xmm0, DWORD PTR ?localanim_NextSAttackTime@@3MA
	movss	DWORD PTR ?localanim_NextPAttackTime@@3MA, xmm0
$LN62@V_LocalWea:

; 1969 : 		}
; 1970 : 	break;

	jmp	$LN2@V_LocalWea
$LN63@V_LocalWea:

; 1971 : 	case WEAPON_RPG:
; 1972 : 		if( Attack1 && localanim_AllowRpgShoot )

	movzx	eax, BYTE PTR _Attack1$[ebp]
	test	eax, eax
	je	SHORT $LN64@V_LocalWea
	movzx	eax, BYTE PTR ?localanim_AllowRpgShoot@@3_NA ; localanim_AllowRpgShoot
	test	eax, eax
	je	SHORT $LN64@V_LocalWea

; 1973 : 		{
; 1974 : 			gEngfuncs.pfnWeaponAnim( 3, 0 );

	push	0
	push	3
	call	DWORD PTR ?gEngfuncs@@3Ucl_enginefuncs_s@@A+264
	add	esp, 8

; 1975 : 			gEngfuncs.pEventAPI->EV_PlaySound( player->index, player->origin, CHAN_WEAPON, "weapons/rocketfire1.wav", VOL_NORM, 0.6, 0, RANDOM_LONG( 98, 103 ) );

	push	103					; 00000067H
	push	98					; 00000062H
	call	DWORD PTR ?gEngfuncs@@3Ucl_enginefuncs_s@@A+272
	add	esp, 8
	push	eax
	push	0
	push	ecx
	movss	xmm0, DWORD PTR __real@3f19999a
	movss	DWORD PTR [esp], xmm0
	push	ecx
	movss	xmm0, DWORD PTR __real@3f800000
	movss	DWORD PTR [esp], xmm0
	push	OFFSET ??_C@_0BI@IJKHDNAN@weapons?1rocketfire1?4wav?$AA@
	push	1
	mov	ecx, DWORD PTR _player$[ebp]
	add	ecx, 2888				; 00000b48H
	call	??BVector@@QAEPAMXZ			; Vector::operator float *
	push	eax
	mov	eax, DWORD PTR _player$[ebp]
	mov	ecx, DWORD PTR [eax]
	push	ecx
	mov	edx, DWORD PTR ?gEngfuncs@@3Ucl_enginefuncs_s@@A+336
	mov	eax, DWORD PTR [edx+4]
	call	eax
	add	esp, 32					; 00000020H

; 1976 : 			localanim_AllowRpgShoot = false; // do not allow any more animations, until we catch reload or deploy

	mov	BYTE PTR ?localanim_AllowRpgShoot@@3_NA, 0 ; localanim_AllowRpgShoot
$LN64@V_LocalWea:

; 1977 : 		}
; 1978 : 	break;

	jmp	$LN2@V_LocalWea
$LN65@V_LocalWea:

; 1979 : 	case WEAPON_SHOTGUN:
; 1980 : 		if( Attack1 && !Underwater )

	movzx	eax, BYTE PTR _Attack1$[ebp]
	test	eax, eax
	je	$LN66@V_LocalWea
	movzx	eax, BYTE PTR _Underwater$[ebp]
	test	eax, eax
	jne	$LN66@V_LocalWea

; 1981 : 		{
; 1982 : 			gEngfuncs.pfnWeaponAnim( 1, 0 );

	push	0
	push	1
	call	DWORD PTR ?gEngfuncs@@3Ucl_enginefuncs_s@@A+264
	add	esp, 8

; 1983 : 			gEngfuncs.pEventAPI->EV_PlaySound( player->index, player->origin, CHAN_WEAPON, "weapons/shotgun_single.wav", VOL_NORM, 0.6, 0, RANDOM_LONG( 98, 103 ) );

	push	103					; 00000067H
	push	98					; 00000062H
	call	DWORD PTR ?gEngfuncs@@3Ucl_enginefuncs_s@@A+272
	add	esp, 8
	push	eax
	push	0
	push	ecx
	movss	xmm0, DWORD PTR __real@3f19999a
	movss	DWORD PTR [esp], xmm0
	push	ecx
	movss	xmm0, DWORD PTR __real@3f800000
	movss	DWORD PTR [esp], xmm0
	push	OFFSET ??_C@_0BL@FDNMHMN@weapons?1shotgun_single?4wav?$AA@
	push	1
	mov	ecx, DWORD PTR _player$[ebp]
	add	ecx, 2888				; 00000b48H
	call	??BVector@@QAEPAMXZ			; Vector::operator float *
	push	eax
	mov	eax, DWORD PTR _player$[ebp]
	mov	ecx, DWORD PTR [eax]
	push	ecx
	mov	edx, DWORD PTR ?gEngfuncs@@3Ucl_enginefuncs_s@@A+336
	mov	eax, DWORD PTR [edx+4]
	call	eax
	add	esp, 32					; 00000020H

; 1984 : 			localanim_NextPAttackTime = localanim_NextSAttackTime = tr.time + 1.2;

	movsd	xmm0, QWORD PTR ?tr@@3Uref_globals_t@@A+8
	addsd	xmm0, QWORD PTR __real@3ff3333333333333
	cvtsd2ss xmm0, xmm0
	movss	DWORD PTR ?localanim_NextSAttackTime@@3MA, xmm0
	movss	xmm0, DWORD PTR ?localanim_NextSAttackTime@@3MA
	movss	DWORD PTR ?localanim_NextPAttackTime@@3MA, xmm0

; 1985 : 			R_MakeWeaponShake( WEAPON_SHOTGUN, 0, true );

	push	1
	push	0
	push	7
	call	?R_MakeWeaponShake@@YAXHH_N@Z		; R_MakeWeaponShake
	add	esp, 12					; 0000000cH
$LN66@V_LocalWea:

; 1986 : 		}
; 1987 : 		if( Attack2 && !Underwater )

	movzx	eax, BYTE PTR _Attack2$[ebp]
	test	eax, eax
	je	$LN67@V_LocalWea
	movzx	eax, BYTE PTR _Underwater$[ebp]
	test	eax, eax
	jne	$LN67@V_LocalWea

; 1988 : 		{
; 1989 : 			if( CurrentPAmmoClip > 1 )

	cmp	DWORD PTR _CurrentPAmmoClip$[ebp], 1
	jle	SHORT $LN68@V_LocalWea

; 1990 : 			{
; 1991 : 				gEngfuncs.pfnWeaponAnim( 2, 0 );

	push	0
	push	2
	call	DWORD PTR ?gEngfuncs@@3Ucl_enginefuncs_s@@A+264
	add	esp, 8

; 1992 : 				gEngfuncs.pEventAPI->EV_PlaySound( player->index, player->origin, CHAN_WEAPON, "weapons/shotgun_dbl.wav", VOL_NORM, 0.6, 0, RANDOM_LONG( 98, 103 ) );

	push	103					; 00000067H
	push	98					; 00000062H
	call	DWORD PTR ?gEngfuncs@@3Ucl_enginefuncs_s@@A+272
	add	esp, 8
	push	eax
	push	0
	push	ecx
	movss	xmm0, DWORD PTR __real@3f19999a
	movss	DWORD PTR [esp], xmm0
	push	ecx
	movss	xmm0, DWORD PTR __real@3f800000
	movss	DWORD PTR [esp], xmm0
	push	OFFSET ??_C@_0BI@KJGGOELM@weapons?1shotgun_dbl?4wav?$AA@
	push	1
	mov	ecx, DWORD PTR _player$[ebp]
	add	ecx, 2888				; 00000b48H
	call	??BVector@@QAEPAMXZ			; Vector::operator float *
	push	eax
	mov	eax, DWORD PTR _player$[ebp]
	mov	ecx, DWORD PTR [eax]
	push	ecx
	mov	edx, DWORD PTR ?gEngfuncs@@3Ucl_enginefuncs_s@@A+336
	mov	eax, DWORD PTR [edx+4]
	call	eax
	add	esp, 32					; 00000020H

; 1993 : 				R_MakeWeaponShake( WEAPON_SHOTGUN, 1, true );

	push	1
	push	1
	push	7
	call	?R_MakeWeaponShake@@YAXHH_N@Z		; R_MakeWeaponShake
	add	esp, 12					; 0000000cH

; 1994 : 			}
; 1995 : 			else

	jmp	SHORT $LN69@V_LocalWea
$LN68@V_LocalWea:

; 1996 : 			{
; 1997 : 				gEngfuncs.pfnWeaponAnim( 1, 0 );

	push	0
	push	1
	call	DWORD PTR ?gEngfuncs@@3Ucl_enginefuncs_s@@A+264
	add	esp, 8

; 1998 : 				gEngfuncs.pEventAPI->EV_PlaySound( player->index, player->origin, CHAN_WEAPON, "weapons/shotgun_single.wav", VOL_NORM, 0.6, 0, RANDOM_LONG( 98, 103 ) );

	push	103					; 00000067H
	push	98					; 00000062H
	call	DWORD PTR ?gEngfuncs@@3Ucl_enginefuncs_s@@A+272
	add	esp, 8
	push	eax
	push	0
	push	ecx
	movss	xmm0, DWORD PTR __real@3f19999a
	movss	DWORD PTR [esp], xmm0
	push	ecx
	movss	xmm0, DWORD PTR __real@3f800000
	movss	DWORD PTR [esp], xmm0
	push	OFFSET ??_C@_0BL@FDNMHMN@weapons?1shotgun_single?4wav?$AA@
	push	1
	mov	ecx, DWORD PTR _player$[ebp]
	add	ecx, 2888				; 00000b48H
	call	??BVector@@QAEPAMXZ			; Vector::operator float *
	push	eax
	mov	eax, DWORD PTR _player$[ebp]
	mov	ecx, DWORD PTR [eax]
	push	ecx
	mov	edx, DWORD PTR ?gEngfuncs@@3Ucl_enginefuncs_s@@A+336
	mov	eax, DWORD PTR [edx+4]
	call	eax
	add	esp, 32					; 00000020H

; 1999 : 				R_MakeWeaponShake( WEAPON_SHOTGUN, 0, true );

	push	1
	push	0
	push	7
	call	?R_MakeWeaponShake@@YAXHH_N@Z		; R_MakeWeaponShake
	add	esp, 12					; 0000000cH
$LN69@V_LocalWea:

; 2000 : 			}
; 2001 : 			localanim_NextPAttackTime = localanim_NextSAttackTime = tr.time + 1.6;

	movsd	xmm0, QWORD PTR ?tr@@3Uref_globals_t@@A+8
	addsd	xmm0, QWORD PTR __real@3ff999999999999a
	cvtsd2ss xmm0, xmm0
	movss	DWORD PTR ?localanim_NextSAttackTime@@3MA, xmm0
	movss	xmm0, DWORD PTR ?localanim_NextSAttackTime@@3MA
	movss	DWORD PTR ?localanim_NextPAttackTime@@3MA, xmm0
$LN67@V_LocalWea:

; 2002 : 		}
; 2003 : 	break;

	jmp	$LN2@V_LocalWea
$LN70@V_LocalWea:

; 2004 : 	case WEAPON_SHOTGUN_XM:
; 2005 : 		if( Attack1 && !Underwater )

	movzx	eax, BYTE PTR _Attack1$[ebp]
	test	eax, eax
	je	$LN71@V_LocalWea
	movzx	eax, BYTE PTR _Underwater$[ebp]
	test	eax, eax
	jne	$LN71@V_LocalWea

; 2006 : 		{
; 2007 : 			gEngfuncs.pfnWeaponAnim( 1, 0 );

	push	0
	push	1
	call	DWORD PTR ?gEngfuncs@@3Ucl_enginefuncs_s@@A+264
	add	esp, 8

; 2008 : 			gEngfuncs.pEventAPI->EV_PlaySound( player->index, player->origin, CHAN_WEAPON, "weapons/xm_fire.wav", VOL_NORM, 0.6, 0, RANDOM_LONG( 98, 103 ) );

	push	103					; 00000067H
	push	98					; 00000062H
	call	DWORD PTR ?gEngfuncs@@3Ucl_enginefuncs_s@@A+272
	add	esp, 8
	push	eax
	push	0
	push	ecx
	movss	xmm0, DWORD PTR __real@3f19999a
	movss	DWORD PTR [esp], xmm0
	push	ecx
	movss	xmm0, DWORD PTR __real@3f800000
	movss	DWORD PTR [esp], xmm0
	push	OFFSET ??_C@_0BE@HHACBKGK@weapons?1xm_fire?4wav?$AA@
	push	1
	mov	ecx, DWORD PTR _player$[ebp]
	add	ecx, 2888				; 00000b48H
	call	??BVector@@QAEPAMXZ			; Vector::operator float *
	push	eax
	mov	eax, DWORD PTR _player$[ebp]
	mov	ecx, DWORD PTR [eax]
	push	ecx
	mov	edx, DWORD PTR ?gEngfuncs@@3Ucl_enginefuncs_s@@A+336
	mov	eax, DWORD PTR [edx+4]
	call	eax
	add	esp, 32					; 00000020H

; 2009 : 			localanim_NextPAttackTime = tr.time + 0.5;

	movsd	xmm0, QWORD PTR ?tr@@3Uref_globals_t@@A+8
	addsd	xmm0, QWORD PTR __real@3fe0000000000000
	cvtsd2ss xmm0, xmm0
	movss	DWORD PTR ?localanim_NextPAttackTime@@3MA, xmm0

; 2010 : 			R_MakeWeaponShake( WEAPON_SHOTGUN_XM, 0, true );

	push	1
	push	0
	push	22					; 00000016H
	call	?R_MakeWeaponShake@@YAXHH_N@Z		; R_MakeWeaponShake
	add	esp, 12					; 0000000cH
$LN71@V_LocalWea:

; 2011 : 		}
; 2012 : 	break;

	jmp	$LN2@V_LocalWea
$LN72@V_LocalWea:

; 2013 : 	case WEAPON_SNIPER:
; 2014 : 		if( Attack1 && !Underwater )

	movzx	eax, BYTE PTR _Attack1$[ebp]
	test	eax, eax
	je	$LN73@V_LocalWea
	movzx	eax, BYTE PTR _Underwater$[ebp]
	test	eax, eax
	jne	$LN73@V_LocalWea

; 2015 : 		{
; 2016 : 			gEngfuncs.pfnWeaponAnim( 2, 0 );

	push	0
	push	2
	call	DWORD PTR ?gEngfuncs@@3Ucl_enginefuncs_s@@A+264
	add	esp, 8

; 2017 : 			gEngfuncs.pEventAPI->EV_PlaySound( player->index, player->origin, CHAN_WEAPON, "weapons/sniper_wpn_fire.wav", VOL_NORM, 0.6, 0, RANDOM_LONG( 98, 103 ) );

	push	103					; 00000067H
	push	98					; 00000062H
	call	DWORD PTR ?gEngfuncs@@3Ucl_enginefuncs_s@@A+272
	add	esp, 8
	push	eax
	push	0
	push	ecx
	movss	xmm0, DWORD PTR __real@3f19999a
	movss	DWORD PTR [esp], xmm0
	push	ecx
	movss	xmm0, DWORD PTR __real@3f800000
	movss	DWORD PTR [esp], xmm0
	push	OFFSET ??_C@_0BM@KHOJKGHB@weapons?1sniper_wpn_fire?4wav?$AA@
	push	1
	mov	ecx, DWORD PTR _player$[ebp]
	add	ecx, 2888				; 00000b48H
	call	??BVector@@QAEPAMXZ			; Vector::operator float *
	push	eax
	mov	eax, DWORD PTR _player$[ebp]
	mov	ecx, DWORD PTR [eax]
	push	ecx
	mov	edx, DWORD PTR ?gEngfuncs@@3Ucl_enginefuncs_s@@A+336
	mov	eax, DWORD PTR [edx+4]
	call	eax
	add	esp, 32					; 00000020H

; 2018 : 			localanim_NextPAttackTime = tr.time + 1.0;

	movsd	xmm0, QWORD PTR ?tr@@3Uref_globals_t@@A+8
	addsd	xmm0, QWORD PTR __real@3ff0000000000000
	cvtsd2ss xmm0, xmm0
	movss	DWORD PTR ?localanim_NextPAttackTime@@3MA, xmm0

; 2019 : 			R_MakeWeaponShake( WEAPON_SNIPER, 0, true );

	push	1
	push	0
	push	21					; 00000015H
	call	?R_MakeWeaponShake@@YAXHH_N@Z		; R_MakeWeaponShake
	add	esp, 12					; 0000000cH
$LN73@V_LocalWea:
$LN2@V_LocalWea:
$LN1@V_LocalWea:

; 2020 : 		}
; 2021 : 	break;
; 2022 : 	}
; 2023 : }

	pop	edi
	pop	esi
	pop	ebx
	mov	esp, ebp
	pop	ebp
	ret	0
	npad	3
$LN88@V_LocalWea:
	DD	$LN60@V_LocalWea
	DD	$LN40@V_LocalWea
	DD	$LN52@V_LocalWea
	DD	$LN27@V_LocalWea
	DD	$LN48@V_LocalWea
	DD	$LN65@V_LocalWea
	DD	$LN63@V_LocalWea
	DD	$LN33@V_LocalWea
	DD	$LN22@V_LocalWea
	DD	$LN54@V_LocalWea
	DD	$LN72@V_LocalWea
	DD	$LN70@V_LocalWea
	DD	$LN58@V_LocalWea
	DD	$LN2@V_LocalWea
$LN87@V_LocalWea:
	DB	0
	DB	1
	DB	2
	DB	3
	DB	13					; 0000000dH
	DB	4
	DB	5
	DB	6
	DB	13					; 0000000dH
	DB	13					; 0000000dH
	DB	13					; 0000000dH
	DB	13					; 0000000dH
	DB	13					; 0000000dH
	DB	13					; 0000000dH
	DB	13					; 0000000dH
	DB	7
	DB	13					; 0000000dH
	DB	13					; 0000000dH
	DB	8
	DB	9
	DB	10					; 0000000aH
	DB	11					; 0000000bH
	DB	12					; 0000000cH
	npad	1
$LN89@V_LocalWea:
	DD	$LN35@V_LocalWea
	DD	$LN36@V_LocalWea
	DD	$LN37@V_LocalWea
	DD	$LN38@V_LocalWea
?V_LocalWeaponAnimations@@YAXPAUref_params_s@@@Z ENDP	; V_LocalWeaponAnimations
_TEXT	ENDS
; Function compile flags: /Odtp /ZI
; File d:\!diffusion 2020\source code 2022\client-server\client\render\view.cpp
;	COMDAT ?V_InterpolatePos@@YAXPAUref_params_s@@@Z
_TEXT	SEGMENT
tv191 = -200						; size = 8
tv329 = -196						; size = 4
tv241 = -196						; size = 4
$T2 = -192						; size = 12
$T3 = -180						; size = 12
$T4 = -168						; size = 12
$T5 = -156						; size = 12
_frac$6 = -80						; size = 8
_dt$7 = -72						; size = 8
_neworg$8 = -64						; size = 12
_delta$9 = -52						; size = 12
_t$10 = -40						; size = 4
_foundidx$11 = -36					; size = 4
_i$12 = -32						; size = 4
_delta$ = -28						; size = 12
_view$ = -16						; size = 4
__$EHRec$ = -12						; size = 12
_pparams$ = 8						; size = 4
?V_InterpolatePos@@YAXPAUref_params_s@@@Z PROC		; V_InterpolatePos, COMDAT

; 1723 : {

	push	ebp
	mov	ebp, esp
	push	-1
	push	__ehhandler$?V_InterpolatePos@@YAXPAUref_params_s@@@Z
	mov	eax, DWORD PTR fs:0
	push	eax
	sub	esp, 188				; 000000bcH
	push	ebx
	push	esi
	push	edi
	mov	eax, DWORD PTR ___security_cookie
	xor	eax, ebp
	push	eax
	lea	eax, DWORD PTR __$EHRec$[ebp]
	mov	DWORD PTR fs:0, eax

; 1724 : 	static Vector lastorg;

	mov	eax, DWORD PTR __tls_index
	mov	ecx, DWORD PTR fs:__tls_array
	mov	edx, DWORD PTR [ecx+eax*4]
	mov	eax, DWORD PTR ?$TSS0@?1??V_InterpolatePos@@YAXPAUref_params_s@@@Z@4HA
	cmp	eax, DWORD PTR __Init_thread_epoch[edx]
	jle	SHORT $LN2@V_Interpol
	push	OFFSET ?$TSS0@?1??V_InterpolatePos@@YAXPAUref_params_s@@@Z@4HA
	call	__Init_thread_header
	add	esp, 4
	cmp	DWORD PTR ?$TSS0@?1??V_InterpolatePos@@YAXPAUref_params_s@@@Z@4HA, -1
	jne	SHORT $LN2@V_Interpol
	mov	DWORD PTR __$EHRec$[ebp+8], 0
	mov	ecx, OFFSET ?lastorg@?1??V_InterpolatePos@@YAXPAUref_params_s@@@Z@4VVector@@A
	call	??0Vector@@QAE@XZ			; Vector::Vector
	mov	DWORD PTR __$EHRec$[ebp+8], -1
	push	OFFSET ?$TSS0@?1??V_InterpolatePos@@YAXPAUref_params_s@@@Z@4HA
	call	__Init_thread_footer
	add	esp, 4
$LN2@V_Interpol:

; 1725 : 	static viewinterp_t	ViewInterp;

	mov	eax, DWORD PTR __tls_index
	mov	ecx, DWORD PTR fs:__tls_array
	mov	edx, DWORD PTR [ecx+eax*4]
	mov	eax, DWORD PTR ?$TSS1@?1??V_InterpolatePos@@YAXPAUref_params_s@@@Z@4HA
	cmp	eax, DWORD PTR __Init_thread_epoch[edx]
	jle	SHORT $LN3@V_Interpol
	push	OFFSET ?$TSS1@?1??V_InterpolatePos@@YAXPAUref_params_s@@@Z@4HA
	call	__Init_thread_header
	add	esp, 4
	cmp	DWORD PTR ?$TSS1@?1??V_InterpolatePos@@YAXPAUref_params_s@@@Z@4HA, -1
	jne	SHORT $LN3@V_Interpol
	mov	DWORD PTR __$EHRec$[ebp+8], 1
	mov	ecx, OFFSET ?ViewInterp@?1??V_InterpolatePos@@YAXPAUref_params_s@@@Z@4Uviewinterp_t@@A
	call	??0viewinterp_t@@QAE@XZ
	mov	DWORD PTR __$EHRec$[ebp+8], -1
	push	OFFSET ?$TSS1@?1??V_InterpolatePos@@YAXPAUref_params_s@@@Z@4HA
	call	__Init_thread_footer
	add	esp, 4
$LN3@V_Interpol:

; 1726 : 
; 1727 : 	// view is the weapon model (only visible from inside body )
; 1728 : 	cl_entity_t *view = GET_VIEWMODEL();

	call	DWORD PTR ?gEngfuncs@@3Ucl_enginefuncs_s@@A+208
	mov	DWORD PTR _view$[ebp], eax

; 1729 : 
; 1730 : 	Vector delta = pparams->simorg - lastorg;

	push	OFFSET ?lastorg@?1??V_InterpolatePos@@YAXPAUref_params_s@@@Z@4VVector@@A
	lea	eax, DWORD PTR _delta$[ebp]
	push	eax
	mov	ecx, DWORD PTR _pparams$[ebp]
	add	ecx, 100				; 00000064H
	call	??GVector@@QBE?AV0@ABV0@@Z		; Vector::operator-

; 1731 : 
; 1732 : 	if( delta.Length() != 0.0f )

	lea	ecx, DWORD PTR _delta$[ebp]
	call	?Length@Vector@@QBEMXZ			; Vector::Length
	fstp	DWORD PTR tv241[ebp]
	movss	xmm0, DWORD PTR tv241[ebp]
	ucomiss	xmm0, DWORD PTR __real@00000000
	lahf
	test	ah, 68					; 00000044H
	jnp	SHORT $LN7@V_Interpol

; 1733 : 	{
; 1734 : 		ViewInterp.Origins[ViewInterp.CurrentOrigin & ORIGIN_MASK] = pparams->simorg;

	mov	eax, DWORD PTR _pparams$[ebp]
	add	eax, 100				; 00000064H
	mov	ecx, DWORD PTR ?ViewInterp@?1??V_InterpolatePos@@YAXPAUref_params_s@@@Z@4Uviewinterp_t@@A+2048
	and	ecx, 63					; 0000003fH
	imul	edx, ecx, 12
	add	edx, OFFSET ?ViewInterp@?1??V_InterpolatePos@@YAXPAUref_params_s@@@Z@4Uviewinterp_t@@A
	mov	ecx, DWORD PTR [eax]
	mov	DWORD PTR [edx], ecx
	mov	ecx, DWORD PTR [eax+4]
	mov	DWORD PTR [edx+4], ecx
	mov	eax, DWORD PTR [eax+8]
	mov	DWORD PTR [edx+8], eax

; 1735 : 		ViewInterp.OriginTime[ViewInterp.CurrentOrigin & ORIGIN_MASK] = pparams->time;

	mov	eax, DWORD PTR ?ViewInterp@?1??V_InterpolatePos@@YAXPAUref_params_s@@@Z@4Uviewinterp_t@@A+2048
	and	eax, 63					; 0000003fH
	mov	ecx, DWORD PTR _pparams$[ebp]
	mov	edx, DWORD PTR [ecx+64]
	mov	DWORD PTR ?ViewInterp@?1??V_InterpolatePos@@YAXPAUref_params_s@@@Z@4Uviewinterp_t@@A[eax*4+768], edx

; 1736 : 		ViewInterp.CurrentOrigin++;

	mov	eax, DWORD PTR ?ViewInterp@?1??V_InterpolatePos@@YAXPAUref_params_s@@@Z@4Uviewinterp_t@@A+2048
	add	eax, 1
	mov	DWORD PTR ?ViewInterp@?1??V_InterpolatePos@@YAXPAUref_params_s@@@Z@4Uviewinterp_t@@A+2048, eax

; 1737 : 
; 1738 : 		lastorg = pparams->simorg;

	mov	eax, DWORD PTR _pparams$[ebp]
	add	eax, 100				; 00000064H
	mov	ecx, DWORD PTR [eax]
	mov	DWORD PTR ?lastorg@?1??V_InterpolatePos@@YAXPAUref_params_s@@@Z@4VVector@@A, ecx
	mov	edx, DWORD PTR [eax+4]
	mov	DWORD PTR ?lastorg@?1??V_InterpolatePos@@YAXPAUref_params_s@@@Z@4VVector@@A+4, edx
	mov	eax, DWORD PTR [eax+8]
	mov	DWORD PTR ?lastorg@?1??V_InterpolatePos@@YAXPAUref_params_s@@@Z@4VVector@@A+8, eax
$LN7@V_Interpol:

; 1739 : 	}
; 1740 : 
; 1741 : 	if( cl_vsmoothing->value && pparams->smoothing && ( pparams->maxclients > 1 ))

	mov	eax, DWORD PTR ?cl_vsmoothing@@3PAUcvar_s@@A ; cl_vsmoothing
	movss	xmm0, DWORD PTR [eax+12]
	ucomiss	xmm0, DWORD PTR __real@00000000
	lahf
	test	ah, 68					; 00000044H
	jnp	$LN13@V_Interpol
	mov	eax, DWORD PTR _pparams$[ebp]
	cmp	DWORD PTR [eax+196], 0
	je	$LN13@V_Interpol
	mov	eax, DWORD PTR _pparams$[ebp]
	cmp	DWORD PTR [eax+172], 1
	jle	$LN13@V_Interpol

; 1742 : 	{
; 1743 : 		int i, foundidx;
; 1744 : 		float t;
; 1745 : 
; 1746 : 		if( cl_vsmoothing->value < 0.0f )

	mov	eax, DWORD PTR ?cl_vsmoothing@@3PAUcvar_s@@A ; cl_vsmoothing
	xorps	xmm0, xmm0
	comiss	xmm0, DWORD PTR [eax+12]
	jbe	SHORT $LN9@V_Interpol

; 1747 : 			CVAR_SET_FLOAT( "cl_vsmoothing", 0.0 );

	push	ecx
	xorps	xmm0, xmm0
	movss	DWORD PTR [esp], xmm0
	push	OFFSET ??_C@_0O@MBIEBEEJ@cl_vsmoothing?$AA@
	call	DWORD PTR ?gEngfuncs@@3Ucl_enginefuncs_s@@A+148
	add	esp, 8
$LN9@V_Interpol:

; 1748 : 
; 1749 : 		t = pparams->time - cl_vsmoothing->value;

	mov	eax, DWORD PTR _pparams$[ebp]
	mov	ecx, DWORD PTR ?cl_vsmoothing@@3PAUcvar_s@@A ; cl_vsmoothing
	movss	xmm0, DWORD PTR [eax+64]
	subss	xmm0, DWORD PTR [ecx+12]
	movss	DWORD PTR _t$10[ebp], xmm0

; 1750 : 
; 1751 : 		for( i = 1; i < ORIGIN_MASK; i++ )

	mov	DWORD PTR _i$12[ebp], 1
	jmp	SHORT $LN6@V_Interpol
$LN4@V_Interpol:
	mov	eax, DWORD PTR _i$12[ebp]
	add	eax, 1
	mov	DWORD PTR _i$12[ebp], eax
$LN6@V_Interpol:
	cmp	DWORD PTR _i$12[ebp], 63		; 0000003fH
	jge	SHORT $LN5@V_Interpol

; 1752 : 		{
; 1753 : 			foundidx = ViewInterp.CurrentOrigin - 1 - i;

	mov	eax, DWORD PTR ?ViewInterp@?1??V_InterpolatePos@@YAXPAUref_params_s@@@Z@4Uviewinterp_t@@A+2048
	sub	eax, 1
	sub	eax, DWORD PTR _i$12[ebp]
	mov	DWORD PTR _foundidx$11[ebp], eax

; 1754 : 
; 1755 : 			if( ViewInterp.OriginTime[foundidx & ORIGIN_MASK] <= t )

	mov	eax, DWORD PTR _foundidx$11[ebp]
	and	eax, 63					; 0000003fH
	movss	xmm0, DWORD PTR _t$10[ebp]
	comiss	xmm0, DWORD PTR ?ViewInterp@?1??V_InterpolatePos@@YAXPAUref_params_s@@@Z@4Uviewinterp_t@@A[eax*4+768]
	jb	SHORT $LN10@V_Interpol

; 1756 : 				break;

	jmp	SHORT $LN5@V_Interpol
$LN10@V_Interpol:

; 1757 : 		}

	jmp	SHORT $LN4@V_Interpol
$LN5@V_Interpol:

; 1758 : 
; 1759 : 		if( i < ORIGIN_MASK &&  ViewInterp.OriginTime[foundidx & ORIGIN_MASK] != 0.0f )

	cmp	DWORD PTR _i$12[ebp], 63		; 0000003fH
	jge	$LN13@V_Interpol
	mov	eax, DWORD PTR _foundidx$11[ebp]
	and	eax, 63					; 0000003fH
	movss	xmm0, DWORD PTR ?ViewInterp@?1??V_InterpolatePos@@YAXPAUref_params_s@@@Z@4Uviewinterp_t@@A[eax*4+768]
	ucomiss	xmm0, DWORD PTR __real@00000000
	lahf
	test	ah, 68					; 00000044H
	jnp	$LN13@V_Interpol

; 1760 : 		{
; 1761 : 			// Interpolate
; 1762 : 			Vector delta, neworg;

	lea	ecx, DWORD PTR _delta$9[ebp]
	call	??0Vector@@QAE@XZ			; Vector::Vector
	lea	ecx, DWORD PTR _neworg$8[ebp]
	call	??0Vector@@QAE@XZ			; Vector::Vector

; 1763 : 			double dt, frac;
; 1764 : 
; 1765 : 			dt = ViewInterp.OriginTime[(foundidx + 1) & ORIGIN_MASK] - ViewInterp.OriginTime[foundidx & ORIGIN_MASK];

	mov	eax, DWORD PTR _foundidx$11[ebp]
	add	eax, 1
	and	eax, 63					; 0000003fH
	mov	ecx, DWORD PTR _foundidx$11[ebp]
	and	ecx, 63					; 0000003fH
	movss	xmm0, DWORD PTR ?ViewInterp@?1??V_InterpolatePos@@YAXPAUref_params_s@@@Z@4Uviewinterp_t@@A[eax*4+768]
	subss	xmm0, DWORD PTR ?ViewInterp@?1??V_InterpolatePos@@YAXPAUref_params_s@@@Z@4Uviewinterp_t@@A[ecx*4+768]
	cvtss2sd xmm0, xmm0
	movsd	QWORD PTR _dt$7[ebp], xmm0

; 1766 : 			if( dt > 0.0f )

	movsd	xmm0, QWORD PTR _dt$7[ebp]
	comisd	xmm0, QWORD PTR __real@0000000000000000
	jbe	$LN13@V_Interpol

; 1767 : 			{
; 1768 : 				frac = ( t - ViewInterp.OriginTime[foundidx & ORIGIN_MASK] ) / dt;

	mov	eax, DWORD PTR _foundidx$11[ebp]
	and	eax, 63					; 0000003fH
	movss	xmm0, DWORD PTR _t$10[ebp]
	subss	xmm0, DWORD PTR ?ViewInterp@?1??V_InterpolatePos@@YAXPAUref_params_s@@@Z@4Uviewinterp_t@@A[eax*4+768]
	cvtss2sd xmm0, xmm0
	divsd	xmm0, QWORD PTR _dt$7[ebp]
	movsd	QWORD PTR _frac$6[ebp], xmm0

; 1769 : 				delta = ViewInterp.Origins[( foundidx + 1 ) & ORIGIN_MASK] - ViewInterp.Origins[foundidx & ORIGIN_MASK];

	mov	eax, DWORD PTR _foundidx$11[ebp]
	and	eax, 63					; 0000003fH
	imul	ecx, eax, 12
	add	ecx, OFFSET ?ViewInterp@?1??V_InterpolatePos@@YAXPAUref_params_s@@@Z@4Uviewinterp_t@@A
	push	ecx
	lea	edx, DWORD PTR $T5[ebp]
	push	edx
	mov	eax, DWORD PTR _foundidx$11[ebp]
	add	eax, 1
	and	eax, 63					; 0000003fH
	imul	ecx, eax, 12
	add	ecx, OFFSET ?ViewInterp@?1??V_InterpolatePos@@YAXPAUref_params_s@@@Z@4Uviewinterp_t@@A
	call	??GVector@@QBE?AV0@ABV0@@Z		; Vector::operator-
	mov	ecx, DWORD PTR [eax]
	mov	DWORD PTR _delta$9[ebp], ecx
	mov	edx, DWORD PTR [eax+4]
	mov	DWORD PTR _delta$9[ebp+4], edx
	mov	eax, DWORD PTR [eax+8]
	mov	DWORD PTR _delta$9[ebp+8], eax

; 1770 : 				frac = min( 1.0, frac );

	movsd	xmm0, QWORD PTR _frac$6[ebp]
	comisd	xmm0, QWORD PTR __real@3ff0000000000000
	jbe	SHORT $LN15@V_Interpol
	movsd	xmm0, QWORD PTR __real@3ff0000000000000
	movsd	QWORD PTR tv191[ebp], xmm0
	jmp	SHORT $LN16@V_Interpol
$LN15@V_Interpol:
	movsd	xmm0, QWORD PTR _frac$6[ebp]
	movsd	QWORD PTR tv191[ebp], xmm0
$LN16@V_Interpol:
	movsd	xmm0, QWORD PTR tv191[ebp]
	movsd	QWORD PTR _frac$6[ebp], xmm0

; 1771 : 
; 1772 : 				neworg = ViewInterp.Origins[foundidx & ORIGIN_MASK] + delta * frac;

	cvtsd2ss xmm0, QWORD PTR _frac$6[ebp]
	push	ecx
	movss	DWORD PTR [esp], xmm0
	lea	eax, DWORD PTR $T4[ebp]
	push	eax
	lea	ecx, DWORD PTR _delta$9[ebp]
	call	??DVector@@QBE?AV0@M@Z			; Vector::operator*
	push	eax
	lea	ecx, DWORD PTR $T3[ebp]
	push	ecx
	mov	edx, DWORD PTR _foundidx$11[ebp]
	and	edx, 63					; 0000003fH
	imul	ecx, edx, 12
	add	ecx, OFFSET ?ViewInterp@?1??V_InterpolatePos@@YAXPAUref_params_s@@@Z@4Uviewinterp_t@@A
	call	??HVector@@QBE?AV0@ABV0@@Z		; Vector::operator+
	mov	ecx, DWORD PTR [eax]
	mov	DWORD PTR _neworg$8[ebp], ecx
	mov	edx, DWORD PTR [eax+4]
	mov	DWORD PTR _neworg$8[ebp+4], edx
	mov	eax, DWORD PTR [eax+8]
	mov	DWORD PTR _neworg$8[ebp+8], eax

; 1773 : 
; 1774 : 				// dont interpolate large changes (less than 64 units)
; 1775 : 				if( delta.Length() < 64 )

	lea	ecx, DWORD PTR _delta$9[ebp]
	call	?Length@Vector@@QBEMXZ			; Vector::Length
	fstp	DWORD PTR tv329[ebp]
	movss	xmm0, DWORD PTR __real@42800000
	comiss	xmm0, DWORD PTR tv329[ebp]
	jbe	SHORT $LN13@V_Interpol

; 1776 : 				{
; 1777 : 					delta = neworg - pparams->simorg;

	mov	eax, DWORD PTR _pparams$[ebp]
	add	eax, 100				; 00000064H
	push	eax
	lea	ecx, DWORD PTR $T2[ebp]
	push	ecx
	lea	ecx, DWORD PTR _neworg$8[ebp]
	call	??GVector@@QBE?AV0@ABV0@@Z		; Vector::operator-
	mov	edx, DWORD PTR [eax]
	mov	DWORD PTR _delta$9[ebp], edx
	mov	ecx, DWORD PTR [eax+4]
	mov	DWORD PTR _delta$9[ebp+4], ecx
	mov	edx, DWORD PTR [eax+8]
	mov	DWORD PTR _delta$9[ebp+8], edx

; 1778 : 					pparams->simorg += delta;

	lea	eax, DWORD PTR _delta$9[ebp]
	push	eax
	mov	ecx, DWORD PTR _pparams$[ebp]
	add	ecx, 100				; 00000064H
	call	??YVector@@QAEAAV0@ABV0@@Z		; Vector::operator+=

; 1779 : 					pparams->vieworg += delta;

	lea	eax, DWORD PTR _delta$9[ebp]
	push	eax
	mov	ecx, DWORD PTR _pparams$[ebp]
	call	??YVector@@QAEAAV0@ABV0@@Z		; Vector::operator+=

; 1780 : 					view->origin += delta;

	lea	eax, DWORD PTR _delta$9[ebp]
	push	eax
	mov	ecx, DWORD PTR _view$[ebp]
	add	ecx, 2888				; 00000b48H
	call	??YVector@@QAEAAV0@ABV0@@Z		; Vector::operator+=
$LN13@V_Interpol:

; 1781 : 				}
; 1782 : 			}
; 1783 : 		}
; 1784 : 	}
; 1785 : }

	mov	ecx, DWORD PTR __$EHRec$[ebp]
	mov	DWORD PTR fs:0, ecx
	pop	ecx
	pop	edi
	pop	esi
	pop	ebx
	mov	esp, ebp
	pop	ebp
	ret	0
_TEXT	ENDS
;	COMDAT text$x
text$x	SEGMENT
__unwindfunclet$?V_InterpolatePos@@YAXPAUref_params_s@@@Z$0:
	push	OFFSET ?$TSS0@?1??V_InterpolatePos@@YAXPAUref_params_s@@@Z@4HA
	call	__Init_thread_abort
	pop	ecx
	ret	0
__unwindfunclet$?V_InterpolatePos@@YAXPAUref_params_s@@@Z$1:
	push	OFFSET ?$TSS1@?1??V_InterpolatePos@@YAXPAUref_params_s@@@Z@4HA
	call	__Init_thread_abort
	pop	ecx
	ret	0
__ehhandler$?V_InterpolatePos@@YAXPAUref_params_s@@@Z:
	mov	edx, DWORD PTR [esp+8]
	lea	eax, DWORD PTR [edx+12]
	mov	ecx, DWORD PTR [edx-204]
	xor	ecx, eax
	call	@__security_check_cookie@4
	mov	eax, OFFSET __ehfuncinfo$?V_InterpolatePos@@YAXPAUref_params_s@@@Z
	jmp	___CxxFrameHandler3
text$x	ENDS
?V_InterpolatePos@@YAXPAUref_params_s@@@Z ENDP		; V_InterpolatePos
; Function compile flags: /Odtp /ZI
; File d:\!diffusion 2020\source code 2022\client-server\client\render\view.cpp
;	COMDAT ?V_LandDipWeapon@@YAXPAUref_params_s@@@Z
_TEXT	SEGMENT
tv159 = -80						; size = 4
tv142 = -80						; size = 4
_wepChange$ = -12					; size = 4
_f$ = -8						; size = 4
_delta$ = -4						; size = 4
_pparams$ = 8						; size = 4
?V_LandDipWeapon@@YAXPAUref_params_s@@@Z PROC		; V_LandDipWeapon, COMDAT

; 1670 : {

	push	ebp
	mov	ebp, esp
	sub	esp, 80					; 00000050H
	push	ebx
	push	esi
	push	edi

; 1671 : 	#define WEP_DEFLECT_TIME 0.1
; 1672 : 	#define WEP_RETURN_TIME 0.25
; 1673 : 	float delta;
; 1674 : 	static float weptime;
; 1675 : 	float f;
; 1676 : 	float wepChange;
; 1677 : 
; 1678 : 	if( !pparams->onground &&

	mov	eax, DWORD PTR _pparams$[ebp]
	cmp	DWORD PTR [eax+80], 0
	jne	SHORT $LN2@V_LandDipW
	call	DWORD PTR ?gEngfuncs@@3Ucl_enginefuncs_s@@A+204
	mov	eax, DWORD PTR [eax+748]
	and	eax, 4194304				; 00400000H
	jne	SHORT $LN5@V_LandDipW
	mov	ecx, DWORD PTR _pparams$[ebp]
	add	ecx, 88					; 00000058H
	call	??BVector@@QAEPAMXZ			; Vector::operator float *
	mov	ecx, 4
	shl	ecx, 1
	movss	xmm0, DWORD PTR __real@c3480000
	comiss	xmm0, DWORD PTR [eax+ecx]
	ja	SHORT $LN4@V_LandDipW
$LN5@V_LandDipW:
	call	DWORD PTR ?gEngfuncs@@3Ucl_enginefuncs_s@@A+204
	mov	eax, DWORD PTR [eax+748]
	and	eax, 4194304				; 00400000H
	je	SHORT $LN2@V_LandDipW
	mov	ecx, DWORD PTR _pparams$[ebp]
	add	ecx, 88					; 00000058H
	call	??BVector@@QAEPAMXZ			; Vector::operator float *
	mov	ecx, 4
	shl	ecx, 1
	movss	xmm0, DWORD PTR [eax+ecx]
	comiss	xmm0, DWORD PTR __real@43480000
	jbe	SHORT $LN2@V_LandDipW
$LN4@V_LandDipW:

; 1679 : 		(
; 1680 : 			(!( gEngfuncs.GetLocalPlayer()->curstate.effects & EF_UPSIDEDOWN ) && (pparams->simvel[2] < -200)) ||
; 1681 : 			((gEngfuncs.GetLocalPlayer()->curstate.effects & EF_UPSIDEDOWN) && (pparams->simvel[2] > 200))
; 1682 : 		) 	
; 1683 : 	)
; 1684 : 		weptime = pparams->time;

	mov	eax, DWORD PTR _pparams$[ebp]
	movss	xmm0, DWORD PTR [eax+64]
	movss	DWORD PTR ?weptime@?1??V_LandDipWeapon@@YAXPAUref_params_s@@@Z@4MA, xmm0

; 1685 : 	else

	jmp	$LN12@V_LandDipW
$LN2@V_LandDipW:

; 1686 : 	{
; 1687 : 		if( gEngfuncs.GetLocalPlayer()->curstate.effects & EF_UPSIDEDOWN )

	call	DWORD PTR ?gEngfuncs@@3Ucl_enginefuncs_s@@A+204
	mov	eax, DWORD PTR [eax+748]
	and	eax, 4194304				; 00400000H
	je	SHORT $LN6@V_LandDipW

; 1688 : 			wepChange = -0.4;

	movss	xmm0, DWORD PTR __real@becccccd
	movss	DWORD PTR _wepChange$[ebp], xmm0

; 1689 : 		else

	jmp	SHORT $LN7@V_LandDipW
$LN6@V_LandDipW:

; 1690 : 			wepChange = 0.4;

	movss	xmm0, DWORD PTR __real@3ecccccd
	movss	DWORD PTR _wepChange$[ebp], xmm0
$LN7@V_LandDipW:

; 1691 : 
; 1692 : 		delta = pparams->time - weptime;

	mov	eax, DWORD PTR _pparams$[ebp]
	movss	xmm0, DWORD PTR [eax+64]
	subss	xmm0, DWORD PTR ?weptime@?1??V_LandDipWeapon@@YAXPAUref_params_s@@@Z@4MA
	movss	DWORD PTR _delta$[ebp], xmm0

; 1693 : 
; 1694 : 		if (delta < 0)

	xorps	xmm0, xmm0
	comiss	xmm0, DWORD PTR _delta$[ebp]
	jbe	SHORT $LN8@V_LandDipW

; 1695 : 			return;

	jmp	$LN1@V_LandDipW
$LN8@V_LandDipW:

; 1696 : 
; 1697 : 		if (delta > (WEP_DEFLECT_TIME + WEP_RETURN_TIME) )

	cvtss2sd xmm0, DWORD PTR _delta$[ebp]
	comisd	xmm0, QWORD PTR __real@3fd6666666666666
	jbe	SHORT $LN9@V_LandDipW

; 1698 : 		{
; 1699 : 			weptime = 0;

	xorps	xmm0, xmm0
	movss	DWORD PTR ?weptime@?1??V_LandDipWeapon@@YAXPAUref_params_s@@@Z@4MA, xmm0

; 1700 : 			delta = 0;

	xorps	xmm0, xmm0
	movss	DWORD PTR _delta$[ebp], xmm0

; 1701 : 			return;

	jmp	$LN1@V_LandDipW
$LN9@V_LandDipW:

; 1702 : 		}
; 1703 : 
; 1704 : 		if ( delta < WEP_DEFLECT_TIME)

	cvtss2sd xmm0, DWORD PTR _delta$[ebp]
	movsd	xmm1, QWORD PTR __real@3fb999999999999a
	comisd	xmm1, xmm0
	jbe	SHORT $LN10@V_LandDipW

; 1705 : 		{
; 1706 : 			f = delta / WEP_DEFLECT_TIME;

	cvtss2sd xmm0, DWORD PTR _delta$[ebp]
	divsd	xmm0, QWORD PTR __real@3fb999999999999a
	cvtsd2ss xmm0, xmm0
	movss	DWORD PTR _f$[ebp], xmm0

; 1707 : 			pparams->simorg[2] += wepChange * f;

	mov	ecx, DWORD PTR _pparams$[ebp]
	add	ecx, 100				; 00000064H
	call	??BVector@@QAEPAMXZ			; Vector::operator float *
	mov	ecx, 4
	shl	ecx, 1
	add	eax, ecx
	mov	DWORD PTR tv142[ebp], eax
	movss	xmm0, DWORD PTR _wepChange$[ebp]
	mulss	xmm0, DWORD PTR _f$[ebp]
	mov	edx, DWORD PTR tv142[ebp]
	addss	xmm0, DWORD PTR [edx]
	mov	eax, DWORD PTR tv142[ebp]
	movss	DWORD PTR [eax], xmm0
	jmp	SHORT $LN12@V_LandDipW
$LN10@V_LandDipW:

; 1708 : 		}
; 1709 : 		else if ( delta < WEP_DEFLECT_TIME + WEP_RETURN_TIME )

	cvtss2sd xmm0, DWORD PTR _delta$[ebp]
	movsd	xmm1, QWORD PTR __real@3fd6666666666666
	comisd	xmm1, xmm0
	jbe	SHORT $LN12@V_LandDipW

; 1710 : 		{
; 1711 : 			delta -= WEP_DEFLECT_TIME;

	cvtss2sd xmm0, DWORD PTR _delta$[ebp]
	subsd	xmm0, QWORD PTR __real@3fb999999999999a
	cvtsd2ss xmm0, xmm0
	movss	DWORD PTR _delta$[ebp], xmm0

; 1712 : 			f = 1.0 - ( delta / WEP_RETURN_TIME );

	cvtss2sd xmm0, DWORD PTR _delta$[ebp]
	divsd	xmm0, QWORD PTR __real@3fd0000000000000
	movsd	xmm1, QWORD PTR __real@3ff0000000000000
	subsd	xmm1, xmm0
	cvtsd2ss xmm0, xmm1
	movss	DWORD PTR _f$[ebp], xmm0

; 1713 : 			pparams->simorg[2] += wepChange * f;

	mov	ecx, DWORD PTR _pparams$[ebp]
	add	ecx, 100				; 00000064H
	call	??BVector@@QAEPAMXZ			; Vector::operator float *
	mov	ecx, 4
	shl	ecx, 1
	add	eax, ecx
	mov	DWORD PTR tv159[ebp], eax
	movss	xmm0, DWORD PTR _wepChange$[ebp]
	mulss	xmm0, DWORD PTR _f$[ebp]
	mov	edx, DWORD PTR tv159[ebp]
	addss	xmm0, DWORD PTR [edx]
	mov	eax, DWORD PTR tv159[ebp]
	movss	DWORD PTR [eax], xmm0
$LN12@V_LandDipW:
$LN1@V_LandDipW:

; 1714 : 		}
; 1715 : 	}
; 1716 : 
; 1717 : }

	pop	edi
	pop	esi
	pop	ebx
	mov	esp, ebp
	pop	ebp
	ret	0
?V_LandDipWeapon@@YAXPAUref_params_s@@@Z ENDP		; V_LandDipWeapon
_TEXT	ENDS
; Function compile flags: /Odtp /ZI
; File d:\!diffusion 2020\source code 2022\client-server\client\render\view.cpp
;	COMDAT ?V_LandDip@@YAXPAUref_params_s@@@Z
_TEXT	SEGMENT
tv160 = -76						; size = 4
tv143 = -76						; size = 4
_landChange$ = -8					; size = 4
_delta$ = -4						; size = 4
_pparams$ = 8						; size = 4
?V_LandDip@@YAXPAUref_params_s@@@Z PROC			; V_LandDip, COMDAT

; 1574 : {

	push	ebp
	mov	ebp, esp
	sub	esp, 76					; 0000004cH
	push	ebx
	push	esi
	push	edi

; 1575 : 	#define LAND_DEFLECT_TIME 0.15
; 1576 : 	#define LAND_RETURN_TIME 0.3
; 1577 : 	float delta;
; 1578 : 	static float landtime;
; 1579 : 	static float f;
; 1580 : 	float landChange;
; 1581 : 
; 1582 : 	if( !pparams->onground && pparams->health > 0 )

	mov	eax, DWORD PTR _pparams$[ebp]
	cmp	DWORD PTR [eax+80], 0
	jne	$LN6@V_LandDip
	mov	eax, DWORD PTR _pparams$[ebp]
	cmp	DWORD PTR [eax+140], 0
	jle	SHORT $LN6@V_LandDip

; 1583 : 	{
; 1584 : 		if( gEngfuncs.GetLocalPlayer()->curstate.effects & EF_UPSIDEDOWN )

	call	DWORD PTR ?gEngfuncs@@3Ucl_enginefuncs_s@@A+204
	mov	eax, DWORD PTR [eax+748]
	and	eax, 4194304				; 00400000H
	je	SHORT $LN3@V_LandDip

; 1585 : 		{
; 1586 : 			if( pparams->simvel[2] > 200 )

	mov	ecx, DWORD PTR _pparams$[ebp]
	add	ecx, 88					; 00000058H
	call	??BVector@@QAEPAMXZ			; Vector::operator float *
	mov	ecx, 4
	shl	ecx, 1
	movss	xmm0, DWORD PTR [eax+ecx]
	comiss	xmm0, DWORD PTR __real@43480000
	jbe	SHORT $LN5@V_LandDip

; 1587 : 				landtime = pparams->time;

	mov	eax, DWORD PTR _pparams$[ebp]
	movss	xmm0, DWORD PTR [eax+64]
	movss	DWORD PTR ?landtime@?1??V_LandDip@@YAXPAUref_params_s@@@Z@4MA, xmm0
$LN5@V_LandDip:

; 1588 : 		}
; 1589 : 		else

	jmp	SHORT $LN6@V_LandDip
$LN3@V_LandDip:

; 1590 : 		{
; 1591 : 			if( pparams->simvel[2] < -200 )

	mov	ecx, DWORD PTR _pparams$[ebp]
	add	ecx, 88					; 00000058H
	call	??BVector@@QAEPAMXZ			; Vector::operator float *
	mov	ecx, 4
	shl	ecx, 1
	movss	xmm0, DWORD PTR __real@c3480000
	comiss	xmm0, DWORD PTR [eax+ecx]
	jbe	SHORT $LN6@V_LandDip

; 1592 : 				landtime = pparams->time;

	mov	eax, DWORD PTR _pparams$[ebp]
	movss	xmm0, DWORD PTR [eax+64]
	movss	DWORD PTR ?landtime@?1??V_LandDip@@YAXPAUref_params_s@@@Z@4MA, xmm0
$LN6@V_LandDip:

; 1593 : 		}
; 1594 : 	}
; 1595 : 
; 1596 : 	if (pparams->onground)

	mov	eax, DWORD PTR _pparams$[ebp]
	cmp	DWORD PTR [eax+80], 0
	je	$LN14@V_LandDip

; 1597 : 	{
; 1598 : 		if( landtime > pparams->time )

	mov	eax, DWORD PTR _pparams$[ebp]
	movss	xmm0, DWORD PTR ?landtime@?1??V_LandDip@@YAXPAUref_params_s@@@Z@4MA
	comiss	xmm0, DWORD PTR [eax+64]
	jbe	SHORT $LN8@V_LandDip

; 1599 : 		{
; 1600 : 			landtime = 0;

	xorps	xmm0, xmm0
	movss	DWORD PTR ?landtime@?1??V_LandDip@@YAXPAUref_params_s@@@Z@4MA, xmm0

; 1601 : 			return;

	jmp	$LN1@V_LandDip
$LN8@V_LandDip:

; 1602 : 		}
; 1603 : 		
; 1604 : 		if( gEngfuncs.GetLocalPlayer()->curstate.effects & EF_UPSIDEDOWN )

	call	DWORD PTR ?gEngfuncs@@3Ucl_enginefuncs_s@@A+204
	mov	eax, DWORD PTR [eax+748]
	and	eax, 4194304				; 00400000H
	je	SHORT $LN9@V_LandDip

; 1605 : 			landChange = 4;

	movss	xmm0, DWORD PTR __real@40800000
	movss	DWORD PTR _landChange$[ebp], xmm0

; 1606 : 		else

	jmp	SHORT $LN10@V_LandDip
$LN9@V_LandDip:

; 1607 : 			landChange = -4;

	movss	xmm0, DWORD PTR __real@c0800000
	movss	DWORD PTR _landChange$[ebp], xmm0
$LN10@V_LandDip:

; 1608 : 
; 1609 : 		delta = pparams->time - landtime;

	mov	eax, DWORD PTR _pparams$[ebp]
	movss	xmm0, DWORD PTR [eax+64]
	subss	xmm0, DWORD PTR ?landtime@?1??V_LandDip@@YAXPAUref_params_s@@@Z@4MA
	movss	DWORD PTR _delta$[ebp], xmm0

; 1610 : 
; 1611 : 		if (delta > (LAND_DEFLECT_TIME + LAND_RETURN_TIME) )

	cvtss2sd xmm0, DWORD PTR _delta$[ebp]
	comisd	xmm0, QWORD PTR __real@3fdccccccccccccc
	jbe	SHORT $LN11@V_LandDip

; 1612 : 		{
; 1613 : 			landtime = 0;

	xorps	xmm0, xmm0
	movss	DWORD PTR ?landtime@?1??V_LandDip@@YAXPAUref_params_s@@@Z@4MA, xmm0

; 1614 : 			delta = 0;

	xorps	xmm0, xmm0
	movss	DWORD PTR _delta$[ebp], xmm0

; 1615 : 			return;

	jmp	$LN1@V_LandDip
$LN11@V_LandDip:

; 1616 : 		}
; 1617 : 
; 1618 : 		if (delta < LAND_DEFLECT_TIME)

	cvtss2sd xmm0, DWORD PTR _delta$[ebp]
	movsd	xmm1, QWORD PTR __real@3fc3333333333333
	comisd	xmm1, xmm0
	jbe	SHORT $LN12@V_LandDip

; 1619 : 		{
; 1620 : 			f = delta / LAND_DEFLECT_TIME;

	cvtss2sd xmm0, DWORD PTR _delta$[ebp]
	divsd	xmm0, QWORD PTR __real@3fc3333333333333
	cvtsd2ss xmm0, xmm0
	movss	DWORD PTR ?f@?1??V_LandDip@@YAXPAUref_params_s@@@Z@4MA, xmm0

; 1621 : 			pparams->simorg[2] += landChange * f;

	mov	ecx, DWORD PTR _pparams$[ebp]
	add	ecx, 100				; 00000064H
	call	??BVector@@QAEPAMXZ			; Vector::operator float *
	mov	ecx, 4
	shl	ecx, 1
	add	eax, ecx
	mov	DWORD PTR tv143[ebp], eax
	movss	xmm0, DWORD PTR _landChange$[ebp]
	mulss	xmm0, DWORD PTR ?f@?1??V_LandDip@@YAXPAUref_params_s@@@Z@4MA
	mov	edx, DWORD PTR tv143[ebp]
	addss	xmm0, DWORD PTR [edx]
	mov	eax, DWORD PTR tv143[ebp]
	movss	DWORD PTR [eax], xmm0
	jmp	$LN14@V_LandDip
$LN12@V_LandDip:

; 1622 : 		}
; 1623 : 		else if (delta < LAND_DEFLECT_TIME + LAND_RETURN_TIME)

	cvtss2sd xmm0, DWORD PTR _delta$[ebp]
	movsd	xmm1, QWORD PTR __real@3fdccccccccccccc
	comisd	xmm1, xmm0
	jbe	SHORT $LN14@V_LandDip

; 1624 : 		{
; 1625 : 			delta -= LAND_DEFLECT_TIME;

	cvtss2sd xmm0, DWORD PTR _delta$[ebp]
	subsd	xmm0, QWORD PTR __real@3fc3333333333333
	cvtsd2ss xmm0, xmm0
	movss	DWORD PTR _delta$[ebp], xmm0

; 1626 : 			f = 1.0 - ( delta / LAND_RETURN_TIME );

	cvtss2sd xmm0, DWORD PTR _delta$[ebp]
	divsd	xmm0, QWORD PTR __real@3fd3333333333333
	movsd	xmm1, QWORD PTR __real@3ff0000000000000
	subsd	xmm1, xmm0
	cvtsd2ss xmm0, xmm1
	movss	DWORD PTR ?f@?1??V_LandDip@@YAXPAUref_params_s@@@Z@4MA, xmm0

; 1627 : 			pparams->simorg[2] += landChange * f;

	mov	ecx, DWORD PTR _pparams$[ebp]
	add	ecx, 100				; 00000064H
	call	??BVector@@QAEPAMXZ			; Vector::operator float *
	mov	ecx, 4
	shl	ecx, 1
	add	eax, ecx
	mov	DWORD PTR tv160[ebp], eax
	movss	xmm0, DWORD PTR _landChange$[ebp]
	mulss	xmm0, DWORD PTR ?f@?1??V_LandDip@@YAXPAUref_params_s@@@Z@4MA
	mov	edx, DWORD PTR tv160[ebp]
	addss	xmm0, DWORD PTR [edx]
	mov	eax, DWORD PTR tv160[ebp]
	movss	DWORD PTR [eax], xmm0
$LN14@V_LandDip:
$LN1@V_LandDip:

; 1628 : 		}
; 1629 : 	}
; 1630 : }

	pop	edi
	pop	esi
	pop	ebx
	mov	esp, ebp
	pop	ebp
	ret	0
?V_LandDip@@YAXPAUref_params_s@@@Z ENDP			; V_LandDip
_TEXT	ENDS
; Function compile flags: /Odtp /ZI
;	COMDAT ??0viewinterp_t@@QAE@XZ
_TEXT	SEGMENT
_this$ = -4						; size = 4
??0viewinterp_t@@QAE@XZ PROC				; viewinterp_t::viewinterp_t, COMDAT
; _this$ = ecx
	push	ebp
	mov	ebp, esp
	sub	esp, 68					; 00000044H
	push	ebx
	push	esi
	push	edi
	mov	DWORD PTR _this$[ebp], ecx
	push	OFFSET ??0Vector@@QAE@XZ		; Vector::Vector
	push	64					; 00000040H
	push	12					; 0000000cH
	mov	eax, DWORD PTR _this$[ebp]
	push	eax
	call	??_H@YGXPAXIIP6EPAX0@Z@Z
	push	OFFSET ??0Vector@@QAE@XZ		; Vector::Vector
	push	64					; 00000040H
	push	12					; 0000000cH
	mov	eax, DWORD PTR _this$[ebp]
	add	eax, 1024				; 00000400H
	push	eax
	call	??_H@YGXPAXIIP6EPAX0@Z@Z
	mov	eax, DWORD PTR _this$[ebp]
	pop	edi
	pop	esi
	pop	ebx
	mov	esp, ebp
	pop	ebp
	ret	0
??0viewinterp_t@@QAE@XZ ENDP				; viewinterp_t::viewinterp_t
_TEXT	ENDS
; Function compile flags: /Odtp /ZI
; File d:\!diffusion 2020\source code 2022\client-server\client\render\view.cpp
;	COMDAT ?V_CalcWaterLevel@@YAMPAUref_params_s@@@Z
_TEXT	SEGMENT
tv203 = -112						; size = 4
tv201 = -112						; size = 4
tv143 = -112						; size = 4
_contents$1 = -44					; size = 4
_i$2 = -40						; size = 4
_contents$3 = -36					; size = 4
_i$4 = -32						; size = 4
_point$5 = -28						; size = 12
_pwater$6 = -16						; size = 4
_waterDist$7 = -12					; size = 4
_waterEntity$8 = -8					; size = 4
_waterOffset$ = -4					; size = 4
_pparams$ = 8						; size = 4
?V_CalcWaterLevel@@YAMPAUref_params_s@@@Z PROC		; V_CalcWaterLevel, COMDAT

; 1501 : {

	push	ebp
	mov	ebp, esp
	sub	esp, 112				; 00000070H
	push	ebx
	push	esi
	push	edi

; 1502 : 	float waterOffset = 0.0f;

	xorps	xmm0, xmm0
	movss	DWORD PTR _waterOffset$[ebp], xmm0

; 1503 : 
; 1504 : 	if( pparams->waterlevel >= 2 )

	mov	eax, DWORD PTR _pparams$[ebp]
	cmp	DWORD PTR [eax+84], 2
	jl	$LN12@V_CalcWate

; 1505 : 	{
; 1506 : 		int waterEntity = WATER_ENTITY( pparams->simorg );

	mov	ecx, DWORD PTR _pparams$[ebp]
	add	ecx, 100				; 00000064H
	call	??BVector@@QAEPAMXZ			; Vector::operator float *
	push	eax
	call	DWORD PTR ?gEngfuncs@@3Ucl_enginefuncs_s@@A+232
	add	esp, 4
	mov	DWORD PTR _waterEntity$8[ebp], eax

; 1507 : 		float waterDist = cl_waterdist->value;

	mov	eax, DWORD PTR ?cl_waterdist@@3PAUcvar_s@@A ; cl_waterdist
	movss	xmm0, DWORD PTR [eax+12]
	movss	DWORD PTR _waterDist$7[ebp], xmm0

; 1508 : 
; 1509 : 		if( waterEntity >= 0 && waterEntity < pparams->max_entities )

	cmp	DWORD PTR _waterEntity$8[ebp], 0
	jl	SHORT $LN10@V_CalcWate
	mov	eax, DWORD PTR _pparams$[ebp]
	mov	ecx, DWORD PTR _waterEntity$8[ebp]
	cmp	ecx, DWORD PTR [eax+184]
	jge	SHORT $LN10@V_CalcWate

; 1510 : 		{
; 1511 : 			cl_entity_t *pwater = GET_ENTITY( waterEntity );

	mov	eax, DWORD PTR _waterEntity$8[ebp]
	push	eax
	call	DWORD PTR ?gEngfuncs@@3Ucl_enginefuncs_s@@A+212
	add	esp, 4
	mov	DWORD PTR _pwater$6[ebp], eax

; 1512 : 			if( pwater && ( pwater->model != NULL ))

	cmp	DWORD PTR _pwater$6[ebp], 0
	je	SHORT $LN10@V_CalcWate
	mov	eax, DWORD PTR _pwater$6[ebp]
	cmp	DWORD PTR [eax+2964], 0
	je	SHORT $LN10@V_CalcWate

; 1513 : 				waterDist += ( pwater->curstate.scale * 16.0f );

	mov	eax, DWORD PTR _pwater$6[ebp]
	movss	xmm0, DWORD PTR [eax+752]
	mulss	xmm0, DWORD PTR __real@41800000
	addss	xmm0, DWORD PTR _waterDist$7[ebp]
	movss	DWORD PTR _waterDist$7[ebp], xmm0
$LN10@V_CalcWate:

; 1514 : 		}
; 1515 : 
; 1516 : 		Vector point = pparams->vieworg;

	mov	eax, DWORD PTR _pparams$[ebp]
	push	eax
	lea	ecx, DWORD PTR _point$5[ebp]
	call	??0Vector@@QAE@ABV0@@Z			; Vector::Vector

; 1517 : 
; 1518 : 		// eyes are above water, make sure we're above the waves
; 1519 : 		if( pparams->waterlevel == 2 )	

	mov	eax, DWORD PTR _pparams$[ebp]
	cmp	DWORD PTR [eax+84], 2
	jne	$LN11@V_CalcWate

; 1520 : 		{
; 1521 : 			point.z -= waterDist;

	movss	xmm0, DWORD PTR _point$5[ebp+8]
	subss	xmm0, DWORD PTR _waterDist$7[ebp]
	movss	DWORD PTR _point$5[ebp+8], xmm0

; 1522 : 
; 1523 : 			for( int i = 0; i < waterDist; i++ )

	mov	DWORD PTR _i$4[ebp], 0
	jmp	SHORT $LN4@V_CalcWate
$LN2@V_CalcWate:
	mov	eax, DWORD PTR _i$4[ebp]
	add	eax, 1
	mov	DWORD PTR _i$4[ebp], eax
$LN4@V_CalcWate:
	cvtsi2ss xmm0, DWORD PTR _i$4[ebp]
	movss	xmm1, DWORD PTR _waterDist$7[ebp]
	comiss	xmm1, xmm0
	jbe	SHORT $LN3@V_CalcWate

; 1524 : 			{
; 1525 : 				int contents = POINT_CONTENTS( point );

	push	0
	lea	ecx, DWORD PTR _point$5[ebp]
	call	??BVector@@QAEPAMXZ			; Vector::operator float *
	push	eax
	call	DWORD PTR ?gEngfuncs@@3Ucl_enginefuncs_s@@A+228
	add	esp, 8
	mov	DWORD PTR _contents$3[ebp], eax

; 1526 : 				if( contents > CONTENTS_WATER )

	cmp	DWORD PTR _contents$3[ebp], -3		; fffffffdH
	jle	SHORT $LN13@V_CalcWate

; 1527 : 					break;

	jmp	SHORT $LN3@V_CalcWate
$LN13@V_CalcWate:

; 1528 : 				point.z += 1;

	movss	xmm0, DWORD PTR _point$5[ebp+8]
	addss	xmm0, DWORD PTR __real@3f800000
	movss	DWORD PTR _point$5[ebp+8], xmm0

; 1529 : 			}

	jmp	SHORT $LN2@V_CalcWate
$LN3@V_CalcWate:

; 1530 : 			waterOffset = (point.z + waterDist) - pparams->vieworg[2];

	movss	xmm0, DWORD PTR _point$5[ebp+8]
	addss	xmm0, DWORD PTR _waterDist$7[ebp]
	mov	ecx, DWORD PTR _pparams$[ebp]
	movss	DWORD PTR tv201[ebp], xmm0
	call	??BVector@@QAEPAMXZ			; Vector::operator float *
	mov	ecx, 4
	shl	ecx, 1
	movss	xmm0, DWORD PTR tv201[ebp]
	subss	xmm0, DWORD PTR [eax+ecx]
	movss	DWORD PTR _waterOffset$[ebp], xmm0

; 1531 : 		}
; 1532 : 		else

	jmp	$LN12@V_CalcWate
$LN11@V_CalcWate:

; 1533 : 		{
; 1534 : 			// eyes are under water. Make sure we're far enough under
; 1535 : 			point[2] += waterDist;

	lea	ecx, DWORD PTR _point$5[ebp]
	call	??BVector@@QAEPAMXZ			; Vector::operator float *
	mov	ecx, 4
	shl	ecx, 1
	add	eax, ecx
	mov	DWORD PTR tv143[ebp], eax
	mov	edx, DWORD PTR tv143[ebp]
	movss	xmm0, DWORD PTR [edx]
	addss	xmm0, DWORD PTR _waterDist$7[ebp]
	mov	eax, DWORD PTR tv143[ebp]
	movss	DWORD PTR [eax], xmm0

; 1536 : 
; 1537 : 			for( int i = 0; i < waterDist; i++ )

	mov	DWORD PTR _i$2[ebp], 0
	jmp	SHORT $LN7@V_CalcWate
$LN5@V_CalcWate:
	mov	eax, DWORD PTR _i$2[ebp]
	add	eax, 1
	mov	DWORD PTR _i$2[ebp], eax
$LN7@V_CalcWate:
	cvtsi2ss xmm0, DWORD PTR _i$2[ebp]
	movss	xmm1, DWORD PTR _waterDist$7[ebp]
	comiss	xmm1, xmm0
	jbe	SHORT $LN6@V_CalcWate

; 1538 : 			{
; 1539 : 				int contents = POINT_CONTENTS( point );

	push	0
	lea	ecx, DWORD PTR _point$5[ebp]
	call	??BVector@@QAEPAMXZ			; Vector::operator float *
	push	eax
	call	DWORD PTR ?gEngfuncs@@3Ucl_enginefuncs_s@@A+228
	add	esp, 8
	mov	DWORD PTR _contents$1[ebp], eax

; 1540 : 				if( contents <= CONTENTS_WATER )

	cmp	DWORD PTR _contents$1[ebp], -3		; fffffffdH
	jg	SHORT $LN14@V_CalcWate

; 1541 : 					break;

	jmp	SHORT $LN6@V_CalcWate
$LN14@V_CalcWate:

; 1542 : 
; 1543 : 				point.z -= 1;

	movss	xmm0, DWORD PTR _point$5[ebp+8]
	subss	xmm0, DWORD PTR __real@3f800000
	movss	DWORD PTR _point$5[ebp+8], xmm0

; 1544 : 			}

	jmp	SHORT $LN5@V_CalcWate
$LN6@V_CalcWate:

; 1545 : 			waterOffset = (point.z - waterDist) - pparams->vieworg[2];

	movss	xmm0, DWORD PTR _point$5[ebp+8]
	subss	xmm0, DWORD PTR _waterDist$7[ebp]
	mov	ecx, DWORD PTR _pparams$[ebp]
	movss	DWORD PTR tv203[ebp], xmm0
	call	??BVector@@QAEPAMXZ			; Vector::operator float *
	mov	ecx, 4
	shl	ecx, 1
	movss	xmm0, DWORD PTR tv203[ebp]
	subss	xmm0, DWORD PTR [eax+ecx]
	movss	DWORD PTR _waterOffset$[ebp], xmm0
$LN12@V_CalcWate:

; 1546 : 		}
; 1547 : 	}
; 1548 : 
; 1549 : 	return waterOffset;

	fld	DWORD PTR _waterOffset$[ebp]

; 1550 : }

	pop	edi
	pop	esi
	pop	ebx
	mov	esp, ebp
	pop	ebp
	ret	0
?V_CalcWaterLevel@@YAMPAUref_params_s@@@Z ENDP		; V_CalcWaterLevel
_TEXT	ENDS
; Function compile flags: /Odtp /ZI
; File d:\!diffusion 2020\source code 2022\client-server\client\render\view.cpp
;	COMDAT ?V_CalcThirdPersonRefdef@@YAXPAUref_params_s@@@Z
_TEXT	SEGMENT
tv162 = -80						; size = 4
_ent$ = -12						; size = 4
_pitch$ = -8						; size = 4
_steptime$1 = -4					; size = 4
_pparams$ = 8						; size = 4
?V_CalcThirdPersonRefdef@@YAXPAUref_params_s@@@Z PROC	; V_CalcThirdPersonRefdef, COMDAT

; 1444 : {

	push	ebp
	mov	ebp, esp
	sub	esp, 80					; 00000050H
	push	ebx
	push	esi
	push	edi

; 1445 : 	static float lasttime, oldz = 0;
; 1446 : 
; 1447 : 	pparams->vieworg = pparams->simorg;

	mov	eax, DWORD PTR _pparams$[ebp]
	add	eax, 100				; 00000064H
	mov	ecx, DWORD PTR _pparams$[ebp]
	mov	edx, DWORD PTR [eax]
	mov	DWORD PTR [ecx], edx
	mov	edx, DWORD PTR [eax+4]
	mov	DWORD PTR [ecx+4], edx
	mov	eax, DWORD PTR [eax+8]
	mov	DWORD PTR [ecx+8], eax

; 1448 : 	pparams->vieworg += pparams->viewheight;

	mov	eax, DWORD PTR _pparams$[ebp]
	add	eax, 112				; 00000070H
	push	eax
	mov	ecx, DWORD PTR _pparams$[ebp]
	call	??YVector@@QAEAAV0@ABV0@@Z		; Vector::operator+=

; 1449 : 	pparams->viewangles = pparams->cl_viewangles;

	mov	eax, DWORD PTR _pparams$[ebp]
	add	eax, 128				; 00000080H
	mov	ecx, DWORD PTR _pparams$[ebp]
	add	ecx, 12					; 0000000cH
	mov	edx, DWORD PTR [eax]
	mov	DWORD PTR [ecx], edx
	mov	edx, DWORD PTR [eax+4]
	mov	DWORD PTR [ecx+4], edx
	mov	eax, DWORD PTR [eax+8]
	mov	DWORD PTR [ecx+8], eax

; 1450 : 
; 1451 : 	V_CalcSendOrigin( pparams );

	mov	eax, DWORD PTR _pparams$[ebp]
	push	eax
	call	?V_CalcSendOrigin@@YAXPAUref_params_s@@@Z ; V_CalcSendOrigin
	add	esp, 4

; 1452 : 
; 1453 : 	// this is smooth stair climbing in thirdperson mode but not affected for client model :(
; 1454 : 	if( !pparams->smoothing && pparams->onground && pparams->simorg[2] - oldz > 0.0f )

	mov	eax, DWORD PTR _pparams$[ebp]
	cmp	DWORD PTR [eax+196], 0
	jne	$LN2@V_CalcThir
	mov	eax, DWORD PTR _pparams$[ebp]
	cmp	DWORD PTR [eax+80], 0
	je	$LN2@V_CalcThir
	mov	ecx, DWORD PTR _pparams$[ebp]
	add	ecx, 100				; 00000064H
	call	??BVector@@QAEPAMXZ			; Vector::operator float *
	mov	ecx, 4
	shl	ecx, 1
	movss	xmm0, DWORD PTR [eax+ecx]
	subss	xmm0, DWORD PTR ?oldz@?1??V_CalcThirdPersonRefdef@@YAXPAUref_params_s@@@Z@4MA
	comiss	xmm0, DWORD PTR __real@00000000
	jbe	$LN2@V_CalcThir

; 1455 : 	{
; 1456 : 		float steptime;
; 1457 : 		
; 1458 : 		steptime = pparams->time - lasttime;

	mov	eax, DWORD PTR _pparams$[ebp]
	movss	xmm0, DWORD PTR [eax+64]
	subss	xmm0, DWORD PTR ?lasttime@?1??V_CalcThirdPersonRefdef@@YAXPAUref_params_s@@@Z@4MA
	movss	DWORD PTR _steptime$1[ebp], xmm0

; 1459 : 		if( steptime < 0 ) steptime = 0;

	xorps	xmm0, xmm0
	comiss	xmm0, DWORD PTR _steptime$1[ebp]
	jbe	SHORT $LN4@V_CalcThir
	xorps	xmm0, xmm0
	movss	DWORD PTR _steptime$1[ebp], xmm0
$LN4@V_CalcThir:

; 1460 : 
; 1461 : 		oldz += steptime * 150.0f;

	movss	xmm0, DWORD PTR _steptime$1[ebp]
	mulss	xmm0, DWORD PTR __real@43160000
	addss	xmm0, DWORD PTR ?oldz@?1??V_CalcThirdPersonRefdef@@YAXPAUref_params_s@@@Z@4MA
	movss	DWORD PTR ?oldz@?1??V_CalcThirdPersonRefdef@@YAXPAUref_params_s@@@Z@4MA, xmm0

; 1462 : 
; 1463 : 		if( oldz > pparams->simorg[2] )

	mov	ecx, DWORD PTR _pparams$[ebp]
	add	ecx, 100				; 00000064H
	call	??BVector@@QAEPAMXZ			; Vector::operator float *
	mov	ecx, 4
	shl	ecx, 1
	movss	xmm0, DWORD PTR ?oldz@?1??V_CalcThirdPersonRefdef@@YAXPAUref_params_s@@@Z@4MA
	comiss	xmm0, DWORD PTR [eax+ecx]
	jbe	SHORT $LN5@V_CalcThir

; 1464 : 			oldz = pparams->simorg[2];

	mov	ecx, DWORD PTR _pparams$[ebp]
	add	ecx, 100				; 00000064H
	call	??BVector@@QAEPAMXZ			; Vector::operator float *
	mov	ecx, 4
	shl	ecx, 1
	movss	xmm0, DWORD PTR [eax+ecx]
	movss	DWORD PTR ?oldz@?1??V_CalcThirdPersonRefdef@@YAXPAUref_params_s@@@Z@4MA, xmm0
$LN5@V_CalcThir:

; 1465 : 		if( pparams->simorg[2] - oldz > pparams->movevars->stepsize )

	mov	ecx, DWORD PTR _pparams$[ebp]
	add	ecx, 100				; 00000064H
	call	??BVector@@QAEPAMXZ			; Vector::operator float *
	mov	ecx, 4
	shl	ecx, 1
	movss	xmm0, DWORD PTR [eax+ecx]
	subss	xmm0, DWORD PTR ?oldz@?1??V_CalcThirdPersonRefdef@@YAXPAUref_params_s@@@Z@4MA
	mov	edx, DWORD PTR _pparams$[ebp]
	mov	eax, DWORD PTR [edx+204]
	comiss	xmm0, DWORD PTR [eax+48]
	jbe	SHORT $LN6@V_CalcThir

; 1466 : 			oldz = pparams->simorg[2] - pparams->movevars->stepsize;

	mov	ecx, DWORD PTR _pparams$[ebp]
	add	ecx, 100				; 00000064H
	call	??BVector@@QAEPAMXZ			; Vector::operator float *
	mov	ecx, 4
	shl	ecx, 1
	mov	edx, DWORD PTR _pparams$[ebp]
	mov	edx, DWORD PTR [edx+204]
	movss	xmm0, DWORD PTR [eax+ecx]
	subss	xmm0, DWORD PTR [edx+48]
	movss	DWORD PTR ?oldz@?1??V_CalcThirdPersonRefdef@@YAXPAUref_params_s@@@Z@4MA, xmm0
$LN6@V_CalcThir:

; 1467 : 
; 1468 : 		pparams->vieworg[2] += oldz - pparams->simorg[2];

	mov	ecx, DWORD PTR _pparams$[ebp]
	call	??BVector@@QAEPAMXZ			; Vector::operator float *
	mov	ecx, 4
	shl	ecx, 1
	add	eax, ecx
	mov	DWORD PTR tv162[ebp], eax
	mov	ecx, DWORD PTR _pparams$[ebp]
	add	ecx, 100				; 00000064H
	call	??BVector@@QAEPAMXZ			; Vector::operator float *
	mov	edx, 4
	shl	edx, 1
	movss	xmm0, DWORD PTR ?oldz@?1??V_CalcThirdPersonRefdef@@YAXPAUref_params_s@@@Z@4MA
	subss	xmm0, DWORD PTR [eax+edx]
	mov	eax, DWORD PTR tv162[ebp]
	addss	xmm0, DWORD PTR [eax]
	mov	ecx, DWORD PTR tv162[ebp]
	movss	DWORD PTR [ecx], xmm0

; 1469 : 	}
; 1470 : 	else

	jmp	SHORT $LN3@V_CalcThir
$LN2@V_CalcThir:

; 1471 : 		oldz = pparams->simorg[2];

	mov	ecx, DWORD PTR _pparams$[ebp]
	add	ecx, 100				; 00000064H
	call	??BVector@@QAEPAMXZ			; Vector::operator float *
	mov	ecx, 4
	shl	ecx, 1
	movss	xmm0, DWORD PTR [eax+ecx]
	movss	DWORD PTR ?oldz@?1??V_CalcThirdPersonRefdef@@YAXPAUref_params_s@@@Z@4MA, xmm0
$LN3@V_CalcThir:

; 1472 : 
; 1473 : 	lasttime = pparams->time;

	mov	eax, DWORD PTR _pparams$[ebp]
	movss	xmm0, DWORD PTR [eax+64]
	movss	DWORD PTR ?lasttime@?1??V_CalcThirdPersonRefdef@@YAXPAUref_params_s@@@Z@4MA, xmm0

; 1474 : 
; 1475 : 	V_GetChaseOrigin( pparams->viewangles, pparams->vieworg, cl_chasedist->value, pparams->vieworg );

	mov	eax, DWORD PTR _pparams$[ebp]
	push	eax
	mov	ecx, DWORD PTR ?cl_chasedist@@3PAUcvar_s@@A ; cl_chasedist
	push	ecx
	movss	xmm0, DWORD PTR [ecx+12]
	movss	DWORD PTR [esp], xmm0
	mov	edx, DWORD PTR _pparams$[ebp]
	push	edx
	mov	eax, DWORD PTR _pparams$[ebp]
	add	eax, 12					; 0000000cH
	push	eax
	call	?V_GetChaseOrigin@@YAXABVVector@@0MAAV1@@Z ; V_GetChaseOrigin
	add	esp, 16					; 00000010H

; 1476 : 
; 1477 : 	float pitch = pparams->viewangles[PITCH];

	mov	ecx, DWORD PTR _pparams$[ebp]
	add	ecx, 12					; 0000000cH
	call	??BVector@@QAEPAMXZ			; Vector::operator float *
	mov	ecx, 4
	imul	edx, ecx, 0
	movss	xmm0, DWORD PTR [eax+edx]
	movss	DWORD PTR _pitch$[ebp], xmm0

; 1478 : 
; 1479 : 	// normalize angles
; 1480 : 	if( pitch > 180.0f ) 

	movss	xmm0, DWORD PTR _pitch$[ebp]
	comiss	xmm0, DWORD PTR __real@43340000
	jbe	SHORT $LN7@V_CalcThir

; 1481 : 		pitch -= 360.0f;

	movss	xmm0, DWORD PTR _pitch$[ebp]
	subss	xmm0, DWORD PTR __real@43b40000
	movss	DWORD PTR _pitch$[ebp], xmm0
	jmp	SHORT $LN9@V_CalcThir
$LN7@V_CalcThir:

; 1482 : 	else if( pitch < -180.0f )

	movss	xmm0, DWORD PTR __real@c3340000
	comiss	xmm0, DWORD PTR _pitch$[ebp]
	jbe	SHORT $LN9@V_CalcThir

; 1483 : 		pitch += 360.0f;

	movss	xmm0, DWORD PTR _pitch$[ebp]
	addss	xmm0, DWORD PTR __real@43b40000
	movss	DWORD PTR _pitch$[ebp], xmm0
$LN9@V_CalcThir:

; 1484 : 
; 1485 : 	// player pitch is inverted
; 1486 : 	pitch /= -3.0;

	cvtss2sd xmm0, DWORD PTR _pitch$[ebp]
	divsd	xmm0, QWORD PTR __real@c008000000000000
	cvtsd2ss xmm0, xmm0
	movss	DWORD PTR _pitch$[ebp], xmm0

; 1487 : 
; 1488 : 	cl_entity_t *ent = GET_LOCAL_PLAYER();

	call	DWORD PTR ?gEngfuncs@@3Ucl_enginefuncs_s@@A+204
	mov	DWORD PTR _ent$[ebp], eax

; 1489 : 
; 1490 : 	// slam local player's pitch value
; 1491 : 	ent->angles[PITCH] = pitch;

	mov	ecx, DWORD PTR _ent$[ebp]
	add	ecx, 2900				; 00000b54H
	call	??BVector@@QAEPAMXZ			; Vector::operator float *
	mov	ecx, 4
	imul	edx, ecx, 0
	movss	xmm0, DWORD PTR _pitch$[ebp]
	movss	DWORD PTR [eax+edx], xmm0

; 1492 : 	ent->curstate.angles[PITCH] = pitch;

	mov	ecx, DWORD PTR _ent$[ebp]
	add	ecx, 716				; 000002ccH
	call	??BVector@@QAEPAMXZ			; Vector::operator float *
	mov	ecx, 4
	imul	edx, ecx, 0
	movss	xmm0, DWORD PTR _pitch$[ebp]
	movss	DWORD PTR [eax+edx], xmm0

; 1493 : 	ent->prevstate.angles[PITCH] = pitch;

	mov	ecx, DWORD PTR _ent$[ebp]
	add	ecx, 376				; 00000178H
	call	??BVector@@QAEPAMXZ			; Vector::operator float *
	mov	ecx, 4
	imul	edx, ecx, 0
	movss	xmm0, DWORD PTR _pitch$[ebp]
	movss	DWORD PTR [eax+edx], xmm0

; 1494 : 	ent->latched.prevangles[PITCH] = pitch;

	mov	ecx, DWORD PTR _ent$[ebp]
	add	ecx, 2856				; 00000b28H
	call	??BVector@@QAEPAMXZ			; Vector::operator float *
	mov	ecx, 4
	imul	edx, ecx, 0
	movss	xmm0, DWORD PTR _pitch$[ebp]
	movss	DWORD PTR [eax+edx], xmm0

; 1495 : }

	pop	edi
	pop	esi
	pop	ebx
	mov	esp, ebp
	pop	ebp
	ret	0
?V_CalcThirdPersonRefdef@@YAXPAUref_params_s@@@Z ENDP	; V_CalcThirdPersonRefdef
_TEXT	ENDS
; Function compile flags: /Odtp /ZI
; File d:\!diffusion 2020\source code 2022\client-server\client\render\view.cpp
;	COMDAT ?V_CalcIntermissionRefdef@@YAXPAUref_params_s@@@Z
_TEXT	SEGMENT
tv159 = -80						; size = 4
tv128 = -80						; size = 4
_old$ = -12						; size = 4
_view$ = -8						; size = 4
_ent$ = -4						; size = 4
_pparams$ = 8						; size = 4
?V_CalcIntermissionRefdef@@YAXPAUref_params_s@@@Z PROC	; V_CalcIntermissionRefdef, COMDAT

; 1389 : {

	push	ebp
	mov	ebp, esp
	sub	esp, 80					; 00000050H
	push	ebx
	push	esi
	push	edi

; 1390 : 	// old code
; 1391 : /*	if (!v_intermission_spot)
; 1392 : 		v_intermission_spot = V_FindIntermissionSpot( pparams );
; 1393 : 
; 1394 : 	pparams->vieworg = v_intermission_spot->origin;
; 1395 : 	pparams->viewangles = v_intermission_spot->angles;
; 1396 : 
; 1397 : 	cl_entity_t *view = GET_VIEWMODEL();	
; 1398 : 	view->model = NULL;
; 1399 : 
; 1400 : 	// allways idle in intermission
; 1401 : 	float old = v_idlescale;
; 1402 : 	v_idlescale = 1;
; 1403 : 	V_AddIdle( pparams );
; 1404 : 	v_idlescale = old;
; 1405 : */
; 1406 : 	cl_entity_t* ent, * view;
; 1407 : 	float		old;
; 1408 : 
; 1409 : 	// ent is the player model ( visible when out of body )
; 1410 : 	ent = gEngfuncs.GetLocalPlayer();

	call	DWORD PTR ?gEngfuncs@@3Ucl_enginefuncs_s@@A+204
	mov	DWORD PTR _ent$[ebp], eax

; 1411 : 
; 1412 : 	// view is the weapon model (only visible from inside body )
; 1413 : 	view = gEngfuncs.GetViewModel();

	call	DWORD PTR ?gEngfuncs@@3Ucl_enginefuncs_s@@A+208
	mov	DWORD PTR _view$[ebp], eax

; 1414 : 
; 1415 : 	VectorCopy(pparams->simorg, pparams->vieworg);

	mov	ecx, DWORD PTR _pparams$[ebp]
	add	ecx, 100				; 00000064H
	call	??BVector@@QAEPAMXZ			; Vector::operator float *
	mov	esi, eax
	mov	eax, 4
	imul	edi, eax, 0
	mov	ecx, DWORD PTR _pparams$[ebp]
	call	??BVector@@QAEPAMXZ			; Vector::operator float *
	mov	ecx, 4
	imul	edx, ecx, 0
	mov	ecx, DWORD PTR [esi+edi]
	mov	DWORD PTR [eax+edx], ecx
	mov	ecx, DWORD PTR _pparams$[ebp]
	add	ecx, 100				; 00000064H
	call	??BVector@@QAEPAMXZ			; Vector::operator float *
	mov	esi, eax
	mov	edi, 4
	shl	edi, 0
	mov	ecx, DWORD PTR _pparams$[ebp]
	call	??BVector@@QAEPAMXZ			; Vector::operator float *
	mov	edx, 4
	shl	edx, 0
	mov	ecx, DWORD PTR [esi+edi]
	mov	DWORD PTR [eax+edx], ecx
	mov	ecx, DWORD PTR _pparams$[ebp]
	call	??BVector@@QAEPAMXZ			; Vector::operator float *
	mov	edx, 4
	shl	edx, 1
	add	eax, edx
	mov	DWORD PTR tv128[ebp], eax
	mov	esi, 4
	shl	esi, 1
	mov	ecx, DWORD PTR _pparams$[ebp]
	add	ecx, 100				; 00000064H
	call	??BVector@@QAEPAMXZ			; Vector::operator float *
	mov	ecx, DWORD PTR tv128[ebp]
	mov	edx, DWORD PTR [eax+esi]
	mov	DWORD PTR [ecx], edx

; 1416 : 	VectorCopy(pparams->cl_viewangles, pparams->viewangles);

	mov	ecx, DWORD PTR _pparams$[ebp]
	add	ecx, 128				; 00000080H
	call	??BVector@@QAEPAMXZ			; Vector::operator float *
	mov	esi, eax
	mov	eax, 4
	imul	edi, eax, 0
	mov	ecx, DWORD PTR _pparams$[ebp]
	add	ecx, 12					; 0000000cH
	call	??BVector@@QAEPAMXZ			; Vector::operator float *
	mov	ecx, 4
	imul	edx, ecx, 0
	mov	ecx, DWORD PTR [esi+edi]
	mov	DWORD PTR [eax+edx], ecx
	mov	ecx, DWORD PTR _pparams$[ebp]
	add	ecx, 128				; 00000080H
	call	??BVector@@QAEPAMXZ			; Vector::operator float *
	mov	esi, eax
	mov	edi, 4
	shl	edi, 0
	mov	ecx, DWORD PTR _pparams$[ebp]
	add	ecx, 12					; 0000000cH
	call	??BVector@@QAEPAMXZ			; Vector::operator float *
	mov	edx, 4
	shl	edx, 0
	mov	ecx, DWORD PTR [esi+edi]
	mov	DWORD PTR [eax+edx], ecx
	mov	ecx, DWORD PTR _pparams$[ebp]
	add	ecx, 12					; 0000000cH
	call	??BVector@@QAEPAMXZ			; Vector::operator float *
	mov	edx, 4
	shl	edx, 1
	add	eax, edx
	mov	DWORD PTR tv159[ebp], eax
	mov	esi, 4
	shl	esi, 1
	mov	ecx, DWORD PTR _pparams$[ebp]
	add	ecx, 128				; 00000080H
	call	??BVector@@QAEPAMXZ			; Vector::operator float *
	mov	ecx, DWORD PTR tv159[ebp]
	mov	edx, DWORD PTR [eax+esi]
	mov	DWORD PTR [ecx], edx

; 1417 : 
; 1418 : 	view->model = NULL;

	mov	eax, DWORD PTR _view$[ebp]
	mov	DWORD PTR [eax+2964], 0

; 1419 : 
; 1420 : 	// always idle in intermission
; 1421 : 	old = v_idlescale;

	movss	xmm0, DWORD PTR ?v_idlescale@@3MA
	movss	DWORD PTR _old$[ebp], xmm0

; 1422 : 	v_idlescale = 1;

	movss	xmm0, DWORD PTR __real@3f800000
	movss	DWORD PTR ?v_idlescale@@3MA, xmm0

; 1423 : 
; 1424 : 	V_AddIdle(pparams);

	mov	eax, DWORD PTR _pparams$[ebp]
	push	eax
	call	?V_AddIdle@@YAXPAUref_params_s@@@Z	; V_AddIdle
	add	esp, 4

; 1425 : 
; 1426 : //	if (gEngfuncs.IsSpectateOnly())
; 1427 : //	{
; 1428 : //		// in HLTV we must go to 'intermission' position by ourself
; 1429 : //		VectorCopy(gHUD.m_Spectator.m_cameraOrigin, pparams->vieworg);
; 1430 : //		VectorCopy(gHUD.m_Spectator.m_cameraAngles, pparams->viewangles);
; 1431 : //	}
; 1432 : 
; 1433 : 	v_idlescale = old;

	movss	xmm0, DWORD PTR _old$[ebp]
	movss	DWORD PTR ?v_idlescale@@3MA, xmm0

; 1434 : 
; 1435 : 	v_cl_angles = pparams->cl_viewangles;

	mov	eax, DWORD PTR _pparams$[ebp]
	add	eax, 128				; 00000080H
	mov	ecx, DWORD PTR [eax]
	mov	DWORD PTR ?v_cl_angles@@3VVector@@A, ecx
	mov	edx, DWORD PTR [eax+4]
	mov	DWORD PTR ?v_cl_angles@@3VVector@@A+4, edx
	mov	eax, DWORD PTR [eax+8]
	mov	DWORD PTR ?v_cl_angles@@3VVector@@A+8, eax

; 1436 : 	v_origin = pparams->vieworg;

	mov	eax, DWORD PTR _pparams$[ebp]
	mov	ecx, DWORD PTR [eax]
	mov	DWORD PTR ?v_origin@@3VVector@@A, ecx
	mov	edx, DWORD PTR [eax+4]
	mov	DWORD PTR ?v_origin@@3VVector@@A+4, edx
	mov	eax, DWORD PTR [eax+8]
	mov	DWORD PTR ?v_origin@@3VVector@@A+8, eax

; 1437 : 	v_angles = pparams->viewangles;

	mov	eax, DWORD PTR _pparams$[ebp]
	add	eax, 12					; 0000000cH
	mov	ecx, DWORD PTR [eax]
	mov	DWORD PTR ?v_angles@@3VVector@@A, ecx
	mov	edx, DWORD PTR [eax+4]
	mov	DWORD PTR ?v_angles@@3VVector@@A+4, edx
	mov	eax, DWORD PTR [eax+8]
	mov	DWORD PTR ?v_angles@@3VVector@@A+8, eax

; 1438 : }

	pop	edi
	pop	esi
	pop	ebx
	mov	esp, ebp
	pop	ebp
	ret	0
?V_CalcIntermissionRefdef@@YAXPAUref_params_s@@@Z ENDP	; V_CalcIntermissionRefdef
_TEXT	ENDS
; Function compile flags: /Odtp /ZI
; File d:\!diffusion 2020\source code 2022\client-server\client\render\view.cpp
;	COMDAT ?V_FindIntermissionSpot@@YAPAUcl_entity_s@@PAUref_params_s@@@Z
_TEXT	SEGMENT
_j$ = -80						; size = 4
_i$ = -76						; size = 4
_ent$ = -72						; size = 4
_spotindex$ = -68					; size = 64
__$ArrayPad$ = -4					; size = 4
_pparams$ = 8						; size = 4
?V_FindIntermissionSpot@@YAPAUcl_entity_s@@PAUref_params_s@@@Z PROC ; V_FindIntermissionSpot, COMDAT

; 1353 : {

	push	ebp
	mov	ebp, esp
	sub	esp, 144				; 00000090H
	mov	eax, DWORD PTR ___security_cookie
	xor	eax, ebp
	mov	DWORD PTR __$ArrayPad$[ebp], eax
	push	ebx
	push	esi
	push	edi

; 1354 : 	int spotindex[MAX_SPOTS];
; 1355 : 	cl_entity_t *ent;
; 1356 : 	int i, j;
; 1357 : 
; 1358 : 	// found intermission point
; 1359 : 	for( i = 0, j = 0; i < pparams->max_entities; i++ )

	mov	DWORD PTR _i$[ebp], 0
	mov	DWORD PTR _j$[ebp], 0
	jmp	SHORT $LN4@V_FindInte
$LN2@V_FindInte:
	mov	eax, DWORD PTR _i$[ebp]
	add	eax, 1
	mov	DWORD PTR _i$[ebp], eax
$LN4@V_FindInte:
	mov	eax, DWORD PTR _pparams$[ebp]
	mov	ecx, DWORD PTR _i$[ebp]
	cmp	ecx, DWORD PTR [eax+184]
	jge	SHORT $LN3@V_FindInte

; 1360 : 	{
; 1361 : 		ent = GET_ENTITY( i );

	mov	eax, DWORD PTR _i$[ebp]
	push	eax
	call	DWORD PTR ?gEngfuncs@@3Ucl_enginefuncs_s@@A+212
	add	esp, 4
	mov	DWORD PTR _ent$[ebp], eax

; 1362 : 
; 1363 : 		if( ent && ent->curstate.eflags & EFLAG_INTERMISSION )

	cmp	DWORD PTR _ent$[ebp], 0
	je	SHORT $LN5@V_FindInte
	mov	eax, DWORD PTR _ent$[ebp]
	movzx	ecx, BYTE PTR [eax+756]
	and	ecx, 2
	je	SHORT $LN5@V_FindInte

; 1364 : 		{
; 1365 : 			spotindex[j] = ent->index;

	mov	eax, DWORD PTR _j$[ebp]
	mov	ecx, DWORD PTR _ent$[ebp]
	mov	edx, DWORD PTR [ecx]
	mov	DWORD PTR _spotindex$[ebp+eax*4], edx

; 1366 : 			if( ++j >= MAX_SPOTS ) break; // full

	mov	eax, DWORD PTR _j$[ebp]
	add	eax, 1
	mov	DWORD PTR _j$[ebp], eax
	cmp	DWORD PTR _j$[ebp], 16			; 00000010H
	jl	SHORT $LN5@V_FindInte
	jmp	SHORT $LN3@V_FindInte
$LN5@V_FindInte:

; 1367 : 		}
; 1368 : 	}	

	jmp	SHORT $LN2@V_FindInte
$LN3@V_FindInte:

; 1369 : 	
; 1370 : 	// ok, we have list of intermission spots
; 1371 : 	if( j != 0 )

	cmp	DWORD PTR _j$[ebp], 0
	je	SHORT $LN7@V_FindInte

; 1372 : 	{
; 1373 : 		if( j > 1 ) j = RANDOM_LONG( 0, j );

	cmp	DWORD PTR _j$[ebp], 1
	jle	SHORT $LN9@V_FindInte
	mov	eax, DWORD PTR _j$[ebp]
	push	eax
	push	0
	call	DWORD PTR ?gEngfuncs@@3Ucl_enginefuncs_s@@A+272
	add	esp, 8
	mov	DWORD PTR _j$[ebp], eax
$LN9@V_FindInte:

; 1374 : 		ent = GET_ENTITY( spotindex[j-1] );

	mov	eax, DWORD PTR _j$[ebp]
	mov	ecx, DWORD PTR _spotindex$[ebp+eax*4-4]
	push	ecx
	call	DWORD PTR ?gEngfuncs@@3Ucl_enginefuncs_s@@A+212
	add	esp, 4
	mov	DWORD PTR _ent$[ebp], eax

; 1375 : 	}
; 1376 : 	else

	jmp	SHORT $LN8@V_FindInte
$LN7@V_FindInte:

; 1377 : 	{
; 1378 : 		// defaulted to player view
; 1379 : 		ent = gEngfuncs.GetLocalPlayer();

	call	DWORD PTR ?gEngfuncs@@3Ucl_enginefuncs_s@@A+204
	mov	DWORD PTR _ent$[ebp], eax
$LN8@V_FindInte:

; 1380 : 	}	
; 1381 : 
; 1382 : 	return ent;

	mov	eax, DWORD PTR _ent$[ebp]

; 1383 : }

	pop	edi
	pop	esi
	pop	ebx
	mov	ecx, DWORD PTR __$ArrayPad$[ebp]
	xor	ecx, ebp
	call	@__security_check_cookie@4
	mov	esp, ebp
	pop	ebp
	ret	0
?V_FindIntermissionSpot@@YAPAUcl_entity_s@@PAUref_params_s@@@Z ENDP ; V_FindIntermissionSpot
_TEXT	ENDS
; Function compile flags: /Odtp /ZI
; File d:\!diffusion 2020\source code 2022\client-server\client\render\view.cpp
;	COMDAT ?V_CalcCameraRefdef@@YAXPAUref_params_s@@@Z
_TEXT	SEGMENT
tv209 = -144						; size = 4
$T1 = -140						; size = 12
$T2 = -128						; size = 12
$T3 = -116						; size = 12
_steptime$4 = -40					; size = 4
_viewpos$5 = -36					; size = 12
_forward$6 = -24					; size = 12
_viewmonster$7 = -12					; size = 4
_vstate$8 = -8						; size = 4
_view$ = -4						; size = 4
_pparams$ = 8						; size = 4
?V_CalcCameraRefdef@@YAXPAUref_params_s@@@Z PROC	; V_CalcCameraRefdef, COMDAT

; 1283 : {

	push	ebp
	mov	ebp, esp
	sub	esp, 144				; 00000090H
	push	ebx
	push	esi
	push	edi

; 1284 : 	static float lasttime, oldz = 0;
; 1285 : 
; 1286 : 	// get viewentity and monster eyeposition
; 1287 : 	cl_entity_t *view = GET_ENTITY( pparams->viewentity );

	mov	eax, DWORD PTR _pparams$[ebp]
	mov	ecx, DWORD PTR [eax+176]
	push	ecx
	call	DWORD PTR ?gEngfuncs@@3Ucl_enginefuncs_s@@A+212
	add	esp, 4
	mov	DWORD PTR _view$[ebp], eax

; 1288 : 
; 1289 :  	if( view )

	cmp	DWORD PTR _view$[ebp], 0
	je	$LN2@V_CalcCame

; 1290 : 	{		 
; 1291 : 		int vstate = atoi( gEngfuncs.PhysInfo_ValueForKey( "incar" ));

	push	OFFSET ??_C@_05DKELCLGM@incar?$AA@
	call	DWORD PTR ?gEngfuncs@@3Ucl_enginefuncs_s@@A+176
	add	esp, 4
	push	eax
	call	_atoi
	add	esp, 4
	mov	DWORD PTR _vstate$8[ebp], eax

; 1292 : 
; 1293 : 		pparams->vieworg = view->origin;

	mov	eax, DWORD PTR _view$[ebp]
	add	eax, 2888				; 00000b48H
	mov	ecx, DWORD PTR _pparams$[ebp]
	mov	edx, DWORD PTR [eax]
	mov	DWORD PTR [ecx], edx
	mov	edx, DWORD PTR [eax+4]
	mov	DWORD PTR [ecx+4], edx
	mov	eax, DWORD PTR [eax+8]
	mov	DWORD PTR [ecx+8], eax

; 1294 : 		pparams->viewangles = view->angles;

	mov	eax, DWORD PTR _view$[ebp]
	add	eax, 2900				; 00000b54H
	mov	ecx, DWORD PTR _pparams$[ebp]
	add	ecx, 12					; 0000000cH
	mov	edx, DWORD PTR [eax]
	mov	DWORD PTR [ecx], edx
	mov	edx, DWORD PTR [eax+4]
	mov	DWORD PTR [ecx+4], edx
	mov	eax, DWORD PTR [eax+8]
	mov	DWORD PTR [ecx+8], eax

; 1295 : 
; 1296 : 		studiohdr_t *viewmonster = (studiohdr_t *)IEngineStudio.Mod_Extradata( view->model );

	mov	eax, DWORD PTR _view$[ebp]
	mov	ecx, DWORD PTR [eax+2964]
	push	ecx
	call	DWORD PTR ?IEngineStudio@@3Uengine_studio_api_s@@A+16
	add	esp, 4
	mov	DWORD PTR _viewmonster$7[ebp], eax

; 1297 : 
; 1298 : 		if( viewmonster && view->curstate.eflags & EFLAG_SLERP )

	cmp	DWORD PTR _viewmonster$7[ebp], 0
	je	$LN3@V_CalcCame
	mov	eax, DWORD PTR _view$[ebp]
	movzx	ecx, BYTE PTR [eax+756]
	and	ecx, 1
	je	$LN3@V_CalcCame

; 1299 : 		{
; 1300 : 			Vector forward;

	lea	ecx, DWORD PTR _forward$6[ebp]
	call	??0Vector@@QAE@XZ			; Vector::Vector

; 1301 : 			AngleVectors( pparams->viewangles, forward, NULL, NULL );

	push	0
	push	0
	lea	ecx, DWORD PTR _forward$6[ebp]
	call	??BVector@@QAEPAMXZ			; Vector::operator float *
	push	eax
	mov	ecx, DWORD PTR _pparams$[ebp]
	add	ecx, 12					; 0000000cH
	call	??BVector@@QAEPAMXZ			; Vector::operator float *
	push	eax
	call	DWORD PTR ?gEngfuncs@@3Ucl_enginefuncs_s@@A+96
	add	esp, 16					; 00000010H

; 1302 : 
; 1303 : 			Vector viewpos = viewmonster->eyeposition;

	mov	eax, DWORD PTR _viewmonster$7[ebp]
	add	eax, 76					; 0000004cH
	push	eax
	lea	ecx, DWORD PTR _viewpos$5[ebp]
	call	??0Vector@@QAE@ABV0@@Z			; Vector::Vector

; 1304 : 
; 1305 : 			if( viewpos == g_vecZero )

	push	OFFSET ?g_vecZero@@3VVector@@B		; g_vecZero
	lea	ecx, DWORD PTR _viewpos$5[ebp]
	call	??8Vector@@QBEHABV0@@Z			; Vector::operator==
	test	eax, eax
	je	SHORT $LN4@V_CalcCame

; 1306 : 				viewpos = Vector( 0, 0, 8 );	// monster_cockroach

	push	ecx
	movss	xmm0, DWORD PTR __real@41000000
	movss	DWORD PTR [esp], xmm0
	push	ecx
	xorps	xmm0, xmm0
	movss	DWORD PTR [esp], xmm0
	push	ecx
	xorps	xmm0, xmm0
	movss	DWORD PTR [esp], xmm0
	lea	ecx, DWORD PTR $T3[ebp]
	call	??0Vector@@QAE@MMM@Z			; Vector::Vector
	mov	ecx, DWORD PTR [eax]
	mov	DWORD PTR _viewpos$5[ebp], ecx
	mov	edx, DWORD PTR [eax+4]
	mov	DWORD PTR _viewpos$5[ebp+4], edx
	mov	eax, DWORD PTR [eax+8]
	mov	DWORD PTR _viewpos$5[ebp+8], eax
$LN4@V_CalcCame:

; 1307 : 
; 1308 : 			pparams->vieworg += viewpos + forward * 8;	// best value for humans

	push	ecx
	movss	xmm0, DWORD PTR __real@41000000
	movss	DWORD PTR [esp], xmm0
	lea	eax, DWORD PTR $T2[ebp]
	push	eax
	lea	ecx, DWORD PTR _forward$6[ebp]
	call	??DVector@@QBE?AV0@M@Z			; Vector::operator*
	push	eax
	lea	ecx, DWORD PTR $T1[ebp]
	push	ecx
	lea	ecx, DWORD PTR _viewpos$5[ebp]
	call	??HVector@@QBE?AV0@ABV0@@Z		; Vector::operator+
	push	eax
	mov	ecx, DWORD PTR _pparams$[ebp]
	call	??YVector@@QAEAAV0@ABV0@@Z		; Vector::operator+=
$LN3@V_CalcCame:

; 1309 : 			// NOTE: fov computation moved into r_main.cpp
; 1310 : 		}
; 1311 : 
; 1312 : 		// this is smooth stair climbing in thirdperson mode but not affected for client model :(
; 1313 : 		if( !pparams->smoothing && pparams->onground && view->origin[2] - oldz > 0.0f && viewmonster != NULL )

	mov	eax, DWORD PTR _pparams$[ebp]
	cmp	DWORD PTR [eax+196], 0
	jne	$LN5@V_CalcCame
	mov	eax, DWORD PTR _pparams$[ebp]
	cmp	DWORD PTR [eax+80], 0
	je	$LN5@V_CalcCame
	mov	ecx, DWORD PTR _view$[ebp]
	add	ecx, 2888				; 00000b48H
	call	??BVector@@QAEPAMXZ			; Vector::operator float *
	mov	ecx, 4
	shl	ecx, 1
	movss	xmm0, DWORD PTR [eax+ecx]
	subss	xmm0, DWORD PTR ?oldz@?1??V_CalcCameraRefdef@@YAXPAUref_params_s@@@Z@4MA
	comiss	xmm0, DWORD PTR __real@00000000
	jbe	$LN5@V_CalcCame
	cmp	DWORD PTR _viewmonster$7[ebp], 0
	je	$LN5@V_CalcCame

; 1314 : 		{
; 1315 : 			float steptime;
; 1316 : 		
; 1317 : 			steptime = pparams->time - lasttime;

	mov	eax, DWORD PTR _pparams$[ebp]
	movss	xmm0, DWORD PTR [eax+64]
	subss	xmm0, DWORD PTR ?lasttime@?1??V_CalcCameraRefdef@@YAXPAUref_params_s@@@Z@4MA
	movss	DWORD PTR _steptime$4[ebp], xmm0

; 1318 : 			if( steptime < 0 ) steptime = 0;

	xorps	xmm0, xmm0
	comiss	xmm0, DWORD PTR _steptime$4[ebp]
	jbe	SHORT $LN7@V_CalcCame
	xorps	xmm0, xmm0
	movss	DWORD PTR _steptime$4[ebp], xmm0
$LN7@V_CalcCame:

; 1319 : 
; 1320 : 			oldz += steptime * 150.0f;

	movss	xmm0, DWORD PTR _steptime$4[ebp]
	mulss	xmm0, DWORD PTR __real@43160000
	addss	xmm0, DWORD PTR ?oldz@?1??V_CalcCameraRefdef@@YAXPAUref_params_s@@@Z@4MA
	movss	DWORD PTR ?oldz@?1??V_CalcCameraRefdef@@YAXPAUref_params_s@@@Z@4MA, xmm0

; 1321 : 
; 1322 : 			if( oldz > view->origin[2] )

	mov	ecx, DWORD PTR _view$[ebp]
	add	ecx, 2888				; 00000b48H
	call	??BVector@@QAEPAMXZ			; Vector::operator float *
	mov	ecx, 4
	shl	ecx, 1
	movss	xmm0, DWORD PTR ?oldz@?1??V_CalcCameraRefdef@@YAXPAUref_params_s@@@Z@4MA
	comiss	xmm0, DWORD PTR [eax+ecx]
	jbe	SHORT $LN8@V_CalcCame

; 1323 : 				oldz = view->origin[2];

	mov	ecx, DWORD PTR _view$[ebp]
	add	ecx, 2888				; 00000b48H
	call	??BVector@@QAEPAMXZ			; Vector::operator float *
	mov	ecx, 4
	shl	ecx, 1
	movss	xmm0, DWORD PTR [eax+ecx]
	movss	DWORD PTR ?oldz@?1??V_CalcCameraRefdef@@YAXPAUref_params_s@@@Z@4MA, xmm0
$LN8@V_CalcCame:

; 1324 : 			if( view->origin[2] - oldz > pparams->movevars->stepsize )

	mov	ecx, DWORD PTR _view$[ebp]
	add	ecx, 2888				; 00000b48H
	call	??BVector@@QAEPAMXZ			; Vector::operator float *
	mov	ecx, 4
	shl	ecx, 1
	movss	xmm0, DWORD PTR [eax+ecx]
	subss	xmm0, DWORD PTR ?oldz@?1??V_CalcCameraRefdef@@YAXPAUref_params_s@@@Z@4MA
	mov	edx, DWORD PTR _pparams$[ebp]
	mov	eax, DWORD PTR [edx+204]
	comiss	xmm0, DWORD PTR [eax+48]
	jbe	SHORT $LN9@V_CalcCame

; 1325 : 				oldz = view->origin[2] - pparams->movevars->stepsize;

	mov	ecx, DWORD PTR _view$[ebp]
	add	ecx, 2888				; 00000b48H
	call	??BVector@@QAEPAMXZ			; Vector::operator float *
	mov	ecx, 4
	shl	ecx, 1
	mov	edx, DWORD PTR _pparams$[ebp]
	mov	edx, DWORD PTR [edx+204]
	movss	xmm0, DWORD PTR [eax+ecx]
	subss	xmm0, DWORD PTR [edx+48]
	movss	DWORD PTR ?oldz@?1??V_CalcCameraRefdef@@YAXPAUref_params_s@@@Z@4MA, xmm0
$LN9@V_CalcCame:

; 1326 : 
; 1327 : 			pparams->vieworg[2] += oldz - view->origin[2];

	mov	ecx, DWORD PTR _pparams$[ebp]
	call	??BVector@@QAEPAMXZ			; Vector::operator float *
	mov	ecx, 4
	shl	ecx, 1
	add	eax, ecx
	mov	DWORD PTR tv209[ebp], eax
	mov	ecx, DWORD PTR _view$[ebp]
	add	ecx, 2888				; 00000b48H
	call	??BVector@@QAEPAMXZ			; Vector::operator float *
	mov	edx, 4
	shl	edx, 1
	movss	xmm0, DWORD PTR ?oldz@?1??V_CalcCameraRefdef@@YAXPAUref_params_s@@@Z@4MA
	subss	xmm0, DWORD PTR [eax+edx]
	mov	eax, DWORD PTR tv209[ebp]
	addss	xmm0, DWORD PTR [eax]
	mov	ecx, DWORD PTR tv209[ebp]
	movss	DWORD PTR [ecx], xmm0

; 1328 : 		}
; 1329 : 		else

	jmp	SHORT $LN6@V_CalcCame
$LN5@V_CalcCame:

; 1330 : 		{
; 1331 : 			oldz = view->origin[2];

	mov	ecx, DWORD PTR _view$[ebp]
	add	ecx, 2888				; 00000b48H
	call	??BVector@@QAEPAMXZ			; Vector::operator float *
	mov	ecx, 4
	shl	ecx, 1
	movss	xmm0, DWORD PTR [eax+ecx]
	movss	DWORD PTR ?oldz@?1??V_CalcCameraRefdef@@YAXPAUref_params_s@@@Z@4MA, xmm0
$LN6@V_CalcCame:

; 1332 : 		}
; 1333 : 
; 1334 : 		lasttime = pparams->time;                 	

	mov	eax, DWORD PTR _pparams$[ebp]
	movss	xmm0, DWORD PTR [eax+64]
	movss	DWORD PTR ?lasttime@?1??V_CalcCameraRefdef@@YAXPAUref_params_s@@@Z@4MA, xmm0

; 1335 : 
; 1336 : 		if( view->curstate.effects & EF_NUKE_ROCKET )

	mov	eax, DWORD PTR _view$[ebp]
	mov	ecx, DWORD PTR [eax+748]
	and	ecx, 4096				; 00001000H
	je	SHORT $LN10@V_CalcCame

; 1337 : 			pparams->viewangles.x = -pparams->viewangles.x; // stupid quake bug!

	mov	eax, DWORD PTR _pparams$[ebp]
	movss	xmm0, DWORD PTR [eax+12]
	xorps	xmm0, DWORD PTR __xmm@80000000800000008000000080000000
	mov	ecx, DWORD PTR _pparams$[ebp]
	movss	DWORD PTR [ecx+12], xmm0
$LN10@V_CalcCame:

; 1338 : 
; 1339 : 		// g-cont. apply shake to camera
; 1340 : 	//	gEngfuncs.V_CalcShake();
; 1341 : 	//	gEngfuncs.V_ApplyShake( pparams->vieworg, pparams->viewangles, 1.0f );
; 1342 : 		CalcShake();

	call	?CalcShake@@YAXXZ			; CalcShake

; 1343 : 		ApplyShake( pparams->vieworg, pparams->viewangles, 1.0f );

	push	ecx
	movss	xmm0, DWORD PTR __real@3f800000
	movss	DWORD PTR [esp], xmm0
	mov	ecx, DWORD PTR _pparams$[ebp]
	add	ecx, 12					; 0000000cH
	call	??BVector@@QAEPAMXZ			; Vector::operator float *
	push	eax
	mov	ecx, DWORD PTR _pparams$[ebp]
	call	??BVector@@QAEPAMXZ			; Vector::operator float *
	push	eax
	call	?ApplyShake@@YAXPAM0M@Z			; ApplyShake
	add	esp, 12					; 0000000cH
$LN2@V_CalcCame:

; 1344 : 	}
; 1345 : }

	pop	edi
	pop	esi
	pop	ebx
	mov	esp, ebp
	pop	ebp
	ret	0
?V_CalcCameraRefdef@@YAXPAUref_params_s@@@Z ENDP	; V_CalcCameraRefdef
_TEXT	ENDS
; Function compile flags: /Odtp /ZI
; File d:\!diffusion 2020\source code 2022\client-server\game_shared\mathlib.h
;	COMDAT ??$Lerp@M@@YAMMABM0@Z
_TEXT	SEGMENT
tv73 = -68						; size = 4
_flPercent$ = 8						; size = 4
_A$ = 12						; size = 4
_B$ = 16						; size = 4
??$Lerp@M@@YAMMABM0@Z PROC				; Lerp<float>, COMDAT

; 137  : {

	push	ebp
	mov	ebp, esp
	sub	esp, 68					; 00000044H
	push	ebx
	push	esi
	push	edi

; 138  : 	return A + (B - A) * flPercent;

	mov	eax, DWORD PTR _B$[ebp]
	mov	ecx, DWORD PTR _A$[ebp]
	movss	xmm0, DWORD PTR [eax]
	subss	xmm0, DWORD PTR [ecx]
	mulss	xmm0, DWORD PTR _flPercent$[ebp]
	mov	edx, DWORD PTR _A$[ebp]
	addss	xmm0, DWORD PTR [edx]
	movss	DWORD PTR tv73[ebp], xmm0
	fld	DWORD PTR tv73[ebp]

; 139  : }

	pop	edi
	pop	esi
	pop	ebx
	mov	esp, ebp
	pop	ebp
	ret	0
??$Lerp@M@@YAMMABM0@Z ENDP				; Lerp<float>
_TEXT	ENDS
; Function compile flags: /Odtp /ZI
; File d:\!diffusion 2020\source code 2022\client-server\client\render\view.cpp
;	COMDAT ?ApplyViewLocking@@YAMPAUref_params_s@@MMAAUViewLockData_t@@W4RemapAngleRange_CurvePart_t@@@Z
_TEXT	SEGMENT
_flBlend$1 = -8						; size = 4
_flAngleOut$ = -4					; size = 4
_params$ = 8						; size = 4
_flAngleRaw$ = 12					; size = 4
_flAngleClamped$ = 16					; size = 4
_lockData$ = 20						; size = 4
_eCurvePart$ = 24					; size = 4
?ApplyViewLocking@@YAMPAUref_params_s@@MMAAUViewLockData_t@@W4RemapAngleRange_CurvePart_t@@@Z PROC ; ApplyViewLocking, COMDAT

; 1223 : {

	push	ebp
	mov	ebp, esp
	sub	esp, 72					; 00000048H
	push	ebx
	push	esi
	push	edi

; 1224 : 	// If we're set up to never lock this degree of freedom, return the clamped value.
; 1225 : 	if( lockData.flLockInterval == 0 )

	mov	eax, DWORD PTR _lockData$[ebp]
	movss	xmm0, DWORD PTR [eax]
	ucomiss	xmm0, DWORD PTR __real@00000000
	lahf
	test	ah, 68					; 00000044H
	jp	SHORT $LN2@ApplyViewL

; 1226 : 		return flAngleClamped;

	fld	DWORD PTR _flAngleClamped$[ebp]
	jmp	$LN1@ApplyViewL
$LN2@ApplyViewL:

; 1227 : 
; 1228 : 	float flAngleOut = flAngleClamped;

	movss	xmm0, DWORD PTR _flAngleClamped$[ebp]
	movss	DWORD PTR _flAngleOut$[ebp], xmm0

; 1229 : 
; 1230 : 	// Lock the view if we're in the linear part of the curve, and keep it locked
; 1231 : 	// until some duration after we return to the flat (zero) part of the curve.
; 1232 : 	if(( eCurvePart == RemapAngleRange_CurvePart_Linear ) || ( lockData.bLocked && ( eCurvePart == RemapAngleRange_CurvePart_Spline )))

	cmp	DWORD PTR _eCurvePart$[ebp], 2
	je	SHORT $LN5@ApplyViewL
	mov	eax, DWORD PTR _lockData$[ebp]
	movzx	ecx, BYTE PTR [eax+4]
	test	ecx, ecx
	je	SHORT $LN3@ApplyViewL
	cmp	DWORD PTR _eCurvePart$[ebp], 1
	jne	SHORT $LN3@ApplyViewL
$LN5@ApplyViewL:

; 1233 : 	{
; 1234 : 		lockData.bLocked = true;

	mov	eax, DWORD PTR _lockData$[ebp]
	mov	BYTE PTR [eax+4], 1

; 1235 : 		lockData.flUnlockTime = params->time + lockData.flLockInterval;

	mov	eax, DWORD PTR _params$[ebp]
	mov	ecx, DWORD PTR _lockData$[ebp]
	movss	xmm0, DWORD PTR [eax+64]
	addss	xmm0, DWORD PTR [ecx]
	mov	edx, DWORD PTR _lockData$[ebp]
	movss	DWORD PTR [edx+8], xmm0

; 1236 : 		flAngleOut = flAngleRaw;

	movss	xmm0, DWORD PTR _flAngleRaw$[ebp]
	movss	DWORD PTR _flAngleOut$[ebp], xmm0

; 1237 : 	}
; 1238 : 	else

	jmp	$LN10@ApplyViewL
$LN3@ApplyViewL:

; 1239 : 	{
; 1240 : 		if(( lockData.bLocked ) && ( params->time > lockData.flUnlockTime ))

	mov	eax, DWORD PTR _lockData$[ebp]
	movzx	ecx, BYTE PTR [eax+4]
	test	ecx, ecx
	je	SHORT $LN8@ApplyViewL
	mov	eax, DWORD PTR _params$[ebp]
	mov	ecx, DWORD PTR _lockData$[ebp]
	movss	xmm0, DWORD PTR [eax+64]
	comiss	xmm0, DWORD PTR [ecx+8]
	jbe	SHORT $LN8@ApplyViewL

; 1241 : 		{
; 1242 : 			lockData.bLocked = false;

	mov	eax, DWORD PTR _lockData$[ebp]
	mov	BYTE PTR [eax+4], 0

; 1243 : 			if ( lockData.flUnlockBlendInterval > 0 )

	mov	eax, DWORD PTR _lockData$[ebp]
	movss	xmm0, DWORD PTR [eax+12]
	comiss	xmm0, DWORD PTR __real@00000000
	jbe	SHORT $LN7@ApplyViewL

; 1244 : 				lockData.flUnlockTime = params->time;

	mov	eax, DWORD PTR _lockData$[ebp]
	mov	ecx, DWORD PTR _params$[ebp]
	mov	edx, DWORD PTR [ecx+64]
	mov	DWORD PTR [eax+8], edx

; 1245 : 			else

	jmp	SHORT $LN8@ApplyViewL
$LN7@ApplyViewL:

; 1246 : 				lockData.flUnlockTime = 0;

	mov	eax, DWORD PTR _lockData$[ebp]
	xorps	xmm0, xmm0
	movss	DWORD PTR [eax+8], xmm0
$LN8@ApplyViewL:

; 1247 : 		}
; 1248 : 
; 1249 : 		if ( !lockData.bLocked )

	mov	eax, DWORD PTR _lockData$[ebp]
	movzx	ecx, BYTE PTR [eax+4]
	test	ecx, ecx
	jne	$LN9@ApplyViewL

; 1250 : 		{
; 1251 : 			if( lockData.flUnlockTime != 0 )

	mov	eax, DWORD PTR _lockData$[ebp]
	movss	xmm0, DWORD PTR [eax+8]
	ucomiss	xmm0, DWORD PTR __real@00000000
	lahf
	test	ah, 68					; 00000044H
	jnp	$LN11@ApplyViewL

; 1252 : 			{
; 1253 : 				// Blend out from the locked raw view (no remapping) to a remapped view.
; 1254 : 				float flBlend = RemapValClamped( params->time-lockData.flUnlockTime, 0, lockData.flUnlockBlendInterval, 0, 1 );

	push	ecx
	movss	xmm0, DWORD PTR __real@3f800000
	movss	DWORD PTR [esp], xmm0
	push	ecx
	xorps	xmm0, xmm0
	movss	DWORD PTR [esp], xmm0
	mov	eax, DWORD PTR _lockData$[ebp]
	push	ecx
	movss	xmm0, DWORD PTR [eax+12]
	movss	DWORD PTR [esp], xmm0
	push	ecx
	xorps	xmm0, xmm0
	movss	DWORD PTR [esp], xmm0
	mov	ecx, DWORD PTR _params$[ebp]
	mov	edx, DWORD PTR _lockData$[ebp]
	movss	xmm0, DWORD PTR [ecx+64]
	subss	xmm0, DWORD PTR [edx+8]
	push	ecx
	movss	DWORD PTR [esp], xmm0
	call	?RemapValClamped@@YAMMMMMM@Z		; RemapValClamped
	add	esp, 20					; 00000014H
	fstp	DWORD PTR _flBlend$1[ebp]

; 1255 : 				Msg( "BLEND %f\n", flBlend );

	cvtss2sd xmm0, DWORD PTR _flBlend$1[ebp]
	sub	esp, 8
	movsd	QWORD PTR [esp], xmm0
	push	OFFSET ??_C@_09LPIEBFMA@BLEND?5?$CFf?6?$AA@
	call	DWORD PTR ?gEngfuncs@@3Ucl_enginefuncs_s@@A+160
	add	esp, 12					; 0000000cH

; 1256 : 
; 1257 : 				flAngleOut = Lerp( flBlend, flAngleRaw, flAngleClamped );

	lea	eax, DWORD PTR _flAngleClamped$[ebp]
	push	eax
	lea	ecx, DWORD PTR _flAngleRaw$[ebp]
	push	ecx
	push	ecx
	movss	xmm0, DWORD PTR _flBlend$1[ebp]
	movss	DWORD PTR [esp], xmm0
	call	??$Lerp@M@@YAMMABM0@Z			; Lerp<float>
	add	esp, 12					; 0000000cH
	fstp	DWORD PTR _flAngleOut$[ebp]

; 1258 : 
; 1259 : 				if( flBlend >= 1.0f )

	movss	xmm0, DWORD PTR _flBlend$1[ebp]
	comiss	xmm0, DWORD PTR __real@3f800000
	jb	SHORT $LN13@ApplyViewL

; 1260 : 					lockData.flUnlockTime = 0;

	mov	eax, DWORD PTR _lockData$[ebp]
	xorps	xmm0, xmm0
	movss	DWORD PTR [eax+8], xmm0
$LN13@ApplyViewL:

; 1261 : 			}
; 1262 : 			else

	jmp	SHORT $LN12@ApplyViewL
$LN11@ApplyViewL:

; 1263 : 			{
; 1264 : 				// Not blending out from a locked view to a remapped view.
; 1265 : 				Msg( "CLAMPED\n" );

	push	OFFSET ??_C@_08MIMEMOBM@CLAMPED?6?$AA@
	call	DWORD PTR ?gEngfuncs@@3Ucl_enginefuncs_s@@A+160
	add	esp, 4

; 1266 : 				flAngleOut = flAngleClamped;

	movss	xmm0, DWORD PTR _flAngleClamped$[ebp]
	movss	DWORD PTR _flAngleOut$[ebp], xmm0
$LN12@ApplyViewL:

; 1267 : 			}
; 1268 : 		}
; 1269 : 		else

	jmp	SHORT $LN10@ApplyViewL
$LN9@ApplyViewL:

; 1270 : 		{
; 1271 : 			Msg( "STILL LOCKED\n" );

	push	OFFSET ??_C@_0O@IANKPAGM@STILL?5LOCKED?6?$AA@
	call	DWORD PTR ?gEngfuncs@@3Ucl_enginefuncs_s@@A+160
	add	esp, 4

; 1272 : 			flAngleOut = flAngleRaw;

	movss	xmm0, DWORD PTR _flAngleRaw$[ebp]
	movss	DWORD PTR _flAngleOut$[ebp], xmm0
$LN10@ApplyViewL:

; 1273 : 		}
; 1274 : 	}
; 1275 : 
; 1276 : 	return flAngleOut;

	fld	DWORD PTR _flAngleOut$[ebp]
$LN1@ApplyViewL:

; 1277 : }

	pop	edi
	pop	esi
	pop	ebx
	mov	esp, ebp
	pop	ebp
	ret	0
?ApplyViewLocking@@YAMPAUref_params_s@@MMAAUViewLockData_t@@W4RemapAngleRange_CurvePart_t@@@Z ENDP ; ApplyViewLocking
_TEXT	ENDS
; Function compile flags: /Odtp /ZI
; File d:\!diffusion 2020\source code 2022\client-server\client\render\view.cpp
;	COMDAT ?RemapAngleRange@@YAMMMMPAW4RemapAngleRange_CurvePart_t@@@Z
_TEXT	SEGMENT
tv133 = -76						; size = 4
_newAngle$1 = -8					; size = 4
_absAngle$ = -4						; size = 4
_startInterval$ = 8					; size = 4
_endInterval$ = 12					; size = 4
_value$ = 16						; size = 4
_peCurvePart$ = 20					; size = 4
?RemapAngleRange@@YAMMMMPAW4RemapAngleRange_CurvePart_t@@@Z PROC ; RemapAngleRange, COMDAT

; 1187 : {

	push	ebp
	mov	ebp, esp
	sub	esp, 76					; 0000004cH
	push	ebx
	push	esi
	push	edi

; 1188 : 	// Fixup the roll
; 1189 : 	value = AngleNormalize( value );

	push	ecx
	movss	xmm0, DWORD PTR _value$[ebp]
	movss	DWORD PTR [esp], xmm0
	call	?AngleNormalize@@YAMM@Z			; AngleNormalize
	add	esp, 4
	fstp	DWORD PTR _value$[ebp]

; 1190 : 	float absAngle = fabs(value);

	cvtss2sd xmm0, DWORD PTR _value$[ebp]
	sub	esp, 8
	movsd	QWORD PTR [esp], xmm0
	call	_fabs
	add	esp, 8
	fstp	DWORD PTR _absAngle$[ebp]

; 1191 : 
; 1192 : 	// beneath cutoff?
; 1193 : 	if( absAngle < startInterval )

	movss	xmm0, DWORD PTR _startInterval$[ebp]
	comiss	xmm0, DWORD PTR _absAngle$[ebp]
	jbe	SHORT $LN2@RemapAngle

; 1194 : 	{
; 1195 : 		if( peCurvePart )

	cmp	DWORD PTR _peCurvePart$[ebp], 0
	je	SHORT $LN4@RemapAngle

; 1196 : 		{
; 1197 : 			*peCurvePart = RemapAngleRange_CurvePart_Zero;

	mov	eax, DWORD PTR _peCurvePart$[ebp]
	mov	DWORD PTR [eax], 0
$LN4@RemapAngle:

; 1198 : 		}
; 1199 : 		value = 0;

	xorps	xmm0, xmm0
	movss	DWORD PTR _value$[ebp], xmm0
	jmp	$LN9@RemapAngle
$LN2@RemapAngle:

; 1200 : 	}
; 1201 : 	// in spline range?
; 1202 : 	else if( absAngle <= endInterval )

	movss	xmm0, DWORD PTR _endInterval$[ebp]
	comiss	xmm0, DWORD PTR _absAngle$[ebp]
	jb	SHORT $LN5@RemapAngle

; 1203 : 	{
; 1204 : 		float newAngle = SimpleSpline(( absAngle - startInterval ) / ( endInterval-startInterval )) * endInterval;

	movss	xmm0, DWORD PTR _absAngle$[ebp]
	subss	xmm0, DWORD PTR _startInterval$[ebp]
	movss	xmm1, DWORD PTR _endInterval$[ebp]
	subss	xmm1, DWORD PTR _startInterval$[ebp]
	divss	xmm0, xmm1
	push	ecx
	movss	DWORD PTR [esp], xmm0
	call	?SimpleSpline@@YAMM@Z			; SimpleSpline
	add	esp, 4
	fstp	DWORD PTR tv133[ebp]
	movss	xmm0, DWORD PTR tv133[ebp]
	mulss	xmm0, DWORD PTR _endInterval$[ebp]
	movss	DWORD PTR _newAngle$1[ebp], xmm0

; 1205 : 
; 1206 : 		// grab the sign from the initial value
; 1207 : 		if( value < 0 )

	xorps	xmm0, xmm0
	comiss	xmm0, DWORD PTR _value$[ebp]
	jbe	SHORT $LN7@RemapAngle

; 1208 : 			newAngle *= -1;

	movss	xmm0, DWORD PTR _newAngle$1[ebp]
	mulss	xmm0, DWORD PTR __real@bf800000
	movss	DWORD PTR _newAngle$1[ebp], xmm0
$LN7@RemapAngle:

; 1209 : 
; 1210 : 		if( peCurvePart )

	cmp	DWORD PTR _peCurvePart$[ebp], 0
	je	SHORT $LN8@RemapAngle

; 1211 : 			*peCurvePart = RemapAngleRange_CurvePart_Spline;

	mov	eax, DWORD PTR _peCurvePart$[ebp]
	mov	DWORD PTR [eax], 1
$LN8@RemapAngle:

; 1212 : 
; 1213 : 		value = newAngle;

	movss	xmm0, DWORD PTR _newAngle$1[ebp]
	movss	DWORD PTR _value$[ebp], xmm0
	jmp	SHORT $LN9@RemapAngle
$LN5@RemapAngle:

; 1214 : 	}
; 1215 : 	// else leave it alone, in linear range
; 1216 : 	else if( peCurvePart )

	cmp	DWORD PTR _peCurvePart$[ebp], 0
	je	SHORT $LN9@RemapAngle

; 1217 : 		*peCurvePart = RemapAngleRange_CurvePart_Linear;

	mov	eax, DWORD PTR _peCurvePart$[ebp]
	mov	DWORD PTR [eax], 2
$LN9@RemapAngle:

; 1218 : 
; 1219 : 	return value;

	fld	DWORD PTR _value$[ebp]

; 1220 : }

	pop	edi
	pop	esi
	pop	ebx
	mov	esp, ebp
	pop	ebp
	ret	0
?RemapAngleRange@@YAMMMMPAW4RemapAngleRange_CurvePart_t@@@Z ENDP ; RemapAngleRange
_TEXT	ENDS
; Function compile flags: /Odtp /ZI
; File d:\!diffusion 2020\source code 2022\client-server\client\render\view.cpp
;	COMDAT ?V_CalcSendOrigin@@YAXPAUref_params_s@@@Z
_TEXT	SEGMENT
tv83 = -68						; size = 4
tv76 = -68						; size = 4
tv69 = -68						; size = 4
_pparams$ = 8						; size = 4
?V_CalcSendOrigin@@YAXPAUref_params_s@@@Z PROC		; V_CalcSendOrigin, COMDAT

; 1172 : {

	push	ebp
	mov	ebp, esp
	sub	esp, 68					; 00000044H
	push	ebx
	push	esi
	push	edi

; 1173 : 	// never let view origin sit exactly on a node line, because a water plane can
; 1174 : 	// dissapear when viewed with the eye exactly on it.
; 1175 : 	// FIXME, we send origin at 1/128 now, change this?
; 1176 : 	// the server protocol only specifies to 1/16 pixel, so add 1/32 in each axis
; 1177 : 	pparams->vieworg[0] += 1.0f / 32;

	mov	ecx, DWORD PTR _pparams$[ebp]
	call	??BVector@@QAEPAMXZ			; Vector::operator float *
	mov	ecx, 4
	imul	edx, ecx, 0
	add	eax, edx
	mov	DWORD PTR tv69[ebp], eax
	mov	eax, DWORD PTR tv69[ebp]
	movss	xmm0, DWORD PTR [eax]
	addss	xmm0, DWORD PTR __real@3d000000
	mov	ecx, DWORD PTR tv69[ebp]
	movss	DWORD PTR [ecx], xmm0

; 1178 : 	pparams->vieworg[1] += 1.0f / 32;

	mov	ecx, DWORD PTR _pparams$[ebp]
	call	??BVector@@QAEPAMXZ			; Vector::operator float *
	mov	ecx, 4
	shl	ecx, 0
	add	eax, ecx
	mov	DWORD PTR tv76[ebp], eax
	mov	edx, DWORD PTR tv76[ebp]
	movss	xmm0, DWORD PTR [edx]
	addss	xmm0, DWORD PTR __real@3d000000
	mov	eax, DWORD PTR tv76[ebp]
	movss	DWORD PTR [eax], xmm0

; 1179 : 	pparams->vieworg[2] += 1.0f / 32;

	mov	ecx, DWORD PTR _pparams$[ebp]
	call	??BVector@@QAEPAMXZ			; Vector::operator float *
	mov	ecx, 4
	shl	ecx, 1
	add	eax, ecx
	mov	DWORD PTR tv83[ebp], eax
	mov	edx, DWORD PTR tv83[ebp]
	movss	xmm0, DWORD PTR [edx]
	addss	xmm0, DWORD PTR __real@3d000000
	mov	eax, DWORD PTR tv83[ebp]
	movss	DWORD PTR [eax], xmm0

; 1180 : }

	pop	edi
	pop	esi
	pop	ebx
	mov	esp, ebp
	pop	ebp
	ret	0
?V_CalcSendOrigin@@YAXPAUref_params_s@@@Z ENDP		; V_CalcSendOrigin
_TEXT	ENDS
; Function compile flags: /Odtp /ZI
; File d:\!diffusion 2020\source code 2022\client-server\client\render\view.cpp
;	COMDAT ?V_CalcViewRoll@@YAXPAUref_params_s@@@Z
_TEXT	SEGMENT
tv136 = -96						; size = 4
tv83 = -96						; size = 4
_viewentity$ = -28					; size = 4
_right$ = -24						; size = 12
_value$ = -12						; size = 4
_side$ = -8						; size = 4
_sign$ = -4						; size = 4
_pparams$ = 8						; size = 4
?V_CalcViewRoll@@YAXPAUref_params_s@@@Z PROC		; V_CalcViewRoll, COMDAT

; 1139 : {

	push	ebp
	mov	ebp, esp
	sub	esp, 96					; 00000060H
	push	ebx
	push	esi
	push	edi

; 1140 : 	float   sign, side, value;
; 1141 : 	Vector  right;

	lea	ecx, DWORD PTR _right$[ebp]
	call	??0Vector@@QAE@XZ			; Vector::Vector

; 1142 : 	
; 1143 : 	cl_entity_t *viewentity = GET_ENTITY( pparams->viewentity );

	mov	eax, DWORD PTR _pparams$[ebp]
	mov	ecx, DWORD PTR [eax+176]
	push	ecx
	call	DWORD PTR ?gEngfuncs@@3Ucl_enginefuncs_s@@A+212
	add	esp, 4
	mov	DWORD PTR _viewentity$[ebp], eax

; 1144 : 	if( !viewentity ) return;

	cmp	DWORD PTR _viewentity$[ebp], 0
	jne	SHORT $LN2@V_CalcView
	jmp	$LN1@V_CalcView
$LN2@V_CalcView:

; 1145 : 
; 1146 : 	AngleVectors( viewentity->angles, NULL, right, NULL );

	push	0
	lea	ecx, DWORD PTR _right$[ebp]
	call	??BVector@@QAEPAMXZ			; Vector::operator float *
	push	eax
	push	0
	mov	ecx, DWORD PTR _viewentity$[ebp]
	add	ecx, 2900				; 00000b54H
	call	??BVector@@QAEPAMXZ			; Vector::operator float *
	push	eax
	call	DWORD PTR ?gEngfuncs@@3Ucl_enginefuncs_s@@A+96
	add	esp, 16					; 00000010H

; 1147 : 	side = DotProduct( pparams->simvel, right );

	lea	eax, DWORD PTR _right$[ebp]
	push	eax
	mov	ecx, DWORD PTR _pparams$[ebp]
	add	ecx, 88					; 00000058H
	push	ecx
	call	?DotProduct@@YAMABVVector@@0@Z		; DotProduct
	add	esp, 8
	fstp	DWORD PTR _side$[ebp]

; 1148 : 	sign = side < 0 ? -1 : 1;

	xorps	xmm0, xmm0
	comiss	xmm0, DWORD PTR _side$[ebp]
	jbe	SHORT $LN7@V_CalcView
	mov	DWORD PTR tv83[ebp], -1
	jmp	SHORT $LN8@V_CalcView
$LN7@V_CalcView:
	mov	DWORD PTR tv83[ebp], 1
$LN8@V_CalcView:
	cvtsi2ss xmm0, DWORD PTR tv83[ebp]
	movss	DWORD PTR _sign$[ebp], xmm0

; 1149 : 	side = fabs( side );

	cvtss2sd xmm0, DWORD PTR _side$[ebp]
	sub	esp, 8
	movsd	QWORD PTR [esp], xmm0
	call	_fabs
	add	esp, 8
	fstp	DWORD PTR _side$[ebp]

; 1150 : 	value = pparams->movevars->rollangle;

	mov	eax, DWORD PTR _pparams$[ebp]
	mov	ecx, DWORD PTR [eax+204]
	movss	xmm0, DWORD PTR [ecx+100]
	movss	DWORD PTR _value$[ebp], xmm0

; 1151 : 
; 1152 : 	if( side < pparams->movevars->rollspeed )

	mov	eax, DWORD PTR _pparams$[ebp]
	mov	ecx, DWORD PTR [eax+204]
	movss	xmm0, DWORD PTR [ecx+104]
	comiss	xmm0, DWORD PTR _side$[ebp]
	jbe	SHORT $LN3@V_CalcView

; 1153 : 		side = side * value / pparams->movevars->rollspeed;

	movss	xmm0, DWORD PTR _side$[ebp]
	mulss	xmm0, DWORD PTR _value$[ebp]
	mov	eax, DWORD PTR _pparams$[ebp]
	mov	ecx, DWORD PTR [eax+204]
	divss	xmm0, DWORD PTR [ecx+104]
	movss	DWORD PTR _side$[ebp], xmm0
	jmp	SHORT $LN4@V_CalcView
$LN3@V_CalcView:

; 1154 : 	else side = value;

	movss	xmm0, DWORD PTR _value$[ebp]
	movss	DWORD PTR _side$[ebp], xmm0
$LN4@V_CalcView:

; 1155 : 
; 1156 : 	side = side * sign;		

	movss	xmm0, DWORD PTR _side$[ebp]
	mulss	xmm0, DWORD PTR _sign$[ebp]
	movss	DWORD PTR _side$[ebp], xmm0

; 1157 : 	pparams->viewangles[ROLL] += side;

	mov	ecx, DWORD PTR _pparams$[ebp]
	add	ecx, 12					; 0000000cH
	call	??BVector@@QAEPAMXZ			; Vector::operator float *
	mov	ecx, 4
	shl	ecx, 1
	add	eax, ecx
	mov	DWORD PTR tv136[ebp], eax
	mov	edx, DWORD PTR tv136[ebp]
	movss	xmm0, DWORD PTR [edx]
	addss	xmm0, DWORD PTR _side$[ebp]
	mov	eax, DWORD PTR tv136[ebp]
	movss	DWORD PTR [eax], xmm0

; 1158 : 
; 1159 : 	if( pparams->health <= 0 && ( pparams->viewheight[2] != 0 ))

	mov	eax, DWORD PTR _pparams$[ebp]
	cmp	DWORD PTR [eax+140], 0
	jg	SHORT $LN5@V_CalcView
	mov	ecx, DWORD PTR _pparams$[ebp]
	add	ecx, 112				; 00000070H
	call	??BVector@@QAEPAMXZ			; Vector::operator float *
	mov	ecx, 4
	shl	ecx, 1
	movss	xmm0, DWORD PTR [eax+ecx]
	ucomiss	xmm0, DWORD PTR __real@00000000
	lahf
	test	ah, 68					; 00000044H
	jnp	SHORT $LN5@V_CalcView

; 1160 : 	{
; 1161 : 		// only roll the view if the player is dead and the viewheight[2] is nonzero 
; 1162 : 		// this is so deadcam in multiplayer will work.
; 1163 : 		pparams->viewangles[ROLL] = 80; // dead view angle

	mov	ecx, DWORD PTR _pparams$[ebp]
	add	ecx, 12					; 0000000cH
	call	??BVector@@QAEPAMXZ			; Vector::operator float *
	mov	ecx, 4
	shl	ecx, 1
	movss	xmm0, DWORD PTR __real@42a00000
	movss	DWORD PTR [eax+ecx], xmm0
$LN5@V_CalcView:
$LN1@V_CalcView:

; 1164 : 		return;
; 1165 : 	}
; 1166 : }

	pop	edi
	pop	esi
	pop	ebx
	mov	esp, ebp
	pop	ebp
	ret	0
?V_CalcViewRoll@@YAXPAUref_params_s@@@Z ENDP		; V_CalcViewRoll
_TEXT	ENDS
; Function compile flags: /Odtp /ZI
; File d:\!diffusion 2020\source code 2022\client-server\client\render\view.cpp
;	COMDAT ?V_AddIdle@@YAXPAUref_params_s@@@Z
_TEXT	SEGMENT
tv185 = -84						; size = 8
tv173 = -84						; size = 8
tv161 = -84						; size = 8
tv193 = -76						; size = 8
tv191 = -76						; size = 8
tv189 = -76						; size = 8
tv146 = -68						; size = 4
tv128 = -68						; size = 4
tv78 = -68						; size = 4
_pparams$ = 8						; size = 4
?V_AddIdle@@YAXPAUref_params_s@@@Z PROC			; V_AddIdle, COMDAT

; 1129 : {

	push	ebp
	mov	ebp, esp
	sub	esp, 84					; 00000054H
	push	ebx
	push	esi
	push	edi

; 1130 : 	pparams->viewangles[ROLL] += v_idlescale * sin(pparams->time*v_iroll_cycle.value) * v_iroll_level.value;

	mov	ecx, DWORD PTR _pparams$[ebp]
	add	ecx, 12					; 0000000cH
	call	??BVector@@QAEPAMXZ			; Vector::operator float *
	mov	ecx, 4
	shl	ecx, 1
	add	eax, ecx
	mov	DWORD PTR tv78[ebp], eax
	cvtss2sd xmm0, DWORD PTR ?v_idlescale@@3MA
	mov	edx, DWORD PTR _pparams$[ebp]
	movss	xmm1, DWORD PTR [edx+64]
	mulss	xmm1, DWORD PTR ?v_iroll_cycle@@3Ucvar_s@@A+12
	cvtss2sd xmm1, xmm1
	sub	esp, 8
	movsd	QWORD PTR [esp], xmm1
	movsd	QWORD PTR tv189[ebp], xmm0
	call	_sin
	add	esp, 8
	fstp	QWORD PTR tv161[ebp]
	movsd	xmm0, QWORD PTR tv189[ebp]
	mulsd	xmm0, QWORD PTR tv161[ebp]
	cvtss2sd xmm1, DWORD PTR ?v_iroll_level@@3Ucvar_s@@A+12
	mulsd	xmm0, xmm1
	mov	eax, DWORD PTR tv78[ebp]
	cvtss2sd xmm1, DWORD PTR [eax]
	addsd	xmm1, xmm0
	cvtsd2ss xmm0, xmm1
	mov	ecx, DWORD PTR tv78[ebp]
	movss	DWORD PTR [ecx], xmm0

; 1131 : 	pparams->viewangles[PITCH] += v_idlescale * sin(pparams->time*v_ipitch_cycle.value) * v_ipitch_level.value;

	mov	ecx, DWORD PTR _pparams$[ebp]
	add	ecx, 12					; 0000000cH
	call	??BVector@@QAEPAMXZ			; Vector::operator float *
	mov	ecx, 4
	imul	edx, ecx, 0
	add	eax, edx
	mov	DWORD PTR tv128[ebp], eax
	cvtss2sd xmm0, DWORD PTR ?v_idlescale@@3MA
	mov	eax, DWORD PTR _pparams$[ebp]
	movss	xmm1, DWORD PTR [eax+64]
	mulss	xmm1, DWORD PTR ?v_ipitch_cycle@@3Ucvar_s@@A+12
	cvtss2sd xmm1, xmm1
	sub	esp, 8
	movsd	QWORD PTR [esp], xmm1
	movsd	QWORD PTR tv191[ebp], xmm0
	call	_sin
	add	esp, 8
	fstp	QWORD PTR tv173[ebp]
	movsd	xmm0, QWORD PTR tv191[ebp]
	mulsd	xmm0, QWORD PTR tv173[ebp]
	cvtss2sd xmm1, DWORD PTR ?v_ipitch_level@@3Ucvar_s@@A+12
	mulsd	xmm0, xmm1
	mov	ecx, DWORD PTR tv128[ebp]
	cvtss2sd xmm1, DWORD PTR [ecx]
	addsd	xmm1, xmm0
	cvtsd2ss xmm0, xmm1
	mov	edx, DWORD PTR tv128[ebp]
	movss	DWORD PTR [edx], xmm0

; 1132 : 	pparams->viewangles[YAW] += v_idlescale * sin(pparams->time*v_iyaw_cycle.value) * v_iyaw_level.value;

	mov	ecx, DWORD PTR _pparams$[ebp]
	add	ecx, 12					; 0000000cH
	call	??BVector@@QAEPAMXZ			; Vector::operator float *
	mov	ecx, 4
	shl	ecx, 0
	add	eax, ecx
	mov	DWORD PTR tv146[ebp], eax
	cvtss2sd xmm0, DWORD PTR ?v_idlescale@@3MA
	mov	edx, DWORD PTR _pparams$[ebp]
	movss	xmm1, DWORD PTR [edx+64]
	mulss	xmm1, DWORD PTR ?v_iyaw_cycle@@3Ucvar_s@@A+12
	cvtss2sd xmm1, xmm1
	sub	esp, 8
	movsd	QWORD PTR [esp], xmm1
	movsd	QWORD PTR tv193[ebp], xmm0
	call	_sin
	add	esp, 8
	fstp	QWORD PTR tv185[ebp]
	movsd	xmm0, QWORD PTR tv193[ebp]
	mulsd	xmm0, QWORD PTR tv185[ebp]
	cvtss2sd xmm1, DWORD PTR ?v_iyaw_level@@3Ucvar_s@@A+12
	mulsd	xmm0, xmm1
	mov	eax, DWORD PTR tv146[ebp]
	cvtss2sd xmm1, DWORD PTR [eax]
	addsd	xmm1, xmm0
	cvtsd2ss xmm0, xmm1
	mov	ecx, DWORD PTR tv146[ebp]
	movss	DWORD PTR [ecx], xmm0

; 1133 : }

	pop	edi
	pop	esi
	pop	ebx
	mov	esp, ebp
	pop	ebp
	ret	0
?V_AddIdle@@YAXPAUref_params_s@@@Z ENDP			; V_AddIdle
_TEXT	ENDS
; Function compile flags: /Odtp /ZI
; File d:\!diffusion 2020\source code 2022\client-server\client\render\view.cpp
;	COMDAT ?V_CalcViewModelLag@@YAXPAUref_params_s@@AAVVector@@1ABV2@@Z
_TEXT	SEGMENT
tv653 = -476						; size = 8
tv642 = -476						; size = 8
tv632 = -476						; size = 8
tv357 = -468						; size = 4
tv343 = -468						; size = 4
tv330 = -468						; size = 4
$T2 = -464						; size = 12
$T3 = -452						; size = 12
$T4 = -440						; size = 12
$T5 = -428						; size = 12
$T6 = -416						; size = 12
$T7 = -404						; size = 12
$T8 = -392						; size = 12
$T9 = -380						; size = 12
$T10 = -368						; size = 12
$T11 = -356						; size = 12
$T12 = -344						; size = 12
$T13 = -332						; size = 12
$T14 = -320						; size = 12
$T15 = -308						; size = 12
$T16 = -296						; size = 12
$T17 = -284						; size = 12
$T18 = -272						; size = 12
$T19 = -260						; size = 12
$T20 = -248						; size = 12
$T21 = -236						; size = 12
$T22 = -224						; size = 12
$T23 = -212						; size = 12
$T24 = -200						; size = 12
$T25 = -188						; size = 12
$T26 = -176						; size = 12
_pitch$ = -100						; size = 4
_flScale$27 = -96					; size = 4
_flDiff$28 = -92					; size = 4
_flSpeed$29 = -88					; size = 4
_vDifference$30 = -84					; size = 12
_up$ = -72						; size = 12
_right$ = -60						; size = 12
_forward$ = -48						; size = 12
_vOriginalAngles$ = -36					; size = 12
_vOriginalOrigin$ = -24					; size = 12
__$EHRec$ = -12						; size = 12
_pparams$ = 8						; size = 4
_origin$ = 12						; size = 4
_angles$ = 16						; size = 4
_original_angles$ = 20					; size = 4
?V_CalcViewModelLag@@YAXPAUref_params_s@@AAVVector@@1ABV2@@Z PROC ; V_CalcViewModelLag, COMDAT

; 1029 : {

	push	ebp
	mov	ebp, esp
	push	-1
	push	__ehhandler$?V_CalcViewModelLag@@YAXPAUref_params_s@@AAVVector@@1ABV2@@Z
	mov	eax, DWORD PTR fs:0
	push	eax
	sub	esp, 464				; 000001d0H
	push	ebx
	push	esi
	push	edi
	mov	eax, DWORD PTR ___security_cookie
	xor	eax, ebp
	push	eax
	lea	eax, DWORD PTR __$EHRec$[ebp]
	mov	DWORD PTR fs:0, eax

; 1030 : 	static Vector m_vecLastFacing;

	mov	eax, DWORD PTR __tls_index
	mov	ecx, DWORD PTR fs:__tls_array
	mov	edx, DWORD PTR [ecx+eax*4]
	mov	eax, DWORD PTR ?$TSS0@?1??V_CalcViewModelLag@@YAXPAUref_params_s@@AAVVector@@1ABV3@@Z@4HA
	cmp	eax, DWORD PTR __Init_thread_epoch[edx]
	jle	SHORT $LN2@V_CalcView
	push	OFFSET ?$TSS0@?1??V_CalcViewModelLag@@YAXPAUref_params_s@@AAVVector@@1ABV3@@Z@4HA
	call	__Init_thread_header
	add	esp, 4
	cmp	DWORD PTR ?$TSS0@?1??V_CalcViewModelLag@@YAXPAUref_params_s@@AAVVector@@1ABV3@@Z@4HA, -1
	jne	SHORT $LN2@V_CalcView
	mov	DWORD PTR __$EHRec$[ebp+8], 0
	mov	ecx, OFFSET ?m_vecLastFacing@?1??V_CalcViewModelLag@@YAXPAUref_params_s@@AAVVector@@1ABV3@@Z@4V3@A
	call	??0Vector@@QAE@XZ			; Vector::Vector
	mov	DWORD PTR __$EHRec$[ebp+8], -1
	push	OFFSET ?$TSS0@?1??V_CalcViewModelLag@@YAXPAUref_params_s@@AAVVector@@1ABV3@@Z@4HA
	call	__Init_thread_footer
	add	esp, 4
$LN2@V_CalcView:

; 1031 : 	Vector vOriginalOrigin = origin;

	mov	eax, DWORD PTR _origin$[ebp]
	push	eax
	lea	ecx, DWORD PTR _vOriginalOrigin$[ebp]
	call	??0Vector@@QAE@ABV0@@Z			; Vector::Vector

; 1032 : 	Vector vOriginalAngles = angles;

	mov	eax, DWORD PTR _angles$[ebp]
	push	eax
	lea	ecx, DWORD PTR _vOriginalAngles$[ebp]
	call	??0Vector@@QAE@ABV0@@Z			; Vector::Vector

; 1033 : 
; 1034 : 	// Calculate our drift
; 1035 : 	Vector forward, right, up;

	lea	ecx, DWORD PTR _forward$[ebp]
	call	??0Vector@@QAE@XZ			; Vector::Vector
	lea	ecx, DWORD PTR _right$[ebp]
	call	??0Vector@@QAE@XZ			; Vector::Vector
	lea	ecx, DWORD PTR _up$[ebp]
	call	??0Vector@@QAE@XZ			; Vector::Vector

; 1036 : 
; 1037 : 	AngleVectors( angles, forward, right, up );

	lea	ecx, DWORD PTR _up$[ebp]
	call	??BVector@@QAEPAMXZ			; Vector::operator float *
	push	eax
	lea	ecx, DWORD PTR _right$[ebp]
	call	??BVector@@QAEPAMXZ			; Vector::operator float *
	push	eax
	lea	ecx, DWORD PTR _forward$[ebp]
	call	??BVector@@QAEPAMXZ			; Vector::operator float *
	push	eax
	mov	ecx, DWORD PTR _angles$[ebp]
	call	??BVector@@QAEPAMXZ			; Vector::operator float *
	push	eax
	call	DWORD PTR ?gEngfuncs@@3Ucl_enginefuncs_s@@A+96
	add	esp, 16					; 00000010H

; 1038 : 
; 1039 : 	if( pparams->frametime != 0.0f )	// not in paused

	mov	eax, DWORD PTR _pparams$[ebp]
	movss	xmm0, DWORD PTR [eax+60]
	ucomiss	xmm0, DWORD PTR __real@00000000
	lahf
	test	ah, 68					; 00000044H
	jnp	$LN3@V_CalcView

; 1040 : 	{
; 1041 : 		Vector vDifference;

	lea	ecx, DWORD PTR _vDifference$30[ebp]
	call	??0Vector@@QAE@XZ			; Vector::Vector

; 1042 : 
; 1043 : 		vDifference = forward - m_vecLastFacing;

	push	OFFSET ?m_vecLastFacing@?1??V_CalcViewModelLag@@YAXPAUref_params_s@@AAVVector@@1ABV3@@Z@4V3@A
	lea	eax, DWORD PTR $T26[ebp]
	push	eax
	lea	ecx, DWORD PTR _forward$[ebp]
	call	??GVector@@QBE?AV0@ABV0@@Z		; Vector::operator-
	mov	ecx, DWORD PTR [eax]
	mov	DWORD PTR _vDifference$30[ebp], ecx
	mov	edx, DWORD PTR [eax+4]
	mov	DWORD PTR _vDifference$30[ebp+4], edx
	mov	eax, DWORD PTR [eax+8]
	mov	DWORD PTR _vDifference$30[ebp+8], eax

; 1044 : 
; 1045 : 		float flSpeed = 3.0f;

	movss	xmm0, DWORD PTR __real@40400000
	movss	DWORD PTR _flSpeed$29[ebp], xmm0

; 1046 : 
; 1047 : 		// If we start to lag too far behind, we'll increase the "catch up" speed.
; 1048 : 		// Solves the problem with fast cl_yawspeed, m_yaw or joysticks rotating quickly.
; 1049 : 		// The old code would slam lastfacing with origin causing the viewmodel to pop to a new position
; 1050 : 		float flDiff = vDifference.Length();

	lea	ecx, DWORD PTR _vDifference$30[ebp]
	call	?Length@Vector@@QBEMXZ			; Vector::Length
	fstp	DWORD PTR _flDiff$28[ebp]

; 1051 : 
; 1052 : 		if(( flDiff > cl_weaponlag->value ) && ( cl_weaponlag->value > 0.0f ))

	mov	eax, DWORD PTR ?cl_weaponlag@@3PAUcvar_s@@A ; cl_weaponlag
	movss	xmm0, DWORD PTR _flDiff$28[ebp]
	comiss	xmm0, DWORD PTR [eax+12]
	jbe	SHORT $LN4@V_CalcView
	mov	eax, DWORD PTR ?cl_weaponlag@@3PAUcvar_s@@A ; cl_weaponlag
	movss	xmm0, DWORD PTR [eax+12]
	comiss	xmm0, DWORD PTR __real@00000000
	jbe	SHORT $LN4@V_CalcView

; 1053 : 		{
; 1054 : 			float flScale = flDiff / cl_weaponlag->value;

	mov	eax, DWORD PTR ?cl_weaponlag@@3PAUcvar_s@@A ; cl_weaponlag
	movss	xmm0, DWORD PTR _flDiff$28[ebp]
	divss	xmm0, DWORD PTR [eax+12]
	movss	DWORD PTR _flScale$27[ebp], xmm0

; 1055 : 			flSpeed *= flScale;

	movss	xmm0, DWORD PTR _flSpeed$29[ebp]
	mulss	xmm0, DWORD PTR _flScale$27[ebp]
	movss	DWORD PTR _flSpeed$29[ebp], xmm0
$LN4@V_CalcView:

; 1056 : 		}
; 1057 : 
; 1058 : 		// FIXME:  Needs to be predictable?
; 1059 : 		m_vecLastFacing = m_vecLastFacing + vDifference * ( flSpeed * pparams->frametime );

	mov	eax, DWORD PTR _pparams$[ebp]
	movss	xmm0, DWORD PTR _flSpeed$29[ebp]
	mulss	xmm0, DWORD PTR [eax+60]
	push	ecx
	movss	DWORD PTR [esp], xmm0
	lea	ecx, DWORD PTR $T25[ebp]
	push	ecx
	lea	ecx, DWORD PTR _vDifference$30[ebp]
	call	??DVector@@QBE?AV0@M@Z			; Vector::operator*
	push	eax
	lea	edx, DWORD PTR $T24[ebp]
	push	edx
	mov	ecx, OFFSET ?m_vecLastFacing@?1??V_CalcViewModelLag@@YAXPAUref_params_s@@AAVVector@@1ABV3@@Z@4V3@A
	call	??HVector@@QBE?AV0@ABV0@@Z		; Vector::operator+
	mov	ecx, DWORD PTR [eax]
	mov	DWORD PTR ?m_vecLastFacing@?1??V_CalcViewModelLag@@YAXPAUref_params_s@@AAVVector@@1ABV3@@Z@4V3@A, ecx
	mov	edx, DWORD PTR [eax+4]
	mov	DWORD PTR ?m_vecLastFacing@?1??V_CalcViewModelLag@@YAXPAUref_params_s@@AAVVector@@1ABV3@@Z@4V3@A+4, edx
	mov	eax, DWORD PTR [eax+8]
	mov	DWORD PTR ?m_vecLastFacing@?1??V_CalcViewModelLag@@YAXPAUref_params_s@@AAVVector@@1ABV3@@Z@4V3@A+8, eax

; 1060 : 		// Make sure it doesn't grow out of control!!!
; 1061 : 		m_vecLastFacing = m_vecLastFacing.Normalize();

	lea	eax, DWORD PTR $T23[ebp]
	push	eax
	mov	ecx, OFFSET ?m_vecLastFacing@?1??V_CalcViewModelLag@@YAXPAUref_params_s@@AAVVector@@1ABV3@@Z@4V3@A
	call	?Normalize@Vector@@QBE?AV1@XZ		; Vector::Normalize
	mov	ecx, DWORD PTR [eax]
	mov	DWORD PTR ?m_vecLastFacing@?1??V_CalcViewModelLag@@YAXPAUref_params_s@@AAVVector@@1ABV3@@Z@4V3@A, ecx
	mov	edx, DWORD PTR [eax+4]
	mov	DWORD PTR ?m_vecLastFacing@?1??V_CalcViewModelLag@@YAXPAUref_params_s@@AAVVector@@1ABV3@@Z@4V3@A+4, edx
	mov	eax, DWORD PTR [eax+8]
	mov	DWORD PTR ?m_vecLastFacing@?1??V_CalcViewModelLag@@YAXPAUref_params_s@@AAVVector@@1ABV3@@Z@4V3@A+8, eax

; 1062 : 		origin = origin + (vDifference * -1.0f) * flSpeed * 0.25;  // diffusion *0.25

	push	ecx
	movss	xmm0, DWORD PTR __real@3e800000
	movss	DWORD PTR [esp], xmm0
	lea	eax, DWORD PTR $T20[ebp]
	push	eax
	push	ecx
	movss	xmm0, DWORD PTR _flSpeed$29[ebp]
	movss	DWORD PTR [esp], xmm0
	lea	ecx, DWORD PTR $T21[ebp]
	push	ecx
	push	ecx
	movss	xmm0, DWORD PTR __real@bf800000
	movss	DWORD PTR [esp], xmm0
	lea	edx, DWORD PTR $T22[ebp]
	push	edx
	lea	ecx, DWORD PTR _vDifference$30[ebp]
	call	??DVector@@QBE?AV0@M@Z			; Vector::operator*
	mov	ecx, eax
	call	??DVector@@QBE?AV0@M@Z			; Vector::operator*
	mov	ecx, eax
	call	??DVector@@QBE?AV0@M@Z			; Vector::operator*
	push	eax
	lea	eax, DWORD PTR $T19[ebp]
	push	eax
	mov	ecx, DWORD PTR _origin$[ebp]
	call	??HVector@@QBE?AV0@ABV0@@Z		; Vector::operator+
	mov	ecx, DWORD PTR _origin$[ebp]
	mov	edx, DWORD PTR [eax]
	mov	DWORD PTR [ecx], edx
	mov	edx, DWORD PTR [eax+4]
	mov	DWORD PTR [ecx+4], edx
	mov	eax, DWORD PTR [eax+8]
	mov	DWORD PTR [ecx+8], eax
$LN3@V_CalcView:

; 1063 : 	}
; 1064 : 
; 1065 : 	AngleVectors( original_angles, forward, right, up );

	lea	ecx, DWORD PTR _up$[ebp]
	call	??BVector@@QAEPAMXZ			; Vector::operator float *
	push	eax
	lea	ecx, DWORD PTR _right$[ebp]
	call	??BVector@@QAEPAMXZ			; Vector::operator float *
	push	eax
	lea	ecx, DWORD PTR _forward$[ebp]
	call	??BVector@@QAEPAMXZ			; Vector::operator float *
	push	eax
	mov	ecx, DWORD PTR _original_angles$[ebp]
	call	??BVector@@QBEPBMXZ			; Vector::operator float const *
	push	eax
	call	DWORD PTR ?gEngfuncs@@3Ucl_enginefuncs_s@@A+96
	add	esp, 16					; 00000010H

; 1066 : 
; 1067 : 	float pitch = original_angles[PITCH];

	mov	ecx, DWORD PTR _original_angles$[ebp]
	call	??BVector@@QBEPBMXZ			; Vector::operator float const *
	mov	ecx, 4
	imul	edx, ecx, 0
	movss	xmm0, DWORD PTR [eax+edx]
	movss	DWORD PTR _pitch$[ebp], xmm0

; 1068 : 
; 1069 : 	if( gEngfuncs.GetLocalPlayer()->curstate.effects & EF_UPSIDEDOWN )

	call	DWORD PTR ?gEngfuncs@@3Ucl_enginefuncs_s@@A+204
	mov	eax, DWORD PTR [eax+748]
	and	eax, 4194304				; 00400000H
	je	SHORT $LN5@V_CalcView

; 1070 : 	{
; 1071 : 		if( pitch > 0.0f )

	movss	xmm0, DWORD PTR _pitch$[ebp]
	comiss	xmm0, DWORD PTR __real@00000000
	jbe	SHORT $LN7@V_CalcView

; 1072 : 			pitch -= 360.0f;

	movss	xmm0, DWORD PTR _pitch$[ebp]
	subss	xmm0, DWORD PTR __real@43b40000
	movss	DWORD PTR _pitch$[ebp], xmm0
	jmp	SHORT $LN9@V_CalcView
$LN7@V_CalcView:

; 1073 : 		else if( pitch < -360.0f )

	movss	xmm0, DWORD PTR __real@c3b40000
	comiss	xmm0, DWORD PTR _pitch$[ebp]
	jbe	SHORT $LN9@V_CalcView

; 1074 : 			pitch += 360.0f;

	movss	xmm0, DWORD PTR _pitch$[ebp]
	addss	xmm0, DWORD PTR __real@43b40000
	movss	DWORD PTR _pitch$[ebp], xmm0
$LN9@V_CalcView:

; 1075 : 	}
; 1076 : 	else

	jmp	SHORT $LN12@V_CalcView
$LN5@V_CalcView:

; 1077 : 	{
; 1078 : 		if( pitch > 180.0f )

	movss	xmm0, DWORD PTR _pitch$[ebp]
	comiss	xmm0, DWORD PTR __real@43340000
	jbe	SHORT $LN10@V_CalcView

; 1079 : 			pitch -= 360.0f;

	movss	xmm0, DWORD PTR _pitch$[ebp]
	subss	xmm0, DWORD PTR __real@43b40000
	movss	DWORD PTR _pitch$[ebp], xmm0
	jmp	SHORT $LN12@V_CalcView
$LN10@V_CalcView:

; 1080 : 		else if( pitch < -180.0f )

	movss	xmm0, DWORD PTR __real@c3340000
	comiss	xmm0, DWORD PTR _pitch$[ebp]
	jbe	SHORT $LN12@V_CalcView

; 1081 : 			pitch += 360.0f;

	movss	xmm0, DWORD PTR _pitch$[ebp]
	addss	xmm0, DWORD PTR __real@43b40000
	movss	DWORD PTR _pitch$[ebp], xmm0
$LN12@V_CalcView:

; 1082 : 	}
; 1083 : 
; 1084 : 	if( cl_weaponlag->value <= 0.0f )

	mov	eax, DWORD PTR ?cl_weaponlag@@3PAUcvar_s@@A ; cl_weaponlag
	xorps	xmm0, xmm0
	comiss	xmm0, DWORD PTR [eax+12]
	jb	SHORT $LN13@V_CalcView

; 1085 : 	{
; 1086 : 		origin = vOriginalOrigin;

	mov	eax, DWORD PTR _origin$[ebp]
	mov	ecx, DWORD PTR _vOriginalOrigin$[ebp]
	mov	DWORD PTR [eax], ecx
	mov	edx, DWORD PTR _vOriginalOrigin$[ebp+4]
	mov	DWORD PTR [eax+4], edx
	mov	ecx, DWORD PTR _vOriginalOrigin$[ebp+8]
	mov	DWORD PTR [eax+8], ecx

; 1087 : 		angles = vOriginalAngles;

	mov	eax, DWORD PTR _angles$[ebp]
	mov	ecx, DWORD PTR _vOriginalAngles$[ebp]
	mov	DWORD PTR [eax], ecx
	mov	edx, DWORD PTR _vOriginalAngles$[ebp+4]
	mov	DWORD PTR [eax+4], edx
	mov	ecx, DWORD PTR _vOriginalAngles$[ebp+8]
	mov	DWORD PTR [eax+8], ecx

; 1088 : 	}
; 1089 : 	else

	jmp	$LN16@V_CalcView
$LN13@V_CalcView:

; 1090 : 	{
; 1091 : 		if( gEngfuncs.GetLocalPlayer()->curstate.effects & EF_UPSIDEDOWN )

	call	DWORD PTR ?gEngfuncs@@3Ucl_enginefuncs_s@@A+204
	mov	eax, DWORD PTR [eax+748]
	and	eax, 4194304				; 00400000H
	je	$LN15@V_CalcView

; 1092 : 		{
; 1093 : 			origin = origin + forward * (-(pitch + 180) * 0.015f);  // diffusion - was 0.035f

	movss	xmm0, DWORD PTR _pitch$[ebp]
	addss	xmm0, DWORD PTR __real@43340000
	xorps	xmm0, DWORD PTR __xmm@80000000800000008000000080000000
	mulss	xmm0, DWORD PTR __real@3c75c28f
	push	ecx
	movss	DWORD PTR [esp], xmm0
	lea	eax, DWORD PTR $T18[ebp]
	push	eax
	lea	ecx, DWORD PTR _forward$[ebp]
	call	??DVector@@QBE?AV0@M@Z			; Vector::operator*
	push	eax
	lea	ecx, DWORD PTR $T17[ebp]
	push	ecx
	mov	ecx, DWORD PTR _origin$[ebp]
	call	??HVector@@QBE?AV0@ABV0@@Z		; Vector::operator+
	mov	edx, DWORD PTR _origin$[ebp]
	mov	ecx, DWORD PTR [eax]
	mov	DWORD PTR [edx], ecx
	mov	ecx, DWORD PTR [eax+4]
	mov	DWORD PTR [edx+4], ecx
	mov	eax, DWORD PTR [eax+8]
	mov	DWORD PTR [edx+8], eax

; 1094 : 			origin = origin + right * (-(pitch + 180) * 0.01f);    // was 0.03f

	movss	xmm0, DWORD PTR _pitch$[ebp]
	addss	xmm0, DWORD PTR __real@43340000
	xorps	xmm0, DWORD PTR __xmm@80000000800000008000000080000000
	mulss	xmm0, DWORD PTR __real@3c23d70a
	push	ecx
	movss	DWORD PTR [esp], xmm0
	lea	eax, DWORD PTR $T16[ebp]
	push	eax
	lea	ecx, DWORD PTR _right$[ebp]
	call	??DVector@@QBE?AV0@M@Z			; Vector::operator*
	push	eax
	lea	ecx, DWORD PTR $T15[ebp]
	push	ecx
	mov	ecx, DWORD PTR _origin$[ebp]
	call	??HVector@@QBE?AV0@ABV0@@Z		; Vector::operator+
	mov	edx, DWORD PTR _origin$[ebp]
	mov	ecx, DWORD PTR [eax]
	mov	DWORD PTR [edx], ecx
	mov	ecx, DWORD PTR [eax+4]
	mov	DWORD PTR [edx+4], ecx
	mov	eax, DWORD PTR [eax+8]
	mov	DWORD PTR [edx+8], eax

; 1095 : 			origin = origin + up * (-(pitch + 180) * 0.02f);

	movss	xmm0, DWORD PTR _pitch$[ebp]
	addss	xmm0, DWORD PTR __real@43340000
	xorps	xmm0, DWORD PTR __xmm@80000000800000008000000080000000
	mulss	xmm0, DWORD PTR __real@3ca3d70a
	push	ecx
	movss	DWORD PTR [esp], xmm0
	lea	eax, DWORD PTR $T14[ebp]
	push	eax
	lea	ecx, DWORD PTR _up$[ebp]
	call	??DVector@@QBE?AV0@M@Z			; Vector::operator*
	push	eax
	lea	ecx, DWORD PTR $T13[ebp]
	push	ecx
	mov	ecx, DWORD PTR _origin$[ebp]
	call	??HVector@@QBE?AV0@ABV0@@Z		; Vector::operator+
	mov	edx, DWORD PTR _origin$[ebp]
	mov	ecx, DWORD PTR [eax]
	mov	DWORD PTR [edx], ecx
	mov	ecx, DWORD PTR [eax+4]
	mov	DWORD PTR [edx+4], ecx
	mov	eax, DWORD PTR [eax+8]
	mov	DWORD PTR [edx+8], eax

; 1096 : 		}
; 1097 : 		else

	jmp	$LN16@V_CalcView
$LN15@V_CalcView:

; 1098 : 		{
; 1099 : 			origin = origin + forward * (-pitch * 0.015f);  // diffusion - was 0.035f

	movss	xmm0, DWORD PTR _pitch$[ebp]
	xorps	xmm0, DWORD PTR __xmm@80000000800000008000000080000000
	mulss	xmm0, DWORD PTR __real@3c75c28f
	push	ecx
	movss	DWORD PTR [esp], xmm0
	lea	eax, DWORD PTR $T12[ebp]
	push	eax
	lea	ecx, DWORD PTR _forward$[ebp]
	call	??DVector@@QBE?AV0@M@Z			; Vector::operator*
	push	eax
	lea	ecx, DWORD PTR $T11[ebp]
	push	ecx
	mov	ecx, DWORD PTR _origin$[ebp]
	call	??HVector@@QBE?AV0@ABV0@@Z		; Vector::operator+
	mov	edx, DWORD PTR _origin$[ebp]
	mov	ecx, DWORD PTR [eax]
	mov	DWORD PTR [edx], ecx
	mov	ecx, DWORD PTR [eax+4]
	mov	DWORD PTR [edx+4], ecx
	mov	eax, DWORD PTR [eax+8]
	mov	DWORD PTR [edx+8], eax

; 1100 : 			origin = origin + right * (-pitch * 0.01f);    // was 0.03f

	movss	xmm0, DWORD PTR _pitch$[ebp]
	xorps	xmm0, DWORD PTR __xmm@80000000800000008000000080000000
	mulss	xmm0, DWORD PTR __real@3c23d70a
	push	ecx
	movss	DWORD PTR [esp], xmm0
	lea	eax, DWORD PTR $T10[ebp]
	push	eax
	lea	ecx, DWORD PTR _right$[ebp]
	call	??DVector@@QBE?AV0@M@Z			; Vector::operator*
	push	eax
	lea	ecx, DWORD PTR $T9[ebp]
	push	ecx
	mov	ecx, DWORD PTR _origin$[ebp]
	call	??HVector@@QBE?AV0@ABV0@@Z		; Vector::operator+
	mov	edx, DWORD PTR _origin$[ebp]
	mov	ecx, DWORD PTR [eax]
	mov	DWORD PTR [edx], ecx
	mov	ecx, DWORD PTR [eax+4]
	mov	DWORD PTR [edx+4], ecx
	mov	eax, DWORD PTR [eax+8]
	mov	DWORD PTR [edx+8], eax

; 1101 : 			origin = origin + up * (-pitch * 0.02f);

	movss	xmm0, DWORD PTR _pitch$[ebp]
	xorps	xmm0, DWORD PTR __xmm@80000000800000008000000080000000
	mulss	xmm0, DWORD PTR __real@3ca3d70a
	push	ecx
	movss	DWORD PTR [esp], xmm0
	lea	eax, DWORD PTR $T8[ebp]
	push	eax
	lea	ecx, DWORD PTR _up$[ebp]
	call	??DVector@@QBE?AV0@M@Z			; Vector::operator*
	push	eax
	lea	ecx, DWORD PTR $T7[ebp]
	push	ecx
	mov	ecx, DWORD PTR _origin$[ebp]
	call	??HVector@@QBE?AV0@ABV0@@Z		; Vector::operator+
	mov	edx, DWORD PTR _origin$[ebp]
	mov	ecx, DWORD PTR [eax]
	mov	DWORD PTR [edx], ecx
	mov	ecx, DWORD PTR [eax+4]
	mov	DWORD PTR [edx+4], ecx
	mov	eax, DWORD PTR [eax+8]
	mov	DWORD PTR [edx+8], eax
$LN16@V_CalcView:

; 1102 : 		}
; 1103 : 	}
; 1104 : 
; 1105 : 	// diffusion - addidle for weapon model
; 1106 : 	origin[ROLL] += sin(pparams->time * 0.5) * 0.05;

	mov	ecx, DWORD PTR _origin$[ebp]
	call	??BVector@@QAEPAMXZ			; Vector::operator float *
	mov	ecx, 4
	shl	ecx, 1
	add	eax, ecx
	mov	DWORD PTR tv330[ebp], eax
	mov	edx, DWORD PTR _pparams$[ebp]
	cvtss2sd xmm0, DWORD PTR [edx+64]
	mulsd	xmm0, QWORD PTR __real@3fe0000000000000
	sub	esp, 8
	movsd	QWORD PTR [esp], xmm0
	call	_sin
	add	esp, 8
	fstp	QWORD PTR tv632[ebp]
	movsd	xmm0, QWORD PTR tv632[ebp]
	mulsd	xmm0, QWORD PTR __real@3fa999999999999a
	mov	eax, DWORD PTR tv330[ebp]
	cvtss2sd xmm1, DWORD PTR [eax]
	addsd	xmm1, xmm0
	cvtsd2ss xmm0, xmm1
	mov	ecx, DWORD PTR tv330[ebp]
	movss	DWORD PTR [ecx], xmm0

; 1107 : 	origin[PITCH] += sin(pparams->time) * 0.15;

	mov	ecx, DWORD PTR _origin$[ebp]
	call	??BVector@@QAEPAMXZ			; Vector::operator float *
	mov	ecx, 4
	imul	edx, ecx, 0
	add	eax, edx
	mov	DWORD PTR tv343[ebp], eax
	mov	eax, DWORD PTR _pparams$[ebp]
	cvtss2sd xmm0, DWORD PTR [eax+64]
	sub	esp, 8
	movsd	QWORD PTR [esp], xmm0
	call	_sin
	add	esp, 8
	fstp	QWORD PTR tv642[ebp]
	movsd	xmm0, QWORD PTR tv642[ebp]
	mulsd	xmm0, QWORD PTR __real@3fc3333333333333
	mov	ecx, DWORD PTR tv343[ebp]
	cvtss2sd xmm1, DWORD PTR [ecx]
	addsd	xmm1, xmm0
	cvtsd2ss xmm0, xmm1
	mov	edx, DWORD PTR tv343[ebp]
	movss	DWORD PTR [edx], xmm0

; 1108 : 	origin[YAW] += sin(pparams->time * 2) * 0.15;

	mov	ecx, DWORD PTR _origin$[ebp]
	call	??BVector@@QAEPAMXZ			; Vector::operator float *
	mov	ecx, 4
	shl	ecx, 0
	add	eax, ecx
	mov	DWORD PTR tv357[ebp], eax
	mov	edx, DWORD PTR _pparams$[ebp]
	movss	xmm0, DWORD PTR [edx+64]
	mulss	xmm0, DWORD PTR __real@40000000
	cvtss2sd xmm0, xmm0
	sub	esp, 8
	movsd	QWORD PTR [esp], xmm0
	call	_sin
	add	esp, 8
	fstp	QWORD PTR tv653[ebp]
	movsd	xmm0, QWORD PTR tv653[ebp]
	mulsd	xmm0, QWORD PTR __real@3fc3333333333333
	mov	eax, DWORD PTR tv357[ebp]
	cvtss2sd xmm1, DWORD PTR [eax]
	addsd	xmm1, xmm0
	cvtsd2ss xmm0, xmm1
	mov	ecx, DWORD PTR tv357[ebp]
	movss	DWORD PTR [ecx], xmm0

; 1109 : 
; 1110 : 	// diffusion - lower the weapon
; 1111 : 	static float add = 0.0f;
; 1112 : 	if( gHUD.WeaponLowered )

	movzx	eax, BYTE PTR ?gHUD@@3VCHud@@A+122
	test	eax, eax
	je	SHORT $LN17@V_CalcView

; 1113 : 		add = CL_UTIL_Approach( 25.0f, add, 60 * g_fFrametime );

	movss	xmm0, DWORD PTR __real@42700000
	mulss	xmm0, DWORD PTR ?g_fFrametime@@3MA
	push	ecx
	movss	DWORD PTR [esp], xmm0
	push	ecx
	movss	xmm0, DWORD PTR ?add@?1??V_CalcViewModelLag@@YAXPAUref_params_s@@AAVVector@@1ABV3@@Z@4MA
	movss	DWORD PTR [esp], xmm0
	push	ecx
	movss	xmm0, DWORD PTR __real@41c80000
	movss	DWORD PTR [esp], xmm0
	call	?CL_UTIL_Approach@@YAMMMM@Z		; CL_UTIL_Approach
	add	esp, 12					; 0000000cH
	fstp	DWORD PTR ?add@?1??V_CalcViewModelLag@@YAXPAUref_params_s@@AAVVector@@1ABV3@@Z@4MA

; 1114 : 	else

	jmp	SHORT $LN18@V_CalcView
$LN17@V_CalcView:

; 1115 : 		add = CL_UTIL_Approach( 0.0f, add, 60 * g_fFrametime );

	movss	xmm0, DWORD PTR __real@42700000
	mulss	xmm0, DWORD PTR ?g_fFrametime@@3MA
	push	ecx
	movss	DWORD PTR [esp], xmm0
	push	ecx
	movss	xmm0, DWORD PTR ?add@?1??V_CalcViewModelLag@@YAXPAUref_params_s@@AAVVector@@1ABV3@@Z@4MA
	movss	DWORD PTR [esp], xmm0
	push	ecx
	xorps	xmm0, xmm0
	movss	DWORD PTR [esp], xmm0
	call	?CL_UTIL_Approach@@YAMMMM@Z		; CL_UTIL_Approach
	add	esp, 12					; 0000000cH
	fstp	DWORD PTR ?add@?1??V_CalcViewModelLag@@YAXPAUref_params_s@@AAVVector@@1ABV3@@Z@4MA
$LN18@V_CalcView:

; 1116 : 	if( add > 0.0f )

	movss	xmm0, DWORD PTR ?add@?1??V_CalcViewModelLag@@YAXPAUref_params_s@@AAVVector@@1ABV3@@Z@4MA
	comiss	xmm0, DWORD PTR __real@00000000
	jbe	$LN19@V_CalcView

; 1117 : 	{
; 1118 : 		angles.x += add;

	mov	eax, DWORD PTR _angles$[ebp]
	movss	xmm0, DWORD PTR [eax]
	addss	xmm0, DWORD PTR ?add@?1??V_CalcViewModelLag@@YAXPAUref_params_s@@AAVVector@@1ABV3@@Z@4MA
	mov	ecx, DWORD PTR _angles$[ebp]
	movss	DWORD PTR [ecx], xmm0

; 1119 : 		angles.y += add;

	mov	eax, DWORD PTR _angles$[ebp]
	movss	xmm0, DWORD PTR [eax+4]
	addss	xmm0, DWORD PTR ?add@?1??V_CalcViewModelLag@@YAXPAUref_params_s@@AAVVector@@1ABV3@@Z@4MA
	mov	ecx, DWORD PTR _angles$[ebp]
	movss	DWORD PTR [ecx+4], xmm0

; 1120 : 		origin += forward * add * 0.1f + right * add * 0.2f;

	push	ecx
	movss	xmm0, DWORD PTR __real@3e4ccccd
	movss	DWORD PTR [esp], xmm0
	lea	eax, DWORD PTR $T3[ebp]
	push	eax
	push	ecx
	movss	xmm0, DWORD PTR ?add@?1??V_CalcViewModelLag@@YAXPAUref_params_s@@AAVVector@@1ABV3@@Z@4MA
	movss	DWORD PTR [esp], xmm0
	lea	ecx, DWORD PTR $T4[ebp]
	push	ecx
	lea	ecx, DWORD PTR _right$[ebp]
	call	??DVector@@QBE?AV0@M@Z			; Vector::operator*
	mov	ecx, eax
	call	??DVector@@QBE?AV0@M@Z			; Vector::operator*
	push	eax
	lea	edx, DWORD PTR $T2[ebp]
	push	edx
	push	ecx
	movss	xmm0, DWORD PTR __real@3dcccccd
	movss	DWORD PTR [esp], xmm0
	lea	eax, DWORD PTR $T5[ebp]
	push	eax
	push	ecx
	movss	xmm0, DWORD PTR ?add@?1??V_CalcViewModelLag@@YAXPAUref_params_s@@AAVVector@@1ABV3@@Z@4MA
	movss	DWORD PTR [esp], xmm0
	lea	ecx, DWORD PTR $T6[ebp]
	push	ecx
	lea	ecx, DWORD PTR _forward$[ebp]
	call	??DVector@@QBE?AV0@M@Z			; Vector::operator*
	mov	ecx, eax
	call	??DVector@@QBE?AV0@M@Z			; Vector::operator*
	mov	ecx, eax
	call	??HVector@@QBE?AV0@ABV0@@Z		; Vector::operator+
	push	eax
	mov	ecx, DWORD PTR _origin$[ebp]
	call	??YVector@@QAEAAV0@ABV0@@Z		; Vector::operator+=

; 1121 : 		origin.z += add * 0.05f;

	movss	xmm0, DWORD PTR ?add@?1??V_CalcViewModelLag@@YAXPAUref_params_s@@AAVVector@@1ABV3@@Z@4MA
	mulss	xmm0, DWORD PTR __real@3d4ccccd
	mov	eax, DWORD PTR _origin$[ebp]
	addss	xmm0, DWORD PTR [eax+8]
	mov	ecx, DWORD PTR _origin$[ebp]
	movss	DWORD PTR [ecx+8], xmm0
$LN19@V_CalcView:

; 1122 : 	}
; 1123 : }

	mov	ecx, DWORD PTR __$EHRec$[ebp]
	mov	DWORD PTR fs:0, ecx
	pop	ecx
	pop	edi
	pop	esi
	pop	ebx
	mov	esp, ebp
	pop	ebp
	ret	0
_TEXT	ENDS
;	COMDAT text$x
text$x	SEGMENT
__unwindfunclet$?V_CalcViewModelLag@@YAXPAUref_params_s@@AAVVector@@1ABV2@@Z$0:
	push	OFFSET ?$TSS0@?1??V_CalcViewModelLag@@YAXPAUref_params_s@@AAVVector@@1ABV3@@Z@4HA
	call	__Init_thread_abort
	pop	ecx
	ret	0
__ehhandler$?V_CalcViewModelLag@@YAXPAUref_params_s@@AAVVector@@1ABV2@@Z:
	mov	edx, DWORD PTR [esp+8]
	lea	eax, DWORD PTR [edx+12]
	mov	ecx, DWORD PTR [edx-480]
	xor	ecx, eax
	call	@__security_check_cookie@4
	mov	eax, OFFSET __ehfuncinfo$?V_CalcViewModelLag@@YAXPAUref_params_s@@AAVVector@@1ABV2@@Z
	jmp	___CxxFrameHandler3
text$x	ENDS
?V_CalcViewModelLag@@YAXPAUref_params_s@@AAVVector@@1ABV2@@Z ENDP ; V_CalcViewModelLag
; Function compile flags: /Odtp /ZI
; File d:\!diffusion 2020\source code 2022\client-server\client\render\view.cpp
;	COMDAT ?V_CalcGunAngle@@YAXPAUref_params_s@@@Z
_TEXT	SEGMENT
tv291 = -88						; size = 8
tv278 = -88						; size = 8
tv266 = -88						; size = 8
tv389 = -80						; size = 8
tv387 = -80						; size = 8
tv385 = -80						; size = 8
tv351 = -72						; size = 4
tv349 = -72						; size = 4
tv223 = -72						; size = 4
tv210 = -72						; size = 4
tv197 = -72						; size = 4
tv182 = -72						; size = 4
tv164 = -72						; size = 4
tv145 = -72						; size = 4
_viewent$ = -4						; size = 4
_pparams$ = 8						; size = 4
?V_CalcGunAngle@@YAXPAUref_params_s@@@Z PROC		; V_CalcGunAngle, COMDAT

; 1003 : {	

	push	ebp
	mov	ebp, esp
	sub	esp, 88					; 00000058H
	push	ebx
	push	esi
	push	edi

; 1004 : 	cl_entity_t *viewent;
; 1005 : 	
; 1006 : 	viewent = GET_VIEWMODEL();

	call	DWORD PTR ?gEngfuncs@@3Ucl_enginefuncs_s@@A+208
	mov	DWORD PTR _viewent$[ebp], eax

; 1007 : 	if( !viewent ) return;

	cmp	DWORD PTR _viewent$[ebp], 0
	jne	SHORT $LN2@V_CalcGunA
	jmp	$LN1@V_CalcGunA
$LN2@V_CalcGunA:

; 1008 : 
; 1009 : 	viewent->angles[YAW] = pparams->viewangles[YAW] + pparams->crosshairangle[YAW];

	mov	ecx, DWORD PTR _pparams$[ebp]
	add	ecx, 12					; 0000000cH
	call	??BVector@@QAEPAMXZ			; Vector::operator float *
	mov	esi, eax
	mov	edi, 4
	shl	edi, 0
	mov	ecx, DWORD PTR _pparams$[ebp]
	add	ecx, 144				; 00000090H
	call	??BVector@@QAEPAMXZ			; Vector::operator float *
	mov	ecx, 4
	shl	ecx, 0
	movss	xmm0, DWORD PTR [esi+edi]
	addss	xmm0, DWORD PTR [eax+ecx]
	mov	ecx, DWORD PTR _viewent$[ebp]
	add	ecx, 2900				; 00000b54H
	movss	DWORD PTR tv349[ebp], xmm0
	call	??BVector@@QAEPAMXZ			; Vector::operator float *
	mov	edx, 4
	shl	edx, 0
	movss	xmm0, DWORD PTR tv349[ebp]
	movss	DWORD PTR [eax+edx], xmm0

; 1010 : 	viewent->angles[PITCH] = pparams->viewangles[PITCH] + pparams->crosshairangle[PITCH] * 0.25f;

	mov	ecx, DWORD PTR _pparams$[ebp]
	add	ecx, 12					; 0000000cH
	call	??BVector@@QAEPAMXZ			; Vector::operator float *
	mov	esi, eax
	mov	eax, 4
	imul	edi, eax, 0
	mov	ecx, DWORD PTR _pparams$[ebp]
	add	ecx, 144				; 00000090H
	call	??BVector@@QAEPAMXZ			; Vector::operator float *
	mov	ecx, 4
	imul	edx, ecx, 0
	movss	xmm0, DWORD PTR [eax+edx]
	mulss	xmm0, DWORD PTR __real@3e800000
	addss	xmm0, DWORD PTR [esi+edi]
	mov	ecx, DWORD PTR _viewent$[ebp]
	add	ecx, 2900				; 00000b54H
	movss	DWORD PTR tv351[ebp], xmm0
	call	??BVector@@QAEPAMXZ			; Vector::operator float *
	mov	ecx, 4
	imul	edx, ecx, 0
	movss	xmm0, DWORD PTR tv351[ebp]
	movss	DWORD PTR [eax+edx], xmm0

; 1011 : 	viewent->angles[ROLL] -= v_idlescale * sin( pparams->time * v_iroll_cycle.value ) * v_iroll_level.value;

	mov	ecx, DWORD PTR _viewent$[ebp]
	add	ecx, 2900				; 00000b54H
	call	??BVector@@QAEPAMXZ			; Vector::operator float *
	mov	ecx, 4
	shl	ecx, 1
	add	eax, ecx
	mov	DWORD PTR tv145[ebp], eax
	cvtss2sd xmm0, DWORD PTR ?v_idlescale@@3MA
	mov	edx, DWORD PTR _pparams$[ebp]
	movss	xmm1, DWORD PTR [edx+64]
	mulss	xmm1, DWORD PTR ?v_iroll_cycle@@3Ucvar_s@@A+12
	cvtss2sd xmm1, xmm1
	sub	esp, 8
	movsd	QWORD PTR [esp], xmm1
	movsd	QWORD PTR tv385[ebp], xmm0
	call	_sin
	add	esp, 8
	fstp	QWORD PTR tv266[ebp]
	movsd	xmm0, QWORD PTR tv385[ebp]
	mulsd	xmm0, QWORD PTR tv266[ebp]
	cvtss2sd xmm1, DWORD PTR ?v_iroll_level@@3Ucvar_s@@A+12
	mulsd	xmm0, xmm1
	mov	eax, DWORD PTR tv145[ebp]
	cvtss2sd xmm1, DWORD PTR [eax]
	subsd	xmm1, xmm0
	cvtsd2ss xmm0, xmm1
	mov	ecx, DWORD PTR tv145[ebp]
	movss	DWORD PTR [ecx], xmm0

; 1012 : 	
; 1013 : 	// don't apply all of the v_ipitch to prevent normally unseen parts of viewmodel from coming into view.
; 1014 : 	viewent->angles[PITCH] -= v_idlescale * sin( pparams->time*v_ipitch_cycle.value ) * (v_ipitch_level.value * 0.5f);

	mov	ecx, DWORD PTR _viewent$[ebp]
	add	ecx, 2900				; 00000b54H
	call	??BVector@@QAEPAMXZ			; Vector::operator float *
	mov	ecx, 4
	imul	edx, ecx, 0
	add	eax, edx
	mov	DWORD PTR tv164[ebp], eax
	cvtss2sd xmm0, DWORD PTR ?v_idlescale@@3MA
	mov	eax, DWORD PTR _pparams$[ebp]
	movss	xmm1, DWORD PTR [eax+64]
	mulss	xmm1, DWORD PTR ?v_ipitch_cycle@@3Ucvar_s@@A+12
	cvtss2sd xmm1, xmm1
	sub	esp, 8
	movsd	QWORD PTR [esp], xmm1
	movsd	QWORD PTR tv387[ebp], xmm0
	call	_sin
	add	esp, 8
	fstp	QWORD PTR tv278[ebp]
	movsd	xmm0, QWORD PTR tv387[ebp]
	mulsd	xmm0, QWORD PTR tv278[ebp]
	movss	xmm1, DWORD PTR ?v_ipitch_level@@3Ucvar_s@@A+12
	mulss	xmm1, DWORD PTR __real@3f000000
	cvtss2sd xmm1, xmm1
	mulsd	xmm0, xmm1
	mov	ecx, DWORD PTR tv164[ebp]
	cvtss2sd xmm1, DWORD PTR [ecx]
	subsd	xmm1, xmm0
	cvtsd2ss xmm0, xmm1
	mov	edx, DWORD PTR tv164[ebp]
	movss	DWORD PTR [edx], xmm0

; 1015 : 	viewent->angles[YAW] -= v_idlescale * sin( pparams->time*v_iyaw_cycle.value ) * v_iyaw_level.value;

	mov	ecx, DWORD PTR _viewent$[ebp]
	add	ecx, 2900				; 00000b54H
	call	??BVector@@QAEPAMXZ			; Vector::operator float *
	mov	ecx, 4
	shl	ecx, 0
	add	eax, ecx
	mov	DWORD PTR tv182[ebp], eax
	cvtss2sd xmm0, DWORD PTR ?v_idlescale@@3MA
	mov	edx, DWORD PTR _pparams$[ebp]
	movss	xmm1, DWORD PTR [edx+64]
	mulss	xmm1, DWORD PTR ?v_iyaw_cycle@@3Ucvar_s@@A+12
	cvtss2sd xmm1, xmm1
	sub	esp, 8
	movsd	QWORD PTR [esp], xmm1
	movsd	QWORD PTR tv389[ebp], xmm0
	call	_sin
	add	esp, 8
	fstp	QWORD PTR tv291[ebp]
	movsd	xmm0, QWORD PTR tv389[ebp]
	mulsd	xmm0, QWORD PTR tv291[ebp]
	cvtss2sd xmm1, DWORD PTR ?v_iyaw_level@@3Ucvar_s@@A+12
	mulsd	xmm0, xmm1
	mov	eax, DWORD PTR tv182[ebp]
	cvtss2sd xmm1, DWORD PTR [eax]
	subsd	xmm1, xmm0
	cvtsd2ss xmm0, xmm1
	mov	ecx, DWORD PTR tv182[ebp]
	movss	DWORD PTR [ecx], xmm0

; 1016 : 
; 1017 : 	viewent->angles[0] -= pparams->punchangle[0] / 2;

	mov	ecx, DWORD PTR _viewent$[ebp]
	add	ecx, 2900				; 00000b54H
	call	??BVector@@QAEPAMXZ			; Vector::operator float *
	mov	ecx, 4
	imul	edx, ecx, 0
	add	eax, edx
	mov	DWORD PTR tv197[ebp], eax
	mov	ecx, DWORD PTR _pparams$[ebp]
	add	ecx, 160				; 000000a0H
	call	??BVector@@QAEPAMXZ			; Vector::operator float *
	mov	ecx, 4
	imul	edx, ecx, 0
	movss	xmm0, DWORD PTR [eax+edx]
	divss	xmm0, DWORD PTR __real@40000000
	mov	eax, DWORD PTR tv197[ebp]
	movss	xmm1, DWORD PTR [eax]
	subss	xmm1, xmm0
	mov	ecx, DWORD PTR tv197[ebp]
	movss	DWORD PTR [ecx], xmm1

; 1018 : 	viewent->angles[1] += pparams->punchangle[1] / 2;

	mov	ecx, DWORD PTR _viewent$[ebp]
	add	ecx, 2900				; 00000b54H
	call	??BVector@@QAEPAMXZ			; Vector::operator float *
	mov	ecx, 4
	shl	ecx, 0
	add	eax, ecx
	mov	DWORD PTR tv210[ebp], eax
	mov	ecx, DWORD PTR _pparams$[ebp]
	add	ecx, 160				; 000000a0H
	call	??BVector@@QAEPAMXZ			; Vector::operator float *
	mov	edx, 4
	shl	edx, 0
	movss	xmm0, DWORD PTR [eax+edx]
	divss	xmm0, DWORD PTR __real@40000000
	mov	eax, DWORD PTR tv210[ebp]
	addss	xmm0, DWORD PTR [eax]
	mov	ecx, DWORD PTR tv210[ebp]
	movss	DWORD PTR [ecx], xmm0

; 1019 : 	viewent->angles[2] += pparams->punchangle[2] / 2;

	mov	ecx, DWORD PTR _viewent$[ebp]
	add	ecx, 2900				; 00000b54H
	call	??BVector@@QAEPAMXZ			; Vector::operator float *
	mov	ecx, 4
	shl	ecx, 1
	add	eax, ecx
	mov	DWORD PTR tv223[ebp], eax
	mov	ecx, DWORD PTR _pparams$[ebp]
	add	ecx, 160				; 000000a0H
	call	??BVector@@QAEPAMXZ			; Vector::operator float *
	mov	edx, 4
	shl	edx, 1
	movss	xmm0, DWORD PTR [eax+edx]
	divss	xmm0, DWORD PTR __real@40000000
	mov	eax, DWORD PTR tv223[ebp]
	addss	xmm0, DWORD PTR [eax]
	mov	ecx, DWORD PTR tv223[ebp]
	movss	DWORD PTR [ecx], xmm0

; 1020 : 
; 1021 : 	viewent->latched.prevangles = viewent->angles;

	mov	eax, DWORD PTR _viewent$[ebp]
	add	eax, 2900				; 00000b54H
	mov	ecx, DWORD PTR _viewent$[ebp]
	add	ecx, 2856				; 00000b28H
	mov	edx, DWORD PTR [eax]
	mov	DWORD PTR [ecx], edx
	mov	edx, DWORD PTR [eax+4]
	mov	DWORD PTR [ecx+4], edx
	mov	eax, DWORD PTR [eax+8]
	mov	DWORD PTR [ecx+8], eax

; 1022 : 	viewent->curstate.angles = viewent->angles;

	mov	eax, DWORD PTR _viewent$[ebp]
	add	eax, 2900				; 00000b54H
	mov	ecx, DWORD PTR _viewent$[ebp]
	add	ecx, 716				; 000002ccH
	mov	edx, DWORD PTR [eax]
	mov	DWORD PTR [ecx], edx
	mov	edx, DWORD PTR [eax+4]
	mov	DWORD PTR [ecx+4], edx
	mov	eax, DWORD PTR [eax+8]
	mov	DWORD PTR [ecx+8], eax
$LN1@V_CalcGunA:

; 1023 : }

	pop	edi
	pop	esi
	pop	ebx
	mov	esp, ebp
	pop	ebp
	ret	0
?V_CalcGunAngle@@YAXPAUref_params_s@@@Z ENDP		; V_CalcGunAngle
_TEXT	ENDS
; Function compile flags: /Odtp /ZI
; File d:\!diffusion 2020\source code 2022\client-server\client\render\view.cpp
;	COMDAT ?V_CalcSpectatorRefdef@@YAXPAUref_params_s@@@Z
_TEXT	SEGMENT
tv919 = -120						; size = 4
tv915 = -120						; size = 4
tv911 = -120						; size = 4
tv917 = -116						; size = 4
tv913 = -116						; size = 4
tv909 = -116						; size = 4
tv907 = -116						; size = 4
tv905 = -116						; size = 4
tv903 = -116						; size = 4
tv584 = -116						; size = 4
tv556 = -116						; size = 4
tv528 = -116						; size = 4
tv495 = -116						; size = 4
tv470 = -116						; size = 4
tv432 = -116						; size = 4
tv427 = -116						; size = 4
tv421 = -116						; size = 4
tv358 = -116						; size = 4
tv222 = -116						; size = 4
tv194 = -116						; size = 4
tv166 = -116						; size = 4
tv138 = -116						; size = 4
$T2 = -112						; size = 12
_gunModel$3 = -36					; size = 4
_distance$4 = -32					; size = 12
_timeDiff$5 = -20					; size = 4
_ent$ = -16						; size = 4
__$EHRec$ = -12						; size = 12
_pparams$ = 8						; size = 4
?V_CalcSpectatorRefdef@@YAXPAUref_params_s@@@Z PROC	; V_CalcSpectatorRefdef, COMDAT

; 668  : {

	push	ebp
	mov	ebp, esp
	push	-1
	push	__ehhandler$?V_CalcSpectatorRefdef@@YAXPAUref_params_s@@@Z
	mov	eax, DWORD PTR fs:0
	push	eax
	sub	esp, 108				; 0000006cH
	push	ebx
	push	esi
	push	edi
	mov	eax, DWORD PTR ___security_cookie
	xor	eax, ebp
	push	eax
	lea	eax, DWORD PTR __$EHRec$[ebp]
	mov	DWORD PTR fs:0, eax

; 669  : 	static vec3_t velocity(0.0f, 0.0f, 0.0f);

	mov	eax, DWORD PTR __tls_index
	mov	ecx, DWORD PTR fs:__tls_array
	mov	edx, DWORD PTR [ecx+eax*4]
	mov	eax, DWORD PTR ?$TSS0@?1??V_CalcSpectatorRefdef@@YAXPAUref_params_s@@@Z@4HA
	cmp	eax, DWORD PTR __Init_thread_epoch[edx]
	jle	SHORT $LN2@V_CalcSpec
	push	OFFSET ?$TSS0@?1??V_CalcSpectatorRefdef@@YAXPAUref_params_s@@@Z@4HA
	call	__Init_thread_header
	add	esp, 4
	cmp	DWORD PTR ?$TSS0@?1??V_CalcSpectatorRefdef@@YAXPAUref_params_s@@@Z@4HA, -1
	jne	SHORT $LN2@V_CalcSpec
	mov	DWORD PTR __$EHRec$[ebp+8], 0
	push	ecx
	xorps	xmm0, xmm0
	movss	DWORD PTR [esp], xmm0
	push	ecx
	xorps	xmm0, xmm0
	movss	DWORD PTR [esp], xmm0
	push	ecx
	xorps	xmm0, xmm0
	movss	DWORD PTR [esp], xmm0
	mov	ecx, OFFSET ?velocity@?1??V_CalcSpectatorRefdef@@YAXPAUref_params_s@@@Z@4VVector@@A
	call	??0Vector@@QAE@MMM@Z			; Vector::Vector
	mov	DWORD PTR __$EHRec$[ebp+8], -1
	push	OFFSET ?$TSS0@?1??V_CalcSpectatorRefdef@@YAXPAUref_params_s@@@Z@4HA
	call	__Init_thread_footer
	add	esp, 4
$LN2@V_CalcSpec:

; 670  : 
; 671  : 	static int lastWeaponModelIndex = 0;
; 672  : 	static int lastViewModelIndex = 0;
; 673  : 
; 674  : 	cl_entity_t* ent = gEngfuncs.GetEntityByIndex(g_iUser2);

	mov	eax, DWORD PTR ?g_iUser2@@3HA		; g_iUser2
	push	eax
	call	DWORD PTR ?gEngfuncs@@3Ucl_enginefuncs_s@@A+212
	add	esp, 4
	mov	DWORD PTR _ent$[ebp], eax

; 675  : 
; 676  : 	pparams->onlyClientDraw = false;

	mov	eax, DWORD PTR _pparams$[ebp]
	mov	DWORD PTR [eax+228], 0

; 677  : 
; 678  : 	// refresh position
; 679  : 	VectorCopy(pparams->simorg, v_sim_org);

	mov	ecx, DWORD PTR _pparams$[ebp]
	add	ecx, 100				; 00000064H
	call	??BVector@@QAEPAMXZ			; Vector::operator float *
	mov	esi, eax
	mov	eax, 4
	imul	edi, eax, 0
	mov	ecx, OFFSET ?v_sim_org@@3VVector@@A	; v_sim_org
	call	??BVector@@QAEPAMXZ			; Vector::operator float *
	mov	ecx, 4
	imul	edx, ecx, 0
	mov	ecx, DWORD PTR [esi+edi]
	mov	DWORD PTR [eax+edx], ecx
	mov	ecx, DWORD PTR _pparams$[ebp]
	add	ecx, 100				; 00000064H
	call	??BVector@@QAEPAMXZ			; Vector::operator float *
	mov	esi, eax
	mov	edi, 4
	shl	edi, 0
	mov	ecx, OFFSET ?v_sim_org@@3VVector@@A	; v_sim_org
	call	??BVector@@QAEPAMXZ			; Vector::operator float *
	mov	edx, 4
	shl	edx, 0
	mov	ecx, DWORD PTR [esi+edi]
	mov	DWORD PTR [eax+edx], ecx
	mov	ecx, OFFSET ?v_sim_org@@3VVector@@A	; v_sim_org
	call	??BVector@@QAEPAMXZ			; Vector::operator float *
	mov	edx, 4
	shl	edx, 1
	add	eax, edx
	mov	DWORD PTR tv138[ebp], eax
	mov	esi, 4
	shl	esi, 1
	mov	ecx, DWORD PTR _pparams$[ebp]
	add	ecx, 100				; 00000064H
	call	??BVector@@QAEPAMXZ			; Vector::operator float *
	mov	ecx, DWORD PTR tv138[ebp]
	mov	edx, DWORD PTR [eax+esi]
	mov	DWORD PTR [ecx], edx

; 680  : 
; 681  : 	// get old values
; 682  : 	VectorCopy(pparams->cl_viewangles, v_cl_angles);

	mov	ecx, DWORD PTR _pparams$[ebp]
	add	ecx, 128				; 00000080H
	call	??BVector@@QAEPAMXZ			; Vector::operator float *
	mov	esi, eax
	mov	eax, 4
	imul	edi, eax, 0
	mov	ecx, OFFSET ?v_cl_angles@@3VVector@@A	; v_cl_angles
	call	??BVector@@QAEPAMXZ			; Vector::operator float *
	mov	ecx, 4
	imul	edx, ecx, 0
	mov	ecx, DWORD PTR [esi+edi]
	mov	DWORD PTR [eax+edx], ecx
	mov	ecx, DWORD PTR _pparams$[ebp]
	add	ecx, 128				; 00000080H
	call	??BVector@@QAEPAMXZ			; Vector::operator float *
	mov	esi, eax
	mov	edi, 4
	shl	edi, 0
	mov	ecx, OFFSET ?v_cl_angles@@3VVector@@A	; v_cl_angles
	call	??BVector@@QAEPAMXZ			; Vector::operator float *
	mov	edx, 4
	shl	edx, 0
	mov	ecx, DWORD PTR [esi+edi]
	mov	DWORD PTR [eax+edx], ecx
	mov	ecx, OFFSET ?v_cl_angles@@3VVector@@A	; v_cl_angles
	call	??BVector@@QAEPAMXZ			; Vector::operator float *
	mov	edx, 4
	shl	edx, 1
	add	eax, edx
	mov	DWORD PTR tv166[ebp], eax
	mov	esi, 4
	shl	esi, 1
	mov	ecx, DWORD PTR _pparams$[ebp]
	add	ecx, 128				; 00000080H
	call	??BVector@@QAEPAMXZ			; Vector::operator float *
	mov	ecx, DWORD PTR tv166[ebp]
	mov	edx, DWORD PTR [eax+esi]
	mov	DWORD PTR [ecx], edx

; 683  : 	VectorCopy(pparams->viewangles, v_angles);

	mov	ecx, DWORD PTR _pparams$[ebp]
	add	ecx, 12					; 0000000cH
	call	??BVector@@QAEPAMXZ			; Vector::operator float *
	mov	esi, eax
	mov	eax, 4
	imul	edi, eax, 0
	mov	ecx, OFFSET ?v_angles@@3VVector@@A	; v_angles
	call	??BVector@@QAEPAMXZ			; Vector::operator float *
	mov	ecx, 4
	imul	edx, ecx, 0
	mov	ecx, DWORD PTR [esi+edi]
	mov	DWORD PTR [eax+edx], ecx
	mov	ecx, DWORD PTR _pparams$[ebp]
	add	ecx, 12					; 0000000cH
	call	??BVector@@QAEPAMXZ			; Vector::operator float *
	mov	esi, eax
	mov	edi, 4
	shl	edi, 0
	mov	ecx, OFFSET ?v_angles@@3VVector@@A	; v_angles
	call	??BVector@@QAEPAMXZ			; Vector::operator float *
	mov	edx, 4
	shl	edx, 0
	mov	ecx, DWORD PTR [esi+edi]
	mov	DWORD PTR [eax+edx], ecx
	mov	ecx, OFFSET ?v_angles@@3VVector@@A	; v_angles
	call	??BVector@@QAEPAMXZ			; Vector::operator float *
	mov	edx, 4
	shl	edx, 1
	add	eax, edx
	mov	DWORD PTR tv194[ebp], eax
	mov	esi, 4
	shl	esi, 1
	mov	ecx, DWORD PTR _pparams$[ebp]
	add	ecx, 12					; 0000000cH
	call	??BVector@@QAEPAMXZ			; Vector::operator float *
	mov	ecx, DWORD PTR tv194[ebp]
	mov	edx, DWORD PTR [eax+esi]
	mov	DWORD PTR [ecx], edx

; 684  : 	VectorCopy(pparams->vieworg, v_origin);

	mov	ecx, DWORD PTR _pparams$[ebp]
	call	??BVector@@QAEPAMXZ			; Vector::operator float *
	mov	esi, eax
	mov	eax, 4
	imul	edi, eax, 0
	mov	ecx, OFFSET ?v_origin@@3VVector@@A	; v_origin
	call	??BVector@@QAEPAMXZ			; Vector::operator float *
	mov	ecx, 4
	imul	edx, ecx, 0
	mov	ecx, DWORD PTR [esi+edi]
	mov	DWORD PTR [eax+edx], ecx
	mov	ecx, DWORD PTR _pparams$[ebp]
	call	??BVector@@QAEPAMXZ			; Vector::operator float *
	mov	esi, eax
	mov	edi, 4
	shl	edi, 0
	mov	ecx, OFFSET ?v_origin@@3VVector@@A	; v_origin
	call	??BVector@@QAEPAMXZ			; Vector::operator float *
	mov	edx, 4
	shl	edx, 0
	mov	ecx, DWORD PTR [esi+edi]
	mov	DWORD PTR [eax+edx], ecx
	mov	ecx, OFFSET ?v_origin@@3VVector@@A	; v_origin
	call	??BVector@@QAEPAMXZ			; Vector::operator float *
	mov	edx, 4
	shl	edx, 1
	add	eax, edx
	mov	DWORD PTR tv222[ebp], eax
	mov	esi, 4
	shl	esi, 1
	mov	ecx, DWORD PTR _pparams$[ebp]
	call	??BVector@@QAEPAMXZ			; Vector::operator float *
	mov	ecx, DWORD PTR tv222[ebp]
	mov	edx, DWORD PTR [eax+esi]
	mov	DWORD PTR [ecx], edx

; 685  : 
; 686  : 	if ((g_iUser1 == OBS_IN_EYE /*|| gHUD.m_Spectator.m_pip->value == INSET_IN_EYE*/) && ent)

	cmp	DWORD PTR ?g_iUser1@@3HA, 4		; g_iUser1
	jne	$LN8@V_CalcSpec
	cmp	DWORD PTR _ent$[ebp], 0
	je	$LN8@V_CalcSpec

; 687  : 	{
; 688  : 		// calculate player velocity
; 689  : 		float timeDiff = ent->curstate.msg_time - ent->prevstate.msg_time;

	mov	eax, DWORD PTR _ent$[ebp]
	mov	ecx, DWORD PTR _ent$[ebp]
	movss	xmm0, DWORD PTR [eax+696]
	subss	xmm0, DWORD PTR [ecx+356]
	movss	DWORD PTR _timeDiff$5[ebp], xmm0

; 690  : 
; 691  : 		if (timeDiff > 0)

	movss	xmm0, DWORD PTR _timeDiff$5[ebp]
	comiss	xmm0, DWORD PTR __real@00000000
	jbe	$LN6@V_CalcSpec

; 692  : 		{
; 693  : 			vec3_t distance;

	lea	ecx, DWORD PTR _distance$4[ebp]
	call	??0Vector@@QAE@XZ			; Vector::Vector

; 694  : 			VectorSubtract(ent->prevstate.origin, ent->curstate.origin, distance);

	mov	ecx, DWORD PTR _ent$[ebp]
	add	ecx, 364				; 0000016cH
	call	??BVector@@QAEPAMXZ			; Vector::operator float *
	mov	esi, eax
	mov	eax, 4
	imul	edi, eax, 0
	mov	ecx, DWORD PTR _ent$[ebp]
	add	ecx, 704				; 000002c0H
	call	??BVector@@QAEPAMXZ			; Vector::operator float *
	mov	ecx, 4
	imul	edx, ecx, 0
	movss	xmm0, DWORD PTR [esi+edi]
	subss	xmm0, DWORD PTR [eax+edx]
	lea	ecx, DWORD PTR _distance$4[ebp]
	movss	DWORD PTR tv903[ebp], xmm0
	call	??BVector@@QAEPAMXZ			; Vector::operator float *
	mov	ecx, 4
	imul	edx, ecx, 0
	movss	xmm0, DWORD PTR tv903[ebp]
	movss	DWORD PTR [eax+edx], xmm0
	mov	ecx, DWORD PTR _ent$[ebp]
	add	ecx, 364				; 0000016cH
	call	??BVector@@QAEPAMXZ			; Vector::operator float *
	mov	esi, eax
	mov	edi, 4
	shl	edi, 0
	mov	ecx, DWORD PTR _ent$[ebp]
	add	ecx, 704				; 000002c0H
	call	??BVector@@QAEPAMXZ			; Vector::operator float *
	mov	ecx, 4
	shl	ecx, 0
	movss	xmm0, DWORD PTR [esi+edi]
	subss	xmm0, DWORD PTR [eax+ecx]
