; Listing generated by Microsoft (R) Optimizing Compiler Version 19.00.24247.2 

	TITLE	D:\!DIFFUSION 2020\source code 2022\client-server\common\virtualfs.cpp
	.686P
	.XMM
	include listing.inc
	.model	flat

INCLUDELIB LIBCMT
INCLUDELIB OLDNAMES

PUBLIC	??_H@YGXPAXIIP6EPAX0@Z@Z			; `vector constructor iterator'
PUBLIC	??__G@YGXPAX0IIP6EPAX00@Z@Z			; `vector copy constructor iterator'
PUBLIC	??0CVirtualFS@@QAE@XZ				; CVirtualFS::CVirtualFS
PUBLIC	??0CVirtualFS@@QAE@PBEI@Z			; CVirtualFS::CVirtualFS
PUBLIC	??1CVirtualFS@@QAE@XZ				; CVirtualFS::~CVirtualFS
PUBLIC	?Read@CVirtualFS@@QAEIPADI@Z			; CVirtualFS::Read
PUBLIC	?Write@CVirtualFS@@QAEIPBXI@Z			; CVirtualFS::Write
PUBLIC	?Insert@CVirtualFS@@QAEIPBXI@Z			; CVirtualFS::Insert
PUBLIC	?Print@CVirtualFS@@QAEIPBD@Z			; CVirtualFS::Print
PUBLIC	?IPrint@CVirtualFS@@QAEIPBD@Z			; CVirtualFS::IPrint
PUBLIC	?Printf@CVirtualFS@@QAAIPBDZZ			; CVirtualFS::Printf
PUBLIC	?IPrintf@CVirtualFS@@QAAIPBDZZ			; CVirtualFS::IPrintf
PUBLIC	?VPrintf@CVirtualFS@@QAEIPBDPAD@Z		; CVirtualFS::VPrintf
PUBLIC	?IVPrintf@CVirtualFS@@QAEIPBDPAD@Z		; CVirtualFS::IVPrintf
PUBLIC	?Seek@CVirtualFS@@QAEHIH@Z			; CVirtualFS::Seek
PUBLIC	?Gets@CVirtualFS@@QAEHPADI@Z			; CVirtualFS::Gets
PUBLIC	?Getc@CVirtualFS@@QAEHXZ			; CVirtualFS::Getc
PUBLIC	??$__vcrt_va_start_verify_argument_type@PBD@@YAXXZ ; __vcrt_va_start_verify_argument_type<char const *>
EXTRN	??_U@YAPAXI@Z:PROC				; operator new[]
EXTRN	??_V@YAXPAX@Z:PROC				; operator delete[]
EXTRN	_memcpy:PROC
EXTRN	_memset:PROC
EXTRN	_realloc:PROC
EXTRN	?Q_strlen@@YAHPBD@Z:PROC			; Q_strlen
EXTRN	?Q_vsnprintf@@YAHPADIPBD0@Z:PROC		; Q_vsnprintf
; Function compile flags: /Odtp /ZI
; File c:\program files (x86)\microsoft visual studio 14.0\vc\include\vadefs.h
;	COMDAT ??$__vcrt_va_start_verify_argument_type@PBD@@YAXXZ
_TEXT	SEGMENT
??$__vcrt_va_start_verify_argument_type@PBD@@YAXXZ PROC	; __vcrt_va_start_verify_argument_type<char const *>, COMDAT

; 144  :         {

	push	ebp
	mov	ebp, esp
	sub	esp, 64					; 00000040H
	push	ebx
	push	esi
	push	edi

; 145  :             static_assert(!__vcrt_va_list_is_reference<_Ty>::__the_value, "va_start argument must not have reference type and must not be parenthesized");
; 146  :         }

	pop	edi
	pop	esi
	pop	ebx
	mov	esp, ebp
	pop	ebp
	ret	0
??$__vcrt_va_start_verify_argument_type@PBD@@YAXXZ ENDP	; __vcrt_va_start_verify_argument_type<char const *>
_TEXT	ENDS
; Function compile flags: /Odtp /ZI
; File d:\!diffusion 2020\source code 2022\client-server\common\virtualfs.cpp
;	COMDAT ?Getc@CVirtualFS@@QAEHXZ
_TEXT	SEGMENT
_c$ = -5						; size = 1
_this$ = -4						; size = 4
?Getc@CVirtualFS@@QAEHXZ PROC				; CVirtualFS::Getc, COMDAT
; _this$ = ecx

; 212  : {

	push	ebp
	mov	ebp, esp
	sub	esp, 72					; 00000048H
	push	ebx
	push	esi
	push	edi
	mov	DWORD PTR _this$[ebp], ecx

; 213  : 	char c;
; 214  : 
; 215  : 	if( !Read( &c, 1 ) )

	push	1
	lea	eax, DWORD PTR _c$[ebp]
	push	eax
	mov	ecx, DWORD PTR _this$[ebp]
	call	?Read@CVirtualFS@@QAEIPADI@Z		; CVirtualFS::Read
	test	eax, eax
	jne	SHORT $LN2@Getc

; 216  : 		return EOF;

	or	eax, -1
	jmp	SHORT $LN1@Getc
$LN2@Getc:

; 217  : 	return (byte)c;

	movzx	eax, BYTE PTR _c$[ebp]
$LN1@Getc:

; 218  : }

	pop	edi
	pop	esi
	pop	ebx
	mov	esp, ebp
	pop	ebp
	ret	0
?Getc@CVirtualFS@@QAEHXZ ENDP				; CVirtualFS::Getc
_TEXT	ENDS
; Function compile flags: /Odtp /ZI
; File d:\!diffusion 2020\source code 2022\client-server\common\virtualfs.cpp
;	COMDAT ?Gets@CVirtualFS@@QAEHPADI@Z
_TEXT	SEGMENT
_c$ = -12						; size = 4
_end$ = -8						; size = 4
_this$ = -4						; size = 4
_string$ = 8						; size = 4
_size$ = 12						; size = 4
?Gets@CVirtualFS@@QAEHPADI@Z PROC			; CVirtualFS::Gets, COMDAT
; _this$ = ecx

; 221  : {

	push	ebp
	mov	ebp, esp
	sub	esp, 76					; 0000004cH
	push	ebx
	push	esi
	push	edi
	mov	DWORD PTR _this$[ebp], ecx

; 222  : 	size_t	end = 0;

	mov	DWORD PTR _end$[ebp], 0
$LN2@Gets:

; 223  : 	int	c;
; 224  : 
; 225  : 	while( 1 )

	mov	eax, 1
	test	eax, eax
	je	SHORT $LN3@Gets

; 226  : 	{
; 227  : 		c = Getc();

	mov	ecx, DWORD PTR _this$[ebp]
	call	?Getc@CVirtualFS@@QAEHXZ		; CVirtualFS::Getc
	mov	DWORD PTR _c$[ebp], eax

; 228  : 
; 229  : 		if( c == '\r' || c == '\n' || c < 0 )

	cmp	DWORD PTR _c$[ebp], 13			; 0000000dH
	je	SHORT $LN5@Gets
	cmp	DWORD PTR _c$[ebp], 10			; 0000000aH
	je	SHORT $LN5@Gets
	cmp	DWORD PTR _c$[ebp], 0
	jge	SHORT $LN4@Gets
$LN5@Gets:

; 230  : 			break;

	jmp	SHORT $LN3@Gets
$LN4@Gets:

; 231  : 
; 232  : 		if( end < (size - 1) )

	mov	eax, DWORD PTR _size$[ebp]
	sub	eax, 1
	cmp	DWORD PTR _end$[ebp], eax
	jae	SHORT $LN6@Gets

; 233  : 			string[end++] = c;

	mov	eax, DWORD PTR _string$[ebp]
	add	eax, DWORD PTR _end$[ebp]
	mov	cl, BYTE PTR _c$[ebp]
	mov	BYTE PTR [eax], cl
	mov	edx, DWORD PTR _end$[ebp]
	add	edx, 1
	mov	DWORD PTR _end$[ebp], edx
$LN6@Gets:

; 234  : 	}

	jmp	SHORT $LN2@Gets
$LN3@Gets:

; 235  : 
; 236  : 	string[end] = 0;

	mov	eax, DWORD PTR _string$[ebp]
	add	eax, DWORD PTR _end$[ebp]
	mov	BYTE PTR [eax], 0

; 237  : 
; 238  : 	// remove \n following \r
; 239  : 	if( c == '\r' )

	cmp	DWORD PTR _c$[ebp], 13			; 0000000dH
	jne	SHORT $LN7@Gets

; 240  : 	{
; 241  : 		c = Getc();

	mov	ecx, DWORD PTR _this$[ebp]
	call	?Getc@CVirtualFS@@QAEHXZ		; CVirtualFS::Getc
	mov	DWORD PTR _c$[ebp], eax

; 242  : 		if( c != '\n' ) Seek( -1, SEEK_CUR ); // rewind

	cmp	DWORD PTR _c$[ebp], 10			; 0000000aH
	je	SHORT $LN7@Gets
	push	1
	push	-1
	mov	ecx, DWORD PTR _this$[ebp]
	call	?Seek@CVirtualFS@@QAEHIH@Z		; CVirtualFS::Seek
$LN7@Gets:

; 243  : 	}
; 244  : 
; 245  : 	return c;

	mov	eax, DWORD PTR _c$[ebp]

; 246  : }

	pop	edi
	pop	esi
	pop	ebx
	mov	esp, ebp
	pop	ebp
	ret	8
?Gets@CVirtualFS@@QAEHPADI@Z ENDP			; CVirtualFS::Gets
_TEXT	ENDS
; Function compile flags: /Odtp /ZI
; File d:\!diffusion 2020\source code 2022\client-server\common\virtualfs.cpp
;	COMDAT ?Seek@CVirtualFS@@QAEHIH@Z
_TEXT	SEGMENT
tv64 = -72						; size = 4
_this$ = -4						; size = 4
_offset$ = 8						; size = 4
_whence$ = 12						; size = 4
?Seek@CVirtualFS@@QAEHIH@Z PROC				; CVirtualFS::Seek, COMDAT
; _this$ = ecx

; 249  : {

	push	ebp
	mov	ebp, esp
	sub	esp, 72					; 00000048H
	push	ebx
	push	esi
	push	edi
	mov	DWORD PTR _this$[ebp], ecx

; 250  : 	// Compute the file offset
; 251  : 	switch( whence )

	mov	eax, DWORD PTR _whence$[ebp]
	mov	DWORD PTR tv64[ebp], eax
	cmp	DWORD PTR tv64[ebp], 0
	je	SHORT $LN5@Seek
	cmp	DWORD PTR tv64[ebp], 1
	je	SHORT $LN4@Seek
	cmp	DWORD PTR tv64[ebp], 2
	je	SHORT $LN6@Seek
	jmp	SHORT $LN7@Seek
$LN4@Seek:

; 252  : 	{
; 253  : 	case SEEK_CUR:
; 254  : 		offset += m_iOffset;

	mov	eax, DWORD PTR _this$[ebp]
	mov	ecx, DWORD PTR _offset$[ebp]
	add	ecx, DWORD PTR [eax+8]
	mov	DWORD PTR _offset$[ebp], ecx

; 255  : 		break;

	jmp	SHORT $LN2@Seek
$LN5@Seek:

; 256  : 	case SEEK_SET:
; 257  : 		break;

	jmp	SHORT $LN2@Seek
$LN6@Seek:

; 258  : 	case SEEK_END:
; 259  : 		offset += m_iLength;

	mov	eax, DWORD PTR _this$[ebp]
	mov	ecx, DWORD PTR _offset$[ebp]
	add	ecx, DWORD PTR [eax+12]
	mov	DWORD PTR _offset$[ebp], ecx

; 260  : 		break;

	jmp	SHORT $LN2@Seek
$LN7@Seek:

; 261  : 	default:
; 262  : 		return -1;

	or	eax, -1
	jmp	SHORT $LN1@Seek
$LN2@Seek:

; 263  : 	}
; 264  : 
; 265  : 	if( (offset < 0) || (offset > m_iLength) )

	cmp	DWORD PTR _offset$[ebp], 0
	jb	SHORT $LN9@Seek
	mov	eax, DWORD PTR _this$[ebp]
	mov	ecx, DWORD PTR _offset$[ebp]
	cmp	ecx, DWORD PTR [eax+12]
	jbe	SHORT $LN8@Seek
$LN9@Seek:

; 266  : 		return -1;

	or	eax, -1
	jmp	SHORT $LN1@Seek
$LN8@Seek:

; 267  : 
; 268  : 	m_iOffset = offset;

	mov	eax, DWORD PTR _this$[ebp]
	mov	ecx, DWORD PTR _offset$[ebp]
	mov	DWORD PTR [eax+8], ecx

; 269  : 
; 270  : 	return 0;

	xor	eax, eax
$LN1@Seek:

; 271  : }

	pop	edi
	pop	esi
	pop	ebx
	mov	esp, ebp
	pop	ebp
	ret	8
?Seek@CVirtualFS@@QAEHIH@Z ENDP				; CVirtualFS::Seek
_TEXT	ENDS
; Function compile flags: /Odtp /ZI
; File d:\!diffusion 2020\source code 2022\client-server\common\virtualfs.cpp
;	COMDAT ?IVPrintf@CVirtualFS@@QAEIPBDPAD@Z
_TEXT	SEGMENT
$T1 = -92						; size = 4
$T2 = -88						; size = 4
$T3 = -84						; size = 4
_len$ = -16						; size = 4
_tempbuff$ = -12					; size = 4
_buff_size$ = -8					; size = 4
_this$ = -4						; size = 4
_fmt$ = 8						; size = 4
_ap$ = 12						; size = 4
?IVPrintf@CVirtualFS@@QAEIPBDPAD@Z PROC			; CVirtualFS::IVPrintf, COMDAT
; _this$ = ecx

; 190  : {

	push	ebp
	mov	ebp, esp
	sub	esp, 92					; 0000005cH
	push	ebx
	push	esi
	push	edi
	mov	DWORD PTR _this$[ebp], ecx

; 191  : 	size_t	buff_size = FS_MSG_BLOCK;

	mov	DWORD PTR _buff_size$[ebp], 8192	; 00002000H
$LN2@IVPrintf:

; 192  : 	char *tempbuff;
; 193  : 	size_t	len;
; 194  : 
; 195  : 	while( 1 )

	mov	eax, 1
	test	eax, eax
	je	SHORT $LN3@IVPrintf

; 196  : 	{
; 197  : 		tempbuff = new char[buff_size];

	mov	eax, DWORD PTR _buff_size$[ebp]
	push	eax
	call	??_U@YAPAXI@Z				; operator new[]
	add	esp, 4
	mov	DWORD PTR $T3[ebp], eax
	mov	ecx, DWORD PTR $T3[ebp]
	mov	DWORD PTR _tempbuff$[ebp], ecx

; 198  : 		len = Q_vsprintf( tempbuff, fmt, ap );

	mov	eax, DWORD PTR _ap$[ebp]
	push	eax
	mov	ecx, DWORD PTR _fmt$[ebp]
	push	ecx
	push	99999					; 0001869fH
	mov	edx, DWORD PTR _tempbuff$[ebp]
	push	edx
	call	?Q_vsnprintf@@YAHPADIPBD0@Z		; Q_vsnprintf
	add	esp, 16					; 00000010H
	mov	DWORD PTR _len$[ebp], eax

; 199  : 		if( len >= 0 && len < buff_size )

	cmp	DWORD PTR _len$[ebp], 0
	jb	SHORT $LN4@IVPrintf
	mov	eax, DWORD PTR _len$[ebp]
	cmp	eax, DWORD PTR _buff_size$[ebp]
	jae	SHORT $LN4@IVPrintf

; 200  : 			break;

	jmp	SHORT $LN3@IVPrintf
$LN4@IVPrintf:

; 201  : 		delete[] tempbuff;

	mov	eax, DWORD PTR _tempbuff$[ebp]
	mov	DWORD PTR $T2[ebp], eax
	mov	ecx, DWORD PTR $T2[ebp]
	push	ecx
	call	??_V@YAXPAX@Z				; operator delete[]
	add	esp, 4

; 202  : 		buff_size <<= 1;

	mov	eax, DWORD PTR _buff_size$[ebp]
	shl	eax, 1
	mov	DWORD PTR _buff_size$[ebp], eax

; 203  : 	}

	jmp	SHORT $LN2@IVPrintf
$LN3@IVPrintf:

; 204  : 
; 205  : 	len = Insert( tempbuff, len );

	mov	eax, DWORD PTR _len$[ebp]
	push	eax
	mov	ecx, DWORD PTR _tempbuff$[ebp]
	push	ecx
	mov	ecx, DWORD PTR _this$[ebp]
	call	?Insert@CVirtualFS@@QAEIPBXI@Z		; CVirtualFS::Insert
	mov	DWORD PTR _len$[ebp], eax

; 206  : 	delete[] tempbuff;

	mov	eax, DWORD PTR _tempbuff$[ebp]
	mov	DWORD PTR $T1[ebp], eax
	mov	ecx, DWORD PTR $T1[ebp]
	push	ecx
	call	??_V@YAXPAX@Z				; operator delete[]
	add	esp, 4

; 207  : 
; 208  : 	return len;

	mov	eax, DWORD PTR _len$[ebp]

; 209  : }

	pop	edi
	pop	esi
	pop	ebx
	mov	esp, ebp
	pop	ebp
	ret	8
?IVPrintf@CVirtualFS@@QAEIPBDPAD@Z ENDP			; CVirtualFS::IVPrintf
_TEXT	ENDS
; Function compile flags: /Odtp /ZI
; File d:\!diffusion 2020\source code 2022\client-server\common\virtualfs.cpp
;	COMDAT ?VPrintf@CVirtualFS@@QAEIPBDPAD@Z
_TEXT	SEGMENT
$T1 = -92						; size = 4
$T2 = -88						; size = 4
$T3 = -84						; size = 4
_len$ = -16						; size = 4
_tempbuff$ = -12					; size = 4
_buff_size$ = -8					; size = 4
_this$ = -4						; size = 4
_fmt$ = 8						; size = 4
_ap$ = 12						; size = 4
?VPrintf@CVirtualFS@@QAEIPBDPAD@Z PROC			; CVirtualFS::VPrintf, COMDAT
; _this$ = ecx

; 168  : {

	push	ebp
	mov	ebp, esp
	sub	esp, 92					; 0000005cH
	push	ebx
	push	esi
	push	edi
	mov	DWORD PTR _this$[ebp], ecx

; 169  : 	size_t	buff_size = FS_MSG_BLOCK;

	mov	DWORD PTR _buff_size$[ebp], 8192	; 00002000H
$LN2@VPrintf:

; 170  : 	char *tempbuff;
; 171  : 	size_t	len;
; 172  : 
; 173  : 	while( 1 )

	mov	eax, 1
	test	eax, eax
	je	SHORT $LN3@VPrintf

; 174  : 	{
; 175  : 		tempbuff = new char[buff_size];

	mov	eax, DWORD PTR _buff_size$[ebp]
	push	eax
	call	??_U@YAPAXI@Z				; operator new[]
	add	esp, 4
	mov	DWORD PTR $T3[ebp], eax
	mov	ecx, DWORD PTR $T3[ebp]
	mov	DWORD PTR _tempbuff$[ebp], ecx

; 176  : 		len = Q_vsprintf( tempbuff, fmt, ap );

	mov	eax, DWORD PTR _ap$[ebp]
	push	eax
	mov	ecx, DWORD PTR _fmt$[ebp]
	push	ecx
	push	99999					; 0001869fH
	mov	edx, DWORD PTR _tempbuff$[ebp]
	push	edx
	call	?Q_vsnprintf@@YAHPADIPBD0@Z		; Q_vsnprintf
	add	esp, 16					; 00000010H
	mov	DWORD PTR _len$[ebp], eax

; 177  : 		if( len >= 0 && len < buff_size )

	cmp	DWORD PTR _len$[ebp], 0
	jb	SHORT $LN4@VPrintf
	mov	eax, DWORD PTR _len$[ebp]
	cmp	eax, DWORD PTR _buff_size$[ebp]
	jae	SHORT $LN4@VPrintf

; 178  : 			break;

	jmp	SHORT $LN3@VPrintf
$LN4@VPrintf:

; 179  : 		delete[] tempbuff;

	mov	eax, DWORD PTR _tempbuff$[ebp]
	mov	DWORD PTR $T2[ebp], eax
	mov	ecx, DWORD PTR $T2[ebp]
	push	ecx
	call	??_V@YAXPAX@Z				; operator delete[]
	add	esp, 4

; 180  : 		buff_size <<= 1;

	mov	eax, DWORD PTR _buff_size$[ebp]
	shl	eax, 1
	mov	DWORD PTR _buff_size$[ebp], eax

; 181  : 	}

	jmp	SHORT $LN2@VPrintf
$LN3@VPrintf:

; 182  : 
; 183  : 	len = Write( tempbuff, len );

	mov	eax, DWORD PTR _len$[ebp]
	push	eax
	mov	ecx, DWORD PTR _tempbuff$[ebp]
	push	ecx
	mov	ecx, DWORD PTR _this$[ebp]
	call	?Write@CVirtualFS@@QAEIPBXI@Z		; CVirtualFS::Write
	mov	DWORD PTR _len$[ebp], eax

; 184  : 	delete[] tempbuff;

	mov	eax, DWORD PTR _tempbuff$[ebp]
	mov	DWORD PTR $T1[ebp], eax
	mov	ecx, DWORD PTR $T1[ebp]
	push	ecx
	call	??_V@YAXPAX@Z				; operator delete[]
	add	esp, 4

; 185  : 
; 186  : 	return len;

	mov	eax, DWORD PTR _len$[ebp]

; 187  : }

	pop	edi
	pop	esi
	pop	ebx
	mov	esp, ebp
	pop	ebp
	ret	8
?VPrintf@CVirtualFS@@QAEIPBDPAD@Z ENDP			; CVirtualFS::VPrintf
_TEXT	ENDS
; Function compile flags: /Odtp /ZI
; File d:\!diffusion 2020\source code 2022\client-server\common\virtualfs.cpp
;	COMDAT ?IPrintf@CVirtualFS@@QAAIPBDZZ
_TEXT	SEGMENT
_args$ = -8						; size = 4
_result$ = -4						; size = 4
_this$ = 8						; size = 4
_fmt$ = 12						; size = 4
?IPrintf@CVirtualFS@@QAAIPBDZZ PROC			; CVirtualFS::IPrintf, COMDAT

; 156  : {

	push	ebp
	mov	ebp, esp
	sub	esp, 72					; 00000048H
	push	ebx
	push	esi
	push	edi

; 157  : 	size_t result;
; 158  : 	va_list args;
; 159  : 
; 160  : 	va_start( args, fmt );

	call	??$__vcrt_va_start_verify_argument_type@PBD@@YAXXZ ; __vcrt_va_start_verify_argument_type<char const *>
	lea	eax, DWORD PTR _fmt$[ebp+4]
	mov	DWORD PTR _args$[ebp], eax

; 161  : 	result = IVPrintf( fmt, args );

	mov	eax, DWORD PTR _args$[ebp]
	push	eax
	mov	ecx, DWORD PTR _fmt$[ebp]
	push	ecx
	mov	ecx, DWORD PTR _this$[ebp]
	call	?IVPrintf@CVirtualFS@@QAEIPBDPAD@Z	; CVirtualFS::IVPrintf
	mov	DWORD PTR _result$[ebp], eax

; 162  : 	va_end( args );

	mov	DWORD PTR _args$[ebp], 0

; 163  : 
; 164  : 	return result;

	mov	eax, DWORD PTR _result$[ebp]

; 165  : }

	pop	edi
	pop	esi
	pop	ebx
	mov	esp, ebp
	pop	ebp
	ret	0
?IPrintf@CVirtualFS@@QAAIPBDZZ ENDP			; CVirtualFS::IPrintf
_TEXT	ENDS
; Function compile flags: /Odtp /ZI
; File d:\!diffusion 2020\source code 2022\client-server\common\virtualfs.cpp
;	COMDAT ?Printf@CVirtualFS@@QAAIPBDZZ
_TEXT	SEGMENT
_args$ = -8						; size = 4
_result$ = -4						; size = 4
_this$ = 8						; size = 4
_fmt$ = 12						; size = 4
?Printf@CVirtualFS@@QAAIPBDZZ PROC			; CVirtualFS::Printf, COMDAT

; 144  : {

	push	ebp
	mov	ebp, esp
	sub	esp, 72					; 00000048H
	push	ebx
	push	esi
	push	edi

; 145  : 	size_t result;
; 146  : 	va_list args;
; 147  : 
; 148  : 	va_start( args, fmt );

	call	??$__vcrt_va_start_verify_argument_type@PBD@@YAXXZ ; __vcrt_va_start_verify_argument_type<char const *>
	lea	eax, DWORD PTR _fmt$[ebp+4]
	mov	DWORD PTR _args$[ebp], eax

; 149  : 	result = VPrintf( fmt, args );

	mov	eax, DWORD PTR _args$[ebp]
	push	eax
	mov	ecx, DWORD PTR _fmt$[ebp]
	push	ecx
	mov	ecx, DWORD PTR _this$[ebp]
	call	?VPrintf@CVirtualFS@@QAEIPBDPAD@Z	; CVirtualFS::VPrintf
	mov	DWORD PTR _result$[ebp], eax

; 150  : 	va_end( args );

	mov	DWORD PTR _args$[ebp], 0

; 151  : 
; 152  : 	return result;

	mov	eax, DWORD PTR _result$[ebp]

; 153  : }

	pop	edi
	pop	esi
	pop	ebx
	mov	esp, ebp
	pop	ebp
	ret	0
?Printf@CVirtualFS@@QAAIPBDZZ ENDP			; CVirtualFS::Printf
_TEXT	ENDS
; Function compile flags: /Odtp /ZI
; File d:\!diffusion 2020\source code 2022\client-server\common\virtualfs.cpp
;	COMDAT ?IPrint@CVirtualFS@@QAEIPBD@Z
_TEXT	SEGMENT
_this$ = -4						; size = 4
_message$ = 8						; size = 4
?IPrint@CVirtualFS@@QAEIPBD@Z PROC			; CVirtualFS::IPrint, COMDAT
; _this$ = ecx

; 139  : {

	push	ebp
	mov	ebp, esp
	sub	esp, 68					; 00000044H
	push	ebx
	push	esi
	push	edi
	mov	DWORD PTR _this$[ebp], ecx

; 140  : 	return Insert( message, Q_strlen( message ) );

	mov	eax, DWORD PTR _message$[ebp]
	push	eax
	call	?Q_strlen@@YAHPBD@Z			; Q_strlen
	add	esp, 4
	push	eax
	mov	ecx, DWORD PTR _message$[ebp]
	push	ecx
	mov	ecx, DWORD PTR _this$[ebp]
	call	?Insert@CVirtualFS@@QAEIPBXI@Z		; CVirtualFS::Insert

; 141  : }

	pop	edi
	pop	esi
	pop	ebx
	mov	esp, ebp
	pop	ebp
	ret	4
?IPrint@CVirtualFS@@QAEIPBD@Z ENDP			; CVirtualFS::IPrint
_TEXT	ENDS
; Function compile flags: /Odtp /ZI
; File d:\!diffusion 2020\source code 2022\client-server\common\virtualfs.cpp
;	COMDAT ?Print@CVirtualFS@@QAEIPBD@Z
_TEXT	SEGMENT
_this$ = -4						; size = 4
_message$ = 8						; size = 4
?Print@CVirtualFS@@QAEIPBD@Z PROC			; CVirtualFS::Print, COMDAT
; _this$ = ecx

; 134  : {

	push	ebp
	mov	ebp, esp
	sub	esp, 68					; 00000044H
	push	ebx
	push	esi
	push	edi
	mov	DWORD PTR _this$[ebp], ecx

; 135  : 	return Write( message, Q_strlen( message ) );

	mov	eax, DWORD PTR _message$[ebp]
	push	eax
	call	?Q_strlen@@YAHPBD@Z			; Q_strlen
	add	esp, 4
	push	eax
	mov	ecx, DWORD PTR _message$[ebp]
	push	ecx
	mov	ecx, DWORD PTR _this$[ebp]
	call	?Write@CVirtualFS@@QAEIPBXI@Z		; CVirtualFS::Write

; 136  : }

	pop	edi
	pop	esi
	pop	ebx
	mov	esp, ebp
	pop	ebp
	ret	4
?Print@CVirtualFS@@QAEIPBD@Z ENDP			; CVirtualFS::Print
_TEXT	ENDS
; Function compile flags: /Odtp /ZI
; File d:\!diffusion 2020\source code 2022\client-server\common\virtualfs.cpp
;	COMDAT ?Insert@CVirtualFS@@QAEIPBXI@Z
_TEXT	SEGMENT
$T1 = -88						; size = 4
$T2 = -84						; size = 4
_backup$ = -16						; size = 4
_rp_size$ = -12						; size = 4
_newsize$3 = -8						; size = 4
_this$ = -4						; size = 4
_in$ = 8						; size = 4
_size$ = 12						; size = 4
?Insert@CVirtualFS@@QAEIPBXI@Z PROC			; CVirtualFS::Insert, COMDAT
; _this$ = ecx

; 98   : {

	push	ebp
	mov	ebp, esp
	sub	esp, 88					; 00000058H
	push	ebx
	push	esi
	push	edi
	mov	DWORD PTR _this$[ebp], ecx

; 99   : 	if( !m_pBuffer ) return -1;

	mov	eax, DWORD PTR _this$[ebp]
	cmp	DWORD PTR [eax], 0
	jne	SHORT $LN2@Insert
	or	eax, -1
	jmp	$LN1@Insert
$LN2@Insert:

; 100  : 
; 101  : 	if( m_iLength + size >= m_iBuffSize )

	mov	eax, DWORD PTR _this$[ebp]
	mov	ecx, DWORD PTR [eax+12]
	add	ecx, DWORD PTR _size$[ebp]
	mov	edx, DWORD PTR _this$[ebp]
	cmp	ecx, DWORD PTR [edx+4]
	jb	SHORT $LN3@Insert

; 102  : 	{
; 103  : 		size_t newsize = m_iLength + size + FS_MEM_BLOCK;

	mov	eax, DWORD PTR _this$[ebp]
	mov	ecx, DWORD PTR [eax+12]
	mov	edx, DWORD PTR _size$[ebp]
	lea	eax, DWORD PTR [ecx+edx+65535]
	mov	DWORD PTR _newsize$3[ebp], eax

; 104  : 
; 105  : 		if( m_iBuffSize < newsize )

	mov	eax, DWORD PTR _this$[ebp]
	mov	ecx, DWORD PTR [eax+4]
	cmp	ecx, DWORD PTR _newsize$3[ebp]
	jae	SHORT $LN3@Insert

; 106  : 		{
; 107  : 			// reallocate buffer now
; 108  : 			m_pBuffer = (byte *)realloc( m_pBuffer, newsize );

	mov	eax, DWORD PTR _newsize$3[ebp]
	push	eax
	mov	ecx, DWORD PTR _this$[ebp]
	mov	edx, DWORD PTR [ecx]
	push	edx
	call	_realloc
	add	esp, 8
	mov	ecx, DWORD PTR _this$[ebp]
	mov	DWORD PTR [ecx], eax

; 109  : 			memset( m_pBuffer + m_iBuffSize, 0, newsize - m_iBuffSize );

	mov	eax, DWORD PTR _this$[ebp]
	mov	ecx, DWORD PTR _newsize$3[ebp]
	sub	ecx, DWORD PTR [eax+4]
	push	ecx
	push	0
	mov	edx, DWORD PTR _this$[ebp]
	mov	eax, DWORD PTR [edx]
	mov	ecx, DWORD PTR _this$[ebp]
	add	eax, DWORD PTR [ecx+4]
	push	eax
	call	_memset
	add	esp, 12					; 0000000cH

; 110  : 			m_iBuffSize = newsize; // update buffsize

	mov	eax, DWORD PTR _this$[ebp]
	mov	ecx, DWORD PTR _newsize$3[ebp]
	mov	DWORD PTR [eax+4], ecx
$LN3@Insert:

; 111  : 		}
; 112  : 	}
; 113  : 
; 114  : 	// backup right part
; 115  : 	size_t rp_size = m_iLength - m_iOffset;

	mov	eax, DWORD PTR _this$[ebp]
	mov	ecx, DWORD PTR _this$[ebp]
	mov	edx, DWORD PTR [eax+12]
	sub	edx, DWORD PTR [ecx+8]
	mov	DWORD PTR _rp_size$[ebp], edx

; 116  : 	byte *backup = new byte[rp_size];

	mov	eax, DWORD PTR _rp_size$[ebp]
	push	eax
	call	??_U@YAPAXI@Z				; operator new[]
	add	esp, 4
	mov	DWORD PTR $T2[ebp], eax
	mov	ecx, DWORD PTR $T2[ebp]
	mov	DWORD PTR _backup$[ebp], ecx

; 117  : 	memcpy( backup, m_pBuffer + m_iOffset, rp_size );

	mov	eax, DWORD PTR _rp_size$[ebp]
	push	eax
	mov	ecx, DWORD PTR _this$[ebp]
	mov	edx, DWORD PTR [ecx]
	mov	eax, DWORD PTR _this$[ebp]
	add	edx, DWORD PTR [eax+8]
	push	edx
	mov	ecx, DWORD PTR _backup$[ebp]
	push	ecx
	call	_memcpy
	add	esp, 12					; 0000000cH

; 118  : 
; 119  : 	// insert into buffer
; 120  : 	memcpy( m_pBuffer + m_iOffset, in, size );

	mov	eax, DWORD PTR _size$[ebp]
	push	eax
	mov	ecx, DWORD PTR _in$[ebp]
	push	ecx
	mov	edx, DWORD PTR _this$[ebp]
	mov	eax, DWORD PTR [edx]
	mov	ecx, DWORD PTR _this$[ebp]
	add	eax, DWORD PTR [ecx+8]
	push	eax
	call	_memcpy
	add	esp, 12					; 0000000cH

; 121  : 	m_iOffset += size;

	mov	eax, DWORD PTR _this$[ebp]
	mov	ecx, DWORD PTR [eax+8]
	add	ecx, DWORD PTR _size$[ebp]
	mov	edx, DWORD PTR _this$[ebp]
	mov	DWORD PTR [edx+8], ecx

; 122  : 
; 123  : 	// write right part buffer
; 124  : 	memcpy( m_pBuffer + m_iOffset, backup, rp_size );

	mov	eax, DWORD PTR _rp_size$[ebp]
	push	eax
	mov	ecx, DWORD PTR _backup$[ebp]
	push	ecx
	mov	edx, DWORD PTR _this$[ebp]
	mov	eax, DWORD PTR [edx]
	mov	ecx, DWORD PTR _this$[ebp]
	add	eax, DWORD PTR [ecx+8]
	push	eax
	call	_memcpy
	add	esp, 12					; 0000000cH

; 125  : 	delete[] backup;

	mov	eax, DWORD PTR _backup$[ebp]
	mov	DWORD PTR $T1[ebp], eax
	mov	ecx, DWORD PTR $T1[ebp]
	push	ecx
	call	??_V@YAXPAX@Z				; operator delete[]
	add	esp, 4

; 126  : 
; 127  : 	if( (m_iOffset + rp_size) > m_iLength )

	mov	eax, DWORD PTR _this$[ebp]
	mov	ecx, DWORD PTR [eax+8]
	add	ecx, DWORD PTR _rp_size$[ebp]
	mov	edx, DWORD PTR _this$[ebp]
	cmp	ecx, DWORD PTR [edx+12]
	jbe	SHORT $LN5@Insert

; 128  : 		m_iLength = m_iOffset + rp_size;

	mov	eax, DWORD PTR _this$[ebp]
	mov	ecx, DWORD PTR [eax+8]
	add	ecx, DWORD PTR _rp_size$[ebp]
	mov	edx, DWORD PTR _this$[ebp]
	mov	DWORD PTR [edx+12], ecx
$LN5@Insert:

; 129  : 
; 130  : 	return m_iLength;

	mov	eax, DWORD PTR _this$[ebp]
	mov	eax, DWORD PTR [eax+12]
$LN1@Insert:

; 131  : }

	pop	edi
	pop	esi
	pop	ebx
	mov	esp, ebp
	pop	ebp
	ret	8
?Insert@CVirtualFS@@QAEIPBXI@Z ENDP			; CVirtualFS::Insert
_TEXT	ENDS
; Function compile flags: /Odtp /ZI
; File d:\!diffusion 2020\source code 2022\client-server\common\virtualfs.cpp
;	COMDAT ?Write@CVirtualFS@@QAEIPBXI@Z
_TEXT	SEGMENT
_newsize$1 = -8						; size = 4
_this$ = -4						; size = 4
_in$ = 8						; size = 4
_size$ = 12						; size = 4
?Write@CVirtualFS@@QAEIPBXI@Z PROC			; CVirtualFS::Write, COMDAT
; _this$ = ecx

; 71   : {

	push	ebp
	mov	ebp, esp
	sub	esp, 72					; 00000048H
	push	ebx
	push	esi
	push	edi
	mov	DWORD PTR _this$[ebp], ecx

; 72   : 	if( !m_pBuffer ) return -1;

	mov	eax, DWORD PTR _this$[ebp]
	cmp	DWORD PTR [eax], 0
	jne	SHORT $LN2@Write
	or	eax, -1
	jmp	$LN1@Write
$LN2@Write:

; 73   : 
; 74   : 	if( m_iOffset + size >= m_iBuffSize )

	mov	eax, DWORD PTR _this$[ebp]
	mov	ecx, DWORD PTR [eax+8]
	add	ecx, DWORD PTR _size$[ebp]
	mov	edx, DWORD PTR _this$[ebp]
	cmp	ecx, DWORD PTR [edx+4]
	jb	SHORT $LN3@Write

; 75   : 	{
; 76   : 		size_t newsize = m_iOffset + size + FS_MEM_BLOCK;

	mov	eax, DWORD PTR _this$[ebp]
	mov	ecx, DWORD PTR [eax+8]
	mov	edx, DWORD PTR _size$[ebp]
	lea	eax, DWORD PTR [ecx+edx+65535]
	mov	DWORD PTR _newsize$1[ebp], eax

; 77   : 
; 78   : 		if( m_iBuffSize < newsize )

	mov	eax, DWORD PTR _this$[ebp]
	mov	ecx, DWORD PTR [eax+4]
	cmp	ecx, DWORD PTR _newsize$1[ebp]
	jae	SHORT $LN3@Write

; 79   : 		{
; 80   : 			// reallocate buffer now
; 81   : 			m_pBuffer = (byte *)realloc( m_pBuffer, newsize );

	mov	eax, DWORD PTR _newsize$1[ebp]
	push	eax
	mov	ecx, DWORD PTR _this$[ebp]
	mov	edx, DWORD PTR [ecx]
	push	edx
	call	_realloc
	add	esp, 8
	mov	ecx, DWORD PTR _this$[ebp]
	mov	DWORD PTR [ecx], eax

; 82   : 			memset( m_pBuffer + m_iBuffSize, 0, newsize - m_iBuffSize );

	mov	eax, DWORD PTR _this$[ebp]
	mov	ecx, DWORD PTR _newsize$1[ebp]
	sub	ecx, DWORD PTR [eax+4]
	push	ecx
	push	0
	mov	edx, DWORD PTR _this$[ebp]
	mov	eax, DWORD PTR [edx]
	mov	ecx, DWORD PTR _this$[ebp]
	add	eax, DWORD PTR [ecx+4]
	push	eax
	call	_memset
	add	esp, 12					; 0000000cH

; 83   : 			m_iBuffSize = newsize; // update buffsize

	mov	eax, DWORD PTR _this$[ebp]
	mov	ecx, DWORD PTR _newsize$1[ebp]
	mov	DWORD PTR [eax+4], ecx
$LN3@Write:

; 84   : 		}
; 85   : 	}
; 86   : 
; 87   : 	// write into buffer
; 88   : 	memcpy( m_pBuffer + m_iOffset, in, size );

	mov	eax, DWORD PTR _size$[ebp]
	push	eax
	mov	ecx, DWORD PTR _in$[ebp]
	push	ecx
	mov	edx, DWORD PTR _this$[ebp]
	mov	eax, DWORD PTR [edx]
	mov	ecx, DWORD PTR _this$[ebp]
	add	eax, DWORD PTR [ecx+8]
	push	eax
	call	_memcpy
	add	esp, 12					; 0000000cH

; 89   : 	m_iOffset += size;

	mov	eax, DWORD PTR _this$[ebp]
	mov	ecx, DWORD PTR [eax+8]
	add	ecx, DWORD PTR _size$[ebp]
	mov	edx, DWORD PTR _this$[ebp]
	mov	DWORD PTR [edx+8], ecx

; 90   : 
; 91   : 	if( m_iOffset > m_iLength )

	mov	eax, DWORD PTR _this$[ebp]
	mov	ecx, DWORD PTR _this$[ebp]
	mov	edx, DWORD PTR [eax+8]
	cmp	edx, DWORD PTR [ecx+12]
	jbe	SHORT $LN5@Write

; 92   : 		m_iLength = m_iOffset;

	mov	eax, DWORD PTR _this$[ebp]
	mov	ecx, DWORD PTR _this$[ebp]
	mov	edx, DWORD PTR [ecx+8]
	mov	DWORD PTR [eax+12], edx
$LN5@Write:

; 93   : 
; 94   : 	return m_iLength;

	mov	eax, DWORD PTR _this$[ebp]
	mov	eax, DWORD PTR [eax+12]
$LN1@Write:

; 95   : }

	pop	edi
	pop	esi
	pop	ebx
	mov	esp, ebp
	pop	ebp
	ret	8
?Write@CVirtualFS@@QAEIPBXI@Z ENDP			; CVirtualFS::Write
_TEXT	ENDS
; Function compile flags: /Odtp /ZI
; File d:\!diffusion 2020\source code 2022\client-server\common\virtualfs.cpp
;	COMDAT ?Read@CVirtualFS@@QAEIPADI@Z
_TEXT	SEGMENT
_reduced_size$1 = -12					; size = 4
_read_size$ = -8					; size = 4
_this$ = -4						; size = 4
_out$ = 8						; size = 4
_size$ = 12						; size = 4
?Read@CVirtualFS@@QAEIPADI@Z PROC			; CVirtualFS::Read, COMDAT
; _this$ = ecx

; 43   : {

	push	ebp
	mov	ebp, esp
	sub	esp, 76					; 0000004cH
	push	ebx
	push	esi
	push	edi
	mov	DWORD PTR _this$[ebp], ecx

; 44   : 	if( !m_pBuffer || !out || size <= 0 )

	mov	eax, DWORD PTR _this$[ebp]
	cmp	DWORD PTR [eax], 0
	je	SHORT $LN3@Read
	cmp	DWORD PTR _out$[ebp], 0
	je	SHORT $LN3@Read
	cmp	DWORD PTR _size$[ebp], 0
	ja	SHORT $LN2@Read
$LN3@Read:

; 45   : 		return 0;

	xor	eax, eax
	jmp	$LN1@Read
$LN2@Read:

; 46   : 
; 47   : 	// check for enough room
; 48   : 	if( m_iOffset >= m_iLength )

	mov	eax, DWORD PTR _this$[ebp]
	mov	ecx, DWORD PTR _this$[ebp]
	mov	edx, DWORD PTR [eax+8]
	cmp	edx, DWORD PTR [ecx+12]
	jb	SHORT $LN4@Read

; 49   : 		return 0; // hit EOF

	xor	eax, eax
	jmp	$LN1@Read
$LN4@Read:

; 50   : 
; 51   : 	size_t read_size = 0;

	mov	DWORD PTR _read_size$[ebp], 0

; 52   : 
; 53   : 	if( m_iOffset + size <= m_iLength )

	mov	eax, DWORD PTR _this$[ebp]
	mov	ecx, DWORD PTR [eax+8]
	add	ecx, DWORD PTR _size$[ebp]
	mov	edx, DWORD PTR _this$[ebp]
	cmp	ecx, DWORD PTR [edx+12]
	ja	SHORT $LN5@Read

; 54   : 	{
; 55   : 		memcpy( out, m_pBuffer + m_iOffset, size );

	mov	eax, DWORD PTR _size$[ebp]
	push	eax
	mov	ecx, DWORD PTR _this$[ebp]
	mov	edx, DWORD PTR [ecx]
	mov	eax, DWORD PTR _this$[ebp]
	add	edx, DWORD PTR [eax+8]
	push	edx
	mov	ecx, DWORD PTR _out$[ebp]
	push	ecx
	call	_memcpy
	add	esp, 12					; 0000000cH

; 56   : 		m_iOffset += size;

	mov	eax, DWORD PTR _this$[ebp]
	mov	ecx, DWORD PTR [eax+8]
	add	ecx, DWORD PTR _size$[ebp]
	mov	edx, DWORD PTR _this$[ebp]
	mov	DWORD PTR [edx+8], ecx

; 57   : 		read_size = size;

	mov	eax, DWORD PTR _size$[ebp]
	mov	DWORD PTR _read_size$[ebp], eax

; 58   : 	}
; 59   : 	else

	jmp	SHORT $LN6@Read
$LN5@Read:

; 60   : 	{
; 61   : 		int reduced_size = m_iLength - m_iOffset;

	mov	eax, DWORD PTR _this$[ebp]
	mov	ecx, DWORD PTR _this$[ebp]
	mov	edx, DWORD PTR [eax+12]
	sub	edx, DWORD PTR [ecx+8]
	mov	DWORD PTR _reduced_size$1[ebp], edx

; 62   : 		memcpy( out, m_pBuffer + m_iOffset, reduced_size );

	mov	eax, DWORD PTR _reduced_size$1[ebp]
	push	eax
	mov	ecx, DWORD PTR _this$[ebp]
	mov	edx, DWORD PTR [ecx]
	mov	eax, DWORD PTR _this$[ebp]
	add	edx, DWORD PTR [eax+8]
	push	edx
	mov	ecx, DWORD PTR _out$[ebp]
	push	ecx
	call	_memcpy
	add	esp, 12					; 0000000cH

; 63   : 		m_iOffset += reduced_size;

	mov	eax, DWORD PTR _this$[ebp]
	mov	ecx, DWORD PTR [eax+8]
	add	ecx, DWORD PTR _reduced_size$1[ebp]
	mov	edx, DWORD PTR _this$[ebp]
	mov	DWORD PTR [edx+8], ecx

; 64   : 		read_size = reduced_size;

	mov	eax, DWORD PTR _reduced_size$1[ebp]
	mov	DWORD PTR _read_size$[ebp], eax
$LN6@Read:

; 65   : 	}
; 66   : 
; 67   : 	return read_size;

	mov	eax, DWORD PTR _read_size$[ebp]
$LN1@Read:

; 68   : }

	pop	edi
	pop	esi
	pop	ebx
	mov	esp, ebp
	pop	ebp
	ret	8
?Read@CVirtualFS@@QAEIPADI@Z ENDP			; CVirtualFS::Read
_TEXT	ENDS
; Function compile flags: /Odtp /ZI
; File d:\!diffusion 2020\source code 2022\client-server\common\virtualfs.cpp
;	COMDAT ??1CVirtualFS@@QAE@XZ
_TEXT	SEGMENT
$T1 = -72						; size = 4
_this$ = -4						; size = 4
??1CVirtualFS@@QAE@XZ PROC				; CVirtualFS::~CVirtualFS, COMDAT
; _this$ = ecx

; 38   : {

	push	ebp
	mov	ebp, esp
	sub	esp, 72					; 00000048H
	push	ebx
	push	esi
	push	edi
	mov	DWORD PTR _this$[ebp], ecx

; 39   : 	delete[] m_pBuffer;

	mov	eax, DWORD PTR _this$[ebp]
	mov	ecx, DWORD PTR [eax]
	mov	DWORD PTR $T1[ebp], ecx
	mov	edx, DWORD PTR $T1[ebp]
	push	edx
	call	??_V@YAXPAX@Z				; operator delete[]
	add	esp, 4

; 40   : }

	pop	edi
	pop	esi
	pop	ebx
	mov	esp, ebp
	pop	ebp
	ret	0
??1CVirtualFS@@QAE@XZ ENDP				; CVirtualFS::~CVirtualFS
_TEXT	ENDS
; Function compile flags: /Odtp /ZI
; File d:\!diffusion 2020\source code 2022\client-server\common\virtualfs.cpp
;	COMDAT ??0CVirtualFS@@QAE@PBEI@Z
_TEXT	SEGMENT
$T1 = -72						; size = 4
_this$ = -4						; size = 4
_file$ = 8						; size = 4
_size$ = 12						; size = 4
??0CVirtualFS@@QAE@PBEI@Z PROC				; CVirtualFS::CVirtualFS, COMDAT
; _this$ = ecx

; 23   : {

	push	ebp
	mov	ebp, esp
	sub	esp, 72					; 00000048H
	push	ebx
	push	esi
	push	edi
	mov	DWORD PTR _this$[ebp], ecx

; 24   : 	if( !file || size <= 0 )

	cmp	DWORD PTR _file$[ebp], 0
	je	SHORT $LN3@CVirtualFS
	cmp	DWORD PTR _size$[ebp], 0
	ja	SHORT $LN2@CVirtualFS
$LN3@CVirtualFS:

; 25   : 	{
; 26   : 		m_iBuffSize = m_iOffset = m_iLength = 0;

	mov	eax, DWORD PTR _this$[ebp]
	mov	DWORD PTR [eax+12], 0
	mov	ecx, DWORD PTR _this$[ebp]
	mov	DWORD PTR [ecx+8], 0
	mov	edx, DWORD PTR _this$[ebp]
	mov	DWORD PTR [edx+4], 0

; 27   : 		m_pBuffer = NULL;

	mov	eax, DWORD PTR _this$[ebp]
	mov	DWORD PTR [eax], 0

; 28   : 		return;

	jmp	SHORT $LN1@CVirtualFS
$LN2@CVirtualFS:

; 29   : 	}
; 30   : 
; 31   : 	m_iLength = m_iBuffSize = size;

	mov	eax, DWORD PTR _this$[ebp]
	mov	ecx, DWORD PTR _size$[ebp]
	mov	DWORD PTR [eax+4], ecx
	mov	edx, DWORD PTR _this$[ebp]
	mov	eax, DWORD PTR _size$[ebp]
	mov	DWORD PTR [edx+12], eax

; 32   : 	m_pBuffer = new byte[m_iBuffSize];

	mov	eax, DWORD PTR _this$[ebp]
	mov	ecx, DWORD PTR [eax+4]
	push	ecx
	call	??_U@YAPAXI@Z				; operator new[]
	add	esp, 4
	mov	DWORD PTR $T1[ebp], eax
	mov	edx, DWORD PTR _this$[ebp]
	mov	eax, DWORD PTR $T1[ebp]
	mov	DWORD PTR [edx], eax

; 33   : 	memcpy( m_pBuffer, file, m_iBuffSize );

	mov	eax, DWORD PTR _this$[ebp]
	mov	ecx, DWORD PTR [eax+4]
	push	ecx
	mov	edx, DWORD PTR _file$[ebp]
	push	edx
	mov	eax, DWORD PTR _this$[ebp]
	mov	ecx, DWORD PTR [eax]
	push	ecx
	call	_memcpy
	add	esp, 12					; 0000000cH

; 34   : 	m_iOffset = 0;

	mov	eax, DWORD PTR _this$[ebp]
	mov	DWORD PTR [eax+8], 0
$LN1@CVirtualFS:

; 35   : }

	mov	eax, DWORD PTR _this$[ebp]
	pop	edi
	pop	esi
	pop	ebx
	mov	esp, ebp
	pop	ebp
	ret	8
??0CVirtualFS@@QAE@PBEI@Z ENDP				; CVirtualFS::CVirtualFS
_TEXT	ENDS
; Function compile flags: /Odtp /ZI
; File d:\!diffusion 2020\source code 2022\client-server\common\virtualfs.cpp
;	COMDAT ??0CVirtualFS@@QAE@XZ
_TEXT	SEGMENT
$T1 = -72						; size = 4
_this$ = -4						; size = 4
??0CVirtualFS@@QAE@XZ PROC				; CVirtualFS::CVirtualFS, COMDAT
; _this$ = ecx

; 15   : {

	push	ebp
	mov	ebp, esp
	sub	esp, 72					; 00000048H
	push	ebx
	push	esi
	push	edi
	mov	DWORD PTR _this$[ebp], ecx

; 16   : 	m_iBuffSize = FS_MEM_BLOCK; // can be resized later

	mov	eax, DWORD PTR _this$[ebp]
	mov	DWORD PTR [eax+4], 65535		; 0000ffffH

; 17   : 	m_pBuffer = new byte[m_iBuffSize];

	mov	eax, DWORD PTR _this$[ebp]
	mov	ecx, DWORD PTR [eax+4]
	push	ecx
	call	??_U@YAPAXI@Z				; operator new[]
	add	esp, 4
	mov	DWORD PTR $T1[ebp], eax
	mov	edx, DWORD PTR _this$[ebp]
	mov	eax, DWORD PTR $T1[ebp]
	mov	DWORD PTR [edx], eax

; 18   : 	memset( m_pBuffer, 0, m_iBuffSize );

	mov	eax, DWORD PTR _this$[ebp]
	mov	ecx, DWORD PTR [eax+4]
	push	ecx
	push	0
	mov	edx, DWORD PTR _this$[ebp]
	mov	eax, DWORD PTR [edx]
	push	eax
	call	_memset
	add	esp, 12					; 0000000cH

; 19   : 	m_iLength = m_iOffset = 0;

	mov	eax, DWORD PTR _this$[ebp]
	mov	DWORD PTR [eax+8], 0
	mov	ecx, DWORD PTR _this$[ebp]
	mov	DWORD PTR [ecx+12], 0

; 20   : }

	mov	eax, DWORD PTR _this$[ebp]
	pop	edi
	pop	esi
	pop	ebx
	mov	esp, ebp
	pop	ebp
	ret	0
??0CVirtualFS@@QAE@XZ ENDP				; CVirtualFS::CVirtualFS
_TEXT	ENDS
; Function compile flags: /Odtp /ZI
;	COMDAT ??__G@YGXPAX0IIP6EPAX00@Z@Z
_TEXT	SEGMENT
tv66 = -68						; size = 4
___t$ = 8						; size = 4
___u$ = 12						; size = 4
___s$ = 16						; size = 4
___n$ = 20						; size = 4
___f$ = 24						; size = 4
??__G@YGXPAX0IIP6EPAX00@Z@Z PROC			; `vector copy constructor iterator', COMDAT
	push	ebp
	mov	ebp, esp
	sub	esp, 68					; 00000044H
	push	ebx
	push	esi
	push	edi
$LN2@vector:
	mov	eax, DWORD PTR ___n$[ebp]
	mov	DWORD PTR tv66[ebp], eax
	mov	ecx, DWORD PTR ___n$[ebp]
	sub	ecx, 1
	mov	DWORD PTR ___n$[ebp], ecx
	cmp	DWORD PTR tv66[ebp], 0
	jbe	SHORT $LN1@vector
	mov	eax, DWORD PTR ___u$[ebp]
	push	eax
	mov	ecx, DWORD PTR ___t$[ebp]
	call	DWORD PTR ___f$[ebp]
	mov	eax, DWORD PTR ___t$[ebp]
	add	eax, DWORD PTR ___s$[ebp]
	mov	DWORD PTR ___t$[ebp], eax
	mov	eax, DWORD PTR ___u$[ebp]
	add	eax, DWORD PTR ___s$[ebp]
	mov	DWORD PTR ___u$[ebp], eax
	jmp	SHORT $LN2@vector
$LN1@vector:
	pop	edi
	pop	esi
	pop	ebx
	mov	esp, ebp
	pop	ebp
	ret	20					; 00000014H
??__G@YGXPAX0IIP6EPAX00@Z@Z ENDP			; `vector copy constructor iterator'
_TEXT	ENDS
; Function compile flags: /Odtp /ZI
;	COMDAT ??_H@YGXPAXIIP6EPAX0@Z@Z
_TEXT	SEGMENT
tv66 = -68						; size = 4
___t$ = 8						; size = 4
___s$ = 12						; size = 4
___n$ = 16						; size = 4
___f$ = 20						; size = 4
??_H@YGXPAXIIP6EPAX0@Z@Z PROC				; `vector constructor iterator', COMDAT
	push	ebp
	mov	ebp, esp
	sub	esp, 68					; 00000044H
	push	ebx
	push	esi
	push	edi
$LN2@vector:
	mov	eax, DWORD PTR ___n$[ebp]
	mov	DWORD PTR tv66[ebp], eax
	mov	ecx, DWORD PTR ___n$[ebp]
	sub	ecx, 1
	mov	DWORD PTR ___n$[ebp], ecx
	cmp	DWORD PTR tv66[ebp], 0
	jbe	SHORT $LN1@vector
	mov	ecx, DWORD PTR ___t$[ebp]
	call	DWORD PTR ___f$[ebp]
	mov	eax, DWORD PTR ___t$[ebp]
	add	eax, DWORD PTR ___s$[ebp]
	mov	DWORD PTR ___t$[ebp], eax
	jmp	SHORT $LN2@vector
$LN1@vector:
	pop	edi
	pop	esi
	pop	ebx
	mov	esp, ebp
	pop	ebp
	ret	16					; 00000010H
??_H@YGXPAXIIP6EPAX0@Z@Z ENDP				; `vector constructor iterator'
_TEXT	ENDS
END
