; Listing generated by Microsoft (R) Optimizing Compiler Version 19.00.24247.2 

	TITLE	D:\!DIFFUSION 2020\source code 2022\client-server\client\zoom.cpp
	.686P
	.XMM
	include listing.inc
	.model	flat

INCLUDELIB LIBCMT
INCLUDELIB OLDNAMES

PUBLIC	??_H@YGXPAXIIP6EPAX0@Z@Z			; `vector constructor iterator'
PUBLIC	??__G@YGXPAX0IIP6EPAX00@Z@Z			; `vector copy constructor iterator'
PUBLIC	?Init@CZoom@@UAEHXZ				; CZoom::Init
PUBLIC	?Think@CZoom@@UAEXXZ				; CZoom::Think
PUBLIC	?MsgFunc_Zoom@CZoom@@QAEHPBDHPAX@Z		; CZoom::MsgFunc_Zoom
PUBLIC	?__MsgFunc_Zoom@@YAHPBDHPAX@Z			; __MsgFunc_Zoom
PUBLIC	??_C@_04LLODKBCK@Zoom?$AA@			; `string'
PUBLIC	__real@41200000
PUBLIC	__real@41a00000
PUBLIC	__real@41f00000
PUBLIC	__real@42340000
PUBLIC	__real@43160000
PUBLIC	__real@432f0000
PUBLIC	__real@43480000
EXTRN	?SetFOV@CHud@@QAEXH@Z:PROC			; CHud::SetFOV
EXTRN	?AddHudElem@CHud@@QAEXPAVCHudBase@@@Z:PROC	; CHud::AddHudElem
EXTRN	?BEGIN_READ@@YAXPBDPAXH@Z:PROC			; BEGIN_READ
EXTRN	?END_READ@@YAXXZ:PROC				; END_READ
EXTRN	?READ_BYTE@@YAHXZ:PROC				; READ_BYTE
EXTRN	?gEngfuncs@@3Ucl_enginefuncs_s@@A:BYTE		; gEngfuncs
EXTRN	?gHUD@@3VCHud@@A:BYTE				; gHUD
EXTRN	?g_fFrametime@@3MA:DWORD			; g_fFrametime
EXTRN	__fltused:DWORD
;	COMDAT __real@43480000
CONST	SEGMENT
__real@43480000 DD 043480000r			; 200
CONST	ENDS
;	COMDAT __real@432f0000
CONST	SEGMENT
__real@432f0000 DD 0432f0000r			; 175
CONST	ENDS
;	COMDAT __real@43160000
CONST	SEGMENT
__real@43160000 DD 043160000r			; 150
CONST	ENDS
;	COMDAT __real@42340000
CONST	SEGMENT
__real@42340000 DD 042340000r			; 45
CONST	ENDS
;	COMDAT __real@41f00000
CONST	SEGMENT
__real@41f00000 DD 041f00000r			; 30
CONST	ENDS
;	COMDAT __real@41a00000
CONST	SEGMENT
__real@41a00000 DD 041a00000r			; 20
CONST	ENDS
;	COMDAT __real@41200000
CONST	SEGMENT
__real@41200000 DD 041200000r			; 10
CONST	ENDS
;	COMDAT ??_C@_04LLODKBCK@Zoom?$AA@
CONST	SEGMENT
??_C@_04LLODKBCK@Zoom?$AA@ DB 'Zoom', 00H		; `string'
CONST	ENDS
; Function compile flags: /Odtp /ZI
; File d:\!diffusion 2020\source code 2022\client-server\client\zoom.cpp
;	COMDAT ?__MsgFunc_Zoom@@YAHPBDHPAX@Z
_TEXT	SEGMENT
_pszName$ = 8						; size = 4
_iSize$ = 12						; size = 4
_pbuf$ = 16						; size = 4
?__MsgFunc_Zoom@@YAHPBDHPAX@Z PROC			; __MsgFunc_Zoom, COMDAT

; 11   : DECLARE_MESSAGE( m_Zoom, Zoom );

	push	ebp
	mov	ebp, esp
	sub	esp, 64					; 00000040H
	push	ebx
	push	esi
	push	edi
	mov	eax, DWORD PTR _pbuf$[ebp]
	push	eax
	mov	ecx, DWORD PTR _iSize$[ebp]
	push	ecx
	mov	edx, DWORD PTR _pszName$[ebp]
	push	edx
	mov	ecx, OFFSET ?gHUD@@3VCHud@@A+7676
	call	?MsgFunc_Zoom@CZoom@@QAEHPBDHPAX@Z	; CZoom::MsgFunc_Zoom
	pop	edi
	pop	esi
	pop	ebx
	mov	esp, ebp
	pop	ebp
	ret	0
?__MsgFunc_Zoom@@YAHPBDHPAX@Z ENDP			; __MsgFunc_Zoom
_TEXT	ENDS
; Function compile flags: /Odtp /ZI
; File d:\!diffusion 2020\source code 2022\client-server\client\zoom.cpp
;	COMDAT ?MsgFunc_Zoom@CZoom@@QAEHPBDHPAX@Z
_TEXT	SEGMENT
_this$ = -4						; size = 4
_pszName$ = 8						; size = 4
_iSize$ = 12						; size = 4
_pbuf$ = 16						; size = 4
?MsgFunc_Zoom@CZoom@@QAEHPBDHPAX@Z PROC			; CZoom::MsgFunc_Zoom, COMDAT
; _this$ = ecx

; 21   : {

	push	ebp
	mov	ebp, esp
	sub	esp, 68					; 00000044H
	push	ebx
	push	esi
	push	edi
	mov	DWORD PTR _this$[ebp], ecx

; 22   : 	BEGIN_READ( pszName, pbuf, iSize );

	mov	eax, DWORD PTR _iSize$[ebp]
	push	eax
	mov	ecx, DWORD PTR _pbuf$[ebp]
	push	ecx
	mov	edx, DWORD PTR _pszName$[ebp]
	push	edx
	call	?BEGIN_READ@@YAXPBDPAXH@Z		; BEGIN_READ
	add	esp, 12					; 0000000cH

; 23   : 	ZoomMode = READ_BYTE();

	call	?READ_BYTE@@YAHXZ			; READ_BYTE
	mov	ecx, DWORD PTR _this$[ebp]
	mov	DWORD PTR [ecx+12], eax

; 24   : 	WeaponID = READ_BYTE();

	call	?READ_BYTE@@YAHXZ			; READ_BYTE
	mov	ecx, DWORD PTR _this$[ebp]
	mov	DWORD PTR [ecx+8], eax

; 25   : 	END_READ();

	call	?END_READ@@YAXXZ			; END_READ

; 26   : 
; 27   : 	m_iFlags |= HUD_ACTIVE;

	mov	eax, DWORD PTR _this$[ebp]
	mov	ecx, DWORD PTR [eax+4]
	or	ecx, 1
	mov	edx, DWORD PTR _this$[ebp]
	mov	DWORD PTR [edx+4], ecx

; 28   : 	if( ZoomMode > 0 )

	mov	eax, DWORD PTR _this$[ebp]
	cmp	DWORD PTR [eax+12], 0
	jle	SHORT $LN2@MsgFunc_Zo

; 29   : 	{
; 30   : 		gHUD.IsZooming = true;

	mov	BYTE PTR ?gHUD@@3VCHud@@A+112, 1

; 31   : 		gHUD.IsZoomed = true;

	mov	BYTE PTR ?gHUD@@3VCHud@@A+113, 1

; 32   : 	}
; 33   : 	else

	jmp	SHORT $LN3@MsgFunc_Zo
$LN2@MsgFunc_Zo:

; 34   : 	{
; 35   : 		gHUD.IsZoomed = false;

	mov	BYTE PTR ?gHUD@@3VCHud@@A+113, 0

; 36   : 		gHUD.m_flFOV = 0.0f;

	xorps	xmm0, xmm0
	movss	DWORD PTR ?gHUD@@3VCHud@@A+80, xmm0
$LN3@MsgFunc_Zo:

; 37   : 	}
; 38   : 	
; 39   : 	return 1;

	mov	eax, 1

; 40   : }

	pop	edi
	pop	esi
	pop	ebx
	mov	esp, ebp
	pop	ebp
	ret	12					; 0000000cH
?MsgFunc_Zoom@CZoom@@QAEHPBDHPAX@Z ENDP			; CZoom::MsgFunc_Zoom
_TEXT	ENDS
; Function compile flags: /Odtp /ZI
; File d:\!diffusion 2020\source code 2022\client-server\client\zoom.cpp
;	COMDAT ?Think@CZoom@@UAEXXZ
_TEXT	SEGMENT
_FOV$ = -8						; size = 4
_this$ = -4						; size = 4
?Think@CZoom@@UAEXXZ PROC				; CZoom::Think, COMDAT
; _this$ = ecx

; 43   : {

	push	ebp
	mov	ebp, esp
	sub	esp, 72					; 00000048H
	push	ebx
	push	esi
	push	edi
	mov	DWORD PTR _this$[ebp], ecx

; 44   : 	float FOV = gHUD.m_flFOV;

	movss	xmm0, DWORD PTR ?gHUD@@3VCHud@@A+80
	movss	DWORD PTR _FOV$[ebp], xmm0

; 45   : 
; 46   : 	if (ZoomMode == 0)

	mov	eax, DWORD PTR _this$[ebp]
	cmp	DWORD PTR [eax+12], 0
	jne	SHORT $LN2@Think

; 47   : 	{
; 48   : 		FOV = 0;

	xorps	xmm0, xmm0
	movss	DWORD PTR _FOV$[ebp], xmm0

; 49   : 		m_iFlags &= ~HUD_ACTIVE;

	mov	eax, DWORD PTR _this$[ebp]
	mov	ecx, DWORD PTR [eax+4]
	and	ecx, -2					; fffffffeH
	mov	edx, DWORD PTR _this$[ebp]
	mov	DWORD PTR [edx+4], ecx

; 50   : 		gHUD.IsZooming = false;

	mov	BYTE PTR ?gHUD@@3VCHud@@A+112, 0

; 51   : 		gHUD.IsZoomed = false;

	mov	BYTE PTR ?gHUD@@3VCHud@@A+113, 0

; 52   : 		return;

	jmp	$LN1@Think
$LN2@Think:

; 53   : 	}
; 54   : 	
; 55   : 	//=====================================
; 56   : 	// zoom function for crossbow
; 57   : 	//=====================================
; 58   : 	if( WeaponID == WEAPON_CROSSBOW )

	mov	eax, DWORD PTR _this$[ebp]
	cmp	DWORD PTR [eax+8], 6
	jne	$LN7@Think

; 59   : 	{
; 60   : 		if( ZoomMode == 1 ) // zooming in

	mov	eax, DWORD PTR _this$[ebp]
	cmp	DWORD PTR [eax+12], 1
	jne	SHORT $LN4@Think

; 61   : 		{
; 62   : 			FOV -= 150 * g_fFrametime;

	movss	xmm0, DWORD PTR __real@43160000
	mulss	xmm0, DWORD PTR ?g_fFrametime@@3MA
	movss	xmm1, DWORD PTR _FOV$[ebp]
	subss	xmm1, xmm0
	movss	DWORD PTR _FOV$[ebp], xmm1

; 63   : 			gHUD.m_flFOV = (int)FOV;

	cvttss2si eax, DWORD PTR _FOV$[ebp]
	cvtsi2ss xmm0, eax
	movss	DWORD PTR ?gHUD@@3VCHud@@A+80, xmm0

; 64   : 
; 65   : 			if( FOV <= 20 )

	movss	xmm0, DWORD PTR __real@41a00000
	comiss	xmm0, DWORD PTR _FOV$[ebp]
	jb	SHORT $LN6@Think

; 66   : 			{
; 67   : 				gHUD.IsZooming = false;

	mov	BYTE PTR ?gHUD@@3VCHud@@A+112, 0

; 68   : 				gHUD.IsZoomed = true;

	mov	BYTE PTR ?gHUD@@3VCHud@@A+113, 1

; 69   : 				gHUD.SetFOV( 20 );

	push	20					; 00000014H
	mov	ecx, OFFSET ?gHUD@@3VCHud@@A		; gHUD
	call	?SetFOV@CHud@@QAEXH@Z			; CHud::SetFOV

; 70   : 				m_iFlags &= ~HUD_ACTIVE;

	mov	eax, DWORD PTR _this$[ebp]
	mov	ecx, DWORD PTR [eax+4]
	and	ecx, -2					; fffffffeH
	mov	edx, DWORD PTR _this$[ebp]
	mov	DWORD PTR [edx+4], ecx

; 71   : 				return;

	jmp	$LN1@Think
$LN6@Think:

; 72   : 			}
; 73   : 		}

	jmp	SHORT $LN7@Think
$LN4@Think:

; 74   : 		else if( ZoomMode == 2 ) // zooming out (instant)

	mov	eax, DWORD PTR _this$[ebp]
	cmp	DWORD PTR [eax+12], 2
	jne	SHORT $LN7@Think

; 75   : 		{
; 76   : 			gHUD.IsZooming = false;

	mov	BYTE PTR ?gHUD@@3VCHud@@A+112, 0

; 77   : 			gHUD.IsZoomed = false;

	mov	BYTE PTR ?gHUD@@3VCHud@@A+113, 0

; 78   : 			gHUD.SetFOV( 0 );

	push	0
	mov	ecx, OFFSET ?gHUD@@3VCHud@@A		; gHUD
	call	?SetFOV@CHud@@QAEXH@Z			; CHud::SetFOV

; 79   : 			m_iFlags &= ~HUD_ACTIVE;

	mov	eax, DWORD PTR _this$[ebp]
	mov	ecx, DWORD PTR [eax+4]
	and	ecx, -2					; fffffffeH
	mov	edx, DWORD PTR _this$[ebp]
	mov	DWORD PTR [edx+4], ecx

; 80   : 			return;

	jmp	$LN1@Think
$LN7@Think:

; 81   : 		}
; 82   : 	}
; 83   : 	
; 84   : 	//=====================================
; 85   : 	// zoom function for sniper rifle
; 86   : 	//=====================================
; 87   : 	if( (WeaponID == WEAPON_SNIPER) || (WeaponID == WEAPON_GAUSS) )

	mov	eax, DWORD PTR _this$[ebp]
	cmp	DWORD PTR [eax+8], 21			; 00000015H
	je	SHORT $LN9@Think
	mov	eax, DWORD PTR _this$[ebp]
	cmp	DWORD PTR [eax+8], 9
	jne	$LN16@Think
$LN9@Think:

; 88   : 	{
; 89   : 		if( ZoomMode == 1 ) // zooming in

	mov	eax, DWORD PTR _this$[ebp]
	cmp	DWORD PTR [eax+12], 1
	jne	SHORT $LN10@Think

; 90   : 		{
; 91   : 			FOV -= 200 * g_fFrametime;

	movss	xmm0, DWORD PTR __real@43480000
	mulss	xmm0, DWORD PTR ?g_fFrametime@@3MA
	movss	xmm1, DWORD PTR _FOV$[ebp]
	subss	xmm1, xmm0
	movss	DWORD PTR _FOV$[ebp], xmm1

; 92   : 			gHUD.m_flFOV = (int)FOV;

	cvttss2si eax, DWORD PTR _FOV$[ebp]
	cvtsi2ss xmm0, eax
	movss	DWORD PTR ?gHUD@@3VCHud@@A+80, xmm0

; 93   : 
; 94   : 			if( FOV <= 30 )

	movss	xmm0, DWORD PTR __real@41f00000
	comiss	xmm0, DWORD PTR _FOV$[ebp]
	jb	SHORT $LN12@Think

; 95   : 			{
; 96   : 				gHUD.IsZooming = false;

	mov	BYTE PTR ?gHUD@@3VCHud@@A+112, 0

; 97   : 				gHUD.IsZoomed = true;

	mov	BYTE PTR ?gHUD@@3VCHud@@A+113, 1

; 98   : 				gHUD.SetFOV( 30 );

	push	30					; 0000001eH
	mov	ecx, OFFSET ?gHUD@@3VCHud@@A		; gHUD
	call	?SetFOV@CHud@@QAEXH@Z			; CHud::SetFOV

; 99   : 				m_iFlags &= ~HUD_ACTIVE;

	mov	eax, DWORD PTR _this$[ebp]
	mov	ecx, DWORD PTR [eax+4]
	and	ecx, -2					; fffffffeH
	mov	edx, DWORD PTR _this$[ebp]
	mov	DWORD PTR [edx+4], ecx

; 100  : 				return;

	jmp	$LN1@Think
$LN12@Think:

; 101  : 			}
; 102  : 		}

	jmp	$LN16@Think
$LN10@Think:

; 103  : 		else if( ZoomMode == 2 ) // zooming in to max

	mov	eax, DWORD PTR _this$[ebp]
	cmp	DWORD PTR [eax+12], 2
	jne	SHORT $LN13@Think

; 104  : 		{
; 105  : 			FOV -= 200 * g_fFrametime;

	movss	xmm0, DWORD PTR __real@43480000
	mulss	xmm0, DWORD PTR ?g_fFrametime@@3MA
	movss	xmm1, DWORD PTR _FOV$[ebp]
	subss	xmm1, xmm0
	movss	DWORD PTR _FOV$[ebp], xmm1

; 106  : 			gHUD.m_flFOV = (int)FOV;

	cvttss2si eax, DWORD PTR _FOV$[ebp]
	cvtsi2ss xmm0, eax
	movss	DWORD PTR ?gHUD@@3VCHud@@A+80, xmm0

; 107  : 
; 108  : 			if( FOV <= 10 )

	movss	xmm0, DWORD PTR __real@41200000
	comiss	xmm0, DWORD PTR _FOV$[ebp]
	jb	SHORT $LN15@Think

; 109  : 			{
; 110  : 				gHUD.IsZooming = false;

	mov	BYTE PTR ?gHUD@@3VCHud@@A+112, 0

; 111  : 				gHUD.IsZoomed = true;

	mov	BYTE PTR ?gHUD@@3VCHud@@A+113, 1

; 112  : 				gHUD.SetFOV( 10 );

	push	10					; 0000000aH
	mov	ecx, OFFSET ?gHUD@@3VCHud@@A		; gHUD
	call	?SetFOV@CHud@@QAEXH@Z			; CHud::SetFOV

; 113  : 				m_iFlags &= ~HUD_ACTIVE;

	mov	eax, DWORD PTR _this$[ebp]
	mov	ecx, DWORD PTR [eax+4]
	and	ecx, -2					; fffffffeH
	mov	edx, DWORD PTR _this$[ebp]
	mov	DWORD PTR [edx+4], ecx

; 114  : 				return;

	jmp	$LN1@Think
$LN15@Think:

; 115  : 			}
; 116  : 		}

	jmp	SHORT $LN16@Think
$LN13@Think:

; 117  : 		else if( ZoomMode == 3 ) // zooming out (instant)

	mov	eax, DWORD PTR _this$[ebp]
	cmp	DWORD PTR [eax+12], 3
	jne	SHORT $LN16@Think

; 118  : 		{
; 119  : 			gHUD.IsZooming = false;

	mov	BYTE PTR ?gHUD@@3VCHud@@A+112, 0

; 120  : 			gHUD.IsZoomed = false;

	mov	BYTE PTR ?gHUD@@3VCHud@@A+113, 0

; 121  : 			gHUD.SetFOV( 0 );

	push	0
	mov	ecx, OFFSET ?gHUD@@3VCHud@@A		; gHUD
	call	?SetFOV@CHud@@QAEXH@Z			; CHud::SetFOV

; 122  : 			m_iFlags &= ~HUD_ACTIVE;

	mov	eax, DWORD PTR _this$[ebp]
	mov	ecx, DWORD PTR [eax+4]
	and	ecx, -2					; fffffffeH
	mov	edx, DWORD PTR _this$[ebp]
	mov	DWORD PTR [edx+4], ecx

; 123  : 			return;

	jmp	$LN1@Think
$LN16@Think:

; 124  : 		}
; 125  : 	}
; 126  : 
; 127  : 	//=====================================
; 128  : 	// zoom function for G36C
; 129  : 	//=====================================
; 130  : 	if( WeaponID == WEAPON_G36C )

	mov	eax, DWORD PTR _this$[ebp]
	cmp	DWORD PTR [eax+8], 23			; 00000017H
	jne	$LN21@Think

; 131  : 	{
; 132  : 		if( ZoomMode == 1 ) // zooming in

	mov	eax, DWORD PTR _this$[ebp]
	cmp	DWORD PTR [eax+12], 1
	jne	SHORT $LN18@Think

; 133  : 		{
; 134  : 			FOV -= 175 * g_fFrametime;

	movss	xmm0, DWORD PTR __real@432f0000
	mulss	xmm0, DWORD PTR ?g_fFrametime@@3MA
	movss	xmm1, DWORD PTR _FOV$[ebp]
	subss	xmm1, xmm0
	movss	DWORD PTR _FOV$[ebp], xmm1

; 135  : 			gHUD.m_flFOV = (int)FOV;

	cvttss2si eax, DWORD PTR _FOV$[ebp]
	cvtsi2ss xmm0, eax
	movss	DWORD PTR ?gHUD@@3VCHud@@A+80, xmm0

; 136  : 
; 137  : 			if( FOV <= 45 )

	movss	xmm0, DWORD PTR __real@42340000
	comiss	xmm0, DWORD PTR _FOV$[ebp]
	jb	SHORT $LN20@Think

; 138  : 			{
; 139  : 				gHUD.IsZooming = false;

	mov	BYTE PTR ?gHUD@@3VCHud@@A+112, 0

; 140  : 				gHUD.IsZoomed = true;

	mov	BYTE PTR ?gHUD@@3VCHud@@A+113, 1

; 141  : 				gHUD.SetFOV( 45 );

	push	45					; 0000002dH
	mov	ecx, OFFSET ?gHUD@@3VCHud@@A		; gHUD
	call	?SetFOV@CHud@@QAEXH@Z			; CHud::SetFOV

; 142  : 				m_iFlags &= ~HUD_ACTIVE;

	mov	eax, DWORD PTR _this$[ebp]
	mov	ecx, DWORD PTR [eax+4]
	and	ecx, -2					; fffffffeH
	mov	edx, DWORD PTR _this$[ebp]
	mov	DWORD PTR [edx+4], ecx

; 143  : 				return;

	jmp	SHORT $LN1@Think
$LN20@Think:

; 144  : 			}
; 145  : 		}

	jmp	SHORT $LN21@Think
$LN18@Think:

; 146  : 		else if( ZoomMode == 2 ) // zooming out (instant)

	mov	eax, DWORD PTR _this$[ebp]
	cmp	DWORD PTR [eax+12], 2
	jne	SHORT $LN21@Think

; 147  : 		{
; 148  : 			gHUD.IsZooming = false;

	mov	BYTE PTR ?gHUD@@3VCHud@@A+112, 0

; 149  : 			gHUD.IsZoomed = false;

	mov	BYTE PTR ?gHUD@@3VCHud@@A+113, 0

; 150  : 			gHUD.SetFOV( 0 );

	push	0
	mov	ecx, OFFSET ?gHUD@@3VCHud@@A		; gHUD
	call	?SetFOV@CHud@@QAEXH@Z			; CHud::SetFOV

; 151  : 			m_iFlags &= ~HUD_ACTIVE;

	mov	eax, DWORD PTR _this$[ebp]
	mov	ecx, DWORD PTR [eax+4]
	and	ecx, -2					; fffffffeH
	mov	edx, DWORD PTR _this$[ebp]
	mov	DWORD PTR [edx+4], ecx
$LN21@Think:
$LN1@Think:

; 152  : 			return;
; 153  : 		}
; 154  : 	}
; 155  : }

	pop	edi
	pop	esi
	pop	ebx
	mov	esp, ebp
	pop	ebp
	ret	0
?Think@CZoom@@UAEXXZ ENDP				; CZoom::Think
_TEXT	ENDS
; Function compile flags: /Odtp /ZI
; File d:\!diffusion 2020\source code 2022\client-server\client\zoom.cpp
;	COMDAT ?Init@CZoom@@UAEHXZ
_TEXT	SEGMENT
_this$ = -4						; size = 4
?Init@CZoom@@UAEHXZ PROC				; CZoom::Init, COMDAT
; _this$ = ecx

; 14   : {

	push	ebp
	mov	ebp, esp
	sub	esp, 68					; 00000044H
	push	ebx
	push	esi
	push	edi
	mov	DWORD PTR _this$[ebp], ecx

; 15   : 	HOOK_MESSAGE( Zoom );

	push	OFFSET ?__MsgFunc_Zoom@@YAHPBDHPAX@Z	; __MsgFunc_Zoom
	push	OFFSET ??_C@_04LLODKBCK@Zoom?$AA@
	call	DWORD PTR ?gEngfuncs@@3Ucl_enginefuncs_s@@A+72
	add	esp, 8

; 16   : 	gHUD.AddHudElem( this );

	mov	eax, DWORD PTR _this$[ebp]
	push	eax
	mov	ecx, OFFSET ?gHUD@@3VCHud@@A		; gHUD
	call	?AddHudElem@CHud@@QAEXPAVCHudBase@@@Z	; CHud::AddHudElem

; 17   : 	return 1;

	mov	eax, 1

; 18   : }

	pop	edi
	pop	esi
	pop	ebx
	mov	esp, ebp
	pop	ebp
	ret	0
?Init@CZoom@@UAEHXZ ENDP				; CZoom::Init
_TEXT	ENDS
; Function compile flags: /Odtp /ZI
;	COMDAT ??__G@YGXPAX0IIP6EPAX00@Z@Z
_TEXT	SEGMENT
tv66 = -68						; size = 4
___t$ = 8						; size = 4
___u$ = 12						; size = 4
___s$ = 16						; size = 4
___n$ = 20						; size = 4
___f$ = 24						; size = 4
??__G@YGXPAX0IIP6EPAX00@Z@Z PROC			; `vector copy constructor iterator', COMDAT
	push	ebp
	mov	ebp, esp
	sub	esp, 68					; 00000044H
	push	ebx
	push	esi
	push	edi
$LN2@vector:
	mov	eax, DWORD PTR ___n$[ebp]
	mov	DWORD PTR tv66[ebp], eax
	mov	ecx, DWORD PTR ___n$[ebp]
	sub	ecx, 1
	mov	DWORD PTR ___n$[ebp], ecx
	cmp	DWORD PTR tv66[ebp], 0
	jbe	SHORT $LN1@vector
	mov	eax, DWORD PTR ___u$[ebp]
	push	eax
	mov	ecx, DWORD PTR ___t$[ebp]
	call	DWORD PTR ___f$[ebp]
	mov	eax, DWORD PTR ___t$[ebp]
	add	eax, DWORD PTR ___s$[ebp]
	mov	DWORD PTR ___t$[ebp], eax
	mov	eax, DWORD PTR ___u$[ebp]
	add	eax, DWORD PTR ___s$[ebp]
	mov	DWORD PTR ___u$[ebp], eax
	jmp	SHORT $LN2@vector
$LN1@vector:
	pop	edi
	pop	esi
	pop	ebx
	mov	esp, ebp
	pop	ebp
	ret	20					; 00000014H
??__G@YGXPAX0IIP6EPAX00@Z@Z ENDP			; `vector copy constructor iterator'
_TEXT	ENDS
; Function compile flags: /Odtp /ZI
;	COMDAT ??_H@YGXPAXIIP6EPAX0@Z@Z
_TEXT	SEGMENT
tv66 = -68						; size = 4
___t$ = 8						; size = 4
___s$ = 12						; size = 4
___n$ = 16						; size = 4
___f$ = 20						; size = 4
??_H@YGXPAXIIP6EPAX0@Z@Z PROC				; `vector constructor iterator', COMDAT
	push	ebp
	mov	ebp, esp
	sub	esp, 68					; 00000044H
	push	ebx
	push	esi
	push	edi
$LN2@vector:
	mov	eax, DWORD PTR ___n$[ebp]
	mov	DWORD PTR tv66[ebp], eax
	mov	ecx, DWORD PTR ___n$[ebp]
	sub	ecx, 1
	mov	DWORD PTR ___n$[ebp], ecx
	cmp	DWORD PTR tv66[ebp], 0
	jbe	SHORT $LN1@vector
	mov	ecx, DWORD PTR ___t$[ebp]
	call	DWORD PTR ___f$[ebp]
	mov	eax, DWORD PTR ___t$[ebp]
	add	eax, DWORD PTR ___s$[ebp]
	mov	DWORD PTR ___t$[ebp], eax
	jmp	SHORT $LN2@vector
$LN1@vector:
	pop	edi
	pop	esi
	pop	ebx
	mov	esp, ebp
	pop	ebp
	ret	16					; 00000010H
??_H@YGXPAXIIP6EPAX0@Z@Z ENDP				; `vector constructor iterator'
_TEXT	ENDS
END
