; Listing generated by Microsoft (R) Optimizing Compiler Version 19.00.24247.2 

	TITLE	D:\!DIFFUSION 2020\source code 2022\client-server\server\game\baseplayer.cpp
	.686P
	.XMM
	include listing.inc
	.model	flat

INCLUDELIB LIBCMT
INCLUDELIB OLDNAMES

PUBLIC	??_C@_0BC@JDPPBOFC@m_szAnimExtention?$AA@	; `string'
PUBLIC	?giPrecacheGrunt@@3HA				; giPrecacheGrunt
PUBLIC	?gmsgSelAmmo@@3HA				; gmsgSelAmmo
PUBLIC	?gmsgFlashlight@@3HA				; gmsgFlashlight
PUBLIC	?gmsgResetHUD@@3HA				; gmsgResetHUD
PUBLIC	?gmsgInitHUD@@3HA				; gmsgInitHUD
PUBLIC	?gmsgShowGameTitle@@3HA				; gmsgShowGameTitle
PUBLIC	?gmsgCurWeapon@@3HA				; gmsgCurWeapon
PUBLIC	?gmsgWeapons@@3HA				; gmsgWeapons
PUBLIC	?gmsgHealth@@3HA				; gmsgHealth
PUBLIC	?gmsgDamage@@3HA				; gmsgDamage
PUBLIC	?gmsgBattery@@3HA				; gmsgBattery
PUBLIC	?gmsgTrain@@3HA					; gmsgTrain
PUBLIC	?gmsgLogo@@3HA					; gmsgLogo
PUBLIC	?gmsgWeaponList@@3HA				; gmsgWeaponList
PUBLIC	?gmsgAmmoX@@3HA					; gmsgAmmoX
PUBLIC	?gmsgDeathMsg@@3HA				; gmsgDeathMsg
PUBLIC	?gmsgScoreInfo@@3HA				; gmsgScoreInfo
PUBLIC	?gmsgTeamInfo@@3HA				; gmsgTeamInfo
PUBLIC	?gmsgTeamScore@@3HA				; gmsgTeamScore
PUBLIC	?gmsgGameMode@@3HA				; gmsgGameMode
PUBLIC	?gmsgMOTD@@3HA					; gmsgMOTD
PUBLIC	?gmsgServerName@@3HA				; gmsgServerName
PUBLIC	?gmsgAmmoPickup@@3HA				; gmsgAmmoPickup
PUBLIC	?gmsgItemPickup@@3HA				; gmsgItemPickup
PUBLIC	?gmsgHideWeapon@@3HA				; gmsgHideWeapon
PUBLIC	?gmsgSetCurWeap@@3HA				; gmsgSetCurWeap
PUBLIC	?gmsgSayText@@3HA				; gmsgSayText
PUBLIC	?gmsgTextMsg@@3HA				; gmsgTextMsg
PUBLIC	?gmsgSetFOV@@3HA				; gmsgSetFOV
PUBLIC	?gmsgShowMenu@@3HA				; gmsgShowMenu
PUBLIC	?gmsgGeigerRange@@3HA				; gmsgGeigerRange
PUBLIC	?gmsgTeamNames@@3HA				; gmsgTeamNames
PUBLIC	?gmsgStatusText@@3HA				; gmsgStatusText
PUBLIC	?gmsgStatusValue@@3HA				; gmsgStatusValue
PUBLIC	?gmsgSpectator@@3HA				; gmsgSpectator
PUBLIC	?gmsgWeaponAnim@@3HA				; gmsgWeaponAnim
PUBLIC	?gmsgHealthbars@@3HA				; gmsgHealthbars
PUBLIC	?gmsgKillPart@@3HA				; gmsgKillPart
PUBLIC	?gmsgKillDecals@@3HA				; gmsgKillDecals
PUBLIC	?gmsgRainData@@3HA				; gmsgRainData
PUBLIC	?gmsgStatusIcon@@3HA				; gmsgStatusIcon
PUBLIC	?gmsgStatusIconTutor@@3HA			; gmsgStatusIconTutor
PUBLIC	?gmsgStatusIconAchievement@@3HA			; gmsgStatusIconAchievement
PUBLIC	?gmsgHealthVisual@@3HA				; gmsgHealthVisual
PUBLIC	?gmsgStamina@@3HA				; gmsgStamina
PUBLIC	?gmsgUseIcon@@3HA				; gmsgUseIcon
PUBLIC	?gmsgShake@@3HA					; gmsgShake
PUBLIC	?gmsgFade@@3HA					; gmsgFade
PUBLIC	?gmsgTempEnt@@3HA				; gmsgTempEnt
PUBLIC	?gmsgCrosshairStatic@@3HA			; gmsgCrosshairStatic
PUBLIC	?gmsgGaussHUD@@3HA				; gmsgGaussHUD
PUBLIC	?gmsgBlastIcons@@3HA				; gmsgBlastIcons
PUBLIC	?gmsgCodeInput@@3HA				; gmsgCodeInput
PUBLIC	?gmsgWaterSplash@@3HA				; gmsgWaterSplash
PUBLIC	?gmsgHudText@@3HA				; gmsgHudText
PUBLIC	?gmsgParticle@@3HA				; gmsgParticle
PUBLIC	?gmsgMusicFade@@3HA				; gmsgMusicFade
PUBLIC	?gmsgSetupBones@@3HA				; gmsgSetupBones
PUBLIC	?gInitHUD@@3HA					; gInitHUD
PUBLIC	?pHitboxNames@@3PAPBDA				; pHitboxNames
PUBLIC	??_C@_07MLMHLOOL@Generic?$AA@			; `string'
PUBLIC	??_C@_04BFCCBDOP@Head?$AA@			; `string'
PUBLIC	??_C@_05HPKPHHNI@Chest?$AA@			; `string'
PUBLIC	??_C@_07KFHMCKEI@Stomach?$AA@			; `string'
PUBLIC	??_C@_08KEMBDKBN@Left?5Arm?$AA@			; `string'
PUBLIC	??_C@_09MGNPKLHM@Right?5Arm?$AA@		; `string'
PUBLIC	??_C@_08LFCNLPLP@Left?5Leg?$AA@			; `string'
PUBLIC	??_C@_09NHDDCONO@Right?5Leg?$AA@		; `string'
PUBLIC	??_C@_08OHEBAJLM@Unknown8?$AA@			; `string'
PUBLIC	??_C@_08POFKDIPN@Unknown9?$AA@			; `string'
PUBLIC	??_C@_09BCKHLDNC@Unknown10?$AA@			; `string'
PUBLIC	??_C@_09LLMICJD@Unknown11?$AA@			; `string'
PUBLIC	??_C@_09CAJBNBFA@Unknown12?$AA@			; `string'
PUBLIC	?gEvilImpulse101@@3HA				; gEvilImpulse101
PUBLIC	??_C@_09DJIKOABB@Unknown13?$AA@			; `string'
PUBLIC	?m_fRegenRemander@@3MA				; m_fRegenRemander
PUBLIC	??_C@_09HGMLHGNG@Unknown14?$AA@			; `string'
PUBLIC	?RegenWaitTime@@3MA				; RegenWaitTime
PUBLIC	??_C@_09GPNAEHJH@Unknown15?$AA@			; `string'
PUBLIC	?RegenRate@@3MA					; RegenRate
PUBLIC	??_C@_0M@JPGAEHPN@CBasePlayer?$AA@		; `string'
PUBLIC	?g_pevLastInflictor@@3PAUentvars_s@@A		; g_pevLastInflictor
PUBLIC	??_C@_00CNPNBAHC@?$AA@				; `string'
PUBLIC	?m_DataMap@CBasePlayer@@2Udatamap_s@@A		; CBasePlayer::m_DataMap
PUBLIC	?gmsgWeapPickup@@3HA				; gmsgWeapPickup
PUBLIC	?gmsgZoom@@3HA					; gmsgZoom
PUBLIC	??_C@_0BD@CAIGLONG@m_flFlashLightTime?$AA@	; `string'
PUBLIC	??_C@_0BA@PPJCOFDL@m_iFlashBattery?$AA@		; `string'
PUBLIC	??_C@_0P@KEOFIABN@m_afButtonLast?$AA@		; `string'
PUBLIC	??_C@_0BC@NDJHIJIA@m_afButtonPressed?$AA@	; `string'
PUBLIC	??_C@_0BD@JKPFKIHN@m_afButtonReleased?$AA@	; `string'
PUBLIC	??_C@_09FJADBKLE@m_rgItems?$AA@			; `string'
PUBLIC	??_C@_0BB@BNBADOCE@m_afPhysicsFlags?$AA@	; `string'
PUBLIC	??_C@_0BC@EIPLGABJ@m_flTimeStepSound?$AA@	; `string'
PUBLIC	??_C@_0BD@PIBAPMMC@m_flTimeWeaponIdle?$AA@	; `string'
PUBLIC	??_C@_0N@BADHJIDO@m_flSwimTime?$AA@		; `string'
PUBLIC	??_C@_0N@OIJKAMKI@m_flDuckTime?$AA@		; `string'
PUBLIC	??_C@_0P@JDLOBIKO@m_flSuitUpdate?$AA@		; `string'
PUBLIC	??_C@_0BB@LIJDLDDA@m_rgSuitPlayList?$AA@	; `string'
PUBLIC	??_C@_0BA@JDHIHGP@m_iSuitPlayNext?$AA@		; `string'
PUBLIC	??_C@_0BC@HLHFICFF@m_rgiSuitNoRepeat?$AA@	; `string'
PUBLIC	??_C@_0BH@NGIAKLAL@m_rgflSuitNoRepeatTime?$AA@	; `string'
PUBLIC	??_C@_0BD@FNBHLOHL@m_lastDamageAmount?$AA@	; `string'
PUBLIC	??_C@_0BB@GHEKCEGC@m_rgpPlayerItems?$AA@	; `string'
PUBLIC	??_C@_0O@KIFOCAMF@m_pActiveItem?$AA@		; `string'
PUBLIC	??_C@_0M@GJPNDMIJ@m_pLastItem?$AA@		; `string'
PUBLIC	??_C@_08FIGPODBE@m_rgAmmo?$AA@			; `string'
PUBLIC	??_C@_0M@IILFBJHF@m_idrowndmg?$AA@		; `string'
PUBLIC	??_C@_0BB@LGCIKBLF@m_idrownrestored?$AA@	; `string'
PUBLIC	?g_pLastSpawn@@3PAVCBaseEntity@@A		; g_pLastSpawn
PUBLIC	??_C@_0M@HCJCMNGO@m_tSneaking?$AA@		; `string'
PUBLIC	??_C@_08NBNLKFA@m_iTrain?$AA@			; `string'
PUBLIC	??_C@_0BA@IBLOCKKC@m_bitsHUDDamage?$AA@		; `string'
PUBLIC	??_C@_0BB@PBNAOOBP@m_flFallVelocity?$AA@	; `string'
PUBLIC	??_C@_0BA@OLILJCPJ@m_iTargetVolume?$AA@		; `string'
PUBLIC	??_C@_0BA@NPHEFKGO@m_iWeaponVolume?$AA@		; `string'
PUBLIC	??_C@_0BD@INMMHMGB@m_iExtraSoundTypes?$AA@	; `string'
PUBLIC	??_C@_0P@OGILBABK@m_iWeaponFlash?$AA@		; `string'
PUBLIC	??_C@_0M@NLOPHCDO@m_fLongJump?$AA@		; `string'
PUBLIC	??_C@_0L@GGOFAKM@m_fInitHUD?$AA@		; `string'
PUBLIC	??_C@_09PMINGJGD@m_tbdPrev?$AA@			; `string'
PUBLIC	??_C@_07IFMFKMEI@m_pTank?$AA@			; `string'
PUBLIC	??_C@_0L@GEOBLLLI@m_pMonitor?$AA@		; `string'
PUBLIC	??_C@_0BA@MOLDGFFP@m_pHoldableItem?$AA@		; `string'
PUBLIC	??_C@_0L@DBMEAMIB@m_iHideHUD?$AA@		; `string'
PUBLIC	??_C@_07KPJJENGH@m_flFOV?$AA@			; `string'
PUBLIC	??_C@_0BG@JOGGPDBG@m_iRainDripsPerSecond?$AA@	; `string'
PUBLIC	??_C@_0O@CHAAAAEA@m_flRainWindX?$AA@		; `string'
PUBLIC	??_C@_0O@DOBLDBAB@m_flRainWindY?$AA@		; `string'
PUBLIC	??_C@_0O@EHLNNKDC@m_flRainRandX?$AA@		; `string'
PUBLIC	??_C@_0O@FOKGOLHD@m_flRainRandY?$AA@		; `string'
PUBLIC	??_C@_0BL@EFKIMNIF@m_iRainIdealDripsPerSecond?$AA@ ; `string'
PUBLIC	??_C@_0BD@HODNIGEK@m_flRainIdealWindX?$AA@	; `string'
PUBLIC	??_C@_0BD@GHCGLHAL@m_flRainIdealWindY?$AA@	; `string'
PUBLIC	??_C@_0BD@BOIAFMDI@m_flRainIdealRandX?$AA@	; `string'
PUBLIC	??_C@_0BD@HJLGNHJ@m_flRainIdealRandY?$AA@	; `string'
PUBLIC	??_C@_0BA@MLKNHEOK@m_flRainEndFade?$AA@		; `string'
PUBLIC	??_C@_0BH@EBJAJANP@m_flRainNextFadeUpdate?$AA@	; `string'
PUBLIC	??_C@_0P@ECJJIBOE@m_hKeyCatchers?$AA@		; `string'
PUBLIC	??_C@_0BC@BFFKEDEH@m_iNumKeyCatchers?$AA@	; `string'
PUBLIC	??_C@_0BK@LBDEJMPC@m_vecHoldableItemPosition?$AA@ ; `string'
PUBLIC	??_C@_0BJ@MFECEAC@m_flHoldableItemDistance?$AA@	; `string'
PUBLIC	??_C@_0BF@PDAHLDDC@m_nCustomSprayFrames?$AA@	; `string'
_BSS	SEGMENT
?giPrecacheGrunt@@3HA DD 01H DUP (?)			; giPrecacheGrunt
?gmsgSelAmmo@@3HA DD 01H DUP (?)			; gmsgSelAmmo
?gmsgFlashlight@@3HA DD 01H DUP (?)			; gmsgFlashlight
?gmsgResetHUD@@3HA DD 01H DUP (?)			; gmsgResetHUD
?gmsgInitHUD@@3HA DD 01H DUP (?)			; gmsgInitHUD
?gmsgShowGameTitle@@3HA DD 01H DUP (?)			; gmsgShowGameTitle
?gmsgCurWeapon@@3HA DD 01H DUP (?)			; gmsgCurWeapon
?gmsgWeapons@@3HA DD 01H DUP (?)			; gmsgWeapons
?gmsgHealth@@3HA DD 01H DUP (?)				; gmsgHealth
?gmsgDamage@@3HA DD 01H DUP (?)				; gmsgDamage
?gmsgBattery@@3HA DD 01H DUP (?)			; gmsgBattery
?gmsgTrain@@3HA DD 01H DUP (?)				; gmsgTrain
?gmsgLogo@@3HA DD 01H DUP (?)				; gmsgLogo
?gmsgWeaponList@@3HA DD 01H DUP (?)			; gmsgWeaponList
?gmsgAmmoX@@3HA DD 01H DUP (?)				; gmsgAmmoX
?gmsgDeathMsg@@3HA DD 01H DUP (?)			; gmsgDeathMsg
?gmsgScoreInfo@@3HA DD 01H DUP (?)			; gmsgScoreInfo
?gmsgTeamInfo@@3HA DD 01H DUP (?)			; gmsgTeamInfo
?gmsgTeamScore@@3HA DD 01H DUP (?)			; gmsgTeamScore
?gmsgGameMode@@3HA DD 01H DUP (?)			; gmsgGameMode
?gmsgMOTD@@3HA DD 01H DUP (?)				; gmsgMOTD
?gmsgServerName@@3HA DD 01H DUP (?)			; gmsgServerName
?gmsgAmmoPickup@@3HA DD 01H DUP (?)			; gmsgAmmoPickup
?gmsgItemPickup@@3HA DD 01H DUP (?)			; gmsgItemPickup
?gmsgHideWeapon@@3HA DD 01H DUP (?)			; gmsgHideWeapon
?gmsgSetCurWeap@@3HA DD 01H DUP (?)			; gmsgSetCurWeap
?gmsgSayText@@3HA DD 01H DUP (?)			; gmsgSayText
?gmsgTextMsg@@3HA DD 01H DUP (?)			; gmsgTextMsg
?gmsgSetFOV@@3HA DD 01H DUP (?)				; gmsgSetFOV
?gmsgShowMenu@@3HA DD 01H DUP (?)			; gmsgShowMenu
?gmsgGeigerRange@@3HA DD 01H DUP (?)			; gmsgGeigerRange
?gmsgTeamNames@@3HA DD 01H DUP (?)			; gmsgTeamNames
?gmsgStatusText@@3HA DD 01H DUP (?)			; gmsgStatusText
?gmsgStatusValue@@3HA DD 01H DUP (?)			; gmsgStatusValue
?gmsgSpectator@@3HA DD 01H DUP (?)			; gmsgSpectator
?gmsgWeaponAnim@@3HA DD 01H DUP (?)			; gmsgWeaponAnim
?gmsgHealthbars@@3HA DD 01H DUP (?)			; gmsgHealthbars
?gmsgKillPart@@3HA DD 01H DUP (?)			; gmsgKillPart
?gmsgKillDecals@@3HA DD 01H DUP (?)			; gmsgKillDecals
?gmsgRainData@@3HA DD 01H DUP (?)			; gmsgRainData
?gmsgStatusIcon@@3HA DD 01H DUP (?)			; gmsgStatusIcon
?gmsgStatusIconTutor@@3HA DD 01H DUP (?)		; gmsgStatusIconTutor
?gmsgStatusIconAchievement@@3HA DD 01H DUP (?)		; gmsgStatusIconAchievement
?gmsgHealthVisual@@3HA DD 01H DUP (?)			; gmsgHealthVisual
?gmsgStamina@@3HA DD 01H DUP (?)			; gmsgStamina
?gmsgUseIcon@@3HA DD 01H DUP (?)			; gmsgUseIcon
?gmsgShake@@3HA DD 01H DUP (?)				; gmsgShake
?gmsgFade@@3HA DD 01H DUP (?)				; gmsgFade
?gmsgTempEnt@@3HA DD 01H DUP (?)			; gmsgTempEnt
?gmsgCrosshairStatic@@3HA DD 01H DUP (?)		; gmsgCrosshairStatic
?gmsgGaussHUD@@3HA DD 01H DUP (?)			; gmsgGaussHUD
?gmsgBlastIcons@@3HA DD 01H DUP (?)			; gmsgBlastIcons
?gmsgCodeInput@@3HA DD 01H DUP (?)			; gmsgCodeInput
?gmsgWaterSplash@@3HA DD 01H DUP (?)			; gmsgWaterSplash
?lastwpdebugtime@?CD@??PreThink@CBasePlayer@@UAEXXZ@4MA DD 01H DUP (?) ; `CBasePlayer::PreThink'::`35'::lastwpdebugtime
?gmsgHudText@@3HA DD 01H DUP (?)			; gmsgHudText
?gmsgParticle@@3HA DD 01H DUP (?)			; gmsgParticle
?gmsgMusicFade@@3HA DD 01H DUP (?)			; gmsgMusicFade
?gmsgSetupBones@@3HA DD 01H DUP (?)			; gmsgSetupBones
?gEvilImpulse101@@3HA DD 01H DUP (?)			; gEvilImpulse101
?m_fRegenRemander@@3MA DD 01H DUP (?)			; m_fRegenRemander
?RegenWaitTime@@3MA DD 01H DUP (?)			; RegenWaitTime
?RegenRate@@3MA DD 01H DUP (?)				; RegenRate
?g_pevLastInflictor@@3PAUentvars_s@@A DD 01H DUP (?)	; g_pevLastInflictor
?gmsgWeapPickup@@3HA DD 01H DUP (?)			; gmsgWeapPickup
?gmsgZoom@@3HA DD 01H DUP (?)				; gmsgZoom
?g_pLastSpawn@@3PAVCBaseEntity@@A DD 01H DUP (?)	; g_pLastSpawn
_BSS	ENDS
;	COMDAT ??_C@_0BF@PDAHLDDC@m_nCustomSprayFrames?$AA@
CONST	SEGMENT
??_C@_0BF@PDAHLDDC@m_nCustomSprayFrames?$AA@ DB 'm_nCustomSprayFrames', 00H ; `string'
CONST	ENDS
;	COMDAT ??_C@_0BJ@MFECEAC@m_flHoldableItemDistance?$AA@
CONST	SEGMENT
??_C@_0BJ@MFECEAC@m_flHoldableItemDistance?$AA@ DB 'm_flHoldableItemDista'
	DB	'nce', 00H					; `string'
CONST	ENDS
;	COMDAT ??_C@_0BK@LBDEJMPC@m_vecHoldableItemPosition?$AA@
CONST	SEGMENT
??_C@_0BK@LBDEJMPC@m_vecHoldableItemPosition?$AA@ DB 'm_vecHoldableItemPo'
	DB	'sition', 00H				; `string'
CONST	ENDS
;	COMDAT ??_C@_0BC@BFFKEDEH@m_iNumKeyCatchers?$AA@
CONST	SEGMENT
??_C@_0BC@BFFKEDEH@m_iNumKeyCatchers?$AA@ DB 'm_iNumKeyCatchers', 00H ; `string'
CONST	ENDS
;	COMDAT ??_C@_0P@ECJJIBOE@m_hKeyCatchers?$AA@
CONST	SEGMENT
??_C@_0P@ECJJIBOE@m_hKeyCatchers?$AA@ DB 'm_hKeyCatchers', 00H ; `string'
CONST	ENDS
;	COMDAT ??_C@_0BH@EBJAJANP@m_flRainNextFadeUpdate?$AA@
CONST	SEGMENT
??_C@_0BH@EBJAJANP@m_flRainNextFadeUpdate?$AA@ DB 'm_flRainNextFadeUpdate'
	DB	00H						; `string'
CONST	ENDS
;	COMDAT ??_C@_0BA@MLKNHEOK@m_flRainEndFade?$AA@
CONST	SEGMENT
??_C@_0BA@MLKNHEOK@m_flRainEndFade?$AA@ DB 'm_flRainEndFade', 00H ; `string'
CONST	ENDS
;	COMDAT ??_C@_0BD@HJLGNHJ@m_flRainIdealRandY?$AA@
CONST	SEGMENT
??_C@_0BD@HJLGNHJ@m_flRainIdealRandY?$AA@ DB 'm_flRainIdealRandY', 00H ; `string'
CONST	ENDS
;	COMDAT ??_C@_0BD@BOIAFMDI@m_flRainIdealRandX?$AA@
CONST	SEGMENT
??_C@_0BD@BOIAFMDI@m_flRainIdealRandX?$AA@ DB 'm_flRainIdealRandX', 00H ; `string'
CONST	ENDS
;	COMDAT ??_C@_0BD@GHCGLHAL@m_flRainIdealWindY?$AA@
CONST	SEGMENT
??_C@_0BD@GHCGLHAL@m_flRainIdealWindY?$AA@ DB 'm_flRainIdealWindY', 00H ; `string'
CONST	ENDS
;	COMDAT ??_C@_0BD@HODNIGEK@m_flRainIdealWindX?$AA@
CONST	SEGMENT
??_C@_0BD@HODNIGEK@m_flRainIdealWindX?$AA@ DB 'm_flRainIdealWindX', 00H ; `string'
CONST	ENDS
;	COMDAT ??_C@_0BL@EFKIMNIF@m_iRainIdealDripsPerSecond?$AA@
CONST	SEGMENT
??_C@_0BL@EFKIMNIF@m_iRainIdealDripsPerSecond?$AA@ DB 'm_iRainIdealDripsP'
	DB	'erSecond', 00H				; `string'
CONST	ENDS
;	COMDAT ??_C@_0O@FOKGOLHD@m_flRainRandY?$AA@
CONST	SEGMENT
??_C@_0O@FOKGOLHD@m_flRainRandY?$AA@ DB 'm_flRainRandY', 00H ; `string'
CONST	ENDS
;	COMDAT ??_C@_0O@EHLNNKDC@m_flRainRandX?$AA@
CONST	SEGMENT
??_C@_0O@EHLNNKDC@m_flRainRandX?$AA@ DB 'm_flRainRandX', 00H ; `string'
CONST	ENDS
;	COMDAT ??_C@_0O@DOBLDBAB@m_flRainWindY?$AA@
CONST	SEGMENT
??_C@_0O@DOBLDBAB@m_flRainWindY?$AA@ DB 'm_flRainWindY', 00H ; `string'
CONST	ENDS
;	COMDAT ??_C@_0O@CHAAAAEA@m_flRainWindX?$AA@
CONST	SEGMENT
??_C@_0O@CHAAAAEA@m_flRainWindX?$AA@ DB 'm_flRainWindX', 00H ; `string'
CONST	ENDS
;	COMDAT ??_C@_0BG@JOGGPDBG@m_iRainDripsPerSecond?$AA@
CONST	SEGMENT
??_C@_0BG@JOGGPDBG@m_iRainDripsPerSecond?$AA@ DB 'm_iRainDripsPerSecond', 00H ; `string'
CONST	ENDS
;	COMDAT ??_C@_07KPJJENGH@m_flFOV?$AA@
CONST	SEGMENT
??_C@_07KPJJENGH@m_flFOV?$AA@ DB 'm_flFOV', 00H		; `string'
CONST	ENDS
;	COMDAT ??_C@_0L@DBMEAMIB@m_iHideHUD?$AA@
CONST	SEGMENT
??_C@_0L@DBMEAMIB@m_iHideHUD?$AA@ DB 'm_iHideHUD', 00H	; `string'
CONST	ENDS
;	COMDAT ??_C@_0BA@MOLDGFFP@m_pHoldableItem?$AA@
CONST	SEGMENT
??_C@_0BA@MOLDGFFP@m_pHoldableItem?$AA@ DB 'm_pHoldableItem', 00H ; `string'
CONST	ENDS
;	COMDAT ??_C@_0L@GEOBLLLI@m_pMonitor?$AA@
CONST	SEGMENT
??_C@_0L@GEOBLLLI@m_pMonitor?$AA@ DB 'm_pMonitor', 00H	; `string'
CONST	ENDS
;	COMDAT ??_C@_07IFMFKMEI@m_pTank?$AA@
CONST	SEGMENT
??_C@_07IFMFKMEI@m_pTank?$AA@ DB 'm_pTank', 00H		; `string'
CONST	ENDS
;	COMDAT ??_C@_09PMINGJGD@m_tbdPrev?$AA@
CONST	SEGMENT
??_C@_09PMINGJGD@m_tbdPrev?$AA@ DB 'm_tbdPrev', 00H	; `string'
CONST	ENDS
;	COMDAT ??_C@_0L@GGOFAKM@m_fInitHUD?$AA@
CONST	SEGMENT
??_C@_0L@GGOFAKM@m_fInitHUD?$AA@ DB 'm_fInitHUD', 00H	; `string'
CONST	ENDS
;	COMDAT ??_C@_0M@NLOPHCDO@m_fLongJump?$AA@
CONST	SEGMENT
??_C@_0M@NLOPHCDO@m_fLongJump?$AA@ DB 'm_fLongJump', 00H ; `string'
CONST	ENDS
;	COMDAT ??_C@_0P@OGILBABK@m_iWeaponFlash?$AA@
CONST	SEGMENT
??_C@_0P@OGILBABK@m_iWeaponFlash?$AA@ DB 'm_iWeaponFlash', 00H ; `string'
CONST	ENDS
;	COMDAT ??_C@_0BD@INMMHMGB@m_iExtraSoundTypes?$AA@
CONST	SEGMENT
??_C@_0BD@INMMHMGB@m_iExtraSoundTypes?$AA@ DB 'm_iExtraSoundTypes', 00H ; `string'
CONST	ENDS
;	COMDAT ??_C@_0BA@NPHEFKGO@m_iWeaponVolume?$AA@
CONST	SEGMENT
??_C@_0BA@NPHEFKGO@m_iWeaponVolume?$AA@ DB 'm_iWeaponVolume', 00H ; `string'
CONST	ENDS
;	COMDAT ??_C@_0BA@OLILJCPJ@m_iTargetVolume?$AA@
CONST	SEGMENT
??_C@_0BA@OLILJCPJ@m_iTargetVolume?$AA@ DB 'm_iTargetVolume', 00H ; `string'
CONST	ENDS
;	COMDAT ??_C@_0BB@PBNAOOBP@m_flFallVelocity?$AA@
CONST	SEGMENT
??_C@_0BB@PBNAOOBP@m_flFallVelocity?$AA@ DB 'm_flFallVelocity', 00H ; `string'
CONST	ENDS
;	COMDAT ??_C@_0BA@IBLOCKKC@m_bitsHUDDamage?$AA@
CONST	SEGMENT
??_C@_0BA@IBLOCKKC@m_bitsHUDDamage?$AA@ DB 'm_bitsHUDDamage', 00H ; `string'
CONST	ENDS
;	COMDAT ??_C@_08NBNLKFA@m_iTrain?$AA@
CONST	SEGMENT
??_C@_08NBNLKFA@m_iTrain?$AA@ DB 'm_iTrain', 00H	; `string'
CONST	ENDS
;	COMDAT ??_C@_0M@HCJCMNGO@m_tSneaking?$AA@
CONST	SEGMENT
??_C@_0M@HCJCMNGO@m_tSneaking?$AA@ DB 'm_tSneaking', 00H ; `string'
CONST	ENDS
;	COMDAT ??_C@_0BB@LGCIKBLF@m_idrownrestored?$AA@
CONST	SEGMENT
??_C@_0BB@LGCIKBLF@m_idrownrestored?$AA@ DB 'm_idrownrestored', 00H ; `string'
CONST	ENDS
;	COMDAT ??_C@_0M@IILFBJHF@m_idrowndmg?$AA@
CONST	SEGMENT
??_C@_0M@IILFBJHF@m_idrowndmg?$AA@ DB 'm_idrowndmg', 00H ; `string'
CONST	ENDS
;	COMDAT ??_C@_08FIGPODBE@m_rgAmmo?$AA@
CONST	SEGMENT
??_C@_08FIGPODBE@m_rgAmmo?$AA@ DB 'm_rgAmmo', 00H	; `string'
CONST	ENDS
;	COMDAT ??_C@_0M@GJPNDMIJ@m_pLastItem?$AA@
CONST	SEGMENT
??_C@_0M@GJPNDMIJ@m_pLastItem?$AA@ DB 'm_pLastItem', 00H ; `string'
CONST	ENDS
;	COMDAT ??_C@_0O@KIFOCAMF@m_pActiveItem?$AA@
CONST	SEGMENT
??_C@_0O@KIFOCAMF@m_pActiveItem?$AA@ DB 'm_pActiveItem', 00H ; `string'
CONST	ENDS
;	COMDAT ??_C@_0BB@GHEKCEGC@m_rgpPlayerItems?$AA@
CONST	SEGMENT
??_C@_0BB@GHEKCEGC@m_rgpPlayerItems?$AA@ DB 'm_rgpPlayerItems', 00H ; `string'
CONST	ENDS
;	COMDAT ??_C@_0BD@FNBHLOHL@m_lastDamageAmount?$AA@
CONST	SEGMENT
??_C@_0BD@FNBHLOHL@m_lastDamageAmount?$AA@ DB 'm_lastDamageAmount', 00H ; `string'
CONST	ENDS
;	COMDAT ??_C@_0BH@NGIAKLAL@m_rgflSuitNoRepeatTime?$AA@
CONST	SEGMENT
??_C@_0BH@NGIAKLAL@m_rgflSuitNoRepeatTime?$AA@ DB 'm_rgflSuitNoRepeatTime'
	DB	00H						; `string'
CONST	ENDS
;	COMDAT ??_C@_0BC@HLHFICFF@m_rgiSuitNoRepeat?$AA@
CONST	SEGMENT
??_C@_0BC@HLHFICFF@m_rgiSuitNoRepeat?$AA@ DB 'm_rgiSuitNoRepeat', 00H ; `string'
CONST	ENDS
;	COMDAT ??_C@_0BA@JDHIHGP@m_iSuitPlayNext?$AA@
CONST	SEGMENT
??_C@_0BA@JDHIHGP@m_iSuitPlayNext?$AA@ DB 'm_iSuitPlayNext', 00H ; `string'
CONST	ENDS
;	COMDAT ??_C@_0BB@LIJDLDDA@m_rgSuitPlayList?$AA@
CONST	SEGMENT
??_C@_0BB@LIJDLDDA@m_rgSuitPlayList?$AA@ DB 'm_rgSuitPlayList', 00H ; `string'
CONST	ENDS
;	COMDAT ??_C@_0P@JDLOBIKO@m_flSuitUpdate?$AA@
CONST	SEGMENT
??_C@_0P@JDLOBIKO@m_flSuitUpdate?$AA@ DB 'm_flSuitUpdate', 00H ; `string'
CONST	ENDS
;	COMDAT ??_C@_0N@OIJKAMKI@m_flDuckTime?$AA@
CONST	SEGMENT
??_C@_0N@OIJKAMKI@m_flDuckTime?$AA@ DB 'm_flDuckTime', 00H ; `string'
CONST	ENDS
;	COMDAT ??_C@_0N@BADHJIDO@m_flSwimTime?$AA@
CONST	SEGMENT
??_C@_0N@BADHJIDO@m_flSwimTime?$AA@ DB 'm_flSwimTime', 00H ; `string'
CONST	ENDS
;	COMDAT ??_C@_0BD@PIBAPMMC@m_flTimeWeaponIdle?$AA@
CONST	SEGMENT
??_C@_0BD@PIBAPMMC@m_flTimeWeaponIdle?$AA@ DB 'm_flTimeWeaponIdle', 00H ; `string'
CONST	ENDS
;	COMDAT ??_C@_0BC@EIPLGABJ@m_flTimeStepSound?$AA@
CONST	SEGMENT
??_C@_0BC@EIPLGABJ@m_flTimeStepSound?$AA@ DB 'm_flTimeStepSound', 00H ; `string'
CONST	ENDS
;	COMDAT ??_C@_0BB@BNBADOCE@m_afPhysicsFlags?$AA@
CONST	SEGMENT
??_C@_0BB@BNBADOCE@m_afPhysicsFlags?$AA@ DB 'm_afPhysicsFlags', 00H ; `string'
CONST	ENDS
;	COMDAT ??_C@_09FJADBKLE@m_rgItems?$AA@
CONST	SEGMENT
??_C@_09FJADBKLE@m_rgItems?$AA@ DB 'm_rgItems', 00H	; `string'
CONST	ENDS
;	COMDAT ??_C@_0BD@JKPFKIHN@m_afButtonReleased?$AA@
CONST	SEGMENT
??_C@_0BD@JKPFKIHN@m_afButtonReleased?$AA@ DB 'm_afButtonReleased', 00H ; `string'
CONST	ENDS
;	COMDAT ??_C@_0BC@NDJHIJIA@m_afButtonPressed?$AA@
CONST	SEGMENT
??_C@_0BC@NDJHIJIA@m_afButtonPressed?$AA@ DB 'm_afButtonPressed', 00H ; `string'
CONST	ENDS
;	COMDAT ??_C@_0P@KEOFIABN@m_afButtonLast?$AA@
CONST	SEGMENT
??_C@_0P@KEOFIABN@m_afButtonLast?$AA@ DB 'm_afButtonLast', 00H ; `string'
CONST	ENDS
;	COMDAT ??_C@_0BA@PPJCOFDL@m_iFlashBattery?$AA@
CONST	SEGMENT
??_C@_0BA@PPJCOFDL@m_iFlashBattery?$AA@ DB 'm_iFlashBattery', 00H ; `string'
CONST	ENDS
;	COMDAT ??_C@_0BD@CAIGLONG@m_flFlashLightTime?$AA@
CONST	SEGMENT
??_C@_0BD@CAIGLONG@m_flFlashLightTime?$AA@ DB 'm_flFlashLightTime', 00H ; `string'
CONST	ENDS
;	COMDAT ??_C@_00CNPNBAHC@?$AA@
CONST	SEGMENT
??_C@_00CNPNBAHC@?$AA@ DB 00H				; `string'
CONST	ENDS
;	COMDAT ??_C@_0M@JPGAEHPN@CBasePlayer?$AA@
CONST	SEGMENT
??_C@_0M@JPGAEHPN@CBasePlayer?$AA@ DB 'CBasePlayer', 00H ; `string'
CONST	ENDS
;	COMDAT ??_C@_09GPNAEHJH@Unknown15?$AA@
CONST	SEGMENT
??_C@_09GPNAEHJH@Unknown15?$AA@ DB 'Unknown15', 00H	; `string'
CONST	ENDS
;	COMDAT ??_C@_09HGMLHGNG@Unknown14?$AA@
CONST	SEGMENT
??_C@_09HGMLHGNG@Unknown14?$AA@ DB 'Unknown14', 00H	; `string'
CONST	ENDS
;	COMDAT ??_C@_09DJIKOABB@Unknown13?$AA@
CONST	SEGMENT
??_C@_09DJIKOABB@Unknown13?$AA@ DB 'Unknown13', 00H	; `string'
CONST	ENDS
;	COMDAT ??_C@_09CAJBNBFA@Unknown12?$AA@
CONST	SEGMENT
??_C@_09CAJBNBFA@Unknown12?$AA@ DB 'Unknown12', 00H	; `string'
CONST	ENDS
;	COMDAT ??_C@_09LLMICJD@Unknown11?$AA@
CONST	SEGMENT
??_C@_09LLMICJD@Unknown11?$AA@ DB 'Unknown11', 00H	; `string'
CONST	ENDS
;	COMDAT ??_C@_09BCKHLDNC@Unknown10?$AA@
CONST	SEGMENT
??_C@_09BCKHLDNC@Unknown10?$AA@ DB 'Unknown10', 00H	; `string'
CONST	ENDS
;	COMDAT ??_C@_08POFKDIPN@Unknown9?$AA@
CONST	SEGMENT
??_C@_08POFKDIPN@Unknown9?$AA@ DB 'Unknown9', 00H	; `string'
CONST	ENDS
;	COMDAT ??_C@_08OHEBAJLM@Unknown8?$AA@
CONST	SEGMENT
??_C@_08OHEBAJLM@Unknown8?$AA@ DB 'Unknown8', 00H	; `string'
CONST	ENDS
;	COMDAT ??_C@_09NHDDCONO@Right?5Leg?$AA@
CONST	SEGMENT
??_C@_09NHDDCONO@Right?5Leg?$AA@ DB 'Right Leg', 00H	; `string'
CONST	ENDS
;	COMDAT ??_C@_08LFCNLPLP@Left?5Leg?$AA@
CONST	SEGMENT
??_C@_08LFCNLPLP@Left?5Leg?$AA@ DB 'Left Leg', 00H	; `string'
CONST	ENDS
;	COMDAT ??_C@_09MGNPKLHM@Right?5Arm?$AA@
CONST	SEGMENT
??_C@_09MGNPKLHM@Right?5Arm?$AA@ DB 'Right Arm', 00H	; `string'
CONST	ENDS
;	COMDAT ??_C@_08KEMBDKBN@Left?5Arm?$AA@
CONST	SEGMENT
??_C@_08KEMBDKBN@Left?5Arm?$AA@ DB 'Left Arm', 00H	; `string'
CONST	ENDS
;	COMDAT ??_C@_07KFHMCKEI@Stomach?$AA@
CONST	SEGMENT
??_C@_07KFHMCKEI@Stomach?$AA@ DB 'Stomach', 00H		; `string'
CONST	ENDS
;	COMDAT ??_C@_05HPKPHHNI@Chest?$AA@
CONST	SEGMENT
??_C@_05HPKPHHNI@Chest?$AA@ DB 'Chest', 00H		; `string'
CONST	ENDS
;	COMDAT ??_C@_04BFCCBDOP@Head?$AA@
CONST	SEGMENT
??_C@_04BFCCBDOP@Head?$AA@ DB 'Head', 00H		; `string'
CONST	ENDS
;	COMDAT ??_C@_07MLMHLOOL@Generic?$AA@
CONST	SEGMENT
??_C@_07MLMHLOOL@Generic?$AA@ DB 'Generic', 00H		; `string'
CONST	ENDS
_DATA	SEGMENT
?gInitHUD@@3HA DD 01H					; gInitHUD
	ORG $+4
?pHitboxNames@@3PAPBDA DD FLAT:??_C@_07MLMHLOOL@Generic?$AA@ ; pHitboxNames
	DD	FLAT:??_C@_04BFCCBDOP@Head?$AA@
	DD	FLAT:??_C@_05HPKPHHNI@Chest?$AA@
	DD	FLAT:??_C@_07KFHMCKEI@Stomach?$AA@
	DD	FLAT:??_C@_08KEMBDKBN@Left?5Arm?$AA@
	DD	FLAT:??_C@_09MGNPKLHM@Right?5Arm?$AA@
	DD	FLAT:??_C@_08LFCNLPLP@Left?5Leg?$AA@
	DD	FLAT:??_C@_09NHDDCONO@Right?5Leg?$AA@
	DD	FLAT:??_C@_08OHEBAJLM@Unknown8?$AA@
	DD	FLAT:??_C@_08POFKDIPN@Unknown9?$AA@
	DD	FLAT:??_C@_09BCKHLDNC@Unknown10?$AA@
	DD	FLAT:??_C@_09LLMICJD@Unknown11?$AA@
	DD	FLAT:??_C@_09CAJBNBFA@Unknown12?$AA@
	DD	FLAT:??_C@_09DJIKOABB@Unknown13?$AA@
	DD	FLAT:??_C@_09HGMLHGNG@Unknown14?$AA@
	DD	FLAT:??_C@_09GPNAEHJH@Unknown15?$AA@
	DD	FLAT:??_C@_00CNPNBAHC@?$AA@
	ORG $+4
?dataDesc@?1???$DataMapInit@VCBasePlayer@@@@YAPAUdatamap_s@@PAVCBasePlayer@@@Z@4PAUtypedescription_s@@A DD 012H ; `DataMapInit<CBasePlayer>'::`2'::dataDesc
	DD	00H
	DD	00H
	DW	00H
	DW	00H
	DD	00H
	DD	00H
	DD	0fH
	DD	FLAT:??_C@_0BD@CAIGLONG@m_flFlashLightTime?$AA@
	DD	09d8H
	DW	01H
	DW	02H
	DD	00H
	DD	00H
	DD	0aH
	DD	FLAT:??_C@_0BA@PPJCOFDL@m_iFlashBattery?$AA@
	DD	09dcH
	DW	01H
	DW	02H
	DD	00H
	DD	00H
	DD	0aH
	DD	FLAT:??_C@_0P@KEOFIABN@m_afButtonLast?$AA@
	DD	09e0H
	DW	01H
	DW	02H
	DD	00H
	DD	00H
	DD	0aH
	DD	FLAT:??_C@_0BC@NDJHIJIA@m_afButtonPressed?$AA@
	DD	09e4H
	DW	01H
	DW	02H
	DD	00H
	DD	00H
	DD	0aH
	DD	FLAT:??_C@_0BD@JKPFKIHN@m_afButtonReleased?$AA@
	DD	09e8H
	DW	01H
	DW	02H
	DD	00H
	DD	00H
	DD	0aH
	DD	FLAT:??_C@_09FJADBKLE@m_rgItems?$AA@
	DD	09fcH
	DW	05H
	DW	02H
	DD	00H
	DD	00H
	DD	0aH
	DD	FLAT:??_C@_0BB@BNBADOCE@m_afPhysicsFlags?$AA@
	DD	0a18H
	DW	01H
	DW	02H
	DD	00H
	DD	00H
	DD	0fH
	DD	FLAT:??_C@_0BC@EIPLGABJ@m_flTimeStepSound?$AA@
	DD	0a20H
	DW	01H
	DW	02H
	DD	00H
	DD	00H
	DD	0fH
	DD	FLAT:??_C@_0BD@PIBAPMMC@m_flTimeWeaponIdle?$AA@
	DD	0a24H
	DW	01H
	DW	02H
	DD	00H
	DD	00H
	DD	0fH
	DD	FLAT:??_C@_0N@BADHJIDO@m_flSwimTime?$AA@
	DD	0a28H
	DW	01H
	DW	02H
	DD	00H
	DD	00H
	DD	0fH
	DD	FLAT:??_C@_0N@OIJKAMKI@m_flDuckTime?$AA@
	DD	0a2cH
	DW	01H
	DW	02H
	DD	00H
	DD	00H
	DD	0fH
	DD	FLAT:??_C@_0P@JDLOBIKO@m_flSuitUpdate?$AA@
	DD	0a30H
	DW	01H
	DW	02H
	DD	00H
	DD	00H
	DD	0aH
	DD	FLAT:??_C@_0BB@LIJDLDDA@m_rgSuitPlayList?$AA@
	DD	0a34H
	DW	04H
	DW	02H
	DD	00H
	DD	00H
	DD	0aH
	DD	FLAT:??_C@_0BA@JDHIHGP@m_iSuitPlayNext?$AA@
	DD	0a44H
	DW	01H
	DW	02H
	DD	00H
	DD	00H
	DD	0aH
	DD	FLAT:??_C@_0BC@HLHFICFF@m_rgiSuitNoRepeat?$AA@
	DD	0a48H
	DW	020H
	DW	02H
	DD	00H
	DD	00H
	DD	0fH
	DD	FLAT:??_C@_0BH@NGIAKLAL@m_rgflSuitNoRepeatTime?$AA@
	DD	0ac8H
	DW	020H
	DW	02H
	DD	00H
	DD	00H
	DD	0aH
	DD	FLAT:??_C@_0BD@FNBHLOHL@m_lastDamageAmount?$AA@
	DD	0b48H
	DW	01H
	DW	02H
	DD	00H
	DD	00H
	DD	03H
	DD	FLAT:??_C@_0BB@GHEKCEGC@m_rgpPlayerItems?$AA@
	DD	0c04H
	DW	06H
	DW	02H
	DD	00H
	DD	00H
	DD	03H
	DD	FLAT:??_C@_0O@KIFOCAMF@m_pActiveItem?$AA@
	DD	0c1cH
	DW	01H
	DW	02H
	DD	00H
	DD	00H
	DD	03H
	DD	FLAT:??_C@_0M@GJPNDMIJ@m_pLastItem?$AA@
	DD	0c24H
	DW	01H
	DW	02H
	DD	00H
	DD	00H
	DD	0aH
	DD	FLAT:??_C@_08FIGPODBE@m_rgAmmo?$AA@
	DD	0e2cH
	DW	020H
	DW	02H
	DD	00H
	DD	00H
	DD	0aH
	DD	FLAT:??_C@_0M@IILFBJHF@m_idrowndmg?$AA@
	DD	0b7cH
	DW	01H
	DW	02H
	DD	00H
	DD	00H
	DD	0aH
	DD	FLAT:??_C@_0BB@LGCIKBLF@m_idrownrestored?$AA@
	DD	0b80H
	DW	01H
	DW	02H
	DD	00H
	DD	00H
	DD	0fH
	DD	FLAT:??_C@_0M@HCJCMNGO@m_tSneaking?$AA@
	DD	0bbcH
	DW	01H
	DW	02H
	DD	00H
	DD	00H
	DD	0aH
	DD	FLAT:??_C@_08NBNLKFA@m_iTrain?$AA@
	DD	0b90H
	DW	01H
	DW	02H
	DD	00H
	DD	00H
	DD	0aH
	DD	FLAT:??_C@_0BA@IBLOCKKC@m_bitsHUDDamage?$AA@
	DD	0b84H
	DW	01H
	DW	02H
	DD	00H
	DD	00H
	DD	00H
	DD	FLAT:??_C@_0BB@PBNAOOBP@m_flFallVelocity?$AA@
	DD	09f8H
	DW	01H
	DW	02H
	DD	00H
	DD	00H
	DD	0aH
	DD	FLAT:??_C@_0BA@OLILJCPJ@m_iTargetVolume?$AA@
	DD	09c4H
	DW	01H
	DW	02H
	DD	00H
	DD	00H
	DD	0aH
	DD	FLAT:??_C@_0BA@NPHEFKGO@m_iWeaponVolume?$AA@
	DD	09c8H
	DW	01H
	DW	02H
	DD	00H
	DD	00H
	DD	0aH
	DD	FLAT:??_C@_0BD@INMMHMGB@m_iExtraSoundTypes?$AA@
	DD	09ccH
	DW	01H
	DW	02H
	DD	00H
	DD	00H
	DD	0aH
	DD	FLAT:??_C@_0P@OGILBABK@m_iWeaponFlash?$AA@
	DD	09d0H
	DW	01H
	DW	02H
	DD	00H
	DD	00H
	DD	0cH
	DD	FLAT:??_C@_0M@NLOPHCDO@m_fLongJump?$AA@
	DD	0bb8H
	DW	01H
	DW	02H
	DD	00H
	DD	00H
	DD	0cH
	DD	FLAT:??_C@_0L@GGOFAKM@m_fInitHUD?$AA@
	DD	0b88H
	DW	01H
	DW	02H
	DD	00H
	DD	00H
	DD	0fH
	DD	FLAT:??_C@_09PMINGJGD@m_tbdPrev?$AA@
	DD	0b4cH
	DW	01H
	DW	02H
	DD	00H
	DD	00H
	DD	04H
	DD	FLAT:??_C@_07IFMFKMEI@m_pTank?$AA@
	DD	0b98H
	DW	01H
	DW	02H
	DD	00H
	DD	00H
	DD	04H
	DD	FLAT:??_C@_0L@GEOBLLLI@m_pMonitor?$AA@
	DD	0ba0H
	DW	01H
	DW	02H
	DD	00H
	DD	00H
	DD	04H
	DD	FLAT:??_C@_0BA@MOLDGFFP@m_pHoldableItem?$AA@
	DD	0ba8H
	DW	01H
	DW	02H
	DD	00H
	DD	00H
	DD	0aH
	DD	FLAT:??_C@_0L@DBMEAMIB@m_iHideHUD?$AA@
	DD	0bccH
	DW	01H
	DW	02H
	DD	00H
	DD	00H
	DD	00H
	DD	FLAT:??_C@_07KPJJENGH@m_flFOV?$AA@
	DD	0bf0H
	DW	01H
	DW	02H
	DD	00H
	DD	00H
	DD	0aH
	DD	FLAT:??_C@_0BG@JOGGPDBG@m_iRainDripsPerSecond?$AA@
	DD	010f8H
	DW	01H
	DW	02H
	DD	00H
	DD	00H
	DD	00H
	DD	FLAT:??_C@_0O@CHAAAAEA@m_flRainWindX?$AA@
	DD	010fcH
	DW	01H
	DW	02H
	DD	00H
	DD	00H
	DD	00H
	DD	FLAT:??_C@_0O@DOBLDBAB@m_flRainWindY?$AA@
	DD	01100H
	DW	01H
	DW	02H
	DD	00H
	DD	00H
	DD	00H
	DD	FLAT:??_C@_0O@EHLNNKDC@m_flRainRandX?$AA@
	DD	01104H
	DW	01H
	DW	02H
	DD	00H
	DD	00H
	DD	00H
	DD	FLAT:??_C@_0O@FOKGOLHD@m_flRainRandY?$AA@
	DD	01108H
	DW	01H
	DW	02H
	DD	00H
	DD	00H
	DD	0aH
	DD	FLAT:??_C@_0BL@EFKIMNIF@m_iRainIdealDripsPerSecond?$AA@
	DD	0110cH
	DW	01H
	DW	02H
	DD	00H
	DD	00H
	DD	00H
	DD	FLAT:??_C@_0BD@HODNIGEK@m_flRainIdealWindX?$AA@
	DD	01110H
	DW	01H
	DW	02H
	DD	00H
	DD	00H
	DD	00H
	DD	FLAT:??_C@_0BD@GHCGLHAL@m_flRainIdealWindY?$AA@
	DD	01114H
	DW	01H
	DW	02H
	DD	00H
	DD	00H
	DD	00H
	DD	FLAT:??_C@_0BD@BOIAFMDI@m_flRainIdealRandX?$AA@
	DD	01118H
	DW	01H
	DW	02H
	DD	00H
	DD	00H
	DD	00H
	DD	FLAT:??_C@_0BD@HJLGNHJ@m_flRainIdealRandY?$AA@
	DD	0111cH
	DW	01H
	DW	02H
	DD	00H
	DD	00H
	DD	0fH
	DD	FLAT:??_C@_0BA@MLKNHEOK@m_flRainEndFade?$AA@
	DD	01120H
	DW	01H
	DW	02H
	DD	00H
	DD	00H
	DD	0fH
	DD	FLAT:??_C@_0BH@EBJAJANP@m_flRainNextFadeUpdate?$AA@
	DD	01124H
	DW	01H
	DW	02H
	DD	00H
	DD	00H
	DD	04H
	DD	FLAT:??_C@_0P@ECJJIBOE@m_hKeyCatchers?$AA@
	DD	0c28H
	DW	040H
	DW	02H
	DD	00H
	DD	00H
	DD	0aH
	DD	FLAT:??_C@_0BC@BFFKEDEH@m_iNumKeyCatchers?$AA@
	DD	0e28H
	DW	01H
	DW	02H
	DD	00H
	DD	00H
	DD	07H
	DD	FLAT:??_C@_0BK@LBDEJMPC@m_vecHoldableItemPosition?$AA@
	DD	010dcH
	DW	01H
	DW	02H
	DD	00H
	DD	00H
	DD	00H
	DD	FLAT:??_C@_0BJ@MFECEAC@m_flHoldableItemDistance?$AA@
	DD	010d8H
	DW	01H
	DW	02H
	DD	00H
	DD	00H
	DD	0aH
	DD	FLAT:??_C@_0BF@PDAHLDDC@m_nCustomSprayFrames?$AA@
	DD	0f4cH
	DW	01H
	DW	02H
	DD	00H
	DD	00H
	DD	0eH
	DD	FLAT:??_C@_0BC@JDPPBOFC@m_szAnimExtention?$AA@
	DD	0f64H
	DW	020H
	DW	02H
	DD	00H
	DD	00H
	DD	012H
	ORG $+1436
?m_DataMap@CBasePlayer@@2Udatamap_s@@A DD 00H		; CBasePlayer::m_DataMap
	DD	00H
	DD	FLAT:??_C@_0M@JPGAEHPN@CBasePlayer?$AA@
	DD	00H
_DATA	ENDS
;	COMDAT ??_C@_0BC@JDPPBOFC@m_szAnimExtention?$AA@
CONST	SEGMENT
??_C@_0BC@JDPPBOFC@m_szAnimExtention?$AA@ DB 'm_szAnimExtention', 00H ; `string'
CONST	ENDS
PUBLIC	??_H@YGXPAXIIP6EPAX0@Z@Z			; `vector constructor iterator'
PUBLIC	??__G@YGXPAX0IIP6EPAX00@Z@Z			; `vector copy constructor iterator'
PUBLIC	?__empty_global_delete@@YAXPAX@Z		; __empty_global_delete
PUBLIC	?__empty_global_delete@@YAXPAXI@Z		; __empty_global_delete
PUBLIC	___local_stdio_printf_options
PUBLIC	??$__vcrt_va_start_verify_argument_type@QBD@@YAXXZ ; __vcrt_va_start_verify_argument_type<char const * const>
PUBLIC	__vsnprintf_l
PUBLIC	_vsnprintf
PUBLIC	__vsprintf_l
PUBLIC	_sprintf
PUBLIC	_snprintf
PUBLIC	_fabsf
PUBLIC	??0Vector@@QAE@XZ				; Vector::Vector
PUBLIC	??0Vector@@QAE@MMM@Z				; Vector::Vector
PUBLIC	??0Vector@@QAE@ABV0@@Z				; Vector::Vector
PUBLIC	??8Vector@@QBEHABV0@@Z				; Vector::operator==
PUBLIC	??9Vector@@QBEHABV0@@Z				; Vector::operator!=
PUBLIC	??HVector@@QBE?AV0@ABV0@@Z			; Vector::operator+
PUBLIC	??GVector@@QBE?AV0@ABV0@@Z			; Vector::operator-
PUBLIC	??DVector@@QBE?AV0@M@Z				; Vector::operator*
PUBLIC	??YVector@@QAEAAV0@ABV0@@Z			; Vector::operator+=
PUBLIC	?Length@Vector@@QBEMXZ				; Vector::Length
PUBLIC	??BVector@@QAEPAMXZ				; Vector::operator float *
PUBLIC	??BVector@@QBEPBMXZ				; Vector::operator float const *
PUBLIC	?Normalize@Vector@@QBE?AV1@XZ			; Vector::Normalize
PUBLIC	?Length2D@Vector@@QBEMXZ			; Vector::Length2D
PUBLIC	??D@YA?AVVector@@MABV0@@Z			; operator*
PUBLIC	?DotProduct@@YAMABVVector@@0@Z			; DotProduct
PUBLIC	??0gametrace_s@@QAE@XZ				; gametrace_s::gametrace_s
PUBLIC	??0gametrace_s@@QAE@$$QAU0@@Z			; gametrace_s::gametrace_s
PUBLIC	?MESSAGE_BEGIN@@YAXHHPBMPAUedict_s@@@Z		; MESSAGE_BEGIN
PUBLIC	?WRITE_BYTES@@YAXPBEH@Z				; WRITE_BYTES
PUBLIC	?GET_PRIVATE@@YAPAXPAUedict_s@@@Z		; GET_PRIVATE
PUBLIC	?fabs@@YAMM@Z					; fabs
PUBLIC	??2@YAPAXIPAX@Z					; operator new
PUBLIC	?UtlMemory_CalcNewAllocationCount@@YAHHHHH@Z	; UtlMemory_CalcNewAllocationCount
PUBLIC	??0CDatadescGeneratedNameHolder@@QAE@PBD@Z	; CDatadescGeneratedNameHolder::CDatadescGeneratedNameHolder
PUBLIC	??1CDatadescGeneratedNameHolder@@QAE@XZ		; CDatadescGeneratedNameHolder::~CDatadescGeneratedNameHolder
PUBLIC	?GenerateName@CDatadescGeneratedNameHolder@@QAEPBDPBD@Z ; CDatadescGeneratedNameHolder::GenerateName
PUBLIC	??0?$CUtlArray@PADV?$CUtlMemory@PADH@@@@QAE@HH@Z ; CUtlArray<char *,CUtlMemory<char *,int> >::CUtlArray<char *,CUtlMemory<char *,int> >
PUBLIC	??1?$CUtlArray@PADV?$CUtlMemory@PADH@@@@QAE@XZ	; CUtlArray<char *,CUtlMemory<char *,int> >::~CUtlArray<char *,CUtlMemory<char *,int> >
PUBLIC	??A?$CUtlArray@PADV?$CUtlMemory@PADH@@@@QAEAAPADH@Z ; CUtlArray<char *,CUtlMemory<char *,int> >::operator[]
PUBLIC	?Element@?$CUtlArray@PADV?$CUtlMemory@PADH@@@@QAEAAPADH@Z ; CUtlArray<char *,CUtlMemory<char *,int> >::Element
PUBLIC	?Base@?$CUtlArray@PADV?$CUtlMemory@PADH@@@@QAEPAPADXZ ; CUtlArray<char *,CUtlMemory<char *,int> >::Base
PUBLIC	?Count@?$CUtlArray@PADV?$CUtlMemory@PADH@@@@QBEHXZ ; CUtlArray<char *,CUtlMemory<char *,int> >::Count
PUBLIC	?IsValidIndex@?$CUtlArray@PADV?$CUtlMemory@PADH@@@@QBE_NH@Z ; CUtlArray<char *,CUtlMemory<char *,int> >::IsValidIndex
PUBLIC	?AddToTail@?$CUtlArray@PADV?$CUtlMemory@PADH@@@@QAEHABQAD@Z ; CUtlArray<char *,CUtlMemory<char *,int> >::AddToTail
PUBLIC	?InsertBefore@?$CUtlArray@PADV?$CUtlMemory@PADH@@@@QAEHHABQAD@Z ; CUtlArray<char *,CUtlMemory<char *,int> >::InsertBefore
PUBLIC	?RemoveAll@?$CUtlArray@PADV?$CUtlMemory@PADH@@@@QAEXXZ ; CUtlArray<char *,CUtlMemory<char *,int> >::RemoveAll
PUBLIC	?Purge@?$CUtlArray@PADV?$CUtlMemory@PADH@@@@QAEXXZ ; CUtlArray<char *,CUtlMemory<char *,int> >::Purge
PUBLIC	?GrowVector@?$CUtlArray@PADV?$CUtlMemory@PADH@@@@IAEXH@Z ; CUtlArray<char *,CUtlMemory<char *,int> >::GrowVector
PUBLIC	?ShiftElementsRight@?$CUtlArray@PADV?$CUtlMemory@PADH@@@@IAEXHH@Z ; CUtlArray<char *,CUtlMemory<char *,int> >::ShiftElementsRight
PUBLIC	??0?$CUtlMemory@PADH@@QAE@HH@Z			; CUtlMemory<char *,int>::CUtlMemory<char *,int>
PUBLIC	??1?$CUtlMemory@PADH@@QAE@XZ			; CUtlMemory<char *,int>::~CUtlMemory<char *,int>
PUBLIC	??A?$CUtlMemory@PADH@@QAEAAPADH@Z		; CUtlMemory<char *,int>::operator[]
PUBLIC	?IsIdxValid@?$CUtlMemory@PADH@@QBE_NH@Z		; CUtlMemory<char *,int>::IsIdxValid
PUBLIC	?Base@?$CUtlMemory@PADH@@QAEPAPADXZ		; CUtlMemory<char *,int>::Base
PUBLIC	?NumAllocated@?$CUtlMemory@PADH@@QBEHXZ		; CUtlMemory<char *,int>::NumAllocated
PUBLIC	?Grow@?$CUtlMemory@PADH@@QAEXH@Z		; CUtlMemory<char *,int>::Grow
PUBLIC	?Purge@?$CUtlMemory@PADH@@QAEXXZ		; CUtlMemory<char *,int>::Purge
PUBLIC	?IsExternallyAllocated@?$CUtlMemory@PADH@@QBE_NXZ ; CUtlMemory<char *,int>::IsExternallyAllocated
PUBLIC	?IsReadOnly@?$CUtlMemory@PADH@@QBE_NXZ		; CUtlMemory<char *,int>::IsReadOnly
PUBLIC	?ValidateGrowSize@?$CUtlMemory@PADH@@IAEXXZ	; CUtlMemory<char *,int>::ValidateGrowSize
PUBLIC	?ResetDbgInfo@?$CUtlArray@PADV?$CUtlMemory@PADH@@@@IAEXXZ ; CUtlArray<char *,CUtlMemory<char *,int> >::ResetDbgInfo
PUBLIC	?MESSAGE_BEGIN@@YAXHHPBMPAUentvars_s@@@Z	; MESSAGE_BEGIN
PUBLIC	??0IEntityFactory@@QAE@XZ			; IEntityFactory::IEntityFactory
PUBLIC	?FIND_ENTITY_BY_CLASSNAME@@YAPAUedict_s@@PAU1@PBD@Z ; FIND_ENTITY_BY_CLASSNAME
PUBLIC	?FIND_ENTITY_BY_TARGETNAME@@YAPAUedict_s@@PAU1@PBD@Z ; FIND_ENTITY_BY_TARGETNAME
PUBLIC	?ENT@@YAPAUedict_s@@PBUentvars_s@@@Z		; ENT
PUBLIC	?ENT@@YAPAUedict_s@@H@Z				; ENT
PUBLIC	?OFFSET@@YAHPBUedict_s@@@Z			; OFFSET
PUBLIC	?OFFSET@@YAHPAUentvars_s@@@Z			; OFFSET
PUBLIC	?VARS@@YAPAUentvars_s@@PAUedict_s@@@Z		; VARS
PUBLIC	?VARS@@YAPAUentvars_s@@H@Z			; VARS
PUBLIC	?ENTINDEX@@YAHPAUedict_s@@@Z			; ENTINDEX
PUBLIC	?INDEXENT@@YAPAUedict_s@@H@Z			; INDEXENT
PUBLIC	?FNullEnt@@YAHH@Z				; FNullEnt
PUBLIC	?FNullEnt@@YAHPBUedict_s@@@Z			; FNullEnt
PUBLIC	?FNullEnt@@YAHPAUentvars_s@@@Z			; FNullEnt
PUBLIC	?FStringNull@@YAHH@Z				; FStringNull
PUBLIC	?FStrEq@@YAHPBD0@Z				; FStrEq
PUBLIC	?FClassnameIs@@YAHPAUentvars_s@@PBD@Z		; FClassnameIs
PUBLIC	?UTIL_CenterPrintAll@@YAXPBD0000@Z		; UTIL_CenterPrintAll
PUBLIC	?EMIT_SOUND@@YAXPAUedict_s@@HPBDMM@Z		; EMIT_SOUND
PUBLIC	??0WayPoint_t@@QAE@XZ				; WayPoint_t::WayPoint_t
PUBLIC	?Get@EHANDLE@@QAEPAUedict_s@@XZ			; EHANDLE::Get
PUBLIC	??BEHANDLE@@QAEHXZ				; EHANDLE::operator int
PUBLIC	??BEHANDLE@@QAEPAVCBaseEntity@@XZ		; EHANDLE::operator CBaseEntity *
PUBLIC	??4EHANDLE@@QAEPAVCBaseEntity@@PAV1@@Z		; EHANDLE::operator=
PUBLIC	??CEHANDLE@@QAEPAVCBaseEntity@@XZ		; EHANDLE::operator->
PUBLIC	?GetBaseVelocity@CBaseEntity@@QBEABVVector@@XZ	; CBaseEntity::GetBaseVelocity
PUBLIC	?GetClassname@CBaseEntity@@QAEPBDXZ		; CBaseEntity::GetClassname
PUBLIC	?GetTarget@CBaseEntity@@QAEPBDXZ		; CBaseEntity::GetTarget
PUBLIC	?SetClassname@CBaseEntity@@QAEXPBD@Z		; CBaseEntity::SetClassname
PUBLIC	?Spawn@CBaseEntity@@UAEXXZ			; CBaseEntity::Spawn
PUBLIC	?Precache@CBaseEntity@@UAEXXZ			; CBaseEntity::Precache
PUBLIC	?KeyValue@CBaseEntity@@UAEXPAUKeyValueData_s@@@Z ; CBaseEntity::KeyValue
PUBLIC	?ObjectCaps@CBaseEntity@@UAEHXZ			; CBaseEntity::ObjectCaps
PUBLIC	?Activate@CBaseEntity@@UAEXXZ			; CBaseEntity::Activate
PUBLIC	?OnChangeLevel@CBaseEntity@@UAEXXZ		; CBaseEntity::OnChangeLevel
PUBLIC	?OnTeleport@CBaseEntity@@UAEXXZ			; CBaseEntity::OnTeleport
PUBLIC	?PortalSleep@CBaseEntity@@UAEXM@Z		; CBaseEntity::PortalSleep
PUBLIC	?StartMessage@CBaseEntity@@UAEXPAVCBasePlayer@@@Z ; CBaseEntity::StartMessage
PUBLIC	?GetPosition@CBaseEntity@@UAEMXZ		; CBaseEntity::GetPosition
PUBLIC	?OnChangeParent@CBaseEntity@@UAEXXZ		; CBaseEntity::OnChangeParent
PUBLIC	?OnClearParent@CBaseEntity@@UAEXXZ		; CBaseEntity::OnClearParent
PUBLIC	?OnRemove@CBaseEntity@@UAEXXZ			; CBaseEntity::OnRemove
PUBLIC	?Classify@CBaseEntity@@UAEHXZ			; CBaseEntity::Classify
PUBLIC	?DeathNotice@CBaseEntity@@UAEXPAUentvars_s@@@Z	; CBaseEntity::DeathNotice
PUBLIC	?IsRigidBody@CBaseEntity@@UAEHXZ		; CBaseEntity::IsRigidBody
PUBLIC	?SetBaseVelocity@CBaseEntity@@QAEXABVVector@@@Z	; CBaseEntity::SetBaseVelocity
PUBLIC	?GetState@CBaseEntity@@UAE?AW4STATE@@XZ		; CBaseEntity::GetState
PUBLIC	?GetState@CBaseEntity@@UAE?AW4STATE@@PAV1@@Z	; CBaseEntity::GetState
PUBLIC	?BloodColor@CBaseEntity@@UAEHXZ			; CBaseEntity::BloodColor
PUBLIC	?IsTriggered@CBaseEntity@@UAEHPAV1@@Z		; CBaseEntity::IsTriggered
PUBLIC	?MyMonsterPointer@CBaseEntity@@UAEPAVCBaseMonster@@XZ ; CBaseEntity::MyMonsterPointer
PUBLIC	?MySquadMonsterPointer@CBaseEntity@@UAEPAVCSquadMonster@@XZ ; CBaseEntity::MySquadMonsterPointer
PUBLIC	?GetToggleState@CBaseEntity@@UAEHXZ		; CBaseEntity::GetToggleState
PUBLIC	?AddPoints@CBaseEntity@@UAEXHH@Z		; CBaseEntity::AddPoints
PUBLIC	?AddPointsToTeam@CBaseEntity@@UAEXHH@Z		; CBaseEntity::AddPointsToTeam
PUBLIC	?AddPlayerItem@CBaseEntity@@UAEHPAVCBasePlayerItem@@@Z ; CBaseEntity::AddPlayerItem
PUBLIC	?RemovePlayerItem@CBaseEntity@@UAEHPAVCBasePlayerItem@@@Z ; CBaseEntity::RemovePlayerItem
PUBLIC	?GiveAmmo@CBaseEntity@@UAEHHPADH@Z		; CBaseEntity::GiveAmmo
PUBLIC	?GetDelay@CBaseEntity@@UAEMXZ			; CBaseEntity::GetDelay
PUBLIC	?IsMoving@CBaseEntity@@UAEHXZ			; CBaseEntity::IsMoving
PUBLIC	?OverrideReset@CBaseEntity@@UAEXXZ		; CBaseEntity::OverrideReset
PUBLIC	?TransferReset@CBaseEntity@@UAEXXZ		; CBaseEntity::TransferReset
PUBLIC	?SetToggleState@CBaseEntity@@UAEXH@Z		; CBaseEntity::SetToggleState
PUBLIC	?StartSneaking@CBaseEntity@@UAEXXZ		; CBaseEntity::StartSneaking
PUBLIC	?StopSneaking@CBaseEntity@@UAEXXZ		; CBaseEntity::StopSneaking
PUBLIC	?OnControls@CBaseEntity@@UAEHPAV1@@Z		; CBaseEntity::OnControls
PUBLIC	?IsSneaking@CBaseEntity@@UAEHXZ			; CBaseEntity::IsSneaking
PUBLIC	?IsAlive@CBaseEntity@@UAEHXZ			; CBaseEntity::IsAlive
PUBLIC	?IsBSPModel@CBaseEntity@@UAEHXZ			; CBaseEntity::IsBSPModel
PUBLIC	?IsCustomModel@CBaseEntity@@UAEHXZ		; CBaseEntity::IsCustomModel
PUBLIC	?ReflectGauss@CBaseEntity@@UAEHXZ		; CBaseEntity::ReflectGauss
PUBLIC	?HasTarget@CBaseEntity@@UAEHH@Z			; CBaseEntity::HasTarget
PUBLIC	?IsPlayer@CBaseEntity@@UAEHXZ			; CBaseEntity::IsPlayer
PUBLIC	?IsNetClient@CBaseEntity@@UAEHXZ		; CBaseEntity::IsNetClient
PUBLIC	?IsMonster@CBaseEntity@@UAEHXZ			; CBaseEntity::IsMonster
PUBLIC	?IsPushable@CBaseEntity@@UAEHXZ			; CBaseEntity::IsPushable
PUBLIC	?IsProjectile@CBaseEntity@@UAEHXZ		; CBaseEntity::IsProjectile
PUBLIC	?IsFuncScreen@CBaseEntity@@UAEHXZ		; CBaseEntity::IsFuncScreen
PUBLIC	?IsPortal@CBaseEntity@@UAEHXZ			; CBaseEntity::IsPortal
PUBLIC	?IsTank@CBaseEntity@@UAEHXZ			; CBaseEntity::IsTank
PUBLIC	?IsMover@CBaseEntity@@UAEHXZ			; CBaseEntity::IsMover
PUBLIC	?IsBreakable@CBaseEntity@@UAEHXZ		; CBaseEntity::IsBreakable
PUBLIC	?TeamID@CBaseEntity@@UAEPBDXZ			; CBaseEntity::TeamID
PUBLIC	?AddSpawnFlags@CBaseEntity@@UAEXH@Z		; CBaseEntity::AddSpawnFlags
PUBLIC	?HasSpawnFlags@CBaseEntity@@UBE_NH@Z		; CBaseEntity::HasSpawnFlags
PUBLIC	?SetFadeDistance@CBaseEntity@@UAEXH@Z		; CBaseEntity::SetFadeDistance
PUBLIC	?SetFlag@CBaseEntity@@UAEXH@Z			; CBaseEntity::SetFlag
PUBLIC	?HasFlag@CBaseEntity@@UBE_NH@Z			; CBaseEntity::HasFlag
PUBLIC	?RemoveFlag@CBaseEntity@@UAEXH@Z		; CBaseEntity::RemoveFlag
PUBLIC	?SetNullModel@CBaseEntity@@UAEXXZ		; CBaseEntity::SetNullModel
PUBLIC	?OnPickupObject@CBaseEntity@@UAEXXZ		; CBaseEntity::OnPickupObject
PUBLIC	?OnDropObject@CBaseEntity@@UAEXXZ		; CBaseEntity::OnDropObject
PUBLIC	?Think@CBaseEntity@@UAEXXZ			; CBaseEntity::Think
PUBLIC	?Use@CBaseEntity@@UAEXPAV1@0W4USE_TYPE@@M@Z	; CBaseEntity::Use
PUBLIC	?Touch@CBaseEntity@@UAEXPAV1@@Z			; CBaseEntity::Touch
PUBLIC	?Blocked@CBaseEntity@@UAEXPAV1@@Z		; CBaseEntity::Blocked
PUBLIC	?MoveDone@CBaseEntity@@UAEXXZ			; CBaseEntity::MoveDone
PUBLIC	??2CBaseEntity@@SAPAXIPAUentvars_s@@@Z		; CBaseEntity::operator new
PUBLIC	??3CBaseEntity@@SAXPAXPAUentvars_s@@@Z		; CBaseEntity::operator delete
PUBLIC	?Respawn@CBaseEntity@@UAEPAV1@XZ		; CBaseEntity::Respawn
PUBLIC	?Instance@CBaseEntity@@SAPAV1@PAUedict_s@@@Z	; CBaseEntity::Instance
PUBLIC	?Instance@CBaseEntity@@SAPAV1@PAUentvars_s@@@Z	; CBaseEntity::Instance
PUBLIC	?FunctionCheck@CBaseEntity@@QAEXPAXPAD@Z	; CBaseEntity::FunctionCheck
PUBLIC	?ThinkSet@CBaseEntity@@QAEP81@AEXXZP81@AEXXZPAD@Z ; CBaseEntity::ThinkSet
PUBLIC	?TouchSet@CBaseEntity@@QAEP81@AEXPAV1@@ZP81@AEX0@ZPAD@Z ; CBaseEntity::TouchSet
PUBLIC	?ClearGroundEntity@CBaseEntity@@QAEXXZ		; CBaseEntity::ClearGroundEntity
PUBLIC	?MakeNonMoving@CBaseEntity@@QAEXXZ		; CBaseEntity::MakeNonMoving
PUBLIC	?RestoreMoveType@CBaseEntity@@QAEXXZ		; CBaseEntity::RestoreMoveType
PUBLIC	?UpdateOwner@CBaseEntity@@UAEXXZ		; CBaseEntity::UpdateOwner
PUBLIC	?FBecomeProne@CBaseEntity@@UAEHXZ		; CBaseEntity::FBecomeProne
PUBLIC	?edict@CBaseEntity@@QAEPAUedict_s@@XZ		; CBaseEntity::edict
PUBLIC	?entindex@CBaseEntity@@QAEHXZ			; CBaseEntity::entindex
PUBLIC	?Center@CBaseEntity@@UAE?AVVector@@XZ		; CBaseEntity::Center
PUBLIC	?EyePosition@CBaseEntity@@UAE?AVVector@@XZ	; CBaseEntity::EyePosition
PUBLIC	?EarPosition@CBaseEntity@@UAE?AVVector@@XZ	; CBaseEntity::EarPosition
PUBLIC	?BodyTarget@CBaseEntity@@UAE?AVVector@@ABV2@@Z	; CBaseEntity::BodyTarget
PUBLIC	?IsPointSized@CBaseEntity@@UBEHXZ		; CBaseEntity::IsPointSized
PUBLIC	?Illumination@CBaseEntity@@UAEHXZ		; CBaseEntity::Illumination
PUBLIC	??0CBaseEntity@@QAE@XZ				; CBaseEntity::CBaseEntity
PUBLIC	??1CBaseEntity@@QAE@XZ				; CBaseEntity::~CBaseEntity
PUBLIC	?GetState@CBaseDelay@@UAE?AW4STATE@@XZ		; CBaseDelay::GetState
PUBLIC	??0CBaseDelay@@QAE@XZ				; CBaseDelay::CBaseDelay
PUBLIC	??1CBaseDelay@@QAE@XZ				; CBaseDelay::~CBaseDelay
PUBLIC	?HandleAnimEvent@CBaseAnimating@@UAEXPAUMonsterEvent_t@@@Z ; CBaseAnimating::HandleAnimEvent
PUBLIC	??0CBaseAnimating@@QAE@XZ			; CBaseAnimating::CBaseAnimating
PUBLIC	??1CBaseAnimating@@QAE@XZ			; CBaseAnimating::~CBaseAnimating
PUBLIC	?GetToggleState@CBaseToggle@@UAEHXZ		; CBaseToggle::GetToggleState
PUBLIC	?GetDelay@CBaseToggle@@UAEMXZ			; CBaseToggle::GetDelay
PUBLIC	??0CBaseToggle@@QAE@XZ				; CBaseToggle::CBaseToggle
PUBLIC	??1CBaseToggle@@QAE@XZ				; CBaseToggle::~CBaseToggle
PUBLIC	?Classify@CBaseMonster@@UAEHXZ			; CBaseMonster::Classify
PUBLIC	?BloodColor@CBaseMonster@@UAEHXZ		; CBaseMonster::BloodColor
PUBLIC	?MyMonsterPointer@CBaseMonster@@UAEPAV1@XZ	; CBaseMonster::MyMonsterPointer
PUBLIC	?IsAlive@CBaseMonster@@UAEHXZ			; CBaseMonster::IsAlive
PUBLIC	?HasWeapon@CBaseMonster@@QAEHH@Z		; CBaseMonster::HasWeapon
PUBLIC	?AddWeapon@CBaseMonster@@QAEXH@Z		; CBaseMonster::AddWeapon
PUBLIC	?RemoveWeapon@CBaseMonster@@QAEXH@Z		; CBaseMonster::RemoveWeapon
PUBLIC	?RemoveAllWeapons@CBaseMonster@@QAEXXZ		; CBaseMonster::RemoveAllWeapons
PUBLIC	?GetStoppedActivity@CBaseMonster@@UAE?AW4Activity@@XZ ; CBaseMonster::GetStoppedActivity
PUBLIC	?Stop@CBaseMonster@@UAEXXZ			; CBaseMonster::Stop
PUBLIC	?StopAnimation@CBaseMonster@@QAEXXZ		; CBaseMonster::StopAnimation
PUBLIC	?ScheduleChange@CBaseMonster@@UAEXXZ		; CBaseMonster::ScheduleChange
PUBLIC	?CanPlaySentence@CBaseMonster@@UAEHH@Z		; CBaseMonster::CanPlaySentence
PUBLIC	?SetYawSpeed@CBaseMonster@@UAEXXZ		; CBaseMonster::SetYawSpeed
PUBLIC	?FValidateCover@CBaseMonster@@UAEHABVVector@@@Z	; CBaseMonster::FValidateCover
PUBLIC	?CoverRadius@CBaseMonster@@UAEMXZ		; CBaseMonster::CoverRadius
PUBLIC	?CheckAmmo@CBaseMonster@@UAEXXZ			; CBaseMonster::CheckAmmo
PUBLIC	?HearingSensitivity@CBaseMonster@@UAEMXZ	; CBaseMonster::HearingSensitivity
PUBLIC	?PrescheduleThink@CBaseMonster@@UAEXXZ		; CBaseMonster::PrescheduleThink
PUBLIC	?BodyTarget@CBaseMonster@@UAE?AVVector@@ABV2@@Z	; CBaseMonster::BodyTarget
PUBLIC	?IsMoving@CBaseMonster@@UAEHXZ			; CBaseMonster::IsMoving
PUBLIC	?DeathSound@CBaseMonster@@UAEXXZ		; CBaseMonster::DeathSound
PUBLIC	?AlertSound@CBaseMonster@@UAEXXZ		; CBaseMonster::AlertSound
PUBLIC	?IdleSound@CBaseMonster@@UAEXXZ			; CBaseMonster::IdleSound
PUBLIC	?PainSound@CBaseMonster@@UAEXXZ			; CBaseMonster::PainSound
PUBLIC	?StopFollowing@CBaseMonster@@UAEXH@Z		; CBaseMonster::StopFollowing
PUBLIC	??0CBaseMonster@@QAE@XZ				; CBaseMonster::CBaseMonster
PUBLIC	??1CBaseMonster@@QAE@XZ				; CBaseMonster::~CBaseMonster
PUBLIC	?Spawn@CBasePlayer@@UAEXXZ			; CBasePlayer::Spawn
PUBLIC	?Pain@CBasePlayer@@QAEXXZ			; CBasePlayer::Pain
PUBLIC	?Jump@CBasePlayer@@UAEXXZ			; CBasePlayer::Jump
PUBLIC	?Duck@CBasePlayer@@UAEXXZ			; CBasePlayer::Duck
PUBLIC	?PreThink@CBasePlayer@@UAEXXZ			; CBasePlayer::PreThink
PUBLIC	?PostThink@CBasePlayer@@UAEXXZ			; CBasePlayer::PostThink
PUBLIC	?GetGunPosition@CBasePlayer@@UAE?AVVector@@XZ	; CBasePlayer::GetGunPosition
PUBLIC	?TakeHealth@CBasePlayer@@UAEHMH@Z		; CBasePlayer::TakeHealth
PUBLIC	?TraceAttack@CBasePlayer@@UAEXPAUentvars_s@@MVVector@@PAUgametrace_s@@H@Z ; CBasePlayer::TraceAttack
PUBLIC	?TakeDamage@CBasePlayer@@UAEHPAUentvars_s@@0MH@Z ; CBasePlayer::TakeDamage
PUBLIC	?Killed@CBasePlayer@@UAEXPAUentvars_s@@H@Z	; CBasePlayer::Killed
PUBLIC	?GibMonster@CBasePlayer@@UAEXXZ			; CBasePlayer::GibMonster
PUBLIC	?BodyTarget@CBasePlayer@@UAE?AVVector@@ABV2@@Z	; CBasePlayer::BodyTarget
PUBLIC	?StartSneaking@CBasePlayer@@UAEXXZ		; CBasePlayer::StartSneaking
PUBLIC	?StopSneaking@CBasePlayer@@UAEXXZ		; CBasePlayer::StopSneaking
PUBLIC	?IsSneaking@CBasePlayer@@UAEHXZ			; CBasePlayer::IsSneaking
PUBLIC	?IsAlive@CBasePlayer@@UAEHXZ			; CBasePlayer::IsAlive
PUBLIC	?ShouldFadeOnDeath@CBasePlayer@@UAEHXZ		; CBasePlayer::ShouldFadeOnDeath
PUBLIC	?IsPlayer@CBasePlayer@@UAEHXZ			; CBasePlayer::IsPlayer
PUBLIC	?IsNetClient@CBasePlayer@@UAEHXZ		; CBasePlayer::IsNetClient
PUBLIC	?TeamID@CBasePlayer@@UAEPBDXZ			; CBasePlayer::TeamID
PUBLIC	?Restore@CBasePlayer@@UAEHAAVCRestore@@@Z	; CBasePlayer::Restore
PUBLIC	?RenewItems@CBasePlayer@@QAEXXZ			; CBasePlayer::RenewItems
PUBLIC	?PackDeadPlayerItems@CBasePlayer@@QAEXXZ	; CBasePlayer::PackDeadPlayerItems
PUBLIC	?RemoveAllItems@CBasePlayer@@QAEXHH@Z		; CBasePlayer::RemoveAllItems
PUBLIC	?SwitchWeapon@CBasePlayer@@QAEHPAVCBasePlayerItem@@@Z ; CBasePlayer::SwitchWeapon
PUBLIC	?UpdateClientData@CBasePlayer@@UAEXXZ		; CBasePlayer::UpdateClientData
PUBLIC	?GetBaseMap@CBasePlayer@@SAPAUdatamap_s@@XZ	; CBasePlayer::GetBaseMap
PUBLIC	?GetDataDescMap@CBasePlayer@@UAEPAUdatamap_s@@XZ ; CBasePlayer::GetDataDescMap
PUBLIC	?ObjectCaps@CBasePlayer@@UAEHXZ			; CBasePlayer::ObjectCaps
PUBLIC	?Precache@CBasePlayer@@UAEXXZ			; CBasePlayer::Precache
PUBLIC	?IsOnLadder@CBasePlayer@@QAEHXZ			; CBasePlayer::IsOnLadder
PUBLIC	?FlashlightIsOn@CBasePlayer@@QAEHXZ		; CBasePlayer::FlashlightIsOn
PUBLIC	?FlashlightTurnOn@CBasePlayer@@QAEXXZ		; CBasePlayer::FlashlightTurnOn
PUBLIC	?FlashlightTurnOff@CBasePlayer@@QAEXXZ		; CBasePlayer::FlashlightTurnOff
PUBLIC	?UpdatePlayerSound@CBasePlayer@@QAEXXZ		; CBasePlayer::UpdatePlayerSound
PUBLIC	?DeathSound@CBasePlayer@@UAEXXZ			; CBasePlayer::DeathSound
PUBLIC	?TransferReset@CBasePlayer@@UAEXXZ		; CBasePlayer::TransferReset
PUBLIC	?UpdateKeyCatchers@CBasePlayer@@QAEXXZ		; CBasePlayer::UpdateKeyCatchers
PUBLIC	?Classify@CBasePlayer@@UAEHXZ			; CBasePlayer::Classify
PUBLIC	?SetAnimation@CBasePlayer@@QAEXW4PLAYER_ANIM@@@Z ; CBasePlayer::SetAnimation
PUBLIC	?ImpulseCommands@CBasePlayer@@UAEXXZ		; CBasePlayer::ImpulseCommands
PUBLIC	?CheatImpulseCommands@CBasePlayer@@QAEXH@Z	; CBasePlayer::CheatImpulseCommands
PUBLIC	?StartDeathCam@CBasePlayer@@QAEXXZ		; CBasePlayer::StartDeathCam
PUBLIC	?IsObserver@CBasePlayer@@QAEHXZ			; CBasePlayer::IsObserver
PUBLIC	?AddPoints@CBasePlayer@@UAEXHH@Z		; CBasePlayer::AddPoints
PUBLIC	?AddPointsToTeam@CBasePlayer@@UAEXHH@Z		; CBasePlayer::AddPointsToTeam
PUBLIC	?AddPlayerItem@CBasePlayer@@UAEHPAVCBasePlayerItem@@@Z ; CBasePlayer::AddPlayerItem
PUBLIC	?RemovePlayerItem@CBasePlayer@@UAEHPAVCBasePlayerItem@@@Z ; CBasePlayer::RemovePlayerItem
PUBLIC	?DropPlayerItem@CBasePlayer@@QAEXPAD@Z		; CBasePlayer::DropPlayerItem
PUBLIC	?HasPlayerItem@CBasePlayer@@QAEHPAVCBasePlayerItem@@@Z ; CBasePlayer::HasPlayerItem
PUBLIC	?HasNamedPlayerItem@CBasePlayer@@QAEHPBD@Z	; CBasePlayer::HasNamedPlayerItem
PUBLIC	?HasWeapons@CBasePlayer@@QAEHXZ			; CBasePlayer::HasWeapons
PUBLIC	?SelectPrevItem@CBasePlayer@@QAEXH@Z		; CBasePlayer::SelectPrevItem
PUBLIC	?SelectNextItem@CBasePlayer@@QAEXH@Z		; CBasePlayer::SelectNextItem
PUBLIC	?SelectLastItem@CBasePlayer@@QAEXXZ		; CBasePlayer::SelectLastItem
PUBLIC	?SelectItem@CBasePlayer@@QAEXPBD@Z		; CBasePlayer::SelectItem
PUBLIC	?ItemPreFrame@CBasePlayer@@QAEXXZ		; CBasePlayer::ItemPreFrame
PUBLIC	?ItemPostFrame@CBasePlayer@@QAEXXZ		; CBasePlayer::ItemPostFrame
PUBLIC	?GiveNamedItem@CBasePlayer@@QAEXPBD@Z		; CBasePlayer::GiveNamedItem
PUBLIC	?EnableControl@CBasePlayer@@QAEXH@Z		; CBasePlayer::EnableControl
PUBLIC	?HideWeapons@CBasePlayer@@QAEXH@Z		; CBasePlayer::HideWeapons
PUBLIC	?SnapEyeAngles@CBasePlayer@@QAEXABVVector@@@Z	; CBasePlayer::SnapEyeAngles
PUBLIC	?RefreshScore@CBasePlayer@@QAEXXZ		; CBasePlayer::RefreshScore
PUBLIC	?GiveAmmo@CBasePlayer@@UAEHHPADH@Z		; CBasePlayer::GiveAmmo
PUBLIC	?SendAmmoUpdate@CBasePlayer@@QAEXPAV1@@Z	; CBasePlayer::SendAmmoUpdate
PUBLIC	?WaterMove@CBasePlayer@@QAEXXZ			; CBasePlayer::WaterMove
PUBLIC	?PlayerDeathThink@CBasePlayer@@QAEXXZ		; CBasePlayer::PlayerDeathThink
PUBLIC	?PlayerUse@CBasePlayer@@QAEXXZ			; CBasePlayer::PlayerUse
PUBLIC	?ManageRope@CBasePlayer@@QAEXXZ			; CBasePlayer::ManageRope
PUBLIC	?ManageTrain@CBasePlayer@@QAEXXZ		; CBasePlayer::ManageTrain
PUBLIC	?CheckSuitUpdate@CBasePlayer@@QAEXXZ		; CBasePlayer::CheckSuitUpdate
PUBLIC	?SetSuitUpdate@CBasePlayer@@QAEXPADHH@Z		; CBasePlayer::SetSuitUpdate
PUBLIC	?UpdateGeigerCounter@CBasePlayer@@QAEXXZ	; CBasePlayer::UpdateGeigerCounter
PUBLIC	?CheckTimeBasedDamage@CBasePlayer@@QAEXXZ	; CBasePlayer::CheckTimeBasedDamage
PUBLIC	?FBecomeProne@CBasePlayer@@UAEHXZ		; CBasePlayer::FBecomeProne
PUBLIC	?BarnacleVictimBitten@CBasePlayer@@UAEXPAUentvars_s@@@Z ; CBasePlayer::BarnacleVictimBitten
PUBLIC	?BarnacleVictimReleased@CBasePlayer@@UAEXXZ	; CBasePlayer::BarnacleVictimReleased
PUBLIC	?GetAmmoIndex@CBasePlayer@@SAHPBD@Z		; CBasePlayer::GetAmmoIndex
PUBLIC	?AmmoInventory@CBasePlayer@@QAEHH@Z		; CBasePlayer::AmmoInventory
PUBLIC	?Illumination@CBasePlayer@@UAEHXZ		; CBasePlayer::Illumination
PUBLIC	?ResetAutoaim@CBasePlayer@@QAEXXZ		; CBasePlayer::ResetAutoaim
PUBLIC	?GetAutoaimVector@CBasePlayer@@QAE?AVVector@@M@Z ; CBasePlayer::GetAutoaimVector
PUBLIC	?AutoaimDeflection@CBasePlayer@@QAE?AVVector@@AAV2@MM@Z ; CBasePlayer::AutoaimDeflection
PUBLIC	?ForceClientDllUpdate@CBasePlayer@@QAEXXZ	; CBasePlayer::ForceClientDllUpdate
PUBLIC	?SendStartMessages@CBasePlayer@@QAEXXZ		; CBasePlayer::SendStartMessages
PUBLIC	?SetCustomDecalFrames@CBasePlayer@@QAEXH@Z	; CBasePlayer::SetCustomDecalFrames
PUBLIC	?GetCustomDecalFrames@CBasePlayer@@QAEHXZ	; CBasePlayer::GetCustomDecalFrames
PUBLIC	?CheckCompatibility@CBasePlayer@@QAEXXZ		; CBasePlayer::CheckCompatibility
PUBLIC	?UpdateHoldableItem@CBasePlayer@@QAEXXZ		; CBasePlayer::UpdateHoldableItem
PUBLIC	?PickHoldableItem@CBasePlayer@@QAEXPAVCBaseEntity@@@Z ; CBasePlayer::PickHoldableItem
PUBLIC	?DropHoldableItem@CBasePlayer@@QAEXH@Z		; CBasePlayer::DropHoldableItem
PUBLIC	?InitStatusBar@CBasePlayer@@QAEXXZ		; CBasePlayer::InitStatusBar
PUBLIC	?UpdateStatusBar@CBasePlayer@@QAEXXZ		; CBasePlayer::UpdateStatusBar
PUBLIC	?StartWelcomeCam@CBasePlayer@@QAEXXZ		; CBasePlayer::StartWelcomeCam
PUBLIC	?StopWelcomeCam@CBasePlayer@@QAEXXZ		; CBasePlayer::StopWelcomeCam
PUBLIC	?Dash@CBasePlayer@@QAEXXZ			; CBasePlayer::Dash
PUBLIC	?RegenerateHealth@CBasePlayer@@QAEXXZ		; CBasePlayer::RegenerateHealth
PUBLIC	?ManageStamina@CBasePlayer@@QAEXXZ		; CBasePlayer::ManageStamina
PUBLIC	?ManageDrone@CBasePlayer@@QAEXXZ		; CBasePlayer::ManageDrone
PUBLIC	?SetHUDTexts@CBasePlayer@@QAEXXZ		; CBasePlayer::SetHUDTexts
PUBLIC	?CheckTutorMessage@CBasePlayer@@UAEXH@Z		; CBasePlayer::CheckTutorMessage
PUBLIC	?KillingSpreeSounds@CBasePlayer@@QAEXXZ		; CBasePlayer::KillingSpreeSounds
PUBLIC	?ConsecutiveKillSounds@CBasePlayer@@QAEXXZ	; CBasePlayer::ConsecutiveKillSounds
PUBLIC	?CheckVehicleAchievement@CBasePlayer@@QAEXXZ	; CBasePlayer::CheckVehicleAchievement
PUBLIC	?SendAchievementStatToClient@CBasePlayer@@QAEXHHH@Z ; CBasePlayer::SendAchievementStatToClient
PUBLIC	?ManageElectroBlast@CBasePlayer@@QAEXXZ		; CBasePlayer::ManageElectroBlast
PUBLIC	?ManageCar@CBasePlayer@@QAEXXZ			; CBasePlayer::ManageCar
PUBLIC	?FireLoudWeaponRestrictionEntity@CBasePlayer@@QAEXXZ ; CBasePlayer::FireLoudWeaponRestrictionEntity
PUBLIC	?LookAtPlayers@CBasePlayer@@QAEXXZ		; CBasePlayer::LookAtPlayers
PUBLIC	??0CBasePlayer@@QAE@XZ				; CBasePlayer::CBasePlayer
PUBLIC	?GetSpeed@CFuncTrackTrain@@QAEMXZ		; CFuncTrackTrain::GetSpeed
PUBLIC	?GetMaxSpeed@CFuncTrackTrain@@QAEMXZ		; CFuncTrackTrain::GetMaxSpeed
PUBLIC	?pszAmmo1@CBasePlayerItem@@QAEPBDXZ		; CBasePlayerItem::pszAmmo1
PUBLIC	?EntSelectSpawnPoint@@YAPAUedict_s@@PAVCBaseEntity@@@Z ; EntSelectSpawnPoint
PUBLIC	??$DataMapAccess@VCBaseMonster@@@@YAXPAVCBaseMonster@@PAPAUdatamap_s@@@Z ; DataMapAccess<CBaseMonster>
PUBLIC	??$DataMapInit@VCBasePlayer@@@@YAPAUdatamap_s@@PAVCBasePlayer@@@Z ; DataMapInit<CBasePlayer>
PUBLIC	?LinkUserMessages@@YAXXZ			; LinkUserMessages
PUBLIC	??0?$CEntityFactory@VCBasePlayer@@@@QAE@PBD@Z	; CEntityFactory<CBasePlayer>::CEntityFactory<CBasePlayer>
PUBLIC	?Create@?$CEntityFactory@VCBasePlayer@@@@UAEPAVCBaseEntity@@PBDPAUentvars_s@@@Z ; CEntityFactory<CBasePlayer>::Create
PUBLIC	?Destroy@?$CEntityFactory@VCBasePlayer@@@@UAEXPAVCBaseEntity@@@Z ; CEntityFactory<CBasePlayer>::Destroy
PUBLIC	?GetEntitySize@?$CEntityFactory@VCBasePlayer@@@@UAEIXZ ; CEntityFactory<CBasePlayer>::GetEntitySize
PUBLIC	?VecVelocityForDamage@@YA?AVVector@@M@Z		; VecVelocityForDamage
PUBLIC	?TrainSpeed@@YAHHH@Z				; TrainSpeed
PUBLIC	?IsSpawnPointValid@@YAHPAVCBaseEntity@@0@Z	; IsSpawnPointValid
PUBLIC	?Spawn@CSprayCan@@QAEXPAVCBaseEntity@@@Z	; CSprayCan::Spawn
PUBLIC	?Think@CSprayCan@@UAEXXZ			; CSprayCan::Think
PUBLIC	?ObjectCaps@CSprayCan@@UAEHXZ			; CSprayCan::ObjectCaps
PUBLIC	??0CSprayCan@@QAE@XZ				; CSprayCan::CSprayCan
PUBLIC	?Spawn@CBloodSplat@@QAEXPAVCBaseEntity@@@Z	; CBloodSplat::Spawn
PUBLIC	?Spray@CBloodSplat@@QAEXXZ			; CBloodSplat::Spray
PUBLIC	??0CBloodSplat@@QAE@XZ				; CBloodSplat::CBloodSplat
PUBLIC	?FindEntityForward@@YAPAVCBaseEntity@@PAV1@@Z	; FindEntityForward
PUBLIC	??$GetClassPtr@VCSprayCan@@@@YAPAVCSprayCan@@PAV0@@Z ; GetClassPtr<CSprayCan>
PUBLIC	??$GetClassPtr@VCBloodSplat@@@@YAPAVCBloodSplat@@PAV0@@Z ; GetClassPtr<CBloodSplat>
PUBLIC	??$GetClassPtr@VCBasePlayer@@@@YAPAVCBasePlayer@@PAV0@PBD@Z ; GetClassPtr<CBasePlayer>
PUBLIC	??$CopyConstruct@PAD@@YAXPAPADABQAD@Z		; CopyConstruct<char *>
PUBLIC	??$Destruct@PAD@@YAXPAPAD@Z			; Destruct<char *>
PUBLIC	?_OptionsStorage@?1??__local_stdio_printf_options@@9@4_KA ; `__local_stdio_printf_options'::`2'::_OptionsStorage
PUBLIC	??_C@_04EFCDBJNL@?$CFs?3?3?$AA@			; `string'
PUBLIC	??_7IEntityFactory@@6B@				; IEntityFactory::`vftable'
PUBLIC	??_C@_09CNJINBGN@classname?$AA@			; `string'
PUBLIC	??_C@_0L@FEPNPAJD@targetname?$AA@		; `string'
PUBLIC	??_C@_0BF@CPEPILID@Bad?5ent?5in?5OFFSET?$CI?$CJ?6?$AA@ ; `string'
PUBLIC	??_C@_0BF@DOONGEFO@Bad?5pev?5in?5OFFSET?$CI?$CJ?6?$AA@ ; `string'
PUBLIC	??_7CBaseEntity@@6B@				; CBaseEntity::`vftable'
PUBLIC	??_C@_06MLKDMCBD@parent?$AA@			; `string'
PUBLIC	??_C@_08JJJAOBDI@movewith?$AA@			; `string'
PUBLIC	??_C@_0M@EAELDHJO@parentflags?$AA@		; `string'
PUBLIC	??_C@_05IAKJCFIM@style?$AA@			; `string'
PUBLIC	??_C@_0L@IKCANML@reflection?$AA@		; `string'
PUBLIC	??_C@_0N@JILDNHAP@vlight_cache?$AA@		; `string'
PUBLIC	??_C@_0L@JIJDCONP@customname?$AA@		; `string'
PUBLIC	??_C@_0CH@HELFJPDL@FUNCTION?5NOT?5IN?5TABLE?$CB?3?5?$CFs?3?$CFs?5?$CI?$CF@ ; `string'
PUBLIC	??_7CBaseDelay@@6B@				; CBaseDelay::`vftable'
PUBLIC	??_7CBaseAnimating@@6B@				; CBaseAnimating::`vftable'
PUBLIC	??_7CBaseToggle@@6B@				; CBaseToggle::`vftable'
PUBLIC	??_7CBaseMonster@@6B@				; CBaseMonster::`vftable'
PUBLIC	??_C@_0BB@EMJBJDBM@sprites?1null?4spr?$AA@	; `string'
PUBLIC	??_7CBasePlayer@@6B@				; CBasePlayer::`vftable'
PUBLIC	??_C@_0BJ@EIFNLFLK@?$CGCBaseEntity?3?3SUB_Remove?$AA@ ; `string'
PUBLIC	?g_DataMapHolder@CBasePlayer_DataDescInit@@3PAUdatamap_s@@A ; CBasePlayer_DataDescInit::g_DataMapHolder
PUBLIC	??_C@_0BB@LAACDPFI@PlayerDeathThink?$AA@	; `string'
PUBLIC	??_C@_0P@DFELFACG@m_iSndRoomtype?$AA@		; `string'
PUBLIC	??_C@_0L@CCMMONIA@BrokenSuit?$AA@		; `string'
PUBLIC	??_C@_0BC@ONAGDPBH@NextBrokenDmgTime?$AA@	; `string'
PUBLIC	??_C@_0BB@KMPOPHML@m_flStaminaValue?$AA@	; `string'
PUBLIC	??_C@_0BA@FNGGMEOG@m_flStaminaWait?$AA@		; `string'
PUBLIC	??_C@_0BA@BMJHBBIM@m_fTimeLastHurt?$AA@		; `string'
PUBLIC	??_C@_0BE@MJOJDJGP@CanRegenerateHealth?$AA@	; `string'
PUBLIC	??_C@_0P@IOHCELFI@EnterWaterTime?$AA@		; `string'
PUBLIC	??_C@_0N@IJAJADOG@LastDashTime?$AA@		; `string'
PUBLIC	??_C@_06BOBCEPIP@Dashed?$AA@			; `string'
PUBLIC	??_C@_07PHIKJFKK@CanDash?$AA@			; `string'
PUBLIC	??_C@_06EADEOMMN@CanUse?$AA@			; `string'
PUBLIC	??_C@_07DGCPNCA@CanJump?$AA@			; `string'
PUBLIC	??_C@_09DCLIKDFB@CanSprint?$AA@			; `string'
PUBLIC	??_C@_07KJCADMEO@CanMove?$AA@			; `string'
PUBLIC	??_C@_0O@EMEEBIOC@WeaponLowered?$AA@		; `string'
PUBLIC	??_C@_0L@BGPJLNNN@DrunkLevel?$AA@		; `string'
PUBLIC	??_C@_08HBOENCGB@CanShoot?$AA@			; `string'
PUBLIC	??_C@_0BF@KBEBKGI@CanSelectEmptyWeapon?$AA@	; `string'
PUBLIC	??_C@_0BA@IADAMHLG@CanElectroBlast?$AA@		; `string'
PUBLIC	??_C@_0P@DBLGMANF@HUDSuitOffline?$AA@		; `string'
PUBLIC	??_C@_0BF@PEIGACLF@AchievementCheckTime?$AA@	; `string'
PUBLIC	??_C@_09BFBOLFMF@Objective?$AA@			; `string'
PUBLIC	??_C@_0L@GGLHMPL@Objective2?$AA@		; `string'
PUBLIC	??_C@_09EDDDEPIL@CountSlot?$AA@			; `string'
PUBLIC	??_C@_0BK@LBFKPLHM@m_flLastTimeTutorWasShown?$AA@ ; `string'
PUBLIC	??_C@_0O@OGCHBGEK@LastSwimSound?$AA@		; `string'
PUBLIC	??_C@_0BA@OOFDKGLB@LastSwimUpSound?$AA@		; `string'
PUBLIC	??_C@_09LOJKODCP@Submerged?$AA@			; `string'
PUBLIC	??_C@_0BB@OKBPPAFE@LastUseCheckTime?$AA@	; `string'
PUBLIC	??_C@_0N@CDFLBGHL@IsUpsideDown?$AA@		; `string'
PUBLIC	??_C@_08HPAOMMPP@ShieldOn?$AA@			; `string'
PUBLIC	??_C@_0BD@INKAGJID@ShieldAvailableLVL?$AA@	; `string'
PUBLIC	??_C@_0O@JKAPNFC@DroneDeployed?$AA@		; `string'
PUBLIC	??_C@_0M@DJOEGHKL@DroneHealth?$AA@		; `string'
PUBLIC	??_C@_09NBLPLBHK@DroneAmmo?$AA@			; `string'
PUBLIC	??_C@_08KONIALAC@m_hDrone?$AA@			; `string'
PUBLIC	??_C@_0N@PAINNOHL@DroneControl?$AA@		; `string'
PUBLIC	??_C@_0BB@HPHDGGGO@m_DroneTextParms?$AA@	; `string'
PUBLIC	??_C@_0BB@NPJHGPDK@m_AliceTextParms?$AA@	; `string'
PUBLIC	??_C@_0N@OOBFPDED@CameraEntity?$AA@		; `string'
PUBLIC	??_C@_0N@FHKDPOFI@CameraOrigin?$AA@		; `string'
PUBLIC	??_C@_0N@ONMPOLPN@CameraAngles?$AA@		; `string'
PUBLIC	??_C@_09JMJDKDBB@ZoomState?$AA@			; `string'
PUBLIC	??_C@_0BB@MPBENDA@ButtonFreezeTime?$AA@		; `string'
PUBLIC	??_C@_0M@IFLFNFKM@HUDtextTime?$AA@		; `string'
PUBLIC	??_C@_0BF@KGMJCOH@m_pFlashlightMonster?$AA@	; `string'
PUBLIC	??_C@_09EHHCJGPO@HadWeapon?$AA@			; `string'
PUBLIC	??_C@_0BB@BHPOFMLN@AchievementStats?$AA@	; `string'
PUBLIC	??_C@_0BA@KGMBKOBC@BlastAbilityLVL?$AA@		; `string'
PUBLIC	??_C@_0BC@KANAJHLN@BlastChargesReady?$AA@	; `string'
PUBLIC	??_C@_0O@CJBAAHDA@LastBlastTime?$AA@		; `string'
PUBLIC	??_C@_0BB@CEIBDHG@BlastDMGOverride?$AA@		; `string'
PUBLIC	??_C@_04BNLCKFJN@pCar?$AA@			; `string'
PUBLIC	??_C@_05JNNFIBGE@InCar?$AA@			; `string'
PUBLIC	??_C@_0BA@LCKLAFIH@BreathingEffect?$AA@		; `string'
PUBLIC	??_C@_0P@NKBABMMH@WigglingEffect?$AA@		; `string'
PUBLIC	??_C@_0BJ@HIKOGCFL@m_flLastWeaponSwitchTime?$AA@ ; `string'
PUBLIC	??_C@_0BG@PIDKAPDC@LoudWeaponsRestricted?$AA@	; `string'
PUBLIC	??_C@_07OJHJAJOM@SelAmmo?$AA@			; `string'
PUBLIC	??_C@_09PEGKEGNI@CurWeapon?$AA@			; `string'
PUBLIC	??_C@_07DNEKOHB@Weapons?$AA@			; `string'
PUBLIC	??_C@_06NKMADNKG@Geiger?$AA@			; `string'
PUBLIC	??_C@_0L@PALCELJK@Flashlight?$AA@		; `string'
PUBLIC	??_C@_06GGDALCBD@Health?$AA@			; `string'
PUBLIC	??_C@_0N@FOAEKJGA@HealthVisual?$AA@		; `string'
PUBLIC	??_C@_07IDNIELMN@Stamina?$AA@			; `string'
PUBLIC	??_C@_06KGFFMMMJ@Damage?$AA@			; `string'
PUBLIC	??_C@_07OFDFNCDP@Battery?$AA@			; `string'
PUBLIC	??_C@_05GFNCIBPC@Train?$AA@			; `string'
PUBLIC	??_C@_07JNEKKACO@HudText?$AA@			; `string'
PUBLIC	??_C@_07JAECCEML@SayText?$AA@			; `string'
PUBLIC	??_C@_07GMGJNMMC@TextMsg?$AA@			; `string'
PUBLIC	??_C@_0L@JMLCHIOL@WeaponList?$AA@		; `string'
PUBLIC	??_C@_08PEHACIKG@ResetHUD?$AA@			; `string'
PUBLIC	??_C@_07PEONMAPN@InitHUD?$AA@			; `string'
PUBLIC	??_C@_09HEMANCP@GameTitle?$AA@			; `string'
PUBLIC	??_C@_08DMGIIAG@DeathMsg?$AA@			; `string'
PUBLIC	??_C@_09CBJIIAKN@ScoreInfo?$AA@			; `string'
PUBLIC	??_C@_08BHMNHEND@TeamInfo?$AA@			; `string'
PUBLIC	??_C@_09DEGMELBN@TeamScore?$AA@			; `string'
PUBLIC	??_C@_08JJGOBBMF@GameMode?$AA@			; `string'
PUBLIC	??_C@_04KFGJNABM@MOTD?$AA@			; `string'
PUBLIC	??_C@_0L@FFDIDHBB@ServerName?$AA@		; `string'
PUBLIC	??_C@_0L@EANOMKOP@AmmoPickup?$AA@		; `string'
PUBLIC	??_C@_0L@FGOFFEAA@WeapPickup?$AA@		; `string'
PUBLIC	??_C@_0L@NIFLCEON@ItemPickup?$AA@		; `string'
PUBLIC	??_C@_0L@IFFGJKPB@HideWeapon?$AA@		; `string'
PUBLIC	??_C@_06NJNDMID@SetFOV?$AA@			; `string'
PUBLIC	??_C@_08IGGENMMJ@ShowMenu?$AA@			; `string'
PUBLIC	??_C@_0M@FNPJCEOM@ScreenShake?$AA@		; `string'
PUBLIC	??_C@_0L@OBKHMDDA@ScreenFade?$AA@		; `string'
PUBLIC	??_C@_05BDDOEAPG@AmmoX?$AA@			; `string'
PUBLIC	??_C@_09FOBMMBJB@TeamNames?$AA@			; `string'
PUBLIC	??_C@_0L@KLILBJK@StatusText?$AA@		; `string'
PUBLIC	??_C@_0M@GOKLPADN@StatusValue?$AA@		; `string'
PUBLIC	??_C@_09BCJOCADI@Spectator?$AA@			; `string'
PUBLIC	??_C@_0L@HDEEALFN@WeaponAnim?$AA@		; `string'
PUBLIC	??_C@_0L@MMOOACNB@Healthbars?$AA@		; `string'
PUBLIC	??_C@_09BLAOIMAB@CodeInput?$AA@			; `string'
PUBLIC	??_C@_08HIFHGEKA@Particle?$AA@			; `string'
PUBLIC	??_C@_08BOBKHLMK@KillPart?$AA@			; `string'
PUBLIC	??_C@_0L@IBFKHCEP@KillDecals?$AA@		; `string'
PUBLIC	??_C@_08HEDELBBN@RainData?$AA@			; `string'
PUBLIC	??_C@_09HMOJLOCD@MusicFade?$AA@			; `string'
PUBLIC	??_C@_0L@BOOHPCFL@StatusIcon?$AA@		; `string'
PUBLIC	??_C@_0BA@HLCFMPA@StatusIconTutor?$AA@		; `string'
PUBLIC	??_C@_0BG@DIKIKBA@StatusIconAchievement?$AA@	; `string'
PUBLIC	??_C@_0L@CPHIAPDB@SetupBones?$AA@		; `string'
PUBLIC	??_C@_0BA@DFFLEBCP@CrosshairStatic?$AA@		; `string'
PUBLIC	??_C@_07MGCHCBIK@UseIcon?$AA@			; `string'
PUBLIC	??_C@_04LLODKBCK@Zoom?$AA@			; `string'
PUBLIC	??_C@_07HKFHLAHE@TempEnt?$AA@			; `string'
PUBLIC	??_C@_0M@GHGEHHGI@WaterSplash?$AA@		; `string'
PUBLIC	??_C@_0L@HDLMIABM@BlastIcons?$AA@		; `string'
PUBLIC	??_C@_08JCBCCJMO@GaussHUD?$AA@			; `string'
PUBLIC	??_7?$CEntityFactory@VCBasePlayer@@@@6B@	; CEntityFactory<CBasePlayer>::`vftable'
PUBLIC	??_C@_06BALNJMNP@player?$AA@			; `string'
PUBLIC	??_C@_0BE@PGEMHOAN@player?1pl_pain5?4wav?$AA@	; `string'
PUBLIC	??_C@_0BE@HANIAMKD@player?1pl_pain6?4wav?$AA@	; `string'
PUBLIC	??_C@_0BE@LLIENPAG@player?1pl_pain7?4wav?$AA@	; `string'
PUBLIC	??_C@_08EEOINLBI@HEV_DEAD?$AA@			; `string'
PUBLIC	??_C@_0BC@MPKOBDMG@info_intermission?$AA@	; `string'
PUBLIC	??_C@_0BF@HAEMECN@drone?1drone_hit1?4wav?$AA@	; `string'
PUBLIC	??_C@_0BF@IBJALGID@drone?1drone_hit2?4wav?$AA@	; `string'
PUBLIC	??_C@_0BF@EKMMGFCG@drone?1drone_hit3?4wav?$AA@	; `string'
PUBLIC	??_C@_0BF@FHMJFFJO@drone?1drone_hit4?4wav?$AA@	; `string'
PUBLIC	??_C@_0BF@JMJFIGDL@drone?1drone_hit5?4wav?$AA@	; `string'
PUBLIC	??_C@_0L@COAPIKGO@playerball?$AA@		; `string'
PUBLIC	??_C@_09PPCOCIF@?$CBHEV_DMG4?$AA@		; `string'
PUBLIC	??_C@_09BGOJNDME@?$CBHEV_DMG5?$AA@		; `string'
PUBLIC	??_C@_09DNMEIAAH@?$CBHEV_DMG6?$AA@		; `string'
PUBLIC	??_C@_09HCIFBGMA@?$CBHEV_DMG1?$AA@		; `string'
PUBLIC	??_C@_09GLJOCHIB@?$CBHEV_DMG0?$AA@		; `string'
PUBLIC	??_C@_09FJKIEFAD@?$CBHEV_DMG2?$AA@		; `string'
PUBLIC	??_C@_09EALDHEEC@?$CBHEV_DMG3?$AA@		; `string'
PUBLIC	??_C@_09KJFBCDAG@?$CBHEV_DET1?$AA@		; `string'
PUBLIC	??_C@_09LAEKBCEH@?$CBHEV_DET0?$AA@		; `string'
PUBLIC	??_C@_09ICHMHAMF@?$CBHEV_DET2?$AA@		; `string'
PUBLIC	??_C@_09LIGHOCAH@?$CBHEV_MED1?$AA@		; `string'
PUBLIC	??_C@_0L@DFOBMIPH@?$CBHEV_HEAL7?$AA@		; `string'
PUBLIC	??_C@_0L@DMFDGAPD@?$CBHEV_HLTH3?$AA@		; `string'
PUBLIC	??_C@_0L@CFEIFBLC@?$CBHEV_HLTH2?$AA@		; `string'
PUBLIC	??_C@_09CENPLBEG@?$CBHEV_DMG7?$AA@		; `string'
PUBLIC	??_C@_0L@OGFACHB@?$CBHEV_HLTH1?$AA@		; `string'
PUBLIC	??_C@_09ENPIJEF@weaponbox?$AA@			; `string'
PUBLIC	??_C@_0BC@FMADJHLG@?$CGCWeaponBox?3?3Kill?$AA@	; `string'
PUBLIC	??_C@_0BP@GJCADPCG@?$CGCBasePlayer?3?3PlayerDeathThink?$AA@ ; `string'
PUBLIC	??_C@_0BB@CKFGPJNM@game_playerdeath?$AA@	; `string'
PUBLIC	??_C@_08NFEGJCLM@ref_aim_?$AA@			; `string'
PUBLIC	??_C@_0L@IJFMLCAO@ref_shoot_?$AA@		; `string'
PUBLIC	??_C@_0M@GDMFFFFJ@crouch_aim_?$AA@		; `string'
PUBLIC	??_C@_0O@KPFFFEDH@crouch_shoot_?$AA@		; `string'
PUBLIC	??_C@_0BF@FFGEKHDL@ref_reload_onehanded?$AA@	; `string'
PUBLIC	??_C@_0L@FPEBAJAM@crawl_back?$AA@		; `string'
PUBLIC	??_C@_08KJLCGBDC@run_back?$AA@			; `string'
PUBLIC	??_C@_09BMCFPIBI@walk_back?$AA@			; `string'
PUBLIC	??_C@_09CCBHOLHA@deep_idle?$AA@			; `string'
PUBLIC	??_C@_0BE@FOEPOJBH@footsteps?1wade1?4wav?$AA@	; `string'
PUBLIC	??_C@_0BE@NINLJLLJ@footsteps?1wade2?4wav?$AA@	; `string'
PUBLIC	??_C@_0BM@LGNIPBGL@player?1water_jump_hard1?4wav?$AA@ ; `string'
PUBLIC	??_C@_0BM@DAEMIDMF@player?1water_jump_hard2?4wav?$AA@ ; `string'
PUBLIC	??_C@_0BH@CAGNJLPC@player?1water_jump1?4wav?$AA@ ; `string'
PUBLIC	??_C@_0BH@KGPJOJFM@player?1water_jump2?4wav?$AA@ ; `string'
PUBLIC	??_C@_0BH@GNKFDKPJ@player?1water_jump3?4wav?$AA@ ; `string'
PUBLIC	??_C@_0BG@IODAMLMI@player?1water_out1?4wav?$AA@	; `string'
PUBLIC	??_C@_0BG@IKELJGG@player?1water_out2?4wav?$AA@	; `string'
PUBLIC	??_C@_0BG@MDPIGKMD@player?1water_out3?4wav?$AA@	; `string'
PUBLIC	??_C@_0BE@GINIKGHO@player?1pl_swim1?4wav?$AA@	; `string'
PUBLIC	??_C@_0BE@OOEMNENA@player?1pl_swim2?4wav?$AA@	; `string'
PUBLIC	??_C@_0BE@CFBAAHHF@player?1pl_swim3?4wav?$AA@	; `string'
PUBLIC	??_C@_0BE@DIBFDHMN@player?1pl_swim4?4wav?$AA@	; `string'
PUBLIC	??_C@_0N@MIKDGMJO@UTIL_RESPAWN?$AA@		; `string'
PUBLIC	??_C@_0M@GOHMHEKN@UTIL_RELOAD?$AA@		; `string'
PUBLIC	??_C@_07PPNJOBJE@reload?6?$AA@			; `string'
PUBLIC	??_C@_0BF@CHHJHBMH@plats?1train_use1?4wav?$AA@	; `string'
PUBLIC	??_C@_0BC@HILHAJGJ@common?1use_no?4wav?$AA@	; `string'
PUBLIC	??_C@_0P@NGCOJJFI@common?1use?4wav?$AA@		; `string'
PUBLIC	??_C@_0CF@GDFFABNH@1?5?$CFp1?62?5Health?3?5?$CFi2?$CF?$CF?63?5Armor?3?5?$CF@ ; `string'
PUBLIC	??_C@_03OFAPEBGM@?$CFs?6?$AA@			; `string'
PUBLIC	??_C@_02LAJDINOI@1?5?$AA@			; `string'
PUBLIC	??_C@_03HNGFPACP@2?63?$AA@			; `string'
PUBLIC	??_C@_0BC@EEHHGDFA@player_keycatcher?$AA@	; `string'
PUBLIC	??_C@_0CE@HIJPEMKP@WP?5?$CFi?5?$FL?$CFi?$FN?0?5conn?5to?5?$CFi?5?$CFi?5?$CFi?5?$CFi?5@ ; `string'
PUBLIC	??_C@_07LFIJDALL@unnamed?$AA@			; `string'
PUBLIC	??_C@_0L@FHCAHJCE@Newbie?5N?$CFi?$AA@		; `string'
PUBLIC	??_C@_0L@KJIMBMOM@name?5?$CC?$CFs?$CC?6?$AA@	; `string'
PUBLIC	??_C@_0L@GCFIDCJD@UTIL_SPAWN?$AA@		; `string'
PUBLIC	??_C@_0N@IJDLNBAH@OBJ_NOACTIVE?$AA@		; `string'
PUBLIC	??_C@_0P@MJOFDLCJ@UTIL_GRENSAFE3?$AA@		; `string'
PUBLIC	??_C@_0P@NAPOAKGI@UTIL_GRENSAFE2?$AA@		; `string'
PUBLIC	??_C@_0P@PLNDFJKL@UTIL_GRENSAFE1?$AA@		; `string'
PUBLIC	??_C@_0BB@JICOKGKG@player?1throw?4wav?$AA@	; `string'
PUBLIC	??_C@_0N@INNMLFB@_playerdrone?$AA@		; `string'
PUBLIC	??_C@_0CI@LIJNIGJL@Drone?5HP?3?5?$CFi?6?6Distance?3?5?$CFi?5m?6?6Am@ ; `string'
PUBLIC	??_C@_0O@GPPLHLBD@Drone?5active?$CB?$AA@	; `string'
PUBLIC	??_C@_0P@NBBGBOBN@_friendlydrone?$AA@		; `string'
PUBLIC	??_C@_0BH@LMMEMGLJ@drone?1drone_shoot1?4wav?$AA@ ; `string'
PUBLIC	??_C@_0BH@DKFALEBH@drone?1drone_shoot2?4wav?$AA@ ; `string'
PUBLIC	??_C@_0BH@PBAMGHLC@drone?1drone_shoot3?4wav?$AA@ ; `string'
PUBLIC	??_C@_0BL@CCHDOCFE@loudness_restriction_relay?$AA@ ; `string'
PUBLIC	??_C@_0BD@HKACEDMJ@tutor_electroblast?$AA@	; `string'
PUBLIC	??_C@_0N@JNHJOOAO@UTIL_NOBLAST?$AA@		; `string'
PUBLIC	??_C@_0BI@PHCHCNAK@player?1electroblast?4wav?$AA@ ; `string'
PUBLIC	??_C@_0L@BOMMJLDE@?$CBHEV_HEAL4?$AA@		; `string'
PUBLIC	??_C@_0L@BFLOMJEF@suitvolume?$AA@		; `string'
PUBLIC	??_C@_01DCLJPIOD@?$CB?$AA@			; `string'
PUBLIC	??_C@_0BN@DEDLJHDB@Client?5lost?5reserved?5sound?$CB?6?$AA@ ; `string'
PUBLIC	??_C@_0BG@GDLOGHOA@common?1bodysplat1?4wav?$AA@	; `string'
PUBLIC	??_C@_0BG@OFCKBFEO@common?1bodysplat2?4wav?$AA@	; `string'
PUBLIC	??_C@_0BG@COHGMGOL@common?1bodysplat3?4wav?$AA@	; `string'
PUBLIC	??_C@_0BC@NMOOKIKJ@UTIL_SPAWNPROTECT?$AA@	; `string'
PUBLIC	??_C@_0BL@PCFBHANF@?$CK?5?$CFs?5is?5on?5killing?5spree?$CB?6?$AA@ ; `string'
PUBLIC	??_C@_0BF@HFEKJMA@?$CK?5?$CFs?5is?5dominating?$CB?6?$AA@ ; `string'
PUBLIC	??_C@_0BF@IOLJKCOB@?$CK?5?$CFs?5is?5on?5rampage?$CB?6?$AA@ ; `string'
PUBLIC	??_C@_0BC@LEFOBPPK@?$CK?5?$CFs?5is?5godlike?$CB?6?$AA@ ; `string'
PUBLIC	??_C@_0BG@OCGGNFAC@?$CK?5?$CFs?5is?5wicked?5sick?$CB?6?$AA@ ; `string'
PUBLIC	??_C@_0BF@HGBPEAJD@?$CK?5Doublekill?5by?5?$CFs?$CB?6?$AA@ ; `string'
PUBLIC	??_C@_0BF@FLJLACLL@?$CK?5Triplekill?5by?5?$CFs?$CB?6?$AA@ ; `string'
PUBLIC	??_C@_0BE@GCMPODFL@?$CK?5Multikill?5by?5?$CFs?$CB?6?$AA@ ; `string'
PUBLIC	??_C@_0BD@PHFBFMIE@?$CK?5Megakill?5by?5?$CFs?$CB?6?$AA@ ; `string'
PUBLIC	??_C@_0BE@KJENGHPK@?$CK?5Ultrakill?5by?5?$CFs?$CB?6?$AA@ ; `string'
PUBLIC	??_C@_0BG@NMHDINGI@?$CK?5Monsterkill?5by?5?$CFs?$CB?6?$AA@ ; `string'
PUBLIC	??_C@_08ENJNJDN@?9sprint?6?$AA@			; `string'
PUBLIC	??_C@_0M@MCBKFJB@UTIL_NODASH?$AA@		; `string'
PUBLIC	??_C@_0BA@NDDDBKNL@player?1dash?4wav?$AA@	; `string'
PUBLIC	??_C@_0BB@HKBBLLCA@info_player_coop?$AA@	; `string'
PUBLIC	??_C@_0BC@IHPKIKNE@info_player_start?$AA@	; `string'
PUBLIC	??_C@_0BH@IGAFCIL@info_player_deathmatch?$AA@	; `string'
PUBLIC	??_C@_0DB@JJPGFIEH@PutClientInServer?3?5no?5info_playe@ ; `string'
PUBLIC	??_C@_07IAEFOCFG@?$CKplayer?$AA@		; `string'
PUBLIC	??_C@_01GBGANLPD@0?$AA@				; `string'
PUBLIC	??_C@_03HJOOJOPI@slj?$AA@			; `string'
PUBLIC	??_C@_01HIHLOKLC@1?$AA@				; `string'
PUBLIC	??_C@_02IPDCJINO@hl?$AA@			; `string'
PUBLIC	??_C@_05DKELCLGM@incar?$AA@			; `string'
PUBLIC	??_C@_0BC@NCILMEI@models?1player?4mdl?$AA@	; `string'
PUBLIC	??_C@_0CD@CNGHKPLI@Couldn?8t?5alloc?5player?5sound?5slot@ ; `string'
PUBLIC	??_C@_05NCCFOPHA@model?$AA@			; `string'
PUBLIC	??_C@_04HALMDEDO@robo?$AA@			; `string'
PUBLIC	??_C@_0L@IGMOOOCC@item_flare?$AA@		; `string'
PUBLIC	??_C@_0BF@NMDELAMK@?$CGCFlare?3?3BounceTouch?$AA@ ; `string'
PUBLIC	??_C@_0BA@MDAHEIMO@?$CGCFlare?3?3Ignite?$AA@	; `string'
PUBLIC	??_C@_0BA@PAIIGCLL@No?5Landmark?3?$CFs?6?$AA@	; `string'
PUBLIC	??_7CSprayCan@@6B@				; CSprayCan::`vftable'
PUBLIC	??_C@_0BD@DOKDOHJH@player?1sprayer?4wav?$AA@	; `string'
PUBLIC	??_7CBloodSplat@@6B@				; CBloodSplat::`vftable'
PUBLIC	??_C@_0BE@KJMFIMMD@?$CGCBloodSplat?3?3Spray?$AA@ ; `string'
PUBLIC	??_C@_0BM@EADHAOHM@NULL?5Ent?5in?5GiveNamedItem?$CB?6?$AA@ ; `string'
PUBLIC	??_C@_0BG@GEEPOHBH@items?1flashlight1?4wav?$AA@	; `string'
PUBLIC	??_C@_0M@CIJDHGLD@_flashlight?$AA@		; `string'
PUBLIC	?__LINE__Var@?0??ImpulseCommands@CBasePlayer@@UAEXXZ@4JA ; `CBasePlayer::ImpulseCommands'::`1'::__LINE__Var
PUBLIC	??_C@_0BA@GCMDNLLH@game_firetarget?$AA@		; `string'
PUBLIC	??_C@_04GIGGPADC@Logo?$AA@			; `string'
PUBLIC	??_C@_0EN@NOCOPEGE@d?3?2?$CBdiffusion?52020?2source?5code?52@ ; `string'
PUBLIC	??_C@_0N@NBONHOAD@gmsgLogo?5?$DO?50?$AA@	; `string'
PUBLIC	??_C@_0BE@MKHPBDMI@monster_human_grunt?$AA@	; `string'
PUBLIC	??_C@_09PNLMJFNO@item_suit?$AA@			; `string'
PUBLIC	??_C@_0N@CFAHNHDH@weapon_knife?$AA@		; `string'
PUBLIC	??_C@_0BC@GDALAHJA@weapon_9mmhandgun?$AA@	; `string'
PUBLIC	??_C@_0P@ILAKNOAG@weapon_shotgun?$AA@		; `string'
PUBLIC	??_C@_0BC@OCDMEOEA@weapon_shotgun_xm?$AA@	; `string'
PUBLIC	??_C@_0N@BIGGDBN@weapon_9mmAR?$AA@		; `string'
PUBLIC	??_C@_0BA@KLCOFANC@ammo_ARgrenades?$AA@		; `string'
PUBLIC	??_C@_0BD@DKJAMAOF@weapon_handgrenade?$AA@	; `string'
PUBLIC	??_C@_0BA@NAEGPHIJ@weapon_tripmine?$AA@		; `string'
PUBLIC	??_C@_0L@DGJNBIBM@weapon_357?$AA@		; `string'
PUBLIC	??_C@_0BA@IMEECLKD@weapon_crossbow?$AA@		; `string'
PUBLIC	??_C@_0BB@PMMHEOKD@weapon_gausniper?$AA@	; `string'
PUBLIC	??_C@_0L@NJNPDFDL@weapon_rpg?$AA@		; `string'
PUBLIC	??_C@_0P@NDDAPDLL@weapon_satchel?$AA@		; `string'
PUBLIC	??_C@_0L@FPDLLADF@weapon_ar2?$AA@		; `string'
PUBLIC	??_C@_0N@EFLNLIAA@ammo_ar2ball?$AA@		; `string'
PUBLIC	??_C@_0N@FKDJBBAF@weapon_drone?$AA@		; `string'
PUBLIC	??_C@_0O@CJMKLEPM@weapon_sentry?$AA@		; `string'
PUBLIC	??_C@_0N@EGABDPCI@weapon_hkmp5?$AA@		; `string'
PUBLIC	??_C@_0BB@JLPINHFH@weapon_fiveseven?$AA@	; `string'
PUBLIC	??_C@_0O@IENCGDEG@weapon_sniper?$AA@		; `string'
PUBLIC	??_C@_0M@LDNNKFND@weapon_g36c?$AA@		; `string'
PUBLIC	??_C@_0BD@PLCKGGAM@Player?5is?5audible?6?$AA@	; `string'
PUBLIC	??_C@_0BC@BDDKBFNJ@Player?5is?5silent?6?$AA@	; `string'
PUBLIC	??_C@_0N@OAFBHAKD@Texture?3?5?$CFs?6?$AA@	; `string'
PUBLIC	??_C@_0O@KNELLIDG@Hitgroup?3?5?$CFs?6?$AA@	; `string'
PUBLIC	??_C@_0BA@NLCNMBCE@node_viewer_fly?$AA@		; `string'
PUBLIC	??_C@_0BC@MGJDOKDM@node_viewer_large?$AA@	; `string'
PUBLIC	??_C@_0BC@CHGBHLNI@node_viewer_human?$AA@	; `string'
PUBLIC	??_C@_03PMGGPEJJ@?$CFd?6?$AA@			; `string'
PUBLIC	??_C@_04HIBGFPH@NULL?$AA@			; `string'
PUBLIC	?__LINE__Var@?0??SendAmmoUpdate@CBasePlayer@@QAEXPAV2@@Z@4JA ; `CBasePlayer::SendAmmoUpdate'::`1'::__LINE__Var
PUBLIC	??_C@_0BK@PEDLEIDL@pPlayer?9?$DOm_rgAmmo?$FLi?$FN?5?$DO?$DN?50?$AA@ ; `string'
PUBLIC	??_C@_0BL@DKKNLPBN@pPlayer?9?$DOm_rgAmmo?$FLi?$FN?5?$DM?5255?$AA@ ; `string'
PUBLIC	?__LINE__Var@?0??UpdateClientData@CBasePlayer@@UAEXXZ@4JA ; `CBasePlayer::UpdateClientData'::`1'::__LINE__Var
PUBLIC	??_C@_0BA@BEAIFEPH@game_playerjoin?$AA@		; `string'
PUBLIC	??_C@_0M@LPOJOBFH@default_fov?$AA@		; `string'
PUBLIC	??_C@_0CK@MHKDLFKA@Rain?5fading?3?5curdrips?3?5?$CFi?0?5ideal@ ; `string'
PUBLIC	??_C@_0CC@EGECNOOM@Rain?5fading?5finished?5at?5?$CFi?5drips@ ; `string'
PUBLIC	??_C@_08EPDFHEP@env_rain?$AA@			; `string'
PUBLIC	??_C@_0BP@CPMKAIEM@Sending?5enabling?5rain?5message?6?$AA@ ; `string'
PUBLIC	??_C@_0CA@COBPNFGE@Sending?5disabling?5rain?5message?6?$AA@ ; `string'
PUBLIC	??_C@_0BE@FENGHKNP@Clearing?5rain?5data?6?$AA@	; `string'
PUBLIC	??_C@_0O@MMLFBDJD@gmsgTrain?5?$DO?50?$AA@	; `string'
PUBLIC	??_C@_05LGDANENA@Empty?$AA@			; `string'
PUBLIC	??_C@_0BO@FDPNENNO@?$CGCBasePlayerItem?3?3DestroyItem?$AA@ ; `string'
PUBLIC	??_C@_05KKCIMGE@error?$AA@			; `string'
PUBLIC	??_C@_0M@DNEMLPMC@tutor_knife?$AA@		; `string'
PUBLIC	??_C@_0N@BJBEKGOF@tutor_pistol?$AA@		; `string'
PUBLIC	??_C@_0N@HGEPOHMA@tutor_deagle?$AA@		; `string'
PUBLIC	??_C@_09CAEHMIMD@tutor_mrc?$AA@			; `string'
PUBLIC	??_C@_0N@GAGPHANG@tutor_cycler?$AA@		; `string'
PUBLIC	??_C@_0P@HDGBODDH@tutor_crossbow?$AA@		; `string'
PUBLIC	??_C@_0O@KBKIDKNP@tutor_shotgun?$AA@		; `string'
PUBLIC	??_C@_0BB@GCKOLEPJ@tutor_shotgun_xm?$AA@	; `string'
PUBLIC	??_C@_09EPNFJOGA@tutor_rpg?$AA@			; `string'
PUBLIC	??_C@_0BA@LFKDMDG@tutor_gausniper?$AA@		; `string'
PUBLIC	??_C@_0L@KHJOIHOD@tutor_egon?$AA@		; `string'
PUBLIC	??_C@_0N@BGDEBEJF@tutor_hornet?$AA@		; `string'
PUBLIC	??_C@_0O@MKEHCFJL@tutor_grenade?$AA@		; `string'
PUBLIC	??_C@_0P@CPGDDPBN@tutor_tripmine?$AA@		; `string'
PUBLIC	??_C@_0O@PJJCBHGC@tutor_satchel?$AA@		; `string'
PUBLIC	??_C@_0M@JCNBDBPJ@tutor_snark?$AA@		; `string'
PUBLIC	??_C@_09MJDBBLGO@tutor_ar2?$AA@			; `string'
PUBLIC	??_C@_0M@ECHCHJPA@tutor_drone?$AA@		; `string'
PUBLIC	??_C@_0N@OEAFPJAH@tutor_sentry?$AA@		; `string'
PUBLIC	??_C@_0M@FOEKFHNN@tutor_hkmp5?$AA@		; `string'
PUBLIC	??_C@_0BA@GMGFKFMC@tutor_fiveseven?$AA@		; `string'
PUBLIC	??_C@_0N@EJBNCOLN@tutor_sniper?$AA@		; `string'
PUBLIC	??_C@_0L@EPPCCHAE@tutor_g36c?$AA@		; `string'
PUBLIC	??_C@_1JC@EMNIBBBG@?$AAd?$AA?3?$AA?2?$AA?$CB?$AAd?$AAi?$AAf?$AAf?$AAu?$AAs?$AAi?$AAo?$AAn?$AA?5?$AA2?$AA0?$AA2?$AA0?$AA?2?$AAs?$AAo?$AAu?$AAr?$AAc?$AAe?$AA?5?$AAc?$AAo?$AAd?$AAe?$AA?5?$AA2@ ; `string'
PUBLIC	??_C@_1IK@DGJDJNN@?$AA?$CI?$AAB?$AAa?$AAs?$AAe?$AA?$CI?$AA?$CJ?$AA?5?$AA?$DN?$AA?$DN?$AA?5?$AAN?$AAU?$AAL?$AAL?$AA?$CJ?$AA?5?$AA?$HM?$AA?$HM?$AA?5?$AA?$CI?$AA?$CG?$AAs?$AAr?$AAc?$AA?5?$AA?$DM?$AA?5?$AAB?$AAa?$AAs?$AAe@ ; `string'
PUBLIC	??_C@_1JE@CIIIAKCN@?$AAd?$AA?3?$AA?2?$AA?$CB?$AAd?$AAi?$AAf?$AAf?$AAu?$AAs?$AAi?$AAo?$AAn?$AA?5?$AA2?$AA0?$AA2?$AA0?$AA?2?$AAs?$AAo?$AAu?$AAr?$AAc?$AAe?$AA?5?$AAc?$AAo?$AAd?$AAe?$AA?5?$AA2@ ; `string'
PUBLIC	??_C@_1BO@FOOHAONO@?$AAn?$AAG?$AAr?$AAo?$AAw?$AAS?$AAi?$AAz?$AAe?$AA?5?$AA?$DO?$AA?$DN?$AA?5?$AA0?$AA?$AA@ ; `string'
PUBLIC	??_C@_1BM@PFNFCCHH@?$AA?$CB?$AAI?$AAs?$AAR?$AAe?$AAa?$AAd?$AAO?$AAn?$AAl?$AAy?$AA?$CI?$AA?$CJ?$AA?$AA@ ; `string'
PUBLIC	??_C@_1BM@CKILBAKK@?$AAI?$AAs?$AAI?$AAd?$AAx?$AAV?$AAa?$AAl?$AAi?$AAd?$AA?$CI?$AAi?$AA?$CJ?$AA?$AA@ ; `string'
PUBLIC	??_C@_1FA@BPFBJKPF@?$AA?$CI?$AAe?$AAl?$AAe?$AAm?$AA?5?$AA?$DN?$AA?$DN?$AA?5?$AAC?$AAo?$AAu?$AAn?$AAt?$AA?$CI?$AA?$CJ?$AA?$CJ?$AA?5?$AA?$HM?$AA?$HM?$AA?5?$AAI?$AAs?$AAV?$AAa?$AAl?$AAi?$AAd?$AAI?$AAn?$AAd?$AAe@ ; `string'
PUBLIC	??_C@_1GM@CDMJDFPA@?$AAI?$AAs?$AAV?$AAa?$AAl?$AAi?$AAd?$AAI?$AAn?$AAd?$AAe?$AAx?$AA?$CI?$AAe?$AAl?$AAe?$AAm?$AA?$CJ?$AA?5?$AA?$HM?$AA?$HM?$AA?5?$AA?$CI?$AA?5?$AAm?$AA_?$AAS?$AAi?$AAz?$AAe?$AA?5?$AA?$DN@ ; `string'
PUBLIC	??_C@_1BA@PKCLMAEA@?$AAn?$AAu?$AAm?$AA?5?$AA?$DO?$AA?5?$AA0?$AA?$AA@ ; `string'
PUBLIC	??_C@_13COJANIEC@?$AA0?$AA?$AA@			; `string'
PUBLIC	??_C@_1BE@OPPFELHC@?$AAm?$AA_?$AAp?$AAM?$AAe?$AAm?$AAo?$AAr?$AAy?$AA?$AA@ ; `string'
PUBLIC	??_R4CBaseEntity@@6B@				; CBaseEntity::`RTTI Complete Object Locator'
PUBLIC	??_R0?AVCBaseEntity@@@8				; CBaseEntity `RTTI Type Descriptor'
PUBLIC	??_R3CBaseEntity@@8				; CBaseEntity::`RTTI Class Hierarchy Descriptor'
PUBLIC	??_R2CBaseEntity@@8				; CBaseEntity::`RTTI Base Class Array'
PUBLIC	??_R1A@?0A@EA@CBaseEntity@@8			; CBaseEntity::`RTTI Base Class Descriptor at (0,-1,0,64)'
PUBLIC	??_R4IEntityFactory@@6B@			; IEntityFactory::`RTTI Complete Object Locator'
PUBLIC	??_R0?AVIEntityFactory@@@8			; IEntityFactory `RTTI Type Descriptor'
PUBLIC	??_R3IEntityFactory@@8				; IEntityFactory::`RTTI Class Hierarchy Descriptor'
PUBLIC	??_R2IEntityFactory@@8				; IEntityFactory::`RTTI Base Class Array'
PUBLIC	??_R1A@?0A@EA@IEntityFactory@@8			; IEntityFactory::`RTTI Base Class Descriptor at (0,-1,0,64)'
PUBLIC	??_R4CBasePlayer@@6B@				; CBasePlayer::`RTTI Complete Object Locator'
PUBLIC	??_R0?AVCBasePlayer@@@8				; CBasePlayer `RTTI Type Descriptor'
PUBLIC	??_R3CBasePlayer@@8				; CBasePlayer::`RTTI Class Hierarchy Descriptor'
PUBLIC	??_R2CBasePlayer@@8				; CBasePlayer::`RTTI Base Class Array'
PUBLIC	??_R1A@?0A@EA@CBasePlayer@@8			; CBasePlayer::`RTTI Base Class Descriptor at (0,-1,0,64)'
PUBLIC	??_R1A@?0A@EA@CBaseMonster@@8			; CBaseMonster::`RTTI Base Class Descriptor at (0,-1,0,64)'
PUBLIC	??_R0?AVCBaseMonster@@@8			; CBaseMonster `RTTI Type Descriptor'
PUBLIC	??_R3CBaseMonster@@8				; CBaseMonster::`RTTI Class Hierarchy Descriptor'
PUBLIC	??_R2CBaseMonster@@8				; CBaseMonster::`RTTI Base Class Array'
PUBLIC	??_R1A@?0A@EA@CBaseToggle@@8			; CBaseToggle::`RTTI Base Class Descriptor at (0,-1,0,64)'
PUBLIC	??_R0?AVCBaseToggle@@@8				; CBaseToggle `RTTI Type Descriptor'
PUBLIC	??_R3CBaseToggle@@8				; CBaseToggle::`RTTI Class Hierarchy Descriptor'
PUBLIC	??_R2CBaseToggle@@8				; CBaseToggle::`RTTI Base Class Array'
PUBLIC	??_R1A@?0A@EA@CBaseAnimating@@8			; CBaseAnimating::`RTTI Base Class Descriptor at (0,-1,0,64)'
PUBLIC	??_R0?AVCBaseAnimating@@@8			; CBaseAnimating `RTTI Type Descriptor'
PUBLIC	??_R3CBaseAnimating@@8				; CBaseAnimating::`RTTI Class Hierarchy Descriptor'
PUBLIC	??_R2CBaseAnimating@@8				; CBaseAnimating::`RTTI Base Class Array'
PUBLIC	??_R1A@?0A@EA@CBaseDelay@@8			; CBaseDelay::`RTTI Base Class Descriptor at (0,-1,0,64)'
PUBLIC	??_R0?AVCBaseDelay@@@8				; CBaseDelay `RTTI Type Descriptor'
PUBLIC	??_R3CBaseDelay@@8				; CBaseDelay::`RTTI Class Hierarchy Descriptor'
PUBLIC	??_R2CBaseDelay@@8				; CBaseDelay::`RTTI Base Class Array'
PUBLIC	??_R4CBaseMonster@@6B@				; CBaseMonster::`RTTI Complete Object Locator'
PUBLIC	??_R4CBaseDelay@@6B@				; CBaseDelay::`RTTI Complete Object Locator'
PUBLIC	??_R4CBaseAnimating@@6B@			; CBaseAnimating::`RTTI Complete Object Locator'
PUBLIC	??_R4CBaseToggle@@6B@				; CBaseToggle::`RTTI Complete Object Locator'
PUBLIC	??_R4?$CEntityFactory@VCBasePlayer@@@@6B@	; CEntityFactory<CBasePlayer>::`RTTI Complete Object Locator'
PUBLIC	??_R0?AV?$CEntityFactory@VCBasePlayer@@@@@8	; CEntityFactory<CBasePlayer> `RTTI Type Descriptor'
PUBLIC	??_R3?$CEntityFactory@VCBasePlayer@@@@8		; CEntityFactory<CBasePlayer>::`RTTI Class Hierarchy Descriptor'
PUBLIC	??_R2?$CEntityFactory@VCBasePlayer@@@@8		; CEntityFactory<CBasePlayer>::`RTTI Base Class Array'
PUBLIC	??_R1A@?0A@EA@?$CEntityFactory@VCBasePlayer@@@@8 ; CEntityFactory<CBasePlayer>::`RTTI Base Class Descriptor at (0,-1,0,64)'
PUBLIC	??_R4CSprayCan@@6B@				; CSprayCan::`RTTI Complete Object Locator'
PUBLIC	??_R0?AVCSprayCan@@@8				; CSprayCan `RTTI Type Descriptor'
PUBLIC	??_R3CSprayCan@@8				; CSprayCan::`RTTI Class Hierarchy Descriptor'
PUBLIC	??_R2CSprayCan@@8				; CSprayCan::`RTTI Base Class Array'
PUBLIC	??_R1A@?0A@EA@CSprayCan@@8			; CSprayCan::`RTTI Base Class Descriptor at (0,-1,0,64)'
PUBLIC	??_R4CBloodSplat@@6B@				; CBloodSplat::`RTTI Complete Object Locator'
PUBLIC	??_R0?AVCBloodSplat@@@8				; CBloodSplat `RTTI Type Descriptor'
PUBLIC	??_R3CBloodSplat@@8				; CBloodSplat::`RTTI Class Hierarchy Descriptor'
PUBLIC	??_R2CBloodSplat@@8				; CBloodSplat::`RTTI Base Class Array'
PUBLIC	??_R1A@?0A@EA@CBloodSplat@@8			; CBloodSplat::`RTTI Base Class Descriptor at (0,-1,0,64)'
PUBLIC	__real@00000000
PUBLIC	__real@0000000000000000
PUBLIC	__real@3c23d70a
PUBLIC	__real@3cd013a9
PUBLIC	__real@3cd67770
PUBLIC	__real@3dcccccd
PUBLIC	__real@3e4ccccd
PUBLIC	__real@3e800000
PUBLIC	__real@3e99999a
PUBLIC	__real@3ea8f5c3
PUBLIC	__real@3ecccccd
PUBLIC	__real@3f000000
PUBLIC	__real@3f2b851f
PUBLIC	__real@3f333333
PUBLIC	__real@3f400000
PUBLIC	__real@3f4ccccd
PUBLIC	__real@3f666666
PUBLIC	__real@3f800000
PUBLIC	__real@3f847ae147ae147b
PUBLIC	__real@3f8ccccd
PUBLIC	__real@3f99999a
PUBLIC	__real@3fa47ae147ae147b
PUBLIC	__real@3fb999999999999a
PUBLIC	__real@3fc00000
PUBLIC	__real@3fc3333333333333
PUBLIC	__real@3fc999999999999a
PUBLIC	__real@3fd0000000000000
PUBLIC	__real@3fd51eb851eb851f
PUBLIC	__real@3fd999999999999a
PUBLIC	__real@3fe0000000000000
PUBLIC	__real@3fe3333333333333
PUBLIC	__real@3fe51eb851eb851f
PUBLIC	__real@3fe8000000000000
PUBLIC	__real@3ff0000000000000
PUBLIC	__real@3ff199999999999a
PUBLIC	__real@3ff2666666666666
PUBLIC	__real@3ff8000000000000
PUBLIC	__real@40000000
PUBLIC	__real@4000000000000000
PUBLIC	__real@400c000000000000
PUBLIC	__real@40400000
PUBLIC	__real@4049000000000000
PUBLIC	__real@40800000
PUBLIC	__real@4087700000000000
PUBLIC	__real@40a00000
PUBLIC	__real@40c00000
PUBLIC	__real@41000000
PUBLIC	__real@41100000
PUBLIC	__real@41200000
PUBLIC	__real@41400000
PUBLIC	__real@41700000
PUBLIC	__real@41800000
PUBLIC	__real@41880000
PUBLIC	__real@418c0000
PUBLIC	__real@41900000
PUBLIC	__real@41a00000
PUBLIC	__real@41c80000
PUBLIC	__real@41d80000
PUBLIC	__real@41e00000
PUBLIC	__real@41f00000
PUBLIC	__real@42000000
PUBLIC	__real@42100000
PUBLIC	__real@42340000
PUBLIC	__real@42480000
PUBLIC	__real@42700000
PUBLIC	__real@42800000
PUBLIC	__real@42960000
PUBLIC	__real@42a00000
PUBLIC	__real@42b40000
PUBLIC	__real@42c80000
PUBLIC	__real@42dc0000
PUBLIC	__real@42f00000
PUBLIC	__real@43000000
PUBLIC	__real@43020000
PUBLIC	__real@43160000
PUBLIC	__real@43250000
PUBLIC	__real@43340000
PUBLIC	__real@43480000
PUBLIC	__real@43610000
PUBLIC	__real@437a0000
PUBLIC	__real@437f0000
PUBLIC	__real@43800000
PUBLIC	__real@43910000
PUBLIC	__real@43960000
PUBLIC	__real@43a00000
PUBLIC	__real@43af0000
PUBLIC	__real@43b40000
PUBLIC	__real@43c80000
PUBLIC	__real@43fa0000
PUBLIC	__real@44000000
PUBLIC	__real@44030000
PUBLIC	__real@44268000
PUBLIC	__real@44440000
PUBLIC	__real@447a0000
PUBLIC	__real@44800000
PUBLIC	__real@44960000
PUBLIC	__real@45000000
PUBLIC	__real@453b8000
PUBLIC	__real@45800000
PUBLIC	__real@46000000
PUBLIC	__real@bf800000
PUBLIC	__real@c0000000
PUBLIC	__real@c1400000
PUBLIC	__real@c1700000
PUBLIC	__real@c1800000
PUBLIC	__real@c1900000
PUBLIC	__real@c1c80000
PUBLIC	__real@c2100000
PUBLIC	__real@c2180000
PUBLIC	__real@c2200000
PUBLIC	__real@c2480000
PUBLIC	__real@c2c80000
PUBLIC	__real@c3340000
PUBLIC	__real@c3480000
PUBLIC	__xmm@80000000800000008000000080000000
EXTRN	__purecall:PROC
EXTRN	??3@YAXPAXI@Z:PROC				; operator delete
EXTRN	??_U@YAPAXI@Z:PROC				; operator new[]
EXTRN	_atexit:PROC
EXTRN	__Init_thread_header:PROC
EXTRN	__Init_thread_abort:PROC
EXTRN	__Init_thread_footer:PROC
EXTRN	_memcmp:PROC
EXTRN	_memcpy:PROC
EXTRN	_memmove:PROC
EXTRN	_memset:PROC
EXTRN	_strcat:PROC
EXTRN	_strcmp:PROC
EXTRN	_strcpy:PROC
EXTRN	_strlen:PROC
EXTRN	_strncmp:PROC
EXTRN	_stricmp:PROC
EXTRN	_strnicmp:PROC
EXTRN	___stdio_common_vsprintf:PROC
EXTRN	_free:PROC
EXTRN	_malloc:PROC
EXTRN	_realloc:PROC
EXTRN	_atoi:PROC
EXTRN	_fabs:PROC
EXTRN	_sqrt:PROC
EXTRN	??0matrix4x4@@QAE@XZ:PROC			; matrix4x4::matrix4x4
EXTRN	?Q_atoi@@YAHPBD@Z:PROC				; Q_atoi
EXTRN	?Q_strncmp@@YAHPBD0H@Z:PROC			; Q_strncmp
EXTRN	__wassert:PROC
EXTRN	?UTIL_Remove@@YAXPAVCBaseEntity@@@Z:PROC	; UTIL_Remove
EXTRN	?CreateEntityByName@@YAPAVCBaseEntity@@PBDPAUentvars_s@@@Z:PROC ; CreateEntityByName
EXTRN	?EntityFactoryDictionary@@YAPAVIEntityFactoryDictionary@@XZ:PROC ; EntityFactoryDictionary
EXTRN	?DBG_EntOfVars@@YAPAUedict_s@@PBUentvars_s@@@Z:PROC ; DBG_EntOfVars
EXTRN	?ENT@@YAPAUedict_s@@PAVCBaseEntity@@@Z:PROC	; ENT
EXTRN	?FNullEnt@@YAHPAVCBaseEntity@@@Z:PROC		; FNullEnt
EXTRN	?FClassnameIs@@YAHPAVCBaseEntity@@PBD@Z:PROC	; FClassnameIs
EXTRN	?UTIL_SetSize@@YAXPAUentvars_s@@ABVVector@@1@Z:PROC ; UTIL_SetSize
EXTRN	?UTIL_VecToAngles@@YA?AVVector@@ABV1@@Z:PROC	; UTIL_VecToAngles
EXTRN	?UTIL_FindEntityInSphere@@YAPAVCBaseEntity@@PAV1@ABVVector@@M@Z:PROC ; UTIL_FindEntityInSphere
EXTRN	?UTIL_FindEntityByClassname@@YAPAVCBaseEntity@@PAV1@PBD@Z:PROC ; UTIL_FindEntityByClassname
EXTRN	?UTIL_FindEntityByTargetname@@YAPAVCBaseEntity@@PAV1@PBD@Z:PROC ; UTIL_FindEntityByTargetname
EXTRN	?UTIL_PlayerByIndex@@YAPAVCBaseEntity@@H@Z:PROC	; UTIL_PlayerByIndex
EXTRN	?UTIL_MakeVectors@@YAXABVVector@@@Z:PROC	; UTIL_MakeVectors
EXTRN	?UTIL_SetOrigin@@YAXPAVCBaseEntity@@ABVVector@@@Z:PROC ; UTIL_SetOrigin
EXTRN	?UTIL_ScreenShakeLocal@@YAXPAVCBaseEntity@@ABVVector@@MMMM_N@Z:PROC ; UTIL_ScreenShakeLocal
EXTRN	?UTIL_ShowMessage@@YAXPBDPAVCBaseEntity@@@Z:PROC ; UTIL_ShowMessage
EXTRN	?UTIL_ScreenFade@@YAXPAVCBaseEntity@@ABVVector@@MMHH@Z:PROC ; UTIL_ScreenFade
EXTRN	?UTIL_FireTargets@@YAXPBDPAVCBaseEntity@@1W4USE_TYPE@@M@Z:PROC ; UTIL_FireTargets
EXTRN	?UTIL_TraceLine@@YAXABVVector@@0W4IGNORE_MONSTERS@@PAUedict_s@@PAUgametrace_s@@@Z:PROC ; UTIL_TraceLine
EXTRN	?UTIL_TraceLine@@YAXABVVector@@0W4IGNORE_MONSTERS@@W4IGNORE_GLASS@@PAUedict_s@@PAUgametrace_s@@@Z:PROC ; UTIL_TraceLine
EXTRN	?UTIL_TraceHull@@YAXABVVector@@0W4IGNORE_MONSTERS@@HPAUedict_s@@PAUgametrace_s@@@Z:PROC ; UTIL_TraceHull
EXTRN	?UTIL_GetGlobalTrace@@YA?AUgametrace_s@@XZ:PROC	; UTIL_GetGlobalTrace
EXTRN	?UTIL_BloodDecalTrace@@YAXPAUgametrace_s@@H@Z:PROC ; UTIL_BloodDecalTrace
EXTRN	?UTIL_BloodStudioDecalTrace@@YAXPAUgametrace_s@@H@Z:PROC ; UTIL_BloodStudioDecalTrace
EXTRN	?UTIL_DecalTrace@@YAXPAUgametrace_s@@H@Z:PROC	; UTIL_DecalTrace
EXTRN	?UTIL_StudioDecalTrace@@YAXPAUgametrace_s@@HH@Z:PROC ; UTIL_StudioDecalTrace
EXTRN	?UTIL_PlayerDecalTrace@@YAXPAUgametrace_s@@HHH@Z:PROC ; UTIL_PlayerDecalTrace
EXTRN	?UTIL_Sparks@@YAXABVVector@@@Z:PROC		; UTIL_Sparks
EXTRN	?UTIL_DoSpark@@YAXPAUentvars_s@@ABVVector@@@Z:PROC ; UTIL_DoSpark
EXTRN	?UTIL_Ricochet@@YAXABVVector@@M@Z:PROC		; UTIL_Ricochet
EXTRN	?UTIL_ClampVectorToBox@@YA?AVVector@@ABV1@0@Z:PROC ; UTIL_ClampVectorToBox
EXTRN	?UTIL_ApproachAngle@@YAMMMM@Z:PROC		; UTIL_ApproachAngle
EXTRN	?UTIL_VarArgs@@YAPADPADZZ:PROC			; UTIL_VarArgs
EXTRN	?UTIL_Bubbles@@YAXVVector@@0H@Z:PROC		; UTIL_Bubbles
EXTRN	?UTIL_ClientPrintAll@@YAXHPBD0000@Z:PROC	; UTIL_ClientPrintAll
EXTRN	?UTIL_HudMessage@@YAXPAVCBaseEntity@@ABUhudtextparms_s@@PBD@Z:PROC ; UTIL_HudMessage
EXTRN	?VecBModelOrigin@@YA?AVVector@@PAUentvars_s@@@Z:PROC ; VecBModelOrigin
EXTRN	?DBG_AssertFunction@@YAXHPBD0H0@Z:PROC		; DBG_AssertFunction
EXTRN	?SENTENCEG_GetIndex@@YAHPBD@Z:PROC		; SENTENCEG_GetIndex
EXTRN	?SENTENCEG_Lookup@@YAHPBDPAD@Z:PROC		; SENTENCEG_Lookup
EXTRN	?EMIT_SOUND_DYN@@YAXPAUedict_s@@HPBDMMHH@Z:PROC	; EMIT_SOUND_DYN
EXTRN	?EMIT_SOUND_SUIT@@YAXPAUedict_s@@PBD@Z:PROC	; EMIT_SOUND_SUIT
EXTRN	?EMIT_GROUPID_SUIT@@YAXPAUedict_s@@H@Z:PROC	; EMIT_GROUPID_SUIT
EXTRN	?EMIT_GROUPNAME_SUIT@@YAXPAUedict_s@@PBD@Z:PROC	; EMIT_GROUPNAME_SUIT
EXTRN	?UTIL_GetModelType@@YA?AW4modtype_t@@H@Z:PROC	; UTIL_GetModelType
EXTRN	?UTIL_FunctionToName@@YAPBDPAUdatamap_s@@PAX@Z:PROC ; UTIL_FunctionToName
EXTRN	?DumpGlobals@CGlobalState@@QAEXXZ:PROC		; CGlobalState::DumpGlobals
EXTRN	??0CMeshDesc@@QAE@XZ:PROC			; CMeshDesc::CMeshDesc
EXTRN	??1CMeshDesc@@QAE@XZ:PROC			; CMeshDesc::~CMeshDesc
EXTRN	?DispatchSpawn@@YAHPAUedict_s@@@Z:PROC		; DispatchSpawn
EXTRN	?DispatchTouch@@YAXPAUedict_s@@0@Z:PROC		; DispatchTouch
EXTRN	?GetDataDescMap@CBaseEntity@@UAEPAUdatamap_s@@XZ:PROC ; CBaseEntity::GetDataDescMap
EXTRN	?SetAbsOrigin@CBaseEntity@@QAEXABVVector@@@Z:PROC ; CBaseEntity::SetAbsOrigin
EXTRN	?GetAbsOrigin@CBaseEntity@@QBEABVVector@@XZ:PROC ; CBaseEntity::GetAbsOrigin
EXTRN	?SetAbsAngles@CBaseEntity@@QAEXABVVector@@@Z:PROC ; CBaseEntity::SetAbsAngles
EXTRN	?GetAbsAngles@CBaseEntity@@QBEABVVector@@XZ:PROC ; CBaseEntity::GetAbsAngles
EXTRN	?GetLocalOrigin@CBaseEntity@@QBEABVVector@@XZ:PROC ; CBaseEntity::GetLocalOrigin
EXTRN	?SetLocalAngles@CBaseEntity@@QAEXABVVector@@@Z:PROC ; CBaseEntity::SetLocalAngles
EXTRN	?GetLocalAngles@CBaseEntity@@QBEABVVector@@XZ:PROC ; CBaseEntity::GetLocalAngles
EXTRN	?SetAbsVelocity@CBaseEntity@@QAEXABVVector@@@Z:PROC ; CBaseEntity::SetAbsVelocity
EXTRN	?GetAbsVelocity@CBaseEntity@@QBEABVVector@@XZ:PROC ; CBaseEntity::GetAbsVelocity
EXTRN	?ApplyAbsVelocityImpulse@CBaseEntity@@QAEXABVVector@@@Z:PROC ; CBaseEntity::ApplyAbsVelocityImpulse
EXTRN	?ReportInfo@CBaseEntity@@QAEXXZ:PROC		; CBaseEntity::ReportInfo
EXTRN	?Save@CBaseEntity@@UAEHAAVCSave@@@Z:PROC	; CBaseEntity::Save
EXTRN	?Restore@CBaseEntity@@UAEHAAVCRestore@@@Z:PROC	; CBaseEntity::Restore
EXTRN	?SetObjectCollisionBox@CBaseEntity@@UAEXXZ:PROC	; CBaseEntity::SetObjectCollisionBox
EXTRN	?SetNextThink@CBaseEntity@@UAEXM@Z:PROC		; CBaseEntity::SetNextThink
EXTRN	?TraceAttack@CBaseEntity@@UAEXPAUentvars_s@@MVVector@@PAUgametrace_s@@H@Z:PROC ; CBaseEntity::TraceAttack
EXTRN	?TakeDamage@CBaseEntity@@UAEHPAUentvars_s@@0MH@Z:PROC ; CBaseEntity::TakeDamage
EXTRN	?TakeHealth@CBaseEntity@@UAEHMH@Z:PROC		; CBaseEntity::TakeHealth
EXTRN	?TakeArmor@CBaseEntity@@UAEHMH@Z:PROC		; CBaseEntity::TakeArmor
EXTRN	?Killed@CBaseEntity@@UAEXPAUentvars_s@@H@Z:PROC	; CBaseEntity::Killed
EXTRN	?TraceBleed@CBaseEntity@@UAEXMVVector@@PAUgametrace_s@@H@Z:PROC ; CBaseEntity::TraceBleed
EXTRN	?DamageDecal@CBaseEntity@@UAEHH@Z:PROC		; CBaseEntity::DamageDecal
EXTRN	?IsInWorld@CBaseEntity@@UAEHH@Z:PROC		; CBaseEntity::IsInWorld
EXTRN	?GetNextTarget@CBaseEntity@@UAEPAV1@XZ:PROC	; CBaseEntity::GetNextTarget
EXTRN	?SUB_Remove@CBaseEntity@@QAEXXZ:PROC		; CBaseEntity::SUB_Remove
EXTRN	?FireBullets@CBaseEntity@@QAEXKVVector@@00MHHMPAUentvars_s@@@Z:PROC ; CBaseEntity::FireBullets
EXTRN	?Intersects@CBaseEntity@@QAEHPAV1@@Z:PROC	; CBaseEntity::Intersects
EXTRN	?Create@CBaseEntity@@SAPAV1@PADABVVector@@1PAUedict_s@@@Z:PROC ; CBaseEntity::Create
EXTRN	?FVisible@CBaseEntity@@UAEHPAV1@@Z:PROC		; CBaseEntity::FVisible
EXTRN	?FVisible@CBaseEntity@@UAEHABVVector@@@Z:PROC	; CBaseEntity::FVisible
EXTRN	?ShouldCollide@CBaseEntity@@UAEHPAV1@@Z:PROC	; CBaseEntity::ShouldCollide
EXTRN	?ClearEffects@CBaseEntity@@UAEXXZ:PROC		; CBaseEntity::ClearEffects
EXTRN	?MakeWaterSplash@CBaseEntity@@QAEXVVector@@0H@Z:PROC ; CBaseEntity::MakeWaterSplash
EXTRN	?KeyValue@CBaseDelay@@UAEXPAUKeyValueData_s@@@Z:PROC ; CBaseDelay::KeyValue
EXTRN	?IsLockedByMaster@CBaseDelay@@QAEHPAVCBaseEntity@@@Z:PROC ; CBaseDelay::IsLockedByMaster
EXTRN	?GetDataDescMap@CBaseDelay@@UAEPAUdatamap_s@@XZ:PROC ; CBaseDelay::GetDataDescMap
EXTRN	?StudioFrameAdvance@CBaseAnimating@@QAEMM@Z:PROC ; CBaseAnimating::StudioFrameAdvance
EXTRN	?StudioGaitFrameAdvance@CBaseAnimating@@QAEMXZ:PROC ; CBaseAnimating::StudioGaitFrameAdvance
EXTRN	?LookupActivity@CBaseAnimating@@QAEHH@Z:PROC	; CBaseAnimating::LookupActivity
EXTRN	?LookupSequence@CBaseAnimating@@QAEHPBD@Z:PROC	; CBaseAnimating::LookupSequence
EXTRN	?ResetSequenceInfo@CBaseAnimating@@QAEXXZ:PROC	; CBaseAnimating::ResetSequenceInfo
EXTRN	?SetBoneController@CBaseAnimating@@QAEMHM@Z:PROC ; CBaseAnimating::SetBoneController
EXTRN	?GetDataDescMap@CBaseAnimating@@UAEPAUdatamap_s@@XZ:PROC ; CBaseAnimating::GetDataDescMap
EXTRN	?KeyValue@CBaseToggle@@UAEXPAUKeyValueData_s@@@Z:PROC ; CBaseToggle::KeyValue
EXTRN	?Restore@CBaseToggle@@UAEHAAVCRestore@@@Z:PROC	; CBaseToggle::Restore
EXTRN	?GetDataDescMap@CBaseToggle@@UAEPAUdatamap_s@@XZ:PROC ; CBaseToggle::GetDataDescMap
EXTRN	?GetState@CBaseToggle@@UAE?AW4STATE@@XZ:PROC	; CBaseToggle::GetState
EXTRN	?MoveDone@CBaseToggle@@UAEXXZ:PROC		; CBaseToggle::MoveDone
EXTRN	?GetDataDescMap@CBaseMonster@@UAEPAUdatamap_s@@XZ:PROC ; CBaseMonster::GetDataDescMap
EXTRN	?KeyValue@CBaseMonster@@UAEXPAUKeyValueData_s@@@Z:PROC ; CBaseMonster::KeyValue
EXTRN	?Restore@CBaseMonster@@UAEHAAVCRestore@@@Z:PROC	; CBaseMonster::Restore
EXTRN	?Look@CBaseMonster@@UAEXH@Z:PROC		; CBaseMonster::Look
EXTRN	?RunAI@CBaseMonster@@UAEXXZ:PROC		; CBaseMonster::RunAI
EXTRN	?ShouldFadeOnDeath@CBaseMonster@@UAEHXZ:PROC	; CBaseMonster::ShouldFadeOnDeath
EXTRN	?ChangeYaw@CBaseMonster@@UAEMH@Z:PROC		; CBaseMonster::ChangeYaw
EXTRN	?VecToYaw@CBaseMonster@@QAEMVVector@@@Z:PROC	; CBaseMonster::VecToYaw
EXTRN	?MonsterThink@CBaseMonster@@UAEXXZ:PROC		; CBaseMonster::MonsterThink
EXTRN	?IRelationship@CBaseMonster@@UAEHPAVCBaseEntity@@@Z:PROC ; CBaseMonster::IRelationship
EXTRN	?MonsterInit@CBaseMonster@@UAEXXZ:PROC		; CBaseMonster::MonsterInit
EXTRN	?MonsterInitDead@CBaseMonster@@UAEXXZ:PROC	; CBaseMonster::MonsterInitDead
EXTRN	?BecomeDead@CBaseMonster@@UAEXXZ:PROC		; CBaseMonster::BecomeDead
EXTRN	?StartMonster@CBaseMonster@@UAEXXZ:PROC		; CBaseMonster::StartMonster
EXTRN	?BestVisibleEnemy@CBaseMonster@@UAEPAVCBaseEntity@@XZ:PROC ; CBaseMonster::BestVisibleEnemy
EXTRN	?FInViewCone@CBaseMonster@@UAEHPAVCBaseEntity@@M@Z:PROC ; CBaseMonster::FInViewCone
EXTRN	?FInViewCone@CBaseMonster@@UAEHPAVVector@@@Z:PROC ; CBaseMonster::FInViewCone
EXTRN	?HandleAnimEvent@CBaseMonster@@UAEXPAUMonsterEvent_t@@@Z:PROC ; CBaseMonster::HandleAnimEvent
EXTRN	?CheckLocalMove@CBaseMonster@@UAEHABVVector@@0PAVCBaseEntity@@PAM@Z:PROC ; CBaseMonster::CheckLocalMove
EXTRN	?Move@CBaseMonster@@UAEXM@Z:PROC		; CBaseMonster::Move
EXTRN	?MoveExecute@CBaseMonster@@UAEXPAVCBaseEntity@@ABVVector@@M@Z:PROC ; CBaseMonster::MoveExecute
EXTRN	?ShouldAdvanceRoute@CBaseMonster@@UAEHM@Z:PROC	; CBaseMonster::ShouldAdvanceRoute
EXTRN	?CheckRangeAttack1@CBaseMonster@@UAEHMM@Z:PROC	; CBaseMonster::CheckRangeAttack1
EXTRN	?CheckRangeAttack2@CBaseMonster@@UAEHMM@Z:PROC	; CBaseMonster::CheckRangeAttack2
EXTRN	?CheckMeleeAttack1@CBaseMonster@@UAEHMM@Z:PROC	; CBaseMonster::CheckMeleeAttack1
EXTRN	?CheckMeleeAttack2@CBaseMonster@@UAEHMM@Z:PROC	; CBaseMonster::CheckMeleeAttack2
EXTRN	?ScheduleFromName@CBaseMonster@@UAEPAUSchedule_t@@PBD@Z:PROC ; CBaseMonster::ScheduleFromName
EXTRN	?StartTask@CBaseMonster@@UAEXPAUTask_t@@@Z:PROC	; CBaseMonster::StartTask
EXTRN	?RunTask@CBaseMonster@@UAEXPAUTask_t@@@Z:PROC	; CBaseMonster::RunTask
EXTRN	?GetScheduleOfType@CBaseMonster@@UAEPAUSchedule_t@@H@Z:PROC ; CBaseMonster::GetScheduleOfType
EXTRN	?GetSchedule@CBaseMonster@@UAEPAUSchedule_t@@XZ:PROC ; CBaseMonster::GetSchedule
EXTRN	?CanPlaySequence@CBaseMonster@@UAEHHH@Z:PROC	; CBaseMonster::CanPlaySequence
EXTRN	?PlaySentence@CBaseMonster@@UAEXPBDMMMH@Z:PROC	; CBaseMonster::PlaySentence
EXTRN	?PlayScriptedSentence@CBaseMonster@@UAEXPBDMMMHPAVCBaseEntity@@H@Z:PROC ; CBaseMonster::PlayScriptedSentence
EXTRN	?SentenceStop@CBaseMonster@@UAEXXZ:PROC		; CBaseMonster::SentenceStop
EXTRN	?GetIdealState@CBaseMonster@@UAE?AW4MONSTERSTATE@@XZ:PROC ; CBaseMonster::GetIdealState
EXTRN	?SetActivity@CBaseMonster@@UAEXW4Activity@@@Z:PROC ; CBaseMonster::SetActivity
EXTRN	?ReportAIState@CBaseMonster@@UAEXXZ:PROC	; CBaseMonster::ReportAIState
EXTRN	?CheckEnemy@CBaseMonster@@UAEHPAVCBaseEntity@@@Z:PROC ; CBaseMonster::CheckEnemy
EXTRN	?FTriangulate@CBaseMonster@@UAEHABVVector@@0MPAVCBaseEntity@@PAV2@@Z:PROC ; CBaseMonster::FTriangulate
EXTRN	?BuildNearestRoute@CBaseMonster@@UAEHVVector@@0MM@Z:PROC ; CBaseMonster::BuildNearestRoute
EXTRN	?FindCover@CBaseMonster@@UAEHVVector@@0MM@Z:PROC ; CBaseMonster::FindCover
EXTRN	?FindRunAway@CBaseMonster@@UAEHVVector@@MM@Z:PROC ; CBaseMonster::FindRunAway
EXTRN	?FCanCheckAttacks@CBaseMonster@@UAEHXZ:PROC	; CBaseMonster::FCanCheckAttacks
EXTRN	?IgnoreConditions@CBaseMonster@@UAEHXZ:PROC	; CBaseMonster::IgnoreConditions
EXTRN	?FValidateHintType@CBaseMonster@@UAEHF@Z:PROC	; CBaseMonster::FValidateHintType
EXTRN	?FCanActiveIdle@CBaseMonster@@UAEHXZ:PROC	; CBaseMonster::FCanActiveIdle
EXTRN	?ISoundMask@CBaseMonster@@UAEHXZ:PROC		; CBaseMonster::ISoundMask
EXTRN	?PBestSound@CBaseMonster@@UAEPAVCSound@@XZ:PROC	; CBaseMonster::PBestSound
EXTRN	?PBestScent@CBaseMonster@@UAEPAVCSound@@XZ:PROC	; CBaseMonster::PBestScent
EXTRN	?FBecomeProne@CBaseMonster@@UAEHXZ:PROC		; CBaseMonster::FBecomeProne
EXTRN	?BarnacleVictimBitten@CBaseMonster@@UAEXPAUentvars_s@@@Z:PROC ; CBaseMonster::BarnacleVictimBitten
EXTRN	?BarnacleVictimReleased@CBaseMonster@@UAEXXZ:PROC ; CBaseMonster::BarnacleVictimReleased
EXTRN	?TraceAttack@CBaseMonster@@UAEXPAUentvars_s@@MVVector@@PAUgametrace_s@@H@Z:PROC ; CBaseMonster::TraceAttack
EXTRN	?GetDeathActivity@CBaseMonster@@UAE?AW4Activity@@XZ:PROC ; CBaseMonster::GetDeathActivity
EXTRN	?Killed@CBaseMonster@@UAEXPAUentvars_s@@H@Z:PROC ; CBaseMonster::Killed
EXTRN	?GibMonster@CBaseMonster@@UAEXXZ:PROC		; CBaseMonster::GibMonster
EXTRN	?DamageDecal@CBaseMonster@@UAEHH@Z:PROC		; CBaseMonster::DamageDecal
EXTRN	?HasHumanGibs@CBaseMonster@@UAEHXZ:PROC		; CBaseMonster::HasHumanGibs
EXTRN	?HasAlienGibs@CBaseMonster@@UAEHXZ:PROC		; CBaseMonster::HasAlienGibs
EXTRN	?FadeMonster@CBaseMonster@@UAEXXZ:PROC		; CBaseMonster::FadeMonster
EXTRN	?GetGunPosition@CBaseMonster@@UAE?AVVector@@XZ:PROC ; CBaseMonster::GetGunPosition
EXTRN	?TakeHealth@CBaseMonster@@UAEHMH@Z:PROC		; CBaseMonster::TakeHealth
EXTRN	?TakeDamage@CBaseMonster@@UAEHPAUentvars_s@@0MH@Z:PROC ; CBaseMonster::TakeDamage
EXTRN	?RadiusDamage@CBaseMonster@@QAEXPAUentvars_s@@0MMHH@Z:PROC ; CBaseMonster::RadiusDamage
EXTRN	?StepSound@CBaseMonster@@UAEXXZ:PROC		; CBaseMonster::StepSound
EXTRN	?ClearEffects@CBaseMonster@@UAEXXZ:PROC		; CBaseMonster::ClearEffects
EXTRN	?CatchButton@CPlayerKeyCatcher@@QAEXPAVCBaseEntity@@HHH@Z:PROC ; CPlayerKeyCatcher::CatchButton
EXTRN	?Observer_HandleButtons@CBasePlayer@@QAEXXZ:PROC ; CBasePlayer::Observer_HandleButtons
EXTRN	?Observer_CheckTarget@CBasePlayer@@QAEXXZ:PROC	; CBasePlayer::Observer_CheckTarget
EXTRN	?Observer_CheckProperties@CBasePlayer@@QAEXXZ:PROC ; CBasePlayer::Observer_CheckProperties
EXTRN	?Instance@CFuncTrackTrain@@SAPAV1@PAUedict_s@@@Z:PROC ; CFuncTrackTrain::Instance
EXTRN	?FindNearestNode@CGraph@@QAEHABVVector@@H@Z:PROC ; CGraph::FindNearestNode
EXTRN	?ShowNodeConnections@CGraph@@QAEXH@Z:PROC	; CGraph::ShowNodeConnections
EXTRN	?BounceTouch@CFlare@@QAEXPAVCBaseEntity@@@Z:PROC ; CFlare::BounceTouch
EXTRN	?Ignite@CFlare@@QAEXXZ:PROC			; CFlare::Ignite
EXTRN	?DeactivateSatchels@@YAXPAVCBasePlayer@@@Z:PROC	; DeactivateSatchels
EXTRN	?PlayClientSound@@YAXPAVCBaseEntity@@HHHVVector@@@Z:PROC ; PlayClientSound
EXTRN	?DestroyItem@CBasePlayerItem@@QAEXXZ:PROC	; CBasePlayerItem::DestroyItem
EXTRN	?CheckRespawn@CBasePlayerItem@@QAEXXZ:PROC	; CBasePlayerItem::CheckRespawn
EXTRN	?AddMultiDamage@@YAXPAUentvars_s@@PAVCBaseEntity@@MH@Z:PROC ; AddMultiDamage
EXTRN	?SpawnBlood@@YAXVVector@@HM@Z:PROC		; SpawnBlood
EXTRN	?Kill@CWeaponBox@@QAEXXZ:PROC			; CWeaponBox::Kill
EXTRN	?PackWeapon@CWeaponBox@@QAEHPAVCBasePlayerItem@@@Z:PROC ; CWeaponBox::PackWeapon
EXTRN	?PackAmmo@CWeaponBox@@QAEHHH@Z:PROC		; CWeaponBox::PackAmmo
EXTRN	?Reset@CSound@@QAEXXZ:PROC			; CSound::Reset
EXTRN	?InsertSound@CSoundEnt@@SAXHABVVector@@HMH@Z:PROC ; CSoundEnt::InsertSound
EXTRN	?SoundPointerForIndex@CSoundEnt@@SAPAVCSound@@H@Z:PROC ; CSoundEnt::SoundPointerForIndex
EXTRN	?ClientSoundIndex@CSoundEnt@@SAHPAUedict_s@@@Z:PROC ; CSoundEnt::ClientSoundIndex
EXTRN	?SpawnRandomGibs@CGib@@SAXPAUentvars_s@@HH@Z:PROC ; CGib::SpawnRandomGibs
EXTRN	?MoveUp@CRope@@QAE_NM@Z:PROC			; CRope::MoveUp
EXTRN	?MoveDown@CRope@@QAE_NM@Z:PROC			; CRope::MoveDown
EXTRN	?GetAttachedObjectsVelocity@CRope@@QBE?AVVector@@XZ:PROC ; CRope::GetAttachedObjectsVelocity
EXTRN	?ApplyForceFromPlayer@CRope@@QAEXABVVector@@@Z:PROC ; CRope::ApplyForceFromPlayer
EXTRN	?DetachObject@CRope@@QAEXXZ:PROC		; CRope::DetachObject
EXTRN	?GetAttachedObjectsPosition@CRope@@QBE?AVVector@@XZ:PROC ; CRope::GetAttachedObjectsPosition
EXTRN	?CopyToBodyQue@@YAXPAVCBaseEntity@@@Z:PROC	; CopyToBodyQue
EXTRN	@__security_check_cookie@4:PROC
EXTRN	___CxxFrameHandler3:PROC
EXTRN	__ftol2_sse:PROC
EXTRN	__Init_thread_epoch:DWORD
EXTRN	?g_vecZero@@3VVector@@B:BYTE			; g_vecZero
EXTRN	?g_engfuncs@@3Uenginefuncs_s@@A:BYTE		; g_engfuncs
EXTRN	??_7type_info@@6B@:QWORD			; type_info::`vftable'
EXTRN	?gpGlobals@@3PAUglobalvars_t@@A:DWORD		; gpGlobals
EXTRN	?g_Language@@3HA:DWORD				; g_Language
EXTRN	?gszallsentencenames@@3PAY0CA@DA:BYTE		; gszallsentencenames
EXTRN	?gGlobalState@@3VCGlobalState@@A:QWORD		; gGlobalState
EXTRN	?WorldPhysic@@3PAVIPhysicLayer@@A:DWORD		; WorldPhysic
EXTRN	?m_DataMap@CBaseMonster@@2Udatamap_s@@A:BYTE	; CBaseMonster::m_DataMap
EXTRN	?g_pWorld@@3PAVCBaseEntity@@A:DWORD		; g_pWorld
EXTRN	?WorldGraph@@3VCGraph@@A:BYTE			; WorldGraph
EXTRN	?ItemInfoArray@CBasePlayerItem@@2PAUItemInfo@@A:BYTE ; CBasePlayerItem::ItemInfoArray
EXTRN	?AmmoInfoArray@CBasePlayerItem@@2PAUAmmoInfo@@A:BYTE ; CBasePlayerItem::AmmoInfoArray
EXTRN	?g_sModelIndexLaser@@3FA:WORD			; g_sModelIndexLaser
EXTRN	?g_sModelIndexMetalGibs@@3FA:WORD		; g_sModelIndexMetalGibs
EXTRN	?g_sBlastTexture@@3FA:WORD			; g_sBlastTexture
EXTRN	?gSkillData@@3Uskilldata_t@@A:BYTE		; gSkillData
EXTRN	?g_iSkillLevel@@3HA:DWORD			; g_iSkillLevel
EXTRN	?g_pGameRules@@3PAVCGameRules@@A:DWORD		; g_pGameRules
EXTRN	?sv_allowhealthbars@@3Ucvar_s@@A:BYTE		; sv_allowhealthbars
EXTRN	?weaponstay@@3Ucvar_s@@A:BYTE			; weaponstay
EXTRN	?forcerespawn@@3Ucvar_s@@A:BYTE			; forcerespawn
EXTRN	?decalfrequency@@3Ucvar_s@@A:BYTE		; decalfrequency
EXTRN	?mp_dash_air@@3Ucvar_s@@A:BYTE			; mp_dash_air
EXTRN	?mp_alwaysgib@@3Ucvar_s@@A:BYTE			; mp_alwaysgib
EXTRN	?bot_show_all_points@@3Ucvar_s@@A:BYTE		; bot_show_all_points
EXTRN	?g_psv_aim@@3PAUcvar_s@@A:DWORD			; g_psv_aim
EXTRN	?g_ulModelIndexPlayer@@3KA:DWORD		; g_ulModelIndexPlayer
EXTRN	?g_fGameOver@@3HA:DWORD				; g_fGameOver
EXTRN	?gDisplayTitle@@3HA:DWORD			; gDisplayTitle
EXTRN	?vWaypoint@@3PAVVector@@A:BYTE			; vWaypoint
EXTRN	?ConnectedPoints@@3PAY04HA:BYTE			; ConnectedPoints
EXTRN	?ConnectionsForPoint@@3PAHA:BYTE		; ConnectionsForPoint
EXTRN	?WaypointsLoaded@@3HA:DWORD			; WaypointsLoaded
EXTRN	?PointFlag@@3PAHA:BYTE				; PointFlag
EXTRN	?sv_regeneration@@3Ucvar_s@@A:BYTE		; sv_regeneration
EXTRN	?g_flWeaponCheat@@3MA:DWORD			; g_flWeaponCheat
EXTRN	___security_cookie:DWORD
EXTRN	__fltused:DWORD
EXTRN	__tls_array:DWORD
EXTRN	__tls_index:DWORD
;	COMDAT ?_OptionsStorage@?1??__local_stdio_printf_options@@9@4_KA
_BSS	SEGMENT
?_OptionsStorage@?1??__local_stdio_printf_options@@9@4_KA DQ 01H DUP (?) ; `__local_stdio_printf_options'::`2'::_OptionsStorage
_BSS	ENDS
_BSS	SEGMENT
?g_DataMapHolder@CBasePlayer_DataDescInit@@3PAUdatamap_s@@A DD 01H DUP (?) ; CBasePlayer_DataDescInit::g_DataMapHolder
?nameHolder@?1???$DataMapInit@VCBasePlayer@@@@YAPAUdatamap_s@@PAVCBasePlayer@@@Z@4VCDatadescGeneratedNameHolder@@A DB 01cH DUP (?) ; `DataMapInit<CBasePlayer>'::`2'::nameHolder
?$TSS0@?1???$DataMapInit@VCBasePlayer@@@@YAPAUdatamap_s@@PAVCBasePlayer@@@Z@4HA DD 01H DUP (?) ; `DataMapInit<CBasePlayer>'::`2'::$TSS0
?$TSS1@?1???$DataMapInit@VCBasePlayer@@@@YAPAUdatamap_s@@PAVCBasePlayer@@@Z@4HA DD 01H DUP (?) ; `DataMapInit<CBasePlayer>'::`2'::$TSS1
?player@@3V?$CEntityFactory@VCBasePlayer@@@@A DD 01H DUP (?) ; player
?forwmove@?1??ManageDrone@CBasePlayer@@QAEXXZ@4HA DD 01H DUP (?) ; `CBasePlayer::ManageDrone'::`2'::forwmove
?sidemove@?1??ManageDrone@CBasePlayer@@QAEXXZ@4HA DD 01H DUP (?) ; `CBasePlayer::ManageDrone'::`2'::sidemove
?upmove@?1??ManageDrone@CBasePlayer@@QAEXXZ@4HA DD 01H DUP (?) ; `CBasePlayer::ManageDrone'::`2'::upmove
?Speed@?1??ManageDrone@CBasePlayer@@QAEXXZ@4MA DD 01H DUP (?) ; `CBasePlayer::ManageDrone'::`2'::Speed
?UpdateTime@?1??ManageDrone@CBasePlayer@@QAEXXZ@4MA DD 01H DUP (?) ; `CBasePlayer::ManageDrone'::`2'::UpdateTime
?DirChange@?1??ManageDrone@CBasePlayer@@QAEXXZ@4MA DD 01H DUP (?) ; `CBasePlayer::ManageDrone'::`2'::DirChange
?currentdir@?1??ManageDrone@CBasePlayer@@QAEXXZ@4VVector@@A DB 0cH DUP (?) ; `CBasePlayer::ManageDrone'::`2'::currentdir
?$TSS0@?1??ManageDrone@CBasePlayer@@QAEXXZ@4HA DD 01H DUP (?) ; `CBasePlayer::ManageDrone'::`2'::$TSS0
_BSS	ENDS
CRT$XCU	SEGMENT
?g_DataMapHolder$initializer$@CBasePlayer_DataDescInit@@3P6AXXZA DD FLAT:??__Eg_DataMapHolder@CBasePlayer_DataDescInit@@YAXXZ ; CBasePlayer_DataDescInit::g_DataMapHolder$initializer$
CRT$XCU	ENDS
;	COMDAT __xmm@80000000800000008000000080000000
CONST	SEGMENT
__xmm@80000000800000008000000080000000 DB 00H, 00H, 00H, 080H, 00H, 00H, 00H
	DB	080H, 00H, 00H, 00H, 080H, 00H, 00H, 00H, 080H
CONST	ENDS
;	COMDAT __real@c3480000
CONST	SEGMENT
__real@c3480000 DD 0c3480000r			; -200
CONST	ENDS
;	COMDAT __real@c3340000
CONST	SEGMENT
__real@c3340000 DD 0c3340000r			; -180
CONST	ENDS
;	COMDAT __real@c2c80000
CONST	SEGMENT
__real@c2c80000 DD 0c2c80000r			; -100
CONST	ENDS
;	COMDAT __real@c2480000
CONST	SEGMENT
__real@c2480000 DD 0c2480000r			; -50
CONST	ENDS
;	COMDAT __real@c2200000
CONST	SEGMENT
__real@c2200000 DD 0c2200000r			; -40
CONST	ENDS
;	COMDAT __real@c2180000
CONST	SEGMENT
__real@c2180000 DD 0c2180000r			; -38
CONST	ENDS
;	COMDAT __real@c2100000
CONST	SEGMENT
__real@c2100000 DD 0c2100000r			; -36
CONST	ENDS
;	COMDAT __real@c1c80000
CONST	SEGMENT
__real@c1c80000 DD 0c1c80000r			; -25
CONST	ENDS
;	COMDAT __real@c1900000
CONST	SEGMENT
__real@c1900000 DD 0c1900000r			; -18
CONST	ENDS
;	COMDAT __real@c1800000
CONST	SEGMENT
__real@c1800000 DD 0c1800000r			; -16
CONST	ENDS
;	COMDAT __real@c1700000
CONST	SEGMENT
__real@c1700000 DD 0c1700000r			; -15
CONST	ENDS
;	COMDAT __real@c1400000
CONST	SEGMENT
__real@c1400000 DD 0c1400000r			; -12
CONST	ENDS
;	COMDAT __real@c0000000
CONST	SEGMENT
__real@c0000000 DD 0c0000000r			; -2
CONST	ENDS
;	COMDAT __real@bf800000
CONST	SEGMENT
__real@bf800000 DD 0bf800000r			; -1
CONST	ENDS
;	COMDAT __real@46000000
CONST	SEGMENT
__real@46000000 DD 046000000r			; 8192
CONST	ENDS
;	COMDAT __real@45800000
CONST	SEGMENT
__real@45800000 DD 045800000r			; 4096
CONST	ENDS
;	COMDAT __real@453b8000
CONST	SEGMENT
__real@453b8000 DD 0453b8000r			; 3000
CONST	ENDS
;	COMDAT __real@45000000
CONST	SEGMENT
__real@45000000 DD 045000000r			; 2048
CONST	ENDS
;	COMDAT __real@44960000
CONST	SEGMENT
__real@44960000 DD 044960000r			; 1200
CONST	ENDS
;	COMDAT __real@44800000
CONST	SEGMENT
__real@44800000 DD 044800000r			; 1024
CONST	ENDS
;	COMDAT __real@447a0000
CONST	SEGMENT
__real@447a0000 DD 0447a0000r			; 1000
CONST	ENDS
;	COMDAT __real@44440000
CONST	SEGMENT
__real@44440000 DD 044440000r			; 784
CONST	ENDS
;	COMDAT __real@44268000
CONST	SEGMENT
__real@44268000 DD 044268000r			; 666
CONST	ENDS
;	COMDAT __real@44030000
CONST	SEGMENT
__real@44030000 DD 044030000r			; 524
CONST	ENDS
;	COMDAT __real@44000000
CONST	SEGMENT
__real@44000000 DD 044000000r			; 512
CONST	ENDS
;	COMDAT __real@43fa0000
CONST	SEGMENT
__real@43fa0000 DD 043fa0000r			; 500
CONST	ENDS
;	COMDAT __real@43c80000
CONST	SEGMENT
__real@43c80000 DD 043c80000r			; 400
CONST	ENDS
;	COMDAT __real@43b40000
CONST	SEGMENT
__real@43b40000 DD 043b40000r			; 360
CONST	ENDS
;	COMDAT __real@43af0000
CONST	SEGMENT
__real@43af0000 DD 043af0000r			; 350
CONST	ENDS
;	COMDAT __real@43a00000
CONST	SEGMENT
__real@43a00000 DD 043a00000r			; 320
CONST	ENDS
;	COMDAT __real@43960000
CONST	SEGMENT
__real@43960000 DD 043960000r			; 300
CONST	ENDS
;	COMDAT __real@43910000
CONST	SEGMENT
__real@43910000 DD 043910000r			; 290
CONST	ENDS
;	COMDAT __real@43800000
CONST	SEGMENT
__real@43800000 DD 043800000r			; 256
CONST	ENDS
;	COMDAT __real@437f0000
CONST	SEGMENT
__real@437f0000 DD 0437f0000r			; 255
CONST	ENDS
;	COMDAT __real@437a0000
CONST	SEGMENT
__real@437a0000 DD 0437a0000r			; 250
CONST	ENDS
;	COMDAT __real@43610000
CONST	SEGMENT
__real@43610000 DD 043610000r			; 225
CONST	ENDS
;	COMDAT __real@43480000
CONST	SEGMENT
__real@43480000 DD 043480000r			; 200
CONST	ENDS
;	COMDAT __real@43340000
CONST	SEGMENT
__real@43340000 DD 043340000r			; 180
CONST	ENDS
;	COMDAT __real@43250000
CONST	SEGMENT
__real@43250000 DD 043250000r			; 165
CONST	ENDS
;	COMDAT __real@43160000
CONST	SEGMENT
__real@43160000 DD 043160000r			; 150
CONST	ENDS
;	COMDAT __real@43020000
CONST	SEGMENT
__real@43020000 DD 043020000r			; 130
CONST	ENDS
;	COMDAT __real@43000000
CONST	SEGMENT
__real@43000000 DD 043000000r			; 128
CONST	ENDS
;	COMDAT __real@42f00000
CONST	SEGMENT
__real@42f00000 DD 042f00000r			; 120
CONST	ENDS
;	COMDAT __real@42dc0000
CONST	SEGMENT
__real@42dc0000 DD 042dc0000r			; 110
CONST	ENDS
;	COMDAT __real@42c80000
CONST	SEGMENT
__real@42c80000 DD 042c80000r			; 100
CONST	ENDS
;	COMDAT __real@42b40000
CONST	SEGMENT
__real@42b40000 DD 042b40000r			; 90
CONST	ENDS
;	COMDAT __real@42a00000
CONST	SEGMENT
__real@42a00000 DD 042a00000r			; 80
CONST	ENDS
;	COMDAT __real@42960000
CONST	SEGMENT
__real@42960000 DD 042960000r			; 75
CONST	ENDS
;	COMDAT __real@42800000
CONST	SEGMENT
__real@42800000 DD 042800000r			; 64
CONST	ENDS
;	COMDAT __real@42700000
CONST	SEGMENT
__real@42700000 DD 042700000r			; 60
CONST	ENDS
;	COMDAT __real@42480000
CONST	SEGMENT
__real@42480000 DD 042480000r			; 50
CONST	ENDS
;	COMDAT __real@42340000
CONST	SEGMENT
__real@42340000 DD 042340000r			; 45
CONST	ENDS
;	COMDAT __real@42100000
CONST	SEGMENT
__real@42100000 DD 042100000r			; 36
CONST	ENDS
;	COMDAT __real@42000000
CONST	SEGMENT
__real@42000000 DD 042000000r			; 32
CONST	ENDS
;	COMDAT __real@41f00000
CONST	SEGMENT
__real@41f00000 DD 041f00000r			; 30
CONST	ENDS
;	COMDAT __real@41e00000
CONST	SEGMENT
__real@41e00000 DD 041e00000r			; 28
CONST	ENDS
;	COMDAT __real@41d80000
CONST	SEGMENT
__real@41d80000 DD 041d80000r			; 27
CONST	ENDS
;	COMDAT __real@41c80000
CONST	SEGMENT
__real@41c80000 DD 041c80000r			; 25
CONST	ENDS
;	COMDAT __real@41a00000
CONST	SEGMENT
__real@41a00000 DD 041a00000r			; 20
CONST	ENDS
;	COMDAT __real@41900000
CONST	SEGMENT
__real@41900000 DD 041900000r			; 18
CONST	ENDS
;	COMDAT __real@418c0000
CONST	SEGMENT
__real@418c0000 DD 0418c0000r			; 17.5
CONST	ENDS
;	COMDAT __real@41880000
CONST	SEGMENT
__real@41880000 DD 041880000r			; 17
CONST	ENDS
;	COMDAT __real@41800000
CONST	SEGMENT
__real@41800000 DD 041800000r			; 16
CONST	ENDS
;	COMDAT __real@41700000
CONST	SEGMENT
__real@41700000 DD 041700000r			; 15
CONST	ENDS
;	COMDAT __real@41400000
CONST	SEGMENT
__real@41400000 DD 041400000r			; 12
CONST	ENDS
;	COMDAT __real@41200000
CONST	SEGMENT
__real@41200000 DD 041200000r			; 10
CONST	ENDS
;	COMDAT __real@41100000
CONST	SEGMENT
__real@41100000 DD 041100000r			; 9
CONST	ENDS
;	COMDAT __real@41000000
CONST	SEGMENT
__real@41000000 DD 041000000r			; 8
CONST	ENDS
;	COMDAT __real@40c00000
CONST	SEGMENT
__real@40c00000 DD 040c00000r			; 6
CONST	ENDS
;	COMDAT __real@40a00000
CONST	SEGMENT
__real@40a00000 DD 040a00000r			; 5
CONST	ENDS
;	COMDAT __real@4087700000000000
CONST	SEGMENT
__real@4087700000000000 DQ 04087700000000000r	; 750
CONST	ENDS
;	COMDAT __real@40800000
CONST	SEGMENT
__real@40800000 DD 040800000r			; 4
CONST	ENDS
;	COMDAT __real@4049000000000000
CONST	SEGMENT
__real@4049000000000000 DQ 04049000000000000r	; 50
CONST	ENDS
;	COMDAT __real@40400000
CONST	SEGMENT
__real@40400000 DD 040400000r			; 3
CONST	ENDS
;	COMDAT __real@400c000000000000
CONST	SEGMENT
__real@400c000000000000 DQ 0400c000000000000r	; 3.5
CONST	ENDS
;	COMDAT __real@4000000000000000
CONST	SEGMENT
__real@4000000000000000 DQ 04000000000000000r	; 2
CONST	ENDS
;	COMDAT __real@40000000
CONST	SEGMENT
__real@40000000 DD 040000000r			; 2
CONST	ENDS
;	COMDAT __real@3ff8000000000000
CONST	SEGMENT
__real@3ff8000000000000 DQ 03ff8000000000000r	; 1.5
CONST	ENDS
;	COMDAT __real@3ff2666666666666
CONST	SEGMENT
__real@3ff2666666666666 DQ 03ff2666666666666r	; 1.15
CONST	ENDS
;	COMDAT __real@3ff199999999999a
CONST	SEGMENT
__real@3ff199999999999a DQ 03ff199999999999ar	; 1.1
CONST	ENDS
;	COMDAT __real@3ff0000000000000
CONST	SEGMENT
__real@3ff0000000000000 DQ 03ff0000000000000r	; 1
CONST	ENDS
;	COMDAT __real@3fe8000000000000
CONST	SEGMENT
__real@3fe8000000000000 DQ 03fe8000000000000r	; 0.75
CONST	ENDS
;	COMDAT __real@3fe51eb851eb851f
CONST	SEGMENT
__real@3fe51eb851eb851f DQ 03fe51eb851eb851fr	; 0.66
CONST	ENDS
;	COMDAT __real@3fe3333333333333
CONST	SEGMENT
__real@3fe3333333333333 DQ 03fe3333333333333r	; 0.6
CONST	ENDS
;	COMDAT __real@3fe0000000000000
CONST	SEGMENT
__real@3fe0000000000000 DQ 03fe0000000000000r	; 0.5
CONST	ENDS
;	COMDAT __real@3fd999999999999a
CONST	SEGMENT
__real@3fd999999999999a DQ 03fd999999999999ar	; 0.4
CONST	ENDS
;	COMDAT __real@3fd51eb851eb851f
CONST	SEGMENT
__real@3fd51eb851eb851f DQ 03fd51eb851eb851fr	; 0.33
CONST	ENDS
;	COMDAT __real@3fd0000000000000
CONST	SEGMENT
__real@3fd0000000000000 DQ 03fd0000000000000r	; 0.25
CONST	ENDS
;	COMDAT __real@3fc999999999999a
CONST	SEGMENT
__real@3fc999999999999a DQ 03fc999999999999ar	; 0.2
CONST	ENDS
;	COMDAT __real@3fc3333333333333
CONST	SEGMENT
__real@3fc3333333333333 DQ 03fc3333333333333r	; 0.15
CONST	ENDS
;	COMDAT __real@3fc00000
CONST	SEGMENT
__real@3fc00000 DD 03fc00000r			; 1.5
CONST	ENDS
;	COMDAT __real@3fb999999999999a
CONST	SEGMENT
__real@3fb999999999999a DQ 03fb999999999999ar	; 0.1
CONST	ENDS
;	COMDAT __real@3fa47ae147ae147b
CONST	SEGMENT
__real@3fa47ae147ae147b DQ 03fa47ae147ae147br	; 0.04
CONST	ENDS
;	COMDAT __real@3f99999a
CONST	SEGMENT
__real@3f99999a DD 03f99999ar			; 1.2
CONST	ENDS
;	COMDAT __real@3f8ccccd
CONST	SEGMENT
__real@3f8ccccd DD 03f8ccccdr			; 1.1
CONST	ENDS
;	COMDAT __real@3f847ae147ae147b
CONST	SEGMENT
__real@3f847ae147ae147b DQ 03f847ae147ae147br	; 0.01
CONST	ENDS
;	COMDAT __real@3f800000
CONST	SEGMENT
__real@3f800000 DD 03f800000r			; 1
CONST	ENDS
;	COMDAT __real@3f666666
CONST	SEGMENT
__real@3f666666 DD 03f666666r			; 0.9
CONST	ENDS
;	COMDAT __real@3f4ccccd
CONST	SEGMENT
__real@3f4ccccd DD 03f4ccccdr			; 0.8
CONST	ENDS
;	COMDAT __real@3f400000
CONST	SEGMENT
__real@3f400000 DD 03f400000r			; 0.75
CONST	ENDS
;	COMDAT __real@3f333333
CONST	SEGMENT
__real@3f333333 DD 03f333333r			; 0.7
CONST	ENDS
;	COMDAT __real@3f2b851f
CONST	SEGMENT
__real@3f2b851f DD 03f2b851fr			; 0.67
CONST	ENDS
;	COMDAT __real@3f000000
CONST	SEGMENT
__real@3f000000 DD 03f000000r			; 0.5
CONST	ENDS
;	COMDAT __real@3ecccccd
CONST	SEGMENT
__real@3ecccccd DD 03ecccccdr			; 0.4
CONST	ENDS
;	COMDAT __real@3ea8f5c3
CONST	SEGMENT
__real@3ea8f5c3 DD 03ea8f5c3r			; 0.33
CONST	ENDS
;	COMDAT __real@3e99999a
CONST	SEGMENT
__real@3e99999a DD 03e99999ar			; 0.3
CONST	ENDS
;	COMDAT __real@3e800000
CONST	SEGMENT
__real@3e800000 DD 03e800000r			; 0.25
CONST	ENDS
;	COMDAT __real@3e4ccccd
CONST	SEGMENT
__real@3e4ccccd DD 03e4ccccdr			; 0.2
CONST	ENDS
;	COMDAT __real@3dcccccd
CONST	SEGMENT
__real@3dcccccd DD 03dcccccdr			; 0.1
CONST	ENDS
;	COMDAT __real@3cd67770
CONST	SEGMENT
__real@3cd67770 DD 03cd67770r			; 0.02618
CONST	ENDS
;	COMDAT __real@3cd013a9
CONST	SEGMENT
__real@3cd013a9 DD 03cd013a9r			; 0.0254
CONST	ENDS
;	COMDAT __real@3c23d70a
CONST	SEGMENT
__real@3c23d70a DD 03c23d70ar			; 0.01
CONST	ENDS
;	COMDAT __real@0000000000000000
CONST	SEGMENT
__real@0000000000000000 DQ 00000000000000000r	; 0
CONST	ENDS
;	COMDAT __real@00000000
CONST	SEGMENT
__real@00000000 DD 000000000r			; 0
CONST	ENDS
;	COMDAT ??_R1A@?0A@EA@CBloodSplat@@8
rdata$r	SEGMENT
??_R1A@?0A@EA@CBloodSplat@@8 DD FLAT:??_R0?AVCBloodSplat@@@8 ; CBloodSplat::`RTTI Base Class Descriptor at (0,-1,0,64)'
	DD	01H
	DD	00H
	DD	0ffffffffH
	DD	00H
	DD	040H
	DD	FLAT:??_R3CBloodSplat@@8
rdata$r	ENDS
;	COMDAT ??_R2CBloodSplat@@8
rdata$r	SEGMENT
??_R2CBloodSplat@@8 DD FLAT:??_R1A@?0A@EA@CBloodSplat@@8 ; CBloodSplat::`RTTI Base Class Array'
	DD	FLAT:??_R1A@?0A@EA@CBaseEntity@@8
rdata$r	ENDS
;	COMDAT ??_R3CBloodSplat@@8
rdata$r	SEGMENT
??_R3CBloodSplat@@8 DD 00H				; CBloodSplat::`RTTI Class Hierarchy Descriptor'
	DD	00H
	DD	02H
	DD	FLAT:??_R2CBloodSplat@@8
rdata$r	ENDS
;	COMDAT ??_R0?AVCBloodSplat@@@8
data$r	SEGMENT
??_R0?AVCBloodSplat@@@8 DD FLAT:??_7type_info@@6B@	; CBloodSplat `RTTI Type Descriptor'
	DD	00H
	DB	'.?AVCBloodSplat@@', 00H
data$r	ENDS
;	COMDAT ??_R4CBloodSplat@@6B@
rdata$r	SEGMENT
??_R4CBloodSplat@@6B@ DD 00H				; CBloodSplat::`RTTI Complete Object Locator'
	DD	00H
	DD	00H
	DD	FLAT:??_R0?AVCBloodSplat@@@8
	DD	FLAT:??_R3CBloodSplat@@8
rdata$r	ENDS
;	COMDAT ??_R1A@?0A@EA@CSprayCan@@8
rdata$r	SEGMENT
??_R1A@?0A@EA@CSprayCan@@8 DD FLAT:??_R0?AVCSprayCan@@@8 ; CSprayCan::`RTTI Base Class Descriptor at (0,-1,0,64)'
	DD	01H
	DD	00H
	DD	0ffffffffH
	DD	00H
	DD	040H
	DD	FLAT:??_R3CSprayCan@@8
rdata$r	ENDS
;	COMDAT ??_R2CSprayCan@@8
rdata$r	SEGMENT
??_R2CSprayCan@@8 DD FLAT:??_R1A@?0A@EA@CSprayCan@@8	; CSprayCan::`RTTI Base Class Array'
	DD	FLAT:??_R1A@?0A@EA@CBaseEntity@@8
rdata$r	ENDS
;	COMDAT ??_R3CSprayCan@@8
rdata$r	SEGMENT
??_R3CSprayCan@@8 DD 00H				; CSprayCan::`RTTI Class Hierarchy Descriptor'
	DD	00H
	DD	02H
	DD	FLAT:??_R2CSprayCan@@8
rdata$r	ENDS
;	COMDAT ??_R0?AVCSprayCan@@@8
data$r	SEGMENT
??_R0?AVCSprayCan@@@8 DD FLAT:??_7type_info@@6B@	; CSprayCan `RTTI Type Descriptor'
	DD	00H
	DB	'.?AVCSprayCan@@', 00H
data$r	ENDS
;	COMDAT ??_R4CSprayCan@@6B@
rdata$r	SEGMENT
??_R4CSprayCan@@6B@ DD 00H				; CSprayCan::`RTTI Complete Object Locator'
	DD	00H
	DD	00H
	DD	FLAT:??_R0?AVCSprayCan@@@8
	DD	FLAT:??_R3CSprayCan@@8
rdata$r	ENDS
;	COMDAT ??_R1A@?0A@EA@?$CEntityFactory@VCBasePlayer@@@@8
rdata$r	SEGMENT
??_R1A@?0A@EA@?$CEntityFactory@VCBasePlayer@@@@8 DD FLAT:??_R0?AV?$CEntityFactory@VCBasePlayer@@@@@8 ; CEntityFactory<CBasePlayer>::`RTTI Base Class Descriptor at (0,-1,0,64)'
	DD	01H
	DD	00H
	DD	0ffffffffH
	DD	00H
	DD	040H
	DD	FLAT:??_R3?$CEntityFactory@VCBasePlayer@@@@8
rdata$r	ENDS
;	COMDAT ??_R2?$CEntityFactory@VCBasePlayer@@@@8
rdata$r	SEGMENT
??_R2?$CEntityFactory@VCBasePlayer@@@@8 DD FLAT:??_R1A@?0A@EA@?$CEntityFactory@VCBasePlayer@@@@8 ; CEntityFactory<CBasePlayer>::`RTTI Base Class Array'
	DD	FLAT:??_R1A@?0A@EA@IEntityFactory@@8
rdata$r	ENDS
;	COMDAT ??_R3?$CEntityFactory@VCBasePlayer@@@@8
rdata$r	SEGMENT
??_R3?$CEntityFactory@VCBasePlayer@@@@8 DD 00H		; CEntityFactory<CBasePlayer>::`RTTI Class Hierarchy Descriptor'
	DD	00H
	DD	02H
	DD	FLAT:??_R2?$CEntityFactory@VCBasePlayer@@@@8
rdata$r	ENDS
;	COMDAT ??_R0?AV?$CEntityFactory@VCBasePlayer@@@@@8
data$r	SEGMENT
??_R0?AV?$CEntityFactory@VCBasePlayer@@@@@8 DD FLAT:??_7type_info@@6B@ ; CEntityFactory<CBasePlayer> `RTTI Type Descriptor'
	DD	00H
	DB	'.?AV?$CEntityFactory@VCBasePlayer@@@@', 00H
data$r	ENDS
;	COMDAT ??_R4?$CEntityFactory@VCBasePlayer@@@@6B@
rdata$r	SEGMENT
??_R4?$CEntityFactory@VCBasePlayer@@@@6B@ DD 00H	; CEntityFactory<CBasePlayer>::`RTTI Complete Object Locator'
	DD	00H
	DD	00H
	DD	FLAT:??_R0?AV?$CEntityFactory@VCBasePlayer@@@@@8
	DD	FLAT:??_R3?$CEntityFactory@VCBasePlayer@@@@8
rdata$r	ENDS
;	COMDAT ??_R4CBaseToggle@@6B@
rdata$r	SEGMENT
??_R4CBaseToggle@@6B@ DD 00H				; CBaseToggle::`RTTI Complete Object Locator'
	DD	00H
	DD	00H
	DD	FLAT:??_R0?AVCBaseToggle@@@8
	DD	FLAT:??_R3CBaseToggle@@8
rdata$r	ENDS
;	COMDAT ??_R4CBaseAnimating@@6B@
rdata$r	SEGMENT
??_R4CBaseAnimating@@6B@ DD 00H				; CBaseAnimating::`RTTI Complete Object Locator'
	DD	00H
	DD	00H
	DD	FLAT:??_R0?AVCBaseAnimating@@@8
	DD	FLAT:??_R3CBaseAnimating@@8
rdata$r	ENDS
;	COMDAT ??_R4CBaseDelay@@6B@
rdata$r	SEGMENT
??_R4CBaseDelay@@6B@ DD 00H				; CBaseDelay::`RTTI Complete Object Locator'
	DD	00H
	DD	00H
	DD	FLAT:??_R0?AVCBaseDelay@@@8
	DD	FLAT:??_R3CBaseDelay@@8
rdata$r	ENDS
;	COMDAT ??_R4CBaseMonster@@6B@
rdata$r	SEGMENT
??_R4CBaseMonster@@6B@ DD 00H				; CBaseMonster::`RTTI Complete Object Locator'
	DD	00H
	DD	00H
	DD	FLAT:??_R0?AVCBaseMonster@@@8
	DD	FLAT:??_R3CBaseMonster@@8
rdata$r	ENDS
;	COMDAT ??_R2CBaseDelay@@8
rdata$r	SEGMENT
??_R2CBaseDelay@@8 DD FLAT:??_R1A@?0A@EA@CBaseDelay@@8	; CBaseDelay::`RTTI Base Class Array'
	DD	FLAT:??_R1A@?0A@EA@CBaseEntity@@8
rdata$r	ENDS
;	COMDAT ??_R3CBaseDelay@@8
rdata$r	SEGMENT
??_R3CBaseDelay@@8 DD 00H				; CBaseDelay::`RTTI Class Hierarchy Descriptor'
	DD	00H
	DD	02H
	DD	FLAT:??_R2CBaseDelay@@8
rdata$r	ENDS
;	COMDAT ??_R0?AVCBaseDelay@@@8
data$r	SEGMENT
??_R0?AVCBaseDelay@@@8 DD FLAT:??_7type_info@@6B@	; CBaseDelay `RTTI Type Descriptor'
	DD	00H
	DB	'.?AVCBaseDelay@@', 00H
data$r	ENDS
;	COMDAT ??_R1A@?0A@EA@CBaseDelay@@8
rdata$r	SEGMENT
??_R1A@?0A@EA@CBaseDelay@@8 DD FLAT:??_R0?AVCBaseDelay@@@8 ; CBaseDelay::`RTTI Base Class Descriptor at (0,-1,0,64)'
	DD	01H
	DD	00H
	DD	0ffffffffH
	DD	00H
	DD	040H
	DD	FLAT:??_R3CBaseDelay@@8
rdata$r	ENDS
;	COMDAT ??_R2CBaseAnimating@@8
rdata$r	SEGMENT
??_R2CBaseAnimating@@8 DD FLAT:??_R1A@?0A@EA@CBaseAnimating@@8 ; CBaseAnimating::`RTTI Base Class Array'
	DD	FLAT:??_R1A@?0A@EA@CBaseDelay@@8
	DD	FLAT:??_R1A@?0A@EA@CBaseEntity@@8
rdata$r	ENDS
;	COMDAT ??_R3CBaseAnimating@@8
rdata$r	SEGMENT
??_R3CBaseAnimating@@8 DD 00H				; CBaseAnimating::`RTTI Class Hierarchy Descriptor'
	DD	00H
	DD	03H
	DD	FLAT:??_R2CBaseAnimating@@8
rdata$r	ENDS
;	COMDAT ??_R0?AVCBaseAnimating@@@8
data$r	SEGMENT
??_R0?AVCBaseAnimating@@@8 DD FLAT:??_7type_info@@6B@	; CBaseAnimating `RTTI Type Descriptor'
	DD	00H
	DB	'.?AVCBaseAnimating@@', 00H
data$r	ENDS
;	COMDAT ??_R1A@?0A@EA@CBaseAnimating@@8
rdata$r	SEGMENT
??_R1A@?0A@EA@CBaseAnimating@@8 DD FLAT:??_R0?AVCBaseAnimating@@@8 ; CBaseAnimating::`RTTI Base Class Descriptor at (0,-1,0,64)'
	DD	02H
	DD	00H
	DD	0ffffffffH
	DD	00H
	DD	040H
	DD	FLAT:??_R3CBaseAnimating@@8
rdata$r	ENDS
;	COMDAT ??_R2CBaseToggle@@8
rdata$r	SEGMENT
??_R2CBaseToggle@@8 DD FLAT:??_R1A@?0A@EA@CBaseToggle@@8 ; CBaseToggle::`RTTI Base Class Array'
	DD	FLAT:??_R1A@?0A@EA@CBaseAnimating@@8
	DD	FLAT:??_R1A@?0A@EA@CBaseDelay@@8
	DD	FLAT:??_R1A@?0A@EA@CBaseEntity@@8
rdata$r	ENDS
;	COMDAT ??_R3CBaseToggle@@8
rdata$r	SEGMENT
??_R3CBaseToggle@@8 DD 00H				; CBaseToggle::`RTTI Class Hierarchy Descriptor'
	DD	00H
	DD	04H
	DD	FLAT:??_R2CBaseToggle@@8
rdata$r	ENDS
;	COMDAT ??_R0?AVCBaseToggle@@@8
data$r	SEGMENT
??_R0?AVCBaseToggle@@@8 DD FLAT:??_7type_info@@6B@	; CBaseToggle `RTTI Type Descriptor'
	DD	00H
	DB	'.?AVCBaseToggle@@', 00H
data$r	ENDS
;	COMDAT ??_R1A@?0A@EA@CBaseToggle@@8
rdata$r	SEGMENT
??_R1A@?0A@EA@CBaseToggle@@8 DD FLAT:??_R0?AVCBaseToggle@@@8 ; CBaseToggle::`RTTI Base Class Descriptor at (0,-1,0,64)'
	DD	03H
	DD	00H
	DD	0ffffffffH
	DD	00H
	DD	040H
	DD	FLAT:??_R3CBaseToggle@@8
rdata$r	ENDS
;	COMDAT ??_R2CBaseMonster@@8
rdata$r	SEGMENT
??_R2CBaseMonster@@8 DD FLAT:??_R1A@?0A@EA@CBaseMonster@@8 ; CBaseMonster::`RTTI Base Class Array'
	DD	FLAT:??_R1A@?0A@EA@CBaseToggle@@8
	DD	FLAT:??_R1A@?0A@EA@CBaseAnimating@@8
	DD	FLAT:??_R1A@?0A@EA@CBaseDelay@@8
	DD	FLAT:??_R1A@?0A@EA@CBaseEntity@@8
rdata$r	ENDS
;	COMDAT ??_R3CBaseMonster@@8
rdata$r	SEGMENT
??_R3CBaseMonster@@8 DD 00H				; CBaseMonster::`RTTI Class Hierarchy Descriptor'
	DD	00H
	DD	05H
	DD	FLAT:??_R2CBaseMonster@@8
rdata$r	ENDS
;	COMDAT ??_R0?AVCBaseMonster@@@8
data$r	SEGMENT
??_R0?AVCBaseMonster@@@8 DD FLAT:??_7type_info@@6B@	; CBaseMonster `RTTI Type Descriptor'
	DD	00H
	DB	'.?AVCBaseMonster@@', 00H
data$r	ENDS
;	COMDAT ??_R1A@?0A@EA@CBaseMonster@@8
rdata$r	SEGMENT
??_R1A@?0A@EA@CBaseMonster@@8 DD FLAT:??_R0?AVCBaseMonster@@@8 ; CBaseMonster::`RTTI Base Class Descriptor at (0,-1,0,64)'
	DD	04H
	DD	00H
	DD	0ffffffffH
	DD	00H
	DD	040H
	DD	FLAT:??_R3CBaseMonster@@8
rdata$r	ENDS
;	COMDAT ??_R1A@?0A@EA@CBasePlayer@@8
rdata$r	SEGMENT
??_R1A@?0A@EA@CBasePlayer@@8 DD FLAT:??_R0?AVCBasePlayer@@@8 ; CBasePlayer::`RTTI Base Class Descriptor at (0,-1,0,64)'
	DD	05H
	DD	00H
	DD	0ffffffffH
	DD	00H
	DD	040H
	DD	FLAT:??_R3CBasePlayer@@8
rdata$r	ENDS
;	COMDAT ??_R2CBasePlayer@@8
rdata$r	SEGMENT
??_R2CBasePlayer@@8 DD FLAT:??_R1A@?0A@EA@CBasePlayer@@8 ; CBasePlayer::`RTTI Base Class Array'
	DD	FLAT:??_R1A@?0A@EA@CBaseMonster@@8
	DD	FLAT:??_R1A@?0A@EA@CBaseToggle@@8
	DD	FLAT:??_R1A@?0A@EA@CBaseAnimating@@8
	DD	FLAT:??_R1A@?0A@EA@CBaseDelay@@8
	DD	FLAT:??_R1A@?0A@EA@CBaseEntity@@8
rdata$r	ENDS
;	COMDAT ??_R3CBasePlayer@@8
rdata$r	SEGMENT
??_R3CBasePlayer@@8 DD 00H				; CBasePlayer::`RTTI Class Hierarchy Descriptor'
	DD	00H
	DD	06H
	DD	FLAT:??_R2CBasePlayer@@8
rdata$r	ENDS
;	COMDAT ??_R0?AVCBasePlayer@@@8
data$r	SEGMENT
??_R0?AVCBasePlayer@@@8 DD FLAT:??_7type_info@@6B@	; CBasePlayer `RTTI Type Descriptor'
	DD	00H
	DB	'.?AVCBasePlayer@@', 00H
data$r	ENDS
;	COMDAT ??_R4CBasePlayer@@6B@
rdata$r	SEGMENT
??_R4CBasePlayer@@6B@ DD 00H				; CBasePlayer::`RTTI Complete Object Locator'
	DD	00H
	DD	00H
	DD	FLAT:??_R0?AVCBasePlayer@@@8
	DD	FLAT:??_R3CBasePlayer@@8
rdata$r	ENDS
;	COMDAT ??_R1A@?0A@EA@IEntityFactory@@8
rdata$r	SEGMENT
??_R1A@?0A@EA@IEntityFactory@@8 DD FLAT:??_R0?AVIEntityFactory@@@8 ; IEntityFactory::`RTTI Base Class Descriptor at (0,-1,0,64)'
	DD	00H
	DD	00H
	DD	0ffffffffH
	DD	00H
	DD	040H
	DD	FLAT:??_R3IEntityFactory@@8
rdata$r	ENDS
;	COMDAT ??_R2IEntityFactory@@8
rdata$r	SEGMENT
??_R2IEntityFactory@@8 DD FLAT:??_R1A@?0A@EA@IEntityFactory@@8 ; IEntityFactory::`RTTI Base Class Array'
rdata$r	ENDS
;	COMDAT ??_R3IEntityFactory@@8
rdata$r	SEGMENT
??_R3IEntityFactory@@8 DD 00H				; IEntityFactory::`RTTI Class Hierarchy Descriptor'
	DD	00H
	DD	01H
	DD	FLAT:??_R2IEntityFactory@@8
rdata$r	ENDS
;	COMDAT ??_R0?AVIEntityFactory@@@8
data$r	SEGMENT
??_R0?AVIEntityFactory@@@8 DD FLAT:??_7type_info@@6B@	; IEntityFactory `RTTI Type Descriptor'
	DD	00H
	DB	'.?AVIEntityFactory@@', 00H
data$r	ENDS
;	COMDAT ??_R4IEntityFactory@@6B@
rdata$r	SEGMENT
??_R4IEntityFactory@@6B@ DD 00H				; IEntityFactory::`RTTI Complete Object Locator'
	DD	00H
	DD	00H
	DD	FLAT:??_R0?AVIEntityFactory@@@8
	DD	FLAT:??_R3IEntityFactory@@8
rdata$r	ENDS
;	COMDAT ??_R1A@?0A@EA@CBaseEntity@@8
rdata$r	SEGMENT
??_R1A@?0A@EA@CBaseEntity@@8 DD FLAT:??_R0?AVCBaseEntity@@@8 ; CBaseEntity::`RTTI Base Class Descriptor at (0,-1,0,64)'
	DD	00H
	DD	00H
	DD	0ffffffffH
	DD	00H
	DD	040H
	DD	FLAT:??_R3CBaseEntity@@8
rdata$r	ENDS
;	COMDAT ??_R2CBaseEntity@@8
rdata$r	SEGMENT
??_R2CBaseEntity@@8 DD FLAT:??_R1A@?0A@EA@CBaseEntity@@8 ; CBaseEntity::`RTTI Base Class Array'
rdata$r	ENDS
;	COMDAT ??_R3CBaseEntity@@8
rdata$r	SEGMENT
??_R3CBaseEntity@@8 DD 00H				; CBaseEntity::`RTTI Class Hierarchy Descriptor'
	DD	00H
	DD	01H
	DD	FLAT:??_R2CBaseEntity@@8
rdata$r	ENDS
;	COMDAT ??_R0?AVCBaseEntity@@@8
data$r	SEGMENT
??_R0?AVCBaseEntity@@@8 DD FLAT:??_7type_info@@6B@	; CBaseEntity `RTTI Type Descriptor'
	DD	00H
	DB	'.?AVCBaseEntity@@', 00H
data$r	ENDS
;	COMDAT ??_R4CBaseEntity@@6B@
rdata$r	SEGMENT
??_R4CBaseEntity@@6B@ DD 00H				; CBaseEntity::`RTTI Complete Object Locator'
	DD	00H
	DD	00H
	DD	FLAT:??_R0?AVCBaseEntity@@@8
	DD	FLAT:??_R3CBaseEntity@@8
rdata$r	ENDS
;	COMDAT ??_C@_1BE@OPPFELHC@?$AAm?$AA_?$AAp?$AAM?$AAe?$AAm?$AAo?$AAr?$AAy?$AA?$AA@
CONST	SEGMENT
??_C@_1BE@OPPFELHC@?$AAm?$AA_?$AAp?$AAM?$AAe?$AAm?$AAo?$AAr?$AAy?$AA?$AA@ DB 'm'
	DB	00H, '_', 00H, 'p', 00H, 'M', 00H, 'e', 00H, 'm', 00H, 'o', 00H
	DB	'r', 00H, 'y', 00H, 00H, 00H			; `string'
CONST	ENDS
;	COMDAT ??_C@_13COJANIEC@?$AA0?$AA?$AA@
CONST	SEGMENT
??_C@_13COJANIEC@?$AA0?$AA?$AA@ DB '0', 00H, 00H, 00H	; `string'
CONST	ENDS
;	COMDAT ??_C@_1BA@PKCLMAEA@?$AAn?$AAu?$AAm?$AA?5?$AA?$DO?$AA?5?$AA0?$AA?$AA@
CONST	SEGMENT
??_C@_1BA@PKCLMAEA@?$AAn?$AAu?$AAm?$AA?5?$AA?$DO?$AA?5?$AA0?$AA?$AA@ DB 'n'
	DB	00H, 'u', 00H, 'm', 00H, ' ', 00H, '>', 00H, ' ', 00H, '0', 00H
	DB	00H, 00H					; `string'
CONST	ENDS
;	COMDAT ??_C@_1GM@CDMJDFPA@?$AAI?$AAs?$AAV?$AAa?$AAl?$AAi?$AAd?$AAI?$AAn?$AAd?$AAe?$AAx?$AA?$CI?$AAe?$AAl?$AAe?$AAm?$AA?$CJ?$AA?5?$AA?$HM?$AA?$HM?$AA?5?$AA?$CI?$AA?5?$AAm?$AA_?$AAS?$AAi?$AAz?$AAe?$AA?5?$AA?$DN@
CONST	SEGMENT
??_C@_1GM@CDMJDFPA@?$AAI?$AAs?$AAV?$AAa?$AAl?$AAi?$AAd?$AAI?$AAn?$AAd?$AAe?$AAx?$AA?$CI?$AAe?$AAl?$AAe?$AAm?$AA?$CJ?$AA?5?$AA?$HM?$AA?$HM?$AA?5?$AA?$CI?$AA?5?$AAm?$AA_?$AAS?$AAi?$AAz?$AAe?$AA?5?$AA?$DN@ DB 'I'
	DB	00H, 's', 00H, 'V', 00H, 'a', 00H, 'l', 00H, 'i', 00H, 'd', 00H
	DB	'I', 00H, 'n', 00H, 'd', 00H, 'e', 00H, 'x', 00H, '(', 00H, 'e'
	DB	00H, 'l', 00H, 'e', 00H, 'm', 00H, ')', 00H, ' ', 00H, '|', 00H
	DB	'|', 00H, ' ', 00H, '(', 00H, ' ', 00H, 'm', 00H, '_', 00H, 'S'
	DB	00H, 'i', 00H, 'z', 00H, 'e', 00H, ' ', 00H, '=', 00H, '=', 00H
	DB	' ', 00H, '0', 00H, ' ', 00H, ')', 00H, ' ', 00H, '|', 00H, '|'
	DB	00H, ' ', 00H, '(', 00H, ' ', 00H, 'n', 00H, 'u', 00H, 'm', 00H
	DB	' ', 00H, '=', 00H, '=', 00H, ' ', 00H, '0', 00H, ' ', 00H, ')'
	DB	00H, 00H, 00H				; `string'
CONST	ENDS
;	COMDAT ??_C@_1FA@BPFBJKPF@?$AA?$CI?$AAe?$AAl?$AAe?$AAm?$AA?5?$AA?$DN?$AA?$DN?$AA?5?$AAC?$AAo?$AAu?$AAn?$AAt?$AA?$CI?$AA?$CJ?$AA?$CJ?$AA?5?$AA?$HM?$AA?$HM?$AA?5?$AAI?$AAs?$AAV?$AAa?$AAl?$AAi?$AAd?$AAI?$AAn?$AAd?$AAe@
CONST	SEGMENT
??_C@_1FA@BPFBJKPF@?$AA?$CI?$AAe?$AAl?$AAe?$AAm?$AA?5?$AA?$DN?$AA?$DN?$AA?5?$AAC?$AAo?$AAu?$AAn?$AAt?$AA?$CI?$AA?$CJ?$AA?$CJ?$AA?5?$AA?$HM?$AA?$HM?$AA?5?$AAI?$AAs?$AAV?$AAa?$AAl?$AAi?$AAd?$AAI?$AAn?$AAd?$AAe@ DB '('
	DB	00H, 'e', 00H, 'l', 00H, 'e', 00H, 'm', 00H, ' ', 00H, '=', 00H
	DB	'=', 00H, ' ', 00H, 'C', 00H, 'o', 00H, 'u', 00H, 'n', 00H, 't'
	DB	00H, '(', 00H, ')', 00H, ')', 00H, ' ', 00H, '|', 00H, '|', 00H
	DB	' ', 00H, 'I', 00H, 's', 00H, 'V', 00H, 'a', 00H, 'l', 00H, 'i'
	DB	00H, 'd', 00H, 'I', 00H, 'n', 00H, 'd', 00H, 'e', 00H, 'x', 00H
	DB	'(', 00H, 'e', 00H, 'l', 00H, 'e', 00H, 'm', 00H, ')', 00H, 00H
	DB	00H						; `string'
CONST	ENDS
;	COMDAT ??_C@_1BM@CKILBAKK@?$AAI?$AAs?$AAI?$AAd?$AAx?$AAV?$AAa?$AAl?$AAi?$AAd?$AA?$CI?$AAi?$AA?$CJ?$AA?$AA@
CONST	SEGMENT
??_C@_1BM@CKILBAKK@?$AAI?$AAs?$AAI?$AAd?$AAx?$AAV?$AAa?$AAl?$AAi?$AAd?$AA?$CI?$AAi?$AA?$CJ?$AA?$AA@ DB 'I'
	DB	00H, 's', 00H, 'I', 00H, 'd', 00H, 'x', 00H, 'V', 00H, 'a', 00H
	DB	'l', 00H, 'i', 00H, 'd', 00H, '(', 00H, 'i', 00H, ')', 00H, 00H
	DB	00H						; `string'
CONST	ENDS
;	COMDAT ??_C@_1BM@PFNFCCHH@?$AA?$CB?$AAI?$AAs?$AAR?$AAe?$AAa?$AAd?$AAO?$AAn?$AAl?$AAy?$AA?$CI?$AA?$CJ?$AA?$AA@
CONST	SEGMENT
??_C@_1BM@PFNFCCHH@?$AA?$CB?$AAI?$AAs?$AAR?$AAe?$AAa?$AAd?$AAO?$AAn?$AAl?$AAy?$AA?$CI?$AA?$CJ?$AA?$AA@ DB '!'
	DB	00H, 'I', 00H, 's', 00H, 'R', 00H, 'e', 00H, 'a', 00H, 'd', 00H
	DB	'O', 00H, 'n', 00H, 'l', 00H, 'y', 00H, '(', 00H, ')', 00H, 00H
	DB	00H						; `string'
CONST	ENDS
;	COMDAT ??_C@_1BO@FOOHAONO@?$AAn?$AAG?$AAr?$AAo?$AAw?$AAS?$AAi?$AAz?$AAe?$AA?5?$AA?$DO?$AA?$DN?$AA?5?$AA0?$AA?$AA@
CONST	SEGMENT
??_C@_1BO@FOOHAONO@?$AAn?$AAG?$AAr?$AAo?$AAw?$AAS?$AAi?$AAz?$AAe?$AA?5?$AA?$DO?$AA?$DN?$AA?5?$AA0?$AA?$AA@ DB 'n'
	DB	00H, 'G', 00H, 'r', 00H, 'o', 00H, 'w', 00H, 'S', 00H, 'i', 00H
	DB	'z', 00H, 'e', 00H, ' ', 00H, '>', 00H, '=', 00H, ' ', 00H, '0'
	DB	00H, 00H, 00H				; `string'
CONST	ENDS
;	COMDAT ??_C@_1JE@CIIIAKCN@?$AAd?$AA?3?$AA?2?$AA?$CB?$AAd?$AAi?$AAf?$AAf?$AAu?$AAs?$AAi?$AAo?$AAn?$AA?5?$AA2?$AA0?$AA2?$AA0?$AA?2?$AAs?$AAo?$AAu?$AAr?$AAc?$AAe?$AA?5?$AAc?$AAo?$AAd?$AAe?$AA?5?$AA2@
CONST	SEGMENT
??_C@_1JE@CIIIAKCN@?$AAd?$AA?3?$AA?2?$AA?$CB?$AAd?$AAi?$AAf?$AAf?$AAu?$AAs?$AAi?$AAo?$AAn?$AA?5?$AA2?$AA0?$AA2?$AA0?$AA?2?$AAs?$AAo?$AAu?$AAr?$AAc?$AAe?$AA?5?$AAc?$AAo?$AAd?$AAe?$AA?5?$AA2@ DB 'd'
	DB	00H, ':', 00H, '\', 00H, '!', 00H, 'd', 00H, 'i', 00H, 'f', 00H
	DB	'f', 00H, 'u', 00H, 's', 00H, 'i', 00H, 'o', 00H, 'n', 00H, ' '
	DB	00H, '2', 00H, '0', 00H, '2', 00H, '0', 00H, '\', 00H, 's', 00H
	DB	'o', 00H, 'u', 00H, 'r', 00H, 'c', 00H, 'e', 00H, ' ', 00H, 'c'
	DB	00H, 'o', 00H, 'd', 00H, 'e', 00H, ' ', 00H, '2', 00H, '0', 00H
	DB	'2', 00H, '2', 00H, '\', 00H, 'c', 00H, 'l', 00H, 'i', 00H, 'e'
	DB	00H, 'n', 00H, 't', 00H, '-', 00H, 's', 00H, 'e', 00H, 'r', 00H
	DB	'v', 00H, 'e', 00H, 'r', 00H, '\', 00H, 'g', 00H, 'a', 00H, 'm'
	DB	00H, 'e', 00H, '_', 00H, 's', 00H, 'h', 00H, 'a', 00H, 'r', 00H
	DB	'e', 00H, 'd', 00H, '\', 00H, 'u', 00H, 't', 00H, 'l', 00H, 'm'
	DB	00H, 'e', 00H, 'm', 00H, 'o', 00H, 'r', 00H, 'y', 00H, '.', 00H
	DB	'h', 00H, 00H, 00H				; `string'
CONST	ENDS
;	COMDAT ??_C@_1IK@DGJDJNN@?$AA?$CI?$AAB?$AAa?$AAs?$AAe?$AA?$CI?$AA?$CJ?$AA?5?$AA?$DN?$AA?$DN?$AA?5?$AAN?$AAU?$AAL?$AAL?$AA?$CJ?$AA?5?$AA?$HM?$AA?$HM?$AA?5?$AA?$CI?$AA?$CG?$AAs?$AAr?$AAc?$AA?5?$AA?$DM?$AA?5?$AAB?$AAa?$AAs?$AAe@
CONST	SEGMENT
??_C@_1IK@DGJDJNN@?$AA?$CI?$AAB?$AAa?$AAs?$AAe?$AA?$CI?$AA?$CJ?$AA?5?$AA?$DN?$AA?$DN?$AA?5?$AAN?$AAU?$AAL?$AAL?$AA?$CJ?$AA?5?$AA?$HM?$AA?$HM?$AA?5?$AA?$CI?$AA?$CG?$AAs?$AAr?$AAc?$AA?5?$AA?$DM?$AA?5?$AAB?$AAa?$AAs?$AAe@ DB '('
	DB	00H, 'B', 00H, 'a', 00H, 's', 00H, 'e', 00H, '(', 00H, ')', 00H
	DB	' ', 00H, '=', 00H, '=', 00H, ' ', 00H, 'N', 00H, 'U', 00H, 'L'
	DB	00H, 'L', 00H, ')', 00H, ' ', 00H, '|', 00H, '|', 00H, ' ', 00H
	DB	'(', 00H, '&', 00H, 's', 00H, 'r', 00H, 'c', 00H, ' ', 00H, '<'
	DB	00H, ' ', 00H, 'B', 00H, 'a', 00H, 's', 00H, 'e', 00H, '(', 00H
	DB	')', 00H, ')', 00H, ' ', 00H, '|', 00H, '|', 00H, ' ', 00H, '('
	DB	00H, '&', 00H, 's', 00H, 'r', 00H, 'c', 00H, ' ', 00H, '>', 00H
	DB	'=', 00H, ' ', 00H, '(', 00H, 'B', 00H, 'a', 00H, 's', 00H, 'e'
	DB	00H, '(', 00H, ')', 00H, ' ', 00H, '+', 00H, ' ', 00H, 'C', 00H
	DB	'o', 00H, 'u', 00H, 'n', 00H, 't', 00H, '(', 00H, ')', 00H, ')'
	DB	00H, ' ', 00H, ')', 00H, 00H, 00H		; `string'
CONST	ENDS
;	COMDAT ??_C@_1JC@EMNIBBBG@?$AAd?$AA?3?$AA?2?$AA?$CB?$AAd?$AAi?$AAf?$AAf?$AAu?$AAs?$AAi?$AAo?$AAn?$AA?5?$AA2?$AA0?$AA2?$AA0?$AA?2?$AAs?$AAo?$AAu?$AAr?$AAc?$AAe?$AA?5?$AAc?$AAo?$AAd?$AAe?$AA?5?$AA2@
CONST	SEGMENT
??_C@_1JC@EMNIBBBG@?$AAd?$AA?3?$AA?2?$AA?$CB?$AAd?$AAi?$AAf?$AAf?$AAu?$AAs?$AAi?$AAo?$AAn?$AA?5?$AA2?$AA0?$AA2?$AA0?$AA?2?$AAs?$AAo?$AAu?$AAr?$AAc?$AAe?$AA?5?$AAc?$AAo?$AAd?$AAe?$AA?5?$AA2@ DB 'd'
	DB	00H, ':', 00H, '\', 00H, '!', 00H, 'd', 00H, 'i', 00H, 'f', 00H
	DB	'f', 00H, 'u', 00H, 's', 00H, 'i', 00H, 'o', 00H, 'n', 00H, ' '
	DB	00H, '2', 00H, '0', 00H, '2', 00H, '0', 00H, '\', 00H, 's', 00H
	DB	'o', 00H, 'u', 00H, 'r', 00H, 'c', 00H, 'e', 00H, ' ', 00H, 'c'
	DB	00H, 'o', 00H, 'd', 00H, 'e', 00H, ' ', 00H, '2', 00H, '0', 00H
	DB	'2', 00H, '2', 00H, '\', 00H, 'c', 00H, 'l', 00H, 'i', 00H, 'e'
	DB	00H, 'n', 00H, 't', 00H, '-', 00H, 's', 00H, 'e', 00H, 'r', 00H
	DB	'v', 00H, 'e', 00H, 'r', 00H, '\', 00H, 'g', 00H, 'a', 00H, 'm'
	DB	00H, 'e', 00H, '_', 00H, 's', 00H, 'h', 00H, 'a', 00H, 'r', 00H
	DB	'e', 00H, 'd', 00H, '\', 00H, 'u', 00H, 't', 00H, 'l', 00H, 'a'
	DB	00H, 'r', 00H, 'r', 00H, 'a', 00H, 'y', 00H, '.', 00H, 'h', 00H
	DB	00H, 00H					; `string'
CONST	ENDS
;	COMDAT ??_C@_0L@EPPCCHAE@tutor_g36c?$AA@
CONST	SEGMENT
??_C@_0L@EPPCCHAE@tutor_g36c?$AA@ DB 'tutor_g36c', 00H	; `string'
CONST	ENDS
;	COMDAT ??_C@_0N@EJBNCOLN@tutor_sniper?$AA@
CONST	SEGMENT
??_C@_0N@EJBNCOLN@tutor_sniper?$AA@ DB 'tutor_sniper', 00H ; `string'
CONST	ENDS
;	COMDAT ??_C@_0BA@GMGFKFMC@tutor_fiveseven?$AA@
CONST	SEGMENT
??_C@_0BA@GMGFKFMC@tutor_fiveseven?$AA@ DB 'tutor_fiveseven', 00H ; `string'
CONST	ENDS
;	COMDAT ??_C@_0M@FOEKFHNN@tutor_hkmp5?$AA@
CONST	SEGMENT
??_C@_0M@FOEKFHNN@tutor_hkmp5?$AA@ DB 'tutor_hkmp5', 00H ; `string'
CONST	ENDS
;	COMDAT ??_C@_0N@OEAFPJAH@tutor_sentry?$AA@
CONST	SEGMENT
??_C@_0N@OEAFPJAH@tutor_sentry?$AA@ DB 'tutor_sentry', 00H ; `string'
CONST	ENDS
;	COMDAT ??_C@_0M@ECHCHJPA@tutor_drone?$AA@
CONST	SEGMENT
??_C@_0M@ECHCHJPA@tutor_drone?$AA@ DB 'tutor_drone', 00H ; `string'
CONST	ENDS
;	COMDAT ??_C@_09MJDBBLGO@tutor_ar2?$AA@
CONST	SEGMENT
??_C@_09MJDBBLGO@tutor_ar2?$AA@ DB 'tutor_ar2', 00H	; `string'
CONST	ENDS
;	COMDAT ??_C@_0M@JCNBDBPJ@tutor_snark?$AA@
CONST	SEGMENT
??_C@_0M@JCNBDBPJ@tutor_snark?$AA@ DB 'tutor_snark', 00H ; `string'
CONST	ENDS
;	COMDAT ??_C@_0O@PJJCBHGC@tutor_satchel?$AA@
CONST	SEGMENT
??_C@_0O@PJJCBHGC@tutor_satchel?$AA@ DB 'tutor_satchel', 00H ; `string'
CONST	ENDS
;	COMDAT ??_C@_0P@CPGDDPBN@tutor_tripmine?$AA@
CONST	SEGMENT
??_C@_0P@CPGDDPBN@tutor_tripmine?$AA@ DB 'tutor_tripmine', 00H ; `string'
CONST	ENDS
;	COMDAT ??_C@_0O@MKEHCFJL@tutor_grenade?$AA@
CONST	SEGMENT
??_C@_0O@MKEHCFJL@tutor_grenade?$AA@ DB 'tutor_grenade', 00H ; `string'
CONST	ENDS
;	COMDAT ??_C@_0N@BGDEBEJF@tutor_hornet?$AA@
CONST	SEGMENT
??_C@_0N@BGDEBEJF@tutor_hornet?$AA@ DB 'tutor_hornet', 00H ; `string'
CONST	ENDS
;	COMDAT ??_C@_0L@KHJOIHOD@tutor_egon?$AA@
CONST	SEGMENT
??_C@_0L@KHJOIHOD@tutor_egon?$AA@ DB 'tutor_egon', 00H	; `string'
CONST	ENDS
;	COMDAT ??_C@_0BA@LFKDMDG@tutor_gausniper?$AA@
CONST	SEGMENT
??_C@_0BA@LFKDMDG@tutor_gausniper?$AA@ DB 'tutor_gausniper', 00H ; `string'
CONST	ENDS
;	COMDAT ??_C@_09EPNFJOGA@tutor_rpg?$AA@
CONST	SEGMENT
??_C@_09EPNFJOGA@tutor_rpg?$AA@ DB 'tutor_rpg', 00H	; `string'
CONST	ENDS
;	COMDAT ??_C@_0BB@GCKOLEPJ@tutor_shotgun_xm?$AA@
CONST	SEGMENT
??_C@_0BB@GCKOLEPJ@tutor_shotgun_xm?$AA@ DB 'tutor_shotgun_xm', 00H ; `string'
CONST	ENDS
;	COMDAT ??_C@_0O@KBKIDKNP@tutor_shotgun?$AA@
CONST	SEGMENT
??_C@_0O@KBKIDKNP@tutor_shotgun?$AA@ DB 'tutor_shotgun', 00H ; `string'
CONST	ENDS
;	COMDAT ??_C@_0P@HDGBODDH@tutor_crossbow?$AA@
CONST	SEGMENT
??_C@_0P@HDGBODDH@tutor_crossbow?$AA@ DB 'tutor_crossbow', 00H ; `string'
CONST	ENDS
;	COMDAT ??_C@_0N@GAGPHANG@tutor_cycler?$AA@
CONST	SEGMENT
??_C@_0N@GAGPHANG@tutor_cycler?$AA@ DB 'tutor_cycler', 00H ; `string'
CONST	ENDS
;	COMDAT ??_C@_09CAEHMIMD@tutor_mrc?$AA@
CONST	SEGMENT
??_C@_09CAEHMIMD@tutor_mrc?$AA@ DB 'tutor_mrc', 00H	; `string'
CONST	ENDS
;	COMDAT ??_C@_0N@HGEPOHMA@tutor_deagle?$AA@
CONST	SEGMENT
??_C@_0N@HGEPOHMA@tutor_deagle?$AA@ DB 'tutor_deagle', 00H ; `string'
CONST	ENDS
;	COMDAT ??_C@_0N@BJBEKGOF@tutor_pistol?$AA@
CONST	SEGMENT
??_C@_0N@BJBEKGOF@tutor_pistol?$AA@ DB 'tutor_pistol', 00H ; `string'
CONST	ENDS
;	COMDAT ??_C@_0M@DNEMLPMC@tutor_knife?$AA@
CONST	SEGMENT
??_C@_0M@DNEMLPMC@tutor_knife?$AA@ DB 'tutor_knife', 00H ; `string'
CONST	ENDS
;	COMDAT ??_C@_05KKCIMGE@error?$AA@
CONST	SEGMENT
??_C@_05KKCIMGE@error?$AA@ DB 'error', 00H		; `string'
CONST	ENDS
;	COMDAT ??_C@_0BO@FDPNENNO@?$CGCBasePlayerItem?3?3DestroyItem?$AA@
CONST	SEGMENT
??_C@_0BO@FDPNENNO@?$CGCBasePlayerItem?3?3DestroyItem?$AA@ DB '&CBasePlay'
	DB	'erItem::DestroyItem', 00H			; `string'
CONST	ENDS
;	COMDAT ??_C@_05LGDANENA@Empty?$AA@
CONST	SEGMENT
??_C@_05LGDANENA@Empty?$AA@ DB 'Empty', 00H		; `string'
CONST	ENDS
;	COMDAT ??_C@_0O@MMLFBDJD@gmsgTrain?5?$DO?50?$AA@
CONST	SEGMENT
??_C@_0O@MMLFBDJD@gmsgTrain?5?$DO?50?$AA@ DB 'gmsgTrain > 0', 00H ; `string'
CONST	ENDS
;	COMDAT ??_C@_0BE@FENGHKNP@Clearing?5rain?5data?6?$AA@
CONST	SEGMENT
??_C@_0BE@FENGHKNP@Clearing?5rain?5data?6?$AA@ DB 'Clearing rain data', 0aH
	DB	00H						; `string'
CONST	ENDS
;	COMDAT ??_C@_0CA@COBPNFGE@Sending?5disabling?5rain?5message?6?$AA@
CONST	SEGMENT
??_C@_0CA@COBPNFGE@Sending?5disabling?5rain?5message?6?$AA@ DB 'Sending d'
	DB	'isabling rain message', 0aH, 00H		; `string'
CONST	ENDS
;	COMDAT ??_C@_0BP@CPMKAIEM@Sending?5enabling?5rain?5message?6?$AA@
CONST	SEGMENT
??_C@_0BP@CPMKAIEM@Sending?5enabling?5rain?5message?6?$AA@ DB 'Sending en'
	DB	'abling rain message', 0aH, 00H		; `string'
CONST	ENDS
;	COMDAT ??_C@_08EPDFHEP@env_rain?$AA@
CONST	SEGMENT
??_C@_08EPDFHEP@env_rain?$AA@ DB 'env_rain', 00H	; `string'
CONST	ENDS
;	COMDAT ??_C@_0CC@EGECNOOM@Rain?5fading?5finished?5at?5?$CFi?5drips@
CONST	SEGMENT
??_C@_0CC@EGECNOOM@Rain?5fading?5finished?5at?5?$CFi?5drips@ DB 'Rain fad'
	DB	'ing finished at %i drips', 0aH, 00H		; `string'
CONST	ENDS
;	COMDAT ??_C@_0CK@MHKDLFKA@Rain?5fading?3?5curdrips?3?5?$CFi?0?5ideal@
CONST	SEGMENT
??_C@_0CK@MHKDLFKA@Rain?5fading?3?5curdrips?3?5?$CFi?0?5ideal@ DB 'Rain f'
	DB	'ading: curdrips: %i, idealdrips %i', 0aH, 00H ; `string'
CONST	ENDS
;	COMDAT ??_C@_0M@LPOJOBFH@default_fov?$AA@
CONST	SEGMENT
??_C@_0M@LPOJOBFH@default_fov?$AA@ DB 'default_fov', 00H ; `string'
CONST	ENDS
;	COMDAT ??_C@_0BA@BEAIFEPH@game_playerjoin?$AA@
CONST	SEGMENT
??_C@_0BA@BEAIFEPH@game_playerjoin?$AA@ DB 'game_playerjoin', 00H ; `string'
CONST	ENDS
;	COMDAT ?__LINE__Var@?0??UpdateClientData@CBasePlayer@@UAEXXZ@4JA
_DATA	SEGMENT
?__LINE__Var@?0??UpdateClientData@CBasePlayer@@UAEXXZ@4JA DD 01954H ; `CBasePlayer::UpdateClientData'::`1'::__LINE__Var
_DATA	ENDS
;	COMDAT ??_C@_0BL@DKKNLPBN@pPlayer?9?$DOm_rgAmmo?$FLi?$FN?5?$DM?5255?$AA@
CONST	SEGMENT
??_C@_0BL@DKKNLPBN@pPlayer?9?$DOm_rgAmmo?$FLi?$FN?5?$DM?5255?$AA@ DB 'pPl'
	DB	'ayer->m_rgAmmo[i] < 255', 00H		; `string'
CONST	ENDS
;	COMDAT ??_C@_0BK@PEDLEIDL@pPlayer?9?$DOm_rgAmmo?$FLi?$FN?5?$DO?$DN?50?$AA@
CONST	SEGMENT
??_C@_0BK@PEDLEIDL@pPlayer?9?$DOm_rgAmmo?$FLi?$FN?5?$DO?$DN?50?$AA@ DB 'p'
	DB	'Player->m_rgAmmo[i] >= 0', 00H		; `string'
CONST	ENDS
;	COMDAT ?__LINE__Var@?0??SendAmmoUpdate@CBasePlayer@@QAEXPAV2@@Z@4JA
_DATA	SEGMENT
?__LINE__Var@?0??SendAmmoUpdate@CBasePlayer@@QAEXPAV2@@Z@4JA DD 01939H ; `CBasePlayer::SendAmmoUpdate'::`1'::__LINE__Var
_DATA	ENDS
;	COMDAT ??_C@_04HIBGFPH@NULL?$AA@
CONST	SEGMENT
??_C@_04HIBGFPH@NULL?$AA@ DB 'NULL', 00H		; `string'
CONST	ENDS
;	COMDAT ??_C@_03PMGGPEJJ@?$CFd?6?$AA@
CONST	SEGMENT
??_C@_03PMGGPEJJ@?$CFd?6?$AA@ DB '%d', 0aH, 00H		; `string'
CONST	ENDS
;	COMDAT ??_C@_0BC@CHGBHLNI@node_viewer_human?$AA@
CONST	SEGMENT
??_C@_0BC@CHGBHLNI@node_viewer_human?$AA@ DB 'node_viewer_human', 00H ; `string'
CONST	ENDS
;	COMDAT ??_C@_0BC@MGJDOKDM@node_viewer_large?$AA@
CONST	SEGMENT
??_C@_0BC@MGJDOKDM@node_viewer_large?$AA@ DB 'node_viewer_large', 00H ; `string'
CONST	ENDS
;	COMDAT ??_C@_0BA@NLCNMBCE@node_viewer_fly?$AA@
CONST	SEGMENT
??_C@_0BA@NLCNMBCE@node_viewer_fly?$AA@ DB 'node_viewer_fly', 00H ; `string'
CONST	ENDS
;	COMDAT ??_C@_0O@KNELLIDG@Hitgroup?3?5?$CFs?6?$AA@
CONST	SEGMENT
??_C@_0O@KNELLIDG@Hitgroup?3?5?$CFs?6?$AA@ DB 'Hitgroup: %s', 0aH, 00H ; `string'
CONST	ENDS
;	COMDAT ??_C@_0N@OAFBHAKD@Texture?3?5?$CFs?6?$AA@
CONST	SEGMENT
??_C@_0N@OAFBHAKD@Texture?3?5?$CFs?6?$AA@ DB 'Texture: %s', 0aH, 00H ; `string'
CONST	ENDS
;	COMDAT ??_C@_0BC@BDDKBFNJ@Player?5is?5silent?6?$AA@
CONST	SEGMENT
??_C@_0BC@BDDKBFNJ@Player?5is?5silent?6?$AA@ DB 'Player is silent', 0aH, 00H ; `string'
CONST	ENDS
;	COMDAT ??_C@_0BD@PLCKGGAM@Player?5is?5audible?6?$AA@
CONST	SEGMENT
??_C@_0BD@PLCKGGAM@Player?5is?5audible?6?$AA@ DB 'Player is audible', 0aH
	DB	00H						; `string'
CONST	ENDS
;	COMDAT ??_C@_0M@LDNNKFND@weapon_g36c?$AA@
CONST	SEGMENT
??_C@_0M@LDNNKFND@weapon_g36c?$AA@ DB 'weapon_g36c', 00H ; `string'
CONST	ENDS
;	COMDAT ??_C@_0O@IENCGDEG@weapon_sniper?$AA@
CONST	SEGMENT
??_C@_0O@IENCGDEG@weapon_sniper?$AA@ DB 'weapon_sniper', 00H ; `string'
CONST	ENDS
;	COMDAT ??_C@_0BB@JLPINHFH@weapon_fiveseven?$AA@
CONST	SEGMENT
??_C@_0BB@JLPINHFH@weapon_fiveseven?$AA@ DB 'weapon_fiveseven', 00H ; `string'
CONST	ENDS
;	COMDAT ??_C@_0N@EGABDPCI@weapon_hkmp5?$AA@
CONST	SEGMENT
??_C@_0N@EGABDPCI@weapon_hkmp5?$AA@ DB 'weapon_hkmp5', 00H ; `string'
CONST	ENDS
;	COMDAT ??_C@_0O@CJMKLEPM@weapon_sentry?$AA@
CONST	SEGMENT
??_C@_0O@CJMKLEPM@weapon_sentry?$AA@ DB 'weapon_sentry', 00H ; `string'
CONST	ENDS
;	COMDAT ??_C@_0N@FKDJBBAF@weapon_drone?$AA@
CONST	SEGMENT
??_C@_0N@FKDJBBAF@weapon_drone?$AA@ DB 'weapon_drone', 00H ; `string'
CONST	ENDS
;	COMDAT ??_C@_0N@EFLNLIAA@ammo_ar2ball?$AA@
CONST	SEGMENT
??_C@_0N@EFLNLIAA@ammo_ar2ball?$AA@ DB 'ammo_ar2ball', 00H ; `string'
CONST	ENDS
;	COMDAT ??_C@_0L@FPDLLADF@weapon_ar2?$AA@
CONST	SEGMENT
??_C@_0L@FPDLLADF@weapon_ar2?$AA@ DB 'weapon_ar2', 00H	; `string'
CONST	ENDS
;	COMDAT ??_C@_0P@NDDAPDLL@weapon_satchel?$AA@
CONST	SEGMENT
??_C@_0P@NDDAPDLL@weapon_satchel?$AA@ DB 'weapon_satchel', 00H ; `string'
CONST	ENDS
;	COMDAT ??_C@_0L@NJNPDFDL@weapon_rpg?$AA@
CONST	SEGMENT
??_C@_0L@NJNPDFDL@weapon_rpg?$AA@ DB 'weapon_rpg', 00H	; `string'
CONST	ENDS
;	COMDAT ??_C@_0BB@PMMHEOKD@weapon_gausniper?$AA@
CONST	SEGMENT
??_C@_0BB@PMMHEOKD@weapon_gausniper?$AA@ DB 'weapon_gausniper', 00H ; `string'
CONST	ENDS
;	COMDAT ??_C@_0BA@IMEECLKD@weapon_crossbow?$AA@
CONST	SEGMENT
??_C@_0BA@IMEECLKD@weapon_crossbow?$AA@ DB 'weapon_crossbow', 00H ; `string'
CONST	ENDS
;	COMDAT ??_C@_0L@DGJNBIBM@weapon_357?$AA@
CONST	SEGMENT
??_C@_0L@DGJNBIBM@weapon_357?$AA@ DB 'weapon_357', 00H	; `string'
CONST	ENDS
;	COMDAT ??_C@_0BA@NAEGPHIJ@weapon_tripmine?$AA@
CONST	SEGMENT
??_C@_0BA@NAEGPHIJ@weapon_tripmine?$AA@ DB 'weapon_tripmine', 00H ; `string'
CONST	ENDS
;	COMDAT ??_C@_0BD@DKJAMAOF@weapon_handgrenade?$AA@
CONST	SEGMENT
??_C@_0BD@DKJAMAOF@weapon_handgrenade?$AA@ DB 'weapon_handgrenade', 00H ; `string'
CONST	ENDS
;	COMDAT ??_C@_0BA@KLCOFANC@ammo_ARgrenades?$AA@
CONST	SEGMENT
??_C@_0BA@KLCOFANC@ammo_ARgrenades?$AA@ DB 'ammo_ARgrenades', 00H ; `string'
CONST	ENDS
;	COMDAT ??_C@_0N@BIGGDBN@weapon_9mmAR?$AA@
CONST	SEGMENT
??_C@_0N@BIGGDBN@weapon_9mmAR?$AA@ DB 'weapon_9mmAR', 00H ; `string'
CONST	ENDS
;	COMDAT ??_C@_0BC@OCDMEOEA@weapon_shotgun_xm?$AA@
CONST	SEGMENT
??_C@_0BC@OCDMEOEA@weapon_shotgun_xm?$AA@ DB 'weapon_shotgun_xm', 00H ; `string'
CONST	ENDS
;	COMDAT ??_C@_0P@ILAKNOAG@weapon_shotgun?$AA@
CONST	SEGMENT
??_C@_0P@ILAKNOAG@weapon_shotgun?$AA@ DB 'weapon_shotgun', 00H ; `string'
CONST	ENDS
;	COMDAT ??_C@_0BC@GDALAHJA@weapon_9mmhandgun?$AA@
CONST	SEGMENT
??_C@_0BC@GDALAHJA@weapon_9mmhandgun?$AA@ DB 'weapon_9mmhandgun', 00H ; `string'
CONST	ENDS
;	COMDAT ??_C@_0N@CFAHNHDH@weapon_knife?$AA@
CONST	SEGMENT
??_C@_0N@CFAHNHDH@weapon_knife?$AA@ DB 'weapon_knife', 00H ; `string'
CONST	ENDS
;	COMDAT ??_C@_09PNLMJFNO@item_suit?$AA@
CONST	SEGMENT
??_C@_09PNLMJFNO@item_suit?$AA@ DB 'item_suit', 00H	; `string'
CONST	ENDS
;	COMDAT ??_C@_0BE@MKHPBDMI@monster_human_grunt?$AA@
CONST	SEGMENT
??_C@_0BE@MKHPBDMI@monster_human_grunt?$AA@ DB 'monster_human_grunt', 00H ; `string'
CONST	ENDS
;	COMDAT ??_C@_0N@NBONHOAD@gmsgLogo?5?$DO?50?$AA@
CONST	SEGMENT
??_C@_0N@NBONHOAD@gmsgLogo?5?$DO?50?$AA@ DB 'gmsgLogo > 0', 00H ; `string'
CONST	ENDS
;	COMDAT ??_C@_0EN@NOCOPEGE@d?3?2?$CBdiffusion?52020?2source?5code?52@
CONST	SEGMENT
??_C@_0EN@NOCOPEGE@d?3?2?$CBdiffusion?52020?2source?5code?52@ DB 'd:\!dif'
	DB	'fusion 2020\source code 2022\client-server\server\game\basepl'
	DB	'ayer.cpp', 00H				; `string'
CONST	ENDS
;	COMDAT ??_C@_04GIGGPADC@Logo?$AA@
CONST	SEGMENT
??_C@_04GIGGPADC@Logo?$AA@ DB 'Logo', 00H		; `string'
CONST	ENDS
;	COMDAT ??_C@_0BA@GCMDNLLH@game_firetarget?$AA@
CONST	SEGMENT
??_C@_0BA@GCMDNLLH@game_firetarget?$AA@ DB 'game_firetarget', 00H ; `string'
CONST	ENDS
;	COMDAT ?__LINE__Var@?0??ImpulseCommands@CBasePlayer@@UAEXXZ@4JA
_DATA	SEGMENT
?__LINE__Var@?0??ImpulseCommands@CBasePlayer@@UAEXXZ@4JA DD 01742H ; `CBasePlayer::ImpulseCommands'::`1'::__LINE__Var
_DATA	ENDS
;	COMDAT ??_C@_0M@CIJDHGLD@_flashlight?$AA@
CONST	SEGMENT
??_C@_0M@CIJDHGLD@_flashlight?$AA@ DB '_flashlight', 00H ; `string'
CONST	ENDS
;	COMDAT ??_C@_0BG@GEEPOHBH@items?1flashlight1?4wav?$AA@
CONST	SEGMENT
??_C@_0BG@GEEPOHBH@items?1flashlight1?4wav?$AA@ DB 'items/flashlight1.wav'
	DB	00H						; `string'
CONST	ENDS
;	COMDAT ??_C@_0BM@EADHAOHM@NULL?5Ent?5in?5GiveNamedItem?$CB?6?$AA@
CONST	SEGMENT
??_C@_0BM@EADHAOHM@NULL?5Ent?5in?5GiveNamedItem?$CB?6?$AA@ DB 'NULL Ent i'
	DB	'n GiveNamedItem!', 0aH, 00H			; `string'
CONST	ENDS
;	COMDAT ??_C@_0BE@KJMFIMMD@?$CGCBloodSplat?3?3Spray?$AA@
CONST	SEGMENT
??_C@_0BE@KJMFIMMD@?$CGCBloodSplat?3?3Spray?$AA@ DB '&CBloodSplat::Spray', 00H ; `string'
CONST	ENDS
;	COMDAT ??_7CBloodSplat@@6B@
CONST	SEGMENT
??_7CBloodSplat@@6B@ DD FLAT:??_R4CBloodSplat@@6B@	; CBloodSplat::`vftable'
	DD	FLAT:?GetDataDescMap@CBaseEntity@@UAEPAUdatamap_s@@XZ
	DD	FLAT:?Spawn@CBaseEntity@@UAEXXZ
	DD	FLAT:?Precache@CBaseEntity@@UAEXXZ
	DD	FLAT:?KeyValue@CBaseEntity@@UAEXPAUKeyValueData_s@@@Z
	DD	FLAT:?Save@CBaseEntity@@UAEHAAVCSave@@@Z
	DD	FLAT:?Restore@CBaseEntity@@UAEHAAVCRestore@@@Z
	DD	FLAT:?ObjectCaps@CBaseEntity@@UAEHXZ
	DD	FLAT:?Activate@CBaseEntity@@UAEXXZ
	DD	FLAT:?OnChangeLevel@CBaseEntity@@UAEXXZ
	DD	FLAT:?OnTeleport@CBaseEntity@@UAEXXZ
	DD	FLAT:?PortalSleep@CBaseEntity@@UAEXM@Z
	DD	FLAT:?StartMessage@CBaseEntity@@UAEXPAVCBasePlayer@@@Z
	DD	FLAT:?GetPosition@CBaseEntity@@UAEMXZ
	DD	FLAT:?OnChangeParent@CBaseEntity@@UAEXXZ
	DD	FLAT:?OnClearParent@CBaseEntity@@UAEXXZ
	DD	FLAT:?OnRemove@CBaseEntity@@UAEXXZ
	DD	FLAT:?SetObjectCollisionBox@CBaseEntity@@UAEXXZ
	DD	FLAT:?Classify@CBaseEntity@@UAEHXZ
	DD	FLAT:?DeathNotice@CBaseEntity@@UAEXPAUentvars_s@@@Z
	DD	FLAT:?IsRigidBody@CBaseEntity@@UAEHXZ
	DD	FLAT:?SetNextThink@CBaseEntity@@UAEXM@Z
	DD	FLAT:?GetState@CBaseEntity@@UAE?AW4STATE@@PAV1@@Z
	DD	FLAT:?GetState@CBaseEntity@@UAE?AW4STATE@@XZ
	DD	FLAT:?TraceAttack@CBaseEntity@@UAEXPAUentvars_s@@MVVector@@PAUgametrace_s@@H@Z
	DD	FLAT:?TakeDamage@CBaseEntity@@UAEHPAUentvars_s@@0MH@Z
	DD	FLAT:?TakeHealth@CBaseEntity@@UAEHMH@Z
	DD	FLAT:?TakeArmor@CBaseEntity@@UAEHMH@Z
	DD	FLAT:?Killed@CBaseEntity@@UAEXPAUentvars_s@@H@Z
	DD	FLAT:?BloodColor@CBaseEntity@@UAEHXZ
	DD	FLAT:?TraceBleed@CBaseEntity@@UAEXMVVector@@PAUgametrace_s@@H@Z
	DD	FLAT:?IsTriggered@CBaseEntity@@UAEHPAV1@@Z
	DD	FLAT:?MyMonsterPointer@CBaseEntity@@UAEPAVCBaseMonster@@XZ
	DD	FLAT:?MySquadMonsterPointer@CBaseEntity@@UAEPAVCSquadMonster@@XZ
	DD	FLAT:?GetToggleState@CBaseEntity@@UAEHXZ
	DD	FLAT:?AddPoints@CBaseEntity@@UAEXHH@Z
	DD	FLAT:?AddPointsToTeam@CBaseEntity@@UAEXHH@Z
	DD	FLAT:?AddPlayerItem@CBaseEntity@@UAEHPAVCBasePlayerItem@@@Z
	DD	FLAT:?RemovePlayerItem@CBaseEntity@@UAEHPAVCBasePlayerItem@@@Z
	DD	FLAT:?GiveAmmo@CBaseEntity@@UAEHHPADH@Z
	DD	FLAT:?GetDelay@CBaseEntity@@UAEMXZ
	DD	FLAT:?IsMoving@CBaseEntity@@UAEHXZ
	DD	FLAT:?OverrideReset@CBaseEntity@@UAEXXZ
	DD	FLAT:?TransferReset@CBaseEntity@@UAEXXZ
	DD	FLAT:?DamageDecal@CBaseEntity@@UAEHH@Z
	DD	FLAT:?SetToggleState@CBaseEntity@@UAEXH@Z
	DD	FLAT:?StartSneaking@CBaseEntity@@UAEXXZ
	DD	FLAT:?StopSneaking@CBaseEntity@@UAEXXZ
	DD	FLAT:?OnControls@CBaseEntity@@UAEHPAV1@@Z
	DD	FLAT:?IsSneaking@CBaseEntity@@UAEHXZ
	DD	FLAT:?IsAlive@CBaseEntity@@UAEHXZ
	DD	FLAT:?IsBSPModel@CBaseEntity@@UAEHXZ
	DD	FLAT:?IsCustomModel@CBaseEntity@@UAEHXZ
	DD	FLAT:?ReflectGauss@CBaseEntity@@UAEHXZ
	DD	FLAT:?HasTarget@CBaseEntity@@UAEHH@Z
	DD	FLAT:?IsInWorld@CBaseEntity@@UAEHH@Z
	DD	FLAT:?IsPlayer@CBaseEntity@@UAEHXZ
	DD	FLAT:?IsNetClient@CBaseEntity@@UAEHXZ
	DD	FLAT:?IsMonster@CBaseEntity@@UAEHXZ
	DD	FLAT:?IsPushable@CBaseEntity@@UAEHXZ
	DD	FLAT:?IsProjectile@CBaseEntity@@UAEHXZ
	DD	FLAT:?IsFuncScreen@CBaseEntity@@UAEHXZ
	DD	FLAT:?IsPortal@CBaseEntity@@UAEHXZ
	DD	FLAT:?IsTank@CBaseEntity@@UAEHXZ
	DD	FLAT:?IsMover@CBaseEntity@@UAEHXZ
	DD	FLAT:?IsBreakable@CBaseEntity@@UAEHXZ
	DD	FLAT:?TeamID@CBaseEntity@@UAEPBDXZ
	DD	FLAT:?AddSpawnFlags@CBaseEntity@@UAEXH@Z
	DD	FLAT:?HasSpawnFlags@CBaseEntity@@UBE_NH@Z
	DD	FLAT:?SetFadeDistance@CBaseEntity@@UAEXH@Z
	DD	FLAT:?SetFlag@CBaseEntity@@UAEXH@Z
	DD	FLAT:?HasFlag@CBaseEntity@@UBE_NH@Z
	DD	FLAT:?RemoveFlag@CBaseEntity@@UAEXH@Z
	DD	FLAT:?SetNullModel@CBaseEntity@@UAEXXZ
	DD	FLAT:?OnPickupObject@CBaseEntity@@UAEXXZ
	DD	FLAT:?OnDropObject@CBaseEntity@@UAEXXZ
	DD	FLAT:?GetNextTarget@CBaseEntity@@UAEPAV1@XZ
	DD	FLAT:?Think@CBaseEntity@@UAEXXZ
	DD	FLAT:?Use@CBaseEntity@@UAEXPAV1@0W4USE_TYPE@@M@Z
	DD	FLAT:?Touch@CBaseEntity@@UAEXPAV1@@Z
	DD	FLAT:?Blocked@CBaseEntity@@UAEXPAV1@@Z
	DD	FLAT:?MoveDone@CBaseEntity@@UAEXXZ
	DD	FLAT:?Respawn@CBaseEntity@@UAEPAV1@XZ
	DD	FLAT:?UpdateOwner@CBaseEntity@@UAEXXZ
	DD	FLAT:?FBecomeProne@CBaseEntity@@UAEHXZ
	DD	FLAT:?Center@CBaseEntity@@UAE?AVVector@@XZ
	DD	FLAT:?EyePosition@CBaseEntity@@UAE?AVVector@@XZ
	DD	FLAT:?EarPosition@CBaseEntity@@UAE?AVVector@@XZ
	DD	FLAT:?BodyTarget@CBaseEntity@@UAE?AVVector@@ABV2@@Z
	DD	FLAT:?IsPointSized@CBaseEntity@@UBEHXZ
	DD	FLAT:?Illumination@CBaseEntity@@UAEHXZ
	DD	FLAT:?FVisible@CBaseEntity@@UAEHABVVector@@@Z
	DD	FLAT:?FVisible@CBaseEntity@@UAEHPAV1@@Z
	DD	FLAT:?ShouldCollide@CBaseEntity@@UAEHPAV1@@Z
	DD	FLAT:?ClearEffects@CBaseEntity@@UAEXXZ
CONST	ENDS
;	COMDAT ??_C@_0BD@DOKDOHJH@player?1sprayer?4wav?$AA@
CONST	SEGMENT
??_C@_0BD@DOKDOHJH@player?1sprayer?4wav?$AA@ DB 'player/sprayer.wav', 00H ; `string'
CONST	ENDS
;	COMDAT ??_7CSprayCan@@6B@
CONST	SEGMENT
??_7CSprayCan@@6B@ DD FLAT:??_R4CSprayCan@@6B@		; CSprayCan::`vftable'
	DD	FLAT:?GetDataDescMap@CBaseEntity@@UAEPAUdatamap_s@@XZ
	DD	FLAT:?Spawn@CBaseEntity@@UAEXXZ
	DD	FLAT:?Precache@CBaseEntity@@UAEXXZ
	DD	FLAT:?KeyValue@CBaseEntity@@UAEXPAUKeyValueData_s@@@Z
	DD	FLAT:?Save@CBaseEntity@@UAEHAAVCSave@@@Z
	DD	FLAT:?Restore@CBaseEntity@@UAEHAAVCRestore@@@Z
	DD	FLAT:?ObjectCaps@CSprayCan@@UAEHXZ
	DD	FLAT:?Activate@CBaseEntity@@UAEXXZ
	DD	FLAT:?OnChangeLevel@CBaseEntity@@UAEXXZ
	DD	FLAT:?OnTeleport@CBaseEntity@@UAEXXZ
	DD	FLAT:?PortalSleep@CBaseEntity@@UAEXM@Z
	DD	FLAT:?StartMessage@CBaseEntity@@UAEXPAVCBasePlayer@@@Z
	DD	FLAT:?GetPosition@CBaseEntity@@UAEMXZ
	DD	FLAT:?OnChangeParent@CBaseEntity@@UAEXXZ
	DD	FLAT:?OnClearParent@CBaseEntity@@UAEXXZ
	DD	FLAT:?OnRemove@CBaseEntity@@UAEXXZ
	DD	FLAT:?SetObjectCollisionBox@CBaseEntity@@UAEXXZ
	DD	FLAT:?Classify@CBaseEntity@@UAEHXZ
	DD	FLAT:?DeathNotice@CBaseEntity@@UAEXPAUentvars_s@@@Z
	DD	FLAT:?IsRigidBody@CBaseEntity@@UAEHXZ
	DD	FLAT:?SetNextThink@CBaseEntity@@UAEXM@Z
	DD	FLAT:?GetState@CBaseEntity@@UAE?AW4STATE@@PAV1@@Z
	DD	FLAT:?GetState@CBaseEntity@@UAE?AW4STATE@@XZ
	DD	FLAT:?TraceAttack@CBaseEntity@@UAEXPAUentvars_s@@MVVector@@PAUgametrace_s@@H@Z
	DD	FLAT:?TakeDamage@CBaseEntity@@UAEHPAUentvars_s@@0MH@Z
	DD	FLAT:?TakeHealth@CBaseEntity@@UAEHMH@Z
	DD	FLAT:?TakeArmor@CBaseEntity@@UAEHMH@Z
	DD	FLAT:?Killed@CBaseEntity@@UAEXPAUentvars_s@@H@Z
	DD	FLAT:?BloodColor@CBaseEntity@@UAEHXZ
	DD	FLAT:?TraceBleed@CBaseEntity@@UAEXMVVector@@PAUgametrace_s@@H@Z
	DD	FLAT:?IsTriggered@CBaseEntity@@UAEHPAV1@@Z
	DD	FLAT:?MyMonsterPointer@CBaseEntity@@UAEPAVCBaseMonster@@XZ
	DD	FLAT:?MySquadMonsterPointer@CBaseEntity@@UAEPAVCSquadMonster@@XZ
	DD	FLAT:?GetToggleState@CBaseEntity@@UAEHXZ
	DD	FLAT:?AddPoints@CBaseEntity@@UAEXHH@Z
	DD	FLAT:?AddPointsToTeam@CBaseEntity@@UAEXHH@Z
	DD	FLAT:?AddPlayerItem@CBaseEntity@@UAEHPAVCBasePlayerItem@@@Z
	DD	FLAT:?RemovePlayerItem@CBaseEntity@@UAEHPAVCBasePlayerItem@@@Z
	DD	FLAT:?GiveAmmo@CBaseEntity@@UAEHHPADH@Z
	DD	FLAT:?GetDelay@CBaseEntity@@UAEMXZ
	DD	FLAT:?IsMoving@CBaseEntity@@UAEHXZ
	DD	FLAT:?OverrideReset@CBaseEntity@@UAEXXZ
	DD	FLAT:?TransferReset@CBaseEntity@@UAEXXZ
	DD	FLAT:?DamageDecal@CBaseEntity@@UAEHH@Z
	DD	FLAT:?SetToggleState@CBaseEntity@@UAEXH@Z
	DD	FLAT:?StartSneaking@CBaseEntity@@UAEXXZ
	DD	FLAT:?StopSneaking@CBaseEntity@@UAEXXZ
	DD	FLAT:?OnControls@CBaseEntity@@UAEHPAV1@@Z
	DD	FLAT:?IsSneaking@CBaseEntity@@UAEHXZ
	DD	FLAT:?IsAlive@CBaseEntity@@UAEHXZ
	DD	FLAT:?IsBSPModel@CBaseEntity@@UAEHXZ
	DD	FLAT:?IsCustomModel@CBaseEntity@@UAEHXZ
	DD	FLAT:?ReflectGauss@CBaseEntity@@UAEHXZ
	DD	FLAT:?HasTarget@CBaseEntity@@UAEHH@Z
	DD	FLAT:?IsInWorld@CBaseEntity@@UAEHH@Z
	DD	FLAT:?IsPlayer@CBaseEntity@@UAEHXZ
	DD	FLAT:?IsNetClient@CBaseEntity@@UAEHXZ
	DD	FLAT:?IsMonster@CBaseEntity@@UAEHXZ
	DD	FLAT:?IsPushable@CBaseEntity@@UAEHXZ
	DD	FLAT:?IsProjectile@CBaseEntity@@UAEHXZ
	DD	FLAT:?IsFuncScreen@CBaseEntity@@UAEHXZ
	DD	FLAT:?IsPortal@CBaseEntity@@UAEHXZ
	DD	FLAT:?IsTank@CBaseEntity@@UAEHXZ
	DD	FLAT:?IsMover@CBaseEntity@@UAEHXZ
	DD	FLAT:?IsBreakable@CBaseEntity@@UAEHXZ
	DD	FLAT:?TeamID@CBaseEntity@@UAEPBDXZ
	DD	FLAT:?AddSpawnFlags@CBaseEntity@@UAEXH@Z
	DD	FLAT:?HasSpawnFlags@CBaseEntity@@UBE_NH@Z
	DD	FLAT:?SetFadeDistance@CBaseEntity@@UAEXH@Z
	DD	FLAT:?SetFlag@CBaseEntity@@UAEXH@Z
	DD	FLAT:?HasFlag@CBaseEntity@@UBE_NH@Z
	DD	FLAT:?RemoveFlag@CBaseEntity@@UAEXH@Z
	DD	FLAT:?SetNullModel@CBaseEntity@@UAEXXZ
	DD	FLAT:?OnPickupObject@CBaseEntity@@UAEXXZ
	DD	FLAT:?OnDropObject@CBaseEntity@@UAEXXZ
	DD	FLAT:?GetNextTarget@CBaseEntity@@UAEPAV1@XZ
	DD	FLAT:?Think@CSprayCan@@UAEXXZ
	DD	FLAT:?Use@CBaseEntity@@UAEXPAV1@0W4USE_TYPE@@M@Z
	DD	FLAT:?Touch@CBaseEntity@@UAEXPAV1@@Z
	DD	FLAT:?Blocked@CBaseEntity@@UAEXPAV1@@Z
	DD	FLAT:?MoveDone@CBaseEntity@@UAEXXZ
	DD	FLAT:?Respawn@CBaseEntity@@UAEPAV1@XZ
	DD	FLAT:?UpdateOwner@CBaseEntity@@UAEXXZ
	DD	FLAT:?FBecomeProne@CBaseEntity@@UAEHXZ
	DD	FLAT:?Center@CBaseEntity@@UAE?AVVector@@XZ
	DD	FLAT:?EyePosition@CBaseEntity@@UAE?AVVector@@XZ
	DD	FLAT:?EarPosition@CBaseEntity@@UAE?AVVector@@XZ
	DD	FLAT:?BodyTarget@CBaseEntity@@UAE?AVVector@@ABV2@@Z
	DD	FLAT:?IsPointSized@CBaseEntity@@UBEHXZ
	DD	FLAT:?Illumination@CBaseEntity@@UAEHXZ
	DD	FLAT:?FVisible@CBaseEntity@@UAEHABVVector@@@Z
	DD	FLAT:?FVisible@CBaseEntity@@UAEHPAV1@@Z
	DD	FLAT:?ShouldCollide@CBaseEntity@@UAEHPAV1@@Z
	DD	FLAT:?ClearEffects@CBaseEntity@@UAEXXZ
CONST	ENDS
;	COMDAT ??_C@_0BA@PAIIGCLL@No?5Landmark?3?$CFs?6?$AA@
CONST	SEGMENT
??_C@_0BA@PAIIGCLL@No?5Landmark?3?$CFs?6?$AA@ DB 'No Landmark:%s', 0aH, 00H ; `string'
CONST	ENDS
;	COMDAT ??_C@_0BA@MDAHEIMO@?$CGCFlare?3?3Ignite?$AA@
CONST	SEGMENT
??_C@_0BA@MDAHEIMO@?$CGCFlare?3?3Ignite?$AA@ DB '&CFlare::Ignite', 00H ; `string'
CONST	ENDS
;	COMDAT ??_C@_0BF@NMDELAMK@?$CGCFlare?3?3BounceTouch?$AA@
CONST	SEGMENT
??_C@_0BF@NMDELAMK@?$CGCFlare?3?3BounceTouch?$AA@ DB '&CFlare::BounceTouc'
	DB	'h', 00H					; `string'
CONST	ENDS
;	COMDAT ??_C@_0L@IGMOOOCC@item_flare?$AA@
CONST	SEGMENT
??_C@_0L@IGMOOOCC@item_flare?$AA@ DB 'item_flare', 00H	; `string'
CONST	ENDS
;	COMDAT ??_C@_04HALMDEDO@robo?$AA@
CONST	SEGMENT
??_C@_04HALMDEDO@robo?$AA@ DB 'robo', 00H		; `string'
CONST	ENDS
;	COMDAT ??_C@_05NCCFOPHA@model?$AA@
CONST	SEGMENT
??_C@_05NCCFOPHA@model?$AA@ DB 'model', 00H		; `string'
CONST	ENDS
;	COMDAT ??_C@_0CD@CNGHKPLI@Couldn?8t?5alloc?5player?5sound?5slot@
CONST	SEGMENT
??_C@_0CD@CNGHKPLI@Couldn?8t?5alloc?5player?5sound?5slot@ DB 'Couldn''t a'
	DB	'lloc player sound slot!', 0aH, 00H		; `string'
CONST	ENDS
;	COMDAT ??_C@_0BC@NCILMEI@models?1player?4mdl?$AA@
CONST	SEGMENT
??_C@_0BC@NCILMEI@models?1player?4mdl?$AA@ DB 'models/player.mdl', 00H ; `string'
CONST	ENDS
;	COMDAT ??_C@_05DKELCLGM@incar?$AA@
CONST	SEGMENT
??_C@_05DKELCLGM@incar?$AA@ DB 'incar', 00H		; `string'
CONST	ENDS
;	COMDAT ??_C@_02IPDCJINO@hl?$AA@
CONST	SEGMENT
??_C@_02IPDCJINO@hl?$AA@ DB 'hl', 00H			; `string'
CONST	ENDS
;	COMDAT ??_C@_01HIHLOKLC@1?$AA@
CONST	SEGMENT
??_C@_01HIHLOKLC@1?$AA@ DB '1', 00H			; `string'
CONST	ENDS
;	COMDAT ??_C@_03HJOOJOPI@slj?$AA@
CONST	SEGMENT
??_C@_03HJOOJOPI@slj?$AA@ DB 'slj', 00H			; `string'
CONST	ENDS
;	COMDAT ??_C@_01GBGANLPD@0?$AA@
CONST	SEGMENT
??_C@_01GBGANLPD@0?$AA@ DB '0', 00H			; `string'
CONST	ENDS
;	COMDAT ??_C@_07IAEFOCFG@?$CKplayer?$AA@
CONST	SEGMENT
??_C@_07IAEFOCFG@?$CKplayer?$AA@ DB '*player', 00H	; `string'
CONST	ENDS
;	COMDAT ??_C@_0DB@JJPGFIEH@PutClientInServer?3?5no?5info_playe@
CONST	SEGMENT
??_C@_0DB@JJPGFIEH@PutClientInServer?3?5no?5info_playe@ DB 'PutClientInSe'
	DB	'rver: no info_player_start on level', 00H	; `string'
CONST	ENDS
;	COMDAT ??_C@_0BH@IGAFCIL@info_player_deathmatch?$AA@
CONST	SEGMENT
??_C@_0BH@IGAFCIL@info_player_deathmatch?$AA@ DB 'info_player_deathmatch', 00H ; `string'
CONST	ENDS
;	COMDAT ??_C@_0BC@IHPKIKNE@info_player_start?$AA@
CONST	SEGMENT
??_C@_0BC@IHPKIKNE@info_player_start?$AA@ DB 'info_player_start', 00H ; `string'
CONST	ENDS
;	COMDAT ??_C@_0BB@HKBBLLCA@info_player_coop?$AA@
CONST	SEGMENT
??_C@_0BB@HKBBLLCA@info_player_coop?$AA@ DB 'info_player_coop', 00H ; `string'
CONST	ENDS
;	COMDAT ??_C@_0BA@NDDDBKNL@player?1dash?4wav?$AA@
CONST	SEGMENT
??_C@_0BA@NDDDBKNL@player?1dash?4wav?$AA@ DB 'player/dash.wav', 00H ; `string'
CONST	ENDS
;	COMDAT ??_C@_0M@MCBKFJB@UTIL_NODASH?$AA@
CONST	SEGMENT
??_C@_0M@MCBKFJB@UTIL_NODASH?$AA@ DB 'UTIL_NODASH', 00H	; `string'
CONST	ENDS
;	COMDAT ??_C@_08ENJNJDN@?9sprint?6?$AA@
CONST	SEGMENT
??_C@_08ENJNJDN@?9sprint?6?$AA@ DB '-sprint', 0aH, 00H	; `string'
CONST	ENDS
;	COMDAT ??_C@_0BG@NMHDINGI@?$CK?5Monsterkill?5by?5?$CFs?$CB?6?$AA@
CONST	SEGMENT
??_C@_0BG@NMHDINGI@?$CK?5Monsterkill?5by?5?$CFs?$CB?6?$AA@ DB '* Monsterk'
	DB	'ill by %s!', 0aH, 00H			; `string'
CONST	ENDS
;	COMDAT ??_C@_0BE@KJENGHPK@?$CK?5Ultrakill?5by?5?$CFs?$CB?6?$AA@
CONST	SEGMENT
??_C@_0BE@KJENGHPK@?$CK?5Ultrakill?5by?5?$CFs?$CB?6?$AA@ DB '* Ultrakill '
	DB	'by %s!', 0aH, 00H				; `string'
CONST	ENDS
;	COMDAT ??_C@_0BD@PHFBFMIE@?$CK?5Megakill?5by?5?$CFs?$CB?6?$AA@
CONST	SEGMENT
??_C@_0BD@PHFBFMIE@?$CK?5Megakill?5by?5?$CFs?$CB?6?$AA@ DB '* Megakill by'
	DB	' %s!', 0aH, 00H				; `string'
CONST	ENDS
;	COMDAT ??_C@_0BE@GCMPODFL@?$CK?5Multikill?5by?5?$CFs?$CB?6?$AA@
CONST	SEGMENT
??_C@_0BE@GCMPODFL@?$CK?5Multikill?5by?5?$CFs?$CB?6?$AA@ DB '* Multikill '
	DB	'by %s!', 0aH, 00H				; `string'
CONST	ENDS
;	COMDAT ??_C@_0BF@FLJLACLL@?$CK?5Triplekill?5by?5?$CFs?$CB?6?$AA@
CONST	SEGMENT
??_C@_0BF@FLJLACLL@?$CK?5Triplekill?5by?5?$CFs?$CB?6?$AA@ DB '* Triplekil'
	DB	'l by %s!', 0aH, 00H				; `string'
CONST	ENDS
;	COMDAT ??_C@_0BF@HGBPEAJD@?$CK?5Doublekill?5by?5?$CFs?$CB?6?$AA@
CONST	SEGMENT
??_C@_0BF@HGBPEAJD@?$CK?5Doublekill?5by?5?$CFs?$CB?6?$AA@ DB '* Doublekil'
	DB	'l by %s!', 0aH, 00H				; `string'
CONST	ENDS
;	COMDAT ??_C@_0BG@OCGGNFAC@?$CK?5?$CFs?5is?5wicked?5sick?$CB?6?$AA@
CONST	SEGMENT
??_C@_0BG@OCGGNFAC@?$CK?5?$CFs?5is?5wicked?5sick?$CB?6?$AA@ DB '* %s is w'
	DB	'icked sick!', 0aH, 00H			; `string'
CONST	ENDS
;	COMDAT ??_C@_0BC@LEFOBPPK@?$CK?5?$CFs?5is?5godlike?$CB?6?$AA@
CONST	SEGMENT
??_C@_0BC@LEFOBPPK@?$CK?5?$CFs?5is?5godlike?$CB?6?$AA@ DB '* %s is godlik'
	DB	'e!', 0aH, 00H				; `string'
CONST	ENDS
;	COMDAT ??_C@_0BF@IOLJKCOB@?$CK?5?$CFs?5is?5on?5rampage?$CB?6?$AA@
CONST	SEGMENT
??_C@_0BF@IOLJKCOB@?$CK?5?$CFs?5is?5on?5rampage?$CB?6?$AA@ DB '* %s is on'
	DB	' rampage!', 0aH, 00H			; `string'
CONST	ENDS
;	COMDAT ??_C@_0BF@HFEKJMA@?$CK?5?$CFs?5is?5dominating?$CB?6?$AA@
CONST	SEGMENT
??_C@_0BF@HFEKJMA@?$CK?5?$CFs?5is?5dominating?$CB?6?$AA@ DB '* %s is domi'
	DB	'nating!', 0aH, 00H				; `string'
CONST	ENDS
;	COMDAT ??_C@_0BL@PCFBHANF@?$CK?5?$CFs?5is?5on?5killing?5spree?$CB?6?$AA@
CONST	SEGMENT
??_C@_0BL@PCFBHANF@?$CK?5?$CFs?5is?5on?5killing?5spree?$CB?6?$AA@ DB '* %'
	DB	's is on killing spree!', 0aH, 00H		; `string'
CONST	ENDS
;	COMDAT ??_C@_0BC@NMOOKIKJ@UTIL_SPAWNPROTECT?$AA@
CONST	SEGMENT
??_C@_0BC@NMOOKIKJ@UTIL_SPAWNPROTECT?$AA@ DB 'UTIL_SPAWNPROTECT', 00H ; `string'
CONST	ENDS
;	COMDAT ??_C@_0BG@COHGMGOL@common?1bodysplat3?4wav?$AA@
CONST	SEGMENT
??_C@_0BG@COHGMGOL@common?1bodysplat3?4wav?$AA@ DB 'common/bodysplat3.wav'
	DB	00H						; `string'
CONST	ENDS
;	COMDAT ??_C@_0BG@OFCKBFEO@common?1bodysplat2?4wav?$AA@
CONST	SEGMENT
??_C@_0BG@OFCKBFEO@common?1bodysplat2?4wav?$AA@ DB 'common/bodysplat2.wav'
	DB	00H						; `string'
CONST	ENDS
;	COMDAT ??_C@_0BG@GDLOGHOA@common?1bodysplat1?4wav?$AA@
CONST	SEGMENT
??_C@_0BG@GDLOGHOA@common?1bodysplat1?4wav?$AA@ DB 'common/bodysplat1.wav'
	DB	00H						; `string'
CONST	ENDS
;	COMDAT ??_C@_0BN@DEDLJHDB@Client?5lost?5reserved?5sound?$CB?6?$AA@
CONST	SEGMENT
??_C@_0BN@DEDLJHDB@Client?5lost?5reserved?5sound?$CB?6?$AA@ DB 'Client lo'
	DB	'st reserved sound!', 0aH, 00H		; `string'
CONST	ENDS
;	COMDAT ??_C@_01DCLJPIOD@?$CB?$AA@
CONST	SEGMENT
??_C@_01DCLJPIOD@?$CB?$AA@ DB '!', 00H			; `string'
CONST	ENDS
;	COMDAT ??_C@_0L@BFLOMJEF@suitvolume?$AA@
CONST	SEGMENT
??_C@_0L@BFLOMJEF@suitvolume?$AA@ DB 'suitvolume', 00H	; `string'
CONST	ENDS
;	COMDAT ??_C@_0L@BOMMJLDE@?$CBHEV_HEAL4?$AA@
CONST	SEGMENT
??_C@_0L@BOMMJLDE@?$CBHEV_HEAL4?$AA@ DB '!HEV_HEAL4', 00H ; `string'
CONST	ENDS
;	COMDAT ??_C@_0BI@PHCHCNAK@player?1electroblast?4wav?$AA@
CONST	SEGMENT
??_C@_0BI@PHCHCNAK@player?1electroblast?4wav?$AA@ DB 'player/electroblast'
	DB	'.wav', 00H					; `string'
CONST	ENDS
;	COMDAT ??_C@_0N@JNHJOOAO@UTIL_NOBLAST?$AA@
CONST	SEGMENT
??_C@_0N@JNHJOOAO@UTIL_NOBLAST?$AA@ DB 'UTIL_NOBLAST', 00H ; `string'
CONST	ENDS
;	COMDAT ??_C@_0BD@HKACEDMJ@tutor_electroblast?$AA@
CONST	SEGMENT
??_C@_0BD@HKACEDMJ@tutor_electroblast?$AA@ DB 'tutor_electroblast', 00H ; `string'
CONST	ENDS
;	COMDAT ??_C@_0BL@CCHDOCFE@loudness_restriction_relay?$AA@
CONST	SEGMENT
??_C@_0BL@CCHDOCFE@loudness_restriction_relay?$AA@ DB 'loudness_restricti'
	DB	'on_relay', 00H				; `string'
CONST	ENDS
;	COMDAT ??_C@_0BH@PBAMGHLC@drone?1drone_shoot3?4wav?$AA@
CONST	SEGMENT
??_C@_0BH@PBAMGHLC@drone?1drone_shoot3?4wav?$AA@ DB 'drone/drone_shoot3.w'
	DB	'av', 00H					; `string'
CONST	ENDS
;	COMDAT ??_C@_0BH@DKFALEBH@drone?1drone_shoot2?4wav?$AA@
CONST	SEGMENT
??_C@_0BH@DKFALEBH@drone?1drone_shoot2?4wav?$AA@ DB 'drone/drone_shoot2.w'
	DB	'av', 00H					; `string'
CONST	ENDS
;	COMDAT ??_C@_0BH@LMMEMGLJ@drone?1drone_shoot1?4wav?$AA@
CONST	SEGMENT
??_C@_0BH@LMMEMGLJ@drone?1drone_shoot1?4wav?$AA@ DB 'drone/drone_shoot1.w'
	DB	'av', 00H					; `string'
CONST	ENDS
;	COMDAT ??_C@_0P@NBBGBOBN@_friendlydrone?$AA@
CONST	SEGMENT
??_C@_0P@NBBGBOBN@_friendlydrone?$AA@ DB '_friendlydrone', 00H ; `string'
CONST	ENDS
;	COMDAT ??_C@_0O@GPPLHLBD@Drone?5active?$CB?$AA@
CONST	SEGMENT
??_C@_0O@GPPLHLBD@Drone?5active?$CB?$AA@ DB 'Drone active!', 00H ; `string'
CONST	ENDS
;	COMDAT ??_C@_0CI@LIJNIGJL@Drone?5HP?3?5?$CFi?6?6Distance?3?5?$CFi?5m?6?6Am@
CONST	SEGMENT
??_C@_0CI@LIJNIGJL@Drone?5HP?3?5?$CFi?6?6Distance?3?5?$CFi?5m?6?6Am@ DB 'D'
	DB	'rone HP: %i', 0aH, 0aH, 'Distance: %i m', 0aH, 0aH, 'Ammo: %i'
	DB	0aH, 00H					; `string'
CONST	ENDS
;	COMDAT ??_C@_0N@INNMLFB@_playerdrone?$AA@
CONST	SEGMENT
??_C@_0N@INNMLFB@_playerdrone?$AA@ DB '_playerdrone', 00H ; `string'
CONST	ENDS
;	COMDAT ??_C@_0BB@JICOKGKG@player?1throw?4wav?$AA@
CONST	SEGMENT
??_C@_0BB@JICOKGKG@player?1throw?4wav?$AA@ DB 'player/throw.wav', 00H ; `string'
CONST	ENDS
;	COMDAT ??_C@_0P@PLNDFJKL@UTIL_GRENSAFE1?$AA@
CONST	SEGMENT
??_C@_0P@PLNDFJKL@UTIL_GRENSAFE1?$AA@ DB 'UTIL_GRENSAFE1', 00H ; `string'
CONST	ENDS
;	COMDAT ??_C@_0P@NAPOAKGI@UTIL_GRENSAFE2?$AA@
CONST	SEGMENT
??_C@_0P@NAPOAKGI@UTIL_GRENSAFE2?$AA@ DB 'UTIL_GRENSAFE2', 00H ; `string'
CONST	ENDS
;	COMDAT ??_C@_0P@MJOFDLCJ@UTIL_GRENSAFE3?$AA@
CONST	SEGMENT
??_C@_0P@MJOFDLCJ@UTIL_GRENSAFE3?$AA@ DB 'UTIL_GRENSAFE3', 00H ; `string'
CONST	ENDS
;	COMDAT ??_C@_0N@IJDLNBAH@OBJ_NOACTIVE?$AA@
CONST	SEGMENT
??_C@_0N@IJDLNBAH@OBJ_NOACTIVE?$AA@ DB 'OBJ_NOACTIVE', 00H ; `string'
CONST	ENDS
;	COMDAT ??_C@_0L@GCFIDCJD@UTIL_SPAWN?$AA@
CONST	SEGMENT
??_C@_0L@GCFIDCJD@UTIL_SPAWN?$AA@ DB 'UTIL_SPAWN', 00H	; `string'
CONST	ENDS
;	COMDAT ??_C@_0L@KJIMBMOM@name?5?$CC?$CFs?$CC?6?$AA@
CONST	SEGMENT
??_C@_0L@KJIMBMOM@name?5?$CC?$CFs?$CC?6?$AA@ DB 'name "%s"', 0aH, 00H ; `string'
CONST	ENDS
;	COMDAT ??_C@_0L@FHCAHJCE@Newbie?5N?$CFi?$AA@
CONST	SEGMENT
??_C@_0L@FHCAHJCE@Newbie?5N?$CFi?$AA@ DB 'Newbie N%i', 00H ; `string'
CONST	ENDS
;	COMDAT ??_C@_07LFIJDALL@unnamed?$AA@
CONST	SEGMENT
??_C@_07LFIJDALL@unnamed?$AA@ DB 'unnamed', 00H		; `string'
CONST	ENDS
;	COMDAT ??_C@_0CE@HIJPEMKP@WP?5?$CFi?5?$FL?$CFi?$FN?0?5conn?5to?5?$CFi?5?$CFi?5?$CFi?5?$CFi?5@
CONST	SEGMENT
??_C@_0CE@HIJPEMKP@WP?5?$CFi?5?$FL?$CFi?$FN?0?5conn?5to?5?$CFi?5?$CFi?5?$CFi?5?$CFi?5@ DB 'W'
	DB	'P %i [%i], conn to %i %i %i %i %i', 0aH, 00H ; `string'
CONST	ENDS
;	COMDAT ??_C@_0BC@EEHHGDFA@player_keycatcher?$AA@
CONST	SEGMENT
??_C@_0BC@EEHHGDFA@player_keycatcher?$AA@ DB 'player_keycatcher', 00H ; `string'
CONST	ENDS
;	COMDAT ??_C@_03HNGFPACP@2?63?$AA@
CONST	SEGMENT
??_C@_03HNGFPACP@2?63?$AA@ DB '2', 0aH, '3', 00H	; `string'
CONST	ENDS
;	COMDAT ??_C@_02LAJDINOI@1?5?$AA@
CONST	SEGMENT
??_C@_02LAJDINOI@1?5?$AA@ DB '1 ', 00H			; `string'
CONST	ENDS
;	COMDAT ??_C@_03OFAPEBGM@?$CFs?6?$AA@
CONST	SEGMENT
??_C@_03OFAPEBGM@?$CFs?6?$AA@ DB '%s', 0aH, 00H		; `string'
CONST	ENDS
;	COMDAT ??_C@_0CF@GDFFABNH@1?5?$CFp1?62?5Health?3?5?$CFi2?$CF?$CF?63?5Armor?3?5?$CF@
CONST	SEGMENT
??_C@_0CF@GDFFABNH@1?5?$CFp1?62?5Health?3?5?$CFi2?$CF?$CF?63?5Armor?3?5?$CF@ DB '1'
	DB	' %p1', 0aH, '2 Health: %i2%%', 0aH, '3 Armor: %i3%%', 00H ; `string'
CONST	ENDS
;	COMDAT ??_C@_0P@NGCOJJFI@common?1use?4wav?$AA@
CONST	SEGMENT
??_C@_0P@NGCOJJFI@common?1use?4wav?$AA@ DB 'common/use.wav', 00H ; `string'
CONST	ENDS
;	COMDAT ??_C@_0BC@HILHAJGJ@common?1use_no?4wav?$AA@
CONST	SEGMENT
??_C@_0BC@HILHAJGJ@common?1use_no?4wav?$AA@ DB 'common/use_no.wav', 00H ; `string'
CONST	ENDS
;	COMDAT ??_C@_0BF@CHHJHBMH@plats?1train_use1?4wav?$AA@
CONST	SEGMENT
??_C@_0BF@CHHJHBMH@plats?1train_use1?4wav?$AA@ DB 'plats/train_use1.wav', 00H ; `string'
CONST	ENDS
;	COMDAT ??_C@_07PPNJOBJE@reload?6?$AA@
CONST	SEGMENT
??_C@_07PPNJOBJE@reload?6?$AA@ DB 'reload', 0aH, 00H	; `string'
CONST	ENDS
;	COMDAT ??_C@_0M@GOHMHEKN@UTIL_RELOAD?$AA@
CONST	SEGMENT
??_C@_0M@GOHMHEKN@UTIL_RELOAD?$AA@ DB 'UTIL_RELOAD', 00H ; `string'
CONST	ENDS
;	COMDAT ??_C@_0N@MIKDGMJO@UTIL_RESPAWN?$AA@
CONST	SEGMENT
??_C@_0N@MIKDGMJO@UTIL_RESPAWN?$AA@ DB 'UTIL_RESPAWN', 00H ; `string'
CONST	ENDS
;	COMDAT ??_C@_0BE@DIBFDHMN@player?1pl_swim4?4wav?$AA@
CONST	SEGMENT
??_C@_0BE@DIBFDHMN@player?1pl_swim4?4wav?$AA@ DB 'player/pl_swim4.wav', 00H ; `string'
CONST	ENDS
;	COMDAT ??_C@_0BE@CFBAAHHF@player?1pl_swim3?4wav?$AA@
CONST	SEGMENT
??_C@_0BE@CFBAAHHF@player?1pl_swim3?4wav?$AA@ DB 'player/pl_swim3.wav', 00H ; `string'
CONST	ENDS
;	COMDAT ??_C@_0BE@OOEMNENA@player?1pl_swim2?4wav?$AA@
CONST	SEGMENT
??_C@_0BE@OOEMNENA@player?1pl_swim2?4wav?$AA@ DB 'player/pl_swim2.wav', 00H ; `string'
CONST	ENDS
;	COMDAT ??_C@_0BE@GINIKGHO@player?1pl_swim1?4wav?$AA@
CONST	SEGMENT
??_C@_0BE@GINIKGHO@player?1pl_swim1?4wav?$AA@ DB 'player/pl_swim1.wav', 00H ; `string'
CONST	ENDS
;	COMDAT ??_C@_0BG@MDPIGKMD@player?1water_out3?4wav?$AA@
CONST	SEGMENT
??_C@_0BG@MDPIGKMD@player?1water_out3?4wav?$AA@ DB 'player/water_out3.wav'
	DB	00H						; `string'
CONST	ENDS
;	COMDAT ??_C@_0BG@IKELJGG@player?1water_out2?4wav?$AA@
CONST	SEGMENT
??_C@_0BG@IKELJGG@player?1water_out2?4wav?$AA@ DB 'player/water_out2.wav', 00H ; `string'
CONST	ENDS
;	COMDAT ??_C@_0BG@IODAMLMI@player?1water_out1?4wav?$AA@
CONST	SEGMENT
??_C@_0BG@IODAMLMI@player?1water_out1?4wav?$AA@ DB 'player/water_out1.wav'
	DB	00H						; `string'
CONST	ENDS
;	COMDAT ??_C@_0BH@GNKFDKPJ@player?1water_jump3?4wav?$AA@
CONST	SEGMENT
??_C@_0BH@GNKFDKPJ@player?1water_jump3?4wav?$AA@ DB 'player/water_jump3.w'
	DB	'av', 00H					; `string'
CONST	ENDS
;	COMDAT ??_C@_0BH@KGPJOJFM@player?1water_jump2?4wav?$AA@
CONST	SEGMENT
??_C@_0BH@KGPJOJFM@player?1water_jump2?4wav?$AA@ DB 'player/water_jump2.w'
	DB	'av', 00H					; `string'
CONST	ENDS
;	COMDAT ??_C@_0BH@CAGNJLPC@player?1water_jump1?4wav?$AA@
CONST	SEGMENT
??_C@_0BH@CAGNJLPC@player?1water_jump1?4wav?$AA@ DB 'player/water_jump1.w'
	DB	'av', 00H					; `string'
CONST	ENDS
;	COMDAT ??_C@_0BM@DAEMIDMF@player?1water_jump_hard2?4wav?$AA@
CONST	SEGMENT
??_C@_0BM@DAEMIDMF@player?1water_jump_hard2?4wav?$AA@ DB 'player/water_ju'
	DB	'mp_hard2.wav', 00H				; `string'
CONST	ENDS
;	COMDAT ??_C@_0BM@LGNIPBGL@player?1water_jump_hard1?4wav?$AA@
CONST	SEGMENT
??_C@_0BM@LGNIPBGL@player?1water_jump_hard1?4wav?$AA@ DB 'player/water_ju'
	DB	'mp_hard1.wav', 00H				; `string'
CONST	ENDS
;	COMDAT ??_C@_0BE@NINLJLLJ@footsteps?1wade2?4wav?$AA@
CONST	SEGMENT
??_C@_0BE@NINLJLLJ@footsteps?1wade2?4wav?$AA@ DB 'footsteps/wade2.wav', 00H ; `string'
CONST	ENDS
;	COMDAT ??_C@_0BE@FOEPOJBH@footsteps?1wade1?4wav?$AA@
CONST	SEGMENT
??_C@_0BE@FOEPOJBH@footsteps?1wade1?4wav?$AA@ DB 'footsteps/wade1.wav', 00H ; `string'
CONST	ENDS
;	COMDAT ??_C@_09CCBHOLHA@deep_idle?$AA@
CONST	SEGMENT
??_C@_09CCBHOLHA@deep_idle?$AA@ DB 'deep_idle', 00H	; `string'
CONST	ENDS
;	COMDAT ??_C@_09BMCFPIBI@walk_back?$AA@
CONST	SEGMENT
??_C@_09BMCFPIBI@walk_back?$AA@ DB 'walk_back', 00H	; `string'
CONST	ENDS
;	COMDAT ??_C@_08KJLCGBDC@run_back?$AA@
CONST	SEGMENT
??_C@_08KJLCGBDC@run_back?$AA@ DB 'run_back', 00H	; `string'
CONST	ENDS
;	COMDAT ??_C@_0L@FPEBAJAM@crawl_back?$AA@
CONST	SEGMENT
??_C@_0L@FPEBAJAM@crawl_back?$AA@ DB 'crawl_back', 00H	; `string'
CONST	ENDS
;	COMDAT ??_C@_0BF@FFGEKHDL@ref_reload_onehanded?$AA@
CONST	SEGMENT
??_C@_0BF@FFGEKHDL@ref_reload_onehanded?$AA@ DB 'ref_reload_onehanded', 00H ; `string'
CONST	ENDS
;	COMDAT ??_C@_0O@KPFFFEDH@crouch_shoot_?$AA@
CONST	SEGMENT
??_C@_0O@KPFFFEDH@crouch_shoot_?$AA@ DB 'crouch_shoot_', 00H ; `string'
CONST	ENDS
;	COMDAT ??_C@_0M@GDMFFFFJ@crouch_aim_?$AA@
CONST	SEGMENT
??_C@_0M@GDMFFFFJ@crouch_aim_?$AA@ DB 'crouch_aim_', 00H ; `string'
CONST	ENDS
;	COMDAT ??_C@_0L@IJFMLCAO@ref_shoot_?$AA@
CONST	SEGMENT
??_C@_0L@IJFMLCAO@ref_shoot_?$AA@ DB 'ref_shoot_', 00H	; `string'
CONST	ENDS
;	COMDAT ??_C@_08NFEGJCLM@ref_aim_?$AA@
CONST	SEGMENT
??_C@_08NFEGJCLM@ref_aim_?$AA@ DB 'ref_aim_', 00H	; `string'
CONST	ENDS
;	COMDAT ??_C@_0BB@CKFGPJNM@game_playerdeath?$AA@
CONST	SEGMENT
??_C@_0BB@CKFGPJNM@game_playerdeath?$AA@ DB 'game_playerdeath', 00H ; `string'
CONST	ENDS
;	COMDAT ??_C@_0BP@GJCADPCG@?$CGCBasePlayer?3?3PlayerDeathThink?$AA@
CONST	SEGMENT
??_C@_0BP@GJCADPCG@?$CGCBasePlayer?3?3PlayerDeathThink?$AA@ DB '&CBasePla'
	DB	'yer::PlayerDeathThink', 00H			; `string'
CONST	ENDS
;	COMDAT ??_C@_0BC@FMADJHLG@?$CGCWeaponBox?3?3Kill?$AA@
CONST	SEGMENT
??_C@_0BC@FMADJHLG@?$CGCWeaponBox?3?3Kill?$AA@ DB '&CWeaponBox::Kill', 00H ; `string'
CONST	ENDS
;	COMDAT ??_C@_09ENPIJEF@weaponbox?$AA@
CONST	SEGMENT
??_C@_09ENPIJEF@weaponbox?$AA@ DB 'weaponbox', 00H	; `string'
CONST	ENDS
;	COMDAT ??_C@_0L@OGFACHB@?$CBHEV_HLTH1?$AA@
CONST	SEGMENT
??_C@_0L@OGFACHB@?$CBHEV_HLTH1?$AA@ DB '!HEV_HLTH1', 00H ; `string'
CONST	ENDS
;	COMDAT ??_C@_09CENPLBEG@?$CBHEV_DMG7?$AA@
CONST	SEGMENT
??_C@_09CENPLBEG@?$CBHEV_DMG7?$AA@ DB '!HEV_DMG7', 00H	; `string'
CONST	ENDS
;	COMDAT ??_C@_0L@CFEIFBLC@?$CBHEV_HLTH2?$AA@
CONST	SEGMENT
??_C@_0L@CFEIFBLC@?$CBHEV_HLTH2?$AA@ DB '!HEV_HLTH2', 00H ; `string'
CONST	ENDS
;	COMDAT ??_C@_0L@DMFDGAPD@?$CBHEV_HLTH3?$AA@
CONST	SEGMENT
??_C@_0L@DMFDGAPD@?$CBHEV_HLTH3?$AA@ DB '!HEV_HLTH3', 00H ; `string'
CONST	ENDS
;	COMDAT ??_C@_0L@DFOBMIPH@?$CBHEV_HEAL7?$AA@
CONST	SEGMENT
??_C@_0L@DFOBMIPH@?$CBHEV_HEAL7?$AA@ DB '!HEV_HEAL7', 00H ; `string'
CONST	ENDS
;	COMDAT ??_C@_09LIGHOCAH@?$CBHEV_MED1?$AA@
CONST	SEGMENT
??_C@_09LIGHOCAH@?$CBHEV_MED1?$AA@ DB '!HEV_MED1', 00H	; `string'
CONST	ENDS
;	COMDAT ??_C@_09ICHMHAMF@?$CBHEV_DET2?$AA@
CONST	SEGMENT
??_C@_09ICHMHAMF@?$CBHEV_DET2?$AA@ DB '!HEV_DET2', 00H	; `string'
CONST	ENDS
;	COMDAT ??_C@_09LAEKBCEH@?$CBHEV_DET0?$AA@
CONST	SEGMENT
??_C@_09LAEKBCEH@?$CBHEV_DET0?$AA@ DB '!HEV_DET0', 00H	; `string'
CONST	ENDS
;	COMDAT ??_C@_09KJFBCDAG@?$CBHEV_DET1?$AA@
CONST	SEGMENT
??_C@_09KJFBCDAG@?$CBHEV_DET1?$AA@ DB '!HEV_DET1', 00H	; `string'
CONST	ENDS
;	COMDAT ??_C@_09EALDHEEC@?$CBHEV_DMG3?$AA@
CONST	SEGMENT
??_C@_09EALDHEEC@?$CBHEV_DMG3?$AA@ DB '!HEV_DMG3', 00H	; `string'
CONST	ENDS
;	COMDAT ??_C@_09FJKIEFAD@?$CBHEV_DMG2?$AA@
CONST	SEGMENT
??_C@_09FJKIEFAD@?$CBHEV_DMG2?$AA@ DB '!HEV_DMG2', 00H	; `string'
CONST	ENDS
;	COMDAT ??_C@_09GLJOCHIB@?$CBHEV_DMG0?$AA@
CONST	SEGMENT
??_C@_09GLJOCHIB@?$CBHEV_DMG0?$AA@ DB '!HEV_DMG0', 00H	; `string'
CONST	ENDS
;	COMDAT ??_C@_09HCIFBGMA@?$CBHEV_DMG1?$AA@
CONST	SEGMENT
??_C@_09HCIFBGMA@?$CBHEV_DMG1?$AA@ DB '!HEV_DMG1', 00H	; `string'
CONST	ENDS
;	COMDAT ??_C@_09DNMEIAAH@?$CBHEV_DMG6?$AA@
CONST	SEGMENT
??_C@_09DNMEIAAH@?$CBHEV_DMG6?$AA@ DB '!HEV_DMG6', 00H	; `string'
CONST	ENDS
;	COMDAT ??_C@_09BGOJNDME@?$CBHEV_DMG5?$AA@
CONST	SEGMENT
??_C@_09BGOJNDME@?$CBHEV_DMG5?$AA@ DB '!HEV_DMG5', 00H	; `string'
CONST	ENDS
;	COMDAT ??_C@_09PPCOCIF@?$CBHEV_DMG4?$AA@
CONST	SEGMENT
??_C@_09PPCOCIF@?$CBHEV_DMG4?$AA@ DB '!HEV_DMG4', 00H	; `string'
CONST	ENDS
;	COMDAT ??_C@_0L@COAPIKGO@playerball?$AA@
CONST	SEGMENT
??_C@_0L@COAPIKGO@playerball?$AA@ DB 'playerball', 00H	; `string'
CONST	ENDS
;	COMDAT ??_C@_0BF@JMJFIGDL@drone?1drone_hit5?4wav?$AA@
CONST	SEGMENT
??_C@_0BF@JMJFIGDL@drone?1drone_hit5?4wav?$AA@ DB 'drone/drone_hit5.wav', 00H ; `string'
CONST	ENDS
;	COMDAT ??_C@_0BF@FHMJFFJO@drone?1drone_hit4?4wav?$AA@
CONST	SEGMENT
??_C@_0BF@FHMJFFJO@drone?1drone_hit4?4wav?$AA@ DB 'drone/drone_hit4.wav', 00H ; `string'
CONST	ENDS
;	COMDAT ??_C@_0BF@EKMMGFCG@drone?1drone_hit3?4wav?$AA@
CONST	SEGMENT
??_C@_0BF@EKMMGFCG@drone?1drone_hit3?4wav?$AA@ DB 'drone/drone_hit3.wav', 00H ; `string'
CONST	ENDS
;	COMDAT ??_C@_0BF@IBJALGID@drone?1drone_hit2?4wav?$AA@
CONST	SEGMENT
??_C@_0BF@IBJALGID@drone?1drone_hit2?4wav?$AA@ DB 'drone/drone_hit2.wav', 00H ; `string'
CONST	ENDS
;	COMDAT ??_C@_0BF@HAEMECN@drone?1drone_hit1?4wav?$AA@
CONST	SEGMENT
??_C@_0BF@HAEMECN@drone?1drone_hit1?4wav?$AA@ DB 'drone/drone_hit1.wav', 00H ; `string'
CONST	ENDS
;	COMDAT ??_C@_0BC@MPKOBDMG@info_intermission?$AA@
CONST	SEGMENT
??_C@_0BC@MPKOBDMG@info_intermission?$AA@ DB 'info_intermission', 00H ; `string'
CONST	ENDS
;	COMDAT ??_C@_08EEOINLBI@HEV_DEAD?$AA@
CONST	SEGMENT
??_C@_08EEOINLBI@HEV_DEAD?$AA@ DB 'HEV_DEAD', 00H	; `string'
CONST	ENDS
;	COMDAT ??_C@_0BE@LLIENPAG@player?1pl_pain7?4wav?$AA@
CONST	SEGMENT
??_C@_0BE@LLIENPAG@player?1pl_pain7?4wav?$AA@ DB 'player/pl_pain7.wav', 00H ; `string'
CONST	ENDS
;	COMDAT ??_C@_0BE@HANIAMKD@player?1pl_pain6?4wav?$AA@
CONST	SEGMENT
??_C@_0BE@HANIAMKD@player?1pl_pain6?4wav?$AA@ DB 'player/pl_pain6.wav', 00H ; `string'
CONST	ENDS
;	COMDAT ??_C@_0BE@PGEMHOAN@player?1pl_pain5?4wav?$AA@
CONST	SEGMENT
??_C@_0BE@PGEMHOAN@player?1pl_pain5?4wav?$AA@ DB 'player/pl_pain5.wav', 00H ; `string'
CONST	ENDS
;	COMDAT ??_C@_06BALNJMNP@player?$AA@
CONST	SEGMENT
??_C@_06BALNJMNP@player?$AA@ DB 'player', 00H		; `string'
CONST	ENDS
;	COMDAT ??_7?$CEntityFactory@VCBasePlayer@@@@6B@
CONST	SEGMENT
??_7?$CEntityFactory@VCBasePlayer@@@@6B@ DD FLAT:??_R4?$CEntityFactory@VCBasePlayer@@@@6B@ ; CEntityFactory<CBasePlayer>::`vftable'
	DD	FLAT:?Create@?$CEntityFactory@VCBasePlayer@@@@UAEPAVCBaseEntity@@PBDPAUentvars_s@@@Z
	DD	FLAT:?Destroy@?$CEntityFactory@VCBasePlayer@@@@UAEXPAVCBaseEntity@@@Z
	DD	FLAT:?GetEntitySize@?$CEntityFactory@VCBasePlayer@@@@UAEIXZ
CONST	ENDS
;	COMDAT ??_C@_08JCBCCJMO@GaussHUD?$AA@
CONST	SEGMENT
??_C@_08JCBCCJMO@GaussHUD?$AA@ DB 'GaussHUD', 00H	; `string'
CONST	ENDS
;	COMDAT ??_C@_0L@HDLMIABM@BlastIcons?$AA@
CONST	SEGMENT
??_C@_0L@HDLMIABM@BlastIcons?$AA@ DB 'BlastIcons', 00H	; `string'
CONST	ENDS
;	COMDAT ??_C@_0M@GHGEHHGI@WaterSplash?$AA@
CONST	SEGMENT
??_C@_0M@GHGEHHGI@WaterSplash?$AA@ DB 'WaterSplash', 00H ; `string'
CONST	ENDS
;	COMDAT ??_C@_07HKFHLAHE@TempEnt?$AA@
CONST	SEGMENT
??_C@_07HKFHLAHE@TempEnt?$AA@ DB 'TempEnt', 00H		; `string'
CONST	ENDS
;	COMDAT ??_C@_04LLODKBCK@Zoom?$AA@
CONST	SEGMENT
??_C@_04LLODKBCK@Zoom?$AA@ DB 'Zoom', 00H		; `string'
CONST	ENDS
;	COMDAT ??_C@_07MGCHCBIK@UseIcon?$AA@
CONST	SEGMENT
??_C@_07MGCHCBIK@UseIcon?$AA@ DB 'UseIcon', 00H		; `string'
CONST	ENDS
;	COMDAT ??_C@_0BA@DFFLEBCP@CrosshairStatic?$AA@
CONST	SEGMENT
??_C@_0BA@DFFLEBCP@CrosshairStatic?$AA@ DB 'CrosshairStatic', 00H ; `string'
CONST	ENDS
;	COMDAT ??_C@_0L@CPHIAPDB@SetupBones?$AA@
CONST	SEGMENT
??_C@_0L@CPHIAPDB@SetupBones?$AA@ DB 'SetupBones', 00H	; `string'
CONST	ENDS
;	COMDAT ??_C@_0BG@DIKIKBA@StatusIconAchievement?$AA@
CONST	SEGMENT
??_C@_0BG@DIKIKBA@StatusIconAchievement?$AA@ DB 'StatusIconAchievement', 00H ; `string'
CONST	ENDS
;	COMDAT ??_C@_0BA@HLCFMPA@StatusIconTutor?$AA@
CONST	SEGMENT
??_C@_0BA@HLCFMPA@StatusIconTutor?$AA@ DB 'StatusIconTutor', 00H ; `string'
CONST	ENDS
;	COMDAT ??_C@_0L@BOOHPCFL@StatusIcon?$AA@
CONST	SEGMENT
??_C@_0L@BOOHPCFL@StatusIcon?$AA@ DB 'StatusIcon', 00H	; `string'
CONST	ENDS
;	COMDAT ??_C@_09HMOJLOCD@MusicFade?$AA@
CONST	SEGMENT
??_C@_09HMOJLOCD@MusicFade?$AA@ DB 'MusicFade', 00H	; `string'
CONST	ENDS
;	COMDAT ??_C@_08HEDELBBN@RainData?$AA@
CONST	SEGMENT
??_C@_08HEDELBBN@RainData?$AA@ DB 'RainData', 00H	; `string'
CONST	ENDS
;	COMDAT ??_C@_0L@IBFKHCEP@KillDecals?$AA@
CONST	SEGMENT
??_C@_0L@IBFKHCEP@KillDecals?$AA@ DB 'KillDecals', 00H	; `string'
CONST	ENDS
;	COMDAT ??_C@_08BOBKHLMK@KillPart?$AA@
CONST	SEGMENT
??_C@_08BOBKHLMK@KillPart?$AA@ DB 'KillPart', 00H	; `string'
CONST	ENDS
;	COMDAT ??_C@_08HIFHGEKA@Particle?$AA@
CONST	SEGMENT
??_C@_08HIFHGEKA@Particle?$AA@ DB 'Particle', 00H	; `string'
CONST	ENDS
;	COMDAT ??_C@_09BLAOIMAB@CodeInput?$AA@
CONST	SEGMENT
??_C@_09BLAOIMAB@CodeInput?$AA@ DB 'CodeInput', 00H	; `string'
CONST	ENDS
;	COMDAT ??_C@_0L@MMOOACNB@Healthbars?$AA@
CONST	SEGMENT
??_C@_0L@MMOOACNB@Healthbars?$AA@ DB 'Healthbars', 00H	; `string'
CONST	ENDS
;	COMDAT ??_C@_0L@HDEEALFN@WeaponAnim?$AA@
CONST	SEGMENT
??_C@_0L@HDEEALFN@WeaponAnim?$AA@ DB 'WeaponAnim', 00H	; `string'
CONST	ENDS
;	COMDAT ??_C@_09BCJOCADI@Spectator?$AA@
CONST	SEGMENT
??_C@_09BCJOCADI@Spectator?$AA@ DB 'Spectator', 00H	; `string'
CONST	ENDS
;	COMDAT ??_C@_0M@GOKLPADN@StatusValue?$AA@
CONST	SEGMENT
??_C@_0M@GOKLPADN@StatusValue?$AA@ DB 'StatusValue', 00H ; `string'
CONST	ENDS
;	COMDAT ??_C@_0L@KLILBJK@StatusText?$AA@
CONST	SEGMENT
??_C@_0L@KLILBJK@StatusText?$AA@ DB 'StatusText', 00H	; `string'
CONST	ENDS
;	COMDAT ??_C@_09FOBMMBJB@TeamNames?$AA@
CONST	SEGMENT
??_C@_09FOBMMBJB@TeamNames?$AA@ DB 'TeamNames', 00H	; `string'
CONST	ENDS
;	COMDAT ??_C@_05BDDOEAPG@AmmoX?$AA@
CONST	SEGMENT
??_C@_05BDDOEAPG@AmmoX?$AA@ DB 'AmmoX', 00H		; `string'
CONST	ENDS
;	COMDAT ??_C@_0L@OBKHMDDA@ScreenFade?$AA@
CONST	SEGMENT
??_C@_0L@OBKHMDDA@ScreenFade?$AA@ DB 'ScreenFade', 00H	; `string'
CONST	ENDS
;	COMDAT ??_C@_0M@FNPJCEOM@ScreenShake?$AA@
CONST	SEGMENT
??_C@_0M@FNPJCEOM@ScreenShake?$AA@ DB 'ScreenShake', 00H ; `string'
CONST	ENDS
;	COMDAT ??_C@_08IGGENMMJ@ShowMenu?$AA@
CONST	SEGMENT
??_C@_08IGGENMMJ@ShowMenu?$AA@ DB 'ShowMenu', 00H	; `string'
CONST	ENDS
;	COMDAT ??_C@_06NJNDMID@SetFOV?$AA@
CONST	SEGMENT
??_C@_06NJNDMID@SetFOV?$AA@ DB 'SetFOV', 00H		; `string'
CONST	ENDS
;	COMDAT ??_C@_0L@IFFGJKPB@HideWeapon?$AA@
CONST	SEGMENT
??_C@_0L@IFFGJKPB@HideWeapon?$AA@ DB 'HideWeapon', 00H	; `string'
CONST	ENDS
;	COMDAT ??_C@_0L@NIFLCEON@ItemPickup?$AA@
CONST	SEGMENT
??_C@_0L@NIFLCEON@ItemPickup?$AA@ DB 'ItemPickup', 00H	; `string'
CONST	ENDS
;	COMDAT ??_C@_0L@FGOFFEAA@WeapPickup?$AA@
CONST	SEGMENT
??_C@_0L@FGOFFEAA@WeapPickup?$AA@ DB 'WeapPickup', 00H	; `string'
CONST	ENDS
;	COMDAT ??_C@_0L@EANOMKOP@AmmoPickup?$AA@
CONST	SEGMENT
??_C@_0L@EANOMKOP@AmmoPickup?$AA@ DB 'AmmoPickup', 00H	; `string'
CONST	ENDS
;	COMDAT ??_C@_0L@FFDIDHBB@ServerName?$AA@
CONST	SEGMENT
??_C@_0L@FFDIDHBB@ServerName?$AA@ DB 'ServerName', 00H	; `string'
CONST	ENDS
;	COMDAT ??_C@_04KFGJNABM@MOTD?$AA@
CONST	SEGMENT
??_C@_04KFGJNABM@MOTD?$AA@ DB 'MOTD', 00H		; `string'
CONST	ENDS
;	COMDAT ??_C@_08JJGOBBMF@GameMode?$AA@
CONST	SEGMENT
??_C@_08JJGOBBMF@GameMode?$AA@ DB 'GameMode', 00H	; `string'
CONST	ENDS
;	COMDAT ??_C@_09DEGMELBN@TeamScore?$AA@
CONST	SEGMENT
??_C@_09DEGMELBN@TeamScore?$AA@ DB 'TeamScore', 00H	; `string'
CONST	ENDS
;	COMDAT ??_C@_08BHMNHEND@TeamInfo?$AA@
CONST	SEGMENT
??_C@_08BHMNHEND@TeamInfo?$AA@ DB 'TeamInfo', 00H	; `string'
CONST	ENDS
;	COMDAT ??_C@_09CBJIIAKN@ScoreInfo?$AA@
CONST	SEGMENT
??_C@_09CBJIIAKN@ScoreInfo?$AA@ DB 'ScoreInfo', 00H	; `string'
CONST	ENDS
;	COMDAT ??_C@_08DMGIIAG@DeathMsg?$AA@
CONST	SEGMENT
??_C@_08DMGIIAG@DeathMsg?$AA@ DB 'DeathMsg', 00H	; `string'
CONST	ENDS
;	COMDAT ??_C@_09HEMANCP@GameTitle?$AA@
CONST	SEGMENT
??_C@_09HEMANCP@GameTitle?$AA@ DB 'GameTitle', 00H	; `string'
CONST	ENDS
;	COMDAT ??_C@_07PEONMAPN@InitHUD?$AA@
CONST	SEGMENT
??_C@_07PEONMAPN@InitHUD?$AA@ DB 'InitHUD', 00H		; `string'
CONST	ENDS
;	COMDAT ??_C@_08PEHACIKG@ResetHUD?$AA@
CONST	SEGMENT
??_C@_08PEHACIKG@ResetHUD?$AA@ DB 'ResetHUD', 00H	; `string'
CONST	ENDS
;	COMDAT ??_C@_0L@JMLCHIOL@WeaponList?$AA@
CONST	SEGMENT
??_C@_0L@JMLCHIOL@WeaponList?$AA@ DB 'WeaponList', 00H	; `string'
CONST	ENDS
;	COMDAT ??_C@_07GMGJNMMC@TextMsg?$AA@
CONST	SEGMENT
??_C@_07GMGJNMMC@TextMsg?$AA@ DB 'TextMsg', 00H		; `string'
CONST	ENDS
;	COMDAT ??_C@_07JAECCEML@SayText?$AA@
CONST	SEGMENT
??_C@_07JAECCEML@SayText?$AA@ DB 'SayText', 00H		; `string'
CONST	ENDS
;	COMDAT ??_C@_07JNEKKACO@HudText?$AA@
CONST	SEGMENT
??_C@_07JNEKKACO@HudText?$AA@ DB 'HudText', 00H		; `string'
CONST	ENDS
;	COMDAT ??_C@_05GFNCIBPC@Train?$AA@
CONST	SEGMENT
??_C@_05GFNCIBPC@Train?$AA@ DB 'Train', 00H		; `string'
CONST	ENDS
;	COMDAT ??_C@_07OFDFNCDP@Battery?$AA@
CONST	SEGMENT
??_C@_07OFDFNCDP@Battery?$AA@ DB 'Battery', 00H		; `string'
CONST	ENDS
;	COMDAT ??_C@_06KGFFMMMJ@Damage?$AA@
CONST	SEGMENT
??_C@_06KGFFMMMJ@Damage?$AA@ DB 'Damage', 00H		; `string'
CONST	ENDS
;	COMDAT ??_C@_07IDNIELMN@Stamina?$AA@
CONST	SEGMENT
??_C@_07IDNIELMN@Stamina?$AA@ DB 'Stamina', 00H		; `string'
CONST	ENDS
;	COMDAT ??_C@_0N@FOAEKJGA@HealthVisual?$AA@
CONST	SEGMENT
??_C@_0N@FOAEKJGA@HealthVisual?$AA@ DB 'HealthVisual', 00H ; `string'
CONST	ENDS
;	COMDAT ??_C@_06GGDALCBD@Health?$AA@
CONST	SEGMENT
??_C@_06GGDALCBD@Health?$AA@ DB 'Health', 00H		; `string'
CONST	ENDS
;	COMDAT ??_C@_0L@PALCELJK@Flashlight?$AA@
CONST	SEGMENT
??_C@_0L@PALCELJK@Flashlight?$AA@ DB 'Flashlight', 00H	; `string'
CONST	ENDS
;	COMDAT ??_C@_06NKMADNKG@Geiger?$AA@
CONST	SEGMENT
??_C@_06NKMADNKG@Geiger?$AA@ DB 'Geiger', 00H		; `string'
CONST	ENDS
;	COMDAT ??_C@_07DNEKOHB@Weapons?$AA@
CONST	SEGMENT
??_C@_07DNEKOHB@Weapons?$AA@ DB 'Weapons', 00H		; `string'
CONST	ENDS
;	COMDAT ??_C@_09PEGKEGNI@CurWeapon?$AA@
CONST	SEGMENT
??_C@_09PEGKEGNI@CurWeapon?$AA@ DB 'CurWeapon', 00H	; `string'
CONST	ENDS
;	COMDAT ??_C@_07OJHJAJOM@SelAmmo?$AA@
CONST	SEGMENT
??_C@_07OJHJAJOM@SelAmmo?$AA@ DB 'SelAmmo', 00H		; `string'
CONST	ENDS
;	COMDAT ??_C@_0BG@PIDKAPDC@LoudWeaponsRestricted?$AA@
CONST	SEGMENT
??_C@_0BG@PIDKAPDC@LoudWeaponsRestricted?$AA@ DB 'LoudWeaponsRestricted', 00H ; `string'
CONST	ENDS
;	COMDAT ??_C@_0BJ@HIKOGCFL@m_flLastWeaponSwitchTime?$AA@
CONST	SEGMENT
??_C@_0BJ@HIKOGCFL@m_flLastWeaponSwitchTime?$AA@ DB 'm_flLastWeaponSwitch'
	DB	'Time', 00H					; `string'
CONST	ENDS
;	COMDAT ??_C@_0P@NKBABMMH@WigglingEffect?$AA@
CONST	SEGMENT
??_C@_0P@NKBABMMH@WigglingEffect?$AA@ DB 'WigglingEffect', 00H ; `string'
CONST	ENDS
;	COMDAT ??_C@_0BA@LCKLAFIH@BreathingEffect?$AA@
CONST	SEGMENT
??_C@_0BA@LCKLAFIH@BreathingEffect?$AA@ DB 'BreathingEffect', 00H ; `string'
CONST	ENDS
;	COMDAT ??_C@_05JNNFIBGE@InCar?$AA@
CONST	SEGMENT
??_C@_05JNNFIBGE@InCar?$AA@ DB 'InCar', 00H		; `string'
CONST	ENDS
;	COMDAT ??_C@_04BNLCKFJN@pCar?$AA@
CONST	SEGMENT
??_C@_04BNLCKFJN@pCar?$AA@ DB 'pCar', 00H		; `string'
CONST	ENDS
;	COMDAT ??_C@_0BB@CEIBDHG@BlastDMGOverride?$AA@
CONST	SEGMENT
??_C@_0BB@CEIBDHG@BlastDMGOverride?$AA@ DB 'BlastDMGOverride', 00H ; `string'
CONST	ENDS
;	COMDAT ??_C@_0O@CJBAAHDA@LastBlastTime?$AA@
CONST	SEGMENT
??_C@_0O@CJBAAHDA@LastBlastTime?$AA@ DB 'LastBlastTime', 00H ; `string'
CONST	ENDS
;	COMDAT ??_C@_0BC@KANAJHLN@BlastChargesReady?$AA@
CONST	SEGMENT
??_C@_0BC@KANAJHLN@BlastChargesReady?$AA@ DB 'BlastChargesReady', 00H ; `string'
CONST	ENDS
;	COMDAT ??_C@_0BA@KGMBKOBC@BlastAbilityLVL?$AA@
CONST	SEGMENT
??_C@_0BA@KGMBKOBC@BlastAbilityLVL?$AA@ DB 'BlastAbilityLVL', 00H ; `string'
CONST	ENDS
;	COMDAT ??_C@_0BB@BHPOFMLN@AchievementStats?$AA@
CONST	SEGMENT
??_C@_0BB@BHPOFMLN@AchievementStats?$AA@ DB 'AchievementStats', 00H ; `string'
CONST	ENDS
;	COMDAT ??_C@_09EHHCJGPO@HadWeapon?$AA@
CONST	SEGMENT
??_C@_09EHHCJGPO@HadWeapon?$AA@ DB 'HadWeapon', 00H	; `string'
CONST	ENDS
;	COMDAT ??_C@_0BF@KGMJCOH@m_pFlashlightMonster?$AA@
CONST	SEGMENT
??_C@_0BF@KGMJCOH@m_pFlashlightMonster?$AA@ DB 'm_pFlashlightMonster', 00H ; `string'
CONST	ENDS
;	COMDAT ??_C@_0M@IFLFNFKM@HUDtextTime?$AA@
CONST	SEGMENT
??_C@_0M@IFLFNFKM@HUDtextTime?$AA@ DB 'HUDtextTime', 00H ; `string'
CONST	ENDS
;	COMDAT ??_C@_0BB@MPBENDA@ButtonFreezeTime?$AA@
CONST	SEGMENT
??_C@_0BB@MPBENDA@ButtonFreezeTime?$AA@ DB 'ButtonFreezeTime', 00H ; `string'
CONST	ENDS
;	COMDAT ??_C@_09JMJDKDBB@ZoomState?$AA@
CONST	SEGMENT
??_C@_09JMJDKDBB@ZoomState?$AA@ DB 'ZoomState', 00H	; `string'
CONST	ENDS
;	COMDAT ??_C@_0N@ONMPOLPN@CameraAngles?$AA@
CONST	SEGMENT
??_C@_0N@ONMPOLPN@CameraAngles?$AA@ DB 'CameraAngles', 00H ; `string'
CONST	ENDS
;	COMDAT ??_C@_0N@FHKDPOFI@CameraOrigin?$AA@
CONST	SEGMENT
??_C@_0N@FHKDPOFI@CameraOrigin?$AA@ DB 'CameraOrigin', 00H ; `string'
CONST	ENDS
;	COMDAT ??_C@_0N@OOBFPDED@CameraEntity?$AA@
CONST	SEGMENT
??_C@_0N@OOBFPDED@CameraEntity?$AA@ DB 'CameraEntity', 00H ; `string'
CONST	ENDS
;	COMDAT ??_C@_0BB@NPJHGPDK@m_AliceTextParms?$AA@
CONST	SEGMENT
??_C@_0BB@NPJHGPDK@m_AliceTextParms?$AA@ DB 'm_AliceTextParms', 00H ; `string'
CONST	ENDS
;	COMDAT ??_C@_0BB@HPHDGGGO@m_DroneTextParms?$AA@
CONST	SEGMENT
??_C@_0BB@HPHDGGGO@m_DroneTextParms?$AA@ DB 'm_DroneTextParms', 00H ; `string'
CONST	ENDS
;	COMDAT ??_C@_0N@PAINNOHL@DroneControl?$AA@
CONST	SEGMENT
??_C@_0N@PAINNOHL@DroneControl?$AA@ DB 'DroneControl', 00H ; `string'
CONST	ENDS
;	COMDAT ??_C@_08KONIALAC@m_hDrone?$AA@
CONST	SEGMENT
??_C@_08KONIALAC@m_hDrone?$AA@ DB 'm_hDrone', 00H	; `string'
CONST	ENDS
;	COMDAT ??_C@_09NBLPLBHK@DroneAmmo?$AA@
CONST	SEGMENT
??_C@_09NBLPLBHK@DroneAmmo?$AA@ DB 'DroneAmmo', 00H	; `string'
CONST	ENDS
;	COMDAT ??_C@_0M@DJOEGHKL@DroneHealth?$AA@
CONST	SEGMENT
??_C@_0M@DJOEGHKL@DroneHealth?$AA@ DB 'DroneHealth', 00H ; `string'
CONST	ENDS
;	COMDAT ??_C@_0O@JKAPNFC@DroneDeployed?$AA@
CONST	SEGMENT
??_C@_0O@JKAPNFC@DroneDeployed?$AA@ DB 'DroneDeployed', 00H ; `string'
CONST	ENDS
;	COMDAT ??_C@_0BD@INKAGJID@ShieldAvailableLVL?$AA@
CONST	SEGMENT
??_C@_0BD@INKAGJID@ShieldAvailableLVL?$AA@ DB 'ShieldAvailableLVL', 00H ; `string'
CONST	ENDS
;	COMDAT ??_C@_08HPAOMMPP@ShieldOn?$AA@
CONST	SEGMENT
??_C@_08HPAOMMPP@ShieldOn?$AA@ DB 'ShieldOn', 00H	; `string'
CONST	ENDS
;	COMDAT ??_C@_0N@CDFLBGHL@IsUpsideDown?$AA@
CONST	SEGMENT
??_C@_0N@CDFLBGHL@IsUpsideDown?$AA@ DB 'IsUpsideDown', 00H ; `string'
CONST	ENDS
;	COMDAT ??_C@_0BB@OKBPPAFE@LastUseCheckTime?$AA@
CONST	SEGMENT
??_C@_0BB@OKBPPAFE@LastUseCheckTime?$AA@ DB 'LastUseCheckTime', 00H ; `string'
CONST	ENDS
;	COMDAT ??_C@_09LOJKODCP@Submerged?$AA@
CONST	SEGMENT
??_C@_09LOJKODCP@Submerged?$AA@ DB 'Submerged', 00H	; `string'
CONST	ENDS
;	COMDAT ??_C@_0BA@OOFDKGLB@LastSwimUpSound?$AA@
CONST	SEGMENT
??_C@_0BA@OOFDKGLB@LastSwimUpSound?$AA@ DB 'LastSwimUpSound', 00H ; `string'
CONST	ENDS
;	COMDAT ??_C@_0O@OGCHBGEK@LastSwimSound?$AA@
CONST	SEGMENT
??_C@_0O@OGCHBGEK@LastSwimSound?$AA@ DB 'LastSwimSound', 00H ; `string'
CONST	ENDS
;	COMDAT ??_C@_0BK@LBFKPLHM@m_flLastTimeTutorWasShown?$AA@
CONST	SEGMENT
??_C@_0BK@LBFKPLHM@m_flLastTimeTutorWasShown?$AA@ DB 'm_flLastTimeTutorWa'
	DB	'sShown', 00H				; `string'
CONST	ENDS
;	COMDAT ??_C@_09EDDDEPIL@CountSlot?$AA@
CONST	SEGMENT
??_C@_09EDDDEPIL@CountSlot?$AA@ DB 'CountSlot', 00H	; `string'
CONST	ENDS
;	COMDAT ??_C@_0L@GGLHMPL@Objective2?$AA@
CONST	SEGMENT
??_C@_0L@GGLHMPL@Objective2?$AA@ DB 'Objective2', 00H	; `string'
CONST	ENDS
;	COMDAT ??_C@_09BFBOLFMF@Objective?$AA@
CONST	SEGMENT
??_C@_09BFBOLFMF@Objective?$AA@ DB 'Objective', 00H	; `string'
CONST	ENDS
;	COMDAT ??_C@_0BF@PEIGACLF@AchievementCheckTime?$AA@
CONST	SEGMENT
??_C@_0BF@PEIGACLF@AchievementCheckTime?$AA@ DB 'AchievementCheckTime', 00H ; `string'
CONST	ENDS
;	COMDAT ??_C@_0P@DBLGMANF@HUDSuitOffline?$AA@
CONST	SEGMENT
??_C@_0P@DBLGMANF@HUDSuitOffline?$AA@ DB 'HUDSuitOffline', 00H ; `string'
CONST	ENDS
;	COMDAT ??_C@_0BA@IADAMHLG@CanElectroBlast?$AA@
CONST	SEGMENT
??_C@_0BA@IADAMHLG@CanElectroBlast?$AA@ DB 'CanElectroBlast', 00H ; `string'
CONST	ENDS
;	COMDAT ??_C@_0BF@KBEBKGI@CanSelectEmptyWeapon?$AA@
CONST	SEGMENT
??_C@_0BF@KBEBKGI@CanSelectEmptyWeapon?$AA@ DB 'CanSelectEmptyWeapon', 00H ; `string'
CONST	ENDS
;	COMDAT ??_C@_08HBOENCGB@CanShoot?$AA@
CONST	SEGMENT
??_C@_08HBOENCGB@CanShoot?$AA@ DB 'CanShoot', 00H	; `string'
CONST	ENDS
;	COMDAT ??_C@_0L@BGPJLNNN@DrunkLevel?$AA@
CONST	SEGMENT
??_C@_0L@BGPJLNNN@DrunkLevel?$AA@ DB 'DrunkLevel', 00H	; `string'
CONST	ENDS
;	COMDAT ??_C@_0O@EMEEBIOC@WeaponLowered?$AA@
CONST	SEGMENT
??_C@_0O@EMEEBIOC@WeaponLowered?$AA@ DB 'WeaponLowered', 00H ; `string'
CONST	ENDS
;	COMDAT ??_C@_07KJCADMEO@CanMove?$AA@
CONST	SEGMENT
??_C@_07KJCADMEO@CanMove?$AA@ DB 'CanMove', 00H		; `string'
CONST	ENDS
;	COMDAT ??_C@_09DCLIKDFB@CanSprint?$AA@
CONST	SEGMENT
??_C@_09DCLIKDFB@CanSprint?$AA@ DB 'CanSprint', 00H	; `string'
CONST	ENDS
;	COMDAT ??_C@_07DGCPNCA@CanJump?$AA@
CONST	SEGMENT
??_C@_07DGCPNCA@CanJump?$AA@ DB 'CanJump', 00H		; `string'
CONST	ENDS
;	COMDAT ??_C@_06EADEOMMN@CanUse?$AA@
CONST	SEGMENT
??_C@_06EADEOMMN@CanUse?$AA@ DB 'CanUse', 00H		; `string'
CONST	ENDS
;	COMDAT ??_C@_07PHIKJFKK@CanDash?$AA@
CONST	SEGMENT
??_C@_07PHIKJFKK@CanDash?$AA@ DB 'CanDash', 00H		; `string'
CONST	ENDS
;	COMDAT ??_C@_06BOBCEPIP@Dashed?$AA@
CONST	SEGMENT
??_C@_06BOBCEPIP@Dashed?$AA@ DB 'Dashed', 00H		; `string'
CONST	ENDS
;	COMDAT ??_C@_0N@IJAJADOG@LastDashTime?$AA@
CONST	SEGMENT
??_C@_0N@IJAJADOG@LastDashTime?$AA@ DB 'LastDashTime', 00H ; `string'
CONST	ENDS
;	COMDAT ??_C@_0P@IOHCELFI@EnterWaterTime?$AA@
CONST	SEGMENT
??_C@_0P@IOHCELFI@EnterWaterTime?$AA@ DB 'EnterWaterTime', 00H ; `string'
CONST	ENDS
;	COMDAT ??_C@_0BE@MJOJDJGP@CanRegenerateHealth?$AA@
CONST	SEGMENT
??_C@_0BE@MJOJDJGP@CanRegenerateHealth?$AA@ DB 'CanRegenerateHealth', 00H ; `string'
CONST	ENDS
;	COMDAT ??_C@_0BA@BMJHBBIM@m_fTimeLastHurt?$AA@
CONST	SEGMENT
??_C@_0BA@BMJHBBIM@m_fTimeLastHurt?$AA@ DB 'm_fTimeLastHurt', 00H ; `string'
CONST	ENDS
;	COMDAT ??_C@_0BA@FNGGMEOG@m_flStaminaWait?$AA@
CONST	SEGMENT
??_C@_0BA@FNGGMEOG@m_flStaminaWait?$AA@ DB 'm_flStaminaWait', 00H ; `string'
CONST	ENDS
;	COMDAT ??_C@_0BB@KMPOPHML@m_flStaminaValue?$AA@
CONST	SEGMENT
??_C@_0BB@KMPOPHML@m_flStaminaValue?$AA@ DB 'm_flStaminaValue', 00H ; `string'
CONST	ENDS
;	COMDAT ??_C@_0BC@ONAGDPBH@NextBrokenDmgTime?$AA@
CONST	SEGMENT
??_C@_0BC@ONAGDPBH@NextBrokenDmgTime?$AA@ DB 'NextBrokenDmgTime', 00H ; `string'
CONST	ENDS
;	COMDAT ??_C@_0L@CCMMONIA@BrokenSuit?$AA@
CONST	SEGMENT
??_C@_0L@CCMMONIA@BrokenSuit?$AA@ DB 'BrokenSuit', 00H	; `string'
CONST	ENDS
;	COMDAT ??_C@_0P@DFELFACG@m_iSndRoomtype?$AA@
CONST	SEGMENT
??_C@_0P@DFELFACG@m_iSndRoomtype?$AA@ DB 'm_iSndRoomtype', 00H ; `string'
CONST	ENDS
;	COMDAT ??_C@_0BB@LAACDPFI@PlayerDeathThink?$AA@
CONST	SEGMENT
??_C@_0BB@LAACDPFI@PlayerDeathThink?$AA@ DB 'PlayerDeathThink', 00H ; `string'
CONST	ENDS
;	COMDAT ??_C@_0BJ@EIFNLFLK@?$CGCBaseEntity?3?3SUB_Remove?$AA@
CONST	SEGMENT
??_C@_0BJ@EIFNLFLK@?$CGCBaseEntity?3?3SUB_Remove?$AA@ DB '&CBaseEntity::S'
	DB	'UB_Remove', 00H				; `string'
CONST	ENDS
;	COMDAT ??_7CBasePlayer@@6B@
CONST	SEGMENT
??_7CBasePlayer@@6B@ DD FLAT:??_R4CBasePlayer@@6B@	; CBasePlayer::`vftable'
	DD	FLAT:?GetDataDescMap@CBasePlayer@@UAEPAUdatamap_s@@XZ
	DD	FLAT:?Spawn@CBasePlayer@@UAEXXZ
	DD	FLAT:?Precache@CBasePlayer@@UAEXXZ
	DD	FLAT:?KeyValue@CBaseMonster@@UAEXPAUKeyValueData_s@@@Z
	DD	FLAT:?Save@CBaseEntity@@UAEHAAVCSave@@@Z
	DD	FLAT:?Restore@CBasePlayer@@UAEHAAVCRestore@@@Z
	DD	FLAT:?ObjectCaps@CBasePlayer@@UAEHXZ
	DD	FLAT:?Activate@CBaseEntity@@UAEXXZ
	DD	FLAT:?OnChangeLevel@CBaseEntity@@UAEXXZ
	DD	FLAT:?OnTeleport@CBaseEntity@@UAEXXZ
	DD	FLAT:?PortalSleep@CBaseEntity@@UAEXM@Z
	DD	FLAT:?StartMessage@CBaseEntity@@UAEXPAVCBasePlayer@@@Z
	DD	FLAT:?GetPosition@CBaseEntity@@UAEMXZ
	DD	FLAT:?OnChangeParent@CBaseEntity@@UAEXXZ
	DD	FLAT:?OnClearParent@CBaseEntity@@UAEXXZ
	DD	FLAT:?OnRemove@CBaseEntity@@UAEXXZ
	DD	FLAT:?SetObjectCollisionBox@CBaseEntity@@UAEXXZ
	DD	FLAT:?Classify@CBasePlayer@@UAEHXZ
	DD	FLAT:?DeathNotice@CBaseEntity@@UAEXPAUentvars_s@@@Z
	DD	FLAT:?IsRigidBody@CBaseEntity@@UAEHXZ
	DD	FLAT:?SetNextThink@CBaseEntity@@UAEXM@Z
	DD	FLAT:?GetState@CBaseEntity@@UAE?AW4STATE@@PAV1@@Z
	DD	FLAT:?GetState@CBaseToggle@@UAE?AW4STATE@@XZ
	DD	FLAT:?TraceAttack@CBasePlayer@@UAEXPAUentvars_s@@MVVector@@PAUgametrace_s@@H@Z
	DD	FLAT:?TakeDamage@CBasePlayer@@UAEHPAUentvars_s@@0MH@Z
	DD	FLAT:?TakeHealth@CBasePlayer@@UAEHMH@Z
	DD	FLAT:?TakeArmor@CBaseEntity@@UAEHMH@Z
	DD	FLAT:?Killed@CBasePlayer@@UAEXPAUentvars_s@@H@Z
	DD	FLAT:?BloodColor@CBaseMonster@@UAEHXZ
	DD	FLAT:?TraceBleed@CBaseEntity@@UAEXMVVector@@PAUgametrace_s@@H@Z
	DD	FLAT:?IsTriggered@CBaseEntity@@UAEHPAV1@@Z
	DD	FLAT:?MyMonsterPointer@CBaseMonster@@UAEPAV1@XZ
	DD	FLAT:?MySquadMonsterPointer@CBaseEntity@@UAEPAVCSquadMonster@@XZ
	DD	FLAT:?GetToggleState@CBaseToggle@@UAEHXZ
	DD	FLAT:?AddPoints@CBasePlayer@@UAEXHH@Z
	DD	FLAT:?AddPointsToTeam@CBasePlayer@@UAEXHH@Z
	DD	FLAT:?AddPlayerItem@CBasePlayer@@UAEHPAVCBasePlayerItem@@@Z
	DD	FLAT:?RemovePlayerItem@CBasePlayer@@UAEHPAVCBasePlayerItem@@@Z
	DD	FLAT:?GiveAmmo@CBasePlayer@@UAEHHPADH@Z
	DD	FLAT:?GetDelay@CBaseToggle@@UAEMXZ
	DD	FLAT:?IsMoving@CBaseMonster@@UAEHXZ
	DD	FLAT:?OverrideReset@CBaseEntity@@UAEXXZ
	DD	FLAT:?TransferReset@CBasePlayer@@UAEXXZ
	DD	FLAT:?DamageDecal@CBaseMonster@@UAEHH@Z
	DD	FLAT:?SetToggleState@CBaseEntity@@UAEXH@Z
	DD	FLAT:?StartSneaking@CBasePlayer@@UAEXXZ
	DD	FLAT:?StopSneaking@CBasePlayer@@UAEXXZ
	DD	FLAT:?OnControls@CBaseEntity@@UAEHPAV1@@Z
	DD	FLAT:?IsSneaking@CBasePlayer@@UAEHXZ
	DD	FLAT:?IsAlive@CBasePlayer@@UAEHXZ
	DD	FLAT:?IsBSPModel@CBaseEntity@@UAEHXZ
	DD	FLAT:?IsCustomModel@CBaseEntity@@UAEHXZ
	DD	FLAT:?ReflectGauss@CBaseEntity@@UAEHXZ
	DD	FLAT:?HasTarget@CBaseEntity@@UAEHH@Z
	DD	FLAT:?IsInWorld@CBaseEntity@@UAEHH@Z
	DD	FLAT:?IsPlayer@CBasePlayer@@UAEHXZ
	DD	FLAT:?IsNetClient@CBasePlayer@@UAEHXZ
	DD	FLAT:?IsMonster@CBaseEntity@@UAEHXZ
	DD	FLAT:?IsPushable@CBaseEntity@@UAEHXZ
	DD	FLAT:?IsProjectile@CBaseEntity@@UAEHXZ
	DD	FLAT:?IsFuncScreen@CBaseEntity@@UAEHXZ
	DD	FLAT:?IsPortal@CBaseEntity@@UAEHXZ
	DD	FLAT:?IsTank@CBaseEntity@@UAEHXZ
	DD	FLAT:?IsMover@CBaseEntity@@UAEHXZ
	DD	FLAT:?IsBreakable@CBaseEntity@@UAEHXZ
	DD	FLAT:?TeamID@CBasePlayer@@UAEPBDXZ
	DD	FLAT:?AddSpawnFlags@CBaseEntity@@UAEXH@Z
	DD	FLAT:?HasSpawnFlags@CBaseEntity@@UBE_NH@Z
	DD	FLAT:?SetFadeDistance@CBaseEntity@@UAEXH@Z
	DD	FLAT:?SetFlag@CBaseEntity@@UAEXH@Z
	DD	FLAT:?HasFlag@CBaseEntity@@UBE_NH@Z
	DD	FLAT:?RemoveFlag@CBaseEntity@@UAEXH@Z
	DD	FLAT:?SetNullModel@CBaseEntity@@UAEXXZ
	DD	FLAT:?OnPickupObject@CBaseEntity@@UAEXXZ
	DD	FLAT:?OnDropObject@CBaseEntity@@UAEXXZ
	DD	FLAT:?GetNextTarget@CBaseEntity@@UAEPAV1@XZ
	DD	FLAT:?Think@CBaseEntity@@UAEXXZ
	DD	FLAT:?Use@CBaseEntity@@UAEXPAV1@0W4USE_TYPE@@M@Z
	DD	FLAT:?Touch@CBaseEntity@@UAEXPAV1@@Z
	DD	FLAT:?Blocked@CBaseEntity@@UAEXPAV1@@Z
	DD	FLAT:?MoveDone@CBaseToggle@@UAEXXZ
	DD	FLAT:?Respawn@CBaseEntity@@UAEPAV1@XZ
	DD	FLAT:?UpdateOwner@CBaseEntity@@UAEXXZ
	DD	FLAT:?FBecomeProne@CBasePlayer@@UAEHXZ
	DD	FLAT:?Center@CBaseEntity@@UAE?AVVector@@XZ
	DD	FLAT:?EyePosition@CBaseEntity@@UAE?AVVector@@XZ
	DD	FLAT:?EarPosition@CBaseEntity@@UAE?AVVector@@XZ
	DD	FLAT:?BodyTarget@CBasePlayer@@UAE?AVVector@@ABV2@@Z
	DD	FLAT:?IsPointSized@CBaseEntity@@UBEHXZ
	DD	FLAT:?Illumination@CBasePlayer@@UAEHXZ
	DD	FLAT:?FVisible@CBaseEntity@@UAEHABVVector@@@Z
	DD	FLAT:?FVisible@CBaseEntity@@UAEHPAV1@@Z
	DD	FLAT:?ShouldCollide@CBaseEntity@@UAEHPAV1@@Z
	DD	FLAT:?ClearEffects@CBaseMonster@@UAEXXZ
	DD	FLAT:?HandleAnimEvent@CBaseMonster@@UAEXPAUMonsterEvent_t@@@Z
	DD	FLAT:?Look@CBaseMonster@@UAEXH@Z
	DD	FLAT:?RunAI@CBaseMonster@@UAEXXZ
	DD	FLAT:?ShouldFadeOnDeath@CBasePlayer@@UAEHXZ
	DD	FLAT:?ChangeYaw@CBaseMonster@@UAEMH@Z
	DD	FLAT:?MonsterThink@CBaseMonster@@UAEXXZ
	DD	FLAT:?IRelationship@CBaseMonster@@UAEHPAVCBaseEntity@@@Z
	DD	FLAT:?MonsterInit@CBaseMonster@@UAEXXZ
	DD	FLAT:?MonsterInitDead@CBaseMonster@@UAEXXZ
	DD	FLAT:?BecomeDead@CBaseMonster@@UAEXXZ
	DD	FLAT:?StartMonster@CBaseMonster@@UAEXXZ
	DD	FLAT:?BestVisibleEnemy@CBaseMonster@@UAEPAVCBaseEntity@@XZ
	DD	FLAT:?FInViewCone@CBaseMonster@@UAEHPAVVector@@@Z
	DD	FLAT:?FInViewCone@CBaseMonster@@UAEHPAVCBaseEntity@@M@Z
	DD	FLAT:?CheckLocalMove@CBaseMonster@@UAEHABVVector@@0PAVCBaseEntity@@PAM@Z
	DD	FLAT:?Move@CBaseMonster@@UAEXM@Z
	DD	FLAT:?MoveExecute@CBaseMonster@@UAEXPAVCBaseEntity@@ABVVector@@M@Z
	DD	FLAT:?ShouldAdvanceRoute@CBaseMonster@@UAEHM@Z
	DD	FLAT:?GetStoppedActivity@CBaseMonster@@UAE?AW4Activity@@XZ
	DD	FLAT:?Stop@CBaseMonster@@UAEXXZ
	DD	FLAT:?CheckRangeAttack1@CBaseMonster@@UAEHMM@Z
	DD	FLAT:?CheckRangeAttack2@CBaseMonster@@UAEHMM@Z
	DD	FLAT:?CheckMeleeAttack1@CBaseMonster@@UAEHMM@Z
	DD	FLAT:?CheckMeleeAttack2@CBaseMonster@@UAEHMM@Z
	DD	FLAT:?ScheduleFromName@CBaseMonster@@UAEPAUSchedule_t@@PBD@Z
	DD	FLAT:?StartTask@CBaseMonster@@UAEXPAUTask_t@@@Z
	DD	FLAT:?RunTask@CBaseMonster@@UAEXPAUTask_t@@@Z
	DD	FLAT:?GetScheduleOfType@CBaseMonster@@UAEPAUSchedule_t@@H@Z
	DD	FLAT:?GetSchedule@CBaseMonster@@UAEPAUSchedule_t@@XZ
	DD	FLAT:?ScheduleChange@CBaseMonster@@UAEXXZ
	DD	FLAT:?CanPlaySequence@CBaseMonster@@UAEHHH@Z
	DD	FLAT:?CanPlaySentence@CBaseMonster@@UAEHH@Z
	DD	FLAT:?PlaySentence@CBaseMonster@@UAEXPBDMMMH@Z
	DD	FLAT:?PlayScriptedSentence@CBaseMonster@@UAEXPBDMMMHPAVCBaseEntity@@H@Z
	DD	FLAT:?SentenceStop@CBaseMonster@@UAEXXZ
	DD	FLAT:?GetIdealState@CBaseMonster@@UAE?AW4MONSTERSTATE@@XZ
	DD	FLAT:?SetActivity@CBaseMonster@@UAEXW4Activity@@@Z
	DD	FLAT:?ReportAIState@CBaseMonster@@UAEXXZ
	DD	FLAT:?CheckEnemy@CBaseMonster@@UAEHPAVCBaseEntity@@@Z
	DD	FLAT:?FTriangulate@CBaseMonster@@UAEHABVVector@@0MPAVCBaseEntity@@PAV2@@Z
	DD	FLAT:?SetYawSpeed@CBaseMonster@@UAEXXZ
	DD	FLAT:?BuildNearestRoute@CBaseMonster@@UAEHVVector@@0MM@Z
	DD	FLAT:?FindCover@CBaseMonster@@UAEHVVector@@0MM@Z
	DD	FLAT:?FindRunAway@CBaseMonster@@UAEHVVector@@MM@Z
	DD	FLAT:?FValidateCover@CBaseMonster@@UAEHABVVector@@@Z
	DD	FLAT:?CoverRadius@CBaseMonster@@UAEMXZ
	DD	FLAT:?FCanCheckAttacks@CBaseMonster@@UAEHXZ
	DD	FLAT:?CheckAmmo@CBaseMonster@@UAEXXZ
	DD	FLAT:?IgnoreConditions@CBaseMonster@@UAEHXZ
	DD	FLAT:?FValidateHintType@CBaseMonster@@UAEHF@Z
	DD	FLAT:?FCanActiveIdle@CBaseMonster@@UAEHXZ
	DD	FLAT:?ISoundMask@CBaseMonster@@UAEHXZ
	DD	FLAT:?PBestSound@CBaseMonster@@UAEPAVCSound@@XZ
	DD	FLAT:?PBestScent@CBaseMonster@@UAEPAVCSound@@XZ
	DD	FLAT:?HearingSensitivity@CBaseMonster@@UAEMXZ
	DD	FLAT:?BarnacleVictimBitten@CBasePlayer@@UAEXPAUentvars_s@@@Z
	DD	FLAT:?BarnacleVictimReleased@CBasePlayer@@UAEXXZ
	DD	FLAT:?PrescheduleThink@CBaseMonster@@UAEXXZ
	DD	FLAT:?GetDeathActivity@CBaseMonster@@UAE?AW4Activity@@XZ
	DD	FLAT:?GibMonster@CBasePlayer@@UAEXXZ
	DD	FLAT:?HasHumanGibs@CBaseMonster@@UAEHXZ
	DD	FLAT:?HasAlienGibs@CBaseMonster@@UAEHXZ
	DD	FLAT:?FadeMonster@CBaseMonster@@UAEXXZ
	DD	FLAT:?GetGunPosition@CBasePlayer@@UAE?AVVector@@XZ
	DD	FLAT:?DeathSound@CBasePlayer@@UAEXXZ
	DD	FLAT:?AlertSound@CBaseMonster@@UAEXXZ
	DD	FLAT:?IdleSound@CBaseMonster@@UAEXXZ
	DD	FLAT:?PainSound@CBaseMonster@@UAEXXZ
	DD	FLAT:?StepSound@CBaseMonster@@UAEXXZ
	DD	FLAT:?StopFollowing@CBaseMonster@@UAEXH@Z
	DD	FLAT:?Jump@CBasePlayer@@UAEXXZ
	DD	FLAT:?Duck@CBasePlayer@@UAEXXZ
	DD	FLAT:?PreThink@CBasePlayer@@UAEXXZ
	DD	FLAT:?PostThink@CBasePlayer@@UAEXXZ
	DD	FLAT:?UpdateClientData@CBasePlayer@@UAEXXZ
	DD	FLAT:?ImpulseCommands@CBasePlayer@@UAEXXZ
	DD	FLAT:?CheckTutorMessage@CBasePlayer@@UAEXH@Z
CONST	ENDS
;	COMDAT ??_C@_0BB@EMJBJDBM@sprites?1null?4spr?$AA@
CONST	SEGMENT
??_C@_0BB@EMJBJDBM@sprites?1null?4spr?$AA@ DB 'sprites/null.spr', 00H ; `string'
CONST	ENDS
;	COMDAT ??_7CBaseMonster@@6B@
CONST	SEGMENT
??_7CBaseMonster@@6B@ DD FLAT:??_R4CBaseMonster@@6B@	; CBaseMonster::`vftable'
	DD	FLAT:?GetDataDescMap@CBaseMonster@@UAEPAUdatamap_s@@XZ
	DD	FLAT:?Spawn@CBaseEntity@@UAEXXZ
	DD	FLAT:?Precache@CBaseEntity@@UAEXXZ
	DD	FLAT:?KeyValue@CBaseMonster@@UAEXPAUKeyValueData_s@@@Z
	DD	FLAT:?Save@CBaseEntity@@UAEHAAVCSave@@@Z
	DD	FLAT:?Restore@CBaseMonster@@UAEHAAVCRestore@@@Z
	DD	FLAT:?ObjectCaps@CBaseEntity@@UAEHXZ
	DD	FLAT:?Activate@CBaseEntity@@UAEXXZ
	DD	FLAT:?OnChangeLevel@CBaseEntity@@UAEXXZ
	DD	FLAT:?OnTeleport@CBaseEntity@@UAEXXZ
	DD	FLAT:?PortalSleep@CBaseEntity@@UAEXM@Z
	DD	FLAT:?StartMessage@CBaseEntity@@UAEXPAVCBasePlayer@@@Z
	DD	FLAT:?GetPosition@CBaseEntity@@UAEMXZ
	DD	FLAT:?OnChangeParent@CBaseEntity@@UAEXXZ
	DD	FLAT:?OnClearParent@CBaseEntity@@UAEXXZ
	DD	FLAT:?OnRemove@CBaseEntity@@UAEXXZ
	DD	FLAT:?SetObjectCollisionBox@CBaseEntity@@UAEXXZ
	DD	FLAT:?Classify@CBaseMonster@@UAEHXZ
	DD	FLAT:?DeathNotice@CBaseEntity@@UAEXPAUentvars_s@@@Z
	DD	FLAT:?IsRigidBody@CBaseEntity@@UAEHXZ
	DD	FLAT:?SetNextThink@CBaseEntity@@UAEXM@Z
	DD	FLAT:?GetState@CBaseEntity@@UAE?AW4STATE@@PAV1@@Z
	DD	FLAT:?GetState@CBaseToggle@@UAE?AW4STATE@@XZ
	DD	FLAT:?TraceAttack@CBaseMonster@@UAEXPAUentvars_s@@MVVector@@PAUgametrace_s@@H@Z
	DD	FLAT:?TakeDamage@CBaseMonster@@UAEHPAUentvars_s@@0MH@Z
	DD	FLAT:?TakeHealth@CBaseMonster@@UAEHMH@Z
	DD	FLAT:?TakeArmor@CBaseEntity@@UAEHMH@Z
	DD	FLAT:?Killed@CBaseMonster@@UAEXPAUentvars_s@@H@Z
	DD	FLAT:?BloodColor@CBaseMonster@@UAEHXZ
	DD	FLAT:?TraceBleed@CBaseEntity@@UAEXMVVector@@PAUgametrace_s@@H@Z
	DD	FLAT:?IsTriggered@CBaseEntity@@UAEHPAV1@@Z
	DD	FLAT:?MyMonsterPointer@CBaseMonster@@UAEPAV1@XZ
	DD	FLAT:?MySquadMonsterPointer@CBaseEntity@@UAEPAVCSquadMonster@@XZ
	DD	FLAT:?GetToggleState@CBaseToggle@@UAEHXZ
	DD	FLAT:?AddPoints@CBaseEntity@@UAEXHH@Z
	DD	FLAT:?AddPointsToTeam@CBaseEntity@@UAEXHH@Z
	DD	FLAT:?AddPlayerItem@CBaseEntity@@UAEHPAVCBasePlayerItem@@@Z
	DD	FLAT:?RemovePlayerItem@CBaseEntity@@UAEHPAVCBasePlayerItem@@@Z
	DD	FLAT:?GiveAmmo@CBaseEntity@@UAEHHPADH@Z
	DD	FLAT:?GetDelay@CBaseToggle@@UAEMXZ
	DD	FLAT:?IsMoving@CBaseMonster@@UAEHXZ
	DD	FLAT:?OverrideReset@CBaseEntity@@UAEXXZ
	DD	FLAT:?TransferReset@CBaseEntity@@UAEXXZ
	DD	FLAT:?DamageDecal@CBaseMonster@@UAEHH@Z
	DD	FLAT:?SetToggleState@CBaseEntity@@UAEXH@Z
	DD	FLAT:?StartSneaking@CBaseEntity@@UAEXXZ
	DD	FLAT:?StopSneaking@CBaseEntity@@UAEXXZ
	DD	FLAT:?OnControls@CBaseEntity@@UAEHPAV1@@Z
	DD	FLAT:?IsSneaking@CBaseEntity@@UAEHXZ
	DD	FLAT:?IsAlive@CBaseMonster@@UAEHXZ
	DD	FLAT:?IsBSPModel@CBaseEntity@@UAEHXZ
	DD	FLAT:?IsCustomModel@CBaseEntity@@UAEHXZ
	DD	FLAT:?ReflectGauss@CBaseEntity@@UAEHXZ
	DD	FLAT:?HasTarget@CBaseEntity@@UAEHH@Z
	DD	FLAT:?IsInWorld@CBaseEntity@@UAEHH@Z
	DD	FLAT:?IsPlayer@CBaseEntity@@UAEHXZ
	DD	FLAT:?IsNetClient@CBaseEntity@@UAEHXZ
	DD	FLAT:?IsMonster@CBaseEntity@@UAEHXZ
	DD	FLAT:?IsPushable@CBaseEntity@@UAEHXZ
	DD	FLAT:?IsProjectile@CBaseEntity@@UAEHXZ
	DD	FLAT:?IsFuncScreen@CBaseEntity@@UAEHXZ
	DD	FLAT:?IsPortal@CBaseEntity@@UAEHXZ
	DD	FLAT:?IsTank@CBaseEntity@@UAEHXZ
	DD	FLAT:?IsMover@CBaseEntity@@UAEHXZ
	DD	FLAT:?IsBreakable@CBaseEntity@@UAEHXZ
	DD	FLAT:?TeamID@CBaseEntity@@UAEPBDXZ
	DD	FLAT:?AddSpawnFlags@CBaseEntity@@UAEXH@Z
	DD	FLAT:?HasSpawnFlags@CBaseEntity@@UBE_NH@Z
	DD	FLAT:?SetFadeDistance@CBaseEntity@@UAEXH@Z
	DD	FLAT:?SetFlag@CBaseEntity@@UAEXH@Z
	DD	FLAT:?HasFlag@CBaseEntity@@UBE_NH@Z
	DD	FLAT:?RemoveFlag@CBaseEntity@@UAEXH@Z
	DD	FLAT:?SetNullModel@CBaseEntity@@UAEXXZ
	DD	FLAT:?OnPickupObject@CBaseEntity@@UAEXXZ
	DD	FLAT:?OnDropObject@CBaseEntity@@UAEXXZ
	DD	FLAT:?GetNextTarget@CBaseEntity@@UAEPAV1@XZ
	DD	FLAT:?Think@CBaseEntity@@UAEXXZ
	DD	FLAT:?Use@CBaseEntity@@UAEXPAV1@0W4USE_TYPE@@M@Z
	DD	FLAT:?Touch@CBaseEntity@@UAEXPAV1@@Z
	DD	FLAT:?Blocked@CBaseEntity@@UAEXPAV1@@Z
	DD	FLAT:?MoveDone@CBaseToggle@@UAEXXZ
	DD	FLAT:?Respawn@CBaseEntity@@UAEPAV1@XZ
	DD	FLAT:?UpdateOwner@CBaseEntity@@UAEXXZ
	DD	FLAT:?FBecomeProne@CBaseMonster@@UAEHXZ
	DD	FLAT:?Center@CBaseEntity@@UAE?AVVector@@XZ
	DD	FLAT:?EyePosition@CBaseEntity@@UAE?AVVector@@XZ
	DD	FLAT:?EarPosition@CBaseEntity@@UAE?AVVector@@XZ
	DD	FLAT:?BodyTarget@CBaseMonster@@UAE?AVVector@@ABV2@@Z
	DD	FLAT:?IsPointSized@CBaseEntity@@UBEHXZ
	DD	FLAT:?Illumination@CBaseEntity@@UAEHXZ
	DD	FLAT:?FVisible@CBaseEntity@@UAEHABVVector@@@Z
	DD	FLAT:?FVisible@CBaseEntity@@UAEHPAV1@@Z
	DD	FLAT:?ShouldCollide@CBaseEntity@@UAEHPAV1@@Z
	DD	FLAT:?ClearEffects@CBaseMonster@@UAEXXZ
	DD	FLAT:?HandleAnimEvent@CBaseMonster@@UAEXPAUMonsterEvent_t@@@Z
	DD	FLAT:?Look@CBaseMonster@@UAEXH@Z
	DD	FLAT:?RunAI@CBaseMonster@@UAEXXZ
	DD	FLAT:?ShouldFadeOnDeath@CBaseMonster@@UAEHXZ
	DD	FLAT:?ChangeYaw@CBaseMonster@@UAEMH@Z
	DD	FLAT:?MonsterThink@CBaseMonster@@UAEXXZ
	DD	FLAT:?IRelationship@CBaseMonster@@UAEHPAVCBaseEntity@@@Z
	DD	FLAT:?MonsterInit@CBaseMonster@@UAEXXZ
	DD	FLAT:?MonsterInitDead@CBaseMonster@@UAEXXZ
	DD	FLAT:?BecomeDead@CBaseMonster@@UAEXXZ
	DD	FLAT:?StartMonster@CBaseMonster@@UAEXXZ
	DD	FLAT:?BestVisibleEnemy@CBaseMonster@@UAEPAVCBaseEntity@@XZ
	DD	FLAT:?FInViewCone@CBaseMonster@@UAEHPAVVector@@@Z
	DD	FLAT:?FInViewCone@CBaseMonster@@UAEHPAVCBaseEntity@@M@Z
	DD	FLAT:?CheckLocalMove@CBaseMonster@@UAEHABVVector@@0PAVCBaseEntity@@PAM@Z
	DD	FLAT:?Move@CBaseMonster@@UAEXM@Z
	DD	FLAT:?MoveExecute@CBaseMonster@@UAEXPAVCBaseEntity@@ABVVector@@M@Z
	DD	FLAT:?ShouldAdvanceRoute@CBaseMonster@@UAEHM@Z
	DD	FLAT:?GetStoppedActivity@CBaseMonster@@UAE?AW4Activity@@XZ
	DD	FLAT:?Stop@CBaseMonster@@UAEXXZ
	DD	FLAT:?CheckRangeAttack1@CBaseMonster@@UAEHMM@Z
	DD	FLAT:?CheckRangeAttack2@CBaseMonster@@UAEHMM@Z
	DD	FLAT:?CheckMeleeAttack1@CBaseMonster@@UAEHMM@Z
	DD	FLAT:?CheckMeleeAttack2@CBaseMonster@@UAEHMM@Z
	DD	FLAT:?ScheduleFromName@CBaseMonster@@UAEPAUSchedule_t@@PBD@Z
	DD	FLAT:?StartTask@CBaseMonster@@UAEXPAUTask_t@@@Z
	DD	FLAT:?RunTask@CBaseMonster@@UAEXPAUTask_t@@@Z
	DD	FLAT:?GetScheduleOfType@CBaseMonster@@UAEPAUSchedule_t@@H@Z
	DD	FLAT:?GetSchedule@CBaseMonster@@UAEPAUSchedule_t@@XZ
	DD	FLAT:?ScheduleChange@CBaseMonster@@UAEXXZ
	DD	FLAT:?CanPlaySequence@CBaseMonster@@UAEHHH@Z
	DD	FLAT:?CanPlaySentence@CBaseMonster@@UAEHH@Z
	DD	FLAT:?PlaySentence@CBaseMonster@@UAEXPBDMMMH@Z
	DD	FLAT:?PlayScriptedSentence@CBaseMonster@@UAEXPBDMMMHPAVCBaseEntity@@H@Z
	DD	FLAT:?SentenceStop@CBaseMonster@@UAEXXZ
	DD	FLAT:?GetIdealState@CBaseMonster@@UAE?AW4MONSTERSTATE@@XZ
	DD	FLAT:?SetActivity@CBaseMonster@@UAEXW4Activity@@@Z
	DD	FLAT:?ReportAIState@CBaseMonster@@UAEXXZ
	DD	FLAT:?CheckEnemy@CBaseMonster@@UAEHPAVCBaseEntity@@@Z
	DD	FLAT:?FTriangulate@CBaseMonster@@UAEHABVVector@@0MPAVCBaseEntity@@PAV2@@Z
	DD	FLAT:?SetYawSpeed@CBaseMonster@@UAEXXZ
	DD	FLAT:?BuildNearestRoute@CBaseMonster@@UAEHVVector@@0MM@Z
	DD	FLAT:?FindCover@CBaseMonster@@UAEHVVector@@0MM@Z
	DD	FLAT:?FindRunAway@CBaseMonster@@UAEHVVector@@MM@Z
	DD	FLAT:?FValidateCover@CBaseMonster@@UAEHABVVector@@@Z
	DD	FLAT:?CoverRadius@CBaseMonster@@UAEMXZ
	DD	FLAT:?FCanCheckAttacks@CBaseMonster@@UAEHXZ
	DD	FLAT:?CheckAmmo@CBaseMonster@@UAEXXZ
	DD	FLAT:?IgnoreConditions@CBaseMonster@@UAEHXZ
	DD	FLAT:?FValidateHintType@CBaseMonster@@UAEHF@Z
	DD	FLAT:?FCanActiveIdle@CBaseMonster@@UAEHXZ
	DD	FLAT:?ISoundMask@CBaseMonster@@UAEHXZ
	DD	FLAT:?PBestSound@CBaseMonster@@UAEPAVCSound@@XZ
	DD	FLAT:?PBestScent@CBaseMonster@@UAEPAVCSound@@XZ
	DD	FLAT:?HearingSensitivity@CBaseMonster@@UAEMXZ
	DD	FLAT:?BarnacleVictimBitten@CBaseMonster@@UAEXPAUentvars_s@@@Z
	DD	FLAT:?BarnacleVictimReleased@CBaseMonster@@UAEXXZ
	DD	FLAT:?PrescheduleThink@CBaseMonster@@UAEXXZ
	DD	FLAT:?GetDeathActivity@CBaseMonster@@UAE?AW4Activity@@XZ
	DD	FLAT:?GibMonster@CBaseMonster@@UAEXXZ
	DD	FLAT:?HasHumanGibs@CBaseMonster@@UAEHXZ
	DD	FLAT:?HasAlienGibs@CBaseMonster@@UAEHXZ
	DD	FLAT:?FadeMonster@CBaseMonster@@UAEXXZ
	DD	FLAT:?GetGunPosition@CBaseMonster@@UAE?AVVector@@XZ
	DD	FLAT:?DeathSound@CBaseMonster@@UAEXXZ
	DD	FLAT:?AlertSound@CBaseMonster@@UAEXXZ
	DD	FLAT:?IdleSound@CBaseMonster@@UAEXXZ
	DD	FLAT:?PainSound@CBaseMonster@@UAEXXZ
	DD	FLAT:?StepSound@CBaseMonster@@UAEXXZ
	DD	FLAT:?StopFollowing@CBaseMonster@@UAEXH@Z
CONST	ENDS
;	COMDAT ??_7CBaseToggle@@6B@
CONST	SEGMENT
??_7CBaseToggle@@6B@ DD FLAT:??_R4CBaseToggle@@6B@	; CBaseToggle::`vftable'
	DD	FLAT:?GetDataDescMap@CBaseToggle@@UAEPAUdatamap_s@@XZ
	DD	FLAT:?Spawn@CBaseEntity@@UAEXXZ
	DD	FLAT:?Precache@CBaseEntity@@UAEXXZ
	DD	FLAT:?KeyValue@CBaseToggle@@UAEXPAUKeyValueData_s@@@Z
	DD	FLAT:?Save@CBaseEntity@@UAEHAAVCSave@@@Z
	DD	FLAT:?Restore@CBaseToggle@@UAEHAAVCRestore@@@Z
	DD	FLAT:?ObjectCaps@CBaseEntity@@UAEHXZ
	DD	FLAT:?Activate@CBaseEntity@@UAEXXZ
	DD	FLAT:?OnChangeLevel@CBaseEntity@@UAEXXZ
	DD	FLAT:?OnTeleport@CBaseEntity@@UAEXXZ
	DD	FLAT:?PortalSleep@CBaseEntity@@UAEXM@Z
	DD	FLAT:?StartMessage@CBaseEntity@@UAEXPAVCBasePlayer@@@Z
	DD	FLAT:?GetPosition@CBaseEntity@@UAEMXZ
	DD	FLAT:?OnChangeParent@CBaseEntity@@UAEXXZ
	DD	FLAT:?OnClearParent@CBaseEntity@@UAEXXZ
	DD	FLAT:?OnRemove@CBaseEntity@@UAEXXZ
	DD	FLAT:?SetObjectCollisionBox@CBaseEntity@@UAEXXZ
	DD	FLAT:?Classify@CBaseEntity@@UAEHXZ
	DD	FLAT:?DeathNotice@CBaseEntity@@UAEXPAUentvars_s@@@Z
	DD	FLAT:?IsRigidBody@CBaseEntity@@UAEHXZ
	DD	FLAT:?SetNextThink@CBaseEntity@@UAEXM@Z
	DD	FLAT:?GetState@CBaseEntity@@UAE?AW4STATE@@PAV1@@Z
	DD	FLAT:?GetState@CBaseToggle@@UAE?AW4STATE@@XZ
	DD	FLAT:?TraceAttack@CBaseEntity@@UAEXPAUentvars_s@@MVVector@@PAUgametrace_s@@H@Z
	DD	FLAT:?TakeDamage@CBaseEntity@@UAEHPAUentvars_s@@0MH@Z
	DD	FLAT:?TakeHealth@CBaseEntity@@UAEHMH@Z
	DD	FLAT:?TakeArmor@CBaseEntity@@UAEHMH@Z
	DD	FLAT:?Killed@CBaseEntity@@UAEXPAUentvars_s@@H@Z
	DD	FLAT:?BloodColor@CBaseEntity@@UAEHXZ
	DD	FLAT:?TraceBleed@CBaseEntity@@UAEXMVVector@@PAUgametrace_s@@H@Z
	DD	FLAT:?IsTriggered@CBaseEntity@@UAEHPAV1@@Z
	DD	FLAT:?MyMonsterPointer@CBaseEntity@@UAEPAVCBaseMonster@@XZ
	DD	FLAT:?MySquadMonsterPointer@CBaseEntity@@UAEPAVCSquadMonster@@XZ
	DD	FLAT:?GetToggleState@CBaseToggle@@UAEHXZ
	DD	FLAT:?AddPoints@CBaseEntity@@UAEXHH@Z
	DD	FLAT:?AddPointsToTeam@CBaseEntity@@UAEXHH@Z
	DD	FLAT:?AddPlayerItem@CBaseEntity@@UAEHPAVCBasePlayerItem@@@Z
	DD	FLAT:?RemovePlayerItem@CBaseEntity@@UAEHPAVCBasePlayerItem@@@Z
	DD	FLAT:?GiveAmmo@CBaseEntity@@UAEHHPADH@Z
	DD	FLAT:?GetDelay@CBaseToggle@@UAEMXZ
	DD	FLAT:?IsMoving@CBaseEntity@@UAEHXZ
	DD	FLAT:?OverrideReset@CBaseEntity@@UAEXXZ
	DD	FLAT:?TransferReset@CBaseEntity@@UAEXXZ
	DD	FLAT:?DamageDecal@CBaseEntity@@UAEHH@Z
	DD	FLAT:?SetToggleState@CBaseEntity@@UAEXH@Z
	DD	FLAT:?StartSneaking@CBaseEntity@@UAEXXZ
	DD	FLAT:?StopSneaking@CBaseEntity@@UAEXXZ
	DD	FLAT:?OnControls@CBaseEntity@@UAEHPAV1@@Z
	DD	FLAT:?IsSneaking@CBaseEntity@@UAEHXZ
	DD	FLAT:?IsAlive@CBaseEntity@@UAEHXZ
	DD	FLAT:?IsBSPModel@CBaseEntity@@UAEHXZ
	DD	FLAT:?IsCustomModel@CBaseEntity@@UAEHXZ
	DD	FLAT:?ReflectGauss@CBaseEntity@@UAEHXZ
	DD	FLAT:?HasTarget@CBaseEntity@@UAEHH@Z
	DD	FLAT:?IsInWorld@CBaseEntity@@UAEHH@Z
	DD	FLAT:?IsPlayer@CBaseEntity@@UAEHXZ
	DD	FLAT:?IsNetClient@CBaseEntity@@UAEHXZ
	DD	FLAT:?IsMonster@CBaseEntity@@UAEHXZ
	DD	FLAT:?IsPushable@CBaseEntity@@UAEHXZ
	DD	FLAT:?IsProjectile@CBaseEntity@@UAEHXZ
	DD	FLAT:?IsFuncScreen@CBaseEntity@@UAEHXZ
	DD	FLAT:?IsPortal@CBaseEntity@@UAEHXZ
	DD	FLAT:?IsTank@CBaseEntity@@UAEHXZ
	DD	FLAT:?IsMover@CBaseEntity@@UAEHXZ
	DD	FLAT:?IsBreakable@CBaseEntity@@UAEHXZ
	DD	FLAT:?TeamID@CBaseEntity@@UAEPBDXZ
	DD	FLAT:?AddSpawnFlags@CBaseEntity@@UAEXH@Z
	DD	FLAT:?HasSpawnFlags@CBaseEntity@@UBE_NH@Z
	DD	FLAT:?SetFadeDistance@CBaseEntity@@UAEXH@Z
	DD	FLAT:?SetFlag@CBaseEntity@@UAEXH@Z
	DD	FLAT:?HasFlag@CBaseEntity@@UBE_NH@Z
	DD	FLAT:?RemoveFlag@CBaseEntity@@UAEXH@Z
	DD	FLAT:?SetNullModel@CBaseEntity@@UAEXXZ
	DD	FLAT:?OnPickupObject@CBaseEntity@@UAEXXZ
	DD	FLAT:?OnDropObject@CBaseEntity@@UAEXXZ
	DD	FLAT:?GetNextTarget@CBaseEntity@@UAEPAV1@XZ
	DD	FLAT:?Think@CBaseEntity@@UAEXXZ
	DD	FLAT:?Use@CBaseEntity@@UAEXPAV1@0W4USE_TYPE@@M@Z
	DD	FLAT:?Touch@CBaseEntity@@UAEXPAV1@@Z
	DD	FLAT:?Blocked@CBaseEntity@@UAEXPAV1@@Z
	DD	FLAT:?MoveDone@CBaseToggle@@UAEXXZ
	DD	FLAT:?Respawn@CBaseEntity@@UAEPAV1@XZ
	DD	FLAT:?UpdateOwner@CBaseEntity@@UAEXXZ
	DD	FLAT:?FBecomeProne@CBaseEntity@@UAEHXZ
	DD	FLAT:?Center@CBaseEntity@@UAE?AVVector@@XZ
	DD	FLAT:?EyePosition@CBaseEntity@@UAE?AVVector@@XZ
	DD	FLAT:?EarPosition@CBaseEntity@@UAE?AVVector@@XZ
	DD	FLAT:?BodyTarget@CBaseEntity@@UAE?AVVector@@ABV2@@Z
	DD	FLAT:?IsPointSized@CBaseEntity@@UBEHXZ
	DD	FLAT:?Illumination@CBaseEntity@@UAEHXZ
	DD	FLAT:?FVisible@CBaseEntity@@UAEHABVVector@@@Z
	DD	FLAT:?FVisible@CBaseEntity@@UAEHPAV1@@Z
	DD	FLAT:?ShouldCollide@CBaseEntity@@UAEHPAV1@@Z
	DD	FLAT:?ClearEffects@CBaseEntity@@UAEXXZ
	DD	FLAT:?HandleAnimEvent@CBaseAnimating@@UAEXPAUMonsterEvent_t@@@Z
CONST	ENDS
;	COMDAT ??_7CBaseAnimating@@6B@
CONST	SEGMENT
??_7CBaseAnimating@@6B@ DD FLAT:??_R4CBaseAnimating@@6B@ ; CBaseAnimating::`vftable'
	DD	FLAT:?GetDataDescMap@CBaseAnimating@@UAEPAUdatamap_s@@XZ
	DD	FLAT:?Spawn@CBaseEntity@@UAEXXZ
	DD	FLAT:?Precache@CBaseEntity@@UAEXXZ
	DD	FLAT:?KeyValue@CBaseDelay@@UAEXPAUKeyValueData_s@@@Z
	DD	FLAT:?Save@CBaseEntity@@UAEHAAVCSave@@@Z
	DD	FLAT:?Restore@CBaseEntity@@UAEHAAVCRestore@@@Z
	DD	FLAT:?ObjectCaps@CBaseEntity@@UAEHXZ
	DD	FLAT:?Activate@CBaseEntity@@UAEXXZ
	DD	FLAT:?OnChangeLevel@CBaseEntity@@UAEXXZ
	DD	FLAT:?OnTeleport@CBaseEntity@@UAEXXZ
	DD	FLAT:?PortalSleep@CBaseEntity@@UAEXM@Z
	DD	FLAT:?StartMessage@CBaseEntity@@UAEXPAVCBasePlayer@@@Z
	DD	FLAT:?GetPosition@CBaseEntity@@UAEMXZ
	DD	FLAT:?OnChangeParent@CBaseEntity@@UAEXXZ
	DD	FLAT:?OnClearParent@CBaseEntity@@UAEXXZ
	DD	FLAT:?OnRemove@CBaseEntity@@UAEXXZ
	DD	FLAT:?SetObjectCollisionBox@CBaseEntity@@UAEXXZ
	DD	FLAT:?Classify@CBaseEntity@@UAEHXZ
	DD	FLAT:?DeathNotice@CBaseEntity@@UAEXPAUentvars_s@@@Z
	DD	FLAT:?IsRigidBody@CBaseEntity@@UAEHXZ
	DD	FLAT:?SetNextThink@CBaseEntity@@UAEXM@Z
	DD	FLAT:?GetState@CBaseEntity@@UAE?AW4STATE@@PAV1@@Z
	DD	FLAT:?GetState@CBaseDelay@@UAE?AW4STATE@@XZ
	DD	FLAT:?TraceAttack@CBaseEntity@@UAEXPAUentvars_s@@MVVector@@PAUgametrace_s@@H@Z
	DD	FLAT:?TakeDamage@CBaseEntity@@UAEHPAUentvars_s@@0MH@Z
	DD	FLAT:?TakeHealth@CBaseEntity@@UAEHMH@Z
	DD	FLAT:?TakeArmor@CBaseEntity@@UAEHMH@Z
	DD	FLAT:?Killed@CBaseEntity@@UAEXPAUentvars_s@@H@Z
	DD	FLAT:?BloodColor@CBaseEntity@@UAEHXZ
	DD	FLAT:?TraceBleed@CBaseEntity@@UAEXMVVector@@PAUgametrace_s@@H@Z
	DD	FLAT:?IsTriggered@CBaseEntity@@UAEHPAV1@@Z
	DD	FLAT:?MyMonsterPointer@CBaseEntity@@UAEPAVCBaseMonster@@XZ
	DD	FLAT:?MySquadMonsterPointer@CBaseEntity@@UAEPAVCSquadMonster@@XZ
	DD	FLAT:?GetToggleState@CBaseEntity@@UAEHXZ
	DD	FLAT:?AddPoints@CBaseEntity@@UAEXHH@Z
	DD	FLAT:?AddPointsToTeam@CBaseEntity@@UAEXHH@Z
	DD	FLAT:?AddPlayerItem@CBaseEntity@@UAEHPAVCBasePlayerItem@@@Z
	DD	FLAT:?RemovePlayerItem@CBaseEntity@@UAEHPAVCBasePlayerItem@@@Z
	DD	FLAT:?GiveAmmo@CBaseEntity@@UAEHHPADH@Z
	DD	FLAT:?GetDelay@CBaseEntity@@UAEMXZ
	DD	FLAT:?IsMoving@CBaseEntity@@UAEHXZ
	DD	FLAT:?OverrideReset@CBaseEntity@@UAEXXZ
	DD	FLAT:?TransferReset@CBaseEntity@@UAEXXZ
	DD	FLAT:?DamageDecal@CBaseEntity@@UAEHH@Z
	DD	FLAT:?SetToggleState@CBaseEntity@@UAEXH@Z
	DD	FLAT:?StartSneaking@CBaseEntity@@UAEXXZ
	DD	FLAT:?StopSneaking@CBaseEntity@@UAEXXZ
	DD	FLAT:?OnControls@CBaseEntity@@UAEHPAV1@@Z
	DD	FLAT:?IsSneaking@CBaseEntity@@UAEHXZ
	DD	FLAT:?IsAlive@CBaseEntity@@UAEHXZ
	DD	FLAT:?IsBSPModel@CBaseEntity@@UAEHXZ
	DD	FLAT:?IsCustomModel@CBaseEntity@@UAEHXZ
	DD	FLAT:?ReflectGauss@CBaseEntity@@UAEHXZ
	DD	FLAT:?HasTarget@CBaseEntity@@UAEHH@Z
	DD	FLAT:?IsInWorld@CBaseEntity@@UAEHH@Z
	DD	FLAT:?IsPlayer@CBaseEntity@@UAEHXZ
	DD	FLAT:?IsNetClient@CBaseEntity@@UAEHXZ
	DD	FLAT:?IsMonster@CBaseEntity@@UAEHXZ
	DD	FLAT:?IsPushable@CBaseEntity@@UAEHXZ
	DD	FLAT:?IsProjectile@CBaseEntity@@UAEHXZ
	DD	FLAT:?IsFuncScreen@CBaseEntity@@UAEHXZ
	DD	FLAT:?IsPortal@CBaseEntity@@UAEHXZ
	DD	FLAT:?IsTank@CBaseEntity@@UAEHXZ
	DD	FLAT:?IsMover@CBaseEntity@@UAEHXZ
	DD	FLAT:?IsBreakable@CBaseEntity@@UAEHXZ
	DD	FLAT:?TeamID@CBaseEntity@@UAEPBDXZ
	DD	FLAT:?AddSpawnFlags@CBaseEntity@@UAEXH@Z
	DD	FLAT:?HasSpawnFlags@CBaseEntity@@UBE_NH@Z
	DD	FLAT:?SetFadeDistance@CBaseEntity@@UAEXH@Z
	DD	FLAT:?SetFlag@CBaseEntity@@UAEXH@Z
	DD	FLAT:?HasFlag@CBaseEntity@@UBE_NH@Z
	DD	FLAT:?RemoveFlag@CBaseEntity@@UAEXH@Z
	DD	FLAT:?SetNullModel@CBaseEntity@@UAEXXZ
	DD	FLAT:?OnPickupObject@CBaseEntity@@UAEXXZ
	DD	FLAT:?OnDropObject@CBaseEntity@@UAEXXZ
	DD	FLAT:?GetNextTarget@CBaseEntity@@UAEPAV1@XZ
	DD	FLAT:?Think@CBaseEntity@@UAEXXZ
	DD	FLAT:?Use@CBaseEntity@@UAEXPAV1@0W4USE_TYPE@@M@Z
	DD	FLAT:?Touch@CBaseEntity@@UAEXPAV1@@Z
	DD	FLAT:?Blocked@CBaseEntity@@UAEXPAV1@@Z
	DD	FLAT:?MoveDone@CBaseEntity@@UAEXXZ
	DD	FLAT:?Respawn@CBaseEntity@@UAEPAV1@XZ
	DD	FLAT:?UpdateOwner@CBaseEntity@@UAEXXZ
	DD	FLAT:?FBecomeProne@CBaseEntity@@UAEHXZ
	DD	FLAT:?Center@CBaseEntity@@UAE?AVVector@@XZ
	DD	FLAT:?EyePosition@CBaseEntity@@UAE?AVVector@@XZ
	DD	FLAT:?EarPosition@CBaseEntity@@UAE?AVVector@@XZ
	DD	FLAT:?BodyTarget@CBaseEntity@@UAE?AVVector@@ABV2@@Z
	DD	FLAT:?IsPointSized@CBaseEntity@@UBEHXZ
	DD	FLAT:?Illumination@CBaseEntity@@UAEHXZ
	DD	FLAT:?FVisible@CBaseEntity@@UAEHABVVector@@@Z
	DD	FLAT:?FVisible@CBaseEntity@@UAEHPAV1@@Z
	DD	FLAT:?ShouldCollide@CBaseEntity@@UAEHPAV1@@Z
	DD	FLAT:?ClearEffects@CBaseEntity@@UAEXXZ
	DD	FLAT:?HandleAnimEvent@CBaseAnimating@@UAEXPAUMonsterEvent_t@@@Z
CONST	ENDS
;	COMDAT ??_7CBaseDelay@@6B@
CONST	SEGMENT
??_7CBaseDelay@@6B@ DD FLAT:??_R4CBaseDelay@@6B@	; CBaseDelay::`vftable'
	DD	FLAT:?GetDataDescMap@CBaseDelay@@UAEPAUdatamap_s@@XZ
	DD	FLAT:?Spawn@CBaseEntity@@UAEXXZ
	DD	FLAT:?Precache@CBaseEntity@@UAEXXZ
	DD	FLAT:?KeyValue@CBaseDelay@@UAEXPAUKeyValueData_s@@@Z
	DD	FLAT:?Save@CBaseEntity@@UAEHAAVCSave@@@Z
	DD	FLAT:?Restore@CBaseEntity@@UAEHAAVCRestore@@@Z
	DD	FLAT:?ObjectCaps@CBaseEntity@@UAEHXZ
	DD	FLAT:?Activate@CBaseEntity@@UAEXXZ
	DD	FLAT:?OnChangeLevel@CBaseEntity@@UAEXXZ
	DD	FLAT:?OnTeleport@CBaseEntity@@UAEXXZ
	DD	FLAT:?PortalSleep@CBaseEntity@@UAEXM@Z
	DD	FLAT:?StartMessage@CBaseEntity@@UAEXPAVCBasePlayer@@@Z
	DD	FLAT:?GetPosition@CBaseEntity@@UAEMXZ
	DD	FLAT:?OnChangeParent@CBaseEntity@@UAEXXZ
	DD	FLAT:?OnClearParent@CBaseEntity@@UAEXXZ
	DD	FLAT:?OnRemove@CBaseEntity@@UAEXXZ
	DD	FLAT:?SetObjectCollisionBox@CBaseEntity@@UAEXXZ
	DD	FLAT:?Classify@CBaseEntity@@UAEHXZ
	DD	FLAT:?DeathNotice@CBaseEntity@@UAEXPAUentvars_s@@@Z
	DD	FLAT:?IsRigidBody@CBaseEntity@@UAEHXZ
	DD	FLAT:?SetNextThink@CBaseEntity@@UAEXM@Z
	DD	FLAT:?GetState@CBaseEntity@@UAE?AW4STATE@@PAV1@@Z
	DD	FLAT:?GetState@CBaseDelay@@UAE?AW4STATE@@XZ
	DD	FLAT:?TraceAttack@CBaseEntity@@UAEXPAUentvars_s@@MVVector@@PAUgametrace_s@@H@Z
	DD	FLAT:?TakeDamage@CBaseEntity@@UAEHPAUentvars_s@@0MH@Z
	DD	FLAT:?TakeHealth@CBaseEntity@@UAEHMH@Z
	DD	FLAT:?TakeArmor@CBaseEntity@@UAEHMH@Z
	DD	FLAT:?Killed@CBaseEntity@@UAEXPAUentvars_s@@H@Z
	DD	FLAT:?BloodColor@CBaseEntity@@UAEHXZ
	DD	FLAT:?TraceBleed@CBaseEntity@@UAEXMVVector@@PAUgametrace_s@@H@Z
	DD	FLAT:?IsTriggered@CBaseEntity@@UAEHPAV1@@Z
	DD	FLAT:?MyMonsterPointer@CBaseEntity@@UAEPAVCBaseMonster@@XZ
	DD	FLAT:?MySquadMonsterPointer@CBaseEntity@@UAEPAVCSquadMonster@@XZ
	DD	FLAT:?GetToggleState@CBaseEntity@@UAEHXZ
	DD	FLAT:?AddPoints@CBaseEntity@@UAEXHH@Z
	DD	FLAT:?AddPointsToTeam@CBaseEntity@@UAEXHH@Z
	DD	FLAT:?AddPlayerItem@CBaseEntity@@UAEHPAVCBasePlayerItem@@@Z
	DD	FLAT:?RemovePlayerItem@CBaseEntity@@UAEHPAVCBasePlayerItem@@@Z
	DD	FLAT:?GiveAmmo@CBaseEntity@@UAEHHPADH@Z
	DD	FLAT:?GetDelay@CBaseEntity@@UAEMXZ
	DD	FLAT:?IsMoving@CBaseEntity@@UAEHXZ
	DD	FLAT:?OverrideReset@CBaseEntity@@UAEXXZ
	DD	FLAT:?TransferReset@CBaseEntity@@UAEXXZ
	DD	FLAT:?DamageDecal@CBaseEntity@@UAEHH@Z
	DD	FLAT:?SetToggleState@CBaseEntity@@UAEXH@Z
	DD	FLAT:?StartSneaking@CBaseEntity@@UAEXXZ
	DD	FLAT:?StopSneaking@CBaseEntity@@UAEXXZ
	DD	FLAT:?OnControls@CBaseEntity@@UAEHPAV1@@Z
	DD	FLAT:?IsSneaking@CBaseEntity@@UAEHXZ
	DD	FLAT:?IsAlive@CBaseEntity@@UAEHXZ
	DD	FLAT:?IsBSPModel@CBaseEntity@@UAEHXZ
	DD	FLAT:?IsCustomModel@CBaseEntity@@UAEHXZ
	DD	FLAT:?ReflectGauss@CBaseEntity@@UAEHXZ
	DD	FLAT:?HasTarget@CBaseEntity@@UAEHH@Z
	DD	FLAT:?IsInWorld@CBaseEntity@@UAEHH@Z
	DD	FLAT:?IsPlayer@CBaseEntity@@UAEHXZ
	DD	FLAT:?IsNetClient@CBaseEntity@@UAEHXZ
	DD	FLAT:?IsMonster@CBaseEntity@@UAEHXZ
	DD	FLAT:?IsPushable@CBaseEntity@@UAEHXZ
	DD	FLAT:?IsProjectile@CBaseEntity@@UAEHXZ
	DD	FLAT:?IsFuncScreen@CBaseEntity@@UAEHXZ
	DD	FLAT:?IsPortal@CBaseEntity@@UAEHXZ
	DD	FLAT:?IsTank@CBaseEntity@@UAEHXZ
	DD	FLAT:?IsMover@CBaseEntity@@UAEHXZ
	DD	FLAT:?IsBreakable@CBaseEntity@@UAEHXZ
	DD	FLAT:?TeamID@CBaseEntity@@UAEPBDXZ
	DD	FLAT:?AddSpawnFlags@CBaseEntity@@UAEXH@Z
	DD	FLAT:?HasSpawnFlags@CBaseEntity@@UBE_NH@Z
	DD	FLAT:?SetFadeDistance@CBaseEntity@@UAEXH@Z
	DD	FLAT:?SetFlag@CBaseEntity@@UAEXH@Z
	DD	FLAT:?HasFlag@CBaseEntity@@UBE_NH@Z
	DD	FLAT:?RemoveFlag@CBaseEntity@@UAEXH@Z
	DD	FLAT:?SetNullModel@CBaseEntity@@UAEXXZ
	DD	FLAT:?OnPickupObject@CBaseEntity@@UAEXXZ
	DD	FLAT:?OnDropObject@CBaseEntity@@UAEXXZ
	DD	FLAT:?GetNextTarget@CBaseEntity@@UAEPAV1@XZ
	DD	FLAT:?Think@CBaseEntity@@UAEXXZ
	DD	FLAT:?Use@CBaseEntity@@UAEXPAV1@0W4USE_TYPE@@M@Z
	DD	FLAT:?Touch@CBaseEntity@@UAEXPAV1@@Z
	DD	FLAT:?Blocked@CBaseEntity@@UAEXPAV1@@Z
	DD	FLAT:?MoveDone@CBaseEntity@@UAEXXZ
	DD	FLAT:?Respawn@CBaseEntity@@UAEPAV1@XZ
	DD	FLAT:?UpdateOwner@CBaseEntity@@UAEXXZ
	DD	FLAT:?FBecomeProne@CBaseEntity@@UAEHXZ
	DD	FLAT:?Center@CBaseEntity@@UAE?AVVector@@XZ
	DD	FLAT:?EyePosition@CBaseEntity@@UAE?AVVector@@XZ
	DD	FLAT:?EarPosition@CBaseEntity@@UAE?AVVector@@XZ
	DD	FLAT:?BodyTarget@CBaseEntity@@UAE?AVVector@@ABV2@@Z
	DD	FLAT:?IsPointSized@CBaseEntity@@UBEHXZ
	DD	FLAT:?Illumination@CBaseEntity@@UAEHXZ
	DD	FLAT:?FVisible@CBaseEntity@@UAEHABVVector@@@Z
	DD	FLAT:?FVisible@CBaseEntity@@UAEHPAV1@@Z
	DD	FLAT:?ShouldCollide@CBaseEntity@@UAEHPAV1@@Z
	DD	FLAT:?ClearEffects@CBaseEntity@@UAEXXZ
CONST	ENDS
;	COMDAT ??_C@_0CH@HELFJPDL@FUNCTION?5NOT?5IN?5TABLE?$CB?3?5?$CFs?3?$CFs?5?$CI?$CF@
CONST	SEGMENT
??_C@_0CH@HELFJPDL@FUNCTION?5NOT?5IN?5TABLE?$CB?3?5?$CFs?3?$CFs?5?$CI?$CF@ DB 'F'
	DB	'UNCTION NOT IN TABLE!: %s:%s (%08lx)', 0aH, 00H ; `string'
CONST	ENDS
;	COMDAT ??_C@_0L@JIJDCONP@customname?$AA@
CONST	SEGMENT
??_C@_0L@JIJDCONP@customname?$AA@ DB 'customname', 00H	; `string'
CONST	ENDS
;	COMDAT ??_C@_0N@JILDNHAP@vlight_cache?$AA@
CONST	SEGMENT
??_C@_0N@JILDNHAP@vlight_cache?$AA@ DB 'vlight_cache', 00H ; `string'
CONST	ENDS
;	COMDAT ??_C@_0L@IKCANML@reflection?$AA@
CONST	SEGMENT
??_C@_0L@IKCANML@reflection?$AA@ DB 'reflection', 00H	; `string'
CONST	ENDS
;	COMDAT ??_C@_05IAKJCFIM@style?$AA@
CONST	SEGMENT
??_C@_05IAKJCFIM@style?$AA@ DB 'style', 00H		; `string'
CONST	ENDS
;	COMDAT ??_C@_0M@EAELDHJO@parentflags?$AA@
CONST	SEGMENT
??_C@_0M@EAELDHJO@parentflags?$AA@ DB 'parentflags', 00H ; `string'
CONST	ENDS
;	COMDAT ??_C@_08JJJAOBDI@movewith?$AA@
CONST	SEGMENT
??_C@_08JJJAOBDI@movewith?$AA@ DB 'movewith', 00H	; `string'
CONST	ENDS
;	COMDAT ??_C@_06MLKDMCBD@parent?$AA@
CONST	SEGMENT
??_C@_06MLKDMCBD@parent?$AA@ DB 'parent', 00H		; `string'
CONST	ENDS
;	COMDAT ??_7CBaseEntity@@6B@
CONST	SEGMENT
??_7CBaseEntity@@6B@ DD FLAT:??_R4CBaseEntity@@6B@	; CBaseEntity::`vftable'
	DD	FLAT:?GetDataDescMap@CBaseEntity@@UAEPAUdatamap_s@@XZ
	DD	FLAT:?Spawn@CBaseEntity@@UAEXXZ
	DD	FLAT:?Precache@CBaseEntity@@UAEXXZ
	DD	FLAT:?KeyValue@CBaseEntity@@UAEXPAUKeyValueData_s@@@Z
	DD	FLAT:?Save@CBaseEntity@@UAEHAAVCSave@@@Z
	DD	FLAT:?Restore@CBaseEntity@@UAEHAAVCRestore@@@Z
	DD	FLAT:?ObjectCaps@CBaseEntity@@UAEHXZ
	DD	FLAT:?Activate@CBaseEntity@@UAEXXZ
	DD	FLAT:?OnChangeLevel@CBaseEntity@@UAEXXZ
	DD	FLAT:?OnTeleport@CBaseEntity@@UAEXXZ
	DD	FLAT:?PortalSleep@CBaseEntity@@UAEXM@Z
	DD	FLAT:?StartMessage@CBaseEntity@@UAEXPAVCBasePlayer@@@Z
	DD	FLAT:?GetPosition@CBaseEntity@@UAEMXZ
	DD	FLAT:?OnChangeParent@CBaseEntity@@UAEXXZ
	DD	FLAT:?OnClearParent@CBaseEntity@@UAEXXZ
	DD	FLAT:?OnRemove@CBaseEntity@@UAEXXZ
	DD	FLAT:?SetObjectCollisionBox@CBaseEntity@@UAEXXZ
	DD	FLAT:?Classify@CBaseEntity@@UAEHXZ
	DD	FLAT:?DeathNotice@CBaseEntity@@UAEXPAUentvars_s@@@Z
	DD	FLAT:?IsRigidBody@CBaseEntity@@UAEHXZ
	DD	FLAT:?SetNextThink@CBaseEntity@@UAEXM@Z
	DD	FLAT:?GetState@CBaseEntity@@UAE?AW4STATE@@PAV1@@Z
	DD	FLAT:?GetState@CBaseEntity@@UAE?AW4STATE@@XZ
	DD	FLAT:?TraceAttack@CBaseEntity@@UAEXPAUentvars_s@@MVVector@@PAUgametrace_s@@H@Z
	DD	FLAT:?TakeDamage@CBaseEntity@@UAEHPAUentvars_s@@0MH@Z
	DD	FLAT:?TakeHealth@CBaseEntity@@UAEHMH@Z
	DD	FLAT:?TakeArmor@CBaseEntity@@UAEHMH@Z
	DD	FLAT:?Killed@CBaseEntity@@UAEXPAUentvars_s@@H@Z
	DD	FLAT:?BloodColor@CBaseEntity@@UAEHXZ
	DD	FLAT:?TraceBleed@CBaseEntity@@UAEXMVVector@@PAUgametrace_s@@H@Z
	DD	FLAT:?IsTriggered@CBaseEntity@@UAEHPAV1@@Z
	DD	FLAT:?MyMonsterPointer@CBaseEntity@@UAEPAVCBaseMonster@@XZ
	DD	FLAT:?MySquadMonsterPointer@CBaseEntity@@UAEPAVCSquadMonster@@XZ
	DD	FLAT:?GetToggleState@CBaseEntity@@UAEHXZ
	DD	FLAT:?AddPoints@CBaseEntity@@UAEXHH@Z
	DD	FLAT:?AddPointsToTeam@CBaseEntity@@UAEXHH@Z
	DD	FLAT:?AddPlayerItem@CBaseEntity@@UAEHPAVCBasePlayerItem@@@Z
	DD	FLAT:?RemovePlayerItem@CBaseEntity@@UAEHPAVCBasePlayerItem@@@Z
	DD	FLAT:?GiveAmmo@CBaseEntity@@UAEHHPADH@Z
	DD	FLAT:?GetDelay@CBaseEntity@@UAEMXZ
	DD	FLAT:?IsMoving@CBaseEntity@@UAEHXZ
	DD	FLAT:?OverrideReset@CBaseEntity@@UAEXXZ
	DD	FLAT:?TransferReset@CBaseEntity@@UAEXXZ
	DD	FLAT:?DamageDecal@CBaseEntity@@UAEHH@Z
	DD	FLAT:?SetToggleState@CBaseEntity@@UAEXH@Z
	DD	FLAT:?StartSneaking@CBaseEntity@@UAEXXZ
	DD	FLAT:?StopSneaking@CBaseEntity@@UAEXXZ
	DD	FLAT:?OnControls@CBaseEntity@@UAEHPAV1@@Z
	DD	FLAT:?IsSneaking@CBaseEntity@@UAEHXZ
	DD	FLAT:?IsAlive@CBaseEntity@@UAEHXZ
	DD	FLAT:?IsBSPModel@CBaseEntity@@UAEHXZ
	DD	FLAT:?IsCustomModel@CBaseEntity@@UAEHXZ
	DD	FLAT:?ReflectGauss@CBaseEntity@@UAEHXZ
	DD	FLAT:?HasTarget@CBaseEntity@@UAEHH@Z
	DD	FLAT:?IsInWorld@CBaseEntity@@UAEHH@Z
	DD	FLAT:?IsPlayer@CBaseEntity@@UAEHXZ
	DD	FLAT:?IsNetClient@CBaseEntity@@UAEHXZ
	DD	FLAT:?IsMonster@CBaseEntity@@UAEHXZ
	DD	FLAT:?IsPushable@CBaseEntity@@UAEHXZ
	DD	FLAT:?IsProjectile@CBaseEntity@@UAEHXZ
	DD	FLAT:?IsFuncScreen@CBaseEntity@@UAEHXZ
	DD	FLAT:?IsPortal@CBaseEntity@@UAEHXZ
	DD	FLAT:?IsTank@CBaseEntity@@UAEHXZ
	DD	FLAT:?IsMover@CBaseEntity@@UAEHXZ
	DD	FLAT:?IsBreakable@CBaseEntity@@UAEHXZ
	DD	FLAT:?TeamID@CBaseEntity@@UAEPBDXZ
	DD	FLAT:?AddSpawnFlags@CBaseEntity@@UAEXH@Z
	DD	FLAT:?HasSpawnFlags@CBaseEntity@@UBE_NH@Z
	DD	FLAT:?SetFadeDistance@CBaseEntity@@UAEXH@Z
	DD	FLAT:?SetFlag@CBaseEntity@@UAEXH@Z
	DD	FLAT:?HasFlag@CBaseEntity@@UBE_NH@Z
	DD	FLAT:?RemoveFlag@CBaseEntity@@UAEXH@Z
	DD	FLAT:?SetNullModel@CBaseEntity@@UAEXXZ
	DD	FLAT:?OnPickupObject@CBaseEntity@@UAEXXZ
	DD	FLAT:?OnDropObject@CBaseEntity@@UAEXXZ
	DD	FLAT:?GetNextTarget@CBaseEntity@@UAEPAV1@XZ
	DD	FLAT:?Think@CBaseEntity@@UAEXXZ
	DD	FLAT:?Use@CBaseEntity@@UAEXPAV1@0W4USE_TYPE@@M@Z
	DD	FLAT:?Touch@CBaseEntity@@UAEXPAV1@@Z
	DD	FLAT:?Blocked@CBaseEntity@@UAEXPAV1@@Z
	DD	FLAT:?MoveDone@CBaseEntity@@UAEXXZ
	DD	FLAT:?Respawn@CBaseEntity@@UAEPAV1@XZ
	DD	FLAT:?UpdateOwner@CBaseEntity@@UAEXXZ
	DD	FLAT:?FBecomeProne@CBaseEntity@@UAEHXZ
	DD	FLAT:?Center@CBaseEntity@@UAE?AVVector@@XZ
	DD	FLAT:?EyePosition@CBaseEntity@@UAE?AVVector@@XZ
	DD	FLAT:?EarPosition@CBaseEntity@@UAE?AVVector@@XZ
	DD	FLAT:?BodyTarget@CBaseEntity@@UAE?AVVector@@ABV2@@Z
	DD	FLAT:?IsPointSized@CBaseEntity@@UBEHXZ
	DD	FLAT:?Illumination@CBaseEntity@@UAEHXZ
	DD	FLAT:?FVisible@CBaseEntity@@UAEHABVVector@@@Z
	DD	FLAT:?FVisible@CBaseEntity@@UAEHPAV1@@Z
	DD	FLAT:?ShouldCollide@CBaseEntity@@UAEHPAV1@@Z
	DD	FLAT:?ClearEffects@CBaseEntity@@UAEXXZ
CONST	ENDS
;	COMDAT ??_C@_0BF@DOONGEFO@Bad?5pev?5in?5OFFSET?$CI?$CJ?6?$AA@
CONST	SEGMENT
??_C@_0BF@DOONGEFO@Bad?5pev?5in?5OFFSET?$CI?$CJ?6?$AA@ DB 'Bad pev in OFF'
	DB	'SET()', 0aH, 00H				; `string'
CONST	ENDS
;	COMDAT ??_C@_0BF@CPEPILID@Bad?5ent?5in?5OFFSET?$CI?$CJ?6?$AA@
CONST	SEGMENT
??_C@_0BF@CPEPILID@Bad?5ent?5in?5OFFSET?$CI?$CJ?6?$AA@ DB 'Bad ent in OFF'
	DB	'SET()', 0aH, 00H				; `string'
CONST	ENDS
;	COMDAT ??_C@_0L@FEPNPAJD@targetname?$AA@
CONST	SEGMENT
??_C@_0L@FEPNPAJD@targetname?$AA@ DB 'targetname', 00H	; `string'
CONST	ENDS
;	COMDAT ??_C@_09CNJINBGN@classname?$AA@
CONST	SEGMENT
??_C@_09CNJINBGN@classname?$AA@ DB 'classname', 00H	; `string'
CONST	ENDS
;	COMDAT ??_7IEntityFactory@@6B@
CONST	SEGMENT
??_7IEntityFactory@@6B@ DD FLAT:??_R4IEntityFactory@@6B@ ; IEntityFactory::`vftable'
	DD	FLAT:__purecall
	DD	FLAT:__purecall
	DD	FLAT:__purecall
CONST	ENDS
;	COMDAT ??_C@_04EFCDBJNL@?$CFs?3?3?$AA@
CONST	SEGMENT
??_C@_04EFCDBJNL@?$CFs?3?3?$AA@ DB '%s::', 00H		; `string'
CONST	ENDS
;	COMDAT xdata$x
xdata$x	SEGMENT
__unwindtable$??$GetClassPtr@VCBasePlayer@@@@YAPAVCBasePlayer@@PAV0@PBD@Z DD 0ffffffffH
	DD	FLAT:__unwindfunclet$??$GetClassPtr@VCBasePlayer@@@@YAPAVCBasePlayer@@PAV0@PBD@Z$0
__ehfuncinfo$??$GetClassPtr@VCBasePlayer@@@@YAPAVCBasePlayer@@PAV0@PBD@Z DD 019930522H
	DD	01H
	DD	FLAT:__unwindtable$??$GetClassPtr@VCBasePlayer@@@@YAPAVCBasePlayer@@PAV0@PBD@Z
	DD	2 DUP(00H)
	DD	2 DUP(00H)
	DD	00H
	DD	01H
xdata$x	ENDS
;	COMDAT xdata$x
xdata$x	SEGMENT
__unwindtable$??$GetClassPtr@VCBloodSplat@@@@YAPAVCBloodSplat@@PAV0@@Z DD 0ffffffffH
	DD	FLAT:__unwindfunclet$??$GetClassPtr@VCBloodSplat@@@@YAPAVCBloodSplat@@PAV0@@Z$0
__ehfuncinfo$??$GetClassPtr@VCBloodSplat@@@@YAPAVCBloodSplat@@PAV0@@Z DD 019930522H
	DD	01H
	DD	FLAT:__unwindtable$??$GetClassPtr@VCBloodSplat@@@@YAPAVCBloodSplat@@PAV0@@Z
	DD	2 DUP(00H)
	DD	2 DUP(00H)
	DD	00H
	DD	01H
xdata$x	ENDS
;	COMDAT xdata$x
xdata$x	SEGMENT
__unwindtable$??$GetClassPtr@VCSprayCan@@@@YAPAVCSprayCan@@PAV0@@Z DD 0ffffffffH
	DD	FLAT:__unwindfunclet$??$GetClassPtr@VCSprayCan@@@@YAPAVCSprayCan@@PAV0@@Z$0
__ehfuncinfo$??$GetClassPtr@VCSprayCan@@@@YAPAVCSprayCan@@PAV0@@Z DD 019930522H
	DD	01H
	DD	FLAT:__unwindtable$??$GetClassPtr@VCSprayCan@@@@YAPAVCSprayCan@@PAV0@@Z
	DD	2 DUP(00H)
	DD	2 DUP(00H)
	DD	00H
	DD	01H
xdata$x	ENDS
;	COMDAT xdata$x
xdata$x	SEGMENT
__unwindtable$??$DataMapInit@VCBasePlayer@@@@YAPAUdatamap_s@@PAVCBasePlayer@@@Z DD 0ffffffffH
	DD	FLAT:__unwindfunclet$??$DataMapInit@VCBasePlayer@@@@YAPAUdatamap_s@@PAVCBasePlayer@@@Z$0
	DD	0ffffffffH
	DD	FLAT:__unwindfunclet$??$DataMapInit@VCBasePlayer@@@@YAPAUdatamap_s@@PAVCBasePlayer@@@Z$1
__ehfuncinfo$??$DataMapInit@VCBasePlayer@@@@YAPAUdatamap_s@@PAVCBasePlayer@@@Z DD 019930522H
	DD	02H
	DD	FLAT:__unwindtable$??$DataMapInit@VCBasePlayer@@@@YAPAUdatamap_s@@PAVCBasePlayer@@@Z
	DD	2 DUP(00H)
	DD	2 DUP(00H)
	DD	00H
	DD	01H
xdata$x	ENDS
;	COMDAT xdata$x
xdata$x	SEGMENT
__unwindtable$??0CBasePlayer@@QAE@XZ DD 0ffffffffH
	DD	FLAT:__unwindfunclet$??0CBasePlayer@@QAE@XZ$0
__ehfuncinfo$??0CBasePlayer@@QAE@XZ DD 019930522H
	DD	01H
	DD	FLAT:__unwindtable$??0CBasePlayer@@QAE@XZ
	DD	2 DUP(00H)
	DD	2 DUP(00H)
	DD	00H
	DD	01H
xdata$x	ENDS
;	COMDAT xdata$x
xdata$x	SEGMENT
__unwindtable$?ManageDrone@CBasePlayer@@QAEXXZ DD 0ffffffffH
	DD	FLAT:__unwindfunclet$?ManageDrone@CBasePlayer@@QAEXXZ$0
__ehfuncinfo$?ManageDrone@CBasePlayer@@QAEXXZ DD 019930522H
	DD	01H
	DD	FLAT:__unwindtable$?ManageDrone@CBasePlayer@@QAEXXZ
	DD	2 DUP(00H)
	DD	2 DUP(00H)
	DD	00H
	DD	01H
xdata$x	ENDS
;	COMDAT xdata$x
xdata$x	SEGMENT
__unwindtable$??0CBaseMonster@@QAE@XZ DD 0ffffffffH
	DD	FLAT:__unwindfunclet$??0CBaseMonster@@QAE@XZ$0
__ehfuncinfo$??0CBaseMonster@@QAE@XZ DD 019930522H
	DD	01H
	DD	FLAT:__unwindtable$??0CBaseMonster@@QAE@XZ
	DD	2 DUP(00H)
	DD	2 DUP(00H)
	DD	00H
	DD	01H
xdata$x	ENDS
;	COMDAT xdata$x
xdata$x	SEGMENT
__unwindtable$??0CBaseToggle@@QAE@XZ DD 0ffffffffH
	DD	FLAT:__unwindfunclet$??0CBaseToggle@@QAE@XZ$0
__ehfuncinfo$??0CBaseToggle@@QAE@XZ DD 019930522H
	DD	01H
	DD	FLAT:__unwindtable$??0CBaseToggle@@QAE@XZ
	DD	2 DUP(00H)
	DD	2 DUP(00H)
	DD	00H
	DD	01H
xdata$x	ENDS
;	COMDAT xdata$x
xdata$x	SEGMENT
__unwindtable$??0CBaseEntity@@QAE@XZ DD 0ffffffffH
	DD	FLAT:__unwindfunclet$??0CBaseEntity@@QAE@XZ$0
__ehfuncinfo$??0CBaseEntity@@QAE@XZ DD 019930522H
	DD	01H
	DD	FLAT:__unwindtable$??0CBaseEntity@@QAE@XZ
	DD	2 DUP(00H)
	DD	2 DUP(00H)
	DD	00H
	DD	01H
xdata$x	ENDS
;	COMDAT xdata$x
xdata$x	SEGMENT
__ehfuncinfo$??1?$CUtlMemory@PADH@@QAE@XZ DD 019930522H
	DD	00H
	DD	00H
	DD	2 DUP(00H)
	DD	2 DUP(00H)
	DD	00H
	DD	05H
xdata$x	ENDS
;	COMDAT xdata$x
xdata$x	SEGMENT
__ehfuncinfo$??1?$CUtlArray@PADV?$CUtlMemory@PADH@@@@QAE@XZ DD 019930522H
	DD	00H
	DD	00H
	DD	2 DUP(00H)
	DD	2 DUP(00H)
	DD	00H
	DD	05H
xdata$x	ENDS
;	COMDAT xdata$x
xdata$x	SEGMENT
__unwindtable$??0?$CUtlArray@PADV?$CUtlMemory@PADH@@@@QAE@HH@Z DD 0ffffffffH
	DD	FLAT:__unwindfunclet$??0?$CUtlArray@PADV?$CUtlMemory@PADH@@@@QAE@HH@Z$0
__ehfuncinfo$??0?$CUtlArray@PADV?$CUtlMemory@PADH@@@@QAE@HH@Z DD 019930522H
	DD	01H
	DD	FLAT:__unwindtable$??0?$CUtlArray@PADV?$CUtlMemory@PADH@@@@QAE@HH@Z
	DD	2 DUP(00H)
	DD	2 DUP(00H)
	DD	00H
	DD	01H
xdata$x	ENDS
;	COMDAT xdata$x
xdata$x	SEGMENT
__ehfuncinfo$??1CDatadescGeneratedNameHolder@@QAE@XZ DD 019930522H
	DD	00H
	DD	00H
	DD	2 DUP(00H)
	DD	2 DUP(00H)
	DD	00H
	DD	05H
xdata$x	ENDS
CRT$XCU	SEGMENT
?player$initializer$@@3P6AXXZA DD FLAT:??__Eplayer@@YAXXZ ; player$initializer$
CRT$XCU	ENDS
; Function compile flags: /Odtp /ZI
; File d:\!diffusion 2020\source code 2022\client-server\game_shared\utlmemory.h
;	COMDAT ??$Destruct@PAD@@YAXPAPAD@Z
_TEXT	SEGMENT
_pMemory$ = 8						; size = 4
??$Destruct@PAD@@YAXPAPAD@Z PROC			; Destruct<char *>, COMDAT

; 49   : {

	push	ebp
	mov	ebp, esp
	sub	esp, 64					; 00000040H
	push	ebx
	push	esi
	push	edi

; 50   : 	pMemory->~T();
; 51   : 
; 52   : #ifdef _DEBUG
; 53   : 	memset( pMemory, 0xDD, sizeof(T) );

	push	4
	push	221					; 000000ddH
	mov	eax, DWORD PTR _pMemory$[ebp]
	push	eax
	call	_memset
	add	esp, 12					; 0000000cH

; 54   : #endif
; 55   : }

	pop	edi
	pop	esi
	pop	ebx
	mov	esp, ebp
	pop	ebp
	ret	0
??$Destruct@PAD@@YAXPAPAD@Z ENDP			; Destruct<char *>
_TEXT	ENDS
; Function compile flags: /Odtp /ZI
; File d:\!diffusion 2020\source code 2022\client-server\game_shared\utlmemory.h
;	COMDAT ??$CopyConstruct@PAD@@YAXPAPADABQAD@Z
_TEXT	SEGMENT
tv71 = -72						; size = 4
$T1 = -68						; size = 4
_pMemory$ = 8						; size = 4
_src$ = 12						; size = 4
??$CopyConstruct@PAD@@YAXPAPADABQAD@Z PROC		; CopyConstruct<char *>, COMDAT

; 43   : {

	push	ebp
	mov	ebp, esp
	sub	esp, 72					; 00000048H
	push	ebx
	push	esi
	push	edi

; 44   : 	new( pMemory ) T(src);

	mov	eax, DWORD PTR _pMemory$[ebp]
	push	eax
	push	4
	call	??2@YAPAXIPAX@Z				; operator new
	add	esp, 8
	mov	DWORD PTR $T1[ebp], eax
	cmp	DWORD PTR $T1[ebp], 0
	je	SHORT $LN3@CopyConstr
	mov	ecx, DWORD PTR $T1[ebp]
	mov	edx, DWORD PTR _src$[ebp]
	mov	eax, DWORD PTR [edx]
	mov	DWORD PTR [ecx], eax
	mov	ecx, DWORD PTR $T1[ebp]
	mov	DWORD PTR tv71[ebp], ecx
	jmp	SHORT $LN1@CopyConstr
$LN3@CopyConstr:
	mov	DWORD PTR tv71[ebp], 0
$LN1@CopyConstr:

; 45   : }

	pop	edi
	pop	esi
	pop	ebx
	mov	esp, ebp
	pop	ebp
	ret	0
??$CopyConstruct@PAD@@YAXPAPADABQAD@Z ENDP		; CopyConstruct<char *>
_TEXT	ENDS
; Function compile flags: /Odtp /ZI
; File d:\!diffusion 2020\source code 2022\client-server\server\cbase.h
;	COMDAT ??$GetClassPtr@VCBasePlayer@@@@YAPAVCBasePlayer@@PAV0@PBD@Z
_TEXT	SEGMENT
tv85 = -92						; size = 4
$T2 = -88						; size = 4
$T3 = -84						; size = 4
_pev$ = -16						; size = 4
__$EHRec$ = -12						; size = 12
_newEnt$ = 8						; size = 4
_className$ = 12					; size = 4
??$GetClassPtr@VCBasePlayer@@@@YAPAVCBasePlayer@@PAV0@PBD@Z PROC ; GetClassPtr<CBasePlayer>, COMDAT

; 1146 : {

	push	ebp
	mov	ebp, esp
	push	-1
	push	__ehhandler$??$GetClassPtr@VCBasePlayer@@@@YAPAVCBasePlayer@@PAV0@PBD@Z
	mov	eax, DWORD PTR fs:0
	push	eax
	sub	esp, 80					; 00000050H
	push	ebx
	push	esi
	push	edi
	mov	eax, DWORD PTR ___security_cookie
	xor	eax, ebp
	push	eax
	lea	eax, DWORD PTR __$EHRec$[ebp]
	mov	DWORD PTR fs:0, eax

; 1147 : 	entvars_t *pev = (entvars_t *)newEnt;

	mov	eax, DWORD PTR _newEnt$[ebp]
	mov	DWORD PTR _pev$[ebp], eax

; 1148 : 
; 1149 : 	// allocate entity if necessary
; 1150 : 	if (pev == NULL)

	cmp	DWORD PTR _pev$[ebp], 0
	jne	SHORT $LN2@GetClassPt

; 1151 : 		pev = VARS(CREATE_ENTITY());

	call	DWORD PTR ?g_engfuncs@@3Uenginefuncs_s@@A+84
	push	eax
	call	?VARS@@YAPAUentvars_s@@PAUedict_s@@@Z	; VARS
	add	esp, 4
	mov	DWORD PTR _pev$[ebp], eax
$LN2@GetClassPt:

; 1152 : 
; 1153 : 	// get the private data
; 1154 : 	newEnt = (T *)GET_PRIVATE(ENT(pev));

	mov	eax, DWORD PTR _pev$[ebp]
	push	eax
	call	?ENT@@YAPAUedict_s@@PBUentvars_s@@@Z	; ENT
	add	esp, 4
	push	eax
	call	?GET_PRIVATE@@YAPAXPAUedict_s@@@Z	; GET_PRIVATE
	add	esp, 4
	mov	DWORD PTR _newEnt$[ebp], eax

; 1155 : 
; 1156 : 	if (newEnt == NULL) 

	cmp	DWORD PTR _newEnt$[ebp], 0
	jne	SHORT $LN3@GetClassPt

; 1157 : 	{
; 1158 : 		// allocate private data 
; 1159 : 		newEnt = new(pev) T;

	mov	eax, DWORD PTR _pev$[ebp]
	push	eax
	push	5040					; 000013b0H
	call	??2CBaseEntity@@SAPAXIPAUentvars_s@@@Z	; CBaseEntity::operator new
	add	esp, 8
	mov	DWORD PTR $T2[ebp], eax
	mov	DWORD PTR __$EHRec$[ebp+8], 0
	cmp	DWORD PTR $T2[ebp], 0
	je	SHORT $LN5@GetClassPt
	mov	ecx, DWORD PTR $T2[ebp]
	call	??0CBasePlayer@@QAE@XZ
	mov	DWORD PTR tv85[ebp], eax
	jmp	SHORT $LN6@GetClassPt
$LN5@GetClassPt:
	mov	DWORD PTR tv85[ebp], 0
$LN6@GetClassPt:
	mov	ecx, DWORD PTR tv85[ebp]
	mov	DWORD PTR $T3[ebp], ecx
	mov	DWORD PTR __$EHRec$[ebp+8], -1
	mov	edx, DWORD PTR $T3[ebp]
	mov	DWORD PTR _newEnt$[ebp], edx

; 1160 : 		newEnt->pev = pev;

	mov	eax, DWORD PTR _newEnt$[ebp]
	mov	ecx, DWORD PTR _pev$[ebp]
	mov	DWORD PTR [eax+4], ecx
$LN3@GetClassPt:

; 1161 : 	}
; 1162 : 	newEnt->SetClassname( className );

	mov	eax, DWORD PTR _className$[ebp]
	push	eax
	mov	ecx, DWORD PTR _newEnt$[ebp]
	call	?SetClassname@CBaseEntity@@QAEXPBD@Z	; CBaseEntity::SetClassname

; 1163 : 
; 1164 : 	return newEnt;

	mov	eax, DWORD PTR _newEnt$[ebp]

; 1165 : }

	mov	ecx, DWORD PTR __$EHRec$[ebp]
	mov	DWORD PTR fs:0, ecx
	pop	ecx
	pop	edi
	pop	esi
	pop	ebx
	mov	esp, ebp
	pop	ebp
	ret	0
_TEXT	ENDS
;	COMDAT text$x
text$x	SEGMENT
__unwindfunclet$??$GetClassPtr@VCBasePlayer@@@@YAPAVCBasePlayer@@PAV0@PBD@Z$0:
	mov	eax, DWORD PTR _pev$[ebp]
	push	eax
	mov	eax, DWORD PTR $T2[ebp]
	push	eax
	call	??3CBaseEntity@@SAXPAXPAUentvars_s@@@Z	; CBaseEntity::operator delete
	add	esp, 8
	ret	0
__ehhandler$??$GetClassPtr@VCBasePlayer@@@@YAPAVCBasePlayer@@PAV0@PBD@Z:
	mov	edx, DWORD PTR [esp+8]
	lea	eax, DWORD PTR [edx+12]
	mov	ecx, DWORD PTR [edx-96]
	xor	ecx, eax
	call	@__security_check_cookie@4
	mov	eax, OFFSET __ehfuncinfo$??$GetClassPtr@VCBasePlayer@@@@YAPAVCBasePlayer@@PAV0@PBD@Z
	jmp	___CxxFrameHandler3
text$x	ENDS
??$GetClassPtr@VCBasePlayer@@@@YAPAVCBasePlayer@@PAV0@PBD@Z ENDP ; GetClassPtr<CBasePlayer>
; Function compile flags: /Odtp /ZI
; File d:\!diffusion 2020\source code 2022\client-server\server\cbase.h
;	COMDAT ??$GetClassPtr@VCBloodSplat@@@@YAPAVCBloodSplat@@PAV0@@Z
_TEXT	SEGMENT
tv85 = -92						; size = 4
$T2 = -88						; size = 4
$T3 = -84						; size = 4
_pev$ = -16						; size = 4
__$EHRec$ = -12						; size = 12
_a$ = 8							; size = 4
??$GetClassPtr@VCBloodSplat@@@@YAPAVCBloodSplat@@PAV0@@Z PROC ; GetClassPtr<CBloodSplat>, COMDAT

; 1126 : {

	push	ebp
	mov	ebp, esp
	push	-1
	push	__ehhandler$??$GetClassPtr@VCBloodSplat@@@@YAPAVCBloodSplat@@PAV0@@Z
	mov	eax, DWORD PTR fs:0
	push	eax
	sub	esp, 80					; 00000050H
	push	ebx
	push	esi
	push	edi
	mov	eax, DWORD PTR ___security_cookie
	xor	eax, ebp
	push	eax
	lea	eax, DWORD PTR __$EHRec$[ebp]
	mov	DWORD PTR fs:0, eax

; 1127 : 	entvars_t *pev = (entvars_t *)a;

	mov	eax, DWORD PTR _a$[ebp]
	mov	DWORD PTR _pev$[ebp], eax

; 1128 : 
; 1129 : 	// allocate entity if necessary
; 1130 : 	if (pev == NULL)

	cmp	DWORD PTR _pev$[ebp], 0
	jne	SHORT $LN2@GetClassPt

; 1131 : 		pev = VARS(CREATE_ENTITY());

	call	DWORD PTR ?g_engfuncs@@3Uenginefuncs_s@@A+84
	push	eax
	call	?VARS@@YAPAUentvars_s@@PAUedict_s@@@Z	; VARS
	add	esp, 4
	mov	DWORD PTR _pev$[ebp], eax
$LN2@GetClassPt:

; 1132 : 
; 1133 : 	// get the private data
; 1134 : 	a = (T *)GET_PRIVATE(ENT(pev));

	mov	eax, DWORD PTR _pev$[ebp]
	push	eax
	call	?ENT@@YAPAUedict_s@@PBUentvars_s@@@Z	; ENT
	add	esp, 4
	push	eax
	call	?GET_PRIVATE@@YAPAXPAUedict_s@@@Z	; GET_PRIVATE
	add	esp, 4
	mov	DWORD PTR _a$[ebp], eax

; 1135 : 
; 1136 : 	if (a == NULL) 

	cmp	DWORD PTR _a$[ebp], 0
	jne	SHORT $LN3@GetClassPt

; 1137 : 	{
; 1138 : 		// allocate private data 
; 1139 : 		a = new(pev) T;

	mov	eax, DWORD PTR _pev$[ebp]
	push	eax
	push	1804					; 0000070cH
	call	??2CBaseEntity@@SAPAXIPAUentvars_s@@@Z	; CBaseEntity::operator new
	add	esp, 8
	mov	DWORD PTR $T2[ebp], eax
	mov	DWORD PTR __$EHRec$[ebp+8], 0
	cmp	DWORD PTR $T2[ebp], 0
	je	SHORT $LN5@GetClassPt
	mov	ecx, DWORD PTR $T2[ebp]
	call	??0CBloodSplat@@QAE@XZ
	mov	DWORD PTR tv85[ebp], eax
	jmp	SHORT $LN6@GetClassPt
$LN5@GetClassPt:
	mov	DWORD PTR tv85[ebp], 0
$LN6@GetClassPt:
	mov	ecx, DWORD PTR tv85[ebp]
	mov	DWORD PTR $T3[ebp], ecx
	mov	DWORD PTR __$EHRec$[ebp+8], -1
	mov	edx, DWORD PTR $T3[ebp]
	mov	DWORD PTR _a$[ebp], edx

; 1140 : 		a->pev = pev;

	mov	eax, DWORD PTR _a$[ebp]
	mov	ecx, DWORD PTR _pev$[ebp]
	mov	DWORD PTR [eax+4], ecx
$LN3@GetClassPt:

; 1141 : 	}
; 1142 : 	return a;

	mov	eax, DWORD PTR _a$[ebp]

; 1143 : }

	mov	ecx, DWORD PTR __$EHRec$[ebp]
	mov	DWORD PTR fs:0, ecx
	pop	ecx
	pop	edi
	pop	esi
	pop	ebx
	mov	esp, ebp
	pop	ebp
	ret	0
_TEXT	ENDS
;	COMDAT text$x
text$x	SEGMENT
__unwindfunclet$??$GetClassPtr@VCBloodSplat@@@@YAPAVCBloodSplat@@PAV0@@Z$0:
	mov	eax, DWORD PTR _pev$[ebp]
	push	eax
	mov	eax, DWORD PTR $T2[ebp]
	push	eax
	call	??3CBaseEntity@@SAXPAXPAUentvars_s@@@Z	; CBaseEntity::operator delete
	add	esp, 8
	ret	0
__ehhandler$??$GetClassPtr@VCBloodSplat@@@@YAPAVCBloodSplat@@PAV0@@Z:
	mov	edx, DWORD PTR [esp+8]
	lea	eax, DWORD PTR [edx+12]
	mov	ecx, DWORD PTR [edx-96]
	xor	ecx, eax
	call	@__security_check_cookie@4
	mov	eax, OFFSET __ehfuncinfo$??$GetClassPtr@VCBloodSplat@@@@YAPAVCBloodSplat@@PAV0@@Z
	jmp	___CxxFrameHandler3
text$x	ENDS
??$GetClassPtr@VCBloodSplat@@@@YAPAVCBloodSplat@@PAV0@@Z ENDP ; GetClassPtr<CBloodSplat>
; Function compile flags: /Odtp /ZI
; File d:\!diffusion 2020\source code 2022\client-server\server\cbase.h
;	COMDAT ??$GetClassPtr@VCSprayCan@@@@YAPAVCSprayCan@@PAV0@@Z
_TEXT	SEGMENT
tv85 = -92						; size = 4
$T2 = -88						; size = 4
$T3 = -84						; size = 4
_pev$ = -16						; size = 4
__$EHRec$ = -12						; size = 12
_a$ = 8							; size = 4
??$GetClassPtr@VCSprayCan@@@@YAPAVCSprayCan@@PAV0@@Z PROC ; GetClassPtr<CSprayCan>, COMDAT

; 1126 : {

	push	ebp
	mov	ebp, esp
	push	-1
	push	__ehhandler$??$GetClassPtr@VCSprayCan@@@@YAPAVCSprayCan@@PAV0@@Z
	mov	eax, DWORD PTR fs:0
	push	eax
	sub	esp, 80					; 00000050H
	push	ebx
	push	esi
	push	edi
	mov	eax, DWORD PTR ___security_cookie
	xor	eax, ebp
	push	eax
	lea	eax, DWORD PTR __$EHRec$[ebp]
	mov	DWORD PTR fs:0, eax

; 1127 : 	entvars_t *pev = (entvars_t *)a;

	mov	eax, DWORD PTR _a$[ebp]
	mov	DWORD PTR _pev$[ebp], eax

; 1128 : 
; 1129 : 	// allocate entity if necessary
; 1130 : 	if (pev == NULL)

	cmp	DWORD PTR _pev$[ebp], 0
	jne	SHORT $LN2@GetClassPt

; 1131 : 		pev = VARS(CREATE_ENTITY());

	call	DWORD PTR ?g_engfuncs@@3Uenginefuncs_s@@A+84
	push	eax
	call	?VARS@@YAPAUentvars_s@@PAUedict_s@@@Z	; VARS
	add	esp, 4
	mov	DWORD PTR _pev$[ebp], eax
$LN2@GetClassPt:

; 1132 : 
; 1133 : 	// get the private data
; 1134 : 	a = (T *)GET_PRIVATE(ENT(pev));

	mov	eax, DWORD PTR _pev$[ebp]
	push	eax
	call	?ENT@@YAPAUedict_s@@PBUentvars_s@@@Z	; ENT
	add	esp, 4
	push	eax
	call	?GET_PRIVATE@@YAPAXPAUedict_s@@@Z	; GET_PRIVATE
	add	esp, 4
	mov	DWORD PTR _a$[ebp], eax

; 1135 : 
; 1136 : 	if (a == NULL) 

	cmp	DWORD PTR _a$[ebp], 0
	jne	SHORT $LN3@GetClassPt

; 1137 : 	{
; 1138 : 		// allocate private data 
; 1139 : 		a = new(pev) T;

	mov	eax, DWORD PTR _pev$[ebp]
	push	eax
	push	1804					; 0000070cH
	call	??2CBaseEntity@@SAPAXIPAUentvars_s@@@Z	; CBaseEntity::operator new
	add	esp, 8
	mov	DWORD PTR $T2[ebp], eax
	mov	DWORD PTR __$EHRec$[ebp+8], 0
	cmp	DWORD PTR $T2[ebp], 0
	je	SHORT $LN5@GetClassPt
	mov	ecx, DWORD PTR $T2[ebp]
	call	??0CSprayCan@@QAE@XZ
	mov	DWORD PTR tv85[ebp], eax
	jmp	SHORT $LN6@GetClassPt
$LN5@GetClassPt:
	mov	DWORD PTR tv85[ebp], 0
$LN6@GetClassPt:
	mov	ecx, DWORD PTR tv85[ebp]
	mov	DWORD PTR $T3[ebp], ecx
	mov	DWORD PTR __$EHRec$[ebp+8], -1
	mov	edx, DWORD PTR $T3[ebp]
	mov	DWORD PTR _a$[ebp], edx

; 1140 : 		a->pev = pev;

	mov	eax, DWORD PTR _a$[ebp]
	mov	ecx, DWORD PTR _pev$[ebp]
	mov	DWORD PTR [eax+4], ecx
$LN3@GetClassPt:

; 1141 : 	}
; 1142 : 	return a;

	mov	eax, DWORD PTR _a$[ebp]

; 1143 : }

	mov	ecx, DWORD PTR __$EHRec$[ebp]
	mov	DWORD PTR fs:0, ecx
	pop	ecx
	pop	edi
	pop	esi
	pop	ebx
	mov	esp, ebp
	pop	ebp
	ret	0
_TEXT	ENDS
;	COMDAT text$x
text$x	SEGMENT
__unwindfunclet$??$GetClassPtr@VCSprayCan@@@@YAPAVCSprayCan@@PAV0@@Z$0:
	mov	eax, DWORD PTR _pev$[ebp]
	push	eax
	mov	eax, DWORD PTR $T2[ebp]
	push	eax
	call	??3CBaseEntity@@SAXPAXPAUentvars_s@@@Z	; CBaseEntity::operator delete
	add	esp, 8
	ret	0
__ehhandler$??$GetClassPtr@VCSprayCan@@@@YAPAVCSprayCan@@PAV0@@Z:
	mov	edx, DWORD PTR [esp+8]
	lea	eax, DWORD PTR [edx+12]
	mov	ecx, DWORD PTR [edx-96]
	xor	ecx, eax
	call	@__security_check_cookie@4
	mov	eax, OFFSET __ehfuncinfo$??$GetClassPtr@VCSprayCan@@@@YAPAVCSprayCan@@PAV0@@Z
	jmp	___CxxFrameHandler3
text$x	ENDS
??$GetClassPtr@VCSprayCan@@@@YAPAVCSprayCan@@PAV0@@Z ENDP ; GetClassPtr<CSprayCan>
; Function compile flags: /Odtp /ZI
; File d:\!diffusion 2020\source code 2022\client-server\server\game\baseplayer.cpp
;	COMDAT ?FindEntityForward@@YAPAVCBaseEntity@@PAV1@@Z
_TEXT	SEGMENT
$T1 = -172						; size = 12
$T2 = -160						; size = 12
$T3 = -148						; size = 12
$T4 = -136						; size = 12
_pHit$5 = -60						; size = 4
_tr$ = -56						; size = 56
_pMe$ = 8						; size = 4
?FindEntityForward@@YAPAVCBaseEntity@@PAV1@@Z PROC	; FindEntityForward, COMDAT

; 5848 : {

	push	ebp
	mov	ebp, esp
	sub	esp, 172				; 000000acH
	push	ebx
	push	esi
	push	edi

; 5849 : 	TraceResult tr;

	lea	ecx, DWORD PTR _tr$[ebp]
	call	??0gametrace_s@@QAE@XZ

; 5850 : 
; 5851 : 	UTIL_MakeVectors( pMe->pev->v_angle );

	mov	eax, DWORD PTR _pMe$[ebp]
	mov	ecx, DWORD PTR [eax+4]
	add	ecx, 116				; 00000074H
	push	ecx
	call	?UTIL_MakeVectors@@YAXABVVector@@@Z	; UTIL_MakeVectors
	add	esp, 4

; 5852 : 	UTIL_TraceLine( pMe->EyePosition(), pMe->EyePosition() + gpGlobals->v_forward * 8192, dont_ignore_monsters, pMe->edict(), &tr );

	lea	eax, DWORD PTR _tr$[ebp]
	push	eax
	mov	ecx, DWORD PTR _pMe$[ebp]
	call	?edict@CBaseEntity@@QAEPAUedict_s@@XZ	; CBaseEntity::edict
	push	eax
	push	0
	push	ecx
	movss	xmm0, DWORD PTR __real@46000000
	movss	DWORD PTR [esp], xmm0
	lea	ecx, DWORD PTR $T3[ebp]
	push	ecx
	mov	ecx, DWORD PTR ?gpGlobals@@3PAUglobalvars_t@@A ; gpGlobals
	add	ecx, 40					; 00000028H
	call	??DVector@@QBE?AV0@M@Z			; Vector::operator*
	push	eax
	lea	edx, DWORD PTR $T2[ebp]
	push	edx
	lea	eax, DWORD PTR $T4[ebp]
	push	eax
	mov	ecx, DWORD PTR _pMe$[ebp]
	mov	edx, DWORD PTR [ecx]
	mov	ecx, DWORD PTR _pMe$[ebp]
	mov	eax, DWORD PTR [edx+340]
	call	eax
	mov	ecx, eax
	call	??HVector@@QBE?AV0@ABV0@@Z		; Vector::operator+
	push	eax
	lea	ecx, DWORD PTR $T1[ebp]
	push	ecx
	mov	edx, DWORD PTR _pMe$[ebp]
	mov	eax, DWORD PTR [edx]
	mov	ecx, DWORD PTR _pMe$[ebp]
	mov	edx, DWORD PTR [eax+340]
	call	edx
	push	eax
	call	?UTIL_TraceLine@@YAXABVVector@@0W4IGNORE_MONSTERS@@PAUedict_s@@PAUgametrace_s@@@Z ; UTIL_TraceLine
	add	esp, 20					; 00000014H

; 5853 : 
; 5854 : 	if( tr.flFraction != 1.0 && !FNullEnt( tr.pHit ))

	cvtss2sd xmm0, DWORD PTR _tr$[ebp+16]
	ucomisd	xmm0, QWORD PTR __real@3ff0000000000000
	lahf
	test	ah, 68					; 00000044H
	jnp	SHORT $LN2@FindEntity
	mov	eax, DWORD PTR _tr$[ebp+48]
	push	eax
	call	?FNullEnt@@YAHPBUedict_s@@@Z		; FNullEnt
	add	esp, 4
	test	eax, eax
	jne	SHORT $LN2@FindEntity

; 5855 : 	{
; 5856 : 		CBaseEntity *pHit = CBaseEntity::Instance( tr.pHit );

	mov	eax, DWORD PTR _tr$[ebp+48]
	push	eax
	call	?Instance@CBaseEntity@@SAPAV1@PAUedict_s@@@Z ; CBaseEntity::Instance
	add	esp, 4
	mov	DWORD PTR _pHit$5[ebp], eax

; 5857 : 		return pHit;

	mov	eax, DWORD PTR _pHit$5[ebp]
	jmp	SHORT $LN1@FindEntity
$LN2@FindEntity:

; 5858 : 	}
; 5859 : 	return NULL;

	xor	eax, eax
$LN1@FindEntity:

; 5860 : }

	pop	edi
	pop	esi
	pop	ebx
	mov	esp, ebp
	pop	ebp
	ret	0
?FindEntityForward@@YAPAVCBaseEntity@@PAV1@@Z ENDP	; FindEntityForward
_TEXT	ENDS
; Function compile flags: /Odtp /ZI
;	COMDAT ??0CBloodSplat@@QAE@XZ
_TEXT	SEGMENT
_this$ = -4						; size = 4
??0CBloodSplat@@QAE@XZ PROC				; CBloodSplat::CBloodSplat, COMDAT
; _this$ = ecx
	push	ebp
	mov	ebp, esp
	sub	esp, 68					; 00000044H
	push	ebx
	push	esi
	push	edi
	mov	DWORD PTR _this$[ebp], ecx
