; Listing generated by Microsoft (R) Optimizing Compiler Version 19.00.24247.2 

	TITLE	D:\!DIFFUSION 2020\source code 2022\client-server\server\monsters\entities\monster_snark.cpp
	.686P
	.XMM
	include listing.inc
	.model	flat

INCLUDELIB LIBCMT
INCLUDELIB OLDNAMES

PUBLIC	?m_DataMap@CSqueakGrenade@@0Udatamap_s@@A	; CSqueakGrenade::m_DataMap
PUBLIC	?m_flNextBounceSoundTime@CSqueakGrenade@@0MA	; CSqueakGrenade::m_flNextBounceSoundTime
PUBLIC	??_C@_0P@EAIBCLLJ@CSqueakGrenade?$AA@		; `string'
PUBLIC	??_C@_07MNDLNKIO@m_flDie?$AA@			; `string'
PUBLIC	??_C@_0M@FOMIDDIP@m_vecTarget?$AA@		; `string'
PUBLIC	??_C@_0N@HIBGMAIK@m_flNextHunt?$AA@		; `string'
PUBLIC	??_C@_0M@ODHADNKC@m_flNextHit?$AA@		; `string'
PUBLIC	??_C@_09HMDDEHK@m_posPrev?$AA@			; `string'
_BSS	SEGMENT
?m_flNextBounceSoundTime@CSqueakGrenade@@0MA DD 01H DUP (?) ; CSqueakGrenade::m_flNextBounceSoundTime
_BSS	ENDS
;	COMDAT ??_C@_09HMDDEHK@m_posPrev?$AA@
CONST	SEGMENT
??_C@_09HMDDEHK@m_posPrev?$AA@ DB 'm_posPrev', 00H	; `string'
CONST	ENDS
;	COMDAT ??_C@_0M@ODHADNKC@m_flNextHit?$AA@
CONST	SEGMENT
??_C@_0M@ODHADNKC@m_flNextHit?$AA@ DB 'm_flNextHit', 00H ; `string'
CONST	ENDS
;	COMDAT ??_C@_0N@HIBGMAIK@m_flNextHunt?$AA@
CONST	SEGMENT
??_C@_0N@HIBGMAIK@m_flNextHunt?$AA@ DB 'm_flNextHunt', 00H ; `string'
CONST	ENDS
;	COMDAT ??_C@_0M@FOMIDDIP@m_vecTarget?$AA@
CONST	SEGMENT
??_C@_0M@FOMIDDIP@m_vecTarget?$AA@ DB 'm_vecTarget', 00H ; `string'
CONST	ENDS
;	COMDAT ??_C@_07MNDLNKIO@m_flDie?$AA@
CONST	SEGMENT
??_C@_07MNDLNKIO@m_flDie?$AA@ DB 'm_flDie', 00H		; `string'
CONST	ENDS
;	COMDAT ??_C@_0P@EAIBCLLJ@CSqueakGrenade?$AA@
CONST	SEGMENT
??_C@_0P@EAIBCLLJ@CSqueakGrenade?$AA@ DB 'CSqueakGrenade', 00H ; `string'
CONST	ENDS
_DATA	SEGMENT
?m_DataMap@CSqueakGrenade@@0Udatamap_s@@A DD 00H	; CSqueakGrenade::m_DataMap
	DD	00H
	DD	FLAT:??_C@_0P@EAIBCLLJ@CSqueakGrenade?$AA@
	DD	00H
?dataDesc@?1???$DataMapInit@VCSqueakGrenade@@@@YAPAUdatamap_s@@PAVCSqueakGrenade@@@Z@4PAUtypedescription_s@@A DD 012H ; `DataMapInit<CSqueakGrenade>'::`2'::dataDesc
	DD	00H
	DD	00H
	DW	00H
	DW	00H
	DD	00H
	DD	00H
	DD	0fH
	DD	FLAT:??_C@_07MNDLNKIO@m_flDie?$AA@
	DD	09d4H
	DW	01H
	DW	02H
	DD	00H
	DD	00H
	DD	07H
	DD	FLAT:??_C@_0M@FOMIDDIP@m_vecTarget?$AA@
	DD	09d8H
	DW	01H
	DW	02H
	DD	00H
	DD	00H
	DD	0fH
	DD	FLAT:??_C@_0N@HIBGMAIK@m_flNextHunt?$AA@
	DD	09e4H
	DW	01H
	DW	02H
	DD	00H
	DD	00H
	DD	0fH
	DD	FLAT:??_C@_0M@ODHADNKC@m_flNextHit?$AA@
	DD	09e8H
	DW	01H
	DW	02H
	DD	00H
	DD	00H
	DD	08H
	DD	FLAT:??_C@_09HMDDEHK@m_posPrev?$AA@
	DD	09ecH
	DW	01H
	DW	02H
	DD	00H
	DD	00H
	DD	012H
	ORG $+44
_DATA	ENDS
PUBLIC	??_H@YGXPAXIIP6EPAX0@Z@Z			; `vector constructor iterator'
PUBLIC	??__G@YGXPAX0IIP6EPAX00@Z@Z			; `vector copy constructor iterator'
PUBLIC	?__empty_global_delete@@YAXPAX@Z		; __empty_global_delete
PUBLIC	?__empty_global_delete@@YAXPAXI@Z		; __empty_global_delete
PUBLIC	___local_stdio_printf_options
PUBLIC	??$__vcrt_va_start_verify_argument_type@QBD@@YAXXZ ; __vcrt_va_start_verify_argument_type<char const * const>
PUBLIC	__vsnprintf_l
PUBLIC	__vsprintf_l
PUBLIC	_sprintf
PUBLIC	??0Vector@@QAE@XZ				; Vector::Vector
PUBLIC	??0Vector@@QAE@MMM@Z				; Vector::Vector
PUBLIC	??0Vector@@QAE@ABV0@@Z				; Vector::Vector
PUBLIC	??8Vector@@QBEHABV0@@Z				; Vector::operator==
PUBLIC	??9Vector@@QBEHABV0@@Z				; Vector::operator!=
PUBLIC	??HVector@@QBE?AV0@ABV0@@Z			; Vector::operator+
PUBLIC	??GVector@@QBE?AV0@ABV0@@Z			; Vector::operator-
PUBLIC	??DVector@@QBE?AV0@M@Z				; Vector::operator*
PUBLIC	?Length@Vector@@QBEMXZ				; Vector::Length
PUBLIC	?Normalize@Vector@@QBE?AV1@XZ			; Vector::Normalize
PUBLIC	??0gametrace_s@@QAE@XZ				; gametrace_s::gametrace_s
PUBLIC	??0gametrace_s@@QAE@$$QAU0@@Z			; gametrace_s::gametrace_s
PUBLIC	?GET_PRIVATE@@YAPAXPAUedict_s@@@Z		; GET_PRIVATE
PUBLIC	??2@YAPAXIPAX@Z					; operator new
PUBLIC	?UtlMemory_CalcNewAllocationCount@@YAHHHHH@Z	; UtlMemory_CalcNewAllocationCount
PUBLIC	??0CDatadescGeneratedNameHolder@@QAE@PBD@Z	; CDatadescGeneratedNameHolder::CDatadescGeneratedNameHolder
PUBLIC	??1CDatadescGeneratedNameHolder@@QAE@XZ		; CDatadescGeneratedNameHolder::~CDatadescGeneratedNameHolder
PUBLIC	?GenerateName@CDatadescGeneratedNameHolder@@QAEPBDPBD@Z ; CDatadescGeneratedNameHolder::GenerateName
PUBLIC	??0?$CUtlArray@PADV?$CUtlMemory@PADH@@@@QAE@HH@Z ; CUtlArray<char *,CUtlMemory<char *,int> >::CUtlArray<char *,CUtlMemory<char *,int> >
PUBLIC	??1?$CUtlArray@PADV?$CUtlMemory@PADH@@@@QAE@XZ	; CUtlArray<char *,CUtlMemory<char *,int> >::~CUtlArray<char *,CUtlMemory<char *,int> >
PUBLIC	??A?$CUtlArray@PADV?$CUtlMemory@PADH@@@@QAEAAPADH@Z ; CUtlArray<char *,CUtlMemory<char *,int> >::operator[]
PUBLIC	?Element@?$CUtlArray@PADV?$CUtlMemory@PADH@@@@QAEAAPADH@Z ; CUtlArray<char *,CUtlMemory<char *,int> >::Element
PUBLIC	?Base@?$CUtlArray@PADV?$CUtlMemory@PADH@@@@QAEPAPADXZ ; CUtlArray<char *,CUtlMemory<char *,int> >::Base
PUBLIC	?Count@?$CUtlArray@PADV?$CUtlMemory@PADH@@@@QBEHXZ ; CUtlArray<char *,CUtlMemory<char *,int> >::Count
PUBLIC	?IsValidIndex@?$CUtlArray@PADV?$CUtlMemory@PADH@@@@QBE_NH@Z ; CUtlArray<char *,CUtlMemory<char *,int> >::IsValidIndex
PUBLIC	?AddToTail@?$CUtlArray@PADV?$CUtlMemory@PADH@@@@QAEHABQAD@Z ; CUtlArray<char *,CUtlMemory<char *,int> >::AddToTail
PUBLIC	?InsertBefore@?$CUtlArray@PADV?$CUtlMemory@PADH@@@@QAEHHABQAD@Z ; CUtlArray<char *,CUtlMemory<char *,int> >::InsertBefore
PUBLIC	?RemoveAll@?$CUtlArray@PADV?$CUtlMemory@PADH@@@@QAEXXZ ; CUtlArray<char *,CUtlMemory<char *,int> >::RemoveAll
PUBLIC	?Purge@?$CUtlArray@PADV?$CUtlMemory@PADH@@@@QAEXXZ ; CUtlArray<char *,CUtlMemory<char *,int> >::Purge
PUBLIC	?GrowVector@?$CUtlArray@PADV?$CUtlMemory@PADH@@@@IAEXH@Z ; CUtlArray<char *,CUtlMemory<char *,int> >::GrowVector
PUBLIC	?ShiftElementsRight@?$CUtlArray@PADV?$CUtlMemory@PADH@@@@IAEXHH@Z ; CUtlArray<char *,CUtlMemory<char *,int> >::ShiftElementsRight
PUBLIC	??0?$CUtlMemory@PADH@@QAE@HH@Z			; CUtlMemory<char *,int>::CUtlMemory<char *,int>
PUBLIC	??1?$CUtlMemory@PADH@@QAE@XZ			; CUtlMemory<char *,int>::~CUtlMemory<char *,int>
PUBLIC	??A?$CUtlMemory@PADH@@QAEAAPADH@Z		; CUtlMemory<char *,int>::operator[]
PUBLIC	?IsIdxValid@?$CUtlMemory@PADH@@QBE_NH@Z		; CUtlMemory<char *,int>::IsIdxValid
PUBLIC	?Base@?$CUtlMemory@PADH@@QAEPAPADXZ		; CUtlMemory<char *,int>::Base
PUBLIC	?NumAllocated@?$CUtlMemory@PADH@@QBEHXZ		; CUtlMemory<char *,int>::NumAllocated
PUBLIC	?Grow@?$CUtlMemory@PADH@@QAEXH@Z		; CUtlMemory<char *,int>::Grow
PUBLIC	?Purge@?$CUtlMemory@PADH@@QAEXXZ		; CUtlMemory<char *,int>::Purge
PUBLIC	?IsExternallyAllocated@?$CUtlMemory@PADH@@QBE_NXZ ; CUtlMemory<char *,int>::IsExternallyAllocated
PUBLIC	?IsReadOnly@?$CUtlMemory@PADH@@QBE_NXZ		; CUtlMemory<char *,int>::IsReadOnly
PUBLIC	?ValidateGrowSize@?$CUtlMemory@PADH@@IAEXXZ	; CUtlMemory<char *,int>::ValidateGrowSize
PUBLIC	?ResetDbgInfo@?$CUtlArray@PADV?$CUtlMemory@PADH@@@@IAEXXZ ; CUtlArray<char *,CUtlMemory<char *,int> >::ResetDbgInfo
PUBLIC	??0IEntityFactory@@QAE@XZ			; IEntityFactory::IEntityFactory
PUBLIC	?ENT@@YAPAUedict_s@@PBUentvars_s@@@Z		; ENT
PUBLIC	?ENT@@YAPAUedict_s@@H@Z				; ENT
PUBLIC	?VARS@@YAPAUentvars_s@@PAUedict_s@@@Z		; VARS
PUBLIC	?FStrEq@@YAHPBD0@Z				; FStrEq
PUBLIC	??0WayPoint_t@@QAE@XZ				; WayPoint_t::WayPoint_t
PUBLIC	?Get@EHANDLE@@QAEPAUedict_s@@XZ			; EHANDLE::Get
PUBLIC	??BEHANDLE@@QAEHXZ				; EHANDLE::operator int
PUBLIC	??BEHANDLE@@QAEPAVCBaseEntity@@XZ		; EHANDLE::operator CBaseEntity *
PUBLIC	??4EHANDLE@@QAEPAVCBaseEntity@@PAV1@@Z		; EHANDLE::operator=
PUBLIC	??CEHANDLE@@QAEPAVCBaseEntity@@XZ		; EHANDLE::operator->
PUBLIC	?GetClassname@CBaseEntity@@QAEPBDXZ		; CBaseEntity::GetClassname
PUBLIC	?SetClassname@CBaseEntity@@QAEXPBD@Z		; CBaseEntity::SetClassname
PUBLIC	?Spawn@CBaseEntity@@UAEXXZ			; CBaseEntity::Spawn
PUBLIC	?Precache@CBaseEntity@@UAEXXZ			; CBaseEntity::Precache
PUBLIC	?KeyValue@CBaseEntity@@UAEXPAUKeyValueData_s@@@Z ; CBaseEntity::KeyValue
PUBLIC	?ObjectCaps@CBaseEntity@@UAEHXZ			; CBaseEntity::ObjectCaps
PUBLIC	?Activate@CBaseEntity@@UAEXXZ			; CBaseEntity::Activate
PUBLIC	?OnChangeLevel@CBaseEntity@@UAEXXZ		; CBaseEntity::OnChangeLevel
PUBLIC	?OnTeleport@CBaseEntity@@UAEXXZ			; CBaseEntity::OnTeleport
PUBLIC	?PortalSleep@CBaseEntity@@UAEXM@Z		; CBaseEntity::PortalSleep
PUBLIC	?StartMessage@CBaseEntity@@UAEXPAVCBasePlayer@@@Z ; CBaseEntity::StartMessage
PUBLIC	?GetPosition@CBaseEntity@@UAEMXZ		; CBaseEntity::GetPosition
PUBLIC	?OnChangeParent@CBaseEntity@@UAEXXZ		; CBaseEntity::OnChangeParent
PUBLIC	?OnClearParent@CBaseEntity@@UAEXXZ		; CBaseEntity::OnClearParent
PUBLIC	?OnRemove@CBaseEntity@@UAEXXZ			; CBaseEntity::OnRemove
PUBLIC	?Classify@CBaseEntity@@UAEHXZ			; CBaseEntity::Classify
PUBLIC	?DeathNotice@CBaseEntity@@UAEXPAUentvars_s@@@Z	; CBaseEntity::DeathNotice
PUBLIC	?IsRigidBody@CBaseEntity@@UAEHXZ		; CBaseEntity::IsRigidBody
PUBLIC	?GetState@CBaseEntity@@UAE?AW4STATE@@XZ		; CBaseEntity::GetState
PUBLIC	?GetState@CBaseEntity@@UAE?AW4STATE@@PAV1@@Z	; CBaseEntity::GetState
PUBLIC	?BloodColor@CBaseEntity@@UAEHXZ			; CBaseEntity::BloodColor
PUBLIC	?IsTriggered@CBaseEntity@@UAEHPAV1@@Z		; CBaseEntity::IsTriggered
PUBLIC	?MyMonsterPointer@CBaseEntity@@UAEPAVCBaseMonster@@XZ ; CBaseEntity::MyMonsterPointer
PUBLIC	?MySquadMonsterPointer@CBaseEntity@@UAEPAVCSquadMonster@@XZ ; CBaseEntity::MySquadMonsterPointer
PUBLIC	?GetToggleState@CBaseEntity@@UAEHXZ		; CBaseEntity::GetToggleState
PUBLIC	?AddPoints@CBaseEntity@@UAEXHH@Z		; CBaseEntity::AddPoints
PUBLIC	?AddPointsToTeam@CBaseEntity@@UAEXHH@Z		; CBaseEntity::AddPointsToTeam
PUBLIC	?AddPlayerItem@CBaseEntity@@UAEHPAVCBasePlayerItem@@@Z ; CBaseEntity::AddPlayerItem
PUBLIC	?RemovePlayerItem@CBaseEntity@@UAEHPAVCBasePlayerItem@@@Z ; CBaseEntity::RemovePlayerItem
PUBLIC	?GiveAmmo@CBaseEntity@@UAEHHPADH@Z		; CBaseEntity::GiveAmmo
PUBLIC	?GetDelay@CBaseEntity@@UAEMXZ			; CBaseEntity::GetDelay
PUBLIC	?IsMoving@CBaseEntity@@UAEHXZ			; CBaseEntity::IsMoving
PUBLIC	?OverrideReset@CBaseEntity@@UAEXXZ		; CBaseEntity::OverrideReset
PUBLIC	?TransferReset@CBaseEntity@@UAEXXZ		; CBaseEntity::TransferReset
PUBLIC	?SetToggleState@CBaseEntity@@UAEXH@Z		; CBaseEntity::SetToggleState
PUBLIC	?StartSneaking@CBaseEntity@@UAEXXZ		; CBaseEntity::StartSneaking
PUBLIC	?StopSneaking@CBaseEntity@@UAEXXZ		; CBaseEntity::StopSneaking
PUBLIC	?OnControls@CBaseEntity@@UAEHPAV1@@Z		; CBaseEntity::OnControls
PUBLIC	?IsSneaking@CBaseEntity@@UAEHXZ			; CBaseEntity::IsSneaking
PUBLIC	?IsAlive@CBaseEntity@@UAEHXZ			; CBaseEntity::IsAlive
PUBLIC	?IsBSPModel@CBaseEntity@@UAEHXZ			; CBaseEntity::IsBSPModel
PUBLIC	?IsCustomModel@CBaseEntity@@UAEHXZ		; CBaseEntity::IsCustomModel
PUBLIC	?ReflectGauss@CBaseEntity@@UAEHXZ		; CBaseEntity::ReflectGauss
PUBLIC	?HasTarget@CBaseEntity@@UAEHH@Z			; CBaseEntity::HasTarget
PUBLIC	?IsPlayer@CBaseEntity@@UAEHXZ			; CBaseEntity::IsPlayer
PUBLIC	?IsNetClient@CBaseEntity@@UAEHXZ		; CBaseEntity::IsNetClient
PUBLIC	?IsMonster@CBaseEntity@@UAEHXZ			; CBaseEntity::IsMonster
PUBLIC	?IsPushable@CBaseEntity@@UAEHXZ			; CBaseEntity::IsPushable
PUBLIC	?IsProjectile@CBaseEntity@@UAEHXZ		; CBaseEntity::IsProjectile
PUBLIC	?IsFuncScreen@CBaseEntity@@UAEHXZ		; CBaseEntity::IsFuncScreen
PUBLIC	?IsPortal@CBaseEntity@@UAEHXZ			; CBaseEntity::IsPortal
PUBLIC	?IsTank@CBaseEntity@@UAEHXZ			; CBaseEntity::IsTank
PUBLIC	?IsMover@CBaseEntity@@UAEHXZ			; CBaseEntity::IsMover
PUBLIC	?IsBreakable@CBaseEntity@@UAEHXZ		; CBaseEntity::IsBreakable
PUBLIC	?TeamID@CBaseEntity@@UAEPBDXZ			; CBaseEntity::TeamID
PUBLIC	?AddSpawnFlags@CBaseEntity@@UAEXH@Z		; CBaseEntity::AddSpawnFlags
PUBLIC	?HasSpawnFlags@CBaseEntity@@UBE_NH@Z		; CBaseEntity::HasSpawnFlags
PUBLIC	?SetFadeDistance@CBaseEntity@@UAEXH@Z		; CBaseEntity::SetFadeDistance
PUBLIC	?SetFlag@CBaseEntity@@UAEXH@Z			; CBaseEntity::SetFlag
PUBLIC	?HasFlag@CBaseEntity@@UBE_NH@Z			; CBaseEntity::HasFlag
PUBLIC	?RemoveFlag@CBaseEntity@@UAEXH@Z		; CBaseEntity::RemoveFlag
PUBLIC	?SetNullModel@CBaseEntity@@UAEXXZ		; CBaseEntity::SetNullModel
PUBLIC	?OnPickupObject@CBaseEntity@@UAEXXZ		; CBaseEntity::OnPickupObject
PUBLIC	?OnDropObject@CBaseEntity@@UAEXXZ		; CBaseEntity::OnDropObject
PUBLIC	?Think@CBaseEntity@@UAEXXZ			; CBaseEntity::Think
PUBLIC	?Use@CBaseEntity@@UAEXPAV1@0W4USE_TYPE@@M@Z	; CBaseEntity::Use
PUBLIC	?Touch@CBaseEntity@@UAEXPAV1@@Z			; CBaseEntity::Touch
PUBLIC	?Blocked@CBaseEntity@@UAEXPAV1@@Z		; CBaseEntity::Blocked
PUBLIC	?MoveDone@CBaseEntity@@UAEXXZ			; CBaseEntity::MoveDone
PUBLIC	??2CBaseEntity@@SAPAXIPAUentvars_s@@@Z		; CBaseEntity::operator new
PUBLIC	??3CBaseEntity@@SAXPAXPAUentvars_s@@@Z		; CBaseEntity::operator delete
PUBLIC	?Respawn@CBaseEntity@@UAEPAV1@XZ		; CBaseEntity::Respawn
PUBLIC	?Instance@CBaseEntity@@SAPAV1@PAUedict_s@@@Z	; CBaseEntity::Instance
PUBLIC	?FunctionCheck@CBaseEntity@@QAEXPAXPAD@Z	; CBaseEntity::FunctionCheck
PUBLIC	?ThinkSet@CBaseEntity@@QAEP81@AEXXZP81@AEXXZPAD@Z ; CBaseEntity::ThinkSet
PUBLIC	?TouchSet@CBaseEntity@@QAEP81@AEXPAV1@@ZP81@AEX0@ZPAD@Z ; CBaseEntity::TouchSet
PUBLIC	?UpdateOwner@CBaseEntity@@UAEXXZ		; CBaseEntity::UpdateOwner
PUBLIC	?FBecomeProne@CBaseEntity@@UAEHXZ		; CBaseEntity::FBecomeProne
PUBLIC	?edict@CBaseEntity@@QAEPAUedict_s@@XZ		; CBaseEntity::edict
PUBLIC	?Center@CBaseEntity@@UAE?AVVector@@XZ		; CBaseEntity::Center
PUBLIC	?EyePosition@CBaseEntity@@UAE?AVVector@@XZ	; CBaseEntity::EyePosition
PUBLIC	?EarPosition@CBaseEntity@@UAE?AVVector@@XZ	; CBaseEntity::EarPosition
PUBLIC	?BodyTarget@CBaseEntity@@UAE?AVVector@@ABV2@@Z	; CBaseEntity::BodyTarget
PUBLIC	?IsPointSized@CBaseEntity@@UBEHXZ		; CBaseEntity::IsPointSized
PUBLIC	?Illumination@CBaseEntity@@UAEHXZ		; CBaseEntity::Illumination
PUBLIC	??0CBaseEntity@@QAE@XZ				; CBaseEntity::CBaseEntity
PUBLIC	??1CBaseEntity@@QAE@XZ				; CBaseEntity::~CBaseEntity
PUBLIC	?GetState@CBaseDelay@@UAE?AW4STATE@@XZ		; CBaseDelay::GetState
PUBLIC	??0CBaseDelay@@QAE@XZ				; CBaseDelay::CBaseDelay
PUBLIC	??1CBaseDelay@@QAE@XZ				; CBaseDelay::~CBaseDelay
PUBLIC	?HandleAnimEvent@CBaseAnimating@@UAEXPAUMonsterEvent_t@@@Z ; CBaseAnimating::HandleAnimEvent
PUBLIC	??0CBaseAnimating@@QAE@XZ			; CBaseAnimating::CBaseAnimating
PUBLIC	??1CBaseAnimating@@QAE@XZ			; CBaseAnimating::~CBaseAnimating
PUBLIC	?GetToggleState@CBaseToggle@@UAEHXZ		; CBaseToggle::GetToggleState
PUBLIC	?GetDelay@CBaseToggle@@UAEMXZ			; CBaseToggle::GetDelay
PUBLIC	??0CBaseToggle@@QAE@XZ				; CBaseToggle::CBaseToggle
PUBLIC	??1CBaseToggle@@QAE@XZ				; CBaseToggle::~CBaseToggle
PUBLIC	?Classify@CBaseMonster@@UAEHXZ			; CBaseMonster::Classify
PUBLIC	?BloodColor@CBaseMonster@@UAEHXZ		; CBaseMonster::BloodColor
PUBLIC	?MyMonsterPointer@CBaseMonster@@UAEPAV1@XZ	; CBaseMonster::MyMonsterPointer
PUBLIC	?IsAlive@CBaseMonster@@UAEHXZ			; CBaseMonster::IsAlive
PUBLIC	?GetStoppedActivity@CBaseMonster@@UAE?AW4Activity@@XZ ; CBaseMonster::GetStoppedActivity
PUBLIC	?Stop@CBaseMonster@@UAEXXZ			; CBaseMonster::Stop
PUBLIC	?ScheduleChange@CBaseMonster@@UAEXXZ		; CBaseMonster::ScheduleChange
PUBLIC	?CanPlaySentence@CBaseMonster@@UAEHH@Z		; CBaseMonster::CanPlaySentence
PUBLIC	?SetYawSpeed@CBaseMonster@@UAEXXZ		; CBaseMonster::SetYawSpeed
PUBLIC	?FValidateCover@CBaseMonster@@UAEHABVVector@@@Z	; CBaseMonster::FValidateCover
PUBLIC	?CoverRadius@CBaseMonster@@UAEMXZ		; CBaseMonster::CoverRadius
PUBLIC	?CheckAmmo@CBaseMonster@@UAEXXZ			; CBaseMonster::CheckAmmo
PUBLIC	?HearingSensitivity@CBaseMonster@@UAEMXZ	; CBaseMonster::HearingSensitivity
PUBLIC	?PrescheduleThink@CBaseMonster@@UAEXXZ		; CBaseMonster::PrescheduleThink
PUBLIC	?BodyTarget@CBaseMonster@@UAE?AVVector@@ABV2@@Z	; CBaseMonster::BodyTarget
PUBLIC	?IsMoving@CBaseMonster@@UAEHXZ			; CBaseMonster::IsMoving
PUBLIC	?DeathSound@CBaseMonster@@UAEXXZ		; CBaseMonster::DeathSound
PUBLIC	?AlertSound@CBaseMonster@@UAEXXZ		; CBaseMonster::AlertSound
PUBLIC	?IdleSound@CBaseMonster@@UAEXXZ			; CBaseMonster::IdleSound
PUBLIC	?PainSound@CBaseMonster@@UAEXXZ			; CBaseMonster::PainSound
PUBLIC	?StopFollowing@CBaseMonster@@UAEXH@Z		; CBaseMonster::StopFollowing
PUBLIC	??0CBaseMonster@@QAE@XZ				; CBaseMonster::CBaseMonster
PUBLIC	??1CBaseMonster@@QAE@XZ				; CBaseMonster::~CBaseMonster
PUBLIC	?BloodColor@CGrenade@@UAEHXZ			; CGrenade::BloodColor
PUBLIC	?IsProjectile@CGrenade@@UAEHXZ			; CGrenade::IsProjectile
PUBLIC	??0CGrenade@@QAE@XZ				; CGrenade::CGrenade
PUBLIC	??1CGrenade@@QAE@XZ				; CGrenade::~CGrenade
PUBLIC	?Spawn@CSqueakGrenade@@EAEXXZ			; CSqueakGrenade::Spawn
PUBLIC	?Precache@CSqueakGrenade@@EAEXXZ		; CSqueakGrenade::Precache
PUBLIC	?Classify@CSqueakGrenade@@EAEHXZ		; CSqueakGrenade::Classify
PUBLIC	?SuperBounceTouch@CSqueakGrenade@@AAEXPAVCBaseEntity@@@Z ; CSqueakGrenade::SuperBounceTouch
PUBLIC	?HuntThink@CSqueakGrenade@@AAEXXZ		; CSqueakGrenade::HuntThink
PUBLIC	?BloodColor@CSqueakGrenade@@EAEHXZ		; CSqueakGrenade::BloodColor
PUBLIC	?Killed@CSqueakGrenade@@EAEXPAUentvars_s@@H@Z	; CSqueakGrenade::Killed
PUBLIC	?GibMonster@CSqueakGrenade@@EAEXXZ		; CSqueakGrenade::GibMonster
PUBLIC	?GetBaseMap@CSqueakGrenade@@CAPAUdatamap_s@@XZ	; CSqueakGrenade::GetBaseMap
PUBLIC	?GetDataDescMap@CSqueakGrenade@@EAEPAUdatamap_s@@XZ ; CSqueakGrenade::GetDataDescMap
PUBLIC	??0CSqueakGrenade@@QAE@XZ			; CSqueakGrenade::CSqueakGrenade
PUBLIC	??0?$CEntityFactory@VCSqueakGrenade@@@@QAE@PBD@Z ; CEntityFactory<CSqueakGrenade>::CEntityFactory<CSqueakGrenade>
PUBLIC	?Create@?$CEntityFactory@VCSqueakGrenade@@@@UAEPAVCBaseEntity@@PBDPAUentvars_s@@@Z ; CEntityFactory<CSqueakGrenade>::Create
PUBLIC	?Destroy@?$CEntityFactory@VCSqueakGrenade@@@@UAEXPAVCBaseEntity@@@Z ; CEntityFactory<CSqueakGrenade>::Destroy
PUBLIC	?GetEntitySize@?$CEntityFactory@VCSqueakGrenade@@@@UAEIXZ ; CEntityFactory<CSqueakGrenade>::GetEntitySize
PUBLIC	??$DataMapAccess@VCGrenade@@@@YAXPAVCGrenade@@PAPAUdatamap_s@@@Z ; DataMapAccess<CGrenade>
PUBLIC	??$DataMapInit@VCSqueakGrenade@@@@YAPAUdatamap_s@@PAVCSqueakGrenade@@@Z ; DataMapInit<CSqueakGrenade>
PUBLIC	??$GetClassPtr@VCSqueakGrenade@@@@YAPAVCSqueakGrenade@@PAV0@PBD@Z ; GetClassPtr<CSqueakGrenade>
PUBLIC	??$CopyConstruct@PAD@@YAXPAPADABQAD@Z		; CopyConstruct<char *>
PUBLIC	??$Destruct@PAD@@YAXPAPAD@Z			; Destruct<char *>
PUBLIC	?_OptionsStorage@?1??__local_stdio_printf_options@@9@4_KA ; `__local_stdio_printf_options'::`2'::_OptionsStorage
PUBLIC	??_C@_00CNPNBAHC@?$AA@				; `string'
PUBLIC	??_C@_04EFCDBJNL@?$CFs?3?3?$AA@			; `string'
PUBLIC	??_7IEntityFactory@@6B@				; IEntityFactory::`vftable'
PUBLIC	??_7CBaseEntity@@6B@				; CBaseEntity::`vftable'
PUBLIC	??_C@_06MLKDMCBD@parent?$AA@			; `string'
PUBLIC	??_C@_08JJJAOBDI@movewith?$AA@			; `string'
PUBLIC	??_C@_0M@EAELDHJO@parentflags?$AA@		; `string'
PUBLIC	??_C@_05IAKJCFIM@style?$AA@			; `string'
PUBLIC	??_C@_0L@IKCANML@reflection?$AA@		; `string'
PUBLIC	??_C@_0N@JILDNHAP@vlight_cache?$AA@		; `string'
PUBLIC	??_C@_0L@JIJDCONP@customname?$AA@		; `string'
PUBLIC	??_C@_0CH@HELFJPDL@FUNCTION?5NOT?5IN?5TABLE?$CB?3?5?$CFs?3?$CFs?5?$CI?$CF@ ; `string'
PUBLIC	??_7CBaseDelay@@6B@				; CBaseDelay::`vftable'
PUBLIC	??_7CBaseAnimating@@6B@				; CBaseAnimating::`vftable'
PUBLIC	??_7CBaseToggle@@6B@				; CBaseToggle::`vftable'
PUBLIC	??_7CBaseMonster@@6B@				; CBaseMonster::`vftable'
PUBLIC	??_C@_0BB@EMJBJDBM@sprites?1null?4spr?$AA@	; `string'
PUBLIC	??_C@_0BJ@EIFNLFLK@?$CGCBaseEntity?3?3SUB_Remove?$AA@ ; `string'
PUBLIC	??_7CGrenade@@6B@				; CGrenade::`vftable'
PUBLIC	??_7CSqueakGrenade@@6B@				; CSqueakGrenade::`vftable'
PUBLIC	??_7?$CEntityFactory@VCSqueakGrenade@@@@6B@	; CEntityFactory<CSqueakGrenade>::`vftable'
PUBLIC	??_C@_0O@LBKPDLAI@monster_snark?$AA@		; `string'
PUBLIC	?g_DataMapHolder@CSqueakGrenade_DataDescInit@@3PAUdatamap_s@@A ; CSqueakGrenade_DataDescInit::g_DataMapHolder
PUBLIC	??_C@_0BB@HFFOMAAD@SuperBounceTouch?$AA@	; `string'
PUBLIC	??_C@_09EKFJIKFE@HuntThink?$AA@			; `string'
PUBLIC	??_C@_0BE@JDDDBEME@models?1w_squeak?4mdl?$AA@	; `string'
PUBLIC	??_C@_0CC@EHFLABGF@?$CGCSqueakGrenade?3?3SuperBounceTouc@ ; `string'
PUBLIC	??_C@_0BL@BMBJFJAM@?$CGCSqueakGrenade?3?3HuntThink?$AA@ ; `string'
PUBLIC	??_C@_0BG@NNACFHOG@squeek?1sqk_blast1?4wav?$AA@	; `string'
PUBLIC	??_C@_0BG@GDLOGHOA@common?1bodysplat1?4wav?$AA@	; `string'
PUBLIC	??_C@_0BE@DCEHNJFM@squeek?1sqk_die1?4wav?$AA@	; `string'
PUBLIC	??_C@_0BF@KLIDDDFH@squeek?1sqk_hunt1?4wav?$AA@	; `string'
PUBLIC	??_C@_0BF@CNBHEBPJ@squeek?1sqk_hunt2?4wav?$AA@	; `string'
PUBLIC	??_C@_0BF@OGELJCFM@squeek?1sqk_hunt3?4wav?$AA@	; `string'
PUBLIC	??_C@_0BH@OCBJNBFI@squeek?1sqk_deploy1?4wav?$AA@ ; `string'
PUBLIC	??_C@_04HIBGFPH@NULL?$AA@			; `string'
PUBLIC	??_C@_1JC@EMNIBBBG@?$AAd?$AA?3?$AA?2?$AA?$CB?$AAd?$AAi?$AAf?$AAf?$AAu?$AAs?$AAi?$AAo?$AAn?$AA?5?$AA2?$AA0?$AA2?$AA0?$AA?2?$AAs?$AAo?$AAu?$AAr?$AAc?$AAe?$AA?5?$AAc?$AAo?$AAd?$AAe?$AA?5?$AA2@ ; `string'
PUBLIC	??_C@_1IK@DGJDJNN@?$AA?$CI?$AAB?$AAa?$AAs?$AAe?$AA?$CI?$AA?$CJ?$AA?5?$AA?$DN?$AA?$DN?$AA?5?$AAN?$AAU?$AAL?$AAL?$AA?$CJ?$AA?5?$AA?$HM?$AA?$HM?$AA?5?$AA?$CI?$AA?$CG?$AAs?$AAr?$AAc?$AA?5?$AA?$DM?$AA?5?$AAB?$AAa?$AAs?$AAe@ ; `string'
PUBLIC	??_C@_1JE@CIIIAKCN@?$AAd?$AA?3?$AA?2?$AA?$CB?$AAd?$AAi?$AAf?$AAf?$AAu?$AAs?$AAi?$AAo?$AAn?$AA?5?$AA2?$AA0?$AA2?$AA0?$AA?2?$AAs?$AAo?$AAu?$AAr?$AAc?$AAe?$AA?5?$AAc?$AAo?$AAd?$AAe?$AA?5?$AA2@ ; `string'
PUBLIC	??_C@_1BO@FOOHAONO@?$AAn?$AAG?$AAr?$AAo?$AAw?$AAS?$AAi?$AAz?$AAe?$AA?5?$AA?$DO?$AA?$DN?$AA?5?$AA0?$AA?$AA@ ; `string'
PUBLIC	??_C@_1BM@PFNFCCHH@?$AA?$CB?$AAI?$AAs?$AAR?$AAe?$AAa?$AAd?$AAO?$AAn?$AAl?$AAy?$AA?$CI?$AA?$CJ?$AA?$AA@ ; `string'
PUBLIC	??_C@_1BM@CKILBAKK@?$AAI?$AAs?$AAI?$AAd?$AAx?$AAV?$AAa?$AAl?$AAi?$AAd?$AA?$CI?$AAi?$AA?$CJ?$AA?$AA@ ; `string'
PUBLIC	??_C@_1FA@BPFBJKPF@?$AA?$CI?$AAe?$AAl?$AAe?$AAm?$AA?5?$AA?$DN?$AA?$DN?$AA?5?$AAC?$AAo?$AAu?$AAn?$AAt?$AA?$CI?$AA?$CJ?$AA?$CJ?$AA?5?$AA?$HM?$AA?$HM?$AA?5?$AAI?$AAs?$AAV?$AAa?$AAl?$AAi?$AAd?$AAI?$AAn?$AAd?$AAe@ ; `string'
PUBLIC	??_C@_1GM@CDMJDFPA@?$AAI?$AAs?$AAV?$AAa?$AAl?$AAi?$AAd?$AAI?$AAn?$AAd?$AAe?$AAx?$AA?$CI?$AAe?$AAl?$AAe?$AAm?$AA?$CJ?$AA?5?$AA?$HM?$AA?$HM?$AA?5?$AA?$CI?$AA?5?$AAm?$AA_?$AAS?$AAi?$AAz?$AAe?$AA?5?$AA?$DN@ ; `string'
PUBLIC	??_C@_1BA@PKCLMAEA@?$AAn?$AAu?$AAm?$AA?5?$AA?$DO?$AA?5?$AA0?$AA?$AA@ ; `string'
PUBLIC	??_C@_13COJANIEC@?$AA0?$AA?$AA@			; `string'
PUBLIC	??_C@_1BE@OPPFELHC@?$AAm?$AA_?$AAp?$AAM?$AAe?$AAm?$AAo?$AAr?$AAy?$AA?$AA@ ; `string'
PUBLIC	??_R4CBaseEntity@@6B@				; CBaseEntity::`RTTI Complete Object Locator'
PUBLIC	??_R0?AVCBaseEntity@@@8				; CBaseEntity `RTTI Type Descriptor'
PUBLIC	??_R3CBaseEntity@@8				; CBaseEntity::`RTTI Class Hierarchy Descriptor'
PUBLIC	??_R2CBaseEntity@@8				; CBaseEntity::`RTTI Base Class Array'
PUBLIC	??_R1A@?0A@EA@CBaseEntity@@8			; CBaseEntity::`RTTI Base Class Descriptor at (0,-1,0,64)'
PUBLIC	??_R4IEntityFactory@@6B@			; IEntityFactory::`RTTI Complete Object Locator'
PUBLIC	??_R0?AVIEntityFactory@@@8			; IEntityFactory `RTTI Type Descriptor'
PUBLIC	??_R3IEntityFactory@@8				; IEntityFactory::`RTTI Class Hierarchy Descriptor'
PUBLIC	??_R2IEntityFactory@@8				; IEntityFactory::`RTTI Base Class Array'
PUBLIC	??_R1A@?0A@EA@IEntityFactory@@8			; IEntityFactory::`RTTI Base Class Descriptor at (0,-1,0,64)'
PUBLIC	??_R4CBaseMonster@@6B@				; CBaseMonster::`RTTI Complete Object Locator'
PUBLIC	??_R0?AVCBaseMonster@@@8			; CBaseMonster `RTTI Type Descriptor'
PUBLIC	??_R3CBaseMonster@@8				; CBaseMonster::`RTTI Class Hierarchy Descriptor'
PUBLIC	??_R2CBaseMonster@@8				; CBaseMonster::`RTTI Base Class Array'
PUBLIC	??_R1A@?0A@EA@CBaseMonster@@8			; CBaseMonster::`RTTI Base Class Descriptor at (0,-1,0,64)'
PUBLIC	??_R1A@?0A@EA@CBaseToggle@@8			; CBaseToggle::`RTTI Base Class Descriptor at (0,-1,0,64)'
PUBLIC	??_R0?AVCBaseToggle@@@8				; CBaseToggle `RTTI Type Descriptor'
PUBLIC	??_R3CBaseToggle@@8				; CBaseToggle::`RTTI Class Hierarchy Descriptor'
PUBLIC	??_R2CBaseToggle@@8				; CBaseToggle::`RTTI Base Class Array'
PUBLIC	??_R1A@?0A@EA@CBaseAnimating@@8			; CBaseAnimating::`RTTI Base Class Descriptor at (0,-1,0,64)'
PUBLIC	??_R0?AVCBaseAnimating@@@8			; CBaseAnimating `RTTI Type Descriptor'
PUBLIC	??_R3CBaseAnimating@@8				; CBaseAnimating::`RTTI Class Hierarchy Descriptor'
PUBLIC	??_R2CBaseAnimating@@8				; CBaseAnimating::`RTTI Base Class Array'
PUBLIC	??_R1A@?0A@EA@CBaseDelay@@8			; CBaseDelay::`RTTI Base Class Descriptor at (0,-1,0,64)'
PUBLIC	??_R0?AVCBaseDelay@@@8				; CBaseDelay `RTTI Type Descriptor'
PUBLIC	??_R3CBaseDelay@@8				; CBaseDelay::`RTTI Class Hierarchy Descriptor'
PUBLIC	??_R2CBaseDelay@@8				; CBaseDelay::`RTTI Base Class Array'
PUBLIC	??_R4CBaseDelay@@6B@				; CBaseDelay::`RTTI Complete Object Locator'
PUBLIC	??_R4CBaseAnimating@@6B@			; CBaseAnimating::`RTTI Complete Object Locator'
PUBLIC	??_R4CBaseToggle@@6B@				; CBaseToggle::`RTTI Complete Object Locator'
PUBLIC	??_R4CGrenade@@6B@				; CGrenade::`RTTI Complete Object Locator'
PUBLIC	??_R0?AVCGrenade@@@8				; CGrenade `RTTI Type Descriptor'
PUBLIC	??_R3CGrenade@@8				; CGrenade::`RTTI Class Hierarchy Descriptor'
PUBLIC	??_R2CGrenade@@8				; CGrenade::`RTTI Base Class Array'
PUBLIC	??_R1A@?0A@EA@CGrenade@@8			; CGrenade::`RTTI Base Class Descriptor at (0,-1,0,64)'
PUBLIC	??_R4CSqueakGrenade@@6B@			; CSqueakGrenade::`RTTI Complete Object Locator'
PUBLIC	??_R0?AVCSqueakGrenade@@@8			; CSqueakGrenade `RTTI Type Descriptor'
PUBLIC	??_R3CSqueakGrenade@@8				; CSqueakGrenade::`RTTI Class Hierarchy Descriptor'
PUBLIC	??_R2CSqueakGrenade@@8				; CSqueakGrenade::`RTTI Base Class Array'
PUBLIC	??_R1A@?0A@EA@CSqueakGrenade@@8			; CSqueakGrenade::`RTTI Base Class Descriptor at (0,-1,0,64)'
PUBLIC	??_R4?$CEntityFactory@VCSqueakGrenade@@@@6B@	; CEntityFactory<CSqueakGrenade>::`RTTI Complete Object Locator'
PUBLIC	??_R0?AV?$CEntityFactory@VCSqueakGrenade@@@@@8	; CEntityFactory<CSqueakGrenade> `RTTI Type Descriptor'
PUBLIC	??_R3?$CEntityFactory@VCSqueakGrenade@@@@8	; CEntityFactory<CSqueakGrenade>::`RTTI Class Hierarchy Descriptor'
PUBLIC	??_R2?$CEntityFactory@VCSqueakGrenade@@@@8	; CEntityFactory<CSqueakGrenade>::`RTTI Base Class Array'
PUBLIC	??_R1A@?0A@EA@?$CEntityFactory@VCSqueakGrenade@@@@8 ; CEntityFactory<CSqueakGrenade>::`RTTI Base Class Descriptor at (0,-1,0,64)'
PUBLIC	__real@00000000
PUBLIC	__real@3dcccccd
PUBLIC	__real@3e800000
PUBLIC	__real@3f000000
PUBLIC	__real@3f400000
PUBLIC	__real@3f4ccccd
PUBLIC	__real@3f666666
PUBLIC	__real@3f800000
PUBLIC	__real@3f99999a
PUBLIC	__real@3fb999999999999a
PUBLIC	__real@3fd3333333333333
PUBLIC	__real@3fd51eb851eb851f
PUBLIC	__real@3fe0000000000000
PUBLIC	__real@3fe51eb851eb851f
PUBLIC	__real@3ff0000000000000
PUBLIC	__real@3ff3333333333333
PUBLIC	__real@40000000
PUBLIC	__real@4000000000000000
PUBLIC	__real@4004000000000000
PUBLIC	__real@4024000000000000
PUBLIC	__real@402e000000000000
PUBLIC	__real@40400000
PUBLIC	__real@4049000000000000
PUBLIC	__real@404e000000000000
PUBLIC	__real@4063600000000000
PUBLIC	__real@40800000
PUBLIC	__real@41000000
PUBLIC	__real@412e848000000000
PUBLIC	__real@42a00000
PUBLIC	__real@42c80000
PUBLIC	__real@43960000
PUBLIC	__real@44440000
PUBLIC	__real@bf800000
PUBLIC	__real@c0800000
PUBLIC	__real@c2c80000
EXTRN	__purecall:PROC
EXTRN	??3@YAXPAXI@Z:PROC				; operator delete
EXTRN	??_U@YAPAXI@Z:PROC				; operator new[]
EXTRN	_atexit:PROC
EXTRN	__Init_thread_header:PROC
EXTRN	__Init_thread_abort:PROC
EXTRN	__Init_thread_footer:PROC
EXTRN	_memmove:PROC
EXTRN	_memset:PROC
EXTRN	_strcat:PROC
EXTRN	_strlen:PROC
EXTRN	___stdio_common_vsprintf:PROC
EXTRN	_free:PROC
EXTRN	_malloc:PROC
EXTRN	_realloc:PROC
EXTRN	_atoi:PROC
EXTRN	_sqrt:PROC
EXTRN	??0matrix4x4@@QAE@XZ:PROC			; matrix4x4::matrix4x4
EXTRN	?Q_atoi@@YAHPBD@Z:PROC				; Q_atoi
EXTRN	?Q_strncmp@@YAHPBD0H@Z:PROC			; Q_strncmp
EXTRN	__wassert:PROC
EXTRN	?UTIL_Remove@@YAXPAVCBaseEntity@@@Z:PROC	; UTIL_Remove
EXTRN	?EntityFactoryDictionary@@YAPAVIEntityFactoryDictionary@@XZ:PROC ; EntityFactoryDictionary
EXTRN	?DBG_EntOfVars@@YAPAUedict_s@@PBUentvars_s@@@Z:PROC ; DBG_EntOfVars
EXTRN	?ENT@@YAPAUedict_s@@PAVCBaseEntity@@@Z:PROC	; ENT
EXTRN	?UTIL_SetSize@@YAXPAUentvars_s@@ABVVector@@1@Z:PROC ; UTIL_SetSize
EXTRN	?UTIL_VecToAngles@@YA?AVVector@@ABV1@@Z:PROC	; UTIL_VecToAngles
EXTRN	?UTIL_MakeVectors@@YAXABVVector@@@Z:PROC	; UTIL_MakeVectors
EXTRN	?UTIL_GetGlobalTrace@@YA?AUgametrace_s@@XZ:PROC	; UTIL_GetGlobalTrace
EXTRN	?UTIL_BloodDrips@@YAXABVVector@@0HH@Z:PROC	; UTIL_BloodDrips
EXTRN	?EMIT_SOUND_DYN@@YAXPAUedict_s@@HPBDMMHH@Z:PROC	; EMIT_SOUND_DYN
EXTRN	?UTIL_GetModelType@@YA?AW4modtype_t@@H@Z:PROC	; UTIL_GetModelType
EXTRN	?UTIL_FunctionToName@@YAPBDPAUdatamap_s@@PAX@Z:PROC ; UTIL_FunctionToName
EXTRN	??0CMeshDesc@@QAE@XZ:PROC			; CMeshDesc::CMeshDesc
EXTRN	??1CMeshDesc@@QAE@XZ:PROC			; CMeshDesc::~CMeshDesc
EXTRN	?GetDataDescMap@CBaseEntity@@UAEPAUdatamap_s@@XZ:PROC ; CBaseEntity::GetDataDescMap
EXTRN	?GetAbsOrigin@CBaseEntity@@QBEABVVector@@XZ:PROC ; CBaseEntity::GetAbsOrigin
EXTRN	?SetAbsAngles@CBaseEntity@@QAEXABVVector@@@Z:PROC ; CBaseEntity::SetAbsAngles
EXTRN	?GetAbsAngles@CBaseEntity@@QBEABVVector@@XZ:PROC ; CBaseEntity::GetAbsAngles
EXTRN	?SetLocalAvelocity@CBaseEntity@@QAEXABVVector@@@Z:PROC ; CBaseEntity::SetLocalAvelocity
EXTRN	?GetLocalAvelocity@CBaseEntity@@QBEABVVector@@XZ:PROC ; CBaseEntity::GetLocalAvelocity
EXTRN	?SetAbsVelocity@CBaseEntity@@QAEXABVVector@@@Z:PROC ; CBaseEntity::SetAbsVelocity
EXTRN	?GetAbsVelocity@CBaseEntity@@QBEABVVector@@XZ:PROC ; CBaseEntity::GetAbsVelocity
EXTRN	?Save@CBaseEntity@@UAEHAAVCSave@@@Z:PROC	; CBaseEntity::Save
EXTRN	?Restore@CBaseEntity@@UAEHAAVCRestore@@@Z:PROC	; CBaseEntity::Restore
EXTRN	?SetObjectCollisionBox@CBaseEntity@@UAEXXZ:PROC	; CBaseEntity::SetObjectCollisionBox
EXTRN	?SetNextThink@CBaseEntity@@UAEXM@Z:PROC		; CBaseEntity::SetNextThink
EXTRN	?TraceAttack@CBaseEntity@@UAEXPAUentvars_s@@MVVector@@PAUgametrace_s@@H@Z:PROC ; CBaseEntity::TraceAttack
EXTRN	?TakeDamage@CBaseEntity@@UAEHPAUentvars_s@@0MH@Z:PROC ; CBaseEntity::TakeDamage
EXTRN	?TakeHealth@CBaseEntity@@UAEHMH@Z:PROC		; CBaseEntity::TakeHealth
EXTRN	?TakeArmor@CBaseEntity@@UAEHMH@Z:PROC		; CBaseEntity::TakeArmor
EXTRN	?Killed@CBaseEntity@@UAEXPAUentvars_s@@H@Z:PROC	; CBaseEntity::Killed
EXTRN	?TraceBleed@CBaseEntity@@UAEXMVVector@@PAUgametrace_s@@H@Z:PROC ; CBaseEntity::TraceBleed
EXTRN	?DamageDecal@CBaseEntity@@UAEHH@Z:PROC		; CBaseEntity::DamageDecal
EXTRN	?IsInWorld@CBaseEntity@@UAEHH@Z:PROC		; CBaseEntity::IsInWorld
EXTRN	?GetNextTarget@CBaseEntity@@UAEPAV1@XZ:PROC	; CBaseEntity::GetNextTarget
EXTRN	?SUB_Remove@CBaseEntity@@QAEXXZ:PROC		; CBaseEntity::SUB_Remove
EXTRN	?FVisible@CBaseEntity@@UAEHPAV1@@Z:PROC		; CBaseEntity::FVisible
EXTRN	?FVisible@CBaseEntity@@UAEHABVVector@@@Z:PROC	; CBaseEntity::FVisible
EXTRN	?ShouldCollide@CBaseEntity@@UAEHPAV1@@Z:PROC	; CBaseEntity::ShouldCollide
EXTRN	?ClearEffects@CBaseEntity@@UAEXXZ:PROC		; CBaseEntity::ClearEffects
EXTRN	?KeyValue@CBaseDelay@@UAEXPAUKeyValueData_s@@@Z:PROC ; CBaseDelay::KeyValue
EXTRN	?GetDataDescMap@CBaseDelay@@UAEPAUdatamap_s@@XZ:PROC ; CBaseDelay::GetDataDescMap
EXTRN	?StudioFrameAdvance@CBaseAnimating@@QAEMM@Z:PROC ; CBaseAnimating::StudioFrameAdvance
EXTRN	?ResetSequenceInfo@CBaseAnimating@@QAEXXZ:PROC	; CBaseAnimating::ResetSequenceInfo
EXTRN	?GetDataDescMap@CBaseAnimating@@UAEPAUdatamap_s@@XZ:PROC ; CBaseAnimating::GetDataDescMap
EXTRN	?KeyValue@CBaseToggle@@UAEXPAUKeyValueData_s@@@Z:PROC ; CBaseToggle::KeyValue
EXTRN	?Restore@CBaseToggle@@UAEHAAVCRestore@@@Z:PROC	; CBaseToggle::Restore
EXTRN	?GetDataDescMap@CBaseToggle@@UAEPAUdatamap_s@@XZ:PROC ; CBaseToggle::GetDataDescMap
EXTRN	?GetState@CBaseToggle@@UAE?AW4STATE@@XZ:PROC	; CBaseToggle::GetState
EXTRN	?MoveDone@CBaseToggle@@UAEXXZ:PROC		; CBaseToggle::MoveDone
EXTRN	?GetDataDescMap@CBaseMonster@@UAEPAUdatamap_s@@XZ:PROC ; CBaseMonster::GetDataDescMap
EXTRN	?KeyValue@CBaseMonster@@UAEXPAUKeyValueData_s@@@Z:PROC ; CBaseMonster::KeyValue
EXTRN	?Restore@CBaseMonster@@UAEHAAVCRestore@@@Z:PROC	; CBaseMonster::Restore
EXTRN	?Look@CBaseMonster@@UAEXH@Z:PROC		; CBaseMonster::Look
EXTRN	?RunAI@CBaseMonster@@UAEXXZ:PROC		; CBaseMonster::RunAI
EXTRN	?ShouldFadeOnDeath@CBaseMonster@@UAEHXZ:PROC	; CBaseMonster::ShouldFadeOnDeath
EXTRN	?ChangeYaw@CBaseMonster@@UAEMH@Z:PROC		; CBaseMonster::ChangeYaw
EXTRN	?MonsterThink@CBaseMonster@@UAEXXZ:PROC		; CBaseMonster::MonsterThink
EXTRN	?IRelationship@CBaseMonster@@UAEHPAVCBaseEntity@@@Z:PROC ; CBaseMonster::IRelationship
EXTRN	?MonsterInit@CBaseMonster@@UAEXXZ:PROC		; CBaseMonster::MonsterInit
EXTRN	?MonsterInitDead@CBaseMonster@@UAEXXZ:PROC	; CBaseMonster::MonsterInitDead
EXTRN	?BecomeDead@CBaseMonster@@UAEXXZ:PROC		; CBaseMonster::BecomeDead
EXTRN	?StartMonster@CBaseMonster@@UAEXXZ:PROC		; CBaseMonster::StartMonster
EXTRN	?BestVisibleEnemy@CBaseMonster@@UAEPAVCBaseEntity@@XZ:PROC ; CBaseMonster::BestVisibleEnemy
EXTRN	?FInViewCone@CBaseMonster@@UAEHPAVCBaseEntity@@M@Z:PROC ; CBaseMonster::FInViewCone
EXTRN	?FInViewCone@CBaseMonster@@UAEHPAVVector@@@Z:PROC ; CBaseMonster::FInViewCone
EXTRN	?HandleAnimEvent@CBaseMonster@@UAEXPAUMonsterEvent_t@@@Z:PROC ; CBaseMonster::HandleAnimEvent
EXTRN	?CheckLocalMove@CBaseMonster@@UAEHABVVector@@0PAVCBaseEntity@@PAM@Z:PROC ; CBaseMonster::CheckLocalMove
EXTRN	?Move@CBaseMonster@@UAEXM@Z:PROC		; CBaseMonster::Move
EXTRN	?MoveExecute@CBaseMonster@@UAEXPAVCBaseEntity@@ABVVector@@M@Z:PROC ; CBaseMonster::MoveExecute
EXTRN	?ShouldAdvanceRoute@CBaseMonster@@UAEHM@Z:PROC	; CBaseMonster::ShouldAdvanceRoute
EXTRN	?CheckRangeAttack1@CBaseMonster@@UAEHMM@Z:PROC	; CBaseMonster::CheckRangeAttack1
EXTRN	?CheckRangeAttack2@CBaseMonster@@UAEHMM@Z:PROC	; CBaseMonster::CheckRangeAttack2
EXTRN	?CheckMeleeAttack1@CBaseMonster@@UAEHMM@Z:PROC	; CBaseMonster::CheckMeleeAttack1
EXTRN	?CheckMeleeAttack2@CBaseMonster@@UAEHMM@Z:PROC	; CBaseMonster::CheckMeleeAttack2
EXTRN	?ScheduleFromName@CBaseMonster@@UAEPAUSchedule_t@@PBD@Z:PROC ; CBaseMonster::ScheduleFromName
EXTRN	?StartTask@CBaseMonster@@UAEXPAUTask_t@@@Z:PROC	; CBaseMonster::StartTask
EXTRN	?RunTask@CBaseMonster@@UAEXPAUTask_t@@@Z:PROC	; CBaseMonster::RunTask
EXTRN	?GetScheduleOfType@CBaseMonster@@UAEPAUSchedule_t@@H@Z:PROC ; CBaseMonster::GetScheduleOfType
EXTRN	?GetSchedule@CBaseMonster@@UAEPAUSchedule_t@@XZ:PROC ; CBaseMonster::GetSchedule
EXTRN	?CanPlaySequence@CBaseMonster@@UAEHHH@Z:PROC	; CBaseMonster::CanPlaySequence
EXTRN	?PlaySentence@CBaseMonster@@UAEXPBDMMMH@Z:PROC	; CBaseMonster::PlaySentence
EXTRN	?PlayScriptedSentence@CBaseMonster@@UAEXPBDMMMHPAVCBaseEntity@@H@Z:PROC ; CBaseMonster::PlayScriptedSentence
EXTRN	?SentenceStop@CBaseMonster@@UAEXXZ:PROC		; CBaseMonster::SentenceStop
EXTRN	?GetIdealState@CBaseMonster@@UAE?AW4MONSTERSTATE@@XZ:PROC ; CBaseMonster::GetIdealState
EXTRN	?SetActivity@CBaseMonster@@UAEXW4Activity@@@Z:PROC ; CBaseMonster::SetActivity
EXTRN	?ReportAIState@CBaseMonster@@UAEXXZ:PROC	; CBaseMonster::ReportAIState
EXTRN	?CheckEnemy@CBaseMonster@@UAEHPAVCBaseEntity@@@Z:PROC ; CBaseMonster::CheckEnemy
EXTRN	?FTriangulate@CBaseMonster@@UAEHABVVector@@0MPAVCBaseEntity@@PAV2@@Z:PROC ; CBaseMonster::FTriangulate
EXTRN	?BuildNearestRoute@CBaseMonster@@UAEHVVector@@0MM@Z:PROC ; CBaseMonster::BuildNearestRoute
EXTRN	?FindCover@CBaseMonster@@UAEHVVector@@0MM@Z:PROC ; CBaseMonster::FindCover
EXTRN	?FindRunAway@CBaseMonster@@UAEHVVector@@MM@Z:PROC ; CBaseMonster::FindRunAway
EXTRN	?FCanCheckAttacks@CBaseMonster@@UAEHXZ:PROC	; CBaseMonster::FCanCheckAttacks
EXTRN	?IgnoreConditions@CBaseMonster@@UAEHXZ:PROC	; CBaseMonster::IgnoreConditions
EXTRN	?FValidateHintType@CBaseMonster@@UAEHF@Z:PROC	; CBaseMonster::FValidateHintType
EXTRN	?FCanActiveIdle@CBaseMonster@@UAEHXZ:PROC	; CBaseMonster::FCanActiveIdle
EXTRN	?ISoundMask@CBaseMonster@@UAEHXZ:PROC		; CBaseMonster::ISoundMask
EXTRN	?PBestSound@CBaseMonster@@UAEPAVCSound@@XZ:PROC	; CBaseMonster::PBestSound
EXTRN	?PBestScent@CBaseMonster@@UAEPAVCSound@@XZ:PROC	; CBaseMonster::PBestScent
EXTRN	?FBecomeProne@CBaseMonster@@UAEHXZ:PROC		; CBaseMonster::FBecomeProne
EXTRN	?BarnacleVictimBitten@CBaseMonster@@UAEXPAUentvars_s@@@Z:PROC ; CBaseMonster::BarnacleVictimBitten
EXTRN	?BarnacleVictimReleased@CBaseMonster@@UAEXXZ:PROC ; CBaseMonster::BarnacleVictimReleased
EXTRN	?TraceAttack@CBaseMonster@@UAEXPAUentvars_s@@MVVector@@PAUgametrace_s@@H@Z:PROC ; CBaseMonster::TraceAttack
EXTRN	?GetDeathActivity@CBaseMonster@@UAE?AW4Activity@@XZ:PROC ; CBaseMonster::GetDeathActivity
EXTRN	?Killed@CBaseMonster@@UAEXPAUentvars_s@@H@Z:PROC ; CBaseMonster::Killed
EXTRN	?GibMonster@CBaseMonster@@UAEXXZ:PROC		; CBaseMonster::GibMonster
EXTRN	?DamageDecal@CBaseMonster@@UAEHH@Z:PROC		; CBaseMonster::DamageDecal
EXTRN	?HasHumanGibs@CBaseMonster@@UAEHXZ:PROC		; CBaseMonster::HasHumanGibs
EXTRN	?HasAlienGibs@CBaseMonster@@UAEHXZ:PROC		; CBaseMonster::HasAlienGibs
EXTRN	?FadeMonster@CBaseMonster@@UAEXXZ:PROC		; CBaseMonster::FadeMonster
EXTRN	?GetGunPosition@CBaseMonster@@UAE?AVVector@@XZ:PROC ; CBaseMonster::GetGunPosition
EXTRN	?TakeHealth@CBaseMonster@@UAEHMH@Z:PROC		; CBaseMonster::TakeHealth
EXTRN	?TakeDamage@CBaseMonster@@UAEHPAUentvars_s@@0MH@Z:PROC ; CBaseMonster::TakeDamage
EXTRN	?RadiusDamage@CBaseMonster@@QAEXPAUentvars_s@@0MMHH@Z:PROC ; CBaseMonster::RadiusDamage
EXTRN	?StepSound@CBaseMonster@@UAEXXZ:PROC		; CBaseMonster::StepSound
EXTRN	?ClearEffects@CBaseMonster@@UAEXXZ:PROC		; CBaseMonster::ClearEffects
EXTRN	?Spawn@CGrenade@@UAEXXZ:PROC			; CGrenade::Spawn
EXTRN	?ClearEffects@CGrenade@@UAEXXZ:PROC		; CGrenade::ClearEffects
EXTRN	?GetDataDescMap@CGrenade@@UAEPAUdatamap_s@@XZ:PROC ; CGrenade::GetDataDescMap
EXTRN	?BounceSound@CGrenade@@UAEXXZ:PROC		; CGrenade::BounceSound
EXTRN	?Killed@CGrenade@@UAEXPAUentvars_s@@H@Z:PROC	; CGrenade::Killed
EXTRN	?ClearMultiDamage@@YAXXZ:PROC			; ClearMultiDamage
EXTRN	?ApplyMultiDamage@@YAXPAUentvars_s@@0@Z:PROC	; ApplyMultiDamage
EXTRN	?InsertSound@CSoundEnt@@SAXHABVVector@@HMH@Z:PROC ; CSoundEnt::InsertSound
EXTRN	@__security_check_cookie@4:PROC
EXTRN	___CxxFrameHandler3:PROC
EXTRN	__Init_thread_epoch:DWORD
EXTRN	?g_vecZero@@3VVector@@B:BYTE			; g_vecZero
EXTRN	?g_engfuncs@@3Uenginefuncs_s@@A:BYTE		; g_engfuncs
EXTRN	??_7type_info@@6B@:QWORD			; type_info::`vftable'
EXTRN	?gpGlobals@@3PAUglobalvars_t@@A:DWORD		; gpGlobals
EXTRN	?gSkillData@@3Uskilldata_t@@A:BYTE		; gSkillData
EXTRN	?g_vecAttackDir@@3VVector@@A:BYTE		; g_vecAttackDir
EXTRN	?m_DataMap@CGrenade@@2Udatamap_s@@A:BYTE	; CGrenade::m_DataMap
EXTRN	?g_pGameRules@@3PAVCGameRules@@A:DWORD		; g_pGameRules
EXTRN	___security_cookie:DWORD
EXTRN	__fltused:DWORD
EXTRN	__tls_array:DWORD
EXTRN	__tls_index:DWORD
;	COMDAT ?_OptionsStorage@?1??__local_stdio_printf_options@@9@4_KA
_BSS	SEGMENT
?_OptionsStorage@?1??__local_stdio_printf_options@@9@4_KA DQ 01H DUP (?) ; `__local_stdio_printf_options'::`2'::_OptionsStorage
_BSS	ENDS
_BSS	SEGMENT
?monster_snark@@3V?$CEntityFactory@VCSqueakGrenade@@@@A DD 01H DUP (?) ; monster_snark
?g_DataMapHolder@CSqueakGrenade_DataDescInit@@3PAUdatamap_s@@A DD 01H DUP (?) ; CSqueakGrenade_DataDescInit::g_DataMapHolder
?nameHolder@?1???$DataMapInit@VCSqueakGrenade@@@@YAPAUdatamap_s@@PAVCSqueakGrenade@@@Z@4VCDatadescGeneratedNameHolder@@A DB 01cH DUP (?) ; `DataMapInit<CSqueakGrenade>'::`2'::nameHolder
?$TSS0@?1???$DataMapInit@VCSqueakGrenade@@@@YAPAUdatamap_s@@PAVCSqueakGrenade@@@Z@4HA DD 01H DUP (?) ; `DataMapInit<CSqueakGrenade>'::`2'::$TSS0
?$TSS1@?1???$DataMapInit@VCSqueakGrenade@@@@YAPAUdatamap_s@@PAVCSqueakGrenade@@@Z@4HA DD 01H DUP (?) ; `DataMapInit<CSqueakGrenade>'::`2'::$TSS1
_BSS	ENDS
CRT$XCU	SEGMENT
?monster_snark$initializer$@@3P6AXXZA DD FLAT:??__Emonster_snark@@YAXXZ ; monster_snark$initializer$
CRT$XCU	ENDS
;	COMDAT __real@c2c80000
CONST	SEGMENT
__real@c2c80000 DD 0c2c80000r			; -100
CONST	ENDS
;	COMDAT __real@c0800000
CONST	SEGMENT
__real@c0800000 DD 0c0800000r			; -4
CONST	ENDS
;	COMDAT __real@bf800000
CONST	SEGMENT
__real@bf800000 DD 0bf800000r			; -1
CONST	ENDS
;	COMDAT __real@44440000
CONST	SEGMENT
__real@44440000 DD 044440000r			; 784
CONST	ENDS
;	COMDAT __real@43960000
CONST	SEGMENT
__real@43960000 DD 043960000r			; 300
CONST	ENDS
;	COMDAT __real@42c80000
CONST	SEGMENT
__real@42c80000 DD 042c80000r			; 100
CONST	ENDS
;	COMDAT __real@42a00000
CONST	SEGMENT
__real@42a00000 DD 042a00000r			; 80
CONST	ENDS
;	COMDAT __real@412e848000000000
CONST	SEGMENT
__real@412e848000000000 DQ 0412e848000000000r	; 1e+06
CONST	ENDS
;	COMDAT __real@41000000
CONST	SEGMENT
__real@41000000 DD 041000000r			; 8
CONST	ENDS
;	COMDAT __real@40800000
CONST	SEGMENT
__real@40800000 DD 040800000r			; 4
CONST	ENDS
;	COMDAT __real@4063600000000000
CONST	SEGMENT
__real@4063600000000000 DQ 04063600000000000r	; 155
CONST	ENDS
;	COMDAT __real@404e000000000000
CONST	SEGMENT
__real@404e000000000000 DQ 0404e000000000000r	; 60
CONST	ENDS
;	COMDAT __real@4049000000000000
CONST	SEGMENT
__real@4049000000000000 DQ 04049000000000000r	; 50
CONST	ENDS
;	COMDAT __real@40400000
CONST	SEGMENT
__real@40400000 DD 040400000r			; 3
CONST	ENDS
;	COMDAT __real@402e000000000000
CONST	SEGMENT
__real@402e000000000000 DQ 0402e000000000000r	; 15
CONST	ENDS
;	COMDAT __real@4024000000000000
CONST	SEGMENT
__real@4024000000000000 DQ 04024000000000000r	; 10
CONST	ENDS
;	COMDAT __real@4004000000000000
CONST	SEGMENT
__real@4004000000000000 DQ 04004000000000000r	; 2.5
CONST	ENDS
;	COMDAT __real@4000000000000000
CONST	SEGMENT
__real@4000000000000000 DQ 04000000000000000r	; 2
CONST	ENDS
;	COMDAT __real@40000000
CONST	SEGMENT
__real@40000000 DD 040000000r			; 2
CONST	ENDS
;	COMDAT __real@3ff3333333333333
CONST	SEGMENT
__real@3ff3333333333333 DQ 03ff3333333333333r	; 1.2
CONST	ENDS
;	COMDAT __real@3ff0000000000000
CONST	SEGMENT
__real@3ff0000000000000 DQ 03ff0000000000000r	; 1
CONST	ENDS
;	COMDAT __real@3fe51eb851eb851f
CONST	SEGMENT
__real@3fe51eb851eb851f DQ 03fe51eb851eb851fr	; 0.66
CONST	ENDS
;	COMDAT __real@3fe0000000000000
CONST	SEGMENT
__real@3fe0000000000000 DQ 03fe0000000000000r	; 0.5
CONST	ENDS
;	COMDAT __real@3fd51eb851eb851f
CONST	SEGMENT
__real@3fd51eb851eb851f DQ 03fd51eb851eb851fr	; 0.33
CONST	ENDS
;	COMDAT __real@3fd3333333333333
CONST	SEGMENT
__real@3fd3333333333333 DQ 03fd3333333333333r	; 0.3
CONST	ENDS
;	COMDAT __real@3fb999999999999a
CONST	SEGMENT
__real@3fb999999999999a DQ 03fb999999999999ar	; 0.1
CONST	ENDS
;	COMDAT __real@3f99999a
CONST	SEGMENT
__real@3f99999a DD 03f99999ar			; 1.2
CONST	ENDS
;	COMDAT __real@3f800000
CONST	SEGMENT
__real@3f800000 DD 03f800000r			; 1
CONST	ENDS
;	COMDAT __real@3f666666
CONST	SEGMENT
__real@3f666666 DD 03f666666r			; 0.9
CONST	ENDS
;	COMDAT __real@3f4ccccd
CONST	SEGMENT
__real@3f4ccccd DD 03f4ccccdr			; 0.8
CONST	ENDS
;	COMDAT __real@3f400000
CONST	SEGMENT
__real@3f400000 DD 03f400000r			; 0.75
CONST	ENDS
;	COMDAT __real@3f000000
CONST	SEGMENT
__real@3f000000 DD 03f000000r			; 0.5
CONST	ENDS
;	COMDAT __real@3e800000
CONST	SEGMENT
__real@3e800000 DD 03e800000r			; 0.25
CONST	ENDS
;	COMDAT __real@3dcccccd
CONST	SEGMENT
__real@3dcccccd DD 03dcccccdr			; 0.1
CONST	ENDS
;	COMDAT __real@00000000
CONST	SEGMENT
__real@00000000 DD 000000000r			; 0
CONST	ENDS
;	COMDAT ??_R1A@?0A@EA@?$CEntityFactory@VCSqueakGrenade@@@@8
rdata$r	SEGMENT
??_R1A@?0A@EA@?$CEntityFactory@VCSqueakGrenade@@@@8 DD FLAT:??_R0?AV?$CEntityFactory@VCSqueakGrenade@@@@@8 ; CEntityFactory<CSqueakGrenade>::`RTTI Base Class Descriptor at (0,-1,0,64)'
	DD	01H
	DD	00H
	DD	0ffffffffH
	DD	00H
	DD	040H
	DD	FLAT:??_R3?$CEntityFactory@VCSqueakGrenade@@@@8
rdata$r	ENDS
;	COMDAT ??_R2?$CEntityFactory@VCSqueakGrenade@@@@8
rdata$r	SEGMENT
??_R2?$CEntityFactory@VCSqueakGrenade@@@@8 DD FLAT:??_R1A@?0A@EA@?$CEntityFactory@VCSqueakGrenade@@@@8 ; CEntityFactory<CSqueakGrenade>::`RTTI Base Class Array'
	DD	FLAT:??_R1A@?0A@EA@IEntityFactory@@8
rdata$r	ENDS
;	COMDAT ??_R3?$CEntityFactory@VCSqueakGrenade@@@@8
rdata$r	SEGMENT
??_R3?$CEntityFactory@VCSqueakGrenade@@@@8 DD 00H	; CEntityFactory<CSqueakGrenade>::`RTTI Class Hierarchy Descriptor'
	DD	00H
	DD	02H
	DD	FLAT:??_R2?$CEntityFactory@VCSqueakGrenade@@@@8
rdata$r	ENDS
;	COMDAT ??_R0?AV?$CEntityFactory@VCSqueakGrenade@@@@@8
data$r	SEGMENT
??_R0?AV?$CEntityFactory@VCSqueakGrenade@@@@@8 DD FLAT:??_7type_info@@6B@ ; CEntityFactory<CSqueakGrenade> `RTTI Type Descriptor'
	DD	00H
	DB	'.?AV?$CEntityFactory@VCSqueakGrenade@@@@', 00H
data$r	ENDS
;	COMDAT ??_R4?$CEntityFactory@VCSqueakGrenade@@@@6B@
rdata$r	SEGMENT
??_R4?$CEntityFactory@VCSqueakGrenade@@@@6B@ DD 00H	; CEntityFactory<CSqueakGrenade>::`RTTI Complete Object Locator'
	DD	00H
	DD	00H
	DD	FLAT:??_R0?AV?$CEntityFactory@VCSqueakGrenade@@@@@8
	DD	FLAT:??_R3?$CEntityFactory@VCSqueakGrenade@@@@8
rdata$r	ENDS
;	COMDAT ??_R1A@?0A@EA@CSqueakGrenade@@8
rdata$r	SEGMENT
??_R1A@?0A@EA@CSqueakGrenade@@8 DD FLAT:??_R0?AVCSqueakGrenade@@@8 ; CSqueakGrenade::`RTTI Base Class Descriptor at (0,-1,0,64)'
	DD	06H
	DD	00H
	DD	0ffffffffH
	DD	00H
	DD	040H
	DD	FLAT:??_R3CSqueakGrenade@@8
rdata$r	ENDS
;	COMDAT ??_R2CSqueakGrenade@@8
rdata$r	SEGMENT
??_R2CSqueakGrenade@@8 DD FLAT:??_R1A@?0A@EA@CSqueakGrenade@@8 ; CSqueakGrenade::`RTTI Base Class Array'
	DD	FLAT:??_R1A@?0A@EA@CGrenade@@8
	DD	FLAT:??_R1A@?0A@EA@CBaseMonster@@8
	DD	FLAT:??_R1A@?0A@EA@CBaseToggle@@8
	DD	FLAT:??_R1A@?0A@EA@CBaseAnimating@@8
	DD	FLAT:??_R1A@?0A@EA@CBaseDelay@@8
	DD	FLAT:??_R1A@?0A@EA@CBaseEntity@@8
rdata$r	ENDS
;	COMDAT ??_R3CSqueakGrenade@@8
rdata$r	SEGMENT
??_R3CSqueakGrenade@@8 DD 00H				; CSqueakGrenade::`RTTI Class Hierarchy Descriptor'
	DD	00H
	DD	07H
	DD	FLAT:??_R2CSqueakGrenade@@8
rdata$r	ENDS
;	COMDAT ??_R0?AVCSqueakGrenade@@@8
data$r	SEGMENT
??_R0?AVCSqueakGrenade@@@8 DD FLAT:??_7type_info@@6B@	; CSqueakGrenade `RTTI Type Descriptor'
	DD	00H
	DB	'.?AVCSqueakGrenade@@', 00H
data$r	ENDS
;	COMDAT ??_R4CSqueakGrenade@@6B@
rdata$r	SEGMENT
??_R4CSqueakGrenade@@6B@ DD 00H				; CSqueakGrenade::`RTTI Complete Object Locator'
	DD	00H
	DD	00H
	DD	FLAT:??_R0?AVCSqueakGrenade@@@8
	DD	FLAT:??_R3CSqueakGrenade@@8
rdata$r	ENDS
;	COMDAT ??_R1A@?0A@EA@CGrenade@@8
rdata$r	SEGMENT
??_R1A@?0A@EA@CGrenade@@8 DD FLAT:??_R0?AVCGrenade@@@8	; CGrenade::`RTTI Base Class Descriptor at (0,-1,0,64)'
	DD	05H
	DD	00H
	DD	0ffffffffH
	DD	00H
	DD	040H
	DD	FLAT:??_R3CGrenade@@8
rdata$r	ENDS
;	COMDAT ??_R2CGrenade@@8
rdata$r	SEGMENT
??_R2CGrenade@@8 DD FLAT:??_R1A@?0A@EA@CGrenade@@8	; CGrenade::`RTTI Base Class Array'
	DD	FLAT:??_R1A@?0A@EA@CBaseMonster@@8
	DD	FLAT:??_R1A@?0A@EA@CBaseToggle@@8
	DD	FLAT:??_R1A@?0A@EA@CBaseAnimating@@8
	DD	FLAT:??_R1A@?0A@EA@CBaseDelay@@8
	DD	FLAT:??_R1A@?0A@EA@CBaseEntity@@8
rdata$r	ENDS
;	COMDAT ??_R3CGrenade@@8
rdata$r	SEGMENT
??_R3CGrenade@@8 DD 00H					; CGrenade::`RTTI Class Hierarchy Descriptor'
	DD	00H
	DD	06H
	DD	FLAT:??_R2CGrenade@@8
rdata$r	ENDS
;	COMDAT ??_R0?AVCGrenade@@@8
data$r	SEGMENT
??_R0?AVCGrenade@@@8 DD FLAT:??_7type_info@@6B@		; CGrenade `RTTI Type Descriptor'
	DD	00H
	DB	'.?AVCGrenade@@', 00H
data$r	ENDS
;	COMDAT ??_R4CGrenade@@6B@
rdata$r	SEGMENT
??_R4CGrenade@@6B@ DD 00H				; CGrenade::`RTTI Complete Object Locator'
	DD	00H
	DD	00H
	DD	FLAT:??_R0?AVCGrenade@@@8
	DD	FLAT:??_R3CGrenade@@8
rdata$r	ENDS
;	COMDAT ??_R4CBaseToggle@@6B@
rdata$r	SEGMENT
??_R4CBaseToggle@@6B@ DD 00H				; CBaseToggle::`RTTI Complete Object Locator'
	DD	00H
	DD	00H
	DD	FLAT:??_R0?AVCBaseToggle@@@8
	DD	FLAT:??_R3CBaseToggle@@8
rdata$r	ENDS
;	COMDAT ??_R4CBaseAnimating@@6B@
rdata$r	SEGMENT
??_R4CBaseAnimating@@6B@ DD 00H				; CBaseAnimating::`RTTI Complete Object Locator'
	DD	00H
	DD	00H
	DD	FLAT:??_R0?AVCBaseAnimating@@@8
	DD	FLAT:??_R3CBaseAnimating@@8
rdata$r	ENDS
;	COMDAT ??_R4CBaseDelay@@6B@
rdata$r	SEGMENT
??_R4CBaseDelay@@6B@ DD 00H				; CBaseDelay::`RTTI Complete Object Locator'
	DD	00H
	DD	00H
	DD	FLAT:??_R0?AVCBaseDelay@@@8
	DD	FLAT:??_R3CBaseDelay@@8
rdata$r	ENDS
;	COMDAT ??_R2CBaseDelay@@8
rdata$r	SEGMENT
??_R2CBaseDelay@@8 DD FLAT:??_R1A@?0A@EA@CBaseDelay@@8	; CBaseDelay::`RTTI Base Class Array'
	DD	FLAT:??_R1A@?0A@EA@CBaseEntity@@8
rdata$r	ENDS
;	COMDAT ??_R3CBaseDelay@@8
rdata$r	SEGMENT
??_R3CBaseDelay@@8 DD 00H				; CBaseDelay::`RTTI Class Hierarchy Descriptor'
	DD	00H
	DD	02H
	DD	FLAT:??_R2CBaseDelay@@8
rdata$r	ENDS
;	COMDAT ??_R0?AVCBaseDelay@@@8
data$r	SEGMENT
??_R0?AVCBaseDelay@@@8 DD FLAT:??_7type_info@@6B@	; CBaseDelay `RTTI Type Descriptor'
	DD	00H
	DB	'.?AVCBaseDelay@@', 00H
data$r	ENDS
;	COMDAT ??_R1A@?0A@EA@CBaseDelay@@8
rdata$r	SEGMENT
??_R1A@?0A@EA@CBaseDelay@@8 DD FLAT:??_R0?AVCBaseDelay@@@8 ; CBaseDelay::`RTTI Base Class Descriptor at (0,-1,0,64)'
	DD	01H
	DD	00H
	DD	0ffffffffH
	DD	00H
	DD	040H
	DD	FLAT:??_R3CBaseDelay@@8
rdata$r	ENDS
;	COMDAT ??_R2CBaseAnimating@@8
rdata$r	SEGMENT
??_R2CBaseAnimating@@8 DD FLAT:??_R1A@?0A@EA@CBaseAnimating@@8 ; CBaseAnimating::`RTTI Base Class Array'
	DD	FLAT:??_R1A@?0A@EA@CBaseDelay@@8
	DD	FLAT:??_R1A@?0A@EA@CBaseEntity@@8
rdata$r	ENDS
;	COMDAT ??_R3CBaseAnimating@@8
rdata$r	SEGMENT
??_R3CBaseAnimating@@8 DD 00H				; CBaseAnimating::`RTTI Class Hierarchy Descriptor'
	DD	00H
	DD	03H
	DD	FLAT:??_R2CBaseAnimating@@8
rdata$r	ENDS
;	COMDAT ??_R0?AVCBaseAnimating@@@8
data$r	SEGMENT
??_R0?AVCBaseAnimating@@@8 DD FLAT:??_7type_info@@6B@	; CBaseAnimating `RTTI Type Descriptor'
	DD	00H
	DB	'.?AVCBaseAnimating@@', 00H
data$r	ENDS
;	COMDAT ??_R1A@?0A@EA@CBaseAnimating@@8
rdata$r	SEGMENT
??_R1A@?0A@EA@CBaseAnimating@@8 DD FLAT:??_R0?AVCBaseAnimating@@@8 ; CBaseAnimating::`RTTI Base Class Descriptor at (0,-1,0,64)'
	DD	02H
	DD	00H
	DD	0ffffffffH
	DD	00H
	DD	040H
	DD	FLAT:??_R3CBaseAnimating@@8
rdata$r	ENDS
;	COMDAT ??_R2CBaseToggle@@8
rdata$r	SEGMENT
??_R2CBaseToggle@@8 DD FLAT:??_R1A@?0A@EA@CBaseToggle@@8 ; CBaseToggle::`RTTI Base Class Array'
	DD	FLAT:??_R1A@?0A@EA@CBaseAnimating@@8
	DD	FLAT:??_R1A@?0A@EA@CBaseDelay@@8
	DD	FLAT:??_R1A@?0A@EA@CBaseEntity@@8
rdata$r	ENDS
;	COMDAT ??_R3CBaseToggle@@8
rdata$r	SEGMENT
??_R3CBaseToggle@@8 DD 00H				; CBaseToggle::`RTTI Class Hierarchy Descriptor'
	DD	00H
	DD	04H
	DD	FLAT:??_R2CBaseToggle@@8
rdata$r	ENDS
;	COMDAT ??_R0?AVCBaseToggle@@@8
data$r	SEGMENT
??_R0?AVCBaseToggle@@@8 DD FLAT:??_7type_info@@6B@	; CBaseToggle `RTTI Type Descriptor'
	DD	00H
	DB	'.?AVCBaseToggle@@', 00H
data$r	ENDS
;	COMDAT ??_R1A@?0A@EA@CBaseToggle@@8
rdata$r	SEGMENT
??_R1A@?0A@EA@CBaseToggle@@8 DD FLAT:??_R0?AVCBaseToggle@@@8 ; CBaseToggle::`RTTI Base Class Descriptor at (0,-1,0,64)'
	DD	03H
	DD	00H
	DD	0ffffffffH
	DD	00H
	DD	040H
	DD	FLAT:??_R3CBaseToggle@@8
rdata$r	ENDS
;	COMDAT ??_R1A@?0A@EA@CBaseMonster@@8
rdata$r	SEGMENT
??_R1A@?0A@EA@CBaseMonster@@8 DD FLAT:??_R0?AVCBaseMonster@@@8 ; CBaseMonster::`RTTI Base Class Descriptor at (0,-1,0,64)'
	DD	04H
	DD	00H
	DD	0ffffffffH
	DD	00H
	DD	040H
	DD	FLAT:??_R3CBaseMonster@@8
rdata$r	ENDS
;	COMDAT ??_R2CBaseMonster@@8
rdata$r	SEGMENT
??_R2CBaseMonster@@8 DD FLAT:??_R1A@?0A@EA@CBaseMonster@@8 ; CBaseMonster::`RTTI Base Class Array'
	DD	FLAT:??_R1A@?0A@EA@CBaseToggle@@8
	DD	FLAT:??_R1A@?0A@EA@CBaseAnimating@@8
	DD	FLAT:??_R1A@?0A@EA@CBaseDelay@@8
	DD	FLAT:??_R1A@?0A@EA@CBaseEntity@@8
rdata$r	ENDS
;	COMDAT ??_R3CBaseMonster@@8
rdata$r	SEGMENT
??_R3CBaseMonster@@8 DD 00H				; CBaseMonster::`RTTI Class Hierarchy Descriptor'
	DD	00H
	DD	05H
	DD	FLAT:??_R2CBaseMonster@@8
rdata$r	ENDS
;	COMDAT ??_R0?AVCBaseMonster@@@8
data$r	SEGMENT
??_R0?AVCBaseMonster@@@8 DD FLAT:??_7type_info@@6B@	; CBaseMonster `RTTI Type Descriptor'
	DD	00H
	DB	'.?AVCBaseMonster@@', 00H
data$r	ENDS
;	COMDAT ??_R4CBaseMonster@@6B@
rdata$r	SEGMENT
??_R4CBaseMonster@@6B@ DD 00H				; CBaseMonster::`RTTI Complete Object Locator'
	DD	00H
	DD	00H
	DD	FLAT:??_R0?AVCBaseMonster@@@8
	DD	FLAT:??_R3CBaseMonster@@8
rdata$r	ENDS
;	COMDAT ??_R1A@?0A@EA@IEntityFactory@@8
rdata$r	SEGMENT
??_R1A@?0A@EA@IEntityFactory@@8 DD FLAT:??_R0?AVIEntityFactory@@@8 ; IEntityFactory::`RTTI Base Class Descriptor at (0,-1,0,64)'
	DD	00H
	DD	00H
	DD	0ffffffffH
	DD	00H
	DD	040H
	DD	FLAT:??_R3IEntityFactory@@8
rdata$r	ENDS
;	COMDAT ??_R2IEntityFactory@@8
rdata$r	SEGMENT
??_R2IEntityFactory@@8 DD FLAT:??_R1A@?0A@EA@IEntityFactory@@8 ; IEntityFactory::`RTTI Base Class Array'
rdata$r	ENDS
;	COMDAT ??_R3IEntityFactory@@8
rdata$r	SEGMENT
??_R3IEntityFactory@@8 DD 00H				; IEntityFactory::`RTTI Class Hierarchy Descriptor'
	DD	00H
	DD	01H
	DD	FLAT:??_R2IEntityFactory@@8
rdata$r	ENDS
;	COMDAT ??_R0?AVIEntityFactory@@@8
data$r	SEGMENT
??_R0?AVIEntityFactory@@@8 DD FLAT:??_7type_info@@6B@	; IEntityFactory `RTTI Type Descriptor'
	DD	00H
	DB	'.?AVIEntityFactory@@', 00H
data$r	ENDS
;	COMDAT ??_R4IEntityFactory@@6B@
rdata$r	SEGMENT
??_R4IEntityFactory@@6B@ DD 00H				; IEntityFactory::`RTTI Complete Object Locator'
	DD	00H
	DD	00H
	DD	FLAT:??_R0?AVIEntityFactory@@@8
	DD	FLAT:??_R3IEntityFactory@@8
rdata$r	ENDS
;	COMDAT ??_R1A@?0A@EA@CBaseEntity@@8
rdata$r	SEGMENT
??_R1A@?0A@EA@CBaseEntity@@8 DD FLAT:??_R0?AVCBaseEntity@@@8 ; CBaseEntity::`RTTI Base Class Descriptor at (0,-1,0,64)'
	DD	00H
	DD	00H
	DD	0ffffffffH
	DD	00H
	DD	040H
	DD	FLAT:??_R3CBaseEntity@@8
rdata$r	ENDS
;	COMDAT ??_R2CBaseEntity@@8
rdata$r	SEGMENT
??_R2CBaseEntity@@8 DD FLAT:??_R1A@?0A@EA@CBaseEntity@@8 ; CBaseEntity::`RTTI Base Class Array'
rdata$r	ENDS
;	COMDAT ??_R3CBaseEntity@@8
rdata$r	SEGMENT
??_R3CBaseEntity@@8 DD 00H				; CBaseEntity::`RTTI Class Hierarchy Descriptor'
	DD	00H
	DD	01H
	DD	FLAT:??_R2CBaseEntity@@8
rdata$r	ENDS
;	COMDAT ??_R0?AVCBaseEntity@@@8
data$r	SEGMENT
??_R0?AVCBaseEntity@@@8 DD FLAT:??_7type_info@@6B@	; CBaseEntity `RTTI Type Descriptor'
	DD	00H
	DB	'.?AVCBaseEntity@@', 00H
data$r	ENDS
;	COMDAT ??_R4CBaseEntity@@6B@
rdata$r	SEGMENT
??_R4CBaseEntity@@6B@ DD 00H				; CBaseEntity::`RTTI Complete Object Locator'
	DD	00H
	DD	00H
	DD	FLAT:??_R0?AVCBaseEntity@@@8
	DD	FLAT:??_R3CBaseEntity@@8
rdata$r	ENDS
;	COMDAT ??_C@_1BE@OPPFELHC@?$AAm?$AA_?$AAp?$AAM?$AAe?$AAm?$AAo?$AAr?$AAy?$AA?$AA@
CONST	SEGMENT
??_C@_1BE@OPPFELHC@?$AAm?$AA_?$AAp?$AAM?$AAe?$AAm?$AAo?$AAr?$AAy?$AA?$AA@ DB 'm'
	DB	00H, '_', 00H, 'p', 00H, 'M', 00H, 'e', 00H, 'm', 00H, 'o', 00H
	DB	'r', 00H, 'y', 00H, 00H, 00H			; `string'
CONST	ENDS
;	COMDAT ??_C@_13COJANIEC@?$AA0?$AA?$AA@
CONST	SEGMENT
??_C@_13COJANIEC@?$AA0?$AA?$AA@ DB '0', 00H, 00H, 00H	; `string'
CONST	ENDS
;	COMDAT ??_C@_1BA@PKCLMAEA@?$AAn?$AAu?$AAm?$AA?5?$AA?$DO?$AA?5?$AA0?$AA?$AA@
CONST	SEGMENT
??_C@_1BA@PKCLMAEA@?$AAn?$AAu?$AAm?$AA?5?$AA?$DO?$AA?5?$AA0?$AA?$AA@ DB 'n'
	DB	00H, 'u', 00H, 'm', 00H, ' ', 00H, '>', 00H, ' ', 00H, '0', 00H
	DB	00H, 00H					; `string'
CONST	ENDS
;	COMDAT ??_C@_1GM@CDMJDFPA@?$AAI?$AAs?$AAV?$AAa?$AAl?$AAi?$AAd?$AAI?$AAn?$AAd?$AAe?$AAx?$AA?$CI?$AAe?$AAl?$AAe?$AAm?$AA?$CJ?$AA?5?$AA?$HM?$AA?$HM?$AA?5?$AA?$CI?$AA?5?$AAm?$AA_?$AAS?$AAi?$AAz?$AAe?$AA?5?$AA?$DN@
CONST	SEGMENT
??_C@_1GM@CDMJDFPA@?$AAI?$AAs?$AAV?$AAa?$AAl?$AAi?$AAd?$AAI?$AAn?$AAd?$AAe?$AAx?$AA?$CI?$AAe?$AAl?$AAe?$AAm?$AA?$CJ?$AA?5?$AA?$HM?$AA?$HM?$AA?5?$AA?$CI?$AA?5?$AAm?$AA_?$AAS?$AAi?$AAz?$AAe?$AA?5?$AA?$DN@ DB 'I'
	DB	00H, 's', 00H, 'V', 00H, 'a', 00H, 'l', 00H, 'i', 00H, 'd', 00H
	DB	'I', 00H, 'n', 00H, 'd', 00H, 'e', 00H, 'x', 00H, '(', 00H, 'e'
	DB	00H, 'l', 00H, 'e', 00H, 'm', 00H, ')', 00H, ' ', 00H, '|', 00H
	DB	'|', 00H, ' ', 00H, '(', 00H, ' ', 00H, 'm', 00H, '_', 00H, 'S'
	DB	00H, 'i', 00H, 'z', 00H, 'e', 00H, ' ', 00H, '=', 00H, '=', 00H
	DB	' ', 00H, '0', 00H, ' ', 00H, ')', 00H, ' ', 00H, '|', 00H, '|'
	DB	00H, ' ', 00H, '(', 00H, ' ', 00H, 'n', 00H, 'u', 00H, 'm', 00H
	DB	' ', 00H, '=', 00H, '=', 00H, ' ', 00H, '0', 00H, ' ', 00H, ')'
	DB	00H, 00H, 00H				; `string'
CONST	ENDS
;	COMDAT ??_C@_1FA@BPFBJKPF@?$AA?$CI?$AAe?$AAl?$AAe?$AAm?$AA?5?$AA?$DN?$AA?$DN?$AA?5?$AAC?$AAo?$AAu?$AAn?$AAt?$AA?$CI?$AA?$CJ?$AA?$CJ?$AA?5?$AA?$HM?$AA?$HM?$AA?5?$AAI?$AAs?$AAV?$AAa?$AAl?$AAi?$AAd?$AAI?$AAn?$AAd?$AAe@
CONST	SEGMENT
??_C@_1FA@BPFBJKPF@?$AA?$CI?$AAe?$AAl?$AAe?$AAm?$AA?5?$AA?$DN?$AA?$DN?$AA?5?$AAC?$AAo?$AAu?$AAn?$AAt?$AA?$CI?$AA?$CJ?$AA?$CJ?$AA?5?$AA?$HM?$AA?$HM?$AA?5?$AAI?$AAs?$AAV?$AAa?$AAl?$AAi?$AAd?$AAI?$AAn?$AAd?$AAe@ DB '('
	DB	00H, 'e', 00H, 'l', 00H, 'e', 00H, 'm', 00H, ' ', 00H, '=', 00H
	DB	'=', 00H, ' ', 00H, 'C', 00H, 'o', 00H, 'u', 00H, 'n', 00H, 't'
	DB	00H, '(', 00H, ')', 00H, ')', 00H, ' ', 00H, '|', 00H, '|', 00H
	DB	' ', 00H, 'I', 00H, 's', 00H, 'V', 00H, 'a', 00H, 'l', 00H, 'i'
	DB	00H, 'd', 00H, 'I', 00H, 'n', 00H, 'd', 00H, 'e', 00H, 'x', 00H
	DB	'(', 00H, 'e', 00H, 'l', 00H, 'e', 00H, 'm', 00H, ')', 00H, 00H
	DB	00H						; `string'
CONST	ENDS
;	COMDAT ??_C@_1BM@CKILBAKK@?$AAI?$AAs?$AAI?$AAd?$AAx?$AAV?$AAa?$AAl?$AAi?$AAd?$AA?$CI?$AAi?$AA?$CJ?$AA?$AA@
CONST	SEGMENT
??_C@_1BM@CKILBAKK@?$AAI?$AAs?$AAI?$AAd?$AAx?$AAV?$AAa?$AAl?$AAi?$AAd?$AA?$CI?$AAi?$AA?$CJ?$AA?$AA@ DB 'I'
	DB	00H, 's', 00H, 'I', 00H, 'd', 00H, 'x', 00H, 'V', 00H, 'a', 00H
	DB	'l', 00H, 'i', 00H, 'd', 00H, '(', 00H, 'i', 00H, ')', 00H, 00H
	DB	00H						; `string'
CONST	ENDS
;	COMDAT ??_C@_1BM@PFNFCCHH@?$AA?$CB?$AAI?$AAs?$AAR?$AAe?$AAa?$AAd?$AAO?$AAn?$AAl?$AAy?$AA?$CI?$AA?$CJ?$AA?$AA@
CONST	SEGMENT
??_C@_1BM@PFNFCCHH@?$AA?$CB?$AAI?$AAs?$AAR?$AAe?$AAa?$AAd?$AAO?$AAn?$AAl?$AAy?$AA?$CI?$AA?$CJ?$AA?$AA@ DB '!'
	DB	00H, 'I', 00H, 's', 00H, 'R', 00H, 'e', 00H, 'a', 00H, 'd', 00H
	DB	'O', 00H, 'n', 00H, 'l', 00H, 'y', 00H, '(', 00H, ')', 00H, 00H
	DB	00H						; `string'
CONST	ENDS
;	COMDAT ??_C@_1BO@FOOHAONO@?$AAn?$AAG?$AAr?$AAo?$AAw?$AAS?$AAi?$AAz?$AAe?$AA?5?$AA?$DO?$AA?$DN?$AA?5?$AA0?$AA?$AA@
CONST	SEGMENT
??_C@_1BO@FOOHAONO@?$AAn?$AAG?$AAr?$AAo?$AAw?$AAS?$AAi?$AAz?$AAe?$AA?5?$AA?$DO?$AA?$DN?$AA?5?$AA0?$AA?$AA@ DB 'n'
	DB	00H, 'G', 00H, 'r', 00H, 'o', 00H, 'w', 00H, 'S', 00H, 'i', 00H
	DB	'z', 00H, 'e', 00H, ' ', 00H, '>', 00H, '=', 00H, ' ', 00H, '0'
	DB	00H, 00H, 00H				; `string'
CONST	ENDS
;	COMDAT ??_C@_1JE@CIIIAKCN@?$AAd?$AA?3?$AA?2?$AA?$CB?$AAd?$AAi?$AAf?$AAf?$AAu?$AAs?$AAi?$AAo?$AAn?$AA?5?$AA2?$AA0?$AA2?$AA0?$AA?2?$AAs?$AAo?$AAu?$AAr?$AAc?$AAe?$AA?5?$AAc?$AAo?$AAd?$AAe?$AA?5?$AA2@
CONST	SEGMENT
??_C@_1JE@CIIIAKCN@?$AAd?$AA?3?$AA?2?$AA?$CB?$AAd?$AAi?$AAf?$AAf?$AAu?$AAs?$AAi?$AAo?$AAn?$AA?5?$AA2?$AA0?$AA2?$AA0?$AA?2?$AAs?$AAo?$AAu?$AAr?$AAc?$AAe?$AA?5?$AAc?$AAo?$AAd?$AAe?$AA?5?$AA2@ DB 'd'
	DB	00H, ':', 00H, '\', 00H, '!', 00H, 'd', 00H, 'i', 00H, 'f', 00H
	DB	'f', 00H, 'u', 00H, 's', 00H, 'i', 00H, 'o', 00H, 'n', 00H, ' '
	DB	00H, '2', 00H, '0', 00H, '2', 00H, '0', 00H, '\', 00H, 's', 00H
	DB	'o', 00H, 'u', 00H, 'r', 00H, 'c', 00H, 'e', 00H, ' ', 00H, 'c'
	DB	00H, 'o', 00H, 'd', 00H, 'e', 00H, ' ', 00H, '2', 00H, '0', 00H
	DB	'2', 00H, '2', 00H, '\', 00H, 'c', 00H, 'l', 00H, 'i', 00H, 'e'
	DB	00H, 'n', 00H, 't', 00H, '-', 00H, 's', 00H, 'e', 00H, 'r', 00H
	DB	'v', 00H, 'e', 00H, 'r', 00H, '\', 00H, 'g', 00H, 'a', 00H, 'm'
	DB	00H, 'e', 00H, '_', 00H, 's', 00H, 'h', 00H, 'a', 00H, 'r', 00H
	DB	'e', 00H, 'd', 00H, '\', 00H, 'u', 00H, 't', 00H, 'l', 00H, 'm'
	DB	00H, 'e', 00H, 'm', 00H, 'o', 00H, 'r', 00H, 'y', 00H, '.', 00H
	DB	'h', 00H, 00H, 00H				; `string'
CONST	ENDS
;	COMDAT ??_C@_1IK@DGJDJNN@?$AA?$CI?$AAB?$AAa?$AAs?$AAe?$AA?$CI?$AA?$CJ?$AA?5?$AA?$DN?$AA?$DN?$AA?5?$AAN?$AAU?$AAL?$AAL?$AA?$CJ?$AA?5?$AA?$HM?$AA?$HM?$AA?5?$AA?$CI?$AA?$CG?$AAs?$AAr?$AAc?$AA?5?$AA?$DM?$AA?5?$AAB?$AAa?$AAs?$AAe@
CONST	SEGMENT
??_C@_1IK@DGJDJNN@?$AA?$CI?$AAB?$AAa?$AAs?$AAe?$AA?$CI?$AA?$CJ?$AA?5?$AA?$DN?$AA?$DN?$AA?5?$AAN?$AAU?$AAL?$AAL?$AA?$CJ?$AA?5?$AA?$HM?$AA?$HM?$AA?5?$AA?$CI?$AA?$CG?$AAs?$AAr?$AAc?$AA?5?$AA?$DM?$AA?5?$AAB?$AAa?$AAs?$AAe@ DB '('
	DB	00H, 'B', 00H, 'a', 00H, 's', 00H, 'e', 00H, '(', 00H, ')', 00H
	DB	' ', 00H, '=', 00H, '=', 00H, ' ', 00H, 'N', 00H, 'U', 00H, 'L'
	DB	00H, 'L', 00H, ')', 00H, ' ', 00H, '|', 00H, '|', 00H, ' ', 00H
	DB	'(', 00H, '&', 00H, 's', 00H, 'r', 00H, 'c', 00H, ' ', 00H, '<'
	DB	00H, ' ', 00H, 'B', 00H, 'a', 00H, 's', 00H, 'e', 00H, '(', 00H
	DB	')', 00H, ')', 00H, ' ', 00H, '|', 00H, '|', 00H, ' ', 00H, '('
	DB	00H, '&', 00H, 's', 00H, 'r', 00H, 'c', 00H, ' ', 00H, '>', 00H
	DB	'=', 00H, ' ', 00H, '(', 00H, 'B', 00H, 'a', 00H, 's', 00H, 'e'
	DB	00H, '(', 00H, ')', 00H, ' ', 00H, '+', 00H, ' ', 00H, 'C', 00H
	DB	'o', 00H, 'u', 00H, 'n', 00H, 't', 00H, '(', 00H, ')', 00H, ')'
	DB	00H, ' ', 00H, ')', 00H, 00H, 00H		; `string'
CONST	ENDS
;	COMDAT ??_C@_1JC@EMNIBBBG@?$AAd?$AA?3?$AA?2?$AA?$CB?$AAd?$AAi?$AAf?$AAf?$AAu?$AAs?$AAi?$AAo?$AAn?$AA?5?$AA2?$AA0?$AA2?$AA0?$AA?2?$AAs?$AAo?$AAu?$AAr?$AAc?$AAe?$AA?5?$AAc?$AAo?$AAd?$AAe?$AA?5?$AA2@
CONST	SEGMENT
??_C@_1JC@EMNIBBBG@?$AAd?$AA?3?$AA?2?$AA?$CB?$AAd?$AAi?$AAf?$AAf?$AAu?$AAs?$AAi?$AAo?$AAn?$AA?5?$AA2?$AA0?$AA2?$AA0?$AA?2?$AAs?$AAo?$AAu?$AAr?$AAc?$AAe?$AA?5?$AAc?$AAo?$AAd?$AAe?$AA?5?$AA2@ DB 'd'
	DB	00H, ':', 00H, '\', 00H, '!', 00H, 'd', 00H, 'i', 00H, 'f', 00H
	DB	'f', 00H, 'u', 00H, 's', 00H, 'i', 00H, 'o', 00H, 'n', 00H, ' '
	DB	00H, '2', 00H, '0', 00H, '2', 00H, '0', 00H, '\', 00H, 's', 00H
	DB	'o', 00H, 'u', 00H, 'r', 00H, 'c', 00H, 'e', 00H, ' ', 00H, 'c'
	DB	00H, 'o', 00H, 'd', 00H, 'e', 00H, ' ', 00H, '2', 00H, '0', 00H
	DB	'2', 00H, '2', 00H, '\', 00H, 'c', 00H, 'l', 00H, 'i', 00H, 'e'
	DB	00H, 'n', 00H, 't', 00H, '-', 00H, 's', 00H, 'e', 00H, 'r', 00H
	DB	'v', 00H, 'e', 00H, 'r', 00H, '\', 00H, 'g', 00H, 'a', 00H, 'm'
	DB	00H, 'e', 00H, '_', 00H, 's', 00H, 'h', 00H, 'a', 00H, 'r', 00H
	DB	'e', 00H, 'd', 00H, '\', 00H, 'u', 00H, 't', 00H, 'l', 00H, 'a'
	DB	00H, 'r', 00H, 'r', 00H, 'a', 00H, 'y', 00H, '.', 00H, 'h', 00H
	DB	00H, 00H					; `string'
CONST	ENDS
;	COMDAT ??_C@_04HIBGFPH@NULL?$AA@
CONST	SEGMENT
??_C@_04HIBGFPH@NULL?$AA@ DB 'NULL', 00H		; `string'
CONST	ENDS
;	COMDAT ??_C@_0BH@OCBJNBFI@squeek?1sqk_deploy1?4wav?$AA@
CONST	SEGMENT
??_C@_0BH@OCBJNBFI@squeek?1sqk_deploy1?4wav?$AA@ DB 'squeek/sqk_deploy1.w'
	DB	'av', 00H					; `string'
CONST	ENDS
;	COMDAT ??_C@_0BF@OGELJCFM@squeek?1sqk_hunt3?4wav?$AA@
CONST	SEGMENT
??_C@_0BF@OGELJCFM@squeek?1sqk_hunt3?4wav?$AA@ DB 'squeek/sqk_hunt3.wav', 00H ; `string'
CONST	ENDS
;	COMDAT ??_C@_0BF@CNBHEBPJ@squeek?1sqk_hunt2?4wav?$AA@
CONST	SEGMENT
??_C@_0BF@CNBHEBPJ@squeek?1sqk_hunt2?4wav?$AA@ DB 'squeek/sqk_hunt2.wav', 00H ; `string'
CONST	ENDS
;	COMDAT ??_C@_0BF@KLIDDDFH@squeek?1sqk_hunt1?4wav?$AA@
CONST	SEGMENT
??_C@_0BF@KLIDDDFH@squeek?1sqk_hunt1?4wav?$AA@ DB 'squeek/sqk_hunt1.wav', 00H ; `string'
CONST	ENDS
;	COMDAT ??_C@_0BE@DCEHNJFM@squeek?1sqk_die1?4wav?$AA@
CONST	SEGMENT
??_C@_0BE@DCEHNJFM@squeek?1sqk_die1?4wav?$AA@ DB 'squeek/sqk_die1.wav', 00H ; `string'
CONST	ENDS
;	COMDAT ??_C@_0BG@GDLOGHOA@common?1bodysplat1?4wav?$AA@
CONST	SEGMENT
??_C@_0BG@GDLOGHOA@common?1bodysplat1?4wav?$AA@ DB 'common/bodysplat1.wav'
	DB	00H						; `string'
CONST	ENDS
;	COMDAT ??_C@_0BG@NNACFHOG@squeek?1sqk_blast1?4wav?$AA@
CONST	SEGMENT
??_C@_0BG@NNACFHOG@squeek?1sqk_blast1?4wav?$AA@ DB 'squeek/sqk_blast1.wav'
	DB	00H						; `string'
CONST	ENDS
;	COMDAT ??_C@_0BL@BMBJFJAM@?$CGCSqueakGrenade?3?3HuntThink?$AA@
CONST	SEGMENT
??_C@_0BL@BMBJFJAM@?$CGCSqueakGrenade?3?3HuntThink?$AA@ DB '&CSqueakGrena'
	DB	'de::HuntThink', 00H				; `string'
CONST	ENDS
;	COMDAT ??_C@_0CC@EHFLABGF@?$CGCSqueakGrenade?3?3SuperBounceTouc@
CONST	SEGMENT
??_C@_0CC@EHFLABGF@?$CGCSqueakGrenade?3?3SuperBounceTouc@ DB '&CSqueakGre'
	DB	'nade::SuperBounceTouch', 00H		; `string'
CONST	ENDS
;	COMDAT ??_C@_0BE@JDDDBEME@models?1w_squeak?4mdl?$AA@
CONST	SEGMENT
??_C@_0BE@JDDDBEME@models?1w_squeak?4mdl?$AA@ DB 'models/w_squeak.mdl', 00H ; `string'
CONST	ENDS
;	COMDAT ??_C@_09EKFJIKFE@HuntThink?$AA@
CONST	SEGMENT
??_C@_09EKFJIKFE@HuntThink?$AA@ DB 'HuntThink', 00H	; `string'
CONST	ENDS
;	COMDAT ??_C@_0BB@HFFOMAAD@SuperBounceTouch?$AA@
CONST	SEGMENT
??_C@_0BB@HFFOMAAD@SuperBounceTouch?$AA@ DB 'SuperBounceTouch', 00H ; `string'
CONST	ENDS
;	COMDAT ??_C@_0O@LBKPDLAI@monster_snark?$AA@
CONST	SEGMENT
??_C@_0O@LBKPDLAI@monster_snark?$AA@ DB 'monster_snark', 00H ; `string'
CONST	ENDS
;	COMDAT ??_7?$CEntityFactory@VCSqueakGrenade@@@@6B@
CONST	SEGMENT
??_7?$CEntityFactory@VCSqueakGrenade@@@@6B@ DD FLAT:??_R4?$CEntityFactory@VCSqueakGrenade@@@@6B@ ; CEntityFactory<CSqueakGrenade>::`vftable'
	DD	FLAT:?Create@?$CEntityFactory@VCSqueakGrenade@@@@UAEPAVCBaseEntity@@PBDPAUentvars_s@@@Z
	DD	FLAT:?Destroy@?$CEntityFactory@VCSqueakGrenade@@@@UAEXPAVCBaseEntity@@@Z
	DD	FLAT:?GetEntitySize@?$CEntityFactory@VCSqueakGrenade@@@@UAEIXZ
CONST	ENDS
;	COMDAT ??_7CSqueakGrenade@@6B@
CONST	SEGMENT
??_7CSqueakGrenade@@6B@ DD FLAT:??_R4CSqueakGrenade@@6B@ ; CSqueakGrenade::`vftable'
	DD	FLAT:?GetDataDescMap@CSqueakGrenade@@EAEPAUdatamap_s@@XZ
	DD	FLAT:?Spawn@CSqueakGrenade@@EAEXXZ
	DD	FLAT:?Precache@CSqueakGrenade@@EAEXXZ
	DD	FLAT:?KeyValue@CBaseMonster@@UAEXPAUKeyValueData_s@@@Z
	DD	FLAT:?Save@CBaseEntity@@UAEHAAVCSave@@@Z
	DD	FLAT:?Restore@CBaseMonster@@UAEHAAVCRestore@@@Z
	DD	FLAT:?ObjectCaps@CBaseEntity@@UAEHXZ
	DD	FLAT:?Activate@CBaseEntity@@UAEXXZ
	DD	FLAT:?OnChangeLevel@CBaseEntity@@UAEXXZ
	DD	FLAT:?OnTeleport@CBaseEntity@@UAEXXZ
	DD	FLAT:?PortalSleep@CBaseEntity@@UAEXM@Z
	DD	FLAT:?StartMessage@CBaseEntity@@UAEXPAVCBasePlayer@@@Z
	DD	FLAT:?GetPosition@CBaseEntity@@UAEMXZ
	DD	FLAT:?OnChangeParent@CBaseEntity@@UAEXXZ
	DD	FLAT:?OnClearParent@CBaseEntity@@UAEXXZ
	DD	FLAT:?OnRemove@CBaseEntity@@UAEXXZ
	DD	FLAT:?SetObjectCollisionBox@CBaseEntity@@UAEXXZ
	DD	FLAT:?Classify@CSqueakGrenade@@EAEHXZ
	DD	FLAT:?DeathNotice@CBaseEntity@@UAEXPAUentvars_s@@@Z
	DD	FLAT:?IsRigidBody@CBaseEntity@@UAEHXZ
	DD	FLAT:?SetNextThink@CBaseEntity@@UAEXM@Z
	DD	FLAT:?GetState@CBaseEntity@@UAE?AW4STATE@@PAV1@@Z
	DD	FLAT:?GetState@CBaseToggle@@UAE?AW4STATE@@XZ
	DD	FLAT:?TraceAttack@CBaseMonster@@UAEXPAUentvars_s@@MVVector@@PAUgametrace_s@@H@Z
	DD	FLAT:?TakeDamage@CBaseMonster@@UAEHPAUentvars_s@@0MH@Z
	DD	FLAT:?TakeHealth@CBaseMonster@@UAEHMH@Z
	DD	FLAT:?TakeArmor@CBaseEntity@@UAEHMH@Z
	DD	FLAT:?Killed@CSqueakGrenade@@EAEXPAUentvars_s@@H@Z
	DD	FLAT:?BloodColor@CSqueakGrenade@@EAEHXZ
	DD	FLAT:?TraceBleed@CBaseEntity@@UAEXMVVector@@PAUgametrace_s@@H@Z
	DD	FLAT:?IsTriggered@CBaseEntity@@UAEHPAV1@@Z
	DD	FLAT:?MyMonsterPointer@CBaseMonster@@UAEPAV1@XZ
	DD	FLAT:?MySquadMonsterPointer@CBaseEntity@@UAEPAVCSquadMonster@@XZ
	DD	FLAT:?GetToggleState@CBaseToggle@@UAEHXZ
	DD	FLAT:?AddPoints@CBaseEntity@@UAEXHH@Z
	DD	FLAT:?AddPointsToTeam@CBaseEntity@@UAEXHH@Z
	DD	FLAT:?AddPlayerItem@CBaseEntity@@UAEHPAVCBasePlayerItem@@@Z
	DD	FLAT:?RemovePlayerItem@CBaseEntity@@UAEHPAVCBasePlayerItem@@@Z
	DD	FLAT:?GiveAmmo@CBaseEntity@@UAEHHPADH@Z
	DD	FLAT:?GetDelay@CBaseToggle@@UAEMXZ
	DD	FLAT:?IsMoving@CBaseMonster@@UAEHXZ
	DD	FLAT:?OverrideReset@CBaseEntity@@UAEXXZ
	DD	FLAT:?TransferReset@CBaseEntity@@UAEXXZ
	DD	FLAT:?DamageDecal@CBaseMonster@@UAEHH@Z
	DD	FLAT:?SetToggleState@CBaseEntity@@UAEXH@Z
	DD	FLAT:?StartSneaking@CBaseEntity@@UAEXXZ
	DD	FLAT:?StopSneaking@CBaseEntity@@UAEXXZ
	DD	FLAT:?OnControls@CBaseEntity@@UAEHPAV1@@Z
	DD	FLAT:?IsSneaking@CBaseEntity@@UAEHXZ
	DD	FLAT:?IsAlive@CBaseMonster@@UAEHXZ
	DD	FLAT:?IsBSPModel@CBaseEntity@@UAEHXZ
	DD	FLAT:?IsCustomModel@CBaseEntity@@UAEHXZ
	DD	FLAT:?ReflectGauss@CBaseEntity@@UAEHXZ
	DD	FLAT:?HasTarget@CBaseEntity@@UAEHH@Z
	DD	FLAT:?IsInWorld@CBaseEntity@@UAEHH@Z
	DD	FLAT:?IsPlayer@CBaseEntity@@UAEHXZ
	DD	FLAT:?IsNetClient@CBaseEntity@@UAEHXZ
	DD	FLAT:?IsMonster@CBaseEntity@@UAEHXZ
	DD	FLAT:?IsPushable@CBaseEntity@@UAEHXZ
	DD	FLAT:?IsProjectile@CGrenade@@UAEHXZ
	DD	FLAT:?IsFuncScreen@CBaseEntity@@UAEHXZ
	DD	FLAT:?IsPortal@CBaseEntity@@UAEHXZ
	DD	FLAT:?IsTank@CBaseEntity@@UAEHXZ
	DD	FLAT:?IsMover@CBaseEntity@@UAEHXZ
	DD	FLAT:?IsBreakable@CBaseEntity@@UAEHXZ
	DD	FLAT:?TeamID@CBaseEntity@@UAEPBDXZ
	DD	FLAT:?AddSpawnFlags@CBaseEntity@@UAEXH@Z
	DD	FLAT:?HasSpawnFlags@CBaseEntity@@UBE_NH@Z
	DD	FLAT:?SetFadeDistance@CBaseEntity@@UAEXH@Z
	DD	FLAT:?SetFlag@CBaseEntity@@UAEXH@Z
	DD	FLAT:?HasFlag@CBaseEntity@@UBE_NH@Z
	DD	FLAT:?RemoveFlag@CBaseEntity@@UAEXH@Z
	DD	FLAT:?SetNullModel@CBaseEntity@@UAEXXZ
	DD	FLAT:?OnPickupObject@CBaseEntity@@UAEXXZ
	DD	FLAT:?OnDropObject@CBaseEntity@@UAEXXZ
	DD	FLAT:?GetNextTarget@CBaseEntity@@UAEPAV1@XZ
	DD	FLAT:?Think@CBaseEntity@@UAEXXZ
	DD	FLAT:?Use@CBaseEntity@@UAEXPAV1@0W4USE_TYPE@@M@Z
	DD	FLAT:?Touch@CBaseEntity@@UAEXPAV1@@Z
	DD	FLAT:?Blocked@CBaseEntity@@UAEXPAV1@@Z
	DD	FLAT:?MoveDone@CBaseToggle@@UAEXXZ
	DD	FLAT:?Respawn@CBaseEntity@@UAEPAV1@XZ
	DD	FLAT:?UpdateOwner@CBaseEntity@@UAEXXZ
	DD	FLAT:?FBecomeProne@CBaseMonster@@UAEHXZ
	DD	FLAT:?Center@CBaseEntity@@UAE?AVVector@@XZ
	DD	FLAT:?EyePosition@CBaseEntity@@UAE?AVVector@@XZ
	DD	FLAT:?EarPosition@CBaseEntity@@UAE?AVVector@@XZ
	DD	FLAT:?BodyTarget@CBaseMonster@@UAE?AVVector@@ABV2@@Z
	DD	FLAT:?IsPointSized@CBaseEntity@@UBEHXZ
	DD	FLAT:?Illumination@CBaseEntity@@UAEHXZ
	DD	FLAT:?FVisible@CBaseEntity@@UAEHABVVector@@@Z
	DD	FLAT:?FVisible@CBaseEntity@@UAEHPAV1@@Z
	DD	FLAT:?ShouldCollide@CBaseEntity@@UAEHPAV1@@Z
	DD	FLAT:?ClearEffects@CGrenade@@UAEXXZ
	DD	FLAT:?HandleAnimEvent@CBaseMonster@@UAEXPAUMonsterEvent_t@@@Z
	DD	FLAT:?Look@CBaseMonster@@UAEXH@Z
	DD	FLAT:?RunAI@CBaseMonster@@UAEXXZ
	DD	FLAT:?ShouldFadeOnDeath@CBaseMonster@@UAEHXZ
	DD	FLAT:?ChangeYaw@CBaseMonster@@UAEMH@Z
	DD	FLAT:?MonsterThink@CBaseMonster@@UAEXXZ
	DD	FLAT:?IRelationship@CBaseMonster@@UAEHPAVCBaseEntity@@@Z
	DD	FLAT:?MonsterInit@CBaseMonster@@UAEXXZ
	DD	FLAT:?MonsterInitDead@CBaseMonster@@UAEXXZ
	DD	FLAT:?BecomeDead@CBaseMonster@@UAEXXZ
	DD	FLAT:?StartMonster@CBaseMonster@@UAEXXZ
	DD	FLAT:?BestVisibleEnemy@CBaseMonster@@UAEPAVCBaseEntity@@XZ
	DD	FLAT:?FInViewCone@CBaseMonster@@UAEHPAVVector@@@Z
	DD	FLAT:?FInViewCone@CBaseMonster@@UAEHPAVCBaseEntity@@M@Z
	DD	FLAT:?CheckLocalMove@CBaseMonster@@UAEHABVVector@@0PAVCBaseEntity@@PAM@Z
	DD	FLAT:?Move@CBaseMonster@@UAEXM@Z
	DD	FLAT:?MoveExecute@CBaseMonster@@UAEXPAVCBaseEntity@@ABVVector@@M@Z
	DD	FLAT:?ShouldAdvanceRoute@CBaseMonster@@UAEHM@Z
	DD	FLAT:?GetStoppedActivity@CBaseMonster@@UAE?AW4Activity@@XZ
	DD	FLAT:?Stop@CBaseMonster@@UAEXXZ
	DD	FLAT:?CheckRangeAttack1@CBaseMonster@@UAEHMM@Z
	DD	FLAT:?CheckRangeAttack2@CBaseMonster@@UAEHMM@Z
	DD	FLAT:?CheckMeleeAttack1@CBaseMonster@@UAEHMM@Z
	DD	FLAT:?CheckMeleeAttack2@CBaseMonster@@UAEHMM@Z
	DD	FLAT:?ScheduleFromName@CBaseMonster@@UAEPAUSchedule_t@@PBD@Z
	DD	FLAT:?StartTask@CBaseMonster@@UAEXPAUTask_t@@@Z
	DD	FLAT:?RunTask@CBaseMonster@@UAEXPAUTask_t@@@Z
	DD	FLAT:?GetScheduleOfType@CBaseMonster@@UAEPAUSchedule_t@@H@Z
	DD	FLAT:?GetSchedule@CBaseMonster@@UAEPAUSchedule_t@@XZ
	DD	FLAT:?ScheduleChange@CBaseMonster@@UAEXXZ
	DD	FLAT:?CanPlaySequence@CBaseMonster@@UAEHHH@Z
	DD	FLAT:?CanPlaySentence@CBaseMonster@@UAEHH@Z
	DD	FLAT:?PlaySentence@CBaseMonster@@UAEXPBDMMMH@Z
	DD	FLAT:?PlayScriptedSentence@CBaseMonster@@UAEXPBDMMMHPAVCBaseEntity@@H@Z
	DD	FLAT:?SentenceStop@CBaseMonster@@UAEXXZ
	DD	FLAT:?GetIdealState@CBaseMonster@@UAE?AW4MONSTERSTATE@@XZ
	DD	FLAT:?SetActivity@CBaseMonster@@UAEXW4Activity@@@Z
	DD	FLAT:?ReportAIState@CBaseMonster@@UAEXXZ
	DD	FLAT:?CheckEnemy@CBaseMonster@@UAEHPAVCBaseEntity@@@Z
	DD	FLAT:?FTriangulate@CBaseMonster@@UAEHABVVector@@0MPAVCBaseEntity@@PAV2@@Z
	DD	FLAT:?SetYawSpeed@CBaseMonster@@UAEXXZ
	DD	FLAT:?BuildNearestRoute@CBaseMonster@@UAEHVVector@@0MM@Z
	DD	FLAT:?FindCover@CBaseMonster@@UAEHVVector@@0MM@Z
	DD	FLAT:?FindRunAway@CBaseMonster@@UAEHVVector@@MM@Z
	DD	FLAT:?FValidateCover@CBaseMonster@@UAEHABVVector@@@Z
	DD	FLAT:?CoverRadius@CBaseMonster@@UAEMXZ
	DD	FLAT:?FCanCheckAttacks@CBaseMonster@@UAEHXZ
	DD	FLAT:?CheckAmmo@CBaseMonster@@UAEXXZ
	DD	FLAT:?IgnoreConditions@CBaseMonster@@UAEHXZ
	DD	FLAT:?FValidateHintType@CBaseMonster@@UAEHF@Z
	DD	FLAT:?FCanActiveIdle@CBaseMonster@@UAEHXZ
	DD	FLAT:?ISoundMask@CBaseMonster@@UAEHXZ
	DD	FLAT:?PBestSound@CBaseMonster@@UAEPAVCSound@@XZ
	DD	FLAT:?PBestScent@CBaseMonster@@UAEPAVCSound@@XZ
	DD	FLAT:?HearingSensitivity@CBaseMonster@@UAEMXZ
	DD	FLAT:?BarnacleVictimBitten@CBaseMonster@@UAEXPAUentvars_s@@@Z
	DD	FLAT:?BarnacleVictimReleased@CBaseMonster@@UAEXXZ
	DD	FLAT:?PrescheduleThink@CBaseMonster@@UAEXXZ
	DD	FLAT:?GetDeathActivity@CBaseMonster@@UAE?AW4Activity@@XZ
	DD	FLAT:?GibMonster@CSqueakGrenade@@EAEXXZ
	DD	FLAT:?HasHumanGibs@CBaseMonster@@UAEHXZ
	DD	FLAT:?HasAlienGibs@CBaseMonster@@UAEHXZ
	DD	FLAT:?FadeMonster@CBaseMonster@@UAEXXZ
	DD	FLAT:?GetGunPosition@CBaseMonster@@UAE?AVVector@@XZ
	DD	FLAT:?DeathSound@CBaseMonster@@UAEXXZ
	DD	FLAT:?AlertSound@CBaseMonster@@UAEXXZ
	DD	FLAT:?IdleSound@CBaseMonster@@UAEXXZ
	DD	FLAT:?PainSound@CBaseMonster@@UAEXXZ
	DD	FLAT:?StepSound@CBaseMonster@@UAEXXZ
	DD	FLAT:?StopFollowing@CBaseMonster@@UAEXH@Z
	DD	FLAT:?BounceSound@CGrenade@@UAEXXZ
CONST	ENDS
;	COMDAT ??_7CGrenade@@6B@
CONST	SEGMENT
??_7CGrenade@@6B@ DD FLAT:??_R4CGrenade@@6B@		; CGrenade::`vftable'
	DD	FLAT:?GetDataDescMap@CGrenade@@UAEPAUdatamap_s@@XZ
	DD	FLAT:?Spawn@CGrenade@@UAEXXZ
	DD	FLAT:?Precache@CBaseEntity@@UAEXXZ
	DD	FLAT:?KeyValue@CBaseMonster@@UAEXPAUKeyValueData_s@@@Z
	DD	FLAT:?Save@CBaseEntity@@UAEHAAVCSave@@@Z
	DD	FLAT:?Restore@CBaseMonster@@UAEHAAVCRestore@@@Z
	DD	FLAT:?ObjectCaps@CBaseEntity@@UAEHXZ
	DD	FLAT:?Activate@CBaseEntity@@UAEXXZ
	DD	FLAT:?OnChangeLevel@CBaseEntity@@UAEXXZ
	DD	FLAT:?OnTeleport@CBaseEntity@@UAEXXZ
	DD	FLAT:?PortalSleep@CBaseEntity@@UAEXM@Z
	DD	FLAT:?StartMessage@CBaseEntity@@UAEXPAVCBasePlayer@@@Z
	DD	FLAT:?GetPosition@CBaseEntity@@UAEMXZ
	DD	FLAT:?OnChangeParent@CBaseEntity@@UAEXXZ
	DD	FLAT:?OnClearParent@CBaseEntity@@UAEXXZ
	DD	FLAT:?OnRemove@CBaseEntity@@UAEXXZ
	DD	FLAT:?SetObjectCollisionBox@CBaseEntity@@UAEXXZ
	DD	FLAT:?Classify@CBaseMonster@@UAEHXZ
	DD	FLAT:?DeathNotice@CBaseEntity@@UAEXPAUentvars_s@@@Z
	DD	FLAT:?IsRigidBody@CBaseEntity@@UAEHXZ
	DD	FLAT:?SetNextThink@CBaseEntity@@UAEXM@Z
	DD	FLAT:?GetState@CBaseEntity@@UAE?AW4STATE@@PAV1@@Z
	DD	FLAT:?GetState@CBaseToggle@@UAE?AW4STATE@@XZ
	DD	FLAT:?TraceAttack@CBaseMonster@@UAEXPAUentvars_s@@MVVector@@PAUgametrace_s@@H@Z
	DD	FLAT:?TakeDamage@CBaseMonster@@UAEHPAUentvars_s@@0MH@Z
	DD	FLAT:?TakeHealth@CBaseMonster@@UAEHMH@Z
	DD	FLAT:?TakeArmor@CBaseEntity@@UAEHMH@Z
	DD	FLAT:?Killed@CGrenade@@UAEXPAUentvars_s@@H@Z
	DD	FLAT:?BloodColor@CGrenade@@UAEHXZ
	DD	FLAT:?TraceBleed@CBaseEntity@@UAEXMVVector@@PAUgametrace_s@@H@Z
	DD	FLAT:?IsTriggered@CBaseEntity@@UAEHPAV1@@Z
	DD	FLAT:?MyMonsterPointer@CBaseMonster@@UAEPAV1@XZ
	DD	FLAT:?MySquadMonsterPointer@CBaseEntity@@UAEPAVCSquadMonster@@XZ
	DD	FLAT:?GetToggleState@CBaseToggle@@UAEHXZ
	DD	FLAT:?AddPoints@CBaseEntity@@UAEXHH@Z
	DD	FLAT:?AddPointsToTeam@CBaseEntity@@UAEXHH@Z
	DD	FLAT:?AddPlayerItem@CBaseEntity@@UAEHPAVCBasePlayerItem@@@Z
	DD	FLAT:?RemovePlayerItem@CBaseEntity@@UAEHPAVCBasePlayerItem@@@Z
	DD	FLAT:?GiveAmmo@CBaseEntity@@UAEHHPADH@Z
	DD	FLAT:?GetDelay@CBaseToggle@@UAEMXZ
	DD	FLAT:?IsMoving@CBaseMonster@@UAEHXZ
	DD	FLAT:?OverrideReset@CBaseEntity@@UAEXXZ
	DD	FLAT:?TransferReset@CBaseEntity@@UAEXXZ
	DD	FLAT:?DamageDecal@CBaseMonster@@UAEHH@Z
	DD	FLAT:?SetToggleState@CBaseEntity@@UAEXH@Z
	DD	FLAT:?StartSneaking@CBaseEntity@@UAEXXZ
	DD	FLAT:?StopSneaking@CBaseEntity@@UAEXXZ
	DD	FLAT:?OnControls@CBaseEntity@@UAEHPAV1@@Z
	DD	FLAT:?IsSneaking@CBaseEntity@@UAEHXZ
	DD	FLAT:?IsAlive@CBaseMonster@@UAEHXZ
	DD	FLAT:?IsBSPModel@CBaseEntity@@UAEHXZ
	DD	FLAT:?IsCustomModel@CBaseEntity@@UAEHXZ
	DD	FLAT:?ReflectGauss@CBaseEntity@@UAEHXZ
	DD	FLAT:?HasTarget@CBaseEntity@@UAEHH@Z
	DD	FLAT:?IsInWorld@CBaseEntity@@UAEHH@Z
	DD	FLAT:?IsPlayer@CBaseEntity@@UAEHXZ
	DD	FLAT:?IsNetClient@CBaseEntity@@UAEHXZ
	DD	FLAT:?IsMonster@CBaseEntity@@UAEHXZ
	DD	FLAT:?IsPushable@CBaseEntity@@UAEHXZ
	DD	FLAT:?IsProjectile@CGrenade@@UAEHXZ
	DD	FLAT:?IsFuncScreen@CBaseEntity@@UAEHXZ
	DD	FLAT:?IsPortal@CBaseEntity@@UAEHXZ
	DD	FLAT:?IsTank@CBaseEntity@@UAEHXZ
	DD	FLAT:?IsMover@CBaseEntity@@UAEHXZ
	DD	FLAT:?IsBreakable@CBaseEntity@@UAEHXZ
	DD	FLAT:?TeamID@CBaseEntity@@UAEPBDXZ
	DD	FLAT:?AddSpawnFlags@CBaseEntity@@UAEXH@Z
	DD	FLAT:?HasSpawnFlags@CBaseEntity@@UBE_NH@Z
	DD	FLAT:?SetFadeDistance@CBaseEntity@@UAEXH@Z
	DD	FLAT:?SetFlag@CBaseEntity@@UAEXH@Z
	DD	FLAT:?HasFlag@CBaseEntity@@UBE_NH@Z
	DD	FLAT:?RemoveFlag@CBaseEntity@@UAEXH@Z
	DD	FLAT:?SetNullModel@CBaseEntity@@UAEXXZ
	DD	FLAT:?OnPickupObject@CBaseEntity@@UAEXXZ
	DD	FLAT:?OnDropObject@CBaseEntity@@UAEXXZ
	DD	FLAT:?GetNextTarget@CBaseEntity@@UAEPAV1@XZ
	DD	FLAT:?Think@CBaseEntity@@UAEXXZ
	DD	FLAT:?Use@CBaseEntity@@UAEXPAV1@0W4USE_TYPE@@M@Z
	DD	FLAT:?Touch@CBaseEntity@@UAEXPAV1@@Z
	DD	FLAT:?Blocked@CBaseEntity@@UAEXPAV1@@Z
	DD	FLAT:?MoveDone@CBaseToggle@@UAEXXZ
	DD	FLAT:?Respawn@CBaseEntity@@UAEPAV1@XZ
	DD	FLAT:?UpdateOwner@CBaseEntity@@UAEXXZ
	DD	FLAT:?FBecomeProne@CBaseMonster@@UAEHXZ
	DD	FLAT:?Center@CBaseEntity@@UAE?AVVector@@XZ
	DD	FLAT:?EyePosition@CBaseEntity@@UAE?AVVector@@XZ
	DD	FLAT:?EarPosition@CBaseEntity@@UAE?AVVector@@XZ
	DD	FLAT:?BodyTarget@CBaseMonster@@UAE?AVVector@@ABV2@@Z
	DD	FLAT:?IsPointSized@CBaseEntity@@UBEHXZ
	DD	FLAT:?Illumination@CBaseEntity@@UAEHXZ
	DD	FLAT:?FVisible@CBaseEntity@@UAEHABVVector@@@Z
	DD	FLAT:?FVisible@CBaseEntity@@UAEHPAV1@@Z
	DD	FLAT:?ShouldCollide@CBaseEntity@@UAEHPAV1@@Z
	DD	FLAT:?ClearEffects@CGrenade@@UAEXXZ
	DD	FLAT:?HandleAnimEvent@CBaseMonster@@UAEXPAUMonsterEvent_t@@@Z
	DD	FLAT:?Look@CBaseMonster@@UAEXH@Z
	DD	FLAT:?RunAI@CBaseMonster@@UAEXXZ
	DD	FLAT:?ShouldFadeOnDeath@CBaseMonster@@UAEHXZ
	DD	FLAT:?ChangeYaw@CBaseMonster@@UAEMH@Z
	DD	FLAT:?MonsterThink@CBaseMonster@@UAEXXZ
	DD	FLAT:?IRelationship@CBaseMonster@@UAEHPAVCBaseEntity@@@Z
	DD	FLAT:?MonsterInit@CBaseMonster@@UAEXXZ
	DD	FLAT:?MonsterInitDead@CBaseMonster@@UAEXXZ
	DD	FLAT:?BecomeDead@CBaseMonster@@UAEXXZ
	DD	FLAT:?StartMonster@CBaseMonster@@UAEXXZ
	DD	FLAT:?BestVisibleEnemy@CBaseMonster@@UAEPAVCBaseEntity@@XZ
	DD	FLAT:?FInViewCone@CBaseMonster@@UAEHPAVVector@@@Z
	DD	FLAT:?FInViewCone@CBaseMonster@@UAEHPAVCBaseEntity@@M@Z
	DD	FLAT:?CheckLocalMove@CBaseMonster@@UAEHABVVector@@0PAVCBaseEntity@@PAM@Z
	DD	FLAT:?Move@CBaseMonster@@UAEXM@Z
	DD	FLAT:?MoveExecute@CBaseMonster@@UAEXPAVCBaseEntity@@ABVVector@@M@Z
	DD	FLAT:?ShouldAdvanceRoute@CBaseMonster@@UAEHM@Z
	DD	FLAT:?GetStoppedActivity@CBaseMonster@@UAE?AW4Activity@@XZ
	DD	FLAT:?Stop@CBaseMonster@@UAEXXZ
	DD	FLAT:?CheckRangeAttack1@CBaseMonster@@UAEHMM@Z
	DD	FLAT:?CheckRangeAttack2@CBaseMonster@@UAEHMM@Z
	DD	FLAT:?CheckMeleeAttack1@CBaseMonster@@UAEHMM@Z
	DD	FLAT:?CheckMeleeAttack2@CBaseMonster@@UAEHMM@Z
	DD	FLAT:?ScheduleFromName@CBaseMonster@@UAEPAUSchedule_t@@PBD@Z
	DD	FLAT:?StartTask@CBaseMonster@@UAEXPAUTask_t@@@Z
	DD	FLAT:?RunTask@CBaseMonster@@UAEXPAUTask_t@@@Z
	DD	FLAT:?GetScheduleOfType@CBaseMonster@@UAEPAUSchedule_t@@H@Z
	DD	FLAT:?GetSchedule@CBaseMonster@@UAEPAUSchedule_t@@XZ
	DD	FLAT:?ScheduleChange@CBaseMonster@@UAEXXZ
	DD	FLAT:?CanPlaySequence@CBaseMonster@@UAEHHH@Z
	DD	FLAT:?CanPlaySentence@CBaseMonster@@UAEHH@Z
	DD	FLAT:?PlaySentence@CBaseMonster@@UAEXPBDMMMH@Z
	DD	FLAT:?PlayScriptedSentence@CBaseMonster@@UAEXPBDMMMHPAVCBaseEntity@@H@Z
	DD	FLAT:?SentenceStop@CBaseMonster@@UAEXXZ
	DD	FLAT:?GetIdealState@CBaseMonster@@UAE?AW4MONSTERSTATE@@XZ
	DD	FLAT:?SetActivity@CBaseMonster@@UAEXW4Activity@@@Z
	DD	FLAT:?ReportAIState@CBaseMonster@@UAEXXZ
	DD	FLAT:?CheckEnemy@CBaseMonster@@UAEHPAVCBaseEntity@@@Z
	DD	FLAT:?FTriangulate@CBaseMonster@@UAEHABVVector@@0MPAVCBaseEntity@@PAV2@@Z
	DD	FLAT:?SetYawSpeed@CBaseMonster@@UAEXXZ
	DD	FLAT:?BuildNearestRoute@CBaseMonster@@UAEHVVector@@0MM@Z
	DD	FLAT:?FindCover@CBaseMonster@@UAEHVVector@@0MM@Z
	DD	FLAT:?FindRunAway@CBaseMonster@@UAEHVVector@@MM@Z
	DD	FLAT:?FValidateCover@CBaseMonster@@UAEHABVVector@@@Z
	DD	FLAT:?CoverRadius@CBaseMonster@@UAEMXZ
	DD	FLAT:?FCanCheckAttacks@CBaseMonster@@UAEHXZ
	DD	FLAT:?CheckAmmo@CBaseMonster@@UAEXXZ
	DD	FLAT:?IgnoreConditions@CBaseMonster@@UAEHXZ
	DD	FLAT:?FValidateHintType@CBaseMonster@@UAEHF@Z
	DD	FLAT:?FCanActiveIdle@CBaseMonster@@UAEHXZ
	DD	FLAT:?ISoundMask@CBaseMonster@@UAEHXZ
	DD	FLAT:?PBestSound@CBaseMonster@@UAEPAVCSound@@XZ
	DD	FLAT:?PBestScent@CBaseMonster@@UAEPAVCSound@@XZ
	DD	FLAT:?HearingSensitivity@CBaseMonster@@UAEMXZ
	DD	FLAT:?BarnacleVictimBitten@CBaseMonster@@UAEXPAUentvars_s@@@Z
	DD	FLAT:?BarnacleVictimReleased@CBaseMonster@@UAEXXZ
	DD	FLAT:?PrescheduleThink@CBaseMonster@@UAEXXZ
	DD	FLAT:?GetDeathActivity@CBaseMonster@@UAE?AW4Activity@@XZ
	DD	FLAT:?GibMonster@CBaseMonster@@UAEXXZ
	DD	FLAT:?HasHumanGibs@CBaseMonster@@UAEHXZ
	DD	FLAT:?HasAlienGibs@CBaseMonster@@UAEHXZ
	DD	FLAT:?FadeMonster@CBaseMonster@@UAEXXZ
	DD	FLAT:?GetGunPosition@CBaseMonster@@UAE?AVVector@@XZ
	DD	FLAT:?DeathSound@CBaseMonster@@UAEXXZ
	DD	FLAT:?AlertSound@CBaseMonster@@UAEXXZ
	DD	FLAT:?IdleSound@CBaseMonster@@UAEXXZ
	DD	FLAT:?PainSound@CBaseMonster@@UAEXXZ
	DD	FLAT:?StepSound@CBaseMonster@@UAEXXZ
	DD	FLAT:?StopFollowing@CBaseMonster@@UAEXH@Z
	DD	FLAT:?BounceSound@CGrenade@@UAEXXZ
CONST	ENDS
;	COMDAT ??_C@_0BJ@EIFNLFLK@?$CGCBaseEntity?3?3SUB_Remove?$AA@
CONST	SEGMENT
??_C@_0BJ@EIFNLFLK@?$CGCBaseEntity?3?3SUB_Remove?$AA@ DB '&CBaseEntity::S'
	DB	'UB_Remove', 00H				; `string'
CONST	ENDS
;	COMDAT ??_C@_0BB@EMJBJDBM@sprites?1null?4spr?$AA@
CONST	SEGMENT
??_C@_0BB@EMJBJDBM@sprites?1null?4spr?$AA@ DB 'sprites/null.spr', 00H ; `string'
CONST	ENDS
;	COMDAT ??_7CBaseMonster@@6B@
CONST	SEGMENT
??_7CBaseMonster@@6B@ DD FLAT:??_R4CBaseMonster@@6B@	; CBaseMonster::`vftable'
	DD	FLAT:?GetDataDescMap@CBaseMonster@@UAEPAUdatamap_s@@XZ
	DD	FLAT:?Spawn@CBaseEntity@@UAEXXZ
	DD	FLAT:?Precache@CBaseEntity@@UAEXXZ
	DD	FLAT:?KeyValue@CBaseMonster@@UAEXPAUKeyValueData_s@@@Z
	DD	FLAT:?Save@CBaseEntity@@UAEHAAVCSave@@@Z
	DD	FLAT:?Restore@CBaseMonster@@UAEHAAVCRestore@@@Z
	DD	FLAT:?ObjectCaps@CBaseEntity@@UAEHXZ
	DD	FLAT:?Activate@CBaseEntity@@UAEXXZ
	DD	FLAT:?OnChangeLevel@CBaseEntity@@UAEXXZ
	DD	FLAT:?OnTeleport@CBaseEntity@@UAEXXZ
	DD	FLAT:?PortalSleep@CBaseEntity@@UAEXM@Z
	DD	FLAT:?StartMessage@CBaseEntity@@UAEXPAVCBasePlayer@@@Z
	DD	FLAT:?GetPosition@CBaseEntity@@UAEMXZ
	DD	FLAT:?OnChangeParent@CBaseEntity@@UAEXXZ
	DD	FLAT:?OnClearParent@CBaseEntity@@UAEXXZ
	DD	FLAT:?OnRemove@CBaseEntity@@UAEXXZ
	DD	FLAT:?SetObjectCollisionBox@CBaseEntity@@UAEXXZ
	DD	FLAT:?Classify@CBaseMonster@@UAEHXZ
	DD	FLAT:?DeathNotice@CBaseEntity@@UAEXPAUentvars_s@@@Z
	DD	FLAT:?IsRigidBody@CBaseEntity@@UAEHXZ
	DD	FLAT:?SetNextThink@CBaseEntity@@UAEXM@Z
	DD	FLAT:?GetState@CBaseEntity@@UAE?AW4STATE@@PAV1@@Z
	DD	FLAT:?GetState@CBaseToggle@@UAE?AW4STATE@@XZ
	DD	FLAT:?TraceAttack@CBaseMonster@@UAEXPAUentvars_s@@MVVector@@PAUgametrace_s@@H@Z
	DD	FLAT:?TakeDamage@CBaseMonster@@UAEHPAUentvars_s@@0MH@Z
	DD	FLAT:?TakeHealth@CBaseMonster@@UAEHMH@Z
	DD	FLAT:?TakeArmor@CBaseEntity@@UAEHMH@Z
	DD	FLAT:?Killed@CBaseMonster@@UAEXPAUentvars_s@@H@Z
	DD	FLAT:?BloodColor@CBaseMonster@@UAEHXZ
	DD	FLAT:?TraceBleed@CBaseEntity@@UAEXMVVector@@PAUgametrace_s@@H@Z
	DD	FLAT:?IsTriggered@CBaseEntity@@UAEHPAV1@@Z
	DD	FLAT:?MyMonsterPointer@CBaseMonster@@UAEPAV1@XZ
	DD	FLAT:?MySquadMonsterPointer@CBaseEntity@@UAEPAVCSquadMonster@@XZ
	DD	FLAT:?GetToggleState@CBaseToggle@@UAEHXZ
	DD	FLAT:?AddPoints@CBaseEntity@@UAEXHH@Z
	DD	FLAT:?AddPointsToTeam@CBaseEntity@@UAEXHH@Z
	DD	FLAT:?AddPlayerItem@CBaseEntity@@UAEHPAVCBasePlayerItem@@@Z
	DD	FLAT:?RemovePlayerItem@CBaseEntity@@UAEHPAVCBasePlayerItem@@@Z
	DD	FLAT:?GiveAmmo@CBaseEntity@@UAEHHPADH@Z
	DD	FLAT:?GetDelay@CBaseToggle@@UAEMXZ
	DD	FLAT:?IsMoving@CBaseMonster@@UAEHXZ
	DD	FLAT:?OverrideReset@CBaseEntity@@UAEXXZ
	DD	FLAT:?TransferReset@CBaseEntity@@UAEXXZ
	DD	FLAT:?DamageDecal@CBaseMonster@@UAEHH@Z
	DD	FLAT:?SetToggleState@CBaseEntity@@UAEXH@Z
	DD	FLAT:?StartSneaking@CBaseEntity@@UAEXXZ
	DD	FLAT:?StopSneaking@CBaseEntity@@UAEXXZ
	DD	FLAT:?OnControls@CBaseEntity@@UAEHPAV1@@Z
	DD	FLAT:?IsSneaking@CBaseEntity@@UAEHXZ
	DD	FLAT:?IsAlive@CBaseMonster@@UAEHXZ
	DD	FLAT:?IsBSPModel@CBaseEntity@@UAEHXZ
	DD	FLAT:?IsCustomModel@CBaseEntity@@UAEHXZ
	DD	FLAT:?ReflectGauss@CBaseEntity@@UAEHXZ
	DD	FLAT:?HasTarget@CBaseEntity@@UAEHH@Z
	DD	FLAT:?IsInWorld@CBaseEntity@@UAEHH@Z
	DD	FLAT:?IsPlayer@CBaseEntity@@UAEHXZ
	DD	FLAT:?IsNetClient@CBaseEntity@@UAEHXZ
	DD	FLAT:?IsMonster@CBaseEntity@@UAEHXZ
	DD	FLAT:?IsPushable@CBaseEntity@@UAEHXZ
	DD	FLAT:?IsProjectile@CBaseEntity@@UAEHXZ
	DD	FLAT:?IsFuncScreen@CBaseEntity@@UAEHXZ
	DD	FLAT:?IsPortal@CBaseEntity@@UAEHXZ
	DD	FLAT:?IsTank@CBaseEntity@@UAEHXZ
	DD	FLAT:?IsMover@CBaseEntity@@UAEHXZ
	DD	FLAT:?IsBreakable@CBaseEntity@@UAEHXZ
	DD	FLAT:?TeamID@CBaseEntity@@UAEPBDXZ
	DD	FLAT:?AddSpawnFlags@CBaseEntity@@UAEXH@Z
	DD	FLAT:?HasSpawnFlags@CBaseEntity@@UBE_NH@Z
	DD	FLAT:?SetFadeDistance@CBaseEntity@@UAEXH@Z
	DD	FLAT:?SetFlag@CBaseEntity@@UAEXH@Z
	DD	FLAT:?HasFlag@CBaseEntity@@UBE_NH@Z
	DD	FLAT:?RemoveFlag@CBaseEntity@@UAEXH@Z
	DD	FLAT:?SetNullModel@CBaseEntity@@UAEXXZ
	DD	FLAT:?OnPickupObject@CBaseEntity@@UAEXXZ
	DD	FLAT:?OnDropObject@CBaseEntity@@UAEXXZ
	DD	FLAT:?GetNextTarget@CBaseEntity@@UAEPAV1@XZ
	DD	FLAT:?Think@CBaseEntity@@UAEXXZ
	DD	FLAT:?Use@CBaseEntity@@UAEXPAV1@0W4USE_TYPE@@M@Z
	DD	FLAT:?Touch@CBaseEntity@@UAEXPAV1@@Z
	DD	FLAT:?Blocked@CBaseEntity@@UAEXPAV1@@Z
	DD	FLAT:?MoveDone@CBaseToggle@@UAEXXZ
	DD	FLAT:?Respawn@CBaseEntity@@UAEPAV1@XZ
	DD	FLAT:?UpdateOwner@CBaseEntity@@UAEXXZ
	DD	FLAT:?FBecomeProne@CBaseMonster@@UAEHXZ
	DD	FLAT:?Center@CBaseEntity@@UAE?AVVector@@XZ
	DD	FLAT:?EyePosition@CBaseEntity@@UAE?AVVector@@XZ
	DD	FLAT:?EarPosition@CBaseEntity@@UAE?AVVector@@XZ
	DD	FLAT:?BodyTarget@CBaseMonster@@UAE?AVVector@@ABV2@@Z
	DD	FLAT:?IsPointSized@CBaseEntity@@UBEHXZ
	DD	FLAT:?Illumination@CBaseEntity@@UAEHXZ
	DD	FLAT:?FVisible@CBaseEntity@@UAEHABVVector@@@Z
	DD	FLAT:?FVisible@CBaseEntity@@UAEHPAV1@@Z
	DD	FLAT:?ShouldCollide@CBaseEntity@@UAEHPAV1@@Z
	DD	FLAT:?ClearEffects@CBaseMonster@@UAEXXZ
	DD	FLAT:?HandleAnimEvent@CBaseMonster@@UAEXPAUMonsterEvent_t@@@Z
	DD	FLAT:?Look@CBaseMonster@@UAEXH@Z
	DD	FLAT:?RunAI@CBaseMonster@@UAEXXZ
	DD	FLAT:?ShouldFadeOnDeath@CBaseMonster@@UAEHXZ
	DD	FLAT:?ChangeYaw@CBaseMonster@@UAEMH@Z
	DD	FLAT:?MonsterThink@CBaseMonster@@UAEXXZ
	DD	FLAT:?IRelationship@CBaseMonster@@UAEHPAVCBaseEntity@@@Z
	DD	FLAT:?MonsterInit@CBaseMonster@@UAEXXZ
	DD	FLAT:?MonsterInitDead@CBaseMonster@@UAEXXZ
	DD	FLAT:?BecomeDead@CBaseMonster@@UAEXXZ
	DD	FLAT:?StartMonster@CBaseMonster@@UAEXXZ
	DD	FLAT:?BestVisibleEnemy@CBaseMonster@@UAEPAVCBaseEntity@@XZ
	DD	FLAT:?FInViewCone@CBaseMonster@@UAEHPAVVector@@@Z
	DD	FLAT:?FInViewCone@CBaseMonster@@UAEHPAVCBaseEntity@@M@Z
	DD	FLAT:?CheckLocalMove@CBaseMonster@@UAEHABVVector@@0PAVCBaseEntity@@PAM@Z
	DD	FLAT:?Move@CBaseMonster@@UAEXM@Z
	DD	FLAT:?MoveExecute@CBaseMonster@@UAEXPAVCBaseEntity@@ABVVector@@M@Z
	DD	FLAT:?ShouldAdvanceRoute@CBaseMonster@@UAEHM@Z
	DD	FLAT:?GetStoppedActivity@CBaseMonster@@UAE?AW4Activity@@XZ
	DD	FLAT:?Stop@CBaseMonster@@UAEXXZ
	DD	FLAT:?CheckRangeAttack1@CBaseMonster@@UAEHMM@Z
	DD	FLAT:?CheckRangeAttack2@CBaseMonster@@UAEHMM@Z
	DD	FLAT:?CheckMeleeAttack1@CBaseMonster@@UAEHMM@Z
	DD	FLAT:?CheckMeleeAttack2@CBaseMonster@@UAEHMM@Z
	DD	FLAT:?ScheduleFromName@CBaseMonster@@UAEPAUSchedule_t@@PBD@Z
	DD	FLAT:?StartTask@CBaseMonster@@UAEXPAUTask_t@@@Z
	DD	FLAT:?RunTask@CBaseMonster@@UAEXPAUTask_t@@@Z
	DD	FLAT:?GetScheduleOfType@CBaseMonster@@UAEPAUSchedule_t@@H@Z
	DD	FLAT:?GetSchedule@CBaseMonster@@UAEPAUSchedule_t@@XZ
	DD	FLAT:?ScheduleChange@CBaseMonster@@UAEXXZ
	DD	FLAT:?CanPlaySequence@CBaseMonster@@UAEHHH@Z
	DD	FLAT:?CanPlaySentence@CBaseMonster@@UAEHH@Z
	DD	FLAT:?PlaySentence@CBaseMonster@@UAEXPBDMMMH@Z
	DD	FLAT:?PlayScriptedSentence@CBaseMonster@@UAEXPBDMMMHPAVCBaseEntity@@H@Z
	DD	FLAT:?SentenceStop@CBaseMonster@@UAEXXZ
	DD	FLAT:?GetIdealState@CBaseMonster@@UAE?AW4MONSTERSTATE@@XZ
	DD	FLAT:?SetActivity@CBaseMonster@@UAEXW4Activity@@@Z
	DD	FLAT:?ReportAIState@CBaseMonster@@UAEXXZ
	DD	FLAT:?CheckEnemy@CBaseMonster@@UAEHPAVCBaseEntity@@@Z
	DD	FLAT:?FTriangulate@CBaseMonster@@UAEHABVVector@@0MPAVCBaseEntity@@PAV2@@Z
	DD	FLAT:?SetYawSpeed@CBaseMonster@@UAEXXZ
	DD	FLAT:?BuildNearestRoute@CBaseMonster@@UAEHVVector@@0MM@Z
	DD	FLAT:?FindCover@CBaseMonster@@UAEHVVector@@0MM@Z
	DD	FLAT:?FindRunAway@CBaseMonster@@UAEHVVector@@MM@Z
	DD	FLAT:?FValidateCover@CBaseMonster@@UAEHABVVector@@@Z
	DD	FLAT:?CoverRadius@CBaseMonster@@UAEMXZ
	DD	FLAT:?FCanCheckAttacks@CBaseMonster@@UAEHXZ
	DD	FLAT:?CheckAmmo@CBaseMonster@@UAEXXZ
	DD	FLAT:?IgnoreConditions@CBaseMonster@@UAEHXZ
	DD	FLAT:?FValidateHintType@CBaseMonster@@UAEHF@Z
	DD	FLAT:?FCanActiveIdle@CBaseMonster@@UAEHXZ
	DD	FLAT:?ISoundMask@CBaseMonster@@UAEHXZ
	DD	FLAT:?PBestSound@CBaseMonster@@UAEPAVCSound@@XZ
	DD	FLAT:?PBestScent@CBaseMonster@@UAEPAVCSound@@XZ
	DD	FLAT:?HearingSensitivity@CBaseMonster@@UAEMXZ
	DD	FLAT:?BarnacleVictimBitten@CBaseMonster@@UAEXPAUentvars_s@@@Z
	DD	FLAT:?BarnacleVictimReleased@CBaseMonster@@UAEXXZ
	DD	FLAT:?PrescheduleThink@CBaseMonster@@UAEXXZ
	DD	FLAT:?GetDeathActivity@CBaseMonster@@UAE?AW4Activity@@XZ
	DD	FLAT:?GibMonster@CBaseMonster@@UAEXXZ
	DD	FLAT:?HasHumanGibs@CBaseMonster@@UAEHXZ
	DD	FLAT:?HasAlienGibs@CBaseMonster@@UAEHXZ
	DD	FLAT:?FadeMonster@CBaseMonster@@UAEXXZ
	DD	FLAT:?GetGunPosition@CBaseMonster@@UAE?AVVector@@XZ
	DD	FLAT:?DeathSound@CBaseMonster@@UAEXXZ
	DD	FLAT:?AlertSound@CBaseMonster@@UAEXXZ
	DD	FLAT:?IdleSound@CBaseMonster@@UAEXXZ
	DD	FLAT:?PainSound@CBaseMonster@@UAEXXZ
	DD	FLAT:?StepSound@CBaseMonster@@UAEXXZ
	DD	FLAT:?StopFollowing@CBaseMonster@@UAEXH@Z
CONST	ENDS
;	COMDAT ??_7CBaseToggle@@6B@
CONST	SEGMENT
??_7CBaseToggle@@6B@ DD FLAT:??_R4CBaseToggle@@6B@	; CBaseToggle::`vftable'
	DD	FLAT:?GetDataDescMap@CBaseToggle@@UAEPAUdatamap_s@@XZ
	DD	FLAT:?Spawn@CBaseEntity@@UAEXXZ
	DD	FLAT:?Precache@CBaseEntity@@UAEXXZ
	DD	FLAT:?KeyValue@CBaseToggle@@UAEXPAUKeyValueData_s@@@Z
	DD	FLAT:?Save@CBaseEntity@@UAEHAAVCSave@@@Z
	DD	FLAT:?Restore@CBaseToggle@@UAEHAAVCRestore@@@Z
	DD	FLAT:?ObjectCaps@CBaseEntity@@UAEHXZ
	DD	FLAT:?Activate@CBaseEntity@@UAEXXZ
	DD	FLAT:?OnChangeLevel@CBaseEntity@@UAEXXZ
	DD	FLAT:?OnTeleport@CBaseEntity@@UAEXXZ
	DD	FLAT:?PortalSleep@CBaseEntity@@UAEXM@Z
	DD	FLAT:?StartMessage@CBaseEntity@@UAEXPAVCBasePlayer@@@Z
	DD	FLAT:?GetPosition@CBaseEntity@@UAEMXZ
	DD	FLAT:?OnChangeParent@CBaseEntity@@UAEXXZ
	DD	FLAT:?OnClearParent@CBaseEntity@@UAEXXZ
	DD	FLAT:?OnRemove@CBaseEntity@@UAEXXZ
	DD	FLAT:?SetObjectCollisionBox@CBaseEntity@@UAEXXZ
	DD	FLAT:?Classify@CBaseEntity@@UAEHXZ
	DD	FLAT:?DeathNotice@CBaseEntity@@UAEXPAUentvars_s@@@Z
	DD	FLAT:?IsRigidBody@CBaseEntity@@UAEHXZ
	DD	FLAT:?SetNextThink@CBaseEntity@@UAEXM@Z
	DD	FLAT:?GetState@CBaseEntity@@UAE?AW4STATE@@PAV1@@Z
	DD	FLAT:?GetState@CBaseToggle@@UAE?AW4STATE@@XZ
	DD	FLAT:?TraceAttack@CBaseEntity@@UAEXPAUentvars_s@@MVVector@@PAUgametrace_s@@H@Z
	DD	FLAT:?TakeDamage@CBaseEntity@@UAEHPAUentvars_s@@0MH@Z
	DD	FLAT:?TakeHealth@CBaseEntity@@UAEHMH@Z
	DD	FLAT:?TakeArmor@CBaseEntity@@UAEHMH@Z
	DD	FLAT:?Killed@CBaseEntity@@UAEXPAUentvars_s@@H@Z
	DD	FLAT:?BloodColor@CBaseEntity@@UAEHXZ
	DD	FLAT:?TraceBleed@CBaseEntity@@UAEXMVVector@@PAUgametrace_s@@H@Z
	DD	FLAT:?IsTriggered@CBaseEntity@@UAEHPAV1@@Z
	DD	FLAT:?MyMonsterPointer@CBaseEntity@@UAEPAVCBaseMonster@@XZ
	DD	FLAT:?MySquadMonsterPointer@CBaseEntity@@UAEPAVCSquadMonster@@XZ
	DD	FLAT:?GetToggleState@CBaseToggle@@UAEHXZ
	DD	FLAT:?AddPoints@CBaseEntity@@UAEXHH@Z
	DD	FLAT:?AddPointsToTeam@CBaseEntity@@UAEXHH@Z
	DD	FLAT:?AddPlayerItem@CBaseEntity@@UAEHPAVCBasePlayerItem@@@Z
	DD	FLAT:?RemovePlayerItem@CBaseEntity@@UAEHPAVCBasePlayerItem@@@Z
	DD	FLAT:?GiveAmmo@CBaseEntity@@UAEHHPADH@Z
	DD	FLAT:?GetDelay@CBaseToggle@@UAEMXZ
	DD	FLAT:?IsMoving@CBaseEntity@@UAEHXZ
	DD	FLAT:?OverrideReset@CBaseEntity@@UAEXXZ
	DD	FLAT:?TransferReset@CBaseEntity@@UAEXXZ
	DD	FLAT:?DamageDecal@CBaseEntity@@UAEHH@Z
	DD	FLAT:?SetToggleState@CBaseEntity@@UAEXH@Z
	DD	FLAT:?StartSneaking@CBaseEntity@@UAEXXZ
	DD	FLAT:?StopSneaking@CBaseEntity@@UAEXXZ
	DD	FLAT:?OnControls@CBaseEntity@@UAEHPAV1@@Z
	DD	FLAT:?IsSneaking@CBaseEntity@@UAEHXZ
	DD	FLAT:?IsAlive@CBaseEntity@@UAEHXZ
	DD	FLAT:?IsBSPModel@CBaseEntity@@UAEHXZ
	DD	FLAT:?IsCustomModel@CBaseEntity@@UAEHXZ
	DD	FLAT:?ReflectGauss@CBaseEntity@@UAEHXZ
	DD	FLAT:?HasTarget@CBaseEntity@@UAEHH@Z
	DD	FLAT:?IsInWorld@CBaseEntity@@UAEHH@Z
	DD	FLAT:?IsPlayer@CBaseEntity@@UAEHXZ
	DD	FLAT:?IsNetClient@CBaseEntity@@UAEHXZ
	DD	FLAT:?IsMonster@CBaseEntity@@UAEHXZ
	DD	FLAT:?IsPushable@CBaseEntity@@UAEHXZ
	DD	FLAT:?IsProjectile@CBaseEntity@@UAEHXZ
	DD	FLAT:?IsFuncScreen@CBaseEntity@@UAEHXZ
	DD	FLAT:?IsPortal@CBaseEntity@@UAEHXZ
	DD	FLAT:?IsTank@CBaseEntity@@UAEHXZ
	DD	FLAT:?IsMover@CBaseEntity@@UAEHXZ
	DD	FLAT:?IsBreakable@CBaseEntity@@UAEHXZ
	DD	FLAT:?TeamID@CBaseEntity@@UAEPBDXZ
	DD	FLAT:?AddSpawnFlags@CBaseEntity@@UAEXH@Z
	DD	FLAT:?HasSpawnFlags@CBaseEntity@@UBE_NH@Z
	DD	FLAT:?SetFadeDistance@CBaseEntity@@UAEXH@Z
	DD	FLAT:?SetFlag@CBaseEntity@@UAEXH@Z
	DD	FLAT:?HasFlag@CBaseEntity@@UBE_NH@Z
	DD	FLAT:?RemoveFlag@CBaseEntity@@UAEXH@Z
	DD	FLAT:?SetNullModel@CBaseEntity@@UAEXXZ
	DD	FLAT:?OnPickupObject@CBaseEntity@@UAEXXZ
	DD	FLAT:?OnDropObject@CBaseEntity@@UAEXXZ
	DD	FLAT:?GetNextTarget@CBaseEntity@@UAEPAV1@XZ
	DD	FLAT:?Think@CBaseEntity@@UAEXXZ
	DD	FLAT:?Use@CBaseEntity@@UAEXPAV1@0W4USE_TYPE@@M@Z
	DD	FLAT:?Touch@CBaseEntity@@UAEXPAV1@@Z
	DD	FLAT:?Blocked@CBaseEntity@@UAEXPAV1@@Z
	DD	FLAT:?MoveDone@CBaseToggle@@UAEXXZ
	DD	FLAT:?Respawn@CBaseEntity@@UAEPAV1@XZ
	DD	FLAT:?UpdateOwner@CBaseEntity@@UAEXXZ
	DD	FLAT:?FBecomeProne@CBaseEntity@@UAEHXZ
	DD	FLAT:?Center@CBaseEntity@@UAE?AVVector@@XZ
	DD	FLAT:?EyePosition@CBaseEntity@@UAE?AVVector@@XZ
	DD	FLAT:?EarPosition@CBaseEntity@@UAE?AVVector@@XZ
	DD	FLAT:?BodyTarget@CBaseEntity@@UAE?AVVector@@ABV2@@Z
	DD	FLAT:?IsPointSized@CBaseEntity@@UBEHXZ
	DD	FLAT:?Illumination@CBaseEntity@@UAEHXZ
	DD	FLAT:?FVisible@CBaseEntity@@UAEHABVVector@@@Z
	DD	FLAT:?FVisible@CBaseEntity@@UAEHPAV1@@Z
	DD	FLAT:?ShouldCollide@CBaseEntity@@UAEHPAV1@@Z
	DD	FLAT:?ClearEffects@CBaseEntity@@UAEXXZ
	DD	FLAT:?HandleAnimEvent@CBaseAnimating@@UAEXPAUMonsterEvent_t@@@Z
CONST	ENDS
;	COMDAT ??_7CBaseAnimating@@6B@
CONST	SEGMENT
??_7CBaseAnimating@@6B@ DD FLAT:??_R4CBaseAnimating@@6B@ ; CBaseAnimating::`vftable'
	DD	FLAT:?GetDataDescMap@CBaseAnimating@@UAEPAUdatamap_s@@XZ
	DD	FLAT:?Spawn@CBaseEntity@@UAEXXZ
	DD	FLAT:?Precache@CBaseEntity@@UAEXXZ
	DD	FLAT:?KeyValue@CBaseDelay@@UAEXPAUKeyValueData_s@@@Z
	DD	FLAT:?Save@CBaseEntity@@UAEHAAVCSave@@@Z
	DD	FLAT:?Restore@CBaseEntity@@UAEHAAVCRestore@@@Z
	DD	FLAT:?ObjectCaps@CBaseEntity@@UAEHXZ
	DD	FLAT:?Activate@CBaseEntity@@UAEXXZ
	DD	FLAT:?OnChangeLevel@CBaseEntity@@UAEXXZ
	DD	FLAT:?OnTeleport@CBaseEntity@@UAEXXZ
	DD	FLAT:?PortalSleep@CBaseEntity@@UAEXM@Z
	DD	FLAT:?StartMessage@CBaseEntity@@UAEXPAVCBasePlayer@@@Z
	DD	FLAT:?GetPosition@CBaseEntity@@UAEMXZ
	DD	FLAT:?OnChangeParent@CBaseEntity@@UAEXXZ
	DD	FLAT:?OnClearParent@CBaseEntity@@UAEXXZ
	DD	FLAT:?OnRemove@CBaseEntity@@UAEXXZ
	DD	FLAT:?SetObjectCollisionBox@CBaseEntity@@UAEXXZ
	DD	FLAT:?Classify@CBaseEntity@@UAEHXZ
	DD	FLAT:?DeathNotice@CBaseEntity@@UAEXPAUentvars_s@@@Z
	DD	FLAT:?IsRigidBody@CBaseEntity@@UAEHXZ
	DD	FLAT:?SetNextThink@CBaseEntity@@UAEXM@Z
	DD	FLAT:?GetState@CBaseEntity@@UAE?AW4STATE@@PAV1@@Z
	DD	FLAT:?GetState@CBaseDelay@@UAE?AW4STATE@@XZ
	DD	FLAT:?TraceAttack@CBaseEntity@@UAEXPAUentvars_s@@MVVector@@PAUgametrace_s@@H@Z
	DD	FLAT:?TakeDamage@CBaseEntity@@UAEHPAUentvars_s@@0MH@Z
	DD	FLAT:?TakeHealth@CBaseEntity@@UAEHMH@Z
	DD	FLAT:?TakeArmor@CBaseEntity@@UAEHMH@Z
	DD	FLAT:?Killed@CBaseEntity@@UAEXPAUentvars_s@@H@Z
	DD	FLAT:?BloodColor@CBaseEntity@@UAEHXZ
	DD	FLAT:?TraceBleed@CBaseEntity@@UAEXMVVector@@PAUgametrace_s@@H@Z
	DD	FLAT:?IsTriggered@CBaseEntity@@UAEHPAV1@@Z
	DD	FLAT:?MyMonsterPointer@CBaseEntity@@UAEPAVCBaseMonster@@XZ
	DD	FLAT:?MySquadMonsterPointer@CBaseEntity@@UAEPAVCSquadMonster@@XZ
	DD	FLAT:?GetToggleState@CBaseEntity@@UAEHXZ
	DD	FLAT:?AddPoints@CBaseEntity@@UAEXHH@Z
	DD	FLAT:?AddPointsToTeam@CBaseEntity@@UAEXHH@Z
	DD	FLAT:?AddPlayerItem@CBaseEntity@@UAEHPAVCBasePlayerItem@@@Z
	DD	FLAT:?RemovePlayerItem@CBaseEntity@@UAEHPAVCBasePlayerItem@@@Z
	DD	FLAT:?GiveAmmo@CBaseEntity@@UAEHHPADH@Z
	DD	FLAT:?GetDelay@CBaseEntity@@UAEMXZ
	DD	FLAT:?IsMoving@CBaseEntity@@UAEHXZ
	DD	FLAT:?OverrideReset@CBaseEntity@@UAEXXZ
	DD	FLAT:?TransferReset@CBaseEntity@@UAEXXZ
	DD	FLAT:?DamageDecal@CBaseEntity@@UAEHH@Z
	DD	FLAT:?SetToggleState@CBaseEntity@@UAEXH@Z
	DD	FLAT:?StartSneaking@CBaseEntity@@UAEXXZ
	DD	FLAT:?StopSneaking@CBaseEntity@@UAEXXZ
	DD	FLAT:?OnControls@CBaseEntity@@UAEHPAV1@@Z
	DD	FLAT:?IsSneaking@CBaseEntity@@UAEHXZ
	DD	FLAT:?IsAlive@CBaseEntity@@UAEHXZ
	DD	FLAT:?IsBSPModel@CBaseEntity@@UAEHXZ
	DD	FLAT:?IsCustomModel@CBaseEntity@@UAEHXZ
	DD	FLAT:?ReflectGauss@CBaseEntity@@UAEHXZ
	DD	FLAT:?HasTarget@CBaseEntity@@UAEHH@Z
	DD	FLAT:?IsInWorld@CBaseEntity@@UAEHH@Z
	DD	FLAT:?IsPlayer@CBaseEntity@@UAEHXZ
	DD	FLAT:?IsNetClient@CBaseEntity@@UAEHXZ
	DD	FLAT:?IsMonster@CBaseEntity@@UAEHXZ
	DD	FLAT:?IsPushable@CBaseEntity@@UAEHXZ
	DD	FLAT:?IsProjectile@CBaseEntity@@UAEHXZ
	DD	FLAT:?IsFuncScreen@CBaseEntity@@UAEHXZ
	DD	FLAT:?IsPortal@CBaseEntity@@UAEHXZ
	DD	FLAT:?IsTank@CBaseEntity@@UAEHXZ
	DD	FLAT:?IsMover@CBaseEntity@@UAEHXZ
	DD	FLAT:?IsBreakable@CBaseEntity@@UAEHXZ
	DD	FLAT:?TeamID@CBaseEntity@@UAEPBDXZ
	DD	FLAT:?AddSpawnFlags@CBaseEntity@@UAEXH@Z
	DD	FLAT:?HasSpawnFlags@CBaseEntity@@UBE_NH@Z
	DD	FLAT:?SetFadeDistance@CBaseEntity@@UAEXH@Z
	DD	FLAT:?SetFlag@CBaseEntity@@UAEXH@Z
	DD	FLAT:?HasFlag@CBaseEntity@@UBE_NH@Z
	DD	FLAT:?RemoveFlag@CBaseEntity@@UAEXH@Z
	DD	FLAT:?SetNullModel@CBaseEntity@@UAEXXZ
	DD	FLAT:?OnPickupObject@CBaseEntity@@UAEXXZ
	DD	FLAT:?OnDropObject@CBaseEntity@@UAEXXZ
	DD	FLAT:?GetNextTarget@CBaseEntity@@UAEPAV1@XZ
	DD	FLAT:?Think@CBaseEntity@@UAEXXZ
	DD	FLAT:?Use@CBaseEntity@@UAEXPAV1@0W4USE_TYPE@@M@Z
	DD	FLAT:?Touch@CBaseEntity@@UAEXPAV1@@Z
	DD	FLAT:?Blocked@CBaseEntity@@UAEXPAV1@@Z
	DD	FLAT:?MoveDone@CBaseEntity@@UAEXXZ
	DD	FLAT:?Respawn@CBaseEntity@@UAEPAV1@XZ
	DD	FLAT:?UpdateOwner@CBaseEntity@@UAEXXZ
	DD	FLAT:?FBecomeProne@CBaseEntity@@UAEHXZ
	DD	FLAT:?Center@CBaseEntity@@UAE?AVVector@@XZ
	DD	FLAT:?EyePosition@CBaseEntity@@UAE?AVVector@@XZ
	DD	FLAT:?EarPosition@CBaseEntity@@UAE?AVVector@@XZ
	DD	FLAT:?BodyTarget@CBaseEntity@@UAE?AVVector@@ABV2@@Z
	DD	FLAT:?IsPointSized@CBaseEntity@@UBEHXZ
	DD	FLAT:?Illumination@CBaseEntity@@UAEHXZ
	DD	FLAT:?FVisible@CBaseEntity@@UAEHABVVector@@@Z
	DD	FLAT:?FVisible@CBaseEntity@@UAEHPAV1@@Z
	DD	FLAT:?ShouldCollide@CBaseEntity@@UAEHPAV1@@Z
	DD	FLAT:?ClearEffects@CBaseEntity@@UAEXXZ
	DD	FLAT:?HandleAnimEvent@CBaseAnimating@@UAEXPAUMonsterEvent_t@@@Z
CONST	ENDS
;	COMDAT ??_7CBaseDelay@@6B@
CONST	SEGMENT
??_7CBaseDelay@@6B@ DD FLAT:??_R4CBaseDelay@@6B@	; CBaseDelay::`vftable'
	DD	FLAT:?GetDataDescMap@CBaseDelay@@UAEPAUdatamap_s@@XZ
	DD	FLAT:?Spawn@CBaseEntity@@UAEXXZ
	DD	FLAT:?Precache@CBaseEntity@@UAEXXZ
	DD	FLAT:?KeyValue@CBaseDelay@@UAEXPAUKeyValueData_s@@@Z
	DD	FLAT:?Save@CBaseEntity@@UAEHAAVCSave@@@Z
	DD	FLAT:?Restore@CBaseEntity@@UAEHAAVCRestore@@@Z
	DD	FLAT:?ObjectCaps@CBaseEntity@@UAEHXZ
	DD	FLAT:?Activate@CBaseEntity@@UAEXXZ
	DD	FLAT:?OnChangeLevel@CBaseEntity@@UAEXXZ
	DD	FLAT:?OnTeleport@CBaseEntity@@UAEXXZ
	DD	FLAT:?PortalSleep@CBaseEntity@@UAEXM@Z
	DD	FLAT:?StartMessage@CBaseEntity@@UAEXPAVCBasePlayer@@@Z
	DD	FLAT:?GetPosition@CBaseEntity@@UAEMXZ
	DD	FLAT:?OnChangeParent@CBaseEntity@@UAEXXZ
	DD	FLAT:?OnClearParent@CBaseEntity@@UAEXXZ
	DD	FLAT:?OnRemove@CBaseEntity@@UAEXXZ
	DD	FLAT:?SetObjectCollisionBox@CBaseEntity@@UAEXXZ
	DD	FLAT:?Classify@CBaseEntity@@UAEHXZ
	DD	FLAT:?DeathNotice@CBaseEntity@@UAEXPAUentvars_s@@@Z
	DD	FLAT:?IsRigidBody@CBaseEntity@@UAEHXZ
	DD	FLAT:?SetNextThink@CBaseEntity@@UAEXM@Z
	DD	FLAT:?GetState@CBaseEntity@@UAE?AW4STATE@@PAV1@@Z
	DD	FLAT:?GetState@CBaseDelay@@UAE?AW4STATE@@XZ
	DD	FLAT:?TraceAttack@CBaseEntity@@UAEXPAUentvars_s@@MVVector@@PAUgametrace_s@@H@Z
	DD	FLAT:?TakeDamage@CBaseEntity@@UAEHPAUentvars_s@@0MH@Z
	DD	FLAT:?TakeHealth@CBaseEntity@@UAEHMH@Z
	DD	FLAT:?TakeArmor@CBaseEntity@@UAEHMH@Z
	DD	FLAT:?Killed@CBaseEntity@@UAEXPAUentvars_s@@H@Z
	DD	FLAT:?BloodColor@CBaseEntity@@UAEHXZ
	DD	FLAT:?TraceBleed@CBaseEntity@@UAEXMVVector@@PAUgametrace_s@@H@Z
	DD	FLAT:?IsTriggered@CBaseEntity@@UAEHPAV1@@Z
	DD	FLAT:?MyMonsterPointer@CBaseEntity@@UAEPAVCBaseMonster@@XZ
	DD	FLAT:?MySquadMonsterPointer@CBaseEntity@@UAEPAVCSquadMonster@@XZ
	DD	FLAT:?GetToggleState@CBaseEntity@@UAEHXZ
	DD	FLAT:?AddPoints@CBaseEntity@@UAEXHH@Z
	DD	FLAT:?AddPointsToTeam@CBaseEntity@@UAEXHH@Z
	DD	FLAT:?AddPlayerItem@CBaseEntity@@UAEHPAVCBasePlayerItem@@@Z
	DD	FLAT:?RemovePlayerItem@CBaseEntity@@UAEHPAVCBasePlayerItem@@@Z
	DD	FLAT:?GiveAmmo@CBaseEntity@@UAEHHPADH@Z
	DD	FLAT:?GetDelay@CBaseEntity@@UAEMXZ
	DD	FLAT:?IsMoving@CBaseEntity@@UAEHXZ
	DD	FLAT:?OverrideReset@CBaseEntity@@UAEXXZ
	DD	FLAT:?TransferReset@CBaseEntity@@UAEXXZ
	DD	FLAT:?DamageDecal@CBaseEntity@@UAEHH@Z
	DD	FLAT:?SetToggleState@CBaseEntity@@UAEXH@Z
	DD	FLAT:?StartSneaking@CBaseEntity@@UAEXXZ
	DD	FLAT:?StopSneaking@CBaseEntity@@UAEXXZ
	DD	FLAT:?OnControls@CBaseEntity@@UAEHPAV1@@Z
	DD	FLAT:?IsSneaking@CBaseEntity@@UAEHXZ
	DD	FLAT:?IsAlive@CBaseEntity@@UAEHXZ
	DD	FLAT:?IsBSPModel@CBaseEntity@@UAEHXZ
	DD	FLAT:?IsCustomModel@CBaseEntity@@UAEHXZ
	DD	FLAT:?ReflectGauss@CBaseEntity@@UAEHXZ
	DD	FLAT:?HasTarget@CBaseEntity@@UAEHH@Z
	DD	FLAT:?IsInWorld@CBaseEntity@@UAEHH@Z
	DD	FLAT:?IsPlayer@CBaseEntity@@UAEHXZ
	DD	FLAT:?IsNetClient@CBaseEntity@@UAEHXZ
	DD	FLAT:?IsMonster@CBaseEntity@@UAEHXZ
	DD	FLAT:?IsPushable@CBaseEntity@@UAEHXZ
	DD	FLAT:?IsProjectile@CBaseEntity@@UAEHXZ
	DD	FLAT:?IsFuncScreen@CBaseEntity@@UAEHXZ
	DD	FLAT:?IsPortal@CBaseEntity@@UAEHXZ
	DD	FLAT:?IsTank@CBaseEntity@@UAEHXZ
	DD	FLAT:?IsMover@CBaseEntity@@UAEHXZ
	DD	FLAT:?IsBreakable@CBaseEntity@@UAEHXZ
	DD	FLAT:?TeamID@CBaseEntity@@UAEPBDXZ
	DD	FLAT:?AddSpawnFlags@CBaseEntity@@UAEXH@Z
	DD	FLAT:?HasSpawnFlags@CBaseEntity@@UBE_NH@Z
	DD	FLAT:?SetFadeDistance@CBaseEntity@@UAEXH@Z
	DD	FLAT:?SetFlag@CBaseEntity@@UAEXH@Z
	DD	FLAT:?HasFlag@CBaseEntity@@UBE_NH@Z
	DD	FLAT:?RemoveFlag@CBaseEntity@@UAEXH@Z
	DD	FLAT:?SetNullModel@CBaseEntity@@UAEXXZ
	DD	FLAT:?OnPickupObject@CBaseEntity@@UAEXXZ
	DD	FLAT:?OnDropObject@CBaseEntity@@UAEXXZ
	DD	FLAT:?GetNextTarget@CBaseEntity@@UAEPAV1@XZ
	DD	FLAT:?Think@CBaseEntity@@UAEXXZ
	DD	FLAT:?Use@CBaseEntity@@UAEXPAV1@0W4USE_TYPE@@M@Z
	DD	FLAT:?Touch@CBaseEntity@@UAEXPAV1@@Z
	DD	FLAT:?Blocked@CBaseEntity@@UAEXPAV1@@Z
	DD	FLAT:?MoveDone@CBaseEntity@@UAEXXZ
	DD	FLAT:?Respawn@CBaseEntity@@UAEPAV1@XZ
	DD	FLAT:?UpdateOwner@CBaseEntity@@UAEXXZ
	DD	FLAT:?FBecomeProne@CBaseEntity@@UAEHXZ
	DD	FLAT:?Center@CBaseEntity@@UAE?AVVector@@XZ
	DD	FLAT:?EyePosition@CBaseEntity@@UAE?AVVector@@XZ
	DD	FLAT:?EarPosition@CBaseEntity@@UAE?AVVector@@XZ
	DD	FLAT:?BodyTarget@CBaseEntity@@UAE?AVVector@@ABV2@@Z
	DD	FLAT:?IsPointSized@CBaseEntity@@UBEHXZ
	DD	FLAT:?Illumination@CBaseEntity@@UAEHXZ
	DD	FLAT:?FVisible@CBaseEntity@@UAEHABVVector@@@Z
	DD	FLAT:?FVisible@CBaseEntity@@UAEHPAV1@@Z
	DD	FLAT:?ShouldCollide@CBaseEntity@@UAEHPAV1@@Z
	DD	FLAT:?ClearEffects@CBaseEntity@@UAEXXZ
CONST	ENDS
;	COMDAT ??_C@_0CH@HELFJPDL@FUNCTION?5NOT?5IN?5TABLE?$CB?3?5?$CFs?3?$CFs?5?$CI?$CF@
CONST	SEGMENT
??_C@_0CH@HELFJPDL@FUNCTION?5NOT?5IN?5TABLE?$CB?3?5?$CFs?3?$CFs?5?$CI?$CF@ DB 'F'
	DB	'UNCTION NOT IN TABLE!: %s:%s (%08lx)', 0aH, 00H ; `string'
CONST	ENDS
;	COMDAT ??_C@_0L@JIJDCONP@customname?$AA@
CONST	SEGMENT
??_C@_0L@JIJDCONP@customname?$AA@ DB 'customname', 00H	; `string'
CONST	ENDS
;	COMDAT ??_C@_0N@JILDNHAP@vlight_cache?$AA@
CONST	SEGMENT
??_C@_0N@JILDNHAP@vlight_cache?$AA@ DB 'vlight_cache', 00H ; `string'
CONST	ENDS
;	COMDAT ??_C@_0L@IKCANML@reflection?$AA@
CONST	SEGMENT
??_C@_0L@IKCANML@reflection?$AA@ DB 'reflection', 00H	; `string'
CONST	ENDS
;	COMDAT ??_C@_05IAKJCFIM@style?$AA@
CONST	SEGMENT
??_C@_05IAKJCFIM@style?$AA@ DB 'style', 00H		; `string'
CONST	ENDS
;	COMDAT ??_C@_0M@EAELDHJO@parentflags?$AA@
CONST	SEGMENT
??_C@_0M@EAELDHJO@parentflags?$AA@ DB 'parentflags', 00H ; `string'
CONST	ENDS
;	COMDAT ??_C@_08JJJAOBDI@movewith?$AA@
CONST	SEGMENT
??_C@_08JJJAOBDI@movewith?$AA@ DB 'movewith', 00H	; `string'
CONST	ENDS
;	COMDAT ??_C@_06MLKDMCBD@parent?$AA@
CONST	SEGMENT
??_C@_06MLKDMCBD@parent?$AA@ DB 'parent', 00H		; `string'
CONST	ENDS
;	COMDAT ??_7CBaseEntity@@6B@
CONST	SEGMENT
??_7CBaseEntity@@6B@ DD FLAT:??_R4CBaseEntity@@6B@	; CBaseEntity::`vftable'
	DD	FLAT:?GetDataDescMap@CBaseEntity@@UAEPAUdatamap_s@@XZ
	DD	FLAT:?Spawn@CBaseEntity@@UAEXXZ
	DD	FLAT:?Precache@CBaseEntity@@UAEXXZ
	DD	FLAT:?KeyValue@CBaseEntity@@UAEXPAUKeyValueData_s@@@Z
	DD	FLAT:?Save@CBaseEntity@@UAEHAAVCSave@@@Z
	DD	FLAT:?Restore@CBaseEntity@@UAEHAAVCRestore@@@Z
	DD	FLAT:?ObjectCaps@CBaseEntity@@UAEHXZ
	DD	FLAT:?Activate@CBaseEntity@@UAEXXZ
	DD	FLAT:?OnChangeLevel@CBaseEntity@@UAEXXZ
	DD	FLAT:?OnTeleport@CBaseEntity@@UAEXXZ
	DD	FLAT:?PortalSleep@CBaseEntity@@UAEXM@Z
	DD	FLAT:?StartMessage@CBaseEntity@@UAEXPAVCBasePlayer@@@Z
	DD	FLAT:?GetPosition@CBaseEntity@@UAEMXZ
	DD	FLAT:?OnChangeParent@CBaseEntity@@UAEXXZ
	DD	FLAT:?OnClearParent@CBaseEntity@@UAEXXZ
	DD	FLAT:?OnRemove@CBaseEntity@@UAEXXZ
	DD	FLAT:?SetObjectCollisionBox@CBaseEntity@@UAEXXZ
	DD	FLAT:?Classify@CBaseEntity@@UAEHXZ
	DD	FLAT:?DeathNotice@CBaseEntity@@UAEXPAUentvars_s@@@Z
	DD	FLAT:?IsRigidBody@CBaseEntity@@UAEHXZ
	DD	FLAT:?SetNextThink@CBaseEntity@@UAEXM@Z
	DD	FLAT:?GetState@CBaseEntity@@UAE?AW4STATE@@PAV1@@Z
	DD	FLAT:?GetState@CBaseEntity@@UAE?AW4STATE@@XZ
	DD	FLAT:?TraceAttack@CBaseEntity@@UAEXPAUentvars_s@@MVVector@@PAUgametrace_s@@H@Z
	DD	FLAT:?TakeDamage@CBaseEntity@@UAEHPAUentvars_s@@0MH@Z
	DD	FLAT:?TakeHealth@CBaseEntity@@UAEHMH@Z
	DD	FLAT:?TakeArmor@CBaseEntity@@UAEHMH@Z
	DD	FLAT:?Killed@CBaseEntity@@UAEXPAUentvars_s@@H@Z
	DD	FLAT:?BloodColor@CBaseEntity@@UAEHXZ
	DD	FLAT:?TraceBleed@CBaseEntity@@UAEXMVVector@@PAUgametrace_s@@H@Z
	DD	FLAT:?IsTriggered@CBaseEntity@@UAEHPAV1@@Z
	DD	FLAT:?MyMonsterPointer@CBaseEntity@@UAEPAVCBaseMonster@@XZ
	DD	FLAT:?MySquadMonsterPointer@CBaseEntity@@UAEPAVCSquadMonster@@XZ
	DD	FLAT:?GetToggleState@CBaseEntity@@UAEHXZ
	DD	FLAT:?AddPoints@CBaseEntity@@UAEXHH@Z
	DD	FLAT:?AddPointsToTeam@CBaseEntity@@UAEXHH@Z
	DD	FLAT:?AddPlayerItem@CBaseEntity@@UAEHPAVCBasePlayerItem@@@Z
	DD	FLAT:?RemovePlayerItem@CBaseEntity@@UAEHPAVCBasePlayerItem@@@Z
	DD	FLAT:?GiveAmmo@CBaseEntity@@UAEHHPADH@Z
	DD	FLAT:?GetDelay@CBaseEntity@@UAEMXZ
	DD	FLAT:?IsMoving@CBaseEntity@@UAEHXZ
	DD	FLAT:?OverrideReset@CBaseEntity@@UAEXXZ
	DD	FLAT:?TransferReset@CBaseEntity@@UAEXXZ
	DD	FLAT:?DamageDecal@CBaseEntity@@UAEHH@Z
	DD	FLAT:?SetToggleState@CBaseEntity@@UAEXH@Z
	DD	FLAT:?StartSneaking@CBaseEntity@@UAEXXZ
	DD	FLAT:?StopSneaking@CBaseEntity@@UAEXXZ
	DD	FLAT:?OnControls@CBaseEntity@@UAEHPAV1@@Z
	DD	FLAT:?IsSneaking@CBaseEntity@@UAEHXZ
	DD	FLAT:?IsAlive@CBaseEntity@@UAEHXZ
	DD	FLAT:?IsBSPModel@CBaseEntity@@UAEHXZ
	DD	FLAT:?IsCustomModel@CBaseEntity@@UAEHXZ
	DD	FLAT:?ReflectGauss@CBaseEntity@@UAEHXZ
	DD	FLAT:?HasTarget@CBaseEntity@@UAEHH@Z
	DD	FLAT:?IsInWorld@CBaseEntity@@UAEHH@Z
	DD	FLAT:?IsPlayer@CBaseEntity@@UAEHXZ
	DD	FLAT:?IsNetClient@CBaseEntity@@UAEHXZ
	DD	FLAT:?IsMonster@CBaseEntity@@UAEHXZ
	DD	FLAT:?IsPushable@CBaseEntity@@UAEHXZ
	DD	FLAT:?IsProjectile@CBaseEntity@@UAEHXZ
	DD	FLAT:?IsFuncScreen@CBaseEntity@@UAEHXZ
	DD	FLAT:?IsPortal@CBaseEntity@@UAEHXZ
	DD	FLAT:?IsTank@CBaseEntity@@UAEHXZ
	DD	FLAT:?IsMover@CBaseEntity@@UAEHXZ
	DD	FLAT:?IsBreakable@CBaseEntity@@UAEHXZ
	DD	FLAT:?TeamID@CBaseEntity@@UAEPBDXZ
	DD	FLAT:?AddSpawnFlags@CBaseEntity@@UAEXH@Z
	DD	FLAT:?HasSpawnFlags@CBaseEntity@@UBE_NH@Z
	DD	FLAT:?SetFadeDistance@CBaseEntity@@UAEXH@Z
	DD	FLAT:?SetFlag@CBaseEntity@@UAEXH@Z
	DD	FLAT:?HasFlag@CBaseEntity@@UBE_NH@Z
	DD	FLAT:?RemoveFlag@CBaseEntity@@UAEXH@Z
	DD	FLAT:?SetNullModel@CBaseEntity@@UAEXXZ
	DD	FLAT:?OnPickupObject@CBaseEntity@@UAEXXZ
	DD	FLAT:?OnDropObject@CBaseEntity@@UAEXXZ
	DD	FLAT:?GetNextTarget@CBaseEntity@@UAEPAV1@XZ
	DD	FLAT:?Think@CBaseEntity@@UAEXXZ
	DD	FLAT:?Use@CBaseEntity@@UAEXPAV1@0W4USE_TYPE@@M@Z
	DD	FLAT:?Touch@CBaseEntity@@UAEXPAV1@@Z
	DD	FLAT:?Blocked@CBaseEntity@@UAEXPAV1@@Z
	DD	FLAT:?MoveDone@CBaseEntity@@UAEXXZ
	DD	FLAT:?Respawn@CBaseEntity@@UAEPAV1@XZ
	DD	FLAT:?UpdateOwner@CBaseEntity@@UAEXXZ
	DD	FLAT:?FBecomeProne@CBaseEntity@@UAEHXZ
	DD	FLAT:?Center@CBaseEntity@@UAE?AVVector@@XZ
	DD	FLAT:?EyePosition@CBaseEntity@@UAE?AVVector@@XZ
	DD	FLAT:?EarPosition@CBaseEntity@@UAE?AVVector@@XZ
	DD	FLAT:?BodyTarget@CBaseEntity@@UAE?AVVector@@ABV2@@Z
	DD	FLAT:?IsPointSized@CBaseEntity@@UBEHXZ
	DD	FLAT:?Illumination@CBaseEntity@@UAEHXZ
	DD	FLAT:?FVisible@CBaseEntity@@UAEHABVVector@@@Z
	DD	FLAT:?FVisible@CBaseEntity@@UAEHPAV1@@Z
	DD	FLAT:?ShouldCollide@CBaseEntity@@UAEHPAV1@@Z
	DD	FLAT:?ClearEffects@CBaseEntity@@UAEXXZ
CONST	ENDS
;	COMDAT ??_7IEntityFactory@@6B@
CONST	SEGMENT
??_7IEntityFactory@@6B@ DD FLAT:??_R4IEntityFactory@@6B@ ; IEntityFactory::`vftable'
	DD	FLAT:__purecall
	DD	FLAT:__purecall
	DD	FLAT:__purecall
CONST	ENDS
;	COMDAT ??_C@_04EFCDBJNL@?$CFs?3?3?$AA@
CONST	SEGMENT
??_C@_04EFCDBJNL@?$CFs?3?3?$AA@ DB '%s::', 00H		; `string'
CONST	ENDS
;	COMDAT ??_C@_00CNPNBAHC@?$AA@
CONST	SEGMENT
??_C@_00CNPNBAHC@?$AA@ DB 00H				; `string'
CONST	ENDS
;	COMDAT xdata$x
xdata$x	SEGMENT
__unwindtable$??$GetClassPtr@VCSqueakGrenade@@@@YAPAVCSqueakGrenade@@PAV0@PBD@Z DD 0ffffffffH
	DD	FLAT:__unwindfunclet$??$GetClassPtr@VCSqueakGrenade@@@@YAPAVCSqueakGrenade@@PAV0@PBD@Z$0
__ehfuncinfo$??$GetClassPtr@VCSqueakGrenade@@@@YAPAVCSqueakGrenade@@PAV0@PBD@Z DD 019930522H
	DD	01H
	DD	FLAT:__unwindtable$??$GetClassPtr@VCSqueakGrenade@@@@YAPAVCSqueakGrenade@@PAV0@PBD@Z
	DD	2 DUP(00H)
	DD	2 DUP(00H)
	DD	00H
	DD	01H
xdata$x	ENDS
;	COMDAT xdata$x
xdata$x	SEGMENT
__unwindtable$??$DataMapInit@VCSqueakGrenade@@@@YAPAUdatamap_s@@PAVCSqueakGrenade@@@Z DD 0ffffffffH
	DD	FLAT:__unwindfunclet$??$DataMapInit@VCSqueakGrenade@@@@YAPAUdatamap_s@@PAVCSqueakGrenade@@@Z$0
	DD	0ffffffffH
	DD	FLAT:__unwindfunclet$??$DataMapInit@VCSqueakGrenade@@@@YAPAUdatamap_s@@PAVCSqueakGrenade@@@Z$1
__ehfuncinfo$??$DataMapInit@VCSqueakGrenade@@@@YAPAUdatamap_s@@PAVCSqueakGrenade@@@Z DD 019930522H
	DD	02H
	DD	FLAT:__unwindtable$??$DataMapInit@VCSqueakGrenade@@@@YAPAUdatamap_s@@PAVCSqueakGrenade@@@Z
	DD	2 DUP(00H)
	DD	2 DUP(00H)
	DD	00H
	DD	01H
xdata$x	ENDS
;	COMDAT xdata$x
xdata$x	SEGMENT
__unwindtable$??0CSqueakGrenade@@QAE@XZ DD 0ffffffffH
	DD	FLAT:__unwindfunclet$??0CSqueakGrenade@@QAE@XZ$0
__ehfuncinfo$??0CSqueakGrenade@@QAE@XZ DD 019930522H
	DD	01H
	DD	FLAT:__unwindtable$??0CSqueakGrenade@@QAE@XZ
	DD	2 DUP(00H)
	DD	2 DUP(00H)
	DD	00H
	DD	01H
xdata$x	ENDS
;	COMDAT xdata$x
xdata$x	SEGMENT
__unwindtable$??0CGrenade@@QAE@XZ DD 0ffffffffH
	DD	FLAT:__unwindfunclet$??0CGrenade@@QAE@XZ$0
__ehfuncinfo$??0CGrenade@@QAE@XZ DD 019930522H
	DD	01H
	DD	FLAT:__unwindtable$??0CGrenade@@QAE@XZ
	DD	2 DUP(00H)
	DD	2 DUP(00H)
	DD	00H
	DD	01H
xdata$x	ENDS
;	COMDAT xdata$x
xdata$x	SEGMENT
__unwindtable$??0CBaseMonster@@QAE@XZ DD 0ffffffffH
	DD	FLAT:__unwindfunclet$??0CBaseMonster@@QAE@XZ$0
__ehfuncinfo$??0CBaseMonster@@QAE@XZ DD 019930522H
	DD	01H
	DD	FLAT:__unwindtable$??0CBaseMonster@@QAE@XZ
	DD	2 DUP(00H)
	DD	2 DUP(00H)
	DD	00H
	DD	01H
xdata$x	ENDS
;	COMDAT xdata$x
xdata$x	SEGMENT
__unwindtable$??0CBaseToggle@@QAE@XZ DD 0ffffffffH
	DD	FLAT:__unwindfunclet$??0CBaseToggle@@QAE@XZ$0
__ehfuncinfo$??0CBaseToggle@@QAE@XZ DD 019930522H
	DD	01H
	DD	FLAT:__unwindtable$??0CBaseToggle@@QAE@XZ
	DD	2 DUP(00H)
	DD	2 DUP(00H)
	DD	00H
	DD	01H
xdata$x	ENDS
;	COMDAT xdata$x
xdata$x	SEGMENT
__unwindtable$??0CBaseEntity@@QAE@XZ DD 0ffffffffH
	DD	FLAT:__unwindfunclet$??0CBaseEntity@@QAE@XZ$0
__ehfuncinfo$??0CBaseEntity@@QAE@XZ DD 019930522H
	DD	01H
	DD	FLAT:__unwindtable$??0CBaseEntity@@QAE@XZ
	DD	2 DUP(00H)
	DD	2 DUP(00H)
	DD	00H
	DD	01H
xdata$x	ENDS
;	COMDAT xdata$x
xdata$x	SEGMENT
__ehfuncinfo$??1?$CUtlMemory@PADH@@QAE@XZ DD 019930522H
	DD	00H
	DD	00H
	DD	2 DUP(00H)
	DD	2 DUP(00H)
	DD	00H
	DD	05H
xdata$x	ENDS
;	COMDAT xdata$x
xdata$x	SEGMENT
__ehfuncinfo$??1?$CUtlArray@PADV?$CUtlMemory@PADH@@@@QAE@XZ DD 019930522H
	DD	00H
	DD	00H
	DD	2 DUP(00H)
	DD	2 DUP(00H)
	DD	00H
	DD	05H
xdata$x	ENDS
;	COMDAT xdata$x
xdata$x	SEGMENT
__unwindtable$??0?$CUtlArray@PADV?$CUtlMemory@PADH@@@@QAE@HH@Z DD 0ffffffffH
	DD	FLAT:__unwindfunclet$??0?$CUtlArray@PADV?$CUtlMemory@PADH@@@@QAE@HH@Z$0
__ehfuncinfo$??0?$CUtlArray@PADV?$CUtlMemory@PADH@@@@QAE@HH@Z DD 019930522H
	DD	01H
	DD	FLAT:__unwindtable$??0?$CUtlArray@PADV?$CUtlMemory@PADH@@@@QAE@HH@Z
	DD	2 DUP(00H)
	DD	2 DUP(00H)
	DD	00H
	DD	01H
xdata$x	ENDS
;	COMDAT xdata$x
xdata$x	SEGMENT
__ehfuncinfo$??1CDatadescGeneratedNameHolder@@QAE@XZ DD 019930522H
	DD	00H
	DD	00H
	DD	2 DUP(00H)
	DD	2 DUP(00H)
	DD	00H
	DD	05H
xdata$x	ENDS
CRT$XCU	SEGMENT
?g_DataMapHolder$initializer$@CSqueakGrenade_DataDescInit@@3P6AXXZA DD FLAT:??__Eg_DataMapHolder@CSqueakGrenade_DataDescInit@@YAXXZ ; CSqueakGrenade_DataDescInit::g_DataMapHolder$initializer$
CRT$XCU	ENDS
; Function compile flags: /Odtp /ZI
; File d:\!diffusion 2020\source code 2022\client-server\game_shared\utlmemory.h
;	COMDAT ??$Destruct@PAD@@YAXPAPAD@Z
_TEXT	SEGMENT
_pMemory$ = 8						; size = 4
??$Destruct@PAD@@YAXPAPAD@Z PROC			; Destruct<char *>, COMDAT

; 49   : {

	push	ebp
	mov	ebp, esp
	sub	esp, 64					; 00000040H
	push	ebx
	push	esi
	push	edi

; 50   : 	pMemory->~T();
; 51   : 
; 52   : #ifdef _DEBUG
; 53   : 	memset( pMemory, 0xDD, sizeof(T) );

	push	4
	push	221					; 000000ddH
	mov	eax, DWORD PTR _pMemory$[ebp]
	push	eax
	call	_memset
	add	esp, 12					; 0000000cH

; 54   : #endif
; 55   : }

	pop	edi
	pop	esi
	pop	ebx
	mov	esp, ebp
	pop	ebp
	ret	0
??$Destruct@PAD@@YAXPAPAD@Z ENDP			; Destruct<char *>
_TEXT	ENDS
; Function compile flags: /Odtp /ZI
; File d:\!diffusion 2020\source code 2022\client-server\game_shared\utlmemory.h
;	COMDAT ??$CopyConstruct@PAD@@YAXPAPADABQAD@Z
_TEXT	SEGMENT
tv71 = -72						; size = 4
$T1 = -68						; size = 4
_pMemory$ = 8						; size = 4
_src$ = 12						; size = 4
??$CopyConstruct@PAD@@YAXPAPADABQAD@Z PROC		; CopyConstruct<char *>, COMDAT

; 43   : {

	push	ebp
	mov	ebp, esp
	sub	esp, 72					; 00000048H
	push	ebx
	push	esi
	push	edi

; 44   : 	new( pMemory ) T(src);

	mov	eax, DWORD PTR _pMemory$[ebp]
	push	eax
	push	4
	call	??2@YAPAXIPAX@Z				; operator new
	add	esp, 8
	mov	DWORD PTR $T1[ebp], eax
	cmp	DWORD PTR $T1[ebp], 0
	je	SHORT $LN3@CopyConstr
	mov	ecx, DWORD PTR $T1[ebp]
	mov	edx, DWORD PTR _src$[ebp]
	mov	eax, DWORD PTR [edx]
	mov	DWORD PTR [ecx], eax
	mov	ecx, DWORD PTR $T1[ebp]
	mov	DWORD PTR tv71[ebp], ecx
	jmp	SHORT $LN1@CopyConstr
$LN3@CopyConstr:
	mov	DWORD PTR tv71[ebp], 0
$LN1@CopyConstr:

; 45   : }

	pop	edi
	pop	esi
	pop	ebx
	mov	esp, ebp
	pop	ebp
	ret	0
??$CopyConstruct@PAD@@YAXPAPADABQAD@Z ENDP		; CopyConstruct<char *>
_TEXT	ENDS
; Function compile flags: /Odtp /ZI
; File d:\!diffusion 2020\source code 2022\client-server\server\cbase.h
;	COMDAT ??$GetClassPtr@VCSqueakGrenade@@@@YAPAVCSqueakGrenade@@PAV0@PBD@Z
_TEXT	SEGMENT
tv85 = -92						; size = 4
$T2 = -88						; size = 4
$T3 = -84						; size = 4
_pev$ = -16						; size = 4
__$EHRec$ = -12						; size = 12
_newEnt$ = 8						; size = 4
_className$ = 12					; size = 4
??$GetClassPtr@VCSqueakGrenade@@@@YAPAVCSqueakGrenade@@PAV0@PBD@Z PROC ; GetClassPtr<CSqueakGrenade>, COMDAT

; 1146 : {

	push	ebp
	mov	ebp, esp
	push	-1
	push	__ehhandler$??$GetClassPtr@VCSqueakGrenade@@@@YAPAVCSqueakGrenade@@PAV0@PBD@Z
	mov	eax, DWORD PTR fs:0
	push	eax
	sub	esp, 80					; 00000050H
	push	ebx
	push	esi
	push	edi
	mov	eax, DWORD PTR ___security_cookie
	xor	eax, ebp
	push	eax
	lea	eax, DWORD PTR __$EHRec$[ebp]
	mov	DWORD PTR fs:0, eax

; 1147 : 	entvars_t *pev = (entvars_t *)newEnt;

	mov	eax, DWORD PTR _newEnt$[ebp]
	mov	DWORD PTR _pev$[ebp], eax

; 1148 : 
; 1149 : 	// allocate entity if necessary
; 1150 : 	if (pev == NULL)

	cmp	DWORD PTR _pev$[ebp], 0
	jne	SHORT $LN2@GetClassPt

; 1151 : 		pev = VARS(CREATE_ENTITY());

	call	DWORD PTR ?g_engfuncs@@3Uenginefuncs_s@@A+84
	push	eax
	call	?VARS@@YAPAUentvars_s@@PAUedict_s@@@Z	; VARS
	add	esp, 4
	mov	DWORD PTR _pev$[ebp], eax
$LN2@GetClassPt:

; 1152 : 
; 1153 : 	// get the private data
; 1154 : 	newEnt = (T *)GET_PRIVATE(ENT(pev));

	mov	eax, DWORD PTR _pev$[ebp]
	push	eax
	call	?ENT@@YAPAUedict_s@@PBUentvars_s@@@Z	; ENT
	add	esp, 4
	push	eax
	call	?GET_PRIVATE@@YAPAXPAUedict_s@@@Z	; GET_PRIVATE
	add	esp, 4
	mov	DWORD PTR _newEnt$[ebp], eax

; 1155 : 
; 1156 : 	if (newEnt == NULL) 

	cmp	DWORD PTR _newEnt$[ebp], 0
	jne	SHORT $LN3@GetClassPt

; 1157 : 	{
; 1158 : 		// allocate private data 
; 1159 : 		newEnt = new(pev) T;

	mov	eax, DWORD PTR _pev$[ebp]
	push	eax
	push	2556					; 000009fcH
	call	??2CBaseEntity@@SAPAXIPAUentvars_s@@@Z	; CBaseEntity::operator new
	add	esp, 8
	mov	DWORD PTR $T2[ebp], eax
	mov	DWORD PTR __$EHRec$[ebp+8], 0
	cmp	DWORD PTR $T2[ebp], 0
	je	SHORT $LN5@GetClassPt
	mov	ecx, DWORD PTR $T2[ebp]
	call	??0CSqueakGrenade@@QAE@XZ
	mov	DWORD PTR tv85[ebp], eax
	jmp	SHORT $LN6@GetClassPt
$LN5@GetClassPt:
	mov	DWORD PTR tv85[ebp], 0
$LN6@GetClassPt:
	mov	ecx, DWORD PTR tv85[ebp]
	mov	DWORD PTR $T3[ebp], ecx
	mov	DWORD PTR __$EHRec$[ebp+8], -1
	mov	edx, DWORD PTR $T3[ebp]
	mov	DWORD PTR _newEnt$[ebp], edx

; 1160 : 		newEnt->pev = pev;

	mov	eax, DWORD PTR _newEnt$[ebp]
	mov	ecx, DWORD PTR _pev$[ebp]
	mov	DWORD PTR [eax+4], ecx
$LN3@GetClassPt:

; 1161 : 	}
; 1162 : 	newEnt->SetClassname( className );

	mov	eax, DWORD PTR _className$[ebp]
	push	eax
	mov	ecx, DWORD PTR _newEnt$[ebp]
	call	?SetClassname@CBaseEntity@@QAEXPBD@Z	; CBaseEntity::SetClassname

; 1163 : 
; 1164 : 	return newEnt;

	mov	eax, DWORD PTR _newEnt$[ebp]

; 1165 : }

	mov	ecx, DWORD PTR __$EHRec$[ebp]
	mov	DWORD PTR fs:0, ecx
	pop	ecx
	pop	edi
	pop	esi
	pop	ebx
	mov	esp, ebp
	pop	ebp
	ret	0
_TEXT	ENDS
;	COMDAT text$x
text$x	SEGMENT
__unwindfunclet$??$GetClassPtr@VCSqueakGrenade@@@@YAPAVCSqueakGrenade@@PAV0@PBD@Z$0:
	mov	eax, DWORD PTR _pev$[ebp]
	push	eax
	mov	eax, DWORD PTR $T2[ebp]
	push	eax
	call	??3CBaseEntity@@SAXPAXPAUentvars_s@@@Z	; CBaseEntity::operator delete
	add	esp, 8
	ret	0
__ehhandler$??$GetClassPtr@VCSqueakGrenade@@@@YAPAVCSqueakGrenade@@PAV0@PBD@Z:
	mov	edx, DWORD PTR [esp+8]
	lea	eax, DWORD PTR [edx+12]
	mov	ecx, DWORD PTR [edx-96]
	xor	ecx, eax
	call	@__security_check_cookie@4
	mov	eax, OFFSET __ehfuncinfo$??$GetClassPtr@VCSqueakGrenade@@@@YAPAVCSqueakGrenade@@PAV0@PBD@Z
	jmp	___CxxFrameHandler3
text$x	ENDS
??$GetClassPtr@VCSqueakGrenade@@@@YAPAVCSqueakGrenade@@PAV0@PBD@Z ENDP ; GetClassPtr<CSqueakGrenade>
; Function compile flags: /Odtp /ZI
;	COMDAT ??__FnameHolder@?1???$DataMapInit@VCSqueakGrenade@@@@YAPAUdatamap_s@@PAVCSqueakGrenade@@@Z@YAXXZ
text$yd	SEGMENT
??__FnameHolder@?1???$DataMapInit@VCSqueakGrenade@@@@YAPAUdatamap_s@@PAVCSqueakGrenade@@@Z@YAXXZ PROC ; `DataMapInit<CSqueakGrenade>'::`2'::`dynamic atexit destructor for 'nameHolder'', COMDAT
	push	ebp
	mov	ebp, esp
	sub	esp, 64					; 00000040H
	push	ebx
	push	esi
	push	edi
	mov	ecx, OFFSET ?nameHolder@?1???$DataMapInit@VCSqueakGrenade@@@@YAPAUdatamap_s@@PAVCSqueakGrenade@@@Z@4VCDatadescGeneratedNameHolder@@A
	call	??1CDatadescGeneratedNameHolder@@QAE@XZ	; CDatadescGeneratedNameHolder::~CDatadescGeneratedNameHolder
	pop	edi
	pop	esi
	pop	ebx
	mov	esp, ebp
	pop	ebp
	ret	0
??__FnameHolder@?1???$DataMapInit@VCSqueakGrenade@@@@YAPAUdatamap_s@@PAVCSqueakGrenade@@@Z@YAXXZ ENDP ; `DataMapInit<CSqueakGrenade>'::`2'::`dynamic atexit destructor for 'nameHolder''
text$yd	ENDS
; Function compile flags: /Odtp /ZI
; File d:\!diffusion 2020\source code 2022\client-server\server\monsters\entities\monster_snark.cpp
;	COMDAT ??__Eg_DataMapHolder@CSqueakGrenade_DataDescInit@@YAXXZ
text$di	SEGMENT
??__Eg_DataMapHolder@CSqueakGrenade_DataDescInit@@YAXXZ PROC ; CSqueakGrenade_DataDescInit::`dynamic initializer for 'g_DataMapHolder'', COMDAT

; 65   : BEGIN_DATADESC( CSqueakGrenade )

	push	ebp
	mov	ebp, esp
	sub	esp, 64					; 00000040H
	push	ebx
	push	esi
	push	edi
	push	0
	call	??$DataMapInit@VCSqueakGrenade@@@@YAPAUdatamap_s@@PAVCSqueakGrenade@@@Z ; DataMapInit<CSqueakGrenade>
	add	esp, 4
	mov	DWORD PTR ?g_DataMapHolder@CSqueakGrenade_DataDescInit@@3PAUdatamap_s@@A, eax ; CSqueakGrenade_DataDescInit::g_DataMapHolder
	pop	edi
	pop	esi
	pop	ebx
	mov	esp, ebp
	pop	ebp
	ret	0
??__Eg_DataMapHolder@CSqueakGrenade_DataDescInit@@YAXXZ ENDP ; CSqueakGrenade_DataDescInit::`dynamic initializer for 'g_DataMapHolder''
text$di	ENDS
; Function compile flags: /Odtp /ZI
; File d:\!diffusion 2020\source code 2022\client-server\server\monsters\entities\monster_snark.cpp
;	COMDAT ??$DataMapInit@VCSqueakGrenade@@@@YAPAUdatamap_s@@PAVCSqueakGrenade@@@Z
_TEXT	SEGMENT
__$EHRec$ = -12						; size = 12
___formal$ = 8						; size = 4
??$DataMapInit@VCSqueakGrenade@@@@YAPAUdatamap_s@@PAVCSqueakGrenade@@@Z PROC ; DataMapInit<CSqueakGrenade>, COMDAT

; 65   : BEGIN_DATADESC( CSqueakGrenade )

	push	ebp
	mov	ebp, esp
	push	-1
	push	__ehhandler$??$DataMapInit@VCSqueakGrenade@@@@YAPAUdatamap_s@@PAVCSqueakGrenade@@@Z
	mov	eax, DWORD PTR fs:0
	push	eax
	sub	esp, 64					; 00000040H
	push	ebx
	push	esi
	push	edi
	mov	eax, DWORD PTR ___security_cookie
	xor	eax, ebp
	push	eax
	lea	eax, DWORD PTR __$EHRec$[ebp]
	mov	DWORD PTR fs:0, eax
	mov	eax, DWORD PTR __tls_index
	mov	ecx, DWORD PTR fs:__tls_array
	mov	edx, DWORD PTR [ecx+eax*4]
	mov	eax, DWORD PTR ?$TSS0@?1???$DataMapInit@VCSqueakGrenade@@@@YAPAUdatamap_s@@PAVCSqueakGrenade@@@Z@4HA
	cmp	eax, DWORD PTR __Init_thread_epoch[edx]
	jle	SHORT $LN2@DataMapIni
	push	OFFSET ?$TSS0@?1???$DataMapInit@VCSqueakGrenade@@@@YAPAUdatamap_s@@PAVCSqueakGrenade@@@Z@4HA
	call	__Init_thread_header
	add	esp, 4
	cmp	DWORD PTR ?$TSS0@?1???$DataMapInit@VCSqueakGrenade@@@@YAPAUdatamap_s@@PAVCSqueakGrenade@@@Z@4HA, -1
	jne	SHORT $LN2@DataMapIni
	mov	DWORD PTR __$EHRec$[ebp+8], 0
	push	OFFSET ??_C@_0P@EAIBCLLJ@CSqueakGrenade?$AA@
	mov	ecx, OFFSET ?nameHolder@?1???$DataMapInit@VCSqueakGrenade@@@@YAPAUdatamap_s@@PAVCSqueakGrenade@@@Z@4VCDatadescGeneratedNameHolder@@A
	call	??0CDatadescGeneratedNameHolder@@QAE@PBD@Z ; CDatadescGeneratedNameHolder::CDatadescGeneratedNameHolder
	push	OFFSET ??__FnameHolder@?1???$DataMapInit@VCSqueakGrenade@@@@YAPAUdatamap_s@@PAVCSqueakGrenade@@@Z@YAXXZ ; `DataMapInit<CSqueakGrenade>'::`2'::`dynamic atexit destructor for 'nameHolder''
	call	_atexit
	add	esp, 4
	mov	DWORD PTR __$EHRec$[ebp+8], -1
	push	OFFSET ?$TSS0@?1???$DataMapInit@VCSqueakGrenade@@@@YAPAUdatamap_s@@PAVCSqueakGrenade@@@Z@4HA
	call	__Init_thread_footer
	add	esp, 4
$LN2@DataMapIni:

; 73   : END_DATADESC()

	call	?GetBaseMap@CSqueakGrenade@@CAPAUdatamap_s@@XZ ; CSqueakGrenade::GetBaseMap
	mov	DWORD PTR ?m_DataMap@CSqueakGrenade@@0Udatamap_s@@A+12, eax

; 65   : BEGIN_DATADESC( CSqueakGrenade )

	mov	eax, DWORD PTR __tls_index
	mov	ecx, DWORD PTR fs:__tls_array
	mov	edx, DWORD PTR [ecx+eax*4]
	mov	eax, DWORD PTR ?$TSS1@?1???$DataMapInit@VCSqueakGrenade@@@@YAPAUdatamap_s@@PAVCSqueakGrenade@@@Z@4HA
	cmp	eax, DWORD PTR __Init_thread_epoch[edx]
	jle	$LN3@DataMapIni
	push	OFFSET ?$TSS1@?1???$DataMapInit@VCSqueakGrenade@@@@YAPAUdatamap_s@@PAVCSqueakGrenade@@@Z@4HA
	call	__Init_thread_header
	add	esp, 4
	cmp	DWORD PTR ?$TSS1@?1???$DataMapInit@VCSqueakGrenade@@@@YAPAUdatamap_s@@PAVCSqueakGrenade@@@Z@4HA, -1
	jne	$LN3@DataMapIni
	mov	DWORD PTR __$EHRec$[ebp+8], 1

; 66   : 	DEFINE_FIELD( m_flDie, FIELD_TIME ),
; 67   : 	DEFINE_FIELD( m_vecTarget, FIELD_VECTOR ),
; 68   : 	DEFINE_FIELD( m_flNextHunt, FIELD_TIME ),
; 69   : 	DEFINE_FIELD( m_flNextHit, FIELD_TIME ),
; 70   : 	DEFINE_FIELD( m_posPrev, FIELD_POSITION_VECTOR ),
; 71   : 	DEFINE_FUNCTION( SuperBounceTouch ),

	push	OFFSET ??_C@_0BB@HFFOMAAD@SuperBounceTouch?$AA@
	mov	ecx, OFFSET ?nameHolder@?1???$DataMapInit@VCSqueakGrenade@@@@YAPAUdatamap_s@@PAVCSqueakGrenade@@@Z@4VCDatadescGeneratedNameHolder@@A
	call	?GenerateName@CDatadescGeneratedNameHolder@@QAEPBDPBD@Z ; CDatadescGeneratedNameHolder::GenerateName
	mov	DWORD PTR ?dataDesc@?1???$DataMapInit@VCSqueakGrenade@@@@YAPAUdatamap_s@@PAVCSqueakGrenade@@@Z@4PAUtypedescription_s@@A+148, eax
	mov	DWORD PTR ?dataDesc@?1???$DataMapInit@VCSqueakGrenade@@@@YAPAUdatamap_s@@PAVCSqueakGrenade@@@Z@4PAUtypedescription_s@@A+152, 0
	mov	eax, 1
	mov	WORD PTR ?dataDesc@?1???$DataMapInit@VCSqueakGrenade@@@@YAPAUdatamap_s@@PAVCSqueakGrenade@@@Z@4PAUtypedescription_s@@A+156, ax
	mov	eax, 8
	mov	WORD PTR ?dataDesc@?1???$DataMapInit@VCSqueakGrenade@@@@YAPAUdatamap_s@@PAVCSqueakGrenade@@@Z@4PAUtypedescription_s@@A+158, ax
	mov	DWORD PTR ?dataDesc@?1???$DataMapInit@VCSqueakGrenade@@@@YAPAUdatamap_s@@PAVCSqueakGrenade@@@Z@4PAUtypedescription_s@@A+160, 0
	mov	DWORD PTR ?dataDesc@?1???$DataMapInit@VCSqueakGrenade@@@@YAPAUdatamap_s@@PAVCSqueakGrenade@@@Z@4PAUtypedescription_s@@A+164, OFFSET ?SuperBounceTouch@CSqueakGrenade@@AAEXPAVCBaseEntity@@@Z ; CSqueakGrenade::SuperBounceTouch

; 72   : 	DEFINE_FUNCTION( HuntThink ),

	mov	DWORD PTR ?dataDesc@?1???$DataMapInit@VCSqueakGrenade@@@@YAPAUdatamap_s@@PAVCSqueakGrenade@@@Z@4PAUtypedescription_s@@A+168, 18 ; 00000012H
	push	OFFSET ??_C@_09EKFJIKFE@HuntThink?$AA@
	mov	ecx, OFFSET ?nameHolder@?1???$DataMapInit@VCSqueakGrenade@@@@YAPAUdatamap_s@@PAVCSqueakGrenade@@@Z@4VCDatadescGeneratedNameHolder@@A
	call	?GenerateName@CDatadescGeneratedNameHolder@@QAEPBDPBD@Z ; CDatadescGeneratedNameHolder::GenerateName
	mov	DWORD PTR ?dataDesc@?1???$DataMapInit@VCSqueakGrenade@@@@YAPAUdatamap_s@@PAVCSqueakGrenade@@@Z@4PAUtypedescription_s@@A+172, eax
	mov	DWORD PTR ?dataDesc@?1???$DataMapInit@VCSqueakGrenade@@@@YAPAUdatamap_s@@PAVCSqueakGrenade@@@Z@4PAUtypedescription_s@@A+176, 0
	mov	eax, 1
	mov	WORD PTR ?dataDesc@?1???$DataMapInit@VCSqueakGrenade@@@@YAPAUdatamap_s@@PAVCSqueakGrenade@@@Z@4PAUtypedescription_s@@A+180, ax
	mov	eax, 8
	mov	WORD PTR ?dataDesc@?1???$DataMapInit@VCSqueakGrenade@@@@YAPAUdatamap_s@@PAVCSqueakGrenade@@@Z@4PAUtypedescription_s@@A+182, ax
	mov	DWORD PTR ?dataDesc@?1???$DataMapInit@VCSqueakGrenade@@@@YAPAUdatamap_s@@PAVCSqueakGrenade@@@Z@4PAUtypedescription_s@@A+184, 0
	mov	DWORD PTR ?dataDesc@?1???$DataMapInit@VCSqueakGrenade@@@@YAPAUdatamap_s@@PAVCSqueakGrenade@@@Z@4PAUtypedescription_s@@A+188, OFFSET ?HuntThink@CSqueakGrenade@@AAEXXZ ; CSqueakGrenade::HuntThink
	mov	DWORD PTR __$EHRec$[ebp+8], -1
	push	OFFSET ?$TSS1@?1???$DataMapInit@VCSqueakGrenade@@@@YAPAUdatamap_s@@PAVCSqueakGrenade@@@Z@4HA
	call	__Init_thread_footer
	add	esp, 4
$LN3@DataMapIni:

; 73   : END_DATADESC()

	mov	eax, 1
	test	eax, eax
	je	SHORT $LN4@DataMapIni
	mov	DWORD PTR ?m_DataMap@CSqueakGrenade@@0Udatamap_s@@A+4, 7
	mov	eax, 24					; 00000018H
	shl	eax, 0
	add	eax, OFFSET ?dataDesc@?1???$DataMapInit@VCSqueakGrenade@@@@YAPAUdatamap_s@@PAVCSqueakGrenade@@@Z@4PAUtypedescription_s@@A
	mov	DWORD PTR ?m_DataMap@CSqueakGrenade@@0Udatamap_s@@A, eax
	jmp	SHORT $LN5@DataMapIni
$LN4@DataMapIni:
	mov	DWORD PTR ?m_DataMap@CSqueakGrenade@@0Udatamap_s@@A+4, 1
	mov	DWORD PTR ?m_DataMap@CSqueakGrenade@@0Udatamap_s@@A, OFFSET ?dataDesc@?1???$DataMapInit@VCSqueakGrenade@@@@YAPAUdatamap_s@@PAVCSqueakGrenade@@@Z@4PAUtypedescription_s@@A
$LN5@DataMapIni:
	mov	eax, OFFSET ?m_DataMap@CSqueakGrenade@@0Udatamap_s@@A ; CSqueakGrenade::m_DataMap
	mov	ecx, DWORD PTR __$EHRec$[ebp]
	mov	DWORD PTR fs:0, ecx
	pop	ecx
	pop	edi
	pop	esi
	pop	ebx
	mov	esp, ebp
	pop	ebp
	ret	0
_TEXT	ENDS
;	COMDAT text$x
text$x	SEGMENT
__unwindfunclet$??$DataMapInit@VCSqueakGrenade@@@@YAPAUdatamap_s@@PAVCSqueakGrenade@@@Z$0:
	push	OFFSET ?$TSS0@?1???$DataMapInit@VCSqueakGrenade@@@@YAPAUdatamap_s@@PAVCSqueakGrenade@@@Z@4HA
	call	__Init_thread_abort
	pop	ecx
	ret	0
__unwindfunclet$??$DataMapInit@VCSqueakGrenade@@@@YAPAUdatamap_s@@PAVCSqueakGrenade@@@Z$1:
	push	OFFSET ?$TSS1@?1???$DataMapInit@VCSqueakGrenade@@@@YAPAUdatamap_s@@PAVCSqueakGrenade@@@Z@4HA
	call	__Init_thread_abort
	pop	ecx
	ret	0
__ehhandler$??$DataMapInit@VCSqueakGrenade@@@@YAPAUdatamap_s@@PAVCSqueakGrenade@@@Z:
	mov	edx, DWORD PTR [esp+8]
	lea	eax, DWORD PTR [edx+12]
	mov	ecx, DWORD PTR [edx-80]
	xor	ecx, eax
	call	@__security_check_cookie@4
	mov	eax, OFFSET __ehfuncinfo$??$DataMapInit@VCSqueakGrenade@@@@YAPAUdatamap_s@@PAVCSqueakGrenade@@@Z
	jmp	___CxxFrameHandler3
text$x	ENDS
??$DataMapInit@VCSqueakGrenade@@@@YAPAUdatamap_s@@PAVCSqueakGrenade@@@Z ENDP ; DataMapInit<CSqueakGrenade>
; Function compile flags: /Odtp /ZI
; File d:\!diffusion 2020\source code 2022\client-server\common\datamap.h
;	COMDAT ??$DataMapAccess@VCGrenade@@@@YAXPAVCGrenade@@PAPAUdatamap_s@@@Z
_TEXT	SEGMENT
_ignored$ = 8						; size = 4
_p$ = 12						; size = 4
??$DataMapAccess@VCGrenade@@@@YAXPAVCGrenade@@PAPAUdatamap_s@@@Z PROC ; DataMapAccess<CGrenade>, COMDAT

; 184  : {

	push	ebp
	mov	ebp, esp
	sub	esp, 64					; 00000040H
	push	ebx
	push	esi
	push	edi

; 185  : 	*p = &T::m_DataMap;

	mov	eax, DWORD PTR _p$[ebp]
	mov	DWORD PTR [eax], OFFSET ?m_DataMap@CGrenade@@2Udatamap_s@@A ; CGrenade::m_DataMap

; 186  : }

	pop	edi
	pop	esi
	pop	ebx
	mov	esp, ebp
	pop	ebp
	ret	0
??$DataMapAccess@VCGrenade@@@@YAXPAVCGrenade@@PAPAUdatamap_s@@@Z ENDP ; DataMapAccess<CGrenade>
_TEXT	ENDS
; Function compile flags: /Odtp /ZI
; File d:\!diffusion 2020\source code 2022\client-server\server\monsters\entities\monster_snark.cpp
;	COMDAT ??__Emonster_snark@@YAXXZ
text$di	SEGMENT
??__Emonster_snark@@YAXXZ PROC				; `dynamic initializer for 'monster_snark'', COMDAT

; 63   : LINK_ENTITY_TO_CLASS( monster_snark, CSqueakGrenade );

	push	ebp
	mov	ebp, esp
	sub	esp, 64					; 00000040H
	push	ebx
	push	esi
	push	edi
	push	OFFSET ??_C@_0O@LBKPDLAI@monster_snark?$AA@
	mov	ecx, OFFSET ?monster_snark@@3V?$CEntityFactory@VCSqueakGrenade@@@@A
	call	??0?$CEntityFactory@VCSqueakGrenade@@@@QAE@PBD@Z ; CEntityFactory<CSqueakGrenade>::CEntityFactory<CSqueakGrenade>
	pop	edi
	pop	esi
	pop	ebx
	mov	esp, ebp
	pop	ebp
	ret	0
??__Emonster_snark@@YAXXZ ENDP				; `dynamic initializer for 'monster_snark''
text$di	ENDS
; Function compile flags: /Odtp /ZI
; File d:\!diffusion 2020\source code 2022\client-server\server\util.h
;	COMDAT ?GetEntitySize@?$CEntityFactory@VCSqueakGrenade@@@@UAEIXZ
_TEXT	SEGMENT
_this$ = -4						; size = 4
?GetEntitySize@?$CEntityFactory@VCSqueakGrenade@@@@UAEIXZ PROC ; CEntityFactory<CSqueakGrenade>::GetEntitySize, COMDAT
; _this$ = ecx

; 103  : 	{

	push	ebp
	mov	ebp, esp
	sub	esp, 68					; 00000044H
	push	ebx
	push	esi
	push	edi
	mov	DWORD PTR _this$[ebp], ecx

; 104  : 		return sizeof(T);

	mov	eax, 2556				; 000009fcH

; 105  : 	}

	pop	edi
	pop	esi
	pop	ebx
	mov	esp, ebp
	pop	ebp
	ret	0
?GetEntitySize@?$CEntityFactory@VCSqueakGrenade@@@@UAEIXZ ENDP ; CEntityFactory<CSqueakGrenade>::GetEntitySize
_TEXT	ENDS
; Function compile flags: /Odtp /ZI
; File d:\!diffusion 2020\source code 2022\client-server\server\util.h
;	COMDAT ?Destroy@?$CEntityFactory@VCSqueakGrenade@@@@UAEXPAVCBaseEntity@@@Z
_TEXT	SEGMENT
_this$ = -4						; size = 4
_pEntity$ = 8						; size = 4
?Destroy@?$CEntityFactory@VCSqueakGrenade@@@@UAEXPAVCBaseEntity@@@Z PROC ; CEntityFactory<CSqueakGrenade>::Destroy, COMDAT
; _this$ = ecx

; 98   : 	{

	push	ebp
	mov	ebp, esp
	sub	esp, 68					; 00000044H
	push	ebx
	push	esi
	push	edi
	mov	DWORD PTR _this$[ebp], ecx

; 99   : 		UTIL_Remove( pEntity );

	mov	eax, DWORD PTR _pEntity$[ebp]
	push	eax
	call	?UTIL_Remove@@YAXPAVCBaseEntity@@@Z	; UTIL_Remove
	add	esp, 4

; 100  : 	}

	pop	edi
	pop	esi
	pop	ebx
	mov	esp, ebp
	pop	ebp
	ret	4
?Destroy@?$CEntityFactory@VCSqueakGrenade@@@@UAEXPAVCBaseEntity@@@Z ENDP ; CEntityFactory<CSqueakGrenade>::Destroy
_TEXT	ENDS
; Function compile flags: /Odtp /ZI
; File d:\!diffusion 2020\source code 2022\client-server\server\util.h
;	COMDAT ?Create@?$CEntityFactory@VCSqueakGrenade@@@@UAEPAVCBaseEntity@@PBDPAUentvars_s@@@Z
_TEXT	SEGMENT
_pEnt$ = -8						; size = 4
_this$ = -4						; size = 4
_pClassName$ = 8					; size = 4
_pev$ = 12						; size = 4
?Create@?$CEntityFactory@VCSqueakGrenade@@@@UAEPAVCBaseEntity@@PBDPAUentvars_s@@@Z PROC ; CEntityFactory<CSqueakGrenade>::Create, COMDAT
; _this$ = ecx

; 92   : 	{

	push	ebp
	mov	ebp, esp
	sub	esp, 72					; 00000048H
	push	ebx
	push	esi
	push	edi
	mov	DWORD PTR _this$[ebp], ecx

; 93   : 		T* pEnt = GetClassPtr((T*)pev, pClassName);

	mov	eax, DWORD PTR _pClassName$[ebp]
	push	eax
	mov	ecx, DWORD PTR _pev$[ebp]
	push	ecx
	call	??$GetClassPtr@VCSqueakGrenade@@@@YAPAVCSqueakGrenade@@PAV0@PBD@Z ; GetClassPtr<CSqueakGrenade>
	add	esp, 8
	mov	DWORD PTR _pEnt$[ebp], eax

; 94   : 		return pEnt;

	mov	eax, DWORD PTR _pEnt$[ebp]

; 95   : 	}

	pop	edi
	pop	esi
	pop	ebx
	mov	esp, ebp
	pop	ebp
	ret	8
?Create@?$CEntityFactory@VCSqueakGrenade@@@@UAEPAVCBaseEntity@@PBDPAUentvars_s@@@Z ENDP ; CEntityFactory<CSqueakGrenade>::Create
_TEXT	ENDS
; Function compile flags: /Odtp /ZI
; File d:\!diffusion 2020\source code 2022\client-server\server\util.h
;	COMDAT ??0?$CEntityFactory@VCSqueakGrenade@@@@QAE@PBD@Z
_TEXT	SEGMENT
tv76 = -72						; size = 4
_this$ = -4						; size = 4
_pClassName$ = 8					; size = 4
??0?$CEntityFactory@VCSqueakGrenade@@@@QAE@PBD@Z PROC	; CEntityFactory<CSqueakGrenade>::CEntityFactory<CSqueakGrenade>, COMDAT
; _this$ = ecx

; 86   : 	CEntityFactory( const char *pClassName )

	push	ebp
	mov	ebp, esp
	sub	esp, 72					; 00000048H
	push	ebx
	push	esi
	push	edi
	mov	DWORD PTR _this$[ebp], ecx

; 87   : 	{

	mov	ecx, DWORD PTR _this$[ebp]
	call	??0IEntityFactory@@QAE@XZ
	mov	eax, DWORD PTR _this$[ebp]
	mov	DWORD PTR [eax], OFFSET ??_7?$CEntityFactory@VCSqueakGrenade@@@@6B@

; 88   : 		EntityFactoryDictionary()->InstallFactory( this, pClassName );

	call	?EntityFactoryDictionary@@YAPAVIEntityFactoryDictionary@@XZ ; EntityFactoryDictionary
	mov	DWORD PTR tv76[ebp], eax
	mov	eax, DWORD PTR _pClassName$[ebp]
	push	eax
	mov	ecx, DWORD PTR _this$[ebp]
	push	ecx
	mov	edx, DWORD PTR tv76[ebp]
	mov	eax, DWORD PTR [edx]
	mov	ecx, DWORD PTR tv76[ebp]
	mov	edx, DWORD PTR [eax]
	call	edx

; 89   : 	}

	mov	eax, DWORD PTR _this$[ebp]
	pop	edi
	pop	esi
	pop	ebx
	mov	esp, ebp
	pop	ebp
	ret	4
??0?$CEntityFactory@VCSqueakGrenade@@@@QAE@PBD@Z ENDP	; CEntityFactory<CSqueakGrenade>::CEntityFactory<CSqueakGrenade>
_TEXT	ENDS
; Function compile flags: /Odtp /ZI
;	COMDAT ??0CSqueakGrenade@@QAE@XZ
_TEXT	SEGMENT
_this$ = -16						; size = 4
__$EHRec$ = -12						; size = 12
??0CSqueakGrenade@@QAE@XZ PROC				; CSqueakGrenade::CSqueakGrenade, COMDAT
; _this$ = ecx
	push	ebp
	mov	ebp, esp
	push	-1
	push	__ehhandler$??0CSqueakGrenade@@QAE@XZ
	mov	eax, DWORD PTR fs:0
	push	eax
	sub	esp, 68					; 00000044H
	push	ebx
	push	esi
	push	edi
	mov	eax, DWORD PTR ___security_cookie
	xor	eax, ebp
	push	eax
	lea	eax, DWORD PTR __$EHRec$[ebp]
	mov	DWORD PTR fs:0, eax
	mov	DWORD PTR _this$[ebp], ecx
	mov	ecx, DWORD PTR _this$[ebp]
	call	??0CGrenade@@QAE@XZ
	mov	DWORD PTR __$EHRec$[ebp+8], 0
	mov	eax, DWORD PTR _this$[ebp]
	mov	DWORD PTR [eax], OFFSET ??_7CSqueakGrenade@@6B@
	mov	ecx, DWORD PTR _this$[ebp]
	add	ecx, 2520				; 000009d8H
	call	??0Vector@@QAE@XZ			; Vector::Vector
	mov	ecx, DWORD PTR _this$[ebp]
	add	ecx, 2540				; 000009ecH
	call	??0Vector@@QAE@XZ			; Vector::Vector
	mov	DWORD PTR __$EHRec$[ebp+8], -1
	mov	eax, DWORD PTR _this$[ebp]
	mov	ecx, DWORD PTR __$EHRec$[ebp]
	mov	DWORD PTR fs:0, ecx
	pop	ecx
	pop	edi
	pop	esi
	pop	ebx
	mov	esp, ebp
	pop	ebp
	ret	0
_TEXT	ENDS
;	COMDAT text$x
text$x	SEGMENT
__unwindfunclet$??0CSqueakGrenade@@QAE@XZ$0:
	mov	ecx, DWORD PTR _this$[ebp]
	jmp	??1CGrenade@@QAE@XZ
__ehhandler$??0CSqueakGrenade@@QAE@XZ:
	mov	edx, DWORD PTR [esp+8]
	lea	eax, DWORD PTR [edx+12]
	mov	ecx, DWORD PTR [edx-84]
	xor	ecx, eax
	call	@__security_check_cookie@4
	mov	eax, OFFSET __ehfuncinfo$??0CSqueakGrenade@@QAE@XZ
	jmp	___CxxFrameHandler3
text$x	ENDS
??0CSqueakGrenade@@QAE@XZ ENDP				; CSqueakGrenade::CSqueakGrenade
; Function compile flags: /Odtp /ZI
; File d:\!diffusion 2020\source code 2022\client-server\server\monsters\entities\monster_snark.cpp
;	COMDAT ?GetDataDescMap@CSqueakGrenade@@EAEPAUdatamap_s@@XZ
_TEXT	SEGMENT
_this$ = -4						; size = 4
?GetDataDescMap@CSqueakGrenade@@EAEPAUdatamap_s@@XZ PROC ; CSqueakGrenade::GetDataDescMap, COMDAT
; _this$ = ecx

; 65   : BEGIN_DATADESC( CSqueakGrenade )

	push	ebp
	mov	ebp, esp
	sub	esp, 68					; 00000044H
	push	ebx
	push	esi
	push	edi
	mov	DWORD PTR _this$[ebp], ecx
	mov	eax, OFFSET ?m_DataMap@CSqueakGrenade@@0Udatamap_s@@A ; CSqueakGrenade::m_DataMap
	pop	edi
	pop	esi
	pop	ebx
	mov	esp, ebp
	pop	ebp
	ret	0
?GetDataDescMap@CSqueakGrenade@@EAEPAUdatamap_s@@XZ ENDP ; CSqueakGrenade::GetDataDescMap
_TEXT	ENDS
; Function compile flags: /Odtp /ZI
; File d:\!diffusion 2020\source code 2022\client-server\server\monsters\entities\monster_snark.cpp
;	COMDAT ?GetBaseMap@CSqueakGrenade@@CAPAUdatamap_s@@XZ
_TEXT	SEGMENT
_pResult$ = -4						; size = 4
?GetBaseMap@CSqueakGrenade@@CAPAUdatamap_s@@XZ PROC	; CSqueakGrenade::GetBaseMap, COMDAT

; 65   : BEGIN_DATADESC( CSqueakGrenade )

	push	ebp
	mov	ebp, esp
	sub	esp, 68					; 00000044H
	push	ebx
	push	esi
	push	edi
	lea	eax, DWORD PTR _pResult$[ebp]
	push	eax
	push	0
	call	??$DataMapAccess@VCGrenade@@@@YAXPAVCGrenade@@PAPAUdatamap_s@@@Z ; DataMapAccess<CGrenade>
	add	esp, 8
	mov	eax, DWORD PTR _pResult$[ebp]
	pop	edi
	pop	esi
	pop	ebx
	mov	esp, ebp
	pop	ebp
	ret	0
?GetBaseMap@CSqueakGrenade@@CAPAUdatamap_s@@XZ ENDP	; CSqueakGrenade::GetBaseMap
_TEXT	ENDS
; Function compile flags: /Odtp /ZI
; File d:\!diffusion 2020\source code 2022\client-server\server\monsters\entities\monster_snark.cpp
;	COMDAT ?GibMonster@CSqueakGrenade@@EAEXXZ
_TEXT	SEGMENT
_this$ = -4						; size = 4
?GibMonster@CSqueakGrenade@@EAEXXZ PROC			; CSqueakGrenade::GibMonster, COMDAT
; _this$ = ecx

; 179  : {

	push	ebp
	mov	ebp, esp
	sub	esp, 68					; 00000044H
	push	ebx
	push	esi
	push	edi
	mov	DWORD PTR _this$[ebp], ecx

; 180  : 	EMIT_SOUND_DYN(ENT(pev), CHAN_VOICE, "common/bodysplat1.wav", 0.75, ATTN_NORM, 0, 200);		

	push	200					; 000000c8H
	push	0
	push	ecx
	movss	xmm0, DWORD PTR __real@3f4ccccd
	movss	DWORD PTR [esp], xmm0
	push	ecx
	movss	xmm0, DWORD PTR __real@3f400000
	movss	DWORD PTR [esp], xmm0
	push	OFFSET ??_C@_0BG@GDLOGHOA@common?1bodysplat1?4wav?$AA@
	push	2
	mov	eax, DWORD PTR _this$[ebp]
	mov	ecx, DWORD PTR [eax+4]
	push	ecx
	call	?ENT@@YAPAUedict_s@@PBUentvars_s@@@Z	; ENT
	add	esp, 4
	push	eax
	call	?EMIT_SOUND_DYN@@YAXPAUedict_s@@HPBDMMHH@Z ; EMIT_SOUND_DYN
	add	esp, 28					; 0000001cH

; 181  : }

	pop	edi
	pop	esi
	pop	ebx
	mov	esp, ebp
	pop	ebp
	ret	0
?GibMonster@CSqueakGrenade@@EAEXXZ ENDP			; CSqueakGrenade::GibMonster
_TEXT	ENDS
; Function compile flags: /Odtp /ZI
; File d:\!diffusion 2020\source code 2022\client-server\server\monsters\entities\monster_snark.cpp
;	COMDAT ?Killed@CSqueakGrenade@@EAEXPAUentvars_s@@H@Z
_TEXT	SEGMENT
_this$ = -4						; size = 4
_pevAttacker$ = 8					; size = 4
_iGib$ = 12						; size = 4
?Killed@CSqueakGrenade@@EAEXPAUentvars_s@@H@Z PROC	; CSqueakGrenade::Killed, COMDAT
; _this$ = ecx

; 148  : {

	push	ebp
	mov	ebp, esp
	sub	esp, 68					; 00000044H
	push	ebx
	push	esi
	push	edi
	mov	DWORD PTR _this$[ebp], ecx

; 149  : 	pev->model = iStringNull;// make invisible

	mov	eax, DWORD PTR _this$[ebp]
	mov	ecx, DWORD PTR [eax+4]
	mov	DWORD PTR [ecx+184], 0

; 150  : 	SetThink( &CBaseEntity::SUB_Remove );

	push	OFFSET ??_C@_0BJ@EIFNLFLK@?$CGCBaseEntity?3?3SUB_Remove?$AA@
	push	OFFSET ?SUB_Remove@CBaseEntity@@QAEXXZ	; CBaseEntity::SUB_Remove
	mov	ecx, DWORD PTR _this$[ebp]
	call	?ThinkSet@CBaseEntity@@QAEP81@AEXXZP81@AEXXZPAD@Z ; CBaseEntity::ThinkSet

; 151  : 	SetTouch( NULL );

	push	OFFSET ??_C@_04HIBGFPH@NULL?$AA@
	push	0
	mov	ecx, DWORD PTR _this$[ebp]
	call	?TouchSet@CBaseEntity@@QAEP81@AEXPAV1@@ZP81@AEX0@ZPAD@Z ; CBaseEntity::TouchSet

; 152  : 	pev->nextthink = gpGlobals->time + 0.1;

	mov	eax, DWORD PTR ?gpGlobals@@3PAUglobalvars_t@@A ; gpGlobals
	cvtss2sd xmm0, DWORD PTR [eax]
	addsd	xmm0, QWORD PTR __real@3fb999999999999a
	cvtsd2ss xmm0, xmm0
	mov	ecx, DWORD PTR _this$[ebp]
	mov	edx, DWORD PTR [ecx+4]
	movss	DWORD PTR [edx+260], xmm0

; 153  : 
; 154  : 	// since squeak grenades never leave a body behind, clear out their takedamage now.
; 155  : 	// Squeaks do a bit of radius damage when they pop, and that radius damage will
; 156  : 	// continue to call this function unless we acknowledge the Squeak's death now. (sjb)
; 157  : 	pev->takedamage = DAMAGE_NO;

	mov	eax, DWORD PTR _this$[ebp]
	mov	ecx, DWORD PTR [eax+4]
	xorps	xmm0, xmm0
	movss	DWORD PTR [ecx+364], xmm0

; 158  : 
; 159  : 	// play squeek blast
; 160  : 	EMIT_SOUND_DYN(ENT(pev), CHAN_ITEM, "squeek/sqk_blast1.wav", 1, 0.5, 0, PITCH_NORM);	

	push	100					; 00000064H
	push	0
	push	ecx
	movss	xmm0, DWORD PTR __real@3f000000
	movss	DWORD PTR [esp], xmm0
	push	ecx
	movss	xmm0, DWORD PTR __real@3f800000
	movss	DWORD PTR [esp], xmm0
	push	OFFSET ??_C@_0BG@NNACFHOG@squeek?1sqk_blast1?4wav?$AA@
	push	3
	mov	eax, DWORD PTR _this$[ebp]
	mov	ecx, DWORD PTR [eax+4]
	push	ecx
	call	?ENT@@YAPAUedict_s@@PBUentvars_s@@@Z	; ENT
	add	esp, 4
	push	eax
	call	?EMIT_SOUND_DYN@@YAXPAUedict_s@@HPBDMMHH@Z ; EMIT_SOUND_DYN
	add	esp, 28					; 0000001cH

; 161  : 
; 162  : 	CSoundEnt::InsertSound ( bits_SOUND_COMBAT, GetAbsOrigin(), SMALL_EXPLOSION_VOLUME, 3.0 );

	push	0
	push	ecx
	movss	xmm0, DWORD PTR __real@40400000
	movss	DWORD PTR [esp], xmm0
	push	512					; 00000200H
	mov	ecx, DWORD PTR _this$[ebp]
	call	?GetAbsOrigin@CBaseEntity@@QBEABVVector@@XZ ; CBaseEntity::GetAbsOrigin
	push	eax
	push	1
	call	?InsertSound@CSoundEnt@@SAXHABVVector@@HMH@Z ; CSoundEnt::InsertSound
	add	esp, 20					; 00000014H

; 163  : 
; 164  : 	UTIL_BloodDrips( GetAbsOrigin(), g_vecZero, BloodColor(), 80 );

	push	80					; 00000050H
	mov	eax, DWORD PTR _this$[ebp]
	mov	edx, DWORD PTR [eax]
	mov	ecx, DWORD PTR _this$[ebp]
	mov	eax, DWORD PTR [edx+112]
	call	eax
	push	eax
	push	OFFSET ?g_vecZero@@3VVector@@B		; g_vecZero
	mov	ecx, DWORD PTR _this$[ebp]
	call	?GetAbsOrigin@CBaseEntity@@QBEABVVector@@XZ ; CBaseEntity::GetAbsOrigin
	push	eax
	call	?UTIL_BloodDrips@@YAXABVVector@@0HH@Z	; UTIL_BloodDrips
	add	esp, 16					; 00000010H

; 165  : 
; 166  : 	if (m_hOwner != NULL)

	mov	ecx, DWORD PTR _this$[ebp]
	add	ecx, 1796				; 00000704H
	call	??BEHANDLE@@QAEHXZ			; EHANDLE::operator int
	test	eax, eax
	je	SHORT $LN2@Killed

; 167  : 		RadiusDamage ( pev, m_hOwner->pev, pev->dmg, pev->dmg * 2.5, CLASS_NONE, DMG_BLAST );

	push	64					; 00000040H
	push	0
	mov	eax, DWORD PTR _this$[ebp]
	mov	ecx, DWORD PTR [eax+4]
	cvtss2sd xmm0, DWORD PTR [ecx+480]
	mulsd	xmm0, QWORD PTR __real@4004000000000000
	cvtsd2ss xmm0, xmm0
	push	ecx
	movss	DWORD PTR [esp], xmm0
	mov	edx, DWORD PTR _this$[ebp]
	mov	eax, DWORD PTR [edx+4]
	push	ecx
	movss	xmm0, DWORD PTR [eax+480]
	movss	DWORD PTR [esp], xmm0
	mov	ecx, DWORD PTR _this$[ebp]
	add	ecx, 1796				; 00000704H
	call	??CEHANDLE@@QAEPAVCBaseEntity@@XZ	; EHANDLE::operator->
	mov	ecx, DWORD PTR [eax+4]
	push	ecx
	mov	edx, DWORD PTR _this$[ebp]
	mov	eax, DWORD PTR [edx+4]
	push	eax
	mov	ecx, DWORD PTR _this$[ebp]
	call	?RadiusDamage@CBaseMonster@@QAEXPAUentvars_s@@0MMHH@Z ; CBaseMonster::RadiusDamage

; 168  : 	else

	jmp	SHORT $LN3@Killed
$LN2@Killed:

; 169  : 		RadiusDamage ( pev, pev, pev->dmg, pev->dmg * 2.5, CLASS_NONE, DMG_BLAST );

	push	64					; 00000040H
	push	0
	mov	eax, DWORD PTR _this$[ebp]
	mov	ecx, DWORD PTR [eax+4]
	cvtss2sd xmm0, DWORD PTR [ecx+480]
	mulsd	xmm0, QWORD PTR __real@4004000000000000
	cvtsd2ss xmm0, xmm0
	push	ecx
	movss	DWORD PTR [esp], xmm0
	mov	edx, DWORD PTR _this$[ebp]
	mov	eax, DWORD PTR [edx+4]
	push	ecx
	movss	xmm0, DWORD PTR [eax+480]
	movss	DWORD PTR [esp], xmm0
	mov	ecx, DWORD PTR _this$[ebp]
	mov	edx, DWORD PTR [ecx+4]
	push	edx
	mov	eax, DWORD PTR _this$[ebp]
	mov	ecx, DWORD PTR [eax+4]
	push	ecx
	mov	ecx, DWORD PTR _this$[ebp]
	call	?RadiusDamage@CBaseMonster@@QAEXPAUentvars_s@@0MMHH@Z ; CBaseMonster::RadiusDamage
$LN3@Killed:

; 170  : 
; 171  : 	// reset owner so death message happens
; 172  : 	if (m_hOwner != NULL)

	mov	ecx, DWORD PTR _this$[ebp]
	add	ecx, 1796				; 00000704H
	call	??BEHANDLE@@QAEHXZ			; EHANDLE::operator int
	test	eax, eax
	je	SHORT $LN4@Killed

; 173  : 		pev->owner = m_hOwner->edict();

	mov	ecx, DWORD PTR _this$[ebp]
	add	ecx, 1796				; 00000704H
	call	??CEHANDLE@@QAEPAVCBaseEntity@@XZ	; EHANDLE::operator->
	mov	ecx, eax
	call	?edict@CBaseEntity@@QAEPAUedict_s@@XZ	; CBaseEntity::edict
	mov	ecx, DWORD PTR _this$[ebp]
	mov	edx, DWORD PTR [ecx+4]
	mov	DWORD PTR [edx+408], eax
$LN4@Killed:

; 174  : 
; 175  : 	CBaseMonster :: Killed( pevAttacker, GIB_ALWAYS );

	push	2
	mov	eax, DWORD PTR _pevAttacker$[ebp]
	push	eax
	mov	ecx, DWORD PTR _this$[ebp]
	call	?Killed@CBaseMonster@@UAEXPAUentvars_s@@H@Z ; CBaseMonster::Killed

; 176  : }

	pop	edi
	pop	esi
	pop	ebx
	mov	esp, ebp
	pop	ebp
	ret	8
?Killed@CSqueakGrenade@@EAEXPAUentvars_s@@H@Z ENDP	; CSqueakGrenade::Killed
_TEXT	ENDS
; Function compile flags: /Odtp /ZI
; File d:\!diffusion 2020\source code 2022\client-server\server\monsters\entities\monster_snark.cpp
;	COMDAT ?BloodColor@CSqueakGrenade@@EAEHXZ
_TEXT	SEGMENT
_this$ = -4						; size = 4
?BloodColor@CSqueakGrenade@@EAEHXZ PROC			; CSqueakGrenade::BloodColor, COMDAT
; _this$ = ecx

; 45   : 	int  BloodColor( void ) { return BLOOD_COLOR_YELLOW; }

	push	ebp
	mov	ebp, esp
	sub	esp, 68					; 00000044H
	push	ebx
	push	esi
	push	edi
	mov	DWORD PTR _this$[ebp], ecx
	mov	eax, 195				; 000000c3H
	pop	edi
	pop	esi
	pop	ebx
	mov	esp, ebp
	pop	ebp
	ret	0
?BloodColor@CSqueakGrenade@@EAEHXZ ENDP			; CSqueakGrenade::BloodColor
_TEXT	ENDS
; Function compile flags: /Odtp /ZI
; File d:\!diffusion 2020\source code 2022\client-server\server\monsters\entities\monster_snark.cpp
;	COMDAT ?HuntThink@CSqueakGrenade@@AAEXXZ
_TEXT	SEGMENT
tv741 = -340						; size = 8
tv370 = -336						; size = 4
tv261 = -336						; size = 4
$T1 = -332						; size = 12
$T2 = -320						; size = 12
$T3 = -308						; size = 12
$T4 = -296						; size = 12
$T5 = -284						; size = 12
$T6 = -272						; size = 12
$T7 = -260						; size = 12
$T8 = -248						; size = 12
$T9 = -236						; size = 12
_vecAngles$ = -160					; size = 12
_vecVelocity$10 = -148					; size = 12
_vecAvelocity$11 = -136					; size = 12
_vecVelocity$12 = -124					; size = 12
_flAdj$13 = -112					; size = 4
_flVel$14 = -108					; size = 4
_flpitch$ = -104					; size = 4
_vecFlat$ = -100					; size = 12
_tr$ = -88						; size = 56
_vecDir$ = -32						; size = 12
_pOther$ = -20						; size = 4
_vecVelocity$15 = -16					; size = 12
_this$ = -4						; size = 4
?HuntThink@CSqueakGrenade@@AAEXXZ PROC			; CSqueakGrenade::HuntThink, COMDAT
; _this$ = ecx

; 184  : {

	push	ebp
	mov	ebp, esp
	sub	esp, 340				; 00000154H
	push	ebx
	push	esi
	push	edi
	mov	DWORD PTR _this$[ebp], ecx

; 185  : 	// ALERT( at_console, "think\n" );
; 186  : 
; 187  : 	if (!IsInWorld())

	push	1
	mov	eax, DWORD PTR _this$[ebp]
	mov	edx, DWORD PTR [eax]
	mov	ecx, DWORD PTR _this$[ebp]
	mov	eax, DWORD PTR [edx+216]
	call	eax
	test	eax, eax
	jne	SHORT $LN2@HuntThink

; 188  : 	{
; 189  : 		SetTouch( NULL );

	push	OFFSET ??_C@_04HIBGFPH@NULL?$AA@
	push	0
	mov	ecx, DWORD PTR _this$[ebp]
	call	?TouchSet@CBaseEntity@@QAEP81@AEXPAV1@@ZP81@AEX0@ZPAD@Z ; CBaseEntity::TouchSet

; 190  : 		UTIL_Remove( this );

	mov	eax, DWORD PTR _this$[ebp]
	push	eax
	call	?UTIL_Remove@@YAXPAVCBaseEntity@@@Z	; UTIL_Remove
	add	esp, 4

; 191  : 		return;

	jmp	$LN1@HuntThink
$LN2@HuntThink:

; 192  : 	}
; 193  : 	
; 194  : 	StudioFrameAdvance( );

	push	ecx
	xorps	xmm0, xmm0
	movss	DWORD PTR [esp], xmm0
	mov	ecx, DWORD PTR _this$[ebp]
	call	?StudioFrameAdvance@CBaseAnimating@@QAEMM@Z ; CBaseAnimating::StudioFrameAdvance
	fstp	ST(0)

; 195  : 	pev->nextthink = gpGlobals->time + 0.1;

	mov	eax, DWORD PTR ?gpGlobals@@3PAUglobalvars_t@@A ; gpGlobals
	cvtss2sd xmm0, DWORD PTR [eax]
	addsd	xmm0, QWORD PTR __real@3fb999999999999a
	cvtsd2ss xmm0, xmm0
	mov	ecx, DWORD PTR _this$[ebp]
	mov	edx, DWORD PTR [ecx+4]
	movss	DWORD PTR [edx+260], xmm0

; 196  : 
; 197  : 	// explode when ready
; 198  : 	if (gpGlobals->time >= m_flDie)

	mov	eax, DWORD PTR ?gpGlobals@@3PAUglobalvars_t@@A ; gpGlobals
	mov	ecx, DWORD PTR _this$[ebp]
	movss	xmm0, DWORD PTR [eax]
	comiss	xmm0, DWORD PTR [ecx+2516]
	jb	SHORT $LN3@HuntThink

; 199  : 	{
; 200  : 		g_vecAttackDir = GetAbsVelocity().Normalize( );

	lea	eax, DWORD PTR $T9[ebp]
	push	eax
	mov	ecx, DWORD PTR _this$[ebp]
	call	?GetAbsVelocity@CBaseEntity@@QBEABVVector@@XZ ; CBaseEntity::GetAbsVelocity
	mov	ecx, eax
	call	?Normalize@Vector@@QBE?AV1@XZ		; Vector::Normalize
	mov	ecx, DWORD PTR [eax]
	mov	DWORD PTR ?g_vecAttackDir@@3VVector@@A, ecx
	mov	edx, DWORD PTR [eax+4]
	mov	DWORD PTR ?g_vecAttackDir@@3VVector@@A+4, edx
	mov	eax, DWORD PTR [eax+8]
	mov	DWORD PTR ?g_vecAttackDir@@3VVector@@A+8, eax

; 201  : 		pev->health = -1;

	mov	eax, DWORD PTR _this$[ebp]
	mov	ecx, DWORD PTR [eax+4]
	movss	xmm0, DWORD PTR __real@bf800000
	movss	DWORD PTR [ecx+352], xmm0

; 202  : 		Killed( pev, 0 );

	push	0
	mov	eax, DWORD PTR _this$[ebp]
	mov	ecx, DWORD PTR [eax+4]
	push	ecx
	mov	edx, DWORD PTR _this$[ebp]
	mov	eax, DWORD PTR [edx]
	mov	ecx, DWORD PTR _this$[ebp]
	mov	edx, DWORD PTR [eax+108]
	call	edx

; 203  : 		return;

	jmp	$LN1@HuntThink
$LN3@HuntThink:

; 204  : 	}
; 205  : 
; 206  : 	// float
; 207  : 	if (pev->waterlevel != 0)

	mov	eax, DWORD PTR _this$[ebp]
	mov	ecx, DWORD PTR [eax+4]
	cmp	DWORD PTR [ecx+448], 0
	je	SHORT $LN4@HuntThink

; 208  : 	{
; 209  : 		if (pev->movetype == MOVETYPE_BOUNCE)

	mov	eax, DWORD PTR _this$[ebp]
	mov	ecx, DWORD PTR [eax+4]
	cmp	DWORD PTR [ecx+264], 10			; 0000000aH
	jne	SHORT $LN6@HuntThink

; 210  : 		{
; 211  : 			pev->movetype = MOVETYPE_FLY;

	mov	eax, DWORD PTR _this$[ebp]
	mov	ecx, DWORD PTR [eax+4]
	mov	DWORD PTR [ecx+264], 5
$LN6@HuntThink:

; 212  : 		}
; 213  : 		Vector vecVelocity = GetAbsVelocity() * 0.9f;

	push	ecx
	movss	xmm0, DWORD PTR __real@3f666666
	movss	DWORD PTR [esp], xmm0
	lea	eax, DWORD PTR _vecVelocity$15[ebp]
	push	eax
	mov	ecx, DWORD PTR _this$[ebp]
	call	?GetAbsVelocity@CBaseEntity@@QBEABVVector@@XZ ; CBaseEntity::GetAbsVelocity
	mov	ecx, eax
	call	??DVector@@QBE?AV0@M@Z			; Vector::operator*

; 214  : 		vecVelocity.z += 8.0f;

	movss	xmm0, DWORD PTR _vecVelocity$15[ebp+8]
	addss	xmm0, DWORD PTR __real@41000000
	movss	DWORD PTR _vecVelocity$15[ebp+8], xmm0

; 215  : 		SetAbsVelocity( vecVelocity );

	lea	eax, DWORD PTR _vecVelocity$15[ebp]
	push	eax
	mov	ecx, DWORD PTR _this$[ebp]
	call	?SetAbsVelocity@CBaseEntity@@QAEXABVVector@@@Z ; CBaseEntity::SetAbsVelocity
	jmp	SHORT $LN7@HuntThink
$LN4@HuntThink:

; 216  : 	}
; 217  : 	else if (pev->movetype == MOVETYPE_FLY)

	mov	eax, DWORD PTR _this$[ebp]
	mov	ecx, DWORD PTR [eax+4]
	cmp	DWORD PTR [ecx+264], 5
	jne	SHORT $LN7@HuntThink

; 218  : 	{
; 219  : 		pev->movetype = MOVETYPE_BOUNCE;

	mov	eax, DWORD PTR _this$[ebp]
	mov	ecx, DWORD PTR [eax+4]
	mov	DWORD PTR [ecx+264], 10			; 0000000aH
$LN7@HuntThink:

; 220  : 	}
; 221  : 
; 222  : 	// return if not time to hunt
; 223  : 	if (m_flNextHunt > gpGlobals->time)

	mov	eax, DWORD PTR _this$[ebp]
	mov	ecx, DWORD PTR ?gpGlobals@@3PAUglobalvars_t@@A ; gpGlobals
	movss	xmm0, DWORD PTR [eax+2532]
	comiss	xmm0, DWORD PTR [ecx]
	jbe	SHORT $LN8@HuntThink

; 224  : 		return;

	jmp	$LN1@HuntThink
$LN8@HuntThink:

; 225  : 
; 226  : 	m_flNextHunt = gpGlobals->time + 2.0;

	mov	eax, DWORD PTR ?gpGlobals@@3PAUglobalvars_t@@A ; gpGlobals
	cvtss2sd xmm0, DWORD PTR [eax]
	addsd	xmm0, QWORD PTR __real@4000000000000000
	cvtsd2ss xmm0, xmm0
	mov	ecx, DWORD PTR _this$[ebp]
	movss	DWORD PTR [ecx+2532], xmm0

; 227  : 	
; 228  : 	CBaseEntity *pOther = NULL;

	mov	DWORD PTR _pOther$[ebp], 0

; 229  : 	Vector vecDir;

	lea	ecx, DWORD PTR _vecDir$[ebp]
	call	??0Vector@@QAE@XZ			; Vector::Vector

; 230  : 	TraceResult tr;

	lea	ecx, DWORD PTR _tr$[ebp]
	call	??0gametrace_s@@QAE@XZ

; 231  : 
; 232  : 	Vector vecFlat = GetAbsVelocity();

	mov	ecx, DWORD PTR _this$[ebp]
	call	?GetAbsVelocity@CBaseEntity@@QBEABVVector@@XZ ; CBaseEntity::GetAbsVelocity
	push	eax
	lea	ecx, DWORD PTR _vecFlat$[ebp]
	call	??0Vector@@QAE@ABV0@@Z			; Vector::Vector

; 233  : 	vecFlat.z = 0;

	xorps	xmm0, xmm0
	movss	DWORD PTR _vecFlat$[ebp+8], xmm0

; 234  : 	vecFlat = vecFlat.Normalize( );

	lea	eax, DWORD PTR $T8[ebp]
	push	eax
	lea	ecx, DWORD PTR _vecFlat$[ebp]
	call	?Normalize@Vector@@QBE?AV1@XZ		; Vector::Normalize
	mov	ecx, DWORD PTR [eax]
	mov	DWORD PTR _vecFlat$[ebp], ecx
	mov	edx, DWORD PTR [eax+4]
	mov	DWORD PTR _vecFlat$[ebp+4], edx
	mov	eax, DWORD PTR [eax+8]
	mov	DWORD PTR _vecFlat$[ebp+8], eax

; 235  : 
; 236  : 	UTIL_MakeVectors( GetAbsAngles() );

	mov	ecx, DWORD PTR _this$[ebp]
	call	?GetAbsAngles@CBaseEntity@@QBEABVVector@@XZ ; CBaseEntity::GetAbsAngles
	push	eax
	call	?UTIL_MakeVectors@@YAXABVVector@@@Z	; UTIL_MakeVectors
	add	esp, 4

; 237  : 
; 238  : 	if (m_hEnemy == NULL || !m_hEnemy->IsAlive())

	mov	ecx, DWORD PTR _this$[ebp]
	add	ecx, 2000				; 000007d0H
	call	??BEHANDLE@@QAEHXZ			; EHANDLE::operator int
	test	eax, eax
	je	SHORT $LN10@HuntThink
	mov	ecx, DWORD PTR _this$[ebp]
	add	ecx, 2000				; 000007d0H
	call	??CEHANDLE@@QAEPAVCBaseEntity@@XZ	; EHANDLE::operator->
	mov	DWORD PTR tv261[ebp], eax
	mov	eax, DWORD PTR tv261[ebp]
	mov	edx, DWORD PTR [eax]
	mov	ecx, DWORD PTR tv261[ebp]
	mov	eax, DWORD PTR [edx+196]
	call	eax
	test	eax, eax
	jne	SHORT $LN9@HuntThink
$LN10@HuntThink:

; 239  : 	{
; 240  : 		// find target, bounce a bit towards it.
; 241  : 		Look( 512 );

	push	512					; 00000200H
	mov	eax, DWORD PTR _this$[ebp]
	mov	edx, DWORD PTR [eax]
	mov	ecx, DWORD PTR _this$[ebp]
	mov	eax, DWORD PTR [edx+380]
	call	eax

; 242  : 		m_hEnemy = BestVisibleEnemy( );

	mov	eax, DWORD PTR _this$[ebp]
	mov	edx, DWORD PTR [eax]
	mov	ecx, DWORD PTR _this$[ebp]
	mov	eax, DWORD PTR [edx+420]
	call	eax
	push	eax
	mov	ecx, DWORD PTR _this$[ebp]
	add	ecx, 2000				; 000007d0H
	call	??4EHANDLE@@QAEPAVCBaseEntity@@PAV1@@Z	; EHANDLE::operator=
$LN9@HuntThink:

; 243  : 	}
; 244  : 
; 245  : 	// squeek if it's about time blow up
; 246  : 	if ((m_flDie - gpGlobals->time <= 0.5) && (m_flDie - gpGlobals->time >= 0.3))

	mov	eax, DWORD PTR _this$[ebp]
	mov	ecx, DWORD PTR ?gpGlobals@@3PAUglobalvars_t@@A ; gpGlobals
	movss	xmm0, DWORD PTR [eax+2516]
	subss	xmm0, DWORD PTR [ecx]
	cvtss2sd xmm0, xmm0
	movsd	xmm1, QWORD PTR __real@3fe0000000000000
	comisd	xmm1, xmm0
	jb	$LN11@HuntThink
	mov	eax, DWORD PTR _this$[ebp]
	mov	ecx, DWORD PTR ?gpGlobals@@3PAUglobalvars_t@@A ; gpGlobals
	movss	xmm0, DWORD PTR [eax+2516]
	subss	xmm0, DWORD PTR [ecx]
	cvtss2sd xmm0, xmm0
	comisd	xmm0, QWORD PTR __real@3fd3333333333333
	jb	SHORT $LN11@HuntThink

; 247  : 	{
; 248  : 		EMIT_SOUND_DYN(ENT(pev), CHAN_VOICE, "squeek/sqk_die1.wav", 1, ATTN_NORM, 0, 100 + RANDOM_LONG(0,0x3F));

	push	63					; 0000003fH
	push	0
	call	DWORD PTR ?g_engfuncs@@3Uenginefuncs_s@@A+360
	add	esp, 8
	add	eax, 100				; 00000064H
	push	eax
	push	0
	push	ecx
	movss	xmm0, DWORD PTR __real@3f4ccccd
	movss	DWORD PTR [esp], xmm0
	push	ecx
	movss	xmm0, DWORD PTR __real@3f800000
	movss	DWORD PTR [esp], xmm0
	push	OFFSET ??_C@_0BE@DCEHNJFM@squeek?1sqk_die1?4wav?$AA@
	push	2
	mov	eax, DWORD PTR _this$[ebp]
	mov	ecx, DWORD PTR [eax+4]
	push	ecx
	call	?ENT@@YAPAUedict_s@@PBUentvars_s@@@Z	; ENT
	add	esp, 4
	push	eax
	call	?EMIT_SOUND_DYN@@YAXPAUedict_s@@HPBDMMHH@Z ; EMIT_SOUND_DYN
	add	esp, 28					; 0000001cH

; 249  : 		CSoundEnt::InsertSound ( bits_SOUND_COMBAT, GetAbsOrigin(), 256, 0.25 );

	push	0
	push	ecx
	movss	xmm0, DWORD PTR __real@3e800000
	movss	DWORD PTR [esp], xmm0
	push	256					; 00000100H
	mov	ecx, DWORD PTR _this$[ebp]
	call	?GetAbsOrigin@CBaseEntity@@QBEABVVector@@XZ ; CBaseEntity::GetAbsOrigin
	push	eax
	push	1
	call	?InsertSound@CSoundEnt@@SAXHABVVector@@HMH@Z ; CSoundEnt::InsertSound
	add	esp, 20					; 00000014H
$LN11@HuntThink:

; 250  : 	}
; 251  : 
; 252  : 	// higher pitch as squeeker gets closer to detonation time
; 253  : 	float flpitch = 155.0 - 60.0 * ((m_flDie - gpGlobals->time) / SQUEEK_DETONATE_DELAY);

	mov	eax, DWORD PTR _this$[ebp]
	mov	ecx, DWORD PTR ?gpGlobals@@3PAUglobalvars_t@@A ; gpGlobals
	movss	xmm0, DWORD PTR [eax+2516]
	subss	xmm0, DWORD PTR [ecx]
	cvtss2sd xmm0, xmm0
	divsd	xmm0, QWORD PTR __real@402e000000000000
	mulsd	xmm0, QWORD PTR __real@404e000000000000
	movsd	xmm1, QWORD PTR __real@4063600000000000
	subsd	xmm1, xmm0
	cvtsd2ss xmm0, xmm1
	movss	DWORD PTR _flpitch$[ebp], xmm0

; 254  : 	if (flpitch < 80)

	movss	xmm0, DWORD PTR __real@42a00000
	comiss	xmm0, DWORD PTR _flpitch$[ebp]
	jbe	SHORT $LN12@HuntThink

; 255  : 		flpitch = 80;

	movss	xmm0, DWORD PTR __real@42a00000
	movss	DWORD PTR _flpitch$[ebp], xmm0
$LN12@HuntThink:

; 256  : 
; 257  : 	if (m_hEnemy != NULL)

	mov	ecx, DWORD PTR _this$[ebp]
	add	ecx, 2000				; 000007d0H
	call	??BEHANDLE@@QAEHXZ			; EHANDLE::operator int
	test	eax, eax
	je	$LN13@HuntThink

; 258  : 	{
; 259  : 		if (FVisible( m_hEnemy ))

	mov	ecx, DWORD PTR _this$[ebp]
	add	ecx, 2000				; 000007d0H
	call	??BEHANDLE@@QAEPAVCBaseEntity@@XZ	; EHANDLE::operator CBaseEntity *
	push	eax
	mov	eax, DWORD PTR _this$[ebp]
	mov	edx, DWORD PTR [eax]
	mov	ecx, DWORD PTR _this$[ebp]
	mov	eax, DWORD PTR [edx+364]
	call	eax
	test	eax, eax
	je	$LN14@HuntThink

; 260  : 		{
; 261  : 			vecDir = m_hEnemy->EyePosition() - GetAbsOrigin();

	mov	ecx, DWORD PTR _this$[ebp]
	add	ecx, 2000				; 000007d0H
	call	??CEHANDLE@@QAEPAVCBaseEntity@@XZ	; EHANDLE::operator->
	mov	DWORD PTR tv370[ebp], eax
	mov	ecx, DWORD PTR _this$[ebp]
	call	?GetAbsOrigin@CBaseEntity@@QBEABVVector@@XZ ; CBaseEntity::GetAbsOrigin
	push	eax
	lea	eax, DWORD PTR $T6[ebp]
	push	eax
	lea	ecx, DWORD PTR $T7[ebp]
	push	ecx
	mov	edx, DWORD PTR tv370[ebp]
	mov	eax, DWORD PTR [edx]
	mov	ecx, DWORD PTR tv370[ebp]
	mov	edx, DWORD PTR [eax+340]
	call	edx
	mov	ecx, eax
	call	??GVector@@QBE?AV0@ABV0@@Z		; Vector::operator-
	mov	ecx, DWORD PTR [eax]
	mov	DWORD PTR _vecDir$[ebp], ecx
	mov	edx, DWORD PTR [eax+4]
	mov	DWORD PTR _vecDir$[ebp+4], edx
	mov	eax, DWORD PTR [eax+8]
	mov	DWORD PTR _vecDir$[ebp+8], eax

; 262  : 			m_vecTarget = vecDir.Normalize( );

	lea	eax, DWORD PTR $T5[ebp]
	push	eax
	lea	ecx, DWORD PTR _vecDir$[ebp]
	call	?Normalize@Vector@@QBE?AV1@XZ		; Vector::Normalize
	mov	ecx, DWORD PTR _this$[ebp]
	add	ecx, 2520				; 000009d8H
	mov	edx, DWORD PTR [eax]
	mov	DWORD PTR [ecx], edx
	mov	edx, DWORD PTR [eax+4]
	mov	DWORD PTR [ecx+4], edx
	mov	eax, DWORD PTR [eax+8]
	mov	DWORD PTR [ecx+8], eax
$LN14@HuntThink:

; 263  : 		}
; 264  : 
; 265  : 		float flVel = GetAbsVelocity().Length();

	mov	ecx, DWORD PTR _this$[ebp]
	call	?GetAbsVelocity@CBaseEntity@@QBEABVVector@@XZ ; CBaseEntity::GetAbsVelocity
	mov	ecx, eax
	call	?Length@Vector@@QBEMXZ			; Vector::Length
	fstp	DWORD PTR _flVel$14[ebp]

; 266  : 		float flAdj = 50.0 / (flVel + 10.0);

	cvtss2sd xmm0, DWORD PTR _flVel$14[ebp]
	addsd	xmm0, QWORD PTR __real@4024000000000000
	movsd	xmm1, QWORD PTR __real@4049000000000000
	divsd	xmm1, xmm0
	cvtsd2ss xmm0, xmm1
	movss	DWORD PTR _flAdj$13[ebp], xmm0

; 267  : 
; 268  : 		if (flAdj > 1.2)

	cvtss2sd xmm0, DWORD PTR _flAdj$13[ebp]
	comisd	xmm0, QWORD PTR __real@3ff3333333333333
	jbe	SHORT $LN15@HuntThink

; 269  : 			flAdj = 1.2;

	movss	xmm0, DWORD PTR __real@3f99999a
	movss	DWORD PTR _flAdj$13[ebp], xmm0
$LN15@HuntThink:

; 270  : 		
; 271  : 		// ALERT( at_console, "think : enemy\n");
; 272  : 
; 273  : 		// ALERT( at_console, "%.0f %.2f %.2f %.2f\n", flVel, m_vecTarget.x, m_vecTarget.y, m_vecTarget.z );
; 274  : 		Vector vecVelocity = GetAbsVelocity();

	mov	ecx, DWORD PTR _this$[ebp]
	call	?GetAbsVelocity@CBaseEntity@@QBEABVVector@@XZ ; CBaseEntity::GetAbsVelocity
	push	eax
	lea	ecx, DWORD PTR _vecVelocity$12[ebp]
	call	??0Vector@@QAE@ABV0@@Z			; Vector::Vector

; 275  : 
; 276  : 		SetAbsVelocity( vecVelocity * flAdj + m_vecTarget * 300 );

	push	ecx
	movss	xmm0, DWORD PTR __real@43960000
	movss	DWORD PTR [esp], xmm0
	lea	eax, DWORD PTR $T3[ebp]
	push	eax
	mov	ecx, DWORD PTR _this$[ebp]
	add	ecx, 2520				; 000009d8H
	call	??DVector@@QBE?AV0@M@Z			; Vector::operator*
	push	eax
	lea	ecx, DWORD PTR $T2[ebp]
	push	ecx
	push	ecx
	movss	xmm0, DWORD PTR _flAdj$13[ebp]
	movss	DWORD PTR [esp], xmm0
	lea	edx, DWORD PTR $T4[ebp]
	push	edx
	lea	ecx, DWORD PTR _vecVelocity$12[ebp]
	call	??DVector@@QBE?AV0@M@Z			; Vector::operator*
	mov	ecx, eax
	call	??HVector@@QBE?AV0@ABV0@@Z		; Vector::operator+
	push	eax
	mov	ecx, DWORD PTR _this$[ebp]
	call	?SetAbsVelocity@CBaseEntity@@QAEXABVVector@@@Z ; CBaseEntity::SetAbsVelocity
$LN13@HuntThink:

; 277  : 	}
; 278  : 
; 279  : 	if (pev->flags & FL_ONGROUND)

	mov	eax, DWORD PTR _this$[ebp]
	mov	ecx, DWORD PTR [eax+4]
	mov	edx, DWORD PTR [ecx+420]
	and	edx, 512				; 00000200H
	je	SHORT $LN16@HuntThink

; 280  : 	{
; 281  : 		SetLocalAvelocity( g_vecZero );

	push	OFFSET ?g_vecZero@@3VVector@@B		; g_vecZero
	mov	ecx, DWORD PTR _this$[ebp]
	call	?SetLocalAvelocity@CBaseEntity@@QAEXABVVector@@@Z ; CBaseEntity::SetLocalAvelocity

; 282  : 	}
; 283  : 	else

	jmp	$LN18@HuntThink
$LN16@HuntThink:

; 284  : 	{
; 285  : 		if (GetLocalAvelocity() == g_vecZero)

	push	OFFSET ?g_vecZero@@3VVector@@B		; g_vecZero
	mov	ecx, DWORD PTR _this$[ebp]
	call	?GetLocalAvelocity@CBaseEntity@@QBEABVVector@@XZ ; CBaseEntity::GetLocalAvelocity
	mov	ecx, eax
	call	??8Vector@@QBEHABV0@@Z			; Vector::operator==
	test	eax, eax
	je	SHORT $LN18@HuntThink

; 286  : 		{
; 287  : 			Vector vecAvelocity;

	lea	ecx, DWORD PTR _vecAvelocity$11[ebp]
	call	??0Vector@@QAE@XZ			; Vector::Vector

; 288  : 			vecAvelocity.x = RANDOM_FLOAT( -100, 100 );

	push	ecx
	movss	xmm0, DWORD PTR __real@42c80000
	movss	DWORD PTR [esp], xmm0
	push	ecx
	movss	xmm0, DWORD PTR __real@c2c80000
	movss	DWORD PTR [esp], xmm0
	call	DWORD PTR ?g_engfuncs@@3Uenginefuncs_s@@A+364
	add	esp, 8
	fstp	DWORD PTR _vecAvelocity$11[ebp]

; 289  : 			vecAvelocity.z = RANDOM_FLOAT( -100, 100 );

	push	ecx
	movss	xmm0, DWORD PTR __real@42c80000
	movss	DWORD PTR [esp], xmm0
	push	ecx
	movss	xmm0, DWORD PTR __real@c2c80000
	movss	DWORD PTR [esp], xmm0
	call	DWORD PTR ?g_engfuncs@@3Uenginefuncs_s@@A+364
	add	esp, 8
	fstp	DWORD PTR _vecAvelocity$11[ebp+8]

; 290  : 			vecAvelocity.y = 0;

	xorps	xmm0, xmm0
	movss	DWORD PTR _vecAvelocity$11[ebp+4], xmm0

; 291  : 			SetLocalAvelocity( vecAvelocity );

	lea	eax, DWORD PTR _vecAvelocity$11[ebp]
	push	eax
	mov	ecx, DWORD PTR _this$[ebp]
	call	?SetLocalAvelocity@CBaseEntity@@QAEXABVVector@@@Z ; CBaseEntity::SetLocalAvelocity
$LN18@HuntThink:

; 292  : 		}
; 293  : 	}
; 294  : 
; 295  : 	if ((GetAbsOrigin() - m_posPrev).Length() < 1.0)

	mov	eax, DWORD PTR _this$[ebp]
	add	eax, 2540				; 000009ecH
	push	eax
	lea	ecx, DWORD PTR $T1[ebp]
	push	ecx
	mov	ecx, DWORD PTR _this$[ebp]
	call	?GetAbsOrigin@CBaseEntity@@QBEABVVector@@XZ ; CBaseEntity::GetAbsOrigin
	mov	ecx, eax
	call	??GVector@@QBE?AV0@ABV0@@Z		; Vector::operator-
	mov	ecx, eax
	call	?Length@Vector@@QBEMXZ			; Vector::Length
	fstp	QWORD PTR tv741[ebp]
	movsd	xmm0, QWORD PTR __real@3ff0000000000000
	comisd	xmm0, QWORD PTR tv741[ebp]
	jbe	SHORT $LN19@HuntThink

; 296  : 	{
; 297  : 		Vector vecVelocity;

	lea	ecx, DWORD PTR _vecVelocity$10[ebp]
	call	??0Vector@@QAE@XZ			; Vector::Vector

; 298  : 		vecVelocity.x = RANDOM_FLOAT( -100, 100 );

	push	ecx
	movss	xmm0, DWORD PTR __real@42c80000
	movss	DWORD PTR [esp], xmm0
	push	ecx
	movss	xmm0, DWORD PTR __real@c2c80000
	movss	DWORD PTR [esp], xmm0
	call	DWORD PTR ?g_engfuncs@@3Uenginefuncs_s@@A+364
	add	esp, 8
	fstp	DWORD PTR _vecVelocity$10[ebp]

; 299  : 		vecVelocity.y = RANDOM_FLOAT( -100, 100 );

	push	ecx
	movss	xmm0, DWORD PTR __real@42c80000
	movss	DWORD PTR [esp], xmm0
	push	ecx
	movss	xmm0, DWORD PTR __real@c2c80000
	movss	DWORD PTR [esp], xmm0
	call	DWORD PTR ?g_engfuncs@@3Uenginefuncs_s@@A+364
	add	esp, 8
	fstp	DWORD PTR _vecVelocity$10[ebp+4]

; 300  : 		vecVelocity.z = 0;

	xorps	xmm0, xmm0
	movss	DWORD PTR _vecVelocity$10[ebp+8], xmm0

; 301  : 		SetAbsVelocity( vecVelocity );

	lea	eax, DWORD PTR _vecVelocity$10[ebp]
	push	eax
	mov	ecx, DWORD PTR _this$[ebp]
	call	?SetAbsVelocity@CBaseEntity@@QAEXABVVector@@@Z ; CBaseEntity::SetAbsVelocity
$LN19@HuntThink:

; 302  : 	}
; 303  : 	m_posPrev = GetAbsOrigin();

	mov	ecx, DWORD PTR _this$[ebp]
	call	?GetAbsOrigin@CBaseEntity@@QBEABVVector@@XZ ; CBaseEntity::GetAbsOrigin
	mov	ecx, DWORD PTR _this$[ebp]
	add	ecx, 2540				; 000009ecH
	mov	edx, DWORD PTR [eax]
	mov	DWORD PTR [ecx], edx
	mov	edx, DWORD PTR [eax+4]
	mov	DWORD PTR [ecx+4], edx
	mov	eax, DWORD PTR [eax+8]
	mov	DWORD PTR [ecx+8], eax

; 304  : 
; 305  : 	Vector vecAngles = UTIL_VecToAngles( GetAbsVelocity() );

	mov	ecx, DWORD PTR _this$[ebp]
	call	?GetAbsVelocity@CBaseEntity@@QBEABVVector@@XZ ; CBaseEntity::GetAbsVelocity
	push	eax
	lea	eax, DWORD PTR _vecAngles$[ebp]
	push	eax
	call	?UTIL_VecToAngles@@YA?AVVector@@ABV1@@Z	; UTIL_VecToAngles
	add	esp, 8

; 306  : 	vecAngles.z = 0;

	xorps	xmm0, xmm0
	movss	DWORD PTR _vecAngles$[ebp+8], xmm0

; 307  : 	vecAngles.x = 0;

	xorps	xmm0, xmm0
	movss	DWORD PTR _vecAngles$[ebp], xmm0

; 308  : 	SetAbsAngles( vecAngles );

	lea	eax, DWORD PTR _vecAngles$[ebp]
	push	eax
	mov	ecx, DWORD PTR _this$[ebp]
	call	?SetAbsAngles@CBaseEntity@@QAEXABVVector@@@Z ; CBaseEntity::SetAbsAngles
$LN1@HuntThink:

; 309  : }

	pop	edi
	pop	esi
	pop	ebx
	mov	esp, ebp
	pop	ebp
	ret	0
?HuntThink@CSqueakGrenade@@AAEXXZ ENDP			; CSqueakGrenade::HuntThink
_TEXT	ENDS
; Function compile flags: /Odtp /ZI
; File d:\!diffusion 2020\source code 2022\client-server\server\monsters\entities\monster_snark.cpp
;	COMDAT ?SuperBounceTouch@CSqueakGrenade@@AAEXPAVCBaseEntity@@@Z
_TEXT	SEGMENT
$T1 = -256						; size = 56
$T2 = -200						; size = 56
_flRndSound$3 = -80					; size = 4
_vecAngles$ = -76					; size = 12
_tr$ = -64						; size = 56
_flpitch$ = -8						; size = 4
_this$ = -4						; size = 4
_pOther$ = 8						; size = 4
?SuperBounceTouch@CSqueakGrenade@@AAEXPAVCBaseEntity@@@Z PROC ; CSqueakGrenade::SuperBounceTouch, COMDAT
; _this$ = ecx

; 312  : {

	push	ebp
	mov	ebp, esp
	sub	esp, 260				; 00000104H
	push	ebx
	push	esi
	push	edi
	mov	DWORD PTR _this$[ebp], ecx

; 313  : 	float	flpitch;
; 314  : 
; 315  : 	TraceResult tr = UTIL_GetGlobalTrace( );

	lea	eax, DWORD PTR $T1[ebp]
	push	eax
	call	?UTIL_GetGlobalTrace@@YA?AUgametrace_s@@XZ ; UTIL_GetGlobalTrace
	add	esp, 4
	mov	ecx, 14					; 0000000eH
	mov	esi, eax
	lea	edi, DWORD PTR $T2[ebp]
	rep movsd
	lea	ecx, DWORD PTR $T2[ebp]
	push	ecx
	lea	ecx, DWORD PTR _tr$[ebp]
	call	??0gametrace_s@@QAE@$$QAU0@@Z

; 316  : 
; 317  : 	// don't hit the guy that launched this grenade
; 318  : 	if ( pev->owner && pOther->edict() == pev->owner )

	mov	eax, DWORD PTR _this$[ebp]
	mov	ecx, DWORD PTR [eax+4]
	cmp	DWORD PTR [ecx+408], 0
	je	SHORT $LN2@SuperBounc
	mov	ecx, DWORD PTR _pOther$[ebp]
	call	?edict@CBaseEntity@@QAEPAUedict_s@@XZ	; CBaseEntity::edict
	mov	ecx, DWORD PTR _this$[ebp]
	mov	edx, DWORD PTR [ecx+4]
	cmp	eax, DWORD PTR [edx+408]
	jne	SHORT $LN2@SuperBounc

; 319  : 		return;

	jmp	$LN1@SuperBounc
$LN2@SuperBounc:

; 320  : 
; 321  : 	// at least until we've bounced once
; 322  : 	pev->owner = NULL;

	mov	eax, DWORD PTR _this$[ebp]
	mov	ecx, DWORD PTR [eax+4]
	mov	DWORD PTR [ecx+408], 0

; 323  : 
; 324  : 	Vector vecAngles = GetAbsAngles();

	mov	ecx, DWORD PTR _this$[ebp]
	call	?GetAbsAngles@CBaseEntity@@QBEABVVector@@XZ ; CBaseEntity::GetAbsAngles
	push	eax
	lea	ecx, DWORD PTR _vecAngles$[ebp]
	call	??0Vector@@QAE@ABV0@@Z			; Vector::Vector

; 325  : 
; 326  : 	vecAngles.x = 0;

	xorps	xmm0, xmm0
	movss	DWORD PTR _vecAngles$[ebp], xmm0

; 327  : 	vecAngles.z = 0;

	xorps	xmm0, xmm0
	movss	DWORD PTR _vecAngles$[ebp+8], xmm0

; 328  : 
; 329  : 	SetAbsAngles( vecAngles );

	lea	eax, DWORD PTR _vecAngles$[ebp]
	push	eax
	mov	ecx, DWORD PTR _this$[ebp]
	call	?SetAbsAngles@CBaseEntity@@QAEXABVVector@@@Z ; CBaseEntity::SetAbsAngles

; 330  : 
; 331  : 	// avoid bouncing too much
; 332  : 	if (m_flNextHit > gpGlobals->time)

	mov	eax, DWORD PTR _this$[ebp]
	mov	ecx, DWORD PTR ?gpGlobals@@3PAUglobalvars_t@@A ; gpGlobals
	movss	xmm0, DWORD PTR [eax+2536]
	comiss	xmm0, DWORD PTR [ecx]
	jbe	SHORT $LN3@SuperBounc

; 333  : 		return;

	jmp	$LN1@SuperBounc
$LN3@SuperBounc:

; 334  : 
; 335  : 	// higher pitch as squeeker gets closer to detonation time
; 336  : 	flpitch = 155.0 - 60.0 * ((m_flDie - gpGlobals->time) / SQUEEK_DETONATE_DELAY);

	mov	eax, DWORD PTR _this$[ebp]
	mov	ecx, DWORD PTR ?gpGlobals@@3PAUglobalvars_t@@A ; gpGlobals
	movss	xmm0, DWORD PTR [eax+2516]
	subss	xmm0, DWORD PTR [ecx]
	cvtss2sd xmm0, xmm0
	divsd	xmm0, QWORD PTR __real@402e000000000000
	mulsd	xmm0, QWORD PTR __real@404e000000000000
	movsd	xmm1, QWORD PTR __real@4063600000000000
	subsd	xmm1, xmm0
	cvtsd2ss xmm0, xmm1
	movss	DWORD PTR _flpitch$[ebp], xmm0

; 337  : 
; 338  : 	if ( pOther->pev->takedamage && m_flNextAttack < gpGlobals->time )

	mov	eax, DWORD PTR _pOther$[ebp]
	mov	ecx, DWORD PTR [eax+4]
	movss	xmm0, DWORD PTR [ecx+364]
	ucomiss	xmm0, DWORD PTR __real@00000000
	lahf
	test	ah, 68					; 00000044H
	jnp	$LN5@SuperBounc
	mov	eax, DWORD PTR ?gpGlobals@@3PAUglobalvars_t@@A ; gpGlobals
	mov	ecx, DWORD PTR _this$[ebp]
	movss	xmm0, DWORD PTR [eax]
	comiss	xmm0, DWORD PTR [ecx+2348]
	jbe	$LN5@SuperBounc

; 339  : 	{
; 340  : 		// attack!
; 341  : 
; 342  : 		// make sure it's me who has touched them
; 343  : 		if (tr.pHit == pOther->edict())

	mov	ecx, DWORD PTR _pOther$[ebp]
	call	?edict@CBaseEntity@@QAEPAUedict_s@@XZ	; CBaseEntity::edict
	cmp	DWORD PTR _tr$[ebp+48], eax
	jne	$LN5@SuperBounc

; 344  : 		{
; 345  : 			// and it's not another squeakgrenade
; 346  : 			if (tr.pHit->v.modelindex != pev->modelindex)

	mov	eax, DWORD PTR _this$[ebp]
	mov	ecx, DWORD PTR [eax+4]
	mov	edx, DWORD PTR _tr$[ebp+48]
	mov	eax, DWORD PTR [edx+308]
	cmp	eax, DWORD PTR [ecx+180]
	je	$LN7@SuperBounc

; 347  : 			{
; 348  : 				// ALERT( at_console, "hit enemy\n");
; 349  : 				ClearMultiDamage( );

	call	?ClearMultiDamage@@YAXXZ		; ClearMultiDamage

; 350  : 				pOther->TraceAttack(pev, gSkillData.snarkDmgBite, gpGlobals->v_forward, &tr, DMG_SLASH ); 

	push	4
	lea	eax, DWORD PTR _tr$[ebp]
	push	eax
	mov	ecx, DWORD PTR ?gpGlobals@@3PAUglobalvars_t@@A ; gpGlobals
	add	ecx, 40					; 00000028H
	sub	esp, 12					; 0000000cH
	mov	edx, esp
	push	ecx
	mov	ecx, edx
	call	??0Vector@@QAE@ABV0@@Z			; Vector::Vector
	push	ecx
	movss	xmm0, DWORD PTR ?gSkillData@@3Uskilldata_t@@A+208
	movss	DWORD PTR [esp], xmm0
	mov	eax, DWORD PTR _this$[ebp]
	mov	ecx, DWORD PTR [eax+4]
	push	ecx
	mov	edx, DWORD PTR _pOther$[ebp]
	mov	eax, DWORD PTR [edx]
	mov	ecx, DWORD PTR _pOther$[ebp]
	mov	edx, DWORD PTR [eax+92]
	call	edx

; 351  : 				if (m_hOwner != NULL)

	mov	ecx, DWORD PTR _this$[ebp]
	add	ecx, 1796				; 00000704H
	call	??BEHANDLE@@QAEHXZ			; EHANDLE::operator int
	test	eax, eax
	je	SHORT $LN8@SuperBounc

; 352  : 					ApplyMultiDamage( pev, m_hOwner->pev );

	mov	ecx, DWORD PTR _this$[ebp]
	add	ecx, 1796				; 00000704H
	call	??CEHANDLE@@QAEPAVCBaseEntity@@XZ	; EHANDLE::operator->
	mov	eax, DWORD PTR [eax+4]
	push	eax
	mov	ecx, DWORD PTR _this$[ebp]
	mov	edx, DWORD PTR [ecx+4]
	push	edx
	call	?ApplyMultiDamage@@YAXPAUentvars_s@@0@Z	; ApplyMultiDamage
	add	esp, 8

; 353  : 				else

	jmp	SHORT $LN9@SuperBounc
$LN8@SuperBounc:

; 354  : 					ApplyMultiDamage( pev, pev );

	mov	eax, DWORD PTR _this$[ebp]
	mov	ecx, DWORD PTR [eax+4]
	push	ecx
	mov	edx, DWORD PTR _this$[ebp]
	mov	eax, DWORD PTR [edx+4]
	push	eax
	call	?ApplyMultiDamage@@YAXPAUentvars_s@@0@Z	; ApplyMultiDamage
	add	esp, 8
$LN9@SuperBounc:

; 355  : 
; 356  : 				pev->dmg += gSkillData.snarkDmgPop; // add more explosion damage

	mov	eax, DWORD PTR _this$[ebp]
	mov	ecx, DWORD PTR [eax+4]
	movss	xmm0, DWORD PTR [ecx+480]
	addss	xmm0, DWORD PTR ?gSkillData@@3Uskilldata_t@@A+212
	mov	edx, DWORD PTR _this$[ebp]
	mov	eax, DWORD PTR [edx+4]
	movss	DWORD PTR [eax+480], xmm0

; 357  : 				// m_flDie += 2.0; // add more life
; 358  : 
; 359  : 				// make bite sound
; 360  : 				EMIT_SOUND_DYN(ENT(pev), CHAN_WEAPON, "squeek/sqk_deploy1.wav", 1.0, ATTN_NORM, 0, (int)flpitch);

	cvttss2si eax, DWORD PTR _flpitch$[ebp]
	push	eax
	push	0
	push	ecx
	movss	xmm0, DWORD PTR __real@3f4ccccd
	movss	DWORD PTR [esp], xmm0
	push	ecx
	movss	xmm0, DWORD PTR __real@3f800000
	movss	DWORD PTR [esp], xmm0
	push	OFFSET ??_C@_0BH@OCBJNBFI@squeek?1sqk_deploy1?4wav?$AA@
	push	1
	mov	ecx, DWORD PTR _this$[ebp]
	mov	edx, DWORD PTR [ecx+4]
	push	edx
	call	?ENT@@YAPAUedict_s@@PBUentvars_s@@@Z	; ENT
	add	esp, 4
	push	eax
	call	?EMIT_SOUND_DYN@@YAXPAUedict_s@@HPBDMMHH@Z ; EMIT_SOUND_DYN
	add	esp, 28					; 0000001cH

; 361  : 				m_flNextAttack = gpGlobals->time + 0.5;

	mov	eax, DWORD PTR ?gpGlobals@@3PAUglobalvars_t@@A ; gpGlobals
	cvtss2sd xmm0, DWORD PTR [eax]
	addsd	xmm0, QWORD PTR __real@3fe0000000000000
	cvtsd2ss xmm0, xmm0
	mov	ecx, DWORD PTR _this$[ebp]
	movss	DWORD PTR [ecx+2348], xmm0
$LN7@SuperBounc:
$LN5@SuperBounc:

; 362  : 			}
; 363  : 		}
; 364  : 		else
; 365  : 		{
; 366  : 			// ALERT( at_console, "been hit\n");
; 367  : 		}
; 368  : 	}
; 369  : 
; 370  : 	m_flNextHit = gpGlobals->time + 0.1;

	mov	eax, DWORD PTR ?gpGlobals@@3PAUglobalvars_t@@A ; gpGlobals
	cvtss2sd xmm0, DWORD PTR [eax]
	addsd	xmm0, QWORD PTR __real@3fb999999999999a
	cvtsd2ss xmm0, xmm0
	mov	ecx, DWORD PTR _this$[ebp]
	movss	DWORD PTR [ecx+2536], xmm0

; 371  : 	m_flNextHunt = gpGlobals->time;

	mov	eax, DWORD PTR _this$[ebp]
	mov	ecx, DWORD PTR ?gpGlobals@@3PAUglobalvars_t@@A ; gpGlobals
	mov	edx, DWORD PTR [ecx]
	mov	DWORD PTR [eax+2532], edx

; 372  : 
; 373  : 	if ( g_pGameRules->IsMultiplayer() )

	mov	eax, DWORD PTR ?g_pGameRules@@3PAVCGameRules@@A ; g_pGameRules
	mov	edx, DWORD PTR [eax]
	mov	ecx, DWORD PTR ?g_pGameRules@@3PAVCGameRules@@A ; g_pGameRules
	mov	eax, DWORD PTR [edx+24]
	call	eax
	test	eax, eax
	je	SHORT $LN11@SuperBounc

; 374  : 	{
; 375  : 		// in multiplayer, we limit how often snarks can make their bounce sounds to prevent overflows.
; 376  : 		if ( gpGlobals->time < m_flNextBounceSoundTime )

	mov	eax, DWORD PTR ?gpGlobals@@3PAUglobalvars_t@@A ; gpGlobals
	movss	xmm0, DWORD PTR ?m_flNextBounceSoundTime@CSqueakGrenade@@0MA
	comiss	xmm0, DWORD PTR [eax]
	jbe	SHORT $LN11@SuperBounc

; 377  : 		{
; 378  : 			// too soon!
; 379  : 			return;

	jmp	$LN1@SuperBounc
$LN11@SuperBounc:

; 380  : 		}
; 381  : 	}
; 382  : 
; 383  : 	if (!(pev->flags & FL_ONGROUND))

	mov	eax, DWORD PTR _this$[ebp]
	mov	ecx, DWORD PTR [eax+4]
	mov	edx, DWORD PTR [ecx+420]
	and	edx, 512				; 00000200H
	jne	$LN12@SuperBounc

; 384  : 	{
; 385  : 		// play bounce sound
; 386  : 		float flRndSound = RANDOM_FLOAT ( 0 , 1 );

	push	ecx
	movss	xmm0, DWORD PTR __real@3f800000
	movss	DWORD PTR [esp], xmm0
	push	ecx
	xorps	xmm0, xmm0
	movss	DWORD PTR [esp], xmm0
	call	DWORD PTR ?g_engfuncs@@3Uenginefuncs_s@@A+364
	add	esp, 8
	fstp	DWORD PTR _flRndSound$3[ebp]

; 387  : 
; 388  : 		if ( flRndSound <= 0.33 )

	cvtss2sd xmm0, DWORD PTR _flRndSound$3[ebp]
	movsd	xmm1, QWORD PTR __real@3fd51eb851eb851f
	comisd	xmm1, xmm0
	jb	SHORT $LN14@SuperBounc

; 389  : 			EMIT_SOUND_DYN(ENT(pev), CHAN_VOICE, "squeek/sqk_hunt1.wav", 1, ATTN_NORM, 0, (int)flpitch);		

	cvttss2si eax, DWORD PTR _flpitch$[ebp]
	push	eax
	push	0
	push	ecx
	movss	xmm0, DWORD PTR __real@3f4ccccd
	movss	DWORD PTR [esp], xmm0
	push	ecx
	movss	xmm0, DWORD PTR __real@3f800000
	movss	DWORD PTR [esp], xmm0
	push	OFFSET ??_C@_0BF@KLIDDDFH@squeek?1sqk_hunt1?4wav?$AA@
	push	2
	mov	ecx, DWORD PTR _this$[ebp]
	mov	edx, DWORD PTR [ecx+4]
	push	edx
	call	?ENT@@YAPAUedict_s@@PBUentvars_s@@@Z	; ENT
	add	esp, 4
	push	eax
	call	?EMIT_SOUND_DYN@@YAXPAUedict_s@@HPBDMMHH@Z ; EMIT_SOUND_DYN
	add	esp, 28					; 0000001cH
	jmp	$LN17@SuperBounc
$LN14@SuperBounc:

; 390  : 		else if (flRndSound <= 0.66)

	cvtss2sd xmm0, DWORD PTR _flRndSound$3[ebp]
	movsd	xmm1, QWORD PTR __real@3fe51eb851eb851f
	comisd	xmm1, xmm0
	jb	SHORT $LN16@SuperBounc

; 391  : 			EMIT_SOUND_DYN(ENT(pev), CHAN_VOICE, "squeek/sqk_hunt2.wav", 1, ATTN_NORM, 0, (int)flpitch);

	cvttss2si eax, DWORD PTR _flpitch$[ebp]
	push	eax
	push	0
	push	ecx
	movss	xmm0, DWORD PTR __real@3f4ccccd
	movss	DWORD PTR [esp], xmm0
	push	ecx
	movss	xmm0, DWORD PTR __real@3f800000
	movss	DWORD PTR [esp], xmm0
	push	OFFSET ??_C@_0BF@CNBHEBPJ@squeek?1sqk_hunt2?4wav?$AA@
	push	2
	mov	ecx, DWORD PTR _this$[ebp]
	mov	edx, DWORD PTR [ecx+4]
	push	edx
	call	?ENT@@YAPAUedict_s@@PBUentvars_s@@@Z	; ENT
	add	esp, 4
	push	eax
	call	?EMIT_SOUND_DYN@@YAXPAUedict_s@@HPBDMMHH@Z ; EMIT_SOUND_DYN
	add	esp, 28					; 0000001cH

; 392  : 		else 

	jmp	SHORT $LN17@SuperBounc
$LN16@SuperBounc:

; 393  : 			EMIT_SOUND_DYN(ENT(pev), CHAN_VOICE, "squeek/sqk_hunt3.wav", 1, ATTN_NORM, 0, (int)flpitch);

	cvttss2si eax, DWORD PTR _flpitch$[ebp]
	push	eax
	push	0
	push	ecx
	movss	xmm0, DWORD PTR __real@3f4ccccd
	movss	DWORD PTR [esp], xmm0
	push	ecx
	movss	xmm0, DWORD PTR __real@3f800000
	movss	DWORD PTR [esp], xmm0
	push	OFFSET ??_C@_0BF@OGELJCFM@squeek?1sqk_hunt3?4wav?$AA@
	push	2
	mov	ecx, DWORD PTR _this$[ebp]
	mov	edx, DWORD PTR [ecx+4]
	push	edx
	call	?ENT@@YAPAUedict_s@@PBUentvars_s@@@Z	; ENT
	add	esp, 4
	push	eax
	call	?EMIT_SOUND_DYN@@YAXPAUedict_s@@HPBDMMHH@Z ; EMIT_SOUND_DYN
	add	esp, 28					; 0000001cH
$LN17@SuperBounc:

; 394  : 		CSoundEnt::InsertSound ( bits_SOUND_COMBAT, GetAbsOrigin(), 256, 0.25 );

	push	0
	push	ecx
	movss	xmm0, DWORD PTR __real@3e800000
	movss	DWORD PTR [esp], xmm0
	push	256					; 00000100H
	mov	ecx, DWORD PTR _this$[ebp]
	call	?GetAbsOrigin@CBaseEntity@@QBEABVVector@@XZ ; CBaseEntity::GetAbsOrigin
	push	eax
	push	1
	call	?InsertSound@CSoundEnt@@SAXHABVVector@@HMH@Z ; CSoundEnt::InsertSound
	add	esp, 20					; 00000014H

; 395  : 	}
; 396  : 	else

	jmp	SHORT $LN13@SuperBounc
$LN12@SuperBounc:

; 397  : 	{
; 398  : 		// skittering sound
; 399  : 		CSoundEnt::InsertSound ( bits_SOUND_COMBAT, GetAbsOrigin(), 100, 0.1 );

	push	0
	push	ecx
	movss	xmm0, DWORD PTR __real@3dcccccd
	movss	DWORD PTR [esp], xmm0
	push	100					; 00000064H
	mov	ecx, DWORD PTR _this$[ebp]
	call	?GetAbsOrigin@CBaseEntity@@QBEABVVector@@XZ ; CBaseEntity::GetAbsOrigin
	push	eax
	push	1
	call	?InsertSound@CSoundEnt@@SAXHABVVector@@HMH@Z ; CSoundEnt::InsertSound
	add	esp, 20					; 00000014H
$LN13@SuperBounc:

; 400  : 	}
; 401  : 
; 402  : 	m_flNextBounceSoundTime = gpGlobals->time + 0.5;// half second.

	mov	eax, DWORD PTR ?gpGlobals@@3PAUglobalvars_t@@A ; gpGlobals
	cvtss2sd xmm0, DWORD PTR [eax]
	addsd	xmm0, QWORD PTR __real@3fe0000000000000
	cvtsd2ss xmm0, xmm0
	movss	DWORD PTR ?m_flNextBounceSoundTime@CSqueakGrenade@@0MA, xmm0
$LN1@SuperBounc:

; 403  : }

	pop	edi
	pop	esi
	pop	ebx
	mov	esp, ebp
	pop	ebp
	ret	4
?SuperBounceTouch@CSqueakGrenade@@AAEXPAVCBaseEntity@@@Z ENDP ; CSqueakGrenade::SuperBounceTouch
_TEXT	ENDS
; Function compile flags: /Odtp /ZI
; File d:\!diffusion 2020\source code 2022\client-server\server\monsters\entities\monster_snark.cpp
;	COMDAT ?Classify@CSqueakGrenade@@EAEHXZ
_TEXT	SEGMENT
tv131 = -76						; size = 4
tv95 = -72						; size = 4
_this$ = -4						; size = 4
?Classify@CSqueakGrenade@@EAEHXZ PROC			; CSqueakGrenade::Classify, COMDAT
; _this$ = ecx

; 76   : {

	push	ebp
	mov	ebp, esp
	sub	esp, 76					; 0000004cH
	push	ebx
	push	esi
	push	edi
	mov	DWORD PTR _this$[ebp], ecx

; 77   : 	if (m_iClass) return m_iClass;

	mov	eax, DWORD PTR _this$[ebp]
	cmp	DWORD PTR [eax+2464], 0
	je	SHORT $LN4@Classify
	mov	eax, DWORD PTR _this$[ebp]
	mov	eax, DWORD PTR [eax+2464]
	jmp	$LN1@Classify
$LN4@Classify:

; 78   : 
; 79   : 	if (m_iMyClass != 0)

	mov	eax, DWORD PTR _this$[ebp]
	cmp	DWORD PTR [eax+2552], 0
	je	SHORT $LN5@Classify

; 80   : 		return m_iMyClass; // protect against recursion

	mov	eax, DWORD PTR _this$[ebp]
	mov	eax, DWORD PTR [eax+2552]
	jmp	SHORT $LN1@Classify
$LN5@Classify:

; 81   : 
; 82   : 	if (m_hEnemy != NULL)

	mov	ecx, DWORD PTR _this$[ebp]
	add	ecx, 2000				; 000007d0H
	call	??BEHANDLE@@QAEHXZ			; EHANDLE::operator int
	test	eax, eax
	je	SHORT $LN6@Classify

; 83   : 	{
; 84   : 		m_iMyClass = CLASS_INSECT; // no one cares about it

	mov	eax, DWORD PTR _this$[ebp]
	mov	DWORD PTR [eax+2552], 10		; 0000000aH

; 85   : 		switch( m_hEnemy->Classify( ) )

	mov	ecx, DWORD PTR _this$[ebp]
	add	ecx, 2000				; 000007d0H
	call	??CEHANDLE@@QAEPAVCBaseEntity@@XZ	; EHANDLE::operator->
	mov	DWORD PTR tv95[ebp], eax
	mov	eax, DWORD PTR tv95[ebp]
	mov	edx, DWORD PTR [eax]
	mov	ecx, DWORD PTR tv95[ebp]
	mov	eax, DWORD PTR [edx+68]
	call	eax
	mov	DWORD PTR tv131[ebp], eax
	cmp	DWORD PTR tv131[ebp], 2
	jl	SHORT $LN2@Classify
	cmp	DWORD PTR tv131[ebp], 4
	jle	SHORT $LN7@Classify
	jmp	SHORT $LN2@Classify
$LN7@Classify:

; 86   : 		{
; 87   : 			case CLASS_PLAYER:
; 88   : 			case CLASS_HUMAN_PASSIVE:
; 89   : 			case CLASS_HUMAN_MILITARY:
; 90   : 				m_iMyClass = 0;

	mov	eax, DWORD PTR _this$[ebp]
	mov	DWORD PTR [eax+2552], 0

; 91   : 				return CLASS_ALIEN_MILITARY; // barney's get mad, grunts get mad at it

	mov	eax, 5
	jmp	SHORT $LN1@Classify
$LN2@Classify:

; 92   : 		}
; 93   : 		m_iMyClass = 0;

	mov	eax, DWORD PTR _this$[ebp]
	mov	DWORD PTR [eax+2552], 0
$LN6@Classify:

; 94   : 	}
; 95   : 
; 96   : 	return CLASS_ALIEN_BIOWEAPON;

	mov	eax, 13					; 0000000dH
$LN1@Classify:

; 97   : }

	pop	edi
	pop	esi
	pop	ebx
	mov	esp, ebp
	pop	ebp
	ret	0
?Classify@CSqueakGrenade@@EAEHXZ ENDP			; CSqueakGrenade::Classify
_TEXT	ENDS
; Function compile flags: /Odtp /ZI
; File d:\!diffusion 2020\source code 2022\client-server\server\monsters\entities\monster_snark.cpp
;	COMDAT ?Precache@CSqueakGrenade@@EAEXXZ
_TEXT	SEGMENT
_this$ = -4						; size = 4
?Precache@CSqueakGrenade@@EAEXXZ PROC			; CSqueakGrenade::Precache, COMDAT
; _this$ = ecx

; 136  : {

	push	ebp
	mov	ebp, esp
	sub	esp, 68					; 00000044H
	push	ebx
	push	esi
	push	edi
	mov	DWORD PTR _this$[ebp], ecx

; 137  : 	PRECACHE_MODEL("models/w_squeak.mdl");

	push	OFFSET ??_C@_0BE@JDDDBEME@models?1w_squeak?4mdl?$AA@
	call	DWORD PTR ?g_engfuncs@@3Uenginefuncs_s@@A
	add	esp, 4

; 138  : 	PRECACHE_SOUND("squeek/sqk_blast1.wav");

	push	OFFSET ??_C@_0BG@NNACFHOG@squeek?1sqk_blast1?4wav?$AA@
	call	DWORD PTR ?g_engfuncs@@3Uenginefuncs_s@@A+4
	add	esp, 4

; 139  : 	PRECACHE_SOUND("common/bodysplat1.wav");

	push	OFFSET ??_C@_0BG@GDLOGHOA@common?1bodysplat1?4wav?$AA@
	call	DWORD PTR ?g_engfuncs@@3Uenginefuncs_s@@A+4
	add	esp, 4

; 140  : 	PRECACHE_SOUND("squeek/sqk_die1.wav");

	push	OFFSET ??_C@_0BE@DCEHNJFM@squeek?1sqk_die1?4wav?$AA@
	call	DWORD PTR ?g_engfuncs@@3Uenginefuncs_s@@A+4
	add	esp, 4

; 141  : 	PRECACHE_SOUND("squeek/sqk_hunt1.wav");

	push	OFFSET ??_C@_0BF@KLIDDDFH@squeek?1sqk_hunt1?4wav?$AA@
	call	DWORD PTR ?g_engfuncs@@3Uenginefuncs_s@@A+4
	add	esp, 4

; 142  : 	PRECACHE_SOUND("squeek/sqk_hunt2.wav");

	push	OFFSET ??_C@_0BF@CNBHEBPJ@squeek?1sqk_hunt2?4wav?$AA@
	call	DWORD PTR ?g_engfuncs@@3Uenginefuncs_s@@A+4
	add	esp, 4

; 143  : 	PRECACHE_SOUND("squeek/sqk_hunt3.wav");

	push	OFFSET ??_C@_0BF@OGELJCFM@squeek?1sqk_hunt3?4wav?$AA@
	call	DWORD PTR ?g_engfuncs@@3Uenginefuncs_s@@A+4
	add	esp, 4

; 144  : 	PRECACHE_SOUND("squeek/sqk_deploy1.wav");

	push	OFFSET ??_C@_0BH@OCBJNBFI@squeek?1sqk_deploy1?4wav?$AA@
	call	DWORD PTR ?g_engfuncs@@3Uenginefuncs_s@@A+4
	add	esp, 4

; 145  : }

	pop	edi
	pop	esi
	pop	ebx
	mov	esp, ebp
	pop	ebp
	ret	0
?Precache@CSqueakGrenade@@EAEXXZ ENDP			; CSqueakGrenade::Precache
_TEXT	ENDS
; Function compile flags: /Odtp /ZI
; File d:\!diffusion 2020\source code 2022\client-server\server\monsters\entities\monster_snark.cpp
;	COMDAT ?Spawn@CSqueakGrenade@@EAEXXZ
_TEXT	SEGMENT
$T1 = -92						; size = 12
$T2 = -80						; size = 12
_this$ = -4						; size = 4
?Spawn@CSqueakGrenade@@EAEXXZ PROC			; CSqueakGrenade::Spawn, COMDAT
; _this$ = ecx

; 100  : {

	push	ebp
	mov	ebp, esp
	sub	esp, 92					; 0000005cH
	push	ebx
	push	esi
	push	edi
	mov	DWORD PTR _this$[ebp], ecx

; 101  : 	Precache( );

	mov	eax, DWORD PTR _this$[ebp]
	mov	edx, DWORD PTR [eax]
	mov	ecx, DWORD PTR _this$[ebp]
	mov	eax, DWORD PTR [edx+8]
	call	eax

; 102  : 	// motor
; 103  : 	pev->movetype = MOVETYPE_BOUNCE;

	mov	eax, DWORD PTR _this$[ebp]
	mov	ecx, DWORD PTR [eax+4]
	mov	DWORD PTR [ecx+264], 10			; 0000000aH

; 104  : 	pev->solid = SOLID_BBOX;

	mov	eax, DWORD PTR _this$[ebp]
	mov	ecx, DWORD PTR [eax+4]
	mov	DWORD PTR [ecx+268], 2

; 105  : 
; 106  : 	SET_MODEL(ENT(pev), "models/w_squeak.mdl");

	push	OFFSET ??_C@_0BE@JDDDBEME@models?1w_squeak?4mdl?$AA@
	mov	eax, DWORD PTR _this$[ebp]
	mov	ecx, DWORD PTR [eax+4]
	push	ecx
	call	?ENT@@YAPAUedict_s@@PBUentvars_s@@@Z	; ENT
	add	esp, 4
	push	eax
	call	DWORD PTR ?g_engfuncs@@3Uenginefuncs_s@@A+8
	add	esp, 8

; 107  : 	UTIL_SetSize(pev, Vector( -4, -4, 0), Vector(4, 4, 8));

	push	ecx
	movss	xmm0, DWORD PTR __real@41000000
	movss	DWORD PTR [esp], xmm0
	push	ecx
	movss	xmm0, DWORD PTR __real@40800000
	movss	DWORD PTR [esp], xmm0
	push	ecx
	movss	xmm0, DWORD PTR __real@40800000
	movss	DWORD PTR [esp], xmm0
	lea	ecx, DWORD PTR $T2[ebp]
	call	??0Vector@@QAE@MMM@Z			; Vector::Vector
	push	eax
	push	ecx
	xorps	xmm0, xmm0
	movss	DWORD PTR [esp], xmm0
	push	ecx
	movss	xmm0, DWORD PTR __real@c0800000
	movss	DWORD PTR [esp], xmm0
	push	ecx
	movss	xmm0, DWORD PTR __real@c0800000
	movss	DWORD PTR [esp], xmm0
	lea	ecx, DWORD PTR $T1[ebp]
	call	??0Vector@@QAE@MMM@Z			; Vector::Vector
	push	eax
	mov	eax, DWORD PTR _this$[ebp]
	mov	ecx, DWORD PTR [eax+4]
	push	ecx
	call	?UTIL_SetSize@@YAXPAUentvars_s@@ABVVector@@1@Z ; UTIL_SetSize
	add	esp, 12					; 0000000cH

; 108  : 
; 109  : 	SetTouch( &CSqueakGrenade::SuperBounceTouch );

	push	OFFSET ??_C@_0CC@EHFLABGF@?$CGCSqueakGrenade?3?3SuperBounceTouc@
	push	OFFSET ?SuperBounceTouch@CSqueakGrenade@@AAEXPAVCBaseEntity@@@Z ; CSqueakGrenade::SuperBounceTouch
	mov	ecx, DWORD PTR _this$[ebp]
	call	?TouchSet@CBaseEntity@@QAEP81@AEXPAV1@@ZP81@AEX0@ZPAD@Z ; CBaseEntity::TouchSet

; 110  : 	SetThink( &CSqueakGrenade::HuntThink );

	push	OFFSET ??_C@_0BL@BMBJFJAM@?$CGCSqueakGrenade?3?3HuntThink?$AA@
	push	OFFSET ?HuntThink@CSqueakGrenade@@AAEXXZ ; CSqueakGrenade::HuntThink
	mov	ecx, DWORD PTR _this$[ebp]
	call	?ThinkSet@CBaseEntity@@QAEP81@AEXXZP81@AEXXZPAD@Z ; CBaseEntity::ThinkSet

; 111  : 	pev->nextthink = gpGlobals->time + 0.1;

	mov	eax, DWORD PTR ?gpGlobals@@3PAUglobalvars_t@@A ; gpGlobals
	cvtss2sd xmm0, DWORD PTR [eax]
	addsd	xmm0, QWORD PTR __real@3fb999999999999a
	cvtsd2ss xmm0, xmm0
	mov	ecx, DWORD PTR _this$[ebp]
	mov	edx, DWORD PTR [ecx+4]
	movss	DWORD PTR [edx+260], xmm0

; 112  : 	m_flNextHunt = gpGlobals->time + 1E6;

	mov	eax, DWORD PTR ?gpGlobals@@3PAUglobalvars_t@@A ; gpGlobals
	cvtss2sd xmm0, DWORD PTR [eax]
	addsd	xmm0, QWORD PTR __real@412e848000000000
	cvtsd2ss xmm0, xmm0
	mov	ecx, DWORD PTR _this$[ebp]
	movss	DWORD PTR [ecx+2532], xmm0

; 113  : 
; 114  : 	pev->flags |= FL_MONSTER;

	mov	eax, DWORD PTR _this$[ebp]
	mov	ecx, DWORD PTR [eax+4]
	mov	edx, DWORD PTR [ecx+420]
	or	edx, 32					; 00000020H
	mov	eax, DWORD PTR _this$[ebp]
	mov	ecx, DWORD PTR [eax+4]
	mov	DWORD PTR [ecx+420], edx

; 115  : 	pev->takedamage		= DAMAGE_AIM;

	mov	eax, DWORD PTR _this$[ebp]
	mov	ecx, DWORD PTR [eax+4]
	movss	xmm0, DWORD PTR __real@40000000
	movss	DWORD PTR [ecx+364], xmm0

; 116  : 	pev->health			= gSkillData.snarkHealth;

	mov	eax, DWORD PTR _this$[ebp]
	mov	ecx, DWORD PTR [eax+4]
	movss	xmm0, DWORD PTR ?gSkillData@@3Uskilldata_t@@A+204
	movss	DWORD PTR [ecx+352], xmm0

; 117  : 	pev->gravity		= 0.5;

	mov	eax, DWORD PTR _this$[ebp]
	mov	ecx, DWORD PTR [eax+4]
	movss	xmm0, DWORD PTR __real@3f000000
	movss	DWORD PTR [ecx+284], xmm0

; 118  : 	pev->friction		= 0.5;

	mov	eax, DWORD PTR _this$[ebp]
	mov	ecx, DWORD PTR [eax+4]
	movss	xmm0, DWORD PTR __real@3f000000
	movss	DWORD PTR [ecx+288], xmm0

; 119  : 
; 120  : 	pev->dmg = gSkillData.snarkDmgPop;

	mov	eax, DWORD PTR _this$[ebp]
	mov	ecx, DWORD PTR [eax+4]
	movss	xmm0, DWORD PTR ?gSkillData@@3Uskilldata_t@@A+212
	movss	DWORD PTR [ecx+480], xmm0

; 121  : 
; 122  : 	m_flDie = gpGlobals->time + SQUEEK_DETONATE_DELAY;

	mov	eax, DWORD PTR ?gpGlobals@@3PAUglobalvars_t@@A ; gpGlobals
	cvtss2sd xmm0, DWORD PTR [eax]
	addsd	xmm0, QWORD PTR __real@402e000000000000
	cvtsd2ss xmm0, xmm0
	mov	ecx, DWORD PTR _this$[ebp]
	movss	DWORD PTR [ecx+2516], xmm0

; 123  : 
; 124  : 	m_flFieldOfView = 0; // 180 degrees

	mov	eax, DWORD PTR _this$[ebp]
	xorps	xmm0, xmm0
	movss	DWORD PTR [eax+2096], xmm0

; 125  : 
; 126  : 	if ( pev->owner )

	mov	eax, DWORD PTR _this$[ebp]
	mov	ecx, DWORD PTR [eax+4]
	cmp	DWORD PTR [ecx+408], 0
	je	SHORT $LN2@Spawn

; 127  : 		m_hOwner = Instance( pev->owner );

	mov	eax, DWORD PTR _this$[ebp]
	mov	ecx, DWORD PTR [eax+4]
	mov	edx, DWORD PTR [ecx+408]
	push	edx
	call	?Instance@CBaseEntity@@SAPAV1@PAUedict_s@@@Z ; CBaseEntity::Instance
	add	esp, 4
	push	eax
	mov	ecx, DWORD PTR _this$[ebp]
	add	ecx, 1796				; 00000704H
	call	??4EHANDLE@@QAEPAVCBaseEntity@@PAV1@@Z	; EHANDLE::operator=
$LN2@Spawn:

; 128  : 
; 129  : 	m_flNextBounceSoundTime = gpGlobals->time;// reset each time a snark is spawned.

	mov	eax, DWORD PTR ?gpGlobals@@3PAUglobalvars_t@@A ; gpGlobals
	movss	xmm0, DWORD PTR [eax]
	movss	DWORD PTR ?m_flNextBounceSoundTime@CSqueakGrenade@@0MA, xmm0

; 130  : 
; 131  : 	pev->sequence = WSQUEAK_RUN;

	mov	eax, DWORD PTR _this$[ebp]
	mov	ecx, DWORD PTR [eax+4]
	mov	DWORD PTR [ecx+296], 3

; 132  : 	ResetSequenceInfo( );

	mov	ecx, DWORD PTR _this$[ebp]
	call	?ResetSequenceInfo@CBaseAnimating@@QAEXXZ ; CBaseAnimating::ResetSequenceInfo

; 133  : }

	pop	edi
	pop	esi
	pop	ebx
	mov	esp, ebp
	pop	ebp
	ret	0
?Spawn@CSqueakGrenade@@EAEXXZ ENDP			; CSqueakGrenade::Spawn
_TEXT	ENDS
; Function compile flags: /Odtp /ZI
;	COMDAT ??1CGrenade@@QAE@XZ
_TEXT	SEGMENT
_this$ = -4						; size = 4
??1CGrenade@@QAE@XZ PROC				; CGrenade::~CGrenade, COMDAT
; _this$ = ecx
	push	ebp
	mov	ebp, esp
	sub	esp, 68					; 00000044H
	push	ebx
	push	esi
	push	edi
	mov	DWORD PTR _this$[ebp], ecx
	mov	ecx, DWORD PTR _this$[ebp]
	call	??1CBaseMonster@@QAE@XZ
	pop	edi
	pop	esi
	pop	ebx
	mov	esp, ebp
	pop	ebp
	ret	0
??1CGrenade@@QAE@XZ ENDP				; CGrenade::~CGrenade
_TEXT	ENDS
; Function compile flags: /Odtp /ZI
;	COMDAT ??0CGrenade@@QAE@XZ
_TEXT	SEGMENT
_this$ = -16						; size = 4
__$EHRec$ = -12						; size = 12
??0CGrenade@@QAE@XZ PROC				; CGrenade::CGrenade, COMDAT
; _this$ = ecx
	push	ebp
	mov	ebp, esp
	push	-1
	push	__ehhandler$??0CGrenade@@QAE@XZ
	mov	eax, DWORD PTR fs:0
	push	eax
	sub	esp, 68					; 00000044H
	push	ebx
	push	esi
	push	edi
	mov	eax, DWORD PTR ___security_cookie
	xor	eax, ebp
	push	eax
	lea	eax, DWORD PTR __$EHRec$[ebp]
	mov	DWORD PTR fs:0, eax
	mov	DWORD PTR _this$[ebp], ecx
	mov	ecx, DWORD PTR _this$[ebp]
	call	??0CBaseMonster@@QAE@XZ
	mov	DWORD PTR __$EHRec$[ebp+8], 0
	mov	eax, DWORD PTR _this$[ebp]
	mov	DWORD PTR [eax], OFFSET ??_7CGrenade@@6B@
	mov	ecx, DWORD PTR _this$[ebp]
	add	ecx, 2504				; 000009c8H
	call	??0Vector@@QAE@XZ			; Vector::Vector
	mov	DWORD PTR __$EHRec$[ebp+8], -1
	mov	eax, DWORD PTR _this$[ebp]
	mov	ecx, DWORD PTR __$EHRec$[ebp]
	mov	DWORD PTR fs:0, ecx
	pop	ecx
	pop	edi
	pop	esi
	pop	ebx
	mov	esp, ebp
	pop	ebp
	ret	0
_TEXT	ENDS
;	COMDAT text$x
text$x	SEGMENT
__unwindfunclet$??0CGrenade@@QAE@XZ$0:
	mov	ecx, DWORD PTR _this$[ebp]
	jmp	??1CBaseMonster@@QAE@XZ
__ehhandler$??0CGrenade@@QAE@XZ:
	mov	edx, DWORD PTR [esp+8]
	lea	eax, DWORD PTR [edx+12]
	mov	ecx, DWORD PTR [edx-84]
	xor	ecx, eax
	call	@__security_check_cookie@4
	mov	eax, OFFSET __ehfuncinfo$??0CGrenade@@QAE@XZ
	jmp	___CxxFrameHandler3
text$x	ENDS
??0CGrenade@@QAE@XZ ENDP				; CGrenade::CGrenade
; Function compile flags: /Odtp /ZI
; File d:\!diffusion 2020\source code 2022\client-server\server\weapons\weapons.h
;	COMDAT ?IsProjectile@CGrenade@@UAEHXZ
_TEXT	SEGMENT
_this$ = -4						; size = 4
?IsProjectile@CGrenade@@UAEHXZ PROC			; CGrenade::IsProjectile, COMDAT
; _this$ = ecx

; 64   : 	virtual BOOL IsProjectile( void ) { return TRUE; }

	push	ebp
	mov	ebp, esp
	sub	esp, 68					; 00000044H
	push	ebx
	push	esi
	push	edi
	mov	DWORD PTR _this$[ebp], ecx
	mov	eax, 1
	pop	edi
	pop	esi
	pop	ebx
	mov	esp, ebp
	pop	ebp
	ret	0
?IsProjectile@CGrenade@@UAEHXZ ENDP			; CGrenade::IsProjectile
_TEXT	ENDS
; Function compile flags: /Odtp /ZI
; File d:\!diffusion 2020\source code 2022\client-server\server\weapons\weapons.h
;	COMDAT ?BloodColor@CGrenade@@UAEHXZ
_TEXT	SEGMENT
_this$ = -4						; size = 4
?BloodColor@CGrenade@@UAEHXZ PROC			; CGrenade::BloodColor, COMDAT
; _this$ = ecx

; 62   : 	virtual int BloodColor( void ) { return DONT_BLEED; }

	push	ebp
	mov	ebp, esp
	sub	esp, 68					; 00000044H
	push	ebx
	push	esi
	push	edi
	mov	DWORD PTR _this$[ebp], ecx
	or	eax, -1
	pop	edi
	pop	esi
	pop	ebx
	mov	esp, ebp
	pop	ebp
	ret	0
?BloodColor@CGrenade@@UAEHXZ ENDP			; CGrenade::BloodColor
_TEXT	ENDS
; Function compile flags: /Odtp /ZI
;	COMDAT ??1CBaseMonster@@QAE@XZ
_TEXT	SEGMENT
_this$ = -4						; size = 4
??1CBaseMonster@@QAE@XZ PROC				; CBaseMonster::~CBaseMonster, COMDAT
; _this$ = ecx
	push	ebp
	mov	ebp, esp
	sub	esp, 68					; 00000044H
	push	ebx
	push	esi
	push	edi
	mov	DWORD PTR _this$[ebp], ecx
	mov	ecx, DWORD PTR _this$[ebp]
	call	??1CBaseToggle@@QAE@XZ
	pop	edi
	pop	esi
	pop	ebx
	mov	esp, ebp
	pop	ebp
	ret	0
??1CBaseMonster@@QAE@XZ ENDP				; CBaseMonster::~CBaseMonster
_TEXT	ENDS
; Function compile flags: /Odtp /ZI
;	COMDAT ??0CBaseMonster@@QAE@XZ
_TEXT	SEGMENT
_this$ = -16						; size = 4
__$EHRec$ = -12						; size = 12
??0CBaseMonster@@QAE@XZ PROC				; CBaseMonster::CBaseMonster, COMDAT
; _this$ = ecx
	push	ebp
	mov	ebp, esp
	push	-1
	push	__ehhandler$??0CBaseMonster@@QAE@XZ
	mov	eax, DWORD PTR fs:0
	push	eax
	sub	esp, 68					; 00000044H
	push	ebx
	push	esi
	push	edi
	mov	eax, DWORD PTR ___security_cookie
	xor	eax, ebp
	push	eax
	lea	eax, DWORD PTR __$EHRec$[ebp]
	mov	DWORD PTR fs:0, eax
	mov	DWORD PTR _this$[ebp], ecx
	mov	ecx, DWORD PTR _this$[ebp]
	call	??0CBaseToggle@@QAE@XZ
	mov	DWORD PTR __$EHRec$[ebp+8], 0
	mov	eax, DWORD PTR _this$[ebp]
	mov	DWORD PTR [eax], OFFSET ??_7CBaseMonster@@6B@
	push	OFFSET ??0Vector@@QAE@XZ		; Vector::Vector
	push	4
	push	12					; 0000000cH
	mov	eax, DWORD PTR _this$[ebp]
	add	eax, 2048				; 00000800H
	push	eax
	call	??_H@YGXPAXIIP6EPAX0@Z@Z
	push	OFFSET ??0WayPoint_t@@QAE@XZ
	push	8
	push	16					; 00000010H
	mov	eax, DWORD PTR _this$[ebp]
	add	eax, 2140				; 0000085cH
	push	eax
	call	??_H@YGXPAXIIP6EPAX0@Z@Z
	mov	ecx, DWORD PTR _this$[ebp]
	add	ecx, 2280				; 000008e8H
	call	??0Vector@@QAE@XZ			; Vector::Vector
	mov	ecx, DWORD PTR _this$[ebp]
	add	ecx, 2304				; 00000900H
	call	??0Vector@@QAE@XZ			; Vector::Vector
	mov	ecx, DWORD PTR _this$[ebp]
	add	ecx, 2328				; 00000918H
	call	??0Vector@@QAE@XZ			; Vector::Vector
	mov	ecx, DWORD PTR _this$[ebp]
	add	ecx, 2424				; 00000978H
	call	??0Vector@@QAE@XZ			; Vector::Vector
	mov	DWORD PTR __$EHRec$[ebp+8], -1
	mov	eax, DWORD PTR _this$[ebp]
	mov	ecx, DWORD PTR __$EHRec$[ebp]
	mov	DWORD PTR fs:0, ecx
	pop	ecx
	pop	edi
	pop	esi
	pop	ebx
	mov	esp, ebp
	pop	ebp
	ret	0
_TEXT	ENDS
;	COMDAT text$x
text$x	SEGMENT
__unwindfunclet$??0CBaseMonster@@QAE@XZ$0:
	mov	ecx, DWORD PTR _this$[ebp]
	jmp	??1CBaseToggle@@QAE@XZ
__ehhandler$??0CBaseMonster@@QAE@XZ:
	mov	edx, DWORD PTR [esp+8]
	lea	eax, DWORD PTR [edx+12]
	mov	ecx, DWORD PTR [edx-84]
	xor	ecx, eax
	call	@__security_check_cookie@4
	mov	eax, OFFSET __ehfuncinfo$??0CBaseMonster@@QAE@XZ
	jmp	___CxxFrameHandler3
text$x	ENDS
??0CBaseMonster@@QAE@XZ ENDP				; CBaseMonster::CBaseMonster
; Function compile flags: /Odtp /ZI
; File d:\!diffusion 2020\source code 2022\client-server\server\monsters\basemonster.h
;	COMDAT ?StopFollowing@CBaseMonster@@UAEXH@Z
_TEXT	SEGMENT
_this$ = -4						; size = 4
_clearSchedule$ = 8					; size = 4
?StopFollowing@CBaseMonster@@UAEXH@Z PROC		; CBaseMonster::StopFollowing, COMDAT
; _this$ = ecx

; 358  : 	virtual void StopFollowing( BOOL clearSchedule ) {}

	push	ebp
	mov	ebp, esp
	sub	esp, 68					; 00000044H
	push	ebx
	push	esi
	push	edi
	mov	DWORD PTR _this$[ebp], ecx
	pop	edi
	pop	esi
	pop	ebx
	mov	esp, ebp
	pop	ebp
	ret	4
?StopFollowing@CBaseMonster@@UAEXH@Z ENDP		; CBaseMonster::StopFollowing
_TEXT	ENDS
; Function compile flags: /Odtp /ZI
; File d:\!diffusion 2020\source code 2022\client-server\server\monsters\basemonster.h
;	COMDAT ?PainSound@CBaseMonster@@UAEXXZ
_TEXT	SEGMENT
_this$ = -4						; size = 4
?PainSound@CBaseMonster@@UAEXXZ PROC			; CBaseMonster::PainSound, COMDAT
; _this$ = ecx

; 355  : 	virtual void PainSound ( void ) { return; };

	push	ebp
	mov	ebp, esp
	sub	esp, 68					; 00000044H
	push	ebx
	push	esi
	push	edi
	mov	DWORD PTR _this$[ebp], ecx
	pop	edi
	pop	esi
	pop	ebx
	mov	esp, ebp
	pop	ebp
	ret	0
?PainSound@CBaseMonster@@UAEXXZ ENDP			; CBaseMonster::PainSound
_TEXT	ENDS
; Function compile flags: /Odtp /ZI
; File d:\!diffusion 2020\source code 2022\client-server\server\monsters\basemonster.h
;	COMDAT ?IdleSound@CBaseMonster@@UAEXXZ
_TEXT	SEGMENT
_this$ = -4						; size = 4
?IdleSound@CBaseMonster@@UAEXXZ PROC			; CBaseMonster::IdleSound, COMDAT
; _this$ = ecx

; 354  : 	virtual void IdleSound ( void ) { return; };

	push	ebp
	mov	ebp, esp
	sub	esp, 68					; 00000044H
	push	ebx
	push	esi
	push	edi
	mov	DWORD PTR _this$[ebp], ecx
	pop	edi
	pop	esi
	pop	ebx
	mov	esp, ebp
	pop	ebp
	ret	0
?IdleSound@CBaseMonster@@UAEXXZ ENDP			; CBaseMonster::IdleSound
_TEXT	ENDS
; Function compile flags: /Odtp /ZI
; File d:\!diffusion 2020\source code 2022\client-server\server\monsters\basemonster.h
;	COMDAT ?AlertSound@CBaseMonster@@UAEXXZ
_TEXT	SEGMENT
_this$ = -4						; size = 4
?AlertSound@CBaseMonster@@UAEXXZ PROC			; CBaseMonster::AlertSound, COMDAT
; _this$ = ecx

; 353  : 	virtual void AlertSound ( void ) { return; };

	push	ebp
	mov	ebp, esp
	sub	esp, 68					; 00000044H
	push	ebx
	push	esi
	push	edi
	mov	DWORD PTR _this$[ebp], ecx
	pop	edi
	pop	esi
	pop	ebx
	mov	esp, ebp
	pop	ebp
	ret	0
?AlertSound@CBaseMonster@@UAEXXZ ENDP			; CBaseMonster::AlertSound
_TEXT	ENDS
; Function compile flags: /Odtp /ZI
; File d:\!diffusion 2020\source code 2022\client-server\server\monsters\basemonster.h
;	COMDAT ?DeathSound@CBaseMonster@@UAEXXZ
_TEXT	SEGMENT
_this$ = -4						; size = 4
?DeathSound@CBaseMonster@@UAEXXZ PROC			; CBaseMonster::DeathSound, COMDAT
; _this$ = ecx

; 352  : 	virtual void DeathSound ( void ) { return; };

	push	ebp
	mov	ebp, esp
	sub	esp, 68					; 00000044H
	push	ebx
	push	esi
	push	edi
	mov	DWORD PTR _this$[ebp], ecx
	pop	edi
	pop	esi
	pop	ebx
	mov	esp, ebp
	pop	ebp
	ret	0
?DeathSound@CBaseMonster@@UAEXXZ ENDP			; CBaseMonster::DeathSound
_TEXT	ENDS
; Function compile flags: /Odtp /ZI
; File d:\!diffusion 2020\source code 2022\client-server\server\monsters\basemonster.h
;	COMDAT ?IsMoving@CBaseMonster@@UAEHXZ
_TEXT	SEGMENT
tv66 = -72						; size = 4
_this$ = -4						; size = 4
?IsMoving@CBaseMonster@@UAEHXZ PROC			; CBaseMonster::IsMoving, COMDAT
; _this$ = ecx

; 343  : 	virtual int		IsMoving( void ) { return m_movementGoal != MOVEGOAL_NONE; }

	push	ebp
	mov	ebp, esp
	sub	esp, 72					; 00000048H
	push	ebx
	push	esi
	push	edi
	mov	DWORD PTR _this$[ebp], ecx
	mov	eax, DWORD PTR _this$[ebp]
	cmp	DWORD PTR [eax+2268], 0
	je	SHORT $LN3@IsMoving
	mov	DWORD PTR tv66[ebp], 1
	jmp	SHORT $LN4@IsMoving
$LN3@IsMoving:
	mov	DWORD PTR tv66[ebp], 0
$LN4@IsMoving:
	mov	eax, DWORD PTR tv66[ebp]
	pop	edi
	pop	esi
	pop	ebx
	mov	esp, ebp
	pop	ebp
	ret	0
?IsMoving@CBaseMonster@@UAEHXZ ENDP			; CBaseMonster::IsMoving
_TEXT	ENDS
; Function compile flags: /Odtp /ZI
; File d:\!diffusion 2020\source code 2022\client-server\server\monsters\basemonster.h
;	COMDAT ?BodyTarget@CBaseMonster@@UAE?AVVector@@ABV2@@Z
_TEXT	SEGMENT
$T1 = -116						; size = 12
$T2 = -104						; size = 12
$T3 = -92						; size = 12
$T4 = -80						; size = 12
_this$ = -4						; size = 4
___$ReturnUdt$ = 8					; size = 4
_posSrc$ = 12						; size = 4
?BodyTarget@CBaseMonster@@UAE?AVVector@@ABV2@@Z PROC	; CBaseMonster::BodyTarget, COMDAT
; _this$ = ecx

; 333  : 	virtual Vector BodyTarget( const Vector &posSrc ) { return Center( ) * 0.75 + EyePosition() * 0.25; };		// position to shoot at

	push	ebp
	mov	ebp, esp
	sub	esp, 116				; 00000074H
	push	ebx
	push	esi
	push	edi
	mov	DWORD PTR _this$[ebp], ecx
	push	ecx
	movss	xmm0, DWORD PTR __real@3e800000
	movss	DWORD PTR [esp], xmm0
	lea	eax, DWORD PTR $T1[ebp]
	push	eax
	lea	ecx, DWORD PTR $T2[ebp]
	push	ecx
	mov	edx, DWORD PTR _this$[ebp]
	mov	eax, DWORD PTR [edx]
	mov	ecx, DWORD PTR _this$[ebp]
	mov	edx, DWORD PTR [eax+340]
	call	edx
	mov	ecx, eax
	call	??DVector@@QBE?AV0@M@Z			; Vector::operator*
	push	eax
	mov	eax, DWORD PTR ___$ReturnUdt$[ebp]
	push	eax
	push	ecx
	movss	xmm0, DWORD PTR __real@3f400000
	movss	DWORD PTR [esp], xmm0
	lea	ecx, DWORD PTR $T3[ebp]
	push	ecx
	lea	edx, DWORD PTR $T4[ebp]
	push	edx
	mov	eax, DWORD PTR _this$[ebp]
	mov	edx, DWORD PTR [eax]
	mov	ecx, DWORD PTR _this$[ebp]
	mov	eax, DWORD PTR [edx+336]
	call	eax
	mov	ecx, eax
	call	??DVector@@QBE?AV0@M@Z			; Vector::operator*
	mov	ecx, eax
	call	??HVector@@QBE?AV0@ABV0@@Z		; Vector::operator+
	mov	eax, DWORD PTR ___$ReturnUdt$[ebp]
	pop	edi
	pop	esi
	pop	ebx
	mov	esp, ebp
	pop	ebp
	ret	8
?BodyTarget@CBaseMonster@@UAE?AVVector@@ABV2@@Z ENDP	; CBaseMonster::BodyTarget
_TEXT	ENDS
; Function compile flags: /Odtp /ZI
; File d:\!diffusion 2020\source code 2022\client-server\server\monsters\basemonster.h
;	COMDAT ?PrescheduleThink@CBaseMonster@@UAEXXZ
_TEXT	SEGMENT
_this$ = -4						; size = 4
?PrescheduleThink@CBaseMonster@@UAEXXZ PROC		; CBaseMonster::PrescheduleThink, COMDAT
; _this$ = ecx

; 313  : 		virtual void PrescheduleThink( void ) { return; };

	push	ebp
	mov	ebp, esp
	sub	esp, 68					; 00000044H
	push	ebx
	push	esi
	push	edi
	mov	DWORD PTR _this$[ebp], ecx
	pop	edi
	pop	esi
	pop	ebx
	mov	esp, ebp
	pop	ebp
	ret	0
?PrescheduleThink@CBaseMonster@@UAEXXZ ENDP		; CBaseMonster::PrescheduleThink
_TEXT	ENDS
; Function compile flags: /Odtp /ZI
; File d:\!diffusion 2020\source code 2022\client-server\server\monsters\basemonster.h
;	COMDAT ?HearingSensitivity@CBaseMonster@@UAEMXZ
_TEXT	SEGMENT
_this$ = -4						; size = 4
?HearingSensitivity@CBaseMonster@@UAEMXZ PROC		; CBaseMonster::HearingSensitivity, COMDAT
; _this$ = ecx

; 293  : 		virtual float HearingSensitivity( void ) { return 1.0; };

	push	ebp
	mov	ebp, esp
	sub	esp, 68					; 00000044H
	push	ebx
	push	esi
	push	edi
	mov	DWORD PTR _this$[ebp], ecx
	fld1
	pop	edi
	pop	esi
	pop	ebx
	mov	esp, ebp
	pop	ebp
	ret	0
?HearingSensitivity@CBaseMonster@@UAEMXZ ENDP		; CBaseMonster::HearingSensitivity
_TEXT	ENDS
; Function compile flags: /Odtp /ZI
; File d:\!diffusion 2020\source code 2022\client-server\server\monsters\basemonster.h
;	COMDAT ?CheckAmmo@CBaseMonster@@UAEXXZ
_TEXT	SEGMENT
_this$ = -4						; size = 4
?CheckAmmo@CBaseMonster@@UAEXXZ PROC			; CBaseMonster::CheckAmmo, COMDAT
; _this$ = ecx

; 268  : 		virtual void CheckAmmo( void ) { return; };

	push	ebp
	mov	ebp, esp
	sub	esp, 68					; 00000044H
	push	ebx
	push	esi
	push	edi
	mov	DWORD PTR _this$[ebp], ecx
	pop	edi
	pop	esi
	pop	ebx
	mov	esp, ebp
	pop	ebp
	ret	0
?CheckAmmo@CBaseMonster@@UAEXXZ ENDP			; CBaseMonster::CheckAmmo
_TEXT	ENDS
; Function compile flags: /Odtp /ZI
; File d:\!diffusion 2020\source code 2022\client-server\server\monsters\basemonster.h
;	COMDAT ?CoverRadius@CBaseMonster@@UAEMXZ
_TEXT	SEGMENT
_this$ = -4						; size = 4
?CoverRadius@CBaseMonster@@UAEMXZ PROC			; CBaseMonster::CoverRadius, COMDAT
; _this$ = ecx

; 265  : 		virtual float CoverRadius( void ) { return 784; } // Default cover radius

	push	ebp
	mov	ebp, esp
	sub	esp, 68					; 00000044H
	push	ebx
	push	esi
	push	edi
	mov	DWORD PTR _this$[ebp], ecx
	fld	DWORD PTR __real@44440000
	pop	edi
	pop	esi
	pop	ebx
	mov	esp, ebp
	pop	ebp
	ret	0
?CoverRadius@CBaseMonster@@UAEMXZ ENDP			; CBaseMonster::CoverRadius
_TEXT	ENDS
; Function compile flags: /Odtp /ZI
; File d:\!diffusion 2020\source code 2022\client-server\server\monsters\basemonster.h
;	COMDAT ?FValidateCover@CBaseMonster@@UAEHABVVector@@@Z
_TEXT	SEGMENT
_this$ = -4						; size = 4
_vecCoverLocation$ = 8					; size = 4
?FValidateCover@CBaseMonster@@UAEHABVVector@@@Z PROC	; CBaseMonster::FValidateCover, COMDAT
; _this$ = ecx

; 264  : 		virtual BOOL FValidateCover ( const Vector &vecCoverLocation ) { return TRUE; };

	push	ebp
	mov	ebp, esp
	sub	esp, 68					; 00000044H
	push	ebx
	push	esi
	push	edi
	mov	DWORD PTR _this$[ebp], ecx
	mov	eax, 1
	pop	edi
	pop	esi
	pop	ebx
	mov	esp, ebp
	pop	ebp
	ret	4
?FValidateCover@CBaseMonster@@UAEHABVVector@@@Z ENDP	; CBaseMonster::FValidateCover
_TEXT	ENDS
; Function compile flags: /Odtp /ZI
; File d:\!diffusion 2020\source code 2022\client-server\server\monsters\basemonster.h
;	COMDAT ?SetYawSpeed@CBaseMonster@@UAEXXZ
_TEXT	SEGMENT
_this$ = -4						; size = 4
?SetYawSpeed@CBaseMonster@@UAEXXZ PROC			; CBaseMonster::SetYawSpeed, COMDAT
; _this$ = ecx

; 255  : 		virtual void SetYawSpeed ( void ) { return; };// allows different yaw_speeds for each activity

	push	ebp
	mov	ebp, esp
	sub	esp, 68					; 00000044H
	push	ebx
	push	esi
	push	edi
	mov	DWORD PTR _this$[ebp], ecx
	pop	edi
	pop	esi
	pop	ebx
	mov	esp, ebp
	pop	ebp
	ret	0
?SetYawSpeed@CBaseMonster@@UAEXXZ ENDP			; CBaseMonster::SetYawSpeed
_TEXT	ENDS
; Function compile flags: /Odtp /ZI
; File d:\!diffusion 2020\source code 2022\client-server\server\monsters\basemonster.h
;	COMDAT ?CanPlaySentence@CBaseMonster@@UAEHH@Z
_TEXT	SEGMENT
_this$ = -4						; size = 4
_fDisregardState$ = 8					; size = 4
?CanPlaySentence@CBaseMonster@@UAEHH@Z PROC		; CBaseMonster::CanPlaySentence, COMDAT
; _this$ = ecx

; 219  : 		virtual int CanPlaySentence( BOOL fDisregardState ) { return IsAlive(); }

	push	ebp
	mov	ebp, esp
	sub	esp, 68					; 00000044H
	push	ebx
	push	esi
	push	edi
	mov	DWORD PTR _this$[ebp], ecx
	mov	eax, DWORD PTR _this$[ebp]
	mov	edx, DWORD PTR [eax]
	mov	ecx, DWORD PTR _this$[ebp]
	mov	eax, DWORD PTR [edx+196]
	call	eax
	pop	edi
	pop	esi
	pop	ebx
	mov	esp, ebp
	pop	ebp
	ret	4
?CanPlaySentence@CBaseMonster@@UAEHH@Z ENDP		; CBaseMonster::CanPlaySentence
_TEXT	ENDS
; Function compile flags: /Odtp /ZI
; File d:\!diffusion 2020\source code 2022\client-server\server\monsters\basemonster.h
;	COMDAT ?ScheduleChange@CBaseMonster@@UAEXXZ
_TEXT	SEGMENT
_this$ = -4						; size = 4
?ScheduleChange@CBaseMonster@@UAEXXZ PROC		; CBaseMonster::ScheduleChange, COMDAT
; _this$ = ecx

; 216  : 		virtual void ScheduleChange( void ) {}

	push	ebp
	mov	ebp, esp
	sub	esp, 68					; 00000044H
	push	ebx
	push	esi
	push	edi
	mov	DWORD PTR _this$[ebp], ecx
	pop	edi
	pop	esi
	pop	ebx
	mov	esp, ebp
	pop	ebp
	ret	0
?ScheduleChange@CBaseMonster@@UAEXXZ ENDP		; CBaseMonster::ScheduleChange
_TEXT	ENDS
; Function compile flags: /Odtp /ZI
; File d:\!diffusion 2020\source code 2022\client-server\server\monsters\basemonster.h
;	COMDAT ?Stop@CBaseMonster@@UAEXXZ
_TEXT	SEGMENT
_this$ = -4						; size = 4
?Stop@CBaseMonster@@UAEXXZ PROC				; CBaseMonster::Stop, COMDAT
; _this$ = ecx

; 189  : 		virtual void Stop( void ) { m_IdealActivity = GetStoppedActivity(); }

	push	ebp
	mov	ebp, esp
	sub	esp, 68					; 00000044H
	push	ebx
	push	esi
	push	edi
	mov	DWORD PTR _this$[ebp], ecx
	mov	eax, DWORD PTR _this$[ebp]
	mov	edx, DWORD PTR [eax]
	mov	ecx, DWORD PTR _this$[ebp]
	mov	eax, DWORD PTR [edx+448]
	call	eax
	mov	ecx, DWORD PTR _this$[ebp]
	mov	DWORD PTR [ecx+2112], eax
	pop	edi
	pop	esi
	pop	ebx
	mov	esp, ebp
	pop	ebp
	ret	0
?Stop@CBaseMonster@@UAEXXZ ENDP				; CBaseMonster::Stop
_TEXT	ENDS
; Function compile flags: /Odtp /ZI
; File d:\!diffusion 2020\source code 2022\client-server\server\monsters\basemonster.h
;	COMDAT ?GetStoppedActivity@CBaseMonster@@UAE?AW4Activity@@XZ
_TEXT	SEGMENT
_this$ = -4						; size = 4
?GetStoppedActivity@CBaseMonster@@UAE?AW4Activity@@XZ PROC ; CBaseMonster::GetStoppedActivity, COMDAT
; _this$ = ecx

; 188  : 		virtual Activity GetStoppedActivity( void ) { return ACT_IDLE; }

	push	ebp
	mov	ebp, esp
	sub	esp, 68					; 00000044H
	push	ebx
	push	esi
	push	edi
	mov	DWORD PTR _this$[ebp], ecx
	mov	eax, 1
	pop	edi
	pop	esi
	pop	ebx
	mov	esp, ebp
	pop	ebp
	ret	0
?GetStoppedActivity@CBaseMonster@@UAE?AW4Activity@@XZ ENDP ; CBaseMonster::GetStoppedActivity
_TEXT	ENDS
; Function compile flags: /Odtp /ZI
; File d:\!diffusion 2020\source code 2022\client-server\server\monsters\basemonster.h
;	COMDAT ?IsAlive@CBaseMonster@@UAEHXZ
_TEXT	SEGMENT
tv71 = -72						; size = 4
_this$ = -4						; size = 4
?IsAlive@CBaseMonster@@UAEHXZ PROC			; CBaseMonster::IsAlive, COMDAT
; _this$ = ecx

; 150  : 	virtual BOOL	IsAlive( void ) { return (pev->deadflag != DEAD_DEAD); }

	push	ebp
	mov	ebp, esp
	sub	esp, 72					; 00000048H
	push	ebx
	push	esi
	push	edi
	mov	DWORD PTR _this$[ebp], ecx
	mov	eax, DWORD PTR _this$[ebp]
	mov	ecx, DWORD PTR [eax+4]
	cmp	DWORD PTR [ecx+368], 2
	je	SHORT $LN3@IsAlive
	mov	DWORD PTR tv71[ebp], 1
	jmp	SHORT $LN4@IsAlive
$LN3@IsAlive:
	mov	DWORD PTR tv71[ebp], 0
$LN4@IsAlive:
	mov	eax, DWORD PTR tv71[ebp]
	pop	edi
	pop	esi
	pop	ebx
	mov	esp, ebp
	pop	ebp
	ret	0
?IsAlive@CBaseMonster@@UAEHXZ ENDP			; CBaseMonster::IsAlive
_TEXT	ENDS
; Function compile flags: /Odtp /ZI
; File d:\!diffusion 2020\source code 2022\client-server\server\monsters\basemonster.h
;	COMDAT ?MyMonsterPointer@CBaseMonster@@UAEPAV1@XZ
_TEXT	SEGMENT
_this$ = -4						; size = 4
?MyMonsterPointer@CBaseMonster@@UAEPAV1@XZ PROC		; CBaseMonster::MyMonsterPointer, COMDAT
; _this$ = ecx

; 145  : 	virtual CBaseMonster *MyMonsterPointer( void ) { return this; }

	push	ebp
	mov	ebp, esp
	sub	esp, 68					; 00000044H
	push	ebx
	push	esi
	push	edi
	mov	DWORD PTR _this$[ebp], ecx
	mov	eax, DWORD PTR _this$[ebp]
	pop	edi
	pop	esi
	pop	ebx
	mov	esp, ebp
	pop	ebp
	ret	0
?MyMonsterPointer@CBaseMonster@@UAEPAV1@XZ ENDP		; CBaseMonster::MyMonsterPointer
_TEXT	ENDS
; Function compile flags: /Odtp /ZI
; File d:\!diffusion 2020\source code 2022\client-server\server\monsters\basemonster.h
;	COMDAT ?BloodColor@CBaseMonster@@UAEHXZ
_TEXT	SEGMENT
_this$ = -4						; size = 4
?BloodColor@CBaseMonster@@UAEHXZ PROC			; CBaseMonster::BloodColor, COMDAT
; _this$ = ecx

; 143  : 	virtual int	 BloodColor( void ) { return m_bloodColor; }

	push	ebp
	mov	ebp, esp
	sub	esp, 68					; 00000044H
	push	ebx
	push	esi
	push	edi
	mov	DWORD PTR _this$[ebp], ecx
	mov	eax, DWORD PTR _this$[ebp]
	mov	eax, DWORD PTR [eax+2368]
	pop	edi
	pop	esi
	pop	ebx
	mov	esp, ebp
	pop	ebp
	ret	0
?BloodColor@CBaseMonster@@UAEHXZ ENDP			; CBaseMonster::BloodColor
_TEXT	ENDS
; Function compile flags: /Odtp /ZI
; File d:\!diffusion 2020\source code 2022\client-server\server\monsters\basemonster.h
;	COMDAT ?Classify@CBaseMonster@@UAEHXZ
_TEXT	SEGMENT
tv67 = -72						; size = 4
_this$ = -4						; size = 4
?Classify@CBaseMonster@@UAEHXZ PROC			; CBaseMonster::Classify, COMDAT
; _this$ = ecx

; 141  : 	virtual int	Classify( void ) { return m_iClass ? m_iClass : CLASS_NONE; }

	push	ebp
	mov	ebp, esp
	sub	esp, 72					; 00000048H
	push	ebx
	push	esi
	push	edi
	mov	DWORD PTR _this$[ebp], ecx
	mov	eax, DWORD PTR _this$[ebp]
	cmp	DWORD PTR [eax+2464], 0
	je	SHORT $LN3@Classify
	mov	ecx, DWORD PTR _this$[ebp]
	mov	edx, DWORD PTR [ecx+2464]
	mov	DWORD PTR tv67[ebp], edx
	jmp	SHORT $LN4@Classify
$LN3@Classify:
	mov	DWORD PTR tv67[ebp], 0
$LN4@Classify:
	mov	eax, DWORD PTR tv67[ebp]
	pop	edi
	pop	esi
	pop	ebx
	mov	esp, ebp
	pop	ebp
	ret	0
?Classify@CBaseMonster@@UAEHXZ ENDP			; CBaseMonster::Classify
_TEXT	ENDS
; Function compile flags: /Odtp /ZI
;	COMDAT ??1CBaseToggle@@QAE@XZ
_TEXT	SEGMENT
_this$ = -4						; size = 4
??1CBaseToggle@@QAE@XZ PROC				; CBaseToggle::~CBaseToggle, COMDAT
; _this$ = ecx
	push	ebp
	mov	ebp, esp
	sub	esp, 68					; 00000044H
	push	ebx
	push	esi
	push	edi
	mov	DWORD PTR _this$[ebp], ecx
	mov	ecx, DWORD PTR _this$[ebp]
	call	??1CBaseAnimating@@QAE@XZ
	pop	edi
	pop	esi
	pop	ebx
	mov	esp, ebp
	pop	ebp
	ret	0
??1CBaseToggle@@QAE@XZ ENDP				; CBaseToggle::~CBaseToggle
_TEXT	ENDS
; Function compile flags: /Odtp /ZI
;	COMDAT ??0CBaseToggle@@QAE@XZ
_TEXT	SEGMENT
_this$ = -16						; size = 4
__$EHRec$ = -12						; size = 12
??0CBaseToggle@@QAE@XZ PROC				; CBaseToggle::CBaseToggle, COMDAT
; _this$ = ecx
	push	ebp
	mov	ebp, esp
	push	-1
	push	__ehhandler$??0CBaseToggle@@QAE@XZ
	mov	eax, DWORD PTR fs:0
	push	eax
	sub	esp, 68					; 00000044H
	push	ebx
	push	esi
	push	edi
	mov	eax, DWORD PTR ___security_cookie
	xor	eax, ebp
	push	eax
	lea	eax, DWORD PTR __$EHRec$[ebp]
	mov	DWORD PTR fs:0, eax
	mov	DWORD PTR _this$[ebp], ecx
	mov	ecx, DWORD PTR _this$[ebp]
	call	??0CBaseAnimating@@QAE@XZ
	mov	DWORD PTR __$EHRec$[ebp+8], 0
	mov	eax, DWORD PTR _this$[ebp]
	mov	DWORD PTR [eax], OFFSET ??_7CBaseToggle@@6B@
	mov	ecx, DWORD PTR _this$[ebp]
	add	ecx, 1880				; 00000758H
	call	??0Vector@@QAE@XZ			; Vector::Vector
	mov	ecx, DWORD PTR _this$[ebp]
	add	ecx, 1892				; 00000764H
	call	??0Vector@@QAE@XZ			; Vector::Vector
	mov	ecx, DWORD PTR _this$[ebp]
	add	ecx, 1904				; 00000770H
	call	??0Vector@@QAE@XZ			; Vector::Vector
	mov	ecx, DWORD PTR _this$[ebp]
	add	ecx, 1916				; 0000077cH
	call	??0Vector@@QAE@XZ			; Vector::Vector
	mov	ecx, DWORD PTR _this$[ebp]
	add	ecx, 1928				; 00000788H
	call	??0Vector@@QAE@XZ			; Vector::Vector
	mov	ecx, DWORD PTR _this$[ebp]
	add	ecx, 1952				; 000007a0H
	call	??0Vector@@QAE@XZ			; Vector::Vector
	mov	ecx, DWORD PTR _this$[ebp]
	add	ecx, 1964				; 000007acH
	call	??0Vector@@QAE@XZ			; Vector::Vector
	mov	ecx, DWORD PTR _this$[ebp]
	add	ecx, 1976				; 000007b8H
	call	??0Vector@@QAE@XZ			; Vector::Vector
	mov	DWORD PTR __$EHRec$[ebp+8], -1
	mov	eax, DWORD PTR _this$[ebp]
	mov	ecx, DWORD PTR __$EHRec$[ebp]
	mov	DWORD PTR fs:0, ecx
	pop	ecx
	pop	edi
	pop	esi
	pop	ebx
	mov	esp, ebp
	pop	ebp
	ret	0
_TEXT	ENDS
;	COMDAT text$x
text$x	SEGMENT
__unwindfunclet$??0CBaseToggle@@QAE@XZ$0:
	mov	ecx, DWORD PTR _this$[ebp]
	jmp	??1CBaseAnimating@@QAE@XZ
__ehhandler$??0CBaseToggle@@QAE@XZ:
	mov	edx, DWORD PTR [esp+8]
	lea	eax, DWORD PTR [edx+12]
	mov	ecx, DWORD PTR [edx-84]
	xor	ecx, eax
	call	@__security_check_cookie@4
	mov	eax, OFFSET __ehfuncinfo$??0CBaseToggle@@QAE@XZ
	jmp	___CxxFrameHandler3
text$x	ENDS
??0CBaseToggle@@QAE@XZ ENDP				; CBaseToggle::CBaseToggle
; Function compile flags: /Odtp /ZI
; File d:\!diffusion 2020\source code 2022\client-server\server\cbase.h
;	COMDAT ?GetDelay@CBaseToggle@@UAEMXZ
_TEXT	SEGMENT
_this$ = -4						; size = 4
?GetDelay@CBaseToggle@@UAEMXZ PROC			; CBaseToggle::GetDelay, COMDAT
; _this$ = ecx

; 1031 : 	virtual float GetDelay( void ) { return m_flWait; }

	push	ebp
	mov	ebp, esp
	sub	esp, 68					; 00000044H
	push	ebx
	push	esi
	push	edi
	mov	DWORD PTR _this$[ebp], ecx
	mov	eax, DWORD PTR _this$[ebp]
	fld	DWORD PTR [eax+1804]
	pop	edi
	pop	esi
	pop	ebx
	mov	esp, ebp
	pop	ebp
	ret	0
?GetDelay@CBaseToggle@@UAEMXZ ENDP			; CBaseToggle::GetDelay
_TEXT	ENDS
; Function compile flags: /Odtp /ZI
; File d:\!diffusion 2020\source code 2022\client-server\server\cbase.h
;	COMDAT ?GetToggleState@CBaseToggle@@UAEHXZ
_TEXT	SEGMENT
_this$ = -4						; size = 4
?GetToggleState@CBaseToggle@@UAEHXZ PROC		; CBaseToggle::GetToggleState, COMDAT
; _this$ = ecx

; 1030 : 	virtual int GetToggleState( void ) { return m_toggle_state; }

	push	ebp
	mov	ebp, esp
	sub	esp, 68					; 00000044H
	push	ebx
	push	esi
	push	edi
	mov	DWORD PTR _this$[ebp], ecx
	mov	eax, DWORD PTR _this$[ebp]
	mov	eax, DWORD PTR [eax+1856]
	pop	edi
	pop	esi
	pop	ebx
	mov	esp, ebp
	pop	ebp
	ret	0
?GetToggleState@CBaseToggle@@UAEHXZ ENDP		; CBaseToggle::GetToggleState
_TEXT	ENDS
; Function compile flags: /Odtp /ZI
;	COMDAT ??1CBaseAnimating@@QAE@XZ
_TEXT	SEGMENT
_this$ = -4						; size = 4
??1CBaseAnimating@@QAE@XZ PROC				; CBaseAnimating::~CBaseAnimating, COMDAT
; _this$ = ecx
	push	ebp
	mov	ebp, esp
	sub	esp, 68					; 00000044H
	push	ebx
	push	esi
	push	edi
	mov	DWORD PTR _this$[ebp], ecx
	mov	ecx, DWORD PTR _this$[ebp]
	call	??1CBaseDelay@@QAE@XZ
	pop	edi
	pop	esi
	pop	ebx
	mov	esp, ebp
	pop	ebp
	ret	0
??1CBaseAnimating@@QAE@XZ ENDP				; CBaseAnimating::~CBaseAnimating
_TEXT	ENDS
; Function compile flags: /Odtp /ZI
;	COMDAT ??0CBaseAnimating@@QAE@XZ
_TEXT	SEGMENT
_this$ = -4						; size = 4
??0CBaseAnimating@@QAE@XZ PROC				; CBaseAnimating::CBaseAnimating, COMDAT
; _this$ = ecx
	push	ebp
	mov	ebp, esp
	sub	esp, 68					; 00000044H
	push	ebx
	push	esi
	push	edi
	mov	DWORD PTR _this$[ebp], ecx
	mov	ecx, DWORD PTR _this$[ebp]
	call	??0CBaseDelay@@QAE@XZ
	mov	eax, DWORD PTR _this$[ebp]
	mov	DWORD PTR [eax], OFFSET ??_7CBaseAnimating@@6B@
	mov	eax, DWORD PTR _this$[ebp]
	pop	edi
	pop	esi
	pop	ebx
	mov	esp, ebp
	pop	ebp
	ret	0
??0CBaseAnimating@@QAE@XZ ENDP				; CBaseAnimating::CBaseAnimating
_TEXT	ENDS
; Function compile flags: /Odtp /ZI
; File d:\!diffusion 2020\source code 2022\client-server\server\cbase.h
;	COMDAT ?HandleAnimEvent@CBaseAnimating@@UAEXPAUMonsterEvent_t@@@Z
_TEXT	SEGMENT
_this$ = -4						; size = 4
_pEvent$ = 8						; size = 4
?HandleAnimEvent@CBaseAnimating@@UAEXPAUMonsterEvent_t@@@Z PROC ; CBaseAnimating::HandleAnimEvent, COMDAT
; _this$ = ecx

; 961  : 	virtual void HandleAnimEvent( MonsterEvent_t *pEvent ) { return; };

	push	ebp
	mov	ebp, esp
	sub	esp, 68					; 00000044H
	push	ebx
	push	esi
	push	edi
	mov	DWORD PTR _this$[ebp], ecx
	pop	edi
	pop	esi
	pop	ebx
	mov	esp, ebp
	pop	ebp
	ret	4
?HandleAnimEvent@CBaseAnimating@@UAEXPAUMonsterEvent_t@@@Z ENDP ; CBaseAnimating::HandleAnimEvent
_TEXT	ENDS
; Function compile flags: /Odtp /ZI
;	COMDAT ??1CBaseDelay@@QAE@XZ
_TEXT	SEGMENT
_this$ = -4						; size = 4
??1CBaseDelay@@QAE@XZ PROC				; CBaseDelay::~CBaseDelay, COMDAT
; _this$ = ecx
	push	ebp
	mov	ebp, esp
	sub	esp, 68					; 00000044H
	push	ebx
	push	esi
	push	edi
	mov	DWORD PTR _this$[ebp], ecx
	mov	ecx, DWORD PTR _this$[ebp]
	call	??1CBaseEntity@@QAE@XZ
	pop	edi
	pop	esi
	pop	ebx
	mov	esp, ebp
	pop	ebp
	ret	0
??1CBaseDelay@@QAE@XZ ENDP				; CBaseDelay::~CBaseDelay
_TEXT	ENDS
; Function compile flags: /Odtp /ZI
;	COMDAT ??0CBaseDelay@@QAE@XZ
_TEXT	SEGMENT
_this$ = -4						; size = 4
??0CBaseDelay@@QAE@XZ PROC				; CBaseDelay::CBaseDelay, COMDAT
; _this$ = ecx
	push	ebp
	mov	ebp, esp
	sub	esp, 68					; 00000044H
	push	ebx
	push	esi
	push	edi
	mov	DWORD PTR _this$[ebp], ecx
	mov	ecx, DWORD PTR _this$[ebp]
	call	??0CBaseEntity@@QAE@XZ
	mov	eax, DWORD PTR _this$[ebp]
	mov	DWORD PTR [eax], OFFSET ??_7CBaseDelay@@6B@
	mov	eax, DWORD PTR _this$[ebp]
	pop	edi
	pop	esi
	pop	ebx
	mov	esp, ebp
	pop	ebp
	ret	0
??0CBaseDelay@@QAE@XZ ENDP				; CBaseDelay::CBaseDelay
_TEXT	ENDS
; Function compile flags: /Odtp /ZI
; File d:\!diffusion 2020\source code 2022\client-server\server\cbase.h
;	COMDAT ?GetState@CBaseDelay@@UAE?AW4STATE@@XZ
_TEXT	SEGMENT
_this$ = -4						; size = 4
?GetState@CBaseDelay@@UAE?AW4STATE@@XZ PROC		; CBaseDelay::GetState, COMDAT
; _this$ = ecx

; 933  : 	virtual STATE GetState( void ) { return m_iState; };

	push	ebp
	mov	ebp, esp
	sub	esp, 68					; 00000044H
	push	ebx
	push	esi
	push	edi
	mov	DWORD PTR _this$[ebp], ecx
	mov	eax, DWORD PTR _this$[ebp]
	mov	eax, DWORD PTR [eax+1828]
	pop	edi
	pop	esi
	pop	ebx
	mov	esp, ebp
	pop	ebp
	ret	0
?GetState@CBaseDelay@@UAE?AW4STATE@@XZ ENDP		; CBaseDelay::GetState
_TEXT	ENDS
; Function compile flags: /Odtp /ZI
;	COMDAT ??1CBaseEntity@@QAE@XZ
_TEXT	SEGMENT
_this$ = -4						; size = 4
??1CBaseEntity@@QAE@XZ PROC				; CBaseEntity::~CBaseEntity, COMDAT
; _this$ = ecx
	push	ebp
	mov	ebp, esp
	sub	esp, 68					; 00000044H
	push	ebx
	push	esi
	push	edi
	mov	DWORD PTR _this$[ebp], ecx
	mov	ecx, DWORD PTR _this$[ebp]
	add	ecx, 260				; 00000104H
	call	??1CMeshDesc@@QAE@XZ			; CMeshDesc::~CMeshDesc
	pop	edi
	pop	esi
	pop	ebx
	mov	esp, ebp
	pop	ebp
	ret	0
??1CBaseEntity@@QAE@XZ ENDP				; CBaseEntity::~CBaseEntity
_TEXT	ENDS
; Function compile flags: /Odtp /ZI
;	COMDAT ??0CBaseEntity@@QAE@XZ
_TEXT	SEGMENT
_this$ = -16						; size = 4
__$EHRec$ = -12						; size = 12
??0CBaseEntity@@QAE@XZ PROC				; CBaseEntity::CBaseEntity, COMDAT
; _this$ = ecx
	push	ebp
	mov	ebp, esp
	push	-1
	push	__ehhandler$??0CBaseEntity@@QAE@XZ
	mov	eax, DWORD PTR fs:0
	push	eax
	sub	esp, 68					; 00000044H
	push	ebx
	push	esi
	push	edi
	mov	eax, DWORD PTR ___security_cookie
	xor	eax, ebp
	push	eax
	lea	eax, DWORD PTR __$EHRec$[ebp]
	mov	DWORD PTR fs:0, eax
	mov	DWORD PTR _this$[ebp], ecx
	mov	eax, DWORD PTR _this$[ebp]
	mov	DWORD PTR [eax], OFFSET ??_7CBaseEntity@@6B@
	mov	ecx, DWORD PTR _this$[ebp]
	add	ecx, 84					; 00000054H
	call	??0Vector@@QAE@XZ			; Vector::Vector
	mov	ecx, DWORD PTR _this$[ebp]
	add	ecx, 96					; 00000060H
	call	??0Vector@@QAE@XZ			; Vector::Vector
	mov	ecx, DWORD PTR _this$[ebp]
	add	ecx, 108				; 0000006cH
	call	??0Vector@@QAE@XZ			; Vector::Vector
	mov	ecx, DWORD PTR _this$[ebp]
	add	ecx, 120				; 00000078H
	call	??0Vector@@QAE@XZ			; Vector::Vector
	mov	ecx, DWORD PTR _this$[ebp]
	add	ecx, 132				; 00000084H
	call	??0Vector@@QAE@XZ			; Vector::Vector
	mov	ecx, DWORD PTR _this$[ebp]
	add	ecx, 144				; 00000090H
	call	??0Vector@@QAE@XZ			; Vector::Vector
	mov	ecx, DWORD PTR _this$[ebp]
	add	ecx, 192				; 000000c0H
	call	??0matrix4x4@@QAE@XZ			; matrix4x4::matrix4x4
	mov	ecx, DWORD PTR _this$[ebp]
	add	ecx, 260				; 00000104H
	call	??0CMeshDesc@@QAE@XZ			; CMeshDesc::CMeshDesc
	mov	DWORD PTR __$EHRec$[ebp+8], 0
	mov	ecx, DWORD PTR _this$[ebp]
	add	ecx, 1644				; 0000066cH
	call	??0Vector@@QAE@XZ			; Vector::Vector
	mov	DWORD PTR __$EHRec$[ebp+8], -1
	mov	eax, DWORD PTR _this$[ebp]
	mov	ecx, DWORD PTR __$EHRec$[ebp]
	mov	DWORD PTR fs:0, ecx
	pop	ecx
	pop	edi
	pop	esi
	pop	ebx
	mov	esp, ebp
	pop	ebp
	ret	0
_TEXT	ENDS
;	COMDAT text$x
text$x	SEGMENT
__unwindfunclet$??0CBaseEntity@@QAE@XZ$0:
	mov	ecx, DWORD PTR _this$[ebp]
	add	ecx, 260				; 00000104H
	jmp	??1CMeshDesc@@QAE@XZ			; CMeshDesc::~CMeshDesc
__ehhandler$??0CBaseEntity@@QAE@XZ:
	mov	edx, DWORD PTR [esp+8]
	lea	eax, DWORD PTR [edx+12]
	mov	ecx, DWORD PTR [edx-84]
	xor	ecx, eax
	call	@__security_check_cookie@4
	mov	eax, OFFSET __ehfuncinfo$??0CBaseEntity@@QAE@XZ
	jmp	___CxxFrameHandler3
text$x	ENDS
??0CBaseEntity@@QAE@XZ ENDP				; CBaseEntity::CBaseEntity
; Function compile flags: /Odtp /ZI
; File d:\!diffusion 2020\source code 2022\client-server\server\cbase.h
;	COMDAT ?Illumination@CBaseEntity@@UAEHXZ
_TEXT	SEGMENT
_this$ = -4						; size = 4
?Illumination@CBaseEntity@@UAEHXZ PROC			; CBaseEntity::Illumination, COMDAT
; _this$ = ecx

; 757  : 	virtual int Illumination( ) { return GETENTITYILLUM( ENT( pev ) ); };

	push	ebp
	mov	ebp, esp
	sub	esp, 68					; 00000044H
	push	ebx
	push	esi
	push	edi
	mov	DWORD PTR _this$[ebp], ecx
	mov	eax, DWORD PTR _this$[ebp]
	mov	ecx, DWORD PTR [eax+4]
	push	ecx
	call	?ENT@@YAPAUedict_s@@PBUentvars_s@@@Z	; ENT
	add	esp, 4
	push	eax
	call	DWORD PTR ?g_engfuncs@@3Uenginefuncs_s@@A+60
	add	esp, 4
	pop	edi
	pop	esi
	pop	ebx
	mov	esp, ebp
	pop	ebp
	ret	0
?Illumination@CBaseEntity@@UAEHXZ ENDP			; CBaseEntity::Illumination
_TEXT	ENDS
; Function compile flags: /Odtp /ZI
; File d:\!diffusion 2020\source code 2022\client-server\server\cbase.h
;	COMDAT ?IsPointSized@CBaseEntity@@UBEHXZ
_TEXT	SEGMENT
tv70 = -69						; size = 1
_this$ = -4						; size = 4
?IsPointSized@CBaseEntity@@UBEHXZ PROC			; CBaseEntity::IsPointSized, COMDAT
; _this$ = ecx

; 755  : 	virtual BOOL IsPointSized() const { return (pev->size == g_vecZero) ? true : false; }

	push	ebp
	mov	ebp, esp
	sub	esp, 72					; 00000048H
	push	ebx
	push	esi
	push	edi
	mov	DWORD PTR _this$[ebp], ecx
	push	OFFSET ?g_vecZero@@3VVector@@B		; g_vecZero
	mov	eax, DWORD PTR _this$[ebp]
	mov	ecx, DWORD PTR [eax+4]
	add	ecx, 244				; 000000f4H
	call	??8Vector@@QBEHABV0@@Z			; Vector::operator==
	test	eax, eax
	je	SHORT $LN3@IsPointSiz
	mov	BYTE PTR tv70[ebp], 1
	jmp	SHORT $LN4@IsPointSiz
$LN3@IsPointSiz:
	mov	BYTE PTR tv70[ebp], 0
$LN4@IsPointSiz:
	movzx	eax, BYTE PTR tv70[ebp]
	pop	edi
	pop	esi
	pop	ebx
	mov	esp, ebp
	pop	ebp
	ret	0
?IsPointSized@CBaseEntity@@UBEHXZ ENDP			; CBaseEntity::IsPointSized
_TEXT	ENDS
; Function compile flags: /Odtp /ZI
; File d:\!diffusion 2020\source code 2022\client-server\server\cbase.h
;	COMDAT ?BodyTarget@CBaseEntity@@UAE?AVVector@@ABV2@@Z
_TEXT	SEGMENT
_this$ = -4						; size = 4
___$ReturnUdt$ = 8					; size = 4
_posSrc$ = 12						; size = 4
?BodyTarget@CBaseEntity@@UAE?AVVector@@ABV2@@Z PROC	; CBaseEntity::BodyTarget, COMDAT
; _this$ = ecx

; 754  : 	virtual Vector BodyTarget( const Vector &posSrc ) { return Center( ); };		// position to shoot at

	push	ebp
	mov	ebp, esp
	sub	esp, 68					; 00000044H
	push	ebx
	push	esi
	push	edi
	mov	DWORD PTR _this$[ebp], ecx
	mov	eax, DWORD PTR ___$ReturnUdt$[ebp]
	push	eax
	mov	ecx, DWORD PTR _this$[ebp]
	mov	edx, DWORD PTR [ecx]
	mov	ecx, DWORD PTR _this$[ebp]
	mov	eax, DWORD PTR [edx+336]
	call	eax
	mov	eax, DWORD PTR ___$ReturnUdt$[ebp]
	pop	edi
	pop	esi
	pop	ebx
	mov	esp, ebp
	pop	ebp
	ret	8
?BodyTarget@CBaseEntity@@UAE?AVVector@@ABV2@@Z ENDP	; CBaseEntity::BodyTarget
_TEXT	ENDS
; Function compile flags: /Odtp /ZI
; File d:\!diffusion 2020\source code 2022\client-server\server\cbase.h
;	COMDAT ?EarPosition@CBaseEntity@@UAE?AVVector@@XZ
_TEXT	SEGMENT
_this$ = -4						; size = 4
___$ReturnUdt$ = 8					; size = 4
?EarPosition@CBaseEntity@@UAE?AVVector@@XZ PROC		; CBaseEntity::EarPosition, COMDAT
; _this$ = ecx

; 751  : 	{ 

	push	ebp
	mov	ebp, esp
	sub	esp, 68					; 00000044H
	push	ebx
	push	esi
	push	edi
	mov	DWORD PTR _this$[ebp], ecx

; 752  : 		return GetAbsOrigin() + pev->view_ofs; 

	mov	eax, DWORD PTR _this$[ebp]
	mov	ecx, DWORD PTR [eax+4]
	add	ecx, 372				; 00000174H
	push	ecx
	mov	edx, DWORD PTR ___$ReturnUdt$[ebp]
	push	edx
	mov	ecx, DWORD PTR _this$[ebp]
	call	?GetAbsOrigin@CBaseEntity@@QBEABVVector@@XZ ; CBaseEntity::GetAbsOrigin
	mov	ecx, eax
	call	??HVector@@QBE?AV0@ABV0@@Z		; Vector::operator+
	mov	eax, DWORD PTR ___$ReturnUdt$[ebp]

; 753  : 	};			// position of ears

	pop	edi
	pop	esi
	pop	ebx
	mov	esp, ebp
	pop	ebp
	ret	4
?EarPosition@CBaseEntity@@UAE?AVVector@@XZ ENDP		; CBaseEntity::EarPosition
_TEXT	ENDS
; Function compile flags: /Odtp /ZI
; File d:\!diffusion 2020\source code 2022\client-server\server\cbase.h
;	COMDAT ?EyePosition@CBaseEntity@@UAE?AVVector@@XZ
_TEXT	SEGMENT
_this$ = -4						; size = 4
___$ReturnUdt$ = 8					; size = 4
?EyePosition@CBaseEntity@@UAE?AVVector@@XZ PROC		; CBaseEntity::EyePosition, COMDAT
; _this$ = ecx

; 747  : 	{

	push	ebp
	mov	ebp, esp
	sub	esp, 68					; 00000044H
	push	ebx
	push	esi
	push	edi
	mov	DWORD PTR _this$[ebp], ecx

; 748  : 		return GetAbsOrigin() + pev->view_ofs;

	mov	eax, DWORD PTR _this$[ebp]
	mov	ecx, DWORD PTR [eax+4]
	add	ecx, 372				; 00000174H
	push	ecx
	mov	edx, DWORD PTR ___$ReturnUdt$[ebp]
	push	edx
	mov	ecx, DWORD PTR _this$[ebp]
	call	?GetAbsOrigin@CBaseEntity@@QBEABVVector@@XZ ; CBaseEntity::GetAbsOrigin
	mov	ecx, eax
	call	??HVector@@QBE?AV0@ABV0@@Z		; Vector::operator+
	mov	eax, DWORD PTR ___$ReturnUdt$[ebp]

; 749  : 	};			// position of eyes

	pop	edi
	pop	esi
	pop	ebx
	mov	esp, ebp
	pop	ebp
	ret	4
?EyePosition@CBaseEntity@@UAE?AVVector@@XZ ENDP		; CBaseEntity::EyePosition
_TEXT	ENDS
; Function compile flags: /Odtp /ZI
; File d:\!diffusion 2020\source code 2022\client-server\server\cbase.h
;	COMDAT ?Center@CBaseEntity@@UAE?AVVector@@XZ
_TEXT	SEGMENT
$T1 = -80						; size = 12
_this$ = -4						; size = 4
___$ReturnUdt$ = 8					; size = 4
?Center@CBaseEntity@@UAE?AVVector@@XZ PROC		; CBaseEntity::Center, COMDAT
; _this$ = ecx

; 745  : 	virtual Vector Center( ) { return (pev->absmax + pev->absmin) * 0.5; }; // center point of entity

	push	ebp
	mov	ebp, esp
	sub	esp, 80					; 00000050H
	push	ebx
	push	esi
	push	edi
	mov	DWORD PTR _this$[ebp], ecx
	push	ecx
	movss	xmm0, DWORD PTR __real@3f000000
	movss	DWORD PTR [esp], xmm0
	mov	eax, DWORD PTR ___$ReturnUdt$[ebp]
	push	eax
	mov	ecx, DWORD PTR _this$[ebp]
	mov	edx, DWORD PTR [ecx+4]
	add	edx, 196				; 000000c4H
	push	edx
	lea	eax, DWORD PTR $T1[ebp]
	push	eax
	mov	ecx, DWORD PTR _this$[ebp]
	mov	ecx, DWORD PTR [ecx+4]
	add	ecx, 208				; 000000d0H
	call	??HVector@@QBE?AV0@ABV0@@Z		; Vector::operator+
	mov	ecx, eax
	call	??DVector@@QBE?AV0@M@Z			; Vector::operator*
	mov	eax, DWORD PTR ___$ReturnUdt$[ebp]
	pop	edi
	pop	esi
	pop	ebx
	mov	esp, ebp
	pop	ebp
	ret	4
?Center@CBaseEntity@@UAE?AVVector@@XZ ENDP		; CBaseEntity::Center
_TEXT	ENDS
; Function compile flags: /Odtp /ZI
; File d:\!diffusion 2020\source code 2022\client-server\server\cbase.h
;	COMDAT ?edict@CBaseEntity@@QAEPAUedict_s@@XZ
_TEXT	SEGMENT
_this$ = -4						; size = 4
?edict@CBaseEntity@@QAEPAUedict_s@@XZ PROC		; CBaseEntity::edict, COMDAT
; _this$ = ecx

; 741  : 	edict_t *edict() { return ENT( pev ); };

	push	ebp
	mov	ebp, esp
	sub	esp, 68					; 00000044H
	push	ebx
	push	esi
	push	edi
	mov	DWORD PTR _this$[ebp], ecx
	mov	eax, DWORD PTR _this$[ebp]
	mov	ecx, DWORD PTR [eax+4]
	push	ecx
	call	?ENT@@YAPAUedict_s@@PBUentvars_s@@@Z	; ENT
	add	esp, 4
	pop	edi
	pop	esi
	pop	ebx
	mov	esp, ebp
	pop	ebp
	ret	0
?edict@CBaseEntity@@QAEPAUedict_s@@XZ ENDP		; CBaseEntity::edict
_TEXT	ENDS
; Function compile flags: /Odtp /ZI
; File d:\!diffusion 2020\source code 2022\client-server\server\cbase.h
;	COMDAT ?FBecomeProne@CBaseEntity@@UAEHXZ
_TEXT	SEGMENT
_this$ = -4						; size = 4
?FBecomeProne@CBaseEntity@@UAEHXZ PROC			; CBaseEntity::FBecomeProne, COMDAT
; _this$ = ecx

; 740  : 	virtual BOOL FBecomeProne( void ) {return FALSE;};

	push	ebp
	mov	ebp, esp
	sub	esp, 68					; 00000044H
	push	ebx
	push	esi
	push	edi
	mov	DWORD PTR _this$[ebp], ecx
	xor	eax, eax
	pop	edi
	pop	esi
	pop	ebx
	mov	esp, ebp
	pop	ebp
	ret	0
?FBecomeProne@CBaseEntity@@UAEHXZ ENDP			; CBaseEntity::FBecomeProne
_TEXT	ENDS
; Function compile flags: /Odtp /ZI
; File d:\!diffusion 2020\source code 2022\client-server\server\cbase.h
;	COMDAT ?UpdateOwner@CBaseEntity@@UAEXXZ
_TEXT	SEGMENT
_this$ = -4						; size = 4
?UpdateOwner@CBaseEntity@@UAEXXZ PROC			; CBaseEntity::UpdateOwner, COMDAT
; _this$ = ecx

; 736  : 	virtual	void UpdateOwner( void ) { return; };

	push	ebp
	mov	ebp, esp
	sub	esp, 68					; 00000044H
	push	ebx
	push	esi
	push	edi
	mov	DWORD PTR _this$[ebp], ecx
	pop	edi
	pop	esi
	pop	ebx
	mov	esp, ebp
	pop	ebp
	ret	0
?UpdateOwner@CBaseEntity@@UAEXXZ ENDP			; CBaseEntity::UpdateOwner
_TEXT	ENDS
; Function compile flags: /Odtp /ZI
; File d:\!diffusion 2020\source code 2022\client-server\server\cbase.h
;	COMDAT ?TouchSet@CBaseEntity@@QAEP81@AEXPAV1@@ZP81@AEX0@ZPAD@Z
_TEXT	SEGMENT
_this$ = -4						; size = 4
_func$ = 8						; size = 4
_name$ = 12						; size = 4
?TouchSet@CBaseEntity@@QAEP81@AEXPAV1@@ZP81@AEX0@ZPAD@Z PROC ; CBaseEntity::TouchSet, COMDAT
; _this$ = ecx

; 598  : 	{ 

	push	ebp
	mov	ebp, esp
	sub	esp, 68					; 00000044H
	push	ebx
	push	esi
	push	edi
	mov	DWORD PTR _this$[ebp], ecx

; 599  : 		m_pfnTouch = func; 

	mov	eax, DWORD PTR _this$[ebp]
	mov	ecx, DWORD PTR _func$[ebp]
	mov	DWORD PTR [eax+1760], ecx

; 600  : 		FunctionCheck( *(reinterpret_cast<void **>(&m_pfnTouch)), name ); 

	mov	eax, DWORD PTR _name$[ebp]
	push	eax
	mov	ecx, DWORD PTR _this$[ebp]
	mov	edx, DWORD PTR [ecx+1760]
	push	edx
	mov	ecx, DWORD PTR _this$[ebp]
	call	?FunctionCheck@CBaseEntity@@QAEXPAXPAD@Z ; CBaseEntity::FunctionCheck

; 601  : 		return func;

	mov	eax, DWORD PTR _func$[ebp]

; 602  : 	}

	pop	edi
	pop	esi
	pop	ebx
	mov	esp, ebp
	pop	ebp
	ret	8
?TouchSet@CBaseEntity@@QAEP81@AEXPAV1@@ZP81@AEX0@ZPAD@Z ENDP ; CBaseEntity::TouchSet
_TEXT	ENDS
; Function compile flags: /Odtp /ZI
; File d:\!diffusion 2020\source code 2022\client-server\server\cbase.h
;	COMDAT ?ThinkSet@CBaseEntity@@QAEP81@AEXXZP81@AEXXZPAD@Z
_TEXT	SEGMENT
_this$ = -4						; size = 4
_func$ = 8						; size = 4
_name$ = 12						; size = 4
?ThinkSet@CBaseEntity@@QAEP81@AEXXZP81@AEXXZPAD@Z PROC	; CBaseEntity::ThinkSet, COMDAT
; _this$ = ecx

; 591  : 	{ 

	push	ebp
	mov	ebp, esp
	sub	esp, 68					; 00000044H
	push	ebx
	push	esi
	push	edi
	mov	DWORD PTR _this$[ebp], ecx

; 592  : 		m_pfnThink = func; 

	mov	eax, DWORD PTR _this$[ebp]
	mov	ecx, DWORD PTR _func$[ebp]
	mov	DWORD PTR [eax+1756], ecx

; 593  : 		FunctionCheck( *(reinterpret_cast<void **>(&m_pfnThink)), name ); 

	mov	eax, DWORD PTR _name$[ebp]
	push	eax
	mov	ecx, DWORD PTR _this$[ebp]
	mov	edx, DWORD PTR [ecx+1756]
	push	edx
	mov	ecx, DWORD PTR _this$[ebp]
	call	?FunctionCheck@CBaseEntity@@QAEXPAXPAD@Z ; CBaseEntity::FunctionCheck

; 594  : 		return func;

	mov	eax, DWORD PTR _func$[ebp]

; 595  : 	}

	pop	edi
	pop	esi
	pop	ebx
	mov	esp, ebp
	pop	ebp
	ret	8
?ThinkSet@CBaseEntity@@QAEP81@AEXXZP81@AEXXZPAD@Z ENDP	; CBaseEntity::ThinkSet
_TEXT	ENDS
; Function compile flags: /Odtp /ZI
; File d:\!diffusion 2020\source code 2022\client-server\server\cbase.h
;	COMDAT ?FunctionCheck@CBaseEntity@@QAEXPAXPAD@Z
_TEXT	SEGMENT
_this$ = -4						; size = 4
_pFunction$ = 8						; size = 4
_name$ = 12						; size = 4
?FunctionCheck@CBaseEntity@@QAEXPAXPAD@Z PROC		; CBaseEntity::FunctionCheck, COMDAT
; _this$ = ecx

; 585  : 	{ 

	push	ebp
	mov	ebp, esp
	sub	esp, 68					; 00000044H
	push	ebx
	push	esi
	push	edi
	mov	DWORD PTR _this$[ebp], ecx

; 586  : 		if (pFunction && !UTIL_FunctionToName( GetDataDescMap(), pFunction ) )

	cmp	DWORD PTR _pFunction$[ebp], 0
	je	SHORT $LN1@FunctionCh
	mov	eax, DWORD PTR _pFunction$[ebp]
	push	eax
	mov	ecx, DWORD PTR _this$[ebp]
	mov	edx, DWORD PTR [ecx]
	mov	ecx, DWORD PTR _this$[ebp]
	mov	eax, DWORD PTR [edx]
	call	eax
	push	eax
	call	?UTIL_FunctionToName@@YAPBDPAUdatamap_s@@PAX@Z ; UTIL_FunctionToName
	add	esp, 8
	test	eax, eax
	jne	SHORT $LN1@FunctionCh

; 587  : 			ALERT( at_warning, "FUNCTION NOT IN TABLE!: %s:%s (%08lx)\n", GetClassname(), name, (unsigned long)pFunction );

	mov	eax, DWORD PTR _pFunction$[ebp]
	push	eax
	mov	ecx, DWORD PTR _name$[ebp]
	push	ecx
	mov	ecx, DWORD PTR _this$[ebp]
	call	?GetClassname@CBaseEntity@@QAEPBDXZ	; CBaseEntity::GetClassname
	push	eax
	push	OFFSET ??_C@_0CH@HELFJPDL@FUNCTION?5NOT?5IN?5TABLE?$CB?3?5?$CFs?3?$CFs?5?$CI?$CF@
	push	3
	call	DWORD PTR ?g_engfuncs@@3Uenginefuncs_s@@A+244
	add	esp, 20					; 00000014H
$LN1@FunctionCh:

; 588  : 	}

	pop	edi
	pop	esi
	pop	ebx
	mov	esp, ebp
	pop	ebp
	ret	8
?FunctionCheck@CBaseEntity@@QAEXPAXPAD@Z ENDP		; CBaseEntity::FunctionCheck
_TEXT	ENDS
; Function compile flags: /Odtp /ZI
; File d:\!diffusion 2020\source code 2022\client-server\server\cbase.h
;	COMDAT ?Instance@CBaseEntity@@SAPAV1@PAUedict_s@@@Z
_TEXT	SEGMENT
_pEnt$ = -4						; size = 4
_pent$ = 8						; size = 4
?Instance@CBaseEntity@@SAPAV1@PAUedict_s@@@Z PROC	; CBaseEntity::Instance, COMDAT

; 557  : 	{ 

	push	ebp
	mov	ebp, esp
	sub	esp, 68					; 00000044H
	push	ebx
	push	esi
	push	edi

; 558  : 		if ( !pent )

	cmp	DWORD PTR _pent$[ebp], 0
	jne	SHORT $LN2@Instance

; 559  : 			pent = ENT(0);

	push	0
	call	?ENT@@YAPAUedict_s@@H@Z			; ENT
	add	esp, 4
	mov	DWORD PTR _pent$[ebp], eax
$LN2@Instance:

; 560  : 		CBaseEntity *pEnt = (CBaseEntity *)GET_PRIVATE(pent); 

	mov	eax, DWORD PTR _pent$[ebp]
	push	eax
	call	?GET_PRIVATE@@YAPAXPAUedict_s@@@Z	; GET_PRIVATE
	add	esp, 4
	mov	DWORD PTR _pEnt$[ebp], eax

; 561  : 		return pEnt; 

	mov	eax, DWORD PTR _pEnt$[ebp]

; 562  : 	}

	pop	edi
	pop	esi
	pop	ebx
	mov	esp, ebp
	pop	ebp
	ret	0
?Instance@CBaseEntity@@SAPAV1@PAUedict_s@@@Z ENDP	; CBaseEntity::Instance
_TEXT	ENDS
; Function compile flags: /Odtp /ZI
; File d:\!diffusion 2020\source code 2022\client-server\server\cbase.h
;	COMDAT ?Respawn@CBaseEntity@@UAEPAV1@XZ
_TEXT	SEGMENT
_this$ = -4						; size = 4
?Respawn@CBaseEntity@@UAEPAV1@XZ PROC			; CBaseEntity::Respawn, COMDAT
; _this$ = ecx

; 544  : 	virtual CBaseEntity *Respawn( void ) { return NULL; }

	push	ebp
	mov	ebp, esp
	sub	esp, 68					; 00000044H
	push	ebx
	push	esi
	push	edi
	mov	DWORD PTR _this$[ebp], ecx
	xor	eax, eax
	pop	edi
	pop	esi
	pop	ebx
	mov	esp, ebp
	pop	ebp
	ret	0
?Respawn@CBaseEntity@@UAEPAV1@XZ ENDP			; CBaseEntity::Respawn
_TEXT	ENDS
; Function compile flags: /Odtp /ZI
; File d:\!diffusion 2020\source code 2022\client-server\server\cbase.h
;	COMDAT ??3CBaseEntity@@SAXPAXPAUentvars_s@@@Z
_TEXT	SEGMENT
_pMem$ = 8						; size = 4
_pev$ = 12						; size = 4
??3CBaseEntity@@SAXPAXPAUentvars_s@@@Z PROC		; CBaseEntity::operator delete, COMDAT

; 527  : 	{

	push	ebp
	mov	ebp, esp
	sub	esp, 64					; 00000040H
	push	ebx
	push	esi
	push	edi

; 528  : 		pev->flags |= FL_KILLME;

	mov	eax, DWORD PTR _pev$[ebp]
	mov	ecx, DWORD PTR [eax+420]
	or	ecx, 1073741824				; 40000000H
	mov	edx, DWORD PTR _pev$[ebp]
	mov	DWORD PTR [edx+420], ecx

; 529  : 	};

	pop	edi
	pop	esi
	pop	ebx
	mov	esp, ebp
	pop	ebp
	ret	0
??3CBaseEntity@@SAXPAXPAUentvars_s@@@Z ENDP		; CBaseEntity::operator delete
_TEXT	ENDS
; Function compile flags: /Odtp /ZI
; File d:\!diffusion 2020\source code 2022\client-server\server\cbase.h
;	COMDAT ??2CBaseEntity@@SAPAXIPAUentvars_s@@@Z
_TEXT	SEGMENT
_stAllocateBlock$ = 8					; size = 4
_pev$ = 12						; size = 4
??2CBaseEntity@@SAPAXIPAUentvars_s@@@Z PROC		; CBaseEntity::operator new, COMDAT

; 520  : 	{

	push	ebp
	mov	ebp, esp
	sub	esp, 64					; 00000040H
	push	ebx
	push	esi
	push	edi

; 521  : 		return (void *)ALLOC_PRIVATE(ENT(pev), stAllocateBlock);

	mov	eax, DWORD PTR _stAllocateBlock$[ebp]
	push	eax
	mov	ecx, DWORD PTR _pev$[ebp]
	push	ecx
	call	?ENT@@YAPAUedict_s@@PBUentvars_s@@@Z	; ENT
	add	esp, 4
	push	eax
	call	DWORD PTR ?g_engfuncs@@3Uenginefuncs_s@@A+252
	add	esp, 8

; 522  : 	};

	pop	edi
	pop	esi
	pop	ebx
	mov	esp, ebp
	pop	ebp
	ret	0
??2CBaseEntity@@SAPAXIPAUentvars_s@@@Z ENDP		; CBaseEntity::operator new
_TEXT	ENDS
; Function compile flags: /Odtp /ZI
; File d:\!diffusion 2020\source code 2022\client-server\server\cbase.h
;	COMDAT ?MoveDone@CBaseEntity@@UAEXXZ
_TEXT	SEGMENT
_this$ = -4						; size = 4
?MoveDone@CBaseEntity@@UAEXXZ PROC			; CBaseEntity::MoveDone, COMDAT
; _this$ = ecx

; 516  : 	virtual void MoveDone( void ) { if( m_pfnMoveDone )(this->*m_pfnMoveDone)(); };

	push	ebp
	mov	ebp, esp
	sub	esp, 68					; 00000044H
	push	ebx
	push	esi
	push	edi
	mov	DWORD PTR _this$[ebp], ecx
	mov	eax, DWORD PTR _this$[ebp]
	cmp	DWORD PTR [eax+1772], 0
	je	SHORT $LN1@MoveDone
	mov	eax, DWORD PTR _this$[ebp]
	mov	ecx, DWORD PTR _this$[ebp]
	mov	edx, DWORD PTR [eax+1772]
	call	edx
$LN1@MoveDone:
	pop	edi
	pop	esi
	pop	ebx
	mov	esp, ebp
	pop	ebp
	ret	0
?MoveDone@CBaseEntity@@UAEXXZ ENDP			; CBaseEntity::MoveDone
_TEXT	ENDS
; Function compile flags: /Odtp /ZI
; File d:\!diffusion 2020\source code 2022\client-server\server\cbase.h
;	COMDAT ?Blocked@CBaseEntity@@UAEXPAV1@@Z
_TEXT	SEGMENT
tv77 = -72						; size = 4
_this$ = -4						; size = 4
_pOther$ = 8						; size = 4
?Blocked@CBaseEntity@@UAEXPAV1@@Z PROC			; CBaseEntity::Blocked, COMDAT
; _this$ = ecx

; 507  : 	{

	push	ebp
	mov	ebp, esp
	sub	esp, 72					; 00000048H
	push	ebx
	push	esi
	push	edi
	mov	DWORD PTR _this$[ebp], ecx

; 508  : 		if( m_pfnBlocked )

	mov	eax, DWORD PTR _this$[ebp]
	cmp	DWORD PTR [eax+1768], 0
	je	SHORT $LN2@Blocked

; 509  : 			(this->*m_pfnBlocked)( pOther );

	mov	eax, DWORD PTR _pOther$[ebp]
	push	eax
	mov	edx, DWORD PTR _this$[ebp]
	mov	ecx, DWORD PTR _this$[ebp]
	mov	eax, DWORD PTR [edx+1768]
	call	eax
$LN2@Blocked:

; 510  : 
; 511  : 		// forward the blocked event to our parent, if any.
; 512  : 		if( m_hParent != NULL )

	mov	ecx, DWORD PTR _this$[ebp]
	add	ecx, 160				; 000000a0H
	call	??BEHANDLE@@QAEHXZ			; EHANDLE::operator int
	test	eax, eax
	je	SHORT $LN1@Blocked

; 513  : 			m_hParent->Blocked( pOther );

	mov	ecx, DWORD PTR _this$[ebp]
	add	ecx, 160				; 000000a0H
	call	??CEHANDLE@@QAEPAVCBaseEntity@@XZ	; EHANDLE::operator->
	mov	DWORD PTR tv77[ebp], eax
	mov	eax, DWORD PTR _pOther$[ebp]
	push	eax
	mov	ecx, DWORD PTR tv77[ebp]
	mov	edx, DWORD PTR [ecx]
	mov	ecx, DWORD PTR tv77[ebp]
	mov	eax, DWORD PTR [edx+316]
	call	eax
$LN1@Blocked:

; 514  : 	}

	pop	edi
	pop	esi
	pop	ebx
	mov	esp, ebp
	pop	ebp
	ret	4
?Blocked@CBaseEntity@@UAEXPAV1@@Z ENDP			; CBaseEntity::Blocked
_TEXT	ENDS
; Function compile flags: /Odtp /ZI
; File d:\!diffusion 2020\source code 2022\client-server\server\cbase.h
;	COMDAT ?Touch@CBaseEntity@@UAEXPAV1@@Z
_TEXT	SEGMENT
tv80 = -72						; size = 4
_this$ = -4						; size = 4
_pOther$ = 8						; size = 4
?Touch@CBaseEntity@@UAEXPAV1@@Z PROC			; CBaseEntity::Touch, COMDAT
; _this$ = ecx

; 497  : 	{

	push	ebp
	mov	ebp, esp
	sub	esp, 72					; 00000048H
	push	ebx
	push	esi
	push	edi
	mov	DWORD PTR _this$[ebp], ecx

; 498  : 		if( m_pfnTouch )

	mov	eax, DWORD PTR _this$[ebp]
	cmp	DWORD PTR [eax+1760], 0
	je	SHORT $LN2@Touch

; 499  : 			(this->*m_pfnTouch)( pOther );

	mov	eax, DWORD PTR _pOther$[ebp]
	push	eax
	mov	edx, DWORD PTR _this$[ebp]
	mov	ecx, DWORD PTR _this$[ebp]
	mov	eax, DWORD PTR [edx+1760]
	call	eax
$LN2@Touch:

; 500  : 
; 501  : 		// forward the blocked event to our parent, if any.
; 502  : 		if( m_hParent != NULL && !m_isChaining )

	mov	ecx, DWORD PTR _this$[ebp]
	add	ecx, 160				; 000000a0H
	call	??BEHANDLE@@QAEHXZ			; EHANDLE::operator int
	test	eax, eax
	je	SHORT $LN1@Touch
	mov	eax, DWORD PTR _this$[ebp]
	movzx	ecx, BYTE PTR [eax+1640]
	test	ecx, ecx
	jne	SHORT $LN1@Touch

; 503  : 			m_hParent->Touch( pOther );

	mov	ecx, DWORD PTR _this$[ebp]
	add	ecx, 160				; 000000a0H
	call	??CEHANDLE@@QAEPAVCBaseEntity@@XZ	; EHANDLE::operator->
	mov	DWORD PTR tv80[ebp], eax
	mov	eax, DWORD PTR _pOther$[ebp]
	push	eax
	mov	ecx, DWORD PTR tv80[ebp]
	mov	edx, DWORD PTR [ecx]
	mov	ecx, DWORD PTR tv80[ebp]
	mov	eax, DWORD PTR [edx+312]
	call	eax
$LN1@Touch:

; 504  : 	}

	pop	edi
	pop	esi
	pop	ebx
	mov	esp, ebp
	pop	ebp
	ret	4
?Touch@CBaseEntity@@UAEXPAV1@@Z ENDP			; CBaseEntity::Touch
_TEXT	ENDS
; Function compile flags: /Odtp /ZI
; File d:\!diffusion 2020\source code 2022\client-server\server\cbase.h
;	COMDAT ?Use@CBaseEntity@@UAEXPAV1@0W4USE_TYPE@@M@Z
_TEXT	SEGMENT
_this$ = -4						; size = 4
_pActivator$ = 8					; size = 4
_pCaller$ = 12						; size = 4
_useType$ = 16						; size = 4
_value$ = 20						; size = 4
?Use@CBaseEntity@@UAEXPAV1@0W4USE_TYPE@@M@Z PROC	; CBaseEntity::Use, COMDAT
; _this$ = ecx

; 492  : 	{

	push	ebp
	mov	ebp, esp
	sub	esp, 68					; 00000044H
	push	ebx
	push	esi
	push	edi
	mov	DWORD PTR _this$[ebp], ecx

; 493  : 		if (m_pfnUse) (this->*m_pfnUse)( pActivator, pCaller, useType, value );

	mov	eax, DWORD PTR _this$[ebp]
	cmp	DWORD PTR [eax+1764], 0
	je	SHORT $LN2@Use
	push	ecx
	movss	xmm0, DWORD PTR _value$[ebp]
	movss	DWORD PTR [esp], xmm0
	mov	eax, DWORD PTR _useType$[ebp]
	push	eax
	mov	ecx, DWORD PTR _pCaller$[ebp]
	push	ecx
	mov	edx, DWORD PTR _pActivator$[ebp]
	push	edx
	mov	eax, DWORD PTR _this$[ebp]
	mov	ecx, DWORD PTR _this$[ebp]
	mov	edx, DWORD PTR [eax+1764]
	call	edx
$LN2@Use:

; 494  : 	}

	pop	edi
	pop	esi
	pop	ebx
	mov	esp, ebp
	pop	ebp
	ret	16					; 00000010H
?Use@CBaseEntity@@UAEXPAV1@0W4USE_TYPE@@M@Z ENDP	; CBaseEntity::Use
_TEXT	ENDS
; Function compile flags: /Odtp /ZI
; File d:\!diffusion 2020\source code 2022\client-server\server\cbase.h
;	COMDAT ?Think@CBaseEntity@@UAEXXZ
_TEXT	SEGMENT
_this$ = -4						; size = 4
?Think@CBaseEntity@@UAEXXZ PROC				; CBaseEntity::Think, COMDAT
; _this$ = ecx

; 489  : 	virtual void Think( void ) { if (m_pfnThink) (this->*m_pfnThink)(); };

	push	ebp
	mov	ebp, esp
	sub	esp, 68					; 00000044H
	push	ebx
	push	esi
	push	edi
	mov	DWORD PTR _this$[ebp], ecx
	mov	eax, DWORD PTR _this$[ebp]
	cmp	DWORD PTR [eax+1756], 0
	je	SHORT $LN1@Think
	mov	eax, DWORD PTR _this$[ebp]
	mov	ecx, DWORD PTR _this$[ebp]
	mov	edx, DWORD PTR [eax+1756]
	call	edx
$LN1@Think:
	pop	edi
	pop	esi
	pop	ebx
	mov	esp, ebp
	pop	ebp
	ret	0
?Think@CBaseEntity@@UAEXXZ ENDP				; CBaseEntity::Think
_TEXT	ENDS
; Function compile flags: /Odtp /ZI
; File d:\!diffusion 2020\source code 2022\client-server\server\cbase.h
;	COMDAT ?OnDropObject@CBaseEntity@@UAEXXZ
_TEXT	SEGMENT
_this$ = -4						; size = 4
?OnDropObject@CBaseEntity@@UAEXXZ PROC			; CBaseEntity::OnDropObject, COMDAT
; _this$ = ecx

; 478  : 	virtual void OnDropObject( void ){ };

	push	ebp
	mov	ebp, esp
	sub	esp, 68					; 00000044H
	push	ebx
	push	esi
	push	edi
	mov	DWORD PTR _this$[ebp], ecx
	pop	edi
	pop	esi
	pop	ebx
	mov	esp, ebp
	pop	ebp
	ret	0
?OnDropObject@CBaseEntity@@UAEXXZ ENDP			; CBaseEntity::OnDropObject
_TEXT	ENDS
; Function compile flags: /Odtp /ZI
; File d:\!diffusion 2020\source code 2022\client-server\server\cbase.h
;	COMDAT ?OnPickupObject@CBaseEntity@@UAEXXZ
_TEXT	SEGMENT
_this$ = -4						; size = 4
?OnPickupObject@CBaseEntity@@UAEXXZ PROC		; CBaseEntity::OnPickupObject, COMDAT
; _this$ = ecx

; 477  : 	virtual void OnPickupObject( void ) { };

	push	ebp
	mov	ebp, esp
	sub	esp, 68					; 00000044H
	push	ebx
	push	esi
	push	edi
	mov	DWORD PTR _this$[ebp], ecx
	pop	edi
	pop	esi
	pop	ebx
	mov	esp, ebp
	pop	ebp
	ret	0
?OnPickupObject@CBaseEntity@@UAEXXZ ENDP		; CBaseEntity::OnPickupObject
_TEXT	ENDS
; Function compile flags: /Odtp /ZI
; File d:\!diffusion 2020\source code 2022\client-server\server\cbase.h
;	COMDAT ?SetNullModel@CBaseEntity@@UAEXXZ
_TEXT	SEGMENT
_this$ = -4						; size = 4
?SetNullModel@CBaseEntity@@UAEXXZ PROC			; CBaseEntity::SetNullModel, COMDAT
; _this$ = ecx

; 1228 : {

	push	ebp
	mov	ebp, esp
	sub	esp, 68					; 00000044H
	push	ebx
	push	esi
	push	edi
	mov	DWORD PTR _this$[ebp], ecx

; 1229 : 	SET_MODEL( edict(), "sprites/null.spr" );

	push	OFFSET ??_C@_0BB@EMJBJDBM@sprites?1null?4spr?$AA@
	mov	ecx, DWORD PTR _this$[ebp]
	call	?edict@CBaseEntity@@QAEPAUedict_s@@XZ	; CBaseEntity::edict
	push	eax
	call	DWORD PTR ?g_engfuncs@@3Uenginefuncs_s@@A+8
	add	esp, 8

; 1230 : }

	pop	edi
	pop	esi
	pop	ebx
	mov	esp, ebp
	pop	ebp
	ret	0
?SetNullModel@CBaseEntity@@UAEXXZ ENDP			; CBaseEntity::SetNullModel
_TEXT	ENDS
; Function compile flags: /Odtp /ZI
; File d:\!diffusion 2020\source code 2022\client-server\server\cbase.h
;	COMDAT ?RemoveFlag@CBaseEntity@@UAEXH@Z
_TEXT	SEGMENT
_this$ = -4						; size = 4
_Flag$ = 8						; size = 4
?RemoveFlag@CBaseEntity@@UAEXH@Z PROC			; CBaseEntity::RemoveFlag, COMDAT
; _this$ = ecx

; 1223 : {

	push	ebp
	mov	ebp, esp
	sub	esp, 68					; 00000044H
	push	ebx
	push	esi
	push	edi
	mov	DWORD PTR _this$[ebp], ecx

; 1224 : 	m_iFlags2 &= ~Flag;

	mov	eax, DWORD PTR _Flag$[ebp]
	not	eax
	mov	ecx, DWORD PTR _this$[ebp]
	and	eax, DWORD PTR [ecx+28]
	mov	edx, DWORD PTR _this$[ebp]
	mov	DWORD PTR [edx+28], eax

; 1225 : }

	pop	edi
	pop	esi
	pop	ebx
	mov	esp, ebp
	pop	ebp
	ret	4
?RemoveFlag@CBaseEntity@@UAEXH@Z ENDP			; CBaseEntity::RemoveFlag
_TEXT	ENDS
; Function compile flags: /Odtp /ZI
; File d:\!diffusion 2020\source code 2022\client-server\server\cbase.h
;	COMDAT ?HasFlag@CBaseEntity@@UBE_NH@Z
_TEXT	SEGMENT
tv67 = -72						; size = 4
_this$ = -4						; size = 4
_Flag$ = 8						; size = 4
?HasFlag@CBaseEntity@@UBE_NH@Z PROC			; CBaseEntity::HasFlag, COMDAT
; _this$ = ecx

; 1213 : {

	push	ebp
	mov	ebp, esp
	sub	esp, 72					; 00000048H
	push	ebx
	push	esi
	push	edi
	mov	DWORD PTR _this$[ebp], ecx

; 1214 : 	return (m_iFlags2 & Flag) != 0;

	mov	eax, DWORD PTR _this$[ebp]
	mov	ecx, DWORD PTR [eax+28]
	and	ecx, DWORD PTR _Flag$[ebp]
	je	SHORT $LN3@HasFlag
	mov	DWORD PTR tv67[ebp], 1
	jmp	SHORT $LN4@HasFlag
$LN3@HasFlag:
	mov	DWORD PTR tv67[ebp], 0
$LN4@HasFlag:
	mov	al, BYTE PTR tv67[ebp]

; 1215 : }

	pop	edi
	pop	esi
	pop	ebx
	mov	esp, ebp
	pop	ebp
	ret	4
?HasFlag@CBaseEntity@@UBE_NH@Z ENDP			; CBaseEntity::HasFlag
_TEXT	ENDS
; Function compile flags: /Odtp /ZI
; File d:\!diffusion 2020\source code 2022\client-server\server\cbase.h
;	COMDAT ?SetFlag@CBaseEntity@@UAEXH@Z
_TEXT	SEGMENT
_this$ = -4						; size = 4
_Flag$ = 8						; size = 4
?SetFlag@CBaseEntity@@UAEXH@Z PROC			; CBaseEntity::SetFlag, COMDAT
; _this$ = ecx

; 1218 : {

	push	ebp
	mov	ebp, esp
	sub	esp, 68					; 00000044H
	push	ebx
	push	esi
	push	edi
	mov	DWORD PTR _this$[ebp], ecx

; 1219 : 	m_iFlags2 |= Flag;

	mov	eax, DWORD PTR _this$[ebp]
	mov	ecx, DWORD PTR [eax+28]
	or	ecx, DWORD PTR _Flag$[ebp]
	mov	edx, DWORD PTR _this$[ebp]
	mov	DWORD PTR [edx+28], ecx

; 1220 : }

	pop	edi
	pop	esi
	pop	ebx
	mov	esp, ebp
	pop	ebp
	ret	4
?SetFlag@CBaseEntity@@UAEXH@Z ENDP			; CBaseEntity::SetFlag
_TEXT	ENDS
; Function compile flags: /Odtp /ZI
; File d:\!diffusion 2020\source code 2022\client-server\server\cbase.h
;	COMDAT ?SetFadeDistance@CBaseEntity@@UAEXH@Z
_TEXT	SEGMENT
_this$ = -4						; size = 4
_Distance$ = 8						; size = 4
?SetFadeDistance@CBaseEntity@@UAEXH@Z PROC		; CBaseEntity::SetFadeDistance, COMDAT
; _this$ = ecx

; 1208 : {

	push	ebp
	mov	ebp, esp
	sub	esp, 68					; 00000044H
	push	ebx
	push	esi
	push	edi
	mov	DWORD PTR _this$[ebp], ecx

; 1209 : 	pev->iuser4 = Distance;

	mov	eax, DWORD PTR _this$[ebp]
	mov	ecx, DWORD PTR [eax+4]
	mov	edx, DWORD PTR _Distance$[ebp]
	mov	DWORD PTR [ecx+592], edx

; 1210 : }

	pop	edi
	pop	esi
	pop	ebx
	mov	esp, ebp
	pop	ebp
	ret	4
?SetFadeDistance@CBaseEntity@@UAEXH@Z ENDP		; CBaseEntity::SetFadeDistance
_TEXT	ENDS
; Function compile flags: /Odtp /ZI
; File d:\!diffusion 2020\source code 2022\client-server\server\cbase.h
;	COMDAT ?HasSpawnFlags@CBaseEntity@@UBE_NH@Z
_TEXT	SEGMENT
tv68 = -72						; size = 4
_this$ = -4						; size = 4
_nFlags$ = 8						; size = 4
?HasSpawnFlags@CBaseEntity@@UBE_NH@Z PROC		; CBaseEntity::HasSpawnFlags, COMDAT
; _this$ = ecx

; 1202 : {

	push	ebp
	mov	ebp, esp
	sub	esp, 72					; 00000048H
	push	ebx
	push	esi
	push	edi
	mov	DWORD PTR _this$[ebp], ecx

; 1203 : 	return (pev->spawnflags & nFlags) != 0;

	mov	eax, DWORD PTR _this$[ebp]
	mov	ecx, DWORD PTR [eax+4]
	mov	edx, DWORD PTR [ecx+416]
	and	edx, DWORD PTR _nFlags$[ebp]
	je	SHORT $LN3@HasSpawnFl
	mov	DWORD PTR tv68[ebp], 1
	jmp	SHORT $LN4@HasSpawnFl
$LN3@HasSpawnFl:
	mov	DWORD PTR tv68[ebp], 0
$LN4@HasSpawnFl:
	mov	al, BYTE PTR tv68[ebp]

; 1204 : }

	pop	edi
	pop	esi
	pop	ebx
	mov	esp, ebp
	pop	ebp
	ret	4
?HasSpawnFlags@CBaseEntity@@UBE_NH@Z ENDP		; CBaseEntity::HasSpawnFlags
_TEXT	ENDS
; Function compile flags: /Odtp /ZI
; File d:\!diffusion 2020\source code 2022\client-server\server\cbase.h
;	COMDAT ?AddSpawnFlags@CBaseEntity@@UAEXH@Z
_TEXT	SEGMENT
_this$ = -4						; size = 4
_nFlags$ = 8						; size = 4
?AddSpawnFlags@CBaseEntity@@UAEXH@Z PROC		; CBaseEntity::AddSpawnFlags, COMDAT
; _this$ = ecx

; 1197 : {

	push	ebp
	mov	ebp, esp
	sub	esp, 68					; 00000044H
	push	ebx
	push	esi
	push	edi
	mov	DWORD PTR _this$[ebp], ecx

; 1198 : 	pev->spawnflags |= nFlags;

	mov	eax, DWORD PTR _this$[ebp]
	mov	ecx, DWORD PTR [eax+4]
	mov	edx, DWORD PTR [ecx+416]
	or	edx, DWORD PTR _nFlags$[ebp]
	mov	eax, DWORD PTR _this$[ebp]
	mov	ecx, DWORD PTR [eax+4]
	mov	DWORD PTR [ecx+416], edx

; 1199 : }

	pop	edi
	pop	esi
	pop	ebx
	mov	esp, ebp
	pop	ebp
	ret	4
?AddSpawnFlags@CBaseEntity@@UAEXH@Z ENDP		; CBaseEntity::AddSpawnFlags
_TEXT	ENDS
; Function compile flags: /Odtp /ZI
; File d:\!diffusion 2020\source code 2022\client-server\server\cbase.h
;	COMDAT ?TeamID@CBaseEntity@@UAEPBDXZ
_TEXT	SEGMENT
_this$ = -4						; size = 4
?TeamID@CBaseEntity@@UAEPBDXZ PROC			; CBaseEntity::TeamID, COMDAT
; _this$ = ecx

; 466  : 	virtual const char	*TeamID( void ) { return ""; }

	push	ebp
	mov	ebp, esp
	sub	esp, 68					; 00000044H
	push	ebx
	push	esi
	push	edi
	mov	DWORD PTR _this$[ebp], ecx
	mov	eax, OFFSET ??_C@_00CNPNBAHC@?$AA@
	pop	edi
	pop	esi
	pop	ebx
	mov	esp, ebp
	pop	ebp
	ret	0
?TeamID@CBaseEntity@@UAEPBDXZ ENDP			; CBaseEntity::TeamID
_TEXT	ENDS
; Function compile flags: /Odtp /ZI
; File d:\!diffusion 2020\source code 2022\client-server\server\cbase.h
;	COMDAT ?IsBreakable@CBaseEntity@@UAEHXZ
_TEXT	SEGMENT
_this$ = -4						; size = 4
?IsBreakable@CBaseEntity@@UAEHXZ PROC			; CBaseEntity::IsBreakable, COMDAT
; _this$ = ecx

; 465  : 	virtual BOOL	IsBreakable( void ) { return FALSE; }

	push	ebp
	mov	ebp, esp
	sub	esp, 68					; 00000044H
	push	ebx
	push	esi
	push	edi
	mov	DWORD PTR _this$[ebp], ecx
	xor	eax, eax
	pop	edi
	pop	esi
	pop	ebx
	mov	esp, ebp
	pop	ebp
	ret	0
?IsBreakable@CBaseEntity@@UAEHXZ ENDP			; CBaseEntity::IsBreakable
_TEXT	ENDS
; Function compile flags: /Odtp /ZI
; File d:\!diffusion 2020\source code 2022\client-server\server\cbase.h
;	COMDAT ?IsMover@CBaseEntity@@UAEHXZ
_TEXT	SEGMENT
_this$ = -4						; size = 4
?IsMover@CBaseEntity@@UAEHXZ PROC			; CBaseEntity::IsMover, COMDAT
; _this$ = ecx

; 464  : 	virtual BOOL	IsMover( void ) { return FALSE; }

	push	ebp
	mov	ebp, esp
	sub	esp, 68					; 00000044H
	push	ebx
	push	esi
	push	edi
	mov	DWORD PTR _this$[ebp], ecx
	xor	eax, eax
	pop	edi
	pop	esi
	pop	ebx
	mov	esp, ebp
	pop	ebp
	ret	0
?IsMover@CBaseEntity@@UAEHXZ ENDP			; CBaseEntity::IsMover
_TEXT	ENDS
; Function compile flags: /Odtp /ZI
; File d:\!diffusion 2020\source code 2022\client-server\server\cbase.h
;	COMDAT ?IsTank@CBaseEntity@@UAEHXZ
_TEXT	SEGMENT
_this$ = -4						; size = 4
?IsTank@CBaseEntity@@UAEHXZ PROC			; CBaseEntity::IsTank, COMDAT
; _this$ = ecx

; 463  : 	virtual BOOL	IsTank( void ) { return FALSE; }

	push	ebp
